	.section	__TEXT,__text,regular,pure_instructions
	.macosx_version_min 10, 7
	.p2align	4, 0x90
__ZN5alloc7raw_vec19RawVec$LT$T$C$A$GT$11allocate_in28_$u7b$$u7b$closure$u7d$$u7d$17hc9bc51a6f30e6809E:
Lfunc_begin0:
	.file	1 "/rustc/a74d1862d4d87a56244958416fd05976c58ca1a8/src/liballoc/raw_vec.rs"
	.loc	1 152 0
	.cfi_startproc
	pushq	%rbp
	.cfi_def_cfa_offset 16
	.cfi_offset %rbp, -16
	movq	%rsp, %rbp
	.cfi_def_cfa_register %rbp
Ltmp0:
	.loc	1 152 71 prologue_end
	callq	__ZN5alloc5alloc18handle_alloc_error17hbc0ab0ed90816c07E
Ltmp1:
Lfunc_end0:
	.cfi_endproc

	.globl	__ZN9addr2line9path_push17h2bbed4b6406d027eE
	.p2align	4, 0x90
__ZN9addr2line9path_push17h2bbed4b6406d027eE:
Lfunc_begin1:
	.file	2 "/Users/yingyuhang/.cargo/registry/src/github.com-1ecc6299db9ec823/addr2line-0.13.0/src/lib.rs"
	.loc	2 649 0
	.cfi_startproc
	pushq	%rbp
	.cfi_def_cfa_offset 16
	.cfi_offset %rbp, -16
	movq	%rsp, %rbp
	.cfi_def_cfa_register %rbp
	pushq	%r15
	pushq	%r14
	pushq	%r13
	pushq	%r12
	pushq	%rbx
	pushq	%rax
	.cfi_offset %rbx, -56
	.cfi_offset %r12, -48
	.cfi_offset %r13, -40
	.cfi_offset %r14, -32
	.cfi_offset %r15, -24
	movq	%rdx, %r14
Ltmp2:
	movq	%rsi, %r15
Ltmp3:
	movq	%rdi, %r12
Ltmp4:
	.file	3 "/rustc/a74d1862d4d87a56244958416fd05976c58ca1a8/src/libcore/slice/mod.rs"
	.loc	3 1430 9 prologue_end
	testq	%rdx, %rdx
	je	LBB1_2
Ltmp5:
	.loc	3 5868 13
	cmpb	$47, (%r15)
Ltmp6:
	.loc	3 1430 9
	jne	LBB1_2
Ltmp7:
	.file	4 "/rustc/a74d1862d4d87a56244958416fd05976c58ca1a8/src/liballoc/alloc.rs"
	.loc	4 80 5
	movl	$1, %esi
	movq	%r14, %rdi
	callq	___rust_alloc
Ltmp8:
	.file	5 "/rustc/a74d1862d4d87a56244958416fd05976c58ca1a8/src/libcore/result.rs"
	.loc	5 852 13
	testq	%rax, %rax
	je	LBB1_41
Ltmp9:
	.file	6 "/rustc/a74d1862d4d87a56244958416fd05976c58ca1a8/src/liballoc/slice.rs"
	.loc	6 0 0 is_stmt 0
	movq	%rax, %rbx
Ltmp10:
	.file	7 "/rustc/a74d1862d4d87a56244958416fd05976c58ca1a8/src/libcore/intrinsics.rs"
	.loc	7 2058 5 is_stmt 1
	movq	%rax, %rdi
	movq	%r15, %rsi
	movq	%r14, %rdx
	callq	_memcpy
Ltmp11:
	.file	8 "/rustc/a74d1862d4d87a56244958416fd05976c58ca1a8/src/libcore/ptr/mod.rs"
	.loc	8 178 1
	movq	(%r12), %rdi
Ltmp12:
	.loc	1 532 16
	testq	%rdi, %rdi
Ltmp13:
	.loc	1 200 9
	je	LBB1_10
Ltmp14:
	.loc	8 0 0 is_stmt 0
	movq	8(%r12), %rsi
Ltmp15:
	.loc	1 200 9
	testq	%rsi, %rsi
	je	LBB1_10
Ltmp16:
	.loc	4 102 5 is_stmt 1
	movl	$1, %edx
	callq	___rust_dealloc
Ltmp17:
LBB1_10:
	.loc	2 651 9
	movq	%rbx, (%r12)
	movq	%r14, 8(%r12)
	movq	%r14, 16(%r12)
	jmp	LBB1_11
Ltmp18:
LBB1_2:
	.file	9 "/rustc/a74d1862d4d87a56244958416fd05976c58ca1a8/src/liballoc/vec.rs"
	.loc	9 1966 55
	movq	16(%r12), %rbx
Ltmp19:
	.loc	3 1459 9
	testq	%rbx, %rbx
	je	LBB1_4
Ltmp20:
	.loc	9 814 19
	movq	(%r12), %rax
Ltmp21:
	.loc	3 5868 13
	cmpb	$47, -1(%rbx,%rax)
Ltmp22:
	.loc	3 1459 9
	je	LBB1_24
Ltmp23:
LBB1_4:
	.loc	9 1200 12
	cmpq	8(%r12), %rbx
	.loc	9 1200 9 is_stmt 0
	jne	LBB1_5
Ltmp24:
	.file	10 "/rustc/a74d1862d4d87a56244958416fd05976c58ca1a8/src/libcore/num/mod.rs"
	.loc	10 3632 30 is_stmt 1
	movq	%rbx, %r13
	incq	%r13
Ltmp25:
	.file	11 "/rustc/a74d1862d4d87a56244958416fd05976c58ca1a8/src/libcore/option.rs"
	.loc	11 540 13
	je	LBB1_39
Ltmp26:
	.loc	1 414 26
	leaq	(%rbx,%rbx), %rax
Ltmp27:
	.file	12 "/rustc/a74d1862d4d87a56244958416fd05976c58ca1a8/src/libcore/cmp.rs"
	.loc	12 1017 9
	cmpq	%r13, %rax
	.loc	12 0 0 is_stmt 0
	cmovaq	%rax, %r13
Ltmp28:
	.loc	3 1459 9 is_stmt 1
	testq	%rbx, %rbx
Ltmp29:
	.loc	1 200 9
	je	LBB1_17
Ltmp30:
	.loc	1 420 57
	movq	(%r12), %rax
Ltmp31:
	.loc	1 489 25
	testq	%rax, %rax
	je	LBB1_17
Ltmp32:
	.loc	4 205 12
	cmpq	%r13, %rbx
	.loc	4 205 9 is_stmt 0
	je	LBB1_20
Ltmp33:
	.loc	4 124 5 is_stmt 1
	movl	$1, %edx
	movq	%rax, %rdi
	movq	%rbx, %rsi
	movq	%r13, %rcx
	callq	___rust_realloc
Ltmp34:
	.loc	5 611 13
	testq	%rax, %rax
	jne	LBB1_21
	jmp	LBB1_40
Ltmp35:
LBB1_5:
	.loc	9 850 19
	movq	(%r12), %rax
	jmp	LBB1_23
Ltmp36:
LBB1_17:
	.loc	4 170 16
	testq	%r13, %r13
	.loc	4 170 13 is_stmt 0
	je	LBB1_18
Ltmp37:
	.loc	4 80 5 is_stmt 1
	movl	$1, %esi
	movq	%r13, %rdi
	callq	___rust_alloc
Ltmp38:
LBB1_20:
	.loc	5 611 13
	testq	%rax, %rax
	je	LBB1_40
Ltmp39:
LBB1_21:
	.loc	9 1204 45
	movq	16(%r12), %rbx
	jmp	LBB1_22
Ltmp40:
LBB1_18:
	.loc	9 0 45 is_stmt 0
	movl	$1, %eax
Ltmp41:
LBB1_22:
	.loc	1 387 9 is_stmt 1
	movq	%rax, (%r12)
	.loc	1 388 9
	movq	%r13, 8(%r12)
Ltmp42:
LBB1_23:
	.loc	8 836 42
	movb	$47, (%rax,%rbx)
Ltmp43:
	.loc	9 1206 13
	movq	16(%r12), %rbx
Ltmp44:
	incq	%rbx
	movq	%rbx, 16(%r12)
Ltmp45:
LBB1_24:
	.loc	1 280 12
	movq	8(%r12), %rsi
Ltmp46:
	.loc	10 3343 17
	movq	%rsi, %rax
	subq	%rbx, %rax
Ltmp47:
	.loc	1 378 9
	cmpq	%r14, %rax
Ltmp48:
	.loc	1 280 9
	jae	LBB1_25
Ltmp49:
	.loc	10 3632 30
	movq	%rbx, %r13
	addq	%r14, %r13
Ltmp50:
	.loc	11 540 13
	jb	LBB1_39
Ltmp51:
	.loc	1 414 26
	leaq	(%rsi,%rsi), %rax
Ltmp52:
	.loc	12 1017 9
	cmpq	%r13, %rax
	.loc	12 0 0 is_stmt 0
	cmovaq	%rax, %r13
Ltmp53:
	.loc	1 200 40 is_stmt 1
	testq	%rsi, %rsi
	.loc	1 200 9 is_stmt 0
	je	LBB1_32
Ltmp54:
	.loc	1 420 57 is_stmt 1
	movq	(%r12), %rdi
Ltmp55:
	.loc	1 489 25
	testq	%rdi, %rdi
	je	LBB1_32
Ltmp56:
	.loc	4 205 12
	cmpq	%r13, %rsi
	.loc	4 205 9 is_stmt 0
	je	LBB1_36
Ltmp57:
	.loc	4 124 5 is_stmt 1
	movl	$1, %edx
	movq	%r13, %rcx
	callq	___rust_realloc
Ltmp58:
	.loc	4 0 5 is_stmt 0
	jmp	LBB1_35
Ltmp59:
LBB1_25:
	.loc	9 850 19 is_stmt 1
	movq	(%r12), %rdi
	jmp	LBB1_26
Ltmp60:
LBB1_32:
	.loc	4 170 16
	testq	%r13, %r13
	.loc	4 170 13 is_stmt 0
	je	LBB1_33
Ltmp61:
	.loc	4 80 5 is_stmt 1
	movl	$1, %esi
	movq	%r13, %rdi
	callq	___rust_alloc
Ltmp62:
LBB1_35:
	.loc	1 0 0 is_stmt 0
	movq	%rax, %rdi
Ltmp63:
LBB1_36:
	.loc	5 611 13 is_stmt 1
	testq	%rdi, %rdi
	je	LBB1_40
Ltmp64:
	.loc	9 2176 23
	movq	16(%r12), %rbx
	jmp	LBB1_38
Ltmp65:
LBB1_33:
	.loc	9 0 23 is_stmt 0
	movl	$1, %edi
Ltmp66:
LBB1_38:
	.loc	1 387 9 is_stmt 1
	movq	%rdi, (%r12)
	.loc	1 388 9
	movq	%r13, 8(%r12)
Ltmp67:
LBB1_26:
	.file	13 "/rustc/a74d1862d4d87a56244958416fd05976c58ca1a8/src/libcore/ptr/mut_ptr.rs"
	.loc	13 152 9
	addq	%rbx, %rdi
Ltmp68:
	.loc	7 2058 5
	movq	%r15, %rsi
	movq	%r14, %rdx
	callq	_memcpy
Ltmp69:
	.loc	9 2179 26
	addq	%r14, %rbx
Ltmp70:
	.loc	9 940 9
	movq	%rbx, 16(%r12)
Ltmp71:
LBB1_11:
	.loc	2 658 2
	addq	$8, %rsp
	popq	%rbx
	popq	%r12
Ltmp72:
	popq	%r13
	popq	%r14
Ltmp73:
	popq	%r15
Ltmp74:
	popq	%rbp
	retq
LBB1_39:
Ltmp75:
	.loc	2 0 0 is_stmt 0
	callq	__ZN5alloc7raw_vec17capacity_overflow17h023f34f5bc34c61fE
Ltmp76:
LBB1_40:
	movl	$1, %esi
	movq	%r13, %rdi
	callq	__ZN5alloc5alloc18handle_alloc_error17hbc0ab0ed90816c07E
Ltmp77:
LBB1_41:
	.loc	5 853 23 is_stmt 1
	movl	$1, %esi
	movq	%r14, %rdi
	callq	__ZN5alloc7raw_vec19RawVec$LT$T$C$A$GT$11allocate_in28_$u7b$$u7b$closure$u7d$$u7d$17hc9bc51a6f30e6809E
Ltmp78:
Lfunc_end1:
	.cfi_endproc
	.file	14 "/rustc/a74d1862d4d87a56244958416fd05976c58ca1a8/src/libcore/str/pattern.rs"
	.file	15 "/rustc/a74d1862d4d87a56244958416fd05976c58ca1a8/src/libcore/str/mod.rs"
	.file	16 "/rustc/a74d1862d4d87a56244958416fd05976c58ca1a8/src/liballoc/str.rs"
	.file	17 "/rustc/a74d1862d4d87a56244958416fd05976c58ca1a8/src/liballoc/string.rs"
	.file	18 "/rustc/a74d1862d4d87a56244958416fd05976c58ca1a8/src/libcore/macros/mod.rs"

	.globl	__ZN9addr2line8demangle17h573e83a66f85d8c5E
	.p2align	4, 0x90
__ZN9addr2line8demangle17h573e83a66f85d8c5E:
Lfunc_begin2:
	.loc	2 1316 0
	.cfi_startproc
	pushq	%rbp
	.cfi_def_cfa_offset 16
	.cfi_offset %rbp, -16
	movq	%rsp, %rbp
	.cfi_def_cfa_register %rbp
	movq	%rdi, %rax
Ltmp79:
	.loc	2 1330 14 prologue_end
	movq	$0, (%rdi)
	.loc	2 1332 2
	popq	%rbp
	retq
Ltmp80:
Lfunc_end2:
	.cfi_endproc

	.globl	__ZN9addr2line13demangle_auto17haecf19a51a721727E
	.p2align	4, 0x90
__ZN9addr2line13demangle_auto17haecf19a51a721727E:
Lfunc_begin3:
	.loc	2 1343 0
	.cfi_startproc
	pushq	%rbp
	.cfi_def_cfa_offset 16
	.cfi_offset %rbp, -16
	movq	%rsp, %rbp
	.cfi_def_cfa_register %rbp
	movq	%rdi, %rax
Ltmp81:
	.loc	2 1350 16 prologue_end
	movups	(%rsi), %xmm0
Ltmp82:
	movups	16(%rsi), %xmm1
Ltmp83:
	.loc	11 412 21
	movups	%xmm0, (%rdi)
	movups	%xmm1, 16(%rdi)
Ltmp84:
	.loc	2 1351 2
	popq	%rbp
	retq
Ltmp85:
Lfunc_end3:
	.cfi_endproc

	.section	__TEXT,__text,regular,pure_instructions
Lsec_end0: