	.section	__TEXT,__text,regular,pure_instructions
	.macosx_version_min 10, 7
	.globl	__ZN9addr2line9path_push17h13acb9461f566881E
	.p2align	4, 0x90
__ZN9addr2line9path_push17h13acb9461f566881E:
Lfunc_begin0:
	.file	1 "/Users/yingyuhang/.cargo/registry/src/github.com-1ecc6299db9ec823/addr2line-0.13.0/src/lib.rs"
	.loc	1 649 0
	.cfi_startproc
	pushq	%rbp
	.cfi_def_cfa_offset 16
	.cfi_offset %rbp, -16
	movq	%rsp, %rbp
	.cfi_def_cfa_register %rbp
	pushq	%r15
	pushq	%r14
	pushq	%r13
	pushq	%r12
	pushq	%rbx
	pushq	%rax
	.cfi_offset %rbx, -56
	.cfi_offset %r12, -48
	.cfi_offset %r13, -40
	.cfi_offset %r14, -32
	.cfi_offset %r15, -24
	movq	%rdx, %r14
	movq	%rsi, %r15
	movq	%rdi, %r12
Ltmp0:
	.file	2 "/rustc/6c8927b0cf80ceee19386026cf9d7fd4fd9d486f/src/libcore/slice/mod.rs"
	.loc	2 1436 9 prologue_end
	testq	%rdx, %rdx
	je	LBB0_2
Ltmp1:
	.loc	2 6276 13
	cmpb	$47, (%r15)
Ltmp2:
	.loc	2 1436 9
	jne	LBB0_2
Ltmp3:
	.file	3 "/rustc/6c8927b0cf80ceee19386026cf9d7fd4fd9d486f/src/liballoc/alloc.rs"
	.loc	3 80 14
	movl	$1, %esi
	movq	%r14, %rdi
	callq	___rust_alloc
Ltmp4:
	.file	4 "/rustc/6c8927b0cf80ceee19386026cf9d7fd4fd9d486f/src/liballoc/raw_vec.rs"
	.loc	4 184 17
	testq	%rax, %rax
	je	LBB0_35
Ltmp5:
	.file	5 "/rustc/6c8927b0cf80ceee19386026cf9d7fd4fd9d486f/src/liballoc/slice.rs"
	.loc	5 0 0 is_stmt 0
	movq	%rax, %rbx
Ltmp6:
	.file	6 "/rustc/6c8927b0cf80ceee19386026cf9d7fd4fd9d486f/src/libcore/intrinsics.rs"
	.loc	6 2130 14 is_stmt 1
	movq	%rax, %rdi
	movq	%r15, %rsi
	movq	%r14, %rdx
	callq	_memcpy
Ltmp7:
	.file	7 "/rustc/6c8927b0cf80ceee19386026cf9d7fd4fd9d486f/src/libcore/ptr/mod.rs"
	.loc	7 184 1
	movq	(%r12), %rdi
Ltmp8:
	.loc	4 507 16
	testq	%rdi, %rdi
Ltmp9:
	.loc	4 235 9
	je	LBB0_10
Ltmp10:
	.loc	7 0 0 is_stmt 0
	movq	8(%r12), %rsi
Ltmp11:
	.loc	4 235 9
	testq	%rsi, %rsi
	je	LBB0_10
Ltmp12:
	.loc	3 102 14 is_stmt 1
	movl	$1, %edx
	callq	___rust_dealloc
Ltmp13:
LBB0_10:
	.loc	1 651 9
	movq	%rbx, (%r12)
	movq	%r14, 8(%r12)
	movq	%r14, 16(%r12)
	jmp	LBB0_11
Ltmp14:
LBB0_2:
	.file	8 "/rustc/6c8927b0cf80ceee19386026cf9d7fd4fd9d486f/src/liballoc/vec.rs"
	.loc	8 1923 55
	movq	16(%r12), %rbx
Ltmp15:
	.loc	2 1465 9
	testq	%rbx, %rbx
	je	LBB0_4
Ltmp16:
	.loc	8 818 19
	movq	(%r12), %rax
Ltmp17:
	.loc	2 6276 13
	cmpb	$47, -1(%rbx,%rax)
Ltmp18:
	.loc	2 1465 9
	je	LBB0_21
Ltmp19:
LBB0_4:
	.loc	8 1204 12
	cmpq	8(%r12), %rbx
	.loc	8 1204 9 is_stmt 0
	jne	LBB0_5
Ltmp20:
	.file	9 "/rustc/6c8927b0cf80ceee19386026cf9d7fd4fd9d486f/src/libcore/num/mod.rs"
	.loc	9 3751 30 is_stmt 1
	movq	%rbx, %rax
	incq	%rax
Ltmp21:
	.file	10 "/rustc/6c8927b0cf80ceee19386026cf9d7fd4fd9d486f/src/libcore/option.rs"
	.loc	10 538 13
	je	LBB0_33
Ltmp22:
	.loc	4 408 28
	leaq	(%rbx,%rbx), %rcx
Ltmp23:
	.file	11 "/rustc/6c8927b0cf80ceee19386026cf9d7fd4fd9d486f/src/libcore/cmp.rs"
	.loc	11 1016 9
	cmpq	%rax, %rcx
	.loc	11 0 0 is_stmt 0
	cmovaq	%rcx, %rax
Ltmp24:
	cmpq	$8, %rax
	movl	$8, %r13d
	cmovaq	%rax, %r13
Ltmp25:
	.loc	2 1465 9 is_stmt 1
	testq	%rbx, %rbx
Ltmp26:
	.loc	4 235 9
	je	LBB0_15
Ltmp27:
	.loc	4 429 46
	movq	(%r12), %rax
Ltmp28:
	.loc	4 493 25
	testq	%rax, %rax
Ltmp29:
	je	LBB0_15
Ltmp30:
	.loc	3 205 12
	cmpq	%r13, %rbx
Ltmp31:
	.loc	3 205 9 is_stmt 0
	je	LBB0_18
Ltmp32:
	.loc	3 124 14 is_stmt 1
	movl	$1, %edx
	movq	%rax, %rdi
	movq	%rbx, %rsi
	movq	%r13, %rcx
	callq	___rust_realloc
Ltmp33:
	.loc	3 0 14 is_stmt 0
	jmp	LBB0_18
Ltmp34:
LBB0_5:
	.loc	8 854 19 is_stmt 1
	movq	(%r12), %rax
	jmp	LBB0_20
Ltmp35:
LBB0_15:
	.loc	3 80 14
	movl	$1, %esi
	movq	%r13, %rdi
	callq	___rust_alloc
Ltmp36:
LBB0_18:
	.file	12 "/rustc/6c8927b0cf80ceee19386026cf9d7fd4fd9d486f/src/libcore/result.rs"
	.loc	12 611 13
	testq	%rax, %rax
	je	LBB0_34
Ltmp37:
	.loc	4 382 9
	movq	%rax, (%r12)
	.loc	4 383 9
	movq	%r13, 8(%r12)
Ltmp38:
	.loc	8 1208 45
	movq	16(%r12), %rbx
Ltmp39:
LBB0_20:
	.loc	7 901 51
	movb	$47, (%rax,%rbx)
Ltmp40:
	.loc	8 1210 13
	movq	16(%r12), %rbx
Ltmp41:
	incq	%rbx
	movq	%rbx, 16(%r12)
Ltmp42:
LBB0_21:
	.loc	4 309 12
	movq	8(%r12), %rsi
Ltmp43:
	.loc	9 3462 17
	movq	%rsi, %rax
	subq	%rbx, %rax
Ltmp44:
	.loc	4 373 9
	cmpq	%r14, %rax
Ltmp45:
	.loc	4 309 9
	jae	LBB0_22
Ltmp46:
	.loc	9 3751 30
	addq	%r14, %rbx
Ltmp47:
	.loc	10 538 13
	jb	LBB0_33
Ltmp48:
	.loc	4 408 28
	leaq	(%rsi,%rsi), %rax
Ltmp49:
	.loc	11 1016 9
	cmpq	%rbx, %rax
	.loc	11 0 0 is_stmt 0
	cmovaq	%rax, %rbx
Ltmp50:
	cmpq	$8, %rbx
	movl	$8, %r13d
	cmovaq	%rbx, %r13
Ltmp51:
	.loc	4 235 40 is_stmt 1
	testq	%rsi, %rsi
	.loc	4 235 9 is_stmt 0
	je	LBB0_27
Ltmp52:
	.loc	4 429 46 is_stmt 1
	movq	(%r12), %rdi
Ltmp53:
	.loc	4 493 25
	testq	%rdi, %rdi
	je	LBB0_27
Ltmp54:
	.loc	3 205 12
	cmpq	%r13, %rsi
	.loc	3 205 9 is_stmt 0
	je	LBB0_31
Ltmp55:
	.loc	3 124 14 is_stmt 1
	movl	$1, %edx
	movq	%r13, %rcx
	callq	___rust_realloc
Ltmp56:
	.loc	3 0 14 is_stmt 0
	jmp	LBB0_30
Ltmp57:
LBB0_22:
	.loc	8 854 19 is_stmt 1
	movq	(%r12), %rdi
	jmp	LBB0_23
Ltmp58:
LBB0_27:
	.loc	3 80 14
	movl	$1, %esi
	movq	%r13, %rdi
	callq	___rust_alloc
Ltmp59:
LBB0_30:
	.loc	4 0 0 is_stmt 0
	movq	%rax, %rdi
Ltmp60:
LBB0_31:
	.loc	12 611 13 is_stmt 1
	testq	%rdi, %rdi
	je	LBB0_34
Ltmp61:
	.loc	4 382 9
	movq	%rdi, (%r12)
	.loc	4 383 9
	movq	%r13, 8(%r12)
Ltmp62:
	.loc	8 2198 23
	movq	16(%r12), %rbx
Ltmp63:
LBB0_23:
	.file	13 "/rustc/6c8927b0cf80ceee19386026cf9d7fd4fd9d486f/src/libcore/ptr/mut_ptr.rs"
	.loc	13 165 18
	addq	%rbx, %rdi
Ltmp64:
	.loc	6 2130 14
	movq	%r15, %rsi
	movq	%r14, %rdx
	callq	_memcpy
Ltmp65:
	.loc	8 2201 26
	addq	%r14, %rbx
Ltmp66:
	.loc	8 944 9
	movq	%rbx, 16(%r12)
Ltmp67:
LBB0_11:
	.loc	1 658 2
	addq	$8, %rsp
	popq	%rbx
	popq	%r12
Ltmp68:
	popq	%r13
	popq	%r14
Ltmp69:
	popq	%r15
Ltmp70:
	popq	%rbp
	retq
LBB0_33:
Ltmp71:
	.loc	1 0 0 is_stmt 0
	callq	__ZN5alloc7raw_vec17capacity_overflow17h7526b10e27579d59E
Ltmp72:
LBB0_34:
	movl	$1, %esi
	movq	%r13, %rdi
	callq	__ZN5alloc5alloc18handle_alloc_error17h28974197717b8939E
Ltmp73:
LBB0_35:
	.loc	4 185 27 is_stmt 1
	movl	$1, %esi
	movq	%r14, %rdi
	callq	__ZN5alloc5alloc18handle_alloc_error17h28974197717b8939E
Ltmp74:
Lfunc_end0:
	.cfi_endproc
	.file	14 "/rustc/6c8927b0cf80ceee19386026cf9d7fd4fd9d486f/src/libcore/str/pattern.rs"
	.file	15 "/rustc/6c8927b0cf80ceee19386026cf9d7fd4fd9d486f/src/libcore/str/mod.rs"
	.file	16 "/rustc/6c8927b0cf80ceee19386026cf9d7fd4fd9d486f/src/liballoc/str.rs"
	.file	17 "/rustc/6c8927b0cf80ceee19386026cf9d7fd4fd9d486f/src/liballoc/string.rs"
	.file	18 "/rustc/6c8927b0cf80ceee19386026cf9d7fd4fd9d486f/src/libcore/macros/mod.rs"

	.globl	__ZN9addr2line8demangle17h31bdd4c175dd1002E
	.p2align	4, 0x90
__ZN9addr2line8demangle17h31bdd4c175dd1002E:
Lfunc_begin1:
	.loc	1 1316 0
	.cfi_startproc
	pushq	%rbp
	.cfi_def_cfa_offset 16
	.cfi_offset %rbp, -16
	movq	%rsp, %rbp
	.cfi_def_cfa_register %rbp
	movq	%rdi, %rax
Ltmp75:
	.loc	1 1330 14 prologue_end
	movq	$0, (%rdi)
	.loc	1 1332 2
	popq	%rbp
	retq
Ltmp76:
Lfunc_end1:
	.cfi_endproc

	.globl	__ZN9addr2line13demangle_auto17h14764f4c798e7698E
	.p2align	4, 0x90
__ZN9addr2line13demangle_auto17h14764f4c798e7698E:
Lfunc_begin2:
	.loc	1 1343 0
	.cfi_startproc
	pushq	%rbp
	.cfi_def_cfa_offset 16
	.cfi_offset %rbp, -16
	movq	%rsp, %rbp
	.cfi_def_cfa_register %rbp
	movq	%rdi, %rax
Ltmp77:
	.loc	1 1350 16 prologue_end
	movups	(%rsi), %xmm0
Ltmp78:
	movups	16(%rsi), %xmm1
Ltmp79:
	.loc	10 410 21
	movups	%xmm0, (%rdi)
	movups	%xmm1, 16(%rdi)
Ltmp80:
	.loc	1 1351 2
	popq	%rbp
	retq
Ltmp81:
Lfunc_end2:
	.cfi_endproc

	.section	__TEXT,__text,regular,pure_instructions
Lsec_end0: