	.section	__TEXT,__text,regular,pure_instructions
	.macosx_version_min 10, 7
	.p2align	4, 0x90
__ZN42_$LT$$RF$T$u20$as$u20$core..fmt..Debug$GT$3fmt17h78d2867acf6c7106E:
Lfunc_begin0:
	.file	1 "/rustc/6c8927b0cf80ceee19386026cf9d7fd4fd9d486f/src/libcore/fmt/mod.rs"
	.loc	1 2022 0
	.cfi_startproc
	pushq	%rbp
	.cfi_def_cfa_offset 16
	.cfi_offset %rbp, -16
	movq	%rsp, %rbp
	.cfi_def_cfa_register %rbp
	pushq	%r14
	pushq	%rbx
	.cfi_offset %rbx, -32
	.cfi_offset %r14, -24
	movq	%rsi, %rbx
Ltmp0:
	.loc	1 2022 71 prologue_end
	movq	(%rdi), %r14
Ltmp1:
	.file	2 "/rustc/6c8927b0cf80ceee19386026cf9d7fd4fd9d486f/src/libcore/fmt/num.rs"
	.loc	2 149 20
	movq	%rsi, %rdi
Ltmp2:
	callq	__ZN4core3fmt9Formatter15debug_lower_hex17hd07f6fde8d0365dfE
	.loc	2 149 17 is_stmt 0
	testb	%al, %al
	je	LBB0_1
Ltmp3:
	.loc	2 150 21 is_stmt 1
	movq	%r14, %rdi
	movq	%rbx, %rsi
	popq	%rbx
Ltmp4:
	popq	%r14
Ltmp5:
	popq	%rbp
	jmp	__ZN4core3fmt3num53_$LT$impl$u20$core..fmt..LowerHex$u20$for$u20$u16$GT$3fmt17h7067c16dc119bdc6E
LBB0_1:
Ltmp6:
	.loc	2 151 27
	movq	%rbx, %rdi
	callq	__ZN4core3fmt9Formatter15debug_upper_hex17hf480c256a9c81c1eE
	.loc	2 154 21
	movq	%r14, %rdi
	movq	%rbx, %rsi
	.loc	2 151 24
	testb	%al, %al
	je	LBB0_4
Ltmp7:
	.loc	2 152 21
	popq	%rbx
Ltmp8:
	popq	%r14
Ltmp9:
	popq	%rbp
	jmp	__ZN4core3fmt3num53_$LT$impl$u20$core..fmt..UpperHex$u20$for$u20$u16$GT$3fmt17hb4f6c786d08c2f96E
LBB0_4:
Ltmp10:
	.loc	2 154 21
	popq	%rbx
Ltmp11:
	popq	%r14
Ltmp12:
	popq	%rbp
	jmp	__ZN4core3fmt3num3imp52_$LT$impl$u20$core..fmt..Display$u20$for$u20$u16$GT$3fmt17h5ce1a50c193bc52eE
Ltmp13:
Lfunc_end0:
	.cfi_endproc

	.p2align	4, 0x90
__ZN4core3ptr13drop_in_place17h8402787caf923d91E:
Lfunc_begin1:
	.file	3 "/rustc/6c8927b0cf80ceee19386026cf9d7fd4fd9d486f/src/libcore/ptr/mod.rs"
	.loc	3 184 0
	.cfi_startproc
	pushq	%rbp
	.cfi_def_cfa_offset 16
	.cfi_offset %rbp, -16
	movq	%rsp, %rbp
	.cfi_def_cfa_register %rbp
Ltmp14:
	.loc	3 184 1 prologue_end
	popq	%rbp
	retq
Ltmp15:
Lfunc_end1:
	.cfi_endproc

	.globl	__ZN66_$LT$adler..algo..U32X4$u20$as$u20$core..ops..arith..AddAssign$GT$10add_assign17heae76ae4045f91c7E
	.p2align	4, 0x90
__ZN66_$LT$adler..algo..U32X4$u20$as$u20$core..ops..arith..AddAssign$GT$10add_assign17heae76ae4045f91c7E:
Lfunc_begin2:
	.file	4 "/Users/yingyuhang/.cargo/registry/src/github.com-1ecc6299db9ec823/adler-0.2.3/src/algo.rs"
	.loc	4 125 0
	.cfi_startproc
	pushq	%rbp
	.cfi_def_cfa_offset 16
	.cfi_offset %rbp, -16
	movq	%rsp, %rbp
	.cfi_def_cfa_register %rbp
Ltmp16:
	.file	5 "/rustc/6c8927b0cf80ceee19386026cf9d7fd4fd9d486f/src/libcore/ops/arith.rs"
	.loc	5 686 51 prologue_end
	movl	(%rdi), %eax
	addl	(%rsi), %eax
	jb	LBB2_5
Ltmp17:
	movl	%eax, (%rdi)
Ltmp18:
	movl	4(%rdi), %eax
	addl	4(%rsi), %eax
	jb	LBB2_5
Ltmp19:
	movl	%eax, 4(%rdi)
Ltmp20:
	movl	8(%rdi), %eax
	addl	8(%rsi), %eax
	jb	LBB2_5
Ltmp21:
	movl	%eax, 8(%rdi)
Ltmp22:
	movl	12(%rdi), %eax
	addl	12(%rsi), %eax
	jb	LBB2_5
Ltmp23:
	movl	%eax, 12(%rdi)
Ltmp24:
	.loc	4 129 6
	popq	%rbp
	retq
Ltmp25:
LBB2_5:
	.loc	5 686 51
	leaq	_str.1(%rip), %rdi
Ltmp26:
	leaq	l___unnamed_2(%rip), %rdx
	movl	$28, %esi
Ltmp27:
	callq	__ZN4core9panicking5panic17h383a6b80ea7021aaE
Ltmp28:
Lfunc_end2:
	.cfi_endproc
	.file	6 "/rustc/6c8927b0cf80ceee19386026cf9d7fd4fd9d486f/src/libcore/internal_macros.rs"

	.globl	__ZN77_$LT$adler..algo..U32X4$u20$as$u20$core..ops..arith..RemAssign$LT$u32$GT$$GT$10rem_assign17h56ffd33b2f7e4ae6E
	.p2align	4, 0x90
__ZN77_$LT$adler..algo..U32X4$u20$as$u20$core..ops..arith..RemAssign$LT$u32$GT$$GT$10rem_assign17h56ffd33b2f7e4ae6E:
Lfunc_begin3:
	.loc	4 133 0
	.cfi_startproc
	pushq	%rbp
	.cfi_def_cfa_offset 16
	.cfi_offset %rbp, -16
	movq	%rsp, %rbp
	.cfi_def_cfa_register %rbp
Ltmp29:
	.loc	4 0 0 prologue_end
	testl	%esi, %esi
Ltmp30:
	.file	7 "/rustc/6c8927b0cf80ceee19386026cf9d7fd4fd9d486f/src/libcore/slice/mod.rs"
	.loc	7 3570 21
	je	LBB3_2
Ltmp31:
	.loc	4 135 13
	movl	(%rdi), %eax
Ltmp32:
	movl	4(%rdi), %ecx
	xorl	%edx, %edx
	divl	%esi
	movl	%edx, (%rdi)
	movl	%ecx, %eax
	xorl	%edx, %edx
	divl	%esi
	movl	%edx, 4(%rdi)
Ltmp33:
	movl	8(%rdi), %eax
	xorl	%edx, %edx
	divl	%esi
	movl	%edx, 8(%rdi)
Ltmp34:
	movl	12(%rdi), %eax
	xorl	%edx, %edx
	divl	%esi
	movl	%edx, 12(%rdi)
Ltmp35:
	.loc	4 137 6
	popq	%rbp
	retq
Ltmp36:
LBB3_2:
	.loc	4 135 13
	leaq	_str.0(%rip), %rdi
Ltmp37:
	leaq	l___unnamed_3(%rip), %rdx
	movl	$57, %esi
Ltmp38:
	callq	__ZN4core9panicking5panic17h383a6b80ea7021aaE
Ltmp39:
Lfunc_end3:
	.cfi_endproc

	.globl	__ZN77_$LT$adler..algo..U32X4$u20$as$u20$core..ops..arith..MulAssign$LT$u32$GT$$GT$10mul_assign17h58f659b1e9b13db4E
	.p2align	4, 0x90
__ZN77_$LT$adler..algo..U32X4$u20$as$u20$core..ops..arith..MulAssign$LT$u32$GT$$GT$10mul_assign17h58f659b1e9b13db4E:
Lfunc_begin4:
	.loc	4 141 0
	.cfi_startproc
	pushq	%rbp
	.cfi_def_cfa_offset 16
	.cfi_offset %rbp, -16
	movq	%rsp, %rbp
	.cfi_def_cfa_register %rbp
Ltmp40:
	.loc	4 143 13 prologue_end
	movl	%esi, %eax
	mull	(%rdi)
	jo	LBB4_5
Ltmp41:
	movl	%eax, (%rdi)
Ltmp42:
	movl	%esi, %eax
	mull	4(%rdi)
	jo	LBB4_5
Ltmp43:
	movl	%eax, 4(%rdi)
Ltmp44:
	movl	%esi, %eax
	mull	8(%rdi)
	jo	LBB4_5
Ltmp45:
	movl	%eax, 8(%rdi)
Ltmp46:
	movl	%esi, %eax
	mull	12(%rdi)
	jo	LBB4_5
Ltmp47:
	movl	%eax, 12(%rdi)
Ltmp48:
	.loc	4 145 6
	popq	%rbp
	retq
Ltmp49:
LBB4_5:
	.loc	4 143 13
	leaq	_str.3(%rip), %rdi
Ltmp50:
	leaq	l___unnamed_4(%rip), %rdx
	movl	$33, %esi
Ltmp51:
	callq	__ZN4core9panicking5panic17h383a6b80ea7021aaE
Ltmp52:
Lfunc_end4:
	.cfi_endproc

	.globl	__ZN5adler7Adler3211write_slice17h0f9274a5628dc463E
	.p2align	4, 0x90
__ZN5adler7Adler3211write_slice17h0f9274a5628dc463E:
Lfunc_begin5:
	.file	8 "/Users/yingyuhang/.cargo/registry/src/github.com-1ecc6299db9ec823/adler-0.2.3/src/lib.rs"
	.loc	8 98 0
	.cfi_startproc
	pushq	%rbp
	.cfi_def_cfa_offset 16
	.cfi_offset %rbp, -16
	movq	%rsp, %rbp
	.cfi_def_cfa_register %rbp
	pushq	%r15
	pushq	%r14
	pushq	%r13
	pushq	%r12
	pushq	%rbx
	subq	$88, %rsp
	.cfi_offset %rbx, -56
	.cfi_offset %r12, -48
	.cfi_offset %r13, -40
	.cfi_offset %r14, -32
	.cfi_offset %r15, -24
	movq	%rdx, %r8
Ltmp53:
	.loc	4 60 63 prologue_end
	movl	%r8d, %ebx
	andl	$3, %ebx
	.loc	4 60 49 is_stmt 0
	movq	%rdx, %rcx
	subq	%rbx, %rcx
	jb	LBB5_35
Ltmp54:
	.loc	7 3169 19 is_stmt 1
	cmpq	%r8, %rcx
	.loc	7 3169 16 is_stmt 0
	ja	LBB5_38
Ltmp55:
	.loc	7 793 19 is_stmt 1
	movq	%rcx, %rax
	shrq	$6, %rax
	movabsq	$106321291491121335, %rdx
	mulq	%rdx
	shrq	%rdx
	imulq	$22208, %rdx, %rax
	movq	%rcx, %rdx
	subq	%rax, %rdx
Ltmp56:
	.loc	7 794 19
	movq	%rcx, %rax
	movq	%rdx, -64(%rbp)
Ltmp57:
	subq	%rdx, %rax
Ltmp58:
	.loc	7 3169 16
	jb	LBB5_39
Ltmp59:
	.loc	7 0 16 is_stmt 0
	movq	%rcx, -96(%rbp)
Ltmp60:
	movq	%r8, -104(%rbp)
Ltmp61:
	movq	%rbx, -72(%rbp)
	movzwl	(%rdi), %ecx
	movq	%rdi, -88(%rbp)
Ltmp62:
	movzwl	2(%rdi), %r15d
Ltmp63:
	xorl	%r13d, %r13d
Ltmp64:
	.loc	7 5206 12 is_stmt 1
	cmpq	$22208, %rax
Ltmp65:
	.loc	7 0 12 is_stmt 0
	movq	%rsi, -56(%rbp)
	movl	%ecx, -44(%rbp)
	movq	%rax, -80(%rbp)
	.loc	7 5206 9
	jae	LBB5_7
Ltmp66:
	.loc	4 0 0
	xorl	%r10d, %r10d
	xorl	%r8d, %r8d
Ltmp67:
	xorl	%r12d, %r12d
Ltmp68:
	xorl	%ecx, %ecx
Ltmp69:
	xorl	%eax, %eax
Ltmp70:
	xorl	%ebx, %ebx
	xorl	%edx, %edx
	jmp	LBB5_5
Ltmp71:
LBB5_7:
	movq	%rax, %rdi
Ltmp72:
	imull	$22208, %ecx, %eax
	movl	%eax, -48(%rbp)
	xorl	%r13d, %r13d
	movl	$2147975281, %r14d
Ltmp73:
	xorl	%r10d, %r10d
	xorl	%r8d, %r8d
Ltmp74:
	xorl	%r12d, %r12d
Ltmp75:
	xorl	%eax, %eax
	xorl	%ebx, %ebx
	xorl	%edx, %edx
Ltmp76:
	.loc	5 686 51 is_stmt 1
	xorl	%ecx, %ecx
Ltmp77:
	.loc	5 0 51 is_stmt 0
	movq	%rdi, %r9
Ltmp78:
	.p2align	4, 0x90
LBB5_8:
	.file	9 "/rustc/6c8927b0cf80ceee19386026cf9d7fd4fd9d486f/src/libcore/ptr/const_ptr.rs"
	.loc	9 164 18 is_stmt 1
	leaq	22208(%rsi), %rdi
	movq	%rdi, -112(%rbp)
Ltmp79:
	.loc	7 3154 76
	addq	$-22208, %r9
Ltmp80:
	.loc	7 0 76 is_stmt 0
	movq	%r9, -120(%rbp)
Ltmp81:
	movq	$-22208, %r11
Ltmp82:
	.p2align	4, 0x90
LBB5_9:
	.loc	4 116 23 is_stmt 1
	movzbl	22208(%rsi,%r11), %r9d
Ltmp83:
	.loc	5 686 51
	addl	%r9d, %ecx
Ltmp84:
	jb	LBB5_40
Ltmp85:
	.loc	4 117 23
	movzbl	22209(%rsi,%r11), %edi
Ltmp86:
	.loc	5 686 51
	addl	%edi, %eax
Ltmp87:
	jb	LBB5_40
Ltmp88:
	.loc	4 0 0 is_stmt 0
	movzbl	22210(%rsi,%r11), %edi
Ltmp89:
	.loc	5 686 51
	addl	%edi, %ebx
Ltmp90:
	jb	LBB5_40
Ltmp91:
	.loc	4 0 0
	movzbl	22211(%rsi,%r11), %edi
Ltmp92:
	.loc	5 686 51
	addl	%edi, %edx
Ltmp93:
	jb	LBB5_40
Ltmp94:
	.loc	5 686 51
	addl	%ecx, %r13d
Ltmp95:
	jb	LBB5_40
Ltmp96:
	addl	%eax, %r10d
Ltmp97:
	jb	LBB5_40
Ltmp98:
	addl	%ebx, %r8d
Ltmp99:
	jb	LBB5_40
Ltmp100:
	addl	%edx, %r12d
Ltmp101:
	jb	LBB5_40
Ltmp102:
	.loc	7 5206 12 is_stmt 1
	addq	$4, %r11
	.loc	7 5206 9 is_stmt 0
	jne	LBB5_9
Ltmp103:
	.loc	4 71 13 is_stmt 1
	addl	-48(%rbp), %r15d
Ltmp104:
	.loc	4 135 13
	movl	%ecx, %esi
Ltmp105:
	imulq	%r14, %rsi
	shrq	$47, %rsi
	imull	$65521, %esi, %esi
	subl	%esi, %ecx
Ltmp106:
	movl	%eax, %esi
	imulq	%r14, %rsi
	shrq	$47, %rsi
	imull	$65521, %esi, %esi
	subl	%esi, %eax
Ltmp107:
	movl	%ebx, %esi
	imulq	%r14, %rsi
	shrq	$47, %rsi
	imull	$65521, %esi, %esi
	subl	%esi, %ebx
Ltmp108:
	movl	%edx, %esi
	imulq	%r14, %rsi
	shrq	$47, %rsi
	imull	$65521, %esi, %esi
	subl	%esi, %edx
Ltmp109:
	.loc	4 135 13 is_stmt 0
	movl	%r13d, %esi
	imulq	%r14, %rsi
	shrq	$47, %rsi
	imull	$65521, %esi, %esi
	subl	%esi, %r13d
Ltmp110:
	movl	%r10d, %esi
	imulq	%r14, %rsi
	shrq	$47, %rsi
	imull	$65521, %esi, %esi
	subl	%esi, %r10d
Ltmp111:
	movl	%r8d, %esi
	imulq	%r14, %rsi
	shrq	$47, %rsi
	imull	$65521, %esi, %esi
	subl	%esi, %r8d
Ltmp112:
	movl	%r12d, %esi
	imulq	%r14, %rsi
	shrq	$47, %rsi
	imull	$65521, %esi, %esi
	subl	%esi, %r12d
Ltmp113:
	.loc	4 74 13 is_stmt 1
	movq	%r15, %rsi
	imulq	%r14, %rsi
	shrq	$47, %rsi
	imull	$65521, %esi, %esi
	subl	%esi, %r15d
Ltmp114:
	.loc	4 0 13 is_stmt 0
	movq	-112(%rbp), %rsi
Ltmp115:
	movq	-120(%rbp), %r9
Ltmp116:
	.loc	7 5206 12 is_stmt 1
	cmpq	$22208, %r9
	.loc	7 5206 9 is_stmt 0
	jae	LBB5_8
Ltmp117:
LBB5_5:
	.loc	7 0 9
	movq	-64(%rbp), %r9
Ltmp118:
	.loc	7 5206 12
	andq	$32764, %r9
Ltmp119:
	.loc	7 5206 9
	je	LBB5_6
Ltmp120:
	.loc	7 0 9
	movq	-56(%rbp), %r11
	movq	-80(%rbp), %r14
Ltmp121:
	.loc	5 686 51 is_stmt 1
	addq	%r11, %r14
	xorl	%edi, %edi
Ltmp122:
	.p2align	4, 0x90
LBB5_20:
	.loc	4 116 23
	movzbl	(%r14,%rdi), %esi
Ltmp123:
	.loc	5 686 51
	addl	%esi, %ecx
Ltmp124:
	jb	LBB5_40
Ltmp125:
	.loc	4 117 23
	movzbl	1(%r14,%rdi), %esi
Ltmp126:
	.loc	5 686 51
	addl	%esi, %eax
Ltmp127:
	jb	LBB5_40
Ltmp128:
	.loc	4 0 0 is_stmt 0
	movzbl	2(%r14,%rdi), %esi
Ltmp129:
	.loc	5 686 51
	addl	%esi, %ebx
Ltmp130:
	jb	LBB5_40
Ltmp131:
	.loc	4 0 0
	movzbl	3(%r14,%rdi), %esi
Ltmp132:
	.loc	5 686 51
	addl	%esi, %edx
Ltmp133:
	jb	LBB5_40
Ltmp134:
	.loc	5 686 51
	addl	%ecx, %r13d
Ltmp135:
	jb	LBB5_40
Ltmp136:
	addl	%eax, %r10d
Ltmp137:
	jb	LBB5_40
Ltmp138:
	addl	%ebx, %r8d
Ltmp139:
	jb	LBB5_40
Ltmp140:
	addl	%edx, %r12d
Ltmp141:
	jb	LBB5_40
Ltmp142:
	.loc	7 5206 12 is_stmt 1
	addq	$4, %rdi
	cmpq	%rdi, %r9
	.loc	7 5206 9 is_stmt 0
	jne	LBB5_20
	jmp	LBB5_29
Ltmp143:
LBB5_6:
	.loc	7 0 9
	movq	-56(%rbp), %r11
Ltmp144:
LBB5_29:
	movl	-44(%rbp), %r14d
	movq	-64(%rbp), %rsi
	.loc	4 82 14 is_stmt 1
	imull	%r14d, %esi
	.loc	4 82 9 is_stmt 0
	addl	%esi, %r15d
Ltmp145:
	.loc	4 135 13 is_stmt 1
	movl	%ecx, %edi
	movl	$2147975281, %r9d
	imulq	%r9, %rdi
	shrq	$47, %rdi
	imull	$65521, %edi, %edi
	subl	%edi, %ecx
Ltmp146:
	movl	%eax, %edi
	imulq	%r9, %rdi
	shrq	$47, %rdi
	imull	$65521, %edi, %edi
	subl	%edi, %eax
Ltmp147:
	movl	%ebx, %edi
	imulq	%r9, %rdi
	shrq	$47, %rdi
	imull	$65521, %edi, %edi
	subl	%edi, %ebx
Ltmp148:
	movl	%edx, %edi
	imulq	%r9, %rdi
	shrq	$47, %rdi
	imull	$65521, %edi, %edi
	subl	%edi, %edx
Ltmp149:
	.loc	4 135 13 is_stmt 0
	movl	%r13d, %edi
	imulq	%r9, %rdi
	shrq	$47, %rdi
	imull	$65521, %edi, %edi
	subl	%edi, %r13d
Ltmp150:
	movl	%r10d, %edi
	imulq	%r9, %rdi
	shrq	$47, %rdi
	imull	$65521, %edi, %edi
	subl	%edi, %r10d
Ltmp151:
	movl	%r8d, %edi
	imulq	%r9, %rdi
	shrq	$47, %rdi
	imull	$65521, %edi, %edi
	subl	%edi, %r8d
Ltmp152:
	movl	%r12d, %edi
	imulq	%r9, %rdi
	shrq	$47, %rdi
	imull	$65521, %edi, %edi
	subl	%edi, %r12d
Ltmp153:
	.loc	4 0 13
	addl	%r8d, %r12d
Ltmp154:
	addl	%r10d, %r12d
	addl	%r13d, %r12d
Ltmp155:
	.loc	4 85 9 is_stmt 1
	movq	%r15, %rdi
	imulq	%r9, %rdi
	shrq	$47, %rdi
	imull	$65521, %edi, %edi
	subl	%edi, %r15d
Ltmp156:
	.loc	4 0 9 is_stmt 0
	movl	$65521, %edi
Ltmp157:
	.loc	4 91 23 is_stmt 1
	subl	%edx, %edi
	leal	(%rdi,%rdi,2), %edi
Ltmp158:
	.loc	4 90 23
	addl	%r15d, %edi
	leal	(%rbx,%rbx), %esi
Ltmp159:
	.loc	4 96 13
	subl	%esi, %edi
Ltmp160:
	.loc	4 93 13
	addl	%r14d, %edx
Ltmp161:
	addl	%ebx, %edx
	addl	%eax, %edx
	addl	%ecx, %edx
Ltmp162:
	.loc	4 91 9
	subl	%eax, %edi
Ltmp163:
	.loc	4 96 13
	leal	196563(%rdi,%r12,4), %eax
Ltmp164:
	.loc	4 0 13 is_stmt 0
	movq	-104(%rbp), %rcx
Ltmp165:
	.loc	7 3440 9 is_stmt 1
	cmpq	%rcx, -96(%rbp)
	.loc	7 3570 21
	je	LBB5_34
Ltmp166:
	.loc	4 101 13
	addq	%rcx, %r11
	movq	-72(%rbp), %rsi
	negq	%rsi
Ltmp167:
	.p2align	4, 0x90
LBB5_31:
	.loc	4 100 14
	movzbl	(%r11,%rsi), %ecx
Ltmp168:
	.loc	4 101 13
	addl	%ecx, %edx
Ltmp169:
	jb	LBB5_36
Ltmp170:
	.loc	4 102 13
	addl	%edx, %eax
Ltmp171:
	jb	LBB5_37
Ltmp172:
	.loc	7 3440 9
	incq	%rsi
	.loc	7 3570 21
	jne	LBB5_31
Ltmp173:
LBB5_34:
	.loc	4 105 18
	movl	%edx, %ecx
	imulq	%r9, %rcx
	shrq	$47, %rcx
	imull	$65521, %ecx, %ecx
	subl	%ecx, %edx
Ltmp174:
	.loc	4 0 18 is_stmt 0
	movq	-88(%rbp), %rsi
	.loc	4 105 9
	movw	%dx, (%rsi)
	.loc	4 106 18 is_stmt 1
	movl	%eax, %ecx
	imulq	%r9, %rcx
	shrq	$47, %rcx
	imull	$65521, %ecx, %ecx
	subl	%ecx, %eax
Ltmp175:
	.loc	4 106 9 is_stmt 0
	movw	%ax, 2(%rsi)
Ltmp176:
	.loc	8 100 6 is_stmt 1
	addq	$88, %rsp
	popq	%rbx
Ltmp177:
	popq	%r12
	popq	%r13
Ltmp178:
	popq	%r14
	popq	%r15
	popq	%rbp
	retq
Ltmp179:
LBB5_40:
	.loc	4 0 0 is_stmt 0
	leaq	_str.1(%rip), %rdi
	leaq	l___unnamed_2(%rip), %rdx
	movl	$28, %esi
	callq	__ZN4core9panicking5panic17h383a6b80ea7021aaE
Ltmp180:
LBB5_36:
	.loc	4 101 13 is_stmt 1
	leaq	_str.1(%rip), %rdi
	leaq	l___unnamed_5(%rip), %rdx
	movl	$28, %esi
	callq	__ZN4core9panicking5panic17h383a6b80ea7021aaE
Ltmp181:
LBB5_37:
	.loc	4 102 13
	leaq	_str.1(%rip), %rdi
	leaq	l___unnamed_6(%rip), %rdx
Ltmp182:
	movl	$28, %esi
	callq	__ZN4core9panicking5panic17h383a6b80ea7021aaE
Ltmp183:
LBB5_35:
	.loc	4 60 49
	leaq	_str.2(%rip), %rdi
Ltmp184:
	leaq	l___unnamed_7(%rip), %rdx
	movl	$33, %esi
Ltmp185:
	callq	__ZN4core9panicking5panic17h383a6b80ea7021aaE
Ltmp186:
LBB5_38:
	.loc	7 3170 13
	leaq	l___unnamed_8(%rip), %rdx
	movq	%rcx, %rdi
Ltmp187:
	movq	%r8, %rsi
Ltmp188:
	callq	__ZN4core5slice24slice_end_index_len_fail17hea9e3399ed430f80E
Ltmp189:
LBB5_39:
	.loc	7 3170 13 is_stmt 0
	leaq	l___unnamed_8(%rip), %rdx
	movq	%rax, %rdi
Ltmp190:
	movq	%rcx, %rsi
Ltmp191:
	callq	__ZN4core5slice24slice_end_index_len_fail17hea9e3399ed430f80E
Ltmp192:
Lfunc_end5:
	.cfi_endproc

	.globl	__ZN53_$LT$adler..Adler32$u20$as$u20$core..hash..Hasher$GT$5write17he9891e12a9db5ef1E
	.p2align	4, 0x90
__ZN53_$LT$adler..Adler32$u20$as$u20$core..hash..Hasher$GT$5write17he9891e12a9db5ef1E:
Lfunc_begin6:
	.loc	8 116 0 is_stmt 1
	.cfi_startproc
	pushq	%rbp
	.cfi_def_cfa_offset 16
	.cfi_offset %rbp, -16
	movq	%rsp, %rbp
	.cfi_def_cfa_register %rbp
Ltmp193:
	.loc	8 117 9 prologue_end
	popq	%rbp
	jmp	__ZN5adler7Adler3211write_slice17h0f9274a5628dc463E
Ltmp194:
Lfunc_end6:
	.cfi_endproc

	.globl	__ZN5adler13adler32_slice17h377f929f51105f9eE
	.p2align	4, 0x90
__ZN5adler13adler32_slice17h377f929f51105f9eE:
Lfunc_begin7:
	.loc	8 122 0
	.cfi_startproc
	pushq	%rbp
	.cfi_def_cfa_offset 16
	.cfi_offset %rbp, -16
	movq	%rsp, %rbp
	.cfi_def_cfa_register %rbp
	subq	$16, %rsp
	movq	%rsi, %rdx
	movq	%rdi, %rsi
Ltmp195:
	.loc	8 123 17 prologue_end
	movl	$1, -8(%rbp)
	leaq	-8(%rbp), %rdi
Ltmp196:
	.loc	8 124 5
	callq	__ZN5adler7Adler3211write_slice17h0f9274a5628dc463E
Ltmp197:
	.loc	8 91 9
	movl	-8(%rbp), %eax
Ltmp198:
	.loc	8 126 2
	addq	$16, %rsp
	popq	%rbp
	retq
Ltmp199:
Lfunc_end7:
	.cfi_endproc

	.globl	__ZN51_$LT$adler..Adler32$u20$as$u20$core..fmt..Debug$GT$3fmt17h6cb88dd814a888eaE
	.p2align	4, 0x90
__ZN51_$LT$adler..Adler32$u20$as$u20$core..fmt..Debug$GT$3fmt17h6cb88dd814a888eaE:
Lfunc_begin8:
	.loc	8 42 0
	.cfi_startproc
	pushq	%rbp
	.cfi_def_cfa_offset 16
	.cfi_offset %rbp, -16
	movq	%rsp, %rbp
	.cfi_def_cfa_register %rbp
	pushq	%r15
	pushq	%r14
	pushq	%rbx
	subq	$24, %rsp
	.cfi_offset %rbx, -40
	.cfi_offset %r14, -32
	.cfi_offset %r15, -24
	movq	%rdi, %rbx
Ltmp200:
	.loc	8 42 10 prologue_end
	leaq	l___unnamed_9(%rip), %rdx
	leaq	-48(%rbp), %r14
	movl	$7, %ecx
	movq	%r14, %rdi
	callq	__ZN4core3fmt9Formatter12debug_struct17ha1a64e91d2a98458E
Ltmp201:
	.loc	8 44 5
	movq	%rbx, -32(%rbp)
Ltmp202:
	.loc	8 45 5
	addq	$2, %rbx
Ltmp203:
	.loc	8 42 10
	leaq	l___unnamed_10(%rip), %rsi
	leaq	l___unnamed_1(%rip), %r15
	leaq	-32(%rbp), %rcx
	movl	$1, %edx
	movq	%r14, %rdi
	movq	%r15, %r8
	callq	__ZN4core3fmt8builders11DebugStruct5field17h6c54d35ac41bb1e6E
	.loc	8 45 5
	movq	%rbx, -32(%rbp)
	.loc	8 42 10
	leaq	l___unnamed_11(%rip), %rsi
	leaq	-32(%rbp), %rcx
	movl	$1, %edx
	movq	%r14, %rdi
	movq	%r15, %r8
	callq	__ZN4core3fmt8builders11DebugStruct5field17h6c54d35ac41bb1e6E
	movq	%r14, %rdi
	callq	__ZN4core3fmt8builders11DebugStruct6finish17h67ed49fd5e81bb24E
Ltmp204:
	.loc	8 42 15 is_stmt 0
	addq	$24, %rsp
	popq	%rbx
	popq	%r14
	popq	%r15
	popq	%rbp
	retq
Ltmp205:
Lfunc_end8:
	.cfi_endproc

	.section	__TEXT,__const
l___unnamed_12:
	.ascii	"/rustc/6c8927b0cf80ceee19386026cf9d7fd4fd9d486f/src/libcore/slice/mod.rs"

	.p2align	4
_str.0:
	.ascii	"attempt to calculate the remainder with a divisor of zero"

	.section	__DATA,__const
	.p2align	3
l___unnamed_8:
	.quad	l___unnamed_12
	.asciz	"H\000\000\000\000\000\000\000\016\004\000\000\013\000\000"

	.section	__TEXT,__const
l___unnamed_13:
	.ascii	"/rustc/6c8927b0cf80ceee19386026cf9d7fd4fd9d486f/src/libcore/ops/arith.rs"

	.section	__DATA,__const
	.p2align	3
l___unnamed_2:
	.quad	l___unnamed_13
	.asciz	"H\000\000\000\000\000\000\000\256\002\000\0003\000\000"

	.section	__TEXT,__const
	.p2align	4
_str.1:
	.ascii	"attempt to add with overflow"

l___unnamed_14:
	.ascii	"/Users/yingyuhang/.cargo/registry/src/github.com-1ecc6299db9ec823/adler-0.2.3/src/algo.rs"

	.section	__DATA,__const
	.p2align	3
l___unnamed_7:
	.quad	l___unnamed_14
	.asciz	"Y\000\000\000\000\000\000\000<\000\000\0001\000\000"

	.section	__TEXT,__const
	.p2align	4
_str.2:
	.ascii	"attempt to subtract with overflow"

	.p2align	4
_str.3:
	.ascii	"attempt to multiply with overflow"

	.section	__DATA,__const
	.p2align	3
l___unnamed_5:
	.quad	l___unnamed_14
	.asciz	"Y\000\000\000\000\000\000\000e\000\000\000\r\000\000"

	.p2align	3
l___unnamed_6:
	.quad	l___unnamed_14
	.asciz	"Y\000\000\000\000\000\000\000f\000\000\000\r\000\000"

	.p2align	3
l___unnamed_3:
	.quad	l___unnamed_14
	.asciz	"Y\000\000\000\000\000\000\000\207\000\000\000\r\000\000"

	.p2align	3
l___unnamed_4:
	.quad	l___unnamed_14
	.asciz	"Y\000\000\000\000\000\000\000\217\000\000\000\r\000\000"

	.section	__TEXT,__const
l___unnamed_9:
	.ascii	"Adler32"

l___unnamed_10:
	.byte	97

	.section	__DATA,__const
	.p2align	3
l___unnamed_1:
	.quad	__ZN4core3ptr13drop_in_place17h8402787caf923d91E
	.quad	8
	.quad	8
	.quad	__ZN42_$LT$$RF$T$u20$as$u20$core..fmt..Debug$GT$3fmt17h78d2867acf6c7106E

	.section	__TEXT,__const
l___unnamed_11:
	.byte	98

	.section	__DATA,__const
Lsec_end0:
	.section	__TEXT,__text,regular,pure_instructions
Lsec_end1: