	.section	__TEXT,__text,regular,pure_instructions
	.macosx_version_min 10, 7
	.p2align	4, 0x90
__ZN42_$LT$$RF$T$u20$as$u20$core..fmt..Debug$GT$3fmt17hab24f7b628cc3f10E:
Lfunc_begin0:
	.file	1 "/rustc/a74d1862d4d87a56244958416fd05976c58ca1a8/src/libcore/fmt/mod.rs"
	.loc	1 1973 0
	.cfi_startproc
	pushq	%rbp
	.cfi_def_cfa_offset 16
	.cfi_offset %rbp, -16
	movq	%rsp, %rbp
	.cfi_def_cfa_register %rbp
	pushq	%r14
	pushq	%rbx
	.cfi_offset %rbx, -32
	.cfi_offset %r14, -24
	movq	%rsi, %rbx
Ltmp0:
	.loc	1 1973 71 prologue_end
	movq	(%rdi), %r14
Ltmp1:
	.file	2 "/rustc/a74d1862d4d87a56244958416fd05976c58ca1a8/src/libcore/fmt/num.rs"
	.loc	2 149 20
	movq	%rsi, %rdi
Ltmp2:
	callq	__ZN4core3fmt9Formatter15debug_lower_hex17h8530fbaeba13f4d9E
	.loc	2 149 17 is_stmt 0
	testb	%al, %al
	je	LBB0_1
Ltmp3:
	.loc	2 150 21 is_stmt 1
	movq	%r14, %rdi
	movq	%rbx, %rsi
	popq	%rbx
Ltmp4:
	popq	%r14
Ltmp5:
	popq	%rbp
	jmp	__ZN4core3fmt3num53_$LT$impl$u20$core..fmt..LowerHex$u20$for$u20$u16$GT$3fmt17h4a3e59891cc09bc8E
LBB0_1:
Ltmp6:
	.loc	2 151 27
	movq	%rbx, %rdi
	callq	__ZN4core3fmt9Formatter15debug_upper_hex17hf8fda15ec43a1e68E
	.loc	2 154 21
	movq	%r14, %rdi
	movq	%rbx, %rsi
	.loc	2 151 24
	testb	%al, %al
	je	LBB0_4
Ltmp7:
	.loc	2 152 21
	popq	%rbx
Ltmp8:
	popq	%r14
Ltmp9:
	popq	%rbp
	jmp	__ZN4core3fmt3num53_$LT$impl$u20$core..fmt..UpperHex$u20$for$u20$u16$GT$3fmt17h80b29e32979d60cdE
LBB0_4:
Ltmp10:
	.loc	2 154 21
	popq	%rbx
Ltmp11:
	popq	%r14
Ltmp12:
	popq	%rbp
	jmp	__ZN4core3fmt3num3imp52_$LT$impl$u20$core..fmt..Display$u20$for$u20$u16$GT$3fmt17h7d9582ae70d300cbE
Ltmp13:
Lfunc_end0:
	.cfi_endproc

	.p2align	4, 0x90
__ZN4core3ptr13drop_in_place17hc5c1bdd7a99ac75cE:
Lfunc_begin1:
	.file	3 "/rustc/a74d1862d4d87a56244958416fd05976c58ca1a8/src/libcore/ptr/mod.rs"
	.loc	3 178 0
	.cfi_startproc
	pushq	%rbp
	.cfi_def_cfa_offset 16
	.cfi_offset %rbp, -16
	movq	%rsp, %rbp
	.cfi_def_cfa_register %rbp
Ltmp14:
	.loc	3 178 1 prologue_end
	popq	%rbp
	retq
Ltmp15:
Lfunc_end1:
	.cfi_endproc

	.globl	__ZN66_$LT$adler..algo..U32X4$u20$as$u20$core..ops..arith..AddAssign$GT$10add_assign17h0352b4f5b7148e9fE
	.p2align	4, 0x90
__ZN66_$LT$adler..algo..U32X4$u20$as$u20$core..ops..arith..AddAssign$GT$10add_assign17h0352b4f5b7148e9fE:
Lfunc_begin2:
	.file	4 "/Users/yingyuhang/.cargo/registry/src/github.com-1ecc6299db9ec823/adler-0.2.3/src/algo.rs"
	.loc	4 125 0
	.cfi_startproc
	pushq	%rbp
	.cfi_def_cfa_offset 16
	.cfi_offset %rbp, -16
	movq	%rsp, %rbp
	.cfi_def_cfa_register %rbp
Ltmp16:
	.file	5 "/rustc/a74d1862d4d87a56244958416fd05976c58ca1a8/src/libcore/ops/arith.rs"
	.loc	5 686 51 prologue_end
	movl	(%rdi), %eax
	addl	(%rsi), %eax
	jb	LBB2_5
Ltmp17:
	movl	%eax, (%rdi)
Ltmp18:
	movl	4(%rdi), %eax
	addl	4(%rsi), %eax
	jb	LBB2_5
Ltmp19:
	movl	%eax, 4(%rdi)
Ltmp20:
	movl	8(%rdi), %eax
	addl	8(%rsi), %eax
	jb	LBB2_5
Ltmp21:
	movl	%eax, 8(%rdi)
Ltmp22:
	movl	12(%rdi), %eax
	addl	12(%rsi), %eax
	jb	LBB2_5
Ltmp23:
	movl	%eax, 12(%rdi)
Ltmp24:
	.loc	4 129 6
	popq	%rbp
	retq
Ltmp25:
LBB2_5:
	.loc	5 686 51
	leaq	_str.1(%rip), %rdi
Ltmp26:
	leaq	l___unnamed_2(%rip), %rdx
	movl	$28, %esi
Ltmp27:
	callq	__ZN4core9panicking5panic17h736ee47a631475c0E
Ltmp28:
Lfunc_end2:
	.cfi_endproc
	.file	6 "/rustc/a74d1862d4d87a56244958416fd05976c58ca1a8/src/libcore/internal_macros.rs"

	.globl	__ZN77_$LT$adler..algo..U32X4$u20$as$u20$core..ops..arith..RemAssign$LT$u32$GT$$GT$10rem_assign17h412773c79501bcdaE
	.p2align	4, 0x90
__ZN77_$LT$adler..algo..U32X4$u20$as$u20$core..ops..arith..RemAssign$LT$u32$GT$$GT$10rem_assign17h412773c79501bcdaE:
Lfunc_begin3:
	.loc	4 133 0
	.cfi_startproc
	pushq	%rbp
	.cfi_def_cfa_offset 16
	.cfi_offset %rbp, -16
	movq	%rsp, %rbp
	.cfi_def_cfa_register %rbp
Ltmp29:
	.loc	4 0 0 prologue_end
	testl	%esi, %esi
Ltmp30:
	.file	7 "/rustc/a74d1862d4d87a56244958416fd05976c58ca1a8/src/libcore/slice/mod.rs"
	.loc	7 3303 21
	je	LBB3_2
Ltmp31:
	.loc	4 135 13
	movl	(%rdi), %eax
Ltmp32:
	movl	4(%rdi), %ecx
	xorl	%edx, %edx
	divl	%esi
	movl	%edx, (%rdi)
	movl	%ecx, %eax
	xorl	%edx, %edx
	divl	%esi
	movl	%edx, 4(%rdi)
Ltmp33:
	movl	8(%rdi), %eax
	xorl	%edx, %edx
	divl	%esi
	movl	%edx, 8(%rdi)
	movl	12(%rdi), %eax
	xorl	%edx, %edx
	divl	%esi
	movl	%edx, 12(%rdi)
Ltmp34:
	.loc	4 137 6
	popq	%rbp
	retq
Ltmp35:
LBB3_2:
	.loc	4 135 13
	leaq	_str.0(%rip), %rdi
Ltmp36:
	leaq	l___unnamed_3(%rip), %rdx
	movl	$57, %esi
Ltmp37:
	callq	__ZN4core9panicking5panic17h736ee47a631475c0E
Ltmp38:
Lfunc_end3:
	.cfi_endproc

	.globl	__ZN77_$LT$adler..algo..U32X4$u20$as$u20$core..ops..arith..MulAssign$LT$u32$GT$$GT$10mul_assign17hfd93a91dc13a1195E
	.p2align	4, 0x90
__ZN77_$LT$adler..algo..U32X4$u20$as$u20$core..ops..arith..MulAssign$LT$u32$GT$$GT$10mul_assign17hfd93a91dc13a1195E:
Lfunc_begin4:
	.loc	4 141 0
	.cfi_startproc
	pushq	%rbp
	.cfi_def_cfa_offset 16
	.cfi_offset %rbp, -16
	movq	%rsp, %rbp
	.cfi_def_cfa_register %rbp
Ltmp39:
	.loc	4 143 13 prologue_end
	movl	%esi, %eax
	mull	(%rdi)
	jo	LBB4_5
Ltmp40:
	movl	%eax, (%rdi)
Ltmp41:
	movl	%esi, %eax
	mull	4(%rdi)
	jo	LBB4_5
Ltmp42:
	movl	%eax, 4(%rdi)
Ltmp43:
	movl	%esi, %eax
	mull	8(%rdi)
	jo	LBB4_5
Ltmp44:
	movl	%eax, 8(%rdi)
Ltmp45:
	movl	%esi, %eax
	mull	12(%rdi)
	jo	LBB4_5
Ltmp46:
	movl	%eax, 12(%rdi)
Ltmp47:
	.loc	4 145 6
	popq	%rbp
	retq
Ltmp48:
LBB4_5:
	.loc	4 143 13
	leaq	_str.3(%rip), %rdi
Ltmp49:
	leaq	l___unnamed_4(%rip), %rdx
	movl	$33, %esi
Ltmp50:
	callq	__ZN4core9panicking5panic17h736ee47a631475c0E
Ltmp51:
Lfunc_end4:
	.cfi_endproc

	.globl	__ZN5adler7Adler3211write_slice17hf20b6fe6d324734bE
	.p2align	4, 0x90
__ZN5adler7Adler3211write_slice17hf20b6fe6d324734bE:
Lfunc_begin5:
	.file	8 "/Users/yingyuhang/.cargo/registry/src/github.com-1ecc6299db9ec823/adler-0.2.3/src/lib.rs"
	.loc	8 98 0
	.cfi_startproc
	pushq	%rbp
	.cfi_def_cfa_offset 16
	.cfi_offset %rbp, -16
	movq	%rsp, %rbp
	.cfi_def_cfa_register %rbp
	pushq	%r15
	pushq	%r14
	pushq	%r13
	pushq	%r12
	pushq	%rbx
	subq	$88, %rsp
	.cfi_offset %rbx, -56
	.cfi_offset %r12, -48
	.cfi_offset %r13, -40
	.cfi_offset %r14, -32
	.cfi_offset %r15, -24
	movq	%rdx, %r8
Ltmp52:
	.loc	4 60 63 prologue_end
	movl	%r8d, %ebx
	andl	$3, %ebx
	.loc	4 60 49 is_stmt 0
	movq	%rdx, %rcx
	subq	%rbx, %rcx
	jb	LBB5_35
Ltmp53:
	.loc	7 2918 19 is_stmt 1
	cmpq	%r8, %rcx
	.loc	7 2918 16 is_stmt 0
	ja	LBB5_40
Ltmp54:
	.loc	7 787 19 is_stmt 1
	movq	%rcx, %rax
	shrq	$6, %rax
	movabsq	$106321291491121335, %rdx
	mulq	%rdx
	shrq	%rdx
	imulq	$22208, %rdx, %rax
	movq	%rcx, %rdx
	subq	%rax, %rdx
Ltmp55:
	.loc	7 788 19
	movq	%rcx, %r9
	movq	%rdx, -64(%rbp)
Ltmp56:
	subq	%rdx, %r9
Ltmp57:
	.loc	7 2918 16
	jb	LBB5_41
Ltmp58:
	.loc	7 0 16 is_stmt 0
	movq	%rcx, -88(%rbp)
Ltmp59:
	movq	%r8, -96(%rbp)
Ltmp60:
	movq	%rbx, -80(%rbp)
	movzwl	(%rdi), %eax
Ltmp61:
	movq	%rdi, -104(%rbp)
Ltmp62:
	movzwl	2(%rdi), %r13d
Ltmp63:
	xorl	%r10d, %r10d
Ltmp64:
	.loc	7 4840 12 is_stmt 1
	cmpq	$22208, %r9
	movq	%rsi, -56(%rbp)
	movl	%eax, -44(%rbp)
	movq	%r9, -72(%rbp)
	.loc	7 4840 9 is_stmt 0
	jae	LBB5_7
Ltmp65:
	.loc	4 0 0
	xorl	%r8d, %r8d
Ltmp66:
	xorl	%r12d, %r12d
	xorl	%r15d, %r15d
Ltmp67:
	xorl	%ebx, %ebx
	xorl	%ecx, %ecx
Ltmp68:
	xorl	%eax, %eax
Ltmp69:
	xorl	%edx, %edx
Ltmp70:
	movq	-64(%rbp), %r9
Ltmp71:
	.loc	7 4840 12
	andq	$32764, %r9
	.loc	7 4840 9
	jne	LBB5_19
	jmp	LBB5_6
Ltmp72:
LBB5_7:
	.loc	4 0 0
	imull	$22208, %eax, %eax
Ltmp73:
	movl	%eax, -48(%rbp)
	xorl	%r10d, %r10d
	movl	$2147975281, %r14d
Ltmp74:
	xorl	%r8d, %r8d
Ltmp75:
	xorl	%r12d, %r12d
	xorl	%r15d, %r15d
Ltmp76:
	xorl	%ecx, %ecx
Ltmp77:
	xorl	%eax, %eax
	xorl	%edx, %edx
Ltmp78:
	.loc	5 686 51 is_stmt 1
	xorl	%ebx, %ebx
Ltmp79:
	.p2align	4, 0x90
LBB5_8:
	.file	9 "/rustc/a74d1862d4d87a56244958416fd05976c58ca1a8/src/libcore/ptr/const_ptr.rs"
	.loc	9 158 9
	leaq	22208(%rsi), %rdi
Ltmp80:
	.loc	9 0 9 is_stmt 0
	movq	%rdi, -112(%rbp)
Ltmp81:
	.loc	7 2906 56 is_stmt 1
	addq	$-22208, %r9
Ltmp82:
	.loc	7 0 56 is_stmt 0
	movq	%r9, -120(%rbp)
	movq	$-22208, %r11
Ltmp83:
	.p2align	4, 0x90
LBB5_9:
	.loc	4 116 23 is_stmt 1
	movzbl	22208(%rsi,%r11), %r9d
Ltmp84:
	.loc	5 686 51
	addl	%r9d, %ebx
Ltmp85:
	jb	LBB5_42
Ltmp86:
	.loc	4 117 23
	movzbl	22209(%rsi,%r11), %edi
Ltmp87:
	.loc	5 686 51
	addl	%edi, %ecx
	jb	LBB5_42
Ltmp88:
	.loc	4 0 0 is_stmt 0
	movzbl	22210(%rsi,%r11), %edi
Ltmp89:
	.loc	5 686 51
	addl	%edi, %eax
	jb	LBB5_42
Ltmp90:
	.loc	4 0 0
	movzbl	22211(%rsi,%r11), %edi
Ltmp91:
	.loc	5 686 51
	addl	%edi, %edx
	jb	LBB5_42
Ltmp92:
	.loc	5 686 51
	addl	%ebx, %r10d
	jb	LBB5_42
Ltmp93:
	addl	%ecx, %r8d
	jb	LBB5_42
Ltmp94:
	addl	%eax, %r12d
	jb	LBB5_42
Ltmp95:
	addl	%edx, %r15d
	jb	LBB5_42
Ltmp96:
	.loc	7 4840 12 is_stmt 1
	addq	$4, %r11
	.loc	7 4840 9 is_stmt 0
	jne	LBB5_9
Ltmp97:
	.loc	4 71 13 is_stmt 1
	addl	-48(%rbp), %r13d
Ltmp98:
	.loc	4 135 13
	movl	%ebx, %esi
Ltmp99:
	imulq	%r14, %rsi
	shrq	$47, %rsi
	imull	$65521, %esi, %esi
	subl	%esi, %ebx
	movl	%ecx, %esi
	imulq	%r14, %rsi
	shrq	$47, %rsi
	imull	$65521, %esi, %esi
	subl	%esi, %ecx
	movl	%eax, %esi
	imulq	%r14, %rsi
	shrq	$47, %rsi
	imull	$65521, %esi, %esi
	subl	%esi, %eax
	movl	%edx, %esi
	imulq	%r14, %rsi
	shrq	$47, %rsi
	imull	$65521, %esi, %esi
	subl	%esi, %edx
Ltmp100:
	.loc	4 135 13 is_stmt 0
	movl	%r10d, %esi
	imulq	%r14, %rsi
	shrq	$47, %rsi
	imull	$65521, %esi, %esi
	subl	%esi, %r10d
	movl	%r8d, %esi
	imulq	%r14, %rsi
	shrq	$47, %rsi
	imull	$65521, %esi, %esi
	subl	%esi, %r8d
	movl	%r12d, %esi
	imulq	%r14, %rsi
	shrq	$47, %rsi
	imull	$65521, %esi, %esi
	subl	%esi, %r12d
	movl	%r15d, %esi
	imulq	%r14, %rsi
	shrq	$47, %rsi
	imull	$65521, %esi, %esi
	subl	%esi, %r15d
Ltmp101:
	.loc	4 74 13 is_stmt 1
	movq	%r13, %rsi
	imulq	%r14, %rsi
	shrq	$47, %rsi
	imull	$65521, %esi, %esi
	subl	%esi, %r13d
Ltmp102:
	.loc	4 0 13 is_stmt 0
	movq	-112(%rbp), %rsi
	movq	-120(%rbp), %r9
Ltmp103:
	.loc	7 4840 12 is_stmt 1
	cmpq	$22208, %r9
	.loc	7 4840 9 is_stmt 0
	jae	LBB5_8
Ltmp104:
	.loc	7 0 9
	movq	-64(%rbp), %r9
Ltmp105:
	.loc	7 4840 12
	andq	$32764, %r9
	.loc	7 4840 9
	je	LBB5_6
Ltmp106:
LBB5_19:
	.loc	7 0 9
	movq	-56(%rbp), %r11
Ltmp107:
	.loc	5 686 51 is_stmt 1
	addq	%r11, -72(%rbp)
	xorl	%edi, %edi
	movq	-72(%rbp), %r14
Ltmp108:
	.p2align	4, 0x90
LBB5_20:
	.loc	4 116 23
	movzbl	(%r14,%rdi), %esi
Ltmp109:
	.loc	5 686 51
	addl	%esi, %ebx
Ltmp110:
	jb	LBB5_42
Ltmp111:
	.loc	4 117 23
	movzbl	1(%r14,%rdi), %esi
Ltmp112:
	.loc	5 686 51
	addl	%esi, %ecx
	jb	LBB5_42
Ltmp113:
	.loc	4 0 0 is_stmt 0
	movzbl	2(%r14,%rdi), %esi
Ltmp114:
	.loc	5 686 51
	addl	%esi, %eax
	jb	LBB5_42
Ltmp115:
	.loc	4 0 0
	movzbl	3(%r14,%rdi), %esi
Ltmp116:
	.loc	5 686 51
	addl	%esi, %edx
	jb	LBB5_42
Ltmp117:
	.loc	5 686 51
	addl	%ebx, %r10d
	jb	LBB5_42
Ltmp118:
	addl	%ecx, %r8d
	jb	LBB5_42
Ltmp119:
	addl	%eax, %r12d
	jb	LBB5_42
Ltmp120:
	addl	%edx, %r15d
	jb	LBB5_42
Ltmp121:
	.loc	7 4840 12 is_stmt 1
	addq	$4, %rdi
	cmpq	%rdi, %r9
	.loc	7 4840 9 is_stmt 0
	jne	LBB5_20
	jmp	LBB5_29
Ltmp122:
LBB5_6:
	.loc	7 0 9
	movq	-56(%rbp), %r11
Ltmp123:
LBB5_29:
	movl	$2147975281, %r9d
Ltmp124:
	.loc	4 135 13 is_stmt 1
	movl	%ecx, %edi
	imulq	%r9, %rdi
	shrq	$47, %rdi
	imull	$65521, %edi, %edi
	subl	%edi, %ecx
Ltmp125:
	movl	%eax, %edi
	imulq	%r9, %rdi
	shrq	$47, %rdi
	imull	$65521, %edi, %edi
	subl	%edi, %eax
Ltmp126:
	movl	%edx, %edi
	imulq	%r9, %rdi
	shrq	$47, %rdi
	imull	$65521, %edi, %edi
	subl	%edi, %edx
Ltmp127:
	.loc	4 0 13 is_stmt 0
	movq	-64(%rbp), %rsi
	movl	-44(%rbp), %r14d
Ltmp128:
	.loc	4 82 14 is_stmt 1
	imull	%r14d, %esi
	.loc	4 82 9 is_stmt 0
	addl	%esi, %r13d
Ltmp129:
	.loc	4 85 9 is_stmt 1
	movq	%r13, %rdi
	imulq	%r9, %rdi
	shrq	$47, %rdi
	imull	$65521, %edi, %edi
	subl	%edi, %r13d
Ltmp130:
	.loc	4 135 13
	movl	%r10d, %edi
	imulq	%r9, %rdi
	shrq	$47, %rdi
	imull	$65521, %edi, %edi
	subl	%edi, %r10d
	movl	%r8d, %edi
	imulq	%r9, %rdi
	shrq	$47, %rdi
	imull	$65521, %edi, %edi
	subl	%edi, %r8d
	addl	%r10d, %r8d
Ltmp131:
	.loc	4 89 9
	leal	(%r13,%r8,4), %edi
Ltmp132:
	.loc	4 96 13
	subl	%ecx, %edi
Ltmp133:
	.loc	4 135 13
	movl	%r12d, %esi
	imulq	%r9, %rsi
	shrq	$47, %rsi
	imull	$65521, %esi, %esi
	subl	%esi, %r12d
Ltmp134:
	.loc	4 143 13
	shll	$2, %r12d
Ltmp135:
	.loc	4 90 23
	leal	(%rax,%rax), %esi
	.loc	4 90 9 is_stmt 0
	subl	%esi, %r12d
Ltmp136:
	.loc	4 96 13 is_stmt 1
	leal	196563(%rdi,%r12), %r8d
Ltmp137:
	.loc	4 0 13 is_stmt 0
	movl	$65521, %edi
Ltmp138:
	.loc	4 91 23 is_stmt 1
	subl	%edx, %edi
	leal	(%rdi,%rdi,2), %edi
Ltmp139:
	.loc	4 135 13
	movl	%r15d, %esi
	imulq	%r9, %rsi
	shrq	$47, %rsi
	imull	$65521, %esi, %esi
	subl	%esi, %r15d
Ltmp140:
	.loc	4 91 9
	leal	(%rdi,%r15,4), %edi
Ltmp141:
	.loc	4 96 13
	addl	%r8d, %edi
Ltmp142:
	jb	LBB5_30
Ltmp143:
	.loc	4 0 0 is_stmt 0
	movl	%ebx, %esi
	imulq	%r9, %rsi
	shrq	$47, %rsi
	imull	$65521, %esi, %esi
	subl	%esi, %ebx
Ltmp144:
	addl	%r14d, %edx
	addl	%eax, %edx
	addl	%ecx, %edx
	addl	%ebx, %edx
Ltmp145:
	movq	-96(%rbp), %rax
Ltmp146:
	.loc	7 3179 9 is_stmt 1
	cmpq	%rax, -88(%rbp)
	.loc	7 3303 21
	je	LBB5_34
Ltmp147:
	.loc	4 101 13
	addq	%rax, %r11
	movq	-80(%rbp), %rcx
	negq	%rcx
Ltmp148:
	.p2align	4, 0x90
LBB5_31:
	.loc	4 0 13 is_stmt 0
	movl	%edx, %eax
Ltmp149:
	.loc	4 100 14 is_stmt 1
	movzbl	(%r11,%rcx), %edx
Ltmp150:
	.loc	4 101 13
	addl	%eax, %edx
Ltmp151:
	jb	LBB5_36
Ltmp152:
	.loc	4 102 13
	addl	%edx, %edi
Ltmp153:
	jb	LBB5_37
Ltmp154:
	.loc	7 3179 9
	incq	%rcx
	.loc	7 3303 21
	jne	LBB5_31
Ltmp155:
LBB5_34:
	.loc	4 105 18
	movl	%edx, %eax
	movl	$2147975281, %ecx
	imulq	%rcx, %rax
	shrq	$47, %rax
	imull	$65521, %eax, %eax
	subl	%eax, %edx
Ltmp156:
	.loc	4 0 18 is_stmt 0
	movq	-104(%rbp), %rsi
	.loc	4 105 9
	movw	%dx, (%rsi)
	.loc	4 106 18 is_stmt 1
	movl	%edi, %eax
	imulq	%rcx, %rax
	shrq	$47, %rax
	imull	$65521, %eax, %eax
	subl	%eax, %edi
Ltmp157:
	.loc	4 106 9 is_stmt 0
	movw	%di, 2(%rsi)
Ltmp158:
	.loc	8 100 6 is_stmt 1
	addq	$88, %rsp
	popq	%rbx
	popq	%r12
	popq	%r13
	popq	%r14
	popq	%r15
	popq	%rbp
	retq
Ltmp159:
LBB5_42:
	.loc	4 0 0 is_stmt 0
	leaq	_str.1(%rip), %rdi
	leaq	l___unnamed_2(%rip), %rdx
	movl	$28, %esi
	callq	__ZN4core9panicking5panic17h736ee47a631475c0E
Ltmp160:
LBB5_36:
	.loc	4 101 13 is_stmt 1
	leaq	_str.1(%rip), %rdi
Ltmp161:
	leaq	l___unnamed_5(%rip), %rdx
Ltmp162:
	movl	$28, %esi
	callq	__ZN4core9panicking5panic17h736ee47a631475c0E
Ltmp163:
LBB5_37:
	.loc	4 102 13
	leaq	_str.1(%rip), %rdi
	leaq	l___unnamed_6(%rip), %rdx
Ltmp164:
	movl	$28, %esi
	callq	__ZN4core9panicking5panic17h736ee47a631475c0E
Ltmp165:
LBB5_35:
	.loc	4 60 49
	leaq	_str.2(%rip), %rdi
Ltmp166:
	leaq	l___unnamed_7(%rip), %rdx
	movl	$33, %esi
Ltmp167:
	callq	__ZN4core9panicking5panic17h736ee47a631475c0E
Ltmp168:
LBB5_40:
	.loc	7 2919 13
	leaq	l___unnamed_8(%rip), %rdx
	movq	%rcx, %rdi
Ltmp169:
	movq	%r8, %rsi
Ltmp170:
	callq	__ZN4core5slice20slice_index_len_fail17h550a313151a85135E
Ltmp171:
LBB5_41:
	.loc	7 2919 13 is_stmt 0
	leaq	l___unnamed_8(%rip), %rdx
	movq	%r9, %rdi
Ltmp172:
	movq	%rcx, %rsi
Ltmp173:
	callq	__ZN4core5slice20slice_index_len_fail17h550a313151a85135E
Ltmp174:
LBB5_30:
	.loc	4 96 13 is_stmt 1
	leaq	_str.1(%rip), %rdi
	leaq	l___unnamed_9(%rip), %rdx
	movl	$28, %esi
	callq	__ZN4core9panicking5panic17h736ee47a631475c0E
Ltmp175:
Lfunc_end5:
	.cfi_endproc

	.globl	__ZN53_$LT$adler..Adler32$u20$as$u20$core..hash..Hasher$GT$5write17h43395176649c80a9E
	.p2align	4, 0x90
__ZN53_$LT$adler..Adler32$u20$as$u20$core..hash..Hasher$GT$5write17h43395176649c80a9E:
Lfunc_begin6:
	.loc	8 116 0
	.cfi_startproc
	pushq	%rbp
	.cfi_def_cfa_offset 16
	.cfi_offset %rbp, -16
	movq	%rsp, %rbp
	.cfi_def_cfa_register %rbp
Ltmp176:
	.loc	8 117 9 prologue_end
	popq	%rbp
	jmp	__ZN5adler7Adler3211write_slice17hf20b6fe6d324734bE
Ltmp177:
Lfunc_end6:
	.cfi_endproc

	.globl	__ZN5adler13adler32_slice17hccd5a11a11d91592E
	.p2align	4, 0x90
__ZN5adler13adler32_slice17hccd5a11a11d91592E:
Lfunc_begin7:
	.loc	8 122 0
	.cfi_startproc
	pushq	%rbp
	.cfi_def_cfa_offset 16
	.cfi_offset %rbp, -16
	movq	%rsp, %rbp
	.cfi_def_cfa_register %rbp
	subq	$16, %rsp
	movq	%rsi, %rdx
Ltmp178:
	movq	%rdi, %rsi
Ltmp179:
	.loc	8 123 17 prologue_end
	movl	$1, -8(%rbp)
Ltmp180:
	.loc	8 0 17 is_stmt 0
	leaq	-8(%rbp), %rdi
Ltmp181:
	.loc	8 124 5 is_stmt 1
	callq	__ZN5adler7Adler3211write_slice17hf20b6fe6d324734bE
Ltmp182:
	.loc	8 91 9
	movl	-8(%rbp), %eax
Ltmp183:
	.loc	8 126 2
	addq	$16, %rsp
	popq	%rbp
	retq
Ltmp184:
Lfunc_end7:
	.cfi_endproc

	.globl	__ZN51_$LT$adler..Adler32$u20$as$u20$core..fmt..Debug$GT$3fmt17hd0455d79e818f787E
	.p2align	4, 0x90
__ZN51_$LT$adler..Adler32$u20$as$u20$core..fmt..Debug$GT$3fmt17hd0455d79e818f787E:
Lfunc_begin8:
	.loc	8 42 0
	.cfi_startproc
	pushq	%rbp
	.cfi_def_cfa_offset 16
	.cfi_offset %rbp, -16
	movq	%rsp, %rbp
	.cfi_def_cfa_register %rbp
	pushq	%r15
	pushq	%r14
	pushq	%rbx
	subq	$24, %rsp
	.cfi_offset %rbx, -40
	.cfi_offset %r14, -32
	.cfi_offset %r15, -24
	movq	%rdi, %rbx
Ltmp185:
	.loc	8 42 10 prologue_end
	leaq	l___unnamed_10(%rip), %rdx
	leaq	-48(%rbp), %r14
	movl	$7, %ecx
	movq	%r14, %rdi
	callq	__ZN4core3fmt9Formatter12debug_struct17h985c0158d1fc7193E
Ltmp186:
	.loc	8 44 5
	movq	%rbx, -32(%rbp)
Ltmp187:
	.loc	8 45 5
	addq	$2, %rbx
Ltmp188:
	.loc	8 42 10
	leaq	l___unnamed_11(%rip), %rsi
	leaq	l___unnamed_1(%rip), %r15
	leaq	-32(%rbp), %rcx
	movl	$1, %edx
	movq	%r14, %rdi
	movq	%r15, %r8
	callq	__ZN4core3fmt8builders11DebugStruct5field17h9c15dc155278eed2E
	.loc	8 45 5
	movq	%rbx, -32(%rbp)
	.loc	8 42 10
	leaq	l___unnamed_12(%rip), %rsi
	leaq	-32(%rbp), %rcx
	movl	$1, %edx
	movq	%r14, %rdi
	movq	%r15, %r8
	callq	__ZN4core3fmt8builders11DebugStruct5field17h9c15dc155278eed2E
	movq	%r14, %rdi
	callq	__ZN4core3fmt8builders11DebugStruct6finish17h26808393f3fed630E
Ltmp189:
	.loc	8 42 15 is_stmt 0
	addq	$24, %rsp
	popq	%rbx
	popq	%r14
	popq	%r15
	popq	%rbp
	retq
Ltmp190:
Lfunc_end8:
	.cfi_endproc

	.section	__TEXT,__const
l___unnamed_13:
	.ascii	"/rustc/a74d1862d4d87a56244958416fd05976c58ca1a8/src/libcore/slice/mod.rs"

	.p2align	4
_str.0:
	.ascii	"attempt to calculate the remainder with a divisor of zero"

	.section	__DATA,__const
	.p2align	3
l___unnamed_8:
	.quad	l___unnamed_13
	.asciz	"H\000\000\000\000\000\000\000\b\004\000\000\013\000\000"

	.section	__TEXT,__const
l___unnamed_14:
	.ascii	"/rustc/a74d1862d4d87a56244958416fd05976c58ca1a8/src/libcore/ops/arith.rs"

	.section	__DATA,__const
	.p2align	3
l___unnamed_2:
	.quad	l___unnamed_14
	.asciz	"H\000\000\000\000\000\000\000\256\002\000\0003\000\000"

	.section	__TEXT,__const
	.p2align	4
_str.1:
	.ascii	"attempt to add with overflow"

l___unnamed_15:
	.ascii	"/Users/yingyuhang/.cargo/registry/src/github.com-1ecc6299db9ec823/adler-0.2.3/src/algo.rs"

	.section	__DATA,__const
	.p2align	3
l___unnamed_7:
	.quad	l___unnamed_15
	.asciz	"Y\000\000\000\000\000\000\000<\000\000\0001\000\000"

	.section	__TEXT,__const
	.p2align	4
_str.2:
	.ascii	"attempt to subtract with overflow"

	.p2align	4
_str.3:
	.ascii	"attempt to multiply with overflow"

	.section	__DATA,__const
	.p2align	3
l___unnamed_9:
	.quad	l___unnamed_15
	.asciz	"Y\000\000\000\000\000\000\000`\000\000\000\r\000\000"

	.p2align	3
l___unnamed_5:
	.quad	l___unnamed_15
	.asciz	"Y\000\000\000\000\000\000\000e\000\000\000\r\000\000"

	.p2align	3
l___unnamed_6:
	.quad	l___unnamed_15
	.asciz	"Y\000\000\000\000\000\000\000f\000\000\000\r\000\000"

	.p2align	3
l___unnamed_3:
	.quad	l___unnamed_15
	.asciz	"Y\000\000\000\000\000\000\000\207\000\000\000\r\000\000"

	.p2align	3
l___unnamed_4:
	.quad	l___unnamed_15
	.asciz	"Y\000\000\000\000\000\000\000\217\000\000\000\r\000\000"

	.section	__TEXT,__const
l___unnamed_10:
	.ascii	"Adler32"

l___unnamed_11:
	.byte	97

	.section	__DATA,__const
	.p2align	3
l___unnamed_1:
	.quad	__ZN4core3ptr13drop_in_place17hc5c1bdd7a99ac75cE
	.quad	8
	.quad	8
	.quad	__ZN42_$LT$$RF$T$u20$as$u20$core..fmt..Debug$GT$3fmt17hab24f7b628cc3f10E

	.section	__TEXT,__const
l___unnamed_12:
	.byte	98

	.section	__DATA,__const
Lsec_end0:
	.section	__TEXT,__text,regular,pure_instructions
Lsec_end1: