	.section	__TEXT,__text,regular,pure_instructions
	.macosx_version_min 10, 7
	.file	1 "/Users/yingyuhang/.cargo/registry/src/github.com-1ecc6299db9ec823/autocfg-1.0.0/src/lib.rs"
	.globl	__ZN100_$LT$core..iter..adapters..Filter$LT$I$C$P$GT$$u20$as$u20$core..iter..traits..iterator..Iterator$GT$4next17h9d9eb19b9e413b3eE
	.p2align	4, 0x90
__ZN100_$LT$core..iter..adapters..Filter$LT$I$C$P$GT$$u20$as$u20$core..iter..traits..iterator..Iterator$GT$4next17h9d9eb19b9e413b3eE:
Lfunc_begin0:
	.file	2 "/rustc/6c8927b0cf80ceee19386026cf9d7fd4fd9d486f/src/libcore/iter/adapters/mod.rs"
	.loc	2 994 0
	.cfi_startproc
	pushq	%rbp
	.cfi_def_cfa_offset 16
	.cfi_offset %rbp, -16
	movq	%rsp, %rbp
	.cfi_def_cfa_register %rbp
	subq	$32, %rsp
	movq	%rdi, -8(%rbp)
Ltmp0:
	.loc	2 995 9 prologue_end
	movq	%rdi, %rax
	movq	%rdi, -16(%rbp)
	movq	%rax, %rdi
	movq	-16(%rbp), %rsi
	callq	__ZN4core4iter6traits8iterator8Iterator4find17h00ce85509205438bE
	movq	%rax, -24(%rbp)
	movq	%rdx, -32(%rbp)
	.loc	2 0 9 is_stmt 0
	movq	-24(%rbp), %rax
	movq	-32(%rbp), %rdx
	.loc	2 996 6 is_stmt 1
	addq	$32, %rsp
	popq	%rbp
	retq
Ltmp1:
Lfunc_end0:
	.cfi_endproc

	.globl	__ZN100_$LT$core..iter..adapters..Filter$LT$I$C$P$GT$$u20$as$u20$core..iter..traits..iterator..Iterator$GT$9size_hint17hf7931e25ddc46773E
	.p2align	4, 0x90
__ZN100_$LT$core..iter..adapters..Filter$LT$I$C$P$GT$$u20$as$u20$core..iter..traits..iterator..Iterator$GT$9size_hint17hf7931e25ddc46773E:
Lfunc_begin1:
	.loc	2 999 0
	.cfi_startproc
	pushq	%rbp
	.cfi_def_cfa_offset 16
	.cfi_offset %rbp, -16
	movq	%rsp, %rbp
	.cfi_def_cfa_register %rbp
	subq	$64, %rsp
	movq	%rdi, %rax
	movq	%rsi, -24(%rbp)
Ltmp2:
	.loc	2 1000 26 prologue_end
	leaq	-48(%rbp), %rcx
	movq	%rdi, -56(%rbp)
	movq	%rcx, %rdi
	movq	%rax, -64(%rbp)
	callq	__ZN97_$LT$core..iter..adapters..Map$LT$I$C$F$GT$$u20$as$u20$core..iter..traits..iterator..Iterator$GT$9size_hint17h0e279a7772288b9bE
	.loc	2 1000 17 is_stmt 0
	movq	-40(%rbp), %rax
	movq	-32(%rbp), %rcx
	movq	%rax, -16(%rbp)
	movq	%rcx, -8(%rbp)
	movq	-56(%rbp), %rdx
Ltmp3:
	.loc	2 1001 9 is_stmt 1
	movq	$0, (%rdx)
	movq	%rax, 8(%rdx)
	movq	%rcx, 16(%rdx)
	movq	-64(%rbp), %rax
Ltmp4:
	.loc	2 1002 6
	addq	$64, %rsp
	popq	%rbp
	retq
Ltmp5:
Lfunc_end1:
	.cfi_endproc

	.globl	__ZN101_$LT$core..ops..range..RangeTo$LT$usize$GT$$u20$as$u20$core..slice..SliceIndex$LT$$u5b$T$u5d$$GT$$GT$5index17h280d150d9292624fE
	.p2align	4, 0x90
__ZN101_$LT$core..ops..range..RangeTo$LT$usize$GT$$u20$as$u20$core..slice..SliceIndex$LT$$u5b$T$u5d$$GT$$GT$5index17h280d150d9292624fE:
Lfunc_begin2:
	.file	3 "/rustc/6c8927b0cf80ceee19386026cf9d7fd4fd9d486f/src/libcore/slice/mod.rs"
	.loc	3 3213 0
	.cfi_startproc
	pushq	%rbp
	.cfi_def_cfa_offset 16
	.cfi_offset %rbp, -16
	movq	%rsp, %rbp
	.cfi_def_cfa_register %rbp
	subq	$80, %rsp
	movq	%rdi, -24(%rbp)
	movq	%rsi, -16(%rbp)
	movq	%rdx, -8(%rbp)
Ltmp6:
	.loc	3 3214 9 prologue_end
	movq	$0, -40(%rbp)
	movq	%rdi, -32(%rbp)
	movq	-40(%rbp), %rdi
	movq	-32(%rbp), %rax
	movq	%rsi, -48(%rbp)
	movq	%rax, %rsi
	movq	-48(%rbp), %rax
	movq	%rdx, -56(%rbp)
	movq	%rax, %rdx
	movq	-56(%rbp), %r8
	movq	%rcx, -64(%rbp)
	movq	%r8, %rcx
	movq	-64(%rbp), %r8
	callq	__ZN99_$LT$core..ops..range..Range$LT$usize$GT$$u20$as$u20$core..slice..SliceIndex$LT$$u5b$T$u5d$$GT$$GT$5index17hd5eece52fdf310e4E
	movq	%rax, -72(%rbp)
	movq	%rdx, -80(%rbp)
	.loc	3 0 9 is_stmt 0
	movq	-72(%rbp), %rax
	movq	-80(%rbp), %rdx
	.loc	3 3215 6 is_stmt 1
	addq	$80, %rsp
	popq	%rbp
	retq
Ltmp7:
Lfunc_end2:
	.cfi_endproc

	.globl	__ZN101_$LT$core..ops..range..RangeTo$LT$usize$GT$$u20$as$u20$core..slice..SliceIndex$LT$$u5b$T$u5d$$GT$$GT$9index_mut17ha3f40a2688996b0dE
	.p2align	4, 0x90
__ZN101_$LT$core..ops..range..RangeTo$LT$usize$GT$$u20$as$u20$core..slice..SliceIndex$LT$$u5b$T$u5d$$GT$$GT$9index_mut17ha3f40a2688996b0dE:
Lfunc_begin3:
	.loc	3 3218 0
	.cfi_startproc
	pushq	%rbp
	.cfi_def_cfa_offset 16
	.cfi_offset %rbp, -16
	movq	%rsp, %rbp
	.cfi_def_cfa_register %rbp
	subq	$80, %rsp
	movq	%rdi, -24(%rbp)
	movq	%rsi, -16(%rbp)
	movq	%rdx, -8(%rbp)
Ltmp8:
	.loc	3 3219 9 prologue_end
	movq	$0, -40(%rbp)
	movq	%rdi, -32(%rbp)
	movq	-40(%rbp), %rdi
	movq	-32(%rbp), %rax
	movq	%rsi, -48(%rbp)
	movq	%rax, %rsi
	movq	-48(%rbp), %rax
	movq	%rdx, -56(%rbp)
	movq	%rax, %rdx
	movq	-56(%rbp), %r8
	movq	%rcx, -64(%rbp)
	movq	%r8, %rcx
	movq	-64(%rbp), %r8
	callq	__ZN99_$LT$core..ops..range..Range$LT$usize$GT$$u20$as$u20$core..slice..SliceIndex$LT$$u5b$T$u5d$$GT$$GT$9index_mut17hfcb24e2085e4c2f9E
	movq	%rax, -72(%rbp)
	movq	%rdx, -80(%rbp)
	.loc	3 0 9 is_stmt 0
	movq	-72(%rbp), %rax
	movq	-80(%rbp), %rdx
	.loc	3 3220 6 is_stmt 1
	addq	$80, %rsp
	popq	%rbp
	retq
Ltmp9:
Lfunc_end3:
	.cfi_endproc

	.globl	__ZN103_$LT$core..ops..range..RangeFrom$LT$usize$GT$$u20$as$u20$core..slice..SliceIndex$LT$$u5b$T$u5d$$GT$$GT$13get_unchecked17h5718566ab8540a4eE
	.p2align	4, 0x90
__ZN103_$LT$core..ops..range..RangeFrom$LT$usize$GT$$u20$as$u20$core..slice..SliceIndex$LT$$u5b$T$u5d$$GT$$GT$13get_unchecked17h5718566ab8540a4eE:
Lfunc_begin4:
	.loc	3 3238 0
	.cfi_startproc
	pushq	%rbp
	.cfi_def_cfa_offset 16
	.cfi_offset %rbp, -16
	movq	%rsp, %rbp
	.cfi_def_cfa_register %rbp
	subq	$96, %rsp
	movq	%rdi, -24(%rbp)
	movq	%rsi, -16(%rbp)
	movq	%rdx, -8(%rbp)
	movq	%rdi, -48(%rbp)
Ltmp10:
	.loc	3 3240 31 prologue_end
	movq	%rsi, %rdi
	movq	%rsi, -56(%rbp)
	movq	%rdx, %rsi
	movq	%rdx, -64(%rbp)
	callq	__ZN4core3ptr9const_ptr43_$LT$impl$u20$$BP$const$u20$$u5b$T$u5d$$GT$3len17h5bed92264f623033E
	movq	%rax, -72(%rbp)
	.loc	3 0 31 is_stmt 0
	movq	-48(%rbp), %rax
	.loc	3 3240 18
	movq	%rax, -40(%rbp)
	movq	-72(%rbp), %rcx
	movq	%rcx, -32(%rbp)
	movq	-40(%rbp), %rdi
	movq	-32(%rbp), %rsi
	movq	-56(%rbp), %rdx
	movq	-64(%rbp), %rcx
	callq	__ZN99_$LT$core..ops..range..Range$LT$usize$GT$$u20$as$u20$core..slice..SliceIndex$LT$$u5b$T$u5d$$GT$$GT$13get_unchecked17h9b7e59a0a507948eE
	movq	%rax, -80(%rbp)
	movq	%rdx, -88(%rbp)
	.loc	3 0 18
	movq	-80(%rbp), %rax
	movq	-88(%rbp), %rdx
	.loc	3 3241 6 is_stmt 1
	addq	$96, %rsp
	popq	%rbp
	retq
Ltmp11:
Lfunc_end4:
	.cfi_endproc

	.globl	__ZN103_$LT$core..ops..range..RangeFrom$LT$usize$GT$$u20$as$u20$core..slice..SliceIndex$LT$$u5b$T$u5d$$GT$$GT$5index17h91e9aa9a46b7751fE
	.p2align	4, 0x90
__ZN103_$LT$core..ops..range..RangeFrom$LT$usize$GT$$u20$as$u20$core..slice..SliceIndex$LT$$u5b$T$u5d$$GT$$GT$5index17h91e9aa9a46b7751fE:
Lfunc_begin5:
	.loc	3 3250 0
	.cfi_startproc
	pushq	%rbp
	.cfi_def_cfa_offset 16
	.cfi_offset %rbp, -16
	movq	%rsp, %rbp
	.cfi_def_cfa_register %rbp
	subq	$96, %rsp
	movq	%rdi, -24(%rbp)
	movq	%rsi, -16(%rbp)
	movq	%rdx, -8(%rbp)
	movq	%rdi, -32(%rbp)
Ltmp12:
	.loc	3 3251 25 prologue_end
	movq	%rsi, %rdi
	movq	%rsi, -40(%rbp)
	movq	%rdx, %rsi
	movq	%rdx, -48(%rbp)
	movq	%rcx, -56(%rbp)
	callq	__ZN4core5slice29_$LT$impl$u20$$u5b$T$u5d$$GT$3len17hc188c425aa016d66E
	movq	%rax, -64(%rbp)
	.loc	3 0 25 is_stmt 0
	movq	-32(%rbp), %rax
	movq	-64(%rbp), %rcx
	.loc	3 3251 12
	cmpq	%rcx, %rax
	.loc	3 3251 9
	ja	LBB5_3
	.loc	3 0 9
	movq	-32(%rbp), %rdi
	movq	-40(%rbp), %rsi
	movq	-48(%rbp), %rdx
	.loc	3 3254 20 is_stmt 1
	callq	__ZN103_$LT$core..ops..range..RangeFrom$LT$usize$GT$$u20$as$u20$core..slice..SliceIndex$LT$$u5b$T$u5d$$GT$$GT$13get_unchecked17h5718566ab8540a4eE
	movq	%rax, -72(%rbp)
	movq	%rdx, -80(%rbp)
	jmp	LBB5_5
LBB5_3:
	.loc	3 0 20 is_stmt 0
	movq	-40(%rbp), %rdi
	movq	-48(%rbp), %rsi
	.loc	3 3252 52 is_stmt 1
	callq	__ZN4core5slice29_$LT$impl$u20$$u5b$T$u5d$$GT$3len17hc188c425aa016d66E
	movq	%rax, -88(%rbp)
	.loc	3 0 52 is_stmt 0
	movq	-32(%rbp), %rdi
	movq	-88(%rbp), %rsi
	movq	-56(%rbp), %rdx
	.loc	3 3252 13
	callq	__ZN4core5slice26slice_start_index_len_fail17h787e2f1bbfc1d2f3E
LBB5_5:
	.loc	3 0 13
	movq	-72(%rbp), %rax
	movq	-80(%rbp), %rdx
	.loc	3 3255 6 is_stmt 1
	addq	$96, %rsp
	popq	%rbp
	retq
Ltmp13:
Lfunc_end5:
	.cfi_endproc

	.p2align	4, 0x90
__ZN105_$LT$std..ffi..os_str..OsString$u20$as$u20$core..ops..index..Index$LT$core..ops..range..RangeFull$GT$$GT$5index17h63e3175c92e6449aE:
Lfunc_begin6:
	.file	4 "/rustc/6c8927b0cf80ceee19386026cf9d7fd4fd9d486f/src/libstd/ffi/os_str.rs"
	.loc	4 378 0
	.cfi_startproc
	pushq	%rbp
	.cfi_def_cfa_offset 16
	.cfi_offset %rbp, -16
	movq	%rsp, %rbp
	.cfi_def_cfa_register %rbp
	subq	$64, %rsp
	movq	%rdi, -16(%rbp)
	movq	%rsi, -24(%rbp)
Ltmp14:
	.loc	4 379 27 prologue_end
	callq	__ZN3std10sys_common12os_str_bytes3Buf8as_slice17h0e81905c3ce2c637E
	movq	%rax, -32(%rbp)
	movq	%rdx, -40(%rbp)
	.loc	4 0 27 is_stmt 0
	movq	-32(%rbp), %rdi
	movq	-40(%rbp), %rsi
	.loc	4 379 9
	callq	__ZN3std3ffi6os_str5OsStr10from_inner17heb9bc5784a8c9fd9E
	movq	%rax, -48(%rbp)
	movq	%rdx, -56(%rbp)
	.loc	4 0 9
	movq	-48(%rbp), %rax
	movq	-56(%rbp), %rdx
	.loc	4 380 6 is_stmt 1
	addq	$64, %rsp
	popq	%rbp
	retq
Ltmp15:
Lfunc_end6:
	.cfi_endproc

	.globl	__ZN109_$LT$alloc..vec..Vec$LT$T$GT$$u20$as$u20$alloc..vec..SpecExtend$LT$$RF$T$C$core..slice..Iter$LT$T$GT$$GT$$GT$11spec_extend17h6bef5430a4ea4137E
	.p2align	4, 0x90
__ZN109_$LT$alloc..vec..Vec$LT$T$GT$$u20$as$u20$alloc..vec..SpecExtend$LT$$RF$T$C$core..slice..Iter$LT$T$GT$$GT$$GT$11spec_extend17h6bef5430a4ea4137E:
Lfunc_begin7:
	.file	5 "/rustc/6c8927b0cf80ceee19386026cf9d7fd4fd9d486f/src/liballoc/vec.rs"
	.loc	5 2194 0
	.cfi_startproc
	pushq	%rbp
	.cfi_def_cfa_offset 16
	.cfi_offset %rbp, -16
	movq	%rsp, %rbp
	.cfi_def_cfa_register %rbp
	subq	$160, %rsp
	movq	%rsi, -64(%rbp)
	movq	%rdx, -56(%rbp)
	movq	%rdi, -48(%rbp)
Ltmp16:
	.loc	5 2195 21 prologue_end
	leaq	-64(%rbp), %rax
Ltmp17:
	.loc	5 0 21 is_stmt 0
	movq	%rdi, -72(%rbp)
	.loc	5 2195 21
	movq	%rax, %rdi
	callq	__ZN4core5slice13Iter$LT$T$GT$8as_slice17hb6b09cee922866bdE
Ltmp18:
	movq	%rax, -40(%rbp)
	movq	%rdx, -32(%rbp)
	movq	%rax, -80(%rbp)
	movq	%rdx, -88(%rbp)
	.loc	5 0 21
	movq	-80(%rbp), %rdi
	movq	-88(%rbp), %rsi
Ltmp19:
	.loc	5 2196 22 is_stmt 1
	callq	__ZN4core5slice29_$LT$impl$u20$$u5b$T$u5d$$GT$3len17hc188c425aa016d66E
	movq	%rax, -96(%rbp)
	.loc	5 0 22 is_stmt 0
	movq	-72(%rbp), %rdi
	movq	-96(%rbp), %rsi
	.loc	5 2196 9
	callq	__ZN5alloc3vec12Vec$LT$T$GT$7reserve17hf9b1d44262986375E
	.loc	5 0 9
	movq	-72(%rbp), %rdi
	.loc	5 2198 23 is_stmt 1
	callq	__ZN5alloc3vec12Vec$LT$T$GT$3len17h61aa57926e6c2ea3E
	movq	%rax, -24(%rbp)
	movq	%rax, -104(%rbp)
	.loc	5 0 23 is_stmt 0
	movq	-72(%rbp), %rdi
Ltmp20:
	.loc	5 2199 55 is_stmt 1
	callq	__ZN5alloc3vec12Vec$LT$T$GT$10as_mut_ptr17hb87234fac670972cE
	movq	%rax, -112(%rbp)
	.loc	5 0 55 is_stmt 0
	movq	-112(%rbp), %rdi
	movq	-104(%rbp), %rsi
	.loc	5 2199 55
	callq	__ZN4core3ptr7mut_ptr31_$LT$impl$u20$$BP$mut$u20$T$GT$3add17h0e558f2c34903859E
	movq	%rax, -120(%rbp)
	.loc	5 0 55
	movq	-80(%rbp), %rdi
	movq	-88(%rbp), %rsi
	.loc	5 2199 83
	callq	__ZN4core5slice29_$LT$impl$u20$$u5b$T$u5d$$GT$3len17hc188c425aa016d66E
	movq	%rax, -128(%rbp)
	.loc	5 0 83
	movq	-120(%rbp), %rdi
	movq	-128(%rbp), %rsi
	.loc	5 2199 29
	callq	__ZN4core5slice18from_raw_parts_mut17hb63f0f01dbca520aE
	movq	%rax, -16(%rbp)
	movq	%rdx, -8(%rbp)
	movq	%rax, -136(%rbp)
	movq	%rdx, -144(%rbp)
	.loc	5 0 29
	movq	-136(%rbp), %rdi
	movq	-144(%rbp), %rsi
	movq	-80(%rbp), %rdx
	movq	-88(%rbp), %rcx
Ltmp21:
	.loc	5 2200 13 is_stmt 1
	callq	__ZN4core5slice29_$LT$impl$u20$$u5b$T$u5d$$GT$15copy_from_slice17h374dcbdbef232611E
	.loc	5 0 13 is_stmt 0
	movq	-80(%rbp), %rdi
	movq	-88(%rbp), %rsi
	.loc	5 2201 32 is_stmt 1
	callq	__ZN4core5slice29_$LT$impl$u20$$u5b$T$u5d$$GT$3len17hc188c425aa016d66E
	movq	%rax, -152(%rbp)
	.loc	5 0 32 is_stmt 0
	movq	-104(%rbp), %rax
	movq	-152(%rbp), %rcx
	.loc	5 2201 26
	addq	%rcx, %rax
	movq	-72(%rbp), %rdi
	.loc	5 2201 13
	movq	%rax, %rsi
	callq	__ZN5alloc3vec12Vec$LT$T$GT$7set_len17h294e3cfa36ad7b18E
Ltmp22:
	.loc	5 2203 6 is_stmt 1
	addq	$160, %rsp
	popq	%rbp
	retq
Ltmp23:
Lfunc_end7:
	.cfi_endproc

	.globl	__ZN112_$LT$alloc..collections..btree..map..IntoIter$LT$K$C$V$GT$$u20$as$u20$core..iter..traits..iterator..Iterator$GT$4next17hc7cf16f0624f7f3bE
	.p2align	4, 0x90
__ZN112_$LT$alloc..collections..btree..map..IntoIter$LT$K$C$V$GT$$u20$as$u20$core..iter..traits..iterator..Iterator$GT$4next17hc7cf16f0624f7f3bE:
Lfunc_begin8:
	.file	6 "/rustc/6c8927b0cf80ceee19386026cf9d7fd4fd9d486f/src/liballoc/collections/btree/map.rs"
	.loc	6 1486 0
	.cfi_startproc
	pushq	%rbp
	.cfi_def_cfa_offset 16
	.cfi_offset %rbp, -16
	movq	%rsp, %rbp
	.cfi_def_cfa_register %rbp
	subq	$96, %rsp
	movq	%rdi, %rax
	movq	%rsi, -8(%rbp)
Ltmp24:
	.loc	6 1487 12 prologue_end
	cmpq	$0, 64(%rsi)
	movq	%rsi, -64(%rbp)
	movq	%rdi, -72(%rbp)
	movq	%rax, -80(%rbp)
	.loc	6 1487 9 is_stmt 0
	je	LBB8_2
	.loc	6 0 9
	movq	-64(%rbp), %rax
	.loc	6 1490 13 is_stmt 1
	movq	64(%rax), %rcx
	subq	$1, %rcx
	movq	%rcx, 64(%rax)
	.loc	6 1491 27
	movq	%rax, %rdi
	callq	__ZN4core6option15Option$LT$T$GT$6as_mut17h7293e4fdbe27d777E
	movq	%rax, -88(%rbp)
	jmp	LBB8_3
LBB8_2:
	.loc	6 0 27 is_stmt 0
	movq	-72(%rbp), %rax
	.loc	6 1488 13 is_stmt 1
	movq	$0, (%rax)
	.loc	6 1487 9
	jmp	LBB8_6
LBB8_3:
	.loc	6 0 9 is_stmt 0
	leaq	l___unnamed_21(%rip), %rax
	movq	-88(%rbp), %rdi
	.loc	6 1491 27 is_stmt 1
	movq	%rax, %rsi
	callq	__ZN4core6option15Option$LT$T$GT$6unwrap17h143b339579a8e41aE
	movq	%rax, -96(%rbp)
	leaq	-56(%rbp), %rdi
	movq	-96(%rbp), %rsi
	callq	__ZN5alloc11collections5btree8navigate263_$LT$impl$u20$alloc..collections..btree..node..Handle$LT$alloc..collections..btree..node..NodeRef$LT$alloc..collections..btree..node..marker..Owned$C$K$C$V$C$alloc..collections..btree..node..marker..Leaf$GT$$C$alloc..collections..btree..node..marker..Edge$GT$$GT$14next_unchecked17h3d46fbca32ff20a8E
	.loc	6 0 27 is_stmt 0
	movq	-72(%rbp), %rax
	.loc	6 1491 13
	leaq	-56(%rbp), %rcx
	movq	%rax, %rdi
	movq	%rcx, %rsi
	movl	$48, %edx
	callq	_memcpy
LBB8_6:
	.loc	6 0 13
	movq	-80(%rbp), %rax
	.loc	6 1493 6 is_stmt 1
	addq	$96, %rsp
	popq	%rbp
	retq
Ltmp25:
Lfunc_end8:
	.cfi_endproc

	.globl	__ZN115_$LT$alloc..collections..btree..map..BTreeMap$LT$K$C$V$GT$$u20$as$u20$core..iter..traits..collect..IntoIterator$GT$9into_iter17h2c18169476d9b343E
	.p2align	4, 0x90
__ZN115_$LT$alloc..collections..btree..map..BTreeMap$LT$K$C$V$GT$$u20$as$u20$core..iter..traits..collect..IntoIterator$GT$9into_iter17h2c18169476d9b343E:
Lfunc_begin9:
	.loc	6 1430 0
	.cfi_startproc
	pushq	%rbp
	.cfi_def_cfa_offset 16
	.cfi_offset %rbp, -16
	movq	%rsp, %rbp
	.cfi_def_cfa_register %rbp
	subq	$496, %rsp
	movq	%rdi, %rax
Ltmp26:
	.loc	6 1431 40 prologue_end
	movq	(%rsi), %rcx
	movq	%rcx, -440(%rbp)
	movq	8(%rsi), %rcx
	movq	%rcx, -432(%rbp)
	movq	16(%rsi), %rcx
	movq	%rcx, -424(%rbp)
Ltmp27:
	.file	7 "/rustc/6c8927b0cf80ceee19386026cf9d7fd4fd9d486f/src/libcore/mem/manually_drop.rs"
	.loc	7 83 24
	movq	-440(%rbp), %rcx
	movq	%rcx, -40(%rbp)
	movq	-432(%rbp), %rcx
	movq	%rcx, -32(%rbp)
	movq	-424(%rbp), %rcx
	movq	%rcx, -24(%rbp)
	.loc	7 83 9 is_stmt 0
	movq	-40(%rbp), %rcx
	movq	%rcx, -464(%rbp)
	movq	-32(%rbp), %rcx
	movq	%rcx, -456(%rbp)
	movq	-24(%rbp), %rcx
	movq	%rcx, -448(%rbp)
	movq	%rdi, -472(%rbp)
	movq	%rax, -480(%rbp)
Ltmp28:
	.loc	7 0 9
	leaq	-464(%rbp), %rax
	movq	%rax, -8(%rbp)
	movq	%rax, -488(%rbp)
Ltmp29:
	movq	-488(%rbp), %rdi
Ltmp30:
	.loc	6 1432 29 is_stmt 1
	callq	__ZN4core6option15Option$LT$T$GT$4take17hbab40bdeb6b77176E
Ltmp31:
	movq	%rdx, -408(%rbp)
	movq	%rax, -416(%rbp)
	.loc	6 0 29 is_stmt 0
	xorl	%eax, %eax
	movl	%eax, %ecx
	.loc	6 1432 16
	cmpq	$0, -416(%rbp)
	movl	$1, %edx
	cmovbeq	%rcx, %rdx
	cmpq	$1, %rdx
	je	LBB9_5
	.loc	6 1437 31 is_stmt 1
	movq	$0, -112(%rbp)
	.loc	6 1437 43 is_stmt 0
	movq	$0, -80(%rbp)
	.loc	6 1437 13
	movq	-120(%rbp), %rax
	movq	-472(%rbp), %rcx
	movq	%rax, (%rcx)
	movq	-112(%rbp), %rax
	movq	%rax, 8(%rcx)
	movq	-104(%rbp), %rax
	movq	%rax, 16(%rcx)
	movq	-96(%rbp), %rax
	movq	%rax, 24(%rcx)
	movq	-88(%rbp), %rax
	movq	%rax, 32(%rcx)
	movq	-80(%rbp), %rax
	movq	%rax, 40(%rcx)
	movq	-72(%rbp), %rax
	movq	%rax, 48(%rcx)
	movq	-64(%rbp), %rax
	movq	%rax, 56(%rcx)
	movq	$0, 64(%rcx)
	.loc	6 1432 9 is_stmt 1
	jmp	LBB9_9
LBB9_5:
	.loc	6 1432 21 is_stmt 0
	movq	-416(%rbp), %rax
	movq	-408(%rbp), %rcx
	movq	%rax, -56(%rbp)
	movq	%rcx, -48(%rbp)
Ltmp32:
	.loc	6 1433 44 is_stmt 1
	leaq	-272(%rbp), %rdi
	movq	%rax, %rsi
	movq	%rcx, %rdx
	callq	__ZN5alloc11collections5btree4node17Root$LT$K$C$V$GT$8into_ref17h64ce25c54c01c2efE
	.loc	6 1433 26 is_stmt 0
	leaq	-336(%rbp), %rdi
	leaq	-272(%rbp), %rsi
	callq	__ZN5alloc11collections5btree3map17full_range_search17h68d7f598c0bfce97E
	.loc	6 1433 18
	movq	-336(%rbp), %rax
	movq	%rax, -400(%rbp)
	movq	-328(%rbp), %rax
	movq	%rax, -392(%rbp)
	movq	-320(%rbp), %rax
	movq	%rax, -384(%rbp)
	movq	-312(%rbp), %rax
	movq	%rax, -376(%rbp)
	.loc	6 1433 21
	movq	-304(%rbp), %rax
	movq	%rax, -368(%rbp)
	movq	-296(%rbp), %rax
	movq	%rax, -360(%rbp)
	movq	-288(%rbp), %rax
	movq	%rax, -352(%rbp)
	movq	-280(%rbp), %rax
	movq	%rax, -344(%rbp)
Ltmp33:
	.loc	6 1435 36 is_stmt 1
	movq	-400(%rbp), %rax
	movq	%rax, -216(%rbp)
	movq	-392(%rbp), %rax
	movq	%rax, -208(%rbp)
	movq	-384(%rbp), %rax
	movq	%rax, -200(%rbp)
	movq	-376(%rbp), %rax
	movq	%rax, -192(%rbp)
	.loc	6 1435 31 is_stmt 0
	movq	-216(%rbp), %rax
	movq	%rax, -248(%rbp)
	movq	-208(%rbp), %rax
	movq	%rax, -240(%rbp)
	movq	-200(%rbp), %rax
	movq	%rax, -232(%rbp)
	movq	-192(%rbp), %rax
	movq	%rax, -224(%rbp)
	.loc	6 1435 51
	movq	-368(%rbp), %rax
	movq	%rax, -152(%rbp)
	movq	-360(%rbp), %rax
	movq	%rax, -144(%rbp)
	movq	-352(%rbp), %rax
	movq	%rax, -136(%rbp)
	movq	-344(%rbp), %rax
	movq	%rax, -128(%rbp)
	.loc	6 1435 46
	movq	-152(%rbp), %rax
	movq	%rax, -184(%rbp)
	movq	-144(%rbp), %rax
	movq	%rax, -176(%rbp)
	movq	-136(%rbp), %rax
	movq	%rax, -168(%rbp)
	movq	-128(%rbp), %rax
	movq	%rax, -160(%rbp)
	leaq	-464(%rbp), %rax
	movq	%rax, -16(%rbp)
	movq	%rax, -496(%rbp)
	.loc	6 0 46
	movq	-496(%rbp), %rax
	.loc	6 1435 63
	movq	16(%rax), %rcx
	.loc	6 1435 13
	movq	-248(%rbp), %rdx
	movq	-472(%rbp), %rsi
	movq	%rdx, (%rsi)
	movq	-240(%rbp), %rdx
	movq	%rdx, 8(%rsi)
	movq	-232(%rbp), %rdx
	movq	%rdx, 16(%rsi)
	movq	-224(%rbp), %rdx
	movq	%rdx, 24(%rsi)
	movq	-184(%rbp), %rdx
	movq	%rdx, 32(%rsi)
	movq	-176(%rbp), %rdx
	movq	%rdx, 40(%rsi)
	movq	-168(%rbp), %rdx
	movq	%rdx, 48(%rsi)
	movq	-160(%rbp), %rdx
	movq	%rdx, 56(%rsi)
	movq	%rcx, 64(%rsi)
Ltmp34:
LBB9_9:
	.loc	6 0 13
	movq	-480(%rbp), %rax
	.loc	6 1439 6 is_stmt 1
	addq	$496, %rsp
	popq	%rbp
	retq
Ltmp35:
Lfunc_end9:
	.cfi_endproc

	.globl	__ZN119_$LT$core..ptr..non_null..NonNull$LT$T$GT$$u20$as$u20$core..convert..From$LT$core..ptr..unique..Unique$LT$T$GT$$GT$$GT$4from17h03d0682e35f42a6fE
	.p2align	4, 0x90
__ZN119_$LT$core..ptr..non_null..NonNull$LT$T$GT$$u20$as$u20$core..convert..From$LT$core..ptr..unique..Unique$LT$T$GT$$GT$$GT$4from17h03d0682e35f42a6fE:
Lfunc_begin10:
	.file	8 "/rustc/6c8927b0cf80ceee19386026cf9d7fd4fd9d486f/src/libcore/ptr/non_null.rs"
	.loc	8 329 0
	.cfi_startproc
	pushq	%rbp
	.cfi_def_cfa_offset 16
	.cfi_offset %rbp, -16
	movq	%rsp, %rbp
	.cfi_def_cfa_register %rbp
	subq	$32, %rsp
	movq	%rdi, -8(%rbp)
Ltmp36:
	.loc	8 332 41 prologue_end
	callq	__ZN4core3ptr6unique15Unique$LT$T$GT$6as_ptr17hb7417b4ffea251a3E
	movq	%rax, -16(%rbp)
	.loc	8 0 41 is_stmt 0
	movq	-16(%rbp), %rdi
	.loc	8 332 18
	callq	__ZN4core3ptr8non_null16NonNull$LT$T$GT$13new_unchecked17h5ae664b1b32f9d00E
	movq	%rax, -24(%rbp)
	.loc	8 0 18
	movq	-24(%rbp), %rax
	.loc	8 333 6 is_stmt 1
	addq	$32, %rsp
	popq	%rbp
	retq
Ltmp37:
Lfunc_end10:
	.cfi_endproc

	.globl	__ZN119_$LT$core..ptr..non_null..NonNull$LT$T$GT$$u20$as$u20$core..convert..From$LT$core..ptr..unique..Unique$LT$T$GT$$GT$$GT$4from17ha51e6992437f53c0E
	.p2align	4, 0x90
__ZN119_$LT$core..ptr..non_null..NonNull$LT$T$GT$$u20$as$u20$core..convert..From$LT$core..ptr..unique..Unique$LT$T$GT$$GT$$GT$4from17ha51e6992437f53c0E:
Lfunc_begin11:
	.loc	8 329 0
	.cfi_startproc
	pushq	%rbp
	.cfi_def_cfa_offset 16
	.cfi_offset %rbp, -16
	movq	%rsp, %rbp
	.cfi_def_cfa_register %rbp
	subq	$32, %rsp
	movq	%rdi, -8(%rbp)
Ltmp38:
	.loc	8 332 41 prologue_end
	callq	__ZN4core3ptr6unique15Unique$LT$T$GT$6as_ptr17h3ca903642da2af37E
	movq	%rax, -16(%rbp)
	.loc	8 0 41 is_stmt 0
	movq	-16(%rbp), %rdi
	.loc	8 332 18
	callq	__ZN4core3ptr8non_null16NonNull$LT$T$GT$13new_unchecked17h99387dcdae3cf217E
	movq	%rax, -24(%rbp)
	.loc	8 0 18
	movq	-24(%rbp), %rax
	.loc	8 333 6 is_stmt 1
	addq	$32, %rsp
	popq	%rbp
	retq
Ltmp39:
Lfunc_end11:
	.cfi_endproc

	.globl	__ZN166_$LT$$LT$alloc..collections..btree..map..IntoIter$LT$K$C$V$GT$$u20$as$u20$core..ops..drop..Drop$GT$..drop..DropGuard$LT$K$C$V$GT$$u20$as$u20$core..ops..drop..Drop$GT$4drop17h34f6e37713f65772E
	.p2align	4, 0x90
__ZN166_$LT$$LT$alloc..collections..btree..map..IntoIter$LT$K$C$V$GT$$u20$as$u20$core..ops..drop..Drop$GT$..drop..DropGuard$LT$K$C$V$GT$$u20$as$u20$core..ops..drop..Drop$GT$4drop17h34f6e37713f65772E:
Lfunc_begin12:
	.loc	6 1448 0
	.cfi_startproc
	pushq	%rbp
	.cfi_def_cfa_offset 16
	.cfi_offset %rbp, -16
	movq	%rsp, %rbp
	.cfi_def_cfa_register %rbp
	subq	$384, %rsp
	movq	%rdi, -40(%rbp)
	movq	%rdi, -376(%rbp)
LBB12_1:
	movq	-376(%rbp), %rax
Ltmp40:
	.loc	6 1451 37 prologue_end
	movq	(%rax), %rsi
	leaq	-368(%rbp), %rdi
	callq	__ZN112_$LT$alloc..collections..btree..map..IntoIter$LT$K$C$V$GT$$u20$as$u20$core..iter..traits..iterator..Iterator$GT$4next17hc7cf16f0624f7f3bE
	.loc	6 0 37 is_stmt 0
	xorl	%eax, %eax
	movl	%eax, %ecx
	.loc	6 1451 27
	cmpq	$0, -368(%rbp)
	movl	$1, %edx
	cmovbeq	%rcx, %rdx
	cmpq	$1, %rdx
	je	LBB12_4
	.loc	6 1451 52
	leaq	-368(%rbp), %rdi
	callq	__ZN4core3ptr13drop_in_place17h969522c4a531d73bE
	jmp	LBB12_5
LBB12_4:
	leaq	-368(%rbp), %rdi
	callq	__ZN4core3ptr13drop_in_place17h969522c4a531d73bE
	jmp	LBB12_6
LBB12_5:
	.loc	6 0 52
	movq	-376(%rbp), %rax
	.loc	6 1455 52 is_stmt 1
	movq	(%rax), %rcx
	.loc	6 1455 42 is_stmt 0
	leaq	-240(%rbp), %rdi
	movq	%rcx, %rsi
	callq	__ZN4core3ptr4read17h20c469ac472288eaE
	jmp	LBB12_7
LBB12_6:
	.loc	6 1451 17 is_stmt 1
	jmp	LBB12_1
LBB12_7:
Ltmp41:
	.file	9 "/rustc/6c8927b0cf80ceee19386026cf9d7fd4fd9d486f/src/liballoc/collections/btree/mod.rs"
	.loc	9 18 5
	movq	-240(%rbp), %rax
	movq	%rax, -32(%rbp)
	movq	-232(%rbp), %rax
	movq	%rax, -24(%rbp)
	movq	-224(%rbp), %rax
	movq	%rax, -16(%rbp)
	movq	-216(%rbp), %rax
	movq	%rax, -8(%rbp)
	leaq	-272(%rbp), %rdi
	leaq	-32(%rbp), %rsi
	callq	__ZN4core6option15Option$LT$T$GT$14unwrap_or_else17hcb340b6487841206E
Ltmp42:
	.loc	6 1455 25
	leaq	-296(%rbp), %rdi
	leaq	-272(%rbp), %rsi
	callq	__ZN5alloc11collections5btree4node25Handle$LT$Node$C$Type$GT$9into_node17h8660eb3353fb9c9bE
	leaq	-320(%rbp), %rdi
	leaq	-296(%rbp), %rsi
	callq	__ZN5alloc11collections5btree4node40NodeRef$LT$BorrowType$C$K$C$V$C$Type$GT$11forget_type17h9e1230fa11893d4cE
Ltmp43:
	.loc	6 1456 21
	jmp	LBB12_11
LBB12_11:
	.loc	6 1456 46 is_stmt 0
	movq	-320(%rbp), %rax
	movq	%rax, -176(%rbp)
	movq	-312(%rbp), %rax
	movq	%rax, -168(%rbp)
	movq	-304(%rbp), %rax
	movq	%rax, -160(%rbp)
	leaq	-208(%rbp), %rdi
	leaq	-176(%rbp), %rsi
	callq	__ZN5alloc11collections5btree4node127NodeRef$LT$alloc..collections..btree..node..marker..Owned$C$K$C$V$C$alloc..collections..btree..node..marker..LeafOrInternal$GT$21deallocate_and_ascend17h90bb8645b1b6a178E
	.loc	6 0 46
	xorl	%eax, %eax
	movl	%eax, %ecx
	.loc	6 1456 31
	cmpq	$0, -200(%rbp)
	movl	$1, %edx
	cmovbeq	%rcx, %rdx
	cmpq	$1, %rdx
	je	LBB12_14
Ltmp44:
	.loc	6 1460 14 is_stmt 1
	addq	$384, %rsp
	popq	%rbp
	retq
LBB12_14:
Ltmp45:
	.loc	6 1456 36
	movq	-208(%rbp), %rax
	movq	%rax, -152(%rbp)
	movq	-200(%rbp), %rax
	movq	%rax, -144(%rbp)
	movq	-192(%rbp), %rax
	movq	%rax, -136(%rbp)
	movq	-184(%rbp), %rax
	movq	%rax, -128(%rbp)
Ltmp46:
	.loc	6 1457 32
	movq	-152(%rbp), %rax
	movq	%rax, -72(%rbp)
	movq	-144(%rbp), %rax
	movq	%rax, -64(%rbp)
	movq	-136(%rbp), %rax
	movq	%rax, -56(%rbp)
	movq	-128(%rbp), %rax
	movq	%rax, -48(%rbp)
	leaq	-96(%rbp), %rdi
	leaq	-72(%rbp), %rsi
	callq	__ZN5alloc11collections5btree4node25Handle$LT$Node$C$Type$GT$9into_node17h44abbf8fd574716eE
	leaq	-120(%rbp), %rdi
	leaq	-96(%rbp), %rsi
	callq	__ZN5alloc11collections5btree4node40NodeRef$LT$BorrowType$C$K$C$V$C$Type$GT$11forget_type17h938f4acec861e17dE
	.loc	6 1457 25 is_stmt 0
	movq	-120(%rbp), %rax
	movq	%rax, -320(%rbp)
	movq	-112(%rbp), %rax
	movq	%rax, -312(%rbp)
	movq	-104(%rbp), %rax
	movq	%rax, -304(%rbp)
Ltmp47:
	.loc	6 1456 21 is_stmt 1
	jmp	LBB12_11
Ltmp48:
Lfunc_end12:
	.cfi_endproc

	.p2align	4, 0x90
__ZN3std10sys_common12os_str_bytes3Buf8as_slice17h0e81905c3ce2c637E:
Lfunc_begin13:
	.file	10 "/rustc/6c8927b0cf80ceee19386026cf9d7fd4fd9d486f/src/libstd/sys_common/os_str_bytes.rs"
	.loc	10 108 0
	.cfi_startproc
	pushq	%rbp
	.cfi_def_cfa_offset 16
	.cfi_offset %rbp, -16
	movq	%rsp, %rbp
	.cfi_def_cfa_register %rbp
	subq	$64, %rsp
	movq	%rdi, -24(%rbp)
Ltmp49:
	.loc	10 112 34 prologue_end
	callq	__ZN68_$LT$alloc..vec..Vec$LT$T$GT$$u20$as$u20$core..ops..deref..Deref$GT$5deref17hde2c21656c68edc2E
	movq	%rax, -32(%rbp)
	movq	%rdx, -40(%rbp)
	.loc	10 0 34 is_stmt 0
	movq	-32(%rbp), %rax
	.loc	10 112 18
	movq	%rax, -16(%rbp)
	movq	-40(%rbp), %rcx
	movq	%rcx, -8(%rbp)
	movq	-16(%rbp), %rax
	movq	-8(%rbp), %rdx
	movq	%rax, -48(%rbp)
	movq	%rdx, -56(%rbp)
	.loc	10 0 18
	movq	-48(%rbp), %rax
	movq	-56(%rbp), %rdx
	.loc	10 113 6 is_stmt 1
	addq	$64, %rsp
	popq	%rbp
	retq
Ltmp50:
Lfunc_end13:
	.cfi_endproc

	.p2align	4, 0x90
__ZN3std10sys_common12os_str_bytes5Slice13from_u8_slice17hd1976d93e2c80af4E:
Lfunc_begin14:
	.loc	10 155 0
	.cfi_startproc
	pushq	%rbp
	.cfi_def_cfa_offset 16
	.cfi_offset %rbp, -16
	movq	%rsp, %rbp
	.cfi_def_cfa_register %rbp
	subq	$48, %rsp
	movq	%rdi, -32(%rbp)
	movq	%rsi, -24(%rbp)
Ltmp51:
	.loc	10 156 18 prologue_end
	movq	%rdi, -16(%rbp)
	movq	%rsi, -8(%rbp)
	movq	-16(%rbp), %rax
	movq	-8(%rbp), %rdx
	movq	%rax, -40(%rbp)
	movq	%rdx, -48(%rbp)
	.loc	10 0 18 is_stmt 0
	movq	-40(%rbp), %rax
	movq	-48(%rbp), %rdx
	.loc	10 157 6 is_stmt 1
	addq	$48, %rsp
	popq	%rbp
	retq
Ltmp52:
Lfunc_end14:
	.cfi_endproc

	.p2align	4, 0x90
__ZN3std10sys_common12os_str_bytes5Slice8from_str17h73e2d6b94e1beea8E:
Lfunc_begin15:
	.loc	10 160 0
	.cfi_startproc
	pushq	%rbp
	.cfi_def_cfa_offset 16
	.cfi_offset %rbp, -16
	movq	%rsp, %rbp
	.cfi_def_cfa_register %rbp
	subq	$80, %rsp
	movq	%rdi, -48(%rbp)
	movq	%rsi, -40(%rbp)
	movq	%rdi, -16(%rbp)
	movq	%rsi, -8(%rbp)
Ltmp53:
	.file	11 "/rustc/6c8927b0cf80ceee19386026cf9d7fd4fd9d486f/src/libcore/str/mod.rs"
	.loc	11 2359 18 prologue_end
	movq	%rdi, -32(%rbp)
	movq	%rsi, -24(%rbp)
	movq	-32(%rbp), %rdi
	movq	-24(%rbp), %rsi
	movq	%rdi, -56(%rbp)
	movq	%rsi, -64(%rbp)
Ltmp54:
	.loc	11 0 18 is_stmt 0
	movq	-56(%rbp), %rdi
	movq	-64(%rbp), %rsi
	.loc	10 161 9 is_stmt 1
	callq	__ZN3std10sys_common12os_str_bytes5Slice13from_u8_slice17hd1976d93e2c80af4E
	movq	%rax, -72(%rbp)
	movq	%rdx, -80(%rbp)
	.loc	10 0 9 is_stmt 0
	movq	-72(%rbp), %rax
	movq	-80(%rbp), %rdx
	.loc	10 162 6 is_stmt 1
	addq	$80, %rsp
	popq	%rbp
	retq
Ltmp55:
Lfunc_end15:
	.cfi_endproc

	.p2align	4, 0x90
__ZN3std2fs8Metadata17hf21aadaeaa00742aE:
Lfunc_begin16:
	.file	12 "/rustc/6c8927b0cf80ceee19386026cf9d7fd4fd9d486f/src/libstd/fs.rs"
	.loc	12 111 0
	.cfi_startproc
	pushq	%rbp
	.cfi_def_cfa_offset 16
	.cfi_offset %rbp, -16
	movq	%rsp, %rbp
	.cfi_def_cfa_register %rbp
	subq	$16, %rsp
	movq	%rdi, %rax
Ltmp56:
	.loc	12 111 1 prologue_end
	movl	$144, %edx
	movq	%rax, -8(%rbp)
	callq	_memcpy
Ltmp57:
	.loc	12 0 1 is_stmt 0
	movq	-8(%rbp), %rax
	.loc	12 111 1
	addq	$16, %rsp
	popq	%rbp
	retq
Ltmp58:
Lfunc_end16:
	.cfi_endproc

	.globl	__ZN3std2fs8metadata17hc104b376df995496E
	.p2align	4, 0x90
__ZN3std2fs8metadata17hc104b376df995496E:
Lfunc_begin17:
	.loc	12 1628 0 is_stmt 1
	.cfi_startproc
	.cfi_personality 155, _rust_eh_personality
	.cfi_lsda 16, Lexception0
	pushq	%rbp
	.cfi_def_cfa_offset 16
	.cfi_offset %rbp, -16
	movq	%rsp, %rbp
	.cfi_def_cfa_register %rbp
	subq	$208, %rsp
	movq	%rdi, %rax
	movq	%rsi, -176(%rbp)
Ltmp59:
	leaq	-176(%rbp), %rcx
	movq	%rdi, -184(%rbp)
Ltmp66:
	.loc	12 1629 18 prologue_end
	movq	%rcx, %rdi
	movq	%rax, -192(%rbp)
	callq	__ZN55_$LT$$RF$T$u20$as$u20$core..convert..AsRef$LT$U$GT$$GT$6as_ref17h561b52c36f41b86eE
Ltmp60:
	movq	%rdx, -200(%rbp)
	movq	%rax, -208(%rbp)
	jmp	LBB17_2
LBB17_1:
	.loc	12 1628 1
	movq	-16(%rbp), %rdi
	callq	__Unwind_Resume
	ud2
LBB17_2:
Ltmp61:
	.loc	12 0 1 is_stmt 0
	leaq	-168(%rbp), %rdi
	movq	-208(%rbp), %rsi
	movq	-200(%rbp), %rdx
	.loc	12 1629 5 is_stmt 1
	callq	__ZN3std3sys4unix2fs4stat17hfe531d9a8f5ece5bE
Ltmp62:
	jmp	LBB17_4
LBB17_3:
	.loc	12 1630 1
	jmp	LBB17_1
LBB17_4:
Ltmp63:
	.loc	12 0 1 is_stmt 0
	leaq	-168(%rbp), %rsi
	movq	-184(%rbp), %rdi
	.loc	12 1629 5 is_stmt 1
	callq	__ZN4core6result19Result$LT$T$C$E$GT$3map17hc129be8d07492192E
Ltmp64:
	jmp	LBB17_5
LBB17_5:
	.loc	12 1630 1
	jmp	LBB17_6
LBB17_6:
	.loc	12 0 1 is_stmt 0
	movq	-192(%rbp), %rax
	.loc	12 1630 2
	addq	$208, %rsp
	popq	%rbp
	retq
Ltmp67:
LBB17_7:
Ltmp65:
	.loc	12 0 2
	movq	%rax, -16(%rbp)
	movl	%edx, -8(%rbp)
	jmp	LBB17_3
Lfunc_end17:
	.cfi_endproc
	.section	__TEXT,__gcc_except_tab
	.p2align	2
GCC_except_table17:
Lexception0:
	.byte	255
	.byte	255
	.byte	1
	.uleb128 Lcst_end0-Lcst_begin0
Lcst_begin0:
	.uleb128 Ltmp59-Lfunc_begin17
	.uleb128 Ltmp60-Ltmp59
	.uleb128 Ltmp65-Lfunc_begin17
	.byte	0
	.uleb128 Ltmp60-Lfunc_begin17
	.uleb128 Ltmp61-Ltmp60
	.byte	0
	.byte	0
	.uleb128 Ltmp61-Lfunc_begin17
	.uleb128 Ltmp64-Ltmp61
	.uleb128 Ltmp65-Lfunc_begin17
	.byte	0
Lcst_end0:
	.p2align	2

	.section	__TEXT,__text,regular,pure_instructions
	.globl	__ZN3std2io5Write9write_all17h3539182e97fa33deE
	.p2align	4, 0x90
__ZN3std2io5Write9write_all17h3539182e97fa33deE:
Lfunc_begin18:
	.file	13 "/rustc/6c8927b0cf80ceee19386026cf9d7fd4fd9d486f/src/libstd/io/mod.rs"
	.loc	13 1374 0 is_stmt 1
	.cfi_startproc
	.cfi_personality 155, _rust_eh_personality
	.cfi_lsda 16, Lexception1
	pushq	%rbp
	.cfi_def_cfa_offset 16
	.cfi_offset %rbp, -16
	movq	%rsp, %rbp
	.cfi_def_cfa_register %rbp
	subq	$224, %rsp
	movq	%rdi, %rax
	movq	%rdx, -160(%rbp)
	movq	%rcx, -152(%rbp)
	movq	%rsi, -40(%rbp)
Ltmp77:
	.loc	13 1375 9 prologue_end
	movb	$0, -41(%rbp)
	movq	%rsi, -168(%rbp)
	movq	%rdi, -176(%rbp)
	movq	%rax, -184(%rbp)
LBB18_1:
	.loc	13 1375 16 is_stmt 0
	movq	-160(%rbp), %rdi
	movq	-152(%rbp), %rsi
	callq	__ZN4core5slice29_$LT$impl$u20$$u5b$T$u5d$$GT$8is_empty17h5b8648f0c22cc062E
	movb	%al, -185(%rbp)
	jmp	LBB18_3
LBB18_2:
	.loc	13 1374 5 is_stmt 1
	movq	-24(%rbp), %rdi
	callq	__Unwind_Resume
	ud2
LBB18_3:
	.loc	13 0 5 is_stmt 0
	movb	-185(%rbp), %al
	.loc	13 1375 15 is_stmt 1
	xorb	$-1, %al
	.loc	13 1375 9 is_stmt 0
	testb	$1, %al
	jne	LBB18_5
	.loc	13 0 9
	movq	-176(%rbp), %rax
	.loc	13 1385 9 is_stmt 1
	movb	$3, (%rax)
	.loc	13 1386 6
	jmp	LBB18_10
LBB18_5:
	.loc	13 1376 30
	movq	-160(%rbp), %rdx
	movq	-152(%rbp), %rcx
	.loc	13 1376 19 is_stmt 0
	movb	$1, -41(%rbp)
	leaq	-144(%rbp), %rdi
	movq	-168(%rbp), %rsi
	callq	__ZN59_$LT$std..process..ChildStdin$u20$as$u20$std..io..Write$GT$5write17hcaa25870728ab701E
	.loc	13 1377 17 is_stmt 1
	movq	-144(%rbp), %rax
	testq	%rax, %rax
	je	LBB18_7
	jmp	LBB18_28
LBB18_28:
	jmp	LBB18_15
LBB18_7:
	.loc	13 1377 20 is_stmt 0
	cmpq	$0, -136(%rbp)
	je	LBB18_9
	jmp	LBB18_13
	.loc	13 1376 19 is_stmt 1
	ud2
LBB18_9:
Ltmp74:
	.loc	13 1378 32
	leaq	l___unnamed_22(%rip), %rdx
	leaq	-120(%rbp), %rdi
	movl	$14, %esi
	movl	$28, %ecx
	callq	__ZN3std2io5error5Error3new17he45b941db682a860E
Ltmp75:
	jmp	LBB18_11
LBB18_10:
	.loc	13 0 32 is_stmt 0
	movq	-184(%rbp), %rax
	.loc	13 1386 6 is_stmt 1
	addq	$224, %rsp
	popq	%rbp
	retq
LBB18_11:
	.loc	13 1378 28
	movq	-120(%rbp), %rax
	movq	-176(%rbp), %rcx
	movq	%rax, (%rcx)
	movq	-112(%rbp), %rax
	movq	%rax, 8(%rcx)
LBB18_12:
	.loc	13 1384 9
	movb	$0, -41(%rbp)
	.loc	13 1378 21
	jmp	LBB18_10
LBB18_13:
	.loc	13 1380 20
	movq	-136(%rbp), %rax
	movq	%rax, -8(%rbp)
Ltmp78:
	.loc	13 1380 33 is_stmt 0
	movq	-160(%rbp), %rdi
	movq	-152(%rbp), %rsi
	.loc	13 1380 37
	movq	%rax, -104(%rbp)
	.loc	13 1380 33
	movq	-104(%rbp), %rdx
Ltmp72:
	leaq	l___unnamed_23(%rip), %rcx
	callq	__ZN4core5slice74_$LT$impl$u20$core..ops..index..Index$LT$I$GT$$u20$for$u20$$u5b$T$u5d$$GT$5index17h437b20cc130077a9E
Ltmp73:
	movq	%rdx, -200(%rbp)
	movq	%rax, -208(%rbp)
	jmp	LBB18_14
LBB18_14:
	.loc	13 0 33
	movq	-208(%rbp), %rax
	.loc	13 1380 26
	movq	%rax, -160(%rbp)
	movq	-200(%rbp), %rax
	movq	%rax, -152(%rbp)
Ltmp79:
	.loc	13 1376 13 is_stmt 1
	jmp	LBB18_26
LBB18_15:
	.loc	13 1381 21
	leaq	-136(%rbp), %rax
	movq	%rax, -96(%rbp)
	leaq	-96(%rbp), %rax
	movq	%rax, -32(%rbp)
	.loc	13 1381 31 is_stmt 0
	movq	-96(%rbp), %rdi
Ltmp68:
	callq	__ZN3std2io5error5Error4kind17hd9a6c08a173f0df0E
Ltmp69:
	movb	%al, -209(%rbp)
	jmp	LBB18_16
LBB18_16:
	.loc	13 0 31
	movb	-209(%rbp), %al
	.loc	13 1381 31
	movb	%al, -81(%rbp)
	.loc	13 1381 43
	movq	l___unnamed_24(%rip), %rsi
Ltmp70:
	leaq	-81(%rbp), %rdi
	.loc	13 1381 31
	callq	__ZN66_$LT$std..io..error..ErrorKind$u20$as$u20$core..cmp..PartialEq$GT$2eq17h2514ef2df0dd65b9E
Ltmp71:
	movb	%al, -210(%rbp)
	jmp	LBB18_17
LBB18_17:
	.loc	13 0 31
	movb	-210(%rbp), %al
	.loc	13 1381 31
	testb	$1, %al
	jne	LBB18_18
	jmp	LBB18_19
LBB18_18:
	.loc	13 1376 13 is_stmt 1
	jmp	LBB18_26
LBB18_19:
	.loc	13 1382 21
	movb	$0, -41(%rbp)
	movq	-136(%rbp), %rax
	movq	%rax, -80(%rbp)
	movq	-128(%rbp), %rax
	movq	%rax, -72(%rbp)
Ltmp80:
	.loc	13 1382 38 is_stmt 0
	movq	-80(%rbp), %rax
	movq	%rax, -64(%rbp)
	movq	-72(%rbp), %rax
	movq	%rax, -56(%rbp)
	.loc	13 1382 34
	movq	-64(%rbp), %rax
	movq	-176(%rbp), %rcx
	movq	%rax, (%rcx)
	movq	-56(%rbp), %rax
	movq	%rax, 8(%rcx)
Ltmp81:
	.loc	13 1382 27
	jmp	LBB18_12
LBB18_20:
	.loc	13 1384 9 is_stmt 1
	testb	$1, -41(%rbp)
	je	LBB18_2
	movb	$0, -41(%rbp)
	leaq	-144(%rbp), %rax
	addq	$8, %rax
	movq	%rax, %rdi
	callq	__ZN4core3ptr13drop_in_place17h41b0189370230be4E
	jmp	LBB18_2
LBB18_22:
	cmpq	$1, -144(%rbp)
	je	LBB18_20
	jmp	LBB18_2
LBB18_23:
	movb	$0, -41(%rbp)
	.loc	13 1375 9
	jmp	LBB18_1
LBB18_24:
	.loc	13 1384 9
	testb	$1, -41(%rbp)
	je	LBB18_23
	movb	$0, -41(%rbp)
	leaq	-144(%rbp), %rax
	addq	$8, %rax
	movq	%rax, %rdi
	callq	__ZN4core3ptr13drop_in_place17h41b0189370230be4E
	jmp	LBB18_23
LBB18_26:
	cmpq	$1, -144(%rbp)
	je	LBB18_24
	jmp	LBB18_23
Ltmp82:
LBB18_27:
Ltmp76:
	.loc	13 0 9 is_stmt 0
	movq	%rax, -24(%rbp)
	movl	%edx, -16(%rbp)
	jmp	LBB18_22
Lfunc_end18:
	.cfi_endproc
	.section	__TEXT,__gcc_except_tab
	.p2align	2
GCC_except_table18:
Lexception1:
	.byte	255
	.byte	255
	.byte	1
	.uleb128 Lcst_end1-Lcst_begin1
Lcst_begin1:
	.uleb128 Lfunc_begin18-Lfunc_begin18
	.uleb128 Ltmp74-Lfunc_begin18
	.byte	0
	.byte	0
	.uleb128 Ltmp74-Lfunc_begin18
	.uleb128 Ltmp71-Ltmp74
	.uleb128 Ltmp76-Lfunc_begin18
	.byte	0
	.uleb128 Ltmp71-Lfunc_begin18
	.uleb128 Lfunc_end18-Ltmp71
	.byte	0
	.byte	0
Lcst_end1:
	.p2align	2

	.section	__TEXT,__text,regular,pure_instructions
	.globl	__ZN3std2io5error5Error3new17he45b941db682a860E
	.p2align	4, 0x90
__ZN3std2io5error5Error3new17he45b941db682a860E:
Lfunc_begin19:
	.file	14 "/rustc/6c8927b0cf80ceee19386026cf9d7fd4fd9d486f/src/libstd/io/error.rs"
	.loc	14 252 0 is_stmt 1
	.cfi_startproc
	pushq	%rbp
	.cfi_def_cfa_offset 16
	.cfi_offset %rbp, -16
	movq	%rsp, %rbp
	.cfi_def_cfa_register %rbp
	subq	$64, %rsp
	movq	%rdi, %rax
	movb	%sil, -17(%rbp)
	movq	%rdx, -16(%rbp)
	movq	%rcx, -8(%rbp)
	movq	%rdi, -32(%rbp)
Ltmp83:
	.loc	14 256 26 prologue_end
	movq	%rdx, %rdi
	movb	%sil, -33(%rbp)
	movq	%rcx, %rsi
	movq	%rax, -48(%rbp)
	callq	__ZN50_$LT$T$u20$as$u20$core..convert..Into$LT$U$GT$$GT$4into17hd71d80b648e4741cE
	movq	%rax, -56(%rbp)
	movq	%rdx, -64(%rbp)
	.loc	14 0 26 is_stmt 0
	movq	-32(%rbp), %rdi
	movb	-33(%rbp), %al
	.loc	14 256 9
	movzbl	%al, %esi
	movq	-56(%rbp), %rdx
	movq	-64(%rbp), %rcx
	callq	__ZN3std2io5error5Error4_new17hb256250a216f5df7E
	.loc	14 0 9
	movq	-48(%rbp), %rax
	.loc	14 257 6 is_stmt 1
	addq	$64, %rsp
	popq	%rbp
	retq
Ltmp84:
Lfunc_end19:
	.cfi_endproc

	.globl	__ZN3std3env3var17hf92c59be867bb7c2E
	.p2align	4, 0x90
__ZN3std3env3var17hf92c59be867bb7c2E:
Lfunc_begin20:
	.file	15 "/rustc/6c8927b0cf80ceee19386026cf9d7fd4fd9d486f/src/libstd/env.rs"
	.loc	15 211 0
	.cfi_startproc
	.cfi_personality 155, _rust_eh_personality
	.cfi_lsda 16, Lexception2
	pushq	%rbp
	.cfi_def_cfa_offset 16
	.cfi_offset %rbp, -16
	movq	%rsp, %rbp
	.cfi_def_cfa_register %rbp
	subq	$64, %rsp
	movq	%rdi, %rax
	movq	%rsi, -32(%rbp)
	movq	%rdx, -24(%rbp)
Ltmp85:
	leaq	-32(%rbp), %rcx
	movq	%rdi, -40(%rbp)
Ltmp90:
	.loc	15 212 10 prologue_end
	movq	%rcx, %rdi
	movq	%rax, -48(%rbp)
	callq	__ZN55_$LT$$RF$T$u20$as$u20$core..convert..AsRef$LT$U$GT$$GT$6as_ref17h8f4aa11dec015739E
Ltmp86:
	movq	%rdx, -56(%rbp)
	movq	%rax, -64(%rbp)
	jmp	LBB20_2
LBB20_1:
	.loc	15 211 1
	movq	-16(%rbp), %rdi
	callq	__Unwind_Resume
	ud2
LBB20_2:
Ltmp87:
	.loc	15 0 1 is_stmt 0
	movq	-40(%rbp), %rdi
	movq	-64(%rbp), %rsi
	movq	-56(%rbp), %rdx
	.loc	15 212 5 is_stmt 1
	callq	__ZN3std3env4_var17h5f49b4c5e0582abcE
Ltmp88:
	jmp	LBB20_4
LBB20_3:
	.loc	15 213 1
	jmp	LBB20_1
LBB20_4:
	jmp	LBB20_5
LBB20_5:
	.loc	15 0 1 is_stmt 0
	movq	-48(%rbp), %rax
	.loc	15 213 2
	addq	$64, %rsp
	popq	%rbp
	retq
Ltmp91:
LBB20_6:
Ltmp89:
	.loc	15 0 2
	movq	%rax, -16(%rbp)
	movl	%edx, -8(%rbp)
	jmp	LBB20_3
Lfunc_end20:
	.cfi_endproc
	.section	__TEXT,__gcc_except_tab
	.p2align	2
GCC_except_table20:
Lexception2:
	.byte	255
	.byte	255
	.byte	1
	.uleb128 Lcst_end2-Lcst_begin2
Lcst_begin2:
	.uleb128 Ltmp85-Lfunc_begin20
	.uleb128 Ltmp86-Ltmp85
	.uleb128 Ltmp89-Lfunc_begin20
	.byte	0
	.uleb128 Ltmp86-Lfunc_begin20
	.uleb128 Ltmp87-Ltmp86
	.byte	0
	.byte	0
	.uleb128 Ltmp87-Lfunc_begin20
	.uleb128 Ltmp88-Ltmp87
	.uleb128 Ltmp89-Lfunc_begin20
	.byte	0
Lcst_end2:
	.p2align	2

	.section	__TEXT,__text,regular,pure_instructions
	.globl	__ZN3std3env6var_os17h6c1e602a88b83048E
	.p2align	4, 0x90
__ZN3std3env6var_os17h6c1e602a88b83048E:
Lfunc_begin21:
	.loc	15 245 0 is_stmt 1
	.cfi_startproc
	.cfi_personality 155, _rust_eh_personality
	.cfi_lsda 16, Lexception3
	pushq	%rbp
	.cfi_def_cfa_offset 16
	.cfi_offset %rbp, -16
	movq	%rsp, %rbp
	.cfi_def_cfa_register %rbp
	subq	$64, %rsp
	movq	%rdi, %rax
	movq	%rsi, -32(%rbp)
	movq	%rdx, -24(%rbp)
Ltmp92:
	leaq	-32(%rbp), %rcx
	movq	%rdi, -40(%rbp)
Ltmp97:
	.loc	15 246 13 prologue_end
	movq	%rcx, %rdi
	movq	%rax, -48(%rbp)
	callq	__ZN55_$LT$$RF$T$u20$as$u20$core..convert..AsRef$LT$U$GT$$GT$6as_ref17h8f4aa11dec015739E
Ltmp93:
	movq	%rdx, -56(%rbp)
	movq	%rax, -64(%rbp)
	jmp	LBB21_2
LBB21_1:
	.loc	15 245 1
	movq	-16(%rbp), %rdi
	callq	__Unwind_Resume
	ud2
LBB21_2:
Ltmp94:
	.loc	15 0 1 is_stmt 0
	movq	-40(%rbp), %rdi
	movq	-64(%rbp), %rsi
	movq	-56(%rbp), %rdx
	.loc	15 246 5 is_stmt 1
	callq	__ZN3std3env7_var_os17hc628b18a701aa4a3E
Ltmp95:
	jmp	LBB21_4
LBB21_3:
	.loc	15 247 1
	jmp	LBB21_1
LBB21_4:
	jmp	LBB21_5
LBB21_5:
	.loc	15 0 1 is_stmt 0
	movq	-48(%rbp), %rax
	.loc	15 247 2
	addq	$64, %rsp
	popq	%rbp
	retq
Ltmp98:
LBB21_6:
Ltmp96:
	.loc	15 0 2
	movq	%rax, -16(%rbp)
	movl	%edx, -8(%rbp)
	jmp	LBB21_3
Lfunc_end21:
	.cfi_endproc
	.section	__TEXT,__gcc_except_tab
	.p2align	2
GCC_except_table21:
Lexception3:
	.byte	255
	.byte	255
	.byte	1
	.uleb128 Lcst_end3-Lcst_begin3
Lcst_begin3:
	.uleb128 Ltmp92-Lfunc_begin21
	.uleb128 Ltmp93-Ltmp92
	.uleb128 Ltmp96-Lfunc_begin21
	.byte	0
	.uleb128 Ltmp93-Lfunc_begin21
	.uleb128 Ltmp94-Ltmp93
	.byte	0
	.byte	0
	.uleb128 Ltmp94-Lfunc_begin21
	.uleb128 Ltmp95-Ltmp94
	.uleb128 Ltmp96-Lfunc_begin21
	.byte	0
Lcst_end3:
	.p2align	2

	.section	__TEXT,__text,regular,pure_instructions
	.p2align	4, 0x90
__ZN3std3ffi6os_str103_$LT$impl$u20$core..convert..AsRef$LT$std..ffi..os_str..OsStr$GT$$u20$for$u20$alloc..string..String$GT$6as_ref17h50085ef9179b2152E:
Lfunc_begin22:
	.loc	4 1165 0 is_stmt 1
	.cfi_startproc
	pushq	%rbp
	.cfi_def_cfa_offset 16
	.cfi_offset %rbp, -16
	movq	%rsp, %rbp
	.cfi_def_cfa_register %rbp
	subq	$48, %rsp
	movq	%rdi, -8(%rbp)
Ltmp99:
	.loc	4 1166 11 prologue_end
	callq	__ZN65_$LT$alloc..string..String$u20$as$u20$core..ops..deref..Deref$GT$5deref17hecb7e7ecad487c0eE
	movq	%rax, -16(%rbp)
	movq	%rdx, -24(%rbp)
	.loc	4 0 11 is_stmt 0
	movq	-16(%rbp), %rdi
	movq	-24(%rbp), %rsi
	.loc	4 1166 9
	callq	__ZN3std3ffi6os_str85_$LT$impl$u20$core..convert..AsRef$LT$std..ffi..os_str..OsStr$GT$$u20$for$u20$str$GT$6as_ref17h01a341a709f866c9E
	movq	%rax, -32(%rbp)
	movq	%rdx, -40(%rbp)
	.loc	4 0 9
	movq	-32(%rbp), %rax
	movq	-40(%rbp), %rdx
	.loc	4 1167 6 is_stmt 1
	addq	$48, %rsp
	popq	%rbp
	retq
Ltmp100:
Lfunc_end22:
	.cfi_endproc

	.p2align	4, 0x90
__ZN3std3ffi6os_str5OsStr10from_inner17heb9bc5784a8c9fd9E:
Lfunc_begin23:
	.loc	4 528 0
	.cfi_startproc
	pushq	%rbp
	.cfi_def_cfa_offset 16
	.cfi_offset %rbp, -16
	movq	%rsp, %rbp
	.cfi_def_cfa_register %rbp
	subq	$16, %rsp
	movq	%rdi, -16(%rbp)
	movq	%rsi, -8(%rbp)
Ltmp101:
	.loc	4 532 6 prologue_end
	movq	%rdi, %rax
	movq	%rsi, %rdx
	addq	$16, %rsp
	popq	%rbp
	retq
Ltmp102:
Lfunc_end23:
	.cfi_endproc

	.p2align	4, 0x90
__ZN3std3ffi6os_str85_$LT$impl$u20$core..convert..AsRef$LT$std..ffi..os_str..OsStr$GT$$u20$for$u20$str$GT$6as_ref17h01a341a709f866c9E:
Lfunc_begin24:
	.loc	4 1157 0
	.cfi_startproc
	pushq	%rbp
	.cfi_def_cfa_offset 16
	.cfi_offset %rbp, -16
	movq	%rsp, %rbp
	.cfi_def_cfa_register %rbp
	subq	$48, %rsp
	movq	%rdi, -16(%rbp)
	movq	%rsi, -8(%rbp)
Ltmp103:
	.loc	4 1158 27 prologue_end
	callq	__ZN3std10sys_common12os_str_bytes5Slice8from_str17h73e2d6b94e1beea8E
	movq	%rax, -24(%rbp)
	movq	%rdx, -32(%rbp)
	.loc	4 0 27 is_stmt 0
	movq	-24(%rbp), %rdi
	movq	-32(%rbp), %rsi
	.loc	4 1158 9
	callq	__ZN3std3ffi6os_str5OsStr10from_inner17heb9bc5784a8c9fd9E
	movq	%rax, -40(%rbp)
	movq	%rdx, -48(%rbp)
	.loc	4 0 9
	movq	-40(%rbp), %rax
	movq	-48(%rbp), %rdx
	.loc	4 1159 6 is_stmt 1
	addq	$48, %rsp
	popq	%rbp
	retq
Ltmp104:
Lfunc_end24:
	.cfi_endproc

	.globl	__ZN3std4path4Path3new17hf8384ba122ddab46E
	.p2align	4, 0x90
__ZN3std4path4Path3new17hf8384ba122ddab46E:
Lfunc_begin25:
	.file	16 "/rustc/6c8927b0cf80ceee19386026cf9d7fd4fd9d486f/src/libstd/path.rs"
	.loc	16 1788 0
	.cfi_startproc
	pushq	%rbp
	.cfi_def_cfa_offset 16
	.cfi_offset %rbp, -16
	movq	%rsp, %rbp
	.cfi_def_cfa_register %rbp
	subq	$32, %rsp
	movq	%rdi, -8(%rbp)
Ltmp105:
	.loc	16 1789 21 prologue_end
	callq	__ZN98_$LT$std..ffi..os_str..OsString$u20$as$u20$core..convert..AsRef$LT$std..ffi..os_str..OsStr$GT$$GT$6as_ref17hf5afe2b258e36110E
	movq	%rax, -16(%rbp)
	movq	%rdx, -24(%rbp)
	.loc	16 0 21 is_stmt 0
	movq	-16(%rbp), %rax
	movq	-24(%rbp), %rdx
	.loc	16 1790 6 is_stmt 1
	addq	$32, %rsp
	popq	%rbp
	retq
Ltmp106:
Lfunc_end25:
	.cfi_endproc

	.p2align	4, 0x90
__ZN3std5error161_$LT$impl$u20$core..convert..From$LT$$RF$str$GT$$u20$for$u20$alloc..boxed..Box$LT$dyn$u20$std..error..Error$u2b$core..marker..Sync$u2b$core..marker..Send$GT$$GT$4from17h3ab5a0dd884cc7d4E:
Lfunc_begin26:
	.file	17 "/rustc/6c8927b0cf80ceee19386026cf9d7fd4fd9d486f/src/libstd/error.rs"
	.loc	17 323 0
	.cfi_startproc
	pushq	%rbp
	.cfi_def_cfa_offset 16
	.cfi_offset %rbp, -16
	movq	%rsp, %rbp
	.cfi_def_cfa_register %rbp
	subq	$80, %rsp
	movq	%rdi, -16(%rbp)
	movq	%rsi, -8(%rbp)
Ltmp107:
	.loc	17 324 20 prologue_end
	leaq	-40(%rbp), %rax
	movq	%rdi, -48(%rbp)
	movq	%rax, %rdi
	movq	-48(%rbp), %rax
	movq	%rsi, -56(%rbp)
	movq	%rax, %rsi
	movq	-56(%rbp), %rdx
	callq	__ZN76_$LT$alloc..string..String$u20$as$u20$core..convert..From$LT$$RF$str$GT$$GT$4from17hdc5551be0bbbc6caE
	.loc	17 324 9 is_stmt 0
	leaq	-40(%rbp), %rdi
	callq	__ZN3std5error175_$LT$impl$u20$core..convert..From$LT$alloc..string..String$GT$$u20$for$u20$alloc..boxed..Box$LT$dyn$u20$std..error..Error$u2b$core..marker..Sync$u2b$core..marker..Send$GT$$GT$4from17h50f14ab30d47b7b2E
	movq	%rax, -64(%rbp)
	movq	%rdx, -72(%rbp)
	.loc	17 0 9
	movq	-64(%rbp), %rax
	movq	-72(%rbp), %rdx
	.loc	17 325 6 is_stmt 1
	addq	$80, %rsp
	popq	%rbp
	retq
Ltmp108:
Lfunc_end26:
	.cfi_endproc

	.p2align	4, 0x90
__ZN3std5error175_$LT$impl$u20$core..convert..From$LT$alloc..string..String$GT$$u20$for$u20$alloc..boxed..Box$LT$dyn$u20$std..error..Error$u2b$core..marker..Sync$u2b$core..marker..Send$GT$$GT$4from17h50f14ab30d47b7b2E:
Lfunc_begin27:
	.loc	17 255 0
	.cfi_startproc
	pushq	%rbp
	.cfi_def_cfa_offset 16
	.cfi_offset %rbp, -16
	movq	%rsp, %rbp
	.cfi_def_cfa_register %rbp
	subq	$64, %rsp
Ltmp109:
	.loc	17 278 30 prologue_end
	movq	(%rdi), %rax
	movq	%rax, -24(%rbp)
	movq	8(%rdi), %rax
	movq	%rax, -16(%rbp)
	movq	16(%rdi), %rax
	movq	%rax, -8(%rbp)
	.loc	17 278 18 is_stmt 0
	movq	-24(%rbp), %rax
	movq	%rax, -48(%rbp)
	movq	-16(%rbp), %rax
	movq	%rax, -40(%rbp)
	movq	-8(%rbp), %rax
	movq	%rax, -32(%rbp)
Ltmp110:
	.file	18 "/rustc/6c8927b0cf80ceee19386026cf9d7fd4fd9d486f/src/liballoc/boxed.rs"
	.loc	18 176 9 is_stmt 1
	movl	$24, %edi
Ltmp111:
	movl	$8, %esi
	callq	__ZN5alloc5alloc15exchange_malloc17hc9309acee98ebfe4E
	movq	%rax, %rcx
	.loc	18 176 13 is_stmt 0
	movq	-48(%rbp), %rdx
	movq	%rdx, (%rax)
	movq	-40(%rbp), %rdx
	movq	%rdx, 8(%rax)
	movq	-32(%rbp), %rdx
	movq	%rdx, 16(%rax)
	movq	%rcx, -56(%rbp)
Ltmp112:
	.loc	17 279 6 is_stmt 1
	leaq	l___unnamed_1(%rip), %rdx
	movq	-56(%rbp), %rax
	addq	$64, %rsp
	popq	%rbp
	retq
Ltmp113:
Lfunc_end27:
	.cfi_endproc

	.globl	__ZN3std5error5Error5cause17h046b13c944aab577E
	.p2align	4, 0x90
__ZN3std5error5Error5cause17h046b13c944aab577E:
Lfunc_begin28:
	.loc	17 150 0
	.cfi_startproc
	pushq	%rbp
	.cfi_def_cfa_offset 16
	.cfi_offset %rbp, -16
	movq	%rsp, %rbp
	.cfi_def_cfa_register %rbp
	subq	$32, %rsp
	movq	%rdi, -8(%rbp)
Ltmp114:
	.loc	17 151 9 prologue_end
	callq	__ZN3std5error5Error6source17he33ac1eb2fc4ced0E
	movq	%rax, -16(%rbp)
	movq	%rdx, -24(%rbp)
	.loc	17 0 9 is_stmt 0
	movq	-16(%rbp), %rax
	movq	-24(%rbp), %rdx
	.loc	17 152 6 is_stmt 1
	addq	$32, %rsp
	popq	%rbp
	retq
Ltmp115:
Lfunc_end28:
	.cfi_endproc

	.globl	__ZN3std5error5Error5cause17h44734d8760b18ef9E
	.p2align	4, 0x90
__ZN3std5error5Error5cause17h44734d8760b18ef9E:
Lfunc_begin29:
	.loc	17 150 0
	.cfi_startproc
	pushq	%rbp
	.cfi_def_cfa_offset 16
	.cfi_offset %rbp, -16
	movq	%rsp, %rbp
	.cfi_def_cfa_register %rbp
	subq	$32, %rsp
	movq	%rdi, -8(%rbp)
Ltmp116:
	.loc	17 151 9 prologue_end
	callq	__ZN3std5error5Error6source17hdbefaa1b1a12c217E
	movq	%rax, -16(%rbp)
	movq	%rdx, -24(%rbp)
	.loc	17 0 9 is_stmt 0
	movq	-16(%rbp), %rax
	movq	-24(%rbp), %rdx
	.loc	17 152 6 is_stmt 1
	addq	$32, %rsp
	popq	%rbp
	retq
Ltmp117:
Lfunc_end29:
	.cfi_endproc

	.globl	__ZN3std5error5Error5cause17h45f524a15995a7efE
	.p2align	4, 0x90
__ZN3std5error5Error5cause17h45f524a15995a7efE:
Lfunc_begin30:
	.loc	17 150 0
	.cfi_startproc
	pushq	%rbp
	.cfi_def_cfa_offset 16
	.cfi_offset %rbp, -16
	movq	%rsp, %rbp
	.cfi_def_cfa_register %rbp
	subq	$32, %rsp
	movq	%rdi, -8(%rbp)
Ltmp118:
	.loc	17 151 9 prologue_end
	callq	__ZN3std5error5Error6source17h9ec1449dc1bcf0ebE
	movq	%rax, -16(%rbp)
	movq	%rdx, -24(%rbp)
	.loc	17 0 9 is_stmt 0
	movq	-16(%rbp), %rax
	movq	-24(%rbp), %rdx
	.loc	17 152 6 is_stmt 1
	addq	$32, %rsp
	popq	%rbp
	retq
Ltmp119:
Lfunc_end30:
	.cfi_endproc

	.globl	__ZN3std5error5Error6source17h9ec1449dc1bcf0ebE
	.p2align	4, 0x90
__ZN3std5error5Error6source17h9ec1449dc1bcf0ebE:
Lfunc_begin31:
	.loc	17 100 0
	.cfi_startproc
	pushq	%rbp
	.cfi_def_cfa_offset 16
	.cfi_offset %rbp, -16
	movq	%rsp, %rbp
	.cfi_def_cfa_register %rbp
	subq	$24, %rsp
	movq	%rdi, -8(%rbp)
Ltmp120:
	.loc	17 101 9 prologue_end
	movq	$0, -24(%rbp)
	.loc	17 102 6
	movq	-24(%rbp), %rax
	movq	-16(%rbp), %rdx
	addq	$24, %rsp
	popq	%rbp
	retq
Ltmp121:
Lfunc_end31:
	.cfi_endproc

	.globl	__ZN3std5error5Error6source17hdbefaa1b1a12c217E
	.p2align	4, 0x90
__ZN3std5error5Error6source17hdbefaa1b1a12c217E:
Lfunc_begin32:
	.loc	17 100 0
	.cfi_startproc
	pushq	%rbp
	.cfi_def_cfa_offset 16
	.cfi_offset %rbp, -16
	movq	%rsp, %rbp
	.cfi_def_cfa_register %rbp
	subq	$24, %rsp
	movq	%rdi, -8(%rbp)
Ltmp122:
	.loc	17 101 9 prologue_end
	movq	$0, -24(%rbp)
	.loc	17 102 6
	movq	-24(%rbp), %rax
	movq	-16(%rbp), %rdx
	addq	$24, %rsp
	popq	%rbp
	retq
Ltmp123:
Lfunc_end32:
	.cfi_endproc

	.globl	__ZN3std5error5Error6source17he33ac1eb2fc4ced0E
	.p2align	4, 0x90
__ZN3std5error5Error6source17he33ac1eb2fc4ced0E:
Lfunc_begin33:
	.loc	17 100 0
	.cfi_startproc
	pushq	%rbp
	.cfi_def_cfa_offset 16
	.cfi_offset %rbp, -16
	movq	%rsp, %rbp
	.cfi_def_cfa_register %rbp
	subq	$24, %rsp
	movq	%rdi, -8(%rbp)
Ltmp124:
	.loc	17 101 9 prologue_end
	movq	$0, -24(%rbp)
	.loc	17 102 6
	movq	-24(%rbp), %rax
	movq	-16(%rbp), %rdx
	addq	$24, %rsp
	popq	%rbp
	retq
Ltmp125:
Lfunc_end33:
	.cfi_endproc

	.globl	__ZN3std5error5Error7type_id17h31e2285cbafa481bE
	.p2align	4, 0x90
__ZN3std5error5Error7type_id17h31e2285cbafa481bE:
Lfunc_begin34:
	.loc	17 111 0
	.cfi_startproc
	pushq	%rbp
	.cfi_def_cfa_offset 16
	.cfi_offset %rbp, -16
	movq	%rsp, %rbp
	.cfi_def_cfa_register %rbp
	subq	$32, %rsp
	movq	%rdi, -16(%rbp)
Ltmp126:
	.loc	17 115 9 prologue_end
	callq	__ZN4core3any6TypeId2of17h9ccc2c982bb86d6eE
	movq	%rax, -24(%rbp)
	.loc	17 0 9 is_stmt 0
	movq	-24(%rbp), %rax
	.loc	17 116 6 is_stmt 1
	addq	$32, %rsp
	popq	%rbp
	retq
Ltmp127:
Lfunc_end34:
	.cfi_endproc

	.globl	__ZN3std5error5Error7type_id17h557925ac63e4f993E
	.p2align	4, 0x90
__ZN3std5error5Error7type_id17h557925ac63e4f993E:
Lfunc_begin35:
	.loc	17 111 0
	.cfi_startproc
	pushq	%rbp
	.cfi_def_cfa_offset 16
	.cfi_offset %rbp, -16
	movq	%rsp, %rbp
	.cfi_def_cfa_register %rbp
	subq	$32, %rsp
	movq	%rdi, -16(%rbp)
Ltmp128:
	.loc	17 115 9 prologue_end
	callq	__ZN4core3any6TypeId2of17h615f9ea6839579c9E
	movq	%rax, -24(%rbp)
	.loc	17 0 9 is_stmt 0
	movq	-24(%rbp), %rax
	.loc	17 116 6 is_stmt 1
	addq	$32, %rsp
	popq	%rbp
	retq
Ltmp129:
Lfunc_end35:
	.cfi_endproc

	.globl	__ZN3std5error5Error7type_id17h854eee6948c0b414E
	.p2align	4, 0x90
__ZN3std5error5Error7type_id17h854eee6948c0b414E:
Lfunc_begin36:
	.loc	17 111 0
	.cfi_startproc
	pushq	%rbp
	.cfi_def_cfa_offset 16
	.cfi_offset %rbp, -16
	movq	%rsp, %rbp
	.cfi_def_cfa_register %rbp
	subq	$32, %rsp
	movq	%rdi, -16(%rbp)
Ltmp130:
	.loc	17 115 9 prologue_end
	callq	__ZN4core3any6TypeId2of17h24fcd768b463d6eeE
	movq	%rax, -24(%rbp)
	.loc	17 0 9 is_stmt 0
	movq	-24(%rbp), %rax
	.loc	17 116 6 is_stmt 1
	addq	$32, %rsp
	popq	%rbp
	retq
Ltmp131:
Lfunc_end36:
	.cfi_endproc

	.globl	__ZN3std5error5Error7type_id17hef2bc24ba6779f79E
	.p2align	4, 0x90
__ZN3std5error5Error7type_id17hef2bc24ba6779f79E:
Lfunc_begin37:
	.loc	17 111 0
	.cfi_startproc
	pushq	%rbp
	.cfi_def_cfa_offset 16
	.cfi_offset %rbp, -16
	movq	%rsp, %rbp
	.cfi_def_cfa_register %rbp
	subq	$32, %rsp
	movq	%rdi, -16(%rbp)
Ltmp132:
	.loc	17 115 9 prologue_end
	callq	__ZN4core3any6TypeId2of17h194d87936722e4e2E
	movq	%rax, -24(%rbp)
	.loc	17 0 9 is_stmt 0
	movq	-24(%rbp), %rax
	.loc	17 116 6 is_stmt 1
	addq	$32, %rsp
	popq	%rbp
	retq
Ltmp133:
Lfunc_end37:
	.cfi_endproc

	.globl	__ZN3std5error5Error9backtrace17h318be7b40bc4613fE
	.p2align	4, 0x90
__ZN3std5error5Error9backtrace17h318be7b40bc4613fE:
Lfunc_begin38:
	.loc	17 128 0
	.cfi_startproc
	pushq	%rbp
	.cfi_def_cfa_offset 16
	.cfi_offset %rbp, -16
	movq	%rsp, %rbp
	.cfi_def_cfa_register %rbp
	pushq	%rax
	xorl	%eax, %eax
	movq	%rdi, -8(%rbp)
Ltmp134:
	.loc	17 130 6 prologue_end
	addq	$8, %rsp
	popq	%rbp
	retq
Ltmp135:
Lfunc_end38:
	.cfi_endproc

	.globl	__ZN3std5error5Error9backtrace17hd90fe97829add571E
	.p2align	4, 0x90
__ZN3std5error5Error9backtrace17hd90fe97829add571E:
Lfunc_begin39:
	.loc	17 128 0
	.cfi_startproc
	pushq	%rbp
	.cfi_def_cfa_offset 16
	.cfi_offset %rbp, -16
	movq	%rsp, %rbp
	.cfi_def_cfa_register %rbp
	pushq	%rax
	xorl	%eax, %eax
	movq	%rdi, -8(%rbp)
Ltmp136:
	.loc	17 130 6 prologue_end
	addq	$8, %rsp
	popq	%rbp
	retq
Ltmp137:
Lfunc_end39:
	.cfi_endproc

	.globl	__ZN3std5error5Error9backtrace17hdf8fcd6be5f0910eE
	.p2align	4, 0x90
__ZN3std5error5Error9backtrace17hdf8fcd6be5f0910eE:
Lfunc_begin40:
	.loc	17 128 0
	.cfi_startproc
	pushq	%rbp
	.cfi_def_cfa_offset 16
	.cfi_offset %rbp, -16
	movq	%rsp, %rbp
	.cfi_def_cfa_register %rbp
	pushq	%rax
	xorl	%eax, %eax
	movq	%rdi, -8(%rbp)
Ltmp138:
	.loc	17 130 6 prologue_end
	addq	$8, %rsp
	popq	%rbp
	retq
Ltmp139:
Lfunc_end40:
	.cfi_endproc

	.globl	__ZN3std5error5Error9backtrace17he33ebd879e15f329E
	.p2align	4, 0x90
__ZN3std5error5Error9backtrace17he33ebd879e15f329E:
Lfunc_begin41:
	.loc	17 128 0
	.cfi_startproc
	pushq	%rbp
	.cfi_def_cfa_offset 16
	.cfi_offset %rbp, -16
	movq	%rsp, %rbp
	.cfi_def_cfa_register %rbp
	pushq	%rax
	xorl	%eax, %eax
	movq	%rdi, -8(%rbp)
Ltmp140:
	.loc	17 130 6 prologue_end
	addq	$8, %rsp
	popq	%rbp
	retq
Ltmp141:
Lfunc_end41:
	.cfi_endproc

	.globl	__ZN3std7process7Command3arg17h089ef0291fad1515E
	.p2align	4, 0x90
__ZN3std7process7Command3arg17h089ef0291fad1515E:
Lfunc_begin42:
	.file	19 "/rustc/6c8927b0cf80ceee19386026cf9d7fd4fd9d486f/src/libstd/process.rs"
	.loc	19 541 0
	.cfi_startproc
	.cfi_personality 155, _rust_eh_personality
	.cfi_lsda 16, Lexception4
	pushq	%rbp
	.cfi_def_cfa_offset 16
	.cfi_offset %rbp, -16
	movq	%rsp, %rbp
	.cfi_def_cfa_register %rbp
	subq	$64, %rsp
	movq	%rsi, -32(%rbp)
	movq	%rdi, -24(%rbp)
Ltmp147:
	.loc	19 542 9 prologue_end
	movq	%rdi, %rax
Ltmp142:
	leaq	-32(%rbp), %rcx
	movq	%rdi, -40(%rbp)
	.loc	19 542 24 is_stmt 0
	movq	%rcx, %rdi
	movq	%rax, -48(%rbp)
	callq	__ZN55_$LT$$RF$T$u20$as$u20$core..convert..AsRef$LT$U$GT$$GT$6as_ref17hdcd75e4d673974aeE
Ltmp143:
	movq	%rdx, -56(%rbp)
	movq	%rax, -64(%rbp)
	jmp	LBB42_2
LBB42_1:
	.loc	19 541 5 is_stmt 1
	movq	-16(%rbp), %rdi
	callq	__Unwind_Resume
	ud2
LBB42_2:
Ltmp144:
	.loc	19 0 5 is_stmt 0
	movq	-48(%rbp), %rdi
	movq	-64(%rbp), %rsi
	movq	-56(%rbp), %rdx
	.loc	19 542 9 is_stmt 1
	callq	__ZN3std3sys4unix7process14process_common7Command3arg17he3b985033bebdb87E
Ltmp145:
	jmp	LBB42_4
LBB42_3:
	.loc	19 544 5
	jmp	LBB42_1
LBB42_4:
	jmp	LBB42_5
LBB42_5:
	.loc	19 0 5 is_stmt 0
	movq	-40(%rbp), %rax
	.loc	19 544 6
	addq	$64, %rsp
	popq	%rbp
	retq
Ltmp148:
LBB42_6:
Ltmp146:
	.loc	19 0 6
	movq	%rax, -16(%rbp)
	movl	%edx, -8(%rbp)
	jmp	LBB42_3
Lfunc_end42:
	.cfi_endproc
	.section	__TEXT,__gcc_except_tab
	.p2align	2
GCC_except_table42:
Lexception4:
	.byte	255
	.byte	255
	.byte	1
	.uleb128 Lcst_end4-Lcst_begin4
Lcst_begin4:
	.uleb128 Ltmp142-Lfunc_begin42
	.uleb128 Ltmp143-Ltmp142
	.uleb128 Ltmp146-Lfunc_begin42
	.byte	0
	.uleb128 Ltmp143-Lfunc_begin42
	.uleb128 Ltmp144-Ltmp143
	.byte	0
	.byte	0
	.uleb128 Ltmp144-Lfunc_begin42
	.uleb128 Ltmp145-Ltmp144
	.uleb128 Ltmp146-Lfunc_begin42
	.byte	0
Lcst_end4:
	.p2align	2

	.section	__TEXT,__text,regular,pure_instructions
	.globl	__ZN3std7process7Command3arg17h2ebd6bfe9bc5333dE
	.p2align	4, 0x90
__ZN3std7process7Command3arg17h2ebd6bfe9bc5333dE:
Lfunc_begin43:
	.loc	19 541 0 is_stmt 1
	.cfi_startproc
	.cfi_personality 155, _rust_eh_personality
	.cfi_lsda 16, Lexception5
	pushq	%rbp
	.cfi_def_cfa_offset 16
	.cfi_offset %rbp, -16
	movq	%rsp, %rbp
	.cfi_def_cfa_register %rbp
	subq	$64, %rsp
	movq	%rdi, -24(%rbp)
Ltmp154:
	.loc	19 542 9 prologue_end
	movq	%rdi, %rax
Ltmp149:
	movq	%rdi, -32(%rbp)
	.loc	19 542 24 is_stmt 0
	movq	%rsi, %rdi
	movq	%rsi, -40(%rbp)
Ltmp155:
	.loc	19 0 24
	movq	%rax, -48(%rbp)
	.loc	19 542 24
	callq	__ZN3std3ffi6os_str103_$LT$impl$u20$core..convert..AsRef$LT$std..ffi..os_str..OsStr$GT$$u20$for$u20$alloc..string..String$GT$6as_ref17h50085ef9179b2152E
Ltmp150:
	movq	%rdx, -56(%rbp)
	movq	%rax, -64(%rbp)
	jmp	LBB43_2
Ltmp156:
LBB43_1:
	.loc	19 541 5 is_stmt 1
	movq	-16(%rbp), %rdi
	callq	__Unwind_Resume
	ud2
Ltmp157:
LBB43_2:
Ltmp151:
	.loc	19 0 5 is_stmt 0
	movq	-48(%rbp), %rdi
	movq	-64(%rbp), %rsi
	movq	-56(%rbp), %rdx
	.loc	19 542 9 is_stmt 1
	callq	__ZN3std3sys4unix7process14process_common7Command3arg17he3b985033bebdb87E
Ltmp152:
	jmp	LBB43_4
Ltmp158:
LBB43_3:
	.loc	19 0 9 is_stmt 0
	movq	-40(%rbp), %rdi
	.loc	19 544 5 is_stmt 1
	callq	__ZN4core3ptr13drop_in_place17h0aa7fb5dc65d714eE
	jmp	LBB43_1
Ltmp159:
LBB43_4:
	.loc	19 0 5 is_stmt 0
	movq	-40(%rbp), %rdi
	.loc	19 544 5
	callq	__ZN4core3ptr13drop_in_place17h0aa7fb5dc65d714eE
Ltmp160:
	.loc	19 0 5
	movq	-32(%rbp), %rax
	.loc	19 544 6
	addq	$64, %rsp
	popq	%rbp
	retq
Ltmp161:
LBB43_6:
Ltmp153:
	.loc	19 0 6
	movq	%rax, -16(%rbp)
	movl	%edx, -8(%rbp)
	jmp	LBB43_3
Lfunc_end43:
	.cfi_endproc
	.section	__TEXT,__gcc_except_tab
	.p2align	2
GCC_except_table43:
Lexception5:
	.byte	255
	.byte	255
	.byte	1
	.uleb128 Lcst_end5-Lcst_begin5
Lcst_begin5:
	.uleb128 Ltmp149-Lfunc_begin43
	.uleb128 Ltmp150-Ltmp149
	.uleb128 Ltmp153-Lfunc_begin43
	.byte	0
	.uleb128 Ltmp150-Lfunc_begin43
	.uleb128 Ltmp151-Ltmp150
	.byte	0
	.byte	0
	.uleb128 Ltmp151-Lfunc_begin43
	.uleb128 Ltmp152-Ltmp151
	.uleb128 Ltmp153-Lfunc_begin43
	.byte	0
	.uleb128 Ltmp152-Lfunc_begin43
	.uleb128 Lfunc_end43-Ltmp152
	.byte	0
	.byte	0
Lcst_end5:
	.p2align	2

	.section	__TEXT,__text,regular,pure_instructions
	.globl	__ZN3std7process7Command3arg17hab87f1782c273e31E
	.p2align	4, 0x90
__ZN3std7process7Command3arg17hab87f1782c273e31E:
Lfunc_begin44:
	.loc	19 541 0 is_stmt 1
	.cfi_startproc
	.cfi_personality 155, _rust_eh_personality
	.cfi_lsda 16, Lexception6
	pushq	%rbp
	.cfi_def_cfa_offset 16
	.cfi_offset %rbp, -16
	movq	%rsp, %rbp
	.cfi_def_cfa_register %rbp
	subq	$80, %rsp
	movq	%rsi, -40(%rbp)
	movq	%rdx, -32(%rbp)
	movq	%rdi, -24(%rbp)
Ltmp167:
	.loc	19 542 9 prologue_end
	movq	%rdi, %rax
Ltmp162:
	leaq	-40(%rbp), %rcx
	movq	%rdi, -48(%rbp)
	.loc	19 542 24 is_stmt 0
	movq	%rcx, %rdi
	movq	%rax, -56(%rbp)
	callq	__ZN55_$LT$$RF$T$u20$as$u20$core..convert..AsRef$LT$U$GT$$GT$6as_ref17h8f4aa11dec015739E
Ltmp163:
	movq	%rdx, -64(%rbp)
	movq	%rax, -72(%rbp)
	jmp	LBB44_2
LBB44_1:
	.loc	19 541 5 is_stmt 1
	movq	-16(%rbp), %rdi
	callq	__Unwind_Resume
	ud2
LBB44_2:
Ltmp164:
	.loc	19 0 5 is_stmt 0
	movq	-56(%rbp), %rdi
	movq	-72(%rbp), %rsi
	movq	-64(%rbp), %rdx
	.loc	19 542 9 is_stmt 1
	callq	__ZN3std3sys4unix7process14process_common7Command3arg17he3b985033bebdb87E
Ltmp165:
	jmp	LBB44_4
LBB44_3:
	.loc	19 544 5
	jmp	LBB44_1
LBB44_4:
	jmp	LBB44_5
LBB44_5:
	.loc	19 0 5 is_stmt 0
	movq	-48(%rbp), %rax
	.loc	19 544 6
	addq	$80, %rsp
	popq	%rbp
	retq
Ltmp168:
LBB44_6:
Ltmp166:
	.loc	19 0 6
	movq	%rax, -16(%rbp)
	movl	%edx, -8(%rbp)
	jmp	LBB44_3
Lfunc_end44:
	.cfi_endproc
	.section	__TEXT,__gcc_except_tab
	.p2align	2
GCC_except_table44:
Lexception6:
	.byte	255
	.byte	255
	.byte	1
	.uleb128 Lcst_end6-Lcst_begin6
Lcst_begin6:
	.uleb128 Ltmp162-Lfunc_begin44
	.uleb128 Ltmp163-Ltmp162
	.uleb128 Ltmp166-Lfunc_begin44
	.byte	0
	.uleb128 Ltmp163-Lfunc_begin44
	.uleb128 Ltmp164-Ltmp163
	.byte	0
	.byte	0
	.uleb128 Ltmp164-Lfunc_begin44
	.uleb128 Ltmp165-Ltmp164
	.uleb128 Ltmp166-Lfunc_begin44
	.byte	0
Lcst_end6:
	.p2align	2

	.section	__TEXT,__text,regular,pure_instructions
	.globl	__ZN3std7process7Command3arg17hde1caa51cebd0545E
	.p2align	4, 0x90
__ZN3std7process7Command3arg17hde1caa51cebd0545E:
Lfunc_begin45:
	.loc	19 541 0 is_stmt 1
	.cfi_startproc
	.cfi_personality 155, _rust_eh_personality
	.cfi_lsda 16, Lexception7
	pushq	%rbp
	.cfi_def_cfa_offset 16
	.cfi_offset %rbp, -16
	movq	%rsp, %rbp
	.cfi_def_cfa_register %rbp
	subq	$64, %rsp
	movq	%rsi, -32(%rbp)
	movq	%rdi, -24(%rbp)
Ltmp174:
	.loc	19 542 9 prologue_end
	movq	%rdi, %rax
Ltmp169:
	leaq	-32(%rbp), %rcx
	movq	%rdi, -40(%rbp)
	.loc	19 542 24 is_stmt 0
	movq	%rcx, %rdi
	movq	%rax, -48(%rbp)
	callq	__ZN55_$LT$$RF$T$u20$as$u20$core..convert..AsRef$LT$U$GT$$GT$6as_ref17h4b92e139c4dc2849E
Ltmp170:
	movq	%rdx, -56(%rbp)
	movq	%rax, -64(%rbp)
	jmp	LBB45_2
LBB45_1:
	.loc	19 541 5 is_stmt 1
	movq	-16(%rbp), %rdi
	callq	__Unwind_Resume
	ud2
LBB45_2:
Ltmp171:
	.loc	19 0 5 is_stmt 0
	movq	-48(%rbp), %rdi
	movq	-64(%rbp), %rsi
	movq	-56(%rbp), %rdx
	.loc	19 542 9 is_stmt 1
	callq	__ZN3std3sys4unix7process14process_common7Command3arg17he3b985033bebdb87E
Ltmp172:
	jmp	LBB45_4
LBB45_3:
	.loc	19 544 5
	jmp	LBB45_1
LBB45_4:
	jmp	LBB45_5
LBB45_5:
	.loc	19 0 5 is_stmt 0
	movq	-40(%rbp), %rax
	.loc	19 544 6
	addq	$64, %rsp
	popq	%rbp
	retq
Ltmp175:
LBB45_6:
Ltmp173:
	.loc	19 0 6
	movq	%rax, -16(%rbp)
	movl	%edx, -8(%rbp)
	jmp	LBB45_3
Lfunc_end45:
	.cfi_endproc
	.section	__TEXT,__gcc_except_tab
	.p2align	2
GCC_except_table45:
Lexception7:
	.byte	255
	.byte	255
	.byte	1
	.uleb128 Lcst_end7-Lcst_begin7
Lcst_begin7:
	.uleb128 Ltmp169-Lfunc_begin45
	.uleb128 Ltmp170-Ltmp169
	.uleb128 Ltmp173-Lfunc_begin45
	.byte	0
	.uleb128 Ltmp170-Lfunc_begin45
	.uleb128 Ltmp171-Ltmp170
	.byte	0
	.byte	0
	.uleb128 Ltmp171-Lfunc_begin45
	.uleb128 Ltmp172-Ltmp171
	.uleb128 Ltmp173-Lfunc_begin45
	.byte	0
Lcst_end7:
	.p2align	2

	.section	__TEXT,__text,regular,pure_instructions
	.globl	__ZN3std7process7Command3arg17heaaf629029d7c360E
	.p2align	4, 0x90
__ZN3std7process7Command3arg17heaaf629029d7c360E:
Lfunc_begin46:
	.loc	19 541 0 is_stmt 1
	.cfi_startproc
	.cfi_personality 155, _rust_eh_personality
	.cfi_lsda 16, Lexception8
	pushq	%rbp
	.cfi_def_cfa_offset 16
	.cfi_offset %rbp, -16
	movq	%rsp, %rbp
	.cfi_def_cfa_register %rbp
	subq	$80, %rsp
	movq	%rsi, -40(%rbp)
	movq	%rdx, -32(%rbp)
	movq	%rdi, -24(%rbp)
Ltmp181:
	.loc	19 542 9 prologue_end
	movq	%rdi, %rax
Ltmp176:
	leaq	-40(%rbp), %rcx
	movq	%rdi, -48(%rbp)
	.loc	19 542 24 is_stmt 0
	movq	%rcx, %rdi
	movq	%rax, -56(%rbp)
	callq	__ZN55_$LT$$RF$T$u20$as$u20$core..convert..AsRef$LT$U$GT$$GT$6as_ref17h574db0381083a2ddE
Ltmp177:
	movq	%rdx, -64(%rbp)
	movq	%rax, -72(%rbp)
	jmp	LBB46_2
LBB46_1:
	.loc	19 541 5 is_stmt 1
	movq	-16(%rbp), %rdi
	callq	__Unwind_Resume
	ud2
LBB46_2:
Ltmp178:
	.loc	19 0 5 is_stmt 0
	movq	-56(%rbp), %rdi
	movq	-72(%rbp), %rsi
	movq	-64(%rbp), %rdx
	.loc	19 542 9 is_stmt 1
	callq	__ZN3std3sys4unix7process14process_common7Command3arg17he3b985033bebdb87E
Ltmp179:
	jmp	LBB46_4
LBB46_3:
	.loc	19 544 5
	jmp	LBB46_1
LBB46_4:
	jmp	LBB46_5
LBB46_5:
	.loc	19 0 5 is_stmt 0
	movq	-48(%rbp), %rax
	.loc	19 544 6
	addq	$80, %rsp
	popq	%rbp
	retq
Ltmp182:
LBB46_6:
Ltmp180:
	.loc	19 0 6
	movq	%rax, -16(%rbp)
	movl	%edx, -8(%rbp)
	jmp	LBB46_3
Lfunc_end46:
	.cfi_endproc
	.section	__TEXT,__gcc_except_tab
	.p2align	2
GCC_except_table46:
Lexception8:
	.byte	255
	.byte	255
	.byte	1
	.uleb128 Lcst_end8-Lcst_begin8
Lcst_begin8:
	.uleb128 Ltmp176-Lfunc_begin46
	.uleb128 Ltmp177-Ltmp176
	.uleb128 Ltmp180-Lfunc_begin46
	.byte	0
	.uleb128 Ltmp177-Lfunc_begin46
	.uleb128 Ltmp178-Ltmp177
	.byte	0
	.byte	0
	.uleb128 Ltmp178-Lfunc_begin46
	.uleb128 Ltmp179-Ltmp178
	.uleb128 Ltmp180-Lfunc_begin46
	.byte	0
Lcst_end8:
	.p2align	2

	.section	__TEXT,__text,regular,pure_instructions
	.globl	__ZN3std7process7Command3new17h63729f9395308d1bE
	.p2align	4, 0x90
__ZN3std7process7Command3new17h63729f9395308d1bE:
Lfunc_begin47:
	.loc	19 500 0 is_stmt 1
	.cfi_startproc
	.cfi_personality 155, _rust_eh_personality
	.cfi_lsda 16, Lexception9
	pushq	%rbp
	.cfi_def_cfa_offset 16
	.cfi_offset %rbp, -16
	movq	%rsp, %rbp
	.cfi_def_cfa_register %rbp
	subq	$256, %rsp
	movq	%rdi, %rax
	movq	%rsi, -216(%rbp)
	movq	%rdx, -208(%rbp)
Ltmp183:
	leaq	-216(%rbp), %rcx
	movq	%rdi, -224(%rbp)
Ltmp188:
	.loc	19 501 44 prologue_end
	movq	%rcx, %rdi
	movq	%rax, -232(%rbp)
	callq	__ZN55_$LT$$RF$T$u20$as$u20$core..convert..AsRef$LT$U$GT$$GT$6as_ref17hb9a2ee40ebc0fb3cE
Ltmp184:
	movq	%rdx, -240(%rbp)
	movq	%rax, -248(%rbp)
	jmp	LBB47_2
LBB47_1:
	.loc	19 500 5
	movq	-16(%rbp), %rdi
	callq	__Unwind_Resume
	ud2
LBB47_2:
Ltmp185:
	.loc	19 0 5 is_stmt 0
	leaq	-200(%rbp), %rdi
	movq	-248(%rbp), %rsi
	movq	-240(%rbp), %rdx
	.loc	19 501 26 is_stmt 1
	callq	__ZN3std3sys4unix7process14process_common7Command3new17h6b51c4bb5fada643E
Ltmp186:
	jmp	LBB47_4
LBB47_3:
	.loc	19 502 5
	jmp	LBB47_1
LBB47_4:
	.loc	19 0 5 is_stmt 0
	movq	-224(%rbp), %rax
	.loc	19 501 9 is_stmt 1
	leaq	-200(%rbp), %rcx
	movq	%rax, %rdi
	movq	%rcx, %rsi
	movl	$184, %edx
	callq	_memcpy
	.loc	19 0 9 is_stmt 0
	movq	-232(%rbp), %rax
	.loc	19 502 6 is_stmt 1
	addq	$256, %rsp
	popq	%rbp
	retq
Ltmp189:
LBB47_6:
Ltmp187:
	.loc	19 0 6 is_stmt 0
	movq	%rax, -16(%rbp)
	movl	%edx, -8(%rbp)
	jmp	LBB47_3
Lfunc_end47:
	.cfi_endproc
	.section	__TEXT,__gcc_except_tab
	.p2align	2
GCC_except_table47:
Lexception9:
	.byte	255
	.byte	255
	.byte	1
	.uleb128 Lcst_end9-Lcst_begin9
Lcst_begin9:
	.uleb128 Ltmp183-Lfunc_begin47
	.uleb128 Ltmp184-Ltmp183
	.uleb128 Ltmp187-Lfunc_begin47
	.byte	0
	.uleb128 Ltmp184-Lfunc_begin47
	.uleb128 Ltmp185-Ltmp184
	.byte	0
	.byte	0
	.uleb128 Ltmp185-Lfunc_begin47
	.uleb128 Ltmp186-Ltmp185
	.uleb128 Ltmp187-Lfunc_begin47
	.byte	0
	.uleb128 Ltmp186-Lfunc_begin47
	.uleb128 Lfunc_end47-Ltmp186
	.byte	0
	.byte	0
Lcst_end9:
	.p2align	2

	.section	__TEXT,__text,regular,pure_instructions
	.globl	__ZN3std7process7Command3new17h6f33db5884994976E
	.p2align	4, 0x90
__ZN3std7process7Command3new17h6f33db5884994976E:
Lfunc_begin48:
	.loc	19 500 0 is_stmt 1
	.cfi_startproc
	.cfi_personality 155, _rust_eh_personality
	.cfi_lsda 16, Lexception10
	pushq	%rbp
	.cfi_def_cfa_offset 16
	.cfi_offset %rbp, -16
	movq	%rsp, %rbp
	.cfi_def_cfa_register %rbp
	subq	$240, %rsp
	movq	%rdi, %rax
	movq	%rsi, -208(%rbp)
Ltmp190:
	leaq	-208(%rbp), %rcx
	movq	%rdi, -216(%rbp)
Ltmp195:
	.loc	19 501 44 prologue_end
	movq	%rcx, %rdi
	movq	%rax, -224(%rbp)
	callq	__ZN55_$LT$$RF$T$u20$as$u20$core..convert..AsRef$LT$U$GT$$GT$6as_ref17h4b92e139c4dc2849E
Ltmp191:
	movq	%rdx, -232(%rbp)
	movq	%rax, -240(%rbp)
	jmp	LBB48_2
LBB48_1:
	.loc	19 500 5
	movq	-16(%rbp), %rdi
	callq	__Unwind_Resume
	ud2
LBB48_2:
Ltmp192:
	.loc	19 0 5 is_stmt 0
	leaq	-200(%rbp), %rdi
	movq	-240(%rbp), %rsi
	movq	-232(%rbp), %rdx
	.loc	19 501 26 is_stmt 1
	callq	__ZN3std3sys4unix7process14process_common7Command3new17h6b51c4bb5fada643E
Ltmp193:
	jmp	LBB48_4
LBB48_3:
	.loc	19 502 5
	jmp	LBB48_1
LBB48_4:
	.loc	19 0 5 is_stmt 0
	movq	-216(%rbp), %rax
	.loc	19 501 9 is_stmt 1
	leaq	-200(%rbp), %rcx
	movq	%rax, %rdi
	movq	%rcx, %rsi
	movl	$184, %edx
	callq	_memcpy
	.loc	19 0 9 is_stmt 0
	movq	-224(%rbp), %rax
	.loc	19 502 6 is_stmt 1
	addq	$240, %rsp
	popq	%rbp
	retq
Ltmp196:
LBB48_6:
Ltmp194:
	.loc	19 0 6 is_stmt 0
	movq	%rax, -16(%rbp)
	movl	%edx, -8(%rbp)
	jmp	LBB48_3
Lfunc_end48:
	.cfi_endproc
	.section	__TEXT,__gcc_except_tab
	.p2align	2
GCC_except_table48:
Lexception10:
	.byte	255
	.byte	255
	.byte	1
	.uleb128 Lcst_end10-Lcst_begin10
Lcst_begin10:
	.uleb128 Ltmp190-Lfunc_begin48
	.uleb128 Ltmp191-Ltmp190
	.uleb128 Ltmp194-Lfunc_begin48
	.byte	0
	.uleb128 Ltmp191-Lfunc_begin48
	.uleb128 Ltmp192-Ltmp191
	.byte	0
	.byte	0
	.uleb128 Ltmp192-Lfunc_begin48
	.uleb128 Ltmp193-Ltmp192
	.uleb128 Ltmp194-Lfunc_begin48
	.byte	0
	.uleb128 Ltmp193-Lfunc_begin48
	.uleb128 Lfunc_end48-Ltmp193
	.byte	0
	.byte	0
Lcst_end10:
	.p2align	2

	.section	__TEXT,__text,regular,pure_instructions
	.globl	__ZN3std7process7Command4args17h097880f51a1b3f8dE
	.p2align	4, 0x90
__ZN3std7process7Command4args17h097880f51a1b3f8dE:
Lfunc_begin49:
	.loc	19 565 0 is_stmt 1
	.cfi_startproc
	.cfi_personality 155, _rust_eh_personality
	.cfi_lsda 16, Lexception11
	pushq	%rbp
	.cfi_def_cfa_offset 16
	.cfi_offset %rbp, -16
	movq	%rsp, %rbp
	.cfi_def_cfa_register %rbp
	subq	$144, %rsp
	movq	%rdi, -48(%rbp)
	movq	%rsi, -40(%rbp)
Ltmp205:
	.loc	19 573 9 prologue_end
	movb	$0, -49(%rbp)
	movq	%rdi, -96(%rbp)
	.loc	19 570 20
	movq	%rsi, %rdi
	callq	__ZN90_$LT$$RF$alloc..vec..Vec$LT$T$GT$$u20$as$u20$core..iter..traits..collect..IntoIterator$GT$9into_iter17h7a8a7840aa9f922aE
	movq	%rax, -104(%rbp)
	movq	%rdx, -112(%rbp)
	jmp	LBB49_2
LBB49_1:
	.loc	19 565 5
	movq	-32(%rbp), %rdi
	callq	__Unwind_Resume
	ud2
LBB49_2:
	.loc	19 0 5 is_stmt 0
	movq	-104(%rbp), %rax
	.loc	19 570 20 is_stmt 1
	movq	%rax, -88(%rbp)
	movq	-112(%rbp), %rcx
	movq	%rcx, -80(%rbp)
LBB49_3:
Ltmp197:
	.loc	19 0 20 is_stmt 0
	leaq	-88(%rbp), %rdi
Ltmp206:
	.loc	19 570 20
	callq	__ZN85_$LT$core..slice..Iter$LT$T$GT$$u20$as$u20$core..iter..traits..iterator..Iterator$GT$4next17he28cba8a4f9b0dffE
Ltmp198:
	movq	%rax, -120(%rbp)
	jmp	LBB49_5
Ltmp207:
LBB49_4:
	.loc	19 572 9 is_stmt 1
	jmp	LBB49_1
LBB49_5:
	.loc	19 0 9 is_stmt 0
	movq	-120(%rbp), %rax
Ltmp208:
	.loc	19 570 20 is_stmt 1
	movq	%rax, -72(%rbp)
	.loc	19 570 13 is_stmt 0
	movq	-72(%rbp), %rcx
	testq	%rcx, %rcx
	setne	%dl
	movzbl	%dl, %esi
	movl	%esi, %ecx
	je	LBB49_6
	jmp	LBB49_18
LBB49_18:
	jmp	LBB49_8
Ltmp209:
LBB49_6:
	.loc	19 572 9 is_stmt 1
	movb	$0, -49(%rbp)
Ltmp210:
	.loc	19 572 9 is_stmt 0
	jmp	LBB49_13
Ltmp211:
	.loc	19 570 20 is_stmt 1
	ud2
LBB49_8:
	.loc	19 570 13 is_stmt 0
	movq	-72(%rbp), %rax
	movq	%rax, -16(%rbp)
Ltmp212:
	.loc	19 570 13
	movb	$1, -49(%rbp)
	movq	%rax, -8(%rbp)
Ltmp213:
	.loc	19 570 20
	movb	$0, -49(%rbp)
	movq	%rax, -64(%rbp)
Ltmp200:
	leaq	-64(%rbp), %rdi
Ltmp214:
	.loc	19 571 22 is_stmt 1
	callq	__ZN55_$LT$$RF$T$u20$as$u20$core..convert..AsRef$LT$U$GT$$GT$6as_ref17h47c7907737a20966E
Ltmp201:
	movq	%rdx, -128(%rbp)
	movq	%rax, -136(%rbp)
	jmp	LBB49_9
LBB49_9:
Ltmp202:
	.loc	19 0 22 is_stmt 0
	movq	-96(%rbp), %rdi
	movq	-136(%rbp), %rsi
	movq	-128(%rbp), %rdx
	.loc	19 571 13
	callq	__ZN3std7process7Command3arg17heaaf629029d7c360E
Ltmp203:
	jmp	LBB49_11
Ltmp215:
LBB49_10:
	.loc	19 572 9 is_stmt 1
	jmp	LBB49_15
LBB49_11:
	jmp	LBB49_12
Ltmp216:
LBB49_12:
	.loc	19 572 9 is_stmt 0
	movb	$0, -49(%rbp)
	.loc	19 570 9 is_stmt 1
	jmp	LBB49_3
Ltmp217:
LBB49_13:
	.loc	19 0 9 is_stmt 0
	movq	-96(%rbp), %rax
	.loc	19 574 6 is_stmt 1
	addq	$144, %rsp
	popq	%rbp
	retq
LBB49_14:
Ltmp218:
	.loc	19 572 9
	movb	$0, -49(%rbp)
	jmp	LBB49_4
LBB49_15:
	testb	$1, -49(%rbp)
	jne	LBB49_14
	jmp	LBB49_4
Ltmp219:
LBB49_16:
Ltmp199:
	.loc	19 0 9 is_stmt 0
	movq	%rax, -32(%rbp)
	movl	%edx, -24(%rbp)
	jmp	LBB49_15
LBB49_17:
Ltmp204:
	movq	%rax, -32(%rbp)
	movl	%edx, -24(%rbp)
	jmp	LBB49_10
Lfunc_end49:
	.cfi_endproc
	.section	__TEXT,__gcc_except_tab
	.p2align	2
GCC_except_table49:
Lexception11:
	.byte	255
	.byte	255
	.byte	1
	.uleb128 Lcst_end11-Lcst_begin11
Lcst_begin11:
	.uleb128 Lfunc_begin49-Lfunc_begin49
	.uleb128 Ltmp197-Lfunc_begin49
	.byte	0
	.byte	0
	.uleb128 Ltmp197-Lfunc_begin49
	.uleb128 Ltmp198-Ltmp197
	.uleb128 Ltmp199-Lfunc_begin49
	.byte	0
	.uleb128 Ltmp200-Lfunc_begin49
	.uleb128 Ltmp203-Ltmp200
	.uleb128 Ltmp204-Lfunc_begin49
	.byte	0
Lcst_end11:
	.p2align	2

	.section	__TEXT,__text,regular,pure_instructions
	.globl	__ZN3std7process7Command4args17h8d798375824976e6E
	.p2align	4, 0x90
__ZN3std7process7Command4args17h8d798375824976e6E:
Lfunc_begin50:
	.loc	19 565 0 is_stmt 1
	.cfi_startproc
	.cfi_personality 155, _rust_eh_personality
	.cfi_lsda 16, Lexception12
	pushq	%rbp
	.cfi_def_cfa_offset 16
	.cfi_offset %rbp, -16
	movq	%rsp, %rbp
	.cfi_def_cfa_register %rbp
	subq	$144, %rsp
	movq	%rdi, -48(%rbp)
	movq	%rsi, -40(%rbp)
Ltmp228:
	.loc	19 573 9 prologue_end
	movb	$0, -49(%rbp)
	movq	%rdi, -96(%rbp)
	.loc	19 570 20
	movq	%rsi, %rdi
	callq	__ZN4core5array98_$LT$impl$u20$core..iter..traits..collect..IntoIterator$u20$for$u20$$RF$$u5b$T$u3b$$u20$N$u5d$$GT$9into_iter17h2f629ccea2cba578E
	movq	%rax, -104(%rbp)
	movq	%rdx, -112(%rbp)
	jmp	LBB50_2
LBB50_1:
	.loc	19 565 5
	movq	-32(%rbp), %rdi
	callq	__Unwind_Resume
	ud2
LBB50_2:
	.loc	19 0 5 is_stmt 0
	movq	-104(%rbp), %rax
	.loc	19 570 20 is_stmt 1
	movq	%rax, -88(%rbp)
	movq	-112(%rbp), %rcx
	movq	%rcx, -80(%rbp)
LBB50_3:
Ltmp220:
	.loc	19 0 20 is_stmt 0
	leaq	-88(%rbp), %rdi
Ltmp229:
	.loc	19 570 20
	callq	__ZN85_$LT$core..slice..Iter$LT$T$GT$$u20$as$u20$core..iter..traits..iterator..Iterator$GT$4next17h99a5f81dcfe0b462E
Ltmp221:
	movq	%rax, -120(%rbp)
	jmp	LBB50_5
Ltmp230:
LBB50_4:
	.loc	19 572 9 is_stmt 1
	jmp	LBB50_1
LBB50_5:
	.loc	19 0 9 is_stmt 0
	movq	-120(%rbp), %rax
Ltmp231:
	.loc	19 570 20 is_stmt 1
	movq	%rax, -72(%rbp)
	.loc	19 570 13 is_stmt 0
	movq	-72(%rbp), %rcx
	testq	%rcx, %rcx
	setne	%dl
	movzbl	%dl, %esi
	movl	%esi, %ecx
	je	LBB50_6
	jmp	LBB50_18
LBB50_18:
	jmp	LBB50_8
Ltmp232:
LBB50_6:
	.loc	19 572 9 is_stmt 1
	movb	$0, -49(%rbp)
Ltmp233:
	.loc	19 572 9 is_stmt 0
	jmp	LBB50_13
Ltmp234:
	.loc	19 570 20 is_stmt 1
	ud2
LBB50_8:
	.loc	19 570 13 is_stmt 0
	movq	-72(%rbp), %rax
	movq	%rax, -16(%rbp)
Ltmp235:
	.loc	19 570 13
	movb	$1, -49(%rbp)
	movq	%rax, -8(%rbp)
Ltmp236:
	.loc	19 570 20
	movb	$0, -49(%rbp)
	movq	%rax, -64(%rbp)
Ltmp223:
	leaq	-64(%rbp), %rdi
Ltmp237:
	.loc	19 571 22 is_stmt 1
	callq	__ZN55_$LT$$RF$T$u20$as$u20$core..convert..AsRef$LT$U$GT$$GT$6as_ref17h45453c1e601710a1E
Ltmp224:
	movq	%rdx, -128(%rbp)
	movq	%rax, -136(%rbp)
	jmp	LBB50_9
LBB50_9:
Ltmp225:
	.loc	19 0 22 is_stmt 0
	movq	-96(%rbp), %rdi
	movq	-136(%rbp), %rsi
	movq	-128(%rbp), %rdx
	.loc	19 571 13
	callq	__ZN3std7process7Command3arg17heaaf629029d7c360E
Ltmp226:
	jmp	LBB50_11
Ltmp238:
LBB50_10:
	.loc	19 572 9 is_stmt 1
	jmp	LBB50_15
LBB50_11:
	jmp	LBB50_12
Ltmp239:
LBB50_12:
	.loc	19 572 9 is_stmt 0
	movb	$0, -49(%rbp)
	.loc	19 570 9 is_stmt 1
	jmp	LBB50_3
Ltmp240:
LBB50_13:
	.loc	19 0 9 is_stmt 0
	movq	-96(%rbp), %rax
	.loc	19 574 6 is_stmt 1
	addq	$144, %rsp
	popq	%rbp
	retq
LBB50_14:
Ltmp241:
	.loc	19 572 9
	movb	$0, -49(%rbp)
	jmp	LBB50_4
LBB50_15:
	testb	$1, -49(%rbp)
	jne	LBB50_14
	jmp	LBB50_4
Ltmp242:
LBB50_16:
Ltmp222:
	.loc	19 0 9 is_stmt 0
	movq	%rax, -32(%rbp)
	movl	%edx, -24(%rbp)
	jmp	LBB50_15
LBB50_17:
Ltmp227:
	movq	%rax, -32(%rbp)
	movl	%edx, -24(%rbp)
	jmp	LBB50_10
Lfunc_end50:
	.cfi_endproc
	.section	__TEXT,__gcc_except_tab
	.p2align	2
GCC_except_table50:
Lexception12:
	.byte	255
	.byte	255
	.byte	1
	.uleb128 Lcst_end12-Lcst_begin12
Lcst_begin12:
	.uleb128 Lfunc_begin50-Lfunc_begin50
	.uleb128 Ltmp220-Lfunc_begin50
	.byte	0
	.byte	0
	.uleb128 Ltmp220-Lfunc_begin50
	.uleb128 Ltmp221-Ltmp220
	.uleb128 Ltmp222-Lfunc_begin50
	.byte	0
	.uleb128 Ltmp223-Lfunc_begin50
	.uleb128 Ltmp226-Ltmp223
	.uleb128 Ltmp227-Lfunc_begin50
	.byte	0
Lcst_end12:
	.p2align	2

	.section	__TEXT,__text,regular,pure_instructions
	.globl	__ZN3std7process7Command5stdin17h1bd905f7635fba60E
	.p2align	4, 0x90
__ZN3std7process7Command5stdin17h1bd905f7635fba60E:
Lfunc_begin51:
	.loc	19 731 0 is_stmt 1
	.cfi_startproc
	pushq	%rbp
	.cfi_def_cfa_offset 16
	.cfi_offset %rbp, -16
	movq	%rsp, %rbp
	.cfi_def_cfa_register %rbp
	subq	$48, %rsp
	movq	%rdi, -16(%rbp)
	movl	%esi, -8(%rbp)
	movl	%edx, -4(%rbp)
Ltmp243:
	.loc	19 732 9 prologue_end
	movq	%rdi, %rax
	movq	%rdi, -24(%rbp)
	.loc	19 732 26 is_stmt 0
	movl	%esi, %edi
	movl	%edx, %esi
	movq	%rax, -32(%rbp)
	callq	__ZN50_$LT$T$u20$as$u20$core..convert..Into$LT$U$GT$$GT$4into17ha30db5615aff69f8E
	movl	%eax, -36(%rbp)
	movl	%edx, -40(%rbp)
	.loc	19 0 26
	movq	-32(%rbp), %rdi
	movl	-36(%rbp), %esi
	movl	-40(%rbp), %edx
	.loc	19 732 9
	callq	__ZN3std3sys4unix7process14process_common7Command5stdin17h66af3813a79bcef8E
	.loc	19 0 9
	movq	-24(%rbp), %rax
	.loc	19 734 6 is_stmt 1
	addq	$48, %rsp
	popq	%rbp
	retq
Ltmp244:
Lfunc_end51:
	.cfi_endproc

	.p2align	4, 0x90
__ZN41_$LT$bool$u20$as$u20$core..fmt..Debug$GT$3fmt17hd70bc658909b201fE:
Lfunc_begin52:
	.file	20 "/rustc/6c8927b0cf80ceee19386026cf9d7fd4fd9d486f/src/libcore/fmt/mod.rs"
	.loc	20 2051 0
	.cfi_startproc
	pushq	%rbp
	.cfi_def_cfa_offset 16
	.cfi_offset %rbp, -16
	movq	%rsp, %rbp
	.cfi_def_cfa_register %rbp
	subq	$32, %rsp
	movq	%rdi, -16(%rbp)
	movq	%rsi, -8(%rbp)
Ltmp245:
	.loc	20 2052 9 prologue_end
	callq	__ZN43_$LT$bool$u20$as$u20$core..fmt..Display$GT$3fmt17hd78396651a24cfbbE
	movb	%al, -17(%rbp)
	.loc	20 0 9 is_stmt 0
	movb	-17(%rbp), %al
	.loc	20 2053 6 is_stmt 1
	andb	$1, %al
	movzbl	%al, %eax
	addq	$32, %rsp
	popq	%rbp
	retq
Ltmp246:
Lfunc_end52:
	.cfi_endproc

	.globl	__ZN42_$LT$$RF$T$u20$as$u20$core..fmt..Debug$GT$3fmt17h0b83d3cfdedbefe0E
	.p2align	4, 0x90
__ZN42_$LT$$RF$T$u20$as$u20$core..fmt..Debug$GT$3fmt17h0b83d3cfdedbefe0E:
Lfunc_begin53:
	.loc	20 2022 0
	.cfi_startproc
	pushq	%rbp
	.cfi_def_cfa_offset 16
	.cfi_offset %rbp, -16
	movq	%rsp, %rbp
	.cfi_def_cfa_register %rbp
	subq	$32, %rsp
	movq	%rdi, -16(%rbp)
	movq	%rsi, -8(%rbp)
Ltmp247:
	.loc	20 2022 71 prologue_end
	movq	(%rdi), %rdi
	.loc	20 2022 62 is_stmt 0
	callq	__ZN62_$LT$autocfg..version..Version$u20$as$u20$core..fmt..Debug$GT$3fmt17h1d7a06106d1e3c95E
	movb	%al, -17(%rbp)
	.loc	20 0 62
	movb	-17(%rbp), %al
	.loc	20 2022 84
	andb	$1, %al
	movzbl	%al, %eax
	addq	$32, %rsp
	popq	%rbp
	retq
Ltmp248:
Lfunc_end53:
	.cfi_endproc

	.globl	__ZN42_$LT$$RF$T$u20$as$u20$core..fmt..Debug$GT$3fmt17h32934f2185470c70E
	.p2align	4, 0x90
__ZN42_$LT$$RF$T$u20$as$u20$core..fmt..Debug$GT$3fmt17h32934f2185470c70E:
Lfunc_begin54:
	.loc	20 2022 0 is_stmt 1
	.cfi_startproc
	pushq	%rbp
	.cfi_def_cfa_offset 16
	.cfi_offset %rbp, -16
	movq	%rsp, %rbp
	.cfi_def_cfa_register %rbp
	subq	$32, %rsp
	movq	%rdi, -16(%rbp)
	movq	%rsi, -8(%rbp)
Ltmp249:
	.loc	20 2022 71 prologue_end
	movq	(%rdi), %rdi
	.loc	20 2022 62 is_stmt 0
	callq	__ZN61_$LT$core..num..ParseIntError$u20$as$u20$core..fmt..Debug$GT$3fmt17h0d00db8c35397686E
	movb	%al, -17(%rbp)
	.loc	20 0 62
	movb	-17(%rbp), %al
	.loc	20 2022 84
	andb	$1, %al
	movzbl	%al, %eax
	addq	$32, %rsp
	popq	%rbp
	retq
Ltmp250:
Lfunc_end54:
	.cfi_endproc

	.globl	__ZN42_$LT$$RF$T$u20$as$u20$core..fmt..Debug$GT$3fmt17h3298429350b49d09E
	.p2align	4, 0x90
__ZN42_$LT$$RF$T$u20$as$u20$core..fmt..Debug$GT$3fmt17h3298429350b49d09E:
Lfunc_begin55:
	.loc	20 2022 0 is_stmt 1
	.cfi_startproc
	pushq	%rbp
	.cfi_def_cfa_offset 16
	.cfi_offset %rbp, -16
	movq	%rsp, %rbp
	.cfi_def_cfa_register %rbp
	subq	$32, %rsp
	movq	%rdi, -16(%rbp)
	movq	%rsi, -8(%rbp)
Ltmp251:
	.loc	20 2022 71 prologue_end
	movq	(%rdi), %rdi
	.loc	20 2022 62 is_stmt 0
	callq	__ZN61_$LT$alloc..vec..Vec$LT$T$GT$$u20$as$u20$core..fmt..Debug$GT$3fmt17hbfb8a8419054b540E
	movb	%al, -17(%rbp)
	.loc	20 0 62
	movb	-17(%rbp), %al
	.loc	20 2022 84
	andb	$1, %al
	movzbl	%al, %eax
	addq	$32, %rsp
	popq	%rbp
	retq
Ltmp252:
Lfunc_end55:
	.cfi_endproc

	.globl	__ZN42_$LT$$RF$T$u20$as$u20$core..fmt..Debug$GT$3fmt17h36a9702eb87dca36E
	.p2align	4, 0x90
__ZN42_$LT$$RF$T$u20$as$u20$core..fmt..Debug$GT$3fmt17h36a9702eb87dca36E:
Lfunc_begin56:
	.loc	20 2022 0 is_stmt 1
	.cfi_startproc
	pushq	%rbp
	.cfi_def_cfa_offset 16
	.cfi_offset %rbp, -16
	movq	%rsp, %rbp
	.cfi_def_cfa_register %rbp
	subq	$32, %rsp
	movq	%rdi, -16(%rbp)
	movq	%rsi, -8(%rbp)
Ltmp253:
	.loc	20 2022 71 prologue_end
	movq	(%rdi), %rdi
	.loc	20 2022 62 is_stmt 0
	callq	__ZN58_$LT$std..io..error..Error$u20$as$u20$core..fmt..Debug$GT$3fmt17hd2ddac42b4f82396E
	movb	%al, -17(%rbp)
	.loc	20 0 62
	movb	-17(%rbp), %al
	.loc	20 2022 84
	andb	$1, %al
	movzbl	%al, %eax
	addq	$32, %rsp
	popq	%rbp
	retq
Ltmp254:
Lfunc_end56:
	.cfi_endproc

	.globl	__ZN42_$LT$$RF$T$u20$as$u20$core..fmt..Debug$GT$3fmt17h4af861c9800b6562E
	.p2align	4, 0x90
__ZN42_$LT$$RF$T$u20$as$u20$core..fmt..Debug$GT$3fmt17h4af861c9800b6562E:
Lfunc_begin57:
	.loc	20 2022 0 is_stmt 1
	.cfi_startproc
	pushq	%rbp
	.cfi_def_cfa_offset 16
	.cfi_offset %rbp, -16
	movq	%rsp, %rbp
	.cfi_def_cfa_register %rbp
	subq	$32, %rsp
	movq	%rdi, -16(%rbp)
	movq	%rsi, -8(%rbp)
Ltmp255:
	.loc	20 2022 71 prologue_end
	movq	(%rdi), %rdi
	.loc	20 2022 62 is_stmt 0
	callq	__ZN66_$LT$core..option..Option$LT$T$GT$$u20$as$u20$core..fmt..Debug$GT$3fmt17h0b97d448da9b794aE
	movb	%al, -17(%rbp)
	.loc	20 0 62
	movb	-17(%rbp), %al
	.loc	20 2022 84
	andb	$1, %al
	movzbl	%al, %eax
	addq	$32, %rsp
	popq	%rbp
	retq
Ltmp256:
Lfunc_end57:
	.cfi_endproc

	.globl	__ZN42_$LT$$RF$T$u20$as$u20$core..fmt..Debug$GT$3fmt17h54301b243f317baaE
	.p2align	4, 0x90
__ZN42_$LT$$RF$T$u20$as$u20$core..fmt..Debug$GT$3fmt17h54301b243f317baaE:
Lfunc_begin58:
	.loc	20 2022 0 is_stmt 1
	.cfi_startproc
	pushq	%rbp
	.cfi_def_cfa_offset 16
	.cfi_offset %rbp, -16
	movq	%rsp, %rbp
	.cfi_def_cfa_register %rbp
	subq	$32, %rsp
	movq	%rdi, -16(%rbp)
	movq	%rsi, -8(%rbp)
Ltmp257:
	.loc	20 2022 71 prologue_end
	movq	(%rdi), %rdi
	.loc	20 2022 62 is_stmt 0
	callq	__ZN63_$LT$std..ffi..os_str..OsString$u20$as$u20$core..fmt..Debug$GT$3fmt17h7836a5cc1a04a487E
	movb	%al, -17(%rbp)
	.loc	20 0 62
	movb	-17(%rbp), %al
	.loc	20 2022 84
	andb	$1, %al
	movzbl	%al, %eax
	addq	$32, %rsp
	popq	%rbp
	retq
Ltmp258:
Lfunc_end58:
	.cfi_endproc

	.globl	__ZN42_$LT$$RF$T$u20$as$u20$core..fmt..Debug$GT$3fmt17ha1337e1136e0ee20E
	.p2align	4, 0x90
__ZN42_$LT$$RF$T$u20$as$u20$core..fmt..Debug$GT$3fmt17ha1337e1136e0ee20E:
Lfunc_begin59:
	.loc	20 2022 0 is_stmt 1
	.cfi_startproc
	pushq	%rbp
	.cfi_def_cfa_offset 16
	.cfi_offset %rbp, -16
	movq	%rsp, %rbp
	.cfi_def_cfa_register %rbp
	subq	$32, %rsp
	movq	%rdi, -16(%rbp)
	movq	%rsi, -8(%rbp)
Ltmp259:
	.loc	20 2022 71 prologue_end
	movq	(%rdi), %rdi
	.loc	20 2022 62 is_stmt 0
	callq	__ZN58_$LT$alloc..string..String$u20$as$u20$core..fmt..Debug$GT$3fmt17h9c589f3d06c32235E
	movb	%al, -17(%rbp)
	.loc	20 0 62
	movb	-17(%rbp), %al
	.loc	20 2022 84
	andb	$1, %al
	movzbl	%al, %eax
	addq	$32, %rsp
	popq	%rbp
	retq
Ltmp260:
Lfunc_end59:
	.cfi_endproc

	.globl	__ZN42_$LT$$RF$T$u20$as$u20$core..fmt..Debug$GT$3fmt17ha86c660f24836283E
	.p2align	4, 0x90
__ZN42_$LT$$RF$T$u20$as$u20$core..fmt..Debug$GT$3fmt17ha86c660f24836283E:
Lfunc_begin60:
	.loc	20 2022 0 is_stmt 1
	.cfi_startproc
	pushq	%rbp
	.cfi_def_cfa_offset 16
	.cfi_offset %rbp, -16
	movq	%rsp, %rbp
	.cfi_def_cfa_register %rbp
	subq	$32, %rsp
	movq	%rdi, -16(%rbp)
	movq	%rsi, -8(%rbp)
Ltmp261:
	.loc	20 2022 71 prologue_end
	movq	(%rdi), %rdi
	.loc	20 2022 62 is_stmt 0
	callq	__ZN41_$LT$bool$u20$as$u20$core..fmt..Debug$GT$3fmt17hd70bc658909b201fE
	movb	%al, -17(%rbp)
	.loc	20 0 62
	movb	-17(%rbp), %al
	.loc	20 2022 84
	andb	$1, %al
	movzbl	%al, %eax
	addq	$32, %rsp
	popq	%rbp
	retq
Ltmp262:
Lfunc_end60:
	.cfi_endproc

	.globl	__ZN42_$LT$$RF$T$u20$as$u20$core..fmt..Debug$GT$3fmt17hb2611cc86778d4deE
	.p2align	4, 0x90
__ZN42_$LT$$RF$T$u20$as$u20$core..fmt..Debug$GT$3fmt17hb2611cc86778d4deE:
Lfunc_begin61:
	.loc	20 2022 0 is_stmt 1
	.cfi_startproc
	pushq	%rbp
	.cfi_def_cfa_offset 16
	.cfi_offset %rbp, -16
	movq	%rsp, %rbp
	.cfi_def_cfa_register %rbp
	subq	$32, %rsp
	movq	%rdi, -16(%rbp)
	movq	%rsi, -8(%rbp)
Ltmp263:
	.loc	20 2022 71 prologue_end
	movq	(%rdi), %rdi
	.loc	20 2022 62 is_stmt 0
	callq	__ZN55_$LT$std..path..PathBuf$u20$as$u20$core..fmt..Debug$GT$3fmt17h45fffc43ad501558E
	movb	%al, -17(%rbp)
	.loc	20 0 62
	movb	-17(%rbp), %al
	.loc	20 2022 84
	andb	$1, %al
	movzbl	%al, %eax
	addq	$32, %rsp
	popq	%rbp
	retq
Ltmp264:
Lfunc_end61:
	.cfi_endproc

	.globl	__ZN42_$LT$$RF$T$u20$as$u20$core..fmt..Debug$GT$3fmt17hbfa636dcc926a21bE
	.p2align	4, 0x90
__ZN42_$LT$$RF$T$u20$as$u20$core..fmt..Debug$GT$3fmt17hbfa636dcc926a21bE:
Lfunc_begin62:
	.loc	20 2022 0 is_stmt 1
	.cfi_startproc
	pushq	%rbp
	.cfi_def_cfa_offset 16
	.cfi_offset %rbp, -16
	movq	%rsp, %rbp
	.cfi_def_cfa_register %rbp
	subq	$32, %rsp
	movq	%rdi, -16(%rbp)
	movq	%rsi, -8(%rbp)
Ltmp265:
	.loc	20 2022 71 prologue_end
	movq	(%rdi), %rdi
	.loc	20 2022 62 is_stmt 0
	callq	__ZN62_$LT$autocfg..error..ErrorKind$u20$as$u20$core..fmt..Debug$GT$3fmt17h246928ee0756db75E
	movb	%al, -17(%rbp)
	.loc	20 0 62
	movb	-17(%rbp), %al
	.loc	20 2022 84
	andb	$1, %al
	movzbl	%al, %eax
	addq	$32, %rsp
	popq	%rbp
	retq
Ltmp266:
Lfunc_end62:
	.cfi_endproc

	.globl	__ZN42_$LT$$RF$T$u20$as$u20$core..fmt..Debug$GT$3fmt17hd1bcb62fb9a4221eE
	.p2align	4, 0x90
__ZN42_$LT$$RF$T$u20$as$u20$core..fmt..Debug$GT$3fmt17hd1bcb62fb9a4221eE:
Lfunc_begin63:
	.loc	20 2022 0 is_stmt 1
	.cfi_startproc
	pushq	%rbp
	.cfi_def_cfa_offset 16
	.cfi_offset %rbp, -16
	movq	%rsp, %rbp
	.cfi_def_cfa_register %rbp
	subq	$32, %rsp
	movq	%rdi, -16(%rbp)
	movq	%rsi, -8(%rbp)
Ltmp267:
	.loc	20 2022 71 prologue_end
	movq	(%rdi), %rdi
	.loc	20 2022 62 is_stmt 0
	callq	__ZN4core3fmt3num52_$LT$impl$u20$core..fmt..Debug$u20$for$u20$usize$GT$3fmt17hea77f076042f82f5E
	movb	%al, -17(%rbp)
	.loc	20 0 62
	movb	-17(%rbp), %al
	.loc	20 2022 84
	andb	$1, %al
	movzbl	%al, %eax
	addq	$32, %rsp
	popq	%rbp
	retq
Ltmp268:
Lfunc_end63:
	.cfi_endproc

	.globl	__ZN42_$LT$$RF$T$u20$as$u20$core..fmt..Debug$GT$3fmt17he255e2bae85ae531E
	.p2align	4, 0x90
__ZN42_$LT$$RF$T$u20$as$u20$core..fmt..Debug$GT$3fmt17he255e2bae85ae531E:
Lfunc_begin64:
	.loc	20 2022 0 is_stmt 1
	.cfi_startproc
	pushq	%rbp
	.cfi_def_cfa_offset 16
	.cfi_offset %rbp, -16
	movq	%rsp, %rbp
	.cfi_def_cfa_register %rbp
	subq	$32, %rsp
	movq	%rdi, -16(%rbp)
	movq	%rsi, -8(%rbp)
Ltmp269:
	.loc	20 2022 71 prologue_end
	movq	(%rdi), %rdi
	.loc	20 2022 62 is_stmt 0
	callq	__ZN57_$LT$core..str..Utf8Error$u20$as$u20$core..fmt..Debug$GT$3fmt17h8b3ce0811b1626a0E
	movb	%al, -17(%rbp)
	.loc	20 0 62
	movb	-17(%rbp), %al
	.loc	20 2022 84
	andb	$1, %al
	movzbl	%al, %eax
	addq	$32, %rsp
	popq	%rbp
	retq
Ltmp270:
Lfunc_end64:
	.cfi_endproc

	.globl	__ZN42_$LT$$RF$T$u20$as$u20$core..fmt..Debug$GT$3fmt17hebe6d7bf8d74db07E
	.p2align	4, 0x90
__ZN42_$LT$$RF$T$u20$as$u20$core..fmt..Debug$GT$3fmt17hebe6d7bf8d74db07E:
Lfunc_begin65:
	.loc	20 2022 0 is_stmt 1
	.cfi_startproc
	pushq	%rbp
	.cfi_def_cfa_offset 16
	.cfi_offset %rbp, -16
	movq	%rsp, %rbp
	.cfi_def_cfa_register %rbp
	subq	$32, %rsp
	movq	%rdi, -16(%rbp)
	movq	%rsi, -8(%rbp)
Ltmp271:
	.loc	20 2022 71 prologue_end
	movq	(%rdi), %rdi
	.loc	20 2022 62 is_stmt 0
	callq	__ZN42_$LT$$RF$T$u20$as$u20$core..fmt..Debug$GT$3fmt17hee1291bff9619d54E
	movb	%al, -17(%rbp)
	.loc	20 0 62
	movb	-17(%rbp), %al
	.loc	20 2022 84
	andb	$1, %al
	movzbl	%al, %eax
	addq	$32, %rsp
	popq	%rbp
	retq
Ltmp272:
Lfunc_end65:
	.cfi_endproc

	.globl	__ZN42_$LT$$RF$T$u20$as$u20$core..fmt..Debug$GT$3fmt17hee1291bff9619d54E
	.p2align	4, 0x90
__ZN42_$LT$$RF$T$u20$as$u20$core..fmt..Debug$GT$3fmt17hee1291bff9619d54E:
Lfunc_begin66:
	.loc	20 2022 0 is_stmt 1
	.cfi_startproc
	pushq	%rbp
	.cfi_def_cfa_offset 16
	.cfi_offset %rbp, -16
	movq	%rsp, %rbp
	.cfi_def_cfa_register %rbp
	subq	$32, %rsp
	movq	%rdi, -16(%rbp)
	movq	%rsi, -8(%rbp)
Ltmp273:
	.loc	20 2022 71 prologue_end
	movq	(%rdi), %rax
	movq	8(%rdi), %rcx
	.loc	20 2022 62 is_stmt 0
	movq	%rax, %rdi
	movq	%rsi, -24(%rbp)
	movq	%rcx, %rsi
	movq	-24(%rbp), %rdx
	callq	__ZN40_$LT$str$u20$as$u20$core..fmt..Debug$GT$3fmt17h5b42b6f497bd434cE
	movb	%al, -25(%rbp)
	.loc	20 0 62
	movb	-25(%rbp), %al
	.loc	20 2022 84
	andb	$1, %al
	movzbl	%al, %eax
	addq	$32, %rsp
	popq	%rbp
	retq
Ltmp274:
Lfunc_end66:
	.cfi_endproc

	.globl	__ZN42_$LT$$RF$T$u20$as$u20$core..fmt..Debug$GT$3fmt17hf1334829d849d51eE
	.p2align	4, 0x90
__ZN42_$LT$$RF$T$u20$as$u20$core..fmt..Debug$GT$3fmt17hf1334829d849d51eE:
Lfunc_begin67:
	.loc	20 2022 0 is_stmt 1
	.cfi_startproc
	pushq	%rbp
	.cfi_def_cfa_offset 16
	.cfi_offset %rbp, -16
	movq	%rsp, %rbp
	.cfi_def_cfa_register %rbp
	subq	$32, %rsp
	movq	%rdi, -16(%rbp)
	movq	%rsi, -8(%rbp)
Ltmp275:
	.loc	20 2022 71 prologue_end
	movq	(%rdi), %rdi
	.loc	20 2022 62 is_stmt 0
	callq	__ZN66_$LT$core..option..Option$LT$T$GT$$u20$as$u20$core..fmt..Debug$GT$3fmt17h08495980ed8b16f3E
	movb	%al, -17(%rbp)
	.loc	20 0 62
	movb	-17(%rbp), %al
	.loc	20 2022 84
	andb	$1, %al
	movzbl	%al, %eax
	addq	$32, %rsp
	popq	%rbp
	retq
Ltmp276:
Lfunc_end67:
	.cfi_endproc

	.globl	__ZN44_$LT$$RF$T$u20$as$u20$core..fmt..Display$GT$3fmt17h75da89b940dc04a6E
	.p2align	4, 0x90
__ZN44_$LT$$RF$T$u20$as$u20$core..fmt..Display$GT$3fmt17h75da89b940dc04a6E:
Lfunc_begin68:
	.loc	20 2022 0 is_stmt 1
	.cfi_startproc
	pushq	%rbp
	.cfi_def_cfa_offset 16
	.cfi_offset %rbp, -16
	movq	%rsp, %rbp
	.cfi_def_cfa_register %rbp
	subq	$32, %rsp
	movq	%rdi, -16(%rbp)
	movq	%rsi, -8(%rbp)
Ltmp277:
	.loc	20 2022 71 prologue_end
	movq	(%rdi), %rax
	movq	8(%rdi), %rcx
	.loc	20 2022 62 is_stmt 0
	movq	%rax, %rdi
	movq	%rsi, -24(%rbp)
	movq	%rcx, %rsi
	movq	-24(%rbp), %rdx
	callq	__ZN42_$LT$str$u20$as$u20$core..fmt..Display$GT$3fmt17h6768afae62e94f93E
	movb	%al, -25(%rbp)
	.loc	20 0 62
	movb	-25(%rbp), %al
	.loc	20 2022 84
	andb	$1, %al
	movzbl	%al, %eax
	addq	$32, %rsp
	popq	%rbp
	retq
Ltmp278:
Lfunc_end68:
	.cfi_endproc

	.p2align	4, 0x90
__ZN47_$LT$str$u20$as$u20$alloc..string..ToString$GT$9to_string17h9385f11f4ab8c974E:
Lfunc_begin69:
	.file	21 "/rustc/6c8927b0cf80ceee19386026cf9d7fd4fd9d486f/src/liballoc/string.rs"
	.loc	21 2221 0 is_stmt 1
	.cfi_startproc
	pushq	%rbp
	.cfi_def_cfa_offset 16
	.cfi_offset %rbp, -16
	movq	%rsp, %rbp
	.cfi_def_cfa_register %rbp
	subq	$32, %rsp
	movq	%rdi, %rax
	movq	%rsi, -16(%rbp)
	movq	%rdx, -8(%rbp)
	movq	%rax, -24(%rbp)
Ltmp279:
	.loc	21 2222 9 prologue_end
	callq	__ZN76_$LT$alloc..string..String$u20$as$u20$core..convert..From$LT$$RF$str$GT$$GT$4from17hdc5551be0bbbc6caE
	.loc	21 0 9 is_stmt 0
	movq	-24(%rbp), %rax
	.loc	21 2223 6 is_stmt 1
	addq	$32, %rsp
	popq	%rbp
	retq
Ltmp280:
Lfunc_end69:
	.cfi_endproc

	.globl	__ZN48_$LT$$u5b$T$u5d$$u20$as$u20$core..fmt..Debug$GT$3fmt17hb366166a90063d04E
	.p2align	4, 0x90
__ZN48_$LT$$u5b$T$u5d$$u20$as$u20$core..fmt..Debug$GT$3fmt17hb366166a90063d04E:
Lfunc_begin70:
	.loc	20 2210 0
	.cfi_startproc
	pushq	%rbp
	.cfi_def_cfa_offset 16
	.cfi_offset %rbp, -16
	movq	%rsp, %rbp
	.cfi_def_cfa_register %rbp
	subq	$96, %rsp
	movq	%rdi, -24(%rbp)
	movq	%rsi, -16(%rbp)
	movq	%rdx, -8(%rbp)
Ltmp281:
	.loc	20 2211 9 prologue_end
	leaq	-40(%rbp), %rax
	movq	%rdi, -48(%rbp)
	movq	%rax, %rdi
	movq	%rsi, -56(%rbp)
	movq	%rdx, %rsi
	callq	__ZN4core3fmt9Formatter10debug_list17h113a4e31f24f00d7E
	.loc	20 0 9 is_stmt 0
	movq	-48(%rbp), %rdi
	movq	-56(%rbp), %rsi
	.loc	20 2211 32
	callq	__ZN4core5slice29_$LT$impl$u20$$u5b$T$u5d$$GT$4iter17h64ee3969c05fca52E
	movq	%rax, -64(%rbp)
	movq	%rdx, -72(%rbp)
	.loc	20 2211 9
	leaq	-40(%rbp), %rdi
	movq	-64(%rbp), %rsi
	movq	-72(%rbp), %rdx
	callq	__ZN4core3fmt8builders9DebugList7entries17hfedfc10fcbfec345E
	movq	%rax, -80(%rbp)
	.loc	20 0 9
	movq	-80(%rbp), %rdi
	.loc	20 2211 9
	callq	__ZN4core3fmt8builders9DebugList6finish17h1537bc92ee1acb1cE
	movb	%al, -81(%rbp)
	.loc	20 0 9
	movb	-81(%rbp), %al
	.loc	20 2212 6 is_stmt 1
	andb	$1, %al
	movzbl	%al, %eax
	addq	$96, %rsp
	popq	%rbp
	retq
Ltmp282:
Lfunc_end70:
	.cfi_endproc

	.globl	__ZN4core10intrinsics11write_bytes17hbd2ff8b7b5a4a5dfE
	.p2align	4, 0x90
__ZN4core10intrinsics11write_bytes17hbd2ff8b7b5a4a5dfE:
Lfunc_begin71:
	.file	22 "/rustc/6c8927b0cf80ceee19386026cf9d7fd4fd9d486f/src/libcore/intrinsics.rs"
	.loc	22 2275 0
	.cfi_startproc
	pushq	%rbp
	.cfi_def_cfa_offset 16
	.cfi_offset %rbp, -16
	movq	%rsp, %rbp
	.cfi_def_cfa_register %rbp
	subq	$32, %rsp
	movq	%rdi, -24(%rbp)
	movb	%sil, -9(%rbp)
	movq	%rdx, -8(%rbp)
Ltmp283:
	.loc	22 2283 14 prologue_end
	shlq	$0, %rdx
	movzbl	%sil, %esi
	callq	_memset
	.loc	22 2284 2
	addq	$32, %rsp
	popq	%rbp
	retq
Ltmp284:
Lfunc_end71:
	.cfi_endproc

	.globl	__ZN4core10intrinsics19copy_nonoverlapping17h21590c911498b2d0E
	.p2align	4, 0x90
__ZN4core10intrinsics19copy_nonoverlapping17h21590c911498b2d0E:
Lfunc_begin72:
	.loc	22 2114 0
	.cfi_startproc
	pushq	%rbp
	.cfi_def_cfa_offset 16
	.cfi_offset %rbp, -16
	movq	%rsp, %rbp
	.cfi_def_cfa_register %rbp
	subq	$32, %rsp
	movq	%rdi, -24(%rbp)
	movq	%rsi, -16(%rbp)
	movq	%rdx, -8(%rbp)
Ltmp285:
	.loc	22 2130 14 prologue_end
	shlq	$3, %rdx
	movq	%rdi, -32(%rbp)
	movq	%rsi, %rdi
	movq	-32(%rbp), %rsi
	callq	_memcpy
	.loc	22 2131 2
	addq	$32, %rsp
	popq	%rbp
	retq
Ltmp286:
Lfunc_end72:
	.cfi_endproc

	.globl	__ZN4core10intrinsics19copy_nonoverlapping17h28f95b93c8592a2dE
	.p2align	4, 0x90
__ZN4core10intrinsics19copy_nonoverlapping17h28f95b93c8592a2dE:
Lfunc_begin73:
	.loc	22 2114 0
	.cfi_startproc
	pushq	%rbp
	.cfi_def_cfa_offset 16
	.cfi_offset %rbp, -16
	movq	%rsp, %rbp
	.cfi_def_cfa_register %rbp
	subq	$32, %rsp
	movq	%rdi, -24(%rbp)
	movq	%rsi, -16(%rbp)
	movq	%rdx, -8(%rbp)
Ltmp287:
	.loc	22 2130 14 prologue_end
	imulq	$24, %rdx, %rdx
	movq	%rdi, -32(%rbp)
	movq	%rsi, %rdi
	movq	-32(%rbp), %rsi
	callq	_memcpy
	.loc	22 2131 2
	addq	$32, %rsp
	popq	%rbp
	retq
Ltmp288:
Lfunc_end73:
	.cfi_endproc

	.globl	__ZN4core10intrinsics19copy_nonoverlapping17h2d910fed884d479aE
	.p2align	4, 0x90
__ZN4core10intrinsics19copy_nonoverlapping17h2d910fed884d479aE:
Lfunc_begin74:
	.loc	22 2114 0
	.cfi_startproc
	pushq	%rbp
	.cfi_def_cfa_offset 16
	.cfi_offset %rbp, -16
	movq	%rsp, %rbp
	.cfi_def_cfa_register %rbp
	subq	$32, %rsp
	movq	%rdi, -24(%rbp)
	movq	%rsi, -16(%rbp)
	movq	%rdx, -8(%rbp)
Ltmp289:
	.loc	22 2130 14 prologue_end
	imulq	$24, %rdx, %rdx
	movq	%rdi, -32(%rbp)
	movq	%rsi, %rdi
	movq	-32(%rbp), %rsi
	callq	_memcpy
	.loc	22 2131 2
	addq	$32, %rsp
	popq	%rbp
	retq
Ltmp290:
Lfunc_end74:
	.cfi_endproc

	.globl	__ZN4core10intrinsics19copy_nonoverlapping17h3efa81240f8814c4E
	.p2align	4, 0x90
__ZN4core10intrinsics19copy_nonoverlapping17h3efa81240f8814c4E:
Lfunc_begin75:
	.loc	22 2114 0
	.cfi_startproc
	pushq	%rbp
	.cfi_def_cfa_offset 16
	.cfi_offset %rbp, -16
	movq	%rsp, %rbp
	.cfi_def_cfa_register %rbp
	subq	$32, %rsp
	movq	%rdi, -24(%rbp)
	movq	%rsi, -16(%rbp)
	movq	%rdx, -8(%rbp)
Ltmp291:
	.loc	22 2130 14 prologue_end
	shlq	$0, %rdx
	movq	%rdi, -32(%rbp)
	movq	%rsi, %rdi
	movq	-32(%rbp), %rsi
	callq	_memcpy
	.loc	22 2131 2
	addq	$32, %rsp
	popq	%rbp
	retq
Ltmp292:
Lfunc_end75:
	.cfi_endproc

	.globl	__ZN4core10intrinsics19copy_nonoverlapping17h5f9e9a8eb62dc050E
	.p2align	4, 0x90
__ZN4core10intrinsics19copy_nonoverlapping17h5f9e9a8eb62dc050E:
Lfunc_begin76:
	.loc	22 2114 0
	.cfi_startproc
	pushq	%rbp
	.cfi_def_cfa_offset 16
	.cfi_offset %rbp, -16
	movq	%rsp, %rbp
	.cfi_def_cfa_register %rbp
	subq	$32, %rsp
	movq	%rdi, -24(%rbp)
	movq	%rsi, -16(%rbp)
	movq	%rdx, -8(%rbp)
Ltmp293:
	.loc	22 2130 14 prologue_end
	shlq	$5, %rdx
	movq	%rdi, -32(%rbp)
	movq	%rsi, %rdi
	movq	-32(%rbp), %rsi
	callq	_memcpy
	.loc	22 2131 2
	addq	$32, %rsp
	popq	%rbp
	retq
Ltmp294:
Lfunc_end76:
	.cfi_endproc

	.globl	__ZN4core10intrinsics19copy_nonoverlapping17ha19dbc2709e5de52E
	.p2align	4, 0x90
__ZN4core10intrinsics19copy_nonoverlapping17ha19dbc2709e5de52E:
Lfunc_begin77:
	.loc	22 2114 0
	.cfi_startproc
	pushq	%rbp
	.cfi_def_cfa_offset 16
	.cfi_offset %rbp, -16
	movq	%rsp, %rbp
	.cfi_def_cfa_register %rbp
	subq	$32, %rsp
	movq	%rdi, -24(%rbp)
	movq	%rsi, -16(%rbp)
	movq	%rdx, -8(%rbp)
Ltmp295:
	.loc	22 2130 14 prologue_end
	imulq	$24, %rdx, %rdx
	movq	%rdi, -32(%rbp)
	movq	%rsi, %rdi
	movq	-32(%rbp), %rsi
	callq	_memcpy
	.loc	22 2131 2
	addq	$32, %rsp
	popq	%rbp
	retq
Ltmp296:
Lfunc_end77:
	.cfi_endproc

	.globl	__ZN4core10intrinsics19copy_nonoverlapping17ha3afd7b530f7b9e1E
	.p2align	4, 0x90
__ZN4core10intrinsics19copy_nonoverlapping17ha3afd7b530f7b9e1E:
Lfunc_begin78:
	.loc	22 2114 0
	.cfi_startproc
	pushq	%rbp
	.cfi_def_cfa_offset 16
	.cfi_offset %rbp, -16
	movq	%rsp, %rbp
	.cfi_def_cfa_register %rbp
	subq	$32, %rsp
	movq	%rdi, -24(%rbp)
	movq	%rsi, -16(%rbp)
	movq	%rdx, -8(%rbp)
Ltmp297:
	.loc	22 2130 14 prologue_end
	imulq	$24, %rdx, %rdx
	movq	%rdi, -32(%rbp)
	movq	%rsi, %rdi
	movq	-32(%rbp), %rsi
	callq	_memcpy
	.loc	22 2131 2
	addq	$32, %rsp
	popq	%rbp
	retq
Ltmp298:
Lfunc_end78:
	.cfi_endproc

	.globl	__ZN4core10intrinsics19copy_nonoverlapping17hcc0102861219f525E
	.p2align	4, 0x90
__ZN4core10intrinsics19copy_nonoverlapping17hcc0102861219f525E:
Lfunc_begin79:
	.loc	22 2114 0
	.cfi_startproc
	pushq	%rbp
	.cfi_def_cfa_offset 16
	.cfi_offset %rbp, -16
	movq	%rsp, %rbp
	.cfi_def_cfa_register %rbp
	subq	$32, %rsp
	movq	%rdi, -24(%rbp)
	movq	%rsi, -16(%rbp)
	movq	%rdx, -8(%rbp)
Ltmp299:
	.loc	22 2130 14 prologue_end
	imulq	$24, %rdx, %rdx
	movq	%rdi, -32(%rbp)
	movq	%rsi, %rdi
	movq	-32(%rbp), %rsi
	callq	_memcpy
	.loc	22 2131 2
	addq	$32, %rsp
	popq	%rbp
	retq
Ltmp300:
Lfunc_end79:
	.cfi_endproc

	.globl	__ZN4core10intrinsics19copy_nonoverlapping17hd3e550797f9c5becE
	.p2align	4, 0x90
__ZN4core10intrinsics19copy_nonoverlapping17hd3e550797f9c5becE:
Lfunc_begin80:
	.loc	22 2114 0
	.cfi_startproc
	pushq	%rbp
	.cfi_def_cfa_offset 16
	.cfi_offset %rbp, -16
	movq	%rsp, %rbp
	.cfi_def_cfa_register %rbp
	subq	$32, %rsp
	movq	%rdi, -24(%rbp)
	movq	%rsi, -16(%rbp)
	movq	%rdx, -8(%rbp)
Ltmp301:
	.loc	22 2130 14 prologue_end
	shlq	$4, %rdx
	movq	%rdi, -32(%rbp)
	movq	%rsi, %rdi
	movq	-32(%rbp), %rsi
	callq	_memcpy
	.loc	22 2131 2
	addq	$32, %rsp
	popq	%rbp
	retq
Ltmp302:
Lfunc_end80:
	.cfi_endproc

	.globl	__ZN4core10intrinsics19copy_nonoverlapping17hf2028d62bf27e41bE
	.p2align	4, 0x90
__ZN4core10intrinsics19copy_nonoverlapping17hf2028d62bf27e41bE:
Lfunc_begin81:
	.loc	22 2114 0
	.cfi_startproc
	pushq	%rbp
	.cfi_def_cfa_offset 16
	.cfi_offset %rbp, -16
	movq	%rsp, %rbp
	.cfi_def_cfa_register %rbp
	subq	$32, %rsp
	movq	%rdi, -24(%rbp)
	movq	%rsi, -16(%rbp)
	movq	%rdx, -8(%rbp)
Ltmp303:
	.loc	22 2130 14 prologue_end
	shlq	$5, %rdx
	movq	%rdi, -32(%rbp)
	movq	%rsi, %rdi
	movq	-32(%rbp), %rsi
	callq	_memcpy
	.loc	22 2131 2
	addq	$32, %rsp
	popq	%rbp
	retq
Ltmp304:
Lfunc_end81:
	.cfi_endproc

	.globl	__ZN4core3any6TypeId2of17h194d87936722e4e2E
	.p2align	4, 0x90
__ZN4core3any6TypeId2of17h194d87936722e4e2E:
Lfunc_begin82:
	.file	23 "/rustc/6c8927b0cf80ceee19386026cf9d7fd4fd9d486f/src/libcore/any.rs"
	.loc	23 439 0
	.cfi_startproc
	pushq	%rbp
	.cfi_def_cfa_offset 16
	.cfi_offset %rbp, -16
	movq	%rsp, %rbp
	.cfi_def_cfa_register %rbp
	subq	$24, %rsp
Ltmp305:
	.loc	23 440 21 prologue_end
	movabsq	$1350198158756948483, %rax
	movq	%rax, -8(%rbp)
	movq	-8(%rbp), %rax
	movq	%rax, -24(%rbp)
	.loc	23 0 21 is_stmt 0
	movq	-24(%rbp), %rax
	.loc	23 440 9
	movq	%rax, -16(%rbp)
	.loc	23 441 6 is_stmt 1
	movq	-16(%rbp), %rax
	addq	$24, %rsp
	popq	%rbp
	retq
Ltmp306:
Lfunc_end82:
	.cfi_endproc

	.globl	__ZN4core3any6TypeId2of17h24fcd768b463d6eeE
	.p2align	4, 0x90
__ZN4core3any6TypeId2of17h24fcd768b463d6eeE:
Lfunc_begin83:
	.loc	23 439 0
	.cfi_startproc
	pushq	%rbp
	.cfi_def_cfa_offset 16
	.cfi_offset %rbp, -16
	movq	%rsp, %rbp
	.cfi_def_cfa_register %rbp
	subq	$24, %rsp
Ltmp307:
	.loc	23 440 21 prologue_end
	movabsq	$7508826005076360610, %rax
	movq	%rax, -8(%rbp)
	movq	-8(%rbp), %rax
	movq	%rax, -24(%rbp)
	.loc	23 0 21 is_stmt 0
	movq	-24(%rbp), %rax
	.loc	23 440 9
	movq	%rax, -16(%rbp)
	.loc	23 441 6 is_stmt 1
	movq	-16(%rbp), %rax
	addq	$24, %rsp
	popq	%rbp
	retq
Ltmp308:
Lfunc_end83:
	.cfi_endproc

	.globl	__ZN4core3any6TypeId2of17h615f9ea6839579c9E
	.p2align	4, 0x90
__ZN4core3any6TypeId2of17h615f9ea6839579c9E:
Lfunc_begin84:
	.loc	23 439 0
	.cfi_startproc
	pushq	%rbp
	.cfi_def_cfa_offset 16
	.cfi_offset %rbp, -16
	movq	%rsp, %rbp
	.cfi_def_cfa_register %rbp
	subq	$24, %rsp
Ltmp309:
	.loc	23 440 21 prologue_end
	movabsq	$-2072573660368484727, %rax
	movq	%rax, -8(%rbp)
	movq	-8(%rbp), %rax
	movq	%rax, -24(%rbp)
	.loc	23 0 21 is_stmt 0
	movq	-24(%rbp), %rax
	.loc	23 440 9
	movq	%rax, -16(%rbp)
	.loc	23 441 6 is_stmt 1
	movq	-16(%rbp), %rax
	addq	$24, %rsp
	popq	%rbp
	retq
Ltmp310:
Lfunc_end84:
	.cfi_endproc

	.globl	__ZN4core3any6TypeId2of17h9ccc2c982bb86d6eE
	.p2align	4, 0x90
__ZN4core3any6TypeId2of17h9ccc2c982bb86d6eE:
Lfunc_begin85:
	.loc	23 439 0
	.cfi_startproc
	pushq	%rbp
	.cfi_def_cfa_offset 16
	.cfi_offset %rbp, -16
	movq	%rsp, %rbp
	.cfi_def_cfa_register %rbp
	subq	$24, %rsp
Ltmp311:
	.loc	23 440 21 prologue_end
	movabsq	$-2185102286780352927, %rax
	movq	%rax, -8(%rbp)
	movq	-8(%rbp), %rax
	movq	%rax, -24(%rbp)
	.loc	23 0 21 is_stmt 0
	movq	-24(%rbp), %rax
	.loc	23 440 9
	movq	%rax, -16(%rbp)
	.loc	23 441 6 is_stmt 1
	movq	-16(%rbp), %rax
	addq	$24, %rsp
	popq	%rbp
	retq
Ltmp312:
Lfunc_end85:
	.cfi_endproc

	.globl	__ZN4core3cmp3Ord3max17h0ac07364566a1235E
	.p2align	4, 0x90
__ZN4core3cmp3Ord3max17h0ac07364566a1235E:
Lfunc_begin86:
	.file	24 "/rustc/6c8927b0cf80ceee19386026cf9d7fd4fd9d486f/src/libcore/cmp.rs"
	.loc	24 599 0
	.cfi_startproc
	pushq	%rbp
	.cfi_def_cfa_offset 16
	.cfi_offset %rbp, -16
	movq	%rsp, %rbp
	.cfi_def_cfa_register %rbp
	subq	$32, %rsp
	movq	%rdi, -16(%rbp)
	movq	%rsi, -8(%rbp)
Ltmp313:
	.loc	24 603 9 prologue_end
	callq	__ZN4core3cmp6max_by17ha12300698d47a6bbE
	movq	%rax, -24(%rbp)
	.loc	24 0 9 is_stmt 0
	movq	-24(%rbp), %rax
	.loc	24 604 6 is_stmt 1
	addq	$32, %rsp
	popq	%rbp
	retq
Ltmp314:
Lfunc_end86:
	.cfi_endproc

	.globl	__ZN4core3cmp3max17hfd09f8df27e1bad5E
	.p2align	4, 0x90
__ZN4core3cmp3max17hfd09f8df27e1bad5E:
Lfunc_begin87:
	.loc	24 993 0
	.cfi_startproc
	pushq	%rbp
	.cfi_def_cfa_offset 16
	.cfi_offset %rbp, -16
	movq	%rsp, %rbp
	.cfi_def_cfa_register %rbp
	subq	$32, %rsp
	movq	%rdi, -16(%rbp)
	movq	%rsi, -8(%rbp)
Ltmp315:
	.loc	24 994 5 prologue_end
	callq	__ZN4core3cmp3Ord3max17h0ac07364566a1235E
	movq	%rax, -24(%rbp)
	.loc	24 0 5 is_stmt 0
	movq	-24(%rbp), %rax
	.loc	24 995 2 is_stmt 1
	addq	$32, %rsp
	popq	%rbp
	retq
Ltmp316:
Lfunc_end87:
	.cfi_endproc

	.p2align	4, 0x90
__ZN4core3cmp5impls50_$LT$impl$u20$core..cmp..Ord$u20$for$u20$usize$GT$3cmp17h5b0351a3e713eef3E:
Lfunc_begin88:
	.loc	24 1148 0
	.cfi_startproc
	pushq	%rbp
	.cfi_def_cfa_offset 16
	.cfi_offset %rbp, -16
	movq	%rsp, %rbp
	.cfi_def_cfa_register %rbp
	subq	$40, %rsp
	movq	%rdi, -16(%rbp)
	movq	%rsi, -8(%rbp)
Ltmp317:
	.loc	24 1151 24 prologue_end
	movq	(%rdi), %rax
	cmpq	(%rsi), %rax
	movq	%rdi, -32(%rbp)
	movq	%rsi, -40(%rbp)
	.loc	24 1151 21 is_stmt 0
	jb	LBB88_2
	.loc	24 0 21
	movq	-32(%rbp), %rax
	.loc	24 1152 29 is_stmt 1
	movq	(%rax), %rcx
	movq	-40(%rbp), %rdx
	cmpq	(%rdx), %rcx
	.loc	24 1152 26 is_stmt 0
	je	LBB88_4
	jmp	LBB88_3
LBB88_2:
	.loc	24 1151 41 is_stmt 1
	movb	$-1, -17(%rbp)
	.loc	24 1151 21 is_stmt 0
	jmp	LBB88_6
LBB88_3:
	.loc	24 1153 28 is_stmt 1
	movb	$1, -17(%rbp)
	.loc	24 1152 26
	jmp	LBB88_5
LBB88_4:
	.loc	24 1152 47 is_stmt 0
	movb	$0, -17(%rbp)
LBB88_5:
	.loc	24 1151 21 is_stmt 1
	jmp	LBB88_6
LBB88_6:
	.loc	24 1154 18
	movb	-17(%rbp), %al
	addq	$40, %rsp
	popq	%rbp
	retq
Ltmp318:
Lfunc_end88:
	.cfi_endproc

	.p2align	4, 0x90
__ZN4core3cmp5impls57_$LT$impl$u20$core..cmp..PartialOrd$u20$for$u20$usize$GT$11partial_cmp17h42f5b2b49b710905E:
Lfunc_begin89:
	.loc	24 1132 0
	.cfi_startproc
	pushq	%rbp
	.cfi_def_cfa_offset 16
	.cfi_offset %rbp, -16
	movq	%rsp, %rbp
	.cfi_def_cfa_register %rbp
	subq	$32, %rsp
	movq	%rdi, -16(%rbp)
	movq	%rsi, -8(%rbp)
Ltmp319:
	.loc	24 1133 26 prologue_end
	callq	__ZN4core3cmp5impls50_$LT$impl$u20$core..cmp..Ord$u20$for$u20$usize$GT$3cmp17h5b0351a3e713eef3E
	movb	%al, -18(%rbp)
	.loc	24 0 26 is_stmt 0
	movb	-18(%rbp), %al
	.loc	24 1133 21
	movb	%al, -17(%rbp)
	.loc	24 1134 18 is_stmt 1
	movb	-17(%rbp), %al
	addq	$32, %rsp
	popq	%rbp
	retq
Ltmp320:
Lfunc_end89:
	.cfi_endproc

	.globl	__ZN4core3cmp5impls69_$LT$impl$u20$core..cmp..PartialEq$LT$$RF$B$GT$$u20$for$u20$$RF$A$GT$2eq17hc8af45ed63c4bcd7E
	.p2align	4, 0x90
__ZN4core3cmp5impls69_$LT$impl$u20$core..cmp..PartialEq$LT$$RF$B$GT$$u20$for$u20$$RF$A$GT$2eq17hc8af45ed63c4bcd7E:
Lfunc_begin90:
	.loc	24 1218 0
	.cfi_startproc
	pushq	%rbp
	.cfi_def_cfa_offset 16
	.cfi_offset %rbp, -16
	movq	%rsp, %rbp
	.cfi_def_cfa_register %rbp
	subq	$32, %rsp
	movq	%rdi, -16(%rbp)
	movq	%rsi, -8(%rbp)
Ltmp321:
	.loc	24 1219 27 prologue_end
	movq	(%rdi), %rax
	movq	8(%rdi), %rcx
	.loc	24 1219 34 is_stmt 0
	movq	(%rsi), %rdx
	movq	8(%rsi), %rsi
	.loc	24 1219 13
	movq	%rax, %rdi
	movq	%rsi, -24(%rbp)
	movq	%rcx, %rsi
	movq	-24(%rbp), %rcx
	callq	__ZN4core5slice81_$LT$impl$u20$core..cmp..PartialEq$LT$$u5b$B$u5d$$GT$$u20$for$u20$$u5b$A$u5d$$GT$2eq17hdf978663729d0faeE
	movb	%al, -25(%rbp)
	.loc	24 0 13
	movb	-25(%rbp), %al
	.loc	24 1220 10 is_stmt 1
	andb	$1, %al
	movzbl	%al, %eax
	addq	$32, %rsp
	popq	%rbp
	retq
Ltmp322:
Lfunc_end90:
	.cfi_endproc

	.globl	__ZN4core3cmp6max_by17ha12300698d47a6bbE
	.p2align	4, 0x90
__ZN4core3cmp6max_by17ha12300698d47a6bbE:
Lfunc_begin91:
	.loc	24 1014 0
	.cfi_startproc
	.cfi_personality 155, _rust_eh_personality
	.cfi_lsda 16, Lexception13
	pushq	%rbp
	.cfi_def_cfa_offset 16
	.cfi_offset %rbp, -16
	movq	%rsp, %rbp
	.cfi_def_cfa_register %rbp
	subq	$96, %rsp
	movq	%rdi, -80(%rbp)
	movq	%rsi, -72(%rbp)
Ltmp326:
	.loc	24 1015 11 prologue_end
	movb	$0, -26(%rbp)
	movb	$0, -25(%rbp)
	movb	$1, -26(%rbp)
	movb	$1, -25(%rbp)
	leaq	-80(%rbp), %rax
	movq	%rax, -48(%rbp)
	leaq	-72(%rbp), %rax
	movq	%rax, -40(%rbp)
	movq	-48(%rbp), %rdi
	movq	-40(%rbp), %rsi
Ltmp323:
	callq	__ZN4core3ops8function6FnOnce9call_once17ha74b02f0f244a66cE
Ltmp324:
	movb	%al, -81(%rbp)
	jmp	LBB91_2
LBB91_1:
	.loc	24 1014 1
	movq	-16(%rbp), %rdi
	callq	__Unwind_Resume
	ud2
LBB91_2:
	.loc	24 0 1 is_stmt 0
	movb	-81(%rbp), %al
	.loc	24 1015 11 is_stmt 1
	movb	%al, -49(%rbp)
	.loc	24 1016 9
	movsbq	-49(%rbp), %rcx
	incq	%rcx
	subq	$2, %rcx
	jb	LBB91_7
	jmp	LBB91_15
LBB91_15:
	jmp	LBB91_5
LBB91_3:
	.loc	24 1019 1
	testb	$1, -26(%rbp)
	jne	LBB91_11
	jmp	LBB91_1
LBB91_4:
	movb	$0, -25(%rbp)
	jmp	LBB91_3
LBB91_5:
	.loc	24 1017 30
	movb	$0, -26(%rbp)
	movq	-80(%rbp), %rax
	movq	%rax, -64(%rbp)
	.loc	24 1015 5
	jmp	LBB91_8
	.loc	24 1015 11 is_stmt 0
	ud2
LBB91_7:
	.loc	24 1016 45 is_stmt 1
	movb	$0, -25(%rbp)
	movq	-72(%rbp), %rax
	movq	%rax, -64(%rbp)
LBB91_8:
	.loc	24 1019 1
	testb	$1, -25(%rbp)
	jne	LBB91_12
LBB91_9:
	testb	$1, -26(%rbp)
	jne	LBB91_13
LBB91_10:
	.loc	24 1019 2 is_stmt 0
	movq	-64(%rbp), %rax
	addq	$96, %rsp
	popq	%rbp
	retq
LBB91_11:
	.loc	24 1019 1
	movb	$0, -26(%rbp)
	jmp	LBB91_1
LBB91_12:
	movb	$0, -25(%rbp)
	jmp	LBB91_9
LBB91_13:
	movb	$0, -26(%rbp)
	jmp	LBB91_10
Ltmp327:
LBB91_14:
Ltmp325:
	.loc	24 0 1
	movq	%rax, -16(%rbp)
	movl	%edx, -8(%rbp)
	jmp	LBB91_4
Lfunc_end91:
	.cfi_endproc
	.section	__TEXT,__gcc_except_tab
	.p2align	2
GCC_except_table91:
Lexception13:
	.byte	255
	.byte	255
	.byte	1
	.uleb128 Lcst_end13-Lcst_begin13
Lcst_begin13:
	.uleb128 Ltmp323-Lfunc_begin91
	.uleb128 Ltmp324-Ltmp323
	.uleb128 Ltmp325-Lfunc_begin91
	.byte	0
	.uleb128 Ltmp324-Lfunc_begin91
	.uleb128 Lfunc_end91-Ltmp324
	.byte	0
	.byte	0
Lcst_end13:
	.p2align	2

	.section	__TEXT,__text,regular,pure_instructions
	.globl	__ZN4core3cmp8Ordering9then_with17h3faf5f9570ae3847E
	.p2align	4, 0x90
__ZN4core3cmp8Ordering9then_with17h3faf5f9570ae3847E:
Lfunc_begin92:
	.loc	24 442 0 is_stmt 1
	.cfi_startproc
	pushq	%rbp
	.cfi_def_cfa_offset 16
	.cfi_offset %rbp, -16
	movq	%rsp, %rbp
	.cfi_def_cfa_register %rbp
	subq	$48, %rsp
	movb	%dil, -19(%rbp)
	movq	%rsi, -16(%rbp)
	movq	%rdx, -8(%rbp)
Ltmp328:
	.loc	24 444 13 prologue_end
	movb	$0, -17(%rbp)
	movb	$1, -17(%rbp)
	movsbq	-19(%rbp), %rax
	cmpq	$0, %rax
	movq	%rdx, -32(%rbp)
	movq	%rsi, -40(%rbp)
	je	LBB92_2
	.loc	24 445 18
	movb	-19(%rbp), %al
	movb	%al, -18(%rbp)
	.loc	24 443 9
	jmp	LBB92_6
LBB92_2:
	.loc	24 444 22
	movb	$0, -17(%rbp)
	movq	-40(%rbp), %rdi
	movq	-32(%rbp), %rsi
	callq	__ZN67_$LT$autocfg..version..Version$u20$as$u20$core..cmp..PartialOrd$GT$2ge28_$u7b$$u7b$closure$u7d$$u7d$28_$u7b$$u7b$closure$u7d$$u7d$17h81072f907d8c6463E
	movb	%al, -18(%rbp)
	.loc	24 443 9
	jmp	LBB92_6
LBB92_4:
	.loc	24 447 6
	movb	-18(%rbp), %al
	addq	$48, %rsp
	popq	%rbp
	retq
LBB92_5:
	.loc	24 447 5 is_stmt 0
	movb	$0, -17(%rbp)
	jmp	LBB92_4
LBB92_6:
	testb	$1, -17(%rbp)
	jne	LBB92_5
	jmp	LBB92_4
Ltmp329:
Lfunc_end92:
	.cfi_endproc

	.globl	__ZN4core3cmp8Ordering9then_with17h6e3ac3b8b7107b61E
	.p2align	4, 0x90
__ZN4core3cmp8Ordering9then_with17h6e3ac3b8b7107b61E:
Lfunc_begin93:
	.loc	24 442 0 is_stmt 1
	.cfi_startproc
	pushq	%rbp
	.cfi_def_cfa_offset 16
	.cfi_offset %rbp, -16
	movq	%rsp, %rbp
	.cfi_def_cfa_register %rbp
	subq	$64, %rsp
	movb	%dil, -42(%rbp)
Ltmp330:
	.loc	24 444 13 prologue_end
	movb	$0, -1(%rbp)
	movb	$1, -1(%rbp)
	movsbq	-42(%rbp), %rax
	cmpq	$0, %rax
	movq	%rsi, -56(%rbp)
Ltmp331:
	je	LBB93_2
Ltmp332:
	.loc	24 445 18
	movb	-42(%rbp), %al
	movb	%al, -41(%rbp)
	.loc	24 443 9
	jmp	LBB93_6
Ltmp333:
LBB93_2:
	.loc	24 444 22
	movb	$0, -1(%rbp)
	movq	-56(%rbp), %rax
	movq	(%rax), %rcx
	movq	%rcx, -40(%rbp)
	movq	8(%rax), %rcx
	movq	%rcx, -32(%rbp)
	movq	16(%rax), %rcx
	movq	%rcx, -24(%rbp)
	movq	24(%rax), %rcx
	movq	%rcx, -16(%rbp)
	leaq	-40(%rbp), %rdi
	callq	__ZN67_$LT$autocfg..version..Version$u20$as$u20$core..cmp..PartialOrd$GT$2ge28_$u7b$$u7b$closure$u7d$$u7d$17h1e429361abedff1dE
	movb	%al, -41(%rbp)
Ltmp334:
	.loc	24 443 9
	jmp	LBB93_6
Ltmp335:
LBB93_4:
	.loc	24 447 6
	movb	-41(%rbp), %al
	addq	$64, %rsp
	popq	%rbp
	retq
Ltmp336:
LBB93_5:
	.loc	24 447 5 is_stmt 0
	movb	$0, -1(%rbp)
	jmp	LBB93_4
Ltmp337:
LBB93_6:
	testb	$1, -1(%rbp)
	jne	LBB93_5
	jmp	LBB93_4
Ltmp338:
Lfunc_end93:
	.cfi_endproc

	.globl	__ZN4core3cmp9PartialEq2ne17h889c47edc5c45739E
	.p2align	4, 0x90
__ZN4core3cmp9PartialEq2ne17h889c47edc5c45739E:
Lfunc_begin94:
	.loc	24 215 0 is_stmt 1
	.cfi_startproc
	pushq	%rbp
	.cfi_def_cfa_offset 16
	.cfi_offset %rbp, -16
	movq	%rsp, %rbp
	.cfi_def_cfa_register %rbp
	subq	$32, %rsp
	movq	%rdi, -16(%rbp)
	movq	%rsi, -8(%rbp)
Ltmp339:
	.loc	24 216 10 prologue_end
	callq	__ZN67_$LT$std..ffi..os_str..OsString$u20$as$u20$core..cmp..PartialEq$GT$2eq17h6aa038918fa6c071E
	movb	%al, -17(%rbp)
	.loc	24 0 10 is_stmt 0
	movb	-17(%rbp), %al
	.loc	24 216 9
	xorb	$-1, %al
	.loc	24 217 6 is_stmt 1
	andb	$1, %al
	movzbl	%al, %eax
	addq	$32, %rsp
	popq	%rbp
	retq
Ltmp340:
Lfunc_end94:
	.cfi_endproc

	.globl	__ZN4core3cmp9PartialEq2ne17hc3482e7ecbf151e1E
	.p2align	4, 0x90
__ZN4core3cmp9PartialEq2ne17hc3482e7ecbf151e1E:
Lfunc_begin95:
	.loc	24 215 0
	.cfi_startproc
	pushq	%rbp
	.cfi_def_cfa_offset 16
	.cfi_offset %rbp, -16
	movq	%rsp, %rbp
	.cfi_def_cfa_register %rbp
	subq	$32, %rsp
	movq	%rdi, -16(%rbp)
	movq	%rsi, -8(%rbp)
Ltmp341:
	.loc	24 216 10 prologue_end
	callq	__ZN60_$LT$core..cmp..Ordering$u20$as$u20$core..cmp..PartialEq$GT$2eq17h3c814f18ce9ea27fE
	movb	%al, -17(%rbp)
	.loc	24 0 10 is_stmt 0
	movb	-17(%rbp), %al
	.loc	24 216 9
	xorb	$-1, %al
	.loc	24 217 6 is_stmt 1
	andb	$1, %al
	movzbl	%al, %eax
	addq	$32, %rsp
	popq	%rbp
	retq
Ltmp342:
Lfunc_end95:
	.cfi_endproc

	.globl	__ZN4core3fmt10ArgumentV13new17h19f5efbf29bb9d76E
	.p2align	4, 0x90
__ZN4core3fmt10ArgumentV13new17h19f5efbf29bb9d76E:
Lfunc_begin96:
	.loc	20 281 0
	.cfi_startproc
	pushq	%rbp
	.cfi_def_cfa_offset 16
	.cfi_offset %rbp, -16
	movq	%rsp, %rbp
	.cfi_def_cfa_register %rbp
	subq	$72, %rsp
	movq	%rdi, -32(%rbp)
	movq	%rsi, -24(%rbp)
Ltmp343:
	.loc	20 290 42 prologue_end
	movq	%rsi, -16(%rbp)
	movq	-16(%rbp), %rax
	movq	%rdi, -56(%rbp)
	movq	%rax, -64(%rbp)
	.loc	20 0 42 is_stmt 0
	movq	-56(%rbp), %rax
	.loc	20 290 68
	movq	%rax, -8(%rbp)
	movq	-8(%rbp), %rcx
	movq	%rcx, -72(%rbp)
	.loc	20 0 68
	movq	-72(%rbp), %rax
	.loc	20 290 18
	movq	%rax, -48(%rbp)
	movq	-64(%rbp), %rcx
	movq	%rcx, -40(%rbp)
	.loc	20 291 6 is_stmt 1
	movq	-48(%rbp), %rax
	movq	-40(%rbp), %rdx
	addq	$72, %rsp
	popq	%rbp
	retq
Ltmp344:
Lfunc_end96:
	.cfi_endproc

	.globl	__ZN4core3fmt10ArgumentV13new17h3c9ac15a5ed26396E
	.p2align	4, 0x90
__ZN4core3fmt10ArgumentV13new17h3c9ac15a5ed26396E:
Lfunc_begin97:
	.loc	20 281 0
	.cfi_startproc
	pushq	%rbp
	.cfi_def_cfa_offset 16
	.cfi_offset %rbp, -16
	movq	%rsp, %rbp
	.cfi_def_cfa_register %rbp
	subq	$72, %rsp
	movq	%rdi, -32(%rbp)
	movq	%rsi, -24(%rbp)
Ltmp345:
	.loc	20 290 42 prologue_end
	movq	%rsi, -16(%rbp)
	movq	-16(%rbp), %rax
	movq	%rdi, -56(%rbp)
	movq	%rax, -64(%rbp)
	.loc	20 0 42 is_stmt 0
	movq	-56(%rbp), %rax
	.loc	20 290 68
	movq	%rax, -8(%rbp)
	movq	-8(%rbp), %rcx
	movq	%rcx, -72(%rbp)
	.loc	20 0 68
	movq	-72(%rbp), %rax
	.loc	20 290 18
	movq	%rax, -48(%rbp)
	movq	-64(%rbp), %rcx
	movq	%rcx, -40(%rbp)
	.loc	20 291 6 is_stmt 1
	movq	-48(%rbp), %rax
	movq	-40(%rbp), %rdx
	addq	$72, %rsp
	popq	%rbp
	retq
Ltmp346:
Lfunc_end97:
	.cfi_endproc

	.globl	__ZN4core3fmt10ArgumentV13new17h48ded1f9a098076bE
	.p2align	4, 0x90
__ZN4core3fmt10ArgumentV13new17h48ded1f9a098076bE:
Lfunc_begin98:
	.loc	20 281 0
	.cfi_startproc
	pushq	%rbp
	.cfi_def_cfa_offset 16
	.cfi_offset %rbp, -16
	movq	%rsp, %rbp
	.cfi_def_cfa_register %rbp
	subq	$72, %rsp
	movq	%rdi, -32(%rbp)
	movq	%rsi, -24(%rbp)
Ltmp347:
	.loc	20 290 42 prologue_end
	movq	%rsi, -16(%rbp)
	movq	-16(%rbp), %rax
	movq	%rdi, -56(%rbp)
	movq	%rax, -64(%rbp)
	.loc	20 0 42 is_stmt 0
	movq	-56(%rbp), %rax
	.loc	20 290 68
	movq	%rax, -8(%rbp)
	movq	-8(%rbp), %rcx
	movq	%rcx, -72(%rbp)
	.loc	20 0 68
	movq	-72(%rbp), %rax
	.loc	20 290 18
	movq	%rax, -48(%rbp)
	movq	-64(%rbp), %rcx
	movq	%rcx, -40(%rbp)
	.loc	20 291 6 is_stmt 1
	movq	-48(%rbp), %rax
	movq	-40(%rbp), %rdx
	addq	$72, %rsp
	popq	%rbp
	retq
Ltmp348:
Lfunc_end98:
	.cfi_endproc

	.globl	__ZN4core3fmt10ArgumentV13new17h5ea03da6b00edcdeE
	.p2align	4, 0x90
__ZN4core3fmt10ArgumentV13new17h5ea03da6b00edcdeE:
Lfunc_begin99:
	.loc	20 281 0
	.cfi_startproc
	pushq	%rbp
	.cfi_def_cfa_offset 16
	.cfi_offset %rbp, -16
	movq	%rsp, %rbp
	.cfi_def_cfa_register %rbp
	subq	$72, %rsp
	movq	%rdi, -32(%rbp)
	movq	%rsi, -24(%rbp)
Ltmp349:
	.loc	20 290 42 prologue_end
	movq	%rsi, -16(%rbp)
	movq	-16(%rbp), %rax
	movq	%rdi, -56(%rbp)
	movq	%rax, -64(%rbp)
	.loc	20 0 42 is_stmt 0
	movq	-56(%rbp), %rax
	.loc	20 290 68
	movq	%rax, -8(%rbp)
	movq	-8(%rbp), %rcx
	movq	%rcx, -72(%rbp)
	.loc	20 0 68
	movq	-72(%rbp), %rax
	.loc	20 290 18
	movq	%rax, -48(%rbp)
	movq	-64(%rbp), %rcx
	movq	%rcx, -40(%rbp)
	.loc	20 291 6 is_stmt 1
	movq	-48(%rbp), %rax
	movq	-40(%rbp), %rdx
	addq	$72, %rsp
	popq	%rbp
	retq
Ltmp350:
Lfunc_end99:
	.cfi_endproc

	.globl	__ZN4core3fmt10ArgumentV13new17h71b8713f44d70aa9E
	.p2align	4, 0x90
__ZN4core3fmt10ArgumentV13new17h71b8713f44d70aa9E:
Lfunc_begin100:
	.loc	20 281 0
	.cfi_startproc
	pushq	%rbp
	.cfi_def_cfa_offset 16
	.cfi_offset %rbp, -16
	movq	%rsp, %rbp
	.cfi_def_cfa_register %rbp
	subq	$72, %rsp
	movq	%rdi, -32(%rbp)
	movq	%rsi, -24(%rbp)
Ltmp351:
	.loc	20 290 42 prologue_end
	movq	%rsi, -16(%rbp)
	movq	-16(%rbp), %rax
	movq	%rdi, -56(%rbp)
	movq	%rax, -64(%rbp)
	.loc	20 0 42 is_stmt 0
	movq	-56(%rbp), %rax
	.loc	20 290 68
	movq	%rax, -8(%rbp)
	movq	-8(%rbp), %rcx
	movq	%rcx, -72(%rbp)
	.loc	20 0 68
	movq	-72(%rbp), %rax
	.loc	20 290 18
	movq	%rax, -48(%rbp)
	movq	-64(%rbp), %rcx
	movq	%rcx, -40(%rbp)
	.loc	20 291 6 is_stmt 1
	movq	-48(%rbp), %rax
	movq	-40(%rbp), %rdx
	addq	$72, %rsp
	popq	%rbp
	retq
Ltmp352:
Lfunc_end100:
	.cfi_endproc

	.globl	__ZN4core3fmt10ArgumentV13new17hc606abbfb6b75d42E
	.p2align	4, 0x90
__ZN4core3fmt10ArgumentV13new17hc606abbfb6b75d42E:
Lfunc_begin101:
	.loc	20 281 0
	.cfi_startproc
	pushq	%rbp
	.cfi_def_cfa_offset 16
	.cfi_offset %rbp, -16
	movq	%rsp, %rbp
	.cfi_def_cfa_register %rbp
	subq	$72, %rsp
	movq	%rdi, -32(%rbp)
	movq	%rsi, -24(%rbp)
Ltmp353:
	.loc	20 290 42 prologue_end
	movq	%rsi, -16(%rbp)
	movq	-16(%rbp), %rax
	movq	%rdi, -56(%rbp)
	movq	%rax, -64(%rbp)
	.loc	20 0 42 is_stmt 0
	movq	-56(%rbp), %rax
	.loc	20 290 68
	movq	%rax, -8(%rbp)
	movq	-8(%rbp), %rcx
	movq	%rcx, -72(%rbp)
	.loc	20 0 68
	movq	-72(%rbp), %rax
	.loc	20 290 18
	movq	%rax, -48(%rbp)
	movq	-64(%rbp), %rcx
	movq	%rcx, -40(%rbp)
	.loc	20 291 6 is_stmt 1
	movq	-48(%rbp), %rax
	movq	-40(%rbp), %rdx
	addq	$72, %rsp
	popq	%rbp
	retq
Ltmp354:
Lfunc_end101:
	.cfi_endproc

	.p2align	4, 0x90
__ZN4core3fmt3num52_$LT$impl$u20$core..fmt..Debug$u20$for$u20$usize$GT$3fmt17hea77f076042f82f5E:
Lfunc_begin102:
	.file	25 "/rustc/6c8927b0cf80ceee19386026cf9d7fd4fd9d486f/src/libcore/fmt/num.rs"
	.loc	25 148 0
	.cfi_startproc
	pushq	%rbp
	.cfi_def_cfa_offset 16
	.cfi_offset %rbp, -16
	movq	%rsp, %rbp
	.cfi_def_cfa_register %rbp
	subq	$48, %rsp
	movq	%rdi, -16(%rbp)
	movq	%rsi, -8(%rbp)
	movq	%rdi, -32(%rbp)
Ltmp355:
	.loc	25 149 20 prologue_end
	movq	%rsi, %rdi
	movq	%rsi, -40(%rbp)
	callq	__ZN4core3fmt9Formatter15debug_lower_hex17hd07f6fde8d0365dfE
	movb	%al, -41(%rbp)
	.loc	25 0 20 is_stmt 0
	movb	-41(%rbp), %al
	.loc	25 149 17
	testb	$1, %al
	jne	LBB102_3
	jmp	LBB102_2
LBB102_2:
	.loc	25 0 17
	movq	-40(%rbp), %rdi
	.loc	25 151 27 is_stmt 1
	callq	__ZN4core3fmt9Formatter15debug_upper_hex17hf480c256a9c81c1eE
	movb	%al, -42(%rbp)
	jmp	LBB102_5
LBB102_3:
	.loc	25 0 27 is_stmt 0
	movq	-32(%rbp), %rdi
	movq	-40(%rbp), %rsi
	.loc	25 150 21 is_stmt 1
	callq	__ZN4core3fmt3num55_$LT$impl$u20$core..fmt..LowerHex$u20$for$u20$usize$GT$3fmt17hc47c170655f2f8b1E
	andb	$1, %al
	movb	%al, -17(%rbp)
	.loc	25 149 17
	jmp	LBB102_11
LBB102_5:
	.loc	25 0 17 is_stmt 0
	movb	-42(%rbp), %al
	.loc	25 151 24 is_stmt 1
	testb	$1, %al
	jne	LBB102_7
	jmp	LBB102_6
LBB102_6:
	.loc	25 0 24 is_stmt 0
	movq	-32(%rbp), %rdi
	movq	-40(%rbp), %rsi
	.loc	25 154 21 is_stmt 1
	callq	__ZN4core3fmt3num3imp54_$LT$impl$u20$core..fmt..Display$u20$for$u20$usize$GT$3fmt17h12ea2856299c9b06E
	andb	$1, %al
	movb	%al, -17(%rbp)
	jmp	LBB102_9
LBB102_7:
	.loc	25 0 21 is_stmt 0
	movq	-32(%rbp), %rdi
	movq	-40(%rbp), %rsi
	.loc	25 152 21 is_stmt 1
	callq	__ZN4core3fmt3num55_$LT$impl$u20$core..fmt..UpperHex$u20$for$u20$usize$GT$3fmt17he5a77a1ce12f6c22E
	andb	$1, %al
	movb	%al, -17(%rbp)
	.loc	25 151 24
	jmp	LBB102_10
LBB102_9:
	jmp	LBB102_10
LBB102_10:
	.loc	25 149 17
	jmp	LBB102_11
LBB102_11:
	.loc	25 156 14
	movb	-17(%rbp), %al
	andb	$1, %al
	movzbl	%al, %eax
	addq	$48, %rsp
	popq	%rbp
	retq
Ltmp356:
Lfunc_end102:
	.cfi_endproc

	.globl	__ZN4core3fmt8builders9DebugList7entries17hfedfc10fcbfec345E
	.p2align	4, 0x90
__ZN4core3fmt8builders9DebugList7entries17hfedfc10fcbfec345E:
Lfunc_begin103:
	.file	26 "/rustc/6c8927b0cf80ceee19386026cf9d7fd4fd9d486f/src/libcore/fmt/builders.rs"
	.loc	26 656 0
	.cfi_startproc
	.cfi_personality 155, _rust_eh_personality
	.cfi_lsda 16, Lexception14
	pushq	%rbp
	.cfi_def_cfa_offset 16
	.cfi_offset %rbp, -16
	movq	%rsp, %rbp
	.cfi_def_cfa_register %rbp
	subq	$128, %rsp
	movq	%rdi, -56(%rbp)
	movq	%rsi, -48(%rbp)
	movq	%rdx, -40(%rbp)
Ltmp363:
	.loc	26 664 9 prologue_end
	movb	$0, -57(%rbp)
	movq	%rdi, -104(%rbp)
	.loc	26 661 22
	movq	%rsi, %rdi
	movq	%rdx, %rsi
	callq	__ZN63_$LT$I$u20$as$u20$core..iter..traits..collect..IntoIterator$GT$9into_iter17h66433ad8d7243149E
	movq	%rax, -112(%rbp)
	movq	%rdx, -120(%rbp)
	jmp	LBB103_2
LBB103_1:
	.loc	26 656 5
	movq	-32(%rbp), %rdi
	callq	__Unwind_Resume
	ud2
LBB103_2:
	.loc	26 0 5 is_stmt 0
	movq	-112(%rbp), %rax
	.loc	26 661 22 is_stmt 1
	movq	%rax, -96(%rbp)
	movq	-120(%rbp), %rcx
	movq	%rcx, -88(%rbp)
LBB103_3:
Ltmp357:
	.loc	26 0 22 is_stmt 0
	leaq	-96(%rbp), %rdi
Ltmp364:
	.loc	26 661 22
	callq	__ZN85_$LT$core..slice..Iter$LT$T$GT$$u20$as$u20$core..iter..traits..iterator..Iterator$GT$4next17he28cba8a4f9b0dffE
Ltmp358:
	movq	%rax, -128(%rbp)
	jmp	LBB103_5
Ltmp365:
LBB103_4:
	.loc	26 663 9 is_stmt 1
	jmp	LBB103_1
LBB103_5:
	.loc	26 0 9 is_stmt 0
	movq	-128(%rbp), %rax
Ltmp366:
	.loc	26 661 22 is_stmt 1
	movq	%rax, -80(%rbp)
	.loc	26 661 13 is_stmt 0
	movq	-80(%rbp), %rcx
	testq	%rcx, %rcx
	setne	%dl
	movzbl	%dl, %esi
	movl	%esi, %ecx
	je	LBB103_6
	jmp	LBB103_17
LBB103_17:
	jmp	LBB103_8
Ltmp367:
LBB103_6:
	.loc	26 663 9 is_stmt 1
	movb	$0, -57(%rbp)
Ltmp368:
	.loc	26 663 9 is_stmt 0
	jmp	LBB103_12
Ltmp369:
	.loc	26 661 22 is_stmt 1
	ud2
LBB103_8:
	.loc	26 661 13 is_stmt 0
	movq	-80(%rbp), %rax
	movq	%rax, -16(%rbp)
Ltmp370:
	.loc	26 661 13
	movb	$1, -57(%rbp)
	movq	%rax, -8(%rbp)
Ltmp371:
	.loc	26 661 22
	movb	$0, -57(%rbp)
	movq	%rax, -72(%rbp)
Ltmp360:
Ltmp372:
	.loc	26 662 13 is_stmt 1
	leaq	l___unnamed_2(%rip), %rdx
	leaq	-72(%rbp), %rsi
	movq	-104(%rbp), %rdi
	callq	__ZN4core3fmt8builders9DebugList5entry17h2dea26f6c644471aE
Ltmp361:
	jmp	LBB103_9
Ltmp373:
LBB103_9:
	.loc	26 663 9
	jmp	LBB103_11
LBB103_10:
	jmp	LBB103_14
Ltmp374:
LBB103_11:
	.loc	26 663 9 is_stmt 0
	movb	$0, -57(%rbp)
	.loc	26 661 9 is_stmt 1
	jmp	LBB103_3
Ltmp375:
LBB103_12:
	.loc	26 0 9 is_stmt 0
	movq	-104(%rbp), %rax
	.loc	26 665 6 is_stmt 1
	addq	$128, %rsp
	popq	%rbp
	retq
LBB103_13:
Ltmp376:
	.loc	26 663 9
	movb	$0, -57(%rbp)
	jmp	LBB103_4
LBB103_14:
	testb	$1, -57(%rbp)
	jne	LBB103_13
	jmp	LBB103_4
Ltmp377:
LBB103_15:
Ltmp359:
	.loc	26 0 9 is_stmt 0
	movq	%rax, -32(%rbp)
	movl	%edx, -24(%rbp)
	jmp	LBB103_14
LBB103_16:
Ltmp362:
	movq	%rax, -32(%rbp)
	movl	%edx, -24(%rbp)
	jmp	LBB103_10
Lfunc_end103:
	.cfi_endproc
	.section	__TEXT,__gcc_except_tab
	.p2align	2
GCC_except_table103:
Lexception14:
	.byte	255
	.byte	255
	.byte	1
	.uleb128 Lcst_end14-Lcst_begin14
Lcst_begin14:
	.uleb128 Lfunc_begin103-Lfunc_begin103
	.uleb128 Ltmp357-Lfunc_begin103
	.byte	0
	.byte	0
	.uleb128 Ltmp357-Lfunc_begin103
	.uleb128 Ltmp358-Ltmp357
	.uleb128 Ltmp359-Lfunc_begin103
	.byte	0
	.uleb128 Ltmp360-Lfunc_begin103
	.uleb128 Ltmp361-Ltmp360
	.uleb128 Ltmp362-Lfunc_begin103
	.byte	0
Lcst_end14:
	.p2align	2

	.section	__TEXT,__text,regular,pure_instructions
	.p2align	4, 0x90
__ZN4core3fmt9Arguments6new_v117h08081d8f669621cdE:
Lfunc_begin104:
	.loc	20 327 0 is_stmt 1
	.cfi_startproc
	pushq	%rbp
	.cfi_def_cfa_offset 16
	.cfi_offset %rbp, -16
	movq	%rsp, %rbp
	.cfi_def_cfa_register %rbp
	subq	$48, %rsp
	movq	%rdi, %rax
	movq	%rsi, -32(%rbp)
	movq	%rdx, -24(%rbp)
	movq	%rcx, -16(%rbp)
	movq	%r8, -8(%rbp)
Ltmp378:
	.loc	20 328 34 prologue_end
	movq	$0, -48(%rbp)
	.loc	20 328 9 is_stmt 0
	movq	%rsi, (%rdi)
	movq	%rdx, 8(%rdi)
	movq	-48(%rbp), %rdx
	movq	-40(%rbp), %rsi
	movq	%rdx, 16(%rdi)
	movq	%rsi, 24(%rdi)
	movq	%rcx, 32(%rdi)
	movq	%r8, 40(%rdi)
	.loc	20 329 6 is_stmt 1
	addq	$48, %rsp
	popq	%rbp
	retq
Ltmp379:
Lfunc_end104:
	.cfi_endproc

	.globl	__ZN4core3mem11size_of_val17he68bd7e3af0680d2E
	.p2align	4, 0x90
__ZN4core3mem11size_of_val17he68bd7e3af0680d2E:
Lfunc_begin105:
	.file	27 "/rustc/6c8927b0cf80ceee19386026cf9d7fd4fd9d486f/src/libcore/mem/mod.rs"
	.loc	27 335 0
	.cfi_startproc
	pushq	%rbp
	.cfi_def_cfa_offset 16
	.cfi_offset %rbp, -16
	movq	%rsp, %rbp
	.cfi_def_cfa_register %rbp
	subq	$32, %rsp
	movq	%rdi, -24(%rbp)
	movq	%rsi, -16(%rbp)
Ltmp380:
	.loc	27 336 5 prologue_end
	shlq	$0, %rsi
	movq	%rsi, -8(%rbp)
	movq	-8(%rbp), %rax
	movq	%rax, -32(%rbp)
	.loc	27 0 5 is_stmt 0
	movq	-32(%rbp), %rax
	.loc	27 337 2 is_stmt 1
	addq	$32, %rsp
	popq	%rbp
	retq
Ltmp381:
Lfunc_end105:
	.cfi_endproc

	.globl	__ZN4core3mem4drop17h69f48abf65eec418E
	.p2align	4, 0x90
__ZN4core3mem4drop17h69f48abf65eec418E:
Lfunc_begin106:
	.loc	27 883 0
	.cfi_startproc
	pushq	%rbp
	.cfi_def_cfa_offset 16
	.cfi_offset %rbp, -16
	movq	%rsp, %rbp
	.cfi_def_cfa_register %rbp
	subq	$16, %rsp
	movl	%edi, -4(%rbp)
Ltmp382:
	.loc	27 883 24 prologue_end
	leaq	-4(%rbp), %rdi
Ltmp383:
	callq	__ZN4core3ptr13drop_in_place17hbe1d3802e1c5cdd5E
Ltmp384:
	.loc	27 883 25 is_stmt 0
	addq	$16, %rsp
	popq	%rbp
	retq
Ltmp385:
Lfunc_end106:
	.cfi_endproc

	.globl	__ZN4core3mem4drop17hbc9222302fe05dbcE
	.p2align	4, 0x90
__ZN4core3mem4drop17hbc9222302fe05dbcE:
Lfunc_begin107:
	.loc	27 883 0 is_stmt 1
	.cfi_startproc
	pushq	%rbp
	.cfi_def_cfa_offset 16
	.cfi_offset %rbp, -16
	movq	%rsp, %rbp
	.cfi_def_cfa_register %rbp
Ltmp386:
	.loc	27 883 24 prologue_end
	callq	__ZN4core3ptr13drop_in_place17h1f1dc481d6d42004E
Ltmp387:
	.loc	27 883 25 is_stmt 0
	popq	%rbp
	retq
Ltmp388:
Lfunc_end107:
	.cfi_endproc

	.globl	__ZN4core3mem4drop17hd19dd28d049d4b02E
	.p2align	4, 0x90
__ZN4core3mem4drop17hd19dd28d049d4b02E:
Lfunc_begin108:
	.loc	27 883 0 is_stmt 1
	.cfi_startproc
	pushq	%rbp
	.cfi_def_cfa_offset 16
	.cfi_offset %rbp, -16
	movq	%rsp, %rbp
	.cfi_def_cfa_register %rbp
Ltmp389:
	.loc	27 883 24 prologue_end
	callq	__ZN4core3ptr13drop_in_place17h6d6c7d67362d5d69E
Ltmp390:
	.loc	27 883 25 is_stmt 0
	popq	%rbp
	retq
Ltmp391:
Lfunc_end108:
	.cfi_endproc

	.globl	__ZN4core3mem4swap17h7be25f740e86d262E
	.p2align	4, 0x90
__ZN4core3mem4swap17h7be25f740e86d262E:
Lfunc_begin109:
	.loc	27 686 0 is_stmt 1
	.cfi_startproc
	pushq	%rbp
	.cfi_def_cfa_offset 16
	.cfi_offset %rbp, -16
	movq	%rsp, %rbp
	.cfi_def_cfa_register %rbp
	subq	$16, %rsp
	movq	%rdi, -16(%rbp)
	movq	%rsi, -8(%rbp)
Ltmp392:
	.loc	27 690 9 prologue_end
	callq	__ZN4core3ptr23swap_nonoverlapping_one17he25cd5d3cd7e8e2cE
	.loc	27 692 2
	addq	$16, %rsp
	popq	%rbp
	retq
Ltmp393:
Lfunc_end109:
	.cfi_endproc

	.globl	__ZN4core3mem4swap17he139cc1f4b8b5504E
	.p2align	4, 0x90
__ZN4core3mem4swap17he139cc1f4b8b5504E:
Lfunc_begin110:
	.loc	27 686 0
	.cfi_startproc
	pushq	%rbp
	.cfi_def_cfa_offset 16
	.cfi_offset %rbp, -16
	movq	%rsp, %rbp
	.cfi_def_cfa_register %rbp
	subq	$16, %rsp
	movq	%rdi, -16(%rbp)
	movq	%rsi, -8(%rbp)
Ltmp394:
	.loc	27 690 9 prologue_end
	callq	__ZN4core3ptr23swap_nonoverlapping_one17he11d658e684ca37dE
	.loc	27 692 2
	addq	$16, %rsp
	popq	%rbp
	retq
Ltmp395:
Lfunc_end110:
	.cfi_endproc

	.globl	__ZN4core3mem4take17h78f35b357447dc75E
	.p2align	4, 0x90
__ZN4core3mem4take17h78f35b357447dc75E:
Lfunc_begin111:
	.loc	27 750 0
	.cfi_startproc
	pushq	%rbp
	.cfi_def_cfa_offset 16
	.cfi_offset %rbp, -16
	movq	%rsp, %rbp
	.cfi_def_cfa_register %rbp
	subq	$48, %rsp
	movq	%rdi, -8(%rbp)
	movq	%rdi, -16(%rbp)
Ltmp396:
	.loc	27 751 19 prologue_end
	callq	__ZN72_$LT$core..option..Option$LT$T$GT$$u20$as$u20$core..default..Default$GT$7default17hfb7c93765ead50c9E
	movq	%rax, -24(%rbp)
	movq	%rdx, -32(%rbp)
	.loc	27 0 19 is_stmt 0
	movq	-16(%rbp), %rdi
	movq	-24(%rbp), %rsi
	movq	-32(%rbp), %rdx
	.loc	27 751 5
	callq	__ZN4core3mem7replace17h17d4135becb7ce65E
	movq	%rax, -40(%rbp)
	movq	%rdx, -48(%rbp)
	.loc	27 0 5
	movq	-40(%rbp), %rax
	movq	-48(%rbp), %rdx
	.loc	27 752 2 is_stmt 1
	addq	$48, %rsp
	popq	%rbp
	retq
Ltmp397:
Lfunc_end111:
	.cfi_endproc

	.globl	__ZN4core3mem4take17hbe31c1962c17dc86E
	.p2align	4, 0x90
__ZN4core3mem4take17hbe31c1962c17dc86E:
Lfunc_begin112:
	.loc	27 750 0
	.cfi_startproc
	pushq	%rbp
	.cfi_def_cfa_offset 16
	.cfi_offset %rbp, -16
	movq	%rsp, %rbp
	.cfi_def_cfa_register %rbp
	subq	$32, %rsp
	movq	%rdi, -8(%rbp)
	movq	%rdi, -16(%rbp)
Ltmp398:
	.loc	27 751 19 prologue_end
	callq	__ZN72_$LT$core..option..Option$LT$T$GT$$u20$as$u20$core..default..Default$GT$7default17h06c34838304840f6E
	movl	%eax, -20(%rbp)
	movl	%edx, -24(%rbp)
	.loc	27 0 19 is_stmt 0
	movq	-16(%rbp), %rdi
	movl	-20(%rbp), %esi
	movl	-24(%rbp), %edx
	.loc	27 751 5
	callq	__ZN4core3mem7replace17h77c4ce9f1480f68fE
	movl	%eax, -28(%rbp)
	movl	%edx, -32(%rbp)
	.loc	27 0 5
	movl	-28(%rbp), %eax
	movl	-32(%rbp), %edx
	.loc	27 752 2 is_stmt 1
	addq	$32, %rsp
	popq	%rbp
	retq
Ltmp399:
Lfunc_end112:
	.cfi_endproc

	.globl	__ZN4core3mem6forget17hb29ede92ab297425E
	.p2align	4, 0x90
__ZN4core3mem6forget17hb29ede92ab297425E:
Lfunc_begin113:
	.loc	27 147 0
	.cfi_startproc
	pushq	%rbp
	.cfi_def_cfa_offset 16
	.cfi_offset %rbp, -16
	movq	%rsp, %rbp
	.cfi_def_cfa_register %rbp
	subq	$24, %rsp
	movq	%rdi, -24(%rbp)
	movq	%rdi, -8(%rbp)
Ltmp400:
	.loc	7 83 9 prologue_end
	movq	%rdi, -16(%rbp)
Ltmp401:
	.loc	27 149 2
	addq	$24, %rsp
	popq	%rbp
	retq
Ltmp402:
Lfunc_end113:
	.cfi_endproc

	.globl	__ZN4core3mem7replace17h17d4135becb7ce65E
	.p2align	4, 0x90
__ZN4core3mem7replace17h17d4135becb7ce65E:
Lfunc_begin114:
	.loc	27 814 0
	.cfi_startproc
	.cfi_personality 155, _rust_eh_personality
	.cfi_lsda 16, Lexception15
	pushq	%rbp
	.cfi_def_cfa_offset 16
	.cfi_offset %rbp, -16
	movq	%rsp, %rbp
	.cfi_def_cfa_register %rbp
	subq	$48, %rsp
	movq	%rsi, -40(%rbp)
	movq	%rdx, -32(%rbp)
	movq	%rdi, -24(%rbp)
Ltmp403:
	leaq	-40(%rbp), %rsi
Ltmp406:
	.loc	27 815 5 prologue_end
	callq	__ZN4core3mem4swap17he139cc1f4b8b5504E
Ltmp404:
	jmp	LBB114_2
LBB114_1:
	.loc	27 814 1
	movq	-16(%rbp), %rdi
	callq	__Unwind_Resume
	ud2
LBB114_2:
	.loc	27 816 5
	movq	-40(%rbp), %rax
	movq	-32(%rbp), %rdx
	.loc	27 817 2
	addq	$48, %rsp
	popq	%rbp
	retq
LBB114_3:
	.loc	27 817 1 is_stmt 0
	jmp	LBB114_1
Ltmp407:
LBB114_4:
Ltmp405:
	.loc	27 0 1
	movq	%rax, -16(%rbp)
	movl	%edx, -8(%rbp)
	jmp	LBB114_3
Lfunc_end114:
	.cfi_endproc
	.section	__TEXT,__gcc_except_tab
	.p2align	2
GCC_except_table114:
Lexception15:
	.byte	255
	.byte	255
	.byte	1
	.uleb128 Lcst_end15-Lcst_begin15
Lcst_begin15:
	.uleb128 Ltmp403-Lfunc_begin114
	.uleb128 Ltmp404-Ltmp403
	.uleb128 Ltmp405-Lfunc_begin114
	.byte	0
	.uleb128 Ltmp404-Lfunc_begin114
	.uleb128 Lfunc_end114-Ltmp404
	.byte	0
	.byte	0
Lcst_end15:
	.p2align	2

	.section	__TEXT,__text,regular,pure_instructions
	.globl	__ZN4core3mem7replace17h77c4ce9f1480f68fE
	.p2align	4, 0x90
__ZN4core3mem7replace17h77c4ce9f1480f68fE:
Lfunc_begin115:
	.loc	27 814 0 is_stmt 1
	.cfi_startproc
	.cfi_personality 155, _rust_eh_personality
	.cfi_lsda 16, Lexception16
	pushq	%rbp
	.cfi_def_cfa_offset 16
	.cfi_offset %rbp, -16
	movq	%rsp, %rbp
	.cfi_def_cfa_register %rbp
	subq	$32, %rsp
	movl	%esi, -32(%rbp)
	movl	%edx, -28(%rbp)
	movq	%rdi, -24(%rbp)
Ltmp408:
	leaq	-32(%rbp), %rsi
Ltmp411:
	.loc	27 815 5 prologue_end
	callq	__ZN4core3mem4swap17h7be25f740e86d262E
Ltmp409:
	jmp	LBB115_2
LBB115_1:
	.loc	27 814 1
	movq	-16(%rbp), %rdi
	callq	__Unwind_Resume
	ud2
LBB115_2:
	.loc	27 816 5
	movl	-32(%rbp), %eax
	movl	-28(%rbp), %edx
	.loc	27 817 2
	addq	$32, %rsp
	popq	%rbp
	retq
LBB115_3:
	.loc	27 817 1 is_stmt 0
	leaq	-32(%rbp), %rdi
	callq	__ZN4core3ptr13drop_in_place17hda7961c2c22c8aa2E
	jmp	LBB115_1
Ltmp412:
LBB115_4:
Ltmp410:
	.loc	27 0 1
	movq	%rax, -16(%rbp)
	movl	%edx, -8(%rbp)
	jmp	LBB115_3
Lfunc_end115:
	.cfi_endproc
	.section	__TEXT,__gcc_except_tab
	.p2align	2
GCC_except_table115:
Lexception16:
	.byte	255
	.byte	255
	.byte	1
	.uleb128 Lcst_end16-Lcst_begin16
Lcst_begin16:
	.uleb128 Ltmp408-Lfunc_begin115
	.uleb128 Ltmp409-Ltmp408
	.uleb128 Ltmp410-Lfunc_begin115
	.byte	0
	.uleb128 Ltmp409-Lfunc_begin115
	.uleb128 Lfunc_end115-Ltmp409
	.byte	0
	.byte	0
Lcst_end16:
	.p2align	2

	.section	__TEXT,__text,regular,pure_instructions
	.p2align	4, 0x90
__ZN4core3num12NonZeroUsize13new_unchecked17h2214e87851c5de0eE:
Lfunc_begin116:
	.file	28 "/rustc/6c8927b0cf80ceee19386026cf9d7fd4fd9d486f/src/libcore/num/mod.rs"
	.loc	28 83 0 is_stmt 1
	.cfi_startproc
	pushq	%rbp
	.cfi_def_cfa_offset 16
	.cfi_offset %rbp, -16
	movq	%rsp, %rbp
	.cfi_def_cfa_register %rbp
	subq	$16, %rsp
	movq	%rdi, -8(%rbp)
Ltmp413:
	.loc	28 85 30 prologue_end
	movq	%rdi, -16(%rbp)
	.loc	28 86 18
	movq	-16(%rbp), %rax
	addq	$16, %rsp
	popq	%rbp
	retq
Ltmp414:
Lfunc_end116:
	.cfi_endproc

	.p2align	4, 0x90
__ZN4core3num12NonZeroUsize3get17h88fdf811ef83242cE:
Lfunc_begin117:
	.loc	28 105 0
	.cfi_startproc
	pushq	%rbp
	.cfi_def_cfa_offset 16
	.cfi_offset %rbp, -16
	movq	%rsp, %rbp
	.cfi_def_cfa_register %rbp
	pushq	%rax
	movq	%rdi, -8(%rbp)
Ltmp415:
	.loc	28 107 18 prologue_end
	movq	%rdi, %rax
	addq	$8, %rsp
	popq	%rbp
	retq
Ltmp416:
Lfunc_end117:
	.cfi_endproc

	.p2align	4, 0x90
__ZN4core3num23_$LT$impl$u20$usize$GT$10count_ones17h9026153917809e3fE:
Lfunc_begin118:
	.loc	28 2636 0
	.cfi_startproc
	pushq	%rbp
	.cfi_def_cfa_offset 16
	.cfi_offset %rbp, -16
	movq	%rsp, %rbp
	.cfi_def_cfa_register %rbp
	subq	$24, %rsp
	movq	%rdi, -16(%rbp)
Ltmp417:
	.loc	28 2637 17 prologue_end
	movq	%rdi, %rax
	shrq	%rax
	movabsq	$6148914691236517205, %rcx
	andq	%rcx, %rax
	subq	%rax, %rdi
	movabsq	$3689348814741910323, %rax
	movq	%rdi, %rcx
	andq	%rax, %rcx
	shrq	$2, %rdi
	andq	%rax, %rdi
	addq	%rdi, %rcx
	movq	%rcx, %rax
	shrq	$4, %rax
	addq	%rax, %rcx
	movabsq	$1085102592571150095, %rax
	andq	%rax, %rcx
	movabsq	$72340172838076673, %rax
	imulq	%rax, %rcx
	shrq	$56, %rcx
	movq	%rcx, -8(%rbp)
	movq	-8(%rbp), %rax
	movq	%rax, -24(%rbp)
	.loc	28 0 17 is_stmt 0
	movq	-24(%rbp), %rax
	.loc	28 2637 17
	movl	%eax, %ecx
	.loc	28 2638 14 is_stmt 1
	movl	%ecx, %eax
	addq	$24, %rsp
	popq	%rbp
	retq
Ltmp418:
Lfunc_end118:
	.cfi_endproc

	.p2align	4, 0x90
__ZN4core3num23_$LT$impl$u20$usize$GT$11checked_add17h6ac913fec9c90115E:
Lfunc_begin119:
	.loc	28 2992 0
	.cfi_startproc
	pushq	%rbp
	.cfi_def_cfa_offset 16
	.cfi_offset %rbp, -16
	movq	%rsp, %rbp
	.cfi_def_cfa_register %rbp
	subq	$64, %rsp
	movq	%rdi, -32(%rbp)
	movq	%rsi, -24(%rbp)
Ltmp419:
	.loc	28 2993 30 prologue_end
	callq	__ZN4core3num23_$LT$impl$u20$usize$GT$15overflowing_add17h89c9faf1bdbaa656E
	movq	%rax, -56(%rbp)
	movb	%dl, -57(%rbp)
	.loc	28 0 30 is_stmt 0
	movq	-56(%rbp), %rax
	.loc	28 2993 22
	movq	%rax, -16(%rbp)
	movb	-57(%rbp), %cl
	.loc	28 2993 25
	andb	$1, %cl
	movb	%cl, -2(%rbp)
	movb	-57(%rbp), %cl
Ltmp420:
	.loc	28 27 9 is_stmt 1
	andb	$1, %cl
	movb	%cl, -1(%rbp)
	movb	-1(%rbp), %cl
	movb	%cl, -58(%rbp)
	.loc	28 0 9 is_stmt 0
	movb	-58(%rbp), %al
	.loc	28 2994 17 is_stmt 1
	testb	$1, %al
	jne	LBB119_4
	jmp	LBB119_3
LBB119_3:
	.loc	28 0 17 is_stmt 0
	movq	-56(%rbp), %rax
	.loc	28 2994 46
	movq	%rax, -40(%rbp)
	movq	$1, -48(%rbp)
	.loc	28 2994 17
	jmp	LBB119_5
LBB119_4:
	.loc	28 2994 34
	movq	$0, -48(%rbp)
Ltmp421:
LBB119_5:
	.loc	28 2995 14 is_stmt 1
	movq	-48(%rbp), %rax
	movq	-40(%rbp), %rdx
	addq	$64, %rsp
	popq	%rbp
	retq
Ltmp422:
Lfunc_end119:
	.cfi_endproc

	.p2align	4, 0x90
__ZN4core3num23_$LT$impl$u20$usize$GT$11checked_mul17h51672f26e5a0ed02E:
Lfunc_begin120:
	.loc	28 3076 0
	.cfi_startproc
	pushq	%rbp
	.cfi_def_cfa_offset 16
	.cfi_offset %rbp, -16
	movq	%rsp, %rbp
	.cfi_def_cfa_register %rbp
	subq	$64, %rsp
	movq	%rdi, -32(%rbp)
	movq	%rsi, -24(%rbp)
Ltmp423:
	.loc	28 3077 30 prologue_end
	callq	__ZN4core3num23_$LT$impl$u20$usize$GT$15overflowing_mul17hec60a1f072541831E
	movq	%rax, -56(%rbp)
	movb	%dl, -57(%rbp)
	.loc	28 0 30 is_stmt 0
	movq	-56(%rbp), %rax
	.loc	28 3077 22
	movq	%rax, -16(%rbp)
	movb	-57(%rbp), %cl
	.loc	28 3077 25
	andb	$1, %cl
	movb	%cl, -2(%rbp)
	movb	-57(%rbp), %cl
Ltmp424:
	.loc	28 27 9 is_stmt 1
	andb	$1, %cl
	movb	%cl, -1(%rbp)
	movb	-1(%rbp), %cl
	movb	%cl, -58(%rbp)
	.loc	28 0 9 is_stmt 0
	movb	-58(%rbp), %al
	.loc	28 3078 17 is_stmt 1
	testb	$1, %al
	jne	LBB120_4
	jmp	LBB120_3
LBB120_3:
	.loc	28 0 17 is_stmt 0
	movq	-56(%rbp), %rax
	.loc	28 3078 46
	movq	%rax, -40(%rbp)
	movq	$1, -48(%rbp)
	.loc	28 3078 17
	jmp	LBB120_5
LBB120_4:
	.loc	28 3078 34
	movq	$0, -48(%rbp)
Ltmp425:
LBB120_5:
	.loc	28 3079 14 is_stmt 1
	movq	-48(%rbp), %rax
	movq	-40(%rbp), %rdx
	addq	$64, %rsp
	popq	%rbp
	retq
Ltmp426:
Lfunc_end120:
	.cfi_endproc

	.p2align	4, 0x90
__ZN4core3num23_$LT$impl$u20$usize$GT$12wrapping_add17h0cab3cea1e265a37E:
Lfunc_begin121:
	.loc	28 3438 0
	.cfi_startproc
	pushq	%rbp
	.cfi_def_cfa_offset 16
	.cfi_offset %rbp, -16
	movq	%rsp, %rbp
	.cfi_def_cfa_register %rbp
	subq	$32, %rsp
	movq	%rdi, -24(%rbp)
	movq	%rsi, -16(%rbp)
Ltmp427:
	.loc	28 3439 17 prologue_end
	addq	%rsi, %rdi
	movq	%rdi, -8(%rbp)
	movq	-8(%rbp), %rax
	movq	%rax, -32(%rbp)
	.loc	28 0 17 is_stmt 0
	movq	-32(%rbp), %rax
	.loc	28 3440 14 is_stmt 1
	addq	$32, %rsp
	popq	%rbp
	retq
Ltmp428:
Lfunc_end121:
	.cfi_endproc

	.p2align	4, 0x90
__ZN4core3num23_$LT$impl$u20$usize$GT$12wrapping_sub17h7899daa32c3e0f5cE:
Lfunc_begin122:
	.loc	28 3461 0
	.cfi_startproc
	pushq	%rbp
	.cfi_def_cfa_offset 16
	.cfi_offset %rbp, -16
	movq	%rsp, %rbp
	.cfi_def_cfa_register %rbp
	subq	$32, %rsp
	movq	%rdi, -24(%rbp)
	movq	%rsi, -16(%rbp)
Ltmp429:
	.loc	28 3462 17 prologue_end
	subq	%rsi, %rdi
	movq	%rdi, -8(%rbp)
	movq	-8(%rbp), %rax
	movq	%rax, -32(%rbp)
	.loc	28 0 17 is_stmt 0
	movq	-32(%rbp), %rax
	.loc	28 3463 14 is_stmt 1
	addq	$32, %rsp
	popq	%rbp
	retq
Ltmp430:
Lfunc_end122:
	.cfi_endproc

	.p2align	4, 0x90
__ZN4core3num23_$LT$impl$u20$usize$GT$14saturating_add17hcb7c847e8ad69668E:
Lfunc_begin123:
	.loc	28 3339 0
	.cfi_startproc
	pushq	%rbp
	.cfi_def_cfa_offset 16
	.cfi_offset %rbp, -16
	movq	%rsp, %rbp
	.cfi_def_cfa_register %rbp
	subq	$32, %rsp
	movq	%rdi, -24(%rbp)
	movq	%rsi, -16(%rbp)
Ltmp431:
	.loc	28 3340 17 prologue_end
	addq	%rsi, %rdi
	movq	$-1, %rax
	cmovbq	%rax, %rdi
	movq	%rdi, -8(%rbp)
	movq	-8(%rbp), %rax
	movq	%rax, -32(%rbp)
	.loc	28 0 17 is_stmt 0
	movq	-32(%rbp), %rax
	.loc	28 3341 14 is_stmt 1
	addq	$32, %rsp
	popq	%rbp
	retq
Ltmp432:
Lfunc_end123:
	.cfi_endproc

	.p2align	4, 0x90
__ZN4core3num23_$LT$impl$u20$usize$GT$15is_power_of_two17h3c961175c0111785E:
Lfunc_begin124:
	.loc	28 4176 0
	.cfi_startproc
	pushq	%rbp
	.cfi_def_cfa_offset 16
	.cfi_offset %rbp, -16
	movq	%rsp, %rbp
	.cfi_def_cfa_register %rbp
	subq	$16, %rsp
	movq	%rdi, -8(%rbp)
Ltmp433:
	.loc	28 4177 17 prologue_end
	callq	__ZN4core3num23_$LT$impl$u20$usize$GT$10count_ones17h9026153917809e3fE
	movl	%eax, -12(%rbp)
	.loc	28 0 17 is_stmt 0
	movl	-12(%rbp), %eax
	.loc	28 4177 17
	cmpl	$1, %eax
	sete	%cl
	.loc	28 4178 14 is_stmt 1
	andb	$1, %cl
	movzbl	%cl, %eax
	addq	$16, %rsp
	popq	%rbp
	retq
Ltmp434:
Lfunc_end124:
	.cfi_endproc

	.p2align	4, 0x90
__ZN4core3num23_$LT$impl$u20$usize$GT$15overflowing_add17h89c9faf1bdbaa656E:
Lfunc_begin125:
	.loc	28 3750 0
	.cfi_startproc
	pushq	%rbp
	.cfi_def_cfa_offset 16
	.cfi_offset %rbp, -16
	movq	%rsp, %rbp
	.cfi_def_cfa_register %rbp
	subq	$80, %rsp
	movq	%rdi, -48(%rbp)
	movq	%rsi, -40(%rbp)
Ltmp435:
	.loc	28 3751 30 prologue_end
	addq	%rsi, %rdi
	setb	%al
	andb	$1, %al
	movq	%rdi, -32(%rbp)
	movb	%al, -24(%rbp)
	movq	-32(%rbp), %rcx
	movb	-24(%rbp), %al
	movq	%rcx, -72(%rbp)
	movb	%al, -73(%rbp)
	.loc	28 0 30 is_stmt 0
	movq	-72(%rbp), %rax
	.loc	28 3751 22
	movq	%rax, -16(%rbp)
	movb	-73(%rbp), %cl
	.loc	28 3751 25
	andb	$1, %cl
	movb	%cl, -1(%rbp)
Ltmp436:
	.loc	28 3752 17 is_stmt 1
	movq	%rax, -64(%rbp)
	movb	%cl, -56(%rbp)
Ltmp437:
	.loc	28 3753 14
	movq	-64(%rbp), %rax
	movb	-56(%rbp), %dl
	addq	$80, %rsp
	popq	%rbp
	retq
Ltmp438:
Lfunc_end125:
	.cfi_endproc

	.p2align	4, 0x90
__ZN4core3num23_$LT$impl$u20$usize$GT$15overflowing_mul17hec60a1f072541831E:
Lfunc_begin126:
	.loc	28 3806 0
	.cfi_startproc
	pushq	%rbp
	.cfi_def_cfa_offset 16
	.cfi_offset %rbp, -16
	movq	%rsp, %rbp
	.cfi_def_cfa_register %rbp
	subq	$80, %rsp
	movq	%rdi, -48(%rbp)
	movq	%rsi, -40(%rbp)
Ltmp439:
	.loc	28 3807 26 prologue_end
	movq	%rdi, %rax
	mulq	%rsi
	seto	%cl
	andb	$1, %cl
	movq	%rax, -32(%rbp)
	movb	%cl, -24(%rbp)
	movq	-32(%rbp), %rax
	movb	-24(%rbp), %cl
	movq	%rax, -72(%rbp)
	movb	%cl, -73(%rbp)
	.loc	28 0 26 is_stmt 0
	movq	-72(%rbp), %rax
	.loc	28 3807 18
	movq	%rax, -16(%rbp)
	movb	-73(%rbp), %cl
	.loc	28 3807 21
	andb	$1, %cl
	movb	%cl, -1(%rbp)
Ltmp440:
	.loc	28 3808 13 is_stmt 1
	movq	%rax, -64(%rbp)
	movb	%cl, -56(%rbp)
Ltmp441:
	.loc	28 3809 10
	movq	-64(%rbp), %rax
	movb	-56(%rbp), %dl
	addq	$80, %rsp
	popq	%rbp
	retq
Ltmp442:
Lfunc_end126:
	.cfi_endproc

	.p2align	4, 0x90
__ZN4core3ops8function5FnMut8call_mut17h0a620e5d879bc879E:
Lfunc_begin127:
	.file	29 "/rustc/6c8927b0cf80ceee19386026cf9d7fd4fd9d486f/src/libcore/ops/function.rs"
	.loc	29 154 0
	.cfi_startproc
	pushq	%rbp
	.cfi_def_cfa_offset 16
	.cfi_offset %rbp, -16
	movq	%rsp, %rbp
	.cfi_def_cfa_register %rbp
	subq	$48, %rsp
	movq	%rsi, -24(%rbp)
	movq	%rdx, -16(%rbp)
	movq	%rdi, -8(%rbp)
Ltmp443:
	.loc	29 154 5 prologue_end
	movq	-24(%rbp), %rdi
	movq	-16(%rbp), %rsi
	callq	__ZN4core3str21_$LT$impl$u20$str$GT$4trim17h22e429c571f2fe87E
	movq	%rax, -32(%rbp)
	movq	%rdx, -40(%rbp)
	.loc	29 0 5 is_stmt 0
	movq	-32(%rbp), %rax
	movq	-40(%rbp), %rdx
	.loc	29 154 5
	addq	$48, %rsp
	popq	%rbp
	retq
Ltmp444:
Lfunc_end127:
	.cfi_endproc

	.p2align	4, 0x90
__ZN4core3ops8function5FnMut8call_mut17hf84b38fef3924431E:
Lfunc_begin128:
	.loc	29 154 0 is_stmt 1
	.cfi_startproc
	pushq	%rbp
	.cfi_def_cfa_offset 16
	.cfi_offset %rbp, -16
	movq	%rsp, %rbp
	.cfi_def_cfa_register %rbp
	subq	$32, %rsp
	movq	%rdi, %rax
	movq	%rdx, -24(%rbp)
	movq	%rcx, -16(%rbp)
	movq	%rsi, -8(%rbp)
Ltmp445:
	.loc	29 154 5 prologue_end
	movq	-24(%rbp), %rsi
	movq	-16(%rbp), %rdx
	movq	%rax, -32(%rbp)
	callq	__ZN47_$LT$str$u20$as$u20$alloc..string..ToString$GT$9to_string17h9385f11f4ab8c974E
	.loc	29 0 5 is_stmt 0
	movq	-32(%rbp), %rax
	.loc	29 154 5
	addq	$32, %rsp
	popq	%rbp
	retq
Ltmp446:
Lfunc_end128:
	.cfi_endproc

	.globl	__ZN4core3ops8function5impls79_$LT$impl$u20$core..ops..function..FnMut$LT$A$GT$$u20$for$u20$$RF$mut$u20$F$GT$8call_mut17h63fbe28b2ed5d4f9E
	.p2align	4, 0x90
__ZN4core3ops8function5impls79_$LT$impl$u20$core..ops..function..FnMut$LT$A$GT$$u20$for$u20$$RF$mut$u20$F$GT$8call_mut17h63fbe28b2ed5d4f9E:
Lfunc_begin129:
	.loc	29 274 0 is_stmt 1
	.cfi_startproc
	pushq	%rbp
	.cfi_def_cfa_offset 16
	.cfi_offset %rbp, -16
	movq	%rsp, %rbp
	.cfi_def_cfa_register %rbp
	subq	$32, %rsp
	movq	%rsi, -16(%rbp)
	movq	%rdi, -8(%rbp)
Ltmp447:
	.loc	29 275 13 prologue_end
	movq	(%rdi), %rdi
	.loc	29 275 30 is_stmt 0
	movq	-16(%rbp), %rax
	.loc	29 275 13
	movq	%rax, %rsi
	callq	__ZN7autocfg7AutoCfg8with_dir28_$u7b$$u7b$closure$u7d$$u7d$28_$u7b$$u7b$closure$u7d$$u7d$17he02612640f8b2450E
	movb	%al, -17(%rbp)
	.loc	29 0 13
	movb	-17(%rbp), %al
	.loc	29 276 10 is_stmt 1
	andb	$1, %al
	movzbl	%al, %eax
	addq	$32, %rsp
	popq	%rbp
	retq
Ltmp448:
Lfunc_end129:
	.cfi_endproc

	.globl	__ZN4core3ops8function5impls80_$LT$impl$u20$core..ops..function..FnOnce$LT$A$GT$$u20$for$u20$$RF$mut$u20$F$GT$9call_once17h832e277f66f8e2a7E
	.p2align	4, 0x90
__ZN4core3ops8function5impls80_$LT$impl$u20$core..ops..function..FnOnce$LT$A$GT$$u20$for$u20$$RF$mut$u20$F$GT$9call_once17h832e277f66f8e2a7E:
Lfunc_begin130:
	.loc	29 285 0
	.cfi_startproc
	pushq	%rbp
	.cfi_def_cfa_offset 16
	.cfi_offset %rbp, -16
	movq	%rsp, %rbp
	.cfi_def_cfa_register %rbp
	subq	$48, %rsp
	movq	%rdi, %rax
	movq	%rdx, -24(%rbp)
	movq	%rcx, -16(%rbp)
	movq	%rsi, -8(%rbp)
Ltmp449:
	.loc	29 286 30 prologue_end
	movq	-24(%rbp), %rcx
	movq	-16(%rbp), %rdx
	movq	%rdx, -32(%rbp)
	.loc	29 286 13 is_stmt 0
	movq	%rcx, %rdx
	movq	-32(%rbp), %rcx
	movq	%rax, -40(%rbp)
	callq	__ZN4core3ops8function5FnMut8call_mut17hf84b38fef3924431E
	.loc	29 0 13
	movq	-40(%rbp), %rax
	.loc	29 287 10 is_stmt 1
	addq	$48, %rsp
	popq	%rbp
	retq
Ltmp450:
Lfunc_end130:
	.cfi_endproc

	.globl	__ZN4core3ops8function5impls80_$LT$impl$u20$core..ops..function..FnOnce$LT$A$GT$$u20$for$u20$$RF$mut$u20$F$GT$9call_once17ha843b634ec522a6fE
	.p2align	4, 0x90
__ZN4core3ops8function5impls80_$LT$impl$u20$core..ops..function..FnOnce$LT$A$GT$$u20$for$u20$$RF$mut$u20$F$GT$9call_once17ha843b634ec522a6fE:
Lfunc_begin131:
	.loc	29 285 0
	.cfi_startproc
	pushq	%rbp
	.cfi_def_cfa_offset 16
	.cfi_offset %rbp, -16
	movq	%rsp, %rbp
	.cfi_def_cfa_register %rbp
	subq	$48, %rsp
	movq	%rsi, -24(%rbp)
	movq	%rdx, -16(%rbp)
	movq	%rdi, -8(%rbp)
Ltmp451:
	.loc	29 286 30 prologue_end
	movq	-24(%rbp), %rax
	movq	-16(%rbp), %rdx
	.loc	29 286 13 is_stmt 0
	movq	%rax, %rsi
	callq	__ZN95_$LT$core..str..LinesAnyMap$u20$as$u20$core..ops..function..FnMut$LT$$LP$$RF$str$C$$RP$$GT$$GT$8call_mut17hf295d5e6e0da808eE
	movq	%rax, -32(%rbp)
	movq	%rdx, -40(%rbp)
	.loc	29 0 13
	movq	-32(%rbp), %rax
	movq	-40(%rbp), %rdx
	.loc	29 287 10 is_stmt 1
	addq	$48, %rsp
	popq	%rbp
	retq
Ltmp452:
Lfunc_end131:
	.cfi_endproc

	.p2align	4, 0x90
__ZN4core3ops8function6FnOnce9call_once17h05476f308b20b9eeE:
Lfunc_begin132:
	.loc	29 233 0
	.cfi_startproc
	pushq	%rbp
	.cfi_def_cfa_offset 16
	.cfi_offset %rbp, -16
	movq	%rsp, %rbp
	.cfi_def_cfa_register %rbp
	subq	$32, %rsp
	movq	%rdi, %rax
	movq	(%rsi), %rcx
	movq	%rcx, -24(%rbp)
	movq	8(%rsi), %rcx
	movq	%rcx, -16(%rbp)
Ltmp453:
	.loc	29 233 5 prologue_end
	leaq	-24(%rbp), %rcx
Ltmp454:
	movq	%rcx, %rsi
	movq	%rax, -32(%rbp)
	callq	__ZN7autocfg5error9from_utf817hf6cc8d44ba701d59E
Ltmp455:
	.loc	29 0 5 is_stmt 0
	movq	-32(%rbp), %rax
	.loc	29 233 5
	addq	$32, %rsp
	popq	%rbp
	retq
Ltmp456:
Lfunc_end132:
	.cfi_endproc

	.p2align	4, 0x90
__ZN4core3ops8function6FnOnce9call_once17h8ce54bf7fd88b3d9E:
Lfunc_begin133:
	.loc	29 233 0 is_stmt 1
	.cfi_startproc
	pushq	%rbp
	.cfi_def_cfa_offset 16
	.cfi_offset %rbp, -16
	movq	%rsp, %rbp
	.cfi_def_cfa_register %rbp
	subq	$176, %rsp
	movq	%rdi, %rax
	leaq	-152(%rbp), %rcx
	movq	%rcx, %rdx
	movq	%rdi, -160(%rbp)
	movq	%rdx, %rdi
	movl	$144, %edx
	movq	%rax, -168(%rbp)
	movq	%rcx, -176(%rbp)
	callq	_memcpy
Ltmp457:
	movq	-176(%rbp), %rax
	movq	-160(%rbp), %rdi
Ltmp458:
	.loc	29 233 5 prologue_end
	movq	%rax, %rsi
	callq	__ZN3std2fs8Metadata17hf21aadaeaa00742aE
Ltmp459:
	.loc	29 0 5 is_stmt 0
	movq	-168(%rbp), %rax
	.loc	29 233 5
	addq	$176, %rsp
	popq	%rbp
	retq
Ltmp460:
Lfunc_end133:
	.cfi_endproc

	.p2align	4, 0x90
__ZN4core3ops8function6FnOnce9call_once17ha74b02f0f244a66cE:
Lfunc_begin134:
	.loc	29 233 0 is_stmt 1
	.cfi_startproc
	pushq	%rbp
	.cfi_def_cfa_offset 16
	.cfi_offset %rbp, -16
	movq	%rsp, %rbp
	.cfi_def_cfa_register %rbp
	subq	$32, %rsp
	movq	%rdi, -24(%rbp)
	movq	%rsi, -16(%rbp)
Ltmp461:
	.loc	29 233 5 prologue_end
	movq	-24(%rbp), %rdi
	movq	-16(%rbp), %rsi
	callq	__ZN4core3cmp5impls50_$LT$impl$u20$core..cmp..Ord$u20$for$u20$usize$GT$3cmp17h5b0351a3e713eef3E
	movb	%al, -25(%rbp)
	.loc	29 0 5 is_stmt 0
	movb	-25(%rbp), %al
	.loc	29 233 5
	addq	$32, %rsp
	popq	%rbp
	retq
Ltmp462:
Lfunc_end134:
	.cfi_endproc

	.p2align	4, 0x90
__ZN4core3ops8function6FnOnce9call_once17hadbfe6169caca812E:
Lfunc_begin135:
	.loc	29 233 0 is_stmt 1
	.cfi_startproc
	pushq	%rbp
	.cfi_def_cfa_offset 16
	.cfi_offset %rbp, -16
	movq	%rsp, %rbp
	.cfi_def_cfa_register %rbp
	subq	$32, %rsp
	movq	%rdi, %rax
	movb	%sil, -9(%rbp)
Ltmp463:
	.loc	29 233 5 prologue_end
	movzbl	-9(%rbp), %esi
	movq	%rax, -24(%rbp)
	callq	__ZN7autocfg5error8from_num17hddcf8b4fe30d7dc2E
	.loc	29 0 5 is_stmt 0
	movq	-24(%rbp), %rax
	.loc	29 233 5
	addq	$32, %rsp
	popq	%rbp
	retq
Ltmp464:
Lfunc_end135:
	.cfi_endproc

	.p2align	4, 0x90
__ZN4core3ops8function6FnOnce9call_once17hdd9e93b95c8e2a6fE:
Lfunc_begin136:
	.loc	29 233 0 is_stmt 1
	.cfi_startproc
	pushq	%rbp
	.cfi_def_cfa_offset 16
	.cfi_offset %rbp, -16
	movq	%rsp, %rbp
	.cfi_def_cfa_register %rbp
	subq	$32, %rsp
	movq	%rdi, %rax
	movq	(%rsi), %rcx
	movq	%rcx, -24(%rbp)
	movq	8(%rsi), %rcx
	movq	%rcx, -16(%rbp)
Ltmp465:
	.loc	29 233 5 prologue_end
	leaq	-24(%rbp), %rcx
Ltmp466:
	movq	%rcx, %rsi
	movq	%rax, -32(%rbp)
	callq	__ZN7autocfg5error7from_io17h11f9880a7a79aae2E
Ltmp467:
	.loc	29 0 5 is_stmt 0
	movq	-32(%rbp), %rax
	.loc	29 233 5
	addq	$32, %rsp
	popq	%rbp
	retq
Ltmp468:
Lfunc_end136:
	.cfi_endproc

	.p2align	4, 0x90
__ZN4core3ptr13drop_in_place17h00f07c0c6e1ad583E:
Lfunc_begin137:
	.file	30 "/rustc/6c8927b0cf80ceee19386026cf9d7fd4fd9d486f/src/libcore/ptr/mod.rs"
	.loc	30 184 0 is_stmt 1
	.cfi_startproc
	pushq	%rbp
	.cfi_def_cfa_offset 16
	.cfi_offset %rbp, -16
	movq	%rsp, %rbp
	.cfi_def_cfa_register %rbp
	subq	$16, %rsp
	movq	%rdi, -8(%rbp)
Ltmp469:
	.loc	30 184 1 prologue_end
	addq	$16, %rsp
	popq	%rbp
	retq
Ltmp470:
Lfunc_end137:
	.cfi_endproc

	.globl	__ZN4core3ptr13drop_in_place17h039d7f687eb88eeaE
	.p2align	4, 0x90
__ZN4core3ptr13drop_in_place17h039d7f687eb88eeaE:
Lfunc_begin138:
	.loc	30 184 0
	.cfi_startproc
	pushq	%rbp
	.cfi_def_cfa_offset 16
	.cfi_offset %rbp, -16
	movq	%rsp, %rbp
	.cfi_def_cfa_register %rbp
	subq	$32, %rsp
	xorl	%eax, %eax
	movl	%eax, %ecx
	movq	%rdi, -8(%rbp)
Ltmp471:
	.loc	30 184 1 prologue_end
	cmpq	$0, (%rdi)
	movl	$1, %edx
	cmovbeq	%rcx, %rdx
	cmpq	$0, %rdx
	movq	%rdi, -24(%rbp)
	jne	LBB138_2
LBB138_1:
	addq	$32, %rsp
	popq	%rbp
	retq
LBB138_2:
	.loc	30 0 1 is_stmt 0
	movq	-24(%rbp), %rax
	.loc	30 184 1
	movq	%rax, %rdi
	callq	__ZN4core3ptr13drop_in_place17h140257244ad285e9E
	jmp	LBB138_1
Ltmp472:
Lfunc_end138:
	.cfi_endproc

	.globl	__ZN4core3ptr13drop_in_place17h03c0522dcfa1795dE
	.p2align	4, 0x90
__ZN4core3ptr13drop_in_place17h03c0522dcfa1795dE:
Lfunc_begin139:
	.loc	30 184 0 is_stmt 1
	.cfi_startproc
	pushq	%rbp
	.cfi_def_cfa_offset 16
	.cfi_offset %rbp, -16
	movq	%rsp, %rbp
	.cfi_def_cfa_register %rbp
	subq	$16, %rsp
	movq	%rdi, -8(%rbp)
Ltmp473:
	.loc	30 184 1 prologue_end
	callq	__ZN4core3ptr13drop_in_place17h07e23d22817f9a91E
	addq	$16, %rsp
	popq	%rbp
	retq
Ltmp474:
Lfunc_end139:
	.cfi_endproc

	.p2align	4, 0x90
__ZN4core3ptr13drop_in_place17h0725a693216e2963E:
Lfunc_begin140:
	.loc	30 184 0
	.cfi_startproc
	pushq	%rbp
	.cfi_def_cfa_offset 16
	.cfi_offset %rbp, -16
	movq	%rsp, %rbp
	.cfi_def_cfa_register %rbp
	subq	$16, %rsp
	movq	%rdi, -8(%rbp)
Ltmp475:
	.loc	30 184 1 prologue_end
	addq	$16, %rsp
	popq	%rbp
	retq
Ltmp476:
Lfunc_end140:
	.cfi_endproc

	.globl	__ZN4core3ptr13drop_in_place17h07e23d22817f9a91E
	.p2align	4, 0x90
__ZN4core3ptr13drop_in_place17h07e23d22817f9a91E:
Lfunc_begin141:
	.loc	30 184 0
	.cfi_startproc
	pushq	%rbp
	.cfi_def_cfa_offset 16
	.cfi_offset %rbp, -16
	movq	%rsp, %rbp
	.cfi_def_cfa_register %rbp
	subq	$16, %rsp
	movq	%rdi, -8(%rbp)
Ltmp477:
	.loc	30 184 1 prologue_end
	callq	__ZN70_$LT$std..sys..unix..fd..FileDesc$u20$as$u20$core..ops..drop..Drop$GT$4drop17h633394f1cf9da1c8E
	addq	$16, %rsp
	popq	%rbp
	retq
Ltmp478:
Lfunc_end141:
	.cfi_endproc

	.globl	__ZN4core3ptr13drop_in_place17h08138b641c94b507E
	.p2align	4, 0x90
__ZN4core3ptr13drop_in_place17h08138b641c94b507E:
Lfunc_begin142:
	.loc	30 184 0
	.cfi_startproc
	.cfi_personality 155, _rust_eh_personality
	.cfi_lsda 16, Lexception17
	pushq	%rbp
	.cfi_def_cfa_offset 16
	.cfi_offset %rbp, -16
	movq	%rsp, %rbp
	.cfi_def_cfa_register %rbp
	subq	$48, %rsp
	movq	%rdi, -24(%rbp)
Ltmp479:
	movq	%rdi, -40(%rbp)
Ltmp482:
	.loc	30 184 1 prologue_end
	callq	__ZN66_$LT$alloc..vec..Vec$LT$T$GT$$u20$as$u20$core..ops..drop..Drop$GT$4drop17hf55b45ea2ab6906eE
Ltmp480:
	jmp	LBB142_4
LBB142_1:
	movq	-16(%rbp), %rdi
	callq	__Unwind_Resume
	ud2
LBB142_2:
	addq	$48, %rsp
	popq	%rbp
	retq
LBB142_3:
	.loc	30 0 1 is_stmt 0
	movq	-40(%rbp), %rax
	.loc	30 184 1
	movq	%rax, %rdi
	callq	__ZN4core3ptr13drop_in_place17h4db7b4ee1ce644ceE
	jmp	LBB142_1
LBB142_4:
	.loc	30 0 1
	movq	-40(%rbp), %rax
	.loc	30 184 1
	movq	%rax, %rdi
	callq	__ZN4core3ptr13drop_in_place17h4db7b4ee1ce644ceE
	jmp	LBB142_2
Ltmp483:
LBB142_5:
Ltmp481:
	.loc	30 0 1
	movq	%rax, -16(%rbp)
	movl	%edx, -8(%rbp)
	jmp	LBB142_3
Lfunc_end142:
	.cfi_endproc
	.section	__TEXT,__gcc_except_tab
	.p2align	2
GCC_except_table142:
Lexception17:
	.byte	255
	.byte	255
	.byte	1
	.uleb128 Lcst_end17-Lcst_begin17
Lcst_begin17:
	.uleb128 Ltmp479-Lfunc_begin142
	.uleb128 Ltmp480-Ltmp479
	.uleb128 Ltmp481-Lfunc_begin142
	.byte	0
	.uleb128 Ltmp480-Lfunc_begin142
	.uleb128 Lfunc_end142-Ltmp480
	.byte	0
	.byte	0
Lcst_end17:
	.p2align	2

	.section	__TEXT,__text,regular,pure_instructions
	.p2align	4, 0x90
__ZN4core3ptr13drop_in_place17h08730c8fc3bf9533E:
Lfunc_begin143:
	.loc	30 184 0 is_stmt 1
	.cfi_startproc
	pushq	%rbp
	.cfi_def_cfa_offset 16
	.cfi_offset %rbp, -16
	movq	%rsp, %rbp
	.cfi_def_cfa_register %rbp
	subq	$16, %rsp
	movq	%rdi, -8(%rbp)
Ltmp484:
	.loc	30 184 1 prologue_end
	addq	$16, %rsp
	popq	%rbp
	retq
Ltmp485:
Lfunc_end143:
	.cfi_endproc

	.globl	__ZN4core3ptr13drop_in_place17h091133f3542f19d6E
	.p2align	4, 0x90
__ZN4core3ptr13drop_in_place17h091133f3542f19d6E:
Lfunc_begin144:
	.loc	30 184 0
	.cfi_startproc
	.cfi_personality 155, _rust_eh_personality
	.cfi_lsda 16, Lexception18
	pushq	%rbp
	.cfi_def_cfa_offset 16
	.cfi_offset %rbp, -16
	movq	%rsp, %rbp
	.cfi_def_cfa_register %rbp
	subq	$48, %rsp
	movq	%rdi, -24(%rbp)
Ltmp486:
	movq	%rdi, -40(%rbp)
Ltmp510:
	.loc	30 184 1 prologue_end
	callq	__ZN4core3ptr13drop_in_place17hd7fea566956198a3E
Ltmp487:
	jmp	LBB144_18
LBB144_1:
	movq	-16(%rbp), %rdi
	callq	__Unwind_Resume
	ud2
LBB144_2:
	addq	$48, %rsp
	popq	%rbp
	retq
LBB144_3:
	.loc	30 0 1 is_stmt 0
	movq	-40(%rbp), %rax
	.loc	30 184 1
	addq	$168, %rax
	movq	%rax, %rdi
	callq	__ZN4core3ptr13drop_in_place17h160087d0ea5bf73aE
	jmp	LBB144_1
LBB144_4:
	.loc	30 0 1
	movq	-40(%rbp), %rax
	.loc	30 184 1
	addq	$160, %rax
	movq	%rax, %rdi
	callq	__ZN4core3ptr13drop_in_place17h160087d0ea5bf73aE
	jmp	LBB144_3
LBB144_5:
	.loc	30 0 1
	movq	-40(%rbp), %rax
	.loc	30 184 1
	addq	$152, %rax
	movq	%rax, %rdi
	callq	__ZN4core3ptr13drop_in_place17h160087d0ea5bf73aE
	jmp	LBB144_4
LBB144_6:
	.loc	30 0 1
	movq	-40(%rbp), %rax
	.loc	30 184 1
	addq	$112, %rax
	movq	%rax, %rdi
	callq	__ZN4core3ptr13drop_in_place17h8af469b0609352f1E
	jmp	LBB144_5
LBB144_7:
	.loc	30 0 1
	movq	-40(%rbp), %rax
	.loc	30 184 1
	addq	$96, %rax
	movq	%rax, %rdi
	callq	__ZN4core3ptr13drop_in_place17hb86280f203be72e3E
	jmp	LBB144_6
LBB144_8:
	.loc	30 0 1
	movq	-40(%rbp), %rax
	.loc	30 184 1
	addq	$64, %rax
	movq	%rax, %rdi
	callq	__ZN4core3ptr13drop_in_place17hcb562b70444c30feE
	jmp	LBB144_7
LBB144_9:
	.loc	30 0 1
	movq	-40(%rbp), %rax
	.loc	30 184 1
	addq	$40, %rax
	movq	%rax, %rdi
	callq	__ZN4core3ptr13drop_in_place17hc014c03998f9a487E
	jmp	LBB144_8
LBB144_10:
	.loc	30 0 1
	movq	-40(%rbp), %rax
	.loc	30 184 1
	addq	$16, %rax
	movq	%rax, %rdi
	callq	__ZN4core3ptr13drop_in_place17h88400d46979ad07fE
	jmp	LBB144_9
LBB144_11:
	.loc	30 0 1
	movq	-40(%rbp), %rax
	.loc	30 184 1
	addq	$168, %rax
	movq	%rax, %rdi
	callq	__ZN4core3ptr13drop_in_place17h160087d0ea5bf73aE
	jmp	LBB144_2
LBB144_12:
	.loc	30 0 1
	movq	-40(%rbp), %rax
	.loc	30 184 1
	addq	$160, %rax
Ltmp507:
	movq	%rax, %rdi
	callq	__ZN4core3ptr13drop_in_place17h160087d0ea5bf73aE
Ltmp508:
	jmp	LBB144_11
LBB144_13:
	.loc	30 0 1
	movq	-40(%rbp), %rax
	.loc	30 184 1
	addq	$152, %rax
Ltmp504:
	movq	%rax, %rdi
	callq	__ZN4core3ptr13drop_in_place17h160087d0ea5bf73aE
Ltmp505:
	jmp	LBB144_12
LBB144_14:
	.loc	30 0 1
	movq	-40(%rbp), %rax
	.loc	30 184 1
	addq	$112, %rax
Ltmp501:
	movq	%rax, %rdi
	callq	__ZN4core3ptr13drop_in_place17h8af469b0609352f1E
Ltmp502:
	jmp	LBB144_13
LBB144_15:
	.loc	30 0 1
	movq	-40(%rbp), %rax
	.loc	30 184 1
	addq	$96, %rax
Ltmp498:
	movq	%rax, %rdi
	callq	__ZN4core3ptr13drop_in_place17hb86280f203be72e3E
Ltmp499:
	jmp	LBB144_14
LBB144_16:
	.loc	30 0 1
	movq	-40(%rbp), %rax
	.loc	30 184 1
	addq	$64, %rax
Ltmp495:
	movq	%rax, %rdi
	callq	__ZN4core3ptr13drop_in_place17hcb562b70444c30feE
Ltmp496:
	jmp	LBB144_15
LBB144_17:
	.loc	30 0 1
	movq	-40(%rbp), %rax
	.loc	30 184 1
	addq	$40, %rax
Ltmp492:
	movq	%rax, %rdi
	callq	__ZN4core3ptr13drop_in_place17hc014c03998f9a487E
Ltmp493:
	jmp	LBB144_16
LBB144_18:
	.loc	30 0 1
	movq	-40(%rbp), %rax
	.loc	30 184 1
	addq	$16, %rax
Ltmp489:
	movq	%rax, %rdi
	callq	__ZN4core3ptr13drop_in_place17h88400d46979ad07fE
Ltmp490:
	jmp	LBB144_17
Ltmp511:
LBB144_19:
Ltmp488:
	.loc	30 0 1
	movq	%rax, -16(%rbp)
	movl	%edx, -8(%rbp)
	jmp	LBB144_10
LBB144_20:
Ltmp491:
	movq	%rax, -16(%rbp)
	movl	%edx, -8(%rbp)
	jmp	LBB144_9
LBB144_21:
Ltmp494:
	movq	%rax, -16(%rbp)
	movl	%edx, -8(%rbp)
	jmp	LBB144_8
LBB144_22:
Ltmp497:
	movq	%rax, -16(%rbp)
	movl	%edx, -8(%rbp)
	jmp	LBB144_7
LBB144_23:
Ltmp500:
	movq	%rax, -16(%rbp)
	movl	%edx, -8(%rbp)
	jmp	LBB144_6
LBB144_24:
Ltmp503:
	movq	%rax, -16(%rbp)
	movl	%edx, -8(%rbp)
	jmp	LBB144_5
LBB144_25:
Ltmp506:
	movq	%rax, -16(%rbp)
	movl	%edx, -8(%rbp)
	jmp	LBB144_4
LBB144_26:
Ltmp509:
	movq	%rax, -16(%rbp)
	movl	%edx, -8(%rbp)
	jmp	LBB144_3
Lfunc_end144:
	.cfi_endproc
	.section	__TEXT,__gcc_except_tab
	.p2align	2
GCC_except_table144:
Lexception18:
	.byte	255
	.byte	255
	.byte	1
	.uleb128 Lcst_end18-Lcst_begin18
Lcst_begin18:
	.uleb128 Ltmp486-Lfunc_begin144
	.uleb128 Ltmp487-Ltmp486
	.uleb128 Ltmp488-Lfunc_begin144
	.byte	0
	.uleb128 Ltmp487-Lfunc_begin144
	.uleb128 Ltmp507-Ltmp487
	.byte	0
	.byte	0
	.uleb128 Ltmp507-Lfunc_begin144
	.uleb128 Ltmp508-Ltmp507
	.uleb128 Ltmp509-Lfunc_begin144
	.byte	0
	.uleb128 Ltmp504-Lfunc_begin144
	.uleb128 Ltmp505-Ltmp504
	.uleb128 Ltmp506-Lfunc_begin144
	.byte	0
	.uleb128 Ltmp501-Lfunc_begin144
	.uleb128 Ltmp502-Ltmp501
	.uleb128 Ltmp503-Lfunc_begin144
	.byte	0
	.uleb128 Ltmp498-Lfunc_begin144
	.uleb128 Ltmp499-Ltmp498
	.uleb128 Ltmp500-Lfunc_begin144
	.byte	0
	.uleb128 Ltmp495-Lfunc_begin144
	.uleb128 Ltmp496-Ltmp495
	.uleb128 Ltmp497-Lfunc_begin144
	.byte	0
	.uleb128 Ltmp492-Lfunc_begin144
	.uleb128 Ltmp493-Ltmp492
	.uleb128 Ltmp494-Lfunc_begin144
	.byte	0
	.uleb128 Ltmp489-Lfunc_begin144
	.uleb128 Ltmp490-Ltmp489
	.uleb128 Ltmp491-Lfunc_begin144
	.byte	0
Lcst_end18:
	.p2align	2

	.section	__TEXT,__text,regular,pure_instructions
	.globl	__ZN4core3ptr13drop_in_place17h0aa7fb5dc65d714eE
	.p2align	4, 0x90
__ZN4core3ptr13drop_in_place17h0aa7fb5dc65d714eE:
Lfunc_begin145:
	.loc	30 184 0 is_stmt 1
	.cfi_startproc
	pushq	%rbp
	.cfi_def_cfa_offset 16
	.cfi_offset %rbp, -16
	movq	%rsp, %rbp
	.cfi_def_cfa_register %rbp
	subq	$16, %rsp
	movq	%rdi, -8(%rbp)
Ltmp512:
	.loc	30 184 1 prologue_end
	callq	__ZN4core3ptr13drop_in_place17h08138b641c94b507E
	addq	$16, %rsp
	popq	%rbp
	retq
Ltmp513:
Lfunc_end145:
	.cfi_endproc

	.globl	__ZN4core3ptr13drop_in_place17h0f004417ad3a5453E
	.p2align	4, 0x90
__ZN4core3ptr13drop_in_place17h0f004417ad3a5453E:
Lfunc_begin146:
	.loc	30 184 0
	.cfi_startproc
	.cfi_personality 155, _rust_eh_personality
	.cfi_lsda 16, Lexception19
	pushq	%rbp
	.cfi_def_cfa_offset 16
	.cfi_offset %rbp, -16
	movq	%rsp, %rbp
	.cfi_def_cfa_register %rbp
	subq	$48, %rsp
	movq	%rdi, -24(%rbp)
Ltmp514:
	movq	%rdi, -40(%rbp)
Ltmp523:
	.loc	30 184 1 prologue_end
	callq	__ZN4core3ptr13drop_in_place17ha356b3567b3c5730E
Ltmp515:
	jmp	LBB146_8
LBB146_1:
	movq	-16(%rbp), %rdi
	callq	__Unwind_Resume
	ud2
LBB146_2:
	addq	$48, %rsp
	popq	%rbp
	retq
LBB146_3:
	.loc	30 0 1 is_stmt 0
	movq	-40(%rbp), %rax
	.loc	30 184 1
	addq	$96, %rax
	movq	%rax, %rdi
	callq	__ZN4core3ptr13drop_in_place17h039d7f687eb88eeaE
	jmp	LBB146_1
LBB146_4:
	.loc	30 0 1
	movq	-40(%rbp), %rax
	.loc	30 184 1
	addq	$72, %rax
	movq	%rax, %rdi
	callq	__ZN4core3ptr13drop_in_place17hac6db7d95b72055dE
	jmp	LBB146_3
LBB146_5:
	.loc	30 0 1
	movq	-40(%rbp), %rax
	.loc	30 184 1
	addq	$24, %rax
	movq	%rax, %rdi
	callq	__ZN4core3ptr13drop_in_place17ha356b3567b3c5730E
	jmp	LBB146_4
LBB146_6:
	.loc	30 0 1
	movq	-40(%rbp), %rax
	.loc	30 184 1
	addq	$96, %rax
	movq	%rax, %rdi
	callq	__ZN4core3ptr13drop_in_place17h039d7f687eb88eeaE
	jmp	LBB146_2
LBB146_7:
	.loc	30 0 1
	movq	-40(%rbp), %rax
	.loc	30 184 1
	addq	$72, %rax
Ltmp520:
	movq	%rax, %rdi
	callq	__ZN4core3ptr13drop_in_place17hac6db7d95b72055dE
Ltmp521:
	jmp	LBB146_6
LBB146_8:
	.loc	30 0 1
	movq	-40(%rbp), %rax
	.loc	30 184 1
	addq	$24, %rax
Ltmp517:
	movq	%rax, %rdi
	callq	__ZN4core3ptr13drop_in_place17ha356b3567b3c5730E
Ltmp518:
	jmp	LBB146_7
Ltmp524:
LBB146_9:
Ltmp516:
	.loc	30 0 1
	movq	%rax, -16(%rbp)
	movl	%edx, -8(%rbp)
	jmp	LBB146_5
LBB146_10:
Ltmp519:
	movq	%rax, -16(%rbp)
	movl	%edx, -8(%rbp)
	jmp	LBB146_4
LBB146_11:
Ltmp522:
	movq	%rax, -16(%rbp)
	movl	%edx, -8(%rbp)
	jmp	LBB146_3
Lfunc_end146:
	.cfi_endproc
	.section	__TEXT,__gcc_except_tab
	.p2align	2
GCC_except_table146:
Lexception19:
	.byte	255
	.byte	255
	.byte	1
	.uleb128 Lcst_end19-Lcst_begin19
Lcst_begin19:
	.uleb128 Ltmp514-Lfunc_begin146
	.uleb128 Ltmp515-Ltmp514
	.uleb128 Ltmp516-Lfunc_begin146
	.byte	0
	.uleb128 Ltmp515-Lfunc_begin146
	.uleb128 Ltmp520-Ltmp515
	.byte	0
	.byte	0
	.uleb128 Ltmp520-Lfunc_begin146
	.uleb128 Ltmp521-Ltmp520
	.uleb128 Ltmp522-Lfunc_begin146
	.byte	0
	.uleb128 Ltmp517-Lfunc_begin146
	.uleb128 Ltmp518-Ltmp517
	.uleb128 Ltmp519-Lfunc_begin146
	.byte	0
Lcst_end19:
	.p2align	2

	.section	__TEXT,__text,regular,pure_instructions
	.globl	__ZN4core3ptr13drop_in_place17h140257244ad285e9E
	.p2align	4, 0x90
__ZN4core3ptr13drop_in_place17h140257244ad285e9E:
Lfunc_begin147:
	.loc	30 184 0 is_stmt 1
	.cfi_startproc
	.cfi_personality 155, _rust_eh_personality
	.cfi_lsda 16, Lexception20
	pushq	%rbp
	.cfi_def_cfa_offset 16
	.cfi_offset %rbp, -16
	movq	%rsp, %rbp
	.cfi_def_cfa_register %rbp
	subq	$48, %rsp
	movq	%rdi, -24(%rbp)
Ltmp525:
	movq	%rdi, -40(%rbp)
Ltmp528:
	.loc	30 184 1 prologue_end
	callq	__ZN66_$LT$alloc..vec..Vec$LT$T$GT$$u20$as$u20$core..ops..drop..Drop$GT$4drop17hd7266f8d5c2de061E
Ltmp526:
	jmp	LBB147_4
LBB147_1:
	movq	-16(%rbp), %rdi
	callq	__Unwind_Resume
	ud2
LBB147_2:
	addq	$48, %rsp
	popq	%rbp
	retq
LBB147_3:
	.loc	30 0 1 is_stmt 0
	movq	-40(%rbp), %rax
	.loc	30 184 1
	movq	%rax, %rdi
	callq	__ZN4core3ptr13drop_in_place17h72df398e8b86b548E
	jmp	LBB147_1
LBB147_4:
	.loc	30 0 1
	movq	-40(%rbp), %rax
	.loc	30 184 1
	movq	%rax, %rdi
	callq	__ZN4core3ptr13drop_in_place17h72df398e8b86b548E
	jmp	LBB147_2
Ltmp529:
LBB147_5:
Ltmp527:
	.loc	30 0 1
	movq	%rax, -16(%rbp)
	movl	%edx, -8(%rbp)
	jmp	LBB147_3
Lfunc_end147:
	.cfi_endproc
	.section	__TEXT,__gcc_except_tab
	.p2align	2
GCC_except_table147:
Lexception20:
	.byte	255
	.byte	255
	.byte	1
	.uleb128 Lcst_end20-Lcst_begin20
Lcst_begin20:
	.uleb128 Ltmp525-Lfunc_begin147
	.uleb128 Ltmp526-Ltmp525
	.uleb128 Ltmp527-Lfunc_begin147
	.byte	0
	.uleb128 Ltmp526-Lfunc_begin147
	.uleb128 Lfunc_end147-Ltmp526
	.byte	0
	.byte	0
Lcst_end20:
	.p2align	2

	.section	__TEXT,__text,regular,pure_instructions
	.globl	__ZN4core3ptr13drop_in_place17h1511592fd4970678E
	.p2align	4, 0x90
__ZN4core3ptr13drop_in_place17h1511592fd4970678E:
Lfunc_begin148:
	.loc	30 184 0 is_stmt 1
	.cfi_startproc
	pushq	%rbp
	.cfi_def_cfa_offset 16
	.cfi_offset %rbp, -16
	movq	%rsp, %rbp
	.cfi_def_cfa_register %rbp
	subq	$16, %rsp
	movq	%rdi, -8(%rbp)
Ltmp530:
	.loc	30 184 1 prologue_end
	callq	__ZN4core3ptr13drop_in_place17h08138b641c94b507E
	addq	$16, %rsp
	popq	%rbp
	retq
Ltmp531:
Lfunc_end148:
	.cfi_endproc

	.globl	__ZN4core3ptr13drop_in_place17h160087d0ea5bf73aE
	.p2align	4, 0x90
__ZN4core3ptr13drop_in_place17h160087d0ea5bf73aE:
Lfunc_begin149:
	.loc	30 184 0
	.cfi_startproc
	pushq	%rbp
	.cfi_def_cfa_offset 16
	.cfi_offset %rbp, -16
	movq	%rsp, %rbp
	.cfi_def_cfa_register %rbp
	subq	$32, %rsp
	xorl	%eax, %eax
	movl	%eax, %ecx
	movq	%rdi, -8(%rbp)
Ltmp532:
	.loc	30 184 1 prologue_end
	movl	(%rdi), %eax
	subl	$4, %eax
	cmpl	$0, %eax
	movl	$1, %edx
	cmovbeq	%rcx, %rdx
	cmpq	$0, %rdx
	movq	%rdi, -24(%rbp)
	jne	LBB149_2
LBB149_1:
	addq	$32, %rsp
	popq	%rbp
	retq
LBB149_2:
	.loc	30 0 1 is_stmt 0
	movq	-24(%rbp), %rdi
	.loc	30 184 1
	callq	__ZN4core3ptr13drop_in_place17hf3815935e47ed64fE
	jmp	LBB149_1
Ltmp533:
Lfunc_end149:
	.cfi_endproc

	.globl	__ZN4core3ptr13drop_in_place17h1f1dc481d6d42004E
	.p2align	4, 0x90
__ZN4core3ptr13drop_in_place17h1f1dc481d6d42004E:
Lfunc_begin150:
	.loc	30 184 0 is_stmt 1
	.cfi_startproc
	.cfi_personality 155, _rust_eh_personality
	.cfi_lsda 16, Lexception21
	pushq	%rbp
	.cfi_def_cfa_offset 16
	.cfi_offset %rbp, -16
	movq	%rsp, %rbp
	.cfi_def_cfa_register %rbp
	subq	$48, %rsp
	movq	%rdi, -24(%rbp)
Ltmp534:
	movq	%rdi, -40(%rbp)
Ltmp537:
	.loc	30 184 1 prologue_end
	callq	__ZN4core3ptr13drop_in_place17hdb03aadc7bfc8c5cE
Ltmp535:
	jmp	LBB150_4
LBB150_1:
	movq	-16(%rbp), %rdi
	callq	__Unwind_Resume
	ud2
LBB150_2:
	addq	$48, %rsp
	popq	%rbp
	retq
LBB150_3:
	.loc	30 0 1 is_stmt 0
	movq	-40(%rbp), %rax
	.loc	30 184 1
	addq	$24, %rax
	movq	%rax, %rdi
	callq	__ZN4core3ptr13drop_in_place17hac6db7d95b72055dE
	jmp	LBB150_1
LBB150_4:
	.loc	30 0 1
	movq	-40(%rbp), %rax
	.loc	30 184 1
	addq	$24, %rax
	movq	%rax, %rdi
	callq	__ZN4core3ptr13drop_in_place17hac6db7d95b72055dE
	jmp	LBB150_2
Ltmp538:
LBB150_5:
Ltmp536:
	.loc	30 0 1
	movq	%rax, -16(%rbp)
	movl	%edx, -8(%rbp)
	jmp	LBB150_3
Lfunc_end150:
	.cfi_endproc
	.section	__TEXT,__gcc_except_tab
	.p2align	2
GCC_except_table150:
Lexception21:
	.byte	255
	.byte	255
	.byte	1
	.uleb128 Lcst_end21-Lcst_begin21
Lcst_begin21:
	.uleb128 Ltmp534-Lfunc_begin150
	.uleb128 Ltmp535-Ltmp534
	.uleb128 Ltmp536-Lfunc_begin150
	.byte	0
	.uleb128 Ltmp535-Lfunc_begin150
	.uleb128 Lfunc_end150-Ltmp535
	.byte	0
	.byte	0
Lcst_end21:
	.p2align	2

	.section	__TEXT,__text,regular,pure_instructions
	.globl	__ZN4core3ptr13drop_in_place17h1f301f2dc2b566ddE
	.p2align	4, 0x90
__ZN4core3ptr13drop_in_place17h1f301f2dc2b566ddE:
Lfunc_begin151:
	.loc	30 184 0 is_stmt 1
	.cfi_startproc
	.cfi_personality 155, _rust_eh_personality
	.cfi_lsda 16, Lexception22
	pushq	%rbp
	.cfi_def_cfa_offset 16
	.cfi_offset %rbp, -16
	movq	%rsp, %rbp
	.cfi_def_cfa_register %rbp
	subq	$80, %rsp
	xorl	%eax, %eax
	movq	%rdi, -32(%rbp)
	movq	%rsi, -24(%rbp)
Ltmp545:
	.loc	30 184 1 prologue_end
	testb	$1, %al
	movq	%rdi, -72(%rbp)
	movq	%rsi, -80(%rbp)
	jne	LBB151_7
	jmp	LBB151_12
LBB151_1:
	addq	$80, %rsp
	popq	%rbp
	retq
LBB151_2:
	movq	-16(%rbp), %rdi
	callq	__Unwind_Resume
	ud2
LBB151_3:
	movq	-56(%rbp), %rax
	shlq	$4, %rax
	movq	-72(%rbp), %rcx
	addq	%rax, %rcx
	movq	-56(%rbp), %rax
	addq	$1, %rax
	movq	%rax, -56(%rbp)
	movq	%rcx, %rdi
	callq	__ZN4core3ptr13drop_in_place17hd7fea566956198a3E
LBB151_4:
	.loc	30 0 1 is_stmt 0
	movq	-80(%rbp), %rax
	.loc	30 184 1
	cmpq	%rax, -56(%rbp)
	je	LBB151_2
	jmp	LBB151_3
LBB151_5:
	movq	-56(%rbp), %rax
	movq	%rax, %rcx
	shlq	$4, %rcx
	movq	-72(%rbp), %rdx
	addq	%rcx, %rdx
	incq	%rax
	movq	%rax, -56(%rbp)
Ltmp542:
	movq	%rdx, %rdi
	callq	__ZN4core3ptr13drop_in_place17hd7fea566956198a3E
Ltmp543:
	jmp	LBB151_6
LBB151_6:
	.loc	30 0 1
	movq	-80(%rbp), %rax
	.loc	30 184 1
	cmpq	%rax, -56(%rbp)
	je	LBB151_1
	jmp	LBB151_5
LBB151_7:
	movq	$0, -56(%rbp)
	jmp	LBB151_6
LBB151_8:
	movq	-48(%rbp), %rdi
	movq	-48(%rbp), %rax
	addq	$16, %rax
	movq	%rax, -48(%rbp)
	callq	__ZN4core3ptr13drop_in_place17hd7fea566956198a3E
LBB151_9:
	movq	-48(%rbp), %rax
	cmpq	-40(%rbp), %rax
	je	LBB151_2
	jmp	LBB151_8
LBB151_10:
	movq	-48(%rbp), %rax
	movq	%rax, %rcx
	addq	$16, %rcx
	movq	%rcx, -48(%rbp)
Ltmp539:
	movq	%rax, %rdi
	callq	__ZN4core3ptr13drop_in_place17hd7fea566956198a3E
Ltmp540:
	jmp	LBB151_11
LBB151_11:
	movq	-48(%rbp), %rax
	cmpq	-40(%rbp), %rax
	je	LBB151_1
	jmp	LBB151_10
LBB151_12:
	.loc	30 0 1
	movq	-72(%rbp), %rax
	.loc	30 184 1
	movq	%rax, -48(%rbp)
	movq	-80(%rbp), %rax
	shlq	$4, %rax
	addq	-48(%rbp), %rax
	movq	%rax, -40(%rbp)
	jmp	LBB151_11
Ltmp546:
LBB151_13:
Ltmp541:
	.loc	30 0 1
	movq	%rax, -16(%rbp)
	movl	%edx, -8(%rbp)
	jmp	LBB151_9
LBB151_14:
Ltmp544:
	movq	%rax, -16(%rbp)
	movl	%edx, -8(%rbp)
	jmp	LBB151_4
Lfunc_end151:
	.cfi_endproc
	.section	__TEXT,__gcc_except_tab
	.p2align	2
GCC_except_table151:
Lexception22:
	.byte	255
	.byte	255
	.byte	1
	.uleb128 Lcst_end22-Lcst_begin22
Lcst_begin22:
	.uleb128 Lfunc_begin151-Lfunc_begin151
	.uleb128 Ltmp542-Lfunc_begin151
	.byte	0
	.byte	0
	.uleb128 Ltmp542-Lfunc_begin151
	.uleb128 Ltmp543-Ltmp542
	.uleb128 Ltmp544-Lfunc_begin151
	.byte	0
	.uleb128 Ltmp543-Lfunc_begin151
	.uleb128 Ltmp539-Ltmp543
	.byte	0
	.byte	0
	.uleb128 Ltmp539-Lfunc_begin151
	.uleb128 Ltmp540-Ltmp539
	.uleb128 Ltmp541-Lfunc_begin151
	.byte	0
Lcst_end22:
	.p2align	2

	.section	__TEXT,__text,regular,pure_instructions
	.p2align	4, 0x90
__ZN4core3ptr13drop_in_place17h23a36c8ecf77595eE:
Lfunc_begin152:
	.loc	30 184 0 is_stmt 1
	.cfi_startproc
	pushq	%rbp
	.cfi_def_cfa_offset 16
	.cfi_offset %rbp, -16
	movq	%rsp, %rbp
	.cfi_def_cfa_register %rbp
	subq	$16, %rsp
	movq	%rdi, -8(%rbp)
Ltmp547:
	.loc	30 184 1 prologue_end
	addq	$16, %rsp
	popq	%rbp
	retq
Ltmp548:
Lfunc_end152:
	.cfi_endproc

	.p2align	4, 0x90
__ZN4core3ptr13drop_in_place17h2b60fd71b88ec3e5E:
Lfunc_begin153:
	.loc	30 184 0
	.cfi_startproc
	pushq	%rbp
	.cfi_def_cfa_offset 16
	.cfi_offset %rbp, -16
	movq	%rsp, %rbp
	.cfi_def_cfa_register %rbp
	subq	$16, %rsp
	movq	%rdi, -8(%rbp)
Ltmp549:
	.loc	30 184 1 prologue_end
	addq	$16, %rsp
	popq	%rbp
	retq
Ltmp550:
Lfunc_end153:
	.cfi_endproc

	.globl	__ZN4core3ptr13drop_in_place17h319436fe9cede63eE
	.p2align	4, 0x90
__ZN4core3ptr13drop_in_place17h319436fe9cede63eE:
Lfunc_begin154:
	.loc	30 184 0
	.cfi_startproc
	pushq	%rbp
	.cfi_def_cfa_offset 16
	.cfi_offset %rbp, -16
	movq	%rsp, %rbp
	.cfi_def_cfa_register %rbp
	subq	$32, %rsp
	movq	%rdi, -8(%rbp)
Ltmp551:
	.loc	30 184 1 prologue_end
	cmpq	$0, (%rdi)
	movq	%rdi, -24(%rbp)
	je	LBB154_2
	jmp	LBB154_3
LBB154_1:
	addq	$32, %rsp
	popq	%rbp
	retq
LBB154_2:
	.loc	30 0 1 is_stmt 0
	movq	-24(%rbp), %rax
	.loc	30 184 1
	addq	$8, %rax
	movq	%rax, %rdi
	callq	__ZN4core3ptr13drop_in_place17h0aa7fb5dc65d714eE
	jmp	LBB154_1
LBB154_3:
	.loc	30 0 1
	movq	-24(%rbp), %rax
	.loc	30 184 1
	addq	$8, %rax
	movq	%rax, %rdi
	callq	__ZN4core3ptr13drop_in_place17h340d95f554605aaaE
	jmp	LBB154_1
Ltmp552:
Lfunc_end154:
	.cfi_endproc

	.globl	__ZN4core3ptr13drop_in_place17h340d95f554605aaaE
	.p2align	4, 0x90
__ZN4core3ptr13drop_in_place17h340d95f554605aaaE:
Lfunc_begin155:
	.loc	30 184 0 is_stmt 1
	.cfi_startproc
	pushq	%rbp
	.cfi_def_cfa_offset 16
	.cfi_offset %rbp, -16
	movq	%rsp, %rbp
	.cfi_def_cfa_register %rbp
	subq	$32, %rsp
	xorl	%eax, %eax
	movl	%eax, %ecx
	movq	%rdi, -8(%rbp)
Ltmp553:
	.loc	30 184 1 prologue_end
	cmpq	$0, (%rdi)
	movl	$1, %edx
	cmovbeq	%rcx, %rdx
	cmpq	$0, %rdx
	movq	%rdi, -24(%rbp)
	jne	LBB155_2
LBB155_1:
	addq	$32, %rsp
	popq	%rbp
	retq
LBB155_2:
	.loc	30 0 1 is_stmt 0
	movq	-24(%rbp), %rax
	.loc	30 184 1
	movq	%rax, %rdi
	callq	__ZN4core3ptr13drop_in_place17hdb03aadc7bfc8c5cE
	jmp	LBB155_1
Ltmp554:
Lfunc_end155:
	.cfi_endproc

	.globl	__ZN4core3ptr13drop_in_place17h41b0189370230be4E
	.p2align	4, 0x90
__ZN4core3ptr13drop_in_place17h41b0189370230be4E:
Lfunc_begin156:
	.loc	30 184 0 is_stmt 1
	.cfi_startproc
	pushq	%rbp
	.cfi_def_cfa_offset 16
	.cfi_offset %rbp, -16
	movq	%rsp, %rbp
	.cfi_def_cfa_register %rbp
	subq	$16, %rsp
	movq	%rdi, -8(%rbp)
Ltmp555:
	.loc	30 184 1 prologue_end
	callq	__ZN4core3ptr13drop_in_place17hddbdced0ed2b17c7E
	addq	$16, %rsp
	popq	%rbp
	retq
Ltmp556:
Lfunc_end156:
	.cfi_endproc

	.globl	__ZN4core3ptr13drop_in_place17h433ed8604af29962E
	.p2align	4, 0x90
__ZN4core3ptr13drop_in_place17h433ed8604af29962E:
Lfunc_begin157:
	.loc	30 184 0
	.cfi_startproc
	pushq	%rbp
	.cfi_def_cfa_offset 16
	.cfi_offset %rbp, -16
	movq	%rsp, %rbp
	.cfi_def_cfa_register %rbp
	subq	$16, %rsp
	movq	%rdi, -8(%rbp)
Ltmp557:
	.loc	30 184 1 prologue_end
	callq	__ZN77_$LT$alloc..raw_vec..RawVec$LT$T$C$A$GT$$u20$as$u20$core..ops..drop..Drop$GT$4drop17had04ccce864af50bE
	addq	$16, %rsp
	popq	%rbp
	retq
Ltmp558:
Lfunc_end157:
	.cfi_endproc

	.p2align	4, 0x90
__ZN4core3ptr13drop_in_place17h486d77cba220f276E:
Lfunc_begin158:
	.loc	30 184 0
	.cfi_startproc
	pushq	%rbp
	.cfi_def_cfa_offset 16
	.cfi_offset %rbp, -16
	movq	%rsp, %rbp
	.cfi_def_cfa_register %rbp
	subq	$16, %rsp
	movq	%rdi, -8(%rbp)
Ltmp559:
	.loc	30 184 1 prologue_end
	addq	$16, %rsp
	popq	%rbp
	retq
Ltmp560:
Lfunc_end158:
	.cfi_endproc

	.globl	__ZN4core3ptr13drop_in_place17h4c522143adf09da0E
	.p2align	4, 0x90
__ZN4core3ptr13drop_in_place17h4c522143adf09da0E:
Lfunc_begin159:
	.loc	30 184 0
	.cfi_startproc
	.cfi_personality 155, _rust_eh_personality
	.cfi_lsda 16, Lexception23
	pushq	%rbp
	.cfi_def_cfa_offset 16
	.cfi_offset %rbp, -16
	movq	%rsp, %rbp
	.cfi_def_cfa_register %rbp
	subq	$80, %rsp
	xorl	%eax, %eax
	movq	%rdi, -32(%rbp)
	movq	%rsi, -24(%rbp)
Ltmp567:
	.loc	30 184 1 prologue_end
	testb	$1, %al
	movq	%rdi, -72(%rbp)
	movq	%rsi, -80(%rbp)
	jne	LBB159_7
	jmp	LBB159_12
LBB159_1:
	addq	$80, %rsp
	popq	%rbp
	retq
LBB159_2:
	movq	-16(%rbp), %rdi
	callq	__Unwind_Resume
	ud2
LBB159_3:
	movq	-56(%rbp), %rax
	shlq	$4, %rax
	movq	-72(%rbp), %rcx
	addq	%rax, %rcx
	movq	-56(%rbp), %rax
	addq	$1, %rax
	movq	%rax, -56(%rbp)
	movq	%rcx, %rdi
	callq	__ZN4core3ptr13drop_in_place17haee59165825486a5E
LBB159_4:
	.loc	30 0 1 is_stmt 0
	movq	-80(%rbp), %rax
	.loc	30 184 1
	cmpq	%rax, -56(%rbp)
	je	LBB159_2
	jmp	LBB159_3
LBB159_5:
	movq	-56(%rbp), %rax
	movq	%rax, %rcx
	shlq	$4, %rcx
	movq	-72(%rbp), %rdx
	addq	%rcx, %rdx
	incq	%rax
	movq	%rax, -56(%rbp)
Ltmp564:
	movq	%rdx, %rdi
	callq	__ZN4core3ptr13drop_in_place17haee59165825486a5E
Ltmp565:
	jmp	LBB159_6
LBB159_6:
	.loc	30 0 1
	movq	-80(%rbp), %rax
	.loc	30 184 1
	cmpq	%rax, -56(%rbp)
	je	LBB159_1
	jmp	LBB159_5
LBB159_7:
	movq	$0, -56(%rbp)
	jmp	LBB159_6
LBB159_8:
	movq	-48(%rbp), %rdi
	movq	-48(%rbp), %rax
	addq	$16, %rax
	movq	%rax, -48(%rbp)
	callq	__ZN4core3ptr13drop_in_place17haee59165825486a5E
LBB159_9:
	movq	-48(%rbp), %rax
	cmpq	-40(%rbp), %rax
	je	LBB159_2
	jmp	LBB159_8
LBB159_10:
	movq	-48(%rbp), %rax
	movq	%rax, %rcx
	addq	$16, %rcx
	movq	%rcx, -48(%rbp)
Ltmp561:
	movq	%rax, %rdi
	callq	__ZN4core3ptr13drop_in_place17haee59165825486a5E
Ltmp562:
	jmp	LBB159_11
LBB159_11:
	movq	-48(%rbp), %rax
	cmpq	-40(%rbp), %rax
	je	LBB159_1
	jmp	LBB159_10
LBB159_12:
	.loc	30 0 1
	movq	-72(%rbp), %rax
	.loc	30 184 1
	movq	%rax, -48(%rbp)
	movq	-80(%rbp), %rax
	shlq	$4, %rax
	addq	-48(%rbp), %rax
	movq	%rax, -40(%rbp)
	jmp	LBB159_11
Ltmp568:
LBB159_13:
Ltmp563:
	.loc	30 0 1
	movq	%rax, -16(%rbp)
	movl	%edx, -8(%rbp)
	jmp	LBB159_9
LBB159_14:
Ltmp566:
	movq	%rax, -16(%rbp)
	movl	%edx, -8(%rbp)
	jmp	LBB159_4
Lfunc_end159:
	.cfi_endproc
	.section	__TEXT,__gcc_except_tab
	.p2align	2
GCC_except_table159:
Lexception23:
	.byte	255
	.byte	255
	.byte	1
	.uleb128 Lcst_end23-Lcst_begin23
Lcst_begin23:
	.uleb128 Lfunc_begin159-Lfunc_begin159
	.uleb128 Ltmp564-Lfunc_begin159
	.byte	0
	.byte	0
	.uleb128 Ltmp564-Lfunc_begin159
	.uleb128 Ltmp565-Ltmp564
	.uleb128 Ltmp566-Lfunc_begin159
	.byte	0
	.uleb128 Ltmp565-Lfunc_begin159
	.uleb128 Ltmp561-Ltmp565
	.byte	0
	.byte	0
	.uleb128 Ltmp561-Lfunc_begin159
	.uleb128 Ltmp562-Ltmp561
	.uleb128 Ltmp563-Lfunc_begin159
	.byte	0
Lcst_end23:
	.p2align	2

	.section	__TEXT,__text,regular,pure_instructions
	.globl	__ZN4core3ptr13drop_in_place17h4db7b4ee1ce644ceE
	.p2align	4, 0x90
__ZN4core3ptr13drop_in_place17h4db7b4ee1ce644ceE:
Lfunc_begin160:
	.loc	30 184 0 is_stmt 1
	.cfi_startproc
	pushq	%rbp
	.cfi_def_cfa_offset 16
	.cfi_offset %rbp, -16
	movq	%rsp, %rbp
	.cfi_def_cfa_register %rbp
	subq	$16, %rsp
	movq	%rdi, -8(%rbp)
Ltmp569:
	.loc	30 184 1 prologue_end
	callq	__ZN77_$LT$alloc..raw_vec..RawVec$LT$T$C$A$GT$$u20$as$u20$core..ops..drop..Drop$GT$4drop17h5cbb16be691ca283E
	addq	$16, %rsp
	popq	%rbp
	retq
Ltmp570:
Lfunc_end160:
	.cfi_endproc

	.p2align	4, 0x90
__ZN4core3ptr13drop_in_place17h4f7fffbd4dc2a7b2E:
Lfunc_begin161:
	.loc	30 184 0
	.cfi_startproc
	pushq	%rbp
	.cfi_def_cfa_offset 16
	.cfi_offset %rbp, -16
	movq	%rsp, %rbp
	.cfi_def_cfa_register %rbp
	subq	$16, %rsp
	movq	%rdi, -8(%rbp)
Ltmp571:
	.loc	30 184 1 prologue_end
	addq	$16, %rsp
	popq	%rbp
	retq
Ltmp572:
Lfunc_end161:
	.cfi_endproc

	.globl	__ZN4core3ptr13drop_in_place17h5b418882ea8801d2E
	.p2align	4, 0x90
__ZN4core3ptr13drop_in_place17h5b418882ea8801d2E:
Lfunc_begin162:
	.loc	30 184 0
	.cfi_startproc
	pushq	%rbp
	.cfi_def_cfa_offset 16
	.cfi_offset %rbp, -16
	movq	%rsp, %rbp
	.cfi_def_cfa_register %rbp
	subq	$16, %rsp
	movq	%rdi, -8(%rbp)
Ltmp573:
	.loc	30 184 1 prologue_end
	callq	__ZN77_$LT$alloc..raw_vec..RawVec$LT$T$C$A$GT$$u20$as$u20$core..ops..drop..Drop$GT$4drop17h4c77ef29bd504188E
	addq	$16, %rsp
	popq	%rbp
	retq
Ltmp574:
Lfunc_end162:
	.cfi_endproc

	.p2align	4, 0x90
__ZN4core3ptr13drop_in_place17h5ee1c16398d4e243E:
Lfunc_begin163:
	.loc	30 184 0
	.cfi_startproc
	pushq	%rbp
	.cfi_def_cfa_offset 16
	.cfi_offset %rbp, -16
	movq	%rsp, %rbp
	.cfi_def_cfa_register %rbp
	subq	$16, %rsp
	movq	%rdi, -8(%rbp)
Ltmp575:
	.loc	30 184 1 prologue_end
	addq	$16, %rsp
	popq	%rbp
	retq
Ltmp576:
Lfunc_end163:
	.cfi_endproc

	.globl	__ZN4core3ptr13drop_in_place17h6d6c7d67362d5d69E
	.p2align	4, 0x90
__ZN4core3ptr13drop_in_place17h6d6c7d67362d5d69E:
Lfunc_begin164:
	.loc	30 184 0
	.cfi_startproc
	pushq	%rbp
	.cfi_def_cfa_offset 16
	.cfi_offset %rbp, -16
	movq	%rsp, %rbp
	.cfi_def_cfa_register %rbp
	subq	$16, %rsp
	movq	%rdi, -8(%rbp)
Ltmp577:
	.loc	30 184 1 prologue_end
	callq	__ZN95_$LT$alloc..collections..btree..map..IntoIter$LT$K$C$V$GT$$u20$as$u20$core..ops..drop..Drop$GT$4drop17hb3e99d18ce9947e2E
	addq	$16, %rsp
	popq	%rbp
	retq
Ltmp578:
Lfunc_end164:
	.cfi_endproc

	.globl	__ZN4core3ptr13drop_in_place17h72df398e8b86b548E
	.p2align	4, 0x90
__ZN4core3ptr13drop_in_place17h72df398e8b86b548E:
Lfunc_begin165:
	.loc	30 184 0
	.cfi_startproc
	pushq	%rbp
	.cfi_def_cfa_offset 16
	.cfi_offset %rbp, -16
	movq	%rsp, %rbp
	.cfi_def_cfa_register %rbp
	subq	$16, %rsp
	movq	%rdi, -8(%rbp)
Ltmp579:
	.loc	30 184 1 prologue_end
	callq	__ZN77_$LT$alloc..raw_vec..RawVec$LT$T$C$A$GT$$u20$as$u20$core..ops..drop..Drop$GT$4drop17h3279188541b4b90aE
	addq	$16, %rsp
	popq	%rbp
	retq
Ltmp580:
Lfunc_end165:
	.cfi_endproc

	.p2align	4, 0x90
__ZN4core3ptr13drop_in_place17h79236419dd08e2b6E:
Lfunc_begin166:
	.loc	30 184 0
	.cfi_startproc
	pushq	%rbp
	.cfi_def_cfa_offset 16
	.cfi_offset %rbp, -16
	movq	%rsp, %rbp
	.cfi_def_cfa_register %rbp
	subq	$16, %rsp
	movq	%rdi, -8(%rbp)
Ltmp581:
	.loc	30 184 1 prologue_end
	addq	$16, %rsp
	popq	%rbp
	retq
Ltmp582:
Lfunc_end166:
	.cfi_endproc

	.p2align	4, 0x90
__ZN4core3ptr13drop_in_place17h7b90c92f6da486d7E:
Lfunc_begin167:
	.loc	30 184 0
	.cfi_startproc
	pushq	%rbp
	.cfi_def_cfa_offset 16
	.cfi_offset %rbp, -16
	movq	%rsp, %rbp
	.cfi_def_cfa_register %rbp
	subq	$16, %rsp
	movq	%rdi, -8(%rbp)
Ltmp583:
	.loc	30 184 1 prologue_end
	addq	$16, %rsp
	popq	%rbp
	retq
Ltmp584:
Lfunc_end167:
	.cfi_endproc

	.p2align	4, 0x90
__ZN4core3ptr13drop_in_place17h7c49f394ab7f9c83E:
Lfunc_begin168:
	.loc	30 184 0
	.cfi_startproc
	pushq	%rbp
	.cfi_def_cfa_offset 16
	.cfi_offset %rbp, -16
	movq	%rsp, %rbp
	.cfi_def_cfa_register %rbp
	subq	$16, %rsp
	movq	%rdi, -8(%rbp)
Ltmp585:
	.loc	30 184 1 prologue_end
	addq	$16, %rsp
	popq	%rbp
	retq
Ltmp586:
Lfunc_end168:
	.cfi_endproc

	.globl	__ZN4core3ptr13drop_in_place17h7d8c0668e8e8bfb9E
	.p2align	4, 0x90
__ZN4core3ptr13drop_in_place17h7d8c0668e8e8bfb9E:
Lfunc_begin169:
	.loc	30 184 0
	.cfi_startproc
	.cfi_personality 155, _rust_eh_personality
	.cfi_lsda 16, Lexception24
	pushq	%rbp
	.cfi_def_cfa_offset 16
	.cfi_offset %rbp, -16
	movq	%rsp, %rbp
	.cfi_def_cfa_register %rbp
	subq	$48, %rsp
	movq	%rdi, -24(%rbp)
Ltmp590:
	.loc	30 184 1 prologue_end
	movq	(%rdi), %rax
	movq	8(%rdi), %rcx
	movq	(%rcx), %rcx
Ltmp587:
	movq	%rdi, -40(%rbp)
	movq	%rax, %rdi
	callq	*%rcx
Ltmp588:
	jmp	LBB169_3
LBB169_1:
	addq	$48, %rsp
	popq	%rbp
	retq
LBB169_2:
	movq	-16(%rbp), %rdi
	callq	__Unwind_Resume
	ud2
LBB169_3:
	.loc	30 0 1 is_stmt 0
	movq	-40(%rbp), %rax
	.loc	30 184 1
	movq	(%rax), %rdi
	movq	8(%rax), %rsi
	callq	__ZN5alloc5alloc8box_free17h26003fa50da2a3e9E
	jmp	LBB169_1
LBB169_4:
	.loc	30 0 1
	movq	-40(%rbp), %rax
	.loc	30 184 1
	movq	(%rax), %rdi
	movq	8(%rax), %rsi
	callq	__ZN5alloc5alloc8box_free17h26003fa50da2a3e9E
	jmp	LBB169_2
Ltmp591:
LBB169_5:
Ltmp589:
	.loc	30 0 1
	movq	%rax, -16(%rbp)
	movl	%edx, -8(%rbp)
	jmp	LBB169_4
Lfunc_end169:
	.cfi_endproc
	.section	__TEXT,__gcc_except_tab
	.p2align	2
GCC_except_table169:
Lexception24:
	.byte	255
	.byte	255
	.byte	1
	.uleb128 Lcst_end24-Lcst_begin24
Lcst_begin24:
	.uleb128 Ltmp587-Lfunc_begin169
	.uleb128 Ltmp588-Ltmp587
	.uleb128 Ltmp589-Lfunc_begin169
	.byte	0
	.uleb128 Ltmp588-Lfunc_begin169
	.uleb128 Lfunc_end169-Ltmp588
	.byte	0
	.byte	0
Lcst_end24:
	.p2align	2

	.section	__TEXT,__text,regular,pure_instructions
	.globl	__ZN4core3ptr13drop_in_place17h812801dff990752fE
	.p2align	4, 0x90
__ZN4core3ptr13drop_in_place17h812801dff990752fE:
Lfunc_begin170:
	.loc	30 184 0 is_stmt 1
	.cfi_startproc
	.cfi_personality 155, _rust_eh_personality
	.cfi_lsda 16, Lexception25
	pushq	%rbp
	.cfi_def_cfa_offset 16
	.cfi_offset %rbp, -16
	movq	%rsp, %rbp
	.cfi_def_cfa_register %rbp
	subq	$48, %rsp
	movq	%rdi, -24(%rbp)
Ltmp592:
	movq	%rdi, -40(%rbp)
Ltmp595:
	.loc	30 184 1 prologue_end
	callq	__ZN66_$LT$alloc..vec..Vec$LT$T$GT$$u20$as$u20$core..ops..drop..Drop$GT$4drop17hda708b679bb8b09eE
Ltmp593:
	jmp	LBB170_4
LBB170_1:
	movq	-16(%rbp), %rdi
	callq	__Unwind_Resume
	ud2
LBB170_2:
	addq	$48, %rsp
	popq	%rbp
	retq
LBB170_3:
	.loc	30 0 1 is_stmt 0
	movq	-40(%rbp), %rax
	.loc	30 184 1
	movq	%rax, %rdi
	callq	__ZN4core3ptr13drop_in_place17ha5f35c5462d8b279E
	jmp	LBB170_1
LBB170_4:
	.loc	30 0 1
	movq	-40(%rbp), %rax
	.loc	30 184 1
	movq	%rax, %rdi
	callq	__ZN4core3ptr13drop_in_place17ha5f35c5462d8b279E
	jmp	LBB170_2
Ltmp596:
LBB170_5:
Ltmp594:
	.loc	30 0 1
	movq	%rax, -16(%rbp)
	movl	%edx, -8(%rbp)
	jmp	LBB170_3
Lfunc_end170:
	.cfi_endproc
	.section	__TEXT,__gcc_except_tab
	.p2align	2
GCC_except_table170:
Lexception25:
	.byte	255
	.byte	255
	.byte	1
	.uleb128 Lcst_end25-Lcst_begin25
Lcst_begin25:
	.uleb128 Ltmp592-Lfunc_begin170
	.uleb128 Ltmp593-Ltmp592
	.uleb128 Ltmp594-Lfunc_begin170
	.byte	0
	.uleb128 Ltmp593-Lfunc_begin170
	.uleb128 Lfunc_end170-Ltmp593
	.byte	0
	.byte	0
Lcst_end25:
	.p2align	2

	.section	__TEXT,__text,regular,pure_instructions
	.globl	__ZN4core3ptr13drop_in_place17h85f8dcacacfdb883E
	.p2align	4, 0x90
__ZN4core3ptr13drop_in_place17h85f8dcacacfdb883E:
Lfunc_begin171:
	.loc	30 184 0 is_stmt 1
	.cfi_startproc
	pushq	%rbp
	.cfi_def_cfa_offset 16
	.cfi_offset %rbp, -16
	movq	%rsp, %rbp
	.cfi_def_cfa_register %rbp
	subq	$16, %rsp
	movq	%rdi, -8(%rbp)
Ltmp597:
	.loc	30 184 1 prologue_end
	callq	__ZN4core3ptr13drop_in_place17h03c0522dcfa1795dE
	addq	$16, %rsp
	popq	%rbp
	retq
Ltmp598:
Lfunc_end171:
	.cfi_endproc

	.globl	__ZN4core3ptr13drop_in_place17h88400d46979ad07fE
	.p2align	4, 0x90
__ZN4core3ptr13drop_in_place17h88400d46979ad07fE:
Lfunc_begin172:
	.loc	30 184 0
	.cfi_startproc
	.cfi_personality 155, _rust_eh_personality
	.cfi_lsda 16, Lexception26
	pushq	%rbp
	.cfi_def_cfa_offset 16
	.cfi_offset %rbp, -16
	movq	%rsp, %rbp
	.cfi_def_cfa_register %rbp
	subq	$48, %rsp
	movq	%rdi, -24(%rbp)
Ltmp599:
	movq	%rdi, -40(%rbp)
Ltmp602:
	.loc	30 184 1 prologue_end
	callq	__ZN66_$LT$alloc..vec..Vec$LT$T$GT$$u20$as$u20$core..ops..drop..Drop$GT$4drop17h394ce0607578b207E
Ltmp600:
	jmp	LBB172_4
LBB172_1:
	movq	-16(%rbp), %rdi
	callq	__Unwind_Resume
	ud2
LBB172_2:
	addq	$48, %rsp
	popq	%rbp
	retq
LBB172_3:
	.loc	30 0 1 is_stmt 0
	movq	-40(%rbp), %rax
	.loc	30 184 1
	movq	%rax, %rdi
	callq	__ZN4core3ptr13drop_in_place17h433ed8604af29962E
	jmp	LBB172_1
LBB172_4:
	.loc	30 0 1
	movq	-40(%rbp), %rax
	.loc	30 184 1
	movq	%rax, %rdi
	callq	__ZN4core3ptr13drop_in_place17h433ed8604af29962E
	jmp	LBB172_2
Ltmp603:
LBB172_5:
Ltmp601:
	.loc	30 0 1
	movq	%rax, -16(%rbp)
	movl	%edx, -8(%rbp)
	jmp	LBB172_3
Lfunc_end172:
	.cfi_endproc
	.section	__TEXT,__gcc_except_tab
	.p2align	2
GCC_except_table172:
Lexception26:
	.byte	255
	.byte	255
	.byte	1
	.uleb128 Lcst_end26-Lcst_begin26
Lcst_begin26:
	.uleb128 Ltmp599-Lfunc_begin172
	.uleb128 Ltmp600-Ltmp599
	.uleb128 Ltmp601-Lfunc_begin172
	.byte	0
	.uleb128 Ltmp600-Lfunc_begin172
	.uleb128 Lfunc_end172-Ltmp600
	.byte	0
	.byte	0
Lcst_end26:
	.p2align	2

	.section	__TEXT,__text,regular,pure_instructions
	.globl	__ZN4core3ptr13drop_in_place17h8af469b0609352f1E
	.p2align	4, 0x90
__ZN4core3ptr13drop_in_place17h8af469b0609352f1E:
Lfunc_begin173:
	.loc	30 184 0 is_stmt 1
	.cfi_startproc
	.cfi_personality 155, _rust_eh_personality
	.cfi_lsda 16, Lexception27
	pushq	%rbp
	.cfi_def_cfa_offset 16
	.cfi_offset %rbp, -16
	movq	%rsp, %rbp
	.cfi_def_cfa_register %rbp
	subq	$48, %rsp
	movq	%rdi, -24(%rbp)
Ltmp604:
	movq	%rdi, -40(%rbp)
Ltmp607:
	.loc	30 184 1 prologue_end
	callq	__ZN66_$LT$alloc..vec..Vec$LT$T$GT$$u20$as$u20$core..ops..drop..Drop$GT$4drop17h520a287a3dec4ad6E
Ltmp605:
	jmp	LBB173_4
LBB173_1:
	movq	-16(%rbp), %rdi
	callq	__Unwind_Resume
	ud2
LBB173_2:
	addq	$48, %rsp
	popq	%rbp
	retq
LBB173_3:
	.loc	30 0 1 is_stmt 0
	movq	-40(%rbp), %rax
	.loc	30 184 1
	movq	%rax, %rdi
	callq	__ZN4core3ptr13drop_in_place17h5b418882ea8801d2E
	jmp	LBB173_1
LBB173_4:
	.loc	30 0 1
	movq	-40(%rbp), %rax
	.loc	30 184 1
	movq	%rax, %rdi
	callq	__ZN4core3ptr13drop_in_place17h5b418882ea8801d2E
	jmp	LBB173_2
Ltmp608:
LBB173_5:
Ltmp606:
	.loc	30 0 1
	movq	%rax, -16(%rbp)
	movl	%edx, -8(%rbp)
	jmp	LBB173_3
Lfunc_end173:
	.cfi_endproc
	.section	__TEXT,__gcc_except_tab
	.p2align	2
GCC_except_table173:
Lexception27:
	.byte	255
	.byte	255
	.byte	1
	.uleb128 Lcst_end27-Lcst_begin27
Lcst_begin27:
	.uleb128 Ltmp604-Lfunc_begin173
	.uleb128 Ltmp605-Ltmp604
	.uleb128 Ltmp606-Lfunc_begin173
	.byte	0
	.uleb128 Ltmp605-Lfunc_begin173
	.uleb128 Lfunc_end173-Ltmp605
	.byte	0
	.byte	0
Lcst_end27:
	.p2align	2

	.section	__TEXT,__text,regular,pure_instructions
	.p2align	4, 0x90
__ZN4core3ptr13drop_in_place17h8cc065bbabe3af44E:
Lfunc_begin174:
	.loc	30 184 0 is_stmt 1
	.cfi_startproc
	pushq	%rbp
	.cfi_def_cfa_offset 16
	.cfi_offset %rbp, -16
	movq	%rsp, %rbp
	.cfi_def_cfa_register %rbp
	subq	$16, %rsp
	movq	%rdi, -8(%rbp)
Ltmp609:
	.loc	30 184 1 prologue_end
	addq	$16, %rsp
	popq	%rbp
	retq
Ltmp610:
Lfunc_end174:
	.cfi_endproc

	.p2align	4, 0x90
__ZN4core3ptr13drop_in_place17h8df6e1ad4d9d42a4E:
Lfunc_begin175:
	.loc	30 184 0
	.cfi_startproc
	pushq	%rbp
	.cfi_def_cfa_offset 16
	.cfi_offset %rbp, -16
	movq	%rsp, %rbp
	.cfi_def_cfa_register %rbp
	subq	$16, %rsp
	movq	%rdi, -8(%rbp)
Ltmp611:
	.loc	30 184 1 prologue_end
	addq	$16, %rsp
	popq	%rbp
	retq
Ltmp612:
Lfunc_end175:
	.cfi_endproc

	.p2align	4, 0x90
__ZN4core3ptr13drop_in_place17h9182d634f610b8dbE:
Lfunc_begin176:
	.loc	30 184 0
	.cfi_startproc
	pushq	%rbp
	.cfi_def_cfa_offset 16
	.cfi_offset %rbp, -16
	movq	%rsp, %rbp
	.cfi_def_cfa_register %rbp
	subq	$16, %rsp
	movq	%rdi, -8(%rbp)
Ltmp613:
	.loc	30 184 1 prologue_end
	addq	$16, %rsp
	popq	%rbp
	retq
Ltmp614:
Lfunc_end176:
	.cfi_endproc

	.globl	__ZN4core3ptr13drop_in_place17h9357346ef436ee81E
	.p2align	4, 0x90
__ZN4core3ptr13drop_in_place17h9357346ef436ee81E:
Lfunc_begin177:
	.loc	30 184 0
	.cfi_startproc
	pushq	%rbp
	.cfi_def_cfa_offset 16
	.cfi_offset %rbp, -16
	movq	%rsp, %rbp
	.cfi_def_cfa_register %rbp
	subq	$32, %rsp
	xorl	%eax, %eax
	movl	%eax, %ecx
	movq	%rdi, -8(%rbp)
Ltmp615:
	.loc	30 184 1 prologue_end
	movb	(%rdi), %dl
	subb	$3, %dl
	cmpb	$0, %dl
	movl	$1, %esi
	cmovbeq	%rcx, %rsi
	cmpq	$0, %rsi
	movq	%rdi, -24(%rbp)
	jne	LBB177_2
LBB177_1:
	addq	$32, %rsp
	popq	%rbp
	retq
LBB177_2:
	.loc	30 0 1 is_stmt 0
	movq	-24(%rbp), %rax
	.loc	30 184 1
	movq	%rax, %rdi
	callq	__ZN4core3ptr13drop_in_place17h41b0189370230be4E
	jmp	LBB177_1
Ltmp616:
Lfunc_end177:
	.cfi_endproc

	.globl	__ZN4core3ptr13drop_in_place17h969522c4a531d73bE
	.p2align	4, 0x90
__ZN4core3ptr13drop_in_place17h969522c4a531d73bE:
Lfunc_begin178:
	.loc	30 184 0 is_stmt 1
	.cfi_startproc
	pushq	%rbp
	.cfi_def_cfa_offset 16
	.cfi_offset %rbp, -16
	movq	%rsp, %rbp
	.cfi_def_cfa_register %rbp
	subq	$32, %rsp
	xorl	%eax, %eax
	movl	%eax, %ecx
	movq	%rdi, -8(%rbp)
Ltmp617:
	.loc	30 184 1 prologue_end
	cmpq	$0, (%rdi)
	movl	$1, %edx
	cmovbeq	%rcx, %rdx
	cmpq	$0, %rdx
	movq	%rdi, -24(%rbp)
	jne	LBB178_2
LBB178_1:
	addq	$32, %rsp
	popq	%rbp
	retq
LBB178_2:
	.loc	30 0 1 is_stmt 0
	movq	-24(%rbp), %rax
	.loc	30 184 1
	movq	%rax, %rdi
	callq	__ZN4core3ptr13drop_in_place17h1f1dc481d6d42004E
	jmp	LBB178_1
Ltmp618:
Lfunc_end178:
	.cfi_endproc

	.globl	__ZN4core3ptr13drop_in_place17ha28e40830cd69c1aE
	.p2align	4, 0x90
__ZN4core3ptr13drop_in_place17ha28e40830cd69c1aE:
Lfunc_begin179:
	.loc	30 184 0 is_stmt 1
	.cfi_startproc
	pushq	%rbp
	.cfi_def_cfa_offset 16
	.cfi_offset %rbp, -16
	movq	%rsp, %rbp
	.cfi_def_cfa_register %rbp
	subq	$32, %rsp
	movq	%rdi, -8(%rbp)
Ltmp619:
	.loc	30 184 1 prologue_end
	movzbl	(%rdi), %eax
	movl	%eax, %ecx
	testq	%rcx, %rcx
	movq	%rdi, -24(%rbp)
	movq	%rcx, -32(%rbp)
	je	LBB179_2
	jmp	LBB179_3
LBB179_3:
	.loc	30 0 1 is_stmt 0
	movq	-32(%rbp), %rax
	.loc	30 184 1
	decq	%rax
	subq	$1, %rax
	ja	LBB179_1
	jmp	LBB179_1
LBB179_1:
	addq	$32, %rsp
	popq	%rbp
	retq
LBB179_2:
	.loc	30 0 1
	movq	-24(%rbp), %rax
	.loc	30 184 1
	addq	$8, %rax
	movq	%rax, %rdi
	callq	__ZN4core3ptr13drop_in_place17h41b0189370230be4E
	jmp	LBB179_1
Ltmp620:
Lfunc_end179:
	.cfi_endproc

	.globl	__ZN4core3ptr13drop_in_place17ha356b3567b3c5730E
	.p2align	4, 0x90
__ZN4core3ptr13drop_in_place17ha356b3567b3c5730E:
Lfunc_begin180:
	.loc	30 184 0 is_stmt 1
	.cfi_startproc
	pushq	%rbp
	.cfi_def_cfa_offset 16
	.cfi_offset %rbp, -16
	movq	%rsp, %rbp
	.cfi_def_cfa_register %rbp
	subq	$16, %rsp
	movq	%rdi, -8(%rbp)
Ltmp621:
	.loc	30 184 1 prologue_end
	callq	__ZN4core3ptr13drop_in_place17hdb03aadc7bfc8c5cE
	addq	$16, %rsp
	popq	%rbp
	retq
Ltmp622:
Lfunc_end180:
	.cfi_endproc

	.globl	__ZN4core3ptr13drop_in_place17ha48078aa03893a03E
	.p2align	4, 0x90
__ZN4core3ptr13drop_in_place17ha48078aa03893a03E:
Lfunc_begin181:
	.loc	30 184 0
	.cfi_startproc
	pushq	%rbp
	.cfi_def_cfa_offset 16
	.cfi_offset %rbp, -16
	movq	%rsp, %rbp
	.cfi_def_cfa_register %rbp
	subq	$16, %rsp
	movq	%rdi, -8(%rbp)
Ltmp623:
	.loc	30 184 1 prologue_end
	callq	__ZN4core3ptr13drop_in_place17h0aa7fb5dc65d714eE
	addq	$16, %rsp
	popq	%rbp
	retq
Ltmp624:
Lfunc_end181:
	.cfi_endproc

	.globl	__ZN4core3ptr13drop_in_place17ha5f35c5462d8b279E
	.p2align	4, 0x90
__ZN4core3ptr13drop_in_place17ha5f35c5462d8b279E:
Lfunc_begin182:
	.loc	30 184 0
	.cfi_startproc
	pushq	%rbp
	.cfi_def_cfa_offset 16
	.cfi_offset %rbp, -16
	movq	%rsp, %rbp
	.cfi_def_cfa_register %rbp
	subq	$16, %rsp
	movq	%rdi, -8(%rbp)
Ltmp625:
	.loc	30 184 1 prologue_end
	callq	__ZN77_$LT$alloc..raw_vec..RawVec$LT$T$C$A$GT$$u20$as$u20$core..ops..drop..Drop$GT$4drop17ha688c823b703437bE
	addq	$16, %rsp
	popq	%rbp
	retq
Ltmp626:
Lfunc_end182:
	.cfi_endproc

	.globl	__ZN4core3ptr13drop_in_place17haabb459a0d5683a4E
	.p2align	4, 0x90
__ZN4core3ptr13drop_in_place17haabb459a0d5683a4E:
Lfunc_begin183:
	.loc	30 184 0
	.cfi_startproc
	pushq	%rbp
	.cfi_def_cfa_offset 16
	.cfi_offset %rbp, -16
	movq	%rsp, %rbp
	.cfi_def_cfa_register %rbp
	subq	$32, %rsp
	movq	%rdi, -16(%rbp)
	movq	%rsi, -8(%rbp)
Ltmp627:
	.loc	30 184 1 prologue_end
	callq	*(%rsi)
	addq	$32, %rsp
	popq	%rbp
	retq
Ltmp628:
Lfunc_end183:
	.cfi_endproc

	.globl	__ZN4core3ptr13drop_in_place17haba7e23a9e741a09E
	.p2align	4, 0x90
__ZN4core3ptr13drop_in_place17haba7e23a9e741a09E:
Lfunc_begin184:
	.loc	30 184 0
	.cfi_startproc
	.cfi_personality 155, _rust_eh_personality
	.cfi_lsda 16, Lexception28
	pushq	%rbp
	.cfi_def_cfa_offset 16
	.cfi_offset %rbp, -16
	movq	%rsp, %rbp
	.cfi_def_cfa_register %rbp
	subq	$48, %rsp
	movq	%rdi, -24(%rbp)
Ltmp635:
	.loc	30 184 1 prologue_end
	movq	%rdi, %rax
	addq	$12, %rax
Ltmp629:
	movq	%rdi, -40(%rbp)
	movq	%rax, %rdi
	callq	__ZN4core3ptr13drop_in_place17hda7961c2c22c8aa2E
Ltmp630:
	jmp	LBB184_6
LBB184_1:
	movq	-16(%rbp), %rdi
	callq	__Unwind_Resume
	ud2
LBB184_2:
	addq	$48, %rsp
	popq	%rbp
	retq
LBB184_3:
	.loc	30 0 1 is_stmt 0
	movq	-40(%rbp), %rax
	.loc	30 184 1
	addq	$28, %rax
	movq	%rax, %rdi
	callq	__ZN4core3ptr13drop_in_place17hb65cf3b83326466cE
	jmp	LBB184_1
LBB184_4:
	.loc	30 0 1
	movq	-40(%rbp), %rax
	.loc	30 184 1
	addq	$20, %rax
	movq	%rax, %rdi
	callq	__ZN4core3ptr13drop_in_place17hc9124868b3fbc73bE
	jmp	LBB184_3
LBB184_5:
	.loc	30 0 1
	movq	-40(%rbp), %rax
	.loc	30 184 1
	addq	$28, %rax
	movq	%rax, %rdi
	callq	__ZN4core3ptr13drop_in_place17hb65cf3b83326466cE
	jmp	LBB184_2
LBB184_6:
	.loc	30 0 1
	movq	-40(%rbp), %rax
	.loc	30 184 1
	addq	$20, %rax
Ltmp632:
	movq	%rax, %rdi
	callq	__ZN4core3ptr13drop_in_place17hc9124868b3fbc73bE
Ltmp633:
	jmp	LBB184_5
Ltmp636:
LBB184_7:
Ltmp631:
	.loc	30 0 1
	movq	%rax, -16(%rbp)
	movl	%edx, -8(%rbp)
	jmp	LBB184_4
LBB184_8:
Ltmp634:
	movq	%rax, -16(%rbp)
	movl	%edx, -8(%rbp)
	jmp	LBB184_3
Lfunc_end184:
	.cfi_endproc
	.section	__TEXT,__gcc_except_tab
	.p2align	2
GCC_except_table184:
Lexception28:
	.byte	255
	.byte	255
	.byte	1
	.uleb128 Lcst_end28-Lcst_begin28
Lcst_begin28:
	.uleb128 Ltmp629-Lfunc_begin184
	.uleb128 Ltmp630-Ltmp629
	.uleb128 Ltmp631-Lfunc_begin184
	.byte	0
	.uleb128 Ltmp630-Lfunc_begin184
	.uleb128 Ltmp632-Ltmp630
	.byte	0
	.byte	0
	.uleb128 Ltmp632-Lfunc_begin184
	.uleb128 Ltmp633-Ltmp632
	.uleb128 Ltmp634-Lfunc_begin184
	.byte	0
Lcst_end28:
	.p2align	2

	.section	__TEXT,__text,regular,pure_instructions
	.globl	__ZN4core3ptr13drop_in_place17hac6db7d95b72055dE
	.p2align	4, 0x90
__ZN4core3ptr13drop_in_place17hac6db7d95b72055dE:
Lfunc_begin185:
	.loc	30 184 0 is_stmt 1
	.cfi_startproc
	pushq	%rbp
	.cfi_def_cfa_offset 16
	.cfi_offset %rbp, -16
	movq	%rsp, %rbp
	.cfi_def_cfa_register %rbp
	subq	$32, %rsp
	xorl	%eax, %eax
	movl	%eax, %ecx
	movq	%rdi, -8(%rbp)
Ltmp637:
	.loc	30 184 1 prologue_end
	cmpq	$0, (%rdi)
	movl	$1, %edx
	cmovbeq	%rcx, %rdx
	cmpq	$0, %rdx
	movq	%rdi, -24(%rbp)
	jne	LBB185_2
LBB185_1:
	addq	$32, %rsp
	popq	%rbp
	retq
LBB185_2:
	.loc	30 0 1 is_stmt 0
	movq	-24(%rbp), %rax
	.loc	30 184 1
	movq	%rax, %rdi
	callq	__ZN4core3ptr13drop_in_place17hdb03aadc7bfc8c5cE
	jmp	LBB185_1
Ltmp638:
Lfunc_end185:
	.cfi_endproc

	.globl	__ZN4core3ptr13drop_in_place17haee59165825486a5E
	.p2align	4, 0x90
__ZN4core3ptr13drop_in_place17haee59165825486a5E:
Lfunc_begin186:
	.loc	30 184 0 is_stmt 1
	.cfi_startproc
	.cfi_personality 155, _rust_eh_personality
	.cfi_lsda 16, Lexception29
	pushq	%rbp
	.cfi_def_cfa_offset 16
	.cfi_offset %rbp, -16
	movq	%rsp, %rbp
	.cfi_def_cfa_register %rbp
	subq	$48, %rsp
	movq	%rdi, -24(%rbp)
Ltmp642:
	.loc	30 184 1 prologue_end
	movq	(%rdi), %rax
	movq	8(%rdi), %rcx
	movq	(%rcx), %rcx
Ltmp639:
	movq	%rdi, -40(%rbp)
	movq	%rax, %rdi
	callq	*%rcx
Ltmp640:
	jmp	LBB186_3
LBB186_1:
	addq	$48, %rsp
	popq	%rbp
	retq
LBB186_2:
	movq	-16(%rbp), %rdi
	callq	__Unwind_Resume
	ud2
LBB186_3:
	.loc	30 0 1 is_stmt 0
	movq	-40(%rbp), %rax
	.loc	30 184 1
	movq	(%rax), %rdi
	movq	8(%rax), %rsi
	callq	__ZN5alloc5alloc8box_free17h2c9ba80670d3f533E
	jmp	LBB186_1
LBB186_4:
	.loc	30 0 1
	movq	-40(%rbp), %rax
	.loc	30 184 1
	movq	(%rax), %rdi
	movq	8(%rax), %rsi
	callq	__ZN5alloc5alloc8box_free17h2c9ba80670d3f533E
	jmp	LBB186_2
Ltmp643:
LBB186_5:
Ltmp641:
	.loc	30 0 1
	movq	%rax, -16(%rbp)
	movl	%edx, -8(%rbp)
	jmp	LBB186_4
Lfunc_end186:
	.cfi_endproc
	.section	__TEXT,__gcc_except_tab
	.p2align	2
GCC_except_table186:
Lexception29:
	.byte	255
	.byte	255
	.byte	1
	.uleb128 Lcst_end29-Lcst_begin29
Lcst_begin29:
	.uleb128 Ltmp639-Lfunc_begin186
	.uleb128 Ltmp640-Ltmp639
	.uleb128 Ltmp641-Lfunc_begin186
	.byte	0
	.uleb128 Ltmp640-Lfunc_begin186
	.uleb128 Lfunc_end186-Ltmp640
	.byte	0
	.byte	0
Lcst_end29:
	.p2align	2

	.section	__TEXT,__text,regular,pure_instructions
	.globl	__ZN4core3ptr13drop_in_place17hb28541dc3a6c3ac5E
	.p2align	4, 0x90
__ZN4core3ptr13drop_in_place17hb28541dc3a6c3ac5E:
Lfunc_begin187:
	.loc	30 184 0 is_stmt 1
	.cfi_startproc
	.cfi_personality 155, _rust_eh_personality
	.cfi_lsda 16, Lexception30
	pushq	%rbp
	.cfi_def_cfa_offset 16
	.cfi_offset %rbp, -16
	movq	%rsp, %rbp
	.cfi_def_cfa_register %rbp
	subq	$80, %rsp
	xorl	%eax, %eax
	movq	%rdi, -32(%rbp)
	movq	%rsi, -24(%rbp)
Ltmp650:
	.loc	30 184 1 prologue_end
	testb	$1, %al
	movq	%rdi, -72(%rbp)
	movq	%rsi, -80(%rbp)
	jne	LBB187_7
	jmp	LBB187_12
LBB187_1:
	addq	$80, %rsp
	popq	%rbp
	retq
LBB187_2:
	movq	-16(%rbp), %rdi
	callq	__Unwind_Resume
	ud2
LBB187_3:
	imulq	$24, -56(%rbp), %rax
	movq	-72(%rbp), %rcx
	addq	%rax, %rcx
	movq	-56(%rbp), %rax
	addq	$1, %rax
	movq	%rax, -56(%rbp)
	movq	%rcx, %rdi
	callq	__ZN4core3ptr13drop_in_place17h0aa7fb5dc65d714eE
LBB187_4:
	.loc	30 0 1 is_stmt 0
	movq	-80(%rbp), %rax
	.loc	30 184 1
	cmpq	%rax, -56(%rbp)
	je	LBB187_2
	jmp	LBB187_3
LBB187_5:
	movq	-56(%rbp), %rax
	leaq	(%rax,%rax,2), %rcx
	movq	-72(%rbp), %rdx
	leaq	(%rdx,%rcx,8), %rdi
	incq	%rax
	movq	%rax, -56(%rbp)
Ltmp647:
	callq	__ZN4core3ptr13drop_in_place17h0aa7fb5dc65d714eE
Ltmp648:
	jmp	LBB187_6
LBB187_6:
	.loc	30 0 1
	movq	-80(%rbp), %rax
	.loc	30 184 1
	cmpq	%rax, -56(%rbp)
	je	LBB187_1
	jmp	LBB187_5
LBB187_7:
	movq	$0, -56(%rbp)
	jmp	LBB187_6
LBB187_8:
	movq	-48(%rbp), %rdi
	movq	-48(%rbp), %rax
	addq	$24, %rax
	movq	%rax, -48(%rbp)
	callq	__ZN4core3ptr13drop_in_place17h0aa7fb5dc65d714eE
LBB187_9:
	movq	-48(%rbp), %rax
	cmpq	-40(%rbp), %rax
	je	LBB187_2
	jmp	LBB187_8
LBB187_10:
	movq	-48(%rbp), %rax
	movq	%rax, %rcx
	addq	$24, %rcx
	movq	%rcx, -48(%rbp)
Ltmp644:
	movq	%rax, %rdi
	callq	__ZN4core3ptr13drop_in_place17h0aa7fb5dc65d714eE
Ltmp645:
	jmp	LBB187_11
LBB187_11:
	movq	-48(%rbp), %rax
	cmpq	-40(%rbp), %rax
	je	LBB187_1
	jmp	LBB187_10
LBB187_12:
	.loc	30 0 1
	movq	-72(%rbp), %rax
	.loc	30 184 1
	movq	%rax, -48(%rbp)
	movq	-80(%rbp), %rax
	imulq	$24, %rax, %rcx
	addq	-48(%rbp), %rcx
	movq	%rcx, -40(%rbp)
	jmp	LBB187_11
Ltmp651:
LBB187_13:
Ltmp646:
	.loc	30 0 1
	movq	%rax, -16(%rbp)
	movl	%edx, -8(%rbp)
	jmp	LBB187_9
LBB187_14:
Ltmp649:
	movq	%rax, -16(%rbp)
	movl	%edx, -8(%rbp)
	jmp	LBB187_4
Lfunc_end187:
	.cfi_endproc
	.section	__TEXT,__gcc_except_tab
	.p2align	2
GCC_except_table187:
Lexception30:
	.byte	255
	.byte	255
	.byte	1
	.uleb128 Lcst_end30-Lcst_begin30
Lcst_begin30:
	.uleb128 Lfunc_begin187-Lfunc_begin187
	.uleb128 Ltmp647-Lfunc_begin187
	.byte	0
	.byte	0
	.uleb128 Ltmp647-Lfunc_begin187
	.uleb128 Ltmp648-Ltmp647
	.uleb128 Ltmp649-Lfunc_begin187
	.byte	0
	.uleb128 Ltmp648-Lfunc_begin187
	.uleb128 Ltmp644-Ltmp648
	.byte	0
	.byte	0
	.uleb128 Ltmp644-Lfunc_begin187
	.uleb128 Ltmp645-Ltmp644
	.uleb128 Ltmp646-Lfunc_begin187
	.byte	0
Lcst_end30:
	.p2align	2

	.section	__TEXT,__text,regular,pure_instructions
	.globl	__ZN4core3ptr13drop_in_place17hb3161ba47ac99f42E
	.p2align	4, 0x90
__ZN4core3ptr13drop_in_place17hb3161ba47ac99f42E:
Lfunc_begin188:
	.loc	30 184 0 is_stmt 1
	.cfi_startproc
	pushq	%rbp
	.cfi_def_cfa_offset 16
	.cfi_offset %rbp, -16
	movq	%rsp, %rbp
	.cfi_def_cfa_register %rbp
	subq	$16, %rsp
	movq	%rdi, -8(%rbp)
Ltmp652:
	.loc	30 184 1 prologue_end
	callq	__ZN95_$LT$alloc..collections..btree..map..BTreeMap$LT$K$C$V$GT$$u20$as$u20$core..ops..drop..Drop$GT$4drop17hcf03358521cab707E
	addq	$16, %rsp
	popq	%rbp
	retq
Ltmp653:
Lfunc_end188:
	.cfi_endproc

	.globl	__ZN4core3ptr13drop_in_place17hb65cf3b83326466cE
	.p2align	4, 0x90
__ZN4core3ptr13drop_in_place17hb65cf3b83326466cE:
Lfunc_begin189:
	.loc	30 184 0
	.cfi_startproc
	pushq	%rbp
	.cfi_def_cfa_offset 16
	.cfi_offset %rbp, -16
	movq	%rsp, %rbp
	.cfi_def_cfa_register %rbp
	subq	$32, %rsp
	movq	%rdi, -8(%rbp)
Ltmp654:
	.loc	30 184 1 prologue_end
	movl	(%rdi), %eax
	movl	%eax, %ecx
	cmpq	$0, %rcx
	movq	%rdi, -24(%rbp)
	jne	LBB189_2
LBB189_1:
	addq	$32, %rsp
	popq	%rbp
	retq
LBB189_2:
	.loc	30 0 1 is_stmt 0
	movq	-24(%rbp), %rax
	.loc	30 184 1
	addq	$4, %rax
	movq	%rax, %rdi
	callq	__ZN4core3ptr13drop_in_place17h85f8dcacacfdb883E
	jmp	LBB189_1
Ltmp655:
Lfunc_end189:
	.cfi_endproc

	.globl	__ZN4core3ptr13drop_in_place17hb86280f203be72e3E
	.p2align	4, 0x90
__ZN4core3ptr13drop_in_place17hb86280f203be72e3E:
Lfunc_begin190:
	.loc	30 184 0 is_stmt 1
	.cfi_startproc
	pushq	%rbp
	.cfi_def_cfa_offset 16
	.cfi_offset %rbp, -16
	movq	%rsp, %rbp
	.cfi_def_cfa_register %rbp
	subq	$32, %rsp
	xorl	%eax, %eax
	movl	%eax, %ecx
	movq	%rdi, -8(%rbp)
Ltmp656:
	.loc	30 184 1 prologue_end
	cmpq	$0, (%rdi)
	movl	$1, %edx
	cmovbeq	%rcx, %rdx
	cmpq	$0, %rdx
	movq	%rdi, -24(%rbp)
	jne	LBB190_2
LBB190_1:
	addq	$32, %rsp
	popq	%rbp
	retq
LBB190_2:
	.loc	30 0 1 is_stmt 0
	movq	-24(%rbp), %rdi
	.loc	30 184 1
	callq	__ZN4core3ptr13drop_in_place17hd7fea566956198a3E
	jmp	LBB190_1
Ltmp657:
Lfunc_end190:
	.cfi_endproc

	.globl	__ZN4core3ptr13drop_in_place17hbe1d3802e1c5cdd5E
	.p2align	4, 0x90
__ZN4core3ptr13drop_in_place17hbe1d3802e1c5cdd5E:
Lfunc_begin191:
	.loc	30 184 0 is_stmt 1
	.cfi_startproc
	pushq	%rbp
	.cfi_def_cfa_offset 16
	.cfi_offset %rbp, -16
	movq	%rsp, %rbp
	.cfi_def_cfa_register %rbp
	subq	$16, %rsp
	movq	%rdi, -8(%rbp)
Ltmp658:
	.loc	30 184 1 prologue_end
	callq	__ZN4core3ptr13drop_in_place17h03c0522dcfa1795dE
	addq	$16, %rsp
	popq	%rbp
	retq
Ltmp659:
Lfunc_end191:
	.cfi_endproc

	.globl	__ZN4core3ptr13drop_in_place17hbfde0a576c45069dE
	.p2align	4, 0x90
__ZN4core3ptr13drop_in_place17hbfde0a576c45069dE:
Lfunc_begin192:
	.loc	30 184 0
	.cfi_startproc
	pushq	%rbp
	.cfi_def_cfa_offset 16
	.cfi_offset %rbp, -16
	movq	%rsp, %rbp
	.cfi_def_cfa_register %rbp
	subq	$16, %rsp
	movq	%rdi, -8(%rbp)
Ltmp660:
	.loc	30 184 1 prologue_end
	callq	__ZN4core3ptr13drop_in_place17ha28e40830cd69c1aE
	addq	$16, %rsp
	popq	%rbp
	retq
Ltmp661:
Lfunc_end192:
	.cfi_endproc

	.globl	__ZN4core3ptr13drop_in_place17hc014c03998f9a487E
	.p2align	4, 0x90
__ZN4core3ptr13drop_in_place17hc014c03998f9a487E:
Lfunc_begin193:
	.loc	30 184 0
	.cfi_startproc
	pushq	%rbp
	.cfi_def_cfa_offset 16
	.cfi_offset %rbp, -16
	movq	%rsp, %rbp
	.cfi_def_cfa_register %rbp
	subq	$16, %rsp
	movq	%rdi, -8(%rbp)
Ltmp662:
	.loc	30 184 1 prologue_end
	callq	__ZN4core3ptr13drop_in_place17h812801dff990752fE
	addq	$16, %rsp
	popq	%rbp
	retq
Ltmp663:
Lfunc_end193:
	.cfi_endproc

	.globl	__ZN4core3ptr13drop_in_place17hc17077c6e1c38bf7E
	.p2align	4, 0x90
__ZN4core3ptr13drop_in_place17hc17077c6e1c38bf7E:
Lfunc_begin194:
	.loc	30 184 0
	.cfi_startproc
	pushq	%rbp
	.cfi_def_cfa_offset 16
	.cfi_offset %rbp, -16
	movq	%rsp, %rbp
	.cfi_def_cfa_register %rbp
	subq	$16, %rsp
	movq	%rdi, -8(%rbp)
Ltmp664:
	.loc	30 184 1 prologue_end
	callq	__ZN166_$LT$$LT$alloc..collections..btree..map..IntoIter$LT$K$C$V$GT$$u20$as$u20$core..ops..drop..Drop$GT$..drop..DropGuard$LT$K$C$V$GT$$u20$as$u20$core..ops..drop..Drop$GT$4drop17h34f6e37713f65772E
	addq	$16, %rsp
	popq	%rbp
	retq
Ltmp665:
Lfunc_end194:
	.cfi_endproc

	.globl	__ZN4core3ptr13drop_in_place17hc875f52213cbf67eE
	.p2align	4, 0x90
__ZN4core3ptr13drop_in_place17hc875f52213cbf67eE:
Lfunc_begin195:
	.loc	30 184 0
	.cfi_startproc
	.cfi_personality 155, _rust_eh_personality
	.cfi_lsda 16, Lexception31
	pushq	%rbp
	.cfi_def_cfa_offset 16
	.cfi_offset %rbp, -16
	movq	%rsp, %rbp
	.cfi_def_cfa_register %rbp
	subq	$48, %rsp
	movq	%rdi, -24(%rbp)
Ltmp666:
	movq	%rdi, -40(%rbp)
Ltmp669:
	.loc	30 184 1 prologue_end
	callq	__ZN4core3ptr13drop_in_place17h08138b641c94b507E
Ltmp667:
	jmp	LBB195_4
LBB195_1:
	movq	-16(%rbp), %rdi
	callq	__Unwind_Resume
	ud2
LBB195_2:
	addq	$48, %rsp
	popq	%rbp
	retq
LBB195_3:
	.loc	30 0 1 is_stmt 0
	movq	-40(%rbp), %rax
	.loc	30 184 1
	addq	$24, %rax
	movq	%rax, %rdi
	callq	__ZN4core3ptr13drop_in_place17h08138b641c94b507E
	jmp	LBB195_1
LBB195_4:
	.loc	30 0 1
	movq	-40(%rbp), %rax
	.loc	30 184 1
	addq	$24, %rax
	movq	%rax, %rdi
	callq	__ZN4core3ptr13drop_in_place17h08138b641c94b507E
	jmp	LBB195_2
Ltmp670:
LBB195_5:
Ltmp668:
	.loc	30 0 1
	movq	%rax, -16(%rbp)
	movl	%edx, -8(%rbp)
	jmp	LBB195_3
Lfunc_end195:
	.cfi_endproc
	.section	__TEXT,__gcc_except_tab
	.p2align	2
GCC_except_table195:
Lexception31:
	.byte	255
	.byte	255
	.byte	1
	.uleb128 Lcst_end31-Lcst_begin31
Lcst_begin31:
	.uleb128 Ltmp666-Lfunc_begin195
	.uleb128 Ltmp667-Ltmp666
	.uleb128 Ltmp668-Lfunc_begin195
	.byte	0
	.uleb128 Ltmp667-Lfunc_begin195
	.uleb128 Lfunc_end195-Ltmp667
	.byte	0
	.byte	0
Lcst_end31:
	.p2align	2

	.section	__TEXT,__text,regular,pure_instructions
	.globl	__ZN4core3ptr13drop_in_place17hc9124868b3fbc73bE
	.p2align	4, 0x90
__ZN4core3ptr13drop_in_place17hc9124868b3fbc73bE:
Lfunc_begin196:
	.loc	30 184 0 is_stmt 1
	.cfi_startproc
	pushq	%rbp
	.cfi_def_cfa_offset 16
	.cfi_offset %rbp, -16
	movq	%rsp, %rbp
	.cfi_def_cfa_register %rbp
	subq	$32, %rsp
	movq	%rdi, -8(%rbp)
Ltmp671:
	.loc	30 184 1 prologue_end
	movl	(%rdi), %eax
	movl	%eax, %ecx
	cmpq	$0, %rcx
	movq	%rdi, -24(%rbp)
	jne	LBB196_2
LBB196_1:
	addq	$32, %rsp
	popq	%rbp
	retq
LBB196_2:
	.loc	30 0 1 is_stmt 0
	movq	-24(%rbp), %rax
	.loc	30 184 1
	addq	$4, %rax
	movq	%rax, %rdi
	callq	__ZN4core3ptr13drop_in_place17hd4827752138a01e7E
	jmp	LBB196_1
Ltmp672:
Lfunc_end196:
	.cfi_endproc

	.globl	__ZN4core3ptr13drop_in_place17hcb137f1f36908b83E
	.p2align	4, 0x90
__ZN4core3ptr13drop_in_place17hcb137f1f36908b83E:
Lfunc_begin197:
	.loc	30 184 0 is_stmt 1
	.cfi_startproc
	pushq	%rbp
	.cfi_def_cfa_offset 16
	.cfi_offset %rbp, -16
	movq	%rsp, %rbp
	.cfi_def_cfa_register %rbp
	subq	$16, %rsp
	movq	%rdi, -8(%rbp)
Ltmp673:
	.loc	30 184 1 prologue_end
	callq	__ZN4core3ptr13drop_in_place17h091133f3542f19d6E
	addq	$16, %rsp
	popq	%rbp
	retq
Ltmp674:
Lfunc_end197:
	.cfi_endproc

	.globl	__ZN4core3ptr13drop_in_place17hcb562b70444c30feE
	.p2align	4, 0x90
__ZN4core3ptr13drop_in_place17hcb562b70444c30feE:
Lfunc_begin198:
	.loc	30 184 0
	.cfi_startproc
	pushq	%rbp
	.cfi_def_cfa_offset 16
	.cfi_offset %rbp, -16
	movq	%rsp, %rbp
	.cfi_def_cfa_register %rbp
	subq	$16, %rsp
	movq	%rdi, -8(%rbp)
Ltmp675:
	.loc	30 184 1 prologue_end
	callq	__ZN4core3ptr13drop_in_place17hb3161ba47ac99f42E
	addq	$16, %rsp
	popq	%rbp
	retq
Ltmp676:
Lfunc_end198:
	.cfi_endproc

	.globl	__ZN4core3ptr13drop_in_place17hcfd38f2ba6f9e35cE
	.p2align	4, 0x90
__ZN4core3ptr13drop_in_place17hcfd38f2ba6f9e35cE:
Lfunc_begin199:
	.loc	30 184 0
	.cfi_startproc
	pushq	%rbp
	.cfi_def_cfa_offset 16
	.cfi_offset %rbp, -16
	movq	%rsp, %rbp
	.cfi_def_cfa_register %rbp
	subq	$32, %rsp
	movq	%rdi, -16(%rbp)
	movq	%rsi, -8(%rbp)
Ltmp677:
	.loc	30 184 1 prologue_end
	callq	*(%rsi)
	addq	$32, %rsp
	popq	%rbp
	retq
Ltmp678:
Lfunc_end199:
	.cfi_endproc

	.globl	__ZN4core3ptr13drop_in_place17hd4827752138a01e7E
	.p2align	4, 0x90
__ZN4core3ptr13drop_in_place17hd4827752138a01e7E:
Lfunc_begin200:
	.loc	30 184 0
	.cfi_startproc
	pushq	%rbp
	.cfi_def_cfa_offset 16
	.cfi_offset %rbp, -16
	movq	%rsp, %rbp
	.cfi_def_cfa_register %rbp
	subq	$16, %rsp
	movq	%rdi, -8(%rbp)
Ltmp679:
	.loc	30 184 1 prologue_end
	callq	__ZN4core3ptr13drop_in_place17h03c0522dcfa1795dE
	addq	$16, %rsp
	popq	%rbp
	retq
Ltmp680:
Lfunc_end200:
	.cfi_endproc

	.globl	__ZN4core3ptr13drop_in_place17hd576eced49275d50E
	.p2align	4, 0x90
__ZN4core3ptr13drop_in_place17hd576eced49275d50E:
Lfunc_begin201:
	.loc	30 184 0
	.cfi_startproc
	pushq	%rbp
	.cfi_def_cfa_offset 16
	.cfi_offset %rbp, -16
	movq	%rsp, %rbp
	.cfi_def_cfa_register %rbp
	subq	$48, %rsp
	movq	%rdi, -24(%rbp)
	movq	%rdi, -40(%rbp)
Ltmp681:
	.loc	30 184 1 prologue_end
	jmp	LBB201_2
LBB201_1:
	addq	$48, %rsp
	popq	%rbp
	retq
LBB201_2:
	.loc	30 0 1 is_stmt 0
	movq	-40(%rbp), %rax
	.loc	30 184 1
	movq	(%rax), %rdi
	movq	8(%rax), %rsi
	callq	__ZN5alloc5alloc8box_free17hfe83fd8507fb39cfE
	jmp	LBB201_1
Ltmp682:
Lfunc_end201:
	.cfi_endproc

	.globl	__ZN4core3ptr13drop_in_place17hd7c92293c086a756E
	.p2align	4, 0x90
__ZN4core3ptr13drop_in_place17hd7c92293c086a756E:
Lfunc_begin202:
	.loc	30 184 0 is_stmt 1
	.cfi_startproc
	pushq	%rbp
	.cfi_def_cfa_offset 16
	.cfi_offset %rbp, -16
	movq	%rsp, %rbp
	.cfi_def_cfa_register %rbp
	subq	$32, %rsp
	movq	%rdi, -8(%rbp)
Ltmp683:
	.loc	30 184 1 prologue_end
	movb	(%rdi), %al
	andb	$1, %al
	movzbl	%al, %ecx
	movl	%ecx, %edx
	cmpq	$0, %rdx
	movq	%rdi, -24(%rbp)
	jne	LBB202_2
LBB202_1:
	addq	$32, %rsp
	popq	%rbp
	retq
LBB202_2:
	.loc	30 0 1 is_stmt 0
	movq	-24(%rbp), %rax
	.loc	30 184 1
	addq	$8, %rax
	movq	%rax, %rdi
	callq	__ZN4core3ptr13drop_in_place17hbfde0a576c45069dE
	jmp	LBB202_1
Ltmp684:
Lfunc_end202:
	.cfi_endproc

	.globl	__ZN4core3ptr13drop_in_place17hd7fea566956198a3E
	.p2align	4, 0x90
__ZN4core3ptr13drop_in_place17hd7fea566956198a3E:
Lfunc_begin203:
	.loc	30 184 0 is_stmt 1
	.cfi_startproc
	.cfi_personality 155, _rust_eh_personality
	.cfi_lsda 16, Lexception32
	pushq	%rbp
	.cfi_def_cfa_offset 16
	.cfi_offset %rbp, -16
	movq	%rsp, %rbp
	.cfi_def_cfa_register %rbp
	subq	$48, %rsp
	movq	%rdi, -24(%rbp)
Ltmp685:
	movq	%rdi, -40(%rbp)
Ltmp688:
	.loc	30 184 1 prologue_end
	callq	__ZN66_$LT$std..ffi..c_str..CString$u20$as$u20$core..ops..drop..Drop$GT$4drop17hd2e17332c7f5aa61E
Ltmp686:
	jmp	LBB203_4
LBB203_1:
	movq	-16(%rbp), %rdi
	callq	__Unwind_Resume
	ud2
LBB203_2:
	addq	$48, %rsp
	popq	%rbp
	retq
LBB203_3:
	.loc	30 0 1 is_stmt 0
	movq	-40(%rbp), %rax
	.loc	30 184 1
	movq	%rax, %rdi
	callq	__ZN4core3ptr13drop_in_place17hd576eced49275d50E
	jmp	LBB203_1
LBB203_4:
	.loc	30 0 1
	movq	-40(%rbp), %rax
	.loc	30 184 1
	movq	%rax, %rdi
	callq	__ZN4core3ptr13drop_in_place17hd576eced49275d50E
	jmp	LBB203_2
Ltmp689:
LBB203_5:
Ltmp687:
	.loc	30 0 1
	movq	%rax, -16(%rbp)
	movl	%edx, -8(%rbp)
	jmp	LBB203_3
Lfunc_end203:
	.cfi_endproc
	.section	__TEXT,__gcc_except_tab
	.p2align	2
GCC_except_table203:
Lexception32:
	.byte	255
	.byte	255
	.byte	1
	.uleb128 Lcst_end32-Lcst_begin32
Lcst_begin32:
	.uleb128 Ltmp685-Lfunc_begin203
	.uleb128 Ltmp686-Ltmp685
	.uleb128 Ltmp687-Lfunc_begin203
	.byte	0
	.uleb128 Ltmp686-Lfunc_begin203
	.uleb128 Lfunc_end203-Ltmp686
	.byte	0
	.byte	0
Lcst_end32:
	.p2align	2

	.section	__TEXT,__text,regular,pure_instructions
	.globl	__ZN4core3ptr13drop_in_place17hda7961c2c22c8aa2E
	.p2align	4, 0x90
__ZN4core3ptr13drop_in_place17hda7961c2c22c8aa2E:
Lfunc_begin204:
	.loc	30 184 0 is_stmt 1
	.cfi_startproc
	pushq	%rbp
	.cfi_def_cfa_offset 16
	.cfi_offset %rbp, -16
	movq	%rsp, %rbp
	.cfi_def_cfa_register %rbp
	subq	$32, %rsp
	movq	%rdi, -8(%rbp)
Ltmp690:
	.loc	30 184 1 prologue_end
	movl	(%rdi), %eax
	movl	%eax, %ecx
	cmpq	$0, %rcx
	movq	%rdi, -24(%rbp)
	jne	LBB204_2
LBB204_1:
	addq	$32, %rsp
	popq	%rbp
	retq
LBB204_2:
	.loc	30 0 1 is_stmt 0
	movq	-24(%rbp), %rax
	.loc	30 184 1
	addq	$4, %rax
	movq	%rax, %rdi
	callq	__ZN4core3ptr13drop_in_place17hbe1d3802e1c5cdd5E
	jmp	LBB204_1
Ltmp691:
Lfunc_end204:
	.cfi_endproc

	.globl	__ZN4core3ptr13drop_in_place17hdb03aadc7bfc8c5cE
	.p2align	4, 0x90
__ZN4core3ptr13drop_in_place17hdb03aadc7bfc8c5cE:
Lfunc_begin205:
	.loc	30 184 0 is_stmt 1
	.cfi_startproc
	pushq	%rbp
	.cfi_def_cfa_offset 16
	.cfi_offset %rbp, -16
	movq	%rsp, %rbp
	.cfi_def_cfa_register %rbp
	subq	$16, %rsp
	movq	%rdi, -8(%rbp)
Ltmp692:
	.loc	30 184 1 prologue_end
	callq	__ZN4core3ptr13drop_in_place17h1511592fd4970678E
	addq	$16, %rsp
	popq	%rbp
	retq
Ltmp693:
Lfunc_end205:
	.cfi_endproc

	.globl	__ZN4core3ptr13drop_in_place17hddbdced0ed2b17c7E
	.p2align	4, 0x90
__ZN4core3ptr13drop_in_place17hddbdced0ed2b17c7E:
Lfunc_begin206:
	.loc	30 184 0
	.cfi_startproc
	pushq	%rbp
	.cfi_def_cfa_offset 16
	.cfi_offset %rbp, -16
	movq	%rsp, %rbp
	.cfi_def_cfa_register %rbp
	subq	$32, %rsp
	movq	%rdi, -8(%rbp)
Ltmp694:
	.loc	30 184 1 prologue_end
	movb	(%rdi), %al
	subb	$1, %al
	movq	%rdi, -24(%rbp)
	ja	LBB206_2
	jmp	LBB206_1
LBB206_1:
	addq	$32, %rsp
	popq	%rbp
	retq
LBB206_2:
	.loc	30 0 1 is_stmt 0
	movq	-24(%rbp), %rax
	.loc	30 184 1
	addq	$8, %rax
	movq	%rax, %rdi
	callq	__ZN4core3ptr13drop_in_place17hefcc39d0076e678aE
	jmp	LBB206_1
Ltmp695:
Lfunc_end206:
	.cfi_endproc

	.p2align	4, 0x90
__ZN4core3ptr13drop_in_place17hdf535b2728e1fcdfE:
Lfunc_begin207:
	.loc	30 184 0 is_stmt 1
	.cfi_startproc
	pushq	%rbp
	.cfi_def_cfa_offset 16
	.cfi_offset %rbp, -16
	movq	%rsp, %rbp
	.cfi_def_cfa_register %rbp
	subq	$16, %rsp
	movq	%rdi, -8(%rbp)
Ltmp696:
	.loc	30 184 1 prologue_end
	addq	$16, %rsp
	popq	%rbp
	retq
Ltmp697:
Lfunc_end207:
	.cfi_endproc

	.globl	__ZN4core3ptr13drop_in_place17he3ce4f480cb6ebbfE
	.p2align	4, 0x90
__ZN4core3ptr13drop_in_place17he3ce4f480cb6ebbfE:
Lfunc_begin208:
	.loc	30 184 0
	.cfi_startproc
	pushq	%rbp
	.cfi_def_cfa_offset 16
	.cfi_offset %rbp, -16
	movq	%rsp, %rbp
	.cfi_def_cfa_register %rbp
	subq	$32, %rsp
	xorl	%eax, %eax
	movl	%eax, %ecx
	movq	%rdi, -8(%rbp)
Ltmp698:
	.loc	30 184 1 prologue_end
	cmpq	$0, (%rdi)
	movl	$1, %edx
	cmovbeq	%rcx, %rdx
	cmpq	$0, %rdx
	movq	%rdi, -24(%rbp)
	jne	LBB208_2
LBB208_1:
	addq	$32, %rsp
	popq	%rbp
	retq
LBB208_2:
	.loc	30 0 1 is_stmt 0
	movq	-24(%rbp), %rax
	.loc	30 184 1
	movq	%rax, %rdi
	callq	__ZN4core3ptr13drop_in_place17h0aa7fb5dc65d714eE
	jmp	LBB208_1
Ltmp699:
Lfunc_end208:
	.cfi_endproc

	.globl	__ZN4core3ptr13drop_in_place17he6c80e1ae4fac5e4E
	.p2align	4, 0x90
__ZN4core3ptr13drop_in_place17he6c80e1ae4fac5e4E:
Lfunc_begin209:
	.loc	30 184 0 is_stmt 1
	.cfi_startproc
	pushq	%rbp
	.cfi_def_cfa_offset 16
	.cfi_offset %rbp, -16
	movq	%rsp, %rbp
	.cfi_def_cfa_register %rbp
	subq	$16, %rsp
	movq	%rdi, -8(%rbp)
Ltmp700:
	.loc	30 184 1 prologue_end
	callq	__ZN4core3ptr13drop_in_place17h7d8c0668e8e8bfb9E
	addq	$16, %rsp
	popq	%rbp
	retq
Ltmp701:
Lfunc_end209:
	.cfi_endproc

	.p2align	4, 0x90
__ZN4core3ptr13drop_in_place17heceb3e6ba4c5a087E:
Lfunc_begin210:
	.loc	30 184 0
	.cfi_startproc
	pushq	%rbp
	.cfi_def_cfa_offset 16
	.cfi_offset %rbp, -16
	movq	%rsp, %rbp
	.cfi_def_cfa_register %rbp
	subq	$16, %rsp
	movq	%rdi, -8(%rbp)
Ltmp702:
	.loc	30 184 1 prologue_end
	addq	$16, %rsp
	popq	%rbp
	retq
Ltmp703:
Lfunc_end210:
	.cfi_endproc

	.globl	__ZN4core3ptr13drop_in_place17hefcc39d0076e678aE
	.p2align	4, 0x90
__ZN4core3ptr13drop_in_place17hefcc39d0076e678aE:
Lfunc_begin211:
	.loc	30 184 0
	.cfi_startproc
	.cfi_personality 155, _rust_eh_personality
	.cfi_lsda 16, Lexception33
	pushq	%rbp
	.cfi_def_cfa_offset 16
	.cfi_offset %rbp, -16
	movq	%rsp, %rbp
	.cfi_def_cfa_register %rbp
	subq	$48, %rsp
	movq	%rdi, -24(%rbp)
Ltmp707:
	.loc	30 184 1 prologue_end
	movq	(%rdi), %rax
Ltmp704:
	movq	%rdi, -40(%rbp)
	movq	%rax, %rdi
	callq	__ZN4core3ptr13drop_in_place17he6c80e1ae4fac5e4E
Ltmp705:
	jmp	LBB211_3
LBB211_1:
	addq	$48, %rsp
	popq	%rbp
	retq
LBB211_2:
	movq	-16(%rbp), %rdi
	callq	__Unwind_Resume
	ud2
LBB211_3:
	.loc	30 0 1 is_stmt 0
	movq	-40(%rbp), %rax
	.loc	30 184 1
	movq	(%rax), %rdi
	callq	__ZN5alloc5alloc8box_free17ha4061fb6bdf33b65E
	jmp	LBB211_1
LBB211_4:
	.loc	30 0 1
	movq	-40(%rbp), %rax
	.loc	30 184 1
	movq	(%rax), %rdi
	callq	__ZN5alloc5alloc8box_free17ha4061fb6bdf33b65E
	jmp	LBB211_2
Ltmp708:
LBB211_5:
Ltmp706:
	.loc	30 0 1
	movq	%rax, -16(%rbp)
	movl	%edx, -8(%rbp)
	jmp	LBB211_4
Lfunc_end211:
	.cfi_endproc
	.section	__TEXT,__gcc_except_tab
	.p2align	2
GCC_except_table211:
Lexception33:
	.byte	255
	.byte	255
	.byte	1
	.uleb128 Lcst_end33-Lcst_begin33
Lcst_begin33:
	.uleb128 Ltmp704-Lfunc_begin211
	.uleb128 Ltmp705-Ltmp704
	.uleb128 Ltmp706-Lfunc_begin211
	.byte	0
	.uleb128 Ltmp705-Lfunc_begin211
	.uleb128 Lfunc_end211-Ltmp705
	.byte	0
	.byte	0
Lcst_end33:
	.p2align	2

	.section	__TEXT,__text,regular,pure_instructions
	.globl	__ZN4core3ptr13drop_in_place17hf3815935e47ed64fE
	.p2align	4, 0x90
__ZN4core3ptr13drop_in_place17hf3815935e47ed64fE:
Lfunc_begin212:
	.loc	30 184 0 is_stmt 1
	.cfi_startproc
	pushq	%rbp
	.cfi_def_cfa_offset 16
	.cfi_offset %rbp, -16
	movq	%rsp, %rbp
	.cfi_def_cfa_register %rbp
	subq	$32, %rsp
	movq	%rdi, -8(%rbp)
Ltmp709:
	.loc	30 184 1 prologue_end
	movl	(%rdi), %eax
	subl	$2, %eax
	movq	%rdi, -24(%rbp)
	ja	LBB212_2
	jmp	LBB212_1
LBB212_1:
	addq	$32, %rsp
	popq	%rbp
	retq
LBB212_2:
	.loc	30 0 1 is_stmt 0
	movq	-24(%rbp), %rax
	.loc	30 184 1
	addq	$4, %rax
	movq	%rax, %rdi
	callq	__ZN4core3ptr13drop_in_place17h07e23d22817f9a91E
	jmp	LBB212_1
Ltmp710:
Lfunc_end212:
	.cfi_endproc

	.p2align	4, 0x90
__ZN4core3ptr13drop_in_place17hf7f690dd09a41259E:
Lfunc_begin213:
	.loc	30 184 0 is_stmt 1
	.cfi_startproc
	pushq	%rbp
	.cfi_def_cfa_offset 16
	.cfi_offset %rbp, -16
	movq	%rsp, %rbp
	.cfi_def_cfa_register %rbp
	subq	$16, %rsp
	movq	%rdi, -8(%rbp)
Ltmp711:
	.loc	30 184 1 prologue_end
	addq	$16, %rsp
	popq	%rbp
	retq
Ltmp712:
Lfunc_end213:
	.cfi_endproc

	.globl	__ZN4core3ptr19swap_nonoverlapping17h218bf01de59e8cb3E
	.p2align	4, 0x90
__ZN4core3ptr19swap_nonoverlapping17h218bf01de59e8cb3E:
Lfunc_begin214:
	.loc	30 430 0
	.cfi_startproc
	pushq	%rbp
	.cfi_def_cfa_offset 16
	.cfi_offset %rbp, -16
	movq	%rsp, %rbp
	.cfi_def_cfa_register %rbp
	subq	$96, %rsp
	movq	%rdi, -56(%rbp)
	movq	%rsi, -48(%rbp)
	movq	%rdx, -40(%rbp)
Ltmp713:
	.loc	30 440 13 prologue_end
	movq	%rdi, -32(%rbp)
Ltmp714:
	.loc	30 441 13
	movq	%rsi, -24(%rbp)
Ltmp715:
	.loc	27 310 5
	movq	$16, -8(%rbp)
	movq	-8(%rbp), %rax
	movq	%rdx, -64(%rbp)
	movq	%rdi, -72(%rbp)
	movq	%rsi, -80(%rbp)
	movq	%rax, -88(%rbp)
Ltmp716:
	.loc	27 0 5 is_stmt 0
	movq	-88(%rbp), %rax
	movq	-64(%rbp), %rcx
	.loc	30 442 15 is_stmt 1
	imulq	%rcx, %rax
	movq	%rax, -16(%rbp)
	movq	-72(%rbp), %rdi
	movq	-80(%rbp), %rsi
Ltmp717:
	.loc	30 445 14
	movq	%rax, %rdx
	callq	__ZN4core3ptr25swap_nonoverlapping_bytes17h3682bbae961b79ceE
Ltmp718:
	.loc	30 446 2
	addq	$96, %rsp
	popq	%rbp
	retq
Ltmp719:
Lfunc_end214:
	.cfi_endproc

	.globl	__ZN4core3ptr19swap_nonoverlapping17h9e7b97cc439a14b8E
	.p2align	4, 0x90
__ZN4core3ptr19swap_nonoverlapping17h9e7b97cc439a14b8E:
Lfunc_begin215:
	.loc	30 430 0
	.cfi_startproc
	pushq	%rbp
	.cfi_def_cfa_offset 16
	.cfi_offset %rbp, -16
	movq	%rsp, %rbp
	.cfi_def_cfa_register %rbp
	subq	$96, %rsp
	movq	%rdi, -56(%rbp)
	movq	%rsi, -48(%rbp)
	movq	%rdx, -40(%rbp)
Ltmp720:
	.loc	30 440 13 prologue_end
	movq	%rdi, -32(%rbp)
Ltmp721:
	.loc	30 441 13
	movq	%rsi, -24(%rbp)
Ltmp722:
	.loc	27 310 5
	movq	$8, -8(%rbp)
	movq	-8(%rbp), %rax
	movq	%rdx, -64(%rbp)
	movq	%rdi, -72(%rbp)
	movq	%rsi, -80(%rbp)
	movq	%rax, -88(%rbp)
Ltmp723:
	.loc	27 0 5 is_stmt 0
	movq	-88(%rbp), %rax
	movq	-64(%rbp), %rcx
	.loc	30 442 15 is_stmt 1
	imulq	%rcx, %rax
	movq	%rax, -16(%rbp)
	movq	-72(%rbp), %rdi
	movq	-80(%rbp), %rsi
Ltmp724:
	.loc	30 445 14
	movq	%rax, %rdx
	callq	__ZN4core3ptr25swap_nonoverlapping_bytes17h3682bbae961b79ceE
Ltmp725:
	.loc	30 446 2
	addq	$96, %rsp
	popq	%rbp
	retq
Ltmp726:
Lfunc_end215:
	.cfi_endproc

	.globl	__ZN4core3ptr20slice_from_raw_parts17h1071500014fffaaaE
	.p2align	4, 0x90
__ZN4core3ptr20slice_from_raw_parts17h1071500014fffaaaE:
Lfunc_begin216:
	.loc	30 264 0
	.cfi_startproc
	pushq	%rbp
	.cfi_def_cfa_offset 16
	.cfi_offset %rbp, -16
	movq	%rsp, %rbp
	.cfi_def_cfa_register %rbp
	subq	$48, %rsp
	movq	%rdi, -16(%rbp)
	movq	%rsi, -8(%rbp)
Ltmp727:
	.loc	30 268 26 prologue_end
	movq	%rdi, -32(%rbp)
	movq	%rsi, -24(%rbp)
	.loc	30 268 14 is_stmt 0
	movq	-32(%rbp), %rax
	movq	-24(%rbp), %rcx
	movq	%rax, -48(%rbp)
	movq	%rcx, -40(%rbp)
	movq	-48(%rbp), %rax
	movq	-40(%rbp), %rdx
	.loc	30 269 2 is_stmt 1
	addq	$48, %rsp
	popq	%rbp
	retq
Ltmp728:
Lfunc_end216:
	.cfi_endproc

	.globl	__ZN4core3ptr20slice_from_raw_parts17h607a166745c110ceE
	.p2align	4, 0x90
__ZN4core3ptr20slice_from_raw_parts17h607a166745c110ceE:
Lfunc_begin217:
	.loc	30 264 0
	.cfi_startproc
	pushq	%rbp
	.cfi_def_cfa_offset 16
	.cfi_offset %rbp, -16
	movq	%rsp, %rbp
	.cfi_def_cfa_register %rbp
	subq	$48, %rsp
	movq	%rdi, -16(%rbp)
	movq	%rsi, -8(%rbp)
Ltmp729:
	.loc	30 268 26 prologue_end
	movq	%rdi, -32(%rbp)
	movq	%rsi, -24(%rbp)
	.loc	30 268 14 is_stmt 0
	movq	-32(%rbp), %rax
	movq	-24(%rbp), %rcx
	movq	%rax, -48(%rbp)
	movq	%rcx, -40(%rbp)
	movq	-48(%rbp), %rax
	movq	-40(%rbp), %rdx
	.loc	30 269 2 is_stmt 1
	addq	$48, %rsp
	popq	%rbp
	retq
Ltmp730:
Lfunc_end217:
	.cfi_endproc

	.globl	__ZN4core3ptr20slice_from_raw_parts17hc6d51409b966af69E
	.p2align	4, 0x90
__ZN4core3ptr20slice_from_raw_parts17hc6d51409b966af69E:
Lfunc_begin218:
	.loc	30 264 0
	.cfi_startproc
	pushq	%rbp
	.cfi_def_cfa_offset 16
	.cfi_offset %rbp, -16
	movq	%rsp, %rbp
	.cfi_def_cfa_register %rbp
	subq	$48, %rsp
	movq	%rdi, -16(%rbp)
	movq	%rsi, -8(%rbp)
Ltmp731:
	.loc	30 268 26 prologue_end
	movq	%rdi, -32(%rbp)
	movq	%rsi, -24(%rbp)
	.loc	30 268 14 is_stmt 0
	movq	-32(%rbp), %rax
	movq	-24(%rbp), %rcx
	movq	%rax, -48(%rbp)
	movq	%rcx, -40(%rbp)
	movq	-48(%rbp), %rax
	movq	-40(%rbp), %rdx
	.loc	30 269 2 is_stmt 1
	addq	$48, %rsp
	popq	%rbp
	retq
Ltmp732:
Lfunc_end218:
	.cfi_endproc

	.globl	__ZN4core3ptr20slice_from_raw_parts17hfa931e56abd4789eE
	.p2align	4, 0x90
__ZN4core3ptr20slice_from_raw_parts17hfa931e56abd4789eE:
Lfunc_begin219:
	.loc	30 264 0
	.cfi_startproc
	pushq	%rbp
	.cfi_def_cfa_offset 16
	.cfi_offset %rbp, -16
	movq	%rsp, %rbp
	.cfi_def_cfa_register %rbp
	subq	$48, %rsp
	movq	%rdi, -16(%rbp)
	movq	%rsi, -8(%rbp)
Ltmp733:
	.loc	30 268 26 prologue_end
	movq	%rdi, -32(%rbp)
	movq	%rsi, -24(%rbp)
	.loc	30 268 14 is_stmt 0
	movq	-32(%rbp), %rax
	movq	-24(%rbp), %rcx
	movq	%rax, -48(%rbp)
	movq	%rcx, -40(%rbp)
	movq	-48(%rbp), %rax
	movq	-40(%rbp), %rdx
	.loc	30 269 2 is_stmt 1
	addq	$48, %rsp
	popq	%rbp
	retq
Ltmp734:
Lfunc_end219:
	.cfi_endproc

	.globl	__ZN4core3ptr23swap_nonoverlapping_one17he11d658e684ca37dE
	.p2align	4, 0x90
__ZN4core3ptr23swap_nonoverlapping_one17he11d658e684ca37dE:
Lfunc_begin220:
	.loc	30 449 0
	.cfi_startproc
	.cfi_personality 155, _rust_eh_personality
	.cfi_lsda 16, Lexception34
	pushq	%rbp
	.cfi_def_cfa_offset 16
	.cfi_offset %rbp, -16
	movq	%rsp, %rbp
	.cfi_def_cfa_register %rbp
	subq	$112, %rsp
	movq	%rdi, -56(%rbp)
	movq	%rsi, -48(%rbp)
Ltmp740:
	.loc	30 452 8 prologue_end
	movb	$0, -57(%rbp)
Ltmp741:
	.loc	27 310 5
	movq	$16, -8(%rbp)
	movq	-8(%rbp), %rax
	movq	%rdi, -72(%rbp)
	movq	%rsi, -80(%rbp)
	movq	%rax, -88(%rbp)
Ltmp742:
	.loc	30 452 8
	jmp	LBB220_2
LBB220_1:
	.loc	30 449 1
	movq	-24(%rbp), %rdi
	callq	__Unwind_Resume
	ud2
LBB220_2:
	.loc	30 0 1 is_stmt 0
	movq	-88(%rbp), %rax
	.loc	30 452 8 is_stmt 1
	cmpq	$32, %rax
	.loc	30 452 5 is_stmt 0
	jb	LBB220_4
	.loc	30 0 5
	movq	-72(%rbp), %rdi
	movq	-80(%rbp), %rsi
	.loc	30 462 18 is_stmt 1
	movl	$1, %edx
	callq	__ZN4core3ptr19swap_nonoverlapping17h218bf01de59e8cb3E
	jmp	LBB220_8
LBB220_4:
	.loc	30 456 21
	movb	$1, -57(%rbp)
	movq	-72(%rbp), %rdi
	callq	__ZN4core3ptr4read17h30d62b893e12c442E
	movq	%rax, -40(%rbp)
	movq	%rdx, -32(%rbp)
	movq	%rax, -96(%rbp)
	movq	%rdx, -104(%rbp)
Ltmp735:
	.loc	30 0 21 is_stmt 0
	movl	$1, %edx
	movq	-80(%rbp), %rdi
	movq	-72(%rbp), %rsi
Ltmp743:
	.loc	30 457 13 is_stmt 1
	callq	__ZN4core10intrinsics19copy_nonoverlapping17hd3e550797f9c5becE
Ltmp736:
	jmp	LBB220_6
LBB220_6:
	.loc	30 458 22
	movb	$0, -57(%rbp)
Ltmp737:
	movq	-80(%rbp), %rdi
	movq	-96(%rbp), %rsi
	movq	-104(%rbp), %rdx
	.loc	30 458 13 is_stmt 0
	callq	__ZN4core3ptr5write17h800f0f07d8ef80a0E
Ltmp738:
	jmp	LBB220_7
Ltmp744:
LBB220_7:
	.loc	30 459 9 is_stmt 1
	movb	$0, -57(%rbp)
	.loc	30 452 5
	jmp	LBB220_9
LBB220_8:
	jmp	LBB220_9
LBB220_9:
	.loc	30 464 2
	addq	$112, %rsp
	popq	%rbp
	retq
LBB220_10:
	.loc	30 459 9
	movb	$0, -57(%rbp)
	jmp	LBB220_1
LBB220_11:
	testb	$1, -57(%rbp)
	jne	LBB220_10
	jmp	LBB220_1
Ltmp745:
LBB220_12:
Ltmp739:
	.loc	30 0 9 is_stmt 0
	movq	%rax, -24(%rbp)
	movl	%edx, -16(%rbp)
	jmp	LBB220_11
Lfunc_end220:
	.cfi_endproc
	.section	__TEXT,__gcc_except_tab
	.p2align	2
GCC_except_table220:
Lexception34:
	.byte	255
	.byte	255
	.byte	1
	.uleb128 Lcst_end34-Lcst_begin34
Lcst_begin34:
	.uleb128 Lfunc_begin220-Lfunc_begin220
	.uleb128 Ltmp735-Lfunc_begin220
	.byte	0
	.byte	0
	.uleb128 Ltmp735-Lfunc_begin220
	.uleb128 Ltmp738-Ltmp735
	.uleb128 Ltmp739-Lfunc_begin220
	.byte	0
Lcst_end34:
	.p2align	2

	.section	__TEXT,__text,regular,pure_instructions
	.globl	__ZN4core3ptr23swap_nonoverlapping_one17he25cd5d3cd7e8e2cE
	.p2align	4, 0x90
__ZN4core3ptr23swap_nonoverlapping_one17he25cd5d3cd7e8e2cE:
Lfunc_begin221:
	.loc	30 449 0 is_stmt 1
	.cfi_startproc
	.cfi_personality 155, _rust_eh_personality
	.cfi_lsda 16, Lexception35
	pushq	%rbp
	.cfi_def_cfa_offset 16
	.cfi_offset %rbp, -16
	movq	%rsp, %rbp
	.cfi_def_cfa_register %rbp
	subq	$96, %rsp
	movq	%rdi, -40(%rbp)
	movq	%rsi, -32(%rbp)
Ltmp751:
	.loc	30 452 8 prologue_end
	movb	$0, -41(%rbp)
Ltmp752:
	.loc	27 310 5
	movq	$8, -8(%rbp)
	movq	-8(%rbp), %rax
	movq	%rdi, -72(%rbp)
	movq	%rsi, -80(%rbp)
	movq	%rax, -88(%rbp)
Ltmp753:
	.loc	30 452 8
	jmp	LBB221_2
LBB221_1:
	.loc	30 449 1
	movq	-24(%rbp), %rdi
	callq	__Unwind_Resume
	ud2
LBB221_2:
	.loc	30 0 1 is_stmt 0
	movq	-88(%rbp), %rax
	.loc	30 452 8 is_stmt 1
	cmpq	$32, %rax
	.loc	30 452 5 is_stmt 0
	jb	LBB221_4
	.loc	30 0 5
	movq	-72(%rbp), %rdi
	movq	-80(%rbp), %rsi
	.loc	30 462 18 is_stmt 1
	movl	$1, %edx
	callq	__ZN4core3ptr19swap_nonoverlapping17h9e7b97cc439a14b8E
	jmp	LBB221_8
LBB221_4:
	.loc	30 456 21
	movb	$1, -41(%rbp)
	movq	-72(%rbp), %rdi
	callq	__ZN4core3ptr4read17hb72a9cb6e2c2d87bE
	movl	%edx, -52(%rbp)
	movl	%eax, -56(%rbp)
Ltmp746:
	.loc	30 0 21 is_stmt 0
	movl	$1, %edx
	movq	-80(%rbp), %rdi
	movq	-72(%rbp), %rsi
Ltmp754:
	.loc	30 457 13 is_stmt 1
	callq	__ZN4core10intrinsics19copy_nonoverlapping17h21590c911498b2d0E
Ltmp747:
	jmp	LBB221_6
LBB221_6:
	.loc	30 458 22
	movb	$0, -41(%rbp)
	movl	-56(%rbp), %esi
	movl	-52(%rbp), %edx
Ltmp748:
	movq	-80(%rbp), %rdi
	.loc	30 458 13 is_stmt 0
	callq	__ZN4core3ptr5write17hb7b3f18f88e2991aE
Ltmp749:
	jmp	LBB221_7
Ltmp755:
LBB221_7:
	.loc	30 459 9 is_stmt 1
	movb	$0, -41(%rbp)
	.loc	30 452 5
	jmp	LBB221_9
LBB221_8:
	jmp	LBB221_9
LBB221_9:
	.loc	30 464 2
	addq	$96, %rsp
	popq	%rbp
	retq
LBB221_10:
	.loc	30 459 9
	movb	$0, -41(%rbp)
	leaq	-56(%rbp), %rdi
	callq	__ZN4core3ptr13drop_in_place17hda7961c2c22c8aa2E
	jmp	LBB221_1
LBB221_11:
	testb	$1, -41(%rbp)
	jne	LBB221_10
	jmp	LBB221_1
Ltmp756:
LBB221_12:
Ltmp750:
	.loc	30 0 9 is_stmt 0
	movq	%rax, -24(%rbp)
	movl	%edx, -16(%rbp)
	jmp	LBB221_11
Lfunc_end221:
	.cfi_endproc
	.section	__TEXT,__gcc_except_tab
	.p2align	2
GCC_except_table221:
Lexception35:
	.byte	255
	.byte	255
	.byte	1
	.uleb128 Lcst_end35-Lcst_begin35
Lcst_begin35:
	.uleb128 Lfunc_begin221-Lfunc_begin221
	.uleb128 Ltmp746-Lfunc_begin221
	.byte	0
	.byte	0
	.uleb128 Ltmp746-Lfunc_begin221
	.uleb128 Ltmp749-Ltmp746
	.uleb128 Ltmp750-Lfunc_begin221
	.byte	0
	.uleb128 Ltmp749-Lfunc_begin221
	.uleb128 Lfunc_end221-Ltmp749
	.byte	0
	.byte	0
Lcst_end35:
	.p2align	2

	.section	__TEXT,__text,regular,pure_instructions
	.globl	__ZN4core3ptr24slice_from_raw_parts_mut17h2a6abb96775e78a5E
	.p2align	4, 0x90
__ZN4core3ptr24slice_from_raw_parts_mut17h2a6abb96775e78a5E:
Lfunc_begin222:
	.loc	30 300 0 is_stmt 1
	.cfi_startproc
	pushq	%rbp
	.cfi_def_cfa_offset 16
	.cfi_offset %rbp, -16
	movq	%rsp, %rbp
	.cfi_def_cfa_register %rbp
	subq	$48, %rsp
	movq	%rdi, -16(%rbp)
	movq	%rsi, -8(%rbp)
Ltmp757:
	.loc	30 303 26 prologue_end
	movq	%rdi, -32(%rbp)
	movq	%rsi, -24(%rbp)
	.loc	30 303 14 is_stmt 0
	movq	-32(%rbp), %rax
	movq	-24(%rbp), %rcx
	movq	%rax, -48(%rbp)
	movq	%rcx, -40(%rbp)
	movq	-48(%rbp), %rax
	movq	-40(%rbp), %rdx
	.loc	30 304 2 is_stmt 1
	addq	$48, %rsp
	popq	%rbp
	retq
Ltmp758:
Lfunc_end222:
	.cfi_endproc

	.globl	__ZN4core3ptr24slice_from_raw_parts_mut17h39269bdced4f46bcE
	.p2align	4, 0x90
__ZN4core3ptr24slice_from_raw_parts_mut17h39269bdced4f46bcE:
Lfunc_begin223:
	.loc	30 300 0
	.cfi_startproc
	pushq	%rbp
	.cfi_def_cfa_offset 16
	.cfi_offset %rbp, -16
	movq	%rsp, %rbp
	.cfi_def_cfa_register %rbp
	subq	$48, %rsp
	movq	%rdi, -16(%rbp)
	movq	%rsi, -8(%rbp)
Ltmp759:
	.loc	30 303 26 prologue_end
	movq	%rdi, -32(%rbp)
	movq	%rsi, -24(%rbp)
	.loc	30 303 14 is_stmt 0
	movq	-32(%rbp), %rax
	movq	-24(%rbp), %rcx
	movq	%rax, -48(%rbp)
	movq	%rcx, -40(%rbp)
	movq	-48(%rbp), %rax
	movq	-40(%rbp), %rdx
	.loc	30 304 2 is_stmt 1
	addq	$48, %rsp
	popq	%rbp
	retq
Ltmp760:
Lfunc_end223:
	.cfi_endproc

	.globl	__ZN4core3ptr24slice_from_raw_parts_mut17h77b9e623e521ef62E
	.p2align	4, 0x90
__ZN4core3ptr24slice_from_raw_parts_mut17h77b9e623e521ef62E:
Lfunc_begin224:
	.loc	30 300 0
	.cfi_startproc
	pushq	%rbp
	.cfi_def_cfa_offset 16
	.cfi_offset %rbp, -16
	movq	%rsp, %rbp
	.cfi_def_cfa_register %rbp
	subq	$48, %rsp
	movq	%rdi, -16(%rbp)
	movq	%rsi, -8(%rbp)
Ltmp761:
	.loc	30 303 26 prologue_end
	movq	%rdi, -32(%rbp)
	movq	%rsi, -24(%rbp)
	.loc	30 303 14 is_stmt 0
	movq	-32(%rbp), %rax
	movq	-24(%rbp), %rcx
	movq	%rax, -48(%rbp)
	movq	%rcx, -40(%rbp)
	movq	-48(%rbp), %rax
	movq	-40(%rbp), %rdx
	.loc	30 304 2 is_stmt 1
	addq	$48, %rsp
	popq	%rbp
	retq
Ltmp762:
Lfunc_end224:
	.cfi_endproc

	.globl	__ZN4core3ptr24slice_from_raw_parts_mut17ha7f05233afa25a55E
	.p2align	4, 0x90
__ZN4core3ptr24slice_from_raw_parts_mut17ha7f05233afa25a55E:
Lfunc_begin225:
	.loc	30 300 0
	.cfi_startproc
	pushq	%rbp
	.cfi_def_cfa_offset 16
	.cfi_offset %rbp, -16
	movq	%rsp, %rbp
	.cfi_def_cfa_register %rbp
	subq	$48, %rsp
	movq	%rdi, -16(%rbp)
	movq	%rsi, -8(%rbp)
Ltmp763:
	.loc	30 303 26 prologue_end
	movq	%rdi, -32(%rbp)
	movq	%rsi, -24(%rbp)
	.loc	30 303 14 is_stmt 0
	movq	-32(%rbp), %rax
	movq	-24(%rbp), %rcx
	movq	%rax, -48(%rbp)
	movq	%rcx, -40(%rbp)
	movq	-48(%rbp), %rax
	movq	-40(%rbp), %rdx
	.loc	30 304 2 is_stmt 1
	addq	$48, %rsp
	popq	%rbp
	retq
Ltmp764:
Lfunc_end225:
	.cfi_endproc

	.globl	__ZN4core3ptr24slice_from_raw_parts_mut17hd847c14d2056bff3E
	.p2align	4, 0x90
__ZN4core3ptr24slice_from_raw_parts_mut17hd847c14d2056bff3E:
Lfunc_begin226:
	.loc	30 300 0
	.cfi_startproc
	pushq	%rbp
	.cfi_def_cfa_offset 16
	.cfi_offset %rbp, -16
	movq	%rsp, %rbp
	.cfi_def_cfa_register %rbp
	subq	$48, %rsp
	movq	%rdi, -16(%rbp)
	movq	%rsi, -8(%rbp)
Ltmp765:
	.loc	30 303 26 prologue_end
	movq	%rdi, -32(%rbp)
	movq	%rsi, -24(%rbp)
	.loc	30 303 14 is_stmt 0
	movq	-32(%rbp), %rax
	movq	-24(%rbp), %rcx
	movq	%rax, -48(%rbp)
	movq	%rcx, -40(%rbp)
	movq	-48(%rbp), %rax
	movq	-40(%rbp), %rdx
	.loc	30 304 2 is_stmt 1
	addq	$48, %rsp
	popq	%rbp
	retq
Ltmp766:
Lfunc_end226:
	.cfi_endproc

	.p2align	4, 0x90
__ZN4core3ptr25swap_nonoverlapping_bytes17h3682bbae961b79ceE:
Lfunc_begin227:
	.loc	30 467 0
	.cfi_startproc
	pushq	%rbp
	.cfi_def_cfa_offset 16
	.cfi_offset %rbp, -16
	movq	%rsp, %rbp
	.cfi_def_cfa_register %rbp
	andq	$-32, %rsp
	subq	$352, %rsp
	movq	%rdi, 208(%rsp)
	movq	%rsi, 216(%rsp)
	movq	%rdx, 224(%rsp)
Ltmp767:
	.loc	27 310 5 prologue_end
	movq	$32, 296(%rsp)
	movq	296(%rsp), %rax
Ltmp768:
	.loc	30 478 22
	movq	%rax, 232(%rsp)
	movq	%rdi, 104(%rsp)
	movq	%rsi, 96(%rsp)
	movq	%rdx, 88(%rsp)
	movq	%rax, 80(%rsp)
Ltmp769:
	.loc	30 483 17
	movq	$0, 120(%rsp)
LBB227_2:
	.loc	30 0 17 is_stmt 0
	movq	80(%rsp), %rax
Ltmp770:
	.loc	30 484 11 is_stmt 1
	addq	120(%rsp), %rax
	movq	88(%rsp), %rcx
	cmpq	%rcx, %rax
	.loc	30 484 5 is_stmt 0
	jbe	LBB227_4
	.loc	30 0 5
	movq	88(%rsp), %rax
	.loc	30 509 8 is_stmt 1
	cmpq	%rax, 120(%rsp)
	.loc	30 509 5 is_stmt 0
	jb	LBB227_13
	jmp	LBB227_12
LBB227_4:
	.loc	30 0 5
	leaq	128(%rsp), %rax
	movq	%rax, 304(%rsp)
	movq	%rax, 312(%rsp)
Ltmp771:
	.loc	30 488 17 is_stmt 1
	leaq	128(%rsp), %rax
	movq	%rax, 240(%rsp)
Ltmp772:
	.loc	30 497 27
	movq	120(%rsp), %rsi
	movq	104(%rsp), %rdi
	movq	%rax, 72(%rsp)
	.loc	30 497 21 is_stmt 0
	callq	__ZN4core3ptr7mut_ptr31_$LT$impl$u20$$BP$mut$u20$T$GT$3add17h0e558f2c34903859E
	movq	%rax, 248(%rsp)
	movq	%rax, 64(%rsp)
Ltmp773:
	.loc	30 498 27 is_stmt 1
	movq	120(%rsp), %rsi
	movq	96(%rsp), %rdi
	.loc	30 498 21 is_stmt 0
	callq	__ZN4core3ptr7mut_ptr31_$LT$impl$u20$$BP$mut$u20$T$GT$3add17h0e558f2c34903859E
	movq	%rax, 256(%rsp)
	movq	%rax, 56(%rsp)
	.loc	30 0 21
	movq	64(%rsp), %rdi
	movq	72(%rsp), %rsi
	movq	80(%rsp), %rdx
Ltmp774:
	.loc	30 502 13 is_stmt 1
	callq	__ZN4core10intrinsics19copy_nonoverlapping17h3efa81240f8814c4E
	.loc	30 0 13 is_stmt 0
	movq	56(%rsp), %rdi
	movq	64(%rsp), %rsi
	movq	80(%rsp), %rdx
	.loc	30 503 13 is_stmt 1
	callq	__ZN4core10intrinsics19copy_nonoverlapping17h3efa81240f8814c4E
	.loc	30 0 13 is_stmt 0
	movq	72(%rsp), %rdi
	movq	56(%rsp), %rsi
	movq	80(%rsp), %rdx
	.loc	30 504 13 is_stmt 1
	callq	__ZN4core10intrinsics19copy_nonoverlapping17h3efa81240f8814c4E
Ltmp775:
	.loc	30 0 13 is_stmt 0
	movq	80(%rsp), %rax
	.loc	30 506 9 is_stmt 1
	addq	120(%rsp), %rax
	movq	%rax, 120(%rsp)
Ltmp776:
	.loc	30 484 5
	jmp	LBB227_2
LBB227_12:
	.loc	30 509 5
	jmp	LBB227_21
LBB227_13:
	.loc	30 0 5 is_stmt 0
	movq	88(%rsp), %rax
Ltmp777:
	.loc	30 512 19 is_stmt 1
	subq	120(%rsp), %rax
	movq	%rax, 264(%rsp)
	leaq	176(%rsp), %rcx
	movq	%rcx, 320(%rsp)
	movq	%rcx, 328(%rsp)
	movq	%rax, 48(%rsp)
	movq	%rcx, 40(%rsp)
	.loc	30 0 19 is_stmt 0
	movq	40(%rsp), %rax
Ltmp778:
	.loc	30 514 17 is_stmt 1
	movq	%rax, 272(%rsp)
Ltmp779:
	.loc	30 518 27
	movq	120(%rsp), %rsi
	movq	104(%rsp), %rdi
	movq	%rax, 32(%rsp)
	.loc	30 518 21 is_stmt 0
	callq	__ZN4core3ptr7mut_ptr31_$LT$impl$u20$$BP$mut$u20$T$GT$3add17h0e558f2c34903859E
	movq	%rax, 280(%rsp)
	movq	%rax, 24(%rsp)
Ltmp780:
	.loc	30 519 27 is_stmt 1
	movq	120(%rsp), %rsi
	movq	96(%rsp), %rdi
	.loc	30 519 21 is_stmt 0
	callq	__ZN4core3ptr7mut_ptr31_$LT$impl$u20$$BP$mut$u20$T$GT$3add17h0e558f2c34903859E
	movq	%rax, 288(%rsp)
	movq	%rax, 16(%rsp)
	.loc	30 0 21
	movq	24(%rsp), %rdi
	movq	32(%rsp), %rsi
	movq	48(%rsp), %rdx
Ltmp781:
	.loc	30 521 13 is_stmt 1
	callq	__ZN4core10intrinsics19copy_nonoverlapping17h3efa81240f8814c4E
	.loc	30 0 13 is_stmt 0
	movq	16(%rsp), %rdi
	movq	24(%rsp), %rsi
	movq	48(%rsp), %rdx
	.loc	30 522 13 is_stmt 1
	callq	__ZN4core10intrinsics19copy_nonoverlapping17h3efa81240f8814c4E
	.loc	30 0 13 is_stmt 0
	movq	32(%rsp), %rdi
	movq	16(%rsp), %rsi
	movq	48(%rsp), %rdx
	.loc	30 523 13 is_stmt 1
	callq	__ZN4core10intrinsics19copy_nonoverlapping17h3efa81240f8814c4E
Ltmp782:
	.loc	30 509 5
	jmp	LBB227_21
Ltmp783:
LBB227_21:
	.loc	30 526 2
	movq	%rbp, %rsp
	popq	%rbp
	retq
Ltmp784:
Lfunc_end227:
	.cfi_endproc

	.globl	__ZN4core3ptr4read17h20c469ac472288eaE
	.p2align	4, 0x90
__ZN4core3ptr4read17h20c469ac472288eaE:
Lfunc_begin228:
	.loc	30 692 0
	.cfi_startproc
	pushq	%rbp
	.cfi_def_cfa_offset 16
	.cfi_offset %rbp, -16
	movq	%rsp, %rbp
	.cfi_def_cfa_register %rbp
	subq	$160, %rsp
	movq	%rdi, %rax
	movq	%rsi, -56(%rbp)
	movq	%rsi, -128(%rbp)
	movq	%rdi, -136(%rbp)
	movq	%rax, -144(%rbp)
	leaq	-120(%rbp), %rax
	movq	%rax, -16(%rbp)
	movq	%rax, -8(%rbp)
	movq	%rax, -152(%rbp)
	movq	-128(%rbp), %rdi
	movq	-152(%rbp), %rsi
Ltmp785:
	.loc	30 702 9 prologue_end
	movl	$1, %edx
	callq	__ZN4core10intrinsics19copy_nonoverlapping17hf2028d62bf27e41bE
	.loc	30 703 9
	movq	-120(%rbp), %rax
	movq	%rax, -88(%rbp)
	movq	-112(%rbp), %rax
	movq	%rax, -80(%rbp)
	movq	-104(%rbp), %rax
	movq	%rax, -72(%rbp)
	movq	-96(%rbp), %rax
	movq	%rax, -64(%rbp)
Ltmp786:
	.file	31 "/rustc/6c8927b0cf80ceee19386026cf9d7fd4fd9d486f/src/libcore/mem/maybe_uninit.rs"
	.loc	31 501 38
	movq	-88(%rbp), %rax
	movq	%rax, -48(%rbp)
	movq	-80(%rbp), %rax
	movq	%rax, -40(%rbp)
	movq	-72(%rbp), %rax
	movq	%rax, -32(%rbp)
	movq	-64(%rbp), %rax
	movq	%rax, -24(%rbp)
Ltmp787:
	.loc	7 101 9
	movq	-48(%rbp), %rax
	movq	-136(%rbp), %rcx
	movq	%rax, (%rcx)
	movq	-40(%rbp), %rax
	movq	%rax, 8(%rcx)
	movq	-32(%rbp), %rax
	movq	%rax, 16(%rcx)
	movq	-24(%rbp), %rax
	movq	%rax, 24(%rcx)
Ltmp788:
	.loc	7 0 9 is_stmt 0
	movq	-144(%rbp), %rax
	.loc	30 705 2 is_stmt 1
	addq	$160, %rsp
	popq	%rbp
	retq
Ltmp789:
Lfunc_end228:
	.cfi_endproc

	.globl	__ZN4core3ptr4read17h30d62b893e12c442E
	.p2align	4, 0x90
__ZN4core3ptr4read17h30d62b893e12c442E:
Lfunc_begin229:
	.loc	30 692 0
	.cfi_startproc
	pushq	%rbp
	.cfi_def_cfa_offset 16
	.cfi_offset %rbp, -16
	movq	%rsp, %rbp
	.cfi_def_cfa_register %rbp
	subq	$128, %rsp
	movq	%rdi, -72(%rbp)
Ltmp790:
	.loc	31 272 6 prologue_end
	movq	-64(%rbp), %rax
	movq	-56(%rbp), %rcx
Ltmp791:
	.loc	30 694 19
	movq	%rcx, -80(%rbp)
	movq	%rax, -88(%rbp)
	movq	%rdi, -96(%rbp)
	.loc	30 0 19 is_stmt 0
	leaq	-88(%rbp), %rax
	movq	%rax, -16(%rbp)
	movq	%rax, -8(%rbp)
	movq	%rax, -104(%rbp)
	movq	-96(%rbp), %rdi
	movq	-104(%rbp), %rsi
Ltmp792:
	.loc	30 702 9 is_stmt 1
	movl	$1, %edx
	callq	__ZN4core10intrinsics19copy_nonoverlapping17hd3e550797f9c5becE
	.loc	30 703 9
	movq	-88(%rbp), %rax
	movq	-80(%rbp), %rcx
	movq	%rax, -48(%rbp)
	movq	%rcx, -40(%rbp)
	movq	%rax, -32(%rbp)
	movq	%rcx, -24(%rbp)
	movq	%rax, -112(%rbp)
	movq	%rcx, -120(%rbp)
Ltmp793:
	.loc	30 0 9 is_stmt 0
	movq	-112(%rbp), %rax
	movq	-120(%rbp), %rdx
	.loc	30 705 2 is_stmt 1
	addq	$128, %rsp
	popq	%rbp
	retq
Ltmp794:
Lfunc_end229:
	.cfi_endproc

	.globl	__ZN4core3ptr4read17h5ca5242abe5d7956E
	.p2align	4, 0x90
__ZN4core3ptr4read17h5ca5242abe5d7956E:
Lfunc_begin230:
	.loc	30 692 0
	.cfi_startproc
	pushq	%rbp
	.cfi_def_cfa_offset 16
	.cfi_offset %rbp, -16
	movq	%rsp, %rbp
	.cfi_def_cfa_register %rbp
	subq	$128, %rsp
	movq	%rdi, %rax
	movq	%rsi, -48(%rbp)
	movq	%rsi, -104(%rbp)
	movq	%rdi, -112(%rbp)
	movq	%rax, -120(%rbp)
	leaq	-96(%rbp), %rax
	movq	%rax, -16(%rbp)
	movq	%rax, -8(%rbp)
	movq	%rax, -128(%rbp)
	movq	-104(%rbp), %rdi
	movq	-128(%rbp), %rsi
Ltmp795:
	.loc	30 702 9 prologue_end
	movl	$1, %edx
	callq	__ZN4core10intrinsics19copy_nonoverlapping17h2d910fed884d479aE
	.loc	30 703 9
	movq	-96(%rbp), %rax
	movq	%rax, -72(%rbp)
	movq	-88(%rbp), %rax
	movq	%rax, -64(%rbp)
	movq	-80(%rbp), %rax
	movq	%rax, -56(%rbp)
Ltmp796:
	.loc	31 501 38
	movq	-72(%rbp), %rax
	movq	%rax, -40(%rbp)
	movq	-64(%rbp), %rax
	movq	%rax, -32(%rbp)
	movq	-56(%rbp), %rax
	movq	%rax, -24(%rbp)
Ltmp797:
	.loc	7 101 9
	movq	-40(%rbp), %rax
	movq	-112(%rbp), %rcx
	movq	%rax, (%rcx)
	movq	-32(%rbp), %rax
	movq	%rax, 8(%rcx)
	movq	-24(%rbp), %rax
	movq	%rax, 16(%rcx)
Ltmp798:
	.loc	7 0 9 is_stmt 0
	movq	-120(%rbp), %rax
	.loc	30 705 2 is_stmt 1
	addq	$128, %rsp
	popq	%rbp
	retq
Ltmp799:
Lfunc_end230:
	.cfi_endproc

	.globl	__ZN4core3ptr4read17h8d629642dac1145fE
	.p2align	4, 0x90
__ZN4core3ptr4read17h8d629642dac1145fE:
Lfunc_begin231:
	.loc	30 692 0
	.cfi_startproc
	pushq	%rbp
	.cfi_def_cfa_offset 16
	.cfi_offset %rbp, -16
	movq	%rsp, %rbp
	.cfi_def_cfa_register %rbp
	subq	$128, %rsp
	movq	%rdi, %rax
	movq	%rsi, -48(%rbp)
	movq	%rsi, -104(%rbp)
	movq	%rdi, -112(%rbp)
	movq	%rax, -120(%rbp)
	leaq	-96(%rbp), %rax
	movq	%rax, -16(%rbp)
	movq	%rax, -8(%rbp)
	movq	%rax, -128(%rbp)
	movq	-104(%rbp), %rdi
	movq	-128(%rbp), %rsi
Ltmp800:
	.loc	30 702 9 prologue_end
	movl	$1, %edx
	callq	__ZN4core10intrinsics19copy_nonoverlapping17h28f95b93c8592a2dE
	.loc	30 703 9
	movq	-96(%rbp), %rax
	movq	%rax, -72(%rbp)
	movq	-88(%rbp), %rax
	movq	%rax, -64(%rbp)
	movq	-80(%rbp), %rax
	movq	%rax, -56(%rbp)
Ltmp801:
	.loc	31 501 38
	movq	-72(%rbp), %rax
	movq	%rax, -40(%rbp)
	movq	-64(%rbp), %rax
	movq	%rax, -32(%rbp)
	movq	-56(%rbp), %rax
	movq	%rax, -24(%rbp)
Ltmp802:
	.loc	7 101 9
	movq	-40(%rbp), %rax
	movq	-112(%rbp), %rcx
	movq	%rax, (%rcx)
	movq	-32(%rbp), %rax
	movq	%rax, 8(%rcx)
	movq	-24(%rbp), %rax
	movq	%rax, 16(%rcx)
Ltmp803:
	.loc	7 0 9 is_stmt 0
	movq	-120(%rbp), %rax
	.loc	30 705 2 is_stmt 1
	addq	$128, %rsp
	popq	%rbp
	retq
Ltmp804:
Lfunc_end231:
	.cfi_endproc

	.globl	__ZN4core3ptr4read17haa4d8515aab61110E
	.p2align	4, 0x90
__ZN4core3ptr4read17haa4d8515aab61110E:
Lfunc_begin232:
	.loc	30 692 0
	.cfi_startproc
	pushq	%rbp
	.cfi_def_cfa_offset 16
	.cfi_offset %rbp, -16
	movq	%rsp, %rbp
	.cfi_def_cfa_register %rbp
	subq	$160, %rsp
	movq	%rdi, %rax
	movq	%rsi, -56(%rbp)
	movq	%rsi, -128(%rbp)
	movq	%rdi, -136(%rbp)
	movq	%rax, -144(%rbp)
	leaq	-120(%rbp), %rax
	movq	%rax, -16(%rbp)
	movq	%rax, -8(%rbp)
	movq	%rax, -152(%rbp)
	movq	-128(%rbp), %rdi
	movq	-152(%rbp), %rsi
Ltmp805:
	.loc	30 702 9 prologue_end
	movl	$1, %edx
	callq	__ZN4core10intrinsics19copy_nonoverlapping17h5f9e9a8eb62dc050E
	.loc	30 703 9
	movq	-120(%rbp), %rax
	movq	%rax, -88(%rbp)
	movq	-112(%rbp), %rax
	movq	%rax, -80(%rbp)
	movq	-104(%rbp), %rax
	movq	%rax, -72(%rbp)
	movq	-96(%rbp), %rax
	movq	%rax, -64(%rbp)
Ltmp806:
	.loc	31 501 38
	movq	-88(%rbp), %rax
	movq	%rax, -48(%rbp)
	movq	-80(%rbp), %rax
	movq	%rax, -40(%rbp)
	movq	-72(%rbp), %rax
	movq	%rax, -32(%rbp)
	movq	-64(%rbp), %rax
	movq	%rax, -24(%rbp)
Ltmp807:
	.loc	7 101 9
	movq	-48(%rbp), %rax
	movq	-136(%rbp), %rcx
	movq	%rax, (%rcx)
	movq	-40(%rbp), %rax
	movq	%rax, 8(%rcx)
	movq	-32(%rbp), %rax
	movq	%rax, 16(%rcx)
	movq	-24(%rbp), %rax
	movq	%rax, 24(%rcx)
Ltmp808:
	.loc	7 0 9 is_stmt 0
	movq	-144(%rbp), %rax
	.loc	30 705 2 is_stmt 1
	addq	$160, %rsp
	popq	%rbp
	retq
Ltmp809:
Lfunc_end232:
	.cfi_endproc

	.globl	__ZN4core3ptr4read17habcff0163b7611b2E
	.p2align	4, 0x90
__ZN4core3ptr4read17habcff0163b7611b2E:
Lfunc_begin233:
	.loc	30 692 0
	.cfi_startproc
	pushq	%rbp
	.cfi_def_cfa_offset 16
	.cfi_offset %rbp, -16
	movq	%rsp, %rbp
	.cfi_def_cfa_register %rbp
	subq	$128, %rsp
	movq	%rdi, %rax
	movq	%rsi, -48(%rbp)
	movq	%rsi, -104(%rbp)
	movq	%rdi, -112(%rbp)
	movq	%rax, -120(%rbp)
	leaq	-96(%rbp), %rax
	movq	%rax, -16(%rbp)
	movq	%rax, -8(%rbp)
	movq	%rax, -128(%rbp)
	movq	-104(%rbp), %rdi
	movq	-128(%rbp), %rsi
Ltmp810:
	.loc	30 702 9 prologue_end
	movl	$1, %edx
	callq	__ZN4core10intrinsics19copy_nonoverlapping17ha3afd7b530f7b9e1E
	.loc	30 703 9
	movq	-96(%rbp), %rax
	movq	%rax, -72(%rbp)
	movq	-88(%rbp), %rax
	movq	%rax, -64(%rbp)
	movq	-80(%rbp), %rax
	movq	%rax, -56(%rbp)
Ltmp811:
	.loc	31 501 38
	movq	-72(%rbp), %rax
	movq	%rax, -40(%rbp)
	movq	-64(%rbp), %rax
	movq	%rax, -32(%rbp)
	movq	-56(%rbp), %rax
	movq	%rax, -24(%rbp)
Ltmp812:
	.loc	7 101 9
	movq	-40(%rbp), %rax
	movq	-112(%rbp), %rcx
	movq	%rax, (%rcx)
	movq	-32(%rbp), %rax
	movq	%rax, 8(%rcx)
	movq	-24(%rbp), %rax
	movq	%rax, 16(%rcx)
Ltmp813:
	.loc	7 0 9 is_stmt 0
	movq	-120(%rbp), %rax
	.loc	30 705 2 is_stmt 1
	addq	$128, %rsp
	popq	%rbp
	retq
Ltmp814:
Lfunc_end233:
	.cfi_endproc

	.globl	__ZN4core3ptr4read17hb72a9cb6e2c2d87bE
	.p2align	4, 0x90
__ZN4core3ptr4read17hb72a9cb6e2c2d87bE:
Lfunc_begin234:
	.loc	30 692 0
	.cfi_startproc
	pushq	%rbp
	.cfi_def_cfa_offset 16
	.cfi_offset %rbp, -16
	movq	%rsp, %rbp
	.cfi_def_cfa_register %rbp
	subq	$80, %rsp
	movq	%rdi, -48(%rbp)
Ltmp815:
	.loc	31 272 6 prologue_end
	movl	-40(%rbp), %eax
	movl	-36(%rbp), %ecx
Ltmp816:
	.loc	30 694 19
	movl	%ecx, -52(%rbp)
	movl	%eax, -56(%rbp)
	movq	%rdi, -64(%rbp)
	.loc	30 0 19 is_stmt 0
	leaq	-56(%rbp), %rax
	movq	%rax, -16(%rbp)
	movq	%rax, -8(%rbp)
	movq	-64(%rbp), %rdi
Ltmp817:
	.loc	30 702 9 is_stmt 1
	leaq	-56(%rbp), %rsi
	movl	$1, %edx
	callq	__ZN4core10intrinsics19copy_nonoverlapping17h21590c911498b2d0E
	.loc	30 703 9
	movl	-56(%rbp), %eax
	movl	-52(%rbp), %ecx
	movl	%eax, -32(%rbp)
	movl	%ecx, -28(%rbp)
	movl	%eax, -24(%rbp)
	movl	%ecx, -20(%rbp)
	movl	%eax, -68(%rbp)
	movl	%ecx, -72(%rbp)
Ltmp818:
	.loc	30 0 9 is_stmt 0
	movl	-68(%rbp), %eax
	movl	-72(%rbp), %edx
	.loc	30 705 2 is_stmt 1
	addq	$80, %rsp
	popq	%rbp
	retq
Ltmp819:
Lfunc_end234:
	.cfi_endproc

	.globl	__ZN4core3ptr4read17hcdcd9efcad10b636E
	.p2align	4, 0x90
__ZN4core3ptr4read17hcdcd9efcad10b636E:
Lfunc_begin235:
	.loc	30 692 0
	.cfi_startproc
	pushq	%rbp
	.cfi_def_cfa_offset 16
	.cfi_offset %rbp, -16
	movq	%rsp, %rbp
	.cfi_def_cfa_register %rbp
	subq	$128, %rsp
	movq	%rdi, %rax
	movq	%rsi, -48(%rbp)
	movq	%rsi, -104(%rbp)
	movq	%rdi, -112(%rbp)
	movq	%rax, -120(%rbp)
	leaq	-96(%rbp), %rax
	movq	%rax, -16(%rbp)
	movq	%rax, -8(%rbp)
	movq	%rax, -128(%rbp)
	movq	-104(%rbp), %rdi
	movq	-128(%rbp), %rsi
Ltmp820:
	.loc	30 702 9 prologue_end
	movl	$1, %edx
	callq	__ZN4core10intrinsics19copy_nonoverlapping17hcc0102861219f525E
	.loc	30 703 9
	movq	-96(%rbp), %rax
	movq	%rax, -72(%rbp)
	movq	-88(%rbp), %rax
	movq	%rax, -64(%rbp)
	movq	-80(%rbp), %rax
	movq	%rax, -56(%rbp)
Ltmp821:
	.loc	31 501 38
	movq	-72(%rbp), %rax
	movq	%rax, -40(%rbp)
	movq	-64(%rbp), %rax
	movq	%rax, -32(%rbp)
	movq	-56(%rbp), %rax
	movq	%rax, -24(%rbp)
Ltmp822:
	.loc	7 101 9
	movq	-40(%rbp), %rax
	movq	-112(%rbp), %rcx
	movq	%rax, (%rcx)
	movq	-32(%rbp), %rax
	movq	%rax, 8(%rcx)
	movq	-24(%rbp), %rax
	movq	%rax, 16(%rcx)
Ltmp823:
	.loc	7 0 9 is_stmt 0
	movq	-120(%rbp), %rax
	.loc	30 705 2 is_stmt 1
	addq	$128, %rsp
	popq	%rbp
	retq
Ltmp824:
Lfunc_end235:
	.cfi_endproc

	.globl	__ZN4core3ptr4read17hda919ad6c76e5024E
	.p2align	4, 0x90
__ZN4core3ptr4read17hda919ad6c76e5024E:
Lfunc_begin236:
	.loc	30 692 0
	.cfi_startproc
	pushq	%rbp
	.cfi_def_cfa_offset 16
	.cfi_offset %rbp, -16
	movq	%rsp, %rbp
	.cfi_def_cfa_register %rbp
	subq	$128, %rsp
	movq	%rdi, %rax
	movq	%rsi, -48(%rbp)
	movq	%rsi, -104(%rbp)
	movq	%rdi, -112(%rbp)
	movq	%rax, -120(%rbp)
	leaq	-96(%rbp), %rax
	movq	%rax, -16(%rbp)
	movq	%rax, -8(%rbp)
	movq	%rax, -128(%rbp)
	movq	-104(%rbp), %rdi
	movq	-128(%rbp), %rsi
Ltmp825:
	.loc	30 702 9 prologue_end
	movl	$1, %edx
	callq	__ZN4core10intrinsics19copy_nonoverlapping17ha19dbc2709e5de52E
	.loc	30 703 9
	movq	-96(%rbp), %rax
	movq	%rax, -72(%rbp)
	movq	-88(%rbp), %rax
	movq	%rax, -64(%rbp)
	movq	-80(%rbp), %rax
	movq	%rax, -56(%rbp)
Ltmp826:
	.loc	31 501 38
	movq	-72(%rbp), %rax
	movq	%rax, -40(%rbp)
	movq	-64(%rbp), %rax
	movq	%rax, -32(%rbp)
	movq	-56(%rbp), %rax
	movq	%rax, -24(%rbp)
Ltmp827:
	.loc	7 101 9
	movq	-40(%rbp), %rax
	movq	-112(%rbp), %rcx
	movq	%rax, (%rcx)
	movq	-32(%rbp), %rax
	movq	%rax, 8(%rcx)
	movq	-24(%rbp), %rax
	movq	%rax, 16(%rcx)
Ltmp828:
	.loc	7 0 9 is_stmt 0
	movq	-120(%rbp), %rax
	.loc	30 705 2 is_stmt 1
	addq	$128, %rsp
	popq	%rbp
	retq
Ltmp829:
Lfunc_end236:
	.cfi_endproc

	.globl	__ZN4core3ptr5write17h74dc4d42c45514f5E
	.p2align	4, 0x90
__ZN4core3ptr5write17h74dc4d42c45514f5E:
Lfunc_begin237:
	.loc	30 895 0
	.cfi_startproc
	pushq	%rbp
	.cfi_def_cfa_offset 16
	.cfi_offset %rbp, -16
	movq	%rsp, %rbp
	.cfi_def_cfa_register %rbp
	subq	$16, %rsp
	movq	%rdi, -8(%rbp)
Ltmp830:
	.loc	30 901 51 prologue_end
	movq	(%rsi), %rax
	movq	%rax, (%rdi)
	movq	8(%rsi), %rax
	movq	%rax, 8(%rdi)
	movq	16(%rsi), %rax
	movq	%rax, 16(%rdi)
	movq	24(%rsi), %rax
	movq	%rax, 24(%rdi)
	.loc	30 902 2
	addq	$16, %rsp
	popq	%rbp
	retq
Ltmp831:
Lfunc_end237:
	.cfi_endproc

	.globl	__ZN4core3ptr5write17h800f0f07d8ef80a0E
	.p2align	4, 0x90
__ZN4core3ptr5write17h800f0f07d8ef80a0E:
Lfunc_begin238:
	.loc	30 895 0
	.cfi_startproc
	pushq	%rbp
	.cfi_def_cfa_offset 16
	.cfi_offset %rbp, -16
	movq	%rsp, %rbp
	.cfi_def_cfa_register %rbp
	subq	$32, %rsp
	movq	%rdi, -24(%rbp)
	movq	%rsi, -16(%rbp)
	movq	%rdx, -8(%rbp)
Ltmp832:
	.loc	30 901 51 prologue_end
	movq	%rsi, (%rdi)
	movq	%rdx, 8(%rdi)
	.loc	30 902 2
	addq	$32, %rsp
	popq	%rbp
	retq
Ltmp833:
Lfunc_end238:
	.cfi_endproc

	.globl	__ZN4core3ptr5write17hb31dd5458730f969E
	.p2align	4, 0x90
__ZN4core3ptr5write17hb31dd5458730f969E:
Lfunc_begin239:
	.loc	30 895 0
	.cfi_startproc
	pushq	%rbp
	.cfi_def_cfa_offset 16
	.cfi_offset %rbp, -16
	movq	%rsp, %rbp
	.cfi_def_cfa_register %rbp
	subq	$24, %rsp
	movq	%rdi, -16(%rbp)
	movb	%sil, -1(%rbp)
Ltmp834:
	.loc	30 901 51 prologue_end
	movb	%sil, (%rdi)
	.loc	30 902 2
	addq	$24, %rsp
	popq	%rbp
	retq
Ltmp835:
Lfunc_end239:
	.cfi_endproc

	.globl	__ZN4core3ptr5write17hb7b3f18f88e2991aE
	.p2align	4, 0x90
__ZN4core3ptr5write17hb7b3f18f88e2991aE:
Lfunc_begin240:
	.loc	30 895 0
	.cfi_startproc
	pushq	%rbp
	.cfi_def_cfa_offset 16
	.cfi_offset %rbp, -16
	movq	%rsp, %rbp
	.cfi_def_cfa_register %rbp
	subq	$24, %rsp
	movq	%rdi, -16(%rbp)
	movl	%esi, -8(%rbp)
	movl	%edx, -4(%rbp)
Ltmp836:
	.loc	30 901 51 prologue_end
	movl	%esi, (%rdi)
	movl	%edx, 4(%rdi)
	.loc	30 902 2
	addq	$24, %rsp
	popq	%rbp
	retq
Ltmp837:
Lfunc_end240:
	.cfi_endproc

	.globl	__ZN4core3ptr5write17hb910c4e6eb8e2c7dE
	.p2align	4, 0x90
__ZN4core3ptr5write17hb910c4e6eb8e2c7dE:
Lfunc_begin241:
	.loc	30 895 0
	.cfi_startproc
	pushq	%rbp
	.cfi_def_cfa_offset 16
	.cfi_offset %rbp, -16
	movq	%rsp, %rbp
	.cfi_def_cfa_register %rbp
	subq	$16, %rsp
	movq	%rdi, -8(%rbp)
Ltmp838:
	.loc	30 901 51 prologue_end
	movq	(%rsi), %rax
	movq	%rax, (%rdi)
	movq	8(%rsi), %rax
	movq	%rax, 8(%rdi)
	movq	16(%rsi), %rax
	movq	%rax, 16(%rdi)
	.loc	30 902 2
	addq	$16, %rsp
	popq	%rbp
	retq
Ltmp839:
Lfunc_end241:
	.cfi_endproc

	.globl	__ZN4core3ptr6unique15Unique$LT$T$GT$13new_unchecked17habb35cd808bbd603E
	.p2align	4, 0x90
__ZN4core3ptr6unique15Unique$LT$T$GT$13new_unchecked17habb35cd808bbd603E:
Lfunc_begin242:
	.file	32 "/rustc/6c8927b0cf80ceee19386026cf9d7fd4fd9d486f/src/libcore/ptr/unique.rs"
	.loc	32 89 0
	.cfi_startproc
	pushq	%rbp
	.cfi_def_cfa_offset 16
	.cfi_offset %rbp, -16
	movq	%rsp, %rbp
	.cfi_def_cfa_register %rbp
	subq	$24, %rsp
	movq	%rdi, -8(%rbp)
Ltmp840:
	.loc	32 91 18 prologue_end
	movq	%rdi, -24(%rbp)
	.loc	32 92 6
	movq	-24(%rbp), %rax
	addq	$24, %rsp
	popq	%rbp
	retq
Ltmp841:
Lfunc_end242:
	.cfi_endproc

	.globl	__ZN4core3ptr6unique15Unique$LT$T$GT$13new_unchecked17hdd3fee61cb7c4009E
	.p2align	4, 0x90
__ZN4core3ptr6unique15Unique$LT$T$GT$13new_unchecked17hdd3fee61cb7c4009E:
Lfunc_begin243:
	.loc	32 89 0
	.cfi_startproc
	pushq	%rbp
	.cfi_def_cfa_offset 16
	.cfi_offset %rbp, -16
	movq	%rsp, %rbp
	.cfi_def_cfa_register %rbp
	subq	$24, %rsp
	movq	%rdi, -8(%rbp)
Ltmp842:
	.loc	32 91 18 prologue_end
	movq	%rdi, -24(%rbp)
	.loc	32 92 6
	movq	-24(%rbp), %rax
	addq	$24, %rsp
	popq	%rbp
	retq
Ltmp843:
Lfunc_end243:
	.cfi_endproc

	.globl	__ZN4core3ptr6unique15Unique$LT$T$GT$4cast17h023808fd6c2743e5E
	.p2align	4, 0x90
__ZN4core3ptr6unique15Unique$LT$T$GT$4cast17h023808fd6c2743e5E:
Lfunc_begin244:
	.loc	32 137 0
	.cfi_startproc
	pushq	%rbp
	.cfi_def_cfa_offset 16
	.cfi_offset %rbp, -16
	movq	%rsp, %rbp
	.cfi_def_cfa_register %rbp
	subq	$32, %rsp
	movq	%rdi, -16(%rbp)
	movq	%rsi, -8(%rbp)
Ltmp844:
	.loc	32 141 40 prologue_end
	callq	__ZN4core3ptr6unique15Unique$LT$T$GT$6as_ptr17he7ba8f4d4123aaf1E
	movq	%rax, -24(%rbp)
	.loc	32 0 40 is_stmt 0
	movq	-24(%rbp), %rax
	.loc	32 141 18
	movq	%rax, %rdi
	callq	__ZN4core3ptr6unique15Unique$LT$T$GT$13new_unchecked17habb35cd808bbd603E
	movq	%rax, -32(%rbp)
	.loc	32 0 18
	movq	-32(%rbp), %rax
	.loc	32 142 6 is_stmt 1
	addq	$32, %rsp
	popq	%rbp
	retq
Ltmp845:
Lfunc_end244:
	.cfi_endproc

	.globl	__ZN4core3ptr6unique15Unique$LT$T$GT$4cast17h4f9065621948c171E
	.p2align	4, 0x90
__ZN4core3ptr6unique15Unique$LT$T$GT$4cast17h4f9065621948c171E:
Lfunc_begin245:
	.loc	32 137 0
	.cfi_startproc
	pushq	%rbp
	.cfi_def_cfa_offset 16
	.cfi_offset %rbp, -16
	movq	%rsp, %rbp
	.cfi_def_cfa_register %rbp
	subq	$32, %rsp
	movq	%rdi, -8(%rbp)
Ltmp846:
	.loc	32 141 40 prologue_end
	callq	__ZN4core3ptr6unique15Unique$LT$T$GT$6as_ptr17hbaca4f1b4e327193E
	movq	%rax, -16(%rbp)
	.loc	32 0 40 is_stmt 0
	movq	-16(%rbp), %rax
	.loc	32 141 18
	movq	%rax, %rdi
	callq	__ZN4core3ptr6unique15Unique$LT$T$GT$13new_unchecked17habb35cd808bbd603E
	movq	%rax, -24(%rbp)
	.loc	32 0 18
	movq	-24(%rbp), %rax
	.loc	32 142 6 is_stmt 1
	addq	$32, %rsp
	popq	%rbp
	retq
Ltmp847:
Lfunc_end245:
	.cfi_endproc

	.globl	__ZN4core3ptr6unique15Unique$LT$T$GT$4cast17h5297d7852ac21298E
	.p2align	4, 0x90
__ZN4core3ptr6unique15Unique$LT$T$GT$4cast17h5297d7852ac21298E:
Lfunc_begin246:
	.loc	32 137 0
	.cfi_startproc
	pushq	%rbp
	.cfi_def_cfa_offset 16
	.cfi_offset %rbp, -16
	movq	%rsp, %rbp
	.cfi_def_cfa_register %rbp
	subq	$32, %rsp
	movq	%rdi, -8(%rbp)
Ltmp848:
	.loc	32 141 40 prologue_end
	callq	__ZN4core3ptr6unique15Unique$LT$T$GT$6as_ptr17h30cf8bb3ad1bdae9E
	movq	%rax, -16(%rbp)
	.loc	32 0 40 is_stmt 0
	movq	-16(%rbp), %rax
	.loc	32 141 18
	movq	%rax, %rdi
	callq	__ZN4core3ptr6unique15Unique$LT$T$GT$13new_unchecked17habb35cd808bbd603E
	movq	%rax, -24(%rbp)
	.loc	32 0 18
	movq	-24(%rbp), %rax
	.loc	32 142 6 is_stmt 1
	addq	$32, %rsp
	popq	%rbp
	retq
Ltmp849:
Lfunc_end246:
	.cfi_endproc

	.globl	__ZN4core3ptr6unique15Unique$LT$T$GT$4cast17h6e47c7e9a8e0972eE
	.p2align	4, 0x90
__ZN4core3ptr6unique15Unique$LT$T$GT$4cast17h6e47c7e9a8e0972eE:
Lfunc_begin247:
	.loc	32 137 0
	.cfi_startproc
	pushq	%rbp
	.cfi_def_cfa_offset 16
	.cfi_offset %rbp, -16
	movq	%rsp, %rbp
	.cfi_def_cfa_register %rbp
	subq	$32, %rsp
	movq	%rdi, -8(%rbp)
Ltmp850:
	.loc	32 141 40 prologue_end
	callq	__ZN4core3ptr6unique15Unique$LT$T$GT$6as_ptr17hb7417b4ffea251a3E
	movq	%rax, -16(%rbp)
	.loc	32 0 40 is_stmt 0
	movq	-16(%rbp), %rdi
	.loc	32 141 18
	callq	__ZN4core3ptr6unique15Unique$LT$T$GT$13new_unchecked17habb35cd808bbd603E
	movq	%rax, -24(%rbp)
	.loc	32 0 18
	movq	-24(%rbp), %rax
	.loc	32 142 6 is_stmt 1
	addq	$32, %rsp
	popq	%rbp
	retq
Ltmp851:
Lfunc_end247:
	.cfi_endproc

	.globl	__ZN4core3ptr6unique15Unique$LT$T$GT$4cast17h8ea9bfb0f7d2627eE
	.p2align	4, 0x90
__ZN4core3ptr6unique15Unique$LT$T$GT$4cast17h8ea9bfb0f7d2627eE:
Lfunc_begin248:
	.loc	32 137 0
	.cfi_startproc
	pushq	%rbp
	.cfi_def_cfa_offset 16
	.cfi_offset %rbp, -16
	movq	%rsp, %rbp
	.cfi_def_cfa_register %rbp
	subq	$32, %rsp
	movq	%rdi, -8(%rbp)
Ltmp852:
	.loc	32 141 40 prologue_end
	callq	__ZN4core3ptr6unique15Unique$LT$T$GT$6as_ptr17h7253595dfc872735E
	movq	%rax, -16(%rbp)
	.loc	32 0 40 is_stmt 0
	movq	-16(%rbp), %rax
	.loc	32 141 18
	movq	%rax, %rdi
	callq	__ZN4core3ptr6unique15Unique$LT$T$GT$13new_unchecked17habb35cd808bbd603E
	movq	%rax, -24(%rbp)
	.loc	32 0 18
	movq	-24(%rbp), %rax
	.loc	32 142 6 is_stmt 1
	addq	$32, %rsp
	popq	%rbp
	retq
Ltmp853:
Lfunc_end248:
	.cfi_endproc

	.globl	__ZN4core3ptr6unique15Unique$LT$T$GT$4cast17h96b6618d2eb8082bE
	.p2align	4, 0x90
__ZN4core3ptr6unique15Unique$LT$T$GT$4cast17h96b6618d2eb8082bE:
Lfunc_begin249:
	.loc	32 137 0
	.cfi_startproc
	pushq	%rbp
	.cfi_def_cfa_offset 16
	.cfi_offset %rbp, -16
	movq	%rsp, %rbp
	.cfi_def_cfa_register %rbp
	subq	$32, %rsp
	movq	%rdi, -16(%rbp)
	movq	%rsi, -8(%rbp)
Ltmp854:
	.loc	32 141 40 prologue_end
	callq	__ZN4core3ptr6unique15Unique$LT$T$GT$6as_ptr17h6cc6278252792776E
	movq	%rax, -24(%rbp)
	.loc	32 0 40 is_stmt 0
	movq	-24(%rbp), %rax
	.loc	32 141 18
	movq	%rax, %rdi
	callq	__ZN4core3ptr6unique15Unique$LT$T$GT$13new_unchecked17habb35cd808bbd603E
	movq	%rax, -32(%rbp)
	.loc	32 0 18
	movq	-32(%rbp), %rax
	.loc	32 142 6 is_stmt 1
	addq	$32, %rsp
	popq	%rbp
	retq
Ltmp855:
Lfunc_end249:
	.cfi_endproc

	.globl	__ZN4core3ptr6unique15Unique$LT$T$GT$4cast17hb910bd6bb6720e34E
	.p2align	4, 0x90
__ZN4core3ptr6unique15Unique$LT$T$GT$4cast17hb910bd6bb6720e34E:
Lfunc_begin250:
	.loc	32 137 0
	.cfi_startproc
	pushq	%rbp
	.cfi_def_cfa_offset 16
	.cfi_offset %rbp, -16
	movq	%rsp, %rbp
	.cfi_def_cfa_register %rbp
	subq	$32, %rsp
	movq	%rdi, -16(%rbp)
	movq	%rsi, -8(%rbp)
Ltmp856:
	.loc	32 141 40 prologue_end
	callq	__ZN4core3ptr6unique15Unique$LT$T$GT$6as_ptr17h0ce9795bcd6f7669E
	movq	%rax, -24(%rbp)
	.loc	32 0 40 is_stmt 0
	movq	-24(%rbp), %rax
	.loc	32 141 18
	movq	%rax, %rdi
	callq	__ZN4core3ptr6unique15Unique$LT$T$GT$13new_unchecked17habb35cd808bbd603E
	movq	%rax, -32(%rbp)
	.loc	32 0 18
	movq	-32(%rbp), %rax
	.loc	32 142 6 is_stmt 1
	addq	$32, %rsp
	popq	%rbp
	retq
Ltmp857:
Lfunc_end250:
	.cfi_endproc

	.globl	__ZN4core3ptr6unique15Unique$LT$T$GT$4cast17hbca3bccec4a1878eE
	.p2align	4, 0x90
__ZN4core3ptr6unique15Unique$LT$T$GT$4cast17hbca3bccec4a1878eE:
Lfunc_begin251:
	.loc	32 137 0
	.cfi_startproc
	pushq	%rbp
	.cfi_def_cfa_offset 16
	.cfi_offset %rbp, -16
	movq	%rsp, %rbp
	.cfi_def_cfa_register %rbp
	subq	$32, %rsp
	movq	%rdi, -8(%rbp)
Ltmp858:
	.loc	32 141 40 prologue_end
	callq	__ZN4core3ptr6unique15Unique$LT$T$GT$6as_ptr17hb16d0e1551a10ef3E
	movq	%rax, -16(%rbp)
	.loc	32 0 40 is_stmt 0
	movq	-16(%rbp), %rax
	.loc	32 141 18
	movq	%rax, %rdi
	callq	__ZN4core3ptr6unique15Unique$LT$T$GT$13new_unchecked17habb35cd808bbd603E
	movq	%rax, -24(%rbp)
	.loc	32 0 18
	movq	-24(%rbp), %rax
	.loc	32 142 6 is_stmt 1
	addq	$32, %rsp
	popq	%rbp
	retq
Ltmp859:
Lfunc_end251:
	.cfi_endproc

	.globl	__ZN4core3ptr6unique15Unique$LT$T$GT$4cast17hc596f32e2b706284E
	.p2align	4, 0x90
__ZN4core3ptr6unique15Unique$LT$T$GT$4cast17hc596f32e2b706284E:
Lfunc_begin252:
	.loc	32 137 0
	.cfi_startproc
	pushq	%rbp
	.cfi_def_cfa_offset 16
	.cfi_offset %rbp, -16
	movq	%rsp, %rbp
	.cfi_def_cfa_register %rbp
	subq	$32, %rsp
	movq	%rdi, -8(%rbp)
Ltmp860:
	.loc	32 141 40 prologue_end
	callq	__ZN4core3ptr6unique15Unique$LT$T$GT$6as_ptr17h81f3b3244fac6c26E
	movq	%rax, -16(%rbp)
