	.section	__TEXT,__text,regular,pure_instructions
	.macosx_version_min 10, 7
	.file	1 "/Users/yingyuhang/.cargo/registry/src/github.com-1ecc6299db9ec823/autocfg-1.0.0/src/lib.rs"
	.p2align	4, 0x90
__ZN112_$LT$alloc..collections..btree..map..IntoIter$LT$K$C$V$GT$$u20$as$u20$core..iter..traits..iterator..Iterator$GT$4next17h3a9d9f57c5f1ad1aE:
Lfunc_begin0:
	.file	2 "/rustc/a74d1862d4d87a56244958416fd05976c58ca1a8/src/liballoc/collections/btree/map.rs"
	.loc	2 1598 0
	.cfi_startproc
	pushq	%rbp
	.cfi_def_cfa_offset 16
	.cfi_offset %rbp, -16
	movq	%rsp, %rbp
	.cfi_def_cfa_register %rbp
	pushq	%r15
	pushq	%r14
	pushq	%r13
	pushq	%r12
	pushq	%rbx
	subq	$120, %rsp
	.cfi_offset %rbx, -56
	.cfi_offset %r12, -48
	.cfi_offset %r13, -40
	.cfi_offset %r14, -32
	.cfi_offset %r15, -24
	movq	%rdi, %r9
Ltmp0:
	.loc	2 1599 12 prologue_end
	movq	64(%rsi), %rax
	testq	%rax, %rax
	.loc	2 1599 9 is_stmt 0
	je	LBB0_21
Ltmp1:
	.loc	2 0 9
	movq	%rsi, %r12
Ltmp2:
	.loc	2 1602 13 is_stmt 1
	decq	%rax
	movq	%rax, 64(%rsi)
Ltmp3:
	.file	3 "/rustc/a74d1862d4d87a56244958416fd05976c58ca1a8/src/libcore/option.rs"
	.loc	3 291 13
	movq	8(%rsi), %rax
	testq	%rax, %rax
	cmoveq	%rax, %r12
Ltmp4:
	.loc	3 387 13
	je	LBB0_23
Ltmp5:
	.file	4 "/rustc/a74d1862d4d87a56244958416fd05976c58ca1a8/src/libcore/ptr/mod.rs"
	.loc	4 651 5
	movq	(%r12), %rax
Ltmp6:
	movq	8(%r12), %rdi
Ltmp7:
	movq	16(%r12), %r10
Ltmp8:
	movq	24(%r12), %r13
Ltmp9:
	.file	5 "/rustc/a74d1862d4d87a56244958416fd05976c58ca1a8/src/liballoc/collections/btree/node.rs"
	.loc	5 293 9
	movzwl	10(%rdi), %ecx
Ltmp10:
	.loc	5 814 12
	cmpq	%rcx, %r13
	.loc	5 814 9 is_stmt 0
	jae	LBB0_4
Ltmp11:
	.file	6 "/rustc/a74d1862d4d87a56244958416fd05976c58ca1a8/src/liballoc/collections/btree/navigate.rs"
	.loc	6 0 0
	movq	%rax, %rbx
Ltmp12:
	jmp	LBB0_10
Ltmp13:
LBB0_21:
	.loc	2 1600 13 is_stmt 1
	movq	$0, (%r9)
	jmp	LBB0_22
Ltmp14:
LBB0_4:
	.loc	2 0 13 is_stmt 0
	movq	%r10, -48(%rbp)
Ltmp15:
	movq	%r9, -56(%rbp)
	movl	$544, %r15d
Ltmp16:
	.loc	5 344 30 is_stmt 1
	movq	(%rdi), %r14
Ltmp17:
	.loc	5 345 16
	testq	%r14, %r14
	je	LBB0_6
Ltmp18:
	.p2align	4, 0x90
LBB0_7:
	.loc	5 348 29
	leaq	1(%rax), %rbx
Ltmp19:
	.loc	5 353 43
	movzwl	8(%rdi), %r13d
Ltmp20:
LBB0_8:
	.loc	5 397 16
	testq	%rax, %rax
	.loc	5 397 13 is_stmt 0
	movl	$640, %esi
	cmoveq	%r15, %rsi
Ltmp21:
	.file	7 "/rustc/a74d1862d4d87a56244958416fd05976c58ca1a8/src/liballoc/alloc.rs"
	.loc	7 102 5 is_stmt 1
	movl	$8, %edx
	callq	___rust_dealloc
Ltmp22:
	.loc	5 293 9
	movzwl	10(%r14), %ecx
	movq	%rbx, %rax
	movq	%r14, %rdi
Ltmp23:
	.loc	5 814 12
	cmpq	%rcx, %r13
	.loc	5 814 9 is_stmt 0
	jb	LBB0_9
Ltmp24:
	.loc	5 344 30 is_stmt 1
	movq	(%rdi), %r14
Ltmp25:
	.loc	5 345 16
	testq	%r14, %r14
	jne	LBB0_7
Ltmp26:
LBB0_6:
	.loc	5 0 16 is_stmt 0
	movq	%rax, %rbx
Ltmp27:
	xorl	%r14d, %r14d
Ltmp28:
	jmp	LBB0_8
Ltmp29:
LBB0_9:
	movq	%r14, %rdi
	movq	-56(%rbp), %r9
	movq	-48(%rbp), %r10
Ltmp30:
LBB0_10:
	.loc	5 975 13 is_stmt 1
	leaq	(%r13,%r13,2), %rax
Ltmp31:
	.loc	4 651 5
	movq	32(%rdi,%rax,8), %rcx
	movq	%rcx, -64(%rbp)
	movq	16(%rdi,%rax,8), %rcx
	movq	24(%rdi,%rax,8), %rdx
	movq	%rdx, -72(%rbp)
	movq	%rcx, -80(%rbp)
Ltmp32:
	.loc	4 651 5 is_stmt 0
	movq	296(%rdi,%rax,8), %rcx
	movq	%rcx, -88(%rbp)
	movq	280(%rdi,%rax,8), %rcx
	movq	288(%rdi,%rax,8), %rax
	movq	%rax, -96(%rbp)
	movq	%rcx, -104(%rbp)
Ltmp33:
	.loc	5 680 12 is_stmt 1
	testq	%rbx, %rbx
Ltmp34:
	.loc	6 223 13
	je	LBB0_11
Ltmp35:
	.loc	5 680 12
	movq	%rbx, %rax
Ltmp36:
	.loc	5 963 17
	movq	552(%rdi,%r13,8), %rdi
Ltmp37:
	.loc	5 680 12
	decq	%rax
Ltmp38:
	.loc	6 199 17
	je	LBB0_13
Ltmp39:
	addq	$-2, %rbx
Ltmp40:
	movq	%rax, %rcx
	andq	$7, %rcx
	je	LBB0_18
Ltmp41:
	.loc	6 0 17 is_stmt 0
	xorl	%edx, %edx
Ltmp42:
	.p2align	4, 0x90
LBB0_16:
	movq	544(%rdi), %rdi
Ltmp43:
	.loc	6 199 17
	incq	%rdx
	cmpq	%rdx, %rcx
	jne	LBB0_16
Ltmp44:
	subq	%rdx, %rax
Ltmp45:
LBB0_18:
	.loc	6 0 17
	xorl	%r13d, %r13d
Ltmp46:
	.loc	6 199 17
	cmpq	$7, %rbx
	jb	LBB0_20
Ltmp47:
	.p2align	4, 0x90
LBB0_19:
	.loc	6 0 0
	movq	544(%rdi), %rcx
Ltmp48:
	movq	544(%rcx), %rcx
Ltmp49:
	movq	544(%rcx), %rcx
Ltmp50:
	movq	544(%rcx), %rcx
Ltmp51:
	movq	544(%rcx), %rcx
Ltmp52:
	movq	544(%rcx), %rcx
Ltmp53:
	movq	544(%rcx), %rcx
Ltmp54:
	movq	544(%rcx), %rdi
Ltmp55:
	.loc	5 680 12 is_stmt 1
	addq	$-8, %rax
Ltmp56:
	.loc	6 199 17
	jne	LBB0_19
	jmp	LBB0_20
Ltmp57:
LBB0_11:
	.loc	6 0 17 is_stmt 0
	incq	%r13
Ltmp58:
	jmp	LBB0_20
Ltmp59:
LBB0_13:
	xorl	%r13d, %r13d
Ltmp60:
LBB0_20:
	.loc	6 166 36 is_stmt 1
	movq	-64(%rbp), %r8
	movq	%r8, -136(%rbp)
	movq	-80(%rbp), %rcx
	movq	-72(%rbp), %rdx
	movq	%rdx, -144(%rbp)
	movq	%rcx, -152(%rbp)
	.loc	6 166 35 is_stmt 0
	movq	-104(%rbp), %rsi
	movq	-96(%rbp), %rbx
	movq	%rsi, -128(%rbp)
	movq	%rbx, -120(%rbp)
	movq	-88(%rbp), %rax
	movq	%rax, -112(%rbp)
	.loc	6 166 13
	movq	%rax, 40(%r9)
	movq	%rbx, 32(%r9)
	movq	%rsi, 24(%r9)
	movq	%r8, 16(%r9)
	movq	%rdx, 8(%r9)
	movq	%rcx, (%r9)
Ltmp61:
	.loc	4 836 42 is_stmt 1
	movq	$0, (%r12)
	movq	%rdi, 8(%r12)
	movq	%r10, 16(%r12)
	movq	%r13, 24(%r12)
Ltmp62:
LBB0_22:
	.loc	2 1605 6
	addq	$120, %rsp
	popq	%rbx
	popq	%r12
	popq	%r13
	popq	%r14
	popq	%r15
	popq	%rbp
	retq
LBB0_23:
Ltmp63:
	.file	8 "/rustc/a74d1862d4d87a56244958416fd05976c58ca1a8/src/libcore/macros/mod.rs"
	.loc	8 10 9
	leaq	l___unnamed_20(%rip), %rdi
	leaq	l___unnamed_21(%rip), %rdx
	movl	$43, %esi
	callq	__ZN4core9panicking5panic17h736ee47a631475c0E
Ltmp64:
Lfunc_end0:
	.cfi_endproc
	.file	9 "/rustc/a74d1862d4d87a56244958416fd05976c58ca1a8/src/libcore/result.rs"

	.section	__TEXT,__literal16,16byte_literals
	.p2align	4
LCPI1_0:
	.quad	28
	.quad	28
	.section	__TEXT,__text,regular,pure_instructions
	.p2align	4, 0x90
__ZN3std2io5Write9write_all17h27ab8ef6faa6daf7E:
Lfunc_begin1:
	.file	10 "/rustc/a74d1862d4d87a56244958416fd05976c58ca1a8/src/libstd/io/mod.rs"
	.loc	10 1399 0
	.cfi_startproc
	.cfi_personality 155, _rust_eh_personality
	.cfi_lsda 16, Lexception0
	pushq	%rbp
	.cfi_def_cfa_offset 16
	.cfi_offset %rbp, -16
	movq	%rsp, %rbp
	.cfi_def_cfa_register %rbp
	pushq	%r15
	pushq	%r14
	pushq	%r13
	pushq	%r12
	pushq	%rbx
	subq	$56, %rsp
	.cfi_offset %rbx, -56
	.cfi_offset %r12, -48
	.cfi_offset %r13, -40
	.cfi_offset %r14, -32
	.cfi_offset %r15, -24
	movq	%rdi, -48(%rbp)
Ltmp76:
	.file	11 "/rustc/a74d1862d4d87a56244958416fd05976c58ca1a8/src/libcore/slice/mod.rs"
	.loc	11 88 9 prologue_end
	testq	%rcx, %rcx
Ltmp77:
	.loc	10 1400 9
	je	LBB1_23
Ltmp78:
	.loc	10 0 9 is_stmt 0
	movq	%rcx, %r15
Ltmp79:
	movq	%rdx, %rbx
Ltmp80:
	movq	%rsi, %r12
Ltmp81:
	leaq	-64(%rbp), %r13
Ltmp82:
	leaq	-72(%rbp), %r14
	jmp	LBB1_2
Ltmp83:
	.p2align	4, 0x90
LBB1_21:
	.loc	4 178 1 is_stmt 1
	movq	-56(%rbp), %rdi
Ltmp84:
	.loc	7 102 5
	movl	$24, %esi
	movl	$8, %edx
	callq	___rust_dealloc
Ltmp85:
	.loc	7 0 5 is_stmt 0
	movq	%r14, %r13
	movq	%r12, %r14
	movq	%rbx, %r12
Ltmp86:
	movq	-80(%rbp), %rbx
Ltmp87:
LBB1_22:
	.loc	11 88 9 is_stmt 1
	testq	%r15, %r15
Ltmp88:
	.loc	10 1400 9
	je	LBB1_23
Ltmp89:
LBB1_2:
	.loc	10 1401 19
	movq	%r14, %rdi
	movq	%r12, %rsi
	movq	%rbx, %rdx
	movq	%r15, %rcx
	callq	__ZN59_$LT$std..process..ChildStdin$u20$as$u20$std..io..Write$GT$5write17h1bac9a206e5e2d39E
	.loc	10 1402 17
	cmpq	$1, -72(%rbp)
	jne	LBB1_3
Ltmp90:
Ltmp70:
	.loc	10 1406 31
	movq	%r13, %rdi
	callq	__ZN3std2io5error5Error4kind17ha6420639421e330eE
Ltmp71:
Ltmp91:
	.file	12 "/rustc/a74d1862d4d87a56244958416fd05976c58ca1a8/src/libstd/io/error.rs"
	.loc	12 87 45
	cmpb	$15, %al
Ltmp92:
	.loc	10 1406 31
	jne	LBB1_15
Ltmp93:
	.loc	4 178 1
	cmpq	$0, -72(%rbp)
	je	LBB1_22
Ltmp94:
	cmpb	$2, -64(%rbp)
	jb	LBB1_22
Ltmp95:
	.loc	4 0 1 is_stmt 0
	movq	%rbx, -80(%rbp)
Ltmp96:
	movq	%r12, %rbx
Ltmp97:
	movq	%r14, %r12
	movq	%r13, %r14
Ltmp98:
	.loc	4 178 1
	movq	-56(%rbp), %r13
Ltmp99:
	.loc	4 178 1
	movq	(%r13), %rdi
	movq	8(%r13), %rax
Ltmp73:
	callq	*(%rax)
Ltmp74:
Ltmp100:
	movq	8(%r13), %rax
Ltmp101:
	.loc	7 282 16 is_stmt 1
	movq	8(%rax), %rsi
Ltmp102:
	.loc	7 185 12
	testq	%rsi, %rsi
	.loc	7 185 9 is_stmt 0
	je	LBB1_21
Ltmp103:
	.loc	4 178 1 is_stmt 1
	movq	(%r13), %rdi
Ltmp104:
	.loc	7 283 17
	movq	16(%rax), %rdx
Ltmp105:
	.loc	7 102 5
	callq	___rust_dealloc
Ltmp106:
	.loc	7 0 5 is_stmt 0
	jmp	LBB1_21
Ltmp107:
	.p2align	4, 0x90
LBB1_3:
	.loc	10 1402 20 is_stmt 1
	movq	-64(%rbp), %rdi
Ltmp108:
	testq	%rdi, %rdi
	je	LBB1_4
Ltmp109:
	.loc	11 2916 12
	movq	%r15, %rax
	subq	%rdi, %rax
	.loc	11 2916 9 is_stmt 0
	jb	LBB1_10
Ltmp110:
	.file	13 "/rustc/a74d1862d4d87a56244958416fd05976c58ca1a8/src/libcore/ptr/const_ptr.rs"
	.loc	13 158 9 is_stmt 1
	addq	%rdi, %rbx
Ltmp111:
	.loc	13 0 9 is_stmt 0
	movq	%rax, %r15
Ltmp112:
	.loc	11 88 9 is_stmt 1
	testq	%r15, %r15
Ltmp113:
	.loc	10 1400 9
	jne	LBB1_2
Ltmp114:
LBB1_23:
	.loc	10 0 9 is_stmt 0
	movq	-48(%rbp), %rax
	.loc	10 1410 9 is_stmt 1
	movb	$3, (%rax)
	jmp	LBB1_24
LBB1_4:
Ltmp115:
	.loc	7 80 5
	movl	$28, %edi
	movl	$1, %esi
	callq	___rust_alloc
Ltmp116:
	.loc	9 852 13
	testq	%rax, %rax
	je	LBB1_29
Ltmp117:
	.file	14 "/rustc/a74d1862d4d87a56244958416fd05976c58ca1a8/src/liballoc/slice.rs"
	.loc	14 0 0 is_stmt 0
	movq	%rax, %rbx
Ltmp118:
	.file	15 "/rustc/a74d1862d4d87a56244958416fd05976c58ca1a8/src/libcore/intrinsics.rs"
	.loc	15 2058 5 is_stmt 1
	movl	l___unnamed_22+24(%rip), %eax
	movl	%eax, 24(%rbx)
	movq	l___unnamed_22+16(%rip), %rax
	movq	%rax, 16(%rbx)
	movq	l___unnamed_22+8(%rip), %rax
	movq	%rax, 8(%rbx)
	movq	l___unnamed_22(%rip), %rax
	movq	%rax, (%rbx)
Ltmp119:
	.loc	7 80 5
	movl	$24, %edi
	movl	$8, %esi
	callq	___rust_alloc
Ltmp120:
	.loc	7 269 9
	testq	%rax, %rax
	je	LBB1_30
Ltmp121:
	.file	16 "/rustc/a74d1862d4d87a56244958416fd05976c58ca1a8/src/liballoc/boxed.rs"
	.loc	16 174 13
	movq	%rbx, (%rax)
	movaps	LCPI1_0(%rip), %xmm0
	movups	%xmm0, 8(%rax)
Ltmp122:
Ltmp67:
	.loc	12 251 9
	leaq	l___unnamed_1(%rip), %rcx
	leaq	-96(%rbp), %rdi
	movl	$14, %esi
	movq	%rax, %rdx
	callq	__ZN3std2io5error5Error4_new17h7c6c803135aa1561E
Ltmp68:
Ltmp123:
	.loc	10 1403 28
	movq	-96(%rbp), %rax
	movq	-88(%rbp), %rcx
	jmp	LBB1_8
Ltmp124:
LBB1_15:
	.loc	10 1407 38
	movq	(%r13), %rax
	movq	8(%r13), %rcx
Ltmp125:
LBB1_8:
	.loc	10 0 38 is_stmt 0
	movq	-48(%rbp), %rdx
	movq	%rcx, 8(%rdx)
	movq	%rax, (%rdx)
Ltmp126:
LBB1_24:
	.loc	10 1411 6 is_stmt 1
	addq	$56, %rsp
	popq	%rbx
	popq	%r12
	popq	%r13
	popq	%r14
	popq	%r15
	popq	%rbp
	retq
LBB1_10:
Ltmp127:
Ltmp65:
	.loc	11 2917 13
	leaq	l___unnamed_23(%rip), %rdx
	movq	%r15, %rsi
	callq	__ZN4core5slice22slice_index_order_fail17h85b430a3a039f0a8E
Ltmp128:
Ltmp66:
	ud2
Ltmp129:
LBB1_29:
	.loc	9 853 23
	movl	$28, %edi
	movl	$1, %esi
	callq	__ZN5alloc7raw_vec19RawVec$LT$T$C$A$GT$11allocate_in28_$u7b$$u7b$closure$u7d$$u7d$17h6b1f83c4246c6b24E
Ltmp130:
LBB1_30:
	.loc	7 270 19
	movl	$24, %edi
	movl	$8, %esi
	callq	__ZN5alloc5alloc18handle_alloc_error17hbc0ab0ed90816c07E
Ltmp131:
LBB1_26:
Ltmp69:
	.loc	7 0 19 is_stmt 0
	jmp	LBB1_27
Ltmp132:
LBB1_31:
Ltmp75:
	movq	%rax, %rbx
Ltmp133:
	.loc	4 178 1 is_stmt 1
	movq	(%r13), %rdi
	movq	8(%r13), %rsi
	callq	__ZN5alloc5alloc8box_free17h570c11c07547ba82E
Ltmp134:
	.loc	4 178 1 is_stmt 0
	movq	-56(%rbp), %rdi
	callq	__ZN5alloc5alloc8box_free17h22e07d1867015e95E
	movq	%rbx, %rdi
	callq	__Unwind_Resume
	ud2
Ltmp135:
LBB1_25:
Ltmp72:
LBB1_27:
	.loc	4 0 1
	movq	%rax, %rbx
	leaq	-72(%rbp), %rdi
	.loc	10 1409 9 is_stmt 1
	callq	__ZN4core3ptr13drop_in_place17h936a397b5385ad83E
	movq	%rbx, %rdi
	callq	__Unwind_Resume
	ud2
Ltmp136:
Lfunc_end1:
	.cfi_endproc
	.file	17 "/rustc/a74d1862d4d87a56244958416fd05976c58ca1a8/src/liballoc/raw_vec.rs"
	.file	18 "/rustc/a74d1862d4d87a56244958416fd05976c58ca1a8/src/liballoc/vec.rs"
	.file	19 "/rustc/a74d1862d4d87a56244958416fd05976c58ca1a8/src/liballoc/str.rs"
	.file	20 "/rustc/a74d1862d4d87a56244958416fd05976c58ca1a8/src/liballoc/string.rs"
	.file	21 "/rustc/a74d1862d4d87a56244958416fd05976c58ca1a8/src/libstd/error.rs"
	.file	22 "/rustc/a74d1862d4d87a56244958416fd05976c58ca1a8/src/libcore/convert/mod.rs"
	.section	__TEXT,__gcc_except_tab
	.p2align	2
GCC_except_table1:
Lexception0:
	.byte	255
	.byte	255
	.byte	1
	.uleb128 Lcst_end0-Lcst_begin0
Lcst_begin0:
	.uleb128 Lfunc_begin1-Lfunc_begin1
	.uleb128 Ltmp70-Lfunc_begin1
	.byte	0
	.byte	0
	.uleb128 Ltmp70-Lfunc_begin1
	.uleb128 Ltmp71-Ltmp70
	.uleb128 Ltmp72-Lfunc_begin1
	.byte	0
	.uleb128 Ltmp73-Lfunc_begin1
	.uleb128 Ltmp74-Ltmp73
	.uleb128 Ltmp75-Lfunc_begin1
	.byte	0
	.uleb128 Ltmp67-Lfunc_begin1
	.uleb128 Ltmp66-Ltmp67
	.uleb128 Ltmp69-Lfunc_begin1
	.byte	0
	.uleb128 Ltmp66-Lfunc_begin1
	.uleb128 Lfunc_end1-Ltmp66
	.byte	0
	.byte	0
Lcst_end0:
	.p2align	2

	.section	__TEXT,__text,regular,pure_instructions
	.p2align	4, 0x90
__ZN3std5error5Error5cause17h1164137d05b58c47E:
Lfunc_begin2:
	.loc	21 149 0
	.cfi_startproc
	pushq	%rbp
	.cfi_def_cfa_offset 16
	.cfi_offset %rbp, -16
	movq	%rsp, %rbp
	.cfi_def_cfa_register %rbp
Ltmp137:
	.loc	21 151 6 prologue_end
	xorl	%eax, %eax
	popq	%rbp
	retq
Ltmp138:
Lfunc_end2:
	.cfi_endproc

	.p2align	4, 0x90
__ZN3std5error5Error5cause17he68f4cee5cdda8cfE:
Lfunc_begin3:
	.loc	21 149 0
	.cfi_startproc
	pushq	%rbp
	.cfi_def_cfa_offset 16
	.cfi_offset %rbp, -16
	movq	%rsp, %rbp
	.cfi_def_cfa_register %rbp
Ltmp139:
	.loc	21 151 6 prologue_end
	xorl	%eax, %eax
	popq	%rbp
	retq
Ltmp140:
Lfunc_end3:
	.cfi_endproc

	.p2align	4, 0x90
__ZN3std5error5Error5cause17heb49d5df3be108d9E:
Lfunc_begin4:
	.loc	21 149 0
	.cfi_startproc
	pushq	%rbp
	.cfi_def_cfa_offset 16
	.cfi_offset %rbp, -16
	movq	%rsp, %rbp
	.cfi_def_cfa_register %rbp
Ltmp141:
	.loc	21 151 6 prologue_end
	xorl	%eax, %eax
	popq	%rbp
	retq
Ltmp142:
Lfunc_end4:
	.cfi_endproc

	.p2align	4, 0x90
__ZN3std5error5Error7type_id17h13063e248e6ddb12E:
Lfunc_begin5:
	.loc	21 110 0
	.cfi_startproc
	pushq	%rbp
	.cfi_def_cfa_offset 16
	.cfi_offset %rbp, -16
	movq	%rsp, %rbp
	.cfi_def_cfa_register %rbp
	movabsq	$2636681851839236296, %rax
Ltmp143:
	.loc	21 115 6 prologue_end
	popq	%rbp
	retq
Ltmp144:
Lfunc_end5:
	.cfi_endproc

	.p2align	4, 0x90
__ZN3std5error5Error7type_id17h32e04ce32fa133b8E:
Lfunc_begin6:
	.loc	21 110 0
	.cfi_startproc
	pushq	%rbp
	.cfi_def_cfa_offset 16
	.cfi_offset %rbp, -16
	movq	%rsp, %rbp
	.cfi_def_cfa_register %rbp
	movabsq	$8488455371893940907, %rax
Ltmp145:
	.loc	21 115 6 prologue_end
	popq	%rbp
	retq
Ltmp146:
Lfunc_end6:
	.cfi_endproc

	.p2align	4, 0x90
__ZN3std5error5Error7type_id17h83b4f568a4fdccdcE:
Lfunc_begin7:
	.loc	21 110 0
	.cfi_startproc
	pushq	%rbp
	.cfi_def_cfa_offset 16
	.cfi_offset %rbp, -16
	movq	%rsp, %rbp
	.cfi_def_cfa_register %rbp
	movabsq	$2376535997521683092, %rax
Ltmp147:
	.loc	21 115 6 prologue_end
	popq	%rbp
	retq
Ltmp148:
Lfunc_end7:
	.cfi_endproc

	.p2align	4, 0x90
__ZN3std5error5Error7type_id17h84fde0d28459fc22E:
Lfunc_begin8:
	.loc	21 110 0
	.cfi_startproc
	pushq	%rbp
	.cfi_def_cfa_offset 16
	.cfi_offset %rbp, -16
	movq	%rsp, %rbp
	.cfi_def_cfa_register %rbp
	movabsq	$-9190556156156697329, %rax
Ltmp149:
	.loc	21 115 6 prologue_end
	popq	%rbp
	retq
Ltmp150:
Lfunc_end8:
	.cfi_endproc

	.p2align	4, 0x90
__ZN3std5error5Error9backtrace17h32326f344aecb4f3E:
Lfunc_begin9:
	.loc	21 127 0
	.cfi_startproc
	pushq	%rbp
	.cfi_def_cfa_offset 16
	.cfi_offset %rbp, -16
	movq	%rsp, %rbp
	.cfi_def_cfa_register %rbp
Ltmp151:
	.loc	21 129 6 prologue_end
	xorl	%eax, %eax
	popq	%rbp
	retq
Ltmp152:
Lfunc_end9:
	.cfi_endproc

	.p2align	4, 0x90
__ZN3std5error5Error9backtrace17h3e03a11703c283c5E:
Lfunc_begin10:
	.loc	21 127 0
	.cfi_startproc
	pushq	%rbp
	.cfi_def_cfa_offset 16
	.cfi_offset %rbp, -16
	movq	%rsp, %rbp
	.cfi_def_cfa_register %rbp
Ltmp153:
	.loc	21 129 6 prologue_end
	xorl	%eax, %eax
	popq	%rbp
	retq
Ltmp154:
Lfunc_end10:
	.cfi_endproc

	.p2align	4, 0x90
__ZN3std5error5Error9backtrace17he597756858bfcbe7E:
Lfunc_begin11:
	.loc	21 127 0
	.cfi_startproc
	pushq	%rbp
	.cfi_def_cfa_offset 16
	.cfi_offset %rbp, -16
	movq	%rsp, %rbp
	.cfi_def_cfa_register %rbp
Ltmp155:
	.loc	21 129 6 prologue_end
	xorl	%eax, %eax
	popq	%rbp
	retq
Ltmp156:
Lfunc_end11:
	.cfi_endproc

	.p2align	4, 0x90
__ZN42_$LT$$RF$T$u20$as$u20$core..fmt..Debug$GT$3fmt17h049486178b88a292E:
Lfunc_begin12:
	.file	23 "/rustc/a74d1862d4d87a56244958416fd05976c58ca1a8/src/libcore/fmt/mod.rs"
	.loc	23 1973 0
	.cfi_startproc
	pushq	%rbp
	.cfi_def_cfa_offset 16
	.cfi_offset %rbp, -16
	movq	%rsp, %rbp
	.cfi_def_cfa_register %rbp
Ltmp157:
	pushq	%r14
	pushq	%rbx
	subq	$32, %rsp
	.cfi_offset %rbx, -32
	.cfi_offset %r14, -24
	.loc	23 1973 71 prologue_end
	movq	(%rdi), %rbx
Ltmp158:
	.loc	3 151 48
	cmpq	$0, (%rbx)
	je	LBB12_2
Ltmp159:
	.loc	3 0 48 is_stmt 0
	leaq	-48(%rbp), %r14
Ltmp160:
	.loc	3 151 48
	leaq	L___unnamed_24(%rip), %rdx
	movl	$4, %ecx
	movq	%r14, %rdi
Ltmp161:
	callq	__ZN4core3fmt9Formatter11debug_tuple17h15ca25ad759edd1cE
Ltmp162:
	.loc	3 160 56 is_stmt 1
	movq	%rbx, -24(%rbp)
	.loc	3 151 48
	leaq	l___unnamed_5(%rip), %rdx
	leaq	-24(%rbp), %rsi
	movq	%r14, %rdi
	callq	__ZN4core3fmt8builders10DebugTuple5field17hf36121153a94f236E
	jmp	LBB12_3
Ltmp163:
LBB12_2:
	.loc	3 0 48 is_stmt 0
	leaq	-48(%rbp), %r14
Ltmp164:
	.loc	3 151 48
	leaq	L___unnamed_25(%rip), %rdx
	movl	$4, %ecx
	movq	%r14, %rdi
Ltmp165:
	callq	__ZN4core3fmt9Formatter11debug_tuple17h15ca25ad759edd1cE
Ltmp166:
LBB12_3:
	.loc	3 0 0
	movq	%r14, %rdi
	callq	__ZN4core3fmt8builders10DebugTuple6finish17h68acf09c6f6593f2E
Ltmp167:
	.loc	23 1973 84 is_stmt 1
	addq	$32, %rsp
	popq	%rbx
Ltmp168:
	popq	%r14
	popq	%rbp
	retq
Ltmp169:
Lfunc_end12:
	.cfi_endproc

	.p2align	4, 0x90
__ZN42_$LT$$RF$T$u20$as$u20$core..fmt..Debug$GT$3fmt17h299bba74765bce82E:
Lfunc_begin13:
	.loc	23 1973 0
	.cfi_startproc
	pushq	%rbp
	.cfi_def_cfa_offset 16
	.cfi_offset %rbp, -16
	movq	%rsp, %rbp
	.cfi_def_cfa_register %rbp
Ltmp170:
	.loc	23 1973 71 prologue_end
	movq	(%rdi), %rdi
Ltmp171:
	.loc	23 1973 62 is_stmt 0
	popq	%rbp
	jmp	__ZN62_$LT$autocfg..error..ErrorKind$u20$as$u20$core..fmt..Debug$GT$3fmt17h05fe8c13d6c5c813E
Ltmp172:
Lfunc_end13:
	.cfi_endproc

	.p2align	4, 0x90
__ZN42_$LT$$RF$T$u20$as$u20$core..fmt..Debug$GT$3fmt17h32329117b37b4cc0E:
Lfunc_begin14:
	.loc	23 1973 0 is_stmt 1
	.cfi_startproc
	pushq	%rbp
	.cfi_def_cfa_offset 16
	.cfi_offset %rbp, -16
	movq	%rsp, %rbp
	.cfi_def_cfa_register %rbp
Ltmp173:
	pushq	%r15
	pushq	%r14
	pushq	%r12
	pushq	%rbx
	subq	$32, %rsp
	.cfi_offset %rbx, -48
	.cfi_offset %r12, -40
	.cfi_offset %r14, -32
	.cfi_offset %r15, -24
	.loc	23 1973 71 prologue_end
	movq	(%rdi), %rbx
Ltmp174:
	.file	24 "/Users/yingyuhang/.cargo/registry/src/github.com-1ecc6299db9ec823/autocfg-1.0.0/src/version.rs"
	.loc	24 8 17
	leaq	l___unnamed_26(%rip), %rdx
	leaq	-56(%rbp), %r15
	movl	$7, %ecx
	movq	%r15, %rdi
Ltmp175:
	callq	__ZN4core3fmt9Formatter12debug_struct17h985c0158d1fc7193E
Ltmp176:
	.loc	24 10 5
	movq	%rbx, -40(%rbp)
Ltmp177:
	.loc	24 11 5
	leaq	8(%rbx), %r12
	.loc	24 12 5
	addq	$16, %rbx
Ltmp178:
	.loc	24 8 17
	leaq	l___unnamed_27(%rip), %rsi
	leaq	l___unnamed_14(%rip), %r14
	leaq	-40(%rbp), %rcx
	movl	$5, %edx
	movq	%r15, %rdi
	movq	%r14, %r8
	callq	__ZN4core3fmt8builders11DebugStruct5field17h9c15dc155278eed2E
	.loc	24 11 5
	movq	%r12, -40(%rbp)
	.loc	24 8 17
	leaq	l___unnamed_28(%rip), %rsi
	leaq	-40(%rbp), %rcx
	movl	$5, %edx
	movq	%r15, %rdi
	movq	%r14, %r8
	callq	__ZN4core3fmt8builders11DebugStruct5field17h9c15dc155278eed2E
	.loc	24 12 5
	movq	%rbx, -40(%rbp)
	.loc	24 8 17
	leaq	l___unnamed_29(%rip), %rsi
	leaq	-40(%rbp), %rcx
	movl	$5, %edx
	movq	%r15, %rdi
	movq	%r14, %r8
	callq	__ZN4core3fmt8builders11DebugStruct5field17h9c15dc155278eed2E
	movq	%r15, %rdi
	callq	__ZN4core3fmt8builders11DebugStruct6finish17h26808393f3fed630E
Ltmp179:
	.loc	23 1973 84
	addq	$32, %rsp
	popq	%rbx
	popq	%r12
	popq	%r14
	popq	%r15
	popq	%rbp
	retq
Ltmp180:
Lfunc_end14:
	.cfi_endproc

	.p2align	4, 0x90
__ZN42_$LT$$RF$T$u20$as$u20$core..fmt..Debug$GT$3fmt17h4b61f48bf571cb4dE:
Lfunc_begin15:
	.loc	23 1973 0
	.cfi_startproc
	pushq	%rbp
	.cfi_def_cfa_offset 16
	.cfi_offset %rbp, -16
	movq	%rsp, %rbp
	.cfi_def_cfa_register %rbp
	pushq	%r14
	pushq	%rbx
	.cfi_offset %rbx, -32
	.cfi_offset %r14, -24
	movq	%rsi, %rbx
Ltmp181:
	.loc	23 1973 71 prologue_end
	movq	(%rdi), %r14
Ltmp182:
	.file	25 "/rustc/a74d1862d4d87a56244958416fd05976c58ca1a8/src/libcore/fmt/num.rs"
	.loc	25 149 20
	movq	%rsi, %rdi
Ltmp183:
	callq	__ZN4core3fmt9Formatter15debug_lower_hex17h8530fbaeba13f4d9E
	.loc	25 149 17 is_stmt 0
	testb	%al, %al
	je	LBB15_1
Ltmp184:
	.loc	25 150 21 is_stmt 1
	movq	%r14, %rdi
	movq	%rbx, %rsi
	popq	%rbx
Ltmp185:
	popq	%r14
Ltmp186:
	popq	%rbp
	jmp	__ZN4core3fmt3num55_$LT$impl$u20$core..fmt..LowerHex$u20$for$u20$usize$GT$3fmt17hbf7dc8c1d7fa021dE
LBB15_1:
Ltmp187:
	.loc	25 151 27
	movq	%rbx, %rdi
	callq	__ZN4core3fmt9Formatter15debug_upper_hex17hf8fda15ec43a1e68E
	.loc	25 154 21
	movq	%r14, %rdi
	movq	%rbx, %rsi
	.loc	25 151 24
	testb	%al, %al
	je	LBB15_4
Ltmp188:
	.loc	25 152 21
	popq	%rbx
Ltmp189:
	popq	%r14
Ltmp190:
	popq	%rbp
	jmp	__ZN4core3fmt3num55_$LT$impl$u20$core..fmt..UpperHex$u20$for$u20$usize$GT$3fmt17hf20a4f369caf234bE
LBB15_4:
Ltmp191:
	.loc	25 154 21
	popq	%rbx
Ltmp192:
	popq	%r14
Ltmp193:
	popq	%rbp
	jmp	__ZN4core3fmt3num3imp54_$LT$impl$u20$core..fmt..Display$u20$for$u20$usize$GT$3fmt17h89ce3155a90f2edfE
Ltmp194:
Lfunc_end15:
	.cfi_endproc

	.p2align	4, 0x90
__ZN42_$LT$$RF$T$u20$as$u20$core..fmt..Debug$GT$3fmt17h577843475c8e9fa0E:
Lfunc_begin16:
	.loc	23 1973 0
	.cfi_startproc
	pushq	%rbp
	.cfi_def_cfa_offset 16
	.cfi_offset %rbp, -16
	movq	%rsp, %rbp
	.cfi_def_cfa_register %rbp
Ltmp195:
	.loc	23 1973 71 prologue_end
	movq	(%rdi), %rdi
Ltmp196:
	.loc	23 1973 62 is_stmt 0
	popq	%rbp
	jmp	__ZN57_$LT$core..str..Utf8Error$u20$as$u20$core..fmt..Debug$GT$3fmt17h1ecfb3cce2e619e0E
Ltmp197:
Lfunc_end16:
	.cfi_endproc

	.p2align	4, 0x90
__ZN42_$LT$$RF$T$u20$as$u20$core..fmt..Debug$GT$3fmt17h63f50e29d033e0a8E:
Lfunc_begin17:
	.loc	23 1973 0 is_stmt 1
	.cfi_startproc
	pushq	%rbp
	.cfi_def_cfa_offset 16
	.cfi_offset %rbp, -16
	movq	%rsp, %rbp
	.cfi_def_cfa_register %rbp
Ltmp198:
	.loc	23 1973 71 prologue_end
	movq	(%rdi), %rdi
Ltmp199:
	.loc	23 1973 62 is_stmt 0
	popq	%rbp
	jmp	__ZN55_$LT$std..path..PathBuf$u20$as$u20$core..fmt..Debug$GT$3fmt17h92c5eba17174a69fE
Ltmp200:
Lfunc_end17:
	.cfi_endproc

	.p2align	4, 0x90
__ZN42_$LT$$RF$T$u20$as$u20$core..fmt..Debug$GT$3fmt17h6dc36352ecdb2ae6E:
Lfunc_begin18:
	.loc	23 1973 0 is_stmt 1
	.cfi_startproc
	pushq	%rbp
	.cfi_def_cfa_offset 16
	.cfi_offset %rbp, -16
	movq	%rsp, %rbp
	.cfi_def_cfa_register %rbp
	movq	%rsi, %rdx
Ltmp201:
	.loc	23 1973 71 prologue_end
	movq	(%rdi), %rax
Ltmp202:
	.loc	18 814 19
	movq	(%rax), %rdi
Ltmp203:
	.loc	18 1966 55
	movq	16(%rax), %rsi
Ltmp204:
	.loc	20 1946 9
	popq	%rbp
	jmp	__ZN40_$LT$str$u20$as$u20$core..fmt..Debug$GT$3fmt17h2760aab2290546fcE
Ltmp205:
Lfunc_end18:
	.cfi_endproc

	.p2align	4, 0x90
__ZN42_$LT$$RF$T$u20$as$u20$core..fmt..Debug$GT$3fmt17ha23a39f5600d4879E:
Lfunc_begin19:
	.loc	23 1973 0
	.cfi_startproc
	pushq	%rbp
	.cfi_def_cfa_offset 16
	.cfi_offset %rbp, -16
	movq	%rsp, %rbp
	.cfi_def_cfa_register %rbp
Ltmp206:
	.loc	23 1973 71 prologue_end
	movq	(%rdi), %rdi
Ltmp207:
	.loc	23 2003 9
	popq	%rbp
	jmp	__ZN43_$LT$bool$u20$as$u20$core..fmt..Display$GT$3fmt17hf36463fa8b480ab4E
Ltmp208:
Lfunc_end19:
	.cfi_endproc

	.p2align	4, 0x90
__ZN42_$LT$$RF$T$u20$as$u20$core..fmt..Debug$GT$3fmt17hb5a46beabb1a68aaE:
Lfunc_begin20:
	.loc	23 1973 0
	.cfi_startproc
	pushq	%rbp
	.cfi_def_cfa_offset 16
	.cfi_offset %rbp, -16
	movq	%rsp, %rbp
	.cfi_def_cfa_register %rbp
Ltmp209:
	.loc	23 1973 71 prologue_end
	movq	(%rdi), %rdi
Ltmp210:
	.loc	23 1973 62 is_stmt 0
	popq	%rbp
	jmp	__ZN63_$LT$std..ffi..os_str..OsString$u20$as$u20$core..fmt..Debug$GT$3fmt17h4501f882522330f8E
Ltmp211:
Lfunc_end20:
	.cfi_endproc

	.p2align	4, 0x90
__ZN42_$LT$$RF$T$u20$as$u20$core..fmt..Debug$GT$3fmt17hc15d54b8f8981e35E:
Lfunc_begin21:
	.loc	23 1973 0 is_stmt 1
	.cfi_startproc
	pushq	%rbp
	.cfi_def_cfa_offset 16
	.cfi_offset %rbp, -16
	movq	%rsp, %rbp
	.cfi_def_cfa_register %rbp
Ltmp212:
	pushq	%r15
	pushq	%r14
	pushq	%r13
	pushq	%r12
	pushq	%rbx
	subq	$24, %rsp
	.cfi_offset %rbx, -56
	.cfi_offset %r12, -48
	.cfi_offset %r13, -40
	.cfi_offset %r14, -32
	.cfi_offset %r15, -24
	.loc	23 1973 71 prologue_end
	movq	(%rdi), %rax
Ltmp213:
	.loc	18 814 19
	movq	(%rax), %r13
Ltmp214:
	.loc	18 1966 55
	movq	16(%rax), %rbx
Ltmp215:
	.loc	18 0 55 is_stmt 0
	leaq	-64(%rbp), %rdi
Ltmp216:
	.loc	23 2162 9 is_stmt 1
	callq	__ZN4core3fmt9Formatter10debug_list17hd054f0986422feb9E
Ltmp217:
	.loc	11 3179 9
	testq	%rbx, %rbx
	.loc	11 3303 21
	je	LBB21_3
Ltmp218:
	shlq	$3, %rbx
Ltmp219:
	leaq	(%rbx,%rbx,2), %rbx
	leaq	l___unnamed_2(%rip), %r14
	leaq	-64(%rbp), %r15
	leaq	-48(%rbp), %r12
Ltmp220:
	.p2align	4, 0x90
LBB21_2:
	.file	26 "/rustc/a74d1862d4d87a56244958416fd05976c58ca1a8/src/libcore/fmt/builders.rs"
	.loc	26 661 22
	movq	%r13, -48(%rbp)
Ltmp221:
	.file	27 "/rustc/a74d1862d4d87a56244958416fd05976c58ca1a8/src/libcore/ptr/non_null.rs"
	.loc	27 90 9
	addq	$24, %r13
Ltmp222:
	.loc	26 662 13
	movq	%r15, %rdi
	movq	%r12, %rsi
	movq	%r14, %rdx
	callq	__ZN4core3fmt8builders9DebugList5entry17h5c0dec54538196dfE
Ltmp223:
	.loc	11 3179 9
	addq	$-24, %rbx
	.loc	11 3303 21
	jne	LBB21_2
Ltmp224:
LBB21_3:
	.loc	11 0 21 is_stmt 0
	leaq	-64(%rbp), %rdi
	.loc	23 2162 9 is_stmt 1
	callq	__ZN4core3fmt8builders9DebugList6finish17h3635bd6af9b1c5a6E
Ltmp225:
	.loc	23 1973 84
	addq	$24, %rsp
	popq	%rbx
	popq	%r12
	popq	%r13
	popq	%r14
	popq	%r15
	popq	%rbp
	retq
Ltmp226:
Lfunc_end21:
	.cfi_endproc

	.p2align	4, 0x90
__ZN42_$LT$$RF$T$u20$as$u20$core..fmt..Debug$GT$3fmt17hcb9a14ecb25d619dE:
Lfunc_begin22:
	.loc	23 1973 0
	.cfi_startproc
	pushq	%rbp
	.cfi_def_cfa_offset 16
	.cfi_offset %rbp, -16
	movq	%rsp, %rbp
	.cfi_def_cfa_register %rbp
Ltmp227:
	.loc	23 1973 71 prologue_end
	movq	(%rdi), %rdi
Ltmp228:
	.loc	23 1973 62 is_stmt 0
	popq	%rbp
	jmp	__ZN61_$LT$core..num..ParseIntError$u20$as$u20$core..fmt..Debug$GT$3fmt17h44c3304f11241241E
Ltmp229:
Lfunc_end22:
	.cfi_endproc

	.p2align	4, 0x90
__ZN42_$LT$$RF$T$u20$as$u20$core..fmt..Debug$GT$3fmt17hd038d3f267c5df2eE:
Lfunc_begin23:
	.loc	23 1973 0 is_stmt 1
	.cfi_startproc
	pushq	%rbp
	.cfi_def_cfa_offset 16
	.cfi_offset %rbp, -16
	movq	%rsp, %rbp
	.cfi_def_cfa_register %rbp
	movq	%rsi, %rdx
Ltmp230:
	.loc	23 1973 71 prologue_end
	movq	(%rdi), %rax
	.loc	23 1973 62 is_stmt 0
	movq	(%rax), %rdi
Ltmp231:
	movq	8(%rax), %rsi
Ltmp232:
	.loc	23 1973 62
	popq	%rbp
	jmp	__ZN40_$LT$str$u20$as$u20$core..fmt..Debug$GT$3fmt17h2760aab2290546fcE
Ltmp233:
Lfunc_end23:
	.cfi_endproc

	.p2align	4, 0x90
__ZN42_$LT$$RF$T$u20$as$u20$core..fmt..Debug$GT$3fmt17he97ee725b724dee4E:
Lfunc_begin24:
	.loc	23 1973 0 is_stmt 1
	.cfi_startproc
	pushq	%rbp
	.cfi_def_cfa_offset 16
	.cfi_offset %rbp, -16
	movq	%rsp, %rbp
	.cfi_def_cfa_register %rbp
Ltmp234:
	pushq	%r14
	pushq	%rbx
	subq	$32, %rsp
	.cfi_offset %rbx, -32
	.cfi_offset %r14, -24
	.loc	23 1973 71 prologue_end
	movq	(%rdi), %rbx
Ltmp235:
	.loc	3 151 48
	cmpq	$0, (%rbx)
	je	LBB24_2
Ltmp236:
	.loc	3 0 48 is_stmt 0
	leaq	-48(%rbp), %r14
Ltmp237:
	.loc	3 151 48
	leaq	L___unnamed_24(%rip), %rdx
	movl	$4, %ecx
	movq	%r14, %rdi
Ltmp238:
	callq	__ZN4core3fmt9Formatter11debug_tuple17h15ca25ad759edd1cE
Ltmp239:
	.loc	3 160 56 is_stmt 1
	movq	%rbx, -24(%rbp)
	.loc	3 151 48
	leaq	l___unnamed_4(%rip), %rdx
	leaq	-24(%rbp), %rsi
	movq	%r14, %rdi
	callq	__ZN4core3fmt8builders10DebugTuple5field17hf36121153a94f236E
	jmp	LBB24_3
Ltmp240:
LBB24_2:
	.loc	3 0 48 is_stmt 0
	leaq	-48(%rbp), %r14
Ltmp241:
	.loc	3 151 48
	leaq	L___unnamed_25(%rip), %rdx
	movl	$4, %ecx
	movq	%r14, %rdi
Ltmp242:
	callq	__ZN4core3fmt9Formatter11debug_tuple17h15ca25ad759edd1cE
Ltmp243:
LBB24_3:
	.loc	3 0 0
	movq	%r14, %rdi
	callq	__ZN4core3fmt8builders10DebugTuple6finish17h68acf09c6f6593f2E
Ltmp244:
	.loc	23 1973 84 is_stmt 1
	addq	$32, %rsp
	popq	%rbx
Ltmp245:
	popq	%r14
	popq	%rbp
	retq
Ltmp246:
Lfunc_end24:
	.cfi_endproc

	.p2align	4, 0x90
__ZN42_$LT$$RF$T$u20$as$u20$core..fmt..Debug$GT$3fmt17hedbf5787e3c9617bE:
Lfunc_begin25:
	.loc	23 1973 0
	.cfi_startproc
	pushq	%rbp
	.cfi_def_cfa_offset 16
	.cfi_offset %rbp, -16
	movq	%rsp, %rbp
	.cfi_def_cfa_register %rbp
Ltmp247:
	.loc	23 1973 71 prologue_end
	movq	(%rdi), %rdi
Ltmp248:
	.loc	23 1973 62 is_stmt 0
	popq	%rbp
	jmp	__ZN58_$LT$std..io..error..Error$u20$as$u20$core..fmt..Debug$GT$3fmt17h3350f3f53e0cee4cE
Ltmp249:
Lfunc_end25:
	.cfi_endproc

	.p2align	4, 0x90
__ZN44_$LT$$RF$T$u20$as$u20$core..fmt..Display$GT$3fmt17h9f1c5d51f801e50fE:
Lfunc_begin26:
	.loc	23 1973 0 is_stmt 1
	.cfi_startproc
	pushq	%rbp
	.cfi_def_cfa_offset 16
	.cfi_offset %rbp, -16
	movq	%rsp, %rbp
	.cfi_def_cfa_register %rbp
	movq	%rsi, %rdx
Ltmp250:
	.loc	23 1973 71 prologue_end
	movq	(%rdi), %rax
	movq	8(%rdi), %rsi
	.loc	23 1973 62 is_stmt 0
	movq	%rax, %rdi
Ltmp251:
	popq	%rbp
	jmp	__ZN42_$LT$str$u20$as$u20$core..fmt..Display$GT$3fmt17hd4dee1c1c4ccf892E
Ltmp252:
Lfunc_end26:
	.cfi_endproc

	.p2align	4, 0x90
__ZN4core3ptr13drop_in_place17h0a02f77108e1b6bcE:
Lfunc_begin27:
	.loc	4 178 0 is_stmt 1
	.cfi_startproc
	pushq	%rbp
	.cfi_def_cfa_offset 16
	.cfi_offset %rbp, -16
	movq	%rsp, %rbp
	.cfi_def_cfa_register %rbp
Ltmp253:
	.loc	4 178 1 prologue_end
	cmpl	$0, (%rdi)
	je	LBB27_1
Ltmp254:
	addq	$4, %rdi
Ltmp255:
	.loc	4 178 1 is_stmt 0
	popq	%rbp
	jmp	__ZN70_$LT$std..sys..unix..fd..FileDesc$u20$as$u20$core..ops..drop..Drop$GT$4drop17hf5fce2bf4d9f8deaE
Ltmp256:
LBB27_1:
	.loc	4 178 1
	popq	%rbp
	retq
Ltmp257:
Lfunc_end27:
	.cfi_endproc

	.p2align	4, 0x90
__ZN4core3ptr13drop_in_place17h0a25e79c86650385E:
Lfunc_begin28:
	.loc	4 178 0 is_stmt 1
	.cfi_startproc
	pushq	%rbp
	.cfi_def_cfa_offset 16
	.cfi_offset %rbp, -16
	movq	%rsp, %rbp
	.cfi_def_cfa_register %rbp
	movq	%rdi, %rax
Ltmp258:
	.loc	4 178 1 prologue_end
	movq	(%rdi), %rdi
Ltmp259:
	.loc	17 532 16
	testq	%rdi, %rdi
Ltmp260:
	.loc	17 200 9
	je	LBB28_2
Ltmp261:
	.loc	4 0 0 is_stmt 0
	movq	8(%rax), %rsi
Ltmp262:
	.loc	17 200 9
	testq	%rsi, %rsi
	je	LBB28_2
Ltmp263:
	.loc	7 102 5 is_stmt 1
	movl	$1, %edx
	popq	%rbp
	jmp	___rust_dealloc
Ltmp264:
LBB28_2:
	.loc	4 178 1
	popq	%rbp
	retq
Ltmp265:
Lfunc_end28:
	.cfi_endproc

	.p2align	4, 0x90
__ZN4core3ptr13drop_in_place17h123ac63efd54abb0E:
Lfunc_begin29:
	.loc	4 178 0
	.cfi_startproc
	pushq	%rbp
	.cfi_def_cfa_offset 16
	.cfi_offset %rbp, -16
	movq	%rsp, %rbp
	.cfi_def_cfa_register %rbp
Ltmp266:
	.loc	4 178 1 prologue_end
	popq	%rbp
	retq
Ltmp267:
Lfunc_end29:
	.cfi_endproc

	.p2align	4, 0x90
__ZN4core3ptr13drop_in_place17h1839f26515c79d1eE:
Lfunc_begin30:
	.loc	4 178 0
	.cfi_startproc
	pushq	%rbp
	.cfi_def_cfa_offset 16
	.cfi_offset %rbp, -16
	movq	%rsp, %rbp
	.cfi_def_cfa_register %rbp
	movq	%rdi, %rax
Ltmp268:
	.loc	4 178 1 prologue_end
	movq	(%rdi), %rdi
Ltmp269:
	testq	%rdi, %rdi
	je	LBB30_2
Ltmp270:
	.loc	4 178 1 is_stmt 0
	movq	8(%rax), %rsi
Ltmp271:
	.loc	17 200 40 is_stmt 1
	testq	%rsi, %rsi
	.loc	17 200 9 is_stmt 0
	je	LBB30_2
Ltmp272:
	.loc	7 102 5 is_stmt 1
	movl	$1, %edx
	popq	%rbp
	jmp	___rust_dealloc
Ltmp273:
LBB30_2:
	.loc	4 178 1
	popq	%rbp
	retq
Ltmp274:
Lfunc_end30:
	.cfi_endproc

	.p2align	4, 0x90
__ZN4core3ptr13drop_in_place17h196180a3c77e49a9E:
Lfunc_begin31:
	.loc	4 178 0
	.cfi_startproc
	pushq	%rbp
	.cfi_def_cfa_offset 16
	.cfi_offset %rbp, -16
	movq	%rsp, %rbp
	.cfi_def_cfa_register %rbp
Ltmp275:
	.loc	17 200 40 prologue_end
	testq	%rsi, %rsi
	.loc	17 200 9 is_stmt 0
	je	LBB31_3
Ltmp276:
	.loc	17 532 16 is_stmt 1
	testq	%rdi, %rdi
Ltmp277:
	je	LBB31_3
Ltmp278:
	.loc	17 0 0 is_stmt 0
	shlq	$4, %rsi
Ltmp279:
	.loc	17 532 16
	je	LBB31_3
Ltmp280:
	.loc	7 102 5 is_stmt 1
	movl	$8, %edx
	popq	%rbp
	jmp	___rust_dealloc
Ltmp281:
LBB31_3:
	.loc	4 178 1
	popq	%rbp
	retq
Ltmp282:
Lfunc_end31:
	.cfi_endproc

	.p2align	4, 0x90
__ZN4core3ptr13drop_in_place17h24ed532e32a39aacE:
Lfunc_begin32:
	.loc	4 178 0
	.cfi_startproc
	.cfi_personality 155, _rust_eh_personality
	.cfi_lsda 16, Lexception1
	pushq	%rbp
	.cfi_def_cfa_offset 16
	.cfi_offset %rbp, -16
	movq	%rsp, %rbp
	.cfi_def_cfa_register %rbp
	pushq	%r14
	pushq	%rbx
	.cfi_offset %rbx, -32
	.cfi_offset %r14, -24
	movq	%rdi, %rbx
Ltmp289:
	.loc	4 178 1 prologue_end
	cmpl	$0, 12(%rdi)
	je	LBB32_2
Ltmp290:
	leaq	16(%rbx), %rdi
Ltmp291:
Ltmp283:
	.loc	4 178 1 is_stmt 0
	callq	__ZN70_$LT$std..sys..unix..fd..FileDesc$u20$as$u20$core..ops..drop..Drop$GT$4drop17hf5fce2bf4d9f8deaE
Ltmp292:
Ltmp284:
LBB32_2:
	.loc	4 178 1
	cmpl	$0, 20(%rbx)
	je	LBB32_3
Ltmp293:
	leaq	24(%rbx), %rdi
Ltmp294:
Ltmp286:
	.loc	4 178 1
	callq	__ZN70_$LT$std..sys..unix..fd..FileDesc$u20$as$u20$core..ops..drop..Drop$GT$4drop17hf5fce2bf4d9f8deaE
Ltmp295:
Ltmp287:
LBB32_3:
	.loc	4 178 1
	cmpl	$0, 28(%rbx)
	je	LBB32_4
Ltmp296:
	addq	$32, %rbx
Ltmp297:
	.loc	4 178 1
	movq	%rbx, %rdi
	popq	%rbx
Ltmp298:
	popq	%r14
	popq	%rbp
	jmp	__ZN70_$LT$std..sys..unix..fd..FileDesc$u20$as$u20$core..ops..drop..Drop$GT$4drop17hf5fce2bf4d9f8deaE
Ltmp299:
LBB32_4:
	.loc	4 178 1
	popq	%rbx
Ltmp300:
	popq	%r14
	popq	%rbp
	retq
LBB32_8:
Ltmp301:
Ltmp288:
	.loc	4 0 1
	movq	%rax, %r14
	jmp	LBB32_7
Ltmp302:
LBB32_6:
Ltmp285:
	movq	%rax, %r14
	.loc	4 178 1
	leaq	20(%rbx), %rdi
	callq	__ZN4core3ptr13drop_in_place17h0a02f77108e1b6bcE
Ltmp303:
LBB32_7:
	addq	$28, %rbx
Ltmp304:
	movq	%rbx, %rdi
	callq	__ZN4core3ptr13drop_in_place17h0a02f77108e1b6bcE
	movq	%r14, %rdi
	callq	__Unwind_Resume
	ud2
Ltmp305:
Lfunc_end32:
	.cfi_endproc
	.section	__TEXT,__gcc_except_tab
	.p2align	2
GCC_except_table32:
Lexception1:
	.byte	255
	.byte	255
	.byte	1
	.uleb128 Lcst_end1-Lcst_begin1
Lcst_begin1:
	.uleb128 Ltmp283-Lfunc_begin32
	.uleb128 Ltmp284-Ltmp283
	.uleb128 Ltmp285-Lfunc_begin32
	.byte	0
	.uleb128 Ltmp286-Lfunc_begin32
	.uleb128 Ltmp287-Ltmp286
	.uleb128 Ltmp288-Lfunc_begin32
	.byte	0
	.uleb128 Ltmp287-Lfunc_begin32
	.uleb128 Lfunc_end32-Ltmp287
	.byte	0
	.byte	0
Lcst_end1:
	.p2align	2

	.section	__TEXT,__text,regular,pure_instructions
	.p2align	4, 0x90
__ZN4core3ptr13drop_in_place17h2726bf41f8faa137E:
Lfunc_begin33:
	.loc	4 178 0 is_stmt 1
	.cfi_startproc
	pushq	%rbp
	.cfi_def_cfa_offset 16
	.cfi_offset %rbp, -16
	movq	%rsp, %rbp
	.cfi_def_cfa_register %rbp
	pushq	%rbx
	pushq	%rax
	.cfi_offset %rbx, -24
	movq	%rdi, %rbx
Ltmp306:
	.loc	4 178 1 prologue_end
	movq	(%rdi), %rdi
Ltmp307:
	.loc	17 532 16
	testq	%rdi, %rdi
Ltmp308:
	.loc	17 200 9
	je	LBB33_3
Ltmp309:
	.loc	4 0 0 is_stmt 0
	movq	8(%rbx), %rsi
Ltmp310:
	.loc	17 200 9
	testq	%rsi, %rsi
	je	LBB33_3
Ltmp311:
	.loc	7 102 5 is_stmt 1
	movl	$1, %edx
	callq	___rust_dealloc
Ltmp312:
LBB33_3:
	.loc	4 178 1
	movq	24(%rbx), %rdi
Ltmp313:
	.loc	17 532 16
	testq	%rdi, %rdi
Ltmp314:
	.loc	17 200 9
	je	LBB33_5
Ltmp315:
	.loc	4 0 0 is_stmt 0
	movq	32(%rbx), %rsi
Ltmp316:
	.loc	17 200 9
	testq	%rsi, %rsi
	je	LBB33_5
Ltmp317:
	.loc	7 102 5 is_stmt 1
	movl	$1, %edx
	addq	$8, %rsp
	popq	%rbx
Ltmp318:
	popq	%rbp
	jmp	___rust_dealloc
Ltmp319:
LBB33_5:
	.loc	4 178 1
	addq	$8, %rsp
	popq	%rbx
Ltmp320:
	popq	%rbp
	retq
Ltmp321:
Lfunc_end33:
	.cfi_endproc

	.p2align	4, 0x90
__ZN4core3ptr13drop_in_place17h560c46e9a18dcd37E:
Lfunc_begin34:
	.loc	4 178 0
	.cfi_startproc
	pushq	%rbp
	.cfi_def_cfa_offset 16
	.cfi_offset %rbp, -16
	movq	%rsp, %rbp
	.cfi_def_cfa_register %rbp
	movq	%rdi, %rax
Ltmp322:
	.loc	4 178 1 prologue_end
	movq	(%rdi), %rdi
Ltmp323:
	.loc	17 532 16
	testq	%rdi, %rdi
Ltmp324:
	.loc	17 200 9
	je	LBB34_2
Ltmp325:
	.loc	4 0 0 is_stmt 0
	movq	8(%rax), %rsi
Ltmp326:
	.loc	17 200 9
	testq	%rsi, %rsi
	je	LBB34_2
Ltmp327:
	.loc	7 102 5 is_stmt 1
	movl	$1, %edx
	popq	%rbp
	jmp	___rust_dealloc
Ltmp328:
LBB34_2:
	.loc	4 178 1
	popq	%rbp
	retq
Ltmp329:
Lfunc_end34:
	.cfi_endproc

	.p2align	4, 0x90
__ZN4core3ptr13drop_in_place17h5966aa2963f14066E:
Lfunc_begin35:
	.loc	4 178 0
	.cfi_startproc
	pushq	%rbp
	.cfi_def_cfa_offset 16
	.cfi_offset %rbp, -16
	movq	%rsp, %rbp
	.cfi_def_cfa_register %rbp
Ltmp330:
	.loc	4 178 1 prologue_end
	cmpl	$3, (%rdi)
	jne	LBB35_1
Ltmp331:
	.loc	4 178 1 is_stmt 0
	addq	$4, %rdi
Ltmp332:
	.loc	4 178 1
	popq	%rbp
	jmp	__ZN70_$LT$std..sys..unix..fd..FileDesc$u20$as$u20$core..ops..drop..Drop$GT$4drop17hf5fce2bf4d9f8deaE
Ltmp333:
LBB35_1:
	.loc	4 178 1
	popq	%rbp
	retq
Ltmp334:
Lfunc_end35:
	.cfi_endproc

	.p2align	4, 0x90
__ZN4core3ptr13drop_in_place17h5c0e4cc9660d5c0dE:
Lfunc_begin36:
	.loc	4 178 0 is_stmt 1
	.cfi_startproc
	.cfi_personality 155, _rust_eh_personality
	.cfi_lsda 16, Lexception2
	pushq	%rbp
	.cfi_def_cfa_offset 16
	.cfi_offset %rbp, -16
	movq	%rsp, %rbp
	.cfi_def_cfa_register %rbp
	pushq	%r15
	pushq	%r14
	pushq	%r13
	pushq	%r12
	pushq	%rbx
	pushq	%rax
	.cfi_offset %rbx, -56
	.cfi_offset %r12, -48
	.cfi_offset %r13, -40
	.cfi_offset %r14, -32
	.cfi_offset %r15, -24
	movq	%rdi, %r14
Ltmp341:
	.loc	18 850 19 prologue_end
	movq	(%rdi), %rbx
Ltmp342:
	.loc	18 2384 81
	movq	16(%rdi), %r12
Ltmp343:
	.loc	4 178 1
	testq	%r12, %r12
	je	LBB36_7
Ltmp344:
	.loc	4 0 0 is_stmt 0
	shlq	$4, %r12
Ltmp345:
	leaq	(%rbx,%r12), %r15
Ltmp346:
	.loc	4 178 1
	addq	$-16, %r12
	addq	$16, %rbx
Ltmp347:
	.loc	4 0 1
	jmp	LBB36_2
Ltmp348:
	.p2align	4, 0x90
LBB36_5:
	.loc	4 178 1
	addq	$-16, %r12
	addq	$16, %rbx
	addq	$16, %r13
	cmpq	%r15, %r13
	je	LBB36_6
Ltmp349:
LBB36_2:
	.loc	4 178 1
	movq	-16(%rbx), %rdi
	movq	-8(%rbx), %rax
Ltmp335:
	callq	*(%rax)
Ltmp336:
Ltmp350:
	leaq	-16(%rbx), %r13
	movq	8(%r13), %rax
Ltmp351:
	.loc	7 282 16 is_stmt 1
	movq	8(%rax), %rsi
Ltmp352:
	.loc	7 185 12
	testq	%rsi, %rsi
	.loc	7 185 9 is_stmt 0
	je	LBB36_5
Ltmp353:
	.loc	4 178 1 is_stmt 1
	movq	-16(%rbx), %rdi
Ltmp354:
	.loc	7 283 17
	movq	16(%rax), %rdx
Ltmp355:
	.loc	7 102 5
	callq	___rust_dealloc
Ltmp356:
	.loc	7 0 5 is_stmt 0
	jmp	LBB36_5
Ltmp357:
LBB36_6:
	.loc	4 178 1 is_stmt 1
	movq	(%r14), %rbx
Ltmp358:
LBB36_7:
	movq	8(%r14), %rsi
Ltmp359:
	.loc	17 200 40
	testq	%rsi, %rsi
	.loc	17 200 9 is_stmt 0
	je	LBB36_14
Ltmp360:
	.loc	17 532 16 is_stmt 1
	testq	%rbx, %rbx
Ltmp361:
	je	LBB36_14
Ltmp362:
	.loc	17 0 0 is_stmt 0
	shlq	$4, %rsi
Ltmp363:
	.loc	17 532 16
	je	LBB36_14
Ltmp364:
	.loc	7 102 5 is_stmt 1
	movl	$8, %edx
	movq	%rbx, %rdi
	addq	$8, %rsp
	popq	%rbx
Ltmp365:
	popq	%r12
	popq	%r13
	popq	%r14
Ltmp366:
	popq	%r15
	popq	%rbp
	jmp	___rust_dealloc
Ltmp367:
LBB36_14:
	.loc	4 178 1
	addq	$8, %rsp
	popq	%rbx
	popq	%r12
	popq	%r13
	popq	%r14
Ltmp368:
	popq	%r15
	popq	%rbp
	retq
LBB36_11:
Ltmp369:
Ltmp337:
	.loc	4 0 1 is_stmt 0
	movq	%rax, %r15
Ltmp370:
	.loc	4 178 1
	movq	-16(%rbx), %rdi
	movq	-8(%rbx), %rsi
	callq	__ZN5alloc5alloc8box_free17h570c11c07547ba82E
Ltmp371:
	.loc	4 178 1
	testq	%r12, %r12
	je	LBB36_16
Ltmp372:
	.p2align	4, 0x90
LBB36_12:
Ltmp338:
	movq	%rbx, %rdi
	callq	__ZN4core3ptr13drop_in_place17h6964806d7690f6c3E
Ltmp339:
Ltmp373:
	addq	$16, %rbx
	addq	$-16, %r12
	jne	LBB36_12
	jmp	LBB36_16
Ltmp374:
LBB36_15:
Ltmp340:
	.loc	4 0 1
	movq	%rax, %r15
Ltmp375:
LBB36_16:
	.loc	4 178 1
	movq	(%r14), %rdi
	movq	8(%r14), %rsi
	callq	__ZN4core3ptr13drop_in_place17h196180a3c77e49a9E
	movq	%r15, %rdi
	callq	__Unwind_Resume
	ud2
Ltmp376:
Lfunc_end36:
	.cfi_endproc
	.section	__TEXT,__gcc_except_tab
	.p2align	2
GCC_except_table36:
Lexception2:
	.byte	255
	.byte	255
	.byte	1
	.uleb128 Lcst_end2-Lcst_begin2
Lcst_begin2:
	.uleb128 Ltmp335-Lfunc_begin36
	.uleb128 Ltmp336-Ltmp335
	.uleb128 Ltmp337-Lfunc_begin36
	.byte	0
	.uleb128 Ltmp338-Lfunc_begin36
	.uleb128 Ltmp339-Ltmp338
	.uleb128 Ltmp340-Lfunc_begin36
	.byte	0
	.uleb128 Ltmp339-Lfunc_begin36
	.uleb128 Lfunc_end36-Ltmp339
	.byte	0
	.byte	0
Lcst_end2:
	.p2align	2

	.section	__TEXT,__text,regular,pure_instructions
	.p2align	4, 0x90
__ZN4core3ptr13drop_in_place17h6964806d7690f6c3E:
Lfunc_begin37:
	.loc	4 178 0 is_stmt 1
	.cfi_startproc
	.cfi_personality 155, _rust_eh_personality
	.cfi_lsda 16, Lexception3
	pushq	%rbp
	.cfi_def_cfa_offset 16
	.cfi_offset %rbp, -16
	movq	%rsp, %rbp
	.cfi_def_cfa_register %rbp
	pushq	%r14
	pushq	%rbx
	.cfi_offset %rbx, -32
	.cfi_offset %r14, -24
	movq	%rdi, %rbx
Ltmp380:
	.loc	4 178 1 prologue_end
	movq	(%rdi), %rdi
	movq	8(%rbx), %rax
Ltmp377:
	callq	*(%rax)
Ltmp378:
Ltmp381:
	movq	8(%rbx), %rax
Ltmp382:
	.loc	7 282 16
	movq	8(%rax), %rsi
Ltmp383:
	.loc	7 185 12
	testq	%rsi, %rsi
	.loc	7 185 9 is_stmt 0
	je	LBB37_2
Ltmp384:
	.loc	4 178 1 is_stmt 1
	movq	(%rbx), %rdi
Ltmp385:
	.loc	7 283 17
	movq	16(%rax), %rdx
Ltmp386:
	.loc	7 102 5
	popq	%rbx
Ltmp387:
	popq	%r14
	popq	%rbp
	jmp	___rust_dealloc
Ltmp388:
LBB37_2:
	.loc	4 178 1
	popq	%rbx
Ltmp389:
	popq	%r14
	popq	%rbp
	retq
LBB37_3:
Ltmp390:
Ltmp379:
	.loc	4 0 1 is_stmt 0
	movq	%rax, %r14
	.loc	4 178 1
	movq	(%rbx), %rdi
	movq	8(%rbx), %rsi
	callq	__ZN5alloc5alloc8box_free17h570c11c07547ba82E
	movq	%r14, %rdi
	callq	__Unwind_Resume
	ud2
Ltmp391:
Lfunc_end37:
	.cfi_endproc
	.section	__TEXT,__gcc_except_tab
	.p2align	2
GCC_except_table37:
Lexception3:
	.byte	255
	.byte	255
	.byte	1
	.uleb128 Lcst_end3-Lcst_begin3
Lcst_begin3:
	.uleb128 Ltmp377-Lfunc_begin37
	.uleb128 Ltmp378-Ltmp377
	.uleb128 Ltmp379-Lfunc_begin37
	.byte	0
	.uleb128 Ltmp378-Lfunc_begin37
	.uleb128 Lfunc_end37-Ltmp378
	.byte	0
	.byte	0
Lcst_end3:
	.p2align	2

	.section	__TEXT,__text,regular,pure_instructions
	.p2align	4, 0x90
__ZN4core3ptr13drop_in_place17h871b20c7c44d5d38E:
Lfunc_begin38:
	.loc	4 178 0 is_stmt 1
	.cfi_startproc
	pushq	%rbp
	.cfi_def_cfa_offset 16
	.cfi_offset %rbp, -16
	movq	%rsp, %rbp
	.cfi_def_cfa_register %rbp
	pushq	%r15
	pushq	%r14
	pushq	%rbx
	pushq	%rax
	.cfi_offset %rbx, -40
	.cfi_offset %r14, -32
	.cfi_offset %r15, -24
	movq	%rdi, %r14
Ltmp392:
	.loc	4 178 1 prologue_end
	movq	(%rdi), %rdi
Ltmp393:
	.loc	17 532 16
	testq	%rdi, %rdi
Ltmp394:
	.loc	17 200 9
	je	LBB38_3
Ltmp395:
	.loc	4 0 0 is_stmt 0
	movq	8(%r14), %rsi
Ltmp396:
	.loc	17 200 9
	testq	%rsi, %rsi
	je	LBB38_3
Ltmp397:
	.loc	7 102 5 is_stmt 1
	movl	$1, %edx
	callq	___rust_dealloc
Ltmp398:
LBB38_3:
	.loc	4 178 1
	movq	24(%r14), %rdi
Ltmp399:
	.loc	17 532 16
	testq	%rdi, %rdi
Ltmp400:
	.loc	17 200 9
	je	LBB38_6
Ltmp401:
	.loc	4 0 0 is_stmt 0
	movq	32(%r14), %rsi
Ltmp402:
	.loc	17 200 9
	testq	%rsi, %rsi
	je	LBB38_6
Ltmp403:
	.loc	7 102 5 is_stmt 1
	movl	$1, %edx
	callq	___rust_dealloc
Ltmp404:
LBB38_6:
	.loc	4 178 1
	movq	72(%r14), %rdi
Ltmp405:
	testq	%rdi, %rdi
	je	LBB38_7
Ltmp406:
	.loc	4 178 1 is_stmt 0
	movq	80(%r14), %rsi
Ltmp407:
	.loc	17 200 40 is_stmt 1
	testq	%rsi, %rsi
	.loc	17 200 9 is_stmt 0
	je	LBB38_7
Ltmp408:
	.loc	7 102 5 is_stmt 1
	movl	$1, %edx
	callq	___rust_dealloc
Ltmp409:
LBB38_7:
	.loc	4 178 1
	movq	96(%r14), %rbx
	testq	%rbx, %rbx
	je	LBB38_18
Ltmp410:
	.loc	18 2384 81
	movq	112(%r14), %rax
Ltmp411:
	.loc	4 178 1
	testq	%rax, %rax
	je	LBB38_15
Ltmp412:
	leaq	(%rax,%rax,2), %rax
Ltmp413:
	leaq	(%rbx,%rax,8), %r15
Ltmp414:
	.loc	4 178 1 is_stmt 0
	movq	(%rbx), %rdi
Ltmp415:
	.loc	17 532 16 is_stmt 1
	testq	%rdi, %rdi
Ltmp416:
	.loc	17 200 9
	jne	LBB38_11
Ltmp417:
	.p2align	4, 0x90
LBB38_13:
	.loc	4 178 1
	addq	$24, %rbx
Ltmp418:
	cmpq	%r15, %rbx
	je	LBB38_14
Ltmp419:
LBB38_10:
	.loc	4 178 1 is_stmt 0
	movq	(%rbx), %rdi
Ltmp420:
	.loc	17 532 16 is_stmt 1
	testq	%rdi, %rdi
Ltmp421:
	.loc	17 200 9
	je	LBB38_13
Ltmp422:
LBB38_11:
	.loc	4 0 0 is_stmt 0
	movq	8(%rbx), %rsi
Ltmp423:
	.loc	17 200 9
	testq	%rsi, %rsi
	je	LBB38_13
Ltmp424:
	.loc	7 102 5 is_stmt 1
	movl	$1, %edx
	callq	___rust_dealloc
Ltmp425:
	.loc	4 178 1
	addq	$24, %rbx
Ltmp426:
	cmpq	%r15, %rbx
	jne	LBB38_10
Ltmp427:
LBB38_14:
	.loc	4 178 1 is_stmt 0
	movq	96(%r14), %rbx
Ltmp428:
LBB38_15:
	movq	104(%r14), %rax
Ltmp429:
	.loc	17 200 40 is_stmt 1
	testq	%rax, %rax
	.loc	17 200 9 is_stmt 0
	je	LBB38_18
Ltmp430:
	.loc	17 532 16 is_stmt 1
	testq	%rbx, %rbx
Ltmp431:
	je	LBB38_18
Ltmp432:
	.loc	17 0 0 is_stmt 0
	shlq	$3, %rax
	leaq	(%rax,%rax,2), %rsi
Ltmp433:
	.loc	17 532 16
	testq	%rsi, %rsi
	je	LBB38_18
Ltmp434:
	.loc	7 102 5 is_stmt 1
	movl	$8, %edx
	movq	%rbx, %rdi
	addq	$8, %rsp
	popq	%rbx
Ltmp435:
	popq	%r14
Ltmp436:
	popq	%r15
	popq	%rbp
	jmp	___rust_dealloc
Ltmp437:
LBB38_18:
	.loc	4 178 1
	addq	$8, %rsp
	popq	%rbx
	popq	%r14
Ltmp438:
	popq	%r15
	popq	%rbp
	retq
Ltmp439:
Lfunc_end38:
	.cfi_endproc

	.p2align	4, 0x90
__ZN4core3ptr13drop_in_place17h886d4250333bfda3E:
Lfunc_begin39:
	.loc	4 178 0
	.cfi_startproc
	pushq	%rbp
	.cfi_def_cfa_offset 16
	.cfi_offset %rbp, -16
	movq	%rsp, %rbp
	.cfi_def_cfa_register %rbp
	pushq	%r15
	pushq	%r14
	pushq	%rbx
	pushq	%rax
	.cfi_offset %rbx, -40
	.cfi_offset %r14, -32
	.cfi_offset %r15, -24
	movq	%rdi, %r14
Ltmp440:
	.loc	18 850 19 prologue_end
	movq	(%rdi), %rbx
Ltmp441:
	.loc	18 2384 81
	movq	16(%rdi), %rax
Ltmp442:
	.loc	4 178 1
	testq	%rax, %rax
	je	LBB39_7
Ltmp443:
	leaq	(%rax,%rax,2), %rax
Ltmp444:
	leaq	(%rbx,%rax,8), %r15
Ltmp445:
	.loc	4 178 1 is_stmt 0
	movq	(%rbx), %rdi
Ltmp446:
	.loc	17 532 16 is_stmt 1
	testq	%rdi, %rdi
Ltmp447:
	.loc	17 200 9
	jne	LBB39_3
Ltmp448:
	.p2align	4, 0x90
LBB39_5:
	.loc	4 178 1
	addq	$24, %rbx
Ltmp449:
	cmpq	%r15, %rbx
	je	LBB39_6
Ltmp450:
LBB39_2:
	.loc	4 178 1 is_stmt 0
	movq	(%rbx), %rdi
Ltmp451:
	.loc	17 532 16 is_stmt 1
	testq	%rdi, %rdi
Ltmp452:
	.loc	17 200 9
	je	LBB39_5
Ltmp453:
LBB39_3:
	.loc	4 0 0 is_stmt 0
	movq	8(%rbx), %rsi
Ltmp454:
	.loc	17 200 9
	testq	%rsi, %rsi
	je	LBB39_5
Ltmp455:
	.loc	7 102 5 is_stmt 1
	movl	$1, %edx
	callq	___rust_dealloc
Ltmp456:
	.loc	4 178 1
	addq	$24, %rbx
Ltmp457:
	cmpq	%r15, %rbx
	jne	LBB39_2
Ltmp458:
LBB39_6:
	.loc	4 178 1 is_stmt 0
	movq	(%r14), %rbx
Ltmp459:
LBB39_7:
	movq	8(%r14), %rax
Ltmp460:
	.loc	17 200 40 is_stmt 1
	testq	%rax, %rax
	.loc	17 200 9 is_stmt 0
	je	LBB39_10
Ltmp461:
	.loc	17 532 16 is_stmt 1
	testq	%rbx, %rbx
Ltmp462:
	je	LBB39_10
Ltmp463:
	.loc	17 0 0 is_stmt 0
	shlq	$3, %rax
	leaq	(%rax,%rax,2), %rsi
Ltmp464:
	.loc	17 532 16
	testq	%rsi, %rsi
	je	LBB39_10
Ltmp465:
	.loc	7 102 5 is_stmt 1
	movl	$8, %edx
	movq	%rbx, %rdi
	addq	$8, %rsp
	popq	%rbx
Ltmp466:
	popq	%r14
Ltmp467:
	popq	%r15
	popq	%rbp
	jmp	___rust_dealloc
Ltmp468:
LBB39_10:
	.loc	4 178 1
	addq	$8, %rsp
	popq	%rbx
	popq	%r14
Ltmp469:
	popq	%r15
	popq	%rbp
	retq
Ltmp470:
Lfunc_end39:
	.cfi_endproc

	.p2align	4, 0x90
__ZN4core3ptr13drop_in_place17h8b15457ebfae4483E:
Lfunc_begin40:
	.loc	4 178 0
	.cfi_startproc
	pushq	%rbp
	.cfi_def_cfa_offset 16
	.cfi_offset %rbp, -16
	movq	%rsp, %rbp
	.cfi_def_cfa_register %rbp
	movq	%rdi, %rax
Ltmp471:
	.loc	4 178 1 prologue_end
	movq	(%rdi), %rdi
Ltmp472:
	.loc	17 532 16
	testq	%rdi, %rdi
Ltmp473:
	.loc	17 200 9
	je	LBB40_2
Ltmp474:
	.loc	4 0 0 is_stmt 0
	movq	8(%rax), %rsi
Ltmp475:
	.loc	17 200 9
	testq	%rsi, %rsi
	je	LBB40_2
Ltmp476:
	.loc	7 102 5 is_stmt 1
	movl	$1, %edx
	popq	%rbp
	jmp	___rust_dealloc
Ltmp477:
LBB40_2:
	.loc	4 178 1
	popq	%rbp
	retq
Ltmp478:
Lfunc_end40:
	.cfi_endproc

	.p2align	4, 0x90
__ZN4core3ptr13drop_in_place17h8d0b26e5c189717eE:
Lfunc_begin41:
	.loc	4 178 0
	.cfi_startproc
	pushq	%rbp
	.cfi_def_cfa_offset 16
	.cfi_offset %rbp, -16
	movq	%rsp, %rbp
	.cfi_def_cfa_register %rbp
Ltmp479:
	.loc	4 178 1 prologue_end
	movq	(%rdi), %rax
Ltmp480:
	testq	%rax, %rax
	je	LBB41_2
Ltmp481:
	.file	28 "/rustc/a74d1862d4d87a56244958416fd05976c58ca1a8/src/libstd/ffi/c_str.rs"
	.loc	28 645 13
	movb	$0, (%rax)
Ltmp482:
	.loc	4 178 1
	movq	8(%rdi), %rsi
Ltmp483:
	.loc	7 185 12
	testq	%rsi, %rsi
	.loc	7 185 9 is_stmt 0
	je	LBB41_2
Ltmp484:
	.loc	4 178 1 is_stmt 1
	movq	(%rdi), %rdi
Ltmp485:
	.loc	7 102 5
	movl	$1, %edx
	popq	%rbp
	jmp	___rust_dealloc
Ltmp486:
LBB41_2:
	.loc	4 178 1
	popq	%rbp
	retq
Ltmp487:
Lfunc_end41:
	.cfi_endproc

	.p2align	4, 0x90
__ZN4core3ptr13drop_in_place17h8e346de06f6d7642E:
Lfunc_begin42:
	.loc	4 178 0
	.cfi_startproc
	pushq	%rbp
	.cfi_def_cfa_offset 16
	.cfi_offset %rbp, -16
	movq	%rsp, %rbp
	.cfi_def_cfa_register %rbp
Ltmp488:
	pushq	%r15
	pushq	%r14
	pushq	%rbx
	pushq	%rax
	.cfi_offset %rbx, -40
	.cfi_offset %r14, -32
	.cfi_offset %r15, -24
	.loc	4 178 1 prologue_end
	movq	(%rdi), %rbx
	testq	%rbx, %rbx
	je	LBB42_11
Ltmp489:
	.loc	4 0 1 is_stmt 0
	movq	%rdi, %r14
Ltmp490:
	.loc	18 2384 81 is_stmt 1
	movq	16(%rdi), %rax
Ltmp491:
	.loc	4 178 1
	testq	%rax, %rax
	je	LBB42_8
Ltmp492:
	leaq	(%rax,%rax,2), %rax
Ltmp493:
	leaq	(%rbx,%rax,8), %r15
Ltmp494:
	.loc	4 178 1 is_stmt 0
	movq	(%rbx), %rdi
Ltmp495:
	.loc	17 532 16 is_stmt 1
	testq	%rdi, %rdi
Ltmp496:
	.loc	17 200 9
	jne	LBB42_4
Ltmp497:
	.p2align	4, 0x90
LBB42_6:
	.loc	4 178 1
	addq	$24, %rbx
Ltmp498:
	cmpq	%r15, %rbx
	je	LBB42_7
Ltmp499:
LBB42_3:
	.loc	4 178 1 is_stmt 0
	movq	(%rbx), %rdi
Ltmp500:
	.loc	17 532 16 is_stmt 1
	testq	%rdi, %rdi
Ltmp501:
	.loc	17 200 9
	je	LBB42_6
Ltmp502:
LBB42_4:
	.loc	4 0 0 is_stmt 0
	movq	8(%rbx), %rsi
Ltmp503:
	.loc	17 200 9
	testq	%rsi, %rsi
	je	LBB42_6
Ltmp504:
	.loc	7 102 5 is_stmt 1
	movl	$1, %edx
	callq	___rust_dealloc
Ltmp505:
	.loc	4 178 1
	addq	$24, %rbx
Ltmp506:
	cmpq	%r15, %rbx
	jne	LBB42_3
Ltmp507:
LBB42_7:
	.loc	4 178 1 is_stmt 0
	movq	(%r14), %rbx
Ltmp508:
LBB42_8:
	movq	8(%r14), %rax
Ltmp509:
	.loc	17 200 40 is_stmt 1
	testq	%rax, %rax
	.loc	17 200 9 is_stmt 0
	je	LBB42_11
Ltmp510:
	.loc	17 532 16 is_stmt 1
	testq	%rbx, %rbx
Ltmp511:
	je	LBB42_11
Ltmp512:
	.loc	17 0 0 is_stmt 0
	shlq	$3, %rax
	leaq	(%rax,%rax,2), %rsi
Ltmp513:
	.loc	17 532 16
	testq	%rsi, %rsi
	je	LBB42_11
Ltmp514:
	.loc	7 102 5 is_stmt 1
	movl	$8, %edx
	movq	%rbx, %rdi
	addq	$8, %rsp
	popq	%rbx
Ltmp515:
	popq	%r14
Ltmp516:
	popq	%r15
	popq	%rbp
	jmp	___rust_dealloc
Ltmp517:
LBB42_11:
	.loc	4 178 1
	addq	$8, %rsp
	popq	%rbx
	popq	%r14
	popq	%r15
	popq	%rbp
	retq
Ltmp518:
Lfunc_end42:
	.cfi_endproc

	.p2align	4, 0x90
__ZN4core3ptr13drop_in_place17h936a397b5385ad83E:
Lfunc_begin43:
	.loc	4 178 0
	.cfi_startproc
	.cfi_personality 155, _rust_eh_personality
	.cfi_lsda 16, Lexception4
	pushq	%rbp
	.cfi_def_cfa_offset 16
	.cfi_offset %rbp, -16
	movq	%rsp, %rbp
	.cfi_def_cfa_register %rbp
Ltmp522:
	pushq	%r15
	pushq	%r14
	pushq	%rbx
	pushq	%rax
	.cfi_offset %rbx, -40
	.cfi_offset %r14, -32
	.cfi_offset %r15, -24
	.loc	4 178 1 prologue_end
	cmpq	$0, (%rdi)
	je	LBB43_6
Ltmp523:
	.loc	4 0 1 is_stmt 0
	movq	%rdi, %rbx
Ltmp524:
	.loc	4 178 1
	cmpb	$2, 8(%rdi)
	jae	LBB43_2
Ltmp525:
LBB43_6:
	.loc	4 178 1
	addq	$8, %rsp
	popq	%rbx
	popq	%r14
	popq	%r15
	popq	%rbp
	retq
LBB43_2:
Ltmp526:
	.loc	4 178 1
	movq	16(%rbx), %r15
Ltmp527:
	.loc	4 178 1
	movq	(%r15), %rdi
	movq	8(%r15), %rax
Ltmp519:
	callq	*(%rax)
Ltmp520:
Ltmp528:
	movq	8(%r15), %rax
Ltmp529:
	.loc	7 282 16 is_stmt 1
	movq	8(%rax), %rsi
Ltmp530:
	.loc	7 185 12
	testq	%rsi, %rsi
	.loc	7 185 9 is_stmt 0
	je	LBB43_5
Ltmp531:
	.loc	4 178 1 is_stmt 1
	movq	(%r15), %rdi
Ltmp532:
	.loc	7 283 17
	movq	16(%rax), %rdx
Ltmp533:
	.loc	7 102 5
	callq	___rust_dealloc
Ltmp534:
LBB43_5:
	.loc	4 178 1
	movq	16(%rbx), %rdi
Ltmp535:
	.loc	7 102 5
	movl	$24, %esi
	movl	$8, %edx
	addq	$8, %rsp
	popq	%rbx
Ltmp536:
	popq	%r14
	popq	%r15
	popq	%rbp
	jmp	___rust_dealloc
Ltmp537:
LBB43_7:
Ltmp521:
	.loc	7 0 5 is_stmt 0
	movq	%rax, %r14
Ltmp538:
	.loc	4 178 1 is_stmt 1
	movq	(%r15), %rdi
	movq	8(%r15), %rsi
	callq	__ZN5alloc5alloc8box_free17h570c11c07547ba82E
Ltmp539:
	.loc	4 178 1 is_stmt 0
	movq	16(%rbx), %rdi
	callq	__ZN5alloc5alloc8box_free17h22e07d1867015e95E
	movq	%r14, %rdi
	callq	__Unwind_Resume
	ud2
Ltmp540:
Lfunc_end43:
	.cfi_endproc
	.section	__TEXT,__gcc_except_tab
	.p2align	2
GCC_except_table43:
Lexception4:
	.byte	255
	.byte	255
	.byte	1
	.uleb128 Lcst_end4-Lcst_begin4
Lcst_begin4:
	.uleb128 Ltmp519-Lfunc_begin43
	.uleb128 Ltmp520-Ltmp519
	.uleb128 Ltmp521-Lfunc_begin43
	.byte	0
	.uleb128 Ltmp520-Lfunc_begin43
	.uleb128 Lfunc_end43-Ltmp520
	.byte	0
	.byte	0
Lcst_end4:
	.p2align	2

	.section	__TEXT,__text,regular,pure_instructions
	.p2align	4, 0x90
__ZN4core3ptr13drop_in_place17h96e8ca521862c534E:
Lfunc_begin44:
	.loc	4 178 0 is_stmt 1
	.cfi_startproc
	.cfi_personality 155, _rust_eh_personality
	.cfi_lsda 16, Lexception5
	pushq	%rbp
	.cfi_def_cfa_offset 16
	.cfi_offset %rbp, -16
	movq	%rsp, %rbp
	.cfi_def_cfa_register %rbp
Ltmp544:
	pushq	%r15
	pushq	%r14
	pushq	%rbx
	pushq	%rax
	.cfi_offset %rbx, -40
	.cfi_offset %r14, -32
	.cfi_offset %r15, -24
	.loc	4 178 1 prologue_end
	cmpb	$0, (%rdi)
	jne	LBB44_6
Ltmp545:
	.loc	4 0 1 is_stmt 0
	movq	%rdi, %rbx
Ltmp546:
	.loc	4 178 1
	cmpb	$2, 8(%rdi)
	jae	LBB44_2
Ltmp547:
LBB44_6:
	.loc	4 178 1
	addq	$8, %rsp
	popq	%rbx
	popq	%r14
	popq	%r15
	popq	%rbp
	retq
LBB44_2:
Ltmp548:
	.loc	4 178 1
	movq	16(%rbx), %r15
Ltmp549:
	.loc	4 178 1
	movq	(%r15), %rdi
	movq	8(%r15), %rax
Ltmp541:
	callq	*(%rax)
Ltmp542:
Ltmp550:
	movq	8(%r15), %rax
Ltmp551:
	.loc	7 282 16 is_stmt 1
	movq	8(%rax), %rsi
Ltmp552:
	.loc	7 185 12
	testq	%rsi, %rsi
	.loc	7 185 9 is_stmt 0
	je	LBB44_5
Ltmp553:
	.loc	4 178 1 is_stmt 1
	movq	(%r15), %rdi
Ltmp554:
	.loc	7 283 17
	movq	16(%rax), %rdx
Ltmp555:
	.loc	7 102 5
	callq	___rust_dealloc
Ltmp556:
LBB44_5:
	.loc	4 178 1
	movq	16(%rbx), %rdi
Ltmp557:
	.loc	7 102 5
	movl	$24, %esi
	movl	$8, %edx
	addq	$8, %rsp
	popq	%rbx
Ltmp558:
	popq	%r14
	popq	%r15
	popq	%rbp
	jmp	___rust_dealloc
Ltmp559:
LBB44_7:
Ltmp543:
	.loc	7 0 5 is_stmt 0
	movq	%rax, %r14
Ltmp560:
	.loc	4 178 1 is_stmt 1
	movq	(%r15), %rdi
	movq	8(%r15), %rsi
	callq	__ZN5alloc5alloc8box_free17h570c11c07547ba82E
Ltmp561:
	.loc	4 178 1 is_stmt 0
	movq	16(%rbx), %rdi
	callq	__ZN5alloc5alloc8box_free17h22e07d1867015e95E
	movq	%r14, %rdi
	callq	__Unwind_Resume
	ud2
Ltmp562:
Lfunc_end44:
	.cfi_endproc
	.section	__TEXT,__gcc_except_tab
	.p2align	2
GCC_except_table44:
Lexception5:
	.byte	255
	.byte	255
	.byte	1
	.uleb128 Lcst_end5-Lcst_begin5
Lcst_begin5:
	.uleb128 Ltmp541-Lfunc_begin44
	.uleb128 Ltmp542-Ltmp541
	.uleb128 Ltmp543-Lfunc_begin44
	.byte	0
	.uleb128 Ltmp542-Lfunc_begin44
	.uleb128 Lfunc_end44-Ltmp542
	.byte	0
	.byte	0
Lcst_end5:
	.p2align	2

	.section	__TEXT,__text,regular,pure_instructions
	.p2align	4, 0x90
__ZN4core3ptr13drop_in_place17hb6f0cbfeb0680e22E:
Lfunc_begin45:
	.loc	4 178 0 is_stmt 1
	.cfi_startproc
	.cfi_personality 155, _rust_eh_personality
	.cfi_lsda 16, Lexception6
	pushq	%rbp
	.cfi_def_cfa_offset 16
	.cfi_offset %rbp, -16
	movq	%rsp, %rbp
	.cfi_def_cfa_register %rbp
	pushq	%r15
	pushq	%r14
	pushq	%r13
	pushq	%r12
	pushq	%rbx
	subq	$120, %rsp
	.cfi_offset %rbx, -56
	.cfi_offset %r12, -48
	.cfi_offset %r13, -40
	.cfi_offset %r14, -32
	.cfi_offset %r15, -24
	movq	%rdi, %r14
Ltmp580:
	.loc	28 645 14 prologue_end
	movq	(%rdi), %rax
Ltmp581:
	.loc	28 645 13 is_stmt 0
	movb	$0, (%rax)
Ltmp582:
	.loc	4 178 1 is_stmt 1
	movq	8(%rdi), %rsi
Ltmp583:
	.loc	7 185 12
	testq	%rsi, %rsi
	.loc	7 185 9 is_stmt 0
	je	LBB45_2
Ltmp584:
	.loc	4 178 1 is_stmt 1
	movq	(%r14), %rdi
Ltmp585:
	.loc	7 102 5
	movl	$1, %edx
	callq	___rust_dealloc
Ltmp586:
LBB45_2:
	.loc	18 850 19
	movq	16(%r14), %rbx
Ltmp587:
	.loc	18 2384 81
	movq	32(%r14), %r15
Ltmp588:
	.loc	4 178 1
	testq	%r15, %r15
	je	LBB45_8
Ltmp589:
	shlq	$4, %r15
Ltmp590:
	addq	%rbx, %r15
	jmp	LBB45_4
Ltmp591:
	.p2align	4, 0x90
LBB45_6:
	addq	$16, %rbx
Ltmp592:
	cmpq	%r15, %rbx
	je	LBB45_7
Ltmp593:
LBB45_4:
	.loc	28 645 14
	movq	(%rbx), %rax
Ltmp594:
	.loc	28 645 13 is_stmt 0
	movb	$0, (%rax)
Ltmp595:
	.loc	4 178 1 is_stmt 1
	movq	8(%rbx), %rsi
Ltmp596:
	.loc	7 185 12
	testq	%rsi, %rsi
	.loc	7 185 9 is_stmt 0
	je	LBB45_6
Ltmp597:
	.loc	4 178 1 is_stmt 1
	movq	(%rbx), %rdi
Ltmp598:
	.loc	7 102 5
	movl	$1, %edx
	callq	___rust_dealloc
Ltmp599:
	.loc	7 0 5 is_stmt 0
	jmp	LBB45_6
Ltmp600:
LBB45_7:
	.loc	4 178 1 is_stmt 1
	movq	16(%r14), %rbx
Ltmp601:
LBB45_8:
	movq	24(%r14), %rsi
Ltmp602:
	.loc	17 200 40
	testq	%rsi, %rsi
	.loc	17 200 9 is_stmt 0
	je	LBB45_12
Ltmp603:
	.loc	17 532 16 is_stmt 1
	testq	%rbx, %rbx
Ltmp604:
	je	LBB45_12
Ltmp605:
	.loc	17 0 0 is_stmt 0
	shlq	$4, %rsi
Ltmp606:
	.loc	17 532 16
	je	LBB45_12
Ltmp607:
	.loc	7 102 5 is_stmt 1
	movl	$8, %edx
	movq	%rbx, %rdi
	callq	___rust_dealloc
Ltmp608:
LBB45_12:
	.loc	4 178 1
	movq	48(%r14), %rsi
Ltmp609:
	.loc	17 200 40
	testq	%rsi, %rsi
	.loc	17 200 9 is_stmt 0
	je	LBB45_16
Ltmp610:
	.loc	4 0 0
	movq	40(%r14), %rdi
Ltmp611:
	.loc	17 532 16 is_stmt 1
	testq	%rdi, %rdi
Ltmp612:
	je	LBB45_16
Ltmp613:
	.loc	17 0 0 is_stmt 0
	shlq	$3, %rsi
Ltmp614:
	.loc	17 532 16
	testq	%rsi, %rsi
	je	LBB45_16
Ltmp615:
	.loc	7 102 5 is_stmt 1
	movl	$8, %edx
	callq	___rust_dealloc
Ltmp616:
LBB45_16:
	.loc	4 178 1
	movq	64(%r14), %rcx
Ltmp617:
	.loc	2 1544 16
	testq	%rcx, %rcx
	je	LBB45_17
Ltmp618:
	.loc	4 0 0 is_stmt 0
	movq	72(%r14), %rdi
Ltmp619:
	movq	80(%r14), %rax
Ltmp620:
	.loc	5 293 9 is_stmt 1
	movzwl	10(%rcx), %edx
Ltmp621:
	.loc	5 680 12
	testq	%rdi, %rdi
Ltmp622:
	.loc	2 2136 14
	je	LBB45_32
Ltmp623:
	.loc	2 0 14 is_stmt 0
	movb	$1, %bl
	movq	%rcx, %rsi
Ltmp624:
	.p2align	4, 0x90
LBB45_36:
	.loc	2 2139 33 is_stmt 1
	testb	$1, %bl
	je	LBB45_33
Ltmp625:
	.loc	5 680 12
	cmpq	$1, %rdi
	setne	%bl
Ltmp626:
	.loc	5 963 17
	movq	544(%rcx), %rcx
Ltmp627:
	.loc	5 963 17 is_stmt 0
	movq	544(%rsi,%rdx,8), %rsi
Ltmp628:
	.loc	5 293 9 is_stmt 1
	movzwl	10(%rsi), %edx
Ltmp629:
	.loc	5 680 12
	decq	%rdi
Ltmp630:
	.loc	2 2136 14
	jne	LBB45_36
	jmp	LBB45_38
Ltmp631:
LBB45_17:
	.loc	2 1549 13
	movq	$0, -104(%rbp)
	movq	$0, -72(%rbp)
	xorl	%eax, %eax
	jmp	LBB45_39
Ltmp632:
LBB45_32:
	.loc	2 0 13 is_stmt 0
	movq	%rcx, %rsi
Ltmp633:
LBB45_38:
	.loc	2 1547 13 is_stmt 1
	movq	$0, -112(%rbp)
	movq	%rcx, -104(%rbp)
	movq	$0, -96(%rbp)
	movq	$0, -88(%rbp)
	movq	$0, -80(%rbp)
	movq	%rsi, -72(%rbp)
	movq	$0, -64(%rbp)
	movq	%rdx, -56(%rbp)
Ltmp634:
LBB45_39:
	.loc	2 0 0 is_stmt 0
	movq	%rax, -48(%rbp)
Ltmp635:
Ltmp565:
	leaq	-160(%rbp), %rdi
	leaq	-112(%rbp), %rsi
Ltmp636:
	.loc	2 1575 32 is_stmt 1
	callq	__ZN112_$LT$alloc..collections..btree..map..IntoIter$LT$K$C$V$GT$$u20$as$u20$core..iter..traits..iterator..Iterator$GT$4next17h3a9d9f57c5f1ad1aE
Ltmp566:
Ltmp637:
	.loc	2 1575 19 is_stmt 0
	movq	-160(%rbp), %rdi
	testq	%rdi, %rdi
	je	LBB45_50
Ltmp638:
	.loc	2 0 19
	leaq	-160(%rbp), %r15
	leaq	-112(%rbp), %r12
Ltmp639:
	.p2align	4, 0x90
LBB45_42:
	.loc	2 1575 24
	movq	-136(%rbp), %rbx
Ltmp640:
	movq	-128(%rbp), %r13
Ltmp641:
	.loc	17 532 16 is_stmt 1
	testq	%rdi, %rdi
Ltmp642:
	.loc	17 200 9
	je	LBB45_45
Ltmp643:
	.loc	2 0 0 is_stmt 0
	movq	-152(%rbp), %rsi
Ltmp644:
	.loc	17 200 9
	testq	%rsi, %rsi
	je	LBB45_45
Ltmp645:
	.loc	7 102 5 is_stmt 1
	movl	$1, %edx
	callq	___rust_dealloc
Ltmp646:
LBB45_45:
	.loc	4 178 1
	testq	%rbx, %rbx
Ltmp647:
	je	LBB45_48
Ltmp648:
	testq	%r13, %r13
	je	LBB45_48
Ltmp649:
	.loc	7 102 5
	movl	$1, %edx
	movq	%rbx, %rdi
	movq	%r13, %rsi
	callq	___rust_dealloc
Ltmp650:
LBB45_48:
Ltmp568:
	.loc	2 1575 32
	movq	%r15, %rdi
	movq	%r12, %rsi
	callq	__ZN112_$LT$alloc..collections..btree..map..IntoIter$LT$K$C$V$GT$$u20$as$u20$core..iter..traits..iterator..Iterator$GT$4next17h3a9d9f57c5f1ad1aE
Ltmp569:
Ltmp651:
	.loc	2 1575 19 is_stmt 0
	movq	-160(%rbp), %rdi
	testq	%rdi, %rdi
	jne	LBB45_42
Ltmp652:
LBB45_50:
	.loc	4 651 5 is_stmt 1
	movq	-104(%rbp), %rdi
Ltmp653:
	.loc	2 1582 20
	testq	%rdi, %rdi
	je	LBB45_27
Ltmp654:
	.loc	4 651 5
	movq	-112(%rbp), %rax
Ltmp655:
	.loc	4 0 5 is_stmt 0
	movl	$544, %r15d
Ltmp656:
	.p2align	4, 0x90
LBB45_52:
	.loc	5 344 30 is_stmt 1
	movq	(%rdi), %r12
Ltmp657:
	.loc	5 345 16
	xorl	%ebx, %ebx
	testq	%r12, %r12
	setne	%bl
	addq	%rax, %rbx
Ltmp658:
	.loc	5 397 16
	testq	%rax, %rax
	.loc	5 397 13 is_stmt 0
	movl	$640, %esi
	cmoveq	%r15, %rsi
Ltmp659:
	.loc	7 102 5 is_stmt 1
	movl	$8, %edx
	callq	___rust_dealloc
Ltmp660:
	.loc	2 0 0 is_stmt 0
	movq	%rbx, %rax
	movq	%r12, %rdi
Ltmp661:
	.loc	5 345 16 is_stmt 1
	testq	%r12, %r12
Ltmp662:
	.loc	2 1586 27
	jne	LBB45_52
Ltmp663:
LBB45_27:
	.loc	4 178 1
	movq	96(%r14), %rax
Ltmp664:
	testq	%rax, %rax
	je	LBB45_30
Ltmp665:
	.loc	28 645 13
	movb	$0, (%rax)
Ltmp666:
	.loc	4 178 1
	movq	104(%r14), %rsi
Ltmp667:
	.loc	7 185 12
	testq	%rsi, %rsi
	.loc	7 185 9 is_stmt 0
	je	LBB45_30
Ltmp668:
	.loc	4 178 1 is_stmt 1
	movq	96(%r14), %rdi
Ltmp669:
	.loc	7 102 5
	movl	$1, %edx
	callq	___rust_dealloc
Ltmp670:
LBB45_30:
	.loc	4 178 1
	leaq	112(%r14), %rdi
Ltmp571:
	callq	__ZN4core3ptr13drop_in_place17h5c0e4cc9660d5c0dE
Ltmp572:
Ltmp671:
	.loc	4 178 1 is_stmt 0
	cmpl	$3, 152(%r14)
	jne	LBB45_23
Ltmp672:
	.loc	4 178 1
	leaq	156(%r14), %rdi
Ltmp673:
Ltmp574:
	.loc	4 178 1
	callq	__ZN70_$LT$std..sys..unix..fd..FileDesc$u20$as$u20$core..ops..drop..Drop$GT$4drop17hf5fce2bf4d9f8deaE
Ltmp674:
Ltmp575:
LBB45_23:
	.loc	4 178 1
	cmpl	$3, 160(%r14)
	jne	LBB45_21
Ltmp675:
	.loc	4 178 1
	leaq	164(%r14), %rdi
Ltmp676:
Ltmp577:
	.loc	4 178 1
	callq	__ZN70_$LT$std..sys..unix..fd..FileDesc$u20$as$u20$core..ops..drop..Drop$GT$4drop17hf5fce2bf4d9f8deaE
Ltmp677:
Ltmp578:
LBB45_21:
	.loc	4 178 1
	cmpl	$3, 168(%r14)
	jne	LBB45_59
Ltmp678:
	.loc	4 178 1
	addq	$172, %r14
Ltmp679:
	.loc	4 178 1
	movq	%r14, %rdi
	addq	$120, %rsp
	popq	%rbx
	popq	%r12
	popq	%r13
	popq	%r14
Ltmp680:
	popq	%r15
	popq	%rbp
	jmp	__ZN70_$LT$std..sys..unix..fd..FileDesc$u20$as$u20$core..ops..drop..Drop$GT$4drop17hf5fce2bf4d9f8deaE
Ltmp681:
LBB45_59:
	.loc	4 178 1
	addq	$120, %rsp
	popq	%rbx
	popq	%r12
	popq	%r13
	popq	%r14
Ltmp682:
	popq	%r15
	popq	%rbp
	retq
LBB45_33:
Ltmp683:
	.loc	8 16 38 is_stmt 1
	leaq	__ZN44_$LT$$RF$T$u20$as$u20$core..fmt..Display$GT$3fmt17h9f1c5d51f801e50fE(%rip), %rax
Ltmp684:
	movq	%rax, %xmm0
	leaq	l___unnamed_30(%rip), %rax
	movq	%rax, %xmm1
	punpcklqdq	%xmm0, %xmm1
	movdqa	%xmm1, -160(%rbp)
Ltmp685:
	.loc	23 328 9
	leaq	l___unnamed_31(%rip), %rax
Ltmp686:
	movq	%rax, -112(%rbp)
	movq	$1, -104(%rbp)
	movq	$0, -96(%rbp)
	leaq	-160(%rbp), %rax
Ltmp687:
	movq	%rax, -80(%rbp)
	movq	$1, -72(%rbp)
Ltmp688:
Ltmp563:
	.loc	8 16 9
	leaq	l___unnamed_32(%rip), %rsi
	leaq	-112(%rbp), %rdi
Ltmp689:
	callq	__ZN4core9panicking9panic_fmt17hab6ef1464e9720aaE
Ltmp690:
Ltmp564:
	ud2
Ltmp691:
LBB45_58:
Ltmp579:
	.loc	8 0 9 is_stmt 0
	movq	%rax, %rbx
	jmp	LBB45_20
Ltmp692:
LBB45_18:
Ltmp576:
	movq	%rax, %rbx
	jmp	LBB45_19
Ltmp693:
LBB45_54:
Ltmp567:
	jmp	LBB45_55
Ltmp694:
LBB45_57:
Ltmp573:
	movq	%rax, %rbx
	jmp	LBB45_56
Ltmp695:
LBB45_53:
Ltmp570:
LBB45_55:
	movq	%rax, %rbx
	.loc	4 178 1 is_stmt 1
	leaq	96(%r14), %rdi
	callq	__ZN4core3ptr13drop_in_place17h8d0b26e5c189717eE
	leaq	112(%r14), %rdi
	callq	__ZN4core3ptr13drop_in_place17h5c0e4cc9660d5c0dE
Ltmp696:
LBB45_56:
	leaq	152(%r14), %rdi
	callq	__ZN4core3ptr13drop_in_place17h5966aa2963f14066E
Ltmp697:
LBB45_19:
	leaq	160(%r14), %rdi
	callq	__ZN4core3ptr13drop_in_place17h5966aa2963f14066E
Ltmp698:
LBB45_20:
	addq	$168, %r14
Ltmp699:
	movq	%r14, %rdi
	callq	__ZN4core3ptr13drop_in_place17h5966aa2963f14066E
	movq	%rbx, %rdi
	callq	__Unwind_Resume
	ud2
Ltmp700:
Lfunc_end45:
	.cfi_endproc
	.file	29 "/rustc/a74d1862d4d87a56244958416fd05976c58ca1a8/src/libcore/mem/mod.rs"
	.section	__TEXT,__gcc_except_tab
	.p2align	2
GCC_except_table45:
Lexception6:
	.byte	255
	.byte	255
	.byte	1
	.uleb128 Lcst_end6-Lcst_begin6
Lcst_begin6:
	.uleb128 Ltmp565-Lfunc_begin45
	.uleb128 Ltmp566-Ltmp565
	.uleb128 Ltmp567-Lfunc_begin45
	.byte	0
	.uleb128 Ltmp568-Lfunc_begin45
	.uleb128 Ltmp569-Ltmp568
	.uleb128 Ltmp570-Lfunc_begin45
	.byte	0
	.uleb128 Ltmp571-Lfunc_begin45
	.uleb128 Ltmp572-Ltmp571
	.uleb128 Ltmp573-Lfunc_begin45
	.byte	0
	.uleb128 Ltmp574-Lfunc_begin45
	.uleb128 Ltmp575-Ltmp574
	.uleb128 Ltmp576-Lfunc_begin45
	.byte	0
	.uleb128 Ltmp577-Lfunc_begin45
	.uleb128 Ltmp578-Ltmp577
	.uleb128 Ltmp579-Lfunc_begin45
	.byte	0
	.uleb128 Ltmp578-Lfunc_begin45
	.uleb128 Ltmp563-Ltmp578
	.byte	0
	.byte	0
	.uleb128 Ltmp563-Lfunc_begin45
	.uleb128 Ltmp564-Ltmp563
	.uleb128 Ltmp567-Lfunc_begin45
	.byte	0
	.uleb128 Ltmp564-Lfunc_begin45
	.uleb128 Lfunc_end45-Ltmp564
	.byte	0
	.byte	0
Lcst_end6:
	.p2align	2

	.section	__TEXT,__text,regular,pure_instructions
	.p2align	4, 0x90
__ZN4core3ptr13drop_in_place17hce341f8b70af50efE:
Lfunc_begin46:
	.loc	4 178 0
	.cfi_startproc
	.cfi_personality 155, _rust_eh_personality
	.cfi_lsda 16, Lexception7
	pushq	%rbp
	.cfi_def_cfa_offset 16
	.cfi_offset %rbp, -16
	movq	%rsp, %rbp
	.cfi_def_cfa_register %rbp
Ltmp704:
	pushq	%r15
	pushq	%r14
	pushq	%rbx
	pushq	%rax
	.cfi_offset %rbx, -40
	.cfi_offset %r14, -32
	.cfi_offset %r15, -24
	.loc	4 178 1 prologue_end
	cmpb	$2, (%rdi)
	jae	LBB46_1
Ltmp705:
	.loc	4 178 1 is_stmt 0
	addq	$8, %rsp
	popq	%rbx
	popq	%r14
	popq	%r15
	popq	%rbp
	retq
Ltmp706:
LBB46_1:
	.loc	4 0 1
	movq	%rdi, %r15
Ltmp707:
	.loc	4 178 1
	movq	8(%rdi), %rbx
Ltmp708:
	.loc	4 178 1
	movq	(%rbx), %rdi
	movq	8(%rbx), %rax
Ltmp701:
	callq	*(%rax)
Ltmp702:
Ltmp709:
	movq	8(%rbx), %rax
Ltmp710:
	.loc	7 282 16 is_stmt 1
	movq	8(%rax), %rsi
Ltmp711:
	.loc	7 185 12
	testq	%rsi, %rsi
	.loc	7 185 9 is_stmt 0
	je	LBB46_4
Ltmp712:
	.loc	4 178 1 is_stmt 1
	movq	(%rbx), %rdi
Ltmp713:
	.loc	7 283 17
	movq	16(%rax), %rdx
Ltmp714:
	.loc	7 102 5
	callq	___rust_dealloc
Ltmp715:
LBB46_4:
	.loc	4 178 1
	movq	8(%r15), %rdi
Ltmp716:
	.loc	7 102 5
	movl	$24, %esi
	movl	$8, %edx
	addq	$8, %rsp
	popq	%rbx
	popq	%r14
	popq	%r15
Ltmp717:
	popq	%rbp
	jmp	___rust_dealloc
Ltmp718:
LBB46_6:
Ltmp703:
	.loc	7 0 5 is_stmt 0
	movq	%rax, %r14
Ltmp719:
	.loc	4 178 1 is_stmt 1
	movq	(%rbx), %rdi
	movq	8(%rbx), %rsi
	callq	__ZN5alloc5alloc8box_free17h570c11c07547ba82E
Ltmp720:
	.loc	4 178 1 is_stmt 0
	movq	8(%r15), %rdi
	callq	__ZN5alloc5alloc8box_free17h22e07d1867015e95E
	movq	%r14, %rdi
	callq	__Unwind_Resume
	ud2
Ltmp721:
Lfunc_end46:
	.cfi_endproc
	.section	__TEXT,__gcc_except_tab
	.p2align	2
GCC_except_table46:
Lexception7:
	.byte	255
	.byte	255
	.byte	1
	.uleb128 Lcst_end7-Lcst_begin7
Lcst_begin7:
	.uleb128 Ltmp701-Lfunc_begin46
	.uleb128 Ltmp702-Ltmp701
	.uleb128 Ltmp703-Lfunc_begin46
	.byte	0
	.uleb128 Ltmp702-Lfunc_begin46
	.uleb128 Lfunc_end46-Ltmp702
	.byte	0
	.byte	0
Lcst_end7:
	.p2align	2

	.section	__TEXT,__text,regular,pure_instructions
	.p2align	4, 0x90
__ZN4core3ptr13drop_in_place17hf8d5c2f52ff90246E:
Lfunc_begin47:
	.loc	4 178 0 is_stmt 1
	.cfi_startproc
	pushq	%rbp
	.cfi_def_cfa_offset 16
	.cfi_offset %rbp, -16
	movq	%rsp, %rbp
	.cfi_def_cfa_register %rbp
Ltmp722:
	.loc	4 178 1 prologue_end
	popq	%rbp
	jmp	__ZN70_$LT$std..sys..unix..fd..FileDesc$u20$as$u20$core..ops..drop..Drop$GT$4drop17hf5fce2bf4d9f8deaE
Ltmp723:
Lfunc_end47:
	.cfi_endproc

	.p2align	4, 0x90
__ZN4core3ptr13drop_in_place17hf99d24d469c2719bE:
Lfunc_begin48:
	.loc	4 178 0
	.cfi_startproc
	pushq	%rbp
	.cfi_def_cfa_offset 16
	.cfi_offset %rbp, -16
	movq	%rsp, %rbp
	.cfi_def_cfa_register %rbp
	movq	%rdi, %rax
Ltmp724:
	.loc	4 178 1 prologue_end
	movq	(%rdi), %rdi
Ltmp725:
	.loc	17 532 16
	testq	%rdi, %rdi
Ltmp726:
	.loc	17 200 9
	je	LBB48_2
Ltmp727:
	.loc	4 0 0 is_stmt 0
	movq	8(%rax), %rsi
Ltmp728:
	.loc	17 200 9
	testq	%rsi, %rsi
	je	LBB48_2
Ltmp729:
	.loc	7 102 5 is_stmt 1
	movl	$1, %edx
	popq	%rbp
	jmp	___rust_dealloc
Ltmp730:
LBB48_2:
	.loc	4 178 1
	popq	%rbp
	retq
Ltmp731:
Lfunc_end48:
	.cfi_endproc

	.p2align	4, 0x90
__ZN4core3str6traits103_$LT$impl$u20$core..slice..SliceIndex$LT$str$GT$$u20$for$u20$core..ops..range..RangeTo$LT$usize$GT$$GT$5index28_$u7b$$u7b$closure$u7d$$u7d$17hd67750a5e58bdb29E:
Lfunc_begin49:
	.file	30 "/rustc/a74d1862d4d87a56244958416fd05976c58ca1a8/src/libcore/str/mod.rs"
	.loc	30 1987 0
	.cfi_startproc
	pushq	%rbp
	.cfi_def_cfa_offset 16
	.cfi_offset %rbp, -16
	movq	%rsp, %rbp
	.cfi_def_cfa_register %rbp
Ltmp732:
	movq	%rsi, %rcx
Ltmp733:
	.loc	30 1987 71 prologue_end
	movq	(%rdi), %rax
	movq	8(%rdi), %rsi
	.loc	30 1987 47 is_stmt 0
	leaq	l___unnamed_33(%rip), %r8
	movq	%rax, %rdi
Ltmp734:
	xorl	%edx, %edx
	callq	__ZN4core3str16slice_error_fail17h6b29707aec812690E
Ltmp735:
Lfunc_end49:
	.cfi_endproc

	.p2align	4, 0x90
__ZN4core3str6traits105_$LT$impl$u20$core..slice..SliceIndex$LT$str$GT$$u20$for$u20$core..ops..range..RangeFrom$LT$usize$GT$$GT$5index28_$u7b$$u7b$closure$u7d$$u7d$17hf16339f573dba075E:
Lfunc_begin50:
	.loc	30 2052 0 is_stmt 1
	.cfi_startproc
	pushq	%rbp
	.cfi_def_cfa_offset 16
	.cfi_offset %rbp, -16
	movq	%rsp, %rbp
	.cfi_def_cfa_register %rbp
Ltmp736:
	.loc	30 2052 71 prologue_end
	movq	(%rdi), %rcx
	.loc	30 2052 78 is_stmt 0
	movq	8(%rdi), %rdx
	.loc	30 2052 71
	movq	(%rcx), %rax
	movq	8(%rcx), %rsi
	.loc	30 2052 78
	movq	(%rdx), %rdx
	.loc	30 2052 85
	movq	16(%rdi), %rcx
	movq	(%rcx), %rcx
	.loc	30 2052 47
	leaq	l___unnamed_34(%rip), %r8
	movq	%rax, %rdi
Ltmp737:
	callq	__ZN4core3str16slice_error_fail17h6b29707aec812690E
Ltmp738:
Lfunc_end50:
	.cfi_endproc

	.p2align	4, 0x90
__ZN5alloc5alloc8box_free17h22e07d1867015e95E:
Lfunc_begin51:
	.loc	7 281 0 is_stmt 1
	.cfi_startproc
	pushq	%rbp
	.cfi_def_cfa_offset 16
	.cfi_offset %rbp, -16
	movq	%rsp, %rbp
	.cfi_def_cfa_register %rbp
Ltmp739:
	.loc	7 102 5 prologue_end
	movl	$24, %esi
	movl	$8, %edx
	popq	%rbp
	jmp	___rust_dealloc
Ltmp740:
Lfunc_end51:
	.cfi_endproc

	.p2align	4, 0x90
__ZN5alloc5alloc8box_free17h570c11c07547ba82E:
Lfunc_begin52:
	.loc	7 281 0
	.cfi_startproc
	pushq	%rbp
	.cfi_def_cfa_offset 16
	.cfi_offset %rbp, -16
	movq	%rsp, %rbp
	.cfi_def_cfa_register %rbp
	movq	%rsi, %rax
Ltmp741:
	.loc	7 282 16 prologue_end
	movq	8(%rsi), %rsi
Ltmp742:
	.loc	7 185 12
	testq	%rsi, %rsi
	.loc	7 185 9 is_stmt 0
	je	LBB52_1
Ltmp743:
	.loc	7 283 17 is_stmt 1
	movq	16(%rax), %rdx
Ltmp744:
	.loc	7 102 5
	popq	%rbp
	jmp	___rust_dealloc
Ltmp745:
LBB52_1:
	.loc	7 286 2
	popq	%rbp
	retq
Ltmp746:
Lfunc_end52:
	.cfi_endproc

	.p2align	4, 0x90
__ZN5alloc7raw_vec19RawVec$LT$T$C$A$GT$11allocate_in28_$u7b$$u7b$closure$u7d$$u7d$17h6b1f83c4246c6b24E:
Lfunc_begin53:
	.loc	17 152 0
	.cfi_startproc
	pushq	%rbp
	.cfi_def_cfa_offset 16
	.cfi_offset %rbp, -16
	movq	%rsp, %rbp
	.cfi_def_cfa_register %rbp
Ltmp747:
	.loc	17 152 71 prologue_end
	callq	__ZN5alloc5alloc18handle_alloc_error17hbc0ab0ed90816c07E
Ltmp748:
Lfunc_end53:
	.cfi_endproc

	.p2align	4, 0x90
__ZN60_$LT$alloc..string..String$u20$as$u20$core..fmt..Display$GT$3fmt17h4c6fc2b9ff0414a4E:
Lfunc_begin54:
	.loc	20 1937 0
	.cfi_startproc
	pushq	%rbp
	.cfi_def_cfa_offset 16
	.cfi_offset %rbp, -16
	movq	%rsp, %rbp
	.cfi_def_cfa_register %rbp
	movq	%rsi, %rdx
Ltmp749:
	.loc	18 814 19 prologue_end
	movq	(%rdi), %rax
Ltmp750:
	.loc	18 1966 55
	movq	16(%rdi), %rsi
Ltmp751:
	.loc	20 1938 9
	movq	%rax, %rdi
Ltmp752:
	popq	%rbp
	jmp	__ZN42_$LT$str$u20$as$u20$core..fmt..Display$GT$3fmt17hd4dee1c1c4ccf892E
Ltmp753:
Lfunc_end54:
	.cfi_endproc

	.p2align	4, 0x90
__ZN85_$LT$core..str..SplitN$LT$P$GT$$u20$as$u20$core..iter..traits..iterator..Iterator$GT$4next17hc2369df72b7d7dadE:
Lfunc_begin55:
	.loc	30 975 0
	.cfi_startproc
	pushq	%rbp
	.cfi_def_cfa_offset 16
	.cfi_offset %rbp, -16
	movq	%rsp, %rbp
	.cfi_def_cfa_register %rbp
Ltmp754:
	pushq	%r15
	pushq	%r14
	pushq	%r13
	pushq	%r12
	pushq	%rbx
	subq	$24, %rsp
	.cfi_offset %rbx, -56
	.cfi_offset %r12, -48
	.cfi_offset %r13, -40
	.cfi_offset %r14, -32
	.cfi_offset %r15, -24
	.loc	30 1301 13 prologue_end
	movq	72(%rdi), %rax
	testq	%rax, %rax
	je	LBB55_1
Ltmp755:
	.loc	30 0 13 is_stmt 0
	movq	%rdi, %rbx
Ltmp756:
	.loc	30 1301 13
	cmpq	$1, %rax
	jne	LBB55_3
Ltmp757:
	.loc	30 1303 17 is_stmt 1
	movq	$0, 72(%rbx)
Ltmp758:
LBB55_18:
	.loc	30 0 0 is_stmt 0
	cmpb	$0, 65(%rbx)
	jne	LBB55_1
Ltmp759:
LBB55_19:
	cmpb	$0, 64(%rbx)
	je	LBB55_23
Ltmp760:
	movq	(%rbx), %rax
	movq	8(%rbx), %r15
	jmp	LBB55_24
Ltmp761:
LBB55_3:
	.loc	30 1307 17 is_stmt 1
	decq	%rax
	movq	%rax, 72(%rbx)
Ltmp762:
	.loc	30 1121 12
	cmpb	$0, 65(%rbx)
	.loc	30 1121 9 is_stmt 0
	je	LBB55_4
Ltmp763:
LBB55_1:
	.loc	30 0 9
	xorl	%eax, %eax
LBB55_25:
	.loc	30 977 14 is_stmt 1
	movq	%r15, %rdx
	addq	$24, %rsp
	popq	%rbx
	popq	%r12
	popq	%r13
	popq	%r14
	popq	%r15
	popq	%rbp
	retq
LBB55_4:
Ltmp764:
	.file	31 "/rustc/a74d1862d4d87a56244958416fd05976c58ca1a8/src/libcore/str/pattern.rs"
	.loc	31 369 54
	movq	32(%rbx), %rsi
Ltmp765:
	.loc	31 369 67 is_stmt 0
	movq	40(%rbx), %rax
Ltmp766:
	.loc	11 2888 12 is_stmt 1
	movq	%rax, %rdx
	subq	%rsi, %rdx
Ltmp767:
	.loc	31 369 84
	jb	LBB55_18
Ltmp768:
	cmpq	%rax, 24(%rbx)
	jb	LBB55_18
Ltmp769:
	.loc	30 0 0 is_stmt 0
	movq	16(%rbx), %rcx
Ltmp770:
	.loc	31 372 71 is_stmt 1
	movq	48(%rbx), %rax
Ltmp771:
	.loc	31 0 71 is_stmt 0
	movq	%rcx, -56(%rbp)
Ltmp772:
	.loc	11 2888 12 is_stmt 1
	addq	%rcx, %rsi
Ltmp773:
	.loc	31 373 34
	movzbl	59(%rax,%rbx), %edi
	callq	__ZN4core5slice6memchr6memchr17h319ffdabcbdf42caE
Ltmp774:
	.loc	31 373 20 is_stmt 0
	cmpq	$1, %rax
	jne	LBB55_17
Ltmp775:
	.loc	31 0 20
	leaq	60(%rbx), %rax
	movq	%rax, -48(%rbp)
Ltmp776:
	.p2align	4, 0x90
LBB55_8:
	.loc	31 391 17 is_stmt 1
	movq	32(%rbx), %rax
	.loc	31 392 35
	movq	48(%rbx), %r12
Ltmp777:
	.loc	31 391 17
	leaq	1(%rdx,%rax), %r13
Ltmp778:
	movq	%r13, 32(%rbx)
	.loc	31 392 20
	movq	%r13, %r15
	subq	%r12, %r15
	.loc	31 392 17 is_stmt 0
	jae	LBB55_10
Ltmp779:
	.loc	31 369 25 is_stmt 1
	movq	24(%rbx), %r14
Ltmp780:
	.loc	31 369 67 is_stmt 0
	movq	40(%rbx), %rax
Ltmp781:
	.loc	11 2888 12 is_stmt 1
	movq	%rax, %rdx
	subq	%r13, %rdx
	jae	LBB55_15
	jmp	LBB55_18
Ltmp782:
	.p2align	4, 0x90
LBB55_10:
	.loc	31 394 42
	movq	24(%rbx), %r14
Ltmp783:
	.loc	11 2888 37
	cmpq	%r13, %r14
Ltmp784:
	.loc	31 394 28
	jb	LBB55_14
Ltmp785:
	.loc	11 2918 19
	cmpq	$5, %r12
	.loc	11 2918 16 is_stmt 0
	jae	LBB55_26
Ltmp786:
	.loc	11 0 16
	movq	16(%rbx), %rdi
	addq	%r15, %rdi
Ltmp787:
	.loc	11 5863 12 is_stmt 1
	cmpq	-48(%rbp), %rdi
	.loc	11 5863 9 is_stmt 0
	je	LBB55_21
Ltmp788:
	.loc	11 0 9
	movq	-48(%rbp), %rsi
Ltmp789:
	.loc	11 5868 13 is_stmt 1
	movq	%r12, %rdx
Ltmp790:
	callq	_bcmp
Ltmp791:
	testl	%eax, %eax
Ltmp792:
	.loc	31 395 25
	je	LBB55_21
Ltmp793:
LBB55_14:
	.loc	31 369 67
	movq	40(%rbx), %rax
Ltmp794:
	.loc	11 2888 12
	movq	%rax, %rdx
	subq	%r13, %rdx
Ltmp795:
	.loc	31 369 84
	jb	LBB55_18
Ltmp796:
LBB55_15:
	cmpq	%rax, %r14
	jb	LBB55_18
Ltmp797:
	.loc	11 2888 12
	addq	16(%rbx), %r13
Ltmp798:
	.loc	31 373 34
	movzbl	59(%r12,%rbx), %edi
	movq	%r13, %rsi
	callq	__ZN4core5slice6memchr6memchr17h319ffdabcbdf42caE
Ltmp799:
	.loc	31 373 20 is_stmt 0
	cmpq	$1, %rax
	je	LBB55_8
Ltmp800:
LBB55_17:
	.loc	31 402 31 is_stmt 1
	movq	40(%rbx), %rax
	.loc	31 402 17 is_stmt 0
	movq	%rax, 32(%rbx)
Ltmp801:
	.loc	30 0 0
	cmpb	$0, 65(%rbx)
	jne	LBB55_1
	jmp	LBB55_19
Ltmp802:
LBB55_23:
	movq	(%rbx), %rax
	movq	8(%rbx), %r15
	cmpq	%rax, %r15
	je	LBB55_1
Ltmp803:
LBB55_24:
	movb	$1, 65(%rbx)
Ltmp804:
	subq	%rax, %r15
Ltmp805:
	addq	16(%rbx), %rax
Ltmp806:
	jmp	LBB55_25
Ltmp807:
LBB55_21:
	.loc	30 1129 50 is_stmt 1
	movq	(%rbx), %rcx
Ltmp808:
	.loc	30 0 50 is_stmt 0
	movq	-56(%rbp), %rax
Ltmp809:
	.loc	13 158 9 is_stmt 1
	addq	%rcx, %rax
Ltmp810:
	.loc	30 1908 23
	subq	%rcx, %r15
Ltmp811:
	.loc	30 1130 17
	movq	%r13, (%rbx)
	jmp	LBB55_25
Ltmp812:
LBB55_26:
	.loc	11 2919 13
	leaq	l___unnamed_35(%rip), %rdx
Ltmp813:
	movl	$4, %esi
	movq	%r12, %rdi
	callq	__ZN4core5slice20slice_index_len_fail17h550a313151a85135E
Ltmp814:
Lfunc_end55:
	.cfi_endproc
	.file	32 "/rustc/a74d1862d4d87a56244958416fd05976c58ca1a8/src/libcore/cmp.rs"

	.p2align	4, 0x90
__ZN97_$LT$core..iter..adapters..Map$LT$I$C$F$GT$$u20$as$u20$core..iter..traits..iterator..Iterator$GT$4next17hb636d43e8c3fab06E:
Lfunc_begin56:
	.file	33 "/rustc/a74d1862d4d87a56244958416fd05976c58ca1a8/src/libcore/iter/adapters/mod.rs"
	.loc	33 803 0
	.cfi_startproc
	pushq	%rbp
	.cfi_def_cfa_offset 16
	.cfi_offset %rbp, -16
	movq	%rsp, %rbp
	.cfi_def_cfa_register %rbp
	pushq	%r15
	pushq	%r14
	pushq	%r13
	pushq	%r12
	pushq	%rbx
	subq	$24, %rsp
	.cfi_offset %rbx, -56
	.cfi_offset %r12, -48
	.cfi_offset %r13, -40
	.cfi_offset %r14, -32
	.cfi_offset %r15, -24
	movq	%rsi, %rbx
Ltmp815:
	movq	%rdi, -48(%rbp)
Ltmp816:
	.loc	11 0 0 prologue_end
	leaq	60(%rsi), %rax
	movq	%rax, -56(%rbp)
Ltmp817:
	.p2align	4, 0x90
LBB56_1:
	.loc	30 1121 12
	cmpb	$0, 65(%rbx)
	.loc	30 1121 9 is_stmt 0
	jne	LBB56_28
Ltmp818:
	.loc	31 369 54 is_stmt 1
	movq	32(%rbx), %r14
Ltmp819:
	.loc	31 369 67 is_stmt 0
	movq	40(%rbx), %rdx
Ltmp820:
	.loc	11 2888 12 is_stmt 1
	cmpq	%r14, %rdx
Ltmp821:
	.loc	31 369 84
	jb	LBB56_7
Ltmp822:
	cmpq	%rdx, 24(%rbx)
	jb	LBB56_7
Ltmp823:
	.loc	30 0 0 is_stmt 0
	movq	16(%rbx), %rsi
Ltmp824:
	.loc	31 372 71 is_stmt 1
	movq	48(%rbx), %r13
	movq	%rsi, -64(%rbp)
Ltmp825:
	.p2align	4, 0x90
LBB56_5:
	.loc	11 2888 12
	addq	%r14, %rsi
Ltmp826:
	subq	%r14, %rdx
Ltmp827:
	.loc	31 373 34
	movzbl	59(%r13,%rbx), %edi
	callq	__ZN4core5slice6memchr6memchr17h319ffdabcbdf42caE
Ltmp828:
	.loc	31 373 20 is_stmt 0
	cmpq	$1, %rax
	jne	LBB56_6
Ltmp829:
	.loc	31 391 17 is_stmt 1
	movq	32(%rbx), %rax
	.loc	31 392 35
	movq	48(%rbx), %r13
Ltmp830:
	.loc	31 391 17
	leaq	1(%rdx,%rax), %r14
Ltmp831:
	movq	%r14, 32(%rbx)
	.loc	31 392 20
	movq	%r14, %r15
	subq	%r13, %r15
	.loc	31 392 17 is_stmt 0
	jae	LBB56_12
Ltmp832:
	.loc	31 369 25 is_stmt 1
	movq	24(%rbx), %r12
Ltmp833:
	.loc	31 369 67 is_stmt 0
	movq	40(%rbx), %rdx
Ltmp834:
	.loc	11 2888 12 is_stmt 1
	cmpq	%r14, %rdx
	jae	LBB56_17
	jmp	LBB56_7
Ltmp835:
	.p2align	4, 0x90
LBB56_12:
	.loc	31 394 42
	movq	24(%rbx), %r12
Ltmp836:
	.loc	11 2888 37
	cmpq	%r14, %r12
Ltmp837:
	.loc	31 394 28
	jb	LBB56_16
Ltmp838:
	.loc	11 2918 19
	cmpq	$5, %r13
	.loc	11 2918 16 is_stmt 0
	jae	LBB56_27
Ltmp839:
	.loc	11 0 16
	movq	16(%rbx), %rdi
	addq	%r15, %rdi
Ltmp840:
	.loc	11 5863 12 is_stmt 1
	cmpq	-56(%rbp), %rdi
	.loc	11 5863 9 is_stmt 0
	je	LBB56_21
Ltmp841:
	.loc	11 0 9
	movq	-56(%rbp), %rsi
Ltmp842:
	.loc	11 5868 13 is_stmt 1
	movq	%r13, %rdx
	callq	_bcmp
Ltmp843:
	testl	%eax, %eax
Ltmp844:
	.loc	31 395 25
	je	LBB56_21
Ltmp845:
LBB56_16:
	.loc	31 369 67
	movq	40(%rbx), %rdx
Ltmp846:
	.loc	11 2888 12
	cmpq	%r14, %rdx
Ltmp847:
	.loc	31 369 84
	jb	LBB56_7
Ltmp848:
LBB56_17:
	cmpq	%rdx, %r12
	jb	LBB56_7
Ltmp849:
	.loc	31 369 25 is_stmt 0
	movq	16(%rbx), %rsi
	jmp	LBB56_5
Ltmp850:
LBB56_6:
	.loc	31 402 31 is_stmt 1
	movq	40(%rbx), %rax
	.loc	31 402 17 is_stmt 0
	movq	%rax, 32(%rbx)
Ltmp851:
LBB56_7:
	.loc	30 1107 13 is_stmt 1
	cmpb	$0, 65(%rbx)
	.loc	30 1107 12 is_stmt 0
	jne	LBB56_28
Ltmp852:
	.loc	30 1107 31
	cmpb	$0, 64(%rbx)
	.loc	30 1107 30
	je	LBB56_19
Ltmp853:
	.loc	30 1111 68 is_stmt 1
	movq	(%rbx), %rdi
	.loc	30 1111 80 is_stmt 0
	movq	8(%rbx), %r15
	jmp	LBB56_20
Ltmp854:
	.p2align	4, 0x90
LBB56_19:
	.loc	30 1107 71 is_stmt 1
	movq	(%rbx), %rdi
	.loc	30 1107 60 is_stmt 0
	movq	8(%rbx), %r15
	cmpq	%rdi, %r15
	.loc	30 1107 12
	je	LBB56_28
Ltmp855:
LBB56_20:
	.loc	30 1108 13 is_stmt 1
	movb	$1, 65(%rbx)
Ltmp856:
	.loc	30 1908 23
	subq	%rdi, %r15
Ltmp857:
	.loc	13 158 9
	addq	16(%rbx), %rdi
Ltmp858:
	.file	34 "/rustc/a74d1862d4d87a56244958416fd05976c58ca1a8/src/libcore/ops/function.rs"
	.loc	34 154 5
	movq	%r15, %rsi
	callq	__ZN4core3str21_$LT$impl$u20$str$GT$4trim17h4716d9ca121ae897E
Ltmp859:
	.loc	30 2270 9
	testq	%rdx, %rdx
Ltmp860:
	.file	35 "/rustc/a74d1862d4d87a56244958416fd05976c58ca1a8/src/libcore/iter/traits/iterator.rs"
	.loc	35 1878 32
	je	LBB56_1
Ltmp861:
LBB56_23:
	.loc	35 0 0 is_stmt 0
	movq	%rax, %r12
Ltmp862:
	.loc	35 1878 32
	testq	%rax, %rax
	je	LBB56_1
	jmp	LBB56_24
Ltmp863:
LBB56_21:
	.loc	30 1129 50 is_stmt 1
	movq	(%rbx), %rax
Ltmp864:
	.loc	30 0 50 is_stmt 0
	movq	-64(%rbp), %rdi
Ltmp865:
	.loc	13 158 9 is_stmt 1
	addq	%rax, %rdi
Ltmp866:
	.loc	30 1908 23
	subq	%rax, %r15
Ltmp867:
	.loc	30 1130 17
	movq	%r14, (%rbx)
Ltmp868:
	.loc	34 154 5
	movq	%r15, %rsi
	callq	__ZN4core3str21_$LT$impl$u20$str$GT$4trim17h4716d9ca121ae897E
Ltmp869:
	.loc	30 2270 9
	testq	%rdx, %rdx
	jne	LBB56_23
	jmp	LBB56_1
Ltmp870:
LBB56_28:
	.loc	30 0 9 is_stmt 0
	movq	-48(%rbp), %rax
Ltmp871:
	.loc	3 459 21 is_stmt 1
	movq	$0, (%rax)
	jmp	LBB56_26
Ltmp872:
LBB56_24:
	.loc	33 0 0 is_stmt 0
	movq	%rdx, %r14
Ltmp873:
	.loc	7 80 5 is_stmt 1
	movl	$1, %esi
	movq	%rdx, %rdi
	callq	___rust_alloc
Ltmp874:
	.loc	9 852 13
	testq	%rax, %rax
	je	LBB56_29
Ltmp875:
	.loc	14 0 0 is_stmt 0
	movq	%rax, %rbx
Ltmp876:
	.loc	15 2058 5 is_stmt 1
	movq	%rax, %rdi
	movq	%r12, %rsi
	movq	%r14, %rdx
	callq	_memcpy
	movq	-48(%rbp), %rax
Ltmp877:
	.loc	3 458 24
	movq	%rbx, (%rax)
	movq	%r14, 8(%rax)
	movq	%r14, 16(%rax)
Ltmp878:
LBB56_26:
	.loc	33 805 6
	addq	$24, %rsp
	popq	%rbx
	popq	%r12
	popq	%r13
	popq	%r14
	popq	%r15
	popq	%rbp
	retq
LBB56_27:
Ltmp879:
	.loc	11 2919 13
	leaq	l___unnamed_35(%rip), %rdx
	movl	$4, %esi
	movq	%r13, %rdi
	callq	__ZN4core5slice20slice_index_len_fail17h550a313151a85135E
Ltmp880:
LBB56_29:
	.loc	9 853 23
	movl	$1, %esi
	movq	%r14, %rdi
	callq	__ZN5alloc7raw_vec19RawVec$LT$T$C$A$GT$11allocate_in28_$u7b$$u7b$closure$u7d$$u7d$17h6b1f83c4246c6b24E
Ltmp881:
Lfunc_end56:
	.cfi_endproc

	.globl	__ZN59_$LT$autocfg..error..Error$u20$as$u20$std..error..Error$GT$11description17hf9dbeac46b7ec5c2E
	.p2align	4, 0x90
__ZN59_$LT$autocfg..error..Error$u20$as$u20$std..error..Error$GT$11description17hf9dbeac46b7ec5c2E:
Lfunc_begin57:
	.file	36 "/Users/yingyuhang/.cargo/registry/src/github.com-1ecc6299db9ec823/autocfg-1.0.0/src/error.rs"
	.loc	36 14 0
	.cfi_startproc
	pushq	%rbp
	.cfi_def_cfa_offset 16
	.cfi_offset %rbp, -16
	movq	%rsp, %rbp
	.cfi_def_cfa_register %rbp
Ltmp882:
	.loc	36 16 6 prologue_end
	leaq	l___unnamed_36(%rip), %rax
	movl	$13, %edx
	popq	%rbp
	retq
Ltmp883:
Lfunc_end57:
	.cfi_endproc

	.globl	__ZN59_$LT$autocfg..error..Error$u20$as$u20$std..error..Error$GT$5cause17hd8ca2a10a88bd35aE
	.p2align	4, 0x90
__ZN59_$LT$autocfg..error..Error$u20$as$u20$std..error..Error$GT$5cause17hd8ca2a10a88bd35aE:
Lfunc_begin58:
	.loc	36 18 0
	.cfi_startproc
	pushq	%rbp
	.cfi_def_cfa_offset 16
	.cfi_offset %rbp, -16
	movq	%rsp, %rbp
	.cfi_def_cfa_register %rbp
Ltmp884:
	.loc	36 20 13 prologue_end
	movzbl	(%rdi), %ecx
	xorl	%eax, %eax
	leaq	LJTI58_0(%rip), %rdx
	movslq	(%rdx,%rcx,4), %rcx
	addq	%rdx, %rcx
	jmpq	*%rcx
Ltmp885:
LBB58_1:
	.loc	36 20 27 is_stmt 0
	addq	$8, %rdi
Ltmp886:
	.loc	36 0 27
	leaq	l___unnamed_8(%rip), %rdx
	jmp	LBB58_4
LBB58_2:
Ltmp887:
	.loc	36 21 28 is_stmt 1
	incq	%rdi
Ltmp888:
	.loc	36 0 28 is_stmt 0
	leaq	l___unnamed_7(%rip), %rdx
	jmp	LBB58_4
LBB58_3:
Ltmp889:
	.loc	36 22 29 is_stmt 1
	addq	$8, %rdi
Ltmp890:
	.loc	36 0 29 is_stmt 0
	leaq	l___unnamed_6(%rip), %rdx
LBB58_4:
	movq	%rdi, %rax
LBB58_5:
	.loc	36 25 6 is_stmt 1
	popq	%rbp
	retq
Ltmp891:
Lfunc_end58:
	.cfi_endproc
	.p2align	2, 0x90
	.data_region jt32
.set L58_0_set_1, LBB58_1-LJTI58_0
.set L58_0_set_2, LBB58_2-LJTI58_0
.set L58_0_set_3, LBB58_3-LJTI58_0
.set L58_0_set_5, LBB58_5-LJTI58_0
LJTI58_0:
	.long	L58_0_set_1
	.long	L58_0_set_2
	.long	L58_0_set_3
	.long	L58_0_set_5
	.end_data_region

	.globl	__ZN60_$LT$autocfg..error..Error$u20$as$u20$core..fmt..Display$GT$3fmt17h0ce12d38074abc2fE
	.p2align	4, 0x90
__ZN60_$LT$autocfg..error..Error$u20$as$u20$core..fmt..Display$GT$3fmt17h0ce12d38074abc2fE:
Lfunc_begin59:
	.loc	36 29 0
	.cfi_startproc
	pushq	%rbp
	.cfi_def_cfa_offset 16
	.cfi_offset %rbp, -16
	movq	%rsp, %rbp
	.cfi_def_cfa_register %rbp
	movq	%rsi, %rdx
Ltmp892:
	.loc	36 31 13 prologue_end
	movzbl	(%rdi), %eax
	leaq	LJTI59_0(%rip), %rcx
	movslq	(%rcx,%rax,4), %rax
	addq	%rcx, %rax
	jmpq	*%rax
Ltmp893:
LBB59_2:
	.loc	36 31 27 is_stmt 0
	addq	$8, %rdi
Ltmp894:
	.loc	36 31 37
	movq	%rdx, %rsi
	popq	%rbp
	jmp	__ZN60_$LT$std..io..error..Error$u20$as$u20$core..fmt..Display$GT$3fmt17hd5a23906ccc4fffdE
Ltmp895:
LBB59_4:
	.loc	36 33 29 is_stmt 1
	addq	$8, %rdi
Ltmp896:
	.loc	36 33 39 is_stmt 0
	movq	%rdx, %rsi
	popq	%rbp
	jmp	__ZN59_$LT$core..str..Utf8Error$u20$as$u20$core..fmt..Display$GT$3fmt17h9024978efc80f5caE
Ltmp897:
LBB59_1:
	.loc	36 34 30 is_stmt 1
	movq	8(%rdi), %rax
Ltmp898:
	movq	16(%rdi), %rsi
Ltmp899:
	.loc	36 34 36 is_stmt 0
	movq	%rax, %rdi
Ltmp900:
	popq	%rbp
	jmp	__ZN42_$LT$str$u20$as$u20$core..fmt..Display$GT$3fmt17hd4dee1c1c4ccf892E
Ltmp901:
LBB59_3:
	.loc	36 32 28 is_stmt 1
	incq	%rdi
Ltmp902:
	.loc	36 32 38 is_stmt 0
	movq	%rdx, %rsi
	popq	%rbp
	jmp	__ZN63_$LT$core..num..ParseIntError$u20$as$u20$core..fmt..Display$GT$3fmt17heb1569ad65640c9bE
Ltmp903:
Lfunc_end59:
	.cfi_endproc
	.p2align	2, 0x90
	.data_region jt32
.set L59_0_set_2, LBB59_2-LJTI59_0
.set L59_0_set_3, LBB59_3-LJTI59_0
.set L59_0_set_4, LBB59_4-LJTI59_0
.set L59_0_set_1, LBB59_1-LJTI59_0
LJTI59_0:
	.long	L59_0_set_2
	.long	L59_0_set_3
	.long	L59_0_set_4
	.long	L59_0_set_1
	.end_data_region

	.globl	__ZN7autocfg5error7from_io17h88169a88db2c989cE
	.p2align	4, 0x90
__ZN7autocfg5error7from_io17h88169a88db2c989cE:
Lfunc_begin60:
	.loc	36 47 0 is_stmt 1
	.cfi_startproc
	pushq	%rbp
	.cfi_def_cfa_offset 16
	.cfi_offset %rbp, -16
	movq	%rsp, %rbp
	.cfi_def_cfa_register %rbp
	subq	$23, %rsp
	movq	%rdi, %rax
Ltmp904:
	.loc	36 49 15 prologue_end
	movq	(%rsi), %rcx
	movq	8(%rsi), %rdx
	movq	%rdx, -8(%rbp)
	movq	%rcx, -16(%rbp)
	.loc	36 48 5
	movb	$0, (%rdi)
	movq	-23(%rbp), %rcx
	movq	-15(%rbp), %rdx
	movq	%rcx, 1(%rdi)
	movq	%rdx, 9(%rdi)
	movq	-8(%rbp), %rcx
	movq	%rcx, 16(%rdi)
	.loc	36 51 2
	addq	$23, %rsp
	popq	%rbp
	retq
Ltmp905:
Lfunc_end60:
	.cfi_endproc

	.globl	__ZN7autocfg5error8from_str17h8ff56760839ddd31E
	.p2align	4, 0x90
__ZN7autocfg5error8from_str17h8ff56760839ddd31E:
Lfunc_begin61:
	.loc	36 65 0
	.cfi_startproc
	pushq	%rbp
	.cfi_def_cfa_offset 16
	.cfi_offset %rbp, -16
	movq	%rsp, %rbp
	.cfi_def_cfa_register %rbp
	movq	%rdi, %rax
Ltmp906:
	.loc	36 66 5 prologue_end
	movb	$3, (%rdi)
	movq	%rsi, 8(%rdi)
	movq	%rdx, 16(%rdi)
	.loc	36 69 2
	popq	%rbp
	retq
Ltmp907:
Lfunc_end61:
	.cfi_endproc

	.section	__TEXT,__literal16,16byte_literals
	.p2align	4
LCPI62_0:
	.quad	1
	.quad	3
LCPI62_1:
	.quad	1
	.quad	2
	.section	__TEXT,__text,regular,pure_instructions
	.globl	__ZN7autocfg7version7Version10from_rustc17h901be2cdd3f0435bE
	.p2align	4, 0x90
__ZN7autocfg7version7Version10from_rustc17h901be2cdd3f0435bE:
Lfunc_begin62:
	.loc	24 25 0
	.cfi_startproc
	.cfi_personality 155, _rust_eh_personality
	.cfi_lsda 16, Lexception8
	pushq	%rbp
	.cfi_def_cfa_offset 16
	.cfi_offset %rbp, -16
	movq	%rsp, %rbp
	.cfi_def_cfa_register %rbp
	pushq	%r15
	pushq	%r14
	pushq	%r13
	pushq	%r12
	pushq	%rbx
	subq	$376, %rsp
	.cfi_offset %rbx, -56
	.cfi_offset %r12, -48
	.cfi_offset %r13, -40
	.cfi_offset %r14, -32
	.cfi_offset %r15, -24
	movq	%rdi, %r12
Ltmp957:
	.loc	22 510 9 prologue_end
	movq	%rsi, %rdi
Ltmp958:
	movq	%rdx, %rsi
Ltmp959:
	callq	__ZN87_$LT$std..path..Path$u20$as$u20$core..convert..AsRef$LT$std..ffi..os_str..OsStr$GT$$GT$6as_ref17h08e5bd9171057244E
Ltmp960:
	.loc	22 0 9 is_stmt 0
	leaq	-312(%rbp), %rdi
Ltmp961:
	.file	37 "/rustc/a74d1862d4d87a56244958416fd05976c58ca1a8/src/libstd/process.rs"
	.loc	37 501 26 is_stmt 1
	movq	%rax, %rsi
	callq	__ZN3std3sys4unix7process14process_common7Command3new17hcd746a384cbb0b47E
Ltmp962:
Ltmp908:
	.loc	22 510 9
	leaq	l___unnamed_37(%rip), %rdi
	movl	$9, %esi
	callq	__ZN95_$LT$std..ffi..os_str..OsStr$u20$as$u20$core..convert..AsRef$LT$std..ffi..os_str..OsStr$GT$$GT$6as_ref17h446c7b9305eed47bE
Ltmp909:
Ltmp963:
Ltmp910:
	.loc	22 0 9 is_stmt 0
	leaq	-312(%rbp), %rdi
	.loc	37 542 9 is_stmt 1
	movq	%rax, %rsi
	callq	__ZN3std3sys4unix7process14process_common7Command3arg17hc476c471a9efd12bE
Ltmp911:
Ltmp964:
Ltmp912:
	.loc	22 510 9
	leaq	l___unnamed_38(%rip), %rdi
	movl	$9, %esi
	callq	__ZN95_$LT$std..ffi..os_str..OsStr$u20$as$u20$core..convert..AsRef$LT$std..ffi..os_str..OsStr$GT$$GT$6as_ref17h446c7b9305eed47bE
Ltmp913:
Ltmp965:
Ltmp914:
	.loc	22 0 9 is_stmt 0
	leaq	-312(%rbp), %rdi
	.loc	37 542 9 is_stmt 1
	movq	%rax, %rsi
	callq	__ZN3std3sys4unix7process14process_common7Command3arg17hc476c471a9efd12bE
Ltmp915:
Ltmp966:
Ltmp916:
	.loc	37 0 9 is_stmt 0
	leaq	-376(%rbp), %rdi
	leaq	-312(%rbp), %rsi
	.loc	24 27 27 is_stmt 1
	callq	__ZN3std7process7Command6output17h3119df81721f3b73E
Ltmp917:
Ltmp967:
	.loc	9 611 13
	cmpq	$1, -376(%rbp)
	jne	LBB62_7
Ltmp968:
	.loc	36 49 15
	movups	-368(%rbp), %xmm0
Ltmp969:
	.loc	24 27 22
	movb	$0, 8(%r12)
	movups	%xmm0, 16(%r12)
	movq	$1, (%r12)
	leaq	-312(%rbp), %rdi
Ltmp970:
	.loc	24 30 38
	callq	__ZN4core3ptr13drop_in_place17hb6f0cbfeb0680e22E
	jmp	LBB62_102
LBB62_7:
Ltmp971:
	.loc	9 611 22
	movb	-368(%rbp), %al
	movl	-367(%rbp), %r8d
	movzbl	-361(%rbp), %r9d
	movzwl	-363(%rbp), %esi
	movups	-360(%rbp), %xmm0
	movq	-344(%rbp), %rdi
	movq	%rdi, -408(%rbp)
	movq	-336(%rbp), %rbx
	movq	%rbx, -400(%rbp)
	movq	-328(%rbp), %rcx
	movq	%rcx, -392(%rbp)
	movq	-320(%rbp), %rdx
	movq	%rdx, -384(%rbp)
Ltmp972:
	.loc	24 27 22
	movb	%al, -112(%rbp)
	movw	%si, -107(%rbp)
	movb	%r9b, -105(%rbp)
	movl	%r8d, -111(%rbp)
	movups	%xmm0, -104(%rbp)
Ltmp973:
	movq	%rdi, -88(%rbp)
	movq	%rbx, -80(%rbp)
	movq	%rcx, -72(%rbp)
	movq	%rdx, -64(%rbp)
Ltmp919:
	leaq	-312(%rbp), %rdi
Ltmp974:
	.loc	24 30 38
	callq	__ZN4core3ptr13drop_in_place17hb6f0cbfeb0680e22E
Ltmp920:
Ltmp975:
	.loc	24 31 13
	leaq	-64(%rbp), %rdi
Ltmp921:
	callq	__ZN3std7process10ExitStatus7success17h2b8b99214fbc7387E
Ltmp922:
	.loc	24 31 9 is_stmt 0
	testb	%al, %al
	je	LBB62_10
Ltmp976:
	.loc	18 814 19 is_stmt 1
	movq	-112(%rbp), %rsi
Ltmp977:
	.loc	18 1966 55
	movq	-96(%rbp), %rdx
Ltmp923:
	leaq	-312(%rbp), %rdi
Ltmp978:
	.loc	24 34 27
	callq	__ZN4core3str9from_utf817he06957962f38305fE
Ltmp924:
Ltmp979:
	.loc	9 0 0 is_stmt 0
	movq	-304(%rbp), %rcx
	.loc	9 611 13 is_stmt 1
	cmpq	$1, -312(%rbp)
	.loc	9 0 0 is_stmt 0
	movq	-296(%rbp), %rax
Ltmp980:
	.loc	9 611 13
	jne	LBB62_15
Ltmp981:
	.loc	24 34 22 is_stmt 1
	movq	%rcx, 16(%r12)
	movq	%rax, 24(%r12)
	movaps	LCPI62_1(%rip), %xmm0
Ltmp982:
	.loc	24 0 0 is_stmt 0
	movups	%xmm0, (%r12)
Ltmp983:
	movq	-112(%rbp), %rdi
Ltmp984:
	testq	%rdi, %rdi
	jne	LBB62_97
	jmp	LBB62_99
Ltmp985:
LBB62_10:
	.loc	24 32 20 is_stmt 1
	movb	$3, 8(%r12)
	leaq	l___unnamed_39(%rip), %rax
	movq	%rax, 16(%r12)
	movq	$23, 24(%r12)
	.loc	24 0 0 is_stmt 0
	movq	$1, (%r12)
Ltmp986:
	movq	-112(%rbp), %rdi
Ltmp987:
	testq	%rdi, %rdi
	je	LBB62_99
Ltmp988:
LBB62_97:
	movq	-104(%rbp), %rsi
Ltmp989:
	testq	%rsi, %rsi
	je	LBB62_99
Ltmp990:
	movl	$1, %edx
	callq	___rust_dealloc
Ltmp991:
LBB62_99:
	movq	-88(%rbp), %rdi
Ltmp992:
	testq	%rdi, %rdi
	je	LBB62_102
Ltmp993:
	movq	-80(%rbp), %rsi
Ltmp994:
	testq	%rsi, %rsi
	je	LBB62_102
Ltmp995:
	movl	$1, %edx
	callq	___rust_dealloc
Ltmp996:
LBB62_102:
	.loc	24 59 6 is_stmt 1
	movq	%r12, %rax
	addq	$376, %rsp
	popq	%rbx
	popq	%r12
	popq	%r13
	popq	%r14
	popq	%r15
	popq	%rbp
	retq
LBB62_15:
Ltmp997:
	.loc	24 0 6 is_stmt 0
	movq	%r12, -48(%rbp)
Ltmp998:
	.loc	30 2977 9 is_stmt 1
	movq	$0, -312(%rbp)
	movq	%rax, -304(%rbp)
Ltmp999:
	movq	%rcx, -296(%rbp)
	movq	%rax, -288(%rbp)
	movq	$0, -280(%rbp)
	movq	%rax, -272(%rbp)
	movq	$1, -264(%rbp)
	movabsq	$42949672970, %rax
Ltmp1000:
	movq	%rax, -256(%rbp)
	movw	$0, -248(%rbp)
	xorl	%r12d, %r12d
Ltmp1001:
	.loc	30 0 9 is_stmt 0
	leaq	l___unnamed_40(%rip), %rsi
	movabsq	$4207896288998221170, %rdi
Ltmp1002:
	.loc	30 1121 12 is_stmt 1
	xorl	%eax, %eax
Ltmp1003:
	testb	%al, %al
	jne	LBB62_18
	jmp	LBB62_19
Ltmp1004:
	.p2align	4, 0x90
LBB62_16:
	movb	-247(%rbp), %al
Ltmp1005:
	testb	%al, %al
	.loc	30 1121 9 is_stmt 0
	jne	LBB62_18
Ltmp1006:
LBB62_19:
	.loc	31 369 67 is_stmt 1
	movq	-272(%rbp), %rax
Ltmp1007:
	.loc	11 2888 12
	movq	%rax, %rdx
	subq	%r12, %rdx
Ltmp1008:
	.loc	31 369 84
	jb	LBB62_34
Ltmp1009:
	cmpq	%rax, -288(%rbp)
	jb	LBB62_34
Ltmp1010:
	.loc	30 0 0 is_stmt 0
	movq	-296(%rbp), %r15
Ltmp1011:
	.loc	31 372 71 is_stmt 1
	movq	-264(%rbp), %rax
Ltmp1012:
	.loc	11 2888 12
	addq	%r15, %r12
Ltmp1013:
	.loc	31 373 34
	leaq	-312(%rbp), %rcx
Ltmp1014:
	movzbl	59(%rax,%rcx), %edi
Ltmp925:
	movq	%r12, %rsi
	callq	__ZN4core5slice6memchr6memchr17h319ffdabcbdf42caE
Ltmp1015:
Ltmp926:
	.p2align	4, 0x90
LBB62_22:
	.loc	31 373 20 is_stmt 0
	cmpq	$1, %rax
	jne	LBB62_23
Ltmp1016:
	.loc	31 391 17 is_stmt 1
	movq	-280(%rbp), %rax
	.loc	31 392 35
	movq	-264(%rbp), %rbx
Ltmp1017:
	.loc	31 391 17
	leaq	1(%rdx,%rax), %r12
Ltmp1018:
	movq	%r12, -280(%rbp)
	.loc	31 392 20
	movq	%r12, %r13
	subq	%rbx, %r13
	.loc	31 392 17 is_stmt 0
	jae	LBB62_26
Ltmp1019:
	.loc	31 369 25 is_stmt 1
	movq	-288(%rbp), %r14
Ltmp1020:
	.loc	31 369 67 is_stmt 0
	movq	-272(%rbp), %rax
Ltmp1021:
	.loc	11 2888 12 is_stmt 1
	movq	%rax, %rdx
	subq	%r12, %rdx
	jae	LBB62_37
	jmp	LBB62_33
Ltmp1022:
	.p2align	4, 0x90
LBB62_26:
	.loc	31 394 42
	movq	-288(%rbp), %r14
Ltmp1023:
	.loc	11 2888 37
	cmpq	%r12, %r14
Ltmp1024:
	.loc	31 394 28
	jb	LBB62_32
Ltmp1025:
	.loc	11 2918 19
	cmpq	$5, %rbx
	.loc	11 2918 16 is_stmt 0
	jae	LBB62_28
Ltmp1026:
	.loc	11 0 16
	movq	-296(%rbp), %rdi
	addq	%r13, %rdi
Ltmp1027:
	.loc	11 5863 12 is_stmt 1
	leaq	-252(%rbp), %rax
	cmpq	%rax, %rdi
	.loc	11 5863 9 is_stmt 0
	je	LBB62_41
Ltmp1028:
	.loc	11 5868 13 is_stmt 1
	leaq	-252(%rbp), %rsi
	movq	%rbx, %rdx
Ltmp1029:
	callq	_bcmp
Ltmp1030:
	testl	%eax, %eax
Ltmp1031:
	.loc	31 395 25
	je	LBB62_41
Ltmp1032:
LBB62_32:
	.loc	31 369 67
	movq	-272(%rbp), %rax
Ltmp1033:
	.loc	11 2888 12
	movq	%rax, %rdx
	subq	%r12, %rdx
Ltmp1034:
	.loc	31 369 84
	jb	LBB62_33
Ltmp1035:
LBB62_37:
	cmpq	%rax, %r14
	jb	LBB62_33
Ltmp1036:
	.loc	11 2888 12
	addq	-296(%rbp), %r12
Ltmp1037:
	.loc	31 373 34
	leaq	-312(%rbp), %rax
	movzbl	59(%rbx,%rax), %edi
Ltmp930:
	movq	%r12, %rsi
	callq	__ZN4core5slice6memchr6memchr17h319ffdabcbdf42caE
Ltmp1038:
Ltmp931:
	.loc	31 0 34 is_stmt 0
	jmp	LBB62_22
Ltmp1039:
	.p2align	4, 0x90
LBB62_23:
	.loc	31 402 31 is_stmt 1
	movq	-272(%rbp), %r12
Ltmp1040:
	.loc	31 402 17 is_stmt 0
	movq	%r12, -280(%rbp)
Ltmp1041:
LBB62_33:
	.loc	31 0 17
	leaq	l___unnamed_40(%rip), %rsi
	movabsq	$4207896288998221170, %rdi
Ltmp1042:
LBB62_34:
	.loc	30 1107 13 is_stmt 1
	cmpb	$0, -247(%rbp)
	.loc	30 1107 12 is_stmt 0
	je	LBB62_35
Ltmp1043:
LBB62_18:
	.loc	30 0 12
	xorl	%r15d, %r15d
Ltmp1044:
	.loc	35 1877 19 is_stmt 1
	testq	%r15, %r15
	je	LBB62_67
Ltmp1045:
LBB62_46:
	.loc	11 1430 9
	cmpq	$9, %rdx
	jb	LBB62_16
Ltmp1046:
	.loc	11 5863 12
	cmpq	%rsi, %r15
	.loc	11 5863 9 is_stmt 0
	je	LBB62_49
Ltmp1047:
	.loc	11 0 9
	movq	(%r15), %rax
Ltmp1048:
	.loc	11 5868 13 is_stmt 1
	xorq	%rdi, %rax
	movzbl	8(%r15), %ecx
	xorq	$32, %rcx
	orq	%rax, %rcx
	jne	LBB62_16
	jmp	LBB62_49
Ltmp1049:
	.p2align	4, 0x90
LBB62_35:
	.loc	30 1107 31
	cmpb	$0, -248(%rbp)
	.loc	30 1107 30 is_stmt 0
	je	LBB62_39
Ltmp1050:
	.loc	30 1111 68 is_stmt 1
	movq	-312(%rbp), %r15
	.loc	30 1111 80 is_stmt 0
	movq	-304(%rbp), %r13
	jmp	LBB62_40
Ltmp1051:
LBB62_39:
	.loc	30 1107 71 is_stmt 1
	movq	-312(%rbp), %r15
	.loc	30 1107 60 is_stmt 0
	movq	-304(%rbp), %r13
	cmpq	%r15, %r13
	.loc	30 1107 12
	je	LBB62_18
Ltmp1052:
LBB62_40:
	.loc	30 1108 13 is_stmt 1
	movb	$1, -247(%rbp)
Ltmp1053:
	.loc	30 1908 23
	subq	%r15, %r13
Ltmp1054:
	.loc	13 158 9
	addq	-296(%rbp), %r15
Ltmp1055:
	.loc	30 1518 12
	testq	%r13, %r13
	je	LBB62_43
Ltmp1056:
LBB62_44:
	.loc	30 1518 37 is_stmt 0
	leaq	-1(%r13), %rdx
	.loc	30 1518 21
	cmpb	$13, -1(%r15,%r13)
	.loc	30 1518 12
	cmovneq	%r13, %rdx
Ltmp1057:
	.loc	35 1877 19 is_stmt 1
	testq	%r15, %r15
	jne	LBB62_46
	jmp	LBB62_67
Ltmp1058:
LBB62_41:
	.loc	30 1129 50
	movq	-312(%rbp), %rax
Ltmp1059:
	.loc	13 158 9
	addq	%rax, %r15
Ltmp1060:
	.loc	30 1908 23
	subq	%rax, %r13
Ltmp1061:
	.loc	30 1130 17
	movq	%r12, -312(%rbp)
	leaq	l___unnamed_40(%rip), %rsi
	movabsq	$4207896288998221170, %rdi
Ltmp1062:
	.loc	30 1518 12
	testq	%r13, %r13
	jne	LBB62_44
Ltmp1063:
LBB62_43:
	.loc	30 0 12 is_stmt 0
	xorl	%edx, %edx
Ltmp1064:
	.loc	35 1877 19 is_stmt 1
	testq	%r15, %r15
	jne	LBB62_46
Ltmp1065:
LBB62_67:
	.loc	35 0 19 is_stmt 0
	movq	-48(%rbp), %r12
	.loc	24 39 28 is_stmt 1
	movb	$3, 8(%r12)
	leaq	l___unnamed_41(%rip), %rax
	movq	%rax, 16(%r12)
	movq	$28, 24(%r12)
Ltmp1066:
	.loc	24 0 0 is_stmt 0
	movq	$1, (%r12)
Ltmp1067:
	movq	-112(%rbp), %rdi
Ltmp1068:
	testq	%rdi, %rdi
	jne	LBB62_97
	jmp	LBB62_99
Ltmp1069:
LBB62_49:
	movq	%r15, -408(%rbp)
	movq	%rdx, -400(%rbp)
Ltmp1070:
	.loc	30 2051 18 is_stmt 1
	movq	$9, -120(%rbp)
	.loc	30 2051 25 is_stmt 0
	movq	%rdx, -128(%rbp)
Ltmp1071:
	.loc	30 2303 26 is_stmt 1
	cmpq	$9, %rdx
	.loc	30 2303 12 is_stmt 0
	je	LBB62_52
Ltmp1072:
	.loc	30 2309 25 is_stmt 1
	cmpb	$-65, 9(%r15)
Ltmp1073:
	.loc	30 2021 13
	jle	LBB62_51
Ltmp1074:
LBB62_52:
	.loc	13 158 9
	addq	$9, %r15
Ltmp1075:
	.loc	30 2040 23
	addq	$-9, %rdx
Ltmp1076:
	.loc	31 501 9
	movq	%r15, -312(%rbp)
	movq	%rdx, -304(%rbp)
	movq	$0, -296(%rbp)
	movq	%rdx, -288(%rbp)
	movabsq	$193273528365, %rax
	movq	%rax, -272(%rbp)
	movq	$1, -280(%rbp)
	movl	$1, %r13d
	xorl	%ebx, %ebx
Ltmp1077:
	.loc	31 369 25
	movq	%r15, %rsi
	movq	%rdx, -56(%rbp)
Ltmp1078:
	.loc	31 0 25 is_stmt 0
	movq	-48(%rbp), %r12
Ltmp1079:
	.p2align	4, 0x90
LBB62_53:
	.loc	11 2888 12 is_stmt 1
	addq	%rbx, %rsi
Ltmp1080:
	subq	%rbx, %rdx
Ltmp1081:
	.loc	31 373 34
	leaq	-312(%rbp), %rax
	movzbl	43(%r13,%rax), %edi
Ltmp935:
	callq	__ZN4core5slice6memchr6memchr17h319ffdabcbdf42caE
Ltmp1082:
Ltmp936:
	.loc	31 373 20 is_stmt 0
	cmpq	$1, %rax
	jne	LBB62_55
Ltmp1083:
	.loc	31 391 17 is_stmt 1
	movq	-296(%rbp), %rax
	.loc	31 392 35
	movq	-280(%rbp), %r13
Ltmp1084:
	.loc	31 391 17
	leaq	1(%rdx,%rax), %rbx
Ltmp1085:
	movq	%rbx, -296(%rbp)
	.loc	31 392 20
	movq	%rbx, %r12
	subq	%r13, %r12
	.loc	31 392 17 is_stmt 0
	jae	LBB62_59
Ltmp1086:
	.loc	31 369 25 is_stmt 1
	movq	-304(%rbp), %r14
Ltmp1087:
	.loc	31 369 67 is_stmt 0
	movq	-288(%rbp), %rdx
Ltmp1088:
	.loc	11 2888 12 is_stmt 1
	cmpq	%rbx, %rdx
	movq	-48(%rbp), %r12
	jae	LBB62_65
	jmp	LBB62_56
Ltmp1089:
	.p2align	4, 0x90
LBB62_59:
	.loc	31 394 42
	movq	-304(%rbp), %r14
Ltmp1090:
	.loc	11 2888 37
	cmpq	%rbx, %r14
Ltmp1091:
	.loc	31 394 28
	jb	LBB62_64
Ltmp1092:
	.loc	11 2918 19
	cmpq	$5, %r13
	.loc	11 2918 16 is_stmt 0
	jae	LBB62_61
Ltmp1093:
	.loc	11 0 16
	movq	-312(%rbp), %rdi
	addq	%r12, %rdi
Ltmp1094:
	.loc	11 5863 12 is_stmt 1
	leaq	-268(%rbp), %rax
	cmpq	%rax, %rdi
	.loc	11 5863 9 is_stmt 0
	je	LBB62_68
Ltmp1095:
	.loc	11 5868 13 is_stmt 1
	leaq	-268(%rbp), %rsi
	movq	%r13, %rdx
	callq	_bcmp
Ltmp1096:
	testl	%eax, %eax
Ltmp1097:
	.loc	31 395 25
	je	LBB62_68
Ltmp1098:
LBB62_64:
	.loc	31 369 67
	movq	-288(%rbp), %rdx
Ltmp1099:
	.loc	11 2888 12
	cmpq	%rbx, %rdx
	movq	-48(%rbp), %r12
Ltmp1100:
	.loc	31 369 84
	jb	LBB62_56
Ltmp1101:
LBB62_65:
	cmpq	%rdx, %r14
	jb	LBB62_56
Ltmp1102:
	.loc	31 369 25 is_stmt 0
	movq	-312(%rbp), %rsi
	jmp	LBB62_53
Ltmp1103:
LBB62_55:
	.loc	31 402 31 is_stmt 1
	movq	-288(%rbp), %rax
	.loc	31 402 17 is_stmt 0
	movq	%rax, -296(%rbp)
Ltmp1104:
LBB62_56:
	.loc	31 0 17
	movq	-56(%rbp), %rax
Ltmp1105:
LBB62_74:
	.loc	30 3546 9 is_stmt 1
	movq	$0, -312(%rbp)
	movq	%rax, -304(%rbp)
	movq	%r15, -296(%rbp)
	movq	%rax, -288(%rbp)
	movq	$0, -280(%rbp)
	movq	%rax, -272(%rbp)
	movq	$1, -264(%rbp)
	movabsq	$197568495662, %rax
Ltmp1106:
	movq	%rax, -256(%rbp)
	movw	$1, -248(%rbp)
	movq	$3, -240(%rbp)
Ltmp942:
	leaq	-312(%rbp), %rdi
Ltmp1107:
	.loc	24 50 26
	callq	__ZN85_$LT$core..str..SplitN$LT$P$GT$$u20$as$u20$core..iter..traits..iterator..Iterator$GT$4next17hc2369df72b7d7dadE
Ltmp943:
Ltmp1108:
	.loc	24 0 0 is_stmt 0
	movq	%rax, %r14
Ltmp1109:
	.loc	3 540 13 is_stmt 1
	testq	%rax, %rax
Ltmp1110:
	je	LBB62_76
Ltmp1111:
	.loc	24 0 0 is_stmt 0
	movq	%rdx, %r13
Ltmp944:
	leaq	-312(%rbp), %rdi
Ltmp1112:
	.loc	24 51 26 is_stmt 1
	callq	__ZN85_$LT$core..str..SplitN$LT$P$GT$$u20$as$u20$core..iter..traits..iterator..Iterator$GT$4next17hc2369df72b7d7dadE
	movq	%rdx, -48(%rbp)
Ltmp945:
Ltmp1113:
	.loc	24 0 0 is_stmt 0
	movq	%rax, %rbx
Ltmp1114:
	.loc	3 540 13 is_stmt 1
	testq	%rax, %rax
Ltmp1115:
	je	LBB62_81
Ltmp1116:
Ltmp946:
	.loc	3 0 13 is_stmt 0
	leaq	-312(%rbp), %rdi
Ltmp1117:
	.loc	24 52 26 is_stmt 1
	callq	__ZN85_$LT$core..str..SplitN$LT$P$GT$$u20$as$u20$core..iter..traits..iterator..Iterator$GT$4next17hc2369df72b7d7dadE
	movq	%rdx, -56(%rbp)
Ltmp947:
Ltmp1118:
	.loc	24 0 0 is_stmt 0
	movq	%rax, %r15
Ltmp1119:
	.loc	3 540 13 is_stmt 1
	testq	%rax, %rax
Ltmp1120:
	je	LBB62_84
Ltmp1121:
Ltmp948:
	.loc	3 0 13 is_stmt 0
	leaq	-376(%rbp), %rdi
Ltmp1122:
	.loc	30 4280 9 is_stmt 1
	movq	%r14, %rsi
	movq	%r13, %rdx
	callq	__ZN4core3num54_$LT$impl$u20$core..str..FromStr$u20$for$u20$usize$GT$8from_str17hde79bf6128128228E
Ltmp949:
Ltmp1123:
	.loc	9 611 13
	cmpb	$1, -376(%rbp)
	jne	LBB62_89
Ltmp1124:
	.loc	9 612 17
	movzbl	-375(%rbp), %eax
Ltmp1125:
	.loc	24 55 13
	shlq	$8, %rax
	orq	$1, %rax
Ltmp1126:
	.loc	24 55 13 is_stmt 0
	movq	%rax, 8(%r12)
	movl	-120(%rbp), %eax
	movl	-117(%rbp), %ecx
	jmp	LBB62_88
Ltmp1127:
LBB62_76:
	.loc	24 0 13
	leaq	l___unnamed_42(%rip), %rax
	jmp	LBB62_77
Ltmp1128:
LBB62_81:
	leaq	l___unnamed_43(%rip), %rax
	jmp	LBB62_77
Ltmp1129:
LBB62_68:
	movq	%r15, -312(%rbp)
	movq	-56(%rbp), %rax
	movq	%rax, -304(%rbp)
Ltmp1130:
	.loc	30 2303 12 is_stmt 1
	testq	%r12, %r12
	je	LBB62_73
Ltmp1131:
	cmpq	%r12, %rax
	je	LBB62_73
Ltmp1132:
	.loc	30 2307 13
	jbe	LBB62_72
Ltmp1133:
	.loc	30 2309 25
	cmpb	$-65, (%r15,%r12)
Ltmp1134:
	.loc	30 1958 13
	jle	LBB62_72
Ltmp1135:
LBB62_73:
	.loc	24 0 0 is_stmt 0
	movq	%r12, %rax
	movq	-48(%rbp), %r12
	jmp	LBB62_74
Ltmp1136:
LBB62_84:
	leaq	l___unnamed_44(%rip), %rax
Ltmp1137:
LBB62_77:
	movq	%rax, 16(%r12)
	movq	$21, 24(%r12)
	movaps	LCPI62_0(%rip), %xmm0
Ltmp1138:
	movups	%xmm0, (%r12)
Ltmp1139:
	movq	-112(%rbp), %rdi
Ltmp1140:
	testq	%rdi, %rdi
	jne	LBB62_97
	jmp	LBB62_99
Ltmp1141:
LBB62_89:
	.loc	9 611 16 is_stmt 1
	movq	-368(%rbp), %r14
Ltmp1142:
Ltmp951:
	.loc	9 0 16 is_stmt 0
	leaq	-376(%rbp), %rdi
Ltmp1143:
	.loc	30 4280 9 is_stmt 1
	movq	%rbx, %rsi
	movq	-48(%rbp), %rdx
	callq	__ZN4core3num54_$LT$impl$u20$core..str..FromStr$u20$for$u20$usize$GT$8from_str17hde79bf6128128228E
Ltmp952:
Ltmp1144:
	.loc	9 611 13
	cmpb	$1, -376(%rbp)
	jne	LBB62_92
Ltmp1145:
	.loc	9 612 17
	movzbl	-375(%rbp), %eax
Ltmp1146:
	.loc	24 56 13
	shlq	$8, %rax
	orq	$1, %rax
Ltmp1147:
	.loc	24 56 13 is_stmt 0
	movq	%rax, 8(%r12)
	movl	-128(%rbp), %eax
	movl	-125(%rbp), %ecx
	jmp	LBB62_88
Ltmp1148:
LBB62_92:
	.loc	9 611 16 is_stmt 1
	movq	-368(%rbp), %rbx
Ltmp1149:
Ltmp954:
	.loc	9 0 16 is_stmt 0
	leaq	-376(%rbp), %rdi
Ltmp1150:
	.loc	30 4280 9 is_stmt 1
	movq	%r15, %rsi
	movq	-56(%rbp), %rdx
	callq	__ZN4core3num54_$LT$impl$u20$core..str..FromStr$u20$for$u20$usize$GT$8from_str17hde79bf6128128228E
Ltmp955:
Ltmp1151:
	.loc	9 611 13
	cmpb	$1, -376(%rbp)
	jne	LBB62_95
Ltmp1152:
	.loc	9 612 17
	movzbl	-375(%rbp), %eax
Ltmp1153:
	.loc	24 57 13
	shlq	$8, %rax
	orq	$1, %rax
Ltmp1154:
	.loc	24 57 13 is_stmt 0
	movq	%rax, 8(%r12)
	movl	-408(%rbp), %eax
	movl	-405(%rbp), %ecx
Ltmp1155:
LBB62_88:
	.loc	24 0 0
	movl	%eax, 17(%r12)
	movl	%ecx, 20(%r12)
	movq	$1, (%r12)
Ltmp1156:
	movq	-112(%rbp), %rdi
Ltmp1157:
	testq	%rdi, %rdi
	jne	LBB62_97
	jmp	LBB62_99
Ltmp1158:
LBB62_95:
	.loc	9 611 16 is_stmt 1
	movq	-368(%rbp), %rax
Ltmp1159:
	.loc	24 54 9
	movq	%r14, 8(%r12)
	movq	%rbx, 16(%r12)
	movq	%rax, 24(%r12)
	movq	$0, (%r12)
Ltmp1160:
	.loc	24 0 0 is_stmt 0
	movq	-112(%rbp), %rdi
Ltmp1161:
	testq	%rdi, %rdi
	jne	LBB62_97
	jmp	LBB62_99
Ltmp1162:
LBB62_28:
Ltmp928:
	.loc	11 2919 13 is_stmt 1
	leaq	l___unnamed_35(%rip), %rdx
Ltmp1163:
	movl	$4, %esi
	movq	%rbx, %rdi
	callq	__ZN4core5slice20slice_index_len_fail17h550a313151a85135E
Ltmp929:
	jmp	LBB62_29
Ltmp1164:
LBB62_61:
Ltmp940:
	.loc	11 2919 13 is_stmt 0
	leaq	l___unnamed_35(%rip), %rdx
	movl	$4, %esi
	movq	%r13, %rdi
	callq	__ZN4core5slice20slice_index_len_fail17h550a313151a85135E
Ltmp941:
Ltmp1165:
LBB62_29:
	.loc	11 0 13
	ud2
LBB62_51:
Ltmp1166:
	leaq	-408(%rbp), %rax
Ltmp1167:
	.loc	3 430 21 is_stmt 1
	movq	%rax, -376(%rbp)
	leaq	-120(%rbp), %rax
	movq	%rax, -368(%rbp)
	leaq	-128(%rbp), %rax
	movq	%rax, -360(%rbp)
Ltmp933:
	leaq	-376(%rbp), %rdi
	callq	__ZN4core3str6traits105_$LT$impl$u20$core..slice..SliceIndex$LT$str$GT$$u20$for$u20$core..ops..range..RangeFrom$LT$usize$GT$$GT$5index28_$u7b$$u7b$closure$u7d$$u7d$17hf16339f573dba075E
Ltmp934:
	jmp	LBB62_29
Ltmp1168:
LBB62_72:
Ltmp938:
	.loc	3 0 21 is_stmt 0
	leaq	-312(%rbp), %rdi
Ltmp1169:
	.loc	3 430 21
	movq	%r12, %rsi
	callq	__ZN4core3str6traits103_$LT$impl$u20$core..slice..SliceIndex$LT$str$GT$$u20$for$u20$core..ops..range..RangeTo$LT$usize$GT$$GT$5index28_$u7b$$u7b$closure$u7d$$u7d$17hd67750a5e58bdb29E
Ltmp939:
	jmp	LBB62_29
Ltmp1170:
LBB62_111:
Ltmp956:
	.loc	3 0 21
	jmp	LBB62_109
Ltmp1171:
LBB62_110:
Ltmp953:
	jmp	LBB62_109
Ltmp1172:
LBB62_107:
Ltmp927:
	jmp	LBB62_109
Ltmp1173:
LBB62_105:
Ltmp937:
	jmp	LBB62_109
Ltmp1174:
LBB62_108:
Ltmp950:
	jmp	LBB62_109
LBB62_106:
Ltmp1175:
Ltmp932:
LBB62_109:
	movq	%rax, %rbx
Ltmp1176:
	leaq	-112(%rbp), %rdi
	.loc	24 59 5 is_stmt 1
	callq	__ZN4core3ptr13drop_in_place17h2726bf41f8faa137E
	movq	%rbx, %rdi
	callq	__Unwind_Resume
	ud2
Ltmp1177:
LBB62_103:
Ltmp918:
	.loc	24 0 5 is_stmt 0
	movq	%rax, %rbx
	leaq	-312(%rbp), %rdi
	.loc	24 30 38 is_stmt 1
	callq	__ZN4core3ptr13drop_in_place17hb6f0cbfeb0680e22E
	movq	%rbx, %rdi
	callq	__Unwind_Resume
	ud2
Ltmp1178:
Lfunc_end62:
	.cfi_endproc
	.file	38 "/rustc/a74d1862d4d87a56244958416fd05976c58ca1a8/src/libcore/internal_macros.rs"
	.section	__TEXT,__gcc_except_tab
	.p2align	2
GCC_except_table62:
Lexception8:
	.byte	255
	.byte	255
	.byte	1
	.uleb128 Lcst_end8-Lcst_begin8
Lcst_begin8:
	.uleb128 Lfunc_begin62-Lfunc_begin62
	.uleb128 Ltmp908-Lfunc_begin62
	.byte	0
	.byte	0
	.uleb128 Ltmp908-Lfunc_begin62
	.uleb128 Ltmp917-Ltmp908
	.uleb128 Ltmp918-Lfunc_begin62
	.byte	0
	.uleb128 Ltmp917-Lfunc_begin62
	.uleb128 Ltmp919-Ltmp917
	.byte	0
	.byte	0
	.uleb128 Ltmp919-Lfunc_begin62
	.uleb128 Ltmp924-Ltmp919
	.uleb128 Ltmp950-Lfunc_begin62
	.byte	0
	.uleb128 Ltmp925-Lfunc_begin62
	.uleb128 Ltmp926-Ltmp925
	.uleb128 Ltmp927-Lfunc_begin62
	.byte	0
	.uleb128 Ltmp930-Lfunc_begin62
	.uleb128 Ltmp931-Ltmp930
	.uleb128 Ltmp932-Lfunc_begin62
	.byte	0
	.uleb128 Ltmp935-Lfunc_begin62
	.uleb128 Ltmp936-Ltmp935
	.uleb128 Ltmp937-Lfunc_begin62
	.byte	0
	.uleb128 Ltmp942-Lfunc_begin62
	.uleb128 Ltmp949-Ltmp942
	.uleb128 Ltmp950-Lfunc_begin62
	.byte	0
	.uleb128 Ltmp951-Lfunc_begin62
	.uleb128 Ltmp952-Ltmp951
	.uleb128 Ltmp953-Lfunc_begin62
	.byte	0
	.uleb128 Ltmp954-Lfunc_begin62
	.uleb128 Ltmp955-Ltmp954
	.uleb128 Ltmp956-Lfunc_begin62
	.byte	0
	.uleb128 Ltmp928-Lfunc_begin62
	.uleb128 Ltmp939-Ltmp928
	.uleb128 Ltmp950-Lfunc_begin62
	.byte	0
	.uleb128 Ltmp939-Lfunc_begin62
	.uleb128 Lfunc_end62-Ltmp939
	.byte	0
	.byte	0
Lcst_end8:
	.p2align	2

	.section	__TEXT,__text,regular,pure_instructions
	.globl	__ZN7autocfg4emit17h9ba7e40c366cf9d5E
	.p2align	4, 0x90
__ZN7autocfg4emit17h9ba7e40c366cf9d5E:
Lfunc_begin63:
	.loc	1 97 0
	.cfi_startproc
	pushq	%rbp
	.cfi_def_cfa_offset 16
	.cfi_offset %rbp, -16
	movq	%rsp, %rbp
	.cfi_def_cfa_register %rbp
	subq	$80, %rsp
	movq	%rdi, -16(%rbp)
	movq	%rsi, -8(%rbp)
	leaq	-16(%rbp), %rax
Ltmp1179:
	.loc	1 98 5 prologue_end
	movq	%rax, -32(%rbp)
	leaq	__ZN44_$LT$$RF$T$u20$as$u20$core..fmt..Display$GT$3fmt17h9f1c5d51f801e50fE(%rip), %rax
	movq	%rax, -24(%rbp)
Ltmp1180:
	.loc	23 328 9
	leaq	l___unnamed_45(%rip), %rax
Ltmp1181:
	movq	%rax, -80(%rbp)
	movq	$2, -72(%rbp)
	movq	$0, -64(%rbp)
	leaq	-32(%rbp), %rax
Ltmp1182:
	movq	%rax, -48(%rbp)
	movq	$1, -40(%rbp)
	leaq	-80(%rbp), %rdi
Ltmp1183:
	.loc	1 98 5
	callq	__ZN3std2io5stdio6_print17hdea2154009b9e479E
	.loc	1 99 2
	addq	$80, %rsp
	popq	%rbp
	retq
Ltmp1184:
Lfunc_end63:
	.cfi_endproc

	.globl	__ZN7autocfg10rerun_path17h9ebdbe0eac811833E
	.p2align	4, 0x90
__ZN7autocfg10rerun_path17h9ebdbe0eac811833E:
Lfunc_begin64:
	.loc	1 107 0
	.cfi_startproc
	pushq	%rbp
	.cfi_def_cfa_offset 16
	.cfi_offset %rbp, -16
	movq	%rsp, %rbp
	.cfi_def_cfa_register %rbp
	subq	$80, %rsp
	movq	%rdi, -16(%rbp)
	movq	%rsi, -8(%rbp)
	leaq	-16(%rbp), %rax
Ltmp1185:
	.loc	1 108 5 prologue_end
	movq	%rax, -32(%rbp)
	leaq	__ZN44_$LT$$RF$T$u20$as$u20$core..fmt..Display$GT$3fmt17h9f1c5d51f801e50fE(%rip), %rax
	movq	%rax, -24(%rbp)
Ltmp1186:
	.loc	23 328 9
	leaq	l___unnamed_46(%rip), %rax
Ltmp1187:
	movq	%rax, -80(%rbp)
	movq	$2, -72(%rbp)
	movq	$0, -64(%rbp)
	leaq	-32(%rbp), %rax
Ltmp1188:
	movq	%rax, -48(%rbp)
	movq	$1, -40(%rbp)
	leaq	-80(%rbp), %rdi
Ltmp1189:
	.loc	1 108 5
	callq	__ZN3std2io5stdio6_print17hdea2154009b9e479E
	.loc	1 109 2
	addq	$80, %rsp
	popq	%rbp
	retq
Ltmp1190:
Lfunc_end64:
	.cfi_endproc

	.globl	__ZN7autocfg9rerun_env17h5b54749118642d8eE
	.p2align	4, 0x90
__ZN7autocfg9rerun_env17h5b54749118642d8eE:
Lfunc_begin65:
	.loc	1 118 0
	.cfi_startproc
	pushq	%rbp
	.cfi_def_cfa_offset 16
	.cfi_offset %rbp, -16
	movq	%rsp, %rbp
	.cfi_def_cfa_register %rbp
	subq	$80, %rsp
	movq	%rdi, -16(%rbp)
	movq	%rsi, -8(%rbp)
	leaq	-16(%rbp), %rax
Ltmp1191:
	.loc	1 119 5 prologue_end
	movq	%rax, -32(%rbp)
	leaq	__ZN44_$LT$$RF$T$u20$as$u20$core..fmt..Display$GT$3fmt17h9f1c5d51f801e50fE(%rip), %rax
	movq	%rax, -24(%rbp)
Ltmp1192:
	.loc	23 328 9
	leaq	l___unnamed_47(%rip), %rax
Ltmp1193:
	movq	%rax, -80(%rbp)
	movq	$2, -72(%rbp)
	movq	$0, -64(%rbp)
	leaq	-32(%rbp), %rax
Ltmp1194:
	movq	%rax, -48(%rbp)
	movq	$1, -40(%rbp)
	leaq	-80(%rbp), %rdi
Ltmp1195:
	.loc	1 119 5
	callq	__ZN3std2io5stdio6_print17hdea2154009b9e479E
	.loc	1 120 2
	addq	$80, %rsp
	popq	%rbp
	retq
Ltmp1196:
Lfunc_end65:
	.cfi_endproc

	.globl	__ZN7autocfg3new17h27aaef3f6341d34dE
	.p2align	4, 0x90
__ZN7autocfg3new17h27aaef3f6341d34dE:
Lfunc_begin66:
	.loc	1 127 0
	.cfi_startproc
	.cfi_personality 155, _rust_eh_personality
	.cfi_lsda 16, Lexception9
	pushq	%rbp
	.cfi_def_cfa_offset 16
	.cfi_offset %rbp, -16
	movq	%rsp, %rbp
	.cfi_def_cfa_register %rbp
	pushq	%rbx
	subq	$168, %rsp
	.cfi_offset %rbx, -24
	movq	%rdi, %rbx
Ltmp1200:
	leaq	-168(%rbp), %rdi
Ltmp1201:
	.loc	1 128 5 prologue_end
	callq	__ZN7autocfg7AutoCfg3new17h7f7997cd4fd93aeeE
Ltmp1202:
	.loc	9 1004 13
	cmpq	$1, -168(%rbp)
	je	LBB66_1
Ltmp1203:
	.loc	9 1004 16 is_stmt 0
	leaq	-160(%rbp), %rsi
	movl	$16, %ecx
	movq	%rbx, %rdi
	rep;movsq (%rsi), %es:(%rdi)
Ltmp1204:
	.loc	1 129 2 is_stmt 1
	movq	%rbx, %rax
	addq	$168, %rsp
	popq	%rbx
	popq	%rbp
	retq
Ltmp1205:
LBB66_1:
	.loc	9 1005 17
	movq	-144(%rbp), %rax
	movq	%rax, -16(%rbp)
	movq	-160(%rbp), %rax
	movq	-152(%rbp), %rcx
	movq	%rcx, -24(%rbp)
	movq	%rax, -32(%rbp)
Ltmp1197:
Ltmp1206:
	.loc	9 1005 23 is_stmt 0
	leaq	l___unnamed_48(%rip), %rdi
	leaq	l___unnamed_3(%rip), %rcx
	leaq	l___unnamed_49(%rip), %r8
	leaq	-32(%rbp), %rdx
	movl	$43, %esi
	callq	__ZN4core6result13unwrap_failed17hb5a510096a5fc85fE
Ltmp1198:
Ltmp1207:
	.loc	9 0 23
	ud2
Ltmp1208:
LBB66_3:
Ltmp1199:
	movq	%rax, %rbx
	leaq	-32(%rbp), %rdi
	.loc	9 1005 87
	callq	__ZN4core3ptr13drop_in_place17h96e8ca521862c534E
	movq	%rbx, %rdi
	callq	__Unwind_Resume
	ud2
Ltmp1209:
Lfunc_end66:
	.cfi_endproc
	.section	__TEXT,__gcc_except_tab
	.p2align	2
GCC_except_table66:
Lexception9:
	.byte	255
	.byte	255
	.byte	1
	.uleb128 Lcst_end9-Lcst_begin9
Lcst_begin9:
	.uleb128 Lfunc_begin66-Lfunc_begin66
	.uleb128 Ltmp1197-Lfunc_begin66
	.byte	0
	.byte	0
	.uleb128 Ltmp1197-Lfunc_begin66
	.uleb128 Ltmp1198-Ltmp1197
	.uleb128 Ltmp1199-Lfunc_begin66
	.byte	0
	.uleb128 Ltmp1198-Lfunc_begin66
	.uleb128 Lfunc_end66-Ltmp1198
	.byte	0
	.byte	0
Lcst_end9:
	.p2align	2

	.section	__TEXT,__literal16,16byte_literals
	.p2align	4
LCPI67_0:
	.quad	1
	.quad	1
	.section	__TEXT,__text,regular,pure_instructions
	.globl	__ZN7autocfg7AutoCfg3new17h7f7997cd4fd93aeeE
	.p2align	4, 0x90
__ZN7autocfg7AutoCfg3new17h7f7997cd4fd93aeeE:
Lfunc_begin67:
	.loc	1 140 0 is_stmt 1
	.cfi_startproc
	.cfi_personality 155, _rust_eh_personality
	.cfi_lsda 16, Lexception10
	pushq	%rbp
	.cfi_def_cfa_offset 16
	.cfi_offset %rbp, -16
	movq	%rsp, %rbp
	.cfi_def_cfa_register %rbp
	pushq	%r15
	pushq	%r14
	pushq	%r13
	pushq	%r12
	pushq	%rbx
	subq	$680, %rsp
	.cfi_offset %rbx, -56
	.cfi_offset %r12, -48
	.cfi_offset %r13, -40
	.cfi_offset %r14, -32
	.cfi_offset %r15, -24
	movq	%rdi, %r15
Ltmp1267:
	.file	39 "/rustc/a74d1862d4d87a56244958416fd05976c58ca1a8/src/libstd/env.rs"
	.loc	39 246 5 prologue_end
	leaq	l___unnamed_50(%rip), %rsi
	leaq	-576(%rbp), %rdi
	movl	$7, %edx
	callq	__ZN3std3env7_var_os17hc8b7303001145450E
Ltmp1268:
	.loc	1 142 13
	cmpq	$0, -576(%rbp)
	je	LBB67_4
Ltmp1269:
	.loc	1 142 39 is_stmt 0
	movq	-560(%rbp), %rax
	movq	%rax, -312(%rbp)
	movq	-576(%rbp), %rax
	movq	-568(%rbp), %rcx
	movq	%rcx, -320(%rbp)
	movq	%rax, -328(%rbp)
Ltmp1210:
Ltmp1270:
	.loc	39 246 5 is_stmt 1
	leaq	l___unnamed_51(%rip), %rsi
	leaq	-304(%rbp), %rdi
	movl	$5, %edx
	callq	__ZN3std3env7_var_os17hc8b7303001145450E
Ltmp1211:
Ltmp1271:
	.loc	3 429 13
	cmpq	$0, -304(%rbp)
	je	LBB67_5
	.loc	3 429 18 is_stmt 0
	movq	-288(%rbp), %rax
	movq	%rax, -504(%rbp)
	movq	-304(%rbp), %rax
	movq	-296(%rbp), %rcx
	movq	%rcx, -512(%rbp)
	movq	%rax, -520(%rbp)
	jmp	LBB67_6
Ltmp1272:
LBB67_4:
	.loc	1 143 21 is_stmt 1
	movb	$3, 8(%r15)
	leaq	l___unnamed_52(%rip), %rax
	movq	%rax, 16(%r15)
	movq	$21, 24(%r15)
	movq	$1, (%r15)
	jmp	LBB67_14
LBB67_5:
Ltmp1212:
Ltmp1273:
	.file	40 "/rustc/a74d1862d4d87a56244958416fd05976c58ca1a8/src/libstd/ffi/os_str.rs"
	.loc	40 368 9
	leaq	l___unnamed_53(%rip), %rsi
	leaq	-520(%rbp), %rdi
	movl	$5, %edx
	callq	__ZN3std3ffi6os_str5OsStr12to_os_string17h0f25a8abb1fb4b72E
Ltmp1213:
Ltmp1274:
LBB67_6:
	.loc	1 157 30
	movq	-504(%rbp), %rdx
	movq	%rdx, -336(%rbp)
	movq	-520(%rbp), %r12
Ltmp1275:
	movq	-512(%rbp), %rax
	movq	%rax, -344(%rbp)
	movq	%r12, -352(%rbp)
Ltmp1215:
	leaq	-304(%rbp), %rdi
Ltmp1276:
	.loc	1 158 34
	movq	%r12, %rsi
	callq	__ZN7autocfg7version7Version10from_rustc17h901be2cdd3f0435bE
Ltmp1216:
Ltmp1277:
	.loc	1 158 29 is_stmt 0
	cmpq	$1, -304(%rbp)
	leaq	-296(%rbp), %rax
	jne	LBB67_15
Ltmp1278:
	.loc	1 158 29
	movq	16(%rax), %rcx
	movq	%rcx, 24(%r15)
	movq	(%rax), %rcx
	movq	8(%rax), %rax
	movq	%rax, 16(%r15)
	movq	%rcx, 8(%r15)
	movq	$1, (%r15)
	movb	$1, %bl
Ltmp1279:
	.loc	4 178 1 is_stmt 1
	movq	-344(%rbp), %rsi
Ltmp1280:
	.loc	17 200 40
	testq	%rsi, %rsi
	.loc	17 200 9 is_stmt 0
	je	LBB67_10
Ltmp1281:
LBB67_9:
	.loc	7 102 5 is_stmt 1
	movl	$1, %edx
	movq	%r12, %rdi
	callq	___rust_dealloc
Ltmp1282:
LBB67_10:
	.loc	1 209 5
	testb	%bl, %bl
	je	LBB67_14
Ltmp1283:
	.loc	4 178 1
	movq	-328(%rbp), %rdi
Ltmp1284:
	.loc	17 532 16
	testq	%rdi, %rdi
Ltmp1285:
	.loc	17 200 9
	je	LBB67_14
Ltmp1286:
	.loc	4 0 0 is_stmt 0
	movq	-320(%rbp), %rsi
Ltmp1287:
	.loc	17 200 9
	testq	%rsi, %rsi
	je	LBB67_14
Ltmp1288:
	.loc	7 102 5 is_stmt 1
	movl	$1, %edx
	callq	___rust_dealloc
Ltmp1289:
LBB67_14:
	.loc	1 145 6
	movq	%r15, %rax
	addq	$680, %rsp
	popq	%rbx
	popq	%r12
	popq	%r13
	popq	%r14
	popq	%r15
	popq	%rbp
	retq
LBB67_15:
Ltmp1290:
	.loc	1 158 29
	movq	16(%rax), %rcx
	movq	%rcx, -536(%rbp)
	movq	(%rax), %rcx
	movq	8(%rax), %rax
	movq	%rax, -544(%rbp)
	movq	%rcx, -552(%rbp)
Ltmp1291:
	.loc	1 161 19
	movq	-312(%rbp), %rdx
	movq	%rdx, -360(%rbp)
	movq	-328(%rbp), %r14
Ltmp1292:
	movq	-320(%rbp), %rax
	movq	%rax, -368(%rbp)
	movq	%r14, -376(%rbp)
Ltmp1293:
Ltmp1218:
	.loc	1 0 19 is_stmt 0
	leaq	-304(%rbp), %rdi
Ltmp1294:
	.file	41 "/rustc/a74d1862d4d87a56244958416fd05976c58ca1a8/src/libstd/fs.rs"
	.loc	41 1607 5 is_stmt 1
	movq	%r14, %rsi
	callq	__ZN3std3sys4unix2fs4stat17h709171f0f643fc66E
Ltmp1219:
Ltmp1295:
	.loc	9 519 13
	cmpq	$1, -304(%rbp)
	.loc	9 0 0 is_stmt 0
	movb	-296(%rbp), %al
Ltmp1296:
	movl	-295(%rbp), %ecx
	movl	%ecx, -64(%rbp)
	movl	-292(%rbp), %ecx
	movl	%ecx, -61(%rbp)
	movb	-288(%rbp), %dl
Ltmp1297:
	movl	-287(%rbp), %ecx
	movl	%ecx, -136(%rbp)
	movl	-284(%rbp), %ecx
	movl	%ecx, -133(%rbp)
	.loc	9 519 13
	jne	LBB67_20
Ltmp1298:
	.loc	36 49 15 is_stmt 1
	movl	-64(%rbp), %ecx
	movl	-61(%rbp), %esi
	movl	%ecx, -112(%rbp)
	movl	%esi, -109(%rbp)
	movl	-136(%rbp), %ecx
	movl	-133(%rbp), %esi
	movl	%ecx, -152(%rbp)
	movl	%esi, -149(%rbp)
Ltmp1299:
	.loc	1 162 20
	movb	$0, 8(%r15)
	movl	-88(%rbp), %ecx
	movl	-85(%rbp), %esi
	movl	%ecx, 9(%r15)
	movl	%esi, 12(%r15)
	movb	%al, 16(%r15)
	movl	-112(%rbp), %eax
Ltmp1300:
	movl	-109(%rbp), %ecx
	movl	%eax, 17(%r15)
	movl	%ecx, 20(%r15)
	movb	%dl, 24(%r15)
	movl	-152(%rbp), %eax
	movl	-149(%rbp), %ecx
	movl	%eax, 25(%r15)
	movl	%ecx, 28(%r15)
Ltmp1301:
	.loc	1 0 0 is_stmt 0
	movq	$1, (%r15)
Ltmp1302:
	.loc	4 178 1 is_stmt 1
	movq	-368(%rbp), %rsi
Ltmp1303:
	.loc	17 200 40
	testq	%rsi, %rsi
	.loc	17 200 9 is_stmt 0
	je	LBB67_19
Ltmp1304:
LBB67_18:
	.loc	7 102 5 is_stmt 1
	movl	$1, %edx
	movq	%r14, %rdi
	callq	___rust_dealloc
Ltmp1305:
LBB67_19:
	.loc	7 0 5 is_stmt 0
	xorl	%ebx, %ebx
Ltmp1306:
	.loc	4 178 1 is_stmt 1
	movq	-344(%rbp), %rsi
Ltmp1307:
	.loc	17 200 40
	testq	%rsi, %rsi
	.loc	17 200 9 is_stmt 0
	jne	LBB67_9
	jmp	LBB67_10
Ltmp1308:
LBB67_20:
	.loc	9 519 22 is_stmt 1
	movb	-280(%rbp), %bl
Ltmp1309:
	movl	-279(%rbp), %ecx
	movl	%ecx, -152(%rbp)
	movl	-276(%rbp), %ecx
	movl	%ecx, -149(%rbp)
	leaq	-272(%rbp), %rsi
	leaq	-496(%rbp), %r8
	movl	$15, %ecx
	movq	%r8, %rdi
	rep;movsq (%rsi), %es:(%rdi)
Ltmp1310:
	.loc	9 611 22
	movl	-64(%rbp), %ecx
	movl	-61(%rbp), %esi
	movl	%esi, -85(%rbp)
	movl	%ecx, -88(%rbp)
	movl	-136(%rbp), %ecx
	movl	-133(%rbp), %esi
	movl	%esi, -109(%rbp)
	movl	%ecx, -112(%rbp)
Ltmp1311:
	.loc	1 162 20
	movb	%al, -720(%rbp)
	movl	-88(%rbp), %eax
Ltmp1312:
	movl	-85(%rbp), %ecx
	movl	%eax, -719(%rbp)
	movl	%ecx, -716(%rbp)
	movb	%dl, -712(%rbp)
	movl	-112(%rbp), %eax
	movl	-109(%rbp), %ecx
	movl	%ecx, -708(%rbp)
	movl	%eax, -711(%rbp)
	movb	%bl, -704(%rbp)
	movl	-152(%rbp), %eax
	movl	-149(%rbp), %ecx
	movl	%ecx, -700(%rbp)
	movl	%eax, -703(%rbp)
	leaq	-696(%rbp), %rdi
	movl	$15, %ecx
	movq	%r8, %rsi
	rep;movsq (%rsi), %es:(%rdi)
Ltmp1220:
	leaq	-720(%rbp), %rdi
Ltmp1313:
	.loc	1 163 13
	callq	__ZN3std2fs8Metadata6is_dir17he79804b975b4e0b0E
Ltmp1314:
Ltmp1221:
	.loc	1 163 12 is_stmt 0
	testb	%al, %al
	je	LBB67_25
Ltmp1222:
	.loc	1 0 12
	leaq	-720(%rbp), %rdi
	.loc	1 163 30
	callq	__ZN3std2fs8Metadata11permissions17h439b02509b43d767E
Ltmp1223:
	movw	%ax, -304(%rbp)
Ltmp1224:
	leaq	-304(%rbp), %rdi
	callq	__ZN3std2fs11Permissions8readonly17hcd83236e959d4e2bE
Ltmp1225:
	.loc	1 163 12
	testb	%al, %al
	je	LBB67_26
LBB67_25:
	.loc	1 164 20 is_stmt 1
	movb	$3, 8(%r15)
	leaq	l___unnamed_54(%rip), %rax
	movq	%rax, 16(%r15)
	movq	$39, 24(%r15)
Ltmp1315:
	.loc	1 0 0 is_stmt 0
	movq	$1, (%r15)
Ltmp1316:
	.loc	4 178 1 is_stmt 1
	movq	-368(%rbp), %rsi
Ltmp1317:
	.loc	17 200 40
	testq	%rsi, %rsi
	.loc	17 200 9 is_stmt 0
	jne	LBB67_18
	jmp	LBB67_19
Ltmp1318:
LBB67_26:
Ltmp1226:
	.loc	39 246 5 is_stmt 1
	leaq	l___unnamed_55(%rip), %rsi
	leaq	-496(%rbp), %rdi
	movl	$6, %edx
	callq	__ZN3std3env7_var_os17hc8b7303001145450E
Ltmp1227:
Ltmp1319:
Ltmp1228:
	.loc	39 246 5 is_stmt 0
	leaq	L___unnamed_56(%rip), %rsi
	leaq	-304(%rbp), %rdi
	movl	$4, %edx
	callq	__ZN3std3env7_var_os17hc8b7303001145450E
Ltmp1229:
Ltmp1320:
	.loc	3 151 16 is_stmt 1
	movq	-496(%rbp), %rax
	testq	%rax, %rax
	sete	%cl
Ltmp1321:
	.loc	3 151 16 is_stmt 0
	movq	-304(%rbp), %rdi
	testq	%rdi, %rdi
	setne	%dl
Ltmp1322:
	.loc	3 0 16
	movb	$1, %bl
Ltmp1323:
	.loc	3 151 16
	cmpb	%dl, %cl
	je	LBB67_33
Ltmp1324:
	.loc	3 0 16
	xorl	%ebx, %ebx
	.loc	3 151 16
	testq	%rax, %rax
Ltmp1325:
	.loc	3 151 16
	je	LBB67_33
Ltmp1326:
	testq	%rdi, %rdi
	je	LBB67_33
Ltmp1327:
Ltmp1231:
	.loc	3 0 16
	leaq	-496(%rbp), %rdi
Ltmp1328:
	leaq	-304(%rbp), %rsi
Ltmp1329:
	.loc	32 217 10 is_stmt 1
	callq	__ZN67_$LT$std..ffi..os_str..OsString$u20$as$u20$core..cmp..PartialEq$GT$2eq17hc675b98d8f3af042E
Ltmp1330:
Ltmp1232:
	.loc	32 0 0 is_stmt 0
	movl	%eax, %ebx
	.loc	32 217 9
	xorb	$1, %bl
Ltmp1331:
	.loc	4 178 1 is_stmt 1
	movq	-304(%rbp), %rdi
Ltmp1332:
LBB67_33:
	testq	%rdi, %rdi
	je	LBB67_36
Ltmp1333:
	.loc	4 178 1 is_stmt 0
	movq	-296(%rbp), %rsi
Ltmp1334:
	.loc	17 200 40 is_stmt 1
	testq	%rsi, %rsi
	.loc	17 200 9 is_stmt 0
	je	LBB67_36
Ltmp1335:
	.loc	7 102 5 is_stmt 1
	movl	$1, %edx
	callq	___rust_dealloc
Ltmp1336:
LBB67_36:
	.loc	4 178 1
	movq	-496(%rbp), %rdi
Ltmp1337:
	testq	%rdi, %rdi
	je	LBB67_39
Ltmp1338:
	.loc	4 178 1 is_stmt 0
	movq	-488(%rbp), %rsi
Ltmp1339:
	.loc	17 200 40 is_stmt 1
	testq	%rsi, %rsi
	.loc	17 200 9 is_stmt 0
	je	LBB67_39
Ltmp1340:
	.loc	7 102 5 is_stmt 1
	movl	$1, %edx
	callq	___rust_dealloc
Ltmp1341:
LBB67_39:
	.loc	1 173 25
	testb	%bl, %bl
	je	LBB67_45
Ltmp1234:
Ltmp1342:
	.loc	39 212 5
	leaq	l___unnamed_57(%rip), %rsi
	leaq	-304(%rbp), %rdi
	movl	$9, %edx
	callq	__ZN3std3env4_var17heb54e5eb7997d7b3E
Ltmp1235:
Ltmp1343:
	.loc	9 0 0 is_stmt 0
	movq	-296(%rbp), %rbx
Ltmp1344:
	.loc	9 396 13 is_stmt 1
	cmpq	$1, -304(%rbp)
	jne	LBB67_46
Ltmp1345:
	.loc	4 178 1
	testq	%rbx, %rbx
	je	LBB67_45
Ltmp1346:
	.loc	4 178 1 is_stmt 0
	movq	-288(%rbp), %rsi
Ltmp1347:
	.loc	17 200 40 is_stmt 1
	testq	%rsi, %rsi
	.loc	17 200 9 is_stmt 0
	je	LBB67_45
Ltmp1348:
	.loc	7 102 5 is_stmt 1
	movl	$1, %edx
	movq	%rbx, %rdi
	callq	___rust_dealloc
Ltmp1349:
	.loc	7 0 5 is_stmt 0
	jmp	LBB67_45
Ltmp1350:
LBB67_46:
	.loc	9 396 27 is_stmt 1
	movq	-288(%rbp), %rax
	movq	-280(%rbp), %rcx
	movq	%rcx, -144(%rbp)
	movq	%rax, -152(%rbp)
Ltmp1351:
	.loc	3 458 13
	testq	%rbx, %rbx
	je	LBB67_45
Ltmp1352:
	.loc	3 458 31 is_stmt 0
	movq	%rbx, -112(%rbp)
	movq	-152(%rbp), %rax
	movq	-144(%rbp), %rcx
Ltmp1353:
	movq	%rax, -104(%rbp)
	movq	%rcx, -96(%rbp)
Ltmp1354:
	.loc	18 1981 57 is_stmt 1
	movq	$0, -496(%rbp)
	movq	%rcx, -488(%rbp)
	movq	%rbx, -480(%rbp)
	movq	%rcx, -472(%rbp)
	movq	$0, -464(%rbp)
	movq	%rcx, -456(%rbp)
	movq	$1, -448(%rbp)
	movabsq	$137438953504, %rax
	movq	%rax, -440(%rbp)
	movw	$1, -432(%rbp)
Ltmp1237:
	leaq	-64(%rbp), %rdi
	leaq	-496(%rbp), %rsi
Ltmp1355:
	.loc	18 2069 32
	callq	__ZN97_$LT$core..iter..adapters..Map$LT$I$C$F$GT$$u20$as$u20$core..iter..traits..iterator..Iterator$GT$4next17hb636d43e8c3fab06E
Ltmp1356:
Ltmp1238:
	.loc	18 2070 13
	cmpq	$0, -64(%rbp)
	je	LBB67_75
Ltmp1357:
	.loc	18 0 13 is_stmt 0
	movq	%rbx, -528(%rbp)
Ltmp1358:
	.loc	18 2071 18 is_stmt 1
	movq	-48(%rbp), %rax
	movq	%rax, -288(%rbp)
	movq	-64(%rbp), %rax
	movq	-56(%rbp), %rcx
	movq	%rcx, -296(%rbp)
	movq	%rax, -304(%rbp)
Ltmp1359:
	.loc	7 80 5
	movl	$24, %edi
	movl	$8, %esi
	callq	___rust_alloc
Ltmp1360:
	.loc	9 852 13
	testq	%rax, %rax
	je	LBB67_109
Ltmp1361:
	.loc	4 836 42
	movq	-288(%rbp), %rcx
	movq	%rcx, 16(%rax)
	movq	-304(%rbp), %rcx
	movq	-296(%rbp), %rdx
	movq	%rdx, 8(%rax)
	movq	%rcx, (%rax)
Ltmp1362:
	.loc	18 2078 17
	movq	%rax, -88(%rbp)
	movaps	LCPI67_0(%rip), %xmm0
	movups	%xmm0, -80(%rbp)
Ltmp1363:
	.loc	18 0 17 is_stmt 0
	leaq	-304(%rbp), %r13
	leaq	-496(%rbp), %rsi
Ltmp1364:
	.loc	18 2086 31 is_stmt 1
	movl	$9, %ecx
	movq	%r13, %rdi
	rep;movsq (%rsi), %es:(%rdi)
	movl	$1, %r12d
Ltmp1365:
	.loc	18 0 31 is_stmt 0
	leaq	-136(%rbp), %rbx
	jmp	LBB67_53
Ltmp1366:
LBB67_51:
	.loc	18 850 19 is_stmt 1
	movq	-88(%rbp), %rdi
Ltmp1367:
	.loc	18 2202 30
	leaq	1(%r12), %r14
Ltmp1368:
LBB67_52:
	.file	42 "/rustc/a74d1862d4d87a56244958416fd05976c58ca1a8/src/libcore/ptr/mut_ptr.rs"
	.loc	42 152 9
	leaq	(%r12,%r12,2), %rax
Ltmp1369:
	.loc	4 836 42
	movq	-64(%rbp), %rcx
	movq	-56(%rbp), %rdx
	movq	-48(%rbp), %rsi
	movq	%rsi, 16(%rdi,%rax,8)
	movq	%rdx, 8(%rdi,%rax,8)
	movq	%rcx, (%rdi,%rax,8)
Ltmp1370:
	.loc	18 940 9
	movq	%r14, -72(%rbp)
	movq	%r14, %r12
Ltmp1371:
LBB67_53:
Ltmp1240:
	.loc	18 2193 35
	movq	%rbx, %rdi
	movq	%r13, %rsi
	callq	__ZN97_$LT$core..iter..adapters..Map$LT$I$C$F$GT$$u20$as$u20$core..iter..traits..iterator..Iterator$GT$4next17hb636d43e8c3fab06E
Ltmp1241:
Ltmp1372:
	.loc	18 2193 19 is_stmt 0
	cmpq	$0, -136(%rbp)
	je	LBB67_74
Ltmp1373:
	.loc	18 2193 24
	movq	-120(%rbp), %rax
	movq	%rax, -48(%rbp)
	movq	-136(%rbp), %rax
	movq	-128(%rbp), %rcx
	movq	%rcx, -56(%rbp)
	movq	%rax, -64(%rbp)
Ltmp1374:
	.loc	18 2195 16 is_stmt 1
	cmpq	%r12, -80(%rbp)
	.loc	18 2195 13 is_stmt 0
	jne	LBB67_51
Ltmp1375:
	.file	43 "/rustc/a74d1862d4d87a56244958416fd05976c58ca1a8/src/libcore/num/mod.rs"
	.loc	43 3632 30 is_stmt 1
	movq	%r12, %r14
	incq	%r14
Ltmp1376:
	.loc	3 540 13
	je	LBB67_106
Ltmp1377:
	.loc	17 414 26
	leaq	(%r12,%r12), %rax
Ltmp1378:
	.loc	32 1017 9
	cmpq	%r14, %rax
	.loc	32 0 0 is_stmt 0
	cmovbeq	%r14, %rax
Ltmp1379:
	.file	44 "/rustc/a74d1862d4d87a56244958416fd05976c58ca1a8/src/libcore/alloc/layout.rs"
	.loc	44 250 85 is_stmt 1
	xorl	%esi, %esi
Ltmp1380:
	.loc	43 3688 26
	movl	$24, %ecx
	mulq	%rcx
Ltmp1381:
	movq	%rax, %rbx
Ltmp1382:
	.loc	43 0 26 is_stmt 0
	seto	%cl
Ltmp1383:
	.loc	44 250 85 is_stmt 1
	setno	%al
Ltmp1384:
	.loc	17 200 9
	movq	%r12, %rdi
	.loc	17 200 40 is_stmt 0
	testq	%r12, %r12
	.loc	17 200 9
	je	LBB67_59
Ltmp1385:
	.loc	17 0 9
	movq	-88(%rbp), %rdi
Ltmp1386:
LBB67_59:
	.loc	9 611 13 is_stmt 1
	testb	%cl, %cl
	jne	LBB67_106
Ltmp1387:
	.loc	17 489 25
	testq	%rdi, %rdi
	je	LBB67_64
Ltmp1388:
	.loc	17 0 0 is_stmt 0
	leaq	(,%r12,8), %rax
Ltmp1389:
	leaq	(%rax,%rax,2), %rsi
Ltmp1390:
	.loc	7 205 12 is_stmt 1
	cmpq	%rbx, %rsi
	.loc	7 205 9 is_stmt 0
	je	LBB67_70
Ltmp1391:
	.loc	7 211 42 is_stmt 1
	testq	%rsi, %rsi
	je	LBB67_66
Ltmp1392:
	.loc	7 124 5
	movl	$8, %edx
	movq	%rbx, %rcx
	callq	___rust_realloc
Ltmp1393:
	.loc	7 0 5 is_stmt 0
	jmp	LBB67_69
Ltmp1394:
LBB67_64:
	movb	%al, %sil
	shlq	$3, %rsi
Ltmp1395:
	.loc	7 170 16 is_stmt 1
	testq	%rbx, %rbx
	.loc	7 170 13 is_stmt 0
	jne	LBB67_68
Ltmp1396:
	.loc	17 0 0
	movq	%rsi, %rdi
Ltmp1397:
	.loc	9 611 13 is_stmt 1
	testq	%rdi, %rdi
	jne	LBB67_71
	jmp	LBB67_108
Ltmp1398:
LBB67_66:
	.loc	7 170 16
	testq	%rbx, %rbx
	.loc	7 170 13 is_stmt 0
	je	LBB67_72
Ltmp1399:
	.loc	7 80 5 is_stmt 1
	movl	$8, %esi
Ltmp1400:
LBB67_68:
	.loc	17 0 0 is_stmt 0
	movq	%rbx, %rdi
Ltmp1401:
	callq	___rust_alloc
Ltmp1402:
LBB67_69:
	movq	%rax, %rdi
Ltmp1403:
LBB67_70:
	.loc	9 611 13 is_stmt 1
	testq	%rdi, %rdi
	je	LBB67_108
Ltmp1404:
LBB67_71:
	.loc	17 387 9
	movq	%rdi, -88(%rbp)
Ltmp1405:
	.loc	17 383 9
	movq	%rbx, %rax
	movabsq	$-6148914691236517205, %rcx
	mulq	%rcx
	shrq	$4, %rdx
Ltmp1406:
	.loc	17 388 9
	movq	%rdx, -80(%rbp)
	leaq	-136(%rbp), %rbx
Ltmp1407:
	.loc	17 0 9 is_stmt 0
	jmp	LBB67_52
Ltmp1408:
LBB67_72:
	movl	$8, %edi
Ltmp1409:
	jmp	LBB67_71
Ltmp1410:
LBB67_45:
	movq	$0, -112(%rbp)
LBB67_78:
Ltmp1411:
	.loc	1 190 22 is_stmt 1
	movq	-360(%rbp), %rax
	movq	%rax, -72(%rbp)
	movq	-376(%rbp), %rax
	movq	-368(%rbp), %rcx
	movq	%rcx, -80(%rbp)
	movq	%rax, -88(%rbp)
	.loc	1 191 20
	movq	-336(%rbp), %rax
	movq	%rax, -120(%rbp)
	movq	-352(%rbp), %rax
	movq	-344(%rbp), %rcx
	movq	%rcx, -128(%rbp)
	movq	%rax, -136(%rbp)
	.loc	1 192 28
	movq	-536(%rbp), %rax
	movq	%rax, -48(%rbp)
	movq	-552(%rbp), %rax
	movq	-544(%rbp), %rcx
	movq	%rcx, -56(%rbp)
	movq	%rax, -64(%rbp)
Ltmp1246:
Ltmp1412:
	.loc	39 246 5
	leaq	l___unnamed_55(%rip), %rsi
	leaq	-496(%rbp), %rdi
	movl	$6, %edx
	callq	__ZN3std3env7_var_os17hc8b7303001145450E
Ltmp1247:
Ltmp1413:
	.loc	1 189 22
	movq	-72(%rbp), %rax
	movq	%rax, -288(%rbp)
	movq	-88(%rbp), %rax
	movq	-80(%rbp), %rcx
	movq	%rcx, -296(%rbp)
	movq	%rax, -304(%rbp)
	movq	-136(%rbp), %rax
	movq	-128(%rbp), %rcx
	movq	%rax, -280(%rbp)
	movq	%rcx, -272(%rbp)
	movq	-120(%rbp), %rax
	movq	%rax, -264(%rbp)
	movq	-64(%rbp), %rax
	movq	-56(%rbp), %rcx
	movq	%rax, -256(%rbp)
	movq	%rcx, -248(%rbp)
	movq	-48(%rbp), %rax
	movq	%rax, -240(%rbp)
	movq	-480(%rbp), %rax
	movq	%rax, -216(%rbp)
	movq	-496(%rbp), %rax
	movq	-488(%rbp), %rcx
	movq	%rcx, -224(%rbp)
	movq	%rax, -232(%rbp)
	movb	$0, -184(%rbp)
	movq	-96(%rbp), %rax
	movq	%rax, -192(%rbp)
	movq	-112(%rbp), %rax
	movq	-104(%rbp), %rcx
	movq	%rcx, -200(%rbp)
	movq	%rax, -208(%rbp)
Ltmp1249:
	leaq	-496(%rbp), %rdi
	leaq	-304(%rbp), %rsi
Ltmp1414:
	.loc	1 199 13
	callq	__ZN7autocfg7AutoCfg5probe17ha7361035c4f88f66E
Ltmp1250:
Ltmp1415:
	.loc	9 829 13
	movb	-496(%rbp), %al
	cmpb	$1, %al
	setne	%bl
	cmpb	$0, -495(%rbp)
	setne	%r14b
	.loc	9 832 5
	testb	%al, %al
	je	LBB67_87
Ltmp1416:
	.loc	4 178 1
	cmpb	$0, -488(%rbp)
	jne	LBB67_87
Ltmp1417:
	.loc	4 178 1 is_stmt 0
	cmpb	$2, -480(%rbp)
	jb	LBB67_87
Ltmp1418:
	.loc	4 178 1
	movq	-472(%rbp), %r12
Ltmp1419:
	.loc	4 178 1
	movq	(%r12), %rdi
	movq	8(%r12), %rax
Ltmp1251:
	callq	*(%rax)
Ltmp1252:
Ltmp1420:
	movq	8(%r12), %rax
Ltmp1421:
	.loc	7 282 16 is_stmt 1
	movq	8(%rax), %rsi
Ltmp1422:
	.loc	7 185 12
	testq	%rsi, %rsi
	.loc	7 185 9 is_stmt 0
	je	LBB67_86
Ltmp1423:
	.loc	4 178 1 is_stmt 1
	movq	(%r12), %rdi
Ltmp1424:
	.loc	7 283 17
	movq	16(%rax), %rdx
Ltmp1425:
	.loc	7 102 5
	callq	___rust_dealloc
Ltmp1426:
LBB67_86:
	.loc	7 102 5 is_stmt 0
	movl	$24, %esi
	movl	$8, %edx
	movq	%r12, %rdi
	callq	___rust_dealloc
Ltmp1427:
LBB67_87:
	.loc	1 0 0
	andb	%r14b, %bl
	.loc	1 199 9 is_stmt 1
	jne	LBB67_105
	.loc	1 200 13
	movb	$1, -184(%rbp)
Ltmp1254:
	leaq	-496(%rbp), %rdi
	leaq	-304(%rbp), %rsi
	.loc	1 201 17
	callq	__ZN7autocfg7AutoCfg5probe17ha7361035c4f88f66E
Ltmp1255:
Ltmp1428:
	.loc	9 829 13
	movb	-496(%rbp), %al
	cmpb	$1, %al
	setne	%bl
	cmpb	$0, -495(%rbp)
	setne	%r14b
	.loc	9 832 5
	testb	%al, %al
	je	LBB67_96
Ltmp1429:
	.loc	4 178 1
	cmpb	$0, -488(%rbp)
	jne	LBB67_96
Ltmp1430:
	.loc	4 178 1 is_stmt 0
	cmpb	$2, -480(%rbp)
	jb	LBB67_96
Ltmp1431:
	.loc	4 178 1
	movq	-472(%rbp), %r12
Ltmp1432:
	.loc	4 178 1
	movq	(%r12), %rdi
	movq	8(%r12), %rax
Ltmp1256:
	callq	*(%rax)
Ltmp1257:
Ltmp1433:
	movq	8(%r12), %rax
Ltmp1434:
	.loc	7 282 16 is_stmt 1
	movq	8(%rax), %rsi
Ltmp1435:
	.loc	7 185 12
	testq	%rsi, %rsi
	.loc	7 185 9 is_stmt 0
	je	LBB67_95
Ltmp1436:
	.loc	4 178 1 is_stmt 1
	movq	(%r12), %rdi
Ltmp1437:
	.loc	7 283 17
	movq	16(%rax), %rdx
Ltmp1438:
	.loc	7 102 5
	callq	___rust_dealloc
Ltmp1439:
LBB67_95:
	.loc	7 102 5 is_stmt 0
	movl	$24, %esi
	movl	$8, %edx
	movq	%r12, %rdi
	callq	___rust_dealloc
Ltmp1440:
LBB67_96:
	.loc	1 0 0
	andb	%r14b, %bl
	.loc	1 201 13 is_stmt 1
	jne	LBB67_105
	.loc	1 203 17
	movb	$0, -184(%rbp)
Ltmp1259:
Ltmp1441:
	.loc	1 205 17
	callq	__ZN3std2io5stdio6stderr17hb910cf11fe2fd9d1E
Ltmp1260:
	movq	%rax, -64(%rbp)
Ltmp1261:
	leaq	l___unnamed_58(%rip), %rdx
	leaq	-496(%rbp), %rdi
	leaq	-64(%rbp), %rsi
	movl	$43, %ecx
	callq	__ZN57_$LT$std..io..stdio..Stderr$u20$as$u20$std..io..Write$GT$9write_all17h88c7457e00121bcbE
Ltmp1262:
Ltmp1442:
	.loc	9 399 5
	movb	-496(%rbp), %al
	cmpb	$3, %al
	ja	LBB67_101
	.loc	9 0 5 is_stmt 0
	cmpb	$2, %al
	jne	LBB67_105
LBB67_101:
Ltmp1443:
	.loc	4 178 1 is_stmt 1
	movq	-488(%rbp), %rbx
Ltmp1444:
	.loc	4 178 1 is_stmt 0
	movq	(%rbx), %rdi
	movq	8(%rbx), %rax
Ltmp1264:
	callq	*(%rax)
Ltmp1265:
Ltmp1445:
	movq	8(%rbx), %rax
Ltmp1446:
	.loc	7 282 16 is_stmt 1
	movq	8(%rax), %rsi
Ltmp1447:
	.loc	7 185 12
	testq	%rsi, %rsi
	.loc	7 185 9 is_stmt 0
	je	LBB67_104
Ltmp1448:
	.loc	4 178 1 is_stmt 1
	movq	(%rbx), %rdi
Ltmp1449:
	.loc	7 283 17
	movq	16(%rax), %rdx
Ltmp1450:
	.loc	7 102 5
	callq	___rust_dealloc
Ltmp1451:
LBB67_104:
	.loc	7 102 5 is_stmt 0
	movl	$24, %esi
	movl	$8, %edx
	movq	%rbx, %rdi
	callq	___rust_dealloc
Ltmp1452:
LBB67_105:
	.loc	1 208 9 is_stmt 1
	leaq	8(%r15), %rdi
	leaq	-304(%rbp), %rsi
	movl	$16, %ecx
	rep;movsq (%rsi), %es:(%rdi)
	movq	$0, (%r15)
	jmp	LBB67_14
Ltmp1453:
LBB67_74:
	.loc	18 2082 9
	movq	-88(%rbp), %r14
	leaq	-80(%rbp), %rax
	movq	%rax, %rcx
	movq	(%rax), %rax
	movq	8(%rcx), %rcx
	movq	%rax, -304(%rbp)
	movq	%rcx, -296(%rbp)
	movq	-528(%rbp), %rbx
Ltmp1454:
	.loc	4 178 1
	movq	-104(%rbp), %rsi
Ltmp1455:
	.loc	17 200 40
	testq	%rsi, %rsi
	.loc	17 200 9 is_stmt 0
	je	LBB67_77
Ltmp1456:
LBB67_76:
	.loc	7 102 5 is_stmt 1
	movl	$1, %edx
	movq	%rbx, %rdi
	callq	___rust_dealloc
Ltmp1457:
LBB67_77:
	.loc	3 458 24
	movq	%r14, -112(%rbp)
	movq	-304(%rbp), %rax
	movq	-296(%rbp), %rcx
	movq	%rax, -104(%rbp)
	movq	%rcx, -96(%rbp)
	jmp	LBB67_78
LBB67_75:
Ltmp1458:
	.loc	18 324 9
	xorps	%xmm0, %xmm0
	movaps	%xmm0, -304(%rbp)
	movl	$8, %r14d
Ltmp1459:
	.loc	4 178 1
	movq	-104(%rbp), %rsi
Ltmp1460:
	.loc	17 200 40
	testq	%rsi, %rsi
	jne	LBB67_76
	jmp	LBB67_77
Ltmp1461:
LBB67_106:
Ltmp1243:
	.loc	17 268 38
	callq	__ZN5alloc7raw_vec17capacity_overflow17h023f34f5bc34c61fE
Ltmp1244:
Ltmp1462:
	ud2
Ltmp1463:
LBB67_108:
	.loc	17 269 47
	movl	$8, %esi
	movq	%rbx, %rdi
	callq	__ZN5alloc5alloc18handle_alloc_error17hbc0ab0ed90816c07E
Ltmp1464:
LBB67_109:
	.loc	9 853 23
	movl	$24, %edi
	movl	$8, %esi
	callq	__ZN5alloc7raw_vec19RawVec$LT$T$C$A$GT$11allocate_in28_$u7b$$u7b$closure$u7d$$u7d$17h6b1f83c4246c6b24E
Ltmp1465:
LBB67_110:
Ltmp1245:
	.loc	9 0 23 is_stmt 0
	movq	%rax, %r14
Ltmp1466:
	leaq	-64(%rbp), %rdi
Ltmp1467:
	.loc	18 2204 9 is_stmt 1
	callq	__ZN4core3ptr13drop_in_place17h8b15457ebfae4483E
	jmp	LBB67_124
Ltmp1468:
LBB67_111:
Ltmp1258:
	.loc	18 0 9 is_stmt 0
	jmp	LBB67_114
Ltmp1469:
LBB67_112:
Ltmp1266:
	movq	%rax, %r14
Ltmp1470:
	.loc	4 178 1 is_stmt 1
	movq	(%rbx), %rdi
	movq	8(%rbx), %rsi
	callq	__ZN5alloc5alloc8box_free17h570c11c07547ba82E
Ltmp1471:
	.loc	4 178 1 is_stmt 0
	movq	%rbx, %rdi
	jmp	LBB67_115
Ltmp1472:
LBB67_113:
Ltmp1253:
LBB67_114:
	.loc	4 0 1
	movq	%rax, %r14
	movq	(%r12), %rdi
	movq	8(%r12), %rsi
	callq	__ZN5alloc5alloc8box_free17h570c11c07547ba82E
	movq	%r12, %rdi
LBB67_115:
	callq	__ZN5alloc5alloc8box_free17h22e07d1867015e95E
	jmp	LBB67_122
Ltmp1473:
LBB67_116:
Ltmp1239:
	movq	%rax, %r14
	jmp	LBB67_125
Ltmp1474:
LBB67_117:
Ltmp1233:
	movq	%rax, %r14
	leaq	-304(%rbp), %rdi
	.loc	1 173 71 is_stmt 1
	callq	__ZN4core3ptr13drop_in_place17h1839f26515c79d1eE
	jmp	LBB67_120
LBB67_118:
Ltmp1248:
	.loc	1 0 71 is_stmt 0
	movq	%rax, %r14
	leaq	-136(%rbp), %rdi
Ltmp1475:
	.loc	1 196 9 is_stmt 1
	callq	__ZN4core3ptr13drop_in_place17h0a25e79c86650385E
	leaq	-88(%rbp), %rdi
	callq	__ZN4core3ptr13drop_in_place17h0a25e79c86650385E
Ltmp1476:
	.loc	1 0 9 is_stmt 0
	leaq	-112(%rbp), %rdi
Ltmp1477:
	.loc	1 209 5 is_stmt 1
	callq	__ZN4core3ptr13drop_in_place17h8e346de06f6d7642E
	movq	%r14, %rdi
	callq	__Unwind_Resume
	ud2
Ltmp1478:
LBB67_119:
Ltmp1230:
	.loc	1 0 5 is_stmt 0
	movq	%rax, %r14
LBB67_120:
	leaq	-496(%rbp), %rdi
	.loc	1 173 71 is_stmt 1
	callq	__ZN4core3ptr13drop_in_place17h1839f26515c79d1eE
	jmp	LBB67_128
LBB67_121:
Ltmp1263:
	.loc	1 0 71 is_stmt 0
	movq	%rax, %r14
LBB67_122:
Ltmp1479:
	leaq	-304(%rbp), %rdi
Ltmp1480:
	.loc	1 209 5 is_stmt 1
	callq	__ZN4core3ptr13drop_in_place17h871b20c7c44d5d38E
	movq	%r14, %rdi
	callq	__Unwind_Resume
	ud2
Ltmp1481:
LBB67_123:
Ltmp1242:
	.loc	1 0 5 is_stmt 0
	movq	%rax, %r14
Ltmp1482:
LBB67_124:
	leaq	-88(%rbp), %rdi
Ltmp1483:
	.loc	18 2083 5 is_stmt 1
	callq	__ZN4core3ptr13drop_in_place17h886d4250333bfda3E
Ltmp1484:
LBB67_125:
	.loc	18 0 5 is_stmt 0
	leaq	-112(%rbp), %rdi
	.loc	1 184 13 is_stmt 1
	callq	__ZN4core3ptr13drop_in_place17h8b15457ebfae4483E
	jmp	LBB67_128
Ltmp1485:
LBB67_126:
Ltmp1217:
	.loc	1 0 13 is_stmt 0
	movq	%rax, %r14
Ltmp1486:
	leaq	-352(%rbp), %rdi
	.loc	1 209 5 is_stmt 1
	callq	__ZN4core3ptr13drop_in_place17h0a25e79c86650385E
	jmp	LBB67_130
Ltmp1487:
LBB67_127:
Ltmp1236:
	.loc	1 0 5 is_stmt 0
	movq	%rax, %r14
LBB67_128:
Ltmp1488:
	leaq	-376(%rbp), %rdi
Ltmp1489:
	.loc	1 209 5
	callq	__ZN4core3ptr13drop_in_place17h0a25e79c86650385E
Ltmp1490:
	.loc	1 0 5
	leaq	-352(%rbp), %rdi
Ltmp1491:
	.loc	1 209 5
	callq	__ZN4core3ptr13drop_in_place17h0a25e79c86650385E
	movq	%r14, %rdi
	callq	__Unwind_Resume
	ud2
Ltmp1492:
LBB67_129:
Ltmp1214:
	.loc	1 0 5
	movq	%rax, %r14
LBB67_130:
Ltmp1493:
	leaq	-328(%rbp), %rdi
	.loc	1 209 5
	callq	__ZN4core3ptr13drop_in_place17h560c46e9a18dcd37E
	movq	%r14, %rdi
	callq	__Unwind_Resume
	ud2
Ltmp1494:
Lfunc_end67:
	.cfi_endproc
	.section	__TEXT,__gcc_except_tab
	.p2align	2
GCC_except_table67:
Lexception10:
	.byte	255
	.byte	255
	.byte	1
	.uleb128 Lcst_end10-Lcst_begin10
Lcst_begin10:
	.uleb128 Lfunc_begin67-Lfunc_begin67
	.uleb128 Ltmp1210-Lfunc_begin67
	.byte	0
	.byte	0
	.uleb128 Ltmp1210-Lfunc_begin67
	.uleb128 Ltmp1213-Ltmp1210
	.uleb128 Ltmp1214-Lfunc_begin67
	.byte	0
	.uleb128 Ltmp1215-Lfunc_begin67
	.uleb128 Ltmp1216-Ltmp1215
	.uleb128 Ltmp1217-Lfunc_begin67
	.byte	0
	.uleb128 Ltmp1218-Lfunc_begin67
	.uleb128 Ltmp1227-Ltmp1218
	.uleb128 Ltmp1236-Lfunc_begin67
	.byte	0
	.uleb128 Ltmp1228-Lfunc_begin67
	.uleb128 Ltmp1229-Ltmp1228
	.uleb128 Ltmp1230-Lfunc_begin67
	.byte	0
	.uleb128 Ltmp1231-Lfunc_begin67
	.uleb128 Ltmp1232-Ltmp1231
	.uleb128 Ltmp1233-Lfunc_begin67
	.byte	0
	.uleb128 Ltmp1234-Lfunc_begin67
	.uleb128 Ltmp1235-Ltmp1234
	.uleb128 Ltmp1236-Lfunc_begin67
	.byte	0
	.uleb128 Ltmp1237-Lfunc_begin67
	.uleb128 Ltmp1238-Ltmp1237
	.uleb128 Ltmp1239-Lfunc_begin67
	.byte	0
	.uleb128 Ltmp1240-Lfunc_begin67
	.uleb128 Ltmp1241-Ltmp1240
	.uleb128 Ltmp1242-Lfunc_begin67
	.byte	0
	.uleb128 Ltmp1246-Lfunc_begin67
	.uleb128 Ltmp1247-Ltmp1246
	.uleb128 Ltmp1248-Lfunc_begin67
	.byte	0
	.uleb128 Ltmp1249-Lfunc_begin67
	.uleb128 Ltmp1250-Ltmp1249
	.uleb128 Ltmp1263-Lfunc_begin67
	.byte	0
	.uleb128 Ltmp1251-Lfunc_begin67
	.uleb128 Ltmp1252-Ltmp1251
	.uleb128 Ltmp1253-Lfunc_begin67
	.byte	0
	.uleb128 Ltmp1254-Lfunc_begin67
	.uleb128 Ltmp1255-Ltmp1254
	.uleb128 Ltmp1263-Lfunc_begin67
	.byte	0
	.uleb128 Ltmp1256-Lfunc_begin67
	.uleb128 Ltmp1257-Ltmp1256
	.uleb128 Ltmp1258-Lfunc_begin67
	.byte	0
	.uleb128 Ltmp1259-Lfunc_begin67
	.uleb128 Ltmp1262-Ltmp1259
	.uleb128 Ltmp1263-Lfunc_begin67
	.byte	0
	.uleb128 Ltmp1264-Lfunc_begin67
	.uleb128 Ltmp1265-Ltmp1264
	.uleb128 Ltmp1266-Lfunc_begin67
	.byte	0
	.uleb128 Ltmp1243-Lfunc_begin67
	.uleb128 Ltmp1244-Ltmp1243
	.uleb128 Ltmp1245-Lfunc_begin67
	.byte	0
	.uleb128 Ltmp1244-Lfunc_begin67
	.uleb128 Lfunc_end67-Ltmp1244
	.byte	0
	.byte	0
Lcst_end10:
	.p2align	2

	.section	__TEXT,__text,regular,pure_instructions
	.globl	__ZN7autocfg7AutoCfg19probe_rustc_version17h9395d7565ddde6deE
	.p2align	4, 0x90
__ZN7autocfg7AutoCfg19probe_rustc_version17h9395d7565ddde6deE:
Lfunc_begin68:
	.loc	1 213 0 is_stmt 1
	.cfi_startproc
	pushq	%rbp
	.cfi_def_cfa_offset 16
	.cfi_offset %rbp, -16
	movq	%rsp, %rbp
	.cfi_def_cfa_register %rbp
Ltmp1495:
	.loc	32 1152 21 prologue_end
	xorl	%eax, %eax
	.loc	32 1152 24 is_stmt 0
	cmpq	%rsi, 48(%rdi)
	.loc	32 1152 21
	setne	%al
	movl	$255, %ecx
	cmovbl	%ecx, %eax
Ltmp1496:
	.loc	32 445 13 is_stmt 1
	testb	%al, %al
	jne	LBB68_3
Ltmp1497:
	.loc	32 1152 21
	xorl	%eax, %eax
Ltmp1498:
	.loc	32 1152 24 is_stmt 0
	cmpq	%rdx, 56(%rdi)
	.loc	32 1152 21
	setne	%al
	cmovbl	%ecx, %eax
Ltmp1499:
	.loc	32 445 13 is_stmt 1
	testb	%al, %al
	je	LBB68_2
Ltmp1500:
LBB68_3:
	.loc	32 320 23
	cmpb	$-1, %al
	setne	%al
Ltmp1501:
	.loc	1 215 6
	popq	%rbp
	retq
Ltmp1502:
LBB68_2:
	.loc	32 1152 21
	cmpq	$0, 64(%rdi)
	setne	%al
Ltmp1503:
	.loc	32 320 23
	cmpb	$-1, %al
	setne	%al
Ltmp1504:
	.loc	1 215 6
	popq	%rbp
	retq
Ltmp1505:
Lfunc_end68:
	.cfi_endproc

	.globl	__ZN7autocfg7AutoCfg18emit_rustc_version17h4def6596aa7482f6E
	.p2align	4, 0x90
__ZN7autocfg7AutoCfg18emit_rustc_version17h4def6596aa7482f6E:
Lfunc_begin69:
	.loc	1 219 0
	.cfi_startproc
	.cfi_personality 155, _rust_eh_personality
	.cfi_lsda 16, Lexception11
	pushq	%rbp
	.cfi_def_cfa_offset 16
	.cfi_offset %rbp, -16
	movq	%rsp, %rbp
	.cfi_def_cfa_register %rbp
	pushq	%r14
	pushq	%rbx
	subq	$144, %rsp
	.cfi_offset %rbx, -32
	.cfi_offset %r14, -24
	movq	%rsi, -24(%rbp)
	movq	%rdx, -32(%rbp)
Ltmp1509:
	.loc	32 1152 21 prologue_end
	xorl	%eax, %eax
	.loc	32 1152 24 is_stmt 0
	cmpq	%rsi, 48(%rdi)
	.loc	32 1152 21
	setne	%al
	movl	$255, %ecx
	cmovbl	%ecx, %eax
Ltmp1510:
	.loc	32 445 13 is_stmt 1
	testb	%al, %al
	jne	LBB69_2
Ltmp1511:
	.loc	32 1152 21
	xorl	%eax, %eax
Ltmp1512:
	.loc	32 1152 24 is_stmt 0
	cmpq	%rdx, 56(%rdi)
	.loc	32 1152 21
	setne	%al
	cmovbl	%ecx, %eax
Ltmp1513:
	.loc	32 445 13 is_stmt 1
	testb	%al, %al
	je	LBB69_3
Ltmp1514:
LBB69_2:
	.loc	32 320 23
	cmpb	$-1, %al
Ltmp1515:
	.loc	1 220 9
	je	LBB69_6
Ltmp1516:
LBB69_3:
	.loc	1 0 9 is_stmt 0
	leaq	-24(%rbp), %rax
Ltmp1517:
	.loc	1 221 19 is_stmt 1
	movq	%rax, -112(%rbp)
	movq	__ZN4core3fmt3num3imp54_$LT$impl$u20$core..fmt..Display$u20$for$u20$usize$GT$3fmt17h89ce3155a90f2edfE@GOTPCREL(%rip), %rax
	movq	%rax, -104(%rbp)
	leaq	-32(%rbp), %rcx
	movq	%rcx, -96(%rbp)
	movq	%rax, -88(%rbp)
Ltmp1518:
	.loc	23 328 9
	leaq	l___unnamed_59(%rip), %rax
Ltmp1519:
	movq	%rax, -80(%rbp)
	movq	$2, -72(%rbp)
	movq	$0, -64(%rbp)
	leaq	-112(%rbp), %r14
	movq	%r14, -48(%rbp)
	movq	$2, -40(%rbp)
	leaq	-136(%rbp), %rdi
Ltmp1520:
	.loc	23 0 9 is_stmt 0
	leaq	-80(%rbp), %rsi
Ltmp1521:
	.loc	1 221 19 is_stmt 1
	callq	__ZN5alloc3fmt6format17hef4b691705b449e4E
Ltmp1522:
	.loc	18 814 19
	movq	-136(%rbp), %rbx
Ltmp1523:
	.loc	18 1966 55
	movq	-120(%rbp), %rax
	movq	%rbx, -152(%rbp)
	movq	%rax, -144(%rbp)
	leaq	-152(%rbp), %rax
Ltmp1524:
	.loc	1 98 5
	movq	%rax, -112(%rbp)
	leaq	__ZN44_$LT$$RF$T$u20$as$u20$core..fmt..Display$GT$3fmt17h9f1c5d51f801e50fE(%rip), %rax
	movq	%rax, -104(%rbp)
Ltmp1525:
	.loc	23 328 9
	leaq	l___unnamed_45(%rip), %rax
Ltmp1526:
	movq	%rax, -80(%rbp)
	movq	$2, -72(%rbp)
	movq	$0, -64(%rbp)
	movq	%r14, -48(%rbp)
	movq	$1, -40(%rbp)
Ltmp1506:
	leaq	-80(%rbp), %rdi
Ltmp1527:
	.loc	1 98 5
	callq	__ZN3std2io5stdio6_print17hdea2154009b9e479E
Ltmp1528:
Ltmp1507:
	.loc	4 178 1
	movq	-128(%rbp), %rsi
Ltmp1529:
	.loc	17 200 40
	testq	%rsi, %rsi
	.loc	17 200 9 is_stmt 0
	je	LBB69_6
Ltmp1530:
	.loc	7 102 5 is_stmt 1
	movl	$1, %edx
	movq	%rbx, %rdi
	callq	___rust_dealloc
Ltmp1531:
LBB69_6:
	.loc	1 223 6
	addq	$144, %rsp
	popq	%rbx
	popq	%r14
	popq	%rbp
	retq
LBB69_7:
Ltmp1532:
Ltmp1508:
	.loc	1 0 6 is_stmt 0
	movq	%rax, %rbx
	leaq	-136(%rbp), %rdi
	.loc	1 221 56 is_stmt 1
	callq	__ZN4core3ptr13drop_in_place17h8b15457ebfae4483E
	movq	%rbx, %rdi
	callq	__Unwind_Resume
	ud2
Ltmp1533:
Lfunc_end69:
	.cfi_endproc
	.section	__TEXT,__gcc_except_tab
	.p2align	2
GCC_except_table69:
Lexception11:
	.byte	255
	.byte	255
	.byte	1
	.uleb128 Lcst_end11-Lcst_begin11
Lcst_begin11:
	.uleb128 Lfunc_begin69-Lfunc_begin69
	.uleb128 Ltmp1506-Lfunc_begin69
	.byte	0
	.byte	0
	.uleb128 Ltmp1506-Lfunc_begin69
	.uleb128 Ltmp1507-Ltmp1506
	.uleb128 Ltmp1508-Lfunc_begin69
	.byte	0
	.uleb128 Ltmp1507-Lfunc_begin69
	.uleb128 Lfunc_end69-Ltmp1507
	.byte	0
	.byte	0
Lcst_end11:
	.p2align	2

	.section	__TEXT,__text,regular,pure_instructions
	.p2align	4, 0x90
__ZN7autocfg7AutoCfg5probe17ha7361035c4f88f66E:
Lfunc_begin70:
	.loc	1 225 0
	.cfi_startproc
	.cfi_personality 155, _rust_eh_personality
	.cfi_lsda 16, Lexception12
	pushq	%rbp
	.cfi_def_cfa_offset 16
	.cfi_offset %rbp, -16
	movq	%rsp, %rbp
	.cfi_def_cfa_register %rbp
	pushq	%r15
	pushq	%r14
	pushq	%r13
	pushq	%r12
	pushq	%rbx
	subq	$456, %rsp
	.cfi_offset %rbx, -56
	.cfi_offset %r12, -48
	.cfi_offset %r13, -40
	.cfi_offset %r14, -32
	.cfi_offset %r15, -24
	movl	$1, %eax
Ltmp1622:
	.file	45 "/rustc/a74d1862d4d87a56244958416fd05976c58ca1a8/src/libcore/sync/atomic.rs"
	.loc	45 2303 20 prologue_end
	lock		xaddq	%rax, __ZN7autocfg7AutoCfg5probe2ID17h25c49fc517ba5cbcE(%rip)
Ltmp1623:
	.loc	45 0 20 is_stmt 0
	movq	%rsi, %r13
Ltmp1624:
	movq	%rdi, %r14
Ltmp1625:
	.loc	1 229 18 is_stmt 1
	movq	%rax, -128(%rbp)
Ltmp1626:
	.loc	1 230 40
	leaq	24(%rsi), %rdi
Ltmp1627:
Ltmp1534:
	.loc	22 510 9
	callq	__ZN90_$LT$std..path..PathBuf$u20$as$u20$core..convert..AsRef$LT$std..ffi..os_str..OsStr$GT$$GT$6as_ref17haeabe10b3c5713c9E
Ltmp1628:
Ltmp1535:
Ltmp1536:
	.loc	22 0 9 is_stmt 0
	leaq	-312(%rbp), %rdi
	.loc	37 501 26 is_stmt 1
	movq	%rax, %rsi
	callq	__ZN3std3sys4unix7process14process_common7Command3new17hcd746a384cbb0b47E
Ltmp1537:
Ltmp1629:
	.loc	37 0 26 is_stmt 0
	leaq	-496(%rbp), %rbx
	leaq	-312(%rbp), %rsi
	.loc	37 501 9
	movl	$184, %edx
	movq	%rbx, %rdi
	callq	_memcpy
Ltmp1630:
Ltmp1538:
	.loc	37 542 9 is_stmt 1
	leaq	l___unnamed_60(%rip), %rsi
	movl	$12, %edx
	movq	%rbx, %rdi
	callq	__ZN3std3sys4unix7process14process_common7Command3arg17hc476c471a9efd12bE
Ltmp1539:
Ltmp1631:
	.loc	37 0 9 is_stmt 0
	leaq	-128(%rbp), %rax
Ltmp1632:
	.loc	1 233 18 is_stmt 1
	movq	%rax, -104(%rbp)
	movq	__ZN4core3fmt3num3imp54_$LT$impl$u20$core..fmt..Display$u20$for$u20$usize$GT$3fmt17h89ce3155a90f2edfE@GOTPCREL(%rip), %rax
	movq	%rax, -96(%rbp)
Ltmp1633:
	.loc	23 328 9
	leaq	l___unnamed_61(%rip), %rax
Ltmp1634:
	movq	%rax, -312(%rbp)
	movq	$1, -304(%rbp)
	movq	$0, -296(%rbp)
	leaq	-104(%rbp), %rax
Ltmp1635:
	.loc	23 0 9 is_stmt 0
	movq	%rax, -120(%rbp)
	.loc	23 328 9
	movq	%rax, -280(%rbp)
	movq	$1, -272(%rbp)
Ltmp1540:
	leaq	-88(%rbp), %rdi
	leaq	-312(%rbp), %rsi
Ltmp1636:
	.loc	1 233 18 is_stmt 1
	callq	__ZN5alloc3fmt6format17hef4b691705b449e4E
Ltmp1541:
Ltmp1637:
	.loc	1 233 18 is_stmt 0
	movq	-88(%rbp), %rbx
	movq	-80(%rbp), %rax
	movq	%rbx, -312(%rbp)
	movq	%rax, -304(%rbp)
	movq	-72(%rbp), %rdx
	movq	%rdx, -296(%rbp)
Ltmp1638:
Ltmp1542:
	.loc	1 0 18
	leaq	-496(%rbp), %rdi
Ltmp1639:
	.loc	37 542 9 is_stmt 1
	movq	%rbx, %rsi
	callq	__ZN3std3sys4unix7process14process_common7Command3arg17hc476c471a9efd12bE
Ltmp1543:
Ltmp1640:
	.loc	4 178 1
	movq	-304(%rbp), %rsi
Ltmp1641:
	.loc	17 200 40
	testq	%rsi, %rsi
	.loc	17 200 9 is_stmt 0
	je	LBB70_7
Ltmp1642:
	.loc	7 102 5 is_stmt 1
	movl	$1, %edx
	movq	%rbx, %rdi
	callq	___rust_dealloc
Ltmp1643:
LBB70_7:
Ltmp1545:
	.loc	37 542 9
	leaq	L___unnamed_62(%rip), %rsi
	leaq	-496(%rbp), %rdi
	movl	$16, %edx
	callq	__ZN3std3sys4unix7process14process_common7Command3arg17hc476c471a9efd12bE
Ltmp1546:
Ltmp1644:
Ltmp1547:
	.loc	37 542 9 is_stmt 0
	leaq	l___unnamed_63(%rip), %rsi
	leaq	-496(%rbp), %rdi
	movl	$9, %edx
	callq	__ZN3std3sys4unix7process14process_common7Command3arg17hc476c471a9efd12bE
Ltmp1548:
Ltmp1645:
Ltmp1549:
	.loc	22 510 9 is_stmt 1
	movq	%r13, %rdi
	callq	__ZN90_$LT$std..path..PathBuf$u20$as$u20$core..convert..AsRef$LT$std..ffi..os_str..OsStr$GT$$GT$6as_ref17haeabe10b3c5713c9E
Ltmp1550:
Ltmp1646:
Ltmp1551:
	.loc	22 0 9 is_stmt 0
	leaq	-496(%rbp), %rdi
	.loc	37 542 9 is_stmt 1
	movq	%rax, %rsi
	callq	__ZN3std3sys4unix7process14process_common7Command3arg17hc476c471a9efd12bE
Ltmp1552:
Ltmp1647:
Ltmp1553:
	.loc	37 542 9 is_stmt 0
	leaq	l___unnamed_64(%rip), %rsi
	leaq	-496(%rbp), %rdi
	movl	$14, %edx
	callq	__ZN3std3sys4unix7process14process_common7Command3arg17hc476c471a9efd12bE
Ltmp1554:
Ltmp1648:
	.loc	1 239 17 is_stmt 1
	movq	96(%r13), %rbx
	testq	%rbx, %rbx
	je	LBB70_18
Ltmp1649:
	.loc	18 1966 55
	movq	112(%r13), %rax
Ltmp1650:
	.loc	11 3179 9
	testq	%rax, %rax
	.loc	11 3303 21
	je	LBB70_18
Ltmp1651:
	.loc	11 0 0 is_stmt 0
	leaq	(%rax,%rax,2), %rax
Ltmp1652:
	leaq	(%rbx,%rax,8), %r15
	leaq	-496(%rbp), %r12
Ltmp1653:
	.p2align	4, 0x90
LBB70_15:
	.loc	18 814 19 is_stmt 1
	movq	(%rbx), %rdi
Ltmp1654:
	.loc	18 1966 55
	movq	16(%rbx), %rsi
Ltmp1655:
Ltmp1555:
	.loc	22 510 9
	callq	__ZN95_$LT$std..ffi..os_str..OsStr$u20$as$u20$core..convert..AsRef$LT$std..ffi..os_str..OsStr$GT$$GT$6as_ref17h446c7b9305eed47bE
Ltmp1556:
Ltmp1656:
Ltmp1557:
	.loc	37 542 9
	movq	%r12, %rdi
	movq	%rax, %rsi
	callq	__ZN3std3sys4unix7process14process_common7Command3arg17hc476c471a9efd12bE
Ltmp1558:
Ltmp1657:
	.loc	11 3179 9
	addq	$24, %rbx
Ltmp1658:
	cmpq	%r15, %rbx
	.loc	11 3303 21
	jne	LBB70_15
Ltmp1659:
LBB70_18:
	.loc	3 270 13
	cmpq	$0, 72(%r13)
Ltmp1660:
	.loc	1 243 16
	je	LBB70_21
Ltmp1661:
Ltmp1560:
	.loc	37 542 9
	leaq	L___unnamed_65(%rip), %rsi
	leaq	-496(%rbp), %rdi
	movl	$8, %edx
	callq	__ZN3std3sys4unix7process14process_common7Command3arg17hc476c471a9efd12bE
Ltmp1561:
Ltmp1662:
	.loc	18 814 19
	movq	72(%r13), %rsi
Ltmp1663:
	.loc	18 1966 55
	movq	88(%r13), %rdx
Ltmp1562:
	leaq	-496(%rbp), %rdi
Ltmp1664:
	.loc	37 542 9
	callq	__ZN3std3sys4unix7process14process_common7Command3arg17hc476c471a9efd12bE
Ltmp1563:
Ltmp1665:
LBB70_21:
Ltmp1564:
	.loc	37 542 9 is_stmt 0
	leaq	l___unnamed_66(%rip), %rsi
	leaq	-496(%rbp), %rdi
	movl	$1, %edx
	callq	__ZN3std3sys4unix7process14process_common7Command3arg17hc476c471a9efd12bE
Ltmp1565:
Ltmp1666:
Ltmp1566:
	.loc	1 247 32 is_stmt 1
	callq	__ZN3std7process5Stdio5piped17hd1af72b86ccf8a8eE
Ltmp1567:
Ltmp1667:
Ltmp1568:
	.loc	1 0 32 is_stmt 0
	leaq	-496(%rbp), %rdi
Ltmp1668:
	.loc	37 732 9 is_stmt 1
	movl	%eax, %esi
	callq	__ZN3std3sys4unix7process14process_common7Command5stdin17h7766ebac1f5b6d00E
Ltmp1669:
Ltmp1569:
Ltmp1570:
	.loc	37 0 9 is_stmt 0
	leaq	-312(%rbp), %rdi
	leaq	-496(%rbp), %rsi
	.loc	1 248 30 is_stmt 1
	callq	__ZN3std7process7Command5spawn17hf2971800d3316042E
Ltmp1571:
Ltmp1670:
	.loc	9 611 13
	cmpl	$1, -312(%rbp)
	jne	LBB70_27
Ltmp1671:
	.loc	36 49 15
	movb	-304(%rbp), %al
	movq	-296(%rbp), %rcx
Ltmp1672:
	.loc	9 612 23
	movl	-303(%rbp), %edx
	movl	%edx, -48(%rbp)
	movl	-300(%rbp), %edx
	movl	%edx, -45(%rbp)
Ltmp1673:
	.loc	1 248 25
	movb	$0, 8(%r14)
	movl	-104(%rbp), %edx
	movl	-101(%rbp), %esi
	movl	%edx, 9(%r14)
	movl	%esi, 12(%r14)
	movb	%al, 16(%r14)
	movl	-48(%rbp), %eax
	movl	-45(%rbp), %edx
	movl	%eax, 17(%r14)
	movl	%edx, 20(%r14)
	movq	%rcx, 24(%r14)
	movb	$1, (%r14)
	jmp	LBB70_44
Ltmp1674:
LBB70_27:
	.loc	9 611 22
	movl	-308(%rbp), %eax
	movb	-304(%rbp), %cl
	movl	-303(%rbp), %edx
	movl	%edx, -104(%rbp)
	movl	-300(%rbp), %edx
	movl	%edx, -101(%rbp)
	movb	-296(%rbp), %dl
	movl	-295(%rbp), %esi
	movl	%esi, -48(%rbp)
	movl	-292(%rbp), %esi
	movl	%esi, -45(%rbp)
	movups	-288(%rbp), %xmm0
Ltmp1675:
	.loc	1 248 25
	movl	%eax, -88(%rbp)
	movb	%cl, -84(%rbp)
	movl	-104(%rbp), %eax
	movl	-101(%rbp), %ecx
	movl	%eax, -83(%rbp)
	movl	%ecx, -80(%rbp)
Ltmp1676:
	movb	%dl, -76(%rbp)
	movl	-48(%rbp), %eax
	movl	-45(%rbp), %ecx
	movl	%ecx, -72(%rbp)
	movl	%eax, -75(%rbp)
	movups	%xmm0, -68(%rbp)
Ltmp1677:
	.loc	15 2058 5
	movq	-76(%rbp), %rcx
	movq	%rcx, %rax
	shrq	$32, %rax
Ltmp1678:
	.loc	15 2058 5 is_stmt 0
	movq	$0, -76(%rbp)
	movl	%ecx, -312(%rbp)
	movl	%eax, -308(%rbp)
Ltmp1679:
	.loc	3 348 13 is_stmt 1
	testl	%ecx, %ecx
Ltmp1680:
	je	LBB70_54
Ltmp1681:
	.loc	1 0 0 is_stmt 0
	leaq	-68(%rbp), %r12
	leaq	-60(%rbp), %r15
Ltmp1682:
	.loc	1 249 25 is_stmt 1
	movl	%eax, -52(%rbp)
Ltmp1683:
	.loc	1 251 12
	cmpb	$0, 120(%r13)
	.loc	1 251 9 is_stmt 0
	je	LBB70_31
Ltmp1684:
Ltmp1572:
	.loc	1 252 18 is_stmt 1
	leaq	l___unnamed_67(%rip), %rdx
	leaq	-312(%rbp), %rbx
	leaq	-52(%rbp), %rsi
	movl	$11, %ecx
	movq	%rbx, %rdi
	callq	__ZN3std2io5Write9write_all17h27ab8ef6faa6daf7E
Ltmp1685:
Ltmp1573:
	.loc	9 611 13
	movb	-312(%rbp), %al
	cmpb	$3, %al
	jne	LBB70_37
Ltmp1686:
LBB70_31:
Ltmp1574:
	.loc	1 254 14
	leaq	l___unnamed_68(%rip), %rdx
	leaq	-312(%rbp), %rbx
	leaq	-52(%rbp), %rsi
	movq	%rbx, %rdi
	xorl	%ecx, %ecx
	callq	__ZN3std2io5Write9write_all17h27ab8ef6faa6daf7E
Ltmp1575:
Ltmp1687:
	.loc	9 611 13
	movb	-312(%rbp), %al
	cmpb	$3, %al
	jne	LBB70_37
Ltmp1688:
	.loc	1 255 14
	movl	-52(%rbp), %eax
Ltmp1689:
	.loc	1 0 14 is_stmt 0
	movl	%eax, -312(%rbp)
Ltmp1690:
Ltmp1579:
	leaq	-312(%rbp), %rdi
Ltmp1691:
	.loc	4 178 1 is_stmt 1
	callq	__ZN70_$LT$std..sys..unix..fd..FileDesc$u20$as$u20$core..ops..drop..Drop$GT$4drop17hf5fce2bf4d9f8deaE
Ltmp1692:
Ltmp1580:
Ltmp1581:
	.loc	4 0 1 is_stmt 0
	leaq	-312(%rbp), %rdi
	leaq	-88(%rbp), %rsi
	.loc	1 257 27 is_stmt 1
	callq	__ZN3std7process5Child4wait17h81375565a41361c6E
Ltmp1582:
Ltmp1693:
	.loc	9 611 13
	cmpl	$1, -312(%rbp)
	jne	LBB70_46
Ltmp1694:
	.loc	36 49 15
	movb	-304(%rbp), %al
	movq	-296(%rbp), %rcx
Ltmp1695:
	.loc	9 612 23
	movl	-303(%rbp), %edx
	movl	%edx, -48(%rbp)
	movl	-300(%rbp), %edx
	movl	%edx, -45(%rbp)
Ltmp1696:
	.loc	1 257 22
	movb	$0, 8(%r14)
	movl	-104(%rbp), %edx
	movl	-101(%rbp), %esi
	movl	%edx, 9(%r14)
	movl	%esi, 12(%r14)
	movb	%al, 16(%r14)
	movl	-48(%rbp), %eax
	movl	-45(%rbp), %edx
	movl	%eax, 17(%r14)
	movl	%edx, 20(%r14)
	movq	%rcx, 24(%r14)
	movb	$1, (%r14)
Ltmp1697:
	.loc	4 178 1
	cmpl	$0, -76(%rbp)
	jne	LBB70_39
	jmp	LBB70_40
Ltmp1698:
LBB70_37:
	.loc	4 0 1 is_stmt 0
	leaq	-48(%rbp), %rcx
Ltmp1699:
	movq	8(%rbx), %rdx
	movl	1(%rbx), %esi
	movl	4(%rbx), %edi
	movl	%edi, 3(%rcx)
	movl	%esi, (%rcx)
	movb	$0, 8(%r14)
	movq	-120(%rbp), %rdi
	movl	(%rdi), %esi
	movl	3(%rdi), %edi
	movl	%esi, 9(%r14)
	movl	%edi, 12(%r14)
	movb	%al, 16(%r14)
	movl	(%rcx), %eax
	movl	3(%rcx), %ecx
	movl	%eax, 17(%r14)
	movl	%ecx, 20(%r14)
	movq	%rdx, 24(%r14)
	movb	$1, (%r14)
Ltmp1700:
Ltmp1577:
	leaq	-52(%rbp), %rdi
Ltmp1701:
	.loc	4 178 1
	callq	__ZN70_$LT$std..sys..unix..fd..FileDesc$u20$as$u20$core..ops..drop..Drop$GT$4drop17hf5fce2bf4d9f8deaE
Ltmp1578:
Ltmp1702:
	.loc	4 178 1
	cmpl	$0, -76(%rbp)
	je	LBB70_40
Ltmp1703:
LBB70_39:
	leaq	-72(%rbp), %rdi
Ltmp1704:
Ltmp1600:
	.loc	4 178 1
	callq	__ZN70_$LT$std..sys..unix..fd..FileDesc$u20$as$u20$core..ops..drop..Drop$GT$4drop17hf5fce2bf4d9f8deaE
Ltmp1705:
Ltmp1601:
LBB70_40:
	.loc	4 178 1
	cmpl	$0, -68(%rbp)
	je	LBB70_42
Ltmp1706:
	leaq	-64(%rbp), %rdi
Ltmp1707:
Ltmp1605:
	.loc	4 178 1
	callq	__ZN70_$LT$std..sys..unix..fd..FileDesc$u20$as$u20$core..ops..drop..Drop$GT$4drop17hf5fce2bf4d9f8deaE
Ltmp1708:
Ltmp1606:
LBB70_42:
	.loc	4 178 1
	cmpl	$0, -60(%rbp)
	je	LBB70_44
Ltmp1709:
	leaq	-56(%rbp), %rdi
Ltmp1710:
Ltmp1610:
	.loc	4 178 1
	callq	__ZN70_$LT$std..sys..unix..fd..FileDesc$u20$as$u20$core..ops..drop..Drop$GT$4drop17hf5fce2bf4d9f8deaE
Ltmp1711:
Ltmp1611:
LBB70_44:
Ltmp1619:
	.loc	4 0 1
	leaq	-496(%rbp), %rdi
	.loc	1 259 5 is_stmt 1
	callq	__ZN4core3ptr13drop_in_place17hb6f0cbfeb0680e22E
Ltmp1620:
Ltmp1712:
LBB70_45:
	.loc	1 259 6 is_stmt 0
	addq	$456, %rsp
	popq	%rbx
	popq	%r12
	popq	%r13
Ltmp1713:
	popq	%r14
	popq	%r15
	popq	%rbp
	retq
LBB70_46:
Ltmp1714:
	.loc	9 611 16 is_stmt 1
	movl	-308(%rbp), %eax
Ltmp1715:
	.loc	1 257 22
	movl	%eax, -108(%rbp)
Ltmp1583:
	leaq	-108(%rbp), %rdi
Ltmp1716:
	.loc	1 258 12
	callq	__ZN3std7process10ExitStatus7success17h2b8b99214fbc7387E
Ltmp1717:
Ltmp1584:
	.loc	1 258 9 is_stmt 0
	movb	%al, 1(%r14)
	movb	$0, (%r14)
Ltmp1718:
	.loc	4 178 1 is_stmt 1
	cmpl	$0, -76(%rbp)
	je	LBB70_49
Ltmp1719:
	leaq	-72(%rbp), %rdi
Ltmp1720:
Ltmp1586:
	.loc	4 178 1 is_stmt 0
	callq	__ZN70_$LT$std..sys..unix..fd..FileDesc$u20$as$u20$core..ops..drop..Drop$GT$4drop17hf5fce2bf4d9f8deaE
Ltmp1721:
Ltmp1587:
LBB70_49:
	.loc	4 178 1
	cmpl	$0, -68(%rbp)
	je	LBB70_51
Ltmp1722:
	leaq	-64(%rbp), %rdi
Ltmp1723:
Ltmp1591:
	.loc	4 178 1
	callq	__ZN70_$LT$std..sys..unix..fd..FileDesc$u20$as$u20$core..ops..drop..Drop$GT$4drop17hf5fce2bf4d9f8deaE
Ltmp1724:
Ltmp1592:
LBB70_51:
	.loc	4 178 1
	cmpl	$0, -60(%rbp)
	je	LBB70_53
Ltmp1725:
	leaq	-56(%rbp), %rdi
Ltmp1726:
Ltmp1596:
	.loc	4 178 1
	callq	__ZN70_$LT$std..sys..unix..fd..FileDesc$u20$as$u20$core..ops..drop..Drop$GT$4drop17hf5fce2bf4d9f8deaE
Ltmp1727:
Ltmp1597:
LBB70_53:
Ltmp1598:
	.loc	4 0 1
	leaq	-496(%rbp), %rdi
	.loc	1 259 5 is_stmt 1
	callq	__ZN4core3ptr13drop_in_place17hb6f0cbfeb0680e22E
Ltmp1599:
	jmp	LBB70_45
Ltmp1728:
LBB70_54:
Ltmp1613:
	.loc	3 349 21
	leaq	l___unnamed_69(%rip), %rdi
	leaq	l___unnamed_70(%rip), %rdx
	movl	$11, %esi
	callq	__ZN4core6option13expect_failed17h68bd601d867bb8d1E
Ltmp1614:
Ltmp1729:
	.loc	3 0 21 is_stmt 0
	ud2
Ltmp1730:
LBB70_56:
Ltmp1615:
	movq	%rax, %rbx
Ltmp1731:
Ltmp1616:
	leaq	-312(%rbp), %rdi
	.loc	3 351 5 is_stmt 1
	callq	__ZN4core3ptr13drop_in_place17h0a02f77108e1b6bcE
Ltmp1617:
	jmp	LBB70_66
Ltmp1732:
LBB70_57:
Ltmp1593:
	.loc	3 0 5 is_stmt 0
	movq	%rax, %rbx
	jmp	LBB70_59
Ltmp1733:
LBB70_58:
Ltmp1588:
	movq	%rax, %rbx
Ltmp1589:
Ltmp1734:
	.loc	4 178 1 is_stmt 1
	movq	%r12, %rdi
	callq	__ZN4core3ptr13drop_in_place17h0a02f77108e1b6bcE
Ltmp1590:
Ltmp1735:
LBB70_59:
Ltmp1594:
	movq	%r15, %rdi
	callq	__ZN4core3ptr13drop_in_place17h0a02f77108e1b6bcE
Ltmp1595:
	jmp	LBB70_72
Ltmp1736:
LBB70_60:
Ltmp1607:
	.loc	4 0 1 is_stmt 0
	movq	%rax, %rbx
	jmp	LBB70_62
Ltmp1737:
LBB70_61:
Ltmp1602:
	movq	%rax, %rbx
Ltmp1603:
Ltmp1738:
	.loc	4 178 1
	movq	%r12, %rdi
	callq	__ZN4core3ptr13drop_in_place17h0a02f77108e1b6bcE
Ltmp1604:
Ltmp1739:
LBB70_62:
Ltmp1608:
	movq	%r15, %rdi
	callq	__ZN4core3ptr13drop_in_place17h0a02f77108e1b6bcE
Ltmp1609:
	jmp	LBB70_72
Ltmp1740:
LBB70_63:
Ltmp1618:
	.loc	4 0 1
	movq	%rax, %rbx
	jmp	LBB70_66
Ltmp1741:
LBB70_64:
Ltmp1585:
	movq	%rax, %rbx
	jmp	LBB70_66
Ltmp1742:
LBB70_65:
Ltmp1576:
	movq	%rax, %rbx
Ltmp1743:
	leaq	-52(%rbp), %rdi
Ltmp1744:
	.loc	1 259 5 is_stmt 1
	callq	__ZN4core3ptr13drop_in_place17hf8d5c2f52ff90246E
Ltmp1745:
LBB70_66:
	.loc	1 0 5 is_stmt 0
	leaq	-88(%rbp), %rdi
	.loc	1 259 5
	callq	__ZN4core3ptr13drop_in_place17h24ed532e32a39aacE
	jmp	LBB70_72
Ltmp1746:
LBB70_67:
Ltmp1544:
	.loc	1 0 5
	movq	%rax, %rbx
Ltmp1747:
	leaq	-312(%rbp), %rdi
Ltmp1748:
	.loc	37 544 5 is_stmt 1
	callq	__ZN4core3ptr13drop_in_place17h8b15457ebfae4483E
	jmp	LBB70_72
Ltmp1749:
LBB70_68:
Ltmp1621:
	.loc	37 0 5 is_stmt 0
	movq	%rax, %rbx
	movq	%rbx, %rdi
	callq	__Unwind_Resume
	ud2
Ltmp1750:
LBB70_69:
Ltmp1612:
	jmp	LBB70_71
Ltmp1751:
LBB70_70:
Ltmp1559:
LBB70_71:
	movq	%rax, %rbx
Ltmp1752:
LBB70_72:
	leaq	-496(%rbp), %rdi
	.loc	1 259 5 is_stmt 1
	callq	__ZN4core3ptr13drop_in_place17hb6f0cbfeb0680e22E
	movq	%rbx, %rdi
	callq	__Unwind_Resume
	ud2
Ltmp1753:
Lfunc_end70:
	.cfi_endproc
	.file	46 "/rustc/a74d1862d4d87a56244958416fd05976c58ca1a8/src/libstd/sys_common/os_str_bytes.rs"
	.section	__TEXT,__gcc_except_tab
	.p2align	2
GCC_except_table70:
Lexception12:
	.byte	255
	.byte	255
	.byte	1
	.uleb128 Lcst_end12-Lcst_begin12
Lcst_begin12:
	.uleb128 Ltmp1534-Lfunc_begin70
	.uleb128 Ltmp1537-Ltmp1534
	.uleb128 Ltmp1621-Lfunc_begin70
	.byte	0
	.uleb128 Ltmp1537-Lfunc_begin70
	.uleb128 Ltmp1538-Ltmp1537
	.byte	0
	.byte	0
	.uleb128 Ltmp1538-Lfunc_begin70
	.uleb128 Ltmp1541-Ltmp1538
	.uleb128 Ltmp1612-Lfunc_begin70
	.byte	0
	.uleb128 Ltmp1542-Lfunc_begin70
	.uleb128 Ltmp1543-Ltmp1542
	.uleb128 Ltmp1544-Lfunc_begin70
	.byte	0
	.uleb128 Ltmp1545-Lfunc_begin70
	.uleb128 Ltmp1554-Ltmp1545
	.uleb128 Ltmp1612-Lfunc_begin70
	.byte	0
	.uleb128 Ltmp1555-Lfunc_begin70
	.uleb128 Ltmp1558-Ltmp1555
	.uleb128 Ltmp1559-Lfunc_begin70
	.byte	0
	.uleb128 Ltmp1560-Lfunc_begin70
	.uleb128 Ltmp1571-Ltmp1560
	.uleb128 Ltmp1612-Lfunc_begin70
	.byte	0
	.uleb128 Ltmp1572-Lfunc_begin70
	.uleb128 Ltmp1575-Ltmp1572
	.uleb128 Ltmp1576-Lfunc_begin70
	.byte	0
	.uleb128 Ltmp1579-Lfunc_begin70
	.uleb128 Ltmp1582-Ltmp1579
	.uleb128 Ltmp1585-Lfunc_begin70
	.byte	0
	.uleb128 Ltmp1577-Lfunc_begin70
	.uleb128 Ltmp1578-Ltmp1577
	.uleb128 Ltmp1618-Lfunc_begin70
	.byte	0
	.uleb128 Ltmp1600-Lfunc_begin70
	.uleb128 Ltmp1601-Ltmp1600
	.uleb128 Ltmp1602-Lfunc_begin70
	.byte	0
	.uleb128 Ltmp1605-Lfunc_begin70
	.uleb128 Ltmp1606-Ltmp1605
	.uleb128 Ltmp1607-Lfunc_begin70
	.byte	0
	.uleb128 Ltmp1610-Lfunc_begin70
	.uleb128 Ltmp1611-Ltmp1610
	.uleb128 Ltmp1612-Lfunc_begin70
	.byte	0
	.uleb128 Ltmp1619-Lfunc_begin70
	.uleb128 Ltmp1620-Ltmp1619
	.uleb128 Ltmp1621-Lfunc_begin70
	.byte	0
	.uleb128 Ltmp1583-Lfunc_begin70
	.uleb128 Ltmp1584-Ltmp1583
	.uleb128 Ltmp1585-Lfunc_begin70
	.byte	0
	.uleb128 Ltmp1586-Lfunc_begin70
	.uleb128 Ltmp1587-Ltmp1586
	.uleb128 Ltmp1588-Lfunc_begin70
	.byte	0
	.uleb128 Ltmp1591-Lfunc_begin70
	.uleb128 Ltmp1592-Ltmp1591
	.uleb128 Ltmp1593-Lfunc_begin70
	.byte	0
	.uleb128 Ltmp1596-Lfunc_begin70
	.uleb128 Ltmp1597-Ltmp1596
	.uleb128 Ltmp1612-Lfunc_begin70
	.byte	0
	.uleb128 Ltmp1598-Lfunc_begin70
	.uleb128 Ltmp1599-Ltmp1598
	.uleb128 Ltmp1621-Lfunc_begin70
	.byte	0
	.uleb128 Ltmp1613-Lfunc_begin70
	.uleb128 Ltmp1614-Ltmp1613
	.uleb128 Ltmp1615-Lfunc_begin70
	.byte	0
	.uleb128 Ltmp1616-Lfunc_begin70
	.uleb128 Ltmp1617-Ltmp1616
	.uleb128 Ltmp1618-Lfunc_begin70
	.byte	0
	.uleb128 Ltmp1589-Lfunc_begin70
	.uleb128 Ltmp1609-Ltmp1589
	.uleb128 Ltmp1612-Lfunc_begin70
	.byte	0
	.uleb128 Ltmp1609-Lfunc_begin70
	.uleb128 Lfunc_end70-Ltmp1609
	.byte	0
	.byte	0
Lcst_end12:
	.p2align	2

	.section	__TEXT,__text,regular,pure_instructions
	.p2align	4, 0x90
__ZN7autocfg7AutoCfg5probe17hf34fbb9cd6f96849E:
Lfunc_begin71:
	.loc	1 225 0
	.cfi_startproc
	.cfi_personality 155, _rust_eh_personality
	.cfi_lsda 16, Lexception13
	pushq	%rbp
	.cfi_def_cfa_offset 16
	.cfi_offset %rbp, -16
	movq	%rsp, %rbp
	.cfi_def_cfa_register %rbp
	pushq	%r15
	pushq	%r14
	pushq	%r13
	pushq	%r12
	pushq	%rbx
	subq	$472, %rsp
	.cfi_offset %rbx, -56
	.cfi_offset %r12, -48
	.cfi_offset %r13, -40
	.cfi_offset %r14, -32
	.cfi_offset %r15, -24
	movl	$1, %eax
Ltmp1842:
	.loc	45 2303 20 prologue_end
	lock		xaddq	%rax, __ZN7autocfg7AutoCfg5probe2ID17h25c49fc517ba5cbcE(%rip)
Ltmp1843:
	.loc	45 0 20 is_stmt 0
	movq	%rdx, -120(%rbp)
Ltmp1844:
	movq	%rsi, %r12
Ltmp1845:
	movq	%rdi, %r15
Ltmp1846:
	.loc	1 229 18 is_stmt 1
	movq	%rax, -136(%rbp)
Ltmp1847:
	.loc	1 230 40
	leaq	24(%rsi), %rdi
Ltmp1848:
Ltmp1754:
	.loc	22 510 9
	callq	__ZN90_$LT$std..path..PathBuf$u20$as$u20$core..convert..AsRef$LT$std..ffi..os_str..OsStr$GT$$GT$6as_ref17haeabe10b3c5713c9E
Ltmp1849:
Ltmp1755:
Ltmp1756:
	.loc	22 0 9 is_stmt 0
	leaq	-320(%rbp), %rdi
	.loc	37 501 26 is_stmt 1
	movq	%rax, %rsi
	callq	__ZN3std3sys4unix7process14process_common7Command3new17hcd746a384cbb0b47E
Ltmp1757:
Ltmp1850:
	.loc	37 0 26 is_stmt 0
	leaq	-504(%rbp), %rbx
	leaq	-320(%rbp), %rsi
	.loc	37 501 9
	movl	$184, %edx
	movq	%rbx, %rdi
	callq	_memcpy
Ltmp1851:
Ltmp1758:
	.loc	37 542 9 is_stmt 1
	leaq	l___unnamed_60(%rip), %rsi
	movl	$12, %edx
	movq	%rbx, %rdi
	callq	__ZN3std3sys4unix7process14process_common7Command3arg17hc476c471a9efd12bE
Ltmp1759:
Ltmp1852:
	.loc	37 0 9 is_stmt 0
	leaq	-136(%rbp), %rax
Ltmp1853:
	.loc	1 233 18 is_stmt 1
	movq	%rax, -104(%rbp)
	movq	__ZN4core3fmt3num3imp54_$LT$impl$u20$core..fmt..Display$u20$for$u20$usize$GT$3fmt17h89ce3155a90f2edfE@GOTPCREL(%rip), %rax
	movq	%rax, -96(%rbp)
Ltmp1854:
	.loc	23 328 9
	leaq	l___unnamed_61(%rip), %rax
Ltmp1855:
	movq	%rax, -320(%rbp)
	movq	$1, -312(%rbp)
	movq	$0, -304(%rbp)
	leaq	-104(%rbp), %rax
Ltmp1856:
	.loc	23 0 9 is_stmt 0
	movq	%rax, -128(%rbp)
	.loc	23 328 9
	movq	%rax, -288(%rbp)
	movq	$1, -280(%rbp)
Ltmp1760:
	leaq	-88(%rbp), %rdi
	leaq	-320(%rbp), %rsi
Ltmp1857:
	.loc	1 233 18 is_stmt 1
	callq	__ZN5alloc3fmt6format17hef4b691705b449e4E
Ltmp1761:
Ltmp1858:
	.loc	1 233 18 is_stmt 0
	movq	-88(%rbp), %rbx
	movq	-80(%rbp), %rax
	movq	%rbx, -320(%rbp)
	movq	%rax, -312(%rbp)
	movq	-72(%rbp), %rdx
	movq	%rdx, -304(%rbp)
Ltmp1859:
Ltmp1762:
	.loc	1 0 18
	leaq	-504(%rbp), %rdi
Ltmp1860:
	.loc	37 542 9 is_stmt 1
	movq	%rbx, %rsi
	callq	__ZN3std3sys4unix7process14process_common7Command3arg17hc476c471a9efd12bE
Ltmp1763:
Ltmp1861:
	.loc	4 178 1
	movq	-312(%rbp), %rsi
Ltmp1862:
	.loc	17 200 40
	testq	%rsi, %rsi
	.loc	17 200 9 is_stmt 0
	je	LBB71_7
Ltmp1863:
	.loc	7 102 5 is_stmt 1
	movl	$1, %edx
	movq	%rbx, %rdi
	callq	___rust_dealloc
Ltmp1864:
LBB71_7:
Ltmp1765:
	.loc	37 542 9
	leaq	L___unnamed_62(%rip), %rsi
	leaq	-504(%rbp), %rdi
	movl	$16, %edx
	callq	__ZN3std3sys4unix7process14process_common7Command3arg17hc476c471a9efd12bE
Ltmp1766:
Ltmp1865:
Ltmp1767:
	.loc	37 542 9 is_stmt 0
	leaq	l___unnamed_63(%rip), %rsi
	leaq	-504(%rbp), %rdi
	movl	$9, %edx
	callq	__ZN3std3sys4unix7process14process_common7Command3arg17hc476c471a9efd12bE
Ltmp1768:
Ltmp1866:
Ltmp1769:
	.loc	22 510 9 is_stmt 1
	movq	%r12, %rdi
	callq	__ZN90_$LT$std..path..PathBuf$u20$as$u20$core..convert..AsRef$LT$std..ffi..os_str..OsStr$GT$$GT$6as_ref17haeabe10b3c5713c9E
Ltmp1770:
Ltmp1867:
Ltmp1771:
	.loc	22 0 9 is_stmt 0
	leaq	-504(%rbp), %rdi
	.loc	37 542 9 is_stmt 1
	movq	%rax, %rsi
	callq	__ZN3std3sys4unix7process14process_common7Command3arg17hc476c471a9efd12bE
Ltmp1772:
Ltmp1868:
Ltmp1773:
	.loc	37 542 9 is_stmt 0
	leaq	l___unnamed_64(%rip), %rsi
	leaq	-504(%rbp), %rdi
	movl	$14, %edx
	callq	__ZN3std3sys4unix7process14process_common7Command3arg17hc476c471a9efd12bE
Ltmp1774:
Ltmp1869:
	.loc	1 239 17 is_stmt 1
	movq	96(%r12), %r14
	testq	%r14, %r14
	je	LBB71_18
Ltmp1870:
	.loc	18 1966 55
	movq	112(%r12), %rax
Ltmp1871:
	.loc	11 3179 9
	testq	%rax, %rax
	.loc	11 3303 21
	je	LBB71_18
Ltmp1872:
	.loc	11 0 0 is_stmt 0
	leaq	(%rax,%rax,2), %rax
Ltmp1873:
	leaq	(%r14,%rax,8), %r13
	leaq	-504(%rbp), %rbx
Ltmp1874:
	.p2align	4, 0x90
LBB71_15:
	.loc	18 814 19 is_stmt 1
	movq	(%r14), %rdi
Ltmp1875:
	.loc	18 1966 55
	movq	16(%r14), %rsi
Ltmp1876:
Ltmp1775:
	.loc	22 510 9
	callq	__ZN95_$LT$std..ffi..os_str..OsStr$u20$as$u20$core..convert..AsRef$LT$std..ffi..os_str..OsStr$GT$$GT$6as_ref17h446c7b9305eed47bE
Ltmp1776:
Ltmp1877:
Ltmp1777:
	.loc	37 542 9
	movq	%rbx, %rdi
	movq	%rax, %rsi
	callq	__ZN3std3sys4unix7process14process_common7Command3arg17hc476c471a9efd12bE
Ltmp1778:
Ltmp1878:
	.loc	11 3179 9
	addq	$24, %r14
Ltmp1879:
	cmpq	%r13, %r14
	.loc	11 3303 21
	jne	LBB71_15
Ltmp1880:
LBB71_18:
	.loc	3 270 13
	cmpq	$0, 72(%r12)
	movq	-120(%rbp), %rbx
Ltmp1881:
	.loc	1 243 16
	je	LBB71_21
Ltmp1882:
Ltmp1780:
	.loc	37 542 9
	leaq	L___unnamed_65(%rip), %rsi
	leaq	-504(%rbp), %rdi
	movl	$8, %edx
	callq	__ZN3std3sys4unix7process14process_common7Command3arg17hc476c471a9efd12bE
Ltmp1781:
Ltmp1883:
	.loc	18 814 19
	movq	72(%r12), %rsi
Ltmp1884:
	.loc	18 1966 55
	movq	88(%r12), %rdx
Ltmp1782:
	leaq	-504(%rbp), %rdi
Ltmp1885:
	.loc	37 542 9
	callq	__ZN3std3sys4unix7process14process_common7Command3arg17hc476c471a9efd12bE
Ltmp1783:
Ltmp1886:
LBB71_21:
Ltmp1784:
	.loc	37 542 9 is_stmt 0
	leaq	l___unnamed_66(%rip), %rsi
	leaq	-504(%rbp), %rdi
	movl	$1, %edx
	callq	__ZN3std3sys4unix7process14process_common7Command3arg17hc476c471a9efd12bE
Ltmp1785:
Ltmp1887:
Ltmp1786:
	.loc	1 247 32 is_stmt 1
	callq	__ZN3std7process5Stdio5piped17hd1af72b86ccf8a8eE
Ltmp1787:
Ltmp1888:
Ltmp1788:
	.loc	1 0 32 is_stmt 0
	leaq	-504(%rbp), %rdi
Ltmp1889:
	.loc	37 732 9 is_stmt 1
	movl	%eax, %esi
	callq	__ZN3std3sys4unix7process14process_common7Command5stdin17h7766ebac1f5b6d00E
Ltmp1890:
Ltmp1789:
Ltmp1790:
	.loc	37 0 9 is_stmt 0
	leaq	-320(%rbp), %rdi
	leaq	-504(%rbp), %rsi
	.loc	1 248 30 is_stmt 1
	callq	__ZN3std7process7Command5spawn17hf2971800d3316042E
Ltmp1791:
Ltmp1891:
	.loc	9 611 13
	cmpl	$1, -320(%rbp)
	jne	LBB71_27
Ltmp1892:
	.loc	36 49 15
	movb	-312(%rbp), %al
	movq	-304(%rbp), %rcx
Ltmp1893:
	.loc	9 612 23
	movl	-311(%rbp), %edx
	movl	%edx, -48(%rbp)
	movl	-308(%rbp), %edx
	movl	%edx, -45(%rbp)
Ltmp1894:
	.loc	1 248 25
	movb	$0, 8(%r15)
	movl	-104(%rbp), %edx
	movl	-101(%rbp), %esi
	movl	%edx, 9(%r15)
	movl	%esi, 12(%r15)
	movb	%al, 16(%r15)
	movl	-48(%rbp), %eax
	movl	-45(%rbp), %edx
	movl	%eax, 17(%r15)
	movl	%edx, 20(%r15)
	movq	%rcx, 24(%r15)
	movb	$1, (%r15)
	jmp	LBB71_44
Ltmp1895:
LBB71_27:
	.loc	9 611 22
	movl	-316(%rbp), %eax
	movb	-312(%rbp), %cl
	movl	-311(%rbp), %edx
	movl	%edx, -104(%rbp)
	movl	-308(%rbp), %edx
	movl	%edx, -101(%rbp)
	movb	-304(%rbp), %dl
	movl	-303(%rbp), %esi
	movl	%esi, -48(%rbp)
	movl	-300(%rbp), %esi
	movl	%esi, -45(%rbp)
	movups	-296(%rbp), %xmm0
Ltmp1896:
	.loc	1 248 25
	movl	%eax, -88(%rbp)
	movb	%cl, -84(%rbp)
	movl	-104(%rbp), %eax
	movl	-101(%rbp), %ecx
	movl	%eax, -83(%rbp)
	movl	%ecx, -80(%rbp)
Ltmp1897:
	movb	%dl, -76(%rbp)
	movl	-48(%rbp), %eax
	movl	-45(%rbp), %ecx
	movl	%ecx, -72(%rbp)
	movl	%eax, -75(%rbp)
	movups	%xmm0, -68(%rbp)
Ltmp1898:
	.loc	15 2058 5
	movq	-76(%rbp), %rcx
	movq	%rcx, %rax
	shrq	$32, %rax
Ltmp1899:
	.loc	15 2058 5 is_stmt 0
	movq	$0, -76(%rbp)
	movl	%ecx, -320(%rbp)
	movl	%eax, -316(%rbp)
Ltmp1900:
	.loc	3 348 13 is_stmt 1
	testl	%ecx, %ecx
Ltmp1901:
	je	LBB71_60
Ltmp1902:
	.loc	1 0 0 is_stmt 0
	leaq	-60(%rbp), %r13
Ltmp1903:
	.loc	1 249 25 is_stmt 1
	movl	%eax, -52(%rbp)
Ltmp1904:
	.loc	1 251 12
	cmpb	$0, 120(%r12)
	.loc	1 251 9 is_stmt 0
	je	LBB71_31
Ltmp1905:
Ltmp1792:
	.loc	1 252 18 is_stmt 1
	leaq	l___unnamed_67(%rip), %rdx
	leaq	-320(%rbp), %r12
Ltmp1906:
	.loc	1 0 18 is_stmt 0
	leaq	-52(%rbp), %rsi
	.loc	1 252 18
	movl	$11, %ecx
	movq	%r12, %rdi
	callq	__ZN3std2io5Write9write_all17h27ab8ef6faa6daf7E
Ltmp1907:
Ltmp1793:
	.loc	9 611 13 is_stmt 1
	movb	-320(%rbp), %al
	cmpb	$3, %al
	jne	LBB71_37
Ltmp1908:
LBB71_31:
	.loc	18 814 19
	movq	(%rbx), %r14
Ltmp1909:
	.loc	18 1966 55
	movq	16(%rbx), %rcx
Ltmp1794:
	leaq	-320(%rbp), %r12
	leaq	-52(%rbp), %rsi
Ltmp1910:
	.loc	1 254 14
	movq	%r12, %rdi
	movq	%r14, %rdx
	callq	__ZN3std2io5Write9write_all17h27ab8ef6faa6daf7E
Ltmp1795:
Ltmp1911:
	.loc	9 611 13
	movb	-320(%rbp), %al
	cmpb	$3, %al
	jne	LBB71_37
Ltmp1912:
	.loc	1 255 14
	movl	-52(%rbp), %eax
Ltmp1913:
	.loc	1 0 14 is_stmt 0
	movl	%eax, -320(%rbp)
Ltmp1914:
Ltmp1799:
	leaq	-320(%rbp), %rdi
Ltmp1915:
	.loc	4 178 1 is_stmt 1
	callq	__ZN70_$LT$std..sys..unix..fd..FileDesc$u20$as$u20$core..ops..drop..Drop$GT$4drop17hf5fce2bf4d9f8deaE
Ltmp1916:
Ltmp1800:
Ltmp1801:
	.loc	4 0 1 is_stmt 0
	leaq	-320(%rbp), %rdi
	leaq	-88(%rbp), %rsi
	.loc	1 257 27 is_stmt 1
	callq	__ZN3std7process5Child4wait17h81375565a41361c6E
Ltmp1802:
Ltmp1917:
	.loc	9 611 13
	cmpl	$1, -320(%rbp)
	jne	LBB71_50
Ltmp1918:
	.loc	36 49 15
	movb	-312(%rbp), %al
	movq	-304(%rbp), %rcx
Ltmp1919:
	.loc	9 612 23
	movl	-311(%rbp), %edx
	movl	%edx, -48(%rbp)
	movl	-308(%rbp), %edx
	movl	%edx, -45(%rbp)
Ltmp1920:
	.loc	1 257 22
	movb	$0, 8(%r15)
	movl	-104(%rbp), %edx
	movl	-101(%rbp), %esi
	movl	%edx, 9(%r15)
	movl	%esi, 12(%r15)
	movb	%al, 16(%r15)
	movl	-48(%rbp), %eax
	movl	-45(%rbp), %edx
	movl	%eax, 17(%r15)
	movl	%edx, 20(%r15)
	movq	%rcx, 24(%r15)
	movb	$1, (%r15)
Ltmp1921:
	.loc	4 178 1
	cmpl	$0, -76(%rbp)
	jne	LBB71_39
	jmp	LBB71_40
Ltmp1922:
LBB71_37:
	.loc	4 0 1 is_stmt 0
	leaq	-48(%rbp), %rcx
Ltmp1923:
	movq	8(%r12), %rdx
	movl	1(%r12), %esi
	movl	4(%r12), %edi
	movl	%edi, 3(%rcx)
	movl	%esi, (%rcx)
	movb	$0, 8(%r15)
	movq	-128(%rbp), %rdi
	movl	(%rdi), %esi
	movl	3(%rdi), %edi
	movl	%esi, 9(%r15)
	movl	%edi, 12(%r15)
	movb	%al, 16(%r15)
	movl	(%rcx), %eax
	movl	3(%rcx), %ecx
	movl	%eax, 17(%r15)
	movl	%ecx, 20(%r15)
	movq	%rdx, 24(%r15)
	movb	$1, (%r15)
Ltmp1924:
Ltmp1797:
	leaq	-52(%rbp), %rdi
Ltmp1925:
	.loc	4 178 1
	callq	__ZN70_$LT$std..sys..unix..fd..FileDesc$u20$as$u20$core..ops..drop..Drop$GT$4drop17hf5fce2bf4d9f8deaE
Ltmp1798:
Ltmp1926:
	.loc	4 178 1
	cmpl	$0, -76(%rbp)
	je	LBB71_40
Ltmp1927:
LBB71_39:
	leaq	-72(%rbp), %rdi
Ltmp1928:
Ltmp1820:
	.loc	4 178 1
	callq	__ZN70_$LT$std..sys..unix..fd..FileDesc$u20$as$u20$core..ops..drop..Drop$GT$4drop17hf5fce2bf4d9f8deaE
Ltmp1929:
Ltmp1821:
LBB71_40:
	.loc	4 178 1
	cmpl	$0, -68(%rbp)
	je	LBB71_42
Ltmp1930:
	leaq	-64(%rbp), %rdi
Ltmp1931:
Ltmp1825:
	.loc	4 178 1
	callq	__ZN70_$LT$std..sys..unix..fd..FileDesc$u20$as$u20$core..ops..drop..Drop$GT$4drop17hf5fce2bf4d9f8deaE
Ltmp1932:
Ltmp1826:
LBB71_42:
	.loc	4 178 1
	cmpl	$0, -60(%rbp)
	je	LBB71_44
Ltmp1933:
	leaq	-56(%rbp), %rdi
Ltmp1934:
Ltmp1830:
	.loc	4 178 1
	callq	__ZN70_$LT$std..sys..unix..fd..FileDesc$u20$as$u20$core..ops..drop..Drop$GT$4drop17hf5fce2bf4d9f8deaE
Ltmp1935:
Ltmp1831:
LBB71_44:
Ltmp1839:
	.loc	4 0 1
	leaq	-504(%rbp), %rdi
	.loc	1 259 5 is_stmt 1
	callq	__ZN4core3ptr13drop_in_place17hb6f0cbfeb0680e22E
Ltmp1840:
Ltmp1936:
	.loc	4 178 1
	movq	(%rbx), %rdi
Ltmp1937:
	.loc	17 532 16
	testq	%rdi, %rdi
Ltmp1938:
	.loc	17 200 9
	je	LBB71_49
Ltmp1939:
	.loc	4 0 0 is_stmt 0
	movq	8(%rbx), %rsi
Ltmp1940:
	.loc	17 200 9
	testq	%rsi, %rsi
	je	LBB71_49
Ltmp1941:
	.loc	7 102 5 is_stmt 1
	movl	$1, %edx
Ltmp1942:
LBB71_48:
	.loc	1 0 0 is_stmt 0
	callq	___rust_dealloc
Ltmp1943:
LBB71_49:
	.loc	1 259 6 is_stmt 1
	addq	$472, %rsp
	popq	%rbx
	popq	%r12
	popq	%r13
	popq	%r14
	popq	%r15
	popq	%rbp
	retq
Ltmp1944:
LBB71_50:
	.loc	9 611 16
	movl	-316(%rbp), %eax
Ltmp1945:
	.loc	1 257 22
	movl	%eax, -108(%rbp)
Ltmp1803:
	leaq	-108(%rbp), %rdi
Ltmp1946:
	.loc	1 258 12
	callq	__ZN3std7process10ExitStatus7success17h2b8b99214fbc7387E
Ltmp1947:
Ltmp1804:
	.loc	1 258 9 is_stmt 0
	movb	%al, 1(%r15)
	movb	$0, (%r15)
Ltmp1948:
	.loc	4 178 1 is_stmt 1
	cmpl	$0, -76(%rbp)
	je	LBB71_53
Ltmp1949:
	leaq	-72(%rbp), %rdi
Ltmp1950:
Ltmp1806:
	.loc	4 178 1 is_stmt 0
	callq	__ZN70_$LT$std..sys..unix..fd..FileDesc$u20$as$u20$core..ops..drop..Drop$GT$4drop17hf5fce2bf4d9f8deaE
Ltmp1951:
Ltmp1807:
LBB71_53:
	.loc	4 178 1
	cmpl	$0, -68(%rbp)
	je	LBB71_55
Ltmp1952:
	leaq	-64(%rbp), %rdi
Ltmp1953:
Ltmp1811:
	.loc	4 178 1
	callq	__ZN70_$LT$std..sys..unix..fd..FileDesc$u20$as$u20$core..ops..drop..Drop$GT$4drop17hf5fce2bf4d9f8deaE
Ltmp1954:
Ltmp1812:
LBB71_55:
	.loc	4 178 1
	cmpl	$0, -60(%rbp)
	je	LBB71_57
Ltmp1955:
	leaq	-56(%rbp), %rdi
Ltmp1956:
Ltmp1816:
	.loc	4 178 1
	callq	__ZN70_$LT$std..sys..unix..fd..FileDesc$u20$as$u20$core..ops..drop..Drop$GT$4drop17hf5fce2bf4d9f8deaE
Ltmp1957:
Ltmp1817:
LBB71_57:
Ltmp1818:
	.loc	4 0 1
	leaq	-504(%rbp), %rdi
	.loc	1 259 5 is_stmt 1
	callq	__ZN4core3ptr13drop_in_place17hb6f0cbfeb0680e22E
Ltmp1819:
Ltmp1958:
	.loc	4 178 1
	movq	8(%rbx), %rsi
Ltmp1959:
	.loc	17 200 40
	testq	%rsi, %rsi
	.loc	17 200 9 is_stmt 0
	je	LBB71_49
Ltmp1960:
	.loc	7 102 5 is_stmt 1
	movl	$1, %edx
	movq	%r14, %rdi
	jmp	LBB71_48
Ltmp1961:
LBB71_60:
Ltmp1833:
	.loc	3 349 21
	leaq	l___unnamed_69(%rip), %rdi
	leaq	l___unnamed_70(%rip), %rdx
	movl	$11, %esi
	callq	__ZN4core6option13expect_failed17h68bd601d867bb8d1E
Ltmp1834:
Ltmp1962:
	.loc	3 0 21 is_stmt 0
	ud2
Ltmp1963:
LBB71_62:
Ltmp1835:
	movq	%rax, %rbx
Ltmp1964:
Ltmp1836:
	leaq	-320(%rbp), %rdi
	.loc	3 351 5 is_stmt 1
	callq	__ZN4core3ptr13drop_in_place17h0a02f77108e1b6bcE
Ltmp1837:
	jmp	LBB71_72
Ltmp1965:
LBB71_63:
Ltmp1813:
	.loc	3 0 5 is_stmt 0
	movq	%rax, %rbx
	jmp	LBB71_65
Ltmp1966:
LBB71_64:
Ltmp1808:
	movq	%rax, %rbx
Ltmp1809:
Ltmp1967:
	.loc	4 178 1 is_stmt 1
	leaq	-68(%rbp), %rdi
	callq	__ZN4core3ptr13drop_in_place17h0a02f77108e1b6bcE
Ltmp1810:
Ltmp1968:
LBB71_65:
Ltmp1814:
	movq	%r13, %rdi
	callq	__ZN4core3ptr13drop_in_place17h0a02f77108e1b6bcE
Ltmp1815:
	jmp	LBB71_78
Ltmp1969:
LBB71_66:
Ltmp1827:
	.loc	4 0 1 is_stmt 0
	movq	%rax, %rbx
	jmp	LBB71_68
Ltmp1970:
LBB71_67:
Ltmp1822:
	movq	%rax, %rbx
Ltmp1823:
Ltmp1971:
	.loc	4 178 1
	leaq	-68(%rbp), %rdi
	callq	__ZN4core3ptr13drop_in_place17h0a02f77108e1b6bcE
Ltmp1824:
Ltmp1972:
LBB71_68:
Ltmp1828:
	movq	%r13, %rdi
	callq	__ZN4core3ptr13drop_in_place17h0a02f77108e1b6bcE
Ltmp1829:
	jmp	LBB71_78
Ltmp1973:
LBB71_69:
Ltmp1838:
	.loc	4 0 1
	movq	%rax, %rbx
	jmp	LBB71_72
Ltmp1974:
LBB71_70:
Ltmp1805:
	movq	%rax, %rbx
	jmp	LBB71_72
Ltmp1975:
LBB71_71:
Ltmp1796:
	movq	%rax, %rbx
Ltmp1976:
	leaq	-52(%rbp), %rdi
Ltmp1977:
	.loc	1 259 5 is_stmt 1
	callq	__ZN4core3ptr13drop_in_place17hf8d5c2f52ff90246E
Ltmp1978:
LBB71_72:
	.loc	1 0 5 is_stmt 0
	leaq	-88(%rbp), %rdi
	.loc	1 259 5
	callq	__ZN4core3ptr13drop_in_place17h24ed532e32a39aacE
	jmp	LBB71_78
Ltmp1979:
LBB71_73:
Ltmp1764:
	.loc	1 0 5
	movq	%rax, %rbx
Ltmp1980:
	leaq	-320(%rbp), %rdi
Ltmp1981:
	.loc	37 544 5 is_stmt 1
	callq	__ZN4core3ptr13drop_in_place17h8b15457ebfae4483E
	jmp	LBB71_78
Ltmp1982:
LBB71_74:
Ltmp1841:
	.loc	37 0 5 is_stmt 0
	movq	%rax, %rbx
	jmp	LBB71_79
Ltmp1983:
LBB71_75:
Ltmp1832:
	jmp	LBB71_77
Ltmp1984:
LBB71_76:
Ltmp1779:
LBB71_77:
	movq	%rax, %rbx
Ltmp1985:
LBB71_78:
	leaq	-504(%rbp), %rdi
	.loc	1 259 5 is_stmt 1
	callq	__ZN4core3ptr13drop_in_place17hb6f0cbfeb0680e22E
Ltmp1986:
LBB71_79:
	.loc	1 0 5 is_stmt 0
	movq	-120(%rbp), %rdi
	.loc	1 259 5
	callq	__ZN4core3ptr13drop_in_place17h8b15457ebfae4483E
	movq	%rbx, %rdi
	callq	__Unwind_Resume
	ud2
Ltmp1987:
Lfunc_end71:
	.cfi_endproc
	.section	__TEXT,__gcc_except_tab
	.p2align	2
GCC_except_table71:
Lexception13:
	.byte	255
	.byte	255
	.byte	1
	.uleb128 Lcst_end13-Lcst_begin13
Lcst_begin13:
	.uleb128 Ltmp1754-Lfunc_begin71
	.uleb128 Ltmp1757-Ltmp1754
	.uleb128 Ltmp1841-Lfunc_begin71
	.byte	0
	.uleb128 Ltmp1757-Lfunc_begin71
	.uleb128 Ltmp1758-Ltmp1757
	.byte	0
	.byte	0
	.uleb128 Ltmp1758-Lfunc_begin71
	.uleb128 Ltmp1761-Ltmp1758
	.uleb128 Ltmp1832-Lfunc_begin71
	.byte	0
	.uleb128 Ltmp1762-Lfunc_begin71
	.uleb128 Ltmp1763-Ltmp1762
	.uleb128 Ltmp1764-Lfunc_begin71
	.byte	0
	.uleb128 Ltmp1765-Lfunc_begin71
	.uleb128 Ltmp1774-Ltmp1765
	.uleb128 Ltmp1832-Lfunc_begin71
	.byte	0
	.uleb128 Ltmp1775-Lfunc_begin71
	.uleb128 Ltmp1778-Ltmp1775
	.uleb128 Ltmp1779-Lfunc_begin71
	.byte	0
	.uleb128 Ltmp1780-Lfunc_begin71
	.uleb128 Ltmp1791-Ltmp1780
	.uleb128 Ltmp1832-Lfunc_begin71
	.byte	0
	.uleb128 Ltmp1792-Lfunc_begin71
	.uleb128 Ltmp1795-Ltmp1792
	.uleb128 Ltmp1796-Lfunc_begin71
	.byte	0
	.uleb128 Ltmp1799-Lfunc_begin71
	.uleb128 Ltmp1802-Ltmp1799
	.uleb128 Ltmp1805-Lfunc_begin71
	.byte	0
	.uleb128 Ltmp1797-Lfunc_begin71
	.uleb128 Ltmp1798-Ltmp1797
	.uleb128 Ltmp1838-Lfunc_begin71
	.byte	0
	.uleb128 Ltmp1820-Lfunc_begin71
	.uleb128 Ltmp1821-Ltmp1820
	.uleb128 Ltmp1822-Lfunc_begin71
	.byte	0
	.uleb128 Ltmp1825-Lfunc_begin71
	.uleb128 Ltmp1826-Ltmp1825
	.uleb128 Ltmp1827-Lfunc_begin71
	.byte	0
	.uleb128 Ltmp1830-Lfunc_begin71
	.uleb128 Ltmp1831-Ltmp1830
	.uleb128 Ltmp1832-Lfunc_begin71
	.byte	0
	.uleb128 Ltmp1839-Lfunc_begin71
	.uleb128 Ltmp1840-Ltmp1839
	.uleb128 Ltmp1841-Lfunc_begin71
	.byte	0
	.uleb128 Ltmp1803-Lfunc_begin71
	.uleb128 Ltmp1804-Ltmp1803
	.uleb128 Ltmp1805-Lfunc_begin71
	.byte	0
	.uleb128 Ltmp1806-Lfunc_begin71
	.uleb128 Ltmp1807-Ltmp1806
	.uleb128 Ltmp1808-Lfunc_begin71
	.byte	0
	.uleb128 Ltmp1811-Lfunc_begin71
	.uleb128 Ltmp1812-Ltmp1811
	.uleb128 Ltmp1813-Lfunc_begin71
	.byte	0
	.uleb128 Ltmp1816-Lfunc_begin71
	.uleb128 Ltmp1817-Ltmp1816
	.uleb128 Ltmp1832-Lfunc_begin71
	.byte	0
	.uleb128 Ltmp1818-Lfunc_begin71
	.uleb128 Ltmp1819-Ltmp1818
	.uleb128 Ltmp1841-Lfunc_begin71
	.byte	0
	.uleb128 Ltmp1833-Lfunc_begin71
	.uleb128 Ltmp1834-Ltmp1833
	.uleb128 Ltmp1835-Lfunc_begin71
	.byte	0
	.uleb128 Ltmp1836-Lfunc_begin71
	.uleb128 Ltmp1837-Ltmp1836
	.uleb128 Ltmp1838-Lfunc_begin71
	.byte	0
	.uleb128 Ltmp1809-Lfunc_begin71
	.uleb128 Ltmp1829-Ltmp1809
	.uleb128 Ltmp1832-Lfunc_begin71
	.byte	0
	.uleb128 Ltmp1829-Lfunc_begin71
	.uleb128 Lfunc_end71-Ltmp1829
	.byte	0
	.byte	0
Lcst_end13:
	.p2align	2

	.section	__TEXT,__text,regular,pure_instructions
	.globl	__ZN7autocfg7AutoCfg19probe_sysroot_crate17he71b9dd8663cbff2E
	.p2align	4, 0x90
__ZN7autocfg7AutoCfg19probe_sysroot_crate17he71b9dd8663cbff2E:
Lfunc_begin72:
	.loc	1 268 0 is_stmt 1
	.cfi_startproc
	.cfi_personality 155, _rust_eh_personality
	.cfi_lsda 16, Lexception14
	pushq	%rbp
	.cfi_def_cfa_offset 16
	.cfi_offset %rbp, -16
	movq	%rsp, %rbp
	.cfi_def_cfa_register %rbp
	pushq	%r15
	pushq	%r14
	pushq	%rbx
	subq	$104, %rsp
	.cfi_offset %rbx, -40
	.cfi_offset %r14, -32
	.cfi_offset %r15, -24
	movq	%rdi, %r14
Ltmp1991:
	movq	%rsi, -88(%rbp)
	movq	%rdx, -80(%rbp)
	leaq	-88(%rbp), %rax
Ltmp1992:
	.loc	1 269 20 prologue_end
	movq	%rax, -104(%rbp)
	leaq	__ZN44_$LT$$RF$T$u20$as$u20$core..fmt..Display$GT$3fmt17h9f1c5d51f801e50fE(%rip), %rax
	movq	%rax, -96(%rbp)
Ltmp1993:
	.loc	23 328 9
	leaq	l___unnamed_71(%rip), %rax
Ltmp1994:
	movq	%rax, -72(%rbp)
	movq	$2, -64(%rbp)
	movq	$0, -56(%rbp)
	leaq	-104(%rbp), %rax
Ltmp1995:
	movq	%rax, -40(%rbp)
	movq	$1, -32(%rbp)
	leaq	-128(%rbp), %rbx
	leaq	-72(%rbp), %rsi
Ltmp1996:
	.loc	1 269 20
	movq	%rbx, %rdi
	callq	__ZN5alloc3fmt6format17hef4b691705b449e4E
Ltmp1997:
	.loc	1 0 20 is_stmt 0
	leaq	-72(%rbp), %rdi
	.loc	1 269 9
	movq	%r14, %rsi
Ltmp1998:
	movq	%rbx, %rdx
	callq	__ZN7autocfg7AutoCfg5probe17hf34fbb9cd6f96849E
Ltmp1999:
	.loc	9 829 13 is_stmt 1
	movb	-72(%rbp), %al
	cmpb	$1, %al
	setne	%bl
	cmpb	$0, -71(%rbp)
	setne	%r15b
	.loc	9 832 5
	testb	%al, %al
	je	LBB72_7
Ltmp2000:
	.loc	4 178 1
	cmpb	$0, -64(%rbp)
	jne	LBB72_7
Ltmp2001:
	.loc	4 178 1 is_stmt 0
	cmpb	$2, -56(%rbp)
	jb	LBB72_7
Ltmp2002:
	.loc	4 178 1
	movq	-48(%rbp), %r14
Ltmp2003:
	.loc	4 178 1
	movq	(%r14), %rdi
	movq	8(%r14), %rax
Ltmp1988:
	callq	*(%rax)
Ltmp1989:
Ltmp2004:
	movq	8(%r14), %rax
Ltmp2005:
	.loc	7 282 16 is_stmt 1
	movq	8(%rax), %rsi
Ltmp2006:
	.loc	7 185 12
	testq	%rsi, %rsi
	.loc	7 185 9 is_stmt 0
	je	LBB72_6
Ltmp2007:
	.loc	4 178 1 is_stmt 1
	movq	(%r14), %rdi
Ltmp2008:
	.loc	7 283 17
	movq	16(%rax), %rdx
Ltmp2009:
	.loc	7 102 5
	callq	___rust_dealloc
Ltmp2010:
LBB72_6:
	.loc	7 102 5 is_stmt 0
	movl	$24, %esi
	movl	$8, %edx
	movq	%r14, %rdi
	callq	___rust_dealloc
Ltmp2011:
LBB72_7:
	.loc	1 0 0
	andb	%r15b, %bl
	.loc	1 271 6 is_stmt 1
	movl	%ebx, %eax
	addq	$104, %rsp
	popq	%rbx
	popq	%r14
	popq	%r15
	popq	%rbp
	retq
Ltmp2012:
LBB72_8:
Ltmp1990:
	.loc	1 0 6 is_stmt 0
	movq	%rax, %rbx
Ltmp2013:
	.loc	4 178 1 is_stmt 1
	movq	(%r14), %rdi
	movq	8(%r14), %rsi
	callq	__ZN5alloc5alloc8box_free17h570c11c07547ba82E
Ltmp2014:
	.loc	4 178 1 is_stmt 0
	movq	%r14, %rdi
	callq	__ZN5alloc5alloc8box_free17h22e07d1867015e95E
	movq	%rbx, %rdi
	callq	__Unwind_Resume
	ud2
Ltmp2015:
Lfunc_end72:
	.cfi_endproc
	.section	__TEXT,__gcc_except_tab
	.p2align	2
GCC_except_table72:
Lexception14:
	.byte	255
	.byte	255
	.byte	1
	.uleb128 Lcst_end14-Lcst_begin14
Lcst_begin14:
	.uleb128 Lfunc_begin72-Lfunc_begin72
	.uleb128 Ltmp1988-Lfunc_begin72
	.byte	0
	.byte	0
	.uleb128 Ltmp1988-Lfunc_begin72
	.uleb128 Ltmp1989-Ltmp1988
	.uleb128 Ltmp1990-Lfunc_begin72
	.byte	0
	.uleb128 Ltmp1989-Lfunc_begin72
	.uleb128 Lfunc_end72-Ltmp1989
	.byte	0
	.byte	0
Lcst_end14:
	.p2align	2

	.section	__TEXT,__text,regular,pure_instructions
	.globl	__ZN7autocfg7AutoCfg18emit_sysroot_crate17hcdd95d2704ed0909E
	.p2align	4, 0x90
__ZN7autocfg7AutoCfg18emit_sysroot_crate17hcdd95d2704ed0909E:
Lfunc_begin73:
	.loc	1 274 0 is_stmt 1
	.cfi_startproc
	.cfi_personality 155, _rust_eh_personality
	.cfi_lsda 16, Lexception15
	pushq	%rbp
	.cfi_def_cfa_offset 16
	.cfi_offset %rbp, -16
	movq	%rsp, %rbp
	.cfi_def_cfa_register %rbp
	pushq	%r15
	pushq	%r14
	pushq	%r12
	pushq	%rbx
	subq	$112, %rsp
	.cfi_offset %rbx, -48
	.cfi_offset %r12, -40
	.cfi_offset %r14, -32
	.cfi_offset %r15, -24
	movq	%rdx, %r14
Ltmp2022:
	movq	%rsi, %rbx
Ltmp2023:
	.loc	1 275 12 prologue_end
	callq	__ZN7autocfg7AutoCfg19probe_sysroot_crate17he71b9dd8663cbff2E
Ltmp2024:
	.loc	1 275 9 is_stmt 0
	testb	%al, %al
	je	LBB73_8
Ltmp2025:
	.loc	1 0 9
	leaq	-72(%rbp), %r15
	.loc	1 276 37 is_stmt 1
	movq	%r15, %rdi
	movq	%rbx, %rsi
	movq	%r14, %rdx
	callq	__ZN7autocfg6mangle17h345708edabb8372dE
Ltmp2026:
	.loc	1 276 19 is_stmt 0
	movq	%r15, -48(%rbp)
	leaq	__ZN60_$LT$alloc..string..String$u20$as$u20$core..fmt..Display$GT$3fmt17h4c6fc2b9ff0414a4E(%rip), %rax
	movq	%rax, -40(%rbp)
Ltmp2027:
	.loc	23 328 9 is_stmt 1
	leaq	l___unnamed_72(%rip), %rax
Ltmp2028:
	movq	%rax, -144(%rbp)
	movq	$1, -136(%rbp)
	movq	$0, -128(%rbp)
	leaq	-48(%rbp), %r12
	movq	%r12, -112(%rbp)
	movq	$1, -104(%rbp)
Ltmp2016:
	leaq	-96(%rbp), %r14
Ltmp2029:
	.loc	23 0 9 is_stmt 0
	leaq	-144(%rbp), %rsi
Ltmp2030:
	.loc	1 276 19 is_stmt 1
	movq	%r14, %rdi
	callq	__ZN5alloc3fmt6format17hef4b691705b449e4E
Ltmp2031:
Ltmp2017:
	.loc	4 178 1
	movq	-72(%rbp), %rdi
Ltmp2032:
	.loc	17 532 16
	testq	%rdi, %rdi
Ltmp2033:
	.loc	17 200 9
	je	LBB73_5
Ltmp2034:
	.loc	4 0 0 is_stmt 0
	movq	-64(%rbp), %rsi
Ltmp2035:
	.loc	17 200 9
	testq	%rsi, %rsi
	je	LBB73_5
Ltmp2036:
	.loc	7 102 5 is_stmt 1
	movl	$1, %edx
	callq	___rust_dealloc
Ltmp2037:
LBB73_5:
	.loc	1 276 19
	movq	-96(%rbp), %rbx
Ltmp2038:
	movq	-88(%rbp), %rax
	movq	%rbx, -72(%rbp)
	movq	%rax, -64(%rbp)
	movq	-80(%rbp), %rax
	movq	%rax, -56(%rbp)
Ltmp2039:
	.loc	1 0 19 is_stmt 0
	movq	%rbx, -48(%rbp)
	movq	%rax, -40(%rbp)
Ltmp2040:
	.loc	1 98 5 is_stmt 1
	movq	%r12, -96(%rbp)
	leaq	__ZN44_$LT$$RF$T$u20$as$u20$core..fmt..Display$GT$3fmt17h9f1c5d51f801e50fE(%rip), %rax
	movq	%rax, -88(%rbp)
Ltmp2041:
	.loc	23 328 9
	leaq	l___unnamed_45(%rip), %rax
Ltmp2042:
	movq	%rax, -144(%rbp)
	movq	$2, -136(%rbp)
	movq	$0, -128(%rbp)
	movq	%r14, -112(%rbp)
	movq	$1, -104(%rbp)
Ltmp2019:
	leaq	-144(%rbp), %rdi
Ltmp2043:
	.loc	1 98 5
	callq	__ZN3std2io5stdio6_print17hdea2154009b9e479E
Ltmp2044:
Ltmp2020:
	.loc	4 178 1
	movq	-64(%rbp), %rsi
Ltmp2045:
	.loc	17 200 40
	testq	%rsi, %rsi
	.loc	17 200 9 is_stmt 0
	je	LBB73_8
Ltmp2046:
	.loc	7 102 5 is_stmt 1
	movl	$1, %edx
	movq	%rbx, %rdi
	callq	___rust_dealloc
Ltmp2047:
LBB73_8:
	.loc	1 278 6
	addq	$112, %rsp
	popq	%rbx
	popq	%r12
	popq	%r14
	popq	%r15
	popq	%rbp
	retq
LBB73_11:
Ltmp2048:
Ltmp2021:
	.loc	1 0 6 is_stmt 0
	jmp	LBB73_10
Ltmp2049:
LBB73_9:
Ltmp2018:
LBB73_10:
	movq	%rax, %rbx
	movq	%r15, %rdi
	callq	__ZN4core3ptr13drop_in_place17h8b15457ebfae4483E
	movq	%rbx, %rdi
	callq	__Unwind_Resume
	ud2
Ltmp2050:
Lfunc_end73:
	.cfi_endproc
	.section	__TEXT,__gcc_except_tab
	.p2align	2
GCC_except_table73:
Lexception15:
	.byte	255
	.byte	255
	.byte	1
	.uleb128 Lcst_end15-Lcst_begin15
Lcst_begin15:
	.uleb128 Lfunc_begin73-Lfunc_begin73
	.uleb128 Ltmp2016-Lfunc_begin73
	.byte	0
	.byte	0
	.uleb128 Ltmp2016-Lfunc_begin73
	.uleb128 Ltmp2017-Ltmp2016
	.uleb128 Ltmp2018-Lfunc_begin73
	.byte	0
	.uleb128 Ltmp2019-Lfunc_begin73
	.uleb128 Ltmp2020-Ltmp2019
	.uleb128 Ltmp2021-Lfunc_begin73
	.byte	0
	.uleb128 Ltmp2020-Lfunc_begin73
	.uleb128 Lfunc_end73-Ltmp2020
	.byte	0
	.byte	0
Lcst_end15:
	.p2align	2

	.section	__TEXT,__text,regular,pure_instructions
	.globl	__ZN7autocfg7AutoCfg10probe_path17h36570eae30e212acE
	.p2align	4, 0x90
__ZN7autocfg7AutoCfg10probe_path17h36570eae30e212acE:
Lfunc_begin74:
	.loc	1 287 0 is_stmt 1
	.cfi_startproc
	.cfi_personality 155, _rust_eh_personality
	.cfi_lsda 16, Lexception16
	pushq	%rbp
	.cfi_def_cfa_offset 16
	.cfi_offset %rbp, -16
	movq	%rsp, %rbp
	.cfi_def_cfa_register %rbp
	pushq	%r15
	pushq	%r14
	pushq	%rbx
	subq	$104, %rsp
	.cfi_offset %rbx, -40
	.cfi_offset %r14, -32
	.cfi_offset %r15, -24
	movq	%rdi, %r14
Ltmp2054:
	movq	%rsi, -88(%rbp)
	movq	%rdx, -80(%rbp)
	leaq	-88(%rbp), %rax
Ltmp2055:
	.loc	1 288 20 prologue_end
	movq	%rax, -104(%rbp)
	leaq	__ZN44_$LT$$RF$T$u20$as$u20$core..fmt..Display$GT$3fmt17h9f1c5d51f801e50fE(%rip), %rax
	movq	%rax, -96(%rbp)
Ltmp2056:
	.loc	23 328 9
	leaq	l___unnamed_73(%rip), %rax
Ltmp2057:
	movq	%rax, -72(%rbp)
	movq	$2, -64(%rbp)
	movq	$0, -56(%rbp)
	leaq	-104(%rbp), %rax
Ltmp2058:
	movq	%rax, -40(%rbp)
	movq	$1, -32(%rbp)
	leaq	-128(%rbp), %rbx
	leaq	-72(%rbp), %rsi
Ltmp2059:
	.loc	1 288 20
	movq	%rbx, %rdi
	callq	__ZN5alloc3fmt6format17hef4b691705b449e4E
Ltmp2060:
	.loc	1 0 20 is_stmt 0
	leaq	-72(%rbp), %rdi
	.loc	1 288 9
	movq	%r14, %rsi
Ltmp2061:
	movq	%rbx, %rdx
	callq	__ZN7autocfg7AutoCfg5probe17hf34fbb9cd6f96849E
Ltmp2062:
	.loc	9 829 13 is_stmt 1
	movb	-72(%rbp), %al
	cmpb	$1, %al
	setne	%bl
	cmpb	$0, -71(%rbp)
	setne	%r15b
	.loc	9 832 5
	testb	%al, %al
	je	LBB74_7
Ltmp2063:
	.loc	4 178 1
	cmpb	$0, -64(%rbp)
	jne	LBB74_7
Ltmp2064:
	.loc	4 178 1 is_stmt 0
	cmpb	$2, -56(%rbp)
	jb	LBB74_7
Ltmp2065:
	.loc	4 178 1
	movq	-48(%rbp), %r14
Ltmp2066:
	.loc	4 178 1
	movq	(%r14), %rdi
	movq	8(%r14), %rax
Ltmp2051:
	callq	*(%rax)
Ltmp2052:
Ltmp2067:
	movq	8(%r14), %rax
Ltmp2068:
	.loc	7 282 16 is_stmt 1
	movq	8(%rax), %rsi
Ltmp2069:
	.loc	7 185 12
	testq	%rsi, %rsi
	.loc	7 185 9 is_stmt 0
	je	LBB74_6
Ltmp2070:
	.loc	4 178 1 is_stmt 1
	movq	(%r14), %rdi
Ltmp2071:
	.loc	7 283 17
	movq	16(%rax), %rdx
Ltmp2072:
	.loc	7 102 5
	callq	___rust_dealloc
Ltmp2073:
LBB74_6:
	.loc	7 102 5 is_stmt 0
	movl	$24, %esi
	movl	$8, %edx
	movq	%r14, %rdi
	callq	___rust_dealloc
Ltmp2074:
LBB74_7:
	.loc	1 0 0
	andb	%r15b, %bl
	.loc	1 289 6 is_stmt 1
	movl	%ebx, %eax
	addq	$104, %rsp
	popq	%rbx
	popq	%r14
	popq	%r15
	popq	%rbp
	retq
Ltmp2075:
LBB74_8:
Ltmp2053:
	.loc	1 0 6 is_stmt 0
	movq	%rax, %rbx
Ltmp2076:
	.loc	4 178 1 is_stmt 1
	movq	(%r14), %rdi
	movq	8(%r14), %rsi
	callq	__ZN5alloc5alloc8box_free17h570c11c07547ba82E
Ltmp2077:
	.loc	4 178 1 is_stmt 0
	movq	%r14, %rdi
	callq	__ZN5alloc5alloc8box_free17h22e07d1867015e95E
	movq	%rbx, %rdi
	callq	__Unwind_Resume
	ud2
Ltmp2078:
Lfunc_end74:
	.cfi_endproc
	.section	__TEXT,__gcc_except_tab
	.p2align	2
GCC_except_table74:
Lexception16:
	.byte	255
	.byte	255
	.byte	1
	.uleb128 Lcst_end16-Lcst_begin16
Lcst_begin16:
	.uleb128 Lfunc_begin74-Lfunc_begin74
	.uleb128 Ltmp2051-Lfunc_begin74
	.byte	0
	.byte	0
	.uleb128 Ltmp2051-Lfunc_begin74
	.uleb128 Ltmp2052-Ltmp2051
	.uleb128 Ltmp2053-Lfunc_begin74
	.byte	0
	.uleb128 Ltmp2052-Lfunc_begin74
	.uleb128 Lfunc_end74-Ltmp2052
	.byte	0
	.byte	0
Lcst_end16:
	.p2align	2

	.section	__TEXT,__text,regular,pure_instructions
	.globl	__ZN7autocfg7AutoCfg13emit_has_path17hc5fa9dfcb88523baE
	.p2align	4, 0x90
__ZN7autocfg7AutoCfg13emit_has_path17hc5fa9dfcb88523baE:
Lfunc_begin75:
	.loc	1 295 0 is_stmt 1
	.cfi_startproc
	.cfi_personality 155, _rust_eh_personality
	.cfi_lsda 16, Lexception17
	pushq	%rbp
	.cfi_def_cfa_offset 16
	.cfi_offset %rbp, -16
	movq	%rsp, %rbp
	.cfi_def_cfa_register %rbp
	pushq	%r15
	pushq	%r14
	pushq	%r12
	pushq	%rbx
	subq	$112, %rsp
	.cfi_offset %rbx, -48
	.cfi_offset %r12, -40
	.cfi_offset %r14, -32
	.cfi_offset %r15, -24
	movq	%rdx, %r14
Ltmp2085:
	movq	%rsi, %rbx
Ltmp2086:
	.loc	1 296 12 prologue_end
	callq	__ZN7autocfg7AutoCfg10probe_path17h36570eae30e212acE
Ltmp2087:
	.loc	1 296 9 is_stmt 0
	testb	%al, %al
	je	LBB75_8
Ltmp2088:
	.loc	1 0 9
	leaq	-72(%rbp), %r15
	.loc	1 297 37 is_stmt 1
	movq	%r15, %rdi
	movq	%rbx, %rsi
	movq	%r14, %rdx
	callq	__ZN7autocfg6mangle17h345708edabb8372dE
Ltmp2089:
	.loc	1 297 19 is_stmt 0
	movq	%r15, -48(%rbp)
	leaq	__ZN60_$LT$alloc..string..String$u20$as$u20$core..fmt..Display$GT$3fmt17h4c6fc2b9ff0414a4E(%rip), %rax
	movq	%rax, -40(%rbp)
Ltmp2090:
	.loc	23 328 9 is_stmt 1
	leaq	l___unnamed_72(%rip), %rax
Ltmp2091:
	movq	%rax, -144(%rbp)
	movq	$1, -136(%rbp)
	movq	$0, -128(%rbp)
	leaq	-48(%rbp), %r12
	movq	%r12, -112(%rbp)
	movq	$1, -104(%rbp)
Ltmp2079:
	leaq	-96(%rbp), %r14
Ltmp2092:
	.loc	23 0 9 is_stmt 0
	leaq	-144(%rbp), %rsi
Ltmp2093:
	.loc	1 297 19 is_stmt 1
	movq	%r14, %rdi
	callq	__ZN5alloc3fmt6format17hef4b691705b449e4E
Ltmp2094:
Ltmp2080:
	.loc	4 178 1
	movq	-72(%rbp), %rdi
Ltmp2095:
	.loc	17 532 16
	testq	%rdi, %rdi
Ltmp2096:
	.loc	17 200 9
	je	LBB75_5
Ltmp2097:
	.loc	4 0 0 is_stmt 0
	movq	-64(%rbp), %rsi
Ltmp2098:
	.loc	17 200 9
	testq	%rsi, %rsi
	je	LBB75_5
Ltmp2099:
	.loc	7 102 5 is_stmt 1
	movl	$1, %edx
	callq	___rust_dealloc
Ltmp2100:
LBB75_5:
	.loc	1 297 19
	movq	-96(%rbp), %rbx
Ltmp2101:
	movq	-88(%rbp), %rax
	movq	%rbx, -72(%rbp)
	movq	%rax, -64(%rbp)
	movq	-80(%rbp), %rax
	movq	%rax, -56(%rbp)
Ltmp2102:
	.loc	1 0 19 is_stmt 0
	movq	%rbx, -48(%rbp)
	movq	%rax, -40(%rbp)
Ltmp2103:
	.loc	1 98 5 is_stmt 1
	movq	%r12, -96(%rbp)
	leaq	__ZN44_$LT$$RF$T$u20$as$u20$core..fmt..Display$GT$3fmt17h9f1c5d51f801e50fE(%rip), %rax
	movq	%rax, -88(%rbp)
Ltmp2104:
	.loc	23 328 9
	leaq	l___unnamed_45(%rip), %rax
Ltmp2105:
	movq	%rax, -144(%rbp)
	movq	$2, -136(%rbp)
	movq	$0, -128(%rbp)
	movq	%r14, -112(%rbp)
	movq	$1, -104(%rbp)
Ltmp2082:
	leaq	-144(%rbp), %rdi
Ltmp2106:
	.loc	1 98 5
	callq	__ZN3std2io5stdio6_print17hdea2154009b9e479E
Ltmp2107:
Ltmp2083:
	.loc	4 178 1
	movq	-64(%rbp), %rsi
Ltmp2108:
	.loc	17 200 40
	testq	%rsi, %rsi
	.loc	17 200 9 is_stmt 0
	je	LBB75_8
Ltmp2109:
	.loc	7 102 5 is_stmt 1
	movl	$1, %edx
	movq	%rbx, %rdi
	callq	___rust_dealloc
Ltmp2110:
LBB75_8:
	.loc	1 299 6
	addq	$112, %rsp
	popq	%rbx
	popq	%r12
	popq	%r14
	popq	%r15
	popq	%rbp
	retq
LBB75_11:
Ltmp2111:
Ltmp2084:
	.loc	1 0 6 is_stmt 0
	jmp	LBB75_10
Ltmp2112:
LBB75_9:
Ltmp2081:
LBB75_10:
	movq	%rax, %rbx
	movq	%r15, %rdi
	callq	__ZN4core3ptr13drop_in_place17h8b15457ebfae4483E
	movq	%rbx, %rdi
	callq	__Unwind_Resume
	ud2
Ltmp2113:
Lfunc_end75:
	.cfi_endproc
	.section	__TEXT,__gcc_except_tab
	.p2align	2
GCC_except_table75:
Lexception17:
	.byte	255
	.byte	255
	.byte	1
	.uleb128 Lcst_end17-Lcst_begin17
Lcst_begin17:
	.uleb128 Lfunc_begin75-Lfunc_begin75
	.uleb128 Ltmp2079-Lfunc_begin75
	.byte	0
	.byte	0
	.uleb128 Ltmp2079-Lfunc_begin75
	.uleb128 Ltmp2080-Ltmp2079
	.uleb128 Ltmp2081-Lfunc_begin75
	.byte	0
	.uleb128 Ltmp2082-Lfunc_begin75
	.uleb128 Ltmp2083-Ltmp2082
	.uleb128 Ltmp2084-Lfunc_begin75
	.byte	0
	.uleb128 Ltmp2083-Lfunc_begin75
	.uleb128 Lfunc_end75-Ltmp2083
	.byte	0
	.byte	0
Lcst_end17:
	.p2align	2

	.section	__TEXT,__text,regular,pure_instructions
	.globl	__ZN7autocfg7AutoCfg13emit_path_cfg17hc1a84f2f87f2ad1eE
	.p2align	4, 0x90
__ZN7autocfg7AutoCfg13emit_path_cfg17hc1a84f2f87f2ad1eE:
Lfunc_begin76:
	.loc	1 302 0 is_stmt 1
	.cfi_startproc
	pushq	%rbp
	.cfi_def_cfa_offset 16
	.cfi_offset %rbp, -16
	movq	%rsp, %rbp
	.cfi_def_cfa_register %rbp
	pushq	%r14
	pushq	%rbx
	subq	$80, %rsp
	.cfi_offset %rbx, -32
	.cfi_offset %r14, -24
	movq	%r8, %r14
Ltmp2114:
	movq	%rcx, %rbx
Ltmp2115:
	.loc	1 303 12 prologue_end
	callq	__ZN7autocfg7AutoCfg10probe_path17h36570eae30e212acE
Ltmp2116:
	.loc	1 303 9 is_stmt 0
	testb	%al, %al
	je	LBB76_2
Ltmp2117:
	.loc	1 0 9
	movq	%rbx, -32(%rbp)
	movq	%r14, -24(%rbp)
	leaq	-32(%rbp), %rax
Ltmp2118:
	.loc	1 98 5 is_stmt 1
	movq	%rax, -48(%rbp)
	leaq	__ZN44_$LT$$RF$T$u20$as$u20$core..fmt..Display$GT$3fmt17h9f1c5d51f801e50fE(%rip), %rax
	movq	%rax, -40(%rbp)
Ltmp2119:
	.loc	23 328 9
	leaq	l___unnamed_45(%rip), %rax
Ltmp2120:
	movq	%rax, -96(%rbp)
	movq	$2, -88(%rbp)
	movq	$0, -80(%rbp)
	leaq	-48(%rbp), %rax
Ltmp2121:
	movq	%rax, -64(%rbp)
	movq	$1, -56(%rbp)
	leaq	-96(%rbp), %rdi
Ltmp2122:
	.loc	1 98 5
	callq	__ZN3std2io5stdio6_print17hdea2154009b9e479E
Ltmp2123:
LBB76_2:
	.loc	1 306 6
	addq	$80, %rsp
	popq	%rbx
Ltmp2124:
	popq	%r14
Ltmp2125:
	popq	%rbp
	retq
Ltmp2126:
Lfunc_end76:
	.cfi_endproc

	.globl	__ZN7autocfg7AutoCfg11probe_trait17he480864f202eefc1E
	.p2align	4, 0x90
__ZN7autocfg7AutoCfg11probe_trait17he480864f202eefc1E:
Lfunc_begin77:
	.loc	1 315 0
	.cfi_startproc
	.cfi_personality 155, _rust_eh_personality
	.cfi_lsda 16, Lexception18
	pushq	%rbp
	.cfi_def_cfa_offset 16
	.cfi_offset %rbp, -16
	movq	%rsp, %rbp
	.cfi_def_cfa_register %rbp
	pushq	%r15
	pushq	%r14
	pushq	%rbx
	subq	$104, %rsp
	.cfi_offset %rbx, -40
	.cfi_offset %r14, -32
	.cfi_offset %r15, -24
	movq	%rdi, %r14
Ltmp2130:
	movq	%rsi, -88(%rbp)
	movq	%rdx, -80(%rbp)
	leaq	-88(%rbp), %rax
Ltmp2131:
	.loc	1 316 20 prologue_end
	movq	%rax, -104(%rbp)
	leaq	__ZN44_$LT$$RF$T$u20$as$u20$core..fmt..Display$GT$3fmt17h9f1c5d51f801e50fE(%rip), %rax
	movq	%rax, -96(%rbp)
Ltmp2132:
	.loc	23 328 9
	leaq	l___unnamed_74(%rip), %rax
Ltmp2133:
	movq	%rax, -72(%rbp)
	movq	$2, -64(%rbp)
	movq	$0, -56(%rbp)
	leaq	-104(%rbp), %rax
Ltmp2134:
	movq	%rax, -40(%rbp)
	movq	$1, -32(%rbp)
	leaq	-128(%rbp), %rbx
	leaq	-72(%rbp), %rsi
Ltmp2135:
	.loc	1 316 20
	movq	%rbx, %rdi
	callq	__ZN5alloc3fmt6format17hef4b691705b449e4E
Ltmp2136:
	.loc	1 0 20 is_stmt 0
	leaq	-72(%rbp), %rdi
	.loc	1 316 9
	movq	%r14, %rsi
Ltmp2137:
	movq	%rbx, %rdx
	callq	__ZN7autocfg7AutoCfg5probe17hf34fbb9cd6f96849E
Ltmp2138:
	.loc	9 829 13 is_stmt 1
	movb	-72(%rbp), %al
	cmpb	$1, %al
	setne	%bl
	cmpb	$0, -71(%rbp)
	setne	%r15b
	.loc	9 832 5
	testb	%al, %al
	je	LBB77_7
Ltmp2139:
	.loc	4 178 1
	cmpb	$0, -64(%rbp)
	jne	LBB77_7
Ltmp2140:
	.loc	4 178 1 is_stmt 0
	cmpb	$2, -56(%rbp)
	jb	LBB77_7
Ltmp2141:
	.loc	4 178 1
	movq	-48(%rbp), %r14
Ltmp2142:
	.loc	4 178 1
	movq	(%r14), %rdi
	movq	8(%r14), %rax
Ltmp2127:
	callq	*(%rax)
Ltmp2128:
Ltmp2143:
	movq	8(%r14), %rax
Ltmp2144:
	.loc	7 282 16 is_stmt 1
	movq	8(%rax), %rsi
Ltmp2145:
	.loc	7 185 12
	testq	%rsi, %rsi
	.loc	7 185 9 is_stmt 0
	je	LBB77_6
Ltmp2146:
	.loc	4 178 1 is_stmt 1
	movq	(%r14), %rdi
Ltmp2147:
	.loc	7 283 17
	movq	16(%rax), %rdx
Ltmp2148:
	.loc	7 102 5
	callq	___rust_dealloc
Ltmp2149:
LBB77_6:
	.loc	7 102 5 is_stmt 0
	movl	$24, %esi
	movl	$8, %edx
	movq	%r14, %rdi
	callq	___rust_dealloc
Ltmp2150:
LBB77_7:
	.loc	1 0 0
	andb	%r15b, %bl
	.loc	1 318 6 is_stmt 1
	movl	%ebx, %eax
	addq	$104, %rsp
	popq	%rbx
	popq	%r14
	popq	%r15
	popq	%rbp
	retq
Ltmp2151:
LBB77_8:
Ltmp2129:
	.loc	1 0 6 is_stmt 0
	movq	%rax, %rbx
Ltmp2152:
	.loc	4 178 1 is_stmt 1
	movq	(%r14), %rdi
	movq	8(%r14), %rsi
	callq	__ZN5alloc5alloc8box_free17h570c11c07547ba82E
Ltmp2153:
	.loc	4 178 1 is_stmt 0
	movq	%r14, %rdi
	callq	__ZN5alloc5alloc8box_free17h22e07d1867015e95E
	movq	%rbx, %rdi
	callq	__Unwind_Resume
	ud2
Ltmp2154:
Lfunc_end77:
	.cfi_endproc
	.section	__TEXT,__gcc_except_tab
	.p2align	2
GCC_except_table77:
Lexception18:
	.byte	255
	.byte	255
	.byte	1
	.uleb128 Lcst_end18-Lcst_begin18
Lcst_begin18:
	.uleb128 Lfunc_begin77-Lfunc_begin77
	.uleb128 Ltmp2127-Lfunc_begin77
	.byte	0
	.byte	0
	.uleb128 Ltmp2127-Lfunc_begin77
	.uleb128 Ltmp2128-Ltmp2127
	.uleb128 Ltmp2129-Lfunc_begin77
	.byte	0
	.uleb128 Ltmp2128-Lfunc_begin77
	.uleb128 Lfunc_end77-Ltmp2128
	.byte	0
	.byte	0
Lcst_end18:
	.p2align	2

	.section	__TEXT,__text,regular,pure_instructions
	.globl	__ZN7autocfg7AutoCfg14emit_has_trait17h197e415c479dcd47E
	.p2align	4, 0x90
__ZN7autocfg7AutoCfg14emit_has_trait17h197e415c479dcd47E:
Lfunc_begin78:
	.loc	1 324 0 is_stmt 1
	.cfi_startproc
	.cfi_personality 155, _rust_eh_personality
	.cfi_lsda 16, Lexception19
	pushq	%rbp
	.cfi_def_cfa_offset 16
	.cfi_offset %rbp, -16
	movq	%rsp, %rbp
	.cfi_def_cfa_register %rbp
	pushq	%r15
	pushq	%r14
	pushq	%r12
	pushq	%rbx
	subq	$112, %rsp
	.cfi_offset %rbx, -48
	.cfi_offset %r12, -40
	.cfi_offset %r14, -32
	.cfi_offset %r15, -24
	movq	%rdx, %r14
Ltmp2161:
	movq	%rsi, %rbx
Ltmp2162:
	.loc	1 325 12 prologue_end
	callq	__ZN7autocfg7AutoCfg11probe_trait17he480864f202eefc1E
Ltmp2163:
	.loc	1 325 9 is_stmt 0
	testb	%al, %al
	je	LBB78_8
Ltmp2164:
	.loc	1 0 9
	leaq	-72(%rbp), %r15
	.loc	1 326 37 is_stmt 1
	movq	%r15, %rdi
	movq	%rbx, %rsi
	movq	%r14, %rdx
	callq	__ZN7autocfg6mangle17h345708edabb8372dE
Ltmp2165:
	.loc	1 326 19 is_stmt 0
	movq	%r15, -48(%rbp)
	leaq	__ZN60_$LT$alloc..string..String$u20$as$u20$core..fmt..Display$GT$3fmt17h4c6fc2b9ff0414a4E(%rip), %rax
	movq	%rax, -40(%rbp)
Ltmp2166:
	.loc	23 328 9 is_stmt 1
	leaq	l___unnamed_72(%rip), %rax
Ltmp2167:
	movq	%rax, -144(%rbp)
	movq	$1, -136(%rbp)
	movq	$0, -128(%rbp)
	leaq	-48(%rbp), %r12
	movq	%r12, -112(%rbp)
	movq	$1, -104(%rbp)
Ltmp2155:
	leaq	-96(%rbp), %r14
Ltmp2168:
	.loc	23 0 9 is_stmt 0
	leaq	-144(%rbp), %rsi
Ltmp2169:
	.loc	1 326 19 is_stmt 1
	movq	%r14, %rdi
	callq	__ZN5alloc3fmt6format17hef4b691705b449e4E
Ltmp2170:
Ltmp2156:
	.loc	4 178 1
	movq	-72(%rbp), %rdi
Ltmp2171:
	.loc	17 532 16
	testq	%rdi, %rdi
Ltmp2172:
	.loc	17 200 9
	je	LBB78_5
Ltmp2173:
	.loc	4 0 0 is_stmt 0
	movq	-64(%rbp), %rsi
Ltmp2174:
	.loc	17 200 9
	testq	%rsi, %rsi
	je	LBB78_5
Ltmp2175:
	.loc	7 102 5 is_stmt 1
	movl	$1, %edx
	callq	___rust_dealloc
Ltmp2176:
LBB78_5:
	.loc	1 326 19
	movq	-96(%rbp), %rbx
Ltmp2177:
	movq	-88(%rbp), %rax
	movq	%rbx, -72(%rbp)
	movq	%rax, -64(%rbp)
	movq	-80(%rbp), %rax
	movq	%rax, -56(%rbp)
Ltmp2178:
	.loc	1 0 19 is_stmt 0
	movq	%rbx, -48(%rbp)
	movq	%rax, -40(%rbp)
Ltmp2179:
	.loc	1 98 5 is_stmt 1
	movq	%r12, -96(%rbp)
	leaq	__ZN44_$LT$$RF$T$u20$as$u20$core..fmt..Display$GT$3fmt17h9f1c5d51f801e50fE(%rip), %rax
	movq	%rax, -88(%rbp)
Ltmp2180:
	.loc	23 328 9
	leaq	l___unnamed_45(%rip), %rax
Ltmp2181:
	movq	%rax, -144(%rbp)
	movq	$2, -136(%rbp)
	movq	$0, -128(%rbp)
	movq	%r14, -112(%rbp)
	movq	$1, -104(%rbp)
Ltmp2158:
	leaq	-144(%rbp), %rdi
Ltmp2182:
	.loc	1 98 5
	callq	__ZN3std2io5stdio6_print17hdea2154009b9e479E
Ltmp2183:
Ltmp2159:
	.loc	4 178 1
	movq	-64(%rbp), %rsi
Ltmp2184:
	.loc	17 200 40
	testq	%rsi, %rsi
	.loc	17 200 9 is_stmt 0
	je	LBB78_8
Ltmp2185:
	.loc	7 102 5 is_stmt 1
	movl	$1, %edx
	movq	%rbx, %rdi
	callq	___rust_dealloc
Ltmp2186:
LBB78_8:
	.loc	1 328 6
	addq	$112, %rsp
	popq	%rbx
	popq	%r12
	popq	%r14
	popq	%r15
	popq	%rbp
	retq
LBB78_11:
Ltmp2187:
Ltmp2160:
	.loc	1 0 6 is_stmt 0
	jmp	LBB78_10
Ltmp2188:
LBB78_9:
Ltmp2157:
LBB78_10:
	movq	%rax, %rbx
	movq	%r15, %rdi
	callq	__ZN4core3ptr13drop_in_place17h8b15457ebfae4483E
	movq	%rbx, %rdi
	callq	__Unwind_Resume
	ud2
Ltmp2189:
Lfunc_end78:
	.cfi_endproc
	.section	__TEXT,__gcc_except_tab
	.p2align	2
GCC_except_table78:
Lexception19:
	.byte	255
	.byte	255
	.byte	1
	.uleb128 Lcst_end19-Lcst_begin19
Lcst_begin19:
	.uleb128 Lfunc_begin78-Lfunc_begin78
	.uleb128 Ltmp2155-Lfunc_begin78
	.byte	0
	.byte	0
	.uleb128 Ltmp2155-Lfunc_begin78
	.uleb128 Ltmp2156-Ltmp2155
	.uleb128 Ltmp2157-Lfunc_begin78
	.byte	0
	.uleb128 Ltmp2158-Lfunc_begin78
	.uleb128 Ltmp2159-Ltmp2158
	.uleb128 Ltmp2160-Lfunc_begin78
	.byte	0
	.uleb128 Ltmp2159-Lfunc_begin78
	.uleb128 Lfunc_end78-Ltmp2159
	.byte	0
	.byte	0
Lcst_end19:
	.p2align	2

	.section	__TEXT,__text,regular,pure_instructions
	.globl	__ZN7autocfg7AutoCfg14emit_trait_cfg17ha55550d602e6bf29E
	.p2align	4, 0x90
__ZN7autocfg7AutoCfg14emit_trait_cfg17ha55550d602e6bf29E:
Lfunc_begin79:
	.loc	1 331 0 is_stmt 1
	.cfi_startproc
	pushq	%rbp
	.cfi_def_cfa_offset 16
	.cfi_offset %rbp, -16
	movq	%rsp, %rbp
	.cfi_def_cfa_register %rbp
	pushq	%r14
	pushq	%rbx
	subq	$80, %rsp
	.cfi_offset %rbx, -32
	.cfi_offset %r14, -24
	movq	%r8, %r14
Ltmp2190:
	movq	%rcx, %rbx
Ltmp2191:
	.loc	1 332 12 prologue_end
	callq	__ZN7autocfg7AutoCfg11probe_trait17he480864f202eefc1E
Ltmp2192:
	.loc	1 332 9 is_stmt 0
	testb	%al, %al
	je	LBB79_2
Ltmp2193:
	.loc	1 0 9
	movq	%rbx, -32(%rbp)
	movq	%r14, -24(%rbp)
	leaq	-32(%rbp), %rax
Ltmp2194:
	.loc	1 98 5 is_stmt 1
	movq	%rax, -48(%rbp)
	leaq	__ZN44_$LT$$RF$T$u20$as$u20$core..fmt..Display$GT$3fmt17h9f1c5d51f801e50fE(%rip), %rax
	movq	%rax, -40(%rbp)
Ltmp2195:
	.loc	23 328 9
	leaq	l___unnamed_45(%rip), %rax
Ltmp2196:
	movq	%rax, -96(%rbp)
	movq	$2, -88(%rbp)
	movq	$0, -80(%rbp)
	leaq	-48(%rbp), %rax
Ltmp2197:
	movq	%rax, -64(%rbp)
	movq	$1, -56(%rbp)
	leaq	-96(%rbp), %rdi
Ltmp2198:
	.loc	1 98 5
	callq	__ZN3std2io5stdio6_print17hdea2154009b9e479E
Ltmp2199:
LBB79_2:
	.loc	1 335 6
	addq	$80, %rsp
	popq	%rbx
Ltmp2200:
	popq	%r14
Ltmp2201:
	popq	%rbp
	retq
Ltmp2202:
Lfunc_end79:
	.cfi_endproc

	.globl	__ZN7autocfg7AutoCfg10probe_type17hdfa541233f8e1bdbE
	.p2align	4, 0x90
__ZN7autocfg7AutoCfg10probe_type17hdfa541233f8e1bdbE:
Lfunc_begin80:
	.loc	1 344 0
	.cfi_startproc
	.cfi_personality 155, _rust_eh_personality
	.cfi_lsda 16, Lexception20
	pushq	%rbp
	.cfi_def_cfa_offset 16
	.cfi_offset %rbp, -16
	movq	%rsp, %rbp
	.cfi_def_cfa_register %rbp
	pushq	%r15
	pushq	%r14
	pushq	%rbx
	subq	$104, %rsp
	.cfi_offset %rbx, -40
	.cfi_offset %r14, -32
	.cfi_offset %r15, -24
	movq	%rdi, %r14
Ltmp2206:
	movq	%rsi, -88(%rbp)
	movq	%rdx, -80(%rbp)
	leaq	-88(%rbp), %rax
Ltmp2207:
	.loc	1 345 20 prologue_end
	movq	%rax, -104(%rbp)
	leaq	__ZN44_$LT$$RF$T$u20$as$u20$core..fmt..Display$GT$3fmt17h9f1c5d51f801e50fE(%rip), %rax
	movq	%rax, -96(%rbp)
Ltmp2208:
	.loc	23 328 9
	leaq	l___unnamed_75(%rip), %rax
Ltmp2209:
	movq	%rax, -72(%rbp)
	movq	$2, -64(%rbp)
	movq	$0, -56(%rbp)
	leaq	-104(%rbp), %rax
Ltmp2210:
	movq	%rax, -40(%rbp)
	movq	$1, -32(%rbp)
	leaq	-128(%rbp), %rbx
	leaq	-72(%rbp), %rsi
Ltmp2211:
	.loc	1 345 20
	movq	%rbx, %rdi
	callq	__ZN5alloc3fmt6format17hef4b691705b449e4E
Ltmp2212:
	.loc	1 0 20 is_stmt 0
	leaq	-72(%rbp), %rdi
	.loc	1 345 9
	movq	%r14, %rsi
Ltmp2213:
	movq	%rbx, %rdx
	callq	__ZN7autocfg7AutoCfg5probe17hf34fbb9cd6f96849E
Ltmp2214:
	.loc	9 829 13 is_stmt 1
	movb	-72(%rbp), %al
	cmpb	$1, %al
	setne	%bl
	cmpb	$0, -71(%rbp)
	setne	%r15b
	.loc	9 832 5
	testb	%al, %al
	je	LBB80_7
Ltmp2215:
	.loc	4 178 1
	cmpb	$0, -64(%rbp)
	jne	LBB80_7
Ltmp2216:
	.loc	4 178 1 is_stmt 0
	cmpb	$2, -56(%rbp)
	jb	LBB80_7
Ltmp2217:
	.loc	4 178 1
	movq	-48(%rbp), %r14
Ltmp2218:
	.loc	4 178 1
	movq	(%r14), %rdi
	movq	8(%r14), %rax
Ltmp2203:
	callq	*(%rax)
Ltmp2204:
Ltmp2219:
	movq	8(%r14), %rax
Ltmp2220:
	.loc	7 282 16 is_stmt 1
	movq	8(%rax), %rsi
Ltmp2221:
	.loc	7 185 12
	testq	%rsi, %rsi
	.loc	7 185 9 is_stmt 0
	je	LBB80_6
Ltmp2222:
	.loc	4 178 1 is_stmt 1
	movq	(%r14), %rdi
Ltmp2223:
	.loc	7 283 17
	movq	16(%rax), %rdx
Ltmp2224:
	.loc	7 102 5
	callq	___rust_dealloc
Ltmp2225:
LBB80_6:
	.loc	7 102 5 is_stmt 0
	movl	$24, %esi
	movl	$8, %edx
	movq	%r14, %rdi
	callq	___rust_dealloc
Ltmp2226:
LBB80_7:
	.loc	1 0 0
	andb	%r15b, %bl
	.loc	1 347 6 is_stmt 1
	movl	%ebx, %eax
	addq	$104, %rsp
	popq	%rbx
	popq	%r14
	popq	%r15
	popq	%rbp
	retq
Ltmp2227:
LBB80_8:
Ltmp2205:
	.loc	1 0 6 is_stmt 0
	movq	%rax, %rbx
Ltmp2228:
	.loc	4 178 1 is_stmt 1
	movq	(%r14), %rdi
	movq	8(%r14), %rsi
	callq	__ZN5alloc5alloc8box_free17h570c11c07547ba82E
Ltmp2229:
	.loc	4 178 1 is_stmt 0
	movq	%r14, %rdi
	callq	__ZN5alloc5alloc8box_free17h22e07d1867015e95E
	movq	%rbx, %rdi
	callq	__Unwind_Resume
	ud2
Ltmp2230:
Lfunc_end80:
	.cfi_endproc
	.section	__TEXT,__gcc_except_tab
	.p2align	2
GCC_except_table80:
Lexception20:
	.byte	255
	.byte	255
	.byte	1
	.uleb128 Lcst_end20-Lcst_begin20
Lcst_begin20:
	.uleb128 Lfunc_begin80-Lfunc_begin80
	.uleb128 Ltmp2203-Lfunc_begin80
	.byte	0
	.byte	0
	.uleb128 Ltmp2203-Lfunc_begin80
	.uleb128 Ltmp2204-Ltmp2203
	.uleb128 Ltmp2205-Lfunc_begin80
	.byte	0
	.uleb128 Ltmp2204-Lfunc_begin80
	.uleb128 Lfunc_end80-Ltmp2204
	.byte	0
	.byte	0
Lcst_end20:
	.p2align	2

	.section	__TEXT,__text,regular,pure_instructions
	.globl	__ZN7autocfg7AutoCfg13emit_has_type17h49879abdf12954f0E
	.p2align	4, 0x90
__ZN7autocfg7AutoCfg13emit_has_type17h49879abdf12954f0E:
Lfunc_begin81:
	.loc	1 353 0 is_stmt 1
	.cfi_startproc
	.cfi_personality 155, _rust_eh_personality
	.cfi_lsda 16, Lexception21
	pushq	%rbp
	.cfi_def_cfa_offset 16
	.cfi_offset %rbp, -16
	movq	%rsp, %rbp
	.cfi_def_cfa_register %rbp
	pushq	%r15
	pushq	%r14
	pushq	%r12
	pushq	%rbx
	subq	$112, %rsp
	.cfi_offset %rbx, -48
	.cfi_offset %r12, -40
	.cfi_offset %r14, -32
	.cfi_offset %r15, -24
	movq	%rdx, %r14
Ltmp2237:
	movq	%rsi, %rbx
Ltmp2238:
	.loc	1 354 12 prologue_end
	callq	__ZN7autocfg7AutoCfg10probe_type17hdfa541233f8e1bdbE
Ltmp2239:
	.loc	1 354 9 is_stmt 0
	testb	%al, %al
	je	LBB81_8
Ltmp2240:
	.loc	1 0 9
	leaq	-72(%rbp), %r15
	.loc	1 355 37 is_stmt 1
	movq	%r15, %rdi
	movq	%rbx, %rsi
	movq	%r14, %rdx
	callq	__ZN7autocfg6mangle17h345708edabb8372dE
Ltmp2241:
	.loc	1 355 19 is_stmt 0
	movq	%r15, -48(%rbp)
	leaq	__ZN60_$LT$alloc..string..String$u20$as$u20$core..fmt..Display$GT$3fmt17h4c6fc2b9ff0414a4E(%rip), %rax
	movq	%rax, -40(%rbp)
Ltmp2242:
	.loc	23 328 9 is_stmt 1
	leaq	l___unnamed_72(%rip), %rax
Ltmp2243:
	movq	%rax, -144(%rbp)
	movq	$1, -136(%rbp)
	movq	$0, -128(%rbp)
	leaq	-48(%rbp), %r12
	movq	%r12, -112(%rbp)
	movq	$1, -104(%rbp)
Ltmp2231:
	leaq	-96(%rbp), %r14
Ltmp2244:
	.loc	23 0 9 is_stmt 0
	leaq	-144(%rbp), %rsi
Ltmp2245:
	.loc	1 355 19 is_stmt 1
	movq	%r14, %rdi
	callq	__ZN5alloc3fmt6format17hef4b691705b449e4E
Ltmp2246:
Ltmp2232:
	.loc	4 178 1
	movq	-72(%rbp), %rdi
Ltmp2247:
	.loc	17 532 16
	testq	%rdi, %rdi
Ltmp2248:
	.loc	17 200 9
	je	LBB81_5
Ltmp2249:
	.loc	4 0 0 is_stmt 0
	movq	-64(%rbp), %rsi
Ltmp2250:
	.loc	17 200 9
	testq	%rsi, %rsi
	je	LBB81_5
Ltmp2251:
	.loc	7 102 5 is_stmt 1
	movl	$1, %edx
	callq	___rust_dealloc
Ltmp2252:
LBB81_5:
	.loc	1 355 19
	movq	-96(%rbp), %rbx
Ltmp2253:
	movq	-88(%rbp), %rax
	movq	%rbx, -72(%rbp)
	movq	%rax, -64(%rbp)
	movq	-80(%rbp), %rax
	movq	%rax, -56(%rbp)
Ltmp2254:
	.loc	1 0 19 is_stmt 0
	movq	%rbx, -48(%rbp)
	movq	%rax, -40(%rbp)
Ltmp2255:
	.loc	1 98 5 is_stmt 1
	movq	%r12, -96(%rbp)
	leaq	__ZN44_$LT$$RF$T$u20$as$u20$core..fmt..Display$GT$3fmt17h9f1c5d51f801e50fE(%rip), %rax
	movq	%rax, -88(%rbp)
Ltmp2256:
	.loc	23 328 9
	leaq	l___unnamed_45(%rip), %rax
Ltmp2257:
	movq	%rax, -144(%rbp)
	movq	$2, -136(%rbp)
	movq	$0, -128(%rbp)
	movq	%r14, -112(%rbp)
	movq	$1, -104(%rbp)
Ltmp2234:
	leaq	-144(%rbp), %rdi
Ltmp2258:
	.loc	1 98 5
	callq	__ZN3std2io5stdio6_print17hdea2154009b9e479E
Ltmp2259:
Ltmp2235:
	.loc	4 178 1
	movq	-64(%rbp), %rsi
Ltmp2260:
	.loc	17 200 40
	testq	%rsi, %rsi
	.loc	17 200 9 is_stmt 0
	je	LBB81_8
Ltmp2261:
	.loc	7 102 5 is_stmt 1
	movl	$1, %edx
	movq	%rbx, %rdi
	callq	___rust_dealloc
Ltmp2262:
LBB81_8:
	.loc	1 357 6
	addq	$112, %rsp
	popq	%rbx
	popq	%r12
	popq	%r14
	popq	%r15
	popq	%rbp
	retq
LBB81_11:
Ltmp2263:
Ltmp2236:
	.loc	1 0 6 is_stmt 0
	jmp	LBB81_10
Ltmp2264:
LBB81_9:
Ltmp2233:
LBB81_10:
	movq	%rax, %rbx
	movq	%r15, %rdi
	callq	__ZN4core3ptr13drop_in_place17h8b15457ebfae4483E
	movq	%rbx, %rdi
	callq	__Unwind_Resume
	ud2
Ltmp2265:
Lfunc_end81:
	.cfi_endproc
	.section	__TEXT,__gcc_except_tab
	.p2align	2
GCC_except_table81:
Lexception21:
	.byte	255
	.byte	255
	.byte	1
	.uleb128 Lcst_end21-Lcst_begin21
Lcst_begin21:
	.uleb128 Lfunc_begin81-Lfunc_begin81
	.uleb128 Ltmp2231-Lfunc_begin81
	.byte	0
	.byte	0
	.uleb128 Ltmp2231-Lfunc_begin81
	.uleb128 Ltmp2232-Ltmp2231
	.uleb128 Ltmp2233-Lfunc_begin81
	.byte	0
	.uleb128 Ltmp2234-Lfunc_begin81
	.uleb128 Ltmp2235-Ltmp2234
	.uleb128 Ltmp2236-Lfunc_begin81
	.byte	0
	.uleb128 Ltmp2235-Lfunc_begin81
	.uleb128 Lfunc_end81-Ltmp2235
	.byte	0
	.byte	0
Lcst_end21:
	.p2align	2

	.section	__TEXT,__text,regular,pure_instructions
	.globl	__ZN7autocfg7AutoCfg13emit_type_cfg17h1993ec44c9d66809E
	.p2align	4, 0x90
__ZN7autocfg7AutoCfg13emit_type_cfg17h1993ec44c9d66809E:
Lfunc_begin82:
	.loc	1 360 0 is_stmt 1
	.cfi_startproc
	pushq	%rbp
	.cfi_def_cfa_offset 16
	.cfi_offset %rbp, -16
	movq	%rsp, %rbp
	.cfi_def_cfa_register %rbp
	pushq	%r14
	pushq	%rbx
	subq	$80, %rsp
	.cfi_offset %rbx, -32
	.cfi_offset %r14, -24
	movq	%r8, %r14
Ltmp2266:
	movq	%rcx, %rbx
Ltmp2267:
	.loc	1 361 12 prologue_end
	callq	__ZN7autocfg7AutoCfg10probe_type17hdfa541233f8e1bdbE
Ltmp2268:
	.loc	1 361 9 is_stmt 0
	testb	%al, %al
	je	LBB82_2
Ltmp2269:
	.loc	1 0 9
	movq	%rbx, -32(%rbp)
	movq	%r14, -24(%rbp)
	leaq	-32(%rbp), %rax
Ltmp2270:
	.loc	1 98 5 is_stmt 1
	movq	%rax, -48(%rbp)
	leaq	__ZN44_$LT$$RF$T$u20$as$u20$core..fmt..Display$GT$3fmt17h9f1c5d51f801e50fE(%rip), %rax
	movq	%rax, -40(%rbp)
Ltmp2271:
	.loc	23 328 9
	leaq	l___unnamed_45(%rip), %rax
Ltmp2272:
	movq	%rax, -96(%rbp)
	movq	$2, -88(%rbp)
	movq	$0, -80(%rbp)
	leaq	-48(%rbp), %rax
Ltmp2273:
	movq	%rax, -64(%rbp)
	movq	$1, -56(%rbp)
	leaq	-96(%rbp), %rdi
Ltmp2274:
	.loc	1 98 5
	callq	__ZN3std2io5stdio6_print17hdea2154009b9e479E
Ltmp2275:
LBB82_2:
	.loc	1 364 6
	addq	$80, %rsp
	popq	%rbx
Ltmp2276:
	popq	%r14
Ltmp2277:
	popq	%rbp
	retq
Ltmp2278:
Lfunc_end82:
	.cfi_endproc

	.globl	__ZN7autocfg7AutoCfg16probe_expression17h75e1ba793499ce7aE
	.p2align	4, 0x90
__ZN7autocfg7AutoCfg16probe_expression17h75e1ba793499ce7aE:
Lfunc_begin83:
	.loc	1 373 0
	.cfi_startproc
	.cfi_personality 155, _rust_eh_personality
	.cfi_lsda 16, Lexception22
	pushq	%rbp
	.cfi_def_cfa_offset 16
	.cfi_offset %rbp, -16
	movq	%rsp, %rbp
	.cfi_def_cfa_register %rbp
	pushq	%r15
	pushq	%r14
	pushq	%rbx
	subq	$104, %rsp
	.cfi_offset %rbx, -40
	.cfi_offset %r14, -32
	.cfi_offset %r15, -24
	movq	%rdi, %r14
Ltmp2282:
	movq	%rsi, -88(%rbp)
	movq	%rdx, -80(%rbp)
	leaq	-88(%rbp), %rax
Ltmp2283:
	.loc	1 374 20 prologue_end
	movq	%rax, -104(%rbp)
	leaq	__ZN44_$LT$$RF$T$u20$as$u20$core..fmt..Display$GT$3fmt17h9f1c5d51f801e50fE(%rip), %rax
	movq	%rax, -96(%rbp)
Ltmp2284:
	.loc	23 328 9
	leaq	l___unnamed_76(%rip), %rax
Ltmp2285:
	movq	%rax, -72(%rbp)
	movq	$2, -64(%rbp)
	movq	$0, -56(%rbp)
	leaq	-104(%rbp), %rax
Ltmp2286:
	movq	%rax, -40(%rbp)
	movq	$1, -32(%rbp)
	leaq	-128(%rbp), %rbx
	leaq	-72(%rbp), %rsi
Ltmp2287:
	.loc	1 374 20
	movq	%rbx, %rdi
	callq	__ZN5alloc3fmt6format17hef4b691705b449e4E
Ltmp2288:
	.loc	1 0 20 is_stmt 0
	leaq	-72(%rbp), %rdi
	.loc	1 374 9
	movq	%r14, %rsi
Ltmp2289:
	movq	%rbx, %rdx
	callq	__ZN7autocfg7AutoCfg5probe17hf34fbb9cd6f96849E
Ltmp2290:
	.loc	9 829 13 is_stmt 1
	movb	-72(%rbp), %al
	cmpb	$1, %al
	setne	%bl
	cmpb	$0, -71(%rbp)
	setne	%r15b
	.loc	9 832 5
	testb	%al, %al
	je	LBB83_7
Ltmp2291:
	.loc	4 178 1
	cmpb	$0, -64(%rbp)
	jne	LBB83_7
Ltmp2292:
	.loc	4 178 1 is_stmt 0
	cmpb	$2, -56(%rbp)
	jb	LBB83_7
Ltmp2293:
	.loc	4 178 1
	movq	-48(%rbp), %r14
Ltmp2294:
	.loc	4 178 1
	movq	(%r14), %rdi
	movq	8(%r14), %rax
Ltmp2279:
	callq	*(%rax)
Ltmp2280:
Ltmp2295:
	movq	8(%r14), %rax
Ltmp2296:
	.loc	7 282 16 is_stmt 1
	movq	8(%rax), %rsi
Ltmp2297:
	.loc	7 185 12
	testq	%rsi, %rsi
	.loc	7 185 9 is_stmt 0
	je	LBB83_6
Ltmp2298:
	.loc	4 178 1 is_stmt 1
	movq	(%r14), %rdi
Ltmp2299:
	.loc	7 283 17
	movq	16(%rax), %rdx
Ltmp2300:
	.loc	7 102 5
	callq	___rust_dealloc
Ltmp2301:
LBB83_6:
	.loc	7 102 5 is_stmt 0
	movl	$24, %esi
	movl	$8, %edx
	movq	%r14, %rdi
	callq	___rust_dealloc
Ltmp2302:
LBB83_7:
	.loc	1 0 0
	andb	%r15b, %bl
	.loc	1 376 6 is_stmt 1
	movl	%ebx, %eax
	addq	$104, %rsp
	popq	%rbx
	popq	%r14
	popq	%r15
	popq	%rbp
	retq
Ltmp2303:
LBB83_8:
Ltmp2281:
	.loc	1 0 6 is_stmt 0
	movq	%rax, %rbx
Ltmp2304:
	.loc	4 178 1 is_stmt 1
	movq	(%r14), %rdi
	movq	8(%r14), %rsi
	callq	__ZN5alloc5alloc8box_free17h570c11c07547ba82E
Ltmp2305:
	.loc	4 178 1 is_stmt 0
	movq	%r14, %rdi
	callq	__ZN5alloc5alloc8box_free17h22e07d1867015e95E
	movq	%rbx, %rdi
	callq	__Unwind_Resume
	ud2
Ltmp2306:
Lfunc_end83:
	.cfi_endproc
	.section	__TEXT,__gcc_except_tab
	.p2align	2
GCC_except_table83:
Lexception22:
	.byte	255
	.byte	255
	.byte	1
	.uleb128 Lcst_end22-Lcst_begin22
Lcst_begin22:
	.uleb128 Lfunc_begin83-Lfunc_begin83
	.uleb128 Ltmp2279-Lfunc_begin83
	.byte	0
	.byte	0
	.uleb128 Ltmp2279-Lfunc_begin83
	.uleb128 Ltmp2280-Ltmp2279
	.uleb128 Ltmp2281-Lfunc_begin83
	.byte	0
	.uleb128 Ltmp2280-Lfunc_begin83
	.uleb128 Lfunc_end83-Ltmp2280
	.byte	0
	.byte	0
Lcst_end22:
	.p2align	2

	.section	__TEXT,__text,regular,pure_instructions
	.globl	__ZN7autocfg7AutoCfg19emit_expression_cfg17ha8d0ba1d4f15208fE
	.p2align	4, 0x90
__ZN7autocfg7AutoCfg19emit_expression_cfg17ha8d0ba1d4f15208fE:
Lfunc_begin84:
	.loc	1 379 0 is_stmt 1
	.cfi_startproc
	pushq	%rbp
	.cfi_def_cfa_offset 16
	.cfi_offset %rbp, -16
	movq	%rsp, %rbp
	.cfi_def_cfa_register %rbp
	pushq	%r14
	pushq	%rbx
	subq	$80, %rsp
	.cfi_offset %rbx, -32
	.cfi_offset %r14, -24
	movq	%r8, %r14
Ltmp2307:
	movq	%rcx, %rbx
Ltmp2308:
	.loc	1 380 12 prologue_end
	callq	__ZN7autocfg7AutoCfg16probe_expression17h75e1ba793499ce7aE
Ltmp2309:
	.loc	1 380 9 is_stmt 0
	testb	%al, %al
	je	LBB84_2
Ltmp2310:
	.loc	1 0 9
	movq	%rbx, -32(%rbp)
	movq	%r14, -24(%rbp)
	leaq	-32(%rbp), %rax
Ltmp2311:
	.loc	1 98 5 is_stmt 1
	movq	%rax, -48(%rbp)
	leaq	__ZN44_$LT$$RF$T$u20$as$u20$core..fmt..Display$GT$3fmt17h9f1c5d51f801e50fE(%rip), %rax
	movq	%rax, -40(%rbp)
Ltmp2312:
	.loc	23 328 9
	leaq	l___unnamed_45(%rip), %rax
Ltmp2313:
	movq	%rax, -96(%rbp)
	movq	$2, -88(%rbp)
	movq	$0, -80(%rbp)
	leaq	-48(%rbp), %rax
Ltmp2314:
	movq	%rax, -64(%rbp)
	movq	$1, -56(%rbp)
	leaq	-96(%rbp), %rdi
Ltmp2315:
	.loc	1 98 5
	callq	__ZN3std2io5stdio6_print17hdea2154009b9e479E
Ltmp2316:
LBB84_2:
	.loc	1 383 6
	addq	$80, %rsp
	popq	%rbx
Ltmp2317:
	popq	%r14
Ltmp2318:
	popq	%rbp
	retq
Ltmp2319:
Lfunc_end84:
	.cfi_endproc

	.globl	__ZN7autocfg7AutoCfg14probe_constant17h3791b12669cc54c1E
	.p2align	4, 0x90
__ZN7autocfg7AutoCfg14probe_constant17h3791b12669cc54c1E:
Lfunc_begin85:
	.loc	1 392 0
	.cfi_startproc
	.cfi_personality 155, _rust_eh_personality
	.cfi_lsda 16, Lexception23
	pushq	%rbp
	.cfi_def_cfa_offset 16
	.cfi_offset %rbp, -16
	movq	%rsp, %rbp
	.cfi_def_cfa_register %rbp
	pushq	%r15
	pushq	%r14
	pushq	%rbx
	subq	$104, %rsp
	.cfi_offset %rbx, -40
	.cfi_offset %r14, -32
	.cfi_offset %r15, -24
	movq	%rdi, %r14
Ltmp2323:
	movq	%rsi, -88(%rbp)
	movq	%rdx, -80(%rbp)
	leaq	-88(%rbp), %rax
Ltmp2324:
	.loc	1 393 20 prologue_end
	movq	%rax, -104(%rbp)
	leaq	__ZN44_$LT$$RF$T$u20$as$u20$core..fmt..Display$GT$3fmt17h9f1c5d51f801e50fE(%rip), %rax
	movq	%rax, -96(%rbp)
Ltmp2325:
	.loc	23 328 9
	leaq	l___unnamed_77(%rip), %rax
Ltmp2326:
	movq	%rax, -72(%rbp)
	movq	$2, -64(%rbp)
	movq	$0, -56(%rbp)
	leaq	-104(%rbp), %rax
Ltmp2327:
	movq	%rax, -40(%rbp)
	movq	$1, -32(%rbp)
	leaq	-128(%rbp), %rbx
	leaq	-72(%rbp), %rsi
Ltmp2328:
	.loc	1 393 20
	movq	%rbx, %rdi
	callq	__ZN5alloc3fmt6format17hef4b691705b449e4E
Ltmp2329:
	.loc	1 0 20 is_stmt 0
	leaq	-72(%rbp), %rdi
	.loc	1 393 9
	movq	%r14, %rsi
Ltmp2330:
	movq	%rbx, %rdx
	callq	__ZN7autocfg7AutoCfg5probe17hf34fbb9cd6f96849E
Ltmp2331:
	.loc	9 829 13 is_stmt 1
	movb	-72(%rbp), %al
	cmpb	$1, %al
	setne	%bl
	cmpb	$0, -71(%rbp)
	setne	%r15b
	.loc	9 832 5
	testb	%al, %al
	je	LBB85_7
Ltmp2332:
	.loc	4 178 1
	cmpb	$0, -64(%rbp)
	jne	LBB85_7
Ltmp2333:
	.loc	4 178 1 is_stmt 0
	cmpb	$2, -56(%rbp)
	jb	LBB85_7
Ltmp2334:
	.loc	4 178 1
	movq	-48(%rbp), %r14
Ltmp2335:
	.loc	4 178 1
	movq	(%r14), %rdi
	movq	8(%r14), %rax
Ltmp2320:
	callq	*(%rax)
Ltmp2321:
Ltmp2336:
	movq	8(%r14), %rax
Ltmp2337:
	.loc	7 282 16 is_stmt 1
	movq	8(%rax), %rsi
Ltmp2338:
	.loc	7 185 12
	testq	%rsi, %rsi
	.loc	7 185 9 is_stmt 0
	je	LBB85_6
Ltmp2339:
	.loc	4 178 1 is_stmt 1
	movq	(%r14), %rdi
Ltmp2340:
	.loc	7 283 17
	movq	16(%rax), %rdx
Ltmp2341:
	.loc	7 102 5
	callq	___rust_dealloc
Ltmp2342:
LBB85_6:
	.loc	7 102 5 is_stmt 0
	movl	$24, %esi
	movl	$8, %edx
	movq	%r14, %rdi
	callq	___rust_dealloc
Ltmp2343:
LBB85_7:
	.loc	1 0 0
	andb	%r15b, %bl
	.loc	1 395 6 is_stmt 1
	movl	%ebx, %eax
	addq	$104, %rsp
	popq	%rbx
	popq	%r14
	popq	%r15
	popq	%rbp
	retq
Ltmp2344:
LBB85_8:
Ltmp2322:
	.loc	1 0 6 is_stmt 0
	movq	%rax, %rbx
Ltmp2345:
	.loc	4 178 1 is_stmt 1
	movq	(%r14), %rdi
	movq	8(%r14), %rsi
	callq	__ZN5alloc5alloc8box_free17h570c11c07547ba82E
Ltmp2346:
	.loc	4 178 1 is_stmt 0
	movq	%r14, %rdi
	callq	__ZN5alloc5alloc8box_free17h22e07d1867015e95E
	movq	%rbx, %rdi
	callq	__Unwind_Resume
	ud2
Ltmp2347:
Lfunc_end85:
	.cfi_endproc
	.section	__TEXT,__gcc_except_tab
	.p2align	2
GCC_except_table85:
Lexception23:
	.byte	255
	.byte	255
	.byte	1
	.uleb128 Lcst_end23-Lcst_begin23
Lcst_begin23:
	.uleb128 Lfunc_begin85-Lfunc_begin85
	.uleb128 Ltmp2320-Lfunc_begin85
	.byte	0
	.byte	0
	.uleb128 Ltmp2320-Lfunc_begin85
	.uleb128 Ltmp2321-Ltmp2320
	.uleb128 Ltmp2322-Lfunc_begin85
	.byte	0
	.uleb128 Ltmp2321-Lfunc_begin85
	.uleb128 Lfunc_end85-Ltmp2321
	.byte	0
	.byte	0
Lcst_end23:
	.p2align	2

	.section	__TEXT,__text,regular,pure_instructions
	.globl	__ZN7autocfg7AutoCfg17emit_constant_cfg17he81e11f9b4518331E
	.p2align	4, 0x90
__ZN7autocfg7AutoCfg17emit_constant_cfg17he81e11f9b4518331E:
Lfunc_begin86:
	.loc	1 398 0 is_stmt 1
	.cfi_startproc
	pushq	%rbp
	.cfi_def_cfa_offset 16
	.cfi_offset %rbp, -16
	movq	%rsp, %rbp
	.cfi_def_cfa_register %rbp
	pushq	%r14
	pushq	%rbx
	subq	$80, %rsp
	.cfi_offset %rbx, -32
	.cfi_offset %r14, -24
	movq	%r8, %r14
Ltmp2348:
	movq	%rcx, %rbx
Ltmp2349:
	.loc	1 399 12 prologue_end
	callq	__ZN7autocfg7AutoCfg14probe_constant17h3791b12669cc54c1E
Ltmp2350:
	.loc	1 399 9 is_stmt 0
	testb	%al, %al
	je	LBB86_2
Ltmp2351:
	.loc	1 0 9
	movq	%rbx, -32(%rbp)
	movq	%r14, -24(%rbp)
	leaq	-32(%rbp), %rax
Ltmp2352:
	.loc	1 98 5 is_stmt 1
	movq	%rax, -48(%rbp)
	leaq	__ZN44_$LT$$RF$T$u20$as$u20$core..fmt..Display$GT$3fmt17h9f1c5d51f801e50fE(%rip), %rax
	movq	%rax, -40(%rbp)
Ltmp2353:
	.loc	23 328 9
	leaq	l___unnamed_45(%rip), %rax
Ltmp2354:
	movq	%rax, -96(%rbp)
	movq	$2, -88(%rbp)
	movq	$0, -80(%rbp)
	leaq	-48(%rbp), %rax
Ltmp2355:
	movq	%rax, -64(%rbp)
	movq	$1, -56(%rbp)
	leaq	-96(%rbp), %rdi
Ltmp2356:
	.loc	1 98 5
	callq	__ZN3std2io5stdio6_print17hdea2154009b9e479E
Ltmp2357:
LBB86_2:
	.loc	1 402 6
	addq	$80, %rsp
	popq	%rbx
Ltmp2358:
	popq	%r14
Ltmp2359:
	popq	%rbp
	retq
Ltmp2360:
Lfunc_end86:
	.cfi_endproc

	.p2align	4, 0x90
__ZN7autocfg6mangle17h345708edabb8372dE:
Lfunc_begin87:
	.loc	1 405 0
	.cfi_startproc
	.cfi_personality 155, _rust_eh_personality
	.cfi_lsda 16, Lexception24
	pushq	%rbp
	.cfi_def_cfa_offset 16
	.cfi_offset %rbp, -16
	movq	%rsp, %rbp
	.cfi_def_cfa_register %rbp
	pushq	%r15
	pushq	%r14
	pushq	%r13
	pushq	%r12
	pushq	%rbx
	subq	$56, %rsp
	.cfi_offset %rbx, -56
	.cfi_offset %r12, -48
	.cfi_offset %r13, -40
	.cfi_offset %r14, -32
	.cfi_offset %r15, -24
	movq	%rdx, %r14
Ltmp2366:
	movq	%rsi, %r15
Ltmp2367:
	movq	%rdi, %rbx
Ltmp2368:
	.loc	20 374 9 prologue_end
	movq	$1, -72(%rbp)
	movq	$0, -64(%rbp)
	movq	$0, -56(%rbp)
Ltmp2369:
	.loc	30 609 10
	leaq	3(%rdx), %r12
	shrq	$2, %r12
Ltmp2370:
	.loc	30 0 10 is_stmt 0
	movq	%rdi, -80(%rbp)
Ltmp2371:
	.loc	17 280 9 is_stmt 1
	je	LBB87_1
Ltmp2372:
	.loc	7 80 5
	movl	$1, %esi
	movq	%r12, %rdi
	callq	___rust_alloc
Ltmp2373:
	.loc	9 611 13
	testq	%rax, %rax
	je	LBB87_64
Ltmp2374:
	.loc	17 0 0 is_stmt 0
	movq	%rax, %rdi
Ltmp2375:
	.loc	17 387 9 is_stmt 1
	movq	%rax, -72(%rbp)
	.loc	17 388 9
	movq	%r12, -64(%rbp)
Ltmp2376:
	.loc	11 3179 9
	testq	%r14, %r14
	.loc	11 3303 21
	jne	LBB87_5
	jmp	LBB87_34
Ltmp2377:
LBB87_1:
	.loc	11 0 21 is_stmt 0
	movl	$1, %edi
Ltmp2378:
	.loc	11 3179 9 is_stmt 1
	testq	%r14, %r14
	.loc	11 3303 21
	je	LBB87_34
Ltmp2379:
LBB87_5:
	.loc	1 0 0 is_stmt 0
	addq	%r15, %r14
Ltmp2380:
	xorl	%r8d, %r8d
	movq	%r14, -88(%rbp)
Ltmp2381:
	.loc	42 152 9 is_stmt 1
	leaq	1(%r15), %rax
Ltmp2382:
	.loc	30 519 13
	movzbl	(%r15), %ecx
Ltmp2383:
	.loc	30 520 8
	testb	%cl, %cl
	jns	LBB87_7
	jmp	LBB87_8
Ltmp2384:
	.p2align	4, 0x90
LBB87_31:
	.loc	30 0 8 is_stmt 0
	movq	%r12, %r13
Ltmp2385:
	movq	%r14, %r12
Ltmp2386:
	.loc	18 2179 26 is_stmt 1
	leaq	(%r15,%r8), %rbx
Ltmp2387:
LBB87_32:
	.loc	42 152 9
	addq	%rdi, %r8
Ltmp2388:
	.loc	42 0 9 is_stmt 0
	movq	%rdi, %r14
Ltmp2389:
	.loc	15 2058 5 is_stmt 1
	movq	%r8, %rdi
Ltmp2390:
	leaq	-44(%rbp), %rsi
	movq	%r15, %rdx
	callq	_memcpy
Ltmp2391:
	.loc	15 0 5 is_stmt 0
	movq	%r14, %rdi
Ltmp2392:
	.loc	18 940 9 is_stmt 1
	movq	%rbx, -56(%rbp)
	movq	%rbx, %r8
Ltmp2393:
	.loc	18 0 9 is_stmt 0
	movq	-96(%rbp), %r15
Ltmp2394:
	movq	%r12, %r14
Ltmp2395:
	movq	%r13, %r12
Ltmp2396:
	.loc	11 3179 9 is_stmt 1
	cmpq	%r14, %r15
	.loc	11 3303 21
	je	LBB87_34
Ltmp2397:
LBB87_6:
	.loc	42 152 9
	leaq	1(%r15), %rax
Ltmp2398:
	.loc	30 519 13
	movzbl	(%r15), %ecx
Ltmp2399:
	.loc	30 520 8
	testb	%cl, %cl
	.loc	30 520 5 is_stmt 0
	js	LBB87_8
Ltmp2400:
LBB87_7:
	.loc	11 3258 21 is_stmt 1
	movq	%rax, %r15
Ltmp2401:
	.loc	11 0 21 is_stmt 0
	jmp	LBB87_23
Ltmp2402:
	.p2align	4, 0x90
LBB87_8:
	.loc	11 3179 9 is_stmt 1
	cmpq	%r14, %rax
	.loc	11 3303 21
	je	LBB87_9
Ltmp2403:
	.loc	30 508 15
	movzbl	1(%r15), %eax
Ltmp2404:
	.loc	42 152 9
	addq	$2, %r15
Ltmp2405:
	.loc	30 507 5
	andl	$63, %eax
Ltmp2406:
	.loc	30 0 0 is_stmt 0
	movl	%ecx, %edx
	andl	$31, %edx
Ltmp2407:
	.loc	30 530 8 is_stmt 1
	cmpb	$-33, %cl
	.loc	30 530 5 is_stmt 0
	jbe	LBB87_12
Ltmp2408:
LBB87_14:
	.loc	11 3179 9 is_stmt 1
	cmpq	%r14, %r15
	.loc	11 3303 21
	je	LBB87_15
Ltmp2409:
	.loc	30 508 15
	movzbl	(%r15), %esi
Ltmp2410:
	.loc	42 152 9
	incq	%r15
Ltmp2411:
	.loc	30 507 5
	andl	$63, %esi
Ltmp2412:
	.loc	30 495 5
	shll	$6, %eax
	orl	%esi, %eax
Ltmp2413:
	.loc	30 536 12
	cmpb	$-16, %cl
	.loc	30 536 9 is_stmt 0
	jb	LBB87_18
Ltmp2414:
LBB87_19:
	.loc	11 3179 9 is_stmt 1
	cmpq	%r14, %r15
	.loc	11 3303 21
	je	LBB87_20
Ltmp2415:
	.loc	30 508 15
	movzbl	(%r15), %ecx
Ltmp2416:
	.loc	42 152 9
	incq	%r15
Ltmp2417:
	.loc	30 507 5
	andl	$63, %ecx
	jmp	LBB87_22
Ltmp2418:
LBB87_9:
	.loc	30 0 5 is_stmt 0
	xorl	%eax, %eax
	movq	%r14, %r15
Ltmp2419:
	movl	%ecx, %edx
	andl	$31, %edx
Ltmp2420:
	.loc	30 530 8 is_stmt 1
	cmpb	$-33, %cl
	.loc	30 530 5 is_stmt 0
	ja	LBB87_14
Ltmp2421:
LBB87_12:
	.loc	30 0 5
	shll	$6, %edx
Ltmp2422:
	jmp	LBB87_13
Ltmp2423:
LBB87_15:
	xorl	%esi, %esi
	movq	%r14, %r15
Ltmp2424:
	.loc	30 495 5 is_stmt 1
	shll	$6, %eax
	orl	%esi, %eax
Ltmp2425:
	.loc	30 536 12
	cmpb	$-16, %cl
	.loc	30 536 9 is_stmt 0
	jae	LBB87_19
Ltmp2426:
LBB87_18:
	.loc	30 0 9
	shll	$12, %edx
Ltmp2427:
LBB87_13:
	orl	%edx, %eax
Ltmp2428:
	movl	%eax, %ecx
Ltmp2429:
	jmp	LBB87_23
Ltmp2430:
LBB87_20:
	xorl	%ecx, %ecx
Ltmp2431:
	movq	%r14, %r15
Ltmp2432:
LBB87_22:
	.loc	30 540 18 is_stmt 1
	andl	$7, %edx
Ltmp2433:
	shll	$18, %edx
Ltmp2434:
	.loc	30 495 5
	shll	$6, %eax
Ltmp2435:
	orl	%edx, %eax
Ltmp2436:
	.loc	30 540 13
	orl	%ecx, %eax
Ltmp2437:
	.loc	30 0 13 is_stmt 0
	movl	%eax, %ecx
Ltmp2438:
	.loc	35 1877 19 is_stmt 1
	cmpl	$1114112, %eax
Ltmp2439:
	je	LBB87_34
Ltmp2440:
	.p2align	4, 0x90
LBB87_23:
	.loc	1 408 13
	movl	%ecx, %edx
	andl	$-33, %edx
	addl	$-65, %edx
	.loc	1 408 37 is_stmt 0
	leal	-48(%rcx), %eax
	.loc	1 408 13
	movl	%ecx, %ebx
	cmpl	$26, %edx
	jb	LBB87_25
Ltmp2441:
	.loc	1 0 13
	movl	$95, %ebx
Ltmp2442:
LBB87_25:
	.loc	1 408 37
	cmpl	$10, %eax
	.loc	1 408 13
	cmovbl	%ecx, %ebx
Ltmp2443:
	.file	47 "/rustc/a74d1862d4d87a56244958416fd05976c58ca1a8/src/libcore/char/methods.rs"
	.loc	47 360 12 is_stmt 1
	cmpl	$128, %ebx
	.loc	47 360 9 is_stmt 0
	jae	LBB87_26
Ltmp2444:
	.loc	18 1200 24 is_stmt 1
	movq	-64(%rbp), %r12
Ltmp2445:
	.loc	18 1200 12 is_stmt 0
	cmpq	%r12, %r8
	.loc	18 1200 9
	jne	LBB87_50
Ltmp2446:
	.loc	43 3632 30 is_stmt 1
	movq	%r8, %r12
	incq	%r12
Ltmp2447:
	.loc	3 540 13
	je	LBB87_63
Ltmp2448:
	.loc	17 414 26
	leaq	(%r8,%r8), %rax
Ltmp2449:
	.loc	32 1017 9
	cmpq	%r12, %rax
	.loc	32 0 0 is_stmt 0
	cmovaq	%rax, %r12
Ltmp2450:
	.loc	17 200 40 is_stmt 1
	testq	%r8, %r8
	.loc	17 200 9 is_stmt 0
	je	LBB87_57
Ltmp2451:
	.loc	17 420 57 is_stmt 1
	movq	-72(%rbp), %rdi
Ltmp2452:
	.loc	17 489 25
	testq	%rdi, %rdi
	je	LBB87_57
Ltmp2453:
	.loc	7 205 12
	cmpq	%r12, %r8
	.loc	7 205 9 is_stmt 0
	je	LBB87_61
Ltmp2454:
	.loc	7 124 5 is_stmt 1
	movl	$1, %edx
	movq	%r8, %rsi
	movq	%r12, %rcx
	movq	%r8, %r13
	callq	___rust_realloc
Ltmp2455:
	.loc	7 0 5 is_stmt 0
	jmp	LBB87_60
Ltmp2456:
	.p2align	4, 0x90
LBB87_26:
	.loc	20 1099 65 is_stmt 1
	movl	$0, -44(%rbp)
Ltmp2457:
	.loc	47 362 19
	cmpl	$2048, %ebx
	movq	%r15, -96(%rbp)
Ltmp2458:
	.loc	47 443 23
	movl	%ebx, %eax
Ltmp2459:
	.loc	47 362 16
	jae	LBB87_27
Ltmp2460:
	.loc	47 443 23
	shrl	$6, %eax
	.loc	47 443 22 is_stmt 0
	andb	$31, %al
	.loc	47 443 17
	orb	$-64, %al
	movb	%al, -44(%rbp)
	.loc	47 444 22 is_stmt 1
	andb	$63, %bl
Ltmp2461:
	.loc	47 444 17 is_stmt 0
	orb	$-128, %bl
	movb	%bl, -43(%rbp)
	movl	$2, %r15d
Ltmp2462:
	.loc	43 3343 17 is_stmt 1
	movq	%r12, %rax
	subq	%r8, %rax
Ltmp2463:
	.loc	17 378 9
	cmpq	%r15, %rax
Ltmp2464:
	.loc	17 280 9
	jae	LBB87_31
Ltmp2465:
LBB87_35:
	.loc	43 3632 30
	movq	%r8, %rbx
	addq	%r15, %rbx
Ltmp2466:
	.loc	3 540 13
	jb	LBB87_46
Ltmp2467:
	.loc	17 414 26
	leaq	(%r12,%r12), %r13
Ltmp2468:
	.loc	32 1017 9
	cmpq	%rbx, %r13
	.loc	32 0 0 is_stmt 0
	cmovbeq	%rbx, %r13
Ltmp2469:
	.loc	17 200 40 is_stmt 1
	testq	%r12, %r12
	.loc	17 200 9 is_stmt 0
	je	LBB87_40
Ltmp2470:
	.loc	17 420 57 is_stmt 1
	movq	-72(%rbp), %rdi
Ltmp2471:
	.loc	17 489 25
	testq	%rdi, %rdi
	je	LBB87_40
Ltmp2472:
	.loc	7 205 12
	cmpq	%r13, %r12
	.loc	7 205 9 is_stmt 0
	je	LBB87_44
Ltmp2473:
	.loc	7 124 5 is_stmt 1
	movl	$1, %edx
	movq	%r12, %rsi
	movq	%r13, %rcx
	movq	%r8, %r12
Ltmp2474:
	callq	___rust_realloc
Ltmp2475:
	.loc	7 0 5 is_stmt 0
	jmp	LBB87_43
Ltmp2476:
	.p2align	4, 0x90
LBB87_50:
	.loc	18 850 19 is_stmt 1
	movq	-72(%rbp), %rdi
	jmp	LBB87_51
Ltmp2477:
	.p2align	4, 0x90
LBB87_27:
	.loc	47 364 19
	cmpl	$65536, %ebx
	jae	LBB87_29
Ltmp2478:
	.loc	47 447 23
	shrl	$12, %eax
	.loc	47 447 22 is_stmt 0
	andb	$15, %al
	.loc	47 447 17
	orb	$-32, %al
	movb	%al, -44(%rbp)
	.loc	47 448 23 is_stmt 1
	movl	%ebx, %eax
	shrl	$6, %eax
	.loc	47 448 22 is_stmt 0
	andb	$63, %al
	.loc	47 448 17
	orb	$-128, %al
	movb	%al, -43(%rbp)
	.loc	47 449 22 is_stmt 1
	andb	$63, %bl
Ltmp2479:
	.loc	47 449 17 is_stmt 0
	orb	$-128, %bl
	movb	%bl, -42(%rbp)
	movl	$3, %r15d
Ltmp2480:
	.loc	43 3343 17 is_stmt 1
	movq	%r12, %rax
	subq	%r8, %rax
Ltmp2481:
	.loc	17 378 9
	cmpq	%r15, %rax
Ltmp2482:
	.loc	17 280 9
	jae	LBB87_31
	jmp	LBB87_35
Ltmp2483:
LBB87_57:
	.loc	7 170 16
	testq	%r12, %r12
	.loc	7 170 13 is_stmt 0
	je	LBB87_58
Ltmp2484:
	.loc	7 80 5 is_stmt 1
	movl	$1, %esi
	movq	%r12, %rdi
	movq	%r8, %r13
	callq	___rust_alloc
Ltmp2485:
LBB87_60:
	.loc	7 0 5 is_stmt 0
	movq	%r13, %r8
	movq	%rax, %rdi
Ltmp2486:
LBB87_61:
	.loc	9 611 13 is_stmt 1
	testq	%rdi, %rdi
	jne	LBB87_62
	jmp	LBB87_64
Ltmp2487:
LBB87_40:
	.loc	7 170 16
	testq	%r13, %r13
	.loc	7 170 13 is_stmt 0
	je	LBB87_41
Ltmp2488:
	.loc	7 80 5 is_stmt 1
	movl	$1, %esi
	movq	%r13, %rdi
	movq	%r8, %r12
Ltmp2489:
	callq	___rust_alloc
Ltmp2490:
LBB87_43:
	.loc	7 0 5 is_stmt 0
	movq	%r12, %r8
	movq	%rax, %rdi
Ltmp2491:
LBB87_44:
	.loc	9 611 13 is_stmt 1
	testq	%rdi, %rdi
	jne	LBB87_45
	jmp	LBB87_48
Ltmp2492:
LBB87_29:
	.loc	47 452 23
	shrl	$18, %eax
	.loc	47 452 17 is_stmt 0
	orb	$-16, %al
	movb	%al, -44(%rbp)
	.loc	47 453 23 is_stmt 1
	movl	%ebx, %eax
	shrl	$12, %eax
	.loc	47 453 22 is_stmt 0
	andb	$63, %al
	.loc	47 453 17
	orb	$-128, %al
	movb	%al, -43(%rbp)
	.loc	47 454 23 is_stmt 1
	movl	%ebx, %eax
	shrl	$6, %eax
	.loc	47 454 22 is_stmt 0
	andb	$63, %al
	.loc	47 454 17
	orb	$-128, %al
	movb	%al, -42(%rbp)
	.loc	47 455 22 is_stmt 1
	andb	$63, %bl
Ltmp2493:
	.loc	47 455 17 is_stmt 0
	orb	$-128, %bl
	movb	%bl, -41(%rbp)
	movl	$4, %r15d
Ltmp2494:
	.loc	43 3343 17 is_stmt 1
	movq	%r12, %rax
	subq	%r8, %rax
Ltmp2495:
	.loc	17 378 9
	cmpq	%r15, %rax
Ltmp2496:
	.loc	17 280 9
	jae	LBB87_31
	jmp	LBB87_35
Ltmp2497:
LBB87_58:
	.loc	17 0 9 is_stmt 0
	movl	$1, %edi
Ltmp2498:
LBB87_62:
	.loc	17 387 9 is_stmt 1
	movq	%rdi, -72(%rbp)
	.loc	17 388 9
	movq	%r12, -64(%rbp)
Ltmp2499:
LBB87_51:
	.loc	4 836 42
	movb	%bl, (%rdi,%r8)
Ltmp2500:
	.loc	18 1206 13
	incq	%r8
	movq	%r8, -56(%rbp)
Ltmp2501:
	.loc	11 3179 9
	cmpq	%r14, %r15
	.loc	11 3303 21
	jne	LBB87_6
	jmp	LBB87_34
Ltmp2502:
LBB87_41:
	.loc	11 0 21 is_stmt 0
	movl	$1, %edi
Ltmp2503:
LBB87_45:
	.loc	17 387 9 is_stmt 1
	movq	%rdi, -72(%rbp)
	.loc	17 388 9
	movq	%r13, -64(%rbp)
	movq	-88(%rbp), %r12
	jmp	LBB87_32
Ltmp2504:
LBB87_34:
	.loc	20 1735 9
	movq	-56(%rbp), %rax
	movq	-80(%rbp), %rdx
	movq	%rax, 16(%rdx)
	movq	-72(%rbp), %rax
	movq	-64(%rbp), %rcx
	movq	%rcx, 8(%rdx)
	movq	%rax, (%rdx)
Ltmp2505:
	.loc	1 412 2
	addq	$56, %rsp
	popq	%rbx
	popq	%r12
	popq	%r13
	popq	%r14
	popq	%r15
	popq	%rbp
	retq
LBB87_63:
Ltmp2506:
Ltmp2363:
	.loc	17 268 38
	callq	__ZN5alloc7raw_vec17capacity_overflow17h023f34f5bc34c61fE
Ltmp2364:
	jmp	LBB87_47
Ltmp2507:
LBB87_46:
Ltmp2361:
	.loc	17 268 38 is_stmt 0
	callq	__ZN5alloc7raw_vec17capacity_overflow17h023f34f5bc34c61fE
Ltmp2362:
Ltmp2508:
LBB87_47:
	.loc	20 0 0
	ud2
Ltmp2509:
LBB87_64:
	movl	$1, %esi
	movq	%r12, %rdi
	callq	__ZN5alloc5alloc18handle_alloc_error17hbc0ab0ed90816c07E
Ltmp2510:
LBB87_48:
	.loc	17 269 47 is_stmt 1
	movl	$1, %esi
	movq	%r13, %rdi
	callq	__ZN5alloc5alloc18handle_alloc_error17hbc0ab0ed90816c07E
Ltmp2511:
LBB87_65:
Ltmp2365:
	.loc	17 0 47 is_stmt 0
	movq	%rax, %rbx
	leaq	-72(%rbp), %rdi
	.loc	20 1736 5 is_stmt 1
	callq	__ZN4core3ptr13drop_in_place17h8b15457ebfae4483E
	movq	%rbx, %rdi
	callq	__Unwind_Resume
	ud2
Ltmp2512:
Lfunc_end87:
	.cfi_endproc
	.section	__TEXT,__gcc_except_tab
	.p2align	2
GCC_except_table87:
Lexception24:
	.byte	255
	.byte	255
	.byte	1
	.uleb128 Lcst_end24-Lcst_begin24
Lcst_begin24:
	.uleb128 Lfunc_begin87-Lfunc_begin87
	.uleb128 Ltmp2363-Lfunc_begin87
	.byte	0
	.byte	0
	.uleb128 Ltmp2363-Lfunc_begin87
	.uleb128 Ltmp2362-Ltmp2363
	.uleb128 Ltmp2365-Lfunc_begin87
	.byte	0
	.uleb128 Ltmp2362-Lfunc_begin87
	.uleb128 Lfunc_end87-Ltmp2362
	.byte	0
	.byte	0
Lcst_end24:
	.p2align	2

	.section	__TEXT,__text,regular,pure_instructions
	.globl	__ZN58_$LT$autocfg..error..Error$u20$as$u20$core..fmt..Debug$GT$3fmt17h8c4949a23c33e718E
	.p2align	4, 0x90
__ZN58_$LT$autocfg..error..Error$u20$as$u20$core..fmt..Debug$GT$3fmt17h8c4949a23c33e718E:
Lfunc_begin88:
	.loc	36 8 0
	.cfi_startproc
	pushq	%rbp
	.cfi_def_cfa_offset 16
	.cfi_offset %rbp, -16
	movq	%rsp, %rbp
	.cfi_def_cfa_register %rbp
	pushq	%r14
	pushq	%rbx
	subq	$32, %rsp
	.cfi_offset %rbx, -32
	.cfi_offset %r14, -24
	movq	%rdi, %rbx
Ltmp2513:
	.loc	36 8 10 prologue_end
	leaq	l___unnamed_78(%rip), %rdx
	leaq	-40(%rbp), %r14
	movl	$5, %ecx
	movq	%r14, %rdi
	callq	__ZN4core3fmt9Formatter12debug_struct17h985c0158d1fc7193E
Ltmp2514:
	.loc	36 10 5
	movq	%rbx, -24(%rbp)
	.loc	36 8 10
	leaq	L___unnamed_79(%rip), %rsi
	leaq	l___unnamed_9(%rip), %r8
	leaq	-24(%rbp), %rcx
	movl	$4, %edx
	movq	%r14, %rdi
	callq	__ZN4core3fmt8builders11DebugStruct5field17h9c15dc155278eed2E
	movq	%r14, %rdi
	callq	__ZN4core3fmt8builders11DebugStruct6finish17h26808393f3fed630E
Ltmp2515:
	.loc	36 8 15 is_stmt 0
	addq	$32, %rsp
	popq	%rbx
Ltmp2516:
	popq	%r14
	popq	%rbp
	retq
Ltmp2517:
Lfunc_end88:
	.cfi_endproc

	.globl	__ZN62_$LT$autocfg..error..ErrorKind$u20$as$u20$core..fmt..Debug$GT$3fmt17h05fe8c13d6c5c813E
	.p2align	4, 0x90
__ZN62_$LT$autocfg..error..ErrorKind$u20$as$u20$core..fmt..Debug$GT$3fmt17h05fe8c13d6c5c813E:
Lfunc_begin89:
	.loc	36 39 0 is_stmt 1
	.cfi_startproc
	pushq	%rbp
	.cfi_def_cfa_offset 16
	.cfi_offset %rbp, -16
	movq	%rsp, %rbp
	.cfi_def_cfa_register %rbp
	pushq	%r14
	pushq	%rbx
	subq	$32, %rsp
	.cfi_offset %rbx, -32
	.cfi_offset %r14, -24
	movq	%rdi, %rbx
Ltmp2518:
	.loc	36 39 10 prologue_end
	movzbl	(%rdi), %eax
	leaq	LJTI89_0(%rip), %rcx
	movslq	(%rcx,%rax,4), %rax
	addq	%rcx, %rax
	jmpq	*%rax
Ltmp2519:
LBB89_2:
	.loc	36 41 8
	addq	$8, %rbx
Ltmp2520:
	.loc	36 0 8 is_stmt 0
	leaq	-48(%rbp), %r14
Ltmp2521:
	.loc	36 39 10 is_stmt 1
	leaq	l___unnamed_80(%rip), %rdx
	movl	$2, %ecx
	movq	%r14, %rdi
	callq	__ZN4core3fmt9Formatter11debug_tuple17h15ca25ad759edd1cE
Ltmp2522:
	.loc	36 0 10 is_stmt 0
	leaq	-24(%rbp), %rsi
Ltmp2523:
	.loc	36 41 8 is_stmt 1
	movq	%rbx, -24(%rbp)
	.loc	36 39 10
	leaq	l___unnamed_13(%rip), %rdx
	jmp	LBB89_5
Ltmp2524:
LBB89_4:
	.loc	36 43 10
	addq	$8, %rbx
Ltmp2525:
	.loc	36 0 10 is_stmt 0
	leaq	-48(%rbp), %r14
Ltmp2526:
	.loc	36 39 10 is_stmt 1
	leaq	L___unnamed_81(%rip), %rdx
	movl	$4, %ecx
	movq	%r14, %rdi
	callq	__ZN4core3fmt9Formatter11debug_tuple17h15ca25ad759edd1cE
Ltmp2527:
	.loc	36 0 10 is_stmt 0
	leaq	-24(%rbp), %rsi
Ltmp2528:
	.loc	36 43 10 is_stmt 1
	movq	%rbx, -24(%rbp)
	.loc	36 39 10
	leaq	l___unnamed_11(%rip), %rdx
	jmp	LBB89_5
Ltmp2529:
LBB89_1:
	.loc	36 44 11
	addq	$8, %rbx
Ltmp2530:
	.loc	36 0 11 is_stmt 0
	leaq	-48(%rbp), %r14
Ltmp2531:
	.loc	36 39 10 is_stmt 1
	leaq	l___unnamed_82(%rip), %rdx
	movl	$5, %ecx
	movq	%r14, %rdi
	callq	__ZN4core3fmt9Formatter11debug_tuple17h15ca25ad759edd1cE
Ltmp2532:
	.loc	36 0 10 is_stmt 0
	leaq	-24(%rbp), %rsi
Ltmp2533:
	.loc	36 44 11 is_stmt 1
	movq	%rbx, -24(%rbp)
	.loc	36 39 10
	leaq	l___unnamed_10(%rip), %rdx
	jmp	LBB89_5
Ltmp2534:
LBB89_3:
	.loc	36 42 9
	incq	%rbx
Ltmp2535:
	.loc	36 0 9 is_stmt 0
	leaq	-48(%rbp), %r14
Ltmp2536:
	.loc	36 39 10 is_stmt 1
	leaq	l___unnamed_83(%rip), %rdx
	movl	$3, %ecx
	movq	%r14, %rdi
	callq	__ZN4core3fmt9Formatter11debug_tuple17h15ca25ad759edd1cE
Ltmp2537:
	.loc	36 0 10 is_stmt 0
	leaq	-24(%rbp), %rsi
Ltmp2538:
	.loc	36 42 9 is_stmt 1
	movq	%rbx, -24(%rbp)
	.loc	36 39 10
	leaq	l___unnamed_12(%rip), %rdx
Ltmp2539:
LBB89_5:
	.loc	36 0 0 is_stmt 0
	movq	%r14, %rdi
	callq	__ZN4core3fmt8builders10DebugTuple5field17hf36121153a94f236E
	movq	%r14, %rdi
	callq	__ZN4core3fmt8builders10DebugTuple6finish17h68acf09c6f6593f2E
	.loc	36 39 15
	addq	$32, %rsp
	popq	%rbx
	popq	%r14
	popq	%rbp
	retq
Ltmp2540:
Lfunc_end89:
	.cfi_endproc
	.p2align	2, 0x90
	.data_region jt32
.set L89_0_set_2, LBB89_2-LJTI89_0
.set L89_0_set_3, LBB89_3-LJTI89_0
.set L89_0_set_4, LBB89_4-LJTI89_0
.set L89_0_set_1, LBB89_1-LJTI89_0
LJTI89_0:
	.long	L89_0_set_2
	.long	L89_0_set_3
	.long	L89_0_set_4
	.long	L89_0_set_1
	.end_data_region

	.globl	__ZN62_$LT$autocfg..version..Version$u20$as$u20$core..fmt..Debug$GT$3fmt17h807ac355227ac432E
	.p2align	4, 0x90
__ZN62_$LT$autocfg..version..Version$u20$as$u20$core..fmt..Debug$GT$3fmt17h807ac355227ac432E:
Lfunc_begin90:
	.loc	24 8 0 is_stmt 1
	.cfi_startproc
	pushq	%rbp
	.cfi_def_cfa_offset 16
	.cfi_offset %rbp, -16
	movq	%rsp, %rbp
	.cfi_def_cfa_register %rbp
	pushq	%r15
	pushq	%r14
	pushq	%r12
	pushq	%rbx
	subq	$32, %rsp
	.cfi_offset %rbx, -48
	.cfi_offset %r12, -40
	.cfi_offset %r14, -32
	.cfi_offset %r15, -24
	movq	%rdi, %rbx
Ltmp2541:
	.loc	24 8 17 prologue_end
	leaq	l___unnamed_26(%rip), %rdx
	leaq	-56(%rbp), %r14
	movl	$7, %ecx
	movq	%r14, %rdi
	callq	__ZN4core3fmt9Formatter12debug_struct17h985c0158d1fc7193E
Ltmp2542:
	.loc	24 10 5
	movq	%rbx, -40(%rbp)
Ltmp2543:
	.loc	24 11 5
	leaq	8(%rbx), %r15
	.loc	24 12 5
	addq	$16, %rbx
Ltmp2544:
	.loc	24 8 17
	leaq	l___unnamed_27(%rip), %rsi
	leaq	l___unnamed_14(%rip), %r12
	leaq	-40(%rbp), %rcx
	movl	$5, %edx
	movq	%r14, %rdi
	movq	%r12, %r8
	callq	__ZN4core3fmt8builders11DebugStruct5field17h9c15dc155278eed2E
	.loc	24 11 5
	movq	%r15, -40(%rbp)
	.loc	24 8 17
	leaq	l___unnamed_28(%rip), %rsi
	leaq	-40(%rbp), %rcx
	movl	$5, %edx
	movq	%r14, %rdi
	movq	%r12, %r8
	callq	__ZN4core3fmt8builders11DebugStruct5field17h9c15dc155278eed2E
	.loc	24 12 5
	movq	%rbx, -40(%rbp)
	.loc	24 8 17
	leaq	l___unnamed_29(%rip), %rsi
	leaq	-40(%rbp), %rcx
	movl	$5, %edx
	movq	%r14, %rdi
	movq	%r12, %r8
	callq	__ZN4core3fmt8builders11DebugStruct5field17h9c15dc155278eed2E
	movq	%r14, %rdi
	callq	__ZN4core3fmt8builders11DebugStruct6finish17h26808393f3fed630E
Ltmp2545:
	.loc	24 8 22 is_stmt 0
	addq	$32, %rsp
	popq	%rbx
	popq	%r12
	popq	%r14
	popq	%r15
	popq	%rbp
	retq
Ltmp2546:
Lfunc_end90:
	.cfi_endproc

	.globl	__ZN53_$LT$autocfg..AutoCfg$u20$as$u20$core..fmt..Debug$GT$3fmt17h3a7f59328c23d0e8E
	.p2align	4, 0x90
__ZN53_$LT$autocfg..AutoCfg$u20$as$u20$core..fmt..Debug$GT$3fmt17h3a7f59328c23d0e8E:
Lfunc_begin91:
	.loc	1 82 0 is_stmt 1
	.cfi_startproc
	pushq	%rbp
	.cfi_def_cfa_offset 16
	.cfi_offset %rbp, -16
	movq	%rsp, %rbp
	.cfi_def_cfa_register %rbp
	pushq	%r15
	pushq	%r14
	pushq	%r13
	pushq	%r12
	pushq	%rbx
	subq	$40, %rsp
	.cfi_offset %rbx, -56
	.cfi_offset %r12, -48
	.cfi_offset %r13, -40
	.cfi_offset %r14, -32
	.cfi_offset %r15, -24
	movq	%rdi, %rbx
Ltmp2547:
	.loc	1 82 17 prologue_end
	leaq	l___unnamed_84(%rip), %rdx
	leaq	-80(%rbp), %r14
	movl	$7, %ecx
	movq	%r14, %rdi
	callq	__ZN4core3fmt9Formatter12debug_struct17h985c0158d1fc7193E
Ltmp2548:
	.loc	1 84 5
	movq	%rbx, -48(%rbp)
Ltmp2549:
	.loc	1 85 5
	leaq	24(%rbx), %r15
	.loc	1 86 5
	leaq	48(%rbx), %r12
	.loc	1 87 5
	leaq	72(%rbx), %r13
	.loc	1 88 5
	leaq	120(%rbx), %rax
	movq	%rax, -56(%rbp)
	.loc	1 89 5
	leaq	96(%rbx), %rax
	movq	%rax, -64(%rbp)
Ltmp2550:
	.loc	1 82 17
	leaq	l___unnamed_85(%rip), %rsi
	leaq	l___unnamed_15(%rip), %rbx
Ltmp2551:
	.loc	1 0 17 is_stmt 0
	leaq	-48(%rbp), %rcx
	.loc	1 82 17
	movl	$7, %edx
	movq	%r14, %rdi
	movq	%rbx, %r8
	callq	__ZN4core3fmt8builders11DebugStruct5field17h9c15dc155278eed2E
	.loc	1 85 5 is_stmt 1
	movq	%r15, -48(%rbp)
	.loc	1 82 17
	leaq	l___unnamed_53(%rip), %rsi
	leaq	-48(%rbp), %rcx
	movl	$5, %edx
	movq	%r14, %rdi
	movq	%rbx, %r8
	callq	__ZN4core3fmt8builders11DebugStruct5field17h9c15dc155278eed2E
	.loc	1 86 5
	movq	%r12, -48(%rbp)
	.loc	1 82 17
	leaq	l___unnamed_86(%rip), %rsi
	leaq	l___unnamed_16(%rip), %r8
	leaq	-48(%rbp), %rcx
	movl	$13, %edx
	movq	%r14, %rdi
	callq	__ZN4core3fmt8builders11DebugStruct5field17h9c15dc155278eed2E
	.loc	1 87 5
	movq	%r13, -48(%rbp)
	.loc	1 82 17
	leaq	l___unnamed_87(%rip), %rsi
	leaq	l___unnamed_17(%rip), %r8
	leaq	-48(%rbp), %rcx
	movl	$6, %edx
	movq	%r14, %rdi
	callq	__ZN4core3fmt8builders11DebugStruct5field17h9c15dc155278eed2E
	movq	-56(%rbp), %rax
	.loc	1 88 5
	movq	%rax, -48(%rbp)
	.loc	1 82 17
	leaq	l___unnamed_88(%rip), %rsi
	leaq	l___unnamed_18(%rip), %r8
	leaq	-48(%rbp), %rcx
	movl	$6, %edx
	movq	%r14, %rdi
	callq	__ZN4core3fmt8builders11DebugStruct5field17h9c15dc155278eed2E
	movq	-64(%rbp), %rax
	.loc	1 89 5
	movq	%rax, -48(%rbp)
	.loc	1 82 17
	leaq	l___unnamed_89(%rip), %rsi
	leaq	l___unnamed_19(%rip), %r8
	leaq	-48(%rbp), %rcx
	movl	$9, %edx
	movq	%r14, %rdi
	callq	__ZN4core3fmt8builders11DebugStruct5field17h9c15dc155278eed2E
	movq	%r14, %rdi
	callq	__ZN4core3fmt8builders11DebugStruct6finish17h26808393f3fed630E
Ltmp2552:
	.loc	1 82 22 is_stmt 0
	addq	$40, %rsp
	popq	%rbx
	popq	%r12
	popq	%r13
	popq	%r14
	popq	%r15
	popq	%rbp
	retq
Ltmp2553:
Lfunc_end91:
	.cfi_endproc

	.section	__TEXT,__const
l___unnamed_90:
	.ascii	"/rustc/a74d1862d4d87a56244958416fd05976c58ca1a8/src/liballoc/collections/btree/map.rs"

	.section	__DATA,__const
	.p2align	3
l___unnamed_21:
	.quad	l___unnamed_90
	.asciz	"U\000\000\000\000\000\000\000C\006\000\000\033\000\000"

	.section	__TEXT,__const
l___unnamed_91:
	.ascii	"/rustc/a74d1862d4d87a56244958416fd05976c58ca1a8/src/libstd/io/mod.rs"

	.section	__DATA,__const
	.p2align	3
l___unnamed_23:
	.quad	l___unnamed_91
	.asciz	"D\000\000\000\000\000\000\000}\005\000\000!\000\000"

	.section	__TEXT,__const
l___unnamed_22:
	.ascii	"failed to write whole buffer"

	.section	__DATA,__const
	.p2align	3
l___unnamed_1:
	.quad	__ZN4core3ptr13drop_in_place17hf99d24d469c2719bE
	.quad	24
	.quad	8
	.quad	__ZN3std5error5Error5cause17heb49d5df3be108d9E
	.quad	__ZN3std5error5Error7type_id17h13063e248e6ddb12E
	.quad	__ZN3std5error5Error9backtrace17h32326f344aecb4f3E
	.quad	__ZN243_$LT$std..error..$LT$impl$u20$core..convert..From$LT$alloc..string..String$GT$$u20$for$u20$alloc..boxed..Box$LT$dyn$u20$std..error..Error$u2b$core..marker..Sync$u2b$core..marker..Send$GT$$GT$..from..StringError$u20$as$u20$std..error..Error$GT$11description17h532dfd63416e1aedE
	.quad	__ZN3std5error5Error5cause17heb49d5df3be108d9E
	.quad	__ZN244_$LT$std..error..$LT$impl$u20$core..convert..From$LT$alloc..string..String$GT$$u20$for$u20$alloc..boxed..Box$LT$dyn$u20$std..error..Error$u2b$core..marker..Sync$u2b$core..marker..Send$GT$$GT$..from..StringError$u20$as$u20$core..fmt..Display$GT$3fmt17h1c8bbca769487be5E
	.quad	__ZN242_$LT$std..error..$LT$impl$u20$core..convert..From$LT$alloc..string..String$GT$$u20$for$u20$alloc..boxed..Box$LT$dyn$u20$std..error..Error$u2b$core..marker..Sync$u2b$core..marker..Send$GT$$GT$..from..StringError$u20$as$u20$core..fmt..Debug$GT$3fmt17he86ff336ef1c0758E

	.p2align	3
l___unnamed_2:
	.quad	__ZN4core3ptr13drop_in_place17h123ac63efd54abb0E
	.quad	8
	.quad	8
	.quad	__ZN42_$LT$$RF$T$u20$as$u20$core..fmt..Debug$GT$3fmt17h6dc36352ecdb2ae6E

	.section	__TEXT,__const
l___unnamed_92:
	.ascii	"/rustc/a74d1862d4d87a56244958416fd05976c58ca1a8/src/libcore/str/mod.rs"

	.section	__DATA,__const
	.p2align	3
l___unnamed_33:
	.quad	l___unnamed_92
	.asciz	"F\000\000\000\000\000\000\000\303\007\000\000/\000\000"

	.p2align	3
l___unnamed_34:
	.quad	l___unnamed_92
	.asciz	"F\000\000\000\000\000\000\000\004\b\000\000/\000\000"

	.section	__TEXT,__const
l___unnamed_93:
	.ascii	"/rustc/a74d1862d4d87a56244958416fd05976c58ca1a8/src/libcore/macros/mod.rs"

	.section	__DATA,__const
	.p2align	3
l___unnamed_32:
	.quad	l___unnamed_93
	.asciz	"I\000\000\000\000\000\000\000\020\000\000\000\t\000\000"

	.section	__TEXT,__const
	.p2align	3
l___unnamed_68:
	.byte	0

l___unnamed_20:
	.ascii	"called `Option::unwrap()` on a `None` value"

l___unnamed_48:
	.ascii	"called `Result::unwrap()` on an `Err` value"

	.section	__DATA,__const
	.p2align	3
l___unnamed_3:
	.quad	__ZN4core3ptr13drop_in_place17h96e8ca521862c534E
	.quad	24
	.quad	8
	.quad	__ZN58_$LT$autocfg..error..Error$u20$as$u20$core..fmt..Debug$GT$3fmt17h8c4949a23c33e718E

	.section	__TEXT,__const
l___unnamed_94:
	.ascii	"internal error: entered unreachable code: "

	.section	__DATA,__const
	.p2align	3
l___unnamed_31:
	.quad	l___unnamed_94
	.asciz	"*\000\000\000\000\000\000"

	.section	__TEXT,__const
l___unnamed_95:
	.ascii	"BTreeMap has different depths"

	.section	__DATA,__const
	.p2align	3
l___unnamed_30:
	.quad	l___unnamed_95
	.asciz	"\035\000\000\000\000\000\000"

	.section	__TEXT,__literal4,4byte_literals
L___unnamed_24:
	.ascii	"Some"

	.section	__DATA,__const
	.p2align	3
l___unnamed_4:
	.quad	__ZN4core3ptr13drop_in_place17h123ac63efd54abb0E
	.quad	8
	.quad	8
	.quad	__ZN42_$LT$$RF$T$u20$as$u20$core..fmt..Debug$GT$3fmt17hc15d54b8f8981e35E

	.section	__TEXT,__literal4,4byte_literals
L___unnamed_25:
	.ascii	"None"

	.section	__DATA,__const
	.p2align	3
l___unnamed_5:
	.quad	__ZN4core3ptr13drop_in_place17h123ac63efd54abb0E
	.quad	8
	.quad	8
	.quad	__ZN42_$LT$$RF$T$u20$as$u20$core..fmt..Debug$GT$3fmt17hb5a46beabb1a68aaE

	.section	__TEXT,__const
l___unnamed_96:
	.ascii	"/rustc/a74d1862d4d87a56244958416fd05976c58ca1a8/src/libcore/str/pattern.rs"

	.section	__DATA,__const
	.p2align	3
l___unnamed_35:
	.quad	l___unnamed_96
	.asciz	"J\000\000\000\000\000\000\000\213\001\000\000&\000\000"

	.section	__TEXT,__const
l___unnamed_36:
	.ascii	"AutoCfg error"

	.section	__DATA,__const
	.p2align	3
l___unnamed_6:
	.quad	__ZN4core3ptr13drop_in_place17h123ac63efd54abb0E
	.quad	16
	.quad	8
	.quad	__ZN3std5error5Error5cause17h1164137d05b58c47E
	.quad	__ZN3std5error5Error7type_id17h32e04ce32fa133b8E
	.quad	__ZN3std5error5Error9backtrace17he597756858bfcbe7E
	.quad	__ZN58_$LT$core..str..Utf8Error$u20$as$u20$std..error..Error$GT$11description17h63fe6471b1b501b8E
	.quad	__ZN3std5error5Error5cause17h1164137d05b58c47E
	.quad	__ZN59_$LT$core..str..Utf8Error$u20$as$u20$core..fmt..Display$GT$3fmt17h9024978efc80f5caE
	.quad	__ZN57_$LT$core..str..Utf8Error$u20$as$u20$core..fmt..Debug$GT$3fmt17h1ecfb3cce2e619e0E

	.p2align	3
l___unnamed_7:
	.quad	__ZN4core3ptr13drop_in_place17h123ac63efd54abb0E
	.quad	1
	.quad	1
	.quad	__ZN3std5error5Error5cause17he68f4cee5cdda8cfE
	.quad	__ZN3std5error5Error7type_id17h83b4f568a4fdccdcE
	.quad	__ZN3std5error5Error9backtrace17h3e03a11703c283c5E
	.quad	__ZN62_$LT$core..num..ParseIntError$u20$as$u20$std..error..Error$GT$11description17h7db25ff46335987dE
	.quad	__ZN3std5error5Error5cause17he68f4cee5cdda8cfE
	.quad	__ZN63_$LT$core..num..ParseIntError$u20$as$u20$core..fmt..Display$GT$3fmt17heb1569ad65640c9bE
	.quad	__ZN61_$LT$core..num..ParseIntError$u20$as$u20$core..fmt..Debug$GT$3fmt17h44c3304f11241241E

	.p2align	3
l___unnamed_8:
	.quad	__ZN4core3ptr13drop_in_place17hce341f8b70af50efE
	.quad	16
	.quad	8
	.quad	__ZN59_$LT$std..io..error..Error$u20$as$u20$std..error..Error$GT$6source17heb35b7a261b5c7e2E
	.quad	__ZN3std5error5Error7type_id17h84fde0d28459fc22E
	.quad	__ZN3std5error5Error9backtrace17he597756858bfcbe7E
	.quad	__ZN59_$LT$std..io..error..Error$u20$as$u20$std..error..Error$GT$11description17h1d09041c379fa5ffE
	.quad	__ZN59_$LT$std..io..error..Error$u20$as$u20$std..error..Error$GT$5cause17h0ca71f10a9ec1d55E
	.quad	__ZN60_$LT$std..io..error..Error$u20$as$u20$core..fmt..Display$GT$3fmt17hd5a23906ccc4fffdE
	.quad	__ZN58_$LT$std..io..error..Error$u20$as$u20$core..fmt..Debug$GT$3fmt17h3350f3f53e0cee4cE

	.section	__TEXT,__const
l___unnamed_37:
	.ascii	"--version"

l___unnamed_38:
	.ascii	"--verbose"

l___unnamed_39:
	.ascii	"could not execute rustc"

l___unnamed_40:
	.ascii	"release: "

l___unnamed_42:
	.ascii	"missing major version"

l___unnamed_43:
	.ascii	"missing minor version"

l___unnamed_44:
	.ascii	"missing patch version"

l___unnamed_41:
	.ascii	"could not find rustc release"

	.section	__TEXT,__literal16,16byte_literals
L___unnamed_97:
	.ascii	"cargo:rustc-cfg="

	.section	__TEXT,__const
l___unnamed_98:
	.byte	10

	.section	__DATA,__const
	.p2align	3
l___unnamed_45:
	.quad	L___unnamed_97
	.asciz	"\020\000\000\000\000\000\000"
	.quad	l___unnamed_98
	.asciz	"\001\000\000\000\000\000\000"

	.section	__TEXT,__const
l___unnamed_99:
	.ascii	"cargo:rerun-if-changed="

	.section	__DATA,__const
	.p2align	3
l___unnamed_46:
	.quad	l___unnamed_99
	.asciz	"\027\000\000\000\000\000\000"
	.quad	l___unnamed_98
	.asciz	"\001\000\000\000\000\000\000"

	.section	__TEXT,__const
l___unnamed_100:
	.ascii	"cargo:rerun-if-env-changed="

	.section	__DATA,__const
	.p2align	3
l___unnamed_47:
	.quad	l___unnamed_100
	.asciz	"\033\000\000\000\000\000\000"
	.quad	l___unnamed_98
	.asciz	"\001\000\000\000\000\000\000"

	.section	__TEXT,__const
l___unnamed_101:
	.ascii	"/Users/yingyuhang/.cargo/registry/src/github.com-1ecc6299db9ec823/autocfg-1.0.0/src/lib.rs"

	.section	__DATA,__const
	.p2align	3
l___unnamed_49:
	.quad	l___unnamed_101
	.asciz	"Z\000\000\000\000\000\000\000\200\000\000\000\005\000\000"

	.section	__TEXT,__const
l___unnamed_50:
	.ascii	"OUT_DIR"

l___unnamed_52:
	.ascii	"no OUT_DIR specified!"

l___unnamed_51:
	.ascii	"RUSTC"

l___unnamed_54:
	.ascii	"output path is not a writable directory"

l___unnamed_55:
	.ascii	"TARGET"

	.section	__TEXT,__literal4,4byte_literals
L___unnamed_56:
	.ascii	"HOST"

	.section	__TEXT,__const
l___unnamed_57:
	.ascii	"RUSTFLAGS"

l___unnamed_58:
	.ascii	"warning: autocfg could not probe for `std`\n"

l___unnamed_53:
	.ascii	"rustc"

l___unnamed_102:
	.ascii	"rustc_"

l___unnamed_103:
	.byte	95

	.section	__DATA,__const
	.p2align	3
l___unnamed_59:
	.quad	l___unnamed_102
	.asciz	"\006\000\000\000\000\000\000"
	.quad	l___unnamed_103
	.asciz	"\001\000\000\000\000\000\000"

	.section	__TEXT,__const
l___unnamed_60:
	.ascii	"--crate-name"

l___unnamed_104:
	.ascii	"probe"

	.section	__DATA,__const
	.p2align	3
l___unnamed_61:
	.quad	l___unnamed_104
	.asciz	"\005\000\000\000\000\000\000"

	.section	__TEXT,__literal16,16byte_literals
L___unnamed_62:
	.ascii	"--crate-type=lib"

	.section	__TEXT,__const
l___unnamed_63:
	.ascii	"--out-dir"

l___unnamed_64:
	.ascii	"--emit=llvm-ir"

	.section	__TEXT,__literal8,8byte_literals
L___unnamed_65:
	.ascii	"--target"

	.section	__TEXT,__const
l___unnamed_66:
	.byte	45

l___unnamed_69:
	.ascii	"rustc stdin"

	.section	__DATA,__const
	.p2align	3
l___unnamed_70:
	.quad	l___unnamed_101
	.asciz	"Z\000\000\000\000\000\000\000\371\000\000\000\031\000\000"

	.section	__TEXT,__const
l___unnamed_67:
	.ascii	"#![no_std]\n"

	.globl	__ZN7autocfg7AutoCfg5probe2ID17h25c49fc517ba5cbcE
.zerofill __DATA,__common,__ZN7autocfg7AutoCfg5probe2ID17h25c49fc517ba5cbcE,8,3
l___unnamed_105:
	.ascii	"extern crate "

l___unnamed_106:
	.ascii	" as probe;"

	.section	__DATA,__const
	.p2align	3
l___unnamed_71:
	.quad	l___unnamed_105
	.asciz	"\r\000\000\000\000\000\000"
	.quad	l___unnamed_106
	.asciz	"\n\000\000\000\000\000\000"

	.section	__TEXT,__literal4,4byte_literals
L___unnamed_107:
	.ascii	"has_"

	.section	__DATA,__const
	.p2align	3
l___unnamed_72:
	.quad	L___unnamed_107
	.asciz	"\004\000\000\000\000\000\000"

	.section	__TEXT,__literal8,8byte_literals
L___unnamed_108:
	.ascii	"pub use "

	.section	__TEXT,__const
l___unnamed_109:
	.byte	59

	.section	__DATA,__const
	.p2align	3
l___unnamed_73:
	.quad	L___unnamed_108
	.asciz	"\b\000\000\000\000\000\000"
	.quad	l___unnamed_109
	.asciz	"\001\000\000\000\000\000\000"

	.section	__TEXT,__const
l___unnamed_110:
	.ascii	"pub trait Probe: "

l___unnamed_111:
	.ascii	" + Sized {}"

	.section	__DATA,__const
	.p2align	3
l___unnamed_74:
	.quad	l___unnamed_110
	.asciz	"\021\000\000\000\000\000\000"
	.quad	l___unnamed_111
	.asciz	"\013\000\000\000\000\000\000"

	.section	__TEXT,__const
l___unnamed_112:
	.ascii	"pub type Probe = "

	.section	__DATA,__const
	.p2align	3
l___unnamed_75:
	.quad	l___unnamed_112
	.asciz	"\021\000\000\000\000\000\000"
	.quad	l___unnamed_109
	.asciz	"\001\000\000\000\000\000\000"

	.section	__TEXT,__const
l___unnamed_113:
	.ascii	"pub fn probe() { let _ = "

l___unnamed_114:
	.ascii	"; }"

	.section	__DATA,__const
	.p2align	3
l___unnamed_76:
	.quad	l___unnamed_113
	.asciz	"\031\000\000\000\000\000\000"
	.quad	l___unnamed_114
	.asciz	"\003\000\000\000\000\000\000"

	.section	__TEXT,__const
l___unnamed_115:
	.ascii	"pub const PROBE: () = ((), "

	.section	__TEXT,__literal4,4byte_literals
L___unnamed_116:
	.ascii	").0;"

	.section	__DATA,__const
	.p2align	3
l___unnamed_77:
	.quad	l___unnamed_115
	.asciz	"\033\000\000\000\000\000\000"
	.quad	L___unnamed_116
	.asciz	"\004\000\000\000\000\000\000"

	.section	__TEXT,__const
l___unnamed_78:
	.ascii	"Error"

	.section	__TEXT,__literal4,4byte_literals
L___unnamed_79:
	.ascii	"kind"

	.section	__DATA,__const
	.p2align	3
l___unnamed_9:
	.quad	__ZN4core3ptr13drop_in_place17h123ac63efd54abb0E
	.quad	8
	.quad	8
	.quad	__ZN42_$LT$$RF$T$u20$as$u20$core..fmt..Debug$GT$3fmt17h299bba74765bce82E

	.section	__TEXT,__const
l___unnamed_82:
	.ascii	"Other"

	.section	__DATA,__const
	.p2align	3
l___unnamed_10:
	.quad	__ZN4core3ptr13drop_in_place17h123ac63efd54abb0E
	.quad	8
	.quad	8
	.quad	__ZN42_$LT$$RF$T$u20$as$u20$core..fmt..Debug$GT$3fmt17hd038d3f267c5df2eE

	.section	__TEXT,__literal4,4byte_literals
L___unnamed_81:
	.ascii	"Utf8"

	.section	__DATA,__const
	.p2align	3
l___unnamed_11:
	.quad	__ZN4core3ptr13drop_in_place17h123ac63efd54abb0E
	.quad	8
	.quad	8
	.quad	__ZN42_$LT$$RF$T$u20$as$u20$core..fmt..Debug$GT$3fmt17h577843475c8e9fa0E

	.section	__TEXT,__const
l___unnamed_83:
	.ascii	"Num"

	.section	__DATA,__const
	.p2align	3
l___unnamed_12:
	.quad	__ZN4core3ptr13drop_in_place17h123ac63efd54abb0E
	.quad	8
	.quad	8
	.quad	__ZN42_$LT$$RF$T$u20$as$u20$core..fmt..Debug$GT$3fmt17hcb9a14ecb25d619dE

	.section	__TEXT,__const
l___unnamed_80:
	.ascii	"Io"

	.section	__DATA,__const
	.p2align	3
l___unnamed_13:
	.quad	__ZN4core3ptr13drop_in_place17h123ac63efd54abb0E
	.quad	8
	.quad	8
	.quad	__ZN42_$LT$$RF$T$u20$as$u20$core..fmt..Debug$GT$3fmt17hedbf5787e3c9617bE

	.section	__TEXT,__const
l___unnamed_26:
	.ascii	"Version"

l___unnamed_27:
	.ascii	"major"

	.section	__DATA,__const
	.p2align	3
l___unnamed_14:
	.quad	__ZN4core3ptr13drop_in_place17h123ac63efd54abb0E
	.quad	8
	.quad	8
	.quad	__ZN42_$LT$$RF$T$u20$as$u20$core..fmt..Debug$GT$3fmt17h4b61f48bf571cb4dE

	.section	__TEXT,__const
l___unnamed_28:
	.ascii	"minor"

l___unnamed_29:
	.ascii	"patch"

l___unnamed_84:
	.ascii	"AutoCfg"

l___unnamed_85:
	.ascii	"out_dir"

	.section	__DATA,__const
	.p2align	3
l___unnamed_15:
	.quad	__ZN4core3ptr13drop_in_place17h123ac63efd54abb0E
	.quad	8
	.quad	8
	.quad	__ZN42_$LT$$RF$T$u20$as$u20$core..fmt..Debug$GT$3fmt17h63f50e29d033e0a8E

	.section	__TEXT,__const
l___unnamed_86:
	.ascii	"rustc_version"

	.section	__DATA,__const
	.p2align	3
l___unnamed_16:
	.quad	__ZN4core3ptr13drop_in_place17h123ac63efd54abb0E
	.quad	8
	.quad	8
	.quad	__ZN42_$LT$$RF$T$u20$as$u20$core..fmt..Debug$GT$3fmt17h32329117b37b4cc0E

	.section	__TEXT,__const
l___unnamed_87:
	.ascii	"target"

	.section	__DATA,__const
	.p2align	3
l___unnamed_17:
	.quad	__ZN4core3ptr13drop_in_place17h123ac63efd54abb0E
	.quad	8
	.quad	8
	.quad	__ZN42_$LT$$RF$T$u20$as$u20$core..fmt..Debug$GT$3fmt17h049486178b88a292E

	.section	__TEXT,__const
l___unnamed_88:
	.ascii	"no_std"

	.section	__DATA,__const
	.p2align	3
l___unnamed_18:
	.quad	__ZN4core3ptr13drop_in_place17h123ac63efd54abb0E
	.quad	8
	.quad	8
	.quad	__ZN42_$LT$$RF$T$u20$as$u20$core..fmt..Debug$GT$3fmt17ha23a39f5600d4879E

	.section	__TEXT,__const
l___unnamed_89:
	.ascii	"rustflags"

	.section	__DATA,__const
	.p2align	3
l___unnamed_19:
	.quad	__ZN4core3ptr13drop_in_place17h123ac63efd54abb0E
