	.section	__TEXT,__text,regular,pure_instructions
	.macosx_version_min 10, 7
	.file	1 "/Users/yingyuhang/.cargo/registry/src/github.com-1ecc6299db9ec823/bit-matrix-0.6.0/src/lib.rs"
	.p2align	4, 0x90
__ZN42_$LT$$RF$T$u20$as$u20$core..fmt..Debug$GT$3fmt17h8374ef342ebb1919E:
Lfunc_begin0:
	.file	2 "/rustc/a74d1862d4d87a56244958416fd05976c58ca1a8/src/libcore/fmt/mod.rs"
	.loc	2 1973 0
	.cfi_startproc
	pushq	%rbp
	.cfi_def_cfa_offset 16
	.cfi_offset %rbp, -16
	movq	%rsp, %rbp
	.cfi_def_cfa_register %rbp
	pushq	%r14
	pushq	%rbx
	.cfi_offset %rbx, -32
	.cfi_offset %r14, -24
	movq	%rsi, %rbx
Ltmp0:
	.loc	2 1973 71 prologue_end
	movq	(%rdi), %r14
Ltmp1:
	.file	3 "/rustc/a74d1862d4d87a56244958416fd05976c58ca1a8/src/libcore/fmt/num.rs"
	.loc	3 149 20
	movq	%rsi, %rdi
Ltmp2:
	callq	__ZN4core3fmt9Formatter15debug_lower_hex17h8530fbaeba13f4d9E
	.loc	3 149 17 is_stmt 0
	testb	%al, %al
	je	LBB0_1
Ltmp3:
	.loc	3 150 21 is_stmt 1
	movq	%r14, %rdi
	movq	%rbx, %rsi
	popq	%rbx
Ltmp4:
	popq	%r14
Ltmp5:
	popq	%rbp
	jmp	__ZN4core3fmt3num55_$LT$impl$u20$core..fmt..LowerHex$u20$for$u20$usize$GT$3fmt17hbf7dc8c1d7fa021dE
LBB0_1:
Ltmp6:
	.loc	3 151 27
	movq	%rbx, %rdi
	callq	__ZN4core3fmt9Formatter15debug_upper_hex17hf8fda15ec43a1e68E
	.loc	3 154 21
	movq	%r14, %rdi
	movq	%rbx, %rsi
	.loc	3 151 24
	testb	%al, %al
	je	LBB0_4
Ltmp7:
	.loc	3 152 21
	popq	%rbx
Ltmp8:
	popq	%r14
Ltmp9:
	popq	%rbp
	jmp	__ZN4core3fmt3num55_$LT$impl$u20$core..fmt..UpperHex$u20$for$u20$usize$GT$3fmt17hf20a4f369caf234bE
LBB0_4:
Ltmp10:
	.loc	3 154 21
	popq	%rbx
Ltmp11:
	popq	%r14
Ltmp12:
	popq	%rbp
	jmp	__ZN4core3fmt3num3imp54_$LT$impl$u20$core..fmt..Display$u20$for$u20$usize$GT$3fmt17h89ce3155a90f2edfE
Ltmp13:
Lfunc_end0:
	.cfi_endproc

	.p2align	4, 0x90
__ZN42_$LT$$RF$T$u20$as$u20$core..fmt..Debug$GT$3fmt17h852be47467b43634E:
Lfunc_begin1:
	.loc	2 1973 0
	.cfi_startproc
	pushq	%rbp
	.cfi_def_cfa_offset 16
	.cfi_offset %rbp, -16
	movq	%rsp, %rbp
	.cfi_def_cfa_register %rbp
	pushq	%r15
	pushq	%r14
	pushq	%r13
	pushq	%r12
	pushq	%rbx
	subq	$72, %rsp
	.cfi_offset %rbx, -56
	.cfi_offset %r12, -48
	.cfi_offset %r13, -40
	.cfi_offset %r14, -32
	.cfi_offset %r15, -24
	movq	%rsi, %r15
Ltmp14:
	.loc	2 1973 71 prologue_end
	movq	(%rdi), %rax
Ltmp15:
	.file	4 "/Users/yingyuhang/.cargo/registry/src/github.com-1ecc6299db9ec823/bit-vec-0.6.2/src/lib.rs"
	.loc	4 929 41
	movq	24(%rax), %rbx
Ltmp16:
	.file	5 "/rustc/a74d1862d4d87a56244958416fd05976c58ca1a8/src/liballoc/vec.rs"
	.loc	5 0 0 is_stmt 0
	movq	(%rax), %r12
Ltmp17:
	movq	16(%rax), %r13
Ltmp18:
	xorl	%ecx, %ecx
Ltmp19:
	.p2align	4, 0x90
LBB1_1:
	.file	6 "/rustc/a74d1862d4d87a56244958416fd05976c58ca1a8/src/libcore/cmp.rs"
	.loc	6 1137 52 is_stmt 1
	cmpq	%rcx, %rbx
Ltmp20:
	.file	7 "/rustc/a74d1862d4d87a56244958416fd05976c58ca1a8/src/libcore/iter/range.rs"
	.loc	7 211 9
	je	LBB1_2
Ltmp21:
	.loc	4 512 17
	movq	%rcx, %rax
Ltmp22:
	shrq	$5, %rax
Ltmp23:
	.file	8 "/rustc/a74d1862d4d87a56244958416fd05976c58ca1a8/src/libcore/slice/mod.rs"
	.loc	8 2851 12
	cmpq	%rax, %r13
Ltmp24:
	.file	9 "/rustc/a74d1862d4d87a56244958416fd05976c58ca1a8/src/libcore/option.rs"
	.loc	9 458 13
	jbe	LBB1_7
Ltmp25:
	.loc	9 458 29 is_stmt 0
	movl	(%r12,%rax,4), %eax
Ltmp26:
	.file	10 "/rustc/a74d1862d4d87a56244958416fd05976c58ca1a8/src/libcore/num/mod.rs"
	.loc	10 3632 30 is_stmt 1
	leaq	1(%rcx), %r14
Ltmp27:
	.loc	6 1055 52
	xorl	%edx, %edx
	btl	%ecx, %eax
	setb	%dl
Ltmp28:
	.loc	4 0 0 is_stmt 0
	movl	%edx, -44(%rbp)
Ltmp29:
	.file	11 "/rustc/a74d1862d4d87a56244958416fd05976c58ca1a8/src/libcore/macros/mod.rs"
	.loc	11 415 49 is_stmt 1
	leaq	-44(%rbp), %rax
Ltmp30:
	movq	%rax, -64(%rbp)
	movq	__ZN4core3fmt3num3imp52_$LT$impl$u20$core..fmt..Display$u20$for$u20$i32$GT$3fmt17he2ccc2060d52a2ceE@GOTPCREL(%rip), %rax
	movq	%rax, -56(%rbp)
Ltmp31:
	.loc	2 328 9
	leaq	l___unnamed_3(%rip), %rax
	movq	%rax, -112(%rbp)
	movq	$1, -104(%rbp)
	movq	$0, -96(%rbp)
	leaq	-64(%rbp), %rax
	movq	%rax, -80(%rbp)
	movq	$1, -72(%rbp)
Ltmp32:
	.loc	11 415 34
	movq	%r15, %rdi
Ltmp33:
	leaq	-112(%rbp), %rsi
	callq	__ZN4core3fmt9Formatter9write_fmt17h3dc2bf45afed3069E
Ltmp34:
	.loc	4 0 0 is_stmt 0
	movq	%r14, %rcx
Ltmp35:
	.loc	4 1460 55 is_stmt 1
	testb	%al, %al
	je	LBB1_1
Ltmp36:
	.loc	4 0 55 is_stmt 0
	movb	$1, %al
	jmp	LBB1_6
Ltmp37:
LBB1_2:
	xorl	%eax, %eax
Ltmp38:
LBB1_6:
	.loc	2 1973 84 is_stmt 1
	addq	$72, %rsp
	popq	%rbx
	popq	%r12
	popq	%r13
	popq	%r14
	popq	%r15
Ltmp39:
	popq	%rbp
	retq
LBB1_7:
Ltmp40:
	.loc	11 10 9
	leaq	l___unnamed_4(%rip), %rdi
Ltmp41:
	leaq	l___unnamed_5(%rip), %rdx
	movl	$43, %esi
	callq	__ZN4core9panicking5panic17h736ee47a631475c0E
Ltmp42:
Lfunc_end1:
	.cfi_endproc

	.p2align	4, 0x90
__ZN4core3fmt3num52_$LT$impl$u20$core..fmt..Debug$u20$for$u20$usize$GT$3fmt17hd9d2912101c14e43E:
Lfunc_begin2:
	.loc	3 148 0
	.cfi_startproc
	pushq	%rbp
	.cfi_def_cfa_offset 16
	.cfi_offset %rbp, -16
	movq	%rsp, %rbp
	.cfi_def_cfa_register %rbp
	pushq	%r14
	pushq	%rbx
	.cfi_offset %rbx, -32
	.cfi_offset %r14, -24
	movq	%rsi, %rbx
Ltmp43:
	movq	%rdi, %r14
Ltmp44:
	.loc	3 149 20 prologue_end
	movq	%rsi, %rdi
	callq	__ZN4core3fmt9Formatter15debug_lower_hex17h8530fbaeba13f4d9E
	.loc	3 149 17 is_stmt 0
	testb	%al, %al
	je	LBB2_1
Ltmp45:
	.loc	3 150 21 is_stmt 1
	movq	%r14, %rdi
	movq	%rbx, %rsi
	popq	%rbx
Ltmp46:
	popq	%r14
Ltmp47:
	popq	%rbp
	jmp	__ZN4core3fmt3num55_$LT$impl$u20$core..fmt..LowerHex$u20$for$u20$usize$GT$3fmt17hbf7dc8c1d7fa021dE
LBB2_1:
Ltmp48:
	.loc	3 151 27
	movq	%rbx, %rdi
	callq	__ZN4core3fmt9Formatter15debug_upper_hex17hf8fda15ec43a1e68E
	.loc	3 154 21
	movq	%r14, %rdi
	movq	%rbx, %rsi
	.loc	3 151 24
	testb	%al, %al
	je	LBB2_4
Ltmp49:
	.loc	3 152 21
	popq	%rbx
Ltmp50:
	popq	%r14
Ltmp51:
	popq	%rbp
	jmp	__ZN4core3fmt3num55_$LT$impl$u20$core..fmt..UpperHex$u20$for$u20$usize$GT$3fmt17hf20a4f369caf234bE
LBB2_4:
Ltmp52:
	.loc	3 154 21
	popq	%rbx
Ltmp53:
	popq	%r14
Ltmp54:
	popq	%rbp
	jmp	__ZN4core3fmt3num3imp54_$LT$impl$u20$core..fmt..Display$u20$for$u20$usize$GT$3fmt17h89ce3155a90f2edfE
Ltmp55:
Lfunc_end2:
	.cfi_endproc

	.p2align	4, 0x90
__ZN4core3ptr13drop_in_place17h7bc710ab44c015b9E:
Lfunc_begin3:
	.file	12 "/rustc/a74d1862d4d87a56244958416fd05976c58ca1a8/src/libcore/ptr/mod.rs"
	.loc	12 178 0
	.cfi_startproc
	pushq	%rbp
	.cfi_def_cfa_offset 16
	.cfi_offset %rbp, -16
	movq	%rsp, %rbp
	.cfi_def_cfa_register %rbp
Ltmp56:
	.loc	12 178 1 prologue_end
	popq	%rbp
	retq
Ltmp57:
Lfunc_end3:
	.cfi_endproc

	.p2align	4, 0x90
__ZN5alloc7raw_vec19RawVec$LT$T$C$A$GT$11allocate_in28_$u7b$$u7b$closure$u7d$$u7d$17hfe8a5abc42a19b40E:
Lfunc_begin4:
	.file	13 "/rustc/a74d1862d4d87a56244958416fd05976c58ca1a8/src/liballoc/raw_vec.rs"
	.loc	13 152 0
	.cfi_startproc
	pushq	%rbp
	.cfi_def_cfa_offset 16
	.cfi_offset %rbp, -16
	movq	%rsp, %rbp
	.cfi_def_cfa_register %rbp
Ltmp58:
	.loc	13 152 71 prologue_end
	callq	__ZN5alloc5alloc18handle_alloc_error17hbc0ab0ed90816c07E
Ltmp59:
Lfunc_end4:
	.cfi_endproc

	.globl	__ZN10bit_matrix6matrix9BitMatrix3new17h501e68ded15fb169E
	.p2align	4, 0x90
__ZN10bit_matrix6matrix9BitMatrix3new17h501e68ded15fb169E:
Lfunc_begin5:
	.file	14 "/Users/yingyuhang/.cargo/registry/src/github.com-1ecc6299db9ec823/bit-matrix-0.6.0/src/matrix.rs"
	.loc	14 30 0
	.cfi_startproc
	pushq	%rbp
	.cfi_def_cfa_offset 16
	.cfi_offset %rbp, -16
	movq	%rsp, %rbp
	.cfi_def_cfa_register %rbp
Ltmp60:
	pushq	%r15
	pushq	%r14
	pushq	%r12
	pushq	%rbx
	.cfi_offset %rbx, -48
	.cfi_offset %r12, -40
	.cfi_offset %r14, -32
	.cfi_offset %r15, -24
	.file	15 "/Users/yingyuhang/.cargo/registry/src/github.com-1ecc6299db9ec823/bit-matrix-0.6.0/src/util.rs"
	.loc	15 11 6 prologue_end
	movq	%rdx, %rax
	addq	$32, %rax
	jb	LBB5_7
Ltmp61:
	.loc	15 0 6 is_stmt 0
	movq	%rdx, %r14
Ltmp62:
	.loc	15 11 5
	decq	%rax
	andq	$-32, %rax
Ltmp63:
	.loc	14 32 40 is_stmt 1
	mulq	%rsi
	jo	LBB5_6
Ltmp64:
	.loc	14 0 40 is_stmt 0
	movq	%rdi, %rbx
	movq	%rax, %r15
Ltmp65:
	.file	16 "/rustc/a74d1862d4d87a56244958416fd05976c58ca1a8/src/liballoc/alloc.rs"
	.loc	16 170 16 is_stmt 1
	testq	%rax, %rax
	.loc	16 170 13 is_stmt 0
	je	LBB5_3
Ltmp66:
	.loc	13 0 0
	movq	%r15, %r12
	shrq	$3, %r12
Ltmp67:
	.loc	16 161 5 is_stmt 1
	movl	$4, %esi
Ltmp68:
	movq	%r12, %rdi
	callq	___rust_alloc_zeroed
Ltmp69:
	.file	17 "/rustc/a74d1862d4d87a56244958416fd05976c58ca1a8/src/libcore/result.rs"
	.loc	17 852 13
	testq	%rax, %rax
	jne	LBB5_5
Ltmp70:
	.loc	17 853 23
	movl	$4, %esi
	movq	%r12, %rdi
	callq	__ZN5alloc7raw_vec19RawVec$LT$T$C$A$GT$11allocate_in28_$u7b$$u7b$closure$u7d$$u7d$17hfe8a5abc42a19b40E
Ltmp71:
LBB5_3:
	.loc	17 0 23 is_stmt 0
	movl	$4, %eax
Ltmp72:
LBB5_5:
	movq	%r15, %rcx
	shrq	$5, %rcx
Ltmp73:
	.loc	14 31 9 is_stmt 1
	movq	%rax, (%rbx)
	movq	%rcx, 8(%rbx)
	movq	%rcx, 16(%rbx)
	movq	%r15, 24(%rbx)
	movq	%r14, 32(%rbx)
	.loc	14 35 6
	movq	%rbx, %rax
	popq	%rbx
	popq	%r12
	popq	%r14
Ltmp74:
	popq	%r15
Ltmp75:
	popq	%rbp
	retq
Ltmp76:
LBB5_7:
	.loc	15 11 6
	leaq	_str.5(%rip), %rdi
	leaq	l___unnamed_6(%rip), %rdx
Ltmp77:
	movl	$28, %esi
Ltmp78:
	callq	__ZN4core9panicking5panic17h736ee47a631475c0E
Ltmp79:
LBB5_6:
	.loc	14 32 40
	leaq	_str.6(%rip), %rdi
	leaq	l___unnamed_7(%rip), %rdx
	movl	$33, %esi
Ltmp80:
	callq	__ZN4core9panicking5panic17h736ee47a631475c0E
Ltmp81:
Lfunc_end5:
	.cfi_endproc
	.file	18 "/rustc/a74d1862d4d87a56244958416fd05976c58ca1a8/src/liballoc/macros.rs"

	.globl	__ZN10bit_matrix6matrix9BitMatrix4size17h2d799e5ac0e7da5bE
	.p2align	4, 0x90
__ZN10bit_matrix6matrix9BitMatrix4size17h2d799e5ac0e7da5bE:
Lfunc_begin6:
	.loc	14 49 0
	.cfi_startproc
	pushq	%rbp
	.cfi_def_cfa_offset 16
	.cfi_offset %rbp, -16
	movq	%rsp, %rbp
	.cfi_def_cfa_register %rbp
Ltmp82:
	.loc	14 40 12 prologue_end
	movq	32(%rdi), %rcx
Ltmp83:
	testq	%rcx, %rcx
	.loc	14 40 9 is_stmt 0
	je	LBB6_1
Ltmp84:
	.loc	15 11 6 is_stmt 1
	movq	%rcx, %rsi
	addq	$32, %rsi
	jb	LBB6_6
Ltmp85:
	.loc	15 11 5 is_stmt 0
	decq	%rsi
Ltmp86:
	.loc	14 43 30 is_stmt 1
	shrq	$5, %rsi
Ltmp87:
	.loc	14 44 13
	je	LBB6_7
Ltmp88:
	.loc	5 1966 55
	movq	16(%rdi), %rax
Ltmp89:
	.loc	14 44 13
	xorl	%edx, %edx
	divq	%rsi
Ltmp90:
	.loc	14 51 6
	movq	%rcx, %rdx
	popq	%rbp
	retq
Ltmp91:
LBB6_1:
	.loc	14 0 6 is_stmt 0
	xorl	%eax, %eax
	.loc	14 51 6
	movq	%rcx, %rdx
	popq	%rbp
	retq
Ltmp92:
LBB6_6:
	.loc	15 11 6 is_stmt 1
	leaq	_str.5(%rip), %rdi
Ltmp93:
	leaq	l___unnamed_6(%rip), %rdx
	movl	$28, %esi
	callq	__ZN4core9panicking5panic17h736ee47a631475c0E
Ltmp94:
LBB6_7:
	.loc	14 44 13
	leaq	_str.3(%rip), %rdi
Ltmp95:
	leaq	l___unnamed_8(%rip), %rdx
	movl	$25, %esi
Ltmp96:
	callq	__ZN4core9panicking5panic17h736ee47a631475c0E
Ltmp97:
Lfunc_end6:
	.cfi_endproc

	.globl	__ZN10bit_matrix6matrix9BitMatrix4grow17hd3a0c362e986460aE
	.p2align	4, 0x90
__ZN10bit_matrix6matrix9BitMatrix4grow17hd3a0c362e986460aE:
Lfunc_begin7:
	.loc	14 75 0
	.cfi_startproc
	pushq	%rbp
	.cfi_def_cfa_offset 16
	.cfi_offset %rbp, -16
	movq	%rsp, %rbp
	.cfi_def_cfa_register %rbp
Ltmp98:
	pushq	%r15
	pushq	%r14
	pushq	%r13
	pushq	%r12
	pushq	%rbx
	pushq	%rax
	.cfi_offset %rbx, -56
	.cfi_offset %r12, -48
	.cfi_offset %r13, -40
	.cfi_offset %r14, -32
	.cfi_offset %r15, -24
	.loc	14 76 44 prologue_end
	movq	32(%rdi), %rax
Ltmp99:
	.loc	15 11 6
	addq	$32, %rax
Ltmp100:
	jb	LBB7_61
Ltmp101:
	.loc	15 0 6 is_stmt 0
	movl	%edx, %r8d
Ltmp102:
	.loc	15 11 5
	decq	%rax
	andq	$-32, %rax
Ltmp103:
	.loc	14 76 27 is_stmt 1
	mulq	%rsi
	jo	LBB7_60
Ltmp104:
	.loc	14 0 27 is_stmt 0
	movq	%rdi, %r15
Ltmp105:
	movq	%rax, %r14
Ltmp106:
	.loc	4 1264 25 is_stmt 1
	movq	24(%rdi), %rcx
Ltmp107:
	.loc	10 3632 30
	addq	%rcx, %r14
Ltmp108:
	.loc	9 348 13
	jb	LBB7_62
Ltmp109:
	.loc	4 241 8
	movl	%r14d, %eax
	andl	$31, %eax
	.loc	4 241 5 is_stmt 0
	movq	%r14, %r12
	shrq	$5, %r12
	cmpq	$1, %rax
	sbbq	$-1, %r12
Ltmp110:
	.loc	4 241 8
	xorl	%edi, %edi
	testb	$31, %cl
	setne	%dil
	.loc	4 241 5
	movq	%rcx, %rax
	shrq	$5, %rax
	addq	%rax, %rdi
Ltmp111:
	.loc	4 241 8
	testb	$31, %cl
Ltmp112:
	.loc	4 1270 9 is_stmt 1
	je	LBB7_8
Ltmp113:
	.file	19 "/rustc/a74d1862d4d87a56244958416fd05976c58ca1a8/src/libcore/ops/bit.rs"
	.loc	19 515 17
	negb	%cl
	movl	$-1, %edx
	shrl	%cl, %edx
Ltmp114:
	.loc	4 1272 13
	testb	%r8b, %r8b
	je	LBB7_8
Ltmp115:
	.loc	4 1273 44
	movq	%rdi, %rax
	subq	$1, %rax
	jb	LBB7_56
Ltmp116:
	.loc	5 1973 63
	movq	16(%r15), %rsi
Ltmp117:
	.loc	8 2878 14
	cmpq	%rax, %rsi
	jbe	LBB7_63
Ltmp118:
	.loc	5 850 19
	movq	(%r15), %rcx
Ltmp119:
	.loc	19 51 34
	notl	%edx
Ltmp120:
	.loc	4 1274 17
	orl	%edx, (%rcx,%rax,4)
Ltmp121:
LBB7_8:
	.loc	4 0 0 is_stmt 0
	movzbl	%r8b, %r13d
	negl	%r13d
Ltmp122:
	.loc	4 1281 33 is_stmt 1
	movq	16(%r15), %rsi
Ltmp123:
	.loc	6 951 9
	cmpq	%r12, %rsi
	.loc	6 0 0 is_stmt 0
	movq	%rsi, %rax
	cmovaq	%r12, %rax
Ltmp124:
	.loc	6 1137 52 is_stmt 1
	cmpq	%rax, %rdi
Ltmp125:
	.loc	7 211 9
	jae	LBB7_10
Ltmp126:
	.p2align	4, 0x90
LBB7_22:
	.loc	8 2878 14
	cmpq	%rdi, %rsi
	jbe	LBB7_64
Ltmp127:
	.loc	5 850 19
	movq	(%r15), %rcx
Ltmp128:
	.loc	4 1283 13
	movl	%r13d, (%rcx,%rdi,4)
Ltmp129:
	.loc	10 3632 30
	incq	%rdi
Ltmp130:
	.loc	4 0 0 is_stmt 0
	movq	16(%r15), %rsi
Ltmp131:
	.loc	6 1137 52 is_stmt 1
	cmpq	%rax, %rdi
Ltmp132:
	.loc	7 211 9
	jb	LBB7_22
Ltmp133:
LBB7_10:
	.loc	4 1287 12
	subq	%rsi, %r12
Ltmp134:
	.loc	4 1287 9 is_stmt 0
	jbe	LBB7_51
Ltmp135:
	.loc	4 1288 26 is_stmt 1
	jb	LBB7_57
Ltmp136:
	.loc	13 280 12
	movq	8(%r15), %rcx
Ltmp137:
	.loc	10 3343 17
	movq	%rcx, %rax
Ltmp138:
	subq	%rsi, %rax
Ltmp139:
	.loc	13 378 9
	cmpq	%r12, %rax
Ltmp140:
	.loc	13 280 9
	jae	LBB7_34
Ltmp141:
	.loc	10 3632 30
	movq	%rsi, %rax
	addq	%r12, %rax
Ltmp142:
	.loc	9 540 13
	jb	LBB7_32
Ltmp143:
	.loc	13 414 26
	leaq	(%rcx,%rcx), %rdx
Ltmp144:
	.loc	6 1017 9
	cmpq	%rax, %rdx
	.loc	6 0 0 is_stmt 0
	cmovaq	%rdx, %rax
Ltmp145:
	movl	$4, %edx
Ltmp146:
	.file	20 "/rustc/a74d1862d4d87a56244958416fd05976c58ca1a8/src/libcore/alloc/layout.rs"
	.loc	20 250 85 is_stmt 1
	xorl	%r8d, %r8d
Ltmp147:
	.loc	10 3688 26
	mulq	%rdx
Ltmp148:
	movq	%rax, %rbx
Ltmp149:
	.loc	10 0 26 is_stmt 0
	seto	%dl
Ltmp150:
	.loc	20 250 85 is_stmt 1
	setno	%dil
Ltmp151:
	.loc	13 200 9
	movq	%rcx, %rax
	.loc	13 200 40 is_stmt 0
	testq	%rcx, %rcx
	.loc	13 200 9
	je	LBB7_16
Ltmp152:
	.loc	13 0 9
	movq	(%r15), %rax
Ltmp153:
LBB7_16:
	.loc	17 611 13 is_stmt 1
	testb	%dl, %dl
	jne	LBB7_32
Ltmp154:
	.loc	13 489 25
	testq	%rax, %rax
	je	LBB7_26
Ltmp155:
	.loc	13 0 0 is_stmt 0
	shlq	$2, %rcx
Ltmp156:
	.loc	16 205 12 is_stmt 1
	cmpq	%rbx, %rcx
	.loc	16 205 9 is_stmt 0
	je	LBB7_29
Ltmp157:
	.loc	16 211 42 is_stmt 1
	testq	%rcx, %rcx
	je	LBB7_20
Ltmp158:
	.loc	16 124 5
	movl	$4, %edx
	movq	%rax, %rdi
	movq	%rcx, %rsi
	movq	%rbx, %rcx
Ltmp159:
	callq	___rust_realloc
Ltmp160:
	.loc	17 611 13
	testq	%rax, %rax
	jne	LBB7_30
	jmp	LBB7_33
Ltmp161:
LBB7_34:
	.file	21 "/rustc/a74d1862d4d87a56244958416fd05976c58ca1a8/src/libcore/iter/adapters/mod.rs"
	.loc	21 2101 12
	testq	%r12, %r12
	.loc	21 2101 9 is_stmt 0
	je	LBB7_50
Ltmp162:
	.loc	5 850 19 is_stmt 1
	movq	(%r15), %rax
Ltmp163:
	.file	22 "/rustc/a74d1862d4d87a56244958416fd05976c58ca1a8/src/libcore/ptr/mut_ptr.rs"
	.loc	22 152 9
	leaq	(%rax,%rsi,4), %r9
Ltmp164:
	.file	23 "/rustc/a74d1862d4d87a56244958416fd05976c58ca1a8/src/libcore/iter/traits/iterator.rs"
	.loc	23 1878 32
	cmpq	$8, %r12
	jb	LBB7_37
Ltmp165:
LBB7_38:
	movq	%r12, %r8
	andq	$-8, %r8
	movd	%r13d, %xmm0
	pshufd	$0, %xmm0, %xmm0
	leaq	-8(%r8), %rcx
	movq	%rcx, %rdi
	shrq	$3, %rdi
	incq	%rdi
	movl	%edi, %edx
	andl	$7, %edx
	cmpq	$56, %rcx
	jae	LBB7_40
Ltmp166:
	.loc	23 0 32 is_stmt 0
	xorl	%ecx, %ecx
	testq	%rdx, %rdx
	jne	LBB7_43
	jmp	LBB7_45
Ltmp167:
LBB7_40:
	.loc	23 1878 32
	subq	%rdx, %rdi
	leaq	240(%rax,%rsi,4), %rbx
	xorl	%ecx, %ecx
Ltmp168:
	.p2align	4, 0x90
LBB7_41:
	.loc	12 836 42 is_stmt 1
	movdqu	%xmm0, -240(%rbx,%rcx,4)
	movdqu	%xmm0, -224(%rbx,%rcx,4)
	movdqu	%xmm0, -208(%rbx,%rcx,4)
	movdqu	%xmm0, -192(%rbx,%rcx,4)
	movdqu	%xmm0, -176(%rbx,%rcx,4)
	movdqu	%xmm0, -160(%rbx,%rcx,4)
	movdqu	%xmm0, -144(%rbx,%rcx,4)
	movdqu	%xmm0, -128(%rbx,%rcx,4)
	movdqu	%xmm0, -112(%rbx,%rcx,4)
	movdqu	%xmm0, -96(%rbx,%rcx,4)
	movdqu	%xmm0, -80(%rbx,%rcx,4)
	movdqu	%xmm0, -64(%rbx,%rcx,4)
	movdqu	%xmm0, -48(%rbx,%rcx,4)
	movdqu	%xmm0, -32(%rbx,%rcx,4)
	movdqu	%xmm0, -16(%rbx,%rcx,4)
	movdqu	%xmm0, (%rbx,%rcx,4)
	addq	$64, %rcx
	addq	$-8, %rdi
	jne	LBB7_41
Ltmp169:
	.loc	12 0 42 is_stmt 0
	testq	%rdx, %rdx
	je	LBB7_45
Ltmp170:
LBB7_43:
	addq	%rsi, %rcx
	leaq	16(%rax,%rcx,4), %rax
	negq	%rdx
Ltmp171:
	.p2align	4, 0x90
LBB7_44:
	.loc	12 836 42
	movdqu	%xmm0, -16(%rax)
	movdqu	%xmm0, (%rax)
	addq	$32, %rax
	incq	%rdx
	jne	LBB7_44
Ltmp172:
LBB7_45:
	.loc	23 1878 32 is_stmt 1
	cmpq	%r8, %r12
	je	LBB7_49
Ltmp173:
	.loc	23 0 32 is_stmt 0
	movq	%r12, %rax
	subq	%r8, %rax
	leaq	(%r9,%r8,4), %r9
Ltmp174:
	jmp	LBB7_47
Ltmp175:
LBB7_26:
	movb	%dil, %r8b
	shlq	$2, %r8
Ltmp176:
	.loc	16 170 16 is_stmt 1
	testq	%rbx, %rbx
	.loc	16 170 13 is_stmt 0
	je	LBB7_28
Ltmp177:
	.loc	16 80 5 is_stmt 1
	movq	%rbx, %rdi
	movq	%r8, %rsi
	callq	___rust_alloc
Ltmp178:
LBB7_29:
	.loc	17 611 13
	testq	%rax, %rax
	je	LBB7_33
Ltmp179:
LBB7_30:
	.loc	5 2114 53
	movq	16(%r15), %rsi
Ltmp180:
LBB7_31:
	.loc	13 387 9
	movq	%rax, (%r15)
Ltmp181:
	.loc	13 383 9
	shrq	$2, %rbx
Ltmp182:
	.loc	13 388 9
	movq	%rbx, 8(%r15)
Ltmp183:
	.loc	22 152 9
	leaq	(%rax,%rsi,4), %r9
Ltmp184:
	.loc	23 1878 32
	cmpq	$8, %r12
	jae	LBB7_38
Ltmp185:
LBB7_37:
	.loc	23 0 32 is_stmt 0
	movq	%r12, %rax
Ltmp186:
LBB7_47:
	xorl	%ecx, %ecx
Ltmp187:
	.p2align	4, 0x90
LBB7_48:
	.loc	12 836 42 is_stmt 1
	movl	%r13d, (%r9,%rcx,4)
Ltmp188:
	.loc	21 2097 20
	incq	%rcx
	cmpq	%rcx, %rax
Ltmp189:
	.loc	23 1878 32
	jne	LBB7_48
Ltmp190:
LBB7_49:
	addq	%r12, %rsi
Ltmp191:
LBB7_50:
	.loc	21 0 0 is_stmt 0
	movq	%rsi, 16(%r15)
Ltmp192:
LBB7_51:
	.loc	4 1293 9 is_stmt 1
	movq	%r14, 24(%r15)
Ltmp193:
	.loc	4 443 12
	testb	$31, %r14b
	.loc	4 443 9 is_stmt 0
	je	LBB7_59
Ltmp194:
	.loc	4 0 9
	movl	$-1, %eax
Ltmp195:
	.file	24 "/rustc/a74d1862d4d87a56244958416fd05976c58ca1a8/src/libcore/ops/arith.rs"
	.loc	24 194 45 is_stmt 1
	movl	%r14d, %ecx
	shll	%cl, %eax
Ltmp196:
	.loc	4 446 37
	movq	%rsi, %rdi
	subq	$1, %rdi
	jb	LBB7_55
Ltmp197:
	.loc	8 2878 14
	cmpq	%rdi, %rsi
	jbe	LBB7_54
Ltmp198:
	.loc	4 0 0 is_stmt 0
	notl	%eax
Ltmp199:
	.loc	5 850 19 is_stmt 1
	movq	(%r15), %rcx
Ltmp200:
	.loc	4 456 13
	andl	%eax, (%rcx,%rdi,4)
Ltmp201:
LBB7_59:
	.loc	14 77 6
	addq	$8, %rsp
	popq	%rbx
	popq	%r12
	popq	%r13
	popq	%r14
	popq	%r15
Ltmp202:
	popq	%rbp
	retq
LBB7_28:
Ltmp203:
	.loc	13 0 0 is_stmt 0
	movq	%r8, %rax
Ltmp204:
	.loc	17 611 13 is_stmt 1
	testq	%rax, %rax
	jne	LBB7_30
Ltmp205:
LBB7_33:
	.loc	13 269 47
	movl	$4, %esi
	movq	%rbx, %rdi
	callq	__ZN5alloc5alloc18handle_alloc_error17hbc0ab0ed90816c07E
Ltmp206:
LBB7_20:
	.loc	16 170 16
	testq	%rbx, %rbx
	.loc	16 170 13 is_stmt 0
	je	LBB7_21
Ltmp207:
	.loc	16 80 5 is_stmt 1
	movl	$4, %esi
	movq	%rbx, %rdi
	callq	___rust_alloc
Ltmp208:
	.loc	17 611 13
	testq	%rax, %rax
	jne	LBB7_30
	jmp	LBB7_33
Ltmp209:
LBB7_21:
	.loc	17 0 13 is_stmt 0
	movl	$4, %eax
Ltmp210:
	jmp	LBB7_31
Ltmp211:
LBB7_64:
	.loc	8 2878 14 is_stmt 1
	leaq	l___unnamed_9(%rip), %rdx
	callq	__ZN4core9panicking18panic_bounds_check17habe69d236c55e3edE
Ltmp212:
LBB7_61:
	.loc	15 11 6
	leaq	_str.5(%rip), %rdi
Ltmp213:
	leaq	l___unnamed_6(%rip), %rdx
Ltmp214:
	movl	$28, %esi
Ltmp215:
	callq	__ZN4core9panicking5panic17h736ee47a631475c0E
Ltmp216:
LBB7_60:
	.loc	14 76 27
	leaq	_str.6(%rip), %rdi
Ltmp217:
	leaq	l___unnamed_10(%rip), %rdx
	movl	$33, %esi
Ltmp218:
	callq	__ZN4core9panicking5panic17h736ee47a631475c0E
Ltmp219:
LBB7_62:
	.loc	9 349 21
	leaq	l___unnamed_11(%rip), %rdi
	leaq	l___unnamed_12(%rip), %rdx
	movl	$17, %esi
Ltmp220:
	callq	__ZN4core6option13expect_failed17h68bd601d867bb8d1E
Ltmp221:
LBB7_55:
	.loc	4 446 37
	leaq	_str.0(%rip), %rdi
	leaq	l___unnamed_13(%rip), %rdx
	movl	$33, %esi
Ltmp222:
	callq	__ZN4core9panicking5panic17h736ee47a631475c0E
Ltmp223:
LBB7_54:
	.loc	8 2878 14
	leaq	l___unnamed_14(%rip), %rdx
	callq	__ZN4core9panicking18panic_bounds_check17habe69d236c55e3edE
Ltmp224:
LBB7_57:
	.loc	4 1288 26
	leaq	_str.0(%rip), %rdi
	leaq	l___unnamed_15(%rip), %rdx
	movl	$33, %esi
	callq	__ZN4core9panicking5panic17h736ee47a631475c0E
Ltmp225:
LBB7_32:
	.loc	13 268 38
	callq	__ZN5alloc7raw_vec17capacity_overflow17h023f34f5bc34c61fE
Ltmp226:
LBB7_56:
	.loc	4 1273 44
	leaq	_str.0(%rip), %rdi
Ltmp227:
	leaq	l___unnamed_16(%rip), %rdx
Ltmp228:
	movl	$33, %esi
Ltmp229:
	callq	__ZN4core9panicking5panic17h736ee47a631475c0E
Ltmp230:
LBB7_63:
	.loc	8 2878 14
	leaq	l___unnamed_17(%rip), %rdx
Ltmp231:
	movq	%rax, %rdi
Ltmp232:
	callq	__ZN4core9panicking18panic_bounds_check17habe69d236c55e3edE
Ltmp233:
Lfunc_end7:
	.cfi_endproc

	.globl	__ZN10bit_matrix6matrix9BitMatrix8truncate17hdc3a8ad9b50d24b8E
	.p2align	4, 0x90
__ZN10bit_matrix6matrix9BitMatrix8truncate17hdc3a8ad9b50d24b8E:
Lfunc_begin8:
	.loc	14 80 0
	.cfi_startproc
	pushq	%rbp
	.cfi_def_cfa_offset 16
	.cfi_offset %rbp, -16
	movq	%rsp, %rbp
	.cfi_def_cfa_register %rbp
Ltmp234:
	.loc	14 81 48 prologue_end
	movq	32(%rdi), %rax
Ltmp235:
	.loc	15 11 6
	addq	$32, %rax
Ltmp236:
	jb	LBB8_7
Ltmp237:
	.loc	15 11 5 is_stmt 0
	decq	%rax
	andq	$-32, %rax
Ltmp238:
	.loc	14 81 31 is_stmt 1
	mulq	%rsi
	jo	LBB8_6
Ltmp239:
	.loc	4 1160 12
	cmpq	%rax, 24(%rdi)
	.loc	4 1160 9 is_stmt 0
	jbe	LBB8_5
Ltmp240:
	.loc	4 1161 13 is_stmt 1
	movq	%rax, 24(%rdi)
Ltmp241:
	.loc	4 241 5
	shrq	$5, %rax
Ltmp242:
	.loc	5 740 16
	cmpq	%rax, 16(%rdi)
	.loc	5 740 13 is_stmt 0
	jb	LBB8_5
Ltmp243:
	.loc	5 745 13 is_stmt 1
	movq	%rax, 16(%rdi)
Ltmp244:
LBB8_5:
	.loc	14 82 6
	popq	%rbp
	retq
Ltmp245:
LBB8_7:
	.loc	15 11 6
	leaq	_str.5(%rip), %rdi
Ltmp246:
	leaq	l___unnamed_6(%rip), %rdx
	movl	$28, %esi
Ltmp247:
	callq	__ZN4core9panicking5panic17h736ee47a631475c0E
Ltmp248:
LBB8_6:
	.loc	14 81 31
	leaq	_str.6(%rip), %rdi
Ltmp249:
	leaq	l___unnamed_18(%rip), %rdx
	movl	$33, %esi
Ltmp250:
	callq	__ZN4core9panicking5panic17h736ee47a631475c0E
Ltmp251:
Lfunc_end8:
	.cfi_endproc

	.globl	__ZN10bit_matrix6matrix9BitMatrix8iter_row17h6f05080cafd75e21E
	.p2align	4, 0x90
__ZN10bit_matrix6matrix9BitMatrix8iter_row17h6f05080cafd75e21E:
Lfunc_begin9:
	.loc	14 126 0
	.cfi_startproc
	pushq	%rbp
	.cfi_def_cfa_offset 16
	.cfi_offset %rbp, -16
	movq	%rsp, %rbp
	.cfi_def_cfa_register %rbp
	movq	%rdi, %r10
Ltmp252:
	.loc	14 161 41 prologue_end
	movq	32(%rsi), %r9
Ltmp253:
	.loc	15 11 6
	movq	%r9, %rdi
	addq	$32, %rdi
	jb	LBB9_10
Ltmp254:
	.loc	15 0 6 is_stmt 0
	movq	%rdx, %rcx
Ltmp255:
	.loc	15 11 5
	decq	%rdi
Ltmp256:
	.loc	14 161 24 is_stmt 1
	shrq	$5, %rdi
Ltmp257:
	.loc	14 164 41
	movq	%rdx, %rax
	mulq	%rdi
	jo	LBB9_8
Ltmp258:
	.loc	14 164 59 is_stmt 0
	incq	%rcx
Ltmp259:
	je	LBB9_7
Ltmp260:
	.loc	14 0 0
	movq	%rax, %r8
Ltmp261:
	.loc	14 164 59
	movq	%rcx, %rax
	mulq	%rdi
	jo	LBB9_8
Ltmp262:
	.loc	8 2916 12 is_stmt 1
	cmpq	%r8, %rax
	.loc	8 2916 9 is_stmt 0
	jb	LBB9_11
Ltmp263:
	.loc	14 0 0
	movq	16(%rsi), %rcx
Ltmp264:
	.loc	8 2918 19 is_stmt 1
	cmpq	%rax, %rcx
	.loc	8 2918 16 is_stmt 0
	jb	LBB9_6
Ltmp265:
	.loc	14 0 0
	movq	(%rsi), %rcx
Ltmp266:
	.file	25 "/rustc/a74d1862d4d87a56244958416fd05976c58ca1a8/src/libcore/ptr/const_ptr.rs"
	.loc	25 158 9 is_stmt 1
	leaq	(%rcx,%r8,4), %rcx
Ltmp267:
	.loc	8 2906 56
	subq	%r8, %rax
Ltmp268:
	.file	26 "/Users/yingyuhang/.cargo/registry/src/github.com-1ecc6299db9ec823/bit-matrix-0.6.0/src/row.rs"
	.loc	26 36 9
	movq	%rcx, (%r10)
	movq	%rax, 8(%r10)
	movq	$0, 16(%r10)
	movq	%r9, 24(%r10)
Ltmp269:
	.loc	14 128 6
	movq	%r10, %rax
Ltmp270:
	popq	%rbp
	retq
Ltmp271:
LBB9_8:
	.loc	14 0 0 is_stmt 0
	leaq	_str.6(%rip), %rdi
Ltmp272:
	leaq	l___unnamed_19(%rip), %rdx
	movl	$33, %esi
Ltmp273:
	callq	__ZN4core9panicking5panic17h736ee47a631475c0E
Ltmp274:
LBB9_10:
	.loc	15 11 6 is_stmt 1
	leaq	_str.5(%rip), %rdi
	leaq	l___unnamed_6(%rip), %rdx
Ltmp275:
	movl	$28, %esi
Ltmp276:
	callq	__ZN4core9panicking5panic17h736ee47a631475c0E
Ltmp277:
LBB9_7:
	.loc	14 164 59
	leaq	_str.5(%rip), %rdi
Ltmp278:
	leaq	l___unnamed_19(%rip), %rdx
	movl	$28, %esi
Ltmp279:
	callq	__ZN4core9panicking5panic17h736ee47a631475c0E
LBB9_11:
Ltmp280:
	.loc	8 2917 13
	leaq	l___unnamed_19(%rip), %rdx
	movq	%r8, %rdi
Ltmp281:
	movq	%rax, %rsi
Ltmp282:
	callq	__ZN4core5slice22slice_index_order_fail17h85b430a3a039f0a8E
Ltmp283:
LBB9_6:
	.loc	8 2919 13
	leaq	l___unnamed_19(%rip), %rdx
	movq	%rax, %rdi
Ltmp284:
	movq	%rcx, %rsi
Ltmp285:
	callq	__ZN4core5slice20slice_index_len_fail17h550a313151a85135E
Ltmp286:
Lfunc_end9:
	.cfi_endproc

	.globl	__ZN10bit_matrix6matrix9BitMatrix18transitive_closure17h8a7318c39c46fe45E
	.p2align	4, 0x90
__ZN10bit_matrix6matrix9BitMatrix18transitive_closure17h8a7318c39c46fe45E:
Lfunc_begin10:
	.loc	14 133 0
	.cfi_startproc
	pushq	%rbp
	.cfi_def_cfa_offset 16
	.cfi_offset %rbp, -16
	movq	%rsp, %rbp
	.cfi_def_cfa_register %rbp
Ltmp287:
	pushq	%r15
	pushq	%r14
	pushq	%r13
	pushq	%r12
	pushq	%rbx
	subq	$200, %rsp
	.cfi_offset %rbx, -56
	.cfi_offset %r12, -48
	.cfi_offset %r13, -40
	.cfi_offset %r14, -32
	.cfi_offset %r15, -24
	.loc	14 40 12 prologue_end
	movq	32(%rdi), %r13
Ltmp288:
	testq	%r13, %r13
	.loc	14 40 9 is_stmt 0
	je	LBB10_1
Ltmp289:
	.loc	15 11 6 is_stmt 1
	movq	%r13, %rcx
	addq	$32, %rcx
	jb	LBB10_43
Ltmp290:
	.loc	15 11 5 is_stmt 0
	decq	%rcx
Ltmp291:
	.loc	14 43 30 is_stmt 1
	shrq	$5, %rcx
Ltmp292:
	.loc	14 44 13
	je	LBB10_56
Ltmp293:
	.loc	5 1966 55
	movq	16(%rdi), %rax
Ltmp294:
	.loc	14 44 13
	xorl	%edx, %edx
	divq	%rcx
	jmp	LBB10_5
Ltmp295:
LBB10_1:
	.loc	14 0 13 is_stmt 0
	xorl	%eax, %eax
Ltmp296:
LBB10_5:
	leaq	32(%rdi), %rcx
Ltmp297:
	movq	%rcx, -56(%rbp)
	.loc	14 134 20 is_stmt 1
	movq	%rax, -136(%rbp)
Ltmp298:
	.loc	14 134 9 is_stmt 0
	cmpq	%r13, %rax
	jne	LBB10_11
Ltmp299:
	.loc	14 40 12 is_stmt 1
	testq	%r13, %r13
Ltmp300:
	.loc	7 211 9
	je	LBB10_12
Ltmp301:
	.loc	15 11 6
	leaq	32(%r13), %r14
	movl	$1, %esi
	xorl	%r11d, %r11d
	leaq	__ZN10bit_matrix5FALSE17hdeb1a5f3103b3f22E(%rip), %r15
	xorl	%ecx, %ecx
	movq	%r13, %r9
	movq	%rdi, -72(%rbp)
	movq	%r13, -64(%rbp)
Ltmp302:
	.p2align	4, 0x90
LBB10_8:
	.loc	15 11 5 is_stmt 0
	decq	%r14
Ltmp303:
	.loc	14 87 24 is_stmt 1
	shrq	$5, %r14
Ltmp304:
	.loc	14 89 63
	movq	%rcx, %rax
	mulq	%r14
	jo	LBB10_26
Ltmp305:
	.loc	14 0 0 is_stmt 0
	movq	%rax, %rbx
	movq	16(%rdi), %r10
Ltmp306:
	.loc	8 2918 19 is_stmt 1
	cmpq	%rax, %r10
	.loc	8 2918 16 is_stmt 0
	jb	LBB10_10
Ltmp307:
	.loc	14 177 67 is_stmt 1
	movq	%rsi, %rax
	mulq	%r14
	jo	LBB10_17
Ltmp308:
	.loc	14 0 0 is_stmt 0
	movq	%rax, %r8
Ltmp309:
	.loc	8 2926 12 is_stmt 1
	cmpq	%rbx, %rax
	.loc	8 2926 9 is_stmt 0
	jb	LBB10_55
Ltmp310:
	.loc	8 2928 19 is_stmt 1
	cmpq	%r8, %r10
	.loc	8 2928 16 is_stmt 0
	jb	LBB10_16
Ltmp311:
	.loc	14 0 0
	movq	(%rdi), %r12
Ltmp312:
	.loc	14 40 12 is_stmt 1
	testq	%r9, %r9
	.loc	14 40 9 is_stmt 0
	je	LBB10_19
Ltmp313:
	.loc	14 44 13 is_stmt 1
	testq	%r14, %r14
	je	LBB10_56
Ltmp314:
	movq	%r10, %rax
	xorl	%edx, %edx
	divq	%r14
Ltmp315:
	.loc	14 89 63
	mulq	%r14
Ltmp316:
	jo	LBB10_26
Ltmp317:
LBB10_23:
	.loc	8 2916 12
	cmpq	%r8, %rax
	.loc	8 2916 9 is_stmt 0
	jb	LBB10_57
Ltmp318:
	.loc	8 2918 19 is_stmt 1
	cmpq	%rax, %r10
	.loc	8 2918 16 is_stmt 0
	jb	LBB10_25
Ltmp319:
	.loc	8 0 16
	movq	%rsi, -96(%rbp)
Ltmp320:
	.loc	8 749 17 is_stmt 1
	testq	%r14, %r14
	.loc	8 749 9 is_stmt 0
	je	LBB10_58
Ltmp321:
	.loc	14 0 0
	leaq	(,%rcx,4), %rdx
	leaq	(%r12,%rbx,4), %rsi
Ltmp322:
	.loc	25 158 9 is_stmt 1
	leaq	(%r12,%r8,4), %r13
Ltmp323:
	.loc	8 2906 56
	subq	%r8, %rax
Ltmp324:
	.loc	15 0 0 is_stmt 0
	movq	%rcx, %r9
Ltmp325:
	movl	$1, %edi
Ltmp326:
	movq	%rcx, -80(%rbp)
	shll	%cl, %edi
Ltmp327:
	movl	%edi, -44(%rbp)
Ltmp328:
	shrq	$5, %r9
Ltmp329:
	movq	%r13, %rcx
	movq	%rsi, -104(%rbp)
Ltmp330:
	subq	%rsi, %rcx
Ltmp331:
	shrq	$2, %rcx
Ltmp332:
	.file	27 "/rustc/a74d1862d4d87a56244958416fd05976c58ca1a8/src/libcore/iter/adapters/chain.rs"
	.loc	27 37 13 is_stmt 1
	imulq	%r14, %rdx
	addq	%r12, %rdx
	movq	%rdx, -128(%rbp)
	movq	%r11, -88(%rbp)
	movq	%r11, %r8
	imulq	%r14, %r8
	leaq	48(%r12,%r8), %r10
	addq	%r12, %r8
	movq	%rcx, -112(%rbp)
Ltmp333:
	.p2align	4, 0x90
LBB10_29:
	testq	%r12, %r12
Ltmp334:
	je	LBB10_38
Ltmp335:
	testq	%rbx, %rbx
	je	LBB10_38
Ltmp336:
	.loc	6 951 9
	cmpq	%r14, %rbx
	.loc	6 0 0 is_stmt 0
	movq	%rbx, %rdi
	cmovaq	%r14, %rdi
Ltmp337:
	movq	%r12, %r11
Ltmp338:
	.loc	22 152 9 is_stmt 1
	leaq	(%r12,%rdi,4), %r12
Ltmp339:
	.loc	8 1068 77
	subq	%rdi, %rbx
Ltmp340:
	.loc	26 0 0 is_stmt 0
	movq	%r15, %rdx
Ltmp341:
	.loc	8 2851 12 is_stmt 1
	cmpq	%rdi, %r9
Ltmp342:
	.loc	26 58 13
	jae	LBB10_34
Ltmp343:
LBB10_33:
	.loc	26 0 13 is_stmt 0
	movl	-44(%rbp), %edx
Ltmp344:
	.loc	26 59 27 is_stmt 1
	testl	%edx, (%r11,%r9,4)
	.loc	26 59 24 is_stmt 0
	leaq	__ZN10bit_matrix4TRUE17hbff1c112e841285bE(%rip), %rdx
	cmoveq	%r15, %rdx
Ltmp345:
LBB10_34:
	.loc	14 138 20 is_stmt 1
	cmpb	$0, (%rdx)
	.loc	14 138 17 is_stmt 0
	je	LBB10_29
Ltmp346:
	.loc	6 951 9 is_stmt 1
	cmpq	%rcx, %rdi
	.loc	6 0 0 is_stmt 0
	cmovaq	%rcx, %rdi
Ltmp347:
	.file	28 "/rustc/a74d1862d4d87a56244958416fd05976c58ca1a8/src/libcore/iter/adapters/zip.rs"
	.loc	28 174 12 is_stmt 1
	testq	%rdi, %rdi
	.loc	28 174 9 is_stmt 0
	je	LBB10_29
Ltmp348:
	cmpq	$8, %rdi
	jae	LBB10_44
Ltmp349:
	.loc	28 0 9
	xorl	%esi, %esi
	jmp	LBB10_54
Ltmp350:
	.p2align	4, 0x90
LBB10_38:
	.loc	27 54 13 is_stmt 1
	testq	%r13, %r13
Ltmp351:
	je	LBB10_41
Ltmp352:
	testq	%rax, %rax
	je	LBB10_41
Ltmp353:
	.loc	6 951 9
	cmpq	%r14, %rax
	.loc	6 0 0 is_stmt 0
	movq	%rax, %rdi
	cmovaq	%r14, %rdi
Ltmp354:
	movq	%r13, %r11
Ltmp355:
	.loc	22 152 9 is_stmt 1
	leaq	(%r13,%rdi,4), %r13
Ltmp356:
	.loc	8 1068 77
	subq	%rdi, %rax
	xorl	%r12d, %r12d
Ltmp357:
	.loc	26 0 0 is_stmt 0
	movq	%r15, %rdx
Ltmp358:
	.loc	8 2851 12 is_stmt 1
	cmpq	%rdi, %r9
Ltmp359:
	.loc	26 58 13
	jb	LBB10_33
	jmp	LBB10_34
Ltmp360:
LBB10_44:
	.loc	26 0 13 is_stmt 0
	movq	-128(%rbp), %rsi
Ltmp361:
	.loc	28 174 9 is_stmt 1
	leaq	(%rsi,%rdi,4), %rdx
	cmpq	%r11, %rdx
	jbe	LBB10_47
Ltmp362:
	.loc	28 0 9 is_stmt 0
	leaq	(%r11,%rdi,4), %rdx
	.loc	28 174 9
	cmpq	%rdx, %rsi
	jae	LBB10_47
Ltmp363:
	.loc	28 0 9
	xorl	%esi, %esi
	jmp	LBB10_54
Ltmp364:
LBB10_47:
	.loc	28 174 9
	movq	%rdi, %rsi
	movabsq	$4611686018427387896, %rdx
	andq	%rdx, %rsi
	leaq	-8(%rsi), %rdx
	movq	%rdx, %r15
	shrq	$3, %r15
	incq	%r15
	movl	%r15d, %ecx
	andl	$1, %ecx
	testq	%rdx, %rdx
	movq	%rcx, -120(%rbp)
	je	LBB10_48
Ltmp365:
	subq	%rcx, %r15
Ltmp366:
	.loc	28 176 13 is_stmt 1
	xorl	%edx, %edx
Ltmp367:
	.p2align	4, 0x90
LBB10_50:
	.loc	14 140 33
	movups	-48(%r10,%rdx,4), %xmm0
	movups	-32(%r10,%rdx,4), %xmm1
	.loc	14 140 25 is_stmt 0
	movups	(%r11,%rdx,4), %xmm2
	orps	%xmm0, %xmm2
	movups	16(%r11,%rdx,4), %xmm0
	orps	%xmm1, %xmm0
	movups	32(%r11,%rdx,4), %xmm1
	movups	48(%r11,%rdx,4), %xmm3
	movups	%xmm2, (%r11,%rdx,4)
	movups	%xmm0, 16(%r11,%rdx,4)
	.loc	14 140 33
	movups	-16(%r10,%rdx,4), %xmm0
	.loc	14 140 25
	orps	%xmm1, %xmm0
	.loc	14 140 33
	movups	(%r10,%rdx,4), %xmm1
	.loc	14 140 25
	orps	%xmm3, %xmm1
	movups	%xmm0, 32(%r11,%rdx,4)
	movups	%xmm1, 48(%r11,%rdx,4)
Ltmp368:
	.loc	28 176 13 is_stmt 1
	addq	$16, %rdx
	addq	$-2, %r15
	jne	LBB10_50
Ltmp369:
	cmpq	$0, -120(%rbp)
	movq	-112(%rbp), %rcx
	je	LBB10_53
Ltmp370:
LBB10_52:
	.loc	28 0 13 is_stmt 0
	movq	-104(%rbp), %r15
Ltmp371:
	.loc	14 140 33 is_stmt 1
	movups	(%r15,%rdx,4), %xmm0
	movups	16(%r15,%rdx,4), %xmm1
	.loc	14 140 25 is_stmt 0
	movups	(%r11,%rdx,4), %xmm2
	orps	%xmm0, %xmm2
	movups	16(%r11,%rdx,4), %xmm0
	orps	%xmm1, %xmm0
	movups	%xmm2, (%r11,%rdx,4)
	movups	%xmm0, 16(%r11,%rdx,4)
Ltmp372:
LBB10_53:
	.loc	28 174 9 is_stmt 1
	cmpq	%rsi, %rdi
	leaq	__ZN10bit_matrix5FALSE17hdeb1a5f3103b3f22E(%rip), %r15
	je	LBB10_29
Ltmp373:
	.p2align	4, 0x90
LBB10_54:
	.loc	14 140 33
	movl	(%r8,%rsi,4), %edx
	.loc	14 140 25 is_stmt 0
	orl	%edx, (%r11,%rsi,4)
Ltmp374:
	.loc	28 176 13 is_stmt 1
	incq	%rsi
Ltmp375:
	.loc	28 174 12
	cmpq	%rdi, %rsi
	.loc	28 174 9 is_stmt 0
	jb	LBB10_54
	jmp	LBB10_29
Ltmp376:
LBB10_48:
	.loc	28 0 9
	xorl	%edx, %edx
Ltmp377:
	.loc	28 176 13 is_stmt 1
	cmpq	$0, -120(%rbp)
	movq	-112(%rbp), %rcx
	jne	LBB10_52
	jmp	LBB10_53
Ltmp378:
	.p2align	4, 0x90
LBB10_41:
	.loc	28 0 13 is_stmt 0
	movq	-64(%rbp), %r13
	movq	-96(%rbp), %rsi
Ltmp379:
	.loc	6 1137 52 is_stmt 1
	cmpq	%r13, %rsi
	movq	-72(%rbp), %rdi
Ltmp380:
	.loc	7 211 9
	je	LBB10_12
Ltmp381:
	.loc	7 0 9 is_stmt 0
	movq	-56(%rbp), %rax
Ltmp382:
	.loc	14 87 41 is_stmt 1
	movq	(%rax), %r9
Ltmp383:
	.loc	10 3632 30
	incq	%rsi
	movq	-80(%rbp), %rcx
Ltmp384:
	.loc	15 11 6
	incq	%rcx
	movq	-88(%rbp), %r11
	addq	$4, %r11
Ltmp385:
	movq	%r9, %r14
	addq	$32, %r14
	jae	LBB10_8
	jmp	LBB10_43
Ltmp386:
	.p2align	4, 0x90
LBB10_19:
	.loc	14 0 0 is_stmt 0
	xorl	%eax, %eax
Ltmp387:
	.loc	14 89 63 is_stmt 1
	mulq	%r14
Ltmp388:
	jno	LBB10_23
Ltmp389:
LBB10_26:
	.loc	14 0 0 is_stmt 0
	leaq	_str.6(%rip), %rdi
Ltmp390:
	leaq	l___unnamed_20(%rip), %rdx
	movl	$33, %esi
Ltmp391:
	callq	__ZN4core9panicking5panic17h736ee47a631475c0E
Ltmp392:
LBB10_12:
	.loc	14 145 6 is_stmt 1
	addq	$200, %rsp
	popq	%rbx
	popq	%r12
	popq	%r13
	popq	%r14
	popq	%r15
	popq	%rbp
	retq
LBB10_10:
Ltmp393:
	.loc	8 2919 13
	leaq	l___unnamed_21(%rip), %rdx
	movq	%rbx, %rdi
Ltmp394:
	movq	%r10, %rsi
Ltmp395:
	callq	__ZN4core5slice20slice_index_len_fail17h550a313151a85135E
Ltmp396:
LBB10_17:
	.loc	14 177 67
	leaq	_str.6(%rip), %rdi
Ltmp397:
	leaq	l___unnamed_22(%rip), %rdx
	movl	$33, %esi
Ltmp398:
	callq	__ZN4core9panicking5panic17h736ee47a631475c0E
Ltmp399:
LBB10_55:
	.loc	8 2927 13
	leaq	l___unnamed_22(%rip), %rdx
	movq	%rbx, %rdi
Ltmp400:
	movq	%r8, %rsi
Ltmp401:
	callq	__ZN4core5slice22slice_index_order_fail17h85b430a3a039f0a8E
Ltmp402:
LBB10_16:
	.loc	8 2929 13
	leaq	l___unnamed_22(%rip), %rdx
	movq	%r8, %rdi
Ltmp403:
	movq	%r10, %rsi
Ltmp404:
	callq	__ZN4core5slice20slice_index_len_fail17h550a313151a85135E
Ltmp405:
LBB10_57:
	.loc	8 2917 13
	leaq	l___unnamed_21(%rip), %rdx
	movq	%r8, %rdi
Ltmp406:
	movq	%rax, %rsi
Ltmp407:
	callq	__ZN4core5slice22slice_index_order_fail17h85b430a3a039f0a8E
Ltmp408:
LBB10_25:
	.loc	8 2919 13
	leaq	l___unnamed_21(%rip), %rdx
	movq	%rax, %rdi
Ltmp409:
	movq	%r10, %rsi
Ltmp410:
	callq	__ZN4core5slice20slice_index_len_fail17h550a313151a85135E
Ltmp411:
LBB10_58:
	.loc	11 10 9
	leaq	l___unnamed_23(%rip), %rdi
Ltmp412:
	leaq	l___unnamed_24(%rip), %rdx
	movl	$33, %esi
Ltmp413:
	callq	__ZN4core9panicking5panic17h736ee47a631475c0E
Ltmp414:
LBB10_43:
	.loc	14 0 0 is_stmt 0
	leaq	_str.5(%rip), %rdi
	leaq	l___unnamed_6(%rip), %rdx
	movl	$28, %esi
	callq	__ZN4core9panicking5panic17h736ee47a631475c0E
LBB10_56:
Ltmp415:
	leaq	_str.3(%rip), %rdi
Ltmp416:
	leaq	l___unnamed_8(%rip), %rdx
	movl	$25, %esi
	callq	__ZN4core9panicking5panic17h736ee47a631475c0E
LBB10_11:
Ltmp417:
	leaq	-136(%rbp), %rax
Ltmp418:
	.loc	14 134 9 is_stmt 1
	movq	%rax, -144(%rbp)
	movq	-56(%rbp), %rax
	movq	%rax, -152(%rbp)
	leaq	-144(%rbp), %rax
Ltmp419:
	.loc	14 134 9 is_stmt 0
	movq	%rax, -184(%rbp)
	leaq	__ZN42_$LT$$RF$T$u20$as$u20$core..fmt..Debug$GT$3fmt17h8374ef342ebb1919E(%rip), %rax
	movq	%rax, -176(%rbp)
	leaq	-152(%rbp), %rcx
	movq	%rcx, -168(%rbp)
	movq	%rax, -160(%rbp)
Ltmp420:
	.loc	2 328 9 is_stmt 1
	leaq	l___unnamed_25(%rip), %rax
Ltmp421:
	movq	%rax, -232(%rbp)
	movq	$3, -224(%rbp)
	movq	$0, -216(%rbp)
	leaq	-184(%rbp), %rax
Ltmp422:
	movq	%rax, -200(%rbp)
	movq	$2, -192(%rbp)
Ltmp423:
	.loc	14 134 9
	leaq	l___unnamed_26(%rip), %rsi
	leaq	-232(%rbp), %rdi
Ltmp424:
	callq	__ZN4core9panicking9panic_fmt17hab6ef1464e9720aaE
Ltmp425:
Lfunc_end10:
	.cfi_endproc
	.file	29 "/Users/yingyuhang/.cargo/registry/src/github.com-1ecc6299db9ec823/bit-matrix-0.6.0/src/submatrix.rs"

	.globl	__ZN10bit_matrix6matrix9BitMatrix17reflexive_closure17hf89b9203ed153813E
	.p2align	4, 0x90
__ZN10bit_matrix6matrix9BitMatrix17reflexive_closure17hf89b9203ed153813E:
Lfunc_begin11:
	.loc	14 148 0
	.cfi_startproc
	pushq	%rbp
	.cfi_def_cfa_offset 16
	.cfi_offset %rbp, -16
	movq	%rsp, %rbp
	.cfi_def_cfa_register %rbp
	subq	$96, %rsp
Ltmp426:
	.loc	14 149 32 prologue_end
	movq	32(%rdi), %rcx
Ltmp427:
	.loc	14 40 12
	testq	%rcx, %rcx
	.loc	14 40 9 is_stmt 0
	je	LBB11_1
Ltmp428:
	.loc	15 11 6 is_stmt 1
	movq	%rcx, %rsi
	addq	$32, %rsi
	jb	LBB11_19
Ltmp429:
	.loc	15 11 5 is_stmt 0
	decq	%rsi
Ltmp430:
	.loc	14 43 30 is_stmt 1
	shrq	$5, %rsi
Ltmp431:
	.loc	14 44 13
	je	LBB11_20
Ltmp432:
	.loc	5 1966 55
	movq	16(%rdi), %rax
Ltmp433:
	.loc	14 44 13
	xorl	%edx, %edx
	divq	%rsi
	movq	%rax, %r8
Ltmp434:
	.loc	6 951 9
	cmpq	%r8, %rcx
	.loc	6 0 0 is_stmt 0
	cmovbeq	%rcx, %r8
Ltmp435:
	.loc	6 1137 52 is_stmt 1
	testq	%r8, %r8
Ltmp436:
	.loc	7 211 9
	je	LBB11_13
Ltmp437:
LBB11_6:
	.loc	15 11 6
	addq	$32, %rcx
	jb	LBB11_19
Ltmp438:
	.loc	15 0 6 is_stmt 0
	leaq	24(%rdi), %r11
	xorl	%r9d, %r9d
Ltmp439:
	.p2align	4, 0x90
LBB11_8:
	.loc	15 11 5
	decq	%rcx
	andq	$-32, %rcx
Ltmp440:
	.loc	14 61 26 is_stmt 1
	movq	%r9, %rax
	mulq	%rcx
	jo	LBB11_15
Ltmp441:
	addq	%r9, %rax
	jb	LBB11_16
Ltmp442:
	.loc	14 0 26 is_stmt 0
	movq	%rax, -8(%rbp)
Ltmp443:
	.loc	4 537 17 is_stmt 1
	cmpq	%rax, (%r11)
	.loc	4 537 9 is_stmt 0
	jbe	LBB11_14
Ltmp444:
	.loc	4 538 17 is_stmt 1
	movq	%rax, %r10
	shrq	$5, %r10
Ltmp445:
	.loc	5 1966 55
	movq	16(%rdi), %rsi
Ltmp446:
	.loc	8 2872 10
	cmpq	%r10, %rsi
	jbe	LBB11_12
Ltmp447:
	.loc	19 404 17
	movl	$1, %edx
	movl	%eax, %ecx
Ltmp448:
	shll	%cl, %edx
Ltmp449:
	.loc	5 814 19
	movq	(%rdi), %rax
Ltmp450:
	.loc	4 543 9
	orl	%edx, (%rax,%r10,4)
Ltmp451:
	.loc	6 1137 52
	incq	%r9
	cmpq	%r8, %r9
Ltmp452:
	.loc	7 211 9
	jae	LBB11_13
Ltmp453:
	.loc	14 60 49
	movq	32(%rdi), %rcx
Ltmp454:
	.loc	15 11 6
	addq	$32, %rcx
Ltmp455:
	jae	LBB11_8
Ltmp456:
LBB11_19:
	.loc	14 0 0 is_stmt 0
	leaq	_str.5(%rip), %rdi
Ltmp457:
	leaq	l___unnamed_6(%rip), %rdx
	movl	$28, %esi
	callq	__ZN4core9panicking5panic17h736ee47a631475c0E
LBB11_1:
Ltmp458:
	xorl	%r8d, %r8d
Ltmp459:
	.loc	6 951 9 is_stmt 1
	cmpq	%r8, %rcx
	.loc	6 0 0 is_stmt 0
	cmovbeq	%rcx, %r8
Ltmp460:
	.loc	6 1137 52 is_stmt 1
	testq	%r8, %r8
Ltmp461:
	.loc	7 211 9
	jne	LBB11_6
Ltmp462:
LBB11_13:
	.loc	14 152 6
	addq	$96, %rsp
	popq	%rbp
	retq
Ltmp463:
LBB11_15:
	.loc	14 61 26
	leaq	_str.6(%rip), %rdi
Ltmp464:
	leaq	l___unnamed_27(%rip), %rdx
	movl	$33, %esi
	callq	__ZN4core9panicking5panic17h736ee47a631475c0E
Ltmp465:
LBB11_16:
	leaq	_str.5(%rip), %rdi
Ltmp466:
	leaq	l___unnamed_27(%rip), %rdx
	movl	$28, %esi
	callq	__ZN4core9panicking5panic17h736ee47a631475c0E
Ltmp467:
LBB11_14:
	.loc	14 0 26 is_stmt 0
	leaq	-8(%rbp), %rax
Ltmp468:
	.file	30 "/rustc/a74d1862d4d87a56244958416fd05976c58ca1a8/src/libstd/macros.rs"
	.loc	30 16 38 is_stmt 1
	movq	%rax, -40(%rbp)
	leaq	__ZN4core3fmt3num52_$LT$impl$u20$core..fmt..Debug$u20$for$u20$usize$GT$3fmt17hd9d2912101c14e43E(%rip), %rax
	movq	%rax, -32(%rbp)
	movq	%r11, -24(%rbp)
	movq	%rax, -16(%rbp)
Ltmp469:
	.loc	2 328 9
	leaq	l___unnamed_28(%rip), %rax
Ltmp470:
	movq	%rax, -88(%rbp)
	movq	$2, -80(%rbp)
	movq	$0, -72(%rbp)
	leaq	-40(%rbp), %rax
Ltmp471:
	movq	%rax, -56(%rbp)
	movq	$2, -48(%rbp)
Ltmp472:
	.loc	30 16 9
	leaq	l___unnamed_29(%rip), %rsi
	leaq	-88(%rbp), %rdi
Ltmp473:
	callq	__ZN3std9panicking15begin_panic_fmt17h2e6dba6f5c07d155E
Ltmp474:
LBB11_12:
	.loc	8 2872 10
	leaq	l___unnamed_30(%rip), %rdx
	movq	%r10, %rdi
Ltmp475:
	callq	__ZN4core9panicking18panic_bounds_check17habe69d236c55e3edE
Ltmp476:
LBB11_20:
	.loc	14 44 13
	leaq	_str.3(%rip), %rdi
Ltmp477:
	leaq	l___unnamed_8(%rip), %rdx
	movl	$25, %esi
Ltmp478:
	callq	__ZN4core9panicking5panic17h736ee47a631475c0E
Ltmp479:
Lfunc_end11:
	.cfi_endproc

	.globl	__ZN80_$LT$bit_matrix..row..Iter$u20$as$u20$core..iter..traits..iterator..Iterator$GT$9size_hint17ha40c5602d80b7098E
	.p2align	4, 0x90
__ZN80_$LT$bit_matrix..row..Iter$u20$as$u20$core..iter..traits..iterator..Iterator$GT$9size_hint17ha40c5602d80b7098E:
Lfunc_begin12:
	.loc	26 95 0
	.cfi_startproc
	pushq	%rbp
	.cfi_def_cfa_offset 16
	.cfi_offset %rbp, -16
	movq	%rsp, %rbp
	.cfi_def_cfa_register %rbp
Ltmp480:
	.loc	26 96 9 prologue_end
	movq	24(%rsi), %rax
	xorl	%ecx, %ecx
Ltmp481:
	.loc	7 84 17
	subq	16(%rsi), %rax
	cmovaeq	%rax, %rcx
Ltmp482:
	.loc	7 0 17 is_stmt 0
	movq	%rdi, %rax
Ltmp483:
	.loc	7 230 27 is_stmt 1
	movq	%rcx, (%rdi)
	movq	$1, 8(%rdi)
	movq	%rcx, 16(%rdi)
Ltmp484:
	.loc	26 97 6
	popq	%rbp
	retq
Ltmp485:
Lfunc_end12:
	.cfi_endproc

	.globl	__ZN10bit_matrix9submatrix12BitSubMatrix3new17h62d4f38bebf398d5E
	.p2align	4, 0x90
__ZN10bit_matrix9submatrix12BitSubMatrix3new17h62d4f38bebf398d5E:
Lfunc_begin13:
	.loc	29 29 0
	.cfi_startproc
	pushq	%rbp
	.cfi_def_cfa_offset 16
	.cfi_offset %rbp, -16
	movq	%rsp, %rbp
	.cfi_def_cfa_register %rbp
	movq	%rdi, %rax
Ltmp486:
	.loc	29 30 9 prologue_end
	movq	%rsi, (%rdi)
	movq	%rdx, 8(%rdi)
	movq	%rcx, 16(%rdi)
	.loc	29 34 6
	popq	%rbp
	retq
Ltmp487:
Lfunc_end13:
	.cfi_endproc

	.globl	__ZN10bit_matrix9submatrix12BitSubMatrix4iter17h1b82be6cce65ed17E
	.p2align	4, 0x90
__ZN10bit_matrix9submatrix12BitSubMatrix4iter17h1b82be6cce65ed17E:
Lfunc_begin14:
	.loc	29 46 0
	.cfi_startproc
	pushq	%rbp
	.cfi_def_cfa_offset 16
	.cfi_offset %rbp, -16
	movq	%rsp, %rbp
	.cfi_def_cfa_register %rbp
Ltmp488:
	.loc	29 51 41 prologue_end
	movq	16(%rsi), %rcx
Ltmp489:
	.loc	15 11 6
	addq	$32, %rcx
Ltmp490:
	jb	LBB14_3
Ltmp491:
	.loc	15 11 5 is_stmt 0
	decq	%rcx
Ltmp492:
	.loc	29 51 24 is_stmt 1
	shrq	$5, %rcx
Ltmp493:
	.loc	8 711 9
	je	LBB14_4
Ltmp494:
	.loc	8 0 9 is_stmt 0
	movq	%rdi, %rax
Ltmp495:
	.loc	29 52 9 is_stmt 1
	movups	(%rsi), %xmm0
Ltmp496:
	.loc	23 608 18
	movups	%xmm0, (%rdi)
	movq	%rcx, 16(%rdi)
Ltmp497:
	.loc	21 770 9
	leaq	__ZN10bit_matrix9submatrix12BitSubMatrix4iter1f17ha21e516d017b75b1E(%rip), %rcx
Ltmp498:
	movq	%rcx, 24(%rdi)
Ltmp499:
	.loc	29 53 6
	popq	%rbp
	retq
Ltmp500:
LBB14_3:
	.loc	15 11 6
	leaq	_str.5(%rip), %rdi
	leaq	l___unnamed_6(%rip), %rdx
	movl	$28, %esi
Ltmp501:
	callq	__ZN4core9panicking5panic17h736ee47a631475c0E
Ltmp502:
LBB14_4:
	.loc	11 10 9
	leaq	l___unnamed_23(%rip), %rdi
	leaq	l___unnamed_24(%rip), %rdx
	movl	$33, %esi
Ltmp503:
	callq	__ZN4core9panicking5panic17h736ee47a631475c0E
Ltmp504:
Lfunc_end14:
	.cfi_endproc

	.p2align	4, 0x90
__ZN10bit_matrix9submatrix12BitSubMatrix4iter1f17ha21e516d017b75b1E:
Lfunc_begin15:
	.loc	29 48 0
	.cfi_startproc
	pushq	%rbp
	.cfi_def_cfa_offset 16
	.cfi_offset %rbp, -16
	movq	%rsp, %rbp
	.cfi_def_cfa_register %rbp
	movq	%rsi, %rdx
Ltmp505:
	movq	%rdi, %rax
Ltmp506:
	.loc	29 50 10 prologue_end
	popq	%rbp
	retq
Ltmp507:
Lfunc_end15:
	.cfi_endproc

	.globl	__ZN10bit_matrix9submatrix15BitSubMatrixMut3new17h9f288d858796baccE
	.p2align	4, 0x90
__ZN10bit_matrix9submatrix15BitSubMatrixMut3new17h9f288d858796baccE:
Lfunc_begin16:
	.loc	29 58 0
	.cfi_startproc
	pushq	%rbp
	.cfi_def_cfa_offset 16
	.cfi_offset %rbp, -16
	movq	%rsp, %rbp
	.cfi_def_cfa_register %rbp
	movq	%rdi, %rax
Ltmp508:
	.loc	29 59 9 prologue_end
	movq	%rsi, (%rdi)
	movq	%rdx, 8(%rdi)
	movq	%rcx, 16(%rdi)
	.loc	29 63 6
	popq	%rbp
	retq
Ltmp509:
Lfunc_end16:
	.cfi_endproc

	.globl	__ZN10bit_matrix9submatrix15BitSubMatrixMut18transitive_closure17h335b94f40e388bf4E
	.p2align	4, 0x90
__ZN10bit_matrix9submatrix15BitSubMatrixMut18transitive_closure17h335b94f40e388bf4E:
Lfunc_begin17:
	.loc	29 150 0
	.cfi_startproc
	pushq	%rbp
	.cfi_def_cfa_offset 16
	.cfi_offset %rbp, -16
	movq	%rsp, %rbp
	.cfi_def_cfa_register %rbp
Ltmp510:
	pushq	%r15
	pushq	%r14
	pushq	%r13
	pushq	%r12
	pushq	%rbx
	subq	$152, %rsp
	.cfi_offset %rbx, -56
	.cfi_offset %r12, -48
	.cfi_offset %r13, -40
	.cfi_offset %r14, -32
	.cfi_offset %r15, -24
	.loc	29 151 20 prologue_end
	movq	16(%rdi), %rsi
Ltmp511:
	.loc	15 11 6
	movq	%rsi, %r11
	addq	$32, %r11
	jb	LBB17_51
Ltmp512:
	.loc	29 0 0 is_stmt 0
	movq	8(%rdi), %r9
Ltmp513:
	.loc	15 11 5
	decq	%r11
Ltmp514:
	.loc	29 77 24 is_stmt 1
	shrq	$5, %r11
Ltmp515:
	.loc	29 78 9
	je	LBB17_2
Ltmp516:
	.loc	29 81 13
	movq	%r9, %rax
	xorl	%edx, %edx
	divq	%r11
	jmp	LBB17_4
Ltmp517:
LBB17_2:
	.loc	29 0 13 is_stmt 0
	xorl	%eax, %eax
Ltmp518:
LBB17_4:
	leaq	16(%rdi), %rcx
Ltmp519:
	movq	%rcx, -56(%rbp)
	.loc	29 151 20 is_stmt 1
	movq	%rax, -88(%rbp)
Ltmp520:
	.loc	29 151 9 is_stmt 0
	cmpq	%rsi, %rax
	jne	LBB17_9
Ltmp521:
	.loc	6 1137 52 is_stmt 1
	testq	%rsi, %rsi
Ltmp522:
	.loc	7 211 9
	je	LBB17_10
Ltmp523:
	.loc	7 0 9 is_stmt 0
	movl	$1, %ebx
	xorl	%r8d, %r8d
	leaq	__ZN10bit_matrix5FALSE17hdeb1a5f3103b3f22E(%rip), %r15
	leaq	__ZN10bit_matrix4TRUE17hbff1c112e841285bE(%rip), %r12
	xorl	%ecx, %ecx
	movq	%rdi, -72(%rbp)
	movq	%rsi, -64(%rbp)
Ltmp524:
	.p2align	4, 0x90
LBB17_7:
	.loc	8 2918 19 is_stmt 1
	cmpq	%r8, %r9
	.loc	8 2918 16 is_stmt 0
	jb	LBB17_8
Ltmp525:
	.loc	29 204 51 is_stmt 1
	movq	%rbx, %rax
	mulq	%r11
	jo	LBB17_15
Ltmp526:
	.loc	29 0 0 is_stmt 0
	movq	%rax, %r10
Ltmp527:
	.loc	8 2926 12 is_stmt 1
	cmpq	%r8, %rax
	.loc	8 2926 9 is_stmt 0
	jb	LBB17_52
Ltmp528:
	.loc	8 2928 19 is_stmt 1
	cmpq	%r10, %r9
	.loc	8 2928 16 is_stmt 0
	jb	LBB17_14
Ltmp529:
	.loc	29 0 0
	movq	(%rdi), %r13
Ltmp530:
	.loc	29 78 12 is_stmt 1
	testq	%r11, %r11
	.loc	29 78 9 is_stmt 0
	je	LBB17_17
Ltmp531:
	.loc	29 81 13 is_stmt 1
	movq	%r9, %rax
	xorl	%edx, %edx
	divq	%r11
Ltmp532:
	.loc	29 111 58
	mulq	%r11
Ltmp533:
	jo	LBB17_39
Ltmp534:
LBB17_20:
	.loc	8 2916 12
	cmpq	%r10, %rax
	.loc	8 2916 9 is_stmt 0
	jb	LBB17_53
Ltmp535:
	.loc	8 2918 19 is_stmt 1
	cmpq	%rax, %r9
	.loc	8 2918 16 is_stmt 0
	jb	LBB17_55
Ltmp536:
	.loc	8 0 16
	movq	%rbx, -80(%rbp)
Ltmp537:
	.loc	29 78 12 is_stmt 1
	testq	%r11, %r11
Ltmp538:
	.loc	8 749 9
	je	LBB17_54
Ltmp539:
	.loc	29 0 0 is_stmt 0
	leaq	(%r13,%r8,4), %r9
Ltmp540:
	.loc	25 158 9 is_stmt 1
	leaq	(%r13,%r10,4), %rbx
Ltmp541:
	.loc	26 0 0 is_stmt 0
	movl	$1, %edx
	shll	%cl, %edx
Ltmp542:
	movl	%edx, -44(%rbp)
Ltmp543:
	.loc	8 2906 56 is_stmt 1
	subq	%r10, %rax
Ltmp544:
	.loc	15 0 0 is_stmt 0
	shrq	$5, %rcx
Ltmp545:
	movq	%rbx, %r10
	subq	%r9, %r10
Ltmp546:
	shrq	$2, %r10
Ltmp547:
	.p2align	4, 0x90
LBB17_24:
	.loc	27 37 13 is_stmt 1
	testq	%r13, %r13
Ltmp548:
	je	LBB17_33
Ltmp549:
	testq	%r8, %r8
	je	LBB17_33
Ltmp550:
	.loc	6 951 9
	cmpq	%r11, %r8
	.loc	6 0 0 is_stmt 0
	movq	%r8, %rdi
Ltmp551:
	cmovaq	%r11, %rdi
Ltmp552:
	movq	%r13, %r14
Ltmp553:
	.loc	22 152 9 is_stmt 1
	leaq	(%r13,%rdi,4), %r13
Ltmp554:
	.loc	8 1068 77
	subq	%rdi, %r8
Ltmp555:
	.loc	26 0 0 is_stmt 0
	movq	%r15, %rsi
Ltmp556:
	.loc	8 2851 12 is_stmt 1
	cmpq	%rdi, %rcx
Ltmp557:
	.loc	26 58 13
	jae	LBB17_29
Ltmp558:
LBB17_28:
	.loc	26 0 13 is_stmt 0
	movl	-44(%rbp), %edx
Ltmp559:
	.loc	26 59 27 is_stmt 1
	testl	%edx, (%r14,%rcx,4)
	.loc	26 59 24 is_stmt 0
	movq	%r12, %rsi
	cmoveq	%r15, %rsi
Ltmp560:
LBB17_29:
	.loc	29 155 20 is_stmt 1
	cmpb	$0, (%rsi)
	.loc	29 155 17 is_stmt 0
	je	LBB17_24
Ltmp561:
	.loc	6 951 9 is_stmt 1
	cmpq	%r10, %rdi
	.loc	6 0 0 is_stmt 0
	cmovaq	%r10, %rdi
Ltmp562:
	.loc	28 174 12 is_stmt 1
	testq	%rdi, %rdi
	.loc	28 174 9 is_stmt 0
	je	LBB17_24
Ltmp563:
	cmpq	$8, %rdi
	jae	LBB17_40
Ltmp564:
	.loc	28 0 9
	xorl	%esi, %esi
	jmp	LBB17_50
Ltmp565:
	.p2align	4, 0x90
LBB17_33:
	.loc	27 54 13 is_stmt 1
	testq	%rbx, %rbx
Ltmp566:
	je	LBB17_36
Ltmp567:
	testq	%rax, %rax
	je	LBB17_36
Ltmp568:
	.loc	6 951 9
	cmpq	%r11, %rax
	.loc	6 0 0 is_stmt 0
	movq	%rax, %rdi
Ltmp569:
	cmovaq	%r11, %rdi
Ltmp570:
	movq	%rbx, %r14
Ltmp571:
	.loc	22 152 9 is_stmt 1
	leaq	(%rbx,%rdi,4), %rbx
Ltmp572:
	.loc	8 1068 77
	subq	%rdi, %rax
	xorl	%r13d, %r13d
Ltmp573:
	.loc	26 0 0 is_stmt 0
	movq	%r15, %rsi
Ltmp574:
	.loc	8 2851 12 is_stmt 1
	cmpq	%rdi, %rcx
Ltmp575:
	.loc	26 58 13
	jb	LBB17_28
	jmp	LBB17_29
Ltmp576:
LBB17_40:
	.loc	28 174 9
	leaq	(%r9,%rdi,4), %rsi
	cmpq	%rsi, %r14
	jae	LBB17_43
Ltmp577:
	.loc	28 0 9 is_stmt 0
	leaq	(%r14,%rdi,4), %rsi
	.loc	28 174 9
	cmpq	%rsi, %r9
	jae	LBB17_43
Ltmp578:
	.loc	28 0 9
	xorl	%esi, %esi
	jmp	LBB17_50
Ltmp579:
LBB17_43:
	.loc	28 174 9
	movq	%rdi, %rsi
	movabsq	$4611686018427387896, %rdx
	andq	%rdx, %rsi
	leaq	-8(%rsi), %r12
	movq	%r12, %r15
	shrq	$3, %r15
	incq	%r15
	movl	%r15d, %edx
	andl	$1, %edx
	testq	%r12, %r12
	je	LBB17_44
Ltmp580:
	subq	%rdx, %r15
Ltmp581:
	.loc	28 176 13 is_stmt 1
	xorl	%r12d, %r12d
Ltmp582:
	.p2align	4, 0x90
LBB17_46:
	.loc	29 157 33
	movups	(%r9,%r12,4), %xmm0
	movups	16(%r9,%r12,4), %xmm1
	.loc	29 157 25 is_stmt 0
	movups	(%r14,%r12,4), %xmm2
	orps	%xmm0, %xmm2
	movups	16(%r14,%r12,4), %xmm0
	orps	%xmm1, %xmm0
	movups	32(%r14,%r12,4), %xmm1
	movups	48(%r14,%r12,4), %xmm3
	movups	%xmm2, (%r14,%r12,4)
	movups	%xmm0, 16(%r14,%r12,4)
	.loc	29 157 33
	movups	32(%r9,%r12,4), %xmm0
	.loc	29 157 25
	orps	%xmm1, %xmm0
	.loc	29 157 33
	movups	48(%r9,%r12,4), %xmm1
	.loc	29 157 25
	orps	%xmm3, %xmm1
	movups	%xmm0, 32(%r14,%r12,4)
	movups	%xmm1, 48(%r14,%r12,4)
Ltmp583:
	.loc	28 176 13 is_stmt 1
	addq	$16, %r12
	addq	$-2, %r15
	jne	LBB17_46
Ltmp584:
	testq	%rdx, %rdx
	je	LBB17_49
Ltmp585:
LBB17_48:
	.loc	29 157 33
	movups	(%r9,%r12,4), %xmm0
	movups	16(%r9,%r12,4), %xmm1
	.loc	29 157 25 is_stmt 0
	movups	(%r14,%r12,4), %xmm2
	orps	%xmm0, %xmm2
	movups	16(%r14,%r12,4), %xmm0
	orps	%xmm1, %xmm0
	movups	%xmm2, (%r14,%r12,4)
	movups	%xmm0, 16(%r14,%r12,4)
Ltmp586:
LBB17_49:
	.loc	28 174 9 is_stmt 1
	cmpq	%rsi, %rdi
	leaq	__ZN10bit_matrix5FALSE17hdeb1a5f3103b3f22E(%rip), %r15
	leaq	__ZN10bit_matrix4TRUE17hbff1c112e841285bE(%rip), %r12
	je	LBB17_24
Ltmp587:
	.p2align	4, 0x90
LBB17_50:
	.loc	29 157 33
	movl	(%r9,%rsi,4), %edx
	.loc	29 157 25 is_stmt 0
	orl	%edx, (%r14,%rsi,4)
Ltmp588:
	.loc	28 176 13 is_stmt 1
	incq	%rsi
Ltmp589:
	.loc	28 174 12
	cmpq	%rdi, %rsi
	.loc	28 174 9 is_stmt 0
	jb	LBB17_50
	jmp	LBB17_24
Ltmp590:
LBB17_44:
	.loc	28 0 9
	xorl	%r12d, %r12d
Ltmp591:
	.loc	28 176 13 is_stmt 1
	testq	%rdx, %rdx
	jne	LBB17_48
	jmp	LBB17_49
Ltmp592:
	.p2align	4, 0x90
LBB17_36:
	.loc	28 0 13 is_stmt 0
	movq	-64(%rbp), %rsi
	movq	-80(%rbp), %rbx
Ltmp593:
	.loc	6 1137 52 is_stmt 1
	cmpq	%rsi, %rbx
	movq	-72(%rbp), %rdi
Ltmp594:
	.loc	7 211 9
	je	LBB17_10
Ltmp595:
	.loc	7 0 9 is_stmt 0
	movq	-56(%rbp), %rax
Ltmp596:
	.loc	29 109 41 is_stmt 1
	movq	(%rax), %r11
Ltmp597:
	.loc	15 11 6
	addq	$32, %r11
Ltmp598:
	jb	LBB17_51
Ltmp599:
	.loc	29 111 21
	movq	8(%rdi), %r9
Ltmp600:
	.loc	15 11 5
	decq	%r11
Ltmp601:
	.loc	29 109 24
	shrq	$5, %r11
Ltmp602:
	.loc	29 111 58
	movq	%rbx, %rax
	mulq	%r11
	movq	%rax, %r8
	movq	%rbx, %rcx
Ltmp603:
	.loc	10 3632 30
	leaq	1(%rbx), %rbx
Ltmp604:
	.loc	29 111 58
	jno	LBB17_7
	jmp	LBB17_39
Ltmp605:
	.p2align	4, 0x90
LBB17_17:
	.loc	29 0 0 is_stmt 0
	xorl	%eax, %eax
Ltmp606:
	.loc	29 111 58
	mulq	%r11
Ltmp607:
	jno	LBB17_20
Ltmp608:
LBB17_39:
	.loc	29 0 0
	leaq	_str.6(%rip), %rdi
Ltmp609:
	leaq	l___unnamed_31(%rip), %rdx
	movl	$33, %esi
	callq	__ZN4core9panicking5panic17h736ee47a631475c0E
Ltmp610:
LBB17_10:
	.loc	29 162 6 is_stmt 1
	addq	$152, %rsp
	popq	%rbx
	popq	%r12
	popq	%r13
	popq	%r14
	popq	%r15
	popq	%rbp
	retq
LBB17_8:
Ltmp611:
	.loc	8 2919 13
	leaq	l___unnamed_32(%rip), %rdx
	movq	%r8, %rdi
Ltmp612:
	movq	%r9, %rsi
	callq	__ZN4core5slice20slice_index_len_fail17h550a313151a85135E
Ltmp613:
LBB17_15:
	.loc	29 204 51
	leaq	_str.6(%rip), %rdi
Ltmp614:
	leaq	l___unnamed_33(%rip), %rdx
	movl	$33, %esi
	callq	__ZN4core9panicking5panic17h736ee47a631475c0E
Ltmp615:
LBB17_52:
	.loc	8 2927 13
	leaq	l___unnamed_33(%rip), %rdx
	movq	%r8, %rdi
Ltmp616:
	movq	%r10, %rsi
	callq	__ZN4core5slice22slice_index_order_fail17h85b430a3a039f0a8E
Ltmp617:
LBB17_14:
	.loc	8 2929 13
	leaq	l___unnamed_33(%rip), %rdx
	movq	%r10, %rdi
Ltmp618:
	movq	%r9, %rsi
	callq	__ZN4core5slice20slice_index_len_fail17h550a313151a85135E
Ltmp619:
LBB17_53:
	.loc	8 2917 13
	leaq	l___unnamed_32(%rip), %rdx
	movq	%r10, %rdi
Ltmp620:
	movq	%rax, %rsi
	callq	__ZN4core5slice22slice_index_order_fail17h85b430a3a039f0a8E
Ltmp621:
LBB17_55:
	.loc	8 2919 13
	leaq	l___unnamed_32(%rip), %rdx
	movq	%rax, %rdi
Ltmp622:
	movq	%r9, %rsi
	callq	__ZN4core5slice20slice_index_len_fail17h550a313151a85135E
Ltmp623:
LBB17_54:
	.loc	11 10 9
	leaq	l___unnamed_23(%rip), %rdi
Ltmp624:
	leaq	l___unnamed_24(%rip), %rdx
	movl	$33, %esi
	callq	__ZN4core9panicking5panic17h736ee47a631475c0E
Ltmp625:
LBB17_51:
	.loc	29 0 0 is_stmt 0
	leaq	_str.5(%rip), %rdi
	leaq	l___unnamed_6(%rip), %rdx
	movl	$28, %esi
	callq	__ZN4core9panicking5panic17h736ee47a631475c0E
LBB17_9:
Ltmp626:
	leaq	-88(%rbp), %rax
Ltmp627:
	.loc	29 151 9 is_stmt 1
	movq	%rax, -96(%rbp)
	movq	-56(%rbp), %rax
	movq	%rax, -104(%rbp)
	leaq	-96(%rbp), %rax
Ltmp628:
	.loc	29 151 9 is_stmt 0
	movq	%rax, -136(%rbp)
	leaq	__ZN42_$LT$$RF$T$u20$as$u20$core..fmt..Debug$GT$3fmt17h8374ef342ebb1919E(%rip), %rax
	movq	%rax, -128(%rbp)
	leaq	-104(%rbp), %rcx
	movq	%rcx, -120(%rbp)
	movq	%rax, -112(%rbp)
Ltmp629:
	.loc	2 328 9 is_stmt 1
	leaq	l___unnamed_25(%rip), %rax
Ltmp630:
	movq	%rax, -184(%rbp)
	movq	$3, -176(%rbp)
	movq	$0, -168(%rbp)
	leaq	-136(%rbp), %rax
Ltmp631:
	movq	%rax, -152(%rbp)
	movq	$2, -144(%rbp)
Ltmp632:
	.loc	29 151 9
	leaq	l___unnamed_34(%rip), %rsi
	leaq	-184(%rbp), %rdi
Ltmp633:
	callq	__ZN4core9panicking9panic_fmt17hab6ef1464e9720aaE
Ltmp634:
Lfunc_end17:
	.cfi_endproc

	.globl	__ZN10bit_matrix9submatrix15BitSubMatrixMut17reflexive_closure17h5e7ca3cf32c1c109E
	.p2align	4, 0x90
__ZN10bit_matrix9submatrix15BitSubMatrixMut17reflexive_closure17h5e7ca3cf32c1c109E:
Lfunc_begin18:
	.loc	29 165 0
	.cfi_startproc
	pushq	%rbp
	.cfi_def_cfa_offset 16
	.cfi_offset %rbp, -16
	movq	%rsp, %rbp
	.cfi_def_cfa_register %rbp
Ltmp635:
	.loc	29 166 32 prologue_end
	movq	16(%rdi), %r9
Ltmp636:
	.loc	15 11 6
	movq	%r9, %rcx
	addq	$32, %rcx
	jb	LBB18_17
Ltmp637:
	.loc	15 11 5 is_stmt 0
	decq	%rcx
Ltmp638:
	.loc	29 77 24 is_stmt 1
	shrq	$5, %rcx
Ltmp639:
	.loc	29 78 9
	je	LBB18_2
Ltmp640:
	.loc	29 0 0 is_stmt 0
	movq	8(%rdi), %rax
Ltmp641:
	.loc	29 81 13 is_stmt 1
	xorl	%edx, %edx
	divq	%rcx
	movq	%rax, %r8
Ltmp642:
	.loc	6 951 9
	cmpq	%r8, %r9
	.loc	6 0 0 is_stmt 0
	cmovbeq	%r9, %r8
Ltmp643:
	.loc	6 1137 52 is_stmt 1
	testq	%r8, %r8
Ltmp644:
	.loc	7 211 9
	je	LBB18_12
Ltmp645:
LBB18_5:
	.loc	15 11 6
	movq	%r9, %rcx
	addq	$32, %rcx
	jb	LBB18_17
Ltmp646:
	.loc	15 0 6 is_stmt 0
	xorl	%r10d, %r10d
Ltmp647:
	.p2align	4, 0x90
LBB18_7:
	.loc	15 11 5
	decq	%rcx
	andq	$-32, %rcx
Ltmp648:
	.loc	29 93 19 is_stmt 1
	movq	%r10, %rax
	mulq	%rcx
	jo	LBB18_13
Ltmp649:
	addq	%r10, %rax
	jb	LBB18_14
Ltmp650:
	.loc	29 95 45
	cmpq	%r10, %r9
	.loc	29 95 17 is_stmt 0
	jbe	LBB18_11
Ltmp651:
	.loc	29 0 0
	movq	%rax, %rdx
	shrq	$5, %rdx
Ltmp652:
	.loc	29 95 17
	cmpq	8(%rdi), %rdx
	jae	LBB18_11
Ltmp653:
	.loc	29 0 0
	movl	$1, %esi
	movl	%eax, %ecx
Ltmp654:
	shll	%cl, %esi
Ltmp655:
	.loc	29 97 23 is_stmt 1
	movq	(%rdi), %rax
Ltmp656:
	.loc	29 99 17
	orl	%esi, (%rax,%rdx,4)
Ltmp657:
	.loc	6 1137 52
	incq	%r10
	cmpq	%r8, %r10
Ltmp658:
	.loc	7 211 9
	jae	LBB18_12
Ltmp659:
	.loc	29 92 49
	movq	16(%rdi), %r9
Ltmp660:
	.loc	15 11 6
	movq	%r9, %rcx
	addq	$32, %rcx
	jae	LBB18_7
Ltmp661:
LBB18_17:
	.loc	29 0 0 is_stmt 0
	leaq	_str.5(%rip), %rdi
Ltmp662:
	leaq	l___unnamed_6(%rip), %rdx
	movl	$28, %esi
	callq	__ZN4core9panicking5panic17h736ee47a631475c0E
LBB18_2:
Ltmp663:
	xorl	%r8d, %r8d
Ltmp664:
	.loc	6 951 9 is_stmt 1
	cmpq	%r8, %r9
	.loc	6 0 0 is_stmt 0
	cmovbeq	%r9, %r8
Ltmp665:
	.loc	6 1137 52 is_stmt 1
	testq	%r8, %r8
Ltmp666:
	.loc	7 211 9
	jne	LBB18_5
Ltmp667:
LBB18_12:
	.loc	29 169 6
	popq	%rbp
	retq
Ltmp668:
LBB18_11:
	.loc	29 95 9
	leaq	l___unnamed_35(%rip), %rdi
Ltmp669:
	leaq	l___unnamed_36(%rip), %rdx
	movl	$65, %esi
	callq	__ZN4core9panicking5panic17h736ee47a631475c0E
Ltmp670:
LBB18_13:
	.loc	29 93 19
	leaq	_str.6(%rip), %rdi
Ltmp671:
	leaq	l___unnamed_37(%rip), %rdx
	movl	$33, %esi
	callq	__ZN4core9panicking5panic17h736ee47a631475c0E
Ltmp672:
LBB18_14:
	leaq	_str.5(%rip), %rdi
Ltmp673:
	leaq	l___unnamed_37(%rip), %rdx
	movl	$28, %esi
	callq	__ZN4core9panicking5panic17h736ee47a631475c0E
Ltmp674:
Lfunc_end18:
	.cfi_endproc

	.globl	__ZN10bit_matrix9submatrix15BitSubMatrixMut8iter_mut17h8520d3c70a921955E
	.p2align	4, 0x90
__ZN10bit_matrix9submatrix15BitSubMatrixMut8iter_mut17h8520d3c70a921955E:
Lfunc_begin19:
	.loc	29 172 0
	.cfi_startproc
	pushq	%rbp
	.cfi_def_cfa_offset 16
	.cfi_offset %rbp, -16
	movq	%rsp, %rbp
	.cfi_def_cfa_register %rbp
Ltmp675:
	.loc	29 177 41 prologue_end
	movq	16(%rsi), %rcx
Ltmp676:
	.loc	15 11 6
	addq	$32, %rcx
Ltmp677:
	jb	LBB19_3
Ltmp678:
	.loc	15 11 5 is_stmt 0
	decq	%rcx
Ltmp679:
	.loc	29 177 24 is_stmt 1
	shrq	$5, %rcx
Ltmp680:
	.loc	8 749 9
	je	LBB19_4
Ltmp681:
	.loc	8 0 9 is_stmt 0
	movq	%rdi, %rax
Ltmp682:
	.loc	29 178 9 is_stmt 1
	movups	(%rsi), %xmm0
Ltmp683:
	.loc	23 608 18
	movups	%xmm0, (%rdi)
	movq	%rcx, 16(%rdi)
Ltmp684:
	.loc	21 770 9
	leaq	__ZN10bit_matrix9submatrix15BitSubMatrixMut8iter_mut1f17hbd8f5327314a892aE(%rip), %rcx
Ltmp685:
	movq	%rcx, 24(%rdi)
Ltmp686:
	.loc	29 179 6
	popq	%rbp
	retq
Ltmp687:
LBB19_3:
	.loc	15 11 6
	leaq	_str.5(%rip), %rdi
	leaq	l___unnamed_6(%rip), %rdx
	movl	$28, %esi
Ltmp688:
	callq	__ZN4core9panicking5panic17h736ee47a631475c0E
Ltmp689:
LBB19_4:
	.loc	11 10 9
	leaq	l___unnamed_23(%rip), %rdi
	leaq	l___unnamed_24(%rip), %rdx
	movl	$33, %esi
Ltmp690:
	callq	__ZN4core9panicking5panic17h736ee47a631475c0E
Ltmp691:
Lfunc_end19:
	.cfi_endproc

	.p2align	4, 0x90
__ZN10bit_matrix9submatrix15BitSubMatrixMut8iter_mut1f17hbd8f5327314a892aE:
Lfunc_begin20:
	.loc	29 174 0
	.cfi_startproc
	pushq	%rbp
	.cfi_def_cfa_offset 16
	.cfi_offset %rbp, -16
	movq	%rsp, %rbp
	.cfi_def_cfa_register %rbp
	movq	%rsi, %rdx
Ltmp692:
	movq	%rdi, %rax
Ltmp693:
	.loc	29 176 10 prologue_end
	popq	%rbp
	retq
Ltmp694:
Lfunc_end20:
	.cfi_endproc

	.globl	__ZN72_$LT$bit_matrix..submatrix..BitSubMatrix$u20$as$u20$core..fmt..Debug$GT$3fmt17h8e78b9f8fb272b08E
	.p2align	4, 0x90
__ZN72_$LT$bit_matrix..submatrix..BitSubMatrix$u20$as$u20$core..fmt..Debug$GT$3fmt17h8e78b9f8fb272b08E:
Lfunc_begin21:
	.loc	29 226 0
	.cfi_startproc
	pushq	%rbp
	.cfi_def_cfa_offset 16
	.cfi_offset %rbp, -16
	movq	%rsp, %rbp
	.cfi_def_cfa_register %rbp
Ltmp695:
	pushq	%r15
	pushq	%r14
	pushq	%r13
	pushq	%r12
	pushq	%rbx
	subq	$104, %rsp
	.cfi_offset %rbx, -56
	.cfi_offset %r12, -48
	.cfi_offset %r13, -40
	.cfi_offset %r14, -32
	.cfi_offset %r15, -24
	.loc	29 51 41 prologue_end
	movq	16(%rdi), %rbx
Ltmp696:
	.loc	15 11 6
	movq	%rbx, %rax
	addq	$32, %rax
	jb	LBB21_16
Ltmp697:
	.loc	15 11 5 is_stmt 0
	decq	%rax
Ltmp698:
	.loc	29 51 24 is_stmt 1
	shrq	$5, %rax
Ltmp699:
	.loc	8 711 9
	je	LBB21_17
Ltmp700:
	.loc	8 0 9 is_stmt 0
	movq	%rsi, %r15
Ltmp701:
	.loc	29 52 9 is_stmt 1
	movq	(%rdi), %r13
	movq	8(%rdi), %rcx
Ltmp702:
	.loc	29 0 9 is_stmt 0
	movq	%rax, -56(%rbp)
Ltmp703:
LBB21_3:
	.loc	8 88 9 is_stmt 1
	testq	%rcx, %rcx
Ltmp704:
	.loc	8 4541 9
	je	LBB21_15
Ltmp705:
	.loc	6 951 9
	cmpq	%rax, %rcx
	.loc	6 0 0 is_stmt 0
	movq	%rcx, %r14
	cmovaq	%rax, %r14
Ltmp706:
	.loc	29 227 13 is_stmt 1
	testq	%r13, %r13
	je	LBB21_15
Ltmp707:
	.loc	29 0 13 is_stmt 0
	leaq	(%r13,%r14,4), %rax
	movq	%rax, -64(%rbp)
	subq	%r14, %rcx
	movq	%rcx, -72(%rbp)
Ltmp708:
	xorl	%r12d, %r12d
Ltmp709:
	.loc	6 1137 52 is_stmt 1
	cmpq	%r12, %rbx
Ltmp710:
	.loc	7 211 9
	jne	LBB21_8
	jmp	LBB21_11
Ltmp711:
	.p2align	4, 0x90
LBB21_6:
	.loc	26 0 0 is_stmt 0
	incq	%r12
Ltmp712:
	.loc	26 92 35 is_stmt 1
	movzbl	(%rax), %eax
Ltmp713:
	.loc	29 0 0 is_stmt 0
	movl	%eax, -44(%rbp)
Ltmp714:
	.loc	29 229 17 is_stmt 1
	leaq	-44(%rbp), %rax
	movq	%rax, -136(%rbp)
	movq	__ZN4core3fmt3num3imp52_$LT$impl$u20$core..fmt..Display$u20$for$u20$i32$GT$3fmt17he2ccc2060d52a2ceE@GOTPCREL(%rip), %rax
	movq	%rax, -128(%rbp)
Ltmp715:
	.loc	2 328 9
	leaq	l___unnamed_3(%rip), %rax
	movq	%rax, -120(%rbp)
	movq	$1, -112(%rbp)
	movq	$0, -104(%rbp)
	leaq	-136(%rbp), %rax
	movq	%rax, -88(%rbp)
	movq	$1, -80(%rbp)
Ltmp716:
	.loc	29 229 17
	movq	%r15, %rdi
Ltmp717:
	leaq	-120(%rbp), %rsi
	callq	__ZN4core3fmt9Formatter9write_fmt17h3dc2bf45afed3069E
	.loc	29 229 59 is_stmt 0
	testb	%al, %al
	jne	LBB21_12
Ltmp718:
	.loc	6 1137 52 is_stmt 1
	cmpq	%r12, %rbx
Ltmp719:
	.loc	7 211 9
	je	LBB21_11
Ltmp720:
LBB21_8:
	.loc	15 5 6
	movq	%r12, %rcx
	shrq	$5, %rcx
Ltmp721:
	.loc	26 0 0 is_stmt 0
	leaq	__ZN10bit_matrix5FALSE17hdeb1a5f3103b3f22E(%rip), %rax
Ltmp722:
	.loc	8 2851 12 is_stmt 1
	cmpq	%r14, %rcx
Ltmp723:
	.loc	26 58 13
	jae	LBB21_6
Ltmp724:
	.loc	26 59 27
	movl	(%r13,%rcx,4), %eax
Ltmp725:
	btl	%r12d, %eax
	.loc	26 59 24 is_stmt 0
	leaq	__ZN10bit_matrix5FALSE17hdeb1a5f3103b3f22E(%rip), %rax
Ltmp726:
	jae	LBB21_6
Ltmp727:
	leaq	__ZN10bit_matrix4TRUE17hbff1c112e841285bE(%rip), %rax
	jmp	LBB21_6
Ltmp728:
	.p2align	4, 0x90
LBB21_11:
	.loc	2 328 9 is_stmt 1
	leaq	l___unnamed_38(%rip), %rax
	movq	%rax, -120(%rbp)
	movq	$1, -112(%rbp)
	movq	$0, -104(%rbp)
Ltmp729:
	leaq	l___unnamed_39(%rip), %rax
	movq	%rax, -88(%rbp)
	movq	$0, -80(%rbp)
Ltmp730:
	.loc	29 231 13
	movq	%r15, %rdi
	leaq	-120(%rbp), %rsi
	callq	__ZN4core3fmt9Formatter9write_fmt17h3dc2bf45afed3069E
	movq	-64(%rbp), %r13
	.loc	29 231 30 is_stmt 0
	testb	%al, %al
	movq	-56(%rbp), %rax
	movq	-72(%rbp), %rcx
	je	LBB21_3
Ltmp731:
LBB21_12:
	.loc	29 0 30
	movb	$1, %al
Ltmp732:
LBB21_13:
	.loc	29 234 6 is_stmt 1
	addq	$104, %rsp
	popq	%rbx
	popq	%r12
	popq	%r13
	popq	%r14
	popq	%r15
Ltmp733:
	popq	%rbp
	retq
LBB21_15:
Ltmp734:
	.loc	29 0 6 is_stmt 0
	xorl	%eax, %eax
	jmp	LBB21_13
Ltmp735:
LBB21_16:
	.loc	15 11 6 is_stmt 1
	leaq	_str.5(%rip), %rdi
Ltmp736:
	leaq	l___unnamed_6(%rip), %rdx
	movl	$28, %esi
Ltmp737:
	callq	__ZN4core9panicking5panic17h736ee47a631475c0E
Ltmp738:
LBB21_17:
	.loc	11 10 9
	leaq	l___unnamed_23(%rip), %rdi
Ltmp739:
	leaq	l___unnamed_24(%rip), %rdx
	movl	$33, %esi
Ltmp740:
	callq	__ZN4core9panicking5panic17h736ee47a631475c0E
Ltmp741:
Lfunc_end21:
	.cfi_endproc

	.globl	__ZN66_$LT$bit_matrix..matrix..BitMatrix$u20$as$u20$core..fmt..Debug$GT$3fmt17hfeb4fa474ae1e45aE
	.p2align	4, 0x90
__ZN66_$LT$bit_matrix..matrix..BitMatrix$u20$as$u20$core..fmt..Debug$GT$3fmt17hfeb4fa474ae1e45aE:
Lfunc_begin22:
	.loc	14 19 0
	.cfi_startproc
	pushq	%rbp
	.cfi_def_cfa_offset 16
	.cfi_offset %rbp, -16
	movq	%rsp, %rbp
	.cfi_def_cfa_register %rbp
	pushq	%r14
	pushq	%rbx
	subq	$32, %rsp
	.cfi_offset %rbx, -32
	.cfi_offset %r14, -24
	movq	%rdi, %rbx
Ltmp742:
	.loc	14 19 17 prologue_end
	leaq	l___unnamed_40(%rip), %rdx
	leaq	-40(%rbp), %r14
	movl	$9, %ecx
	movq	%r14, %rdi
	callq	__ZN4core3fmt9Formatter12debug_struct17h985c0158d1fc7193E
Ltmp743:
	.loc	14 22 5
	movq	%rbx, -24(%rbp)
Ltmp744:
	.loc	14 23 5
	addq	$32, %rbx
Ltmp745:
	.loc	14 19 17
	leaq	l___unnamed_41(%rip), %rsi
	leaq	l___unnamed_1(%rip), %r8
	leaq	-24(%rbp), %rcx
	movl	$7, %edx
	movq	%r14, %rdi
	callq	__ZN4core3fmt8builders11DebugStruct5field17h9c15dc155278eed2E
	.loc	14 23 5
	movq	%rbx, -24(%rbp)
	.loc	14 19 17
	leaq	L___unnamed_42(%rip), %rsi
	leaq	l___unnamed_2(%rip), %r8
	leaq	-24(%rbp), %rcx
	movl	$8, %edx
	movq	%r14, %rdi
	callq	__ZN4core3fmt8builders11DebugStruct5field17h9c15dc155278eed2E
	movq	%r14, %rdi
	callq	__ZN4core3fmt8builders11DebugStruct6finish17h26808393f3fed630E
Ltmp746:
	.loc	14 19 22 is_stmt 0
	addq	$32, %rsp
	popq	%rbx
	popq	%r14
	popq	%rbp
	retq
Ltmp747:
Lfunc_end22:
	.cfi_endproc

	.section	__TEXT,__const
	.p2align	3
l___unnamed_39:
	.byte	0

	.p2align	4
_str.0:
	.ascii	"attempt to subtract with overflow"

l___unnamed_23:
	.ascii	"assertion failed: chunk_size != 0"

l___unnamed_43:
	.ascii	"/rustc/a74d1862d4d87a56244958416fd05976c58ca1a8/src/libcore/macros/mod.rs"

	.section	__DATA,__const
	.p2align	3
l___unnamed_24:
	.quad	l___unnamed_43
	.asciz	"I\000\000\000\000\000\000\000\n\000\000\000\t\000\000"

	.section	__TEXT,__const
l___unnamed_4:
	.ascii	"called `Option::unwrap()` on a `None` value"

	.p2align	4
_str.3:
	.ascii	"attempt to divide by zero"

	.section	__DATA,__const
	.p2align	3
l___unnamed_3:
	.quad	l___unnamed_39
	.space	8

	.section	__TEXT,__const
l___unnamed_44:
	.ascii	"/Users/yingyuhang/.cargo/registry/src/github.com-1ecc6299db9ec823/bit-vec-0.6.2/src/lib.rs"

	.section	__DATA,__const
	.p2align	3
l___unnamed_13:
	.quad	l___unnamed_44
	.asciz	"Z\000\000\000\000\000\000\000\276\001\000\000%\000\000"

	.p2align	3
l___unnamed_14:
	.quad	l___unnamed_44
	.asciz	"Z\000\000\000\000\000\000\000\276\001\000\000\030\000\000"

	.section	__TEXT,__const
l___unnamed_45:
	.ascii	"index out of bounds: "

	.section	__TEXT,__literal4,4byte_literals
L___unnamed_46:
	.ascii	" >= "

	.section	__DATA,__const
	.p2align	3
l___unnamed_28:
	.quad	l___unnamed_45
	.asciz	"\025\000\000\000\000\000\000"
	.quad	L___unnamed_46
	.asciz	"\004\000\000\000\000\000\000"

	.section	__TEXT,__const
l___unnamed_47:
	.ascii	"/rustc/a74d1862d4d87a56244958416fd05976c58ca1a8/src/libstd/macros.rs"

	.section	__DATA,__const
	.p2align	3
l___unnamed_29:
	.quad	l___unnamed_47
	.asciz	"D\000\000\000\000\000\000\000\020\000\000\000\t\000\000"

	.p2align	3
l___unnamed_30:
	.quad	l___unnamed_44
	.asciz	"Z\000\000\000\000\000\000\000\035\002\000\000\032\000\000"

	.section	__TEXT,__const
l___unnamed_11:
	.ascii	"capacity overflow"

	.section	__DATA,__const
	.p2align	3
l___unnamed_12:
	.quad	l___unnamed_44
	.asciz	"Z\000\000\000\000\000\000\000\360\004\000\000\031\000\000"

	.p2align	3
l___unnamed_16:
	.quad	l___unnamed_44
	.asciz	"Z\000\000\000\000\000\000\000\371\004\000\000/\000\000"

	.p2align	3
l___unnamed_17:
	.quad	l___unnamed_44
	.asciz	"Z\000\000\000\000\000\000\000\371\004\000\000\"\000\000"

	.p2align	3
l___unnamed_9:
	.quad	l___unnamed_44
	.asciz	"Z\000\000\000\000\000\000\000\003\005\000\000\r\000\000"

	.p2align	3
l___unnamed_15:
	.quad	l___unnamed_44
	.asciz	"Z\000\000\000\000\000\000\000\b\005\000\000\032\000\000"

	.section	__TEXT,__const
	.p2align	4
_str.5:
	.ascii	"attempt to add with overflow"

	.section	__DATA,__const
	.p2align	3
l___unnamed_5:
	.quad	l___unnamed_44
	.asciz	"Z\000\000\000\000\000\000\000\341\005\000\000#\000\000"

	.section	__TEXT,__const
l___unnamed_48:
	.ascii	"/Users/yingyuhang/.cargo/registry/src/github.com-1ecc6299db9ec823/bit-matrix-0.6.0/src/matrix.rs"

	.section	__DATA,__const
	.p2align	3
l___unnamed_7:
	.quad	l___unnamed_48
	.asciz	"`\000\000\000\000\000\000\000 \000\000\000(\000\000"

	.section	__TEXT,__const
	.p2align	4
_str.6:
	.ascii	"attempt to multiply with overflow"

	.section	__DATA,__const
	.p2align	3
l___unnamed_8:
	.quad	l___unnamed_48
	.asciz	"`\000\000\000\000\000\000\000,\000\000\000\r\000\000"

	.p2align	3
l___unnamed_27:
	.quad	l___unnamed_48
	.asciz	"`\000\000\000\000\000\000\000=\000\000\000\032\000\000"

	.p2align	3
l___unnamed_10:
	.quad	l___unnamed_48
	.asciz	"`\000\000\000\000\000\000\000L\000\000\000\033\000\000"

	.p2align	3
l___unnamed_18:
	.quad	l___unnamed_48
	.asciz	"`\000\000\000\000\000\000\000Q\000\000\000\037\000\000"

	.p2align	3
l___unnamed_20:
	.quad	l___unnamed_48
	.asciz	"`\000\000\000\000\000\000\000Y\000\000\000?\000\000"

	.p2align	3
l___unnamed_21:
	.quad	l___unnamed_48
	.asciz	"`\000\000\000\000\000\000\000Y\000\000\000\016\000\000"

	.p2align	3
l___unnamed_22:
	.quad	l___unnamed_48
	.asciz	"`\000\000\000\000\000\000\000x\000\000\000\"\000\000"

	.p2align	3
l___unnamed_19:
	.quad	l___unnamed_48
	.asciz	"`\000\000\000\000\000\000\000\177\000\000\000\033\000\000"

	.section	__TEXT,__const
l___unnamed_49:
	.ascii	"assertion failed: `(left == right)`\n  left: `"

l___unnamed_50:
	.ascii	"`,\n right: `"

l___unnamed_51:
	.byte	96

	.section	__DATA,__const
	.p2align	3
l___unnamed_25:
	.quad	l___unnamed_49
	.asciz	"-\000\000\000\000\000\000"
	.quad	l___unnamed_50
	.asciz	"\f\000\000\000\000\000\000"
	.quad	l___unnamed_51
	.asciz	"\001\000\000\000\000\000\000"

	.p2align	3
l___unnamed_26:
	.quad	l___unnamed_48
	.asciz	"`\000\000\000\000\000\000\000\206\000\000\000\t\000\000"

	.section	__TEXT,__const
l___unnamed_52:
	.ascii	"/Users/yingyuhang/.cargo/registry/src/github.com-1ecc6299db9ec823/bit-matrix-0.6.0/src/submatrix.rs"

	.section	__DATA,__const
	.p2align	3
l___unnamed_37:
	.quad	l___unnamed_52
	.asciz	"c\000\000\000\000\000\000\000]\000\000\000\023\000\000"

	.section	__TEXT,__const
l___unnamed_35:
	.ascii	"assertion failed: block < self.slice.len() && col < self.row_bits"

	.section	__DATA,__const
	.p2align	3
l___unnamed_36:
	.quad	l___unnamed_52
	.asciz	"c\000\000\000\000\000\000\000_\000\000\000\t\000\000"

	.p2align	3
l___unnamed_31:
	.quad	l___unnamed_52
	.asciz	"c\000\000\000\000\000\000\000o\000\000\000:\000\000"

	.p2align	3
l___unnamed_32:
	.quad	l___unnamed_52
	.asciz	"c\000\000\000\000\000\000\000o\000\000\000\025\000\000"

	.p2align	3
l___unnamed_33:
	.quad	l___unnamed_52
	.asciz	"c\000\000\000\000\000\000\000\216\000\000\000\"\000\000"

	.p2align	3
l___unnamed_34:
	.quad	l___unnamed_52
	.asciz	"c\000\000\000\000\000\000\000\227\000\000\000\t\000\000"

	.section	__TEXT,__const
l___unnamed_53:
	.byte	10

	.section	__DATA,__const
	.p2align	3
l___unnamed_38:
	.quad	l___unnamed_53
	.asciz	"\001\000\000\000\000\000\000"

	.section	__TEXT,__const
l___unnamed_54:
	.ascii	"/Users/yingyuhang/.cargo/registry/src/github.com-1ecc6299db9ec823/bit-matrix-0.6.0/src/util.rs"

	.section	__DATA,__const
	.p2align	3
l___unnamed_6:
	.quad	l___unnamed_54
	.asciz	"^\000\000\000\000\000\000\000\013\000\000\000\006\000\000"

	.section	__TEXT,__const
	.globl	__ZN10bit_matrix4TRUE17hbff1c112e841285bE
__ZN10bit_matrix4TRUE17hbff1c112e841285bE:
	.byte	1

	.globl	__ZN10bit_matrix5FALSE17hdeb1a5f3103b3f22E
__ZN10bit_matrix5FALSE17hdeb1a5f3103b3f22E:
	.space	1

l___unnamed_40:
	.ascii	"BitMatrix"

l___unnamed_41:
	.ascii	"bit_vec"

	.section	__DATA,__const
	.p2align	3
l___unnamed_1:
	.quad	__ZN4core3ptr13drop_in_place17h7bc710ab44c015b9E
	.quad	8
	.quad	8
	.quad	__ZN42_$LT$$RF$T$u20$as$u20$core..fmt..Debug$GT$3fmt17h852be47467b43634E

	.section	__TEXT,__literal8,8byte_literals
L___unnamed_42:
	.ascii	"row_bits"

	.section	__DATA,__const
	.p2align	3
l___unnamed_2:
	.quad	__ZN4core3ptr13drop_in_place17h7bc710ab44c015b9E
	.quad	8
	.quad	8
	.quad	__ZN42_$LT$$RF$T$u20$as$u20$core..fmt..Debug$GT$3fmt17h8374ef342ebb1919E

	.section	__TEXT,__const
Lsec_end0:
	.section	__DATA,__const
Lsec_end1:
	.section	__TEXT,__text,regular,pure_instructions
Lsec_end2: