	.section	__TEXT,__text,regular,pure_instructions
	.macosx_version_min 10, 7
	.file	1 "/Users/yingyuhang/.cargo/registry/src/github.com-1ecc6299db9ec823/bit-vec-0.6.2/src/lib.rs"
	.p2align	4, 0x90
__ZN4core3ptr13drop_in_place17hab3a91563bb70624E:
Lfunc_begin0:
	.file	2 "/rustc/6c8927b0cf80ceee19386026cf9d7fd4fd9d486f/src/libcore/ptr/mod.rs"
	.loc	2 184 0
	.cfi_startproc
	pushq	%rbp
	.cfi_def_cfa_offset 16
	.cfi_offset %rbp, -16
	movq	%rsp, %rbp
	.cfi_def_cfa_register %rbp
Ltmp0:
	.loc	2 184 1 prologue_end
	movq	8(%rdi), %rsi
Ltmp1:
	.file	3 "/rustc/6c8927b0cf80ceee19386026cf9d7fd4fd9d486f/src/liballoc/raw_vec.rs"
	.loc	3 235 40
	testq	%rsi, %rsi
	.loc	3 235 9 is_stmt 0
	je	LBB0_3
Ltmp2:
	.loc	2 0 0
	movq	(%rdi), %rdi
Ltmp3:
	.loc	3 507 16 is_stmt 1
	testq	%rdi, %rdi
Ltmp4:
	je	LBB0_3
Ltmp5:
	.loc	3 0 0 is_stmt 0
	shlq	$2, %rsi
Ltmp6:
	.loc	3 507 16
	testq	%rsi, %rsi
	je	LBB0_3
Ltmp7:
	.file	4 "/rustc/6c8927b0cf80ceee19386026cf9d7fd4fd9d486f/src/liballoc/alloc.rs"
	.loc	4 102 14 is_stmt 1
	movl	$4, %edx
	popq	%rbp
	jmp	___rust_dealloc
Ltmp8:
LBB0_3:
	.loc	2 184 1
	popq	%rbp
	retq
Ltmp9:
Lfunc_end0:
	.cfi_endproc

	.p2align	4, 0x90
__ZN5alloc3vec12Vec$LT$T$GT$4push17h844f8697d1f12e9fE:
Lfunc_begin1:
	.file	5 "/rustc/6c8927b0cf80ceee19386026cf9d7fd4fd9d486f/src/liballoc/vec.rs"
	.loc	5 1201 0
	.cfi_startproc
	pushq	%rbp
	.cfi_def_cfa_offset 16
	.cfi_offset %rbp, -16
	movq	%rsp, %rbp
	.cfi_def_cfa_register %rbp
	pushq	%r15
	pushq	%r14
	pushq	%rbx
	pushq	%rax
	.cfi_offset %rbx, -40
	.cfi_offset %r14, -32
	.cfi_offset %r15, -24
	movl	%esi, %r14d
	movq	%rdi, %rbx
Ltmp10:
	.loc	5 1204 12 prologue_end
	movq	16(%rdi), %rcx
	cmpq	8(%rdi), %rcx
	.loc	5 1204 9 is_stmt 0
	jne	LBB1_18
Ltmp11:
	.file	6 "/rustc/6c8927b0cf80ceee19386026cf9d7fd4fd9d486f/src/libcore/num/mod.rs"
	.loc	6 3751 30 is_stmt 1
	movq	%rcx, %rax
	incq	%rax
Ltmp12:
	.file	7 "/rustc/6c8927b0cf80ceee19386026cf9d7fd4fd9d486f/src/libcore/option.rs"
	.loc	7 538 13
	je	LBB1_19
Ltmp13:
	.loc	3 408 28
	leaq	(%rcx,%rcx), %rdx
Ltmp14:
	.file	8 "/rustc/6c8927b0cf80ceee19386026cf9d7fd4fd9d486f/src/libcore/cmp.rs"
	.loc	8 1016 9
	cmpq	%rax, %rdx
	.loc	8 0 0 is_stmt 0
	cmovaq	%rdx, %rax
Ltmp15:
	cmpq	$4, %rax
	movl	$4, %edx
Ltmp16:
	cmovbeq	%rdx, %rax
Ltmp17:
	.file	9 "/rustc/6c8927b0cf80ceee19386026cf9d7fd4fd9d486f/src/libcore/alloc/layout.rs"
	.loc	9 286 85 is_stmt 1
	xorl	%esi, %esi
Ltmp18:
	.loc	6 3807 26
	mulq	%rdx
Ltmp19:
	movq	%rax, %r15
Ltmp20:
	.loc	6 0 26 is_stmt 0
	seto	%dl
Ltmp21:
	.loc	9 286 85 is_stmt 1
	setno	%dil
Ltmp22:
	.loc	3 235 9
	movq	%rcx, %rax
	.loc	3 235 40 is_stmt 0
	testq	%rcx, %rcx
	.loc	3 235 9
	je	LBB1_4
Ltmp23:
	.loc	3 0 9
	movq	(%rbx), %rax
Ltmp24:
LBB1_4:
	.file	10 "/rustc/6c8927b0cf80ceee19386026cf9d7fd4fd9d486f/src/libcore/result.rs"
	.loc	10 611 13 is_stmt 1
	testb	%dl, %dl
	jne	LBB1_19
Ltmp25:
	.loc	3 493 25
	testq	%rax, %rax
	je	LBB1_6
Ltmp26:
	.loc	3 0 0 is_stmt 0
	leaq	(,%rcx,4), %rsi
Ltmp27:
	.loc	4 205 12 is_stmt 1
	cmpq	%r15, %rsi
	.loc	4 205 9 is_stmt 0
	je	LBB1_15
Ltmp28:
	.loc	4 211 42 is_stmt 1
	testq	%rsi, %rsi
	je	LBB1_10
Ltmp29:
	.loc	4 124 14
	movl	$4, %edx
	movq	%rax, %rdi
	movq	%r15, %rcx
Ltmp30:
	callq	___rust_realloc
Ltmp31:
	.loc	4 0 14 is_stmt 0
	jmp	LBB1_15
Ltmp32:
LBB1_6:
	movb	%dil, %sil
	shlq	$2, %rsi
Ltmp33:
	.loc	4 170 16 is_stmt 1
	testq	%r15, %r15
	.loc	4 170 13 is_stmt 0
	jne	LBB1_13
Ltmp34:
	.loc	3 0 0
	movq	%rsi, %rax
Ltmp35:
	jmp	LBB1_15
Ltmp36:
LBB1_10:
	.loc	4 170 16
	testq	%r15, %r15
	.loc	4 170 13
	je	LBB1_11
Ltmp37:
	.loc	4 80 14 is_stmt 1
	movl	$4, %esi
Ltmp38:
LBB1_13:
	.loc	3 0 0 is_stmt 0
	movq	%r15, %rdi
	callq	___rust_alloc
Ltmp39:
LBB1_15:
	.loc	10 611 13 is_stmt 1
	testq	%rax, %rax
	je	LBB1_20
Ltmp40:
	.loc	5 1208 45
	movq	16(%rbx), %rcx
Ltmp41:
LBB1_17:
	.loc	3 382 9
	movq	%rax, (%rbx)
Ltmp42:
	.loc	3 378 9
	shrq	$2, %r15
Ltmp43:
	.loc	3 383 9
	movq	%r15, 8(%rbx)
Ltmp44:
LBB1_18:
	.loc	5 854 19
	movq	(%rbx), %rax
Ltmp45:
	.loc	2 901 51
	movl	%r14d, (%rax,%rcx,4)
Ltmp46:
	.loc	5 1210 13
	incq	16(%rbx)
Ltmp47:
	.loc	5 1212 6
	addq	$8, %rsp
	popq	%rbx
Ltmp48:
	popq	%r14
Ltmp49:
	popq	%r15
	popq	%rbp
	retq
Ltmp50:
LBB1_11:
	.loc	5 0 6 is_stmt 0
	movl	$4, %eax
Ltmp51:
	jmp	LBB1_17
Ltmp52:
LBB1_19:
	.loc	3 301 38 is_stmt 1
	callq	__ZN5alloc7raw_vec17capacity_overflow17h7526b10e27579d59E
Ltmp53:
LBB1_20:
	.loc	3 302 47
	movl	$4, %esi
	movq	%r15, %rdi
	callq	__ZN5alloc5alloc18handle_alloc_error17h28974197717b8939E
Ltmp54:
Lfunc_end1:
	.cfi_endproc
	.file	11 "/rustc/6c8927b0cf80ceee19386026cf9d7fd4fd9d486f/src/libcore/macros/mod.rs"

	.section	__TEXT,__literal16,16byte_literals
	.p2align	4
LCPI2_0:
	.space	16,1
LCPI2_1:
	.byte	2
	.byte	2
	.byte	0
	.byte	0
	.byte	0
	.byte	0
	.byte	0
	.byte	0
	.byte	0
	.byte	0
	.byte	0
	.byte	0
	.byte	0
	.byte	0
	.byte	0
	.byte	0
LCPI2_2:
	.byte	4
	.byte	4
	.byte	0
	.byte	0
	.byte	0
	.byte	0
	.byte	0
	.byte	0
	.byte	0
	.byte	0
	.byte	0
	.byte	0
	.byte	0
	.byte	0
	.byte	0
	.byte	0
LCPI2_3:
	.byte	8
	.byte	8
	.byte	0
	.byte	0
	.byte	0
	.byte	0
	.byte	0
	.byte	0
	.byte	0
	.byte	0
	.byte	0
	.byte	0
	.byte	0
	.byte	0
	.byte	0
	.byte	0
LCPI2_4:
	.byte	16
	.byte	16
	.space	1
	.space	1
	.space	1
	.space	1
	.space	1
	.space	1
	.space	1
	.space	1
	.space	1
	.space	1
	.space	1
	.space	1
	.space	1
	.space	1
LCPI2_5:
	.byte	32
	.byte	32
	.byte	0
	.byte	0
	.byte	0
	.byte	0
	.byte	0
	.byte	0
	.byte	0
	.byte	0
	.byte	0
	.byte	0
	.byte	0
	.byte	0
	.byte	0
	.byte	0
LCPI2_6:
	.byte	64
	.byte	64
	.byte	0
	.byte	0
	.byte	0
	.byte	0
	.byte	0
	.byte	0
	.byte	0
	.byte	0
	.byte	0
	.byte	0
	.byte	0
	.byte	0
	.byte	0
	.byte	0
LCPI2_7:
	.space	16,128
	.section	__TEXT,__text,regular,pure_instructions
	.globl	__ZN7bit_vec6BitVec10from_bytes17h86795c877f484a02E
	.p2align	4, 0x90
__ZN7bit_vec6BitVec10from_bytes17h86795c877f484a02E:
Lfunc_begin2:
	.loc	1 326 0
	.cfi_startproc
	.cfi_personality 155, _rust_eh_personality
	.cfi_lsda 16, Lexception0
	pushq	%rbp
	.cfi_def_cfa_offset 16
	.cfi_offset %rbp, -16
	movq	%rsp, %rbp
	.cfi_def_cfa_register %rbp
	pushq	%r15
	pushq	%r14
	pushq	%r13
	pushq	%r12
	pushq	%rbx
	pushq	%rax
	.cfi_offset %rbx, -56
	.cfi_offset %r12, -48
	.cfi_offset %r13, -40
	.cfi_offset %r14, -32
	.cfi_offset %r15, -24
Ltmp65:
	movq	%rdx, %r12
	movq	%rdi, -48(%rbp)
Ltmp66:
	movl	$8, %ecx
Ltmp67:
	.loc	6 3807 26 prologue_end
	movq	%rdx, %rax
	mulq	%rcx
Ltmp68:
	.loc	7 346 13
	jo	LBB2_27
Ltmp69:
	.loc	7 0 13 is_stmt 0
	movq	%rsi, %r13
Ltmp70:
	movq	%rax, %r14
Ltmp71:
	.loc	1 241 8 is_stmt 1
	andl	$24, %eax
	.loc	1 241 5 is_stmt 0
	movq	%r14, %rbx
	shrq	$5, %rbx
	cmpq	$1, %rax
	sbbq	$-1, %rbx
Ltmp72:
	.loc	4 170 13 is_stmt 1
	je	LBB2_2
Ltmp73:
	.loc	3 0 0 is_stmt 0
	leaq	(,%rbx,4), %r15
Ltmp74:
	.loc	4 80 14 is_stmt 1
	movl	$4, %esi
	movq	%r15, %rdi
	callq	___rust_alloc
Ltmp75:
	.loc	3 184 17
	testq	%rax, %rax
	jne	LBB2_4
Ltmp76:
	.loc	3 185 27
	movl	$4, %esi
	movq	%r15, %rdi
	callq	__ZN5alloc5alloc18handle_alloc_error17h28974197717b8939E
Ltmp77:
LBB2_2:
	.loc	3 0 27 is_stmt 0
	movl	$4, %eax
Ltmp78:
LBB2_4:
	movq	-48(%rbp), %rcx
	.loc	1 305 9 is_stmt 1
	movq	%rax, (%rcx)
	movq	%rbx, 8(%rcx)
	movq	$0, 16(%rcx)
Ltmp79:
	.loc	1 329 30
	movq	%r12, %r15
	shrq	$2, %r15
Ltmp80:
	.loc	1 332 9
	movq	%r14, 24(%rcx)
	movl	$1, %r14d
Ltmp81:
	.p2align	4, 0x90
LBB2_5:
	.loc	8 1136 52
	testq	%r15, %r15
Ltmp82:
	.file	12 "/rustc/6c8927b0cf80ceee19386026cf9d7fd4fd9d486f/src/libcore/iter/range.rs"
	.loc	12 505 9
	je	LBB2_6
Ltmp83:
	.loc	1 338 47
	leaq	-1(%r14), %rdi
	cmpq	%r12, %rdi
	jae	LBB2_14
Ltmp84:
	cmpq	%r12, %r14
	jae	LBB2_13
Ltmp85:
	leaq	1(%r14), %rdi
	cmpq	%r12, %rdi
	jae	LBB2_14
Ltmp86:
	leaq	2(%r14), %rdi
	cmpq	%r12, %rdi
	jae	LBB2_14
Ltmp87:
	.loc	1 0 0 is_stmt 0
	movzbl	-1(%r13,%r14), %eax
	movzbl	(%r13,%r14), %ecx
Ltmp88:
	.loc	1 174 20 is_stmt 1
	movl	%ecx, %edx
	shrb	$7, %dl
	.loc	1 174 19 is_stmt 0
	movl	%ecx, %ebx
	shlb	$7, %bl
	.loc	1 174 9
	orb	%dl, %bl
	.loc	1 174 19
	movl	%ecx, %edx
	shlb	$5, %dl
	andb	$64, %dl
	.loc	1 174 9
	orb	%bl, %dl
	.loc	1 174 19
	leal	(,%rcx,8), %esi
	andb	$32, %sil
	.loc	1 174 9
	orb	%dl, %sil
	.loc	1 174 19
	leal	(%rcx,%rcx), %edx
	andb	$16, %dl
	.loc	1 174 9
	orb	%sil, %dl
	.loc	1 174 19
	movl	%ecx, %ebx
	shrb	%bl
	andb	$8, %bl
	.loc	1 174 9
	orb	%dl, %bl
	.loc	1 174 19
	movl	%ecx, %edx
	shrb	$3, %dl
	andb	$4, %dl
	.loc	1 174 9
	orb	%bl, %dl
	.loc	1 174 19
	shrb	$5, %cl
	andb	$2, %cl
	.loc	1 174 9
	orb	%dl, %cl
Ltmp89:
	.file	13 "/rustc/6c8927b0cf80ceee19386026cf9d7fd4fd9d486f/src/libcore/convert/num.rs"
	.loc	13 52 17 is_stmt 1
	movzbl	%cl, %ecx
Ltmp90:
	.loc	1 338 21
	shll	$8, %ecx
Ltmp91:
	.loc	1 174 20
	movl	%eax, %edx
	shrb	$7, %dl
	.loc	1 174 19 is_stmt 0
	movl	%eax, %ebx
	shlb	$7, %bl
	.loc	1 174 9
	orb	%dl, %bl
	.loc	1 174 19
	movl	%eax, %edx
	shlb	$5, %dl
	andb	$64, %dl
	.loc	1 174 9
	orb	%bl, %dl
	.loc	1 174 19
	leal	(,%rax,8), %esi
	andb	$32, %sil
	.loc	1 174 9
	orb	%dl, %sil
	.loc	1 174 19
	leal	(%rax,%rax), %edx
	andb	$16, %dl
	.loc	1 174 9
	orb	%sil, %dl
	.loc	1 174 19
	movl	%eax, %ebx
	shrb	%bl
	andb	$8, %bl
	.loc	1 174 9
	orb	%dl, %bl
	.loc	1 174 19
	movl	%eax, %edx
	shrb	$3, %dl
	andb	$4, %dl
	.loc	1 174 9
	orb	%bl, %dl
	.loc	1 174 19
	shrb	$5, %al
	andb	$2, %al
	.loc	1 174 9
	orb	%dl, %al
Ltmp92:
	.loc	13 52 17 is_stmt 1
	movzbl	%al, %eax
Ltmp93:
	.loc	1 337 17
	orl	%ecx, %eax
Ltmp94:
	.loc	1 338 47
	movzbl	2(%r13,%r14), %ecx
Ltmp95:
	.loc	1 174 20
	movzbl	1(%r13,%r14), %edx
	shll	$8, %edx
	orl	%ecx, %edx
	movd	%edx, %xmm0
	movdqa	%xmm0, %xmm2
	psrlw	$7, %xmm2
	pand	LCPI2_0(%rip), %xmm2
	.loc	1 174 19 is_stmt 0
	movdqa	%xmm0, %xmm1
	psrlw	$5, %xmm1
	pand	LCPI2_1(%rip), %xmm1
	movdqa	%xmm0, %xmm3
	psrlw	$3, %xmm3
	pand	LCPI2_2(%rip), %xmm3
	movdqa	%xmm0, %xmm4
	psrlw	$1, %xmm4
	pand	LCPI2_3(%rip), %xmm4
	movdqa	%xmm0, %xmm5
	paddb	%xmm0, %xmm5
	pand	LCPI2_4(%rip), %xmm5
	.loc	1 174 9
	por	%xmm4, %xmm5
	por	%xmm3, %xmm5
	.loc	1 174 19
	movdqa	%xmm0, %xmm3
	psllw	$3, %xmm3
	pand	LCPI2_5(%rip), %xmm3
	movdqa	%xmm0, %xmm4
	psllw	$5, %xmm4
	pand	LCPI2_6(%rip), %xmm4
	.loc	1 174 9
	por	%xmm3, %xmm4
	.loc	1 174 19
	psllw	$7, %xmm0
	pand	LCPI2_7(%rip), %xmm0
	.loc	1 174 9
	por	%xmm2, %xmm0
	por	%xmm4, %xmm0
	por	%xmm5, %xmm0
	por	%xmm1, %xmm0
	pxor	%xmm2, %xmm2
Ltmp96:
	.loc	13 52 17 is_stmt 1
	punpcklbw	%xmm2, %xmm0
Ltmp97:
	.loc	1 338 21
	pxor	%xmm1, %xmm1
	punpcklwd	%xmm0, %xmm1
Ltmp98:
	.loc	13 52 17
	punpcklwd	%xmm2, %xmm0
Ltmp99:
	.loc	1 338 21
	pslld	$24, %xmm0
	.loc	1 337 17
	pshufd	$229, %xmm1, %xmm1
	movd	%xmm1, %ecx
	orl	%eax, %ecx
Ltmp100:
	movd	%xmm0, %esi
	orl	%ecx, %esi
Ltmp101:
	.loc	1 340 13
	addq	$4, %r14
	decq	%r15
Ltmp57:
	movq	-48(%rbp), %rdi
	callq	__ZN5alloc3vec12Vec$LT$T$GT$4push17h844f8697d1f12e9fE
Ltmp102:
Ltmp58:
	jmp	LBB2_5
Ltmp103:
LBB2_6:
	.loc	1 343 12
	testb	$3, %r12b
	.loc	1 343 9 is_stmt 0
	je	LBB2_10
Ltmp104:
	.loc	1 345 37 is_stmt 1
	movq	%r12, %rax
	andq	$-4, %rax
Ltmp105:
	.loc	1 0 37 is_stmt 0
	xorl	%esi, %esi
Ltmp106:
	.file	14 "/rustc/6c8927b0cf80ceee19386026cf9d7fd4fd9d486f/src/libcore/slice/mod.rs"
	.loc	14 3440 9 is_stmt 1
	cmpq	%r12, %rax
	.loc	14 3570 21
	je	LBB2_9
Ltmp107:
	.loc	1 0 0 is_stmt 0
	addq	%r13, %r12
Ltmp108:
	.file	15 "/rustc/6c8927b0cf80ceee19386026cf9d7fd4fd9d486f/src/libcore/ptr/mut_ptr.rs"
	.loc	15 165 18 is_stmt 1
	leaq	1(%r13,%rax), %rdi
Ltmp109:
	.loc	1 345 22
	movb	(%r13,%rax), %dl
Ltmp110:
	.loc	1 174 20
	movl	%edx, %ebx
	shrb	$7, %bl
	.loc	1 174 19 is_stmt 0
	movl	%edx, %ecx
	shlb	$7, %cl
Ltmp111:
	.loc	1 174 9
	orb	%bl, %cl
Ltmp112:
	.loc	1 174 19
	movl	%edx, %ebx
	shlb	$5, %bl
	andb	$64, %bl
	.loc	1 174 9
	orb	%cl, %bl
	.loc	1 174 19
	leal	(,%rdx,8), %ecx
	andb	$32, %cl
	.loc	1 174 9
	orb	%bl, %cl
	.loc	1 174 19
	leal	(%rdx,%rdx), %esi
	andb	$16, %sil
	.loc	1 174 9
	orb	%cl, %sil
	.loc	1 174 19
	movl	%edx, %ecx
	shrb	%cl
	andb	$8, %cl
	.loc	1 174 9
	orb	%sil, %cl
	.loc	1 174 19
	movl	%edx, %ebx
	shrb	$3, %bl
	andb	$4, %bl
	.loc	1 174 9
	orb	%cl, %bl
	.loc	1 174 19
	shrb	$5, %dl
Ltmp113:
	andb	$2, %dl
	.loc	1 174 9
	orb	%bl, %dl
Ltmp114:
	.loc	13 52 17 is_stmt 1
	movzbl	%dl, %esi
Ltmp115:
	.loc	14 3440 9
	cmpq	%r12, %rdi
	.loc	14 3570 21
	je	LBB2_9
Ltmp116:
	.loc	1 0 0 is_stmt 0
	addq	%rax, %r13
Ltmp117:
	.loc	15 165 18 is_stmt 1
	leaq	2(%r13), %rax
Ltmp118:
	.loc	1 345 22
	movb	1(%r13), %cl
Ltmp119:
	.loc	1 174 20
	movl	%ecx, %edx
	shrb	$7, %dl
	.loc	1 174 19 is_stmt 0
	movl	%ecx, %ebx
	shlb	$7, %bl
Ltmp120:
	.loc	1 174 9
	orb	%dl, %bl
Ltmp121:
	.loc	1 174 19
	movl	%ecx, %edx
	shlb	$5, %dl
	andb	$64, %dl
	.loc	1 174 9
	orb	%bl, %dl
	.loc	1 174 19
	leal	(,%rcx,8), %edi
	andb	$32, %dil
	.loc	1 174 9
	orb	%dl, %dil
	.loc	1 174 19
	leal	(%rcx,%rcx), %edx
	andb	$16, %dl
	.loc	1 174 9
	orb	%dil, %dl
	.loc	1 174 19
	movl	%ecx, %ebx
	shrb	%bl
	andb	$8, %bl
	.loc	1 174 9
	orb	%dl, %bl
	.loc	1 174 19
	movl	%ecx, %edx
	shrb	$3, %dl
	andb	$4, %dl
	.loc	1 174 9
	orb	%bl, %dl
	.loc	1 174 19
	shrb	$5, %cl
Ltmp122:
	andb	$2, %cl
	.loc	1 174 9
	orb	%dl, %cl
Ltmp123:
	.loc	13 52 17 is_stmt 1
	movzbl	%cl, %ecx
Ltmp124:
	.loc	1 347 21
	shll	$8, %ecx
	.loc	1 346 17
	orl	%ecx, %esi
Ltmp125:
	.loc	14 3440 9
	cmpq	%r12, %rax
Ltmp126:
	.loc	14 3570 21
	je	LBB2_9
Ltmp127:
	.loc	15 165 18
	leaq	3(%r13), %rax
Ltmp128:
	.loc	1 345 22
	movb	2(%r13), %cl
Ltmp129:
	.loc	1 174 20
	movl	%ecx, %edx
	shrb	$7, %dl
	.loc	1 174 19 is_stmt 0
	movl	%ecx, %ebx
	shlb	$7, %bl
Ltmp130:
	.loc	1 174 9
	orb	%dl, %bl
Ltmp131:
	.loc	1 174 19
	movl	%ecx, %edx
	shlb	$5, %dl
	andb	$64, %dl
	.loc	1 174 9
	orb	%bl, %dl
	.loc	1 174 19
	leal	(,%rcx,8), %edi
	andb	$32, %dil
	.loc	1 174 9
	orb	%dl, %dil
	.loc	1 174 19
	leal	(%rcx,%rcx), %edx
	andb	$16, %dl
	.loc	1 174 9
	orb	%dil, %dl
	.loc	1 174 19
	movl	%ecx, %ebx
	shrb	%bl
	andb	$8, %bl
	.loc	1 174 9
	orb	%dl, %bl
	.loc	1 174 19
	movl	%ecx, %edx
	shrb	$3, %dl
	andb	$4, %dl
	.loc	1 174 9
	orb	%bl, %dl
	.loc	1 174 19
	shrb	$5, %cl
Ltmp132:
	andb	$2, %cl
	.loc	1 174 9
	orb	%dl, %cl
Ltmp133:
	.loc	13 52 17 is_stmt 1
	movzbl	%cl, %ecx
Ltmp134:
	.loc	1 347 21
	shll	$16, %ecx
	.loc	1 346 17
	orl	%ecx, %esi
Ltmp135:
	.loc	14 3440 9
	cmpq	%r12, %rax
Ltmp136:
	.loc	14 3570 21
	je	LBB2_9
Ltmp137:
	.loc	15 165 18
	leaq	4(%r13), %rax
Ltmp138:
	.loc	14 3440 9
	cmpq	%r12, %rax
Ltmp139:
	.loc	14 3570 21
	jne	LBB2_26
Ltmp140:
	.loc	14 0 21 is_stmt 0
	movb	3(%r13), %al
Ltmp141:
	movl	%eax, %ecx
	shrb	$7, %cl
	movl	%eax, %edx
	shlb	$7, %dl
	orb	%cl, %dl
	movl	%eax, %ecx
	shlb	$5, %cl
	andb	$64, %cl
	orb	%dl, %cl
	leal	(,%rax,8), %edx
	andb	$32, %dl
	orb	%cl, %dl
	leal	(%rax,%rax), %ecx
	andb	$16, %cl
	orb	%dl, %cl
	movl	%eax, %edx
	shrb	%dl
	andb	$8, %dl
	orb	%cl, %dl
	movl	%eax, %ecx
	shrb	$3, %cl
	andb	$4, %cl
	orb	%dl, %cl
	shrb	$5, %al
Ltmp142:
	andb	$2, %al
	orb	%cl, %al
Ltmp143:
	movzbl	%al, %eax
Ltmp144:
	shll	$24, %eax
	orl	%eax, %esi
Ltmp145:
LBB2_9:
Ltmp62:
	movq	-48(%rbp), %rdi
	.loc	1 349 13 is_stmt 1
	callq	__ZN5alloc3vec12Vec$LT$T$GT$4push17h844f8697d1f12e9fE
Ltmp146:
Ltmp63:
LBB2_10:
	.loc	1 0 13 is_stmt 0
	movq	-48(%rbp), %rax
	.loc	1 353 6 is_stmt 1
	addq	$8, %rsp
	popq	%rbx
	popq	%r12
	popq	%r13
	popq	%r14
	popq	%r15
	popq	%rbp
	retq
LBB2_13:
Ltmp147:
	.loc	1 338 53
	movq	%r14, %rdi
Ltmp148:
LBB2_14:
Ltmp55:
	.loc	1 338 47 is_stmt 0
	leaq	l___unnamed_1(%rip), %rdx
	movq	%r12, %rsi
	callq	__ZN4core9panicking18panic_bounds_check17he87128426d100e93E
Ltmp56:
	jmp	LBB2_18
Ltmp149:
LBB2_27:
	.loc	7 347 21 is_stmt 1
	leaq	l___unnamed_2(%rip), %rdi
	leaq	l___unnamed_3(%rip), %rdx
	movl	$17, %esi
Ltmp150:
	callq	__ZN4core6option13expect_failed17h7591ba70e88f159aE
Ltmp151:
LBB2_26:
Ltmp60:
	.loc	1 347 21 is_stmt 0
	leaq	_str.4(%rip), %rdi
	leaq	l___unnamed_4(%rip), %rdx
	movl	$35, %esi
	callq	__ZN4core9panicking5panic17h383a6b80ea7021aaE
Ltmp152:
Ltmp61:
	jmp	LBB2_18
Ltmp153:
LBB2_16:
Ltmp64:
	.loc	1 0 21
	jmp	LBB2_17
LBB2_15:
Ltmp154:
Ltmp59:
LBB2_17:
	movq	%rax, %rbx
	movq	-48(%rbp), %rdi
	.loc	1 353 5 is_stmt 1
	callq	__ZN4core3ptr13drop_in_place17hab3a91563bb70624E
	movq	%rbx, %rdi
	callq	__Unwind_Resume
Ltmp155:
LBB2_18:
	.loc	1 0 5 is_stmt 0
	ud2
Lfunc_end2:
	.cfi_endproc
	.file	16 "/rustc/6c8927b0cf80ceee19386026cf9d7fd4fd9d486f/src/libcore/iter/adapters/mod.rs"
	.section	__TEXT,__gcc_except_tab
	.p2align	2
GCC_except_table2:
Lexception0:
	.byte	255
	.byte	255
	.byte	1
	.uleb128 Lcst_end0-Lcst_begin0
Lcst_begin0:
	.uleb128 Ltmp57-Lfunc_begin2
	.uleb128 Ltmp58-Ltmp57
	.uleb128 Ltmp59-Lfunc_begin2
	.byte	0
	.uleb128 Ltmp62-Lfunc_begin2
	.uleb128 Ltmp56-Ltmp62
	.uleb128 Ltmp64-Lfunc_begin2
	.byte	0
	.uleb128 Ltmp56-Lfunc_begin2
	.uleb128 Ltmp60-Ltmp56
	.byte	0
	.byte	0
	.uleb128 Ltmp60-Lfunc_begin2
	.uleb128 Ltmp61-Ltmp60
	.uleb128 Ltmp64-Lfunc_begin2
	.byte	0
	.uleb128 Ltmp61-Lfunc_begin2
	.uleb128 Lfunc_end2-Ltmp61
	.byte	0
	.byte	0
Lcst_end0:
	.p2align	2

	.section	__TEXT,__const
l___unnamed_5:
	.ascii	"/Users/yingyuhang/.cargo/registry/src/github.com-1ecc6299db9ec823/bit-vec-0.6.2/src/lib.rs"

	.p2align	4
_str.4:
	.ascii	"attempt to shift left with overflow"

	.globl	__ZN7bit_vec4TRUE17h878f7c98efde23eaE
__ZN7bit_vec4TRUE17h878f7c98efde23eaE:
	.byte	1

	.globl	__ZN7bit_vec5FALSE17hda99df8a75e5c36fE
__ZN7bit_vec5FALSE17hda99df8a75e5c36fE:
	.space	1

l___unnamed_2:
	.ascii	"capacity overflow"

	.section	__DATA,__const
	.p2align	3
l___unnamed_3:
	.quad	l___unnamed_5
	.asciz	"Z\000\000\000\000\000\000\000G\001\000\0007\000\000"

	.p2align	3
l___unnamed_1:
	.quad	l___unnamed_5
	.asciz	"Z\000\000\000\000\000\000\000R\001\000\000/\000\000"

	.p2align	3
l___unnamed_4:
	.quad	l___unnamed_5
	.asciz	"Z\000\000\000\000\000\000\000[\001\000\000\025\000\000"

	.section	__TEXT,__const
Lsec_end0:
	.section	__TEXT,__text,regular,pure_instructions
Lsec_end1: