	.section	__TEXT,__text,regular,pure_instructions
	.macosx_version_min 10, 7
	.file	1 "/Users/yingyuhang/.cargo/registry/src/github.com-1ecc6299db9ec823/bit-matrix-0.6.0/src/lib.rs"
	.p2align	4, 0x90
__ZN42_$LT$$RF$T$u20$as$u20$core..fmt..Debug$GT$3fmt17h231a25994e7ef420E:
Lfunc_begin0:
	.file	2 "/rustc/6c8927b0cf80ceee19386026cf9d7fd4fd9d486f/src/libcore/fmt/mod.rs"
	.loc	2 2022 0
	.cfi_startproc
	pushq	%rbp
	.cfi_def_cfa_offset 16
	.cfi_offset %rbp, -16
	movq	%rsp, %rbp
	.cfi_def_cfa_register %rbp
	pushq	%r15
	pushq	%r14
	pushq	%r13
	pushq	%r12
	pushq	%rbx
	subq	$72, %rsp
	.cfi_offset %rbx, -56
	.cfi_offset %r12, -48
	.cfi_offset %r13, -40
	.cfi_offset %r14, -32
	.cfi_offset %r15, -24
	movq	%rsi, %r15
Ltmp0:
	.loc	2 2022 71 prologue_end
	movq	(%rdi), %rax
Ltmp1:
	.file	3 "/Users/yingyuhang/.cargo/registry/src/github.com-1ecc6299db9ec823/bit-vec-0.6.2/src/lib.rs"
	.loc	3 929 41
	movq	24(%rax), %rbx
Ltmp2:
	.file	4 "/rustc/6c8927b0cf80ceee19386026cf9d7fd4fd9d486f/src/liballoc/vec.rs"
	.loc	4 0 0 is_stmt 0
	movq	(%rax), %r12
Ltmp3:
	movq	16(%rax), %r13
	xorl	%ecx, %ecx
Ltmp4:
	.p2align	4, 0x90
LBB0_1:
	.file	5 "/rustc/6c8927b0cf80ceee19386026cf9d7fd4fd9d486f/src/libcore/cmp.rs"
	.loc	5 1136 52 is_stmt 1
	cmpq	%rcx, %rbx
Ltmp5:
	.file	6 "/rustc/6c8927b0cf80ceee19386026cf9d7fd4fd9d486f/src/libcore/iter/range.rs"
	.loc	6 505 9
	je	LBB0_2
Ltmp6:
	.loc	3 512 17
	movq	%rcx, %rax
	shrq	$5, %rax
Ltmp7:
	.file	7 "/rustc/6c8927b0cf80ceee19386026cf9d7fd4fd9d486f/src/libcore/slice/mod.rs"
	.loc	7 3090 12
	cmpq	%rax, %r13
Ltmp8:
	.file	8 "/rustc/6c8927b0cf80ceee19386026cf9d7fd4fd9d486f/src/libcore/option.rs"
	.loc	8 456 13
	jbe	LBB0_7
Ltmp9:
	.loc	8 456 29 is_stmt 0
	movl	(%r12,%rax,4), %eax
Ltmp10:
	.file	9 "/rustc/6c8927b0cf80ceee19386026cf9d7fd4fd9d486f/src/libcore/num/mod.rs"
	.loc	9 3013 26 is_stmt 1
	leaq	1(%rcx), %r14
Ltmp11:
	.loc	5 1054 52
	xorl	%edx, %edx
	btl	%ecx, %eax
	setb	%dl
Ltmp12:
	.loc	3 0 0 is_stmt 0
	movl	%edx, -44(%rbp)
Ltmp13:
	.file	10 "/rustc/6c8927b0cf80ceee19386026cf9d7fd4fd9d486f/src/libcore/macros/mod.rs"
	.loc	10 418 49 is_stmt 1
	leaq	-44(%rbp), %rax
Ltmp14:
	movq	%rax, -64(%rbp)
	movq	__ZN4core3fmt3num3imp52_$LT$impl$u20$core..fmt..Display$u20$for$u20$i32$GT$3fmt17h00ed7ff77f9da654E@GOTPCREL(%rip), %rax
	movq	%rax, -56(%rbp)
Ltmp15:
	.loc	2 328 9
	leaq	l___unnamed_3(%rip), %rax
Ltmp16:
	movq	%rax, -112(%rbp)
Ltmp17:
	movq	$1, -104(%rbp)
	movq	$0, -96(%rbp)
	leaq	-64(%rbp), %rax
	movq	%rax, -80(%rbp)
	movq	$1, -72(%rbp)
Ltmp18:
	.loc	10 418 34
	movq	%r15, %rdi
	leaq	-112(%rbp), %rsi
	callq	__ZN4core3fmt9Formatter9write_fmt17h742ca6aae87ad23cE
Ltmp19:
	.loc	3 0 0 is_stmt 0
	movq	%r14, %rcx
Ltmp20:
	.loc	3 1460 55 is_stmt 1
	testb	%al, %al
	je	LBB0_1
Ltmp21:
	.loc	3 0 55 is_stmt 0
	movb	$1, %al
	jmp	LBB0_6
Ltmp22:
LBB0_2:
	xorl	%eax, %eax
Ltmp23:
LBB0_6:
	.loc	2 2022 84 is_stmt 1
	addq	$72, %rsp
	popq	%rbx
	popq	%r12
	popq	%r13
	popq	%r14
	popq	%r15
Ltmp24:
	popq	%rbp
	retq
LBB0_7:
Ltmp25:
	.loc	10 10 9
	leaq	l___unnamed_4(%rip), %rdi
	leaq	l___unnamed_5(%rip), %rdx
	movl	$43, %esi
	callq	__ZN4core9panicking5panic17h383a6b80ea7021aaE
Ltmp26:
Lfunc_end0:
	.cfi_endproc

	.p2align	4, 0x90
__ZN42_$LT$$RF$T$u20$as$u20$core..fmt..Debug$GT$3fmt17h4ce3503ddfc18036E:
Lfunc_begin1:
	.loc	2 2022 0
	.cfi_startproc
	pushq	%rbp
	.cfi_def_cfa_offset 16
	.cfi_offset %rbp, -16
	movq	%rsp, %rbp
	.cfi_def_cfa_register %rbp
	pushq	%r14
	pushq	%rbx
	.cfi_offset %rbx, -32
	.cfi_offset %r14, -24
	movq	%rsi, %rbx
Ltmp27:
	.loc	2 2022 71 prologue_end
	movq	(%rdi), %r14
Ltmp28:
	.file	11 "/rustc/6c8927b0cf80ceee19386026cf9d7fd4fd9d486f/src/libcore/fmt/num.rs"
	.loc	11 149 20
	movq	%rsi, %rdi
Ltmp29:
	callq	__ZN4core3fmt9Formatter15debug_lower_hex17hd07f6fde8d0365dfE
	.loc	11 149 17 is_stmt 0
	testb	%al, %al
	je	LBB1_1
Ltmp30:
	.loc	11 150 21 is_stmt 1
	movq	%r14, %rdi
	movq	%rbx, %rsi
	popq	%rbx
Ltmp31:
	popq	%r14
Ltmp32:
	popq	%rbp
	jmp	__ZN4core3fmt3num55_$LT$impl$u20$core..fmt..LowerHex$u20$for$u20$usize$GT$3fmt17hc47c170655f2f8b1E
LBB1_1:
Ltmp33:
	.loc	11 151 27
	movq	%rbx, %rdi
	callq	__ZN4core3fmt9Formatter15debug_upper_hex17hf480c256a9c81c1eE
	.loc	11 154 21
	movq	%r14, %rdi
	movq	%rbx, %rsi
	.loc	11 151 24
	testb	%al, %al
	je	LBB1_4
Ltmp34:
	.loc	11 152 21
	popq	%rbx
Ltmp35:
	popq	%r14
Ltmp36:
	popq	%rbp
	jmp	__ZN4core3fmt3num55_$LT$impl$u20$core..fmt..UpperHex$u20$for$u20$usize$GT$3fmt17he5a77a1ce12f6c22E
LBB1_4:
Ltmp37:
	.loc	11 154 21
	popq	%rbx
Ltmp38:
	popq	%r14
Ltmp39:
	popq	%rbp
	jmp	__ZN4core3fmt3num3imp54_$LT$impl$u20$core..fmt..Display$u20$for$u20$usize$GT$3fmt17h12ea2856299c9b06E
Ltmp40:
Lfunc_end1:
	.cfi_endproc

	.p2align	4, 0x90
__ZN4core3fmt3num52_$LT$impl$u20$core..fmt..Debug$u20$for$u20$usize$GT$3fmt17h3ce1e8eb3a3c5c0bE:
Lfunc_begin2:
	.loc	11 148 0
	.cfi_startproc
	pushq	%rbp
	.cfi_def_cfa_offset 16
	.cfi_offset %rbp, -16
	movq	%rsp, %rbp
	.cfi_def_cfa_register %rbp
	pushq	%r14
	pushq	%rbx
	.cfi_offset %rbx, -32
	.cfi_offset %r14, -24
	movq	%rsi, %rbx
	movq	%rdi, %r14
Ltmp41:
	.loc	11 149 20 prologue_end
	movq	%rsi, %rdi
	callq	__ZN4core3fmt9Formatter15debug_lower_hex17hd07f6fde8d0365dfE
	.loc	11 149 17 is_stmt 0
	testb	%al, %al
	je	LBB2_1
Ltmp42:
	.loc	11 150 21 is_stmt 1
	movq	%r14, %rdi
	movq	%rbx, %rsi
	popq	%rbx
Ltmp43:
	popq	%r14
Ltmp44:
	popq	%rbp
	jmp	__ZN4core3fmt3num55_$LT$impl$u20$core..fmt..LowerHex$u20$for$u20$usize$GT$3fmt17hc47c170655f2f8b1E
LBB2_1:
Ltmp45:
	.loc	11 151 27
	movq	%rbx, %rdi
	callq	__ZN4core3fmt9Formatter15debug_upper_hex17hf480c256a9c81c1eE
	.loc	11 154 21
	movq	%r14, %rdi
	movq	%rbx, %rsi
	.loc	11 151 24
	testb	%al, %al
	je	LBB2_4
Ltmp46:
	.loc	11 152 21
	popq	%rbx
Ltmp47:
	popq	%r14
Ltmp48:
	popq	%rbp
	jmp	__ZN4core3fmt3num55_$LT$impl$u20$core..fmt..UpperHex$u20$for$u20$usize$GT$3fmt17he5a77a1ce12f6c22E
LBB2_4:
Ltmp49:
	.loc	11 154 21
	popq	%rbx
Ltmp50:
	popq	%r14
Ltmp51:
	popq	%rbp
	jmp	__ZN4core3fmt3num3imp54_$LT$impl$u20$core..fmt..Display$u20$for$u20$usize$GT$3fmt17h12ea2856299c9b06E
Ltmp52:
Lfunc_end2:
	.cfi_endproc

	.p2align	4, 0x90
__ZN4core3ptr13drop_in_place17hb5d6d5ec1e3ef68dE:
Lfunc_begin3:
	.file	12 "/rustc/6c8927b0cf80ceee19386026cf9d7fd4fd9d486f/src/libcore/ptr/mod.rs"
	.loc	12 184 0
	.cfi_startproc
	pushq	%rbp
	.cfi_def_cfa_offset 16
	.cfi_offset %rbp, -16
	movq	%rsp, %rbp
	.cfi_def_cfa_register %rbp
Ltmp53:
	.loc	12 184 1 prologue_end
	popq	%rbp
	retq
Ltmp54:
Lfunc_end3:
	.cfi_endproc

	.globl	__ZN10bit_matrix6matrix9BitMatrix3new17h06c7fff7ef2a2a70E
	.p2align	4, 0x90
__ZN10bit_matrix6matrix9BitMatrix3new17h06c7fff7ef2a2a70E:
Lfunc_begin4:
	.file	13 "/Users/yingyuhang/.cargo/registry/src/github.com-1ecc6299db9ec823/bit-matrix-0.6.0/src/matrix.rs"
	.loc	13 30 0
	.cfi_startproc
	pushq	%rbp
	.cfi_def_cfa_offset 16
	.cfi_offset %rbp, -16
	movq	%rsp, %rbp
	.cfi_def_cfa_register %rbp
Ltmp55:
	pushq	%r15
	pushq	%r14
	pushq	%r12
	pushq	%rbx
	.cfi_offset %rbx, -48
	.cfi_offset %r12, -40
	.cfi_offset %r14, -32
	.cfi_offset %r15, -24
	.file	14 "/Users/yingyuhang/.cargo/registry/src/github.com-1ecc6299db9ec823/bit-matrix-0.6.0/src/util.rs"
	.loc	14 11 6 prologue_end
	movq	%rdx, %rax
	addq	$32, %rax
	jb	LBB4_7
Ltmp56:
	.loc	14 0 6 is_stmt 0
	movq	%rdx, %r14
Ltmp57:
	.loc	14 11 5
	decq	%rax
	andq	$-32, %rax
Ltmp58:
	.loc	13 32 40 is_stmt 1
	mulq	%rsi
	jo	LBB4_6
Ltmp59:
	.loc	13 0 40 is_stmt 0
	movq	%rdi, %rbx
	movq	%rax, %r15
Ltmp60:
	.file	15 "/rustc/6c8927b0cf80ceee19386026cf9d7fd4fd9d486f/src/liballoc/alloc.rs"
	.loc	15 170 16 is_stmt 1
	testq	%rax, %rax
	.loc	15 170 13 is_stmt 0
	je	LBB4_3
Ltmp61:
	.file	16 "/rustc/6c8927b0cf80ceee19386026cf9d7fd4fd9d486f/src/liballoc/raw_vec.rs"
	.loc	16 0 0
	movq	%r15, %r12
	shrq	$3, %r12
Ltmp62:
	.loc	15 161 14 is_stmt 1
	movl	$4, %esi
Ltmp63:
	movq	%r12, %rdi
	callq	___rust_alloc_zeroed
Ltmp64:
	.loc	16 184 17
	testq	%rax, %rax
	jne	LBB4_5
Ltmp65:
	.loc	16 185 27
	movl	$4, %esi
	movq	%r12, %rdi
	callq	__ZN5alloc5alloc18handle_alloc_error17h28974197717b8939E
Ltmp66:
LBB4_3:
	.loc	16 0 27 is_stmt 0
	movl	$4, %eax
Ltmp67:
LBB4_5:
	movq	%r15, %rcx
	shrq	$5, %rcx
Ltmp68:
	.loc	13 31 9 is_stmt 1
	movq	%rax, (%rbx)
	movq	%rcx, 8(%rbx)
	movq	%rcx, 16(%rbx)
	movq	%r15, 24(%rbx)
	movq	%r14, 32(%rbx)
	.loc	13 35 6
	movq	%rbx, %rax
	popq	%rbx
	popq	%r12
	popq	%r14
Ltmp69:
	popq	%r15
Ltmp70:
	popq	%rbp
	retq
Ltmp71:
LBB4_7:
	.loc	14 11 6
	leaq	_str.5(%rip), %rdi
	leaq	l___unnamed_6(%rip), %rdx
Ltmp72:
	movl	$28, %esi
Ltmp73:
	callq	__ZN4core9panicking5panic17h383a6b80ea7021aaE
Ltmp74:
LBB4_6:
	.loc	13 32 40
	leaq	_str.6(%rip), %rdi
	leaq	l___unnamed_7(%rip), %rdx
	movl	$33, %esi
Ltmp75:
	callq	__ZN4core9panicking5panic17h383a6b80ea7021aaE
Ltmp76:
Lfunc_end4:
	.cfi_endproc
	.file	17 "/rustc/6c8927b0cf80ceee19386026cf9d7fd4fd9d486f/src/liballoc/macros.rs"

	.globl	__ZN10bit_matrix6matrix9BitMatrix4size17h755510b6b61ed3d2E
	.p2align	4, 0x90
__ZN10bit_matrix6matrix9BitMatrix4size17h755510b6b61ed3d2E:
Lfunc_begin5:
	.loc	13 49 0
	.cfi_startproc
	pushq	%rbp
	.cfi_def_cfa_offset 16
	.cfi_offset %rbp, -16
	movq	%rsp, %rbp
	.cfi_def_cfa_register %rbp
Ltmp77:
	.loc	13 40 12 prologue_end
	movq	32(%rdi), %rcx
	testq	%rcx, %rcx
	.loc	13 40 9 is_stmt 0
	je	LBB5_1
Ltmp78:
	.loc	14 11 6 is_stmt 1
	movq	%rcx, %rsi
	addq	$32, %rsi
	jb	LBB5_6
Ltmp79:
	.loc	14 11 5 is_stmt 0
	decq	%rsi
Ltmp80:
	.loc	13 43 30 is_stmt 1
	shrq	$5, %rsi
Ltmp81:
	.loc	13 44 13
	je	LBB5_7
Ltmp82:
	.loc	4 1923 55
	movq	16(%rdi), %rax
Ltmp83:
	.loc	13 44 13
	xorl	%edx, %edx
	divq	%rsi
Ltmp84:
	.loc	13 51 6
	movq	%rcx, %rdx
	popq	%rbp
	retq
Ltmp85:
LBB5_1:
	.loc	13 0 6 is_stmt 0
	xorl	%eax, %eax
	.loc	13 51 6
	movq	%rcx, %rdx
	popq	%rbp
	retq
Ltmp86:
LBB5_6:
	.loc	14 11 6 is_stmt 1
	leaq	_str.5(%rip), %rdi
Ltmp87:
	leaq	l___unnamed_6(%rip), %rdx
	movl	$28, %esi
	callq	__ZN4core9panicking5panic17h383a6b80ea7021aaE
Ltmp88:
LBB5_7:
	.loc	13 44 13
	leaq	_str.3(%rip), %rdi
Ltmp89:
	leaq	l___unnamed_8(%rip), %rdx
	movl	$25, %esi
Ltmp90:
	callq	__ZN4core9panicking5panic17h383a6b80ea7021aaE
Ltmp91:
Lfunc_end5:
	.cfi_endproc

	.globl	__ZN10bit_matrix6matrix9BitMatrix4grow17h51143701d64c506bE
	.p2align	4, 0x90
__ZN10bit_matrix6matrix9BitMatrix4grow17h51143701d64c506bE:
Lfunc_begin6:
	.loc	13 75 0
	.cfi_startproc
	pushq	%rbp
	.cfi_def_cfa_offset 16
	.cfi_offset %rbp, -16
	movq	%rsp, %rbp
	.cfi_def_cfa_register %rbp
Ltmp92:
	pushq	%r15
	pushq	%r14
	pushq	%r13
	pushq	%r12
	pushq	%rbx
	pushq	%rax
	.cfi_offset %rbx, -56
	.cfi_offset %r12, -48
	.cfi_offset %r13, -40
	.cfi_offset %r14, -32
	.cfi_offset %r15, -24
	.loc	13 76 44 prologue_end
	movq	32(%rdi), %rax
Ltmp93:
	.loc	14 11 6
	addq	$32, %rax
Ltmp94:
	jb	LBB6_62
Ltmp95:
	.loc	14 0 6 is_stmt 0
	movl	%edx, %r8d
Ltmp96:
	.loc	14 11 5
	decq	%rax
	andq	$-32, %rax
Ltmp97:
	.loc	13 76 27 is_stmt 1
	mulq	%rsi
	jo	LBB6_61
Ltmp98:
	.loc	13 0 27 is_stmt 0
	movq	%rdi, %r15
Ltmp99:
	movq	%rax, %r14
Ltmp100:
	.loc	3 1264 25 is_stmt 1
	movq	24(%rdi), %rcx
Ltmp101:
	.loc	9 3751 30
	addq	%rcx, %r14
Ltmp102:
	.loc	8 346 13
	jb	LBB6_63
Ltmp103:
	.loc	3 241 8
	xorl	%r13d, %r13d
	movq	%r14, %r10
	andq	$31, %r10
	setne	%dl
Ltmp104:
	.loc	3 241 8 is_stmt 0
	xorl	%edi, %edi
	testb	$31, %cl
Ltmp105:
	setne	%dil
	.loc	3 241 5
	movq	%rcx, %rax
	shrq	$5, %rax
	addq	%rax, %rdi
	.loc	3 241 8
	testb	$31, %cl
Ltmp106:
	.loc	3 1270 9 is_stmt 1
	je	LBB6_8
Ltmp107:
	.file	18 "/rustc/6c8927b0cf80ceee19386026cf9d7fd4fd9d486f/src/libcore/ops/bit.rs"
	.loc	18 515 17
	negb	%cl
Ltmp108:
	.loc	18 0 17 is_stmt 0
	movl	$-1, %ebx
	.loc	18 515 17
	shrl	%cl, %ebx
Ltmp109:
	.loc	3 1272 13 is_stmt 1
	testb	%r8b, %r8b
	je	LBB6_8
Ltmp110:
	.loc	3 1273 44
	movq	%rdi, %rax
	subq	$1, %rax
	jb	LBB6_57
Ltmp111:
	.loc	4 1930 63
	movq	16(%r15), %rsi
Ltmp112:
	.loc	7 3122 14
	cmpq	%rax, %rsi
	jbe	LBB6_64
Ltmp113:
	.loc	4 854 19
	movq	(%r15), %rcx
Ltmp114:
	.loc	18 51 34
	notl	%ebx
Ltmp115:
	.loc	3 1274 17
	orl	%ebx, (%rcx,%rax,4)
Ltmp116:
LBB6_8:
	.loc	3 0 0 is_stmt 0
	movq	%r14, %rax
	shrq	$5, %rax
	movb	%dl, %r13b
	addq	%rax, %r13
Ltmp117:
	movzbl	%r8b, %r12d
	negl	%r12d
Ltmp118:
	.loc	3 1281 33 is_stmt 1
	movq	16(%r15), %rsi
Ltmp119:
	.loc	5 950 9
	cmpq	%r13, %rsi
	.loc	5 0 0 is_stmt 0
	movq	%rsi, %rax
	cmovaq	%r13, %rax
Ltmp120:
	.loc	5 1136 52 is_stmt 1
	cmpq	%rax, %rdi
Ltmp121:
	.loc	6 505 9
	jae	LBB6_10
Ltmp122:
	.p2align	4, 0x90
LBB6_20:
	.loc	7 3122 14
	cmpq	%rdi, %rsi
	jbe	LBB6_65
Ltmp123:
	.loc	4 854 19
	movq	(%r15), %rcx
Ltmp124:
	.loc	3 1283 13
	movl	%r12d, (%rcx,%rdi,4)
Ltmp125:
	.loc	9 3013 26
	incq	%rdi
Ltmp126:
	.loc	3 0 0 is_stmt 0
	movq	16(%r15), %rsi
Ltmp127:
	.loc	5 1136 52 is_stmt 1
	cmpq	%rax, %rdi
Ltmp128:
	.loc	6 505 9
	jb	LBB6_20
Ltmp129:
LBB6_10:
	.loc	3 1287 12
	subq	%rsi, %r13
Ltmp130:
	.loc	3 1287 9 is_stmt 0
	jbe	LBB6_52
Ltmp131:
	.loc	3 1288 26 is_stmt 1
	jb	LBB6_58
Ltmp132:
	.loc	16 309 12
	movq	8(%r15), %rcx
Ltmp133:
	.loc	9 3462 17
	movq	%rcx, %rax
Ltmp134:
	subq	%rsi, %rax
Ltmp135:
	.loc	16 373 9
	cmpq	%r13, %rax
Ltmp136:
	.loc	16 309 9
	jae	LBB6_35
Ltmp137:
	.loc	9 3751 30
	movq	%rsi, %rax
	addq	%r13, %rax
Ltmp138:
	.loc	8 538 13
	jb	LBB6_33
Ltmp139:
	.loc	16 408 28
	leaq	(%rcx,%rcx), %rdx
Ltmp140:
	.loc	5 1016 9
	cmpq	%rax, %rdx
	.loc	5 0 0 is_stmt 0
	cmovaq	%rdx, %rax
Ltmp141:
	cmpq	$4, %rax
	movl	$4, %edx
Ltmp142:
	cmovbeq	%rdx, %rax
Ltmp143:
	.file	19 "/rustc/6c8927b0cf80ceee19386026cf9d7fd4fd9d486f/src/libcore/alloc/layout.rs"
	.loc	19 286 85 is_stmt 1
	xorl	%r8d, %r8d
Ltmp144:
	.loc	9 3807 26
	mulq	%rdx
Ltmp145:
	movq	%rax, %r9
Ltmp146:
	.loc	9 0 26 is_stmt 0
	seto	%bl
Ltmp147:
	.loc	19 286 85 is_stmt 1
	setno	%dl
Ltmp148:
	.loc	16 235 9
	movq	%rcx, %rax
	.loc	16 235 40 is_stmt 0
	testq	%rcx, %rcx
	.loc	16 235 9
	je	LBB6_16
Ltmp149:
	.loc	16 0 9
	movq	(%r15), %rax
Ltmp150:
LBB6_16:
	.file	20 "/rustc/6c8927b0cf80ceee19386026cf9d7fd4fd9d486f/src/libcore/result.rs"
	.loc	20 611 13 is_stmt 1
	testb	%bl, %bl
	jne	LBB6_33
Ltmp151:
	.loc	16 493 25
	testq	%rax, %rax
	je	LBB6_18
Ltmp152:
	.loc	16 0 0 is_stmt 0
	shlq	$2, %rcx
Ltmp153:
	.loc	15 205 12 is_stmt 1
	cmpq	%r9, %rcx
	.loc	15 205 9 is_stmt 0
	je	LBB6_30
Ltmp154:
	.loc	15 211 42 is_stmt 1
	testq	%rcx, %rcx
	je	LBB6_25
Ltmp155:
	.loc	15 124 14
	movl	$4, %edx
	movq	%rax, %rdi
	movq	%rcx, %rsi
Ltmp156:
	movq	%r9, %rcx
Ltmp157:
	.loc	15 0 14 is_stmt 0
	movq	%r10, -48(%rbp)
	movq	%r9, %rbx
Ltmp158:
	.loc	15 124 14
	callq	___rust_realloc
Ltmp159:
	.loc	15 0 14
	jmp	LBB6_29
Ltmp160:
LBB6_35:
	.file	21 "/rustc/6c8927b0cf80ceee19386026cf9d7fd4fd9d486f/src/libcore/iter/adapters/mod.rs"
	.loc	21 2254 12 is_stmt 1
	testq	%r13, %r13
Ltmp161:
	.loc	21 2254 9 is_stmt 0
	je	LBB6_51
Ltmp162:
	.loc	4 854 19 is_stmt 1
	movq	(%r15), %rax
Ltmp163:
	.file	22 "/rustc/6c8927b0cf80ceee19386026cf9d7fd4fd9d486f/src/libcore/ptr/mut_ptr.rs"
	.loc	22 165 18
	leaq	(%rax,%rsi,4), %r9
Ltmp164:
	.file	23 "/rustc/6c8927b0cf80ceee19386026cf9d7fd4fd9d486f/src/libcore/iter/traits/iterator.rs"
	.loc	23 1870 32
	cmpq	$8, %r13
	jb	LBB6_38
Ltmp165:
LBB6_39:
	movq	%r13, %r8
	andq	$-8, %r8
	movd	%r12d, %xmm0
	pshufd	$0, %xmm0, %xmm0
	leaq	-8(%r8), %rcx
	movq	%rcx, %rdi
	shrq	$3, %rdi
	incq	%rdi
	movl	%edi, %edx
	andl	$7, %edx
	cmpq	$56, %rcx
	jae	LBB6_41
Ltmp166:
	.loc	23 0 32 is_stmt 0
	xorl	%ecx, %ecx
	jmp	LBB6_43
Ltmp167:
LBB6_41:
	.loc	23 1870 32
	subq	%rdx, %rdi
	leaq	240(%rax,%rsi,4), %rbx
	xorl	%ecx, %ecx
Ltmp168:
	.p2align	4, 0x90
LBB6_42:
	.loc	12 901 51 is_stmt 1
	movdqu	%xmm0, -240(%rbx,%rcx,4)
	movdqu	%xmm0, -224(%rbx,%rcx,4)
	movdqu	%xmm0, -208(%rbx,%rcx,4)
	movdqu	%xmm0, -192(%rbx,%rcx,4)
	movdqu	%xmm0, -176(%rbx,%rcx,4)
	movdqu	%xmm0, -160(%rbx,%rcx,4)
	movdqu	%xmm0, -144(%rbx,%rcx,4)
	movdqu	%xmm0, -128(%rbx,%rcx,4)
	movdqu	%xmm0, -112(%rbx,%rcx,4)
	movdqu	%xmm0, -96(%rbx,%rcx,4)
	movdqu	%xmm0, -80(%rbx,%rcx,4)
	movdqu	%xmm0, -64(%rbx,%rcx,4)
	movdqu	%xmm0, -48(%rbx,%rcx,4)
	movdqu	%xmm0, -32(%rbx,%rcx,4)
	movdqu	%xmm0, -16(%rbx,%rcx,4)
	movdqu	%xmm0, (%rbx,%rcx,4)
	addq	$64, %rcx
	addq	$-8, %rdi
	jne	LBB6_42
Ltmp169:
LBB6_43:
	.loc	12 0 51 is_stmt 0
	testq	%rdx, %rdx
	je	LBB6_46
Ltmp170:
	addq	%rsi, %rcx
	leaq	16(%rax,%rcx,4), %rax
	negq	%rdx
Ltmp171:
	.p2align	4, 0x90
LBB6_45:
	.loc	12 901 51
	movdqu	%xmm0, -16(%rax)
	movdqu	%xmm0, (%rax)
	addq	$32, %rax
	incq	%rdx
	jne	LBB6_45
Ltmp172:
LBB6_46:
	.loc	23 1870 32 is_stmt 1
	cmpq	%r8, %r13
	je	LBB6_50
Ltmp173:
	.loc	23 0 32 is_stmt 0
	movl	%r13d, %eax
	andl	$7, %eax
	leaq	(%r9,%r8,4), %r9
Ltmp174:
	jmp	LBB6_48
Ltmp175:
LBB6_18:
	movb	%dl, %r8b
	shlq	$2, %r8
Ltmp176:
	.loc	15 170 16 is_stmt 1
	testq	%r9, %r9
	.loc	15 170 13 is_stmt 0
	je	LBB6_22
Ltmp177:
	.loc	15 80 14 is_stmt 1
	movq	%r9, %rdi
	movq	%r8, %rsi
Ltmp178:
	.loc	15 0 14 is_stmt 0
	movq	%r10, -48(%rbp)
	movq	%r9, %rbx
Ltmp179:
	.loc	15 80 14
	callq	___rust_alloc
Ltmp180:
LBB6_29:
	.loc	15 0 14
	movq	%rbx, %r9
Ltmp181:
	movq	-48(%rbp), %r10
Ltmp182:
	jmp	LBB6_30
Ltmp183:
LBB6_22:
	movq	%r8, %rax
Ltmp184:
	jmp	LBB6_30
Ltmp185:
LBB6_25:
	.loc	15 170 16 is_stmt 1
	testq	%r9, %r9
	.loc	15 170 13 is_stmt 0
	je	LBB6_26
Ltmp186:
	.loc	15 80 14 is_stmt 1
	movl	$4, %esi
Ltmp187:
	movq	%r9, %rdi
	movq	%r10, %rbx
	movq	%r9, -48(%rbp)
Ltmp188:
	callq	___rust_alloc
Ltmp189:
	.loc	15 0 14 is_stmt 0
	movq	-48(%rbp), %r9
Ltmp190:
	movq	%rbx, %r10
Ltmp191:
LBB6_30:
	.loc	20 611 13 is_stmt 1
	testq	%rax, %rax
	je	LBB6_34
Ltmp192:
	.loc	4 2136 53
	movq	16(%r15), %rsi
Ltmp193:
LBB6_32:
	.loc	16 382 9
	movq	%rax, (%r15)
Ltmp194:
	.loc	16 378 9
	shrq	$2, %r9
Ltmp195:
	.loc	16 383 9
	movq	%r9, 8(%r15)
Ltmp196:
	.loc	22 165 18
	leaq	(%rax,%rsi,4), %r9
Ltmp197:
	.loc	23 1870 32
	cmpq	$8, %r13
	jae	LBB6_39
Ltmp198:
LBB6_38:
	.loc	23 0 32 is_stmt 0
	movq	%r13, %rax
Ltmp199:
LBB6_48:
	xorl	%ecx, %ecx
Ltmp200:
	.p2align	4, 0x90
LBB6_49:
	.loc	12 901 51 is_stmt 1
	movl	%r12d, (%r9,%rcx,4)
Ltmp201:
	.loc	21 2250 20
	incq	%rcx
	cmpq	%rcx, %rax
Ltmp202:
	.loc	23 1870 32
	jne	LBB6_49
Ltmp203:
LBB6_50:
	addq	%r13, %rsi
Ltmp204:
LBB6_51:
	.loc	21 0 0 is_stmt 0
	movq	%rsi, 16(%r15)
Ltmp205:
LBB6_52:
	.loc	3 1293 9 is_stmt 1
	movq	%r14, 24(%r15)
Ltmp206:
	.loc	3 443 12
	testq	%r10, %r10
	.loc	3 443 9 is_stmt 0
	je	LBB6_60
Ltmp207:
	.loc	3 0 9
	movl	$-1, %eax
Ltmp208:
	.file	24 "/rustc/6c8927b0cf80ceee19386026cf9d7fd4fd9d486f/src/libcore/ops/arith.rs"
	.loc	24 194 45 is_stmt 1
	movl	%r10d, %ecx
	shll	%cl, %eax
Ltmp209:
	.loc	3 446 37
	movq	%rsi, %rdi
	subq	$1, %rdi
	jb	LBB6_56
Ltmp210:
	.loc	7 3122 14
	cmpq	%rdi, %rsi
	jbe	LBB6_55
Ltmp211:
	.loc	3 0 0 is_stmt 0
	notl	%eax
Ltmp212:
	.loc	4 854 19 is_stmt 1
	movq	(%r15), %rcx
Ltmp213:
	.loc	3 456 13
	andl	%eax, (%rcx,%rdi,4)
Ltmp214:
LBB6_60:
	.loc	13 77 6
	addq	$8, %rsp
	popq	%rbx
	popq	%r12
	popq	%r13
	popq	%r14
	popq	%r15
Ltmp215:
	popq	%rbp
	retq
LBB6_26:
Ltmp216:
	.loc	13 0 6 is_stmt 0
	movl	$4, %eax
Ltmp217:
	jmp	LBB6_32
Ltmp218:
LBB6_65:
	.loc	7 3122 14 is_stmt 1
	leaq	l___unnamed_9(%rip), %rdx
	callq	__ZN4core9panicking18panic_bounds_check17he87128426d100e93E
Ltmp219:
LBB6_62:
	.loc	14 11 6
	leaq	_str.5(%rip), %rdi
Ltmp220:
	leaq	l___unnamed_6(%rip), %rdx
Ltmp221:
	movl	$28, %esi
Ltmp222:
	callq	__ZN4core9panicking5panic17h383a6b80ea7021aaE
Ltmp223:
LBB6_61:
	.loc	13 76 27
	leaq	_str.6(%rip), %rdi
Ltmp224:
	leaq	l___unnamed_10(%rip), %rdx
	movl	$33, %esi
Ltmp225:
	callq	__ZN4core9panicking5panic17h383a6b80ea7021aaE
Ltmp226:
LBB6_63:
	.loc	8 347 21
	leaq	l___unnamed_11(%rip), %rdi
	leaq	l___unnamed_12(%rip), %rdx
	movl	$17, %esi
Ltmp227:
	callq	__ZN4core6option13expect_failed17h7591ba70e88f159aE
Ltmp228:
LBB6_56:
	.loc	3 446 37
	leaq	_str.0(%rip), %rdi
	leaq	l___unnamed_13(%rip), %rdx
	movl	$33, %esi
Ltmp229:
	callq	__ZN4core9panicking5panic17h383a6b80ea7021aaE
Ltmp230:
LBB6_55:
	.loc	7 3122 14
	leaq	l___unnamed_14(%rip), %rdx
	callq	__ZN4core9panicking18panic_bounds_check17he87128426d100e93E
Ltmp231:
LBB6_58:
	.loc	3 1288 26
	leaq	_str.0(%rip), %rdi
	leaq	l___unnamed_15(%rip), %rdx
	movl	$33, %esi
	callq	__ZN4core9panicking5panic17h383a6b80ea7021aaE
Ltmp232:
LBB6_33:
	.loc	16 301 38
	callq	__ZN5alloc7raw_vec17capacity_overflow17h7526b10e27579d59E
Ltmp233:
LBB6_57:
	.loc	3 1273 44
	leaq	_str.0(%rip), %rdi
Ltmp234:
	leaq	l___unnamed_16(%rip), %rdx
	movl	$33, %esi
Ltmp235:
	callq	__ZN4core9panicking5panic17h383a6b80ea7021aaE
Ltmp236:
LBB6_64:
	.loc	7 3122 14
	leaq	l___unnamed_17(%rip), %rdx
	movq	%rax, %rdi
Ltmp237:
	callq	__ZN4core9panicking18panic_bounds_check17he87128426d100e93E
Ltmp238:
LBB6_34:
	.loc	16 302 47
	movl	$4, %esi
	movq	%r9, %rdi
	callq	__ZN5alloc5alloc18handle_alloc_error17h28974197717b8939E
Ltmp239:
Lfunc_end6:
	.cfi_endproc

	.globl	__ZN10bit_matrix6matrix9BitMatrix8truncate17h576cee231af746ffE
	.p2align	4, 0x90
__ZN10bit_matrix6matrix9BitMatrix8truncate17h576cee231af746ffE:
Lfunc_begin7:
	.loc	13 80 0
	.cfi_startproc
	pushq	%rbp
	.cfi_def_cfa_offset 16
	.cfi_offset %rbp, -16
	movq	%rsp, %rbp
	.cfi_def_cfa_register %rbp
Ltmp240:
	.loc	13 81 48 prologue_end
	movq	32(%rdi), %rax
Ltmp241:
	.loc	14 11 6
	addq	$32, %rax
Ltmp242:
	jb	LBB7_7
Ltmp243:
	.loc	14 11 5 is_stmt 0
	decq	%rax
	andq	$-32, %rax
Ltmp244:
	.loc	13 81 31 is_stmt 1
	mulq	%rsi
	jo	LBB7_6
Ltmp245:
	.loc	3 1160 12
	cmpq	%rax, 24(%rdi)
	.loc	3 1160 9 is_stmt 0
	jbe	LBB7_5
Ltmp246:
	.loc	3 1161 13 is_stmt 1
	movq	%rax, 24(%rdi)
Ltmp247:
	.loc	3 241 5
	shrq	$5, %rax
Ltmp248:
	.loc	4 744 16
	cmpq	%rax, 16(%rdi)
	.loc	4 744 13 is_stmt 0
	jb	LBB7_5
Ltmp249:
	.loc	4 749 13 is_stmt 1
	movq	%rax, 16(%rdi)
Ltmp250:
LBB7_5:
	.loc	13 82 6
	popq	%rbp
	retq
Ltmp251:
LBB7_7:
	.loc	14 11 6
	leaq	_str.5(%rip), %rdi
Ltmp252:
	leaq	l___unnamed_6(%rip), %rdx
	movl	$28, %esi
Ltmp253:
	callq	__ZN4core9panicking5panic17h383a6b80ea7021aaE
Ltmp254:
LBB7_6:
	.loc	13 81 31
	leaq	_str.6(%rip), %rdi
Ltmp255:
	leaq	l___unnamed_18(%rip), %rdx
	movl	$33, %esi
Ltmp256:
	callq	__ZN4core9panicking5panic17h383a6b80ea7021aaE
Ltmp257:
Lfunc_end7:
	.cfi_endproc

	.globl	__ZN10bit_matrix6matrix9BitMatrix8iter_row17h60814a2bc7ecaa1dE
	.p2align	4, 0x90
__ZN10bit_matrix6matrix9BitMatrix8iter_row17h60814a2bc7ecaa1dE:
Lfunc_begin8:
	.loc	13 126 0
	.cfi_startproc
	pushq	%rbp
	.cfi_def_cfa_offset 16
	.cfi_offset %rbp, -16
	movq	%rsp, %rbp
	.cfi_def_cfa_register %rbp
	movq	%rdi, %r10
Ltmp258:
	.loc	13 161 41 prologue_end
	movq	32(%rsi), %r9
Ltmp259:
	.loc	14 11 6
	movq	%r9, %rdi
	addq	$32, %rdi
	jb	LBB8_10
Ltmp260:
	.loc	14 0 6 is_stmt 0
	movq	%rdx, %rcx
Ltmp261:
	.loc	14 11 5
	decq	%rdi
Ltmp262:
	.loc	13 161 24 is_stmt 1
	shrq	$5, %rdi
Ltmp263:
	.loc	13 164 41
	movq	%rdx, %rax
	mulq	%rdi
	jo	LBB8_8
Ltmp264:
	.loc	13 164 59 is_stmt 0
	incq	%rcx
Ltmp265:
	je	LBB8_7
Ltmp266:
	.loc	13 0 0
	movq	%rax, %r8
	.loc	13 164 59
	movq	%rcx, %rax
	mulq	%rdi
	jo	LBB8_8
Ltmp267:
	.loc	7 3167 12 is_stmt 1
	cmpq	%r8, %rax
	.loc	7 3167 9 is_stmt 0
	jb	LBB8_11
Ltmp268:
	.loc	13 0 0
	movq	16(%rsi), %rcx
Ltmp269:
	.loc	7 3169 19 is_stmt 1
	cmpq	%rax, %rcx
	.loc	7 3169 16 is_stmt 0
	jb	LBB8_6
Ltmp270:
	.loc	13 0 0
	movq	(%rsi), %rcx
Ltmp271:
	.file	25 "/rustc/6c8927b0cf80ceee19386026cf9d7fd4fd9d486f/src/libcore/ptr/const_ptr.rs"
	.loc	25 164 18 is_stmt 1
	leaq	(%rcx,%r8,4), %rcx
Ltmp272:
	.loc	7 3154 76
	subq	%r8, %rax
Ltmp273:
	.file	26 "/Users/yingyuhang/.cargo/registry/src/github.com-1ecc6299db9ec823/bit-matrix-0.6.0/src/row.rs"
	.loc	26 36 9
	movq	%rcx, (%r10)
	movq	%rax, 8(%r10)
	movq	$0, 16(%r10)
	movq	%r9, 24(%r10)
Ltmp274:
	.loc	13 128 6
	movq	%r10, %rax
Ltmp275:
	popq	%rbp
	retq
Ltmp276:
LBB8_8:
	.loc	13 0 0 is_stmt 0
	leaq	_str.6(%rip), %rdi
Ltmp277:
	leaq	l___unnamed_19(%rip), %rdx
	movl	$33, %esi
Ltmp278:
	callq	__ZN4core9panicking5panic17h383a6b80ea7021aaE
Ltmp279:
LBB8_10:
	.loc	14 11 6 is_stmt 1
	leaq	_str.5(%rip), %rdi
	leaq	l___unnamed_6(%rip), %rdx
Ltmp280:
	movl	$28, %esi
Ltmp281:
	callq	__ZN4core9panicking5panic17h383a6b80ea7021aaE
Ltmp282:
LBB8_7:
	.loc	13 164 59
	leaq	_str.5(%rip), %rdi
Ltmp283:
	leaq	l___unnamed_19(%rip), %rdx
	movl	$28, %esi
Ltmp284:
	callq	__ZN4core9panicking5panic17h383a6b80ea7021aaE
LBB8_11:
Ltmp285:
	.loc	7 3168 13
	leaq	l___unnamed_19(%rip), %rdx
	movq	%r8, %rdi
Ltmp286:
	movq	%rax, %rsi
Ltmp287:
	callq	__ZN4core5slice22slice_index_order_fail17h65298a4d6b795c79E
Ltmp288:
LBB8_6:
	.loc	7 3170 13
	leaq	l___unnamed_19(%rip), %rdx
	movq	%rax, %rdi
Ltmp289:
	movq	%rcx, %rsi
Ltmp290:
	callq	__ZN4core5slice24slice_end_index_len_fail17hea9e3399ed430f80E
Ltmp291:
Lfunc_end8:
	.cfi_endproc

	.globl	__ZN10bit_matrix6matrix9BitMatrix18transitive_closure17h5e7e82a4540ffbc6E
	.p2align	4, 0x90
__ZN10bit_matrix6matrix9BitMatrix18transitive_closure17h5e7e82a4540ffbc6E:
Lfunc_begin9:
	.loc	13 133 0
	.cfi_startproc
	pushq	%rbp
	.cfi_def_cfa_offset 16
	.cfi_offset %rbp, -16
	movq	%rsp, %rbp
	.cfi_def_cfa_register %rbp
Ltmp292:
	pushq	%r15
	pushq	%r14
	pushq	%r13
	pushq	%r12
	pushq	%rbx
	subq	$200, %rsp
	.cfi_offset %rbx, -56
	.cfi_offset %r12, -48
	.cfi_offset %r13, -40
	.cfi_offset %r14, -32
	.cfi_offset %r15, -24
	.loc	13 40 12 prologue_end
	movq	32(%rdi), %r13
	testq	%r13, %r13
	.loc	13 40 9 is_stmt 0
	je	LBB9_1
Ltmp293:
	.loc	14 11 6 is_stmt 1
	movq	%r13, %rcx
	addq	$32, %rcx
	jb	LBB9_43
Ltmp294:
	.loc	14 11 5 is_stmt 0
	decq	%rcx
Ltmp295:
	.loc	13 43 30 is_stmt 1
	shrq	$5, %rcx
Ltmp296:
	.loc	13 44 13
	je	LBB9_56
Ltmp297:
	.loc	4 1923 55
	movq	16(%rdi), %rax
Ltmp298:
	.loc	13 44 13
	xorl	%edx, %edx
	divq	%rcx
	jmp	LBB9_5
Ltmp299:
LBB9_1:
	.loc	13 0 13 is_stmt 0
	xorl	%eax, %eax
Ltmp300:
LBB9_5:
	leaq	32(%rdi), %rcx
	movq	%rcx, -56(%rbp)
	.loc	13 134 20 is_stmt 1
	movq	%rax, -136(%rbp)
Ltmp301:
	.loc	13 134 9 is_stmt 0
	cmpq	%r13, %rax
	jne	LBB9_11
Ltmp302:
	.loc	13 40 12 is_stmt 1
	testq	%r13, %r13
Ltmp303:
	.loc	6 505 9
	je	LBB9_12
Ltmp304:
	.loc	14 11 6
	leaq	32(%r13), %r14
	movl	$1, %esi
	xorl	%r11d, %r11d
	leaq	__ZN10bit_matrix5FALSE17h93d393a7d9fa103aE(%rip), %r15
	xorl	%ecx, %ecx
	movl	$1, %r9d
	movq	%rdi, -72(%rbp)
	movq	%r13, -64(%rbp)
Ltmp305:
	.p2align	4, 0x90
LBB9_8:
	.loc	14 11 5 is_stmt 0
	decq	%r14
Ltmp306:
	.loc	13 87 24 is_stmt 1
	shrq	$5, %r14
Ltmp307:
	.loc	13 89 63
	movq	%rcx, %rax
	mulq	%r14
	jo	LBB9_26
Ltmp308:
	.loc	13 0 0 is_stmt 0
	movq	%rax, %rbx
	movq	16(%rdi), %r10
Ltmp309:
	.loc	7 3169 19 is_stmt 1
	cmpq	%rax, %r10
	.loc	7 3169 16 is_stmt 0
	jb	LBB9_10
Ltmp310:
	.loc	13 177 67 is_stmt 1
	movq	%rsi, %rax
	mulq	%r14
	jo	LBB9_17
Ltmp311:
	.loc	13 0 0 is_stmt 0
	movq	%rax, %r8
Ltmp312:
	.loc	7 3177 12 is_stmt 1
	cmpq	%rbx, %rax
	.loc	7 3177 9 is_stmt 0
	jb	LBB9_55
Ltmp313:
	.loc	7 3179 19 is_stmt 1
	cmpq	%r8, %r10
	.loc	7 3179 16 is_stmt 0
	jb	LBB9_16
Ltmp314:
	.loc	13 0 0
	movq	(%rdi), %r12
Ltmp315:
	.loc	13 40 12 is_stmt 1
	testq	%r9, %r9
	.loc	13 40 9 is_stmt 0
	je	LBB9_19
Ltmp316:
	.loc	13 44 13 is_stmt 1
	testq	%r14, %r14
	je	LBB9_56
Ltmp317:
	movq	%r10, %rax
	xorl	%edx, %edx
	divq	%r14
Ltmp318:
	.loc	13 89 63
	mulq	%r14
Ltmp319:
	.loc	13 0 63 is_stmt 0
	jno	LBB9_23
	jmp	LBB9_26
Ltmp320:
	.p2align	4, 0x90
LBB9_19:
	xorl	%eax, %eax
Ltmp321:
	.loc	13 89 63
	mulq	%r14
Ltmp322:
	jo	LBB9_26
Ltmp323:
LBB9_23:
	.loc	7 3167 12 is_stmt 1
	cmpq	%r8, %rax
	.loc	7 3167 9 is_stmt 0
	jb	LBB9_57
Ltmp324:
	.loc	7 3169 19 is_stmt 1
	cmpq	%rax, %r10
	.loc	7 3169 16 is_stmt 0
	jb	LBB9_25
Ltmp325:
	.loc	7 0 16
	movq	%rsi, -96(%rbp)
Ltmp326:
	.loc	7 755 17 is_stmt 1
	testq	%r14, %r14
	.loc	7 755 9 is_stmt 0
	je	LBB9_58
Ltmp327:
	.loc	13 0 0
	leaq	(,%rcx,4), %rdx
	leaq	(%r12,%rbx,4), %rsi
Ltmp328:
	.loc	25 164 18 is_stmt 1
	leaq	(%r12,%r8,4), %r13
Ltmp329:
	.loc	7 3154 76
	subq	%r8, %rax
Ltmp330:
	.loc	14 0 0 is_stmt 0
	movq	%rcx, %r9
Ltmp331:
	movl	$1, %edi
Ltmp332:
	movq	%rcx, -80(%rbp)
Ltmp333:
	shll	%cl, %edi
	movl	%edi, -44(%rbp)
Ltmp334:
	shrq	$5, %r9
Ltmp335:
	movq	%r13, %rcx
	movq	%rsi, -104(%rbp)
Ltmp336:
	subq	%rsi, %rcx
Ltmp337:
	shrq	$2, %rcx
	movq	%rcx, -128(%rbp)
Ltmp338:
	.file	27 "/rustc/6c8927b0cf80ceee19386026cf9d7fd4fd9d486f/src/libcore/iter/adapters/chain.rs"
	.loc	27 37 13 is_stmt 1
	imulq	%r14, %rdx
	addq	%r12, %rdx
	movq	%rdx, -120(%rbp)
	movq	%r11, -88(%rbp)
	movq	%r11, %r8
Ltmp339:
	imulq	%r14, %r8
	leaq	48(%r12,%r8), %r10
Ltmp340:
	addq	%r12, %r8
Ltmp341:
	.p2align	4, 0x90
LBB9_29:
	testq	%r12, %r12
Ltmp342:
	je	LBB9_38
Ltmp343:
	testq	%rbx, %rbx
	je	LBB9_38
Ltmp344:
	.loc	5 950 9
	cmpq	%r14, %rbx
	.loc	5 0 0 is_stmt 0
	movq	%rbx, %rdi
	cmovaq	%r14, %rdi
	movq	%r12, %r11
Ltmp345:
	.loc	22 165 18 is_stmt 1
	leaq	(%r12,%rdi,4), %r12
Ltmp346:
	.loc	7 1074 77
	subq	%rdi, %rbx
Ltmp347:
	.loc	26 0 0 is_stmt 0
	movq	%r15, %rdx
Ltmp348:
	.loc	7 3090 12 is_stmt 1
	cmpq	%rdi, %r9
Ltmp349:
	.loc	26 58 13
	jae	LBB9_34
Ltmp350:
LBB9_33:
	.loc	26 0 13 is_stmt 0
	movl	-44(%rbp), %ecx
Ltmp351:
	.loc	26 59 27 is_stmt 1
	testl	%ecx, (%r11,%r9,4)
Ltmp352:
	.loc	26 59 24 is_stmt 0
	leaq	__ZN10bit_matrix4TRUE17h4ab893aac5e82269E(%rip), %rdx
	cmoveq	%r15, %rdx
Ltmp353:
LBB9_34:
	.loc	13 138 20 is_stmt 1
	cmpb	$0, (%rdx)
	.loc	13 138 17 is_stmt 0
	je	LBB9_29
Ltmp354:
	.loc	13 0 17
	movq	-128(%rbp), %rcx
Ltmp355:
	.loc	5 950 9 is_stmt 1
	cmpq	%rcx, %rdi
	.loc	5 0 0 is_stmt 0
	cmovaq	%rcx, %rdi
Ltmp356:
	.file	28 "/rustc/6c8927b0cf80ceee19386026cf9d7fd4fd9d486f/src/libcore/iter/adapters/zip.rs"
	.loc	28 174 12 is_stmt 1
	testq	%rdi, %rdi
Ltmp357:
	.loc	28 174 9 is_stmt 0
	je	LBB9_29
Ltmp358:
	cmpq	$8, %rdi
	jae	LBB9_44
Ltmp359:
	.loc	28 0 9
	xorl	%esi, %esi
	jmp	LBB9_54
Ltmp360:
	.p2align	4, 0x90
LBB9_38:
	.loc	27 54 13 is_stmt 1
	testq	%r13, %r13
Ltmp361:
	je	LBB9_41
Ltmp362:
	testq	%rax, %rax
	je	LBB9_41
Ltmp363:
	.loc	5 950 9
	cmpq	%r14, %rax
	.loc	5 0 0 is_stmt 0
	movq	%rax, %rdi
	cmovaq	%r14, %rdi
Ltmp364:
	movq	%r13, %r11
Ltmp365:
	.loc	22 165 18 is_stmt 1
	leaq	(%r13,%rdi,4), %r13
Ltmp366:
	.loc	7 1074 77
	subq	%rdi, %rax
Ltmp367:
	.loc	7 0 77 is_stmt 0
	xorl	%r12d, %r12d
Ltmp368:
	movq	%r15, %rdx
Ltmp369:
	.loc	7 3090 12 is_stmt 1
	cmpq	%rdi, %r9
Ltmp370:
	.loc	26 58 13
	jb	LBB9_33
	jmp	LBB9_34
Ltmp371:
LBB9_44:
	.loc	26 0 13 is_stmt 0
	movq	-120(%rbp), %rcx
Ltmp372:
	.loc	28 174 9 is_stmt 1
	leaq	(%rcx,%rdi,4), %rdx
	cmpq	%r11, %rdx
	jbe	LBB9_47
Ltmp373:
	.loc	28 0 9 is_stmt 0
	leaq	(%r11,%rdi,4), %rdx
	.loc	28 174 9
	cmpq	%rdx, %rcx
	jae	LBB9_47
Ltmp374:
	.loc	28 0 9
	xorl	%esi, %esi
	jmp	LBB9_54
Ltmp375:
LBB9_47:
	.loc	28 174 9
	movq	%rdi, %rsi
	movabsq	$4611686018427387896, %rcx
	andq	%rcx, %rsi
	leaq	-8(%rsi), %r15
	movq	%r15, %rdx
	shrq	$3, %rdx
	incq	%rdx
	movl	%edx, %ecx
	andl	$1, %ecx
	testq	%r15, %r15
	movq	%rcx, -112(%rbp)
	je	LBB9_48
Ltmp376:
	.loc	28 0 9
	movq	%rcx, %r15
	.loc	28 174 9
	subq	%rdx, %r15
Ltmp377:
	.loc	28 176 13 is_stmt 1
	xorl	%edx, %edx
Ltmp378:
	.p2align	4, 0x90
LBB9_50:
	.loc	13 140 33
	movups	-48(%r10,%rdx,4), %xmm0
	movups	-32(%r10,%rdx,4), %xmm1
	.loc	13 140 25 is_stmt 0
	movups	(%r11,%rdx,4), %xmm2
	orps	%xmm0, %xmm2
	movups	16(%r11,%rdx,4), %xmm0
	orps	%xmm1, %xmm0
	movups	32(%r11,%rdx,4), %xmm1
	movups	48(%r11,%rdx,4), %xmm3
	movups	%xmm2, (%r11,%rdx,4)
	movups	%xmm0, 16(%r11,%rdx,4)
	.loc	13 140 33
	movups	-16(%r10,%rdx,4), %xmm0
	.loc	13 140 25
	orps	%xmm1, %xmm0
	.loc	13 140 33
	movups	(%r10,%rdx,4), %xmm1
	.loc	13 140 25
	orps	%xmm3, %xmm1
	movups	%xmm0, 32(%r11,%rdx,4)
	movups	%xmm1, 48(%r11,%rdx,4)
Ltmp379:
	.loc	28 176 13 is_stmt 1
	addq	$16, %rdx
	addq	$2, %r15
	jne	LBB9_50
Ltmp380:
	cmpq	$0, -112(%rbp)
	je	LBB9_53
Ltmp381:
LBB9_52:
	.loc	28 0 13 is_stmt 0
	movq	-104(%rbp), %rcx
Ltmp382:
	.loc	13 140 33 is_stmt 1
	movups	(%rcx,%rdx,4), %xmm0
	movups	16(%rcx,%rdx,4), %xmm1
	.loc	13 140 25 is_stmt 0
	movups	(%r11,%rdx,4), %xmm2
	orps	%xmm0, %xmm2
	movups	16(%r11,%rdx,4), %xmm0
	orps	%xmm1, %xmm0
	movups	%xmm2, (%r11,%rdx,4)
	movups	%xmm0, 16(%r11,%rdx,4)
Ltmp383:
LBB9_53:
	.loc	28 174 9 is_stmt 1
	cmpq	%rsi, %rdi
	leaq	__ZN10bit_matrix5FALSE17h93d393a7d9fa103aE(%rip), %r15
	je	LBB9_29
Ltmp384:
	.p2align	4, 0x90
LBB9_54:
	.loc	13 140 33
	movl	(%r8,%rsi,4), %ecx
	.loc	13 140 25 is_stmt 0
	orl	%ecx, (%r11,%rsi,4)
Ltmp385:
	.loc	28 176 13 is_stmt 1
	incq	%rsi
Ltmp386:
	.loc	28 174 12
	cmpq	%rdi, %rsi
	.loc	28 174 9 is_stmt 0
	jb	LBB9_54
	jmp	LBB9_29
Ltmp387:
LBB9_48:
	.loc	28 0 9
	xorl	%edx, %edx
Ltmp388:
	.loc	28 176 13 is_stmt 1
	cmpq	$0, -112(%rbp)
	jne	LBB9_52
	jmp	LBB9_53
Ltmp389:
	.p2align	4, 0x90
LBB9_41:
	.loc	28 0 13 is_stmt 0
	movq	-64(%rbp), %r13
Ltmp390:
	movq	-96(%rbp), %rsi
Ltmp391:
	.loc	5 1136 52 is_stmt 1
	cmpq	%r13, %rsi
	movq	-72(%rbp), %rdi
Ltmp392:
	.loc	6 505 9
	je	LBB9_12
Ltmp393:
	.loc	6 0 9 is_stmt 0
	movq	-56(%rbp), %rax
Ltmp394:
	.loc	13 87 41 is_stmt 1
	movq	(%rax), %r9
Ltmp395:
	.loc	9 3013 26
	incq	%rsi
Ltmp396:
	.loc	9 0 26 is_stmt 0
	movq	-80(%rbp), %rcx
Ltmp397:
	.loc	14 11 6 is_stmt 1
	incq	%rcx
	movq	-88(%rbp), %r11
	addq	$4, %r11
Ltmp398:
	movq	%r9, %r14
	addq	$32, %r14
	jae	LBB9_8
Ltmp399:
LBB9_43:
	.loc	13 0 0 is_stmt 0
	leaq	_str.5(%rip), %rdi
	leaq	l___unnamed_6(%rip), %rdx
	movl	$28, %esi
	callq	__ZN4core9panicking5panic17h383a6b80ea7021aaE
LBB9_12:
Ltmp400:
	.loc	13 145 6 is_stmt 1
	addq	$200, %rsp
	popq	%rbx
	popq	%r12
	popq	%r13
	popq	%r14
	popq	%r15
	popq	%rbp
	retq
Ltmp401:
LBB9_26:
	.loc	13 0 0 is_stmt 0
	leaq	_str.6(%rip), %rdi
Ltmp402:
	leaq	l___unnamed_20(%rip), %rdx
	movl	$33, %esi
	callq	__ZN4core9panicking5panic17h383a6b80ea7021aaE
Ltmp403:
LBB9_10:
	.loc	7 3170 13 is_stmt 1
	leaq	l___unnamed_21(%rip), %rdx
	movq	%rbx, %rdi
Ltmp404:
	movq	%r10, %rsi
	callq	__ZN4core5slice24slice_end_index_len_fail17hea9e3399ed430f80E
Ltmp405:
LBB9_17:
	.loc	13 177 67
	leaq	_str.6(%rip), %rdi
Ltmp406:
	leaq	l___unnamed_22(%rip), %rdx
	movl	$33, %esi
	callq	__ZN4core9panicking5panic17h383a6b80ea7021aaE
Ltmp407:
LBB9_55:
	.loc	7 3178 13
	leaq	l___unnamed_22(%rip), %rdx
	movq	%rbx, %rdi
Ltmp408:
	movq	%r8, %rsi
	callq	__ZN4core5slice22slice_index_order_fail17h65298a4d6b795c79E
Ltmp409:
LBB9_16:
	.loc	7 3180 13
	leaq	l___unnamed_22(%rip), %rdx
	movq	%r8, %rdi
Ltmp410:
	movq	%r10, %rsi
	callq	__ZN4core5slice24slice_end_index_len_fail17hea9e3399ed430f80E
Ltmp411:
LBB9_57:
	.loc	7 3168 13
	leaq	l___unnamed_21(%rip), %rdx
	movq	%r8, %rdi
Ltmp412:
	movq	%rax, %rsi
Ltmp413:
	callq	__ZN4core5slice22slice_index_order_fail17h65298a4d6b795c79E
Ltmp414:
LBB9_25:
	.loc	7 3170 13
	leaq	l___unnamed_21(%rip), %rdx
	movq	%rax, %rdi
Ltmp415:
	movq	%r10, %rsi
Ltmp416:
	callq	__ZN4core5slice24slice_end_index_len_fail17hea9e3399ed430f80E
Ltmp417:
LBB9_58:
	.loc	10 10 9
	leaq	l___unnamed_23(%rip), %rdi
	leaq	l___unnamed_24(%rip), %rdx
	movl	$33, %esi
	callq	__ZN4core9panicking5panic17h383a6b80ea7021aaE
Ltmp418:
LBB9_56:
	.loc	13 0 0 is_stmt 0
	leaq	_str.3(%rip), %rdi
	leaq	l___unnamed_8(%rip), %rdx
	movl	$25, %esi
	callq	__ZN4core9panicking5panic17h383a6b80ea7021aaE
LBB9_11:
Ltmp419:
	leaq	-136(%rbp), %rax
Ltmp420:
	.loc	13 134 9 is_stmt 1
	movq	%rax, -144(%rbp)
	movq	-56(%rbp), %rax
	movq	%rax, -152(%rbp)
	leaq	-144(%rbp), %rax
Ltmp421:
	.loc	13 134 9 is_stmt 0
	movq	%rax, -184(%rbp)
	leaq	__ZN42_$LT$$RF$T$u20$as$u20$core..fmt..Debug$GT$3fmt17h4ce3503ddfc18036E(%rip), %rax
	movq	%rax, -176(%rbp)
	leaq	-152(%rbp), %rcx
	movq	%rcx, -168(%rbp)
	movq	%rax, -160(%rbp)
Ltmp422:
	.loc	2 328 9 is_stmt 1
	leaq	l___unnamed_25(%rip), %rax
Ltmp423:
	movq	%rax, -232(%rbp)
	movq	$3, -224(%rbp)
	movq	$0, -216(%rbp)
	leaq	-184(%rbp), %rax
Ltmp424:
	movq	%rax, -200(%rbp)
	movq	$2, -192(%rbp)
Ltmp425:
	.loc	13 134 9
	leaq	l___unnamed_26(%rip), %rsi
	leaq	-232(%rbp), %rdi
Ltmp426:
	callq	__ZN4core9panicking9panic_fmt17hfce5b7173905fc53E
Ltmp427:
Lfunc_end9:
	.cfi_endproc
	.file	29 "/Users/yingyuhang/.cargo/registry/src/github.com-1ecc6299db9ec823/bit-matrix-0.6.0/src/submatrix.rs"

	.globl	__ZN10bit_matrix6matrix9BitMatrix17reflexive_closure17hff7de3947194947dE
	.p2align	4, 0x90
__ZN10bit_matrix6matrix9BitMatrix17reflexive_closure17hff7de3947194947dE:
Lfunc_begin10:
	.loc	13 148 0
	.cfi_startproc
	pushq	%rbp
	.cfi_def_cfa_offset 16
	.cfi_offset %rbp, -16
	movq	%rsp, %rbp
	.cfi_def_cfa_register %rbp
	subq	$96, %rsp
Ltmp428:
	.loc	13 149 32 prologue_end
	movq	32(%rdi), %rcx
Ltmp429:
	.loc	13 40 12
	testq	%rcx, %rcx
	.loc	13 40 9 is_stmt 0
	je	LBB10_1
Ltmp430:
	.loc	14 11 6 is_stmt 1
	movq	%rcx, %rsi
	addq	$32, %rsi
	jb	LBB10_19
Ltmp431:
	.loc	14 11 5 is_stmt 0
	decq	%rsi
Ltmp432:
	.loc	13 43 30 is_stmt 1
	shrq	$5, %rsi
Ltmp433:
	.loc	13 44 13
	je	LBB10_20
Ltmp434:
	.loc	4 1923 55
	movq	16(%rdi), %rax
Ltmp435:
	.loc	13 44 13
	xorl	%edx, %edx
	divq	%rsi
	movq	%rax, %r8
Ltmp436:
	.loc	5 950 9
	cmpq	%r8, %rcx
	.loc	5 0 0 is_stmt 0
	cmovbeq	%rcx, %r8
Ltmp437:
	.loc	5 1136 52 is_stmt 1
	testq	%r8, %r8
Ltmp438:
	.loc	6 505 9
	jne	LBB10_6
	jmp	LBB10_13
Ltmp439:
LBB10_1:
	.loc	6 0 9 is_stmt 0
	xorl	%r8d, %r8d
Ltmp440:
	.loc	5 950 9 is_stmt 1
	cmpq	%r8, %rcx
	.loc	5 0 0 is_stmt 0
	cmovbeq	%rcx, %r8
Ltmp441:
	.loc	5 1136 52 is_stmt 1
	testq	%r8, %r8
Ltmp442:
	.loc	6 505 9
	je	LBB10_13
Ltmp443:
LBB10_6:
	.loc	14 11 6
	addq	$32, %rcx
Ltmp444:
	jb	LBB10_19
Ltmp445:
	.loc	14 0 6 is_stmt 0
	leaq	24(%rdi), %r11
	xorl	%r9d, %r9d
Ltmp446:
	.p2align	4, 0x90
LBB10_8:
	.loc	14 11 5
	decq	%rcx
	andq	$-32, %rcx
Ltmp447:
	.loc	13 61 26 is_stmt 1
	movq	%r9, %rax
	mulq	%rcx
	jo	LBB10_15
Ltmp448:
	addq	%r9, %rax
	jb	LBB10_16
Ltmp449:
	.loc	13 0 26 is_stmt 0
	movq	%rax, -8(%rbp)
Ltmp450:
	.loc	3 537 17 is_stmt 1
	cmpq	%rax, (%r11)
	.loc	3 537 9 is_stmt 0
	jbe	LBB10_14
Ltmp451:
	.loc	3 538 17 is_stmt 1
	movq	%rax, %r10
	shrq	$5, %r10
Ltmp452:
	.loc	4 1923 55
	movq	16(%rdi), %rsi
Ltmp453:
	.loc	7 3116 10
	cmpq	%r10, %rsi
	jbe	LBB10_12
Ltmp454:
	.loc	18 404 17
	movl	$1, %edx
	movl	%eax, %ecx
Ltmp455:
	shll	%cl, %edx
Ltmp456:
	.loc	4 818 19
	movq	(%rdi), %rax
Ltmp457:
	.loc	3 543 9
	orl	%edx, (%rax,%r10,4)
Ltmp458:
	.loc	5 1136 52
	incq	%r9
	cmpq	%r8, %r9
Ltmp459:
	.loc	6 505 9
	jae	LBB10_13
Ltmp460:
	.loc	13 60 49
	movq	32(%rdi), %rcx
Ltmp461:
	.loc	14 11 6
	addq	$32, %rcx
Ltmp462:
	jae	LBB10_8
Ltmp463:
LBB10_19:
	.loc	13 0 0 is_stmt 0
	leaq	_str.5(%rip), %rdi
Ltmp464:
	leaq	l___unnamed_6(%rip), %rdx
	movl	$28, %esi
	callq	__ZN4core9panicking5panic17h383a6b80ea7021aaE
LBB10_13:
Ltmp465:
	.loc	13 152 6 is_stmt 1
	addq	$96, %rsp
	popq	%rbp
	retq
Ltmp466:
LBB10_15:
	.loc	13 61 26
	leaq	_str.6(%rip), %rdi
Ltmp467:
	leaq	l___unnamed_27(%rip), %rdx
	movl	$33, %esi
	callq	__ZN4core9panicking5panic17h383a6b80ea7021aaE
Ltmp468:
LBB10_16:
	leaq	_str.5(%rip), %rdi
Ltmp469:
	leaq	l___unnamed_27(%rip), %rdx
	movl	$28, %esi
	callq	__ZN4core9panicking5panic17h383a6b80ea7021aaE
Ltmp470:
LBB10_14:
	.loc	13 0 26 is_stmt 0
	leaq	-8(%rbp), %rax
Ltmp471:
	.file	30 "/rustc/6c8927b0cf80ceee19386026cf9d7fd4fd9d486f/src/libstd/macros.rs"
	.loc	30 16 38 is_stmt 1
	movq	%rax, -40(%rbp)
	leaq	__ZN4core3fmt3num52_$LT$impl$u20$core..fmt..Debug$u20$for$u20$usize$GT$3fmt17h3ce1e8eb3a3c5c0bE(%rip), %rax
	movq	%rax, -32(%rbp)
	movq	%r11, -24(%rbp)
	movq	%rax, -16(%rbp)
Ltmp472:
	.loc	2 328 9
	leaq	l___unnamed_28(%rip), %rax
Ltmp473:
	movq	%rax, -88(%rbp)
	movq	$2, -80(%rbp)
	movq	$0, -72(%rbp)
	leaq	-40(%rbp), %rax
Ltmp474:
	movq	%rax, -56(%rbp)
	movq	$2, -48(%rbp)
Ltmp475:
	.loc	30 16 9
	leaq	l___unnamed_29(%rip), %rsi
	leaq	-88(%rbp), %rdi
Ltmp476:
	callq	__ZN3std9panicking15begin_panic_fmt17h8712912d987f10a1E
Ltmp477:
LBB10_12:
	.loc	7 3116 10
	leaq	l___unnamed_30(%rip), %rdx
	movq	%r10, %rdi
Ltmp478:
	callq	__ZN4core9panicking18panic_bounds_check17he87128426d100e93E
Ltmp479:
LBB10_20:
	.loc	13 44 13
	leaq	_str.3(%rip), %rdi
Ltmp480:
	leaq	l___unnamed_8(%rip), %rdx
	movl	$25, %esi
Ltmp481:
	callq	__ZN4core9panicking5panic17h383a6b80ea7021aaE
Ltmp482:
Lfunc_end10:
	.cfi_endproc

	.globl	__ZN80_$LT$bit_matrix..row..Iter$u20$as$u20$core..iter..traits..iterator..Iterator$GT$9size_hint17hf9573c097b80a309E
	.p2align	4, 0x90
__ZN80_$LT$bit_matrix..row..Iter$u20$as$u20$core..iter..traits..iterator..Iterator$GT$9size_hint17hf9573c097b80a309E:
Lfunc_begin11:
	.loc	26 95 0
	.cfi_startproc
	pushq	%rbp
	.cfi_def_cfa_offset 16
	.cfi_offset %rbp, -16
	movq	%rsp, %rbp
	.cfi_def_cfa_register %rbp
Ltmp483:
	.loc	26 96 9 prologue_end
	movq	24(%rsi), %rax
	xorl	%ecx, %ecx
Ltmp484:
	.loc	6 516 9
	subq	16(%rsi), %rax
	cmovaeq	%rax, %rcx
	movq	%rdi, %rax
Ltmp485:
	.loc	6 518 13
	movq	%rcx, (%rdi)
	movq	$1, 8(%rdi)
	movq	%rcx, 16(%rdi)
Ltmp486:
	.loc	26 97 6
	popq	%rbp
	retq
Ltmp487:
Lfunc_end11:
	.cfi_endproc

	.globl	__ZN10bit_matrix9submatrix12BitSubMatrix3new17hbfefe48f15a11cb0E
	.p2align	4, 0x90
__ZN10bit_matrix9submatrix12BitSubMatrix3new17hbfefe48f15a11cb0E:
Lfunc_begin12:
	.loc	29 29 0
	.cfi_startproc
	pushq	%rbp
	.cfi_def_cfa_offset 16
	.cfi_offset %rbp, -16
	movq	%rsp, %rbp
	.cfi_def_cfa_register %rbp
	movq	%rdi, %rax
Ltmp488:
	.loc	29 30 9 prologue_end
	movq	%rsi, (%rdi)
	movq	%rdx, 8(%rdi)
	movq	%rcx, 16(%rdi)
	.loc	29 34 6
	popq	%rbp
	retq
Ltmp489:
Lfunc_end12:
	.cfi_endproc

	.globl	__ZN10bit_matrix9submatrix12BitSubMatrix4iter17hacba35a081a05b72E
	.p2align	4, 0x90
__ZN10bit_matrix9submatrix12BitSubMatrix4iter17hacba35a081a05b72E:
Lfunc_begin13:
	.loc	29 46 0
	.cfi_startproc
	pushq	%rbp
	.cfi_def_cfa_offset 16
	.cfi_offset %rbp, -16
	movq	%rsp, %rbp
	.cfi_def_cfa_register %rbp
Ltmp490:
	.loc	29 51 41 prologue_end
	movq	16(%rsi), %rcx
Ltmp491:
	.loc	14 11 6
	addq	$32, %rcx
Ltmp492:
	jb	LBB13_3
Ltmp493:
	.loc	14 11 5 is_stmt 0
	decq	%rcx
Ltmp494:
	.loc	29 51 24 is_stmt 1
	shrq	$5, %rcx
Ltmp495:
	.loc	7 717 9
	je	LBB13_4
Ltmp496:
	.loc	7 0 9 is_stmt 0
	movq	%rdi, %rax
	.loc	29 52 9 is_stmt 1
	movups	(%rsi), %xmm0
Ltmp497:
	.loc	23 599 18
	movups	%xmm0, (%rdi)
	movq	%rcx, 16(%rdi)
Ltmp498:
	.loc	21 818 9
	leaq	__ZN10bit_matrix9submatrix12BitSubMatrix4iter1f17h6e75b0666e2002b2E(%rip), %rcx
Ltmp499:
	movq	%rcx, 24(%rdi)
Ltmp500:
	.loc	29 53 6
	popq	%rbp
	retq
Ltmp501:
LBB13_3:
	.loc	14 11 6
	leaq	_str.5(%rip), %rdi
	leaq	l___unnamed_6(%rip), %rdx
	movl	$28, %esi
Ltmp502:
	callq	__ZN4core9panicking5panic17h383a6b80ea7021aaE
Ltmp503:
LBB13_4:
	.loc	10 10 9
	leaq	l___unnamed_23(%rip), %rdi
	leaq	l___unnamed_24(%rip), %rdx
	movl	$33, %esi
Ltmp504:
	callq	__ZN4core9panicking5panic17h383a6b80ea7021aaE
Ltmp505:
Lfunc_end13:
	.cfi_endproc

	.p2align	4, 0x90
__ZN10bit_matrix9submatrix12BitSubMatrix4iter1f17h6e75b0666e2002b2E:
Lfunc_begin14:
	.loc	29 48 0
	.cfi_startproc
	pushq	%rbp
	.cfi_def_cfa_offset 16
	.cfi_offset %rbp, -16
	movq	%rsp, %rbp
	.cfi_def_cfa_register %rbp
	movq	%rsi, %rdx
	movq	%rdi, %rax
Ltmp506:
	.loc	29 50 10 prologue_end
	popq	%rbp
	retq
Ltmp507:
Lfunc_end14:
	.cfi_endproc

	.globl	__ZN10bit_matrix9submatrix15BitSubMatrixMut3new17h42ebf4500fc616beE
	.p2align	4, 0x90
__ZN10bit_matrix9submatrix15BitSubMatrixMut3new17h42ebf4500fc616beE:
Lfunc_begin15:
	.loc	29 58 0
	.cfi_startproc
	pushq	%rbp
	.cfi_def_cfa_offset 16
	.cfi_offset %rbp, -16
	movq	%rsp, %rbp
	.cfi_def_cfa_register %rbp
	movq	%rdi, %rax
Ltmp508:
	.loc	29 59 9 prologue_end
	movq	%rsi, (%rdi)
	movq	%rdx, 8(%rdi)
	movq	%rcx, 16(%rdi)
	.loc	29 63 6
	popq	%rbp
	retq
Ltmp509:
Lfunc_end15:
	.cfi_endproc

	.globl	__ZN10bit_matrix9submatrix15BitSubMatrixMut18transitive_closure17h71fe29dba7aa1ef0E
	.p2align	4, 0x90
__ZN10bit_matrix9submatrix15BitSubMatrixMut18transitive_closure17h71fe29dba7aa1ef0E:
Lfunc_begin16:
	.loc	29 150 0
	.cfi_startproc
	pushq	%rbp
	.cfi_def_cfa_offset 16
	.cfi_offset %rbp, -16
	movq	%rsp, %rbp
	.cfi_def_cfa_register %rbp
Ltmp510:
	pushq	%r15
	pushq	%r14
	pushq	%r13
	pushq	%r12
	pushq	%rbx
	subq	$152, %rsp
	.cfi_offset %rbx, -56
	.cfi_offset %r12, -48
	.cfi_offset %r13, -40
	.cfi_offset %r14, -32
	.cfi_offset %r15, -24
	.loc	29 151 20 prologue_end
	movq	16(%rdi), %r10
Ltmp511:
	.loc	14 11 6
	movq	%r10, %r11
	addq	$32, %r11
	jb	LBB16_51
Ltmp512:
	.loc	29 0 0 is_stmt 0
	movq	8(%rdi), %r9
Ltmp513:
	.loc	14 11 5
	decq	%r11
Ltmp514:
	.loc	29 77 24 is_stmt 1
	shrq	$5, %r11
Ltmp515:
	.loc	29 78 9
	je	LBB16_2
Ltmp516:
	.loc	29 81 13
	movq	%r9, %rax
	xorl	%edx, %edx
	divq	%r11
	jmp	LBB16_4
Ltmp517:
LBB16_2:
	.loc	29 0 13 is_stmt 0
	xorl	%eax, %eax
Ltmp518:
LBB16_4:
	leaq	16(%rdi), %rcx
	movq	%rcx, -56(%rbp)
	.loc	29 151 20 is_stmt 1
	movq	%rax, -96(%rbp)
Ltmp519:
	.loc	29 151 9 is_stmt 0
	cmpq	%r10, %rax
	jne	LBB16_9
Ltmp520:
	.loc	5 1136 52 is_stmt 1
	testq	%r10, %r10
Ltmp521:
	.loc	6 505 9
	je	LBB16_10
Ltmp522:
	.loc	6 0 9 is_stmt 0
	movl	$1, %ebx
	xorl	%r8d, %r8d
	leaq	__ZN10bit_matrix5FALSE17h93d393a7d9fa103aE(%rip), %r15
	leaq	__ZN10bit_matrix4TRUE17h4ab893aac5e82269E(%rip), %r12
	xorl	%ecx, %ecx
	movq	%rdi, -72(%rbp)
	movq	%r10, -64(%rbp)
Ltmp523:
	.p2align	4, 0x90
LBB16_7:
	.loc	7 3169 19 is_stmt 1
	cmpq	%r8, %r9
	.loc	7 3169 16 is_stmt 0
	jb	LBB16_8
Ltmp524:
	.loc	29 204 51 is_stmt 1
	movq	%rbx, %rax
	mulq	%r11
	jo	LBB16_15
Ltmp525:
	.loc	29 0 0 is_stmt 0
	movq	%rax, %rsi
Ltmp526:
	.loc	7 3177 12 is_stmt 1
	cmpq	%r8, %rax
	.loc	7 3177 9 is_stmt 0
	jb	LBB16_52
Ltmp527:
	.loc	7 3179 19 is_stmt 1
	cmpq	%rsi, %r9
	.loc	7 3179 16 is_stmt 0
	jb	LBB16_14
Ltmp528:
	.loc	29 0 0
	movq	(%rdi), %r13
Ltmp529:
	.loc	29 78 12 is_stmt 1
	testq	%r11, %r11
	.loc	29 78 9 is_stmt 0
	je	LBB16_17
Ltmp530:
	.loc	29 81 13 is_stmt 1
	movq	%r9, %rax
	xorl	%edx, %edx
	divq	%r11
Ltmp531:
	.loc	29 111 58
	mulq	%r11
Ltmp532:
	.loc	29 0 58 is_stmt 0
	jno	LBB16_20
	jmp	LBB16_39
Ltmp533:
	.p2align	4, 0x90
LBB16_17:
	xorl	%eax, %eax
Ltmp534:
	.loc	29 111 58
	mulq	%r11
Ltmp535:
	jo	LBB16_39
Ltmp536:
LBB16_20:
	.loc	7 3167 12 is_stmt 1
	cmpq	%rsi, %rax
	.loc	7 3167 9 is_stmt 0
	jb	LBB16_53
Ltmp537:
	.loc	7 3169 19 is_stmt 1
	cmpq	%rax, %r9
	.loc	7 3169 16 is_stmt 0
	jb	LBB16_55
Ltmp538:
	.loc	7 0 16
	movq	%rbx, -80(%rbp)
Ltmp539:
	.loc	29 78 12 is_stmt 1
	testq	%r11, %r11
Ltmp540:
	.loc	7 755 9
	je	LBB16_54
Ltmp541:
	.loc	29 0 0 is_stmt 0
	leaq	(%r13,%r8,4), %rdx
Ltmp542:
	.loc	25 164 18 is_stmt 1
	leaq	(%r13,%rsi,4), %r10
Ltmp543:
	.loc	26 0 0 is_stmt 0
	movl	$1, %edi
Ltmp544:
	shll	%cl, %edi
	movl	%edi, -44(%rbp)
Ltmp545:
	.loc	7 3154 76 is_stmt 1
	subq	%rsi, %rax
Ltmp546:
	.loc	14 0 0 is_stmt 0
	shrq	$5, %rcx
Ltmp547:
	movq	%r10, %r9
Ltmp548:
	subq	%rdx, %r9
Ltmp549:
	shrq	$2, %r9
Ltmp550:
	.p2align	4, 0x90
LBB16_24:
	.loc	27 37 13 is_stmt 1
	testq	%r13, %r13
Ltmp551:
	je	LBB16_33
Ltmp552:
	testq	%r8, %r8
	je	LBB16_33
Ltmp553:
	.loc	5 950 9
	cmpq	%r11, %r8
	.loc	5 0 0 is_stmt 0
	movq	%r8, %rdi
	cmovaq	%r11, %rdi
	movq	%r13, %r14
Ltmp554:
	.loc	22 165 18 is_stmt 1
	leaq	(%r13,%rdi,4), %r13
Ltmp555:
	.loc	7 1074 77
	subq	%rdi, %r8
Ltmp556:
	.loc	26 0 0 is_stmt 0
	movq	%r15, %rsi
Ltmp557:
	.loc	7 3090 12 is_stmt 1
	cmpq	%rdi, %rcx
Ltmp558:
	.loc	26 58 13
	jae	LBB16_29
Ltmp559:
LBB16_28:
	.loc	26 0 13 is_stmt 0
	movl	-44(%rbp), %esi
Ltmp560:
	.loc	26 59 27 is_stmt 1
	testl	%esi, (%r14,%rcx,4)
Ltmp561:
	.loc	26 59 24 is_stmt 0
	movq	%r12, %rsi
	cmoveq	%r15, %rsi
Ltmp562:
LBB16_29:
	.loc	29 155 20 is_stmt 1
	cmpb	$0, (%rsi)
	.loc	29 155 17 is_stmt 0
	je	LBB16_24
Ltmp563:
	.loc	5 950 9 is_stmt 1
	cmpq	%r9, %rdi
	.loc	5 0 0 is_stmt 0
	cmovaq	%r9, %rdi
Ltmp564:
	.loc	28 174 12 is_stmt 1
	testq	%rdi, %rdi
Ltmp565:
	.loc	28 174 9 is_stmt 0
	je	LBB16_24
Ltmp566:
	cmpq	$8, %rdi
	jae	LBB16_40
Ltmp567:
	.loc	28 0 9
	xorl	%esi, %esi
	jmp	LBB16_50
Ltmp568:
	.p2align	4, 0x90
LBB16_33:
	.loc	27 54 13 is_stmt 1
	testq	%r10, %r10
Ltmp569:
	je	LBB16_36
Ltmp570:
	testq	%rax, %rax
	je	LBB16_36
Ltmp571:
	.loc	5 950 9
	cmpq	%r11, %rax
	.loc	5 0 0 is_stmt 0
	movq	%rax, %rdi
	cmovaq	%r11, %rdi
Ltmp572:
	movq	%r10, %r14
Ltmp573:
	.loc	22 165 18 is_stmt 1
	leaq	(%r10,%rdi,4), %r10
Ltmp574:
	.loc	7 1074 77
	subq	%rdi, %rax
Ltmp575:
	.loc	7 0 77 is_stmt 0
	xorl	%r13d, %r13d
Ltmp576:
	movq	%r15, %rsi
Ltmp577:
	.loc	7 3090 12 is_stmt 1
	cmpq	%rdi, %rcx
Ltmp578:
	.loc	26 58 13
	jb	LBB16_28
	jmp	LBB16_29
Ltmp579:
LBB16_40:
	.loc	28 174 9
	leaq	(%rdx,%rdi,4), %rsi
	cmpq	%rsi, %r14
	jae	LBB16_43
Ltmp580:
	.loc	28 0 9 is_stmt 0
	leaq	(%r14,%rdi,4), %rsi
	.loc	28 174 9
	cmpq	%rsi, %rdx
	jae	LBB16_43
Ltmp581:
	.loc	28 0 9
	xorl	%esi, %esi
	jmp	LBB16_50
Ltmp582:
LBB16_43:
	.loc	28 174 9
	movq	%rdi, %rsi
	movabsq	$4611686018427387896, %rbx
	andq	%rbx, %rsi
	leaq	-8(%rsi), %r15
	movq	%r15, %rbx
	shrq	$3, %rbx
	incq	%rbx
	movl	%ebx, %r12d
	andl	$1, %r12d
	testq	%r15, %r15
	movq	%r12, -88(%rbp)
	je	LBB16_44
Ltmp583:
	movq	%r12, %r15
	subq	%rbx, %r15
Ltmp584:
	.loc	28 176 13 is_stmt 1
	xorl	%r12d, %r12d
Ltmp585:
	.p2align	4, 0x90
LBB16_46:
	.loc	29 157 33
	movups	(%rdx,%r12,4), %xmm0
	movups	16(%rdx,%r12,4), %xmm1
	.loc	29 157 25 is_stmt 0
	movups	(%r14,%r12,4), %xmm2
	orps	%xmm0, %xmm2
	movups	16(%r14,%r12,4), %xmm0
	orps	%xmm1, %xmm0
	movups	32(%r14,%r12,4), %xmm1
	movups	48(%r14,%r12,4), %xmm3
	movups	%xmm2, (%r14,%r12,4)
	movups	%xmm0, 16(%r14,%r12,4)
	.loc	29 157 33
	movups	32(%rdx,%r12,4), %xmm0
	.loc	29 157 25
	orps	%xmm1, %xmm0
	.loc	29 157 33
	movups	48(%rdx,%r12,4), %xmm1
	.loc	29 157 25
	orps	%xmm3, %xmm1
	movups	%xmm0, 32(%r14,%r12,4)
	movups	%xmm1, 48(%r14,%r12,4)
Ltmp586:
	.loc	28 176 13 is_stmt 1
	addq	$16, %r12
	addq	$2, %r15
	jne	LBB16_46
Ltmp587:
	cmpq	$0, -88(%rbp)
	je	LBB16_49
Ltmp588:
LBB16_48:
	.loc	29 157 33
	movups	(%rdx,%r12,4), %xmm0
	movups	16(%rdx,%r12,4), %xmm1
	.loc	29 157 25 is_stmt 0
	movups	(%r14,%r12,4), %xmm2
	orps	%xmm0, %xmm2
	movups	16(%r14,%r12,4), %xmm0
	orps	%xmm1, %xmm0
	movups	%xmm2, (%r14,%r12,4)
	movups	%xmm0, 16(%r14,%r12,4)
Ltmp589:
LBB16_49:
	.loc	28 174 9 is_stmt 1
	cmpq	%rsi, %rdi
	leaq	__ZN10bit_matrix5FALSE17h93d393a7d9fa103aE(%rip), %r15
	leaq	__ZN10bit_matrix4TRUE17h4ab893aac5e82269E(%rip), %r12
	je	LBB16_24
Ltmp590:
	.p2align	4, 0x90
LBB16_50:
	.loc	29 157 33
	movl	(%rdx,%rsi,4), %ebx
	.loc	29 157 25 is_stmt 0
	orl	%ebx, (%r14,%rsi,4)
Ltmp591:
	.loc	28 176 13 is_stmt 1
	incq	%rsi
Ltmp592:
	.loc	28 174 12
	cmpq	%rdi, %rsi
	.loc	28 174 9 is_stmt 0
	jb	LBB16_50
	jmp	LBB16_24
Ltmp593:
LBB16_44:
	.loc	28 0 9
	xorl	%r12d, %r12d
Ltmp594:
	.loc	28 176 13 is_stmt 1
	cmpq	$0, -88(%rbp)
	jne	LBB16_48
	jmp	LBB16_49
Ltmp595:
	.p2align	4, 0x90
LBB16_36:
	.loc	28 0 13 is_stmt 0
	movq	-64(%rbp), %r10
Ltmp596:
	movq	-80(%rbp), %rbx
Ltmp597:
	.loc	5 1136 52 is_stmt 1
	cmpq	%r10, %rbx
	movq	-72(%rbp), %rdi
Ltmp598:
	.loc	6 505 9
	je	LBB16_10
Ltmp599:
	.loc	6 0 9 is_stmt 0
	movq	-56(%rbp), %rax
Ltmp600:
	.loc	29 109 41 is_stmt 1
	movq	(%rax), %r11
Ltmp601:
	.loc	14 11 6
	addq	$32, %r11
Ltmp602:
	jb	LBB16_51
Ltmp603:
	.loc	29 111 21
	movq	8(%rdi), %r9
Ltmp604:
	.loc	14 11 5
	decq	%r11
Ltmp605:
	.loc	29 109 24
	shrq	$5, %r11
Ltmp606:
	.loc	29 111 58
	movq	%rbx, %rax
	mulq	%r11
	movq	%rax, %r8
	movq	%rbx, %rcx
Ltmp607:
	.loc	9 3013 26
	leaq	1(%rbx), %rbx
Ltmp608:
	.loc	29 111 58
	jno	LBB16_7
Ltmp609:
LBB16_39:
	.loc	29 0 0 is_stmt 0
	leaq	_str.6(%rip), %rdi
Ltmp610:
	leaq	l___unnamed_31(%rip), %rdx
	movl	$33, %esi
	callq	__ZN4core9panicking5panic17h383a6b80ea7021aaE
Ltmp611:
LBB16_10:
	.loc	29 162 6 is_stmt 1
	addq	$152, %rsp
	popq	%rbx
	popq	%r12
	popq	%r13
	popq	%r14
	popq	%r15
	popq	%rbp
	retq
Ltmp612:
LBB16_8:
	.loc	7 3170 13
	leaq	l___unnamed_32(%rip), %rdx
	movq	%r8, %rdi
Ltmp613:
	movq	%r9, %rsi
	callq	__ZN4core5slice24slice_end_index_len_fail17hea9e3399ed430f80E
Ltmp614:
LBB16_15:
	.loc	29 204 51
	leaq	_str.6(%rip), %rdi
Ltmp615:
	leaq	l___unnamed_33(%rip), %rdx
	movl	$33, %esi
	callq	__ZN4core9panicking5panic17h383a6b80ea7021aaE
Ltmp616:
LBB16_52:
	.loc	7 3178 13
	leaq	l___unnamed_33(%rip), %rdx
	movq	%r8, %rdi
Ltmp617:
	callq	__ZN4core5slice22slice_index_order_fail17h65298a4d6b795c79E
Ltmp618:
LBB16_14:
	.loc	7 3180 13
	leaq	l___unnamed_33(%rip), %rdx
	movq	%rsi, %rdi
Ltmp619:
	movq	%r9, %rsi
Ltmp620:
	callq	__ZN4core5slice24slice_end_index_len_fail17hea9e3399ed430f80E
Ltmp621:
LBB16_53:
	.loc	7 3168 13
	leaq	l___unnamed_32(%rip), %rdx
	movq	%rsi, %rdi
Ltmp622:
	movq	%rax, %rsi
Ltmp623:
	callq	__ZN4core5slice22slice_index_order_fail17h65298a4d6b795c79E
Ltmp624:
LBB16_55:
	.loc	7 3170 13
	leaq	l___unnamed_32(%rip), %rdx
	movq	%rax, %rdi
Ltmp625:
	movq	%r9, %rsi
Ltmp626:
	callq	__ZN4core5slice24slice_end_index_len_fail17hea9e3399ed430f80E
Ltmp627:
LBB16_54:
	.loc	10 10 9
	leaq	l___unnamed_23(%rip), %rdi
	leaq	l___unnamed_24(%rip), %rdx
	movl	$33, %esi
	callq	__ZN4core9panicking5panic17h383a6b80ea7021aaE
Ltmp628:
LBB16_51:
	.loc	29 0 0 is_stmt 0
	leaq	_str.5(%rip), %rdi
	leaq	l___unnamed_6(%rip), %rdx
	movl	$28, %esi
	callq	__ZN4core9panicking5panic17h383a6b80ea7021aaE
LBB16_9:
Ltmp629:
	leaq	-96(%rbp), %rax
Ltmp630:
	.loc	29 151 9 is_stmt 1
	movq	%rax, -104(%rbp)
	movq	-56(%rbp), %rax
	movq	%rax, -112(%rbp)
	leaq	-104(%rbp), %rax
Ltmp631:
	.loc	29 151 9 is_stmt 0
	movq	%rax, -144(%rbp)
	leaq	__ZN42_$LT$$RF$T$u20$as$u20$core..fmt..Debug$GT$3fmt17h4ce3503ddfc18036E(%rip), %rax
	movq	%rax, -136(%rbp)
	leaq	-112(%rbp), %rcx
	movq	%rcx, -128(%rbp)
	movq	%rax, -120(%rbp)
Ltmp632:
	.loc	2 328 9 is_stmt 1
	leaq	l___unnamed_25(%rip), %rax
Ltmp633:
	movq	%rax, -192(%rbp)
	movq	$3, -184(%rbp)
	movq	$0, -176(%rbp)
	leaq	-144(%rbp), %rax
Ltmp634:
	movq	%rax, -160(%rbp)
	movq	$2, -152(%rbp)
Ltmp635:
	.loc	29 151 9
	leaq	l___unnamed_34(%rip), %rsi
	leaq	-192(%rbp), %rdi
Ltmp636:
	callq	__ZN4core9panicking9panic_fmt17hfce5b7173905fc53E
Ltmp637:
Lfunc_end16:
	.cfi_endproc

	.globl	__ZN10bit_matrix9submatrix15BitSubMatrixMut17reflexive_closure17hacd5e3ba8016deadE
	.p2align	4, 0x90
__ZN10bit_matrix9submatrix15BitSubMatrixMut17reflexive_closure17hacd5e3ba8016deadE:
Lfunc_begin17:
	.loc	29 165 0
	.cfi_startproc
	pushq	%rbp
	.cfi_def_cfa_offset 16
	.cfi_offset %rbp, -16
	movq	%rsp, %rbp
	.cfi_def_cfa_register %rbp
Ltmp638:
	.loc	29 166 32 prologue_end
	movq	16(%rdi), %r9
Ltmp639:
	.loc	14 11 6
	movq	%r9, %rcx
	addq	$32, %rcx
	jb	LBB17_17
Ltmp640:
	.loc	14 11 5 is_stmt 0
	decq	%rcx
Ltmp641:
	.loc	29 77 24 is_stmt 1
	shrq	$5, %rcx
Ltmp642:
	.loc	29 78 9
	je	LBB17_2
Ltmp643:
	.loc	29 0 0 is_stmt 0
	movq	8(%rdi), %rax
Ltmp644:
	.loc	29 81 13 is_stmt 1
	xorl	%edx, %edx
	divq	%rcx
	movq	%rax, %r8
Ltmp645:
	.loc	5 950 9
	cmpq	%r8, %r9
	.loc	5 0 0 is_stmt 0
	cmovbeq	%r9, %r8
Ltmp646:
	.loc	5 1136 52 is_stmt 1
	testq	%r8, %r8
Ltmp647:
	.loc	6 505 9
	jne	LBB17_5
	jmp	LBB17_12
Ltmp648:
LBB17_2:
	.loc	6 0 9 is_stmt 0
	xorl	%r8d, %r8d
Ltmp649:
	.loc	5 950 9 is_stmt 1
	cmpq	%r8, %r9
	.loc	5 0 0 is_stmt 0
	cmovbeq	%r9, %r8
Ltmp650:
	.loc	5 1136 52 is_stmt 1
	testq	%r8, %r8
Ltmp651:
	.loc	6 505 9
	je	LBB17_12
Ltmp652:
LBB17_5:
	.loc	14 11 6
	movq	%r9, %rcx
	addq	$32, %rcx
	jb	LBB17_17
Ltmp653:
	.loc	14 0 6 is_stmt 0
	xorl	%r10d, %r10d
Ltmp654:
	.p2align	4, 0x90
LBB17_7:
	.loc	14 11 5
	decq	%rcx
	andq	$-32, %rcx
Ltmp655:
	.loc	29 93 19 is_stmt 1
	movq	%r10, %rax
	mulq	%rcx
	jo	LBB17_13
Ltmp656:
	addq	%r10, %rax
	jb	LBB17_14
Ltmp657:
	.loc	29 95 45
	cmpq	%r10, %r9
	.loc	29 95 17 is_stmt 0
	jbe	LBB17_11
Ltmp658:
	.loc	29 0 0
	movq	%rax, %rdx
	shrq	$5, %rdx
Ltmp659:
	.loc	29 95 17
	cmpq	8(%rdi), %rdx
	jae	LBB17_11
Ltmp660:
	.loc	29 0 0
	movl	$1, %esi
	movl	%eax, %ecx
Ltmp661:
	shll	%cl, %esi
Ltmp662:
	.loc	29 97 23 is_stmt 1
	movq	(%rdi), %rax
Ltmp663:
	.loc	29 99 17
	orl	%esi, (%rax,%rdx,4)
Ltmp664:
	.loc	5 1136 52
	incq	%r10
	cmpq	%r8, %r10
Ltmp665:
	.loc	6 505 9
	jae	LBB17_12
Ltmp666:
	.loc	29 92 49
	movq	16(%rdi), %r9
Ltmp667:
	.loc	14 11 6
	movq	%r9, %rcx
	addq	$32, %rcx
	jae	LBB17_7
Ltmp668:
LBB17_17:
	.loc	29 0 0 is_stmt 0
	leaq	_str.5(%rip), %rdi
Ltmp669:
	leaq	l___unnamed_6(%rip), %rdx
	movl	$28, %esi
	callq	__ZN4core9panicking5panic17h383a6b80ea7021aaE
LBB17_12:
Ltmp670:
	.loc	29 169 6 is_stmt 1
	popq	%rbp
	retq
Ltmp671:
LBB17_11:
	.loc	29 95 9
	leaq	l___unnamed_35(%rip), %rdi
Ltmp672:
	leaq	l___unnamed_36(%rip), %rdx
	movl	$65, %esi
	callq	__ZN4core9panicking5panic17h383a6b80ea7021aaE
Ltmp673:
LBB17_13:
	.loc	29 93 19
	leaq	_str.6(%rip), %rdi
Ltmp674:
	leaq	l___unnamed_37(%rip), %rdx
	movl	$33, %esi
	callq	__ZN4core9panicking5panic17h383a6b80ea7021aaE
Ltmp675:
LBB17_14:
	leaq	_str.5(%rip), %rdi
Ltmp676:
	leaq	l___unnamed_37(%rip), %rdx
	movl	$28, %esi
	callq	__ZN4core9panicking5panic17h383a6b80ea7021aaE
Ltmp677:
Lfunc_end17:
	.cfi_endproc

	.globl	__ZN10bit_matrix9submatrix15BitSubMatrixMut8iter_mut17ha329c7debf4acf10E
	.p2align	4, 0x90
__ZN10bit_matrix9submatrix15BitSubMatrixMut8iter_mut17ha329c7debf4acf10E:
Lfunc_begin18:
	.loc	29 172 0
	.cfi_startproc
	pushq	%rbp
	.cfi_def_cfa_offset 16
	.cfi_offset %rbp, -16
	movq	%rsp, %rbp
	.cfi_def_cfa_register %rbp
Ltmp678:
	.loc	29 177 41 prologue_end
	movq	16(%rsi), %rcx
Ltmp679:
	.loc	14 11 6
	addq	$32, %rcx
Ltmp680:
	jb	LBB18_3
Ltmp681:
	.loc	14 11 5 is_stmt 0
	decq	%rcx
Ltmp682:
	.loc	29 177 24 is_stmt 1
	shrq	$5, %rcx
Ltmp683:
	.loc	7 755 9
	je	LBB18_4
Ltmp684:
	.loc	7 0 9 is_stmt 0
	movq	%rdi, %rax
	.loc	29 178 9 is_stmt 1
	movups	(%rsi), %xmm0
Ltmp685:
	.loc	23 599 18
	movups	%xmm0, (%rdi)
	movq	%rcx, 16(%rdi)
Ltmp686:
	.loc	21 818 9
	leaq	__ZN10bit_matrix9submatrix15BitSubMatrixMut8iter_mut1f17h6fa5f1113fd2d84fE(%rip), %rcx
Ltmp687:
	movq	%rcx, 24(%rdi)
Ltmp688:
	.loc	29 179 6
	popq	%rbp
	retq
Ltmp689:
LBB18_3:
	.loc	14 11 6
	leaq	_str.5(%rip), %rdi
	leaq	l___unnamed_6(%rip), %rdx
	movl	$28, %esi
Ltmp690:
	callq	__ZN4core9panicking5panic17h383a6b80ea7021aaE
Ltmp691:
LBB18_4:
	.loc	10 10 9
	leaq	l___unnamed_23(%rip), %rdi
	leaq	l___unnamed_24(%rip), %rdx
	movl	$33, %esi
Ltmp692:
	callq	__ZN4core9panicking5panic17h383a6b80ea7021aaE
Ltmp693:
Lfunc_end18:
	.cfi_endproc

	.p2align	4, 0x90
__ZN10bit_matrix9submatrix15BitSubMatrixMut8iter_mut1f17h6fa5f1113fd2d84fE:
Lfunc_begin19:
	.loc	29 174 0
	.cfi_startproc
	pushq	%rbp
	.cfi_def_cfa_offset 16
	.cfi_offset %rbp, -16
	movq	%rsp, %rbp
	.cfi_def_cfa_register %rbp
	movq	%rsi, %rdx
	movq	%rdi, %rax
Ltmp694:
	.loc	29 176 10 prologue_end
	popq	%rbp
	retq
Ltmp695:
Lfunc_end19:
	.cfi_endproc

	.globl	__ZN72_$LT$bit_matrix..submatrix..BitSubMatrix$u20$as$u20$core..fmt..Debug$GT$3fmt17hb956d15f6aa99185E
	.p2align	4, 0x90
__ZN72_$LT$bit_matrix..submatrix..BitSubMatrix$u20$as$u20$core..fmt..Debug$GT$3fmt17hb956d15f6aa99185E:
Lfunc_begin20:
	.loc	29 226 0
	.cfi_startproc
	pushq	%rbp
	.cfi_def_cfa_offset 16
	.cfi_offset %rbp, -16
	movq	%rsp, %rbp
	.cfi_def_cfa_register %rbp
Ltmp696:
	pushq	%r15
	pushq	%r14
	pushq	%r13
	pushq	%r12
	pushq	%rbx
	subq	$104, %rsp
	.cfi_offset %rbx, -56
	.cfi_offset %r12, -48
	.cfi_offset %r13, -40
	.cfi_offset %r14, -32
	.cfi_offset %r15, -24
	.loc	29 51 41 prologue_end
	movq	16(%rdi), %rbx
Ltmp697:
	.loc	14 11 6
	movq	%rbx, %rax
	addq	$32, %rax
	jb	LBB20_14
Ltmp698:
	.loc	14 11 5 is_stmt 0
	decq	%rax
Ltmp699:
	.loc	29 51 24 is_stmt 1
	shrq	$5, %rax
Ltmp700:
	.loc	7 717 9
	je	LBB20_15
Ltmp701:
	.loc	7 0 9 is_stmt 0
	movq	%rsi, %r15
Ltmp702:
	.loc	29 52 9 is_stmt 1
	movq	(%rdi), %rcx
	movq	%rcx, -48(%rbp)
	movq	8(%rdi), %rcx
Ltmp703:
	.loc	29 0 9 is_stmt 0
	leaq	__ZN10bit_matrix5FALSE17h93d393a7d9fa103aE(%rip), %r12
	movq	%rax, -64(%rbp)
Ltmp704:
LBB20_3:
	.loc	7 88 9 is_stmt 1
	testq	%rcx, %rcx
Ltmp705:
	.loc	7 4899 9
	je	LBB20_4
Ltmp706:
	.loc	5 950 9
	cmpq	%rax, %rcx
	.loc	5 0 0 is_stmt 0
	movq	%rcx, %r14
Ltmp707:
	cmovaq	%rax, %r14
Ltmp708:
	movq	-48(%rbp), %rax
Ltmp709:
	.loc	25 164 18 is_stmt 1
	leaq	(%rax,%r14,4), %rax
Ltmp710:
	.loc	25 0 18 is_stmt 0
	movq	%rax, -72(%rbp)
Ltmp711:
	.loc	7 3154 76 is_stmt 1
	subq	%r14, %rcx
Ltmp712:
	.loc	7 0 76 is_stmt 0
	movq	%rcx, -80(%rbp)
Ltmp713:
	xorl	%r13d, %r13d
	jmp	LBB20_6
Ltmp714:
	.p2align	4, 0x90
LBB20_10:
	incq	%r13
Ltmp715:
	.loc	26 92 35 is_stmt 1
	movzbl	(%rax), %eax
Ltmp716:
	.loc	29 0 0 is_stmt 0
	movl	%eax, -52(%rbp)
Ltmp717:
	.loc	29 229 17 is_stmt 1
	leaq	-52(%rbp), %rax
Ltmp718:
	movq	%rax, -144(%rbp)
	movq	__ZN4core3fmt3num3imp52_$LT$impl$u20$core..fmt..Display$u20$for$u20$i32$GT$3fmt17h00ed7ff77f9da654E@GOTPCREL(%rip), %rax
	movq	%rax, -136(%rbp)
Ltmp719:
	.loc	2 328 9
	leaq	l___unnamed_3(%rip), %rax
Ltmp720:
	movq	%rax, -128(%rbp)
Ltmp721:
	movq	$1, -120(%rbp)
	movq	$0, -112(%rbp)
	leaq	-144(%rbp), %rax
	movq	%rax, -96(%rbp)
	movq	$1, -88(%rbp)
Ltmp722:
	.loc	29 229 17
	movq	%r15, %rdi
	leaq	-128(%rbp), %rsi
	callq	__ZN4core3fmt9Formatter9write_fmt17h742ca6aae87ad23cE
	.loc	29 229 59 is_stmt 0
	testb	%al, %al
	jne	LBB20_12
Ltmp723:
LBB20_6:
	.loc	5 1136 52 is_stmt 1
	cmpq	%r13, %rbx
Ltmp724:
	.loc	6 505 9
	je	LBB20_11
Ltmp725:
	.loc	14 5 6
	movq	%r13, %rcx
	shrq	$5, %rcx
Ltmp726:
	.loc	26 0 0 is_stmt 0
	movq	%r12, %rax
Ltmp727:
	.loc	7 3090 12 is_stmt 1
	cmpq	%r14, %rcx
Ltmp728:
	.loc	26 58 13
	jae	LBB20_10
Ltmp729:
	.loc	26 0 13 is_stmt 0
	movq	-48(%rbp), %rax
Ltmp730:
	.loc	26 59 27 is_stmt 1
	movl	(%rax,%rcx,4), %eax
Ltmp731:
	btl	%r13d, %eax
	.loc	26 59 24 is_stmt 0
	movq	%r12, %rax
Ltmp732:
	jae	LBB20_10
Ltmp733:
	leaq	__ZN10bit_matrix4TRUE17h4ab893aac5e82269E(%rip), %rax
	jmp	LBB20_10
Ltmp734:
	.p2align	4, 0x90
LBB20_11:
	.loc	2 328 9 is_stmt 1
	leaq	l___unnamed_38(%rip), %rax
Ltmp735:
	movq	%rax, -128(%rbp)
Ltmp736:
	movq	$1, -120(%rbp)
	movq	$0, -112(%rbp)
Ltmp737:
	leaq	l___unnamed_39(%rip), %rax
Ltmp738:
	movq	%rax, -96(%rbp)
Ltmp739:
	movq	$0, -88(%rbp)
Ltmp740:
	.loc	29 231 13
	movq	%r15, %rdi
	leaq	-128(%rbp), %rsi
	callq	__ZN4core3fmt9Formatter9write_fmt17h742ca6aae87ad23cE
	movq	-72(%rbp), %rcx
	movq	%rcx, -48(%rbp)
	.loc	29 231 30 is_stmt 0
	testb	%al, %al
	movq	-64(%rbp), %rax
	movq	-80(%rbp), %rcx
	je	LBB20_3
Ltmp741:
LBB20_12:
	.loc	29 0 30
	movb	$1, %al
Ltmp742:
LBB20_13:
	.loc	29 234 6 is_stmt 1
	addq	$104, %rsp
	popq	%rbx
	popq	%r12
	popq	%r13
	popq	%r14
	popq	%r15
Ltmp743:
	popq	%rbp
	retq
LBB20_4:
Ltmp744:
	.loc	29 0 6 is_stmt 0
	xorl	%eax, %eax
	jmp	LBB20_13
Ltmp745:
LBB20_14:
	.loc	14 11 6 is_stmt 1
	leaq	_str.5(%rip), %rdi
Ltmp746:
	leaq	l___unnamed_6(%rip), %rdx
	movl	$28, %esi
Ltmp747:
	callq	__ZN4core9panicking5panic17h383a6b80ea7021aaE
Ltmp748:
LBB20_15:
	.loc	10 10 9
	leaq	l___unnamed_23(%rip), %rdi
Ltmp749:
	leaq	l___unnamed_24(%rip), %rdx
	movl	$33, %esi
Ltmp750:
	callq	__ZN4core9panicking5panic17h383a6b80ea7021aaE
Ltmp751:
Lfunc_end20:
	.cfi_endproc

	.globl	__ZN66_$LT$bit_matrix..matrix..BitMatrix$u20$as$u20$core..fmt..Debug$GT$3fmt17h19eb32cf0cbd4517E
	.p2align	4, 0x90
__ZN66_$LT$bit_matrix..matrix..BitMatrix$u20$as$u20$core..fmt..Debug$GT$3fmt17h19eb32cf0cbd4517E:
Lfunc_begin21:
	.loc	13 19 0
	.cfi_startproc
	pushq	%rbp
	.cfi_def_cfa_offset 16
	.cfi_offset %rbp, -16
	movq	%rsp, %rbp
	.cfi_def_cfa_register %rbp
	pushq	%r14
	pushq	%rbx
	subq	$32, %rsp
	.cfi_offset %rbx, -32
	.cfi_offset %r14, -24
	movq	%rdi, %rbx
Ltmp752:
	.loc	13 19 17 prologue_end
	leaq	l___unnamed_40(%rip), %rdx
	leaq	-40(%rbp), %r14
	movl	$9, %ecx
	movq	%r14, %rdi
	callq	__ZN4core3fmt9Formatter12debug_struct17ha1a64e91d2a98458E
Ltmp753:
	.loc	13 22 5
	movq	%rbx, -24(%rbp)
Ltmp754:
	.loc	13 23 5
	addq	$32, %rbx
Ltmp755:
	.loc	13 19 17
	leaq	l___unnamed_41(%rip), %rsi
	leaq	l___unnamed_1(%rip), %r8
	leaq	-24(%rbp), %rcx
	movl	$7, %edx
	movq	%r14, %rdi
	callq	__ZN4core3fmt8builders11DebugStruct5field17h6c54d35ac41bb1e6E
	.loc	13 23 5
	movq	%rbx, -24(%rbp)
	.loc	13 19 17
	leaq	L___unnamed_42(%rip), %rsi
	leaq	l___unnamed_2(%rip), %r8
	leaq	-24(%rbp), %rcx
	movl	$8, %edx
	movq	%r14, %rdi
	callq	__ZN4core3fmt8builders11DebugStruct5field17h6c54d35ac41bb1e6E
	movq	%r14, %rdi
	callq	__ZN4core3fmt8builders11DebugStruct6finish17h67ed49fd5e81bb24E
Ltmp756:
	.loc	13 19 22 is_stmt 0
	addq	$32, %rsp
	popq	%rbx
	popq	%r14
	popq	%rbp
	retq
Ltmp757:
Lfunc_end21:
	.cfi_endproc

	.section	__TEXT,__const
	.p2align	3
l___unnamed_39:
	.byte	0

	.p2align	4
_str.0:
	.ascii	"attempt to subtract with overflow"

l___unnamed_23:
	.ascii	"assertion failed: chunk_size != 0"

l___unnamed_43:
	.ascii	"/rustc/6c8927b0cf80ceee19386026cf9d7fd4fd9d486f/src/libcore/macros/mod.rs"

	.section	__DATA,__const
	.p2align	3
l___unnamed_24:
	.quad	l___unnamed_43
	.asciz	"I\000\000\000\000\000\000\000\n\000\000\000\t\000\000"

	.section	__TEXT,__const
l___unnamed_4:
	.ascii	"called `Option::unwrap()` on a `None` value"

	.p2align	4
_str.3:
	.ascii	"attempt to divide by zero"

	.section	__DATA,__const
	.p2align	3
l___unnamed_3:
	.quad	l___unnamed_39
	.space	8

	.section	__TEXT,__const
l___unnamed_44:
	.ascii	"/Users/yingyuhang/.cargo/registry/src/github.com-1ecc6299db9ec823/bit-vec-0.6.2/src/lib.rs"

	.section	__DATA,__const
	.p2align	3
l___unnamed_13:
	.quad	l___unnamed_44
	.asciz	"Z\000\000\000\000\000\000\000\276\001\000\000%\000\000"

	.p2align	3
l___unnamed_14:
	.quad	l___unnamed_44
	.asciz	"Z\000\000\000\000\000\000\000\276\001\000\000\030\000\000"

	.section	__TEXT,__const
l___unnamed_45:
	.ascii	"index out of bounds: "

	.section	__TEXT,__literal4,4byte_literals
L___unnamed_46:
	.ascii	" >= "

	.section	__DATA,__const
	.p2align	3
l___unnamed_28:
	.quad	l___unnamed_45
	.asciz	"\025\000\000\000\000\000\000"
	.quad	L___unnamed_46
	.asciz	"\004\000\000\000\000\000\000"

	.section	__TEXT,__const
l___unnamed_47:
	.ascii	"/rustc/6c8927b0cf80ceee19386026cf9d7fd4fd9d486f/src/libstd/macros.rs"

	.section	__DATA,__const
	.p2align	3
l___unnamed_29:
	.quad	l___unnamed_47
	.asciz	"D\000\000\000\000\000\000\000\020\000\000\000\t\000\000"

	.p2align	3
l___unnamed_30:
	.quad	l___unnamed_44
	.asciz	"Z\000\000\000\000\000\000\000\035\002\000\000\032\000\000"

	.section	__TEXT,__const
l___unnamed_11:
	.ascii	"capacity overflow"

	.section	__DATA,__const
	.p2align	3
l___unnamed_12:
	.quad	l___unnamed_44
	.asciz	"Z\000\000\000\000\000\000\000\360\004\000\0003\000\000"

	.p2align	3
l___unnamed_16:
	.quad	l___unnamed_44
	.asciz	"Z\000\000\000\000\000\000\000\371\004\000\000/\000\000"

	.p2align	3
l___unnamed_17:
	.quad	l___unnamed_44
	.asciz	"Z\000\000\000\000\000\000\000\371\004\000\000\"\000\000"

	.p2align	3
l___unnamed_9:
	.quad	l___unnamed_44
	.asciz	"Z\000\000\000\000\000\000\000\003\005\000\000\r\000\000"

	.p2align	3
l___unnamed_15:
	.quad	l___unnamed_44
	.asciz	"Z\000\000\000\000\000\000\000\b\005\000\000\032\000\000"

	.section	__TEXT,__const
	.p2align	4
_str.5:
	.ascii	"attempt to add with overflow"

	.section	__DATA,__const
	.p2align	3
l___unnamed_5:
	.quad	l___unnamed_44
	.asciz	"Z\000\000\000\000\000\000\000\341\005\000\0007\000\000"

	.section	__TEXT,__const
l___unnamed_48:
	.ascii	"/Users/yingyuhang/.cargo/registry/src/github.com-1ecc6299db9ec823/bit-matrix-0.6.0/src/matrix.rs"

	.section	__DATA,__const
	.p2align	3
l___unnamed_7:
	.quad	l___unnamed_48
	.asciz	"`\000\000\000\000\000\000\000 \000\000\000(\000\000"

	.section	__TEXT,__const
	.p2align	4
_str.6:
	.ascii	"attempt to multiply with overflow"

	.section	__DATA,__const
	.p2align	3
l___unnamed_8:
	.quad	l___unnamed_48
	.asciz	"`\000\000\000\000\000\000\000,\000\000\000\r\000\000"

	.p2align	3
l___unnamed_27:
	.quad	l___unnamed_48
	.asciz	"`\000\000\000\000\000\000\000=\000\000\000\032\000\000"

	.p2align	3
l___unnamed_10:
	.quad	l___unnamed_48
	.asciz	"`\000\000\000\000\000\000\000L\000\000\000\033\000\000"

	.p2align	3
l___unnamed_18:
	.quad	l___unnamed_48
	.asciz	"`\000\000\000\000\000\000\000Q\000\000\000\037\000\000"

	.p2align	3
l___unnamed_20:
	.quad	l___unnamed_48
	.asciz	"`\000\000\000\000\000\000\000Y\000\000\000?\000\000"

	.p2align	3
l___unnamed_21:
	.quad	l___unnamed_48
	.asciz	"`\000\000\000\000\000\000\000Y\000\000\000\016\000\000"

	.p2align	3
l___unnamed_22:
	.quad	l___unnamed_48
	.asciz	"`\000\000\000\000\000\000\000x\000\000\000\"\000\000"

	.p2align	3
l___unnamed_19:
	.quad	l___unnamed_48
	.asciz	"`\000\000\000\000\000\000\000\177\000\000\000\033\000\000"

	.section	__TEXT,__const
l___unnamed_49:
	.ascii	"assertion failed: `(left == right)`\n  left: `"

l___unnamed_50:
	.ascii	"`,\n right: `"

l___unnamed_51:
	.byte	96

	.section	__DATA,__const
	.p2align	3
l___unnamed_25:
	.quad	l___unnamed_49
	.asciz	"-\000\000\000\000\000\000"
	.quad	l___unnamed_50
	.asciz	"\f\000\000\000\000\000\000"
	.quad	l___unnamed_51
	.asciz	"\001\000\000\000\000\000\000"

	.p2align	3
l___unnamed_26:
	.quad	l___unnamed_48
	.asciz	"`\000\000\000\000\000\000\000\206\000\000\000\t\000\000"

	.section	__TEXT,__const
l___unnamed_52:
	.ascii	"/Users/yingyuhang/.cargo/registry/src/github.com-1ecc6299db9ec823/bit-matrix-0.6.0/src/submatrix.rs"

	.section	__DATA,__const
	.p2align	3
l___unnamed_37:
	.quad	l___unnamed_52
	.asciz	"c\000\000\000\000\000\000\000]\000\000\000\023\000\000"

	.section	__TEXT,__const
l___unnamed_35:
	.ascii	"assertion failed: block < self.slice.len() && col < self.row_bits"

	.section	__DATA,__const
	.p2align	3
l___unnamed_36:
	.quad	l___unnamed_52
	.asciz	"c\000\000\000\000\000\000\000_\000\000\000\t\000\000"

	.p2align	3
l___unnamed_31:
	.quad	l___unnamed_52
	.asciz	"c\000\000\000\000\000\000\000o\000\000\000:\000\000"

	.p2align	3
l___unnamed_32:
	.quad	l___unnamed_52
	.asciz	"c\000\000\000\000\000\000\000o\000\000\000\025\000\000"

	.p2align	3
l___unnamed_33:
	.quad	l___unnamed_52
	.asciz	"c\000\000\000\000\000\000\000\216\000\000\000\"\000\000"

	.p2align	3
l___unnamed_34:
	.quad	l___unnamed_52
	.asciz	"c\000\000\000\000\000\000\000\227\000\000\000\t\000\000"

	.section	__TEXT,__const
l___unnamed_53:
	.byte	10

	.section	__DATA,__const
	.p2align	3
l___unnamed_38:
	.quad	l___unnamed_53
	.asciz	"\001\000\000\000\000\000\000"

	.section	__TEXT,__const
l___unnamed_54:
	.ascii	"/Users/yingyuhang/.cargo/registry/src/github.com-1ecc6299db9ec823/bit-matrix-0.6.0/src/util.rs"

	.section	__DATA,__const
	.p2align	3
l___unnamed_6:
	.quad	l___unnamed_54
	.asciz	"^\000\000\000\000\000\000\000\013\000\000\000\006\000\000"

	.section	__TEXT,__const
	.globl	__ZN10bit_matrix4TRUE17h4ab893aac5e82269E
__ZN10bit_matrix4TRUE17h4ab893aac5e82269E:
	.byte	1

	.globl	__ZN10bit_matrix5FALSE17h93d393a7d9fa103aE
__ZN10bit_matrix5FALSE17h93d393a7d9fa103aE:
	.space	1

l___unnamed_40:
	.ascii	"BitMatrix"

l___unnamed_41:
	.ascii	"bit_vec"

	.section	__DATA,__const
	.p2align	3
l___unnamed_1:
	.quad	__ZN4core3ptr13drop_in_place17hb5d6d5ec1e3ef68dE
	.quad	8
	.quad	8
	.quad	__ZN42_$LT$$RF$T$u20$as$u20$core..fmt..Debug$GT$3fmt17h231a25994e7ef420E

	.section	__TEXT,__literal8,8byte_literals
L___unnamed_42:
	.ascii	"row_bits"

	.section	__DATA,__const
	.p2align	3
l___unnamed_2:
	.quad	__ZN4core3ptr13drop_in_place17hb5d6d5ec1e3ef68dE
	.quad	8
	.quad	8
	.quad	__ZN42_$LT$$RF$T$u20$as$u20$core..fmt..Debug$GT$3fmt17h4ce3503ddfc18036E

	.section	__TEXT,__const
Lsec_end0:
	.section	__DATA,__const
Lsec_end1:
	.section	__TEXT,__text,regular,pure_instructions
Lsec_end2: