	.section	__TEXT,__text,regular,pure_instructions
	.macosx_version_min 10, 7
	.file	1 "/Users/yingyuhang/.cargo/registry/src/github.com-1ecc6299db9ec823/bit-vec-0.6.2/src/lib.rs"
	.p2align	4, 0x90
__ZN4core3ptr13drop_in_place17hc191b48ac3b8db62E:
Lfunc_begin0:
	.file	2 "/rustc/a74d1862d4d87a56244958416fd05976c58ca1a8/src/libcore/ptr/mod.rs"
	.loc	2 178 0
	.cfi_startproc
	pushq	%rbp
	.cfi_def_cfa_offset 16
	.cfi_offset %rbp, -16
	movq	%rsp, %rbp
	.cfi_def_cfa_register %rbp
Ltmp0:
	.loc	2 178 1 prologue_end
	movq	8(%rdi), %rsi
Ltmp1:
	.file	3 "/rustc/a74d1862d4d87a56244958416fd05976c58ca1a8/src/liballoc/raw_vec.rs"
	.loc	3 200 40
	testq	%rsi, %rsi
	.loc	3 200 9 is_stmt 0
	je	LBB0_3
Ltmp2:
	.loc	2 0 0
	movq	(%rdi), %rdi
Ltmp3:
	.loc	3 532 16 is_stmt 1
	testq	%rdi, %rdi
Ltmp4:
	je	LBB0_3
Ltmp5:
	.loc	3 0 0 is_stmt 0
	shlq	$2, %rsi
Ltmp6:
	.loc	3 532 16
	testq	%rsi, %rsi
	je	LBB0_3
Ltmp7:
	.file	4 "/rustc/a74d1862d4d87a56244958416fd05976c58ca1a8/src/liballoc/alloc.rs"
	.loc	4 102 5 is_stmt 1
	movl	$4, %edx
	popq	%rbp
	jmp	___rust_dealloc
Ltmp8:
LBB0_3:
	.loc	2 178 1
	popq	%rbp
	retq
Ltmp9:
Lfunc_end0:
	.cfi_endproc

	.p2align	4, 0x90
__ZN5alloc7raw_vec19RawVec$LT$T$C$A$GT$11allocate_in28_$u7b$$u7b$closure$u7d$$u7d$17h8f1fb98218d0e5e2E:
Lfunc_begin1:
	.loc	3 152 0
	.cfi_startproc
	pushq	%rbp
	.cfi_def_cfa_offset 16
	.cfi_offset %rbp, -16
	movq	%rsp, %rbp
	.cfi_def_cfa_register %rbp
Ltmp10:
	.loc	3 152 71 prologue_end
	callq	__ZN5alloc5alloc18handle_alloc_error17hbc0ab0ed90816c07E
Ltmp11:
Lfunc_end1:
	.cfi_endproc

	.globl	__ZN7bit_vec6BitVec10from_bytes17hcef36c29c64151ecE
	.p2align	4, 0x90
__ZN7bit_vec6BitVec10from_bytes17hcef36c29c64151ecE:
Lfunc_begin2:
	.loc	1 326 0
	.cfi_startproc
	.cfi_personality 155, _rust_eh_personality
	.cfi_lsda 16, Lexception0
	pushq	%rbp
	.cfi_def_cfa_offset 16
	.cfi_offset %rbp, -16
	movq	%rsp, %rbp
	.cfi_def_cfa_register %rbp
	pushq	%r15
	pushq	%r14
	pushq	%r13
	pushq	%r12
	pushq	%rbx
	subq	$88, %rsp
	.cfi_offset %rbx, -56
	.cfi_offset %r12, -48
	.cfi_offset %r13, -40
	.cfi_offset %r14, -32
	.cfi_offset %r15, -24
	movq	%rdx, %rbx
Ltmp21:
	movq	%rdi, -96(%rbp)
Ltmp22:
	movl	$8, %edx
Ltmp23:
	.file	5 "/rustc/a74d1862d4d87a56244958416fd05976c58ca1a8/src/libcore/num/mod.rs"
	.loc	5 3688 26 prologue_end
	movq	%rbx, %rax
	mulq	%rdx
Ltmp24:
	.file	6 "/rustc/a74d1862d4d87a56244958416fd05976c58ca1a8/src/libcore/option.rs"
	.loc	6 348 13
	jo	LBB2_67
Ltmp25:
	.loc	6 0 13 is_stmt 0
	movq	%rsi, %rcx
Ltmp26:
	movq	%rax, %r12
Ltmp27:
	.loc	1 241 8 is_stmt 1
	andl	$24, %eax
	.loc	1 241 5 is_stmt 0
	movq	%r12, %r9
	shrq	$5, %r9
	cmpq	$1, %rax
	sbbq	$-1, %r9
Ltmp28:
	.loc	4 170 13 is_stmt 1
	je	LBB2_2
Ltmp29:
	.loc	3 0 0 is_stmt 0
	leaq	(,%r9,4), %r14
Ltmp30:
	.loc	4 80 5 is_stmt 1
	movl	$4, %esi
	movq	%r14, %rdi
	movq	%rcx, %r13
Ltmp31:
	.loc	4 0 5 is_stmt 0
	movq	%r9, %r15
Ltmp32:
	.loc	4 80 5
	callq	___rust_alloc
Ltmp33:
	.loc	4 0 5
	movq	%r15, %r9
	movq	%r13, %rcx
	.loc	4 80 5
	movq	%rax, %r8
Ltmp34:
	.file	7 "/rustc/a74d1862d4d87a56244958416fd05976c58ca1a8/src/libcore/result.rs"
	.loc	7 852 13 is_stmt 1
	testq	%rax, %rax
	jne	LBB2_4
Ltmp35:
	.loc	7 853 23
	movl	$4, %esi
	movq	%r14, %rdi
	callq	__ZN5alloc7raw_vec19RawVec$LT$T$C$A$GT$11allocate_in28_$u7b$$u7b$closure$u7d$$u7d$17h8f1fb98218d0e5e2E
Ltmp36:
LBB2_2:
	.loc	7 0 23 is_stmt 0
	movl	$4, %r8d
Ltmp37:
LBB2_4:
	.loc	1 305 9 is_stmt 1
	movq	%r8, -80(%rbp)
	movq	%r9, -72(%rbp)
	movq	$0, -64(%rbp)
Ltmp38:
	.loc	1 329 30
	movq	%rbx, %rax
	shrq	$2, %rax
Ltmp39:
	.loc	1 0 30 is_stmt 0
	movq	%rax, -112(%rbp)
Ltmp40:
	.loc	1 332 9 is_stmt 1
	movq	%r12, -56(%rbp)
Ltmp41:
	.file	8 "/rustc/a74d1862d4d87a56244958416fd05976c58ca1a8/src/libcore/iter/range.rs"
	.loc	8 211 9
	je	LBB2_5
Ltmp42:
	.loc	8 0 9 is_stmt 0
	movl	$3, %eax
	xorl	%r11d, %r11d
	movq	%rbx, -88(%rbp)
	movq	%rcx, -104(%rbp)
Ltmp43:
	.loc	1 338 47 is_stmt 1
	leaq	-3(%rax), %rdi
	cmpq	%rbx, %rdi
	jb	LBB2_16
	jmp	LBB2_20
Ltmp44:
	.p2align	4, 0x90
LBB2_61:
	.loc	1 0 47 is_stmt 0
	movq	%r9, -48(%rbp)
Ltmp45:
LBB2_36:
	movl	%r12d, %eax
	shrb	$7, %al
	movl	%r12d, %edx
	shlb	$7, %dl
Ltmp46:
	orb	%al, %dl
Ltmp47:
	movl	%r12d, %eax
	shlb	$5, %al
	andb	$64, %al
	orb	%dl, %al
	leal	(,%r12,8), %edx
	andb	$32, %dl
	orb	%al, %dl
	leal	(%r12,%r12), %eax
	andb	$16, %al
	orb	%dl, %al
	movl	%r12d, %edx
	shrb	%dl
	andb	$8, %dl
	orb	%al, %dl
	movl	%r12d, %eax
	shrb	$3, %al
	andb	$4, %al
	orb	%dl, %al
	shrb	$5, %r12b
	andb	$2, %r12b
	orb	%al, %r12b
Ltmp48:
	movzbl	%r12b, %eax
	shll	$16, %eax
	movl	%r14d, %edx
	shrb	$7, %dl
	movl	%r14d, %ebx
	shlb	$7, %bl
Ltmp49:
	orb	%dl, %bl
Ltmp50:
	movl	%r14d, %edx
	shlb	$5, %dl
	andb	$64, %dl
	orb	%bl, %dl
	leal	(,%r14,8), %esi
	andb	$32, %sil
	orb	%dl, %sil
	leal	(%r14,%r14), %edx
	andb	$16, %dl
	orb	%sil, %dl
	movl	%r14d, %ebx
	shrb	%bl
	andb	$8, %bl
	orb	%dl, %bl
	movl	%r14d, %edx
	shrb	$3, %dl
	andb	$4, %dl
	orb	%bl, %dl
	shrb	$5, %r14b
	andb	$2, %r14b
	orb	%dl, %r14b
Ltmp51:
	movzbl	%r14b, %esi
	shll	$8, %esi
	movl	%r13d, %edx
	shrb	$7, %dl
	movl	%r13d, %ebx
	shlb	$7, %bl
Ltmp52:
	orb	%dl, %bl
Ltmp53:
	movl	%r13d, %edx
	shlb	$5, %dl
	andb	$64, %dl
	orb	%bl, %dl
	leal	(,%r13,8), %edi
	andb	$32, %dil
	orb	%dl, %dil
	leal	(%r13,%r13), %edx
	andb	$16, %dl
	orb	%dil, %dl
	movl	%r13d, %ebx
	shrb	%bl
	andb	$8, %bl
	orb	%dl, %bl
	movl	%r13d, %edx
	shrb	$3, %dl
	andb	$4, %dl
	orb	%bl, %dl
	shrb	$5, %r13b
	andb	$2, %r13b
	orb	%dl, %r13b
Ltmp54:
	movzbl	%r13b, %r10d
Ltmp55:
	orl	%esi, %r10d
Ltmp56:
	orl	%eax, %r10d
Ltmp57:
	movl	%r15d, %r9d
	shrb	$7, %r9b
	movl	%r15d, %eax
	shrb	$5, %al
	andb	$2, %al
	movl	%r15d, %ecx
	shrb	$3, %cl
	andb	$4, %cl
	movl	%r15d, %ebx
	shrb	%bl
	andb	$8, %bl
	leal	(%r15,%r15), %edi
	andb	$16, %dil
	leal	(,%r15,8), %esi
	andb	$32, %sil
	movl	%r15d, %edx
	shlb	$5, %dl
	andb	$64, %dl
	shlb	$7, %r15b
Ltmp58:
	orb	%r9b, %r15b
Ltmp59:
	orb	%dl, %r15b
	orb	%sil, %r15b
	orb	%dil, %r15b
	orb	%bl, %r15b
	orb	%cl, %r15b
	orb	%al, %r15b
Ltmp60:
	movzbl	%r15b, %eax
	shll	$24, %eax
	orl	%r10d, %eax
Ltmp61:
	.loc	2 836 42 is_stmt 1
	movl	%eax, (%r8,%r11,4)
Ltmp62:
	.file	9 "/rustc/a74d1862d4d87a56244958416fd05976c58ca1a8/src/liballoc/vec.rs"
	.loc	9 1206 13
	incq	%r11
Ltmp63:
	.loc	9 0 13 is_stmt 0
	movq	-120(%rbp), %rax
Ltmp64:
	.file	10 "/rustc/a74d1862d4d87a56244958416fd05976c58ca1a8/src/libcore/cmp.rs"
	.loc	10 1137 52 is_stmt 1
	addq	$4, %rax
	cmpq	%r11, -112(%rbp)
	movq	-48(%rbp), %r9
	movq	-88(%rbp), %rbx
	movq	-104(%rbp), %rcx
Ltmp65:
	.loc	8 211 9
	je	LBB2_6
Ltmp66:
	.loc	1 338 47
	leaq	-3(%rax), %rdi
	cmpq	%rbx, %rdi
	jae	LBB2_20
Ltmp67:
LBB2_16:
	leaq	-2(%rax), %rdi
	cmpq	%rbx, %rdi
	jae	LBB2_20
Ltmp68:
	leaq	-1(%rax), %rdi
	cmpq	%rbx, %rdi
	jae	LBB2_20
Ltmp69:
	cmpq	%rbx, %rax
	jae	LBB2_19
Ltmp70:
	.loc	1 0 0 is_stmt 0
	movzbl	(%rcx,%r11,4), %r13d
Ltmp71:
	movzbl	1(%rcx,%r11,4), %r14d
Ltmp72:
	movzbl	2(%rcx,%r11,4), %r12d
Ltmp73:
	.loc	1 338 47
	movzbl	3(%rcx,%r11,4), %r15d
Ltmp74:
	.loc	9 1200 12 is_stmt 1
	cmpq	%r9, %r11
	movq	%rax, -120(%rbp)
	.loc	9 1200 9 is_stmt 0
	jne	LBB2_61
Ltmp75:
	.loc	5 3632 30 is_stmt 1
	movq	%r9, %rax
	incq	%rax
Ltmp76:
	.loc	6 540 13
	je	LBB2_37
Ltmp77:
	.loc	3 414 26
	leaq	(%r9,%r9), %rdx
Ltmp78:
	.loc	10 1017 9
	cmpq	%rax, %rdx
	.loc	10 0 0 is_stmt 0
	cmovaq	%rdx, %rax
Ltmp79:
	.file	11 "/rustc/a74d1862d4d87a56244958416fd05976c58ca1a8/src/libcore/alloc/layout.rs"
	.loc	11 250 85 is_stmt 1
	xorl	%esi, %esi
Ltmp80:
	.loc	5 3688 26
	movl	$4, %ecx
	mulq	%rcx
Ltmp81:
	movq	%rax, %rbx
Ltmp82:
	.loc	5 0 26 is_stmt 0
	seto	%dl
Ltmp83:
	.loc	11 250 85 is_stmt 1
	setno	%al
Ltmp84:
	.loc	3 200 40
	testq	%r9, %r9
	.loc	3 200 9 is_stmt 0
	cmoveq	%r9, %r8
Ltmp85:
	.loc	7 611 13 is_stmt 1
	testb	%dl, %dl
	jne	LBB2_37
Ltmp86:
	.loc	3 489 25
	testq	%r8, %r8
	je	LBB2_31
Ltmp87:
	.loc	3 0 0 is_stmt 0
	shlq	$2, %r9
Ltmp88:
	.loc	4 205 12 is_stmt 1
	cmpq	%rbx, %r9
	.loc	4 205 9 is_stmt 0
	je	LBB2_34
Ltmp89:
	.loc	4 0 9
	movq	%r11, -48(%rbp)
	.loc	4 211 42 is_stmt 1
	testq	%r9, %r9
	je	LBB2_26
Ltmp90:
	.loc	4 124 5
	movl	$4, %edx
	movq	%r8, %rdi
	movq	%r9, %rsi
	movq	%rbx, %rcx
	callq	___rust_realloc
Ltmp91:
	.loc	4 0 5 is_stmt 0
	jmp	LBB2_29
Ltmp92:
LBB2_31:
	movb	%al, %sil
	shlq	$2, %rsi
Ltmp93:
	.loc	4 170 16 is_stmt 1
	testq	%rbx, %rbx
	.loc	4 170 13 is_stmt 0
	je	LBB2_32
Ltmp94:
	.loc	4 80 5 is_stmt 1
	movq	%rbx, %rdi
	movq	%r11, -48(%rbp)
	callq	___rust_alloc
Ltmp95:
	.loc	4 0 5 is_stmt 0
	movq	-48(%rbp), %r11
	.loc	4 80 5
	movq	%rax, %r8
Ltmp96:
	.loc	7 611 13 is_stmt 1
	testq	%r8, %r8
	jne	LBB2_35
	jmp	LBB2_39
Ltmp97:
LBB2_32:
	.loc	3 0 0 is_stmt 0
	movq	%rsi, %r8
Ltmp98:
	.loc	7 611 13
	testq	%r8, %r8
	jne	LBB2_35
	jmp	LBB2_39
Ltmp99:
LBB2_26:
	.loc	4 170 16 is_stmt 1
	testq	%rbx, %rbx
	.loc	4 170 13 is_stmt 0
	je	LBB2_27
Ltmp100:
	.loc	4 80 5 is_stmt 1
	movl	$4, %esi
	movq	%rbx, %rdi
	callq	___rust_alloc
Ltmp101:
LBB2_29:
	.loc	4 0 0 is_stmt 0
	movq	%rax, %r8
Ltmp102:
	movq	-48(%rbp), %r11
Ltmp103:
LBB2_34:
	.loc	7 611 13 is_stmt 1
	testq	%r8, %r8
	je	LBB2_39
Ltmp104:
LBB2_35:
	.loc	3 387 9
	movq	%r8, -80(%rbp)
Ltmp105:
	.loc	3 383 9
	shrq	$2, %rbx
Ltmp106:
	.loc	3 0 9 is_stmt 0
	movq	%rbx, -48(%rbp)
	jmp	LBB2_36
Ltmp107:
LBB2_27:
	movl	$4, %r8d
Ltmp108:
	movq	-48(%rbp), %r11
	jmp	LBB2_35
Ltmp109:
LBB2_6:
	.loc	9 1200 12 is_stmt 1
	movq	%r11, -64(%rbp)
Ltmp110:
	.loc	3 388 9
	movq	%r9, -72(%rbp)
Ltmp111:
	.loc	1 343 12
	testb	$3, %bl
	.loc	1 343 9 is_stmt 0
	jne	LBB2_8
	jmp	LBB2_13
Ltmp112:
LBB2_5:
	.loc	1 0 9
	xorl	%r11d, %r11d
Ltmp113:
	.loc	1 343 12
	testb	$3, %bl
	.loc	1 343 9
	je	LBB2_13
Ltmp114:
LBB2_8:
	.loc	1 345 37 is_stmt 1
	movq	%rbx, %r10
	andq	$-4, %r10
Ltmp115:
	.loc	1 0 37 is_stmt 0
	xorl	%r12d, %r12d
Ltmp116:
	.file	12 "/rustc/a74d1862d4d87a56244958416fd05976c58ca1a8/src/libcore/slice/mod.rs"
	.loc	12 3179 9 is_stmt 1
	cmpq	%rbx, %r10
	.loc	12 3303 21
	je	LBB2_10
Ltmp117:
	.loc	1 0 0 is_stmt 0
	addq	%rcx, %rbx
Ltmp118:
	.file	13 "/rustc/a74d1862d4d87a56244958416fd05976c58ca1a8/src/libcore/ptr/mut_ptr.rs"
	.loc	13 152 9 is_stmt 1
	leaq	1(%rcx,%r10), %r8
Ltmp119:
	.loc	1 345 22
	movb	(%rcx,%r10), %r14b
Ltmp120:
	.loc	1 174 20
	movl	%r14d, %eax
	shrb	$7, %al
	.loc	1 174 19 is_stmt 0
	movl	%r14d, %edi
	shlb	$7, %dil
Ltmp121:
	.loc	1 174 9
	orb	%al, %dil
Ltmp122:
	.loc	1 174 19
	movl	%r14d, %eax
	shlb	$5, %al
	andb	$64, %al
	.loc	1 174 9
	orb	%dil, %al
	.loc	1 174 19
	leal	(,%r14,8), %esi
	andb	$32, %sil
	.loc	1 174 9
	orb	%al, %sil
	.loc	1 174 19
	leal	(%r14,%r14), %edi
	andb	$16, %dil
	.loc	1 174 9
	orb	%sil, %dil
	.loc	1 174 19
	movl	%r14d, %edx
	shrb	%dl
	andb	$8, %dl
	.loc	1 174 9
	orb	%dil, %dl
	.loc	1 174 19
	movl	%r14d, %eax
	shrb	$3, %al
	andb	$4, %al
	.loc	1 174 9
	orb	%dl, %al
	.loc	1 174 19
	shrb	$5, %r14b
Ltmp123:
	andb	$2, %r14b
	.loc	1 174 9
	orb	%al, %r14b
Ltmp124:
	.file	14 "/rustc/a74d1862d4d87a56244958416fd05976c58ca1a8/src/libcore/convert/num.rs"
	.loc	14 51 17 is_stmt 1
	movzbl	%r14b, %r12d
Ltmp125:
	.loc	12 3179 9
	cmpq	%rbx, %r8
	.loc	12 3303 21
	je	LBB2_10
Ltmp126:
	.loc	1 0 0 is_stmt 0
	addq	%r10, %rcx
Ltmp127:
	.loc	13 152 9 is_stmt 1
	leaq	2(%rcx), %rsi
Ltmp128:
	.loc	1 345 22
	movb	1(%rcx), %dil
Ltmp129:
	.loc	1 174 20
	movl	%edi, %edx
	shrb	$7, %dl
	.loc	1 174 19 is_stmt 0
	movl	%edi, %eax
	shlb	$7, %al
Ltmp130:
	.loc	1 174 9
	orb	%dl, %al
Ltmp131:
	.loc	1 174 19
	movl	%edi, %edx
	shlb	$5, %dl
	andb	$64, %dl
	.loc	1 174 9
	orb	%al, %dl
	.loc	1 174 19
	leal	(,%rdi,8), %eax
	andb	$32, %al
	.loc	1 174 9
	orb	%dl, %al
	.loc	1 174 19
	leal	(%rdi,%rdi), %edx
	andb	$16, %dl
	.loc	1 174 9
	orb	%al, %dl
	.loc	1 174 19
	movl	%edi, %eax
	shrb	%al
	andb	$8, %al
	.loc	1 174 9
	orb	%dl, %al
	.loc	1 174 19
	movl	%edi, %edx
	shrb	$3, %dl
	andb	$4, %dl
	.loc	1 174 9
	orb	%al, %dl
	.loc	1 174 19
	shrb	$5, %dil
Ltmp132:
	andb	$2, %dil
	.loc	1 174 9
	orb	%dl, %dil
Ltmp133:
	.loc	14 51 17 is_stmt 1
	movzbl	%dil, %eax
Ltmp134:
	.loc	1 347 21
	shll	$8, %eax
	.loc	1 346 17
	orl	%eax, %r12d
Ltmp135:
	.loc	12 3179 9
	cmpq	%rbx, %rsi
	.loc	12 3303 21
	je	LBB2_10
Ltmp136:
	.loc	13 152 9
	leaq	3(%rcx), %rsi
Ltmp137:
	.loc	1 345 22
	movb	2(%rcx), %dil
Ltmp138:
	.loc	1 174 20
	movl	%edi, %edx
	shrb	$7, %dl
	.loc	1 174 19 is_stmt 0
	movl	%edi, %eax
	shlb	$7, %al
Ltmp139:
	.loc	1 174 9
	orb	%dl, %al
Ltmp140:
	.loc	1 174 19
	movl	%edi, %edx
	shlb	$5, %dl
	andb	$64, %dl
	.loc	1 174 9
	orb	%al, %dl
	.loc	1 174 19
	leal	(,%rdi,8), %eax
	andb	$32, %al
	.loc	1 174 9
	orb	%dl, %al
	.loc	1 174 19
	leal	(%rdi,%rdi), %edx
	andb	$16, %dl
	.loc	1 174 9
	orb	%al, %dl
	.loc	1 174 19
	movl	%edi, %eax
	shrb	%al
	andb	$8, %al
	.loc	1 174 9
	orb	%dl, %al
	.loc	1 174 19
	movl	%edi, %edx
	shrb	$3, %dl
	andb	$4, %dl
	.loc	1 174 9
	orb	%al, %dl
	.loc	1 174 19
	shrb	$5, %dil
Ltmp141:
	andb	$2, %dil
	.loc	1 174 9
	orb	%dl, %dil
Ltmp142:
	.loc	14 51 17 is_stmt 1
	movzbl	%dil, %eax
Ltmp143:
	.loc	1 347 21
	shll	$16, %eax
	.loc	1 346 17
	orl	%eax, %r12d
Ltmp144:
	.loc	12 3179 9
	cmpq	%rbx, %rsi
	.loc	12 3303 21
	je	LBB2_10
Ltmp145:
	.loc	13 152 9
	leaq	4(%rcx), %rax
Ltmp146:
	.loc	12 3179 9
	cmpq	%rbx, %rax
	.loc	12 3303 21
	jne	LBB2_66
Ltmp147:
	.loc	12 0 21 is_stmt 0
	movb	3(%rcx), %al
Ltmp148:
	movl	%eax, %ecx
	shrb	$7, %cl
	movl	%eax, %edx
	shlb	$7, %dl
Ltmp149:
	orb	%cl, %dl
Ltmp150:
	movl	%eax, %ecx
	shlb	$5, %cl
	andb	$64, %cl
	orb	%dl, %cl
	leal	(,%rax,8), %edx
	andb	$32, %dl
	orb	%cl, %dl
	leal	(%rax,%rax), %ecx
	andb	$16, %cl
	orb	%dl, %cl
	movl	%eax, %edx
	shrb	%dl
	andb	$8, %dl
	orb	%cl, %dl
	movl	%eax, %ecx
	shrb	$3, %cl
	andb	$4, %cl
	orb	%dl, %cl
	shrb	$5, %al
Ltmp151:
	andb	$2, %al
	orb	%cl, %al
Ltmp152:
	movzbl	%al, %eax
Ltmp153:
	shll	$24, %eax
	orl	%eax, %r12d
Ltmp154:
LBB2_10:
	.loc	9 1200 12 is_stmt 1
	cmpq	%r9, %r11
	.loc	9 1200 9 is_stmt 0
	jne	LBB2_11
Ltmp155:
	.loc	5 3632 30 is_stmt 1
	movq	%r9, %rax
	incq	%rax
Ltmp156:
	.loc	6 540 13
	je	LBB2_57
Ltmp157:
	.loc	3 414 26
	leaq	(%r9,%r9), %rcx
Ltmp158:
	.loc	10 1017 9
	cmpq	%rax, %rcx
	.loc	10 0 0 is_stmt 0
	cmovaq	%rcx, %rax
Ltmp159:
	movl	$4, %ecx
Ltmp160:
	.loc	11 250 85 is_stmt 1
	xorl	%esi, %esi
Ltmp161:
	.loc	5 3688 26
	mulq	%rcx
Ltmp162:
	movq	%rax, %r15
Ltmp163:
	.loc	5 0 26 is_stmt 0
	seto	%dl
Ltmp164:
	.loc	11 250 85 is_stmt 1
	setno	%cl
Ltmp165:
	.loc	3 200 9
	movq	%r9, %rax
	.loc	3 200 40 is_stmt 0
	testq	%r9, %r9
	.loc	3 200 9
	je	LBB2_43
Ltmp166:
	.loc	3 0 9
	movq	-80(%rbp), %rax
Ltmp167:
LBB2_43:
	.loc	7 611 13 is_stmt 1
	testb	%dl, %dl
	jne	LBB2_57
Ltmp168:
	.loc	3 489 25
	testq	%rax, %rax
	je	LBB2_50
Ltmp169:
	.loc	3 0 0 is_stmt 0
	shlq	$2, %r9
Ltmp170:
	.loc	4 205 12 is_stmt 1
	cmpq	%r15, %r9
	.loc	4 205 9 is_stmt 0
	je	LBB2_55
Ltmp171:
	.loc	4 211 42 is_stmt 1
	testq	%r9, %r9
	je	LBB2_47
Ltmp172:
	.loc	4 124 5
	movl	$4, %edx
	movq	%rax, %rdi
	movq	%r9, %rsi
	movq	%r15, %rcx
	movq	%r11, %r14
	callq	___rust_realloc
Ltmp173:
	.loc	4 0 5 is_stmt 0
	jmp	LBB2_54
Ltmp174:
LBB2_11:
	.loc	9 850 19 is_stmt 1
	movq	-80(%rbp), %rax
	jmp	LBB2_12
Ltmp175:
LBB2_50:
	.loc	3 0 0 is_stmt 0
	movb	%cl, %sil
	shlq	$2, %rsi
Ltmp176:
	.loc	4 170 16 is_stmt 1
	testq	%r15, %r15
	.loc	4 170 13 is_stmt 0
	jne	LBB2_53
Ltmp177:
	.loc	3 0 0
	movq	%rsi, %rax
Ltmp178:
	.loc	7 611 13 is_stmt 1
	testq	%rax, %rax
	jne	LBB2_56
	jmp	LBB2_58
Ltmp179:
LBB2_47:
	.loc	4 170 16
	testq	%r15, %r15
	.loc	4 170 13 is_stmt 0
	je	LBB2_48
Ltmp180:
	.loc	4 80 5 is_stmt 1
	movl	$4, %esi
Ltmp181:
LBB2_53:
	.loc	3 0 0 is_stmt 0
	movq	%r15, %rdi
	movq	%r11, %r14
	callq	___rust_alloc
Ltmp182:
LBB2_54:
	movq	%r14, %r11
Ltmp183:
LBB2_55:
	.loc	7 611 13 is_stmt 1
	testq	%rax, %rax
	je	LBB2_58
Ltmp184:
LBB2_56:
	.loc	3 387 9
	movq	%rax, -80(%rbp)
Ltmp185:
	.loc	3 383 9
	shrq	$2, %r15
Ltmp186:
	.loc	3 388 9
	movq	%r15, -72(%rbp)
Ltmp187:
LBB2_12:
	.loc	2 836 42
	movl	%r12d, (%rax,%r11,4)
Ltmp188:
	.loc	9 1206 13
	incq	%r11
	movq	%r11, -64(%rbp)
Ltmp189:
LBB2_13:
	.loc	1 352 9
	movq	-56(%rbp), %rcx
	movq	-96(%rbp), %rax
	movq	%rcx, 24(%rax)
	movq	-64(%rbp), %rcx
	movq	%rcx, 16(%rax)
	movq	-80(%rbp), %rdx
	movq	-72(%rbp), %rcx
	movq	%rcx, 8(%rax)
	movq	%rdx, (%rax)
Ltmp190:
	.loc	1 353 6
	addq	$88, %rsp
	popq	%rbx
	popq	%r12
	popq	%r13
	popq	%r14
	popq	%r15
	popq	%rbp
	retq
Ltmp191:
LBB2_48:
	.loc	1 0 6 is_stmt 0
	movl	$4, %eax
Ltmp192:
	jmp	LBB2_56
Ltmp193:
LBB2_19:
	.loc	1 338 53 is_stmt 1
	movq	%rax, %rdi
Ltmp194:
LBB2_20:
	.loc	9 1200 12
	movq	%r11, -64(%rbp)
Ltmp195:
	.loc	3 388 9
	movq	%r9, -72(%rbp)
Ltmp196:
Ltmp12:
	.loc	1 338 47
	leaq	l___unnamed_1(%rip), %rdx
	movq	-88(%rbp), %rsi
	callq	__ZN4core9panicking18panic_bounds_check17habe69d236c55e3edE
Ltmp13:
Ltmp197:
LBB2_38:
	.loc	1 0 47 is_stmt 0
	ud2
Ltmp198:
LBB2_37:
	.loc	9 1200 12 is_stmt 1
	movq	%r9, -64(%rbp)
Ltmp199:
	.loc	3 388 9
	movq	%r9, -72(%rbp)
Ltmp200:
Ltmp14:
	.loc	3 268 38
	callq	__ZN5alloc7raw_vec17capacity_overflow17h023f34f5bc34c61fE
Ltmp15:
	jmp	LBB2_38
Ltmp201:
LBB2_39:
	.loc	3 269 47
	movl	$4, %esi
	movq	%rbx, %rdi
	callq	__ZN5alloc5alloc18handle_alloc_error17hbc0ab0ed90816c07E
Ltmp202:
LBB2_67:
	.loc	6 349 21
	leaq	l___unnamed_2(%rip), %rdi
	leaq	l___unnamed_3(%rip), %rdx
	movl	$17, %esi
Ltmp203:
	callq	__ZN4core6option13expect_failed17h68bd601d867bb8d1E
Ltmp204:
LBB2_57:
Ltmp18:
	.loc	3 268 38
	callq	__ZN5alloc7raw_vec17capacity_overflow17h023f34f5bc34c61fE
Ltmp19:
	jmp	LBB2_38
Ltmp205:
LBB2_58:
	.loc	3 269 47
	movl	$4, %esi
	movq	%r15, %rdi
	callq	__ZN5alloc5alloc18handle_alloc_error17hbc0ab0ed90816c07E
Ltmp206:
LBB2_66:
Ltmp16:
	.loc	1 347 21
	leaq	_str.4(%rip), %rdi
	leaq	l___unnamed_4(%rip), %rdx
	movl	$35, %esi
	callq	__ZN4core9panicking5panic17h736ee47a631475c0E
Ltmp207:
Ltmp17:
	jmp	LBB2_38
Ltmp208:
LBB2_59:
Ltmp20:
	.loc	1 0 21 is_stmt 0
	movq	%rax, %rbx
	leaq	-80(%rbp), %rdi
	.loc	1 353 5 is_stmt 1
	callq	__ZN4core3ptr13drop_in_place17hc191b48ac3b8db62E
	movq	%rbx, %rdi
	callq	__Unwind_Resume
	ud2
Ltmp209:
Lfunc_end2:
	.cfi_endproc
	.file	15 "/rustc/a74d1862d4d87a56244958416fd05976c58ca1a8/src/libcore/macros/mod.rs"
	.file	16 "/rustc/a74d1862d4d87a56244958416fd05976c58ca1a8/src/libcore/iter/adapters/mod.rs"
	.section	__TEXT,__gcc_except_tab
	.p2align	2
GCC_except_table2:
Lexception0:
	.byte	255
	.byte	255
	.byte	1
	.uleb128 Lcst_end0-Lcst_begin0
Lcst_begin0:
	.uleb128 Ltmp12-Lfunc_begin2
	.uleb128 Ltmp15-Ltmp12
	.uleb128 Ltmp20-Lfunc_begin2
	.byte	0
	.uleb128 Ltmp15-Lfunc_begin2
	.uleb128 Ltmp18-Ltmp15
	.byte	0
	.byte	0
	.uleb128 Ltmp18-Lfunc_begin2
	.uleb128 Ltmp17-Ltmp18
	.uleb128 Ltmp20-Lfunc_begin2
	.byte	0
	.uleb128 Ltmp17-Lfunc_begin2
	.uleb128 Lfunc_end2-Ltmp17
	.byte	0
	.byte	0
Lcst_end0:
	.p2align	2

	.section	__TEXT,__const
l___unnamed_5:
	.ascii	"/Users/yingyuhang/.cargo/registry/src/github.com-1ecc6299db9ec823/bit-vec-0.6.2/src/lib.rs"

	.p2align	4
_str.4:
	.ascii	"attempt to shift left with overflow"

	.globl	__ZN7bit_vec4TRUE17h46d3182e9625a789E
__ZN7bit_vec4TRUE17h46d3182e9625a789E:
	.byte	1

	.globl	__ZN7bit_vec5FALSE17he7fc599a1e6482e7E
__ZN7bit_vec5FALSE17he7fc599a1e6482e7E:
	.space	1

l___unnamed_2:
	.ascii	"capacity overflow"

	.section	__DATA,__const
	.p2align	3
l___unnamed_3:
	.quad	l___unnamed_5
	.asciz	"Z\000\000\000\000\000\000\000G\001\000\000\023\000\000"

	.p2align	3
l___unnamed_1:
	.quad	l___unnamed_5
	.asciz	"Z\000\000\000\000\000\000\000R\001\000\000/\000\000"

	.p2align	3
l___unnamed_4:
	.quad	l___unnamed_5
	.asciz	"Z\000\000\000\000\000\000\000[\001\000\000\025\000\000"

	.section	__TEXT,__const
Lsec_end0:
	.section	__TEXT,__text,regular,pure_instructions
Lsec_end1: