	.section	__TEXT,__text,regular,pure_instructions
	.macosx_version_min 10, 7
	.file	1 "/Users/yingyuhang/.cargo/registry/src/github.com-1ecc6299db9ec823/crossbeam-epoch-0.8.2/src/guard.rs"
	.file	2 "/Users/yingyuhang/.cargo/registry/src/github.com-1ecc6299db9ec823/lazy_static-1.4.0/src/lib.rs"
	.file	3 "/Users/yingyuhang/.cargo/registry/src/github.com-1ecc6299db9ec823/lazy_static-1.4.0/src/inline_lazy.rs"
	.file	4 "/rustc/6c8927b0cf80ceee19386026cf9d7fd4fd9d486f/src/libstd/thread/local.rs"
	.p2align	4, 0x90
__ZN36_$LT$T$u20$as$u20$core..any..Any$GT$7type_id17he5bc23873143abb6E:
Lfunc_begin0:
	.file	5 "/rustc/6c8927b0cf80ceee19386026cf9d7fd4fd9d486f/src/libcore/any.rs"
	.loc	5 109 0
	.cfi_startproc
	pushq	%rbp
	.cfi_def_cfa_offset 16
	.cfi_offset %rbp, -16
	movq	%rsp, %rbp
	.cfi_def_cfa_register %rbp
	movabsq	$9147559743429524724, %rax
Ltmp0:
	.loc	5 111 6 prologue_end
	popq	%rbp
	retq
Ltmp1:
Lfunc_end0:
	.cfi_endproc

	.section	__TEXT,__literal16,16byte_literals
	.p2align	4
LCPI1_0:
	.quad	1
	.quad	1
	.section	__TEXT,__text,regular,pure_instructions
	.p2align	4, 0x90
__ZN3std4sync4once4Once9call_once28_$u7b$$u7b$closure$u7d$$u7d$17heef6cc50bd0a4148E:
Lfunc_begin1:
	.file	6 "/rustc/6c8927b0cf80ceee19386026cf9d7fd4fd9d486f/src/libstd/sync/once.rs"
	.loc	6 265 0
	.cfi_startproc
	pushq	%rbp
	.cfi_def_cfa_offset 16
	.cfi_offset %rbp, -16
	movq	%rsp, %rbp
	.cfi_def_cfa_register %rbp
Ltmp2:
	pushq	%r14
	pushq	%rbx
	subq	$2432, %rsp
	.cfi_offset %rbx, -32
	.cfi_offset %r14, -24
Ltmp3:
	.loc	6 265 41 prologue_end
	movq	(%rdi), %rcx
Ltmp4:
	.file	7 "/rustc/6c8927b0cf80ceee19386026cf9d7fd4fd9d486f/src/libcore/intrinsics.rs"
	.loc	7 2130 14
	movq	(%rcx), %rax
Ltmp5:
	.loc	7 2130 14 is_stmt 0
	movq	$0, (%rcx)
Ltmp6:
	.file	8 "/rustc/6c8927b0cf80ceee19386026cf9d7fd4fd9d486f/src/libcore/option.rs"
	.loc	8 385 13 is_stmt 1
	testq	%rax, %rax
	je	LBB1_7
Ltmp7:
	.file	9 "/Users/yingyuhang/.cargo/registry/src/github.com-1ecc6299db9ec823/lazy_static-1.4.0/src/inline_lazy.rs"
	.loc	9 31 13
	movq	(%rax), %r14
Ltmp8:
	.file	10 "/rustc/6c8927b0cf80ceee19386026cf9d7fd4fd9d486f/src/liballoc/alloc.rs"
	.loc	10 80 14
	movl	$2072, %edi
Ltmp9:
	movl	$8, %esi
Ltmp10:
	callq	___rust_alloc
Ltmp11:
	.loc	10 278 9
	testq	%rax, %rax
	je	LBB1_8
Ltmp12:
	.file	11 "/rustc/6c8927b0cf80ceee19386026cf9d7fd4fd9d486f/src/liballoc/boxed.rs"
	.loc	11 0 0 is_stmt 0
	movq	%rax, %rbx
	leaq	-2440(%rbp), %rsi
	.loc	11 176 13 is_stmt 1
	movl	$2064, %edx
	movq	%rax, %rdi
	callq	_memcpy
	movq	$0, 2064(%rbx)
	leaq	-256(%rbp), %rdi
	leaq	-2440(%rbp), %rsi
Ltmp13:
	.file	12 "/Users/yingyuhang/.cargo/registry/src/github.com-1ecc6299db9ec823/crossbeam-epoch-0.8.2/src/internal.rs"
	.loc	12 255 9
	movl	$15, %ecx
	rep;movsq (%rsi), %es:(%rdi)
	leaq	-136(%rbp), %rdi
	leaq	-376(%rbp), %rsi
	movl	$15, %ecx
	rep;movsq (%rsi), %es:(%rdi)
Ltmp14:
	.loc	10 80 14
	movl	$640, %edi
	movl	$128, %esi
	callq	___rust_alloc
Ltmp15:
	.loc	10 278 9
	testq	%rax, %rax
	je	LBB1_9
Ltmp16:
	.file	13 "/rustc/6c8927b0cf80ceee19386026cf9d7fd4fd9d486f/src/liballoc/sync.rs"
	.loc	13 323 29
	movaps	LCPI1_0(%rip), %xmm0
	movaps	%xmm0, (%rax)
	movq	%rbx, 128(%rax)
	leaq	136(%rax), %rdi
	leaq	-256(%rbp), %rsi
	movl	$15, %ecx
	rep;movsq (%rsi), %es:(%rdi)
	movq	%rbx, 256(%rax)
	leaq	264(%rax), %rdi
	leaq	-136(%rbp), %rsi
	movl	$15, %ecx
	rep;movsq (%rsi), %es:(%rdi)
	movq	$0, 384(%rax)
	leaq	392(%rax), %rdi
	leaq	-2440(%rbp), %rsi
	movl	$15, %ecx
	rep;movsq (%rsi), %es:(%rdi)
	movq	$0, 512(%rax)
	movq	%rax, %rdi
	addq	$520, %rdi
	leaq	-376(%rbp), %rsi
	movl	$15, %ecx
	rep;movsq (%rsi), %es:(%rdi)
Ltmp17:
	.loc	7 2130 14
	movq	(%r14), %rcx
Ltmp18:
	.loc	7 2130 14 is_stmt 0
	movq	%rax, (%r14)
Ltmp19:
	.loc	7 0 14
	movq	%rcx, -2440(%rbp)
Ltmp20:
	.file	14 "/rustc/6c8927b0cf80ceee19386026cf9d7fd4fd9d486f/src/libcore/ptr/mod.rs"
	.loc	14 184 1 is_stmt 1
	testq	%rcx, %rcx
	je	LBB1_6
Ltmp21:
	.file	15 "/rustc/6c8927b0cf80ceee19386026cf9d7fd4fd9d486f/src/libcore/sync/atomic.rs"
	.loc	15 2403 24
	lock		decq	(%rcx)
Ltmp22:
	.loc	13 1350 9
	jne	LBB1_6
Ltmp23:
	.loc	15 2675 24
	##MEMBARRIER
	leaq	-2440(%rbp), %rdi
Ltmp24:
	.loc	13 1385 13
	callq	__ZN5alloc4sync12Arc$LT$T$GT$9drop_slow17he8aa0f23870cd715E
Ltmp25:
LBB1_6:
	.loc	6 265 60
	addq	$2432, %rsp
	popq	%rbx
	popq	%r14
	popq	%rbp
	retq
LBB1_7:
Ltmp26:
	.file	16 "/rustc/6c8927b0cf80ceee19386026cf9d7fd4fd9d486f/src/libcore/macros/mod.rs"
	.loc	16 10 9
	leaq	l___unnamed_13(%rip), %rdi
Ltmp27:
	leaq	l___unnamed_14(%rip), %rdx
	movl	$43, %esi
Ltmp28:
	callq	__ZN4core9panicking5panic17h383a6b80ea7021aaE
Ltmp29:
LBB1_8:
	.loc	10 279 19
	movl	$2072, %edi
	movl	$8, %esi
	callq	__ZN5alloc5alloc18handle_alloc_error17h28974197717b8939E
Ltmp30:
LBB1_9:
	.loc	10 279 19 is_stmt 0
	movl	$640, %edi
	movl	$128, %esi
	callq	__ZN5alloc5alloc18handle_alloc_error17h28974197717b8939E
Ltmp31:
Lfunc_end1:
	.cfi_endproc
	.file	17 "/rustc/6c8927b0cf80ceee19386026cf9d7fd4fd9d486f/src/libcore/mem/mod.rs"
	.file	18 "/Users/yingyuhang/.cargo/registry/src/github.com-1ecc6299db9ec823/crossbeam-epoch-0.8.2/src/atomic.rs"
	.file	19 "/Users/yingyuhang/.cargo/registry/src/github.com-1ecc6299db9ec823/crossbeam-epoch-0.8.2/src/sync/queue.rs"
	.file	20 "/Users/yingyuhang/.cargo/registry/src/github.com-1ecc6299db9ec823/crossbeam-epoch-0.8.2/src/collector.rs"
	.file	21 "/rustc/6c8927b0cf80ceee19386026cf9d7fd4fd9d486f/src/libcore/ops/function.rs"
	.file	22 "/rustc/6c8927b0cf80ceee19386026cf9d7fd4fd9d486f/src/libcore/cell.rs"
	.file	23 "/Users/yingyuhang/.cargo/registry/src/github.com-1ecc6299db9ec823/crossbeam-epoch-0.8.2/src/default.rs"

	.section	__TEXT,__literal16,16byte_literals
	.p2align	4
LCPI2_0:
	.byte	0
	.byte	0
	.byte	0
	.byte	0
	.byte	0
	.byte	0
	.byte	0
	.byte	0
	.byte	1
	.byte	0
	.byte	0
	.byte	0
	.byte	0
	.byte	0
	.byte	0
	.byte	0
	.section	__TEXT,__text,regular,pure_instructions
	.p2align	4, 0x90
__ZN3std6thread5local4fast12Key$LT$T$GT$14try_initialize17h431cd0b21bb9c614E:
Lfunc_begin2:
	.file	24 "/rustc/6c8927b0cf80ceee19386026cf9d7fd4fd9d486f/src/libstd/thread/local.rs"
	.loc	24 423 0 is_stmt 1
	.cfi_startproc
	pushq	%rbp
	.cfi_def_cfa_offset 16
	.cfi_offset %rbp, -16
	movq	%rsp, %rbp
	.cfi_def_cfa_register %rbp
Ltmp32:
	pushq	%r14
	pushq	%rbx
	movl	$4128, %eax
	callq	___rust_probestack
	subq	%rax, %rsp
	.cfi_offset %rbx, -32
	.cfi_offset %r14, -24
	.loc	22 431 18 prologue_end
	movq	__ZN15crossbeam_epoch7default6HANDLE7__getit5__KEY17h43587ce4d2ed7131E@TLVP(%rip), %rdi
	callq	*(%rdi)
	movb	16(%rax), %al
Ltmp33:
	.loc	24 436 17
	testb	%al, %al
	je	LBB2_3
	cmpb	$1, %al
	je	LBB2_4
	.loc	24 0 17 is_stmt 0
	xorl	%eax, %eax
	jmp	LBB2_18
LBB2_3:
	.loc	24 438 21 is_stmt 1
	movq	__ZN15crossbeam_epoch7default6HANDLE7__getit5__KEY17h43587ce4d2ed7131E@TLVP(%rip), %rdi
	callq	*(%rdi)
	movq	%rax, %rbx
Ltmp34:
	leaq	__ZN3std6thread5local4fast13destroy_value17hd10f0422def40e24E(%rip), %rsi
	movq	%rax, %rdi
	callq	__ZN3std3sys4unix17thread_local_dtor13register_dtor17hfef630bd7160c727E
Ltmp35:
	.loc	7 2130 14
	movb	$1, 16(%rbx)
Ltmp36:
LBB2_4:
	.loc	7 0 14 is_stmt 0
	leaq	__ZN79_$LT$crossbeam_epoch..default..COLLECTOR$u20$as$u20$core..ops..deref..Deref$GT$5deref11__stability4LAZY17h871a109a05c5dde6E(%rip), %rax
Ltmp37:
	movq	%rax, -24(%rbp)
Ltmp38:
	.loc	15 2355 24 is_stmt 1
	movq	__ZN79_$LT$crossbeam_epoch..default..COLLECTOR$u20$as$u20$core..ops..deref..Deref$GT$5deref11__stability4LAZY17h871a109a05c5dde6E+8(%rip), %rax
Ltmp39:
	.loc	6 374 9
	cmpq	$3, %rax
Ltmp40:
	.loc	6 260 9
	jne	LBB2_5
Ltmp41:
	.loc	9 37 20
	movq	-24(%rbp), %rax
Ltmp42:
	.loc	9 38 17
	cmpq	$0, (%rax)
	je	LBB2_19
Ltmp43:
LBB2_7:
	.loc	20 39 9
	movq	(%rax), %r14
Ltmp44:
	.loc	15 2389 24
	lock		incq	(%r14)
Ltmp45:
	.loc	13 1102 9
	jle	LBB2_20
Ltmp46:
	.loc	13 0 9 is_stmt 0
	leaq	-4136(%rbp), %rbx
Ltmp47:
	.loc	12 74 9 is_stmt 1
	movq	%rbx, %rdi
	callq	__ZN73_$LT$crossbeam_epoch..internal..Bag$u20$as$u20$core..default..Default$GT$7default17h1a50758c62180845E
Ltmp48:
	.loc	12 0 9 is_stmt 0
	leaq	-2080(%rbp), %rdi
Ltmp49:
	.loc	18 664 29 is_stmt 1
	movl	$2056, %edx
	movq	%rbx, %rsi
	callq	_memcpy
Ltmp50:
	.loc	10 80 14
	movl	$2104, %edi
	movl	$8, %esi
	callq	___rust_alloc
Ltmp51:
	.loc	10 278 9
	testq	%rax, %rax
	je	LBB2_21
Ltmp52:
	.loc	11 0 0 is_stmt 0
	movq	%rax, %rbx
	.loc	11 176 13 is_stmt 1
	movq	$0, 8(%rax)
	movq	$0, (%rax)
	movq	%r14, 16(%rax)
	leaq	24(%rax), %rdi
	leaq	-2080(%rbp), %rsi
	movl	$2056, %edx
	callq	_memcpy
	movaps	LCPI2_0(%rip), %xmm0
	movups	%xmm0, 2080(%rbx)
	movq	$0, 2096(%rbx)
Ltmp53:
	.loc	18 113 15
	andq	$-8, %rbx
Ltmp54:
	.loc	15 2356 24
	movq	512(%r14), %rax
Ltmp55:
	.p2align	4, 0x90
LBB2_10:
	.loc	15 2342 24
	movq	%rax, (%rbx)
Ltmp56:
	.loc	15 2453 35
	lock		cmpxchgq	%rbx, 512(%r14)
Ltmp57:
	.file	25 "/rustc/6c8927b0cf80ceee19386026cf9d7fd4fd9d486f/src/libcore/result.rs"
	.loc	25 611 13
	jne	LBB2_10
Ltmp58:
	.loc	7 2130 14
	movq	__ZN15crossbeam_epoch7default6HANDLE7__getit5__KEY17h43587ce4d2ed7131E@TLVP(%rip), %rdi
	callq	*(%rdi)
Ltmp59:
	movq	8(%rax), %rdi
Ltmp60:
	.loc	14 184 1
	cmpq	$0, (%rax)
Ltmp61:
	.loc	7 2130 14
	movq	$1, (%rax)
	movq	%rbx, 8(%rax)
Ltmp62:
	.loc	14 184 1
	je	LBB2_17
Ltmp63:
	.loc	12 554 28
	movq	2088(%rdi), %rax
Ltmp64:
	.loc	12 555 23
	testq	%rax, %rax
	.loc	12 555 9 is_stmt 0
	je	LBB2_22
Ltmp65:
	.loc	12 553 27 is_stmt 1
	movq	2080(%rdi), %rcx
Ltmp66:
	.loc	12 556 31
	leaq	-1(%rax), %rdx
Ltmp67:
	.loc	7 2130 14
	movq	%rdx, 2088(%rdi)
Ltmp68:
	.loc	12 558 32
	cmpq	$1, %rax
Ltmp69:
	.loc	12 558 9 is_stmt 0
	jne	LBB2_16
Ltmp70:
	testq	%rcx, %rcx
	je	LBB2_15
Ltmp71:
LBB2_16:
	.loc	12 0 9
	movq	__ZN15crossbeam_epoch7default6HANDLE7__getit5__KEY17h43587ce4d2ed7131E@TLVP(%rip), %rdi
	callq	*(%rdi)
LBB2_17:
	addq	$8, %rax
LBB2_18:
	.loc	24 429 10 is_stmt 1
	addq	$4128, %rsp
	popq	%rbx
	popq	%r14
	popq	%rbp
	retq
LBB2_5:
Ltmp72:
	.loc	24 0 10 is_stmt 0
	leaq	-24(%rbp), %rax
Ltmp73:
	.loc	6 264 21 is_stmt 1
	movq	%rax, -4136(%rbp)
	leaq	-4136(%rbp), %rax
Ltmp74:
	.loc	6 265 37
	movq	%rax, -2080(%rbp)
	.loc	6 265 9 is_stmt 0
	leaq	__ZN79_$LT$crossbeam_epoch..default..COLLECTOR$u20$as$u20$core..ops..deref..Deref$GT$5deref11__stability4LAZY17h871a109a05c5dde6E+8(%rip), %rdi
	leaq	l___unnamed_1(%rip), %rcx
	leaq	-2080(%rbp), %rdx
	xorl	%esi, %esi
	callq	__ZN3std4sync4once4Once10call_inner17hfcd38045e50af9d3E
Ltmp75:
	.loc	9 37 20 is_stmt 1
	movq	-24(%rbp), %rax
Ltmp76:
	.loc	9 38 17
	cmpq	$0, (%rax)
	jne	LBB2_7
Ltmp77:
LBB2_19:
	.loc	16 10 9
	leaq	l___unnamed_15(%rip), %rdi
	leaq	l___unnamed_16(%rip), %rdx
	movl	$66, %esi
	callq	__ZN4core9panicking5panic17h383a6b80ea7021aaE
Ltmp78:
LBB2_15:
	.loc	12 559 13
	callq	__ZN15crossbeam_epoch8internal5Local8finalize17h52a48f6fa778720fE
Ltmp79:
	.loc	24 312 17
	movq	__ZN15crossbeam_epoch7default6HANDLE7__getit5__KEY17h43587ce4d2ed7131E@TLVP(%rip), %rdi
	callq	*(%rdi)
	jmp	LBB2_16
Ltmp80:
LBB2_20:
	.loc	13 1103 13
	ud2
Ltmp81:
LBB2_21:
	.loc	10 279 19
	movl	$2104, %edi
	movl	$8, %esi
	callq	__ZN5alloc5alloc18handle_alloc_error17h28974197717b8939E
Ltmp82:
LBB2_22:
	.loc	12 555 9
	leaq	l___unnamed_17(%rip), %rdi
Ltmp83:
	leaq	l___unnamed_18(%rip), %rdx
	movl	$35, %esi
	callq	__ZN3std9panicking11begin_panic17h4d3fcdc77d338693E
Ltmp84:
Lfunc_end2:
	.cfi_endproc
	.file	26 "/Users/yingyuhang/.cargo/registry/src/github.com-1ecc6299db9ec823/crossbeam-epoch-0.8.2/src/sync/list.rs"

	.p2align	4, 0x90
__ZN3std6thread5local4fast13destroy_value17hd10f0422def40e24E:
Lfunc_begin3:
	.loc	24 451 0
	.cfi_startproc
	pushq	%rbp
	.cfi_def_cfa_offset 16
	.cfi_offset %rbp, -16
	movq	%rsp, %rbp
	.cfi_def_cfa_register %rbp
Ltmp85:
	movq	%rdi, %rax
Ltmp86:
	.loc	7 2130 14 prologue_end
	movq	8(%rdi), %rdi
Ltmp87:
	.loc	14 184 1
	cmpq	$0, (%rax)
Ltmp88:
	.loc	7 2130 14
	movq	$0, (%rax)
Ltmp89:
	.loc	7 2130 14 is_stmt 0
	movb	$2, 16(%rax)
Ltmp90:
	.loc	14 184 1 is_stmt 1
	je	LBB3_4
Ltmp91:
	.loc	12 554 28
	movq	2088(%rdi), %rax
Ltmp92:
	.loc	12 555 23
	testq	%rax, %rax
	.loc	12 555 9 is_stmt 0
	je	LBB3_5
Ltmp93:
	.loc	12 553 27 is_stmt 1
	movq	2080(%rdi), %rcx
Ltmp94:
	.loc	12 556 31
	leaq	-1(%rax), %rdx
Ltmp95:
	.loc	7 2130 14
	movq	%rdx, 2088(%rdi)
Ltmp96:
	.loc	12 558 32
	cmpq	$1, %rax
Ltmp97:
	.loc	12 558 9 is_stmt 0
	jne	LBB3_4
Ltmp98:
	testq	%rcx, %rcx
	je	LBB3_6
Ltmp99:
LBB3_4:
	.loc	24 461 6 is_stmt 1
	popq	%rbp
	retq
LBB3_6:
Ltmp100:
	.loc	12 559 13
	popq	%rbp
	jmp	__ZN15crossbeam_epoch8internal5Local8finalize17h52a48f6fa778720fE
Ltmp101:
LBB3_5:
	.loc	12 555 9
	leaq	l___unnamed_17(%rip), %rdi
Ltmp102:
	leaq	l___unnamed_18(%rip), %rdx
	movl	$35, %esi
	callq	__ZN3std9panicking11begin_panic17h4d3fcdc77d338693E
Ltmp103:
Lfunc_end3:
	.cfi_endproc

	.p2align	4, 0x90
__ZN3std9panicking11begin_panic17h4d3fcdc77d338693E:
Lfunc_begin4:
	.file	27 "/rustc/6c8927b0cf80ceee19386026cf9d7fd4fd9d486f/src/libstd/panicking.rs"
	.loc	27 451 0
	.cfi_startproc
	pushq	%rbp
	.cfi_def_cfa_offset 16
	.cfi_offset %rbp, -16
	movq	%rsp, %rbp
	.cfi_def_cfa_register %rbp
	subq	$16, %rsp
Ltmp104:
	.loc	27 456 31 prologue_end
	movq	%rdi, -16(%rbp)
	movq	%rsi, -8(%rbp)
	.loc	27 456 61 is_stmt 0
	movq	%rdx, %rdi
Ltmp105:
	callq	__ZN4core5panic8Location6caller17hb284bf0993c43fcaE
Ltmp106:
	.loc	27 456 5
	leaq	l___unnamed_2(%rip), %rsi
	leaq	-16(%rbp), %rdi
	xorl	%edx, %edx
	movq	%rax, %rcx
	callq	__ZN3std9panicking20rust_panic_with_hook17h720143ee15fc80baE
Ltmp107:
Lfunc_end4:
	.cfi_endproc

	.p2align	4, 0x90
__ZN42_$LT$$RF$T$u20$as$u20$core..fmt..Debug$GT$3fmt17h03a2d4f492fcfd3dE:
Lfunc_begin5:
	.file	28 "/rustc/6c8927b0cf80ceee19386026cf9d7fd4fd9d486f/src/libcore/fmt/mod.rs"
	.loc	28 2022 0 is_stmt 1
	.cfi_startproc
	pushq	%rbp
	.cfi_def_cfa_offset 16
	.cfi_offset %rbp, -16
	movq	%rsp, %rbp
	.cfi_def_cfa_register %rbp
Ltmp108:
	.loc	28 2022 71 prologue_end
	movq	(%rdi), %rdi
Ltmp109:
	.loc	28 2022 62 is_stmt 0
	popq	%rbp
	jmp	__ZN68_$LT$core..sync..atomic..AtomicUsize$u20$as$u20$core..fmt..Debug$GT$3fmt17hc16a3653417027b4E
Ltmp110:
Lfunc_end5:
	.cfi_endproc

	.p2align	4, 0x90
__ZN42_$LT$$RF$T$u20$as$u20$core..fmt..Debug$GT$3fmt17h070a903bca2ba59aE:
Lfunc_begin6:
	.loc	28 2022 0 is_stmt 1
	.cfi_startproc
	pushq	%rbp
	.cfi_def_cfa_offset 16
	.cfi_offset %rbp, -16
	movq	%rsp, %rbp
	.cfi_def_cfa_register %rbp
Ltmp111:
	pushq	%r15
	pushq	%r14
	pushq	%r13
	pushq	%r12
	pushq	%rbx
	subq	$24, %rsp
	.cfi_offset %rbx, -56
	.cfi_offset %r12, -48
	.cfi_offset %r13, -40
	.cfi_offset %r14, -32
	.cfi_offset %r15, -24
	.loc	28 2022 71 prologue_end
	movq	(%rdi), %rbx
	movq	8(%rdi), %r13
Ltmp112:
	.loc	28 0 71 is_stmt 0
	leaq	-64(%rbp), %rdi
Ltmp113:
	.loc	28 2211 9 is_stmt 1
	callq	__ZN4core3fmt9Formatter10debug_list17h113a4e31f24f00d7E
Ltmp114:
	.file	29 "/rustc/6c8927b0cf80ceee19386026cf9d7fd4fd9d486f/src/libcore/ptr/const_ptr.rs"
	.loc	29 164 18
	shlq	$5, %r13
Ltmp115:
	.file	30 "/rustc/6c8927b0cf80ceee19386026cf9d7fd4fd9d486f/src/libcore/slice/mod.rs"
	.loc	30 3570 21
	je	LBB6_3
Ltmp116:
	.loc	30 0 21 is_stmt 0
	leaq	l___unnamed_3(%rip), %r14
	leaq	-64(%rbp), %r15
	leaq	-48(%rbp), %r12
Ltmp117:
	.p2align	4, 0x90
LBB6_2:
	.file	31 "/rustc/6c8927b0cf80ceee19386026cf9d7fd4fd9d486f/src/libcore/fmt/builders.rs"
	.loc	31 661 22 is_stmt 1
	movq	%rbx, -48(%rbp)
Ltmp118:
	.file	32 "/rustc/6c8927b0cf80ceee19386026cf9d7fd4fd9d486f/src/libcore/ptr/mut_ptr.rs"
	.loc	32 165 18
	addq	$32, %rbx
Ltmp119:
	.loc	31 662 13
	movq	%r15, %rdi
	movq	%r12, %rsi
	movq	%r14, %rdx
	callq	__ZN4core3fmt8builders9DebugList5entry17h2dea26f6c644471aE
Ltmp120:
	.loc	30 3440 9
	addq	$-32, %r13
	.loc	30 3570 21
	jne	LBB6_2
Ltmp121:
LBB6_3:
	.loc	30 0 21 is_stmt 0
	leaq	-64(%rbp), %rdi
	.loc	28 2211 9 is_stmt 1
	callq	__ZN4core3fmt8builders9DebugList6finish17h1537bc92ee1acb1cE
Ltmp122:
	.loc	28 2022 84
	addq	$24, %rsp
	popq	%rbx
	popq	%r12
	popq	%r13
	popq	%r14
	popq	%r15
	popq	%rbp
	retq
Ltmp123:
Lfunc_end6:
	.cfi_endproc

	.p2align	4, 0x90
__ZN42_$LT$$RF$T$u20$as$u20$core..fmt..Debug$GT$3fmt17h0bf75db950699a62E:
Lfunc_begin7:
	.loc	28 2022 0
	.cfi_startproc
	pushq	%rbp
	.cfi_def_cfa_offset 16
	.cfi_offset %rbp, -16
	movq	%rsp, %rbp
	.cfi_def_cfa_register %rbp
Ltmp124:
	pushq	%r14
	pushq	%rbx
	subq	$32, %rsp
	.cfi_offset %rbx, -32
	.cfi_offset %r14, -24
	.loc	28 2022 71 prologue_end
	movq	(%rdi), %rbx
Ltmp125:
	.file	33 "/Users/yingyuhang/.cargo/registry/src/github.com-1ecc6299db9ec823/crossbeam-epoch-0.8.2/src/epoch.rs"
	.loc	33 16 32
	leaq	l___unnamed_19(%rip), %rdx
	leaq	-40(%rbp), %r14
	movl	$5, %ecx
	movq	%r14, %rdi
Ltmp126:
	callq	__ZN4core3fmt9Formatter12debug_struct17ha1a64e91d2a98458E
Ltmp127:
	.loc	33 19 5
	movq	%rbx, -24(%rbp)
	.loc	33 16 32
	leaq	L___unnamed_20(%rip), %rsi
	leaq	l___unnamed_8(%rip), %r8
	leaq	-24(%rbp), %rcx
	movl	$4, %edx
	movq	%r14, %rdi
	callq	__ZN4core3fmt8builders11DebugStruct5field17h6c54d35ac41bb1e6E
	movq	%r14, %rdi
	callq	__ZN4core3fmt8builders11DebugStruct6finish17h67ed49fd5e81bb24E
Ltmp128:
	.loc	28 2022 84
	addq	$32, %rsp
	popq	%rbx
	popq	%r14
	popq	%rbp
	retq
Ltmp129:
Lfunc_end7:
	.cfi_endproc
	.file	34 "/Users/yingyuhang/.cargo/registry/src/github.com-1ecc6299db9ec823/crossbeam-epoch-0.8.2/src/lib.rs"

	.p2align	4, 0x90
__ZN42_$LT$$RF$T$u20$as$u20$core..fmt..Debug$GT$3fmt17h1bb9d1b4267826bbE:
Lfunc_begin8:
	.loc	28 2022 0
	.cfi_startproc
	pushq	%rbp
	.cfi_def_cfa_offset 16
	.cfi_offset %rbp, -16
	movq	%rsp, %rbp
	.cfi_def_cfa_register %rbp
Ltmp130:
	pushq	%rbx
	subq	$40, %rsp
	.cfi_offset %rbx, -24
	.loc	28 2022 71 prologue_end
	movq	(%rdi), %rbx
Ltmp131:
	.loc	12 209 9
	leaq	l___unnamed_21(%rip), %rdx
	leaq	-40(%rbp), %rdi
Ltmp132:
	movl	$3, %ecx
	callq	__ZN4core3fmt9Formatter12debug_struct17ha1a64e91d2a98458E
Ltmp133:
	.loc	12 210 52
	movq	2048(%rbx), %rdi
Ltmp134:
	.loc	30 3169 19
	cmpq	$65, %rdi
	.loc	30 3169 16 is_stmt 0
	jae	LBB8_2
Ltmp135:
	.loc	12 210 34 is_stmt 1
	movq	%rbx, -24(%rbp)
	movq	%rdi, -16(%rbp)
	.loc	12 209 9
	leaq	l___unnamed_22(%rip), %rsi
	leaq	l___unnamed_7(%rip), %r8
	leaq	-40(%rbp), %rdi
Ltmp136:
	.loc	12 0 9 is_stmt 0
	leaq	-24(%rbp), %rcx
	.loc	12 209 9
	movl	$9, %edx
	callq	__ZN4core3fmt8builders11DebugStruct5field17h6c54d35ac41bb1e6E
	movq	%rax, %rdi
	callq	__ZN4core3fmt8builders11DebugStruct6finish17h67ed49fd5e81bb24E
Ltmp137:
	.loc	28 2022 84 is_stmt 1
	addq	$40, %rsp
	popq	%rbx
Ltmp138:
	popq	%rbp
	retq
Ltmp139:
LBB8_2:
	.loc	30 3170 13
	leaq	l___unnamed_23(%rip), %rdx
	movl	$64, %esi
	callq	__ZN4core5slice24slice_end_index_len_fail17hea9e3399ed430f80E
Ltmp140:
Lfunc_end8:
	.cfi_endproc

	.p2align	4, 0x90
__ZN42_$LT$$RF$T$u20$as$u20$core..fmt..Debug$GT$3fmt17h380fd9b58cdcc883E:
Lfunc_begin9:
	.loc	28 2022 0
	.cfi_startproc
	pushq	%rbp
	.cfi_def_cfa_offset 16
	.cfi_offset %rbp, -16
	movq	%rsp, %rbp
	.cfi_def_cfa_register %rbp
Ltmp141:
	pushq	%rbx
	subq	$40, %rsp
	.cfi_offset %rbx, -24
	.loc	28 2022 71 prologue_end
	movq	(%rdi), %rax
Ltmp142:
	.loc	15 2357 23
	movq	(%rax), %rax
Ltmp143:
	.loc	18 113 15
	movq	%rax, %rcx
	andq	$-8, %rcx
Ltmp144:
	.loc	18 114 15
	andl	$7, %eax
Ltmp145:
	.loc	18 516 14
	movq	%rcx, -16(%rbp)
	.loc	18 516 19 is_stmt 0
	movq	%rax, -24(%rbp)
Ltmp146:
	.loc	18 518 9 is_stmt 1
	leaq	l___unnamed_24(%rip), %rdx
	leaq	-40(%rbp), %rbx
	movl	$6, %ecx
Ltmp147:
	movq	%rbx, %rdi
Ltmp148:
	callq	__ZN4core3fmt9Formatter12debug_struct17ha1a64e91d2a98458E
Ltmp149:
	leaq	l___unnamed_25(%rip), %rsi
	leaq	l___unnamed_5(%rip), %r8
	leaq	-16(%rbp), %rcx
	movl	$3, %edx
	movq	%rbx, %rdi
	callq	__ZN4core3fmt8builders11DebugStruct5field17h6c54d35ac41bb1e6E
Ltmp150:
	leaq	l___unnamed_26(%rip), %rsi
	leaq	l___unnamed_6(%rip), %r8
	leaq	-24(%rbp), %rcx
	movl	$3, %edx
	movq	%rax, %rdi
	callq	__ZN4core3fmt8builders11DebugStruct5field17h6c54d35ac41bb1e6E
	movq	%rax, %rdi
	callq	__ZN4core3fmt8builders11DebugStruct6finish17h67ed49fd5e81bb24E
Ltmp151:
	.loc	28 2022 84
	addq	$40, %rsp
	popq	%rbx
	popq	%rbp
	retq
Ltmp152:
Lfunc_end9:
	.cfi_endproc

	.p2align	4, 0x90
__ZN42_$LT$$RF$T$u20$as$u20$core..fmt..Debug$GT$3fmt17hdc2f8c1928c52c3dE:
Lfunc_begin10:
	.loc	28 2022 0
	.cfi_startproc
	pushq	%rbp
	.cfi_def_cfa_offset 16
	.cfi_offset %rbp, -16
	movq	%rsp, %rbp
	.cfi_def_cfa_register %rbp
	movq	%rsi, %rdi
Ltmp153:
	.file	35 "/Users/yingyuhang/.cargo/registry/src/github.com-1ecc6299db9ec823/crossbeam-epoch-0.8.2/src/deferred.rs"
	.loc	35 29 9 prologue_end
	leaq	l___unnamed_27(%rip), %rsi
	movl	$15, %edx
	popq	%rbp
	jmp	__ZN4core3fmt9Formatter3pad17h426409b23b74b394E
Ltmp154:
Lfunc_end10:
	.cfi_endproc

	.p2align	4, 0x90
__ZN42_$LT$$RF$T$u20$as$u20$core..fmt..Debug$GT$3fmt17hf891e1cbd6e549f3E:
Lfunc_begin11:
	.loc	28 2022 0
	.cfi_startproc
	pushq	%rbp
	.cfi_def_cfa_offset 16
	.cfi_offset %rbp, -16
	movq	%rsp, %rbp
	.cfi_def_cfa_register %rbp
	pushq	%r14
	pushq	%rbx
	.cfi_offset %rbx, -32
	.cfi_offset %r14, -24
	movq	%rsi, %rbx
Ltmp155:
	.loc	28 2022 71 prologue_end
	movq	(%rdi), %r14
Ltmp156:
	.file	36 "/rustc/6c8927b0cf80ceee19386026cf9d7fd4fd9d486f/src/libcore/fmt/num.rs"
	.loc	36 149 20
	movq	%rsi, %rdi
Ltmp157:
	callq	__ZN4core3fmt9Formatter15debug_lower_hex17hd07f6fde8d0365dfE
	.loc	36 149 17 is_stmt 0
	testb	%al, %al
	je	LBB11_1
Ltmp158:
	.loc	36 150 21 is_stmt 1
	movq	%r14, %rdi
	movq	%rbx, %rsi
	popq	%rbx
Ltmp159:
	popq	%r14
Ltmp160:
	popq	%rbp
	jmp	__ZN4core3fmt3num55_$LT$impl$u20$core..fmt..LowerHex$u20$for$u20$usize$GT$3fmt17hc47c170655f2f8b1E
LBB11_1:
Ltmp161:
	.loc	36 151 27
	movq	%rbx, %rdi
	callq	__ZN4core3fmt9Formatter15debug_upper_hex17hf480c256a9c81c1eE
	.loc	36 154 21
	movq	%r14, %rdi
	movq	%rbx, %rsi
	.loc	36 151 24
	testb	%al, %al
	je	LBB11_4
Ltmp162:
	.loc	36 152 21
	popq	%rbx
Ltmp163:
	popq	%r14
Ltmp164:
	popq	%rbp
	jmp	__ZN4core3fmt3num55_$LT$impl$u20$core..fmt..UpperHex$u20$for$u20$usize$GT$3fmt17he5a77a1ce12f6c22E
LBB11_4:
Ltmp165:
	.loc	36 154 21
	popq	%rbx
Ltmp166:
	popq	%r14
Ltmp167:
	popq	%rbp
	jmp	__ZN4core3fmt3num3imp54_$LT$impl$u20$core..fmt..Display$u20$for$u20$usize$GT$3fmt17h12ea2856299c9b06E
Ltmp168:
Lfunc_end11:
	.cfi_endproc

	.p2align	4, 0x90
__ZN4core3fmt3num52_$LT$impl$u20$core..fmt..Debug$u20$for$u20$usize$GT$3fmt17h3ce1e8eb3a3c5c0bE:
Lfunc_begin12:
	.loc	36 148 0
	.cfi_startproc
	pushq	%rbp
	.cfi_def_cfa_offset 16
	.cfi_offset %rbp, -16
	movq	%rsp, %rbp
	.cfi_def_cfa_register %rbp
	pushq	%r14
	pushq	%rbx
	.cfi_offset %rbx, -32
	.cfi_offset %r14, -24
	movq	%rsi, %rbx
	movq	%rdi, %r14
Ltmp169:
	.loc	36 149 20 prologue_end
	movq	%rsi, %rdi
	callq	__ZN4core3fmt9Formatter15debug_lower_hex17hd07f6fde8d0365dfE
	.loc	36 149 17 is_stmt 0
	testb	%al, %al
	je	LBB12_1
Ltmp170:
	.loc	36 150 21 is_stmt 1
	movq	%r14, %rdi
	movq	%rbx, %rsi
	popq	%rbx
Ltmp171:
	popq	%r14
Ltmp172:
	popq	%rbp
	jmp	__ZN4core3fmt3num55_$LT$impl$u20$core..fmt..LowerHex$u20$for$u20$usize$GT$3fmt17hc47c170655f2f8b1E
LBB12_1:
Ltmp173:
	.loc	36 151 27
	movq	%rbx, %rdi
	callq	__ZN4core3fmt9Formatter15debug_upper_hex17hf480c256a9c81c1eE
	.loc	36 154 21
	movq	%r14, %rdi
	movq	%rbx, %rsi
	.loc	36 151 24
	testb	%al, %al
	je	LBB12_4
Ltmp174:
	.loc	36 152 21
	popq	%rbx
Ltmp175:
	popq	%r14
Ltmp176:
	popq	%rbp
	jmp	__ZN4core3fmt3num55_$LT$impl$u20$core..fmt..UpperHex$u20$for$u20$usize$GT$3fmt17he5a77a1ce12f6c22E
LBB12_4:
Ltmp177:
	.loc	36 154 21
	popq	%rbx
Ltmp178:
	popq	%r14
Ltmp179:
	popq	%rbp
	jmp	__ZN4core3fmt3num3imp54_$LT$impl$u20$core..fmt..Display$u20$for$u20$usize$GT$3fmt17h12ea2856299c9b06E
Ltmp180:
Lfunc_end12:
	.cfi_endproc

	.p2align	4, 0x90
__ZN4core3ops8function6FnOnce40call_once$u7b$$u7b$vtable.shim$u7d$$u7d$17hf3cc5c040feb3194E:
Lfunc_begin13:
	.loc	21 233 0
	.cfi_startproc
	pushq	%rbp
	.cfi_def_cfa_offset 16
	.cfi_offset %rbp, -16
	movq	%rsp, %rbp
	.cfi_def_cfa_register %rbp
	subq	$16, %rsp
Ltmp181:
	.loc	21 233 5 prologue_end
	movq	(%rdi), %rax
Ltmp182:
	.loc	21 0 5 is_stmt 0
	movq	%rax, -8(%rbp)
Ltmp183:
	leaq	-8(%rbp), %rdi
Ltmp184:
	.loc	21 233 5
	callq	__ZN3std4sync4once4Once9call_once28_$u7b$$u7b$closure$u7d$$u7d$17heef6cc50bd0a4148E
Ltmp185:
	.loc	21 233 5
	addq	$16, %rsp
	popq	%rbp
	retq
Ltmp186:
Lfunc_end13:
	.cfi_endproc

	.p2align	4, 0x90
__ZN4core3ptr13drop_in_place17h3f6e39fcb595a67eE:
Lfunc_begin14:
	.loc	14 184 0 is_stmt 1
	.cfi_startproc
	pushq	%rbp
	.cfi_def_cfa_offset 16
	.cfi_offset %rbp, -16
	movq	%rsp, %rbp
	.cfi_def_cfa_register %rbp
Ltmp187:
	.loc	1 422 39 prologue_end
	movq	(%rdi), %rdi
Ltmp188:
	.loc	1 422 16 is_stmt 0
	testq	%rdi, %rdi
	je	LBB14_6
Ltmp189:
	.loc	12 507 27 is_stmt 1
	movq	2080(%rdi), %rax
Ltmp190:
	.loc	12 508 30
	subq	$1, %rax
Ltmp191:
	jb	LBB14_5
Ltmp192:
	.loc	7 2130 14
	movq	%rax, 2080(%rdi)
Ltmp193:
	.loc	12 510 9
	jne	LBB14_6
Ltmp194:
	.loc	15 2341 24
	movq	$0, 8(%rdi)
Ltmp195:
	.loc	12 513 16
	cmpq	$0, 2088(%rdi)
	.loc	12 513 13 is_stmt 0
	je	LBB14_4
Ltmp196:
LBB14_6:
	.loc	14 184 1 is_stmt 1
	popq	%rbp
	retq
LBB14_4:
Ltmp197:
	.loc	12 514 17
	popq	%rbp
	jmp	__ZN15crossbeam_epoch8internal5Local8finalize17h52a48f6fa778720fE
Ltmp198:
LBB14_5:
	.loc	12 508 30
	leaq	_str.1(%rip), %rdi
Ltmp199:
	leaq	l___unnamed_28(%rip), %rdx
	movl	$33, %esi
	callq	__ZN4core9panicking5panic17h383a6b80ea7021aaE
Ltmp200:
Lfunc_end14:
	.cfi_endproc

	.p2align	4, 0x90
__ZN4core3ptr13drop_in_place17h8bcc3fbe45792fbfE:
Lfunc_begin15:
	.loc	14 184 0
	.cfi_startproc
	pushq	%rbp
	.cfi_def_cfa_offset 16
	.cfi_offset %rbp, -16
	movq	%rsp, %rbp
	.cfi_def_cfa_register %rbp
	pushq	%r15
	pushq	%r14
	pushq	%r13
	pushq	%r12
	pushq	%rbx
	andq	$-32, %rsp
	movl	$4224, %eax
	callq	___rust_probestack
	subq	%rax, %rsp
	.cfi_offset %rbx, -56
	.cfi_offset %r12, -48
	.cfi_offset %r13, -40
	.cfi_offset %r14, -32
	.cfi_offset %r15, -24
	movq	%rdi, %r13
Ltmp201:
	leaq	__ZN15crossbeam_epoch8deferred8Deferred3new4call17h97a0ccaced4abd05E(%rip), %rax
	movq	%rax, %xmm0
	movdqa	%xmm0, 32(%rsp)
Ltmp202:
	.p2align	4, 0x90
LBB15_1:
	.loc	15 2355 24 prologue_end
	movq	(%r13), %rcx
Ltmp203:
	.loc	18 113 15
	movq	%rcx, %rdi
	andq	$-8, %rdi
Ltmp204:
	.loc	15 2355 24
	movq	2064(%rdi), %rdx
Ltmp205:
	.loc	19 115 13
	movq	%rdx, %rbx
	andq	$-8, %rbx
	je	LBB15_7
Ltmp206:
	.loc	15 2424 35
	movq	%rcx, %rax
	lock		cmpxchgq	%rdx, (%r13)
Ltmp207:
	.loc	25 611 13
	jne	LBB15_1
Ltmp208:
	.loc	15 2356 24
	movq	128(%r13), %rax
Ltmp209:
	.loc	18 1147 9
	cmpq	%rax, %rcx
Ltmp210:
	.loc	19 121 25
	jne	LBB15_5
Ltmp211:
	.loc	15 2424 35
	movq	%rcx, %rax
Ltmp212:
	lock		cmpxchgq	%rdx, 128(%r13)
Ltmp213:
LBB15_5:
	.loc	18 1077 13
	cmpq	$7, %rcx
	.loc	18 1076 9
	jbe	LBB15_14
Ltmp214:
	.loc	10 102 14
	movl	$2072, %esi
	movl	$8, %edx
Ltmp215:
	callq	___rust_dealloc
Ltmp216:
	.loc	25 519 22
	movq	(%rbx), %r15
	movq	8(%rbx), %r12
Ltmp217:
	.loc	25 611 22
	addq	$16, %rbx
Ltmp218:
	movl	$2048, %edx
	leaq	2144(%rsp), %r14
	movq	%r14, %rdi
	movq	%rbx, %rsi
	callq	_memcpy
	jmp	LBB15_8
Ltmp219:
LBB15_7:
	.loc	19 0 0 is_stmt 0
	xorl	%r12d, %r12d
	leaq	2144(%rsp), %r14
	movq	24(%rsp), %r15
Ltmp220:
LBB15_8:
	.loc	19 169 23 is_stmt 1
	movq	%r15, 80(%rsp)
	movq	%r12, 88(%rsp)
	movl	$2048, %edx
	leaq	96(%rsp), %rdi
	movq	%r14, %rsi
	callq	_memcpy
Ltmp221:
	.loc	19 197 23
	testq	%r12, %r12
Ltmp222:
	.loc	14 184 1
	je	LBB15_13
Ltmp223:
	.loc	14 0 1 is_stmt 0
	movq	%r15, 24(%rsp)
Ltmp224:
	.loc	12 198 47 is_stmt 1
	movq	2136(%rsp), %rbx
Ltmp225:
	.loc	30 3179 19
	cmpq	$65, %rbx
	.loc	30 3179 16 is_stmt 0
	jae	LBB15_15
Ltmp226:
	.loc	32 165 18 is_stmt 1
	shlq	$5, %rbx
Ltmp227:
	.loc	32 0 18 is_stmt 0
	movapd	32(%rsp), %xmm2
	leaq	2152(%rsp), %r14
Ltmp228:
	.loc	30 3570 21 is_stmt 1
	je	LBB15_1
Ltmp229:
	.loc	30 0 21 is_stmt 0
	xorl	%r12d, %r12d
Ltmp230:
	.p2align	4, 0x90
LBB15_12:
	.loc	12 200 57 is_stmt 1
	movsd	%xmm2, %xmm0
Ltmp231:
	.loc	7 2130 14
	movdqu	88(%rsp,%r12), %xmm2
	movups	104(%rsp,%r12), %xmm3
Ltmp232:
	.loc	7 0 14 is_stmt 0
	movaps	%xmm3, 64(%rsp)
Ltmp233:
	.loc	7 2130 14
	movups	%xmm1, 104(%rsp,%r12)
	movupd	%xmm0, 88(%rsp,%r12)
Ltmp234:
	.loc	12 201 13 is_stmt 1
	movaps	%xmm3, 2160(%rsp)
	movdqa	%xmm2, 48(%rsp)
	movdqa	%xmm2, 2144(%rsp)
Ltmp235:
	.loc	35 76 20
	movq	%xmm2, %rax
Ltmp236:
	.loc	35 77 18
	movq	%r14, %rdi
	callq	*%rax
Ltmp237:
	.loc	35 0 18 is_stmt 0
	movapd	32(%rsp), %xmm2
Ltmp238:
	.loc	30 3440 9 is_stmt 1
	addq	$32, %r12
	movdqa	48(%rsp), %xmm0
	movaps	64(%rsp), %xmm1
	cmpq	%r12, %rbx
	.loc	30 3570 21
	jne	LBB15_12
	jmp	LBB15_1
Ltmp239:
LBB15_13:
	.loc	15 2356 24
	movq	(%r13), %rdi
Ltmp240:
	.loc	18 1077 13
	cmpq	$7, %rdi
	.loc	18 1076 9
	jbe	LBB15_14
Ltmp241:
	.loc	18 113 15
	andq	$-8, %rdi
Ltmp242:
	.loc	10 102 14
	movl	$2072, %esi
	movl	$8, %edx
	callq	___rust_dealloc
Ltmp243:
	.loc	14 184 1
	leaq	-40(%rbp), %rsp
	popq	%rbx
	popq	%r12
	popq	%r13
Ltmp244:
	popq	%r14
	popq	%r15
	popq	%rbp
	retq
Ltmp245:
LBB15_15:
	.loc	30 3180 13
	leaq	l___unnamed_29(%rip), %rdx
	movl	$64, %esi
	movq	%rbx, %rdi
	callq	__ZN4core5slice24slice_end_index_len_fail17hea9e3399ed430f80E
Ltmp246:
LBB15_14:
	.loc	19 0 0 is_stmt 0
	leaq	l___unnamed_30(%rip), %rdi
	leaq	l___unnamed_31(%rip), %rdx
	movl	$39, %esi
	callq	__ZN3std9panicking11begin_panic17h4d3fcdc77d338693E
Ltmp247:
Lfunc_end15:
	.cfi_endproc

	.section	__TEXT,__literal16,16byte_literals
	.p2align	4
LCPI16_0:
	.quad	1
	.quad	18
	.section	__TEXT,__text,regular,pure_instructions
	.p2align	4, 0x90
__ZN50_$LT$$BP$mut$u20$T$u20$as$u20$core..fmt..Debug$GT$3fmt17h8f9c7931e1819d46E:
Lfunc_begin16:
	.loc	28 2172 0 is_stmt 1
	.cfi_startproc
	pushq	%rbp
	.cfi_def_cfa_offset 16
	.cfi_offset %rbp, -16
	movq	%rsp, %rbp
	.cfi_def_cfa_register %rbp
	pushq	%r15
	pushq	%r14
	pushq	%rbx
	subq	$24, %rsp
	.cfi_offset %rbx, -40
	.cfi_offset %r14, -32
	.cfi_offset %r15, -24
	movq	%rsi, %rbx
Ltmp248:
	.loc	28 2144 24 prologue_end
	movq	(%rdi), %r15
Ltmp249:
	.loc	28 2116 25
	movups	(%rsi), %xmm0
	movaps	%xmm0, -48(%rbp)
Ltmp250:
	.loc	28 2117 25
	movl	48(%rsi), %r14d
Ltmp251:
	.loc	28 2123 12
	movq	%rsi, %rdi
Ltmp252:
	callq	__ZN4core3fmt9Formatter9alternate17hd77eec28e879e5edE
	.loc	28 0 0 is_stmt 0
	movl	48(%rbx), %ecx
	.loc	28 2123 9
	testb	%al, %al
	je	LBB16_3
Ltmp253:
	.loc	28 2124 13 is_stmt 1
	orl	$8, %ecx
	movl	%ecx, 48(%rbx)
Ltmp254:
	.loc	8 185 25
	cmpq	$1, (%rbx)
Ltmp255:
	.loc	28 2126 13
	je	LBB16_3
Ltmp256:
	.loc	28 2127 17
	movaps	LCPI16_0(%rip), %xmm0
	movups	%xmm0, (%rbx)
Ltmp257:
LBB16_3:
	.loc	28 2130 9
	orl	$4, %ecx
	movl	%ecx, 48(%rbx)
	.loc	28 2132 34
	movq	%r15, -32(%rbp)
	leaq	-32(%rbp), %rdi
	.loc	28 2132 19 is_stmt 0
	movq	%rbx, %rsi
	callq	__ZN4core3fmt3num55_$LT$impl$u20$core..fmt..LowerHex$u20$for$u20$usize$GT$3fmt17hc47c170655f2f8b1E
Ltmp258:
	.loc	28 0 19
	movaps	-48(%rbp), %xmm0
Ltmp259:
	.loc	28 2134 9 is_stmt 1
	movups	%xmm0, (%rbx)
	.loc	28 2135 9
	movl	%r14d, 48(%rbx)
Ltmp260:
	.loc	28 2174 6
	addq	$24, %rsp
	popq	%rbx
Ltmp261:
	popq	%r14
Ltmp262:
	popq	%r15
	popq	%rbp
	retq
Ltmp263:
Lfunc_end16:
	.cfi_endproc

	.p2align	4, 0x90
__ZN5alloc4sync12Arc$LT$T$GT$9drop_slow17he8aa0f23870cd715E:
Lfunc_begin17:
	.loc	13 860 0
	.cfi_startproc
	.cfi_personality 155, _rust_eh_personality
	.cfi_lsda 16, Lexception0
	pushq	%rbp
	.cfi_def_cfa_offset 16
	.cfi_offset %rbp, -16
	movq	%rsp, %rbp
	.cfi_def_cfa_register %rbp
	pushq	%r15
	pushq	%r14
	pushq	%r13
	pushq	%r12
	pushq	%rbx
	andq	$-32, %rsp
	subq	$224, %rsp
	.cfi_offset %rbx, -56
	.cfi_offset %r12, -48
	.cfi_offset %r13, -40
	.cfi_offset %r14, -32
	.cfi_offset %r15, -24
	movq	%rdi, 32(%rsp)
Ltmp273:
	.loc	13 863 37 prologue_end
	movq	(%rdi), %rax
Ltmp274:
	.loc	15 2356 24
	movq	512(%rax), %rcx
Ltmp275:
	.loc	13 1284 18
	subq	$-128, %rax
Ltmp276:
	.loc	13 0 18 is_stmt 0
	movq	%rax, 24(%rsp)
Ltmp277:
	.loc	26 223 23 is_stmt 1
	andq	$-8, %rcx
Ltmp278:
	je	LBB17_11
Ltmp279:
	.loc	35 0 0 is_stmt 0
	leaq	72(%rsp), %r13
	leaq	__ZN15crossbeam_epoch8deferred8Deferred3new4call17h97a0ccaced4abd05E(%rip), %rax
	movq	%rax, %xmm0
	movdqa	%xmm0, 144(%rsp)
	jmp	LBB17_2
Ltmp280:
	.p2align	4, 0x90
LBB17_10:
	.loc	10 102 14 is_stmt 1
	movl	$2104, %esi
	movl	$8, %edx
	movq	16(%rsp), %rdi
	callq	___rust_dealloc
Ltmp281:
	.loc	26 223 23
	andq	$-8, %r12
Ltmp282:
	.loc	26 0 23 is_stmt 0
	movq	%r12, %rcx
Ltmp283:
	.loc	26 223 23
	je	LBB17_11
Ltmp284:
LBB17_2:
	.loc	15 2356 24 is_stmt 1
	movq	(%rcx), %r12
Ltmp285:
	.loc	18 114 15
	movl	%r12d, %eax
	andl	$7, %eax
Ltmp286:
	.loc	26 226 28
	movq	%rax, 40(%rsp)
Ltmp287:
	.loc	26 226 17 is_stmt 0
	cmpq	$1, %rax
Ltmp288:
	jne	LBB17_18
Ltmp289:
	.loc	26 0 17
	movq	%rcx, 16(%rsp)
Ltmp290:
	.loc	12 198 47 is_stmt 1
	movq	2072(%rcx), %rbx
Ltmp291:
	.loc	30 3179 19
	cmpq	$65, %rbx
Ltmp292:
	.loc	30 3179 16 is_stmt 0
	jae	LBB17_4
Ltmp293:
	.loc	32 165 18 is_stmt 1
	shlq	$5, %rbx
Ltmp294:
	.loc	30 3570 21
	je	LBB17_10
Ltmp295:
	.loc	30 0 21 is_stmt 0
	movq	16(%rsp), %rax
Ltmp296:
	leaq	24(%rax), %r14
Ltmp297:
	xorl	%r15d, %r15d
Ltmp298:
	.p2align	4, 0x90
LBB17_8:
	.loc	12 200 57 is_stmt 1
	movlps	144(%rsp), %xmm1
Ltmp299:
	.loc	7 2130 14
	movdqu	(%r14,%r15), %xmm2
	movups	16(%r14,%r15), %xmm3
Ltmp300:
	.loc	7 2130 14 is_stmt 0
	movups	%xmm0, 16(%r14,%r15)
	movups	%xmm1, (%r14,%r15)
Ltmp301:
	.loc	7 0 14
	movaps	%xmm3, 160(%rsp)
Ltmp302:
	.loc	12 201 13 is_stmt 1
	movaps	%xmm3, 80(%rsp)
	movdqa	%xmm2, 64(%rsp)
	movdqa	%xmm2, 176(%rsp)
Ltmp303:
	.loc	35 76 20
	movq	%xmm2, %rax
Ltmp267:
Ltmp304:
	.loc	35 77 18
	movq	%r13, %rdi
	callq	*%rax
Ltmp305:
Ltmp268:
	.loc	30 3440 9
	addq	$32, %r15
	cmpq	%r15, %rbx
	movaps	176(%rsp), %xmm1
	movdqa	160(%rsp), %xmm0
	.loc	30 3570 21
	jne	LBB17_8
	jmp	LBB17_10
Ltmp306:
LBB17_11:
	.loc	30 0 21 is_stmt 0
	movq	24(%rsp), %rdi
	.loc	14 184 1 is_stmt 1
	callq	__ZN4core3ptr13drop_in_place17h8bcc3fbe45792fbfE
	movq	32(%rsp), %rax
Ltmp307:
	.loc	13 866 26
	movq	(%rax), %rdi
Ltmp308:
	.file	37 "/rustc/6c8927b0cf80ceee19386026cf9d7fd4fd9d486f/src/liballoc/rc.rs"
	.loc	37 1811 5
	cmpq	$-1, %rdi
Ltmp309:
	.loc	13 1691 9
	je	LBB17_14
Ltmp310:
	.loc	15 2403 24
	lock		decq	8(%rdi)
Ltmp311:
	.loc	13 1846 9
	jne	LBB17_14
Ltmp312:
	.loc	15 2675 24
	##MEMBARRIER
Ltmp313:
	.loc	10 102 14
	movl	$640, %esi
	movl	$128, %edx
	callq	___rust_dealloc
Ltmp314:
LBB17_14:
	.loc	13 867 6
	leaq	-40(%rbp), %rsp
Ltmp315:
	popq	%rbx
	popq	%r12
	popq	%r13
	popq	%r14
	popq	%r15
	popq	%rbp
	retq
LBB17_18:
Ltmp316:
	.loc	13 0 6 is_stmt 0
	leaq	40(%rsp), %rax
Ltmp317:
	.loc	26 226 17 is_stmt 1
	movq	%rax, 48(%rsp)
	leaq	L___unnamed_32(%rip), %rax
	movq	%rax, 56(%rsp)
	leaq	48(%rsp), %rax
Ltmp318:
	.loc	26 226 17 is_stmt 0
	movq	%rax, 112(%rsp)
	leaq	__ZN42_$LT$$RF$T$u20$as$u20$core..fmt..Debug$GT$3fmt17hf891e1cbd6e549f3E(%rip), %rax
	movq	%rax, 120(%rsp)
	leaq	56(%rsp), %rcx
Ltmp319:
	movq	%rcx, 128(%rsp)
	movq	%rax, 136(%rsp)
Ltmp320:
	.loc	28 328 9 is_stmt 1
	leaq	l___unnamed_33(%rip), %rax
Ltmp321:
	movq	%rax, 64(%rsp)
	movq	$3, 72(%rsp)
	movq	$0, 80(%rsp)
	leaq	112(%rsp), %rax
Ltmp322:
	movq	%rax, 96(%rsp)
	movq	$2, 104(%rsp)
Ltmp323:
Ltmp264:
	.loc	26 226 17
	leaq	l___unnamed_34(%rip), %rsi
	leaq	64(%rsp), %rdi
	callq	__ZN3std9panicking15begin_panic_fmt17h8712912d987f10a1E
Ltmp265:
	jmp	LBB17_5
Ltmp324:
LBB17_4:
Ltmp270:
	.loc	30 3180 13
	leaq	l___unnamed_29(%rip), %rdx
	movl	$64, %esi
	movq	%rbx, %rdi
	callq	__ZN4core5slice24slice_end_index_len_fail17hea9e3399ed430f80E
Ltmp271:
Ltmp325:
LBB17_5:
	.loc	26 0 0 is_stmt 0
	ud2
Ltmp326:
LBB17_16:
Ltmp272:
	jmp	LBB17_17
Ltmp327:
LBB17_19:
Ltmp266:
	movq	%rax, %rbx
	jmp	LBB17_20
Ltmp328:
LBB17_15:
Ltmp269:
LBB17_17:
	movq	%rax, %rbx
	movq	16(%rsp), %rdi
Ltmp329:
	.loc	14 184 1 is_stmt 1
	callq	__ZN5alloc5alloc8box_free17hf0568cbeb1f4d732E
Ltmp330:
LBB17_20:
	.loc	14 0 1 is_stmt 0
	movq	24(%rsp), %rdi
	.loc	14 184 1
	callq	__ZN4core3ptr13drop_in_place17h8bcc3fbe45792fbfE
	movq	%rbx, %rdi
	callq	__Unwind_Resume
	ud2
Ltmp331:
Lfunc_end17:
	.cfi_endproc
	.section	__TEXT,__gcc_except_tab
	.p2align	2
GCC_except_table17:
Lexception0:
	.byte	255
	.byte	255
	.byte	1
	.uleb128 Lcst_end0-Lcst_begin0
Lcst_begin0:
	.uleb128 Ltmp267-Lfunc_begin17
	.uleb128 Ltmp268-Ltmp267
	.uleb128 Ltmp269-Lfunc_begin17
	.byte	0
	.uleb128 Ltmp268-Lfunc_begin17
	.uleb128 Ltmp264-Ltmp268
	.byte	0
	.byte	0
	.uleb128 Ltmp264-Lfunc_begin17
	.uleb128 Ltmp265-Ltmp264
	.uleb128 Ltmp266-Lfunc_begin17
	.byte	0
	.uleb128 Ltmp270-Lfunc_begin17
	.uleb128 Ltmp271-Ltmp270
	.uleb128 Ltmp272-Lfunc_begin17
	.byte	0
	.uleb128 Ltmp271-Lfunc_begin17
	.uleb128 Lfunc_end17-Ltmp271
	.byte	0
	.byte	0
Lcst_end0:
	.p2align	2

	.section	__TEXT,__text,regular,pure_instructions
	.p2align	4, 0x90
__ZN5alloc5alloc8box_free17hf0568cbeb1f4d732E:
Lfunc_begin18:
	.loc	10 290 0 is_stmt 1
	.cfi_startproc
	pushq	%rbp
	.cfi_def_cfa_offset 16
	.cfi_offset %rbp, -16
	movq	%rsp, %rbp
	.cfi_def_cfa_register %rbp
Ltmp332:
	.loc	10 102 14 prologue_end
	movl	$2104, %esi
	movl	$8, %edx
	popq	%rbp
	jmp	___rust_dealloc
Ltmp333:
Lfunc_end18:
	.cfi_endproc

	.p2align	4, 0x90
__ZN91_$LT$std..panicking..begin_panic..PanicPayload$LT$A$GT$$u20$as$u20$core..panic..BoxMeUp$GT$3get17h91e1bd7e314693c0E:
Lfunc_begin19:
	.loc	27 482 0
	.cfi_startproc
	pushq	%rbp
	.cfi_def_cfa_offset 16
	.cfi_offset %rbp, -16
	movq	%rsp, %rbp
	.cfi_def_cfa_register %rbp
Ltmp334:
	.loc	27 484 17 prologue_end
	cmpq	$0, (%rdi)
	je	LBB19_2
Ltmp335:
	.loc	27 0 17 is_stmt 0
	movq	%rdi, %rax
Ltmp336:
	.loc	27 487 10 is_stmt 1
	leaq	l___unnamed_4(%rip), %rdx
	popq	%rbp
	retq
Ltmp337:
LBB19_2:
	.loc	27 485 25
	callq	__ZN3std7process5abort17hff53fa3bc108bcb5E
Ltmp338:
Lfunc_end19:
	.cfi_endproc

	.p2align	4, 0x90
__ZN91_$LT$std..panicking..begin_panic..PanicPayload$LT$A$GT$$u20$as$u20$core..panic..BoxMeUp$GT$8take_box17h0301b95787d8655cE:
Lfunc_begin20:
	.loc	27 469 0
	.cfi_startproc
	pushq	%rbp
	.cfi_def_cfa_offset 16
	.cfi_offset %rbp, -16
	movq	%rsp, %rbp
	.cfi_def_cfa_register %rbp
Ltmp339:
	pushq	%r14
	pushq	%rbx
	.cfi_offset %rbx, -32
	.cfi_offset %r14, -24
	.loc	7 2130 14 prologue_end
	movq	(%rdi), %rbx
Ltmp340:
	movq	8(%rdi), %r14
Ltmp341:
	.loc	7 2130 14 is_stmt 0
	movq	$0, (%rdi)
Ltmp342:
	.loc	27 476 17 is_stmt 1
	testq	%rbx, %rbx
	je	LBB20_3
Ltmp343:
	.loc	10 80 14
	movl	$16, %edi
Ltmp344:
	movl	$8, %esi
	callq	___rust_alloc
Ltmp345:
	.loc	10 278 9
	testq	%rax, %rax
	je	LBB20_4
Ltmp346:
	.loc	11 176 13
	movq	%rbx, (%rax)
	movq	%r14, 8(%rax)
Ltmp347:
	.file	38 "/rustc/6c8927b0cf80ceee19386026cf9d7fd4fd9d486f/src/libcore/ptr/unique.rs"
	.loc	38 109 6
	leaq	l___unnamed_4(%rip), %rdx
Ltmp348:
	.loc	27 480 10
	popq	%rbx
Ltmp349:
	popq	%r14
Ltmp350:
	popq	%rbp
	retq
Ltmp351:
LBB20_3:
	.loc	27 477 25
	callq	__ZN3std7process5abort17hff53fa3bc108bcb5E
Ltmp352:
LBB20_4:
	.loc	10 279 19
	movl	$16, %edi
	movl	$8, %esi
	callq	__ZN5alloc5alloc18handle_alloc_error17h28974197717b8939E
Ltmp353:
Lfunc_end20:
	.cfi_endproc

	.section	__TEXT,__literal16,16byte_literals
	.p2align	4
LCPI21_0:
	.quad	1
	.quad	1
	.section	__TEXT,__text,regular,pure_instructions
	.globl	__ZN15crossbeam_epoch9collector9Collector3new17hcdb5c38a9871c6eeE
	.p2align	4, 0x90
__ZN15crossbeam_epoch9collector9Collector3new17hcdb5c38a9871c6eeE:
Lfunc_begin21:
	.loc	20 31 0
	.cfi_startproc
	pushq	%rbp
	.cfi_def_cfa_offset 16
	.cfi_offset %rbp, -16
	movq	%rsp, %rbp
	.cfi_def_cfa_register %rbp
Ltmp354:
	pushq	%rbx
	subq	$2424, %rsp
	.cfi_offset %rbx, -24
Ltmp355:
	.loc	10 80 14 prologue_end
	movl	$2072, %edi
	movl	$8, %esi
	callq	___rust_alloc
Ltmp356:
	.loc	10 278 9
	testq	%rax, %rax
	je	LBB21_3
Ltmp357:
	.loc	11 0 0 is_stmt 0
	movq	%rax, %rbx
	leaq	-2432(%rbp), %rsi
	.loc	11 176 13 is_stmt 1
	movl	$2064, %edx
	movq	%rax, %rdi
	callq	_memcpy
	movq	$0, 2064(%rbx)
	leaq	-248(%rbp), %rdi
	leaq	-2432(%rbp), %rsi
Ltmp358:
	.loc	12 255 9
	movl	$15, %ecx
	rep;movsq (%rsi), %es:(%rdi)
	leaq	-128(%rbp), %rdi
	leaq	-368(%rbp), %rsi
	movl	$15, %ecx
	rep;movsq (%rsi), %es:(%rdi)
Ltmp359:
	.loc	10 80 14
	movl	$640, %edi
	movl	$128, %esi
	callq	___rust_alloc
Ltmp360:
	.loc	10 278 9
	testq	%rax, %rax
	je	LBB21_4
Ltmp361:
	.loc	13 323 29
	movaps	LCPI21_0(%rip), %xmm0
	movaps	%xmm0, (%rax)
	movq	%rbx, 128(%rax)
	leaq	136(%rax), %rdi
	leaq	-248(%rbp), %rsi
	movl	$15, %ecx
	rep;movsq (%rsi), %es:(%rdi)
	movq	%rbx, 256(%rax)
	leaq	264(%rax), %rdi
	leaq	-128(%rbp), %rsi
	movl	$15, %ecx
	rep;movsq (%rsi), %es:(%rdi)
	movq	$0, 384(%rax)
	leaq	392(%rax), %rdi
	leaq	-2432(%rbp), %rsi
	movl	$15, %ecx
	rep;movsq (%rsi), %es:(%rdi)
	movq	$0, 512(%rax)
	movq	%rax, %rdi
	addq	$520, %rdi
	leaq	-368(%rbp), %rsi
	movl	$15, %ecx
	rep;movsq (%rsi), %es:(%rdi)
Ltmp362:
	.loc	20 35 6
	addq	$2424, %rsp
	popq	%rbx
Ltmp363:
	popq	%rbp
	retq
Ltmp364:
LBB21_3:
	.loc	10 279 19
	movl	$2072, %edi
	movl	$8, %esi
	callq	__ZN5alloc5alloc18handle_alloc_error17h28974197717b8939E
Ltmp365:
LBB21_4:
	.loc	10 279 19 is_stmt 0
	movl	$640, %edi
	movl	$128, %esi
	callq	__ZN5alloc5alloc18handle_alloc_error17h28974197717b8939E
Ltmp366:
Lfunc_end21:
	.cfi_endproc

	.section	__TEXT,__literal16,16byte_literals
	.p2align	4
LCPI22_0:
	.byte	0
	.byte	0
	.byte	0
	.byte	0
	.byte	0
	.byte	0
	.byte	0
	.byte	0
	.byte	1
	.byte	0
	.byte	0
	.byte	0
	.byte	0
	.byte	0
	.byte	0
	.byte	0
	.section	__TEXT,__text,regular,pure_instructions
	.globl	__ZN15crossbeam_epoch9collector9Collector8register17hceedc5c29d6e719fE
	.p2align	4, 0x90
__ZN15crossbeam_epoch9collector9Collector8register17hceedc5c29d6e719fE:
Lfunc_begin22:
	.loc	20 38 0 is_stmt 1
	.cfi_startproc
	pushq	%rbp
	.cfi_def_cfa_offset 16
	.cfi_offset %rbp, -16
	movq	%rsp, %rbp
	.cfi_def_cfa_register %rbp
Ltmp367:
	pushq	%r14
	pushq	%rbx
	movl	$4112, %eax
	callq	___rust_probestack
	subq	%rax, %rsp
	.cfi_offset %rbx, -32
	.cfi_offset %r14, -24
	.loc	20 39 9 prologue_end
	movq	(%rdi), %r14
Ltmp368:
	.loc	15 2389 24
	lock		incq	(%r14)
Ltmp369:
	.loc	13 1102 9
	jle	LBB22_5
Ltmp370:
	.loc	13 0 9 is_stmt 0
	leaq	-4128(%rbp), %rbx
Ltmp371:
	.loc	12 74 9 is_stmt 1
	movq	%rbx, %rdi
Ltmp372:
	callq	__ZN73_$LT$crossbeam_epoch..internal..Bag$u20$as$u20$core..default..Default$GT$7default17h1a50758c62180845E
Ltmp373:
	.loc	12 0 9 is_stmt 0
	leaq	-2072(%rbp), %rdi
Ltmp374:
	.loc	18 664 29 is_stmt 1
	movl	$2056, %edx
	movq	%rbx, %rsi
	callq	_memcpy
Ltmp375:
	.loc	10 80 14
	movl	$2104, %edi
	movl	$8, %esi
	callq	___rust_alloc
Ltmp376:
	.loc	10 278 9
	testq	%rax, %rax
	je	LBB22_6
Ltmp377:
	.loc	11 0 0 is_stmt 0
	movq	%rax, %rbx
	.loc	11 176 13 is_stmt 1
	movq	$0, 8(%rax)
	movq	$0, (%rax)
	movq	%r14, 16(%rax)
	leaq	24(%rax), %rdi
	leaq	-2072(%rbp), %rsi
	movl	$2056, %edx
	callq	_memcpy
	movaps	LCPI22_0(%rip), %xmm0
	movups	%xmm0, 2080(%rbx)
	movq	$0, 2096(%rbx)
Ltmp378:
	.loc	18 113 15
	andq	$-8, %rbx
Ltmp379:
	.loc	15 2356 24
	movq	512(%r14), %rax
Ltmp380:
	.p2align	4, 0x90
LBB22_3:
	.loc	15 2342 24
	movq	%rax, (%rbx)
Ltmp381:
	.loc	15 2453 35
	lock		cmpxchgq	%rbx, 512(%r14)
Ltmp382:
	.loc	25 611 13
	jne	LBB22_3
Ltmp383:
	.loc	20 40 6
	movq	%rbx, %rax
Ltmp384:
	addq	$4112, %rsp
	popq	%rbx
	popq	%r14
	popq	%rbp
	retq
Ltmp385:
LBB22_5:
	.loc	13 1103 13
	ud2
Ltmp386:
LBB22_6:
	.loc	10 279 19
	movl	$2104, %edi
	movl	$8, %esi
	callq	__ZN5alloc5alloc18handle_alloc_error17h28974197717b8939E
Ltmp387:
Lfunc_end22:
	.cfi_endproc

	.globl	__ZN76_$LT$crossbeam_epoch..collector..Collector$u20$as$u20$core..clone..Clone$GT$5clone17h17879c149e7d12d8E
	.p2align	4, 0x90
__ZN76_$LT$crossbeam_epoch..collector..Collector$u20$as$u20$core..clone..Clone$GT$5clone17h17879c149e7d12d8E:
Lfunc_begin23:
	.loc	20 45 0
	.cfi_startproc
	pushq	%rbp
	.cfi_def_cfa_offset 16
	.cfi_offset %rbp, -16
	movq	%rsp, %rbp
	.cfi_def_cfa_register %rbp
Ltmp388:
	.loc	20 47 21 prologue_end
	movq	(%rdi), %rax
Ltmp389:
	.loc	15 2389 24
	lock		incq	(%rax)
Ltmp390:
	.loc	13 1102 9
	jle	LBB23_1
Ltmp391:
	.loc	20 49 6
	popq	%rbp
	retq
Ltmp392:
LBB23_1:
	.loc	13 1103 13
	ud2
Ltmp393:
Lfunc_end23:
	.cfi_endproc

	.globl	__ZN74_$LT$crossbeam_epoch..collector..Collector$u20$as$u20$core..fmt..Debug$GT$3fmt17h24d675e12290cf63E
	.p2align	4, 0x90
__ZN74_$LT$crossbeam_epoch..collector..Collector$u20$as$u20$core..fmt..Debug$GT$3fmt17h24d675e12290cf63E:
Lfunc_begin24:
	.loc	20 53 0
	.cfi_startproc
	pushq	%rbp
	.cfi_def_cfa_offset 16
	.cfi_offset %rbp, -16
	movq	%rsp, %rbp
	.cfi_def_cfa_register %rbp
	movq	%rsi, %rdi
Ltmp394:
	.loc	20 54 9 prologue_end
	leaq	L___unnamed_35(%rip), %rsi
	movl	$16, %edx
	popq	%rbp
	jmp	__ZN4core3fmt9Formatter3pad17h426409b23b74b394E
Ltmp395:
Lfunc_end24:
	.cfi_endproc

	.globl	__ZN78_$LT$crossbeam_epoch..collector..Collector$u20$as$u20$core..cmp..PartialEq$GT$2eq17h99feb47c693d01f5E
	.p2align	4, 0x90
__ZN78_$LT$crossbeam_epoch..collector..Collector$u20$as$u20$core..cmp..PartialEq$GT$2eq17h99feb47c693d01f5E:
Lfunc_begin25:
	.loc	20 60 0
	.cfi_startproc
	pushq	%rbp
	.cfi_def_cfa_offset 16
	.cfi_offset %rbp, -16
	movq	%rsp, %rbp
	.cfi_def_cfa_register %rbp
Ltmp396:
	.loc	20 61 9 prologue_end
	movq	(%rdi), %rax
Ltmp397:
	.loc	13 889 9
	cmpq	(%rsi), %rax
	sete	%al
Ltmp398:
	.loc	20 62 6
	popq	%rbp
	retq
Ltmp399:
Lfunc_end25:
	.cfi_endproc

	.globl	__ZN76_$LT$crossbeam_epoch..collector..LocalHandle$u20$as$u20$core..fmt..Debug$GT$3fmt17h0f156a6b8ca30f1eE
	.p2align	4, 0x90
__ZN76_$LT$crossbeam_epoch..collector..LocalHandle$u20$as$u20$core..fmt..Debug$GT$3fmt17h0f156a6b8ca30f1eE:
Lfunc_begin26:
	.loc	20 101 0
	.cfi_startproc
	pushq	%rbp
	.cfi_def_cfa_offset 16
	.cfi_offset %rbp, -16
	movq	%rsp, %rbp
	.cfi_def_cfa_register %rbp
	movq	%rsi, %rdi
Ltmp400:
	.loc	20 102 9 prologue_end
	leaq	l___unnamed_36(%rip), %rsi
	movl	$18, %edx
	popq	%rbp
	jmp	__ZN4core3fmt9Formatter3pad17h426409b23b74b394E
Ltmp401:
Lfunc_end26:
	.cfi_endproc

	.globl	__ZN72_$LT$crossbeam_epoch..deferred..Deferred$u20$as$u20$core..fmt..Debug$GT$3fmt17h35621c56a8bb1081E
	.p2align	4, 0x90
__ZN72_$LT$crossbeam_epoch..deferred..Deferred$u20$as$u20$core..fmt..Debug$GT$3fmt17h35621c56a8bb1081E:
Lfunc_begin27:
	.loc	35 28 0
	.cfi_startproc
	pushq	%rbp
	.cfi_def_cfa_offset 16
	.cfi_offset %rbp, -16
	movq	%rsp, %rbp
	.cfi_def_cfa_register %rbp
	movq	%rsi, %rdi
Ltmp402:
	.loc	35 29 9 prologue_end
	leaq	l___unnamed_27(%rip), %rsi
	movl	$15, %edx
	popq	%rbp
	jmp	__ZN4core3fmt9Formatter3pad17h426409b23b74b394E
Ltmp403:
Lfunc_end27:
	.cfi_endproc

	.p2align	4, 0x90
__ZN15crossbeam_epoch8deferred8Deferred3new4call17h68b10974f24ec0faE:
Lfunc_begin28:
	.loc	35 44 0
	.cfi_startproc
	pushq	%rbp
	.cfi_def_cfa_offset 16
	.cfi_offset %rbp, -16
	movq	%rsp, %rbp
	.cfi_def_cfa_register %rbp
Ltmp404:
	.loc	35 45 32 prologue_end
	movq	(%rdi), %rdi
Ltmp405:
	.loc	18 1077 13
	cmpq	$7, %rdi
	.loc	18 1076 9
	jbe	LBB28_1
Ltmp406:
	.loc	18 113 15
	andq	$-8, %rdi
Ltmp407:
	.loc	10 102 14
	movl	$2072, %esi
	movl	$8, %edx
	popq	%rbp
	jmp	___rust_dealloc
Ltmp408:
LBB28_1:
	.loc	18 1076 9
	leaq	l___unnamed_30(%rip), %rdi
Ltmp409:
	leaq	l___unnamed_31(%rip), %rdx
	movl	$39, %esi
	callq	__ZN3std9panicking11begin_panic17h4d3fcdc77d338693E
Ltmp410:
Lfunc_end28:
	.cfi_endproc

	.p2align	4, 0x90
__ZN15crossbeam_epoch8deferred8Deferred3new4call17h97a0ccaced4abd05E:
Lfunc_begin29:
	.loc	35 44 0
	.cfi_startproc
	pushq	%rbp
	.cfi_def_cfa_offset 16
	.cfi_offset %rbp, -16
	movq	%rsp, %rbp
	.cfi_def_cfa_register %rbp
Ltmp411:
	.loc	35 47 18 prologue_end
	popq	%rbp
	retq
Ltmp412:
Lfunc_end29:
	.cfi_endproc

	.p2align	4, 0x90
__ZN15crossbeam_epoch8deferred8Deferred3new4call17hfb7abf97e0e8a08bE:
Lfunc_begin30:
	.loc	35 44 0
	.cfi_startproc
	.cfi_personality 155, _rust_eh_personality
	.cfi_lsda 16, Lexception1
	pushq	%rbp
	.cfi_def_cfa_offset 16
	.cfi_offset %rbp, -16
	movq	%rsp, %rbp
	.cfi_def_cfa_register %rbp
Ltmp419:
	pushq	%r15
	pushq	%r14
	pushq	%r12
	pushq	%rbx
	andq	$-32, %rsp
	subq	$128, %rsp
	.cfi_offset %rbx, -48
	.cfi_offset %r12, -40
	.cfi_offset %r14, -32
	.cfi_offset %r15, -24
	.loc	35 45 32 prologue_end
	movq	(%rdi), %r12
Ltmp420:
	.loc	18 1077 13
	cmpq	$7, %r12
	.loc	18 1076 9
	jbe	LBB30_12
Ltmp421:
	.loc	18 113 15
	andq	$-8, %r12
Ltmp422:
	.loc	12 198 47
	movq	2072(%r12), %r14
Ltmp423:
	.loc	30 3179 19
	cmpq	$65, %r14
	.loc	30 3179 16 is_stmt 0
	jae	LBB30_2
Ltmp424:
	.loc	32 165 18 is_stmt 1
	shlq	$5, %r14
Ltmp425:
	.loc	30 3570 21
	je	LBB30_8
Ltmp426:
	.loc	35 0 0 is_stmt 0
	leaq	72(%rsp), %r15
	xorl	%ebx, %ebx
	leaq	__ZN15crossbeam_epoch8deferred8Deferred3new4call17h97a0ccaced4abd05E(%rip), %rax
	movq	%rax, %xmm0
	movdqa	%xmm0, 16(%rsp)
Ltmp427:
	.p2align	4, 0x90
LBB30_6:
	.loc	12 200 57 is_stmt 1
	movlps	16(%rsp), %xmm1
Ltmp428:
	.loc	7 2130 14
	movdqu	24(%r12,%rbx), %xmm2
	movups	40(%r12,%rbx), %xmm3
Ltmp429:
	.loc	7 2130 14 is_stmt 0
	movups	%xmm0, 40(%r12,%rbx)
	movups	%xmm1, 24(%r12,%rbx)
Ltmp430:
	.loc	7 0 14
	movaps	%xmm3, 32(%rsp)
Ltmp431:
	.loc	12 201 13 is_stmt 1
	movaps	%xmm3, 80(%rsp)
	movdqa	%xmm2, 64(%rsp)
	movdqa	%xmm2, 48(%rsp)
Ltmp432:
	.loc	35 76 20
	movq	%xmm2, %rax
Ltmp413:
Ltmp433:
	.loc	35 77 18
	movq	%r15, %rdi
	callq	*%rax
Ltmp434:
Ltmp414:
	.loc	30 3440 9
	addq	$32, %rbx
	cmpq	%rbx, %r14
	movaps	48(%rsp), %xmm1
	movaps	32(%rsp), %xmm0
	.loc	30 3570 21
	jne	LBB30_6
Ltmp435:
LBB30_8:
	.loc	10 102 14
	movl	$2104, %esi
	movl	$8, %edx
	movq	%r12, %rdi
	callq	___rust_dealloc
Ltmp436:
	.loc	35 47 18
	leaq	-32(%rbp), %rsp
	popq	%rbx
	popq	%r12
Ltmp437:
	popq	%r14
	popq	%r15
	popq	%rbp
	retq
Ltmp438:
LBB30_12:
	.loc	18 1076 9
	leaq	l___unnamed_30(%rip), %rdi
Ltmp439:
	leaq	l___unnamed_31(%rip), %rdx
	movl	$39, %esi
	callq	__ZN3std9panicking11begin_panic17h4d3fcdc77d338693E
Ltmp440:
LBB30_2:
Ltmp416:
	.loc	30 3180 13
	leaq	l___unnamed_29(%rip), %rdx
	movl	$64, %esi
	movq	%r14, %rdi
Ltmp441:
	callq	__ZN4core5slice24slice_end_index_len_fail17hea9e3399ed430f80E
Ltmp417:
Ltmp442:
	ud2
Ltmp443:
LBB30_10:
Ltmp418:
	.loc	30 0 13 is_stmt 0
	jmp	LBB30_11
Ltmp444:
LBB30_9:
Ltmp415:
LBB30_11:
	movq	%rax, %r14
	.loc	14 184 1 is_stmt 1
	movq	%r12, %rdi
	callq	__ZN5alloc5alloc8box_free17hf0568cbeb1f4d732E
	movq	%r14, %rdi
	callq	__Unwind_Resume
	ud2
Ltmp445:
Lfunc_end30:
	.cfi_endproc
	.section	__TEXT,__gcc_except_tab
	.p2align	2
GCC_except_table30:
Lexception1:
	.byte	255
	.byte	255
	.byte	1
	.uleb128 Lcst_end1-Lcst_begin1
Lcst_begin1:
	.uleb128 Ltmp413-Lfunc_begin30
	.uleb128 Ltmp414-Ltmp413
	.uleb128 Ltmp415-Lfunc_begin30
	.byte	0
	.uleb128 Ltmp414-Lfunc_begin30
	.uleb128 Ltmp416-Ltmp414
	.byte	0
	.byte	0
	.uleb128 Ltmp416-Lfunc_begin30
	.uleb128 Ltmp417-Ltmp416
	.uleb128 Ltmp418-Lfunc_begin30
	.byte	0
	.uleb128 Ltmp417-Lfunc_begin30
	.uleb128 Lfunc_end30-Ltmp417
	.byte	0
	.byte	0
Lcst_end1:
	.p2align	2

	.section	__TEXT,__text,regular,pure_instructions
	.globl	__ZN15crossbeam_epoch5guard5Guard5flush17h224d6d7f21335e5dE
	.p2align	4, 0x90
__ZN15crossbeam_epoch5guard5Guard5flush17h224d6d7f21335e5dE:
Lfunc_begin31:
	.loc	1 299 0
	.cfi_startproc
	pushq	%rbp
	.cfi_def_cfa_offset 16
	.cfi_offset %rbp, -16
	movq	%rsp, %rbp
	.cfi_def_cfa_register %rbp
Ltmp446:
	pushq	%r15
	pushq	%r14
	pushq	%r13
	pushq	%r12
	pushq	%rbx
	movl	$4120, %eax
	callq	___rust_probestack
	subq	%rax, %rsp
	.cfi_offset %rbx, -56
	.cfi_offset %r12, -48
	.cfi_offset %r13, -40
	.cfi_offset %r14, -32
	.cfi_offset %r15, -24
	.loc	1 300 39 prologue_end
	movq	(%rdi), %r15
	.loc	1 300 16 is_stmt 0
	testq	%r15, %r15
	je	LBB31_10
Ltmp447:
	.loc	1 0 16
	movq	%rdi, %r14
Ltmp448:
	.loc	12 79 9 is_stmt 1
	cmpq	$0, 2072(%r15)
Ltmp449:
	.loc	12 440 9
	je	LBB31_9
Ltmp450:
	.loc	12 441 13
	movq	16(%r15), %r12
Ltmp451:
	.loc	12 0 13 is_stmt 0
	leaq	-2096(%rbp), %rbx
Ltmp452:
	.loc	12 74 9 is_stmt 1
	movq	%rbx, %rdi
	callq	__ZN73_$LT$crossbeam_epoch..internal..Bag$u20$as$u20$core..default..Default$GT$7default17h1a50758c62180845E
Ltmp453:
	.loc	12 0 9 is_stmt 0
	leaq	56(%r15), %rax
	movq	$-32, %rcx
Ltmp454:
	.p2align	4, 0x90
LBB31_3:
	.loc	7 2130 14 is_stmt 1
	movups	(%rax,%rcx), %xmm0
	movups	16(%rax,%rcx), %xmm1
Ltmp455:
	.loc	7 2130 14 is_stmt 0
	movq	32(%rbx,%rcx), %rdx
	movq	40(%rbx,%rcx), %rsi
	movq	%rdx, (%rax,%rcx)
	movq	%rsi, 8(%rax,%rcx)
	movq	48(%rbx,%rcx), %rdx
	movq	%rdx, 16(%rax,%rcx)
	movq	56(%rbx,%rcx), %rdx
	movq	%rdx, 24(%rax,%rcx)
Ltmp456:
	.loc	7 2130 14
	movups	%xmm1, -2048(%rbp,%rcx)
	movups	%xmm0, -2064(%rbp,%rcx)
Ltmp457:
	.loc	7 2130 14
	movups	32(%rax,%rcx), %xmm0
	movups	48(%rax,%rcx), %xmm1
Ltmp458:
	.loc	7 2130 14
	movq	64(%rbx,%rcx), %rdx
	movq	72(%rbx,%rcx), %rsi
	movq	%rdx, 32(%rax,%rcx)
	movq	%rsi, 40(%rax,%rcx)
	movq	80(%rbx,%rcx), %rdx
	movq	%rdx, 48(%rax,%rcx)
	movq	88(%rbx,%rcx), %rdx
	movq	%rdx, 56(%rax,%rcx)
Ltmp459:
	.loc	7 2130 14
	movups	%xmm1, -2016(%rbp,%rcx)
	movups	%xmm0, -2032(%rbp,%rcx)
Ltmp460:
	.loc	14 484 11 is_stmt 1
	addq	$64, %rcx
	cmpq	$1993, %rcx
	.loc	14 484 5 is_stmt 0
	jb	LBB31_3
Ltmp461:
	.loc	7 2130 14 is_stmt 1
	movq	2072(%r15), %rax
Ltmp462:
	.loc	7 2130 14 is_stmt 0
	movq	-48(%rbp), %rcx
	movq	%rcx, 2072(%r15)
Ltmp463:
	.loc	7 2130 14
	movq	%rax, -48(%rbp)
	leaq	-4152(%rbp), %rbx
	leaq	-2096(%rbp), %rsi
Ltmp464:
	.loc	17 816 5 is_stmt 1
	movl	$2056, %edx
	movq	%rbx, %rdi
	callq	_memcpy
Ltmp465:
	.loc	15 2678 23
	mfence
Ltmp466:
	.loc	15 2356 24
	movq	384(%r12), %r13
Ltmp467:
	.loc	15 0 24 is_stmt 0
	leaq	-2096(%rbp), %rdi
Ltmp468:
	.loc	18 664 29 is_stmt 1
	movl	$2056, %edx
	movq	%rbx, %rsi
	callq	_memcpy
Ltmp469:
	.loc	10 80 14
	movl	$2072, %edi
	movl	$8, %esi
	callq	___rust_alloc
Ltmp470:
	.loc	10 278 9
	testq	%rax, %rax
Ltmp471:
	je	LBB31_11
Ltmp472:
	.loc	19 0 0 is_stmt 0
	movq	%rax, %rbx
Ltmp473:
	.loc	11 176 13 is_stmt 1
	movq	%r13, (%rax)
	movq	%rax, %rdi
	addq	$8, %rdi
	leaq	-2096(%rbp), %rsi
	movl	$2056, %edx
	callq	_memcpy
	movq	$0, 2064(%rbx)
Ltmp474:
	.loc	11 0 13 is_stmt 0
	jmp	LBB31_6
Ltmp475:
	.p2align	4, 0x90
LBB31_12:
	.loc	15 2424 35 is_stmt 1
	movq	%rcx, %rax
	lock		cmpxchgq	%rsi, 256(%r12)
Ltmp476:
LBB31_6:
	.loc	15 2355 24
	movq	256(%r12), %rcx
Ltmp477:
	.loc	18 113 15
	movq	%rcx, %rdx
	andq	$-8, %rdx
Ltmp478:
	.loc	15 2355 24
	movq	2064(%rdx), %rsi
Ltmp479:
	.loc	8 185 25
	cmpq	$7, %rsi
Ltmp480:
	.loc	19 71 9
	ja	LBB31_12
Ltmp481:
	.loc	15 2424 35
	xorl	%eax, %eax
	lock		cmpxchgq	%rbx, 2064(%rdx)
Ltmp482:
	.loc	25 611 13
	jne	LBB31_6
Ltmp483:
	.loc	15 2424 35
	movq	%rcx, %rax
	lock		cmpxchgq	%rbx, 256(%r12)
Ltmp484:
LBB31_9:
	.loc	12 444 9
	movq	16(%r15), %rdi
Ltmp485:
	.loc	13 1116 9
	subq	$-128, %rdi
Ltmp486:
	.loc	12 444 9
	movq	%r14, %rsi
	addq	$4120, %rsp
	popq	%rbx
	popq	%r12
	popq	%r13
	popq	%r14
Ltmp487:
	popq	%r15
Ltmp488:
	popq	%rbp
	jmp	__ZN15crossbeam_epoch8internal6Global7collect17hc35bfd5e62aae973E
Ltmp489:
LBB31_10:
	.loc	1 303 6
	addq	$4120, %rsp
	popq	%rbx
	popq	%r12
	popq	%r13
	popq	%r14
	popq	%r15
	popq	%rbp
	retq
Ltmp490:
LBB31_11:
	.loc	10 279 19
	movl	$2072, %edi
	movl	$8, %esi
	callq	__ZN5alloc5alloc18handle_alloc_error17h28974197717b8939E
Ltmp491:
Lfunc_end31:
	.cfi_endproc

	.globl	__ZN15crossbeam_epoch5guard5Guard5repin17h7f6cff610d2bdcd6E
	.p2align	4, 0x90
__ZN15crossbeam_epoch5guard5Guard5repin17h7f6cff610d2bdcd6E:
Lfunc_begin32:
	.loc	1 336 0
	.cfi_startproc
	pushq	%rbp
	.cfi_def_cfa_offset 16
	.cfi_offset %rbp, -16
	movq	%rsp, %rbp
	.cfi_def_cfa_register %rbp
Ltmp492:
	.loc	1 337 39 prologue_end
	movq	(%rdi), %rax
	.loc	1 337 16 is_stmt 0
	testq	%rax, %rax
	je	LBB32_4
Ltmp493:
	.loc	12 525 12 is_stmt 1
	cmpq	$1, 2080(%rax)
	.loc	12 525 9 is_stmt 0
	jne	LBB32_4
Ltmp494:
	.loc	15 2356 24 is_stmt 1
	movq	8(%rax), %rdx
Ltmp495:
	.loc	12 527 32
	movq	16(%rax), %rcx
Ltmp496:
	.loc	15 2356 24
	movq	384(%rcx), %rcx
Ltmp497:
	.loc	33 50 19
	orq	$1, %rcx
Ltmp498:
	.loc	33 19 5
	cmpq	%rcx, %rdx
Ltmp499:
	.loc	12 530 13
	je	LBB32_4
Ltmp500:
	.loc	15 2341 24
	movq	%rcx, 8(%rax)
Ltmp501:
LBB32_4:
	.loc	1 340 6
	popq	%rbp
	retq
Ltmp502:
Lfunc_end32:
	.cfi_endproc

	.globl	__ZN15crossbeam_epoch5guard5Guard9collector17h24956bd5f6cce5c1E
	.p2align	4, 0x90
__ZN15crossbeam_epoch5guard5Guard9collector17h24956bd5f6cce5c1E:
Lfunc_begin33:
	.loc	1 414 0
	.cfi_startproc
	pushq	%rbp
	.cfi_def_cfa_offset 16
	.cfi_offset %rbp, -16
	movq	%rsp, %rbp
	.cfi_def_cfa_register %rbp
Ltmp503:
	.loc	1 415 18 prologue_end
	movq	(%rdi), %rcx
Ltmp504:
	.loc	8 456 13
	leaq	16(%rcx), %rax
	testq	%rcx, %rcx
	cmoveq	%rcx, %rax
Ltmp505:
	.loc	1 416 6
	popq	%rbp
	retq
Ltmp506:
Lfunc_end33:
	.cfi_endproc

	.globl	__ZN66_$LT$crossbeam_epoch..guard..Guard$u20$as$u20$core..fmt..Debug$GT$3fmt17hbac83db6226f89edE
	.p2align	4, 0x90
__ZN66_$LT$crossbeam_epoch..guard..Guard$u20$as$u20$core..fmt..Debug$GT$3fmt17hbac83db6226f89edE:
Lfunc_begin34:
	.loc	1 429 0
	.cfi_startproc
	pushq	%rbp
	.cfi_def_cfa_offset 16
	.cfi_offset %rbp, -16
	movq	%rsp, %rbp
	.cfi_def_cfa_register %rbp
	movq	%rsi, %rdi
Ltmp507:
	.loc	1 430 9 prologue_end
	leaq	l___unnamed_37(%rip), %rsi
	movl	$12, %edx
	popq	%rbp
	jmp	__ZN4core3fmt9Formatter3pad17h426409b23b74b394E
Ltmp508:
Lfunc_end34:
	.cfi_endproc

	.globl	__ZN73_$LT$crossbeam_epoch..internal..Bag$u20$as$u20$core..default..Default$GT$7default17h1a50758c62180845E
	.p2align	4, 0x90
__ZN73_$LT$crossbeam_epoch..internal..Bag$u20$as$u20$core..default..Default$GT$7default17h1a50758c62180845E:
Lfunc_begin35:
	.loc	12 110 0
	.cfi_startproc
	pushq	%rbp
	.cfi_def_cfa_offset 16
	.cfi_offset %rbp, -16
	movq	%rsp, %rbp
	.cfi_def_cfa_register %rbp
	subq	$1536, %rsp
	movq	%rdi, %rax
Ltmp509:
	.loc	12 115 24 prologue_end
	movq	-680(%rbp), %rcx
	movq	%rcx, -656(%rbp)
	movq	-696(%rbp), %rcx
	movq	-688(%rbp), %rdx
	movq	%rdx, -664(%rbp)
	movq	%rcx, -672(%rbp)
	movq	-704(%rbp), %rcx
	movq	%rcx, -632(%rbp)
	movq	-720(%rbp), %rcx
	movq	-712(%rbp), %rdx
	movq	%rdx, -640(%rbp)
	movq	%rcx, -648(%rbp)
	movq	-728(%rbp), %rcx
	movq	%rcx, -608(%rbp)
	movq	-744(%rbp), %rcx
	movq	-736(%rbp), %rdx
	movq	%rdx, -616(%rbp)
	movq	%rcx, -624(%rbp)
	movq	-752(%rbp), %rcx
	movq	%rcx, -584(%rbp)
	movq	-768(%rbp), %rcx
	movq	-760(%rbp), %rdx
	movq	%rdx, -592(%rbp)
	movq	%rcx, -600(%rbp)
	movq	-776(%rbp), %rcx
	movq	%rcx, -560(%rbp)
	movq	-792(%rbp), %rcx
	movq	-784(%rbp), %rdx
	movq	%rdx, -568(%rbp)
	movq	%rcx, -576(%rbp)
	movq	-800(%rbp), %rcx
	movq	%rcx, -536(%rbp)
	movq	-816(%rbp), %rcx
	movq	-808(%rbp), %rdx
	movq	%rdx, -544(%rbp)
	movq	%rcx, -552(%rbp)
	movq	-824(%rbp), %rcx
	movq	%rcx, -512(%rbp)
	movq	-840(%rbp), %rcx
	movq	-832(%rbp), %rdx
	movq	%rdx, -520(%rbp)
	movq	%rcx, -528(%rbp)
	movq	-848(%rbp), %rcx
	movq	%rcx, -488(%rbp)
	movq	-864(%rbp), %rcx
	movq	-856(%rbp), %rdx
	movq	%rdx, -496(%rbp)
	movq	%rcx, -504(%rbp)
	movq	-872(%rbp), %rcx
	movq	%rcx, -464(%rbp)
	movq	-888(%rbp), %rcx
	movq	-880(%rbp), %rdx
	movq	%rdx, -472(%rbp)
	movq	%rcx, -480(%rbp)
	movq	-896(%rbp), %rcx
	movq	%rcx, -440(%rbp)
	movq	-912(%rbp), %rcx
	movq	-904(%rbp), %rdx
	movq	%rdx, -448(%rbp)
	movq	%rcx, -456(%rbp)
	movq	-920(%rbp), %rcx
	movq	%rcx, -416(%rbp)
	movq	-936(%rbp), %rcx
	movq	-928(%rbp), %rdx
	movq	%rdx, -424(%rbp)
	movq	%rcx, -432(%rbp)
	movq	-944(%rbp), %rcx
	movq	%rcx, -392(%rbp)
	movq	-960(%rbp), %rcx
	movq	-952(%rbp), %rdx
	movq	%rdx, -400(%rbp)
	movq	%rcx, -408(%rbp)
	movq	-968(%rbp), %rcx
	movq	%rcx, -368(%rbp)
	movq	-984(%rbp), %rcx
	movq	-976(%rbp), %rdx
	movq	%rdx, -376(%rbp)
	movq	%rcx, -384(%rbp)
	movq	-992(%rbp), %rcx
	movq	%rcx, -344(%rbp)
	movq	-1008(%rbp), %rcx
	movq	-1000(%rbp), %rdx
	movq	%rdx, -352(%rbp)
	movq	%rcx, -360(%rbp)
	movq	-1016(%rbp), %rcx
	movq	%rcx, -320(%rbp)
	movq	-1032(%rbp), %rcx
	movq	-1024(%rbp), %rdx
	movq	%rdx, -328(%rbp)
	movq	%rcx, -336(%rbp)
	movq	-1040(%rbp), %rcx
	movq	%rcx, -296(%rbp)
	movq	-1056(%rbp), %rcx
	movq	-1048(%rbp), %rdx
	movq	%rdx, -304(%rbp)
	movq	%rcx, -312(%rbp)
	movq	-1064(%rbp), %rcx
	movq	%rcx, -272(%rbp)
	movq	-1080(%rbp), %rcx
	movq	-1072(%rbp), %rdx
	movq	%rdx, -280(%rbp)
	movq	%rcx, -288(%rbp)
	movq	-1088(%rbp), %rcx
	movq	%rcx, -248(%rbp)
	movq	-1104(%rbp), %rcx
	movq	-1096(%rbp), %rdx
	movq	%rdx, -256(%rbp)
	movq	%rcx, -264(%rbp)
	movq	-1112(%rbp), %rcx
	movq	%rcx, -224(%rbp)
	movq	-1128(%rbp), %rcx
	movq	-1120(%rbp), %rdx
	movq	%rdx, -232(%rbp)
	movq	%rcx, -240(%rbp)
	movq	-1136(%rbp), %rcx
	movq	%rcx, -200(%rbp)
	movq	-1152(%rbp), %rcx
	movq	-1144(%rbp), %rdx
	movq	%rdx, -208(%rbp)
	movq	%rcx, -216(%rbp)
	movq	-1160(%rbp), %rcx
	movq	%rcx, -176(%rbp)
	movq	-1176(%rbp), %rcx
	movq	-1168(%rbp), %rdx
	movq	%rdx, -184(%rbp)
	movq	%rcx, -192(%rbp)
	movq	-1184(%rbp), %rcx
	movq	%rcx, -152(%rbp)
	movq	-1200(%rbp), %rcx
	movq	-1192(%rbp), %rdx
	movq	%rdx, -160(%rbp)
	movq	%rcx, -168(%rbp)
	movq	-1208(%rbp), %rcx
	movq	%rcx, -128(%rbp)
	movq	-1224(%rbp), %rcx
	movq	-1216(%rbp), %rdx
	movq	%rdx, -136(%rbp)
	movq	%rcx, -144(%rbp)
	movq	-1232(%rbp), %rcx
	movq	%rcx, -104(%rbp)
	movq	-1248(%rbp), %rcx
	movq	-1240(%rbp), %rdx
	movq	%rdx, -112(%rbp)
	movq	%rcx, -120(%rbp)
	movq	-1256(%rbp), %rcx
	movq	%rcx, -80(%rbp)
	movq	-1272(%rbp), %rcx
	movq	-1264(%rbp), %rdx
	movq	%rdx, -88(%rbp)
	movq	%rcx, -96(%rbp)
	movq	-1280(%rbp), %rcx
	movq	%rcx, -56(%rbp)
	movq	-1296(%rbp), %rcx
	movq	-1288(%rbp), %rdx
	movq	%rdx, -64(%rbp)
	movq	%rcx, -72(%rbp)
	movq	-1304(%rbp), %rcx
	movq	%rcx, -32(%rbp)
	movq	-1320(%rbp), %rcx
	movq	-1312(%rbp), %rdx
	movq	%rdx, -40(%rbp)
	movq	%rcx, -48(%rbp)
	movq	-1328(%rbp), %rcx
	movq	%rcx, -8(%rbp)
	movq	-1344(%rbp), %rcx
	movq	-1336(%rbp), %rdx
	movq	%rdx, -16(%rbp)
	movq	%rcx, -24(%rbp)
	.loc	12 113 16
	leaq	__ZN15crossbeam_epoch8deferred8Deferred3new4call17h97a0ccaced4abd05E(%rip), %rcx
	movq	%rcx, (%rdi)
	movq	-672(%rbp), %rdx
	movq	-664(%rbp), %rsi
	movq	%rdx, 8(%rdi)
	movq	%rsi, 16(%rdi)
	movq	-656(%rbp), %rdx
	movq	%rdx, 24(%rdi)
	movq	%rcx, 32(%rdi)
	movq	-648(%rbp), %rdx
	movq	-640(%rbp), %rsi
	movq	%rdx, 40(%rdi)
	movq	%rsi, 48(%rdi)
	movq	-632(%rbp), %rdx
	movq	%rdx, 56(%rdi)
	movq	%rcx, 64(%rdi)
	movq	-624(%rbp), %rdx
	movq	-616(%rbp), %rsi
	movq	%rdx, 72(%rdi)
	movq	%rsi, 80(%rdi)
	movq	-608(%rbp), %rdx
	movq	%rdx, 88(%rdi)
	movq	%rcx, 96(%rdi)
	movq	-600(%rbp), %rdx
	movq	-592(%rbp), %rsi
	movq	%rdx, 104(%rdi)
	movq	%rsi, 112(%rdi)
	movq	-584(%rbp), %rdx
	movq	%rdx, 120(%rdi)
	movq	%rcx, 128(%rdi)
	movq	-560(%rbp), %rdx
	movq	%rdx, 152(%rdi)
	movq	-576(%rbp), %rdx
	movq	-568(%rbp), %rsi
	movq	%rsi, 144(%rdi)
	movq	%rdx, 136(%rdi)
	movq	%rcx, 160(%rdi)
	movq	-536(%rbp), %rdx
	movq	%rdx, 184(%rdi)
	movq	-552(%rbp), %rdx
	movq	-544(%rbp), %rsi
	movq	%rsi, 176(%rdi)
	movq	%rdx, 168(%rdi)
	movq	%rcx, 192(%rdi)
	movq	-512(%rbp), %rdx
	movq	%rdx, 216(%rdi)
	movq	-528(%rbp), %rdx
	movq	-520(%rbp), %rsi
	movq	%rsi, 208(%rdi)
	movq	%rdx, 200(%rdi)
	movq	%rcx, 224(%rdi)
	movq	-488(%rbp), %rdx
	movq	%rdx, 248(%rdi)
	movq	-504(%rbp), %rdx
	movq	-496(%rbp), %rsi
	movq	%rsi, 240(%rdi)
	movq	%rdx, 232(%rdi)
	movq	%rcx, 256(%rdi)
	movq	-464(%rbp), %rdx
	movq	%rdx, 280(%rdi)
	movq	-480(%rbp), %rdx
	movq	-472(%rbp), %rsi
	movq	%rsi, 272(%rdi)
	movq	%rdx, 264(%rdi)
	movq	%rcx, 288(%rdi)
	movq	-440(%rbp), %rdx
	movq	%rdx, 312(%rdi)
	movq	-456(%rbp), %rdx
	movq	-448(%rbp), %rsi
	movq	%rsi, 304(%rdi)
	movq	%rdx, 296(%rdi)
	movq	%rcx, 320(%rdi)
	movq	-416(%rbp), %rdx
	movq	%rdx, 344(%rdi)
	movq	-432(%rbp), %rdx
	movq	-424(%rbp), %rsi
	movq	%rsi, 336(%rdi)
	movq	%rdx, 328(%rdi)
	movq	%rcx, 352(%rdi)
	movq	-392(%rbp), %rdx
	movq	%rdx, 376(%rdi)
	movq	-408(%rbp), %rdx
	movq	-400(%rbp), %rsi
	movq	%rsi, 368(%rdi)
	movq	%rdx, 360(%rdi)
	movq	%rcx, 384(%rdi)
	movq	-368(%rbp), %rdx
	movq	%rdx, 408(%rdi)
	movq	-384(%rbp), %rdx
	movq	-376(%rbp), %rsi
	movq	%rsi, 400(%rdi)
	movq	%rdx, 392(%rdi)
	movq	%rcx, 416(%rdi)
	movq	-344(%rbp), %rdx
	movq	%rdx, 440(%rdi)
	movq	-360(%rbp), %rdx
	movq	-352(%rbp), %rsi
	movq	%rsi, 432(%rdi)
	movq	%rdx, 424(%rdi)
	movq	%rcx, 448(%rdi)
	movq	-320(%rbp), %rdx
	movq	%rdx, 472(%rdi)
	movq	-336(%rbp), %rdx
	movq	-328(%rbp), %rsi
	movq	%rsi, 464(%rdi)
	movq	%rdx, 456(%rdi)
	movq	%rcx, 480(%rdi)
	movq	-296(%rbp), %rdx
	movq	%rdx, 504(%rdi)
	movq	-312(%rbp), %rdx
	movq	-304(%rbp), %rsi
	movq	%rsi, 496(%rdi)
	movq	%rdx, 488(%rdi)
	movq	%rcx, 512(%rdi)
	movq	-272(%rbp), %rdx
	movq	%rdx, 536(%rdi)
	movq	-288(%rbp), %rdx
	movq	-280(%rbp), %rsi
	movq	%rsi, 528(%rdi)
	movq	%rdx, 520(%rdi)
	movq	%rcx, 544(%rdi)
	movq	-248(%rbp), %rdx
	movq	%rdx, 568(%rdi)
	movq	-264(%rbp), %rdx
	movq	-256(%rbp), %rsi
	movq	%rsi, 560(%rdi)
	movq	%rdx, 552(%rdi)
	movq	%rcx, 576(%rdi)
	movq	-224(%rbp), %rdx
	movq	%rdx, 600(%rdi)
	movq	-240(%rbp), %rdx
	movq	-232(%rbp), %rsi
	movq	%rsi, 592(%rdi)
	movq	%rdx, 584(%rdi)
	movq	%rcx, 608(%rdi)
	movq	-200(%rbp), %rdx
	movq	%rdx, 632(%rdi)
	movq	-216(%rbp), %rdx
	movq	-208(%rbp), %rsi
	movq	%rsi, 624(%rdi)
	movq	%rdx, 616(%rdi)
	movq	%rcx, 640(%rdi)
	movq	-176(%rbp), %rdx
	movq	%rdx, 664(%rdi)
	movq	-192(%rbp), %rdx
	movq	-184(%rbp), %rsi
	movq	%rsi, 656(%rdi)
	movq	%rdx, 648(%rdi)
	movq	%rcx, 672(%rdi)
	movq	-152(%rbp), %rdx
	movq	%rdx, 696(%rdi)
	movq	-168(%rbp), %rdx
	movq	-160(%rbp), %rsi
	movq	%rsi, 688(%rdi)
	movq	%rdx, 680(%rdi)
	movq	%rcx, 704(%rdi)
	movq	-128(%rbp), %rdx
	movq	%rdx, 728(%rdi)
	movq	-144(%rbp), %rdx
	movq	-136(%rbp), %rsi
	movq	%rsi, 720(%rdi)
	movq	%rdx, 712(%rdi)
	movq	%rcx, 736(%rdi)
	movq	-104(%rbp), %rdx
	movq	%rdx, 760(%rdi)
	movq	-120(%rbp), %rdx
	movq	-112(%rbp), %rsi
	movq	%rsi, 752(%rdi)
	movq	%rdx, 744(%rdi)
	movq	%rcx, 768(%rdi)
	movq	-80(%rbp), %rdx
	movq	%rdx, 792(%rdi)
	movq	-96(%rbp), %rdx
	movq	-88(%rbp), %rsi
	movq	%rsi, 784(%rdi)
	movq	%rdx, 776(%rdi)
	movq	%rcx, 800(%rdi)
	movq	-56(%rbp), %rdx
	movq	%rdx, 824(%rdi)
	movq	-72(%rbp), %rdx
	movq	-64(%rbp), %rsi
	movq	%rsi, 816(%rdi)
	movq	%rdx, 808(%rdi)
	movq	%rcx, 832(%rdi)
	movq	-32(%rbp), %rdx
	movq	%rdx, 856(%rdi)
	movq	-48(%rbp), %rdx
	movq	-40(%rbp), %rsi
	movq	%rsi, 848(%rdi)
	movq	%rdx, 840(%rdi)
	movq	%rcx, 864(%rdi)
	movq	-8(%rbp), %rdx
	movq	%rdx, 888(%rdi)
	movq	-24(%rbp), %rdx
	movq	-16(%rbp), %rsi
	movq	%rsi, 880(%rdi)
	movq	%rdx, 872(%rdi)
	movq	%rcx, 896(%rdi)
	movq	-1328(%rbp), %rdx
	movq	%rdx, 920(%rdi)
	movq	-1344(%rbp), %rdx
	movq	-1336(%rbp), %rsi
	movq	%rsi, 912(%rdi)
	movq	%rdx, 904(%rdi)
	movq	%rcx, 928(%rdi)
	movq	-1304(%rbp), %rdx
	movq	%rdx, 952(%rdi)
	movq	-1320(%rbp), %rdx
	movq	-1312(%rbp), %rsi
	movq	%rsi, 944(%rdi)
	movq	%rdx, 936(%rdi)
	movq	%rcx, 960(%rdi)
	movq	-1280(%rbp), %rdx
	movq	%rdx, 984(%rdi)
	movq	-1296(%rbp), %rdx
	movq	-1288(%rbp), %rsi
	movq	%rsi, 976(%rdi)
	movq	%rdx, 968(%rdi)
	movq	%rcx, 992(%rdi)
	movq	-1256(%rbp), %rdx
	movq	%rdx, 1016(%rdi)
	movq	-1272(%rbp), %rdx
	movq	-1264(%rbp), %rsi
	movq	%rsi, 1008(%rdi)
	movq	%rdx, 1000(%rdi)
	movq	%rcx, 1024(%rdi)
	movq	-1232(%rbp), %rdx
	movq	%rdx, 1048(%rdi)
	movq	-1248(%rbp), %rdx
	movq	-1240(%rbp), %rsi
	movq	%rsi, 1040(%rdi)
	movq	%rdx, 1032(%rdi)
	movq	%rcx, 1056(%rdi)
	movq	-1208(%rbp), %rdx
	movq	%rdx, 1080(%rdi)
	movq	-1224(%rbp), %rdx
	movq	-1216(%rbp), %rsi
	movq	%rsi, 1072(%rdi)
	movq	%rdx, 1064(%rdi)
	movq	%rcx, 1088(%rdi)
	movq	-1184(%rbp), %rdx
	movq	%rdx, 1112(%rdi)
	movq	-1200(%rbp), %rdx
	movq	-1192(%rbp), %rsi
	movq	%rsi, 1104(%rdi)
	movq	%rdx, 1096(%rdi)
	movq	%rcx, 1120(%rdi)
	movq	-1160(%rbp), %rdx
	movq	%rdx, 1144(%rdi)
	movq	-1176(%rbp), %rdx
	movq	-1168(%rbp), %rsi
	movq	%rsi, 1136(%rdi)
	movq	%rdx, 1128(%rdi)
	movq	%rcx, 1152(%rdi)
	movq	-1136(%rbp), %rdx
	movq	%rdx, 1176(%rdi)
	movq	-1152(%rbp), %rdx
	movq	-1144(%rbp), %rsi
	movq	%rsi, 1168(%rdi)
	movq	%rdx, 1160(%rdi)
	movq	%rcx, 1184(%rdi)
	movq	-1112(%rbp), %rdx
	movq	%rdx, 1208(%rdi)
	movq	-1128(%rbp), %rdx
	movq	-1120(%rbp), %rsi
	movq	%rsi, 1200(%rdi)
	movq	%rdx, 1192(%rdi)
	movq	%rcx, 1216(%rdi)
	movq	-1088(%rbp), %rdx
	movq	%rdx, 1240(%rdi)
	movq	-1104(%rbp), %rdx
	movq	-1096(%rbp), %rsi
	movq	%rsi, 1232(%rdi)
	movq	%rdx, 1224(%rdi)
	movq	%rcx, 1248(%rdi)
	movq	-1064(%rbp), %rdx
	movq	%rdx, 1272(%rdi)
	movq	-1080(%rbp), %rdx
	movq	-1072(%rbp), %rsi
	movq	%rsi, 1264(%rdi)
	movq	%rdx, 1256(%rdi)
	movq	%rcx, 1280(%rdi)
	movq	-1040(%rbp), %rdx
	movq	%rdx, 1304(%rdi)
	movq	-1056(%rbp), %rdx
	movq	-1048(%rbp), %rsi
	movq	%rsi, 1296(%rdi)
	movq	%rdx, 1288(%rdi)
	movq	%rcx, 1312(%rdi)
	movq	-1016(%rbp), %rdx
	movq	%rdx, 1336(%rdi)
	movq	-1032(%rbp), %rdx
	movq	-1024(%rbp), %rsi
	movq	%rsi, 1328(%rdi)
	movq	%rdx, 1320(%rdi)
	movq	%rcx, 1344(%rdi)
	movq	-992(%rbp), %rdx
	movq	%rdx, 1368(%rdi)
	movq	-1008(%rbp), %rdx
	movq	-1000(%rbp), %rsi
	movq	%rsi, 1360(%rdi)
	movq	%rdx, 1352(%rdi)
	movq	%rcx, 1376(%rdi)
	movq	-968(%rbp), %rdx
	movq	%rdx, 1400(%rdi)
	movq	-984(%rbp), %rdx
	movq	-976(%rbp), %rsi
	movq	%rsi, 1392(%rdi)
	movq	%rdx, 1384(%rdi)
	movq	%rcx, 1408(%rdi)
	movq	-944(%rbp), %rdx
	movq	%rdx, 1432(%rdi)
	movq	-960(%rbp), %rdx
	movq	-952(%rbp), %rsi
	movq	%rsi, 1424(%rdi)
	movq	%rdx, 1416(%rdi)
	movq	%rcx, 1440(%rdi)
	movq	-920(%rbp), %rdx
	movq	%rdx, 1464(%rdi)
	movq	-936(%rbp), %rdx
	movq	-928(%rbp), %rsi
	movq	%rsi, 1456(%rdi)
	movq	%rdx, 1448(%rdi)
	movq	%rcx, 1472(%rdi)
	movq	-896(%rbp), %rdx
	movq	%rdx, 1496(%rdi)
	movq	-912(%rbp), %rdx
	movq	-904(%rbp), %rsi
	movq	%rsi, 1488(%rdi)
	movq	%rdx, 1480(%rdi)
	movq	%rcx, 1504(%rdi)
	movq	-872(%rbp), %rdx
	movq	%rdx, 1528(%rdi)
	movq	-888(%rbp), %rdx
	movq	-880(%rbp), %rsi
	movq	%rsi, 1520(%rdi)
	movq	%rdx, 1512(%rdi)
	movq	%rcx, 1536(%rdi)
	movq	-848(%rbp), %rdx
	movq	%rdx, 1560(%rdi)
	movq	-864(%rbp), %rdx
	movq	-856(%rbp), %rsi
	movq	%rsi, 1552(%rdi)
	movq	%rdx, 1544(%rdi)
	movq	%rcx, 1568(%rdi)
	movq	-824(%rbp), %rdx
	movq	%rdx, 1592(%rdi)
	movq	-840(%rbp), %rdx
	movq	-832(%rbp), %rsi
	movq	%rsi, 1584(%rdi)
	movq	%rdx, 1576(%rdi)
	movq	%rcx, 1600(%rdi)
	movq	-800(%rbp), %rdx
	movq	%rdx, 1624(%rdi)
	movq	-816(%rbp), %rdx
	movq	-808(%rbp), %rsi
	movq	%rsi, 1616(%rdi)
	movq	%rdx, 1608(%rdi)
	movq	%rcx, 1632(%rdi)
	movq	-776(%rbp), %rdx
	movq	%rdx, 1656(%rdi)
	movq	-792(%rbp), %rdx
	movq	-784(%rbp), %rsi
	movq	%rsi, 1648(%rdi)
	movq	%rdx, 1640(%rdi)
	movq	%rcx, 1664(%rdi)
	movq	-752(%rbp), %rdx
	movq	%rdx, 1688(%rdi)
	movq	-768(%rbp), %rdx
	movq	-760(%rbp), %rsi
	movq	%rsi, 1680(%rdi)
	movq	%rdx, 1672(%rdi)
	movq	%rcx, 1696(%rdi)
	movq	-728(%rbp), %rdx
	movq	%rdx, 1720(%rdi)
	movq	-744(%rbp), %rdx
	movq	-736(%rbp), %rsi
	movq	%rsi, 1712(%rdi)
	movq	%rdx, 1704(%rdi)
	movq	%rcx, 1728(%rdi)
	movq	-704(%rbp), %rdx
	movq	%rdx, 1752(%rdi)
	movq	-720(%rbp), %rdx
	movq	-712(%rbp), %rsi
	movq	%rsi, 1744(%rdi)
	movq	%rdx, 1736(%rdi)
	movq	%rcx, 1760(%rdi)
	movq	-680(%rbp), %rdx
	movq	%rdx, 1784(%rdi)
	movq	-696(%rbp), %rdx
	movq	-688(%rbp), %rsi
	movq	%rsi, 1776(%rdi)
	movq	%rdx, 1768(%rdi)
	movq	%rcx, 1792(%rdi)
	movq	-1520(%rbp), %rdx
	movq	%rdx, 1816(%rdi)
	movq	-1536(%rbp), %rdx
	movq	-1528(%rbp), %rsi
	movq	%rsi, 1808(%rdi)
	movq	%rdx, 1800(%rdi)
	movq	%rcx, 1824(%rdi)
	movq	-1496(%rbp), %rdx
	movq	%rdx, 1848(%rdi)
	movq	-1512(%rbp), %rdx
	movq	-1504(%rbp), %rsi
	movq	%rsi, 1840(%rdi)
	movq	%rdx, 1832(%rdi)
	movq	%rcx, 1856(%rdi)
	movq	-1472(%rbp), %rdx
	movq	%rdx, 1880(%rdi)
	movq	-1488(%rbp), %rdx
	movq	-1480(%rbp), %rsi
	movq	%rsi, 1872(%rdi)
	movq	%rdx, 1864(%rdi)
	movq	%rcx, 1888(%rdi)
	movq	-1448(%rbp), %rdx
	movq	%rdx, 1912(%rdi)
	movq	-1464(%rbp), %rdx
	movq	-1456(%rbp), %rsi
	movq	%rsi, 1904(%rdi)
	movq	%rdx, 1896(%rdi)
	movq	%rcx, 1920(%rdi)
	movq	-1424(%rbp), %rdx
	movq	%rdx, 1944(%rdi)
	movq	-1440(%rbp), %rdx
	movq	-1432(%rbp), %rsi
	movq	%rsi, 1936(%rdi)
	movq	%rdx, 1928(%rdi)
	movq	%rcx, 1952(%rdi)
	movq	-1400(%rbp), %rdx
	movq	%rdx, 1976(%rdi)
	movq	-1416(%rbp), %rdx
	movq	-1408(%rbp), %rsi
	movq	%rsi, 1968(%rdi)
	movq	%rdx, 1960(%rdi)
	movq	%rcx, 1984(%rdi)
	movq	-1376(%rbp), %rdx
	movq	%rdx, 2008(%rdi)
	movq	-1392(%rbp), %rdx
	movq	-1384(%rbp), %rsi
	movq	%rsi, 2000(%rdi)
	movq	%rdx, 1992(%rdi)
	movq	%rcx, 2016(%rdi)
	movq	-1352(%rbp), %rcx
	movq	%rcx, 2040(%rdi)
	movq	-1368(%rbp), %rcx
	movq	-1360(%rbp), %rdx
	movq	%rdx, 2032(%rdi)
	movq	%rcx, 2024(%rdi)
	movq	$0, 2048(%rdi)
	.loc	12 192 6
	addq	$1536, %rsp
	popq	%rbp
	retq
Ltmp510:
Lfunc_end35:
	.cfi_endproc

	.globl	__ZN72_$LT$crossbeam_epoch..internal..Bag$u20$as$u20$core..ops..drop..Drop$GT$4drop17he6150e93e88cd933E
	.p2align	4, 0x90
__ZN72_$LT$crossbeam_epoch..internal..Bag$u20$as$u20$core..ops..drop..Drop$GT$4drop17he6150e93e88cd933E:
Lfunc_begin36:
	.loc	12 196 0
	.cfi_startproc
	pushq	%rbp
	.cfi_def_cfa_offset 16
	.cfi_offset %rbp, -16
	movq	%rsp, %rbp
	.cfi_def_cfa_register %rbp
Ltmp511:
	pushq	%r15
	pushq	%r14
	pushq	%r12
	pushq	%rbx
	andq	$-32, %rsp
	subq	$128, %rsp
	.cfi_offset %rbx, -48
	.cfi_offset %r12, -40
	.cfi_offset %r14, -32
	.cfi_offset %r15, -24
	.loc	12 198 47 prologue_end
	movq	2048(%rdi), %r14
Ltmp512:
	.loc	30 3179 19
	cmpq	$65, %r14
	.loc	30 3179 16 is_stmt 0
	jae	LBB36_5
Ltmp513:
	.loc	32 165 18 is_stmt 1
	shlq	$5, %r14
Ltmp514:
	.loc	30 3570 21
	je	LBB36_4
Ltmp515:
	.loc	30 0 21 is_stmt 0
	movq	%rdi, %r12
Ltmp516:
	leaq	72(%rsp), %r15
	xorl	%ebx, %ebx
	leaq	__ZN15crossbeam_epoch8deferred8Deferred3new4call17h97a0ccaced4abd05E(%rip), %rax
	movq	%rax, %xmm0
	movdqa	%xmm0, 16(%rsp)
Ltmp517:
	.p2align	4, 0x90
LBB36_3:
	.loc	12 200 57 is_stmt 1
	movlps	16(%rsp), %xmm0
Ltmp518:
	.loc	7 2130 14
	movdqu	(%r12,%rbx), %xmm2
	movups	16(%r12,%rbx), %xmm3
Ltmp519:
	.loc	7 0 14 is_stmt 0
	movaps	%xmm3, 48(%rsp)
Ltmp520:
	.loc	7 2130 14
	movups	%xmm1, 16(%r12,%rbx)
	movups	%xmm0, (%r12,%rbx)
Ltmp521:
	.loc	12 201 13 is_stmt 1
	movaps	%xmm3, 80(%rsp)
	movdqa	%xmm2, 32(%rsp)
	movdqa	%xmm2, 64(%rsp)
Ltmp522:
	.loc	35 76 20
	movq	%xmm2, %rax
Ltmp523:
	.loc	35 77 18
	movq	%r15, %rdi
	callq	*%rax
Ltmp524:
	.loc	30 3440 9
	addq	$32, %rbx
	movaps	32(%rsp), %xmm0
	movaps	48(%rsp), %xmm1
	cmpq	%rbx, %r14
	.loc	30 3570 21
	jne	LBB36_3
Ltmp525:
LBB36_4:
	.loc	12 203 6
	leaq	-32(%rbp), %rsp
	popq	%rbx
	popq	%r12
	popq	%r14
	popq	%r15
	popq	%rbp
	retq
LBB36_5:
Ltmp526:
	.loc	30 3180 13
	leaq	l___unnamed_29(%rip), %rdx
	movl	$64, %esi
	movq	%r14, %rdi
Ltmp527:
	callq	__ZN4core5slice24slice_end_index_len_fail17hea9e3399ed430f80E
Ltmp528:
Lfunc_end36:
	.cfi_endproc

	.globl	__ZN67_$LT$crossbeam_epoch..internal..Bag$u20$as$u20$core..fmt..Debug$GT$3fmt17hb4755bd4bcbac435E
	.p2align	4, 0x90
__ZN67_$LT$crossbeam_epoch..internal..Bag$u20$as$u20$core..fmt..Debug$GT$3fmt17hb4755bd4bcbac435E:
Lfunc_begin37:
	.loc	12 208 0
	.cfi_startproc
	pushq	%rbp
	.cfi_def_cfa_offset 16
	.cfi_offset %rbp, -16
	movq	%rsp, %rbp
	.cfi_def_cfa_register %rbp
	pushq	%rbx
	subq	$40, %rsp
	.cfi_offset %rbx, -24
	movq	%rdi, %rbx
Ltmp529:
	.loc	12 209 9 prologue_end
	leaq	l___unnamed_21(%rip), %rdx
	leaq	-40(%rbp), %rdi
	movl	$3, %ecx
	callq	__ZN4core3fmt9Formatter12debug_struct17ha1a64e91d2a98458E
Ltmp530:
	.loc	12 210 52
	movq	2048(%rbx), %rdi
Ltmp531:
	.loc	30 3169 19
	cmpq	$65, %rdi
	.loc	30 3169 16 is_stmt 0
	jae	LBB37_2
Ltmp532:
	.loc	12 210 34 is_stmt 1
	movq	%rbx, -24(%rbp)
	movq	%rdi, -16(%rbp)
	.loc	12 209 9
	leaq	l___unnamed_22(%rip), %rsi
	leaq	l___unnamed_7(%rip), %r8
	leaq	-40(%rbp), %rdi
Ltmp533:
	.loc	12 0 9 is_stmt 0
	leaq	-24(%rbp), %rcx
	.loc	12 209 9
	movl	$9, %edx
	callq	__ZN4core3fmt8builders11DebugStruct5field17h6c54d35ac41bb1e6E
	movq	%rax, %rdi
	callq	__ZN4core3fmt8builders11DebugStruct6finish17h67ed49fd5e81bb24E
	.loc	12 212 6 is_stmt 1
	addq	$40, %rsp
	popq	%rbx
Ltmp534:
	popq	%rbp
	retq
Ltmp535:
LBB37_2:
	.loc	30 3170 13
	leaq	l___unnamed_23(%rip), %rdx
	movl	$64, %esi
	callq	__ZN4core5slice24slice_end_index_len_fail17hea9e3399ed430f80E
Ltmp536:
Lfunc_end37:
	.cfi_endproc

	.globl	__ZN15crossbeam_epoch8internal6Global7collect17hc35bfd5e62aae973E
	.p2align	4, 0x90
__ZN15crossbeam_epoch8internal6Global7collect17hc35bfd5e62aae973E:
Lfunc_begin38:
	.loc	12 280 0
	.cfi_startproc
	pushq	%rbp
	.cfi_def_cfa_offset 16
	.cfi_offset %rbp, -16
	movq	%rsp, %rbp
	.cfi_def_cfa_register %rbp
	pushq	%r15
	pushq	%r14
	pushq	%r13
	pushq	%r12
	pushq	%rbx
	andq	$-32, %rsp
	movl	$4256, %eax
	callq	___rust_probestack
	subq	%rax, %rsp
	.cfi_offset %rbx, -56
	.cfi_offset %r12, -48
	.cfi_offset %r13, -40
	.cfi_offset %r14, -32
	.cfi_offset %r15, -24
	movq	%rsi, %r13
	movq	%rdi, %r14
Ltmp537:
	.loc	12 281 28 prologue_end
	callq	__ZN15crossbeam_epoch8internal6Global11try_advance17h7e95fc38457b6764E
	movq	%rax, %r15
Ltmp538:
	.loc	12 0 28 is_stmt 0
	xorl	%r9d, %r9d
	leaq	__ZN15crossbeam_epoch8deferred8Deferred3new4call17h97a0ccaced4abd05E(%rip), %rax
	movq	%rax, %xmm0
	leaq	__ZN15crossbeam_epoch8deferred8Deferred3new4call17h68b10974f24ec0faE(%rip), %r8
	leaq	32(%rsp), %rsi
Ltmp539:
LBB38_1:
	.loc	15 2355 24 is_stmt 1
	movq	(%r14), %rcx
Ltmp540:
	.loc	18 113 15
	movq	%rcx, %rdi
	andq	$-8, %rdi
Ltmp541:
	.loc	15 2355 24
	movq	2064(%rdi), %rdx
Ltmp542:
	.loc	19 146 13
	movq	%rdx, %r12
	andq	$-8, %r12
	je	LBB38_11
Ltmp543:
	.loc	19 0 13 is_stmt 0
	incq	%r9
Ltmp544:
	.p2align	4, 0x90
LBB38_3:
	.loc	19 146 24
	movq	(%r12), %rax
Ltmp545:
	.loc	33 37 32 is_stmt 1
	andq	$-2, %rax
Ltmp546:
	.file	39 "/rustc/6c8927b0cf80ceee19386026cf9d7fd4fd9d486f/src/libcore/num/mod.rs"
	.loc	39 3462 17
	movq	%r15, %rbx
	subq	%rax, %rbx
Ltmp547:
	.loc	12 232 9
	cmpq	$4, %rbx
Ltmp548:
	.loc	19 146 24
	jl	LBB38_11
Ltmp549:
	.loc	15 2424 35
	movq	%rcx, %rax
	lock		cmpxchgq	%rdx, (%r14)
Ltmp550:
	.loc	25 611 13
	je	LBB38_5
Ltmp551:
	.loc	15 2355 24
	movq	(%r14), %rcx
Ltmp552:
	.loc	18 113 15
	movq	%rcx, %rdi
Ltmp553:
	andq	$-8, %rdi
Ltmp554:
	.loc	15 2355 24
	movq	2064(%rdi), %rdx
Ltmp555:
	.loc	19 146 13
	movq	%rdx, %r12
	andq	$-8, %r12
	jne	LBB38_3
	jmp	LBB38_11
Ltmp556:
	.p2align	4, 0x90
LBB38_5:
	.loc	15 2356 24
	movq	128(%r14), %rax
Ltmp557:
	.loc	18 1147 9
	cmpq	%rax, %rcx
Ltmp558:
	.loc	19 152 25
	jne	LBB38_7
Ltmp559:
	.loc	15 2424 35
	movq	%rcx, %rax
Ltmp560:
	lock		cmpxchgq	%rdx, 128(%r14)
Ltmp561:
LBB38_7:
	.loc	1 194 30
	movq	(%r13), %rax
	.loc	1 194 16 is_stmt 0
	testq	%rax, %rax
	movq	%r13, 24(%rsp)
Ltmp562:
	.loc	1 0 16
	movq	%r9, 16(%rsp)
Ltmp563:
	movdqa	%xmm0, 80(%rsp)
	.loc	1 194 16
	je	LBB38_8
Ltmp564:
	.loc	35 49 17 is_stmt 1
	movq	%r8, 32(%rsp)
	movq	%rcx, 40(%rsp)
Ltmp565:
	.loc	1 195 13
	movq	%rax, %rdi
Ltmp566:
	callq	__ZN15crossbeam_epoch8internal5Local5defer17h9747dd46e10480a8E
Ltmp567:
	.loc	1 0 13 is_stmt 0
	jmp	LBB38_13
Ltmp568:
LBB38_8:
	.loc	18 1077 13 is_stmt 1
	cmpq	$7, %rcx
	.loc	18 1076 9
	jbe	LBB38_20
Ltmp569:
	.loc	10 102 14
	movl	$2072, %esi
	movl	$8, %edx
Ltmp570:
	callq	___rust_dealloc
Ltmp571:
LBB38_13:
	.loc	25 519 22
	movq	(%r12), %rax
	movq	%rax, (%rsp)
	movq	8(%r12), %r13
Ltmp572:
	.loc	25 611 22
	addq	$16, %r12
Ltmp573:
	movl	$2048, %edx
	leaq	120(%rsp), %rdi
	movq	%r12, %rsi
	callq	_memcpy
Ltmp574:
	.loc	19 185 23
	movl	$2048, %edx
	leaq	2184(%rsp), %rbx
	movq	%rbx, %rdi
	movq	%r12, %rsi
	callq	_memmove
Ltmp575:
	.loc	12 294 17
	testq	%r13, %r13
	je	LBB38_19
Ltmp576:
	.loc	12 0 17 is_stmt 0
	movq	(%rsp), %rax
Ltmp577:
	.loc	12 295 42 is_stmt 1
	movq	%rax, 120(%rsp)
	movq	%r13, 128(%rsp)
	movl	$2048, %edx
	leaq	136(%rsp), %rdi
	movq	%rbx, %rsi
	callq	_memcpy
Ltmp578:
	.loc	12 198 47
	movq	2176(%rsp), %r12
Ltmp579:
	.loc	30 3179 19
	cmpq	$65, %r12
	.loc	30 3179 16 is_stmt 0
	jae	LBB38_21
Ltmp580:
	.loc	32 165 18 is_stmt 1
	shlq	$5, %r12
Ltmp581:
	.loc	32 0 18 is_stmt 0
	leaq	40(%rsp), %r13
Ltmp582:
	movapd	80(%rsp), %xmm2
Ltmp583:
	.loc	30 3570 21 is_stmt 1
	je	LBB38_18
Ltmp584:
	.loc	30 0 21 is_stmt 0
	xorl	%ebx, %ebx
Ltmp585:
	.p2align	4, 0x90
LBB38_17:
	.loc	12 200 57 is_stmt 1
	movsd	%xmm2, %xmm0
Ltmp586:
	.loc	7 2130 14
	movdqu	128(%rsp,%rbx), %xmm2
	movups	144(%rsp,%rbx), %xmm3
Ltmp587:
	.loc	7 0 14 is_stmt 0
	movaps	%xmm3, (%rsp)
Ltmp588:
	.loc	7 2130 14
	movups	%xmm1, 144(%rsp,%rbx)
	movupd	%xmm0, 128(%rsp,%rbx)
Ltmp589:
	.loc	12 201 13 is_stmt 1
	movaps	%xmm3, 48(%rsp)
	movdqa	%xmm2, 96(%rsp)
	movdqa	%xmm2, 32(%rsp)
Ltmp590:
	.loc	35 76 20
	movq	%xmm2, %rax
Ltmp591:
	.loc	35 77 18
	movq	%r13, %rdi
	callq	*%rax
Ltmp592:
	.loc	35 0 18 is_stmt 0
	movapd	80(%rsp), %xmm2
Ltmp593:
	.loc	30 3440 9 is_stmt 1
	addq	$32, %rbx
	movdqa	96(%rsp), %xmm0
	movaps	(%rsp), %xmm1
	cmpq	%rbx, %r12
	.loc	30 3570 21
	jne	LBB38_17
Ltmp594:
LBB38_18:
	.loc	30 0 21 is_stmt 0
	movq	16(%rsp), %r9
Ltmp595:
	.file	40 "/rustc/6c8927b0cf80ceee19386026cf9d7fd4fd9d486f/src/libcore/cmp.rs"
	.loc	40 1136 52 is_stmt 1
	cmpq	$8, %r9
	movq	24(%rsp), %r13
Ltmp596:
	.loc	40 0 52 is_stmt 0
	movapd	%xmm2, %xmm0
	leaq	__ZN15crossbeam_epoch8deferred8Deferred3new4call17h68b10974f24ec0faE(%rip), %r8
	leaq	32(%rsp), %rsi
Ltmp597:
	.file	41 "/rustc/6c8927b0cf80ceee19386026cf9d7fd4fd9d486f/src/libcore/iter/range.rs"
	.loc	41 505 9 is_stmt 1
	jne	LBB38_1
	jmp	LBB38_19
Ltmp598:
LBB38_11:
	.loc	41 0 9 is_stmt 0
	leaq	2184(%rsp), %rdi
	leaq	120(%rsp), %rsi
Ltmp599:
	.loc	19 185 23 is_stmt 1
	movl	$2048, %edx
	callq	_memcpy
Ltmp600:
LBB38_19:
	.loc	12 298 6
	leaq	-40(%rbp), %rsp
	popq	%rbx
	popq	%r12
	popq	%r13
	popq	%r14
Ltmp601:
	popq	%r15
	popq	%rbp
	retq
LBB38_20:
Ltmp602:
	.loc	18 1076 9
	leaq	l___unnamed_30(%rip), %rdi
Ltmp603:
	leaq	l___unnamed_31(%rip), %rdx
Ltmp604:
	movl	$39, %esi
	callq	__ZN3std9panicking11begin_panic17h4d3fcdc77d338693E
Ltmp605:
LBB38_21:
	.loc	30 3180 13
	leaq	l___unnamed_29(%rip), %rdx
	movl	$64, %esi
	movq	%r12, %rdi
	callq	__ZN4core5slice24slice_end_index_len_fail17hea9e3399ed430f80E
Ltmp606:
Lfunc_end38:
	.cfi_endproc

	.p2align	4, 0x90
__ZN15crossbeam_epoch8internal6Global11try_advance17h7e95fc38457b6764E:
Lfunc_begin39:
	.loc	12 309 0
	.cfi_startproc
	.cfi_personality 155, _rust_eh_personality
	.cfi_lsda 16, Lexception2
	pushq	%rbp
	.cfi_def_cfa_offset 16
	.cfi_offset %rbp, -16
	movq	%rsp, %rbp
	.cfi_def_cfa_register %rbp
	pushq	%r15
	pushq	%r14
	pushq	%r13
	pushq	%r12
	pushq	%rbx
	andq	$-32, %rsp
	subq	$192, %rsp
	.cfi_offset %rbx, -56
	.cfi_offset %r12, -48
	.cfi_offset %r13, -40
	.cfi_offset %r14, -32
	.cfi_offset %r15, -24
	movq	%rsi, %rbx
Ltmp613:
	.loc	15 2356 24 prologue_end
	movq	256(%rdi), %rax
	movq	%rax, 24(%rsp)
Ltmp614:
	.loc	15 2678 23
	mfence
Ltmp615:
	.loc	12 316 22
	leaq	384(%rdi), %rcx
Ltmp616:
	.loc	12 0 22 is_stmt 0
	movq	%rdi, 48(%rsp)
Ltmp617:
	.loc	15 2355 24 is_stmt 1
	movq	384(%rdi), %r13
Ltmp618:
	.loc	15 0 24 is_stmt 0
	leaq	__ZN15crossbeam_epoch8deferred8Deferred3new4call17h97a0ccaced4abd05E(%rip), %rax
	movq	%rax, %xmm0
	movdqa	%xmm0, 112(%rsp)
	leaq	__ZN15crossbeam_epoch8deferred8Deferred3new4call17hfb7abf97e0e8a08bE(%rip), %r14
	leaq	64(%rsp), %r12
	movq	%rcx, 40(%rsp)
Ltmp619:
	.loc	12 316 22 is_stmt 1
	movq	%rcx, %rdx
	movq	%rsi, 56(%rsp)
Ltmp620:
LBB39_1:
	.loc	26 239 19
	movq	%r13, %rax
	andq	$-8, %rax
Ltmp621:
	je	LBB39_24
Ltmp622:
	.loc	12 0 0 is_stmt 0
	movq	%r13, %r15
Ltmp623:
	movq	%rdx, 32(%rsp)
Ltmp624:
	.p2align	4, 0x90
LBB39_3:
	.loc	15 2355 24 is_stmt 1
	movq	(%rax), %r13
Ltmp625:
	.loc	18 114 15
	movl	%r13d, %ecx
	andl	$7, %ecx
Ltmp626:
	.loc	26 242 16
	cmpl	$1, %ecx
	.loc	26 242 13 is_stmt 0
	jne	LBB39_25
Ltmp627:
	.loc	26 248 31 is_stmt 1
	testb	$7, %r15b
	.loc	26 248 17 is_stmt 0
	jne	LBB39_7
Ltmp628:
	.loc	26 0 0
	andq	$-8, %r13
Ltmp629:
	.loc	15 2423 35 is_stmt 1
	movq	%r15, %rax
Ltmp630:
	lock		cmpxchgq	%r13, (%rdx)
Ltmp631:
	.loc	25 611 13
	jne	LBB39_6
Ltmp632:
	.loc	18 113 15
	andq	$-8, %r15
Ltmp633:
	.loc	1 194 30
	movq	(%rbx), %rdi
	.loc	1 194 16 is_stmt 0
	testq	%rdi, %rdi
	je	LBB39_9
Ltmp634:
	.loc	35 49 17 is_stmt 1
	movq	%r14, 64(%rsp)
	movq	%r15, 72(%rsp)
Ltmp635:
	.loc	1 195 13
	movq	%r12, %rsi
	callq	__ZN15crossbeam_epoch8internal5Local5defer17h9747dd46e10480a8E
Ltmp636:
	.loc	1 0 13 is_stmt 0
	jmp	LBB39_21
Ltmp637:
	.p2align	4, 0x90
LBB39_6:
	movq	%rax, %r13
Ltmp638:
	.loc	26 274 20 is_stmt 1
	testb	$7, %r13b
	je	LBB39_23
	jmp	LBB39_29
Ltmp639:
LBB39_9:
	.loc	12 198 47
	movq	2072(%r15), %r14
Ltmp640:
	.loc	30 3179 19
	cmpq	$65, %r14
	.loc	30 3179 16 is_stmt 0
	jae	LBB39_10
Ltmp641:
	.loc	32 165 18 is_stmt 1
	shlq	$5, %r14
Ltmp642:
	.loc	30 3570 21
	je	LBB39_16
Ltmp643:
	.loc	14 0 0 is_stmt 0
	leaq	24(%r15), %r12
Ltmp644:
	xorl	%ebx, %ebx
Ltmp645:
	.p2align	4, 0x90
LBB39_14:
	.loc	12 200 57 is_stmt 1
	movlps	112(%rsp), %xmm1
Ltmp646:
	.loc	7 2130 14
	movdqu	(%r12,%rbx), %xmm2
	movups	16(%r12,%rbx), %xmm3
Ltmp647:
	.loc	7 2130 14 is_stmt 0
	movups	%xmm0, 16(%r12,%rbx)
	movups	%xmm1, (%r12,%rbx)
Ltmp648:
	.loc	7 0 14
	movaps	%xmm3, 128(%rsp)
Ltmp649:
	.loc	12 201 13 is_stmt 1
	movaps	%xmm3, 80(%rsp)
	movdqa	%xmm2, 64(%rsp)
	movdqa	%xmm2, 144(%rsp)
Ltmp650:
	.loc	35 76 20
	movq	%xmm2, %rax
Ltmp607:
Ltmp651:
	.loc	35 77 18
	leaq	72(%rsp), %rdi
	callq	*%rax
Ltmp652:
Ltmp608:
	.loc	30 3440 9
	addq	$32, %rbx
	cmpq	%rbx, %r14
	movaps	144(%rsp), %xmm1
	movdqa	128(%rsp), %xmm0
	.loc	30 3570 21
	jne	LBB39_14
Ltmp653:
LBB39_16:
	.loc	10 102 14
	movl	$2104, %esi
	movl	$8, %edx
	movq	%r15, %rdi
	callq	___rust_dealloc
	movq	56(%rsp), %rbx
	leaq	__ZN15crossbeam_epoch8deferred8Deferred3new4call17hfb7abf97e0e8a08bE(%rip), %r14
	leaq	64(%rsp), %r12
Ltmp654:
LBB39_21:
	.loc	10 0 14 is_stmt 0
	movq	32(%rsp), %rdx
Ltmp655:
	.loc	26 274 20 is_stmt 1
	testb	$7, %r13b
	.loc	26 274 17 is_stmt 0
	jne	LBB39_29
Ltmp656:
LBB39_23:
	.loc	26 239 19 is_stmt 1
	movq	%r13, %rax
Ltmp657:
	.loc	12 0 0 is_stmt 0
	movq	%r13, %r15
Ltmp658:
	.loc	26 239 19
	andq	$-8, %rax
Ltmp659:
	jne	LBB39_3
	jmp	LBB39_24
Ltmp660:
	.p2align	4, 0x90
LBB39_25:
	.loc	15 2356 24 is_stmt 1
	movq	8(%rax), %rcx
Ltmp661:
	.loc	12 316 22
	movq	%rax, %rdx
Ltmp662:
	.loc	33 43 9
	testb	$1, %cl
Ltmp663:
	.loc	12 329 24
	je	LBB39_1
Ltmp664:
	.loc	12 0 0 is_stmt 0
	andq	$-2, %rcx
Ltmp665:
	.loc	12 316 22 is_stmt 1
	movq	%rax, %rdx
Ltmp666:
	.loc	12 329 24
	cmpq	24(%rsp), %rcx
	je	LBB39_1
	jmp	LBB39_27
Ltmp667:
LBB39_24:
	.loc	15 2675 24
	##MEMBARRIER
	movq	24(%rsp), %rax
Ltmp668:
	.loc	39 3439 17
	addq	$2, %rax
Ltmp669:
	.loc	39 0 17 is_stmt 0
	movq	48(%rsp), %rcx
Ltmp670:
	.loc	15 2341 24 is_stmt 1
	movq	%rax, 256(%rcx)
Ltmp671:
	.loc	15 0 24 is_stmt 0
	jmp	LBB39_28
Ltmp672:
LBB39_29:
	movq	40(%rsp), %rax
Ltmp673:
	.loc	15 2355 24 is_stmt 1
	movq	(%rax), %rax
Ltmp674:
LBB39_27:
	.loc	15 0 24 is_stmt 0
	movq	24(%rsp), %rax
Ltmp675:
LBB39_28:
	.loc	12 347 6 is_stmt 1
	leaq	-40(%rbp), %rsp
Ltmp676:
	popq	%rbx
	popq	%r12
	popq	%r13
	popq	%r14
	popq	%r15
	popq	%rbp
	retq
LBB39_7:
Ltmp677:
	.loc	26 248 17
	leaq	l___unnamed_38(%rip), %rdi
	leaq	l___unnamed_39(%rip), %rdx
	movl	$38, %esi
	callq	__ZN3std9panicking11begin_panic17h4d3fcdc77d338693E
Ltmp678:
LBB39_10:
Ltmp610:
	.loc	30 3180 13
	leaq	l___unnamed_29(%rip), %rdx
	movl	$64, %esi
	movq	%r14, %rdi
	callq	__ZN4core5slice24slice_end_index_len_fail17hea9e3399ed430f80E
Ltmp611:
Ltmp679:
	ud2
Ltmp680:
LBB39_18:
Ltmp612:
	.loc	30 0 13 is_stmt 0
	jmp	LBB39_19
Ltmp681:
LBB39_17:
Ltmp609:
LBB39_19:
	movq	%rax, %rbx
	.loc	14 184 1 is_stmt 1
	movq	%r15, %rdi
	callq	__ZN5alloc5alloc8box_free17hf0568cbeb1f4d732E
	movq	%rbx, %rdi
	callq	__Unwind_Resume
	ud2
Ltmp682:
Lfunc_end39:
	.cfi_endproc
	.section	__TEXT,__gcc_except_tab
	.p2align	2
GCC_except_table39:
Lexception2:
	.byte	255
	.byte	255
	.byte	1
	.uleb128 Lcst_end2-Lcst_begin2
Lcst_begin2:
	.uleb128 Lfunc_begin39-Lfunc_begin39
	.uleb128 Ltmp607-Lfunc_begin39
	.byte	0
	.byte	0
	.uleb128 Ltmp607-Lfunc_begin39
	.uleb128 Ltmp608-Ltmp607
	.uleb128 Ltmp609-Lfunc_begin39
	.byte	0
	.uleb128 Ltmp608-Lfunc_begin39
	.uleb128 Ltmp610-Ltmp608
	.byte	0
	.byte	0
	.uleb128 Ltmp610-Lfunc_begin39
	.uleb128 Ltmp611-Ltmp610
	.uleb128 Ltmp612-Lfunc_begin39
	.byte	0
	.uleb128 Ltmp611-Lfunc_begin39
	.uleb128 Lfunc_end39-Ltmp611
	.byte	0
	.byte	0
Lcst_end2:
	.p2align	2

	.section	__TEXT,__text,regular,pure_instructions
	.globl	__ZN15crossbeam_epoch8internal5Local5defer17h9747dd46e10480a8E
	.p2align	4, 0x90
__ZN15crossbeam_epoch8internal5Local5defer17h9747dd46e10480a8E:
Lfunc_begin40:
	.loc	12 428 0
	.cfi_startproc
	pushq	%rbp
	.cfi_def_cfa_offset 16
	.cfi_offset %rbp, -16
	movq	%rsp, %rbp
	.cfi_def_cfa_register %rbp
	pushq	%r15
	pushq	%r14
	pushq	%r13
	pushq	%r12
	pushq	%rbx
	movl	$4200, %eax
	callq	___rust_probestack
	subq	%rax, %rsp
	.cfi_offset %rbx, -56
	.cfi_offset %r12, -48
	.cfi_offset %r13, -40
	.cfi_offset %r14, -32
	.cfi_offset %r15, -24
	movq	%rdi, %rbx
Ltmp683:
	.loc	12 431 41 prologue_end
	movq	(%rsi), %rdx
	movq	8(%rsi), %rax
	movq	24(%rsi), %rcx
	movq	%rcx, -2168(%rbp)
	movq	%rsi, -48(%rbp)
Ltmp684:
	movq	16(%rsi), %rcx
	movq	%rcx, -2176(%rbp)
	movq	%rax, -2184(%rbp)
Ltmp685:
	.loc	12 91 12
	movq	2072(%rdi), %rax
	cmpq	$64, %rax
	.loc	12 91 9 is_stmt 0
	jb	LBB40_4
Ltmp686:
	.loc	12 0 9
	movq	-48(%rbp), %rax
	addq	$8, %rax
	movq	%rax, -56(%rbp)
Ltmp687:
	.loc	12 91 9
	leaq	-2152(%rbp), %r12
	leaq	56(%rbx), %r15
	leaq	-2184(%rbp), %r14
	movq	%rbx, -72(%rbp)
	movq	%rdx, -64(%rbp)
Ltmp688:
	.p2align	4, 0x90
LBB40_2:
	.loc	12 96 17 is_stmt 1
	movq	-2168(%rbp), %rax
	movq	%rax, -88(%rbp)
	movq	-2184(%rbp), %rax
	movq	-2176(%rbp), %rcx
	movq	%rcx, -96(%rbp)
	movq	%rax, -104(%rbp)
Ltmp689:
	.loc	12 0 0 is_stmt 0
	testq	%rdx, %rdx
	.loc	12 431 19 is_stmt 1
	je	LBB40_3
Ltmp690:
	.loc	12 431 23 is_stmt 0
	movq	-88(%rbp), %rax
	movq	%rax, -112(%rbp)
	movq	-104(%rbp), %rax
	movq	-96(%rbp), %rcx
	movq	%rcx, -120(%rbp)
	movq	%rax, -128(%rbp)
Ltmp691:
	.loc	12 432 13 is_stmt 1
	movq	16(%rbx), %r13
Ltmp692:
	.loc	12 74 9
	movq	%r14, %rdi
	callq	__ZN73_$LT$crossbeam_epoch..internal..Bag$u20$as$u20$core..default..Default$GT$7default17h1a50758c62180845E
	movq	$-32, %rax
Ltmp693:
	.p2align	4, 0x90
LBB40_8:
	.loc	7 2130 14
	movups	(%r15,%rax), %xmm0
	movups	16(%r15,%rax), %xmm1
Ltmp694:
	.loc	7 2130 14 is_stmt 0
	movq	(%r12,%rax), %rcx
	movq	8(%r12,%rax), %rdx
	movq	%rcx, (%r15,%rax)
	movq	%rdx, 8(%r15,%rax)
	movq	16(%r12,%rax), %rcx
	movq	%rcx, 16(%r15,%rax)
	movq	24(%r12,%rax), %rcx
	movq	%rcx, 24(%r15,%rax)
Ltmp695:
	.loc	7 2130 14
	movups	%xmm1, -2136(%rbp,%rax)
	movups	%xmm0, -2152(%rbp,%rax)
Ltmp696:
	.loc	7 2130 14
	movups	32(%r15,%rax), %xmm0
	movups	48(%r15,%rax), %xmm1
Ltmp697:
	.loc	7 2130 14
	movq	32(%r12,%rax), %rcx
	movq	40(%r12,%rax), %rdx
	movq	%rcx, 32(%r15,%rax)
	movq	%rdx, 40(%r15,%rax)
	movq	48(%r12,%rax), %rcx
	movq	%rcx, 48(%r15,%rax)
	movq	56(%r12,%rax), %rcx
	movq	%rcx, 56(%r15,%rax)
Ltmp698:
	.loc	7 2130 14
	movups	%xmm1, -2104(%rbp,%rax)
	movups	%xmm0, -2120(%rbp,%rax)
Ltmp699:
	.loc	14 484 11 is_stmt 1
	addq	$64, %rax
	cmpq	$1993, %rax
	.loc	14 484 5 is_stmt 0
	jb	LBB40_8
Ltmp700:
	.loc	7 2130 14 is_stmt 1
	movq	2072(%rbx), %rax
Ltmp701:
	.loc	7 2130 14 is_stmt 0
	movq	-136(%rbp), %rcx
Ltmp702:
	movq	%rcx, 2072(%rbx)
Ltmp703:
	.loc	7 2130 14
	movq	%rax, -136(%rbp)
Ltmp704:
	.loc	17 816 5 is_stmt 1
	movl	$2056, %edx
	leaq	-4240(%rbp), %rbx
Ltmp705:
	movq	%rbx, %rdi
	movq	%r14, %rsi
	callq	_memcpy
Ltmp706:
	.loc	15 2678 23
	mfence
Ltmp707:
	.loc	15 2356 24
	movq	384(%r13), %rax
Ltmp708:
	.loc	15 0 24 is_stmt 0
	movq	%rax, -80(%rbp)
Ltmp709:
	.loc	18 664 29 is_stmt 1
	movl	$2056, %edx
	movq	%r14, %rdi
	movq	%rbx, %rsi
	callq	_memcpy
Ltmp710:
	.loc	10 80 14
	movl	$2072, %edi
	movl	$8, %esi
	callq	___rust_alloc
Ltmp711:
	.loc	10 278 9
	testq	%rax, %rax
Ltmp712:
	je	LBB40_14
Ltmp713:
	.loc	19 0 0 is_stmt 0
	movq	%rax, %rbx
	movq	-80(%rbp), %rax
Ltmp714:
	.loc	11 176 13 is_stmt 1
	movq	%rax, (%rbx)
	movq	%rbx, %rdi
	addq	$8, %rdi
	movl	$2056, %edx
	movq	%r14, %rsi
	callq	_memcpy
	movq	$0, 2064(%rbx)
Ltmp715:
	.loc	11 0 13 is_stmt 0
	jmp	LBB40_11
Ltmp716:
	.p2align	4, 0x90
LBB40_15:
	.loc	15 2424 35 is_stmt 1
	movq	%rcx, %rax
	lock		cmpxchgq	%rsi, 256(%r13)
Ltmp717:
LBB40_11:
	.loc	15 2355 24
	movq	256(%r13), %rcx
Ltmp718:
	.loc	18 113 15
	movq	%rcx, %rdx
	andq	$-8, %rdx
Ltmp719:
	.loc	15 2355 24
	movq	2064(%rdx), %rsi
Ltmp720:
	.loc	8 185 25
	cmpq	$7, %rsi
Ltmp721:
	.loc	19 71 9
	ja	LBB40_15
Ltmp722:
	.loc	15 2424 35
	xorl	%eax, %eax
	lock		cmpxchgq	%rbx, 2064(%rdx)
Ltmp723:
	.loc	25 611 13
	jne	LBB40_11
Ltmp724:
	.loc	15 2424 35
	movq	%rcx, %rax
	lock		cmpxchgq	%rbx, 256(%r13)
Ltmp725:
	.loc	15 0 35 is_stmt 0
	movq	-64(%rbp), %rdx
Ltmp726:
	movq	-48(%rbp), %rax
Ltmp727:
	.loc	12 433 13 is_stmt 1
	movq	%rdx, (%rax)
	movq	-112(%rbp), %rax
	movq	-56(%rbp), %rsi
Ltmp728:
	movq	%rax, 16(%rsi)
	movq	-128(%rbp), %rax
	movq	-120(%rbp), %rcx
Ltmp729:
	movq	%rcx, 8(%rsi)
	movq	%rax, (%rsi)
Ltmp730:
	.loc	12 431 41
	movq	16(%rsi), %rax
	movq	%rax, -2168(%rbp)
	movq	(%rsi), %rax
	movq	8(%rsi), %rcx
	movq	%rcx, -2176(%rbp)
	movq	%rax, -2184(%rbp)
Ltmp731:
	.loc	12 0 41 is_stmt 0
	movq	-72(%rbp), %rbx
Ltmp732:
	.loc	12 91 12 is_stmt 1
	movq	2072(%rbx), %rax
	cmpq	$64, %rax
	.loc	12 91 9 is_stmt 0
	jae	LBB40_2
Ltmp733:
LBB40_4:
	.loc	12 0 0
	leaq	24(%rbx), %rcx
Ltmp734:
	.loc	12 92 13 is_stmt 1
	shlq	$5, %rax
	movq	%rdx, (%rcx,%rax)
	movq	-2168(%rbp), %rdx
Ltmp735:
	movq	%rdx, 24(%rcx,%rax)
	movq	-2184(%rbp), %rdx
	movq	-2176(%rbp), %rsi
	movq	%rsi, 16(%rcx,%rax)
	movq	%rdx, 8(%rcx,%rax)
	.loc	12 93 13
	movq	2072(%rbx), %rax
	incq	%rax
	je	LBB40_6
Ltmp736:
	movq	%rax, 2072(%rbx)
Ltmp737:
LBB40_3:
	.loc	12 435 6
	addq	$4200, %rsp
	popq	%rbx
	popq	%r12
	popq	%r13
	popq	%r14
	popq	%r15
	popq	%rbp
	retq
Ltmp738:
LBB40_14:
	.loc	10 279 19
	movl	$2072, %edi
	movl	$8, %esi
	callq	__ZN5alloc5alloc18handle_alloc_error17h28974197717b8939E
Ltmp739:
LBB40_6:
	.loc	12 93 13
	leaq	_str.2(%rip), %rdi
	leaq	l___unnamed_40(%rip), %rdx
	movl	$28, %esi
	callq	__ZN4core9panicking5panic17h383a6b80ea7021aaE
Ltmp740:
Lfunc_end40:
	.cfi_endproc

	.globl	__ZN15crossbeam_epoch8internal5Local8finalize17h52a48f6fa778720fE
	.p2align	4, 0x90
__ZN15crossbeam_epoch8internal5Local8finalize17h52a48f6fa778720fE:
Lfunc_begin41:
	.loc	12 565 0
	.cfi_startproc
	.cfi_personality 155, _rust_eh_personality
	.cfi_lsda 16, Lexception3
	pushq	%rbp
	.cfi_def_cfa_offset 16
	.cfi_offset %rbp, -16
	movq	%rsp, %rbp
	.cfi_def_cfa_register %rbp
Ltmp746:
	pushq	%r15
	pushq	%r14
	pushq	%r12
	pushq	%rbx
	movl	$4208, %eax
	callq	___rust_probestack
	subq	%rax, %rsp
	.cfi_offset %rbx, -48
	.cfi_offset %r12, -40
	.cfi_offset %r14, -32
	.cfi_offset %r15, -24
	.loc	12 566 26 prologue_end
	movq	2080(%rdi), %rax
	movq	%rax, -40(%rbp)
Ltmp747:
	.loc	12 566 9 is_stmt 0
	testq	%rax, %rax
Ltmp748:
	jne	LBB41_23
Ltmp749:
	.loc	12 0 9
	movq	%rdi, %r14
Ltmp750:
	.loc	12 567 26 is_stmt 1
	movq	2088(%rdi), %rax
	movq	%rax, -40(%rbp)
Ltmp751:
	.loc	12 567 9 is_stmt 0
	testq	%rax, %rax
Ltmp752:
	jne	LBB41_11
Ltmp753:
	.loc	7 2130 14 is_stmt 1
	movq	$1, 2088(%r14)
Ltmp754:
	.loc	12 450 21
	movq	%r14, -56(%rbp)
Ltmp755:
	.loc	7 2130 14
	movq	$1, 2080(%r14)
Ltmp756:
	.loc	12 456 32
	movq	16(%r14), %rax
Ltmp757:
	.loc	15 2356 24
	movq	384(%rax), %rcx
Ltmp758:
	.loc	33 50 19
	orq	$1, %rcx
Ltmp759:
	.loc	12 476 31
	movq	$0, -64(%rbp)
Ltmp760:
	.loc	15 2427 33
	xorl	%eax, %eax
Ltmp761:
	lock		cmpxchgq	%rcx, 8(%r14)
Ltmp762:
	.loc	12 477 32
	movq	%rax, -72(%rbp)
Ltmp763:
	.loc	33 19 5
	cmpq	%rax, -64(%rbp)
Ltmp764:
	.loc	12 480 17
	jne	LBB41_24
Ltmp765:
	.loc	15 2766 23
	##MEMBARRIER
Ltmp766:
	.loc	12 491 25
	movq	2096(%r14), %rax
Ltmp767:
	.loc	39 3439 17
	leaq	1(%rax), %rcx
Ltmp768:
	.loc	7 2130 14
	movq	%rcx, 2096(%r14)
Ltmp769:
	.loc	12 496 16
	testb	$127, %al
	.loc	12 496 13 is_stmt 0
	jne	LBB41_5
Ltmp770:
	.loc	12 497 17 is_stmt 1
	movq	16(%r14), %rdi
Ltmp771:
	.loc	13 1116 9
	subq	$-128, %rdi
Ltmp743:
	leaq	-56(%rbp), %rsi
Ltmp772:
	.loc	12 497 17
	callq	__ZN15crossbeam_epoch8internal6Global7collect17hc35bfd5e62aae973E
Ltmp773:
Ltmp744:
LBB41_5:
	.loc	12 502 6
	movq	-56(%rbp), %rax
Ltmp774:
	.loc	12 575 26
	movq	%rax, -120(%rbp)
Ltmp775:
	.loc	12 576 13
	movq	16(%r14), %r15
Ltmp776:
	.loc	12 0 13 is_stmt 0
	leaq	-2176(%rbp), %rbx
Ltmp777:
	.loc	12 74 9 is_stmt 1
	movq	%rbx, %rdi
	callq	__ZN73_$LT$crossbeam_epoch..internal..Bag$u20$as$u20$core..default..Default$GT$7default17h1a50758c62180845E
Ltmp778:
	.loc	12 0 9 is_stmt 0
	leaq	56(%r14), %rax
	movq	$-32, %rcx
Ltmp779:
	.p2align	4, 0x90
LBB41_6:
	.loc	7 2130 14 is_stmt 1
	movups	(%rax,%rcx), %xmm0
	movups	16(%rax,%rcx), %xmm1
Ltmp780:
	.loc	7 2130 14 is_stmt 0
	movq	32(%rbx,%rcx), %rdx
	movq	40(%rbx,%rcx), %rsi
	movq	%rdx, (%rax,%rcx)
	movq	%rsi, 8(%rax,%rcx)
	movq	48(%rbx,%rcx), %rdx
	movq	%rdx, 16(%rax,%rcx)
	movq	56(%rbx,%rcx), %rdx
	movq	%rdx, 24(%rax,%rcx)
Ltmp781:
	.loc	7 2130 14
	movups	%xmm1, -2128(%rbp,%rcx)
	movups	%xmm0, -2144(%rbp,%rcx)
Ltmp782:
	.loc	7 2130 14
	movups	32(%rax,%rcx), %xmm0
	movups	48(%rax,%rcx), %xmm1
Ltmp783:
	.loc	7 2130 14
	movq	64(%rbx,%rcx), %rdx
	movq	72(%rbx,%rcx), %rsi
	movq	%rdx, 32(%rax,%rcx)
	movq	%rsi, 40(%rax,%rcx)
	movq	80(%rbx,%rcx), %rdx
	movq	%rdx, 48(%rax,%rcx)
	movq	88(%rbx,%rcx), %rdx
	movq	%rdx, 56(%rax,%rcx)
Ltmp784:
	.loc	7 2130 14
	movups	%xmm1, -2096(%rbp,%rcx)
	movups	%xmm0, -2112(%rbp,%rcx)
Ltmp785:
	.loc	14 484 11 is_stmt 1
	addq	$64, %rcx
	cmpq	$1993, %rcx
	.loc	14 484 5 is_stmt 0
	jb	LBB41_6
Ltmp786:
	.loc	7 2130 14 is_stmt 1
	movq	2072(%r14), %rax
Ltmp787:
	.loc	7 2130 14 is_stmt 0
	movq	-128(%rbp), %rcx
	movq	%rcx, 2072(%r14)
Ltmp788:
	.loc	7 2130 14
	movq	%rax, -128(%rbp)
	leaq	-4232(%rbp), %rbx
	leaq	-2176(%rbp), %rsi
Ltmp789:
	.loc	17 816 5 is_stmt 1
	movl	$2056, %edx
	movq	%rbx, %rdi
	callq	_memcpy
Ltmp790:
	.loc	15 2678 23
	mfence
Ltmp791:
	.loc	15 2356 24
	movq	384(%r15), %r12
Ltmp792:
	.loc	15 0 24 is_stmt 0
	leaq	-2176(%rbp), %rdi
Ltmp793:
	.loc	18 664 29 is_stmt 1
	movl	$2056, %edx
	movq	%rbx, %rsi
	callq	_memcpy
Ltmp794:
	.loc	10 80 14
	movl	$2072, %edi
	movl	$8, %esi
	callq	___rust_alloc
Ltmp795:
	.loc	10 278 9
	testq	%rax, %rax
	je	LBB41_8
Ltmp796:
	.loc	19 0 0 is_stmt 0
	movq	%rax, %rbx
Ltmp797:
	.loc	11 176 13 is_stmt 1
	movq	%r12, (%rax)
	movq	%rax, %rdi
	addq	$8, %rdi
	leaq	-2176(%rbp), %rsi
	movl	$2056, %edx
	callq	_memcpy
	movq	$0, 2064(%rbx)
Ltmp798:
	.loc	11 0 13 is_stmt 0
	jmp	LBB41_13
Ltmp799:
	.p2align	4, 0x90
LBB41_25:
	.loc	15 2424 35 is_stmt 1
	movq	%rcx, %rax
	lock		cmpxchgq	%rsi, 256(%r15)
Ltmp800:
LBB41_13:
	.loc	15 2355 24
	movq	256(%r15), %rcx
Ltmp801:
	.loc	18 113 15
	movq	%rcx, %rdx
	andq	$-8, %rdx
Ltmp802:
	.loc	15 2355 24
	movq	2064(%rdx), %rsi
Ltmp803:
	.loc	8 185 25
	cmpq	$7, %rsi
Ltmp804:
	.loc	19 71 9
	ja	LBB41_25
Ltmp805:
	.loc	15 2424 35
	xorl	%eax, %eax
	lock		cmpxchgq	%rbx, 2064(%rdx)
Ltmp806:
	.loc	25 611 13
	jne	LBB41_13
Ltmp807:
	.loc	15 2424 35
	movq	%rcx, %rax
	lock		cmpxchgq	%rbx, 256(%r15)
Ltmp808:
	.loc	1 422 39
	movq	-120(%rbp), %rdi
	.loc	1 422 16 is_stmt 0
	testq	%rdi, %rdi
	je	LBB41_20
Ltmp809:
	.loc	12 507 27 is_stmt 1
	movq	2080(%rdi), %rax
Ltmp810:
	.loc	12 508 30
	subq	$1, %rax
Ltmp811:
	jb	LBB41_26
Ltmp812:
	.loc	7 2130 14
	movq	%rax, 2080(%rdi)
Ltmp813:
	.loc	12 510 9
	jne	LBB41_20
Ltmp814:
	.loc	15 2341 24
	movq	$0, 8(%rdi)
Ltmp815:
	.loc	12 513 16
	cmpq	$0, 2088(%rdi)
	.loc	12 513 13 is_stmt 0
	je	LBB41_19
Ltmp816:
LBB41_20:
	.loc	7 2130 14 is_stmt 1
	movq	$0, 2088(%r14)
Ltmp817:
	.loc	7 2130 14 is_stmt 0
	movq	16(%r14), %rax
Ltmp818:
	.loc	12 585 40 is_stmt 1
	movq	%rax, -4232(%rbp)
Ltmp819:
	.loc	15 2506 24
	lock		orq	$1, (%r14)
Ltmp820:
	.loc	12 593 18
	movq	-4232(%rbp), %rax
Ltmp821:
	.loc	12 0 18 is_stmt 0
	movq	%rax, -2176(%rbp)
Ltmp822:
	.loc	15 2403 24 is_stmt 1
	lock		decq	(%rax)
Ltmp823:
	.loc	13 1350 9
	jne	LBB41_22
Ltmp824:
	.loc	15 2675 24
	##MEMBARRIER
	leaq	-2176(%rbp), %rdi
Ltmp825:
	.loc	13 1385 13
	callq	__ZN5alloc4sync12Arc$LT$T$GT$9drop_slow17he8aa0f23870cd715E
Ltmp826:
LBB41_22:
	.loc	12 595 6
	addq	$4208, %rsp
	popq	%rbx
	popq	%r12
	popq	%r14
Ltmp827:
	popq	%r15
	popq	%rbp
	retq
LBB41_19:
Ltmp828:
	.loc	12 514 17
	callq	__ZN15crossbeam_epoch8internal5Local8finalize17h52a48f6fa778720fE
Ltmp829:
	.loc	12 0 17 is_stmt 0
	jmp	LBB41_20
Ltmp830:
LBB41_23:
	leaq	-40(%rbp), %rax
Ltmp831:
	.loc	12 566 9 is_stmt 1
	movq	%rax, -48(%rbp)
	leaq	__ZN15crossbeam_epoch5guard11unprotected11UNPROTECTED17h0d04c8d05da67ee1E(%rip), %rax
	movq	%rax, -120(%rbp)
	leaq	-48(%rbp), %rax
Ltmp832:
	.loc	12 566 9 is_stmt 0
	movq	%rax, -4232(%rbp)
	leaq	__ZN42_$LT$$RF$T$u20$as$u20$core..fmt..Debug$GT$3fmt17hf891e1cbd6e549f3E(%rip), %rax
	movq	%rax, -4224(%rbp)
	leaq	-120(%rbp), %rcx
	movq	%rcx, -4216(%rbp)
	movq	%rax, -4208(%rbp)
Ltmp833:
	.loc	28 328 9 is_stmt 1
	leaq	l___unnamed_33(%rip), %rax
Ltmp834:
	movq	%rax, -2176(%rbp)
	movq	$3, -2168(%rbp)
	movq	$0, -2160(%rbp)
	leaq	-4232(%rbp), %rax
Ltmp835:
	movq	%rax, -2144(%rbp)
	movq	$2, -2136(%rbp)
Ltmp836:
	.loc	12 566 9
	leaq	l___unnamed_41(%rip), %rsi
	leaq	-2176(%rbp), %rdi
Ltmp837:
	callq	__ZN3std9panicking15begin_panic_fmt17h8712912d987f10a1E
Ltmp838:
LBB41_11:
	.loc	12 0 9 is_stmt 0
	leaq	-40(%rbp), %rax
Ltmp839:
	.loc	12 567 9 is_stmt 1
	movq	%rax, -48(%rbp)
	leaq	__ZN15crossbeam_epoch5guard11unprotected11UNPROTECTED17h0d04c8d05da67ee1E(%rip), %rax
	movq	%rax, -120(%rbp)
	leaq	-48(%rbp), %rax
Ltmp840:
	.loc	12 567 9 is_stmt 0
	movq	%rax, -4232(%rbp)
	leaq	__ZN42_$LT$$RF$T$u20$as$u20$core..fmt..Debug$GT$3fmt17hf891e1cbd6e549f3E(%rip), %rax
	movq	%rax, -4224(%rbp)
	leaq	-120(%rbp), %rcx
	movq	%rcx, -4216(%rbp)
	movq	%rax, -4208(%rbp)
Ltmp841:
	.loc	28 328 9 is_stmt 1
	leaq	l___unnamed_33(%rip), %rax
Ltmp842:
	movq	%rax, -2176(%rbp)
	movq	$3, -2168(%rbp)
	movq	$0, -2160(%rbp)
	leaq	-4232(%rbp), %rax
Ltmp843:
	movq	%rax, -2144(%rbp)
	movq	$2, -2136(%rbp)
Ltmp844:
	.loc	12 567 9
	leaq	l___unnamed_42(%rip), %rsi
	leaq	-2176(%rbp), %rdi
	callq	__ZN3std9panicking15begin_panic_fmt17h8712912d987f10a1E
Ltmp845:
LBB41_24:
	.loc	12 0 9 is_stmt 0
	leaq	-64(%rbp), %rax
Ltmp846:
	.loc	12 480 17 is_stmt 1
	movq	%rax, -40(%rbp)
	leaq	-72(%rbp), %rax
	movq	%rax, -48(%rbp)
Ltmp847:
	.loc	28 328 9
	leaq	l___unnamed_43(%rip), %rax
Ltmp848:
	movq	%rax, -2176(%rbp)
	movq	$1, -2168(%rbp)
	movq	$0, -2160(%rbp)
	leaq	__ZN15crossbeam_epoch7default9COLLECTOR17he3b8b99f656df754E(%rip), %rax
Ltmp849:
	movq	%rax, -2144(%rbp)
	movq	$0, -2136(%rbp)
	leaq	-40(%rbp), %rax
Ltmp850:
	.loc	12 480 17
	movq	%rax, -4232(%rbp)
	leaq	__ZN42_$LT$$RF$T$u20$as$u20$core..fmt..Debug$GT$3fmt17h0bf75db950699a62E(%rip), %rax
	movq	%rax, -4224(%rbp)
	leaq	-48(%rbp), %rcx
Ltmp851:
	movq	%rcx, -4216(%rbp)
	movq	%rax, -4208(%rbp)
	leaq	-2176(%rbp), %rax
	movq	%rax, -4200(%rbp)
	movq	__ZN59_$LT$core..fmt..Arguments$u20$as$u20$core..fmt..Display$GT$3fmt17hca54f9d63261f398E@GOTPCREL(%rip), %rax
	movq	%rax, -4192(%rbp)
Ltmp852:
	.loc	28 328 9
	leaq	l___unnamed_44(%rip), %rax
Ltmp853:
	movq	%rax, -120(%rbp)
	movq	$3, -112(%rbp)
	movq	$0, -104(%rbp)
	leaq	-4232(%rbp), %rax
Ltmp854:
	movq	%rax, -88(%rbp)
	movq	$3, -80(%rbp)
Ltmp855:
Ltmp741:
	.loc	12 480 17
	leaq	l___unnamed_45(%rip), %rsi
	leaq	-120(%rbp), %rdi
	callq	__ZN3std9panicking15begin_panic_fmt17h8712912d987f10a1E
Ltmp742:
	jmp	LBB41_10
Ltmp856:
LBB41_8:
	.loc	10 279 19
	movl	$2072, %edi
	movl	$8, %esi
	callq	__ZN5alloc5alloc18handle_alloc_error17h28974197717b8939E
Ltmp857:
LBB41_26:
	.loc	12 508 30
	leaq	_str.1(%rip), %rdi
Ltmp858:
	leaq	l___unnamed_28(%rip), %rdx
	movl	$33, %esi
	callq	__ZN4core9panicking5panic17h383a6b80ea7021aaE
Ltmp859:
LBB41_9:
Ltmp745:
	.loc	12 0 30 is_stmt 0
	movq	%rax, %rbx
	leaq	-56(%rbp), %rdi
Ltmp860:
	.loc	12 502 5 is_stmt 1
	callq	__ZN4core3ptr13drop_in_place17h3f6e39fcb595a67eE
	movq	%rbx, %rdi
	callq	__Unwind_Resume
Ltmp861:
LBB41_10:
	.loc	12 0 5 is_stmt 0
	ud2
Lfunc_end41:
	.cfi_endproc
	.file	42 "/rustc/6c8927b0cf80ceee19386026cf9d7fd4fd9d486f/src/libcore/num/wrapping.rs"
	.section	__TEXT,__gcc_except_tab
	.p2align	2
GCC_except_table41:
Lexception3:
	.byte	255
	.byte	255
	.byte	1
	.uleb128 Lcst_end3-Lcst_begin3
Lcst_begin3:
	.uleb128 Lfunc_begin41-Lfunc_begin41
	.uleb128 Ltmp743-Lfunc_begin41
	.byte	0
	.byte	0
	.uleb128 Ltmp743-Lfunc_begin41
	.uleb128 Ltmp744-Ltmp743
	.uleb128 Ltmp745-Lfunc_begin41
	.byte	0
	.uleb128 Ltmp744-Lfunc_begin41
	.uleb128 Ltmp741-Ltmp744
	.byte	0
	.byte	0
	.uleb128 Ltmp741-Lfunc_begin41
	.uleb128 Ltmp742-Ltmp741
	.uleb128 Ltmp745-Lfunc_begin41
	.byte	0
	.uleb128 Ltmp742-Lfunc_begin41
	.uleb128 Lfunc_end41-Ltmp742
	.byte	0
	.byte	0
Lcst_end3:
	.p2align	2

	.section	__TEXT,__text,regular,pure_instructions
	.globl	__ZN131_$LT$crossbeam_epoch..internal..Local$u20$as$u20$crossbeam_epoch..sync..list..IsElement$LT$crossbeam_epoch..internal..Local$GT$$GT$8entry_of17h7e528bb3a598f65aE
	.p2align	4, 0x90
__ZN131_$LT$crossbeam_epoch..internal..Local$u20$as$u20$crossbeam_epoch..sync..list..IsElement$LT$crossbeam_epoch..internal..Local$GT$$GT$8entry_of17h7e528bb3a598f65aE:
Lfunc_begin42:
	.loc	12 599 0 is_stmt 1
	.cfi_startproc
	pushq	%rbp
	.cfi_def_cfa_offset 16
	.cfi_offset %rbp, -16
	movq	%rsp, %rbp
	.cfi_def_cfa_register %rbp
	movq	%rdi, %rax
Ltmp862:
	.loc	12 602 6 prologue_end
	popq	%rbp
	retq
Ltmp863:
Lfunc_end42:
	.cfi_endproc

	.globl	__ZN131_$LT$crossbeam_epoch..internal..Local$u20$as$u20$crossbeam_epoch..sync..list..IsElement$LT$crossbeam_epoch..internal..Local$GT$$GT$10element_of17haa23ef1a62283971E
	.p2align	4, 0x90
__ZN131_$LT$crossbeam_epoch..internal..Local$u20$as$u20$crossbeam_epoch..sync..list..IsElement$LT$crossbeam_epoch..internal..Local$GT$$GT$10element_of17haa23ef1a62283971E:
Lfunc_begin43:
	.loc	12 604 0
	.cfi_startproc
	pushq	%rbp
	.cfi_def_cfa_offset 16
	.cfi_offset %rbp, -16
	movq	%rsp, %rbp
	.cfi_def_cfa_register %rbp
	movq	%rdi, %rax
Ltmp864:
	.loc	12 609 6 prologue_end
	popq	%rbp
	retq
Ltmp865:
Lfunc_end43:
	.cfi_endproc

	.globl	__ZN131_$LT$crossbeam_epoch..internal..Local$u20$as$u20$crossbeam_epoch..sync..list..IsElement$LT$crossbeam_epoch..internal..Local$GT$$GT$8finalize17h44ff5f428c5e41f9E
	.p2align	4, 0x90
__ZN131_$LT$crossbeam_epoch..internal..Local$u20$as$u20$crossbeam_epoch..sync..list..IsElement$LT$crossbeam_epoch..internal..Local$GT$$GT$8finalize17h44ff5f428c5e41f9E:
Lfunc_begin44:
	.loc	12 611 0
	.cfi_startproc
	.cfi_personality 155, _rust_eh_personality
	.cfi_lsda 16, Lexception4
	pushq	%rbp
	.cfi_def_cfa_offset 16
	.cfi_offset %rbp, -16
	movq	%rsp, %rbp
	.cfi_def_cfa_register %rbp
	pushq	%r15
	pushq	%r14
	pushq	%r13
	pushq	%r12
	pushq	%rbx
	andq	$-32, %rsp
	subq	$128, %rsp
	.cfi_offset %rbx, -56
	.cfi_offset %r12, -48
	.cfi_offset %r13, -40
	.cfi_offset %r14, -32
	.cfi_offset %r15, -24
	movq	%rdi, %r14
Ltmp872:
	.loc	1 194 30 prologue_end
	movq	(%rsi), %rdi
	.loc	1 194 16 is_stmt 0
	testq	%rdi, %rdi
	je	LBB44_1
Ltmp873:
	.loc	35 49 17 is_stmt 1
	leaq	__ZN15crossbeam_epoch8deferred8Deferred3new4call17hfb7abf97e0e8a08bE(%rip), %rax
	movq	%rax, (%rsp)
	movq	%r14, 8(%rsp)
	movq	%rsp, %rsi
Ltmp874:
	.loc	1 195 13
	callq	__ZN15crossbeam_epoch8internal5Local5defer17h9747dd46e10480a8E
Ltmp875:
	.loc	1 0 13 is_stmt 0
	jmp	LBB44_13
Ltmp876:
LBB44_1:
	.loc	12 198 47 is_stmt 1
	movq	2072(%r14), %r12
Ltmp877:
	.loc	30 3179 19
	cmpq	$65, %r12
	.loc	30 3179 16 is_stmt 0
	jae	LBB44_2
Ltmp878:
	.loc	32 165 18 is_stmt 1
	shlq	$5, %r12
Ltmp879:
	.loc	30 3570 21
	je	LBB44_8
Ltmp880:
	.loc	14 0 0 is_stmt 0
	leaq	24(%r14), %r13
Ltmp881:
	leaq	8(%rsp), %r15
	xorl	%ebx, %ebx
	leaq	__ZN15crossbeam_epoch8deferred8Deferred3new4call17h97a0ccaced4abd05E(%rip), %rax
	movq	%rax, %xmm0
	movdqa	%xmm0, 48(%rsp)
Ltmp882:
	.p2align	4, 0x90
LBB44_6:
	.loc	12 200 57 is_stmt 1
	movlps	48(%rsp), %xmm1
Ltmp883:
	.loc	7 2130 14
	movdqu	(%r13,%rbx), %xmm2
	movups	16(%r13,%rbx), %xmm3
Ltmp884:
	.loc	7 2130 14 is_stmt 0
	movups	%xmm0, 16(%r13,%rbx)
	movups	%xmm1, (%r13,%rbx)
Ltmp885:
	.loc	7 0 14
	movaps	%xmm3, 64(%rsp)
Ltmp886:
	.loc	12 201 13 is_stmt 1
	movaps	%xmm3, 16(%rsp)
	movdqa	%xmm2, (%rsp)
	movdqa	%xmm2, 80(%rsp)
Ltmp887:
	.loc	35 76 20
	movq	%xmm2, %rax
Ltmp866:
Ltmp888:
	.loc	35 77 18
	movq	%r15, %rdi
	callq	*%rax
Ltmp889:
Ltmp867:
	.loc	30 3440 9
	addq	$32, %rbx
	cmpq	%rbx, %r12
	movaps	80(%rsp), %xmm1
	movaps	64(%rsp), %xmm0
	.loc	30 3570 21
	jne	LBB44_6
Ltmp890:
LBB44_8:
	.loc	10 102 14
	movl	$2104, %esi
	movl	$8, %edx
	movq	%r14, %rdi
	callq	___rust_dealloc
Ltmp891:
LBB44_13:
	.loc	12 613 6
	leaq	-40(%rbp), %rsp
	popq	%rbx
	popq	%r12
	popq	%r13
	popq	%r14
Ltmp892:
	popq	%r15
	popq	%rbp
	retq
LBB44_2:
Ltmp893:
Ltmp869:
	.loc	30 3180 13
	leaq	l___unnamed_29(%rip), %rdx
	movl	$64, %esi
Ltmp894:
	movq	%r12, %rdi
	callq	__ZN4core5slice24slice_end_index_len_fail17hea9e3399ed430f80E
Ltmp870:
Ltmp895:
	ud2
Ltmp896:
LBB44_10:
Ltmp871:
	.loc	30 0 13 is_stmt 0
	jmp	LBB44_11
Ltmp897:
LBB44_9:
Ltmp868:
LBB44_11:
	movq	%rax, %rbx
	.loc	14 184 1 is_stmt 1
	movq	%r14, %rdi
	callq	__ZN5alloc5alloc8box_free17hf0568cbeb1f4d732E
	movq	%rbx, %rdi
	callq	__Unwind_Resume
	ud2
Ltmp898:
Lfunc_end44:
	.cfi_endproc
	.section	__TEXT,__gcc_except_tab
	.p2align	2
GCC_except_table44:
Lexception4:
	.byte	255
	.byte	255
	.byte	1
	.uleb128 Lcst_end4-Lcst_begin4
Lcst_begin4:
	.uleb128 Lfunc_begin44-Lfunc_begin44
	.uleb128 Ltmp866-Lfunc_begin44
	.byte	0
	.byte	0
	.uleb128 Ltmp866-Lfunc_begin44
	.uleb128 Ltmp867-Ltmp866
	.uleb128 Ltmp868-Lfunc_begin44
	.byte	0
	.uleb128 Ltmp869-Lfunc_begin44
	.uleb128 Ltmp870-Ltmp869
	.uleb128 Ltmp871-Lfunc_begin44
	.byte	0
	.uleb128 Ltmp870-Lfunc_begin44
	.uleb128 Lfunc_end44-Ltmp870
	.byte	0
	.byte	0
Lcst_end4:
	.p2align	2

	.section	__TEXT,__text,regular,pure_instructions
	.globl	__ZN77_$LT$crossbeam_epoch..sync..list..Entry$u20$as$u20$core..default..Default$GT$7default17hbb6247dd77875530E
	.p2align	4, 0x90
__ZN77_$LT$crossbeam_epoch..sync..list..Entry$u20$as$u20$core..default..Default$GT$7default17hbb6247dd77875530E:
Lfunc_begin45:
	.loc	26 133 0
	.cfi_startproc
	pushq	%rbp
	.cfi_def_cfa_offset 16
	.cfi_offset %rbp, -16
	movq	%rsp, %rbp
	.cfi_def_cfa_register %rbp
Ltmp899:
	.loc	26 137 6 prologue_end
	xorl	%eax, %eax
	popq	%rbp
	retq
Ltmp900:
Lfunc_end45:
	.cfi_endproc

	.globl	__ZN66_$LT$crossbeam_epoch..epoch..Epoch$u20$as$u20$core..fmt..Debug$GT$3fmt17hdf0f84e88eb5dd39E
	.p2align	4, 0x90
__ZN66_$LT$crossbeam_epoch..epoch..Epoch$u20$as$u20$core..fmt..Debug$GT$3fmt17hdf0f84e88eb5dd39E:
Lfunc_begin46:
	.loc	33 16 0
	.cfi_startproc
	pushq	%rbp
	.cfi_def_cfa_offset 16
	.cfi_offset %rbp, -16
	movq	%rsp, %rbp
	.cfi_def_cfa_register %rbp
	pushq	%r14
	pushq	%rbx
	subq	$32, %rsp
	.cfi_offset %rbx, -32
	.cfi_offset %r14, -24
	movq	%rdi, %rbx
Ltmp901:
	.loc	33 16 32 prologue_end
	leaq	l___unnamed_19(%rip), %rdx
	leaq	-40(%rbp), %r14
	movl	$5, %ecx
	movq	%r14, %rdi
	callq	__ZN4core3fmt9Formatter12debug_struct17ha1a64e91d2a98458E
Ltmp902:
	.loc	33 19 5
	movq	%rbx, -24(%rbp)
	.loc	33 16 32
	leaq	L___unnamed_20(%rip), %rsi
	leaq	l___unnamed_8(%rip), %r8
	leaq	-24(%rbp), %rcx
	movl	$4, %edx
	movq	%r14, %rdi
	callq	__ZN4core3fmt8builders11DebugStruct5field17h6c54d35ac41bb1e6E
	movq	%r14, %rdi
	callq	__ZN4core3fmt8builders11DebugStruct6finish17h67ed49fd5e81bb24E
Ltmp903:
	.loc	33 16 37 is_stmt 0
	addq	$32, %rsp
	popq	%rbx
Ltmp904:
	popq	%r14
	popq	%rbp
	retq
Ltmp905:
Lfunc_end46:
	.cfi_endproc

	.globl	__ZN72_$LT$crossbeam_epoch..epoch..AtomicEpoch$u20$as$u20$core..fmt..Debug$GT$3fmt17ha1b62441c1da4157E
	.p2align	4, 0x90
__ZN72_$LT$crossbeam_epoch..epoch..AtomicEpoch$u20$as$u20$core..fmt..Debug$GT$3fmt17ha1b62441c1da4157E:
Lfunc_begin47:
	.loc	33 74 0 is_stmt 1
	.cfi_startproc
	pushq	%rbp
	.cfi_def_cfa_offset 16
	.cfi_offset %rbp, -16
	movq	%rsp, %rbp
	.cfi_def_cfa_register %rbp
	pushq	%r14
	pushq	%rbx
	subq	$32, %rsp
	.cfi_offset %rbx, -32
	.cfi_offset %r14, -24
	movq	%rdi, %rbx
Ltmp906:
	.loc	33 74 19 prologue_end
	leaq	l___unnamed_46(%rip), %rdx
	leaq	-40(%rbp), %r14
	movl	$11, %ecx
	movq	%r14, %rdi
	callq	__ZN4core3fmt9Formatter12debug_struct17ha1a64e91d2a98458E
Ltmp907:
	.loc	33 78 5
	movq	%rbx, -24(%rbp)
	.loc	33 74 19
	leaq	L___unnamed_20(%rip), %rsi
	leaq	l___unnamed_9(%rip), %r8
	leaq	-24(%rbp), %rcx
	movl	$4, %edx
	movq	%r14, %rdi
	callq	__ZN4core3fmt8builders11DebugStruct5field17h6c54d35ac41bb1e6E
	movq	%r14, %rdi
	callq	__ZN4core3fmt8builders11DebugStruct6finish17h67ed49fd5e81bb24E
Ltmp908:
	.loc	33 74 24 is_stmt 0
	addq	$32, %rsp
	popq	%rbx
Ltmp909:
	popq	%r14
	popq	%rbp
	retq
Ltmp910:
Lfunc_end47:
	.cfi_endproc

	.globl	__ZN73_$LT$crossbeam_epoch..internal..SealedBag$u20$as$u20$core..fmt..Debug$GT$3fmt17h4a687648b834fda1E
	.p2align	4, 0x90
__ZN73_$LT$crossbeam_epoch..internal..SealedBag$u20$as$u20$core..fmt..Debug$GT$3fmt17h4a687648b834fda1E:
Lfunc_begin48:
	.loc	12 218 0 is_stmt 1
	.cfi_startproc
	pushq	%rbp
	.cfi_def_cfa_offset 16
	.cfi_offset %rbp, -16
	movq	%rsp, %rbp
	.cfi_def_cfa_register %rbp
	pushq	%r14
	pushq	%rbx
	subq	$32, %rsp
	.cfi_offset %rbx, -32
	.cfi_offset %r14, -24
	movq	%rdi, %rbx
Ltmp911:
	.loc	12 218 19 prologue_end
	leaq	l___unnamed_47(%rip), %rdx
	leaq	-40(%rbp), %r14
	movl	$9, %ecx
	movq	%r14, %rdi
	callq	__ZN4core3fmt9Formatter12debug_struct17ha1a64e91d2a98458E
Ltmp912:
	.loc	12 220 5
	movq	%rbx, -24(%rbp)
Ltmp913:
	.loc	12 221 5
	addq	$8, %rbx
Ltmp914:
	.loc	12 218 19
	leaq	l___unnamed_48(%rip), %rsi
	leaq	l___unnamed_10(%rip), %r8
	leaq	-24(%rbp), %rcx
	movl	$5, %edx
	movq	%r14, %rdi
	callq	__ZN4core3fmt8builders11DebugStruct5field17h6c54d35ac41bb1e6E
	.loc	12 221 5
	movq	%rbx, -24(%rbp)
	.loc	12 218 19
	leaq	l___unnamed_49(%rip), %rsi
	leaq	l___unnamed_11(%rip), %r8
	leaq	-24(%rbp), %rcx
	movl	$3, %edx
	movq	%r14, %rdi
	callq	__ZN4core3fmt8builders11DebugStruct5field17h6c54d35ac41bb1e6E
	movq	%r14, %rdi
	callq	__ZN4core3fmt8builders11DebugStruct6finish17h67ed49fd5e81bb24E
Ltmp915:
	.loc	12 218 24 is_stmt 0
	addq	$32, %rsp
	popq	%rbx
	popq	%r14
	popq	%rbp
	retq
Ltmp916:
Lfunc_end48:
	.cfi_endproc

	.globl	__ZN71_$LT$crossbeam_epoch..sync..list..Entry$u20$as$u20$core..fmt..Debug$GT$3fmt17hebb862060645d6ddE
	.p2align	4, 0x90
__ZN71_$LT$crossbeam_epoch..sync..list..Entry$u20$as$u20$core..fmt..Debug$GT$3fmt17hebb862060645d6ddE:
Lfunc_begin49:
	.loc	26 15 0 is_stmt 1
	.cfi_startproc
	pushq	%rbp
	.cfi_def_cfa_offset 16
	.cfi_offset %rbp, -16
	movq	%rsp, %rbp
	.cfi_def_cfa_register %rbp
	pushq	%r14
	pushq	%rbx
	subq	$32, %rsp
	.cfi_offset %rbx, -32
	.cfi_offset %r14, -24
	movq	%rdi, %rbx
Ltmp917:
	.loc	26 15 10 prologue_end
	leaq	l___unnamed_50(%rip), %rdx
	leaq	-40(%rbp), %r14
	movl	$5, %ecx
	movq	%r14, %rdi
	callq	__ZN4core3fmt9Formatter12debug_struct17ha1a64e91d2a98458E
Ltmp918:
	.loc	26 19 5
	movq	%rbx, -24(%rbp)
	.loc	26 15 10
	leaq	L___unnamed_51(%rip), %rsi
	leaq	l___unnamed_12(%rip), %r8
	leaq	-24(%rbp), %rcx
	movl	$4, %edx
	movq	%r14, %rdi
	callq	__ZN4core3fmt8builders11DebugStruct5field17h6c54d35ac41bb1e6E
	movq	%r14, %rdi
	callq	__ZN4core3fmt8builders11DebugStruct6finish17h67ed49fd5e81bb24E
Ltmp919:
	.loc	26 15 15 is_stmt 0
	addq	$32, %rsp
	popq	%rbx
Ltmp920:
	popq	%r14
	popq	%rbp
	retq
Ltmp921:
Lfunc_end49:
	.cfi_endproc

	.globl	__ZN75_$LT$crossbeam_epoch..sync..list..IterError$u20$as$u20$core..fmt..Debug$GT$3fmt17hd149d3e00da95b6fE
	.p2align	4, 0x90
__ZN75_$LT$crossbeam_epoch..sync..list..IterError$u20$as$u20$core..fmt..Debug$GT$3fmt17hd149d3e00da95b6fE:
Lfunc_begin50:
	.loc	26 124 0 is_stmt 1
	.cfi_startproc
	pushq	%rbp
	.cfi_def_cfa_offset 16
	.cfi_offset %rbp, -16
	movq	%rsp, %rbp
	.cfi_def_cfa_register %rbp
Ltmp922:
	pushq	%rbx
	subq	$24, %rsp
	.cfi_offset %rbx, -24
	.loc	26 124 21 prologue_end
	leaq	l___unnamed_52(%rip), %rdx
	leaq	-32(%rbp), %rbx
	movl	$7, %ecx
	movq	%rbx, %rdi
Ltmp923:
	callq	__ZN4core3fmt9Formatter11debug_tuple17h6c448643801d07e8E
Ltmp924:
	.loc	26 124 21 is_stmt 0
	movq	%rbx, %rdi
	callq	__ZN4core3fmt8builders10DebugTuple6finish17h9f206806f7096c33E
Ltmp925:
	.loc	26 124 26
	addq	$24, %rsp
	popq	%rbx
	popq	%rbp
	retq
Ltmp926:
Lfunc_end50:
	.cfi_endproc

	.globl	__ZN15crossbeam_epoch7default17default_collector17h6fa95088ecf42566E
	.p2align	4, 0x90
__ZN15crossbeam_epoch7default17default_collector17h6fa95088ecf42566E:
Lfunc_begin51:
	.loc	23 33 0 is_stmt 1
	.cfi_startproc
	pushq	%rbp
	.cfi_def_cfa_offset 16
	.cfi_offset %rbp, -16
	movq	%rsp, %rbp
	.cfi_def_cfa_register %rbp
	subq	$32, %rsp
	leaq	__ZN79_$LT$crossbeam_epoch..default..COLLECTOR$u20$as$u20$core..ops..deref..Deref$GT$5deref11__stability4LAZY17h871a109a05c5dde6E(%rip), %rax
Ltmp927:
	movq	%rax, -8(%rbp)
Ltmp928:
	.loc	15 2355 24 prologue_end
	movq	__ZN79_$LT$crossbeam_epoch..default..COLLECTOR$u20$as$u20$core..ops..deref..Deref$GT$5deref11__stability4LAZY17h871a109a05c5dde6E+8(%rip), %rax
Ltmp929:
	.loc	6 374 9
	cmpq	$3, %rax
Ltmp930:
	.loc	6 260 9
	jne	LBB51_1
Ltmp931:
	.loc	9 37 20
	movq	-8(%rbp), %rax
Ltmp932:
	.loc	9 38 17
	cmpq	$0, (%rax)
	je	LBB51_4
Ltmp933:
LBB51_3:
	.loc	23 35 2
	addq	$32, %rsp
	popq	%rbp
	retq
LBB51_1:
Ltmp934:
	.loc	23 0 2 is_stmt 0
	leaq	-8(%rbp), %rax
Ltmp935:
	.loc	6 264 21 is_stmt 1
	movq	%rax, -16(%rbp)
	leaq	-16(%rbp), %rax
Ltmp936:
	.loc	6 265 37
	movq	%rax, -24(%rbp)
	.loc	6 265 9 is_stmt 0
	leaq	__ZN79_$LT$crossbeam_epoch..default..COLLECTOR$u20$as$u20$core..ops..deref..Deref$GT$5deref11__stability4LAZY17h871a109a05c5dde6E+8(%rip), %rdi
	leaq	l___unnamed_1(%rip), %rcx
	leaq	-24(%rbp), %rdx
	xorl	%esi, %esi
	callq	__ZN3std4sync4once4Once10call_inner17hfcd38045e50af9d3E
Ltmp937:
	.loc	9 37 20 is_stmt 1
	movq	-8(%rbp), %rax
Ltmp938:
	.loc	9 38 17
	cmpq	$0, (%rax)
	jne	LBB51_3
Ltmp939:
LBB51_4:
	.loc	16 10 9
	leaq	l___unnamed_15(%rip), %rdi
	leaq	l___unnamed_16(%rip), %rdx
	movl	$66, %esi
	callq	__ZN4core9panicking5panic17h383a6b80ea7021aaE
Ltmp940:
Lfunc_end51:
	.cfi_endproc

	.globl	__ZN79_$LT$crossbeam_epoch..default..COLLECTOR$u20$as$u20$core..ops..deref..Deref$GT$5deref17hda80b3dd22b10c71E
	.p2align	4, 0x90
__ZN79_$LT$crossbeam_epoch..default..COLLECTOR$u20$as$u20$core..ops..deref..Deref$GT$5deref17hda80b3dd22b10c71E:
Lfunc_begin52:
	.loc	2 135 0
	.cfi_startproc
	pushq	%rbp
	.cfi_def_cfa_offset 16
	.cfi_offset %rbp, -16
	movq	%rsp, %rbp
	.cfi_def_cfa_register %rbp
	subq	$32, %rsp
	leaq	__ZN79_$LT$crossbeam_epoch..default..COLLECTOR$u20$as$u20$core..ops..deref..Deref$GT$5deref11__stability4LAZY17h871a109a05c5dde6E(%rip), %rax
Ltmp941:
	movq	%rax, -8(%rbp)
Ltmp942:
	.loc	15 2355 24 prologue_end
	movq	__ZN79_$LT$crossbeam_epoch..default..COLLECTOR$u20$as$u20$core..ops..deref..Deref$GT$5deref11__stability4LAZY17h871a109a05c5dde6E+8(%rip), %rax
Ltmp943:
	.loc	6 374 9
	cmpq	$3, %rax
Ltmp944:
	.loc	6 260 9
	jne	LBB52_1
Ltmp945:
	.loc	9 37 20
	movq	-8(%rbp), %rax
Ltmp946:
	.loc	9 38 17
	cmpq	$0, (%rax)
	je	LBB52_4
Ltmp947:
LBB52_3:
	.loc	2 145 14
	addq	$32, %rsp
	popq	%rbp
	retq
LBB52_1:
Ltmp948:
	.loc	2 0 14 is_stmt 0
	leaq	-8(%rbp), %rax
Ltmp949:
	.loc	6 264 21 is_stmt 1
	movq	%rax, -16(%rbp)
	leaq	-16(%rbp), %rax
Ltmp950:
	.loc	6 265 37
	movq	%rax, -24(%rbp)
	.loc	6 265 9 is_stmt 0
	leaq	__ZN79_$LT$crossbeam_epoch..default..COLLECTOR$u20$as$u20$core..ops..deref..Deref$GT$5deref11__stability4LAZY17h871a109a05c5dde6E+8(%rip), %rdi
	leaq	l___unnamed_1(%rip), %rcx
	leaq	-24(%rbp), %rdx
	xorl	%esi, %esi
	callq	__ZN3std4sync4once4Once10call_inner17hfcd38045e50af9d3E
Ltmp951:
	.loc	9 37 20 is_stmt 1
	movq	-8(%rbp), %rax
Ltmp952:
	.loc	9 38 17
	cmpq	$0, (%rax)
	jne	LBB52_3
Ltmp953:
LBB52_4:
	.loc	16 10 9
	leaq	l___unnamed_15(%rip), %rdi
	leaq	l___unnamed_16(%rip), %rdx
	movl	$66, %esi
	callq	__ZN4core9panicking5panic17h383a6b80ea7021aaE
Ltmp954:
Lfunc_end52:
	.cfi_endproc

	.globl	__ZN79_$LT$crossbeam_epoch..default..COLLECTOR$u20$as$u20$lazy_static..LazyStatic$GT$10initialize17h83eac7117384a8e0E
	.p2align	4, 0x90
__ZN79_$LT$crossbeam_epoch..default..COLLECTOR$u20$as$u20$lazy_static..LazyStatic$GT$10initialize17h83eac7117384a8e0E:
Lfunc_begin53:
	.loc	2 148 0
	.cfi_startproc
	pushq	%rbp
	.cfi_def_cfa_offset 16
	.cfi_offset %rbp, -16
	movq	%rsp, %rbp
	.cfi_def_cfa_register %rbp
	subq	$32, %rsp
	leaq	__ZN79_$LT$crossbeam_epoch..default..COLLECTOR$u20$as$u20$core..ops..deref..Deref$GT$5deref11__stability4LAZY17h871a109a05c5dde6E(%rip), %rax
Ltmp955:
	movq	%rax, -8(%rbp)
Ltmp956:
	.loc	15 2355 24 prologue_end
	movq	__ZN79_$LT$crossbeam_epoch..default..COLLECTOR$u20$as$u20$core..ops..deref..Deref$GT$5deref11__stability4LAZY17h871a109a05c5dde6E+8(%rip), %rax
Ltmp957:
	.loc	6 374 9
	cmpq	$3, %rax
Ltmp958:
	.loc	6 260 9
	jne	LBB53_1
Ltmp959:
	.loc	9 37 20
	movq	-8(%rbp), %rax
Ltmp960:
	.loc	9 38 17
	cmpq	$0, (%rax)
	je	LBB53_4
Ltmp961:
LBB53_3:
	.loc	2 150 14
	addq	$32, %rsp
	popq	%rbp
	retq
LBB53_1:
Ltmp962:
	.loc	2 0 14 is_stmt 0
	leaq	-8(%rbp), %rax
Ltmp963:
	.loc	6 264 21 is_stmt 1
	movq	%rax, -16(%rbp)
	leaq	-16(%rbp), %rax
Ltmp964:
	.loc	6 265 37
	movq	%rax, -24(%rbp)
	.loc	6 265 9 is_stmt 0
	leaq	__ZN79_$LT$crossbeam_epoch..default..COLLECTOR$u20$as$u20$core..ops..deref..Deref$GT$5deref11__stability4LAZY17h871a109a05c5dde6E+8(%rip), %rdi
Ltmp965:
	leaq	l___unnamed_1(%rip), %rcx
	leaq	-24(%rbp), %rdx
	xorl	%esi, %esi
	callq	__ZN3std4sync4once4Once10call_inner17hfcd38045e50af9d3E
Ltmp966:
	.loc	9 37 20 is_stmt 1
	movq	-8(%rbp), %rax
Ltmp967:
	.loc	9 38 17
	cmpq	$0, (%rax)
	jne	LBB53_3
Ltmp968:
LBB53_4:
	.loc	16 10 9
	leaq	l___unnamed_15(%rip), %rdi
	leaq	l___unnamed_16(%rip), %rdx
	movl	$66, %esi
	callq	__ZN4core9panicking5panic17h383a6b80ea7021aaE
Ltmp969:
Lfunc_end53:
	.cfi_endproc

	.globl	__ZN15crossbeam_epoch7default6HANDLE7__getit17h993e4fd3ba54e1f2E
	.p2align	4, 0x90
__ZN15crossbeam_epoch7default6HANDLE7__getit17h993e4fd3ba54e1f2E:
Lfunc_begin54:
	.loc	4 155 0
	.cfi_startproc
	pushq	%rbp
	.cfi_def_cfa_offset 16
	.cfi_offset %rbp, -16
	movq	%rsp, %rbp
	.cfi_def_cfa_register %rbp
Ltmp970:
	.loc	8 268 13 prologue_end
	movq	__ZN15crossbeam_epoch7default6HANDLE7__getit5__KEY17h43587ce4d2ed7131E@TLVP(%rip), %rdi
	callq	*(%rdi)
	cmpl	$1, (%rax)
Ltmp971:
	.loc	24 409 17
	jne	LBB54_2
Ltmp972:
	.loc	4 176 14
	movq	__ZN15crossbeam_epoch7default6HANDLE7__getit5__KEY17h43587ce4d2ed7131E@TLVP(%rip), %rdi
	callq	*(%rdi)
	addq	$8, %rax
	popq	%rbp
	retq
LBB54_2:
Ltmp973:
	.loc	24 410 25
	popq	%rbp
	jmp	__ZN3std6thread5local4fast12Key$LT$T$GT$14try_initialize17h431cd0b21bb9c614E
Ltmp974:
Lfunc_end54:
	.cfi_endproc

	.section	__TEXT,__const
l___unnamed_15:
	.ascii	"attempted to derefence an uninitialized lazy static. This is a bug"

l___unnamed_53:
	.ascii	"/rustc/6c8927b0cf80ceee19386026cf9d7fd4fd9d486f/src/libcore/macros/mod.rs"

	.section	__DATA,__const
	.p2align	3
l___unnamed_16:
	.quad	l___unnamed_53
	.asciz	"I\000\000\000\000\000\000\000\n\000\000\000\t\000\000"

	.p2align	3
l___unnamed_1:
	.quad	__ZN15crossbeam_epoch8deferred8Deferred3new4call17h97a0ccaced4abd05E
	.quad	8
	.quad	8
	.quad	__ZN3std4sync4once4Once9call_once28_$u7b$$u7b$closure$u7d$$u7d$17heef6cc50bd0a4148E
	.quad	__ZN4core3ops8function6FnOnce40call_once$u7b$$u7b$vtable.shim$u7d$$u7d$17hf3cc5c040feb3194E

	.section	__TEXT,__const
l___unnamed_54:
	.ascii	"/rustc/6c8927b0cf80ceee19386026cf9d7fd4fd9d486f/src/libstd/sync/once.rs"

	.section	__DATA,__const
	.p2align	3
l___unnamed_14:
	.quad	l___unnamed_54
	.asciz	"G\000\000\000\000\000\000\000\t\001\000\0002\000\000"

	.p2align	3
l___unnamed_2:
	.quad	__ZN15crossbeam_epoch8deferred8Deferred3new4call17h97a0ccaced4abd05E
	.quad	16
	.quad	8
	.quad	__ZN91_$LT$std..panicking..begin_panic..PanicPayload$LT$A$GT$$u20$as$u20$core..panic..BoxMeUp$GT$8take_box17h0301b95787d8655cE
	.quad	__ZN91_$LT$std..panicking..begin_panic..PanicPayload$LT$A$GT$$u20$as$u20$core..panic..BoxMeUp$GT$3get17h91e1bd7e314693c0E

	.p2align	3
l___unnamed_3:
	.quad	__ZN15crossbeam_epoch8deferred8Deferred3new4call17h97a0ccaced4abd05E
	.quad	8
	.quad	8
	.quad	__ZN42_$LT$$RF$T$u20$as$u20$core..fmt..Debug$GT$3fmt17hdc2f8c1928c52c3dE

	.section	__TEXT,__const
l___unnamed_13:
	.ascii	"called `Option::unwrap()` on a `None` value"

	.section	__DATA,__const
	.p2align	3
l___unnamed_4:
	.quad	__ZN15crossbeam_epoch8deferred8Deferred3new4call17h97a0ccaced4abd05E
	.quad	16
	.quad	8
	.quad	__ZN36_$LT$T$u20$as$u20$core..any..Any$GT$7type_id17he5bc23873143abb6E

	.section	__TEXT,__const
l___unnamed_55:
	.ascii	"assertion failed: `(left == right)`\n  left: `"

l___unnamed_56:
	.ascii	"`,\n right: `"

l___unnamed_57:
	.ascii	"`: "

	.section	__DATA,__const
	.p2align	3
l___unnamed_44:
	.quad	l___unnamed_55
	.asciz	"-\000\000\000\000\000\000"
	.quad	l___unnamed_56
	.asciz	"\f\000\000\000\000\000\000"
	.quad	l___unnamed_57
	.asciz	"\003\000\000\000\000\000\000"

	.section	__TEXT,__const
l___unnamed_58:
	.ascii	"/Users/yingyuhang/.cargo/registry/src/github.com-1ecc6299db9ec823/crossbeam-epoch-0.8.2/src/atomic.rs"

	.p2align	4
_str.1:
	.ascii	"attempt to subtract with overflow"

l___unnamed_24:
	.ascii	"Atomic"

l___unnamed_25:
	.ascii	"raw"

	.section	__DATA,__const
	.p2align	3
l___unnamed_5:
	.quad	__ZN15crossbeam_epoch8deferred8Deferred3new4call17h97a0ccaced4abd05E
	.quad	8
	.quad	8
	.quad	__ZN50_$LT$$BP$mut$u20$T$u20$as$u20$core..fmt..Debug$GT$3fmt17h8f9c7931e1819d46E

	.section	__TEXT,__const
l___unnamed_26:
	.ascii	"tag"

	.section	__DATA,__const
	.p2align	3
l___unnamed_6:
	.quad	__ZN15crossbeam_epoch8deferred8Deferred3new4call17h97a0ccaced4abd05E
	.quad	8
	.quad	8
	.quad	__ZN4core3fmt3num52_$LT$impl$u20$core..fmt..Debug$u20$for$u20$usize$GT$3fmt17h3ce1e8eb3a3c5c0bE

	.section	__TEXT,__const
l___unnamed_30:
	.ascii	"converting a null `Shared` into `Owned`"

	.section	__DATA,__const
	.p2align	3
l___unnamed_31:
	.quad	l___unnamed_58
	.asciz	"e\000\000\000\000\000\000\0004\004\000\000\t\000\000"

	.section	__TEXT,__literal16,16byte_literals
L___unnamed_35:
	.ascii	"Collector { .. }"

	.section	__TEXT,__const
l___unnamed_36:
	.ascii	"LocalHandle { .. }"

l___unnamed_27:
	.ascii	"Deferred { .. }"

l___unnamed_37:
	.ascii	"Guard { .. }"

	.globl	__ZN15crossbeam_epoch5guard11unprotected11UNPROTECTED17h0d04c8d05da67ee1E
	.p2align	3
__ZN15crossbeam_epoch5guard11unprotected11UNPROTECTED17h0d04c8d05da67ee1E:
	.space	8

l___unnamed_59:
	.ascii	"/Users/yingyuhang/.cargo/registry/src/github.com-1ecc6299db9ec823/crossbeam-epoch-0.8.2/src/internal.rs"

	.section	__DATA,__const
	.p2align	3
l___unnamed_40:
	.quad	l___unnamed_59
	.asciz	"g\000\000\000\000\000\000\000]\000\000\000\r\000\000"

	.section	__TEXT,__const
	.p2align	4
_str.2:
	.ascii	"attempt to add with overflow"

	.section	__DATA,__const
	.p2align	3
l___unnamed_29:
	.quad	l___unnamed_59
	.asciz	"g\000\000\000\000\000\000\000\306\000\000\000\036\000\000"

	.section	__TEXT,__const
l___unnamed_21:
	.ascii	"Bag"

l___unnamed_22:
	.ascii	"deferreds"

	.section	__DATA,__const
	.p2align	3
l___unnamed_23:
	.quad	l___unnamed_59
	.asciz	"g\000\000\000\000\000\000\000\322\000\000\000#\000\000"

	.p2align	3
l___unnamed_7:
	.quad	__ZN15crossbeam_epoch8deferred8Deferred3new4call17h97a0ccaced4abd05E
	.quad	16
	.quad	8
	.quad	__ZN42_$LT$$RF$T$u20$as$u20$core..fmt..Debug$GT$3fmt17h070a903bca2ba59aE

	.section	__TEXT,__const
l___unnamed_60:
	.ascii	"participant was expected to be unpinned"

	.section	__DATA,__const
	.p2align	3
l___unnamed_43:
	.quad	l___unnamed_60
	.asciz	"'\000\000\000\000\000\000"

	.p2align	3
l___unnamed_45:
	.quad	l___unnamed_59
	.asciz	"g\000\000\000\000\000\000\000\340\001\000\000\021\000\000"

	.p2align	3
l___unnamed_28:
	.quad	l___unnamed_59
	.asciz	"g\000\000\000\000\000\000\000\374\001\000\000\036\000\000"

	.section	__TEXT,__const
l___unnamed_17:
	.ascii	"assertion failed: handle_count >= 1"

	.section	__DATA,__const
	.p2align	3
l___unnamed_18:
	.quad	l___unnamed_59
	.asciz	"g\000\000\000\000\000\000\000+\002\000\000\t\000\000"

	.section	__TEXT,__const
l___unnamed_61:
	.byte	96

	.section	__DATA,__const
	.p2align	3
l___unnamed_33:
	.quad	l___unnamed_55
	.asciz	"-\000\000\000\000\000\000"
	.quad	l___unnamed_56
	.asciz	"\f\000\000\000\000\000\000"
	.quad	l___unnamed_61
	.asciz	"\001\000\000\000\000\000\000"

	.p2align	3
l___unnamed_41:
	.quad	l___unnamed_59
	.asciz	"g\000\000\000\000\000\000\0006\002\000\000\t\000\000"

	.p2align	3
l___unnamed_42:
	.quad	l___unnamed_59
	.asciz	"g\000\000\000\000\000\000\0007\002\000\000\t\000\000"

	.section	__TEXT,__literal8,8byte_literals
	.p2align	3
L___unnamed_32:
	.asciz	"\001\000\000\000\000\000\000"

	.section	__TEXT,__const
l___unnamed_62:
	.ascii	"/Users/yingyuhang/.cargo/registry/src/github.com-1ecc6299db9ec823/crossbeam-epoch-0.8.2/src/sync/list.rs"

	.section	__DATA,__const
	.p2align	3
l___unnamed_34:
	.quad	l___unnamed_62
	.asciz	"h\000\000\000\000\000\000\000\342\000\000\000\021\000\000"

	.section	__TEXT,__const
l___unnamed_38:
	.ascii	"assertion failed: self.curr.tag() == 0"

	.section	__DATA,__const
	.p2align	3
l___unnamed_39:
	.quad	l___unnamed_62
	.asciz	"h\000\000\000\000\000\000\000\370\000\000\000\021\000\000"

	.section	__TEXT,__const
l___unnamed_19:
	.ascii	"Epoch"

	.section	__TEXT,__literal4,4byte_literals
L___unnamed_20:
	.ascii	"data"

	.section	__DATA,__const
	.p2align	3
l___unnamed_8:
	.quad	__ZN15crossbeam_epoch8deferred8Deferred3new4call17h97a0ccaced4abd05E
	.quad	8
	.quad	8
	.quad	__ZN42_$LT$$RF$T$u20$as$u20$core..fmt..Debug$GT$3fmt17hf891e1cbd6e549f3E

	.section	__TEXT,__const
l___unnamed_46:
	.ascii	"AtomicEpoch"

	.section	__DATA,__const
	.p2align	3
l___unnamed_9:
	.quad	__ZN15crossbeam_epoch8deferred8Deferred3new4call17h97a0ccaced4abd05E
	.quad	8
	.quad	8
	.quad	__ZN42_$LT$$RF$T$u20$as$u20$core..fmt..Debug$GT$3fmt17h03a2d4f492fcfd3dE

	.section	__TEXT,__const
l___unnamed_47:
	.ascii	"SealedBag"

l___unnamed_48:
	.ascii	"epoch"

	.section	__DATA,__const
	.p2align	3
l___unnamed_10:
	.quad	__ZN15crossbeam_epoch8deferred8Deferred3new4call17h97a0ccaced4abd05E
	.quad	8
	.quad	8
	.quad	__ZN42_$LT$$RF$T$u20$as$u20$core..fmt..Debug$GT$3fmt17h0bf75db950699a62E

	.section	__TEXT,__const
l___unnamed_49:
	.ascii	"bag"

	.section	__DATA,__const
	.p2align	3
l___unnamed_11:
	.quad	__ZN15crossbeam_epoch8deferred8Deferred3new4call17h97a0ccaced4abd05E
	.quad	8
	.quad	8
	.quad	__ZN42_$LT$$RF$T$u20$as$u20$core..fmt..Debug$GT$3fmt17h1bb9d1b4267826bbE

	.section	__TEXT,__const
l___unnamed_50:
	.ascii	"Entry"

	.section	__TEXT,__literal4,4byte_literals
L___unnamed_51:
	.ascii	"next"

	.section	__DATA,__const
	.p2align	3
l___unnamed_12:
	.quad	__ZN15crossbeam_epoch8deferred8Deferred3new4call17h97a0ccaced4abd05E
	.quad	8
	.quad	8
	.quad	__ZN42_$LT$$RF$T$u20$as$u20$core..fmt..Debug$GT$3fmt17h380fd9b58cdcc883E

	.section	__TEXT,__const
l___unnamed_52:
	.ascii	"Stalled"

	.globl	__ZN15crossbeam_epoch7default9COLLECTOR17he3b8b99f656df754E
	.p2align	3
__ZN15crossbeam_epoch7default9COLLECTOR17he3b8b99f656df754E:
	.byte	0

.zerofill __DATA,__bss,__ZN79_$LT$crossbeam_epoch..default..COLLECTOR$u20$as$u20$core..ops..deref..Deref$GT$5deref11__stability4LAZY17h871a109a05c5dde6E,16,3
	.section	__DATA,__thread_bss,thread_local_zerofill
	.p2align	3
__ZN15crossbeam_epoch7default6HANDLE7__getit5__KEY17h43587ce4d2ed7131E$tlv$init:
	.space	24

	.section	__DATA,__thread_vars,thread_local_variables
__ZN15crossbeam_epoch7default6HANDLE7__getit5__KEY17h43587ce4d2ed7131E:
	.quad	__tlv_bootstrap
	.quad	0
	.quad	__ZN15crossbeam_epoch7default6HANDLE7__getit5__KEY17h43587ce4d2ed7131E$tlv$init

	.section	__DATA,__const
Lsec_end0:
	.section	__TEXT,__const
Lsec_end1:
	.section	__DATA,__bss
Lsec_end2:
	.section	__TEXT,__text,regular,pure_instructions
Lsec_end3: