	.section	__TEXT,__text,regular,pure_instructions
	.macosx_version_min 10, 7
	.file	1 "/Users/yingyuhang/.cargo/registry/src/github.com-1ecc6299db9ec823/crossbeam-epoch-0.8.2/src/guard.rs"
	.file	2 "/Users/yingyuhang/.cargo/registry/src/github.com-1ecc6299db9ec823/lazy_static-1.4.0/src/lib.rs"
	.file	3 "/Users/yingyuhang/.cargo/registry/src/github.com-1ecc6299db9ec823/lazy_static-1.4.0/src/inline_lazy.rs"
	.file	4 "/rustc/a74d1862d4d87a56244958416fd05976c58ca1a8/src/libstd/thread/local.rs"
	.p2align	4, 0x90
__ZN36_$LT$T$u20$as$u20$core..any..Any$GT$7type_id17haaf7a29962247829E:
Lfunc_begin0:
	.file	5 "/rustc/a74d1862d4d87a56244958416fd05976c58ca1a8/src/libcore/any.rs"
	.loc	5 109 0
	.cfi_startproc
	pushq	%rbp
	.cfi_def_cfa_offset 16
	.cfi_offset %rbp, -16
	movq	%rsp, %rbp
	.cfi_def_cfa_register %rbp
	movabsq	$1229646359891580772, %rax
Ltmp0:
	.loc	5 111 6 prologue_end
	popq	%rbp
	retq
Ltmp1:
Lfunc_end0:
	.cfi_endproc

	.section	__TEXT,__literal16,16byte_literals
	.p2align	4
LCPI1_0:
	.quad	1
	.quad	1
	.section	__TEXT,__text,regular,pure_instructions
	.p2align	4, 0x90
__ZN3std4sync4once4Once9call_once28_$u7b$$u7b$closure$u7d$$u7d$17h6b42d7687990a723E:
Lfunc_begin1:
	.file	6 "/rustc/a74d1862d4d87a56244958416fd05976c58ca1a8/src/libstd/sync/once.rs"
	.loc	6 264 0
	.cfi_startproc
	pushq	%rbp
	.cfi_def_cfa_offset 16
	.cfi_offset %rbp, -16
	movq	%rsp, %rbp
	.cfi_def_cfa_register %rbp
Ltmp2:
	pushq	%r14
	pushq	%rbx
	subq	$2432, %rsp
	.cfi_offset %rbx, -32
	.cfi_offset %r14, -24
Ltmp3:
	.loc	6 264 41 prologue_end
	movq	(%rdi), %rcx
Ltmp4:
	.file	7 "/rustc/a74d1862d4d87a56244958416fd05976c58ca1a8/src/libcore/intrinsics.rs"
	.loc	7 2058 5
	movq	(%rcx), %rax
Ltmp5:
	.loc	7 2058 5 is_stmt 0
	movq	$0, (%rcx)
Ltmp6:
	.file	8 "/rustc/a74d1862d4d87a56244958416fd05976c58ca1a8/src/libcore/option.rs"
	.loc	8 387 13 is_stmt 1
	testq	%rax, %rax
	je	LBB1_7
Ltmp7:
	.file	9 "/Users/yingyuhang/.cargo/registry/src/github.com-1ecc6299db9ec823/lazy_static-1.4.0/src/inline_lazy.rs"
	.loc	9 31 13
	movq	(%rax), %r14
Ltmp8:
	.file	10 "/rustc/a74d1862d4d87a56244958416fd05976c58ca1a8/src/liballoc/alloc.rs"
	.loc	10 80 5
	movl	$2072, %edi
Ltmp9:
	movl	$8, %esi
Ltmp10:
	callq	___rust_alloc
Ltmp11:
	.loc	10 269 9
	testq	%rax, %rax
	je	LBB1_8
Ltmp12:
	.file	11 "/rustc/a74d1862d4d87a56244958416fd05976c58ca1a8/src/liballoc/boxed.rs"
	.loc	11 0 0 is_stmt 0
	movq	%rax, %rbx
Ltmp13:
	leaq	-2440(%rbp), %rsi
	.loc	11 174 13 is_stmt 1
	movl	$2064, %edx
	movq	%rax, %rdi
	callq	_memcpy
	movq	$0, 2064(%rbx)
	leaq	-256(%rbp), %rdi
	leaq	-2440(%rbp), %rsi
Ltmp14:
	.file	12 "/Users/yingyuhang/.cargo/registry/src/github.com-1ecc6299db9ec823/crossbeam-epoch-0.8.2/src/sync/queue.rs"
	.loc	12 60 13
	movl	$15, %ecx
	rep;movsq (%rsi), %es:(%rdi)
	leaq	-136(%rbp), %rdi
	leaq	-376(%rbp), %rsi
	movl	$15, %ecx
	rep;movsq (%rsi), %es:(%rdi)
Ltmp15:
	.loc	10 80 5
	movl	$640, %edi
	movl	$128, %esi
	callq	___rust_alloc
Ltmp16:
	.loc	10 269 9
	testq	%rax, %rax
	je	LBB1_9
Ltmp17:
	.file	13 "/rustc/a74d1862d4d87a56244958416fd05976c58ca1a8/src/liballoc/sync.rs"
	.loc	13 322 29
	movaps	LCPI1_0(%rip), %xmm0
	movaps	%xmm0, (%rax)
	movq	%rbx, 128(%rax)
	leaq	136(%rax), %rdi
	leaq	-256(%rbp), %rsi
	movl	$15, %ecx
	rep;movsq (%rsi), %es:(%rdi)
	movq	%rbx, 256(%rax)
	leaq	264(%rax), %rdi
	leaq	-136(%rbp), %rsi
	movl	$15, %ecx
	rep;movsq (%rsi), %es:(%rdi)
	movq	$0, 384(%rax)
	leaq	392(%rax), %rdi
	leaq	-2440(%rbp), %rsi
	movl	$15, %ecx
	rep;movsq (%rsi), %es:(%rdi)
	movq	$0, 512(%rax)
	movq	%rax, %rdi
	addq	$520, %rdi
	leaq	-376(%rbp), %rsi
	movl	$15, %ecx
	rep;movsq (%rsi), %es:(%rdi)
Ltmp18:
	.loc	7 2058 5
	movq	(%r14), %rcx
Ltmp19:
	.loc	7 2058 5 is_stmt 0
	movq	%rax, (%r14)
	movq	%rcx, -2440(%rbp)
Ltmp20:
	.file	14 "/rustc/a74d1862d4d87a56244958416fd05976c58ca1a8/src/libcore/ptr/mod.rs"
	.loc	14 178 1 is_stmt 1
	testq	%rcx, %rcx
	je	LBB1_6
Ltmp21:
	.file	15 "/rustc/a74d1862d4d87a56244958416fd05976c58ca1a8/src/libcore/sync/atomic.rs"
	.loc	15 2314 20
	lock		decq	(%rcx)
Ltmp22:
	.loc	13 1346 9
	jne	LBB1_6
Ltmp23:
	.loc	15 2563 24
	##MEMBARRIER
	leaq	-2440(%rbp), %rdi
Ltmp24:
	.loc	13 1381 13
	callq	__ZN5alloc4sync12Arc$LT$T$GT$9drop_slow17h07cc3a4886c44ffeE
Ltmp25:
LBB1_6:
	.loc	6 264 60
	addq	$2432, %rsp
	popq	%rbx
	popq	%r14
	popq	%rbp
	retq
LBB1_7:
Ltmp26:
	.file	16 "/rustc/a74d1862d4d87a56244958416fd05976c58ca1a8/src/libcore/macros/mod.rs"
	.loc	16 10 9
	leaq	l___unnamed_13(%rip), %rdi
Ltmp27:
	leaq	l___unnamed_14(%rip), %rdx
	movl	$43, %esi
Ltmp28:
	callq	__ZN4core9panicking5panic17h736ee47a631475c0E
Ltmp29:
LBB1_8:
	.loc	10 270 19
	movl	$2072, %edi
	movl	$8, %esi
	callq	__ZN5alloc5alloc18handle_alloc_error17hbc0ab0ed90816c07E
Ltmp30:
LBB1_9:
	.loc	10 270 19 is_stmt 0
	movl	$640, %edi
	movl	$128, %esi
	callq	__ZN5alloc5alloc18handle_alloc_error17hbc0ab0ed90816c07E
Ltmp31:
Lfunc_end1:
	.cfi_endproc
	.file	17 "/rustc/a74d1862d4d87a56244958416fd05976c58ca1a8/src/libcore/mem/mod.rs"
	.file	18 "/Users/yingyuhang/.cargo/registry/src/github.com-1ecc6299db9ec823/crossbeam-epoch-0.8.2/src/atomic.rs"
	.file	19 "/Users/yingyuhang/.cargo/registry/src/github.com-1ecc6299db9ec823/crossbeam-epoch-0.8.2/src/internal.rs"
	.file	20 "/Users/yingyuhang/.cargo/registry/src/github.com-1ecc6299db9ec823/crossbeam-epoch-0.8.2/src/collector.rs"
	.file	21 "/rustc/a74d1862d4d87a56244958416fd05976c58ca1a8/src/libcore/ops/function.rs"
	.file	22 "/rustc/a74d1862d4d87a56244958416fd05976c58ca1a8/src/libcore/cell.rs"
	.file	23 "/Users/yingyuhang/.cargo/registry/src/github.com-1ecc6299db9ec823/crossbeam-epoch-0.8.2/src/default.rs"

	.section	__TEXT,__literal16,16byte_literals
	.p2align	4
LCPI2_0:
	.byte	0
	.byte	0
	.byte	0
	.byte	0
	.byte	0
	.byte	0
	.byte	0
	.byte	0
	.byte	1
	.byte	0
	.byte	0
	.byte	0
	.byte	0
	.byte	0
	.byte	0
	.byte	0
	.section	__TEXT,__text,regular,pure_instructions
	.p2align	4, 0x90
__ZN3std6thread5local4fast12Key$LT$T$GT$14try_initialize17h89dccf104f9be1eaE:
Lfunc_begin2:
	.file	24 "/rustc/a74d1862d4d87a56244958416fd05976c58ca1a8/src/libstd/thread/local.rs"
	.loc	24 423 0 is_stmt 1
	.cfi_startproc
	pushq	%rbp
	.cfi_def_cfa_offset 16
	.cfi_offset %rbp, -16
	movq	%rsp, %rbp
	.cfi_def_cfa_register %rbp
Ltmp32:
	pushq	%r14
	pushq	%rbx
	movl	$4128, %eax
	callq	___rust_probestack
	subq	%rax, %rsp
	.cfi_offset %rbx, -32
	.cfi_offset %r14, -24
	.loc	22 432 18 prologue_end
	movq	__ZN15crossbeam_epoch7default6HANDLE7__getit5__KEY17hcc8f729ef6673fa9E@TLVP(%rip), %rdi
	callq	*(%rdi)
	movb	16(%rax), %al
Ltmp33:
	.loc	24 436 17
	testb	%al, %al
	je	LBB2_3
	cmpb	$1, %al
	je	LBB2_4
	.loc	24 0 17 is_stmt 0
	xorl	%eax, %eax
	jmp	LBB2_18
LBB2_3:
	.loc	24 438 21 is_stmt 1
	movq	__ZN15crossbeam_epoch7default6HANDLE7__getit5__KEY17hcc8f729ef6673fa9E@TLVP(%rip), %rdi
	callq	*(%rdi)
	movq	%rax, %rbx
Ltmp34:
	leaq	__ZN3std6thread5local4fast13destroy_value17h6c88dabd14058731E(%rip), %rsi
	movq	%rax, %rdi
	callq	__ZN3std3sys4unix17fast_thread_local13register_dtor17h1042734db6d0a9bdE
Ltmp35:
	.loc	7 2058 5
	movb	$1, 16(%rbx)
Ltmp36:
LBB2_4:
	.loc	7 0 5 is_stmt 0
	leaq	__ZN79_$LT$crossbeam_epoch..default..COLLECTOR$u20$as$u20$core..ops..deref..Deref$GT$5deref11__stability4LAZY17h02b22fd1dc76269dE(%rip), %rax
Ltmp37:
	movq	%rax, -24(%rbp)
Ltmp38:
	.loc	15 2275 20 is_stmt 1
	movq	__ZN79_$LT$crossbeam_epoch..default..COLLECTOR$u20$as$u20$core..ops..deref..Deref$GT$5deref11__stability4LAZY17h02b22fd1dc76269dE+8(%rip), %rax
Ltmp39:
	.loc	6 373 9
	cmpq	$3, %rax
Ltmp40:
	.loc	6 259 9
	jne	LBB2_5
Ltmp41:
	.loc	9 37 20
	movq	-24(%rbp), %rax
Ltmp42:
	.loc	9 38 17
	cmpq	$0, (%rax)
	je	LBB2_19
Ltmp43:
LBB2_7:
	.loc	20 39 9
	movq	(%rax), %r14
Ltmp44:
	.loc	15 2303 20
	lock		incq	(%r14)
Ltmp45:
	.loc	13 1098 9
	jle	LBB2_20
Ltmp46:
	.loc	13 0 9 is_stmt 0
	leaq	-4136(%rbp), %rbx
Ltmp47:
	.loc	19 74 9 is_stmt 1
	movq	%rbx, %rdi
	callq	__ZN73_$LT$crossbeam_epoch..internal..Bag$u20$as$u20$core..default..Default$GT$7default17h1c3317ab122cc6f0E
Ltmp48:
	.loc	19 0 9 is_stmt 0
	leaq	-2080(%rbp), %rdi
Ltmp49:
	.loc	18 664 29 is_stmt 1
	movl	$2056, %edx
	movq	%rbx, %rsi
	callq	_memcpy
Ltmp50:
	.loc	10 80 5
	movl	$2104, %edi
	movl	$8, %esi
	callq	___rust_alloc
Ltmp51:
	.loc	10 269 9
	testq	%rax, %rax
	je	LBB2_21
Ltmp52:
	.loc	11 0 0 is_stmt 0
	movq	%rax, %rbx
Ltmp53:
	.loc	11 174 13 is_stmt 1
	movq	$0, 8(%rax)
	movq	$0, (%rax)
	movq	%r14, 16(%rax)
	leaq	24(%rax), %rdi
	leaq	-2080(%rbp), %rsi
	movl	$2056, %edx
	callq	_memcpy
	movaps	LCPI2_0(%rip), %xmm0
	movups	%xmm0, 2080(%rbx)
	movq	$0, 2096(%rbx)
Ltmp54:
	.loc	18 113 15
	andq	$-8, %rbx
Ltmp55:
	.loc	15 2276 20
	movq	512(%r14), %rax
Ltmp56:
	.p2align	4, 0x90
LBB2_10:
	.loc	15 2265 20
	movq	%rax, (%rbx)
Ltmp57:
	.loc	15 2358 31
	lock		cmpxchgq	%rbx, 512(%r14)
Ltmp58:
	.file	25 "/rustc/a74d1862d4d87a56244958416fd05976c58ca1a8/src/libcore/result.rs"
	.loc	25 611 13
	jne	LBB2_10
Ltmp59:
	.loc	7 2058 5
	movq	__ZN15crossbeam_epoch7default6HANDLE7__getit5__KEY17hcc8f729ef6673fa9E@TLVP(%rip), %rdi
	callq	*(%rdi)
	movq	8(%rax), %rdi
Ltmp60:
	.loc	14 178 1
	cmpq	$0, (%rax)
Ltmp61:
	.loc	7 2058 5
	movq	$1, (%rax)
	movq	%rbx, 8(%rax)
Ltmp62:
	.loc	14 178 1
	je	LBB2_17
Ltmp63:
	.loc	19 554 28
	movq	2088(%rdi), %rax
Ltmp64:
	.loc	19 555 23
	testq	%rax, %rax
	.loc	19 555 9 is_stmt 0
	je	LBB2_22
Ltmp65:
	.loc	19 553 27 is_stmt 1
	movq	2080(%rdi), %rcx
Ltmp66:
	.loc	19 556 31
	leaq	-1(%rax), %rdx
Ltmp67:
	.loc	7 2058 5
	movq	%rdx, 2088(%rdi)
Ltmp68:
	.loc	19 558 32
	cmpq	$1, %rax
	.loc	19 558 9 is_stmt 0
	jne	LBB2_16
Ltmp69:
	testq	%rcx, %rcx
	je	LBB2_15
Ltmp70:
LBB2_16:
	.loc	19 0 9
	movq	__ZN15crossbeam_epoch7default6HANDLE7__getit5__KEY17hcc8f729ef6673fa9E@TLVP(%rip), %rdi
	callq	*(%rdi)
LBB2_17:
	addq	$8, %rax
LBB2_18:
	.loc	24 429 10 is_stmt 1
	addq	$4128, %rsp
	popq	%rbx
	popq	%r14
	popq	%rbp
	retq
LBB2_5:
Ltmp71:
	.loc	24 0 10 is_stmt 0
	leaq	-24(%rbp), %rax
Ltmp72:
	.loc	6 263 21 is_stmt 1
	movq	%rax, -4136(%rbp)
	leaq	-4136(%rbp), %rax
Ltmp73:
	.loc	6 264 37
	movq	%rax, -2080(%rbp)
	.loc	6 264 9 is_stmt 0
	leaq	__ZN79_$LT$crossbeam_epoch..default..COLLECTOR$u20$as$u20$core..ops..deref..Deref$GT$5deref11__stability4LAZY17h02b22fd1dc76269dE+8(%rip), %rdi
	leaq	l___unnamed_1(%rip), %rcx
	leaq	-2080(%rbp), %rdx
	xorl	%esi, %esi
	callq	__ZN3std4sync4once4Once10call_inner17h78f35ea5a056ddbcE
Ltmp74:
	.loc	9 37 20 is_stmt 1
	movq	-24(%rbp), %rax
Ltmp75:
	.loc	9 38 17
	cmpq	$0, (%rax)
	jne	LBB2_7
Ltmp76:
LBB2_19:
	.loc	16 10 9
	leaq	l___unnamed_15(%rip), %rdi
	leaq	l___unnamed_16(%rip), %rdx
	movl	$66, %esi
	callq	__ZN4core9panicking5panic17h736ee47a631475c0E
Ltmp77:
LBB2_15:
	.loc	19 559 13
	callq	__ZN15crossbeam_epoch8internal5Local8finalize17hbdefd0f40d84cd73E
Ltmp78:
	.loc	24 312 17
	movq	__ZN15crossbeam_epoch7default6HANDLE7__getit5__KEY17hcc8f729ef6673fa9E@TLVP(%rip), %rdi
	callq	*(%rdi)
	jmp	LBB2_16
Ltmp79:
LBB2_20:
	.loc	13 1100 17
	ud2
Ltmp80:
LBB2_21:
	.loc	10 270 19
	movl	$2104, %edi
	movl	$8, %esi
	callq	__ZN5alloc5alloc18handle_alloc_error17hbc0ab0ed90816c07E
Ltmp81:
LBB2_22:
	.loc	19 555 9
	leaq	l___unnamed_17(%rip), %rdi
Ltmp82:
	leaq	l___unnamed_18(%rip), %rdx
	movl	$35, %esi
	callq	__ZN3std9panicking11begin_panic17hc9dee1104af34725E
Ltmp83:
Lfunc_end2:
	.cfi_endproc
	.file	26 "/Users/yingyuhang/.cargo/registry/src/github.com-1ecc6299db9ec823/crossbeam-epoch-0.8.2/src/sync/list.rs"

	.p2align	4, 0x90
__ZN3std6thread5local4fast13destroy_value17h6c88dabd14058731E:
Lfunc_begin3:
	.loc	24 451 0
	.cfi_startproc
	pushq	%rbp
	.cfi_def_cfa_offset 16
	.cfi_offset %rbp, -16
	movq	%rsp, %rbp
	.cfi_def_cfa_register %rbp
Ltmp84:
	movq	%rdi, %rax
Ltmp85:
	.loc	7 2058 5 prologue_end
	movq	8(%rdi), %rdi
Ltmp86:
	.loc	14 178 1
	cmpq	$0, (%rax)
Ltmp87:
	.loc	7 2058 5
	movq	$0, (%rax)
Ltmp88:
	.loc	7 2058 5 is_stmt 0
	movb	$2, 16(%rax)
Ltmp89:
	.loc	14 178 1 is_stmt 1
	je	LBB3_4
Ltmp90:
	.loc	19 554 28
	movq	2088(%rdi), %rax
Ltmp91:
	.loc	19 555 23
	testq	%rax, %rax
	.loc	19 555 9 is_stmt 0
	je	LBB3_5
Ltmp92:
	.loc	19 553 27 is_stmt 1
	movq	2080(%rdi), %rcx
Ltmp93:
	.loc	19 556 31
	leaq	-1(%rax), %rdx
Ltmp94:
	.loc	7 2058 5
	movq	%rdx, 2088(%rdi)
Ltmp95:
	.loc	19 558 32
	cmpq	$1, %rax
	.loc	19 558 9 is_stmt 0
	jne	LBB3_4
Ltmp96:
	testq	%rcx, %rcx
	jne	LBB3_4
Ltmp97:
	.loc	19 559 13 is_stmt 1
	popq	%rbp
	jmp	__ZN15crossbeam_epoch8internal5Local8finalize17hbdefd0f40d84cd73E
Ltmp98:
LBB3_4:
	.loc	24 461 6
	popq	%rbp
	retq
LBB3_5:
Ltmp99:
	.loc	19 555 9
	leaq	l___unnamed_17(%rip), %rdi
Ltmp100:
	leaq	l___unnamed_18(%rip), %rdx
	movl	$35, %esi
	callq	__ZN3std9panicking11begin_panic17hc9dee1104af34725E
Ltmp101:
Lfunc_end3:
	.cfi_endproc

	.p2align	4, 0x90
__ZN3std9panicking11begin_panic17hc9dee1104af34725E:
Lfunc_begin4:
	.file	27 "/rustc/a74d1862d4d87a56244958416fd05976c58ca1a8/src/libstd/panicking.rs"
	.loc	27 399 0
	.cfi_startproc
	pushq	%rbp
	.cfi_def_cfa_offset 16
	.cfi_offset %rbp, -16
	movq	%rsp, %rbp
	.cfi_def_cfa_register %rbp
	subq	$16, %rsp
Ltmp102:
	.loc	27 404 31 prologue_end
	movq	%rdi, -16(%rbp)
	movq	%rsi, -8(%rbp)
	.loc	27 404 61 is_stmt 0
	movq	%rdx, %rdi
Ltmp103:
	callq	__ZN4core5panic8Location6caller17hf55c9a52d6249cfcE
Ltmp104:
	.loc	27 404 5
	leaq	l___unnamed_2(%rip), %rsi
	leaq	-16(%rbp), %rdi
	xorl	%edx, %edx
	movq	%rax, %rcx
	callq	__ZN3std9panicking20rust_panic_with_hook17hf8b9378dd2e7986aE
Ltmp105:
Lfunc_end4:
	.cfi_endproc

	.p2align	4, 0x90
__ZN42_$LT$$RF$T$u20$as$u20$core..fmt..Debug$GT$3fmt17h27533dd386ea7918E:
Lfunc_begin5:
	.file	28 "/rustc/a74d1862d4d87a56244958416fd05976c58ca1a8/src/libcore/fmt/mod.rs"
	.loc	28 1973 0 is_stmt 1
	.cfi_startproc
	pushq	%rbp
	.cfi_def_cfa_offset 16
	.cfi_offset %rbp, -16
	movq	%rsp, %rbp
	.cfi_def_cfa_register %rbp
Ltmp106:
	pushq	%r14
	pushq	%rbx
	subq	$32, %rsp
	.cfi_offset %rbx, -32
	.cfi_offset %r14, -24
	.loc	28 1973 71 prologue_end
	movq	(%rdi), %rbx
Ltmp107:
	.file	29 "/Users/yingyuhang/.cargo/registry/src/github.com-1ecc6299db9ec823/crossbeam-epoch-0.8.2/src/epoch.rs"
	.loc	29 16 32
	leaq	l___unnamed_19(%rip), %rdx
	leaq	-40(%rbp), %r14
	movl	$5, %ecx
	movq	%r14, %rdi
Ltmp108:
	callq	__ZN4core3fmt9Formatter12debug_struct17h985c0158d1fc7193E
Ltmp109:
	.loc	29 19 5
	movq	%rbx, -24(%rbp)
	.loc	29 16 32
	leaq	L___unnamed_20(%rip), %rsi
	leaq	l___unnamed_8(%rip), %r8
	leaq	-24(%rbp), %rcx
	movl	$4, %edx
	movq	%r14, %rdi
	callq	__ZN4core3fmt8builders11DebugStruct5field17h9c15dc155278eed2E
	movq	%r14, %rdi
	callq	__ZN4core3fmt8builders11DebugStruct6finish17h26808393f3fed630E
Ltmp110:
	.loc	28 1973 84
	addq	$32, %rsp
	popq	%rbx
	popq	%r14
	popq	%rbp
	retq
Ltmp111:
Lfunc_end5:
	.cfi_endproc
	.file	30 "/Users/yingyuhang/.cargo/registry/src/github.com-1ecc6299db9ec823/crossbeam-epoch-0.8.2/src/lib.rs"

	.p2align	4, 0x90
__ZN42_$LT$$RF$T$u20$as$u20$core..fmt..Debug$GT$3fmt17h8659bb5ae60e7027E:
Lfunc_begin6:
	.loc	28 1973 0
	.cfi_startproc
	pushq	%rbp
	.cfi_def_cfa_offset 16
	.cfi_offset %rbp, -16
	movq	%rsp, %rbp
	.cfi_def_cfa_register %rbp
Ltmp112:
	pushq	%r15
	pushq	%r14
	pushq	%r13
	pushq	%r12
	pushq	%rbx
	subq	$24, %rsp
	.cfi_offset %rbx, -56
	.cfi_offset %r12, -48
	.cfi_offset %r13, -40
	.cfi_offset %r14, -32
	.cfi_offset %r15, -24
	.loc	28 1973 71 prologue_end
	movq	(%rdi), %rbx
Ltmp113:
	movq	8(%rdi), %r13
Ltmp114:
	.loc	28 0 71 is_stmt 0
	leaq	-64(%rbp), %rdi
Ltmp115:
	.loc	28 2162 9 is_stmt 1
	callq	__ZN4core3fmt9Formatter10debug_list17hd054f0986422feb9E
Ltmp116:
	.file	31 "/rustc/a74d1862d4d87a56244958416fd05976c58ca1a8/src/libcore/ptr/const_ptr.rs"
	.loc	31 158 9
	shlq	$5, %r13
Ltmp117:
	.file	32 "/rustc/a74d1862d4d87a56244958416fd05976c58ca1a8/src/libcore/slice/mod.rs"
	.loc	32 3303 21
	je	LBB6_3
Ltmp118:
	.loc	32 0 21 is_stmt 0
	leaq	l___unnamed_3(%rip), %r14
	leaq	-64(%rbp), %r15
	leaq	-48(%rbp), %r12
Ltmp119:
	.p2align	4, 0x90
LBB6_2:
	.file	33 "/rustc/a74d1862d4d87a56244958416fd05976c58ca1a8/src/libcore/fmt/builders.rs"
	.loc	33 661 22 is_stmt 1
	movq	%rbx, -48(%rbp)
Ltmp120:
	.loc	33 662 13
	movq	%r15, %rdi
	movq	%r12, %rsi
	movq	%r14, %rdx
	callq	__ZN4core3fmt8builders9DebugList5entry17h5c0dec54538196dfE
Ltmp121:
	.file	34 "/rustc/a74d1862d4d87a56244958416fd05976c58ca1a8/src/libcore/ptr/mut_ptr.rs"
	.loc	34 152 9
	addq	$32, %rbx
Ltmp122:
	.loc	32 3179 9
	addq	$-32, %r13
	.loc	32 3303 21
	jne	LBB6_2
Ltmp123:
LBB6_3:
	.loc	32 0 21 is_stmt 0
	leaq	-64(%rbp), %rdi
	.loc	28 2162 9 is_stmt 1
	callq	__ZN4core3fmt8builders9DebugList6finish17h3635bd6af9b1c5a6E
Ltmp124:
	.loc	28 1973 84
	addq	$24, %rsp
	popq	%rbx
	popq	%r12
	popq	%r13
	popq	%r14
	popq	%r15
	popq	%rbp
	retq
Ltmp125:
Lfunc_end6:
	.cfi_endproc

	.p2align	4, 0x90
__ZN42_$LT$$RF$T$u20$as$u20$core..fmt..Debug$GT$3fmt17ha63a1f7c3f271447E:
Lfunc_begin7:
	.loc	28 1973 0
	.cfi_startproc
	pushq	%rbp
	.cfi_def_cfa_offset 16
	.cfi_offset %rbp, -16
	movq	%rsp, %rbp
	.cfi_def_cfa_register %rbp
	pushq	%r14
	pushq	%rbx
	.cfi_offset %rbx, -32
	.cfi_offset %r14, -24
	movq	%rsi, %rbx
Ltmp126:
	.loc	28 1973 71 prologue_end
	movq	(%rdi), %r14
Ltmp127:
	.file	35 "/rustc/a74d1862d4d87a56244958416fd05976c58ca1a8/src/libcore/fmt/num.rs"
	.loc	35 149 20
	movq	%rsi, %rdi
Ltmp128:
	callq	__ZN4core3fmt9Formatter15debug_lower_hex17h8530fbaeba13f4d9E
	.loc	35 149 17 is_stmt 0
	testb	%al, %al
	je	LBB7_1
Ltmp129:
	.loc	35 150 21 is_stmt 1
	movq	%r14, %rdi
	movq	%rbx, %rsi
	popq	%rbx
Ltmp130:
	popq	%r14
Ltmp131:
	popq	%rbp
	jmp	__ZN4core3fmt3num55_$LT$impl$u20$core..fmt..LowerHex$u20$for$u20$usize$GT$3fmt17hbf7dc8c1d7fa021dE
LBB7_1:
Ltmp132:
	.loc	35 151 27
	movq	%rbx, %rdi
	callq	__ZN4core3fmt9Formatter15debug_upper_hex17hf8fda15ec43a1e68E
	.loc	35 154 21
	movq	%r14, %rdi
	movq	%rbx, %rsi
	.loc	35 151 24
	testb	%al, %al
	je	LBB7_4
Ltmp133:
	.loc	35 152 21
	popq	%rbx
Ltmp134:
	popq	%r14
Ltmp135:
	popq	%rbp
	jmp	__ZN4core3fmt3num55_$LT$impl$u20$core..fmt..UpperHex$u20$for$u20$usize$GT$3fmt17hf20a4f369caf234bE
LBB7_4:
Ltmp136:
	.loc	35 154 21
	popq	%rbx
Ltmp137:
	popq	%r14
Ltmp138:
	popq	%rbp
	jmp	__ZN4core3fmt3num3imp54_$LT$impl$u20$core..fmt..Display$u20$for$u20$usize$GT$3fmt17h89ce3155a90f2edfE
Ltmp139:
Lfunc_end7:
	.cfi_endproc

	.p2align	4, 0x90
__ZN42_$LT$$RF$T$u20$as$u20$core..fmt..Debug$GT$3fmt17had085dfe32e07f12E:
Lfunc_begin8:
	.loc	28 1973 0
	.cfi_startproc
	pushq	%rbp
	.cfi_def_cfa_offset 16
	.cfi_offset %rbp, -16
	movq	%rsp, %rbp
	.cfi_def_cfa_register %rbp
Ltmp140:
	.loc	28 1973 71 prologue_end
	movq	(%rdi), %rdi
Ltmp141:
	.loc	28 1973 62 is_stmt 0
	popq	%rbp
	jmp	__ZN68_$LT$core..sync..atomic..AtomicUsize$u20$as$u20$core..fmt..Debug$GT$3fmt17h803ab91ee4cfb17eE
Ltmp142:
Lfunc_end8:
	.cfi_endproc

	.p2align	4, 0x90
__ZN42_$LT$$RF$T$u20$as$u20$core..fmt..Debug$GT$3fmt17hca0678ccca5fd48fE:
Lfunc_begin9:
	.loc	28 1973 0 is_stmt 1
	.cfi_startproc
	pushq	%rbp
	.cfi_def_cfa_offset 16
	.cfi_offset %rbp, -16
	movq	%rsp, %rbp
	.cfi_def_cfa_register %rbp
Ltmp143:
	pushq	%rbx
	subq	$40, %rsp
	.cfi_offset %rbx, -24
	.loc	28 1973 71 prologue_end
	movq	(%rdi), %rbx
Ltmp144:
	.loc	19 209 9
	leaq	l___unnamed_21(%rip), %rdx
	leaq	-40(%rbp), %rdi
Ltmp145:
	movl	$3, %ecx
	callq	__ZN4core3fmt9Formatter12debug_struct17h985c0158d1fc7193E
Ltmp146:
	.loc	19 210 52
	movq	2048(%rbx), %rdi
Ltmp147:
	.loc	32 2918 19
	cmpq	$65, %rdi
	.loc	32 2918 16 is_stmt 0
	jae	LBB9_2
Ltmp148:
	.loc	19 210 34 is_stmt 1
	movq	%rbx, -24(%rbp)
	movq	%rdi, -16(%rbp)
	.loc	19 209 9
	leaq	l___unnamed_22(%rip), %rsi
	leaq	l___unnamed_7(%rip), %r8
	leaq	-40(%rbp), %rdi
	leaq	-24(%rbp), %rcx
	movl	$9, %edx
	callq	__ZN4core3fmt8builders11DebugStruct5field17h9c15dc155278eed2E
	movq	%rax, %rdi
	callq	__ZN4core3fmt8builders11DebugStruct6finish17h26808393f3fed630E
Ltmp149:
	.loc	28 1973 84
	addq	$40, %rsp
	popq	%rbx
Ltmp150:
	popq	%rbp
	retq
LBB9_2:
Ltmp151:
	.loc	32 2919 13
	leaq	l___unnamed_23(%rip), %rdx
	movl	$64, %esi
	callq	__ZN4core5slice20slice_index_len_fail17h550a313151a85135E
Ltmp152:
Lfunc_end9:
	.cfi_endproc

	.p2align	4, 0x90
__ZN42_$LT$$RF$T$u20$as$u20$core..fmt..Debug$GT$3fmt17hcec1b707a9dd9d1dE:
Lfunc_begin10:
	.loc	28 1973 0
	.cfi_startproc
	pushq	%rbp
	.cfi_def_cfa_offset 16
	.cfi_offset %rbp, -16
	movq	%rsp, %rbp
	.cfi_def_cfa_register %rbp
Ltmp153:
	pushq	%rbx
	subq	$40, %rsp
	.cfi_offset %rbx, -24
	.loc	28 1973 71 prologue_end
	movq	(%rdi), %rax
Ltmp154:
	.loc	15 2277 19
	movq	(%rax), %rax
Ltmp155:
	.loc	18 113 15
	movq	%rax, %rcx
	andq	$-8, %rcx
Ltmp156:
	.loc	18 114 15
	andl	$7, %eax
Ltmp157:
	.loc	18 516 14
	movq	%rcx, -16(%rbp)
	.loc	18 516 19 is_stmt 0
	movq	%rax, -24(%rbp)
Ltmp158:
	.loc	18 518 9 is_stmt 1
	leaq	l___unnamed_24(%rip), %rdx
	leaq	-40(%rbp), %rbx
	movl	$6, %ecx
Ltmp159:
	movq	%rbx, %rdi
Ltmp160:
	callq	__ZN4core3fmt9Formatter12debug_struct17h985c0158d1fc7193E
Ltmp161:
	leaq	l___unnamed_25(%rip), %rsi
	leaq	l___unnamed_5(%rip), %r8
	leaq	-16(%rbp), %rcx
	movl	$3, %edx
	movq	%rbx, %rdi
	callq	__ZN4core3fmt8builders11DebugStruct5field17h9c15dc155278eed2E
	leaq	l___unnamed_26(%rip), %rsi
	leaq	l___unnamed_6(%rip), %r8
	leaq	-24(%rbp), %rcx
	movl	$3, %edx
	movq	%rax, %rdi
	callq	__ZN4core3fmt8builders11DebugStruct5field17h9c15dc155278eed2E
	movq	%rax, %rdi
	callq	__ZN4core3fmt8builders11DebugStruct6finish17h26808393f3fed630E
Ltmp162:
	.loc	28 1973 84
	addq	$40, %rsp
	popq	%rbx
	popq	%rbp
	retq
Ltmp163:
Lfunc_end10:
	.cfi_endproc

	.p2align	4, 0x90
__ZN42_$LT$$RF$T$u20$as$u20$core..fmt..Debug$GT$3fmt17hffb62337d847c63dE:
Lfunc_begin11:
	.loc	28 1973 0
	.cfi_startproc
	pushq	%rbp
	.cfi_def_cfa_offset 16
	.cfi_offset %rbp, -16
	movq	%rsp, %rbp
	.cfi_def_cfa_register %rbp
	movq	%rsi, %rdi
Ltmp164:
	.file	36 "/Users/yingyuhang/.cargo/registry/src/github.com-1ecc6299db9ec823/crossbeam-epoch-0.8.2/src/deferred.rs"
	.loc	36 29 9 prologue_end
	leaq	l___unnamed_27(%rip), %rsi
	movl	$15, %edx
	popq	%rbp
	jmp	__ZN4core3fmt9Formatter3pad17he4a76f49c06ce69bE
Ltmp165:
Lfunc_end11:
	.cfi_endproc

	.p2align	4, 0x90
__ZN4core3fmt3num52_$LT$impl$u20$core..fmt..Debug$u20$for$u20$usize$GT$3fmt17hd9d2912101c14e43E:
Lfunc_begin12:
	.loc	35 148 0
	.cfi_startproc
	pushq	%rbp
	.cfi_def_cfa_offset 16
	.cfi_offset %rbp, -16
	movq	%rsp, %rbp
	.cfi_def_cfa_register %rbp
	pushq	%r14
	pushq	%rbx
	.cfi_offset %rbx, -32
	.cfi_offset %r14, -24
	movq	%rsi, %rbx
Ltmp166:
	movq	%rdi, %r14
Ltmp167:
	.loc	35 149 20 prologue_end
	movq	%rsi, %rdi
	callq	__ZN4core3fmt9Formatter15debug_lower_hex17h8530fbaeba13f4d9E
	.loc	35 149 17 is_stmt 0
	testb	%al, %al
	je	LBB12_1
Ltmp168:
	.loc	35 150 21 is_stmt 1
	movq	%r14, %rdi
	movq	%rbx, %rsi
	popq	%rbx
Ltmp169:
	popq	%r14
Ltmp170:
	popq	%rbp
	jmp	__ZN4core3fmt3num55_$LT$impl$u20$core..fmt..LowerHex$u20$for$u20$usize$GT$3fmt17hbf7dc8c1d7fa021dE
LBB12_1:
Ltmp171:
	.loc	35 151 27
	movq	%rbx, %rdi
	callq	__ZN4core3fmt9Formatter15debug_upper_hex17hf8fda15ec43a1e68E
	.loc	35 154 21
	movq	%r14, %rdi
	movq	%rbx, %rsi
	.loc	35 151 24
	testb	%al, %al
	je	LBB12_4
Ltmp172:
	.loc	35 152 21
	popq	%rbx
Ltmp173:
	popq	%r14
Ltmp174:
	popq	%rbp
	jmp	__ZN4core3fmt3num55_$LT$impl$u20$core..fmt..UpperHex$u20$for$u20$usize$GT$3fmt17hf20a4f369caf234bE
LBB12_4:
Ltmp175:
	.loc	35 154 21
	popq	%rbx
Ltmp176:
	popq	%r14
Ltmp177:
	popq	%rbp
	jmp	__ZN4core3fmt3num3imp54_$LT$impl$u20$core..fmt..Display$u20$for$u20$usize$GT$3fmt17h89ce3155a90f2edfE
Ltmp178:
Lfunc_end12:
	.cfi_endproc

	.p2align	4, 0x90
__ZN4core3ops8function6FnOnce40call_once$u7b$$u7b$vtable.shim$u7d$$u7d$17hd6ef518425a0e723E:
Lfunc_begin13:
	.loc	21 232 0
	.cfi_startproc
	pushq	%rbp
	.cfi_def_cfa_offset 16
	.cfi_offset %rbp, -16
	movq	%rsp, %rbp
	.cfi_def_cfa_register %rbp
	subq	$16, %rsp
Ltmp179:
	.loc	21 232 5 prologue_end
	movq	(%rdi), %rax
	movq	%rax, -8(%rbp)
Ltmp180:
	.loc	21 0 5 is_stmt 0
	leaq	-8(%rbp), %rdi
Ltmp181:
	.loc	21 232 5
	callq	__ZN3std4sync4once4Once9call_once28_$u7b$$u7b$closure$u7d$$u7d$17h6b42d7687990a723E
Ltmp182:
	.loc	21 232 5
	addq	$16, %rsp
	popq	%rbp
	retq
Ltmp183:
Lfunc_end13:
	.cfi_endproc

	.p2align	4, 0x90
__ZN4core3ptr13drop_in_place17h2283070456d5aff3E:
Lfunc_begin14:
	.loc	14 178 0 is_stmt 1
	.cfi_startproc
	pushq	%rbp
	.cfi_def_cfa_offset 16
	.cfi_offset %rbp, -16
	movq	%rsp, %rbp
	.cfi_def_cfa_register %rbp
	pushq	%r15
	pushq	%r14
	pushq	%r13
	pushq	%r12
	pushq	%rbx
	andq	$-32, %rsp
	movl	$4224, %eax
	callq	___rust_probestack
	subq	%rax, %rsp
	.cfi_offset %rbx, -56
	.cfi_offset %r12, -48
	.cfi_offset %r13, -40
	.cfi_offset %r14, -32
	.cfi_offset %r15, -24
	movq	%rdi, %r13
Ltmp184:
	leaq	__ZN15crossbeam_epoch8deferred8Deferred3new4call17h8e504f3250704f70E(%rip), %rax
	movq	%rax, %xmm0
	movdqa	%xmm0, 32(%rsp)
Ltmp185:
	.p2align	4, 0x90
LBB14_1:
	.loc	15 2275 20 prologue_end
	movq	(%r13), %rcx
Ltmp186:
	.loc	18 113 15
	movq	%rcx, %rdi
	andq	$-8, %rdi
Ltmp187:
	.loc	15 2275 20
	movq	2064(%rdi), %rdx
Ltmp188:
	.loc	12 115 13
	movq	%rdx, %rbx
	andq	$-8, %rbx
	je	LBB14_7
Ltmp189:
	.loc	15 2332 31
	movq	%rcx, %rax
Ltmp190:
	lock		cmpxchgq	%rdx, (%r13)
Ltmp191:
	.loc	25 611 13
	jne	LBB14_1
Ltmp192:
	.loc	15 2276 20
	movq	128(%r13), %rax
Ltmp193:
	.loc	18 1147 9
	cmpq	%rax, %rcx
Ltmp194:
	.loc	12 121 25
	jne	LBB14_5
Ltmp195:
	.loc	15 2332 31
	movq	%rcx, %rax
Ltmp196:
	lock		cmpxchgq	%rdx, 128(%r13)
Ltmp197:
LBB14_5:
	.loc	18 1077 13
	cmpq	$7, %rcx
	.loc	18 1076 9
	jbe	LBB14_14
Ltmp198:
	.loc	10 102 5
	movl	$2072, %esi
	movl	$8, %edx
Ltmp199:
	callq	___rust_dealloc
Ltmp200:
	.loc	25 519 22
	movq	(%rbx), %r15
Ltmp201:
	movq	8(%rbx), %r12
Ltmp202:
	.loc	25 611 22
	addq	$16, %rbx
Ltmp203:
	movl	$2048, %edx
	leaq	2144(%rsp), %r14
	movq	%r14, %rdi
	movq	%rbx, %rsi
	callq	_memcpy
	jmp	LBB14_8
Ltmp204:
LBB14_7:
	.loc	12 0 0 is_stmt 0
	xorl	%r12d, %r12d
	leaq	2144(%rsp), %r14
	movq	24(%rsp), %r15
Ltmp205:
LBB14_8:
	.loc	12 169 23 is_stmt 1
	movq	%r15, 80(%rsp)
	movq	%r12, 88(%rsp)
	movl	$2048, %edx
	leaq	96(%rsp), %rdi
	movq	%r14, %rsi
	callq	_memcpy
Ltmp206:
	.loc	12 197 23
	testq	%r12, %r12
Ltmp207:
	.loc	14 178 1
	je	LBB14_13
Ltmp208:
	.loc	14 0 1 is_stmt 0
	movq	%r15, 24(%rsp)
Ltmp209:
	.loc	19 198 47 is_stmt 1
	movq	2136(%rsp), %rbx
Ltmp210:
	.loc	32 2928 19
	cmpq	$65, %rbx
	.loc	32 2928 16 is_stmt 0
	jae	LBB14_15
Ltmp211:
	.loc	34 152 9 is_stmt 1
	shlq	$5, %rbx
Ltmp212:
	.loc	34 0 9 is_stmt 0
	movapd	32(%rsp), %xmm2
	leaq	2152(%rsp), %r14
Ltmp213:
	.loc	32 3303 21 is_stmt 1
	je	LBB14_1
Ltmp214:
	.loc	32 0 21 is_stmt 0
	xorl	%r12d, %r12d
Ltmp215:
	.p2align	4, 0x90
LBB14_12:
	.loc	19 200 57 is_stmt 1
	movsd	%xmm2, %xmm0
Ltmp216:
	.loc	7 2058 5
	movdqu	88(%rsp,%r12), %xmm2
	movups	104(%rsp,%r12), %xmm3
Ltmp217:
	.loc	7 0 5 is_stmt 0
	movaps	%xmm3, 64(%rsp)
Ltmp218:
	.loc	7 2058 5
	movups	%xmm1, 104(%rsp,%r12)
	movupd	%xmm0, 88(%rsp,%r12)
Ltmp219:
	.loc	19 201 13 is_stmt 1
	movaps	%xmm3, 2160(%rsp)
	movdqa	%xmm2, 48(%rsp)
	movdqa	%xmm2, 2144(%rsp)
Ltmp220:
	.loc	36 76 20
	movq	%xmm2, %rax
Ltmp221:
	.loc	36 77 18
	movq	%r14, %rdi
	callq	*%rax
Ltmp222:
	.loc	36 0 18 is_stmt 0
	movapd	32(%rsp), %xmm2
Ltmp223:
	.loc	32 3179 9 is_stmt 1
	addq	$32, %r12
	movdqa	48(%rsp), %xmm0
	movaps	64(%rsp), %xmm1
	cmpq	%r12, %rbx
	.loc	32 3303 21
	jne	LBB14_12
	jmp	LBB14_1
Ltmp224:
LBB14_13:
	.loc	15 2276 20
	movq	(%r13), %rdi
Ltmp225:
	.loc	18 1077 13
	cmpq	$7, %rdi
	.loc	18 1076 9
	jbe	LBB14_14
Ltmp226:
	.loc	18 113 15
	andq	$-8, %rdi
Ltmp227:
	.loc	10 102 5
	movl	$2072, %esi
	movl	$8, %edx
	callq	___rust_dealloc
Ltmp228:
	.loc	14 178 1
	leaq	-40(%rbp), %rsp
	popq	%rbx
	popq	%r12
	popq	%r13
Ltmp229:
	popq	%r14
	popq	%r15
	popq	%rbp
	retq
Ltmp230:
LBB14_15:
	.loc	32 2929 13
	leaq	l___unnamed_28(%rip), %rdx
	movl	$64, %esi
	movq	%rbx, %rdi
	callq	__ZN4core5slice20slice_index_len_fail17h550a313151a85135E
Ltmp231:
LBB14_14:
	.loc	12 0 0 is_stmt 0
	leaq	l___unnamed_29(%rip), %rdi
	leaq	l___unnamed_30(%rip), %rdx
	movl	$39, %esi
	callq	__ZN3std9panicking11begin_panic17hc9dee1104af34725E
Ltmp232:
Lfunc_end14:
	.cfi_endproc

	.p2align	4, 0x90
__ZN4core3ptr13drop_in_place17hce0fad9fe99075f3E:
Lfunc_begin15:
	.loc	14 178 0 is_stmt 1
	.cfi_startproc
	pushq	%rbp
	.cfi_def_cfa_offset 16
	.cfi_offset %rbp, -16
	movq	%rsp, %rbp
	.cfi_def_cfa_register %rbp
Ltmp233:
	.loc	1 422 39 prologue_end
	movq	(%rdi), %rdi
Ltmp234:
	.loc	1 422 16 is_stmt 0
	testq	%rdi, %rdi
	je	LBB15_6
Ltmp235:
	.loc	19 507 27 is_stmt 1
	movq	2080(%rdi), %rax
Ltmp236:
	.loc	19 508 30
	subq	$1, %rax
Ltmp237:
	jb	LBB15_5
Ltmp238:
	.loc	7 2058 5
	movq	%rax, 2080(%rdi)
Ltmp239:
	.loc	19 510 9
	jne	LBB15_6
Ltmp240:
	.loc	15 2264 20
	movq	$0, 8(%rdi)
Ltmp241:
	.loc	19 513 16
	cmpq	$0, 2088(%rdi)
	.loc	19 513 13 is_stmt 0
	je	LBB15_4
Ltmp242:
LBB15_6:
	.loc	14 178 1 is_stmt 1
	popq	%rbp
	retq
LBB15_4:
Ltmp243:
	.loc	19 514 17
	popq	%rbp
	jmp	__ZN15crossbeam_epoch8internal5Local8finalize17hbdefd0f40d84cd73E
Ltmp244:
LBB15_5:
	.loc	19 508 30
	leaq	_str.1(%rip), %rdi
Ltmp245:
	leaq	l___unnamed_31(%rip), %rdx
	movl	$33, %esi
	callq	__ZN4core9panicking5panic17h736ee47a631475c0E
Ltmp246:
Lfunc_end15:
	.cfi_endproc

	.section	__TEXT,__literal16,16byte_literals
	.p2align	4
LCPI16_0:
	.quad	1
	.quad	18
	.section	__TEXT,__text,regular,pure_instructions
	.p2align	4, 0x90
__ZN50_$LT$$BP$mut$u20$T$u20$as$u20$core..fmt..Debug$GT$3fmt17h4f87a982fe64df63E:
Lfunc_begin16:
	.loc	28 2123 0
	.cfi_startproc
	pushq	%rbp
	.cfi_def_cfa_offset 16
	.cfi_offset %rbp, -16
	movq	%rsp, %rbp
	.cfi_def_cfa_register %rbp
	pushq	%r15
	pushq	%r14
	pushq	%rbx
	subq	$24, %rsp
	.cfi_offset %rbx, -40
	.cfi_offset %r14, -32
	.cfi_offset %r15, -24
	movq	%rsi, %rbx
Ltmp247:
	.loc	28 2095 24 prologue_end
	movq	(%rdi), %r15
Ltmp248:
	.loc	28 2067 25
	movups	(%rsi), %xmm0
Ltmp249:
	.loc	28 0 25 is_stmt 0
	movaps	%xmm0, -48(%rbp)
Ltmp250:
	.loc	28 2068 25 is_stmt 1
	movl	48(%rsi), %r14d
Ltmp251:
	.loc	28 2074 12
	movq	%rsi, %rdi
Ltmp252:
	callq	__ZN4core3fmt9Formatter9alternate17hd5ca56d2d01a1343E
	.loc	28 0 0 is_stmt 0
	movl	48(%rbx), %ecx
	.loc	28 2074 9
	testb	%al, %al
	je	LBB16_3
Ltmp253:
	.loc	28 2075 13 is_stmt 1
	orl	$8, %ecx
	movl	%ecx, 48(%rbx)
Ltmp254:
	.loc	8 189 25
	cmpq	$1, (%rbx)
Ltmp255:
	.loc	28 2077 13
	je	LBB16_3
Ltmp256:
	.loc	28 2078 17
	movaps	LCPI16_0(%rip), %xmm0
	movups	%xmm0, (%rbx)
Ltmp257:
LBB16_3:
	.loc	28 2081 9
	orl	$4, %ecx
	movl	%ecx, 48(%rbx)
	.loc	28 2083 34
	movq	%r15, -32(%rbp)
	leaq	-32(%rbp), %rdi
	.loc	28 2083 19 is_stmt 0
	movq	%rbx, %rsi
	callq	__ZN4core3fmt3num55_$LT$impl$u20$core..fmt..LowerHex$u20$for$u20$usize$GT$3fmt17hbf7dc8c1d7fa021dE
Ltmp258:
	.loc	28 0 19
	movaps	-48(%rbp), %xmm0
Ltmp259:
	.loc	28 2085 9 is_stmt 1
	movups	%xmm0, (%rbx)
	.loc	28 2086 9
	movl	%r14d, 48(%rbx)
Ltmp260:
	.loc	28 2125 6
	addq	$24, %rsp
	popq	%rbx
Ltmp261:
	popq	%r14
Ltmp262:
	popq	%r15
	popq	%rbp
	retq
Ltmp263:
Lfunc_end16:
	.cfi_endproc

	.p2align	4, 0x90
__ZN5alloc4sync12Arc$LT$T$GT$9drop_slow17h07cc3a4886c44ffeE:
Lfunc_begin17:
	.loc	13 866 0
	.cfi_startproc
	.cfi_personality 155, _rust_eh_personality
	.cfi_lsda 16, Lexception0
	pushq	%rbp
	.cfi_def_cfa_offset 16
	.cfi_offset %rbp, -16
	movq	%rsp, %rbp
	.cfi_def_cfa_register %rbp
	pushq	%r15
	pushq	%r14
	pushq	%r13
	pushq	%r12
	pushq	%rbx
	andq	$-32, %rsp
	subq	$224, %rsp
	.cfi_offset %rbx, -56
	.cfi_offset %r12, -48
	.cfi_offset %r13, -40
	.cfi_offset %r14, -32
	.cfi_offset %r15, -24
	movq	%rdi, 32(%rsp)
Ltmp273:
	.loc	13 869 33 prologue_end
	movq	(%rdi), %rax
Ltmp274:
	.loc	15 2276 20
	movq	512(%rax), %rcx
Ltmp275:
	.loc	13 869 28
	subq	$-128, %rax
Ltmp276:
	.loc	13 0 28 is_stmt 0
	movq	%rax, 24(%rsp)
Ltmp277:
	.loc	26 223 23 is_stmt 1
	andq	$-8, %rcx
Ltmp278:
	je	LBB17_11
Ltmp279:
	.loc	36 0 0 is_stmt 0
	leaq	72(%rsp), %r13
	leaq	__ZN15crossbeam_epoch8deferred8Deferred3new4call17h8e504f3250704f70E(%rip), %rax
	movq	%rax, %xmm0
	movdqa	%xmm0, 144(%rsp)
	jmp	LBB17_2
Ltmp280:
	.p2align	4, 0x90
LBB17_10:
	.loc	10 102 5 is_stmt 1
	movl	$2104, %esi
	movl	$8, %edx
	movq	16(%rsp), %rdi
	callq	___rust_dealloc
Ltmp281:
	.loc	26 223 23
	andq	$-8, %r12
Ltmp282:
	.loc	26 0 23 is_stmt 0
	movq	%r12, %rcx
	.loc	26 223 23
	je	LBB17_11
Ltmp283:
LBB17_2:
	.loc	15 2276 20 is_stmt 1
	movq	(%rcx), %r12
Ltmp284:
	.loc	18 114 15
	movl	%r12d, %eax
	andl	$7, %eax
Ltmp285:
	.loc	26 226 28
	movq	%rax, 40(%rsp)
Ltmp286:
	.loc	26 226 17 is_stmt 0
	cmpq	$1, %rax
Ltmp287:
	jne	LBB17_17
Ltmp288:
	.loc	26 0 17
	movq	%rcx, 16(%rsp)
Ltmp289:
	.loc	19 198 47 is_stmt 1
	movq	2072(%rcx), %rbx
Ltmp290:
	.loc	32 2928 19
	cmpq	$65, %rbx
	.loc	32 2928 16 is_stmt 0
	jae	LBB17_4
Ltmp291:
	.loc	34 152 9 is_stmt 1
	shlq	$5, %rbx
Ltmp292:
	.loc	32 3303 21
	je	LBB17_10
Ltmp293:
	.loc	32 0 21 is_stmt 0
	movq	16(%rsp), %rax
	leaq	24(%rax), %r15
Ltmp294:
	xorl	%r14d, %r14d
Ltmp295:
	.p2align	4, 0x90
LBB17_8:
	.loc	19 200 57 is_stmt 1
	movlps	144(%rsp), %xmm1
Ltmp296:
	.loc	7 2058 5
	movdqu	(%r15,%r14), %xmm2
	movups	16(%r15,%r14), %xmm3
Ltmp297:
	.loc	7 2058 5 is_stmt 0
	movups	%xmm0, 16(%r15,%r14)
	movups	%xmm1, (%r15,%r14)
Ltmp298:
	.loc	7 0 5
	movaps	%xmm3, 160(%rsp)
Ltmp299:
	.loc	19 201 13 is_stmt 1
	movaps	%xmm3, 80(%rsp)
	movdqa	%xmm2, 64(%rsp)
	movdqa	%xmm2, 176(%rsp)
Ltmp300:
	.loc	36 76 20
	movq	%xmm2, %rax
Ltmp301:
Ltmp267:
	.loc	36 77 18
	movq	%r13, %rdi
	callq	*%rax
Ltmp302:
Ltmp268:
	.loc	32 3179 9
	addq	$32, %r14
	cmpq	%r14, %rbx
	movaps	176(%rsp), %xmm1
	movdqa	160(%rsp), %xmm0
	.loc	32 3303 21
	jne	LBB17_8
	jmp	LBB17_10
Ltmp303:
LBB17_11:
	.loc	32 0 21 is_stmt 0
	movq	24(%rsp), %rdi
	.loc	14 178 1 is_stmt 1
	callq	__ZN4core3ptr13drop_in_place17h2283070456d5aff3E
	movq	32(%rsp), %rcx
Ltmp304:
	.loc	13 871 12
	movq	(%rcx), %rax
Ltmp305:
	.loc	15 2314 20
	lock		decq	8(%rax)
Ltmp306:
	.loc	13 871 9
	jne	LBB17_13
Ltmp307:
	.loc	15 2563 24
	##MEMBARRIER
Ltmp308:
	.loc	13 873 28
	movq	(%rcx), %rdi
Ltmp309:
	.loc	10 102 5
	movl	$640, %esi
	movl	$128, %edx
	callq	___rust_dealloc
Ltmp310:
LBB17_13:
	.loc	13 875 6
	leaq	-40(%rbp), %rsp
Ltmp311:
	popq	%rbx
	popq	%r12
	popq	%r13
	popq	%r14
	popq	%r15
	popq	%rbp
	retq
LBB17_17:
Ltmp312:
	.loc	13 0 6 is_stmt 0
	leaq	40(%rsp), %rax
Ltmp313:
	.loc	26 226 17 is_stmt 1
	movq	%rax, 48(%rsp)
	leaq	L___unnamed_32(%rip), %rax
	movq	%rax, 56(%rsp)
	leaq	48(%rsp), %rax
Ltmp314:
	.loc	26 226 17 is_stmt 0
	movq	%rax, 112(%rsp)
	leaq	__ZN42_$LT$$RF$T$u20$as$u20$core..fmt..Debug$GT$3fmt17ha63a1f7c3f271447E(%rip), %rax
	movq	%rax, 120(%rsp)
	leaq	56(%rsp), %rcx
Ltmp315:
	movq	%rcx, 128(%rsp)
	movq	%rax, 136(%rsp)
Ltmp316:
	.loc	28 328 9 is_stmt 1
	leaq	l___unnamed_33(%rip), %rax
Ltmp317:
	movq	%rax, 64(%rsp)
	movq	$3, 72(%rsp)
	movq	$0, 80(%rsp)
	leaq	112(%rsp), %rax
Ltmp318:
	movq	%rax, 96(%rsp)
	movq	$2, 104(%rsp)
Ltmp319:
Ltmp264:
	.loc	26 226 17
	leaq	l___unnamed_34(%rip), %rsi
	leaq	64(%rsp), %rdi
	callq	__ZN3std9panicking15begin_panic_fmt17h2e6dba6f5c07d155E
Ltmp265:
	jmp	LBB17_5
Ltmp320:
LBB17_4:
Ltmp270:
	.loc	32 2929 13
	leaq	l___unnamed_28(%rip), %rdx
	movl	$64, %esi
	movq	%rbx, %rdi
	callq	__ZN4core5slice20slice_index_len_fail17h550a313151a85135E
Ltmp321:
Ltmp271:
LBB17_5:
	.loc	26 0 0 is_stmt 0
	ud2
Ltmp322:
LBB17_15:
Ltmp272:
	jmp	LBB17_16
Ltmp323:
LBB17_18:
Ltmp266:
	movq	%rax, %rbx
	jmp	LBB17_19
Ltmp324:
LBB17_14:
Ltmp269:
LBB17_16:
	movq	%rax, %rbx
	movq	16(%rsp), %rdi
Ltmp325:
	.loc	14 178 1 is_stmt 1
	callq	__ZN5alloc5alloc8box_free17hef181785a96c4560E
Ltmp326:
LBB17_19:
	.loc	14 0 1 is_stmt 0
	movq	24(%rsp), %rdi
	.loc	14 178 1
	callq	__ZN4core3ptr13drop_in_place17h2283070456d5aff3E
	movq	%rbx, %rdi
	callq	__Unwind_Resume
	ud2
Ltmp327:
Lfunc_end17:
	.cfi_endproc
	.section	__TEXT,__gcc_except_tab
	.p2align	2
GCC_except_table17:
Lexception0:
	.byte	255
	.byte	255
	.byte	1
	.uleb128 Lcst_end0-Lcst_begin0
Lcst_begin0:
	.uleb128 Ltmp267-Lfunc_begin17
	.uleb128 Ltmp268-Ltmp267
	.uleb128 Ltmp269-Lfunc_begin17
	.byte	0
	.uleb128 Ltmp268-Lfunc_begin17
	.uleb128 Ltmp264-Ltmp268
	.byte	0
	.byte	0
	.uleb128 Ltmp264-Lfunc_begin17
	.uleb128 Ltmp265-Ltmp264
	.uleb128 Ltmp266-Lfunc_begin17
	.byte	0
	.uleb128 Ltmp270-Lfunc_begin17
	.uleb128 Ltmp271-Ltmp270
	.uleb128 Ltmp272-Lfunc_begin17
	.byte	0
	.uleb128 Ltmp271-Lfunc_begin17
	.uleb128 Lfunc_end17-Ltmp271
	.byte	0
	.byte	0
Lcst_end0:
	.p2align	2

	.section	__TEXT,__text,regular,pure_instructions
	.p2align	4, 0x90
__ZN5alloc5alloc8box_free17hef181785a96c4560E:
Lfunc_begin18:
	.loc	10 281 0 is_stmt 1
	.cfi_startproc
	pushq	%rbp
	.cfi_def_cfa_offset 16
	.cfi_offset %rbp, -16
	movq	%rsp, %rbp
	.cfi_def_cfa_register %rbp
Ltmp328:
	.loc	10 102 5 prologue_end
	movl	$2104, %esi
	movl	$8, %edx
	popq	%rbp
	jmp	___rust_dealloc
Ltmp329:
Lfunc_end18:
	.cfi_endproc

	.p2align	4, 0x90
__ZN91_$LT$std..panicking..begin_panic..PanicPayload$LT$A$GT$$u20$as$u20$core..panic..BoxMeUp$GT$3get17hd89d195487499c11E:
Lfunc_begin19:
	.loc	27 430 0
	.cfi_startproc
	pushq	%rbp
	.cfi_def_cfa_offset 16
	.cfi_offset %rbp, -16
	movq	%rsp, %rbp
	.cfi_def_cfa_register %rbp
Ltmp330:
	.loc	27 432 17 prologue_end
	cmpq	$0, (%rdi)
	je	LBB19_2
Ltmp331:
	.loc	27 0 17 is_stmt 0
	movq	%rdi, %rax
Ltmp332:
	.loc	27 435 10 is_stmt 1
	leaq	l___unnamed_4(%rip), %rdx
	popq	%rbp
	retq
Ltmp333:
LBB19_2:
	.loc	27 433 25
	callq	__ZN3std7process5abort17h4dccaf05298ce780E
Ltmp334:
Lfunc_end19:
	.cfi_endproc

	.p2align	4, 0x90
__ZN91_$LT$std..panicking..begin_panic..PanicPayload$LT$A$GT$$u20$as$u20$core..panic..BoxMeUp$GT$8take_box17h7f351b69347e64efE:
Lfunc_begin20:
	.loc	27 417 0
	.cfi_startproc
	pushq	%rbp
	.cfi_def_cfa_offset 16
	.cfi_offset %rbp, -16
	movq	%rsp, %rbp
	.cfi_def_cfa_register %rbp
Ltmp335:
	pushq	%r14
	pushq	%rbx
	.cfi_offset %rbx, -32
	.cfi_offset %r14, -24
Ltmp336:
	.loc	7 2058 5 prologue_end
	movq	(%rdi), %rbx
Ltmp337:
	movq	8(%rdi), %r14
Ltmp338:
	.loc	7 2058 5 is_stmt 0
	movq	$0, (%rdi)
Ltmp339:
	.loc	27 424 17 is_stmt 1
	testq	%rbx, %rbx
	je	LBB20_3
Ltmp340:
	.loc	10 80 5
	movl	$16, %edi
Ltmp341:
	movl	$8, %esi
	callq	___rust_alloc
Ltmp342:
	.loc	10 269 9
	testq	%rax, %rax
	je	LBB20_4
Ltmp343:
	.loc	11 174 13
	movq	%rbx, (%rax)
	movq	%r14, 8(%rax)
Ltmp344:
	.file	37 "/rustc/a74d1862d4d87a56244958416fd05976c58ca1a8/src/libcore/ptr/unique.rs"
	.loc	37 108 6
	leaq	l___unnamed_4(%rip), %rdx
Ltmp345:
	.loc	27 428 10
	popq	%rbx
Ltmp346:
	popq	%r14
Ltmp347:
	popq	%rbp
	retq
Ltmp348:
LBB20_3:
	.loc	27 425 25
	callq	__ZN3std7process5abort17h4dccaf05298ce780E
Ltmp349:
LBB20_4:
	.loc	10 270 19
	movl	$16, %edi
	movl	$8, %esi
	callq	__ZN5alloc5alloc18handle_alloc_error17hbc0ab0ed90816c07E
Ltmp350:
Lfunc_end20:
	.cfi_endproc

	.section	__TEXT,__literal16,16byte_literals
	.p2align	4
LCPI21_0:
	.quad	1
	.quad	1
	.section	__TEXT,__text,regular,pure_instructions
	.globl	__ZN15crossbeam_epoch9collector9Collector3new17h0808e8918fc2b5f2E
	.p2align	4, 0x90
__ZN15crossbeam_epoch9collector9Collector3new17h0808e8918fc2b5f2E:
Lfunc_begin21:
	.loc	20 31 0
	.cfi_startproc
	pushq	%rbp
	.cfi_def_cfa_offset 16
	.cfi_offset %rbp, -16
	movq	%rsp, %rbp
	.cfi_def_cfa_register %rbp
Ltmp351:
	pushq	%rbx
	subq	$2424, %rsp
	.cfi_offset %rbx, -24
Ltmp352:
	.loc	10 80 5 prologue_end
	movl	$2072, %edi
	movl	$8, %esi
	callq	___rust_alloc
Ltmp353:
	.loc	10 269 9
	testq	%rax, %rax
	je	LBB21_3
Ltmp354:
	.loc	11 0 0 is_stmt 0
	movq	%rax, %rbx
Ltmp355:
	leaq	-2432(%rbp), %rsi
	.loc	11 174 13 is_stmt 1
	movl	$2064, %edx
	movq	%rax, %rdi
	callq	_memcpy
	movq	$0, 2064(%rbx)
	leaq	-248(%rbp), %rdi
	leaq	-2432(%rbp), %rsi
Ltmp356:
	.loc	12 60 13
	movl	$15, %ecx
	rep;movsq (%rsi), %es:(%rdi)
	leaq	-128(%rbp), %rdi
	leaq	-368(%rbp), %rsi
	movl	$15, %ecx
	rep;movsq (%rsi), %es:(%rdi)
Ltmp357:
	.loc	10 80 5
	movl	$640, %edi
	movl	$128, %esi
	callq	___rust_alloc
Ltmp358:
	.loc	10 269 9
	testq	%rax, %rax
	je	LBB21_4
Ltmp359:
	.loc	13 322 29
	movaps	LCPI21_0(%rip), %xmm0
	movaps	%xmm0, (%rax)
	movq	%rbx, 128(%rax)
	leaq	136(%rax), %rdi
	leaq	-248(%rbp), %rsi
	movl	$15, %ecx
	rep;movsq (%rsi), %es:(%rdi)
	movq	%rbx, 256(%rax)
	leaq	264(%rax), %rdi
	leaq	-128(%rbp), %rsi
	movl	$15, %ecx
	rep;movsq (%rsi), %es:(%rdi)
	movq	$0, 384(%rax)
	leaq	392(%rax), %rdi
	leaq	-2432(%rbp), %rsi
	movl	$15, %ecx
	rep;movsq (%rsi), %es:(%rdi)
	movq	$0, 512(%rax)
	movq	%rax, %rdi
	addq	$520, %rdi
	leaq	-368(%rbp), %rsi
	movl	$15, %ecx
	rep;movsq (%rsi), %es:(%rdi)
Ltmp360:
	.loc	20 35 6
	addq	$2424, %rsp
	popq	%rbx
Ltmp361:
	popq	%rbp
	retq
Ltmp362:
LBB21_3:
	.loc	10 270 19
	movl	$2072, %edi
	movl	$8, %esi
	callq	__ZN5alloc5alloc18handle_alloc_error17hbc0ab0ed90816c07E
Ltmp363:
LBB21_4:
	.loc	10 270 19 is_stmt 0
	movl	$640, %edi
	movl	$128, %esi
	callq	__ZN5alloc5alloc18handle_alloc_error17hbc0ab0ed90816c07E
Ltmp364:
Lfunc_end21:
	.cfi_endproc

	.section	__TEXT,__literal16,16byte_literals
	.p2align	4
LCPI22_0:
	.byte	0
	.byte	0
	.byte	0
	.byte	0
	.byte	0
	.byte	0
	.byte	0
	.byte	0
	.byte	1
	.byte	0
	.byte	0
	.byte	0
	.byte	0
	.byte	0
	.byte	0
	.byte	0
	.section	__TEXT,__text,regular,pure_instructions
	.globl	__ZN15crossbeam_epoch9collector9Collector8register17h61485f26c4de6be0E
	.p2align	4, 0x90
__ZN15crossbeam_epoch9collector9Collector8register17h61485f26c4de6be0E:
Lfunc_begin22:
	.loc	20 38 0 is_stmt 1
	.cfi_startproc
	pushq	%rbp
	.cfi_def_cfa_offset 16
	.cfi_offset %rbp, -16
	movq	%rsp, %rbp
	.cfi_def_cfa_register %rbp
Ltmp365:
	pushq	%r14
	pushq	%rbx
	movl	$4112, %eax
	callq	___rust_probestack
	subq	%rax, %rsp
	.cfi_offset %rbx, -32
	.cfi_offset %r14, -24
	.loc	20 39 9 prologue_end
	movq	(%rdi), %r14
Ltmp366:
	.loc	15 2303 20
	lock		incq	(%r14)
Ltmp367:
	.loc	13 1098 9
	jle	LBB22_5
Ltmp368:
	.loc	13 0 9 is_stmt 0
	leaq	-4128(%rbp), %rbx
Ltmp369:
	.loc	19 74 9 is_stmt 1
	movq	%rbx, %rdi
Ltmp370:
	callq	__ZN73_$LT$crossbeam_epoch..internal..Bag$u20$as$u20$core..default..Default$GT$7default17h1c3317ab122cc6f0E
Ltmp371:
	.loc	19 0 9 is_stmt 0
	leaq	-2072(%rbp), %rdi
Ltmp372:
	.loc	18 664 29 is_stmt 1
	movl	$2056, %edx
	movq	%rbx, %rsi
	callq	_memcpy
Ltmp373:
	.loc	10 80 5
	movl	$2104, %edi
	movl	$8, %esi
	callq	___rust_alloc
Ltmp374:
	.loc	10 269 9
	testq	%rax, %rax
	je	LBB22_6
Ltmp375:
	.loc	11 0 0 is_stmt 0
	movq	%rax, %rbx
Ltmp376:
	.loc	11 174 13 is_stmt 1
	movq	$0, 8(%rax)
	movq	$0, (%rax)
	movq	%r14, 16(%rax)
	leaq	24(%rax), %rdi
	leaq	-2072(%rbp), %rsi
	movl	$2056, %edx
	callq	_memcpy
	movaps	LCPI22_0(%rip), %xmm0
	movups	%xmm0, 2080(%rbx)
	movq	$0, 2096(%rbx)
Ltmp377:
	.loc	18 113 15
	andq	$-8, %rbx
Ltmp378:
	.loc	15 2276 20
	movq	512(%r14), %rax
Ltmp379:
	.p2align	4, 0x90
LBB22_3:
	.loc	15 2265 20
	movq	%rax, (%rbx)
Ltmp380:
	.loc	15 2358 31
	lock		cmpxchgq	%rbx, 512(%r14)
Ltmp381:
	.loc	25 611 13
	jne	LBB22_3
Ltmp382:
	.loc	20 40 6
	movq	%rbx, %rax
	addq	$4112, %rsp
	popq	%rbx
	popq	%r14
	popq	%rbp
	retq
LBB22_5:
Ltmp383:
	.loc	13 1100 17
	ud2
Ltmp384:
LBB22_6:
	.loc	10 270 19
	movl	$2104, %edi
	movl	$8, %esi
	callq	__ZN5alloc5alloc18handle_alloc_error17hbc0ab0ed90816c07E
Ltmp385:
Lfunc_end22:
	.cfi_endproc

	.globl	__ZN76_$LT$crossbeam_epoch..collector..Collector$u20$as$u20$core..clone..Clone$GT$5clone17h8e2a7c3bcd70d7d9E
	.p2align	4, 0x90
__ZN76_$LT$crossbeam_epoch..collector..Collector$u20$as$u20$core..clone..Clone$GT$5clone17h8e2a7c3bcd70d7d9E:
Lfunc_begin23:
	.loc	20 45 0
	.cfi_startproc
	pushq	%rbp
	.cfi_def_cfa_offset 16
	.cfi_offset %rbp, -16
	movq	%rsp, %rbp
	.cfi_def_cfa_register %rbp
Ltmp386:
	.loc	20 47 21 prologue_end
	movq	(%rdi), %rax
Ltmp387:
	.loc	15 2303 20
	lock		incq	(%rax)
Ltmp388:
	.loc	13 1098 9
	jle	LBB23_1
Ltmp389:
	.loc	20 49 6
	popq	%rbp
	retq
Ltmp390:
LBB23_1:
	.loc	13 1100 17
	ud2
Ltmp391:
Lfunc_end23:
	.cfi_endproc

	.globl	__ZN74_$LT$crossbeam_epoch..collector..Collector$u20$as$u20$core..fmt..Debug$GT$3fmt17h085f0f5471fab2d8E
	.p2align	4, 0x90
__ZN74_$LT$crossbeam_epoch..collector..Collector$u20$as$u20$core..fmt..Debug$GT$3fmt17h085f0f5471fab2d8E:
Lfunc_begin24:
	.loc	20 53 0
	.cfi_startproc
	pushq	%rbp
	.cfi_def_cfa_offset 16
	.cfi_offset %rbp, -16
	movq	%rsp, %rbp
	.cfi_def_cfa_register %rbp
	movq	%rsi, %rdi
Ltmp392:
	.loc	20 54 9 prologue_end
	leaq	L___unnamed_35(%rip), %rsi
	movl	$16, %edx
	popq	%rbp
	jmp	__ZN4core3fmt9Formatter3pad17he4a76f49c06ce69bE
Ltmp393:
Lfunc_end24:
	.cfi_endproc

	.globl	__ZN78_$LT$crossbeam_epoch..collector..Collector$u20$as$u20$core..cmp..PartialEq$GT$2eq17h55d048e8545112c3E
	.p2align	4, 0x90
__ZN78_$LT$crossbeam_epoch..collector..Collector$u20$as$u20$core..cmp..PartialEq$GT$2eq17h55d048e8545112c3E:
Lfunc_begin25:
	.loc	20 60 0
	.cfi_startproc
	pushq	%rbp
	.cfi_def_cfa_offset 16
	.cfi_offset %rbp, -16
	movq	%rsp, %rbp
	.cfi_def_cfa_register %rbp
Ltmp394:
	.loc	20 61 9 prologue_end
	movq	(%rdi), %rax
Ltmp395:
	.loc	13 897 9
	cmpq	(%rsi), %rax
	sete	%al
Ltmp396:
	.loc	20 62 6
	popq	%rbp
	retq
Ltmp397:
Lfunc_end25:
	.cfi_endproc

	.globl	__ZN76_$LT$crossbeam_epoch..collector..LocalHandle$u20$as$u20$core..fmt..Debug$GT$3fmt17h9ff2d871a51de848E
	.p2align	4, 0x90
__ZN76_$LT$crossbeam_epoch..collector..LocalHandle$u20$as$u20$core..fmt..Debug$GT$3fmt17h9ff2d871a51de848E:
Lfunc_begin26:
	.loc	20 101 0
	.cfi_startproc
	pushq	%rbp
	.cfi_def_cfa_offset 16
	.cfi_offset %rbp, -16
	movq	%rsp, %rbp
	.cfi_def_cfa_register %rbp
	movq	%rsi, %rdi
Ltmp398:
	.loc	20 102 9 prologue_end
	leaq	l___unnamed_36(%rip), %rsi
	movl	$18, %edx
	popq	%rbp
	jmp	__ZN4core3fmt9Formatter3pad17he4a76f49c06ce69bE
Ltmp399:
Lfunc_end26:
	.cfi_endproc

	.globl	__ZN72_$LT$crossbeam_epoch..deferred..Deferred$u20$as$u20$core..fmt..Debug$GT$3fmt17h39ddc9a30dc9f9ffE
	.p2align	4, 0x90
__ZN72_$LT$crossbeam_epoch..deferred..Deferred$u20$as$u20$core..fmt..Debug$GT$3fmt17h39ddc9a30dc9f9ffE:
Lfunc_begin27:
	.loc	36 28 0
	.cfi_startproc
	pushq	%rbp
	.cfi_def_cfa_offset 16
	.cfi_offset %rbp, -16
	movq	%rsp, %rbp
	.cfi_def_cfa_register %rbp
	movq	%rsi, %rdi
Ltmp400:
	.loc	36 29 9 prologue_end
	leaq	l___unnamed_27(%rip), %rsi
	movl	$15, %edx
	popq	%rbp
	jmp	__ZN4core3fmt9Formatter3pad17he4a76f49c06ce69bE
Ltmp401:
Lfunc_end27:
	.cfi_endproc

	.p2align	4, 0x90
__ZN15crossbeam_epoch8deferred8Deferred3new4call17h21897317832b389eE:
Lfunc_begin28:
	.loc	36 44 0
	.cfi_startproc
	pushq	%rbp
	.cfi_def_cfa_offset 16
	.cfi_offset %rbp, -16
	movq	%rsp, %rbp
	.cfi_def_cfa_register %rbp
Ltmp402:
	.loc	36 45 32 prologue_end
	movq	(%rdi), %rdi
Ltmp403:
	.loc	18 1077 13
	cmpq	$7, %rdi
	.loc	18 1076 9
	jbe	LBB28_1
Ltmp404:
	.loc	18 113 15
	andq	$-8, %rdi
Ltmp405:
	.loc	10 102 5
	movl	$2072, %esi
	movl	$8, %edx
	popq	%rbp
	jmp	___rust_dealloc
Ltmp406:
LBB28_1:
	.loc	18 1076 9
	leaq	l___unnamed_29(%rip), %rdi
Ltmp407:
	leaq	l___unnamed_30(%rip), %rdx
	movl	$39, %esi
	callq	__ZN3std9panicking11begin_panic17hc9dee1104af34725E
Ltmp408:
Lfunc_end28:
	.cfi_endproc

	.p2align	4, 0x90
__ZN15crossbeam_epoch8deferred8Deferred3new4call17h8b760865bd39c0e3E:
Lfunc_begin29:
	.loc	36 44 0
	.cfi_startproc
	.cfi_personality 155, _rust_eh_personality
	.cfi_lsda 16, Lexception1
	pushq	%rbp
	.cfi_def_cfa_offset 16
	.cfi_offset %rbp, -16
	movq	%rsp, %rbp
	.cfi_def_cfa_register %rbp
Ltmp415:
	pushq	%r15
	pushq	%r14
	pushq	%r12
	pushq	%rbx
	andq	$-32, %rsp
	subq	$128, %rsp
	.cfi_offset %rbx, -48
	.cfi_offset %r12, -40
	.cfi_offset %r14, -32
	.cfi_offset %r15, -24
	.loc	36 45 32 prologue_end
	movq	(%rdi), %r12
Ltmp416:
	.loc	18 1077 13
	cmpq	$7, %r12
	.loc	18 1076 9
	jbe	LBB29_12
Ltmp417:
	.loc	18 113 15
	andq	$-8, %r12
Ltmp418:
	.loc	19 198 47
	movq	2072(%r12), %r14
Ltmp419:
	.loc	32 2928 19
	cmpq	$65, %r14
	.loc	32 2928 16 is_stmt 0
	jae	LBB29_2
Ltmp420:
	.loc	34 152 9 is_stmt 1
	shlq	$5, %r14
Ltmp421:
	.loc	32 3303 21
	je	LBB29_8
Ltmp422:
	.loc	36 0 0 is_stmt 0
	leaq	72(%rsp), %r15
	xorl	%ebx, %ebx
	leaq	__ZN15crossbeam_epoch8deferred8Deferred3new4call17h8e504f3250704f70E(%rip), %rax
	movq	%rax, %xmm0
	movdqa	%xmm0, 16(%rsp)
Ltmp423:
	.p2align	4, 0x90
LBB29_6:
	.loc	19 200 57 is_stmt 1
	movlps	16(%rsp), %xmm1
Ltmp424:
	.loc	7 2058 5
	movdqu	24(%r12,%rbx), %xmm2
	movups	40(%r12,%rbx), %xmm3
Ltmp425:
	.loc	7 2058 5 is_stmt 0
	movups	%xmm0, 40(%r12,%rbx)
	movups	%xmm1, 24(%r12,%rbx)
Ltmp426:
	.loc	7 0 5
	movaps	%xmm3, 32(%rsp)
Ltmp427:
	.loc	19 201 13 is_stmt 1
	movaps	%xmm3, 80(%rsp)
	movdqa	%xmm2, 64(%rsp)
	movdqa	%xmm2, 48(%rsp)
Ltmp428:
	.loc	36 76 20
	movq	%xmm2, %rax
Ltmp429:
Ltmp409:
	.loc	36 77 18
	movq	%r15, %rdi
Ltmp430:
	callq	*%rax
Ltmp431:
Ltmp410:
	.loc	32 3179 9
	addq	$32, %rbx
	cmpq	%rbx, %r14
	movaps	48(%rsp), %xmm1
	movaps	32(%rsp), %xmm0
	.loc	32 3303 21
	jne	LBB29_6
Ltmp432:
LBB29_8:
	.loc	10 102 5
	movl	$2104, %esi
	movl	$8, %edx
	movq	%r12, %rdi
	callq	___rust_dealloc
Ltmp433:
	.loc	36 47 18
	leaq	-32(%rbp), %rsp
	popq	%rbx
	popq	%r12
Ltmp434:
	popq	%r14
	popq	%r15
	popq	%rbp
	retq
Ltmp435:
LBB29_12:
	.loc	18 1076 9
	leaq	l___unnamed_29(%rip), %rdi
Ltmp436:
	leaq	l___unnamed_30(%rip), %rdx
	movl	$39, %esi
	callq	__ZN3std9panicking11begin_panic17hc9dee1104af34725E
Ltmp437:
LBB29_2:
Ltmp412:
	.loc	32 2929 13
	leaq	l___unnamed_28(%rip), %rdx
	movl	$64, %esi
	movq	%r14, %rdi
Ltmp438:
	callq	__ZN4core5slice20slice_index_len_fail17h550a313151a85135E
Ltmp413:
Ltmp439:
	ud2
Ltmp440:
LBB29_10:
Ltmp414:
	.loc	32 0 13 is_stmt 0
	jmp	LBB29_11
Ltmp441:
LBB29_9:
Ltmp411:
LBB29_11:
	movq	%rax, %r14
	.loc	14 178 1 is_stmt 1
	movq	%r12, %rdi
	callq	__ZN5alloc5alloc8box_free17hef181785a96c4560E
	movq	%r14, %rdi
	callq	__Unwind_Resume
	ud2
Ltmp442:
Lfunc_end29:
	.cfi_endproc
	.section	__TEXT,__gcc_except_tab
	.p2align	2
GCC_except_table29:
Lexception1:
	.byte	255
	.byte	255
	.byte	1
	.uleb128 Lcst_end1-Lcst_begin1
Lcst_begin1:
	.uleb128 Ltmp409-Lfunc_begin29
	.uleb128 Ltmp410-Ltmp409
	.uleb128 Ltmp411-Lfunc_begin29
	.byte	0
	.uleb128 Ltmp410-Lfunc_begin29
	.uleb128 Ltmp412-Ltmp410
	.byte	0
	.byte	0
	.uleb128 Ltmp412-Lfunc_begin29
	.uleb128 Ltmp413-Ltmp412
	.uleb128 Ltmp414-Lfunc_begin29
	.byte	0
	.uleb128 Ltmp413-Lfunc_begin29
	.uleb128 Lfunc_end29-Ltmp413
	.byte	0
	.byte	0
Lcst_end1:
	.p2align	2

	.section	__TEXT,__text,regular,pure_instructions
	.p2align	4, 0x90
__ZN15crossbeam_epoch8deferred8Deferred3new4call17h8e504f3250704f70E:
Lfunc_begin30:
	.loc	36 44 0
	.cfi_startproc
	pushq	%rbp
	.cfi_def_cfa_offset 16
	.cfi_offset %rbp, -16
	movq	%rsp, %rbp
	.cfi_def_cfa_register %rbp
Ltmp443:
	.loc	36 47 18 prologue_end
	popq	%rbp
	retq
Ltmp444:
Lfunc_end30:
	.cfi_endproc

	.globl	__ZN15crossbeam_epoch5guard5Guard5flush17h2e6802731d319fd3E
	.p2align	4, 0x90
__ZN15crossbeam_epoch5guard5Guard5flush17h2e6802731d319fd3E:
Lfunc_begin31:
	.loc	1 299 0
	.cfi_startproc
	pushq	%rbp
	.cfi_def_cfa_offset 16
	.cfi_offset %rbp, -16
	movq	%rsp, %rbp
	.cfi_def_cfa_register %rbp
Ltmp445:
	pushq	%r15
	pushq	%r14
	pushq	%r13
	pushq	%r12
	pushq	%rbx
	movl	$4120, %eax
	callq	___rust_probestack
	subq	%rax, %rsp
	.cfi_offset %rbx, -56
	.cfi_offset %r12, -48
	.cfi_offset %r13, -40
	.cfi_offset %r14, -32
	.cfi_offset %r15, -24
	.loc	1 300 39 prologue_end
	movq	(%rdi), %r15
Ltmp446:
	.loc	1 300 16 is_stmt 0
	testq	%r15, %r15
	je	LBB31_10
Ltmp447:
	.loc	1 0 16
	movq	%rdi, %r14
Ltmp448:
	.loc	19 79 9 is_stmt 1
	cmpq	$0, 2072(%r15)
Ltmp449:
	.loc	19 440 9
	je	LBB31_9
Ltmp450:
	.loc	19 441 13
	movq	16(%r15), %rbx
Ltmp451:
	.loc	19 0 13 is_stmt 0
	leaq	-2096(%rbp), %rdi
Ltmp452:
	.loc	19 74 9 is_stmt 1
	callq	__ZN73_$LT$crossbeam_epoch..internal..Bag$u20$as$u20$core..default..Default$GT$7default17h1c3317ab122cc6f0E
Ltmp453:
	.loc	19 0 9 is_stmt 0
	leaq	24(%r15), %rax
	movl	$32, %ecx
Ltmp454:
	.p2align	4, 0x90
LBB31_3:
	.loc	7 2058 5 is_stmt 1
	movups	-32(%rax,%rcx), %xmm0
	movups	-16(%rax,%rcx), %xmm1
Ltmp455:
	.loc	7 2058 5 is_stmt 0
	movq	-2104(%rbp,%rcx), %rdx
	movq	%rdx, -8(%rax,%rcx)
	movq	-2112(%rbp,%rcx), %rdx
	movq	%rdx, -16(%rax,%rcx)
	movq	-2128(%rbp,%rcx), %rdx
	movq	-2120(%rbp,%rcx), %rsi
	movq	%rsi, -24(%rax,%rcx)
	movq	%rdx, -32(%rax,%rcx)
Ltmp456:
	.loc	7 2058 5
	movups	%xmm1, -2112(%rbp,%rcx)
	movups	%xmm0, -2128(%rbp,%rcx)
Ltmp457:
	.loc	7 2058 5
	movups	(%rax,%rcx), %xmm0
	movups	16(%rax,%rcx), %xmm1
Ltmp458:
	.loc	7 2058 5
	movq	-2072(%rbp,%rcx), %rdx
	movq	%rdx, 24(%rax,%rcx)
	movq	-2080(%rbp,%rcx), %rdx
	movq	%rdx, 16(%rax,%rcx)
	movq	-2096(%rbp,%rcx), %rdx
	movq	-2088(%rbp,%rcx), %rsi
	movq	%rsi, 8(%rax,%rcx)
	movq	%rdx, (%rax,%rcx)
Ltmp459:
	.loc	7 2058 5
	movups	%xmm0, -2096(%rbp,%rcx)
	movups	%xmm1, -2080(%rbp,%rcx)
Ltmp460:
	.loc	14 458 11 is_stmt 1
	addq	$64, %rcx
Ltmp461:
	cmpq	$2057, %rcx
	.loc	14 458 5 is_stmt 0
	jb	LBB31_3
Ltmp462:
	.loc	7 2058 5 is_stmt 1
	movq	2072(%r15), %rax
Ltmp463:
	.loc	7 2058 5 is_stmt 0
	movq	-48(%rbp), %rcx
	movq	%rcx, 2072(%r15)
Ltmp464:
	.loc	7 2058 5
	movq	%rax, -48(%rbp)
	leaq	-4152(%rbp), %r12
	leaq	-2096(%rbp), %rsi
Ltmp465:
	.loc	17 806 5 is_stmt 1
	movl	$2056, %edx
	movq	%r12, %rdi
	callq	_memcpy
Ltmp466:
	.loc	15 2566 23
	mfence
Ltmp467:
	.loc	15 2276 20
	movq	384(%rbx), %r13
Ltmp468:
	.loc	15 0 20 is_stmt 0
	leaq	-2096(%rbp), %rdi
Ltmp469:
	.loc	18 664 29 is_stmt 1
	movl	$2056, %edx
	movq	%r12, %rsi
	callq	_memcpy
Ltmp470:
	.loc	10 80 5
	movl	$2072, %edi
	movl	$8, %esi
	callq	___rust_alloc
Ltmp471:
	.loc	10 269 9
	testq	%rax, %rax
	je	LBB31_11
Ltmp472:
	.loc	11 0 0 is_stmt 0
	movq	%rax, %r12
Ltmp473:
	.loc	11 174 13 is_stmt 1
	movq	%r13, (%rax)
	movq	%rax, %rdi
	addq	$8, %rdi
	leaq	-2096(%rbp), %rsi
	movl	$2056, %edx
	callq	_memcpy
	movq	$0, 2064(%r12)
	jmp	LBB31_6
Ltmp474:
	.p2align	4, 0x90
LBB31_12:
	.loc	15 2332 31
	movq	%rcx, %rax
	lock		cmpxchgq	%rsi, 256(%rbx)
Ltmp475:
LBB31_6:
	.loc	15 2275 20
	movq	256(%rbx), %rcx
Ltmp476:
	.loc	18 113 15
	movq	%rcx, %rdx
	andq	$-8, %rdx
Ltmp477:
	.loc	15 2275 20
	movq	2064(%rdx), %rsi
Ltmp478:
	.loc	8 189 25
	cmpq	$7, %rsi
Ltmp479:
	.loc	12 71 9
	ja	LBB31_12
Ltmp480:
	.loc	15 2332 31
	xorl	%eax, %eax
	lock		cmpxchgq	%r12, 2064(%rdx)
Ltmp481:
	.loc	25 611 13
	jne	LBB31_6
Ltmp482:
	.loc	15 2332 31
	movq	%rcx, %rax
	lock		cmpxchgq	%r12, 256(%rbx)
Ltmp483:
LBB31_9:
	.loc	19 444 9
	movq	16(%r15), %rdi
Ltmp484:
	.loc	13 1114 9
	subq	$-128, %rdi
Ltmp485:
	.loc	19 444 9
	movq	%r14, %rsi
	addq	$4120, %rsp
	popq	%rbx
	popq	%r12
	popq	%r13
	popq	%r14
Ltmp486:
	popq	%r15
Ltmp487:
	popq	%rbp
	jmp	__ZN15crossbeam_epoch8internal6Global7collect17hcf95bb3c3505e5afE
Ltmp488:
LBB31_10:
	.loc	1 303 6
	addq	$4120, %rsp
	popq	%rbx
	popq	%r12
	popq	%r13
	popq	%r14
	popq	%r15
	popq	%rbp
	retq
Ltmp489:
LBB31_11:
	.loc	10 270 19
	movl	$2072, %edi
	movl	$8, %esi
	callq	__ZN5alloc5alloc18handle_alloc_error17hbc0ab0ed90816c07E
Ltmp490:
Lfunc_end31:
	.cfi_endproc

	.globl	__ZN15crossbeam_epoch5guard5Guard5repin17h19b80e3f42795f28E
	.p2align	4, 0x90
__ZN15crossbeam_epoch5guard5Guard5repin17h19b80e3f42795f28E:
Lfunc_begin32:
	.loc	1 336 0
	.cfi_startproc
	pushq	%rbp
	.cfi_def_cfa_offset 16
	.cfi_offset %rbp, -16
	movq	%rsp, %rbp
	.cfi_def_cfa_register %rbp
Ltmp491:
	.loc	1 337 39 prologue_end
	movq	(%rdi), %rax
Ltmp492:
	.loc	1 337 16 is_stmt 0
	testq	%rax, %rax
	je	LBB32_4
Ltmp493:
	.loc	19 525 12 is_stmt 1
	cmpq	$1, 2080(%rax)
	.loc	19 525 9 is_stmt 0
	jne	LBB32_4
Ltmp494:
	.loc	15 2276 20 is_stmt 1
	movq	8(%rax), %rdx
Ltmp495:
	.loc	19 527 32
	movq	16(%rax), %rcx
Ltmp496:
	.loc	15 2276 20
	movq	384(%rcx), %rcx
Ltmp497:
	.loc	29 50 19
	orq	$1, %rcx
Ltmp498:
	.loc	29 19 5
	cmpq	%rcx, %rdx
Ltmp499:
	.loc	19 530 13
	je	LBB32_4
Ltmp500:
	.loc	15 2264 20
	movq	%rcx, 8(%rax)
Ltmp501:
LBB32_4:
	.loc	1 340 6
	popq	%rbp
	retq
Ltmp502:
Lfunc_end32:
	.cfi_endproc

	.globl	__ZN15crossbeam_epoch5guard5Guard9collector17h20261b65ea401d7eE
	.p2align	4, 0x90
__ZN15crossbeam_epoch5guard5Guard9collector17h20261b65ea401d7eE:
Lfunc_begin33:
	.loc	1 414 0
	.cfi_startproc
	pushq	%rbp
	.cfi_def_cfa_offset 16
	.cfi_offset %rbp, -16
	movq	%rsp, %rbp
	.cfi_def_cfa_register %rbp
Ltmp503:
	.loc	1 415 18 prologue_end
	movq	(%rdi), %rcx
Ltmp504:
	.loc	8 458 13
	leaq	16(%rcx), %rax
	testq	%rcx, %rcx
	cmoveq	%rcx, %rax
Ltmp505:
	.loc	1 416 6
	popq	%rbp
	retq
Ltmp506:
Lfunc_end33:
	.cfi_endproc

	.globl	__ZN66_$LT$crossbeam_epoch..guard..Guard$u20$as$u20$core..fmt..Debug$GT$3fmt17h6dd11bacf5c8eedaE
	.p2align	4, 0x90
__ZN66_$LT$crossbeam_epoch..guard..Guard$u20$as$u20$core..fmt..Debug$GT$3fmt17h6dd11bacf5c8eedaE:
Lfunc_begin34:
	.loc	1 429 0
	.cfi_startproc
	pushq	%rbp
	.cfi_def_cfa_offset 16
	.cfi_offset %rbp, -16
	movq	%rsp, %rbp
	.cfi_def_cfa_register %rbp
	movq	%rsi, %rdi
Ltmp507:
	.loc	1 430 9 prologue_end
	leaq	l___unnamed_37(%rip), %rsi
	movl	$12, %edx
	popq	%rbp
	jmp	__ZN4core3fmt9Formatter3pad17he4a76f49c06ce69bE
Ltmp508:
Lfunc_end34:
	.cfi_endproc

	.globl	__ZN73_$LT$crossbeam_epoch..internal..Bag$u20$as$u20$core..default..Default$GT$7default17h1c3317ab122cc6f0E
	.p2align	4, 0x90
__ZN73_$LT$crossbeam_epoch..internal..Bag$u20$as$u20$core..default..Default$GT$7default17h1c3317ab122cc6f0E:
Lfunc_begin35:
	.loc	19 110 0
	.cfi_startproc
	pushq	%rbp
	.cfi_def_cfa_offset 16
	.cfi_offset %rbp, -16
	movq	%rsp, %rbp
	.cfi_def_cfa_register %rbp
	subq	$1536, %rsp
	movq	%rdi, %rax
Ltmp509:
	.loc	19 115 24 prologue_end
	movq	-680(%rbp), %rcx
	movq	%rcx, -656(%rbp)
	movq	-696(%rbp), %rcx
	movq	-688(%rbp), %rdx
	movq	%rdx, -664(%rbp)
	movq	%rcx, -672(%rbp)
	movq	-704(%rbp), %rcx
	movq	%rcx, -632(%rbp)
	movq	-720(%rbp), %rcx
	movq	-712(%rbp), %rdx
	movq	%rdx, -640(%rbp)
	movq	%rcx, -648(%rbp)
	movq	-728(%rbp), %rcx
	movq	%rcx, -608(%rbp)
	movq	-744(%rbp), %rcx
	movq	-736(%rbp), %rdx
	movq	%rdx, -616(%rbp)
	movq	%rcx, -624(%rbp)
	movq	-752(%rbp), %rcx
	movq	%rcx, -584(%rbp)
	movq	-768(%rbp), %rcx
	movq	-760(%rbp), %rdx
	movq	%rdx, -592(%rbp)
	movq	%rcx, -600(%rbp)
	movq	-776(%rbp), %rcx
	movq	%rcx, -560(%rbp)
	movq	-792(%rbp), %rcx
	movq	-784(%rbp), %rdx
	movq	%rdx, -568(%rbp)
	movq	%rcx, -576(%rbp)
	movq	-800(%rbp), %rcx
	movq	%rcx, -536(%rbp)
	movq	-816(%rbp), %rcx
	movq	-808(%rbp), %rdx
	movq	%rdx, -544(%rbp)
	movq	%rcx, -552(%rbp)
	movq	-824(%rbp), %rcx
	movq	%rcx, -512(%rbp)
	movq	-840(%rbp), %rcx
	movq	-832(%rbp), %rdx
	movq	%rdx, -520(%rbp)
	movq	%rcx, -528(%rbp)
	movq	-848(%rbp), %rcx
	movq	%rcx, -488(%rbp)
	movq	-864(%rbp), %rcx
	movq	-856(%rbp), %rdx
	movq	%rdx, -496(%rbp)
	movq	%rcx, -504(%rbp)
	movq	-872(%rbp), %rcx
	movq	%rcx, -464(%rbp)
	movq	-888(%rbp), %rcx
	movq	-880(%rbp), %rdx
	movq	%rdx, -472(%rbp)
	movq	%rcx, -480(%rbp)
	movq	-896(%rbp), %rcx
	movq	%rcx, -440(%rbp)
	movq	-912(%rbp), %rcx
	movq	-904(%rbp), %rdx
	movq	%rdx, -448(%rbp)
	movq	%rcx, -456(%rbp)
	movq	-920(%rbp), %rcx
	movq	%rcx, -416(%rbp)
	movq	-936(%rbp), %rcx
	movq	-928(%rbp), %rdx
	movq	%rdx, -424(%rbp)
	movq	%rcx, -432(%rbp)
	movq	-944(%rbp), %rcx
	movq	%rcx, -392(%rbp)
	movq	-960(%rbp), %rcx
	movq	-952(%rbp), %rdx
	movq	%rdx, -400(%rbp)
	movq	%rcx, -408(%rbp)
	movq	-968(%rbp), %rcx
	movq	%rcx, -368(%rbp)
	movq	-984(%rbp), %rcx
	movq	-976(%rbp), %rdx
	movq	%rdx, -376(%rbp)
	movq	%rcx, -384(%rbp)
	movq	-992(%rbp), %rcx
	movq	%rcx, -344(%rbp)
	movq	-1008(%rbp), %rcx
	movq	-1000(%rbp), %rdx
	movq	%rdx, -352(%rbp)
	movq	%rcx, -360(%rbp)
	movq	-1016(%rbp), %rcx
	movq	%rcx, -320(%rbp)
	movq	-1032(%rbp), %rcx
	movq	-1024(%rbp), %rdx
	movq	%rdx, -328(%rbp)
	movq	%rcx, -336(%rbp)
	movq	-1040(%rbp), %rcx
	movq	%rcx, -296(%rbp)
	movq	-1056(%rbp), %rcx
	movq	-1048(%rbp), %rdx
	movq	%rdx, -304(%rbp)
	movq	%rcx, -312(%rbp)
	movq	-1064(%rbp), %rcx
	movq	%rcx, -272(%rbp)
	movq	-1080(%rbp), %rcx
	movq	-1072(%rbp), %rdx
	movq	%rdx, -280(%rbp)
	movq	%rcx, -288(%rbp)
	movq	-1088(%rbp), %rcx
	movq	%rcx, -248(%rbp)
	movq	-1104(%rbp), %rcx
	movq	-1096(%rbp), %rdx
	movq	%rdx, -256(%rbp)
	movq	%rcx, -264(%rbp)
	movq	-1112(%rbp), %rcx
	movq	%rcx, -224(%rbp)
	movq	-1128(%rbp), %rcx
	movq	-1120(%rbp), %rdx
	movq	%rdx, -232(%rbp)
	movq	%rcx, -240(%rbp)
	movq	-1136(%rbp), %rcx
	movq	%rcx, -200(%rbp)
	movq	-1152(%rbp), %rcx
	movq	-1144(%rbp), %rdx
	movq	%rdx, -208(%rbp)
	movq	%rcx, -216(%rbp)
	movq	-1160(%rbp), %rcx
	movq	%rcx, -176(%rbp)
	movq	-1176(%rbp), %rcx
	movq	-1168(%rbp), %rdx
	movq	%rdx, -184(%rbp)
	movq	%rcx, -192(%rbp)
	movq	-1184(%rbp), %rcx
	movq	%rcx, -152(%rbp)
	movq	-1200(%rbp), %rcx
	movq	-1192(%rbp), %rdx
	movq	%rdx, -160(%rbp)
	movq	%rcx, -168(%rbp)
	movq	-1208(%rbp), %rcx
	movq	%rcx, -128(%rbp)
	movq	-1224(%rbp), %rcx
	movq	-1216(%rbp), %rdx
	movq	%rdx, -136(%rbp)
	movq	%rcx, -144(%rbp)
	movq	-1232(%rbp), %rcx
	movq	%rcx, -104(%rbp)
	movq	-1248(%rbp), %rcx
	movq	-1240(%rbp), %rdx
	movq	%rdx, -112(%rbp)
	movq	%rcx, -120(%rbp)
	movq	-1256(%rbp), %rcx
	movq	%rcx, -80(%rbp)
	movq	-1272(%rbp), %rcx
	movq	-1264(%rbp), %rdx
	movq	%rdx, -88(%rbp)
	movq	%rcx, -96(%rbp)
	movq	-1280(%rbp), %rcx
	movq	%rcx, -56(%rbp)
	movq	-1296(%rbp), %rcx
	movq	-1288(%rbp), %rdx
	movq	%rdx, -64(%rbp)
	movq	%rcx, -72(%rbp)
	movq	-1304(%rbp), %rcx
	movq	%rcx, -32(%rbp)
	movq	-1320(%rbp), %rcx
	movq	-1312(%rbp), %rdx
	movq	%rdx, -40(%rbp)
	movq	%rcx, -48(%rbp)
	movq	-1328(%rbp), %rcx
	movq	%rcx, -8(%rbp)
	movq	-1344(%rbp), %rcx
	movq	-1336(%rbp), %rdx
	movq	%rdx, -16(%rbp)
	movq	%rcx, -24(%rbp)
	.loc	19 113 16
	leaq	__ZN15crossbeam_epoch8deferred8Deferred3new4call17h8e504f3250704f70E(%rip), %rcx
	movq	%rcx, (%rdi)
	movq	-672(%rbp), %rdx
	movq	-664(%rbp), %rsi
	movq	%rdx, 8(%rdi)
	movq	%rsi, 16(%rdi)
	movq	-656(%rbp), %rdx
	movq	%rdx, 24(%rdi)
	movq	%rcx, 32(%rdi)
	movq	-648(%rbp), %rdx
	movq	-640(%rbp), %rsi
	movq	%rdx, 40(%rdi)
	movq	%rsi, 48(%rdi)
	movq	-632(%rbp), %rdx
	movq	%rdx, 56(%rdi)
	movq	%rcx, 64(%rdi)
	movq	-624(%rbp), %rdx
	movq	-616(%rbp), %rsi
	movq	%rdx, 72(%rdi)
	movq	%rsi, 80(%rdi)
	movq	-608(%rbp), %rdx
	movq	%rdx, 88(%rdi)
	movq	%rcx, 96(%rdi)
	movq	-600(%rbp), %rdx
	movq	-592(%rbp), %rsi
	movq	%rdx, 104(%rdi)
	movq	%rsi, 112(%rdi)
	movq	-584(%rbp), %rdx
	movq	%rdx, 120(%rdi)
	movq	%rcx, 128(%rdi)
	movq	-560(%rbp), %rdx
	movq	%rdx, 152(%rdi)
	movq	-576(%rbp), %rdx
	movq	-568(%rbp), %rsi
	movq	%rsi, 144(%rdi)
	movq	%rdx, 136(%rdi)
	movq	%rcx, 160(%rdi)
	movq	-536(%rbp), %rdx
	movq	%rdx, 184(%rdi)
	movq	-552(%rbp), %rdx
	movq	-544(%rbp), %rsi
	movq	%rsi, 176(%rdi)
	movq	%rdx, 168(%rdi)
	movq	%rcx, 192(%rdi)
	movq	-512(%rbp), %rdx
	movq	%rdx, 216(%rdi)
	movq	-528(%rbp), %rdx
	movq	-520(%rbp), %rsi
	movq	%rsi, 208(%rdi)
	movq	%rdx, 200(%rdi)
	movq	%rcx, 224(%rdi)
	movq	-488(%rbp), %rdx
	movq	%rdx, 248(%rdi)
	movq	-504(%rbp), %rdx
	movq	-496(%rbp), %rsi
	movq	%rsi, 240(%rdi)
	movq	%rdx, 232(%rdi)
	movq	%rcx, 256(%rdi)
	movq	-464(%rbp), %rdx
	movq	%rdx, 280(%rdi)
	movq	-480(%rbp), %rdx
	movq	-472(%rbp), %rsi
	movq	%rsi, 272(%rdi)
	movq	%rdx, 264(%rdi)
	movq	%rcx, 288(%rdi)
	movq	-440(%rbp), %rdx
	movq	%rdx, 312(%rdi)
	movq	-456(%rbp), %rdx
	movq	-448(%rbp), %rsi
	movq	%rsi, 304(%rdi)
	movq	%rdx, 296(%rdi)
	movq	%rcx, 320(%rdi)
	movq	-416(%rbp), %rdx
	movq	%rdx, 344(%rdi)
	movq	-432(%rbp), %rdx
	movq	-424(%rbp), %rsi
	movq	%rsi, 336(%rdi)
	movq	%rdx, 328(%rdi)
	movq	%rcx, 352(%rdi)
	movq	-392(%rbp), %rdx
	movq	%rdx, 376(%rdi)
	movq	-408(%rbp), %rdx
	movq	-400(%rbp), %rsi
	movq	%rsi, 368(%rdi)
	movq	%rdx, 360(%rdi)
	movq	%rcx, 384(%rdi)
	movq	-368(%rbp), %rdx
	movq	%rdx, 408(%rdi)
	movq	-384(%rbp), %rdx
	movq	-376(%rbp), %rsi
	movq	%rsi, 400(%rdi)
	movq	%rdx, 392(%rdi)
	movq	%rcx, 416(%rdi)
	movq	-344(%rbp), %rdx
	movq	%rdx, 440(%rdi)
	movq	-360(%rbp), %rdx
	movq	-352(%rbp), %rsi
	movq	%rsi, 432(%rdi)
	movq	%rdx, 424(%rdi)
	movq	%rcx, 448(%rdi)
	movq	-320(%rbp), %rdx
	movq	%rdx, 472(%rdi)
	movq	-336(%rbp), %rdx
	movq	-328(%rbp), %rsi
	movq	%rsi, 464(%rdi)
	movq	%rdx, 456(%rdi)
	movq	%rcx, 480(%rdi)
	movq	-296(%rbp), %rdx
	movq	%rdx, 504(%rdi)
	movq	-312(%rbp), %rdx
	movq	-304(%rbp), %rsi
	movq	%rsi, 496(%rdi)
	movq	%rdx, 488(%rdi)
	movq	%rcx, 512(%rdi)
	movq	-272(%rbp), %rdx
	movq	%rdx, 536(%rdi)
	movq	-288(%rbp), %rdx
	movq	-280(%rbp), %rsi
	movq	%rsi, 528(%rdi)
	movq	%rdx, 520(%rdi)
	movq	%rcx, 544(%rdi)
	movq	-248(%rbp), %rdx
	movq	%rdx, 568(%rdi)
	movq	-264(%rbp), %rdx
	movq	-256(%rbp), %rsi
	movq	%rsi, 560(%rdi)
	movq	%rdx, 552(%rdi)
	movq	%rcx, 576(%rdi)
	movq	-224(%rbp), %rdx
	movq	%rdx, 600(%rdi)
	movq	-240(%rbp), %rdx
	movq	-232(%rbp), %rsi
	movq	%rsi, 592(%rdi)
	movq	%rdx, 584(%rdi)
	movq	%rcx, 608(%rdi)
	movq	-200(%rbp), %rdx
	movq	%rdx, 632(%rdi)
	movq	-216(%rbp), %rdx
	movq	-208(%rbp), %rsi
	movq	%rsi, 624(%rdi)
	movq	%rdx, 616(%rdi)
	movq	%rcx, 640(%rdi)
	movq	-176(%rbp), %rdx
	movq	%rdx, 664(%rdi)
	movq	-192(%rbp), %rdx
	movq	-184(%rbp), %rsi
	movq	%rsi, 656(%rdi)
	movq	%rdx, 648(%rdi)
	movq	%rcx, 672(%rdi)
	movq	-152(%rbp), %rdx
	movq	%rdx, 696(%rdi)
	movq	-168(%rbp), %rdx
	movq	-160(%rbp), %rsi
	movq	%rsi, 688(%rdi)
	movq	%rdx, 680(%rdi)
	movq	%rcx, 704(%rdi)
	movq	-128(%rbp), %rdx
	movq	%rdx, 728(%rdi)
	movq	-144(%rbp), %rdx
	movq	-136(%rbp), %rsi
	movq	%rsi, 720(%rdi)
	movq	%rdx, 712(%rdi)
	movq	%rcx, 736(%rdi)
	movq	-104(%rbp), %rdx
	movq	%rdx, 760(%rdi)
	movq	-120(%rbp), %rdx
	movq	-112(%rbp), %rsi
	movq	%rsi, 752(%rdi)
	movq	%rdx, 744(%rdi)
	movq	%rcx, 768(%rdi)
	movq	-80(%rbp), %rdx
	movq	%rdx, 792(%rdi)
	movq	-96(%rbp), %rdx
	movq	-88(%rbp), %rsi
	movq	%rsi, 784(%rdi)
	movq	%rdx, 776(%rdi)
	movq	%rcx, 800(%rdi)
	movq	-56(%rbp), %rdx
	movq	%rdx, 824(%rdi)
	movq	-72(%rbp), %rdx
	movq	-64(%rbp), %rsi
	movq	%rsi, 816(%rdi)
	movq	%rdx, 808(%rdi)
	movq	%rcx, 832(%rdi)
	movq	-32(%rbp), %rdx
	movq	%rdx, 856(%rdi)
	movq	-48(%rbp), %rdx
	movq	-40(%rbp), %rsi
	movq	%rsi, 848(%rdi)
	movq	%rdx, 840(%rdi)
	movq	%rcx, 864(%rdi)
	movq	-8(%rbp), %rdx
	movq	%rdx, 888(%rdi)
	movq	-24(%rbp), %rdx
	movq	-16(%rbp), %rsi
	movq	%rsi, 880(%rdi)
	movq	%rdx, 872(%rdi)
	movq	%rcx, 896(%rdi)
	movq	-1328(%rbp), %rdx
	movq	%rdx, 920(%rdi)
	movq	-1344(%rbp), %rdx
	movq	-1336(%rbp), %rsi
	movq	%rsi, 912(%rdi)
	movq	%rdx, 904(%rdi)
	movq	%rcx, 928(%rdi)
	movq	-1304(%rbp), %rdx
	movq	%rdx, 952(%rdi)
	movq	-1320(%rbp), %rdx
	movq	-1312(%rbp), %rsi
	movq	%rsi, 944(%rdi)
	movq	%rdx, 936(%rdi)
	movq	%rcx, 960(%rdi)
	movq	-1280(%rbp), %rdx
	movq	%rdx, 984(%rdi)
	movq	-1296(%rbp), %rdx
	movq	-1288(%rbp), %rsi
	movq	%rsi, 976(%rdi)
	movq	%rdx, 968(%rdi)
	movq	%rcx, 992(%rdi)
	movq	-1256(%rbp), %rdx
	movq	%rdx, 1016(%rdi)
	movq	-1272(%rbp), %rdx
	movq	-1264(%rbp), %rsi
	movq	%rsi, 1008(%rdi)
	movq	%rdx, 1000(%rdi)
	movq	%rcx, 1024(%rdi)
	movq	-1232(%rbp), %rdx
	movq	%rdx, 1048(%rdi)
	movq	-1248(%rbp), %rdx
	movq	-1240(%rbp), %rsi
	movq	%rsi, 1040(%rdi)
	movq	%rdx, 1032(%rdi)
	movq	%rcx, 1056(%rdi)
	movq	-1208(%rbp), %rdx
	movq	%rdx, 1080(%rdi)
	movq	-1224(%rbp), %rdx
	movq	-1216(%rbp), %rsi
	movq	%rsi, 1072(%rdi)
	movq	%rdx, 1064(%rdi)
	movq	%rcx, 1088(%rdi)
	movq	-1184(%rbp), %rdx
	movq	%rdx, 1112(%rdi)
	movq	-1200(%rbp), %rdx
	movq	-1192(%rbp), %rsi
	movq	%rsi, 1104(%rdi)
	movq	%rdx, 1096(%rdi)
	movq	%rcx, 1120(%rdi)
	movq	-1160(%rbp), %rdx
	movq	%rdx, 1144(%rdi)
	movq	-1176(%rbp), %rdx
	movq	-1168(%rbp), %rsi
	movq	%rsi, 1136(%rdi)
	movq	%rdx, 1128(%rdi)
	movq	%rcx, 1152(%rdi)
	movq	-1136(%rbp), %rdx
	movq	%rdx, 1176(%rdi)
	movq	-1152(%rbp), %rdx
	movq	-1144(%rbp), %rsi
	movq	%rsi, 1168(%rdi)
	movq	%rdx, 1160(%rdi)
	movq	%rcx, 1184(%rdi)
	movq	-1112(%rbp), %rdx
	movq	%rdx, 1208(%rdi)
	movq	-1128(%rbp), %rdx
	movq	-1120(%rbp), %rsi
	movq	%rsi, 1200(%rdi)
	movq	%rdx, 1192(%rdi)
	movq	%rcx, 1216(%rdi)
	movq	-1088(%rbp), %rdx
	movq	%rdx, 1240(%rdi)
	movq	-1104(%rbp), %rdx
	movq	-1096(%rbp), %rsi
	movq	%rsi, 1232(%rdi)
	movq	%rdx, 1224(%rdi)
	movq	%rcx, 1248(%rdi)
	movq	-1064(%rbp), %rdx
	movq	%rdx, 1272(%rdi)
	movq	-1080(%rbp), %rdx
	movq	-1072(%rbp), %rsi
	movq	%rsi, 1264(%rdi)
	movq	%rdx, 1256(%rdi)
	movq	%rcx, 1280(%rdi)
	movq	-1040(%rbp), %rdx
	movq	%rdx, 1304(%rdi)
	movq	-1056(%rbp), %rdx
	movq	-1048(%rbp), %rsi
	movq	%rsi, 1296(%rdi)
	movq	%rdx, 1288(%rdi)
	movq	%rcx, 1312(%rdi)
	movq	-1016(%rbp), %rdx
	movq	%rdx, 1336(%rdi)
	movq	-1032(%rbp), %rdx
	movq	-1024(%rbp), %rsi
	movq	%rsi, 1328(%rdi)
	movq	%rdx, 1320(%rdi)
	movq	%rcx, 1344(%rdi)
	movq	-992(%rbp), %rdx
	movq	%rdx, 1368(%rdi)
	movq	-1008(%rbp), %rdx
	movq	-1000(%rbp), %rsi
	movq	%rsi, 1360(%rdi)
	movq	%rdx, 1352(%rdi)
	movq	%rcx, 1376(%rdi)
	movq	-968(%rbp), %rdx
	movq	%rdx, 1400(%rdi)
	movq	-984(%rbp), %rdx
	movq	-976(%rbp), %rsi
	movq	%rsi, 1392(%rdi)
	movq	%rdx, 1384(%rdi)
	movq	%rcx, 1408(%rdi)
	movq	-944(%rbp), %rdx
	movq	%rdx, 1432(%rdi)
	movq	-960(%rbp), %rdx
	movq	-952(%rbp), %rsi
	movq	%rsi, 1424(%rdi)
	movq	%rdx, 1416(%rdi)
	movq	%rcx, 1440(%rdi)
	movq	-920(%rbp), %rdx
	movq	%rdx, 1464(%rdi)
	movq	-936(%rbp), %rdx
	movq	-928(%rbp), %rsi
	movq	%rsi, 1456(%rdi)
	movq	%rdx, 1448(%rdi)
	movq	%rcx, 1472(%rdi)
	movq	-896(%rbp), %rdx
	movq	%rdx, 1496(%rdi)
	movq	-912(%rbp), %rdx
	movq	-904(%rbp), %rsi
	movq	%rsi, 1488(%rdi)
	movq	%rdx, 1480(%rdi)
	movq	%rcx, 1504(%rdi)
	movq	-872(%rbp), %rdx
	movq	%rdx, 1528(%rdi)
	movq	-888(%rbp), %rdx
	movq	-880(%rbp), %rsi
	movq	%rsi, 1520(%rdi)
	movq	%rdx, 1512(%rdi)
	movq	%rcx, 1536(%rdi)
	movq	-848(%rbp), %rdx
	movq	%rdx, 1560(%rdi)
	movq	-864(%rbp), %rdx
	movq	-856(%rbp), %rsi
	movq	%rsi, 1552(%rdi)
	movq	%rdx, 1544(%rdi)
	movq	%rcx, 1568(%rdi)
	movq	-824(%rbp), %rdx
	movq	%rdx, 1592(%rdi)
	movq	-840(%rbp), %rdx
	movq	-832(%rbp), %rsi
	movq	%rsi, 1584(%rdi)
	movq	%rdx, 1576(%rdi)
	movq	%rcx, 1600(%rdi)
	movq	-800(%rbp), %rdx
	movq	%rdx, 1624(%rdi)
	movq	-816(%rbp), %rdx
	movq	-808(%rbp), %rsi
	movq	%rsi, 1616(%rdi)
	movq	%rdx, 1608(%rdi)
	movq	%rcx, 1632(%rdi)
	movq	-776(%rbp), %rdx
	movq	%rdx, 1656(%rdi)
	movq	-792(%rbp), %rdx
	movq	-784(%rbp), %rsi
	movq	%rsi, 1648(%rdi)
	movq	%rdx, 1640(%rdi)
	movq	%rcx, 1664(%rdi)
	movq	-752(%rbp), %rdx
	movq	%rdx, 1688(%rdi)
	movq	-768(%rbp), %rdx
	movq	-760(%rbp), %rsi
	movq	%rsi, 1680(%rdi)
	movq	%rdx, 1672(%rdi)
	movq	%rcx, 1696(%rdi)
	movq	-728(%rbp), %rdx
	movq	%rdx, 1720(%rdi)
	movq	-744(%rbp), %rdx
	movq	-736(%rbp), %rsi
	movq	%rsi, 1712(%rdi)
	movq	%rdx, 1704(%rdi)
	movq	%rcx, 1728(%rdi)
	movq	-704(%rbp), %rdx
	movq	%rdx, 1752(%rdi)
	movq	-720(%rbp), %rdx
	movq	-712(%rbp), %rsi
	movq	%rsi, 1744(%rdi)
	movq	%rdx, 1736(%rdi)
	movq	%rcx, 1760(%rdi)
	movq	-680(%rbp), %rdx
	movq	%rdx, 1784(%rdi)
	movq	-696(%rbp), %rdx
	movq	-688(%rbp), %rsi
	movq	%rsi, 1776(%rdi)
	movq	%rdx, 1768(%rdi)
	movq	%rcx, 1792(%rdi)
	movq	-1520(%rbp), %rdx
	movq	%rdx, 1816(%rdi)
	movq	-1536(%rbp), %rdx
	movq	-1528(%rbp), %rsi
	movq	%rsi, 1808(%rdi)
	movq	%rdx, 1800(%rdi)
	movq	%rcx, 1824(%rdi)
	movq	-1496(%rbp), %rdx
	movq	%rdx, 1848(%rdi)
	movq	-1512(%rbp), %rdx
	movq	-1504(%rbp), %rsi
	movq	%rsi, 1840(%rdi)
	movq	%rdx, 1832(%rdi)
	movq	%rcx, 1856(%rdi)
	movq	-1472(%rbp), %rdx
	movq	%rdx, 1880(%rdi)
	movq	-1488(%rbp), %rdx
	movq	-1480(%rbp), %rsi
	movq	%rsi, 1872(%rdi)
	movq	%rdx, 1864(%rdi)
	movq	%rcx, 1888(%rdi)
	movq	-1448(%rbp), %rdx
	movq	%rdx, 1912(%rdi)
	movq	-1464(%rbp), %rdx
	movq	-1456(%rbp), %rsi
	movq	%rsi, 1904(%rdi)
	movq	%rdx, 1896(%rdi)
	movq	%rcx, 1920(%rdi)
	movq	-1424(%rbp), %rdx
	movq	%rdx, 1944(%rdi)
	movq	-1440(%rbp), %rdx
	movq	-1432(%rbp), %rsi
	movq	%rsi, 1936(%rdi)
	movq	%rdx, 1928(%rdi)
	movq	%rcx, 1952(%rdi)
	movq	-1400(%rbp), %rdx
	movq	%rdx, 1976(%rdi)
	movq	-1416(%rbp), %rdx
	movq	-1408(%rbp), %rsi
	movq	%rsi, 1968(%rdi)
	movq	%rdx, 1960(%rdi)
	movq	%rcx, 1984(%rdi)
	movq	-1376(%rbp), %rdx
	movq	%rdx, 2008(%rdi)
	movq	-1392(%rbp), %rdx
	movq	-1384(%rbp), %rsi
	movq	%rsi, 2000(%rdi)
	movq	%rdx, 1992(%rdi)
	movq	%rcx, 2016(%rdi)
	movq	-1352(%rbp), %rcx
	movq	%rcx, 2040(%rdi)
	movq	-1368(%rbp), %rcx
	movq	-1360(%rbp), %rdx
	movq	%rdx, 2032(%rdi)
	movq	%rcx, 2024(%rdi)
	movq	$0, 2048(%rdi)
	.loc	19 192 6
	addq	$1536, %rsp
	popq	%rbp
	retq
Ltmp510:
Lfunc_end35:
	.cfi_endproc

	.globl	__ZN72_$LT$crossbeam_epoch..internal..Bag$u20$as$u20$core..ops..drop..Drop$GT$4drop17h31bcfbfc1b75ea4cE
	.p2align	4, 0x90
__ZN72_$LT$crossbeam_epoch..internal..Bag$u20$as$u20$core..ops..drop..Drop$GT$4drop17h31bcfbfc1b75ea4cE:
Lfunc_begin36:
	.loc	19 196 0
	.cfi_startproc
	pushq	%rbp
	.cfi_def_cfa_offset 16
	.cfi_offset %rbp, -16
	movq	%rsp, %rbp
	.cfi_def_cfa_register %rbp
Ltmp511:
	pushq	%r15
	pushq	%r14
	pushq	%r12
	pushq	%rbx
	andq	$-32, %rsp
	subq	$128, %rsp
	.cfi_offset %rbx, -48
	.cfi_offset %r12, -40
	.cfi_offset %r14, -32
	.cfi_offset %r15, -24
	.loc	19 198 47 prologue_end
	movq	2048(%rdi), %r14
Ltmp512:
	.loc	32 2928 19
	cmpq	$65, %r14
	.loc	32 2928 16 is_stmt 0
	jae	LBB36_5
Ltmp513:
	.loc	34 152 9 is_stmt 1
	shlq	$5, %r14
Ltmp514:
	.loc	32 3303 21
	je	LBB36_4
Ltmp515:
	.loc	32 0 21 is_stmt 0
	movq	%rdi, %r12
Ltmp516:
	leaq	72(%rsp), %r15
	xorl	%ebx, %ebx
	leaq	__ZN15crossbeam_epoch8deferred8Deferred3new4call17h8e504f3250704f70E(%rip), %rax
	movq	%rax, %xmm0
	movdqa	%xmm0, 16(%rsp)
Ltmp517:
	.p2align	4, 0x90
LBB36_3:
	.loc	19 200 57 is_stmt 1
	movlps	16(%rsp), %xmm0
Ltmp518:
	.loc	7 2058 5
	movdqu	(%r12,%rbx), %xmm2
	movups	16(%r12,%rbx), %xmm3
Ltmp519:
	.loc	7 0 5 is_stmt 0
	movaps	%xmm3, 48(%rsp)
Ltmp520:
	.loc	7 2058 5
	movups	%xmm1, 16(%r12,%rbx)
	movups	%xmm0, (%r12,%rbx)
Ltmp521:
	.loc	19 201 13 is_stmt 1
	movaps	%xmm3, 80(%rsp)
	movdqa	%xmm2, 32(%rsp)
	movdqa	%xmm2, 64(%rsp)
Ltmp522:
	.loc	36 76 20
	movq	%xmm2, %rax
Ltmp523:
	.loc	36 77 18
	movq	%r15, %rdi
	callq	*%rax
Ltmp524:
	.loc	32 3179 9
	addq	$32, %rbx
	movaps	32(%rsp), %xmm0
	movaps	48(%rsp), %xmm1
	cmpq	%rbx, %r14
	.loc	32 3303 21
	jne	LBB36_3
Ltmp525:
LBB36_4:
	.loc	19 203 6
	leaq	-32(%rbp), %rsp
	popq	%rbx
	popq	%r12
	popq	%r14
	popq	%r15
	popq	%rbp
	retq
LBB36_5:
Ltmp526:
	.loc	32 2929 13
	leaq	l___unnamed_28(%rip), %rdx
	movl	$64, %esi
	movq	%r14, %rdi
Ltmp527:
	callq	__ZN4core5slice20slice_index_len_fail17h550a313151a85135E
Ltmp528:
Lfunc_end36:
	.cfi_endproc

	.globl	__ZN67_$LT$crossbeam_epoch..internal..Bag$u20$as$u20$core..fmt..Debug$GT$3fmt17h383ce449c9dcea08E
	.p2align	4, 0x90
__ZN67_$LT$crossbeam_epoch..internal..Bag$u20$as$u20$core..fmt..Debug$GT$3fmt17h383ce449c9dcea08E:
Lfunc_begin37:
	.loc	19 208 0
	.cfi_startproc
	pushq	%rbp
	.cfi_def_cfa_offset 16
	.cfi_offset %rbp, -16
	movq	%rsp, %rbp
	.cfi_def_cfa_register %rbp
	pushq	%rbx
	subq	$40, %rsp
	.cfi_offset %rbx, -24
	movq	%rdi, %rbx
Ltmp529:
	.loc	19 209 9 prologue_end
	leaq	l___unnamed_21(%rip), %rdx
	leaq	-40(%rbp), %rdi
	movl	$3, %ecx
	callq	__ZN4core3fmt9Formatter12debug_struct17h985c0158d1fc7193E
Ltmp530:
	.loc	19 210 52
	movq	2048(%rbx), %rdi
Ltmp531:
	.loc	32 2918 19
	cmpq	$65, %rdi
	.loc	32 2918 16 is_stmt 0
	jae	LBB37_2
Ltmp532:
	.loc	19 210 34 is_stmt 1
	movq	%rbx, -24(%rbp)
	movq	%rdi, -16(%rbp)
	.loc	19 209 9
	leaq	l___unnamed_22(%rip), %rsi
	leaq	l___unnamed_7(%rip), %r8
	leaq	-40(%rbp), %rdi
Ltmp533:
	.loc	19 0 9 is_stmt 0
	leaq	-24(%rbp), %rcx
	.loc	19 209 9
	movl	$9, %edx
	callq	__ZN4core3fmt8builders11DebugStruct5field17h9c15dc155278eed2E
	movq	%rax, %rdi
	callq	__ZN4core3fmt8builders11DebugStruct6finish17h26808393f3fed630E
	.loc	19 212 6 is_stmt 1
	addq	$40, %rsp
	popq	%rbx
Ltmp534:
	popq	%rbp
	retq
Ltmp535:
LBB37_2:
	.loc	32 2919 13
	leaq	l___unnamed_23(%rip), %rdx
	movl	$64, %esi
	callq	__ZN4core5slice20slice_index_len_fail17h550a313151a85135E
Ltmp536:
Lfunc_end37:
	.cfi_endproc

	.globl	__ZN15crossbeam_epoch8internal6Global7collect17hcf95bb3c3505e5afE
	.p2align	4, 0x90
__ZN15crossbeam_epoch8internal6Global7collect17hcf95bb3c3505e5afE:
Lfunc_begin38:
	.loc	19 280 0
	.cfi_startproc
	pushq	%rbp
	.cfi_def_cfa_offset 16
	.cfi_offset %rbp, -16
	movq	%rsp, %rbp
	.cfi_def_cfa_register %rbp
	pushq	%r15
	pushq	%r14
	pushq	%r13
	pushq	%r12
	pushq	%rbx
	andq	$-32, %rsp
	movl	$4288, %eax
	callq	___rust_probestack
	subq	%rax, %rsp
	.cfi_offset %rbx, -56
	.cfi_offset %r12, -48
	.cfi_offset %r13, -40
	.cfi_offset %r14, -32
	.cfi_offset %r15, -24
	movq	%rdi, %r14
Ltmp537:
	movq	%rsi, 8(%rsp)
Ltmp538:
	.loc	19 281 28 prologue_end
	callq	__ZN15crossbeam_epoch8internal6Global11try_advance17h296199b2cd9e4d59E
	movq	%rax, %r15
Ltmp539:
	.loc	36 0 0 is_stmt 0
	leaq	40(%rsp), %r13
	xorl	%eax, %eax
	movq	%rax, (%rsp)
	leaq	__ZN15crossbeam_epoch8deferred8Deferred3new4call17h8e504f3250704f70E(%rip), %rax
	movq	%rax, %xmm0
	movdqa	%xmm0, 80(%rsp)
	movq	%r15, 16(%rsp)
Ltmp540:
	jmp	LBB38_1
Ltmp541:
LBB38_17:
	.file	38 "/rustc/a74d1862d4d87a56244958416fd05976c58ca1a8/src/libcore/cmp.rs"
	.loc	38 1137 52 is_stmt 1
	cmpq	$8, (%rsp)
Ltmp542:
	.file	39 "/rustc/a74d1862d4d87a56244958416fd05976c58ca1a8/src/libcore/iter/range.rs"
	.loc	39 211 9
	je	LBB38_18
Ltmp543:
	.p2align	4, 0x90
LBB38_1:
	.loc	15 2275 20
	movq	(%r14), %rcx
Ltmp544:
	.loc	18 113 15
	movq	%rcx, %rdi
	andq	$-8, %rdi
Ltmp545:
	.loc	15 2275 20
	movq	2064(%rdi), %rdx
Ltmp546:
	.loc	12 146 13
	movq	%rdx, %r12
	andq	$-8, %r12
	je	LBB38_11
Ltmp547:
	.loc	12 146 24 is_stmt 0
	movq	(%r12), %rax
Ltmp548:
	.loc	29 37 32 is_stmt 1
	andq	$-2, %rax
Ltmp549:
	.file	40 "/rustc/a74d1862d4d87a56244958416fd05976c58ca1a8/src/libcore/num/mod.rs"
	.loc	40 3343 17
	movq	%r15, %rsi
	subq	%rax, %rsi
Ltmp550:
	.loc	19 232 9
	cmpq	$4, %rsi
Ltmp551:
	.loc	12 146 24
	jl	LBB38_11
Ltmp552:
	.loc	15 2332 31
	movq	%rcx, %rax
	lock		cmpxchgq	%rdx, (%r14)
Ltmp553:
	.loc	25 611 13
	jne	LBB38_1
Ltmp554:
	.loc	15 2276 20
	movq	128(%r14), %rax
Ltmp555:
	.loc	18 1147 9
	cmpq	%rax, %rcx
Ltmp556:
	.loc	12 152 25
	jne	LBB38_6
Ltmp557:
	.loc	15 2332 31
	movq	%rcx, %rax
Ltmp558:
	lock		cmpxchgq	%rdx, 128(%r14)
Ltmp559:
LBB38_6:
	.loc	15 0 31 is_stmt 0
	movq	8(%rsp), %rax
Ltmp560:
	.loc	1 194 30 is_stmt 1
	movq	(%rax), %rax
Ltmp561:
	.loc	1 194 16 is_stmt 0
	testq	%rax, %rax
	je	LBB38_7
Ltmp562:
	.loc	36 49 17 is_stmt 1
	leaq	__ZN15crossbeam_epoch8deferred8Deferred3new4call17h21897317832b389eE(%rip), %rdx
Ltmp563:
	movq	%rdx, 32(%rsp)
	movq	%rcx, 40(%rsp)
Ltmp564:
	.loc	1 195 13
	movq	%rax, %rdi
Ltmp565:
	leaq	32(%rsp), %rsi
	callq	__ZN15crossbeam_epoch8internal5Local5defer17h4b06bd919cd43fa4E
Ltmp566:
	.loc	1 0 13 is_stmt 0
	jmp	LBB38_10
Ltmp567:
LBB38_11:
	xorl	%r15d, %r15d
	jmp	LBB38_12
Ltmp568:
LBB38_7:
	.loc	18 1077 13 is_stmt 1
	cmpq	$7, %rcx
	.loc	18 1076 9
	jbe	LBB38_19
Ltmp569:
	.loc	10 102 5
	movl	$2072, %esi
	movl	$8, %edx
Ltmp570:
	callq	___rust_dealloc
Ltmp571:
LBB38_10:
	.loc	25 519 22
	movq	(%r12), %rax
Ltmp572:
	.loc	25 0 22 is_stmt 0
	movq	%rax, 24(%rsp)
	.loc	25 519 22
	movq	8(%r12), %r15
Ltmp573:
	.loc	25 611 22 is_stmt 1
	addq	$16, %r12
Ltmp574:
	movl	$2048, %edx
	leaq	136(%rsp), %rdi
	movq	%r12, %rsi
	callq	_memcpy
Ltmp575:
LBB38_12:
	.loc	25 0 22 is_stmt 0
	movq	24(%rsp), %rax
	.loc	12 185 23 is_stmt 1
	movq	%rax, 2200(%rsp)
	movq	%r15, 2208(%rsp)
	movl	$2048, %edx
	leaq	2216(%rsp), %rdi
	leaq	136(%rsp), %rbx
	movq	%rbx, %rsi
	callq	_memcpy
Ltmp576:
	.loc	19 294 17
	testq	%r15, %r15
	je	LBB38_18
Ltmp577:
	.loc	19 295 42
	movl	$2064, %edx
	movq	%rbx, %rdi
	leaq	2200(%rsp), %rsi
	callq	_memcpy
Ltmp578:
	.loc	19 198 47
	movq	2192(%rsp), %r12
Ltmp579:
	.loc	32 2928 19
	cmpq	$65, %r12
	.loc	32 2928 16 is_stmt 0
	jae	LBB38_20
Ltmp580:
	.loc	19 0 0
	incq	(%rsp)
Ltmp581:
	.loc	34 152 9 is_stmt 1
	shlq	$5, %r12
Ltmp582:
	.loc	34 0 9 is_stmt 0
	movq	16(%rsp), %r15
	movapd	80(%rsp), %xmm2
Ltmp583:
	.loc	32 3303 21 is_stmt 1
	je	LBB38_17
Ltmp584:
	.loc	32 0 21 is_stmt 0
	xorl	%ebx, %ebx
Ltmp585:
	.p2align	4, 0x90
LBB38_16:
	.loc	19 200 57 is_stmt 1
	movsd	%xmm2, %xmm0
Ltmp586:
	.loc	7 2058 5
	movdqu	144(%rsp,%rbx), %xmm2
	movups	160(%rsp,%rbx), %xmm3
Ltmp587:
	.loc	7 0 5 is_stmt 0
	movaps	%xmm3, 112(%rsp)
Ltmp588:
	.loc	7 2058 5
	movups	%xmm1, 160(%rsp,%rbx)
	movupd	%xmm0, 144(%rsp,%rbx)
Ltmp589:
	.loc	19 201 13 is_stmt 1
	movaps	%xmm3, 48(%rsp)
	movdqa	%xmm2, 96(%rsp)
	movdqa	%xmm2, 32(%rsp)
Ltmp590:
	.loc	36 76 20
	movq	%xmm2, %rax
Ltmp591:
	.loc	36 77 18
	movq	%r13, %rdi
	callq	*%rax
Ltmp592:
	.loc	36 0 18 is_stmt 0
	movapd	80(%rsp), %xmm2
Ltmp593:
	.loc	32 3179 9 is_stmt 1
	addq	$32, %rbx
	movdqa	96(%rsp), %xmm0
	movaps	112(%rsp), %xmm1
	cmpq	%rbx, %r12
	.loc	32 3303 21
	jne	LBB38_16
	jmp	LBB38_17
Ltmp594:
LBB38_18:
	.loc	19 298 6
	leaq	-40(%rbp), %rsp
Ltmp595:
	popq	%rbx
	popq	%r12
	popq	%r13
	popq	%r14
Ltmp596:
	popq	%r15
	popq	%rbp
	retq
LBB38_20:
Ltmp597:
	.loc	32 2929 13
	leaq	l___unnamed_28(%rip), %rdx
	movl	$64, %esi
	movq	%r12, %rdi
	callq	__ZN4core5slice20slice_index_len_fail17h550a313151a85135E
Ltmp598:
LBB38_19:
	.loc	18 1076 9
	leaq	l___unnamed_29(%rip), %rdi
Ltmp599:
	leaq	l___unnamed_30(%rip), %rdx
Ltmp600:
	movl	$39, %esi
	callq	__ZN3std9panicking11begin_panic17hc9dee1104af34725E
Ltmp601:
Lfunc_end38:
	.cfi_endproc

	.p2align	4, 0x90
__ZN15crossbeam_epoch8internal6Global11try_advance17h296199b2cd9e4d59E:
Lfunc_begin39:
	.loc	19 309 0
	.cfi_startproc
	.cfi_personality 155, _rust_eh_personality
	.cfi_lsda 16, Lexception2
	pushq	%rbp
	.cfi_def_cfa_offset 16
	.cfi_offset %rbp, -16
	movq	%rsp, %rbp
	.cfi_def_cfa_register %rbp
	pushq	%r15
	pushq	%r14
	pushq	%r13
	pushq	%r12
	pushq	%rbx
	andq	$-32, %rsp
	subq	$192, %rsp
	.cfi_offset %rbx, -56
	.cfi_offset %r12, -48
	.cfi_offset %r13, -40
	.cfi_offset %r14, -32
	.cfi_offset %r15, -24
	movq	%rsi, %rbx
Ltmp608:
	.loc	15 2276 20 prologue_end
	movq	256(%rdi), %rax
Ltmp609:
	.loc	15 0 20 is_stmt 0
	movq	%rax, 24(%rsp)
Ltmp610:
	.loc	15 2566 23 is_stmt 1
	mfence
Ltmp611:
	.loc	19 316 22
	leaq	384(%rdi), %rcx
Ltmp612:
	.loc	19 0 22 is_stmt 0
	movq	%rdi, 48(%rsp)
Ltmp613:
	.loc	15 2275 20 is_stmt 1
	movq	384(%rdi), %r13
	leaq	__ZN15crossbeam_epoch8deferred8Deferred3new4call17h8e504f3250704f70E(%rip), %rax
	movq	%rax, %xmm0
	movdqa	%xmm0, 112(%rsp)
	leaq	__ZN15crossbeam_epoch8deferred8Deferred3new4call17h8b760865bd39c0e3E(%rip), %r14
	leaq	64(%rsp), %r12
	movq	%rcx, 40(%rsp)
Ltmp614:
	.loc	19 316 22
	movq	%rcx, %rdx
	movq	%rsi, 56(%rsp)
Ltmp615:
LBB39_1:
	.loc	26 239 19
	movq	%r13, %rax
	andq	$-8, %rax
	je	LBB39_24
Ltmp616:
	.loc	19 0 0 is_stmt 0
	movq	%r13, %r15
Ltmp617:
	movq	%rdx, 32(%rsp)
Ltmp618:
	.p2align	4, 0x90
LBB39_3:
	.loc	15 2275 20 is_stmt 1
	movq	(%rax), %r13
Ltmp619:
	.loc	18 114 15
	movl	%r13d, %ecx
	andl	$7, %ecx
Ltmp620:
	.loc	26 242 16
	cmpq	$1, %rcx
	.loc	26 242 13 is_stmt 0
	jne	LBB39_25
Ltmp621:
	.loc	26 248 31 is_stmt 1
	testb	$7, %r15b
	.loc	26 248 17 is_stmt 0
	jne	LBB39_7
Ltmp622:
	.loc	26 0 0
	andq	$-8, %r13
Ltmp623:
	.loc	15 2331 31 is_stmt 1
	movq	%r15, %rax
Ltmp624:
	lock		cmpxchgq	%r13, (%rdx)
Ltmp625:
	.loc	25 611 13
	jne	LBB39_6
Ltmp626:
	.loc	18 113 15
	andq	$-8, %r15
Ltmp627:
	.loc	1 194 30
	movq	(%rbx), %rdi
Ltmp628:
	.loc	1 194 16 is_stmt 0
	testq	%rdi, %rdi
	je	LBB39_9
Ltmp629:
	.loc	36 49 17 is_stmt 1
	movq	%r14, 64(%rsp)
	movq	%r15, 72(%rsp)
Ltmp630:
	.loc	1 195 13
	movq	%r12, %rsi
	callq	__ZN15crossbeam_epoch8internal5Local5defer17h4b06bd919cd43fa4E
Ltmp631:
	.loc	1 0 13 is_stmt 0
	movq	32(%rsp), %rdx
Ltmp632:
	.loc	26 274 20 is_stmt 1
	testb	$7, %r13b
	je	LBB39_23
	jmp	LBB39_29
Ltmp633:
	.p2align	4, 0x90
LBB39_6:
	.loc	26 0 0 is_stmt 0
	movq	%rax, %r13
Ltmp634:
	.loc	26 274 20
	testb	$7, %r13b
	.loc	26 274 17
	jne	LBB39_29
Ltmp635:
LBB39_23:
	.loc	26 239 19 is_stmt 1
	movq	%r13, %rax
Ltmp636:
	.loc	19 0 0 is_stmt 0
	movq	%r13, %r15
Ltmp637:
	.loc	26 239 19
	andq	$-8, %rax
	jne	LBB39_3
	jmp	LBB39_24
Ltmp638:
LBB39_9:
	.loc	19 198 47 is_stmt 1
	movq	2072(%r15), %r14
Ltmp639:
	.loc	32 2928 19
	cmpq	$65, %r14
	.loc	32 2928 16 is_stmt 0
	jae	LBB39_10
Ltmp640:
	.loc	34 152 9 is_stmt 1
	shlq	$5, %r14
Ltmp641:
	.loc	32 3303 21
	je	LBB39_16
Ltmp642:
	.loc	32 0 21 is_stmt 0
	leaq	24(%r15), %r12
Ltmp643:
	xorl	%ebx, %ebx
Ltmp644:
	.p2align	4, 0x90
LBB39_14:
	.loc	19 200 57 is_stmt 1
	movlps	112(%rsp), %xmm1
Ltmp645:
	.loc	7 2058 5
	movdqu	(%r12,%rbx), %xmm2
	movups	16(%r12,%rbx), %xmm3
Ltmp646:
	.loc	7 2058 5 is_stmt 0
	movups	%xmm0, 16(%r12,%rbx)
	movups	%xmm1, (%r12,%rbx)
Ltmp647:
	.loc	7 0 5
	movaps	%xmm3, 128(%rsp)
Ltmp648:
	.loc	19 201 13 is_stmt 1
	movaps	%xmm3, 80(%rsp)
	movdqa	%xmm2, 64(%rsp)
	movdqa	%xmm2, 144(%rsp)
Ltmp649:
	.loc	36 76 20
	movq	%xmm2, %rax
Ltmp650:
Ltmp602:
	.loc	36 77 18
	leaq	72(%rsp), %rdi
	callq	*%rax
Ltmp651:
Ltmp603:
	.loc	32 3179 9
	addq	$32, %rbx
	cmpq	%rbx, %r14
	movaps	144(%rsp), %xmm1
	movdqa	128(%rsp), %xmm0
	.loc	32 3303 21
	jne	LBB39_14
Ltmp652:
LBB39_16:
	.loc	10 102 5
	movl	$2104, %esi
	movl	$8, %edx
	movq	%r15, %rdi
	callq	___rust_dealloc
	movq	56(%rsp), %rbx
	leaq	__ZN15crossbeam_epoch8deferred8Deferred3new4call17h8b760865bd39c0e3E(%rip), %r14
	leaq	64(%rsp), %r12
	movq	32(%rsp), %rdx
Ltmp653:
	.loc	26 274 20
	testb	$7, %r13b
	je	LBB39_23
	jmp	LBB39_29
Ltmp654:
	.p2align	4, 0x90
LBB39_25:
	.loc	15 2276 20
	movq	8(%rax), %rcx
Ltmp655:
	.loc	19 316 22
	movq	%rax, %rdx
Ltmp656:
	.loc	29 43 9
	testb	$1, %cl
Ltmp657:
	.loc	19 329 24
	je	LBB39_1
Ltmp658:
	.loc	19 0 0 is_stmt 0
	andq	$-2, %rcx
Ltmp659:
	.loc	19 316 22 is_stmt 1
	movq	%rax, %rdx
Ltmp660:
	.loc	19 329 24
	cmpq	24(%rsp), %rcx
	je	LBB39_1
	jmp	LBB39_27
Ltmp661:
LBB39_24:
	.loc	15 2563 24
	##MEMBARRIER
Ltmp662:
	.loc	15 0 24 is_stmt 0
	movq	24(%rsp), %rax
Ltmp663:
	.loc	40 3320 17 is_stmt 1
	addq	$2, %rax
Ltmp664:
	.loc	40 0 17 is_stmt 0
	movq	48(%rsp), %rcx
Ltmp665:
	.loc	15 2264 20 is_stmt 1
	movq	%rax, 256(%rcx)
	jmp	LBB39_28
Ltmp666:
LBB39_29:
	.loc	15 0 20 is_stmt 0
	movq	40(%rsp), %rax
Ltmp667:
	.loc	15 2275 20 is_stmt 1
	movq	(%rax), %rax
Ltmp668:
LBB39_27:
	.loc	15 0 20 is_stmt 0
	movq	24(%rsp), %rax
Ltmp669:
LBB39_28:
	.loc	19 347 6 is_stmt 1
	leaq	-40(%rbp), %rsp
Ltmp670:
	popq	%rbx
	popq	%r12
	popq	%r13
	popq	%r14
	popq	%r15
	popq	%rbp
	retq
LBB39_7:
Ltmp671:
	.loc	26 248 17
	leaq	l___unnamed_38(%rip), %rdi
	leaq	l___unnamed_39(%rip), %rdx
	movl	$38, %esi
	callq	__ZN3std9panicking11begin_panic17hc9dee1104af34725E
Ltmp672:
LBB39_10:
Ltmp605:
	.loc	32 2929 13
	leaq	l___unnamed_28(%rip), %rdx
	movl	$64, %esi
	movq	%r14, %rdi
	callq	__ZN4core5slice20slice_index_len_fail17h550a313151a85135E
Ltmp606:
Ltmp673:
	ud2
Ltmp674:
LBB39_18:
Ltmp607:
	.loc	32 0 13 is_stmt 0
	jmp	LBB39_19
Ltmp675:
LBB39_17:
Ltmp604:
LBB39_19:
	movq	%rax, %rbx
	.loc	14 178 1 is_stmt 1
	movq	%r15, %rdi
	callq	__ZN5alloc5alloc8box_free17hef181785a96c4560E
	movq	%rbx, %rdi
	callq	__Unwind_Resume
	ud2
Ltmp676:
Lfunc_end39:
	.cfi_endproc
	.section	__TEXT,__gcc_except_tab
	.p2align	2
GCC_except_table39:
Lexception2:
	.byte	255
	.byte	255
	.byte	1
	.uleb128 Lcst_end2-Lcst_begin2
Lcst_begin2:
	.uleb128 Lfunc_begin39-Lfunc_begin39
	.uleb128 Ltmp602-Lfunc_begin39
	.byte	0
	.byte	0
	.uleb128 Ltmp602-Lfunc_begin39
	.uleb128 Ltmp603-Ltmp602
	.uleb128 Ltmp604-Lfunc_begin39
	.byte	0
	.uleb128 Ltmp603-Lfunc_begin39
	.uleb128 Ltmp605-Ltmp603
	.byte	0
	.byte	0
	.uleb128 Ltmp605-Lfunc_begin39
	.uleb128 Ltmp606-Ltmp605
	.uleb128 Ltmp607-Lfunc_begin39
	.byte	0
	.uleb128 Ltmp606-Lfunc_begin39
	.uleb128 Lfunc_end39-Ltmp606
	.byte	0
	.byte	0
Lcst_end2:
	.p2align	2

	.section	__TEXT,__text,regular,pure_instructions
	.globl	__ZN15crossbeam_epoch8internal5Local5defer17h4b06bd919cd43fa4E
	.p2align	4, 0x90
__ZN15crossbeam_epoch8internal5Local5defer17h4b06bd919cd43fa4E:
Lfunc_begin40:
	.loc	19 428 0
	.cfi_startproc
	pushq	%rbp
	.cfi_def_cfa_offset 16
	.cfi_offset %rbp, -16
	movq	%rsp, %rbp
	.cfi_def_cfa_register %rbp
	pushq	%r15
	pushq	%r14
	pushq	%r13
	pushq	%r12
	pushq	%rbx
	movl	$4200, %eax
	callq	___rust_probestack
	subq	%rax, %rsp
	.cfi_offset %rbx, -56
	.cfi_offset %r12, -48
	.cfi_offset %r13, -40
	.cfi_offset %r14, -32
	.cfi_offset %r15, -24
	movq	%rdi, %rbx
Ltmp677:
	.loc	19 429 25 prologue_end
	leaq	24(%rdi), %r12
Ltmp678:
	.loc	19 431 41
	movq	(%rsi), %rdx
Ltmp679:
	movq	8(%rsi), %rax
	movq	24(%rsi), %rcx
	movq	%rcx, -2160(%rbp)
	movq	%rsi, -48(%rbp)
Ltmp680:
	movq	16(%rsi), %rcx
	movq	%rcx, -2168(%rbp)
	movq	%rax, -2176(%rbp)
Ltmp681:
	.loc	19 91 12
	movq	2072(%rdi), %rax
	cmpq	$64, %rax
	.loc	19 91 9 is_stmt 0
	jb	LBB40_4
Ltmp682:
	.loc	19 0 9
	movq	-48(%rbp), %rax
	addq	$8, %rax
	movq	%rax, -64(%rbp)
	leaq	-2176(%rbp), %r13
	movq	%rdx, -72(%rbp)
	movq	%rbx, -56(%rbp)
Ltmp683:
	.p2align	4, 0x90
LBB40_2:
	.loc	19 96 17 is_stmt 1
	movq	-2160(%rbp), %rax
	movq	%rax, -80(%rbp)
	movq	-2176(%rbp), %rax
	movq	-2168(%rbp), %rcx
	movq	%rcx, -88(%rbp)
	movq	%rax, -96(%rbp)
Ltmp684:
	.loc	19 0 0 is_stmt 0
	testq	%rdx, %rdx
	.loc	19 431 19 is_stmt 1
	je	LBB40_3
Ltmp685:
	.loc	19 431 23 is_stmt 0
	movq	-80(%rbp), %rax
	movq	%rax, -104(%rbp)
	movq	-96(%rbp), %rax
	movq	-88(%rbp), %rcx
	movq	%rcx, -112(%rbp)
	movq	%rax, -120(%rbp)
Ltmp686:
	.loc	19 432 13 is_stmt 1
	movq	16(%rbx), %r15
Ltmp687:
	.loc	19 74 9
	movq	%r13, %rdi
	callq	__ZN73_$LT$crossbeam_epoch..internal..Bag$u20$as$u20$core..default..Default$GT$7default17h1c3317ab122cc6f0E
	movl	$32, %eax
Ltmp688:
	.p2align	4, 0x90
LBB40_8:
	.loc	7 2058 5
	movups	-32(%r12,%rax), %xmm0
	movups	-16(%r12,%rax), %xmm1
Ltmp689:
	.loc	7 2058 5 is_stmt 0
	movq	-2184(%rbp,%rax), %rcx
	movq	%rcx, -8(%r12,%rax)
	movq	-2192(%rbp,%rax), %rcx
	movq	%rcx, -16(%r12,%rax)
	movq	-2208(%rbp,%rax), %rcx
	movq	-2200(%rbp,%rax), %rdx
	movq	%rdx, -24(%r12,%rax)
	movq	%rcx, -32(%r12,%rax)
Ltmp690:
	.loc	7 2058 5
	movups	%xmm1, -2192(%rbp,%rax)
	movups	%xmm0, -2208(%rbp,%rax)
Ltmp691:
	.loc	7 2058 5
	movups	(%r12,%rax), %xmm0
	movups	16(%r12,%rax), %xmm1
Ltmp692:
	.loc	7 2058 5
	movq	-2152(%rbp,%rax), %rcx
	movq	%rcx, 24(%r12,%rax)
	movq	-2160(%rbp,%rax), %rcx
	movq	%rcx, 16(%r12,%rax)
	movq	-2176(%rbp,%rax), %rcx
	movq	-2168(%rbp,%rax), %rdx
	movq	%rdx, 8(%r12,%rax)
	movq	%rcx, (%r12,%rax)
Ltmp693:
	.loc	7 2058 5
	movups	%xmm0, -2176(%rbp,%rax)
	movups	%xmm1, -2160(%rbp,%rax)
Ltmp694:
	.loc	14 458 11 is_stmt 1
	addq	$64, %rax
Ltmp695:
	cmpq	$2057, %rax
	.loc	14 458 5 is_stmt 0
	jb	LBB40_8
Ltmp696:
	.loc	7 2058 5 is_stmt 1
	movq	2072(%rbx), %rax
Ltmp697:
	.loc	7 2058 5 is_stmt 0
	movq	-128(%rbp), %rcx
	movq	%rcx, 2072(%rbx)
Ltmp698:
	.loc	7 2058 5
	movq	%rax, -128(%rbp)
Ltmp699:
	.loc	17 806 5 is_stmt 1
	movl	$2056, %edx
	leaq	-4232(%rbp), %rbx
Ltmp700:
	movq	%rbx, %rdi
	movq	%r13, %rsi
	callq	_memcpy
Ltmp701:
	.loc	15 2566 23
	mfence
Ltmp702:
	.loc	15 2276 20
	movq	384(%r15), %r14
Ltmp703:
	.loc	18 664 29
	movl	$2056, %edx
	movq	%r13, %rdi
	movq	%rbx, %rsi
	callq	_memcpy
Ltmp704:
	.loc	10 80 5
	movl	$2072, %edi
	movl	$8, %esi
	callq	___rust_alloc
Ltmp705:
	.loc	10 269 9
	testq	%rax, %rax
	je	LBB40_14
Ltmp706:
	.loc	11 0 0 is_stmt 0
	movq	%rax, %rbx
Ltmp707:
	.loc	11 174 13 is_stmt 1
	movq	%r14, (%rax)
	movq	%rax, %rdi
	addq	$8, %rdi
	movl	$2056, %edx
	movq	%r13, %rsi
	callq	_memcpy
	movq	$0, 2064(%rbx)
	jmp	LBB40_11
Ltmp708:
	.p2align	4, 0x90
LBB40_15:
	.loc	15 2332 31
	movq	%rcx, %rax
	lock		cmpxchgq	%rsi, 256(%r15)
Ltmp709:
LBB40_11:
	.loc	15 2275 20
	movq	256(%r15), %rcx
Ltmp710:
	.loc	18 113 15
	movq	%rcx, %rdx
	andq	$-8, %rdx
Ltmp711:
	.loc	15 2275 20
	movq	2064(%rdx), %rsi
Ltmp712:
	.loc	8 189 25
	cmpq	$7, %rsi
Ltmp713:
	.loc	12 71 9
	ja	LBB40_15
Ltmp714:
	.loc	15 2332 31
	xorl	%eax, %eax
	lock		cmpxchgq	%rbx, 2064(%rdx)
Ltmp715:
	.loc	25 611 13
	jne	LBB40_11
Ltmp716:
	.loc	15 2332 31
	movq	%rcx, %rax
	lock		cmpxchgq	%rbx, 256(%r15)
Ltmp717:
	.loc	15 0 31 is_stmt 0
	movq	-72(%rbp), %rdx
Ltmp718:
	movq	-48(%rbp), %rax
Ltmp719:
	.loc	19 433 13 is_stmt 1
	movq	%rdx, (%rax)
	movq	-104(%rbp), %rax
	movq	-64(%rbp), %rsi
Ltmp720:
	movq	%rax, 16(%rsi)
	movq	-120(%rbp), %rax
	movq	-112(%rbp), %rcx
Ltmp721:
	movq	%rcx, 8(%rsi)
	movq	%rax, (%rsi)
Ltmp722:
	.loc	19 431 41
	movq	16(%rsi), %rax
	movq	%rax, -2160(%rbp)
	movq	(%rsi), %rax
	movq	8(%rsi), %rcx
	movq	%rcx, -2168(%rbp)
	movq	%rax, -2176(%rbp)
	movq	-56(%rbp), %rbx
Ltmp723:
	.loc	19 91 12
	movq	2072(%rbx), %rax
	cmpq	$64, %rax
	.loc	19 91 9 is_stmt 0
	jae	LBB40_2
Ltmp724:
LBB40_4:
	.loc	19 92 13 is_stmt 1
	shlq	$5, %rax
	movq	%rdx, (%r12,%rax)
	movq	-2160(%rbp), %rcx
	movq	%rcx, 24(%r12,%rax)
	movq	-2176(%rbp), %rcx
	movq	-2168(%rbp), %rdx
	movq	%rdx, 16(%r12,%rax)
	movq	%rcx, 8(%r12,%rax)
	.loc	19 93 13
	movq	2072(%rbx), %rax
	incq	%rax
	je	LBB40_6
Ltmp725:
	movq	%rax, 2072(%rbx)
Ltmp726:
LBB40_3:
	.loc	19 435 6
	addq	$4200, %rsp
	popq	%rbx
	popq	%r12
	popq	%r13
	popq	%r14
	popq	%r15
	popq	%rbp
	retq
Ltmp727:
LBB40_14:
	.loc	10 270 19
	movl	$2072, %edi
	movl	$8, %esi
	callq	__ZN5alloc5alloc18handle_alloc_error17hbc0ab0ed90816c07E
Ltmp728:
LBB40_6:
	.loc	19 93 13
	leaq	_str.2(%rip), %rdi
	leaq	l___unnamed_40(%rip), %rdx
	movl	$28, %esi
	callq	__ZN4core9panicking5panic17h736ee47a631475c0E
Ltmp729:
Lfunc_end40:
	.cfi_endproc

	.globl	__ZN15crossbeam_epoch8internal5Local8finalize17hbdefd0f40d84cd73E
	.p2align	4, 0x90
__ZN15crossbeam_epoch8internal5Local8finalize17hbdefd0f40d84cd73E:
Lfunc_begin41:
	.loc	19 565 0
	.cfi_startproc
	.cfi_personality 155, _rust_eh_personality
	.cfi_lsda 16, Lexception3
	pushq	%rbp
	.cfi_def_cfa_offset 16
	.cfi_offset %rbp, -16
	movq	%rsp, %rbp
	.cfi_def_cfa_register %rbp
Ltmp735:
	pushq	%r15
	pushq	%r14
	pushq	%r12
	pushq	%rbx
	movl	$4208, %eax
	callq	___rust_probestack
	subq	%rax, %rsp
	.cfi_offset %rbx, -48
	.cfi_offset %r12, -40
	.cfi_offset %r14, -32
	.cfi_offset %r15, -24
	.loc	19 566 26 prologue_end
	movq	2080(%rdi), %rax
Ltmp736:
	movq	%rax, -40(%rbp)
Ltmp737:
	.loc	19 566 9 is_stmt 0
	testq	%rax, %rax
Ltmp738:
	jne	LBB41_23
Ltmp739:
	.loc	19 0 9
	movq	%rdi, %r14
Ltmp740:
	.loc	19 567 26 is_stmt 1
	movq	2088(%rdi), %rax
Ltmp741:
	movq	%rax, -40(%rbp)
Ltmp742:
	.loc	19 567 9 is_stmt 0
	testq	%rax, %rax
Ltmp743:
	jne	LBB41_11
Ltmp744:
	.loc	7 2058 5 is_stmt 1
	movq	$1, 2088(%r14)
Ltmp745:
	.loc	19 450 21
	movq	%r14, -56(%rbp)
Ltmp746:
	.loc	7 2058 5
	movq	$1, 2080(%r14)
Ltmp747:
	.loc	19 456 32
	movq	16(%r14), %rax
Ltmp748:
	.loc	15 2276 20
	movq	384(%rax), %rcx
Ltmp749:
	.loc	29 50 19
	orq	$1, %rcx
Ltmp750:
	.loc	19 476 31
	movq	$0, -64(%rbp)
Ltmp751:
	.loc	15 2335 29
	xorl	%eax, %eax
Ltmp752:
	lock		cmpxchgq	%rcx, 8(%r14)
Ltmp753:
	.loc	19 477 32
	movq	%rax, -72(%rbp)
Ltmp754:
	.loc	29 19 5
	cmpq	%rax, -64(%rbp)
Ltmp755:
	.loc	19 480 17
	jne	LBB41_24
Ltmp756:
	.loc	15 2654 23
	##MEMBARRIER
Ltmp757:
	.loc	19 491 25
	movq	2096(%r14), %rax
Ltmp758:
	.loc	40 3320 17
	leaq	1(%rax), %rcx
Ltmp759:
	.loc	7 2058 5
	movq	%rcx, 2096(%r14)
Ltmp760:
	.loc	19 496 16
	testb	$127, %al
	.loc	19 496 13 is_stmt 0
	jne	LBB41_5
Ltmp761:
	.loc	19 497 17 is_stmt 1
	movq	16(%r14), %rdi
Ltmp762:
	.loc	13 1114 9
	subq	$-128, %rdi
Ltmp732:
	leaq	-56(%rbp), %rsi
Ltmp763:
	.loc	19 497 17
	callq	__ZN15crossbeam_epoch8internal6Global7collect17hcf95bb3c3505e5afE
Ltmp764:
Ltmp733:
LBB41_5:
	.loc	19 501 9
	movq	-56(%rbp), %rax
Ltmp765:
	.loc	19 575 26
	movq	%rax, -120(%rbp)
Ltmp766:
	.loc	19 576 13
	movq	16(%r14), %rbx
Ltmp767:
	.loc	19 0 13 is_stmt 0
	leaq	-2176(%rbp), %rdi
Ltmp768:
	.loc	19 74 9 is_stmt 1
	callq	__ZN73_$LT$crossbeam_epoch..internal..Bag$u20$as$u20$core..default..Default$GT$7default17h1c3317ab122cc6f0E
Ltmp769:
	.loc	19 0 9 is_stmt 0
	leaq	24(%r14), %rax
	movl	$32, %ecx
Ltmp770:
	.p2align	4, 0x90
LBB41_6:
	.loc	7 2058 5 is_stmt 1
	movups	-32(%rax,%rcx), %xmm0
	movups	-16(%rax,%rcx), %xmm1
Ltmp771:
	.loc	7 2058 5 is_stmt 0
	movq	-2184(%rbp,%rcx), %rdx
	movq	%rdx, -8(%rax,%rcx)
	movq	-2192(%rbp,%rcx), %rdx
	movq	%rdx, -16(%rax,%rcx)
	movq	-2208(%rbp,%rcx), %rdx
	movq	-2200(%rbp,%rcx), %rsi
	movq	%rsi, -24(%rax,%rcx)
	movq	%rdx, -32(%rax,%rcx)
Ltmp772:
	.loc	7 2058 5
	movups	%xmm1, -2192(%rbp,%rcx)
	movups	%xmm0, -2208(%rbp,%rcx)
Ltmp773:
	.loc	7 2058 5
	movups	(%rax,%rcx), %xmm0
	movups	16(%rax,%rcx), %xmm1
Ltmp774:
	.loc	7 2058 5
	movq	-2152(%rbp,%rcx), %rdx
	movq	%rdx, 24(%rax,%rcx)
	movq	-2160(%rbp,%rcx), %rdx
	movq	%rdx, 16(%rax,%rcx)
	movq	-2176(%rbp,%rcx), %rdx
	movq	-2168(%rbp,%rcx), %rsi
	movq	%rsi, 8(%rax,%rcx)
	movq	%rdx, (%rax,%rcx)
Ltmp775:
	.loc	7 2058 5
	movups	%xmm0, -2176(%rbp,%rcx)
	movups	%xmm1, -2160(%rbp,%rcx)
Ltmp776:
	.loc	14 458 11 is_stmt 1
	addq	$64, %rcx
Ltmp777:
	cmpq	$2057, %rcx
	.loc	14 458 5 is_stmt 0
	jb	LBB41_6
Ltmp778:
	.loc	7 2058 5 is_stmt 1
	movq	2072(%r14), %rax
Ltmp779:
	.loc	7 2058 5 is_stmt 0
	movq	-128(%rbp), %rcx
	movq	%rcx, 2072(%r14)
Ltmp780:
	.loc	7 2058 5
	movq	%rax, -128(%rbp)
	leaq	-4232(%rbp), %r15
	leaq	-2176(%rbp), %rsi
Ltmp781:
	.loc	17 806 5 is_stmt 1
	movl	$2056, %edx
	movq	%r15, %rdi
	callq	_memcpy
Ltmp782:
	.loc	15 2566 23
	mfence
Ltmp783:
	.loc	15 2276 20
	movq	384(%rbx), %r12
Ltmp784:
	.loc	15 0 20 is_stmt 0
	leaq	-2176(%rbp), %rdi
Ltmp785:
	.loc	18 664 29 is_stmt 1
	movl	$2056, %edx
	movq	%r15, %rsi
	callq	_memcpy
Ltmp786:
	.loc	10 80 5
	movl	$2072, %edi
	movl	$8, %esi
	callq	___rust_alloc
Ltmp787:
	.loc	10 269 9
	testq	%rax, %rax
	je	LBB41_8
Ltmp788:
	.loc	11 0 0 is_stmt 0
	movq	%rax, %r15
Ltmp789:
	.loc	11 174 13 is_stmt 1
	movq	%r12, (%rax)
	movq	%rax, %rdi
	addq	$8, %rdi
	leaq	-2176(%rbp), %rsi
	movl	$2056, %edx
	callq	_memcpy
	movq	$0, 2064(%r15)
	jmp	LBB41_13
Ltmp790:
	.p2align	4, 0x90
LBB41_25:
	.loc	15 2332 31
	movq	%rcx, %rax
	lock		cmpxchgq	%rsi, 256(%rbx)
Ltmp791:
LBB41_13:
	.loc	15 2275 20
	movq	256(%rbx), %rcx
Ltmp792:
	.loc	18 113 15
	movq	%rcx, %rdx
	andq	$-8, %rdx
Ltmp793:
	.loc	15 2275 20
	movq	2064(%rdx), %rsi
Ltmp794:
	.loc	8 189 25
	cmpq	$7, %rsi
Ltmp795:
	.loc	12 71 9
	ja	LBB41_25
Ltmp796:
	.loc	15 2332 31
	xorl	%eax, %eax
	lock		cmpxchgq	%r15, 2064(%rdx)
Ltmp797:
	.loc	25 611 13
	jne	LBB41_13
Ltmp798:
	.loc	15 2332 31
	movq	%rcx, %rax
	lock		cmpxchgq	%r15, 256(%rbx)
Ltmp799:
	.loc	1 422 39
	movq	-120(%rbp), %rdi
Ltmp800:
	.loc	1 422 16 is_stmt 0
	testq	%rdi, %rdi
	je	LBB41_20
Ltmp801:
	.loc	19 507 27 is_stmt 1
	movq	2080(%rdi), %rax
Ltmp802:
	.loc	19 508 30
	subq	$1, %rax
Ltmp803:
	jb	LBB41_26
Ltmp804:
	.loc	7 2058 5
	movq	%rax, 2080(%rdi)
Ltmp805:
	.loc	19 510 9
	jne	LBB41_20
Ltmp806:
	.loc	15 2264 20
	movq	$0, 8(%rdi)
Ltmp807:
	.loc	19 513 16
	cmpq	$0, 2088(%rdi)
	.loc	19 513 13 is_stmt 0
	je	LBB41_19
Ltmp808:
LBB41_20:
	.loc	7 2058 5 is_stmt 1
	movq	$0, 2088(%r14)
Ltmp809:
	.loc	7 2058 5 is_stmt 0
	movq	16(%r14), %rax
Ltmp810:
	.loc	19 585 40 is_stmt 1
	movq	%rax, -4232(%rbp)
Ltmp811:
	.loc	15 2402 20
	lock		orq	$1, (%r14)
Ltmp812:
	.loc	19 593 18
	movq	-4232(%rbp), %rax
Ltmp813:
	.loc	19 0 18 is_stmt 0
	movq	%rax, -2176(%rbp)
Ltmp814:
	.loc	15 2314 20 is_stmt 1
	lock		decq	(%rax)
Ltmp815:
	.loc	13 1346 9
	jne	LBB41_22
Ltmp816:
	.loc	15 2563 24
	##MEMBARRIER
	leaq	-2176(%rbp), %rdi
Ltmp817:
	.loc	13 1381 13
	callq	__ZN5alloc4sync12Arc$LT$T$GT$9drop_slow17h07cc3a4886c44ffeE
Ltmp818:
LBB41_22:
	.loc	19 595 6
	addq	$4208, %rsp
	popq	%rbx
	popq	%r12
	popq	%r14
Ltmp819:
	popq	%r15
	popq	%rbp
	retq
LBB41_19:
Ltmp820:
	.loc	19 514 17
	callq	__ZN15crossbeam_epoch8internal5Local8finalize17hbdefd0f40d84cd73E
Ltmp821:
	.loc	19 0 17 is_stmt 0
	jmp	LBB41_20
Ltmp822:
LBB41_23:
	leaq	-40(%rbp), %rax
Ltmp823:
	.loc	19 566 9 is_stmt 1
	movq	%rax, -48(%rbp)
	leaq	__ZN15crossbeam_epoch5guard11unprotected11UNPROTECTED17h14de8716a2bb7a89E(%rip), %rax
	movq	%rax, -120(%rbp)
	leaq	-48(%rbp), %rax
Ltmp824:
	.loc	19 566 9 is_stmt 0
	movq	%rax, -4232(%rbp)
	leaq	__ZN42_$LT$$RF$T$u20$as$u20$core..fmt..Debug$GT$3fmt17ha63a1f7c3f271447E(%rip), %rax
	movq	%rax, -4224(%rbp)
	leaq	-120(%rbp), %rcx
	movq	%rcx, -4216(%rbp)
	movq	%rax, -4208(%rbp)
Ltmp825:
	.loc	28 328 9 is_stmt 1
	leaq	l___unnamed_33(%rip), %rax
Ltmp826:
	movq	%rax, -2176(%rbp)
	movq	$3, -2168(%rbp)
	movq	$0, -2160(%rbp)
	leaq	-4232(%rbp), %rax
Ltmp827:
	movq	%rax, -2144(%rbp)
	movq	$2, -2136(%rbp)
Ltmp828:
	.loc	19 566 9
	leaq	l___unnamed_41(%rip), %rsi
	leaq	-2176(%rbp), %rdi
Ltmp829:
	callq	__ZN3std9panicking15begin_panic_fmt17h2e6dba6f5c07d155E
Ltmp830:
LBB41_11:
	.loc	19 0 9 is_stmt 0
	leaq	-40(%rbp), %rax
Ltmp831:
	.loc	19 567 9 is_stmt 1
	movq	%rax, -48(%rbp)
	leaq	__ZN15crossbeam_epoch5guard11unprotected11UNPROTECTED17h14de8716a2bb7a89E(%rip), %rax
	movq	%rax, -120(%rbp)
	leaq	-48(%rbp), %rax
Ltmp832:
	.loc	19 567 9 is_stmt 0
	movq	%rax, -4232(%rbp)
	leaq	__ZN42_$LT$$RF$T$u20$as$u20$core..fmt..Debug$GT$3fmt17ha63a1f7c3f271447E(%rip), %rax
	movq	%rax, -4224(%rbp)
	leaq	-120(%rbp), %rcx
	movq	%rcx, -4216(%rbp)
	movq	%rax, -4208(%rbp)
Ltmp833:
	.loc	28 328 9 is_stmt 1
	leaq	l___unnamed_33(%rip), %rax
Ltmp834:
	movq	%rax, -2176(%rbp)
	movq	$3, -2168(%rbp)
	movq	$0, -2160(%rbp)
	leaq	-4232(%rbp), %rax
Ltmp835:
	movq	%rax, -2144(%rbp)
	movq	$2, -2136(%rbp)
Ltmp836:
	.loc	19 567 9
	leaq	l___unnamed_42(%rip), %rsi
	leaq	-2176(%rbp), %rdi
	callq	__ZN3std9panicking15begin_panic_fmt17h2e6dba6f5c07d155E
Ltmp837:
LBB41_24:
	.loc	19 0 9 is_stmt 0
	leaq	-64(%rbp), %rax
Ltmp838:
	.loc	19 480 17 is_stmt 1
	movq	%rax, -40(%rbp)
	leaq	-72(%rbp), %rax
	movq	%rax, -48(%rbp)
Ltmp839:
	.loc	28 328 9
	leaq	l___unnamed_43(%rip), %rax
Ltmp840:
	movq	%rax, -2176(%rbp)
	movq	$1, -2168(%rbp)
	movq	$0, -2160(%rbp)
	leaq	__ZN15crossbeam_epoch7default9COLLECTOR17haa275bceec3c53f3E(%rip), %rax
Ltmp841:
	movq	%rax, -2144(%rbp)
	movq	$0, -2136(%rbp)
	leaq	-40(%rbp), %rax
Ltmp842:
	.loc	19 480 17
	movq	%rax, -4232(%rbp)
	leaq	__ZN42_$LT$$RF$T$u20$as$u20$core..fmt..Debug$GT$3fmt17h27533dd386ea7918E(%rip), %rax
	movq	%rax, -4224(%rbp)
	leaq	-48(%rbp), %rcx
Ltmp843:
	movq	%rcx, -4216(%rbp)
	movq	%rax, -4208(%rbp)
	leaq	-2176(%rbp), %rax
	movq	%rax, -4200(%rbp)
	movq	__ZN59_$LT$core..fmt..Arguments$u20$as$u20$core..fmt..Display$GT$3fmt17h58d7abb0506833b1E@GOTPCREL(%rip), %rax
	movq	%rax, -4192(%rbp)
Ltmp844:
	.loc	28 328 9
	leaq	l___unnamed_44(%rip), %rax
Ltmp845:
	movq	%rax, -120(%rbp)
	movq	$3, -112(%rbp)
	movq	$0, -104(%rbp)
	leaq	-4232(%rbp), %rax
Ltmp846:
	movq	%rax, -88(%rbp)
	movq	$3, -80(%rbp)
Ltmp847:
Ltmp730:
	.loc	19 480 17
	leaq	l___unnamed_45(%rip), %rsi
	leaq	-120(%rbp), %rdi
	callq	__ZN3std9panicking15begin_panic_fmt17h2e6dba6f5c07d155E
Ltmp731:
	jmp	LBB41_10
Ltmp848:
LBB41_8:
	.loc	10 270 19
	movl	$2072, %edi
	movl	$8, %esi
	callq	__ZN5alloc5alloc18handle_alloc_error17hbc0ab0ed90816c07E
Ltmp849:
LBB41_26:
	.loc	19 508 30
	leaq	_str.1(%rip), %rdi
Ltmp850:
	leaq	l___unnamed_31(%rip), %rdx
	movl	$33, %esi
	callq	__ZN4core9panicking5panic17h736ee47a631475c0E
Ltmp851:
LBB41_9:
Ltmp734:
	.loc	19 0 30 is_stmt 0
	movq	%rax, %rbx
	leaq	-56(%rbp), %rdi
Ltmp852:
	.loc	19 502 5 is_stmt 1
	callq	__ZN4core3ptr13drop_in_place17hce0fad9fe99075f3E
	movq	%rbx, %rdi
	callq	__Unwind_Resume
Ltmp853:
LBB41_10:
	.loc	19 0 5 is_stmt 0
	ud2
Lfunc_end41:
	.cfi_endproc
	.file	41 "/rustc/a74d1862d4d87a56244958416fd05976c58ca1a8/src/libcore/num/wrapping.rs"
	.section	__TEXT,__gcc_except_tab
	.p2align	2
GCC_except_table41:
Lexception3:
	.byte	255
	.byte	255
	.byte	1
	.uleb128 Lcst_end3-Lcst_begin3
Lcst_begin3:
	.uleb128 Lfunc_begin41-Lfunc_begin41
	.uleb128 Ltmp732-Lfunc_begin41
	.byte	0
	.byte	0
	.uleb128 Ltmp732-Lfunc_begin41
	.uleb128 Ltmp733-Ltmp732
	.uleb128 Ltmp734-Lfunc_begin41
	.byte	0
	.uleb128 Ltmp733-Lfunc_begin41
	.uleb128 Ltmp730-Ltmp733
	.byte	0
	.byte	0
	.uleb128 Ltmp730-Lfunc_begin41
	.uleb128 Ltmp731-Ltmp730
	.uleb128 Ltmp734-Lfunc_begin41
	.byte	0
	.uleb128 Ltmp731-Lfunc_begin41
	.uleb128 Lfunc_end41-Ltmp731
	.byte	0
	.byte	0
Lcst_end3:
	.p2align	2

	.section	__TEXT,__text,regular,pure_instructions
	.globl	__ZN131_$LT$crossbeam_epoch..internal..Local$u20$as$u20$crossbeam_epoch..sync..list..IsElement$LT$crossbeam_epoch..internal..Local$GT$$GT$8entry_of17hd25cdb9a3af2ec26E
	.p2align	4, 0x90
__ZN131_$LT$crossbeam_epoch..internal..Local$u20$as$u20$crossbeam_epoch..sync..list..IsElement$LT$crossbeam_epoch..internal..Local$GT$$GT$8entry_of17hd25cdb9a3af2ec26E:
Lfunc_begin42:
	.loc	19 599 0 is_stmt 1
	.cfi_startproc
	pushq	%rbp
	.cfi_def_cfa_offset 16
	.cfi_offset %rbp, -16
	movq	%rsp, %rbp
	.cfi_def_cfa_register %rbp
	movq	%rdi, %rax
Ltmp854:
	.loc	19 602 6 prologue_end
	popq	%rbp
	retq
Ltmp855:
Lfunc_end42:
	.cfi_endproc

	.globl	__ZN131_$LT$crossbeam_epoch..internal..Local$u20$as$u20$crossbeam_epoch..sync..list..IsElement$LT$crossbeam_epoch..internal..Local$GT$$GT$10element_of17h746a3e8da63ad854E
	.p2align	4, 0x90
__ZN131_$LT$crossbeam_epoch..internal..Local$u20$as$u20$crossbeam_epoch..sync..list..IsElement$LT$crossbeam_epoch..internal..Local$GT$$GT$10element_of17h746a3e8da63ad854E:
Lfunc_begin43:
	.loc	19 604 0
	.cfi_startproc
	pushq	%rbp
	.cfi_def_cfa_offset 16
	.cfi_offset %rbp, -16
	movq	%rsp, %rbp
	.cfi_def_cfa_register %rbp
	movq	%rdi, %rax
Ltmp856:
	.loc	19 609 6 prologue_end
	popq	%rbp
	retq
Ltmp857:
Lfunc_end43:
	.cfi_endproc

	.globl	__ZN131_$LT$crossbeam_epoch..internal..Local$u20$as$u20$crossbeam_epoch..sync..list..IsElement$LT$crossbeam_epoch..internal..Local$GT$$GT$8finalize17h08a7d7d679419f3dE
	.p2align	4, 0x90
__ZN131_$LT$crossbeam_epoch..internal..Local$u20$as$u20$crossbeam_epoch..sync..list..IsElement$LT$crossbeam_epoch..internal..Local$GT$$GT$8finalize17h08a7d7d679419f3dE:
Lfunc_begin44:
	.loc	19 611 0
	.cfi_startproc
	.cfi_personality 155, _rust_eh_personality
	.cfi_lsda 16, Lexception4
	pushq	%rbp
	.cfi_def_cfa_offset 16
	.cfi_offset %rbp, -16
	movq	%rsp, %rbp
	.cfi_def_cfa_register %rbp
	pushq	%r15
	pushq	%r14
	pushq	%r13
	pushq	%r12
	pushq	%rbx
	andq	$-32, %rsp
	subq	$128, %rsp
	.cfi_offset %rbx, -56
	.cfi_offset %r12, -48
	.cfi_offset %r13, -40
	.cfi_offset %r14, -32
	.cfi_offset %r15, -24
	movq	%rdi, %r14
Ltmp864:
	.loc	1 194 30 prologue_end
	movq	(%rsi), %rdi
Ltmp865:
	.loc	1 194 16 is_stmt 0
	testq	%rdi, %rdi
	je	LBB44_1
Ltmp866:
	.loc	36 49 17 is_stmt 1
	leaq	__ZN15crossbeam_epoch8deferred8Deferred3new4call17h8b760865bd39c0e3E(%rip), %rax
	movq	%rax, (%rsp)
	movq	%r14, 8(%rsp)
	movq	%rsp, %rsi
Ltmp867:
	.loc	1 195 13
	callq	__ZN15crossbeam_epoch8internal5Local5defer17h4b06bd919cd43fa4E
Ltmp868:
	.loc	1 0 13 is_stmt 0
	jmp	LBB44_13
Ltmp869:
LBB44_1:
	.loc	19 198 47 is_stmt 1
	movq	2072(%r14), %r12
Ltmp870:
	.loc	32 2928 19
	cmpq	$65, %r12
	.loc	32 2928 16 is_stmt 0
	jae	LBB44_2
Ltmp871:
	.loc	34 152 9 is_stmt 1
	shlq	$5, %r12
Ltmp872:
	.loc	32 3303 21
	je	LBB44_8
Ltmp873:
	.loc	14 0 0 is_stmt 0
	leaq	24(%r14), %r13
Ltmp874:
	leaq	8(%rsp), %r15
	xorl	%ebx, %ebx
	leaq	__ZN15crossbeam_epoch8deferred8Deferred3new4call17h8e504f3250704f70E(%rip), %rax
	movq	%rax, %xmm0
	movdqa	%xmm0, 48(%rsp)
Ltmp875:
	.p2align	4, 0x90
LBB44_6:
	.loc	19 200 57 is_stmt 1
	movlps	48(%rsp), %xmm1
Ltmp876:
	.loc	7 2058 5
	movdqu	(%r13,%rbx), %xmm2
	movups	16(%r13,%rbx), %xmm3
Ltmp877:
	.loc	7 2058 5 is_stmt 0
	movups	%xmm0, 16(%r13,%rbx)
	movups	%xmm1, (%r13,%rbx)
Ltmp878:
	.loc	7 0 5
	movaps	%xmm3, 64(%rsp)
Ltmp879:
	.loc	19 201 13 is_stmt 1
	movaps	%xmm3, 16(%rsp)
	movdqa	%xmm2, (%rsp)
	movdqa	%xmm2, 80(%rsp)
Ltmp880:
	.loc	36 76 20
	movq	%xmm2, %rax
Ltmp881:
Ltmp858:
	.loc	36 77 18
	movq	%r15, %rdi
	callq	*%rax
Ltmp882:
Ltmp859:
	.loc	32 3179 9
	addq	$32, %rbx
	cmpq	%rbx, %r12
	movaps	80(%rsp), %xmm1
	movaps	64(%rsp), %xmm0
	.loc	32 3303 21
	jne	LBB44_6
Ltmp883:
LBB44_8:
	.loc	10 102 5
	movl	$2104, %esi
	movl	$8, %edx
	movq	%r14, %rdi
	callq	___rust_dealloc
Ltmp884:
LBB44_13:
	.loc	19 613 6
	leaq	-40(%rbp), %rsp
	popq	%rbx
	popq	%r12
	popq	%r13
	popq	%r14
Ltmp885:
	popq	%r15
	popq	%rbp
	retq
LBB44_2:
Ltmp886:
Ltmp861:
	.loc	32 2929 13
	leaq	l___unnamed_28(%rip), %rdx
	movl	$64, %esi
Ltmp887:
	movq	%r12, %rdi
	callq	__ZN4core5slice20slice_index_len_fail17h550a313151a85135E
Ltmp862:
Ltmp888:
	ud2
Ltmp889:
LBB44_10:
Ltmp863:
	.loc	32 0 13 is_stmt 0
	jmp	LBB44_11
Ltmp890:
LBB44_9:
Ltmp860:
LBB44_11:
	movq	%rax, %rbx
	.loc	14 178 1 is_stmt 1
	movq	%r14, %rdi
	callq	__ZN5alloc5alloc8box_free17hef181785a96c4560E
	movq	%rbx, %rdi
	callq	__Unwind_Resume
	ud2
Ltmp891:
Lfunc_end44:
	.cfi_endproc
	.section	__TEXT,__gcc_except_tab
	.p2align	2
GCC_except_table44:
Lexception4:
	.byte	255
	.byte	255
	.byte	1
	.uleb128 Lcst_end4-Lcst_begin4
Lcst_begin4:
	.uleb128 Lfunc_begin44-Lfunc_begin44
	.uleb128 Ltmp858-Lfunc_begin44
	.byte	0
	.byte	0
	.uleb128 Ltmp858-Lfunc_begin44
	.uleb128 Ltmp859-Ltmp858
	.uleb128 Ltmp860-Lfunc_begin44
	.byte	0
	.uleb128 Ltmp861-Lfunc_begin44
	.uleb128 Ltmp862-Ltmp861
	.uleb128 Ltmp863-Lfunc_begin44
	.byte	0
	.uleb128 Ltmp862-Lfunc_begin44
	.uleb128 Lfunc_end44-Ltmp862
	.byte	0
	.byte	0
Lcst_end4:
	.p2align	2

	.section	__TEXT,__text,regular,pure_instructions
	.globl	__ZN77_$LT$crossbeam_epoch..sync..list..Entry$u20$as$u20$core..default..Default$GT$7default17h8d2234275b1fcd9dE
	.p2align	4, 0x90
__ZN77_$LT$crossbeam_epoch..sync..list..Entry$u20$as$u20$core..default..Default$GT$7default17h8d2234275b1fcd9dE:
Lfunc_begin45:
	.loc	26 133 0
	.cfi_startproc
	pushq	%rbp
	.cfi_def_cfa_offset 16
	.cfi_offset %rbp, -16
	movq	%rsp, %rbp
	.cfi_def_cfa_register %rbp
Ltmp892:
	.loc	26 137 6 prologue_end
	xorl	%eax, %eax
	popq	%rbp
	retq
Ltmp893:
Lfunc_end45:
	.cfi_endproc

	.globl	__ZN66_$LT$crossbeam_epoch..epoch..Epoch$u20$as$u20$core..fmt..Debug$GT$3fmt17h8a9bef83bbb20987E
	.p2align	4, 0x90
__ZN66_$LT$crossbeam_epoch..epoch..Epoch$u20$as$u20$core..fmt..Debug$GT$3fmt17h8a9bef83bbb20987E:
Lfunc_begin46:
	.loc	29 16 0
	.cfi_startproc
	pushq	%rbp
	.cfi_def_cfa_offset 16
	.cfi_offset %rbp, -16
	movq	%rsp, %rbp
	.cfi_def_cfa_register %rbp
	pushq	%r14
	pushq	%rbx
	subq	$32, %rsp
	.cfi_offset %rbx, -32
	.cfi_offset %r14, -24
	movq	%rdi, %rbx
Ltmp894:
	.loc	29 16 32 prologue_end
	leaq	l___unnamed_19(%rip), %rdx
	leaq	-40(%rbp), %r14
	movl	$5, %ecx
	movq	%r14, %rdi
	callq	__ZN4core3fmt9Formatter12debug_struct17h985c0158d1fc7193E
Ltmp895:
	.loc	29 19 5
	movq	%rbx, -24(%rbp)
	.loc	29 16 32
	leaq	L___unnamed_20(%rip), %rsi
	leaq	l___unnamed_8(%rip), %r8
	leaq	-24(%rbp), %rcx
	movl	$4, %edx
	movq	%r14, %rdi
	callq	__ZN4core3fmt8builders11DebugStruct5field17h9c15dc155278eed2E
	movq	%r14, %rdi
	callq	__ZN4core3fmt8builders11DebugStruct6finish17h26808393f3fed630E
Ltmp896:
	.loc	29 16 37 is_stmt 0
	addq	$32, %rsp
	popq	%rbx
Ltmp897:
	popq	%r14
	popq	%rbp
	retq
Ltmp898:
Lfunc_end46:
	.cfi_endproc

	.globl	__ZN72_$LT$crossbeam_epoch..epoch..AtomicEpoch$u20$as$u20$core..fmt..Debug$GT$3fmt17h8948e9ec7ac1069bE
	.p2align	4, 0x90
__ZN72_$LT$crossbeam_epoch..epoch..AtomicEpoch$u20$as$u20$core..fmt..Debug$GT$3fmt17h8948e9ec7ac1069bE:
Lfunc_begin47:
	.loc	29 74 0 is_stmt 1
	.cfi_startproc
	pushq	%rbp
	.cfi_def_cfa_offset 16
	.cfi_offset %rbp, -16
	movq	%rsp, %rbp
	.cfi_def_cfa_register %rbp
	pushq	%r14
	pushq	%rbx
	subq	$32, %rsp
	.cfi_offset %rbx, -32
	.cfi_offset %r14, -24
	movq	%rdi, %rbx
Ltmp899:
	.loc	29 74 19 prologue_end
	leaq	l___unnamed_46(%rip), %rdx
	leaq	-40(%rbp), %r14
	movl	$11, %ecx
	movq	%r14, %rdi
	callq	__ZN4core3fmt9Formatter12debug_struct17h985c0158d1fc7193E
Ltmp900:
	.loc	29 78 5
	movq	%rbx, -24(%rbp)
	.loc	29 74 19
	leaq	L___unnamed_20(%rip), %rsi
	leaq	l___unnamed_9(%rip), %r8
	leaq	-24(%rbp), %rcx
	movl	$4, %edx
	movq	%r14, %rdi
	callq	__ZN4core3fmt8builders11DebugStruct5field17h9c15dc155278eed2E
	movq	%r14, %rdi
	callq	__ZN4core3fmt8builders11DebugStruct6finish17h26808393f3fed630E
Ltmp901:
	.loc	29 74 24 is_stmt 0
	addq	$32, %rsp
	popq	%rbx
Ltmp902:
	popq	%r14
	popq	%rbp
	retq
Ltmp903:
Lfunc_end47:
	.cfi_endproc

	.globl	__ZN73_$LT$crossbeam_epoch..internal..SealedBag$u20$as$u20$core..fmt..Debug$GT$3fmt17h4cf63ea69ee7e8f3E
	.p2align	4, 0x90
__ZN73_$LT$crossbeam_epoch..internal..SealedBag$u20$as$u20$core..fmt..Debug$GT$3fmt17h4cf63ea69ee7e8f3E:
Lfunc_begin48:
	.loc	19 218 0 is_stmt 1
	.cfi_startproc
	pushq	%rbp
	.cfi_def_cfa_offset 16
	.cfi_offset %rbp, -16
	movq	%rsp, %rbp
	.cfi_def_cfa_register %rbp
	pushq	%r14
	pushq	%rbx
	subq	$32, %rsp
	.cfi_offset %rbx, -32
	.cfi_offset %r14, -24
	movq	%rdi, %rbx
Ltmp904:
	.loc	19 218 19 prologue_end
	leaq	l___unnamed_47(%rip), %rdx
	leaq	-40(%rbp), %r14
	movl	$9, %ecx
	movq	%r14, %rdi
	callq	__ZN4core3fmt9Formatter12debug_struct17h985c0158d1fc7193E
Ltmp905:
	.loc	19 220 5
	movq	%rbx, -24(%rbp)
Ltmp906:
	.loc	19 221 5
	addq	$8, %rbx
Ltmp907:
	.loc	19 218 19
	leaq	l___unnamed_48(%rip), %rsi
	leaq	l___unnamed_10(%rip), %r8
	leaq	-24(%rbp), %rcx
	movl	$5, %edx
	movq	%r14, %rdi
	callq	__ZN4core3fmt8builders11DebugStruct5field17h9c15dc155278eed2E
	.loc	19 221 5
	movq	%rbx, -24(%rbp)
	.loc	19 218 19
	leaq	l___unnamed_49(%rip), %rsi
	leaq	l___unnamed_11(%rip), %r8
	leaq	-24(%rbp), %rcx
	movl	$3, %edx
	movq	%r14, %rdi
	callq	__ZN4core3fmt8builders11DebugStruct5field17h9c15dc155278eed2E
	movq	%r14, %rdi
	callq	__ZN4core3fmt8builders11DebugStruct6finish17h26808393f3fed630E
Ltmp908:
	.loc	19 218 24 is_stmt 0
	addq	$32, %rsp
	popq	%rbx
	popq	%r14
	popq	%rbp
	retq
Ltmp909:
Lfunc_end48:
	.cfi_endproc

	.globl	__ZN71_$LT$crossbeam_epoch..sync..list..Entry$u20$as$u20$core..fmt..Debug$GT$3fmt17h2e2b173d53727650E
	.p2align	4, 0x90
__ZN71_$LT$crossbeam_epoch..sync..list..Entry$u20$as$u20$core..fmt..Debug$GT$3fmt17h2e2b173d53727650E:
Lfunc_begin49:
	.loc	26 15 0 is_stmt 1
	.cfi_startproc
	pushq	%rbp
	.cfi_def_cfa_offset 16
	.cfi_offset %rbp, -16
	movq	%rsp, %rbp
	.cfi_def_cfa_register %rbp
	pushq	%r14
	pushq	%rbx
	subq	$32, %rsp
	.cfi_offset %rbx, -32
	.cfi_offset %r14, -24
	movq	%rdi, %rbx
Ltmp910:
	.loc	26 15 10 prologue_end
	leaq	l___unnamed_50(%rip), %rdx
	leaq	-40(%rbp), %r14
	movl	$5, %ecx
	movq	%r14, %rdi
	callq	__ZN4core3fmt9Formatter12debug_struct17h985c0158d1fc7193E
Ltmp911:
	.loc	26 19 5
	movq	%rbx, -24(%rbp)
	.loc	26 15 10
	leaq	L___unnamed_51(%rip), %rsi
	leaq	l___unnamed_12(%rip), %r8
	leaq	-24(%rbp), %rcx
	movl	$4, %edx
	movq	%r14, %rdi
	callq	__ZN4core3fmt8builders11DebugStruct5field17h9c15dc155278eed2E
	movq	%r14, %rdi
	callq	__ZN4core3fmt8builders11DebugStruct6finish17h26808393f3fed630E
Ltmp912:
	.loc	26 15 15 is_stmt 0
	addq	$32, %rsp
	popq	%rbx
Ltmp913:
	popq	%r14
	popq	%rbp
	retq
Ltmp914:
Lfunc_end49:
	.cfi_endproc

	.globl	__ZN75_$LT$crossbeam_epoch..sync..list..IterError$u20$as$u20$core..fmt..Debug$GT$3fmt17h60720f873ee8c692E
	.p2align	4, 0x90
__ZN75_$LT$crossbeam_epoch..sync..list..IterError$u20$as$u20$core..fmt..Debug$GT$3fmt17h60720f873ee8c692E:
Lfunc_begin50:
	.loc	26 124 0 is_stmt 1
	.cfi_startproc
	pushq	%rbp
	.cfi_def_cfa_offset 16
	.cfi_offset %rbp, -16
	movq	%rsp, %rbp
	.cfi_def_cfa_register %rbp
Ltmp915:
	pushq	%rbx
	subq	$24, %rsp
	.cfi_offset %rbx, -24
Ltmp916:
	.loc	26 124 21 prologue_end
	leaq	l___unnamed_52(%rip), %rdx
	leaq	-32(%rbp), %rbx
	movl	$7, %ecx
	movq	%rbx, %rdi
Ltmp917:
	callq	__ZN4core3fmt9Formatter11debug_tuple17h15ca25ad759edd1cE
Ltmp918:
	.loc	26 124 21 is_stmt 0
	movq	%rbx, %rdi
	callq	__ZN4core3fmt8builders10DebugTuple6finish17h68acf09c6f6593f2E
Ltmp919:
	.loc	26 124 26
	addq	$24, %rsp
	popq	%rbx
	popq	%rbp
	retq
Ltmp920:
Lfunc_end50:
	.cfi_endproc

	.globl	__ZN15crossbeam_epoch7default17default_collector17hdec724a8f716af77E
	.p2align	4, 0x90
__ZN15crossbeam_epoch7default17default_collector17hdec724a8f716af77E:
Lfunc_begin51:
	.loc	23 33 0 is_stmt 1
	.cfi_startproc
	pushq	%rbp
	.cfi_def_cfa_offset 16
	.cfi_offset %rbp, -16
	movq	%rsp, %rbp
	.cfi_def_cfa_register %rbp
	subq	$32, %rsp
	leaq	__ZN79_$LT$crossbeam_epoch..default..COLLECTOR$u20$as$u20$core..ops..deref..Deref$GT$5deref11__stability4LAZY17h02b22fd1dc76269dE(%rip), %rax
Ltmp921:
	movq	%rax, -8(%rbp)
Ltmp922:
	.loc	15 2275 20 prologue_end
	movq	__ZN79_$LT$crossbeam_epoch..default..COLLECTOR$u20$as$u20$core..ops..deref..Deref$GT$5deref11__stability4LAZY17h02b22fd1dc76269dE+8(%rip), %rax
Ltmp923:
	.loc	6 373 9
	cmpq	$3, %rax
Ltmp924:
	.loc	6 259 9
	jne	LBB51_1
Ltmp925:
	.loc	9 37 20
	movq	-8(%rbp), %rax
	.loc	9 38 17
	cmpq	$0, (%rax)
	je	LBB51_4
Ltmp926:
LBB51_3:
	.loc	23 35 2
	addq	$32, %rsp
	popq	%rbp
	retq
LBB51_1:
Ltmp927:
	.loc	23 0 2 is_stmt 0
	leaq	-8(%rbp), %rax
Ltmp928:
	.loc	6 263 21 is_stmt 1
	movq	%rax, -16(%rbp)
	leaq	-16(%rbp), %rax
Ltmp929:
	.loc	6 264 37
	movq	%rax, -24(%rbp)
	.loc	6 264 9 is_stmt 0
	leaq	__ZN79_$LT$crossbeam_epoch..default..COLLECTOR$u20$as$u20$core..ops..deref..Deref$GT$5deref11__stability4LAZY17h02b22fd1dc76269dE+8(%rip), %rdi
	leaq	l___unnamed_1(%rip), %rcx
	leaq	-24(%rbp), %rdx
	xorl	%esi, %esi
	callq	__ZN3std4sync4once4Once10call_inner17h78f35ea5a056ddbcE
Ltmp930:
	.loc	9 37 20 is_stmt 1
	movq	-8(%rbp), %rax
	.loc	9 38 17
	cmpq	$0, (%rax)
	jne	LBB51_3
Ltmp931:
LBB51_4:
	.loc	16 10 9
	leaq	l___unnamed_15(%rip), %rdi
	leaq	l___unnamed_16(%rip), %rdx
	movl	$66, %esi
	callq	__ZN4core9panicking5panic17h736ee47a631475c0E
Ltmp932:
Lfunc_end51:
	.cfi_endproc

	.globl	__ZN79_$LT$crossbeam_epoch..default..COLLECTOR$u20$as$u20$core..ops..deref..Deref$GT$5deref17h112a7c2883546d5aE
	.p2align	4, 0x90
__ZN79_$LT$crossbeam_epoch..default..COLLECTOR$u20$as$u20$core..ops..deref..Deref$GT$5deref17h112a7c2883546d5aE:
Lfunc_begin52:
	.loc	2 135 0
	.cfi_startproc
	pushq	%rbp
	.cfi_def_cfa_offset 16
	.cfi_offset %rbp, -16
	movq	%rsp, %rbp
	.cfi_def_cfa_register %rbp
	subq	$32, %rsp
	leaq	__ZN79_$LT$crossbeam_epoch..default..COLLECTOR$u20$as$u20$core..ops..deref..Deref$GT$5deref11__stability4LAZY17h02b22fd1dc76269dE(%rip), %rax
Ltmp933:
	movq	%rax, -8(%rbp)
Ltmp934:
	.loc	15 2275 20 prologue_end
	movq	__ZN79_$LT$crossbeam_epoch..default..COLLECTOR$u20$as$u20$core..ops..deref..Deref$GT$5deref11__stability4LAZY17h02b22fd1dc76269dE+8(%rip), %rax
Ltmp935:
	.loc	6 373 9
	cmpq	$3, %rax
Ltmp936:
	.loc	6 259 9
	jne	LBB52_1
Ltmp937:
	.loc	9 37 20
	movq	-8(%rbp), %rax
	.loc	9 38 17
	cmpq	$0, (%rax)
	je	LBB52_4
Ltmp938:
LBB52_3:
	.loc	2 145 14
	addq	$32, %rsp
	popq	%rbp
	retq
LBB52_1:
Ltmp939:
	.loc	2 0 14 is_stmt 0
	leaq	-8(%rbp), %rax
Ltmp940:
	.loc	6 263 21 is_stmt 1
	movq	%rax, -16(%rbp)
	leaq	-16(%rbp), %rax
Ltmp941:
	.loc	6 264 37
	movq	%rax, -24(%rbp)
	.loc	6 264 9 is_stmt 0
	leaq	__ZN79_$LT$crossbeam_epoch..default..COLLECTOR$u20$as$u20$core..ops..deref..Deref$GT$5deref11__stability4LAZY17h02b22fd1dc76269dE+8(%rip), %rdi
	leaq	l___unnamed_1(%rip), %rcx
	leaq	-24(%rbp), %rdx
	xorl	%esi, %esi
	callq	__ZN3std4sync4once4Once10call_inner17h78f35ea5a056ddbcE
Ltmp942:
	.loc	9 37 20 is_stmt 1
	movq	-8(%rbp), %rax
	.loc	9 38 17
	cmpq	$0, (%rax)
	jne	LBB52_3
Ltmp943:
LBB52_4:
	.loc	16 10 9
	leaq	l___unnamed_15(%rip), %rdi
	leaq	l___unnamed_16(%rip), %rdx
	movl	$66, %esi
	callq	__ZN4core9panicking5panic17h736ee47a631475c0E
Ltmp944:
Lfunc_end52:
	.cfi_endproc

	.globl	__ZN79_$LT$crossbeam_epoch..default..COLLECTOR$u20$as$u20$lazy_static..LazyStatic$GT$10initialize17h853298b8c5dcf916E
	.p2align	4, 0x90
__ZN79_$LT$crossbeam_epoch..default..COLLECTOR$u20$as$u20$lazy_static..LazyStatic$GT$10initialize17h853298b8c5dcf916E:
Lfunc_begin53:
	.loc	2 148 0
	.cfi_startproc
	pushq	%rbp
	.cfi_def_cfa_offset 16
	.cfi_offset %rbp, -16
	movq	%rsp, %rbp
	.cfi_def_cfa_register %rbp
	subq	$32, %rsp
	leaq	__ZN79_$LT$crossbeam_epoch..default..COLLECTOR$u20$as$u20$core..ops..deref..Deref$GT$5deref11__stability4LAZY17h02b22fd1dc76269dE(%rip), %rax
Ltmp945:
	movq	%rax, -8(%rbp)
Ltmp946:
	.loc	15 2275 20 prologue_end
	movq	__ZN79_$LT$crossbeam_epoch..default..COLLECTOR$u20$as$u20$core..ops..deref..Deref$GT$5deref11__stability4LAZY17h02b22fd1dc76269dE+8(%rip), %rax
Ltmp947:
	.loc	6 373 9
	cmpq	$3, %rax
Ltmp948:
	.loc	6 259 9
	jne	LBB53_1
Ltmp949:
	.loc	9 37 20
	movq	-8(%rbp), %rax
	.loc	9 38 17
	cmpq	$0, (%rax)
	je	LBB53_4
Ltmp950:
LBB53_3:
	.loc	2 150 14
	addq	$32, %rsp
	popq	%rbp
	retq
LBB53_1:
Ltmp951:
	.loc	2 0 14 is_stmt 0
	leaq	-8(%rbp), %rax
Ltmp952:
	.loc	6 263 21 is_stmt 1
	movq	%rax, -16(%rbp)
	leaq	-16(%rbp), %rax
Ltmp953:
	.loc	6 264 37
	movq	%rax, -24(%rbp)
	.loc	6 264 9 is_stmt 0
	leaq	__ZN79_$LT$crossbeam_epoch..default..COLLECTOR$u20$as$u20$core..ops..deref..Deref$GT$5deref11__stability4LAZY17h02b22fd1dc76269dE+8(%rip), %rdi
Ltmp954:
	leaq	l___unnamed_1(%rip), %rcx
	leaq	-24(%rbp), %rdx
	xorl	%esi, %esi
	callq	__ZN3std4sync4once4Once10call_inner17h78f35ea5a056ddbcE
Ltmp955:
	.loc	9 37 20 is_stmt 1
	movq	-8(%rbp), %rax
	.loc	9 38 17
	cmpq	$0, (%rax)
	jne	LBB53_3
Ltmp956:
LBB53_4:
	.loc	16 10 9
	leaq	l___unnamed_15(%rip), %rdi
	leaq	l___unnamed_16(%rip), %rdx
	movl	$66, %esi
	callq	__ZN4core9panicking5panic17h736ee47a631475c0E
Ltmp957:
Lfunc_end53:
	.cfi_endproc

	.globl	__ZN15crossbeam_epoch7default6HANDLE7__getit17h2a0a5f5d6ff0ab6eE
	.p2align	4, 0x90
__ZN15crossbeam_epoch7default6HANDLE7__getit17h2a0a5f5d6ff0ab6eE:
Lfunc_begin54:
	.loc	4 155 0
	.cfi_startproc
	pushq	%rbp
	.cfi_def_cfa_offset 16
	.cfi_offset %rbp, -16
	movq	%rsp, %rbp
	.cfi_def_cfa_register %rbp
Ltmp958:
	.loc	8 270 13 prologue_end
	movq	__ZN15crossbeam_epoch7default6HANDLE7__getit5__KEY17hcc8f729ef6673fa9E@TLVP(%rip), %rdi
	callq	*(%rdi)
	cmpq	$1, (%rax)
Ltmp959:
	.loc	24 409 17
	jne	LBB54_2
Ltmp960:
	.loc	4 176 14
	movq	__ZN15crossbeam_epoch7default6HANDLE7__getit5__KEY17hcc8f729ef6673fa9E@TLVP(%rip), %rdi
	callq	*(%rdi)
	addq	$8, %rax
	popq	%rbp
	retq
LBB54_2:
Ltmp961:
	.loc	24 410 25
	popq	%rbp
	jmp	__ZN3std6thread5local4fast12Key$LT$T$GT$14try_initialize17h89dccf104f9be1eaE
Ltmp962:
Lfunc_end54:
	.cfi_endproc

	.section	__TEXT,__const
l___unnamed_15:
	.ascii	"attempted to derefence an uninitialized lazy static. This is a bug"

l___unnamed_53:
	.ascii	"/rustc/a74d1862d4d87a56244958416fd05976c58ca1a8/src/libcore/macros/mod.rs"

	.section	__DATA,__const
	.p2align	3
l___unnamed_16:
	.quad	l___unnamed_53
	.asciz	"I\000\000\000\000\000\000\000\n\000\000\000\t\000\000"

	.p2align	3
l___unnamed_1:
	.quad	__ZN15crossbeam_epoch8deferred8Deferred3new4call17h8e504f3250704f70E
	.quad	8
	.quad	8
	.quad	__ZN3std4sync4once4Once9call_once28_$u7b$$u7b$closure$u7d$$u7d$17h6b42d7687990a723E
	.quad	__ZN4core3ops8function6FnOnce40call_once$u7b$$u7b$vtable.shim$u7d$$u7d$17hd6ef518425a0e723E

	.section	__TEXT,__const
l___unnamed_54:
	.ascii	"/rustc/a74d1862d4d87a56244958416fd05976c58ca1a8/src/libstd/sync/once.rs"

	.section	__DATA,__const
	.p2align	3
l___unnamed_14:
	.quad	l___unnamed_54
	.asciz	"G\000\000\000\000\000\000\000\b\001\000\000)\000\000"

	.p2align	3
l___unnamed_2:
	.quad	__ZN15crossbeam_epoch8deferred8Deferred3new4call17h8e504f3250704f70E
	.quad	16
	.quad	8
	.quad	__ZN91_$LT$std..panicking..begin_panic..PanicPayload$LT$A$GT$$u20$as$u20$core..panic..BoxMeUp$GT$8take_box17h7f351b69347e64efE
	.quad	__ZN91_$LT$std..panicking..begin_panic..PanicPayload$LT$A$GT$$u20$as$u20$core..panic..BoxMeUp$GT$3get17hd89d195487499c11E

	.p2align	3
l___unnamed_3:
	.quad	__ZN15crossbeam_epoch8deferred8Deferred3new4call17h8e504f3250704f70E
	.quad	8
	.quad	8
	.quad	__ZN42_$LT$$RF$T$u20$as$u20$core..fmt..Debug$GT$3fmt17hffb62337d847c63dE

	.section	__TEXT,__const
l___unnamed_13:
	.ascii	"called `Option::unwrap()` on a `None` value"

	.section	__DATA,__const
	.p2align	3
l___unnamed_4:
	.quad	__ZN15crossbeam_epoch8deferred8Deferred3new4call17h8e504f3250704f70E
	.quad	16
	.quad	8
	.quad	__ZN36_$LT$T$u20$as$u20$core..any..Any$GT$7type_id17haaf7a29962247829E

	.section	__TEXT,__const
l___unnamed_55:
	.ascii	"assertion failed: `(left == right)`\n  left: `"

l___unnamed_56:
	.ascii	"`,\n right: `"

l___unnamed_57:
	.ascii	"`: "

	.section	__DATA,__const
	.p2align	3
l___unnamed_44:
	.quad	l___unnamed_55
	.asciz	"-\000\000\000\000\000\000"
	.quad	l___unnamed_56
	.asciz	"\f\000\000\000\000\000\000"
	.quad	l___unnamed_57
	.asciz	"\003\000\000\000\000\000\000"

	.section	__TEXT,__const
l___unnamed_58:
	.ascii	"/Users/yingyuhang/.cargo/registry/src/github.com-1ecc6299db9ec823/crossbeam-epoch-0.8.2/src/atomic.rs"

	.p2align	4
_str.1:
	.ascii	"attempt to subtract with overflow"

l___unnamed_24:
	.ascii	"Atomic"

l___unnamed_25:
	.ascii	"raw"

	.section	__DATA,__const
	.p2align	3
l___unnamed_5:
	.quad	__ZN15crossbeam_epoch8deferred8Deferred3new4call17h8e504f3250704f70E
	.quad	8
	.quad	8
	.quad	__ZN50_$LT$$BP$mut$u20$T$u20$as$u20$core..fmt..Debug$GT$3fmt17h4f87a982fe64df63E

	.section	__TEXT,__const
l___unnamed_26:
	.ascii	"tag"

	.section	__DATA,__const
	.p2align	3
l___unnamed_6:
	.quad	__ZN15crossbeam_epoch8deferred8Deferred3new4call17h8e504f3250704f70E
	.quad	8
	.quad	8
	.quad	__ZN4core3fmt3num52_$LT$impl$u20$core..fmt..Debug$u20$for$u20$usize$GT$3fmt17hd9d2912101c14e43E

	.section	__TEXT,__const
l___unnamed_29:
	.ascii	"converting a null `Shared` into `Owned`"

	.section	__DATA,__const
	.p2align	3
l___unnamed_30:
	.quad	l___unnamed_58
	.asciz	"e\000\000\000\000\000\000\0004\004\000\000\t\000\000"

	.section	__TEXT,__literal16,16byte_literals
L___unnamed_35:
	.ascii	"Collector { .. }"

	.section	__TEXT,__const
l___unnamed_36:
	.ascii	"LocalHandle { .. }"

l___unnamed_27:
	.ascii	"Deferred { .. }"

l___unnamed_37:
	.ascii	"Guard { .. }"

	.globl	__ZN15crossbeam_epoch5guard11unprotected11UNPROTECTED17h14de8716a2bb7a89E
	.p2align	3
__ZN15crossbeam_epoch5guard11unprotected11UNPROTECTED17h14de8716a2bb7a89E:
	.space	8

l___unnamed_59:
	.ascii	"/Users/yingyuhang/.cargo/registry/src/github.com-1ecc6299db9ec823/crossbeam-epoch-0.8.2/src/internal.rs"

	.section	__DATA,__const
	.p2align	3
l___unnamed_40:
	.quad	l___unnamed_59
	.asciz	"g\000\000\000\000\000\000\000]\000\000\000\r\000\000"

	.section	__TEXT,__const
	.p2align	4
_str.2:
	.ascii	"attempt to add with overflow"

	.section	__DATA,__const
	.p2align	3
l___unnamed_28:
	.quad	l___unnamed_59
	.asciz	"g\000\000\000\000\000\000\000\306\000\000\000\036\000\000"

	.section	__TEXT,__const
l___unnamed_21:
	.ascii	"Bag"

l___unnamed_22:
	.ascii	"deferreds"

	.section	__DATA,__const
	.p2align	3
l___unnamed_23:
	.quad	l___unnamed_59
	.asciz	"g\000\000\000\000\000\000\000\322\000\000\000#\000\000"

	.p2align	3
l___unnamed_7:
	.quad	__ZN15crossbeam_epoch8deferred8Deferred3new4call17h8e504f3250704f70E
	.quad	16
	.quad	8
	.quad	__ZN42_$LT$$RF$T$u20$as$u20$core..fmt..Debug$GT$3fmt17h8659bb5ae60e7027E

	.section	__TEXT,__const
l___unnamed_60:
	.ascii	"participant was expected to be unpinned"

	.section	__DATA,__const
	.p2align	3
l___unnamed_43:
	.quad	l___unnamed_60
	.asciz	"'\000\000\000\000\000\000"

	.p2align	3
l___unnamed_45:
	.quad	l___unnamed_59
	.asciz	"g\000\000\000\000\000\000\000\340\001\000\000\021\000\000"

	.p2align	3
l___unnamed_31:
	.quad	l___unnamed_59
	.asciz	"g\000\000\000\000\000\000\000\374\001\000\000\036\000\000"

	.section	__TEXT,__const
l___unnamed_17:
	.ascii	"assertion failed: handle_count >= 1"

	.section	__DATA,__const
	.p2align	3
l___unnamed_18:
	.quad	l___unnamed_59
	.asciz	"g\000\000\000\000\000\000\000+\002\000\000\t\000\000"

	.section	__TEXT,__const
l___unnamed_61:
	.byte	96

	.section	__DATA,__const
	.p2align	3
l___unnamed_33:
	.quad	l___unnamed_55
	.asciz	"-\000\000\000\000\000\000"
	.quad	l___unnamed_56
	.asciz	"\f\000\000\000\000\000\000"
	.quad	l___unnamed_61
	.asciz	"\001\000\000\000\000\000\000"

	.p2align	3
l___unnamed_41:
	.quad	l___unnamed_59
	.asciz	"g\000\000\000\000\000\000\0006\002\000\000\t\000\000"

	.p2align	3
l___unnamed_42:
	.quad	l___unnamed_59
	.asciz	"g\000\000\000\000\000\000\0007\002\000\000\t\000\000"

	.section	__TEXT,__literal8,8byte_literals
	.p2align	3
L___unnamed_32:
	.asciz	"\001\000\000\000\000\000\000"

	.section	__TEXT,__const
l___unnamed_62:
	.ascii	"/Users/yingyuhang/.cargo/registry/src/github.com-1ecc6299db9ec823/crossbeam-epoch-0.8.2/src/sync/list.rs"

	.section	__DATA,__const
	.p2align	3
l___unnamed_34:
	.quad	l___unnamed_62
	.asciz	"h\000\000\000\000\000\000\000\342\000\000\000\021\000\000"

	.section	__TEXT,__const
l___unnamed_38:
	.ascii	"assertion failed: self.curr.tag() == 0"

	.section	__DATA,__const
	.p2align	3
l___unnamed_39:
	.quad	l___unnamed_62
	.asciz	"h\000\000\000\000\000\000\000\370\000\000\000\021\000\000"

	.section	__TEXT,__const
l___unnamed_19:
	.ascii	"Epoch"

	.section	__TEXT,__literal4,4byte_literals
L___unnamed_20:
	.ascii	"data"

	.section	__DATA,__const
	.p2align	3
l___unnamed_8:
	.quad	__ZN15crossbeam_epoch8deferred8Deferred3new4call17h8e504f3250704f70E
	.quad	8
	.quad	8
	.quad	__ZN42_$LT$$RF$T$u20$as$u20$core..fmt..Debug$GT$3fmt17ha63a1f7c3f271447E

	.section	__TEXT,__const
l___unnamed_46:
	.ascii	"AtomicEpoch"

	.section	__DATA,__const
	.p2align	3
l___unnamed_9:
	.quad	__ZN15crossbeam_epoch8deferred8Deferred3new4call17h8e504f3250704f70E
	.quad	8
	.quad	8
	.quad	__ZN42_$LT$$RF$T$u20$as$u20$core..fmt..Debug$GT$3fmt17had085dfe32e07f12E

	.section	__TEXT,__const
l___unnamed_47:
	.ascii	"SealedBag"

l___unnamed_48:
	.ascii	"epoch"

	.section	__DATA,__const
	.p2align	3
l___unnamed_10:
	.quad	__ZN15crossbeam_epoch8deferred8Deferred3new4call17h8e504f3250704f70E
	.quad	8
	.quad	8
	.quad	__ZN42_$LT$$RF$T$u20$as$u20$core..fmt..Debug$GT$3fmt17h27533dd386ea7918E

	.section	__TEXT,__const
l___unnamed_49:
	.ascii	"bag"

	.section	__DATA,__const
	.p2align	3
l___unnamed_11:
	.quad	__ZN15crossbeam_epoch8deferred8Deferred3new4call17h8e504f3250704f70E
	.quad	8
	.quad	8
	.quad	__ZN42_$LT$$RF$T$u20$as$u20$core..fmt..Debug$GT$3fmt17hca0678ccca5fd48fE

	.section	__TEXT,__const
l___unnamed_50:
	.ascii	"Entry"

	.section	__TEXT,__literal4,4byte_literals
L___unnamed_51:
	.ascii	"next"

	.section	__DATA,__const
	.p2align	3
l___unnamed_12:
	.quad	__ZN15crossbeam_epoch8deferred8Deferred3new4call17h8e504f3250704f70E
	.quad	8
	.quad	8
	.quad	__ZN42_$LT$$RF$T$u20$as$u20$core..fmt..Debug$GT$3fmt17hcec1b707a9dd9d1dE

	.section	__TEXT,__const
l___unnamed_52:
	.ascii	"Stalled"

	.globl	__ZN15crossbeam_epoch7default9COLLECTOR17haa275bceec3c53f3E
	.p2align	3
__ZN15crossbeam_epoch7default9COLLECTOR17haa275bceec3c53f3E:
	.byte	0

.zerofill __DATA,__bss,__ZN79_$LT$crossbeam_epoch..default..COLLECTOR$u20$as$u20$core..ops..deref..Deref$GT$5deref11__stability4LAZY17h02b22fd1dc76269dE,16,3
	.section	__DATA,__thread_bss,thread_local_zerofill
	.p2align	3
__ZN15crossbeam_epoch7default6HANDLE7__getit5__KEY17hcc8f729ef6673fa9E$tlv$init:
	.space	24

	.section	__DATA,__thread_vars,thread_local_variables
__ZN15crossbeam_epoch7default6HANDLE7__getit5__KEY17hcc8f729ef6673fa9E:
	.quad	__tlv_bootstrap
	.quad	0
	.quad	__ZN15crossbeam_epoch7default6HANDLE7__getit5__KEY17hcc8f729ef6673fa9E$tlv$init

	.section	__DATA,__const
Lsec_end0:
	.section	__TEXT,__const
Lsec_end1:
	.section	__DATA,__bss
Lsec_end2:
	.section	__TEXT,__text,regular,pure_instructions
Lsec_end3: