	.section	__TEXT,__text,regular,pure_instructions
	.macosx_version_min 10, 7
	.globl	__ZN67_$LT$crossbeam_queue..err..PopError$u20$as$u20$core..fmt..Debug$GT$3fmt17hb4b3cf986676717dE
	.p2align	4, 0x90
__ZN67_$LT$crossbeam_queue..err..PopError$u20$as$u20$core..fmt..Debug$GT$3fmt17hb4b3cf986676717dE:
Lfunc_begin0:
	.file	1 "/Users/yingyuhang/.cargo/registry/src/github.com-1ecc6299db9ec823/crossbeam-queue-0.2.3/src/err.rs"
	.loc	1 8 0
	.cfi_startproc
	pushq	%rbp
	.cfi_def_cfa_offset 16
	.cfi_offset %rbp, -16
	movq	%rsp, %rbp
	.cfi_def_cfa_register %rbp
	movq	%rsi, %rdx
Ltmp0:
	.loc	1 9 9 prologue_end
	leaq	L___unnamed_1(%rip), %rdi
Ltmp1:
	movl	$8, %esi
	popq	%rbp
	jmp	__ZN40_$LT$str$u20$as$u20$core..fmt..Debug$GT$3fmt17h5b42b6f497bd434cE
Ltmp2:
Lfunc_end0:
	.cfi_endproc

	.globl	__ZN69_$LT$crossbeam_queue..err..PopError$u20$as$u20$core..fmt..Display$GT$3fmt17h7770fa4e3b67bc77E
	.p2align	4, 0x90
__ZN69_$LT$crossbeam_queue..err..PopError$u20$as$u20$core..fmt..Display$GT$3fmt17h7770fa4e3b67bc77E:
Lfunc_begin1:
	.loc	1 14 0
	.cfi_startproc
	pushq	%rbp
	.cfi_def_cfa_offset 16
	.cfi_offset %rbp, -16
	movq	%rsp, %rbp
	.cfi_def_cfa_register %rbp
	movq	%rsi, %rdx
Ltmp3:
	.loc	1 15 9 prologue_end
	leaq	l___unnamed_2(%rip), %rdi
Ltmp4:
	movl	$27, %esi
	popq	%rbp
	jmp	__ZN42_$LT$str$u20$as$u20$core..fmt..Display$GT$3fmt17h6768afae62e94f93E
Ltmp5:
Lfunc_end1:
	.cfi_endproc

	.section	__TEXT,__literal8,8byte_literals
L___unnamed_1:
	.ascii	"PopError"

	.section	__TEXT,__const
l___unnamed_2:
	.ascii	"popping from an empty queue"

	.section	__TEXT,__text,regular,pure_instructions
Lsec_end0: