	.section	__TEXT,__text,regular,pure_instructions
	.macosx_version_min 10, 7
	.file	1 "/Users/yingyuhang/.cargo/registry/src/github.com-1ecc6299db9ec823/crossbeam-utils-0.7.2/src/atomic/atomic_cell.rs"
	.file	2 "/Users/yingyuhang/.cargo/registry/src/github.com-1ecc6299db9ec823/lazy_static-1.4.0/src/lib.rs"
	.file	3 "/Users/yingyuhang/.cargo/registry/src/github.com-1ecc6299db9ec823/lazy_static-1.4.0/src/inline_lazy.rs"
	.file	4 "/rustc/6c8927b0cf80ceee19386026cf9d7fd4fd9d486f/src/libstd/thread/local.rs"
	.p2align	4, 0x90
__ZN36_$LT$T$u20$as$u20$core..any..Any$GT$7type_id17h94d8176cf5647888E:
Lfunc_begin0:
	.file	5 "/rustc/6c8927b0cf80ceee19386026cf9d7fd4fd9d486f/src/libcore/any.rs"
	.loc	5 109 0
	.cfi_startproc
	pushq	%rbp
	.cfi_def_cfa_offset 16
	.cfi_offset %rbp, -16
	movq	%rsp, %rbp
	.cfi_def_cfa_register %rbp
	movabsq	$9147559743429524724, %rax
Ltmp0:
	.loc	5 111 6 prologue_end
	popq	%rbp
	retq
Ltmp1:
Lfunc_end0:
	.cfi_endproc

	.p2align	4, 0x90
__ZN3std4sync4once4Once9call_once28_$u7b$$u7b$closure$u7d$$u7d$17h186b1a697d76feb3E:
Lfunc_begin1:
	.file	6 "/rustc/6c8927b0cf80ceee19386026cf9d7fd4fd9d486f/src/libstd/sync/once.rs"
	.loc	6 265 0
	.cfi_startproc
	.cfi_personality 155, _rust_eh_personality
	.cfi_lsda 16, Lexception0
	pushq	%rbp
	.cfi_def_cfa_offset 16
	.cfi_offset %rbp, -16
	movq	%rsp, %rbp
	.cfi_def_cfa_register %rbp
Ltmp8:
	pushq	%r15
	pushq	%r14
	pushq	%rbx
	andq	$-32, %rsp
	subq	$224, %rsp
	.cfi_offset %rbx, -40
	.cfi_offset %r14, -32
	.cfi_offset %r15, -24
Ltmp9:
	.loc	6 265 41 prologue_end
	movq	(%rdi), %rcx
Ltmp10:
	.file	7 "/rustc/6c8927b0cf80ceee19386026cf9d7fd4fd9d486f/src/libcore/intrinsics.rs"
	.loc	7 2130 14
	movq	(%rcx), %rax
Ltmp11:
	.loc	7 2130 14 is_stmt 0
	movq	$0, (%rcx)
Ltmp12:
	.file	8 "/rustc/6c8927b0cf80ceee19386026cf9d7fd4fd9d486f/src/libcore/option.rs"
	.loc	8 385 13 is_stmt 1
	testq	%rax, %rax
	je	LBB1_20
Ltmp13:
	.file	9 "/Users/yingyuhang/.cargo/registry/src/github.com-1ecc6299db9ec823/lazy_static-1.4.0/src/inline_lazy.rs"
	.loc	9 31 13
	movq	(%rax), %rbx
Ltmp14:
	.file	10 "/rustc/6c8927b0cf80ceee19386026cf9d7fd4fd9d486f/src/libstd/thread/local.rs"
	.loc	10 262 32
	callq	__ZN3std11collections4hash3map11RandomState3new4KEYS7__getit17hce5f8c94222d2e27E
Ltmp15:
	.loc	10 262 82 is_stmt 0
	testq	%rax, %rax
	je	LBB1_21
Ltmp16:
	.file	11 "/rustc/6c8927b0cf80ceee19386026cf9d7fd4fd9d486f/src/libstd/collections/hash/map.rs"
	.loc	11 2483 28 is_stmt 1
	movdqu	(%rax), %xmm0
	movdqa	%xmm0, (%rsp)
Ltmp17:
	.file	12 "/rustc/6c8927b0cf80ceee19386026cf9d7fd4fd9d486f/src/libcore/num/mod.rs"
	.loc	12 3439 17
	movq	%xmm0, %rcx
	incq	%rcx
Ltmp18:
	.loc	7 2130 14
	movq	%rcx, (%rax)
Ltmp19:
	.file	13 "/Users/runner/.cargo/registry/src/github.com-1ecc6299db9ec823/hashbrown-0.6.2/src/raw/mod.rs"
	.loc	13 364 51
	callq	__ZN9hashbrown3raw4sse25Group12static_empty17h2e96e5fa45e5688dE
Ltmp20:
	.loc	13 0 51 is_stmt 0
	movaps	(%rsp), %xmm0
Ltmp21:
	.file	14 "/Users/yingyuhang/.cargo/registry/src/github.com-1ecc6299db9ec823/crossbeam-utils-0.7.2/src/sync/sharded_lock.rs"
	.loc	14 565 66 is_stmt 1
	movaps	%xmm0, 64(%rsp)
	movq	$0, 80(%rsp)
	movq	%rax, 88(%rsp)
	movq	$8, 96(%rsp)
	movq	$0, 104(%rsp)
	movq	$0, 112(%rsp)
	movq	$8, 120(%rsp)
	xorps	%xmm0, %xmm0
	movaps	%xmm0, 128(%rsp)
	movq	$0, 144(%rsp)
Ltmp22:
	.file	15 "/rustc/6c8927b0cf80ceee19386026cf9d7fd4fd9d486f/src/liballoc/alloc.rs"
	.loc	15 80 14
	movl	$64, %edi
	movl	$8, %esi
	callq	___rust_alloc
Ltmp23:
	.loc	15 278 9
	testq	%rax, %rax
Ltmp24:
	je	LBB1_22
Ltmp25:
	.file	16 "/rustc/6c8927b0cf80ceee19386026cf9d7fd4fd9d486f/src/libstd/sync/mutex.rs"
	.loc	16 0 0 is_stmt 0
	movq	%rax, %r15
Ltmp2:
	.loc	16 223 24 is_stmt 1
	movq	%rax, %rdi
	callq	__ZN3std10sys_common5mutex5Mutex3new17hfec750c2ce1161a9E
Ltmp3:
	.loc	16 223 20 is_stmt 0
	movq	%r15, 48(%rsp)
Ltmp5:
	.loc	16 224 21 is_stmt 1
	callq	__ZN3std10sys_common6poison4Flag3new17hd7ec4e2336668a12E
Ltmp6:
	.loc	16 222 21
	movq	%r15, 160(%rsp)
	movb	%al, 168(%rsp)
	movaps	64(%rsp), %xmm0
	movaps	80(%rsp), %xmm1
	movaps	%xmm1, 16(%rsp)
	movaps	96(%rsp), %xmm1
Ltmp26:
	.loc	16 0 21 is_stmt 0
	movaps	%xmm1, 192(%rsp)
	.loc	16 222 21
	movaps	112(%rsp), %xmm1
	movaps	%xmm1, (%rsp)
	movaps	%xmm0, 176(%rsp)
	movaps	128(%rsp), %xmm0
Ltmp27:
	.loc	16 0 21
	movaps	%xmm0, 32(%rsp)
Ltmp28:
	leaq	48(%rsp), %r14
Ltmp29:
	.file	17 "/rustc/6c8927b0cf80ceee19386026cf9d7fd4fd9d486f/src/libstd/sys/unix/mutex.rs"
	.loc	17 52 17 is_stmt 1
	movq	%r14, %rdi
	callq	_pthread_mutexattr_init
Ltmp30:
	.loc	17 54 17
	movq	%r14, %rdi
	xorl	%esi, %esi
	callq	_pthread_mutexattr_settype
Ltmp31:
	.loc	17 56 17
	movq	%r15, %rdi
	movq	%r14, %rsi
	callq	_pthread_mutex_init
Ltmp32:
	.loc	17 58 17
	movq	%r14, %rdi
	callq	_pthread_mutexattr_destroy
Ltmp33:
	.loc	9 31 24
	movaps	160(%rsp), %xmm0
	movaps	176(%rsp), %xmm1
Ltmp34:
	.loc	7 2130 14
	movups	%xmm1, 16(%rbx)
Ltmp35:
	.file	18 "/rustc/6c8927b0cf80ceee19386026cf9d7fd4fd9d486f/src/libcore/ptr/mod.rs"
	.loc	18 184 1
	movq	(%rbx), %r14
Ltmp36:
	.loc	7 2130 14
	movups	%xmm0, (%rbx)
Ltmp37:
	.loc	7 2130 14 is_stmt 0
	movups	32(%rbx), %xmm2
	movaps	16(%rsp), %xmm0
Ltmp38:
	.loc	7 2130 14
	movups	%xmm0, 32(%rbx)
	movaps	192(%rsp), %xmm0
	movups	%xmm0, 48(%rbx)
Ltmp39:
	.loc	7 2130 14
	movups	80(%rbx), %xmm1
	movdqu	64(%rbx), %xmm0
	movaps	(%rsp), %xmm3
Ltmp40:
	.loc	7 2130 14
	movups	%xmm3, 64(%rbx)
	movaps	32(%rsp), %xmm3
	movups	%xmm3, 80(%rbx)
Ltmp41:
	.loc	7 2130 14
	movq	$0, 96(%rbx)
Ltmp42:
	.loc	18 184 1 is_stmt 1
	testq	%r14, %r14
	je	LBB1_19
Ltmp43:
	.loc	18 0 1 is_stmt 0
	movaps	%xmm1, 32(%rsp)
	movdqa	%xmm0, (%rsp)
Ltmp44:
	.loc	17 78 17 is_stmt 1
	movq	%r14, %rdi
	movaps	%xmm2, 16(%rsp)
	callq	_pthread_mutex_destroy
Ltmp45:
	.loc	15 102 14
	movl	$64, %esi
	movl	$8, %edx
	movq	%r14, %rdi
	callq	___rust_dealloc
	movdqa	16(%rsp), %xmm0
Ltmp46:
	.loc	13 932 9
	movq	%xmm0, %rcx
	testq	%rcx, %rcx
Ltmp47:
	.loc	13 1037 9
	je	LBB1_15
Ltmp48:
	.loc	13 919 9
	leaq	1(%rcx), %rax
	movl	$16, %edx
Ltmp49:
	.file	19 "/rustc/6c8927b0cf80ceee19386026cf9d7fd4fd9d486f/src/libcore/alloc/layout.rs"
	.loc	19 286 85
	xorl	%esi, %esi
Ltmp50:
	.loc	12 3807 26
	mulq	%rdx
Ltmp51:
	.loc	19 286 85
	setno	%dl
Ltmp52:
	.loc	13 223 48
	jo	LBB1_8
Ltmp53:
	.loc	13 0 0 is_stmt 0
	movb	%dl, %sil
	shlq	$3, %rsi
Ltmp54:
	.loc	12 3462 17 is_stmt 1
	leaq	16(%rcx,%rsi), %rdx
Ltmp55:
	.loc	13 233 59
	addq	$17, %rcx
Ltmp56:
	.loc	19 248 72
	negq	%rsi
Ltmp57:
	.loc	19 248 30 is_stmt 0
	andq	%rdx, %rsi
Ltmp58:
	.loc	12 3462 17 is_stmt 1
	subq	%rcx, %rsi
Ltmp59:
	.loc	12 3751 30
	addq	%rcx, %rsi
Ltmp60:
	.loc	19 344 83
	jae	LBB1_13
Ltmp61:
LBB1_8:
	.loc	19 0 83 is_stmt 0
	xorl	%edx, %edx
	jmp	LBB1_14
Ltmp62:
LBB1_13:
	.loc	12 3751 30 is_stmt 1
	leaq	(%rsi,%rax), %rcx
Ltmp63:
	xorl	%edi, %edi
	cmpq	$-15, %rcx
	setb	%dil
Ltmp64:
	.loc	19 345 88
	shlq	$4, %rdi
	xorl	%edx, %edx
Ltmp65:
	.loc	12 3751 30
	addq	%rax, %rsi
Ltmp66:
	.loc	19 345 88
	cmovaeq	%rdi, %rdx
Ltmp67:
LBB1_14:
	.loc	13 427 17
	pshufd	$78, %xmm0, %xmm0
	movq	%xmm0, %rdi
Ltmp68:
	.loc	15 102 14
	callq	___rust_dealloc
Ltmp69:
LBB1_15:
	.loc	15 0 14 is_stmt 0
	movdqa	32(%rsp), %xmm0
Ltmp70:
	.loc	18 184 1 is_stmt 1
	movq	%xmm0, %rsi
Ltmp71:
	.file	20 "/rustc/6c8927b0cf80ceee19386026cf9d7fd4fd9d486f/src/liballoc/raw_vec.rs"
	.loc	20 235 40
	testq	%rsi, %rsi
	movdqa	(%rsp), %xmm0
	.loc	20 235 9 is_stmt 0
	je	LBB1_19
Ltmp72:
	.loc	18 0 0
	pshufd	$78, %xmm0, %xmm0
	movq	%xmm0, %rdi
Ltmp73:
	.loc	20 507 16 is_stmt 1
	testq	%rdi, %rdi
Ltmp74:
	je	LBB1_19
Ltmp75:
	.loc	20 0 0 is_stmt 0
	shlq	$3, %rsi
Ltmp76:
	.loc	20 507 16
	testq	%rsi, %rsi
	je	LBB1_19
Ltmp77:
	.loc	15 102 14 is_stmt 1
	movl	$8, %edx
	callq	___rust_dealloc
Ltmp78:
LBB1_19:
	.loc	6 265 60
	leaq	-24(%rbp), %rsp
	popq	%rbx
	popq	%r14
	popq	%r15
	popq	%rbp
	retq
LBB1_20:
Ltmp79:
	.file	21 "/rustc/6c8927b0cf80ceee19386026cf9d7fd4fd9d486f/src/libcore/macros/mod.rs"
	.loc	21 10 9
	leaq	l___unnamed_15(%rip), %rdi
Ltmp80:
	leaq	l___unnamed_16(%rip), %rdx
	movl	$43, %esi
Ltmp81:
	callq	__ZN4core9panicking5panic17h383a6b80ea7021aaE
Ltmp82:
LBB1_21:
	.file	22 "/rustc/6c8927b0cf80ceee19386026cf9d7fd4fd9d486f/src/libcore/result.rs"
	.loc	22 963 23
	leaq	l___unnamed_17(%rip), %rdi
Ltmp83:
	leaq	l___unnamed_3(%rip), %rcx
	leaq	l___unnamed_18(%rip), %r8
	leaq	64(%rsp), %rdx
	movl	$70, %esi
	callq	__ZN4core6result13unwrap_failed17hc193898ef513e81fE
Ltmp84:
LBB1_22:
	.loc	15 279 19
	movl	$64, %edi
	movl	$8, %esi
	callq	__ZN5alloc5alloc18handle_alloc_error17h28974197717b8939E
Ltmp85:
LBB1_11:
Ltmp7:
	.loc	15 0 19 is_stmt 0
	movq	%rax, %r14
	leaq	48(%rsp), %rdi
	.loc	16 226 9 is_stmt 1
	callq	__ZN4core3ptr13drop_in_place17ha6109a68f098ccf3E
	jmp	LBB1_10
LBB1_9:
Ltmp4:
	.loc	16 0 9 is_stmt 0
	movq	%rax, %r14
	.loc	16 223 40 is_stmt 1
	movq	%r15, %rdi
	callq	__ZN5alloc5alloc8box_free17h9af06c4ad689b187E
LBB1_10:
	.loc	16 0 40 is_stmt 0
	leaq	64(%rsp), %rdi
	.loc	16 231 5 is_stmt 1
	callq	__ZN4core3ptr13drop_in_place17h79a0186a3469e081E
	movq	%r14, %rdi
	callq	__Unwind_Resume
	ud2
Ltmp86:
Lfunc_end1:
	.cfi_endproc
	.file	23 "/rustc/6c8927b0cf80ceee19386026cf9d7fd4fd9d486f/src/libcore/mem/mod.rs"
	.file	24 "/rustc/6c8927b0cf80ceee19386026cf9d7fd4fd9d486f/src/libcore/ops/function.rs"
	.file	25 "/rustc/6c8927b0cf80ceee19386026cf9d7fd4fd9d486f/src/libcore/cell.rs"
	.file	26 "/Users/runner/.cargo/registry/src/github.com-1ecc6299db9ec823/hashbrown-0.6.2/src/map.rs"
	.file	27 "/rustc/6c8927b0cf80ceee19386026cf9d7fd4fd9d486f/src/libstd/sys_common/mutex.rs"
	.section	__TEXT,__gcc_except_tab
	.p2align	2
GCC_except_table1:
Lexception0:
	.byte	255
	.byte	255
	.byte	1
	.uleb128 Lcst_end0-Lcst_begin0
Lcst_begin0:
	.uleb128 Lfunc_begin1-Lfunc_begin1
	.uleb128 Ltmp2-Lfunc_begin1
	.byte	0
	.byte	0
	.uleb128 Ltmp2-Lfunc_begin1
	.uleb128 Ltmp3-Ltmp2
	.uleb128 Ltmp4-Lfunc_begin1
	.byte	0
	.uleb128 Ltmp5-Lfunc_begin1
	.uleb128 Ltmp6-Ltmp5
	.uleb128 Ltmp7-Lfunc_begin1
	.byte	0
	.uleb128 Ltmp6-Lfunc_begin1
	.uleb128 Lfunc_end1-Ltmp6
	.byte	0
	.byte	0
Lcst_end0:
	.p2align	2

	.section	__TEXT,__literal16,16byte_literals
	.p2align	4
LCPI2_0:
	.quad	8317987319222330741
	.quad	7816392313619706465
LCPI2_1:
	.quad	7237128888997146477
	.quad	8387220255154660723
	.section	__TEXT,__text,regular,pure_instructions
	.p2align	4, 0x90
__ZN3std6thread5local4fast12Key$LT$T$GT$14try_initialize17h36827d4dcad0b054E:
Lfunc_begin2:
	.loc	10 423 0
	.cfi_startproc
	.cfi_personality 155, _rust_eh_personality
	.cfi_lsda 16, Lexception1
	pushq	%rbp
	.cfi_def_cfa_offset 16
	.cfi_offset %rbp, -16
	movq	%rsp, %rbp
	.cfi_def_cfa_register %rbp
Ltmp98:
	pushq	%r15
	pushq	%r14
	pushq	%r13
	pushq	%r12
	pushq	%rbx
	subq	$136, %rsp
	.cfi_offset %rbx, -56
	.cfi_offset %r12, -48
	.cfi_offset %r13, -40
	.cfi_offset %r14, -32
	.cfi_offset %r15, -24
	.loc	25 431 18 prologue_end
	movq	__ZN15crossbeam_utils4sync12sharded_lock12REGISTRATION7__getit5__KEY17hd8f193a2e58e445bE@TLVP(%rip), %rdi
	callq	*(%rdi)
	movb	16(%rax), %al
Ltmp99:
	.loc	10 436 17
	testb	%al, %al
	je	LBB2_3
	cmpb	$1, %al
	je	LBB2_4
	.loc	10 0 17 is_stmt 0
	xorl	%eax, %eax
	jmp	LBB2_45
LBB2_3:
	.loc	10 438 21 is_stmt 1
	movq	__ZN15crossbeam_utils4sync12sharded_lock12REGISTRATION7__getit5__KEY17hd8f193a2e58e445bE@TLVP(%rip), %rdi
	callq	*(%rdi)
	movq	%rax, %rbx
Ltmp100:
	leaq	__ZN3std6thread5local4fast13destroy_value17hfd64a40c09205ddfE(%rip), %rsi
	movq	%rax, %rdi
	callq	__ZN3std3sys4unix17thread_local_dtor13register_dtor17hfef630bd7160c727E
Ltmp101:
	.loc	7 2130 14
	movb	$1, 16(%rbx)
Ltmp102:
LBB2_4:
	.loc	14 590 25
	callq	__ZN3std6thread7current17hf8ac76cb82c0f030E
	movq	%rax, -144(%rbp)
Ltmp87:
	leaq	-144(%rbp), %rdi
	callq	__ZN3std6thread6Thread2id17ha2e7bcf8baab4e8aE
Ltmp88:
	.loc	4 0 0 is_stmt 0
	movq	%rax, %rbx
Ltmp103:
	.file	28 "/rustc/6c8927b0cf80ceee19386026cf9d7fd4fd9d486f/src/liballoc/sync.rs"
	.loc	28 1350 12 is_stmt 1
	movq	-144(%rbp), %rax
Ltmp104:
	.file	29 "/rustc/6c8927b0cf80ceee19386026cf9d7fd4fd9d486f/src/libcore/sync/atomic.rs"
	.loc	29 2403 24
	lock		decq	(%rax)
Ltmp105:
	.loc	28 1350 9
	jne	LBB2_7
Ltmp106:
	.loc	29 2675 24
	##MEMBARRIER
	leaq	-144(%rbp), %rdi
Ltmp107:
	.loc	28 1385 13
	callq	__ZN5alloc4sync12Arc$LT$T$GT$9drop_slow17h04dcd272ba0d0fe0E
Ltmp108:
LBB2_7:
	.loc	28 0 13 is_stmt 0
	leaq	__ZN95_$LT$crossbeam_utils..sync..sharded_lock..THREAD_INDICES$u20$as$u20$core..ops..deref..Deref$GT$5deref11__stability4LAZY17h0876921dd0b7a4f7E(%rip), %rax
Ltmp109:
	movq	%rax, -48(%rbp)
Ltmp110:
	.loc	29 2355 24 is_stmt 1
	movq	__ZN95_$LT$crossbeam_utils..sync..sharded_lock..THREAD_INDICES$u20$as$u20$core..ops..deref..Deref$GT$5deref11__stability4LAZY17h0876921dd0b7a4f7E+104(%rip), %rax
Ltmp111:
	.loc	6 374 9
	cmpq	$3, %rax
Ltmp112:
	.loc	6 260 9
	jne	LBB2_8
Ltmp113:
	.loc	9 37 20
	movq	-48(%rbp), %r15
Ltmp114:
	.loc	9 38 17
	cmpq	$0, (%r15)
	je	LBB2_51
Ltmp115:
LBB2_10:
	.loc	16 273 13
	movq	(%r15), %rdi
Ltmp116:
	.loc	17 63 17
	callq	_pthread_mutex_lock
Ltmp117:
	.loc	29 2356 24
	movq	__ZN3std9panicking11panic_count18GLOBAL_PANIC_COUNT17h5754c1d48a496461E@GOTPCREL(%rip), %rax
Ltmp118:
	movq	(%rax), %rax
Ltmp119:
	.file	30 "/rustc/6c8927b0cf80ceee19386026cf9d7fd4fd9d486f/src/libstd/panicking.rs"
	.loc	30 262 12
	testq	%rax, %rax
	.loc	30 262 9 is_stmt 0
	jne	LBB2_12
Ltmp120:
	.loc	30 0 9
	xorl	%eax, %eax
Ltmp121:
	.loc	29 2356 24 is_stmt 1
	movb	8(%r15), %cl
Ltmp122:
	.loc	29 410 18
	testb	%cl, %cl
Ltmp123:
	.loc	22 1004 13
	jne	LBB2_14
Ltmp124:
LBB2_16:
	.loc	14 591 27
	movq	%r15, -160(%rbp)
	movb	%al, -152(%rbp)
Ltmp125:
	.file	31 "/rustc/6c8927b0cf80ceee19386026cf9d7fd4fd9d486f/src/liballoc/vec.rs"
	.loc	31 1229 12
	movq	88(%r15), %rdx
	testq	%rdx, %rdx
	movl	%eax, -60(%rbp)
	.loc	31 1229 9 is_stmt 0
	je	LBB2_18
Ltmp126:
	.loc	31 1233 17 is_stmt 1
	leaq	-1(%rdx), %rcx
	movq	%rcx, 88(%r15)
Ltmp127:
	.loc	31 818 19
	movq	72(%r15), %rcx
Ltmp128:
	.loc	31 1234 22
	movq	-8(%rcx,%rdx,8), %rax
Ltmp129:
	.loc	31 0 22 is_stmt 0
	movq	%rax, -56(%rbp)
Ltmp130:
	jmp	LBB2_20
Ltmp131:
LBB2_18:
	.loc	14 596 25 is_stmt 1
	movq	96(%r15), %rcx
Ltmp132:
	.loc	14 597 17
	movq	%rcx, %rdx
	incq	%rdx
	je	LBB2_48
Ltmp133:
	.loc	14 0 17 is_stmt 0
	movq	%rcx, -56(%rbp)
Ltmp134:
	.loc	14 597 17
	movq	%rdx, 96(%r15)
Ltmp135:
LBB2_20:
	.loc	26 850 24 is_stmt 1
	movq	16(%r15), %rax
	movq	24(%r15), %rcx
Ltmp136:
	.file	32 "/rustc/6c8927b0cf80ceee19386026cf9d7fd4fd9d486f/src/libcore/hash/sip.rs"
	.loc	32 219 9
	movq	%rax, %xmm0
	pshufd	$68, %xmm0, %xmm0
	pxor	LCPI2_0(%rip), %xmm0
	.loc	32 220 9
	movq	%rcx, %xmm1
	pshufd	$68, %xmm1, %xmm1
	pxor	LCPI2_1(%rip), %xmm1
Ltmp137:
	.loc	14 0 0 is_stmt 0
	leaq	16(%r15), %rdx
Ltmp138:
	movq	%rdx, -168(%rbp)
Ltmp139:
	.loc	11 2496 9 is_stmt 1
	movq	%rax, -144(%rbp)
	movq	%rcx, -136(%rbp)
	movq	$0, -128(%rbp)
	movdqu	%xmm0, -120(%rbp)
	movdqu	%xmm1, -104(%rbp)
	movq	$0, -88(%rbp)
	movq	$0, -80(%rbp)
	leaq	-144(%rbp), %rsi
	movq	%rbx, %r13
Ltmp140:
	.loc	26 202 5
	movq	%rbx, %rdi
	callq	__ZN58_$LT$std..thread..ThreadId$u20$as$u20$core..hash..Hash$GT$4hash17hc40d17ae6866d604E
Ltmp141:
	.loc	32 312 24
	movq	-128(%rbp), %rsi
Ltmp142:
	.loc	32 310 25
	movq	-104(%rbp), %r12
Ltmp143:
	.loc	32 312 22
	shlq	$56, %rsi
	orq	-88(%rbp), %rsi
	movq	-96(%rbp), %rax
	movq	-120(%rbp), %rcx
Ltmp144:
	.loc	12 3439 17
	addq	%r12, %rcx
Ltmp145:
	.loc	12 2763 17
	rolq	$13, %r12
Ltmp146:
	.loc	32 314 9
	xorq	%rsi, %rax
Ltmp147:
	.loc	32 85 35
	xorq	%rcx, %r12
Ltmp148:
	.loc	12 2763 17
	rolq	$32, %rcx
Ltmp149:
	.loc	12 0 17 is_stmt 0
	movq	-112(%rbp), %rdx
Ltmp150:
	.loc	12 3439 17 is_stmt 1
	addq	%rax, %rdx
Ltmp151:
	.loc	12 2763 17
	rolq	$16, %rax
Ltmp152:
	.loc	32 85 57
	xorq	%rdx, %rax
Ltmp153:
	.loc	12 3439 17
	addq	%rax, %rcx
Ltmp154:
	.loc	12 2763 17
	rolq	$21, %rax
Ltmp155:
	.loc	12 3439 17
	addq	%r12, %rdx
Ltmp156:
	.loc	12 2763 17
	rolq	$17, %r12
Ltmp157:
	.loc	32 85 35
	xorq	%rcx, %rax
Ltmp158:
	.loc	32 85 57 is_stmt 0
	xorq	%rdx, %r12
Ltmp159:
	.loc	12 2763 17 is_stmt 1
	rolq	$32, %rdx
Ltmp160:
	.loc	32 316 9
	xorq	%rsi, %rcx
Ltmp161:
	.loc	12 3439 17
	addq	%r12, %rcx
Ltmp162:
	.loc	12 2763 17
	rolq	$13, %r12
Ltmp163:
	.loc	32 85 35
	xorq	%rcx, %r12
Ltmp164:
	.loc	12 2763 17
	rolq	$32, %rcx
Ltmp165:
	.loc	32 318 9
	xorq	$255, %rdx
Ltmp166:
	.loc	12 3439 17
	addq	%rax, %rdx
Ltmp167:
	.loc	12 2763 17
	rolq	$16, %rax
Ltmp168:
	.loc	32 85 57
	xorq	%rdx, %rax
Ltmp169:
	.loc	12 3439 17
	addq	%rax, %rcx
Ltmp170:
	.loc	12 2763 17
	rolq	$21, %rax
Ltmp171:
	.loc	12 3439 17
	addq	%r12, %rdx
Ltmp172:
	.loc	12 2763 17
	rolq	$17, %r12
Ltmp173:
	.loc	32 85 57
	xorq	%rdx, %r12
Ltmp174:
	.loc	12 2763 17
	rolq	$32, %rdx
Ltmp175:
	.loc	32 85 35
	xorq	%rcx, %rax
Ltmp176:
	.loc	12 3439 17
	addq	%r12, %rcx
Ltmp177:
	.loc	12 2763 17
	rolq	$13, %r12
Ltmp178:
	.loc	32 85 35
	xorq	%rcx, %r12
Ltmp179:
	.loc	12 2763 17
	rolq	$32, %rcx
Ltmp180:
	.loc	12 3439 17
	addq	%rax, %rdx
Ltmp181:
	.loc	12 2763 17
	rolq	$16, %rax
Ltmp182:
	.loc	32 85 57
	xorq	%rdx, %rax
Ltmp183:
	.loc	12 3439 17
	addq	%rax, %rcx
Ltmp184:
	.loc	12 2763 17
	rolq	$21, %rax
Ltmp185:
	.loc	12 3439 17
	addq	%r12, %rdx
Ltmp186:
	.loc	12 2763 17
	rolq	$17, %r12
Ltmp187:
	.loc	32 85 57
	xorq	%rdx, %r12
Ltmp188:
	.loc	12 2763 17
	rolq	$32, %rdx
Ltmp189:
	.loc	32 85 35
	xorq	%rcx, %rax
Ltmp190:
	.loc	12 3439 17
	addq	%r12, %rcx
Ltmp191:
	.loc	12 2763 17
	rolq	$13, %r12
Ltmp192:
	.loc	12 3439 17
	addq	%rax, %rdx
Ltmp193:
	.loc	12 2763 17
	rolq	$16, %rax
Ltmp194:
	.loc	32 85 57
	xorq	%rdx, %rax
Ltmp195:
	.loc	12 2763 17
	rolq	$21, %rax
Ltmp196:
	.loc	32 85 35
	xorq	%rcx, %r12
Ltmp197:
	.loc	12 3439 17
	addq	%r12, %rdx
Ltmp198:
	.loc	12 2763 17
	rolq	$17, %r12
Ltmp199:
	.loc	32 321 9
	xorq	%rdx, %r12
Ltmp200:
	.loc	12 2763 17
	rolq	$32, %rdx
Ltmp201:
	.loc	32 85 35
	xorq	%rdx, %r12
Ltmp202:
	.loc	32 321 9
	xorq	%rax, %r12
Ltmp203:
	.loc	26 851 33
	leaq	32(%r15), %rsi
Ltmp204:
	.loc	13 490 26
	movq	32(%r15), %r9
Ltmp205:
	.loc	13 0 0 is_stmt 0
	movq	40(%r15), %r8
Ltmp206:
	movq	%r12, %r14
	shrq	$57, %r14
Ltmp207:
	movd	%r14d, %xmm0
	pxor	%xmm1, %xmm1
	pshufb	%xmm1, %xmm0
Ltmp208:
	movq	48(%r15), %rdx
Ltmp209:
	xorl	%r11d, %r11d
	pcmpeqd	%xmm1, %xmm1
	movq	%r12, %r10
Ltmp210:
LBB2_21:
	movq	%r10, %rax
	andq	%r9, %rax
Ltmp211:
	.loc	13 168 9 is_stmt 1
	leaq	16(%r11,%rax), %r10
Ltmp212:
	.loc	13 167 9
	addq	$16, %r11
Ltmp213:
	.loc	7 2130 14
	movdqu	(%r8,%rax), %xmm2
Ltmp214:
	.file	33 "/rustc/6c8927b0cf80ceee19386026cf9d7fd4fd9d486f/src/libcore/../stdarch/crates/core_arch/src/x86/sse2.rs"
	.loc	33 1401 5
	movdqa	%xmm0, %xmm3
	pcmpeqb	%xmm2, %xmm3
	pmovmskb	%xmm3, %ecx
Ltmp215:
LBB2_22:
	.file	34 "/Users/runner/.cargo/registry/src/github.com-1ecc6299db9ec823/hashbrown-0.6.2/src/raw/bitmask.rs"
	.loc	34 43 12
	testw	%cx, %cx
	.loc	34 43 9 is_stmt 0
	je	LBB2_23
Ltmp216:
	.loc	34 55 9 is_stmt 1
	bsfw	%cx, %bx
	movzwl	%bx, %ebx
Ltmp217:
	.loc	34 32 26
	leal	-1(%rcx), %edi
	.loc	34 32 17 is_stmt 0
	andl	%ecx, %edi
Ltmp218:
	.loc	13 885 33 is_stmt 1
	addq	%rax, %rbx
Ltmp219:
	andq	%r9, %rbx
Ltmp220:
	.loc	13 285 9
	shlq	$4, %rbx
Ltmp221:
	.loc	13 884 28
	movl	%edi, %ecx
Ltmp222:
	.loc	12 71 32
	cmpq	%r13, (%rdx,%rbx)
	je	LBB2_37
	jmp	LBB2_22
Ltmp223:
LBB2_23:
	.loc	33 1401 5
	pcmpeqb	%xmm1, %xmm2
	pmovmskb	%xmm2, %eax
Ltmp224:
	.loc	34 37 9
	testw	%ax, %ax
Ltmp225:
	.loc	13 891 17
	je	LBB2_21
Ltmp226:
	.loc	13 0 17 is_stmt 0
	movq	-168(%rbp), %rax
Ltmp227:
	.loc	26 854 36 is_stmt 1
	movq	%rax, -48(%rbp)
	xorl	%eax, %eax
Ltmp228:
	.loc	26 0 36 is_stmt 0
	movq	%r12, %rcx
Ltmp229:
	.p2align	4, 0x90
LBB2_25:
	movq	%rcx, %rdx
	andq	%r9, %rdx
Ltmp230:
	.loc	7 2130 14 is_stmt 1
	movdqu	(%r8,%rdx), %xmm0
Ltmp231:
	.loc	33 1401 5
	pmovmskb	%xmm0, %edi
Ltmp232:
	.loc	13 168 9
	leaq	16(%rax,%rdx), %rcx
	.loc	13 167 9
	addq	$16, %rax
Ltmp233:
	.loc	34 43 12
	testw	%di, %di
	.loc	34 43 9 is_stmt 0
	je	LBB2_25
Ltmp234:
	.loc	34 55 9 is_stmt 1
	bsfw	%di, %ax
	movzwl	%ax, %eax
Ltmp235:
	.loc	13 534 34
	addq	%rax, %rdx
Ltmp236:
	andq	%r9, %rdx
Ltmp237:
	.loc	13 545 41
	movb	(%r8,%rdx), %bl
Ltmp238:
	.loc	13 104 5
	testb	%bl, %bl
Ltmp239:
	.loc	13 545 21
	jns	LBB2_27
Ltmp240:
	.loc	13 117 5
	testb	$1, %bl
Ltmp241:
	.loc	13 840 25
	je	LBB2_35
Ltmp242:
LBB2_29:
	cmpq	$0, 56(%r15)
	jne	LBB2_35
Ltmp243:
Ltmp93:
	.loc	13 0 25 is_stmt 0
	leaq	-144(%rbp), %rdi
	leaq	-48(%rbp), %rdx
Ltmp244:
	.loc	13 626 13 is_stmt 1
	callq	__ZN9hashbrown3raw17RawTable$LT$T$GT$14reserve_rehash17h8ed41f17af701e71E
Ltmp245:
Ltmp94:
	.loc	13 490 26
	movq	32(%r15), %r9
Ltmp246:
	.loc	13 0 0 is_stmt 0
	movq	40(%r15), %r8
	xorl	%eax, %eax
Ltmp247:
	.p2align	4, 0x90
LBB2_32:
	movq	%r12, %rdx
	andq	%r9, %rdx
Ltmp248:
	.loc	7 2130 14 is_stmt 1
	movdqu	(%r8,%rdx), %xmm0
Ltmp249:
	.loc	33 1401 5
	pmovmskb	%xmm0, %ecx
Ltmp250:
	.loc	13 168 9
	leaq	16(%rax,%rdx), %r12
	.loc	13 167 9
	addq	$16, %rax
Ltmp251:
	.loc	34 43 12
	testw	%cx, %cx
	.loc	34 43 9 is_stmt 0
	je	LBB2_32
Ltmp252:
	.loc	34 55 9 is_stmt 1
	bsfw	%cx, %ax
	movzwl	%ax, %eax
Ltmp253:
	.loc	13 534 34
	addq	%rax, %rdx
Ltmp254:
	andq	%r9, %rdx
Ltmp255:
	.loc	13 104 5
	cmpb	$0, (%r8,%rdx)
Ltmp256:
	.loc	13 545 21
	jns	LBB2_34
Ltmp257:
LBB2_35:
	.loc	13 845 26
	movq	48(%r15), %rax
Ltmp258:
	.loc	13 285 9
	movq	%rdx, %rcx
	shlq	$4, %rcx
Ltmp259:
	.loc	13 846 13
	andb	$1, %bl
Ltmp260:
	negb	%bl
	movsbq	%bl, %rsi
	addq	%rsi, 56(%r15)
Ltmp261:
	.loc	12 3462 17
	leaq	-16(%rdx), %rsi
Ltmp262:
	.loc	13 518 22
	andq	%r9, %rsi
Ltmp263:
	.loc	13 520 9
	movb	%r14b, (%r8,%rdx)
Ltmp264:
	.loc	13 521 9
	movb	%r14b, 16(%rsi,%r8)
Ltmp265:
	.loc	18 901 51
	movq	%r13, (%rax,%rcx)
	movq	-56(%rbp), %rbx
Ltmp266:
	movq	%rbx, 8(%rax,%rcx)
Ltmp267:
	.loc	13 849 13
	incq	64(%r15)
Ltmp268:
	.loc	13 0 13 is_stmt 0
	jmp	LBB2_38
Ltmp269:
LBB2_37:
	addq	%rbx, %rdx
Ltmp270:
	movq	-56(%rbp), %rbx
Ltmp271:
	.loc	7 2130 14 is_stmt 1
	movq	%rbx, 8(%rdx)
Ltmp272:
LBB2_38:
	.file	35 "/rustc/6c8927b0cf80ceee19386026cf9d7fd4fd9d486f/src/libstd/sys_common/poison.rs"
	.loc	35 34 13
	cmpb	$0, -60(%rbp)
	.loc	35 34 12 is_stmt 0
	jne	LBB2_42
Ltmp273:
	.loc	29 2356 24 is_stmt 1
	movq	__ZN3std9panicking11panic_count18GLOBAL_PANIC_COUNT17h5754c1d48a496461E@GOTPCREL(%rip), %rax
Ltmp274:
	movq	(%rax), %rax
Ltmp275:
	.loc	30 262 12
	testq	%rax, %rax
	.loc	30 262 9 is_stmt 0
	jne	LBB2_40
Ltmp276:
LBB2_42:
	.loc	16 500 13 is_stmt 1
	movq	-160(%rbp), %rax
	movq	(%rax), %rdi
Ltmp277:
	.loc	17 68 17
	callq	_pthread_mutex_unlock
Ltmp278:
	.loc	7 2130 14
	movq	__ZN15crossbeam_utils4sync12sharded_lock12REGISTRATION7__getit5__KEY17hd8f193a2e58e445bE@TLVP(%rip), %rdi
	callq	*(%rdi)
	movdqu	(%rax), %xmm0
Ltmp279:
	.loc	7 2130 14 is_stmt 0
	movq	%rbx, (%rax)
	movq	%r13, 8(%rax)
Ltmp280:
	.loc	10 304 21 is_stmt 1
	movdqa	%xmm0, -144(%rbp)
Ltmp281:
	.loc	18 184 1
	pshufd	$78, %xmm0, %xmm0
	movq	%xmm0, %rax
	testq	%rax, %rax
	je	LBB2_44
Ltmp282:
	.loc	18 0 1 is_stmt 0
	leaq	-144(%rbp), %rdi
Ltmp283:
	.loc	18 184 1
	callq	__ZN91_$LT$crossbeam_utils..sync..sharded_lock..Registration$u20$as$u20$core..ops..drop..Drop$GT$4drop17hdc3741fc158b3357E
Ltmp284:
	.loc	10 312 17 is_stmt 1
	movq	__ZN15crossbeam_utils4sync12sharded_lock12REGISTRATION7__getit5__KEY17hd8f193a2e58e445bE@TLVP(%rip), %rdi
	callq	*(%rdi)
Ltmp285:
LBB2_44:
	.loc	10 0 17 is_stmt 0
	movq	__ZN15crossbeam_utils4sync12sharded_lock12REGISTRATION7__getit5__KEY17hd8f193a2e58e445bE@TLVP(%rip), %rdi
	callq	*(%rdi)
Ltmp286:
LBB2_45:
	.loc	10 429 10 is_stmt 1
	addq	$136, %rsp
	popq	%rbx
	popq	%r12
	popq	%r13
	popq	%r14
	popq	%r15
	popq	%rbp
	retq
LBB2_8:
Ltmp287:
	.loc	10 0 10 is_stmt 0
	leaq	-48(%rbp), %rax
Ltmp288:
	.loc	6 264 21 is_stmt 1
	movq	%rax, -160(%rbp)
	leaq	-160(%rbp), %rax
Ltmp289:
	.loc	6 265 37
	movq	%rax, -144(%rbp)
	.loc	6 265 9 is_stmt 0
	leaq	__ZN95_$LT$crossbeam_utils..sync..sharded_lock..THREAD_INDICES$u20$as$u20$core..ops..deref..Deref$GT$5deref11__stability4LAZY17h0876921dd0b7a4f7E+104(%rip), %rdi
	leaq	l___unnamed_1(%rip), %rcx
	leaq	-144(%rbp), %rdx
	xorl	%esi, %esi
	callq	__ZN3std4sync4once4Once10call_inner17hfcd38045e50af9d3E
Ltmp290:
	.loc	9 37 20 is_stmt 1
	movq	-48(%rbp), %r15
Ltmp291:
	.loc	9 38 17
	cmpq	$0, (%r15)
	jne	LBB2_10
Ltmp292:
LBB2_51:
	.loc	21 10 9
	leaq	l___unnamed_19(%rip), %rdi
	leaq	l___unnamed_20(%rip), %rdx
	movl	$66, %esi
	callq	__ZN4core9panicking5panic17h383a6b80ea7021aaE
Ltmp293:
LBB2_12:
	.loc	30 274 13
	callq	__ZN3std9panicking11panic_count17is_zero_slow_path17ha588394117c50e3dE
	xorb	$1, %al
Ltmp294:
	.loc	29 2356 24
	movb	8(%r15), %cl
Ltmp295:
	.loc	29 410 18
	testb	%cl, %cl
Ltmp296:
	.loc	22 1004 13
	je	LBB2_16
Ltmp297:
LBB2_14:
	.loc	22 1005 17
	movq	%r15, -144(%rbp)
	movb	%al, -136(%rbp)
Ltmp90:
Ltmp298:
	.loc	22 1005 23 is_stmt 0
	leaq	l___unnamed_21(%rip), %rdi
	leaq	l___unnamed_7(%rip), %rcx
	leaq	l___unnamed_22(%rip), %r8
	leaq	-144(%rbp), %rdx
	movl	$43, %esi
	callq	__ZN4core6result13unwrap_failed17hc193898ef513e81fE
Ltmp299:
Ltmp91:
	.loc	22 0 23
	jmp	LBB2_15
Ltmp300:
LBB2_40:
	.loc	30 274 13 is_stmt 1
	callq	__ZN3std9panicking11panic_count17is_zero_slow_path17ha588394117c50e3dE
Ltmp301:
	.loc	35 34 12
	testb	%al, %al
	jne	LBB2_42
Ltmp302:
	.loc	29 2342 24
	movb	$1, 8(%r15)
Ltmp303:
	.loc	29 0 24 is_stmt 0
	jmp	LBB2_42
Ltmp304:
LBB2_27:
	.loc	33 1204 5 is_stmt 1
	movdqa	(%r8), %xmm0
Ltmp305:
	.loc	33 1401 5
	pmovmskb	%xmm0, %eax
Ltmp306:
	.loc	34 55 9
	bsfw	%ax, %ax
Ltmp307:
	movzwl	%ax, %edx
Ltmp308:
	.loc	13 839 28
	movb	(%r8,%rdx), %bl
Ltmp309:
	.loc	13 117 5
	testb	$1, %bl
Ltmp310:
	.loc	13 840 25
	jne	LBB2_29
	jmp	LBB2_35
Ltmp311:
LBB2_34:
	.loc	33 1204 5
	movdqa	(%r8), %xmm0
Ltmp312:
	.loc	33 1401 5
	pmovmskb	%xmm0, %eax
Ltmp313:
	.loc	34 55 9
	bsfw	%ax, %ax
Ltmp314:
	movzwl	%ax, %edx
Ltmp315:
	.loc	34 0 9 is_stmt 0
	jmp	LBB2_35
Ltmp316:
LBB2_48:
Ltmp95:
	.loc	14 597 17 is_stmt 1
	leaq	_str.2(%rip), %rdi
	leaq	l___unnamed_23(%rip), %rdx
	movl	$28, %esi
	callq	__ZN4core9panicking5panic17h383a6b80ea7021aaE
Ltmp317:
Ltmp96:
LBB2_15:
	.loc	14 0 17 is_stmt 0
	ud2
Ltmp318:
LBB2_49:
Ltmp92:
	movq	%rax, %rbx
Ltmp319:
	leaq	-144(%rbp), %rdi
Ltmp320:
	.loc	22 1005 86 is_stmt 1
	callq	__ZN4core3ptr13drop_in_place17h13ded0c92087dc3fE
	jmp	LBB2_50
Ltmp321:
LBB2_47:
Ltmp97:
	.loc	22 0 86 is_stmt 0
	movq	%rax, %rbx
	leaq	-160(%rbp), %rdi
	.loc	14 607 5 is_stmt 1
	callq	__ZN4core3ptr13drop_in_place17h29db1abd71aafba2E
	jmp	LBB2_50
Ltmp322:
LBB2_46:
Ltmp89:
	.loc	14 0 5 is_stmt 0
	movq	%rax, %rbx
	leaq	-144(%rbp), %rdi
	.loc	14 590 47 is_stmt 1
	callq	__ZN4core3ptr13drop_in_place17h9bacaafb9a988c4fE
Ltmp323:
LBB2_50:
	.loc	14 0 47 is_stmt 0
	movq	%rbx, %rdi
	callq	__Unwind_Resume
	ud2
Lfunc_end2:
	.cfi_endproc
	.file	36 "/rustc/6c8927b0cf80ceee19386026cf9d7fd4fd9d486f/src/libstd/thread/mod.rs"
	.file	37 "/rustc/6c8927b0cf80ceee19386026cf9d7fd4fd9d486f/src/libcore/../stdarch/crates/core_arch/src/simd.rs"
	.file	38 "/Users/runner/.cargo/registry/src/github.com-1ecc6299db9ec823/hashbrown-0.6.2/src/raw/sse2.rs"
	.file	39 "/rustc/6c8927b0cf80ceee19386026cf9d7fd4fd9d486f/src/libcore/ptr/mut_ptr.rs"
	.section	__TEXT,__gcc_except_tab
	.p2align	2
GCC_except_table2:
Lexception1:
	.byte	255
	.byte	255
	.byte	1
	.uleb128 Lcst_end1-Lcst_begin1
Lcst_begin1:
	.uleb128 Lfunc_begin2-Lfunc_begin2
	.uleb128 Ltmp87-Lfunc_begin2
	.byte	0
	.byte	0
	.uleb128 Ltmp87-Lfunc_begin2
	.uleb128 Ltmp88-Ltmp87
	.uleb128 Ltmp89-Lfunc_begin2
	.byte	0
	.uleb128 Ltmp88-Lfunc_begin2
	.uleb128 Ltmp93-Ltmp88
	.byte	0
	.byte	0
	.uleb128 Ltmp93-Lfunc_begin2
	.uleb128 Ltmp94-Ltmp93
	.uleb128 Ltmp97-Lfunc_begin2
	.byte	0
	.uleb128 Ltmp94-Lfunc_begin2
	.uleb128 Ltmp90-Ltmp94
	.byte	0
	.byte	0
	.uleb128 Ltmp90-Lfunc_begin2
	.uleb128 Ltmp91-Ltmp90
	.uleb128 Ltmp92-Lfunc_begin2
	.byte	0
	.uleb128 Ltmp91-Lfunc_begin2
	.uleb128 Ltmp95-Ltmp91
	.byte	0
	.byte	0
	.uleb128 Ltmp95-Lfunc_begin2
	.uleb128 Ltmp96-Ltmp95
	.uleb128 Ltmp97-Lfunc_begin2
	.byte	0
	.uleb128 Ltmp96-Lfunc_begin2
	.uleb128 Lfunc_end2-Ltmp96
	.byte	0
	.byte	0
Lcst_end1:
	.p2align	2

	.section	__TEXT,__text,regular,pure_instructions
	.p2align	4, 0x90
__ZN3std6thread5local4fast13destroy_value17hfd64a40c09205ddfE:
Lfunc_begin3:
	.loc	10 451 0 is_stmt 1
	.cfi_startproc
	pushq	%rbp
	.cfi_def_cfa_offset 16
	.cfi_offset %rbp, -16
	movq	%rsp, %rbp
	.cfi_def_cfa_register %rbp
	subq	$16, %rsp
Ltmp324:
	.loc	7 2130 14 prologue_end
	movdqu	(%rdi), %xmm0
Ltmp325:
	.loc	7 2130 14 is_stmt 0
	movq	$0, 8(%rdi)
Ltmp326:
	.loc	7 2130 14
	movb	$2, 16(%rdi)
Ltmp327:
	.loc	7 0 14
	movdqa	%xmm0, -16(%rbp)
Ltmp328:
	.loc	18 184 1 is_stmt 1
	pshufd	$78, %xmm0, %xmm0
Ltmp329:
	movq	%xmm0, %rax
	testq	%rax, %rax
	je	LBB3_2
Ltmp330:
	.loc	18 0 1 is_stmt 0
	leaq	-16(%rbp), %rdi
Ltmp331:
	.loc	18 184 1
	callq	__ZN91_$LT$crossbeam_utils..sync..sharded_lock..Registration$u20$as$u20$core..ops..drop..Drop$GT$4drop17hdc3741fc158b3357E
Ltmp332:
LBB3_2:
	.loc	10 461 6 is_stmt 1
	addq	$16, %rsp
	popq	%rbp
	retq
Ltmp333:
Lfunc_end3:
	.cfi_endproc

	.p2align	4, 0x90
__ZN3std9panicking11begin_panic17h47b077c77685a7e7E:
Lfunc_begin4:
	.loc	30 451 0
	.cfi_startproc
	pushq	%rbp
	.cfi_def_cfa_offset 16
	.cfi_offset %rbp, -16
	movq	%rsp, %rbp
	.cfi_def_cfa_register %rbp
	subq	$16, %rsp
Ltmp334:
	.loc	30 456 31 prologue_end
	leaq	l___unnamed_24(%rip), %rax
	movq	%rax, -16(%rbp)
	movq	$28, -8(%rbp)
	.loc	30 456 61 is_stmt 0
	leaq	l___unnamed_25(%rip), %rdi
	callq	__ZN4core5panic8Location6caller17hb284bf0993c43fcaE
	.loc	30 456 5
	leaq	l___unnamed_2(%rip), %rsi
	leaq	-16(%rbp), %rdi
	xorl	%edx, %edx
	movq	%rax, %rcx
	callq	__ZN3std9panicking20rust_panic_with_hook17h720143ee15fc80baE
Ltmp335:
Lfunc_end4:
	.cfi_endproc

	.p2align	4, 0x90
__ZN41_$LT$bool$u20$as$u20$core..fmt..Debug$GT$3fmt17hdefd5ae208442b96E:
Lfunc_begin5:
	.file	40 "/rustc/6c8927b0cf80ceee19386026cf9d7fd4fd9d486f/src/libcore/fmt/mod.rs"
	.loc	40 2051 0 is_stmt 1
	.cfi_startproc
	pushq	%rbp
	.cfi_def_cfa_offset 16
	.cfi_offset %rbp, -16
	movq	%rsp, %rbp
	.cfi_def_cfa_register %rbp
Ltmp336:
	.loc	40 2052 9 prologue_end
	popq	%rbp
	jmp	__ZN43_$LT$bool$u20$as$u20$core..fmt..Display$GT$3fmt17hd78396651a24cfbbE
Ltmp337:
Lfunc_end5:
	.cfi_endproc

	.p2align	4, 0x90
__ZN42_$LT$$RF$T$u20$as$u20$core..fmt..Debug$GT$3fmt17hc45c2e9b08949244E:
Lfunc_begin6:
	.loc	40 2022 0
	.cfi_startproc
	pushq	%rbp
	.cfi_def_cfa_offset 16
	.cfi_offset %rbp, -16
	movq	%rsp, %rbp
	.cfi_def_cfa_register %rbp
Ltmp338:
	.loc	40 2022 71 prologue_end
	movq	(%rdi), %rdi
Ltmp339:
	.loc	40 2022 62 is_stmt 0
	popq	%rbp
	jmp	__ZN57_$LT$std..thread..Builder$u20$as$u20$core..fmt..Debug$GT$3fmt17h8872bdf6ff95f2d8E
Ltmp340:
Lfunc_end6:
	.cfi_endproc

	.p2align	4, 0x90
__ZN42_$LT$$RF$T$u20$as$u20$core..fmt..Debug$GT$3fmt17hdf75014c2a5442c9E:
Lfunc_begin7:
	.loc	40 2022 0 is_stmt 1
	.cfi_startproc
	pushq	%rbp
	.cfi_def_cfa_offset 16
	.cfi_offset %rbp, -16
	movq	%rsp, %rbp
	.cfi_def_cfa_register %rbp
	movq	%rsi, %rdi
Ltmp341:
	.file	41 "/Users/yingyuhang/.cargo/registry/src/github.com-1ecc6299db9ec823/crossbeam-utils-0.7.2/src/thread.rs"
	.loc	41 273 9 prologue_end
	leaq	l___unnamed_26(%rip), %rsi
	movl	$12, %edx
	popq	%rbp
	jmp	__ZN4core3fmt9Formatter3pad17h426409b23b74b394E
Ltmp342:
Lfunc_end7:
	.cfi_endproc

	.p2align	4, 0x90
__ZN42_$LT$$RF$T$u20$as$u20$core..fmt..Debug$GT$3fmt17hf694ae6cf49e3c4fE:
Lfunc_begin8:
	.loc	40 2022 0
	.cfi_startproc
	pushq	%rbp
	.cfi_def_cfa_offset 16
	.cfi_offset %rbp, -16
	movq	%rsp, %rbp
	.cfi_def_cfa_register %rbp
	pushq	%r14
	pushq	%rbx
	.cfi_offset %rbx, -32
	.cfi_offset %r14, -24
	movq	%rsi, %rbx
Ltmp343:
	.loc	40 2022 71 prologue_end
	movq	(%rdi), %r14
Ltmp344:
	.file	42 "/rustc/6c8927b0cf80ceee19386026cf9d7fd4fd9d486f/src/libcore/fmt/num.rs"
	.loc	42 149 20
	movq	%rsi, %rdi
Ltmp345:
	callq	__ZN4core3fmt9Formatter15debug_lower_hex17hd07f6fde8d0365dfE
	.loc	42 149 17 is_stmt 0
	testb	%al, %al
	je	LBB8_1
Ltmp346:
	.loc	42 150 21 is_stmt 1
	movq	%r14, %rdi
	movq	%rbx, %rsi
	popq	%rbx
Ltmp347:
	popq	%r14
Ltmp348:
	popq	%rbp
	jmp	__ZN4core3fmt3num55_$LT$impl$u20$core..fmt..LowerHex$u20$for$u20$usize$GT$3fmt17hc47c170655f2f8b1E
LBB8_1:
Ltmp349:
	.loc	42 151 27
	movq	%rbx, %rdi
	callq	__ZN4core3fmt9Formatter15debug_upper_hex17hf480c256a9c81c1eE
	.loc	42 154 21
	movq	%r14, %rdi
	movq	%rbx, %rsi
	.loc	42 151 24
	testb	%al, %al
	je	LBB8_4
Ltmp350:
	.loc	42 152 21
	popq	%rbx
Ltmp351:
	popq	%r14
Ltmp352:
	popq	%rbp
	jmp	__ZN4core3fmt3num55_$LT$impl$u20$core..fmt..UpperHex$u20$for$u20$usize$GT$3fmt17he5a77a1ce12f6c22E
LBB8_4:
Ltmp353:
	.loc	42 154 21
	popq	%rbx
Ltmp354:
	popq	%r14
Ltmp355:
	popq	%rbp
	jmp	__ZN4core3fmt3num3imp54_$LT$impl$u20$core..fmt..Display$u20$for$u20$usize$GT$3fmt17h12ea2856299c9b06E
Ltmp356:
Lfunc_end8:
	.cfi_endproc

	.p2align	4, 0x90
__ZN4core3fmt3num50_$LT$impl$u20$core..fmt..Debug$u20$for$u20$u32$GT$3fmt17h1ea6d626882ea7ffE:
Lfunc_begin9:
	.loc	42 148 0
	.cfi_startproc
	pushq	%rbp
	.cfi_def_cfa_offset 16
	.cfi_offset %rbp, -16
	movq	%rsp, %rbp
	.cfi_def_cfa_register %rbp
	pushq	%r14
	pushq	%rbx
	.cfi_offset %rbx, -32
	.cfi_offset %r14, -24
	movq	%rsi, %rbx
	movq	%rdi, %r14
Ltmp357:
	.loc	42 149 20 prologue_end
	movq	%rsi, %rdi
	callq	__ZN4core3fmt9Formatter15debug_lower_hex17hd07f6fde8d0365dfE
	.loc	42 149 17 is_stmt 0
	testb	%al, %al
	je	LBB9_1
Ltmp358:
	.loc	42 150 21 is_stmt 1
	movq	%r14, %rdi
	movq	%rbx, %rsi
	popq	%rbx
Ltmp359:
	popq	%r14
Ltmp360:
	popq	%rbp
	jmp	__ZN4core3fmt3num53_$LT$impl$u20$core..fmt..LowerHex$u20$for$u20$u32$GT$3fmt17h019ba2b9dd60d385E
LBB9_1:
Ltmp361:
	.loc	42 151 27
	movq	%rbx, %rdi
	callq	__ZN4core3fmt9Formatter15debug_upper_hex17hf480c256a9c81c1eE
	.loc	42 154 21
	movq	%r14, %rdi
	movq	%rbx, %rsi
	.loc	42 151 24
	testb	%al, %al
	je	LBB9_4
Ltmp362:
	.loc	42 152 21
	popq	%rbx
Ltmp363:
	popq	%r14
Ltmp364:
	popq	%rbp
	jmp	__ZN4core3fmt3num53_$LT$impl$u20$core..fmt..UpperHex$u20$for$u20$u32$GT$3fmt17h7bd10b5f3c9584f1E
LBB9_4:
Ltmp365:
	.loc	42 154 21
	popq	%rbx
Ltmp366:
	popq	%r14
Ltmp367:
	popq	%rbp
	jmp	__ZN4core3fmt3num3imp52_$LT$impl$u20$core..fmt..Display$u20$for$u20$u32$GT$3fmt17hb70882cf65fd1a66E
Ltmp368:
Lfunc_end9:
	.cfi_endproc

	.p2align	4, 0x90
__ZN4core3fmt3num52_$LT$impl$u20$core..fmt..Debug$u20$for$u20$usize$GT$3fmt17h3ce1e8eb3a3c5c0bE:
Lfunc_begin10:
	.loc	42 148 0
	.cfi_startproc
	pushq	%rbp
	.cfi_def_cfa_offset 16
	.cfi_offset %rbp, -16
	movq	%rsp, %rbp
	.cfi_def_cfa_register %rbp
	pushq	%r14
	pushq	%rbx
	.cfi_offset %rbx, -32
	.cfi_offset %r14, -24
	movq	%rsi, %rbx
	movq	%rdi, %r14
Ltmp369:
	.loc	42 149 20 prologue_end
	movq	%rsi, %rdi
	callq	__ZN4core3fmt9Formatter15debug_lower_hex17hd07f6fde8d0365dfE
	.loc	42 149 17 is_stmt 0
	testb	%al, %al
	je	LBB10_1
Ltmp370:
	.loc	42 150 21 is_stmt 1
	movq	%r14, %rdi
	movq	%rbx, %rsi
	popq	%rbx
Ltmp371:
	popq	%r14
Ltmp372:
	popq	%rbp
	jmp	__ZN4core3fmt3num55_$LT$impl$u20$core..fmt..LowerHex$u20$for$u20$usize$GT$3fmt17hc47c170655f2f8b1E
LBB10_1:
Ltmp373:
	.loc	42 151 27
	movq	%rbx, %rdi
	callq	__ZN4core3fmt9Formatter15debug_upper_hex17hf480c256a9c81c1eE
	.loc	42 154 21
	movq	%r14, %rdi
	movq	%rbx, %rsi
	.loc	42 151 24
	testb	%al, %al
	je	LBB10_4
Ltmp374:
	.loc	42 152 21
	popq	%rbx
Ltmp375:
	popq	%r14
Ltmp376:
	popq	%rbp
	jmp	__ZN4core3fmt3num55_$LT$impl$u20$core..fmt..UpperHex$u20$for$u20$usize$GT$3fmt17he5a77a1ce12f6c22E
LBB10_4:
Ltmp377:
	.loc	42 154 21
	popq	%rbx
Ltmp378:
	popq	%r14
Ltmp379:
	popq	%rbp
	jmp	__ZN4core3fmt3num3imp54_$LT$impl$u20$core..fmt..Display$u20$for$u20$usize$GT$3fmt17h12ea2856299c9b06E
Ltmp380:
Lfunc_end10:
	.cfi_endproc

	.p2align	4, 0x90
__ZN4core3ops8function6FnOnce40call_once$u7b$$u7b$vtable.shim$u7d$$u7d$17h16a331edccfec74aE:
Lfunc_begin11:
	.loc	24 233 0
	.cfi_startproc
	pushq	%rbp
	.cfi_def_cfa_offset 16
	.cfi_offset %rbp, -16
	movq	%rsp, %rbp
	.cfi_def_cfa_register %rbp
	subq	$16, %rsp
Ltmp381:
	.loc	24 233 5 prologue_end
	movq	(%rdi), %rax
Ltmp382:
	.loc	24 0 5 is_stmt 0
	movq	%rax, -8(%rbp)
Ltmp383:
	leaq	-8(%rbp), %rdi
Ltmp384:
	.loc	24 233 5
	callq	__ZN3std4sync4once4Once9call_once28_$u7b$$u7b$closure$u7d$$u7d$17h186b1a697d76feb3E
Ltmp385:
	.loc	24 233 5
	addq	$16, %rsp
	popq	%rbp
	retq
Ltmp386:
Lfunc_end11:
	.cfi_endproc

	.p2align	4, 0x90
__ZN4core3ptr13drop_in_place17h0be3a3c15b4bc481E:
Lfunc_begin12:
	.loc	18 184 0 is_stmt 1
	.cfi_startproc
	pushq	%rbp
	.cfi_def_cfa_offset 16
	.cfi_offset %rbp, -16
	movq	%rsp, %rbp
	.cfi_def_cfa_register %rbp
Ltmp387:
	.loc	18 184 1 prologue_end
	popq	%rbp
	retq
Ltmp388:
Lfunc_end12:
	.cfi_endproc

	.p2align	4, 0x90
__ZN4core3ptr13drop_in_place17h13ded0c92087dc3fE:
Lfunc_begin13:
	.loc	18 184 0
	.cfi_startproc
	pushq	%rbp
	.cfi_def_cfa_offset 16
	.cfi_offset %rbp, -16
	movq	%rsp, %rbp
	.cfi_def_cfa_register %rbp
	pushq	%r14
	pushq	%rbx
	.cfi_offset %rbx, -32
	.cfi_offset %r14, -24
	movq	%rdi, %rbx
Ltmp389:
	.loc	35 34 13 prologue_end
	cmpb	$0, 8(%rdi)
	.loc	35 34 12 is_stmt 0
	jne	LBB13_4
Ltmp390:
	.loc	16 0 0
	movq	(%rbx), %r14
Ltmp391:
	.loc	29 2356 24 is_stmt 1
	movq	__ZN3std9panicking11panic_count18GLOBAL_PANIC_COUNT17h5754c1d48a496461E@GOTPCREL(%rip), %rax
Ltmp392:
	movq	(%rax), %rax
Ltmp393:
	.loc	30 262 12
	testq	%rax, %rax
	.loc	30 262 9 is_stmt 0
	jne	LBB13_2
Ltmp394:
LBB13_4:
	.loc	16 500 13 is_stmt 1
	movq	(%rbx), %rax
	movq	(%rax), %rdi
Ltmp395:
	.loc	17 68 17
	popq	%rbx
Ltmp396:
	popq	%r14
	popq	%rbp
	jmp	_pthread_mutex_unlock
Ltmp397:
LBB13_2:
	.loc	30 274 13
	callq	__ZN3std9panicking11panic_count17is_zero_slow_path17ha588394117c50e3dE
Ltmp398:
	.loc	35 34 12
	testb	%al, %al
	jne	LBB13_4
Ltmp399:
	.loc	29 2342 24
	movb	$1, 8(%r14)
	jmp	LBB13_4
Ltmp400:
Lfunc_end13:
	.cfi_endproc

	.p2align	4, 0x90
__ZN4core3ptr13drop_in_place17h29db1abd71aafba2E:
Lfunc_begin14:
	.loc	18 184 0
	.cfi_startproc
	pushq	%rbp
	.cfi_def_cfa_offset 16
	.cfi_offset %rbp, -16
	movq	%rsp, %rbp
	.cfi_def_cfa_register %rbp
	pushq	%r14
	pushq	%rbx
	.cfi_offset %rbx, -32
	.cfi_offset %r14, -24
	movq	%rdi, %rbx
Ltmp401:
	.loc	35 34 13 prologue_end
	cmpb	$0, 8(%rdi)
	.loc	35 34 12 is_stmt 0
	jne	LBB14_4
Ltmp402:
	.loc	16 0 0
	movq	(%rbx), %r14
Ltmp403:
	.loc	29 2356 24 is_stmt 1
	movq	__ZN3std9panicking11panic_count18GLOBAL_PANIC_COUNT17h5754c1d48a496461E@GOTPCREL(%rip), %rax
Ltmp404:
	movq	(%rax), %rax
Ltmp405:
	.loc	30 262 12
	testq	%rax, %rax
	.loc	30 262 9 is_stmt 0
	jne	LBB14_2
Ltmp406:
LBB14_4:
	.loc	16 500 13 is_stmt 1
	movq	(%rbx), %rax
	movq	(%rax), %rdi
Ltmp407:
	.loc	17 68 17
	popq	%rbx
Ltmp408:
	popq	%r14
	popq	%rbp
	jmp	_pthread_mutex_unlock
Ltmp409:
LBB14_2:
	.loc	30 274 13
	callq	__ZN3std9panicking11panic_count17is_zero_slow_path17ha588394117c50e3dE
Ltmp410:
	.loc	35 34 12
	testb	%al, %al
	jne	LBB14_4
Ltmp411:
	.loc	29 2342 24
	movb	$1, 8(%r14)
	jmp	LBB14_4
Ltmp412:
Lfunc_end14:
	.cfi_endproc

	.p2align	4, 0x90
__ZN4core3ptr13drop_in_place17h33e995d73094b149E:
Lfunc_begin15:
	.loc	18 184 0
	.cfi_startproc
	pushq	%rbp
	.cfi_def_cfa_offset 16
	.cfi_offset %rbp, -16
	movq	%rsp, %rbp
	.cfi_def_cfa_register %rbp
Ltmp413:
	.loc	18 184 1 prologue_end
	movq	(%rdi), %rdi
Ltmp414:
	.loc	15 102 14
	movl	$48, %esi
	movl	$8, %edx
	popq	%rbp
	jmp	___rust_dealloc
Ltmp415:
Lfunc_end15:
	.cfi_endproc

	.p2align	4, 0x90
__ZN4core3ptr13drop_in_place17h63e0ef2b98867c39E:
Lfunc_begin16:
	.loc	18 184 0
	.cfi_startproc
	pushq	%rbp
	.cfi_def_cfa_offset 16
	.cfi_offset %rbp, -16
	movq	%rsp, %rbp
	.cfi_def_cfa_register %rbp
	pushq	%rbx
	pushq	%rax
	.cfi_offset %rbx, -24
	movq	%rdi, %rbx
Ltmp416:
	.loc	16 427 18 prologue_end
	movq	(%rdi), %rdi
Ltmp417:
	.loc	17 78 17
	callq	_pthread_mutex_destroy
Ltmp418:
	.loc	18 184 1
	movq	(%rbx), %rdi
Ltmp419:
	.loc	15 102 14
	movl	$64, %esi
	movl	$8, %edx
	addq	$8, %rsp
	popq	%rbx
Ltmp420:
	popq	%rbp
	jmp	___rust_dealloc
Ltmp421:
Lfunc_end16:
	.cfi_endproc

	.p2align	4, 0x90
__ZN4core3ptr13drop_in_place17h6ac4381e58d04a12E:
Lfunc_begin17:
	.loc	18 184 0
	.cfi_startproc
	pushq	%rbp
	.cfi_def_cfa_offset 16
	.cfi_offset %rbp, -16
	movq	%rsp, %rbp
	.cfi_def_cfa_register %rbp
	pushq	%rbx
	pushq	%rax
	.cfi_offset %rbx, -24
	movq	%rdi, %rbx
Ltmp422:
	.loc	13 716 61 prologue_end
	movq	(%rdi), %rax
	movq	(%rax), %rdi
	.loc	13 716 37 is_stmt 0
	callq	__ZN9hashbrown3raw23bucket_mask_to_capacity17h0acd005f12c39704E
	.loc	13 716 82
	movq	(%rbx), %rcx
	.loc	13 716 17
	subq	32(%rcx), %rax
	movq	%rax, 24(%rcx)
Ltmp423:
	.loc	18 184 1 is_stmt 1
	addq	$8, %rsp
	popq	%rbx
Ltmp424:
	popq	%rbp
	retq
Ltmp425:
Lfunc_end17:
	.cfi_endproc
	.file	43 "/Users/runner/.cargo/registry/src/github.com-1ecc6299db9ec823/hashbrown-0.6.2/src/scopeguard.rs"

	.p2align	4, 0x90
__ZN4core3ptr13drop_in_place17h79a0186a3469e081E:
Lfunc_begin18:
	.loc	18 184 0
	.cfi_startproc
	pushq	%rbp
	.cfi_def_cfa_offset 16
	.cfi_offset %rbp, -16
	movq	%rsp, %rbp
	.cfi_def_cfa_register %rbp
	pushq	%rbx
	pushq	%rax
	.cfi_offset %rbx, -24
	movq	%rdi, %rbx
Ltmp426:
	.loc	13 932 9 prologue_end
	movq	16(%rdi), %rcx
	testq	%rcx, %rcx
Ltmp427:
	.loc	13 1037 9
	je	LBB18_6
Ltmp428:
	.loc	13 919 9
	leaq	1(%rcx), %rax
	movl	$16, %edx
Ltmp429:
	.loc	19 286 85
	xorl	%esi, %esi
Ltmp430:
	.loc	12 3807 26
	mulq	%rdx
Ltmp431:
	.loc	19 286 85
	setno	%dl
Ltmp432:
	.loc	13 223 48
	jo	LBB18_2
Ltmp433:
	.loc	13 0 0 is_stmt 0
	movb	%dl, %sil
	shlq	$3, %rsi
Ltmp434:
	.loc	12 3462 17 is_stmt 1
	leaq	16(%rcx,%rsi), %rdx
Ltmp435:
	.loc	13 233 59
	addq	$17, %rcx
Ltmp436:
	.loc	19 248 72
	negq	%rsi
Ltmp437:
	.loc	19 248 30 is_stmt 0
	andq	%rdx, %rsi
Ltmp438:
	.loc	12 3462 17 is_stmt 1
	subq	%rcx, %rsi
Ltmp439:
	.loc	12 3751 30
	addq	%rcx, %rsi
Ltmp440:
	.loc	19 344 83
	jae	LBB18_4
Ltmp441:
LBB18_2:
	.loc	19 0 83 is_stmt 0
	xorl	%edx, %edx
	jmp	LBB18_5
Ltmp442:
LBB18_4:
	.loc	12 3751 30 is_stmt 1
	leaq	(%rsi,%rax), %rcx
Ltmp443:
	xorl	%edi, %edi
	cmpq	$-15, %rcx
	setb	%dil
Ltmp444:
	.loc	19 345 88
	shlq	$4, %rdi
	xorl	%edx, %edx
Ltmp445:
	.loc	12 3751 30
	addq	%rax, %rsi
Ltmp446:
	.loc	19 345 88
	cmovaeq	%rdi, %rdx
Ltmp447:
LBB18_5:
	.loc	13 427 17
	movq	24(%rbx), %rdi
Ltmp448:
	.loc	15 102 14
	callq	___rust_dealloc
Ltmp449:
LBB18_6:
	.loc	18 184 1
	movq	64(%rbx), %rsi
Ltmp450:
	.loc	20 235 40
	testq	%rsi, %rsi
	.loc	20 235 9 is_stmt 0
	je	LBB18_9
Ltmp451:
	.loc	18 0 0
	movq	56(%rbx), %rdi
Ltmp452:
	.loc	20 507 16 is_stmt 1
	testq	%rdi, %rdi
Ltmp453:
	je	LBB18_9
Ltmp454:
	.loc	20 0 0 is_stmt 0
	shlq	$3, %rsi
Ltmp455:
	.loc	20 507 16
	testq	%rsi, %rsi
	je	LBB18_9
Ltmp456:
	.loc	15 102 14 is_stmt 1
	movl	$8, %edx
	addq	$8, %rsp
	popq	%rbx
Ltmp457:
	popq	%rbp
	jmp	___rust_dealloc
Ltmp458:
LBB18_9:
	.loc	18 184 1
	addq	$8, %rsp
	popq	%rbx
Ltmp459:
	popq	%rbp
	retq
Ltmp460:
Lfunc_end18:
	.cfi_endproc

	.p2align	4, 0x90
__ZN4core3ptr13drop_in_place17h94b246ca8185e218E:
Lfunc_begin19:
	.loc	18 184 0
	.cfi_startproc
	pushq	%rbp
	.cfi_def_cfa_offset 16
	.cfi_offset %rbp, -16
	movq	%rsp, %rbp
	.cfi_def_cfa_register %rbp
Ltmp461:
	.loc	28 1350 12 prologue_end
	movq	(%rdi), %rax
Ltmp462:
	.loc	29 2403 24
	lock		decq	(%rax)
Ltmp463:
	.loc	28 1350 9
	jne	LBB19_1
Ltmp464:
	.loc	29 2675 24
	##MEMBARRIER
Ltmp465:
	.loc	28 1385 13
	popq	%rbp
	jmp	__ZN5alloc4sync12Arc$LT$T$GT$9drop_slow17h019c21a206d95406E
Ltmp466:
LBB19_1:
	.loc	18 184 1
	popq	%rbp
	retq
Ltmp467:
Lfunc_end19:
	.cfi_endproc

	.p2align	4, 0x90
__ZN4core3ptr13drop_in_place17h9bacaafb9a988c4fE:
Lfunc_begin20:
	.loc	18 184 0
	.cfi_startproc
	pushq	%rbp
	.cfi_def_cfa_offset 16
	.cfi_offset %rbp, -16
	movq	%rsp, %rbp
	.cfi_def_cfa_register %rbp
Ltmp468:
	.loc	28 1350 12 prologue_end
	movq	(%rdi), %rax
Ltmp469:
	.loc	29 2403 24
	lock		decq	(%rax)
Ltmp470:
	.loc	28 1350 9
	jne	LBB20_1
Ltmp471:
	.loc	29 2675 24
	##MEMBARRIER
Ltmp472:
	.loc	28 1385 13
	popq	%rbp
	jmp	__ZN5alloc4sync12Arc$LT$T$GT$9drop_slow17h04dcd272ba0d0fe0E
Ltmp473:
LBB20_1:
	.loc	18 184 1
	popq	%rbp
	retq
Ltmp474:
Lfunc_end20:
	.cfi_endproc

	.p2align	4, 0x90
__ZN4core3ptr13drop_in_place17ha6109a68f098ccf3E:
Lfunc_begin21:
	.loc	18 184 0
	.cfi_startproc
	pushq	%rbp
	.cfi_def_cfa_offset 16
	.cfi_offset %rbp, -16
	movq	%rsp, %rbp
	.cfi_def_cfa_register %rbp
Ltmp475:
	.loc	18 184 1 prologue_end
	movq	(%rdi), %rdi
Ltmp476:
	.loc	15 102 14
	movl	$64, %esi
	movl	$8, %edx
	popq	%rbp
	jmp	___rust_dealloc
Ltmp477:
Lfunc_end21:
	.cfi_endproc

	.p2align	4, 0x90
__ZN4core3ptr13drop_in_place17hcafbc2fafb2ca407E:
Lfunc_begin22:
	.loc	18 184 0
	.cfi_startproc
	pushq	%rbp
	.cfi_def_cfa_offset 16
	.cfi_offset %rbp, -16
	movq	%rsp, %rbp
	.cfi_def_cfa_register %rbp
	pushq	%r14
	pushq	%rbx
	.cfi_offset %rbx, -32
	.cfi_offset %r14, -24
	movq	%rdi, %rbx
Ltmp478:
	.loc	35 34 13 prologue_end
	cmpb	$0, 8(%rdi)
	.loc	35 34 12 is_stmt 0
	jne	LBB22_4
Ltmp479:
	.loc	16 0 0
	movq	(%rbx), %r14
Ltmp480:
	.loc	29 2356 24 is_stmt 1
	movq	__ZN3std9panicking11panic_count18GLOBAL_PANIC_COUNT17h5754c1d48a496461E@GOTPCREL(%rip), %rax
Ltmp481:
	movq	(%rax), %rax
Ltmp482:
	.loc	30 262 12
	testq	%rax, %rax
	.loc	30 262 9 is_stmt 0
	jne	LBB22_2
Ltmp483:
LBB22_4:
	.loc	16 500 13 is_stmt 1
	movq	(%rbx), %rax
	movq	(%rax), %rdi
Ltmp484:
	.loc	17 68 17
	popq	%rbx
Ltmp485:
	popq	%r14
	popq	%rbp
	jmp	_pthread_mutex_unlock
Ltmp486:
LBB22_2:
	.loc	30 274 13
	callq	__ZN3std9panicking11panic_count17is_zero_slow_path17ha588394117c50e3dE
Ltmp487:
	.loc	35 34 12
	testb	%al, %al
	jne	LBB22_4
Ltmp488:
	.loc	29 2342 24
	movb	$1, 8(%r14)
	jmp	LBB22_4
Ltmp489:
Lfunc_end22:
	.cfi_endproc

	.p2align	4, 0x90
__ZN4core3ptr13drop_in_place17he663eee07dc3db45E:
Lfunc_begin23:
	.loc	18 184 0
	.cfi_startproc
	.cfi_personality 155, _rust_eh_personality
	.cfi_lsda 16, Lexception2
	pushq	%rbp
	.cfi_def_cfa_offset 16
	.cfi_offset %rbp, -16
	movq	%rsp, %rbp
	.cfi_def_cfa_register %rbp
	pushq	%r14
	pushq	%rbx
	.cfi_offset %rbx, -32
	.cfi_offset %r14, -24
	movq	%rdi, %rbx
Ltmp490:
Ltmp493:
	.loc	18 184 1 prologue_end
	callq	__ZN69_$LT$std..sync..condvar..Condvar$u20$as$u20$core..ops..drop..Drop$GT$4drop17h997a5cc5da4d80f8E
Ltmp491:
Ltmp494:
	.loc	18 184 1 is_stmt 0
	movq	(%rbx), %rdi
Ltmp495:
	.loc	15 102 14 is_stmt 1
	movl	$48, %esi
	movl	$8, %edx
	popq	%rbx
Ltmp496:
	popq	%r14
	popq	%rbp
	jmp	___rust_dealloc
Ltmp497:
LBB23_2:
Ltmp492:
	.loc	15 0 14 is_stmt 0
	movq	%rax, %r14
	.loc	18 184 1 is_stmt 1
	movq	%rbx, %rdi
	callq	__ZN4core3ptr13drop_in_place17h33e995d73094b149E
	movq	%r14, %rdi
	callq	__Unwind_Resume
	ud2
Ltmp498:
Lfunc_end23:
	.cfi_endproc
	.section	__TEXT,__gcc_except_tab
	.p2align	2
GCC_except_table23:
Lexception2:
	.byte	255
	.byte	255
	.byte	1
	.uleb128 Lcst_end2-Lcst_begin2
Lcst_begin2:
	.uleb128 Ltmp490-Lfunc_begin23
	.uleb128 Ltmp491-Ltmp490
	.uleb128 Ltmp492-Lfunc_begin23
	.byte	0
	.uleb128 Ltmp491-Lfunc_begin23
	.uleb128 Lfunc_end23-Ltmp491
	.byte	0
	.byte	0
Lcst_end2:
	.p2align	2

	.section	__TEXT,__text,regular,pure_instructions
	.p2align	4, 0x90
__ZN4core3ptr13drop_in_place17hf8bfc1acfd6e7b1dE:
Lfunc_begin24:
	.loc	18 184 0
	.cfi_startproc
	.cfi_personality 155, _rust_eh_personality
	.cfi_lsda 16, Lexception3
	pushq	%rbp
	.cfi_def_cfa_offset 16
	.cfi_offset %rbp, -16
	movq	%rsp, %rbp
	.cfi_def_cfa_register %rbp
	pushq	%r14
	pushq	%rbx
	.cfi_offset %rbx, -32
	.cfi_offset %r14, -24
	movq	%rdi, %rbx
Ltmp499:
Ltmp502:
	.loc	18 184 1 prologue_end
	callq	__ZN86_$LT$crossbeam_utils..sync..wait_group..WaitGroup$u20$as$u20$core..ops..drop..Drop$GT$4drop17ha2b2465224a9e9b9E
Ltmp500:
Ltmp503:
	.loc	28 1350 12
	movq	(%rbx), %rax
Ltmp504:
	.loc	29 2403 24
	lock		decq	(%rax)
Ltmp505:
	.loc	28 1350 9
	jne	LBB24_2
Ltmp506:
	.loc	29 2675 24
	##MEMBARRIER
Ltmp507:
	.loc	28 1385 13
	movq	%rbx, %rdi
	popq	%rbx
Ltmp508:
	popq	%r14
	popq	%rbp
	jmp	__ZN5alloc4sync12Arc$LT$T$GT$9drop_slow17h019c21a206d95406E
Ltmp509:
LBB24_2:
	.loc	18 184 1
	popq	%rbx
Ltmp510:
	popq	%r14
	popq	%rbp
	retq
LBB24_3:
Ltmp511:
Ltmp501:
	.loc	18 0 1 is_stmt 0
	movq	%rax, %r14
	.loc	18 184 1
	movq	%rbx, %rdi
	callq	__ZN4core3ptr13drop_in_place17h94b246ca8185e218E
	movq	%r14, %rdi
	callq	__Unwind_Resume
	ud2
Ltmp512:
Lfunc_end24:
	.cfi_endproc
	.section	__TEXT,__gcc_except_tab
	.p2align	2
GCC_except_table24:
Lexception3:
	.byte	255
	.byte	255
	.byte	1
	.uleb128 Lcst_end3-Lcst_begin3
Lcst_begin3:
	.uleb128 Ltmp499-Lfunc_begin24
	.uleb128 Ltmp500-Ltmp499
	.uleb128 Ltmp501-Lfunc_begin24
	.byte	0
	.uleb128 Ltmp500-Lfunc_begin24
	.uleb128 Lfunc_end24-Ltmp500
	.byte	0
	.byte	0
Lcst_end3:
	.p2align	2

	.section	__TEXT,__text,regular,pure_instructions
	.p2align	4, 0x90
__ZN58_$LT$std..thread..ThreadId$u20$as$u20$core..hash..Hash$GT$4hash17hc40d17ae6866d604E:
Lfunc_begin25:
	.loc	36 1052 0 is_stmt 1
	.cfi_startproc
	pushq	%rbp
	.cfi_def_cfa_offset 16
	.cfi_offset %rbp, -16
	movq	%rsp, %rbp
	.cfi_def_cfa_register %rbp
	pushq	%rax
Ltmp513:
	.file	44 "/rustc/6c8927b0cf80ceee19386026cf9d7fd4fd9d486f/src/libcore/hash/mod.rs"
	.loc	44 311 21 prologue_end
	movq	%rdi, -8(%rbp)
Ltmp514:
	.loc	32 264 9
	addq	$8, 16(%rsi)
Ltmp515:
	.loc	32 268 12
	movq	64(%rsi), %r8
	testq	%r8, %r8
	.loc	32 268 9 is_stmt 0
	je	LBB25_1
Ltmp516:
	.loc	32 0 9
	movl	$8, %edx
	.loc	32 269 13 is_stmt 1
	movl	$8, %r10d
	subq	%r8, %r10
Ltmp517:
	.file	45 "/rustc/6c8927b0cf80ceee19386026cf9d7fd4fd9d486f/src/libcore/cmp.rs"
	.loc	45 0 0 is_stmt 0
	cmovaeq	%r10, %rdx
	xorl	%r9d, %r9d
Ltmp518:
	.loc	32 132 8 is_stmt 1
	xorl	%eax, %eax
	cmpq	$3, %rdx
	seta	%al
	.loc	32 132 5 is_stmt 0
	movl	%edi, %ecx
	cmovaq	%rcx, %r9
	.loc	32 138 8 is_stmt 1
	leaq	1(,%rax,4), %rcx
Ltmp519:
	.loc	32 132 5
	shlq	$2, %rax
Ltmp520:
	.loc	32 138 8
	cmpq	%rdx, %rcx
	.loc	32 138 5 is_stmt 0
	jae	LBB25_4
Ltmp521:
	.loc	7 2130 14 is_stmt 1
	movzwl	-8(%rbp,%rax), %edi
Ltmp522:
	.loc	32 140 73
	leal	(,%rax,8), %ecx
	.loc	32 140 16 is_stmt 0
	shlq	%cl, %rdi
	.loc	32 140 9
	orq	%rdi, %r9
Ltmp523:
	.loc	32 141 9 is_stmt 1
	orq	$2, %rax
Ltmp524:
LBB25_4:
	.loc	32 143 8
	cmpq	%rdx, %rax
	.loc	32 143 5 is_stmt 0
	jae	LBB25_6
Ltmp525:
	.loc	32 145 26 is_stmt 1
	movzbl	-8(%rbp,%rax), %edx
Ltmp526:
	.loc	32 145 69 is_stmt 0
	shll	$3, %eax
Ltmp527:
	.loc	32 145 16
	movl	%eax, %ecx
	shlq	%cl, %rdx
	.loc	32 145 9
	orq	%rdx, %r9
Ltmp528:
LBB25_6:
	.loc	32 271 84 is_stmt 1
	leal	(,%r8,8), %ecx
	.loc	32 271 26 is_stmt 0
	shlq	%cl, %r9
	.loc	32 271 13
	orq	56(%rsi), %r9
	movq	%r9, 56(%rsi)
Ltmp529:
	.loc	45 0 0
	cmpq	$8, %r8
Ltmp530:
	.loc	32 272 13 is_stmt 1
	jbe	LBB25_7
Ltmp531:
	.loc	32 273 17
	addq	$8, %r8
	.loc	32 0 0 is_stmt 0
	movq	%r8, 64(%rsi)
Ltmp532:
	.loc	36 1052 42 is_stmt 1
	addq	$8, %rsp
	popq	%rbp
	retq
Ltmp533:
LBB25_1:
	.loc	36 0 42 is_stmt 0
	xorl	%r10d, %r10d
	jmp	LBB25_8
Ltmp534:
LBB25_7:
	movq	48(%rsi), %rcx
Ltmp535:
	.loc	32 276 17 is_stmt 1
	xorq	%r9, %rcx
Ltmp536:
	.loc	32 85 46
	movq	40(%rsi), %rdx
Ltmp537:
	.loc	32 0 46 is_stmt 0
	movq	24(%rsi), %rax
Ltmp538:
	.loc	12 3439 17 is_stmt 1
	addq	%rdx, %rax
Ltmp539:
	.loc	12 2763 17
	rolq	$13, %rdx
Ltmp540:
	.loc	32 85 35
	xorq	%rax, %rdx
Ltmp541:
	.loc	12 2763 17
	rolq	$32, %rax
Ltmp542:
	.loc	12 0 17 is_stmt 0
	movq	32(%rsi), %rdi
Ltmp543:
	.loc	12 3439 17 is_stmt 1
	addq	%rcx, %rdi
Ltmp544:
	.loc	12 2763 17
	rolq	$16, %rcx
Ltmp545:
	.loc	32 85 57
	xorq	%rdi, %rcx
Ltmp546:
	.loc	12 3439 17
	addq	%rcx, %rax
Ltmp547:
	.loc	12 2763 17
	rolq	$21, %rcx
Ltmp548:
	.loc	32 85 35
	xorq	%rax, %rcx
	movq	%rcx, 48(%rsi)
Ltmp549:
	.loc	12 3439 17
	addq	%rdx, %rdi
Ltmp550:
	.loc	12 2763 17
	rolq	$17, %rdx
Ltmp551:
	.loc	32 85 57
	xorq	%rdi, %rdx
	movq	%rdx, 40(%rsi)
Ltmp552:
	.loc	12 2763 17
	rolq	$32, %rdi
Ltmp553:
	.loc	32 100 9
	movq	%rdi, 32(%rsi)
Ltmp554:
	.loc	32 278 17
	xorq	%r9, %rax
	movq	%rax, 24(%rsi)
	.loc	32 279 17
	movq	$0, 64(%rsi)
Ltmp555:
LBB25_8:
	.loc	32 0 17 is_stmt 0
	movl	$8, %r9d
Ltmp556:
	.loc	32 284 19 is_stmt 1
	subq	%r10, %r9
Ltmp557:
	.loc	32 285 20
	movl	%r9d, %r8d
	andl	$7, %r8d
Ltmp558:
	.loc	32 288 19
	andq	$-8, %r9
Ltmp559:
	.loc	32 288 15 is_stmt 0
	cmpq	%r9, %r10
	.loc	32 288 9
	jae	LBB25_12
Ltmp560:
	.loc	32 294 13 is_stmt 1
	movq	48(%rsi), %rax
Ltmp561:
	.loc	32 85 35
	movq	24(%rsi), %rdi
	.loc	32 85 57 is_stmt 0
	movq	32(%rsi), %rcx
	.loc	32 85 46
	movq	40(%rsi), %rdx
Ltmp562:
	.p2align	4, 0x90
LBB25_10:
	.loc	12 3439 17 is_stmt 1
	addq	%rdx, %rdi
Ltmp563:
	.loc	12 2763 17
	rolq	$13, %rdx
Ltmp564:
	.loc	7 2130 14
	movq	-8(%rbp,%r10), %r11
Ltmp565:
	.loc	32 85 35
	xorq	%rdi, %rdx
Ltmp566:
	.loc	12 2763 17
	rolq	$32, %rdi
Ltmp567:
	.loc	32 294 13
	xorq	%r11, %rax
Ltmp568:
	.loc	12 3439 17
	addq	%rax, %rcx
Ltmp569:
	.loc	12 2763 17
	rolq	$16, %rax
Ltmp570:
	.loc	32 85 57
	xorq	%rcx, %rax
Ltmp571:
	.loc	12 3439 17
	addq	%rax, %rdi
Ltmp572:
	.loc	12 2763 17
	rolq	$21, %rax
Ltmp573:
	.loc	12 3439 17
	addq	%rdx, %rcx
Ltmp574:
	.loc	12 2763 17
	rolq	$17, %rdx
Ltmp575:
	.loc	32 85 57
	xorq	%rcx, %rdx
Ltmp576:
	.loc	12 2763 17
	rolq	$32, %rcx
Ltmp577:
	.loc	32 85 35
	xorq	%rdi, %rax
Ltmp578:
	.loc	32 296 13
	xorq	%r11, %rdi
	.loc	32 298 13
	addq	$8, %r10
Ltmp579:
	.loc	32 288 15
	cmpq	%r9, %r10
	.loc	32 288 9 is_stmt 0
	jb	LBB25_10
Ltmp580:
	.loc	32 294 13 is_stmt 1
	movq	%rax, 48(%rsi)
Ltmp581:
	.loc	32 85 35
	movq	%rdi, 24(%rsi)
	.loc	32 85 46 is_stmt 0
	movq	%rdx, 40(%rsi)
	.loc	32 85 57
	movq	%rcx, 32(%rsi)
Ltmp582:
LBB25_12:
	.loc	32 132 8 is_stmt 1
	cmpl	$4, %r8d
	.loc	32 132 5 is_stmt 0
	jb	LBB25_13
Ltmp583:
	.loc	7 2130 14 is_stmt 1
	movl	-8(%rbp,%r10), %edi
Ltmp584:
	.loc	7 0 14 is_stmt 0
	movl	$4, %eax
Ltmp585:
	.loc	32 138 8 is_stmt 1
	movq	%rax, %rcx
	orq	$1, %rcx
	cmpq	%r8, %rcx
	.loc	32 138 5 is_stmt 0
	jb	LBB25_16
	jmp	LBB25_17
Ltmp586:
LBB25_13:
	.loc	32 0 5
	xorl	%eax, %eax
	xorl	%edi, %edi
Ltmp587:
	.loc	32 138 8
	movq	%rax, %rcx
	orq	$1, %rcx
	cmpq	%r8, %rcx
	.loc	32 138 5
	jae	LBB25_17
Ltmp588:
LBB25_16:
	.loc	32 140 44 is_stmt 1
	leaq	(%rax,%r10), %rcx
Ltmp589:
	.loc	7 2130 14
	movzwl	-8(%rbp,%rcx), %edx
Ltmp590:
	.loc	32 140 73
	leal	(,%rax,8), %ecx
Ltmp591:
	.loc	32 140 16 is_stmt 0
	shlq	%cl, %rdx
	.loc	32 140 9
	orq	%rdx, %rdi
Ltmp592:
	.loc	32 141 9 is_stmt 1
	orq	$2, %rax
Ltmp593:
LBB25_17:
	.loc	32 143 8
	cmpq	%r8, %rax
	.loc	32 143 5 is_stmt 0
	jae	LBB25_19
Ltmp594:
	.loc	32 145 45 is_stmt 1
	addq	%rax, %r10
Ltmp595:
	.loc	32 145 26 is_stmt 0
	movzbl	-8(%rbp,%r10), %edx
	.loc	32 145 69
	shll	$3, %eax
Ltmp596:
	.loc	32 145 16
	movl	%eax, %ecx
	shlq	%cl, %rdx
	.loc	32 145 9
	orq	%rdx, %rdi
Ltmp597:
LBB25_19:
	.loc	32 304 9 is_stmt 1
	movq	%rdi, 56(%rsi)
Ltmp598:
	.loc	32 0 0 is_stmt 0
	movq	%r8, 64(%rsi)
Ltmp599:
	.loc	36 1052 42 is_stmt 1
	addq	$8, %rsp
	popq	%rbp
	retq
Ltmp600:
Lfunc_end25:
	.cfi_endproc

	.p2align	4, 0x90
__ZN5alloc4sync12Arc$LT$T$GT$9drop_slow17h019c21a206d95406E:
Lfunc_begin26:
	.loc	28 860 0
	.cfi_startproc
	.cfi_personality 155, _rust_eh_personality
	.cfi_lsda 16, Lexception4
	pushq	%rbp
	.cfi_def_cfa_offset 16
	.cfi_offset %rbp, -16
	movq	%rsp, %rbp
	.cfi_def_cfa_register %rbp
	pushq	%r15
	pushq	%r14
	pushq	%rbx
	pushq	%rax
	.cfi_offset %rbx, -40
	.cfi_offset %r14, -32
	.cfi_offset %r15, -24
	movq	%rdi, %r14
Ltmp604:
	.loc	28 863 37 prologue_end
	movq	(%rdi), %rbx
Ltmp605:
	.loc	28 1284 18
	leaq	16(%rbx), %r15
Ltmp606:
Ltmp601:
	.loc	18 184 1
	movq	%r15, %rdi
	callq	__ZN69_$LT$std..sync..condvar..Condvar$u20$as$u20$core..ops..drop..Drop$GT$4drop17h997a5cc5da4d80f8E
Ltmp602:
Ltmp607:
	.loc	18 184 1 is_stmt 0
	movq	16(%rbx), %rdi
Ltmp608:
	.loc	15 102 14 is_stmt 1
	movl	$48, %esi
	movl	$8, %edx
	callq	___rust_dealloc
Ltmp609:
	.loc	16 427 18
	movq	32(%rbx), %rdi
Ltmp610:
	.loc	17 78 17
	callq	_pthread_mutex_destroy
Ltmp611:
	.loc	18 184 1
	movq	32(%rbx), %rdi
Ltmp612:
	.loc	15 102 14
	movl	$64, %esi
	movl	$8, %edx
	callq	___rust_dealloc
Ltmp613:
	.loc	28 866 26
	movq	(%r14), %rdi
Ltmp614:
	.file	46 "/rustc/6c8927b0cf80ceee19386026cf9d7fd4fd9d486f/src/liballoc/rc.rs"
	.loc	46 1811 5
	cmpq	$-1, %rdi
Ltmp615:
	.loc	28 1691 9
	je	LBB26_3
Ltmp616:
	.loc	29 2403 24
	lock		decq	8(%rdi)
Ltmp617:
	.loc	28 1846 9
	jne	LBB26_3
Ltmp618:
	.loc	29 2675 24
	##MEMBARRIER
Ltmp619:
	.loc	15 102 14
	movl	$56, %esi
	movl	$8, %edx
	addq	$8, %rsp
	popq	%rbx
	popq	%r14
Ltmp620:
	popq	%r15
	popq	%rbp
	jmp	___rust_dealloc
Ltmp621:
LBB26_3:
	.loc	28 867 6
	addq	$8, %rsp
	popq	%rbx
	popq	%r14
Ltmp622:
	popq	%r15
	popq	%rbp
	retq
LBB26_4:
Ltmp623:
Ltmp603:
	.loc	28 0 6 is_stmt 0
	movq	%rax, %r14
Ltmp624:
	.loc	18 184 1 is_stmt 1
	movq	%r15, %rdi
	callq	__ZN4core3ptr13drop_in_place17h33e995d73094b149E
Ltmp625:
	.loc	18 184 1 is_stmt 0
	addq	$32, %rbx
	movq	%rbx, %rdi
	callq	__ZN4core3ptr13drop_in_place17h63e0ef2b98867c39E
	movq	%r14, %rdi
	callq	__Unwind_Resume
	ud2
Ltmp626:
Lfunc_end26:
	.cfi_endproc
	.section	__TEXT,__gcc_except_tab
	.p2align	2
GCC_except_table26:
Lexception4:
	.byte	255
	.byte	255
	.byte	1
	.uleb128 Lcst_end4-Lcst_begin4
Lcst_begin4:
	.uleb128 Ltmp601-Lfunc_begin26
	.uleb128 Ltmp602-Ltmp601
	.uleb128 Ltmp603-Lfunc_begin26
	.byte	0
	.uleb128 Ltmp602-Lfunc_begin26
	.uleb128 Lfunc_end26-Ltmp602
	.byte	0
	.byte	0
Lcst_end4:
	.p2align	2

	.section	__TEXT,__text,regular,pure_instructions
	.p2align	4, 0x90
__ZN5alloc4sync12Arc$LT$T$GT$9drop_slow17h04dcd272ba0d0fe0E:
Lfunc_begin27:
	.loc	28 860 0 is_stmt 1
	.cfi_startproc
	.cfi_personality 155, _rust_eh_personality
	.cfi_lsda 16, Lexception5
	pushq	%rbp
	.cfi_def_cfa_offset 16
	.cfi_offset %rbp, -16
	movq	%rsp, %rbp
	.cfi_def_cfa_register %rbp
	pushq	%r14
	pushq	%rbx
	.cfi_offset %rbx, -32
	.cfi_offset %r14, -24
	movq	%rdi, %r14
Ltmp630:
	.loc	28 863 37 prologue_end
	movq	(%rdi), %rbx
Ltmp631:
	.loc	18 184 1
	movq	16(%rbx), %rax
	testq	%rax, %rax
	je	LBB27_3
Ltmp632:
	.file	47 "/rustc/6c8927b0cf80ceee19386026cf9d7fd4fd9d486f/src/libstd/ffi/c_str.rs"
	.loc	47 814 13
	movb	$0, (%rax)
Ltmp633:
	.loc	18 184 1
	movq	24(%rbx), %rsi
Ltmp634:
	.loc	15 185 12
	testq	%rsi, %rsi
Ltmp635:
	.loc	15 185 9 is_stmt 0
	je	LBB27_3
Ltmp636:
	.loc	18 184 1 is_stmt 1
	movq	16(%rbx), %rdi
Ltmp637:
	.loc	15 102 14
	movl	$1, %edx
	callq	___rust_dealloc
Ltmp638:
LBB27_3:
	.loc	16 427 18
	movq	48(%rbx), %rdi
Ltmp639:
	.loc	17 78 17
	callq	_pthread_mutex_destroy
Ltmp640:
	.loc	18 184 1
	movq	48(%rbx), %rdi
Ltmp641:
	.loc	15 102 14
	movl	$64, %esi
	movl	$8, %edx
	callq	___rust_dealloc
Ltmp642:
	.loc	18 184 1
	addq	$64, %rbx
Ltmp643:
Ltmp627:
	.loc	18 184 1 is_stmt 0
	movq	%rbx, %rdi
	callq	__ZN69_$LT$std..sync..condvar..Condvar$u20$as$u20$core..ops..drop..Drop$GT$4drop17h997a5cc5da4d80f8E
Ltmp628:
Ltmp644:
	.loc	18 184 1
	movq	(%rbx), %rdi
Ltmp645:
	.loc	15 102 14 is_stmt 1
	movl	$48, %esi
	movl	$8, %edx
	callq	___rust_dealloc
Ltmp646:
	.loc	28 866 26
	movq	(%r14), %rdi
Ltmp647:
	.loc	46 1811 5
	cmpq	$-1, %rdi
Ltmp648:
	.loc	28 1691 9
	je	LBB27_6
Ltmp649:
	.loc	29 2403 24
	lock		decq	8(%rdi)
Ltmp650:
	.loc	28 1846 9
	jne	LBB27_6
Ltmp651:
	.loc	29 2675 24
	##MEMBARRIER
Ltmp652:
	.loc	15 102 14
	movl	$80, %esi
	movl	$8, %edx
	popq	%rbx
	popq	%r14
Ltmp653:
	popq	%rbp
	jmp	___rust_dealloc
Ltmp654:
LBB27_6:
	.loc	28 867 6
	popq	%rbx
	popq	%r14
Ltmp655:
	popq	%rbp
	retq
LBB27_7:
Ltmp656:
Ltmp629:
	.loc	28 0 6 is_stmt 0
	movq	%rax, %r14
Ltmp657:
	.loc	18 184 1 is_stmt 1
	movq	%rbx, %rdi
	callq	__ZN4core3ptr13drop_in_place17h33e995d73094b149E
	movq	%r14, %rdi
	callq	__Unwind_Resume
	ud2
Ltmp658:
Lfunc_end27:
	.cfi_endproc
	.section	__TEXT,__gcc_except_tab
	.p2align	2
GCC_except_table27:
Lexception5:
	.byte	255
	.byte	255
	.byte	1
	.uleb128 Lcst_end5-Lcst_begin5
Lcst_begin5:
	.uleb128 Ltmp627-Lfunc_begin27
	.uleb128 Ltmp628-Ltmp627
	.uleb128 Ltmp629-Lfunc_begin27
	.byte	0
	.uleb128 Ltmp628-Lfunc_begin27
	.uleb128 Lfunc_end27-Ltmp628
	.byte	0
	.byte	0
Lcst_end5:
	.p2align	2

	.section	__TEXT,__text,regular,pure_instructions
	.p2align	4, 0x90
__ZN5alloc5alloc8box_free17h9af06c4ad689b187E:
Lfunc_begin28:
	.loc	15 290 0
	.cfi_startproc
	pushq	%rbp
	.cfi_def_cfa_offset 16
	.cfi_offset %rbp, -16
	movq	%rsp, %rbp
	.cfi_def_cfa_register %rbp
Ltmp659:
	.loc	15 102 14 prologue_end
	movl	$64, %esi
	movl	$8, %edx
	popq	%rbp
	jmp	___rust_dealloc
Ltmp660:
Lfunc_end28:
	.cfi_endproc

	.p2align	4, 0x90
__ZN62_$LT$core..cell..Cell$LT$T$GT$$u20$as$u20$core..fmt..Debug$GT$3fmt17hf0bf754e9850fcd6E:
Lfunc_begin29:
	.loc	40 2231 0
	.cfi_startproc
	pushq	%rbp
	.cfi_def_cfa_offset 16
	.cfi_offset %rbp, -16
	movq	%rsp, %rbp
	.cfi_def_cfa_register %rbp
	pushq	%r14
	pushq	%rbx
	subq	$32, %rsp
	.cfi_offset %rbx, -32
	.cfi_offset %r14, -24
	movq	%rdi, %rbx
Ltmp661:
	.loc	40 2232 9 prologue_end
	leaq	L___unnamed_27(%rip), %rdx
	leaq	-40(%rbp), %r14
	movl	$4, %ecx
	movq	%r14, %rdi
	callq	__ZN4core3fmt9Formatter12debug_struct17ha1a64e91d2a98458E
Ltmp662:
	.loc	40 2232 48 is_stmt 0
	movl	(%rbx), %eax
	movl	%eax, -20(%rbp)
	.loc	40 2232 9
	leaq	l___unnamed_28(%rip), %rsi
	leaq	l___unnamed_8(%rip), %r8
	leaq	-20(%rbp), %rcx
	movl	$5, %edx
	movq	%r14, %rdi
	callq	__ZN4core3fmt8builders11DebugStruct5field17h6c54d35ac41bb1e6E
	movq	%rax, %rdi
	callq	__ZN4core3fmt8builders11DebugStruct6finish17h67ed49fd5e81bb24E
	.loc	40 2233 6 is_stmt 1
	addq	$32, %rsp
	popq	%rbx
Ltmp663:
	popq	%r14
	popq	%rbp
	retq
Ltmp664:
Lfunc_end29:
	.cfi_endproc

	.p2align	4, 0x90
__ZN82_$LT$std..sys_common..poison..PoisonError$LT$T$GT$$u20$as$u20$core..fmt..Debug$GT$3fmt17h0091149322fff76fE:
Lfunc_begin30:
	.loc	35 137 0
	.cfi_startproc
	pushq	%rbp
	.cfi_def_cfa_offset 16
	.cfi_offset %rbp, -16
	movq	%rsp, %rbp
	.cfi_def_cfa_register %rbp
	movq	%rsi, %rdx
Ltmp665:
	.loc	35 138 9 prologue_end
	leaq	l___unnamed_29(%rip), %rdi
Ltmp666:
	movl	$25, %esi
	popq	%rbp
	jmp	__ZN40_$LT$str$u20$as$u20$core..fmt..Debug$GT$3fmt17h5b42b6f497bd434cE
Ltmp667:
Lfunc_end30:
	.cfi_endproc

	.p2align	4, 0x90
__ZN82_$LT$std..sys_common..poison..PoisonError$LT$T$GT$$u20$as$u20$core..fmt..Debug$GT$3fmt17h0d267c425f75f7f3E:
Lfunc_begin31:
	.loc	35 137 0
	.cfi_startproc
	pushq	%rbp
	.cfi_def_cfa_offset 16
	.cfi_offset %rbp, -16
	movq	%rsp, %rbp
	.cfi_def_cfa_register %rbp
	movq	%rsi, %rdx
Ltmp668:
	.loc	35 138 9 prologue_end
	leaq	l___unnamed_29(%rip), %rdi
Ltmp669:
	movl	$25, %esi
	popq	%rbp
	jmp	__ZN40_$LT$str$u20$as$u20$core..fmt..Debug$GT$3fmt17h5b42b6f497bd434cE
Ltmp670:
Lfunc_end31:
	.cfi_endproc

	.p2align	4, 0x90
__ZN91_$LT$std..panicking..begin_panic..PanicPayload$LT$A$GT$$u20$as$u20$core..panic..BoxMeUp$GT$3get17h265ebe83508cd928E:
Lfunc_begin32:
	.loc	30 482 0
	.cfi_startproc
	pushq	%rbp
	.cfi_def_cfa_offset 16
	.cfi_offset %rbp, -16
	movq	%rsp, %rbp
	.cfi_def_cfa_register %rbp
Ltmp671:
	.loc	30 484 17 prologue_end
	cmpq	$0, (%rdi)
	je	LBB32_2
Ltmp672:
	.loc	30 0 17 is_stmt 0
	movq	%rdi, %rax
Ltmp673:
	.loc	30 487 10 is_stmt 1
	leaq	l___unnamed_9(%rip), %rdx
	popq	%rbp
	retq
Ltmp674:
LBB32_2:
	.loc	30 485 25
	callq	__ZN3std7process5abort17hff53fa3bc108bcb5E
Ltmp675:
Lfunc_end32:
	.cfi_endproc

	.p2align	4, 0x90
__ZN91_$LT$std..panicking..begin_panic..PanicPayload$LT$A$GT$$u20$as$u20$core..panic..BoxMeUp$GT$8take_box17h1fadf33d38e03faeE:
Lfunc_begin33:
	.loc	30 469 0
	.cfi_startproc
	pushq	%rbp
	.cfi_def_cfa_offset 16
	.cfi_offset %rbp, -16
	movq	%rsp, %rbp
	.cfi_def_cfa_register %rbp
Ltmp676:
	pushq	%r14
	pushq	%rbx
	.cfi_offset %rbx, -32
	.cfi_offset %r14, -24
	.loc	7 2130 14 prologue_end
	movq	(%rdi), %rbx
Ltmp677:
	movq	8(%rdi), %r14
Ltmp678:
	.loc	7 2130 14 is_stmt 0
	movq	$0, (%rdi)
Ltmp679:
	.loc	30 476 17 is_stmt 1
	testq	%rbx, %rbx
	je	LBB33_3
Ltmp680:
	.loc	15 80 14
	movl	$16, %edi
Ltmp681:
	movl	$8, %esi
	callq	___rust_alloc
Ltmp682:
	.loc	15 278 9
	testq	%rax, %rax
	je	LBB33_4
Ltmp683:
	.file	48 "/rustc/6c8927b0cf80ceee19386026cf9d7fd4fd9d486f/src/liballoc/boxed.rs"
	.loc	48 176 13
	movq	%rbx, (%rax)
	movq	%r14, 8(%rax)
Ltmp684:
	.file	49 "/rustc/6c8927b0cf80ceee19386026cf9d7fd4fd9d486f/src/libcore/ptr/unique.rs"
	.loc	49 109 6
	leaq	l___unnamed_9(%rip), %rdx
Ltmp685:
	.loc	30 480 10
	popq	%rbx
Ltmp686:
	popq	%r14
Ltmp687:
	popq	%rbp
	retq
Ltmp688:
LBB33_3:
	.loc	30 477 25
	callq	__ZN3std7process5abort17hff53fa3bc108bcb5E
Ltmp689:
LBB33_4:
	.loc	15 279 19
	movl	$16, %edi
	movl	$8, %esi
	callq	__ZN5alloc5alloc18handle_alloc_error17h28974197717b8939E
Ltmp690:
Lfunc_end33:
	.cfi_endproc

	.section	__TEXT,__literal16,16byte_literals
	.p2align	4
LCPI34_0:
	.space	16,128
LCPI34_1:
	.quad	8317987319222330741
	.quad	7816392313619706465
LCPI34_2:
	.quad	7237128888997146477
	.quad	8387220255154660723
	.section	__TEXT,__text,regular,pure_instructions
	.p2align	4, 0x90
__ZN9hashbrown3raw17RawTable$LT$T$GT$14reserve_rehash17h8ed41f17af701e71E:
Lfunc_begin34:
	.loc	13 649 0
	.cfi_startproc
	.cfi_personality 155, _rust_eh_personality
	.cfi_lsda 16, Lexception6
	pushq	%rbp
	.cfi_def_cfa_offset 16
	.cfi_offset %rbp, -16
	movq	%rsp, %rbp
	.cfi_def_cfa_register %rbp
	pushq	%r15
	pushq	%r14
	pushq	%r13
	pushq	%r12
	pushq	%rbx
	subq	$168, %rsp
	.cfi_offset %rbx, -56
	.cfi_offset %r12, -48
	.cfi_offset %r13, -40
	.cfi_offset %r14, -32
	.cfi_offset %r15, -24
	movq	%rdi, %r14
Ltmp694:
	.loc	13 655 25 prologue_end
	movq	32(%rsi), %rbx
Ltmp695:
	.loc	12 3751 30
	incq	%rbx
Ltmp696:
	.loc	8 565 13
	jne	LBB34_1
Ltmp697:
LBB34_10:
	.loc	13 0 0 is_stmt 0
	movl	$1, %edi
	callq	__ZN9hashbrown3raw11Fallibility17capacity_overflow17hfb2bba84b554a21fE
Ltmp698:
LBB34_11:
	movq	%rax, 8(%r14)
	movq	%rdx, 16(%r14)
	movq	$1, (%r14)
	jmp	LBB34_12
Ltmp699:
LBB34_1:
	movq	%rdx, %r13
Ltmp700:
	movq	%rsi, %r15
Ltmp701:
	.loc	13 660 53 is_stmt 1
	movq	(%rsi), %rdi
	.loc	13 660 29 is_stmt 0
	callq	__ZN9hashbrown3raw23bucket_mask_to_capacity17h0acd005f12c39704E
Ltmp702:
	.loc	13 661 25 is_stmt 1
	movq	%rax, %rcx
	shrq	%rcx
	.loc	13 661 12 is_stmt 0
	cmpq	%rcx, %rbx
	movq	%r15, -48(%rbp)
	.loc	13 661 9
	jbe	LBB34_32
Ltmp703:
	.loc	13 670 39 is_stmt 1
	incq	%rax
Ltmp704:
	.loc	45 1016 9
	cmpq	%rax, %rbx
	.loc	45 0 0 is_stmt 0
	cmovaq	%rbx, %rax
Ltmp705:
	.loc	13 401 12 is_stmt 1
	testq	%rax, %rax
	.loc	13 401 9 is_stmt 0
	je	LBB34_14
Ltmp706:
	.loc	13 406 21 is_stmt 1
	movq	%rax, %rdi
	callq	__ZN9hashbrown3raw19capacity_to_buckets17hfc8cca99afa52604E
Ltmp707:
	.loc	8 565 13
	testq	%rax, %rax
	je	LBB34_10
Ltmp708:
	.loc	13 0 0 is_stmt 0
	movq	%rdx, %r12
Ltmp709:
	movl	$16, %ecx
Ltmp710:
	.loc	19 286 85 is_stmt 1
	xorl	%esi, %esi
Ltmp711:
	.loc	12 3807 26
	movq	%rdx, %rax
Ltmp712:
	mulq	%rcx
Ltmp713:
	.loc	19 286 85
	setno	%cl
Ltmp714:
	.loc	13 223 48
	jo	LBB34_10
Ltmp715:
	.loc	13 0 0 is_stmt 0
	movb	%cl, %sil
	shlq	$3, %rsi
Ltmp716:
	.loc	13 233 59 is_stmt 1
	leaq	16(%r12), %rdx
Ltmp717:
	.loc	12 3462 17
	leaq	15(%r12,%rsi), %rcx
Ltmp718:
	.loc	19 248 72
	negq	%rsi
Ltmp719:
	.loc	19 248 30 is_stmt 0
	andq	%rcx, %rsi
Ltmp720:
	.loc	12 3462 17 is_stmt 1
	subq	%rdx, %rsi
Ltmp721:
	.loc	12 3751 30
	addq	%rdx, %rsi
Ltmp722:
	.loc	19 344 83
	jb	LBB34_10
Ltmp723:
	.loc	12 3751 30
	addq	%rsi, %rax
Ltmp724:
	.loc	19 345 88
	jb	LBB34_10
Ltmp725:
	cmpq	$-16, %rax
	ja	LBB34_10
Ltmp726:
	.loc	19 0 88 is_stmt 0
	movq	%rdx, -72(%rbp)
	movq	%rsi, -80(%rbp)
Ltmp727:
	.loc	15 80 14 is_stmt 1
	movl	$16, %esi
	movq	%rax, %r15
Ltmp728:
	movq	%rax, %rdi
	callq	___rust_alloc
Ltmp729:
	.loc	8 565 13
	testq	%rax, %rax
	je	LBB34_9
Ltmp730:
	.loc	13 0 0 is_stmt 0
	movq	%rax, %rbx
Ltmp731:
	movq	%r13, -64(%rbp)
Ltmp732:
	movq	%r14, -56(%rbp)
Ltmp733:
	.loc	13 388 26 is_stmt 1
	decq	%r12
Ltmp734:
	.loc	13 390 26
	movq	%r12, %rdi
	callq	__ZN9hashbrown3raw23bucket_mask_to_capacity17h0acd005f12c39704E
	movq	%rax, -88(%rbp)
	movq	-80(%rbp), %r15
Ltmp735:
	.loc	39 165 18
	addq	%rbx, %r15
Ltmp736:
	.loc	7 2283 14
	movq	%rbx, %rdi
	movl	$255, %esi
	movq	-72(%rbp), %rdx
	callq	_memset
	movq	%r15, %rsi
Ltmp737:
	.loc	7 0 14 is_stmt 0
	jmp	LBB34_15
Ltmp738:
LBB34_32:
	.loc	13 919 9 is_stmt 1
	movq	(%r15), %rcx
	incq	%rcx
	xorl	%eax, %eax
Ltmp739:
	.loc	13 0 9 is_stmt 0
	movdqa	LCPI34_0(%rip), %xmm0
	xorl	%esi, %esi
	movq	%r15, %rbx
Ltmp740:
	jmp	LBB34_33
Ltmp741:
	.p2align	4, 0x90
LBB34_38:
	.loc	13 687 49 is_stmt 1
	movq	8(%rbx), %rsi
Ltmp742:
	.loc	33 853 27
	pxor	%xmm1, %xmm1
	pcmpgtb	(%rsi,%rax), %xmm1
Ltmp743:
	.loc	33 797 5
	por	%xmm0, %xmm1
Ltmp744:
	.loc	33 1254 5
	movdqa	%xmm1, (%rsi,%rax)
	movb	$1, %sil
Ltmp745:
	.loc	13 0 0 is_stmt 0
	movq	%rdx, %rax
Ltmp746:
LBB34_33:
	.file	50 "/rustc/6c8927b0cf80ceee19386026cf9d7fd4fd9d486f/src/libcore/iter/adapters/mod.rs"
	.loc	50 557 9 is_stmt 1
	testb	$1, %sil
	je	LBB34_34
Ltmp747:
	.loc	12 3751 30
	leaq	15(%rax), %rdx
Ltmp748:
	.file	51 "/rustc/6c8927b0cf80ceee19386026cf9d7fd4fd9d486f/src/libcore/iter/range.rs"
	.loc	51 526 16
	incq	%rdx
Ltmp749:
	.loc	12 3751 30
	movq	%rax, %rsi
	addq	$15, %rsi
Ltmp750:
	.loc	51 526 16
	cmovbq	%rcx, %rdx
Ltmp751:
	.loc	45 1136 52
	cmpq	%rcx, %rsi
Ltmp752:
	.loc	51 526 16
	cmovaeq	%rcx, %rdx
Ltmp753:
	.loc	12 3751 30
	addq	$15, %rax
Ltmp754:
	.loc	13 686 17
	jb	LBB34_39
Ltmp755:
	cmpq	%rcx, %rax
	jb	LBB34_38
	jmp	LBB34_39
Ltmp756:
	.p2align	4, 0x90
LBB34_34:
	.loc	45 1136 52
	cmpq	%rcx, %rax
Ltmp757:
	.loc	51 505 9
	jae	LBB34_39
Ltmp758:
	.loc	12 3013 26
	leaq	1(%rax), %rdx
Ltmp759:
	.loc	12 0 26 is_stmt 0
	jmp	LBB34_38
Ltmp760:
LBB34_39:
	.loc	13 919 9 is_stmt 1
	movq	(%rbx), %rdx
Ltmp761:
	.loc	13 0 0 is_stmt 0
	movq	8(%rbx), %rsi
Ltmp762:
	.loc	13 919 9
	incq	%rdx
Ltmp763:
	.loc	13 694 16 is_stmt 1
	cmpq	$15, %rdx
Ltmp764:
	.loc	13 694 13 is_stmt 0
	ja	LBB34_41
Ltmp765:
	.loc	39 165 18 is_stmt 1
	leaq	16(%rsi), %rdi
Ltmp766:
	.loc	7 2198 14
	callq	_memmove
Ltmp767:
	.loc	13 706 29
	movq	%rbx, -184(%rbp)
Ltmp768:
	.loc	13 919 9
	movq	(%rbx), %r15
Ltmp769:
	.loc	45 1136 52
	cmpq	$-1, %r15
Ltmp770:
	.loc	51 505 9
	je	LBB34_43
Ltmp771:
LBB34_44:
	.loc	51 0 9 is_stmt 0
	movq	%r14, -56(%rbp)
Ltmp772:
	movq	(%r13), %r12
	xorl	%r14d, %r14d
	jmp	LBB34_45
Ltmp773:
	.p2align	4, 0x90
LBB34_51:
	.loc	13 728 32 is_stmt 1
	movq	16(%rbx), %rax
Ltmp774:
	.loc	13 285 9
	movq	%r14, %rcx
	shlq	$4, %rcx
	leaq	(%rax,%rcx), %r13
Ltmp775:
	.loc	13 729 32
	movq	(%rax,%rcx), %rdi
Ltmp776:
	.loc	26 856 47
	movq	(%r12), %rax
Ltmp777:
	movq	8(%r12), %rcx
Ltmp778:
	.loc	32 219 9
	movq	%rax, %xmm0
	pshufd	$68, %xmm0, %xmm0
	pxor	LCPI34_1(%rip), %xmm0
	.loc	32 220 9
	movq	%rcx, %xmm1
	pshufd	$68, %xmm1, %xmm1
	pxor	LCPI34_2(%rip), %xmm1
Ltmp779:
	.loc	11 2496 9
	movq	%rax, -160(%rbp)
	movq	%rcx, -152(%rbp)
	movq	$0, -144(%rbp)
	movdqu	%xmm0, -136(%rbp)
	movdqu	%xmm1, -120(%rbp)
	leaq	-104(%rbp), %rax
Ltmp780:
	movq	$0, 8(%rax)
	movq	$0, (%rax)
Ltmp781:
	.loc	26 202 5
	leaq	-160(%rbp), %rsi
	callq	__ZN58_$LT$std..thread..ThreadId$u20$as$u20$core..hash..Hash$GT$4hash17hc40d17ae6866d604E
Ltmp782:
	.loc	32 312 24
	movq	-144(%rbp), %rdi
Ltmp783:
	.loc	32 310 25
	movq	-120(%rbp), %r8
Ltmp784:
	.loc	32 312 22
	shlq	$56, %rdi
	orq	-104(%rbp), %rdi
	movq	-112(%rbp), %rcx
	movq	-136(%rbp), %rdx
Ltmp785:
	.loc	12 3439 17
	addq	%r8, %rdx
Ltmp786:
	.loc	12 2763 17
	rolq	$13, %r8
Ltmp787:
	.loc	32 314 9
	xorq	%rdi, %rcx
Ltmp788:
	.loc	32 85 35
	xorq	%rdx, %r8
Ltmp789:
	.loc	12 2763 17
	rolq	$32, %rdx
Ltmp790:
	.loc	12 0 17 is_stmt 0
	movq	-128(%rbp), %rsi
Ltmp791:
	.loc	12 3439 17 is_stmt 1
	addq	%rcx, %rsi
Ltmp792:
	.loc	12 2763 17
	rolq	$16, %rcx
Ltmp793:
	.loc	32 85 57
	xorq	%rsi, %rcx
Ltmp794:
	.loc	12 3439 17
	addq	%rcx, %rdx
Ltmp795:
	.loc	12 2763 17
	rolq	$21, %rcx
Ltmp796:
	.loc	12 3439 17
	addq	%r8, %rsi
Ltmp797:
	.loc	12 2763 17
	rolq	$17, %r8
Ltmp798:
	.loc	32 85 35
	xorq	%rdx, %rcx
Ltmp799:
	.loc	32 85 57 is_stmt 0
	xorq	%rsi, %r8
Ltmp800:
	.loc	12 2763 17 is_stmt 1
	rolq	$32, %rsi
Ltmp801:
	.loc	32 316 9
	xorq	%rdi, %rdx
Ltmp802:
	.loc	12 3439 17
	addq	%r8, %rdx
Ltmp803:
	.loc	12 2763 17
	rolq	$13, %r8
Ltmp804:
	.loc	32 85 35
	xorq	%rdx, %r8
Ltmp805:
	.loc	12 2763 17
	rolq	$32, %rdx
Ltmp806:
	.loc	32 318 9
	xorq	$255, %rsi
Ltmp807:
	.loc	12 3439 17
	addq	%rcx, %rsi
Ltmp808:
	.loc	12 2763 17
	rolq	$16, %rcx
Ltmp809:
	.loc	32 85 57
	xorq	%rsi, %rcx
Ltmp810:
	.loc	12 3439 17
	addq	%rcx, %rdx
Ltmp811:
	.loc	12 2763 17
	rolq	$21, %rcx
Ltmp812:
	.loc	12 3439 17
	addq	%r8, %rsi
Ltmp813:
	.loc	12 2763 17
	rolq	$17, %r8
Ltmp814:
	.loc	32 85 57
	xorq	%rsi, %r8
Ltmp815:
	.loc	12 2763 17
	rolq	$32, %rsi
Ltmp816:
	.loc	32 85 35
	xorq	%rdx, %rcx
Ltmp817:
	.loc	12 3439 17
	addq	%r8, %rdx
Ltmp818:
	.loc	12 2763 17
	rolq	$13, %r8
Ltmp819:
	.loc	32 85 35
	xorq	%rdx, %r8
Ltmp820:
	.loc	12 2763 17
	rolq	$32, %rdx
Ltmp821:
	.loc	12 3439 17
	addq	%rcx, %rsi
Ltmp822:
	.loc	12 2763 17
	rolq	$16, %rcx
Ltmp823:
	.loc	32 85 57
	xorq	%rsi, %rcx
Ltmp824:
	.loc	12 3439 17
	addq	%rcx, %rdx
Ltmp825:
	.loc	12 2763 17
	rolq	$21, %rcx
Ltmp826:
	.loc	12 3439 17
	addq	%r8, %rsi
Ltmp827:
	.loc	12 2763 17
	rolq	$17, %r8
Ltmp828:
	.loc	32 85 57
	xorq	%rsi, %r8
Ltmp829:
	.loc	12 2763 17
	rolq	$32, %rsi
Ltmp830:
	.loc	32 85 35
	xorq	%rdx, %rcx
Ltmp831:
	.loc	12 3439 17
	addq	%r8, %rdx
Ltmp832:
	.loc	12 2763 17
	rolq	$13, %r8
Ltmp833:
	.loc	12 3439 17
	addq	%rcx, %rsi
Ltmp834:
	.loc	12 2763 17
	rolq	$16, %rcx
Ltmp835:
	.loc	32 85 57
	xorq	%rsi, %rcx
Ltmp836:
	.loc	12 2763 17
	rolq	$21, %rcx
Ltmp837:
	.loc	32 85 35
	xorq	%rdx, %r8
Ltmp838:
	.loc	12 3439 17
	addq	%r8, %rsi
Ltmp839:
	.loc	12 2763 17
	rolq	$17, %r8
Ltmp840:
	.loc	32 321 9
	xorq	%rsi, %r8
Ltmp841:
	.loc	12 2763 17
	rolq	$32, %rsi
Ltmp842:
	.loc	32 85 35
	xorq	%rsi, %r8
Ltmp843:
	.loc	32 321 9
	xorq	%rcx, %r8
Ltmp844:
	.loc	13 490 26
	movq	(%rbx), %rsi
Ltmp845:
	.loc	13 0 0 is_stmt 0
	movq	8(%rbx), %rdx
	movq	%r8, %rcx
Ltmp846:
	xorl	%edi, %edi
Ltmp847:
	.p2align	4, 0x90
LBB34_52:
	movq	%rcx, %rbx
	andq	%rsi, %rbx
Ltmp848:
	.loc	7 2130 14 is_stmt 1
	movdqu	(%rdx,%rbx), %xmm0
Ltmp849:
	.loc	33 1401 5
	pmovmskb	%xmm0, %eax
Ltmp850:
	.loc	13 168 9
	leaq	16(%rdi,%rbx), %rcx
	.loc	13 167 9
	addq	$16, %rdi
Ltmp851:
	.loc	34 43 12
	testw	%ax, %ax
	.loc	34 43 9 is_stmt 0
	je	LBB34_52
Ltmp852:
	.loc	34 55 9 is_stmt 1
	bsfw	%ax, %ax
Ltmp853:
	movzwl	%ax, %eax
Ltmp854:
	.loc	13 534 34
	addq	%rax, %rbx
Ltmp855:
	andq	%rsi, %rbx
Ltmp856:
	.loc	13 104 5
	cmpb	$0, (%rdx,%rbx)
Ltmp857:
	.loc	13 545 21
	jns	LBB34_54
Ltmp858:
LBB34_55:
	.loc	13 491 18
	movq	%r8, %rax
	andq	%rsi, %rax
Ltmp859:
	.loc	12 3462 17
	movq	%r14, %rcx
	subq	%rax, %rcx
Ltmp860:
	.loc	12 3462 17 is_stmt 0
	movq	%rbx, %rdi
	subq	%rax, %rdi
Ltmp861:
	.loc	13 743 31 is_stmt 1
	xorq	%rcx, %rdi
	andq	%rsi, %rdi
	cmpq	$15, %rdi
	.loc	13 743 21 is_stmt 0
	jbe	LBB34_56
Ltmp862:
	.loc	13 750 37 is_stmt 1
	movb	(%rdx,%rbx), %al
Ltmp863:
	.loc	13 136 16
	shrq	$57, %r8
Ltmp864:
	.loc	12 3462 17
	leaq	-16(%rbx), %rcx
Ltmp865:
	.loc	13 518 22
	andq	%rsi, %rcx
Ltmp866:
	.loc	13 520 9
	movb	%r8b, (%rdx,%rbx)
Ltmp867:
	.loc	13 521 9
	movb	%r8b, 16(%rcx,%rdx)
Ltmp868:
	.loc	13 753 24
	cmpb	$-1, %al
	.loc	13 753 21 is_stmt 0
	je	LBB34_58
Ltmp869:
	.loc	13 0 21
	movq	-48(%rbp), %rsi
	.loc	13 765 35 is_stmt 1
	movq	16(%rsi), %rax
Ltmp870:
	.loc	13 285 9
	shlq	$4, %rbx
Ltmp871:
	.loc	7 2130 14
	movdqu	(%rax,%rbx), %xmm0
Ltmp872:
	.loc	7 2130 14 is_stmt 0
	movq	(%r13), %rcx
	movq	8(%r13), %rdx
	movq	%rdx, 8(%rax,%rbx)
	movq	%rcx, (%rax,%rbx)
	movq	%rsi, %rbx
Ltmp873:
	.loc	18 901 51 is_stmt 1
	movdqu	%xmm0, (%r13)
	jmp	LBB34_51
Ltmp874:
LBB34_54:
	.loc	33 1204 5
	movdqa	(%rdx), %xmm0
Ltmp875:
	.loc	33 1401 5
	pmovmskb	%xmm0, %eax
Ltmp876:
	.loc	34 55 9
	bsfw	%ax, %ax
Ltmp877:
	movzwl	%ax, %ebx
Ltmp878:
	.loc	34 0 9 is_stmt 0
	jmp	LBB34_55
Ltmp879:
	.p2align	4, 0x90
LBB34_56:
	.loc	13 136 16 is_stmt 1
	shrq	$57, %r8
Ltmp880:
	.loc	12 3462 17
	leaq	-16(%r14), %rax
Ltmp881:
	.loc	13 518 22
	andq	%rax, %rsi
Ltmp882:
	.loc	13 520 9
	movb	%r8b, (%rdx,%r14)
Ltmp883:
	.loc	13 521 9
	movb	%r8b, 16(%rsi,%rdx)
	movq	-48(%rbp), %rbx
Ltmp884:
LBB34_46:
	.loc	45 1136 52
	cmpq	%r15, %r14
Ltmp885:
	.loc	13 0 0 is_stmt 0
	leaq	1(%r14), %r14
Ltmp886:
	.loc	51 505 9 is_stmt 1
	je	LBB34_47
Ltmp887:
LBB34_45:
	.loc	13 723 21
	movq	8(%rbx), %rax
Ltmp888:
	.loc	13 723 20 is_stmt 0
	cmpb	$-128, (%rax,%r14)
	.loc	13 723 17
	je	LBB34_51
	jmp	LBB34_46
Ltmp889:
LBB34_58:
	.loc	12 3462 17 is_stmt 1
	leaq	-16(%r14), %rax
Ltmp890:
	.loc	12 0 17 is_stmt 0
	movq	-48(%rbp), %rsi
Ltmp891:
	.loc	13 518 22 is_stmt 1
	andq	(%rsi), %rax
Ltmp892:
	.loc	13 520 10
	movq	8(%rsi), %rcx
Ltmp893:
	.loc	13 520 9 is_stmt 0
	movb	$-1, (%rcx,%r14)
Ltmp894:
	.loc	13 521 9 is_stmt 1
	movb	$-1, 16(%rax,%rcx)
Ltmp895:
	.loc	13 758 25
	movq	16(%rsi), %rax
Ltmp896:
	.loc	13 285 9
	shlq	$4, %rbx
Ltmp897:
	.loc	7 2130 14
	movq	(%r13), %rcx
Ltmp898:
	movq	8(%r13), %rdx
	movq	%rdx, 8(%rax,%rbx)
	movq	%rcx, (%rax,%rbx)
	movq	%rsi, %rbx
	jmp	LBB34_46
Ltmp899:
LBB34_47:
	.loc	13 771 57
	movq	(%rbx), %rdi
	movq	-56(%rbp), %r14
	jmp	LBB34_48
Ltmp900:
LBB34_41:
	.loc	7 2198 14
	movq	(%rsi), %rax
	movq	8(%rsi), %rcx
	movq	%rcx, 8(%rsi,%rdx)
	movq	%rax, (%rsi,%rdx)
Ltmp901:
	.loc	13 706 29
	movq	%rbx, -184(%rbp)
Ltmp902:
	.loc	13 919 9
	movq	(%rbx), %r15
Ltmp903:
	.loc	45 1136 52
	cmpq	$-1, %r15
Ltmp904:
	.loc	51 505 9
	jne	LBB34_44
Ltmp905:
LBB34_43:
	.loc	51 0 9 is_stmt 0
	movq	$-1, %rdi
Ltmp906:
LBB34_48:
Ltmp691:
	.loc	13 771 33 is_stmt 1
	callq	__ZN9hashbrown3raw23bucket_mask_to_capacity17h0acd005f12c39704E
Ltmp692:
Ltmp907:
	.loc	13 771 13 is_stmt 0
	subq	32(%rbx), %rax
	movq	%rax, 24(%rbx)
Ltmp908:
	.loc	13 665 13 is_stmt 1
	movq	$0, (%r14)
Ltmp909:
LBB34_12:
	.loc	13 675 6
	addq	$168, %rsp
	popq	%rbx
	popq	%r12
	popq	%r13
	popq	%r14
	popq	%r15
	popq	%rbp
	retq
Ltmp910:
LBB34_14:
	.loc	13 0 6 is_stmt 0
	movq	%r13, -64(%rbp)
Ltmp911:
	movq	%r14, -56(%rbp)
Ltmp912:
	.loc	13 364 51 is_stmt 1
	callq	__ZN9hashbrown3raw4sse25Group12static_empty17h2e96e5fa45e5688dE
Ltmp913:
	movq	%rax, %rbx
Ltmp914:
	.loc	13 0 51 is_stmt 0
	movl	$8, %esi
	xorl	%eax, %eax
Ltmp915:
	movq	%rax, -88(%rbp)
Ltmp916:
	xorl	%r12d, %r12d
Ltmp917:
LBB34_15:
	movq	-48(%rbp), %rcx
Ltmp918:
	.loc	13 789 38 is_stmt 1
	movq	32(%rcx), %rax
Ltmp919:
	.loc	13 0 38 is_stmt 0
	movq	%rax, -168(%rbp)
Ltmp920:
	.loc	13 798 57 is_stmt 1
	movq	%rbx, %xmm0
	movq	%r12, %xmm1
	punpcklqdq	%xmm0, %xmm1
	movdqa	%xmm1, -208(%rbp)
Ltmp921:
	.loc	13 941 44
	movq	16(%rcx), %r14
Ltmp922:
	.loc	13 919 9
	movq	(%rcx), %rax
Ltmp923:
	.loc	13 943 37
	movq	8(%rcx), %r13
Ltmp924:
	.file	52 "/rustc/6c8927b0cf80ceee19386026cf9d7fd4fd9d486f/src/libcore/ptr/const_ptr.rs"
	.loc	52 164 18
	leaq	1(%rax,%r13), %rax
Ltmp925:
	.loc	33 1204 5
	movdqa	(%r13), %xmm0
Ltmp926:
	.loc	33 1401 5
	pmovmskb	%xmm0, %r15d
Ltmp927:
	.loc	34 25 17
	notl	%r15d
Ltmp928:
	.loc	52 164 18
	addq	$16, %r13
Ltmp929:
	.loc	52 0 18 is_stmt 0
	movq	-64(%rbp), %rcx
Ltmp930:
	movq	(%rcx), %rcx
Ltmp931:
	movq	%rcx, -176(%rbp)
	movq	%rsi, -80(%rbp)
	movq	%rax, -72(%rbp)
Ltmp932:
	.loc	34 43 12 is_stmt 1
	testw	%r15w, %r15w
	.loc	34 43 9 is_stmt 0
	jne	LBB34_20
Ltmp933:
	.p2align	4, 0x90
LBB34_17:
	.loc	13 1195 20 is_stmt 1
	cmpq	%rax, %r13
	.loc	13 1195 17 is_stmt 0
	jae	LBB34_25
Ltmp934:
	.loc	33 1204 5 is_stmt 1
	movdqa	(%r13), %xmm0
Ltmp935:
	.loc	33 1401 5
	pmovmskb	%xmm0, %r15d
Ltmp936:
	.loc	13 303 9
	addq	$256, %r14
Ltmp937:
	.loc	52 164 18
	addq	$16, %r13
Ltmp938:
	.loc	34 43 12
	cmpw	$-1, %r15w
	.loc	34 43 9 is_stmt 0
	je	LBB34_17
Ltmp939:
	.loc	34 25 17 is_stmt 1
	notl	%r15d
Ltmp940:
LBB34_20:
	.loc	34 55 9
	bsfw	%r15w, %ax
	movzwl	%ax, %eax
Ltmp941:
	.loc	13 303 9
	shlq	$4, %rax
	leaq	(%r14,%rax), %rcx
Ltmp942:
	.loc	13 0 9 is_stmt 0
	movq	%rcx, -64(%rbp)
Ltmp943:
	.loc	13 807 28 is_stmt 1
	movq	(%r14,%rax), %rdi
	movq	-176(%rbp), %rcx
Ltmp944:
	.loc	26 856 47
	movq	(%rcx), %rax
	movq	8(%rcx), %rcx
Ltmp945:
	.loc	32 219 9
	movq	%rax, %xmm0
	pshufd	$68, %xmm0, %xmm0
	pxor	LCPI34_1(%rip), %xmm0
	.loc	32 220 9
	movq	%rcx, %xmm1
	pshufd	$68, %xmm1, %xmm1
	pxor	LCPI34_2(%rip), %xmm1
Ltmp946:
	.loc	11 2496 9
	movq	%rax, -160(%rbp)
	movq	%rcx, -152(%rbp)
	movq	$0, -144(%rbp)
	movdqu	%xmm0, -136(%rbp)
	movdqu	%xmm1, -120(%rbp)
	leaq	-104(%rbp), %rax
Ltmp947:
	movq	$0, 8(%rax)
	movq	$0, (%rax)
Ltmp948:
	.loc	26 202 5
	leaq	-160(%rbp), %rsi
	callq	__ZN58_$LT$std..thread..ThreadId$u20$as$u20$core..hash..Hash$GT$4hash17hc40d17ae6866d604E
Ltmp949:
	.loc	32 312 24
	movq	-144(%rbp), %rdi
Ltmp950:
	.loc	32 310 25
	movq	-120(%rbp), %rax
Ltmp951:
	.loc	32 312 22
	shlq	$56, %rdi
	orq	-104(%rbp), %rdi
	movq	-112(%rbp), %rcx
	movq	-136(%rbp), %rsi
Ltmp952:
	.loc	12 3439 17
	addq	%rax, %rsi
Ltmp953:
	.loc	12 2763 17
	rolq	$13, %rax
Ltmp954:
	.loc	32 314 9
	xorq	%rdi, %rcx
Ltmp955:
	.loc	32 85 35
	xorq	%rsi, %rax
Ltmp956:
	.loc	12 2763 17
	rolq	$32, %rsi
Ltmp957:
	.loc	12 0 17 is_stmt 0
	movq	-128(%rbp), %rdx
Ltmp958:
	.loc	12 3439 17 is_stmt 1
	addq	%rcx, %rdx
Ltmp959:
	.loc	12 2763 17
	rolq	$16, %rcx
Ltmp960:
	.loc	32 85 57
	xorq	%rdx, %rcx
Ltmp961:
	.loc	12 3439 17
	addq	%rcx, %rsi
Ltmp962:
	.loc	12 2763 17
	rolq	$21, %rcx
Ltmp963:
	.loc	12 3439 17
	addq	%rax, %rdx
Ltmp964:
	.loc	12 2763 17
	rolq	$17, %rax
Ltmp965:
	.loc	32 85 35
	xorq	%rsi, %rcx
Ltmp966:
	.loc	32 85 57 is_stmt 0
	xorq	%rdx, %rax
Ltmp967:
	.loc	12 2763 17 is_stmt 1
	rolq	$32, %rdx
Ltmp968:
	.loc	32 316 9
	xorq	%rdi, %rsi
Ltmp969:
	.loc	12 3439 17
	addq	%rax, %rsi
Ltmp970:
	.loc	12 2763 17
	rolq	$13, %rax
Ltmp971:
	.loc	32 85 35
	xorq	%rsi, %rax
Ltmp972:
	.loc	12 2763 17
	rolq	$32, %rsi
Ltmp973:
	.loc	32 318 9
	xorq	$255, %rdx
Ltmp974:
	.loc	12 3439 17
	addq	%rcx, %rdx
Ltmp975:
	.loc	12 2763 17
	rolq	$16, %rcx
Ltmp976:
	.loc	32 85 57
	xorq	%rdx, %rcx
Ltmp977:
	.loc	12 3439 17
	addq	%rcx, %rsi
Ltmp978:
	.loc	12 2763 17
	rolq	$21, %rcx
Ltmp979:
	.loc	12 3439 17
	addq	%rax, %rdx
Ltmp980:
	.loc	12 2763 17
	rolq	$17, %rax
Ltmp981:
	.loc	32 85 57
	xorq	%rdx, %rax
Ltmp982:
	.loc	12 2763 17
	rolq	$32, %rdx
Ltmp983:
	.loc	32 85 35
	xorq	%rsi, %rcx
Ltmp984:
	.loc	12 3439 17
	addq	%rax, %rsi
Ltmp985:
	.loc	12 2763 17
	rolq	$13, %rax
Ltmp986:
	.loc	32 85 35
	xorq	%rsi, %rax
Ltmp987:
	.loc	12 2763 17
	rolq	$32, %rsi
Ltmp988:
	.loc	12 3439 17
	addq	%rcx, %rdx
Ltmp989:
	.loc	12 2763 17
	rolq	$16, %rcx
Ltmp990:
	.loc	32 85 57
	xorq	%rdx, %rcx
Ltmp991:
	.loc	12 3439 17
	addq	%rcx, %rsi
Ltmp992:
	.loc	12 2763 17
	rolq	$21, %rcx
Ltmp993:
	.loc	12 3439 17
	addq	%rax, %rdx
Ltmp994:
	.loc	12 2763 17
	rolq	$17, %rax
Ltmp995:
	.loc	32 85 57
	xorq	%rdx, %rax
Ltmp996:
	.loc	12 2763 17
	rolq	$32, %rdx
Ltmp997:
	.loc	32 85 35
	xorq	%rsi, %rcx
Ltmp998:
	.loc	12 3439 17
	addq	%rax, %rsi
Ltmp999:
	.loc	12 2763 17
	rolq	$13, %rax
Ltmp1000:
	.loc	32 85 35
	xorq	%rsi, %rax
Ltmp1001:
	.loc	12 3439 17
	addq	%rcx, %rdx
Ltmp1002:
	.loc	12 2763 17
	rolq	$16, %rcx
Ltmp1003:
	.loc	32 85 57
	xorq	%rdx, %rcx
Ltmp1004:
	.loc	12 2763 17
	rolq	$21, %rcx
Ltmp1005:
	.loc	12 3439 17
	addq	%rax, %rdx
Ltmp1006:
	.loc	12 2763 17
	rolq	$17, %rax
Ltmp1007:
	.loc	12 2763 17 is_stmt 0
	movq	%rdx, %rsi
	rolq	$32, %rsi
Ltmp1008:
	.loc	32 321 9 is_stmt 1
	xorq	%rdx, %rax
Ltmp1009:
	.loc	32 85 35
	xorq	%rsi, %rax
Ltmp1010:
	.loc	32 321 9
	xorq	%rcx, %rax
Ltmp1011:
	.loc	32 0 9 is_stmt 0
	movq	%rax, %rdi
Ltmp1012:
	xorl	%edx, %edx
Ltmp1013:
	.p2align	4, 0x90
LBB34_21:
	movq	%rdi, %rcx
	andq	%r12, %rcx
Ltmp1014:
	.loc	7 2130 14 is_stmt 1
	movdqu	(%rbx,%rcx), %xmm0
Ltmp1015:
	.loc	33 1401 5
	pmovmskb	%xmm0, %esi
Ltmp1016:
	.loc	13 168 9
	leaq	16(%rdx,%rcx), %rdi
	.loc	13 167 9
	addq	$16, %rdx
Ltmp1017:
	.loc	34 43 12
	testw	%si, %si
	.loc	34 43 9 is_stmt 0
	je	LBB34_21
Ltmp1018:
	.loc	34 32 26 is_stmt 1
	leal	-1(%r15), %edx
	.loc	34 32 17 is_stmt 0
	andl	%r15d, %edx
Ltmp1019:
	.loc	34 55 9 is_stmt 1
	bsfw	%si, %si
Ltmp1020:
	movzwl	%si, %esi
Ltmp1021:
	.loc	13 534 34
	addq	%rsi, %rcx
Ltmp1022:
	andq	%r12, %rcx
Ltmp1023:
	.loc	13 104 5
	cmpb	$0, (%rbx,%rcx)
Ltmp1024:
	.loc	13 545 21
	jns	LBB34_23
Ltmp1025:
LBB34_24:
	.loc	13 136 16
	shrq	$57, %rax
Ltmp1026:
	.loc	12 3462 17
	leaq	-16(%rcx), %rsi
Ltmp1027:
	.loc	13 518 22
	andq	%r12, %rsi
Ltmp1028:
	.loc	13 520 9
	movb	%al, (%rbx,%rcx)
Ltmp1029:
	.loc	13 521 9
	movb	%al, 16(%rsi,%rbx)
Ltmp1030:
	.loc	13 285 9
	shlq	$4, %rcx
Ltmp1031:
	.loc	13 0 9 is_stmt 0
	movq	-64(%rbp), %rsi
Ltmp1032:
	.loc	7 2130 14 is_stmt 1
	movq	(%rsi), %rax
Ltmp1033:
	movq	8(%rsi), %rsi
	movq	-80(%rbp), %rdi
Ltmp1034:
	movq	%rsi, 8(%rdi,%rcx)
	movq	%rdi, %rsi
Ltmp1035:
	movq	%rax, (%rdi,%rcx)
Ltmp1036:
	.loc	13 0 0 is_stmt 0
	movl	%edx, %r15d
	movq	-72(%rbp), %rax
Ltmp1037:
	.loc	34 43 12 is_stmt 1
	testw	%r15w, %r15w
	jne	LBB34_20
	jmp	LBB34_17
Ltmp1038:
LBB34_23:
	.loc	33 1204 5
	movdqa	(%rbx), %xmm0
Ltmp1039:
	.loc	33 1401 5
	pmovmskb	%xmm0, %ecx
Ltmp1040:
	.loc	34 55 9
	bsfw	%cx, %cx
Ltmp1041:
	movzwl	%cx, %ecx
	jmp	LBB34_24
Ltmp1042:
LBB34_25:
	.loc	13 798 57
	movq	%rsi, %xmm1
	movq	-88(%rbp), %rax
	movq	-168(%rbp), %rcx
	.loc	13 789 13
	subq	%rcx, %rax
	.loc	13 798 57
	movq	%rax, %xmm0
	punpcklqdq	%xmm0, %xmm1
Ltmp1043:
	.loc	13 0 57 is_stmt 0
	movq	-48(%rbp), %rax
Ltmp1044:
	.loc	7 2130 14 is_stmt 1
	movdqu	(%rax), %xmm0
Ltmp1045:
	.loc	7 0 14 is_stmt 0
	movaps	-208(%rbp), %xmm2
Ltmp1046:
	.loc	7 2130 14
	movups	%xmm2, (%rax)
	movdqu	%xmm1, 16(%rax)
Ltmp1047:
	.loc	7 2130 14
	movq	%rcx, 32(%rax)
Ltmp1048:
	.loc	7 0 14
	movq	-56(%rbp), %rax
Ltmp1049:
	.loc	13 824 13 is_stmt 1
	movq	$0, (%rax)
Ltmp1050:
	.loc	13 932 9
	movq	%xmm0, %rcx
	testq	%rcx, %rcx
Ltmp1051:
	.loc	13 799 17
	je	LBB34_12
Ltmp1052:
	.loc	13 919 9
	leaq	1(%rcx), %rax
	movl	$16, %edx
Ltmp1053:
	.loc	19 286 85
	xorl	%esi, %esi
Ltmp1054:
	.loc	12 3807 26
	mulq	%rdx
Ltmp1055:
	.loc	19 286 85
	setno	%dl
Ltmp1056:
	.loc	13 223 48
	jo	LBB34_27
Ltmp1057:
	.loc	13 0 0 is_stmt 0
	movb	%dl, %sil
	shlq	$3, %rsi
Ltmp1058:
	.loc	12 3462 17 is_stmt 1
	leaq	16(%rcx,%rsi), %rdx
Ltmp1059:
	.loc	13 233 59
	addq	$17, %rcx
Ltmp1060:
	.loc	19 248 72
	negq	%rsi
Ltmp1061:
	.loc	19 248 30 is_stmt 0
	andq	%rdx, %rsi
Ltmp1062:
	.loc	12 3462 17 is_stmt 1
	subq	%rcx, %rsi
Ltmp1063:
	.loc	12 3751 30
	addq	%rcx, %rsi
Ltmp1064:
	.loc	19 344 83
	jae	LBB34_29
Ltmp1065:
LBB34_27:
	.loc	19 0 83 is_stmt 0
	xorl	%edx, %edx
	jmp	LBB34_30
Ltmp1066:
LBB34_29:
	.loc	12 3751 30 is_stmt 1
	leaq	(%rsi,%rax), %rcx
Ltmp1067:
	xorl	%edi, %edi
	cmpq	$-15, %rcx
	setb	%dil
Ltmp1068:
	.loc	19 345 88
	shlq	$4, %rdi
	xorl	%edx, %edx
Ltmp1069:
	.loc	12 3751 30
	addq	%rax, %rsi
Ltmp1070:
	.loc	19 345 88
	cmovaeq	%rdi, %rdx
Ltmp1071:
LBB34_30:
	.loc	13 427 17
	pshufd	$78, %xmm0, %xmm0
	movq	%xmm0, %rdi
Ltmp1072:
	.loc	15 102 14
	addq	$168, %rsp
	popq	%rbx
Ltmp1073:
	popq	%r12
Ltmp1074:
	popq	%r13
	popq	%r14
	popq	%r15
	popq	%rbp
	jmp	___rust_dealloc
Ltmp1075:
LBB34_9:
	.loc	13 383 62
	movl	$16, %edx
	movl	$1, %edi
	movq	%r15, %rsi
	callq	__ZN9hashbrown3raw11Fallibility9alloc_err17h640c17cab3a4c34eE
Ltmp1076:
	.loc	13 0 62 is_stmt 0
	jmp	LBB34_11
Ltmp1077:
LBB34_31:
Ltmp693:
	movq	%rax, %rbx
	leaq	-184(%rbp), %rdi
Ltmp1078:
	.loc	13 773 9 is_stmt 1
	callq	__ZN4core3ptr13drop_in_place17h6ac4381e58d04a12E
	movq	%rbx, %rdi
	callq	__Unwind_Resume
	ud2
Ltmp1079:
Lfunc_end34:
	.cfi_endproc
	.section	__TEXT,__gcc_except_tab
	.p2align	2
GCC_except_table34:
Lexception6:
	.byte	255
	.byte	255
	.byte	1
	.uleb128 Lcst_end6-Lcst_begin6
Lcst_begin6:
	.uleb128 Lfunc_begin34-Lfunc_begin34
	.uleb128 Ltmp691-Lfunc_begin34
	.byte	0
	.byte	0
	.uleb128 Ltmp691-Lfunc_begin34
	.uleb128 Ltmp692-Ltmp691
	.uleb128 Ltmp693-Lfunc_begin34
	.byte	0
	.uleb128 Ltmp692-Lfunc_begin34
	.uleb128 Lfunc_end34-Ltmp692
	.byte	0
	.byte	0
Lcst_end6:
	.p2align	2

	.section	__TEXT,__text,regular,pure_instructions
	.globl	__ZN70_$LT$crossbeam_utils..backoff..Backoff$u20$as$u20$core..fmt..Debug$GT$3fmt17hd871e3d67558f36fE
	.p2align	4, 0x90
__ZN70_$LT$crossbeam_utils..backoff..Backoff$u20$as$u20$core..fmt..Debug$GT$3fmt17hd871e3d67558f36fE:
Lfunc_begin35:
	.file	53 "/Users/yingyuhang/.cargo/registry/src/github.com-1ecc6299db9ec823/crossbeam-utils-0.7.2/src/backoff.rs"
	.loc	53 280 0
	.cfi_startproc
	pushq	%rbp
	.cfi_def_cfa_offset 16
	.cfi_offset %rbp, -16
	movq	%rsp, %rbp
	.cfi_def_cfa_register %rbp
	pushq	%r14
	pushq	%rbx
	subq	$32, %rsp
	.cfi_offset %rbx, -32
	.cfi_offset %r14, -24
	movq	%rdi, %rbx
Ltmp1080:
	.loc	53 281 9 prologue_end
	leaq	l___unnamed_30(%rip), %rdx
	leaq	-40(%rbp), %r14
	movl	$7, %ecx
	movq	%r14, %rdi
	callq	__ZN4core3fmt9Formatter12debug_struct17ha1a64e91d2a98458E
Ltmp1081:
	leaq	L___unnamed_31(%rip), %rsi
	leaq	l___unnamed_10(%rip), %r8
	movl	$4, %edx
	movq	%r14, %rdi
	movq	%rbx, %rcx
	callq	__ZN4core3fmt8builders11DebugStruct5field17h6c54d35ac41bb1e6E
Ltmp1082:
	.loc	53 268 9
	cmpl	$10, (%rbx)
Ltmp1083:
	.loc	53 283 37
	seta	-17(%rbp)
	.loc	53 281 9
	leaq	l___unnamed_32(%rip), %rsi
	leaq	l___unnamed_11(%rip), %r8
	leaq	-17(%rbp), %rcx
	movl	$12, %edx
	movq	%rax, %rdi
	callq	__ZN4core3fmt8builders11DebugStruct5field17h6c54d35ac41bb1e6E
	movq	%rax, %rdi
	callq	__ZN4core3fmt8builders11DebugStruct6finish17h67ed49fd5e81bb24E
	.loc	53 285 6
	addq	$32, %rsp
	popq	%rbx
Ltmp1084:
	popq	%r14
	popq	%rbp
	retq
Ltmp1085:
Lfunc_end35:
	.cfi_endproc

	.globl	__ZN76_$LT$crossbeam_utils..backoff..Backoff$u20$as$u20$core..default..Default$GT$7default17h29400af092e442c3E
	.p2align	4, 0x90
__ZN76_$LT$crossbeam_utils..backoff..Backoff$u20$as$u20$core..default..Default$GT$7default17h29400af092e442c3E:
Lfunc_begin36:
	.loc	53 289 0
	.cfi_startproc
	pushq	%rbp
	.cfi_def_cfa_offset 16
	.cfi_offset %rbp, -16
	movq	%rsp, %rbp
	.cfi_def_cfa_register %rbp
Ltmp1086:
	.loc	53 291 6 prologue_end
	xorl	%eax, %eax
	popq	%rbp
	retq
Ltmp1087:
Lfunc_end36:
	.cfi_endproc

	.section	__TEXT,__literal16,16byte_literals
	.p2align	4
LCPI37_0:
	.quad	1
	.quad	1
	.section	__TEXT,__text,regular,pure_instructions
	.globl	__ZN15crossbeam_utils4sync6parker6Parker3new17he119565c18ef1e94E
	.p2align	4, 0x90
__ZN15crossbeam_utils4sync6parker6Parker3new17he119565c18ef1e94E:
Lfunc_begin37:
	.file	54 "/Users/yingyuhang/.cargo/registry/src/github.com-1ecc6299db9ec823/crossbeam-utils-0.7.2/src/sync/parker.rs"
	.loc	54 72 0
	.cfi_startproc
	.cfi_personality 155, _rust_eh_personality
	.cfi_lsda 16, Lexception7
	pushq	%rbp
	.cfi_def_cfa_offset 16
	.cfi_offset %rbp, -16
	movq	%rsp, %rbp
	.cfi_def_cfa_register %rbp
Ltmp1097:
	pushq	%r14
	pushq	%rbx
	subq	$64, %rsp
	.cfi_offset %rbx, -32
	.cfi_offset %r14, -24
Ltmp1098:
	.loc	15 80 14 prologue_end
	movl	$64, %edi
	movl	$8, %esi
	callq	___rust_alloc
Ltmp1099:
	.loc	15 278 9
	testq	%rax, %rax
	je	LBB37_11
Ltmp1100:
	.loc	16 0 0 is_stmt 0
	movq	%rax, %rbx
Ltmp1088:
	.loc	16 223 24 is_stmt 1
	movq	%rax, %rdi
	callq	__ZN3std10sys_common5mutex5Mutex3new17hfec750c2ce1161a9E
Ltmp1089:
	.loc	16 223 20 is_stmt 0
	movq	%rbx, -32(%rbp)
Ltmp1091:
	.loc	16 224 21 is_stmt 1
	callq	__ZN3std10sys_common6poison4Flag3new17hd7ec4e2336668a12E
Ltmp1092:
	.loc	16 222 21
	movq	%rbx, -48(%rbp)
	movb	%al, -40(%rbp)
Ltmp1101:
	.loc	16 0 21 is_stmt 0
	leaq	-32(%rbp), %r14
Ltmp1102:
	.loc	17 52 17 is_stmt 1
	movq	%r14, %rdi
	callq	_pthread_mutexattr_init
Ltmp1103:
	.loc	17 54 17
	movq	%r14, %rdi
	xorl	%esi, %esi
	callq	_pthread_mutexattr_settype
Ltmp1104:
	.loc	17 56 17
	movq	%rbx, %rdi
	movq	%r14, %rsi
	callq	_pthread_mutex_init
Ltmp1105:
	.loc	17 58 17
	movq	%r14, %rdi
	callq	_pthread_mutexattr_destroy
Ltmp1094:
	leaq	-32(%rbp), %rdi
Ltmp1106:
	.loc	54 78 27
	callq	__ZN3std4sync7condvar7Condvar3new17h64fee8df7a382290E
Ltmp1095:
Ltmp1107:
	.loc	54 75 33
	movq	-48(%rbp), %rax
	movq	-40(%rbp), %rcx
	movq	%rcx, -72(%rbp)
	movq	%rax, -80(%rbp)
	movq	-32(%rbp), %rax
	movq	-24(%rbp), %rcx
	movq	%rax, -64(%rbp)
	movq	%rcx, -56(%rbp)
Ltmp1108:
	.loc	15 80 14
	movl	$56, %edi
	movl	$8, %esi
	callq	___rust_alloc
Ltmp1109:
	.loc	15 278 9
	testq	%rax, %rax
	je	LBB37_5
Ltmp1110:
	.loc	28 323 29
	movaps	LCPI37_0(%rip), %xmm0
	movups	%xmm0, (%rax)
	movq	$0, 16(%rax)
	movq	-80(%rbp), %rcx
	movq	-72(%rbp), %rdx
	movq	%rcx, 24(%rax)
	movq	%rdx, 32(%rax)
	movq	-64(%rbp), %rcx
	movq	-56(%rbp), %rdx
	movq	%rcx, 40(%rax)
	movq	%rdx, 48(%rax)
Ltmp1111:
	.loc	54 83 6
	addq	$64, %rsp
	popq	%rbx
	popq	%r14
	popq	%rbp
	retq
Ltmp1112:
LBB37_11:
	.loc	15 279 19
	movl	$64, %edi
	movl	$8, %esi
	callq	__ZN5alloc5alloc18handle_alloc_error17h28974197717b8939E
Ltmp1113:
LBB37_5:
	.loc	15 279 19 is_stmt 0
	movl	$56, %edi
	movl	$8, %esi
	callq	__ZN5alloc5alloc18handle_alloc_error17h28974197717b8939E
Ltmp1114:
LBB37_9:
Ltmp1096:
	.loc	15 0 19
	movq	%rax, %r14
	leaq	-48(%rbp), %rdi
	.loc	54 79 17 is_stmt 1
	callq	__ZN4core3ptr13drop_in_place17h63e0ef2b98867c39E
	jmp	LBB37_10
LBB37_7:
Ltmp1093:
	.loc	54 0 17 is_stmt 0
	movq	%rax, %r14
	leaq	-32(%rbp), %rdi
Ltmp1115:
	.loc	16 226 9 is_stmt 1
	callq	__ZN4core3ptr13drop_in_place17ha6109a68f098ccf3E
	jmp	LBB37_10
LBB37_6:
Ltmp1090:
	.loc	16 0 9 is_stmt 0
	movq	%rax, %r14
	.loc	16 223 40 is_stmt 1
	movq	%rbx, %rdi
	callq	__ZN5alloc5alloc8box_free17h9af06c4ad689b187E
Ltmp1116:
LBB37_10:
	.loc	16 0 40 is_stmt 0
	movq	%r14, %rdi
	callq	__Unwind_Resume
	ud2
Lfunc_end37:
	.cfi_endproc
	.section	__TEXT,__gcc_except_tab
	.p2align	2
GCC_except_table37:
Lexception7:
	.byte	255
	.byte	255
	.byte	1
	.uleb128 Lcst_end7-Lcst_begin7
Lcst_begin7:
	.uleb128 Ltmp1088-Lfunc_begin37
	.uleb128 Ltmp1089-Ltmp1088
	.uleb128 Ltmp1090-Lfunc_begin37
	.byte	0
	.uleb128 Ltmp1091-Lfunc_begin37
	.uleb128 Ltmp1092-Ltmp1091
	.uleb128 Ltmp1093-Lfunc_begin37
	.byte	0
	.uleb128 Ltmp1094-Lfunc_begin37
	.uleb128 Ltmp1095-Ltmp1094
	.uleb128 Ltmp1096-Lfunc_begin37
	.byte	0
	.uleb128 Ltmp1095-Lfunc_begin37
	.uleb128 Lfunc_end37-Ltmp1095
	.byte	0
	.byte	0
Lcst_end7:
	.p2align	2

	.section	__TEXT,__text,regular,pure_instructions
	.globl	__ZN15crossbeam_utils4sync6parker6Parker4park17hf88c29fc96f9838eE
	.p2align	4, 0x90
__ZN15crossbeam_utils4sync6parker6Parker4park17hf88c29fc96f9838eE:
Lfunc_begin38:
	.loc	54 104 0 is_stmt 1
	.cfi_startproc
	pushq	%rbp
	.cfi_def_cfa_offset 16
	.cfi_offset %rbp, -16
	movq	%rsp, %rbp
	.cfi_def_cfa_register %rbp
	subq	$32, %rsp
Ltmp1117:
	.loc	54 105 9 prologue_end
	movq	(%rdi), %rdi
Ltmp1118:
	.loc	28 1116 9
	addq	$16, %rdi
Ltmp1119:
	.loc	54 105 34
	movq	$0, -24(%rbp)
	leaq	-24(%rbp), %rsi
	.loc	54 105 9 is_stmt 0
	callq	__ZN15crossbeam_utils4sync6parker5Inner4park17h5038738892f575e5E
	.loc	54 106 6 is_stmt 1
	addq	$32, %rsp
	popq	%rbp
	retq
Ltmp1120:
Lfunc_end38:
	.cfi_endproc

	.globl	__ZN15crossbeam_utils4sync6parker6Parker12park_timeout17hc492c618f18a7522E
	.p2align	4, 0x90
__ZN15crossbeam_utils4sync6parker6Parker12park_timeout17hc492c618f18a7522E:
Lfunc_begin39:
	.loc	54 124 0
	.cfi_startproc
	pushq	%rbp
	.cfi_def_cfa_offset 16
	.cfi_offset %rbp, -16
	movq	%rsp, %rbp
	.cfi_def_cfa_register %rbp
	subq	$32, %rsp
Ltmp1121:
	.loc	54 125 9 prologue_end
	movq	(%rdi), %rdi
Ltmp1122:
	.loc	28 1116 9
	addq	$16, %rdi
Ltmp1123:
	.loc	54 125 34
	movq	%rsi, -16(%rbp)
	movl	%edx, -8(%rbp)
	movq	$1, -24(%rbp)
	leaq	-24(%rbp), %rsi
Ltmp1124:
	.loc	54 125 9 is_stmt 0
	callq	__ZN15crossbeam_utils4sync6parker5Inner4park17h5038738892f575e5E
Ltmp1125:
	.loc	54 126 6 is_stmt 1
	addq	$32, %rsp
	popq	%rbp
	retq
Ltmp1126:
Lfunc_end39:
	.cfi_endproc

	.globl	__ZN15crossbeam_utils4sync6parker6Parker8unparker17h24c9c07197b12043E
	.p2align	4, 0x90
__ZN15crossbeam_utils4sync6parker6Parker8unparker17h24c9c07197b12043E:
Lfunc_begin40:
	.loc	54 150 0
	.cfi_startproc
	pushq	%rbp
	.cfi_def_cfa_offset 16
	.cfi_offset %rbp, -16
	movq	%rsp, %rbp
	.cfi_def_cfa_register %rbp
	movq	%rdi, %rax
Ltmp1127:
	.loc	54 152 6 prologue_end
	popq	%rbp
	retq
Ltmp1128:
Lfunc_end40:
	.cfi_endproc

	.globl	__ZN74_$LT$crossbeam_utils..sync..parker..Parker$u20$as$u20$core..fmt..Debug$GT$3fmt17h3765fd78661e5406E
	.p2align	4, 0x90
__ZN74_$LT$crossbeam_utils..sync..parker..Parker$u20$as$u20$core..fmt..Debug$GT$3fmt17h3765fd78661e5406E:
Lfunc_begin41:
	.loc	54 156 0
	.cfi_startproc
	pushq	%rbp
	.cfi_def_cfa_offset 16
	.cfi_offset %rbp, -16
	movq	%rsp, %rbp
	.cfi_def_cfa_register %rbp
	movq	%rsi, %rdi
Ltmp1129:
	.loc	54 157 9 prologue_end
	leaq	l___unnamed_33(%rip), %rsi
	movl	$13, %edx
	popq	%rbp
	jmp	__ZN4core3fmt9Formatter3pad17h426409b23b74b394E
Ltmp1130:
Lfunc_end41:
	.cfi_endproc

	.globl	__ZN15crossbeam_utils4sync6parker8Unparker6unpark17h9f4b22e0ca13b35dE
	.p2align	4, 0x90
__ZN15crossbeam_utils4sync6parker8Unparker6unpark17h9f4b22e0ca13b35dE:
Lfunc_begin42:
	.loc	54 199 0
	.cfi_startproc
	.cfi_personality 155, _rust_eh_personality
	.cfi_lsda 16, Lexception8
	pushq	%rbp
	.cfi_def_cfa_offset 16
	.cfi_offset %rbp, -16
	movq	%rsp, %rbp
	.cfi_def_cfa_register %rbp
Ltmp1134:
	pushq	%r14
	pushq	%rbx
	subq	$16, %rsp
	.cfi_offset %rbx, -32
	.cfi_offset %r14, -24
	.loc	54 200 9 prologue_end
	movq	(%rdi), %rbx
	movl	$2, %eax
Ltmp1135:
	.loc	29 2374 23
	xchgq	%rax, 16(%rbx)
Ltmp1136:
	.loc	54 298 13
	testq	%rax, %rax
	je	LBB42_16
Ltmp1137:
	cmpq	$1, %rax
	je	LBB42_4
Ltmp1138:
	cmpq	$2, %rax
	jne	LBB42_3
Ltmp1139:
LBB42_16:
	.loc	54 201 6
	addq	$16, %rsp
	popq	%rbx
	popq	%r14
	popq	%rbp
	retq
Ltmp1140:
LBB42_4:
	.loc	16 273 13
	movq	24(%rbx), %rdi
Ltmp1141:
	.loc	17 63 17
	callq	_pthread_mutex_lock
Ltmp1142:
	.loc	29 2356 24
	movq	__ZN3std9panicking11panic_count18GLOBAL_PANIC_COUNT17h5754c1d48a496461E@GOTPCREL(%rip), %r14
Ltmp1143:
	movq	(%r14), %rax
Ltmp1144:
	.loc	30 262 12
	testq	%rax, %rax
	.loc	30 262 9 is_stmt 0
	jne	LBB42_6
Ltmp1145:
	.loc	30 0 9
	xorl	%eax, %eax
Ltmp1146:
	.loc	29 2356 24 is_stmt 1
	movb	32(%rbx), %cl
Ltmp1147:
	.loc	29 410 18
	testb	%cl, %cl
Ltmp1148:
	.loc	22 1004 13
	jne	LBB42_8
Ltmp1149:
LBB42_11:
	.loc	54 312 14
	testb	%al, %al
Ltmp1150:
	.loc	35 34 12
	jne	LBB42_15
Ltmp1151:
	.loc	29 2356 24
	movq	(%r14), %rax
Ltmp1152:
	.loc	30 262 12
	testq	%rax, %rax
	.loc	30 262 9 is_stmt 0
	jne	LBB42_13
Ltmp1153:
LBB42_15:
	.loc	16 500 13 is_stmt 1
	movq	24(%rbx), %rdi
Ltmp1154:
	.loc	17 68 17
	callq	_pthread_mutex_unlock
Ltmp1155:
	.loc	54 313 9
	addq	$40, %rbx
Ltmp1156:
	movq	%rbx, %rdi
	addq	$16, %rsp
	popq	%rbx
	popq	%r14
	popq	%rbp
	jmp	__ZN3std4sync7condvar7Condvar10notify_one17h34ab6c85c81fba1aE
Ltmp1157:
LBB42_6:
	.loc	30 274 13
	callq	__ZN3std9panicking11panic_count17is_zero_slow_path17ha588394117c50e3dE
	xorb	$1, %al
Ltmp1158:
	.loc	29 2356 24
	movb	32(%rbx), %cl
Ltmp1159:
	.loc	29 410 18
	testb	%cl, %cl
Ltmp1160:
	.loc	22 1004 13
	je	LBB42_11
Ltmp1161:
LBB42_8:
	.loc	54 0 0 is_stmt 0
	addq	$24, %rbx
Ltmp1162:
	.loc	22 1005 17 is_stmt 1
	movq	%rbx, -32(%rbp)
	movb	%al, -24(%rbp)
Ltmp1131:
Ltmp1163:
	.loc	22 1005 23 is_stmt 0
	leaq	l___unnamed_21(%rip), %rdi
	leaq	l___unnamed_6(%rip), %rcx
	leaq	l___unnamed_34(%rip), %r8
	leaq	-32(%rbp), %rdx
	movl	$43, %esi
	callq	__ZN4core6result13unwrap_failed17hc193898ef513e81fE
Ltmp1164:
Ltmp1132:
	.loc	22 0 23
	ud2
Ltmp1165:
LBB42_13:
	.loc	30 274 13 is_stmt 1
	callq	__ZN3std9panicking11panic_count17is_zero_slow_path17ha588394117c50e3dE
Ltmp1166:
	.loc	35 34 12
	testb	%al, %al
	jne	LBB42_15
Ltmp1167:
	.loc	29 2342 24
	movb	$1, 32(%rbx)
Ltmp1168:
	.loc	29 0 24 is_stmt 0
	jmp	LBB42_15
Ltmp1169:
LBB42_3:
	.loc	54 301 18 is_stmt 1
	callq	__ZN3std9panicking11begin_panic17h47b077c77685a7e7E
Ltmp1170:
LBB42_10:
Ltmp1133:
	.loc	54 0 18 is_stmt 0
	movq	%rax, %rbx
Ltmp1171:
	leaq	-32(%rbp), %rdi
Ltmp1172:
	.loc	22 1005 86 is_stmt 1
	callq	__ZN4core3ptr13drop_in_place17h13ded0c92087dc3fE
	movq	%rbx, %rdi
	callq	__Unwind_Resume
	ud2
Ltmp1173:
Lfunc_end42:
	.cfi_endproc
	.section	__TEXT,__gcc_except_tab
	.p2align	2
GCC_except_table42:
Lexception8:
	.byte	255
	.byte	255
	.byte	1
	.uleb128 Lcst_end8-Lcst_begin8
Lcst_begin8:
	.uleb128 Lfunc_begin42-Lfunc_begin42
	.uleb128 Ltmp1131-Lfunc_begin42
	.byte	0
	.byte	0
	.uleb128 Ltmp1131-Lfunc_begin42
	.uleb128 Ltmp1132-Ltmp1131
	.uleb128 Ltmp1133-Lfunc_begin42
	.byte	0
	.uleb128 Ltmp1132-Lfunc_begin42
	.uleb128 Lfunc_end42-Ltmp1132
	.byte	0
	.byte	0
Lcst_end8:
	.p2align	2

	.section	__TEXT,__text,regular,pure_instructions
	.globl	__ZN76_$LT$crossbeam_utils..sync..parker..Unparker$u20$as$u20$core..fmt..Debug$GT$3fmt17heb434406733a6b81E
	.p2align	4, 0x90
__ZN76_$LT$crossbeam_utils..sync..parker..Unparker$u20$as$u20$core..fmt..Debug$GT$3fmt17heb434406733a6b81E:
Lfunc_begin43:
	.loc	54 205 0
	.cfi_startproc
	pushq	%rbp
	.cfi_def_cfa_offset 16
	.cfi_offset %rbp, -16
	movq	%rsp, %rbp
	.cfi_def_cfa_register %rbp
	movq	%rsi, %rdi
Ltmp1174:
	.loc	54 206 9 prologue_end
	leaq	l___unnamed_35(%rip), %rsi
	movl	$15, %edx
	popq	%rbp
	jmp	__ZN4core3fmt9Formatter3pad17h426409b23b74b394E
Ltmp1175:
Lfunc_end43:
	.cfi_endproc

	.globl	__ZN78_$LT$crossbeam_utils..sync..parker..Unparker$u20$as$u20$core..clone..Clone$GT$5clone17hbd16ff65e67d46efE
	.p2align	4, 0x90
__ZN78_$LT$crossbeam_utils..sync..parker..Unparker$u20$as$u20$core..clone..Clone$GT$5clone17hbd16ff65e67d46efE:
Lfunc_begin44:
	.loc	54 211 0
	.cfi_startproc
	pushq	%rbp
	.cfi_def_cfa_offset 16
	.cfi_offset %rbp, -16
	movq	%rsp, %rbp
	.cfi_def_cfa_register %rbp
Ltmp1176:
	.loc	54 213 20 prologue_end
	movq	(%rdi), %rax
Ltmp1177:
	.loc	29 2389 24
	lock		incq	(%rax)
Ltmp1178:
	.loc	28 1102 9
	jle	LBB44_1
Ltmp1179:
	.loc	54 215 6
	popq	%rbp
	retq
Ltmp1180:
LBB44_1:
	.loc	28 1103 13
	ud2
Ltmp1181:
Lfunc_end44:
	.cfi_endproc

	.p2align	4, 0x90
__ZN15crossbeam_utils4sync6parker5Inner4park17h5038738892f575e5E:
Lfunc_begin45:
	.loc	54 229 0
	.cfi_startproc
	.cfi_personality 155, _rust_eh_personality
	.cfi_lsda 16, Lexception9
	pushq	%rbp
	.cfi_def_cfa_offset 16
	.cfi_offset %rbp, -16
	movq	%rsp, %rbp
	.cfi_def_cfa_register %rbp
	pushq	%r15
	pushq	%r14
	pushq	%r13
	pushq	%r12
	pushq	%rbx
	subq	$216, %rsp
	.cfi_offset %rbx, -56
	.cfi_offset %r12, -48
	.cfi_offset %r13, -40
	.cfi_offset %r14, -32
	.cfi_offset %r15, -24
	xorl	%ecx, %ecx
Ltmp1222:
	.loc	29 2427 33 prologue_end
	movl	$2, %eax
	lock		cmpxchgq	%rcx, (%rdi)
Ltmp1223:
	.loc	54 231 9
	je	LBB45_28
Ltmp1224:
	.loc	54 0 9 is_stmt 0
	movq	%rsi, %r14
Ltmp1225:
	movq	%rdi, %rbx
Ltmp1226:
	.loc	54 240 16 is_stmt 1
	cmpl	$1, (%rsi)
	jne	LBB45_4
Ltmp1227:
	.file	55 "/rustc/6c8927b0cf80ceee19386026cf9d7fd4fd9d486f/src/libcore/time.rs"
	.loc	55 56 5
	cmpq	$0, 8(%r14)
Ltmp1228:
	.loc	54 241 13
	jne	LBB45_4
Ltmp1229:
	cmpl	$0, 16(%r14)
	je	LBB45_28
Ltmp1230:
LBB45_4:
	.loc	16 273 13
	movq	8(%rbx), %rdi
Ltmp1231:
	.loc	17 63 17
	callq	_pthread_mutex_lock
Ltmp1232:
	.loc	29 2356 24
	movq	__ZN3std9panicking11panic_count18GLOBAL_PANIC_COUNT17h5754c1d48a496461E@GOTPCREL(%rip), %rax
Ltmp1233:
	movq	(%rax), %rax
Ltmp1234:
	.loc	30 262 12
	testq	%rax, %rax
	.loc	30 262 9 is_stmt 0
	jne	LBB45_6
Ltmp1235:
	.loc	30 0 9
	xorl	%eax, %eax
	leaq	8(%rbx), %rcx
Ltmp1236:
	.loc	29 2356 24 is_stmt 1
	movb	16(%rbx), %dl
Ltmp1237:
	.loc	29 410 18
	testb	%dl, %dl
Ltmp1238:
	.loc	22 1004 13
	jne	LBB45_8
Ltmp1239:
LBB45_11:
	.loc	54 247 21
	movq	%rcx, -104(%rbp)
	movb	%al, -96(%rbp)
	movl	$1, %ecx
Ltmp1240:
	.loc	29 2427 33
	xorl	%eax, %eax
	lock		cmpxchgq	%rcx, (%rbx)
Ltmp1241:
	.loc	54 250 13
	jne	LBB45_12
Ltmp1242:
	.loc	54 266 13
	cmpl	$1, (%r14)
	jne	LBB45_16
Ltmp1243:
	.loc	54 277 18
	movq	8(%r14), %rax
	movq	%rax, -224(%rbp)
	movl	16(%r14), %eax
	movl	%eax, -116(%rbp)
Ltmp1244:
	.loc	54 281 37
	leaq	24(%rbx), %r13
	.loc	54 281 60 is_stmt 0
	movq	-104(%rbp), %r12
	movb	-96(%rbp), %r14b
Ltmp1245:
	.loc	54 0 60
	movq	%r12, -88(%rbp)
	movb	%r14b, -80(%rbp)
Ltmp1246:
	.loc	16 520 5 is_stmt 1
	movq	(%r12), %r15
Ltmp1247:
Ltmp1202:
	.file	56 "/rustc/6c8927b0cf80ceee19386026cf9d7fd4fd9d486f/src/libstd/sync/condvar.rs"
	.loc	56 397 13
	movq	%r13, %rdi
	movq	%r15, %rsi
	callq	__ZN3std4sync7condvar7Condvar6verify17h11b2eb6bc24cc9feE
Ltmp1203:
Ltmp1248:
	.loc	56 398 27
	movq	(%r13), %r13
Ltmp1249:
Ltmp1204:
	.file	57 "/rustc/6c8927b0cf80ceee19386026cf9d7fd4fd9d486f/src/libstd/sys_common/condvar.rs"
	.loc	57 61 29
	movq	%r15, %rdi
	callq	__ZN3std10sys_common5mutex3raw17hd9071ed6f4cf0cb0E
Ltmp1205:
Ltmp1250:
Ltmp1206:
	.loc	57 61 9 is_stmt 0
	movq	%r13, %rdi
	movq	%rax, %rsi
	movq	-224(%rbp), %rdx
	movl	-116(%rbp), %ecx
	callq	__ZN3std3sys4unix7condvar7Condvar12wait_timeout17h27c8f823bd4be76eE
Ltmp1207:
Ltmp1251:
	.loc	29 2356 24 is_stmt 1
	movb	8(%r12), %cl
Ltmp1252:
	.loc	29 410 18
	testb	%cl, %cl
Ltmp1253:
	.loc	22 1004 13
	jne	LBB45_34
Ltmp1254:
	.loc	54 281 22
	movq	%r12, -168(%rbp)
	movb	%r14b, -160(%rbp)
	xorl	%eax, %eax
Ltmp1255:
	.loc	29 2374 23
	xchgq	%rax, (%rbx)
Ltmp1256:
	.loc	54 284 21
	leaq	-1(%rax), %rcx
	cmpq	$2, %rcx
Ltmp1257:
	jae	LBB45_39
Ltmp1258:
	.loc	16 499 13
	movq	-168(%rbp), %rbx
Ltmp1259:
	.loc	35 34 13
	cmpb	$0, -160(%rbp)
	.loc	35 34 12 is_stmt 0
	jne	LBB45_27
Ltmp1260:
	.loc	29 2356 24 is_stmt 1
	movq	__ZN3std9panicking11panic_count18GLOBAL_PANIC_COUNT17h5754c1d48a496461E@GOTPCREL(%rip), %rax
Ltmp1261:
	movq	(%rax), %rax
Ltmp1262:
	.loc	30 262 12
	testq	%rax, %rax
	.loc	30 262 9 is_stmt 0
	je	LBB45_27
Ltmp1263:
Ltmp1219:
	.loc	30 274 13 is_stmt 1
	callq	__ZN3std9panicking11panic_count17is_zero_slow_path17ha588394117c50e3dE
Ltmp1220:
	jmp	LBB45_25
Ltmp1264:
LBB45_12:
	.loc	54 252 17
	cmpq	$2, %rax
	jne	LBB45_45
Ltmp1265:
	.loc	54 0 17 is_stmt 0
	xorl	%eax, %eax
Ltmp1266:
	.loc	29 2374 23 is_stmt 1
	xchgq	%rax, (%rbx)
Ltmp1267:
	.loc	54 258 27
	movq	%rax, -240(%rbp)
Ltmp1268:
	.loc	54 259 17
	cmpq	$2, %rax
Ltmp1269:
	je	LBB45_22
Ltmp1270:
	.loc	54 0 17 is_stmt 0
	leaq	-240(%rbp), %rax
Ltmp1271:
	.loc	54 259 17
	movq	%rax, -248(%rbp)
	leaq	L___unnamed_36(%rip), %rax
	movq	%rax, -112(%rbp)
Ltmp1272:
	.loc	40 328 9 is_stmt 1
	leaq	l___unnamed_37(%rip), %rax
Ltmp1273:
	movq	%rax, -88(%rbp)
	movq	$1, -80(%rbp)
	movq	$0, -72(%rbp)
	leaq	l___unnamed_38(%rip), %rax
Ltmp1274:
	movq	%rax, -56(%rbp)
	movq	$0, -48(%rbp)
	leaq	-248(%rbp), %rax
Ltmp1275:
	.loc	54 259 17
	movq	%rax, -216(%rbp)
	leaq	__ZN42_$LT$$RF$T$u20$as$u20$core..fmt..Debug$GT$3fmt17hf694ae6cf49e3c4fE(%rip), %rax
	movq	%rax, -208(%rbp)
	leaq	-112(%rbp), %rcx
	movq	%rcx, -200(%rbp)
	movq	%rax, -192(%rbp)
	leaq	-88(%rbp), %rax
	movq	%rax, -184(%rbp)
	movq	__ZN59_$LT$core..fmt..Arguments$u20$as$u20$core..fmt..Display$GT$3fmt17hca54f9d63261f398E@GOTPCREL(%rip), %rax
	movq	%rax, -176(%rbp)
Ltmp1276:
	.loc	40 328 9
	leaq	l___unnamed_39(%rip), %rax
Ltmp1277:
	movq	%rax, -168(%rbp)
	movq	$3, -160(%rbp)
	movq	$0, -152(%rbp)
	leaq	-216(%rbp), %rax
Ltmp1278:
	movq	%rax, -136(%rbp)
	movq	$3, -128(%rbp)
Ltmp1279:
Ltmp1187:
	.loc	54 259 17
	leaq	l___unnamed_40(%rip), %rsi
	leaq	-168(%rbp), %rdi
	callq	__ZN3std9panicking15begin_panic_fmt17h8712912d987f10a1E
Ltmp1188:
	jmp	LBB45_9
Ltmp1280:
LBB45_16:
	.loc	54 0 0 is_stmt 0
	leaq	24(%rbx), %r14
Ltmp1281:
	movq	%rbx, -232(%rbp)
Ltmp1282:
	.p2align	4, 0x90
LBB45_17:
	.loc	54 269 40 is_stmt 1
	movq	-104(%rbp), %r15
	movzbl	-96(%rbp), %r13d
	movq	%r15, -88(%rbp)
	movb	%r13b, -80(%rbp)
Ltmp1283:
	.loc	16 520 5
	movq	(%r15), %rbx
Ltmp1284:
Ltmp1190:
	.loc	56 199 13
	movq	%r14, %rdi
	movq	%rbx, %rsi
	callq	__ZN3std4sync7condvar7Condvar6verify17h11b2eb6bc24cc9feE
Ltmp1191:
Ltmp1285:
	.loc	56 200 13
	movq	(%r14), %r12
Ltmp1286:
Ltmp1192:
	.loc	57 50 21
	movq	%rbx, %rdi
	callq	__ZN3std10sys_common5mutex3raw17hd9071ed6f4cf0cb0E
Ltmp1193:
Ltmp1287:
	.file	58 "/rustc/6c8927b0cf80ceee19386026cf9d7fd4fd9d486f/src/libstd/sys/unix/condvar.rs"
	.loc	58 69 17
	movq	%r12, %rdi
	movq	%rax, %rsi
	callq	_pthread_cond_wait
Ltmp1288:
	.loc	29 2356 24
	movzbl	8(%r15), %eax
Ltmp1289:
	.loc	29 410 18
	testb	%al, %al
Ltmp1290:
	.loc	22 1004 13
	jne	LBB45_20
Ltmp1291:
	.loc	54 269 21
	movq	%r15, -104(%rbp)
	movb	%r13b, -96(%rbp)
Ltmp1292:
	.loc	29 2427 33
	movl	$2, %eax
	movq	-232(%rbp), %rbx
Ltmp1293:
	xorl	%ecx, %ecx
	lock		cmpxchgq	%rcx, (%rbx)
Ltmp1294:
	.loc	54 272 25
	jne	LBB45_17
Ltmp1295:
LBB45_22:
	.loc	16 499 13
	movq	-104(%rbp), %rbx
Ltmp1296:
	.loc	35 34 13
	cmpb	$0, -96(%rbp)
	.loc	35 34 12 is_stmt 0
	jne	LBB45_27
Ltmp1297:
	.loc	29 2356 24 is_stmt 1
	movq	__ZN3std9panicking11panic_count18GLOBAL_PANIC_COUNT17h5754c1d48a496461E@GOTPCREL(%rip), %rax
Ltmp1298:
	movq	(%rax), %rax
Ltmp1299:
	.loc	30 262 12
	testq	%rax, %rax
	.loc	30 262 9 is_stmt 0
	jne	LBB45_24
Ltmp1300:
LBB45_27:
	.loc	54 0 0
	movq	(%rbx), %rdi
Ltmp1301:
	callq	_pthread_mutex_unlock
Ltmp1302:
LBB45_28:
	.loc	54 290 6 is_stmt 1
	addq	$216, %rsp
	popq	%rbx
	popq	%r12
	popq	%r13
	popq	%r14
	popq	%r15
	popq	%rbp
	retq
LBB45_6:
Ltmp1303:
	.loc	30 274 13
	callq	__ZN3std9panicking11panic_count17is_zero_slow_path17ha588394117c50e3dE
	xorb	$1, %al
Ltmp1304:
	.loc	54 0 0 is_stmt 0
	leaq	8(%rbx), %rcx
Ltmp1305:
	.loc	29 2356 24 is_stmt 1
	movb	16(%rbx), %dl
Ltmp1306:
	.loc	29 410 18
	testb	%dl, %dl
Ltmp1307:
	.loc	22 1004 13
	je	LBB45_11
Ltmp1308:
LBB45_8:
	.loc	22 1005 17
	movq	%rcx, -88(%rbp)
	movb	%al, -80(%rbp)
Ltmp1182:
Ltmp1309:
	.loc	22 1005 23 is_stmt 0
	leaq	l___unnamed_21(%rip), %rdi
	leaq	l___unnamed_6(%rip), %rcx
Ltmp1310:
	leaq	l___unnamed_41(%rip), %r8
	leaq	-88(%rbp), %rdx
	movl	$43, %esi
	callq	__ZN4core6result13unwrap_failed17hc193898ef513e81fE
Ltmp1311:
Ltmp1183:
	.loc	22 0 23
	jmp	LBB45_9
Ltmp1312:
LBB45_24:
	.loc	30 274 13 is_stmt 1
	callq	__ZN3std9panicking11panic_count17is_zero_slow_path17ha588394117c50e3dE
Ltmp1313:
LBB45_25:
	.loc	54 0 0 is_stmt 0
	testb	%al, %al
	jne	LBB45_27
Ltmp1314:
	movb	$1, 8(%rbx)
	jmp	LBB45_27
Ltmp1315:
LBB45_20:
	.loc	22 1005 17 is_stmt 1
	movq	%r15, -88(%rbp)
	movb	%r13b, -80(%rbp)
Ltmp1197:
Ltmp1316:
	.loc	22 1005 23 is_stmt 0
	leaq	l___unnamed_21(%rip), %rdi
	leaq	l___unnamed_6(%rip), %rcx
	leaq	l___unnamed_42(%rip), %r8
	leaq	-88(%rbp), %rdx
	movl	$43, %esi
	callq	__ZN4core6result13unwrap_failed17hc193898ef513e81fE
Ltmp1198:
Ltmp1317:
LBB45_9:
	.loc	22 0 23
	ud2
LBB45_45:
Ltmp1318:
	.loc	54 262 17 is_stmt 1
	movq	%rax, -168(%rbp)
	leaq	-168(%rbp), %rax
Ltmp1319:
	.loc	54 262 23 is_stmt 0
	movq	%rax, -216(%rbp)
	movq	__ZN4core3fmt3num3imp54_$LT$impl$u20$core..fmt..Display$u20$for$u20$usize$GT$3fmt17h12ea2856299c9b06E@GOTPCREL(%rip), %rax
	movq	%rax, -208(%rbp)
Ltmp1320:
	.loc	40 328 9 is_stmt 1
	leaq	l___unnamed_43(%rip), %rax
Ltmp1321:
	movq	%rax, -88(%rbp)
	movq	$1, -80(%rbp)
	movq	$0, -72(%rbp)
	leaq	-216(%rbp), %rax
Ltmp1322:
	movq	%rax, -56(%rbp)
	movq	$1, -48(%rbp)
Ltmp1323:
Ltmp1185:
	.loc	54 262 23
	leaq	l___unnamed_44(%rip), %rsi
	leaq	-88(%rbp), %rdi
	callq	__ZN3std9panicking15begin_panic_fmt17h8712912d987f10a1E
Ltmp1186:
	jmp	LBB45_9
Ltmp1324:
LBB45_34:
	.loc	56 399 67
	xorb	$1, %al
Ltmp1325:
	.loc	22 1005 17
	movq	%r12, -88(%rbp)
	movb	%r14b, -80(%rbp)
	movl	-216(%rbp), %ecx
	movl	-213(%rbp), %edx
	movl	%ecx, -79(%rbp)
	movl	%edx, -76(%rbp)
	movb	%al, -72(%rbp)
	movl	-168(%rbp), %eax
Ltmp1326:
	movl	-165(%rbp), %ecx
	movl	%eax, -71(%rbp)
	movl	%ecx, -68(%rbp)
Ltmp1211:
Ltmp1327:
	.loc	22 1005 23 is_stmt 0
	leaq	l___unnamed_21(%rip), %rdi
	leaq	l___unnamed_4(%rip), %rcx
	leaq	l___unnamed_45(%rip), %r8
	leaq	-88(%rbp), %rdx
	movl	$43, %esi
	callq	__ZN4core6result13unwrap_failed17hc193898ef513e81fE
Ltmp1212:
	jmp	LBB45_9
Ltmp1328:
LBB45_39:
	.loc	54 286 21 is_stmt 1
	movq	%rax, -112(%rbp)
	leaq	-112(%rbp), %rax
Ltmp1329:
	.loc	54 286 26 is_stmt 0
	movq	%rax, -216(%rbp)
	movq	__ZN4core3fmt3num3imp54_$LT$impl$u20$core..fmt..Display$u20$for$u20$usize$GT$3fmt17h12ea2856299c9b06E@GOTPCREL(%rip), %rax
	movq	%rax, -208(%rbp)
Ltmp1330:
	.loc	40 328 9 is_stmt 1
	leaq	l___unnamed_43(%rip), %rax
Ltmp1331:
	movq	%rax, -88(%rbp)
	movq	$1, -80(%rbp)
	movq	$0, -72(%rbp)
	leaq	-216(%rbp), %rax
Ltmp1332:
	movq	%rax, -56(%rbp)
	movq	$1, -48(%rbp)
Ltmp1333:
Ltmp1216:
	.loc	54 286 26
	leaq	l___unnamed_46(%rip), %rsi
	leaq	-88(%rbp), %rdi
	callq	__ZN3std9panicking15begin_panic_fmt17h8712912d987f10a1E
Ltmp1217:
	jmp	LBB45_9
Ltmp1334:
LBB45_46:
Ltmp1218:
	.loc	54 0 26 is_stmt 0
	movq	%rax, %rbx
Ltmp1335:
	leaq	-168(%rbp), %rdi
	jmp	LBB45_47
Ltmp1336:
LBB45_37:
Ltmp1213:
	movq	%rax, %rbx
Ltmp1337:
Ltmp1214:
	leaq	-88(%rbp), %rdi
Ltmp1338:
	.loc	22 1005 86 is_stmt 1
	callq	__ZN4core3ptr13drop_in_place17hcafbc2fafb2ca407E
Ltmp1215:
	jmp	LBB45_48
Ltmp1339:
LBB45_43:
Ltmp1189:
	.loc	22 0 86 is_stmt 0
	movq	%rax, %rbx
Ltmp1340:
	leaq	-104(%rbp), %rdi
Ltmp1341:
LBB45_47:
	callq	__ZN4core3ptr13drop_in_place17h29db1abd71aafba2E
	movq	%rbx, %rdi
	callq	__Unwind_Resume
	ud2
LBB45_10:
Ltmp1342:
Ltmp1184:
	movq	%rax, %rbx
Ltmp1343:
	leaq	-88(%rbp), %rdi
Ltmp1344:
	.loc	22 1005 86
	callq	__ZN4core3ptr13drop_in_place17h13ded0c92087dc3fE
	movq	%rbx, %rdi
	callq	__Unwind_Resume
	ud2
Ltmp1345:
LBB45_36:
Ltmp1199:
	.loc	22 0 86
	movq	%rax, %rbx
Ltmp1200:
	leaq	-88(%rbp), %rdi
Ltmp1346:
	.loc	22 1005 86
	callq	__ZN4core3ptr13drop_in_place17h13ded0c92087dc3fE
Ltmp1201:
	jmp	LBB45_48
Ltmp1347:
LBB45_29:
Ltmp1208:
	.loc	22 0 86
	movq	%rax, %rbx
Ltmp1348:
Ltmp1209:
	leaq	-88(%rbp), %rdi
Ltmp1349:
	.loc	56 402 5 is_stmt 1
	callq	__ZN4core3ptr13drop_in_place17h29db1abd71aafba2E
Ltmp1210:
	jmp	LBB45_48
Ltmp1350:
LBB45_35:
Ltmp1194:
	.loc	56 0 5 is_stmt 0
	movq	%rax, %rbx
Ltmp1195:
	leaq	-88(%rbp), %rdi
Ltmp1351:
	.loc	56 204 5 is_stmt 1
	callq	__ZN4core3ptr13drop_in_place17h29db1abd71aafba2E
Ltmp1196:
Ltmp1352:
LBB45_48:
	.loc	56 0 5 is_stmt 0
	movq	%rbx, %rdi
	callq	__Unwind_Resume
	ud2
LBB45_44:
Ltmp1221:
	movq	%rax, %rbx
	movq	%rbx, %rdi
	callq	__Unwind_Resume
	ud2
Lfunc_end45:
	.cfi_endproc
	.section	__TEXT,__gcc_except_tab
	.p2align	2
GCC_except_table45:
Lexception9:
	.byte	255
	.byte	255
	.byte	1
	.uleb128 Lcst_end9-Lcst_begin9
Lcst_begin9:
	.uleb128 Ltmp1202-Lfunc_begin45
	.uleb128 Ltmp1207-Ltmp1202
	.uleb128 Ltmp1208-Lfunc_begin45
	.byte	0
	.uleb128 Ltmp1219-Lfunc_begin45
	.uleb128 Ltmp1220-Ltmp1219
	.uleb128 Ltmp1221-Lfunc_begin45
	.byte	0
	.uleb128 Ltmp1187-Lfunc_begin45
	.uleb128 Ltmp1188-Ltmp1187
	.uleb128 Ltmp1189-Lfunc_begin45
	.byte	0
	.uleb128 Ltmp1190-Lfunc_begin45
	.uleb128 Ltmp1193-Ltmp1190
	.uleb128 Ltmp1194-Lfunc_begin45
	.byte	0
	.uleb128 Ltmp1193-Lfunc_begin45
	.uleb128 Ltmp1182-Ltmp1193
	.byte	0
	.byte	0
	.uleb128 Ltmp1182-Lfunc_begin45
	.uleb128 Ltmp1183-Ltmp1182
	.uleb128 Ltmp1184-Lfunc_begin45
	.byte	0
	.uleb128 Ltmp1183-Lfunc_begin45
	.uleb128 Ltmp1197-Ltmp1183
	.byte	0
	.byte	0
	.uleb128 Ltmp1197-Lfunc_begin45
	.uleb128 Ltmp1198-Ltmp1197
	.uleb128 Ltmp1199-Lfunc_begin45
	.byte	0
	.uleb128 Ltmp1185-Lfunc_begin45
	.uleb128 Ltmp1186-Ltmp1185
	.uleb128 Ltmp1189-Lfunc_begin45
	.byte	0
	.uleb128 Ltmp1211-Lfunc_begin45
	.uleb128 Ltmp1212-Ltmp1211
	.uleb128 Ltmp1213-Lfunc_begin45
	.byte	0
	.uleb128 Ltmp1216-Lfunc_begin45
	.uleb128 Ltmp1217-Ltmp1216
	.uleb128 Ltmp1218-Lfunc_begin45
	.byte	0
	.uleb128 Ltmp1214-Lfunc_begin45
	.uleb128 Ltmp1215-Ltmp1214
	.uleb128 Ltmp1221-Lfunc_begin45
	.byte	0
	.uleb128 Ltmp1215-Lfunc_begin45
	.uleb128 Ltmp1200-Ltmp1215
	.byte	0
	.byte	0
	.uleb128 Ltmp1200-Lfunc_begin45
	.uleb128 Ltmp1196-Ltmp1200
	.uleb128 Ltmp1221-Lfunc_begin45
	.byte	0
	.uleb128 Ltmp1196-Lfunc_begin45
	.uleb128 Lfunc_end45-Ltmp1196
	.byte	0
	.byte	0
Lcst_end9:
	.p2align	2

	.section	__TEXT,__text,regular,pure_instructions
	.globl	__ZN154_$LT$$LT$crossbeam_utils..sync..sharded_lock..ShardedLock$LT$T$GT$$u20$as$u20$core..fmt..Debug$GT$..fmt..LockedPlaceholder$u20$as$u20$core..fmt..Debug$GT$3fmt17h410ea58e4a54a5a4E
	.p2align	4, 0x90
__ZN154_$LT$$LT$crossbeam_utils..sync..sharded_lock..ShardedLock$LT$T$GT$$u20$as$u20$core..fmt..Debug$GT$..fmt..LockedPlaceholder$u20$as$u20$core..fmt..Debug$GT$3fmt17h410ea58e4a54a5a4E:
Lfunc_begin46:
	.loc	14 432 0 is_stmt 1
	.cfi_startproc
	pushq	%rbp
	.cfi_def_cfa_offset 16
	.cfi_offset %rbp, -16
	movq	%rsp, %rbp
	.cfi_def_cfa_register %rbp
	movq	%rsi, %rdi
Ltmp1353:
	.loc	14 433 25 prologue_end
	leaq	L___unnamed_47(%rip), %rsi
	movl	$8, %edx
	popq	%rbp
	jmp	__ZN4core3fmt9Formatter9write_str17h98e119ad25a8903eE
Ltmp1354:
Lfunc_end46:
	.cfi_endproc

	.section	__TEXT,__literal16,16byte_literals
	.p2align	4
LCPI47_0:
	.quad	8317987319222330741
	.quad	7816392313619706465
LCPI47_1:
	.quad	7237128888997146477
	.quad	8387220255154660723
	.section	__TEXT,__text,regular,pure_instructions
	.globl	__ZN91_$LT$crossbeam_utils..sync..sharded_lock..Registration$u20$as$u20$core..ops..drop..Drop$GT$4drop17hdc3741fc158b3357E
	.p2align	4, 0x90
__ZN91_$LT$crossbeam_utils..sync..sharded_lock..Registration$u20$as$u20$core..ops..drop..Drop$GT$4drop17hdc3741fc158b3357E:
Lfunc_begin47:
	.loc	14 581 0
	.cfi_startproc
	.cfi_personality 155, _rust_eh_personality
	.cfi_lsda 16, Lexception10
	pushq	%rbp
	.cfi_def_cfa_offset 16
	.cfi_offset %rbp, -16
	movq	%rsp, %rbp
	.cfi_def_cfa_register %rbp
	pushq	%r15
	pushq	%r14
	pushq	%r13
	pushq	%r12
	pushq	%rbx
	subq	$104, %rsp
	.cfi_offset %rbx, -56
	.cfi_offset %r12, -48
	.cfi_offset %r13, -40
	.cfi_offset %r14, -32
	.cfi_offset %r15, -24
	movq	%rdi, %r15
Ltmp1361:
	leaq	__ZN95_$LT$crossbeam_utils..sync..sharded_lock..THREAD_INDICES$u20$as$u20$core..ops..deref..Deref$GT$5deref11__stability4LAZY17h0876921dd0b7a4f7E(%rip), %rax
Ltmp1362:
	movq	%rax, -64(%rbp)
Ltmp1363:
	.loc	29 2355 24 prologue_end
	movq	__ZN95_$LT$crossbeam_utils..sync..sharded_lock..THREAD_INDICES$u20$as$u20$core..ops..deref..Deref$GT$5deref11__stability4LAZY17h0876921dd0b7a4f7E+104(%rip), %rax
Ltmp1364:
	.loc	6 374 9
	cmpq	$3, %rax
Ltmp1365:
	.loc	6 260 9
	jne	LBB47_1
Ltmp1366:
	.loc	9 37 20
	movq	-64(%rbp), %r13
Ltmp1367:
	.loc	9 38 17
	cmpq	$0, (%r13)
	je	LBB47_50
Ltmp1368:
LBB47_3:
	.loc	16 273 13
	movq	(%r13), %rdi
Ltmp1369:
	.loc	17 63 17
	callq	_pthread_mutex_lock
Ltmp1370:
	.loc	29 2356 24
	movq	__ZN3std9panicking11panic_count18GLOBAL_PANIC_COUNT17h5754c1d48a496461E@GOTPCREL(%rip), %rax
Ltmp1371:
	movq	(%rax), %rax
Ltmp1372:
	.loc	30 262 12
	testq	%rax, %rax
	.loc	30 262 9 is_stmt 0
	jne	LBB47_5
Ltmp1373:
	.loc	30 0 9
	xorl	%r14d, %r14d
Ltmp1374:
	.loc	29 2356 24 is_stmt 1
	movb	8(%r13), %al
Ltmp1375:
	.loc	29 410 18
	testb	%al, %al
Ltmp1376:
	.loc	22 1004 13
	jne	LBB47_7
Ltmp1377:
LBB47_10:
	.loc	14 582 27
	movq	%r13, -56(%rbp)
	movb	%r14b, -48(%rbp)
Ltmp1378:
	.loc	26 920 24
	movq	16(%r13), %rax
	movq	24(%r13), %rcx
Ltmp1379:
	.loc	32 219 9
	movq	%rax, %xmm0
	pshufd	$68, %xmm0, %xmm0
	pxor	LCPI47_0(%rip), %xmm0
	.loc	32 220 9
	movq	%rcx, %xmm1
	pshufd	$68, %xmm1, %xmm1
	pxor	LCPI47_1(%rip), %xmm1
Ltmp1380:
	.loc	14 583 9
	movq	8(%r15), %r12
Ltmp1381:
	.loc	11 2496 9
	movq	%rax, -136(%rbp)
	movq	%rcx, -128(%rbp)
	movq	$0, -120(%rbp)
	movdqu	%xmm0, -112(%rbp)
	movdqu	%xmm1, -96(%rbp)
	movq	$0, -80(%rbp)
	movq	$0, -72(%rbp)
Ltmp1382:
	.loc	11 0 9 is_stmt 0
	leaq	-136(%rbp), %rsi
Ltmp1383:
	.loc	44 677 13 is_stmt 1
	movq	%r12, %rdi
	callq	__ZN58_$LT$std..thread..ThreadId$u20$as$u20$core..hash..Hash$GT$4hash17hc40d17ae6866d604E
Ltmp1384:
	.loc	32 312 24
	movq	-120(%rbp), %rdi
Ltmp1385:
	.loc	32 310 25
	movq	-96(%rbp), %rax
Ltmp1386:
	.loc	32 312 22
	shlq	$56, %rdi
	orq	-80(%rbp), %rdi
	movq	-88(%rbp), %rcx
	movq	-112(%rbp), %rsi
Ltmp1387:
	.loc	12 3439 17
	addq	%rax, %rsi
Ltmp1388:
	.loc	12 2763 17
	rolq	$13, %rax
Ltmp1389:
	.loc	32 314 9
	xorq	%rdi, %rcx
Ltmp1390:
	.loc	32 85 35
	xorq	%rsi, %rax
Ltmp1391:
	.loc	12 2763 17
	rolq	$32, %rsi
Ltmp1392:
	.loc	12 0 17 is_stmt 0
	movq	-104(%rbp), %rdx
Ltmp1393:
	.loc	12 3439 17 is_stmt 1
	addq	%rcx, %rdx
Ltmp1394:
	.loc	12 2763 17
	rolq	$16, %rcx
Ltmp1395:
	.loc	32 85 57
	xorq	%rdx, %rcx
Ltmp1396:
	.loc	12 3439 17
	addq	%rcx, %rsi
Ltmp1397:
	.loc	12 2763 17
	rolq	$21, %rcx
Ltmp1398:
	.loc	12 3439 17
	addq	%rax, %rdx
Ltmp1399:
	.loc	12 2763 17
	rolq	$17, %rax
Ltmp1400:
	.loc	32 85 35
	xorq	%rsi, %rcx
Ltmp1401:
	.loc	32 85 57 is_stmt 0
	xorq	%rdx, %rax
Ltmp1402:
	.loc	12 2763 17 is_stmt 1
	rolq	$32, %rdx
Ltmp1403:
	.loc	32 316 9
	xorq	%rdi, %rsi
Ltmp1404:
	.loc	12 3439 17
	addq	%rax, %rsi
Ltmp1405:
	.loc	12 2763 17
	rolq	$13, %rax
Ltmp1406:
	.loc	32 85 35
	xorq	%rsi, %rax
Ltmp1407:
	.loc	12 2763 17
	rolq	$32, %rsi
Ltmp1408:
	.loc	32 318 9
	xorq	$255, %rdx
Ltmp1409:
	.loc	12 3439 17
	addq	%rcx, %rdx
Ltmp1410:
	.loc	12 2763 17
	rolq	$16, %rcx
Ltmp1411:
	.loc	32 85 57
	xorq	%rdx, %rcx
Ltmp1412:
	.loc	12 3439 17
	addq	%rcx, %rsi
Ltmp1413:
	.loc	12 2763 17
	rolq	$21, %rcx
Ltmp1414:
	.loc	12 3439 17
	addq	%rax, %rdx
Ltmp1415:
	.loc	12 2763 17
	rolq	$17, %rax
Ltmp1416:
	.loc	32 85 57
	xorq	%rdx, %rax
Ltmp1417:
	.loc	12 2763 17
	rolq	$32, %rdx
Ltmp1418:
	.loc	32 85 35
	xorq	%rsi, %rcx
Ltmp1419:
	.loc	12 3439 17
	addq	%rax, %rsi
Ltmp1420:
	.loc	12 2763 17
	rolq	$13, %rax
Ltmp1421:
	.loc	32 85 35
	xorq	%rsi, %rax
Ltmp1422:
	.loc	12 2763 17
	rolq	$32, %rsi
Ltmp1423:
	.loc	12 3439 17
	addq	%rcx, %rdx
Ltmp1424:
	.loc	12 2763 17
	rolq	$16, %rcx
Ltmp1425:
	.loc	32 85 57
	xorq	%rdx, %rcx
Ltmp1426:
	.loc	12 3439 17
	addq	%rcx, %rsi
Ltmp1427:
	.loc	12 2763 17
	rolq	$21, %rcx
Ltmp1428:
	.loc	12 3439 17
	addq	%rax, %rdx
Ltmp1429:
	.loc	12 2763 17
	rolq	$17, %rax
Ltmp1430:
	.loc	32 85 57
	xorq	%rdx, %rax
Ltmp1431:
	.loc	12 2763 17
	rolq	$32, %rdx
Ltmp1432:
	.loc	32 85 35
	xorq	%rsi, %rcx
Ltmp1433:
	.loc	12 3439 17
	addq	%rax, %rsi
Ltmp1434:
	.loc	12 2763 17
	rolq	$13, %rax
Ltmp1435:
	.loc	32 85 35
	xorq	%rsi, %rax
Ltmp1436:
	.loc	12 3439 17
	addq	%rcx, %rdx
Ltmp1437:
	.loc	12 2763 17
	rolq	$16, %rcx
Ltmp1438:
	.loc	32 85 57
	xorq	%rdx, %rcx
Ltmp1439:
	.loc	12 2763 17
	rolq	$21, %rcx
Ltmp1440:
	.loc	12 3439 17
	addq	%rax, %rdx
Ltmp1441:
	.loc	12 2763 17
	rolq	$17, %rax
Ltmp1442:
	.loc	12 2763 17 is_stmt 0
	movq	%rdx, %rsi
	rolq	$32, %rsi
Ltmp1443:
	.loc	32 321 9 is_stmt 1
	xorq	%rdx, %rax
Ltmp1444:
	.loc	32 85 35
	xorq	%rsi, %rax
Ltmp1445:
	.loc	32 321 9
	xorq	%rcx, %rax
Ltmp1446:
	.loc	13 490 26
	movq	32(%r13), %r10
Ltmp1447:
	.loc	13 0 0 is_stmt 0
	movq	40(%r13), %r9
Ltmp1448:
	movq	%rax, %rcx
	shrq	$57, %rcx
Ltmp1449:
	movd	%ecx, %xmm0
	pxor	%xmm1, %xmm1
	pshufb	%xmm1, %xmm0
Ltmp1450:
	movq	48(%r13), %r8
	xorl	%r11d, %r11d
	pcmpeqd	%xmm1, %xmm1
Ltmp1451:
LBB47_11:
	movq	%rax, %rbx
	andq	%r10, %rbx
Ltmp1452:
	.loc	13 168 9 is_stmt 1
	leaq	16(%r11,%rbx), %rax
Ltmp1453:
	.loc	13 167 9
	addq	$16, %r11
Ltmp1454:
	.loc	7 2130 14
	movdqu	(%r9,%rbx), %xmm2
Ltmp1455:
	.loc	33 1401 5
	movdqa	%xmm0, %xmm3
	pcmpeqb	%xmm2, %xmm3
	pmovmskb	%xmm3, %ecx
Ltmp1456:
LBB47_12:
	.loc	34 43 12
	testw	%cx, %cx
	.loc	34 43 9 is_stmt 0
	je	LBB47_13
Ltmp1457:
	.loc	34 55 9 is_stmt 1
	bsfw	%cx, %dx
	movzwl	%dx, %edx
Ltmp1458:
	.loc	34 32 26
	leal	-1(%rcx), %esi
	.loc	34 32 17 is_stmt 0
	andl	%ecx, %esi
Ltmp1459:
	.loc	13 885 33 is_stmt 1
	addq	%rbx, %rdx
Ltmp1460:
	andq	%r10, %rdx
Ltmp1461:
	.loc	13 285 9
	movq	%rdx, %rdi
	shlq	$4, %rdi
Ltmp1462:
	.loc	13 884 28
	movl	%esi, %ecx
Ltmp1463:
	.loc	12 71 32
	cmpq	%r12, (%r8,%rdi)
	je	LBB47_15
	jmp	LBB47_12
Ltmp1464:
LBB47_13:
	.loc	33 1401 5
	pcmpeqb	%xmm1, %xmm2
	pmovmskb	%xmm2, %ecx
Ltmp1465:
	.loc	34 37 9
	testw	%cx, %cx
Ltmp1466:
	.loc	13 891 17
	je	LBB47_11
Ltmp1467:
	.loc	14 584 32
	movq	(%r15), %r12
Ltmp1468:
	.loc	31 1204 12
	movq	88(%r13), %rcx
	cmpq	80(%r13), %rcx
	.loc	31 1204 9 is_stmt 0
	jne	LBB47_23
Ltmp1469:
LBB47_29:
	.loc	12 3751 30 is_stmt 1
	movq	%rcx, %rdx
	incq	%rdx
Ltmp1470:
	.loc	8 538 13
	je	LBB47_46
Ltmp1471:
	.loc	20 408 28
	leaq	(%rcx,%rcx), %rax
Ltmp1472:
	.loc	45 1016 9
	cmpq	%rdx, %rax
	.loc	45 0 0 is_stmt 0
	cmovaq	%rax, %rdx
Ltmp1473:
	cmpq	$4, %rdx
	movl	$4, %eax
Ltmp1474:
	cmovaq	%rdx, %rax
	movl	$8, %edx
Ltmp1475:
	.loc	19 286 85 is_stmt 1
	xorl	%esi, %esi
Ltmp1476:
	.loc	12 3807 26
	mulq	%rdx
Ltmp1477:
	movq	%rax, %r15
Ltmp1478:
	.loc	12 0 26 is_stmt 0
	seto	%bl
Ltmp1479:
	.loc	19 286 85 is_stmt 1
	setno	%dl
Ltmp1480:
	.loc	20 235 9
	movq	%rcx, %rax
	.loc	20 235 40 is_stmt 0
	testq	%rcx, %rcx
	.loc	20 235 9
	je	LBB47_32
Ltmp1481:
	.loc	20 0 9
	movq	72(%r13), %rax
Ltmp1482:
LBB47_32:
	.loc	22 611 13 is_stmt 1
	testb	%bl, %bl
	jne	LBB47_46
Ltmp1483:
	.loc	20 493 25
	testq	%rax, %rax
	je	LBB47_34
Ltmp1484:
	.loc	20 0 0 is_stmt 0
	leaq	(,%rcx,8), %rsi
Ltmp1485:
	.loc	15 205 12 is_stmt 1
	cmpq	%r15, %rsi
	.loc	15 205 9 is_stmt 0
	je	LBB47_43
Ltmp1486:
	.loc	15 211 42 is_stmt 1
	testq	%rsi, %rsi
	je	LBB47_38
Ltmp1487:
	.loc	15 124 14
	movl	$8, %edx
	movq	%rax, %rdi
	movq	%r15, %rcx
Ltmp1488:
	callq	___rust_realloc
Ltmp1489:
	.loc	15 0 14 is_stmt 0
	jmp	LBB47_43
Ltmp1490:
LBB47_15:
	.loc	12 3462 17 is_stmt 1
	leaq	-16(%rdx), %rax
Ltmp1491:
	.loc	13 460 28
	andq	%r10, %rax
Ltmp1492:
	.loc	7 2130 14
	movdqu	(%r9,%rax), %xmm0
Ltmp1493:
	.loc	33 820 27
	pcmpeqd	%xmm1, %xmm1
Ltmp1494:
	.loc	33 1401 5
	pcmpeqb	%xmm1, %xmm0
	pmovmskb	%xmm0, %ecx
Ltmp1495:
	.loc	7 2130 14
	movdqu	(%r9,%rdx), %xmm0
Ltmp1496:
	.loc	33 1401 5
	pcmpeqb	%xmm1, %xmm0
	pmovmskb	%xmm0, %ebx
Ltmp1497:
	.loc	33 0 5 is_stmt 0
	movw	$16, %di
Ltmp1498:
	movw	$16, %si
Ltmp1499:
	.loc	12 2675 17 is_stmt 1
	testw	%cx, %cx
Ltmp1500:
	je	LBB47_17
Ltmp1501:
	bsrw	%cx, %si
	xorl	$15, %esi
Ltmp1502:
LBB47_17:
	.loc	12 2696 17
	testw	%bx, %bx
	je	LBB47_19
Ltmp1503:
	bsfw	%bx, %di
Ltmp1504:
LBB47_19:
	.loc	13 472 23
	movzwl	%di, %edi
	addl	%esi, %edi
	movb	$-128, %cl
Ltmp1505:
	cmpw	$15, %di
	.loc	13 472 20 is_stmt 0
	ja	LBB47_21
Ltmp1506:
	.loc	13 475 13 is_stmt 1
	incq	56(%r13)
	movb	$-1, %cl
Ltmp1507:
LBB47_21:
	.loc	13 0 0 is_stmt 0
	movb	%cl, (%r9,%rdx)
	movb	%cl, 16(%rax,%r9)
	.loc	13 479 9 is_stmt 1
	decq	64(%r13)
Ltmp1508:
	.loc	14 584 32
	movq	(%r15), %r12
Ltmp1509:
	.loc	31 1204 12
	movq	88(%r13), %rcx
	cmpq	80(%r13), %rcx
	.loc	31 1204 9 is_stmt 0
	je	LBB47_29
Ltmp1510:
LBB47_23:
	.loc	31 854 19 is_stmt 1
	movq	72(%r13), %rax
Ltmp1511:
	.loc	18 901 51
	movq	%r12, (%rax,%rcx,8)
Ltmp1512:
	.loc	31 1210 13
	incq	88(%r13)
Ltmp1513:
	.loc	35 34 13
	testb	%r14b, %r14b
	jne	LBB47_28
	jmp	LBB47_25
Ltmp1514:
LBB47_34:
	.loc	20 0 0 is_stmt 0
	movb	%dl, %sil
	shlq	$3, %rsi
Ltmp1515:
	.loc	15 170 16 is_stmt 1
	testq	%r15, %r15
	.loc	15 170 13 is_stmt 0
	jne	LBB47_41
Ltmp1516:
	.loc	20 0 0
	movq	%rsi, %rax
Ltmp1517:
	jmp	LBB47_43
Ltmp1518:
LBB47_1:
	leaq	-64(%rbp), %rax
Ltmp1519:
	.loc	6 264 21 is_stmt 1
	movq	%rax, -56(%rbp)
	leaq	-56(%rbp), %rax
Ltmp1520:
	.loc	6 265 37
	movq	%rax, -136(%rbp)
	.loc	6 265 9 is_stmt 0
	leaq	__ZN95_$LT$crossbeam_utils..sync..sharded_lock..THREAD_INDICES$u20$as$u20$core..ops..deref..Deref$GT$5deref11__stability4LAZY17h0876921dd0b7a4f7E+104(%rip), %rdi
	leaq	l___unnamed_1(%rip), %rcx
	leaq	-136(%rbp), %rdx
	xorl	%esi, %esi
	callq	__ZN3std4sync4once4Once10call_inner17hfcd38045e50af9d3E
Ltmp1521:
	.loc	9 37 20 is_stmt 1
	movq	-64(%rbp), %r13
Ltmp1522:
	.loc	9 38 17
	cmpq	$0, (%r13)
	jne	LBB47_3
Ltmp1523:
LBB47_50:
	.loc	21 10 9
	leaq	l___unnamed_19(%rip), %rdi
	leaq	l___unnamed_20(%rip), %rdx
	movl	$66, %esi
	callq	__ZN4core9panicking5panic17h383a6b80ea7021aaE
Ltmp1524:
LBB47_5:
	.loc	30 274 13
	callq	__ZN3std9panicking11panic_count17is_zero_slow_path17ha588394117c50e3dE
	movl	%eax, %r14d
	xorb	$1, %r14b
Ltmp1525:
	.loc	29 2356 24
	movb	8(%r13), %al
Ltmp1526:
	.loc	29 410 18
	testb	%al, %al
Ltmp1527:
	.loc	22 1004 13
	je	LBB47_10
Ltmp1528:
LBB47_7:
	.loc	22 1005 17
	movq	%r13, -136(%rbp)
	movb	%r14b, -128(%rbp)
Ltmp1355:
Ltmp1529:
	.loc	22 1005 23 is_stmt 0
	leaq	l___unnamed_21(%rip), %rdi
	leaq	l___unnamed_7(%rip), %rcx
	leaq	l___unnamed_48(%rip), %r8
	leaq	-136(%rbp), %rdx
	movl	$43, %esi
	callq	__ZN4core6result13unwrap_failed17hc193898ef513e81fE
Ltmp1356:
	jmp	LBB47_8
Ltmp1530:
LBB47_38:
	.loc	15 170 16 is_stmt 1
	testq	%r15, %r15
	.loc	15 170 13 is_stmt 0
	je	LBB47_39
Ltmp1531:
	.loc	15 80 14 is_stmt 1
	movl	$8, %esi
Ltmp1532:
LBB47_41:
	.loc	20 0 0 is_stmt 0
	movq	%r15, %rdi
	callq	___rust_alloc
Ltmp1533:
LBB47_43:
	.loc	22 611 13 is_stmt 1
	testq	%rax, %rax
	je	LBB47_47
Ltmp1534:
	.loc	31 1208 45
	movq	88(%r13), %rcx
Ltmp1535:
LBB47_45:
	.loc	20 382 9
	movq	%rax, 72(%r13)
Ltmp1536:
	.loc	20 378 9
	shrq	$3, %r15
Ltmp1537:
	.loc	20 383 9
	movq	%r15, 80(%r13)
Ltmp1538:
	.loc	18 901 51
	movq	%r12, (%rax,%rcx,8)
Ltmp1539:
	.loc	31 1210 13
	incq	88(%r13)
Ltmp1540:
	.loc	35 34 13
	testb	%r14b, %r14b
	.loc	35 34 12 is_stmt 0
	jne	LBB47_28
Ltmp1541:
LBB47_25:
	.loc	29 2356 24 is_stmt 1
	movq	__ZN3std9panicking11panic_count18GLOBAL_PANIC_COUNT17h5754c1d48a496461E@GOTPCREL(%rip), %rax
Ltmp1542:
	movq	(%rax), %rax
Ltmp1543:
	.loc	30 262 12
	testq	%rax, %rax
	.loc	30 262 9 is_stmt 0
	jne	LBB47_26
Ltmp1544:
LBB47_28:
	.loc	16 500 13 is_stmt 1
	movq	-56(%rbp), %rax
	movq	(%rax), %rdi
Ltmp1545:
	.loc	17 68 17
	callq	_pthread_mutex_unlock
Ltmp1546:
	.loc	14 585 6
	addq	$104, %rsp
	popq	%rbx
	popq	%r12
	popq	%r13
	popq	%r14
	popq	%r15
	popq	%rbp
	retq
Ltmp1547:
LBB47_26:
	.loc	30 274 13
	callq	__ZN3std9panicking11panic_count17is_zero_slow_path17ha588394117c50e3dE
Ltmp1548:
	.loc	35 34 12
	testb	%al, %al
	jne	LBB47_28
Ltmp1549:
	.loc	29 2342 24
	movb	$1, 8(%r13)
Ltmp1550:
	.loc	29 0 24 is_stmt 0
	jmp	LBB47_28
Ltmp1551:
LBB47_39:
	movl	$8, %eax
Ltmp1552:
	jmp	LBB47_45
Ltmp1553:
LBB47_46:
Ltmp1358:
	.loc	20 301 38 is_stmt 1
	callq	__ZN5alloc7raw_vec17capacity_overflow17h7526b10e27579d59E
Ltmp1554:
Ltmp1359:
LBB47_8:
	.loc	20 0 38 is_stmt 0
	ud2
LBB47_47:
Ltmp1555:
	.loc	20 302 47 is_stmt 1
	movl	$8, %esi
	movq	%r15, %rdi
	callq	__ZN5alloc5alloc18handle_alloc_error17h28974197717b8939E
Ltmp1556:
LBB47_48:
Ltmp1360:
	.loc	20 0 47 is_stmt 0
	movq	%rax, %rbx
	leaq	-56(%rbp), %rdi
	.loc	14 585 5 is_stmt 1
	callq	__ZN4core3ptr13drop_in_place17h29db1abd71aafba2E
	jmp	LBB47_49
LBB47_9:
Ltmp1557:
Ltmp1357:
	.loc	14 0 5 is_stmt 0
	movq	%rax, %rbx
	leaq	-136(%rbp), %rdi
Ltmp1558:
	.loc	22 1005 86 is_stmt 1
	callq	__ZN4core3ptr13drop_in_place17h13ded0c92087dc3fE
Ltmp1559:
LBB47_49:
	.loc	22 0 86 is_stmt 0
	movq	%rbx, %rdi
	callq	__Unwind_Resume
	ud2
Lfunc_end47:
	.cfi_endproc
	.section	__TEXT,__gcc_except_tab
	.p2align	2
GCC_except_table47:
Lexception10:
	.byte	255
	.byte	255
	.byte	1
	.uleb128 Lcst_end10-Lcst_begin10
Lcst_begin10:
	.uleb128 Lfunc_begin47-Lfunc_begin47
	.uleb128 Ltmp1355-Lfunc_begin47
	.byte	0
	.byte	0
	.uleb128 Ltmp1355-Lfunc_begin47
	.uleb128 Ltmp1356-Ltmp1355
	.uleb128 Ltmp1357-Lfunc_begin47
	.byte	0
	.uleb128 Ltmp1356-Lfunc_begin47
	.uleb128 Ltmp1358-Ltmp1356
	.byte	0
	.byte	0
	.uleb128 Ltmp1358-Lfunc_begin47
	.uleb128 Ltmp1359-Ltmp1358
	.uleb128 Ltmp1360-Lfunc_begin47
	.byte	0
	.uleb128 Ltmp1359-Lfunc_begin47
	.uleb128 Lfunc_end47-Ltmp1359
	.byte	0
	.byte	0
Lcst_end10:
	.p2align	2

	.section	__TEXT,__literal16,16byte_literals
	.p2align	4
LCPI48_0:
	.quad	1
	.quad	1
	.section	__TEXT,__text,regular,pure_instructions
	.globl	__ZN15crossbeam_utils4sync10wait_group9WaitGroup3new17h751c7f89265cda18E
	.p2align	4, 0x90
__ZN15crossbeam_utils4sync10wait_group9WaitGroup3new17h751c7f89265cda18E:
Lfunc_begin48:
	.file	59 "/Users/yingyuhang/.cargo/registry/src/github.com-1ecc6299db9ec823/crossbeam-utils-0.7.2/src/sync/wait_group.rs"
	.loc	59 65 0 is_stmt 1
	.cfi_startproc
	.cfi_personality 155, _rust_eh_personality
	.cfi_lsda 16, Lexception11
	pushq	%rbp
	.cfi_def_cfa_offset 16
	.cfi_offset %rbp, -16
	movq	%rsp, %rbp
	.cfi_def_cfa_register %rbp
	pushq	%r15
	pushq	%r14
	pushq	%rbx
	subq	$56, %rsp
	.cfi_offset %rbx, -40
	.cfi_offset %r14, -32
	.cfi_offset %r15, -24
	leaq	-72(%rbp), %rdi
Ltmp1566:
	.loc	59 68 23 prologue_end
	callq	__ZN3std4sync7condvar7Condvar3new17h64fee8df7a382290E
Ltmp1567:
	.loc	15 80 14
	movl	$64, %edi
	movl	$8, %esi
	callq	___rust_alloc
Ltmp1568:
	.loc	15 278 9
	testq	%rax, %rax
	je	LBB48_9
Ltmp1569:
	.loc	16 0 0 is_stmt 0
	movq	%rax, %r15
Ltmp1560:
	.loc	16 223 24 is_stmt 1
	movq	%rax, %rdi
	callq	__ZN3std10sys_common5mutex5Mutex3new17hfec750c2ce1161a9E
Ltmp1561:
Ltmp1570:
	.loc	16 223 20 is_stmt 0
	movq	%r15, -48(%rbp)
Ltmp1563:
	.loc	16 224 21 is_stmt 1
	callq	__ZN3std10sys_common6poison4Flag3new17hd7ec4e2336668a12E
Ltmp1564:
Ltmp1571:
	.loc	16 0 0 is_stmt 0
	movl	%eax, %r14d
Ltmp1572:
	leaq	-48(%rbp), %rbx
Ltmp1573:
	.loc	17 52 17 is_stmt 1
	movq	%rbx, %rdi
	callq	_pthread_mutexattr_init
Ltmp1574:
	.loc	17 54 17
	movq	%rbx, %rdi
	xorl	%esi, %esi
	callq	_pthread_mutexattr_settype
Ltmp1575:
	.loc	17 56 17
	movq	%r15, %rdi
	movq	%rbx, %rsi
	callq	_pthread_mutex_init
Ltmp1576:
	.loc	17 58 17
	movq	%rbx, %rdi
	callq	_pthread_mutexattr_destroy
Ltmp1577:
	.loc	59 67 29
	movq	-72(%rbp), %rax
	movq	-64(%rbp), %rcx
	movq	%rax, -48(%rbp)
	movq	%rcx, -40(%rbp)
	movl	-55(%rbp), %eax
	movl	-52(%rbp), %ecx
	movl	%eax, -32(%rbp)
	movl	%ecx, -29(%rbp)
Ltmp1578:
	.loc	15 80 14
	movl	$56, %edi
	movl	$8, %esi
	callq	___rust_alloc
Ltmp1579:
	.loc	15 278 9
	testq	%rax, %rax
	je	LBB48_4
Ltmp1580:
	.loc	28 323 29
	movaps	LCPI48_0(%rip), %xmm0
	movups	%xmm0, (%rax)
	movq	-48(%rbp), %rcx
	movq	-40(%rbp), %rdx
	movq	%rcx, 16(%rax)
	movq	%rdx, 24(%rax)
	movq	%r15, 32(%rax)
	movb	%r14b, 40(%rax)
	movl	-32(%rbp), %ecx
	movl	-29(%rbp), %edx
	movl	%ecx, 41(%rax)
	movl	%edx, 44(%rax)
	movq	$1, 48(%rax)
Ltmp1581:
	.loc	59 72 6
	addq	$56, %rsp
	popq	%rbx
	popq	%r14
Ltmp1582:
	popq	%r15
Ltmp1583:
	popq	%rbp
	retq
Ltmp1584:
LBB48_9:
	.loc	15 279 19
	movl	$64, %edi
	movl	$8, %esi
	callq	__ZN5alloc5alloc18handle_alloc_error17h28974197717b8939E
Ltmp1585:
LBB48_4:
	.loc	15 279 19 is_stmt 0
	movl	$56, %edi
	movl	$8, %esi
	callq	__ZN5alloc5alloc18handle_alloc_error17h28974197717b8939E
Ltmp1586:
LBB48_7:
Ltmp1565:
	.loc	15 0 19
	movq	%rax, %r14
	leaq	-48(%rbp), %rdi
Ltmp1587:
	.loc	16 226 9 is_stmt 1
	callq	__ZN4core3ptr13drop_in_place17ha6109a68f098ccf3E
	jmp	LBB48_6
Ltmp1588:
LBB48_5:
Ltmp1562:
	.loc	16 0 9 is_stmt 0
	movq	%rax, %r14
	.loc	16 223 40 is_stmt 1
	movq	%r15, %rdi
	callq	__ZN5alloc5alloc8box_free17h9af06c4ad689b187E
Ltmp1589:
LBB48_6:
	.loc	16 0 40 is_stmt 0
	leaq	-72(%rbp), %rdi
	.loc	59 70 13 is_stmt 1
	callq	__ZN4core3ptr13drop_in_place17he663eee07dc3db45E
	movq	%r14, %rdi
	callq	__Unwind_Resume
	ud2
Ltmp1590:
Lfunc_end48:
	.cfi_endproc
	.section	__TEXT,__gcc_except_tab
	.p2align	2
GCC_except_table48:
Lexception11:
	.byte	255
	.byte	255
	.byte	1
	.uleb128 Lcst_end11-Lcst_begin11
Lcst_begin11:
	.uleb128 Lfunc_begin48-Lfunc_begin48
	.uleb128 Ltmp1560-Lfunc_begin48
	.byte	0
	.byte	0
	.uleb128 Ltmp1560-Lfunc_begin48
	.uleb128 Ltmp1561-Ltmp1560
	.uleb128 Ltmp1562-Lfunc_begin48
	.byte	0
	.uleb128 Ltmp1563-Lfunc_begin48
	.uleb128 Ltmp1564-Ltmp1563
	.uleb128 Ltmp1565-Lfunc_begin48
	.byte	0
	.uleb128 Ltmp1564-Lfunc_begin48
	.uleb128 Lfunc_end48-Ltmp1564
	.byte	0
	.byte	0
Lcst_end11:
	.p2align	2

	.section	__TEXT,__text,regular,pure_instructions
	.globl	__ZN15crossbeam_utils4sync10wait_group9WaitGroup4wait17h940daf586afbd681E
	.p2align	4, 0x90
__ZN15crossbeam_utils4sync10wait_group9WaitGroup4wait17h940daf586afbd681E:
Lfunc_begin49:
	.loc	59 95 0
	.cfi_startproc
	.cfi_personality 155, _rust_eh_personality
	.cfi_lsda 16, Lexception12
	pushq	%rbp
	.cfi_def_cfa_offset 16
	.cfi_offset %rbp, -16
	movq	%rsp, %rbp
	.cfi_def_cfa_register %rbp
	pushq	%r15
	pushq	%r14
	pushq	%r13
	pushq	%r12
	pushq	%rbx
	subq	$40, %rsp
	.cfi_offset %rbx, -56
	.cfi_offset %r12, -48
	.cfi_offset %r13, -40
	.cfi_offset %r14, -32
	.cfi_offset %r15, -24
	movq	%rdi, %rbx
	movq	%rdi, -64(%rbp)
Ltmp1637:
	.loc	16 273 13 prologue_end
	movq	32(%rdi), %rdi
Ltmp1638:
	.loc	17 63 17
	callq	_pthread_mutex_lock
Ltmp1639:
	.loc	29 2356 24
	movq	__ZN3std9panicking11panic_count18GLOBAL_PANIC_COUNT17h5754c1d48a496461E@GOTPCREL(%rip), %r12
Ltmp1640:
	movq	(%r12), %rax
Ltmp1641:
	.loc	30 262 12
	testq	%rax, %rax
	.loc	30 262 9 is_stmt 0
	je	LBB49_15
Ltmp1642:
Ltmp1591:
	.loc	30 274 13 is_stmt 1
	callq	__ZN3std9panicking11panic_count17is_zero_slow_path17ha588394117c50e3dE
Ltmp1592:
Ltmp1643:
	xorb	$1, %al
Ltmp1644:
	.loc	59 0 0 is_stmt 0
	leaq	32(%rbx), %r14
Ltmp1645:
	.loc	29 2356 24 is_stmt 1
	movb	40(%rbx), %cl
Ltmp1646:
	.loc	29 410 18
	testb	%cl, %cl
Ltmp1647:
	.loc	22 1004 13
	jne	LBB49_16
Ltmp1648:
LBB49_3:
	.loc	59 96 12
	movq	48(%rbx), %r15
Ltmp1649:
	.loc	35 34 13
	testb	%al, %al
	.loc	35 34 12 is_stmt 0
	je	LBB49_17
Ltmp1650:
LBB49_4:
	.loc	16 500 13 is_stmt 1
	movq	(%r14), %rdi
Ltmp1651:
	.loc	17 68 17
	callq	_pthread_mutex_unlock
Ltmp1652:
	.loc	59 96 12
	cmpq	$1, %r15
	.loc	59 96 9 is_stmt 0
	jne	LBB49_8
Ltmp1653:
Ltmp1634:
	.loc	59 0 9
	leaq	-64(%rbp), %rdi
Ltmp1654:
	.loc	18 184 1 is_stmt 1
	callq	__ZN86_$LT$crossbeam_utils..sync..wait_group..WaitGroup$u20$as$u20$core..ops..drop..Drop$GT$4drop17ha2b2465224a9e9b9E
Ltmp1635:
Ltmp1655:
	.loc	29 2403 24
	lock		decq	(%rbx)
Ltmp1656:
	.loc	28 1350 9
	jne	LBB49_32
Ltmp1657:
	.loc	29 2675 24
	##MEMBARRIER
	leaq	-64(%rbp), %rdi
Ltmp1658:
	.loc	28 1385 13
	callq	__ZN5alloc4sync12Arc$LT$T$GT$9drop_slow17h019c21a206d95406E
	jmp	LBB49_32
Ltmp1659:
LBB49_8:
	.loc	29 2389 24
	lock		incq	(%rbx)
Ltmp1660:
	.loc	28 1102 9
	jle	LBB49_38
Ltmp1661:
	.loc	59 100 21
	movq	%rbx, -80(%rbp)
	movq	%rbx, -56(%rbp)
Ltmp1601:
Ltmp1662:
	.loc	59 0 21 is_stmt 0
	leaq	-56(%rbp), %rdi
Ltmp1663:
	.loc	18 184 1 is_stmt 1
	callq	__ZN86_$LT$crossbeam_utils..sync..wait_group..WaitGroup$u20$as$u20$core..ops..drop..Drop$GT$4drop17ha2b2465224a9e9b9E
Ltmp1602:
Ltmp1664:
	.loc	29 2403 24
	lock		decq	(%rbx)
Ltmp1665:
	.loc	28 1350 9
	jne	LBB49_12
Ltmp1666:
	.loc	29 2675 24
	##MEMBARRIER
Ltmp1606:
	leaq	-56(%rbp), %rdi
Ltmp1667:
	.loc	28 1385 13
	callq	__ZN5alloc4sync12Arc$LT$T$GT$9drop_slow17h019c21a206d95406E
Ltmp1607:
Ltmp1668:
LBB49_12:
	.loc	59 103 25
	movq	-80(%rbp), %r14
Ltmp1669:
	.loc	16 273 13
	movq	32(%r14), %rdi
Ltmp1670:
	.loc	17 63 17
	callq	_pthread_mutex_lock
Ltmp1671:
	.loc	29 2356 24
	movq	(%r12), %rax
Ltmp1672:
	.loc	30 262 12
	testq	%rax, %rax
	.loc	30 262 9 is_stmt 0
	je	LBB49_21
Ltmp1673:
Ltmp1608:
	.loc	30 274 13 is_stmt 1
	callq	__ZN3std9panicking11panic_count17is_zero_slow_path17ha588394117c50e3dE
Ltmp1609:
Ltmp1674:
	xorb	$1, %al
	jmp	LBB49_22
Ltmp1675:
LBB49_15:
	.loc	30 0 13 is_stmt 0
	xorl	%eax, %eax
	leaq	32(%rbx), %r14
Ltmp1676:
	.loc	29 2356 24 is_stmt 1
	movb	40(%rbx), %cl
Ltmp1677:
	.loc	29 410 18
	testb	%cl, %cl
Ltmp1678:
	.loc	22 1004 13
	je	LBB49_3
Ltmp1679:
LBB49_16:
	.loc	22 1005 17
	movq	%r14, -56(%rbp)
	movb	%al, -48(%rbp)
Ltmp1593:
Ltmp1680:
	.loc	22 1005 23 is_stmt 0
	leaq	l___unnamed_21(%rip), %rdi
	leaq	l___unnamed_5(%rip), %rcx
	leaq	l___unnamed_49(%rip), %r8
	leaq	-56(%rbp), %rdx
	movl	$43, %esi
	callq	__ZN4core6result13unwrap_failed17hc193898ef513e81fE
Ltmp1681:
Ltmp1594:
	.loc	22 0 23
	jmp	LBB49_38
Ltmp1682:
LBB49_17:
	.loc	29 2356 24 is_stmt 1
	movq	(%r12), %rax
Ltmp1683:
	.loc	30 262 12
	testq	%rax, %rax
	.loc	30 262 9 is_stmt 0
	je	LBB49_4
Ltmp1684:
Ltmp1598:
	.loc	30 274 13 is_stmt 1
	callq	__ZN3std9panicking11panic_count17is_zero_slow_path17ha588394117c50e3dE
Ltmp1599:
Ltmp1685:
	.loc	35 34 12
	testb	%al, %al
	jne	LBB49_4
Ltmp1686:
	.loc	29 2342 24
	movb	$1, 40(%rbx)
Ltmp1687:
	.loc	29 0 24 is_stmt 0
	jmp	LBB49_4
Ltmp1688:
LBB49_21:
	xorl	%eax, %eax
Ltmp1689:
LBB49_22:
	leaq	32(%r14), %rcx
Ltmp1690:
	movq	%rcx, -72(%rbp)
Ltmp1691:
	.loc	29 2356 24 is_stmt 1
	movb	40(%r14), %cl
Ltmp1692:
	.loc	29 410 18
	testb	%cl, %cl
Ltmp1693:
	.loc	22 1004 13
	jne	LBB49_39
Ltmp1694:
	.loc	59 104 15
	cmpq	$0, 48(%r14)
	.loc	59 104 9 is_stmt 0
	je	LBB49_29
Ltmp1695:
	.loc	59 0 9
	leaq	16(%r14), %r15
Ltmp1696:
	.p2align	4, 0x90
LBB49_25:
	movq	-72(%rbp), %rcx
	movq	%rcx, -56(%rbp)
	movl	%eax, %r13d
	movb	%al, -48(%rbp)
Ltmp1697:
	.loc	16 520 5 is_stmt 1
	movq	(%rcx), %rbx
Ltmp1698:
Ltmp1615:
	.loc	56 199 13
	movq	%r15, %rdi
	movq	%rbx, %rsi
	callq	__ZN3std4sync7condvar7Condvar6verify17h11b2eb6bc24cc9feE
Ltmp1616:
Ltmp1699:
	.loc	56 200 13
	movq	(%r15), %r12
Ltmp1700:
Ltmp1617:
	.loc	57 50 21
	movq	%rbx, %rdi
	callq	__ZN3std10sys_common5mutex3raw17hd9071ed6f4cf0cb0E
Ltmp1618:
Ltmp1701:
	.loc	58 69 17
	movq	%r12, %rdi
	movq	%rax, %rsi
	callq	_pthread_cond_wait
Ltmp1702:
	.loc	29 2356 24
	movzbl	40(%r14), %eax
Ltmp1703:
	.loc	29 410 18
	testb	%al, %al
Ltmp1704:
	.loc	22 1004 13
	jne	LBB49_37
Ltmp1705:
	.loc	59 104 15
	cmpq	$0, 48(%r14)
	movl	%r13d, %eax
	.loc	59 104 9 is_stmt 0
	jne	LBB49_25
Ltmp1706:
LBB49_29:
	.loc	35 34 13 is_stmt 1
	testb	%al, %al
	.loc	35 34 12 is_stmt 0
	je	LBB49_33
Ltmp1707:
LBB49_30:
	.loc	16 500 13 is_stmt 1
	movq	32(%r14), %rdi
Ltmp1708:
	.loc	17 68 17
	callq	_pthread_mutex_unlock
Ltmp1709:
	.loc	29 2403 24
	lock		decq	(%r14)
Ltmp1710:
	.loc	28 1350 9
	jne	LBB49_32
Ltmp1711:
	.loc	29 2675 24
	##MEMBARRIER
Ltmp1631:
	leaq	-80(%rbp), %rdi
Ltmp1712:
	.loc	28 1385 13
	callq	__ZN5alloc4sync12Arc$LT$T$GT$9drop_slow17h019c21a206d95406E
Ltmp1632:
Ltmp1713:
LBB49_32:
	.loc	59 107 6
	addq	$40, %rsp
	popq	%rbx
	popq	%r12
	popq	%r13
	popq	%r14
	popq	%r15
	popq	%rbp
	retq
LBB49_33:
Ltmp1714:
	.loc	29 2356 24
	movq	__ZN3std9panicking11panic_count18GLOBAL_PANIC_COUNT17h5754c1d48a496461E@GOTPCREL(%rip), %rax
Ltmp1715:
	movq	(%rax), %rax
Ltmp1716:
	.loc	30 262 12
	testq	%rax, %rax
	.loc	30 262 9 is_stmt 0
	je	LBB49_30
Ltmp1717:
Ltmp1628:
	.loc	30 274 13 is_stmt 1
	callq	__ZN3std9panicking11panic_count17is_zero_slow_path17ha588394117c50e3dE
Ltmp1629:
Ltmp1718:
	.loc	35 34 12
	testb	%al, %al
	jne	LBB49_30
Ltmp1719:
	.loc	29 2342 24
	movb	$1, 40(%r14)
	jmp	LBB49_30
Ltmp1720:
LBB49_37:
	.loc	29 0 24 is_stmt 0
	movq	-72(%rbp), %rax
Ltmp1721:
	.loc	22 1005 17 is_stmt 1
	movq	%rax, -56(%rbp)
	movb	%r13b, -48(%rbp)
Ltmp1622:
Ltmp1722:
	.loc	22 1005 23 is_stmt 0
	leaq	l___unnamed_21(%rip), %rdi
	leaq	l___unnamed_5(%rip), %rcx
	leaq	l___unnamed_50(%rip), %r8
	leaq	-56(%rbp), %rdx
	movl	$43, %esi
	callq	__ZN4core6result13unwrap_failed17hc193898ef513e81fE
Ltmp1723:
Ltmp1623:
LBB49_38:
	.loc	22 0 23
	ud2
LBB49_39:
Ltmp1724:
	movq	-72(%rbp), %rcx
Ltmp1725:
	.loc	22 1005 17
	movq	%rcx, -56(%rbp)
	movb	%al, -48(%rbp)
Ltmp1610:
Ltmp1726:
	.loc	22 1005 23
	leaq	l___unnamed_21(%rip), %rdi
	leaq	l___unnamed_5(%rip), %rcx
	leaq	l___unnamed_51(%rip), %r8
	leaq	-56(%rbp), %rdx
	movl	$43, %esi
	callq	__ZN4core6result13unwrap_failed17hc193898ef513e81fE
Ltmp1727:
Ltmp1611:
	.loc	22 0 23
	jmp	LBB49_38
Ltmp1728:
LBB49_40:
Ltmp1612:
	movq	%rax, %rbx
Ltmp1729:
Ltmp1613:
	leaq	-56(%rbp), %rdi
	.loc	22 1005 86
	callq	__ZN4core3ptr13drop_in_place17h13ded0c92087dc3fE
Ltmp1614:
	jmp	LBB49_50
Ltmp1730:
LBB49_41:
Ltmp1595:
	.loc	22 0 86
	movq	%rax, %rbx
Ltmp1731:
Ltmp1596:
	leaq	-56(%rbp), %rdi
Ltmp1732:
	.loc	22 1005 86
	callq	__ZN4core3ptr13drop_in_place17h13ded0c92087dc3fE
Ltmp1597:
	jmp	LBB49_48
Ltmp1733:
LBB49_42:
Ltmp1624:
	.loc	22 0 86
	movq	%rax, %rbx
Ltmp1625:
	leaq	-56(%rbp), %rdi
Ltmp1734:
	.loc	22 1005 86
	callq	__ZN4core3ptr13drop_in_place17h13ded0c92087dc3fE
Ltmp1626:
	jmp	LBB49_50
Ltmp1735:
LBB49_43:
Ltmp1633:
	.loc	22 0 86
	movq	%rax, %rbx
	jmp	LBB49_52
Ltmp1736:
LBB49_44:
Ltmp1603:
	movq	%rax, %rbx
Ltmp1737:
Ltmp1604:
	leaq	-56(%rbp), %rdi
Ltmp1738:
	.loc	18 184 1 is_stmt 1
	callq	__ZN4core3ptr13drop_in_place17h94b246ca8185e218E
Ltmp1605:
	jmp	LBB49_50
Ltmp1739:
LBB49_45:
Ltmp1636:
	.loc	18 0 1 is_stmt 0
	movq	%rax, %rbx
	leaq	-64(%rbp), %rdi
	jmp	LBB49_51
Ltmp1740:
LBB49_46:
Ltmp1630:
	movq	%rax, %rbx
Ltmp1741:
	jmp	LBB49_50
Ltmp1742:
LBB49_47:
Ltmp1600:
	movq	%rax, %rbx
LBB49_48:
Ltmp1743:
	leaq	-64(%rbp), %rdi
	.loc	59 107 5 is_stmt 1
	callq	__ZN4core3ptr13drop_in_place17hf8bfc1acfd6e7b1dE
	jmp	LBB49_52
Ltmp1744:
LBB49_49:
Ltmp1619:
	.loc	59 0 5 is_stmt 0
	movq	%rax, %rbx
Ltmp1745:
Ltmp1620:
	leaq	-56(%rbp), %rdi
Ltmp1746:
	.loc	56 204 5 is_stmt 1
	callq	__ZN4core3ptr13drop_in_place17h29db1abd71aafba2E
Ltmp1621:
Ltmp1747:
LBB49_50:
	.loc	56 0 5 is_stmt 0
	leaq	-80(%rbp), %rdi
Ltmp1748:
LBB49_51:
	callq	__ZN4core3ptr13drop_in_place17h94b246ca8185e218E
Ltmp1749:
LBB49_52:
	movq	%rbx, %rdi
	callq	__Unwind_Resume
	ud2
LBB49_53:
Ltmp1627:
	movq	%rax, %rbx
Ltmp1750:
	jmp	LBB49_50
Lfunc_end49:
	.cfi_endproc
	.section	__TEXT,__gcc_except_tab
	.p2align	2
GCC_except_table49:
Lexception12:
	.byte	255
	.byte	255
	.byte	1
	.uleb128 Lcst_end12-Lcst_begin12
Lcst_begin12:
	.uleb128 Ltmp1591-Lfunc_begin49
	.uleb128 Ltmp1592-Ltmp1591
	.uleb128 Ltmp1600-Lfunc_begin49
	.byte	0
	.uleb128 Ltmp1634-Lfunc_begin49
	.uleb128 Ltmp1635-Ltmp1634
	.uleb128 Ltmp1636-Lfunc_begin49
	.byte	0
	.uleb128 Ltmp1635-Lfunc_begin49
	.uleb128 Ltmp1601-Ltmp1635
	.byte	0
	.byte	0
	.uleb128 Ltmp1601-Lfunc_begin49
	.uleb128 Ltmp1602-Ltmp1601
	.uleb128 Ltmp1603-Lfunc_begin49
	.byte	0
	.uleb128 Ltmp1606-Lfunc_begin49
	.uleb128 Ltmp1609-Ltmp1606
	.uleb128 Ltmp1630-Lfunc_begin49
	.byte	0
	.uleb128 Ltmp1593-Lfunc_begin49
	.uleb128 Ltmp1594-Ltmp1593
	.uleb128 Ltmp1595-Lfunc_begin49
	.byte	0
	.uleb128 Ltmp1598-Lfunc_begin49
	.uleb128 Ltmp1599-Ltmp1598
	.uleb128 Ltmp1600-Lfunc_begin49
	.byte	0
	.uleb128 Ltmp1615-Lfunc_begin49
	.uleb128 Ltmp1618-Ltmp1615
	.uleb128 Ltmp1619-Lfunc_begin49
	.byte	0
	.uleb128 Ltmp1631-Lfunc_begin49
	.uleb128 Ltmp1632-Ltmp1631
	.uleb128 Ltmp1633-Lfunc_begin49
	.byte	0
	.uleb128 Ltmp1628-Lfunc_begin49
	.uleb128 Ltmp1629-Ltmp1628
	.uleb128 Ltmp1630-Lfunc_begin49
	.byte	0
	.uleb128 Ltmp1622-Lfunc_begin49
	.uleb128 Ltmp1623-Ltmp1622
	.uleb128 Ltmp1624-Lfunc_begin49
	.byte	0
	.uleb128 Ltmp1610-Lfunc_begin49
	.uleb128 Ltmp1611-Ltmp1610
	.uleb128 Ltmp1612-Lfunc_begin49
	.byte	0
	.uleb128 Ltmp1613-Lfunc_begin49
	.uleb128 Ltmp1614-Ltmp1613
	.uleb128 Ltmp1630-Lfunc_begin49
	.byte	0
	.uleb128 Ltmp1596-Lfunc_begin49
	.uleb128 Ltmp1597-Ltmp1596
	.uleb128 Ltmp1600-Lfunc_begin49
	.byte	0
	.uleb128 Ltmp1625-Lfunc_begin49
	.uleb128 Ltmp1626-Ltmp1625
	.uleb128 Ltmp1627-Lfunc_begin49
	.byte	0
	.uleb128 Ltmp1604-Lfunc_begin49
	.uleb128 Ltmp1605-Ltmp1604
	.uleb128 Ltmp1630-Lfunc_begin49
	.byte	0
	.uleb128 Ltmp1605-Lfunc_begin49
	.uleb128 Ltmp1620-Ltmp1605
	.byte	0
	.byte	0
	.uleb128 Ltmp1620-Lfunc_begin49
	.uleb128 Ltmp1621-Ltmp1620
	.uleb128 Ltmp1627-Lfunc_begin49
	.byte	0
	.uleb128 Ltmp1621-Lfunc_begin49
	.uleb128 Lfunc_end49-Ltmp1621
	.byte	0
	.byte	0
Lcst_end12:
	.p2align	2

	.section	__TEXT,__text,regular,pure_instructions
	.globl	__ZN86_$LT$crossbeam_utils..sync..wait_group..WaitGroup$u20$as$u20$core..ops..drop..Drop$GT$4drop17ha2b2465224a9e9b9E
	.p2align	4, 0x90
__ZN86_$LT$crossbeam_utils..sync..wait_group..WaitGroup$u20$as$u20$core..ops..drop..Drop$GT$4drop17ha2b2465224a9e9b9E:
Lfunc_begin50:
	.loc	59 111 0 is_stmt 1
	.cfi_startproc
	.cfi_personality 155, _rust_eh_personality
	.cfi_lsda 16, Lexception13
	pushq	%rbp
	.cfi_def_cfa_offset 16
	.cfi_offset %rbp, -16
	movq	%rsp, %rbp
	.cfi_def_cfa_register %rbp
	pushq	%r15
	pushq	%r14
	pushq	%r13
	pushq	%r12
	pushq	%rbx
	subq	$24, %rsp
	.cfi_offset %rbx, -56
	.cfi_offset %r12, -48
	.cfi_offset %r13, -40
	.cfi_offset %r14, -32
	.cfi_offset %r15, -24
	movq	%rdi, %r14
Ltmp1759:
	.loc	59 112 25 prologue_end
	movq	(%rdi), %rbx
Ltmp1760:
	.loc	16 273 13
	movq	32(%rbx), %rdi
Ltmp1761:
	.loc	17 63 17
	callq	_pthread_mutex_lock
Ltmp1762:
	.loc	29 2356 24
	movq	__ZN3std9panicking11panic_count18GLOBAL_PANIC_COUNT17h5754c1d48a496461E@GOTPCREL(%rip), %r12
Ltmp1763:
	movq	(%r12), %rax
Ltmp1764:
	.loc	30 262 12
	testq	%rax, %rax
	.loc	30 262 9 is_stmt 0
	jne	LBB50_2
Ltmp1765:
	.loc	30 0 9
	xorl	%r15d, %r15d
	leaq	32(%rbx), %r13
Ltmp1766:
	.loc	29 2356 24 is_stmt 1
	movb	40(%rbx), %al
Ltmp1767:
	.loc	29 410 18
	testb	%al, %al
Ltmp1768:
	.loc	22 1004 13
	jne	LBB50_4
Ltmp1769:
LBB50_6:
	.loc	59 112 25
	movq	%r13, -56(%rbp)
	movb	%r15b, -48(%rbp)
Ltmp1770:
	.loc	59 113 9
	movq	48(%rbx), %rax
	subq	$1, %rax
	jb	LBB50_15
Ltmp1771:
	movq	%rax, 48(%rbx)
	.loc	59 115 12
	testq	%rax, %rax
	.loc	59 115 9 is_stmt 0
	jne	LBB50_9
Ltmp1772:
	.loc	59 116 13 is_stmt 1
	movq	(%r14), %rdi
Ltmp1773:
	.loc	28 1116 9
	addq	$16, %rdi
Ltmp1774:
Ltmp1754:
	.loc	59 116 13
	callq	__ZN3std4sync7condvar7Condvar10notify_all17h4109712bde5923a6E
Ltmp1755:
Ltmp1775:
LBB50_9:
	.loc	35 34 13
	testb	%r15b, %r15b
	.loc	35 34 12 is_stmt 0
	jne	LBB50_13
Ltmp1776:
	.loc	29 2356 24 is_stmt 1
	movq	(%r12), %rax
Ltmp1777:
	.loc	30 262 12
	testq	%rax, %rax
	.loc	30 262 9 is_stmt 0
	jne	LBB50_11
Ltmp1778:
LBB50_13:
	.loc	16 500 13 is_stmt 1
	movq	(%r13), %rdi
Ltmp1779:
	.loc	17 68 17
	addq	$24, %rsp
	popq	%rbx
	popq	%r12
	popq	%r13
	popq	%r14
Ltmp1780:
	popq	%r15
	popq	%rbp
	jmp	_pthread_mutex_unlock
Ltmp1781:
LBB50_2:
	.loc	30 274 13
	callq	__ZN3std9panicking11panic_count17is_zero_slow_path17ha588394117c50e3dE
	movl	%eax, %r15d
	xorb	$1, %r15b
Ltmp1782:
	.loc	59 0 0 is_stmt 0
	leaq	32(%rbx), %r13
Ltmp1783:
	.loc	29 2356 24 is_stmt 1
	movb	40(%rbx), %al
Ltmp1784:
	.loc	29 410 18
	testb	%al, %al
Ltmp1785:
	.loc	22 1004 13
	je	LBB50_6
Ltmp1786:
LBB50_4:
	.loc	22 1005 17
	movq	%r13, -56(%rbp)
	movb	%r15b, -48(%rbp)
Ltmp1751:
Ltmp1787:
	.loc	22 1005 23 is_stmt 0
	leaq	l___unnamed_21(%rip), %rdi
	leaq	l___unnamed_5(%rip), %rcx
	leaq	l___unnamed_52(%rip), %r8
	leaq	-56(%rbp), %rdx
	movl	$43, %esi
	callq	__ZN4core6result13unwrap_failed17hc193898ef513e81fE
Ltmp1752:
	jmp	LBB50_5
Ltmp1788:
LBB50_11:
	.loc	30 274 13 is_stmt 1
	callq	__ZN3std9panicking11panic_count17is_zero_slow_path17ha588394117c50e3dE
Ltmp1789:
	.loc	35 34 12
	testb	%al, %al
	jne	LBB50_13
Ltmp1790:
	.loc	29 2342 24
	movb	$1, 40(%rbx)
Ltmp1791:
	.loc	29 0 24 is_stmt 0
	jmp	LBB50_13
Ltmp1792:
LBB50_15:
Ltmp1756:
	.loc	59 113 9 is_stmt 1
	leaq	_str.1(%rip), %rdi
	leaq	l___unnamed_53(%rip), %rdx
	movl	$33, %esi
	callq	__ZN4core9panicking5panic17h383a6b80ea7021aaE
Ltmp1757:
Ltmp1793:
LBB50_5:
	.loc	59 0 9 is_stmt 0
	ud2
Ltmp1794:
LBB50_16:
Ltmp1753:
	movq	%rax, %rbx
	leaq	-56(%rbp), %rdi
Ltmp1795:
	.loc	22 1005 86 is_stmt 1
	callq	__ZN4core3ptr13drop_in_place17h13ded0c92087dc3fE
	jmp	LBB50_17
Ltmp1796:
LBB50_14:
Ltmp1758:
	.loc	22 0 86 is_stmt 0
	movq	%rax, %rbx
	leaq	-56(%rbp), %rdi
	.loc	59 118 5 is_stmt 1
	callq	__ZN4core3ptr13drop_in_place17h29db1abd71aafba2E
Ltmp1797:
LBB50_17:
	.loc	59 0 5 is_stmt 0
	movq	%rbx, %rdi
	callq	__Unwind_Resume
	ud2
Lfunc_end50:
	.cfi_endproc
	.section	__TEXT,__gcc_except_tab
	.p2align	2
GCC_except_table50:
Lexception13:
	.byte	255
	.byte	255
	.byte	1
	.uleb128 Lcst_end13-Lcst_begin13
Lcst_begin13:
	.uleb128 Ltmp1754-Lfunc_begin50
	.uleb128 Ltmp1755-Ltmp1754
	.uleb128 Ltmp1758-Lfunc_begin50
	.byte	0
	.uleb128 Ltmp1755-Lfunc_begin50
	.uleb128 Ltmp1751-Ltmp1755
	.byte	0
	.byte	0
	.uleb128 Ltmp1751-Lfunc_begin50
	.uleb128 Ltmp1752-Ltmp1751
	.uleb128 Ltmp1753-Lfunc_begin50
	.byte	0
	.uleb128 Ltmp1752-Lfunc_begin50
	.uleb128 Ltmp1756-Ltmp1752
	.byte	0
	.byte	0
	.uleb128 Ltmp1756-Lfunc_begin50
	.uleb128 Ltmp1757-Ltmp1756
	.uleb128 Ltmp1758-Lfunc_begin50
	.byte	0
	.uleb128 Ltmp1757-Lfunc_begin50
	.uleb128 Lfunc_end50-Ltmp1757
	.byte	0
	.byte	0
Lcst_end13:
	.p2align	2

	.section	__TEXT,__text,regular,pure_instructions
	.globl	__ZN83_$LT$crossbeam_utils..sync..wait_group..WaitGroup$u20$as$u20$core..clone..Clone$GT$5clone17h18d93e9014f46bc8E
	.p2align	4, 0x90
__ZN83_$LT$crossbeam_utils..sync..wait_group..WaitGroup$u20$as$u20$core..clone..Clone$GT$5clone17h18d93e9014f46bc8E:
Lfunc_begin51:
	.loc	59 122 0 is_stmt 1
	.cfi_startproc
	.cfi_personality 155, _rust_eh_personality
	.cfi_lsda 16, Lexception14
	pushq	%rbp
	.cfi_def_cfa_offset 16
	.cfi_offset %rbp, -16
	movq	%rsp, %rbp
	.cfi_def_cfa_register %rbp
Ltmp1804:
	pushq	%r14
	pushq	%rbx
	subq	$16, %rsp
	.cfi_offset %rbx, -32
	.cfi_offset %r14, -24
	.loc	59 123 25 prologue_end
	movq	(%rdi), %rbx
Ltmp1805:
	.loc	16 273 13
	movq	32(%rbx), %rdi
Ltmp1806:
	.loc	17 63 17
	callq	_pthread_mutex_lock
Ltmp1807:
	.loc	29 2356 24
	movq	__ZN3std9panicking11panic_count18GLOBAL_PANIC_COUNT17h5754c1d48a496461E@GOTPCREL(%rip), %r14
Ltmp1808:
	movq	(%r14), %rax
Ltmp1809:
	.loc	30 262 12
	testq	%rax, %rax
	.loc	30 262 9 is_stmt 0
	jne	LBB51_2
Ltmp1810:
	.loc	30 0 9
	xorl	%eax, %eax
	leaq	32(%rbx), %rcx
Ltmp1811:
	.loc	29 2356 24 is_stmt 1
	movb	40(%rbx), %dl
Ltmp1812:
	.loc	29 410 18
	testb	%dl, %dl
Ltmp1813:
	.loc	22 1004 13
	jne	LBB51_4
Ltmp1814:
LBB51_6:
	.loc	59 123 25
	movq	%rcx, -32(%rbp)
	movb	%al, -24(%rbp)
Ltmp1815:
	.loc	59 124 9
	movq	48(%rbx), %rcx
	incq	%rcx
	je	LBB51_14
Ltmp1816:
	movq	%rcx, 48(%rbx)
Ltmp1817:
	.loc	29 2389 24
	lock		incq	(%rbx)
Ltmp1818:
	.loc	28 1102 9
	jle	LBB51_5
Ltmp1819:
	.loc	35 34 13
	testb	%al, %al
	.loc	35 34 12 is_stmt 0
	jne	LBB51_12
Ltmp1820:
	.loc	29 2356 24 is_stmt 1
	movq	(%r14), %rax
Ltmp1821:
	.loc	30 262 12
	testq	%rax, %rax
	.loc	30 262 9 is_stmt 0
	jne	LBB51_10
Ltmp1822:
LBB51_12:
	.loc	16 500 13 is_stmt 1
	movq	32(%rbx), %rdi
Ltmp1823:
	.loc	17 68 17
	callq	_pthread_mutex_unlock
Ltmp1824:
	.loc	59 129 6
	movq	%rbx, %rax
	addq	$16, %rsp
	popq	%rbx
	popq	%r14
	popq	%rbp
	retq
Ltmp1825:
LBB51_2:
	.loc	30 274 13
	callq	__ZN3std9panicking11panic_count17is_zero_slow_path17ha588394117c50e3dE
	xorb	$1, %al
Ltmp1826:
	.loc	59 0 0 is_stmt 0
	leaq	32(%rbx), %rcx
Ltmp1827:
	.loc	29 2356 24 is_stmt 1
	movb	40(%rbx), %dl
Ltmp1828:
	.loc	29 410 18
	testb	%dl, %dl
Ltmp1829:
	.loc	22 1004 13
	je	LBB51_6
Ltmp1830:
LBB51_4:
	.loc	22 1005 17
	movq	%rcx, -32(%rbp)
	movb	%al, -24(%rbp)
Ltmp1798:
Ltmp1831:
	.loc	22 1005 23 is_stmt 0
	leaq	l___unnamed_21(%rip), %rdi
	leaq	l___unnamed_5(%rip), %rcx
Ltmp1832:
	leaq	l___unnamed_54(%rip), %r8
	leaq	-32(%rbp), %rdx
	movl	$43, %esi
	callq	__ZN4core6result13unwrap_failed17hc193898ef513e81fE
Ltmp1833:
Ltmp1799:
	.loc	22 0 23
	jmp	LBB51_5
Ltmp1834:
LBB51_10:
	.loc	30 274 13 is_stmt 1
	callq	__ZN3std9panicking11panic_count17is_zero_slow_path17ha588394117c50e3dE
Ltmp1835:
	.loc	35 34 12
	testb	%al, %al
	jne	LBB51_12
Ltmp1836:
	.loc	29 2342 24
	movb	$1, 40(%rbx)
Ltmp1837:
	.loc	29 0 24 is_stmt 0
	jmp	LBB51_12
Ltmp1838:
LBB51_14:
Ltmp1801:
	.loc	59 124 9 is_stmt 1
	leaq	_str.2(%rip), %rdi
	leaq	l___unnamed_55(%rip), %rdx
	movl	$28, %esi
	callq	__ZN4core9panicking5panic17h383a6b80ea7021aaE
Ltmp1802:
Ltmp1839:
LBB51_5:
	.loc	59 0 9 is_stmt 0
	ud2
LBB51_13:
Ltmp1803:
	movq	%rax, %rbx
	leaq	-32(%rbp), %rdi
	.loc	59 129 5 is_stmt 1
	callq	__ZN4core3ptr13drop_in_place17h29db1abd71aafba2E
	jmp	LBB51_16
LBB51_15:
Ltmp1800:
	.loc	59 0 5 is_stmt 0
	movq	%rax, %rbx
	leaq	-32(%rbp), %rdi
Ltmp1840:
	.loc	22 1005 86 is_stmt 1
	callq	__ZN4core3ptr13drop_in_place17h13ded0c92087dc3fE
Ltmp1841:
LBB51_16:
	.loc	22 0 86 is_stmt 0
	movq	%rbx, %rdi
	callq	__Unwind_Resume
	ud2
Lfunc_end51:
	.cfi_endproc
	.section	__TEXT,__gcc_except_tab
	.p2align	2
GCC_except_table51:
Lexception14:
	.byte	255
	.byte	255
	.byte	1
	.uleb128 Lcst_end14-Lcst_begin14
Lcst_begin14:
	.uleb128 Lfunc_begin51-Lfunc_begin51
	.uleb128 Ltmp1798-Lfunc_begin51
	.byte	0
	.byte	0
	.uleb128 Ltmp1798-Lfunc_begin51
	.uleb128 Ltmp1799-Ltmp1798
	.uleb128 Ltmp1800-Lfunc_begin51
	.byte	0
	.uleb128 Ltmp1799-Lfunc_begin51
	.uleb128 Ltmp1801-Ltmp1799
	.byte	0
	.byte	0
	.uleb128 Ltmp1801-Lfunc_begin51
	.uleb128 Ltmp1802-Ltmp1801
	.uleb128 Ltmp1803-Lfunc_begin51
	.byte	0
	.uleb128 Ltmp1802-Lfunc_begin51
	.uleb128 Lfunc_end51-Ltmp1802
	.byte	0
	.byte	0
Lcst_end14:
	.p2align	2

	.section	__TEXT,__text,regular,pure_instructions
	.globl	__ZN81_$LT$crossbeam_utils..sync..wait_group..WaitGroup$u20$as$u20$core..fmt..Debug$GT$3fmt17hf698fd269f7af74dE
	.p2align	4, 0x90
__ZN81_$LT$crossbeam_utils..sync..wait_group..WaitGroup$u20$as$u20$core..fmt..Debug$GT$3fmt17hf698fd269f7af74dE:
Lfunc_begin52:
	.loc	59 133 0 is_stmt 1
	.cfi_startproc
	.cfi_personality 155, _rust_eh_personality
	.cfi_lsda 16, Lexception15
	pushq	%rbp
	.cfi_def_cfa_offset 16
	.cfi_offset %rbp, -16
	movq	%rsp, %rbp
	.cfi_def_cfa_register %rbp
	pushq	%r15
	pushq	%r14
	pushq	%r13
	pushq	%r12
	pushq	%rbx
	subq	$40, %rsp
	.cfi_offset %rbx, -56
	.cfi_offset %r12, -48
	.cfi_offset %r13, -40
	.cfi_offset %r14, -32
	.cfi_offset %r15, -24
	movq	%rsi, %r14
Ltmp1852:
	.loc	59 134 31 prologue_end
	movq	(%rdi), %rbx
Ltmp1853:
	.loc	16 273 13
	movq	32(%rbx), %rdi
Ltmp1854:
	.loc	17 63 17
	callq	_pthread_mutex_lock
Ltmp1855:
	.loc	29 2356 24
	movq	__ZN3std9panicking11panic_count18GLOBAL_PANIC_COUNT17h5754c1d48a496461E@GOTPCREL(%rip), %r12
Ltmp1856:
	movq	(%r12), %rax
Ltmp1857:
	.loc	30 262 12
	testq	%rax, %rax
	.loc	30 262 9 is_stmt 0
	jne	LBB52_2
Ltmp1858:
	.loc	30 0 9
	xorl	%r15d, %r15d
	leaq	32(%rbx), %r13
Ltmp1859:
	.loc	29 2356 24 is_stmt 1
	movb	40(%rbx), %al
Ltmp1860:
	.loc	29 410 18
	testb	%al, %al
Ltmp1861:
	.loc	22 1004 13
	jne	LBB52_4
Ltmp1862:
LBB52_7:
	.loc	59 134 31
	movq	%r13, -72(%rbp)
	movb	%r15b, -64(%rbp)
Ltmp1863:
Ltmp1845:
	.loc	59 135 9
	leaq	l___unnamed_56(%rip), %rdx
	leaq	-56(%rbp), %rdi
	movl	$9, %ecx
	movq	%r14, %rsi
	callq	__ZN4core3fmt9Formatter12debug_struct17ha1a64e91d2a98458E
Ltmp1846:
Ltmp1864:
	.loc	16 483 20
	leaq	48(%rbx), %rcx
Ltmp1865:
Ltmp1847:
	.loc	59 135 9
	leaq	l___unnamed_57(%rip), %rsi
	leaq	l___unnamed_12(%rip), %r8
	leaq	-56(%rbp), %rdi
	movl	$5, %edx
	callq	__ZN4core3fmt8builders11DebugStruct5field17h6c54d35ac41bb1e6E
Ltmp1866:
Ltmp1848:
Ltmp1849:
	movq	%rax, %rdi
	callq	__ZN4core3fmt8builders11DebugStruct6finish17h67ed49fd5e81bb24E
Ltmp1850:
Ltmp1867:
	.loc	59 0 0 is_stmt 0
	movl	%eax, %r14d
Ltmp1868:
	.loc	35 34 13 is_stmt 1
	testb	%r15b, %r15b
	.loc	35 34 12 is_stmt 0
	jne	LBB52_14
Ltmp1869:
	.loc	29 2356 24 is_stmt 1
	movq	(%r12), %rax
Ltmp1870:
	.loc	30 262 12
	testq	%rax, %rax
	.loc	30 262 9 is_stmt 0
	jne	LBB52_12
Ltmp1871:
LBB52_14:
	.loc	16 500 13 is_stmt 1
	movq	(%r13), %rdi
Ltmp1872:
	.loc	17 68 17
	callq	_pthread_mutex_unlock
Ltmp1873:
	.loc	59 136 6
	movl	%r14d, %eax
	addq	$40, %rsp
	popq	%rbx
	popq	%r12
	popq	%r13
	popq	%r14
	popq	%r15
	popq	%rbp
	retq
Ltmp1874:
LBB52_2:
	.loc	30 274 13
	callq	__ZN3std9panicking11panic_count17is_zero_slow_path17ha588394117c50e3dE
	movl	%eax, %r15d
	xorb	$1, %r15b
Ltmp1875:
	.loc	59 0 0 is_stmt 0
	leaq	32(%rbx), %r13
Ltmp1876:
	.loc	29 2356 24 is_stmt 1
	movb	40(%rbx), %al
Ltmp1877:
	.loc	29 410 18
	testb	%al, %al
Ltmp1878:
	.loc	22 1004 13
	je	LBB52_7
Ltmp1879:
LBB52_4:
	.loc	22 1005 17
	movq	%r13, -56(%rbp)
	movb	%r15b, -48(%rbp)
Ltmp1842:
Ltmp1880:
	.loc	22 1005 23 is_stmt 0
	leaq	l___unnamed_21(%rip), %rdi
	leaq	l___unnamed_5(%rip), %rcx
	leaq	l___unnamed_58(%rip), %r8
	leaq	-56(%rbp), %rdx
	movl	$43, %esi
	callq	__ZN4core6result13unwrap_failed17hc193898ef513e81fE
Ltmp1843:
Ltmp1881:
	.loc	22 0 23
	ud2
Ltmp1882:
LBB52_12:
	.loc	30 274 13 is_stmt 1
	callq	__ZN3std9panicking11panic_count17is_zero_slow_path17ha588394117c50e3dE
Ltmp1883:
	.loc	35 34 12
	testb	%al, %al
	jne	LBB52_14
Ltmp1884:
	.loc	29 2342 24
	movb	$1, 40(%rbx)
Ltmp1885:
	.loc	29 0 24 is_stmt 0
	jmp	LBB52_14
Ltmp1886:
LBB52_6:
Ltmp1844:
	movq	%rax, %rbx
	leaq	-56(%rbp), %rdi
Ltmp1887:
	.loc	22 1005 86 is_stmt 1
	callq	__ZN4core3ptr13drop_in_place17h13ded0c92087dc3fE
	jmp	LBB52_16
Ltmp1888:
LBB52_15:
Ltmp1851:
	.loc	22 0 86 is_stmt 0
	movq	%rax, %rbx
	leaq	-72(%rbp), %rdi
	.loc	59 136 5 is_stmt 1
	callq	__ZN4core3ptr13drop_in_place17h29db1abd71aafba2E
Ltmp1889:
LBB52_16:
	.loc	59 0 5 is_stmt 0
	movq	%rbx, %rdi
	callq	__Unwind_Resume
	ud2
Lfunc_end52:
	.cfi_endproc
	.section	__TEXT,__gcc_except_tab
	.p2align	2
GCC_except_table52:
Lexception15:
	.byte	255
	.byte	255
	.byte	1
	.uleb128 Lcst_end15-Lcst_begin15
Lcst_begin15:
	.uleb128 Ltmp1845-Lfunc_begin52
	.uleb128 Ltmp1850-Ltmp1845
	.uleb128 Ltmp1851-Lfunc_begin52
	.byte	0
	.uleb128 Ltmp1850-Lfunc_begin52
	.uleb128 Ltmp1842-Ltmp1850
	.byte	0
	.byte	0
	.uleb128 Ltmp1842-Lfunc_begin52
	.uleb128 Ltmp1843-Ltmp1842
	.uleb128 Ltmp1844-Lfunc_begin52
	.byte	0
	.uleb128 Ltmp1843-Lfunc_begin52
	.uleb128 Lfunc_end52-Ltmp1843
	.byte	0
	.byte	0
Lcst_end15:
	.p2align	2

	.section	__TEXT,__text,regular,pure_instructions
	.globl	__ZN15crossbeam_utils6thread5Scope7builder17h0475ee7f95af197fE
	.p2align	4, 0x90
__ZN15crossbeam_utils6thread5Scope7builder17h0475ee7f95af197fE:
Lfunc_begin53:
	.loc	41 263 0 is_stmt 1
	.cfi_startproc
	pushq	%rbp
	.cfi_def_cfa_offset 16
	.cfi_offset %rbp, -16
	movq	%rsp, %rbp
	.cfi_def_cfa_register %rbp
	pushq	%r14
	pushq	%rbx
	subq	$48, %rsp
	.cfi_offset %rbx, -32
	.cfi_offset %r14, -24
	movq	%rsi, %r14
	movq	%rdi, %rbx
Ltmp1890:
	leaq	-56(%rbp), %rdi
Ltmp1891:
	.loc	41 266 22 prologue_end
	callq	__ZN3std6thread7Builder3new17hdf465f36ecb1e0a5E
	.loc	41 264 9
	movq	%r14, (%rbx)
	movq	-56(%rbp), %rax
	movq	-48(%rbp), %rcx
	movq	%rax, 8(%rbx)
	movq	%rcx, 16(%rbx)
	movq	-40(%rbp), %rax
	movq	%rax, 24(%rbx)
	movq	-32(%rbp), %rax
	movq	%rax, 32(%rbx)
	movq	-24(%rbp), %rax
	movq	%rax, 40(%rbx)
	.loc	41 268 6
	movq	%rbx, %rax
	addq	$48, %rsp
	popq	%rbx
	popq	%r14
Ltmp1892:
	popq	%rbp
	retq
Ltmp1893:
Lfunc_end53:
	.cfi_endproc

	.globl	__ZN67_$LT$crossbeam_utils..thread..Scope$u20$as$u20$core..fmt..Debug$GT$3fmt17hf8ed217e3f57e132E
	.p2align	4, 0x90
__ZN67_$LT$crossbeam_utils..thread..Scope$u20$as$u20$core..fmt..Debug$GT$3fmt17hf8ed217e3f57e132E:
Lfunc_begin54:
	.loc	41 272 0
	.cfi_startproc
	pushq	%rbp
	.cfi_def_cfa_offset 16
	.cfi_offset %rbp, -16
	movq	%rsp, %rbp
	.cfi_def_cfa_register %rbp
	movq	%rsi, %rdi
Ltmp1894:
	.loc	41 273 9 prologue_end
	leaq	l___unnamed_26(%rip), %rsi
	movl	$12, %edx
	popq	%rbp
	jmp	__ZN4core3fmt9Formatter3pad17h426409b23b74b394E
Ltmp1895:
Lfunc_end54:
	.cfi_endproc

	.globl	__ZN15crossbeam_utils6thread19ScopedThreadBuilder4name17h60894ce992103655E
	.p2align	4, 0x90
__ZN15crossbeam_utils6thread19ScopedThreadBuilder4name17h60894ce992103655E:
Lfunc_begin55:
	.loc	41 337 0
	.cfi_startproc
	pushq	%rbp
	.cfi_def_cfa_offset 16
	.cfi_offset %rbp, -16
	movq	%rsp, %rbp
	.cfi_def_cfa_register %rbp
	pushq	%r14
	pushq	%rbx
	subq	$112, %rsp
	.cfi_offset %rbx, -32
	.cfi_offset %r14, -24
	movq	%rsi, %rbx
	movq	%rdi, %r14
Ltmp1896:
	.loc	41 338 24 prologue_end
	movq	40(%rsi), %rax
	movq	%rax, -88(%rbp)
	movq	32(%rsi), %rax
	movq	%rax, -96(%rbp)
	movq	24(%rsi), %rax
	movq	%rax, -104(%rbp)
	movq	8(%rsi), %rax
	movq	16(%rsi), %rcx
	movq	%rcx, -112(%rbp)
	movq	%rax, -120(%rbp)
	.loc	41 338 42 is_stmt 0
	movq	16(%rdx), %rax
	movq	%rax, -24(%rbp)
	movq	(%rdx), %rax
	movq	8(%rdx), %rcx
	movq	%rcx, -32(%rbp)
	movq	%rax, -40(%rbp)
	leaq	-80(%rbp), %rdi
	leaq	-120(%rbp), %rsi
	leaq	-40(%rbp), %rdx
Ltmp1897:
	.loc	41 338 24
	callq	__ZN3std6thread7Builder4name17h683df385e8340477E
	.loc	41 338 9
	movq	-48(%rbp), %rax
	movq	%rax, 40(%rbx)
	movq	-56(%rbp), %rax
	movq	%rax, 32(%rbx)
	movq	-64(%rbp), %rax
	movq	%rax, 24(%rbx)
	movq	-80(%rbp), %rax
	movq	-72(%rbp), %rcx
	movq	%rcx, 16(%rbx)
	movq	%rax, 8(%rbx)
	.loc	41 339 9 is_stmt 1
	movq	40(%rbx), %rax
	movq	%rax, 40(%r14)
	movq	32(%rbx), %rax
	movq	%rax, 32(%r14)
	movq	24(%rbx), %rax
	movq	%rax, 24(%r14)
	movq	16(%rbx), %rax
	movq	%rax, 16(%r14)
	movq	(%rbx), %rax
	movq	8(%rbx), %rcx
	movq	%rcx, 8(%r14)
	movq	%rax, (%r14)
	.loc	41 340 6
	movq	%r14, %rax
	addq	$112, %rsp
	popq	%rbx
Ltmp1898:
	popq	%r14
	popq	%rbp
	retq
Ltmp1899:
Lfunc_end55:
	.cfi_endproc

	.globl	__ZN15crossbeam_utils6thread19ScopedThreadBuilder10stack_size17h12a0496380772f74E
	.p2align	4, 0x90
__ZN15crossbeam_utils6thread19ScopedThreadBuilder10stack_size17h12a0496380772f74E:
Lfunc_begin56:
	.loc	41 358 0
	.cfi_startproc
	pushq	%rbp
	.cfi_def_cfa_offset 16
	.cfi_offset %rbp, -16
	movq	%rsp, %rbp
	.cfi_def_cfa_register %rbp
	pushq	%r14
	pushq	%rbx
	subq	$80, %rsp
	.cfi_offset %rbx, -32
	.cfi_offset %r14, -24
	movq	%rsi, %rbx
	movq	%rdi, %r14
Ltmp1900:
	.loc	41 359 24 prologue_end
	movq	40(%rsi), %rax
	movq	%rax, -64(%rbp)
	movq	32(%rsi), %rax
	movq	%rax, -72(%rbp)
	movq	24(%rsi), %rax
	movq	%rax, -80(%rbp)
	movq	8(%rsi), %rax
	movq	16(%rsi), %rcx
	movq	%rcx, -88(%rbp)
	movq	%rax, -96(%rbp)
	leaq	-56(%rbp), %rdi
	leaq	-96(%rbp), %rsi
	callq	__ZN3std6thread7Builder10stack_size17ha7991e8fe8c53c7fE
Ltmp1901:
	.loc	41 359 9 is_stmt 0
	movq	-24(%rbp), %rax
	movq	%rax, 40(%rbx)
	movq	-32(%rbp), %rax
	movq	%rax, 32(%rbx)
	movq	-40(%rbp), %rax
	movq	%rax, 24(%rbx)
	movq	-56(%rbp), %rax
	movq	-48(%rbp), %rcx
	movq	%rcx, 16(%rbx)
	movq	%rax, 8(%rbx)
	.loc	41 360 9 is_stmt 1
	movq	40(%rbx), %rax
	movq	%rax, 40(%r14)
	movq	32(%rbx), %rax
	movq	%rax, 32(%r14)
	movq	24(%rbx), %rax
	movq	%rax, 24(%r14)
	movq	16(%rbx), %rax
	movq	%rax, 16(%r14)
	movq	(%rbx), %rax
	movq	8(%rbx), %rcx
	movq	%rcx, 8(%r14)
	movq	%rax, (%r14)
	.loc	41 361 6
	movq	%r14, %rax
	addq	$80, %rsp
	popq	%rbx
Ltmp1902:
	popq	%r14
	popq	%rbp
	retq
Ltmp1903:
Lfunc_end56:
	.cfi_endproc

	.globl	__ZN95_$LT$crossbeam_utils..sync..sharded_lock..THREAD_INDICES$u20$as$u20$core..ops..deref..Deref$GT$5deref17h8c7dd2bf71b57f38E
	.p2align	4, 0x90
__ZN95_$LT$crossbeam_utils..sync..sharded_lock..THREAD_INDICES$u20$as$u20$core..ops..deref..Deref$GT$5deref17h8c7dd2bf71b57f38E:
Lfunc_begin57:
	.loc	2 135 0
	.cfi_startproc
	pushq	%rbp
	.cfi_def_cfa_offset 16
	.cfi_offset %rbp, -16
	movq	%rsp, %rbp
	.cfi_def_cfa_register %rbp
	subq	$32, %rsp
	leaq	__ZN95_$LT$crossbeam_utils..sync..sharded_lock..THREAD_INDICES$u20$as$u20$core..ops..deref..Deref$GT$5deref11__stability4LAZY17h0876921dd0b7a4f7E(%rip), %rax
Ltmp1904:
	movq	%rax, -8(%rbp)
Ltmp1905:
	.loc	29 2355 24 prologue_end
	movq	__ZN95_$LT$crossbeam_utils..sync..sharded_lock..THREAD_INDICES$u20$as$u20$core..ops..deref..Deref$GT$5deref11__stability4LAZY17h0876921dd0b7a4f7E+104(%rip), %rax
Ltmp1906:
	.loc	6 374 9
	cmpq	$3, %rax
Ltmp1907:
	.loc	6 260 9
	jne	LBB57_1
Ltmp1908:
	.loc	9 37 20
	movq	-8(%rbp), %rax
Ltmp1909:
	.loc	9 38 17
	cmpq	$0, (%rax)
	je	LBB57_4
Ltmp1910:
LBB57_3:
	.loc	2 145 14
	addq	$32, %rsp
	popq	%rbp
	retq
LBB57_1:
Ltmp1911:
	.loc	2 0 14 is_stmt 0
	leaq	-8(%rbp), %rax
Ltmp1912:
	.loc	6 264 21 is_stmt 1
	movq	%rax, -16(%rbp)
	leaq	-16(%rbp), %rax
Ltmp1913:
	.loc	6 265 37
	movq	%rax, -24(%rbp)
	.loc	6 265 9 is_stmt 0
	leaq	__ZN95_$LT$crossbeam_utils..sync..sharded_lock..THREAD_INDICES$u20$as$u20$core..ops..deref..Deref$GT$5deref11__stability4LAZY17h0876921dd0b7a4f7E+104(%rip), %rdi
	leaq	l___unnamed_1(%rip), %rcx
	leaq	-24(%rbp), %rdx
	xorl	%esi, %esi
	callq	__ZN3std4sync4once4Once10call_inner17hfcd38045e50af9d3E
Ltmp1914:
	.loc	9 37 20 is_stmt 1
	movq	-8(%rbp), %rax
Ltmp1915:
	.loc	9 38 17
	cmpq	$0, (%rax)
	jne	LBB57_3
Ltmp1916:
LBB57_4:
	.loc	21 10 9
	leaq	l___unnamed_19(%rip), %rdi
	leaq	l___unnamed_20(%rip), %rdx
	movl	$66, %esi
	callq	__ZN4core9panicking5panic17h383a6b80ea7021aaE
Ltmp1917:
Lfunc_end57:
	.cfi_endproc

	.globl	__ZN95_$LT$crossbeam_utils..sync..sharded_lock..THREAD_INDICES$u20$as$u20$lazy_static..LazyStatic$GT$10initialize17h70ff90b359f61e26E
	.p2align	4, 0x90
__ZN95_$LT$crossbeam_utils..sync..sharded_lock..THREAD_INDICES$u20$as$u20$lazy_static..LazyStatic$GT$10initialize17h70ff90b359f61e26E:
Lfunc_begin58:
	.loc	2 148 0
	.cfi_startproc
	pushq	%rbp
	.cfi_def_cfa_offset 16
	.cfi_offset %rbp, -16
	movq	%rsp, %rbp
	.cfi_def_cfa_register %rbp
	subq	$32, %rsp
	leaq	__ZN95_$LT$crossbeam_utils..sync..sharded_lock..THREAD_INDICES$u20$as$u20$core..ops..deref..Deref$GT$5deref11__stability4LAZY17h0876921dd0b7a4f7E(%rip), %rax
Ltmp1918:
	movq	%rax, -8(%rbp)
Ltmp1919:
	.loc	29 2355 24 prologue_end
	movq	__ZN95_$LT$crossbeam_utils..sync..sharded_lock..THREAD_INDICES$u20$as$u20$core..ops..deref..Deref$GT$5deref11__stability4LAZY17h0876921dd0b7a4f7E+104(%rip), %rax
Ltmp1920:
	.loc	6 374 9
	cmpq	$3, %rax
Ltmp1921:
	.loc	6 260 9
	jne	LBB58_1
Ltmp1922:
	.loc	9 37 20
	movq	-8(%rbp), %rax
Ltmp1923:
	.loc	9 38 17
	cmpq	$0, (%rax)
	je	LBB58_4
Ltmp1924:
LBB58_3:
	.loc	2 150 14
	addq	$32, %rsp
	popq	%rbp
	retq
LBB58_1:
Ltmp1925:
	.loc	2 0 14 is_stmt 0
	leaq	-8(%rbp), %rax
Ltmp1926:
	.loc	6 264 21 is_stmt 1
	movq	%rax, -16(%rbp)
	leaq	-16(%rbp), %rax
Ltmp1927:
	.loc	6 265 37
	movq	%rax, -24(%rbp)
	.loc	6 265 9 is_stmt 0
	leaq	__ZN95_$LT$crossbeam_utils..sync..sharded_lock..THREAD_INDICES$u20$as$u20$core..ops..deref..Deref$GT$5deref11__stability4LAZY17h0876921dd0b7a4f7E+104(%rip), %rdi
Ltmp1928:
	leaq	l___unnamed_1(%rip), %rcx
	leaq	-24(%rbp), %rdx
	xorl	%esi, %esi
	callq	__ZN3std4sync4once4Once10call_inner17hfcd38045e50af9d3E
Ltmp1929:
	.loc	9 37 20 is_stmt 1
	movq	-8(%rbp), %rax
Ltmp1930:
	.loc	9 38 17
	cmpq	$0, (%rax)
	jne	LBB58_3
Ltmp1931:
LBB58_4:
	.loc	21 10 9
	leaq	l___unnamed_19(%rip), %rdi
	leaq	l___unnamed_20(%rip), %rdx
	movl	$66, %esi
	callq	__ZN4core9panicking5panic17h383a6b80ea7021aaE
Ltmp1932:
Lfunc_end58:
	.cfi_endproc

	.globl	__ZN15crossbeam_utils4sync12sharded_lock12REGISTRATION7__getit17h747580ad0577a8c2E
	.p2align	4, 0x90
__ZN15crossbeam_utils4sync12sharded_lock12REGISTRATION7__getit17h747580ad0577a8c2E:
Lfunc_begin59:
	.loc	4 155 0
	.cfi_startproc
	pushq	%rbp
	.cfi_def_cfa_offset 16
	.cfi_offset %rbp, -16
	movq	%rsp, %rbp
	.cfi_def_cfa_register %rbp
Ltmp1933:
	.loc	8 268 13 prologue_end
	movq	__ZN15crossbeam_utils4sync12sharded_lock12REGISTRATION7__getit5__KEY17hd8f193a2e58e445bE@TLVP(%rip), %rdi
	callq	*(%rdi)
	cmpq	$0, 8(%rax)
Ltmp1934:
	.loc	10 409 17
	je	LBB59_2
Ltmp1935:
	.loc	4 176 14
	movq	__ZN15crossbeam_utils4sync12sharded_lock12REGISTRATION7__getit5__KEY17hd8f193a2e58e445bE@TLVP(%rip), %rdi
	callq	*(%rdi)
	popq	%rbp
	retq
LBB59_2:
Ltmp1936:
	.loc	10 410 25
	popq	%rbp
	jmp	__ZN3std6thread5local4fast12Key$LT$T$GT$14try_initialize17h36827d4dcad0b054E
Ltmp1937:
Lfunc_end59:
	.cfi_endproc

	.globl	__ZN81_$LT$crossbeam_utils..thread..ScopedThreadBuilder$u20$as$u20$core..fmt..Debug$GT$3fmt17h0398b65e38d5dbc4E
	.p2align	4, 0x90
__ZN81_$LT$crossbeam_utils..thread..ScopedThreadBuilder$u20$as$u20$core..fmt..Debug$GT$3fmt17h0398b65e38d5dbc4E:
Lfunc_begin60:
	.loc	41 310 0
	.cfi_startproc
	pushq	%rbp
	.cfi_def_cfa_offset 16
	.cfi_offset %rbp, -16
	movq	%rsp, %rbp
	.cfi_def_cfa_register %rbp
	pushq	%r14
	pushq	%rbx
	subq	$32, %rsp
	.cfi_offset %rbx, -32
	.cfi_offset %r14, -24
	movq	%rdi, %rbx
Ltmp1938:
	.loc	41 310 10 prologue_end
	leaq	l___unnamed_59(%rip), %rdx
	leaq	-40(%rbp), %r14
	movl	$19, %ecx
	movq	%r14, %rdi
	callq	__ZN4core3fmt9Formatter12debug_struct17ha1a64e91d2a98458E
Ltmp1939:
	.loc	41 312 5
	movq	%rbx, -24(%rbp)
Ltmp1940:
	.loc	41 313 5
	addq	$8, %rbx
Ltmp1941:
	.loc	41 310 10
	leaq	l___unnamed_60(%rip), %rsi
	leaq	l___unnamed_13(%rip), %r8
	leaq	-24(%rbp), %rcx
	movl	$5, %edx
	movq	%r14, %rdi
	callq	__ZN4core3fmt8builders11DebugStruct5field17h6c54d35ac41bb1e6E
	.loc	41 313 5
	movq	%rbx, -24(%rbp)
	.loc	41 310 10
	leaq	l___unnamed_61(%rip), %rsi
	leaq	l___unnamed_14(%rip), %r8
	leaq	-24(%rbp), %rcx
	movl	$7, %edx
	movq	%r14, %rdi
	callq	__ZN4core3fmt8builders11DebugStruct5field17h6c54d35ac41bb1e6E
	movq	%r14, %rdi
	callq	__ZN4core3fmt8builders11DebugStruct6finish17h67ed49fd5e81bb24E
Ltmp1942:
	.loc	41 310 15 is_stmt 0
	addq	$32, %rsp
	popq	%rbx
	popq	%r14
	popq	%rbp
	retq
Ltmp1943:
Lfunc_end60:
	.cfi_endproc

	.section	__TEXT,__const
l___unnamed_19:
	.ascii	"attempted to derefence an uninitialized lazy static. This is a bug"

l___unnamed_62:
	.ascii	"/rustc/6c8927b0cf80ceee19386026cf9d7fd4fd9d486f/src/libcore/macros/mod.rs"

	.section	__DATA,__const
	.p2align	3
l___unnamed_20:
	.quad	l___unnamed_62
	.asciz	"I\000\000\000\000\000\000\000\n\000\000\000\t\000\000"

	.p2align	3
l___unnamed_1:
	.quad	__ZN4core3ptr13drop_in_place17h0be3a3c15b4bc481E
	.quad	8
	.quad	8
	.quad	__ZN3std4sync4once4Once9call_once28_$u7b$$u7b$closure$u7d$$u7d$17h186b1a697d76feb3E
	.quad	__ZN4core3ops8function6FnOnce40call_once$u7b$$u7b$vtable.shim$u7d$$u7d$17h16a331edccfec74aE

	.section	__TEXT,__const
l___unnamed_63:
	.ascii	"/rustc/6c8927b0cf80ceee19386026cf9d7fd4fd9d486f/src/libstd/sync/once.rs"

	.section	__DATA,__const
	.p2align	3
l___unnamed_16:
	.quad	l___unnamed_63
	.asciz	"G\000\000\000\000\000\000\000\t\001\000\0002\000\000"

	.section	__TEXT,__const
l___unnamed_17:
	.ascii	"cannot access a Thread Local Storage value during or after destruction"

l___unnamed_64:
	.ascii	"/rustc/6c8927b0cf80ceee19386026cf9d7fd4fd9d486f/src/libstd/thread/local.rs"

	.section	__DATA,__const
	.p2align	3
l___unnamed_18:
	.quad	l___unnamed_64
	.asciz	"J\000\000\000\000\000\000\000\357\000\000\000\032\000\000"

	.p2align	3
l___unnamed_2:
	.quad	__ZN4core3ptr13drop_in_place17h0be3a3c15b4bc481E
	.quad	16
	.quad	8
	.quad	__ZN91_$LT$std..panicking..begin_panic..PanicPayload$LT$A$GT$$u20$as$u20$core..panic..BoxMeUp$GT$8take_box17h1fadf33d38e03faeE
	.quad	__ZN91_$LT$std..panicking..begin_panic..PanicPayload$LT$A$GT$$u20$as$u20$core..panic..BoxMeUp$GT$3get17h265ebe83508cd928E

	.section	__TEXT,__const
l___unnamed_15:
	.ascii	"called `Option::unwrap()` on a `None` value"

	.section	__DATA,__const
	.p2align	3
l___unnamed_3:
	.quad	__ZN4core3ptr13drop_in_place17h0be3a3c15b4bc481E
	.quad	0
	.quad	1
	.quad	__ZN68_$LT$std..thread..local..AccessError$u20$as$u20$core..fmt..Debug$GT$3fmt17h8c4e39f2d8a29d30E

	.section	__TEXT,__const
l___unnamed_21:
	.ascii	"called `Result::unwrap()` on an `Err` value"

	.section	__DATA,__const
	.p2align	3
l___unnamed_4:
	.quad	__ZN4core3ptr13drop_in_place17hcafbc2fafb2ca407E
	.quad	24
	.quad	8
	.quad	__ZN82_$LT$std..sys_common..poison..PoisonError$LT$T$GT$$u20$as$u20$core..fmt..Debug$GT$3fmt17h0d267c425f75f7f3E

	.p2align	3
l___unnamed_5:
	.quad	__ZN4core3ptr13drop_in_place17h13ded0c92087dc3fE
	.quad	16
	.quad	8
	.quad	__ZN82_$LT$std..sys_common..poison..PoisonError$LT$T$GT$$u20$as$u20$core..fmt..Debug$GT$3fmt17h0091149322fff76fE

	.p2align	3
l___unnamed_6:
	.quad	__ZN4core3ptr13drop_in_place17h13ded0c92087dc3fE
	.quad	16
	.quad	8
	.quad	__ZN82_$LT$std..sys_common..poison..PoisonError$LT$T$GT$$u20$as$u20$core..fmt..Debug$GT$3fmt17h0091149322fff76fE

	.p2align	3
l___unnamed_7:
	.quad	__ZN4core3ptr13drop_in_place17h13ded0c92087dc3fE
	.quad	16
	.quad	8
	.quad	__ZN82_$LT$std..sys_common..poison..PoisonError$LT$T$GT$$u20$as$u20$core..fmt..Debug$GT$3fmt17h0091149322fff76fE

	.section	__TEXT,__literal4,4byte_literals
L___unnamed_27:
	.ascii	"Cell"

	.section	__TEXT,__const
l___unnamed_28:
	.ascii	"value"

	.section	__DATA,__const
	.p2align	3
l___unnamed_8:
	.quad	__ZN4core3ptr13drop_in_place17h0be3a3c15b4bc481E
	.quad	4
	.quad	4
	.quad	__ZN4core3fmt3num50_$LT$impl$u20$core..fmt..Debug$u20$for$u20$u32$GT$3fmt17h1ea6d626882ea7ffE

	.section	__TEXT,__const
l___unnamed_29:
	.ascii	"PoisonError { inner: .. }"

	.section	__DATA,__const
	.p2align	3
l___unnamed_9:
	.quad	__ZN4core3ptr13drop_in_place17h0be3a3c15b4bc481E
	.quad	16
	.quad	8
	.quad	__ZN36_$LT$T$u20$as$u20$core..any..Any$GT$7type_id17h94d8176cf5647888E

	.globl	__ZN15crossbeam_utils6atomic11atomic_cell4lock5LOCKS17h097310e193f1e806E
.zerofill __DATA,__common,__ZN15crossbeam_utils6atomic11atomic_cell4lock5LOCKS17h097310e193f1e806E,776,3
	.section	__TEXT,__const
l___unnamed_30:
	.ascii	"Backoff"

	.section	__TEXT,__literal4,4byte_literals
L___unnamed_31:
	.ascii	"step"

	.section	__DATA,__const
	.p2align	3
l___unnamed_10:
	.quad	__ZN4core3ptr13drop_in_place17h0be3a3c15b4bc481E
	.quad	4
	.quad	4
	.quad	__ZN62_$LT$core..cell..Cell$LT$T$GT$$u20$as$u20$core..fmt..Debug$GT$3fmt17hf0bf754e9850fcd6E

	.section	__TEXT,__const
l___unnamed_32:
	.ascii	"is_completed"

	.section	__DATA,__const
	.p2align	3
l___unnamed_11:
	.quad	__ZN4core3ptr13drop_in_place17h0be3a3c15b4bc481E
	.quad	1
	.quad	1
	.quad	__ZN41_$LT$bool$u20$as$u20$core..fmt..Debug$GT$3fmt17hdefd5ae208442b96E

	.section	__TEXT,__const
l___unnamed_33:
	.ascii	"Parker { .. }"

l___unnamed_35:
	.ascii	"Unparker { .. }"

l___unnamed_65:
	.ascii	"/Users/yingyuhang/.cargo/registry/src/github.com-1ecc6299db9ec823/crossbeam-utils-0.7.2/src/sync/parker.rs"

	.section	__DATA,__const
	.p2align	3
l___unnamed_41:
	.quad	l___unnamed_65
	.asciz	"j\000\000\000\000\000\000\000\367\000\000\000&\000\000"

	.section	__TEXT,__const
l___unnamed_66:
	.ascii	"inconsistent park_timeout state: "

	.section	__DATA,__const
	.p2align	3
l___unnamed_43:
	.quad	l___unnamed_66
	.asciz	"!\000\000\000\000\000\000"

	.p2align	3
l___unnamed_44:
	.quad	l___unnamed_65
	.asciz	"j\000\000\000\000\000\000\000\006\001\000\000\027\000\000"

	.section	__TEXT,__literal8,8byte_literals
	.p2align	3
L___unnamed_36:
	.asciz	"\002\000\000\000\000\000\000"

	.section	__TEXT,__const
l___unnamed_67:
	.ascii	"assertion failed: `(left == right)`\n  left: `"

l___unnamed_68:
	.ascii	"`,\n right: `"

l___unnamed_69:
	.ascii	"`: "

	.section	__DATA,__const
	.p2align	3
l___unnamed_39:
	.quad	l___unnamed_67
	.asciz	"-\000\000\000\000\000\000"
	.quad	l___unnamed_68
	.asciz	"\f\000\000\000\000\000\000"
	.quad	l___unnamed_69
	.asciz	"\003\000\000\000\000\000\000"

	.section	__TEXT,__const
l___unnamed_70:
	.ascii	"park state changed unexpectedly"

	.section	__DATA,__const
	.p2align	3
l___unnamed_37:
	.quad	l___unnamed_70
	.asciz	"\037\000\000\000\000\000\000"

	.section	__TEXT,__const
	.p2align	3
l___unnamed_38:
	.byte	0

	.section	__DATA,__const
	.p2align	3
l___unnamed_40:
	.quad	l___unnamed_65
	.asciz	"j\000\000\000\000\000\000\000\003\001\000\000\021\000\000"

	.p2align	3
l___unnamed_45:
	.quad	l___unnamed_65
	.asciz	"j\000\000\000\000\000\000\000\031\001\000\000H\000\000"

	.p2align	3
l___unnamed_46:
	.quad	l___unnamed_65
	.asciz	"j\000\000\000\000\000\000\000\036\001\000\000\032\000\000"

	.p2align	3
l___unnamed_42:
	.quad	l___unnamed_65
	.asciz	"j\000\000\000\000\000\000\000\r\001\000\000+\000\000"

	.section	__TEXT,__const
l___unnamed_24:
	.ascii	"inconsistent state in unpark"

	.section	__DATA,__const
	.p2align	3
l___unnamed_25:
	.quad	l___unnamed_65
	.asciz	"j\000\000\000\000\000\000\000-\001\000\000\022\000\000"

	.p2align	3
l___unnamed_34:
	.quad	l___unnamed_65
	.asciz	"j\000\000\000\000\000\000\0008\001\000\000\037\000\000"

	.section	__TEXT,__literal8,8byte_literals
L___unnamed_47:
	.ascii	"<locked>"

	.section	__TEXT,__const
l___unnamed_71:
	.ascii	"/Users/yingyuhang/.cargo/registry/src/github.com-1ecc6299db9ec823/crossbeam-utils-0.7.2/src/sync/sharded_lock.rs"

	.section	__DATA,__const
	.p2align	3
l___unnamed_48:
	.quad	l___unnamed_71
	.asciz	"p\000\000\000\000\000\000\000F\002\000\0001\000\000"

	.section	__TEXT,__const
l___unnamed_72:
	.ascii	"/Users/yingyuhang/.cargo/registry/src/github.com-1ecc6299db9ec823/crossbeam-utils-0.7.2/src/sync/wait_group.rs"

	.section	__DATA,__const
	.p2align	3
l___unnamed_49:
	.quad	l___unnamed_72
	.asciz	"n\000\000\000\000\000\000\000`\000\000\000%\000\000"

	.p2align	3
l___unnamed_51:
	.quad	l___unnamed_72
	.asciz	"n\000\000\000\000\000\000\000g\000\000\000,\000\000"

	.p2align	3
l___unnamed_50:
	.quad	l___unnamed_72
	.asciz	"n\000\000\000\000\000\000\000i\000\000\000,\000\000"

	.p2align	3
l___unnamed_52:
	.quad	l___unnamed_72
	.asciz	"n\000\000\000\000\000\000\000p\000\000\0001\000\000"

	.p2align	3
l___unnamed_53:
	.quad	l___unnamed_72
	.asciz	"n\000\000\000\000\000\000\000q\000\000\000\t\000\000"

	.section	__TEXT,__const
	.p2align	4
_str.1:
	.ascii	"attempt to subtract with overflow"

	.section	__DATA,__const
	.p2align	3
l___unnamed_54:
	.quad	l___unnamed_72
	.asciz	"n\000\000\000\000\000\000\000{\000\000\0001\000\000"

	.p2align	3
l___unnamed_55:
	.quad	l___unnamed_72
	.asciz	"n\000\000\000\000\000\000\000|\000\000\000\t\000\000"

	.section	__TEXT,__const
	.p2align	4
_str.2:
	.ascii	"attempt to add with overflow"

	.section	__DATA,__const
	.p2align	3
l___unnamed_58:
	.quad	l___unnamed_72
	.asciz	"n\000\000\000\000\000\000\000\206\000\000\0007\000\000"

	.section	__TEXT,__const
l___unnamed_56:
	.ascii	"WaitGroup"

l___unnamed_57:
	.ascii	"count"

	.section	__DATA,__const
	.p2align	3
l___unnamed_12:
	.quad	__ZN4core3ptr13drop_in_place17h0be3a3c15b4bc481E
	.quad	8
	.quad	8
	.quad	__ZN4core3fmt3num52_$LT$impl$u20$core..fmt..Debug$u20$for$u20$usize$GT$3fmt17h3ce1e8eb3a3c5c0bE

	.section	__TEXT,__const
l___unnamed_26:
	.ascii	"Scope { .. }"

.zerofill __DATA,__bss,__ZN95_$LT$crossbeam_utils..sync..sharded_lock..THREAD_INDICES$u20$as$u20$core..ops..deref..Deref$GT$5deref11__stability4LAZY17h0876921dd0b7a4f7E,112,3
	.section	__DATA,__const
	.p2align	3
l___unnamed_22:
	.quad	l___unnamed_71
	.asciz	"p\000\000\000\000\000\000\000O\002\000\0001\000\000"

	.p2align	3
l___unnamed_23:
	.quad	l___unnamed_71
	.asciz	"p\000\000\000\000\000\000\000U\002\000\000\021\000\000"

	.section	__DATA,__thread_bss,thread_local_zerofill
	.p2align	3
__ZN15crossbeam_utils4sync12sharded_lock12REGISTRATION7__getit5__KEY17hd8f193a2e58e445bE$tlv$init:
	.space	24

	.section	__DATA,__thread_vars,thread_local_variables
__ZN15crossbeam_utils4sync12sharded_lock12REGISTRATION7__getit5__KEY17hd8f193a2e58e445bE:
	.quad	__tlv_bootstrap
	.quad	0
	.quad	__ZN15crossbeam_utils4sync12sharded_lock12REGISTRATION7__getit5__KEY17hd8f193a2e58e445bE$tlv$init

	.section	__TEXT,__const
l___unnamed_59:
	.ascii	"ScopedThreadBuilder"

l___unnamed_60:
	.ascii	"scope"

	.section	__DATA,__const
	.p2align	3
l___unnamed_13:
	.quad	__ZN4core3ptr13drop_in_place17h0be3a3c15b4bc481E
	.quad	8
	.quad	8
	.quad	__ZN42_$LT$$RF$T$u20$as$u20$core..fmt..Debug$GT$3fmt17hdf75014c2a5442c9E

	.section	__TEXT,__const
l___unnamed_61:
	.ascii	"builder"

	.section	__DATA,__const
	.p2align	3
l___unnamed_14:
	.quad	__ZN4core3ptr13drop_in_place17h0be3a3c15b4bc481E
	.quad	8
	.quad	8
	.quad	__ZN42_$LT$$RF$T$u20$as$u20$core..fmt..Debug$GT$3fmt17hc45c2e9b08949244E
