	.section	__TEXT,__text,regular,pure_instructions
	.macosx_version_min 10, 7
	.file	1 "/Users/yingyuhang/.cargo/registry/src/github.com-1ecc6299db9ec823/crossbeam-utils-0.7.2/src/atomic/atomic_cell.rs"
	.file	2 "/Users/yingyuhang/.cargo/registry/src/github.com-1ecc6299db9ec823/lazy_static-1.4.0/src/lib.rs"
	.file	3 "/Users/yingyuhang/.cargo/registry/src/github.com-1ecc6299db9ec823/lazy_static-1.4.0/src/inline_lazy.rs"
	.file	4 "/rustc/a74d1862d4d87a56244958416fd05976c58ca1a8/src/libstd/thread/local.rs"
	.p2align	4, 0x90
__ZN36_$LT$T$u20$as$u20$core..any..Any$GT$7type_id17h2298b1f0aaa6b75dE:
Lfunc_begin0:
	.file	5 "/rustc/a74d1862d4d87a56244958416fd05976c58ca1a8/src/libcore/any.rs"
	.loc	5 109 0
	.cfi_startproc
	pushq	%rbp
	.cfi_def_cfa_offset 16
	.cfi_offset %rbp, -16
	movq	%rsp, %rbp
	.cfi_def_cfa_register %rbp
	movabsq	$1229646359891580772, %rax
Ltmp0:
	.loc	5 111 6 prologue_end
	popq	%rbp
	retq
Ltmp1:
Lfunc_end0:
	.cfi_endproc

	.p2align	4, 0x90
__ZN3std4sync4once4Once9call_once28_$u7b$$u7b$closure$u7d$$u7d$17h5b3bcced49ed289fE:
Lfunc_begin1:
	.file	6 "/rustc/a74d1862d4d87a56244958416fd05976c58ca1a8/src/libstd/sync/once.rs"
	.loc	6 264 0
	.cfi_startproc
	.cfi_personality 155, _rust_eh_personality
	.cfi_lsda 16, Lexception0
	pushq	%rbp
	.cfi_def_cfa_offset 16
	.cfi_offset %rbp, -16
	movq	%rsp, %rbp
	.cfi_def_cfa_register %rbp
Ltmp8:
	pushq	%r15
	pushq	%r14
	pushq	%r12
	pushq	%rbx
	andq	$-32, %rsp
	subq	$256, %rsp
	.cfi_offset %rbx, -48
	.cfi_offset %r12, -40
	.cfi_offset %r14, -32
	.cfi_offset %r15, -24
Ltmp9:
	.loc	6 264 41 prologue_end
	movq	(%rdi), %rcx
Ltmp10:
	.file	7 "/rustc/a74d1862d4d87a56244958416fd05976c58ca1a8/src/libcore/intrinsics.rs"
	.loc	7 2058 5
	movq	(%rcx), %rax
Ltmp11:
	.loc	7 2058 5 is_stmt 0
	movq	$0, (%rcx)
Ltmp12:
	.file	8 "/rustc/a74d1862d4d87a56244958416fd05976c58ca1a8/src/libcore/option.rs"
	.loc	8 387 13 is_stmt 1
	testq	%rax, %rax
	je	LBB1_20
Ltmp13:
	.file	9 "/Users/yingyuhang/.cargo/registry/src/github.com-1ecc6299db9ec823/lazy_static-1.4.0/src/inline_lazy.rs"
	.loc	9 31 13
	movq	(%rax), %rbx
Ltmp14:
	.file	10 "/rustc/a74d1862d4d87a56244958416fd05976c58ca1a8/src/libstd/thread/local.rs"
	.loc	10 262 32
	callq	__ZN3std11collections4hash3map11RandomState3new4KEYS7__getit17hf7003a3e24c88b62E
Ltmp15:
	.loc	10 262 82 is_stmt 0
	testq	%rax, %rax
	je	LBB1_21
Ltmp16:
	.file	11 "/rustc/a74d1862d4d87a56244958416fd05976c58ca1a8/src/libstd/collections/hash/map.rs"
	.loc	11 2491 28 is_stmt 1
	movdqu	(%rax), %xmm0
Ltmp17:
	.loc	11 0 28 is_stmt 0
	movdqa	%xmm0, 16(%rsp)
Ltmp18:
	.file	12 "/rustc/a74d1862d4d87a56244958416fd05976c58ca1a8/src/libcore/num/mod.rs"
	.loc	12 3320 17 is_stmt 1
	movq	%xmm0, %rcx
	incq	%rcx
Ltmp19:
	.loc	7 2058 5
	movq	%rcx, (%rax)
Ltmp20:
	.file	13 "/Users/runner/.cargo/registry/src/github.com-1ecc6299db9ec823/hashbrown-0.6.2/src/raw/mod.rs"
	.loc	13 364 51
	callq	__ZN9hashbrown3raw4sse25Group12static_empty17hda1daec376d651fbE
Ltmp21:
	.loc	13 0 51 is_stmt 0
	movaps	16(%rsp), %xmm0
Ltmp22:
	.file	14 "/Users/yingyuhang/.cargo/registry/src/github.com-1ecc6299db9ec823/crossbeam-utils-0.7.2/src/sync/sharded_lock.rs"
	.loc	14 565 66 is_stmt 1
	movaps	%xmm0, 128(%rsp)
	movq	$0, 144(%rsp)
	movq	%rax, 152(%rsp)
	movq	$8, 160(%rsp)
	movq	$0, 168(%rsp)
	movq	$0, 176(%rsp)
	movq	$8, 184(%rsp)
	xorps	%xmm0, %xmm0
	movaps	%xmm0, 192(%rsp)
	movq	$0, 208(%rsp)
Ltmp23:
	.file	15 "/rustc/a74d1862d4d87a56244958416fd05976c58ca1a8/src/liballoc/alloc.rs"
	.loc	15 80 5
	movl	$64, %edi
	movl	$8, %esi
	callq	___rust_alloc
Ltmp24:
	.loc	15 269 9
	testq	%rax, %rax
Ltmp25:
	je	LBB1_22
Ltmp26:
	.file	16 "/rustc/a74d1862d4d87a56244958416fd05976c58ca1a8/src/libstd/sync/mutex.rs"
	.loc	16 0 0 is_stmt 0
	movq	%rax, %r12
Ltmp2:
	.loc	16 169 24 is_stmt 1
	movq	%rax, %rdi
	callq	__ZN3std10sys_common5mutex5Mutex3new17h696650690b01d120E
Ltmp3:
	.loc	16 169 20 is_stmt 0
	movq	%r12, 32(%rsp)
Ltmp5:
	.loc	16 170 21 is_stmt 1
	callq	__ZN3std10sys_common6poison4Flag3new17h17da4b4837aefea3E
Ltmp6:
	.loc	16 0 0 is_stmt 0
	movl	%eax, %r14d
Ltmp27:
	.loc	16 168 21 is_stmt 1
	movq	128(%rsp), %rax
	movq	136(%rsp), %rcx
	movq	%rcx, 120(%rsp)
	movq	%rax, 112(%rsp)
	movaps	160(%rsp), %xmm0
	movaps	%xmm0, 80(%rsp)
	movaps	144(%rsp), %xmm0
Ltmp28:
	.loc	16 0 21 is_stmt 0
	movaps	%xmm0, 224(%rsp)
	.loc	16 168 21
	movaps	192(%rsp), %xmm0
	movaps	%xmm0, 16(%rsp)
	movaps	176(%rsp), %xmm0
Ltmp29:
	.loc	16 0 21
	movaps	%xmm0, 64(%rsp)
	leaq	32(%rsp), %r15
Ltmp30:
	.file	17 "/rustc/a74d1862d4d87a56244958416fd05976c58ca1a8/src/libstd/sys/unix/mutex.rs"
	.loc	17 52 17 is_stmt 1
	movq	%r15, %rdi
	callq	_pthread_mutexattr_init
Ltmp31:
	.loc	17 54 17
	movq	%r15, %rdi
	xorl	%esi, %esi
	callq	_pthread_mutexattr_settype
Ltmp32:
	.loc	17 56 17
	movq	%r12, %rdi
	movq	%r15, %rsi
	callq	_pthread_mutex_init
Ltmp33:
	.loc	17 58 17
	movq	%r15, %rdi
	callq	_pthread_mutexattr_destroy
Ltmp34:
	.loc	16 176 9
	movq	%r12, 32(%rsp)
	movb	%r14b, 40(%rsp)
	movq	120(%rsp), %rax
	movq	%rax, 56(%rsp)
	movq	105(%rsp), %rax
	movq	113(%rsp), %rcx
	movq	%rcx, 49(%rsp)
	movq	%rax, 41(%rsp)
Ltmp35:
	.loc	9 31 24
	movaps	32(%rsp), %xmm0
	movaps	48(%rsp), %xmm1
Ltmp36:
	.loc	7 2058 5
	movups	%xmm1, 16(%rbx)
Ltmp37:
	.file	18 "/rustc/a74d1862d4d87a56244958416fd05976c58ca1a8/src/libcore/ptr/mod.rs"
	.loc	18 178 1
	movq	(%rbx), %r14
Ltmp38:
	.loc	7 2058 5
	movups	%xmm0, (%rbx)
Ltmp39:
	.loc	7 2058 5 is_stmt 0
	movups	32(%rbx), %xmm2
Ltmp40:
	.loc	7 0 5
	movaps	224(%rsp), %xmm0
Ltmp41:
	.loc	7 2058 5
	movups	%xmm0, 32(%rbx)
	movaps	80(%rsp), %xmm0
	movups	%xmm0, 48(%rbx)
Ltmp42:
	.loc	7 2058 5
	movups	80(%rbx), %xmm1
	movdqu	64(%rbx), %xmm0
Ltmp43:
	.loc	7 0 5
	movaps	64(%rsp), %xmm3
Ltmp44:
	.loc	7 2058 5
	movups	%xmm3, 64(%rbx)
	movaps	16(%rsp), %xmm3
	movups	%xmm3, 80(%rbx)
Ltmp45:
	.loc	7 2058 5
	movq	$0, 96(%rbx)
Ltmp46:
	.loc	18 178 1 is_stmt 1
	testq	%r14, %r14
	je	LBB1_19
Ltmp47:
	.loc	18 0 1 is_stmt 0
	movaps	%xmm1, 80(%rsp)
	movdqa	%xmm0, 16(%rsp)
Ltmp48:
	.loc	17 78 17 is_stmt 1
	movq	%r14, %rdi
	movaps	%xmm2, 64(%rsp)
	callq	_pthread_mutex_destroy
Ltmp49:
	.loc	15 102 5
	movl	$64, %esi
	movl	$8, %edx
	movq	%r14, %rdi
	callq	___rust_dealloc
	movdqa	64(%rsp), %xmm0
Ltmp50:
	.loc	13 932 9
	movq	%xmm0, %rcx
	testq	%rcx, %rcx
Ltmp51:
	.loc	13 1037 9
	je	LBB1_15
Ltmp52:
	.loc	13 919 9
	leaq	1(%rcx), %rax
Ltmp53:
	.loc	13 0 9 is_stmt 0
	movl	$16, %edx
Ltmp54:
	.file	19 "/rustc/a74d1862d4d87a56244958416fd05976c58ca1a8/src/libcore/alloc/layout.rs"
	.loc	19 250 85 is_stmt 1
	xorl	%esi, %esi
Ltmp55:
	.loc	12 3688 26
	mulq	%rdx
Ltmp56:
	.loc	19 250 85
	setno	%dl
Ltmp57:
	.loc	13 223 48
	jo	LBB1_8
Ltmp58:
	.loc	13 0 0 is_stmt 0
	movb	%dl, %sil
	shlq	$3, %rsi
Ltmp59:
	.loc	12 3343 17 is_stmt 1
	leaq	16(%rcx,%rsi), %rdx
Ltmp60:
	.loc	13 233 59
	addq	$17, %rcx
Ltmp61:
	.loc	19 212 72
	negq	%rsi
Ltmp62:
	.loc	19 212 30 is_stmt 0
	andq	%rdx, %rsi
Ltmp63:
	.loc	12 3343 17 is_stmt 1
	subq	%rcx, %rsi
Ltmp64:
	.loc	12 3632 30
	addq	%rcx, %rsi
Ltmp65:
	.loc	19 308 83
	jae	LBB1_13
Ltmp66:
LBB1_8:
	.loc	19 0 83 is_stmt 0
	xorl	%edx, %edx
	jmp	LBB1_14
Ltmp67:
LBB1_13:
	.loc	12 3632 30 is_stmt 1
	leaq	(%rsi,%rax), %rcx
	xorl	%edi, %edi
	cmpq	$-15, %rcx
	setb	%dil
Ltmp68:
	.loc	19 309 88
	shlq	$4, %rdi
	xorl	%edx, %edx
Ltmp69:
	.loc	12 3632 30
	addq	%rax, %rsi
Ltmp70:
	.loc	19 309 88
	cmovaeq	%rdi, %rdx
Ltmp71:
LBB1_14:
	.loc	13 427 17
	pshufd	$78, %xmm0, %xmm0
	movq	%xmm0, %rdi
Ltmp72:
	.loc	15 102 5
	callq	___rust_dealloc
Ltmp73:
LBB1_15:
	.loc	15 0 5 is_stmt 0
	movdqa	80(%rsp), %xmm0
Ltmp74:
	.loc	18 178 1 is_stmt 1
	movq	%xmm0, %rsi
Ltmp75:
	.file	20 "/rustc/a74d1862d4d87a56244958416fd05976c58ca1a8/src/liballoc/raw_vec.rs"
	.loc	20 200 40
	testq	%rsi, %rsi
	movdqa	16(%rsp), %xmm0
	.loc	20 200 9 is_stmt 0
	je	LBB1_19
Ltmp76:
	.loc	18 0 0
	pshufd	$78, %xmm0, %xmm0
	movq	%xmm0, %rdi
Ltmp77:
	.loc	20 532 16 is_stmt 1
	testq	%rdi, %rdi
Ltmp78:
	je	LBB1_19
Ltmp79:
	.loc	20 0 0 is_stmt 0
	shlq	$3, %rsi
Ltmp80:
	.loc	20 532 16
	testq	%rsi, %rsi
	je	LBB1_19
Ltmp81:
	.loc	15 102 5 is_stmt 1
	movl	$8, %edx
	callq	___rust_dealloc
Ltmp82:
LBB1_19:
	.loc	6 264 60
	leaq	-32(%rbp), %rsp
	popq	%rbx
	popq	%r12
	popq	%r14
	popq	%r15
	popq	%rbp
	retq
LBB1_20:
Ltmp83:
	.file	21 "/rustc/a74d1862d4d87a56244958416fd05976c58ca1a8/src/libcore/macros/mod.rs"
	.loc	21 10 9
	leaq	l___unnamed_15(%rip), %rdi
Ltmp84:
	leaq	l___unnamed_16(%rip), %rdx
	movl	$43, %esi
Ltmp85:
	callq	__ZN4core9panicking5panic17h736ee47a631475c0E
Ltmp86:
LBB1_21:
	.file	22 "/rustc/a74d1862d4d87a56244958416fd05976c58ca1a8/src/libcore/result.rs"
	.loc	22 963 23
	leaq	l___unnamed_17(%rip), %rdi
Ltmp87:
	leaq	l___unnamed_3(%rip), %rcx
	leaq	l___unnamed_18(%rip), %r8
	leaq	128(%rsp), %rdx
	movl	$70, %esi
	callq	__ZN4core6result13unwrap_failed17hb5a510096a5fc85fE
Ltmp88:
LBB1_22:
	.loc	15 270 19
	movl	$64, %edi
	movl	$8, %esi
	callq	__ZN5alloc5alloc18handle_alloc_error17hbc0ab0ed90816c07E
Ltmp89:
LBB1_11:
Ltmp7:
	.loc	15 0 19 is_stmt 0
	movq	%rax, %r14
	leaq	32(%rsp), %rdi
	.loc	16 172 9 is_stmt 1
	callq	__ZN4core3ptr13drop_in_place17hd68edae123b4cef3E
	jmp	LBB1_10
LBB1_9:
Ltmp4:
	.loc	16 0 9 is_stmt 0
	movq	%rax, %r14
	.loc	16 169 40 is_stmt 1
	movq	%r12, %rdi
	callq	__ZN5alloc5alloc8box_free17h051d7fe2c253b271E
LBB1_10:
Ltmp90:
	.loc	16 0 40 is_stmt 0
	leaq	128(%rsp), %rdi
	.loc	16 177 5 is_stmt 1
	callq	__ZN4core3ptr13drop_in_place17h6dc32268dd68f316E
	movq	%r14, %rdi
	callq	__Unwind_Resume
	ud2
Ltmp91:
Lfunc_end1:
	.cfi_endproc
	.file	23 "/rustc/a74d1862d4d87a56244958416fd05976c58ca1a8/src/libcore/mem/mod.rs"
	.file	24 "/rustc/a74d1862d4d87a56244958416fd05976c58ca1a8/src/libcore/ops/function.rs"
	.file	25 "/rustc/a74d1862d4d87a56244958416fd05976c58ca1a8/src/libcore/cell.rs"
	.file	26 "/Users/runner/.cargo/registry/src/github.com-1ecc6299db9ec823/hashbrown-0.6.2/src/map.rs"
	.file	27 "/rustc/a74d1862d4d87a56244958416fd05976c58ca1a8/src/libstd/sys_common/mutex.rs"
	.section	__TEXT,__gcc_except_tab
	.p2align	2
GCC_except_table1:
Lexception0:
	.byte	255
	.byte	255
	.byte	1
	.uleb128 Lcst_end0-Lcst_begin0
Lcst_begin0:
	.uleb128 Lfunc_begin1-Lfunc_begin1
	.uleb128 Ltmp2-Lfunc_begin1
	.byte	0
	.byte	0
	.uleb128 Ltmp2-Lfunc_begin1
	.uleb128 Ltmp3-Ltmp2
	.uleb128 Ltmp4-Lfunc_begin1
	.byte	0
	.uleb128 Ltmp5-Lfunc_begin1
	.uleb128 Ltmp6-Ltmp5
	.uleb128 Ltmp7-Lfunc_begin1
	.byte	0
	.uleb128 Ltmp6-Lfunc_begin1
	.uleb128 Lfunc_end1-Ltmp6
	.byte	0
	.byte	0
Lcst_end0:
	.p2align	2

	.section	__TEXT,__literal16,16byte_literals
	.p2align	4
LCPI2_0:
	.quad	8317987319222330741
	.quad	7816392313619706465
LCPI2_1:
	.quad	7237128888997146477
	.quad	8387220255154660723
	.section	__TEXT,__text,regular,pure_instructions
	.p2align	4, 0x90
__ZN3std6thread5local4fast12Key$LT$T$GT$14try_initialize17headbeadc5f21280cE:
Lfunc_begin2:
	.loc	10 423 0
	.cfi_startproc
	.cfi_personality 155, _rust_eh_personality
	.cfi_lsda 16, Lexception1
	pushq	%rbp
	.cfi_def_cfa_offset 16
	.cfi_offset %rbp, -16
	movq	%rsp, %rbp
	.cfi_def_cfa_register %rbp
Ltmp103:
	pushq	%r15
	pushq	%r14
	pushq	%r13
	pushq	%r12
	pushq	%rbx
	subq	$136, %rsp
	.cfi_offset %rbx, -56
	.cfi_offset %r12, -48
	.cfi_offset %r13, -40
	.cfi_offset %r14, -32
	.cfi_offset %r15, -24
	.loc	25 432 18 prologue_end
	movq	__ZN15crossbeam_utils4sync12sharded_lock12REGISTRATION7__getit5__KEY17hd4f3bc8e629e40ccE@TLVP(%rip), %rdi
	callq	*(%rdi)
	movb	16(%rax), %al
Ltmp104:
	.loc	10 436 17
	testb	%al, %al
	je	LBB2_3
	cmpb	$1, %al
	je	LBB2_4
	.loc	10 0 17 is_stmt 0
	xorl	%eax, %eax
	jmp	LBB2_41
LBB2_3:
	.loc	10 438 21 is_stmt 1
	movq	__ZN15crossbeam_utils4sync12sharded_lock12REGISTRATION7__getit5__KEY17hd4f3bc8e629e40ccE@TLVP(%rip), %rdi
	callq	*(%rdi)
	movq	%rax, %rbx
Ltmp105:
	leaq	__ZN3std6thread5local4fast13destroy_value17heed76504df99ad18E(%rip), %rsi
	movq	%rax, %rdi
	callq	__ZN3std3sys4unix17fast_thread_local13register_dtor17h1042734db6d0a9bdE
Ltmp106:
	.loc	7 2058 5
	movb	$1, 16(%rbx)
Ltmp107:
LBB2_4:
	.loc	14 590 25
	callq	__ZN3std6thread7current17hd901c0ead2f9a6c7E
	movq	%rax, -144(%rbp)
Ltmp92:
	leaq	-144(%rbp), %rdi
	callq	__ZN3std6thread6Thread2id17he4130b41e7b6a502E
Ltmp93:
	.loc	14 0 0 is_stmt 0
	movq	%rax, %r15
Ltmp108:
	.file	28 "/rustc/a74d1862d4d87a56244958416fd05976c58ca1a8/src/liballoc/sync.rs"
	.loc	28 1346 12 is_stmt 1
	movq	-144(%rbp), %rax
Ltmp109:
	.file	29 "/rustc/a74d1862d4d87a56244958416fd05976c58ca1a8/src/libcore/sync/atomic.rs"
	.loc	29 2314 20
	lock		decq	(%rax)
Ltmp110:
	.loc	28 1346 9
	jne	LBB2_7
Ltmp111:
	.loc	29 2563 24
	##MEMBARRIER
	leaq	-144(%rbp), %rdi
Ltmp112:
	.loc	28 1381 13
	callq	__ZN5alloc4sync12Arc$LT$T$GT$9drop_slow17he02dfe715103c0a7E
Ltmp113:
LBB2_7:
	.loc	28 0 13 is_stmt 0
	leaq	__ZN95_$LT$crossbeam_utils..sync..sharded_lock..THREAD_INDICES$u20$as$u20$core..ops..deref..Deref$GT$5deref11__stability4LAZY17h5fc39c60e748272cE(%rip), %rax
Ltmp114:
	movq	%rax, -56(%rbp)
Ltmp115:
	.loc	29 2275 20 is_stmt 1
	movq	__ZN95_$LT$crossbeam_utils..sync..sharded_lock..THREAD_INDICES$u20$as$u20$core..ops..deref..Deref$GT$5deref11__stability4LAZY17h5fc39c60e748272cE+104(%rip), %rax
Ltmp116:
	.loc	6 373 9
	cmpq	$3, %rax
Ltmp117:
	.loc	6 259 9
	jne	LBB2_8
Ltmp118:
	.loc	9 37 20
	movq	-56(%rbp), %r13
Ltmp119:
	.loc	9 38 17
	cmpq	$0, (%r13)
	je	LBB2_47
Ltmp120:
LBB2_10:
	.loc	16 219 13
	movq	(%r13), %rdi
Ltmp121:
	.loc	17 63 17
	callq	_pthread_mutex_lock
Ltmp122:
	.file	30 "/rustc/a74d1862d4d87a56244958416fd05976c58ca1a8/src/libstd/thread/mod.rs"
	.loc	30 732 5
	callq	__ZN3std9panicking9panicking17h6f800ddc6c0d9b77E
Ltmp123:
	.loc	29 2276 20
	movb	8(%r13), %cl
Ltmp124:
	.loc	29 404 18
	testb	%cl, %cl
Ltmp125:
	.loc	22 1004 13
	jne	LBB2_11
Ltmp126:
	.loc	14 591 27
	movq	%r13, -160(%rbp)
	movb	%al, -152(%rbp)
Ltmp127:
	.file	31 "/rustc/a74d1862d4d87a56244958416fd05976c58ca1a8/src/liballoc/vec.rs"
	.loc	31 1225 12
	movq	88(%r13), %rdx
	testq	%rdx, %rdx
	movb	%al, -41(%rbp)
	.loc	31 1225 9 is_stmt 0
	je	LBB2_15
Ltmp128:
	.loc	31 1229 17 is_stmt 1
	leaq	-1(%rdx), %rcx
Ltmp129:
	movq	%rcx, 88(%r13)
Ltmp130:
	.loc	31 814 19
	movq	72(%r13), %rcx
Ltmp131:
	.loc	31 1230 22
	movq	-8(%rcx,%rdx,8), %r12
Ltmp132:
	.loc	31 0 22 is_stmt 0
	jmp	LBB2_17
Ltmp133:
LBB2_15:
	.loc	14 596 25 is_stmt 1
	movq	96(%r13), %r12
Ltmp134:
	.loc	14 597 17
	movq	%r12, %rcx
	incq	%rcx
	je	LBB2_44
Ltmp135:
	movq	%rcx, 96(%r13)
Ltmp136:
LBB2_17:
	.loc	26 850 24
	movq	16(%r13), %rax
Ltmp137:
	movq	24(%r13), %rcx
Ltmp138:
	.file	32 "/rustc/a74d1862d4d87a56244958416fd05976c58ca1a8/src/libcore/hash/sip.rs"
	.loc	32 215 9
	movq	%rax, %xmm0
	pshufd	$68, %xmm0, %xmm0
	pxor	LCPI2_0(%rip), %xmm0
	.loc	32 216 9
	movq	%rcx, %xmm1
	pshufd	$68, %xmm1, %xmm1
	pxor	LCPI2_1(%rip), %xmm1
Ltmp139:
	.loc	14 0 0 is_stmt 0
	leaq	16(%r13), %rdx
Ltmp140:
	movq	%rdx, -64(%rbp)
Ltmp141:
	.loc	11 2504 9 is_stmt 1
	movq	%rax, -144(%rbp)
	movq	%rcx, -136(%rbp)
	movq	$0, -128(%rbp)
	movdqu	%xmm0, -120(%rbp)
	movdqu	%xmm1, -104(%rbp)
	movq	$0, -88(%rbp)
	movq	$0, -80(%rbp)
	leaq	-144(%rbp), %rsi
Ltmp142:
	.loc	26 202 5
	movq	%r15, %rdi
	callq	__ZN58_$LT$std..thread..ThreadId$u20$as$u20$core..hash..Hash$GT$4hash17ha60b730ea0aac3adE
Ltmp143:
	.loc	32 308 24
	movq	-128(%rbp), %rsi
Ltmp144:
	.loc	32 306 25
	movq	-104(%rbp), %rbx
Ltmp145:
	.loc	32 308 22
	shlq	$56, %rsi
	orq	-88(%rbp), %rsi
Ltmp146:
	.loc	32 0 22 is_stmt 0
	movq	-96(%rbp), %rax
	movq	-120(%rbp), %rcx
Ltmp147:
	.loc	12 3320 17 is_stmt 1
	addq	%rbx, %rcx
Ltmp148:
	.loc	12 2704 17
	rolq	$13, %rbx
Ltmp149:
	.loc	32 310 9
	xorq	%rsi, %rax
Ltmp150:
	.loc	32 85 35
	xorq	%rcx, %rbx
Ltmp151:
	.loc	12 2704 17
	rolq	$32, %rcx
Ltmp152:
	.loc	12 0 17 is_stmt 0
	movq	-112(%rbp), %rdx
Ltmp153:
	.loc	12 3320 17 is_stmt 1
	addq	%rax, %rdx
Ltmp154:
	.loc	12 2704 17
	rolq	$16, %rax
Ltmp155:
	.loc	32 85 57
	xorq	%rdx, %rax
Ltmp156:
	.loc	12 3320 17
	addq	%rax, %rcx
Ltmp157:
	.loc	12 2704 17
	rolq	$21, %rax
Ltmp158:
	.loc	12 3320 17
	addq	%rbx, %rdx
Ltmp159:
	.loc	12 2704 17
	rolq	$17, %rbx
Ltmp160:
	.loc	32 85 35
	xorq	%rcx, %rax
Ltmp161:
	.loc	32 85 57 is_stmt 0
	xorq	%rdx, %rbx
Ltmp162:
	.loc	12 2704 17 is_stmt 1
	rolq	$32, %rdx
Ltmp163:
	.loc	32 312 9
	xorq	%rsi, %rcx
Ltmp164:
	.loc	12 3320 17
	addq	%rbx, %rcx
Ltmp165:
	.loc	12 2704 17
	rolq	$13, %rbx
Ltmp166:
	.loc	32 85 35
	xorq	%rcx, %rbx
Ltmp167:
	.loc	12 2704 17
	rolq	$32, %rcx
Ltmp168:
	.loc	32 314 9
	xorq	$255, %rdx
Ltmp169:
	.loc	12 3320 17
	addq	%rax, %rdx
Ltmp170:
	.loc	12 2704 17
	rolq	$16, %rax
Ltmp171:
	.loc	32 85 57
	xorq	%rdx, %rax
Ltmp172:
	.loc	12 3320 17
	addq	%rax, %rcx
Ltmp173:
	.loc	12 2704 17
	rolq	$21, %rax
Ltmp174:
	.loc	12 3320 17
	addq	%rbx, %rdx
Ltmp175:
	.loc	12 2704 17
	rolq	$17, %rbx
Ltmp176:
	.loc	32 85 57
	xorq	%rdx, %rbx
Ltmp177:
	.loc	12 2704 17
	rolq	$32, %rdx
Ltmp178:
	.loc	32 85 35
	xorq	%rcx, %rax
Ltmp179:
	.loc	12 3320 17
	addq	%rbx, %rcx
Ltmp180:
	.loc	12 2704 17
	rolq	$13, %rbx
Ltmp181:
	.loc	32 85 35
	xorq	%rcx, %rbx
Ltmp182:
	.loc	12 2704 17
	rolq	$32, %rcx
Ltmp183:
	.loc	12 3320 17
	addq	%rax, %rdx
Ltmp184:
	.loc	12 2704 17
	rolq	$16, %rax
Ltmp185:
	.loc	32 85 57
	xorq	%rdx, %rax
Ltmp186:
	.loc	12 3320 17
	addq	%rax, %rcx
Ltmp187:
	.loc	12 2704 17
	rolq	$21, %rax
Ltmp188:
	.loc	12 3320 17
	addq	%rbx, %rdx
Ltmp189:
	.loc	12 2704 17
	rolq	$17, %rbx
Ltmp190:
	.loc	32 85 57
	xorq	%rdx, %rbx
Ltmp191:
	.loc	12 2704 17
	rolq	$32, %rdx
Ltmp192:
	.loc	32 85 35
	xorq	%rcx, %rax
Ltmp193:
	.loc	12 3320 17
	addq	%rbx, %rcx
Ltmp194:
	.loc	12 2704 17
	rolq	$13, %rbx
Ltmp195:
	.loc	12 3320 17
	addq	%rax, %rdx
Ltmp196:
	.loc	12 2704 17
	rolq	$16, %rax
Ltmp197:
	.loc	32 85 57
	xorq	%rdx, %rax
Ltmp198:
	.loc	12 2704 17
	rolq	$21, %rax
Ltmp199:
	.loc	32 85 35
	xorq	%rcx, %rbx
Ltmp200:
	.loc	12 3320 17
	addq	%rbx, %rdx
Ltmp201:
	.loc	12 2704 17
	rolq	$17, %rbx
Ltmp202:
	.loc	32 317 9
	xorq	%rdx, %rbx
Ltmp203:
	.loc	12 2704 17
	rolq	$32, %rdx
Ltmp204:
	.loc	32 85 35
	xorq	%rdx, %rbx
Ltmp205:
	.loc	32 317 9
	xorq	%rax, %rbx
Ltmp206:
	.loc	26 851 33
	leaq	32(%r13), %rax
Ltmp207:
	.loc	26 0 33 is_stmt 0
	movq	%rax, -168(%rbp)
Ltmp208:
	.loc	13 490 26 is_stmt 1
	movq	32(%r13), %r9
Ltmp209:
	.loc	13 0 0 is_stmt 0
	movq	40(%r13), %r8
Ltmp210:
	movq	%rbx, %r14
	shrq	$57, %r14
Ltmp211:
	movd	%r14d, %xmm0
	pxor	%xmm1, %xmm1
	pshufb	%xmm1, %xmm0
Ltmp212:
	movq	48(%r13), %rdx
Ltmp213:
	xorl	%r11d, %r11d
	pcmpeqd	%xmm1, %xmm1
	movq	%rbx, %r10
Ltmp214:
LBB2_18:
	movq	%r10, %rax
	andq	%r9, %rax
Ltmp215:
	.loc	13 168 9 is_stmt 1
	leaq	16(%r11,%rax), %r10
Ltmp216:
	.loc	13 167 9
	addq	$16, %r11
Ltmp217:
	.loc	13 0 9 is_stmt 0
	movq	%r8, %rsi
Ltmp218:
	.loc	7 2058 5 is_stmt 1
	movdqu	(%r8,%rax), %xmm2
Ltmp219:
	.file	33 "/rustc/a74d1862d4d87a56244958416fd05976c58ca1a8/src/libcore/../stdarch/crates/core_arch/src/x86/sse2.rs"
	.loc	33 1401 5
	movdqa	%xmm0, %xmm3
	pcmpeqb	%xmm2, %xmm3
	pmovmskb	%xmm3, %edi
Ltmp220:
LBB2_19:
	.file	34 "/Users/runner/.cargo/registry/src/github.com-1ecc6299db9ec823/hashbrown-0.6.2/src/raw/bitmask.rs"
	.loc	34 43 12
	testw	%di, %di
	.loc	34 43 9 is_stmt 0
	je	LBB2_20
Ltmp221:
	.loc	34 55 9 is_stmt 1
	bsfw	%di, %cx
	movzwl	%cx, %ecx
Ltmp222:
	.loc	34 0 9 is_stmt 0
	movq	%r15, %r8
	movq	%r12, %r15
Ltmp223:
	.loc	34 32 26 is_stmt 1
	leal	-1(%rdi), %r12d
Ltmp224:
	.loc	34 32 17 is_stmt 0
	andl	%edi, %r12d
Ltmp225:
	.loc	13 885 33 is_stmt 1
	addq	%rax, %rcx
Ltmp226:
	andq	%r9, %rcx
Ltmp227:
	.loc	13 285 9
	shlq	$4, %rcx
Ltmp228:
	.loc	13 884 28
	movl	%r12d, %edi
Ltmp229:
	.loc	13 0 28 is_stmt 0
	movq	%r15, %r12
Ltmp230:
	movq	%r8, %r15
Ltmp231:
	.loc	12 64 32 is_stmt 1
	cmpq	%r8, (%rdx,%rcx)
	je	LBB2_34
	jmp	LBB2_19
Ltmp232:
LBB2_20:
	.loc	33 1401 5
	pcmpeqb	%xmm1, %xmm2
	pmovmskb	%xmm2, %eax
Ltmp233:
	.loc	34 37 9
	testw	%ax, %ax
	movq	%rsi, %r8
Ltmp234:
	.loc	13 891 17
	je	LBB2_18
Ltmp235:
	.loc	13 0 17 is_stmt 0
	movq	-64(%rbp), %rax
	.loc	26 854 36 is_stmt 1
	movq	%rax, -56(%rbp)
	xorl	%eax, %eax
Ltmp236:
	.loc	26 0 36 is_stmt 0
	movq	%rbx, %rcx
Ltmp237:
	.p2align	4, 0x90
LBB2_22:
	movq	%rcx, %rdx
	andq	%r9, %rdx
Ltmp238:
	.loc	7 2058 5 is_stmt 1
	movdqu	(%r8,%rdx), %xmm0
Ltmp239:
	.loc	33 1401 5
	pmovmskb	%xmm0, %edi
Ltmp240:
	.loc	13 168 9
	leaq	16(%rax,%rdx), %rcx
	.loc	13 167 9
	addq	$16, %rax
Ltmp241:
	.loc	34 43 12
	testw	%di, %di
	.loc	34 43 9 is_stmt 0
	je	LBB2_22
Ltmp242:
	.loc	34 55 9 is_stmt 1
	bsfw	%di, %ax
	movzwl	%ax, %eax
Ltmp243:
	.loc	13 534 34
	addq	%rax, %rdx
Ltmp244:
	andq	%r9, %rdx
Ltmp245:
	.loc	13 545 41
	movb	(%r8,%rdx), %al
Ltmp246:
	.loc	13 104 5
	testb	%al, %al
Ltmp247:
	.loc	13 545 21
	jns	LBB2_24
Ltmp248:
	.loc	13 117 5
	andb	$1, %al
Ltmp249:
	.loc	13 0 5 is_stmt 0
	movb	%al, -64(%rbp)
Ltmp250:
	.loc	13 840 25 is_stmt 1
	je	LBB2_32
Ltmp251:
LBB2_26:
	cmpq	$0, 56(%r13)
	jne	LBB2_32
Ltmp252:
Ltmp98:
	.loc	13 0 25 is_stmt 0
	leaq	-144(%rbp), %rdi
	leaq	-56(%rbp), %rdx
Ltmp253:
	movq	-168(%rbp), %rsi
Ltmp254:
	.loc	13 626 13 is_stmt 1
	callq	__ZN9hashbrown3raw17RawTable$LT$T$GT$14reserve_rehash17h35cfa0b18a8a4e1eE
Ltmp99:
Ltmp255:
	.loc	13 490 26
	movq	32(%r13), %r9
Ltmp256:
	.loc	13 0 0 is_stmt 0
	movq	40(%r13), %r8
Ltmp257:
	xorl	%eax, %eax
Ltmp258:
	.p2align	4, 0x90
LBB2_29:
	movq	%rbx, %rdx
	andq	%r9, %rdx
Ltmp259:
	.loc	7 2058 5 is_stmt 1
	movdqu	(%r8,%rdx), %xmm0
Ltmp260:
	.loc	33 1401 5
	pmovmskb	%xmm0, %ecx
Ltmp261:
	.loc	13 168 9
	leaq	16(%rax,%rdx), %rbx
	.loc	13 167 9
	addq	$16, %rax
Ltmp262:
	.loc	34 43 12
	testw	%cx, %cx
	.loc	34 43 9 is_stmt 0
	je	LBB2_29
Ltmp263:
	.loc	34 55 9 is_stmt 1
	bsfw	%cx, %ax
	movzwl	%ax, %eax
Ltmp264:
	.loc	13 534 34
	addq	%rax, %rdx
Ltmp265:
	andq	%r9, %rdx
Ltmp266:
	.loc	13 104 5
	cmpb	$0, (%r8,%rdx)
Ltmp267:
	.loc	13 545 21
	jns	LBB2_31
Ltmp268:
LBB2_32:
	.loc	13 845 26
	movq	48(%r13), %rax
Ltmp269:
	.loc	13 285 9
	movq	%rdx, %rcx
	shlq	$4, %rcx
Ltmp270:
	.loc	13 846 33
	movzbl	-64(%rbp), %esi
	.loc	13 846 13 is_stmt 0
	subq	%rsi, 56(%r13)
Ltmp271:
	.loc	12 3343 17 is_stmt 1
	leaq	-16(%rdx), %rsi
Ltmp272:
	.loc	13 518 22
	andq	%r9, %rsi
Ltmp273:
	.loc	13 520 9
	movb	%r14b, (%r8,%rdx)
	.loc	13 521 9
	movb	%r14b, 16(%rsi,%r8)
Ltmp274:
	.loc	18 836 42
	movq	%r15, (%rax,%rcx)
	movq	%r12, 8(%rax,%rcx)
Ltmp275:
	.loc	13 849 13
	incq	64(%r13)
Ltmp276:
	.file	35 "/rustc/a74d1862d4d87a56244958416fd05976c58ca1a8/src/libstd/sys_common/poison.rs"
	.loc	35 34 12
	cmpb	$0, -41(%rbp)
	je	LBB2_36
	jmp	LBB2_38
Ltmp277:
LBB2_34:
	.loc	26 0 0 is_stmt 0
	addq	%rcx, %rdx
Ltmp278:
	.loc	7 2058 5 is_stmt 1
	movq	%r12, 8(%rdx)
Ltmp279:
	.loc	35 34 12
	cmpb	$0, -41(%rbp)
	jne	LBB2_38
Ltmp280:
LBB2_36:
	.loc	30 732 5
	callq	__ZN3std9panicking9panicking17h6f800ddc6c0d9b77E
Ltmp281:
	.loc	35 34 12
	testb	%al, %al
	je	LBB2_38
Ltmp282:
	.loc	29 2265 20
	movb	$1, 8(%r13)
Ltmp283:
LBB2_38:
	.loc	16 446 13
	movq	-160(%rbp), %rax
	movq	(%rax), %rdi
Ltmp284:
	.loc	17 68 17
	callq	_pthread_mutex_unlock
Ltmp285:
	.loc	7 2058 5
	movq	__ZN15crossbeam_utils4sync12sharded_lock12REGISTRATION7__getit5__KEY17hd4f3bc8e629e40ccE@TLVP(%rip), %rdi
	callq	*(%rdi)
	movdqu	(%rax), %xmm0
Ltmp286:
	.loc	7 2058 5 is_stmt 0
	movq	%r12, (%rax)
	movq	%r15, 8(%rax)
Ltmp287:
	.loc	10 304 21 is_stmt 1
	movdqa	%xmm0, -144(%rbp)
Ltmp288:
	.loc	18 178 1
	pshufd	$78, %xmm0, %xmm0
	movq	%xmm0, %rax
	testq	%rax, %rax
	je	LBB2_40
Ltmp289:
	.loc	18 0 1 is_stmt 0
	leaq	-144(%rbp), %rdi
Ltmp290:
	.loc	18 178 1
	callq	__ZN91_$LT$crossbeam_utils..sync..sharded_lock..Registration$u20$as$u20$core..ops..drop..Drop$GT$4drop17h9cbd4a59daf756d0E
Ltmp291:
	.loc	10 312 17 is_stmt 1
	movq	__ZN15crossbeam_utils4sync12sharded_lock12REGISTRATION7__getit5__KEY17hd4f3bc8e629e40ccE@TLVP(%rip), %rdi
	callq	*(%rdi)
Ltmp292:
LBB2_40:
	.loc	10 0 17 is_stmt 0
	movq	__ZN15crossbeam_utils4sync12sharded_lock12REGISTRATION7__getit5__KEY17hd4f3bc8e629e40ccE@TLVP(%rip), %rdi
	callq	*(%rdi)
Ltmp293:
LBB2_41:
	.loc	10 429 10 is_stmt 1
	addq	$136, %rsp
	popq	%rbx
	popq	%r12
	popq	%r13
	popq	%r14
	popq	%r15
	popq	%rbp
	retq
LBB2_8:
Ltmp294:
	.loc	10 0 10 is_stmt 0
	leaq	-56(%rbp), %rax
Ltmp295:
	.loc	6 263 21 is_stmt 1
	movq	%rax, -160(%rbp)
	leaq	-160(%rbp), %rax
Ltmp296:
	.loc	6 264 37
	movq	%rax, -144(%rbp)
	.loc	6 264 9 is_stmt 0
	leaq	__ZN95_$LT$crossbeam_utils..sync..sharded_lock..THREAD_INDICES$u20$as$u20$core..ops..deref..Deref$GT$5deref11__stability4LAZY17h5fc39c60e748272cE+104(%rip), %rdi
	leaq	l___unnamed_1(%rip), %rcx
	leaq	-144(%rbp), %rdx
	xorl	%esi, %esi
	callq	__ZN3std4sync4once4Once10call_inner17h78f35ea5a056ddbcE
Ltmp297:
	.loc	9 37 20 is_stmt 1
	movq	-56(%rbp), %r13
Ltmp298:
	.loc	9 38 17
	cmpq	$0, (%r13)
	jne	LBB2_10
Ltmp299:
LBB2_47:
	.loc	21 10 9
	leaq	l___unnamed_19(%rip), %rdi
	leaq	l___unnamed_20(%rip), %rdx
	movl	$66, %esi
	callq	__ZN4core9panicking5panic17h736ee47a631475c0E
Ltmp300:
LBB2_24:
	.loc	33 1204 5
	movdqa	(%r8), %xmm0
Ltmp301:
	.loc	33 1401 5
	pmovmskb	%xmm0, %eax
Ltmp302:
	.loc	34 55 9
	bsfw	%ax, %ax
Ltmp303:
	movzwl	%ax, %edx
Ltmp304:
	.loc	13 839 28
	movb	(%r8,%rdx), %al
Ltmp305:
	.loc	13 117 5
	andb	$1, %al
Ltmp306:
	.loc	13 0 5 is_stmt 0
	movb	%al, -64(%rbp)
Ltmp307:
	.loc	13 840 25 is_stmt 1
	jne	LBB2_26
	jmp	LBB2_32
Ltmp308:
LBB2_31:
	.loc	33 1204 5
	movdqa	(%r8), %xmm0
Ltmp309:
	.loc	33 1401 5
	pmovmskb	%xmm0, %eax
Ltmp310:
	.loc	34 55 9
	bsfw	%ax, %ax
Ltmp311:
	movzwl	%ax, %edx
Ltmp312:
	.loc	34 0 9 is_stmt 0
	jmp	LBB2_32
Ltmp313:
LBB2_11:
	.loc	22 1005 17 is_stmt 1
	movq	%r13, -144(%rbp)
	movb	%al, -136(%rbp)
Ltmp95:
Ltmp314:
	.loc	22 1005 23 is_stmt 0
	leaq	l___unnamed_21(%rip), %rdi
	leaq	l___unnamed_7(%rip), %rcx
	leaq	l___unnamed_22(%rip), %r8
	leaq	-144(%rbp), %rdx
	movl	$43, %esi
	callq	__ZN4core6result13unwrap_failed17hb5a510096a5fc85fE
Ltmp315:
Ltmp96:
	.loc	22 0 23
	jmp	LBB2_12
Ltmp316:
LBB2_44:
Ltmp100:
	.loc	14 597 17 is_stmt 1
	leaq	_str.0(%rip), %rdi
	leaq	l___unnamed_23(%rip), %rdx
	movl	$28, %esi
	callq	__ZN4core9panicking5panic17h736ee47a631475c0E
Ltmp101:
Ltmp317:
LBB2_12:
	.loc	14 0 17 is_stmt 0
	ud2
LBB2_45:
Ltmp318:
Ltmp97:
	movq	%rax, %rbx
	leaq	-144(%rbp), %rdi
Ltmp319:
	.loc	22 1005 87 is_stmt 1
	callq	__ZN4core3ptr13drop_in_place17h1e8ee9b3757cb9d8E
	movq	%rbx, %rdi
	callq	__Unwind_Resume
	ud2
Ltmp320:
LBB2_43:
Ltmp102:
	.loc	22 0 87 is_stmt 0
	movq	%rax, %rbx
Ltmp321:
	leaq	-160(%rbp), %rdi
	.loc	14 607 5 is_stmt 1
	callq	__ZN4core3ptr13drop_in_place17h32275ec3e919b00cE
	movq	%rbx, %rdi
	callq	__Unwind_Resume
	ud2
Ltmp322:
LBB2_42:
Ltmp94:
	.loc	14 0 5 is_stmt 0
	movq	%rax, %rbx
	leaq	-144(%rbp), %rdi
	.loc	14 590 47 is_stmt 1
	callq	__ZN4core3ptr13drop_in_place17hb3bcb213f8979db1E
	movq	%rbx, %rdi
	callq	__Unwind_Resume
	ud2
Ltmp323:
Lfunc_end2:
	.cfi_endproc
	.file	36 "/rustc/a74d1862d4d87a56244958416fd05976c58ca1a8/src/libcore/../stdarch/crates/core_arch/src/simd.rs"
	.file	37 "/Users/runner/.cargo/registry/src/github.com-1ecc6299db9ec823/hashbrown-0.6.2/src/raw/sse2.rs"
	.file	38 "/rustc/a74d1862d4d87a56244958416fd05976c58ca1a8/src/libcore/ptr/mut_ptr.rs"
	.section	__TEXT,__gcc_except_tab
	.p2align	2
GCC_except_table2:
Lexception1:
	.byte	255
	.byte	255
	.byte	1
	.uleb128 Lcst_end1-Lcst_begin1
Lcst_begin1:
	.uleb128 Lfunc_begin2-Lfunc_begin2
	.uleb128 Ltmp92-Lfunc_begin2
	.byte	0
	.byte	0
	.uleb128 Ltmp92-Lfunc_begin2
	.uleb128 Ltmp93-Ltmp92
	.uleb128 Ltmp94-Lfunc_begin2
	.byte	0
	.uleb128 Ltmp93-Lfunc_begin2
	.uleb128 Ltmp98-Ltmp93
	.byte	0
	.byte	0
	.uleb128 Ltmp98-Lfunc_begin2
	.uleb128 Ltmp99-Ltmp98
	.uleb128 Ltmp102-Lfunc_begin2
	.byte	0
	.uleb128 Ltmp99-Lfunc_begin2
	.uleb128 Ltmp95-Ltmp99
	.byte	0
	.byte	0
	.uleb128 Ltmp95-Lfunc_begin2
	.uleb128 Ltmp96-Ltmp95
	.uleb128 Ltmp97-Lfunc_begin2
	.byte	0
	.uleb128 Ltmp100-Lfunc_begin2
	.uleb128 Ltmp101-Ltmp100
	.uleb128 Ltmp102-Lfunc_begin2
	.byte	0
	.uleb128 Ltmp101-Lfunc_begin2
	.uleb128 Lfunc_end2-Ltmp101
	.byte	0
	.byte	0
Lcst_end1:
	.p2align	2

	.section	__TEXT,__text,regular,pure_instructions
	.p2align	4, 0x90
__ZN3std6thread5local4fast13destroy_value17heed76504df99ad18E:
Lfunc_begin3:
	.loc	10 451 0
	.cfi_startproc
	pushq	%rbp
	.cfi_def_cfa_offset 16
	.cfi_offset %rbp, -16
	movq	%rsp, %rbp
	.cfi_def_cfa_register %rbp
	subq	$16, %rsp
Ltmp324:
	.loc	7 2058 5 prologue_end
	movdqu	(%rdi), %xmm0
Ltmp325:
	.loc	7 2058 5 is_stmt 0
	movq	$0, 8(%rdi)
Ltmp326:
	.loc	7 2058 5
	movb	$2, 16(%rdi)
Ltmp327:
	.loc	7 0 5
	movdqa	%xmm0, -16(%rbp)
Ltmp328:
	.loc	18 178 1 is_stmt 1
	pshufd	$78, %xmm0, %xmm0
	movq	%xmm0, %rax
	testq	%rax, %rax
	je	LBB3_2
Ltmp329:
	.loc	18 0 1 is_stmt 0
	leaq	-16(%rbp), %rdi
Ltmp330:
	.loc	18 178 1
	callq	__ZN91_$LT$crossbeam_utils..sync..sharded_lock..Registration$u20$as$u20$core..ops..drop..Drop$GT$4drop17h9cbd4a59daf756d0E
Ltmp331:
LBB3_2:
	.loc	10 461 6 is_stmt 1
	addq	$16, %rsp
	popq	%rbp
	retq
Ltmp332:
Lfunc_end3:
	.cfi_endproc

	.p2align	4, 0x90
__ZN3std9panicking11begin_panic17hc0a5db55a78d93c9E:
Lfunc_begin4:
	.file	39 "/rustc/a74d1862d4d87a56244958416fd05976c58ca1a8/src/libstd/panicking.rs"
	.loc	39 399 0
	.cfi_startproc
	pushq	%rbp
	.cfi_def_cfa_offset 16
	.cfi_offset %rbp, -16
	movq	%rsp, %rbp
	.cfi_def_cfa_register %rbp
	subq	$16, %rsp
Ltmp333:
	.loc	39 404 31 prologue_end
	leaq	l___unnamed_24(%rip), %rax
	movq	%rax, -16(%rbp)
	movq	$28, -8(%rbp)
	.loc	39 404 61 is_stmt 0
	leaq	l___unnamed_25(%rip), %rdi
	callq	__ZN4core5panic8Location6caller17hf55c9a52d6249cfcE
	.loc	39 404 5
	leaq	l___unnamed_2(%rip), %rsi
	leaq	-16(%rbp), %rdi
	xorl	%edx, %edx
	movq	%rax, %rcx
	callq	__ZN3std9panicking20rust_panic_with_hook17hf8b9378dd2e7986aE
Ltmp334:
Lfunc_end4:
	.cfi_endproc

	.p2align	4, 0x90
__ZN41_$LT$bool$u20$as$u20$core..fmt..Debug$GT$3fmt17hcb2f2721d0797180E:
Lfunc_begin5:
	.file	40 "/rustc/a74d1862d4d87a56244958416fd05976c58ca1a8/src/libcore/fmt/mod.rs"
	.loc	40 2002 0 is_stmt 1
	.cfi_startproc
	pushq	%rbp
	.cfi_def_cfa_offset 16
	.cfi_offset %rbp, -16
	movq	%rsp, %rbp
	.cfi_def_cfa_register %rbp
Ltmp335:
	.loc	40 2003 9 prologue_end
	popq	%rbp
	jmp	__ZN43_$LT$bool$u20$as$u20$core..fmt..Display$GT$3fmt17hf36463fa8b480ab4E
Ltmp336:
Lfunc_end5:
	.cfi_endproc

	.p2align	4, 0x90
__ZN42_$LT$$RF$T$u20$as$u20$core..fmt..Debug$GT$3fmt17h4245c95e56ae1f6cE:
Lfunc_begin6:
	.loc	40 1973 0
	.cfi_startproc
	pushq	%rbp
	.cfi_def_cfa_offset 16
	.cfi_offset %rbp, -16
	movq	%rsp, %rbp
	.cfi_def_cfa_register %rbp
	movq	%rsi, %rdi
Ltmp337:
	.file	41 "/Users/yingyuhang/.cargo/registry/src/github.com-1ecc6299db9ec823/crossbeam-utils-0.7.2/src/thread.rs"
	.loc	41 273 9 prologue_end
	leaq	l___unnamed_26(%rip), %rsi
	movl	$12, %edx
	popq	%rbp
	jmp	__ZN4core3fmt9Formatter3pad17he4a76f49c06ce69bE
Ltmp338:
Lfunc_end6:
	.cfi_endproc

	.p2align	4, 0x90
__ZN42_$LT$$RF$T$u20$as$u20$core..fmt..Debug$GT$3fmt17h87cb677fe99826cfE:
Lfunc_begin7:
	.loc	40 1973 0
	.cfi_startproc
	pushq	%rbp
	.cfi_def_cfa_offset 16
	.cfi_offset %rbp, -16
	movq	%rsp, %rbp
	.cfi_def_cfa_register %rbp
Ltmp339:
	.loc	40 1973 71 prologue_end
	movq	(%rdi), %rdi
Ltmp340:
	.loc	40 1973 62 is_stmt 0
	popq	%rbp
	jmp	__ZN57_$LT$std..thread..Builder$u20$as$u20$core..fmt..Debug$GT$3fmt17hc3fbf47af8ad8c91E
Ltmp341:
Lfunc_end7:
	.cfi_endproc

	.p2align	4, 0x90
__ZN42_$LT$$RF$T$u20$as$u20$core..fmt..Debug$GT$3fmt17hd913aaa464466618E:
Lfunc_begin8:
	.loc	40 1973 0 is_stmt 1
	.cfi_startproc
	pushq	%rbp
	.cfi_def_cfa_offset 16
	.cfi_offset %rbp, -16
	movq	%rsp, %rbp
	.cfi_def_cfa_register %rbp
	pushq	%r14
	pushq	%rbx
	.cfi_offset %rbx, -32
	.cfi_offset %r14, -24
	movq	%rsi, %rbx
Ltmp342:
	.loc	40 1973 71 prologue_end
	movq	(%rdi), %r14
Ltmp343:
	.file	42 "/rustc/a74d1862d4d87a56244958416fd05976c58ca1a8/src/libcore/fmt/num.rs"
	.loc	42 149 20
	movq	%rsi, %rdi
Ltmp344:
	callq	__ZN4core3fmt9Formatter15debug_lower_hex17h8530fbaeba13f4d9E
	.loc	42 149 17 is_stmt 0
	testb	%al, %al
	je	LBB8_1
Ltmp345:
	.loc	42 150 21 is_stmt 1
	movq	%r14, %rdi
	movq	%rbx, %rsi
	popq	%rbx
Ltmp346:
	popq	%r14
Ltmp347:
	popq	%rbp
	jmp	__ZN4core3fmt3num55_$LT$impl$u20$core..fmt..LowerHex$u20$for$u20$usize$GT$3fmt17hbf7dc8c1d7fa021dE
LBB8_1:
Ltmp348:
	.loc	42 151 27
	movq	%rbx, %rdi
	callq	__ZN4core3fmt9Formatter15debug_upper_hex17hf8fda15ec43a1e68E
	.loc	42 154 21
	movq	%r14, %rdi
	movq	%rbx, %rsi
	.loc	42 151 24
	testb	%al, %al
	je	LBB8_4
Ltmp349:
	.loc	42 152 21
	popq	%rbx
Ltmp350:
	popq	%r14
Ltmp351:
	popq	%rbp
	jmp	__ZN4core3fmt3num55_$LT$impl$u20$core..fmt..UpperHex$u20$for$u20$usize$GT$3fmt17hf20a4f369caf234bE
LBB8_4:
Ltmp352:
	.loc	42 154 21
	popq	%rbx
Ltmp353:
	popq	%r14
Ltmp354:
	popq	%rbp
	jmp	__ZN4core3fmt3num3imp54_$LT$impl$u20$core..fmt..Display$u20$for$u20$usize$GT$3fmt17h89ce3155a90f2edfE
Ltmp355:
Lfunc_end8:
	.cfi_endproc

	.p2align	4, 0x90
__ZN4core3fmt3num50_$LT$impl$u20$core..fmt..Debug$u20$for$u20$u32$GT$3fmt17hcbab27cd39434e2dE:
Lfunc_begin9:
	.loc	42 148 0
	.cfi_startproc
	pushq	%rbp
	.cfi_def_cfa_offset 16
	.cfi_offset %rbp, -16
	movq	%rsp, %rbp
	.cfi_def_cfa_register %rbp
	pushq	%r14
	pushq	%rbx
	.cfi_offset %rbx, -32
	.cfi_offset %r14, -24
	movq	%rsi, %rbx
Ltmp356:
	movq	%rdi, %r14
Ltmp357:
	.loc	42 149 20 prologue_end
	movq	%rsi, %rdi
	callq	__ZN4core3fmt9Formatter15debug_lower_hex17h8530fbaeba13f4d9E
	.loc	42 149 17 is_stmt 0
	testb	%al, %al
	je	LBB9_1
Ltmp358:
	.loc	42 150 21 is_stmt 1
	movq	%r14, %rdi
	movq	%rbx, %rsi
	popq	%rbx
Ltmp359:
	popq	%r14
Ltmp360:
	popq	%rbp
	jmp	__ZN4core3fmt3num53_$LT$impl$u20$core..fmt..LowerHex$u20$for$u20$u32$GT$3fmt17h6f8627d2574097eeE
LBB9_1:
Ltmp361:
	.loc	42 151 27
	movq	%rbx, %rdi
	callq	__ZN4core3fmt9Formatter15debug_upper_hex17hf8fda15ec43a1e68E
	.loc	42 154 21
	movq	%r14, %rdi
	movq	%rbx, %rsi
	.loc	42 151 24
	testb	%al, %al
	je	LBB9_4
Ltmp362:
	.loc	42 152 21
	popq	%rbx
Ltmp363:
	popq	%r14
Ltmp364:
	popq	%rbp
	jmp	__ZN4core3fmt3num53_$LT$impl$u20$core..fmt..UpperHex$u20$for$u20$u32$GT$3fmt17hfea5795b8018329eE
LBB9_4:
Ltmp365:
	.loc	42 154 21
	popq	%rbx
Ltmp366:
	popq	%r14
Ltmp367:
	popq	%rbp
	jmp	__ZN4core3fmt3num3imp52_$LT$impl$u20$core..fmt..Display$u20$for$u20$u32$GT$3fmt17h8cb3163b2d7e102aE
Ltmp368:
Lfunc_end9:
	.cfi_endproc

	.p2align	4, 0x90
__ZN4core3fmt3num52_$LT$impl$u20$core..fmt..Debug$u20$for$u20$usize$GT$3fmt17hd9d2912101c14e43E:
Lfunc_begin10:
	.loc	42 148 0
	.cfi_startproc
	pushq	%rbp
	.cfi_def_cfa_offset 16
	.cfi_offset %rbp, -16
	movq	%rsp, %rbp
	.cfi_def_cfa_register %rbp
	pushq	%r14
	pushq	%rbx
	.cfi_offset %rbx, -32
	.cfi_offset %r14, -24
	movq	%rsi, %rbx
Ltmp369:
	movq	%rdi, %r14
Ltmp370:
	.loc	42 149 20 prologue_end
	movq	%rsi, %rdi
	callq	__ZN4core3fmt9Formatter15debug_lower_hex17h8530fbaeba13f4d9E
	.loc	42 149 17 is_stmt 0
	testb	%al, %al
	je	LBB10_1
Ltmp371:
	.loc	42 150 21 is_stmt 1
	movq	%r14, %rdi
	movq	%rbx, %rsi
	popq	%rbx
Ltmp372:
	popq	%r14
Ltmp373:
	popq	%rbp
	jmp	__ZN4core3fmt3num55_$LT$impl$u20$core..fmt..LowerHex$u20$for$u20$usize$GT$3fmt17hbf7dc8c1d7fa021dE
LBB10_1:
Ltmp374:
	.loc	42 151 27
	movq	%rbx, %rdi
	callq	__ZN4core3fmt9Formatter15debug_upper_hex17hf8fda15ec43a1e68E
	.loc	42 154 21
	movq	%r14, %rdi
	movq	%rbx, %rsi
	.loc	42 151 24
	testb	%al, %al
	je	LBB10_4
Ltmp375:
	.loc	42 152 21
	popq	%rbx
Ltmp376:
	popq	%r14
Ltmp377:
	popq	%rbp
	jmp	__ZN4core3fmt3num55_$LT$impl$u20$core..fmt..UpperHex$u20$for$u20$usize$GT$3fmt17hf20a4f369caf234bE
LBB10_4:
Ltmp378:
	.loc	42 154 21
	popq	%rbx
Ltmp379:
	popq	%r14
Ltmp380:
	popq	%rbp
	jmp	__ZN4core3fmt3num3imp54_$LT$impl$u20$core..fmt..Display$u20$for$u20$usize$GT$3fmt17h89ce3155a90f2edfE
Ltmp381:
Lfunc_end10:
	.cfi_endproc

	.p2align	4, 0x90
__ZN4core3ops8function6FnOnce40call_once$u7b$$u7b$vtable.shim$u7d$$u7d$17h04ebcb7ecbc5ff5cE:
Lfunc_begin11:
	.loc	24 232 0
	.cfi_startproc
	pushq	%rbp
	.cfi_def_cfa_offset 16
	.cfi_offset %rbp, -16
	movq	%rsp, %rbp
	.cfi_def_cfa_register %rbp
	subq	$16, %rsp
Ltmp382:
	.loc	24 232 5 prologue_end
	movq	(%rdi), %rax
	movq	%rax, -8(%rbp)
Ltmp383:
	.loc	24 0 5 is_stmt 0
	leaq	-8(%rbp), %rdi
Ltmp384:
	.loc	24 232 5
	callq	__ZN3std4sync4once4Once9call_once28_$u7b$$u7b$closure$u7d$$u7d$17h5b3bcced49ed289fE
Ltmp385:
	.loc	24 232 5
	addq	$16, %rsp
	popq	%rbp
	retq
Ltmp386:
Lfunc_end11:
	.cfi_endproc

	.p2align	4, 0x90
__ZN4core3ptr13drop_in_place17h0fa4888b4cdc2f3eE:
Lfunc_begin12:
	.loc	18 178 0 is_stmt 1
	.cfi_startproc
	pushq	%rbp
	.cfi_def_cfa_offset 16
	.cfi_offset %rbp, -16
	movq	%rsp, %rbp
	.cfi_def_cfa_register %rbp
Ltmp387:
	.loc	18 178 1 prologue_end
	popq	%rbp
	retq
Ltmp388:
Lfunc_end12:
	.cfi_endproc

	.p2align	4, 0x90
__ZN4core3ptr13drop_in_place17h1e8ee9b3757cb9d8E:
Lfunc_begin13:
	.loc	18 178 0
	.cfi_startproc
	pushq	%rbp
	.cfi_def_cfa_offset 16
	.cfi_offset %rbp, -16
	movq	%rsp, %rbp
	.cfi_def_cfa_register %rbp
	pushq	%r14
	pushq	%rbx
	.cfi_offset %rbx, -32
	.cfi_offset %r14, -24
	movq	%rdi, %rbx
Ltmp389:
	.loc	35 34 13 prologue_end
	cmpb	$0, 8(%rdi)
	.loc	35 34 12 is_stmt 0
	jne	LBB13_3
Ltmp390:
	.loc	16 0 0
	movq	(%rbx), %r14
Ltmp391:
	.loc	30 732 5 is_stmt 1
	callq	__ZN3std9panicking9panicking17h6f800ddc6c0d9b77E
Ltmp392:
	.loc	35 34 12
	testb	%al, %al
	je	LBB13_3
Ltmp393:
	.loc	29 2265 20
	movb	$1, 8(%r14)
Ltmp394:
LBB13_3:
	.loc	16 446 13
	movq	(%rbx), %rax
	movq	(%rax), %rdi
Ltmp395:
	.loc	17 68 17
	popq	%rbx
Ltmp396:
	popq	%r14
	popq	%rbp
	jmp	_pthread_mutex_unlock
Ltmp397:
Lfunc_end13:
	.cfi_endproc

	.p2align	4, 0x90
__ZN4core3ptr13drop_in_place17h2d4fa9f07566d3f3E:
Lfunc_begin14:
	.loc	18 178 0
	.cfi_startproc
	pushq	%rbp
	.cfi_def_cfa_offset 16
	.cfi_offset %rbp, -16
	movq	%rsp, %rbp
	.cfi_def_cfa_register %rbp
	pushq	%rbx
	pushq	%rax
	.cfi_offset %rbx, -24
	movq	%rdi, %rbx
Ltmp398:
	.loc	16 373 18 prologue_end
	movq	(%rdi), %rdi
Ltmp399:
	.loc	17 78 17
	callq	_pthread_mutex_destroy
Ltmp400:
	.loc	18 178 1
	movq	(%rbx), %rdi
Ltmp401:
	.loc	15 102 5
	movl	$64, %esi
	movl	$8, %edx
	addq	$8, %rsp
	popq	%rbx
Ltmp402:
	popq	%rbp
	jmp	___rust_dealloc
Ltmp403:
Lfunc_end14:
	.cfi_endproc

	.p2align	4, 0x90
__ZN4core3ptr13drop_in_place17h32275ec3e919b00cE:
Lfunc_begin15:
	.loc	18 178 0
	.cfi_startproc
	pushq	%rbp
	.cfi_def_cfa_offset 16
	.cfi_offset %rbp, -16
	movq	%rsp, %rbp
	.cfi_def_cfa_register %rbp
	pushq	%r14
	pushq	%rbx
	.cfi_offset %rbx, -32
	.cfi_offset %r14, -24
	movq	%rdi, %rbx
Ltmp404:
	.loc	35 34 13 prologue_end
	cmpb	$0, 8(%rdi)
	.loc	35 34 12 is_stmt 0
	jne	LBB15_3
Ltmp405:
	.loc	16 0 0
	movq	(%rbx), %r14
Ltmp406:
	.loc	30 732 5 is_stmt 1
	callq	__ZN3std9panicking9panicking17h6f800ddc6c0d9b77E
Ltmp407:
	.loc	35 34 12
	testb	%al, %al
	je	LBB15_3
Ltmp408:
	.loc	29 2265 20
	movb	$1, 8(%r14)
Ltmp409:
LBB15_3:
	.loc	16 446 13
	movq	(%rbx), %rax
	movq	(%rax), %rdi
Ltmp410:
	.loc	17 68 17
	popq	%rbx
Ltmp411:
	popq	%r14
	popq	%rbp
	jmp	_pthread_mutex_unlock
Ltmp412:
Lfunc_end15:
	.cfi_endproc

	.p2align	4, 0x90
__ZN4core3ptr13drop_in_place17h4583eaa6ef2ea393E:
Lfunc_begin16:
	.loc	18 178 0
	.cfi_startproc
	.cfi_personality 155, _rust_eh_personality
	.cfi_lsda 16, Lexception2
	pushq	%rbp
	.cfi_def_cfa_offset 16
	.cfi_offset %rbp, -16
	movq	%rsp, %rbp
	.cfi_def_cfa_register %rbp
	pushq	%r14
	pushq	%rbx
	.cfi_offset %rbx, -32
	.cfi_offset %r14, -24
	movq	%rdi, %rbx
Ltmp416:
Ltmp413:
	.loc	18 178 1 prologue_end
	callq	__ZN69_$LT$std..sync..condvar..Condvar$u20$as$u20$core..ops..drop..Drop$GT$4drop17h586207405bc4e99fE
Ltmp414:
Ltmp417:
	.loc	18 178 1 is_stmt 0
	movq	(%rbx), %rdi
Ltmp418:
	.loc	15 102 5 is_stmt 1
	movl	$48, %esi
	movl	$8, %edx
	popq	%rbx
Ltmp419:
	popq	%r14
	popq	%rbp
	jmp	___rust_dealloc
Ltmp420:
LBB16_2:
Ltmp415:
	.loc	15 0 5 is_stmt 0
	movq	%rax, %r14
	.loc	18 178 1 is_stmt 1
	movq	%rbx, %rdi
	callq	__ZN4core3ptr13drop_in_place17h81347d47c4355550E
	movq	%r14, %rdi
	callq	__Unwind_Resume
	ud2
Ltmp421:
Lfunc_end16:
	.cfi_endproc
	.section	__TEXT,__gcc_except_tab
	.p2align	2
GCC_except_table16:
Lexception2:
	.byte	255
	.byte	255
	.byte	1
	.uleb128 Lcst_end2-Lcst_begin2
Lcst_begin2:
	.uleb128 Ltmp413-Lfunc_begin16
	.uleb128 Ltmp414-Ltmp413
	.uleb128 Ltmp415-Lfunc_begin16
	.byte	0
	.uleb128 Ltmp414-Lfunc_begin16
	.uleb128 Lfunc_end16-Ltmp414
	.byte	0
	.byte	0
Lcst_end2:
	.p2align	2

	.section	__TEXT,__text,regular,pure_instructions
	.p2align	4, 0x90
__ZN4core3ptr13drop_in_place17h6dc32268dd68f316E:
Lfunc_begin17:
	.loc	18 178 0
	.cfi_startproc
	pushq	%rbp
	.cfi_def_cfa_offset 16
	.cfi_offset %rbp, -16
	movq	%rsp, %rbp
	.cfi_def_cfa_register %rbp
	pushq	%rbx
	pushq	%rax
	.cfi_offset %rbx, -24
	movq	%rdi, %rbx
Ltmp422:
	.loc	13 932 9 prologue_end
	movq	16(%rdi), %rcx
	testq	%rcx, %rcx
Ltmp423:
	.loc	13 1037 9
	je	LBB17_6
Ltmp424:
	.loc	13 919 9
	leaq	1(%rcx), %rax
Ltmp425:
	.loc	13 0 9 is_stmt 0
	movl	$16, %edx
Ltmp426:
	.loc	19 250 85 is_stmt 1
	xorl	%esi, %esi
Ltmp427:
	.loc	12 3688 26
	mulq	%rdx
Ltmp428:
	.loc	19 250 85
	setno	%dl
Ltmp429:
	.loc	13 223 48
	jo	LBB17_2
Ltmp430:
	.loc	13 0 0 is_stmt 0
	movb	%dl, %sil
	shlq	$3, %rsi
Ltmp431:
	.loc	12 3343 17 is_stmt 1
	leaq	16(%rcx,%rsi), %rdx
Ltmp432:
	.loc	13 233 59
	addq	$17, %rcx
Ltmp433:
	.loc	19 212 72
	negq	%rsi
Ltmp434:
	.loc	19 212 30 is_stmt 0
	andq	%rdx, %rsi
Ltmp435:
	.loc	12 3343 17 is_stmt 1
	subq	%rcx, %rsi
Ltmp436:
	.loc	12 3632 30
	addq	%rcx, %rsi
Ltmp437:
	.loc	19 308 83
	jae	LBB17_4
Ltmp438:
LBB17_2:
	.loc	19 0 83 is_stmt 0
	xorl	%edx, %edx
	jmp	LBB17_5
Ltmp439:
LBB17_4:
	.loc	12 3632 30 is_stmt 1
	leaq	(%rsi,%rax), %rcx
	xorl	%edi, %edi
	cmpq	$-15, %rcx
	setb	%dil
Ltmp440:
	.loc	19 309 88
	shlq	$4, %rdi
	xorl	%edx, %edx
Ltmp441:
	.loc	12 3632 30
	addq	%rax, %rsi
Ltmp442:
	.loc	19 309 88
	cmovaeq	%rdi, %rdx
Ltmp443:
LBB17_5:
	.loc	13 427 17
	movq	24(%rbx), %rdi
Ltmp444:
	.loc	15 102 5
	callq	___rust_dealloc
Ltmp445:
LBB17_6:
	.loc	18 178 1
	movq	64(%rbx), %rsi
Ltmp446:
	.loc	20 200 40
	testq	%rsi, %rsi
	.loc	20 200 9 is_stmt 0
	je	LBB17_9
Ltmp447:
	.loc	18 0 0
	movq	56(%rbx), %rdi
Ltmp448:
	.loc	20 532 16 is_stmt 1
	testq	%rdi, %rdi
Ltmp449:
	je	LBB17_9
Ltmp450:
	.loc	20 0 0 is_stmt 0
	shlq	$3, %rsi
Ltmp451:
	.loc	20 532 16
	testq	%rsi, %rsi
	je	LBB17_9
Ltmp452:
	.loc	15 102 5 is_stmt 1
	movl	$8, %edx
	addq	$8, %rsp
	popq	%rbx
Ltmp453:
	popq	%rbp
	jmp	___rust_dealloc
Ltmp454:
LBB17_9:
	.loc	18 178 1
	addq	$8, %rsp
	popq	%rbx
Ltmp455:
	popq	%rbp
	retq
Ltmp456:
Lfunc_end17:
	.cfi_endproc

	.p2align	4, 0x90
__ZN4core3ptr13drop_in_place17h81347d47c4355550E:
Lfunc_begin18:
	.loc	18 178 0
	.cfi_startproc
	pushq	%rbp
	.cfi_def_cfa_offset 16
	.cfi_offset %rbp, -16
	movq	%rsp, %rbp
	.cfi_def_cfa_register %rbp
Ltmp457:
	.loc	18 178 1 prologue_end
	movq	(%rdi), %rdi
Ltmp458:
	.loc	15 102 5
	movl	$48, %esi
	movl	$8, %edx
	popq	%rbp
	jmp	___rust_dealloc
Ltmp459:
Lfunc_end18:
	.cfi_endproc

	.p2align	4, 0x90
__ZN4core3ptr13drop_in_place17h90956be0f796e27dE:
Lfunc_begin19:
	.loc	18 178 0
	.cfi_startproc
	pushq	%rbp
	.cfi_def_cfa_offset 16
	.cfi_offset %rbp, -16
	movq	%rsp, %rbp
	.cfi_def_cfa_register %rbp
	pushq	%r14
	pushq	%rbx
	.cfi_offset %rbx, -32
	.cfi_offset %r14, -24
	movq	%rdi, %rbx
Ltmp460:
	.loc	35 34 13 prologue_end
	cmpb	$0, 8(%rdi)
	.loc	35 34 12 is_stmt 0
	jne	LBB19_3
Ltmp461:
	.loc	16 0 0
	movq	(%rbx), %r14
Ltmp462:
	.loc	30 732 5 is_stmt 1
	callq	__ZN3std9panicking9panicking17h6f800ddc6c0d9b77E
Ltmp463:
	.loc	35 34 12
	testb	%al, %al
	je	LBB19_3
Ltmp464:
	.loc	29 2265 20
	movb	$1, 8(%r14)
Ltmp465:
LBB19_3:
	.loc	16 446 13
	movq	(%rbx), %rax
	movq	(%rax), %rdi
Ltmp466:
	.loc	17 68 17
	popq	%rbx
Ltmp467:
	popq	%r14
	popq	%rbp
	jmp	_pthread_mutex_unlock
Ltmp468:
Lfunc_end19:
	.cfi_endproc

	.p2align	4, 0x90
__ZN4core3ptr13drop_in_place17hb3bcb213f8979db1E:
Lfunc_begin20:
	.loc	18 178 0
	.cfi_startproc
	pushq	%rbp
	.cfi_def_cfa_offset 16
	.cfi_offset %rbp, -16
	movq	%rsp, %rbp
	.cfi_def_cfa_register %rbp
Ltmp469:
	.loc	28 1346 12 prologue_end
	movq	(%rdi), %rax
Ltmp470:
	.loc	29 2314 20
	lock		decq	(%rax)
Ltmp471:
	.loc	28 1346 9
	jne	LBB20_1
Ltmp472:
	.loc	29 2563 24
	##MEMBARRIER
Ltmp473:
	.loc	28 1381 13
	popq	%rbp
	jmp	__ZN5alloc4sync12Arc$LT$T$GT$9drop_slow17he02dfe715103c0a7E
Ltmp474:
LBB20_1:
	.loc	18 178 1
	popq	%rbp
	retq
Ltmp475:
Lfunc_end20:
	.cfi_endproc

	.p2align	4, 0x90
__ZN4core3ptr13drop_in_place17hd68edae123b4cef3E:
Lfunc_begin21:
	.loc	18 178 0
	.cfi_startproc
	pushq	%rbp
	.cfi_def_cfa_offset 16
	.cfi_offset %rbp, -16
	movq	%rsp, %rbp
	.cfi_def_cfa_register %rbp
Ltmp476:
	.loc	18 178 1 prologue_end
	movq	(%rdi), %rdi
Ltmp477:
	.loc	15 102 5
	movl	$64, %esi
	movl	$8, %edx
	popq	%rbp
	jmp	___rust_dealloc
Ltmp478:
Lfunc_end21:
	.cfi_endproc

	.p2align	4, 0x90
__ZN4core3ptr13drop_in_place17hd7c96cb3565fd856E:
Lfunc_begin22:
	.loc	18 178 0
	.cfi_startproc
	pushq	%rbp
	.cfi_def_cfa_offset 16
	.cfi_offset %rbp, -16
	movq	%rsp, %rbp
	.cfi_def_cfa_register %rbp
	pushq	%rbx
	pushq	%rax
	.cfi_offset %rbx, -24
	movq	%rdi, %rbx
Ltmp479:
	.loc	13 716 61 prologue_end
	movq	(%rdi), %rax
	movq	(%rax), %rdi
	.loc	13 716 37 is_stmt 0
	callq	__ZN9hashbrown3raw23bucket_mask_to_capacity17h4bf1081b6c8626a8E
	.loc	13 716 82
	movq	(%rbx), %rcx
	.loc	13 716 17
	subq	32(%rcx), %rax
	movq	%rax, 24(%rcx)
Ltmp480:
	.loc	18 178 1 is_stmt 1
	addq	$8, %rsp
	popq	%rbx
Ltmp481:
	popq	%rbp
	retq
Ltmp482:
Lfunc_end22:
	.cfi_endproc
	.file	43 "/Users/runner/.cargo/registry/src/github.com-1ecc6299db9ec823/hashbrown-0.6.2/src/scopeguard.rs"

	.p2align	4, 0x90
__ZN4core3ptr13drop_in_place17he1d8ccd08b28b06fE:
Lfunc_begin23:
	.loc	18 178 0
	.cfi_startproc
	.cfi_personality 155, _rust_eh_personality
	.cfi_lsda 16, Lexception3
	pushq	%rbp
	.cfi_def_cfa_offset 16
	.cfi_offset %rbp, -16
	movq	%rsp, %rbp
	.cfi_def_cfa_register %rbp
	pushq	%r14
	pushq	%rbx
	.cfi_offset %rbx, -32
	.cfi_offset %r14, -24
	movq	%rdi, %rbx
Ltmp486:
Ltmp483:
	.loc	18 178 1 prologue_end
	callq	__ZN86_$LT$crossbeam_utils..sync..wait_group..WaitGroup$u20$as$u20$core..ops..drop..Drop$GT$4drop17h44c77ff6ba8a0acdE
Ltmp484:
Ltmp487:
	.loc	28 1346 12
	movq	(%rbx), %rax
Ltmp488:
	.loc	29 2314 20
	lock		decq	(%rax)
Ltmp489:
	.loc	28 1346 9
	jne	LBB23_2
Ltmp490:
	.loc	29 2563 24
	##MEMBARRIER
Ltmp491:
	.loc	28 1381 13
	movq	%rbx, %rdi
	popq	%rbx
Ltmp492:
	popq	%r14
	popq	%rbp
	jmp	__ZN5alloc4sync12Arc$LT$T$GT$9drop_slow17h9bead3a352a5adf0E
Ltmp493:
LBB23_2:
	.loc	18 178 1
	popq	%rbx
Ltmp494:
	popq	%r14
	popq	%rbp
	retq
LBB23_3:
Ltmp495:
Ltmp485:
	.loc	18 0 1 is_stmt 0
	movq	%rax, %r14
	.loc	18 178 1
	movq	%rbx, %rdi
	callq	__ZN4core3ptr13drop_in_place17hfac8a02a453e0c83E
	movq	%r14, %rdi
	callq	__Unwind_Resume
	ud2
Ltmp496:
Lfunc_end23:
	.cfi_endproc
	.section	__TEXT,__gcc_except_tab
	.p2align	2
GCC_except_table23:
Lexception3:
	.byte	255
	.byte	255
	.byte	1
	.uleb128 Lcst_end3-Lcst_begin3
Lcst_begin3:
	.uleb128 Ltmp483-Lfunc_begin23
	.uleb128 Ltmp484-Ltmp483
	.uleb128 Ltmp485-Lfunc_begin23
	.byte	0
	.uleb128 Ltmp484-Lfunc_begin23
	.uleb128 Lfunc_end23-Ltmp484
	.byte	0
	.byte	0
Lcst_end3:
	.p2align	2

	.section	__TEXT,__text,regular,pure_instructions
	.p2align	4, 0x90
__ZN4core3ptr13drop_in_place17hfac8a02a453e0c83E:
Lfunc_begin24:
	.loc	18 178 0 is_stmt 1
	.cfi_startproc
	pushq	%rbp
	.cfi_def_cfa_offset 16
	.cfi_offset %rbp, -16
	movq	%rsp, %rbp
	.cfi_def_cfa_register %rbp
Ltmp497:
	.loc	28 1346 12 prologue_end
	movq	(%rdi), %rax
Ltmp498:
	.loc	29 2314 20
	lock		decq	(%rax)
Ltmp499:
	.loc	28 1346 9
	jne	LBB24_1
Ltmp500:
	.loc	29 2563 24
	##MEMBARRIER
Ltmp501:
	.loc	28 1381 13
	popq	%rbp
	jmp	__ZN5alloc4sync12Arc$LT$T$GT$9drop_slow17h9bead3a352a5adf0E
Ltmp502:
LBB24_1:
	.loc	18 178 1
	popq	%rbp
	retq
Ltmp503:
Lfunc_end24:
	.cfi_endproc

	.p2align	4, 0x90
__ZN58_$LT$std..thread..ThreadId$u20$as$u20$core..hash..Hash$GT$4hash17ha60b730ea0aac3adE:
Lfunc_begin25:
	.loc	30 1053 0
	.cfi_startproc
	pushq	%rbp
	.cfi_def_cfa_offset 16
	.cfi_offset %rbp, -16
	movq	%rsp, %rbp
	.cfi_def_cfa_register %rbp
	pushq	%rax
Ltmp504:
	.file	44 "/rustc/a74d1862d4d87a56244958416fd05976c58ca1a8/src/libcore/hash/mod.rs"
	.loc	44 311 21 prologue_end
	movq	%rdi, -8(%rbp)
Ltmp505:
	.loc	32 260 9
	addq	$8, 16(%rsi)
Ltmp506:
	.loc	32 264 12
	movq	64(%rsi), %r8
	testq	%r8, %r8
	.loc	32 264 9 is_stmt 0
	je	LBB25_1
Ltmp507:
	.loc	32 0 9
	movl	$8, %edx
	.loc	32 265 13 is_stmt 1
	movl	$8, %r10d
	subq	%r8, %r10
Ltmp508:
	.file	45 "/rustc/a74d1862d4d87a56244958416fd05976c58ca1a8/src/libcore/cmp.rs"
	.loc	45 951 9
	cmpq	$8, %r10
	.loc	45 0 0 is_stmt 0
	cmovbq	%r10, %rdx
Ltmp509:
	xorl	%r9d, %r9d
Ltmp510:
	xorl	%eax, %eax
	cmpq	$3, %rdx
	seta	%al
Ltmp511:
	.loc	32 132 5 is_stmt 1
	movl	%edi, %ecx
	cmovaq	%rcx, %r9
Ltmp512:
	.loc	32 136 8
	leaq	1(,%rax,4), %rcx
	.loc	32 132 5
	shlq	$2, %rax
Ltmp513:
	.loc	32 136 8
	cmpq	%rdx, %rcx
	.loc	32 136 5 is_stmt 0
	jae	LBB25_4
Ltmp514:
	.loc	7 2058 5 is_stmt 1
	movzwl	-8(%rbp,%rax), %edi
Ltmp515:
	.loc	32 137 62
	leal	(,%rax,8), %ecx
	.loc	32 137 16 is_stmt 0
	shlq	%cl, %rdi
	.loc	32 137 9
	orq	%rdi, %r9
Ltmp516:
	.loc	32 138 9 is_stmt 1
	orq	$2, %rax
Ltmp517:
LBB25_4:
	.loc	32 140 8
	cmpq	%rdx, %rax
	.loc	32 140 5 is_stmt 0
	jae	LBB25_6
Ltmp518:
	.loc	32 141 17 is_stmt 1
	movzbl	-8(%rbp,%rax), %edx
Ltmp519:
	.loc	32 141 58 is_stmt 0
	shll	$3, %eax
Ltmp520:
	.loc	32 141 16
	movl	%eax, %ecx
	shlq	%cl, %rdx
	.loc	32 141 9
	orq	%rdx, %r9
Ltmp521:
LBB25_6:
	.loc	32 267 84 is_stmt 1
	leal	(,%r8,8), %ecx
	.loc	32 267 26 is_stmt 0
	shlq	%cl, %r9
	.loc	32 267 13
	orq	56(%rsi), %r9
	movq	%r9, 56(%rsi)
	.loc	32 268 16 is_stmt 1
	cmpq	$8, %r8
	.loc	32 268 13 is_stmt 0
	jbe	LBB25_7
Ltmp522:
	.loc	32 269 17 is_stmt 1
	addq	$8, %r8
	.loc	32 0 0 is_stmt 0
	movq	%r8, 64(%rsi)
Ltmp523:
	.loc	30 1053 42 is_stmt 1
	addq	$8, %rsp
	popq	%rbp
	retq
Ltmp524:
LBB25_1:
	.loc	30 0 42 is_stmt 0
	xorl	%r10d, %r10d
	jmp	LBB25_8
Ltmp525:
LBB25_7:
	movq	48(%rsi), %rcx
Ltmp526:
	.loc	32 272 17 is_stmt 1
	xorq	%r9, %rcx
Ltmp527:
	.loc	32 85 46
	movq	40(%rsi), %rdx
Ltmp528:
	.loc	32 0 46 is_stmt 0
	movq	24(%rsi), %rax
Ltmp529:
	.loc	12 3320 17 is_stmt 1
	addq	%rdx, %rax
Ltmp530:
	.loc	12 2704 17
	rolq	$13, %rdx
Ltmp531:
	.loc	32 85 35
	xorq	%rax, %rdx
Ltmp532:
	.loc	12 2704 17
	rolq	$32, %rax
Ltmp533:
	.loc	12 0 17 is_stmt 0
	movq	32(%rsi), %rdi
Ltmp534:
	.loc	12 3320 17 is_stmt 1
	addq	%rcx, %rdi
Ltmp535:
	.loc	12 2704 17
	rolq	$16, %rcx
Ltmp536:
	.loc	32 85 57
	xorq	%rdi, %rcx
Ltmp537:
	.loc	12 3320 17
	addq	%rcx, %rax
Ltmp538:
	.loc	12 2704 17
	rolq	$21, %rcx
Ltmp539:
	.loc	32 85 35
	xorq	%rax, %rcx
	movq	%rcx, 48(%rsi)
Ltmp540:
	.loc	12 3320 17
	addq	%rdx, %rdi
Ltmp541:
	.loc	12 2704 17
	rolq	$17, %rdx
Ltmp542:
	.loc	32 85 57
	xorq	%rdi, %rdx
	movq	%rdx, 40(%rsi)
Ltmp543:
	.loc	12 2704 17
	rolq	$32, %rdi
Ltmp544:
	.loc	32 100 9
	movq	%rdi, 32(%rsi)
Ltmp545:
	.loc	32 274 17
	xorq	%r9, %rax
	movq	%rax, 24(%rsi)
	.loc	32 275 17
	movq	$0, 64(%rsi)
Ltmp546:
LBB25_8:
	.loc	32 0 17 is_stmt 0
	movl	$8, %r9d
	.loc	32 280 19 is_stmt 1
	subq	%r10, %r9
Ltmp547:
	.loc	32 281 20
	movl	%r9d, %r8d
	andl	$7, %r8d
Ltmp548:
	.loc	32 284 19
	subq	%r8, %r9
Ltmp549:
	.loc	32 284 15 is_stmt 0
	cmpq	%r9, %r10
	.loc	32 284 9
	jae	LBB25_12
Ltmp550:
	.loc	32 290 13 is_stmt 1
	movq	48(%rsi), %rax
Ltmp551:
	.loc	32 85 35
	movq	24(%rsi), %rdi
	.loc	32 85 57 is_stmt 0
	movq	32(%rsi), %rcx
	.loc	32 85 46
	movq	40(%rsi), %rdx
Ltmp552:
	.p2align	4, 0x90
LBB25_10:
	.loc	12 3320 17 is_stmt 1
	addq	%rdx, %rdi
Ltmp553:
	.loc	12 2704 17
	rolq	$13, %rdx
Ltmp554:
	.loc	7 2058 5
	movq	-8(%rbp,%r10), %r11
Ltmp555:
	.loc	32 85 35
	xorq	%rdi, %rdx
Ltmp556:
	.loc	12 2704 17
	rolq	$32, %rdi
Ltmp557:
	.loc	32 290 13
	xorq	%r11, %rax
Ltmp558:
	.loc	12 3320 17
	addq	%rax, %rcx
Ltmp559:
	.loc	12 2704 17
	rolq	$16, %rax
Ltmp560:
	.loc	32 85 57
	xorq	%rcx, %rax
Ltmp561:
	.loc	12 3320 17
	addq	%rax, %rdi
Ltmp562:
	.loc	12 2704 17
	rolq	$21, %rax
Ltmp563:
	.loc	12 3320 17
	addq	%rdx, %rcx
Ltmp564:
	.loc	12 2704 17
	rolq	$17, %rdx
Ltmp565:
	.loc	32 85 57
	xorq	%rcx, %rdx
Ltmp566:
	.loc	12 2704 17
	rolq	$32, %rcx
Ltmp567:
	.loc	32 85 35
	xorq	%rdi, %rax
Ltmp568:
	.loc	32 292 13
	xorq	%r11, %rdi
	.loc	32 294 13
	addq	$8, %r10
Ltmp569:
	.loc	32 284 15
	cmpq	%r9, %r10
	.loc	32 284 9 is_stmt 0
	jb	LBB25_10
Ltmp570:
	.loc	32 290 13 is_stmt 1
	movq	%rax, 48(%rsi)
Ltmp571:
	.loc	32 85 35
	movq	%rdi, 24(%rsi)
	.loc	32 85 46 is_stmt 0
	movq	%rdx, 40(%rsi)
	.loc	32 85 57
	movq	%rcx, 32(%rsi)
Ltmp572:
LBB25_12:
	.loc	32 132 8 is_stmt 1
	cmpq	$4, %r8
	.loc	32 132 5 is_stmt 0
	jb	LBB25_13
Ltmp573:
	.loc	7 2058 5 is_stmt 1
	movl	-8(%rbp,%r10), %edi
Ltmp574:
	.loc	7 0 5 is_stmt 0
	movl	$4, %eax
Ltmp575:
	.loc	32 136 8 is_stmt 1
	movq	%rax, %rcx
	orq	$1, %rcx
	cmpq	%r8, %rcx
	.loc	32 136 5 is_stmt 0
	jb	LBB25_16
	jmp	LBB25_17
Ltmp576:
LBB25_13:
	.loc	32 0 5
	xorl	%edi, %edi
	xorl	%eax, %eax
Ltmp577:
	.loc	32 136 8
	movq	%rax, %rcx
	orq	$1, %rcx
	cmpq	%r8, %rcx
	.loc	32 136 5
	jae	LBB25_17
Ltmp578:
LBB25_16:
	.loc	32 137 35 is_stmt 1
	leaq	(%rax,%r10), %rcx
Ltmp579:
	.loc	7 2058 5
	movzwl	-8(%rbp,%rcx), %edx
Ltmp580:
	.loc	32 137 62
	leal	(,%rax,8), %ecx
Ltmp581:
	.loc	32 137 16 is_stmt 0
	shlq	%cl, %rdx
	.loc	32 137 9
	orq	%rdx, %rdi
Ltmp582:
	.loc	32 138 9 is_stmt 1
	orq	$2, %rax
Ltmp583:
LBB25_17:
	.loc	32 140 8
	cmpq	%r8, %rax
	.loc	32 140 5 is_stmt 0
	jae	LBB25_19
Ltmp584:
	.loc	32 141 36 is_stmt 1
	addq	%rax, %r10
Ltmp585:
	.loc	32 141 17 is_stmt 0
	movzbl	-8(%rbp,%r10), %edx
	.loc	32 141 58
	shll	$3, %eax
Ltmp586:
	.loc	32 141 16
	movl	%eax, %ecx
	shlq	%cl, %rdx
	.loc	32 141 9
	orq	%rdx, %rdi
Ltmp587:
LBB25_19:
	.loc	32 300 9 is_stmt 1
	movq	%rdi, 56(%rsi)
Ltmp588:
	.loc	32 0 0 is_stmt 0
	movq	%r8, 64(%rsi)
Ltmp589:
	.loc	30 1053 42 is_stmt 1
	addq	$8, %rsp
	popq	%rbp
	retq
Ltmp590:
Lfunc_end25:
	.cfi_endproc

	.p2align	4, 0x90
__ZN5alloc4sync12Arc$LT$T$GT$9drop_slow17h9bead3a352a5adf0E:
Lfunc_begin26:
	.loc	28 866 0
	.cfi_startproc
	.cfi_personality 155, _rust_eh_personality
	.cfi_lsda 16, Lexception4
	pushq	%rbp
	.cfi_def_cfa_offset 16
	.cfi_offset %rbp, -16
	movq	%rsp, %rbp
	.cfi_def_cfa_register %rbp
	pushq	%r15
	pushq	%r14
	pushq	%rbx
	pushq	%rax
	.cfi_offset %rbx, -40
	.cfi_offset %r14, -32
	.cfi_offset %r15, -24
	movq	%rdi, %r14
Ltmp594:
	.loc	28 869 33 prologue_end
	movq	(%rdi), %rbx
	.loc	28 869 28 is_stmt 0
	leaq	16(%rbx), %r15
Ltmp595:
Ltmp591:
	.loc	18 178 1 is_stmt 1
	movq	%r15, %rdi
	callq	__ZN69_$LT$std..sync..condvar..Condvar$u20$as$u20$core..ops..drop..Drop$GT$4drop17h586207405bc4e99fE
Ltmp592:
Ltmp596:
	.loc	18 178 1 is_stmt 0
	movq	16(%rbx), %rdi
Ltmp597:
	.loc	15 102 5 is_stmt 1
	movl	$48, %esi
	movl	$8, %edx
	callq	___rust_dealloc
Ltmp598:
	.loc	16 373 18
	movq	32(%rbx), %rdi
Ltmp599:
	.loc	17 78 17
	callq	_pthread_mutex_destroy
Ltmp600:
	.loc	18 178 1
	movq	32(%rbx), %rdi
Ltmp601:
	.loc	15 102 5
	movl	$64, %esi
	movl	$8, %edx
	callq	___rust_dealloc
Ltmp602:
	.loc	28 871 12
	movq	(%r14), %rax
Ltmp603:
	.loc	29 2314 20
	lock		decq	8(%rax)
Ltmp604:
	.loc	28 871 9
	jne	LBB26_2
Ltmp605:
	.loc	29 2563 24
	##MEMBARRIER
Ltmp606:
	.loc	28 873 28
	movq	(%r14), %rdi
Ltmp607:
	.loc	15 102 5
	movl	$56, %esi
	movl	$8, %edx
	addq	$8, %rsp
	popq	%rbx
	popq	%r14
Ltmp608:
	popq	%r15
	popq	%rbp
	jmp	___rust_dealloc
Ltmp609:
LBB26_2:
	.loc	28 875 6
	addq	$8, %rsp
	popq	%rbx
	popq	%r14
Ltmp610:
	popq	%r15
	popq	%rbp
	retq
LBB26_3:
Ltmp611:
Ltmp593:
	.loc	28 0 6 is_stmt 0
	movq	%rax, %r14
Ltmp612:
	.loc	18 178 1 is_stmt 1
	movq	%r15, %rdi
	callq	__ZN4core3ptr13drop_in_place17h81347d47c4355550E
Ltmp613:
	.loc	18 178 1 is_stmt 0
	addq	$32, %rbx
	movq	%rbx, %rdi
	callq	__ZN4core3ptr13drop_in_place17h2d4fa9f07566d3f3E
	movq	%r14, %rdi
	callq	__Unwind_Resume
	ud2
Ltmp614:
Lfunc_end26:
	.cfi_endproc
	.section	__TEXT,__gcc_except_tab
	.p2align	2
GCC_except_table26:
Lexception4:
	.byte	255
	.byte	255
	.byte	1
	.uleb128 Lcst_end4-Lcst_begin4
Lcst_begin4:
	.uleb128 Ltmp591-Lfunc_begin26
	.uleb128 Ltmp592-Ltmp591
	.uleb128 Ltmp593-Lfunc_begin26
	.byte	0
	.uleb128 Ltmp592-Lfunc_begin26
	.uleb128 Lfunc_end26-Ltmp592
	.byte	0
	.byte	0
Lcst_end4:
	.p2align	2

	.section	__TEXT,__text,regular,pure_instructions
	.p2align	4, 0x90
__ZN5alloc4sync12Arc$LT$T$GT$9drop_slow17he02dfe715103c0a7E:
Lfunc_begin27:
	.loc	28 866 0 is_stmt 1
	.cfi_startproc
	.cfi_personality 155, _rust_eh_personality
	.cfi_lsda 16, Lexception5
	pushq	%rbp
	.cfi_def_cfa_offset 16
	.cfi_offset %rbp, -16
	movq	%rsp, %rbp
	.cfi_def_cfa_register %rbp
	pushq	%r14
	pushq	%rbx
	.cfi_offset %rbx, -32
	.cfi_offset %r14, -24
	movq	%rdi, %r14
Ltmp618:
	.loc	28 869 33 prologue_end
	movq	(%rdi), %rbx
Ltmp619:
	.loc	18 178 1
	movq	16(%rbx), %rax
Ltmp620:
	testq	%rax, %rax
	je	LBB27_3
Ltmp621:
	.file	46 "/rustc/a74d1862d4d87a56244958416fd05976c58ca1a8/src/libstd/ffi/c_str.rs"
	.loc	46 645 13
	movb	$0, (%rax)
Ltmp622:
	.loc	18 178 1
	movq	24(%rbx), %rsi
Ltmp623:
	.loc	15 185 12
	testq	%rsi, %rsi
	.loc	15 185 9 is_stmt 0
	je	LBB27_3
Ltmp624:
	.loc	18 178 1 is_stmt 1
	movq	16(%rbx), %rdi
Ltmp625:
	.loc	15 102 5
	movl	$1, %edx
	callq	___rust_dealloc
Ltmp626:
LBB27_3:
	.loc	16 373 18
	movq	48(%rbx), %rdi
Ltmp627:
	.loc	17 78 17
	callq	_pthread_mutex_destroy
Ltmp628:
	.loc	18 178 1
	movq	48(%rbx), %rdi
Ltmp629:
	.loc	15 102 5
	movl	$64, %esi
	movl	$8, %edx
	callq	___rust_dealloc
Ltmp630:
	.loc	18 178 1
	addq	$64, %rbx
Ltmp631:
Ltmp615:
	.loc	18 178 1 is_stmt 0
	movq	%rbx, %rdi
	callq	__ZN69_$LT$std..sync..condvar..Condvar$u20$as$u20$core..ops..drop..Drop$GT$4drop17h586207405bc4e99fE
Ltmp616:
Ltmp632:
	.loc	18 178 1
	movq	(%rbx), %rdi
Ltmp633:
	.loc	15 102 5 is_stmt 1
	movl	$48, %esi
	movl	$8, %edx
	callq	___rust_dealloc
Ltmp634:
	.loc	28 871 12
	movq	(%r14), %rax
Ltmp635:
	.loc	29 2314 20
	lock		decq	8(%rax)
Ltmp636:
	.loc	28 871 9
	jne	LBB27_5
Ltmp637:
	.loc	29 2563 24
	##MEMBARRIER
Ltmp638:
	.loc	28 873 28
	movq	(%r14), %rdi
Ltmp639:
	.loc	15 102 5
	movl	$80, %esi
	movl	$8, %edx
	popq	%rbx
	popq	%r14
Ltmp640:
	popq	%rbp
	jmp	___rust_dealloc
Ltmp641:
LBB27_5:
	.loc	28 875 6
	popq	%rbx
	popq	%r14
Ltmp642:
	popq	%rbp
	retq
LBB27_6:
Ltmp643:
Ltmp617:
	.loc	28 0 6 is_stmt 0
	movq	%rax, %r14
Ltmp644:
	.loc	18 178 1 is_stmt 1
	movq	%rbx, %rdi
	callq	__ZN4core3ptr13drop_in_place17h81347d47c4355550E
	movq	%r14, %rdi
	callq	__Unwind_Resume
	ud2
Ltmp645:
Lfunc_end27:
	.cfi_endproc
	.section	__TEXT,__gcc_except_tab
	.p2align	2
GCC_except_table27:
Lexception5:
	.byte	255
	.byte	255
	.byte	1
	.uleb128 Lcst_end5-Lcst_begin5
Lcst_begin5:
	.uleb128 Ltmp615-Lfunc_begin27
	.uleb128 Ltmp616-Ltmp615
	.uleb128 Ltmp617-Lfunc_begin27
	.byte	0
	.uleb128 Ltmp616-Lfunc_begin27
	.uleb128 Lfunc_end27-Ltmp616
	.byte	0
	.byte	0
Lcst_end5:
	.p2align	2

	.section	__TEXT,__text,regular,pure_instructions
	.p2align	4, 0x90
__ZN5alloc5alloc8box_free17h051d7fe2c253b271E:
Lfunc_begin28:
	.loc	15 281 0
	.cfi_startproc
	pushq	%rbp
	.cfi_def_cfa_offset 16
	.cfi_offset %rbp, -16
	movq	%rsp, %rbp
	.cfi_def_cfa_register %rbp
Ltmp646:
	.loc	15 102 5 prologue_end
	movl	$64, %esi
	movl	$8, %edx
	popq	%rbp
	jmp	___rust_dealloc
Ltmp647:
Lfunc_end28:
	.cfi_endproc

	.p2align	4, 0x90
__ZN62_$LT$core..cell..Cell$LT$T$GT$$u20$as$u20$core..fmt..Debug$GT$3fmt17h668d3051b97da767E:
Lfunc_begin29:
	.loc	40 2182 0
	.cfi_startproc
	pushq	%rbp
	.cfi_def_cfa_offset 16
	.cfi_offset %rbp, -16
	movq	%rsp, %rbp
	.cfi_def_cfa_register %rbp
	pushq	%r14
	pushq	%rbx
	subq	$32, %rsp
	.cfi_offset %rbx, -32
	.cfi_offset %r14, -24
	movq	%rdi, %rbx
Ltmp648:
	.loc	40 2183 9 prologue_end
	leaq	L___unnamed_27(%rip), %rdx
	leaq	-40(%rbp), %r14
	movl	$4, %ecx
	movq	%r14, %rdi
	callq	__ZN4core3fmt9Formatter12debug_struct17h985c0158d1fc7193E
Ltmp649:
	.loc	40 2183 48 is_stmt 0
	movl	(%rbx), %eax
	movl	%eax, -20(%rbp)
	.loc	40 2183 9
	leaq	l___unnamed_28(%rip), %rsi
	leaq	l___unnamed_8(%rip), %r8
	leaq	-20(%rbp), %rcx
	movl	$5, %edx
	movq	%r14, %rdi
	callq	__ZN4core3fmt8builders11DebugStruct5field17h9c15dc155278eed2E
	movq	%rax, %rdi
	callq	__ZN4core3fmt8builders11DebugStruct6finish17h26808393f3fed630E
	.loc	40 2184 6 is_stmt 1
	addq	$32, %rsp
	popq	%rbx
Ltmp650:
	popq	%r14
	popq	%rbp
	retq
Ltmp651:
Lfunc_end29:
	.cfi_endproc

	.p2align	4, 0x90
__ZN82_$LT$std..sys_common..poison..PoisonError$LT$T$GT$$u20$as$u20$core..fmt..Debug$GT$3fmt17h715f1c970bf55748E:
Lfunc_begin30:
	.loc	35 137 0
	.cfi_startproc
	pushq	%rbp
	.cfi_def_cfa_offset 16
	.cfi_offset %rbp, -16
	movq	%rsp, %rbp
	.cfi_def_cfa_register %rbp
	movq	%rsi, %rdx
Ltmp652:
	.loc	35 138 9 prologue_end
	leaq	l___unnamed_29(%rip), %rdi
Ltmp653:
	movl	$25, %esi
	popq	%rbp
	jmp	__ZN40_$LT$str$u20$as$u20$core..fmt..Debug$GT$3fmt17h2760aab2290546fcE
Ltmp654:
Lfunc_end30:
	.cfi_endproc

	.p2align	4, 0x90
__ZN82_$LT$std..sys_common..poison..PoisonError$LT$T$GT$$u20$as$u20$core..fmt..Debug$GT$3fmt17h7fcc0504aa1740dcE:
Lfunc_begin31:
	.loc	35 137 0
	.cfi_startproc
	pushq	%rbp
	.cfi_def_cfa_offset 16
	.cfi_offset %rbp, -16
	movq	%rsp, %rbp
	.cfi_def_cfa_register %rbp
	movq	%rsi, %rdx
Ltmp655:
	.loc	35 138 9 prologue_end
	leaq	l___unnamed_29(%rip), %rdi
Ltmp656:
	movl	$25, %esi
	popq	%rbp
	jmp	__ZN40_$LT$str$u20$as$u20$core..fmt..Debug$GT$3fmt17h2760aab2290546fcE
Ltmp657:
Lfunc_end31:
	.cfi_endproc

	.p2align	4, 0x90
__ZN91_$LT$std..panicking..begin_panic..PanicPayload$LT$A$GT$$u20$as$u20$core..panic..BoxMeUp$GT$3get17hc5551975f0e54fc8E:
Lfunc_begin32:
	.loc	39 430 0
	.cfi_startproc
	pushq	%rbp
	.cfi_def_cfa_offset 16
	.cfi_offset %rbp, -16
	movq	%rsp, %rbp
	.cfi_def_cfa_register %rbp
Ltmp658:
	.loc	39 432 17 prologue_end
	cmpq	$0, (%rdi)
	je	LBB32_2
Ltmp659:
	.loc	39 0 17 is_stmt 0
	movq	%rdi, %rax
Ltmp660:
	.loc	39 435 10 is_stmt 1
	leaq	l___unnamed_9(%rip), %rdx
	popq	%rbp
	retq
Ltmp661:
LBB32_2:
	.loc	39 433 25
	callq	__ZN3std7process5abort17h4dccaf05298ce780E
Ltmp662:
Lfunc_end32:
	.cfi_endproc

	.p2align	4, 0x90
__ZN91_$LT$std..panicking..begin_panic..PanicPayload$LT$A$GT$$u20$as$u20$core..panic..BoxMeUp$GT$8take_box17h18713048e3cccf43E:
Lfunc_begin33:
	.loc	39 417 0
	.cfi_startproc
	pushq	%rbp
	.cfi_def_cfa_offset 16
	.cfi_offset %rbp, -16
	movq	%rsp, %rbp
	.cfi_def_cfa_register %rbp
Ltmp663:
	pushq	%r14
	pushq	%rbx
	.cfi_offset %rbx, -32
	.cfi_offset %r14, -24
Ltmp664:
	.loc	7 2058 5 prologue_end
	movq	(%rdi), %rbx
Ltmp665:
	movq	8(%rdi), %r14
Ltmp666:
	.loc	7 2058 5 is_stmt 0
	movq	$0, (%rdi)
Ltmp667:
	.loc	39 424 17 is_stmt 1
	testq	%rbx, %rbx
	je	LBB33_3
Ltmp668:
	.loc	15 80 5
	movl	$16, %edi
Ltmp669:
	movl	$8, %esi
	callq	___rust_alloc
Ltmp670:
	.loc	15 269 9
	testq	%rax, %rax
	je	LBB33_4
Ltmp671:
	.file	47 "/rustc/a74d1862d4d87a56244958416fd05976c58ca1a8/src/liballoc/boxed.rs"
	.loc	47 174 13
	movq	%rbx, (%rax)
	movq	%r14, 8(%rax)
Ltmp672:
	.file	48 "/rustc/a74d1862d4d87a56244958416fd05976c58ca1a8/src/libcore/ptr/unique.rs"
	.loc	48 108 6
	leaq	l___unnamed_9(%rip), %rdx
Ltmp673:
	.loc	39 428 10
	popq	%rbx
Ltmp674:
	popq	%r14
Ltmp675:
	popq	%rbp
	retq
Ltmp676:
LBB33_3:
	.loc	39 425 25
	callq	__ZN3std7process5abort17h4dccaf05298ce780E
Ltmp677:
LBB33_4:
	.loc	15 270 19
	movl	$16, %edi
	movl	$8, %esi
	callq	__ZN5alloc5alloc18handle_alloc_error17hbc0ab0ed90816c07E
Ltmp678:
Lfunc_end33:
	.cfi_endproc

	.section	__TEXT,__literal16,16byte_literals
	.p2align	4
LCPI34_0:
	.space	16,128
LCPI34_1:
	.quad	8317987319222330741
	.quad	7816392313619706465
LCPI34_2:
	.quad	7237128888997146477
	.quad	8387220255154660723
	.section	__TEXT,__text,regular,pure_instructions
	.p2align	4, 0x90
__ZN9hashbrown3raw17RawTable$LT$T$GT$14reserve_rehash17h35cfa0b18a8a4e1eE:
Lfunc_begin34:
	.loc	13 649 0
	.cfi_startproc
	.cfi_personality 155, _rust_eh_personality
	.cfi_lsda 16, Lexception6
	pushq	%rbp
	.cfi_def_cfa_offset 16
	.cfi_offset %rbp, -16
	movq	%rsp, %rbp
	.cfi_def_cfa_register %rbp
	pushq	%r15
	pushq	%r14
	pushq	%r13
	pushq	%r12
	pushq	%rbx
	subq	$168, %rsp
	.cfi_offset %rbx, -56
	.cfi_offset %r12, -48
	.cfi_offset %r13, -40
	.cfi_offset %r14, -32
	.cfi_offset %r15, -24
	movq	%rdi, %r14
Ltmp682:
	.loc	13 655 25 prologue_end
	movq	32(%rsi), %rbx
Ltmp683:
	.loc	12 3632 30
	incq	%rbx
Ltmp684:
	.loc	8 567 13
	jne	LBB34_1
Ltmp685:
LBB34_11:
	.loc	13 0 0 is_stmt 0
	movl	$1, %edi
	callq	__ZN9hashbrown3raw11Fallibility17capacity_overflow17h8f3aa951a6447f31E
Ltmp686:
LBB34_12:
	movq	%rax, 8(%r14)
	movq	%rdx, 16(%r14)
	movq	$1, (%r14)
	jmp	LBB34_55
Ltmp687:
LBB34_1:
	movq	%rdx, %r13
Ltmp688:
	movq	%rsi, %r15
Ltmp689:
	.loc	13 660 53 is_stmt 1
	movq	(%rsi), %rdi
	.loc	13 660 29 is_stmt 0
	callq	__ZN9hashbrown3raw23bucket_mask_to_capacity17h4bf1081b6c8626a8E
Ltmp690:
	.loc	13 661 25 is_stmt 1
	movq	%rax, %rcx
	shrq	%rcx
	.loc	13 661 12 is_stmt 0
	cmpq	%rcx, %rbx
	movq	%r15, -56(%rbp)
Ltmp691:
	.loc	13 661 9
	jbe	LBB34_30
Ltmp692:
	.loc	13 670 39 is_stmt 1
	incq	%rax
Ltmp693:
	.loc	45 1017 9
	cmpq	%rax, %rbx
	.loc	45 0 0 is_stmt 0
	cmovaq	%rbx, %rax
Ltmp694:
	.loc	13 401 12 is_stmt 1
	testq	%rax, %rax
	.loc	13 401 9 is_stmt 0
	je	LBB34_13
Ltmp695:
	.loc	13 406 21 is_stmt 1
	movq	%rax, %rdi
	callq	__ZN9hashbrown3raw19capacity_to_buckets17h7a609a552b1b4f5fE
Ltmp696:
	.loc	8 567 13
	testq	%rax, %rax
	je	LBB34_11
Ltmp697:
	.loc	13 0 0 is_stmt 0
	movq	%rdx, %r12
Ltmp698:
	movl	$16, %ecx
Ltmp699:
	.loc	19 250 85 is_stmt 1
	xorl	%esi, %esi
Ltmp700:
	.loc	12 3688 26
	movq	%rdx, %rax
Ltmp701:
	mulq	%rcx
Ltmp702:
	.loc	19 250 85
	setno	%cl
Ltmp703:
	.loc	13 223 48
	jo	LBB34_11
Ltmp704:
	.loc	13 0 0 is_stmt 0
	movb	%cl, %sil
	shlq	$3, %rsi
Ltmp705:
	.loc	13 233 59 is_stmt 1
	leaq	16(%r12), %rdx
Ltmp706:
	.loc	12 3343 17
	leaq	15(%r12,%rsi), %rcx
Ltmp707:
	.loc	19 212 72
	negq	%rsi
Ltmp708:
	.loc	19 212 30 is_stmt 0
	andq	%rcx, %rsi
Ltmp709:
	.loc	12 3343 17 is_stmt 1
	subq	%rdx, %rsi
Ltmp710:
	.loc	12 3632 30
	addq	%rdx, %rsi
Ltmp711:
	.loc	19 308 83
	jb	LBB34_11
Ltmp712:
	.loc	12 3632 30
	addq	%rsi, %rax
Ltmp713:
	.loc	19 309 88
	jb	LBB34_11
Ltmp714:
	cmpq	$-16, %rax
	ja	LBB34_11
Ltmp715:
	.loc	19 0 88 is_stmt 0
	movq	%rdx, -72(%rbp)
	movq	%rsi, -80(%rbp)
Ltmp716:
	.loc	15 80 5 is_stmt 1
	movl	$16, %esi
	movq	%rax, %r15
Ltmp717:
	movq	%rax, %rdi
	callq	___rust_alloc
Ltmp718:
	.loc	8 567 13
	testq	%rax, %rax
	je	LBB34_9
Ltmp719:
	.loc	13 0 0 is_stmt 0
	movq	%rax, %rbx
Ltmp720:
	movq	%r13, -48(%rbp)
Ltmp721:
	movq	%r14, -64(%rbp)
Ltmp722:
	.loc	13 388 26 is_stmt 1
	decq	%r12
Ltmp723:
	.loc	13 390 26
	movq	%r12, %rdi
	callq	__ZN9hashbrown3raw23bucket_mask_to_capacity17h4bf1081b6c8626a8E
	movq	%rax, -88(%rbp)
	movq	-80(%rbp), %r15
Ltmp724:
	.loc	38 152 9
	addq	%rbx, %r15
Ltmp725:
	.loc	7 2205 5
	movq	%rbx, %rdi
	movl	$255, %esi
	movq	-72(%rbp), %rdx
	callq	_memset
	movq	%r15, %rsi
Ltmp726:
	.loc	7 0 5 is_stmt 0
	jmp	LBB34_14
Ltmp727:
LBB34_30:
	.loc	13 919 9 is_stmt 1
	movq	(%r15), %rax
Ltmp728:
	incq	%rax
	xorl	%ecx, %ecx
	movdqa	LCPI34_0(%rip), %xmm0
	xorl	%esi, %esi
	movq	%r15, %rbx
Ltmp729:
	.file	49 "/rustc/a74d1862d4d87a56244958416fd05976c58ca1a8/src/libcore/iter/adapters/mod.rs"
	.loc	49 551 9
	testb	$1, %sil
	jne	LBB34_34
	jmp	LBB34_32
Ltmp730:
	.p2align	4, 0x90
LBB34_36:
	.loc	13 687 49
	movq	8(%rbx), %rsi
Ltmp731:
	.loc	33 853 27
	pxor	%xmm1, %xmm1
	pcmpgtb	(%rsi,%rcx), %xmm1
Ltmp732:
	.loc	33 797 5
	por	%xmm0, %xmm1
Ltmp733:
	.loc	33 1254 5
	movdqa	%xmm1, (%rsi,%rcx)
	movb	$1, %sil
Ltmp734:
	.loc	13 0 0 is_stmt 0
	movq	%rdx, %rcx
Ltmp735:
	.loc	49 551 9 is_stmt 1
	testb	$1, %sil
	je	LBB34_32
Ltmp736:
LBB34_34:
	.loc	12 3632 30
	leaq	15(%rcx), %rdx
Ltmp737:
	.file	50 "/rustc/a74d1862d4d87a56244958416fd05976c58ca1a8/src/libcore/iter/range.rs"
	.loc	50 237 16
	incq	%rdx
Ltmp738:
	.loc	12 3632 30
	movq	%rcx, %rsi
	addq	$15, %rsi
Ltmp739:
	.loc	50 237 16
	cmovbq	%rax, %rdx
Ltmp740:
	.loc	45 1137 52
	cmpq	%rax, %rsi
Ltmp741:
	.loc	50 237 16
	cmovaeq	%rax, %rdx
Ltmp742:
	.loc	12 3632 30
	addq	$15, %rcx
Ltmp743:
	.loc	13 686 17
	jb	LBB34_37
Ltmp744:
	cmpq	%rax, %rcx
	jb	LBB34_36
	jmp	LBB34_37
Ltmp745:
	.p2align	4, 0x90
LBB34_32:
	.loc	45 1137 52
	cmpq	%rax, %rcx
Ltmp746:
	.loc	50 211 9
	jae	LBB34_37
Ltmp747:
	.loc	12 3632 30
	leaq	1(%rcx), %rdx
	jmp	LBB34_36
Ltmp748:
LBB34_37:
	.loc	13 919 9
	movq	(%rbx), %rdx
Ltmp749:
	.loc	13 0 0 is_stmt 0
	movq	8(%rbx), %rsi
Ltmp750:
	.loc	13 919 9
	incq	%rdx
Ltmp751:
	.loc	13 694 16 is_stmt 1
	cmpq	$15, %rdx
Ltmp752:
	.loc	13 694 13 is_stmt 0
	ja	LBB34_39
Ltmp753:
	.loc	38 152 9 is_stmt 1
	leaq	16(%rsi), %rdi
Ltmp754:
	.loc	7 2122 5
	callq	_memmove
Ltmp755:
	.loc	7 0 5 is_stmt 0
	jmp	LBB34_40
Ltmp756:
LBB34_39:
	.loc	7 2122 5
	movq	(%rsi), %rax
	movq	8(%rsi), %rcx
	movq	%rcx, 8(%rsi,%rdx)
	movq	%rax, (%rsi,%rdx)
Ltmp757:
LBB34_40:
	.loc	13 706 29 is_stmt 1
	movq	%rbx, -184(%rbp)
Ltmp758:
	.loc	13 919 9
	movq	(%rbx), %r15
	movq	$-1, %rdi
Ltmp759:
	incq	%r15
Ltmp760:
	.loc	50 211 9
	je	LBB34_53
Ltmp761:
	.loc	50 0 9 is_stmt 0
	movq	%r14, -64(%rbp)
Ltmp762:
	movq	(%r13), %r12
	xorl	%r13d, %r13d
Ltmp763:
	jmp	LBB34_42
Ltmp764:
	.p2align	4, 0x90
LBB34_43:
	.loc	13 728 32 is_stmt 1
	movq	16(%rbx), %rax
Ltmp765:
	.loc	13 285 9
	movq	%r14, %rcx
	shlq	$4, %rcx
	leaq	(%rax,%rcx), %rdx
Ltmp766:
	.loc	13 0 9 is_stmt 0
	movq	%rdx, -48(%rbp)
Ltmp767:
	.loc	13 729 32 is_stmt 1
	movq	(%rax,%rcx), %rdi
Ltmp768:
	.loc	26 856 47
	movq	(%r12), %rax
Ltmp769:
	movq	8(%r12), %rcx
Ltmp770:
	.loc	32 215 9
	movq	%rax, %xmm0
	pshufd	$68, %xmm0, %xmm0
	pxor	LCPI34_1(%rip), %xmm0
	.loc	32 216 9
	movq	%rcx, %xmm1
	pshufd	$68, %xmm1, %xmm1
	pxor	LCPI34_2(%rip), %xmm1
Ltmp771:
	.loc	11 2504 9
	movq	%rax, -160(%rbp)
	movq	%rcx, -152(%rbp)
	movq	$0, -144(%rbp)
	movdqu	%xmm0, -136(%rbp)
	movdqu	%xmm1, -120(%rbp)
	leaq	-104(%rbp), %rax
Ltmp772:
	movq	$0, 8(%rax)
	movq	$0, (%rax)
Ltmp773:
	.loc	26 202 5
	leaq	-160(%rbp), %rsi
	callq	__ZN58_$LT$std..thread..ThreadId$u20$as$u20$core..hash..Hash$GT$4hash17ha60b730ea0aac3adE
Ltmp774:
	.loc	32 308 24
	movq	-144(%rbp), %rdi
Ltmp775:
	.loc	32 306 25
	movq	-120(%rbp), %r8
Ltmp776:
	.loc	32 308 22
	shlq	$56, %rdi
	orq	-104(%rbp), %rdi
Ltmp777:
	.loc	32 0 22 is_stmt 0
	movq	-112(%rbp), %rcx
	movq	-136(%rbp), %rdx
Ltmp778:
	.loc	12 3320 17 is_stmt 1
	addq	%r8, %rdx
Ltmp779:
	.loc	12 2704 17
	rolq	$13, %r8
Ltmp780:
	.loc	32 310 9
	xorq	%rdi, %rcx
Ltmp781:
	.loc	32 85 35
	xorq	%rdx, %r8
Ltmp782:
	.loc	12 2704 17
	rolq	$32, %rdx
Ltmp783:
	.loc	12 0 17 is_stmt 0
	movq	-128(%rbp), %rsi
Ltmp784:
	.loc	12 3320 17 is_stmt 1
	addq	%rcx, %rsi
Ltmp785:
	.loc	12 2704 17
	rolq	$16, %rcx
Ltmp786:
	.loc	32 85 57
	xorq	%rsi, %rcx
Ltmp787:
	.loc	12 3320 17
	addq	%rcx, %rdx
Ltmp788:
	.loc	12 2704 17
	rolq	$21, %rcx
Ltmp789:
	.loc	12 3320 17
	addq	%r8, %rsi
Ltmp790:
	.loc	12 2704 17
	rolq	$17, %r8
Ltmp791:
	.loc	32 85 35
	xorq	%rdx, %rcx
Ltmp792:
	.loc	32 85 57 is_stmt 0
	xorq	%rsi, %r8
Ltmp793:
	.loc	12 2704 17 is_stmt 1
	rolq	$32, %rsi
Ltmp794:
	.loc	32 312 9
	xorq	%rdi, %rdx
Ltmp795:
	.loc	12 3320 17
	addq	%r8, %rdx
Ltmp796:
	.loc	12 2704 17
	rolq	$13, %r8
Ltmp797:
	.loc	32 85 35
	xorq	%rdx, %r8
Ltmp798:
	.loc	12 2704 17
	rolq	$32, %rdx
Ltmp799:
	.loc	32 314 9
	xorq	$255, %rsi
Ltmp800:
	.loc	12 3320 17
	addq	%rcx, %rsi
Ltmp801:
	.loc	12 2704 17
	rolq	$16, %rcx
Ltmp802:
	.loc	32 85 57
	xorq	%rsi, %rcx
Ltmp803:
	.loc	12 3320 17
	addq	%rcx, %rdx
Ltmp804:
	.loc	12 2704 17
	rolq	$21, %rcx
Ltmp805:
	.loc	12 3320 17
	addq	%r8, %rsi
Ltmp806:
	.loc	12 2704 17
	rolq	$17, %r8
Ltmp807:
	.loc	32 85 57
	xorq	%rsi, %r8
Ltmp808:
	.loc	12 2704 17
	rolq	$32, %rsi
Ltmp809:
	.loc	32 85 35
	xorq	%rdx, %rcx
Ltmp810:
	.loc	12 3320 17
	addq	%r8, %rdx
Ltmp811:
	.loc	12 2704 17
	rolq	$13, %r8
Ltmp812:
	.loc	32 85 35
	xorq	%rdx, %r8
Ltmp813:
	.loc	12 2704 17
	rolq	$32, %rdx
Ltmp814:
	.loc	12 3320 17
	addq	%rcx, %rsi
Ltmp815:
	.loc	12 2704 17
	rolq	$16, %rcx
Ltmp816:
	.loc	32 85 57
	xorq	%rsi, %rcx
Ltmp817:
	.loc	12 3320 17
	addq	%rcx, %rdx
Ltmp818:
	.loc	12 2704 17
	rolq	$21, %rcx
Ltmp819:
	.loc	12 3320 17
	addq	%r8, %rsi
Ltmp820:
	.loc	12 2704 17
	rolq	$17, %r8
Ltmp821:
	.loc	32 85 57
	xorq	%rsi, %r8
Ltmp822:
	.loc	12 2704 17
	rolq	$32, %rsi
Ltmp823:
	.loc	32 85 35
	xorq	%rdx, %rcx
Ltmp824:
	.loc	12 3320 17
	addq	%r8, %rdx
Ltmp825:
	.loc	12 2704 17
	rolq	$13, %r8
Ltmp826:
	.loc	12 3320 17
	addq	%rcx, %rsi
Ltmp827:
	.loc	12 2704 17
	rolq	$16, %rcx
Ltmp828:
	.loc	32 85 57
	xorq	%rsi, %rcx
Ltmp829:
	.loc	12 2704 17
	rolq	$21, %rcx
Ltmp830:
	.loc	32 85 35
	xorq	%rdx, %r8
Ltmp831:
	.loc	12 3320 17
	addq	%r8, %rsi
Ltmp832:
	.loc	12 2704 17
	rolq	$17, %r8
Ltmp833:
	.loc	32 317 9
	xorq	%rsi, %r8
Ltmp834:
	.loc	12 2704 17
	rolq	$32, %rsi
Ltmp835:
	.loc	32 85 35
	xorq	%rsi, %r8
Ltmp836:
	.loc	32 317 9
	xorq	%rcx, %r8
Ltmp837:
	.loc	13 490 26
	movq	(%rbx), %rsi
Ltmp838:
	.loc	13 0 0 is_stmt 0
	movq	8(%rbx), %rdx
Ltmp839:
	movq	%r8, %rcx
Ltmp840:
	xorl	%edi, %edi
Ltmp841:
	.p2align	4, 0x90
LBB34_44:
	movq	%rcx, %rbx
Ltmp842:
	andq	%rsi, %rbx
Ltmp843:
	.loc	7 2058 5 is_stmt 1
	movdqu	(%rdx,%rbx), %xmm0
Ltmp844:
	.loc	33 1401 5
	pmovmskb	%xmm0, %eax
Ltmp845:
	.loc	13 168 9
	leaq	16(%rdi,%rbx), %rcx
	.loc	13 167 9
	addq	$16, %rdi
Ltmp846:
	.loc	34 43 12
	testw	%ax, %ax
	.loc	34 43 9 is_stmt 0
	je	LBB34_44
Ltmp847:
	.loc	34 55 9 is_stmt 1
	bsfw	%ax, %ax
Ltmp848:
	movzwl	%ax, %eax
Ltmp849:
	.loc	13 534 34
	addq	%rax, %rbx
Ltmp850:
	andq	%rsi, %rbx
Ltmp851:
	.loc	13 104 5
	cmpb	$0, (%rdx,%rbx)
Ltmp852:
	.loc	13 545 21
	jns	LBB34_46
Ltmp853:
LBB34_47:
	.loc	13 491 18
	movq	%r8, %rax
	andq	%rsi, %rax
Ltmp854:
	.loc	12 3343 17
	movq	%r14, %rcx
	subq	%rax, %rcx
Ltmp855:
	.loc	12 3343 17 is_stmt 0
	movq	%rbx, %rdi
	subq	%rax, %rdi
Ltmp856:
	.loc	13 743 31 is_stmt 1
	xorq	%rcx, %rdi
	andq	%rsi, %rdi
	cmpq	$15, %rdi
	.loc	13 743 21 is_stmt 0
	jbe	LBB34_48
Ltmp857:
	.loc	13 750 37 is_stmt 1
	movb	(%rdx,%rbx), %al
Ltmp858:
	.loc	13 136 16
	shrq	$57, %r8
Ltmp859:
	.loc	12 3343 17
	leaq	-16(%rbx), %rcx
Ltmp860:
	.loc	13 518 22
	andq	%rsi, %rcx
Ltmp861:
	.loc	13 520 9
	movb	%r8b, (%rdx,%rbx)
	.loc	13 521 9
	movb	%r8b, 16(%rcx,%rdx)
Ltmp862:
	.loc	13 753 24
	cmpb	$-1, %al
	.loc	13 753 21 is_stmt 0
	je	LBB34_50
Ltmp863:
	.loc	13 0 21
	movq	-56(%rbp), %rsi
	.loc	13 765 35 is_stmt 1
	movq	16(%rsi), %rax
Ltmp864:
	.loc	13 285 9
	shlq	$4, %rbx
Ltmp865:
	.loc	7 2058 5
	movdqu	(%rax,%rbx), %xmm0
Ltmp866:
	.loc	7 0 5 is_stmt 0
	movq	-48(%rbp), %rdi
Ltmp867:
	.loc	7 2058 5
	movq	(%rdi), %rcx
	movq	8(%rdi), %rdx
	movq	%rdx, 8(%rax,%rbx)
	movq	%rcx, (%rax,%rbx)
Ltmp868:
	.loc	7 0 5
	movq	%rsi, %rbx
Ltmp869:
	.loc	18 836 42 is_stmt 1
	movdqu	%xmm0, (%rdi)
	jmp	LBB34_43
Ltmp870:
LBB34_46:
	.loc	33 1204 5
	movdqa	(%rdx), %xmm0
Ltmp871:
	.loc	33 1401 5
	pmovmskb	%xmm0, %eax
Ltmp872:
	.loc	34 55 9
	bsfw	%ax, %ax
Ltmp873:
	movzwl	%ax, %ebx
Ltmp874:
	.loc	34 0 9 is_stmt 0
	jmp	LBB34_47
Ltmp875:
	.p2align	4, 0x90
LBB34_48:
	.loc	13 136 16 is_stmt 1
	shrq	$57, %r8
Ltmp876:
	.loc	12 3343 17
	leaq	-16(%r14), %rax
Ltmp877:
	.loc	13 518 22
	andq	%rax, %rsi
Ltmp878:
	.loc	13 520 9
	movb	%r8b, (%rdx,%r14)
	.loc	13 521 9
	movb	%r8b, 16(%rsi,%rdx)
	movq	-56(%rbp), %rbx
Ltmp879:
LBB34_51:
	.loc	45 1137 52
	cmpq	%r15, %r13
Ltmp880:
	.loc	50 211 9
	je	LBB34_52
Ltmp881:
LBB34_42:
	.loc	50 0 9 is_stmt 0
	movq	%r13, %r14
Ltmp882:
	.loc	12 3632 30 is_stmt 1
	incq	%r13
Ltmp883:
	.loc	13 723 21
	movq	8(%rbx), %rax
Ltmp884:
	.loc	13 723 20 is_stmt 0
	cmpb	$-128, (%rax,%r14)
	.loc	13 723 17
	je	LBB34_43
	jmp	LBB34_51
Ltmp885:
LBB34_50:
	.loc	12 3343 17 is_stmt 1
	leaq	-16(%r14), %rax
Ltmp886:
	.loc	12 0 17 is_stmt 0
	movq	-56(%rbp), %rsi
Ltmp887:
	.loc	13 518 22 is_stmt 1
	andq	(%rsi), %rax
Ltmp888:
	.loc	13 520 10
	movq	8(%rsi), %rcx
Ltmp889:
	.loc	13 520 9 is_stmt 0
	movb	$-1, (%rcx,%r14)
	.loc	13 521 9 is_stmt 1
	movb	$-1, 16(%rax,%rcx)
Ltmp890:
	.loc	13 758 25
	movq	16(%rsi), %rax
Ltmp891:
	.loc	13 285 9
	shlq	$4, %rbx
Ltmp892:
	.loc	13 0 9 is_stmt 0
	movq	-48(%rbp), %rdx
Ltmp893:
	.loc	7 2058 5 is_stmt 1
	movq	(%rdx), %rcx
Ltmp894:
	movq	8(%rdx), %rdx
	movq	%rdx, 8(%rax,%rbx)
	movq	%rcx, (%rax,%rbx)
	movq	%rsi, %rbx
Ltmp895:
	.loc	45 1137 52
	cmpq	%r15, %r13
Ltmp896:
	.loc	50 211 9
	jne	LBB34_42
Ltmp897:
LBB34_52:
	.loc	13 771 57
	movq	(%rbx), %rdi
	movq	-64(%rbp), %r14
Ltmp898:
LBB34_53:
Ltmp679:
	.loc	13 771 33 is_stmt 0
	callq	__ZN9hashbrown3raw23bucket_mask_to_capacity17h4bf1081b6c8626a8E
Ltmp680:
Ltmp899:
	.loc	13 771 13
	subq	32(%rbx), %rax
	movq	%rax, 24(%rbx)
Ltmp900:
	.loc	13 665 13 is_stmt 1
	movq	$0, (%r14)
Ltmp901:
LBB34_55:
	.loc	13 675 6
	addq	$168, %rsp
	popq	%rbx
	popq	%r12
	popq	%r13
	popq	%r14
	popq	%r15
	popq	%rbp
	retq
Ltmp902:
LBB34_13:
	.loc	13 0 6 is_stmt 0
	movq	%r13, -48(%rbp)
Ltmp903:
	movq	%r14, -64(%rbp)
Ltmp904:
	.loc	13 364 51 is_stmt 1
	callq	__ZN9hashbrown3raw4sse25Group12static_empty17hda1daec376d651fbE
Ltmp905:
	movq	%rax, %rbx
Ltmp906:
	.loc	13 0 51 is_stmt 0
	movl	$8, %esi
	xorl	%eax, %eax
Ltmp907:
	movq	%rax, -88(%rbp)
Ltmp908:
	xorl	%r12d, %r12d
Ltmp909:
LBB34_14:
	movq	-56(%rbp), %rcx
Ltmp910:
	.loc	13 789 38 is_stmt 1
	movq	32(%rcx), %rax
	movq	%rax, -168(%rbp)
	.loc	13 798 57
	movq	%rbx, %xmm0
	movq	%r12, %xmm1
	punpcklqdq	%xmm0, %xmm1
Ltmp911:
	.loc	13 0 57 is_stmt 0
	movdqa	%xmm1, -208(%rbp)
Ltmp912:
	.loc	13 941 44 is_stmt 1
	movq	16(%rcx), %r14
Ltmp913:
	.loc	13 919 9
	movq	(%rcx), %rax
Ltmp914:
	.loc	13 943 37
	movq	8(%rcx), %r13
Ltmp915:
	.file	51 "/rustc/a74d1862d4d87a56244958416fd05976c58ca1a8/src/libcore/ptr/const_ptr.rs"
	.loc	51 158 9
	leaq	1(%rax,%r13), %rax
Ltmp916:
	.loc	33 1204 5
	movdqa	(%r13), %xmm0
Ltmp917:
	.loc	33 1401 5
	pmovmskb	%xmm0, %r15d
Ltmp918:
	.loc	34 25 17
	notl	%r15d
Ltmp919:
	.loc	51 158 9
	addq	$16, %r13
Ltmp920:
	.loc	51 0 9 is_stmt 0
	movq	-48(%rbp), %rcx
Ltmp921:
	movq	(%rcx), %rcx
	movq	%rcx, -176(%rbp)
	movq	%rsi, -80(%rbp)
	movq	%rax, -72(%rbp)
Ltmp922:
	.loc	34 43 12 is_stmt 1
	testw	%r15w, %r15w
	.loc	34 43 9 is_stmt 0
	jne	LBB34_19
Ltmp923:
	.p2align	4, 0x90
LBB34_16:
	.loc	13 1195 20 is_stmt 1
	cmpq	%rax, %r13
	.loc	13 1195 17 is_stmt 0
	jae	LBB34_24
Ltmp924:
	.loc	33 1204 5 is_stmt 1
	movdqa	(%r13), %xmm0
Ltmp925:
	.loc	33 1401 5
	pmovmskb	%xmm0, %r15d
Ltmp926:
	.loc	13 303 9
	addq	$256, %r14
Ltmp927:
	.loc	51 158 9
	addq	$16, %r13
Ltmp928:
	.loc	34 43 12
	cmpw	$-1, %r15w
	.loc	34 43 9 is_stmt 0
	je	LBB34_16
Ltmp929:
	.loc	34 25 17 is_stmt 1
	notl	%r15d
Ltmp930:
LBB34_19:
	.loc	34 55 9
	bsfw	%r15w, %ax
	movzwl	%ax, %eax
Ltmp931:
	.loc	13 303 9
	shlq	$4, %rax
	leaq	(%r14,%rax), %rcx
	movq	%rcx, -48(%rbp)
Ltmp932:
	.loc	13 807 28
	movq	(%r14,%rax), %rdi
	movq	-176(%rbp), %rcx
Ltmp933:
	.loc	26 856 47
	movq	(%rcx), %rax
Ltmp934:
	movq	8(%rcx), %rcx
Ltmp935:
	.loc	32 215 9
	movq	%rax, %xmm0
	pshufd	$68, %xmm0, %xmm0
	pxor	LCPI34_1(%rip), %xmm0
	.loc	32 216 9
	movq	%rcx, %xmm1
	pshufd	$68, %xmm1, %xmm1
	pxor	LCPI34_2(%rip), %xmm1
Ltmp936:
	.loc	11 2504 9
	movq	%rax, -160(%rbp)
	movq	%rcx, -152(%rbp)
	movq	$0, -144(%rbp)
	movdqu	%xmm0, -136(%rbp)
	movdqu	%xmm1, -120(%rbp)
	leaq	-104(%rbp), %rax
Ltmp937:
	movq	$0, 8(%rax)
	movq	$0, (%rax)
Ltmp938:
	.loc	26 202 5
	leaq	-160(%rbp), %rsi
	callq	__ZN58_$LT$std..thread..ThreadId$u20$as$u20$core..hash..Hash$GT$4hash17ha60b730ea0aac3adE
Ltmp939:
	.loc	32 308 24
	movq	-144(%rbp), %rdi
Ltmp940:
	.loc	32 306 25
	movq	-120(%rbp), %rax
Ltmp941:
	.loc	32 308 22
	shlq	$56, %rdi
	orq	-104(%rbp), %rdi
Ltmp942:
	.loc	32 0 22 is_stmt 0
	movq	-112(%rbp), %rcx
	movq	-136(%rbp), %rsi
Ltmp943:
	.loc	12 3320 17 is_stmt 1
	addq	%rax, %rsi
Ltmp944:
	.loc	12 2704 17
	rolq	$13, %rax
Ltmp945:
	.loc	32 310 9
	xorq	%rdi, %rcx
Ltmp946:
	.loc	32 85 35
	xorq	%rsi, %rax
Ltmp947:
	.loc	12 2704 17
	rolq	$32, %rsi
Ltmp948:
	.loc	12 0 17 is_stmt 0
	movq	-128(%rbp), %rdx
Ltmp949:
	.loc	12 3320 17 is_stmt 1
	addq	%rcx, %rdx
Ltmp950:
	.loc	12 2704 17
	rolq	$16, %rcx
Ltmp951:
	.loc	32 85 57
	xorq	%rdx, %rcx
Ltmp952:
	.loc	12 3320 17
	addq	%rcx, %rsi
Ltmp953:
	.loc	12 2704 17
	rolq	$21, %rcx
Ltmp954:
	.loc	12 3320 17
	addq	%rax, %rdx
Ltmp955:
	.loc	12 2704 17
	rolq	$17, %rax
Ltmp956:
	.loc	32 85 35
	xorq	%rsi, %rcx
Ltmp957:
	.loc	32 85 57 is_stmt 0
	xorq	%rdx, %rax
Ltmp958:
	.loc	12 2704 17 is_stmt 1
	rolq	$32, %rdx
Ltmp959:
	.loc	32 312 9
	xorq	%rdi, %rsi
Ltmp960:
	.loc	12 3320 17
	addq	%rax, %rsi
Ltmp961:
	.loc	12 2704 17
	rolq	$13, %rax
Ltmp962:
	.loc	32 85 35
	xorq	%rsi, %rax
Ltmp963:
	.loc	12 2704 17
	rolq	$32, %rsi
Ltmp964:
	.loc	32 314 9
	xorq	$255, %rdx
Ltmp965:
	.loc	12 3320 17
	addq	%rcx, %rdx
Ltmp966:
	.loc	12 2704 17
	rolq	$16, %rcx
Ltmp967:
	.loc	32 85 57
	xorq	%rdx, %rcx
Ltmp968:
	.loc	12 3320 17
	addq	%rcx, %rsi
Ltmp969:
	.loc	12 2704 17
	rolq	$21, %rcx
Ltmp970:
	.loc	12 3320 17
	addq	%rax, %rdx
Ltmp971:
	.loc	12 2704 17
	rolq	$17, %rax
Ltmp972:
	.loc	32 85 57
	xorq	%rdx, %rax
Ltmp973:
	.loc	12 2704 17
	rolq	$32, %rdx
Ltmp974:
	.loc	32 85 35
	xorq	%rsi, %rcx
Ltmp975:
	.loc	12 3320 17
	addq	%rax, %rsi
Ltmp976:
	.loc	12 2704 17
	rolq	$13, %rax
Ltmp977:
	.loc	32 85 35
	xorq	%rsi, %rax
Ltmp978:
	.loc	12 2704 17
	rolq	$32, %rsi
Ltmp979:
	.loc	12 3320 17
	addq	%rcx, %rdx
Ltmp980:
	.loc	12 2704 17
	rolq	$16, %rcx
Ltmp981:
	.loc	32 85 57
	xorq	%rdx, %rcx
Ltmp982:
	.loc	12 3320 17
	addq	%rcx, %rsi
Ltmp983:
	.loc	12 2704 17
	rolq	$21, %rcx
Ltmp984:
	.loc	12 3320 17
	addq	%rax, %rdx
Ltmp985:
	.loc	12 2704 17
	rolq	$17, %rax
Ltmp986:
	.loc	32 85 57
	xorq	%rdx, %rax
Ltmp987:
	.loc	12 2704 17
	rolq	$32, %rdx
Ltmp988:
	.loc	32 85 35
	xorq	%rsi, %rcx
Ltmp989:
	.loc	12 3320 17
	addq	%rax, %rsi
Ltmp990:
	.loc	12 2704 17
	rolq	$13, %rax
Ltmp991:
	.loc	32 85 35
	xorq	%rsi, %rax
Ltmp992:
	.loc	12 3320 17
	addq	%rcx, %rdx
Ltmp993:
	.loc	12 2704 17
	rolq	$16, %rcx
Ltmp994:
	.loc	32 85 57
	xorq	%rdx, %rcx
Ltmp995:
	.loc	12 2704 17
	rolq	$21, %rcx
Ltmp996:
	.loc	12 3320 17
	addq	%rax, %rdx
Ltmp997:
	.loc	12 2704 17
	rolq	$17, %rax
Ltmp998:
	.loc	12 2704 17 is_stmt 0
	movq	%rdx, %rsi
Ltmp999:
	rolq	$32, %rsi
Ltmp1000:
	.loc	32 317 9 is_stmt 1
	xorq	%rdx, %rax
Ltmp1001:
	.loc	32 85 35
	xorq	%rsi, %rax
Ltmp1002:
	.loc	32 317 9
	xorq	%rcx, %rax
Ltmp1003:
	.loc	32 0 9 is_stmt 0
	movq	%rax, %rdi
Ltmp1004:
	xorl	%edx, %edx
Ltmp1005:
	.p2align	4, 0x90
LBB34_20:
	movq	%rdi, %rcx
	andq	%r12, %rcx
Ltmp1006:
	.loc	7 2058 5 is_stmt 1
	movdqu	(%rbx,%rcx), %xmm0
Ltmp1007:
	.loc	33 1401 5
	pmovmskb	%xmm0, %esi
Ltmp1008:
	.loc	13 168 9
	leaq	16(%rdx,%rcx), %rdi
	.loc	13 167 9
	addq	$16, %rdx
Ltmp1009:
	.loc	34 43 12
	testw	%si, %si
	.loc	34 43 9 is_stmt 0
	je	LBB34_20
Ltmp1010:
	.loc	34 32 26 is_stmt 1
	leal	-1(%r15), %edx
	.loc	34 32 17 is_stmt 0
	andl	%r15d, %edx
Ltmp1011:
	.loc	34 55 9 is_stmt 1
	bsfw	%si, %si
Ltmp1012:
	movzwl	%si, %esi
Ltmp1013:
	.loc	13 534 34
	addq	%rsi, %rcx
Ltmp1014:
	andq	%r12, %rcx
Ltmp1015:
	.loc	13 104 5
	cmpb	$0, (%rbx,%rcx)
Ltmp1016:
	.loc	13 545 21
	jns	LBB34_22
Ltmp1017:
LBB34_23:
	.loc	13 136 16
	shrq	$57, %rax
Ltmp1018:
	.loc	12 3343 17
	leaq	-16(%rcx), %rsi
Ltmp1019:
	.loc	13 518 22
	andq	%r12, %rsi
Ltmp1020:
	.loc	13 520 9
	movb	%al, (%rbx,%rcx)
	.loc	13 521 9
	movb	%al, 16(%rsi,%rbx)
Ltmp1021:
	.loc	13 285 9
	shlq	$4, %rcx
Ltmp1022:
	.loc	13 0 9 is_stmt 0
	movq	-48(%rbp), %rsi
Ltmp1023:
	.loc	7 2058 5 is_stmt 1
	movq	(%rsi), %rax
Ltmp1024:
	movq	8(%rsi), %rsi
	movq	-80(%rbp), %rdi
	movq	%rsi, 8(%rdi,%rcx)
	movq	%rdi, %rsi
	movq	%rax, (%rdi,%rcx)
Ltmp1025:
	.loc	13 0 0 is_stmt 0
	movl	%edx, %r15d
	movq	-72(%rbp), %rax
Ltmp1026:
	.loc	34 43 12 is_stmt 1
	testw	%r15w, %r15w
	jne	LBB34_19
	jmp	LBB34_16
Ltmp1027:
LBB34_22:
	.loc	33 1204 5
	movdqa	(%rbx), %xmm0
Ltmp1028:
	.loc	33 1401 5
	pmovmskb	%xmm0, %ecx
Ltmp1029:
	.loc	34 55 9
	bsfw	%cx, %cx
Ltmp1030:
	movzwl	%cx, %ecx
	jmp	LBB34_23
Ltmp1031:
LBB34_24:
	.loc	13 798 57
	movq	%rsi, %xmm1
	movq	-88(%rbp), %rax
	movq	-168(%rbp), %rcx
	.loc	13 789 13
	subq	%rcx, %rax
	.loc	13 798 57
	movq	%rax, %xmm0
	punpcklqdq	%xmm0, %xmm1
Ltmp1032:
	.loc	13 0 57 is_stmt 0
	movq	-56(%rbp), %rax
Ltmp1033:
	.loc	7 2058 5 is_stmt 1
	movdqu	(%rax), %xmm0
Ltmp1034:
	.loc	7 0 5 is_stmt 0
	movaps	-208(%rbp), %xmm2
Ltmp1035:
	.loc	7 2058 5
	movups	%xmm2, (%rax)
	movdqu	%xmm1, 16(%rax)
Ltmp1036:
	.loc	7 2058 5
	movq	%rcx, 32(%rax)
Ltmp1037:
	.loc	7 0 5
	movq	-64(%rbp), %rax
Ltmp1038:
	.loc	13 824 13 is_stmt 1
	movq	$0, (%rax)
Ltmp1039:
	.loc	13 932 9
	movq	%xmm0, %rcx
	testq	%rcx, %rcx
Ltmp1040:
	.loc	13 799 17
	je	LBB34_55
Ltmp1041:
	.loc	13 919 9
	leaq	1(%rcx), %rax
Ltmp1042:
	.loc	13 0 9 is_stmt 0
	movl	$16, %edx
Ltmp1043:
	.loc	19 250 85 is_stmt 1
	xorl	%esi, %esi
Ltmp1044:
	.loc	12 3688 26
	mulq	%rdx
Ltmp1045:
	.loc	19 250 85
	setno	%dl
Ltmp1046:
	.loc	13 223 48
	jo	LBB34_26
Ltmp1047:
	.loc	13 0 0 is_stmt 0
	movb	%dl, %sil
	shlq	$3, %rsi
Ltmp1048:
	.loc	12 3343 17 is_stmt 1
	leaq	16(%rcx,%rsi), %rdx
Ltmp1049:
	.loc	13 233 59
	addq	$17, %rcx
Ltmp1050:
	.loc	19 212 72
	negq	%rsi
Ltmp1051:
	.loc	19 212 30 is_stmt 0
	andq	%rdx, %rsi
Ltmp1052:
	.loc	12 3343 17 is_stmt 1
	subq	%rcx, %rsi
Ltmp1053:
	.loc	12 3632 30
	addq	%rcx, %rsi
Ltmp1054:
	.loc	19 308 83
	jae	LBB34_28
Ltmp1055:
LBB34_26:
	.loc	19 0 83 is_stmt 0
	xorl	%edx, %edx
	jmp	LBB34_29
Ltmp1056:
LBB34_28:
	.loc	12 3632 30 is_stmt 1
	leaq	(%rsi,%rax), %rcx
	xorl	%edi, %edi
	cmpq	$-15, %rcx
	setb	%dil
Ltmp1057:
	.loc	19 309 88
	shlq	$4, %rdi
	xorl	%edx, %edx
Ltmp1058:
	.loc	12 3632 30
	addq	%rax, %rsi
Ltmp1059:
	.loc	19 309 88
	cmovaeq	%rdi, %rdx
Ltmp1060:
LBB34_29:
	.loc	13 427 17
	pshufd	$78, %xmm0, %xmm0
	movq	%xmm0, %rdi
Ltmp1061:
	.loc	15 102 5
	addq	$168, %rsp
	popq	%rbx
	popq	%r12
	popq	%r13
	popq	%r14
	popq	%r15
	popq	%rbp
	jmp	___rust_dealloc
Ltmp1062:
LBB34_9:
	.loc	13 383 62
	movl	$16, %edx
	movl	$1, %edi
	movq	%r15, %rsi
	callq	__ZN9hashbrown3raw11Fallibility9alloc_err17hb2e24aa790922b9fE
	jmp	LBB34_12
Ltmp1063:
LBB34_57:
Ltmp681:
	.loc	13 0 62 is_stmt 0
	movq	%rax, %rbx
	leaq	-184(%rbp), %rdi
Ltmp1064:
	.loc	13 773 9 is_stmt 1
	callq	__ZN4core3ptr13drop_in_place17hd7c96cb3565fd856E
	movq	%rbx, %rdi
	callq	__Unwind_Resume
	ud2
Ltmp1065:
Lfunc_end34:
	.cfi_endproc
	.section	__TEXT,__gcc_except_tab
	.p2align	2
GCC_except_table34:
Lexception6:
	.byte	255
	.byte	255
	.byte	1
	.uleb128 Lcst_end6-Lcst_begin6
Lcst_begin6:
	.uleb128 Lfunc_begin34-Lfunc_begin34
	.uleb128 Ltmp679-Lfunc_begin34
	.byte	0
	.byte	0
	.uleb128 Ltmp679-Lfunc_begin34
	.uleb128 Ltmp680-Ltmp679
	.uleb128 Ltmp681-Lfunc_begin34
	.byte	0
	.uleb128 Ltmp680-Lfunc_begin34
	.uleb128 Lfunc_end34-Ltmp680
	.byte	0
	.byte	0
Lcst_end6:
	.p2align	2

	.section	__TEXT,__text,regular,pure_instructions
	.globl	__ZN70_$LT$crossbeam_utils..backoff..Backoff$u20$as$u20$core..fmt..Debug$GT$3fmt17hc0ad44534ca7a8b1E
	.p2align	4, 0x90
__ZN70_$LT$crossbeam_utils..backoff..Backoff$u20$as$u20$core..fmt..Debug$GT$3fmt17hc0ad44534ca7a8b1E:
Lfunc_begin35:
	.file	52 "/Users/yingyuhang/.cargo/registry/src/github.com-1ecc6299db9ec823/crossbeam-utils-0.7.2/src/backoff.rs"
	.loc	52 280 0
	.cfi_startproc
	pushq	%rbp
	.cfi_def_cfa_offset 16
	.cfi_offset %rbp, -16
	movq	%rsp, %rbp
	.cfi_def_cfa_register %rbp
	pushq	%r14
	pushq	%rbx
	subq	$32, %rsp
	.cfi_offset %rbx, -32
	.cfi_offset %r14, -24
	movq	%rdi, %rbx
Ltmp1066:
	.loc	52 281 9 prologue_end
	leaq	l___unnamed_30(%rip), %rdx
	leaq	-40(%rbp), %r14
	movl	$7, %ecx
	movq	%r14, %rdi
	callq	__ZN4core3fmt9Formatter12debug_struct17h985c0158d1fc7193E
Ltmp1067:
	leaq	L___unnamed_31(%rip), %rsi
	leaq	l___unnamed_10(%rip), %r8
	movl	$4, %edx
	movq	%r14, %rdi
	movq	%rbx, %rcx
	callq	__ZN4core3fmt8builders11DebugStruct5field17h9c15dc155278eed2E
Ltmp1068:
	.loc	52 268 9
	cmpl	$10, (%rbx)
Ltmp1069:
	.loc	52 283 37
	seta	-17(%rbp)
	.loc	52 281 9
	leaq	l___unnamed_32(%rip), %rsi
	leaq	l___unnamed_11(%rip), %r8
	leaq	-17(%rbp), %rcx
	movl	$12, %edx
	movq	%rax, %rdi
	callq	__ZN4core3fmt8builders11DebugStruct5field17h9c15dc155278eed2E
	movq	%rax, %rdi
	callq	__ZN4core3fmt8builders11DebugStruct6finish17h26808393f3fed630E
	.loc	52 285 6
	addq	$32, %rsp
	popq	%rbx
Ltmp1070:
	popq	%r14
	popq	%rbp
	retq
Ltmp1071:
Lfunc_end35:
	.cfi_endproc

	.globl	__ZN76_$LT$crossbeam_utils..backoff..Backoff$u20$as$u20$core..default..Default$GT$7default17he002d3dc97649d63E
	.p2align	4, 0x90
__ZN76_$LT$crossbeam_utils..backoff..Backoff$u20$as$u20$core..default..Default$GT$7default17he002d3dc97649d63E:
Lfunc_begin36:
	.loc	52 289 0
	.cfi_startproc
	pushq	%rbp
	.cfi_def_cfa_offset 16
	.cfi_offset %rbp, -16
	movq	%rsp, %rbp
	.cfi_def_cfa_register %rbp
Ltmp1072:
	.loc	52 291 6 prologue_end
	xorl	%eax, %eax
	popq	%rbp
	retq
Ltmp1073:
Lfunc_end36:
	.cfi_endproc

	.section	__TEXT,__literal16,16byte_literals
	.p2align	4
LCPI37_0:
	.quad	1
	.quad	1
	.section	__TEXT,__text,regular,pure_instructions
	.globl	__ZN15crossbeam_utils4sync6parker6Parker3new17h0fffeed40c70c1e7E
	.p2align	4, 0x90
__ZN15crossbeam_utils4sync6parker6Parker3new17h0fffeed40c70c1e7E:
Lfunc_begin37:
	.file	53 "/Users/yingyuhang/.cargo/registry/src/github.com-1ecc6299db9ec823/crossbeam-utils-0.7.2/src/sync/parker.rs"
	.loc	53 72 0
	.cfi_startproc
	.cfi_personality 155, _rust_eh_personality
	.cfi_lsda 16, Lexception7
	pushq	%rbp
	.cfi_def_cfa_offset 16
	.cfi_offset %rbp, -16
	movq	%rsp, %rbp
	.cfi_def_cfa_register %rbp
Ltmp1083:
	pushq	%r15
	pushq	%r14
	pushq	%rbx
	subq	$72, %rsp
	.cfi_offset %rbx, -40
	.cfi_offset %r14, -32
	.cfi_offset %r15, -24
Ltmp1084:
	.loc	15 80 5 prologue_end
	movl	$64, %edi
	movl	$8, %esi
	callq	___rust_alloc
Ltmp1085:
	.loc	15 269 9
	testq	%rax, %rax
	je	LBB37_11
Ltmp1086:
	.loc	16 0 0 is_stmt 0
	movq	%rax, %rbx
Ltmp1074:
	.loc	16 169 24 is_stmt 1
	movq	%rax, %rdi
	callq	__ZN3std10sys_common5mutex5Mutex3new17h696650690b01d120E
Ltmp1075:
	.loc	16 169 20 is_stmt 0
	movq	%rbx, -40(%rbp)
Ltmp1077:
	.loc	16 170 21 is_stmt 1
	callq	__ZN3std10sys_common6poison4Flag3new17h17da4b4837aefea3E
Ltmp1078:
	.loc	16 0 0 is_stmt 0
	movl	%eax, %r14d
Ltmp1087:
	leaq	-40(%rbp), %r15
Ltmp1088:
	.loc	17 52 17 is_stmt 1
	movq	%r15, %rdi
	callq	_pthread_mutexattr_init
Ltmp1089:
	.loc	17 54 17
	movq	%r15, %rdi
	xorl	%esi, %esi
	callq	_pthread_mutexattr_settype
Ltmp1090:
	.loc	17 56 17
	movq	%rbx, %rdi
	movq	%r15, %rsi
	callq	_pthread_mutex_init
Ltmp1091:
	.loc	17 58 17
	movq	%r15, %rdi
	callq	_pthread_mutexattr_destroy
Ltmp1092:
	.loc	16 176 9
	movq	%rbx, -56(%rbp)
	movb	%r14b, -48(%rbp)
	movl	-40(%rbp), %eax
	movl	-37(%rbp), %ecx
	movl	%eax, -47(%rbp)
	movl	%ecx, -44(%rbp)
Ltmp1080:
	leaq	-40(%rbp), %rdi
Ltmp1093:
	.loc	53 78 27
	callq	__ZN3std4sync7condvar7Condvar3new17h39c8eb6d29db6bb5E
Ltmp1081:
Ltmp1094:
	.loc	53 75 33
	movq	-56(%rbp), %rax
	movq	-48(%rbp), %rcx
	movq	%rcx, -80(%rbp)
	movq	%rax, -88(%rbp)
	movq	-40(%rbp), %rax
	movq	-32(%rbp), %rcx
	movq	%rax, -72(%rbp)
	movq	%rcx, -64(%rbp)
Ltmp1095:
	.loc	15 80 5
	movl	$56, %edi
	movl	$8, %esi
	callq	___rust_alloc
Ltmp1096:
	.loc	15 269 9
	testq	%rax, %rax
	je	LBB37_5
Ltmp1097:
	.loc	28 322 29
	movaps	LCPI37_0(%rip), %xmm0
	movups	%xmm0, (%rax)
	movq	$0, 16(%rax)
	movq	-88(%rbp), %rcx
	movq	-80(%rbp), %rdx
	movq	%rcx, 24(%rax)
	movq	%rdx, 32(%rax)
	movq	-72(%rbp), %rcx
	movq	-64(%rbp), %rdx
	movq	%rcx, 40(%rax)
	movq	%rdx, 48(%rax)
Ltmp1098:
	.loc	53 83 6
	addq	$72, %rsp
	popq	%rbx
	popq	%r14
	popq	%r15
	popq	%rbp
	retq
Ltmp1099:
LBB37_11:
	.loc	15 270 19
	movl	$64, %edi
	movl	$8, %esi
	callq	__ZN5alloc5alloc18handle_alloc_error17hbc0ab0ed90816c07E
Ltmp1100:
LBB37_5:
	.loc	15 270 19 is_stmt 0
	movl	$56, %edi
	movl	$8, %esi
	callq	__ZN5alloc5alloc18handle_alloc_error17hbc0ab0ed90816c07E
Ltmp1101:
LBB37_9:
Ltmp1082:
	.loc	15 0 19
	movq	%rax, %r14
	leaq	-56(%rbp), %rdi
	.loc	53 79 17 is_stmt 1
	callq	__ZN4core3ptr13drop_in_place17h2d4fa9f07566d3f3E
	movq	%r14, %rdi
	callq	__Unwind_Resume
	ud2
LBB37_7:
Ltmp1079:
	.loc	53 0 17 is_stmt 0
	movq	%rax, %r14
	leaq	-40(%rbp), %rdi
Ltmp1102:
	.loc	16 172 9 is_stmt 1
	callq	__ZN4core3ptr13drop_in_place17hd68edae123b4cef3E
	movq	%r14, %rdi
	callq	__Unwind_Resume
	ud2
LBB37_6:
Ltmp1076:
	.loc	16 0 9 is_stmt 0
	movq	%rax, %r14
	.loc	16 169 40 is_stmt 1
	movq	%rbx, %rdi
	callq	__ZN5alloc5alloc8box_free17h051d7fe2c253b271E
	movq	%r14, %rdi
	callq	__Unwind_Resume
	ud2
Ltmp1103:
Lfunc_end37:
	.cfi_endproc
	.section	__TEXT,__gcc_except_tab
	.p2align	2
GCC_except_table37:
Lexception7:
	.byte	255
	.byte	255
	.byte	1
	.uleb128 Lcst_end7-Lcst_begin7
Lcst_begin7:
	.uleb128 Ltmp1074-Lfunc_begin37
	.uleb128 Ltmp1075-Ltmp1074
	.uleb128 Ltmp1076-Lfunc_begin37
	.byte	0
	.uleb128 Ltmp1077-Lfunc_begin37
	.uleb128 Ltmp1078-Ltmp1077
	.uleb128 Ltmp1079-Lfunc_begin37
	.byte	0
	.uleb128 Ltmp1080-Lfunc_begin37
	.uleb128 Ltmp1081-Ltmp1080
	.uleb128 Ltmp1082-Lfunc_begin37
	.byte	0
	.uleb128 Ltmp1081-Lfunc_begin37
	.uleb128 Lfunc_end37-Ltmp1081
	.byte	0
	.byte	0
Lcst_end7:
	.p2align	2

	.section	__TEXT,__text,regular,pure_instructions
	.globl	__ZN15crossbeam_utils4sync6parker6Parker4park17hc4e34672b0df955eE
	.p2align	4, 0x90
__ZN15crossbeam_utils4sync6parker6Parker4park17hc4e34672b0df955eE:
Lfunc_begin38:
	.loc	53 104 0
	.cfi_startproc
	pushq	%rbp
	.cfi_def_cfa_offset 16
	.cfi_offset %rbp, -16
	movq	%rsp, %rbp
	.cfi_def_cfa_register %rbp
	subq	$32, %rsp
Ltmp1104:
	.loc	53 105 9 prologue_end
	movq	(%rdi), %rdi
Ltmp1105:
	.loc	28 1114 9
	addq	$16, %rdi
Ltmp1106:
	.loc	53 105 34
	movq	$0, -24(%rbp)
	leaq	-24(%rbp), %rsi
	.loc	53 105 9 is_stmt 0
	callq	__ZN15crossbeam_utils4sync6parker5Inner4park17h43cda47341696bc7E
	.loc	53 106 6 is_stmt 1
	addq	$32, %rsp
	popq	%rbp
	retq
Ltmp1107:
Lfunc_end38:
	.cfi_endproc

	.globl	__ZN15crossbeam_utils4sync6parker6Parker12park_timeout17h363f51ae44dbc26bE
	.p2align	4, 0x90
__ZN15crossbeam_utils4sync6parker6Parker12park_timeout17h363f51ae44dbc26bE:
Lfunc_begin39:
	.loc	53 124 0
	.cfi_startproc
	pushq	%rbp
	.cfi_def_cfa_offset 16
	.cfi_offset %rbp, -16
	movq	%rsp, %rbp
	.cfi_def_cfa_register %rbp
	subq	$32, %rsp
Ltmp1108:
	.loc	53 125 9 prologue_end
	movq	(%rdi), %rdi
Ltmp1109:
	.loc	28 1114 9
	addq	$16, %rdi
Ltmp1110:
	.loc	53 125 34
	movq	%rsi, -16(%rbp)
	movl	%edx, -8(%rbp)
	movq	$1, -24(%rbp)
	leaq	-24(%rbp), %rsi
Ltmp1111:
	.loc	53 125 9 is_stmt 0
	callq	__ZN15crossbeam_utils4sync6parker5Inner4park17h43cda47341696bc7E
Ltmp1112:
	.loc	53 126 6 is_stmt 1
	addq	$32, %rsp
	popq	%rbp
	retq
Ltmp1113:
Lfunc_end39:
	.cfi_endproc

	.globl	__ZN15crossbeam_utils4sync6parker6Parker8unparker17h55e840bb054b66e6E
	.p2align	4, 0x90
__ZN15crossbeam_utils4sync6parker6Parker8unparker17h55e840bb054b66e6E:
Lfunc_begin40:
	.loc	53 150 0
	.cfi_startproc
	pushq	%rbp
	.cfi_def_cfa_offset 16
	.cfi_offset %rbp, -16
	movq	%rsp, %rbp
	.cfi_def_cfa_register %rbp
	movq	%rdi, %rax
Ltmp1114:
	.loc	53 152 6 prologue_end
	popq	%rbp
	retq
Ltmp1115:
Lfunc_end40:
	.cfi_endproc

	.globl	__ZN74_$LT$crossbeam_utils..sync..parker..Parker$u20$as$u20$core..fmt..Debug$GT$3fmt17h8cfb93a5da261dd8E
	.p2align	4, 0x90
__ZN74_$LT$crossbeam_utils..sync..parker..Parker$u20$as$u20$core..fmt..Debug$GT$3fmt17h8cfb93a5da261dd8E:
Lfunc_begin41:
	.loc	53 156 0
	.cfi_startproc
	pushq	%rbp
	.cfi_def_cfa_offset 16
	.cfi_offset %rbp, -16
	movq	%rsp, %rbp
	.cfi_def_cfa_register %rbp
	movq	%rsi, %rdi
Ltmp1116:
	.loc	53 157 9 prologue_end
	leaq	l___unnamed_33(%rip), %rsi
	movl	$13, %edx
	popq	%rbp
	jmp	__ZN4core3fmt9Formatter3pad17he4a76f49c06ce69bE
Ltmp1117:
Lfunc_end41:
	.cfi_endproc

	.globl	__ZN15crossbeam_utils4sync6parker8Unparker6unpark17hf0dc8bc5733427ddE
	.p2align	4, 0x90
__ZN15crossbeam_utils4sync6parker8Unparker6unpark17hf0dc8bc5733427ddE:
Lfunc_begin42:
	.loc	53 199 0
	.cfi_startproc
	.cfi_personality 155, _rust_eh_personality
	.cfi_lsda 16, Lexception8
	pushq	%rbp
	.cfi_def_cfa_offset 16
	.cfi_offset %rbp, -16
	movq	%rsp, %rbp
	.cfi_def_cfa_register %rbp
Ltmp1121:
	pushq	%rbx
	subq	$24, %rsp
	.cfi_offset %rbx, -24
	.loc	53 200 9 prologue_end
	movq	(%rdi), %rbx
	movl	$2, %eax
Ltmp1122:
	.loc	29 2291 19
	xchgq	%rax, 16(%rbx)
Ltmp1123:
	.loc	53 298 13
	testq	%rax, %rax
	je	LBB42_12
Ltmp1124:
	cmpq	$1, %rax
	je	LBB42_4
Ltmp1125:
	cmpq	$2, %rax
	jne	LBB42_3
Ltmp1126:
LBB42_12:
	.loc	53 201 6
	addq	$24, %rsp
	popq	%rbx
	popq	%rbp
	retq
Ltmp1127:
LBB42_4:
	.loc	16 219 13
	movq	24(%rbx), %rdi
Ltmp1128:
	.loc	17 63 17
	callq	_pthread_mutex_lock
Ltmp1129:
	.loc	30 732 5
	callq	__ZN3std9panicking9panicking17h6f800ddc6c0d9b77E
Ltmp1130:
	.loc	29 2276 20
	movb	32(%rbx), %cl
Ltmp1131:
	.loc	29 404 18
	testb	%cl, %cl
Ltmp1132:
	.loc	22 1004 13
	jne	LBB42_5
Ltmp1133:
	.loc	35 34 12
	testb	%al, %al
	jne	LBB42_11
Ltmp1134:
	.loc	30 732 5
	callq	__ZN3std9panicking9panicking17h6f800ddc6c0d9b77E
Ltmp1135:
	.loc	35 34 12
	testb	%al, %al
	je	LBB42_11
Ltmp1136:
	.loc	29 2265 20
	movb	$1, 32(%rbx)
Ltmp1137:
LBB42_11:
	.loc	16 446 13
	movq	24(%rbx), %rdi
Ltmp1138:
	.loc	17 68 17
	callq	_pthread_mutex_unlock
Ltmp1139:
	.loc	53 313 9
	addq	$40, %rbx
Ltmp1140:
	movq	%rbx, %rdi
	addq	$24, %rsp
	popq	%rbx
	popq	%rbp
	jmp	__ZN3std4sync7condvar7Condvar10notify_one17hd0612b6a64ed34bcE
LBB42_3:
Ltmp1141:
	.loc	53 301 18
	callq	__ZN3std9panicking11begin_panic17hc0a5db55a78d93c9E
Ltmp1142:
LBB42_5:
	.loc	53 0 0 is_stmt 0
	addq	$24, %rbx
Ltmp1143:
	.loc	22 1005 17 is_stmt 1
	movq	%rbx, -24(%rbp)
	movb	%al, -16(%rbp)
Ltmp1118:
Ltmp1144:
	.loc	22 1005 23 is_stmt 0
	leaq	l___unnamed_21(%rip), %rdi
	leaq	l___unnamed_4(%rip), %rcx
	leaq	l___unnamed_34(%rip), %r8
	leaq	-24(%rbp), %rdx
	movl	$43, %esi
	callq	__ZN4core6result13unwrap_failed17hb5a510096a5fc85fE
Ltmp1145:
Ltmp1119:
	.loc	22 0 23
	ud2
Ltmp1146:
LBB42_7:
Ltmp1120:
	movq	%rax, %rbx
Ltmp1147:
	leaq	-24(%rbp), %rdi
	.loc	22 1005 87
	callq	__ZN4core3ptr13drop_in_place17h1e8ee9b3757cb9d8E
	movq	%rbx, %rdi
	callq	__Unwind_Resume
	ud2
Ltmp1148:
Lfunc_end42:
	.cfi_endproc
	.section	__TEXT,__gcc_except_tab
	.p2align	2
GCC_except_table42:
Lexception8:
	.byte	255
	.byte	255
	.byte	1
	.uleb128 Lcst_end8-Lcst_begin8
Lcst_begin8:
	.uleb128 Lfunc_begin42-Lfunc_begin42
	.uleb128 Ltmp1118-Lfunc_begin42
	.byte	0
	.byte	0
	.uleb128 Ltmp1118-Lfunc_begin42
	.uleb128 Ltmp1119-Ltmp1118
	.uleb128 Ltmp1120-Lfunc_begin42
	.byte	0
	.uleb128 Ltmp1119-Lfunc_begin42
	.uleb128 Lfunc_end42-Ltmp1119
	.byte	0
	.byte	0
Lcst_end8:
	.p2align	2

	.section	__TEXT,__text,regular,pure_instructions
	.globl	__ZN76_$LT$crossbeam_utils..sync..parker..Unparker$u20$as$u20$core..fmt..Debug$GT$3fmt17h23003e59e2a80dbdE
	.p2align	4, 0x90
__ZN76_$LT$crossbeam_utils..sync..parker..Unparker$u20$as$u20$core..fmt..Debug$GT$3fmt17h23003e59e2a80dbdE:
Lfunc_begin43:
	.loc	53 205 0 is_stmt 1
	.cfi_startproc
	pushq	%rbp
	.cfi_def_cfa_offset 16
	.cfi_offset %rbp, -16
	movq	%rsp, %rbp
	.cfi_def_cfa_register %rbp
	movq	%rsi, %rdi
Ltmp1149:
	.loc	53 206 9 prologue_end
	leaq	l___unnamed_35(%rip), %rsi
	movl	$15, %edx
	popq	%rbp
	jmp	__ZN4core3fmt9Formatter3pad17he4a76f49c06ce69bE
Ltmp1150:
Lfunc_end43:
	.cfi_endproc

	.globl	__ZN78_$LT$crossbeam_utils..sync..parker..Unparker$u20$as$u20$core..clone..Clone$GT$5clone17h363e21f79a751486E
	.p2align	4, 0x90
__ZN78_$LT$crossbeam_utils..sync..parker..Unparker$u20$as$u20$core..clone..Clone$GT$5clone17h363e21f79a751486E:
Lfunc_begin44:
	.loc	53 211 0
	.cfi_startproc
	pushq	%rbp
	.cfi_def_cfa_offset 16
	.cfi_offset %rbp, -16
	movq	%rsp, %rbp
	.cfi_def_cfa_register %rbp
Ltmp1151:
	.loc	53 213 20 prologue_end
	movq	(%rdi), %rax
Ltmp1152:
	.loc	29 2303 20
	lock		incq	(%rax)
Ltmp1153:
	.loc	28 1098 9
	jle	LBB44_1
Ltmp1154:
	.loc	53 215 6
	popq	%rbp
	retq
Ltmp1155:
LBB44_1:
	.loc	28 1100 17
	ud2
Ltmp1156:
Lfunc_end44:
	.cfi_endproc

	.p2align	4, 0x90
__ZN15crossbeam_utils4sync6parker5Inner4park17h43cda47341696bc7E:
Lfunc_begin45:
	.loc	53 229 0
	.cfi_startproc
	.cfi_personality 155, _rust_eh_personality
	.cfi_lsda 16, Lexception9
	pushq	%rbp
	.cfi_def_cfa_offset 16
	.cfi_offset %rbp, -16
	movq	%rsp, %rbp
	.cfi_def_cfa_register %rbp
	pushq	%r15
	pushq	%r14
	pushq	%r13
	pushq	%r12
	pushq	%rbx
	subq	$216, %rsp
	.cfi_offset %rbx, -56
	.cfi_offset %r12, -48
	.cfi_offset %r13, -40
	.cfi_offset %r14, -32
	.cfi_offset %r15, -24
	xorl	%ecx, %ecx
Ltmp1197:
	.loc	29 2335 29 prologue_end
	movl	$2, %eax
	lock		cmpxchgq	%rcx, (%rdi)
Ltmp1198:
	.loc	53 231 9
	je	LBB45_37
Ltmp1199:
	.loc	53 0 9 is_stmt 0
	movq	%rsi, %r14
Ltmp1200:
	movq	%rdi, %rbx
Ltmp1201:
	.loc	53 240 16 is_stmt 1
	cmpq	$1, (%rsi)
	jne	LBB45_4
Ltmp1202:
	.file	54 "/rustc/a74d1862d4d87a56244958416fd05976c58ca1a8/src/libcore/time.rs"
	.loc	54 56 5
	cmpq	$0, 8(%r14)
Ltmp1203:
	.loc	53 241 13
	jne	LBB45_4
Ltmp1204:
	cmpl	$0, 16(%r14)
	je	LBB45_37
Ltmp1205:
LBB45_4:
	.loc	53 247 21
	leaq	8(%rbx), %r15
Ltmp1206:
	.loc	16 219 13
	movq	8(%rbx), %rdi
Ltmp1207:
	.loc	17 63 17
	callq	_pthread_mutex_lock
Ltmp1208:
	.loc	30 732 5
	callq	__ZN3std9panicking9panicking17h6f800ddc6c0d9b77E
Ltmp1209:
	.loc	29 2276 20
	movb	16(%rbx), %cl
Ltmp1210:
	.loc	29 404 18
	testb	%cl, %cl
Ltmp1211:
	.loc	22 1004 13
	jne	LBB45_5
Ltmp1212:
	.loc	53 247 21
	movq	%r15, -104(%rbp)
	movb	%al, -96(%rbp)
	movl	$1, %ecx
Ltmp1213:
	.loc	29 2335 29
	xorl	%eax, %eax
	lock		cmpxchgq	%rcx, (%rbx)
Ltmp1214:
	.loc	53 250 13
	jne	LBB45_9
Ltmp1215:
	.loc	53 266 13
	cmpq	$1, (%r14)
	jne	LBB45_13
Ltmp1216:
	.loc	53 277 18
	movq	8(%r14), %rax
Ltmp1217:
	.loc	53 0 18 is_stmt 0
	movq	%rax, -224(%rbp)
	.loc	53 277 18
	movl	16(%r14), %eax
Ltmp1218:
	.loc	53 0 18
	movl	%eax, -116(%rbp)
Ltmp1219:
	.loc	53 281 37 is_stmt 1
	leaq	24(%rbx), %r13
Ltmp1220:
	.loc	53 281 60 is_stmt 0
	movq	-104(%rbp), %r12
Ltmp1221:
	movb	-96(%rbp), %r14b
Ltmp1222:
	.loc	53 0 60
	movq	%r12, -88(%rbp)
	movb	%r14b, -80(%rbp)
Ltmp1223:
	.loc	16 466 5 is_stmt 1
	movq	(%r12), %r15
Ltmp1224:
Ltmp1177:
	.file	55 "/rustc/a74d1862d4d87a56244958416fd05976c58ca1a8/src/libstd/sync/condvar.rs"
	.loc	55 397 13
	movq	%r13, %rdi
	movq	%r15, %rsi
	callq	__ZN3std4sync7condvar7Condvar6verify17h5d7bbe1888aa12e4E
Ltmp1178:
Ltmp1225:
	.loc	55 398 27
	movq	(%r13), %r13
Ltmp1226:
Ltmp1179:
	.file	56 "/rustc/a74d1862d4d87a56244958416fd05976c58ca1a8/src/libstd/sys_common/condvar.rs"
	.loc	56 61 29
	movq	%r15, %rdi
	callq	__ZN3std10sys_common5mutex3raw17h911237b982bd2918E
Ltmp1180:
Ltmp1227:
Ltmp1181:
	.loc	56 61 9 is_stmt 0
	movq	%r13, %rdi
	movq	%rax, %rsi
	movq	-224(%rbp), %rdx
	movl	-116(%rbp), %ecx
	callq	__ZN3std3sys4unix7condvar7Condvar12wait_timeout17hc6ab3a123fd643d0E
Ltmp1182:
Ltmp1228:
	.loc	29 2276 20 is_stmt 1
	movb	8(%r12), %cl
Ltmp1229:
	.loc	29 404 18
	testb	%cl, %cl
Ltmp1230:
	.loc	22 1004 13
	jne	LBB45_22
Ltmp1231:
	.loc	53 281 22
	movq	%r12, -168(%rbp)
	movb	%r14b, -160(%rbp)
	xorl	%eax, %eax
Ltmp1232:
	.loc	29 2291 19
	xchgq	%rax, (%rbx)
Ltmp1233:
	.loc	53 284 21
	leaq	-1(%rax), %rcx
	cmpq	$2, %rcx
	jae	LBB45_28
Ltmp1234:
	.loc	16 445 13
	movq	-168(%rbp), %rbx
Ltmp1235:
	.loc	35 34 13
	cmpb	$0, -160(%rbp)
	.loc	35 34 12 is_stmt 0
	jne	LBB45_36
Ltmp1236:
Ltmp1194:
	.loc	30 732 5 is_stmt 1
	callq	__ZN3std9panicking9panicking17h6f800ddc6c0d9b77E
Ltmp1195:
	jmp	LBB45_34
Ltmp1237:
LBB45_9:
	.loc	53 252 17
	cmpq	$2, %rax
	jne	LBB45_40
Ltmp1238:
	.loc	53 0 17 is_stmt 0
	xorl	%eax, %eax
Ltmp1239:
	.loc	29 2291 19 is_stmt 1
	xchgq	%rax, (%rbx)
Ltmp1240:
	.loc	53 258 27
	movq	%rax, -240(%rbp)
Ltmp1241:
	.loc	53 259 17
	cmpq	$2, %rax
Ltmp1242:
	je	LBB45_32
Ltmp1243:
	.loc	53 0 17 is_stmt 0
	leaq	-240(%rbp), %rax
Ltmp1244:
	.loc	53 259 17
	movq	%rax, -248(%rbp)
	leaq	L___unnamed_36(%rip), %rax
	movq	%rax, -112(%rbp)
Ltmp1245:
	.loc	40 328 9 is_stmt 1
	leaq	l___unnamed_37(%rip), %rax
Ltmp1246:
	movq	%rax, -88(%rbp)
	movq	$1, -80(%rbp)
	movq	$0, -72(%rbp)
	leaq	l___unnamed_38(%rip), %rax
Ltmp1247:
	movq	%rax, -56(%rbp)
	movq	$0, -48(%rbp)
	leaq	-248(%rbp), %rax
Ltmp1248:
	.loc	53 259 17
	movq	%rax, -216(%rbp)
	leaq	__ZN42_$LT$$RF$T$u20$as$u20$core..fmt..Debug$GT$3fmt17hd913aaa464466618E(%rip), %rax
	movq	%rax, -208(%rbp)
	leaq	-112(%rbp), %rcx
	movq	%rcx, -200(%rbp)
	movq	%rax, -192(%rbp)
	leaq	-88(%rbp), %rax
	movq	%rax, -184(%rbp)
	movq	__ZN59_$LT$core..fmt..Arguments$u20$as$u20$core..fmt..Display$GT$3fmt17h58d7abb0506833b1E@GOTPCREL(%rip), %rax
	movq	%rax, -176(%rbp)
Ltmp1249:
	.loc	40 328 9
	leaq	l___unnamed_39(%rip), %rax
Ltmp1250:
	movq	%rax, -168(%rbp)
	movq	$3, -160(%rbp)
	movq	$0, -152(%rbp)
	leaq	-216(%rbp), %rax
Ltmp1251:
	movq	%rax, -136(%rbp)
	movq	$3, -128(%rbp)
Ltmp1252:
Ltmp1162:
	.loc	53 259 17
	leaq	l___unnamed_40(%rip), %rsi
	leaq	-168(%rbp), %rdi
	callq	__ZN3std9panicking15begin_panic_fmt17h2e6dba6f5c07d155E
Ltmp1163:
	jmp	LBB45_6
Ltmp1253:
LBB45_13:
	.loc	53 0 0 is_stmt 0
	leaq	24(%rbx), %r14
Ltmp1254:
	movq	%rbx, -232(%rbp)
Ltmp1255:
	.p2align	4, 0x90
LBB45_14:
	.loc	53 269 40 is_stmt 1
	movq	-104(%rbp), %r15
Ltmp1256:
	movzbl	-96(%rbp), %r13d
Ltmp1257:
	.loc	53 0 40 is_stmt 0
	movq	%r15, -88(%rbp)
	movb	%r13b, -80(%rbp)
Ltmp1258:
	.loc	16 466 5 is_stmt 1
	movq	(%r15), %rbx
Ltmp1259:
Ltmp1165:
	.loc	55 199 13
	movq	%r14, %rdi
	movq	%rbx, %rsi
	callq	__ZN3std4sync7condvar7Condvar6verify17h5d7bbe1888aa12e4E
Ltmp1166:
Ltmp1260:
	.loc	55 200 13
	movq	(%r14), %r12
Ltmp1167:
Ltmp1261:
	.loc	56 50 21
	movq	%rbx, %rdi
	callq	__ZN3std10sys_common5mutex3raw17h911237b982bd2918E
Ltmp1168:
Ltmp1262:
	.file	57 "/rustc/a74d1862d4d87a56244958416fd05976c58ca1a8/src/libstd/sys/unix/condvar.rs"
	.loc	57 73 17
	movq	%r12, %rdi
	movq	%rax, %rsi
	callq	_pthread_cond_wait
Ltmp1263:
	.loc	29 2276 20
	movzbl	8(%r15), %eax
Ltmp1264:
	.loc	29 404 18
	testb	%al, %al
Ltmp1265:
	.loc	22 1004 13
	jne	LBB45_17
Ltmp1266:
	.loc	53 269 21
	movq	%r15, -104(%rbp)
	movb	%r13b, -96(%rbp)
Ltmp1267:
	.loc	29 2335 29
	movl	$2, %eax
	movq	-232(%rbp), %rbx
Ltmp1268:
	xorl	%ecx, %ecx
	lock		cmpxchgq	%rcx, (%rbx)
Ltmp1269:
	.loc	53 272 25
	jne	LBB45_14
Ltmp1270:
LBB45_32:
	.loc	16 445 13
	movq	-104(%rbp), %rbx
Ltmp1271:
	.loc	35 34 13
	cmpb	$0, -96(%rbp)
	.loc	35 34 12 is_stmt 0
	jne	LBB45_36
Ltmp1272:
	.loc	30 732 5 is_stmt 1
	callq	__ZN3std9panicking9panicking17h6f800ddc6c0d9b77E
Ltmp1273:
LBB45_34:
	.loc	53 0 0 is_stmt 0
	testb	%al, %al
	je	LBB45_36
Ltmp1274:
	movb	$1, 8(%rbx)
Ltmp1275:
LBB45_36:
	movq	(%rbx), %rdi
Ltmp1276:
	callq	_pthread_mutex_unlock
Ltmp1277:
LBB45_37:
	.loc	53 290 6 is_stmt 1
	addq	$216, %rsp
	popq	%rbx
	popq	%r12
	popq	%r13
	popq	%r14
	popq	%r15
	popq	%rbp
	retq
LBB45_17:
Ltmp1278:
	.loc	22 1005 17
	movq	%r15, -88(%rbp)
	movb	%r13b, -80(%rbp)
Ltmp1172:
Ltmp1279:
	.loc	22 1005 23 is_stmt 0
	leaq	l___unnamed_21(%rip), %rdi
	leaq	l___unnamed_4(%rip), %rcx
	leaq	l___unnamed_41(%rip), %r8
	leaq	-88(%rbp), %rdx
	movl	$43, %esi
	callq	__ZN4core6result13unwrap_failed17hb5a510096a5fc85fE
Ltmp1173:
Ltmp1280:
LBB45_6:
	.loc	22 0 23
	ud2
LBB45_5:
Ltmp1281:
	.loc	22 1005 17
	movq	%r15, -88(%rbp)
	movb	%al, -80(%rbp)
Ltmp1157:
Ltmp1282:
	.loc	22 1005 23
	leaq	l___unnamed_21(%rip), %rdi
	leaq	l___unnamed_4(%rip), %rcx
	leaq	l___unnamed_42(%rip), %r8
	leaq	-88(%rbp), %rdx
	movl	$43, %esi
	callq	__ZN4core6result13unwrap_failed17hb5a510096a5fc85fE
Ltmp1283:
Ltmp1158:
	.loc	22 0 23
	jmp	LBB45_6
Ltmp1284:
LBB45_40:
	.loc	53 262 17 is_stmt 1
	movq	%rax, -168(%rbp)
	leaq	-168(%rbp), %rax
Ltmp1285:
	.loc	53 262 23 is_stmt 0
	movq	%rax, -216(%rbp)
	movq	__ZN4core3fmt3num3imp54_$LT$impl$u20$core..fmt..Display$u20$for$u20$usize$GT$3fmt17h89ce3155a90f2edfE@GOTPCREL(%rip), %rax
	movq	%rax, -208(%rbp)
Ltmp1286:
	.loc	40 328 9 is_stmt 1
	leaq	l___unnamed_43(%rip), %rax
Ltmp1287:
	movq	%rax, -88(%rbp)
	movq	$1, -80(%rbp)
	movq	$0, -72(%rbp)
	leaq	-216(%rbp), %rax
Ltmp1288:
	movq	%rax, -56(%rbp)
	movq	$1, -48(%rbp)
Ltmp1289:
Ltmp1160:
	.loc	53 262 23
	leaq	l___unnamed_44(%rip), %rsi
	leaq	-88(%rbp), %rdi
	callq	__ZN3std9panicking15begin_panic_fmt17h2e6dba6f5c07d155E
Ltmp1161:
	jmp	LBB45_6
Ltmp1290:
LBB45_22:
	.loc	55 399 67
	xorb	$1, %al
Ltmp1291:
	.loc	22 1005 17
	movq	%r12, -88(%rbp)
	movb	%r14b, -80(%rbp)
	movl	-216(%rbp), %ecx
	movl	-213(%rbp), %edx
	movl	%ecx, -79(%rbp)
	movl	%edx, -76(%rbp)
	movb	%al, -72(%rbp)
	movl	-168(%rbp), %eax
Ltmp1292:
	movl	-165(%rbp), %ecx
	movl	%eax, -71(%rbp)
	movl	%ecx, -68(%rbp)
Ltmp1186:
Ltmp1293:
	.loc	22 1005 23 is_stmt 0
	leaq	l___unnamed_21(%rip), %rdi
	leaq	l___unnamed_5(%rip), %rcx
	leaq	l___unnamed_45(%rip), %r8
	leaq	-88(%rbp), %rdx
	movl	$43, %esi
	callq	__ZN4core6result13unwrap_failed17hb5a510096a5fc85fE
Ltmp1187:
	jmp	LBB45_6
Ltmp1294:
LBB45_28:
	.loc	53 286 21 is_stmt 1
	movq	%rax, -112(%rbp)
	leaq	-112(%rbp), %rax
Ltmp1295:
	.loc	53 286 26 is_stmt 0
	movq	%rax, -216(%rbp)
	movq	__ZN4core3fmt3num3imp54_$LT$impl$u20$core..fmt..Display$u20$for$u20$usize$GT$3fmt17h89ce3155a90f2edfE@GOTPCREL(%rip), %rax
	movq	%rax, -208(%rbp)
Ltmp1296:
	.loc	40 328 9 is_stmt 1
	leaq	l___unnamed_43(%rip), %rax
Ltmp1297:
	movq	%rax, -88(%rbp)
	movq	$1, -80(%rbp)
	movq	$0, -72(%rbp)
	leaq	-216(%rbp), %rax
Ltmp1298:
	movq	%rax, -56(%rbp)
	movq	$1, -48(%rbp)
Ltmp1299:
Ltmp1191:
	.loc	53 286 26
	leaq	l___unnamed_46(%rip), %rsi
	leaq	-88(%rbp), %rdi
	callq	__ZN3std9panicking15begin_panic_fmt17h2e6dba6f5c07d155E
Ltmp1192:
	jmp	LBB45_6
Ltmp1300:
LBB45_41:
Ltmp1193:
	.loc	53 0 26 is_stmt 0
	movq	%rax, %rbx
Ltmp1301:
	leaq	-168(%rbp), %rdi
	jmp	LBB45_42
Ltmp1302:
LBB45_26:
Ltmp1188:
	movq	%rax, %rbx
Ltmp1303:
Ltmp1189:
	leaq	-88(%rbp), %rdi
Ltmp1304:
	.loc	22 1005 87 is_stmt 1
	callq	__ZN4core3ptr13drop_in_place17h90956be0f796e27dE
Ltmp1190:
	jmp	LBB45_43
Ltmp1305:
LBB45_38:
Ltmp1164:
	.loc	22 0 87 is_stmt 0
	movq	%rax, %rbx
Ltmp1306:
	leaq	-104(%rbp), %rdi
Ltmp1307:
LBB45_42:
	callq	__ZN4core3ptr13drop_in_place17h32275ec3e919b00cE
	movq	%rbx, %rdi
	callq	__Unwind_Resume
	ud2
LBB45_7:
Ltmp1308:
Ltmp1159:
	movq	%rax, %rbx
Ltmp1309:
	leaq	-88(%rbp), %rdi
Ltmp1310:
	.loc	22 1005 87
	callq	__ZN4core3ptr13drop_in_place17h1e8ee9b3757cb9d8E
	movq	%rbx, %rdi
	callq	__Unwind_Resume
	ud2
Ltmp1311:
LBB45_25:
Ltmp1174:
	.loc	22 0 87
	movq	%rax, %rbx
Ltmp1312:
Ltmp1175:
	leaq	-88(%rbp), %rdi
Ltmp1313:
	.loc	22 1005 87
	callq	__ZN4core3ptr13drop_in_place17h1e8ee9b3757cb9d8E
Ltmp1176:
	jmp	LBB45_43
Ltmp1314:
LBB45_23:
Ltmp1183:
	.loc	22 0 87
	movq	%rax, %rbx
Ltmp1315:
Ltmp1184:
	leaq	-88(%rbp), %rdi
Ltmp1316:
	.loc	55 402 5 is_stmt 1
	callq	__ZN4core3ptr13drop_in_place17h32275ec3e919b00cE
Ltmp1185:
	jmp	LBB45_43
Ltmp1317:
LBB45_24:
Ltmp1169:
	.loc	55 0 5 is_stmt 0
	movq	%rax, %rbx
Ltmp1318:
Ltmp1170:
	leaq	-88(%rbp), %rdi
Ltmp1319:
	.loc	55 204 5 is_stmt 1
	callq	__ZN4core3ptr13drop_in_place17h32275ec3e919b00cE
Ltmp1171:
Ltmp1320:
LBB45_43:
	.loc	55 0 5 is_stmt 0
	movq	%rbx, %rdi
	callq	__Unwind_Resume
	ud2
LBB45_39:
Ltmp1196:
	movq	%rax, %rbx
	movq	%rbx, %rdi
	callq	__Unwind_Resume
	ud2
Lfunc_end45:
	.cfi_endproc
	.section	__TEXT,__gcc_except_tab
	.p2align	2
GCC_except_table45:
Lexception9:
	.byte	255
	.byte	255
	.byte	1
	.uleb128 Lcst_end9-Lcst_begin9
Lcst_begin9:
	.uleb128 Lfunc_begin45-Lfunc_begin45
	.uleb128 Ltmp1177-Lfunc_begin45
	.byte	0
	.byte	0
	.uleb128 Ltmp1177-Lfunc_begin45
	.uleb128 Ltmp1182-Ltmp1177
	.uleb128 Ltmp1183-Lfunc_begin45
	.byte	0
	.uleb128 Ltmp1194-Lfunc_begin45
	.uleb128 Ltmp1195-Ltmp1194
	.uleb128 Ltmp1196-Lfunc_begin45
	.byte	0
	.uleb128 Ltmp1162-Lfunc_begin45
	.uleb128 Ltmp1163-Ltmp1162
	.uleb128 Ltmp1164-Lfunc_begin45
	.byte	0
	.uleb128 Ltmp1165-Lfunc_begin45
	.uleb128 Ltmp1168-Ltmp1165
	.uleb128 Ltmp1169-Lfunc_begin45
	.byte	0
	.uleb128 Ltmp1168-Lfunc_begin45
	.uleb128 Ltmp1172-Ltmp1168
	.byte	0
	.byte	0
	.uleb128 Ltmp1172-Lfunc_begin45
	.uleb128 Ltmp1173-Ltmp1172
	.uleb128 Ltmp1174-Lfunc_begin45
	.byte	0
	.uleb128 Ltmp1157-Lfunc_begin45
	.uleb128 Ltmp1158-Ltmp1157
	.uleb128 Ltmp1159-Lfunc_begin45
	.byte	0
	.uleb128 Ltmp1160-Lfunc_begin45
	.uleb128 Ltmp1161-Ltmp1160
	.uleb128 Ltmp1164-Lfunc_begin45
	.byte	0
	.uleb128 Ltmp1186-Lfunc_begin45
	.uleb128 Ltmp1187-Ltmp1186
	.uleb128 Ltmp1188-Lfunc_begin45
	.byte	0
	.uleb128 Ltmp1191-Lfunc_begin45
	.uleb128 Ltmp1192-Ltmp1191
	.uleb128 Ltmp1193-Lfunc_begin45
	.byte	0
	.uleb128 Ltmp1189-Lfunc_begin45
	.uleb128 Ltmp1190-Ltmp1189
	.uleb128 Ltmp1196-Lfunc_begin45
	.byte	0
	.uleb128 Ltmp1190-Lfunc_begin45
	.uleb128 Ltmp1175-Ltmp1190
	.byte	0
	.byte	0
	.uleb128 Ltmp1175-Lfunc_begin45
	.uleb128 Ltmp1171-Ltmp1175
	.uleb128 Ltmp1196-Lfunc_begin45
	.byte	0
	.uleb128 Ltmp1171-Lfunc_begin45
	.uleb128 Lfunc_end45-Ltmp1171
	.byte	0
	.byte	0
Lcst_end9:
	.p2align	2

	.section	__TEXT,__text,regular,pure_instructions
	.globl	__ZN154_$LT$$LT$crossbeam_utils..sync..sharded_lock..ShardedLock$LT$T$GT$$u20$as$u20$core..fmt..Debug$GT$..fmt..LockedPlaceholder$u20$as$u20$core..fmt..Debug$GT$3fmt17h75280e1d51b17a79E
	.p2align	4, 0x90
__ZN154_$LT$$LT$crossbeam_utils..sync..sharded_lock..ShardedLock$LT$T$GT$$u20$as$u20$core..fmt..Debug$GT$..fmt..LockedPlaceholder$u20$as$u20$core..fmt..Debug$GT$3fmt17h75280e1d51b17a79E:
Lfunc_begin46:
	.loc	14 432 0 is_stmt 1
	.cfi_startproc
	pushq	%rbp
	.cfi_def_cfa_offset 16
	.cfi_offset %rbp, -16
	movq	%rsp, %rbp
	.cfi_def_cfa_register %rbp
	movq	%rsi, %rdi
Ltmp1321:
	.loc	14 433 25 prologue_end
	leaq	L___unnamed_47(%rip), %rsi
	movl	$8, %edx
	popq	%rbp
	jmp	__ZN4core3fmt9Formatter9write_str17h957ea9717e49073dE
Ltmp1322:
Lfunc_end46:
	.cfi_endproc

	.section	__TEXT,__literal16,16byte_literals
	.p2align	4
LCPI47_0:
	.quad	8317987319222330741
	.quad	7816392313619706465
LCPI47_1:
	.quad	7237128888997146477
	.quad	8387220255154660723
	.section	__TEXT,__text,regular,pure_instructions
	.globl	__ZN91_$LT$crossbeam_utils..sync..sharded_lock..Registration$u20$as$u20$core..ops..drop..Drop$GT$4drop17h9cbd4a59daf756d0E
	.p2align	4, 0x90
__ZN91_$LT$crossbeam_utils..sync..sharded_lock..Registration$u20$as$u20$core..ops..drop..Drop$GT$4drop17h9cbd4a59daf756d0E:
Lfunc_begin47:
	.loc	14 581 0
	.cfi_startproc
	.cfi_personality 155, _rust_eh_personality
	.cfi_lsda 16, Lexception10
	pushq	%rbp
	.cfi_def_cfa_offset 16
	.cfi_offset %rbp, -16
	movq	%rsp, %rbp
	.cfi_def_cfa_register %rbp
	pushq	%r15
	pushq	%r14
	pushq	%r13
	pushq	%r12
	pushq	%rbx
	subq	$104, %rsp
	.cfi_offset %rbx, -56
	.cfi_offset %r12, -48
	.cfi_offset %r13, -40
	.cfi_offset %r14, -32
	.cfi_offset %r15, -24
	movq	%rdi, %r15
Ltmp1329:
	leaq	__ZN95_$LT$crossbeam_utils..sync..sharded_lock..THREAD_INDICES$u20$as$u20$core..ops..deref..Deref$GT$5deref11__stability4LAZY17h5fc39c60e748272cE(%rip), %rax
Ltmp1330:
	movq	%rax, -64(%rbp)
Ltmp1331:
	.loc	29 2275 20 prologue_end
	movq	__ZN95_$LT$crossbeam_utils..sync..sharded_lock..THREAD_INDICES$u20$as$u20$core..ops..deref..Deref$GT$5deref11__stability4LAZY17h5fc39c60e748272cE+104(%rip), %rax
Ltmp1332:
	.loc	6 373 9
	cmpq	$3, %rax
Ltmp1333:
	.loc	6 259 9
	jne	LBB47_1
Ltmp1334:
	.loc	9 37 20
	movq	-64(%rbp), %r13
Ltmp1335:
	.loc	9 38 17
	cmpq	$0, (%r13)
	je	LBB47_46
Ltmp1336:
LBB47_3:
	.loc	16 219 13
	movq	(%r13), %rdi
Ltmp1337:
	.loc	17 63 17
	callq	_pthread_mutex_lock
Ltmp1338:
	.loc	30 732 5
	callq	__ZN3std9panicking9panicking17h6f800ddc6c0d9b77E
	movl	%eax, %r14d
Ltmp1339:
	.loc	29 2276 20
	movb	8(%r13), %al
Ltmp1340:
	.loc	29 404 18
	testb	%al, %al
Ltmp1341:
	.loc	22 1004 13
	jne	LBB47_4
Ltmp1342:
	.loc	14 582 27
	movq	%r13, -56(%rbp)
	movb	%r14b, -48(%rbp)
Ltmp1343:
	.loc	26 920 24
	movq	16(%r13), %rax
Ltmp1344:
	movq	24(%r13), %rcx
Ltmp1345:
	.loc	32 215 9
	movq	%rax, %xmm0
	pshufd	$68, %xmm0, %xmm0
	pxor	LCPI47_0(%rip), %xmm0
	.loc	32 216 9
	movq	%rcx, %xmm1
	pshufd	$68, %xmm1, %xmm1
	pxor	LCPI47_1(%rip), %xmm1
Ltmp1346:
	.loc	14 583 9
	movq	8(%r15), %r12
Ltmp1347:
	.loc	11 2504 9
	movq	%rax, -136(%rbp)
	movq	%rcx, -128(%rbp)
	movq	$0, -120(%rbp)
	movdqu	%xmm0, -112(%rbp)
	movdqu	%xmm1, -96(%rbp)
	movq	$0, -80(%rbp)
	movq	$0, -72(%rbp)
Ltmp1348:
	.loc	11 0 9 is_stmt 0
	leaq	-136(%rbp), %rsi
Ltmp1349:
	.loc	44 677 13 is_stmt 1
	movq	%r12, %rdi
	callq	__ZN58_$LT$std..thread..ThreadId$u20$as$u20$core..hash..Hash$GT$4hash17ha60b730ea0aac3adE
Ltmp1350:
	.loc	32 308 24
	movq	-120(%rbp), %rdi
Ltmp1351:
	.loc	32 306 25
	movq	-96(%rbp), %rax
Ltmp1352:
	.loc	32 308 22
	shlq	$56, %rdi
	orq	-80(%rbp), %rdi
Ltmp1353:
	.loc	32 0 22 is_stmt 0
	movq	-88(%rbp), %rcx
	movq	-112(%rbp), %rsi
Ltmp1354:
	.loc	12 3320 17 is_stmt 1
	addq	%rax, %rsi
Ltmp1355:
	.loc	12 2704 17
	rolq	$13, %rax
Ltmp1356:
	.loc	32 310 9
	xorq	%rdi, %rcx
Ltmp1357:
	.loc	32 85 35
	xorq	%rsi, %rax
Ltmp1358:
	.loc	12 2704 17
	rolq	$32, %rsi
Ltmp1359:
	.loc	12 0 17 is_stmt 0
	movq	-104(%rbp), %rdx
Ltmp1360:
	.loc	12 3320 17 is_stmt 1
	addq	%rcx, %rdx
Ltmp1361:
	.loc	12 2704 17
	rolq	$16, %rcx
Ltmp1362:
	.loc	32 85 57
	xorq	%rdx, %rcx
Ltmp1363:
	.loc	12 3320 17
	addq	%rcx, %rsi
Ltmp1364:
	.loc	12 2704 17
	rolq	$21, %rcx
Ltmp1365:
	.loc	12 3320 17
	addq	%rax, %rdx
Ltmp1366:
	.loc	12 2704 17
	rolq	$17, %rax
Ltmp1367:
	.loc	32 85 35
	xorq	%rsi, %rcx
Ltmp1368:
	.loc	32 85 57 is_stmt 0
	xorq	%rdx, %rax
Ltmp1369:
	.loc	12 2704 17 is_stmt 1
	rolq	$32, %rdx
Ltmp1370:
	.loc	32 312 9
	xorq	%rdi, %rsi
Ltmp1371:
	.loc	12 3320 17
	addq	%rax, %rsi
Ltmp1372:
	.loc	12 2704 17
	rolq	$13, %rax
Ltmp1373:
	.loc	32 85 35
	xorq	%rsi, %rax
Ltmp1374:
	.loc	12 2704 17
	rolq	$32, %rsi
Ltmp1375:
	.loc	32 314 9
	xorq	$255, %rdx
Ltmp1376:
	.loc	12 3320 17
	addq	%rcx, %rdx
Ltmp1377:
	.loc	12 2704 17
	rolq	$16, %rcx
Ltmp1378:
	.loc	32 85 57
	xorq	%rdx, %rcx
Ltmp1379:
	.loc	12 3320 17
	addq	%rcx, %rsi
Ltmp1380:
	.loc	12 2704 17
	rolq	$21, %rcx
Ltmp1381:
	.loc	12 3320 17
	addq	%rax, %rdx
Ltmp1382:
	.loc	12 2704 17
	rolq	$17, %rax
Ltmp1383:
	.loc	32 85 57
	xorq	%rdx, %rax
Ltmp1384:
	.loc	12 2704 17
	rolq	$32, %rdx
Ltmp1385:
	.loc	32 85 35
	xorq	%rsi, %rcx
Ltmp1386:
	.loc	12 3320 17
	addq	%rax, %rsi
Ltmp1387:
	.loc	12 2704 17
	rolq	$13, %rax
Ltmp1388:
	.loc	32 85 35
	xorq	%rsi, %rax
Ltmp1389:
	.loc	12 2704 17
	rolq	$32, %rsi
Ltmp1390:
	.loc	12 3320 17
	addq	%rcx, %rdx
Ltmp1391:
	.loc	12 2704 17
	rolq	$16, %rcx
Ltmp1392:
	.loc	32 85 57
	xorq	%rdx, %rcx
Ltmp1393:
	.loc	12 3320 17
	addq	%rcx, %rsi
Ltmp1394:
	.loc	12 2704 17
	rolq	$21, %rcx
Ltmp1395:
	.loc	12 3320 17
	addq	%rax, %rdx
Ltmp1396:
	.loc	12 2704 17
	rolq	$17, %rax
Ltmp1397:
	.loc	32 85 57
	xorq	%rdx, %rax
Ltmp1398:
	.loc	12 2704 17
	rolq	$32, %rdx
Ltmp1399:
	.loc	32 85 35
	xorq	%rsi, %rcx
Ltmp1400:
	.loc	12 3320 17
	addq	%rax, %rsi
Ltmp1401:
	.loc	12 2704 17
	rolq	$13, %rax
Ltmp1402:
	.loc	32 85 35
	xorq	%rsi, %rax
Ltmp1403:
	.loc	12 3320 17
	addq	%rcx, %rdx
Ltmp1404:
	.loc	12 2704 17
	rolq	$16, %rcx
Ltmp1405:
	.loc	32 85 57
	xorq	%rdx, %rcx
Ltmp1406:
	.loc	12 2704 17
	rolq	$21, %rcx
Ltmp1407:
	.loc	12 3320 17
	addq	%rax, %rdx
Ltmp1408:
	.loc	12 2704 17
	rolq	$17, %rax
Ltmp1409:
	.loc	12 2704 17 is_stmt 0
	movq	%rdx, %rsi
Ltmp1410:
	rolq	$32, %rsi
Ltmp1411:
	.loc	32 317 9 is_stmt 1
	xorq	%rdx, %rax
Ltmp1412:
	.loc	32 85 35
	xorq	%rsi, %rax
Ltmp1413:
	.loc	32 317 9
	xorq	%rcx, %rax
Ltmp1414:
	.loc	13 490 26
	movq	32(%r13), %r10
Ltmp1415:
	.loc	13 0 0 is_stmt 0
	movq	40(%r13), %r9
Ltmp1416:
	movq	%rax, %rcx
	shrq	$57, %rcx
Ltmp1417:
	movd	%ecx, %xmm0
	pxor	%xmm1, %xmm1
	pshufb	%xmm1, %xmm0
Ltmp1418:
	movq	48(%r13), %r8
Ltmp1419:
	xorl	%edi, %edi
Ltmp1420:
	pcmpeqd	%xmm1, %xmm1
Ltmp1421:
LBB47_8:
	movq	%rax, %rbx
	andq	%r10, %rbx
Ltmp1422:
	.loc	13 168 9 is_stmt 1
	leaq	16(%rdi,%rbx), %rax
Ltmp1423:
	.loc	13 167 9
	addq	$16, %rdi
Ltmp1424:
	.loc	7 2058 5
	movdqu	(%r9,%rbx), %xmm2
Ltmp1425:
	.loc	33 1401 5
	movdqa	%xmm0, %xmm3
	pcmpeqb	%xmm2, %xmm3
	pmovmskb	%xmm3, %ecx
Ltmp1426:
LBB47_9:
	.loc	34 43 12
	testw	%cx, %cx
	.loc	34 43 9 is_stmt 0
	je	LBB47_10
Ltmp1427:
	.loc	34 55 9 is_stmt 1
	bsfw	%cx, %dx
	movzwl	%dx, %edx
Ltmp1428:
	.loc	34 32 26
	leal	-1(%rcx), %esi
	.loc	34 32 17 is_stmt 0
	andl	%ecx, %esi
Ltmp1429:
	.loc	13 885 33 is_stmt 1
	addq	%rbx, %rdx
Ltmp1430:
	andq	%r10, %rdx
Ltmp1431:
	.loc	13 285 9
	shlq	$4, %rdx
Ltmp1432:
	.loc	13 884 28
	movl	%esi, %ecx
Ltmp1433:
	.loc	12 64 32
	cmpq	%r12, (%r8,%rdx)
	je	LBB47_12
	jmp	LBB47_9
Ltmp1434:
LBB47_10:
	.loc	33 1401 5
	pcmpeqb	%xmm1, %xmm2
	pmovmskb	%xmm2, %ecx
Ltmp1435:
	.loc	34 37 9
	testw	%cx, %cx
Ltmp1436:
	.loc	13 891 17
	je	LBB47_8
Ltmp1437:
	.loc	14 584 32
	movq	(%r15), %r12
Ltmp1438:
	.loc	31 1200 12
	movq	88(%r13), %rcx
Ltmp1439:
	cmpq	80(%r13), %rcx
	.loc	31 1200 9 is_stmt 0
	jne	LBB47_20
Ltmp1440:
LBB47_25:
	.loc	12 3632 30 is_stmt 1
	movq	%rcx, %rax
	incq	%rax
Ltmp1441:
	.loc	8 540 13
	je	LBB47_42
Ltmp1442:
	.loc	20 414 26
	leaq	(%rcx,%rcx), %rdx
Ltmp1443:
	.loc	45 1017 9
	cmpq	%rax, %rdx
	.loc	45 0 0 is_stmt 0
	cmovaq	%rdx, %rax
Ltmp1444:
	movl	$8, %edx
Ltmp1445:
	.loc	19 250 85 is_stmt 1
	xorl	%esi, %esi
Ltmp1446:
	.loc	12 3688 26
	mulq	%rdx
Ltmp1447:
	movq	%rax, %r15
Ltmp1448:
	.loc	12 0 26 is_stmt 0
	seto	%bl
Ltmp1449:
	.loc	19 250 85 is_stmt 1
	setno	%dl
Ltmp1450:
	.loc	20 200 9
	movq	%rcx, %rax
	.loc	20 200 40 is_stmt 0
	testq	%rcx, %rcx
	.loc	20 200 9
	je	LBB47_28
Ltmp1451:
	.loc	20 0 9
	movq	72(%r13), %rax
Ltmp1452:
LBB47_28:
	.loc	22 611 13 is_stmt 1
	testb	%bl, %bl
	jne	LBB47_42
Ltmp1453:
	.loc	20 489 25
	testq	%rax, %rax
	je	LBB47_35
Ltmp1454:
	.loc	20 0 0 is_stmt 0
	leaq	(,%rcx,8), %rsi
Ltmp1455:
	.loc	15 205 12 is_stmt 1
	cmpq	%r15, %rsi
	.loc	15 205 9 is_stmt 0
	je	LBB47_39
Ltmp1456:
	.loc	15 211 42 is_stmt 1
	testq	%rsi, %rsi
	je	LBB47_32
Ltmp1457:
	.loc	15 124 5
	movl	$8, %edx
	movq	%rax, %rdi
	movq	%r15, %rcx
Ltmp1458:
	callq	___rust_realloc
Ltmp1459:
	.loc	22 611 13
	testq	%rax, %rax
	jne	LBB47_40
	jmp	LBB47_43
Ltmp1460:
LBB47_12:
	.loc	51 291 9
	sarq	$4, %rdx
Ltmp1461:
	.loc	12 3343 17
	leaq	-16(%rdx), %rax
Ltmp1462:
	.loc	13 460 28
	andq	%r10, %rax
Ltmp1463:
	.loc	7 2058 5
	movdqu	(%r9,%rax), %xmm0
Ltmp1464:
	.loc	33 820 27
	pcmpeqd	%xmm1, %xmm1
Ltmp1465:
	.loc	33 1401 5
	pcmpeqb	%xmm1, %xmm0
	pmovmskb	%xmm0, %ecx
Ltmp1466:
	.loc	7 2058 5
	movdqu	(%r9,%rdx), %xmm0
Ltmp1467:
	.loc	33 1401 5
	pcmpeqb	%xmm1, %xmm0
	pmovmskb	%xmm0, %ebx
Ltmp1468:
	.loc	33 0 5 is_stmt 0
	movw	$16, %di
Ltmp1469:
	movw	$16, %si
Ltmp1470:
	.loc	12 2616 17 is_stmt 1
	testw	%cx, %cx
	je	LBB47_14
Ltmp1471:
	bsrw	%cx, %si
	xorl	$15, %esi
Ltmp1472:
LBB47_14:
	.loc	12 2637 17
	testw	%bx, %bx
	je	LBB47_16
Ltmp1473:
	bsfw	%bx, %di
Ltmp1474:
LBB47_16:
	.loc	13 472 23
	movzwl	%di, %edi
	addl	%esi, %edi
	movb	$-128, %cl
Ltmp1475:
	cmpw	$15, %di
	.loc	13 472 20 is_stmt 0
	ja	LBB47_18
Ltmp1476:
	.loc	13 475 13 is_stmt 1
	incq	56(%r13)
	movb	$-1, %cl
Ltmp1477:
LBB47_18:
	.loc	13 0 0 is_stmt 0
	movb	%cl, (%r9,%rdx)
	movb	%cl, 16(%rax,%r9)
	.loc	13 479 9 is_stmt 1
	decq	64(%r13)
Ltmp1478:
	.loc	14 584 32
	movq	(%r15), %r12
Ltmp1479:
	.loc	31 1200 12
	movq	88(%r13), %rcx
Ltmp1480:
	cmpq	80(%r13), %rcx
	.loc	31 1200 9 is_stmt 0
	je	LBB47_25
Ltmp1481:
LBB47_20:
	.loc	31 850 19 is_stmt 1
	movq	72(%r13), %rax
Ltmp1482:
	.loc	18 836 42
	movq	%r12, (%rax,%rcx,8)
Ltmp1483:
	.loc	31 1206 13
	incq	88(%r13)
Ltmp1484:
	.loc	35 34 12
	testb	%r14b, %r14b
	jne	LBB47_24
Ltmp1485:
LBB47_22:
	.loc	30 732 5
	callq	__ZN3std9panicking9panicking17h6f800ddc6c0d9b77E
Ltmp1486:
	.loc	35 34 12
	testb	%al, %al
	je	LBB47_24
Ltmp1487:
	.loc	29 2265 20
	movb	$1, 8(%r13)
	jmp	LBB47_24
Ltmp1488:
LBB47_35:
	.loc	20 0 0 is_stmt 0
	movb	%dl, %sil
	shlq	$3, %rsi
Ltmp1489:
	.loc	15 170 16 is_stmt 1
	testq	%r15, %r15
	.loc	15 170 13 is_stmt 0
	jne	LBB47_38
Ltmp1490:
	.loc	20 0 0
	movq	%rsi, %rax
Ltmp1491:
	.loc	22 611 13 is_stmt 1
	testq	%rax, %rax
	jne	LBB47_40
	jmp	LBB47_43
Ltmp1492:
LBB47_1:
	.loc	22 0 13 is_stmt 0
	leaq	-64(%rbp), %rax
Ltmp1493:
	.loc	6 263 21 is_stmt 1
	movq	%rax, -56(%rbp)
	leaq	-56(%rbp), %rax
Ltmp1494:
	.loc	6 264 37
	movq	%rax, -136(%rbp)
	.loc	6 264 9 is_stmt 0
	leaq	__ZN95_$LT$crossbeam_utils..sync..sharded_lock..THREAD_INDICES$u20$as$u20$core..ops..deref..Deref$GT$5deref11__stability4LAZY17h5fc39c60e748272cE+104(%rip), %rdi
	leaq	l___unnamed_1(%rip), %rcx
	leaq	-136(%rbp), %rdx
	xorl	%esi, %esi
	callq	__ZN3std4sync4once4Once10call_inner17h78f35ea5a056ddbcE
Ltmp1495:
	.loc	9 37 20 is_stmt 1
	movq	-64(%rbp), %r13
Ltmp1496:
	.loc	9 38 17
	cmpq	$0, (%r13)
	jne	LBB47_3
Ltmp1497:
LBB47_46:
	.loc	21 10 9
	leaq	l___unnamed_19(%rip), %rdi
	leaq	l___unnamed_20(%rip), %rdx
	movl	$66, %esi
	callq	__ZN4core9panicking5panic17h736ee47a631475c0E
Ltmp1498:
LBB47_32:
	.loc	15 170 16
	testq	%r15, %r15
	.loc	15 170 13 is_stmt 0
	je	LBB47_33
Ltmp1499:
	.loc	15 80 5 is_stmt 1
	movl	$8, %esi
Ltmp1500:
LBB47_38:
	.loc	20 0 0 is_stmt 0
	movq	%r15, %rdi
	callq	___rust_alloc
Ltmp1501:
LBB47_39:
	.loc	22 611 13 is_stmt 1
	testq	%rax, %rax
	je	LBB47_43
Ltmp1502:
LBB47_40:
	.loc	31 1204 45
	movq	88(%r13), %rcx
Ltmp1503:
LBB47_41:
	.loc	20 387 9
	movq	%rax, 72(%r13)
Ltmp1504:
	.loc	20 383 9
	shrq	$3, %r15
Ltmp1505:
	.loc	20 388 9
	movq	%r15, 80(%r13)
Ltmp1506:
	.loc	18 836 42
	movq	%r12, (%rax,%rcx,8)
Ltmp1507:
	.loc	31 1206 13
	incq	88(%r13)
Ltmp1508:
	.loc	35 34 12
	testb	%r14b, %r14b
	je	LBB47_22
Ltmp1509:
LBB47_24:
	.loc	16 446 13
	movq	-56(%rbp), %rax
	movq	(%rax), %rdi
Ltmp1510:
	.loc	17 68 17
	callq	_pthread_mutex_unlock
Ltmp1511:
	.loc	14 585 6
	addq	$104, %rsp
	popq	%rbx
	popq	%r12
	popq	%r13
	popq	%r14
	popq	%r15
	popq	%rbp
	retq
Ltmp1512:
LBB47_33:
	.loc	14 0 6 is_stmt 0
	movl	$8, %eax
Ltmp1513:
	jmp	LBB47_41
Ltmp1514:
LBB47_4:
	.loc	22 1005 17 is_stmt 1
	movq	%r13, -136(%rbp)
	movb	%r14b, -128(%rbp)
Ltmp1323:
Ltmp1515:
	.loc	22 1005 23 is_stmt 0
	leaq	l___unnamed_21(%rip), %rdi
	leaq	l___unnamed_7(%rip), %rcx
	leaq	l___unnamed_48(%rip), %r8
	leaq	-136(%rbp), %rdx
	movl	$43, %esi
	callq	__ZN4core6result13unwrap_failed17hb5a510096a5fc85fE
Ltmp1324:
	jmp	LBB47_5
Ltmp1516:
LBB47_42:
Ltmp1326:
	.loc	20 268 38 is_stmt 1
	callq	__ZN5alloc7raw_vec17capacity_overflow17h023f34f5bc34c61fE
Ltmp1517:
Ltmp1327:
LBB47_5:
	.loc	20 0 38 is_stmt 0
	ud2
LBB47_43:
Ltmp1518:
	.loc	20 269 47 is_stmt 1
	movl	$8, %esi
	movq	%r15, %rdi
	callq	__ZN5alloc5alloc18handle_alloc_error17hbc0ab0ed90816c07E
Ltmp1519:
LBB47_44:
Ltmp1328:
	.loc	20 0 47 is_stmt 0
	movq	%rax, %rbx
	leaq	-56(%rbp), %rdi
	.loc	14 585 5 is_stmt 1
	callq	__ZN4core3ptr13drop_in_place17h32275ec3e919b00cE
	movq	%rbx, %rdi
	callq	__Unwind_Resume
	ud2
Ltmp1520:
LBB47_6:
Ltmp1325:
	.loc	14 0 5 is_stmt 0
	movq	%rax, %rbx
	leaq	-136(%rbp), %rdi
Ltmp1521:
	.loc	22 1005 87 is_stmt 1
	callq	__ZN4core3ptr13drop_in_place17h1e8ee9b3757cb9d8E
	movq	%rbx, %rdi
	callq	__Unwind_Resume
	ud2
Ltmp1522:
Lfunc_end47:
	.cfi_endproc
	.section	__TEXT,__gcc_except_tab
	.p2align	2
GCC_except_table47:
Lexception10:
	.byte	255
	.byte	255
	.byte	1
	.uleb128 Lcst_end10-Lcst_begin10
Lcst_begin10:
	.uleb128 Lfunc_begin47-Lfunc_begin47
	.uleb128 Ltmp1323-Lfunc_begin47
	.byte	0
	.byte	0
	.uleb128 Ltmp1323-Lfunc_begin47
	.uleb128 Ltmp1324-Ltmp1323
	.uleb128 Ltmp1325-Lfunc_begin47
	.byte	0
	.uleb128 Ltmp1326-Lfunc_begin47
	.uleb128 Ltmp1327-Ltmp1326
	.uleb128 Ltmp1328-Lfunc_begin47
	.byte	0
	.uleb128 Ltmp1327-Lfunc_begin47
	.uleb128 Lfunc_end47-Ltmp1327
	.byte	0
	.byte	0
Lcst_end10:
	.p2align	2

	.section	__TEXT,__literal16,16byte_literals
	.p2align	4
LCPI48_0:
	.quad	1
	.quad	1
	.section	__TEXT,__text,regular,pure_instructions
	.globl	__ZN15crossbeam_utils4sync10wait_group9WaitGroup3new17hf5172e4a7f0d94faE
	.p2align	4, 0x90
__ZN15crossbeam_utils4sync10wait_group9WaitGroup3new17hf5172e4a7f0d94faE:
Lfunc_begin48:
	.file	58 "/Users/yingyuhang/.cargo/registry/src/github.com-1ecc6299db9ec823/crossbeam-utils-0.7.2/src/sync/wait_group.rs"
	.loc	58 65 0
	.cfi_startproc
	.cfi_personality 155, _rust_eh_personality
	.cfi_lsda 16, Lexception11
	pushq	%rbp
	.cfi_def_cfa_offset 16
	.cfi_offset %rbp, -16
	movq	%rsp, %rbp
	.cfi_def_cfa_register %rbp
	pushq	%r15
	pushq	%r14
	pushq	%rbx
	subq	$40, %rsp
	.cfi_offset %rbx, -40
	.cfi_offset %r14, -32
	.cfi_offset %r15, -24
	leaq	-64(%rbp), %rdi
Ltmp1529:
	.loc	58 68 23 prologue_end
	callq	__ZN3std4sync7condvar7Condvar3new17h39c8eb6d29db6bb5E
Ltmp1530:
	.loc	15 80 5
	movl	$64, %edi
	movl	$8, %esi
	callq	___rust_alloc
Ltmp1531:
	.loc	15 269 9
	testq	%rax, %rax
	je	LBB48_9
Ltmp1532:
	.loc	16 0 0 is_stmt 0
	movq	%rax, %r15
Ltmp1533:
Ltmp1523:
	.loc	16 169 24 is_stmt 1
	movq	%rax, %rdi
	callq	__ZN3std10sys_common5mutex5Mutex3new17h696650690b01d120E
Ltmp1524:
Ltmp1534:
	.loc	16 169 20 is_stmt 0
	movq	%r15, -48(%rbp)
Ltmp1526:
	.loc	16 170 21 is_stmt 1
	callq	__ZN3std10sys_common6poison4Flag3new17h17da4b4837aefea3E
Ltmp1527:
Ltmp1535:
	.loc	16 0 0 is_stmt 0
	movl	%eax, %r14d
	leaq	-48(%rbp), %rbx
Ltmp1536:
	.loc	17 52 17 is_stmt 1
	movq	%rbx, %rdi
	callq	_pthread_mutexattr_init
Ltmp1537:
	.loc	17 54 17
	movq	%rbx, %rdi
	xorl	%esi, %esi
	callq	_pthread_mutexattr_settype
Ltmp1538:
	.loc	17 56 17
	movq	%r15, %rdi
	movq	%rbx, %rsi
	callq	_pthread_mutex_init
Ltmp1539:
	.loc	17 58 17
	movq	%rbx, %rdi
	callq	_pthread_mutexattr_destroy
Ltmp1540:
	.loc	16 176 9
	movl	-48(%rbp), %eax
	movl	-45(%rbp), %ecx
	movl	%eax, -32(%rbp)
	movl	%ecx, -29(%rbp)
Ltmp1541:
	.loc	58 67 29
	movq	-64(%rbp), %rax
	movq	-56(%rbp), %rcx
	movq	%rax, -48(%rbp)
	movq	%rcx, -40(%rbp)
Ltmp1542:
	.loc	15 80 5
	movl	$56, %edi
	movl	$8, %esi
	callq	___rust_alloc
Ltmp1543:
	.loc	15 269 9
	testq	%rax, %rax
	je	LBB48_4
Ltmp1544:
	.loc	28 322 29
	movaps	LCPI48_0(%rip), %xmm0
	movups	%xmm0, (%rax)
	movq	-48(%rbp), %rcx
	movq	-40(%rbp), %rdx
	movq	%rcx, 16(%rax)
	movq	%rdx, 24(%rax)
	movq	%r15, 32(%rax)
	movb	%r14b, 40(%rax)
	movl	-32(%rbp), %ecx
	movl	-29(%rbp), %edx
	movl	%ecx, 41(%rax)
	movl	%edx, 44(%rax)
	movq	$1, 48(%rax)
Ltmp1545:
	.loc	58 72 6
	addq	$40, %rsp
	popq	%rbx
	popq	%r14
Ltmp1546:
	popq	%r15
Ltmp1547:
	popq	%rbp
	retq
Ltmp1548:
LBB48_9:
	.loc	15 270 19
	movl	$64, %edi
	movl	$8, %esi
	callq	__ZN5alloc5alloc18handle_alloc_error17hbc0ab0ed90816c07E
Ltmp1549:
LBB48_4:
	.loc	15 270 19 is_stmt 0
	movl	$56, %edi
	movl	$8, %esi
	callq	__ZN5alloc5alloc18handle_alloc_error17hbc0ab0ed90816c07E
Ltmp1550:
LBB48_7:
Ltmp1528:
	.loc	15 0 19
	movq	%rax, %r14
	leaq	-48(%rbp), %rdi
Ltmp1551:
	.loc	16 172 9 is_stmt 1
	callq	__ZN4core3ptr13drop_in_place17hd68edae123b4cef3E
	jmp	LBB48_6
Ltmp1552:
LBB48_5:
Ltmp1525:
	.loc	16 0 9 is_stmt 0
	movq	%rax, %r14
	.loc	16 169 40 is_stmt 1
	movq	%r15, %rdi
	callq	__ZN5alloc5alloc8box_free17h051d7fe2c253b271E
Ltmp1553:
LBB48_6:
	.loc	16 0 40 is_stmt 0
	leaq	-64(%rbp), %rdi
	.loc	58 70 13 is_stmt 1
	callq	__ZN4core3ptr13drop_in_place17h4583eaa6ef2ea393E
	movq	%r14, %rdi
	callq	__Unwind_Resume
	ud2
Ltmp1554:
Lfunc_end48:
	.cfi_endproc
	.section	__TEXT,__gcc_except_tab
	.p2align	2
GCC_except_table48:
Lexception11:
	.byte	255
	.byte	255
	.byte	1
	.uleb128 Lcst_end11-Lcst_begin11
Lcst_begin11:
	.uleb128 Lfunc_begin48-Lfunc_begin48
	.uleb128 Ltmp1523-Lfunc_begin48
	.byte	0
	.byte	0
	.uleb128 Ltmp1523-Lfunc_begin48
	.uleb128 Ltmp1524-Ltmp1523
	.uleb128 Ltmp1525-Lfunc_begin48
	.byte	0
	.uleb128 Ltmp1526-Lfunc_begin48
	.uleb128 Ltmp1527-Ltmp1526
	.uleb128 Ltmp1528-Lfunc_begin48
	.byte	0
	.uleb128 Ltmp1527-Lfunc_begin48
	.uleb128 Lfunc_end48-Ltmp1527
	.byte	0
	.byte	0
Lcst_end11:
	.p2align	2

	.section	__TEXT,__text,regular,pure_instructions
	.globl	__ZN15crossbeam_utils4sync10wait_group9WaitGroup4wait17hc21fe515eecc2f96E
	.p2align	4, 0x90
__ZN15crossbeam_utils4sync10wait_group9WaitGroup4wait17hc21fe515eecc2f96E:
Lfunc_begin49:
	.loc	58 95 0
	.cfi_startproc
	.cfi_personality 155, _rust_eh_personality
	.cfi_lsda 16, Lexception12
	pushq	%rbp
	.cfi_def_cfa_offset 16
	.cfi_offset %rbp, -16
	movq	%rsp, %rbp
	.cfi_def_cfa_register %rbp
	pushq	%r15
	pushq	%r14
	pushq	%r13
	pushq	%r12
	pushq	%rbx
	subq	$40, %rsp
	.cfi_offset %rbx, -56
	.cfi_offset %r12, -48
	.cfi_offset %r13, -40
	.cfi_offset %r14, -32
	.cfi_offset %r15, -24
	movq	%rdi, %rbx
Ltmp1601:
	movq	%rdi, -72(%rbp)
Ltmp1602:
	.loc	16 219 13 prologue_end
	movq	32(%rdi), %rdi
Ltmp1603:
	.loc	17 63 17
	callq	_pthread_mutex_lock
Ltmp1604:
Ltmp1555:
	.loc	30 732 5
	callq	__ZN3std9panicking9panicking17h6f800ddc6c0d9b77E
Ltmp1556:
Ltmp1605:
	.loc	58 0 0 is_stmt 0
	leaq	32(%rbx), %r14
Ltmp1606:
	.loc	29 2276 20 is_stmt 1
	movb	40(%rbx), %cl
Ltmp1607:
	.loc	29 404 18
	testb	%cl, %cl
Ltmp1608:
	.loc	22 1004 13
	jne	LBB49_31
Ltmp1609:
	.loc	58 96 12
	movq	48(%rbx), %r15
Ltmp1610:
	.loc	35 34 12
	testb	%al, %al
	jne	LBB49_6
Ltmp1611:
Ltmp1562:
	.loc	30 732 5
	callq	__ZN3std9panicking9panicking17h6f800ddc6c0d9b77E
Ltmp1563:
Ltmp1612:
	.loc	35 34 12
	testb	%al, %al
	je	LBB49_6
Ltmp1613:
	.loc	29 2265 20
	movb	$1, 40(%rbx)
Ltmp1614:
LBB49_6:
	.loc	16 446 13
	movq	(%r14), %rdi
Ltmp1615:
	.loc	17 68 17
	callq	_pthread_mutex_unlock
Ltmp1616:
	.loc	58 96 12
	cmpq	$1, %r15
	.loc	58 96 9 is_stmt 0
	jne	LBB49_10
Ltmp1617:
Ltmp1598:
	.loc	58 0 9
	leaq	-72(%rbp), %rdi
Ltmp1618:
	.loc	18 178 1 is_stmt 1
	callq	__ZN86_$LT$crossbeam_utils..sync..wait_group..WaitGroup$u20$as$u20$core..ops..drop..Drop$GT$4drop17h44c77ff6ba8a0acdE
Ltmp1599:
Ltmp1619:
	.loc	29 2314 20
	lock		decq	(%rbx)
Ltmp1620:
	.loc	28 1346 9
	jne	LBB49_28
Ltmp1621:
	.loc	29 2563 24
	##MEMBARRIER
	leaq	-72(%rbp), %rdi
Ltmp1622:
	.loc	28 1381 13
	callq	__ZN5alloc4sync12Arc$LT$T$GT$9drop_slow17h9bead3a352a5adf0E
	jmp	LBB49_28
Ltmp1623:
LBB49_10:
	.loc	29 2303 20
	lock		incq	(%rbx)
Ltmp1624:
	.loc	28 1098 9
	jle	LBB49_30
Ltmp1625:
	.loc	58 100 21
	movq	%rbx, -80(%rbp)
Ltmp1626:
	.loc	58 0 21 is_stmt 0
	movq	%rbx, -64(%rbp)
Ltmp1627:
Ltmp1565:
	leaq	-64(%rbp), %rdi
Ltmp1628:
	.loc	18 178 1 is_stmt 1
	callq	__ZN86_$LT$crossbeam_utils..sync..wait_group..WaitGroup$u20$as$u20$core..ops..drop..Drop$GT$4drop17h44c77ff6ba8a0acdE
Ltmp1566:
Ltmp1629:
	.loc	29 2314 20
	lock		decq	(%rbx)
Ltmp1630:
	.loc	28 1346 9
	jne	LBB49_14
Ltmp1631:
	.loc	29 2563 24
	##MEMBARRIER
Ltmp1570:
	leaq	-64(%rbp), %rdi
Ltmp1632:
	.loc	28 1381 13
	callq	__ZN5alloc4sync12Arc$LT$T$GT$9drop_slow17h9bead3a352a5adf0E
Ltmp1571:
Ltmp1633:
LBB49_14:
	.loc	58 103 25
	movq	-80(%rbp), %r13
Ltmp1634:
	.loc	16 219 13
	movq	32(%r13), %rdi
Ltmp1635:
	.loc	17 63 17
	callq	_pthread_mutex_lock
Ltmp1636:
Ltmp1572:
	.loc	30 732 5
	callq	__ZN3std9panicking9panicking17h6f800ddc6c0d9b77E
	movb	%al, -41(%rbp)
Ltmp1573:
Ltmp1637:
	.loc	58 0 0 is_stmt 0
	leaq	32(%r13), %r14
Ltmp1638:
	.loc	29 2276 20 is_stmt 1
	movb	40(%r13), %al
Ltmp1639:
	.loc	29 404 18
	testb	%al, %al
Ltmp1640:
	.loc	22 1004 13
	jne	LBB49_32
Ltmp1641:
	.loc	58 104 15
	cmpq	$0, 48(%r13)
	.loc	58 104 9 is_stmt 0
	je	LBB49_22
Ltmp1642:
	.loc	58 0 9
	leaq	16(%r13), %r15
Ltmp1643:
	.p2align	4, 0x90
LBB49_18:
	movq	%r14, -64(%rbp)
	movzbl	-41(%rbp), %eax
	movb	%al, -56(%rbp)
Ltmp1644:
	.loc	16 466 5 is_stmt 1
	movq	(%r14), %rbx
Ltmp1645:
Ltmp1579:
	.loc	55 199 13
	movq	%r15, %rdi
	movq	%rbx, %rsi
	callq	__ZN3std4sync7condvar7Condvar6verify17h5d7bbe1888aa12e4E
Ltmp1580:
Ltmp1646:
	.loc	55 200 13
	movq	(%r15), %r12
Ltmp1581:
Ltmp1647:
	.loc	56 50 21
	movq	%rbx, %rdi
	callq	__ZN3std10sys_common5mutex3raw17h911237b982bd2918E
Ltmp1582:
Ltmp1648:
	.loc	57 73 17
	movq	%r12, %rdi
	movq	%rax, %rsi
	callq	_pthread_cond_wait
Ltmp1649:
	.loc	29 2276 20
	movzbl	40(%r13), %eax
Ltmp1650:
	.loc	29 404 18
	testb	%al, %al
Ltmp1651:
	.loc	22 1004 13
	jne	LBB49_29
Ltmp1652:
	.loc	58 104 15
	cmpq	$0, 48(%r13)
	.loc	58 104 9 is_stmt 0
	jne	LBB49_18
Ltmp1653:
LBB49_22:
	.loc	35 34 12 is_stmt 1
	cmpb	$0, -41(%rbp)
	jne	LBB49_26
Ltmp1592:
Ltmp1654:
	.loc	30 732 5
	callq	__ZN3std9panicking9panicking17h6f800ddc6c0d9b77E
Ltmp1593:
Ltmp1655:
	.loc	35 34 12
	testb	%al, %al
	je	LBB49_26
Ltmp1656:
	.loc	29 2265 20
	movb	$1, 40(%r13)
Ltmp1657:
LBB49_26:
	.loc	16 446 13
	movq	32(%r13), %rdi
Ltmp1658:
	.loc	17 68 17
	callq	_pthread_mutex_unlock
Ltmp1659:
	.loc	29 2314 20
	lock		decq	(%r13)
Ltmp1660:
	.loc	28 1346 9
	jne	LBB49_28
Ltmp1661:
	.loc	29 2563 24
	##MEMBARRIER
Ltmp1595:
	leaq	-80(%rbp), %rdi
Ltmp1662:
	.loc	28 1381 13
	callq	__ZN5alloc4sync12Arc$LT$T$GT$9drop_slow17h9bead3a352a5adf0E
Ltmp1596:
Ltmp1663:
LBB49_28:
	.loc	58 107 6
	addq	$40, %rsp
	popq	%rbx
	popq	%r12
	popq	%r13
	popq	%r14
	popq	%r15
	popq	%rbp
	retq
LBB49_29:
Ltmp1664:
	.loc	22 1005 17
	movq	%r14, -64(%rbp)
	movb	-41(%rbp), %al
	movb	%al, -56(%rbp)
Ltmp1586:
Ltmp1665:
	.loc	22 1005 23 is_stmt 0
	leaq	l___unnamed_21(%rip), %rdi
	leaq	l___unnamed_6(%rip), %rcx
	leaq	l___unnamed_49(%rip), %r8
	leaq	-64(%rbp), %rdx
	movl	$43, %esi
	callq	__ZN4core6result13unwrap_failed17hb5a510096a5fc85fE
Ltmp1587:
Ltmp1666:
LBB49_30:
	.loc	22 0 23
	ud2
LBB49_31:
Ltmp1667:
	.loc	22 1005 17
	movq	%r14, -64(%rbp)
	movb	%al, -56(%rbp)
Ltmp1557:
Ltmp1668:
	.loc	22 1005 23
	leaq	l___unnamed_21(%rip), %rdi
	leaq	l___unnamed_6(%rip), %rcx
	leaq	l___unnamed_50(%rip), %r8
	leaq	-64(%rbp), %rdx
	movl	$43, %esi
	callq	__ZN4core6result13unwrap_failed17hb5a510096a5fc85fE
Ltmp1669:
Ltmp1558:
	.loc	22 0 23
	jmp	LBB49_30
Ltmp1670:
LBB49_32:
	.loc	22 1005 17
	movq	%r14, -64(%rbp)
	movb	-41(%rbp), %al
	movb	%al, -56(%rbp)
Ltmp1574:
Ltmp1671:
	.loc	22 1005 23
	leaq	l___unnamed_21(%rip), %rdi
	leaq	l___unnamed_6(%rip), %rcx
	leaq	l___unnamed_51(%rip), %r8
	leaq	-64(%rbp), %rdx
	movl	$43, %esi
	callq	__ZN4core6result13unwrap_failed17hb5a510096a5fc85fE
Ltmp1575:
	jmp	LBB49_30
Ltmp1672:
LBB49_33:
Ltmp1576:
	.loc	22 0 23
	movq	%rax, %rbx
Ltmp1673:
Ltmp1577:
	leaq	-64(%rbp), %rdi
	.loc	22 1005 87
	callq	__ZN4core3ptr13drop_in_place17h1e8ee9b3757cb9d8E
Ltmp1578:
	jmp	LBB49_44
Ltmp1674:
LBB49_34:
Ltmp1559:
	.loc	22 0 87
	movq	%rax, %rbx
Ltmp1675:
Ltmp1560:
	leaq	-64(%rbp), %rdi
Ltmp1676:
	.loc	22 1005 87
	callq	__ZN4core3ptr13drop_in_place17h1e8ee9b3757cb9d8E
Ltmp1561:
	jmp	LBB49_42
Ltmp1677:
LBB49_35:
Ltmp1588:
	.loc	22 0 87
	movq	%rax, %rbx
Ltmp1678:
Ltmp1589:
	leaq	-64(%rbp), %rdi
Ltmp1679:
	.loc	22 1005 87
	callq	__ZN4core3ptr13drop_in_place17h1e8ee9b3757cb9d8E
Ltmp1590:
	jmp	LBB49_44
Ltmp1680:
LBB49_36:
Ltmp1597:
	.loc	22 0 87
	movq	%rax, %rbx
	movq	%rbx, %rdi
	callq	__Unwind_Resume
	ud2
Ltmp1681:
LBB49_37:
Ltmp1567:
	movq	%rax, %rbx
Ltmp1682:
Ltmp1568:
	leaq	-64(%rbp), %rdi
Ltmp1683:
	.loc	18 178 1 is_stmt 1
	callq	__ZN4core3ptr13drop_in_place17hfac8a02a453e0c83E
Ltmp1569:
	jmp	LBB49_44
Ltmp1684:
LBB49_38:
Ltmp1600:
	.loc	18 0 1 is_stmt 0
	movq	%rax, %rbx
	leaq	-72(%rbp), %rdi
	callq	__ZN4core3ptr13drop_in_place17hfac8a02a453e0c83E
	movq	%rbx, %rdi
	callq	__Unwind_Resume
	ud2
Ltmp1685:
LBB49_39:
Ltmp1594:
LBB49_40:
	movq	%rax, %rbx
	jmp	LBB49_44
LBB49_41:
Ltmp1564:
	movq	%rax, %rbx
LBB49_42:
Ltmp1686:
	leaq	-72(%rbp), %rdi
	.loc	58 107 5 is_stmt 1
	callq	__ZN4core3ptr13drop_in_place17he1d8ccd08b28b06fE
	movq	%rbx, %rdi
	callq	__Unwind_Resume
	ud2
Ltmp1687:
LBB49_43:
Ltmp1583:
	.loc	58 0 5 is_stmt 0
	movq	%rax, %rbx
Ltmp1688:
Ltmp1584:
	leaq	-64(%rbp), %rdi
Ltmp1689:
	.loc	55 204 5 is_stmt 1
	callq	__ZN4core3ptr13drop_in_place17h32275ec3e919b00cE
Ltmp1585:
Ltmp1690:
LBB49_44:
	.loc	55 0 5 is_stmt 0
	leaq	-80(%rbp), %rdi
	callq	__ZN4core3ptr13drop_in_place17hfac8a02a453e0c83E
	movq	%rbx, %rdi
	callq	__Unwind_Resume
	ud2
Ltmp1691:
LBB49_45:
Ltmp1591:
	jmp	LBB49_40
Lfunc_end49:
	.cfi_endproc
	.section	__TEXT,__gcc_except_tab
	.p2align	2
GCC_except_table49:
Lexception12:
	.byte	255
	.byte	255
	.byte	1
	.uleb128 Lcst_end12-Lcst_begin12
Lcst_begin12:
	.uleb128 Ltmp1555-Lfunc_begin49
	.uleb128 Ltmp1563-Ltmp1555
	.uleb128 Ltmp1564-Lfunc_begin49
	.byte	0
	.uleb128 Ltmp1598-Lfunc_begin49
	.uleb128 Ltmp1599-Ltmp1598
	.uleb128 Ltmp1600-Lfunc_begin49
	.byte	0
	.uleb128 Ltmp1599-Lfunc_begin49
	.uleb128 Ltmp1565-Ltmp1599
	.byte	0
	.byte	0
	.uleb128 Ltmp1565-Lfunc_begin49
	.uleb128 Ltmp1566-Ltmp1565
	.uleb128 Ltmp1567-Lfunc_begin49
	.byte	0
	.uleb128 Ltmp1570-Lfunc_begin49
	.uleb128 Ltmp1573-Ltmp1570
	.uleb128 Ltmp1594-Lfunc_begin49
	.byte	0
	.uleb128 Ltmp1579-Lfunc_begin49
	.uleb128 Ltmp1582-Ltmp1579
	.uleb128 Ltmp1583-Lfunc_begin49
	.byte	0
	.uleb128 Ltmp1592-Lfunc_begin49
	.uleb128 Ltmp1593-Ltmp1592
	.uleb128 Ltmp1594-Lfunc_begin49
	.byte	0
	.uleb128 Ltmp1595-Lfunc_begin49
	.uleb128 Ltmp1596-Ltmp1595
	.uleb128 Ltmp1597-Lfunc_begin49
	.byte	0
	.uleb128 Ltmp1586-Lfunc_begin49
	.uleb128 Ltmp1587-Ltmp1586
	.uleb128 Ltmp1588-Lfunc_begin49
	.byte	0
	.uleb128 Ltmp1557-Lfunc_begin49
	.uleb128 Ltmp1558-Ltmp1557
	.uleb128 Ltmp1559-Lfunc_begin49
	.byte	0
	.uleb128 Ltmp1574-Lfunc_begin49
	.uleb128 Ltmp1575-Ltmp1574
	.uleb128 Ltmp1576-Lfunc_begin49
	.byte	0
	.uleb128 Ltmp1577-Lfunc_begin49
	.uleb128 Ltmp1578-Ltmp1577
	.uleb128 Ltmp1594-Lfunc_begin49
	.byte	0
	.uleb128 Ltmp1560-Lfunc_begin49
	.uleb128 Ltmp1561-Ltmp1560
	.uleb128 Ltmp1564-Lfunc_begin49
	.byte	0
	.uleb128 Ltmp1589-Lfunc_begin49
	.uleb128 Ltmp1590-Ltmp1589
	.uleb128 Ltmp1591-Lfunc_begin49
	.byte	0
	.uleb128 Ltmp1590-Lfunc_begin49
	.uleb128 Ltmp1568-Ltmp1590
	.byte	0
	.byte	0
	.uleb128 Ltmp1568-Lfunc_begin49
	.uleb128 Ltmp1569-Ltmp1568
	.uleb128 Ltmp1594-Lfunc_begin49
	.byte	0
	.uleb128 Ltmp1569-Lfunc_begin49
	.uleb128 Ltmp1584-Ltmp1569
	.byte	0
	.byte	0
	.uleb128 Ltmp1584-Lfunc_begin49
	.uleb128 Ltmp1585-Ltmp1584
	.uleb128 Ltmp1591-Lfunc_begin49
	.byte	0
	.uleb128 Ltmp1585-Lfunc_begin49
	.uleb128 Lfunc_end49-Ltmp1585
	.byte	0
	.byte	0
Lcst_end12:
	.p2align	2

	.section	__TEXT,__text,regular,pure_instructions
	.globl	__ZN86_$LT$crossbeam_utils..sync..wait_group..WaitGroup$u20$as$u20$core..ops..drop..Drop$GT$4drop17h44c77ff6ba8a0acdE
	.p2align	4, 0x90
__ZN86_$LT$crossbeam_utils..sync..wait_group..WaitGroup$u20$as$u20$core..ops..drop..Drop$GT$4drop17h44c77ff6ba8a0acdE:
Lfunc_begin50:
	.loc	58 111 0 is_stmt 1
	.cfi_startproc
	.cfi_personality 155, _rust_eh_personality
	.cfi_lsda 16, Lexception13
	pushq	%rbp
	.cfi_def_cfa_offset 16
	.cfi_offset %rbp, -16
	movq	%rsp, %rbp
	.cfi_def_cfa_register %rbp
	pushq	%r15
	pushq	%r14
	pushq	%r12
	pushq	%rbx
	subq	$16, %rsp
	.cfi_offset %rbx, -48
	.cfi_offset %r12, -40
	.cfi_offset %r14, -32
	.cfi_offset %r15, -24
	movq	%rdi, %r14
Ltmp1700:
	.loc	58 112 25 prologue_end
	movq	(%rdi), %rbx
	leaq	32(%rbx), %r15
Ltmp1701:
	.loc	16 219 13
	movq	32(%rbx), %rdi
Ltmp1702:
	.loc	17 63 17
	callq	_pthread_mutex_lock
Ltmp1703:
	.loc	30 732 5
	callq	__ZN3std9panicking9panicking17h6f800ddc6c0d9b77E
	movl	%eax, %r12d
Ltmp1704:
	.loc	29 2276 20
	movb	40(%rbx), %al
Ltmp1705:
	.loc	29 404 18
	testb	%al, %al
Ltmp1706:
	.loc	22 1004 13
	jne	LBB50_1
Ltmp1707:
	.loc	58 112 25
	movq	%r15, -48(%rbp)
	movb	%r12b, -40(%rbp)
Ltmp1708:
	.loc	58 113 9
	movq	48(%rbx), %rax
	subq	$1, %rax
	jb	LBB50_11
Ltmp1709:
	movq	%rax, 48(%rbx)
	.loc	58 115 12
	testq	%rax, %rax
	.loc	58 115 9 is_stmt 0
	jne	LBB50_6
Ltmp1710:
	.loc	58 116 13 is_stmt 1
	movq	(%r14), %rdi
Ltmp1711:
	.loc	28 1114 9
	addq	$16, %rdi
Ltmp1712:
Ltmp1695:
	.loc	58 116 13
	callq	__ZN3std4sync7condvar7Condvar10notify_all17h5fe572e6f77e52bdE
Ltmp1696:
Ltmp1713:
LBB50_6:
	.loc	35 34 12
	testb	%r12b, %r12b
	jne	LBB50_9
Ltmp1714:
	.loc	30 732 5
	callq	__ZN3std9panicking9panicking17h6f800ddc6c0d9b77E
Ltmp1715:
	.loc	35 34 12
	testb	%al, %al
	je	LBB50_9
Ltmp1716:
	.loc	29 2265 20
	movb	$1, 40(%rbx)
Ltmp1717:
LBB50_9:
	.loc	16 446 13
	movq	(%r15), %rdi
Ltmp1718:
	.loc	17 68 17
	addq	$16, %rsp
	popq	%rbx
	popq	%r12
	popq	%r14
Ltmp1719:
	popq	%r15
	popq	%rbp
	jmp	_pthread_mutex_unlock
Ltmp1720:
LBB50_1:
	.loc	22 1005 17
	movq	%r15, -48(%rbp)
	movb	%r12b, -40(%rbp)
Ltmp1692:
Ltmp1721:
	.loc	22 1005 23 is_stmt 0
	leaq	l___unnamed_21(%rip), %rdi
	leaq	l___unnamed_6(%rip), %rcx
	leaq	l___unnamed_52(%rip), %r8
	leaq	-48(%rbp), %rdx
	movl	$43, %esi
	callq	__ZN4core6result13unwrap_failed17hb5a510096a5fc85fE
Ltmp1693:
	jmp	LBB50_2
Ltmp1722:
LBB50_11:
Ltmp1697:
	.loc	58 113 9 is_stmt 1
	leaq	_str.2(%rip), %rdi
	leaq	l___unnamed_53(%rip), %rdx
	movl	$33, %esi
	callq	__ZN4core9panicking5panic17h736ee47a631475c0E
Ltmp1698:
Ltmp1723:
LBB50_2:
	.loc	58 0 9 is_stmt 0
	ud2
Ltmp1724:
LBB50_12:
Ltmp1694:
	movq	%rax, %rbx
	leaq	-48(%rbp), %rdi
Ltmp1725:
	.loc	22 1005 87 is_stmt 1
	callq	__ZN4core3ptr13drop_in_place17h1e8ee9b3757cb9d8E
	movq	%rbx, %rdi
	callq	__Unwind_Resume
	ud2
Ltmp1726:
LBB50_10:
Ltmp1699:
	.loc	22 0 87 is_stmt 0
	movq	%rax, %rbx
	leaq	-48(%rbp), %rdi
	.loc	58 118 5 is_stmt 1
	callq	__ZN4core3ptr13drop_in_place17h32275ec3e919b00cE
	movq	%rbx, %rdi
	callq	__Unwind_Resume
	ud2
Ltmp1727:
Lfunc_end50:
	.cfi_endproc
	.section	__TEXT,__gcc_except_tab
	.p2align	2
GCC_except_table50:
Lexception13:
	.byte	255
	.byte	255
	.byte	1
	.uleb128 Lcst_end13-Lcst_begin13
Lcst_begin13:
	.uleb128 Lfunc_begin50-Lfunc_begin50
	.uleb128 Ltmp1695-Lfunc_begin50
	.byte	0
	.byte	0
	.uleb128 Ltmp1695-Lfunc_begin50
	.uleb128 Ltmp1696-Ltmp1695
	.uleb128 Ltmp1699-Lfunc_begin50
	.byte	0
	.uleb128 Ltmp1696-Lfunc_begin50
	.uleb128 Ltmp1692-Ltmp1696
	.byte	0
	.byte	0
	.uleb128 Ltmp1692-Lfunc_begin50
	.uleb128 Ltmp1693-Ltmp1692
	.uleb128 Ltmp1694-Lfunc_begin50
	.byte	0
	.uleb128 Ltmp1697-Lfunc_begin50
	.uleb128 Ltmp1698-Ltmp1697
	.uleb128 Ltmp1699-Lfunc_begin50
	.byte	0
	.uleb128 Ltmp1698-Lfunc_begin50
	.uleb128 Lfunc_end50-Ltmp1698
	.byte	0
	.byte	0
Lcst_end13:
	.p2align	2

	.section	__TEXT,__text,regular,pure_instructions
	.globl	__ZN83_$LT$crossbeam_utils..sync..wait_group..WaitGroup$u20$as$u20$core..clone..Clone$GT$5clone17h0b2250d960f92da5E
	.p2align	4, 0x90
__ZN83_$LT$crossbeam_utils..sync..wait_group..WaitGroup$u20$as$u20$core..clone..Clone$GT$5clone17h0b2250d960f92da5E:
Lfunc_begin51:
	.loc	58 122 0
	.cfi_startproc
	.cfi_personality 155, _rust_eh_personality
	.cfi_lsda 16, Lexception14
	pushq	%rbp
	.cfi_def_cfa_offset 16
	.cfi_offset %rbp, -16
	movq	%rsp, %rbp
	.cfi_def_cfa_register %rbp
Ltmp1734:
	pushq	%r14
	pushq	%rbx
	subq	$16, %rsp
	.cfi_offset %rbx, -32
	.cfi_offset %r14, -24
	.loc	58 123 25 prologue_end
	movq	(%rdi), %rbx
Ltmp1735:
	leaq	32(%rbx), %r14
Ltmp1736:
	.loc	16 219 13
	movq	32(%rbx), %rdi
Ltmp1737:
	.loc	17 63 17
	callq	_pthread_mutex_lock
Ltmp1738:
	.loc	30 732 5
	callq	__ZN3std9panicking9panicking17h6f800ddc6c0d9b77E
Ltmp1739:
	.loc	29 2276 20
	movb	40(%rbx), %cl
Ltmp1740:
	.loc	29 404 18
	testb	%cl, %cl
Ltmp1741:
	.loc	22 1004 13
	jne	LBB51_1
Ltmp1742:
	.loc	58 123 25
	movq	%r14, -32(%rbp)
	movb	%al, -24(%rbp)
Ltmp1743:
	.loc	58 124 9
	movq	48(%rbx), %rcx
	incq	%rcx
	je	LBB51_10
Ltmp1744:
	movq	%rcx, 48(%rbx)
Ltmp1745:
	.loc	29 2303 20
	lock		incq	(%rbx)
Ltmp1746:
	.loc	28 1098 9
	jle	LBB51_2
Ltmp1747:
	.loc	35 34 12
	testb	%al, %al
	jne	LBB51_8
Ltmp1748:
	.loc	30 732 5
	callq	__ZN3std9panicking9panicking17h6f800ddc6c0d9b77E
Ltmp1749:
	.loc	35 34 12
	testb	%al, %al
	je	LBB51_8
Ltmp1750:
	.loc	29 2265 20
	movb	$1, 40(%rbx)
Ltmp1751:
LBB51_8:
	.loc	16 446 13
	movq	32(%rbx), %rdi
Ltmp1752:
	.loc	17 68 17
	callq	_pthread_mutex_unlock
Ltmp1753:
	.loc	58 129 6
	movq	%rbx, %rax
	addq	$16, %rsp
	popq	%rbx
	popq	%r14
	popq	%rbp
	retq
Ltmp1754:
LBB51_1:
	.loc	22 1005 17
	movq	%r14, -32(%rbp)
	movb	%al, -24(%rbp)
Ltmp1728:
Ltmp1755:
	.loc	22 1005 23 is_stmt 0
	leaq	l___unnamed_21(%rip), %rdi
	leaq	l___unnamed_6(%rip), %rcx
	leaq	l___unnamed_54(%rip), %r8
	leaq	-32(%rbp), %rdx
	movl	$43, %esi
	callq	__ZN4core6result13unwrap_failed17hb5a510096a5fc85fE
Ltmp1756:
Ltmp1729:
	.loc	22 0 23
	jmp	LBB51_2
Ltmp1757:
LBB51_10:
Ltmp1731:
	.loc	58 124 9 is_stmt 1
	leaq	_str.0(%rip), %rdi
	leaq	l___unnamed_55(%rip), %rdx
	movl	$28, %esi
	callq	__ZN4core9panicking5panic17h736ee47a631475c0E
Ltmp1732:
Ltmp1758:
LBB51_2:
	.loc	58 0 9 is_stmt 0
	ud2
LBB51_9:
Ltmp1733:
Ltmp1759:
	movq	%rax, %rbx
	leaq	-32(%rbp), %rdi
	.loc	58 129 5 is_stmt 1
	callq	__ZN4core3ptr13drop_in_place17h32275ec3e919b00cE
	movq	%rbx, %rdi
	callq	__Unwind_Resume
	ud2
Ltmp1760:
LBB51_11:
Ltmp1730:
	.loc	58 0 5 is_stmt 0
	movq	%rax, %rbx
	leaq	-32(%rbp), %rdi
Ltmp1761:
	.loc	22 1005 87 is_stmt 1
	callq	__ZN4core3ptr13drop_in_place17h1e8ee9b3757cb9d8E
	movq	%rbx, %rdi
	callq	__Unwind_Resume
	ud2
Ltmp1762:
Lfunc_end51:
	.cfi_endproc
	.section	__TEXT,__gcc_except_tab
	.p2align	2
GCC_except_table51:
Lexception14:
	.byte	255
	.byte	255
	.byte	1
	.uleb128 Lcst_end14-Lcst_begin14
Lcst_begin14:
	.uleb128 Lfunc_begin51-Lfunc_begin51
	.uleb128 Ltmp1728-Lfunc_begin51
	.byte	0
	.byte	0
	.uleb128 Ltmp1728-Lfunc_begin51
	.uleb128 Ltmp1729-Ltmp1728
	.uleb128 Ltmp1730-Lfunc_begin51
	.byte	0
	.uleb128 Ltmp1731-Lfunc_begin51
	.uleb128 Ltmp1732-Ltmp1731
	.uleb128 Ltmp1733-Lfunc_begin51
	.byte	0
	.uleb128 Ltmp1732-Lfunc_begin51
	.uleb128 Lfunc_end51-Ltmp1732
	.byte	0
	.byte	0
Lcst_end14:
	.p2align	2

	.section	__TEXT,__text,regular,pure_instructions
	.globl	__ZN81_$LT$crossbeam_utils..sync..wait_group..WaitGroup$u20$as$u20$core..fmt..Debug$GT$3fmt17hfb9d89d46dcec499E
	.p2align	4, 0x90
__ZN81_$LT$crossbeam_utils..sync..wait_group..WaitGroup$u20$as$u20$core..fmt..Debug$GT$3fmt17hfb9d89d46dcec499E:
Lfunc_begin52:
	.loc	58 133 0
	.cfi_startproc
	.cfi_personality 155, _rust_eh_personality
	.cfi_lsda 16, Lexception15
	pushq	%rbp
	.cfi_def_cfa_offset 16
	.cfi_offset %rbp, -16
	movq	%rsp, %rbp
	.cfi_def_cfa_register %rbp
	pushq	%r15
	pushq	%r14
	pushq	%r12
	pushq	%rbx
	subq	$32, %rsp
	.cfi_offset %rbx, -48
	.cfi_offset %r12, -40
	.cfi_offset %r14, -32
	.cfi_offset %r15, -24
	movq	%rsi, %r14
Ltmp1773:
	.loc	58 134 31 prologue_end
	movq	(%rdi), %rbx
	leaq	32(%rbx), %r12
Ltmp1774:
	.loc	16 219 13
	movq	32(%rbx), %rdi
Ltmp1775:
	.loc	17 63 17
	callq	_pthread_mutex_lock
Ltmp1776:
	.loc	30 732 5
	callq	__ZN3std9panicking9panicking17h6f800ddc6c0d9b77E
	movl	%eax, %r15d
Ltmp1777:
	.loc	29 2276 20
	movb	40(%rbx), %al
Ltmp1778:
	.loc	29 404 18
	testb	%al, %al
Ltmp1779:
	.loc	22 1004 13
	jne	LBB52_1
Ltmp1780:
	.loc	58 134 31
	movq	%r12, -64(%rbp)
	movb	%r15b, -56(%rbp)
Ltmp1781:
Ltmp1766:
	.loc	58 135 9
	leaq	l___unnamed_56(%rip), %rdx
	leaq	-48(%rbp), %rdi
	movl	$9, %ecx
	movq	%r14, %rsi
	callq	__ZN4core3fmt9Formatter12debug_struct17h985c0158d1fc7193E
Ltmp1767:
Ltmp1782:
	.loc	16 429 20
	leaq	48(%rbx), %rcx
Ltmp1783:
Ltmp1768:
	.loc	58 135 9
	leaq	l___unnamed_57(%rip), %rsi
	leaq	l___unnamed_12(%rip), %r8
	leaq	-48(%rbp), %rdi
	movl	$5, %edx
	callq	__ZN4core3fmt8builders11DebugStruct5field17h9c15dc155278eed2E
Ltmp1784:
Ltmp1769:
Ltmp1770:
	movq	%rax, %rdi
	callq	__ZN4core3fmt8builders11DebugStruct6finish17h26808393f3fed630E
Ltmp1771:
Ltmp1785:
	.loc	58 0 0 is_stmt 0
	movl	%eax, %r14d
Ltmp1786:
	.loc	35 34 12 is_stmt 1
	testb	%r15b, %r15b
	jne	LBB52_10
Ltmp1787:
	.loc	30 732 5
	callq	__ZN3std9panicking9panicking17h6f800ddc6c0d9b77E
Ltmp1788:
	.loc	35 34 12
	testb	%al, %al
	je	LBB52_10
Ltmp1789:
	.loc	29 2265 20
	movb	$1, 40(%rbx)
Ltmp1790:
LBB52_10:
	.loc	16 446 13
	movq	(%r12), %rdi
Ltmp1791:
	.loc	17 68 17
	callq	_pthread_mutex_unlock
Ltmp1792:
	.loc	58 136 6
	movl	%r14d, %eax
	addq	$32, %rsp
	popq	%rbx
	popq	%r12
	popq	%r14
	popq	%r15
	popq	%rbp
	retq
Ltmp1793:
LBB52_1:
	.loc	22 1005 17
	movq	%r12, -48(%rbp)
	movb	%r15b, -40(%rbp)
Ltmp1763:
Ltmp1794:
	.loc	22 1005 23 is_stmt 0
	leaq	l___unnamed_21(%rip), %rdi
	leaq	l___unnamed_6(%rip), %rcx
	leaq	l___unnamed_58(%rip), %r8
	leaq	-48(%rbp), %rdx
	movl	$43, %esi
	callq	__ZN4core6result13unwrap_failed17hb5a510096a5fc85fE
Ltmp1764:
Ltmp1795:
	.loc	22 0 23
	ud2
Ltmp1796:
LBB52_3:
Ltmp1765:
	movq	%rax, %rbx
	leaq	-48(%rbp), %rdi
	.loc	22 1005 87
	callq	__ZN4core3ptr13drop_in_place17h1e8ee9b3757cb9d8E
	movq	%rbx, %rdi
	callq	__Unwind_Resume
	ud2
Ltmp1797:
LBB52_11:
Ltmp1772:
	.loc	22 0 87
	movq	%rax, %rbx
	leaq	-64(%rbp), %rdi
	.loc	58 136 5 is_stmt 1
	callq	__ZN4core3ptr13drop_in_place17h32275ec3e919b00cE
	movq	%rbx, %rdi
	callq	__Unwind_Resume
	ud2
Ltmp1798:
Lfunc_end52:
	.cfi_endproc
	.section	__TEXT,__gcc_except_tab
	.p2align	2
GCC_except_table52:
Lexception15:
	.byte	255
	.byte	255
	.byte	1
	.uleb128 Lcst_end15-Lcst_begin15
Lcst_begin15:
	.uleb128 Lfunc_begin52-Lfunc_begin52
	.uleb128 Ltmp1766-Lfunc_begin52
	.byte	0
	.byte	0
	.uleb128 Ltmp1766-Lfunc_begin52
	.uleb128 Ltmp1771-Ltmp1766
	.uleb128 Ltmp1772-Lfunc_begin52
	.byte	0
	.uleb128 Ltmp1771-Lfunc_begin52
	.uleb128 Ltmp1763-Ltmp1771
	.byte	0
	.byte	0
	.uleb128 Ltmp1763-Lfunc_begin52
	.uleb128 Ltmp1764-Ltmp1763
	.uleb128 Ltmp1765-Lfunc_begin52
	.byte	0
	.uleb128 Ltmp1764-Lfunc_begin52
	.uleb128 Lfunc_end52-Ltmp1764
	.byte	0
	.byte	0
Lcst_end15:
	.p2align	2

	.section	__TEXT,__text,regular,pure_instructions
	.globl	__ZN15crossbeam_utils6thread5Scope7builder17hd2057f370d7d9e43E
	.p2align	4, 0x90
__ZN15crossbeam_utils6thread5Scope7builder17hd2057f370d7d9e43E:
Lfunc_begin53:
	.loc	41 263 0
	.cfi_startproc
	pushq	%rbp
	.cfi_def_cfa_offset 16
	.cfi_offset %rbp, -16
	movq	%rsp, %rbp
	.cfi_def_cfa_register %rbp
	pushq	%r14
	pushq	%rbx
	subq	$48, %rsp
	.cfi_offset %rbx, -32
	.cfi_offset %r14, -24
	movq	%rsi, %r14
Ltmp1799:
	movq	%rdi, %rbx
	leaq	-56(%rbp), %rdi
Ltmp1800:
	.loc	41 266 22 prologue_end
	callq	__ZN3std6thread7Builder3new17h62e193761df98672E
	.loc	41 264 9
	movq	%r14, (%rbx)
	movq	-56(%rbp), %rax
	movq	-48(%rbp), %rcx
	movq	%rax, 8(%rbx)
	movq	%rcx, 16(%rbx)
	movq	-40(%rbp), %rax
	movq	%rax, 24(%rbx)
	movq	-32(%rbp), %rax
	movq	%rax, 32(%rbx)
	movq	-24(%rbp), %rax
	movq	%rax, 40(%rbx)
	.loc	41 268 6
	movq	%rbx, %rax
	addq	$48, %rsp
	popq	%rbx
	popq	%r14
Ltmp1801:
	popq	%rbp
	retq
Ltmp1802:
Lfunc_end53:
	.cfi_endproc

	.globl	__ZN67_$LT$crossbeam_utils..thread..Scope$u20$as$u20$core..fmt..Debug$GT$3fmt17hfc467b592ebc497bE
	.p2align	4, 0x90
__ZN67_$LT$crossbeam_utils..thread..Scope$u20$as$u20$core..fmt..Debug$GT$3fmt17hfc467b592ebc497bE:
Lfunc_begin54:
	.loc	41 272 0
	.cfi_startproc
	pushq	%rbp
	.cfi_def_cfa_offset 16
	.cfi_offset %rbp, -16
	movq	%rsp, %rbp
	.cfi_def_cfa_register %rbp
	movq	%rsi, %rdi
Ltmp1803:
	.loc	41 273 9 prologue_end
	leaq	l___unnamed_26(%rip), %rsi
	movl	$12, %edx
	popq	%rbp
	jmp	__ZN4core3fmt9Formatter3pad17he4a76f49c06ce69bE
Ltmp1804:
Lfunc_end54:
	.cfi_endproc

	.globl	__ZN15crossbeam_utils6thread19ScopedThreadBuilder4name17h8f3bd748ee33b886E
	.p2align	4, 0x90
__ZN15crossbeam_utils6thread19ScopedThreadBuilder4name17h8f3bd748ee33b886E:
Lfunc_begin55:
	.loc	41 337 0
	.cfi_startproc
	pushq	%rbp
	.cfi_def_cfa_offset 16
	.cfi_offset %rbp, -16
	movq	%rsp, %rbp
	.cfi_def_cfa_register %rbp
	pushq	%r14
	pushq	%rbx
	subq	$112, %rsp
	.cfi_offset %rbx, -32
	.cfi_offset %r14, -24
	movq	%rsi, %rbx
Ltmp1805:
	movq	%rdi, %r14
Ltmp1806:
	.loc	41 338 24 prologue_end
	movq	40(%rsi), %rax
	movq	%rax, -88(%rbp)
	movq	32(%rsi), %rax
	movq	%rax, -96(%rbp)
	movq	24(%rsi), %rax
	movq	%rax, -104(%rbp)
	movq	8(%rsi), %rax
	movq	16(%rsi), %rcx
	movq	%rcx, -112(%rbp)
	movq	%rax, -120(%rbp)
	.loc	41 338 42 is_stmt 0
	movq	16(%rdx), %rax
	movq	%rax, -24(%rbp)
	movq	(%rdx), %rax
	movq	8(%rdx), %rcx
	movq	%rcx, -32(%rbp)
	movq	%rax, -40(%rbp)
	leaq	-80(%rbp), %rdi
	leaq	-120(%rbp), %rsi
	leaq	-40(%rbp), %rdx
Ltmp1807:
	.loc	41 338 24
	callq	__ZN3std6thread7Builder4name17h1bd22bf208967722E
	.loc	41 338 9
	movq	-48(%rbp), %rax
	movq	%rax, 40(%rbx)
	movq	-56(%rbp), %rax
	movq	%rax, 32(%rbx)
	movq	-64(%rbp), %rax
	movq	%rax, 24(%rbx)
	movq	-80(%rbp), %rax
	movq	-72(%rbp), %rcx
	movq	%rcx, 16(%rbx)
	movq	%rax, 8(%rbx)
	.loc	41 339 9 is_stmt 1
	movq	40(%rbx), %rax
	movq	%rax, 40(%r14)
	movq	32(%rbx), %rax
	movq	%rax, 32(%r14)
	movq	24(%rbx), %rax
	movq	%rax, 24(%r14)
	movq	16(%rbx), %rax
	movq	%rax, 16(%r14)
	movq	(%rbx), %rax
	movq	8(%rbx), %rcx
	movq	%rcx, 8(%r14)
	movq	%rax, (%r14)
	.loc	41 340 6
	movq	%r14, %rax
	addq	$112, %rsp
	popq	%rbx
Ltmp1808:
	popq	%r14
	popq	%rbp
	retq
Ltmp1809:
Lfunc_end55:
	.cfi_endproc

	.globl	__ZN15crossbeam_utils6thread19ScopedThreadBuilder10stack_size17h48b5f2f57e11d329E
	.p2align	4, 0x90
__ZN15crossbeam_utils6thread19ScopedThreadBuilder10stack_size17h48b5f2f57e11d329E:
Lfunc_begin56:
	.loc	41 358 0
	.cfi_startproc
	pushq	%rbp
	.cfi_def_cfa_offset 16
	.cfi_offset %rbp, -16
	movq	%rsp, %rbp
	.cfi_def_cfa_register %rbp
	pushq	%r14
	pushq	%rbx
	subq	$80, %rsp
	.cfi_offset %rbx, -32
	.cfi_offset %r14, -24
	movq	%rsi, %rbx
Ltmp1810:
	movq	%rdi, %r14
Ltmp1811:
	.loc	41 359 24 prologue_end
	movq	40(%rsi), %rax
	movq	%rax, -64(%rbp)
	movq	32(%rsi), %rax
	movq	%rax, -72(%rbp)
	movq	24(%rsi), %rax
	movq	%rax, -80(%rbp)
	movq	8(%rsi), %rax
	movq	16(%rsi), %rcx
	movq	%rcx, -88(%rbp)
	movq	%rax, -96(%rbp)
	leaq	-56(%rbp), %rdi
	leaq	-96(%rbp), %rsi
	callq	__ZN3std6thread7Builder10stack_size17h1b421aa0a0881a59E
Ltmp1812:
	.loc	41 359 9 is_stmt 0
	movq	-24(%rbp), %rax
	movq	%rax, 40(%rbx)
	movq	-32(%rbp), %rax
	movq	%rax, 32(%rbx)
	movq	-40(%rbp), %rax
	movq	%rax, 24(%rbx)
	movq	-56(%rbp), %rax
	movq	-48(%rbp), %rcx
	movq	%rcx, 16(%rbx)
	movq	%rax, 8(%rbx)
	.loc	41 360 9 is_stmt 1
	movq	40(%rbx), %rax
	movq	%rax, 40(%r14)
	movq	32(%rbx), %rax
	movq	%rax, 32(%r14)
	movq	24(%rbx), %rax
	movq	%rax, 24(%r14)
	movq	16(%rbx), %rax
	movq	%rax, 16(%r14)
	movq	(%rbx), %rax
	movq	8(%rbx), %rcx
	movq	%rcx, 8(%r14)
	movq	%rax, (%r14)
	.loc	41 361 6
	movq	%r14, %rax
	addq	$80, %rsp
	popq	%rbx
Ltmp1813:
	popq	%r14
	popq	%rbp
	retq
Ltmp1814:
Lfunc_end56:
	.cfi_endproc

	.globl	__ZN95_$LT$crossbeam_utils..sync..sharded_lock..THREAD_INDICES$u20$as$u20$core..ops..deref..Deref$GT$5deref17hb14eabcf4ff93c14E
	.p2align	4, 0x90
__ZN95_$LT$crossbeam_utils..sync..sharded_lock..THREAD_INDICES$u20$as$u20$core..ops..deref..Deref$GT$5deref17hb14eabcf4ff93c14E:
Lfunc_begin57:
	.loc	2 135 0
	.cfi_startproc
	pushq	%rbp
	.cfi_def_cfa_offset 16
	.cfi_offset %rbp, -16
	movq	%rsp, %rbp
	.cfi_def_cfa_register %rbp
	subq	$32, %rsp
	leaq	__ZN95_$LT$crossbeam_utils..sync..sharded_lock..THREAD_INDICES$u20$as$u20$core..ops..deref..Deref$GT$5deref11__stability4LAZY17h5fc39c60e748272cE(%rip), %rax
Ltmp1815:
	movq	%rax, -8(%rbp)
Ltmp1816:
	.loc	29 2275 20 prologue_end
	movq	__ZN95_$LT$crossbeam_utils..sync..sharded_lock..THREAD_INDICES$u20$as$u20$core..ops..deref..Deref$GT$5deref11__stability4LAZY17h5fc39c60e748272cE+104(%rip), %rax
Ltmp1817:
	.loc	6 373 9
	cmpq	$3, %rax
Ltmp1818:
	.loc	6 259 9
	jne	LBB57_1
Ltmp1819:
	.loc	9 37 20
	movq	-8(%rbp), %rax
	.loc	9 38 17
	cmpq	$0, (%rax)
	je	LBB57_4
Ltmp1820:
LBB57_3:
	.loc	2 145 14
	addq	$32, %rsp
	popq	%rbp
	retq
LBB57_1:
Ltmp1821:
	.loc	2 0 14 is_stmt 0
	leaq	-8(%rbp), %rax
Ltmp1822:
	.loc	6 263 21 is_stmt 1
	movq	%rax, -16(%rbp)
	leaq	-16(%rbp), %rax
Ltmp1823:
	.loc	6 264 37
	movq	%rax, -24(%rbp)
	.loc	6 264 9 is_stmt 0
	leaq	__ZN95_$LT$crossbeam_utils..sync..sharded_lock..THREAD_INDICES$u20$as$u20$core..ops..deref..Deref$GT$5deref11__stability4LAZY17h5fc39c60e748272cE+104(%rip), %rdi
	leaq	l___unnamed_1(%rip), %rcx
	leaq	-24(%rbp), %rdx
	xorl	%esi, %esi
	callq	__ZN3std4sync4once4Once10call_inner17h78f35ea5a056ddbcE
Ltmp1824:
	.loc	9 37 20 is_stmt 1
	movq	-8(%rbp), %rax
	.loc	9 38 17
	cmpq	$0, (%rax)
	jne	LBB57_3
Ltmp1825:
LBB57_4:
	.loc	21 10 9
	leaq	l___unnamed_19(%rip), %rdi
	leaq	l___unnamed_20(%rip), %rdx
	movl	$66, %esi
	callq	__ZN4core9panicking5panic17h736ee47a631475c0E
Ltmp1826:
Lfunc_end57:
	.cfi_endproc

	.globl	__ZN95_$LT$crossbeam_utils..sync..sharded_lock..THREAD_INDICES$u20$as$u20$lazy_static..LazyStatic$GT$10initialize17ha7a94d53ef7d8208E
	.p2align	4, 0x90
__ZN95_$LT$crossbeam_utils..sync..sharded_lock..THREAD_INDICES$u20$as$u20$lazy_static..LazyStatic$GT$10initialize17ha7a94d53ef7d8208E:
Lfunc_begin58:
	.loc	2 148 0
	.cfi_startproc
	pushq	%rbp
	.cfi_def_cfa_offset 16
	.cfi_offset %rbp, -16
	movq	%rsp, %rbp
	.cfi_def_cfa_register %rbp
	subq	$32, %rsp
	leaq	__ZN95_$LT$crossbeam_utils..sync..sharded_lock..THREAD_INDICES$u20$as$u20$core..ops..deref..Deref$GT$5deref11__stability4LAZY17h5fc39c60e748272cE(%rip), %rax
Ltmp1827:
	movq	%rax, -8(%rbp)
Ltmp1828:
	.loc	29 2275 20 prologue_end
	movq	__ZN95_$LT$crossbeam_utils..sync..sharded_lock..THREAD_INDICES$u20$as$u20$core..ops..deref..Deref$GT$5deref11__stability4LAZY17h5fc39c60e748272cE+104(%rip), %rax
Ltmp1829:
	.loc	6 373 9
	cmpq	$3, %rax
Ltmp1830:
	.loc	6 259 9
	jne	LBB58_1
Ltmp1831:
	.loc	9 37 20
	movq	-8(%rbp), %rax
	.loc	9 38 17
	cmpq	$0, (%rax)
	je	LBB58_4
Ltmp1832:
LBB58_3:
	.loc	2 150 14
	addq	$32, %rsp
	popq	%rbp
	retq
LBB58_1:
Ltmp1833:
	.loc	2 0 14 is_stmt 0
	leaq	-8(%rbp), %rax
Ltmp1834:
	.loc	6 263 21 is_stmt 1
	movq	%rax, -16(%rbp)
	leaq	-16(%rbp), %rax
Ltmp1835:
	.loc	6 264 37
	movq	%rax, -24(%rbp)
	.loc	6 264 9 is_stmt 0
	leaq	__ZN95_$LT$crossbeam_utils..sync..sharded_lock..THREAD_INDICES$u20$as$u20$core..ops..deref..Deref$GT$5deref11__stability4LAZY17h5fc39c60e748272cE+104(%rip), %rdi
Ltmp1836:
	leaq	l___unnamed_1(%rip), %rcx
	leaq	-24(%rbp), %rdx
	xorl	%esi, %esi
	callq	__ZN3std4sync4once4Once10call_inner17h78f35ea5a056ddbcE
Ltmp1837:
	.loc	9 37 20 is_stmt 1
	movq	-8(%rbp), %rax
	.loc	9 38 17
	cmpq	$0, (%rax)
	jne	LBB58_3
Ltmp1838:
LBB58_4:
	.loc	21 10 9
	leaq	l___unnamed_19(%rip), %rdi
	leaq	l___unnamed_20(%rip), %rdx
	movl	$66, %esi
	callq	__ZN4core9panicking5panic17h736ee47a631475c0E
Ltmp1839:
Lfunc_end58:
	.cfi_endproc

	.globl	__ZN15crossbeam_utils4sync12sharded_lock12REGISTRATION7__getit17h3feace143b0fa270E
	.p2align	4, 0x90
__ZN15crossbeam_utils4sync12sharded_lock12REGISTRATION7__getit17h3feace143b0fa270E:
Lfunc_begin59:
	.loc	4 155 0
	.cfi_startproc
	pushq	%rbp
	.cfi_def_cfa_offset 16
	.cfi_offset %rbp, -16
	movq	%rsp, %rbp
	.cfi_def_cfa_register %rbp
Ltmp1840:
	.loc	8 270 13 prologue_end
	movq	__ZN15crossbeam_utils4sync12sharded_lock12REGISTRATION7__getit5__KEY17hd4f3bc8e629e40ccE@TLVP(%rip), %rdi
	callq	*(%rdi)
	cmpq	$0, 8(%rax)
Ltmp1841:
	.loc	10 409 17
	je	LBB59_2
Ltmp1842:
	.loc	4 176 14
	movq	__ZN15crossbeam_utils4sync12sharded_lock12REGISTRATION7__getit5__KEY17hd4f3bc8e629e40ccE@TLVP(%rip), %rdi
	callq	*(%rdi)
	popq	%rbp
	retq
LBB59_2:
Ltmp1843:
	.loc	10 410 25
	popq	%rbp
	jmp	__ZN3std6thread5local4fast12Key$LT$T$GT$14try_initialize17headbeadc5f21280cE
Ltmp1844:
Lfunc_end59:
	.cfi_endproc

	.globl	__ZN81_$LT$crossbeam_utils..thread..ScopedThreadBuilder$u20$as$u20$core..fmt..Debug$GT$3fmt17ha00aa9b07b0f4b24E
	.p2align	4, 0x90
__ZN81_$LT$crossbeam_utils..thread..ScopedThreadBuilder$u20$as$u20$core..fmt..Debug$GT$3fmt17ha00aa9b07b0f4b24E:
Lfunc_begin60:
	.loc	41 310 0
	.cfi_startproc
	pushq	%rbp
	.cfi_def_cfa_offset 16
	.cfi_offset %rbp, -16
	movq	%rsp, %rbp
	.cfi_def_cfa_register %rbp
	pushq	%r14
	pushq	%rbx
	subq	$32, %rsp
	.cfi_offset %rbx, -32
	.cfi_offset %r14, -24
	movq	%rdi, %rbx
Ltmp1845:
	.loc	41 310 10 prologue_end
	leaq	l___unnamed_59(%rip), %rdx
	leaq	-40(%rbp), %r14
	movl	$19, %ecx
	movq	%r14, %rdi
	callq	__ZN4core3fmt9Formatter12debug_struct17h985c0158d1fc7193E
Ltmp1846:
	.loc	41 312 5
	movq	%rbx, -24(%rbp)
Ltmp1847:
	.loc	41 313 5
	addq	$8, %rbx
Ltmp1848:
	.loc	41 310 10
	leaq	l___unnamed_60(%rip), %rsi
	leaq	l___unnamed_13(%rip), %r8
	leaq	-24(%rbp), %rcx
	movl	$5, %edx
	movq	%r14, %rdi
	callq	__ZN4core3fmt8builders11DebugStruct5field17h9c15dc155278eed2E
	.loc	41 313 5
	movq	%rbx, -24(%rbp)
	.loc	41 310 10
	leaq	l___unnamed_61(%rip), %rsi
	leaq	l___unnamed_14(%rip), %r8
	leaq	-24(%rbp), %rcx
	movl	$7, %edx
	movq	%r14, %rdi
	callq	__ZN4core3fmt8builders11DebugStruct5field17h9c15dc155278eed2E
	movq	%r14, %rdi
	callq	__ZN4core3fmt8builders11DebugStruct6finish17h26808393f3fed630E
Ltmp1849:
	.loc	41 310 15 is_stmt 0
	addq	$32, %rsp
	popq	%rbx
	popq	%r14
	popq	%rbp
	retq
Ltmp1850:
Lfunc_end60:
	.cfi_endproc

	.section	__TEXT,__const
l___unnamed_19:
	.ascii	"attempted to derefence an uninitialized lazy static. This is a bug"

l___unnamed_62:
	.ascii	"/rustc/a74d1862d4d87a56244958416fd05976c58ca1a8/src/libcore/macros/mod.rs"

	.section	__DATA,__const
	.p2align	3
l___unnamed_20:
	.quad	l___unnamed_62
	.asciz	"I\000\000\000\000\000\000\000\n\000\000\000\t\000\000"

	.p2align	3
l___unnamed_1:
	.quad	__ZN4core3ptr13drop_in_place17h0fa4888b4cdc2f3eE
	.quad	8
	.quad	8
	.quad	__ZN3std4sync4once4Once9call_once28_$u7b$$u7b$closure$u7d$$u7d$17h5b3bcced49ed289fE
	.quad	__ZN4core3ops8function6FnOnce40call_once$u7b$$u7b$vtable.shim$u7d$$u7d$17h04ebcb7ecbc5ff5cE

	.section	__TEXT,__const
l___unnamed_63:
	.ascii	"/rustc/a74d1862d4d87a56244958416fd05976c58ca1a8/src/libstd/sync/once.rs"

	.section	__DATA,__const
	.p2align	3
l___unnamed_16:
	.quad	l___unnamed_63
	.asciz	"G\000\000\000\000\000\000\000\b\001\000\000)\000\000"

	.section	__TEXT,__const
l___unnamed_17:
	.ascii	"cannot access a Thread Local Storage value during or after destruction"

l___unnamed_64:
	.ascii	"/rustc/a74d1862d4d87a56244958416fd05976c58ca1a8/src/libstd/thread/local.rs"

	.section	__DATA,__const
	.p2align	3
l___unnamed_18:
	.quad	l___unnamed_64
	.asciz	"J\000\000\000\000\000\000\000\357\000\000\000\t\000\000"

	.p2align	3
l___unnamed_2:
	.quad	__ZN4core3ptr13drop_in_place17h0fa4888b4cdc2f3eE
	.quad	16
	.quad	8
	.quad	__ZN91_$LT$std..panicking..begin_panic..PanicPayload$LT$A$GT$$u20$as$u20$core..panic..BoxMeUp$GT$8take_box17h18713048e3cccf43E
	.quad	__ZN91_$LT$std..panicking..begin_panic..PanicPayload$LT$A$GT$$u20$as$u20$core..panic..BoxMeUp$GT$3get17hc5551975f0e54fc8E

	.section	__TEXT,__const
	.p2align	4
_str.0:
	.ascii	"attempt to add with overflow"

l___unnamed_15:
	.ascii	"called `Option::unwrap()` on a `None` value"

	.section	__DATA,__const
	.p2align	3
l___unnamed_3:
	.quad	__ZN4core3ptr13drop_in_place17h0fa4888b4cdc2f3eE
	.quad	0
	.quad	1
	.quad	__ZN68_$LT$std..thread..local..AccessError$u20$as$u20$core..fmt..Debug$GT$3fmt17h97b54f924eb561a9E

	.section	__TEXT,__const
l___unnamed_21:
	.ascii	"called `Result::unwrap()` on an `Err` value"

	.section	__DATA,__const
	.p2align	3
l___unnamed_4:
	.quad	__ZN4core3ptr13drop_in_place17h1e8ee9b3757cb9d8E
	.quad	16
	.quad	8
	.quad	__ZN82_$LT$std..sys_common..poison..PoisonError$LT$T$GT$$u20$as$u20$core..fmt..Debug$GT$3fmt17h7fcc0504aa1740dcE

	.p2align	3
l___unnamed_5:
	.quad	__ZN4core3ptr13drop_in_place17h90956be0f796e27dE
	.quad	24
	.quad	8
	.quad	__ZN82_$LT$std..sys_common..poison..PoisonError$LT$T$GT$$u20$as$u20$core..fmt..Debug$GT$3fmt17h715f1c970bf55748E

	.p2align	3
l___unnamed_6:
	.quad	__ZN4core3ptr13drop_in_place17h1e8ee9b3757cb9d8E
	.quad	16
	.quad	8
	.quad	__ZN82_$LT$std..sys_common..poison..PoisonError$LT$T$GT$$u20$as$u20$core..fmt..Debug$GT$3fmt17h7fcc0504aa1740dcE

	.p2align	3
l___unnamed_7:
	.quad	__ZN4core3ptr13drop_in_place17h1e8ee9b3757cb9d8E
	.quad	16
	.quad	8
	.quad	__ZN82_$LT$std..sys_common..poison..PoisonError$LT$T$GT$$u20$as$u20$core..fmt..Debug$GT$3fmt17h7fcc0504aa1740dcE

	.section	__TEXT,__literal4,4byte_literals
L___unnamed_27:
	.ascii	"Cell"

	.section	__TEXT,__const
l___unnamed_28:
	.ascii	"value"

	.section	__DATA,__const
	.p2align	3
l___unnamed_8:
	.quad	__ZN4core3ptr13drop_in_place17h0fa4888b4cdc2f3eE
	.quad	4
	.quad	4
	.quad	__ZN4core3fmt3num50_$LT$impl$u20$core..fmt..Debug$u20$for$u20$u32$GT$3fmt17hcbab27cd39434e2dE

	.section	__TEXT,__const
l___unnamed_29:
	.ascii	"PoisonError { inner: .. }"

	.section	__DATA,__const
	.p2align	3
l___unnamed_9:
	.quad	__ZN4core3ptr13drop_in_place17h0fa4888b4cdc2f3eE
	.quad	16
	.quad	8
	.quad	__ZN36_$LT$T$u20$as$u20$core..any..Any$GT$7type_id17h2298b1f0aaa6b75dE

	.globl	__ZN15crossbeam_utils6atomic11atomic_cell4lock5LOCKS17h2459226b776d52f4E
.zerofill __DATA,__common,__ZN15crossbeam_utils6atomic11atomic_cell4lock5LOCKS17h2459226b776d52f4E,776,3
	.section	__TEXT,__const
l___unnamed_30:
	.ascii	"Backoff"

	.section	__TEXT,__literal4,4byte_literals
L___unnamed_31:
	.ascii	"step"

	.section	__DATA,__const
	.p2align	3
l___unnamed_10:
	.quad	__ZN4core3ptr13drop_in_place17h0fa4888b4cdc2f3eE
	.quad	4
	.quad	4
	.quad	__ZN62_$LT$core..cell..Cell$LT$T$GT$$u20$as$u20$core..fmt..Debug$GT$3fmt17h668d3051b97da767E

	.section	__TEXT,__const
l___unnamed_32:
	.ascii	"is_completed"

	.section	__DATA,__const
	.p2align	3
l___unnamed_11:
	.quad	__ZN4core3ptr13drop_in_place17h0fa4888b4cdc2f3eE
	.quad	1
	.quad	1
	.quad	__ZN41_$LT$bool$u20$as$u20$core..fmt..Debug$GT$3fmt17hcb2f2721d0797180E

	.section	__TEXT,__const
l___unnamed_33:
	.ascii	"Parker { .. }"

l___unnamed_35:
	.ascii	"Unparker { .. }"

l___unnamed_65:
	.ascii	"/Users/yingyuhang/.cargo/registry/src/github.com-1ecc6299db9ec823/crossbeam-utils-0.7.2/src/sync/parker.rs"

	.section	__DATA,__const
	.p2align	3
l___unnamed_42:
	.quad	l___unnamed_65
	.asciz	"j\000\000\000\000\000\000\000\367\000\000\000\025\000\000"

	.section	__TEXT,__const
l___unnamed_66:
	.ascii	"inconsistent park_timeout state: "

	.section	__DATA,__const
	.p2align	3
l___unnamed_43:
	.quad	l___unnamed_66
	.asciz	"!\000\000\000\000\000\000"

	.p2align	3
l___unnamed_44:
	.quad	l___unnamed_65
	.asciz	"j\000\000\000\000\000\000\000\006\001\000\000\027\000\000"

	.section	__TEXT,__literal8,8byte_literals
	.p2align	3
L___unnamed_36:
	.asciz	"\002\000\000\000\000\000\000"

	.section	__TEXT,__const
l___unnamed_67:
	.ascii	"assertion failed: `(left == right)`\n  left: `"

l___unnamed_68:
	.ascii	"`,\n right: `"

l___unnamed_69:
	.ascii	"`: "

	.section	__DATA,__const
	.p2align	3
l___unnamed_39:
	.quad	l___unnamed_67
	.asciz	"-\000\000\000\000\000\000"
	.quad	l___unnamed_68
	.asciz	"\f\000\000\000\000\000\000"
	.quad	l___unnamed_69
	.asciz	"\003\000\000\000\000\000\000"

	.section	__TEXT,__const
l___unnamed_70:
	.ascii	"park state changed unexpectedly"

	.section	__DATA,__const
	.p2align	3
l___unnamed_37:
	.quad	l___unnamed_70
	.asciz	"\037\000\000\000\000\000\000"

	.section	__TEXT,__const
	.p2align	3
l___unnamed_38:
	.byte	0

	.section	__DATA,__const
	.p2align	3
l___unnamed_40:
	.quad	l___unnamed_65
	.asciz	"j\000\000\000\000\000\000\000\003\001\000\000\021\000\000"

	.p2align	3
l___unnamed_45:
	.quad	l___unnamed_65
	.asciz	"j\000\000\000\000\000\000\000\031\001\000\000%\000\000"

	.p2align	3
l___unnamed_46:
	.quad	l___unnamed_65
	.asciz	"j\000\000\000\000\000\000\000\036\001\000\000\032\000\000"

	.p2align	3
l___unnamed_41:
	.quad	l___unnamed_65
	.asciz	"j\000\000\000\000\000\000\000\r\001\000\000\031\000\000"

	.section	__TEXT,__const
l___unnamed_24:
	.ascii	"inconsistent state in unpark"

	.section	__DATA,__const
	.p2align	3
l___unnamed_25:
	.quad	l___unnamed_65
	.asciz	"j\000\000\000\000\000\000\000-\001\000\000\022\000\000"

	.p2align	3
l___unnamed_34:
	.quad	l___unnamed_65
	.asciz	"j\000\000\000\000\000\000\0008\001\000\000\016\000\000"

	.section	__TEXT,__literal8,8byte_literals
L___unnamed_47:
	.ascii	"<locked>"

	.section	__TEXT,__const
l___unnamed_71:
	.ascii	"/Users/yingyuhang/.cargo/registry/src/github.com-1ecc6299db9ec823/crossbeam-utils-0.7.2/src/sync/sharded_lock.rs"

	.section	__DATA,__const
	.p2align	3
l___unnamed_48:
	.quad	l___unnamed_71
	.asciz	"p\000\000\000\000\000\000\000F\002\000\000\033\000\000"

	.section	__TEXT,__const
l___unnamed_72:
	.ascii	"/Users/yingyuhang/.cargo/registry/src/github.com-1ecc6299db9ec823/crossbeam-utils-0.7.2/src/sync/wait_group.rs"

	.section	__DATA,__const
	.p2align	3
l___unnamed_50:
	.quad	l___unnamed_72
	.asciz	"n\000\000\000\000\000\000\000`\000\000\000\r\000\000"

	.p2align	3
l___unnamed_51:
	.quad	l___unnamed_72
	.asciz	"n\000\000\000\000\000\000\000g\000\000\000\031\000\000"

	.p2align	3
l___unnamed_49:
	.quad	l___unnamed_72
	.asciz	"n\000\000\000\000\000\000\000i\000\000\000\025\000\000"

	.p2align	3
l___unnamed_52:
	.quad	l___unnamed_72
	.asciz	"n\000\000\000\000\000\000\000p\000\000\000\031\000\000"

	.p2align	3
l___unnamed_53:
	.quad	l___unnamed_72
	.asciz	"n\000\000\000\000\000\000\000q\000\000\000\t\000\000"

	.section	__TEXT,__const
	.p2align	4
_str.2:
	.ascii	"attempt to subtract with overflow"

	.section	__DATA,__const
	.p2align	3
l___unnamed_54:
	.quad	l___unnamed_72
	.asciz	"n\000\000\000\000\000\000\000{\000\000\000\031\000\000"

	.p2align	3
l___unnamed_55:
	.quad	l___unnamed_72
	.asciz	"n\000\000\000\000\000\000\000|\000\000\000\t\000\000"

	.p2align	3
l___unnamed_58:
	.quad	l___unnamed_72
	.asciz	"n\000\000\000\000\000\000\000\206\000\000\000\037\000\000"

	.section	__TEXT,__const
l___unnamed_56:
	.ascii	"WaitGroup"

l___unnamed_57:
	.ascii	"count"

	.section	__DATA,__const
	.p2align	3
l___unnamed_12:
	.quad	__ZN4core3ptr13drop_in_place17h0fa4888b4cdc2f3eE
	.quad	8
	.quad	8
	.quad	__ZN4core3fmt3num52_$LT$impl$u20$core..fmt..Debug$u20$for$u20$usize$GT$3fmt17hd9d2912101c14e43E

	.section	__TEXT,__const
l___unnamed_26:
	.ascii	"Scope { .. }"

.zerofill __DATA,__bss,__ZN95_$LT$crossbeam_utils..sync..sharded_lock..THREAD_INDICES$u20$as$u20$core..ops..deref..Deref$GT$5deref11__stability4LAZY17h5fc39c60e748272cE,112,3
	.section	__DATA,__const
	.p2align	3
l___unnamed_22:
	.quad	l___unnamed_71
	.asciz	"p\000\000\000\000\000\000\000O\002\000\000\033\000\000"

	.p2align	3
l___unnamed_23:
	.quad	l___unnamed_71
	.asciz	"p\000\000\000\000\000\000\000U\002\000\000\021\000\000"

	.section	__DATA,__thread_bss,thread_local_zerofill
	.p2align	3
__ZN15crossbeam_utils4sync12sharded_lock12REGISTRATION7__getit5__KEY17hd4f3bc8e629e40ccE$tlv$init:
	.space	24

	.section	__DATA,__thread_vars,thread_local_variables
__ZN15crossbeam_utils4sync12sharded_lock12REGISTRATION7__getit5__KEY17hd4f3bc8e629e40ccE:
	.quad	__tlv_bootstrap
	.quad	0
	.quad	__ZN15crossbeam_utils4sync12sharded_lock12REGISTRATION7__getit5__KEY17hd4f3bc8e629e40ccE$tlv$init

	.section	__TEXT,__const
l___unnamed_59:
	.ascii	"ScopedThreadBuilder"

l___unnamed_60:
	.ascii	"scope"

	.section	__DATA,__const
	.p2align	3
l___unnamed_13:
	.quad	__ZN4core3ptr13drop_in_place17h0fa4888b4cdc2f3eE
	.quad	8
	.quad	8
	.quad	__ZN42_$LT$$RF$T$u20$as$u20$core..fmt..Debug$GT$3fmt17h4245c95e56ae1f6cE

	.section	__TEXT,__const
l___unnamed_61:
	.ascii	"builder"

	.section	__DATA,__const
	.p2align	3
l___unnamed_14:
	.quad	__ZN4core3ptr13drop_in_place17h0fa4888b4cdc2f3eE
	.quad	8
	.quad	8
	.quad	__ZN42_$LT$$RF$T$u20$as$u20$core..fmt..Debug$GT$3fmt17h87cb677fe99826cfE
