	.section	__TEXT,__text,regular,pure_instructions
	.macosx_version_min 10, 7
	.file	1 "/Users/yingyuhang/.cargo/registry/src/github.com-1ecc6299db9ec823/failure-0.1.8/src/backtrace/internal.rs"
	.p2align	4, 0x90
__ZN3std5error5Error5cause17h1255ddfae05d000cE:
Lfunc_begin0:
	.file	2 "/rustc/a74d1862d4d87a56244958416fd05976c58ca1a8/src/libstd/error.rs"
	.loc	2 149 0
	.cfi_startproc
	pushq	%rbp
	.cfi_def_cfa_offset 16
	.cfi_offset %rbp, -16
	movq	%rsp, %rbp
	.cfi_def_cfa_register %rbp
Ltmp0:
	.loc	2 151 6 prologue_end
	xorl	%eax, %eax
	popq	%rbp
	retq
Ltmp1:
Lfunc_end0:
	.cfi_endproc

	.p2align	4, 0x90
__ZN3std5error5Error7type_id17h249907a1210beeb1E:
Lfunc_begin1:
	.loc	2 110 0
	.cfi_startproc
	pushq	%rbp
	.cfi_def_cfa_offset 16
	.cfi_offset %rbp, -16
	movq	%rsp, %rbp
	.cfi_def_cfa_register %rbp
	movabsq	$1586423591147625216, %rax
Ltmp2:
	.loc	2 115 6 prologue_end
	popq	%rbp
	retq
Ltmp3:
Lfunc_end1:
	.cfi_endproc

	.p2align	4, 0x90
__ZN3std5error5Error9backtrace17h8294202bbdb79033E:
Lfunc_begin2:
	.loc	2 127 0
	.cfi_startproc
	pushq	%rbp
	.cfi_def_cfa_offset 16
	.cfi_offset %rbp, -16
	movq	%rsp, %rbp
	.cfi_def_cfa_register %rbp
Ltmp4:
	.loc	2 129 6 prologue_end
	xorl	%eax, %eax
	popq	%rbp
	retq
Ltmp5:
Lfunc_end2:
	.cfi_endproc

	.p2align	4, 0x90
__ZN42_$LT$$RF$T$u20$as$u20$core..fmt..Debug$GT$3fmt17h14bff8f5fe315eeaE:
Lfunc_begin3:
	.file	3 "/rustc/a74d1862d4d87a56244958416fd05976c58ca1a8/src/libcore/fmt/mod.rs"
	.loc	3 1973 0
	.cfi_startproc
	pushq	%rbp
	.cfi_def_cfa_offset 16
	.cfi_offset %rbp, -16
	movq	%rsp, %rbp
	.cfi_def_cfa_register %rbp
Ltmp6:
	.loc	3 1973 71 prologue_end
	movq	(%rdi), %rax
	.loc	3 1973 62 is_stmt 0
	movq	(%rax), %rdi
Ltmp7:
	.loc	3 1973 62
	popq	%rbp
	jmp	__ZN66_$LT$backtrace..capture..Backtrace$u20$as$u20$core..fmt..Debug$GT$3fmt17hefb56c26949c4e18E
Ltmp8:
Lfunc_end3:
	.cfi_endproc

	.p2align	4, 0x90
__ZN42_$LT$$RF$T$u20$as$u20$core..fmt..Debug$GT$3fmt17h37a8561b0519df85E:
Lfunc_begin4:
	.loc	3 1973 0 is_stmt 1
	.cfi_startproc
	pushq	%rbp
	.cfi_def_cfa_offset 16
	.cfi_offset %rbp, -16
	movq	%rsp, %rbp
	.cfi_def_cfa_register %rbp
Ltmp9:
	.loc	3 1973 71 prologue_end
	movq	(%rdi), %rax
Ltmp10:
	.loc	3 1973 71 is_stmt 0
	movq	(%rax), %rdi
Ltmp11:
	movq	8(%rax), %rax
Ltmp12:
	.loc	3 1973 62
	movq	96(%rax), %rax
	popq	%rbp
	jmpq	*%rax
Ltmp13:
Lfunc_end4:
	.cfi_endproc

	.p2align	4, 0x90
__ZN42_$LT$$RF$T$u20$as$u20$core..fmt..Debug$GT$3fmt17h91cd3d2a88ca1b69E:
Lfunc_begin5:
	.loc	3 1973 0 is_stmt 1
	.cfi_startproc
	pushq	%rbp
	.cfi_def_cfa_offset 16
	.cfi_offset %rbp, -16
	movq	%rsp, %rbp
	.cfi_def_cfa_register %rbp
	subq	$112, %rsp
Ltmp14:
	.loc	3 1973 71 prologue_end
	movq	(%rdi), %rax
Ltmp15:
	.file	4 "/Users/yingyuhang/.cargo/registry/src/github.com-1ecc6299db9ec823/failure-0.1.8/src/error/error_impl.rs"
	.loc	4 37 9
	movq	(%rax), %rdi
Ltmp16:
	.file	5 "/Users/yingyuhang/.cargo/registry/src/github.com-1ecc6299db9ec823/failure-0.1.8/src/error/mod.rs"
	.loc	5 195 25
	movq	%rdi, -8(%rbp)
Ltmp17:
	.file	6 "/rustc/a74d1862d4d87a56244958416fd05976c58ca1a8/src/libcore/option.rs"
	.loc	6 189 25
	cmpq	$0, (%rdi)
Ltmp18:
	.loc	5 196 9
	je	LBB5_2
Ltmp19:
	.loc	4 29 9
	movq	8(%rax), %rax
Ltmp20:
	movq	16(%rax), %rcx
	leaq	47(%rcx), %rdx
	negq	%rcx
	andq	%rcx, %rdx
	addq	%rdx, %rdi
Ltmp21:
	.loc	5 199 40
	movq	%rdi, -32(%rbp)
	movq	%rax, -24(%rbp)
	leaq	-32(%rbp), %rax
	.loc	5 199 39 is_stmt 0
	movq	%rax, -16(%rbp)
	leaq	-16(%rbp), %rax
Ltmp22:
	.loc	5 199 13
	movq	%rax, -64(%rbp)
	leaq	__ZN42_$LT$$RF$T$u20$as$u20$core..fmt..Debug$GT$3fmt17h37a8561b0519df85E(%rip), %rax
	movq	%rax, -56(%rbp)
	leaq	-8(%rbp), %rax
	movq	%rax, -48(%rbp)
	leaq	__ZN42_$LT$$RF$T$u20$as$u20$core..fmt..Debug$GT$3fmt17hbc73bd563af24a49E(%rip), %rax
	movq	%rax, -40(%rbp)
Ltmp23:
	.loc	3 328 9 is_stmt 1
	leaq	l___unnamed_7(%rip), %rax
Ltmp24:
	movq	%rax, -112(%rbp)
	movq	$2, -104(%rbp)
	movq	$0, -96(%rbp)
	leaq	-64(%rbp), %rax
Ltmp25:
	movq	%rax, -80(%rbp)
	movq	$2, -72(%rbp)
	leaq	-112(%rbp), %rax
Ltmp26:
	.loc	5 199 13
	movq	%rsi, %rdi
	movq	%rax, %rsi
Ltmp27:
	callq	__ZN4core3fmt9Formatter9write_fmt17h3dc2bf45afed3069E
Ltmp28:
	.loc	3 1973 84
	addq	$112, %rsp
	popq	%rbp
	retq
Ltmp29:
LBB5_2:
	.loc	4 29 9
	movq	8(%rax), %rax
Ltmp30:
	movq	16(%rax), %rcx
	leaq	47(%rcx), %rdx
	negq	%rcx
	andq	%rcx, %rdx
	addq	%rdx, %rdi
Ltmp31:
	.loc	3 1973 62
	callq	*96(%rax)
Ltmp32:
	.loc	3 1973 84 is_stmt 0
	addq	$112, %rsp
	popq	%rbp
	retq
Ltmp33:
Lfunc_end5:
	.cfi_endproc
	.file	7 "/Users/yingyuhang/.cargo/registry/src/github.com-1ecc6299db9ec823/failure-0.1.8/src/backtrace/mod.rs"

	.p2align	4, 0x90
__ZN42_$LT$$RF$T$u20$as$u20$core..fmt..Debug$GT$3fmt17hbc73bd563af24a49E:
Lfunc_begin6:
	.loc	3 1973 0 is_stmt 1
	.cfi_startproc
	pushq	%rbp
	.cfi_def_cfa_offset 16
	.cfi_offset %rbp, -16
	movq	%rsp, %rbp
	.cfi_def_cfa_register %rbp
	pushq	%rbx
	pushq	%rax
	.cfi_offset %rbx, -24
	movq	%rsi, %rbx
Ltmp34:
	.loc	3 1973 71 prologue_end
	movq	(%rdi), %rdi
Ltmp35:
	.loc	7 146 31
	callq	__ZN7failure9backtrace8internal17InternalBacktrace12as_backtrace17hb7231ead46448ab3E
	.loc	7 146 20 is_stmt 0
	testq	%rax, %rax
	je	LBB6_1
Ltmp36:
	.loc	7 147 17 is_stmt 1
	movq	%rax, %rdi
	movq	%rbx, %rsi
	addq	$8, %rsp
	popq	%rbx
Ltmp37:
	popq	%rbp
	jmp	__ZN66_$LT$backtrace..capture..Backtrace$u20$as$u20$core..fmt..Debug$GT$3fmt17hefb56c26949c4e18E
Ltmp38:
LBB6_1:
	.loc	3 1973 84
	xorl	%eax, %eax
	addq	$8, %rsp
	popq	%rbx
Ltmp39:
	popq	%rbp
	retq
Ltmp40:
Lfunc_end6:
	.cfi_endproc

	.p2align	4, 0x90
__ZN4core3ptr13drop_in_place17h1902dbeb1f01c145E:
Lfunc_begin7:
	.file	8 "/rustc/a74d1862d4d87a56244958416fd05976c58ca1a8/src/libcore/ptr/mod.rs"
	.loc	8 178 0
	.cfi_startproc
	pushq	%rbp
	.cfi_def_cfa_offset 16
	.cfi_offset %rbp, -16
	movq	%rsp, %rbp
	.cfi_def_cfa_register %rbp
Ltmp41:
	.loc	8 178 1 prologue_end
	popq	%rbp
	retq
Ltmp42:
Lfunc_end7:
	.cfi_endproc

	.p2align	4, 0x90
__ZN4core3ptr13drop_in_place17h49fd74ca72703898E:
Lfunc_begin8:
	.loc	8 178 0
	.cfi_startproc
	.cfi_personality 155, _rust_eh_personality
	.cfi_lsda 16, Lexception0
	pushq	%rbp
	.cfi_def_cfa_offset 16
	.cfi_offset %rbp, -16
	movq	%rsp, %rbp
	.cfi_def_cfa_register %rbp
	pushq	%r14
	pushq	%rbx
	.cfi_offset %rbx, -32
	.cfi_offset %r14, -24
	movq	%rdi, %rbx
Ltmp46:
	.loc	8 178 1 prologue_end
	movq	(%rdi), %rdi
	movq	8(%rbx), %rax
Ltmp43:
	callq	*(%rax)
Ltmp44:
Ltmp47:
	movq	8(%rbx), %rax
Ltmp48:
	.file	9 "/rustc/a74d1862d4d87a56244958416fd05976c58ca1a8/src/liballoc/alloc.rs"
	.loc	9 282 16
	movq	8(%rax), %rsi
Ltmp49:
	.loc	9 185 12
	testq	%rsi, %rsi
	.loc	9 185 9 is_stmt 0
	je	LBB8_4
Ltmp50:
	.loc	8 178 1 is_stmt 1
	movq	(%rbx), %rdi
Ltmp51:
	.loc	9 283 17
	movq	16(%rax), %rdx
Ltmp52:
	.loc	9 102 5
	popq	%rbx
Ltmp53:
	popq	%r14
	popq	%rbp
	jmp	___rust_dealloc
Ltmp54:
LBB8_4:
	.loc	8 178 1
	popq	%rbx
Ltmp55:
	popq	%r14
	popq	%rbp
	retq
LBB8_3:
Ltmp56:
Ltmp45:
	.loc	8 0 1 is_stmt 0
	movq	%rax, %r14
Ltmp57:
	.loc	8 178 1
	movq	(%rbx), %rdi
	movq	8(%rbx), %rsi
	callq	__ZN5alloc5alloc8box_free17h09df02824844a2e3E
	movq	%r14, %rdi
	callq	__Unwind_Resume
	ud2
Ltmp58:
Lfunc_end8:
	.cfi_endproc
	.section	__TEXT,__gcc_except_tab
	.p2align	2
GCC_except_table8:
Lexception0:
	.byte	255
	.byte	255
	.byte	1
	.uleb128 Lcst_end0-Lcst_begin0
Lcst_begin0:
	.uleb128 Ltmp43-Lfunc_begin8
	.uleb128 Ltmp44-Ltmp43
	.uleb128 Ltmp45-Lfunc_begin8
	.byte	0
	.uleb128 Ltmp44-Lfunc_begin8
	.uleb128 Lfunc_end8-Ltmp44
	.byte	0
	.byte	0
Lcst_end0:
	.p2align	2

	.section	__TEXT,__text,regular,pure_instructions
	.p2align	4, 0x90
__ZN4core3ptr13drop_in_place17h60bdc2614488066fE:
Lfunc_begin9:
	.loc	8 178 0 is_stmt 1
	.cfi_startproc
	pushq	%rbp
	.cfi_def_cfa_offset 16
	.cfi_offset %rbp, -16
	movq	%rsp, %rbp
	.cfi_def_cfa_register %rbp
	pushq	%r14
	pushq	%rbx
	.cfi_offset %rbx, -32
	.cfi_offset %r14, -24
	movq	%rdi, %rbx
Ltmp59:
	.file	10 "/rustc/a74d1862d4d87a56244958416fd05976c58ca1a8/src/libstd/sys_common/poison.rs"
	.loc	10 34 13 prologue_end
	cmpb	$0, 8(%rdi)
	.loc	10 34 12 is_stmt 0
	jne	LBB9_3
Ltmp60:
	.file	11 "/rustc/a74d1862d4d87a56244958416fd05976c58ca1a8/src/libstd/sync/mutex.rs"
	.loc	11 0 0
	movq	(%rbx), %r14
Ltmp61:
	.file	12 "/rustc/a74d1862d4d87a56244958416fd05976c58ca1a8/src/libstd/thread/mod.rs"
	.loc	12 732 5 is_stmt 1
	callq	__ZN3std9panicking9panicking17h6f800ddc6c0d9b77E
Ltmp62:
	.loc	10 34 12
	testb	%al, %al
	je	LBB9_3
Ltmp63:
	.file	13 "/rustc/a74d1862d4d87a56244958416fd05976c58ca1a8/src/libcore/sync/atomic.rs"
	.loc	13 2265 20
	movb	$1, 8(%r14)
Ltmp64:
LBB9_3:
	.loc	11 446 13
	movq	(%rbx), %rax
	movq	(%rax), %rdi
Ltmp65:
	.file	14 "/rustc/a74d1862d4d87a56244958416fd05976c58ca1a8/src/libstd/sys/unix/mutex.rs"
	.loc	14 68 17
	popq	%rbx
Ltmp66:
	popq	%r14
	popq	%rbp
	jmp	_pthread_mutex_unlock
Ltmp67:
Lfunc_end9:
	.cfi_endproc
	.file	15 "/rustc/a74d1862d4d87a56244958416fd05976c58ca1a8/src/libcore/macros/mod.rs"
	.file	16 "/rustc/a74d1862d4d87a56244958416fd05976c58ca1a8/src/libstd/sys_common/mutex.rs"

	.p2align	4, 0x90
__ZN4core3ptr13drop_in_place17h7be3ef1d01549df9E:
Lfunc_begin10:
	.loc	8 178 0
	.cfi_startproc
	pushq	%rbp
	.cfi_def_cfa_offset 16
	.cfi_offset %rbp, -16
	movq	%rsp, %rbp
	.cfi_def_cfa_register %rbp
Ltmp68:
	.loc	8 178 1 prologue_end
	movq	(%rdi), %rdi
Ltmp69:
	.loc	9 102 5
	movl	$64, %esi
	movl	$8, %edx
	popq	%rbp
	jmp	___rust_dealloc
Ltmp70:
Lfunc_end10:
	.cfi_endproc

	.p2align	4, 0x90
__ZN4core3ptr13drop_in_place17ha077f5abe2e3494fE:
Lfunc_begin11:
	.loc	8 178 0
	.cfi_startproc
	.cfi_personality 155, _rust_eh_personality
	.cfi_lsda 16, Lexception1
	pushq	%rbp
	.cfi_def_cfa_offset 16
	.cfi_offset %rbp, -16
	movq	%rsp, %rbp
	.cfi_def_cfa_register %rbp
	pushq	%r15
	pushq	%r14
	pushq	%r13
	pushq	%r12
	pushq	%rbx
	subq	$24, %rsp
	.cfi_offset %rbx, -56
	.cfi_offset %r12, -48
	.cfi_offset %r13, -40
	.cfi_offset %r14, -32
	.cfi_offset %r15, -24
	movq	%rdi, %r12
Ltmp74:
	.loc	8 178 1 prologue_end
	movq	(%rdi), %rbx
Ltmp75:
	movq	8(%rdi), %r15
Ltmp76:
	.loc	8 178 1 is_stmt 0
	movq	(%rbx), %rdi
	testq	%rdi, %rdi
	je	LBB11_24
Ltmp77:
	.loc	14 78 17 is_stmt 1
	callq	_pthread_mutex_destroy
Ltmp78:
	.loc	8 178 1
	movq	(%rbx), %rdi
Ltmp79:
	.loc	9 102 5
	movl	$64, %esi
	movl	$8, %edx
	callq	___rust_dealloc
Ltmp80:
	.file	17 "/rustc/a74d1862d4d87a56244958416fd05976c58ca1a8/src/liballoc/vec.rs"
	.loc	17 850 19
	movq	16(%rbx), %r14
Ltmp81:
	.loc	17 2384 81
	movq	32(%rbx), %r13
Ltmp82:
	.loc	8 178 1
	testq	%r13, %r13
	je	LBB11_20
Ltmp83:
	.loc	8 0 1 is_stmt 0
	movq	%rbx, -48(%rbp)
Ltmp84:
	movq	%r15, -56(%rbp)
Ltmp85:
	movq	%r12, -64(%rbp)
Ltmp86:
	.loc	8 178 1
	shlq	$6, %r13
Ltmp87:
	addq	%r14, %r13
	jmp	LBB11_3
Ltmp88:
	.p2align	4, 0x90
LBB11_18:
	cmpq	%r13, %r14
	je	LBB11_19
Ltmp89:
LBB11_3:
	.loc	8 0 1
	movq	%r14, %r12
Ltmp90:
	.loc	8 178 1
	addq	$64, %r14
Ltmp91:
	.loc	8 178 1
	movq	40(%r12), %rbx
Ltmp92:
	testq	%rbx, %rbx
	je	LBB11_18
Ltmp93:
	.loc	17 2384 81 is_stmt 1
	movq	56(%r12), %rax
Ltmp94:
	.loc	8 178 1
	testq	%rax, %rax
	je	LBB11_14
Ltmp95:
	leaq	(%rax,%rax,8), %rax
Ltmp96:
	leaq	(%rbx,%rax,8), %r15
Ltmp97:
	.loc	8 178 1 is_stmt 0
	movq	(%rbx), %rdi
Ltmp98:
	testq	%rdi, %rdi
	jne	LBB11_7
	jmp	LBB11_9
Ltmp99:
	.p2align	4, 0x90
LBB11_12:
	.loc	8 178 1
	addq	$72, %rbx
Ltmp100:
	cmpq	%r15, %rbx
	je	LBB11_13
Ltmp101:
	.loc	8 178 1
	movq	(%rbx), %rdi
Ltmp102:
	testq	%rdi, %rdi
	je	LBB11_9
Ltmp103:
LBB11_7:
	.loc	8 178 1
	movq	8(%rbx), %rsi
Ltmp104:
	.file	18 "/rustc/a74d1862d4d87a56244958416fd05976c58ca1a8/src/liballoc/raw_vec.rs"
	.loc	18 200 40 is_stmt 1
	testq	%rsi, %rsi
	.loc	18 200 9 is_stmt 0
	je	LBB11_9
Ltmp105:
	.loc	9 102 5 is_stmt 1
	movl	$1, %edx
	callq	___rust_dealloc
Ltmp106:
LBB11_9:
	.loc	8 178 1
	movq	40(%rbx), %rdi
Ltmp107:
	testq	%rdi, %rdi
	je	LBB11_12
Ltmp108:
	.loc	8 178 1 is_stmt 0
	movq	48(%rbx), %rsi
Ltmp109:
	.loc	18 200 40 is_stmt 1
	testq	%rsi, %rsi
	.loc	18 200 9 is_stmt 0
	je	LBB11_12
Ltmp110:
	.loc	9 102 5 is_stmt 1
	movl	$1, %edx
	callq	___rust_dealloc
Ltmp111:
	.loc	9 0 5 is_stmt 0
	jmp	LBB11_12
Ltmp112:
	.p2align	4, 0x90
LBB11_13:
	.loc	8 178 1 is_stmt 1
	movq	40(%r12), %rbx
Ltmp113:
LBB11_14:
	movq	48(%r12), %rax
Ltmp114:
	.loc	18 200 40
	testq	%rax, %rax
	.loc	18 200 9 is_stmt 0
	je	LBB11_18
Ltmp115:
	.loc	18 532 16 is_stmt 1
	testq	%rbx, %rbx
Ltmp116:
	je	LBB11_18
Ltmp117:
	.loc	18 0 0 is_stmt 0
	shlq	$3, %rax
	leaq	(%rax,%rax,8), %rsi
Ltmp118:
	.loc	18 532 16
	testq	%rsi, %rsi
	je	LBB11_18
Ltmp119:
	.loc	9 102 5 is_stmt 1
	movl	$8, %edx
	movq	%rbx, %rdi
	callq	___rust_dealloc
Ltmp120:
	.loc	9 0 5 is_stmt 0
	jmp	LBB11_18
Ltmp121:
LBB11_19:
	movq	-48(%rbp), %rbx
	.loc	8 178 1 is_stmt 1
	movq	16(%rbx), %r14
	movq	-64(%rbp), %r12
	movq	-56(%rbp), %r15
Ltmp122:
LBB11_20:
	movq	24(%rbx), %rsi
Ltmp123:
	.loc	18 200 40
	testq	%rsi, %rsi
	.loc	18 200 9 is_stmt 0
	je	LBB11_24
Ltmp124:
	.loc	18 532 16 is_stmt 1
	testq	%r14, %r14
Ltmp125:
	je	LBB11_24
Ltmp126:
	.loc	18 0 0 is_stmt 0
	shlq	$6, %rsi
Ltmp127:
	.loc	18 532 16
	je	LBB11_24
Ltmp128:
	.loc	9 102 5 is_stmt 1
	movl	$8, %edx
	movq	%r14, %rdi
	callq	___rust_dealloc
Ltmp129:
LBB11_24:
	.loc	8 178 1
	movq	16(%r15), %rax
	leaq	47(%rax), %rcx
	negq	%rax
	andq	%rax, %rcx
	addq	%rcx, %rbx
Ltmp71:
	movq	%rbx, %rdi
	callq	*(%r15)
Ltmp72:
Ltmp130:
	.loc	8 178 1 is_stmt 0
	movq	8(%r12), %rax
Ltmp131:
	.loc	9 282 16 is_stmt 1
	movq	16(%rax), %rcx
	cmpq	$8, %rcx
	movl	$8, %edx
	cmovaq	%rcx, %rdx
Ltmp132:
	movq	8(%rax), %rax
	leaq	47(%rax,%rdx), %rax
	movq	%rdx, %rsi
	negq	%rsi
Ltmp133:
	.loc	9 185 12
	andq	%rax, %rsi
Ltmp134:
	.loc	9 185 9 is_stmt 0
	je	LBB11_28
Ltmp135:
	.loc	8 178 1 is_stmt 1
	movq	(%r12), %rdi
Ltmp136:
	.loc	9 102 5
	addq	$24, %rsp
	popq	%rbx
	popq	%r12
	popq	%r13
	popq	%r14
	popq	%r15
	popq	%rbp
	jmp	___rust_dealloc
Ltmp137:
LBB11_28:
	.loc	8 178 1
	addq	$24, %rsp
	popq	%rbx
	popq	%r12
	popq	%r13
	popq	%r14
	popq	%r15
	popq	%rbp
	retq
LBB11_27:
Ltmp73:
	.loc	8 0 1 is_stmt 0
	movq	%rax, %r14
Ltmp138:
	.loc	8 178 1
	movq	(%r12), %rdi
	movq	8(%r12), %rsi
	callq	__ZN5alloc5alloc8box_free17hf9c8079907b201dbE
	movq	%r14, %rdi
	callq	__Unwind_Resume
	ud2
Ltmp139:
Lfunc_end11:
	.cfi_endproc
	.section	__TEXT,__gcc_except_tab
	.p2align	2
GCC_except_table11:
Lexception1:
	.byte	255
	.byte	255
	.byte	1
	.uleb128 Lcst_end1-Lcst_begin1
Lcst_begin1:
	.uleb128 Ltmp71-Lfunc_begin11
	.uleb128 Ltmp72-Ltmp71
	.uleb128 Ltmp73-Lfunc_begin11
	.byte	0
	.uleb128 Ltmp72-Lfunc_begin11
	.uleb128 Lfunc_end11-Ltmp72
	.byte	0
	.byte	0
Lcst_end1:
	.p2align	2

	.section	__TEXT,__text,regular,pure_instructions
	.p2align	4, 0x90
__ZN4core3ptr13drop_in_place17hab0ce1ddb63c55d0E:
Lfunc_begin12:
	.loc	8 178 0 is_stmt 1
	.cfi_startproc
	pushq	%rbp
	.cfi_def_cfa_offset 16
	.cfi_offset %rbp, -16
	movq	%rsp, %rbp
	.cfi_def_cfa_register %rbp
	pushq	%r14
	pushq	%rbx
	.cfi_offset %rbx, -32
	.cfi_offset %r14, -24
	movq	%rdi, %rbx
Ltmp140:
	.loc	10 34 13 prologue_end
	cmpb	$0, 8(%rdi)
	.loc	10 34 12 is_stmt 0
	jne	LBB12_3
Ltmp141:
	.loc	11 0 0
	movq	(%rbx), %r14
Ltmp142:
	.loc	12 732 5 is_stmt 1
	callq	__ZN3std9panicking9panicking17h6f800ddc6c0d9b77E
Ltmp143:
	.loc	10 34 12
	testb	%al, %al
	je	LBB12_3
Ltmp144:
	.loc	13 2265 20
	movb	$1, 8(%r14)
Ltmp145:
LBB12_3:
	.loc	11 446 13
	movq	(%rbx), %rax
	movq	(%rax), %rdi
Ltmp146:
	.loc	14 68 17
	popq	%rbx
Ltmp147:
	popq	%r14
	popq	%rbp
	jmp	_pthread_mutex_unlock
Ltmp148:
Lfunc_end12:
	.cfi_endproc

	.p2align	4, 0x90
__ZN4core3ptr13drop_in_place17hd834a1899a48f462E:
Lfunc_begin13:
	.loc	8 178 0
	.cfi_startproc
	pushq	%rbp
	.cfi_def_cfa_offset 16
	.cfi_offset %rbp, -16
	movq	%rsp, %rbp
	.cfi_def_cfa_register %rbp
	pushq	%rbx
	pushq	%rax
	.cfi_offset %rbx, -24
	movq	%rdi, %rbx
Ltmp149:
	.loc	11 373 18 prologue_end
	movq	(%rdi), %rdi
Ltmp150:
	.loc	14 78 17
	callq	_pthread_mutex_destroy
Ltmp151:
	.loc	8 178 1
	movq	(%rbx), %rdi
Ltmp152:
	.loc	9 102 5
	movl	$64, %esi
	movl	$8, %edx
	addq	$8, %rsp
	popq	%rbx
Ltmp153:
	popq	%rbp
	jmp	___rust_dealloc
Ltmp154:
Lfunc_end13:
	.cfi_endproc

	.p2align	4, 0x90
__ZN4core3ptr13drop_in_place17hf8ca737bf4674d69E:
Lfunc_begin14:
	.loc	8 178 0
	.cfi_startproc
	pushq	%rbp
	.cfi_def_cfa_offset 16
	.cfi_offset %rbp, -16
	movq	%rsp, %rbp
	.cfi_def_cfa_register %rbp
	movq	%rdi, %rax
Ltmp155:
	.loc	8 178 1 prologue_end
	movq	(%rdi), %rdi
Ltmp156:
	testq	%rdi, %rdi
	je	LBB14_2
Ltmp157:
	.loc	8 178 1 is_stmt 0
	movq	8(%rax), %rsi
Ltmp158:
	.loc	18 200 40 is_stmt 1
	testq	%rsi, %rsi
	.loc	18 200 9 is_stmt 0
	je	LBB14_2
Ltmp159:
	.loc	9 102 5 is_stmt 1
	movl	$1, %edx
	popq	%rbp
	jmp	___rust_dealloc
Ltmp160:
LBB14_2:
	.loc	8 178 1
	popq	%rbp
	retq
Ltmp161:
Lfunc_end14:
	.cfi_endproc

	.p2align	4, 0x90
__ZN5alloc5alloc8box_free17h09df02824844a2e3E:
Lfunc_begin15:
	.loc	9 281 0
	.cfi_startproc
	pushq	%rbp
	.cfi_def_cfa_offset 16
	.cfi_offset %rbp, -16
	movq	%rsp, %rbp
	.cfi_def_cfa_register %rbp
	movq	%rsi, %rax
Ltmp162:
	.loc	9 282 16 prologue_end
	movq	8(%rsi), %rsi
Ltmp163:
	.loc	9 185 12
	testq	%rsi, %rsi
	.loc	9 185 9 is_stmt 0
	je	LBB15_1
Ltmp164:
	.loc	9 283 17 is_stmt 1
	movq	16(%rax), %rdx
Ltmp165:
	.loc	9 102 5
	popq	%rbp
	jmp	___rust_dealloc
Ltmp166:
LBB15_1:
	.loc	9 286 2
	popq	%rbp
	retq
Ltmp167:
Lfunc_end15:
	.cfi_endproc

	.p2align	4, 0x90
__ZN5alloc5alloc8box_free17h826047466c667460E:
Lfunc_begin16:
	.loc	9 281 0
	.cfi_startproc
	pushq	%rbp
	.cfi_def_cfa_offset 16
	.cfi_offset %rbp, -16
	movq	%rsp, %rbp
	.cfi_def_cfa_register %rbp
Ltmp168:
	.loc	9 102 5 prologue_end
	movl	$64, %esi
	movl	$8, %edx
	popq	%rbp
	jmp	___rust_dealloc
Ltmp169:
Lfunc_end16:
	.cfi_endproc

	.p2align	4, 0x90
__ZN5alloc5alloc8box_free17hf9c8079907b201dbE:
Lfunc_begin17:
	.loc	9 281 0
	.cfi_startproc
	pushq	%rbp
	.cfi_def_cfa_offset 16
	.cfi_offset %rbp, -16
	movq	%rsp, %rbp
	.cfi_def_cfa_register %rbp
Ltmp170:
	.loc	9 282 16 prologue_end
	movq	16(%rsi), %rax
	cmpq	$8, %rax
	movl	$8, %edx
	cmovaq	%rax, %rdx
Ltmp171:
	movq	8(%rsi), %rax
	leaq	47(%rax,%rdx), %rax
	movq	%rdx, %rsi
	negq	%rsi
Ltmp172:
	.loc	9 185 12
	andq	%rax, %rsi
Ltmp173:
	.loc	9 185 9 is_stmt 0
	je	LBB17_1
Ltmp174:
	.loc	9 102 5 is_stmt 1
	popq	%rbp
	jmp	___rust_dealloc
Ltmp175:
LBB17_1:
	.loc	9 286 2
	popq	%rbp
	retq
Ltmp176:
Lfunc_end17:
	.cfi_endproc

	.p2align	4, 0x90
__ZN66_$LT$core..option..Option$LT$T$GT$$u20$as$u20$core..fmt..Debug$GT$3fmt17heba402aeff92e783E:
Lfunc_begin18:
	.loc	6 151 0
	.cfi_startproc
	pushq	%rbp
	.cfi_def_cfa_offset 16
	.cfi_offset %rbp, -16
	movq	%rsp, %rbp
	.cfi_def_cfa_register %rbp
Ltmp177:
	pushq	%r14
	pushq	%rbx
	subq	$32, %rsp
	.cfi_offset %rbx, -32
	.cfi_offset %r14, -24
	.loc	6 151 48 prologue_end
	cmpq	$0, (%rdi)
	je	LBB18_2
Ltmp178:
	.loc	6 0 48 is_stmt 0
	movq	%rdi, %rbx
Ltmp179:
	leaq	-48(%rbp), %r14
Ltmp180:
	.loc	6 151 48
	leaq	L___unnamed_8(%rip), %rdx
	movl	$4, %ecx
	movq	%r14, %rdi
	callq	__ZN4core3fmt9Formatter11debug_tuple17h15ca25ad759edd1cE
Ltmp181:
	.loc	6 160 56 is_stmt 1
	movq	%rbx, -24(%rbp)
	.loc	6 151 48
	leaq	l___unnamed_2(%rip), %rdx
	leaq	-24(%rbp), %rsi
	movq	%r14, %rdi
	callq	__ZN4core3fmt8builders10DebugTuple5field17hf36121153a94f236E
	jmp	LBB18_3
Ltmp182:
LBB18_2:
	.loc	6 0 48 is_stmt 0
	leaq	-48(%rbp), %r14
Ltmp183:
	.loc	6 151 48
	leaq	L___unnamed_9(%rip), %rdx
	movl	$4, %ecx
	movq	%r14, %rdi
Ltmp184:
	callq	__ZN4core3fmt9Formatter11debug_tuple17h15ca25ad759edd1cE
Ltmp185:
LBB18_3:
	.loc	6 0 0
	movq	%r14, %rdi
	callq	__ZN4core3fmt8builders10DebugTuple6finish17h68acf09c6f6593f2E
	.loc	6 151 53
	addq	$32, %rsp
	popq	%rbx
	popq	%r14
	popq	%rbp
	retq
Ltmp186:
Lfunc_end18:
	.cfi_endproc

	.p2align	4, 0x90
__ZN82_$LT$std..sys_common..poison..PoisonError$LT$T$GT$$u20$as$u20$core..fmt..Debug$GT$3fmt17h47c0d5d9afdcf424E:
Lfunc_begin19:
	.loc	10 137 0 is_stmt 1
	.cfi_startproc
	pushq	%rbp
	.cfi_def_cfa_offset 16
	.cfi_offset %rbp, -16
	movq	%rsp, %rbp
	.cfi_def_cfa_register %rbp
	movq	%rsi, %rdx
Ltmp187:
	.loc	10 138 9 prologue_end
	leaq	l___unnamed_10(%rip), %rdi
Ltmp188:
	movl	$25, %esi
	popq	%rbp
	jmp	__ZN40_$LT$str$u20$as$u20$core..fmt..Debug$GT$3fmt17h2760aab2290546fcE
Ltmp189:
Lfunc_end19:
	.cfi_endproc

	.globl	__ZN66_$LT$dyn$u20$failure..Fail$u20$as$u20$failure..as_fail..AsFail$GT$7as_fail17hcc06e0c81763c299E
	.p2align	4, 0x90
__ZN66_$LT$dyn$u20$failure..Fail$u20$as$u20$failure..as_fail..AsFail$GT$7as_fail17hcc06e0c81763c299E:
Lfunc_begin20:
	.file	19 "/Users/yingyuhang/.cargo/registry/src/github.com-1ecc6299db9ec823/failure-0.1.8/src/as_fail.rs"
	.loc	19 24 0
	.cfi_startproc
	pushq	%rbp
	.cfi_def_cfa_offset 16
	.cfi_offset %rbp, -16
	movq	%rsp, %rbp
	.cfi_def_cfa_register %rbp
	movq	%rsi, %rdx
Ltmp190:
	movq	%rdi, %rax
Ltmp191:
	.loc	19 26 6 prologue_end
	popq	%rbp
	retq
Ltmp192:
Lfunc_end20:
	.cfi_endproc

	.globl	__ZN63_$LT$failure..box_std..BoxStd$u20$as$u20$core..fmt..Display$GT$3fmt17h4deaf408941f90cbE
	.p2align	4, 0x90
__ZN63_$LT$failure..box_std..BoxStd$u20$as$u20$core..fmt..Display$GT$3fmt17h4deaf408941f90cbE:
Lfunc_begin21:
	.file	20 "/Users/yingyuhang/.cargo/registry/src/github.com-1ecc6299db9ec823/failure-0.1.8/src/box_std.rs"
	.loc	20 8 0
	.cfi_startproc
	pushq	%rbp
	.cfi_def_cfa_offset 16
	.cfi_offset %rbp, -16
	movq	%rsp, %rbp
	.cfi_def_cfa_register %rbp
Ltmp193:
	.file	21 "/rustc/a74d1862d4d87a56244958416fd05976c58ca1a8/src/liballoc/boxed.rs"
	.loc	21 924 27 prologue_end
	movq	(%rdi), %rax
	movq	8(%rdi), %rcx
	.loc	21 924 9 is_stmt 0
	movq	64(%rcx), %rcx
	movq	%rax, %rdi
Ltmp194:
	popq	%rbp
	jmpq	*%rcx
Ltmp195:
Lfunc_end21:
	.cfi_endproc

	.globl	__ZN61_$LT$failure..box_std..BoxStd$u20$as$u20$core..fmt..Debug$GT$3fmt17he3dabc85ce059045E
	.p2align	4, 0x90
__ZN61_$LT$failure..box_std..BoxStd$u20$as$u20$core..fmt..Debug$GT$3fmt17he3dabc85ce059045E:
Lfunc_begin22:
	.loc	20 14 0 is_stmt 1
	.cfi_startproc
	pushq	%rbp
	.cfi_def_cfa_offset 16
	.cfi_offset %rbp, -16
	movq	%rsp, %rbp
	.cfi_def_cfa_register %rbp
Ltmp196:
	.loc	21 931 25 prologue_end
	movq	(%rdi), %rax
	movq	8(%rdi), %rcx
	.loc	21 931 9 is_stmt 0
	movq	72(%rcx), %rcx
	movq	%rax, %rdi
Ltmp197:
	popq	%rbp
	jmpq	*%rcx
Ltmp198:
Lfunc_end22:
	.cfi_endproc

	.p2align	4, 0x90
__ZN71_$LT$failure..compat..Compat$LT$E$GT$$u20$as$u20$core..fmt..Display$GT$3fmt17h8d38975f831749e7E:
Lfunc_begin23:
	.file	22 "/Users/yingyuhang/.cargo/registry/src/github.com-1ecc6299db9ec823/failure-0.1.8/src/compat.rs"
	.loc	22 13 0 is_stmt 1
	.cfi_startproc
	pushq	%rbp
	.cfi_def_cfa_offset 16
	.cfi_offset %rbp, -16
	movq	%rsp, %rbp
	.cfi_def_cfa_register %rbp
Ltmp199:
	.loc	4 29 9 prologue_end
	movq	8(%rdi), %rax
	movq	16(%rax), %rcx
Ltmp200:
	.loc	3 1973 62
	movq	88(%rax), %rdx
Ltmp201:
	.loc	4 29 9
	leaq	47(%rcx), %rax
	negq	%rcx
	andq	%rcx, %rax
	addq	(%rdi), %rax
Ltmp202:
	.loc	3 1973 62
	movq	%rax, %rdi
Ltmp203:
	popq	%rbp
	jmpq	*%rdx
Ltmp204:
Lfunc_end23:
	.cfi_endproc

	.p2align	4, 0x90
__ZN7failure4Fail9backtrace17ha18e292db1d00f86E:
Lfunc_begin24:
	.file	23 "/Users/yingyuhang/.cargo/registry/src/github.com-1ecc6299db9ec823/failure-0.1.8/src/lib.rs"
	.loc	23 138 0
	.cfi_startproc
	pushq	%rbp
	.cfi_def_cfa_offset 16
	.cfi_offset %rbp, -16
	movq	%rsp, %rbp
	.cfi_def_cfa_register %rbp
Ltmp205:
	.loc	23 140 6 prologue_end
	xorl	%eax, %eax
	popq	%rbp
	retq
Ltmp206:
Lfunc_end24:
	.cfi_endproc

	.p2align	4, 0x90
__ZN7failure4Fail23__private_get_type_id__17h1271a7d09a62fb70E:
Lfunc_begin25:
	.loc	23 197 0
	.cfi_startproc
	pushq	%rbp
	.cfi_def_cfa_offset 16
	.cfi_offset %rbp, -16
	movq	%rsp, %rbp
	.cfi_def_cfa_register %rbp
	movabsq	$2129146683190052964, %rax
Ltmp207:
	.loc	23 199 6 prologue_end
	popq	%rbp
	retq
Ltmp208:
Lfunc_end25:
	.cfi_endproc

	.globl	__ZN30_$LT$dyn$u20$failure..Fail$GT$11iter_causes17he16f1e18128fdd1dE
	.p2align	4, 0x90
__ZN30_$LT$dyn$u20$failure..Fail$GT$11iter_causes17he16f1e18128fdd1dE:
Lfunc_begin26:
	.loc	23 242 0
	.cfi_startproc
	pushq	%rbp
	.cfi_def_cfa_offset 16
	.cfi_offset %rbp, -16
	movq	%rsp, %rbp
	.cfi_def_cfa_register %rbp
Ltmp209:
	.loc	23 243 24 prologue_end
	popq	%rbp
	jmpq	*32(%rsi)
Ltmp210:
Lfunc_end26:
	.cfi_endproc

	.globl	__ZN30_$LT$dyn$u20$failure..Fail$GT$10iter_chain17h72fa9f5eb4e1bc16E
	.p2align	4, 0x90
__ZN30_$LT$dyn$u20$failure..Fail$GT$10iter_chain17h72fa9f5eb4e1bc16E:
Lfunc_begin27:
	.loc	23 252 0
	.cfi_startproc
	pushq	%rbp
	.cfi_def_cfa_offset 16
	.cfi_offset %rbp, -16
	movq	%rsp, %rbp
	.cfi_def_cfa_register %rbp
	movq	%rsi, %rdx
Ltmp211:
	movq	%rdi, %rax
Ltmp212:
	.loc	23 254 6 prologue_end
	popq	%rbp
	retq
Ltmp213:
Lfunc_end27:
	.cfi_endproc

	.globl	__ZN30_$LT$dyn$u20$failure..Fail$GT$10root_cause17h02a82f89f9cadb41E
	.p2align	4, 0x90
__ZN30_$LT$dyn$u20$failure..Fail$GT$10root_cause17h02a82f89f9cadb41E:
Lfunc_begin28:
	.loc	23 261 0
	.cfi_startproc
	pushq	%rbp
	.cfi_def_cfa_offset 16
	.cfi_offset %rbp, -16
	movq	%rsp, %rbp
	.cfi_def_cfa_register %rbp
	pushq	%r14
	pushq	%rbx
	.cfi_offset %rbx, -32
	.cfi_offset %r14, -24
	movq	%rsi, %r14
Ltmp214:
	movq	%rdi, %rbx
Ltmp215:
	.loc	23 302 29 prologue_end
	callq	*32(%rsi)
	.loc	23 302 15 is_stmt 0
	testq	%rax, %rax
	je	LBB28_3
Ltmp216:
	.p2align	4, 0x90
LBB28_1:
	.loc	23 0 15
	movq	%rax, %rbx
Ltmp217:
	movq	%rdx, %r14
Ltmp218:
	.loc	23 302 29
	movq	%rax, %rdi
	callq	*32(%rdx)
	.loc	23 302 15
	testq	%rax, %rax
	jne	LBB28_1
Ltmp219:
LBB28_3:
	.loc	23 263 6 is_stmt 1
	movq	%rbx, %rax
	movq	%r14, %rdx
	popq	%rbx
	popq	%r14
	popq	%rbp
	retq
Ltmp220:
Lfunc_end28:
	.cfi_endproc

	.globl	__ZN80_$LT$alloc..boxed..Box$LT$dyn$u20$failure..Fail$GT$$u20$as$u20$failure..Fail$GT$5cause17hd9485d55598bc415E
	.p2align	4, 0x90
__ZN80_$LT$alloc..boxed..Box$LT$dyn$u20$failure..Fail$GT$$u20$as$u20$failure..Fail$GT$5cause17hd9485d55598bc415E:
Lfunc_begin29:
	.loc	23 277 0
	.cfi_startproc
	pushq	%rbp
	.cfi_def_cfa_offset 16
	.cfi_offset %rbp, -16
	movq	%rsp, %rbp
	.cfi_def_cfa_register %rbp
Ltmp221:
	.loc	23 278 9 prologue_end
	movq	(%rdi), %rax
	movq	8(%rdi), %rcx
	movq	%rax, %rdi
Ltmp222:
	popq	%rbp
	jmpq	*32(%rcx)
Ltmp223:
Lfunc_end29:
	.cfi_endproc

	.globl	__ZN80_$LT$alloc..boxed..Box$LT$dyn$u20$failure..Fail$GT$$u20$as$u20$failure..Fail$GT$9backtrace17h5846d5eb8f4c55a1E
	.p2align	4, 0x90
__ZN80_$LT$alloc..boxed..Box$LT$dyn$u20$failure..Fail$GT$$u20$as$u20$failure..Fail$GT$9backtrace17h5846d5eb8f4c55a1E:
Lfunc_begin30:
	.loc	23 281 0
	.cfi_startproc
	pushq	%rbp
	.cfi_def_cfa_offset 16
	.cfi_offset %rbp, -16
	movq	%rsp, %rbp
	.cfi_def_cfa_register %rbp
Ltmp224:
	.loc	23 282 9 prologue_end
	movq	(%rdi), %rax
	movq	8(%rdi), %rcx
	movq	%rax, %rdi
Ltmp225:
	popq	%rbp
	jmpq	*40(%rcx)
Ltmp226:
Lfunc_end30:
	.cfi_endproc

	.globl	__ZN74_$LT$failure..Causes$u20$as$u20$core..iter..traits..iterator..Iterator$GT$4next17h7b59d06e619dae80E
	.p2align	4, 0x90
__ZN74_$LT$failure..Causes$u20$as$u20$core..iter..traits..iterator..Iterator$GT$4next17h7b59d06e619dae80E:
Lfunc_begin31:
	.loc	23 293 0
	.cfi_startproc
	pushq	%rbp
	.cfi_def_cfa_offset 16
	.cfi_offset %rbp, -16
	movq	%rsp, %rbp
	.cfi_def_cfa_register %rbp
Ltmp227:
	pushq	%r15
	pushq	%r14
	pushq	%rbx
	pushq	%rax
	.cfi_offset %rbx, -40
	.cfi_offset %r14, -32
	.cfi_offset %r15, -24
	.loc	23 294 9 prologue_end
	movq	(%rdi), %r15
Ltmp228:
	movq	8(%rdi), %r14
Ltmp229:
	.loc	6 458 13
	testq	%r15, %r15
	je	LBB31_2
Ltmp230:
	.loc	6 0 13 is_stmt 0
	movq	%rdi, %rbx
Ltmp231:
	.loc	23 295 25 is_stmt 1
	movq	%r15, %rdi
	callq	*32(%r14)
	.loc	23 295 13 is_stmt 0
	movq	%rax, (%rbx)
	movq	%rdx, 8(%rbx)
Ltmp232:
LBB31_2:
	.loc	23 298 6 is_stmt 1
	movq	%r15, %rax
	movq	%r14, %rdx
	addq	$8, %rsp
	popq	%rbx
	popq	%r14
	popq	%r15
	popq	%rbp
	retq
Ltmp233:
Lfunc_end31:
	.cfi_endproc

	.globl	__ZN7failure15find_root_cause17hfade740e0ab1c469E
	.p2align	4, 0x90
__ZN7failure15find_root_cause17hfade740e0ab1c469E:
Lfunc_begin32:
	.loc	23 301 0
	.cfi_startproc
	pushq	%rbp
	.cfi_def_cfa_offset 16
	.cfi_offset %rbp, -16
	movq	%rsp, %rbp
	.cfi_def_cfa_register %rbp
	pushq	%r14
	pushq	%rbx
	.cfi_offset %rbx, -32
	.cfi_offset %r14, -24
	movq	%rsi, %r14
Ltmp234:
	movq	%rdi, %rbx
Ltmp235:
	.loc	23 302 29 prologue_end
	callq	*32(%rsi)
	.loc	23 302 15 is_stmt 0
	testq	%rax, %rax
	je	LBB32_3
Ltmp236:
	.p2align	4, 0x90
LBB32_1:
	.loc	23 0 15
	movq	%rax, %rbx
Ltmp237:
	movq	%rdx, %r14
Ltmp238:
	.loc	23 302 29
	movq	%rax, %rdi
	callq	*32(%rdx)
	.loc	23 302 15
	testq	%rax, %rax
	jne	LBB32_1
Ltmp239:
LBB32_3:
	.loc	23 307 2 is_stmt 1
	movq	%rbx, %rax
	movq	%r14, %rdx
	popq	%rbx
Ltmp240:
	popq	%r14
Ltmp241:
	popq	%rbp
	retq
Ltmp242:
Lfunc_end32:
	.cfi_endproc

	.globl	__ZN66_$LT$failure..error..Error$u20$as$u20$failure..as_fail..AsFail$GT$7as_fail17hd989a35b1d7a5ea3E
	.p2align	4, 0x90
__ZN66_$LT$failure..error..Error$u20$as$u20$failure..as_fail..AsFail$GT$7as_fail17hd989a35b1d7a5ea3E:
Lfunc_begin33:
	.loc	19 33 0
	.cfi_startproc
	pushq	%rbp
	.cfi_def_cfa_offset 16
	.cfi_offset %rbp, -16
	movq	%rsp, %rbp
	.cfi_def_cfa_register %rbp
Ltmp243:
	.loc	4 29 9 prologue_end
	movq	8(%rdi), %rdx
	movq	16(%rdx), %rcx
	leaq	47(%rcx), %rax
	negq	%rcx
	andq	%rcx, %rax
	addq	(%rdi), %rax
Ltmp244:
	.loc	19 35 10
	popq	%rbp
	retq
Ltmp245:
Lfunc_end33:
	.cfi_endproc

	.p2align	4, 0x90
__ZN7failure9backtrace8internal17InternalBacktrace12as_backtrace17hb7231ead46448ab3E:
Lfunc_begin34:
	.loc	1 55 0
	.cfi_startproc
	.cfi_personality 155, _rust_eh_personality
	.cfi_lsda 16, Lexception2
	pushq	%rbp
	.cfi_def_cfa_offset 16
	.cfi_offset %rbp, -16
	movq	%rsp, %rbp
	.cfi_def_cfa_register %rbp
	pushq	%r14
	pushq	%rbx
	subq	$16, %rsp
	.cfi_offset %rbx, -32
	.cfi_offset %r14, -24
	movq	%rdi, %rbx
Ltmp252:
	.loc	1 57 13 prologue_end
	movq	(%rdi), %rdi
	testq	%rdi, %rdi
	je	LBB34_1
Ltmp253:
	.loc	14 63 17
	callq	_pthread_mutex_lock
Ltmp254:
	.loc	12 732 5
	callq	__ZN3std9panicking9panicking17h6f800ddc6c0d9b77E
	movl	%eax, %r14d
Ltmp255:
	.loc	13 2276 20
	movb	8(%rbx), %al
Ltmp256:
	.loc	13 404 18
	testb	%al, %al
Ltmp257:
	.file	24 "/rustc/a74d1862d4d87a56244958416fd05976c58ca1a8/src/libcore/result.rs"
	.loc	24 1004 13
	jne	LBB34_3
Ltmp258:
	.loc	1 60 28
	movq	%rbx, -32(%rbp)
	movb	%r14b, -24(%rbp)
Ltmp259:
	.loc	1 62 17
	cmpb	$0, 9(%rbx)
	.loc	1 62 13 is_stmt 0
	je	LBB34_7
Ltmp260:
	.loc	10 34 12 is_stmt 1
	testb	%r14b, %r14b
	jne	LBB34_12
Ltmp261:
LBB34_10:
	.loc	12 732 5
	callq	__ZN3std9panicking9panicking17h6f800ddc6c0d9b77E
Ltmp262:
	.loc	10 34 12
	testb	%al, %al
	je	LBB34_12
Ltmp263:
	.loc	13 2265 20
	movb	$1, 8(%rbx)
	jmp	LBB34_12
Ltmp264:
LBB34_1:
	.loc	13 0 20 is_stmt 0
	xorl	%ebx, %ebx
Ltmp265:
	jmp	LBB34_13
LBB34_7:
Ltmp266:
	.loc	1 63 19 is_stmt 1
	leaq	16(%rbx), %rdi
Ltmp267:
Ltmp249:
	.loc	1 63 17 is_stmt 0
	callq	__ZN9backtrace7capture9Backtrace7resolve17h0ffea17a72f105bbE
Ltmp268:
Ltmp250:
	.loc	1 64 17 is_stmt 1
	movb	$1, 9(%rbx)
Ltmp269:
	.loc	10 34 12
	testb	%r14b, %r14b
	je	LBB34_10
Ltmp270:
LBB34_12:
	.loc	11 446 13
	movq	(%rbx), %rdi
Ltmp271:
	.loc	1 0 0 is_stmt 0
	addq	$16, %rbx
Ltmp272:
	.loc	14 68 17 is_stmt 1
	callq	_pthread_mutex_unlock
Ltmp273:
LBB34_13:
	.loc	1 68 6 is_stmt 0
	movq	%rbx, %rax
	addq	$16, %rsp
	popq	%rbx
	popq	%r14
	popq	%rbp
	retq
LBB34_3:
Ltmp274:
	.loc	24 1005 17 is_stmt 1
	movq	%rbx, -32(%rbp)
	movb	%r14b, -24(%rbp)
Ltmp246:
Ltmp275:
	.loc	24 1005 23 is_stmt 0
	leaq	l___unnamed_11(%rip), %rdi
	leaq	l___unnamed_1(%rip), %rcx
	leaq	l___unnamed_12(%rip), %r8
	leaq	-32(%rbp), %rdx
	movl	$43, %esi
	callq	__ZN4core6result13unwrap_failed17hb5a510096a5fc85fE
Ltmp247:
Ltmp276:
	.loc	24 0 23
	ud2
Ltmp277:
LBB34_5:
Ltmp248:
	movq	%rax, %rbx
Ltmp278:
	leaq	-32(%rbp), %rdi
	.loc	24 1005 87
	callq	__ZN4core3ptr13drop_in_place17h60bdc2614488066fE
	movq	%rbx, %rdi
	callq	__Unwind_Resume
	ud2
Ltmp279:
LBB34_14:
Ltmp251:
	.loc	24 0 87
	movq	%rax, %rbx
Ltmp280:
	leaq	-32(%rbp), %rdi
	.loc	1 68 5 is_stmt 1
	callq	__ZN4core3ptr13drop_in_place17hab0ce1ddb63c55d0E
	movq	%rbx, %rdi
	callq	__Unwind_Resume
	ud2
Ltmp281:
Lfunc_end34:
	.cfi_endproc
	.section	__TEXT,__gcc_except_tab
	.p2align	2
GCC_except_table34:
Lexception2:
	.byte	255
	.byte	255
	.byte	1
	.uleb128 Lcst_end2-Lcst_begin2
Lcst_begin2:
	.uleb128 Lfunc_begin34-Lfunc_begin34
	.uleb128 Ltmp249-Lfunc_begin34
	.byte	0
	.byte	0
	.uleb128 Ltmp249-Lfunc_begin34
	.uleb128 Ltmp250-Ltmp249
	.uleb128 Ltmp251-Lfunc_begin34
	.byte	0
	.uleb128 Ltmp246-Lfunc_begin34
	.uleb128 Ltmp247-Ltmp246
	.uleb128 Ltmp248-Lfunc_begin34
	.byte	0
	.uleb128 Ltmp247-Lfunc_begin34
	.uleb128 Lfunc_end34-Ltmp247
	.byte	0
	.byte	0
Lcst_end2:
	.p2align	2

	.section	__TEXT,__text,regular,pure_instructions
	.globl	__ZN84_$LT$failure..backtrace..internal..InternalBacktrace$u20$as$u20$core..fmt..Debug$GT$3fmt17h9f3b99146b562d1eE
	.p2align	4, 0x90
__ZN84_$LT$failure..backtrace..internal..InternalBacktrace$u20$as$u20$core..fmt..Debug$GT$3fmt17h9f3b99146b562d1eE:
Lfunc_begin35:
	.loc	1 76 0
	.cfi_startproc
	pushq	%rbp
	.cfi_def_cfa_offset 16
	.cfi_offset %rbp, -16
	movq	%rsp, %rbp
	.cfi_def_cfa_register %rbp
	pushq	%r14
	pushq	%rbx
	subq	$32, %rsp
	.cfi_offset %rbx, -32
	.cfi_offset %r14, -24
	movq	%rdi, %rbx
Ltmp282:
	.loc	1 77 9 prologue_end
	leaq	l___unnamed_13(%rip), %rdx
	leaq	-40(%rbp), %r14
	movl	$17, %ecx
	movq	%r14, %rdi
	callq	__ZN4core3fmt9Formatter12debug_struct17h985c0158d1fc7193E
Ltmp283:
	.loc	1 78 34
	movq	%rbx, %rdi
Ltmp284:
	callq	__ZN7failure9backtrace8internal17InternalBacktrace12as_backtrace17hb7231ead46448ab3E
Ltmp285:
	movq	%rax, -24(%rbp)
	.loc	1 77 9
	leaq	l___unnamed_14(%rip), %rsi
	leaq	l___unnamed_3(%rip), %r8
	leaq	-24(%rbp), %rcx
	movl	$9, %edx
	movq	%r14, %rdi
	callq	__ZN4core3fmt8builders11DebugStruct5field17h9c15dc155278eed2E
	movq	%rax, %rdi
	callq	__ZN4core3fmt8builders11DebugStruct6finish17h26808393f3fed630E
	.loc	1 80 6
	addq	$32, %rsp
	popq	%rbx
	popq	%r14
	popq	%rbp
	retq
Ltmp286:
Lfunc_end35:
	.cfi_endproc

	.globl	__ZN7failure9backtrace9Backtrace3new17h53bd39fe603c24d3E
	.p2align	4, 0x90
__ZN7failure9backtrace9Backtrace3new17h53bd39fe603c24d3E:
Lfunc_begin36:
	.loc	7 120 0
	.cfi_startproc
	.cfi_personality 155, _rust_eh_personality
	.cfi_lsda 16, Lexception3
	pushq	%rbp
	.cfi_def_cfa_offset 16
	.cfi_offset %rbp, -16
	movq	%rsp, %rbp
	.cfi_def_cfa_register %rbp
	pushq	%r15
	pushq	%r14
	pushq	%r12
	pushq	%rbx
	subq	$112, %rsp
	.cfi_offset %rbx, -48
	.cfi_offset %r12, -40
	.cfi_offset %r14, -32
	.cfi_offset %r15, -24
	movq	%rdi, %r14
Ltmp309:
	.loc	13 2277 19 prologue_end
	movq	__ZN7failure9backtrace8internal17InternalBacktrace3new7ENABLED17h9a4f3c7aed3aca4cE(%rip), %rax
Ltmp310:
	.loc	1 32 13
	cmpq	$1, %rax
	je	LBB36_26
Ltmp311:
	testq	%rax, %rax
	jne	LBB36_21
Ltmp287:
Ltmp312:
	.file	25 "/rustc/a74d1862d4d87a56244958416fd05976c58ca1a8/src/libstd/env.rs"
	.loc	25 246 5
	leaq	l___unnamed_15(%rip), %rsi
	leaq	-72(%rbp), %rdi
	movl	$22, %edx
	callq	__ZN3std3env7_var_os17hc8b7303001145450E
Ltmp288:
Ltmp313:
	.loc	1 85 9
	cmpq	$0, -72(%rbp)
	je	LBB36_10
Ltmp290:
Ltmp314:
	.file	26 "/rustc/a74d1862d4d87a56244958416fd05976c58ca1a8/src/libcore/cmp.rs"
	.loc	26 217 10
	leaq	l___unnamed_16(%rip), %rsi
Ltmp315:
	.loc	26 0 10 is_stmt 0
	leaq	-72(%rbp), %rdi
Ltmp316:
	.loc	26 217 10
	movl	$1, %edx
	callq	__ZN78_$LT$std..ffi..os_str..OsString$u20$as$u20$core..cmp..PartialEq$LT$str$GT$$GT$2eq17hcbf583f29a130742E
Ltmp317:
Ltmp291:
	.loc	26 0 10
	movb	$1, %bl
	.loc	1 85 26 is_stmt 1
	testb	%al, %al
	je	LBB36_17
Ltmp292:
Ltmp318:
	.loc	26 1220 13
	leaq	l___unnamed_16(%rip), %rsi
	leaq	-72(%rbp), %rdi
	movl	$1, %edx
	callq	__ZN78_$LT$std..ffi..os_str..OsString$u20$as$u20$core..cmp..PartialEq$LT$str$GT$$GT$2eq17hcbf583f29a130742E
Ltmp293:
Ltmp319:
	.loc	1 86 26
	testb	%al, %al
	je	LBB36_10
	.loc	1 0 26 is_stmt 0
	xorl	%ebx, %ebx
Ltmp320:
	.loc	8 178 1 is_stmt 1
	movq	-72(%rbp), %rdi
Ltmp321:
	testq	%rdi, %rdi
	je	LBB36_20
Ltmp322:
LBB36_18:
	.loc	8 178 1 is_stmt 0
	movq	-64(%rbp), %rsi
Ltmp323:
	.loc	18 200 40 is_stmt 1
	testq	%rsi, %rsi
	.loc	18 200 9 is_stmt 0
	je	LBB36_20
Ltmp324:
	.loc	9 102 5 is_stmt 1
	movl	$1, %edx
	callq	___rust_dealloc
Ltmp325:
	.loc	9 0 5 is_stmt 0
	jmp	LBB36_20
Ltmp326:
LBB36_10:
Ltmp294:
	.loc	25 246 5 is_stmt 1
	leaq	l___unnamed_17(%rip), %rsi
	leaq	-112(%rbp), %rdi
	movl	$14, %edx
	callq	__ZN3std3env7_var_os17hc8b7303001145450E
Ltmp295:
Ltmp327:
	.loc	1 88 13
	cmpq	$0, -112(%rbp)
	je	LBB36_16
Ltmp297:
Ltmp328:
	.loc	26 217 10
	leaq	l___unnamed_16(%rip), %rsi
Ltmp329:
	.loc	26 0 10 is_stmt 0
	leaq	-112(%rbp), %rdi
Ltmp330:
	.loc	26 217 10
	movl	$1, %edx
	callq	__ZN78_$LT$std..ffi..os_str..OsString$u20$as$u20$core..cmp..PartialEq$LT$str$GT$$GT$2eq17hcbf583f29a130742E
Ltmp331:
Ltmp298:
	.loc	26 0 0
	movl	%eax, %ebx
	.loc	26 217 9
	xorb	$1, %bl
Ltmp332:
	.loc	8 178 1 is_stmt 1
	movq	-112(%rbp), %rdi
Ltmp333:
	testq	%rdi, %rdi
	je	LBB36_17
Ltmp334:
	.loc	8 178 1 is_stmt 0
	movq	-104(%rbp), %rsi
Ltmp335:
	.loc	18 200 40 is_stmt 1
	testq	%rsi, %rsi
	.loc	18 200 9 is_stmt 0
	je	LBB36_17
Ltmp336:
	.loc	9 102 5 is_stmt 1
	movl	$1, %edx
	callq	___rust_dealloc
Ltmp337:
	.loc	8 178 1
	movq	-72(%rbp), %rdi
Ltmp338:
	testq	%rdi, %rdi
	jne	LBB36_18
	jmp	LBB36_20
Ltmp339:
LBB36_16:
	.loc	8 0 1 is_stmt 0
	xorl	%ebx, %ebx
LBB36_17:
Ltmp340:
	.loc	8 178 1
	movq	-72(%rbp), %rdi
Ltmp341:
	testq	%rdi, %rdi
	jne	LBB36_18
Ltmp342:
LBB36_20:
	.loc	1 34 31 is_stmt 1
	movzbl	%bl, %eax
	leaq	1(%rax), %rcx
Ltmp343:
	.loc	13 2266 19
	xchgq	%rcx, __ZN7failure9backtrace8internal17InternalBacktrace3new7ENABLED17h9a4f3c7aed3aca4cE(%rip)
Ltmp344:
	.loc	1 35 17
	testb	%al, %al
	je	LBB36_26
Ltmp345:
LBB36_21:
	.loc	9 80 5
	movl	$64, %edi
	movl	$8, %esi
	callq	___rust_alloc
Ltmp346:
	.loc	9 269 9
	testq	%rax, %rax
	je	LBB36_28
Ltmp347:
	.loc	11 0 0 is_stmt 0
	movq	%rax, %rbx
Ltmp300:
	.loc	11 169 24 is_stmt 1
	movq	%rax, %rdi
	callq	__ZN3std10sys_common5mutex5Mutex3new17h696650690b01d120E
Ltmp301:
Ltmp348:
	.loc	11 169 20 is_stmt 0
	movq	%rbx, -112(%rbp)
Ltmp303:
	.loc	11 170 21 is_stmt 1
	callq	__ZN3std10sys_common6poison4Flag3new17h17da4b4837aefea3E
Ltmp304:
Ltmp349:
	.loc	11 0 0 is_stmt 0
	movl	%eax, %r15d
Ltmp350:
	leaq	-112(%rbp), %r12
Ltmp351:
	.loc	14 52 17 is_stmt 1
	movq	%r12, %rdi
	callq	_pthread_mutexattr_init
Ltmp352:
	.loc	14 54 17
	movq	%r12, %rdi
	xorl	%esi, %esi
	callq	_pthread_mutexattr_settype
Ltmp353:
	.loc	14 56 17
	movq	%rbx, %rdi
	movq	%r12, %rsi
	callq	_pthread_mutex_init
Ltmp354:
	.loc	14 58 17
	movq	%r12, %rdi
	callq	_pthread_mutexattr_destroy
Ltmp355:
	.loc	11 176 9
	movq	%rbx, -72(%rbp)
	movb	%r15b, -64(%rbp)
	movb	$0, -63(%rbp)
	movl	-112(%rbp), %eax
	movl	%eax, -62(%rbp)
	movzwl	-108(%rbp), %eax
	movw	%ax, -58(%rbp)
Ltmp306:
	leaq	-112(%rbp), %rdi
Ltmp356:
	.loc	1 46 44
	callq	__ZN9backtrace7capture9Backtrace14new_unresolved17h5519dd6261a0ab8cE
Ltmp307:
Ltmp357:
	.file	27 "/rustc/a74d1862d4d87a56244958416fd05976c58ca1a8/src/libcore/cell.rs"
	.loc	27 1622 22
	movq	-96(%rbp), %rax
	movq	-88(%rbp), %rcx
	movq	-112(%rbp), %rdx
	movq	-104(%rbp), %rsi
Ltmp358:
	.loc	1 44 29
	movq	-64(%rbp), %rdi
	movq	%rdi, -112(%rbp)
	movq	%rdx, -104(%rbp)
	movq	%rsi, -96(%rbp)
	.loc	1 44 24 is_stmt 0
	movq	%rcx, -40(%rbp)
	movq	%rax, -48(%rbp)
	movq	%rsi, -56(%rbp)
	movq	%rdx, -64(%rbp)
	movq	%rdi, -72(%rbp)
	jmp	LBB36_27
Ltmp359:
LBB36_26:
	.loc	1 0 24
	xorl	%ebx, %ebx
LBB36_27:
	.loc	7 121 13 is_stmt 1
	movq	%rbx, (%r14)
	movq	-72(%rbp), %rax
	movq	-64(%rbp), %rcx
	movq	%rax, 8(%r14)
	movq	%rcx, 16(%r14)
	movq	-56(%rbp), %rax
	movq	%rax, 24(%r14)
	movq	-48(%rbp), %rax
	movq	%rax, 32(%r14)
	movq	-40(%rbp), %rax
	movq	%rax, 40(%r14)
	.loc	7 122 10
	movq	%r14, %rax
	addq	$112, %rsp
	popq	%rbx
	popq	%r12
	popq	%r14
	popq	%r15
	popq	%rbp
	retq
LBB36_28:
Ltmp360:
	.loc	9 270 19
	movl	$64, %edi
	movl	$8, %esi
	callq	__ZN5alloc5alloc18handle_alloc_error17hbc0ab0ed90816c07E
Ltmp361:
LBB36_29:
Ltmp299:
	.loc	9 0 19 is_stmt 0
	movq	%rax, %r14
	leaq	-112(%rbp), %rdi
Ltmp362:
	.loc	1 90 9 is_stmt 1
	callq	__ZN4core3ptr13drop_in_place17hf8ca737bf4674d69E
	jmp	LBB36_32
LBB36_30:
Ltmp363:
Ltmp289:
	.loc	1 0 9 is_stmt 0
	movq	%rax, %r14
	movq	%r14, %rdi
	callq	__Unwind_Resume
	ud2
Ltmp364:
LBB36_31:
Ltmp296:
	movq	%rax, %r14
LBB36_32:
	leaq	-72(%rbp), %rdi
	.loc	1 92 1 is_stmt 1
	callq	__ZN4core3ptr13drop_in_place17hf8ca737bf4674d69E
	movq	%r14, %rdi
	callq	__Unwind_Resume
	ud2
Ltmp365:
LBB36_33:
Ltmp308:
	.loc	1 0 1 is_stmt 0
	movq	%rax, %r14
	leaq	-72(%rbp), %rdi
	.loc	1 47 13 is_stmt 1
	callq	__ZN4core3ptr13drop_in_place17hd834a1899a48f462E
	movq	%r14, %rdi
	callq	__Unwind_Resume
	ud2
LBB36_34:
Ltmp366:
Ltmp305:
	.loc	1 0 13 is_stmt 0
	movq	%rax, %r14
	leaq	-112(%rbp), %rdi
Ltmp367:
	.loc	11 172 9 is_stmt 1
	callq	__ZN4core3ptr13drop_in_place17h7be3ef1d01549df9E
	movq	%r14, %rdi
	callq	__Unwind_Resume
	ud2
Ltmp368:
LBB36_35:
Ltmp302:
	.loc	11 0 9 is_stmt 0
	movq	%rax, %r14
	.loc	11 169 40 is_stmt 1
	movq	%rbx, %rdi
	callq	__ZN5alloc5alloc8box_free17h826047466c667460E
	movq	%r14, %rdi
	callq	__Unwind_Resume
	ud2
Ltmp369:
Lfunc_end36:
	.cfi_endproc
	.section	__TEXT,__gcc_except_tab
	.p2align	2
GCC_except_table36:
Lexception3:
	.byte	255
	.byte	255
	.byte	1
	.uleb128 Lcst_end3-Lcst_begin3
Lcst_begin3:
	.uleb128 Ltmp287-Lfunc_begin36
	.uleb128 Ltmp288-Ltmp287
	.uleb128 Ltmp289-Lfunc_begin36
	.byte	0
	.uleb128 Ltmp290-Lfunc_begin36
	.uleb128 Ltmp295-Ltmp290
	.uleb128 Ltmp296-Lfunc_begin36
	.byte	0
	.uleb128 Ltmp297-Lfunc_begin36
	.uleb128 Ltmp298-Ltmp297
	.uleb128 Ltmp299-Lfunc_begin36
	.byte	0
	.uleb128 Ltmp300-Lfunc_begin36
	.uleb128 Ltmp301-Ltmp300
	.uleb128 Ltmp302-Lfunc_begin36
	.byte	0
	.uleb128 Ltmp303-Lfunc_begin36
	.uleb128 Ltmp304-Ltmp303
	.uleb128 Ltmp305-Lfunc_begin36
	.byte	0
	.uleb128 Ltmp306-Lfunc_begin36
	.uleb128 Ltmp307-Ltmp306
	.uleb128 Ltmp308-Lfunc_begin36
	.byte	0
	.uleb128 Ltmp307-Lfunc_begin36
	.uleb128 Lfunc_end36-Ltmp307
	.byte	0
	.byte	0
Lcst_end3:
	.p2align	2

	.section	__TEXT,__text,regular,pure_instructions
	.globl	__ZN7failure9backtrace9Backtrace4none17h6ad869f3ef2bd3acE
	.p2align	4, 0x90
__ZN7failure9backtrace9Backtrace4none17h6ad869f3ef2bd3acE:
Lfunc_begin37:
	.loc	7 124 0
	.cfi_startproc
	pushq	%rbp
	.cfi_def_cfa_offset 16
	.cfi_offset %rbp, -16
	movq	%rsp, %rbp
	.cfi_def_cfa_register %rbp
	movq	%rdi, %rax
Ltmp370:
	.loc	7 125 13 prologue_end
	movq	$0, (%rdi)
	.loc	7 126 10
	popq	%rbp
	retq
Ltmp371:
Lfunc_end37:
	.cfi_endproc

	.globl	__ZN7failure9backtrace9Backtrace8is_empty17h02eddc3327de2433E
	.p2align	4, 0x90
__ZN7failure9backtrace9Backtrace8is_empty17h02eddc3327de2433E:
Lfunc_begin38:
	.loc	7 133 0
	.cfi_startproc
	pushq	%rbp
	.cfi_def_cfa_offset 16
	.cfi_offset %rbp, -16
	movq	%rsp, %rbp
	.cfi_def_cfa_register %rbp
Ltmp372:
	.loc	6 189 25 prologue_end
	cmpq	$0, (%rdi)
	sete	%al
Ltmp373:
	.loc	7 135 10
	popq	%rbp
	retq
Ltmp374:
Lfunc_end38:
	.cfi_endproc

	.globl	__ZN72_$LT$failure..backtrace..Backtrace$u20$as$u20$core..default..Default$GT$7default17h794e34ba59ac24f1E
	.p2align	4, 0x90
__ZN72_$LT$failure..backtrace..Backtrace$u20$as$u20$core..default..Default$GT$7default17h794e34ba59ac24f1E:
Lfunc_begin39:
	.loc	7 139 0
	.cfi_startproc
	pushq	%rbp
	.cfi_def_cfa_offset 16
	.cfi_offset %rbp, -16
	movq	%rsp, %rbp
	.cfi_def_cfa_register %rbp
	pushq	%rbx
	pushq	%rax
	.cfi_offset %rbx, -24
	movq	%rdi, %rbx
Ltmp375:
	.loc	7 140 13 prologue_end
	callq	__ZN7failure9backtrace9Backtrace3new17h53bd39fe603c24d3E
	.loc	7 141 10
	movq	%rbx, %rax
	addq	$8, %rsp
	popq	%rbx
	popq	%rbp
	retq
Ltmp376:
Lfunc_end39:
	.cfi_endproc

	.globl	__ZN66_$LT$failure..backtrace..Backtrace$u20$as$u20$core..fmt..Debug$GT$3fmt17h2052fd9ffa721960E
	.p2align	4, 0x90
__ZN66_$LT$failure..backtrace..Backtrace$u20$as$u20$core..fmt..Debug$GT$3fmt17h2052fd9ffa721960E:
Lfunc_begin40:
	.loc	7 145 0
	.cfi_startproc
	pushq	%rbp
	.cfi_def_cfa_offset 16
	.cfi_offset %rbp, -16
	movq	%rsp, %rbp
	.cfi_def_cfa_register %rbp
	pushq	%rbx
	pushq	%rax
	.cfi_offset %rbx, -24
	movq	%rsi, %rbx
Ltmp377:
	.loc	7 146 31 prologue_end
	callq	__ZN7failure9backtrace8internal17InternalBacktrace12as_backtrace17hb7231ead46448ab3E
Ltmp378:
	.loc	7 146 20 is_stmt 0
	testq	%rax, %rax
	je	LBB40_1
Ltmp379:
	.loc	7 147 17 is_stmt 1
	movq	%rax, %rdi
	movq	%rbx, %rsi
	addq	$8, %rsp
	popq	%rbx
Ltmp380:
	popq	%rbp
	jmp	__ZN66_$LT$backtrace..capture..Backtrace$u20$as$u20$core..fmt..Debug$GT$3fmt17hefb56c26949c4e18E
Ltmp381:
LBB40_1:
	.loc	7 149 10
	xorl	%eax, %eax
	addq	$8, %rsp
	popq	%rbx
Ltmp382:
	popq	%rbp
	retq
Ltmp383:
Lfunc_end40:
	.cfi_endproc

	.p2align	4, 0x90
__ZN69_$LT$failure..compat..Compat$LT$E$GT$$u20$as$u20$core..fmt..Debug$GT$3fmt17h311dc06f29b914cdE:
Lfunc_begin41:
	.loc	22 7 0
	.cfi_startproc
	pushq	%rbp
	.cfi_def_cfa_offset 16
	.cfi_offset %rbp, -16
	movq	%rsp, %rbp
	.cfi_def_cfa_register %rbp
	pushq	%r14
	pushq	%rbx
	subq	$32, %rsp
	.cfi_offset %rbx, -32
	.cfi_offset %r14, -24
	movq	%rdi, %rbx
Ltmp384:
	.loc	22 7 10 prologue_end
	leaq	l___unnamed_18(%rip), %rdx
	leaq	-40(%rbp), %r14
	movl	$6, %ecx
	movq	%r14, %rdi
	callq	__ZN4core3fmt9Formatter12debug_struct17h985c0158d1fc7193E
Ltmp385:
	.loc	22 9 5
	movq	%rbx, -24(%rbp)
	.loc	22 7 10
	leaq	l___unnamed_19(%rip), %rsi
	leaq	l___unnamed_4(%rip), %r8
	leaq	-24(%rbp), %rcx
	movl	$5, %edx
	movq	%r14, %rdi
	callq	__ZN4core3fmt8builders11DebugStruct5field17h9c15dc155278eed2E
	movq	%r14, %rdi
	callq	__ZN4core3fmt8builders11DebugStruct6finish17h26808393f3fed630E
Ltmp386:
	.loc	22 7 15 is_stmt 0
	addq	$32, %rsp
	popq	%rbx
Ltmp387:
	popq	%r14
	popq	%rbp
	retq
Ltmp388:
Lfunc_end41:
	.cfi_endproc

	.p2align	4, 0x90
__ZN70_$LT$failure..compat..Compat$LT$E$GT$$u20$as$u20$std..error..Error$GT$11description17haba8a551b6b552feE:
Lfunc_begin42:
	.loc	22 37 0 is_stmt 1
	.cfi_startproc
	pushq	%rbp
	.cfi_def_cfa_offset 16
	.cfi_offset %rbp, -16
	movq	%rsp, %rbp
	.cfi_def_cfa_register %rbp
Ltmp389:
	.loc	22 39 10 prologue_end
	leaq	l___unnamed_20(%rip), %rax
	movl	$22, %edx
	popq	%rbp
	retq
Ltmp390:
Lfunc_end42:
	.cfi_endproc

	.globl	__ZN7failure6compat129_$LT$impl$u20$core..convert..From$LT$failure..error..Error$GT$$u20$for$u20$alloc..boxed..Box$LT$dyn$u20$std..error..Error$GT$$GT$4from17h84dd1c90fe016042E
	.p2align	4, 0x90
__ZN7failure6compat129_$LT$impl$u20$core..convert..From$LT$failure..error..Error$GT$$u20$for$u20$alloc..boxed..Box$LT$dyn$u20$std..error..Error$GT$$GT$4from17h84dd1c90fe016042E:
Lfunc_begin43:
	.loc	22 43 0
	.cfi_startproc
	pushq	%rbp
	.cfi_def_cfa_offset 16
	.cfi_offset %rbp, -16
	movq	%rsp, %rbp
	.cfi_def_cfa_register %rbp
	pushq	%r14
	pushq	%rbx
	.cfi_offset %rbx, -32
	.cfi_offset %r14, -24
	movq	%rsi, %r14
Ltmp391:
	movq	%rdi, %rbx
Ltmp392:
	.loc	9 80 5 prologue_end
	movl	$16, %edi
	movl	$8, %esi
	callq	___rust_alloc
Ltmp393:
	.loc	9 269 9
	testq	%rax, %rax
	je	LBB43_2
Ltmp394:
	.loc	21 174 13
	movq	%rbx, (%rax)
	movq	%r14, 8(%rax)
Ltmp395:
	.loc	22 45 10
	leaq	l___unnamed_5(%rip), %rdx
	popq	%rbx
Ltmp396:
	popq	%r14
Ltmp397:
	popq	%rbp
	retq
LBB43_2:
Ltmp398:
	.loc	9 270 19
	movl	$16, %edi
	movl	$8, %esi
	callq	__ZN5alloc5alloc18handle_alloc_error17hbc0ab0ed90816c07E
Ltmp399:
Lfunc_end43:
	.cfi_endproc

	.globl	__ZN7failure7context67Either$LT$failure..backtrace..Backtrace$C$failure..error..Error$GT$9backtrace17hb547c961e6c88a03E
	.p2align	4, 0x90
__ZN7failure7context67Either$LT$failure..backtrace..Backtrace$C$failure..error..Error$GT$9backtrace17hb547c961e6c88a03E:
Lfunc_begin44:
	.file	28 "/Users/yingyuhang/.cargo/registry/src/github.com-1ecc6299db9ec823/failure-0.1.8/src/context.rs"
	.loc	28 142 0
	.cfi_startproc
	pushq	%rbp
	.cfi_def_cfa_offset 16
	.cfi_offset %rbp, -16
	movq	%rsp, %rbp
	.cfi_def_cfa_register %rbp
	pushq	%rbx
	pushq	%rax
	.cfi_offset %rbx, -24
	movq	%rdi, %rax
Ltmp400:
	.loc	28 144 17 prologue_end
	cmpq	$1, (%rdi)
	jne	LBB44_2
Ltmp401:
	.loc	4 29 9
	movq	8(%rax), %rbx
	movq	16(%rax), %rax
Ltmp402:
	movq	16(%rax), %rcx
	leaq	47(%rcx), %rdi
	negq	%rcx
	andq	%rcx, %rdi
	addq	%rbx, %rdi
Ltmp403:
	.loc	5 95 9
	callq	*40(%rax)
Ltmp404:
	.loc	6 411 13
	testq	%rax, %rax
	cmoveq	%rbx, %rax
Ltmp405:
	.loc	28 147 10
	addq	$8, %rsp
	popq	%rbx
Ltmp406:
	popq	%rbp
	retq
LBB44_2:
Ltmp407:
	.loc	28 0 0 is_stmt 0
	addq	$8, %rax
Ltmp408:
	.loc	28 147 10
	addq	$8, %rsp
	popq	%rbx
	popq	%rbp
	retq
Ltmp409:
Lfunc_end44:
	.cfi_endproc

	.globl	__ZN7failure7context67Either$LT$failure..backtrace..Backtrace$C$failure..error..Error$GT$8as_cause17haed8b6ed8cd5b672E
	.p2align	4, 0x90
__ZN7failure7context67Either$LT$failure..backtrace..Backtrace$C$failure..error..Error$GT$8as_cause17haed8b6ed8cd5b672E:
Lfunc_begin45:
	.loc	28 149 0 is_stmt 1
	.cfi_startproc
	pushq	%rbp
	.cfi_def_cfa_offset 16
	.cfi_offset %rbp, -16
	movq	%rsp, %rbp
	.cfi_def_cfa_register %rbp
Ltmp410:
	.loc	28 151 17 prologue_end
	cmpq	$1, (%rdi)
	jne	LBB45_1
Ltmp411:
	.loc	4 29 9
	movq	16(%rdi), %rdx
	movq	16(%rdx), %rcx
	leaq	47(%rcx), %rax
	negq	%rcx
	andq	%rcx, %rax
	addq	8(%rdi), %rax
Ltmp412:
	.loc	28 154 10
	popq	%rbp
	retq
Ltmp413:
LBB45_1:
	.loc	28 0 10 is_stmt 0
	xorl	%eax, %eax
	.loc	28 154 10
	popq	%rbp
	retq
Ltmp414:
Lfunc_end45:
	.cfi_endproc

	.globl	__ZN122_$LT$failure..context..Either$LT$failure..backtrace..Backtrace$C$failure..error..Error$GT$$u20$as$u20$core..fmt..Debug$GT$3fmt17hc257dfeae78e5d45E
	.p2align	4, 0x90
__ZN122_$LT$failure..context..Either$LT$failure..backtrace..Backtrace$C$failure..error..Error$GT$$u20$as$u20$core..fmt..Debug$GT$3fmt17hc257dfeae78e5d45E:
Lfunc_begin46:
	.loc	28 158 0 is_stmt 1
	.cfi_startproc
	pushq	%rbp
	.cfi_def_cfa_offset 16
	.cfi_offset %rbp, -16
	movq	%rsp, %rbp
	.cfi_def_cfa_register %rbp
	subq	$80, %rsp
	movq	%rsi, %rax
Ltmp415:
	.loc	28 160 17 prologue_end
	cmpq	$1, (%rdi)
	jne	LBB46_2
Ltmp416:
	.loc	28 0 17 is_stmt 0
	leaq	-8(%rbp), %rdx
	.loc	28 161 30 is_stmt 1
	addq	$8, %rdi
Ltmp417:
	movq	%rdi, -8(%rbp)
	leaq	-72(%rbp), %rsi
	leaq	-24(%rbp), %rcx
Ltmp418:
	.loc	28 161 48 is_stmt 0
	movq	%rdx, -24(%rbp)
	leaq	__ZN42_$LT$$RF$T$u20$as$u20$core..fmt..Debug$GT$3fmt17h91cd3d2a88ca1b69E(%rip), %rdx
Ltmp419:
	.loc	28 0 48
	jmp	LBB46_3
Ltmp420:
LBB46_2:
	leaq	-8(%rbp), %rdx
	.loc	28 160 30 is_stmt 1
	addq	$8, %rdi
Ltmp421:
	movq	%rdi, -8(%rbp)
	leaq	-72(%rbp), %rsi
	leaq	-24(%rbp), %rcx
Ltmp422:
	.loc	28 160 48 is_stmt 0
	movq	%rdx, -24(%rbp)
	leaq	__ZN42_$LT$$RF$T$u20$as$u20$core..fmt..Debug$GT$3fmt17hbc73bd563af24a49E(%rip), %rdx
Ltmp423:
LBB46_3:
	.loc	28 0 0
	movq	%rdx, 8(%rcx)
	leaq	l___unnamed_21(%rip), %rdx
	movq	%rdx, (%rsi)
	movq	$1, 8(%rsi)
	movq	$0, 16(%rsi)
	movq	%rcx, 32(%rsi)
	movq	$1, 40(%rsi)
	movq	%rax, %rdi
	callq	__ZN4core3fmt9Formatter9write_fmt17h3dc2bf45afed3069E
Ltmp424:
	.loc	28 163 10 is_stmt 1
	addq	$80, %rsp
	popq	%rbp
	retq
Ltmp425:
Lfunc_end46:
	.cfi_endproc

	.globl	__ZN7failure5error10error_impl9ErrorImpl7failure17h9deda0efb0d5a032E
	.p2align	4, 0x90
__ZN7failure5error10error_impl9ErrorImpl7failure17h9deda0efb0d5a032E:
Lfunc_begin47:
	.loc	4 28 0
	.cfi_startproc
	pushq	%rbp
	.cfi_def_cfa_offset 16
	.cfi_offset %rbp, -16
	movq	%rsp, %rbp
	.cfi_def_cfa_register %rbp
Ltmp426:
	.loc	4 29 9 prologue_end
	movq	8(%rdi), %rdx
	movq	16(%rdx), %rcx
	leaq	47(%rcx), %rax
	negq	%rcx
	andq	%rcx, %rax
	addq	(%rdi), %rax
	.loc	4 30 6
	popq	%rbp
	retq
Ltmp427:
Lfunc_end47:
	.cfi_endproc

	.globl	__ZN7failure5error10error_impl9ErrorImpl11failure_mut17h2631493706d7a564E
	.p2align	4, 0x90
__ZN7failure5error10error_impl9ErrorImpl11failure_mut17h2631493706d7a564E:
Lfunc_begin48:
	.loc	4 32 0
	.cfi_startproc
	pushq	%rbp
	.cfi_def_cfa_offset 16
	.cfi_offset %rbp, -16
	movq	%rsp, %rbp
	.cfi_def_cfa_register %rbp
Ltmp428:
	.loc	4 33 9 prologue_end
	movq	8(%rdi), %rdx
	movq	16(%rdx), %rcx
	leaq	47(%rcx), %rax
	negq	%rcx
	andq	%rcx, %rax
	addq	(%rdi), %rax
	.loc	4 34 6
	popq	%rbp
	retq
Ltmp429:
Lfunc_end48:
	.cfi_endproc

	.globl	__ZN7failure5error5Error17from_boxed_compat17haa511003e49272eeE
	.p2align	4, 0x90
__ZN7failure5error5Error17from_boxed_compat17haa511003e49272eeE:
Lfunc_begin49:
	.loc	5 63 0
	.cfi_startproc
	.cfi_personality 155, _rust_eh_personality
	.cfi_lsda 16, Lexception4
	pushq	%rbp
	.cfi_def_cfa_offset 16
	.cfi_offset %rbp, -16
	movq	%rsp, %rbp
	.cfi_def_cfa_register %rbp
	pushq	%r15
	pushq	%r14
	pushq	%rbx
	subq	$120, %rsp
	.cfi_offset %rbx, -40
	.cfi_offset %r14, -32
	.cfi_offset %r15, -24
	movq	%rsi, %r14
Ltmp433:
	movq	%rdi, %r15
Ltmp434:
	movq	%rdi, -88(%rbp)
	movq	%rsi, -80(%rbp)
Ltmp430:
	leaq	-72(%rbp), %rdi
Ltmp435:
	.loc	4 19 17 prologue_end
	callq	__ZN7failure9backtrace9Backtrace3new17h53bd39fe603c24d3E
Ltmp431:
Ltmp436:
	.loc	4 21 30
	movq	-32(%rbp), %rax
	movq	%rax, -96(%rbp)
	movq	-40(%rbp), %rcx
	movq	%rcx, -104(%rbp)
	movq	-48(%rbp), %rdx
	movq	%rdx, -112(%rbp)
	movq	-56(%rbp), %rsi
	movq	%rsi, -120(%rbp)
	movq	-72(%rbp), %rdi
	movq	-64(%rbp), %rbx
	movq	%rbx, -128(%rbp)
	movq	%rdi, -136(%rbp)
Ltmp437:
	.loc	4 23 37
	movq	%rax, -32(%rbp)
	movq	%rcx, -40(%rbp)
	movq	%rdx, -48(%rbp)
	movq	%rsi, -56(%rbp)
	movq	%rbx, -64(%rbp)
	movq	%rdi, -72(%rbp)
Ltmp438:
	.loc	9 80 5
	movl	$64, %edi
	movl	$8, %esi
	callq	___rust_alloc
Ltmp439:
	.loc	9 269 9
	testq	%rax, %rax
	je	LBB49_2
Ltmp440:
	.loc	21 174 13
	movq	-32(%rbp), %rcx
	movq	%rcx, 40(%rax)
	movq	-40(%rbp), %rcx
	movq	%rcx, 32(%rax)
	movq	-48(%rbp), %rcx
	movq	%rcx, 24(%rax)
	movq	-56(%rbp), %rcx
	movq	%rcx, 16(%rax)
	movq	-72(%rbp), %rcx
	movq	-64(%rbp), %rdx
	movq	%rdx, 8(%rax)
	movq	%rcx, (%rax)
	movq	%r15, 48(%rax)
	movq	%r14, 56(%rax)
Ltmp441:
	.loc	4 24 6
	leaq	l___unnamed_6(%rip), %rdx
Ltmp442:
	.loc	5 65 6
	addq	$120, %rsp
	popq	%rbx
	popq	%r14
Ltmp443:
	popq	%r15
Ltmp444:
	popq	%rbp
	retq
LBB49_2:
Ltmp445:
	.loc	9 270 19
	movl	$64, %edi
	movl	$8, %esi
	callq	__ZN5alloc5alloc18handle_alloc_error17hbc0ab0ed90816c07E
Ltmp446:
LBB49_3:
Ltmp432:
	.loc	9 0 19 is_stmt 0
	movq	%rax, %rbx
	leaq	-88(%rbp), %rdi
	.loc	4 24 5 is_stmt 1
	callq	__ZN4core3ptr13drop_in_place17h49fd74ca72703898E
	movq	%rbx, %rdi
	callq	__Unwind_Resume
	ud2
Ltmp447:
Lfunc_end49:
	.cfi_endproc
	.section	__TEXT,__gcc_except_tab
	.p2align	2
GCC_except_table49:
Lexception4:
	.byte	255
	.byte	255
	.byte	1
	.uleb128 Lcst_end4-Lcst_begin4
Lcst_begin4:
	.uleb128 Ltmp430-Lfunc_begin49
	.uleb128 Ltmp431-Ltmp430
	.uleb128 Ltmp432-Lfunc_begin49
	.byte	0
	.uleb128 Ltmp431-Lfunc_begin49
	.uleb128 Lfunc_end49-Ltmp431
	.byte	0
	.byte	0
Lcst_end4:
	.p2align	2

	.section	__TEXT,__text,regular,pure_instructions
	.globl	__ZN7failure5error5Error7as_fail17h0539212fdaa869cfE
	.p2align	4, 0x90
__ZN7failure5error5Error7as_fail17h0539212fdaa869cfE:
Lfunc_begin50:
	.loc	5 69 0
	.cfi_startproc
	pushq	%rbp
	.cfi_def_cfa_offset 16
	.cfi_offset %rbp, -16
	movq	%rsp, %rbp
	.cfi_def_cfa_register %rbp
Ltmp448:
	.loc	4 29 9 prologue_end
	movq	8(%rdi), %rdx
	movq	16(%rdx), %rcx
	leaq	47(%rcx), %rax
	negq	%rcx
	andq	%rcx, %rax
	addq	(%rdi), %rax
Ltmp449:
	.loc	5 71 6
	popq	%rbp
	retq
Ltmp450:
Lfunc_end50:
	.cfi_endproc

	.globl	__ZN7failure5error5Error4name17h15d2677303de12b4E
	.p2align	4, 0x90
__ZN7failure5error5Error4name17h15d2677303de12b4E:
Lfunc_begin51:
	.loc	5 74 0
	.cfi_startproc
	pushq	%rbp
	.cfi_def_cfa_offset 16
	.cfi_offset %rbp, -16
	movq	%rsp, %rbp
	.cfi_def_cfa_register %rbp
Ltmp451:
	.loc	4 29 9 prologue_end
	movq	8(%rdi), %rcx
	movq	16(%rcx), %rdx
	leaq	47(%rdx), %rax
	negq	%rdx
	andq	%rdx, %rax
	addq	(%rdi), %rax
Ltmp452:
	.loc	5 75 9
	movq	%rax, %rdi
Ltmp453:
	popq	%rbp
	jmpq	*24(%rcx)
Ltmp454:
Lfunc_end51:
	.cfi_endproc

	.globl	__ZN7failure5error5Error9backtrace17h662c2d74a0914387E
	.p2align	4, 0x90
__ZN7failure5error5Error9backtrace17h662c2d74a0914387E:
Lfunc_begin52:
	.loc	5 94 0
	.cfi_startproc
	pushq	%rbp
	.cfi_def_cfa_offset 16
	.cfi_offset %rbp, -16
	movq	%rsp, %rbp
	.cfi_def_cfa_register %rbp
Ltmp455:
	pushq	%rbx
	pushq	%rax
	.cfi_offset %rbx, -24
	.loc	4 29 9 prologue_end
	movq	(%rdi), %rbx
	movq	8(%rdi), %rax
	movq	16(%rax), %rcx
	leaq	47(%rcx), %rdi
Ltmp456:
	negq	%rcx
	andq	%rcx, %rdi
	addq	%rbx, %rdi
Ltmp457:
	.loc	5 95 9
	callq	*40(%rax)
Ltmp458:
	.loc	6 411 13
	testq	%rax, %rax
	cmoveq	%rbx, %rax
Ltmp459:
	.loc	5 96 6
	addq	$8, %rsp
	popq	%rbx
Ltmp460:
	popq	%rbp
	retq
Ltmp461:
Lfunc_end52:
	.cfi_endproc

	.globl	__ZN7failure5error5Error6compat17h7b586fc098073d9fE
	.p2align	4, 0x90
__ZN7failure5error5Error6compat17h7b586fc098073d9fE:
Lfunc_begin53:
	.loc	5 120 0
	.cfi_startproc
	pushq	%rbp
	.cfi_def_cfa_offset 16
	.cfi_offset %rbp, -16
	movq	%rsp, %rbp
	.cfi_def_cfa_register %rbp
	movq	%rsi, %rdx
Ltmp462:
	movq	%rdi, %rax
Ltmp463:
	.loc	5 122 6 prologue_end
	popq	%rbp
	retq
Ltmp464:
Lfunc_end53:
	.cfi_endproc

	.globl	__ZN7failure5error5Error15find_root_cause17h957327169629f5a3E
	.p2align	4, 0x90
__ZN7failure5error5Error15find_root_cause17h957327169629f5a3E:
Lfunc_begin54:
	.loc	5 136 0
	.cfi_startproc
	pushq	%rbp
	.cfi_def_cfa_offset 16
	.cfi_offset %rbp, -16
	movq	%rsp, %rbp
	.cfi_def_cfa_register %rbp
Ltmp465:
	pushq	%r14
	pushq	%rbx
	.cfi_offset %rbx, -32
	.cfi_offset %r14, -24
	.loc	4 29 9 prologue_end
	movq	8(%rdi), %r14
Ltmp466:
	movq	16(%r14), %rax
	leaq	47(%rax), %rbx
	negq	%rax
	andq	%rax, %rbx
	addq	(%rdi), %rbx
Ltmp467:
	.loc	23 302 29
	movq	%rbx, %rdi
Ltmp468:
	callq	*32(%r14)
	.loc	23 302 15 is_stmt 0
	testq	%rax, %rax
	je	LBB54_3
Ltmp469:
	.p2align	4, 0x90
LBB54_1:
	.loc	23 0 15
	movq	%rax, %rbx
Ltmp470:
	movq	%rdx, %r14
Ltmp471:
	.loc	23 302 29
	movq	%rax, %rdi
	callq	*32(%rdx)
	.loc	23 302 15
	testq	%rax, %rax
	jne	LBB54_1
Ltmp472:
LBB54_3:
	.loc	5 138 6 is_stmt 1
	movq	%rbx, %rax
	movq	%r14, %rdx
	popq	%rbx
	popq	%r14
	popq	%rbp
	retq
Ltmp473:
Lfunc_end54:
	.cfi_endproc

	.globl	__ZN7failure5error5Error11iter_causes17h6c71aabfd8782d34E
	.p2align	4, 0x90
__ZN7failure5error5Error11iter_causes17h6c71aabfd8782d34E:
Lfunc_begin55:
	.loc	5 144 0
	.cfi_startproc
	pushq	%rbp
	.cfi_def_cfa_offset 16
	.cfi_offset %rbp, -16
	movq	%rsp, %rbp
	.cfi_def_cfa_register %rbp
Ltmp474:
	.loc	4 29 9 prologue_end
	movq	8(%rdi), %rcx
Ltmp475:
	movq	16(%rcx), %rdx
	leaq	47(%rdx), %rax
	negq	%rdx
	andq	%rdx, %rax
	addq	(%rdi), %rax
Ltmp476:
	.loc	23 243 24
	movq	%rax, %rdi
Ltmp477:
	popq	%rbp
	jmpq	*32(%rcx)
Ltmp478:
Lfunc_end55:
	.cfi_endproc

	.globl	__ZN7failure5error5Error10iter_chain17h80d31c2a9231ae0fE
	.p2align	4, 0x90
__ZN7failure5error5Error10iter_chain17h80d31c2a9231ae0fE:
Lfunc_begin56:
	.loc	5 154 0
	.cfi_startproc
	pushq	%rbp
	.cfi_def_cfa_offset 16
	.cfi_offset %rbp, -16
	movq	%rsp, %rbp
	.cfi_def_cfa_register %rbp
Ltmp479:
	.loc	4 29 9 prologue_end
	movq	8(%rdi), %rdx
Ltmp480:
	movq	16(%rdx), %rcx
	leaq	47(%rcx), %rax
	negq	%rcx
	andq	%rcx, %rax
	addq	(%rdi), %rax
Ltmp481:
	.loc	5 156 6
	popq	%rbp
	retq
Ltmp482:
Lfunc_end56:
	.cfi_endproc

	.globl	__ZN7failure5error5Error10root_cause17h7655aa0e9d450e9eE
	.p2align	4, 0x90
__ZN7failure5error5Error10root_cause17h7655aa0e9d450e9eE:
Lfunc_begin57:
	.loc	5 176 0
	.cfi_startproc
	pushq	%rbp
	.cfi_def_cfa_offset 16
	.cfi_offset %rbp, -16
	movq	%rsp, %rbp
	.cfi_def_cfa_register %rbp
Ltmp483:
	pushq	%r14
	pushq	%rbx
	.cfi_offset %rbx, -32
	.cfi_offset %r14, -24
	.loc	4 29 9 prologue_end
	movq	8(%rdi), %r14
Ltmp484:
	movq	16(%r14), %rax
	leaq	47(%rax), %rbx
	negq	%rax
	andq	%rax, %rbx
	addq	(%rdi), %rbx
Ltmp485:
	.loc	23 302 29
	movq	%rbx, %rdi
Ltmp486:
	callq	*32(%r14)
	.loc	23 302 15 is_stmt 0
	testq	%rax, %rax
	je	LBB57_3
Ltmp487:
	.p2align	4, 0x90
LBB57_1:
	.loc	23 0 15
	movq	%rax, %rbx
Ltmp488:
	movq	%rdx, %r14
Ltmp489:
	.loc	23 302 29
	movq	%rax, %rdi
	callq	*32(%rdx)
	.loc	23 302 15
	testq	%rax, %rax
	jne	LBB57_1
Ltmp490:
LBB57_3:
	.loc	5 178 6 is_stmt 1
	movq	%rbx, %rax
	movq	%r14, %rdx
	popq	%rbx
	popq	%r14
	popq	%rbp
	retq
Ltmp491:
Lfunc_end57:
	.cfi_endproc

	.globl	__ZN7failure5error5Error6causes17ha318e2fc07497fe7E
	.p2align	4, 0x90
__ZN7failure5error5Error6causes17ha318e2fc07497fe7E:
Lfunc_begin58:
	.loc	5 182 0
	.cfi_startproc
	pushq	%rbp
	.cfi_def_cfa_offset 16
	.cfi_offset %rbp, -16
	movq	%rsp, %rbp
	.cfi_def_cfa_register %rbp
Ltmp492:
	.loc	4 29 9 prologue_end
	movq	8(%rdi), %rdx
	movq	16(%rdx), %rcx
	leaq	47(%rcx), %rax
	negq	%rcx
	andq	%rcx, %rax
	addq	(%rdi), %rax
Ltmp493:
	.loc	5 184 6
	popq	%rbp
	retq
Ltmp494:
Lfunc_end58:
	.cfi_endproc

	.globl	__ZN60_$LT$failure..error..Error$u20$as$u20$core..fmt..Display$GT$3fmt17h0901bfbde86e5daeE
	.p2align	4, 0x90
__ZN60_$LT$failure..error..Error$u20$as$u20$core..fmt..Display$GT$3fmt17h0901bfbde86e5daeE:
Lfunc_begin59:
	.loc	5 188 0
	.cfi_startproc
	pushq	%rbp
	.cfi_def_cfa_offset 16
	.cfi_offset %rbp, -16
	movq	%rsp, %rbp
	.cfi_def_cfa_register %rbp
Ltmp495:
	.loc	4 29 9 prologue_end
	movq	8(%rdi), %rax
	movq	16(%rax), %rcx
Ltmp496:
	.loc	3 1973 62
	movq	88(%rax), %rdx
Ltmp497:
	.loc	4 29 9
	leaq	47(%rcx), %rax
	negq	%rcx
	andq	%rcx, %rax
	addq	(%rdi), %rax
Ltmp498:
	.loc	3 1973 62
	movq	%rax, %rdi
Ltmp499:
	popq	%rbp
	jmpq	*%rdx
Ltmp500:
Lfunc_end59:
	.cfi_endproc

	.globl	__ZN58_$LT$failure..error..Error$u20$as$u20$core..fmt..Debug$GT$3fmt17h919bbe0749227d9cE
	.p2align	4, 0x90
__ZN58_$LT$failure..error..Error$u20$as$u20$core..fmt..Debug$GT$3fmt17h919bbe0749227d9cE:
Lfunc_begin60:
	.loc	5 194 0
	.cfi_startproc
	pushq	%rbp
	.cfi_def_cfa_offset 16
	.cfi_offset %rbp, -16
	movq	%rsp, %rbp
	.cfi_def_cfa_register %rbp
	subq	$112, %rsp
	movq	%rdi, %rax
Ltmp501:
	.loc	4 37 9 prologue_end
	movq	(%rdi), %rdi
Ltmp502:
	.loc	5 195 25
	movq	%rdi, -8(%rbp)
Ltmp503:
	.loc	6 189 25
	cmpq	$0, (%rdi)
Ltmp504:
	.loc	5 196 9
	je	LBB60_2
Ltmp505:
	.loc	4 29 9
	movq	8(%rax), %rax
Ltmp506:
	movq	16(%rax), %rcx
	leaq	47(%rcx), %rdx
	negq	%rcx
	andq	%rcx, %rdx
	addq	%rdx, %rdi
Ltmp507:
	.loc	5 199 40
	movq	%rdi, -32(%rbp)
	movq	%rax, -24(%rbp)
	leaq	-32(%rbp), %rax
	.loc	5 199 39 is_stmt 0
	movq	%rax, -16(%rbp)
	leaq	-16(%rbp), %rax
Ltmp508:
	.loc	5 199 13
	movq	%rax, -64(%rbp)
	leaq	__ZN42_$LT$$RF$T$u20$as$u20$core..fmt..Debug$GT$3fmt17h37a8561b0519df85E(%rip), %rax
	movq	%rax, -56(%rbp)
	leaq	-8(%rbp), %rax
	movq	%rax, -48(%rbp)
	leaq	__ZN42_$LT$$RF$T$u20$as$u20$core..fmt..Debug$GT$3fmt17hbc73bd563af24a49E(%rip), %rax
	movq	%rax, -40(%rbp)
Ltmp509:
	.loc	3 328 9 is_stmt 1
	leaq	l___unnamed_7(%rip), %rax
Ltmp510:
	movq	%rax, -112(%rbp)
	movq	$2, -104(%rbp)
	movq	$0, -96(%rbp)
	leaq	-64(%rbp), %rax
Ltmp511:
	movq	%rax, -80(%rbp)
	movq	$2, -72(%rbp)
	leaq	-112(%rbp), %rax
Ltmp512:
	.loc	5 199 13
	movq	%rsi, %rdi
	movq	%rax, %rsi
Ltmp513:
	callq	__ZN4core3fmt9Formatter9write_fmt17h3dc2bf45afed3069E
Ltmp514:
	.loc	5 201 6
	addq	$112, %rsp
	popq	%rbp
	retq
Ltmp515:
LBB60_2:
	.loc	4 29 9
	movq	8(%rax), %rax
Ltmp516:
	movq	16(%rax), %rcx
	leaq	47(%rcx), %rdx
	negq	%rcx
	andq	%rcx, %rdx
	addq	%rdx, %rdi
Ltmp517:
	.loc	3 1973 62
	callq	*96(%rax)
Ltmp518:
	.loc	5 201 6
	addq	$112, %rsp
	popq	%rbp
	retq
Ltmp519:
Lfunc_end60:
	.cfi_endproc

	.section	__TEXT,__const
l___unnamed_11:
	.ascii	"called `Result::unwrap()` on an `Err` value"

	.section	__DATA,__const
	.p2align	3
l___unnamed_1:
	.quad	__ZN4core3ptr13drop_in_place17h60bdc2614488066fE
	.quad	16
	.quad	8
	.quad	__ZN82_$LT$std..sys_common..poison..PoisonError$LT$T$GT$$u20$as$u20$core..fmt..Debug$GT$3fmt17h47c0d5d9afdcf424E

	.section	__TEXT,__literal4,4byte_literals
L___unnamed_8:
	.ascii	"Some"

	.section	__DATA,__const
	.p2align	3
l___unnamed_2:
	.quad	__ZN4core3ptr13drop_in_place17h1902dbeb1f01c145E
	.quad	8
	.quad	8
	.quad	__ZN42_$LT$$RF$T$u20$as$u20$core..fmt..Debug$GT$3fmt17h14bff8f5fe315eeaE

	.section	__TEXT,__literal4,4byte_literals
L___unnamed_9:
	.ascii	"None"

	.section	__TEXT,__const
l___unnamed_10:
	.ascii	"PoisonError { inner: .. }"

l___unnamed_22:
	.ascii	"/Users/yingyuhang/.cargo/registry/src/github.com-1ecc6299db9ec823/failure-0.1.8/src/backtrace/internal.rs"

.zerofill __DATA,__bss,__ZN7failure9backtrace8internal17InternalBacktrace3new7ENABLED17h9a4f3c7aed3aca4cE,8,3
	.section	__DATA,__const
	.p2align	3
l___unnamed_12:
	.quad	l___unnamed_22
	.asciz	"i\000\000\000\000\000\000\000<\000\000\000\034\000\000"

	.section	__TEXT,__const
l___unnamed_13:
	.ascii	"InternalBacktrace"

l___unnamed_14:
	.ascii	"backtrace"

	.section	__DATA,__const
	.p2align	3
l___unnamed_3:
	.quad	__ZN4core3ptr13drop_in_place17h1902dbeb1f01c145E
	.quad	8
	.quad	8
	.quad	__ZN66_$LT$core..option..Option$LT$T$GT$$u20$as$u20$core..fmt..Debug$GT$3fmt17heba402aeff92e783E

	.section	__TEXT,__const
l___unnamed_15:
	.ascii	"RUST_FAILURE_BACKTRACE"

l___unnamed_16:
	.byte	48

l___unnamed_17:
	.ascii	"RUST_BACKTRACE"

l___unnamed_18:
	.ascii	"Compat"

l___unnamed_19:
	.ascii	"error"

	.section	__DATA,__const
	.p2align	3
l___unnamed_4:
	.quad	__ZN4core3ptr13drop_in_place17h1902dbeb1f01c145E
	.quad	8
	.quad	8
	.quad	__ZN42_$LT$$RF$T$u20$as$u20$core..fmt..Debug$GT$3fmt17h91cd3d2a88ca1b69E

	.section	__TEXT,__const
l___unnamed_20:
	.ascii	"An error has occurred."

	.section	__DATA,__const
	.p2align	3
l___unnamed_5:
	.quad	__ZN4core3ptr13drop_in_place17ha077f5abe2e3494fE
	.quad	16
	.quad	8
	.quad	__ZN3std5error5Error5cause17h1255ddfae05d000cE
	.quad	__ZN3std5error5Error7type_id17h249907a1210beeb1E
	.quad	__ZN3std5error5Error9backtrace17h8294202bbdb79033E
	.quad	__ZN70_$LT$failure..compat..Compat$LT$E$GT$$u20$as$u20$std..error..Error$GT$11description17haba8a551b6b552feE
	.quad	__ZN3std5error5Error5cause17h1255ddfae05d000cE
	.quad	__ZN71_$LT$failure..compat..Compat$LT$E$GT$$u20$as$u20$core..fmt..Display$GT$3fmt17h8d38975f831749e7E
	.quad	__ZN69_$LT$failure..compat..Compat$LT$E$GT$$u20$as$u20$core..fmt..Debug$GT$3fmt17h311dc06f29b914cdE

	.section	__TEXT,__const
l___unnamed_23:
	.byte	0

	.section	__DATA,__const
	.p2align	3
l___unnamed_21:
	.quad	l___unnamed_23
	.space	8

	.p2align	3
l___unnamed_6:
	.quad	__ZN4core3ptr13drop_in_place17h49fd74ca72703898E
	.quad	16
	.quad	8
	.quad	__ZN3std5error5Error5cause17h1255ddfae05d000cE
	.quad	__ZN3std5error5Error5cause17h1255ddfae05d000cE
	.quad	__ZN7failure4Fail9backtrace17ha18e292db1d00f86E
	.quad	0
	.quad	0
	.quad	0
	.quad	0
	.quad	__ZN7failure4Fail23__private_get_type_id__17h1271a7d09a62fb70E
	.quad	__ZN63_$LT$failure..box_std..BoxStd$u20$as$u20$core..fmt..Display$GT$3fmt17h4deaf408941f90cbE
	.quad	__ZN61_$LT$failure..box_std..BoxStd$u20$as$u20$core..fmt..Debug$GT$3fmt17he3dabc85ce059045E

	.section	__TEXT,__const
l___unnamed_24:
	.space	2,10

	.section	__DATA,__const
	.p2align	3
l___unnamed_7:
	.quad	l___unnamed_23
	.space	8
	.quad	l___unnamed_24
	.asciz	"\002\000\000\000\000\000\000"

	.section	__DATA,__const
Lsec_end0:
	.section	__DATA,__bss
Lsec_end1:
	.section	__TEXT,__text,regular,pure_instructions
Lsec_end2: