	.section	__TEXT,__text,regular,pure_instructions
	.macosx_version_min 10, 7
	.p2align	4, 0x90
__ZN100_$LT$alloc..string..String$u20$as$u20$core..ops..index..Index$LT$core..ops..range..RangeFull$GT$$GT$5index17h670a6c8a4b30abfeE:
Lfunc_begin0:
	.file	1 "/rustc/6c8927b0cf80ceee19386026cf9d7fd4fd9d486f/src/liballoc/string.rs"
	.loc	1 2063 0
	.cfi_startproc
	pushq	%rbp
	.cfi_def_cfa_offset 16
	.cfi_offset %rbp, -16
	movq	%rsp, %rbp
	.cfi_def_cfa_register %rbp
	subq	$64, %rsp
	movq	%rdi, -16(%rbp)
	movq	%rsi, -24(%rbp)
Ltmp0:
	.loc	1 2064 43 prologue_end
	callq	__ZN68_$LT$alloc..vec..Vec$LT$T$GT$$u20$as$u20$core..ops..deref..Deref$GT$5deref17h1d1c6b86233583ebE
	movq	%rax, -32(%rbp)
	movq	%rdx, -40(%rbp)
	.loc	1 0 43 is_stmt 0
	movq	-32(%rbp), %rdi
	movq	-40(%rbp), %rsi
	.loc	1 2064 18
	callq	__ZN4core3str19from_utf8_unchecked17hdef9a1155a02a75aE
	movq	%rax, -48(%rbp)
	movq	%rdx, -56(%rbp)
	.loc	1 0 18
	movq	-48(%rbp), %rax
	movq	-56(%rbp), %rdx
	.loc	1 2065 6 is_stmt 1
	addq	$64, %rsp
	popq	%rbp
	retq
Ltmp1:
Lfunc_end0:
	.cfi_endproc

	.p2align	4, 0x90
__ZN100_$LT$core..slice..Iter$LT$T$GT$$u20$as$u20$core..iter..traits..double_ended..DoubleEndedIterator$GT$9next_back17h8cd4ede76e761dfeE:
Lfunc_begin1:
	.file	2 "/rustc/6c8927b0cf80ceee19386026cf9d7fd4fd9d486f/src/libcore/slice/mod.rs"
	.loc	2 3746 0
	.cfi_startproc
	pushq	%rbp
	.cfi_def_cfa_offset 16
	.cfi_offset %rbp, -16
	movq	%rsp, %rbp
	.cfi_def_cfa_register %rbp
	subq	$96, %rsp
	movq	%rdi, -48(%rbp)
Ltmp2:
	.loc	2 3749 29 prologue_end
	movq	(%rdi), %rax
	movq	%rdi, -64(%rbp)
	movq	%rax, %rdi
	callq	__ZN4core3ptr8non_null16NonNull$LT$T$GT$6as_ptr17h7cfd399d0c226738E
	movq	%rax, -72(%rbp)
	.loc	2 0 29 is_stmt 0
	movq	-72(%rbp), %rdi
	.loc	2 3749 29
	callq	__ZN4core3ptr7mut_ptr31_$LT$impl$u20$$BP$mut$u20$T$GT$7is_null17hf57c59e8f98765d6E
Ltmp3:
	.file	3 "/rustc/6c8927b0cf80ceee19386026cf9d7fd4fd9d486f/src/libcore/mem/mod.rs"
	.loc	3 310 5 is_stmt 1
	movq	$120, -40(%rbp)
	movq	-40(%rbp), %rax
	movq	%rax, -80(%rbp)
Ltmp4:
	.loc	3 0 5 is_stmt 0
	movq	-80(%rbp), %rax
	.loc	2 3750 24 is_stmt 1
	cmpq	$0, %rax
	.loc	2 3750 21 is_stmt 0
	jne	LBB1_6
	jmp	LBB1_9
LBB1_6:
	.loc	2 0 21
	movq	-64(%rbp), %rax
	.loc	2 3751 33 is_stmt 1
	movq	8(%rax), %rdi
	callq	__ZN4core3ptr9const_ptr33_$LT$impl$u20$$BP$const$u20$T$GT$7is_null17h6197ec5c7cd06b1fE
	.loc	2 3750 21
	jmp	LBB1_9
LBB1_9:
	.loc	2 0 21 is_stmt 0
	movq	-64(%rbp), %rax
	.loc	2 3440 9 is_stmt 1
	movq	(%rax), %rdi
	callq	__ZN4core3ptr8non_null16NonNull$LT$T$GT$6as_ptr17h7cfd399d0c226738E
	movq	%rax, -88(%rbp)
	.loc	2 0 9 is_stmt 0
	movq	-88(%rbp), %rax
	movq	-64(%rbp), %rcx
	.loc	2 3440 9
	cmpq	8(%rcx), %rax
	.loc	2 3753 21 is_stmt 1
	je	LBB1_15
	.loc	2 0 21 is_stmt 0
	movq	-64(%rbp), %rax
	movq	%rax, -24(%rbp)
	movq	$1, -16(%rbp)
Ltmp5:
	.loc	3 310 5 is_stmt 1
	movq	$120, -8(%rbp)
Ltmp6:
	.loc	2 3532 20
	cmpq	$0, -8(%rbp)
	.loc	2 3532 17 is_stmt 0
	je	LBB1_13
	.loc	2 0 17
	movq	-64(%rbp), %rax
	.loc	2 3539 41 is_stmt 1
	movq	8(%rax), %rdi
	movq	$-1, %rsi
	callq	__ZN4core3ptr9const_ptr33_$LT$impl$u20$$BP$const$u20$T$GT$6offset17h2761370214aa6f11E
	movq	-64(%rbp), %rcx
	.loc	2 3539 21 is_stmt 0
	movq	%rax, 8(%rcx)
	.loc	2 3540 21 is_stmt 1
	movq	8(%rcx), %rax
	movq	%rax, -32(%rbp)
	.loc	2 3532 17
	jmp	LBB1_14
LBB1_13:
	.loc	2 0 17 is_stmt 0
	movq	-64(%rbp), %rax
	.loc	2 3499 30 is_stmt 1
	movq	8(%rax), %rcx
	.loc	2 3499 29 is_stmt 0
	movq	%rcx, %rdi
	movq	$-1, %rsi
	callq	__ZN4core3ptr9const_ptr33_$LT$impl$u20$$BP$const$u20$T$GT$15wrapping_offset17ha29bf028bb815ef0E
	movq	-64(%rbp), %rcx
	.loc	2 3499 17
	movq	%rax, 8(%rcx)
	.loc	2 3534 21 is_stmt 1
	movq	(%rcx), %rdi
	callq	__ZN4core3ptr8non_null16NonNull$LT$T$GT$6as_ptr17h7cfd399d0c226738E
	movq	%rax, -32(%rbp)
LBB1_14:
	.loc	2 3542 14
	movq	-32(%rbp), %rax
	movq	%rax, -96(%rbp)
Ltmp7:
	.loc	2 3492 47
	jmp	LBB1_16
LBB1_15:
	.loc	2 3754 25
	movq	$0, -56(%rbp)
	.loc	2 3753 21
	jmp	LBB1_17
LBB1_16:
	.loc	2 0 21 is_stmt 0
	movq	-96(%rbp), %rax
	.loc	2 3756 25 is_stmt 1
	movq	%rax, -56(%rbp)
LBB1_17:
	.loc	2 3759 14
	movq	-56(%rbp), %rax
	addq	$96, %rsp
	popq	%rbp
	retq
Ltmp8:
Lfunc_end1:
	.cfi_endproc

	.p2align	4, 0x90
__ZN100_$LT$proc_macro..bridge..client..TokenStream$u20$as$u20$proc_macro..bridge..rpc..Encode$LT$S$GT$$GT$6encode17hc615756bc889dc0dE:
Lfunc_begin2:
	.file	4 "/rustc/6c8927b0cf80ceee19386026cf9d7fd4fd9d486f/src/libproc_macro/bridge/client.rs"
	.loc	4 60 0
	.cfi_startproc
	pushq	%rbp
	.cfi_def_cfa_offset 16
	.cfi_offset %rbp, -16
	movq	%rsp, %rbp
	.cfi_def_cfa_register %rbp
	subq	$64, %rsp
	movl	%edi, -36(%rbp)
	movl	-36(%rbp), %eax
	movl	%eax, -40(%rbp)
	movq	%rsi, -24(%rbp)
	movq	%rdx, -16(%rbp)
Ltmp9:
	.loc	4 61 34 prologue_end
	movl	-40(%rbp), %eax
	movl	%eax, -4(%rbp)
Ltmp10:
	.loc	4 62 33
	movl	-40(%rbp), %ecx
	movl	%ecx, -32(%rbp)
	.loc	4 62 21 is_stmt 0
	movl	-32(%rbp), %edi
	movq	%rsi, -48(%rbp)
	movq	%rdx, -56(%rbp)
	movl	%eax, -60(%rbp)
	callq	__ZN4core3mem6forget17h61c0b84f81c89616E
	.loc	4 0 21
	movl	-60(%rbp), %edi
	movq	-48(%rbp), %rsi
	movq	-56(%rbp), %rdx
	.loc	4 63 21 is_stmt 1
	callq	__ZN82_$LT$core..num..NonZeroU32$u20$as$u20$proc_macro..bridge..rpc..Encode$LT$S$GT$$GT$6encode17had1cdc73c9491962E
Ltmp11:
	.loc	4 64 18
	addq	$64, %rsp
	popq	%rbp
	retq
Ltmp12:
Lfunc_end2:
	.cfi_endproc

	.p2align	4, 0x90
__ZN100_$LT$syn..punctuated..Iter$LT$T$GT$$u20$as$u20$core..iter..traits..exact_size..ExactSizeIterator$GT$3len17hfb045c736c2a0032E:
Lfunc_begin3:
	.file	5 "/Users/yingyuhang/.cargo/registry/src/github.com-1ecc6299db9ec823/syn-1.0.33/src/punctuated.rs"
	.loc	5 670 0
	.cfi_startproc
	pushq	%rbp
	.cfi_def_cfa_offset 16
	.cfi_offset %rbp, -16
	movq	%rsp, %rbp
	.cfi_def_cfa_register %rbp
	subq	$16, %rsp
	movq	%rdi, -8(%rbp)
Ltmp13:
	.loc	5 671 9 prologue_end
	callq	__ZN96_$LT$alloc..boxed..Box$LT$I$GT$$u20$as$u20$core..iter..traits..exact_size..ExactSizeIterator$GT$3len17hc2d20304bd21b0f8E
	movq	%rax, -16(%rbp)
	.loc	5 0 9 is_stmt 0
	movq	-16(%rbp), %rax
	.loc	5 672 6 is_stmt 1
	addq	$16, %rsp
	popq	%rbp
	retq
Ltmp14:
Lfunc_end3:
	.cfi_endproc

	.p2align	4, 0x90
__ZN100_$LT$syn..punctuated..PrivateIter$LT$T$C$P$GT$$u20$as$u20$core..iter..traits..iterator..Iterator$GT$4next17h3f1132c936a5ef8bE:
Lfunc_begin4:
	.loc	5 678 0
	.cfi_startproc
	pushq	%rbp
	.cfi_def_cfa_offset 16
	.cfi_offset %rbp, -16
	movq	%rsp, %rbp
	.cfi_def_cfa_register %rbp
	subq	$48, %rsp
	movq	%rdi, -24(%rbp)
Ltmp15:
	.loc	5 679 9 prologue_end
	movq	-24(%rbp), %rax
	movq	%rax, %rdi
	callq	__ZN85_$LT$core..slice..Iter$LT$T$GT$$u20$as$u20$core..iter..traits..iterator..Iterator$GT$4next17h4746b64de48cb8b6E
	movq	%rax, -32(%rbp)
	.loc	5 0 9 is_stmt 0
	movq	-32(%rbp), %rdi
	.loc	5 679 9
	callq	__ZN4core6option15Option$LT$T$GT$3map17h2826ade89788839bE
	movq	%rax, -40(%rbp)
	.loc	5 682 22 is_stmt 1
	leaq	-24(%rbp), %rax
	movq	%rax, -8(%rbp)
	.loc	5 679 9
	movq	-8(%rbp), %rsi
	movq	-40(%rbp), %rdi
	callq	__ZN4core6option15Option$LT$T$GT$7or_else17h83f6718f9a363de9E
	movq	%rax, -48(%rbp)
	.loc	5 0 9 is_stmt 0
	movq	-48(%rbp), %rax
	.loc	5 683 6 is_stmt 1
	addq	$48, %rsp
	popq	%rbp
	retq
Ltmp16:
Lfunc_end4:
	.cfi_endproc

	.p2align	4, 0x90
__ZN100_$LT$syn..punctuated..PrivateIter$LT$T$C$P$GT$$u20$as$u20$core..iter..traits..iterator..Iterator$GT$4next28_$u7b$$u7b$closure$u7d$$u7d$17h3adf7822aa05999fE:
Lfunc_begin5:
	.loc	5 682 0
	.cfi_startproc
	pushq	%rbp
	.cfi_def_cfa_offset 16
	.cfi_offset %rbp, -16
	movq	%rsp, %rbp
	.cfi_def_cfa_register %rbp
	subq	$16, %rsp
	movq	%rdi, -8(%rbp)
Ltmp17:
	.loc	5 682 25 prologue_end
	movq	(%rdi), %rax
	addq	$16, %rax
	movq	%rax, %rdi
	callq	__ZN90_$LT$core..option..IntoIter$LT$A$GT$$u20$as$u20$core..iter..traits..iterator..Iterator$GT$4next17hf9c15a0c16977355E
	movq	%rax, -16(%rbp)
	.loc	5 0 25 is_stmt 0
	movq	-16(%rbp), %rax
	.loc	5 682 41
	addq	$16, %rsp
	popq	%rbp
	retq
Ltmp18:
Lfunc_end5:
	.cfi_endproc

	.p2align	4, 0x90
__ZN100_$LT$syn..punctuated..PrivateIter$LT$T$C$P$GT$$u20$as$u20$core..iter..traits..iterator..Iterator$GT$4next28_$u7b$$u7b$closure$u7d$$u7d$17h73bbc1cffa853268E:
Lfunc_begin6:
	.loc	5 681 0 is_stmt 1
	.cfi_startproc
	pushq	%rbp
	.cfi_def_cfa_offset 16
	.cfi_offset %rbp, -16
	movq	%rsp, %rbp
	.cfi_def_cfa_register %rbp
	subq	$16, %rsp
	movq	%rdi, -8(%rbp)
Ltmp19:
	.loc	5 681 32 prologue_end
	movq	%rdi, %rax
	addq	$16, %rsp
	popq	%rbp
	retq
Ltmp20:
Lfunc_end6:
	.cfi_endproc

	.p2align	4, 0x90
__ZN101_$LT$std..panic..AssertUnwindSafe$LT$F$GT$$u20$as$u20$core..ops..function..FnOnce$LT$$LP$$RP$$GT$$GT$9call_once17h3504ba67bf03bacdE:
Lfunc_begin7:
	.file	6 "/rustc/6c8927b0cf80ceee19386026cf9d7fd4fd9d486f/src/libstd/panic.rs"
	.loc	6 317 0
	.cfi_startproc
	pushq	%rbp
	.cfi_def_cfa_offset 16
	.cfi_offset %rbp, -16
	movq	%rsp, %rbp
	.cfi_def_cfa_register %rbp
	subq	$96, %rsp
Ltmp21:
	.loc	6 318 9 prologue_end
	leaq	-72(%rbp), %rax
	movq	%rax, %rcx
	movq	%rdi, -88(%rbp)
Ltmp22:
	movq	%rcx, %rdi
	movq	-88(%rbp), %rsi
Ltmp23:
	movl	$72, %edx
	movq	%rax, -96(%rbp)
	callq	_memcpy
Ltmp24:
	.loc	6 0 9 is_stmt 0
	movq	-96(%rbp), %rdi
	.loc	6 318 9
	callq	__ZN10proc_macro6bridge6client10run_client28_$u7b$$u7b$closure$u7d$$u7d$17h3627cd44c39cb1f4E
	.loc	6 319 6 is_stmt 1
	addq	$96, %rsp
	popq	%rbp
	retq
Ltmp25:
Lfunc_end7:
	.cfi_endproc

	.p2align	4, 0x90
__ZN103_$LT$proc_macro..bridge..client..TokenStream$u20$as$u20$proc_macro..bridge..rpc..DecodeMut$LT$S$GT$$GT$6decode17hcdbb0247dbfada44E:
Lfunc_begin8:
	.loc	4 115 0
	.cfi_startproc
	pushq	%rbp
	.cfi_def_cfa_offset 16
	.cfi_offset %rbp, -16
	movq	%rsp, %rbp
	.cfi_def_cfa_register %rbp
	subq	$32, %rsp
	movq	%rdi, -16(%rbp)
	movq	%rsi, -8(%rbp)
Ltmp26:
	.loc	4 116 26 prologue_end
	callq	__ZN85_$LT$core..num..NonZeroU32$u20$as$u20$proc_macro..bridge..rpc..DecodeMut$LT$S$GT$$GT$6decode17h836345eac12755acE
	movl	%eax, -28(%rbp)
	.loc	4 0 26 is_stmt 0
	movl	-28(%rbp), %eax
	.loc	4 116 21
	movl	%eax, -24(%rbp)
	.loc	4 117 18 is_stmt 1
	movl	-24(%rbp), %eax
	addq	$32, %rsp
	popq	%rbp
	retq
Ltmp27:
Lfunc_end8:
	.cfi_endproc

	.p2align	4, 0x90
__ZN105_$LT$core..iter..adapters..ResultShunt$LT$I$C$E$GT$$u20$as$u20$core..iter..traits..iterator..Iterator$GT$4next17hff0aa971f3ab82f6E:
Lfunc_begin9:
	.file	7 "/rustc/6c8927b0cf80ceee19386026cf9d7fd4fd9d486f/src/libcore/iter/adapters/mod.rs"
	.loc	7 2617 0
	.cfi_startproc
	pushq	%rbp
	.cfi_def_cfa_offset 16
	.cfi_offset %rbp, -16
	movq	%rsp, %rbp
	.cfi_def_cfa_register %rbp
	subq	$32, %rsp
	movq	%rdi, %rax
	movq	%rsi, -8(%rbp)
	movq	%rax, -24(%rbp)
Ltmp28:
	.loc	7 2618 9 prologue_end
	callq	__ZN4core4iter6traits8iterator8Iterator4find17h111141273508051fE
	.loc	7 0 9 is_stmt 0
	movq	-24(%rbp), %rax
	.loc	7 2619 6 is_stmt 1
	addq	$32, %rsp
	popq	%rbp
	retq
Ltmp29:
Lfunc_end9:
	.cfi_endproc

	.p2align	4, 0x90
__ZN105_$LT$core..iter..adapters..ResultShunt$LT$I$C$E$GT$$u20$as$u20$core..iter..traits..iterator..Iterator$GT$4next28_$u7b$$u7b$closure$u7d$$u7d$17hb1c705bd4fa75905E:
Lfunc_begin10:
	.loc	7 2618 0
	.cfi_startproc
	pushq	%rbp
	.cfi_def_cfa_offset 16
	.cfi_offset %rbp, -16
	movq	%rsp, %rbp
	.cfi_def_cfa_register %rbp
	subq	$16, %rsp
	movq	%rdi, -16(%rbp)
	movq	%rsi, -8(%rbp)
Ltmp30:
	.loc	7 2618 27 prologue_end
	movb	$1, %al
	andb	$1, %al
	movzbl	%al, %eax
	addq	$16, %rsp
	popq	%rbp
	retq
Ltmp31:
Lfunc_end10:
	.cfi_endproc

	.p2align	4, 0x90
__ZN105_$LT$core..iter..adapters..ResultShunt$LT$I$C$E$GT$$u20$as$u20$core..iter..traits..iterator..Iterator$GT$8try_fold17h4ecb75bfa8889687E:
Lfunc_begin11:
	.loc	7 2630 0
	.cfi_startproc
	.cfi_personality 155, _rust_eh_personality
	.cfi_lsda 16, Lexception0
	pushq	%rbp
	.cfi_def_cfa_offset 16
	.cfi_offset %rbp, -16
	movq	%rsp, %rbp
	.cfi_def_cfa_register %rbp
	subq	$128, %rsp
	movq	%rdi, %rax
	movq	%rsi, -32(%rbp)
Ltmp37:
	.loc	7 2635 21 prologue_end
	movq	40(%rsi), %rcx
	movq	%rcx, -96(%rbp)
	leaq	-104(%rbp), %rcx
Ltmp38:
	.loc	7 2637 29
	movq	%rcx, -48(%rbp)
	leaq	-96(%rbp), %rcx
	movq	%rcx, -40(%rbp)
	.loc	7 2636 9
	movq	-48(%rbp), %rdx
	movq	-40(%rbp), %rcx
Ltmp32:
	leaq	-88(%rbp), %r8
	movq	%rdi, -112(%rbp)
	movq	%r8, %rdi
	movq	%rax, -120(%rbp)
	callq	__ZN97_$LT$core..iter..adapters..Map$LT$I$C$F$GT$$u20$as$u20$core..iter..traits..iterator..Iterator$GT$8try_fold17ha9584bec281a6b77E
Ltmp33:
	jmp	LBB11_1
LBB11_1:
Ltmp34:
	.loc	7 0 9 is_stmt 0
	leaq	-88(%rbp), %rsi
	movq	-112(%rbp), %rdi
	.loc	7 2636 9
	callq	__ZN4core4iter65LoopState$LT$$LT$R$u20$as$u20$core..ops..try..Try$GT$..Ok$C$R$GT$8into_try17h21d839fe0d0c9cbeE
Ltmp35:
	jmp	LBB11_4
Ltmp39:
LBB11_2:
	.loc	7 2630 5 is_stmt 1
	movq	-16(%rbp), %rdi
	callq	__Unwind_Resume
	ud2
LBB11_3:
	.loc	7 2645 5
	jmp	LBB11_2
LBB11_4:
	jmp	LBB11_5
LBB11_5:
	.loc	7 0 5 is_stmt 0
	movq	-120(%rbp), %rax
	.loc	7 2645 6
	addq	$128, %rsp
	popq	%rbp
	retq
Ltmp40:
LBB11_6:
Ltmp36:
	.loc	7 0 6
	movq	%rax, -16(%rbp)
	movl	%edx, -8(%rbp)
	jmp	LBB11_3
Lfunc_end11:
	.cfi_endproc
	.section	__TEXT,__gcc_except_tab
	.p2align	2
GCC_except_table11:
Lexception0:
	.byte	255
	.byte	255
	.byte	1
	.uleb128 Lcst_end0-Lcst_begin0
Lcst_begin0:
	.uleb128 Ltmp32-Lfunc_begin11
	.uleb128 Ltmp35-Ltmp32
	.uleb128 Ltmp36-Lfunc_begin11
	.byte	0
	.uleb128 Ltmp35-Lfunc_begin11
	.uleb128 Lfunc_end11-Ltmp35
	.byte	0
	.byte	0
Lcst_end0:
	.p2align	2

	.section	__TEXT,__text,regular,pure_instructions
	.p2align	4, 0x90
__ZN105_$LT$core..iter..adapters..ResultShunt$LT$I$C$E$GT$$u20$as$u20$core..iter..traits..iterator..Iterator$GT$8try_fold28_$u7b$$u7b$closure$u7d$$u7d$17h5bb56a05cf30e152E:
Lfunc_begin12:
	.loc	7 2637 0 is_stmt 1
	.cfi_startproc
	.cfi_personality 155, _rust_eh_personality
	.cfi_lsda 16, Lexception1
	pushq	%rbp
	.cfi_def_cfa_offset 16
	.cfi_offset %rbp, -16
	movq	%rsp, %rbp
	.cfi_def_cfa_register %rbp
	subq	$400, %rsp
	movq	%rdi, %rax
	movq	%rsi, -32(%rbp)
Ltmp51:
	.loc	7 2638 17 prologue_end
	movb	$0, -33(%rbp)
	movb	$1, -33(%rbp)
	movq	(%rdx), %rcx
	testq	%rcx, %rcx
	movq	%rdx, -368(%rbp)
Ltmp52:
	.loc	7 0 17 is_stmt 0
	movq	%rsi, -376(%rbp)
	movq	%rdi, -384(%rbp)
	movq	%rax, -392(%rbp)
	.loc	7 2638 17
	je	LBB12_4
	jmp	LBB12_15
Ltmp53:
LBB12_15:
	jmp	LBB12_2
Ltmp54:
LBB12_1:
	.loc	7 2637 29 is_stmt 1
	movq	-16(%rbp), %rdi
	callq	__Unwind_Resume
	ud2
Ltmp55:
LBB12_2:
	.loc	7 0 29 is_stmt 0
	movq	-368(%rbp), %rax
	.loc	7 2639 21 is_stmt 1
	movq	40(%rax), %rcx
	movq	%rcx, -168(%rbp)
	movq	32(%rax), %rcx
	movq	%rcx, -176(%rbp)
	movq	24(%rax), %rcx
	movq	%rcx, -184(%rbp)
	movq	8(%rax), %rcx
	movq	16(%rax), %rdx
	movq	%rdx, -192(%rbp)
	movq	%rcx, -200(%rbp)
Ltmp56:
	.loc	7 2640 34
	movq	-168(%rbp), %rcx
	movq	%rcx, -88(%rbp)
	movq	-176(%rbp), %rcx
	movq	%rcx, -96(%rbp)
	movq	-184(%rbp), %rcx
	movq	%rcx, -104(%rbp)
	movq	-200(%rbp), %rcx
	movq	-192(%rbp), %rdx
	movq	%rdx, -112(%rbp)
	movq	%rcx, -120(%rbp)
	.loc	7 2640 30 is_stmt 0
	movq	-88(%rbp), %rcx
	movq	%rcx, -128(%rbp)
	movq	-96(%rbp), %rcx
	movq	%rcx, -136(%rbp)
	movq	-104(%rbp), %rcx
	movq	%rcx, -144(%rbp)
	movq	-120(%rbp), %rcx
	movq	-112(%rbp), %rdx
	movq	%rdx, -152(%rbp)
	movq	%rcx, -160(%rbp)
	movq	-376(%rbp), %rcx
	.loc	7 2640 21
	movq	8(%rcx), %rdx
	movq	(%rdx), %rdi
Ltmp41:
	callq	__ZN4core3ptr13drop_in_place17h2faf6b8eb6ae09daE
Ltmp42:
	jmp	LBB12_12
Ltmp57:
	.loc	7 2637 44 is_stmt 1
	ud2
LBB12_4:
Ltmp58:
	.loc	7 0 44 is_stmt 0
	movq	-368(%rbp), %rax
	.loc	7 2638 20 is_stmt 1
	movq	40(%rax), %rcx
	movq	%rcx, -328(%rbp)
	movq	32(%rax), %rcx
	movq	%rcx, -336(%rbp)
	movq	24(%rax), %rcx
	movq	%rcx, -344(%rbp)
	movq	8(%rax), %rcx
	movq	16(%rax), %rdx
	movq	%rdx, -352(%rbp)
	movq	%rcx, -360(%rbp)
	movq	-376(%rbp), %rcx
Ltmp59:
	.loc	7 2638 46 is_stmt 0
	movq	(%rcx), %rsi
	.loc	7 2638 48
	movb	$0, -33(%rbp)
	.loc	7 2638 53
	movq	-328(%rbp), %rdx
	movq	%rdx, -208(%rbp)
	movq	-336(%rbp), %rdx
	movq	%rdx, -216(%rbp)
	movq	-344(%rbp), %rdx
	movq	%rdx, -224(%rbp)
	movq	-360(%rbp), %rdx
	movq	-352(%rbp), %rdi
	movq	%rdi, -232(%rbp)
	movq	%rdx, -240(%rbp)
	.loc	7 2638 46
	movq	-208(%rbp), %rdx
	movq	%rdx, -248(%rbp)
	movq	-216(%rbp), %rdx
	movq	%rdx, -256(%rbp)
	movq	-224(%rbp), %rdx
	movq	%rdx, -264(%rbp)
	movq	-240(%rbp), %rdx
	movq	-232(%rbp), %rdi
	movq	%rdi, -272(%rbp)
	movq	%rdx, -280(%rbp)
Ltmp46:
	leaq	-320(%rbp), %rdi
	leaq	-280(%rbp), %rdx
	callq	__ZN4core4iter6traits8iterator8Iterator4find5check28_$u7b$$u7b$closure$u7d$$u7d$17heb82e75b5817be38E
Ltmp47:
	jmp	LBB12_5
Ltmp60:
LBB12_5:
Ltmp48:
	.loc	7 0 46
	leaq	-320(%rbp), %rsi
	movq	-384(%rbp), %rdi
	.loc	7 2638 26
	callq	__ZN4core4iter65LoopState$LT$$LT$R$u20$as$u20$core..ops..try..Try$GT$..Ok$C$R$GT$8from_try17ha644cad60696550aE
Ltmp49:
	jmp	LBB12_6
Ltmp61:
LBB12_6:
	.loc	7 2637 38 is_stmt 1
	jmp	LBB12_8
Ltmp62:
LBB12_7:
	.loc	7 0 38 is_stmt 0
	movq	-384(%rbp), %rax
Ltmp63:
	.loc	7 2641 21 is_stmt 1
	leaq	-80(%rbp), %rcx
	movq	%rax, %rdi
	movq	%rcx, %rsi
	movl	$40, %edx
	callq	_memcpy
Ltmp64:
LBB12_8:
	.loc	7 0 21 is_stmt 0
	movq	-392(%rbp), %rax
	.loc	7 2643 14 is_stmt 1
	addq	$400, %rsp
	popq	%rbp
	retq
Ltmp65:
LBB12_9:
	.loc	7 2643 13 is_stmt 0
	movb	$0, -33(%rbp)
	jmp	LBB12_1
Ltmp66:
LBB12_10:
	testb	$1, -33(%rbp)
	jne	LBB12_9
	jmp	LBB12_1
Ltmp67:
LBB12_11:
	.loc	7 0 13
	movq	-376(%rbp), %rax
Ltmp68:
	.loc	7 2640 21 is_stmt 1
	movq	8(%rax), %rcx
	movq	(%rcx), %rcx
	leaq	-160(%rbp), %rdx
	movq	%rcx, %rdi
	movq	%rdx, %rsi
	movl	$40, %edx
	callq	_memcpy
	jmp	LBB12_10
Ltmp69:
LBB12_12:
	.loc	7 0 21 is_stmt 0
	movq	-376(%rbp), %rax
	.loc	7 2640 21
	movq	8(%rax), %rcx
	movq	(%rcx), %rcx
	movq	-128(%rbp), %rdx
	movq	%rdx, 32(%rcx)
	movq	-136(%rbp), %rdx
	movq	%rdx, 24(%rcx)
	movq	-144(%rbp), %rdx
	movq	%rdx, 16(%rcx)
	movq	-160(%rbp), %rdx
	movq	-152(%rbp), %rsi
	movq	%rsi, 8(%rcx)
	movq	%rdx, (%rcx)
	.loc	7 2641 51 is_stmt 1
	movb	$0, -33(%rbp)
Ltmp44:
	leaq	-80(%rbp), %rdi
	.loc	7 2641 38 is_stmt 0
	callq	__ZN74_$LT$core..iter..LoopState$LT$C$C$B$GT$$u20$as$u20$core..ops..try..Try$GT$7from_ok17h125e2a89f406fcbdE
Ltmp45:
	jmp	LBB12_7
Ltmp70:
LBB12_13:
Ltmp43:
	.loc	7 0 38
	movq	%rax, -16(%rbp)
	movl	%edx, -8(%rbp)
	jmp	LBB12_11
Ltmp71:
LBB12_14:
Ltmp50:
	movq	%rax, -16(%rbp)
	movl	%edx, -8(%rbp)
	jmp	LBB12_10
Lfunc_end12:
	.cfi_endproc
	.section	__TEXT,__gcc_except_tab
	.p2align	2
GCC_except_table12:
Lexception1:
	.byte	255
	.byte	255
	.byte	1
	.uleb128 Lcst_end1-Lcst_begin1
Lcst_begin1:
	.uleb128 Lfunc_begin12-Lfunc_begin12
	.uleb128 Ltmp41-Lfunc_begin12
	.byte	0
	.byte	0
	.uleb128 Ltmp41-Lfunc_begin12
	.uleb128 Ltmp42-Ltmp41
	.uleb128 Ltmp43-Lfunc_begin12
	.byte	0
	.uleb128 Ltmp46-Lfunc_begin12
	.uleb128 Ltmp49-Ltmp46
	.uleb128 Ltmp50-Lfunc_begin12
	.byte	0
	.uleb128 Ltmp49-Lfunc_begin12
	.uleb128 Ltmp44-Ltmp49
	.byte	0
	.byte	0
	.uleb128 Ltmp44-Lfunc_begin12
	.uleb128 Ltmp45-Ltmp44
	.uleb128 Ltmp50-Lfunc_begin12
	.byte	0
Lcst_end1:
	.p2align	2

	.section	__TEXT,__text,regular,pure_instructions
	.p2align	4, 0x90
__ZN105_$LT$core..iter..adapters..ResultShunt$LT$I$C$E$GT$$u20$as$u20$core..iter..traits..iterator..Iterator$GT$9size_hint17hb8ab6709b79e5edbE:
Lfunc_begin13:
	.loc	7 2621 0 is_stmt 1
	.cfi_startproc
	pushq	%rbp
	.cfi_def_cfa_offset 16
	.cfi_offset %rbp, -16
	movq	%rsp, %rbp
	.cfi_def_cfa_register %rbp
	subq	$96, %rsp
	movq	%rdi, %rax
	movq	%rsi, -24(%rbp)
Ltmp72:
	.loc	7 2622 12 prologue_end
	movq	40(%rsi), %rcx
	movq	%rdi, -72(%rbp)
	movq	%rcx, %rdi
	movq	%rsi, -80(%rbp)
	movq	%rax, -88(%rbp)
	callq	__ZN4core6result19Result$LT$T$C$E$GT$6is_err17hc92db1abf81bb203E
	movb	%al, -89(%rbp)
	.loc	7 0 12 is_stmt 0
	movb	-89(%rbp), %al
	.loc	7 2622 9
	testb	$1, %al
	jne	LBB13_3
	jmp	LBB13_2
LBB13_2:
	.loc	7 0 9
	movq	-80(%rbp), %rax
	.loc	7 2625 30 is_stmt 1
	leaq	-48(%rbp), %rdi
	movq	%rax, %rsi
	callq	__ZN97_$LT$core..iter..adapters..Map$LT$I$C$F$GT$$u20$as$u20$core..iter..traits..iterator..Iterator$GT$9size_hint17hee52f9da953d8714E
	jmp	LBB13_4
LBB13_3:
	.loc	7 2623 17
	movq	$0, -56(%rbp)
	movq	$1, -64(%rbp)
	movq	-72(%rbp), %rax
	.loc	7 2623 13 is_stmt 0
	movq	$0, (%rax)
	movq	-64(%rbp), %rcx
	movq	-56(%rbp), %rdx
	movq	%rcx, 8(%rax)
	movq	%rdx, 16(%rax)
	.loc	7 2622 9 is_stmt 1
	jmp	LBB13_5
LBB13_4:
	.loc	7 2625 21
	movq	-40(%rbp), %rax
	movq	-32(%rbp), %rcx
	movq	%rax, -16(%rbp)
	movq	%rcx, -8(%rbp)
	movq	-72(%rbp), %rdx
Ltmp73:
	.loc	7 2626 13
	movq	$0, (%rdx)
	movq	%rax, 8(%rdx)
	movq	%rcx, 16(%rdx)
Ltmp74:
LBB13_5:
	.loc	7 0 13 is_stmt 0
	movq	-88(%rbp), %rax
	.loc	7 2628 6 is_stmt 1
	addq	$96, %rsp
	popq	%rbp
	retq
Ltmp75:
Lfunc_end13:
	.cfi_endproc

	.p2align	4, 0x90
__ZN10proc_macro6bridge11scoped_cell19ScopedCell$LT$T$GT$3set17ha7197b8f50bed099E:
Lfunc_begin14:
	.file	8 "/rustc/6c8927b0cf80ceee19386026cf9d7fd4fd9d486f/src/libproc_macro/bridge/scoped_cell.rs"
	.loc	8 78 0
	.cfi_startproc
	pushq	%rbp
	.cfi_def_cfa_offset 16
	.cfi_offset %rbp, -16
	movq	%rsp, %rbp
	.cfi_def_cfa_register %rbp
	subq	$144, %rsp
	movq	%rdi, -24(%rbp)
Ltmp76:
	movq	%rdx, -16(%rbp)
	movq	%rcx, -8(%rbp)
Ltmp77:
	.loc	8 79 22 prologue_end
	leaq	-104(%rbp), %rax
	movq	%rax, %r8
	movq	%rdi, -112(%rbp)
	movq	%r8, %rdi
	movl	$64, %r8d
	movq	%rdx, -120(%rbp)
	movq	%r8, %rdx
	movq	%rcx, -128(%rbp)
	movq	%rax, -136(%rbp)
	callq	_memcpy
Ltmp78:
	.loc	8 0 22 is_stmt 0
	movq	-120(%rbp), %rax
	.loc	8 79 29
	movq	%rax, -40(%rbp)
	movq	-128(%rbp), %rcx
	movq	%rcx, -32(%rbp)
	.loc	8 79 9
	movq	-40(%rbp), %rdx
	movq	-32(%rbp), %rcx
	movq	-112(%rbp), %rdi
	movq	-136(%rbp), %rsi
	callq	__ZN10proc_macro6bridge11scoped_cell19ScopedCell$LT$T$GT$7replace17ha95a91294ea7ddb7E
	.loc	8 80 6 is_stmt 1
	addq	$144, %rsp
	popq	%rbp
	retq
Ltmp79:
Lfunc_end14:
	.cfi_endproc

	.p2align	4, 0x90
__ZN10proc_macro6bridge11scoped_cell19ScopedCell$LT$T$GT$3set28_$u7b$$u7b$closure$u7d$$u7d$17h2bc584678c2eb88eE:
Lfunc_begin15:
	.loc	8 79 0
	.cfi_startproc
	pushq	%rbp
	.cfi_def_cfa_offset 16
	.cfi_offset %rbp, -16
	movq	%rsp, %rbp
	.cfi_def_cfa_register %rbp
	subq	$32, %rsp
	movq	%rdi, -24(%rbp)
	movq	%rsi, -16(%rbp)
	movq	%rdx, -8(%rbp)
Ltmp80:
	.loc	8 79 33 prologue_end
	callq	__ZN10proc_macro6bridge6client10run_client28_$u7b$$u7b$closure$u7d$$u7d$28_$u7b$$u7b$closure$u7d$$u7d$17hde2ddc2a8fa6e4e7E
	.loc	8 79 36 is_stmt 0
	addq	$32, %rsp
	popq	%rbp
	retq
Ltmp81:
Lfunc_end15:
	.cfi_endproc

	.p2align	4, 0x90
__ZN10proc_macro6bridge11scoped_cell19ScopedCell$LT$T$GT$7replace17h04a7f13422be0e15E:
Lfunc_begin16:
	.loc	8 46 0 is_stmt 1
	.cfi_startproc
	.cfi_personality 155, _rust_eh_personality
	.cfi_lsda 16, Lexception2
	pushq	%rbp
	.cfi_def_cfa_offset 16
	.cfi_offset %rbp, -16
	movq	%rsp, %rbp
	.cfi_def_cfa_register %rbp
	subq	$512, %rsp
	movq	%rdi, %rax
	movq	%rsi, -32(%rbp)
Ltmp99:
	.loc	8 65 13 prologue_end
	movb	$0, -33(%rbp)
	movb	$0, -35(%rbp)
	movb	$0, -34(%rbp)
	movb	$1, -35(%rbp)
	movb	$1, -34(%rbp)
	.loc	8 67 25
	movq	%rsi, %rcx
Ltmp82:
	leaq	-184(%rbp), %r8
	movq	%rdi, -456(%rbp)
	.loc	8 68 30
	movq	%r8, %rdi
	movq	%rsi, -464(%rbp)
	movq	%rdx, %rsi
	movq	%rdx, -472(%rbp)
Ltmp100:
	.loc	8 0 30 is_stmt 0
	movq	%rax, -480(%rbp)
	movq	%rcx, -488(%rbp)
	.loc	8 68 30
	callq	__ZN4core3mem14transmute_copy17hd1caaba0ac436a67E
Ltmp83:
	jmp	LBB16_2
Ltmp101:
LBB16_1:
	.loc	8 46 5 is_stmt 1
	movq	-16(%rbp), %rdi
	callq	__Unwind_Resume
	ud2
Ltmp102:
LBB16_2:
	.loc	8 69 29
	movb	$0, -35(%rbp)
	movq	-472(%rbp), %rax
	movq	56(%rax), %rcx
	movq	%rcx, -64(%rbp)
	movq	48(%rax), %rcx
	movq	%rcx, -72(%rbp)
	movq	40(%rax), %rcx
	movq	%rcx, -80(%rbp)
	movq	32(%rax), %rcx
	movq	%rcx, -88(%rbp)
	movq	24(%rax), %rcx
	movq	%rcx, -96(%rbp)
	movq	16(%rax), %rcx
	movq	%rcx, -104(%rbp)
	movq	(%rax), %rcx
	movq	8(%rax), %rdx
	movq	%rdx, -112(%rbp)
	movq	%rcx, -120(%rbp)
Ltmp84:
	leaq	-120(%rbp), %rdi
	.loc	8 69 17 is_stmt 0
	callq	__ZN4core3mem6forget17hce4edc604e51762aE
Ltmp85:
	jmp	LBB16_4
Ltmp103:
LBB16_3:
	.loc	8 75 5 is_stmt 1
	testb	$1, -35(%rbp)
	jne	LBB16_12
	jmp	LBB16_1
Ltmp104:
LBB16_4:
	.loc	8 70 17
	movq	-128(%rbp), %rax
	movq	%rax, -192(%rbp)
	movq	-136(%rbp), %rax
	movq	%rax, -200(%rbp)
	movq	-144(%rbp), %rax
	movq	%rax, -208(%rbp)
	movq	-152(%rbp), %rax
	movq	%rax, -216(%rbp)
	movq	-160(%rbp), %rax
	movq	%rax, -224(%rbp)
	movq	-168(%rbp), %rax
	movq	%rax, -232(%rbp)
	movq	-184(%rbp), %rax
	movq	-176(%rbp), %rcx
	movq	%rcx, -240(%rbp)
	movq	%rax, -248(%rbp)
Ltmp87:
	leaq	-312(%rbp), %rdi
	leaq	-248(%rbp), %rdx
	movq	-488(%rbp), %rsi
Ltmp105:
	.loc	8 67 25
	callq	__ZN4core4cell13Cell$LT$T$GT$7replace17hae985ffe2a1401d6E
Ltmp88:
	jmp	LBB16_6
Ltmp106:
LBB16_5:
	.loc	8 71 13
	leaq	-184(%rbp), %rdi
	callq	__ZN4core3ptr13drop_in_place17haf5d9d52a5c8c78aE
	jmp	LBB16_14
Ltmp107:
LBB16_6:
	.loc	8 67 20
	movq	-256(%rbp), %rax
	movq	%rax, -320(%rbp)
	movq	-264(%rbp), %rax
	movq	%rax, -328(%rbp)
	movq	-272(%rbp), %rax
	movq	%rax, -336(%rbp)
	movq	-280(%rbp), %rax
	movq	%rax, -344(%rbp)
	movq	-288(%rbp), %rax
	movq	%rax, -352(%rbp)
	movq	-296(%rbp), %rax
	movq	%rax, -360(%rbp)
	movq	-312(%rbp), %rax
	movq	-304(%rbp), %rcx
	movq	%rcx, -368(%rbp)
	movq	%rax, -376(%rbp)
	movq	-464(%rbp), %rax
	.loc	8 65 36
	movq	%rax, -448(%rbp)
	leaq	-440(%rbp), %rdi
	movq	-320(%rbp), %rcx
	movq	%rcx, -384(%rbp)
	movq	-328(%rbp), %rcx
	movq	%rcx, -392(%rbp)
	movq	-336(%rbp), %rcx
	movq	%rcx, -400(%rbp)
	movq	-344(%rbp), %rcx
	movq	%rcx, -408(%rbp)
	movq	-352(%rbp), %rcx
	movq	%rcx, -416(%rbp)
	movq	-360(%rbp), %rcx
	movq	%rcx, -424(%rbp)
	movq	-376(%rbp), %rcx
	movq	-368(%rbp), %rdx
	movq	%rdx, -432(%rbp)
	movq	%rcx, -440(%rbp)
Ltmp108:
	.loc	8 74 9
	movb	$0, -34(%rbp)
	movb	$1, -33(%rbp)
Ltmp89:
	.loc	8 74 19 is_stmt 0
	callq	__ZN4core6option15Option$LT$T$GT$6as_mut17hcffff220b51da50aE
Ltmp90:
	movq	%rax, -496(%rbp)
	jmp	LBB16_7
Ltmp109:
LBB16_7:
Ltmp91:
	leaq	l___unnamed_6(%rip), %rsi
	movq	-496(%rbp), %rdi
	callq	__ZN4core6option15Option$LT$T$GT$6unwrap17hec1d1f1f4792eab8E
Ltmp92:
	movq	%rax, -504(%rbp)
	jmp	LBB16_9
Ltmp110:
LBB16_8:
	.loc	8 75 5 is_stmt 1
	leaq	-448(%rbp), %rdi
	callq	__ZN4core3ptr13drop_in_place17h1378e11e39ab6346E
	jmp	LBB16_14
Ltmp111:
LBB16_9:
	.loc	8 0 5 is_stmt 0
	movq	-504(%rbp), %rax
Ltmp112:
	.loc	8 74 11 is_stmt 1
	movq	%rax, -48(%rbp)
	.loc	8 74 9 is_stmt 0
	movq	-48(%rbp), %rcx
	movq	%rcx, -56(%rbp)
	movb	$0, -33(%rbp)
	movq	-56(%rbp), %rsi
Ltmp93:
	movq	-456(%rbp), %rdi
	callq	__ZN10proc_macro6bridge6client11BridgeState4with28_$u7b$$u7b$closure$u7d$$u7d$28_$u7b$$u7b$closure$u7d$$u7d$17h557ea42fe2084cd4E
Ltmp94:
	jmp	LBB16_10
Ltmp113:
LBB16_10:
	.loc	8 74 60
	movb	$0, -33(%rbp)
Ltmp96:
	leaq	-448(%rbp), %rdi
Ltmp114:
	.loc	8 75 5 is_stmt 1
	callq	__ZN4core3ptr13drop_in_place17h1378e11e39ab6346E
Ltmp97:
	jmp	LBB16_11
Ltmp115:
LBB16_11:
	.loc	8 0 5 is_stmt 0
	movq	-480(%rbp), %rax
	.loc	8 75 6
	addq	$512, %rsp
	popq	%rbp
	retq
Ltmp116:
LBB16_12:
	.loc	8 75 5
	movb	$0, -35(%rbp)
	movq	-472(%rbp), %rdi
	callq	__ZN4core3ptr13drop_in_place17haf5d9d52a5c8c78aE
	jmp	LBB16_1
Ltmp117:
LBB16_13:
	movb	$0, -34(%rbp)
	jmp	LBB16_3
Ltmp118:
LBB16_14:
	testb	$1, -34(%rbp)
	jne	LBB16_13
	jmp	LBB16_3
Ltmp119:
LBB16_15:
	.loc	8 74 60 is_stmt 1
	movb	$0, -33(%rbp)
	jmp	LBB16_8
Ltmp120:
LBB16_16:
	testb	$1, -33(%rbp)
	jne	LBB16_15
	jmp	LBB16_8
Ltmp121:
LBB16_17:
Ltmp98:
	.loc	8 0 60 is_stmt 0
	movq	%rax, -16(%rbp)
	movl	%edx, -8(%rbp)
	jmp	LBB16_14
Ltmp122:
LBB16_18:
Ltmp86:
	movq	%rax, -16(%rbp)
	movl	%edx, -8(%rbp)
	jmp	LBB16_5
Ltmp123:
LBB16_19:
Ltmp95:
	movq	%rax, -16(%rbp)
	movl	%edx, -8(%rbp)
	jmp	LBB16_16
Lfunc_end16:
	.cfi_endproc
	.section	__TEXT,__gcc_except_tab
	.p2align	2
GCC_except_table16:
Lexception2:
	.byte	255
	.byte	255
	.byte	1
	.uleb128 Lcst_end2-Lcst_begin2
Lcst_begin2:
	.uleb128 Ltmp82-Lfunc_begin16
	.uleb128 Ltmp83-Ltmp82
	.uleb128 Ltmp98-Lfunc_begin16
	.byte	0
	.uleb128 Ltmp83-Lfunc_begin16
	.uleb128 Ltmp84-Ltmp83
	.byte	0
	.byte	0
	.uleb128 Ltmp84-Lfunc_begin16
	.uleb128 Ltmp85-Ltmp84
	.uleb128 Ltmp86-Lfunc_begin16
	.byte	0
	.uleb128 Ltmp87-Lfunc_begin16
	.uleb128 Ltmp88-Ltmp87
	.uleb128 Ltmp98-Lfunc_begin16
	.byte	0
	.uleb128 Ltmp88-Lfunc_begin16
	.uleb128 Ltmp89-Ltmp88
	.byte	0
	.byte	0
	.uleb128 Ltmp89-Lfunc_begin16
	.uleb128 Ltmp92-Ltmp89
	.uleb128 Ltmp95-Lfunc_begin16
	.byte	0
	.uleb128 Ltmp92-Lfunc_begin16
	.uleb128 Ltmp93-Ltmp92
	.byte	0
	.byte	0
	.uleb128 Ltmp93-Lfunc_begin16
	.uleb128 Ltmp94-Ltmp93
	.uleb128 Ltmp95-Lfunc_begin16
	.byte	0
	.uleb128 Ltmp96-Lfunc_begin16
	.uleb128 Ltmp97-Ltmp96
	.uleb128 Ltmp98-Lfunc_begin16
	.byte	0
	.uleb128 Ltmp97-Lfunc_begin16
	.uleb128 Lfunc_end16-Ltmp97
	.byte	0
	.byte	0
Lcst_end2:
	.p2align	2

	.section	__TEXT,__text,regular,pure_instructions
	.p2align	4, 0x90
__ZN10proc_macro6bridge11scoped_cell19ScopedCell$LT$T$GT$7replace17h5fc46e8811cf48e8E:
Lfunc_begin17:
	.loc	8 46 0 is_stmt 1
	.cfi_startproc
	.cfi_personality 155, _rust_eh_personality
	.cfi_lsda 16, Lexception3
	pushq	%rbp
	.cfi_def_cfa_offset 16
	.cfi_offset %rbp, -16
	movq	%rsp, %rbp
	.cfi_def_cfa_register %rbp
	subq	$496, %rsp
	movq	%rdi, -32(%rbp)
	movq	%rdx, -24(%rbp)
Ltmp141:
	.loc	8 65 13 prologue_end
	movb	$0, -33(%rbp)
	movb	$0, -35(%rbp)
	movb	$0, -34(%rbp)
	movb	$1, -35(%rbp)
	movb	$1, -34(%rbp)
	.loc	8 67 25
	movq	%rdi, %rax
Ltmp124:
	leaq	-184(%rbp), %rcx
	movq	%rdi, -456(%rbp)
	.loc	8 68 30
	movq	%rcx, %rdi
	movq	%rsi, -464(%rbp)
Ltmp142:
	.loc	8 0 30 is_stmt 0
	movq	%rdx, -472(%rbp)
	movq	%rax, -480(%rbp)
	.loc	8 68 30
	callq	__ZN4core3mem14transmute_copy17hd1caaba0ac436a67E
Ltmp125:
	jmp	LBB17_2
Ltmp143:
LBB17_1:
	.loc	8 46 5 is_stmt 1
	movq	-16(%rbp), %rdi
	callq	__Unwind_Resume
	ud2
Ltmp144:
LBB17_2:
	.loc	8 69 29
	movb	$0, -35(%rbp)
	movq	-464(%rbp), %rax
	movq	56(%rax), %rcx
	movq	%rcx, -64(%rbp)
	movq	48(%rax), %rcx
	movq	%rcx, -72(%rbp)
	movq	40(%rax), %rcx
	movq	%rcx, -80(%rbp)
	movq	32(%rax), %rcx
	movq	%rcx, -88(%rbp)
	movq	24(%rax), %rcx
	movq	%rcx, -96(%rbp)
	movq	16(%rax), %rcx
	movq	%rcx, -104(%rbp)
	movq	(%rax), %rcx
	movq	8(%rax), %rdx
	movq	%rdx, -112(%rbp)
	movq	%rcx, -120(%rbp)
Ltmp126:
	leaq	-120(%rbp), %rdi
	.loc	8 69 17 is_stmt 0
	callq	__ZN4core3mem6forget17hce4edc604e51762aE
Ltmp127:
	jmp	LBB17_4
Ltmp145:
LBB17_3:
	.loc	8 75 5 is_stmt 1
	testb	$1, -35(%rbp)
	jne	LBB17_12
	jmp	LBB17_1
Ltmp146:
LBB17_4:
	.loc	8 70 17
	movq	-128(%rbp), %rax
	movq	%rax, -192(%rbp)
	movq	-136(%rbp), %rax
	movq	%rax, -200(%rbp)
	movq	-144(%rbp), %rax
	movq	%rax, -208(%rbp)
	movq	-152(%rbp), %rax
	movq	%rax, -216(%rbp)
	movq	-160(%rbp), %rax
	movq	%rax, -224(%rbp)
	movq	-168(%rbp), %rax
	movq	%rax, -232(%rbp)
	movq	-184(%rbp), %rax
	movq	-176(%rbp), %rcx
	movq	%rcx, -240(%rbp)
	movq	%rax, -248(%rbp)
Ltmp129:
	leaq	-312(%rbp), %rdi
	leaq	-248(%rbp), %rdx
	movq	-480(%rbp), %rsi
Ltmp147:
	.loc	8 67 25
	callq	__ZN4core4cell13Cell$LT$T$GT$7replace17hae985ffe2a1401d6E
Ltmp130:
	jmp	LBB17_6
Ltmp148:
LBB17_5:
	.loc	8 71 13
	leaq	-184(%rbp), %rdi
	callq	__ZN4core3ptr13drop_in_place17haf5d9d52a5c8c78aE
	jmp	LBB17_14
Ltmp149:
LBB17_6:
	.loc	8 67 20
	movq	-256(%rbp), %rax
	movq	%rax, -320(%rbp)
	movq	-264(%rbp), %rax
	movq	%rax, -328(%rbp)
	movq	-272(%rbp), %rax
	movq	%rax, -336(%rbp)
	movq	-280(%rbp), %rax
	movq	%rax, -344(%rbp)
	movq	-288(%rbp), %rax
	movq	%rax, -352(%rbp)
	movq	-296(%rbp), %rax
	movq	%rax, -360(%rbp)
	movq	-312(%rbp), %rax
	movq	-304(%rbp), %rcx
	movq	%rcx, -368(%rbp)
	movq	%rax, -376(%rbp)
	movq	-456(%rbp), %rax
	.loc	8 65 36
	movq	%rax, -448(%rbp)
	leaq	-440(%rbp), %rdi
	movq	-320(%rbp), %rcx
	movq	%rcx, -384(%rbp)
	movq	-328(%rbp), %rcx
	movq	%rcx, -392(%rbp)
	movq	-336(%rbp), %rcx
	movq	%rcx, -400(%rbp)
	movq	-344(%rbp), %rcx
	movq	%rcx, -408(%rbp)
	movq	-352(%rbp), %rcx
	movq	%rcx, -416(%rbp)
	movq	-360(%rbp), %rcx
	movq	%rcx, -424(%rbp)
	movq	-376(%rbp), %rcx
	movq	-368(%rbp), %rdx
	movq	%rdx, -432(%rbp)
	movq	%rcx, -440(%rbp)
Ltmp150:
	.loc	8 74 9
	movb	$0, -34(%rbp)
	movb	$1, -33(%rbp)
Ltmp131:
	.loc	8 74 19 is_stmt 0
	callq	__ZN4core6option15Option$LT$T$GT$6as_mut17hcffff220b51da50aE
Ltmp132:
	movq	%rax, -488(%rbp)
	jmp	LBB17_7
Ltmp151:
LBB17_7:
Ltmp133:
	leaq	l___unnamed_6(%rip), %rsi
	movq	-488(%rbp), %rdi
	callq	__ZN4core6option15Option$LT$T$GT$6unwrap17hec1d1f1f4792eab8E
Ltmp134:
	movq	%rax, -496(%rbp)
	jmp	LBB17_9
Ltmp152:
LBB17_8:
	.loc	8 75 5 is_stmt 1
	leaq	-448(%rbp), %rdi
	callq	__ZN4core3ptr13drop_in_place17h1378e11e39ab6346E
	jmp	LBB17_14
Ltmp153:
LBB17_9:
	.loc	8 0 5 is_stmt 0
	movq	-496(%rbp), %rax
Ltmp154:
	.loc	8 74 11 is_stmt 1
	movq	%rax, -48(%rbp)
	.loc	8 74 9 is_stmt 0
	movq	-48(%rbp), %rcx
	movq	%rcx, -56(%rbp)
	movb	$0, -33(%rbp)
	movq	-56(%rbp), %rsi
Ltmp135:
	movq	-472(%rbp), %rdi
	callq	__ZN10proc_macro6bridge6client11BridgeState4with28_$u7b$$u7b$closure$u7d$$u7d$28_$u7b$$u7b$closure$u7d$$u7d$17h9c8416bbcbe44d26E
Ltmp136:
	jmp	LBB17_10
Ltmp155:
LBB17_10:
	.loc	8 74 60
	movb	$0, -33(%rbp)
Ltmp138:
	leaq	-448(%rbp), %rdi
Ltmp156:
	.loc	8 75 5 is_stmt 1
	callq	__ZN4core3ptr13drop_in_place17h1378e11e39ab6346E
Ltmp139:
	jmp	LBB17_11
Ltmp157:
LBB17_11:
	.loc	8 75 6 is_stmt 0
	addq	$496, %rsp
	popq	%rbp
	retq
Ltmp158:
LBB17_12:
	.loc	8 75 5
	movb	$0, -35(%rbp)
	movq	-464(%rbp), %rdi
	callq	__ZN4core3ptr13drop_in_place17haf5d9d52a5c8c78aE
	jmp	LBB17_1
Ltmp159:
LBB17_13:
	movb	$0, -34(%rbp)
	jmp	LBB17_3
Ltmp160:
LBB17_14:
	testb	$1, -34(%rbp)
	jne	LBB17_13
	jmp	LBB17_3
Ltmp161:
LBB17_15:
	.loc	8 74 60 is_stmt 1
	movb	$0, -33(%rbp)
	jmp	LBB17_8
Ltmp162:
LBB17_16:
	testb	$1, -33(%rbp)
	jne	LBB17_15
	jmp	LBB17_8
Ltmp163:
LBB17_17:
Ltmp140:
	.loc	8 0 60 is_stmt 0
	movq	%rax, -16(%rbp)
	movl	%edx, -8(%rbp)
	jmp	LBB17_14
Ltmp164:
LBB17_18:
Ltmp128:
	movq	%rax, -16(%rbp)
	movl	%edx, -8(%rbp)
	jmp	LBB17_5
Ltmp165:
LBB17_19:
Ltmp137:
	movq	%rax, -16(%rbp)
	movl	%edx, -8(%rbp)
	jmp	LBB17_16
Lfunc_end17:
	.cfi_endproc
	.section	__TEXT,__gcc_except_tab
	.p2align	2
GCC_except_table17:
Lexception3:
	.byte	255
	.byte	255
	.byte	1
	.uleb128 Lcst_end3-Lcst_begin3
Lcst_begin3:
	.uleb128 Ltmp124-Lfunc_begin17
	.uleb128 Ltmp125-Ltmp124
	.uleb128 Ltmp140-Lfunc_begin17
	.byte	0
	.uleb128 Ltmp125-Lfunc_begin17
	.uleb128 Ltmp126-Ltmp125
	.byte	0
	.byte	0
	.uleb128 Ltmp126-Lfunc_begin17
	.uleb128 Ltmp127-Ltmp126
	.uleb128 Ltmp128-Lfunc_begin17
	.byte	0
	.uleb128 Ltmp129-Lfunc_begin17
	.uleb128 Ltmp130-Ltmp129
	.uleb128 Ltmp140-Lfunc_begin17
	.byte	0
	.uleb128 Ltmp130-Lfunc_begin17
	.uleb128 Ltmp131-Ltmp130
	.byte	0
	.byte	0
	.uleb128 Ltmp131-Lfunc_begin17
	.uleb128 Ltmp134-Ltmp131
	.uleb128 Ltmp137-Lfunc_begin17
	.byte	0
	.uleb128 Ltmp134-Lfunc_begin17
	.uleb128 Ltmp135-Ltmp134
	.byte	0
	.byte	0
	.uleb128 Ltmp135-Lfunc_begin17
	.uleb128 Ltmp136-Ltmp135
	.uleb128 Ltmp137-Lfunc_begin17
	.byte	0
	.uleb128 Ltmp138-Lfunc_begin17
	.uleb128 Ltmp139-Ltmp138
	.uleb128 Ltmp140-Lfunc_begin17
	.byte	0
	.uleb128 Ltmp139-Lfunc_begin17
	.uleb128 Lfunc_end17-Ltmp139
	.byte	0
	.byte	0
Lcst_end3:
	.p2align	2

	.section	__TEXT,__text,regular,pure_instructions
	.p2align	4, 0x90
__ZN10proc_macro6bridge11scoped_cell19ScopedCell$LT$T$GT$7replace17ha95a91294ea7ddb7E:
Lfunc_begin18:
	.loc	8 46 0 is_stmt 1
	.cfi_startproc
	.cfi_personality 155, _rust_eh_personality
	.cfi_lsda 16, Lexception4
	pushq	%rbp
	.cfi_def_cfa_offset 16
	.cfi_offset %rbp, -16
	movq	%rsp, %rbp
	.cfi_def_cfa_register %rbp
	subq	$512, %rsp
	movq	%rdi, -40(%rbp)
	movq	%rdx, -32(%rbp)
	movq	%rcx, -24(%rbp)
Ltmp183:
	.loc	8 65 13 prologue_end
	movb	$0, -41(%rbp)
	movb	$0, -43(%rbp)
	movb	$0, -42(%rbp)
	movb	$1, -43(%rbp)
	movb	$1, -42(%rbp)
	.loc	8 67 25
	movq	%rdi, %rax
Ltmp166:
	leaq	-192(%rbp), %r8
	movq	%rdi, -464(%rbp)
	.loc	8 68 30
	movq	%r8, %rdi
	movq	%rsi, -472(%rbp)
Ltmp184:
	.loc	8 0 30 is_stmt 0
	movq	%rdx, -480(%rbp)
	movq	%rcx, -488(%rbp)
	movq	%rax, -496(%rbp)
	.loc	8 68 30
	callq	__ZN4core3mem14transmute_copy17hd1caaba0ac436a67E
Ltmp167:
	jmp	LBB18_2
Ltmp185:
LBB18_1:
	.loc	8 46 5 is_stmt 1
	movq	-16(%rbp), %rdi
	callq	__Unwind_Resume
	ud2
Ltmp186:
LBB18_2:
	.loc	8 69 29
	movb	$0, -43(%rbp)
	movq	-472(%rbp), %rax
	movq	56(%rax), %rcx
	movq	%rcx, -72(%rbp)
	movq	48(%rax), %rcx
	movq	%rcx, -80(%rbp)
	movq	40(%rax), %rcx
	movq	%rcx, -88(%rbp)
	movq	32(%rax), %rcx
	movq	%rcx, -96(%rbp)
	movq	24(%rax), %rcx
	movq	%rcx, -104(%rbp)
	movq	16(%rax), %rcx
	movq	%rcx, -112(%rbp)
	movq	(%rax), %rcx
	movq	8(%rax), %rdx
	movq	%rdx, -120(%rbp)
	movq	%rcx, -128(%rbp)
Ltmp168:
	leaq	-128(%rbp), %rdi
	.loc	8 69 17 is_stmt 0
	callq	__ZN4core3mem6forget17hce4edc604e51762aE
Ltmp169:
	jmp	LBB18_4
Ltmp187:
LBB18_3:
	.loc	8 75 5 is_stmt 1
	testb	$1, -43(%rbp)
	jne	LBB18_12
	jmp	LBB18_1
Ltmp188:
LBB18_4:
	.loc	8 70 17
	movq	-136(%rbp), %rax
	movq	%rax, -200(%rbp)
	movq	-144(%rbp), %rax
	movq	%rax, -208(%rbp)
	movq	-152(%rbp), %rax
	movq	%rax, -216(%rbp)
	movq	-160(%rbp), %rax
	movq	%rax, -224(%rbp)
	movq	-168(%rbp), %rax
	movq	%rax, -232(%rbp)
	movq	-176(%rbp), %rax
	movq	%rax, -240(%rbp)
	movq	-192(%rbp), %rax
	movq	-184(%rbp), %rcx
	movq	%rcx, -248(%rbp)
	movq	%rax, -256(%rbp)
Ltmp171:
	leaq	-320(%rbp), %rdi
	leaq	-256(%rbp), %rdx
	movq	-496(%rbp), %rsi
Ltmp189:
	.loc	8 67 25
	callq	__ZN4core4cell13Cell$LT$T$GT$7replace17hae985ffe2a1401d6E
Ltmp172:
	jmp	LBB18_6
Ltmp190:
LBB18_5:
	.loc	8 71 13
	leaq	-192(%rbp), %rdi
	callq	__ZN4core3ptr13drop_in_place17haf5d9d52a5c8c78aE
	jmp	LBB18_14
Ltmp191:
LBB18_6:
	.loc	8 67 20
	movq	-264(%rbp), %rax
	movq	%rax, -328(%rbp)
	movq	-272(%rbp), %rax
	movq	%rax, -336(%rbp)
	movq	-280(%rbp), %rax
	movq	%rax, -344(%rbp)
	movq	-288(%rbp), %rax
	movq	%rax, -352(%rbp)
	movq	-296(%rbp), %rax
	movq	%rax, -360(%rbp)
	movq	-304(%rbp), %rax
	movq	%rax, -368(%rbp)
	movq	-320(%rbp), %rax
	movq	-312(%rbp), %rcx
	movq	%rcx, -376(%rbp)
	movq	%rax, -384(%rbp)
	movq	-464(%rbp), %rax
	.loc	8 65 36
	movq	%rax, -456(%rbp)
	leaq	-448(%rbp), %rdi
	movq	-328(%rbp), %rcx
	movq	%rcx, -392(%rbp)
	movq	-336(%rbp), %rcx
	movq	%rcx, -400(%rbp)
	movq	-344(%rbp), %rcx
	movq	%rcx, -408(%rbp)
	movq	-352(%rbp), %rcx
	movq	%rcx, -416(%rbp)
	movq	-360(%rbp), %rcx
	movq	%rcx, -424(%rbp)
	movq	-368(%rbp), %rcx
	movq	%rcx, -432(%rbp)
	movq	-384(%rbp), %rcx
	movq	-376(%rbp), %rdx
	movq	%rdx, -440(%rbp)
	movq	%rcx, -448(%rbp)
Ltmp192:
	.loc	8 74 9
	movb	$0, -42(%rbp)
	movb	$1, -41(%rbp)
Ltmp173:
	.loc	8 74 19 is_stmt 0
	callq	__ZN4core6option15Option$LT$T$GT$6as_mut17hcffff220b51da50aE
Ltmp174:
	movq	%rax, -504(%rbp)
	jmp	LBB18_7
Ltmp193:
LBB18_7:
Ltmp175:
	leaq	l___unnamed_6(%rip), %rsi
	movq	-504(%rbp), %rdi
	callq	__ZN4core6option15Option$LT$T$GT$6unwrap17hec1d1f1f4792eab8E
Ltmp176:
	movq	%rax, -512(%rbp)
	jmp	LBB18_9
Ltmp194:
LBB18_8:
	.loc	8 75 5 is_stmt 1
	leaq	-456(%rbp), %rdi
	callq	__ZN4core3ptr13drop_in_place17h1378e11e39ab6346E
	jmp	LBB18_14
Ltmp195:
LBB18_9:
	.loc	8 0 5 is_stmt 0
	movq	-512(%rbp), %rax
Ltmp196:
	.loc	8 74 11 is_stmt 1
	movq	%rax, -56(%rbp)
	.loc	8 74 9 is_stmt 0
	movq	-56(%rbp), %rcx
	movq	%rcx, -64(%rbp)
	movb	$0, -41(%rbp)
	movq	-64(%rbp), %rdx
Ltmp177:
	movq	-480(%rbp), %rdi
	movq	-488(%rbp), %rsi
	callq	__ZN10proc_macro6bridge11scoped_cell19ScopedCell$LT$T$GT$3set28_$u7b$$u7b$closure$u7d$$u7d$17h2bc584678c2eb88eE
Ltmp178:
	jmp	LBB18_10
Ltmp197:
LBB18_10:
	.loc	8 74 60
	movb	$0, -41(%rbp)
Ltmp180:
	leaq	-456(%rbp), %rdi
Ltmp198:
	.loc	8 75 5 is_stmt 1
	callq	__ZN4core3ptr13drop_in_place17h1378e11e39ab6346E
Ltmp181:
	jmp	LBB18_11
Ltmp199:
LBB18_11:
	.loc	8 75 6 is_stmt 0
	addq	$512, %rsp
	popq	%rbp
	retq
Ltmp200:
LBB18_12:
	.loc	8 75 5
	movb	$0, -43(%rbp)
	movq	-472(%rbp), %rdi
	callq	__ZN4core3ptr13drop_in_place17haf5d9d52a5c8c78aE
	jmp	LBB18_1
Ltmp201:
LBB18_13:
	movb	$0, -42(%rbp)
	jmp	LBB18_3
Ltmp202:
LBB18_14:
	testb	$1, -42(%rbp)
	jne	LBB18_13
	jmp	LBB18_3
Ltmp203:
LBB18_15:
	.loc	8 74 60 is_stmt 1
	movb	$0, -41(%rbp)
	jmp	LBB18_8
Ltmp204:
LBB18_16:
	testb	$1, -41(%rbp)
	jne	LBB18_15
	jmp	LBB18_8
Ltmp205:
LBB18_17:
Ltmp182:
	.loc	8 0 60 is_stmt 0
	movq	%rax, -16(%rbp)
	movl	%edx, -8(%rbp)
	jmp	LBB18_14
Ltmp206:
LBB18_18:
Ltmp170:
	movq	%rax, -16(%rbp)
	movl	%edx, -8(%rbp)
	jmp	LBB18_5
Ltmp207:
LBB18_19:
Ltmp179:
	movq	%rax, -16(%rbp)
	movl	%edx, -8(%rbp)
	jmp	LBB18_16
Lfunc_end18:
	.cfi_endproc
	.section	__TEXT,__gcc_except_tab
	.p2align	2
GCC_except_table18:
Lexception4:
	.byte	255
	.byte	255
	.byte	1
	.uleb128 Lcst_end4-Lcst_begin4
Lcst_begin4:
	.uleb128 Ltmp166-Lfunc_begin18
	.uleb128 Ltmp167-Ltmp166
	.uleb128 Ltmp182-Lfunc_begin18
	.byte	0
	.uleb128 Ltmp167-Lfunc_begin18
	.uleb128 Ltmp168-Ltmp167
	.byte	0
	.byte	0
	.uleb128 Ltmp168-Lfunc_begin18
	.uleb128 Ltmp169-Ltmp168
	.uleb128 Ltmp170-Lfunc_begin18
	.byte	0
	.uleb128 Ltmp171-Lfunc_begin18
	.uleb128 Ltmp172-Ltmp171
	.uleb128 Ltmp182-Lfunc_begin18
	.byte	0
	.uleb128 Ltmp172-Lfunc_begin18
	.uleb128 Ltmp173-Ltmp172
	.byte	0
	.byte	0
	.uleb128 Ltmp173-Lfunc_begin18
	.uleb128 Ltmp176-Ltmp173
	.uleb128 Ltmp179-Lfunc_begin18
	.byte	0
	.uleb128 Ltmp176-Lfunc_begin18
	.uleb128 Ltmp177-Ltmp176
	.byte	0
	.byte	0
	.uleb128 Ltmp177-Lfunc_begin18
	.uleb128 Ltmp178-Ltmp177
	.uleb128 Ltmp179-Lfunc_begin18
	.byte	0
	.uleb128 Ltmp180-Lfunc_begin18
	.uleb128 Ltmp181-Ltmp180
	.uleb128 Ltmp182-Lfunc_begin18
	.byte	0
	.uleb128 Ltmp181-Lfunc_begin18
	.uleb128 Lfunc_end18-Ltmp181
	.byte	0
	.byte	0
Lcst_end4:
	.p2align	2

	.section	__TEXT,__text,regular,pure_instructions
	.p2align	4, 0x90
__ZN10proc_macro6bridge11scoped_cell19ScopedCell$LT$T$GT$7replace17he7c66f23d5d78cc0E:
Lfunc_begin19:
	.loc	8 46 0 is_stmt 1
	.cfi_startproc
	.cfi_personality 155, _rust_eh_personality
	.cfi_lsda 16, Lexception5
	pushq	%rbp
	.cfi_def_cfa_offset 16
	.cfi_offset %rbp, -16
	movq	%rsp, %rbp
	.cfi_def_cfa_register %rbp
	subq	$496, %rsp
	movq	%rdi, -32(%rbp)
Ltmp225:
	.loc	8 65 13 prologue_end
	movb	$0, -33(%rbp)
	movb	$0, -35(%rbp)
	movb	$0, -34(%rbp)
	movb	$1, -35(%rbp)
	movb	$1, -34(%rbp)
	.loc	8 67 25
	movq	%rdi, %rax
Ltmp208:
	leaq	-184(%rbp), %rcx
	movq	%rdi, -456(%rbp)
	.loc	8 68 30
	movq	%rcx, %rdi
	movq	%rsi, -464(%rbp)
Ltmp226:
	.loc	8 0 30 is_stmt 0
	movq	%rax, -472(%rbp)
	.loc	8 68 30
	callq	__ZN4core3mem14transmute_copy17hd1caaba0ac436a67E
Ltmp209:
	jmp	LBB19_2
Ltmp227:
LBB19_1:
	.loc	8 46 5 is_stmt 1
	movq	-16(%rbp), %rdi
	callq	__Unwind_Resume
	ud2
Ltmp228:
LBB19_2:
	.loc	8 69 29
	movb	$0, -35(%rbp)
	movq	-464(%rbp), %rax
	movq	56(%rax), %rcx
	movq	%rcx, -64(%rbp)
	movq	48(%rax), %rcx
	movq	%rcx, -72(%rbp)
	movq	40(%rax), %rcx
	movq	%rcx, -80(%rbp)
	movq	32(%rax), %rcx
	movq	%rcx, -88(%rbp)
	movq	24(%rax), %rcx
	movq	%rcx, -96(%rbp)
	movq	16(%rax), %rcx
	movq	%rcx, -104(%rbp)
	movq	(%rax), %rcx
	movq	8(%rax), %rdx
	movq	%rdx, -112(%rbp)
	movq	%rcx, -120(%rbp)
Ltmp210:
	leaq	-120(%rbp), %rdi
	.loc	8 69 17 is_stmt 0
	callq	__ZN4core3mem6forget17hce4edc604e51762aE
Ltmp211:
	jmp	LBB19_4
Ltmp229:
LBB19_3:
	.loc	8 75 5 is_stmt 1
	testb	$1, -35(%rbp)
	jne	LBB19_12
	jmp	LBB19_1
Ltmp230:
LBB19_4:
	.loc	8 70 17
	movq	-128(%rbp), %rax
	movq	%rax, -192(%rbp)
	movq	-136(%rbp), %rax
	movq	%rax, -200(%rbp)
	movq	-144(%rbp), %rax
	movq	%rax, -208(%rbp)
	movq	-152(%rbp), %rax
	movq	%rax, -216(%rbp)
	movq	-160(%rbp), %rax
	movq	%rax, -224(%rbp)
	movq	-168(%rbp), %rax
	movq	%rax, -232(%rbp)
	movq	-184(%rbp), %rax
	movq	-176(%rbp), %rcx
	movq	%rcx, -240(%rbp)
	movq	%rax, -248(%rbp)
Ltmp213:
	leaq	-312(%rbp), %rdi
	leaq	-248(%rbp), %rdx
	movq	-472(%rbp), %rsi
Ltmp231:
	.loc	8 67 25
	callq	__ZN4core4cell13Cell$LT$T$GT$7replace17hae985ffe2a1401d6E
Ltmp214:
	jmp	LBB19_6
Ltmp232:
LBB19_5:
	.loc	8 71 13
	leaq	-184(%rbp), %rdi
	callq	__ZN4core3ptr13drop_in_place17haf5d9d52a5c8c78aE
	jmp	LBB19_14
Ltmp233:
LBB19_6:
	.loc	8 67 20
	movq	-256(%rbp), %rax
	movq	%rax, -320(%rbp)
	movq	-264(%rbp), %rax
	movq	%rax, -328(%rbp)
	movq	-272(%rbp), %rax
	movq	%rax, -336(%rbp)
	movq	-280(%rbp), %rax
	movq	%rax, -344(%rbp)
	movq	-288(%rbp), %rax
	movq	%rax, -352(%rbp)
	movq	-296(%rbp), %rax
	movq	%rax, -360(%rbp)
	movq	-312(%rbp), %rax
	movq	-304(%rbp), %rcx
	movq	%rcx, -368(%rbp)
	movq	%rax, -376(%rbp)
	movq	-456(%rbp), %rax
	.loc	8 65 36
	movq	%rax, -448(%rbp)
	leaq	-440(%rbp), %rdi
	movq	-320(%rbp), %rcx
	movq	%rcx, -384(%rbp)
	movq	-328(%rbp), %rcx
	movq	%rcx, -392(%rbp)
	movq	-336(%rbp), %rcx
	movq	%rcx, -400(%rbp)
	movq	-344(%rbp), %rcx
	movq	%rcx, -408(%rbp)
	movq	-352(%rbp), %rcx
	movq	%rcx, -416(%rbp)
	movq	-360(%rbp), %rcx
	movq	%rcx, -424(%rbp)
	movq	-376(%rbp), %rcx
	movq	-368(%rbp), %rdx
	movq	%rdx, -432(%rbp)
	movq	%rcx, -440(%rbp)
Ltmp234:
	.loc	8 74 9
	movb	$0, -34(%rbp)
	movb	$1, -33(%rbp)
Ltmp215:
	.loc	8 74 19 is_stmt 0
	callq	__ZN4core6option15Option$LT$T$GT$6as_mut17hcffff220b51da50aE
Ltmp216:
	movq	%rax, -480(%rbp)
	jmp	LBB19_7
Ltmp235:
LBB19_7:
Ltmp217:
	leaq	l___unnamed_6(%rip), %rsi
	movq	-480(%rbp), %rdi
	callq	__ZN4core6option15Option$LT$T$GT$6unwrap17hec1d1f1f4792eab8E
Ltmp218:
	movq	%rax, -488(%rbp)
	jmp	LBB19_9
Ltmp236:
LBB19_8:
	.loc	8 75 5 is_stmt 1
	leaq	-448(%rbp), %rdi
	callq	__ZN4core3ptr13drop_in_place17h1378e11e39ab6346E
	jmp	LBB19_14
Ltmp237:
LBB19_9:
	.loc	8 0 5 is_stmt 0
	movq	-488(%rbp), %rax
Ltmp238:
	.loc	8 74 11 is_stmt 1
	movq	%rax, -48(%rbp)
	.loc	8 74 9 is_stmt 0
	movq	-48(%rbp), %rcx
	movq	%rcx, -56(%rbp)
	movb	$0, -33(%rbp)
	movq	-56(%rbp), %rdi
Ltmp219:
	callq	__ZN10proc_macro6bridge6client11BridgeState4with28_$u7b$$u7b$closure$u7d$$u7d$28_$u7b$$u7b$closure$u7d$$u7d$17h62b4dda95f4c5489E
Ltmp220:
	movb	%al, -489(%rbp)
	jmp	LBB19_10
Ltmp239:
LBB19_10:
	.loc	8 74 60
	movb	$0, -33(%rbp)
Ltmp222:
	leaq	-448(%rbp), %rdi
Ltmp240:
	.loc	8 75 5 is_stmt 1
	callq	__ZN4core3ptr13drop_in_place17h1378e11e39ab6346E
Ltmp223:
	jmp	LBB19_11
Ltmp241:
LBB19_11:
	.loc	8 0 5 is_stmt 0
	movb	-489(%rbp), %al
	.loc	8 75 6
	andb	$1, %al
	movzbl	%al, %eax
	addq	$496, %rsp
	popq	%rbp
	retq
Ltmp242:
LBB19_12:
	.loc	8 75 5
	movb	$0, -35(%rbp)
	movq	-464(%rbp), %rdi
	callq	__ZN4core3ptr13drop_in_place17haf5d9d52a5c8c78aE
	jmp	LBB19_1
Ltmp243:
LBB19_13:
	movb	$0, -34(%rbp)
	jmp	LBB19_3
Ltmp244:
LBB19_14:
	testb	$1, -34(%rbp)
	jne	LBB19_13
	jmp	LBB19_3
Ltmp245:
LBB19_15:
	.loc	8 74 60 is_stmt 1
	movb	$0, -33(%rbp)
	jmp	LBB19_8
Ltmp246:
LBB19_16:
	testb	$1, -33(%rbp)
	jne	LBB19_15
	jmp	LBB19_8
Ltmp247:
LBB19_17:
Ltmp224:
	.loc	8 0 60 is_stmt 0
	movq	%rax, -16(%rbp)
	movl	%edx, -8(%rbp)
	jmp	LBB19_14
Ltmp248:
LBB19_18:
Ltmp212:
	movq	%rax, -16(%rbp)
	movl	%edx, -8(%rbp)
	jmp	LBB19_5
Ltmp249:
LBB19_19:
Ltmp221:
	movq	%rax, -16(%rbp)
	movl	%edx, -8(%rbp)
	jmp	LBB19_16
Lfunc_end19:
	.cfi_endproc
	.section	__TEXT,__gcc_except_tab
	.p2align	2
GCC_except_table19:
Lexception5:
	.byte	255
	.byte	255
	.byte	1
	.uleb128 Lcst_end5-Lcst_begin5
Lcst_begin5:
	.uleb128 Ltmp208-Lfunc_begin19
	.uleb128 Ltmp209-Ltmp208
	.uleb128 Ltmp224-Lfunc_begin19
	.byte	0
	.uleb128 Ltmp209-Lfunc_begin19
	.uleb128 Ltmp210-Ltmp209
	.byte	0
	.byte	0
	.uleb128 Ltmp210-Lfunc_begin19
	.uleb128 Ltmp211-Ltmp210
	.uleb128 Ltmp212-Lfunc_begin19
	.byte	0
	.uleb128 Ltmp213-Lfunc_begin19
	.uleb128 Ltmp214-Ltmp213
	.uleb128 Ltmp224-Lfunc_begin19
	.byte	0
	.uleb128 Ltmp214-Lfunc_begin19
	.uleb128 Ltmp215-Ltmp214
	.byte	0
	.byte	0
	.uleb128 Ltmp215-Lfunc_begin19
	.uleb128 Ltmp218-Ltmp215
	.uleb128 Ltmp221-Lfunc_begin19
	.byte	0
	.uleb128 Ltmp218-Lfunc_begin19
	.uleb128 Ltmp219-Ltmp218
	.byte	0
	.byte	0
	.uleb128 Ltmp219-Lfunc_begin19
	.uleb128 Ltmp220-Ltmp219
	.uleb128 Ltmp221-Lfunc_begin19
	.byte	0
	.uleb128 Ltmp222-Lfunc_begin19
	.uleb128 Ltmp223-Ltmp222
	.uleb128 Ltmp224-Lfunc_begin19
	.byte	0
	.uleb128 Ltmp223-Lfunc_begin19
	.uleb128 Lfunc_end19-Ltmp223
	.byte	0
	.byte	0
Lcst_end5:
	.p2align	2

	.section	__TEXT,__text,regular,pure_instructions
	.p2align	4, 0x90
__ZN10proc_macro6bridge6buffer15Buffer$LT$T$GT$4take17hfca616e49fea3a3eE:
Lfunc_begin20:
	.file	9 "/rustc/6c8927b0cf80ceee19386026cf9d7fd4fd9d486f/src/libproc_macro/bridge/buffer.rs"
	.loc	9 77 0 is_stmt 1
	.cfi_startproc
	pushq	%rbp
	.cfi_def_cfa_offset 16
	.cfi_offset %rbp, -16
	movq	%rsp, %rbp
	.cfi_def_cfa_register %rbp
	subq	$16, %rsp
	movq	%rdi, %rax
	movq	%rsi, -8(%rbp)
	movq	%rax, -16(%rbp)
Ltmp250:
	.loc	9 78 9 prologue_end
	callq	__ZN4core3mem4take17ha2e9a4f590f5621eE
	.loc	9 0 9 is_stmt 0
	movq	-16(%rbp), %rax
	.loc	9 79 6 is_stmt 1
	addq	$16, %rsp
	popq	%rbp
	retq
Ltmp251:
Lfunc_end20:
	.cfi_endproc

	.p2align	4, 0x90
__ZN10proc_macro6bridge6buffer15Buffer$LT$T$GT$5clear17h4651306e1e072581E:
Lfunc_begin21:
	.loc	9 73 0
	.cfi_startproc
	pushq	%rbp
	.cfi_def_cfa_offset 16
	.cfi_offset %rbp, -16
	movq	%rsp, %rbp
	.cfi_def_cfa_register %rbp
	pushq	%rax
	movq	%rdi, -8(%rbp)
Ltmp252:
	.loc	9 74 9 prologue_end
	movq	$0, 8(%rdi)
	.loc	9 75 6
	addq	$8, %rsp
	popq	%rbp
	retq
Ltmp253:
Lfunc_end21:
	.cfi_endproc

	.p2align	4, 0x90
__ZN10proc_macro6bridge6client10run_client17h746ceba94bf0b076E:
Lfunc_begin22:
	.loc	4 360 0
	.cfi_startproc
	.cfi_personality 155, _rust_eh_personality
	.cfi_lsda 16, Lexception6
	pushq	%rbp
	.cfi_def_cfa_offset 16
	.cfi_offset %rbp, -16
	movq	%rsp, %rbp
	.cfi_def_cfa_register %rbp
	subq	$288, %rsp
Ltmp264:
	movq	%rdi, %rax
	movq	%rdx, -24(%rbp)
Ltmp265:
	.loc	4 365 9 prologue_end
	movb	$0, -26(%rbp)
	movb	$0, -25(%rbp)
	movb	$1, -26(%rbp)
	movb	$1, -25(%rbp)
Ltmp254:
	movq	%rdi, -224(%rbp)
Ltmp266:
	.loc	4 0 9 is_stmt 0
	movq	%rsi, -232(%rbp)
Ltmp267:
	movq	%rdx, -240(%rbp)
	movq	%rax, -248(%rbp)
	.loc	4 365 17
	callq	__ZN10proc_macro6bridge6buffer15Buffer$LT$T$GT$4take17hfca616e49fea3a3eE
Ltmp255:
	jmp	LBB22_2
Ltmp268:
LBB22_1:
	.loc	4 360 1 is_stmt 1
	movq	-16(%rbp), %rdi
	callq	__Unwind_Resume
	ud2
Ltmp269:
LBB22_2:
	.loc	4 367 49
	movb	$0, -26(%rbp)
	movb	$0, -25(%rbp)
	movq	-232(%rbp), %rax
	movq	48(%rax), %rcx
	movq	%rcx, -64(%rbp)
	movq	40(%rax), %rcx
	movq	%rcx, -72(%rbp)
	movq	32(%rax), %rcx
	movq	%rcx, -80(%rbp)
	movq	24(%rax), %rcx
	movq	%rcx, -88(%rbp)
	movq	16(%rax), %rcx
	movq	%rcx, -96(%rbp)
	movq	(%rax), %rcx
	movq	8(%rax), %rdx
	movq	%rdx, -104(%rbp)
	movq	%rcx, -112(%rbp)
	movq	-224(%rbp), %rcx
	movq	%rcx, -56(%rbp)
	movq	-240(%rbp), %rdx
	movq	%rdx, -48(%rbp)
	movl	$9, %ecx
	leaq	-184(%rbp), %rsi
	leaq	-112(%rbp), %rdi
	movq	%rdi, -256(%rbp)
	.loc	4 367 25 is_stmt 0
	movq	%rsi, %rdi
	movq	-256(%rbp), %r8
	movq	%rsi, -264(%rbp)
	movq	%r8, %rsi
	rep;movsq (%rsi), %es:(%rdi)
Ltmp257:
	movq	-264(%rbp), %rdi
	.loc	4 367 5
	callq	__ZN3std5panic12catch_unwind17h47ad1be9af28d1c8E
Ltmp258:
	movq	%rdx, -272(%rbp)
	movq	%rax, -280(%rbp)
	jmp	LBB22_5
Ltmp270:
LBB22_3:
	.loc	4 399 1 is_stmt 1
	testb	$1, -26(%rbp)
	jne	LBB22_8
	jmp	LBB22_1
Ltmp271:
LBB22_4:
	.loc	4 0 1 is_stmt 0
	movq	-224(%rbp), %rdi
	.loc	4 399 1
	callq	__ZN4core3ptr13drop_in_place17h66e0dca2dc19b907E
	jmp	LBB22_10
Ltmp272:
LBB22_5:
Ltmp259:
	.loc	4 0 1
	leaq	-216(%rbp), %rdi
	movq	-280(%rbp), %rsi
	movq	-272(%rbp), %rdx
Ltmp273:
	.loc	4 367 5 is_stmt 1
	callq	__ZN4core6result19Result$LT$T$C$E$GT$7map_err17hbf4ca8db6aba70ebE
Ltmp260:
	jmp	LBB22_6
Ltmp274:
LBB22_6:
	.loc	4 0 5 is_stmt 0
	movq	-224(%rbp), %rax
	.loc	4 394 21 is_stmt 1
	movq	%rax, -40(%rbp)
	.loc	4 367 5
	movq	-40(%rbp), %rsi
Ltmp261:
	leaq	-216(%rbp), %rdi
	callq	__ZN4core6result19Result$LT$T$C$E$GT$14unwrap_or_else17hf7fb0e5872280738E
Ltmp262:
	jmp	LBB22_7
Ltmp275:
LBB22_7:
	.loc	4 0 5 is_stmt 0
	movq	-248(%rbp), %rax
	.loc	4 399 2 is_stmt 1
	addq	$288, %rsp
	popq	%rbp
	retq
Ltmp276:
LBB22_8:
	.loc	4 399 1 is_stmt 0
	movb	$0, -26(%rbp)
	movq	-232(%rbp), %rdi
	callq	__ZN4core3ptr13drop_in_place17hd01d53aa951eb267E
	jmp	LBB22_1
Ltmp277:
LBB22_9:
	movb	$0, -25(%rbp)
	jmp	LBB22_3
Ltmp278:
LBB22_10:
	testb	$1, -25(%rbp)
	jne	LBB22_9
	jmp	LBB22_3
Ltmp279:
LBB22_11:
Ltmp256:
	.loc	4 0 1
	movq	%rax, -16(%rbp)
	movl	%edx, -8(%rbp)
	jmp	LBB22_10
Ltmp280:
LBB22_12:
Ltmp263:
	movq	%rax, -16(%rbp)
	movl	%edx, -8(%rbp)
	jmp	LBB22_4
Lfunc_end22:
	.cfi_endproc
	.section	__TEXT,__gcc_except_tab
	.p2align	2
GCC_except_table22:
Lexception6:
	.byte	255
	.byte	255
	.byte	1
	.uleb128 Lcst_end6-Lcst_begin6
Lcst_begin6:
	.uleb128 Ltmp254-Lfunc_begin22
	.uleb128 Ltmp255-Ltmp254
	.uleb128 Ltmp256-Lfunc_begin22
	.byte	0
	.uleb128 Ltmp255-Lfunc_begin22
	.uleb128 Ltmp257-Ltmp255
	.byte	0
	.byte	0
	.uleb128 Ltmp257-Lfunc_begin22
	.uleb128 Ltmp258-Ltmp257
	.uleb128 Ltmp263-Lfunc_begin22
	.byte	0
	.uleb128 Ltmp258-Lfunc_begin22
	.uleb128 Ltmp259-Ltmp258
	.byte	0
	.byte	0
	.uleb128 Ltmp259-Lfunc_begin22
	.uleb128 Ltmp262-Ltmp259
	.uleb128 Ltmp263-Lfunc_begin22
	.byte	0
	.uleb128 Ltmp262-Lfunc_begin22
	.uleb128 Lfunc_end22-Ltmp262
	.byte	0
	.byte	0
Lcst_end6:
	.p2align	2

	.section	__TEXT,__text,regular,pure_instructions
	.p2align	4, 0x90
__ZN10proc_macro6bridge6client10run_client28_$u7b$$u7b$closure$u7d$$u7d$17h3627cd44c39cb1f4E:
Lfunc_begin23:
	.loc	4 367 0 is_stmt 1
	.cfi_startproc
	pushq	%rbp
	.cfi_def_cfa_offset 16
	.cfi_offset %rbp, -16
	movq	%rsp, %rbp
	.cfi_def_cfa_register %rbp
	subq	$96, %rsp
Ltmp281:
	.loc	4 368 9 prologue_end
	movq	%rdi, %rax
	leaq	-72(%rbp), %rcx
	movq	%rcx, %rdx
	movq	%rdi, -80(%rbp)
Ltmp282:
	movq	%rdx, %rdi
	movq	%rax, %rsi
	movl	$56, %edx
	movq	%rcx, -88(%rbp)
	callq	_memcpy
	movq	-80(%rbp), %rax
	.loc	4 368 22 is_stmt 0
	movq	56(%rax), %rcx
	movq	%rcx, -16(%rbp)
	movq	64(%rax), %rcx
	movq	%rcx, -8(%rbp)
	.loc	4 368 9
	movq	-16(%rbp), %rsi
	movq	-8(%rbp), %rdx
	movq	-88(%rbp), %rdi
	callq	__ZN10proc_macro6bridge6client44_$LT$impl$u20$proc_macro..bridge..Bridge$GT$5enter17hde3cbcd79418b1cbE
Ltmp283:
	.loc	4 392 6 is_stmt 1
	addq	$96, %rsp
	popq	%rbp
	retq
Ltmp284:
Lfunc_end23:
	.cfi_endproc

	.p2align	4, 0x90
__ZN10proc_macro6bridge6client10run_client28_$u7b$$u7b$closure$u7d$$u7d$17hab8d8712bdc17596E:
Lfunc_begin24:
	.loc	4 394 0
	.cfi_startproc
	.cfi_personality 155, _rust_eh_personality
	.cfi_lsda 16, Lexception7
	pushq	%rbp
	.cfi_def_cfa_offset 16
	.cfi_offset %rbp, -16
	movq	%rsp, %rbp
	.cfi_def_cfa_register %rbp
	subq	$112, %rsp
	movq	%rdi, -24(%rbp)
Ltmp290:
	.loc	4 395 9 prologue_end
	movb	$0, -25(%rbp)
	movb	$1, -25(%rbp)
Ltmp285:
	movq	%rdi, -104(%rbp)
	movq	%rsi, -112(%rbp)
Ltmp291:
	callq	__ZN10proc_macro6bridge6buffer15Buffer$LT$T$GT$5clear17h4651306e1e072581E
Ltmp286:
	jmp	LBB24_2
Ltmp292:
LBB24_1:
	.loc	4 394 21
	movq	-16(%rbp), %rdi
	callq	__Unwind_Resume
	ud2
Ltmp293:
LBB24_2:
	.loc	4 396 22
	movb	$0, -25(%rbp)
	movq	-112(%rbp), %rax
	movq	24(%rax), %rcx
	movq	%rcx, -40(%rbp)
	movq	16(%rax), %rcx
	movq	%rcx, -48(%rbp)
	movq	(%rax), %rcx
	movq	8(%rax), %rdx
	movq	%rdx, -56(%rbp)
	movq	%rcx, -64(%rbp)
	.loc	4 396 9 is_stmt 0
	movq	-40(%rbp), %rcx
	movq	%rcx, -72(%rbp)
	movq	-48(%rbp), %rcx
	movq	%rcx, -80(%rbp)
	movq	-64(%rbp), %rcx
	movq	-56(%rbp), %rdx
	movq	%rdx, -88(%rbp)
	movq	%rcx, -96(%rbp)
Ltmp287:
	leaq	-96(%rbp), %rdi
	leaq	-32(%rbp), %rdx
	movq	-104(%rbp), %rsi
	callq	__ZN94_$LT$core..result..Result$LT$T$C$E$GT$$u20$as$u20$proc_macro..bridge..rpc..Encode$LT$S$GT$$GT$6encode17h916d481f5946971bE
Ltmp288:
	jmp	LBB24_3
Ltmp294:
LBB24_3:
	.loc	4 397 6 is_stmt 1
	addq	$112, %rsp
	popq	%rbp
	retq
Ltmp295:
LBB24_4:
	.loc	4 397 5 is_stmt 0
	movb	$0, -25(%rbp)
	movq	-112(%rbp), %rdi
	callq	__ZN4core3ptr13drop_in_place17h75eff4d54907fd4fE
	jmp	LBB24_1
Ltmp296:
LBB24_5:
	testb	$1, -25(%rbp)
	jne	LBB24_4
	jmp	LBB24_1
Ltmp297:
LBB24_6:
Ltmp289:
	.loc	4 0 5
	movq	%rax, -16(%rbp)
	movl	%edx, -8(%rbp)
	jmp	LBB24_5
Lfunc_end24:
	.cfi_endproc
	.section	__TEXT,__gcc_except_tab
	.p2align	2
GCC_except_table24:
Lexception7:
	.byte	255
	.byte	255
	.byte	1
	.uleb128 Lcst_end7-Lcst_begin7
Lcst_begin7:
	.uleb128 Ltmp285-Lfunc_begin24
	.uleb128 Ltmp286-Ltmp285
	.uleb128 Ltmp289-Lfunc_begin24
	.byte	0
	.uleb128 Ltmp286-Lfunc_begin24
	.uleb128 Ltmp287-Ltmp286
	.byte	0
	.byte	0
	.uleb128 Ltmp287-Lfunc_begin24
	.uleb128 Ltmp288-Ltmp287
	.uleb128 Ltmp289-Lfunc_begin24
	.byte	0
	.uleb128 Ltmp288-Lfunc_begin24
	.uleb128 Lfunc_end24-Ltmp288
	.byte	0
	.byte	0
Lcst_end7:
	.p2align	2

	.section	__TEXT,__text,regular,pure_instructions
	.p2align	4, 0x90
__ZN10proc_macro6bridge6client10run_client28_$u7b$$u7b$closure$u7d$$u7d$28_$u7b$$u7b$closure$u7d$$u7d$17hde2ddc2a8fa6e4e7E:
Lfunc_begin25:
	.loc	4 368 0 is_stmt 1
	.cfi_startproc
	.cfi_personality 155, _rust_eh_personality
	.cfi_lsda 16, Lexception8
	pushq	%rbp
	.cfi_def_cfa_offset 16
	.cfi_offset %rbp, -16
	movq	%rsp, %rbp
	.cfi_def_cfa_register %rbp
	subq	$224, %rsp
	movq	%rdi, -184(%rbp)
	movq	%rsi, -176(%rbp)
Ltmp320:
	.loc	4 369 17 prologue_end
	movb	$0, -35(%rbp)
	movb	$0, -34(%rbp)
	movb	$0, -33(%rbp)
	movb	$1, -35(%rbp)
	.loc	4 369 32 is_stmt 0
	movq	-184(%rbp), %rdi
Ltmp298:
	callq	__ZN87_$LT$proc_macro..bridge..buffer..Buffer$LT$T$GT$$u20$as$u20$core..ops..deref..Deref$GT$5deref17h2c9bb0b26dbd6bd5E
Ltmp299:
	movq	%rdx, -192(%rbp)
	movq	%rax, -200(%rbp)
	jmp	LBB25_1
LBB25_1:
Ltmp300:
	leaq	l___unnamed_7(%rip), %rdx
	movq	-200(%rbp), %rdi
	movq	-192(%rbp), %rsi
	callq	__ZN4core5slice74_$LT$impl$u20$core..ops..index..Index$LT$I$GT$$u20$for$u20$$u5b$T$u5d$$GT$5index17h034a477d9d0d2809E
Ltmp301:
	movq	%rdx, -208(%rbp)
	movq	%rax, -216(%rbp)
	jmp	LBB25_2
LBB25_2:
	.loc	4 0 32
	movq	-216(%rbp), %rax
	.loc	4 369 31
	movq	%rax, -168(%rbp)
	movq	-208(%rbp), %rcx
	movq	%rcx, -160(%rbp)
	leaq	-168(%rbp), %rdx
	.loc	4 369 26
	movq	%rdx, -16(%rbp)
Ltmp302:
	leaq	-144(%rbp), %rsi
Ltmp321:
	.loc	4 370 25 is_stmt 1
	movq	%rdx, %rdi
	callq	__ZN103_$LT$proc_macro..bridge..client..TokenStream$u20$as$u20$proc_macro..bridge..rpc..DecodeMut$LT$S$GT$$GT$6decode17hcdbb0247dbfada44E
Ltmp303:
	movl	%eax, -220(%rbp)
	jmp	LBB25_3
LBB25_3:
	.loc	4 0 25 is_stmt 0
	movl	-220(%rbp), %eax
	.loc	4 370 25
	movl	%eax, -8(%rbp)
	movl	-8(%rbp), %ecx
	movl	%ecx, -152(%rbp)
	.loc	4 370 50
	movb	$1, -34(%rbp)
Ltmp322:
	.loc	4 373 26 is_stmt 1
	movq	-184(%rbp), %rdx
	movq	%rdx, -136(%rbp)
	.loc	4 373 13 is_stmt 0
	movq	-136(%rbp), %rdi
Ltmp305:
	callq	__ZN10proc_macro6bridge6client44_$LT$impl$u20$proc_macro..bridge..Bridge$GT$4with17hb085c8c98a7fa8f2E
Ltmp306:
	jmp	LBB25_4
LBB25_4:
	.loc	4 375 26 is_stmt 1
	movb	$0, -35(%rbp)
	movq	-176(%rbp), %rdi
	.loc	4 375 28 is_stmt 0
	movb	$0, -34(%rbp)
	movl	-152(%rbp), %eax
	movl	%eax, -112(%rbp)
	.loc	4 375 26
	movl	-112(%rbp), %eax
	movl	%eax, -120(%rbp)
	movl	-120(%rbp), %esi
Ltmp307:
	callq	__ZN10proc_macro6bridge6client85Client$LT$fn$LP$proc_macro..TokenStream$RP$$u20$.$GT$$u20$proc_macro..TokenStream$GT$7expand13run28_$u7b$$u7b$closure$u7d$$u7d$17habcc0f87c61a24e5E
Ltmp308:
	movl	%eax, -224(%rbp)
	jmp	LBB25_5
LBB25_5:
	.loc	4 0 26
	movl	-224(%rbp), %eax
	.loc	4 375 26
	movl	%eax, -4(%rbp)
	movl	-4(%rbp), %ecx
	movl	%ecx, -128(%rbp)
	.loc	4 375 33
	movb	$1, -33(%rbp)
Ltmp310:
	leaq	-104(%rbp), %rdi
Ltmp323:
	.loc	4 378 17 is_stmt 1
	callq	__ZN10proc_macro6bridge6client44_$LT$impl$u20$proc_macro..bridge..Bridge$GT$4with17hc6b9f34d97374289E
Ltmp311:
	jmp	LBB25_6
LBB25_6:
	.loc	4 378 13 is_stmt 0
	movq	-184(%rbp), %rdi
Ltmp312:
	callq	__ZN4core3ptr13drop_in_place17h66e0dca2dc19b907E
Ltmp313:
	jmp	LBB25_16
Ltmp324:
LBB25_7:
	.loc	4 391 9 is_stmt 1
	testb	$1, -33(%rbp)
	jne	LBB25_17
	jmp	LBB25_14
LBB25_8:
Ltmp325:
	.loc	4 390 25
	movb	$0, -33(%rbp)
	movl	-128(%rbp), %eax
	movl	%eax, -48(%rbp)
	.loc	4 390 13 is_stmt 0
	movl	-48(%rbp), %eax
	movl	%eax, -56(%rbp)
	.loc	4 390 40
	movq	-184(%rbp), %rsi
	.loc	4 390 13
	movl	-56(%rbp), %edi
Ltmp317:
	leaq	-40(%rbp), %rdx
	callq	__ZN94_$LT$core..result..Result$LT$T$C$E$GT$$u20$as$u20$proc_macro..bridge..rpc..Encode$LT$S$GT$$GT$6encode17he722e82376989272E
Ltmp318:
	jmp	LBB25_9
Ltmp326:
LBB25_9:
	.loc	4 391 9 is_stmt 1
	movb	$0, -33(%rbp)
Ltmp327:
	.loc	4 391 9 is_stmt 0
	movb	$0, -34(%rbp)
Ltmp328:
	.loc	4 391 10
	addq	$224, %rsp
	popq	%rbp
	retq
LBB25_10:
	.loc	4 368 22 is_stmt 1
	movq	-32(%rbp), %rdi
	callq	__Unwind_Resume
	ud2
LBB25_11:
	.loc	4 391 9
	movb	$0, -35(%rbp)
	jmp	LBB25_10
LBB25_12:
	testb	$1, -35(%rbp)
	jne	LBB25_11
	jmp	LBB25_10
LBB25_13:
Ltmp329:
	.loc	4 391 9 is_stmt 0
	movb	$0, -34(%rbp)
	leaq	-152(%rbp), %rdi
	callq	__ZN4core3ptr13drop_in_place17h094199eb7fabdd8dE
	jmp	LBB25_12
LBB25_14:
	testb	$1, -34(%rbp)
	jne	LBB25_13
	jmp	LBB25_12
LBB25_15:
Ltmp330:
	.loc	4 378 13 is_stmt 1
	movq	-184(%rbp), %rax
	leaq	-104(%rbp), %rcx
	movq	%rax, %rdi
	movq	%rcx, %rsi
	movl	$40, %edx
	callq	_memcpy
	jmp	LBB25_7
LBB25_16:
	movq	-184(%rbp), %rax
	movq	-72(%rbp), %rcx
	movq	%rcx, 32(%rax)
	movq	-80(%rbp), %rcx
	movq	%rcx, 24(%rax)
	movq	-88(%rbp), %rcx
	movq	%rcx, 16(%rax)
	movq	-104(%rbp), %rcx
	movq	-96(%rbp), %rdx
	movq	%rdx, 8(%rax)
	movq	%rcx, (%rax)
	.loc	4 389 13
	movq	-184(%rbp), %rdi
Ltmp315:
	callq	__ZN10proc_macro6bridge6buffer15Buffer$LT$T$GT$5clear17h4651306e1e072581E
Ltmp316:
	jmp	LBB25_8
Ltmp331:
LBB25_17:
	.loc	4 391 9
	movb	$0, -33(%rbp)
	leaq	-128(%rbp), %rdi
	callq	__ZN4core3ptr13drop_in_place17h094199eb7fabdd8dE
	jmp	LBB25_14
Ltmp332:
LBB25_18:
Ltmp304:
	.loc	4 0 9 is_stmt 0
	movq	%rax, -32(%rbp)
	movl	%edx, -24(%rbp)
	jmp	LBB25_12
LBB25_19:
Ltmp309:
	movq	%rax, -32(%rbp)
	movl	%edx, -24(%rbp)
	jmp	LBB25_14
LBB25_20:
Ltmp319:
	movq	%rax, -32(%rbp)
	movl	%edx, -24(%rbp)
	jmp	LBB25_7
LBB25_21:
Ltmp314:
	movq	%rax, -32(%rbp)
	movl	%edx, -24(%rbp)
	jmp	LBB25_15
Lfunc_end25:
	.cfi_endproc
	.section	__TEXT,__gcc_except_tab
	.p2align	2
GCC_except_table25:
Lexception8:
	.byte	255
	.byte	255
	.byte	1
	.uleb128 Lcst_end8-Lcst_begin8
Lcst_begin8:
	.uleb128 Ltmp298-Lfunc_begin25
	.uleb128 Ltmp303-Ltmp298
	.uleb128 Ltmp304-Lfunc_begin25
	.byte	0
	.uleb128 Ltmp305-Lfunc_begin25
	.uleb128 Ltmp308-Ltmp305
	.uleb128 Ltmp309-Lfunc_begin25
	.byte	0
	.uleb128 Ltmp310-Lfunc_begin25
	.uleb128 Ltmp311-Ltmp310
	.uleb128 Ltmp319-Lfunc_begin25
	.byte	0
	.uleb128 Ltmp312-Lfunc_begin25
	.uleb128 Ltmp313-Ltmp312
	.uleb128 Ltmp314-Lfunc_begin25
	.byte	0
	.uleb128 Ltmp317-Lfunc_begin25
	.uleb128 Ltmp318-Ltmp317
	.uleb128 Ltmp319-Lfunc_begin25
	.byte	0
	.uleb128 Ltmp318-Lfunc_begin25
	.uleb128 Ltmp315-Ltmp318
	.byte	0
	.byte	0
	.uleb128 Ltmp315-Lfunc_begin25
	.uleb128 Ltmp316-Ltmp315
	.uleb128 Ltmp319-Lfunc_begin25
	.byte	0
	.uleb128 Ltmp316-Lfunc_begin25
	.uleb128 Lfunc_end25-Ltmp316
	.byte	0
	.byte	0
Lcst_end8:
	.p2align	2

	.section	__TEXT,__text,regular,pure_instructions
	.p2align	4, 0x90
__ZN10proc_macro6bridge6client10run_client28_$u7b$$u7b$closure$u7d$$u7d$28_$u7b$$u7b$closure$u7d$$u7d$28_$u7b$$u7b$closure$u7d$$u7d$17h6b18283e1ed29ec2E:
Lfunc_begin26:
	.loc	4 373 0 is_stmt 1
	.cfi_startproc
	.cfi_personality 155, _rust_eh_personality
	.cfi_lsda 16, Lexception9
	pushq	%rbp
	.cfi_def_cfa_offset 16
	.cfi_offset %rbp, -16
	movq	%rsp, %rbp
	.cfi_def_cfa_register %rbp
	subq	$96, %rsp
	movq	%rdi, -32(%rbp)
	movq	%rsi, -24(%rbp)
Ltmp336:
	.loc	4 373 58 prologue_end
	leaq	-72(%rbp), %rax
	movq	%rdi, -80(%rbp)
	movq	%rax, %rdi
	movq	-80(%rbp), %rax
	movq	%rsi, -88(%rbp)
	movq	%rax, %rsi
	callq	__ZN10proc_macro6bridge6buffer15Buffer$LT$T$GT$4take17hfca616e49fea3a3eE
Ltmp333:
	.loc	4 0 58 is_stmt 0
	movq	-88(%rbp), %rdi
	.loc	4 373 35
	callq	__ZN4core3ptr13drop_in_place17h66e0dca2dc19b907E
Ltmp334:
	jmp	LBB26_3
LBB26_2:
	movq	-40(%rbp), %rax
	movq	-88(%rbp), %rcx
	movq	%rax, 32(%rcx)
	movq	-48(%rbp), %rax
	movq	%rax, 24(%rcx)
	movq	-56(%rbp), %rax
	movq	%rax, 16(%rcx)
	movq	-72(%rbp), %rax
	movq	-64(%rbp), %rdx
	movq	%rdx, 8(%rcx)
	movq	%rax, (%rcx)
	.loc	4 373 26
	movq	-16(%rbp), %rdi
	callq	__Unwind_Resume
	ud2
LBB26_3:
	.loc	4 0 26
	movq	-88(%rbp), %rax
	.loc	4 373 35
	leaq	-72(%rbp), %rcx
	movq	%rax, %rdi
	movq	%rcx, %rsi
	movl	$40, %edx
	callq	_memcpy
	.loc	4 373 66
	addq	$96, %rsp
	popq	%rbp
	retq
Ltmp337:
LBB26_4:
Ltmp335:
	.loc	4 0 66
	movq	%rax, -16(%rbp)
	movl	%edx, -8(%rbp)
	jmp	LBB26_2
Lfunc_end26:
	.cfi_endproc
	.section	__TEXT,__gcc_except_tab
	.p2align	2
GCC_except_table26:
Lexception9:
	.byte	255
	.byte	255
	.byte	1
	.uleb128 Lcst_end9-Lcst_begin9
Lcst_begin9:
	.uleb128 Lfunc_begin26-Lfunc_begin26
	.uleb128 Ltmp333-Lfunc_begin26
	.byte	0
	.byte	0
	.uleb128 Ltmp333-Lfunc_begin26
	.uleb128 Ltmp334-Ltmp333
	.uleb128 Ltmp335-Lfunc_begin26
	.byte	0
	.uleb128 Ltmp334-Lfunc_begin26
	.uleb128 Lfunc_end26-Ltmp334
	.byte	0
	.byte	0
Lcst_end9:
	.p2align	2

	.section	__TEXT,__text,regular,pure_instructions
	.p2align	4, 0x90
__ZN10proc_macro6bridge6client10run_client28_$u7b$$u7b$closure$u7d$$u7d$28_$u7b$$u7b$closure$u7d$$u7d$28_$u7b$$u7b$closure$u7d$$u7d$17he939be81b99c7e63E:
Lfunc_begin27:
	.loc	4 378 0 is_stmt 1
	.cfi_startproc
	pushq	%rbp
	.cfi_def_cfa_offset 16
	.cfi_offset %rbp, -16
	movq	%rsp, %rbp
	.cfi_def_cfa_register %rbp
	subq	$32, %rsp
	movq	%rdi, %rax
	movq	%rsi, -8(%rbp)
	movq	%rax, -24(%rbp)
Ltmp338:
	.loc	4 378 39 prologue_end
	callq	__ZN10proc_macro6bridge6buffer15Buffer$LT$T$GT$4take17hfca616e49fea3a3eE
	.loc	4 0 39 is_stmt 0
	movq	-24(%rbp), %rax
	.loc	4 378 66
	addq	$32, %rsp
	popq	%rbp
	retq
Ltmp339:
Lfunc_end27:
	.cfi_endproc

	.p2align	4, 0x90
__ZN10proc_macro6bridge6client11BridgeState4with17h1af99994446da039E:
Lfunc_begin28:
	.loc	4 288 0 is_stmt 1
	.cfi_startproc
	pushq	%rbp
	.cfi_def_cfa_offset 16
	.cfi_offset %rbp, -16
	movq	%rsp, %rbp
	.cfi_def_cfa_register %rbp
	subq	$16, %rsp
	movq	%rdi, -8(%rbp)
Ltmp340:
	.loc	4 289 9 prologue_end
	movq	l___unnamed_8(%rip), %rax
	.loc	4 289 27 is_stmt 0
	movq	%rdi, -16(%rbp)
	.loc	4 289 9
	movq	-16(%rbp), %rsi
	movq	%rax, %rdi
	callq	__ZN3std6thread5local17LocalKey$LT$T$GT$4with17h30542e08773becebE
	.loc	4 295 6 is_stmt 1
	addq	$16, %rsp
	popq	%rbp
	retq
Ltmp341:
Lfunc_end28:
	.cfi_endproc

	.p2align	4, 0x90
__ZN10proc_macro6bridge6client11BridgeState4with17h97233d4c87245a11E:
Lfunc_begin29:
	.loc	4 288 0
	.cfi_startproc
	pushq	%rbp
	.cfi_def_cfa_offset 16
	.cfi_offset %rbp, -16
	movq	%rsp, %rbp
	.cfi_def_cfa_register %rbp
	subq	$32, %rsp
Ltmp342:
	.loc	4 289 9 prologue_end
	movq	l___unnamed_8(%rip), %rdi
	callq	__ZN3std6thread5local17LocalKey$LT$T$GT$4with17hbb60dfb8cf978489E
	movb	%al, -17(%rbp)
	.loc	4 0 9 is_stmt 0
	movb	-17(%rbp), %al
	.loc	4 295 6 is_stmt 1
	andb	$1, %al
	movzbl	%al, %eax
	addq	$32, %rsp
	popq	%rbp
	retq
Ltmp343:
Lfunc_end29:
	.cfi_endproc

	.p2align	4, 0x90
__ZN10proc_macro6bridge6client11BridgeState4with17he871b25cfb7ba4e5E:
Lfunc_begin30:
	.loc	4 288 0
	.cfi_startproc
	pushq	%rbp
	.cfi_def_cfa_offset 16
	.cfi_offset %rbp, -16
	movq	%rsp, %rbp
	.cfi_def_cfa_register %rbp
	subq	$32, %rsp
	movq	%rdi, %rax
Ltmp344:
	.loc	4 289 9 prologue_end
	movq	l___unnamed_8(%rip), %rsi
	movq	%rax, -24(%rbp)
	callq	__ZN3std6thread5local17LocalKey$LT$T$GT$4with17h954dc7cbc31ef7ecE
	.loc	4 0 9 is_stmt 0
	movq	-24(%rbp), %rax
	.loc	4 295 6 is_stmt 1
	addq	$32, %rsp
	popq	%rbp
	retq
Ltmp345:
Lfunc_end30:
	.cfi_endproc

	.p2align	4, 0x90
__ZN10proc_macro6bridge6client11BridgeState4with28_$u7b$$u7b$closure$u7d$$u7d$17h2d4262895442b1dbE:
Lfunc_begin31:
	.loc	4 289 0
	.cfi_startproc
	pushq	%rbp
	.cfi_def_cfa_offset 16
	.cfi_offset %rbp, -16
	movq	%rsp, %rbp
	.cfi_def_cfa_register %rbp
	subq	$96, %rsp
	movq	%rdi, -8(%rbp)
Ltmp346:
	.loc	4 290 27 prologue_end
	movq	$2, -88(%rbp)
	.loc	4 290 13 is_stmt 0
	leaq	-88(%rbp), %rsi
	callq	__ZN10proc_macro6bridge11scoped_cell19ScopedCell$LT$T$GT$7replace17he7c66f23d5d78cc0E
	movb	%al, -89(%rbp)
	.loc	4 0 13
	movb	-89(%rbp), %al
	.loc	4 294 10 is_stmt 1
	andb	$1, %al
	movzbl	%al, %eax
	addq	$96, %rsp
	popq	%rbp
	retq
Ltmp347:
Lfunc_end31:
	.cfi_endproc

	.p2align	4, 0x90
__ZN10proc_macro6bridge6client11BridgeState4with28_$u7b$$u7b$closure$u7d$$u7d$17h94eb01a8b5cad5f6E:
Lfunc_begin32:
	.loc	4 289 0
	.cfi_startproc
	pushq	%rbp
	.cfi_def_cfa_offset 16
	.cfi_offset %rbp, -16
	movq	%rsp, %rbp
	.cfi_def_cfa_register %rbp
	subq	$96, %rsp
	movq	%rdi, -16(%rbp)
	movq	%rsi, -8(%rbp)
Ltmp348:
	.loc	4 290 27 prologue_end
	movq	$2, -88(%rbp)
	.loc	4 290 47 is_stmt 0
	movq	%rdi, -24(%rbp)
	.loc	4 290 13
	movq	-24(%rbp), %rdx
	movq	%rsi, %rdi
	leaq	-88(%rbp), %rsi
	callq	__ZN10proc_macro6bridge11scoped_cell19ScopedCell$LT$T$GT$7replace17h5fc46e8811cf48e8E
	.loc	4 294 10 is_stmt 1
	addq	$96, %rsp
	popq	%rbp
	retq
Ltmp349:
Lfunc_end32:
	.cfi_endproc

	.p2align	4, 0x90
__ZN10proc_macro6bridge6client11BridgeState4with28_$u7b$$u7b$closure$u7d$$u7d$17hf52e13012f8f5115E:
Lfunc_begin33:
	.loc	4 289 0
	.cfi_startproc
	pushq	%rbp
	.cfi_def_cfa_offset 16
	.cfi_offset %rbp, -16
	movq	%rsp, %rbp
	.cfi_def_cfa_register %rbp
	subq	$96, %rsp
	movq	%rdi, %rax
	movq	%rsi, -8(%rbp)
Ltmp350:
	.loc	4 290 27 prologue_end
	movq	$2, -88(%rbp)
	.loc	4 290 13 is_stmt 0
	leaq	-88(%rbp), %rdx
	movq	%rax, -96(%rbp)
	callq	__ZN10proc_macro6bridge11scoped_cell19ScopedCell$LT$T$GT$7replace17h04a7f13422be0e15E
	.loc	4 0 13
	movq	-96(%rbp), %rax
	.loc	4 294 10 is_stmt 1
	addq	$96, %rsp
	popq	%rbp
	retq
Ltmp351:
Lfunc_end33:
	.cfi_endproc

	.p2align	4, 0x90
__ZN10proc_macro6bridge6client11BridgeState4with28_$u7b$$u7b$closure$u7d$$u7d$28_$u7b$$u7b$closure$u7d$$u7d$17h557ea42fe2084cd4E:
Lfunc_begin34:
	.loc	4 290 0
	.cfi_startproc
	.cfi_personality 155, _rust_eh_personality
	.cfi_lsda 16, Lexception10
	pushq	%rbp
	.cfi_def_cfa_offset 16
	.cfi_offset %rbp, -16
	movq	%rsp, %rbp
	.cfi_def_cfa_register %rbp
	subq	$80, %rsp
	movq	%rdi, %rax
	movq	%rsi, -48(%rbp)
Ltmp357:
	.loc	4 292 17 prologue_end
	movb	$0, -25(%rbp)
	movb	$1, -25(%rbp)
Ltmp352:
	leaq	-48(%rbp), %rcx
	movq	%rdi, -56(%rbp)
	.loc	4 292 24 is_stmt 0
	movq	%rcx, %rdi
	movq	%rax, -64(%rbp)
	callq	__ZN96_$LT$proc_macro..bridge..scoped_cell..RefMutL$LT$T$GT$$u20$as$u20$core..ops..deref..DerefMut$GT$9deref_mut17h324ade83e8049765E
Ltmp353:
	movq	%rax, -72(%rbp)
	jmp	LBB34_1
LBB34_1:
	.loc	4 0 24
	movq	-72(%rbp), %rax
	.loc	4 292 17
	movq	%rax, -40(%rbp)
	movb	$0, -25(%rbp)
	movq	-40(%rbp), %rsi
Ltmp354:
	movq	-56(%rbp), %rdi
	callq	__ZN10proc_macro6bridge6client44_$LT$impl$u20$proc_macro..bridge..Bridge$GT$4with28_$u7b$$u7b$closure$u7d$$u7d$17hd6832c5d2e33d08aE
Ltmp355:
	jmp	LBB34_3
LBB34_2:
	.loc	4 290 47 is_stmt 1
	movq	-16(%rbp), %rdi
	callq	__Unwind_Resume
	ud2
LBB34_3:
	.loc	4 292 30
	movb	$0, -25(%rbp)
	movq	-64(%rbp), %rax
	.loc	4 293 14
	addq	$80, %rsp
	popq	%rbp
	retq
LBB34_4:
	.loc	4 292 30
	movb	$0, -25(%rbp)
	jmp	LBB34_2
LBB34_5:
	testb	$1, -25(%rbp)
	jne	LBB34_4
	jmp	LBB34_2
Ltmp358:
LBB34_6:
Ltmp356:
	.loc	4 0 30 is_stmt 0
	movq	%rax, -16(%rbp)
	movl	%edx, -8(%rbp)
	jmp	LBB34_5
Lfunc_end34:
	.cfi_endproc
	.section	__TEXT,__gcc_except_tab
	.p2align	2
GCC_except_table34:
Lexception10:
	.byte	255
	.byte	255
	.byte	1
	.uleb128 Lcst_end10-Lcst_begin10
Lcst_begin10:
	.uleb128 Ltmp352-Lfunc_begin34
	.uleb128 Ltmp355-Ltmp352
	.uleb128 Ltmp356-Lfunc_begin34
	.byte	0
	.uleb128 Ltmp355-Lfunc_begin34
	.uleb128 Lfunc_end34-Ltmp355
	.byte	0
	.byte	0
Lcst_end10:
	.p2align	2

	.section	__TEXT,__text,regular,pure_instructions
	.p2align	4, 0x90
__ZN10proc_macro6bridge6client11BridgeState4with28_$u7b$$u7b$closure$u7d$$u7d$28_$u7b$$u7b$closure$u7d$$u7d$17h62b4dda95f4c5489E:
Lfunc_begin35:
	.loc	4 290 0 is_stmt 1
	.cfi_startproc
	.cfi_personality 155, _rust_eh_personality
	.cfi_lsda 16, Lexception11
	pushq	%rbp
	.cfi_def_cfa_offset 16
	.cfi_offset %rbp, -16
	movq	%rsp, %rbp
	.cfi_def_cfa_register %rbp
	subq	$64, %rsp
	movq	%rdi, -48(%rbp)
Ltmp364:
	.loc	4 292 17 prologue_end
	movb	$0, -25(%rbp)
	movb	$1, -25(%rbp)
Ltmp359:
	leaq	-48(%rbp), %rdi
	.loc	4 292 24 is_stmt 0
	callq	__ZN96_$LT$proc_macro..bridge..scoped_cell..RefMutL$LT$T$GT$$u20$as$u20$core..ops..deref..DerefMut$GT$9deref_mut17h324ade83e8049765E
Ltmp360:
	movq	%rax, -56(%rbp)
	jmp	LBB35_1
LBB35_1:
	.loc	4 0 24
	movq	-56(%rbp), %rax
	.loc	4 292 17
	movq	%rax, -40(%rbp)
	movb	$0, -25(%rbp)
	movq	-40(%rbp), %rdi
Ltmp361:
	callq	__ZN10proc_macro6bridge6client44_$LT$impl$u20$proc_macro..bridge..Bridge$GT$5enter28_$u7b$$u7b$closure$u7d$$u7d$28_$u7b$$u7b$closure$u7d$$u7d$28_$u7b$$u7b$closure$u7d$$u7d$17h0c6b329822d7755bE
Ltmp362:
	movb	%al, -57(%rbp)
	jmp	LBB35_3
LBB35_2:
	.loc	4 290 47 is_stmt 1
	movq	-16(%rbp), %rdi
	callq	__Unwind_Resume
	ud2
LBB35_3:
	.loc	4 292 30
	movb	$0, -25(%rbp)
	movb	-57(%rbp), %al
	.loc	4 293 14
	andb	$1, %al
	movzbl	%al, %eax
	addq	$64, %rsp
	popq	%rbp
	retq
LBB35_4:
	.loc	4 292 30
	movb	$0, -25(%rbp)
	jmp	LBB35_2
LBB35_5:
	testb	$1, -25(%rbp)
	jne	LBB35_4
	jmp	LBB35_2
Ltmp365:
LBB35_6:
Ltmp363:
	.loc	4 0 30 is_stmt 0
	movq	%rax, -16(%rbp)
	movl	%edx, -8(%rbp)
	jmp	LBB35_5
Lfunc_end35:
	.cfi_endproc
	.section	__TEXT,__gcc_except_tab
	.p2align	2
GCC_except_table35:
Lexception11:
	.byte	255
	.byte	255
	.byte	1
	.uleb128 Lcst_end11-Lcst_begin11
Lcst_begin11:
	.uleb128 Ltmp359-Lfunc_begin35
	.uleb128 Ltmp362-Ltmp359
	.uleb128 Ltmp363-Lfunc_begin35
	.byte	0
	.uleb128 Ltmp362-Lfunc_begin35
	.uleb128 Lfunc_end35-Ltmp362
	.byte	0
	.byte	0
Lcst_end11:
	.p2align	2

	.section	__TEXT,__text,regular,pure_instructions
	.p2align	4, 0x90
__ZN10proc_macro6bridge6client11BridgeState4with28_$u7b$$u7b$closure$u7d$$u7d$28_$u7b$$u7b$closure$u7d$$u7d$17h9c8416bbcbe44d26E:
Lfunc_begin36:
	.loc	4 290 0 is_stmt 1
	.cfi_startproc
	.cfi_personality 155, _rust_eh_personality
	.cfi_lsda 16, Lexception12
	pushq	%rbp
	.cfi_def_cfa_offset 16
	.cfi_offset %rbp, -16
	movq	%rsp, %rbp
	.cfi_def_cfa_register %rbp
	subq	$64, %rsp
	movq	%rsi, -48(%rbp)
	movq	%rdi, -24(%rbp)
Ltmp371:
	.loc	4 292 17 prologue_end
	movb	$0, -25(%rbp)
	movb	$1, -25(%rbp)
Ltmp366:
	leaq	-48(%rbp), %rax
	movq	%rdi, -56(%rbp)
	.loc	4 292 24 is_stmt 0
	movq	%rax, %rdi
	callq	__ZN96_$LT$proc_macro..bridge..scoped_cell..RefMutL$LT$T$GT$$u20$as$u20$core..ops..deref..DerefMut$GT$9deref_mut17h324ade83e8049765E
Ltmp367:
	movq	%rax, -64(%rbp)
	jmp	LBB36_1
LBB36_1:
	.loc	4 0 24
	movq	-64(%rbp), %rax
	.loc	4 292 17
	movq	%rax, -40(%rbp)
	movb	$0, -25(%rbp)
	movq	-40(%rbp), %rsi
Ltmp368:
	movq	-56(%rbp), %rdi
	callq	__ZN10proc_macro6bridge6client44_$LT$impl$u20$proc_macro..bridge..Bridge$GT$4with28_$u7b$$u7b$closure$u7d$$u7d$17hb1003bca795ab561E
Ltmp369:
	jmp	LBB36_3
LBB36_2:
	.loc	4 290 47 is_stmt 1
	movq	-16(%rbp), %rdi
	callq	__Unwind_Resume
	ud2
LBB36_3:
	.loc	4 292 30
	movb	$0, -25(%rbp)
	.loc	4 293 14
	addq	$64, %rsp
	popq	%rbp
	retq
LBB36_4:
	.loc	4 292 30
	movb	$0, -25(%rbp)
	jmp	LBB36_2
LBB36_5:
	testb	$1, -25(%rbp)
	jne	LBB36_4
	jmp	LBB36_2
Ltmp372:
LBB36_6:
Ltmp370:
	.loc	4 0 30 is_stmt 0
	movq	%rax, -16(%rbp)
	movl	%edx, -8(%rbp)
	jmp	LBB36_5
Lfunc_end36:
	.cfi_endproc
	.section	__TEXT,__gcc_except_tab
	.p2align	2
GCC_except_table36:
Lexception12:
	.byte	255
	.byte	255
	.byte	1
	.uleb128 Lcst_end12-Lcst_begin12
Lcst_begin12:
	.uleb128 Ltmp366-Lfunc_begin36
	.uleb128 Ltmp369-Ltmp366
	.uleb128 Ltmp370-Lfunc_begin36
	.byte	0
	.uleb128 Ltmp369-Lfunc_begin36
	.uleb128 Lfunc_end36-Ltmp369
	.byte	0
	.byte	0
Lcst_end12:
	.p2align	2

	.section	__TEXT,__text,regular,pure_instructions
	.p2align	4, 0x90
__ZN10proc_macro6bridge6client44_$LT$impl$u20$proc_macro..bridge..Bridge$GT$4with17hb085c8c98a7fa8f2E:
Lfunc_begin37:
	.loc	4 326 0 is_stmt 1
	.cfi_startproc
	pushq	%rbp
	.cfi_def_cfa_offset 16
	.cfi_offset %rbp, -16
	movq	%rsp, %rbp
	.cfi_def_cfa_register %rbp
	subq	$16, %rsp
	movq	%rdi, -8(%rbp)
Ltmp373:
	.loc	4 327 27 prologue_end
	movq	%rdi, -16(%rbp)
	.loc	4 327 9 is_stmt 0
	movq	-16(%rbp), %rdi
	callq	__ZN10proc_macro6bridge6client11BridgeState4with17h1af99994446da039E
	.loc	4 336 6 is_stmt 1
	addq	$16, %rsp
	popq	%rbp
	retq
Ltmp374:
Lfunc_end37:
	.cfi_endproc

	.p2align	4, 0x90
__ZN10proc_macro6bridge6client44_$LT$impl$u20$proc_macro..bridge..Bridge$GT$4with17hc6b9f34d97374289E:
Lfunc_begin38:
	.loc	4 326 0
	.cfi_startproc
	pushq	%rbp
	.cfi_def_cfa_offset 16
	.cfi_offset %rbp, -16
	movq	%rsp, %rbp
	.cfi_def_cfa_register %rbp
	subq	$32, %rsp
	movq	%rdi, %rax
	movq	%rax, -24(%rbp)
Ltmp375:
	.loc	4 327 9 prologue_end
	callq	__ZN10proc_macro6bridge6client11BridgeState4with17he871b25cfb7ba4e5E
	.loc	4 0 9 is_stmt 0
	movq	-24(%rbp), %rax
	.loc	4 336 6 is_stmt 1
	addq	$32, %rsp
	popq	%rbp
	retq
Ltmp376:
Lfunc_end38:
	.cfi_endproc

	.p2align	4, 0x90
__ZN10proc_macro6bridge6client44_$LT$impl$u20$proc_macro..bridge..Bridge$GT$4with28_$u7b$$u7b$closure$u7d$$u7d$17hb1003bca795ab561E:
Lfunc_begin39:
	.loc	4 327 0
	.cfi_startproc
	.cfi_personality 155, _rust_eh_personality
	.cfi_lsda 16, Lexception13
	pushq	%rbp
	.cfi_def_cfa_offset 16
	.cfi_offset %rbp, -16
	movq	%rsp, %rbp
	.cfi_def_cfa_register %rbp
	subq	$80, %rsp
	movq	%rdi, -56(%rbp)
	movq	%rsi, -32(%rbp)
Ltmp384:
	.loc	4 328 13 prologue_end
	movb	$0, -33(%rbp)
	movb	$1, -33(%rbp)
	movq	(%rsi), %rax
	testq	%rax, %rax
	movq	%rsi, -64(%rbp)
	movq	%rax, -72(%rbp)
	je	LBB39_3
	jmp	LBB39_11
LBB39_11:
	.loc	4 0 13 is_stmt 0
	movq	-72(%rbp), %rax
	.loc	4 328 13
	subq	$1, %rax
	je	LBB39_1
	jmp	LBB39_12
LBB39_12:
	jmp	LBB39_4
LBB39_1:
	.loc	4 0 13
	movq	-64(%rbp), %rax
	.loc	4 334 36 is_stmt 1
	addq	$8, %rax
	movq	%rax, -8(%rbp)
Ltmp385:
	.loc	4 334 47 is_stmt 0
	movb	$0, -33(%rbp)
	movq	-56(%rbp), %rdi
	movq	%rax, -48(%rbp)
	movq	-48(%rbp), %rsi
Ltmp379:
	callq	__ZN10proc_macro6bridge6client10run_client28_$u7b$$u7b$closure$u7d$$u7d$28_$u7b$$u7b$closure$u7d$$u7d$28_$u7b$$u7b$closure$u7d$$u7d$17h6b18283e1ed29ec2E
Ltmp380:
	jmp	LBB39_5
Ltmp386:
	.loc	4 327 41 is_stmt 1
	ud2
LBB39_3:
Ltmp381:
	.file	10 "/rustc/6c8927b0cf80ceee19386026cf9d7fd4fd9d486f/src/libstd/macros.rs"
	.loc	10 13 23
	leaq	l___unnamed_9(%rip), %rdi
	leaq	l___unnamed_10(%rip), %rdx
	movl	$58, %esi
	callq	__ZN3std9panicking11begin_panic17h84d2766b158585edE
Ltmp382:
	jmp	LBB39_9
LBB39_4:
Ltmp377:
	leaq	l___unnamed_11(%rip), %rdi
	leaq	l___unnamed_10(%rip), %rdx
	movl	$54, %esi
	callq	__ZN3std9panicking11begin_panic17h84d2766b158585edE
Ltmp378:
	jmp	LBB39_9
LBB39_5:
	.loc	4 335 10
	addq	$80, %rsp
	popq	%rbp
	retq
LBB39_6:
	.loc	4 327 27
	movq	-24(%rbp), %rdi
	callq	__Unwind_Resume
	ud2
LBB39_7:
	.loc	4 335 9
	movb	$0, -33(%rbp)
	jmp	LBB39_6
LBB39_8:
	testb	$1, -33(%rbp)
	jne	LBB39_7
	jmp	LBB39_6
Ltmp387:
LBB39_9:
	.loc	4 0 9 is_stmt 0
	ud2
LBB39_10:
Ltmp383:
	movq	%rax, -24(%rbp)
	movl	%edx, -16(%rbp)
	jmp	LBB39_8
Lfunc_end39:
	.cfi_endproc
	.section	__TEXT,__gcc_except_tab
	.p2align	2
GCC_except_table39:
Lexception13:
	.byte	255
	.byte	255
	.byte	1
	.uleb128 Lcst_end13-Lcst_begin13
Lcst_begin13:
	.uleb128 Ltmp379-Lfunc_begin39
	.uleb128 Ltmp378-Ltmp379
	.uleb128 Ltmp383-Lfunc_begin39
	.byte	0
	.uleb128 Ltmp378-Lfunc_begin39
	.uleb128 Lfunc_end39-Ltmp378
	.byte	0
	.byte	0
Lcst_end13:
	.p2align	2

	.section	__TEXT,__text,regular,pure_instructions
	.p2align	4, 0x90
__ZN10proc_macro6bridge6client44_$LT$impl$u20$proc_macro..bridge..Bridge$GT$4with28_$u7b$$u7b$closure$u7d$$u7d$17hd6832c5d2e33d08aE:
Lfunc_begin40:
	.loc	4 327 0 is_stmt 1
	.cfi_startproc
	.cfi_personality 155, _rust_eh_personality
	.cfi_lsda 16, Lexception14
	pushq	%rbp
	.cfi_def_cfa_offset 16
	.cfi_offset %rbp, -16
	movq	%rsp, %rbp
	.cfi_def_cfa_register %rbp
	subq	$96, %rsp
	movq	%rdi, %rax
	movq	%rsi, -32(%rbp)
Ltmp395:
	.loc	4 328 13 prologue_end
	movb	$0, -33(%rbp)
	movb	$1, -33(%rbp)
	movq	(%rsi), %rcx
	testq	%rcx, %rcx
	movq	%rsi, -64(%rbp)
	movq	%rdi, -72(%rbp)
	movq	%rax, -80(%rbp)
	movq	%rcx, -88(%rbp)
	je	LBB40_3
	jmp	LBB40_11
LBB40_11:
	.loc	4 0 13 is_stmt 0
	movq	-88(%rbp), %rax
	.loc	4 328 13
	subq	$1, %rax
	je	LBB40_1
	jmp	LBB40_12
LBB40_12:
	jmp	LBB40_4
LBB40_1:
	.loc	4 0 13
	movq	-64(%rbp), %rax
	.loc	4 334 36 is_stmt 1
	addq	$8, %rax
	movq	%rax, -8(%rbp)
Ltmp396:
	.loc	4 334 47 is_stmt 0
	movb	$0, -33(%rbp)
	movq	%rax, -48(%rbp)
	movq	-48(%rbp), %rsi
Ltmp390:
	movq	-72(%rbp), %rdi
	callq	__ZN10proc_macro6bridge6client10run_client28_$u7b$$u7b$closure$u7d$$u7d$28_$u7b$$u7b$closure$u7d$$u7d$28_$u7b$$u7b$closure$u7d$$u7d$17he939be81b99c7e63E
Ltmp391:
	jmp	LBB40_5
Ltmp397:
	.loc	4 327 41 is_stmt 1
	ud2
LBB40_3:
Ltmp392:
	.loc	10 13 23
	leaq	l___unnamed_9(%rip), %rdi
	leaq	l___unnamed_10(%rip), %rdx
	movl	$58, %esi
	callq	__ZN3std9panicking11begin_panic17h84d2766b158585edE
Ltmp393:
	jmp	LBB40_9
LBB40_4:
Ltmp388:
	leaq	l___unnamed_11(%rip), %rdi
	leaq	l___unnamed_10(%rip), %rdx
	movl	$54, %esi
	callq	__ZN3std9panicking11begin_panic17h84d2766b158585edE
Ltmp389:
	jmp	LBB40_9
LBB40_5:
	.loc	10 0 23 is_stmt 0
	movq	-80(%rbp), %rax
	.loc	4 335 10 is_stmt 1
	addq	$96, %rsp
	popq	%rbp
	retq
LBB40_6:
	.loc	4 327 27
	movq	-24(%rbp), %rdi
	callq	__Unwind_Resume
	ud2
LBB40_7:
	.loc	4 335 9
	movb	$0, -33(%rbp)
	jmp	LBB40_6
LBB40_8:
	testb	$1, -33(%rbp)
	jne	LBB40_7
	jmp	LBB40_6
Ltmp398:
LBB40_9:
	.loc	4 0 9 is_stmt 0
	ud2
LBB40_10:
Ltmp394:
	movq	%rax, -24(%rbp)
	movl	%edx, -16(%rbp)
	jmp	LBB40_8
Lfunc_end40:
	.cfi_endproc
	.section	__TEXT,__gcc_except_tab
	.p2align	2
GCC_except_table40:
Lexception14:
	.byte	255
	.byte	255
	.byte	1
	.uleb128 Lcst_end14-Lcst_begin14
Lcst_begin14:
	.uleb128 Ltmp390-Lfunc_begin40
	.uleb128 Ltmp389-Ltmp390
	.uleb128 Ltmp394-Lfunc_begin40
	.byte	0
	.uleb128 Ltmp389-Lfunc_begin40
	.uleb128 Lfunc_end40-Ltmp389
	.byte	0
	.byte	0
Lcst_end14:
	.p2align	2

	.section	__TEXT,__text,regular,pure_instructions
	.p2align	4, 0x90
__ZN10proc_macro6bridge6client44_$LT$impl$u20$proc_macro..bridge..Bridge$GT$5enter17hde3cbcd79418b1cbE:
Lfunc_begin41:
	.loc	4 306 0 is_stmt 1
	.cfi_startproc
	.cfi_personality 155, _rust_eh_personality
	.cfi_lsda 16, Lexception15
	pushq	%rbp
	.cfi_def_cfa_offset 16
	.cfi_offset %rbp, -16
	movq	%rsp, %rbp
	.cfi_def_cfa_register %rbp
	subq	$144, %rsp
	movq	%rsi, -32(%rbp)
	movq	%rdx, -24(%rbp)
Ltmp404:
	.loc	4 310 9 prologue_end
	movb	$0, -34(%rbp)
	movb	$0, -33(%rbp)
	movb	$1, -34(%rbp)
	movb	$1, -33(%rbp)
Ltmp399:
	movq	__ZN10proc_macro6bridge6client44_$LT$impl$u20$proc_macro..bridge..Bridge$GT$5enter28HIDE_PANICS_DURING_EXPANSION17h114a25d5c7e03322E@GOTPCREL(%rip), %rax
	movq	%rdi, -128(%rbp)
Ltmp405:
	movq	%rax, %rdi
	movq	%rsi, -136(%rbp)
	movq	%rdx, -144(%rbp)
	callq	__ZN3std4sync4once4Once9call_once17hac8bbeaa7ceea042E
Ltmp400:
	jmp	LBB41_2
Ltmp406:
LBB41_1:
	.loc	4 306 5
	movq	-16(%rbp), %rdi
	callq	__Unwind_Resume
	ud2
Ltmp407:
LBB41_2:
	.loc	4 323 9
	movq	l___unnamed_8(%rip), %rdi
	.loc	4 323 27 is_stmt 0
	movb	$0, -34(%rbp)
	movb	$0, -33(%rbp)
	movq	-128(%rbp), %rax
	movq	48(%rax), %rcx
	movq	%rcx, -64(%rbp)
	movq	40(%rax), %rcx
	movq	%rcx, -72(%rbp)
	movq	32(%rax), %rcx
	movq	%rcx, -80(%rbp)
	movq	24(%rax), %rcx
	movq	%rcx, -88(%rbp)
	movq	16(%rax), %rcx
	movq	%rcx, -96(%rbp)
	movq	(%rax), %rcx
	movq	8(%rax), %rdx
	movq	%rdx, -104(%rbp)
	movq	%rcx, -112(%rbp)
	movq	-136(%rbp), %rcx
	movq	%rcx, -56(%rbp)
	movq	-144(%rbp), %rdx
	movq	%rdx, -48(%rbp)
Ltmp401:
	leaq	-112(%rbp), %rsi
	.loc	4 323 9
	callq	__ZN3std6thread5local17LocalKey$LT$T$GT$4with17hdc57aab1048f0eb0E
Ltmp402:
	jmp	LBB41_4
Ltmp408:
LBB41_3:
	.loc	4 324 5 is_stmt 1
	testb	$1, -34(%rbp)
	jne	LBB41_5
	jmp	LBB41_1
Ltmp409:
LBB41_4:
	.loc	4 324 6 is_stmt 0
	addq	$144, %rsp
	popq	%rbp
	retq
Ltmp410:
LBB41_5:
	.loc	4 324 5
	movb	$0, -34(%rbp)
	movq	-128(%rbp), %rdi
	callq	__ZN4core3ptr13drop_in_place17hd01d53aa951eb267E
	jmp	LBB41_1
Ltmp411:
LBB41_6:
	movb	$0, -33(%rbp)
	jmp	LBB41_3
Ltmp412:
LBB41_7:
	testb	$1, -33(%rbp)
	jne	LBB41_6
	jmp	LBB41_3
Ltmp413:
LBB41_8:
Ltmp403:
	.loc	4 0 5
	movq	%rax, -16(%rbp)
	movl	%edx, -8(%rbp)
	jmp	LBB41_7
Lfunc_end41:
	.cfi_endproc
	.section	__TEXT,__gcc_except_tab
	.p2align	2
GCC_except_table41:
Lexception15:
	.byte	255
	.byte	255
	.byte	1
	.uleb128 Lcst_end15-Lcst_begin15
Lcst_begin15:
	.uleb128 Ltmp399-Lfunc_begin41
	.uleb128 Ltmp400-Ltmp399
	.uleb128 Ltmp403-Lfunc_begin41
	.byte	0
	.uleb128 Ltmp400-Lfunc_begin41
	.uleb128 Ltmp401-Ltmp400
	.byte	0
	.byte	0
	.uleb128 Ltmp401-Lfunc_begin41
	.uleb128 Ltmp402-Ltmp401
	.uleb128 Ltmp403-Lfunc_begin41
	.byte	0
	.uleb128 Ltmp402-Lfunc_begin41
	.uleb128 Lfunc_end41-Ltmp402
	.byte	0
	.byte	0
Lcst_end15:
	.p2align	2

	.section	__TEXT,__text,regular,pure_instructions
	.p2align	4, 0x90
__ZN10proc_macro6bridge6client44_$LT$impl$u20$proc_macro..bridge..Bridge$GT$5enter28_$u7b$$u7b$closure$u7d$$u7d$17h0707ac364d787039E:
Lfunc_begin42:
	.loc	4 323 0 is_stmt 1
	.cfi_startproc
	pushq	%rbp
	.cfi_def_cfa_offset 16
	.cfi_offset %rbp, -16
	movq	%rsp, %rbp
	.cfi_def_cfa_register %rbp
	subq	$176, %rsp
Ltmp414:
	movq	%rsi, -8(%rbp)
Ltmp415:
	.loc	4 323 68 prologue_end
	movq	%rdi, %rax
	leaq	-64(%rbp), %rcx
	movq	%rcx, %rdx
	movq	%rdi, -136(%rbp)
Ltmp416:
	movq	%rdx, %rdi
	movq	%rsi, -144(%rbp)
	movq	%rax, %rsi
	movl	$56, %eax
	movq	%rax, %rdx
	movq	%rcx, -152(%rbp)
	movq	%rax, -160(%rbp)
	callq	_memcpy
	.loc	4 323 45 is_stmt 0
	leaq	-128(%rbp), %rax
	movq	%rax, %rcx
	addq	$8, %rcx
	movq	-152(%rbp), %rdx
	movq	%rcx, %rdi
	movq	%rdx, %rsi
	movq	-160(%rbp), %rdx
	movq	%rax, -168(%rbp)
	callq	_memcpy
	movq	$1, -128(%rbp)
	movq	-136(%rbp), %rax
	.loc	4 323 75
	movq	56(%rax), %rdx
	movq	64(%rax), %rcx
	movq	-144(%rbp), %rdi
	movq	-168(%rbp), %rsi
	.loc	4 323 35
	callq	__ZN10proc_macro6bridge11scoped_cell19ScopedCell$LT$T$GT$3set17ha7197b8f50bed099E
Ltmp417:
	.loc	4 323 77
	addq	$176, %rsp
	popq	%rbp
	retq
Ltmp418:
Lfunc_end42:
	.cfi_endproc

	.p2align	4, 0x90
__ZN10proc_macro6bridge6client44_$LT$impl$u20$proc_macro..bridge..Bridge$GT$5enter28_$u7b$$u7b$closure$u7d$$u7d$17hc57c3481f34a5c18E:
Lfunc_begin43:
	.loc	4 310 0 is_stmt 1
	.cfi_startproc
	pushq	%rbp
	.cfi_def_cfa_offset 16
	.cfi_offset %rbp, -16
	movq	%rsp, %rbp
	.cfi_def_cfa_register %rbp
	subq	$96, %rsp
Ltmp419:
	.loc	4 311 24 prologue_end
	callq	__ZN3std9panicking9take_hook17h5f80f0f5cf2076fdE
	movq	%rax, -32(%rbp)
	movq	%rdx, -24(%rbp)
	movq	%rax, -64(%rbp)
	movq	%rdx, -72(%rbp)
	.loc	4 0 24 is_stmt 0
	movq	-64(%rbp), %rax
Ltmp420:
	.loc	4 312 38 is_stmt 1
	movq	%rax, -56(%rbp)
	movq	-72(%rbp), %rcx
	movq	%rcx, -48(%rbp)
	.loc	4 312 29 is_stmt 0
	movq	-56(%rbp), %rdx
	movq	-48(%rbp), %rsi
	movq	%rdx, -16(%rbp)
	movq	%rsi, -8(%rbp)
Ltmp421:
	.file	11 "/rustc/6c8927b0cf80ceee19386026cf9d7fd4fd9d486f/src/liballoc/boxed.rs"
	.loc	11 176 9 is_stmt 1
	movl	$16, %edi
	movl	$8, %r8d
	movq	%rsi, -80(%rbp)
	movq	%r8, %rsi
	movq	%rdx, -88(%rbp)
	callq	__ZN5alloc5alloc15exchange_malloc17h7aa1e190740754b7E
	movq	%rax, %rcx
	movq	-88(%rbp), %rdx
	.loc	11 176 13 is_stmt 0
	movq	%rdx, (%rax)
	movq	-80(%rbp), %rsi
	movq	%rsi, 8(%rax)
	movq	%rcx, -96(%rbp)
Ltmp422:
	.loc	11 0 13
	leaq	l___unnamed_1(%rip), %rax
	movq	-96(%rbp), %rcx
	.loc	4 312 13 is_stmt 1
	movq	%rcx, %rdi
	movq	%rax, %rsi
	callq	__ZN3std9panicking8set_hook17h453bdb048a179ea8E
Ltmp423:
	.loc	4 321 10
	addq	$96, %rsp
	popq	%rbp
	retq
Ltmp424:
Lfunc_end43:
	.cfi_endproc

	.p2align	4, 0x90
__ZN10proc_macro6bridge6client44_$LT$impl$u20$proc_macro..bridge..Bridge$GT$5enter28_$u7b$$u7b$closure$u7d$$u7d$28_$u7b$$u7b$closure$u7d$$u7d$17h1274c532f65e206fE:
Lfunc_begin44:
	.loc	4 312 0
	.cfi_startproc
	pushq	%rbp
	.cfi_def_cfa_offset 16
	.cfi_offset %rbp, -16
	movq	%rsp, %rbp
	.cfi_def_cfa_register %rbp
	subq	$80, %rsp
	movq	%rdi, -24(%rbp)
	movq	%rsi, -16(%rbp)
	movq	%rdi, -56(%rbp)
	movq	%rsi, -64(%rbp)
Ltmp425:
	.loc	4 313 28 prologue_end
	callq	__ZN10proc_macro6bridge6client11BridgeState4with17h97233d4c87245a11E
	movb	%al, %cl
	andb	$1, %cl
	movb	%cl, -1(%rbp)
	movb	%al, -65(%rbp)
	.loc	4 0 28 is_stmt 0
	movb	-65(%rbp), %al
Ltmp426:
	.loc	4 317 20 is_stmt 1
	xorb	$-1, %al
	.loc	4 317 17 is_stmt 0
	testb	$1, %al
	jne	LBB44_3
	jmp	LBB44_5
LBB44_3:
	.loc	4 0 17
	movq	-56(%rbp), %rax
	movq	-64(%rbp), %rcx
	.loc	4 318 21 is_stmt 1
	movq	%rcx, -32(%rbp)
	movq	-32(%rbp), %rdx
	movq	%rax, %rdi
	movq	%rdx, %rsi
	callq	__ZN79_$LT$alloc..boxed..Box$LT$F$GT$$u20$as$u20$core..ops..function..Fn$LT$A$GT$$GT$4call17h9a289ef4cad2c516E
	.loc	4 317 17
	jmp	LBB44_5
Ltmp427:
LBB44_5:
	.loc	4 320 14
	addq	$80, %rsp
	popq	%rbp
	retq
Ltmp428:
Lfunc_end44:
	.cfi_endproc

	.p2align	4, 0x90
__ZN10proc_macro6bridge6client44_$LT$impl$u20$proc_macro..bridge..Bridge$GT$5enter28_$u7b$$u7b$closure$u7d$$u7d$28_$u7b$$u7b$closure$u7d$$u7d$28_$u7b$$u7b$closure$u7d$$u7d$17h0c6b329822d7755bE:
Lfunc_begin45:
	.loc	4 313 0
	.cfi_startproc
	pushq	%rbp
	.cfi_def_cfa_offset 16
	.cfi_offset %rbp, -16
	movq	%rsp, %rbp
	.cfi_def_cfa_register %rbp
	subq	$24, %rsp
	movq	%rdi, -8(%rbp)
Ltmp429:
	.loc	4 314 21 prologue_end
	movq	(%rdi), %rax
	testq	%rax, %rax
	je	LBB45_2
	jmp	LBB45_5
LBB45_5:
	jmp	LBB45_3
	.loc	4 313 60
	ud2
LBB45_2:
	.loc	4 314 50
	movb	$0, -17(%rbp)
	.loc	4 313 54
	jmp	LBB45_4
LBB45_3:
	.loc	4 315 71
	movb	$1, -17(%rbp)
LBB45_4:
	.loc	4 316 18
	movb	-17(%rbp), %al
	andb	$1, %al
	movzbl	%al, %eax
	addq	$24, %rsp
	popq	%rbp
	retq
Ltmp430:
Lfunc_end45:
	.cfi_endproc

	.p2align	4, 0x90
__ZN10proc_macro6bridge6client85Client$LT$fn$LP$proc_macro..TokenStream$RP$$u20$.$GT$$u20$proc_macro..TokenStream$GT$7expand13run17h8f33845310ffcfedE:
Lfunc_begin46:
	.loc	4 403 0
	.cfi_startproc
	pushq	%rbp
	.cfi_def_cfa_offset 16
	.cfi_offset %rbp, -16
	movq	%rsp, %rbp
	.cfi_def_cfa_register %rbp
	subq	$112, %rsp
	movq	%rdi, %rax
	leaq	16(%rbp), %rcx
	movq	%rsi, -8(%rbp)
Ltmp431:
	.loc	4 407 24 prologue_end
	leaq	-72(%rbp), %rdx
	movq	%rdx, %r8
	movq	%rdi, -80(%rbp)
	movq	%r8, %rdi
	movq	%rsi, -88(%rbp)
	movq	%rcx, %rsi
	movl	$56, %ecx
	movq	%rdx, -96(%rbp)
	movq	%rcx, %rdx
	movq	%rax, -104(%rbp)
	callq	_memcpy
	movq	-88(%rbp), %rax
	.loc	4 407 32 is_stmt 0
	movq	%rax, -16(%rbp)
	.loc	4 407 13
	movq	-16(%rbp), %rdx
	movq	-80(%rbp), %rdi
	movq	-96(%rbp), %rsi
	callq	__ZN10proc_macro6bridge6client10run_client17h746ceba94bf0b076E
	.loc	4 0 13
	movq	-104(%rbp), %rax
	.loc	4 408 10 is_stmt 1
	addq	$112, %rsp
	popq	%rbp
	retq
Ltmp432:
Lfunc_end46:
	.cfi_endproc

	.p2align	4, 0x90
__ZN10proc_macro6bridge6client85Client$LT$fn$LP$proc_macro..TokenStream$RP$$u20$.$GT$$u20$proc_macro..TokenStream$GT$7expand13run28_$u7b$$u7b$closure$u7d$$u7d$17habcc0f87c61a24e5E:
Lfunc_begin47:
	.loc	4 407 0
	.cfi_startproc
	pushq	%rbp
	.cfi_def_cfa_offset 16
	.cfi_offset %rbp, -16
	movq	%rsp, %rbp
	.cfi_def_cfa_register %rbp
	subq	$64, %rsp
	movl	%esi, -60(%rbp)
	movl	-60(%rbp), %eax
	movl	%eax, -64(%rbp)
	movq	%rdi, -16(%rbp)
Ltmp433:
	.loc	4 407 61 prologue_end
	movl	-64(%rbp), %eax
	movl	%eax, -24(%rbp)
	.loc	4 407 42 is_stmt 0
	movl	-24(%rbp), %eax
	movl	%eax, -32(%rbp)
	.loc	4 407 40
	movl	-32(%rbp), %eax
	movl	%eax, -40(%rbp)
	movl	-40(%rbp), %esi
	callq	__ZN4core3ops8function6FnOnce9call_once17h4de990507601220aE
	movl	%eax, -4(%rbp)
	movl	-4(%rbp), %eax
	movl	%eax, -48(%rbp)
	movl	-48(%rbp), %eax
	movl	%eax, -56(%rbp)
	.loc	4 407 70
	movl	-56(%rbp), %eax
	addq	$64, %rsp
	popq	%rbp
	retq
Ltmp434:
Lfunc_end47:
	.cfi_endproc

	.p2align	4, 0x90
__ZN111_$LT$syn..punctuated..PrivateIter$LT$T$C$P$GT$$u20$as$u20$core..iter..traits..exact_size..ExactSizeIterator$GT$3len17h5905224558264d2cE:
Lfunc_begin48:
	.loc	5 695 0 is_stmt 1
	.cfi_startproc
	pushq	%rbp
	.cfi_def_cfa_offset 16
	.cfi_offset %rbp, -16
	movq	%rsp, %rbp
	.cfi_def_cfa_register %rbp
	subq	$144, %rsp
	movq	%rdi, -72(%rbp)
Ltmp435:
	.loc	5 696 9 prologue_end
	movq	%rdi, %rax
	movq	%rax, -56(%rbp)
Ltmp436:
	.loc	2 3450 21
	movq	(%rdi), %rcx
	movq	%rcx, -48(%rbp)
	movq	%rdi, -80(%rbp)
Ltmp437:
	.loc	2 3451 34
	movq	%rcx, %rdi
	movq	%rax, -88(%rbp)
	movq	%rcx, -96(%rbp)
	callq	__ZN4core3ptr8non_null16NonNull$LT$T$GT$6as_ptr17h7cfd399d0c226738E
	movq	%rax, -16(%rbp)
Ltmp438:
	.loc	3 310 5
	movq	$120, -8(%rbp)
	movq	-8(%rbp), %rax
Ltmp439:
	.loc	2 3451 20
	movq	%rax, -40(%rbp)
Ltmp440:
	.loc	2 3452 12
	cmpq	$0, %rax
	movq	%rax, -104(%rbp)
	.loc	2 3452 9 is_stmt 0
	je	LBB48_2
	.loc	2 0 9
	movq	-88(%rbp), %rax
	.loc	2 3461 47 is_stmt 1
	movq	8(%rax), %rcx
	movq	-96(%rbp), %rdi
	movq	%rcx, -112(%rbp)
	.loc	2 3461 67 is_stmt 0
	callq	__ZN4core3ptr8non_null16NonNull$LT$T$GT$6as_ptr17h7cfd399d0c226738E
	movq	-112(%rbp), %rcx
	.loc	2 3461 33
	subq	%rax, %rcx
	movq	%rcx, -32(%rbp)
	movq	-32(%rbp), %rax
	movq	%rax, -24(%rbp)
Ltmp441:
	.loc	2 3467 22 is_stmt 1
	xorl	%edx, %edx
	movq	-104(%rbp), %rcx
	divq	%rcx
	movq	%rax, -64(%rbp)
Ltmp442:
	.loc	2 3452 9
	jmp	LBB48_3
LBB48_2:
	.loc	2 0 9 is_stmt 0
	movq	-88(%rbp), %rax
	.loc	2 3455 14 is_stmt 1
	movq	8(%rax), %rdi
	movq	-96(%rbp), %rcx
	movq	%rdi, -120(%rbp)
	.loc	2 3455 47 is_stmt 0
	movq	%rcx, %rdi
	callq	__ZN4core3ptr8non_null16NonNull$LT$T$GT$6as_ptr17h7cfd399d0c226738E
	movq	-120(%rbp), %rdi
	.loc	2 3455 13
	movq	%rax, %rsi
	callq	__ZN4core3num23_$LT$impl$u20$usize$GT$12wrapping_sub17h84a565c1dbaf8d10E
	movq	%rax, -64(%rbp)
Ltmp443:
LBB48_3:
	.loc	2 3550 14 is_stmt 1
	movq	-64(%rbp), %rax
	movq	%rax, -128(%rbp)
Ltmp444:
	.loc	2 0 14 is_stmt 0
	movq	-80(%rbp), %rax
	.loc	5 696 28 is_stmt 1
	addq	$16, %rax
	movq	%rax, %rdi
	callq	__ZN4core4iter6traits10exact_size17ExactSizeIterator3len17h2b4b4e0365e11f96E
	movq	%rax, -136(%rbp)
	.loc	5 0 28 is_stmt 0
	movq	-128(%rbp), %rax
	movq	-136(%rbp), %rcx
	.loc	5 696 9
	addq	%rcx, %rax
	setb	%dl
	testb	$1, %dl
	movq	%rax, -144(%rbp)
	jne	LBB48_7
	.loc	5 0 9
	movq	-144(%rbp), %rax
	.loc	5 697 6 is_stmt 1
	addq	$144, %rsp
	popq	%rbp
	retq
LBB48_7:
	.loc	5 696 9
	leaq	_str.0(%rip), %rdi
	leaq	l___unnamed_12(%rip), %rdx
	movl	$28, %esi
	callq	__ZN4core9panicking5panic17h383a6b80ea7021aaE
Ltmp445:
Lfunc_end48:
	.cfi_endproc

	.p2align	4, 0x90
__ZN113_$LT$alloc..string..String$u20$as$u20$core..ops..index..Index$LT$core..ops..range..RangeFrom$LT$usize$GT$$GT$$GT$5index17h6c418df6fb55c4e3E:
Lfunc_begin49:
	.loc	1 2054 0
	.cfi_startproc
	pushq	%rbp
	.cfi_def_cfa_offset 16
	.cfi_offset %rbp, -16
	movq	%rsp, %rbp
	.cfi_def_cfa_register %rbp
	subq	$64, %rsp
	movq	%rdi, -16(%rbp)
	movq	%rsi, -8(%rbp)
	movq	%rsi, -24(%rbp)
Ltmp446:
	.loc	1 2055 10 prologue_end
	movq	%rdx, %rsi
	movq	%rdx, -32(%rbp)
	callq	__ZN100_$LT$alloc..string..String$u20$as$u20$core..ops..index..Index$LT$core..ops..range..RangeFull$GT$$GT$5index17h670a6c8a4b30abfeE
	movq	%rax, -40(%rbp)
	movq	%rdx, -48(%rbp)
	.loc	1 0 10 is_stmt 0
	movq	-40(%rbp), %rdi
	movq	-48(%rbp), %rsi
	movq	-24(%rbp), %rdx
	movq	-32(%rbp), %rcx
	.loc	1 2055 10
	callq	__ZN4core3str6traits66_$LT$impl$u20$core..ops..index..Index$LT$I$GT$$u20$for$u20$str$GT$5index17hb4e5d2663708b7daE
	movq	%rax, -56(%rbp)
	movq	%rdx, -64(%rbp)
	.loc	1 0 10
	movq	-56(%rbp), %rax
	movq	-64(%rbp), %rdx
	.loc	1 2056 6 is_stmt 1
	addq	$64, %rsp
	popq	%rbp
	retq
Ltmp447:
Lfunc_end49:
	.cfi_endproc

	.p2align	4, 0x90
__ZN115_$LT$proc_macro..bridge..buffer..Buffer$LT$T$GT$$u20$as$u20$core..convert..From$LT$alloc..vec..Vec$LT$T$GT$$GT$$GT$4from17extend_from_slice17hdae493028dfbf594E:
Lfunc_begin50:
	.loc	9 134 0
	.cfi_startproc
	.cfi_personality 155, _rust_eh_personality
	.cfi_lsda 16, Lexception16
	pushq	%rbp
	.cfi_def_cfa_offset 16
	.cfi_offset %rbp, -16
	movq	%rsp, %rbp
	.cfi_def_cfa_register %rbp
	subq	$192, %rsp
	movq	%rdi, %rax
	leaq	16(%rbp), %rcx
	movq	%rsi, -128(%rbp)
	movq	%rdx, -120(%rbp)
	movq	-128(%rbp), %rdx
	movq	%rdx, -144(%rbp)
	movq	-120(%rbp), %rdx
	movq	%rdx, -136(%rbp)
Ltmp455:
	.loc	9 135 17 prologue_end
	movb	$0, -17(%rbp)
	.loc	9 135 32 is_stmt 0
	leaq	-88(%rbp), %rdx
	movq	%rdx, %rsi
	movq	%rdi, -152(%rbp)
	movq	%rsi, %rdi
	movq	%rcx, %rsi
	movl	$40, %ecx
	movq	%rdx, -160(%rbp)
	movq	%rcx, %rdx
	movq	%rax, -168(%rbp)
	callq	_memcpy
	.loc	9 135 25
	leaq	-112(%rbp), %rdi
Ltmp456:
	.loc	9 0 25
	movq	-160(%rbp), %rsi
	.loc	9 135 25
	callq	__ZN115_$LT$proc_macro..bridge..buffer..Buffer$LT$T$GT$$u20$as$u20$core..convert..From$LT$alloc..vec..Vec$LT$T$GT$$GT$$GT$4from6to_vec17h68cf047b90cf8c65E
Ltmp457:
	jmp	LBB50_2
LBB50_1:
	.loc	9 134 9 is_stmt 1
	movq	-16(%rbp), %rdi
	callq	__Unwind_Resume
	ud2
LBB50_2:
	.loc	9 135 33
	movb	$1, -17(%rbp)
Ltmp448:
	leaq	-144(%rbp), %rdi
Ltmp458:
	.loc	9 136 33
	callq	__ZN86_$LT$proc_macro..bridge..buffer..Slice$LT$T$GT$$u20$as$u20$core..ops..deref..Deref$GT$5deref17hddf1a59ab9f819f3E
Ltmp449:
	movq	%rdx, -176(%rbp)
	movq	%rax, -184(%rbp)
	jmp	LBB50_3
LBB50_3:
Ltmp450:
	.loc	9 0 33 is_stmt 0
	leaq	-112(%rbp), %rdi
	movq	-184(%rbp), %rsi
	movq	-176(%rbp), %rdx
	.loc	9 136 13
	callq	__ZN5alloc3vec12Vec$LT$T$GT$17extend_from_slice17h016fe09c67cb8daaE
Ltmp451:
	jmp	LBB50_4
LBB50_4:
	.loc	9 137 26 is_stmt 1
	movb	$0, -17(%rbp)
	movq	-96(%rbp), %rax
	movq	%rax, -32(%rbp)
	movq	-112(%rbp), %rax
	movq	-104(%rbp), %rcx
	movq	%rcx, -40(%rbp)
	movq	%rax, -48(%rbp)
Ltmp452:
	leaq	-48(%rbp), %rsi
	movq	-152(%rbp), %rdi
	.loc	9 137 13 is_stmt 0
	callq	__ZN115_$LT$proc_macro..bridge..buffer..Buffer$LT$T$GT$$u20$as$u20$core..convert..From$LT$alloc..vec..Vec$LT$T$GT$$GT$$GT$4from17h1b4227d93d0344e0E
Ltmp453:
	jmp	LBB50_5
Ltmp459:
LBB50_5:
	.loc	9 138 9 is_stmt 1
	movb	$0, -17(%rbp)
	movq	-168(%rbp), %rax
	.loc	9 138 10 is_stmt 0
	addq	$192, %rsp
	popq	%rbp
	retq
LBB50_6:
	.loc	9 138 9
	movb	$0, -17(%rbp)
	leaq	-112(%rbp), %rdi
	callq	__ZN4core3ptr13drop_in_place17hf62dab92e934a946E
	jmp	LBB50_1
LBB50_7:
	testb	$1, -17(%rbp)
	jne	LBB50_6
	jmp	LBB50_1
Ltmp460:
LBB50_8:
Ltmp454:
	.loc	9 0 9
	movq	%rax, -16(%rbp)
	movl	%edx, -8(%rbp)
	jmp	LBB50_7
Lfunc_end50:
	.cfi_endproc
	.section	__TEXT,__gcc_except_tab
	.p2align	2
GCC_except_table50:
Lexception16:
	.byte	255
	.byte	255
	.byte	1
	.uleb128 Lcst_end16-Lcst_begin16
Lcst_begin16:
	.uleb128 Lfunc_begin50-Lfunc_begin50
	.uleb128 Ltmp448-Lfunc_begin50
	.byte	0
	.byte	0
	.uleb128 Ltmp448-Lfunc_begin50
	.uleb128 Ltmp453-Ltmp448
	.uleb128 Ltmp454-Lfunc_begin50
	.byte	0
	.uleb128 Ltmp453-Lfunc_begin50
	.uleb128 Lfunc_end50-Ltmp453
	.byte	0
	.byte	0
Lcst_end16:
	.p2align	2

	.section	__TEXT,__text,regular,pure_instructions
	.p2align	4, 0x90
__ZN115_$LT$proc_macro..bridge..buffer..Buffer$LT$T$GT$$u20$as$u20$core..convert..From$LT$alloc..vec..Vec$LT$T$GT$$GT$$GT$4from17h1b4227d93d0344e0E:
Lfunc_begin51:
	.loc	9 120 0 is_stmt 1
	.cfi_startproc
	.cfi_personality 155, _rust_eh_personality
	.cfi_lsda 16, Lexception17
	pushq	%rbp
	.cfi_def_cfa_offset 16
	.cfi_offset %rbp, -16
	movq	%rsp, %rbp
	.cfi_def_cfa_register %rbp
	subq	$176, %rsp
	movq	%rdi, %rax
Ltmp470:
	.loc	9 121 37 prologue_end
	movb	$0, -41(%rbp)
	movb	$1, -41(%rbp)
Ltmp461:
	movq	%rdi, -104(%rbp)
	.loc	9 121 38 is_stmt 0
	movq	%rsi, %rdi
	movq	%rsi, -112(%rbp)
Ltmp471:
	.loc	9 0 38
	movq	%rax, -120(%rbp)
	.loc	9 121 38
	callq	__ZN5alloc3vec12Vec$LT$T$GT$10as_mut_ptr17h4de8ebe4d11ca2ecE
Ltmp462:
	movq	%rax, -128(%rbp)
	jmp	LBB51_2
Ltmp472:
LBB51_1:
	.loc	9 120 5 is_stmt 1
	movq	-40(%rbp), %rdi
	callq	__Unwind_Resume
	ud2
Ltmp473:
LBB51_2:
Ltmp463:
	.loc	9 0 5 is_stmt 0
	movq	-112(%rbp), %rdi
	.loc	9 121 54 is_stmt 1
	callq	__ZN5alloc3vec12Vec$LT$T$GT$3len17h9eeb63deae19d7a6E
Ltmp464:
	movq	%rax, -136(%rbp)
	jmp	LBB51_3
Ltmp474:
LBB51_3:
Ltmp465:
	.loc	9 0 54 is_stmt 0
	movq	-112(%rbp), %rdi
	.loc	9 121 63
	callq	__ZN5alloc3vec12Vec$LT$T$GT$8capacity17h25bda94286ba6551E
Ltmp466:
	movq	%rax, -144(%rbp)
	jmp	LBB51_4
Ltmp475:
LBB51_4:
	.loc	9 0 63
	movq	-128(%rbp), %rax
	.loc	9 121 37
	movq	%rax, -96(%rbp)
	movq	-136(%rbp), %rcx
	movq	%rcx, -88(%rbp)
	movq	-144(%rbp), %rdx
	movq	%rdx, -80(%rbp)
	.loc	9 121 14
	movq	-96(%rbp), %rsi
	movq	%rsi, -24(%rbp)
	.loc	9 121 20
	movq	-88(%rbp), %rdi
	movq	%rdi, -16(%rbp)
	.loc	9 121 25
	movq	-80(%rbp), %r8
	movq	%r8, -8(%rbp)
Ltmp476:
	.loc	9 122 21 is_stmt 1
	movb	$0, -41(%rbp)
	movq	-112(%rbp), %r9
	movq	16(%r9), %r10
	movq	%r10, -56(%rbp)
	movq	(%r9), %r10
	movq	8(%r9), %r11
	movq	%r11, -64(%rbp)
	movq	%r10, -72(%rbp)
Ltmp467:
	leaq	-72(%rbp), %r10
	movq	%rdi, -152(%rbp)
	.loc	9 122 9 is_stmt 0
	movq	%r10, %rdi
	movq	%rsi, -160(%rbp)
	movq	%r8, -168(%rbp)
	callq	__ZN4core3mem6forget17h9533bfccda0738cfE
Ltmp468:
	jmp	LBB51_5
Ltmp477:
LBB51_5:
	.loc	9 0 9
	movq	-104(%rbp), %rax
	movq	-160(%rbp), %rcx
	.loc	9 144 9 is_stmt 1
	movq	%rcx, (%rax)
	movq	-152(%rbp), %rdx
	movq	%rdx, 8(%rax)
	movq	-168(%rbp), %rsi
	movq	%rsi, 16(%rax)
	leaq	__ZN115_$LT$proc_macro..bridge..buffer..Buffer$LT$T$GT$$u20$as$u20$core..convert..From$LT$alloc..vec..Vec$LT$T$GT$$GT$$GT$4from17extend_from_slice17hdae493028dfbf594E(%rip), %rdi
	movq	%rdi, 24(%rax)
	leaq	__ZN115_$LT$proc_macro..bridge..buffer..Buffer$LT$T$GT$$u20$as$u20$core..convert..From$LT$alloc..vec..Vec$LT$T$GT$$GT$$GT$4from4drop17h974aa4c3f7325169E(%rip), %rdi
	movq	%rdi, 32(%rax)
	movq	-120(%rbp), %rax
Ltmp478:
	.loc	9 145 6
	addq	$176, %rsp
	popq	%rbp
	retq
Ltmp479:
LBB51_6:
	.loc	9 145 5 is_stmt 0
	movb	$0, -41(%rbp)
	movq	-112(%rbp), %rdi
	callq	__ZN4core3ptr13drop_in_place17hf62dab92e934a946E
	jmp	LBB51_1
Ltmp480:
LBB51_7:
	testb	$1, -41(%rbp)
	jne	LBB51_6
	jmp	LBB51_1
Ltmp481:
LBB51_8:
Ltmp469:
	.loc	9 0 5
	movq	%rax, -40(%rbp)
	movl	%edx, -32(%rbp)
	jmp	LBB51_7
Lfunc_end51:
	.cfi_endproc
	.section	__TEXT,__gcc_except_tab
	.p2align	2
GCC_except_table51:
Lexception17:
	.byte	255
	.byte	255
	.byte	1
	.uleb128 Lcst_end17-Lcst_begin17
Lcst_begin17:
	.uleb128 Ltmp461-Lfunc_begin51
	.uleb128 Ltmp462-Ltmp461
	.uleb128 Ltmp469-Lfunc_begin51
	.byte	0
	.uleb128 Ltmp462-Lfunc_begin51
	.uleb128 Ltmp463-Ltmp462
	.byte	0
	.byte	0
	.uleb128 Ltmp463-Lfunc_begin51
	.uleb128 Ltmp468-Ltmp463
	.uleb128 Ltmp469-Lfunc_begin51
	.byte	0
	.uleb128 Ltmp468-Lfunc_begin51
	.uleb128 Lfunc_end51-Ltmp468
	.byte	0
	.byte	0
Lcst_end17:
	.p2align	2

	.section	__TEXT,__text,regular,pure_instructions
	.p2align	4, 0x90
__ZN115_$LT$proc_macro..bridge..buffer..Buffer$LT$T$GT$$u20$as$u20$core..convert..From$LT$alloc..vec..Vec$LT$T$GT$$GT$$GT$4from4drop17h974aa4c3f7325169E:
Lfunc_begin52:
	.loc	9 140 0 is_stmt 1
	.cfi_startproc
	pushq	%rbp
	.cfi_def_cfa_offset 16
	.cfi_offset %rbp, -16
	movq	%rsp, %rbp
	.cfi_def_cfa_register %rbp
	subq	$80, %rsp
	leaq	16(%rbp), %rax
Ltmp482:
	.loc	9 141 30 prologue_end
	leaq	-40(%rbp), %rcx
	movq	%rcx, %rdx
	movq	%rdx, %rdi
	movq	%rax, %rsi
	movl	$40, %edx
	movq	%rcx, -72(%rbp)
	callq	_memcpy
	.loc	9 141 23 is_stmt 0
	leaq	-64(%rbp), %rdi
	movq	-72(%rbp), %rsi
	callq	__ZN115_$LT$proc_macro..bridge..buffer..Buffer$LT$T$GT$$u20$as$u20$core..convert..From$LT$alloc..vec..Vec$LT$T$GT$$GT$$GT$4from6to_vec17h68cf047b90cf8c65E
	.loc	9 141 13
	leaq	-64(%rbp), %rdi
	callq	__ZN4core3mem4drop17h4b0a738124469147E
	.loc	9 142 10 is_stmt 1
	addq	$80, %rsp
	popq	%rbp
	retq
Ltmp483:
Lfunc_end52:
	.cfi_endproc

	.p2align	4, 0x90
__ZN115_$LT$proc_macro..bridge..buffer..Buffer$LT$T$GT$$u20$as$u20$core..convert..From$LT$alloc..vec..Vec$LT$T$GT$$GT$$GT$4from6to_vec17h68cf047b90cf8c65E:
Lfunc_begin53:
	.loc	9 126 0
	.cfi_startproc
	pushq	%rbp
	.cfi_def_cfa_offset 16
	.cfi_offset %rbp, -16
	movq	%rsp, %rbp
	.cfi_def_cfa_register %rbp
	subq	$112, %rsp
	movq	%rdi, %rax
Ltmp484:
	.loc	9 128 30 prologue_end
	movq	(%rsi), %rcx
	movq	%rcx, -24(%rbp)
	.loc	9 128 36 is_stmt 0
	movq	8(%rsi), %rdx
	movq	%rdx, -16(%rbp)
	.loc	9 128 41
	movq	16(%rsi), %r8
	movq	%r8, -8(%rbp)
Ltmp485:
	.loc	9 129 29 is_stmt 1
	leaq	-64(%rbp), %r9
	movq	%r9, %r10
	movq	%rdi, -72(%rbp)
	movq	%r10, %rdi
	movl	$40, %r10d
	movq	%rdx, -80(%rbp)
	movq	%r10, %rdx
	movq	%rax, -88(%rbp)
	movq	%rcx, -96(%rbp)
	movq	%r8, -104(%rbp)
	movq	%r9, -112(%rbp)
	callq	_memcpy
Ltmp486:
	.loc	9 0 29 is_stmt 0
	movq	-112(%rbp), %rdi
	.loc	9 129 17
	callq	__ZN4core3mem6forget17hf07c714de7729da5E
	.loc	9 0 17
	movq	-72(%rbp), %rdi
	movq	-96(%rbp), %rsi
	movq	-80(%rbp), %rdx
	movq	-104(%rbp), %rcx
	.loc	9 130 17 is_stmt 1
	callq	__ZN5alloc3vec12Vec$LT$T$GT$14from_raw_parts17hf860829b9aa21ce2E
Ltmp487:
	.loc	9 0 17 is_stmt 0
	movq	-88(%rbp), %rax
	.loc	9 132 10 is_stmt 1
	addq	$112, %rsp
	popq	%rbp
	retq
Ltmp488:
Lfunc_end53:
	.cfi_endproc

	.p2align	4, 0x90
__ZN115_$LT$syn..punctuated..PrivateIter$LT$T$C$P$GT$$u20$as$u20$core..iter..traits..double_ended..DoubleEndedIterator$GT$9next_back17ha6c244e244a7d287E:
Lfunc_begin54:
	.loc	5 687 0
	.cfi_startproc
	pushq	%rbp
	.cfi_def_cfa_offset 16
	.cfi_offset %rbp, -16
	movq	%rsp, %rbp
	.cfi_def_cfa_register %rbp
	subq	$32, %rsp
	movq	%rdi, -16(%rbp)
Ltmp489:
	.loc	5 688 9 prologue_end
	movq	-16(%rbp), %rax
	addq	$16, %rax
	movq	%rax, %rdi
	callq	__ZN90_$LT$core..option..IntoIter$LT$A$GT$$u20$as$u20$core..iter..traits..iterator..Iterator$GT$4next17hf9c15a0c16977355E
	movq	%rax, -24(%rbp)
	.loc	5 690 22
	leaq	-16(%rbp), %rax
	movq	%rax, -8(%rbp)
	.loc	5 688 9
	movq	-8(%rbp), %rsi
	movq	-24(%rbp), %rdi
	callq	__ZN4core6option15Option$LT$T$GT$7or_else17hac11c9b1099e52a6E
	movq	%rax, -32(%rbp)
	.loc	5 0 9 is_stmt 0
	movq	-32(%rbp), %rax
	.loc	5 691 6 is_stmt 1
	addq	$32, %rsp
	popq	%rbp
	retq
Ltmp490:
Lfunc_end54:
	.cfi_endproc

	.p2align	4, 0x90
__ZN115_$LT$syn..punctuated..PrivateIter$LT$T$C$P$GT$$u20$as$u20$core..iter..traits..double_ended..DoubleEndedIterator$GT$9next_back28_$u7b$$u7b$closure$u7d$$u7d$17hf2b04dc7b7380c33E:
Lfunc_begin55:
	.loc	5 690 0
	.cfi_startproc
	pushq	%rbp
	.cfi_def_cfa_offset 16
	.cfi_offset %rbp, -16
	movq	%rsp, %rbp
	.cfi_def_cfa_register %rbp
	subq	$32, %rsp
	movq	%rdi, -8(%rbp)
Ltmp491:
	.loc	5 690 25 prologue_end
	movq	(%rdi), %rax
	movq	%rax, %rdi
	callq	__ZN100_$LT$core..slice..Iter$LT$T$GT$$u20$as$u20$core..iter..traits..double_ended..DoubleEndedIterator$GT$9next_back17h8cd4ede76e761dfeE
	movq	%rax, -24(%rbp)
	.loc	5 0 25 is_stmt 0
	movq	-24(%rbp), %rdi
	.loc	5 690 25
	callq	__ZN4core6option15Option$LT$T$GT$3map17haeba580496eede6cE
	movq	%rax, -32(%rbp)
	.loc	5 0 25
	movq	-32(%rbp), %rax
	.loc	5 690 67
	addq	$32, %rsp
	popq	%rbp
	retq
Ltmp492:
Lfunc_end55:
	.cfi_endproc

	.p2align	4, 0x90
__ZN115_$LT$syn..punctuated..PrivateIter$LT$T$C$P$GT$$u20$as$u20$core..iter..traits..double_ended..DoubleEndedIterator$GT$9next_back28_$u7b$$u7b$closure$u7d$$u7d$28_$u7b$$u7b$closure$u7d$$u7d$17h85ca69a7a8085cdcE:
Lfunc_begin56:
	.loc	5 690 0 is_stmt 1
	.cfi_startproc
	pushq	%rbp
	.cfi_def_cfa_offset 16
	.cfi_offset %rbp, -16
	movq	%rsp, %rbp
	.cfi_def_cfa_register %rbp
	subq	$16, %rsp
	movq	%rdi, -8(%rbp)
Ltmp493:
	.loc	5 690 66 prologue_end
	movq	%rdi, %rax
	addq	$16, %rsp
	popq	%rbp
	retq
Ltmp494:
Lfunc_end56:
	.cfi_endproc

	.p2align	4, 0x90
__ZN127_$LT$proc_macro..bridge..scoped_cell..ScopedCell$LT$T$GT$..replace..PutBackOnDrop$LT$T$GT$$u20$as$u20$core..ops..drop..Drop$GT$4drop17h4072a5de4376873dE:
Lfunc_begin57:
	.loc	8 60 0
	.cfi_startproc
	pushq	%rbp
	.cfi_def_cfa_offset 16
	.cfi_offset %rbp, -16
	movq	%rsp, %rbp
	.cfi_def_cfa_register %rbp
	subq	$160, %rsp
	movq	%rdi, -8(%rbp)
Ltmp495:
	.loc	8 61 17 prologue_end
	movq	(%rdi), %rax
	.loc	8 61 33 is_stmt 0
	addq	$8, %rdi
	leaq	-72(%rbp), %rcx
	movq	%rdi, -144(%rbp)
	movq	%rcx, %rdi
	movq	-144(%rbp), %rsi
	movq	%rax, -152(%rbp)
	callq	__ZN4core6option15Option$LT$T$GT$4take17h5cdbc48331121c9fE
	.loc	8 0 33
	leaq	l___unnamed_13(%rip), %rax
	.loc	8 61 33
	leaq	-136(%rbp), %rdi
	leaq	-72(%rbp), %rsi
	movq	%rax, %rdx
	callq	__ZN4core6option15Option$LT$T$GT$6unwrap17h1dac2a16b541ffd3E
	.loc	8 0 33
	movq	-152(%rbp), %rdi
	.loc	8 61 17
	leaq	-136(%rbp), %rsi
	callq	__ZN4core4cell13Cell$LT$T$GT$3set17h18de004668f0cda6E
	.loc	8 62 14 is_stmt 1
	addq	$160, %rsp
	popq	%rbp
	retq
Ltmp496:
Lfunc_end57:
	.cfi_endproc

	.p2align	4, 0x90
__ZN12synstructure11MacroResult11into_stream17h4fad18f4487b208dE:
Lfunc_begin58:
	.file	12 "/Users/yingyuhang/.cargo/registry/src/github.com-1ecc6299db9ec823/synstructure-0.12.4/src/lib.rs"
	.loc	12 2404 0
	.cfi_startproc
	.cfi_personality 155, _rust_eh_personality
	.cfi_lsda 16, Lexception18
	pushq	%rbp
	.cfi_def_cfa_offset 16
	.cfi_offset %rbp, -16
	movq	%rsp, %rbp
	.cfi_def_cfa_register %rbp
	subq	$288, %rsp
Ltmp507:
	.loc	12 2408 15 prologue_end
	leaq	-208(%rbp), %rax
	movq	%rax, %rcx
	movq	%rdi, -272(%rbp)
Ltmp508:
	movq	%rcx, %rdi
	movq	-272(%rbp), %rsi
Ltmp509:
	movl	$40, %edx
	movq	%rax, -280(%rbp)
	callq	_memcpy
Ltmp510:
	leaq	-256(%rbp), %rdi
	movq	-280(%rbp), %rsi
	callq	__ZN70_$LT$proc_macro2..TokenStream$u20$as$u20$synstructure..MacroResult$GT$11into_result17hdc218396d0c67d77E
	.loc	12 2409 13
	movq	-256(%rbp), %rax
	testq	%rax, %rax
	je	LBB58_5
	jmp	LBB58_14
LBB58_14:
	jmp	LBB58_3
LBB58_2:
	.loc	12 2404 5
	movq	-24(%rbp), %rdi
	callq	__Unwind_Resume
	ud2
LBB58_3:
	.loc	12 2410 17
	movq	-232(%rbp), %rax
	movq	%rax, -72(%rbp)
	movq	-248(%rbp), %rax
	movq	-240(%rbp), %rcx
	movq	%rcx, -80(%rbp)
	movq	%rax, -88(%rbp)
Ltmp497:
	leaq	-64(%rbp), %rdi
	leaq	-88(%rbp), %rsi
Ltmp511:
	.loc	12 2410 25 is_stmt 0
	callq	__ZN3syn5error5Error16to_compile_error17h16760ee4514d65c7E
Ltmp498:
	jmp	LBB58_7
Ltmp512:
	.loc	12 2408 15 is_stmt 1
	ud2
LBB58_5:
	.loc	12 2409 16
	movq	-216(%rbp), %rax
	movq	%rax, -136(%rbp)
	movq	-224(%rbp), %rax
	movq	%rax, -144(%rbp)
	movq	-232(%rbp), %rax
	movq	%rax, -152(%rbp)
	movq	-248(%rbp), %rax
	movq	-240(%rbp), %rcx
	movq	%rcx, -160(%rbp)
	movq	%rax, -168(%rbp)
Ltmp513:
	.loc	12 2409 23 is_stmt 0
	movq	-136(%rbp), %rax
	movq	%rax, -96(%rbp)
	movq	-144(%rbp), %rax
	movq	%rax, -104(%rbp)
	movq	-152(%rbp), %rax
	movq	%rax, -112(%rbp)
	movq	-168(%rbp), %rax
	movq	-160(%rbp), %rcx
	movq	%rcx, -120(%rbp)
	movq	%rax, -128(%rbp)
Ltmp504:
	leaq	-128(%rbp), %rdi
	callq	__ZN50_$LT$T$u20$as$u20$core..convert..Into$LT$U$GT$$GT$4into17h85821c89d7ecc2f2E
Ltmp505:
	movl	%eax, -284(%rbp)
	jmp	LBB58_6
LBB58_6:
	.loc	12 0 23
	movl	-284(%rbp), %eax
	.loc	12 2409 23
	movl	%eax, -4(%rbp)
	movl	-4(%rbp), %ecx
	movl	%ecx, -264(%rbp)
Ltmp514:
	.loc	12 2408 9 is_stmt 1
	jmp	LBB58_11
LBB58_7:
Ltmp499:
	.loc	12 0 9 is_stmt 0
	leaq	-64(%rbp), %rdi
Ltmp515:
	.loc	12 2410 25 is_stmt 1
	callq	__ZN50_$LT$T$u20$as$u20$core..convert..Into$LT$U$GT$$GT$4into17h85821c89d7ecc2f2E
Ltmp500:
	movl	%eax, -288(%rbp)
	jmp	LBB58_9
Ltmp516:
LBB58_8:
	.loc	12 2410 53 is_stmt 0
	leaq	-88(%rbp), %rdi
	callq	__ZN4core3ptr13drop_in_place17h5f6efde17ad2cdf0E
	jmp	LBB58_2
LBB58_9:
	.loc	12 0 53
	movl	-288(%rbp), %eax
Ltmp517:
	.loc	12 2410 25
	movl	%eax, -8(%rbp)
	movl	-8(%rbp), %ecx
	movl	%ecx, -264(%rbp)
Ltmp502:
	leaq	-88(%rbp), %rdi
Ltmp518:
	.loc	12 2410 53
	callq	__ZN4core3ptr13drop_in_place17h5f6efde17ad2cdf0E
Ltmp503:
	jmp	LBB58_10
LBB58_10:
	.loc	12 2408 9 is_stmt 1
	jmp	LBB58_11
LBB58_11:
	.loc	12 2412 6
	movl	-264(%rbp), %eax
	addq	$288, %rsp
	popq	%rbp
	retq
Ltmp519:
LBB58_12:
Ltmp501:
	.loc	12 0 6 is_stmt 0
	movq	%rax, -24(%rbp)
	movl	%edx, -16(%rbp)
	jmp	LBB58_8
LBB58_13:
Ltmp506:
	movq	%rax, -24(%rbp)
	movl	%edx, -16(%rbp)
	jmp	LBB58_2
Lfunc_end58:
	.cfi_endproc
	.section	__TEXT,__gcc_except_tab
	.p2align	2
GCC_except_table58:
Lexception18:
	.byte	255
	.byte	255
	.byte	1
	.uleb128 Lcst_end18-Lcst_begin18
Lcst_begin18:
	.uleb128 Lfunc_begin58-Lfunc_begin58
	.uleb128 Ltmp497-Lfunc_begin58
	.byte	0
	.byte	0
	.uleb128 Ltmp497-Lfunc_begin58
	.uleb128 Ltmp498-Ltmp497
	.uleb128 Ltmp501-Lfunc_begin58
	.byte	0
	.uleb128 Ltmp504-Lfunc_begin58
	.uleb128 Ltmp505-Ltmp504
	.uleb128 Ltmp506-Lfunc_begin58
	.byte	0
	.uleb128 Ltmp499-Lfunc_begin58
	.uleb128 Ltmp500-Ltmp499
	.uleb128 Ltmp501-Lfunc_begin58
	.byte	0
	.uleb128 Ltmp500-Lfunc_begin58
	.uleb128 Ltmp502-Ltmp500
	.byte	0
	.byte	0
	.uleb128 Ltmp502-Lfunc_begin58
	.uleb128 Ltmp503-Ltmp502
	.uleb128 Ltmp506-Lfunc_begin58
	.byte	0
Lcst_end18:
	.p2align	2

	.section	__TEXT,__text,regular,pure_instructions
	.p2align	4, 0x90
__ZN12synstructure9Structure12each_variant17h08e9982607745847E:
Lfunc_begin59:
	.loc	12 1166 0 is_stmt 1
	.cfi_startproc
	.cfi_personality 155, _rust_eh_personality
	.cfi_lsda 16, Lexception19
	pushq	%rbp
	.cfi_def_cfa_offset 16
	.cfi_offset %rbp, -16
	movq	%rsp, %rbp
	.cfi_def_cfa_register %rbp
	subq	$512, %rsp
Ltmp573:
	movq	%rdi, %rax
	movq	%rsi, -48(%rbp)
Ltmp520:
	movq	%rdi, -456(%rbp)
Ltmp574:
	movq	%rsi, -464(%rbp)
	movq	%rax, -472(%rbp)
Ltmp575:
	.loc	12 1171 21 prologue_end
	callq	__ZN11proc_macro211TokenStream3new17h0c4e18b5dcfc8cbeE
Ltmp521:
	jmp	LBB59_2
Ltmp576:
LBB59_1:
	.loc	12 1166 5
	movq	-40(%rbp), %rdi
	callq	__Unwind_Resume
	ud2
LBB59_2:
Ltmp577:
Ltmp523:
	.loc	12 0 5 is_stmt 0
	movq	-464(%rbp), %rdi
Ltmp578:
	.loc	12 1172 24 is_stmt 1
	callq	__ZN90_$LT$$RF$alloc..vec..Vec$LT$T$GT$$u20$as$u20$core..iter..traits..collect..IntoIterator$GT$9into_iter17hac9155e607dd0279E
Ltmp524:
	movq	%rdx, -480(%rbp)
	movq	%rax, -488(%rbp)
	jmp	LBB59_4
Ltmp579:
LBB59_3:
	.loc	12 1181 5
	jmp	LBB59_1
LBB59_4:
Ltmp580:
	.loc	12 0 5 is_stmt 0
	movq	-488(%rbp), %rax
Ltmp581:
	.loc	12 1172 24 is_stmt 1
	movq	%rax, -440(%rbp)
	movq	-480(%rbp), %rax
	movq	%rax, -432(%rbp)
Ltmp582:
	.loc	12 1172 9 is_stmt 0
	jmp	LBB59_6
Ltmp583:
LBB59_5:
	.loc	12 0 9
	movq	-456(%rbp), %rdi
	.loc	12 1181 5 is_stmt 1
	callq	__ZN4core3ptr13drop_in_place17ha5f80ac0ff1c5a65E
	jmp	LBB59_3
LBB59_6:
Ltmp584:
Ltmp525:
	.loc	12 0 5 is_stmt 0
	leaq	-440(%rbp), %rdi
Ltmp585:
	.loc	12 1172 24 is_stmt 1
	callq	__ZN85_$LT$core..slice..Iter$LT$T$GT$$u20$as$u20$core..iter..traits..iterator..Iterator$GT$4next17h5142c5a86529b5b2E
Ltmp526:
	movq	%rax, -496(%rbp)
	jmp	LBB59_7
Ltmp586:
LBB59_7:
	.loc	12 0 24 is_stmt 0
	movq	-496(%rbp), %rax
	.loc	12 1172 24
	movq	%rax, -424(%rbp)
	.loc	12 1172 13
	movq	-424(%rbp), %rcx
	testq	%rcx, %rcx
	setne	%dl
	movzbl	%dl, %esi
	movl	%esi, %ecx
	je	LBB59_8
	jmp	LBB59_50
Ltmp587:
LBB59_50:
	jmp	LBB59_10
Ltmp588:
LBB59_8:
	.loc	12 0 13
	movq	-464(%rbp), %rax
	.loc	12 1177 9 is_stmt 1
	testb	$1, 80(%rax)
	jne	LBB59_29
	jmp	LBB59_28
Ltmp589:
	.loc	12 1172 24
	ud2
LBB59_10:
Ltmp590:
	.loc	12 1172 13 is_stmt 0
	movq	-424(%rbp), %rax
	movq	%rax, -24(%rbp)
Ltmp591:
	.loc	12 1172 13
	movq	%rax, -16(%rbp)
Ltmp592:
	.loc	12 1172 24
	movq	%rax, -8(%rbp)
Ltmp527:
	leaq	-416(%rbp), %rdi
Ltmp593:
	.loc	12 1173 23 is_stmt 1
	movq	%rax, %rsi
	movq	%rax, -504(%rbp)
	callq	__ZN12synstructure11VariantInfo3pat17h04694610a38e5ce5E
Ltmp528:
	jmp	LBB59_11
Ltmp594:
LBB59_11:
	.loc	12 0 23 is_stmt 0
	movq	-504(%rbp), %rax
Ltmp595:
	.loc	12 1174 24 is_stmt 1
	movq	%rax, -336(%rbp)
	movq	-336(%rbp), %rdx
Ltmp529:
	leaq	-376(%rbp), %rdi
	leaq	-448(%rbp), %rsi
	callq	__ZN14failure_derive16fail_derive_impl28_$u7b$$u7b$closure$u7d$$u7d$17hcefbe42a237da7f6E
Ltmp530:
	jmp	LBB59_12
Ltmp596:
LBB59_12:
Ltmp531:
	.loc	12 0 24 is_stmt 0
	leaq	-288(%rbp), %rdi
Ltmp597:
	.file	13 "/Users/yingyuhang/.cargo/registry/src/github.com-1ecc6299db9ec823/quote-1.0.7/src/lib.rs"
	.loc	13 478 22 is_stmt 1
	callq	__ZN11proc_macro211TokenStream3new17h0c4e18b5dcfc8cbeE
Ltmp532:
	jmp	LBB59_14
Ltmp598:
LBB59_13:
	.loc	12 1176 9
	leaq	-416(%rbp), %rdi
	callq	__ZN4core3ptr13drop_in_place17ha5f80ac0ff1c5a65E
	jmp	LBB59_5
Ltmp599:
LBB59_14:
Ltmp533:
	.loc	12 0 9 is_stmt 0
	leaq	-416(%rbp), %rdi
	leaq	-288(%rbp), %rsi
Ltmp600:
	.loc	13 773 9 is_stmt 1
	callq	__ZN71_$LT$proc_macro2..TokenStream$u20$as$u20$quote..to_tokens..ToTokens$GT$9to_tokens17h90cd06c735e77dcaE
Ltmp534:
	jmp	LBB59_16
Ltmp601:
LBB59_15:
	.loc	12 1176 9
	leaq	-376(%rbp), %rdi
	callq	__ZN4core3ptr13drop_in_place17ha5f80ac0ff1c5a65E
	jmp	LBB59_13
Ltmp602:
LBB59_16:
Ltmp535:
	.loc	12 0 9 is_stmt 0
	leaq	-288(%rbp), %rdi
Ltmp603:
	.loc	13 1005 9 is_stmt 1
	callq	__ZN5quote9__private14push_fat_arrow17h51925db3b0c7268aE
Ltmp536:
	jmp	LBB59_18
Ltmp604:
LBB59_17:
	.loc	13 481 5
	leaq	-288(%rbp), %rdi
	callq	__ZN4core3ptr13drop_in_place17ha5f80ac0ff1c5a65E
	jmp	LBB59_15
Ltmp605:
LBB59_18:
Ltmp537:
	.loc	13 0 5 is_stmt 0
	leaq	-208(%rbp), %rdi
Ltmp606:
	.loc	13 478 22 is_stmt 1
	callq	__ZN11proc_macro211TokenStream3new17h0c4e18b5dcfc8cbeE
Ltmp538:
	jmp	LBB59_19
Ltmp607:
LBB59_19:
Ltmp539:
	.loc	13 0 22 is_stmt 0
	leaq	-376(%rbp), %rdi
	leaq	-208(%rbp), %rsi
Ltmp608:
	.loc	13 773 9 is_stmt 1
	callq	__ZN71_$LT$proc_macro2..TokenStream$u20$as$u20$quote..to_tokens..ToTokens$GT$9to_tokens17h90cd06c735e77dcaE
Ltmp540:
	jmp	LBB59_20
Ltmp609:
LBB59_20:
	.loc	13 480 9
	movq	-176(%rbp), %rax
	movq	%rax, -216(%rbp)
	movq	-184(%rbp), %rax
	movq	%rax, -224(%rbp)
	movq	-192(%rbp), %rax
	movq	%rax, -232(%rbp)
	movq	-208(%rbp), %rax
	movq	-200(%rbp), %rcx
	movq	%rcx, -240(%rbp)
	movq	%rax, -248(%rbp)
Ltmp542:
	leaq	-288(%rbp), %rdi
	movl	$1, %esi
	leaq	-248(%rbp), %rdx
Ltmp610:
	.loc	13 857 9
	callq	__ZN5quote9__private10push_group17he2eb752fd1083893E
Ltmp543:
	jmp	LBB59_22
Ltmp611:
LBB59_21:
	.loc	13 481 5
	leaq	-208(%rbp), %rdi
	callq	__ZN4core3ptr13drop_in_place17ha5f80ac0ff1c5a65E
	jmp	LBB59_17
Ltmp612:
LBB59_22:
	.loc	13 480 9
	movq	-256(%rbp), %rax
	movq	%rax, -296(%rbp)
	movq	-264(%rbp), %rax
	movq	%rax, -304(%rbp)
	movq	-272(%rbp), %rax
	movq	%rax, -312(%rbp)
	movq	-288(%rbp), %rax
	movq	-280(%rbp), %rcx
	movq	%rcx, -320(%rbp)
	movq	%rax, -328(%rbp)
Ltmp545:
	leaq	-328(%rbp), %rdi
	movq	-456(%rbp), %rsi
Ltmp613:
	.loc	12 1175 13
	callq	__ZN71_$LT$proc_macro2..TokenStream$u20$as$u20$quote..to_tokens..ToTokens$GT$9to_tokens17h90cd06c735e77dcaE
Ltmp546:
	jmp	LBB59_23
Ltmp614:
LBB59_23:
Ltmp548:
	.loc	12 0 13 is_stmt 0
	leaq	-328(%rbp), %rdi
	.loc	12 1175 56
	callq	__ZN4core3ptr13drop_in_place17ha5f80ac0ff1c5a65E
Ltmp549:
	jmp	LBB59_25
Ltmp615:
LBB59_24:
	leaq	-328(%rbp), %rdi
	callq	__ZN4core3ptr13drop_in_place17ha5f80ac0ff1c5a65E
	jmp	LBB59_15
Ltmp616:
LBB59_25:
Ltmp551:
	.loc	12 0 56
	leaq	-376(%rbp), %rdi
	.loc	12 1176 9 is_stmt 1
	callq	__ZN4core3ptr13drop_in_place17ha5f80ac0ff1c5a65E
Ltmp552:
	jmp	LBB59_26
Ltmp617:
LBB59_26:
Ltmp554:
	.loc	12 0 9 is_stmt 0
	leaq	-416(%rbp), %rdi
	.loc	12 1176 9
	callq	__ZN4core3ptr13drop_in_place17ha5f80ac0ff1c5a65E
Ltmp555:
	jmp	LBB59_27
Ltmp618:
LBB59_27:
	.loc	12 1172 9 is_stmt 1
	jmp	LBB59_6
Ltmp619:
LBB59_28:
	.loc	12 1177 9
	jmp	LBB59_39
Ltmp620:
LBB59_29:
Ltmp556:
	.loc	12 0 9 is_stmt 0
	leaq	-128(%rbp), %rdi
	.loc	13 478 22 is_stmt 1
	callq	__ZN11proc_macro211TokenStream3new17h0c4e18b5dcfc8cbeE
Ltmp557:
	jmp	LBB59_30
Ltmp621:
LBB59_30:
Ltmp558:
	.loc	13 1045 9
	leaq	l___unnamed_14(%rip), %rsi
	leaq	-128(%rbp), %rdi
	movl	$1, %edx
	callq	__ZN5quote9__private5parse17h4f1f2440052c7498E
Ltmp559:
	jmp	LBB59_31
Ltmp622:
LBB59_31:
Ltmp560:
	.loc	13 0 9 is_stmt 0
	leaq	-128(%rbp), %rdi
	.loc	13 1005 9 is_stmt 1
	callq	__ZN5quote9__private14push_fat_arrow17h51925db3b0c7268aE
Ltmp561:
	jmp	LBB59_33
Ltmp623:
LBB59_32:
	.loc	13 481 5
	leaq	-128(%rbp), %rdi
	callq	__ZN4core3ptr13drop_in_place17ha5f80ac0ff1c5a65E
	jmp	LBB59_5
Ltmp624:
LBB59_33:
Ltmp562:
	.loc	13 0 5 is_stmt 0
	leaq	-88(%rbp), %rdi
Ltmp625:
	.loc	13 475 9 is_stmt 1
	callq	__ZN11proc_macro211TokenStream3new17h0c4e18b5dcfc8cbeE
Ltmp563:
	jmp	LBB59_34
Ltmp626:
LBB59_34:
Ltmp564:
	.loc	13 0 9 is_stmt 0
	leaq	-128(%rbp), %rdi
	movl	$1, %esi
	leaq	-88(%rbp), %rdx
	.loc	13 857 9 is_stmt 1
	callq	__ZN5quote9__private10push_group17he2eb752fd1083893E
Ltmp565:
	jmp	LBB59_35
Ltmp627:
LBB59_35:
	.loc	13 480 9
	movq	-96(%rbp), %rax
	movq	%rax, -136(%rbp)
	movq	-104(%rbp), %rax
	movq	%rax, -144(%rbp)
	movq	-112(%rbp), %rax
	movq	%rax, -152(%rbp)
	movq	-128(%rbp), %rax
	movq	-120(%rbp), %rcx
	movq	%rcx, -160(%rbp)
	movq	%rax, -168(%rbp)
Ltmp567:
	leaq	-168(%rbp), %rdi
	movq	-456(%rbp), %rsi
Ltmp628:
	.loc	12 1178 13
	callq	__ZN71_$LT$proc_macro2..TokenStream$u20$as$u20$quote..to_tokens..ToTokens$GT$9to_tokens17h90cd06c735e77dcaE
Ltmp568:
	jmp	LBB59_36
Ltmp629:
LBB59_36:
Ltmp570:
	.loc	12 0 13 is_stmt 0
	leaq	-168(%rbp), %rdi
	.loc	12 1178 46
	callq	__ZN4core3ptr13drop_in_place17ha5f80ac0ff1c5a65E
Ltmp571:
	jmp	LBB59_38
Ltmp630:
LBB59_37:
	leaq	-168(%rbp), %rdi
	callq	__ZN4core3ptr13drop_in_place17ha5f80ac0ff1c5a65E
	jmp	LBB59_5
Ltmp631:
LBB59_38:
	.loc	12 1177 9 is_stmt 1
	jmp	LBB59_39
Ltmp632:
LBB59_39:
	.loc	12 1181 5
	jmp	LBB59_40
LBB59_40:
	.loc	12 0 5 is_stmt 0
	movq	-472(%rbp), %rax
	.loc	12 1181 6
	addq	$512, %rsp
	popq	%rbp
	retq
Ltmp633:
LBB59_41:
Ltmp522:
	.loc	12 0 6
	movq	%rax, -40(%rbp)
	movl	%edx, -32(%rbp)
	jmp	LBB59_3
Ltmp634:
LBB59_42:
Ltmp572:
	movq	%rax, -40(%rbp)
	movl	%edx, -32(%rbp)
	jmp	LBB59_5
Ltmp635:
LBB59_43:
Ltmp553:
	movq	%rax, -40(%rbp)
	movl	%edx, -32(%rbp)
	jmp	LBB59_13
Ltmp636:
LBB59_44:
Ltmp550:
	movq	%rax, -40(%rbp)
	movl	%edx, -32(%rbp)
	jmp	LBB59_15
Ltmp637:
LBB59_45:
Ltmp544:
	movq	%rax, -40(%rbp)
	movl	%edx, -32(%rbp)
	jmp	LBB59_17
Ltmp638:
LBB59_46:
Ltmp541:
	movq	%rax, -40(%rbp)
	movl	%edx, -32(%rbp)
	jmp	LBB59_21
Ltmp639:
LBB59_47:
Ltmp547:
	movq	%rax, -40(%rbp)
	movl	%edx, -32(%rbp)
	jmp	LBB59_24
Ltmp640:
LBB59_48:
Ltmp566:
	movq	%rax, -40(%rbp)
	movl	%edx, -32(%rbp)
	jmp	LBB59_32
Ltmp641:
LBB59_49:
Ltmp569:
	movq	%rax, -40(%rbp)
	movl	%edx, -32(%rbp)
	jmp	LBB59_37
Lfunc_end59:
	.cfi_endproc
	.section	__TEXT,__gcc_except_tab
	.p2align	2
GCC_except_table59:
Lexception19:
	.byte	255
	.byte	255
	.byte	1
	.uleb128 Lcst_end19-Lcst_begin19
Lcst_begin19:
	.uleb128 Ltmp520-Lfunc_begin59
	.uleb128 Ltmp521-Ltmp520
	.uleb128 Ltmp522-Lfunc_begin59
	.byte	0
	.uleb128 Ltmp521-Lfunc_begin59
	.uleb128 Ltmp523-Ltmp521
	.byte	0
	.byte	0
	.uleb128 Ltmp523-Lfunc_begin59
	.uleb128 Ltmp524-Ltmp523
	.uleb128 Ltmp572-Lfunc_begin59
	.byte	0
	.uleb128 Ltmp524-Lfunc_begin59
	.uleb128 Ltmp525-Ltmp524
	.byte	0
	.byte	0
	.uleb128 Ltmp525-Lfunc_begin59
	.uleb128 Ltmp528-Ltmp525
	.uleb128 Ltmp572-Lfunc_begin59
	.byte	0
	.uleb128 Ltmp529-Lfunc_begin59
	.uleb128 Ltmp530-Ltmp529
	.uleb128 Ltmp553-Lfunc_begin59
	.byte	0
	.uleb128 Ltmp531-Lfunc_begin59
	.uleb128 Ltmp532-Ltmp531
	.uleb128 Ltmp550-Lfunc_begin59
	.byte	0
	.uleb128 Ltmp532-Lfunc_begin59
	.uleb128 Ltmp533-Ltmp532
	.byte	0
	.byte	0
	.uleb128 Ltmp533-Lfunc_begin59
	.uleb128 Ltmp534-Ltmp533
	.uleb128 Ltmp544-Lfunc_begin59
	.byte	0
	.uleb128 Ltmp534-Lfunc_begin59
	.uleb128 Ltmp535-Ltmp534
	.byte	0
	.byte	0
	.uleb128 Ltmp535-Lfunc_begin59
	.uleb128 Ltmp536-Ltmp535
	.uleb128 Ltmp544-Lfunc_begin59
	.byte	0
	.uleb128 Ltmp536-Lfunc_begin59
	.uleb128 Ltmp537-Ltmp536
	.byte	0
	.byte	0
	.uleb128 Ltmp537-Lfunc_begin59
	.uleb128 Ltmp538-Ltmp537
	.uleb128 Ltmp544-Lfunc_begin59
	.byte	0
	.uleb128 Ltmp539-Lfunc_begin59
	.uleb128 Ltmp540-Ltmp539
	.uleb128 Ltmp541-Lfunc_begin59
	.byte	0
	.uleb128 Ltmp542-Lfunc_begin59
	.uleb128 Ltmp543-Ltmp542
	.uleb128 Ltmp544-Lfunc_begin59
	.byte	0
	.uleb128 Ltmp543-Lfunc_begin59
	.uleb128 Ltmp545-Ltmp543
	.byte	0
	.byte	0
	.uleb128 Ltmp545-Lfunc_begin59
	.uleb128 Ltmp546-Ltmp545
	.uleb128 Ltmp547-Lfunc_begin59
	.byte	0
	.uleb128 Ltmp548-Lfunc_begin59
	.uleb128 Ltmp549-Ltmp548
	.uleb128 Ltmp550-Lfunc_begin59
	.byte	0
	.uleb128 Ltmp549-Lfunc_begin59
	.uleb128 Ltmp551-Ltmp549
	.byte	0
	.byte	0
	.uleb128 Ltmp551-Lfunc_begin59
	.uleb128 Ltmp552-Ltmp551
	.uleb128 Ltmp553-Lfunc_begin59
	.byte	0
	.uleb128 Ltmp554-Lfunc_begin59
	.uleb128 Ltmp557-Ltmp554
	.uleb128 Ltmp572-Lfunc_begin59
	.byte	0
	.uleb128 Ltmp558-Lfunc_begin59
	.uleb128 Ltmp561-Ltmp558
	.uleb128 Ltmp566-Lfunc_begin59
	.byte	0
	.uleb128 Ltmp561-Lfunc_begin59
	.uleb128 Ltmp562-Ltmp561
	.byte	0
	.byte	0
	.uleb128 Ltmp562-Lfunc_begin59
	.uleb128 Ltmp565-Ltmp562
	.uleb128 Ltmp566-Lfunc_begin59
	.byte	0
	.uleb128 Ltmp567-Lfunc_begin59
	.uleb128 Ltmp568-Ltmp567
	.uleb128 Ltmp569-Lfunc_begin59
	.byte	0
	.uleb128 Ltmp570-Lfunc_begin59
	.uleb128 Ltmp571-Ltmp570
	.uleb128 Ltmp572-Lfunc_begin59
	.byte	0
	.uleb128 Ltmp571-Lfunc_begin59
	.uleb128 Lfunc_end59-Ltmp571
	.byte	0
	.byte	0
Lcst_end19:
	.p2align	2

	.section	__TEXT,__text,regular,pure_instructions
	.p2align	4, 0x90
__ZN12synstructure9Structure12each_variant17h54901b852e2e966eE:
Lfunc_begin60:
	.loc	12 1166 0 is_stmt 1
	.cfi_startproc
	.cfi_personality 155, _rust_eh_personality
	.cfi_lsda 16, Lexception20
	pushq	%rbp
	.cfi_def_cfa_offset 16
	.cfi_offset %rbp, -16
	movq	%rsp, %rbp
	.cfi_def_cfa_register %rbp
	subq	$512, %rsp
Ltmp695:
	movq	%rdi, %rax
	movq	%rsi, -48(%rbp)
Ltmp642:
	movq	%rdi, -456(%rbp)
Ltmp696:
	movq	%rsi, -464(%rbp)
	movq	%rax, -472(%rbp)
Ltmp697:
	.loc	12 1171 21 prologue_end
	callq	__ZN11proc_macro211TokenStream3new17h0c4e18b5dcfc8cbeE
Ltmp643:
	jmp	LBB60_2
Ltmp698:
LBB60_1:
	.loc	12 1166 5
	movq	-40(%rbp), %rdi
	callq	__Unwind_Resume
	ud2
LBB60_2:
Ltmp699:
Ltmp645:
	.loc	12 0 5 is_stmt 0
	movq	-464(%rbp), %rdi
Ltmp700:
	.loc	12 1172 24 is_stmt 1
	callq	__ZN90_$LT$$RF$alloc..vec..Vec$LT$T$GT$$u20$as$u20$core..iter..traits..collect..IntoIterator$GT$9into_iter17hac9155e607dd0279E
Ltmp646:
	movq	%rdx, -480(%rbp)
	movq	%rax, -488(%rbp)
	jmp	LBB60_4
Ltmp701:
LBB60_3:
	.loc	12 1181 5
	jmp	LBB60_1
LBB60_4:
Ltmp702:
	.loc	12 0 5 is_stmt 0
	movq	-488(%rbp), %rax
Ltmp703:
	.loc	12 1172 24 is_stmt 1
	movq	%rax, -440(%rbp)
	movq	-480(%rbp), %rax
	movq	%rax, -432(%rbp)
Ltmp704:
	.loc	12 1172 9 is_stmt 0
	jmp	LBB60_6
Ltmp705:
LBB60_5:
	.loc	12 0 9
	movq	-456(%rbp), %rdi
	.loc	12 1181 5 is_stmt 1
	callq	__ZN4core3ptr13drop_in_place17ha5f80ac0ff1c5a65E
	jmp	LBB60_3
LBB60_6:
Ltmp706:
Ltmp647:
	.loc	12 0 5 is_stmt 0
	leaq	-440(%rbp), %rdi
Ltmp707:
	.loc	12 1172 24 is_stmt 1
	callq	__ZN85_$LT$core..slice..Iter$LT$T$GT$$u20$as$u20$core..iter..traits..iterator..Iterator$GT$4next17h5142c5a86529b5b2E
Ltmp648:
	movq	%rax, -496(%rbp)
	jmp	LBB60_7
Ltmp708:
LBB60_7:
	.loc	12 0 24 is_stmt 0
	movq	-496(%rbp), %rax
	.loc	12 1172 24
	movq	%rax, -424(%rbp)
	.loc	12 1172 13
	movq	-424(%rbp), %rcx
	testq	%rcx, %rcx
	setne	%dl
	movzbl	%dl, %esi
	movl	%esi, %ecx
	je	LBB60_8
	jmp	LBB60_50
Ltmp709:
LBB60_50:
	jmp	LBB60_10
Ltmp710:
LBB60_8:
	.loc	12 0 13
	movq	-464(%rbp), %rax
	.loc	12 1177 9 is_stmt 1
	testb	$1, 80(%rax)
	jne	LBB60_29
	jmp	LBB60_28
Ltmp711:
	.loc	12 1172 24
	ud2
LBB60_10:
Ltmp712:
	.loc	12 1172 13 is_stmt 0
	movq	-424(%rbp), %rax
	movq	%rax, -24(%rbp)
Ltmp713:
	.loc	12 1172 13
	movq	%rax, -16(%rbp)
Ltmp714:
	.loc	12 1172 24
	movq	%rax, -8(%rbp)
Ltmp649:
	leaq	-416(%rbp), %rdi
Ltmp715:
	.loc	12 1173 23 is_stmt 1
	movq	%rax, %rsi
	movq	%rax, -504(%rbp)
	callq	__ZN12synstructure11VariantInfo3pat17h04694610a38e5ce5E
Ltmp650:
	jmp	LBB60_11
Ltmp716:
LBB60_11:
	.loc	12 0 23 is_stmt 0
	movq	-504(%rbp), %rax
Ltmp717:
	.loc	12 1174 24 is_stmt 1
	movq	%rax, -336(%rbp)
	movq	-336(%rbp), %rdx
Ltmp651:
	leaq	-376(%rbp), %rdi
	leaq	-448(%rbp), %rsi
	callq	__ZN14failure_derive16fail_derive_impl28_$u7b$$u7b$closure$u7d$$u7d$17hec619b69153c3513E
Ltmp652:
	jmp	LBB60_12
Ltmp718:
LBB60_12:
Ltmp653:
	.loc	12 0 24 is_stmt 0
	leaq	-288(%rbp), %rdi
Ltmp719:
	.loc	13 478 22 is_stmt 1
	callq	__ZN11proc_macro211TokenStream3new17h0c4e18b5dcfc8cbeE
Ltmp654:
	jmp	LBB60_14
Ltmp720:
LBB60_13:
	.loc	12 1176 9
	leaq	-416(%rbp), %rdi
	callq	__ZN4core3ptr13drop_in_place17ha5f80ac0ff1c5a65E
	jmp	LBB60_5
Ltmp721:
LBB60_14:
Ltmp655:
	.loc	12 0 9 is_stmt 0
	leaq	-416(%rbp), %rdi
	leaq	-288(%rbp), %rsi
Ltmp722:
	.loc	13 773 9 is_stmt 1
	callq	__ZN71_$LT$proc_macro2..TokenStream$u20$as$u20$quote..to_tokens..ToTokens$GT$9to_tokens17h90cd06c735e77dcaE
Ltmp656:
	jmp	LBB60_16
Ltmp723:
LBB60_15:
	.loc	12 1176 9
	leaq	-376(%rbp), %rdi
	callq	__ZN4core3ptr13drop_in_place17ha5f80ac0ff1c5a65E
	jmp	LBB60_13
Ltmp724:
LBB60_16:
Ltmp657:
	.loc	12 0 9 is_stmt 0
	leaq	-288(%rbp), %rdi
Ltmp725:
	.loc	13 1005 9 is_stmt 1
	callq	__ZN5quote9__private14push_fat_arrow17h51925db3b0c7268aE
Ltmp658:
	jmp	LBB60_18
Ltmp726:
LBB60_17:
	.loc	13 481 5
	leaq	-288(%rbp), %rdi
	callq	__ZN4core3ptr13drop_in_place17ha5f80ac0ff1c5a65E
	jmp	LBB60_15
Ltmp727:
LBB60_18:
Ltmp659:
	.loc	13 0 5 is_stmt 0
	leaq	-208(%rbp), %rdi
Ltmp728:
	.loc	13 478 22 is_stmt 1
	callq	__ZN11proc_macro211TokenStream3new17h0c4e18b5dcfc8cbeE
Ltmp660:
	jmp	LBB60_19
Ltmp729:
LBB60_19:
Ltmp661:
	.loc	13 0 22 is_stmt 0
	leaq	-376(%rbp), %rdi
	leaq	-208(%rbp), %rsi
Ltmp730:
	.loc	13 773 9 is_stmt 1
	callq	__ZN71_$LT$proc_macro2..TokenStream$u20$as$u20$quote..to_tokens..ToTokens$GT$9to_tokens17h90cd06c735e77dcaE
Ltmp662:
	jmp	LBB60_20
Ltmp731:
LBB60_20:
	.loc	13 480 9
	movq	-176(%rbp), %rax
	movq	%rax, -216(%rbp)
	movq	-184(%rbp), %rax
	movq	%rax, -224(%rbp)
	movq	-192(%rbp), %rax
	movq	%rax, -232(%rbp)
	movq	-208(%rbp), %rax
	movq	-200(%rbp), %rcx
	movq	%rcx, -240(%rbp)
	movq	%rax, -248(%rbp)
Ltmp664:
	leaq	-288(%rbp), %rdi
	movl	$1, %esi
	leaq	-248(%rbp), %rdx
Ltmp732:
	.loc	13 857 9
	callq	__ZN5quote9__private10push_group17he2eb752fd1083893E
Ltmp665:
	jmp	LBB60_22
Ltmp733:
LBB60_21:
	.loc	13 481 5
	leaq	-208(%rbp), %rdi
	callq	__ZN4core3ptr13drop_in_place17ha5f80ac0ff1c5a65E
	jmp	LBB60_17
Ltmp734:
LBB60_22:
	.loc	13 480 9
	movq	-256(%rbp), %rax
	movq	%rax, -296(%rbp)
	movq	-264(%rbp), %rax
	movq	%rax, -304(%rbp)
	movq	-272(%rbp), %rax
	movq	%rax, -312(%rbp)
	movq	-288(%rbp), %rax
	movq	-280(%rbp), %rcx
	movq	%rcx, -320(%rbp)
	movq	%rax, -328(%rbp)
Ltmp667:
	leaq	-328(%rbp), %rdi
	movq	-456(%rbp), %rsi
Ltmp735:
	.loc	12 1175 13
	callq	__ZN71_$LT$proc_macro2..TokenStream$u20$as$u20$quote..to_tokens..ToTokens$GT$9to_tokens17h90cd06c735e77dcaE
Ltmp668:
	jmp	LBB60_23
Ltmp736:
LBB60_23:
Ltmp670:
	.loc	12 0 13 is_stmt 0
	leaq	-328(%rbp), %rdi
	.loc	12 1175 56
	callq	__ZN4core3ptr13drop_in_place17ha5f80ac0ff1c5a65E
Ltmp671:
	jmp	LBB60_25
Ltmp737:
LBB60_24:
	leaq	-328(%rbp), %rdi
	callq	__ZN4core3ptr13drop_in_place17ha5f80ac0ff1c5a65E
	jmp	LBB60_15
Ltmp738:
LBB60_25:
Ltmp673:
	.loc	12 0 56
	leaq	-376(%rbp), %rdi
	.loc	12 1176 9 is_stmt 1
	callq	__ZN4core3ptr13drop_in_place17ha5f80ac0ff1c5a65E
Ltmp674:
	jmp	LBB60_26
Ltmp739:
LBB60_26:
Ltmp676:
	.loc	12 0 9 is_stmt 0
	leaq	-416(%rbp), %rdi
	.loc	12 1176 9
	callq	__ZN4core3ptr13drop_in_place17ha5f80ac0ff1c5a65E
Ltmp677:
	jmp	LBB60_27
Ltmp740:
LBB60_27:
	.loc	12 1172 9 is_stmt 1
	jmp	LBB60_6
Ltmp741:
LBB60_28:
	.loc	12 1177 9
	jmp	LBB60_39
Ltmp742:
LBB60_29:
Ltmp678:
	.loc	12 0 9 is_stmt 0
	leaq	-128(%rbp), %rdi
	.loc	13 478 22 is_stmt 1
	callq	__ZN11proc_macro211TokenStream3new17h0c4e18b5dcfc8cbeE
Ltmp679:
	jmp	LBB60_30
Ltmp743:
LBB60_30:
Ltmp680:
	.loc	13 1045 9
	leaq	l___unnamed_14(%rip), %rsi
	leaq	-128(%rbp), %rdi
	movl	$1, %edx
	callq	__ZN5quote9__private5parse17h4f1f2440052c7498E
Ltmp681:
	jmp	LBB60_31
Ltmp744:
LBB60_31:
Ltmp682:
	.loc	13 0 9 is_stmt 0
	leaq	-128(%rbp), %rdi
	.loc	13 1005 9 is_stmt 1
	callq	__ZN5quote9__private14push_fat_arrow17h51925db3b0c7268aE
Ltmp683:
	jmp	LBB60_33
Ltmp745:
LBB60_32:
	.loc	13 481 5
	leaq	-128(%rbp), %rdi
	callq	__ZN4core3ptr13drop_in_place17ha5f80ac0ff1c5a65E
	jmp	LBB60_5
Ltmp746:
LBB60_33:
Ltmp684:
	.loc	13 0 5 is_stmt 0
	leaq	-88(%rbp), %rdi
Ltmp747:
	.loc	13 475 9 is_stmt 1
	callq	__ZN11proc_macro211TokenStream3new17h0c4e18b5dcfc8cbeE
Ltmp685:
	jmp	LBB60_34
Ltmp748:
LBB60_34:
Ltmp686:
	.loc	13 0 9 is_stmt 0
	leaq	-128(%rbp), %rdi
	movl	$1, %esi
	leaq	-88(%rbp), %rdx
	.loc	13 857 9 is_stmt 1
	callq	__ZN5quote9__private10push_group17he2eb752fd1083893E
Ltmp687:
	jmp	LBB60_35
Ltmp749:
LBB60_35:
	.loc	13 480 9
	movq	-96(%rbp), %rax
	movq	%rax, -136(%rbp)
	movq	-104(%rbp), %rax
	movq	%rax, -144(%rbp)
	movq	-112(%rbp), %rax
	movq	%rax, -152(%rbp)
	movq	-128(%rbp), %rax
	movq	-120(%rbp), %rcx
	movq	%rcx, -160(%rbp)
	movq	%rax, -168(%rbp)
Ltmp689:
	leaq	-168(%rbp), %rdi
	movq	-456(%rbp), %rsi
Ltmp750:
	.loc	12 1178 13
	callq	__ZN71_$LT$proc_macro2..TokenStream$u20$as$u20$quote..to_tokens..ToTokens$GT$9to_tokens17h90cd06c735e77dcaE
Ltmp690:
	jmp	LBB60_36
Ltmp751:
LBB60_36:
Ltmp692:
	.loc	12 0 13 is_stmt 0
	leaq	-168(%rbp), %rdi
	.loc	12 1178 46
	callq	__ZN4core3ptr13drop_in_place17ha5f80ac0ff1c5a65E
Ltmp693:
	jmp	LBB60_38
Ltmp752:
LBB60_37:
	leaq	-168(%rbp), %rdi
	callq	__ZN4core3ptr13drop_in_place17ha5f80ac0ff1c5a65E
	jmp	LBB60_5
Ltmp753:
LBB60_38:
	.loc	12 1177 9 is_stmt 1
	jmp	LBB60_39
Ltmp754:
LBB60_39:
	.loc	12 1181 5
	jmp	LBB60_40
LBB60_40:
	.loc	12 0 5 is_stmt 0
	movq	-472(%rbp), %rax
	.loc	12 1181 6
	addq	$512, %rsp
	popq	%rbp
	retq
Ltmp755:
LBB60_41:
Ltmp644:
	.loc	12 0 6
	movq	%rax, -40(%rbp)
	movl	%edx, -32(%rbp)
	jmp	LBB60_3
Ltmp756:
LBB60_42:
Ltmp694:
	movq	%rax, -40(%rbp)
	movl	%edx, -32(%rbp)
	jmp	LBB60_5
Ltmp757:
LBB60_43:
Ltmp675:
	movq	%rax, -40(%rbp)
	movl	%edx, -32(%rbp)
	jmp	LBB60_13
Ltmp758:
LBB60_44:
Ltmp672:
	movq	%rax, -40(%rbp)
	movl	%edx, -32(%rbp)
	jmp	LBB60_15
Ltmp759:
LBB60_45:
Ltmp666:
	movq	%rax, -40(%rbp)
	movl	%edx, -32(%rbp)
	jmp	LBB60_17
Ltmp760:
LBB60_46:
Ltmp663:
	movq	%rax, -40(%rbp)
	movl	%edx, -32(%rbp)
	jmp	LBB60_21
Ltmp761:
LBB60_47:
Ltmp669:
	movq	%rax, -40(%rbp)
	movl	%edx, -32(%rbp)
	jmp	LBB60_24
Ltmp762:
LBB60_48:
Ltmp688:
	movq	%rax, -40(%rbp)
	movl	%edx, -32(%rbp)
	jmp	LBB60_32
Ltmp763:
LBB60_49:
Ltmp691:
	movq	%rax, -40(%rbp)
	movl	%edx, -32(%rbp)
	jmp	LBB60_37
Lfunc_end60:
	.cfi_endproc
	.section	__TEXT,__gcc_except_tab
	.p2align	2
GCC_except_table60:
Lexception20:
	.byte	255
	.byte	255
	.byte	1
	.uleb128 Lcst_end20-Lcst_begin20
Lcst_begin20:
	.uleb128 Ltmp642-Lfunc_begin60
	.uleb128 Ltmp643-Ltmp642
	.uleb128 Ltmp644-Lfunc_begin60
	.byte	0
	.uleb128 Ltmp643-Lfunc_begin60
	.uleb128 Ltmp645-Ltmp643
	.byte	0
	.byte	0
	.uleb128 Ltmp645-Lfunc_begin60
	.uleb128 Ltmp646-Ltmp645
	.uleb128 Ltmp694-Lfunc_begin60
	.byte	0
	.uleb128 Ltmp646-Lfunc_begin60
	.uleb128 Ltmp647-Ltmp646
	.byte	0
	.byte	0
	.uleb128 Ltmp647-Lfunc_begin60
	.uleb128 Ltmp650-Ltmp647
	.uleb128 Ltmp694-Lfunc_begin60
	.byte	0
	.uleb128 Ltmp651-Lfunc_begin60
	.uleb128 Ltmp652-Ltmp651
	.uleb128 Ltmp675-Lfunc_begin60
	.byte	0
	.uleb128 Ltmp653-Lfunc_begin60
	.uleb128 Ltmp654-Ltmp653
	.uleb128 Ltmp672-Lfunc_begin60
	.byte	0
	.uleb128 Ltmp654-Lfunc_begin60
	.uleb128 Ltmp655-Ltmp654
	.byte	0
	.byte	0
	.uleb128 Ltmp655-Lfunc_begin60
	.uleb128 Ltmp656-Ltmp655
	.uleb128 Ltmp666-Lfunc_begin60
	.byte	0
	.uleb128 Ltmp656-Lfunc_begin60
	.uleb128 Ltmp657-Ltmp656
	.byte	0
	.byte	0
	.uleb128 Ltmp657-Lfunc_begin60
	.uleb128 Ltmp658-Ltmp657
	.uleb128 Ltmp666-Lfunc_begin60
	.byte	0
	.uleb128 Ltmp658-Lfunc_begin60
	.uleb128 Ltmp659-Ltmp658
	.byte	0
	.byte	0
	.uleb128 Ltmp659-Lfunc_begin60
	.uleb128 Ltmp660-Ltmp659
	.uleb128 Ltmp666-Lfunc_begin60
	.byte	0
	.uleb128 Ltmp661-Lfunc_begin60
	.uleb128 Ltmp662-Ltmp661
	.uleb128 Ltmp663-Lfunc_begin60
	.byte	0
	.uleb128 Ltmp664-Lfunc_begin60
	.uleb128 Ltmp665-Ltmp664
	.uleb128 Ltmp666-Lfunc_begin60
	.byte	0
	.uleb128 Ltmp665-Lfunc_begin60
	.uleb128 Ltmp667-Ltmp665
	.byte	0
	.byte	0
	.uleb128 Ltmp667-Lfunc_begin60
	.uleb128 Ltmp668-Ltmp667
	.uleb128 Ltmp669-Lfunc_begin60
	.byte	0
	.uleb128 Ltmp670-Lfunc_begin60
	.uleb128 Ltmp671-Ltmp670
	.uleb128 Ltmp672-Lfunc_begin60
	.byte	0
	.uleb128 Ltmp671-Lfunc_begin60
	.uleb128 Ltmp673-Ltmp671
	.byte	0
	.byte	0
	.uleb128 Ltmp673-Lfunc_begin60
	.uleb128 Ltmp674-Ltmp673
	.uleb128 Ltmp675-Lfunc_begin60
	.byte	0
	.uleb128 Ltmp676-Lfunc_begin60
	.uleb128 Ltmp679-Ltmp676
	.uleb128 Ltmp694-Lfunc_begin60
	.byte	0
	.uleb128 Ltmp680-Lfunc_begin60
	.uleb128 Ltmp683-Ltmp680
	.uleb128 Ltmp688-Lfunc_begin60
	.byte	0
	.uleb128 Ltmp683-Lfunc_begin60
	.uleb128 Ltmp684-Ltmp683
	.byte	0
	.byte	0
	.uleb128 Ltmp684-Lfunc_begin60
	.uleb128 Ltmp687-Ltmp684
	.uleb128 Ltmp688-Lfunc_begin60
	.byte	0
	.uleb128 Ltmp689-Lfunc_begin60
	.uleb128 Ltmp690-Ltmp689
	.uleb128 Ltmp691-Lfunc_begin60
	.byte	0
	.uleb128 Ltmp692-Lfunc_begin60
	.uleb128 Ltmp693-Ltmp692
	.uleb128 Ltmp694-Lfunc_begin60
	.byte	0
	.uleb128 Ltmp693-Lfunc_begin60
	.uleb128 Lfunc_end60-Ltmp693
	.byte	0
	.byte	0
Lcst_end20:
	.p2align	2

	.section	__TEXT,__text,regular,pure_instructions
	.p2align	4, 0x90
__ZN12synstructure9Structure12unbound_impl17h6c57016efe80ff43E:
Lfunc_begin61:
	.loc	12 1853 0 is_stmt 1
	.cfi_startproc
	.cfi_personality 155, _rust_eh_personality
	.cfi_lsda 16, Lexception21
	pushq	%rbp
	.cfi_def_cfa_offset 16
	.cfi_offset %rbp, -16
	movq	%rsp, %rbp
	.cfi_def_cfa_register %rbp
	subq	$272, %rsp
	movq	%rdi, %rax
	movq	%rsi, -24(%rbp)
Ltmp775:
	.loc	12 1854 9 prologue_end
	movb	$0, -25(%rbp)
	movb	$0, -26(%rbp)
	movb	$0, -27(%rbp)
	movb	$1, -27(%rbp)
	.loc	12 1855 13
	movq	32(%rdx), %r8
	movq	%r8, -160(%rbp)
	movq	24(%rdx), %r8
	movq	%r8, -168(%rbp)
	movq	16(%rdx), %r8
	movq	%r8, -176(%rbp)
	movq	(%rdx), %r8
	movq	8(%rdx), %rdx
Ltmp776:
	movq	%rdx, -184(%rbp)
	movq	%r8, -192(%rbp)
Ltmp764:
	leaq	-232(%rbp), %rdx
	leaq	-192(%rbp), %r8
	movq	%rdi, -240(%rbp)
	movq	%rdx, %rdi
	movq	%rsi, -248(%rbp)
	movq	%r8, %rsi
	movq	%rcx, -256(%rbp)
Ltmp777:
	.loc	12 0 13 is_stmt 0
	movq	%rax, -264(%rbp)
	.loc	12 1855 13
	callq	__ZN71_$LT$proc_macro2..TokenStream$u20$as$u20$quote..to_tokens..ToTokens$GT$17into_token_stream17h9bbed68f08cefa25E
Ltmp765:
	jmp	LBB61_1
Ltmp778:
LBB61_1:
	.loc	12 1855 36
	movb	$1, -26(%rbp)
	.loc	12 1856 13 is_stmt 1
	movb	$0, -27(%rbp)
	movq	-256(%rbp), %rax
	movq	32(%rax), %rcx
	movq	%rcx, -80(%rbp)
	movq	24(%rax), %rcx
	movq	%rcx, -88(%rbp)
	movq	16(%rax), %rcx
	movq	%rcx, -96(%rbp)
	movq	(%rax), %rcx
	movq	8(%rax), %rdx
	movq	%rdx, -104(%rbp)
	movq	%rcx, -112(%rbp)
Ltmp767:
	leaq	-152(%rbp), %rdi
	leaq	-112(%rbp), %rsi
	callq	__ZN71_$LT$proc_macro2..TokenStream$u20$as$u20$quote..to_tokens..ToTokens$GT$17into_token_stream17h9bbed68f08cefa25E
Ltmp768:
	jmp	LBB61_3
Ltmp779:
LBB61_2:
	.loc	12 1853 5
	movq	-16(%rbp), %rdi
	callq	__Unwind_Resume
	ud2
Ltmp780:
LBB61_3:
	.loc	12 1856 36
	movb	$1, -25(%rbp)
Ltmp770:
	leaq	-72(%rbp), %rdi
	.loc	13 475 9
	callq	__ZN11proc_macro211TokenStream3new17h0c4e18b5dcfc8cbeE
Ltmp771:
	jmp	LBB61_4
Ltmp781:
LBB61_4:
	.loc	12 1854 9
	movb	$0, -26(%rbp)
	movb	$0, -25(%rbp)
Ltmp772:
	leaq	-232(%rbp), %rdx
	leaq	-152(%rbp), %rcx
	leaq	-72(%rbp), %r8
	movl	$3, %r9d
	movq	-240(%rbp), %rdi
	movq	-248(%rbp), %rsi
	callq	__ZN12synstructure9Structure13impl_internal17hb9d0777322169a72E
Ltmp773:
	jmp	LBB61_5
Ltmp782:
LBB61_5:
	.loc	12 1859 9
	movb	$0, -25(%rbp)
	movb	$0, -26(%rbp)
	movq	-264(%rbp), %rax
	.loc	12 1860 6
	addq	$272, %rsp
	popq	%rbp
	retq
Ltmp783:
LBB61_6:
	.loc	12 1860 5 is_stmt 0
	movb	$0, -27(%rbp)
	movq	-256(%rbp), %rdi
	callq	__ZN4core3ptr13drop_in_place17ha5f80ac0ff1c5a65E
	jmp	LBB61_2
Ltmp784:
LBB61_7:
	testb	$1, -27(%rbp)
	jne	LBB61_6
	jmp	LBB61_2
Ltmp785:
LBB61_8:
	.loc	12 1859 9 is_stmt 1
	movb	$0, -26(%rbp)
	leaq	-232(%rbp), %rdi
	callq	__ZN4core3ptr13drop_in_place17ha5f80ac0ff1c5a65E
	jmp	LBB61_7
Ltmp786:
LBB61_9:
	testb	$1, -26(%rbp)
	jne	LBB61_8
	jmp	LBB61_7
Ltmp787:
LBB61_10:
	movb	$0, -25(%rbp)
	leaq	-152(%rbp), %rdi
	callq	__ZN4core3ptr13drop_in_place17ha5f80ac0ff1c5a65E
	jmp	LBB61_9
Ltmp788:
LBB61_11:
	testb	$1, -25(%rbp)
	jne	LBB61_10
	jmp	LBB61_9
Ltmp789:
LBB61_12:
Ltmp766:
	.loc	12 0 9 is_stmt 0
	movq	%rax, -16(%rbp)
	movl	%edx, -8(%rbp)
	jmp	LBB61_7
Ltmp790:
LBB61_13:
Ltmp769:
	movq	%rax, -16(%rbp)
	movl	%edx, -8(%rbp)
	jmp	LBB61_9
Ltmp791:
LBB61_14:
Ltmp774:
	movq	%rax, -16(%rbp)
	movl	%edx, -8(%rbp)
	jmp	LBB61_11
Lfunc_end61:
	.cfi_endproc
	.section	__TEXT,__gcc_except_tab
	.p2align	2
GCC_except_table61:
Lexception21:
	.byte	255
	.byte	255
	.byte	1
	.uleb128 Lcst_end21-Lcst_begin21
Lcst_begin21:
	.uleb128 Ltmp764-Lfunc_begin61
	.uleb128 Ltmp765-Ltmp764
	.uleb128 Ltmp766-Lfunc_begin61
	.byte	0
	.uleb128 Ltmp767-Lfunc_begin61
	.uleb128 Ltmp768-Ltmp767
	.uleb128 Ltmp769-Lfunc_begin61
	.byte	0
	.uleb128 Ltmp768-Lfunc_begin61
	.uleb128 Ltmp770-Ltmp768
	.byte	0
	.byte	0
	.uleb128 Ltmp770-Lfunc_begin61
	.uleb128 Ltmp773-Ltmp770
	.uleb128 Ltmp774-Lfunc_begin61
	.byte	0
	.uleb128 Ltmp773-Lfunc_begin61
	.uleb128 Lfunc_end61-Ltmp773
	.byte	0
	.byte	0
Lcst_end21:
	.p2align	2

	.section	__TEXT,__text,regular,pure_instructions
	.p2align	4, 0x90
__ZN136_$LT$core..result..Result$LT$V$C$E$GT$$u20$as$u20$core..iter..traits..collect..FromIterator$LT$core..result..Result$LT$A$C$E$GT$$GT$$GT$9from_iter17h0ed682f90ff40a47E:
Lfunc_begin62:
	.file	14 "/rustc/6c8927b0cf80ceee19386026cf9d7fd4fd9d486f/src/libcore/result.rs"
	.loc	14 1561 0 is_stmt 1
	.cfi_startproc
	pushq	%rbp
	.cfi_def_cfa_offset 16
	.cfi_offset %rbp, -16
	movq	%rsp, %rbp
	.cfi_def_cfa_register %rbp
	subq	$112, %rsp
	movq	%rdi, %rax
Ltmp792:
	.loc	14 1565 31 prologue_end
	leaq	-48(%rbp), %rcx
	movq	%rcx, %rdx
	movq	%rdi, -96(%rbp)
	movq	%rdx, %rdi
	movl	$40, %edx
	movq	%rax, -104(%rbp)
	movq	%rcx, -112(%rbp)
	callq	_memcpy
Ltmp793:
	leaq	-88(%rbp), %rdi
	movq	-112(%rbp), %rsi
	callq	__ZN63_$LT$I$u20$as$u20$core..iter..traits..collect..IntoIterator$GT$9into_iter17had9511f32ceabf9fE
	.loc	14 0 31 is_stmt 0
	movq	-96(%rbp), %rdi
	.loc	14 1565 9
	leaq	-88(%rbp), %rsi
	callq	__ZN4core4iter8adapters15process_results17h0d88e5682b4540afE
	.loc	14 0 9
	movq	-104(%rbp), %rax
	.loc	14 1566 6 is_stmt 1
	addq	$112, %rsp
	popq	%rbp
	retq
Ltmp794:
Lfunc_end62:
	.cfi_endproc

	.p2align	4, 0x90
__ZN136_$LT$core..result..Result$LT$V$C$E$GT$$u20$as$u20$core..iter..traits..collect..FromIterator$LT$core..result..Result$LT$A$C$E$GT$$GT$$GT$9from_iter28_$u7b$$u7b$closure$u7d$$u7d$17h54ce3fc663eb9ddaE:
Lfunc_begin63:
	.loc	14 1565 0
	.cfi_startproc
	pushq	%rbp
	.cfi_def_cfa_offset 16
	.cfi_offset %rbp, -16
	movq	%rsp, %rbp
	.cfi_def_cfa_register %rbp
	subq	$80, %rsp
	movq	%rdi, %rax
	movq	%rsi, -8(%rbp)
Ltmp795:
	.loc	14 1565 53 prologue_end
	leaq	-56(%rbp), %rcx
	movq	%rcx, %rsi
	movq	%rdi, -64(%rbp)
	movq	%rsi, %rdi
	movq	%rdx, %rsi
	movl	$48, %edx
Ltmp796:
	.loc	14 0 53 is_stmt 0
	movq	%rax, -72(%rbp)
	movq	%rcx, -80(%rbp)
	.loc	14 1565 53
	callq	_memcpy
	movq	-64(%rbp), %rdi
	movq	-80(%rbp), %rsi
	callq	__ZN4core4iter6traits8iterator8Iterator7collect17h3ae4a1549b70c564E
	.loc	14 0 53
	movq	-72(%rbp), %rax
	.loc	14 1565 64
	addq	$80, %rsp
	popq	%rbp
	retq
Ltmp797:
Lfunc_end63:
	.cfi_endproc

	.p2align	4, 0x90
__ZN3std4sync4once4Once12is_completed17h2dc91f4cf5e2cd06E:
Lfunc_begin64:
	.file	15 "/rustc/6c8927b0cf80ceee19386026cf9d7fd4fd9d486f/src/libstd/sync/once.rs"
	.loc	15 369 0 is_stmt 1
	.cfi_startproc
	pushq	%rbp
	.cfi_def_cfa_offset 16
	.cfi_offset %rbp, -16
	movq	%rsp, %rbp
	.cfi_def_cfa_register %rbp
	subq	$16, %rsp
	movq	%rdi, -8(%rbp)
Ltmp798:
	.loc	15 374 9 prologue_end
	movl	$2, %esi
	callq	__ZN4core4sync6atomic11AtomicUsize4load17h1c7365cde7713d6aE
	movq	%rax, -16(%rbp)
	.loc	15 0 9 is_stmt 0
	movq	-16(%rbp), %rax
	.loc	15 374 9
	cmpq	$3, %rax
	sete	%cl
	.loc	15 375 6 is_stmt 1
	andb	$1, %cl
	movzbl	%cl, %edx
	movl	%edx, %eax
	addq	$16, %rsp
	popq	%rbp
	retq
Ltmp799:
Lfunc_end64:
	.cfi_endproc

	.p2align	4, 0x90
__ZN3std4sync4once4Once9call_once17hac8bbeaa7ceea042E:
Lfunc_begin65:
	.loc	15 255 0
	.cfi_startproc
	.cfi_personality 155, _rust_eh_personality
	.cfi_lsda 16, Lexception22
	pushq	%rbp
	.cfi_def_cfa_offset 16
	.cfi_offset %rbp, -16
	movq	%rsp, %rbp
	.cfi_def_cfa_register %rbp
	subq	$80, %rsp
	movq	%rdi, -32(%rbp)
Ltmp806:
	.loc	15 260 9 prologue_end
	movb	$0, -33(%rbp)
	movb	$1, -33(%rbp)
Ltmp800:
	movq	%rdi, -64(%rbp)
	.loc	15 260 12 is_stmt 0
	callq	__ZN3std4sync4once4Once12is_completed17h2dc91f4cf5e2cd06E
Ltmp801:
	movb	%al, -65(%rbp)
	jmp	LBB65_2
LBB65_1:
	.loc	15 255 5 is_stmt 1
	movq	-16(%rbp), %rdi
	callq	__Unwind_Resume
	ud2
LBB65_2:
	.loc	15 0 5 is_stmt 0
	movb	-65(%rbp), %al
	.loc	15 260 9 is_stmt 1
	testb	$1, %al
	jne	LBB65_4
	jmp	LBB65_3
LBB65_3:
	.loc	15 264 26
	movb	$0, -33(%rbp)
	.loc	15 264 21 is_stmt 0
	movb	$1, -49(%rbp)
	leaq	-49(%rbp), %rax
Ltmp807:
	.loc	15 265 37 is_stmt 1
	movq	%rax, -48(%rbp)
Ltmp803:
	.loc	15 265 9 is_stmt 0
	leaq	l___unnamed_2(%rip), %rcx
	xorl	%esi, %esi
	leaq	-48(%rbp), %rdx
	movq	-64(%rbp), %rdi
	callq	__ZN3std4sync4once4Once10call_inner17hfcd38045e50af9d3E
Ltmp804:
	jmp	LBB65_6
Ltmp808:
LBB65_4:
	.loc	15 266 5 is_stmt 1
	movb	$0, -33(%rbp)
LBB65_5:
	.loc	15 266 6 is_stmt 0
	addq	$80, %rsp
	popq	%rbp
	retq
LBB65_6:
	.loc	15 266 5
	jmp	LBB65_8
LBB65_7:
	jmp	LBB65_10
LBB65_8:
	jmp	LBB65_5
LBB65_9:
	movb	$0, -33(%rbp)
	jmp	LBB65_1
LBB65_10:
	testb	$1, -33(%rbp)
	jne	LBB65_9
	jmp	LBB65_1
Ltmp809:
LBB65_11:
Ltmp802:
	.loc	15 0 5
	movq	%rax, -16(%rbp)
	movl	%edx, -8(%rbp)
	jmp	LBB65_10
LBB65_12:
Ltmp805:
	movq	%rax, -16(%rbp)
	movl	%edx, -8(%rbp)
	jmp	LBB65_7
Lfunc_end65:
	.cfi_endproc
	.section	__TEXT,__gcc_except_tab
	.p2align	2
GCC_except_table65:
Lexception22:
	.byte	255
	.byte	255
	.byte	1
	.uleb128 Lcst_end22-Lcst_begin22
Lcst_begin22:
	.uleb128 Ltmp800-Lfunc_begin65
	.uleb128 Ltmp801-Ltmp800
	.uleb128 Ltmp802-Lfunc_begin65
	.byte	0
	.uleb128 Ltmp801-Lfunc_begin65
	.uleb128 Ltmp803-Ltmp801
	.byte	0
	.byte	0
	.uleb128 Ltmp803-Lfunc_begin65
	.uleb128 Ltmp804-Ltmp803
	.uleb128 Ltmp805-Lfunc_begin65
	.byte	0
Lcst_end22:
	.p2align	2

	.section	__TEXT,__text,regular,pure_instructions
	.p2align	4, 0x90
__ZN3std4sync4once4Once9call_once28_$u7b$$u7b$closure$u7d$$u7d$17hffe8f89805b86c1aE:
Lfunc_begin66:
	.loc	15 265 0 is_stmt 1
	.cfi_startproc
	pushq	%rbp
	.cfi_def_cfa_offset 16
	.cfi_offset %rbp, -16
	movq	%rsp, %rbp
	.cfi_def_cfa_register %rbp
	subq	$32, %rsp
	movq	%rdi, -16(%rbp)
	movq	%rsi, -8(%rbp)
Ltmp810:
	.loc	15 265 41 prologue_end
	movq	(%rdi), %rdi
	callq	__ZN4core6option15Option$LT$T$GT$4take17h250d2cf26eb7b637E
	movb	%al, -17(%rbp)
	.loc	15 0 41 is_stmt 0
	movb	-17(%rbp), %al
	.loc	15 265 41
	movzbl	%al, %ecx
	andl	$1, %ecx
	leaq	l___unnamed_15(%rip), %rsi
	movl	%ecx, %edi
	callq	__ZN4core6option15Option$LT$T$GT$6unwrap17h592a47de7acdab1cE
	callq	__ZN10proc_macro6bridge6client44_$LT$impl$u20$proc_macro..bridge..Bridge$GT$5enter28_$u7b$$u7b$closure$u7d$$u7d$17hc57c3481f34a5c18E
	.loc	15 265 60
	addq	$32, %rsp
	popq	%rbp
	retq
Ltmp811:
Lfunc_end66:
	.cfi_endproc

	.p2align	4, 0x90
__ZN3std5panic12catch_unwind17h47ad1be9af28d1c8E:
Lfunc_begin67:
	.loc	6 393 0 is_stmt 1
	.cfi_startproc
	pushq	%rbp
	.cfi_def_cfa_offset 16
	.cfi_offset %rbp, -16
	movq	%rsp, %rbp
	.cfi_def_cfa_register %rbp
	subq	$112, %rsp
Ltmp812:
	.loc	6 394 31 prologue_end
	leaq	-72(%rbp), %rax
	movq	%rax, %rcx
	movq	%rdi, -80(%rbp)
Ltmp813:
	movq	%rcx, %rdi
	movq	-80(%rbp), %rsi
Ltmp814:
	movl	$72, %edx
	movq	%rax, -88(%rbp)
	callq	_memcpy
Ltmp815:
	.loc	6 0 31 is_stmt 0
	movq	-88(%rbp), %rdi
	.loc	6 394 14
	callq	__ZN3std9panicking3try17hbda68194cf7aca99E
	movq	%rax, -96(%rbp)
	movq	%rdx, -104(%rbp)
	.loc	6 0 14
	movq	-96(%rbp), %rax
	movq	-104(%rbp), %rdx
	.loc	6 395 2 is_stmt 1
	addq	$112, %rsp
	popq	%rbp
	retq
Ltmp816:
Lfunc_end67:
	.cfi_endproc

	.p2align	4, 0x90
__ZN3std6thread5local17LocalKey$LT$T$GT$4with17h30542e08773becebE:
Lfunc_begin68:
	.file	16 "/rustc/6c8927b0cf80ceee19386026cf9d7fd4fd9d486f/src/libstd/thread/local.rs"
	.loc	16 235 0
	.cfi_startproc
	pushq	%rbp
	.cfi_def_cfa_offset 16
	.cfi_offset %rbp, -16
	movq	%rsp, %rbp
	.cfi_def_cfa_register %rbp
	subq	$48, %rsp
	movq	%rdi, -16(%rbp)
	movq	%rsi, -8(%rbp)
Ltmp817:
	.loc	16 239 9 prologue_end
	callq	__ZN3std6thread5local17LocalKey$LT$T$GT$8try_with17h934947980fd71becE
	movb	%al, -17(%rbp)
	.loc	16 0 9 is_stmt 0
	movb	-17(%rbp), %al
	.loc	16 239 9
	movzbl	%al, %ecx
	andl	$1, %ecx
	leaq	l___unnamed_16(%rip), %rsi
	leaq	l___unnamed_17(%rip), %rdx
	movl	$70, %edi
	movq	%rdi, -32(%rbp)
	movl	%ecx, %edi
	movq	-32(%rbp), %r8
	movq	%rdx, -40(%rbp)
	movq	%r8, %rdx
	movq	-40(%rbp), %rcx
	callq	__ZN4core6result19Result$LT$T$C$E$GT$6expect17he1fd6cf921763b78E
	.loc	16 243 6 is_stmt 1
	addq	$48, %rsp
	popq	%rbp
	retq
Ltmp818:
Lfunc_end68:
	.cfi_endproc

	.p2align	4, 0x90
__ZN3std6thread5local17LocalKey$LT$T$GT$4with17h954dc7cbc31ef7ecE:
Lfunc_begin69:
	.loc	16 235 0
	.cfi_startproc
	pushq	%rbp
	.cfi_def_cfa_offset 16
	.cfi_offset %rbp, -16
	movq	%rsp, %rbp
	.cfi_def_cfa_register %rbp
	subq	$80, %rsp
	movq	%rdi, %rax
	movq	%rsi, -16(%rbp)
Ltmp819:
	.loc	16 239 9 prologue_end
	leaq	-56(%rbp), %rcx
	movq	%rdi, -64(%rbp)
	movq	%rcx, %rdi
	movq	%rax, -72(%rbp)
	callq	__ZN3std6thread5local17LocalKey$LT$T$GT$8try_with17h27c060ed7b3b7ee0E
	.loc	16 0 9 is_stmt 0
	leaq	l___unnamed_16(%rip), %rax
	leaq	l___unnamed_17(%rip), %rcx
	movq	-64(%rbp), %rdi
	.loc	16 239 9
	leaq	-56(%rbp), %rsi
	movq	%rax, %rdx
	movl	$70, %eax
	movq	%rcx, -80(%rbp)
	movq	%rax, %rcx
	movq	-80(%rbp), %r8
	callq	__ZN4core6result19Result$LT$T$C$E$GT$6expect17hbe93c2c8ebf604d5E
	.loc	16 0 9
	movq	-72(%rbp), %rax
	.loc	16 243 6 is_stmt 1
	addq	$80, %rsp
	popq	%rbp
	retq
Ltmp820:
Lfunc_end69:
	.cfi_endproc

	.p2align	4, 0x90
__ZN3std6thread5local17LocalKey$LT$T$GT$4with17hbb60dfb8cf978489E:
Lfunc_begin70:
	.loc	16 235 0
	.cfi_startproc
	pushq	%rbp
	.cfi_def_cfa_offset 16
	.cfi_offset %rbp, -16
	movq	%rsp, %rbp
	.cfi_def_cfa_register %rbp
	subq	$32, %rsp
	movq	%rdi, -16(%rbp)
Ltmp821:
	.loc	16 239 9 prologue_end
	callq	__ZN3std6thread5local17LocalKey$LT$T$GT$8try_with17hfc78aab798ba0189E
	movb	%al, -17(%rbp)
	.loc	16 0 9 is_stmt 0
	leaq	l___unnamed_16(%rip), %rax
	leaq	l___unnamed_17(%rip), %rcx
	movb	-17(%rbp), %dl
	.loc	16 239 9
	movzbl	%dl, %edi
	movq	%rax, %rsi
	movl	$70, %edx
	callq	__ZN4core6result19Result$LT$T$C$E$GT$6expect17h5c70c4f47b5d987dE
	movb	%al, -18(%rbp)
	.loc	16 0 9
	movb	-18(%rbp), %al
	.loc	16 243 6 is_stmt 1
	andb	$1, %al
	movzbl	%al, %eax
	addq	$32, %rsp
	popq	%rbp
	retq
Ltmp822:
Lfunc_end70:
	.cfi_endproc

	.p2align	4, 0x90
__ZN3std6thread5local17LocalKey$LT$T$GT$4with17hdc57aab1048f0eb0E:
Lfunc_begin71:
	.loc	16 235 0
	.cfi_startproc
	pushq	%rbp
	.cfi_def_cfa_offset 16
	.cfi_offset %rbp, -16
	movq	%rsp, %rbp
	.cfi_def_cfa_register %rbp
	subq	$128, %rsp
	movq	%rdi, -8(%rbp)
Ltmp823:
	.loc	16 239 23 prologue_end
	leaq	-80(%rbp), %rax
	movq	%rax, %rcx
	movq	%rdi, -88(%rbp)
	movq	%rcx, %rdi
	movl	$72, %edx
	movq	%rax, -96(%rbp)
	callq	_memcpy
Ltmp824:
	.loc	16 0 23 is_stmt 0
	movq	-88(%rbp), %rdi
	movq	-96(%rbp), %rsi
	.loc	16 239 9
	callq	__ZN3std6thread5local17LocalKey$LT$T$GT$8try_with17hb11d662edac78f77E
	movb	%al, -97(%rbp)
	.loc	16 0 9
	movb	-97(%rbp), %al
	.loc	16 239 9
	movzbl	%al, %ecx
	andl	$1, %ecx
	leaq	l___unnamed_16(%rip), %rsi
	leaq	l___unnamed_17(%rip), %rdx
	movl	$70, %edi
	movq	%rdi, -112(%rbp)
	movl	%ecx, %edi
	movq	-112(%rbp), %r8
	movq	%rdx, -120(%rbp)
	movq	%r8, %rdx
	movq	-120(%rbp), %rcx
	callq	__ZN4core6result19Result$LT$T$C$E$GT$6expect17he1fd6cf921763b78E
	.loc	16 243 6 is_stmt 1
	addq	$128, %rsp
	popq	%rbp
	retq
Ltmp825:
Lfunc_end71:
	.cfi_endproc

	.p2align	4, 0x90
__ZN3std6thread5local17LocalKey$LT$T$GT$8try_with17h27c060ed7b3b7ee0E:
Lfunc_begin72:
	.loc	16 257 0
	.cfi_startproc
	.cfi_personality 155, _rust_eh_personality
	.cfi_lsda 16, Lexception23
	pushq	%rbp
	.cfi_def_cfa_offset 16
	.cfi_offset %rbp, -16
	movq	%rsp, %rbp
	.cfi_def_cfa_register %rbp
	subq	$160, %rsp
	movq	%rdi, %rax
	movq	%rsi, -56(%rbp)
Ltmp839:
	.loc	16 262 17 prologue_end
	movb	$0, -57(%rbp)
	movb	$1, -57(%rbp)
	.loc	16 262 32 is_stmt 0
	movq	(%rsi), %rcx
Ltmp826:
	movq	%rdi, -128(%rbp)
	movq	%rax, -136(%rbp)
	callq	*%rcx
Ltmp827:
	movq	%rax, -144(%rbp)
	jmp	LBB72_2
LBB72_1:
	.loc	16 257 5 is_stmt 1
	movq	-32(%rbp), %rdi
	callq	__Unwind_Resume
	ud2
LBB72_2:
Ltmp828:
	.loc	16 0 5 is_stmt 0
	movq	-144(%rbp), %rdi
	.loc	16 262 32 is_stmt 1
	callq	__ZN4core6option15Option$LT$T$GT$5ok_or17h8f5e0cb169f4dc29E
Ltmp829:
	movq	%rax, -152(%rbp)
	jmp	LBB72_3
LBB72_3:
Ltmp830:
	.loc	16 0 32 is_stmt 0
	movq	-152(%rbp), %rdi
	.loc	16 262 32
	callq	__ZN73_$LT$core..result..Result$LT$T$C$E$GT$$u20$as$u20$core..ops..try..Try$GT$11into_result17hb8d60d89c36f8150E
Ltmp831:
	movq	%rax, -160(%rbp)
	jmp	LBB72_4
LBB72_4:
	.loc	16 0 32
	movq	-160(%rbp), %rax
	.loc	16 262 32
	movq	%rax, -120(%rbp)
	.loc	16 262 82
	movq	-120(%rbp), %rcx
	testq	%rcx, %rcx
	sete	%dl
	movzbl	%dl, %esi
	movl	%esi, %ecx
	jne	LBB72_5
	jmp	LBB72_15
LBB72_15:
	jmp	LBB72_7
LBB72_5:
	.loc	16 262 32
	movq	-120(%rbp), %rax
	movq	%rax, -16(%rbp)
Ltmp840:
	.loc	16 262 32
	movq	%rax, -8(%rbp)
Ltmp841:
	.loc	16 263 16 is_stmt 1
	movb	$0, -57(%rbp)
	movq	%rax, -72(%rbp)
	movq	-72(%rbp), %rsi
Ltmp836:
	leaq	-112(%rbp), %rdi
	callq	__ZN10proc_macro6bridge6client11BridgeState4with28_$u7b$$u7b$closure$u7d$$u7d$17hf52e13012f8f5115E
Ltmp837:
	jmp	LBB72_11
Ltmp842:
	.loc	16 262 32
	ud2
LBB72_7:
Ltmp832:
Ltmp843:
	.loc	16 262 82 is_stmt 0
	callq	__ZN50_$LT$T$u20$as$u20$core..convert..From$LT$T$GT$$GT$4from17hcfc0c1e0a976b30bE
Ltmp833:
	jmp	LBB72_9
Ltmp844:
LBB72_8:
	.loc	16 0 82
	movq	-136(%rbp), %rax
	.loc	16 265 6 is_stmt 1
	addq	$160, %rsp
	popq	%rbp
	retq
LBB72_9:
Ltmp834:
	.loc	16 0 6 is_stmt 0
	movq	-128(%rbp), %rdi
Ltmp845:
	.loc	16 262 82 is_stmt 1
	callq	__ZN73_$LT$core..result..Result$LT$T$C$E$GT$$u20$as$u20$core..ops..try..Try$GT$10from_error17h328a60b50e94d65bE
Ltmp835:
	jmp	LBB72_10
Ltmp846:
LBB72_10:
	.loc	16 265 5
	movb	$0, -57(%rbp)
	jmp	LBB72_8
LBB72_11:
	.loc	16 0 5 is_stmt 0
	movq	-128(%rbp), %rax
Ltmp847:
	.loc	16 263 13 is_stmt 1
	leaq	-112(%rbp), %rcx
	movq	%rax, %rdi
	movq	%rcx, %rsi
	movl	$40, %edx
	callq	_memcpy
Ltmp848:
	.loc	16 265 5
	jmp	LBB72_8
LBB72_12:
	movb	$0, -57(%rbp)
	jmp	LBB72_1
LBB72_13:
	testb	$1, -57(%rbp)
	jne	LBB72_12
	jmp	LBB72_1
Ltmp849:
LBB72_14:
Ltmp838:
	.loc	16 0 5 is_stmt 0
	movq	%rax, -32(%rbp)
	movl	%edx, -24(%rbp)
	jmp	LBB72_13
Lfunc_end72:
	.cfi_endproc
	.section	__TEXT,__gcc_except_tab
	.p2align	2
GCC_except_table72:
Lexception23:
	.byte	255
	.byte	255
	.byte	1
	.uleb128 Lcst_end23-Lcst_begin23
Lcst_begin23:
	.uleb128 Ltmp826-Lfunc_begin72
	.uleb128 Ltmp827-Ltmp826
	.uleb128 Ltmp838-Lfunc_begin72
	.byte	0
	.uleb128 Ltmp827-Lfunc_begin72
	.uleb128 Ltmp828-Ltmp827
	.byte	0
	.byte	0
	.uleb128 Ltmp828-Lfunc_begin72
	.uleb128 Ltmp835-Ltmp828
	.uleb128 Ltmp838-Lfunc_begin72
	.byte	0
	.uleb128 Ltmp835-Lfunc_begin72
	.uleb128 Lfunc_end72-Ltmp835
	.byte	0
	.byte	0
Lcst_end23:
	.p2align	2

	.section	__TEXT,__text,regular,pure_instructions
	.p2align	4, 0x90
__ZN3std6thread5local17LocalKey$LT$T$GT$8try_with17h934947980fd71becE:
Lfunc_begin73:
	.loc	16 257 0 is_stmt 1
	.cfi_startproc
	.cfi_personality 155, _rust_eh_personality
	.cfi_lsda 16, Lexception24
	pushq	%rbp
	.cfi_def_cfa_offset 16
	.cfi_offset %rbp, -16
	movq	%rsp, %rbp
	.cfi_def_cfa_register %rbp
	subq	$128, %rsp
	movq	%rdi, -56(%rbp)
	movq	%rsi, -48(%rbp)
Ltmp863:
	.loc	16 262 17 prologue_end
	movb	$0, -57(%rbp)
	movb	$1, -57(%rbp)
	.loc	16 262 32 is_stmt 0
	movq	(%rdi), %rax
Ltmp850:
	movq	%rsi, -96(%rbp)
	callq	*%rax
Ltmp851:
	movq	%rax, -104(%rbp)
	jmp	LBB73_2
LBB73_1:
	.loc	16 257 5 is_stmt 1
	movq	-32(%rbp), %rdi
	callq	__Unwind_Resume
	ud2
LBB73_2:
Ltmp852:
	.loc	16 0 5 is_stmt 0
	movq	-104(%rbp), %rdi
	.loc	16 262 32 is_stmt 1
	callq	__ZN4core6option15Option$LT$T$GT$5ok_or17h8f5e0cb169f4dc29E
Ltmp853:
	movq	%rax, -112(%rbp)
	jmp	LBB73_3
LBB73_3:
Ltmp854:
	.loc	16 0 32 is_stmt 0
	movq	-112(%rbp), %rdi
	.loc	16 262 32
	callq	__ZN73_$LT$core..result..Result$LT$T$C$E$GT$$u20$as$u20$core..ops..try..Try$GT$11into_result17hb8d60d89c36f8150E
Ltmp855:
	movq	%rax, -120(%rbp)
	jmp	LBB73_4
LBB73_4:
	.loc	16 0 32
	movq	-120(%rbp), %rax
	.loc	16 262 32
	movq	%rax, -80(%rbp)
	.loc	16 262 82
	movq	-80(%rbp), %rcx
	testq	%rcx, %rcx
	sete	%dl
	movzbl	%dl, %esi
	movl	%esi, %ecx
	jne	LBB73_5
	jmp	LBB73_15
LBB73_15:
	jmp	LBB73_7
LBB73_5:
	.loc	16 262 32
	movq	-80(%rbp), %rax
	movq	%rax, -16(%rbp)
Ltmp864:
	.loc	16 262 32
	movq	%rax, -8(%rbp)
Ltmp865:
	.loc	16 263 16 is_stmt 1
	movb	$0, -57(%rbp)
	movq	%rax, -72(%rbp)
	movq	-72(%rbp), %rsi
Ltmp860:
	movq	-96(%rbp), %rdi
	callq	__ZN10proc_macro6bridge6client11BridgeState4with28_$u7b$$u7b$closure$u7d$$u7d$17h94eb01a8b5cad5f6E
Ltmp861:
	jmp	LBB73_11
Ltmp866:
	.loc	16 262 32
	ud2
LBB73_7:
Ltmp856:
Ltmp867:
	.loc	16 262 82 is_stmt 0
	callq	__ZN50_$LT$T$u20$as$u20$core..convert..From$LT$T$GT$$GT$4from17hcfc0c1e0a976b30bE
Ltmp857:
	jmp	LBB73_9
Ltmp868:
LBB73_8:
	.loc	16 265 6 is_stmt 1
	movb	-81(%rbp), %al
	andb	$1, %al
	movzbl	%al, %eax
	addq	$128, %rsp
	popq	%rbp
	retq
LBB73_9:
Ltmp858:
Ltmp869:
	.loc	16 262 82
	callq	__ZN73_$LT$core..result..Result$LT$T$C$E$GT$$u20$as$u20$core..ops..try..Try$GT$10from_error17hddad1c3a40660a7fE
Ltmp859:
	movb	%al, -121(%rbp)
	jmp	LBB73_10
LBB73_10:
	.loc	16 0 82 is_stmt 0
	movb	-121(%rbp), %al
	.loc	16 262 82
	andb	$1, %al
	movb	%al, -81(%rbp)
Ltmp870:
	.loc	16 265 5 is_stmt 1
	movb	$0, -57(%rbp)
	jmp	LBB73_8
LBB73_11:
Ltmp871:
	.loc	16 263 13
	movb	$0, -81(%rbp)
Ltmp872:
	.loc	16 265 5
	jmp	LBB73_8
LBB73_12:
	movb	$0, -57(%rbp)
	jmp	LBB73_1
LBB73_13:
	testb	$1, -57(%rbp)
	jne	LBB73_12
	jmp	LBB73_1
Ltmp873:
LBB73_14:
Ltmp862:
	.loc	16 0 5 is_stmt 0
	movq	%rax, -32(%rbp)
	movl	%edx, -24(%rbp)
	jmp	LBB73_13
Lfunc_end73:
	.cfi_endproc
	.section	__TEXT,__gcc_except_tab
	.p2align	2
GCC_except_table73:
Lexception24:
	.byte	255
	.byte	255
	.byte	1
	.uleb128 Lcst_end24-Lcst_begin24
Lcst_begin24:
	.uleb128 Ltmp850-Lfunc_begin73
	.uleb128 Ltmp851-Ltmp850
	.uleb128 Ltmp862-Lfunc_begin73
	.byte	0
	.uleb128 Ltmp851-Lfunc_begin73
	.uleb128 Ltmp852-Ltmp851
	.byte	0
	.byte	0
	.uleb128 Ltmp852-Lfunc_begin73
	.uleb128 Ltmp859-Ltmp852
	.uleb128 Ltmp862-Lfunc_begin73
	.byte	0
Lcst_end24:
	.p2align	2

	.section	__TEXT,__text,regular,pure_instructions
	.p2align	4, 0x90
__ZN3std6thread5local17LocalKey$LT$T$GT$8try_with17hb11d662edac78f77E:
Lfunc_begin74:
	.loc	16 257 0 is_stmt 1
	.cfi_startproc
	.cfi_personality 155, _rust_eh_personality
	.cfi_lsda 16, Lexception25
	pushq	%rbp
	.cfi_def_cfa_offset 16
	.cfi_offset %rbp, -16
	movq	%rsp, %rbp
	.cfi_def_cfa_register %rbp
	subq	$192, %rsp
	movq	%rdi, -48(%rbp)
Ltmp887:
	.loc	16 262 17 prologue_end
	movb	$0, -49(%rbp)
	movb	$1, -49(%rbp)
	.loc	16 262 32 is_stmt 0
	movq	(%rdi), %rax
Ltmp874:
	movq	%rsi, -160(%rbp)
Ltmp888:
	callq	*%rax
Ltmp875:
	movq	%rax, -168(%rbp)
	jmp	LBB74_2
Ltmp889:
LBB74_1:
	.loc	16 257 5 is_stmt 1
	movq	-32(%rbp), %rdi
	callq	__Unwind_Resume
	ud2
Ltmp890:
LBB74_2:
Ltmp876:
	.loc	16 0 5 is_stmt 0
	movq	-168(%rbp), %rdi
	.loc	16 262 32 is_stmt 1
	callq	__ZN4core6option15Option$LT$T$GT$5ok_or17h8f5e0cb169f4dc29E
Ltmp877:
	movq	%rax, -176(%rbp)
	jmp	LBB74_3
Ltmp891:
LBB74_3:
Ltmp878:
	.loc	16 0 32 is_stmt 0
	movq	-176(%rbp), %rdi
	.loc	16 262 32
	callq	__ZN73_$LT$core..result..Result$LT$T$C$E$GT$$u20$as$u20$core..ops..try..Try$GT$11into_result17hb8d60d89c36f8150E
Ltmp879:
	movq	%rax, -184(%rbp)
	jmp	LBB74_4
Ltmp892:
LBB74_4:
	.loc	16 0 32
	movq	-184(%rbp), %rax
	.loc	16 262 32
	movq	%rax, -144(%rbp)
	.loc	16 262 82
	movq	-144(%rbp), %rcx
	testq	%rcx, %rcx
	sete	%dl
	movzbl	%dl, %esi
	movl	%esi, %ecx
	jne	LBB74_5
	jmp	LBB74_15
Ltmp893:
LBB74_15:
	jmp	LBB74_7
Ltmp894:
LBB74_5:
	.loc	16 262 32
	movq	-144(%rbp), %rax
	movq	%rax, -16(%rbp)
Ltmp895:
	.loc	16 262 32
	movq	%rax, -8(%rbp)
Ltmp896:
	.loc	16 263 16 is_stmt 1
	movb	$0, -49(%rbp)
	movl	$9, %ecx
	leaq	-136(%rbp), %rdx
	movq	%rdx, %rdi
	movq	-160(%rbp), %rsi
	rep;movsq (%rsi), %es:(%rdi)
	movq	%rax, -64(%rbp)
	movq	-64(%rbp), %rsi
Ltmp884:
	movq	%rdx, %rdi
	callq	__ZN10proc_macro6bridge6client44_$LT$impl$u20$proc_macro..bridge..Bridge$GT$5enter28_$u7b$$u7b$closure$u7d$$u7d$17h0707ac364d787039E
Ltmp885:
	jmp	LBB74_11
Ltmp897:
	.loc	16 262 32
	ud2
LBB74_7:
Ltmp898:
Ltmp880:
	.loc	16 262 82 is_stmt 0
	callq	__ZN50_$LT$T$u20$as$u20$core..convert..From$LT$T$GT$$GT$4from17hcfc0c1e0a976b30bE
Ltmp881:
	jmp	LBB74_9
Ltmp899:
LBB74_8:
	.loc	16 265 6 is_stmt 1
	movb	-145(%rbp), %al
	andb	$1, %al
	movzbl	%al, %eax
	addq	$192, %rsp
	popq	%rbp
	retq
Ltmp900:
LBB74_9:
Ltmp882:
	.loc	16 262 82
	callq	__ZN73_$LT$core..result..Result$LT$T$C$E$GT$$u20$as$u20$core..ops..try..Try$GT$10from_error17hddad1c3a40660a7fE
Ltmp883:
	movb	%al, -185(%rbp)
	jmp	LBB74_10
Ltmp901:
LBB74_10:
	.loc	16 0 82 is_stmt 0
	movb	-185(%rbp), %al
	.loc	16 262 82
	andb	$1, %al
	movb	%al, -145(%rbp)
Ltmp902:
	.loc	16 265 5 is_stmt 1
	movb	$0, -49(%rbp)
	movq	-160(%rbp), %rdi
	callq	__ZN4core3ptr13drop_in_place17hf0107395c0d4208dE
	jmp	LBB74_8
Ltmp903:
LBB74_11:
	.loc	16 263 13
	movb	$0, -145(%rbp)
Ltmp904:
	.loc	16 265 5
	jmp	LBB74_8
Ltmp905:
LBB74_12:
	movb	$0, -49(%rbp)
	movq	-160(%rbp), %rdi
	callq	__ZN4core3ptr13drop_in_place17hf0107395c0d4208dE
	jmp	LBB74_1
Ltmp906:
LBB74_13:
	testb	$1, -49(%rbp)
	jne	LBB74_12
	jmp	LBB74_1
Ltmp907:
LBB74_14:
Ltmp886:
	.loc	16 0 5 is_stmt 0
	movq	%rax, -32(%rbp)
	movl	%edx, -24(%rbp)
	jmp	LBB74_13
Lfunc_end74:
	.cfi_endproc
	.section	__TEXT,__gcc_except_tab
	.p2align	2
GCC_except_table74:
Lexception25:
	.byte	255
	.byte	255
	.byte	1
	.uleb128 Lcst_end25-Lcst_begin25
Lcst_begin25:
	.uleb128 Ltmp874-Lfunc_begin74
	.uleb128 Ltmp875-Ltmp874
	.uleb128 Ltmp886-Lfunc_begin74
	.byte	0
	.uleb128 Ltmp875-Lfunc_begin74
	.uleb128 Ltmp876-Ltmp875
	.byte	0
	.byte	0
	.uleb128 Ltmp876-Lfunc_begin74
	.uleb128 Ltmp883-Ltmp876
	.uleb128 Ltmp886-Lfunc_begin74
	.byte	0
	.uleb128 Ltmp883-Lfunc_begin74
	.uleb128 Lfunc_end74-Ltmp883
	.byte	0
	.byte	0
Lcst_end25:
	.p2align	2

	.section	__TEXT,__text,regular,pure_instructions
	.p2align	4, 0x90
__ZN3std6thread5local17LocalKey$LT$T$GT$8try_with17hfc78aab798ba0189E:
Lfunc_begin75:
	.loc	16 257 0 is_stmt 1
	.cfi_startproc
	.cfi_personality 155, _rust_eh_personality
	.cfi_lsda 16, Lexception26
	pushq	%rbp
	.cfi_def_cfa_offset 16
	.cfi_offset %rbp, -16
	movq	%rsp, %rbp
	.cfi_def_cfa_register %rbp
	subq	$128, %rsp
	movq	%rdi, -56(%rbp)
Ltmp921:
	.loc	16 262 17 prologue_end
	movb	$0, -57(%rbp)
	movb	$1, -57(%rbp)
	.loc	16 262 32 is_stmt 0
	movq	(%rdi), %rax
Ltmp908:
	callq	*%rax
Ltmp909:
	movq	%rax, -96(%rbp)
	jmp	LBB75_2
LBB75_1:
	.loc	16 257 5 is_stmt 1
	movq	-32(%rbp), %rdi
	callq	__Unwind_Resume
	ud2
LBB75_2:
Ltmp910:
	.loc	16 0 5 is_stmt 0
	movq	-96(%rbp), %rdi
	.loc	16 262 32 is_stmt 1
	callq	__ZN4core6option15Option$LT$T$GT$5ok_or17h8f5e0cb169f4dc29E
Ltmp911:
	movq	%rax, -104(%rbp)
	jmp	LBB75_3
LBB75_3:
Ltmp912:
	.loc	16 0 32 is_stmt 0
	movq	-104(%rbp), %rdi
	.loc	16 262 32
	callq	__ZN73_$LT$core..result..Result$LT$T$C$E$GT$$u20$as$u20$core..ops..try..Try$GT$11into_result17hb8d60d89c36f8150E
Ltmp913:
	movq	%rax, -112(%rbp)
	jmp	LBB75_4
LBB75_4:
	.loc	16 0 32
	movq	-112(%rbp), %rax
	.loc	16 262 32
	movq	%rax, -80(%rbp)
	.loc	16 262 82
	movq	-80(%rbp), %rcx
	testq	%rcx, %rcx
	sete	%dl
	movzbl	%dl, %esi
	movl	%esi, %ecx
	jne	LBB75_5
	jmp	LBB75_15
LBB75_15:
	jmp	LBB75_7
LBB75_5:
	.loc	16 262 32
	movq	-80(%rbp), %rax
	movq	%rax, -16(%rbp)
Ltmp922:
	.loc	16 262 32
	movq	%rax, -8(%rbp)
Ltmp923:
	.loc	16 263 16 is_stmt 1
	movb	$0, -57(%rbp)
	movq	%rax, -72(%rbp)
	movq	-72(%rbp), %rdi
Ltmp918:
	callq	__ZN10proc_macro6bridge6client11BridgeState4with28_$u7b$$u7b$closure$u7d$$u7d$17h2d4262895442b1dbE
Ltmp919:
	movb	%al, -113(%rbp)
	jmp	LBB75_11
Ltmp924:
	.loc	16 262 32
	ud2
LBB75_7:
Ltmp914:
Ltmp925:
	.loc	16 262 82 is_stmt 0
	callq	__ZN50_$LT$T$u20$as$u20$core..convert..From$LT$T$GT$$GT$4from17hcfc0c1e0a976b30bE
Ltmp915:
	jmp	LBB75_9
Ltmp926:
LBB75_8:
	.loc	16 265 6 is_stmt 1
	movb	-81(%rbp), %al
	addq	$128, %rsp
	popq	%rbp
	retq
LBB75_9:
Ltmp916:
Ltmp927:
	.loc	16 262 82
	callq	__ZN73_$LT$core..result..Result$LT$T$C$E$GT$$u20$as$u20$core..ops..try..Try$GT$10from_error17h88973a9595391d41E
Ltmp917:
	movb	%al, -114(%rbp)
	jmp	LBB75_10
LBB75_10:
	.loc	16 0 82 is_stmt 0
	movb	-114(%rbp), %al
	.loc	16 262 82
	movb	%al, -81(%rbp)
Ltmp928:
	.loc	16 265 5 is_stmt 1
	movb	$0, -57(%rbp)
	jmp	LBB75_8
LBB75_11:
	.loc	16 0 5 is_stmt 0
	movb	-113(%rbp), %al
Ltmp929:
	.loc	16 263 13 is_stmt 1
	andb	$1, %al
	movb	%al, -81(%rbp)
Ltmp930:
	.loc	16 265 5
	jmp	LBB75_8
LBB75_12:
	movb	$0, -57(%rbp)
	jmp	LBB75_1
LBB75_13:
	testb	$1, -57(%rbp)
	jne	LBB75_12
	jmp	LBB75_1
Ltmp931:
LBB75_14:
Ltmp920:
	.loc	16 0 5 is_stmt 0
	movq	%rax, -32(%rbp)
	movl	%edx, -24(%rbp)
	jmp	LBB75_13
Lfunc_end75:
	.cfi_endproc
	.section	__TEXT,__gcc_except_tab
	.p2align	2
GCC_except_table75:
Lexception26:
	.byte	255
	.byte	255
	.byte	1
	.uleb128 Lcst_end26-Lcst_begin26
Lcst_begin26:
	.uleb128 Ltmp908-Lfunc_begin75
	.uleb128 Ltmp909-Ltmp908
	.uleb128 Ltmp920-Lfunc_begin75
	.byte	0
	.uleb128 Ltmp909-Lfunc_begin75
	.uleb128 Ltmp910-Ltmp909
	.byte	0
	.byte	0
	.uleb128 Ltmp910-Lfunc_begin75
	.uleb128 Ltmp917-Ltmp910
	.uleb128 Ltmp920-Lfunc_begin75
	.byte	0
Lcst_end26:
	.p2align	2

	.section	__TEXT,__text,regular,pure_instructions
	.p2align	4, 0x90
__ZN3std9panicking3try17hbda68194cf7aca99E:
Lfunc_begin76:
	.file	17 "/rustc/6c8927b0cf80ceee19386026cf9d7fd4fd9d486f/src/libstd/panicking.rs"
	.loc	17 291 0 is_stmt 1
	.cfi_startproc
	pushq	%rbp
	.cfi_def_cfa_offset 16
	.cfi_offset %rbp, -16
	movq	%rsp, %rbp
	.cfi_def_cfa_register %rbp
	subq	$400, %rsp
Ltmp932:
	.loc	17 322 48 prologue_end
	leaq	-176(%rbp), %rax
	movq	%rax, %rcx
	movq	%rdi, -344(%rbp)
Ltmp933:
	movq	%rcx, %rdi
	movq	-344(%rbp), %rsi
Ltmp934:
	movl	$72, %ecx
	movq	%rcx, %rdx
	movq	%rax, -352(%rbp)
	movq	%rcx, -360(%rbp)
	callq	_memcpy
Ltmp935:
	.file	18 "/rustc/6c8927b0cf80ceee19386026cf9d7fd4fd9d486f/src/libcore/mem/manually_drop.rs"
	.loc	18 83 24
	leaq	-88(%rbp), %rax
	movq	%rax, %rcx
	movq	-352(%rbp), %rdx
	movq	%rcx, %rdi
	movq	%rdx, %rsi
	movq	-360(%rbp), %rdx
	movq	%rax, -368(%rbp)
	callq	_memcpy
	.loc	18 83 9 is_stmt 0
	leaq	-248(%rbp), %rax
	movq	-368(%rbp), %rcx
	movq	%rax, %rdi
	movq	%rcx, %rsi
	movq	-360(%rbp), %rdx
	callq	_memcpy
Ltmp936:
	.loc	17 322 20 is_stmt 1
	leaq	-320(%rbp), %rax
	movq	%rax, %rcx
	leaq	-248(%rbp), %rdx
	movq	%rcx, %rdi
	movq	%rdx, %rsi
	movl	$72, %edx
	movq	%rax, -376(%rbp)
	callq	_memcpy
	movq	-376(%rbp), %rax
Ltmp937:
	.loc	17 324 20
	movq	%rax, -104(%rbp)
Ltmp938:
	.loc	17 325 15
	leaq	__ZN3std9panicking3try7do_call17h861ad64e960528dcE(%rip), %rdi
	movq	%rax, %rsi
	leaq	__ZN3std9panicking3try8do_catch17h7c9ad48d80b17c15E(%rip), %rdx
	callq	___rust_try
	movl	%eax, -92(%rbp)
	movl	-92(%rbp), %eax
	movl	%eax, -380(%rbp)
	.loc	17 0 15 is_stmt 0
	movl	-380(%rbp), %eax
	.loc	17 325 15
	cmpl	$0, %eax
	.loc	17 325 12
	je	LBB76_4
	.loc	17 328 38 is_stmt 1
	movq	-320(%rbp), %rax
	movq	-312(%rbp), %rcx
	movq	%rax, -16(%rbp)
	movq	%rcx, -8(%rbp)
	movq	%rax, -392(%rbp)
	movq	%rcx, -400(%rbp)
	.loc	17 328 13 is_stmt 0
	jmp	LBB76_6
LBB76_4:
	.loc	17 326 12 is_stmt 1
	jmp	LBB76_5
LBB76_5:
	.loc	17 326 9 is_stmt 0
	movq	$0, -336(%rbp)
	.loc	17 325 12 is_stmt 1
	jmp	LBB76_7
LBB76_6:
	.loc	17 0 12 is_stmt 0
	movq	-392(%rbp), %rax
	.loc	17 328 9 is_stmt 1
	movq	%rax, -336(%rbp)
	movq	-400(%rbp), %rcx
	movq	%rcx, -328(%rbp)
Ltmp939:
LBB76_7:
	.loc	17 364 2
	movq	-336(%rbp), %rax
	movq	-328(%rbp), %rdx
	addq	$400, %rsp
	popq	%rbp
	retq
Ltmp940:
Lfunc_end76:
	.cfi_endproc

	.p2align	4, 0x90
__ZN3std9panicking3try7do_call17h861ad64e960528dcE:
Lfunc_begin77:
	.loc	17 343 0
	.cfi_startproc
	pushq	%rbp
	.cfi_def_cfa_offset 16
	.cfi_offset %rbp, -16
	movq	%rsp, %rbp
	.cfi_def_cfa_register %rbp
	subq	$192, %rsp
	movq	%rdi, -32(%rbp)
Ltmp941:
	.loc	17 345 24 prologue_end
	movq	%rdi, -24(%rbp)
Ltmp942:
	.loc	17 346 24
	movq	%rdi, -16(%rbp)
Ltmp943:
	.loc	17 347 21
	leaq	-176(%rbp), %rax
Ltmp944:
	.loc	17 0 21 is_stmt 0
	movq	%rdi, -184(%rbp)
	.loc	17 347 21
	movq	%rax, %rdi
	movq	-184(%rbp), %rsi
	callq	__ZN4core3mem13manually_drop21ManuallyDrop$LT$T$GT$4take17ha697840ddd3dc6beE
Ltmp945:
	.loc	17 348 40 is_stmt 1
	leaq	-104(%rbp), %rax
	movq	%rax, %rcx
	leaq	-176(%rbp), %rdx
	movq	%rcx, %rdi
	movq	%rdx, %rsi
	movl	$72, %edx
	movq	%rax, -192(%rbp)
	callq	_memcpy
	movq	-192(%rbp), %rdi
	callq	__ZN101_$LT$std..panic..AssertUnwindSafe$LT$F$GT$$u20$as$u20$core..ops..function..FnOnce$LT$$LP$$RP$$GT$$GT$9call_once17h3504ba67bf03bacdE
Ltmp946:
	.loc	17 350 6
	addq	$192, %rsp
	popq	%rbp
	retq
Ltmp947:
Lfunc_end77:
	.cfi_endproc

	.p2align	4, 0x90
__ZN3std9panicking3try8do_catch17h7c9ad48d80b17c15E:
Lfunc_begin78:
	.loc	17 356 0
	.cfi_startproc
	pushq	%rbp
	.cfi_def_cfa_offset 16
	.cfi_offset %rbp, -16
	movq	%rsp, %rbp
	.cfi_def_cfa_register %rbp
	subq	$128, %rsp
	movq	%rdi, -80(%rbp)
	movq	%rsi, -72(%rbp)
Ltmp948:
	.loc	17 358 24 prologue_end
	movq	%rdi, -64(%rbp)
Ltmp949:
	.loc	17 359 24
	movq	%rdi, -56(%rbp)
	movq	%rdi, -88(%rbp)
Ltmp950:
	.loc	17 360 23
	movq	%rsi, %rdi
	callq	__ZN3std9panicking3try7cleanup17hd630ddf77975344aE
	movq	%rax, -48(%rbp)
	movq	%rdx, -40(%rbp)
	movq	%rax, -96(%rbp)
	movq	%rdx, -104(%rbp)
	.loc	17 0 23 is_stmt 0
	movq	-96(%rbp), %rax
	movq	%rax, -16(%rbp)
	movq	-104(%rbp), %rcx
	movq	%rcx, -8(%rbp)
Ltmp951:
	.loc	18 83 9 is_stmt 1
	movq	%rax, -32(%rbp)
	movq	%rcx, -24(%rbp)
	.loc	18 84 6
	movq	-32(%rbp), %rdx
	movq	-24(%rbp), %rsi
	movq	%rdx, -112(%rbp)
	movq	%rsi, -120(%rbp)
Ltmp952:
	.loc	18 0 6 is_stmt 0
	movq	-88(%rbp), %rax
	movq	-112(%rbp), %rcx
	.loc	17 361 13 is_stmt 1
	movq	%rcx, (%rax)
	movq	-120(%rbp), %rdx
	movq	%rdx, 8(%rax)
Ltmp953:
	.loc	17 363 6
	addq	$128, %rsp
	popq	%rbp
	retq
Ltmp954:
Lfunc_end78:
	.cfi_endproc

	.p2align	4, 0x90
__ZN3syn10punctuated23Punctuated$LT$T$C$P$GT$3len17hf9e40ffcbbcc7032E:
Lfunc_begin79:
	.loc	5 70 0
	.cfi_startproc
	pushq	%rbp
	.cfi_def_cfa_offset 16
	.cfi_offset %rbp, -16
	movq	%rsp, %rbp
	.cfi_def_cfa_register %rbp
	subq	$48, %rsp
	movq	%rdi, -8(%rbp)
Ltmp955:
	.loc	5 71 9 prologue_end
	movq	%rdi, %rax
	movq	%rdi, -24(%rbp)
	movq	%rax, %rdi
	callq	__ZN5alloc3vec12Vec$LT$T$GT$3len17hd17bfed58a36b51dE
	movq	%rax, -32(%rbp)
	.loc	5 0 9 is_stmt 0
	movq	-24(%rbp), %rax
	.loc	5 71 31
	addq	$24, %rax
	movq	%rax, %rdi
	callq	__ZN4core6option15Option$LT$T$GT$7is_some17h7db8cc37ff2ebe0eE
	movb	%al, -33(%rbp)
	.loc	5 0 31
	movb	-33(%rbp), %al
	.loc	5 71 28
	testb	$1, %al
	jne	LBB79_4
	jmp	LBB79_3
LBB79_3:
	.loc	5 71 64
	movq	$0, -16(%rbp)
	.loc	5 71 28
	jmp	LBB79_5
LBB79_4:
	.loc	5 71 53
	movq	$1, -16(%rbp)
LBB79_5:
	.loc	5 0 53
	movq	-32(%rbp), %rax
	.loc	5 71 9
	addq	-16(%rbp), %rax
	setb	%cl
	testb	$1, %cl
	movq	%rax, -48(%rbp)
	jne	LBB79_7
	.loc	5 0 9
	movq	-48(%rbp), %rax
	.loc	5 72 6 is_stmt 1
	addq	$48, %rsp
	popq	%rbp
	retq
LBB79_7:
	.loc	5 71 9
	leaq	_str.0(%rip), %rdi
	leaq	l___unnamed_18(%rip), %rdx
	movl	$28, %esi
	callq	__ZN4core9panicking5panic17h383a6b80ea7021aaE
Ltmp956:
Lfunc_end79:
	.cfi_endproc

	.p2align	4, 0x90
__ZN3syn10punctuated23Punctuated$LT$T$C$P$GT$4iter17h8f81c1b30d6ec3d1E:
Lfunc_begin80:
	.loc	5 95 0
	.cfi_startproc
	pushq	%rbp
	.cfi_def_cfa_offset 16
	.cfi_offset %rbp, -16
	movq	%rsp, %rbp
	.cfi_def_cfa_register %rbp
	subq	$128, %rsp
	movq	%rdi, -8(%rbp)
Ltmp957:
	.loc	5 98 24 prologue_end
	movq	%rdi, %rax
	movq	%rdi, -56(%rbp)
	movq	%rax, %rdi
	callq	__ZN68_$LT$alloc..vec..Vec$LT$T$GT$$u20$as$u20$core..ops..deref..Deref$GT$5deref17h0355088701e75b4dE
	movq	%rax, -64(%rbp)
	movq	%rdx, -72(%rbp)
	.loc	5 0 24 is_stmt 0
	movq	-64(%rbp), %rdi
	movq	-72(%rbp), %rsi
	.loc	5 98 24
	callq	__ZN4core5slice29_$LT$impl$u20$$u5b$T$u5d$$GT$4iter17h0ad2442ec92e83e4E
	movq	%rax, -80(%rbp)
	movq	%rdx, -88(%rbp)
	.loc	5 0 24
	movq	-56(%rbp), %rax
	.loc	5 99 23 is_stmt 1
	addq	$24, %rax
	movq	%rax, %rdi
	callq	__ZN4core6option15Option$LT$T$GT$6as_ref17h9f11bd2df047ad7aE
	movq	%rax, -96(%rbp)
	.loc	5 0 23 is_stmt 0
	movq	-96(%rbp), %rdi
	.loc	5 99 23
	callq	__ZN4core6option15Option$LT$T$GT$3map17h649ff7ccb7fdeaf3E
	movq	%rax, -104(%rbp)
	.loc	5 0 23
	movq	-104(%rbp), %rdi
	.loc	5 99 23
	callq	__ZN91_$LT$core..option..Option$LT$T$GT$$u20$as$u20$core..iter..traits..collect..IntoIterator$GT$9into_iter17h314d1dc08e8a96f9E
	movq	%rax, -112(%rbp)
	.loc	5 0 23
	movq	-80(%rbp), %rax
	.loc	5 97 29 is_stmt 1
	movq	%rax, -32(%rbp)
	movq	-88(%rbp), %rcx
	movq	%rcx, -24(%rbp)
	movq	-112(%rbp), %rdx
	movq	%rdx, -16(%rbp)
Ltmp958:
	.loc	11 176 9
	movl	$24, %edi
	movl	$8, %esi
	callq	__ZN5alloc5alloc15exchange_malloc17h7aa1e190740754b7E
	movq	%rax, %rcx
	.loc	11 176 13 is_stmt 0
	movq	-32(%rbp), %rdx
	movq	%rdx, (%rax)
	movq	-24(%rbp), %rdx
	movq	%rdx, 8(%rax)
	movq	-16(%rbp), %rdx
	movq	%rdx, 16(%rax)
	movq	%rcx, -120(%rbp)
Ltmp959:
	.loc	11 0 13
	movq	-120(%rbp), %rax
	.loc	5 96 9 is_stmt 1
	movq	%rax, -48(%rbp)
	leaq	l___unnamed_3(%rip), %rcx
	movq	%rcx, -40(%rbp)
	.loc	5 102 6
	movq	-48(%rbp), %rax
	movq	-40(%rbp), %rdx
	addq	$128, %rsp
	popq	%rbp
	retq
Ltmp960:
Lfunc_end80:
	.cfi_endproc

	.p2align	4, 0x90
__ZN3syn10punctuated23Punctuated$LT$T$C$P$GT$5first17h857b86bc4c4a2617E:
Lfunc_begin81:
	.loc	5 75 0
	.cfi_startproc
	.cfi_personality 155, _rust_eh_personality
	.cfi_lsda 16, Lexception27
	pushq	%rbp
	.cfi_def_cfa_offset 16
	.cfi_offset %rbp, -16
	movq	%rsp, %rbp
	.cfi_def_cfa_register %rbp
	subq	$48, %rsp
	movq	%rdi, -24(%rbp)
Ltmp964:
	.loc	5 76 9 prologue_end
	callq	__ZN3syn10punctuated23Punctuated$LT$T$C$P$GT$4iter17h8f81c1b30d6ec3d1E
	movq	%rdx, -32(%rbp)
	movq	%rax, -40(%rbp)
	jmp	LBB81_2
LBB81_1:
	.loc	5 75 5
	movq	-16(%rbp), %rdi
	callq	__Unwind_Resume
	ud2
LBB81_2:
Ltmp961:
	.loc	5 0 5 is_stmt 0
	leaq	-40(%rbp), %rdi
	.loc	5 76 9 is_stmt 1
	callq	__ZN89_$LT$syn..punctuated..Iter$LT$T$GT$$u20$as$u20$core..iter..traits..iterator..Iterator$GT$4next17hadeec21b522b1b1dE
Ltmp962:
	movq	%rax, -48(%rbp)
	jmp	LBB81_3
LBB81_3:
	.loc	5 77 5
	leaq	-40(%rbp), %rdi
	callq	__ZN4core3ptr13drop_in_place17h18b8a22c753047f7E
	jmp	LBB81_5
LBB81_4:
	leaq	-40(%rbp), %rdi
	callq	__ZN4core3ptr13drop_in_place17h18b8a22c753047f7E
	jmp	LBB81_1
LBB81_5:
	.loc	5 0 5 is_stmt 0
	movq	-48(%rbp), %rax
	.loc	5 77 6
	addq	$48, %rsp
	popq	%rbp
	retq
Ltmp965:
LBB81_6:
Ltmp963:
	.loc	5 0 6
	movq	%rax, -16(%rbp)
	movl	%edx, -8(%rbp)
	jmp	LBB81_4
Lfunc_end81:
	.cfi_endproc
	.section	__TEXT,__gcc_except_tab
	.p2align	2
GCC_except_table81:
Lexception27:
	.byte	255
	.byte	255
	.byte	1
	.uleb128 Lcst_end27-Lcst_begin27
Lcst_begin27:
	.uleb128 Lfunc_begin81-Lfunc_begin81
	.uleb128 Ltmp961-Lfunc_begin81
	.byte	0
	.byte	0
	.uleb128 Ltmp961-Lfunc_begin81
	.uleb128 Ltmp962-Ltmp961
	.uleb128 Ltmp963-Lfunc_begin81
	.byte	0
	.uleb128 Ltmp962-Lfunc_begin81
	.uleb128 Lfunc_end81-Ltmp962
	.byte	0
	.byte	0
Lcst_end27:
	.p2align	2

	.section	__TEXT,__text,regular,pure_instructions
	.p2align	4, 0x90
__ZN3syn10punctuated23Punctuated$LT$T$C$P$GT$8is_empty17h334a346ac2f1a4b6E:
Lfunc_begin82:
	.loc	5 62 0 is_stmt 1
	.cfi_startproc
	pushq	%rbp
	.cfi_def_cfa_offset 16
	.cfi_offset %rbp, -16
	movq	%rsp, %rbp
	.cfi_def_cfa_register %rbp
	subq	$48, %rsp
	movq	%rdi, -8(%rbp)
Ltmp966:
	.loc	5 63 9 prologue_end
	movq	%rdi, %rax
	movq	%rdi, -24(%rbp)
	movq	%rax, %rdi
	callq	__ZN5alloc3vec12Vec$LT$T$GT$3len17hd17bfed58a36b51dE
	movq	%rax, -32(%rbp)
	jmp	LBB82_5
LBB82_1:
	movb	$1, -9(%rbp)
	jmp	LBB82_4
LBB82_2:
	movb	$0, -9(%rbp)
	jmp	LBB82_4
LBB82_3:
	.loc	5 0 9 is_stmt 0
	movq	-24(%rbp), %rax
	.loc	5 63 34
	addq	$24, %rax
	movq	%rax, %rdi
	callq	__ZN4core6option15Option$LT$T$GT$7is_none17h424b22677e490ddcE
	movb	%al, -33(%rbp)
	jmp	LBB82_6
LBB82_4:
	.loc	5 64 6 is_stmt 1
	movb	-9(%rbp), %al
	andb	$1, %al
	movzbl	%al, %eax
	addq	$48, %rsp
	popq	%rbp
	retq
LBB82_5:
	.loc	5 0 6 is_stmt 0
	movq	-32(%rbp), %rax
	.loc	5 63 9 is_stmt 1
	cmpq	$0, %rax
	je	LBB82_3
	jmp	LBB82_2
LBB82_6:
	.loc	5 0 9 is_stmt 0
	movb	-33(%rbp), %al
	.loc	5 63 9
	testb	$1, %al
	jne	LBB82_1
	jmp	LBB82_2
Ltmp967:
Lfunc_end82:
	.cfi_endproc

	.p2align	4, 0x90
__ZN3syn3lit6LitInt12base10_parse17h49068bde1e1463deE:
Lfunc_begin83:
	.file	19 "/Users/yingyuhang/.cargo/registry/src/github.com-1ecc6299db9ec823/syn-1.0.33/src/lit.rs"
	.loc	19 462 0 is_stmt 1
	.cfi_startproc
	pushq	%rbp
	.cfi_def_cfa_offset 16
	.cfi_offset %rbp, -16
	movq	%rsp, %rbp
	.cfi_def_cfa_register %rbp
	subq	$64, %rsp
	movq	%rdi, %rax
	movq	%rsi, -32(%rbp)
Ltmp968:
	.loc	19 467 9 prologue_end
	movq	-32(%rbp), %rcx
	movq	%rdi, -40(%rbp)
	movq	%rcx, %rdi
	movq	%rax, -48(%rbp)
	callq	__ZN3syn3lit6LitInt13base10_digits17h13db093238ef0934E
	movq	%rax, -56(%rbp)
	movq	%rdx, -64(%rbp)
	leaq	-24(%rbp), %rdi
	movq	-56(%rbp), %rsi
	movq	-64(%rbp), %rdx
	callq	__ZN4core3str21_$LT$impl$u20$str$GT$5parse17h69854eef71dc52abE
	.loc	19 469 22
	leaq	-32(%rbp), %rax
	movq	%rax, -8(%rbp)
	.loc	19 467 9
	movq	-8(%rbp), %rdx
	movq	-40(%rbp), %rdi
	leaq	-24(%rbp), %rsi
	callq	__ZN4core6result19Result$LT$T$C$E$GT$7map_err17h1ec955f8595d83bfE
	.loc	19 0 9 is_stmt 0
	movq	-48(%rbp), %rax
	.loc	19 470 6 is_stmt 1
	addq	$64, %rsp
	popq	%rbp
	retq
Ltmp969:
Lfunc_end83:
	.cfi_endproc

	.p2align	4, 0x90
__ZN3syn3lit6LitInt12base10_parse28_$u7b$$u7b$closure$u7d$$u7d$17h7bfcce77bf304947E:
Lfunc_begin84:
	.loc	19 469 0
	.cfi_startproc
	.cfi_personality 155, _rust_eh_personality
	.cfi_lsda 16, Lexception28
	pushq	%rbp
	.cfi_def_cfa_offset 16
	.cfi_offset %rbp, -16
	movq	%rsp, %rbp
	.cfi_def_cfa_register %rbp
	subq	$80, %rsp
	movq	%rdi, %rax
	movq	%rsi, -40(%rbp)
	movb	%dl, -25(%rbp)
Ltmp975:
	.loc	19 469 39 prologue_end
	movb	$0, -41(%rbp)
	movb	$1, -41(%rbp)
	movq	(%rsi), %rcx
Ltmp970:
	movq	%rdi, -56(%rbp)
	movq	%rcx, %rdi
	movb	%dl, -57(%rbp)
	movq	%rax, -72(%rbp)
	callq	__ZN3syn3lit6LitInt4span17h87c5238b34a4775eE
Ltmp971:
	movl	%eax, -76(%rbp)
	jmp	LBB84_2
LBB84_1:
	.loc	19 469 22 is_stmt 0
	movq	-24(%rbp), %rdi
	callq	__Unwind_Resume
	ud2
LBB84_2:
	.loc	19 0 22
	movl	-76(%rbp), %eax
	.loc	19 469 39
	movl	%eax, -4(%rbp)
	movl	-4(%rbp), %ecx
	movl	%ecx, -48(%rbp)
	.loc	19 469 52
	movb	$0, -41(%rbp)
	.loc	19 469 28
	movl	-48(%rbp), %esi
Ltmp972:
	movb	-57(%rbp), %dl
	movzbl	%dl, %edx
	movq	-56(%rbp), %rdi
	callq	__ZN3syn5error5Error3new17h3700164e124edabaE
Ltmp973:
	jmp	LBB84_3
LBB84_3:
	.loc	19 0 28
	movq	-72(%rbp), %rax
	.loc	19 469 56
	addq	$80, %rsp
	popq	%rbp
	retq
LBB84_4:
	.loc	19 469 55
	movb	$0, -41(%rbp)
	jmp	LBB84_1
LBB84_5:
	testb	$1, -41(%rbp)
	jne	LBB84_4
	jmp	LBB84_1
Ltmp976:
LBB84_6:
Ltmp974:
	.loc	19 0 55
	movq	%rax, -24(%rbp)
	movl	%edx, -16(%rbp)
	jmp	LBB84_5
Lfunc_end84:
	.cfi_endproc
	.section	__TEXT,__gcc_except_tab
	.p2align	2
GCC_except_table84:
Lexception28:
	.byte	255
	.byte	255
	.byte	1
	.uleb128 Lcst_end28-Lcst_begin28
Lcst_begin28:
	.uleb128 Ltmp970-Lfunc_begin84
	.uleb128 Ltmp971-Ltmp970
	.uleb128 Ltmp974-Lfunc_begin84
	.byte	0
	.uleb128 Ltmp971-Lfunc_begin84
	.uleb128 Ltmp972-Ltmp971
	.byte	0
	.byte	0
	.uleb128 Ltmp972-Lfunc_begin84
	.uleb128 Ltmp973-Ltmp972
	.uleb128 Ltmp974-Lfunc_begin84
	.byte	0
Lcst_end28:
	.p2align	2

	.section	__TEXT,__text,regular,pure_instructions
	.p2align	4, 0x90
__ZN3syn4path7parsing33_$LT$impl$u20$syn..path..Path$GT$8is_ident17h8763e54a85484a2eE:
Lfunc_begin85:
	.file	20 "/Users/yingyuhang/.cargo/registry/src/github.com-1ecc6299db9ec823/syn-1.0.33/src/path.rs"
	.loc	20 451 0 is_stmt 1
	.cfi_startproc
	pushq	%rbp
	.cfi_def_cfa_offset 16
	.cfi_offset %rbp, -16
	movq	%rsp, %rbp
	.cfi_def_cfa_register %rbp
	subq	$48, %rsp
	movq	%rsi, -40(%rbp)
	movq	%rdi, -8(%rbp)
Ltmp977:
	.loc	20 455 19 prologue_end
	callq	__ZN3syn4path7parsing33_$LT$impl$u20$syn..path..Path$GT$9get_ident17h44b477420f66b1d1E
	movq	%rax, -24(%rbp)
	.loc	20 456 17
	movq	-24(%rbp), %rax
	testq	%rax, %rax
	setne	%cl
	movzbl	%cl, %edx
	movl	%edx, %eax
	je	LBB85_2
	jmp	LBB85_7
LBB85_7:
	jmp	LBB85_4
LBB85_2:
	.loc	20 457 25
	movb	$0, -25(%rbp)
	.loc	20 455 13
	jmp	LBB85_6
	.loc	20 455 19 is_stmt 0
	ud2
LBB85_4:
	.loc	20 456 22 is_stmt 1
	movq	-24(%rbp), %rax
	movq	%rax, -16(%rbp)
Ltmp978:
	.loc	20 456 29 is_stmt 0
	leaq	-16(%rbp), %rdi
	leaq	-40(%rbp), %rsi
	callq	__ZN4core3cmp5impls69_$LT$impl$u20$core..cmp..PartialEq$LT$$RF$B$GT$$u20$for$u20$$RF$A$GT$2eq17h6771ef0e3ed6deedE
	andb	$1, %al
	movb	%al, -25(%rbp)
Ltmp979:
	.loc	20 455 13 is_stmt 1
	jmp	LBB85_6
LBB85_6:
	.loc	20 459 10
	movb	-25(%rbp), %al
	andb	$1, %al
	movzbl	%al, %eax
	addq	$48, %rsp
	popq	%rbp
	retq
Ltmp980:
Lfunc_end85:
	.cfi_endproc

	.p2align	4, 0x90
__ZN3syn4path7parsing33_$LT$impl$u20$syn..path..Path$GT$8is_ident17hff6b3cfc55e43eafE:
Lfunc_begin86:
	.loc	20 451 0
	.cfi_startproc
	pushq	%rbp
	.cfi_def_cfa_offset 16
	.cfi_offset %rbp, -16
	movq	%rsp, %rbp
	.cfi_def_cfa_register %rbp
	subq	$48, %rsp
	movq	%rsi, -48(%rbp)
	movq	%rdx, -40(%rbp)
	movq	%rdi, -8(%rbp)
Ltmp981:
	.loc	20 455 19 prologue_end
	callq	__ZN3syn4path7parsing33_$LT$impl$u20$syn..path..Path$GT$9get_ident17h44b477420f66b1d1E
	movq	%rax, -24(%rbp)
	.loc	20 456 17
	movq	-24(%rbp), %rax
	testq	%rax, %rax
	setne	%cl
	movzbl	%cl, %edx
	movl	%edx, %eax
	je	LBB86_2
	jmp	LBB86_7
LBB86_7:
	jmp	LBB86_4
LBB86_2:
	.loc	20 457 25
	movb	$0, -25(%rbp)
	.loc	20 455 13
	jmp	LBB86_6
	.loc	20 455 19 is_stmt 0
	ud2
LBB86_4:
	.loc	20 456 22 is_stmt 1
	movq	-24(%rbp), %rax
	movq	%rax, -16(%rbp)
Ltmp982:
	.loc	20 456 29 is_stmt 0
	leaq	-16(%rbp), %rdi
	leaq	-48(%rbp), %rsi
	callq	__ZN4core3cmp5impls69_$LT$impl$u20$core..cmp..PartialEq$LT$$RF$B$GT$$u20$for$u20$$RF$A$GT$2eq17h5b8bca71f719dbdcE
	andb	$1, %al
	movb	%al, -25(%rbp)
Ltmp983:
	.loc	20 455 13 is_stmt 1
	jmp	LBB86_6
LBB86_6:
	.loc	20 459 10
	movb	-25(%rbp), %al
	andb	$1, %al
	movzbl	%al, %eax
	addq	$48, %rsp
	popq	%rbp
	retq
Ltmp984:
Lfunc_end86:
	.cfi_endproc

	.p2align	4, 0x90
__ZN3syn5parse17hf32d238a3017cdf8E:
Lfunc_begin87:
	.file	21 "/Users/yingyuhang/.cargo/registry/src/github.com-1ecc6299db9ec823/syn-1.0.33/src/lib.rs"
	.loc	21 850 0
	.cfi_startproc
	pushq	%rbp
	.cfi_def_cfa_offset 16
	.cfi_offset %rbp, -16
	movq	%rsp, %rbp
	.cfi_def_cfa_register %rbp
	subq	$32, %rsp
	movq	%rdi, %rax
	movl	%esi, -12(%rbp)
	movl	-12(%rbp), %ecx
	movl	%ecx, -16(%rbp)
Ltmp985:
	.loc	21 851 36 prologue_end
	movl	-16(%rbp), %ecx
	movl	%ecx, -8(%rbp)
	.loc	21 851 5 is_stmt 0
	movl	-8(%rbp), %esi
	movq	%rax, -24(%rbp)
	callq	__ZN3syn5parse6Parser5parse17h43ef4aa3f4c226f2E
	.loc	21 0 5
	movq	-24(%rbp), %rax
	.loc	21 852 2 is_stmt 1
	addq	$32, %rsp
	popq	%rbp
	retq
Ltmp986:
Lfunc_end87:
	.cfi_endproc

	.p2align	4, 0x90
__ZN3syn5parse6Parser5parse17h43ef4aa3f4c226f2E:
Lfunc_begin88:
	.file	22 "/Users/yingyuhang/.cargo/registry/src/github.com-1ecc6299db9ec823/syn-1.0.33/src/parse.rs"
	.loc	22 1123 0
	.cfi_startproc
	.cfi_personality 155, _rust_eh_personality
	.cfi_lsda 16, Lexception29
	pushq	%rbp
	.cfi_def_cfa_offset 16
	.cfi_offset %rbp, -16
	movq	%rsp, %rbp
	.cfi_def_cfa_register %rbp
	subq	$96, %rsp
	movq	%rdi, %rax
	movl	%esi, -76(%rbp)
	movl	-76(%rbp), %ecx
	movl	%ecx, -80(%rbp)
Ltmp992:
	.loc	22 1124 9 prologue_end
	movb	$0, -25(%rbp)
	movb	$1, -25(%rbp)
	.loc	22 1124 52 is_stmt 0
	movl	-80(%rbp), %ecx
	movl	%ecx, -32(%rbp)
	.loc	22 1124 21
	movl	-32(%rbp), %esi
Ltmp987:
	leaq	-72(%rbp), %rdx
	movq	%rdi, -88(%rbp)
	movq	%rdx, %rdi
	movq	%rax, -96(%rbp)
	callq	__ZN95_$LT$proc_macro2..TokenStream$u20$as$u20$core..convert..From$LT$proc_macro..TokenStream$GT$$GT$4from17h5e7d84d92123fc32E
Ltmp988:
	jmp	LBB88_1
LBB88_1:
	.loc	22 1124 9
	movb	$0, -25(%rbp)
Ltmp989:
	leaq	-72(%rbp), %rsi
	movq	-88(%rbp), %rdi
	callq	__ZN40_$LT$F$u20$as$u20$syn..parse..Parser$GT$6parse217hf489d5aac84a6c61E
Ltmp990:
	jmp	LBB88_3
LBB88_2:
	.loc	22 1123 5 is_stmt 1
	movq	-16(%rbp), %rdi
	callq	__Unwind_Resume
	ud2
LBB88_3:
	.loc	22 1124 59
	movb	$0, -25(%rbp)
	movq	-96(%rbp), %rax
	.loc	22 1125 6
	addq	$96, %rsp
	popq	%rbp
	retq
LBB88_4:
	.loc	22 1124 59
	movb	$0, -25(%rbp)
	jmp	LBB88_2
LBB88_5:
	testb	$1, -25(%rbp)
	jne	LBB88_4
	jmp	LBB88_2
Ltmp993:
LBB88_6:
Ltmp991:
	.loc	22 0 59 is_stmt 0
	movq	%rax, -16(%rbp)
	movl	%edx, -8(%rbp)
	jmp	LBB88_5
Lfunc_end88:
	.cfi_endproc
	.section	__TEXT,__gcc_except_tab
	.p2align	2
GCC_except_table88:
Lexception29:
	.byte	255
	.byte	255
	.byte	1
	.uleb128 Lcst_end29-Lcst_begin29
Lcst_begin29:
	.uleb128 Ltmp987-Lfunc_begin88
	.uleb128 Ltmp990-Ltmp987
	.uleb128 Ltmp991-Lfunc_begin88
	.byte	0
	.uleb128 Ltmp990-Lfunc_begin88
	.uleb128 Lfunc_end88-Ltmp990
	.byte	0
	.byte	0
Lcst_end29:
	.p2align	2

	.section	__TEXT,__text,regular,pure_instructions
	.p2align	4, 0x90
__ZN40_$LT$F$u20$as$u20$syn..parse..Parser$GT$6parse217hf489d5aac84a6c61E:
Lfunc_begin89:
	.loc	22 1169 0 is_stmt 1
	.cfi_startproc
	.cfi_personality 155, _rust_eh_personality
	.cfi_lsda 16, Lexception30
	pushq	%rbp
	.cfi_def_cfa_offset 16
	.cfi_offset %rbp, -16
	movq	%rsp, %rbp
	.cfi_def_cfa_register %rbp
	subq	$1792, %rsp
	movq	%rdi, %rax
Ltmp1038:
	.loc	22 1170 13 prologue_end
	movb	$0, -41(%rbp)
	movb	$0, -42(%rbp)
	movb	$1, -42(%rbp)
	.loc	22 1170 37 is_stmt 0
	movq	32(%rsi), %rcx
	movq	%rcx, -1632(%rbp)
	movq	24(%rsi), %rcx
	movq	%rcx, -1640(%rbp)
	movq	16(%rsi), %rcx
	movq	%rcx, -1648(%rbp)
	movq	(%rsi), %rcx
	movq	8(%rsi), %rdx
	movq	%rdx, -1656(%rbp)
	movq	%rcx, -1664(%rbp)
Ltmp994:
	leaq	-1664(%rbp), %rcx
	movq	%rdi, -1688(%rbp)
	.loc	22 1170 19
	movq	%rcx, %rdi
	movq	%rax, -1696(%rbp)
	callq	__ZN3syn6buffer11TokenBuffer4new217h8a8aba46ab8a3862E
Ltmp1039:
Ltmp995:
	.loc	22 0 19
	movq	%rdx, -1704(%rbp)
	movq	%rax, -1712(%rbp)
	.loc	22 1170 19
	jmp	LBB89_2
LBB89_1:
	.loc	22 1169 5 is_stmt 1
	movq	-24(%rbp), %rdi
	callq	__Unwind_Resume
	ud2
LBB89_2:
	.loc	22 0 5 is_stmt 0
	movq	-1712(%rbp), %rax
	.loc	22 1170 19 is_stmt 1
	movq	%rax, -1680(%rbp)
	movq	-1704(%rbp), %rcx
	movq	%rcx, -1672(%rbp)
Ltmp996:
	leaq	-1624(%rbp), %rdi
	leaq	-1680(%rbp), %rsi
Ltmp1040:
	.loc	22 1171 21
	callq	__ZN3syn5parse22tokens_to_parse_buffer17hf7a66fee4076f869E
Ltmp997:
	jmp	LBB89_3
LBB89_3:
Ltmp1041:
	.loc	22 1172 20
	movb	$0, -42(%rbp)
	leaq	-1624(%rbp), %rax
	movq	%rax, -808(%rbp)
	movq	-808(%rbp), %rsi
Ltmp998:
	leaq	-1072(%rbp), %rdi
	callq	__ZN4core3ops8function6FnOnce9call_once17hf61934c05178d87fE
Ltmp999:
	jmp	LBB89_5
Ltmp1042:
LBB89_4:
	.loc	22 1179 5
	leaq	-1680(%rbp), %rdi
	callq	__ZN4core3ptr13drop_in_place17hd757ad53373d1a33E
	jmp	LBB89_38
LBB89_5:
Ltmp1000:
	.loc	22 0 5 is_stmt 0
	leaq	-1336(%rbp), %rdi
	leaq	-1072(%rbp), %rsi
Ltmp1043:
	.loc	22 1172 20 is_stmt 1
	callq	__ZN73_$LT$core..result..Result$LT$T$C$E$GT$$u20$as$u20$core..ops..try..Try$GT$11into_result17hbcb92fd769e48ec5E
Ltmp1001:
	jmp	LBB89_7
Ltmp1044:
LBB89_6:
	.loc	22 1179 5
	leaq	-1624(%rbp), %rdi
	callq	__ZN4core3ptr13drop_in_place17h95aba3d6fda6f706E
	jmp	LBB89_4
LBB89_7:
Ltmp1045:
	.loc	22 1172 32
	movq	-1336(%rbp), %rax
	testq	%rax, %rax
	je	LBB89_9
	jmp	LBB89_46
LBB89_46:
	jmp	LBB89_11
LBB89_8:
	.loc	22 1172 33 is_stmt 0
	jmp	LBB89_6
LBB89_9:
	.loc	22 1172 20
	leaq	-1328(%rbp), %rsi
	leaq	-728(%rbp), %rax
	movl	$256, %ecx
	movq	%rax, %rdi
	movq	%rcx, %rdx
	movq	%rax, -1720(%rbp)
	movq	%rcx, -1728(%rbp)
	callq	_memcpy
Ltmp1046:
	.loc	22 1172 20
	movb	$1, -41(%rbp)
	leaq	-1592(%rbp), %rdi
	movq	-1720(%rbp), %rsi
	movq	-1728(%rbp), %rdx
	movq	%rax, -1736(%rbp)
	callq	_memcpy
Ltmp1007:
	leaq	-448(%rbp), %rdi
	leaq	-1624(%rbp), %rsi
	movq	%rax, -1744(%rbp)
Ltmp1047:
	.loc	22 1173 9 is_stmt 1
	callq	__ZN3syn5parse11ParseBuffer16check_unexpected17h5035c78eff38fe71E
Ltmp1008:
	jmp	LBB89_19
Ltmp1048:
	.loc	22 1172 20
	ud2
LBB89_11:
	.loc	22 1172 32 is_stmt 0
	movq	-1312(%rbp), %rax
	movq	%rax, -784(%rbp)
	movq	-1328(%rbp), %rax
	movq	-1320(%rbp), %rcx
	movq	%rcx, -792(%rbp)
	movq	%rax, -800(%rbp)
Ltmp1049:
	.loc	22 1172 32
	movq	-784(%rbp), %rax
	movq	%rax, -736(%rbp)
	movq	-800(%rbp), %rax
	movq	-792(%rbp), %rcx
	movq	%rcx, -744(%rbp)
	movq	%rax, -752(%rbp)
Ltmp1002:
	leaq	-776(%rbp), %rdi
	leaq	-752(%rbp), %rsi
	callq	__ZN50_$LT$T$u20$as$u20$core..convert..From$LT$T$GT$$GT$4from17h2fe2f90a20bdd939E
Ltmp1003:
	jmp	LBB89_13
Ltmp1050:
LBB89_12:
	.loc	22 0 32
	movq	-1696(%rbp), %rax
	.loc	22 1179 6 is_stmt 1
	addq	$1792, %rsp
	popq	%rbp
	retq
LBB89_13:
Ltmp1004:
	.loc	22 0 6 is_stmt 0
	leaq	-776(%rbp), %rsi
	movq	-1688(%rbp), %rdi
Ltmp1051:
	.loc	22 1172 32 is_stmt 1
	callq	__ZN73_$LT$core..result..Result$LT$T$C$E$GT$$u20$as$u20$core..ops..try..Try$GT$10from_error17h0e27272e8201a93cE
Ltmp1005:
	jmp	LBB89_14
Ltmp1052:
LBB89_14:
	.loc	22 1179 5
	movb	$0, -41(%rbp)
Ltmp1053:
LBB89_15:
Ltmp1018:
	.loc	22 0 5 is_stmt 0
	leaq	-1624(%rbp), %rdi
	.loc	22 1179 5
	callq	__ZN4core3ptr13drop_in_place17h95aba3d6fda6f706E
Ltmp1019:
	jmp	LBB89_16
Ltmp1054:
LBB89_16:
Ltmp1020:
	.loc	22 0 5
	leaq	-1680(%rbp), %rdi
	.loc	22 1179 5
	callq	__ZN4core3ptr13drop_in_place17hd757ad53373d1a33E
Ltmp1021:
	jmp	LBB89_17
LBB89_17:
	jmp	LBB89_12
LBB89_18:
Ltmp1055:
	.loc	22 1179 5
	movb	$0, -41(%rbp)
	leaq	-1592(%rbp), %rdi
	callq	__ZN4core3ptr13drop_in_place17h870c687bb3df803bE
	jmp	LBB89_6
LBB89_19:
Ltmp1009:
	.loc	22 0 5
	leaq	-472(%rbp), %rdi
	leaq	-448(%rbp), %rsi
Ltmp1056:
	.loc	22 1173 9 is_stmt 1
	callq	__ZN73_$LT$core..result..Result$LT$T$C$E$GT$$u20$as$u20$core..ops..try..Try$GT$11into_result17h96409610f613159dE
Ltmp1010:
	jmp	LBB89_20
LBB89_20:
	.loc	22 1173 33 is_stmt 0
	movq	-472(%rbp), %rax
	testq	%rax, %rax
	setne	%cl
	movzbl	%cl, %edx
	movl	%edx, %eax
	je	LBB89_22
	jmp	LBB89_47
LBB89_47:
	jmp	LBB89_24
LBB89_21:
	.loc	22 1173 34
	jmp	LBB89_18
LBB89_22:
Ltmp1022:
	.loc	22 0 34
	leaq	-1624(%rbp), %rdi
	.loc	22 1174 74 is_stmt 1
	callq	__ZN3syn5parse11ParseBuffer6cursor17h5bc0f6bdc7245ca5E
Ltmp1023:
	movq	%rdx, -1752(%rbp)
	movq	%rax, -1760(%rbp)
	jmp	LBB89_28
	.loc	22 1173 9
	ud2
LBB89_24:
	.loc	22 1173 33 is_stmt 0
	movq	-456(%rbp), %rax
	movq	%rax, -408(%rbp)
	movq	-472(%rbp), %rax
	movq	-464(%rbp), %rcx
	movq	%rcx, -416(%rbp)
	movq	%rax, -424(%rbp)
Ltmp1057:
	.loc	22 1173 33
	movq	-408(%rbp), %rax
	movq	%rax, -360(%rbp)
	movq	-424(%rbp), %rax
	movq	-416(%rbp), %rcx
	movq	%rcx, -368(%rbp)
	movq	%rax, -376(%rbp)
Ltmp1011:
	leaq	-400(%rbp), %rdi
	leaq	-376(%rbp), %rsi
	callq	__ZN50_$LT$T$u20$as$u20$core..convert..From$LT$T$GT$$GT$4from17h2fe2f90a20bdd939E
Ltmp1012:
	jmp	LBB89_25
LBB89_25:
Ltmp1013:
	.loc	22 0 33
	leaq	-400(%rbp), %rsi
	movq	-1688(%rbp), %rdi
	.loc	22 1173 33
	callq	__ZN73_$LT$core..result..Result$LT$T$C$E$GT$$u20$as$u20$core..ops..try..Try$GT$10from_error17h0e27272e8201a93cE
Ltmp1014:
	jmp	LBB89_26
Ltmp1058:
LBB89_26:
	.loc	22 1179 5 is_stmt 1
	movb	$0, -41(%rbp)
Ltmp1016:
	leaq	-1592(%rbp), %rdi
	callq	__ZN4core3ptr13drop_in_place17h870c687bb3df803bE
Ltmp1017:
	jmp	LBB89_27
LBB89_27:
	movb	$0, -41(%rbp)
Ltmp1059:
	.loc	22 1173 33
	jmp	LBB89_15
LBB89_28:
Ltmp1024:
	.loc	22 0 33 is_stmt 0
	movq	-1760(%rbp), %rdi
	movq	-1752(%rbp), %rsi
Ltmp1060:
	.loc	22 1174 40 is_stmt 1
	callq	__ZN3syn5parse33span_of_unexpected_ignoring_nones17hf1fe618db460b156E
Ltmp1025:
	movq	%rax, -1768(%rbp)
	jmp	LBB89_29
LBB89_29:
	.loc	22 0 40 is_stmt 0
	movq	-1768(%rbp), %rax
	.loc	22 1174 40
	movq	%rax, -8(%rbp)
	movq	-8(%rbp), %rcx
	movq	%rcx, -352(%rbp)
	.loc	22 1174 16
	movl	-352(%rbp), %edx
	movl	%edx, %ecx
	cmpq	$1, %rcx
	je	LBB89_31
	.loc	22 1177 16 is_stmt 1
	movb	$0, -41(%rbp)
	leaq	-304(%rbp), %rax
	movq	%rax, %rcx
	leaq	-1592(%rbp), %rdx
	movq	%rcx, %rdi
	movq	%rdx, %rsi
	movl	$256, %ecx
	movq	%rcx, %rdx
	movq	%rax, -1776(%rbp)
	movq	%rcx, -1784(%rbp)
	callq	_memcpy
	movq	-1688(%rbp), %rax
	.loc	22 1177 13 is_stmt 0
	addq	$8, %rax
	movq	-1776(%rbp), %rcx
	movq	%rax, %rdi
	movq	%rcx, %rsi
	movq	-1784(%rbp), %rdx
	callq	_memcpy
	movq	-1688(%rbp), %rax
	movq	$0, (%rax)
	.loc	22 1174 9 is_stmt 1
	jmp	LBB89_33
LBB89_31:
	.loc	22 1174 21 is_stmt 0
	movl	-348(%rbp), %eax
	movl	%eax, -344(%rbp)
Ltmp1061:
	.loc	22 1175 28 is_stmt 1
	movl	-344(%rbp), %eax
	movl	%eax, -312(%rbp)
	.loc	22 1175 17 is_stmt 0
	movl	-312(%rbp), %esi
Ltmp1026:
	leaq	L___unnamed_19(%rip), %rdx
	leaq	-336(%rbp), %rdi
	movl	$16, %ecx
	callq	__ZN3syn5error5Error3new17ha83d42b81fe3ff19E
Ltmp1027:
	jmp	LBB89_32
LBB89_32:
	.loc	22 1175 13
	movq	-336(%rbp), %rax
	movq	-1688(%rbp), %rcx
	movq	%rax, 8(%rcx)
	movq	-328(%rbp), %rax
	movq	%rax, 16(%rcx)
	movq	-320(%rbp), %rax
	movq	%rax, 24(%rcx)
	movq	$1, (%rcx)
Ltmp1062:
LBB89_33:
	.loc	22 1179 5 is_stmt 1
	testb	$1, -41(%rbp)
	jne	LBB89_39
LBB89_34:
	movb	$0, -41(%rbp)
Ltmp1032:
	leaq	-1624(%rbp), %rdi
Ltmp1063:
	.loc	22 1179 5 is_stmt 0
	callq	__ZN4core3ptr13drop_in_place17h95aba3d6fda6f706E
Ltmp1033:
	jmp	LBB89_35
Ltmp1064:
LBB89_35:
Ltmp1035:
	.loc	22 0 5
	leaq	-1680(%rbp), %rdi
	.loc	22 1179 5
	callq	__ZN4core3ptr13drop_in_place17hd757ad53373d1a33E
Ltmp1036:
	jmp	LBB89_36
LBB89_36:
	jmp	LBB89_12
LBB89_37:
	movb	$0, -42(%rbp)
	jmp	LBB89_1
LBB89_38:
	testb	$1, -42(%rbp)
	jne	LBB89_37
	jmp	LBB89_1
LBB89_39:
Ltmp1065:
	.loc	22 1179 5
	movb	$0, -41(%rbp)
Ltmp1029:
	leaq	-1592(%rbp), %rdi
	callq	__ZN4core3ptr13drop_in_place17h870c687bb3df803bE
Ltmp1030:
	jmp	LBB89_34
Ltmp1066:
LBB89_40:
Ltmp1037:
	.loc	22 0 5
	movq	%rax, -24(%rbp)
	movl	%edx, -16(%rbp)
	jmp	LBB89_38
LBB89_41:
Ltmp1034:
	movq	%rax, -24(%rbp)
	movl	%edx, -16(%rbp)
	jmp	LBB89_4
LBB89_42:
Ltmp1031:
	movq	%rax, -24(%rbp)
	movl	%edx, -16(%rbp)
	jmp	LBB89_6
LBB89_43:
Ltmp1006:
	movq	%rax, -24(%rbp)
	movl	%edx, -16(%rbp)
	jmp	LBB89_8
LBB89_44:
Ltmp1028:
	movq	%rax, -24(%rbp)
	movl	%edx, -16(%rbp)
	jmp	LBB89_18
LBB89_45:
Ltmp1015:
	movq	%rax, -24(%rbp)
	movl	%edx, -16(%rbp)
	jmp	LBB89_21
Lfunc_end89:
	.cfi_endproc
	.section	__TEXT,__gcc_except_tab
	.p2align	2
GCC_except_table89:
Lexception30:
	.byte	255
	.byte	255
	.byte	1
	.uleb128 Lcst_end30-Lcst_begin30
Lcst_begin30:
	.uleb128 Ltmp994-Lfunc_begin89
	.uleb128 Ltmp995-Ltmp994
	.uleb128 Ltmp1037-Lfunc_begin89
	.byte	0
	.uleb128 Ltmp995-Lfunc_begin89
	.uleb128 Ltmp996-Ltmp995
	.byte	0
	.byte	0
	.uleb128 Ltmp996-Lfunc_begin89
	.uleb128 Ltmp997-Ltmp996
	.uleb128 Ltmp1034-Lfunc_begin89
	.byte	0
	.uleb128 Ltmp998-Lfunc_begin89
	.uleb128 Ltmp999-Ltmp998
	.uleb128 Ltmp1031-Lfunc_begin89
	.byte	0
	.uleb128 Ltmp999-Lfunc_begin89
	.uleb128 Ltmp1000-Ltmp999
	.byte	0
	.byte	0
	.uleb128 Ltmp1000-Lfunc_begin89
	.uleb128 Ltmp1001-Ltmp1000
	.uleb128 Ltmp1031-Lfunc_begin89
	.byte	0
	.uleb128 Ltmp1001-Lfunc_begin89
	.uleb128 Ltmp1007-Ltmp1001
	.byte	0
	.byte	0
	.uleb128 Ltmp1007-Lfunc_begin89
	.uleb128 Ltmp1008-Ltmp1007
	.uleb128 Ltmp1028-Lfunc_begin89
	.byte	0
	.uleb128 Ltmp1002-Lfunc_begin89
	.uleb128 Ltmp1005-Ltmp1002
	.uleb128 Ltmp1006-Lfunc_begin89
	.byte	0
	.uleb128 Ltmp1018-Lfunc_begin89
	.uleb128 Ltmp1019-Ltmp1018
	.uleb128 Ltmp1034-Lfunc_begin89
	.byte	0
	.uleb128 Ltmp1020-Lfunc_begin89
	.uleb128 Ltmp1021-Ltmp1020
	.uleb128 Ltmp1037-Lfunc_begin89
	.byte	0
	.uleb128 Ltmp1021-Lfunc_begin89
	.uleb128 Ltmp1009-Ltmp1021
	.byte	0
	.byte	0
	.uleb128 Ltmp1009-Lfunc_begin89
	.uleb128 Ltmp1023-Ltmp1009
	.uleb128 Ltmp1028-Lfunc_begin89
	.byte	0
	.uleb128 Ltmp1011-Lfunc_begin89
	.uleb128 Ltmp1014-Ltmp1011
	.uleb128 Ltmp1015-Lfunc_begin89
	.byte	0
	.uleb128 Ltmp1016-Lfunc_begin89
	.uleb128 Ltmp1017-Ltmp1016
	.uleb128 Ltmp1031-Lfunc_begin89
	.byte	0
	.uleb128 Ltmp1024-Lfunc_begin89
	.uleb128 Ltmp1025-Ltmp1024
	.uleb128 Ltmp1028-Lfunc_begin89
	.byte	0
	.uleb128 Ltmp1025-Lfunc_begin89
	.uleb128 Ltmp1026-Ltmp1025
	.byte	0
	.byte	0
	.uleb128 Ltmp1026-Lfunc_begin89
	.uleb128 Ltmp1027-Ltmp1026
	.uleb128 Ltmp1028-Lfunc_begin89
	.byte	0
	.uleb128 Ltmp1032-Lfunc_begin89
	.uleb128 Ltmp1033-Ltmp1032
	.uleb128 Ltmp1034-Lfunc_begin89
	.byte	0
	.uleb128 Ltmp1035-Lfunc_begin89
	.uleb128 Ltmp1036-Ltmp1035
	.uleb128 Ltmp1037-Lfunc_begin89
	.byte	0
	.uleb128 Ltmp1029-Lfunc_begin89
	.uleb128 Ltmp1030-Ltmp1029
	.uleb128 Ltmp1031-Lfunc_begin89
	.byte	0
Lcst_end30:
	.p2align	2

	.section	__TEXT,__text,regular,pure_instructions
	.p2align	4, 0x90
__ZN43_$LT$T$u20$as$u20$syn..spanned..Spanned$GT$4span17h1ac52f262a8a08a3E:
Lfunc_begin90:
	.file	23 "/Users/yingyuhang/.cargo/registry/src/github.com-1ecc6299db9ec823/syn-1.0.33/src/spanned.rs"
	.loc	23 111 0 is_stmt 1
	.cfi_startproc
	pushq	%rbp
	.cfi_def_cfa_offset 16
	.cfi_offset %rbp, -16
	movq	%rsp, %rbp
	.cfi_def_cfa_register %rbp
	subq	$32, %rsp
	movq	%rdi, -16(%rbp)
Ltmp1067:
	.loc	23 112 9 prologue_end
	callq	__ZN45_$LT$T$u20$as$u20$quote..spanned..Spanned$GT$6__span17h0140d7665bc171c1E
	movl	%eax, -4(%rbp)
	movl	-4(%rbp), %eax
	movl	%eax, -24(%rbp)
	.loc	23 113 6
	movl	-24(%rbp), %eax
	addq	$32, %rsp
	popq	%rbp
	retq
Ltmp1068:
Lfunc_end90:
	.cfi_endproc

	.p2align	4, 0x90
__ZN43_$LT$T$u20$as$u20$syn..spanned..Spanned$GT$4span17h4216d3d4bc0eb29dE:
Lfunc_begin91:
	.loc	23 111 0
	.cfi_startproc
	pushq	%rbp
	.cfi_def_cfa_offset 16
	.cfi_offset %rbp, -16
	movq	%rsp, %rbp
	.cfi_def_cfa_register %rbp
	subq	$32, %rsp
	movq	%rdi, -16(%rbp)
Ltmp1069:
	.loc	23 112 9 prologue_end
	callq	__ZN45_$LT$T$u20$as$u20$quote..spanned..Spanned$GT$6__span17h0b281b1d5baf4a5dE
	movl	%eax, -4(%rbp)
	movl	-4(%rbp), %eax
	movl	%eax, -24(%rbp)
	.loc	23 113 6
	movl	-24(%rbp), %eax
	addq	$32, %rsp
	popq	%rbp
	retq
Ltmp1070:
Lfunc_end91:
	.cfi_endproc

	.p2align	4, 0x90
__ZN43_$LT$T$u20$as$u20$syn..spanned..Spanned$GT$4span17h971dcca8fb4c3921E:
Lfunc_begin92:
	.loc	23 111 0
	.cfi_startproc
	pushq	%rbp
	.cfi_def_cfa_offset 16
	.cfi_offset %rbp, -16
	movq	%rsp, %rbp
	.cfi_def_cfa_register %rbp
	subq	$32, %rsp
	movq	%rdi, -16(%rbp)
Ltmp1071:
	.loc	23 112 9 prologue_end
	callq	__ZN45_$LT$T$u20$as$u20$quote..spanned..Spanned$GT$6__span17h42fa5e858b9b361cE
	movl	%eax, -4(%rbp)
	movl	-4(%rbp), %eax
	movl	%eax, -24(%rbp)
	.loc	23 113 6
	movl	-24(%rbp), %eax
	addq	$32, %rsp
	popq	%rbp
	retq
Ltmp1072:
Lfunc_end92:
	.cfi_endproc

	.p2align	4, 0x90
__ZN45_$LT$T$u20$as$u20$quote..spanned..Spanned$GT$6__span17h0140d7665bc171c1E:
Lfunc_begin93:
	.file	24 "/Users/yingyuhang/.cargo/registry/src/github.com-1ecc6299db9ec823/quote-1.0.7/src/spanned.rs"
	.loc	24 15 0
	.cfi_startproc
	pushq	%rbp
	.cfi_def_cfa_offset 16
	.cfi_offset %rbp, -16
	movq	%rsp, %rbp
	.cfi_def_cfa_register %rbp
	subq	$80, %rsp
	movq	%rdi, -16(%rbp)
Ltmp1073:
	.loc	24 16 20 prologue_end
	leaq	-56(%rbp), %rax
	movq	%rdi, -72(%rbp)
	movq	%rax, %rdi
	movq	-72(%rbp), %rsi
	callq	__ZN5quote9to_tokens8ToTokens17into_token_stream17hc68fd38cb3bc4996E
	.loc	24 16 9 is_stmt 0
	leaq	-56(%rbp), %rdi
	callq	__ZN5quote7spanned10join_spans17h0fc7b40fb4359f77E
	movl	%eax, -4(%rbp)
	movl	-4(%rbp), %eax
	movl	%eax, -64(%rbp)
	.loc	24 17 6 is_stmt 1
	movl	-64(%rbp), %eax
	addq	$80, %rsp
	popq	%rbp
	retq
Ltmp1074:
Lfunc_end93:
	.cfi_endproc

	.p2align	4, 0x90
__ZN45_$LT$T$u20$as$u20$quote..spanned..Spanned$GT$6__span17h0b281b1d5baf4a5dE:
Lfunc_begin94:
	.loc	24 15 0
	.cfi_startproc
	pushq	%rbp
	.cfi_def_cfa_offset 16
	.cfi_offset %rbp, -16
	movq	%rsp, %rbp
	.cfi_def_cfa_register %rbp
	subq	$80, %rsp
	movq	%rdi, -16(%rbp)
Ltmp1075:
	.loc	24 16 20 prologue_end
	leaq	-56(%rbp), %rax
	movq	%rdi, -72(%rbp)
	movq	%rax, %rdi
	movq	-72(%rbp), %rsi
	callq	__ZN5quote9to_tokens8ToTokens17into_token_stream17h76a150a3588857d1E
	.loc	24 16 9 is_stmt 0
	leaq	-56(%rbp), %rdi
	callq	__ZN5quote7spanned10join_spans17h0fc7b40fb4359f77E
	movl	%eax, -4(%rbp)
	movl	-4(%rbp), %eax
	movl	%eax, -64(%rbp)
	.loc	24 17 6 is_stmt 1
	movl	-64(%rbp), %eax
	addq	$80, %rsp
	popq	%rbp
	retq
Ltmp1076:
Lfunc_end94:
	.cfi_endproc

	.p2align	4, 0x90
__ZN45_$LT$T$u20$as$u20$quote..spanned..Spanned$GT$6__span17h42fa5e858b9b361cE:
Lfunc_begin95:
	.loc	24 15 0
	.cfi_startproc
	pushq	%rbp
	.cfi_def_cfa_offset 16
	.cfi_offset %rbp, -16
	movq	%rsp, %rbp
	.cfi_def_cfa_register %rbp
	subq	$80, %rsp
	movq	%rdi, -16(%rbp)
Ltmp1077:
	.loc	24 16 20 prologue_end
	leaq	-56(%rbp), %rax
	movq	%rdi, -72(%rbp)
	movq	%rax, %rdi
	movq	-72(%rbp), %rsi
	callq	__ZN5quote9to_tokens8ToTokens17into_token_stream17hb8e542081963ee54E
	.loc	24 16 9 is_stmt 0
	leaq	-56(%rbp), %rdi
	callq	__ZN5quote7spanned10join_spans17h0fc7b40fb4359f77E
	movl	%eax, -4(%rbp)
	movl	-4(%rbp), %eax
	movl	%eax, -64(%rbp)
	.loc	24 17 6 is_stmt 1
	movl	-64(%rbp), %eax
	addq	$80, %rsp
	popq	%rbp
	retq
Ltmp1078:
Lfunc_end95:
	.cfi_endproc

	.p2align	4, 0x90
__ZN47_$LT$str$u20$as$u20$alloc..string..ToString$GT$9to_string17ha3d3daa4be8a7cf2E:
Lfunc_begin96:
	.loc	1 2221 0
	.cfi_startproc
	pushq	%rbp
	.cfi_def_cfa_offset 16
	.cfi_offset %rbp, -16
	movq	%rsp, %rbp
	.cfi_def_cfa_register %rbp
	subq	$32, %rsp
	movq	%rdi, %rax
	movq	%rsi, -16(%rbp)
	movq	%rdx, -8(%rbp)
	movq	%rax, -24(%rbp)
Ltmp1079:
	.loc	1 2222 9 prologue_end
	callq	__ZN76_$LT$alloc..string..String$u20$as$u20$core..convert..From$LT$$RF$str$GT$$GT$4from17h2e09ad5dec391ff6E
	.loc	1 0 9 is_stmt 0
	movq	-24(%rbp), %rax
	.loc	1 2223 6 is_stmt 1
	addq	$32, %rsp
	popq	%rbp
	retq
Ltmp1080:
Lfunc_end96:
	.cfi_endproc

	.p2align	4, 0x90
__ZN4core10intrinsics19copy_nonoverlapping17h0f6d324e0d7a0b3bE:
Lfunc_begin97:
	.file	25 "/rustc/6c8927b0cf80ceee19386026cf9d7fd4fd9d486f/src/libcore/intrinsics.rs"
	.loc	25 2114 0
	.cfi_startproc
	pushq	%rbp
	.cfi_def_cfa_offset 16
	.cfi_offset %rbp, -16
	movq	%rsp, %rbp
	.cfi_def_cfa_register %rbp
	subq	$32, %rsp
	movq	%rdi, -24(%rbp)
	movq	%rsi, -16(%rbp)
	movq	%rdx, -8(%rbp)
Ltmp1081:
	.loc	25 2130 14 prologue_end
	imulq	$72, %rdx, %rdx
	movq	%rdi, -32(%rbp)
	movq	%rsi, %rdi
	movq	-32(%rbp), %rsi
	callq	_memcpy
	.loc	25 2131 2
	addq	$32, %rsp
	popq	%rbp
	retq
Ltmp1082:
Lfunc_end97:
	.cfi_endproc

	.p2align	4, 0x90
__ZN4core10intrinsics19copy_nonoverlapping17h40013504735e5503E:
Lfunc_begin98:
	.loc	25 2114 0
	.cfi_startproc
	pushq	%rbp
	.cfi_def_cfa_offset 16
	.cfi_offset %rbp, -16
	movq	%rsp, %rbp
	.cfi_def_cfa_register %rbp
	subq	$32, %rsp
	movq	%rdi, -24(%rbp)
	movq	%rsi, -16(%rbp)
	movq	%rdx, -8(%rbp)
Ltmp1083:
	.loc	25 2130 14 prologue_end
	shlq	$6, %rdx
	movq	%rdi, -32(%rbp)
	movq	%rsi, %rdi
	movq	-32(%rbp), %rsi
	callq	_memcpy
	.loc	25 2131 2
	addq	$32, %rsp
	popq	%rbp
	retq
Ltmp1084:
Lfunc_end98:
	.cfi_endproc

	.p2align	4, 0x90
__ZN4core10intrinsics19copy_nonoverlapping17h7a933f8ef295a143E:
Lfunc_begin99:
	.loc	25 2114 0
	.cfi_startproc
	pushq	%rbp
	.cfi_def_cfa_offset 16
	.cfi_offset %rbp, -16
	movq	%rsp, %rbp
	.cfi_def_cfa_register %rbp
	subq	$32, %rsp
	movq	%rdi, -24(%rbp)
	movq	%rsi, -16(%rbp)
	movq	%rdx, -8(%rbp)
Ltmp1085:
	.loc	25 2130 14 prologue_end
	shlq	$6, %rdx
	movq	%rdi, -32(%rbp)
	movq	%rsi, %rdi
	movq	-32(%rbp), %rsi
	callq	_memcpy
	.loc	25 2131 2
	addq	$32, %rsp
	popq	%rbp
	retq
Ltmp1086:
Lfunc_end99:
	.cfi_endproc

	.p2align	4, 0x90
__ZN4core10intrinsics19copy_nonoverlapping17hc5ed233de268b491E:
Lfunc_begin100:
	.loc	25 2114 0
	.cfi_startproc
	pushq	%rbp
	.cfi_def_cfa_offset 16
	.cfi_offset %rbp, -16
	movq	%rsp, %rbp
	.cfi_def_cfa_register %rbp
	subq	$32, %rsp
	movq	%rdi, -24(%rbp)
	movq	%rsi, -16(%rbp)
	movq	%rdx, -8(%rbp)
Ltmp1087:
	.loc	25 2130 14 prologue_end
	shlq	$0, %rdx
	movq	%rdi, -32(%rbp)
	movq	%rsi, %rdi
	movq	-32(%rbp), %rsi
	callq	_memcpy
	.loc	25 2131 2
	addq	$32, %rsp
	popq	%rbp
	retq
Ltmp1088:
Lfunc_end100:
	.cfi_endproc

	.p2align	4, 0x90
__ZN4core10intrinsics19copy_nonoverlapping17hf9643ca63311621dE:
Lfunc_begin101:
	.loc	25 2114 0
	.cfi_startproc
	pushq	%rbp
	.cfi_def_cfa_offset 16
	.cfi_offset %rbp, -16
	movq	%rsp, %rbp
	.cfi_def_cfa_register %rbp
	subq	$32, %rsp
	movq	%rdi, -24(%rbp)
	movq	%rsi, -16(%rbp)
	movq	%rdx, -8(%rbp)
Ltmp1089:
	.loc	25 2130 14 prologue_end
	imulq	$40, %rdx, %rdx
	movq	%rdi, -32(%rbp)
	movq	%rsi, %rdi
	movq	-32(%rbp), %rsi
	callq	_memcpy
	.loc	25 2131 2
	addq	$32, %rsp
	popq	%rbp
	retq
Ltmp1090:
Lfunc_end101:
	.cfi_endproc

	.p2align	4, 0x90
__ZN4core3cmp5impls69_$LT$impl$u20$core..cmp..PartialEq$LT$$RF$B$GT$$u20$for$u20$$RF$A$GT$2eq17h5b8bca71f719dbdcE:
Lfunc_begin102:
	.file	26 "/rustc/6c8927b0cf80ceee19386026cf9d7fd4fd9d486f/src/libcore/cmp.rs"
	.loc	26 1218 0
	.cfi_startproc
	pushq	%rbp
	.cfi_def_cfa_offset 16
	.cfi_offset %rbp, -16
	movq	%rsp, %rbp
	.cfi_def_cfa_register %rbp
	subq	$32, %rsp
	movq	%rdi, -16(%rbp)
	movq	%rsi, -8(%rbp)
Ltmp1091:
	.loc	26 1219 27 prologue_end
	movq	(%rdi), %rdi
	.loc	26 1219 34 is_stmt 0
	movq	(%rsi), %rax
	movq	8(%rsi), %rdx
	.loc	26 1219 13
	movq	%rax, %rsi
	callq	__ZN68_$LT$proc_macro2..Ident$u20$as$u20$core..cmp..PartialEq$LT$T$GT$$GT$2eq17h0570a61ed6ef37d6E
	movb	%al, -17(%rbp)
	.loc	26 0 13
	movb	-17(%rbp), %al
	.loc	26 1220 10 is_stmt 1
	andb	$1, %al
	movzbl	%al, %eax
	addq	$32, %rsp
	popq	%rbp
	retq
Ltmp1092:
Lfunc_end102:
	.cfi_endproc

	.p2align	4, 0x90
__ZN4core3fmt10ArgumentV13new17h92c3d21d66acddbaE:
Lfunc_begin103:
	.file	27 "/rustc/6c8927b0cf80ceee19386026cf9d7fd4fd9d486f/src/libcore/fmt/mod.rs"
	.loc	27 281 0
	.cfi_startproc
	pushq	%rbp
	.cfi_def_cfa_offset 16
	.cfi_offset %rbp, -16
	movq	%rsp, %rbp
	.cfi_def_cfa_register %rbp
	subq	$72, %rsp
	movq	%rdi, -32(%rbp)
	movq	%rsi, -24(%rbp)
Ltmp1093:
	.loc	27 290 42 prologue_end
	movq	%rsi, -16(%rbp)
	movq	-16(%rbp), %rax
	movq	%rdi, -56(%rbp)
	movq	%rax, -64(%rbp)
	.loc	27 0 42 is_stmt 0
	movq	-56(%rbp), %rax
	.loc	27 290 68
	movq	%rax, -8(%rbp)
	movq	-8(%rbp), %rcx
	movq	%rcx, -72(%rbp)
	.loc	27 0 68
	movq	-72(%rbp), %rax
	.loc	27 290 18
	movq	%rax, -48(%rbp)
	movq	-64(%rbp), %rcx
	movq	%rcx, -40(%rbp)
	.loc	27 291 6 is_stmt 1
	movq	-48(%rbp), %rax
	movq	-40(%rbp), %rdx
	addq	$72, %rsp
	popq	%rbp
	retq
Ltmp1094:
Lfunc_end103:
	.cfi_endproc

	.p2align	4, 0x90
__ZN4core3fmt10ArgumentV13new17h9b6a8af6cb187640E:
Lfunc_begin104:
	.loc	27 281 0
	.cfi_startproc
	pushq	%rbp
	.cfi_def_cfa_offset 16
	.cfi_offset %rbp, -16
	movq	%rsp, %rbp
	.cfi_def_cfa_register %rbp
	subq	$72, %rsp
	movq	%rdi, -32(%rbp)
	movq	%rsi, -24(%rbp)
Ltmp1095:
	.loc	27 290 42 prologue_end
	movq	%rsi, -16(%rbp)
	movq	-16(%rbp), %rax
	movq	%rdi, -56(%rbp)
	movq	%rax, -64(%rbp)
	.loc	27 0 42 is_stmt 0
	movq	-56(%rbp), %rax
	.loc	27 290 68
	movq	%rax, -8(%rbp)
	movq	-8(%rbp), %rcx
	movq	%rcx, -72(%rbp)
	.loc	27 0 68
	movq	-72(%rbp), %rax
	.loc	27 290 18
	movq	%rax, -48(%rbp)
	movq	-64(%rbp), %rcx
	movq	%rcx, -40(%rbp)
	.loc	27 291 6 is_stmt 1
	movq	-48(%rbp), %rax
	movq	-40(%rbp), %rdx
	addq	$72, %rsp
	popq	%rbp
	retq
Ltmp1096:
Lfunc_end104:
	.cfi_endproc

	.p2align	4, 0x90
__ZN4core3fmt9Arguments6new_v117hb06b482b45cae838E:
Lfunc_begin105:
	.loc	27 327 0
	.cfi_startproc
	pushq	%rbp
	.cfi_def_cfa_offset 16
	.cfi_offset %rbp, -16
	movq	%rsp, %rbp
	.cfi_def_cfa_register %rbp
	subq	$48, %rsp
	movq	%rdi, %rax
	movq	%rsi, -32(%rbp)
	movq	%rdx, -24(%rbp)
	movq	%rcx, -16(%rbp)
	movq	%r8, -8(%rbp)
Ltmp1097:
	.loc	27 328 34 prologue_end
	movq	$0, -48(%rbp)
	.loc	27 328 9 is_stmt 0
	movq	%rsi, (%rdi)
	movq	%rdx, 8(%rdi)
	movq	-48(%rbp), %rdx
	movq	-40(%rbp), %rsi
	movq	%rdx, 16(%rdi)
	movq	%rsi, 24(%rdi)
	movq	%rcx, 32(%rdi)
	movq	%r8, 40(%rdi)
	.loc	27 329 6 is_stmt 1
	addq	$48, %rsp
	popq	%rbp
	retq
Ltmp1098:
Lfunc_end105:
	.cfi_endproc

	.p2align	4, 0x90
__ZN4core3mem13manually_drop21ManuallyDrop$LT$T$GT$4take17ha697840ddd3dc6beE:
Lfunc_begin106:
	.loc	18 124 0
	.cfi_startproc
	pushq	%rbp
	.cfi_def_cfa_offset 16
	.cfi_offset %rbp, -16
	movq	%rsp, %rbp
	.cfi_def_cfa_register %rbp
	subq	$16, %rsp
	movq	%rdi, %rax
	movq	%rsi, -8(%rbp)
	movq	%rax, -16(%rbp)
Ltmp1099:
	.loc	18 127 18 prologue_end
	callq	__ZN4core3ptr4read17hd66bc27f5d7f22f9E
	.loc	18 0 18 is_stmt 0
	movq	-16(%rbp), %rax
	.loc	18 128 6 is_stmt 1
	addq	$16, %rsp
	popq	%rbp
	retq
Ltmp1100:
Lfunc_end106:
	.cfi_endproc

	.p2align	4, 0x90
__ZN4core3mem14transmute_copy17hd1caaba0ac436a67E:
Lfunc_begin107:
	.loc	3 928 0
	.cfi_startproc
	pushq	%rbp
	.cfi_def_cfa_offset 16
	.cfi_offset %rbp, -16
	movq	%rsp, %rbp
	.cfi_def_cfa_register %rbp
	subq	$64, %rsp
	movq	%rdi, %rax
	movq	%rsi, -24(%rbp)
Ltmp1101:
	.loc	3 451 5 prologue_end
	movq	$8, -16(%rbp)
	movq	-16(%rbp), %rcx
	movq	%rsi, -32(%rbp)
	movq	%rdi, -40(%rbp)
	movq	%rax, -48(%rbp)
	movq	%rcx, -56(%rbp)
Ltmp1102:
	.loc	3 451 5 is_stmt 0
	movq	$8, -8(%rbp)
	movq	-8(%rbp), %rax
	movq	%rax, -64(%rbp)
Ltmp1103:
	.loc	3 0 5
	movq	-56(%rbp), %rax
	movq	-64(%rbp), %rcx
	.loc	3 930 8 is_stmt 1
	cmpq	%rcx, %rax
	.loc	3 930 5 is_stmt 0
	ja	LBB107_4
	.loc	3 0 5
	movq	-40(%rbp), %rdi
	movq	-32(%rbp), %rsi
	.loc	3 938 18 is_stmt 1
	callq	__ZN4core3ptr4read17h92906bbb924bef19E
	jmp	LBB107_6
LBB107_4:
	.loc	3 0 18 is_stmt 0
	movq	-40(%rbp), %rdi
	movq	-32(%rbp), %rsi
	.loc	3 933 18 is_stmt 1
	callq	__ZN4core3ptr14read_unaligned17haa409ecdc68092a8E
	.loc	3 930 5
	jmp	LBB107_7
LBB107_6:
	jmp	LBB107_7
LBB107_7:
	.loc	3 0 5 is_stmt 0
	movq	-48(%rbp), %rax
	.loc	3 940 2 is_stmt 1
	addq	$64, %rsp
	popq	%rbp
	retq
Ltmp1104:
Lfunc_end107:
	.cfi_endproc

	.p2align	4, 0x90
__ZN4core3mem4drop17h4b0a738124469147E:
Lfunc_begin108:
	.loc	3 883 0
	.cfi_startproc
	pushq	%rbp
	.cfi_def_cfa_offset 16
	.cfi_offset %rbp, -16
	movq	%rsp, %rbp
	.cfi_def_cfa_register %rbp
Ltmp1105:
	.loc	3 883 24 prologue_end
	callq	__ZN4core3ptr13drop_in_place17hf62dab92e934a946E
Ltmp1106:
	.loc	3 883 25 is_stmt 0
	popq	%rbp
	retq
Ltmp1107:
Lfunc_end108:
	.cfi_endproc

	.p2align	4, 0x90
__ZN4core3mem4drop17h4bccc70febc2c762E:
Lfunc_begin109:
	.loc	3 883 0 is_stmt 1
	.cfi_startproc
	pushq	%rbp
	.cfi_def_cfa_offset 16
	.cfi_offset %rbp, -16
	movq	%rsp, %rbp
	.cfi_def_cfa_register %rbp
Ltmp1108:
	.loc	3 883 24 prologue_end
	callq	__ZN4core3ptr13drop_in_place17haf5d9d52a5c8c78aE
Ltmp1109:
	.loc	3 883 25 is_stmt 0
	popq	%rbp
	retq
Ltmp1110:
Lfunc_end109:
	.cfi_endproc

	.p2align	4, 0x90
__ZN4core3mem4swap17h5be3b3b52e155a13E:
Lfunc_begin110:
	.loc	3 686 0 is_stmt 1
	.cfi_startproc
	pushq	%rbp
	.cfi_def_cfa_offset 16
	.cfi_offset %rbp, -16
	movq	%rsp, %rbp
	.cfi_def_cfa_register %rbp
	subq	$16, %rsp
	movq	%rdi, -16(%rbp)
	movq	%rsi, -8(%rbp)
Ltmp1111:
	.loc	3 690 9 prologue_end
	callq	__ZN4core3ptr23swap_nonoverlapping_one17h10b74655902ce3e7E
	.loc	3 692 2
	addq	$16, %rsp
	popq	%rbp
	retq
Ltmp1112:
Lfunc_end110:
	.cfi_endproc

	.p2align	4, 0x90
__ZN4core3mem4swap17h6e695f3f81e8bf3dE:
Lfunc_begin111:
	.loc	3 686 0
	.cfi_startproc
	pushq	%rbp
	.cfi_def_cfa_offset 16
	.cfi_offset %rbp, -16
	movq	%rsp, %rbp
	.cfi_def_cfa_register %rbp
	subq	$16, %rsp
	movq	%rdi, -16(%rbp)
	movq	%rsi, -8(%rbp)
Ltmp1113:
	.loc	3 690 9 prologue_end
	callq	__ZN4core3ptr23swap_nonoverlapping_one17h7c4d01582bfa80aeE
	.loc	3 692 2
	addq	$16, %rsp
	popq	%rbp
	retq
Ltmp1114:
Lfunc_end111:
	.cfi_endproc

	.p2align	4, 0x90
__ZN4core3mem4swap17heafcc48b009afc03E:
Lfunc_begin112:
	.loc	3 686 0
	.cfi_startproc
	pushq	%rbp
	.cfi_def_cfa_offset 16
	.cfi_offset %rbp, -16
	movq	%rsp, %rbp
	.cfi_def_cfa_register %rbp
	subq	$16, %rsp
	movq	%rdi, -16(%rbp)
	movq	%rsi, -8(%rbp)
Ltmp1115:
	.loc	3 690 9 prologue_end
	callq	__ZN4core3ptr23swap_nonoverlapping_one17h6cad21cbc0ceb1f4E
	.loc	3 692 2
	addq	$16, %rsp
	popq	%rbp
	retq
Ltmp1116:
Lfunc_end112:
	.cfi_endproc

	.p2align	4, 0x90
__ZN4core3mem4swap17hfe48e59458be5ca6E:
Lfunc_begin113:
	.loc	3 686 0
	.cfi_startproc
	pushq	%rbp
	.cfi_def_cfa_offset 16
	.cfi_offset %rbp, -16
	movq	%rsp, %rbp
	.cfi_def_cfa_register %rbp
	subq	$16, %rsp
	movq	%rdi, -16(%rbp)
	movq	%rsi, -8(%rbp)
Ltmp1117:
	.loc	3 690 9 prologue_end
	callq	__ZN4core3ptr23swap_nonoverlapping_one17h5a6bcfe55f6fc142E
	.loc	3 692 2
	addq	$16, %rsp
	popq	%rbp
	retq
Ltmp1118:
Lfunc_end113:
	.cfi_endproc

	.p2align	4, 0x90
__ZN4core3mem4take17h1611ff01e08e7167E:
Lfunc_begin114:
	.loc	3 750 0
	.cfi_startproc
	pushq	%rbp
	.cfi_def_cfa_offset 16
	.cfi_offset %rbp, -16
	movq	%rsp, %rbp
	.cfi_def_cfa_register %rbp
	subq	$96, %rsp
	movq	%rdi, %rax
	movq	%rsi, -8(%rbp)
Ltmp1119:
	.loc	3 751 19 prologue_end
	leaq	-72(%rbp), %rcx
	movq	%rdi, -80(%rbp)
	movq	%rcx, %rdi
	movq	%rsi, -88(%rbp)
	movq	%rax, -96(%rbp)
	callq	__ZN72_$LT$core..option..Option$LT$T$GT$$u20$as$u20$core..default..Default$GT$7default17h8cb51b5b4ddd4407E
	.loc	3 0 19 is_stmt 0
	movq	-80(%rbp), %rdi
	movq	-88(%rbp), %rsi
	.loc	3 751 5
	leaq	-72(%rbp), %rdx
	callq	__ZN4core3mem7replace17hfe5136b351c318d7E
	.loc	3 0 5
	movq	-96(%rbp), %rax
	.loc	3 752 2 is_stmt 1
	addq	$96, %rsp
	popq	%rbp
	retq
Ltmp1120:
Lfunc_end114:
	.cfi_endproc

	.p2align	4, 0x90
__ZN4core3mem4take17h84a6c7c3b9bc0422E:
Lfunc_begin115:
	.loc	3 750 0
	.cfi_startproc
	pushq	%rbp
	.cfi_def_cfa_offset 16
	.cfi_offset %rbp, -16
	movq	%rsp, %rbp
	.cfi_def_cfa_register %rbp
	subq	$32, %rsp
	movq	%rdi, -8(%rbp)
	movq	%rdi, -16(%rbp)
Ltmp1121:
	.loc	3 751 19 prologue_end
	callq	__ZN72_$LT$core..option..Option$LT$T$GT$$u20$as$u20$core..default..Default$GT$7default17he1e6fc6a9bb17a1bE
	movb	%al, -17(%rbp)
	.loc	3 0 19 is_stmt 0
	movb	-17(%rbp), %al
	.loc	3 751 5
	movzbl	%al, %ecx
	andl	$1, %ecx
	movq	-16(%rbp), %rdi
	movl	%ecx, %esi
	callq	__ZN4core3mem7replace17h055c19128a1604a1E
	movb	%al, -18(%rbp)
	.loc	3 0 5
	movb	-18(%rbp), %al
	.loc	3 752 2 is_stmt 1
	andb	$1, %al
	movzbl	%al, %eax
	addq	$32, %rsp
	popq	%rbp
	retq
Ltmp1122:
Lfunc_end115:
	.cfi_endproc

	.p2align	4, 0x90
__ZN4core3mem4take17ha2e9a4f590f5621eE:
Lfunc_begin116:
	.loc	3 750 0
	.cfi_startproc
	pushq	%rbp
	.cfi_def_cfa_offset 16
	.cfi_offset %rbp, -16
	movq	%rsp, %rbp
	.cfi_def_cfa_register %rbp
	subq	$80, %rsp
	movq	%rdi, %rax
	movq	%rsi, -8(%rbp)
Ltmp1123:
	.loc	3 751 19 prologue_end
	leaq	-48(%rbp), %rcx
	movq	%rdi, -56(%rbp)
	movq	%rcx, %rdi
	movq	%rsi, -64(%rbp)
	movq	%rax, -72(%rbp)
	callq	__ZN86_$LT$proc_macro..bridge..buffer..Buffer$LT$T$GT$$u20$as$u20$core..default..Default$GT$7default17hb2997f9bd317ab1fE
	.loc	3 0 19 is_stmt 0
	movq	-56(%rbp), %rdi
	movq	-64(%rbp), %rsi
	.loc	3 751 5
	leaq	-48(%rbp), %rdx
	callq	__ZN4core3mem7replace17h28db3041b24ddb77E
	.loc	3 0 5
	movq	-72(%rbp), %rax
	.loc	3 752 2 is_stmt 1
	addq	$80, %rsp
	popq	%rbp
	retq
Ltmp1124:
Lfunc_end116:
	.cfi_endproc

	.p2align	4, 0x90
__ZN4core3mem6forget17h61c0b84f81c89616E:
Lfunc_begin117:
	.loc	3 147 0
	.cfi_startproc
	pushq	%rbp
	.cfi_def_cfa_offset 16
	.cfi_offset %rbp, -16
	movq	%rsp, %rbp
	.cfi_def_cfa_register %rbp
	subq	$48, %rsp
	movl	%edi, -44(%rbp)
	movl	-44(%rbp), %eax
	movl	%eax, -48(%rbp)
Ltmp1125:
	.loc	3 148 23 prologue_end
	movl	-48(%rbp), %eax
	movl	%eax, -32(%rbp)
	.loc	3 148 5 is_stmt 0
	movl	-32(%rbp), %eax
	movl	%eax, -20(%rbp)
	movl	-20(%rbp), %eax
	movl	%eax, -24(%rbp)
Ltmp1126:
	.loc	18 83 24 is_stmt 1
	movl	-24(%rbp), %eax
	movl	%eax, -8(%rbp)
	.loc	18 83 9 is_stmt 0
	movl	-8(%rbp), %eax
	movl	%eax, -16(%rbp)
	.loc	18 84 6 is_stmt 1
	movl	-16(%rbp), %eax
Ltmp1127:
	.loc	3 148 5
	movl	%eax, -28(%rbp)
	movl	-28(%rbp), %eax
	movl	%eax, -40(%rbp)
	.loc	3 149 2
	addq	$48, %rsp
	popq	%rbp
	retq
Ltmp1128:
Lfunc_end117:
	.cfi_endproc

	.p2align	4, 0x90
__ZN4core3mem6forget17h9533bfccda0738cfE:
Lfunc_begin118:
	.loc	3 147 0
	.cfi_startproc
	pushq	%rbp
	.cfi_def_cfa_offset 16
	.cfi_offset %rbp, -16
	movq	%rsp, %rbp
	.cfi_def_cfa_register %rbp
	subq	$72, %rsp
Ltmp1129:
	.loc	3 148 23 prologue_end
	movq	(%rdi), %rax
	movq	%rax, -48(%rbp)
	movq	8(%rdi), %rax
	movq	%rax, -40(%rbp)
	movq	16(%rdi), %rax
	movq	%rax, -32(%rbp)
Ltmp1130:
	.loc	18 83 24
	movq	-48(%rbp), %rax
	movq	%rax, -24(%rbp)
	movq	-40(%rbp), %rax
	movq	%rax, -16(%rbp)
	movq	-32(%rbp), %rax
	movq	%rax, -8(%rbp)
	.loc	18 83 9 is_stmt 0
	movq	-24(%rbp), %rax
	movq	%rax, -72(%rbp)
	movq	-16(%rbp), %rax
	movq	%rax, -64(%rbp)
	movq	-8(%rbp), %rax
	movq	%rax, -56(%rbp)
Ltmp1131:
	.loc	3 149 2 is_stmt 1
	addq	$72, %rsp
	popq	%rbp
	retq
Ltmp1132:
Lfunc_end118:
	.cfi_endproc

	.p2align	4, 0x90
__ZN4core3mem6forget17hce4edc604e51762aE:
Lfunc_begin119:
	.loc	3 147 0
	.cfi_startproc
	pushq	%rbp
	.cfi_def_cfa_offset 16
	.cfi_offset %rbp, -16
	movq	%rsp, %rbp
	.cfi_def_cfa_register %rbp
	subq	$224, %rsp
Ltmp1133:
	.loc	3 148 23 prologue_end
	leaq	-128(%rbp), %rax
	movq	%rax, %rcx
	movq	%rdi, -200(%rbp)
Ltmp1134:
	movq	%rcx, %rdi
	movq	-200(%rbp), %rsi
Ltmp1135:
	movl	$64, %ecx
	movq	%rcx, %rdx
	movq	%rax, -208(%rbp)
	movq	%rcx, -216(%rbp)
	callq	_memcpy
Ltmp1136:
	.loc	18 83 24
	leaq	-64(%rbp), %rax
	movq	%rax, %rcx
	movq	-208(%rbp), %rdx
	movq	%rcx, %rdi
	movq	%rdx, %rsi
	movq	-216(%rbp), %rdx
	movq	%rax, -224(%rbp)
	callq	_memcpy
	.loc	18 83 9 is_stmt 0
	leaq	-192(%rbp), %rax
	movq	-224(%rbp), %rcx
	movq	%rax, %rdi
	movq	%rcx, %rsi
	movq	-216(%rbp), %rdx
	callq	_memcpy
Ltmp1137:
	.loc	3 149 2 is_stmt 1
	addq	$224, %rsp
	popq	%rbp
	retq
Ltmp1138:
Lfunc_end119:
	.cfi_endproc

	.p2align	4, 0x90
__ZN4core3mem6forget17hf07c714de7729da5E:
Lfunc_begin120:
	.loc	3 147 0
	.cfi_startproc
	pushq	%rbp
	.cfi_def_cfa_offset 16
	.cfi_offset %rbp, -16
	movq	%rsp, %rbp
	.cfi_def_cfa_register %rbp
	subq	$160, %rsp
Ltmp1139:
	.loc	3 148 23 prologue_end
	leaq	-80(%rbp), %rax
	movq	%rax, %rcx
	movq	%rdi, -128(%rbp)
Ltmp1140:
	movq	%rcx, %rdi
	movq	-128(%rbp), %rsi
Ltmp1141:
	movl	$40, %ecx
	movq	%rcx, %rdx
	movq	%rax, -136(%rbp)
	movq	%rcx, -144(%rbp)
	callq	_memcpy
Ltmp1142:
	.loc	18 83 24
	leaq	-40(%rbp), %rax
	movq	%rax, %rcx
	movq	-136(%rbp), %rdx
	movq	%rcx, %rdi
	movq	%rdx, %rsi
	movq	-144(%rbp), %rdx
	movq	%rax, -152(%rbp)
	callq	_memcpy
	.loc	18 83 9 is_stmt 0
	leaq	-120(%rbp), %rax
	movq	-152(%rbp), %rcx
	movq	%rax, %rdi
	movq	%rcx, %rsi
	movq	-144(%rbp), %rdx
	callq	_memcpy
Ltmp1143:
	.loc	3 149 2 is_stmt 1
	addq	$160, %rsp
	popq	%rbp
	retq
Ltmp1144:
Lfunc_end120:
	.cfi_endproc

	.p2align	4, 0x90
__ZN4core3mem7replace17h055c19128a1604a1E:
Lfunc_begin121:
	.loc	3 814 0
	.cfi_startproc
	.cfi_personality 155, _rust_eh_personality
	.cfi_lsda 16, Lexception31
	pushq	%rbp
	.cfi_def_cfa_offset 16
	.cfi_offset %rbp, -16
	movq	%rsp, %rbp
	.cfi_def_cfa_register %rbp
	subq	$32, %rsp
	andb	$1, %sil
	movb	%sil, -25(%rbp)
	movq	%rdi, -24(%rbp)
Ltmp1145:
	leaq	-25(%rbp), %rsi
Ltmp1148:
	.loc	3 815 5 prologue_end
	callq	__ZN4core3mem4swap17h5be3b3b52e155a13E
Ltmp1146:
	jmp	LBB121_2
LBB121_1:
	.loc	3 814 1
	movq	-16(%rbp), %rdi
	callq	__Unwind_Resume
	ud2
LBB121_2:
	.loc	3 816 5
	movb	-25(%rbp), %al
	.loc	3 817 2
	andb	$1, %al
	movzbl	%al, %eax
	addq	$32, %rsp
	popq	%rbp
	retq
LBB121_3:
	.loc	3 817 1 is_stmt 0
	jmp	LBB121_1
Ltmp1149:
LBB121_4:
Ltmp1147:
	.loc	3 0 1
	movq	%rax, -16(%rbp)
	movl	%edx, -8(%rbp)
	jmp	LBB121_3
Lfunc_end121:
	.cfi_endproc
	.section	__TEXT,__gcc_except_tab
	.p2align	2
GCC_except_table121:
Lexception31:
	.byte	255
	.byte	255
	.byte	1
	.uleb128 Lcst_end31-Lcst_begin31
Lcst_begin31:
	.uleb128 Ltmp1145-Lfunc_begin121
	.uleb128 Ltmp1146-Ltmp1145
	.uleb128 Ltmp1147-Lfunc_begin121
	.byte	0
	.uleb128 Ltmp1146-Lfunc_begin121
	.uleb128 Lfunc_end121-Ltmp1146
	.byte	0
	.byte	0
Lcst_end31:
	.p2align	2

	.section	__TEXT,__text,regular,pure_instructions
	.p2align	4, 0x90
__ZN4core3mem7replace17h28db3041b24ddb77E:
Lfunc_begin122:
	.loc	3 814 0 is_stmt 1
	.cfi_startproc
	.cfi_personality 155, _rust_eh_personality
	.cfi_lsda 16, Lexception32
	pushq	%rbp
	.cfi_def_cfa_offset 16
	.cfi_offset %rbp, -16
	movq	%rsp, %rbp
	.cfi_def_cfa_register %rbp
	subq	$48, %rsp
	movq	%rdi, %rax
	movq	%rsi, -24(%rbp)
Ltmp1150:
	movq	%rdi, -32(%rbp)
Ltmp1153:
	.loc	3 815 5 prologue_end
	movq	%rsi, %rdi
	movq	%rdx, %rsi
	movq	%rdx, -40(%rbp)
Ltmp1154:
	.loc	3 0 5 is_stmt 0
	movq	%rax, -48(%rbp)
	.loc	3 815 5
	callq	__ZN4core3mem4swap17h6e695f3f81e8bf3dE
Ltmp1151:
	jmp	LBB122_2
Ltmp1155:
LBB122_1:
	.loc	3 814 1 is_stmt 1
	movq	-16(%rbp), %rdi
	callq	__Unwind_Resume
	ud2
Ltmp1156:
LBB122_2:
	.loc	3 0 1 is_stmt 0
	movq	-32(%rbp), %rax
	movq	-40(%rbp), %rcx
	.loc	3 816 5 is_stmt 1
	movq	%rax, %rdi
	movq	%rcx, %rsi
	movl	$40, %edx
	callq	_memcpy
	movq	-48(%rbp), %rax
	.loc	3 817 2
	addq	$48, %rsp
	popq	%rbp
	retq
Ltmp1157:
LBB122_3:
	.loc	3 0 2 is_stmt 0
	movq	-40(%rbp), %rdi
	.loc	3 817 1
	callq	__ZN4core3ptr13drop_in_place17h66e0dca2dc19b907E
	jmp	LBB122_1
Ltmp1158:
LBB122_4:
Ltmp1152:
	.loc	3 0 1
	movq	%rax, -16(%rbp)
	movl	%edx, -8(%rbp)
	jmp	LBB122_3
Lfunc_end122:
	.cfi_endproc
	.section	__TEXT,__gcc_except_tab
	.p2align	2
GCC_except_table122:
Lexception32:
	.byte	255
	.byte	255
	.byte	1
	.uleb128 Lcst_end32-Lcst_begin32
Lcst_begin32:
	.uleb128 Ltmp1150-Lfunc_begin122
	.uleb128 Ltmp1151-Ltmp1150
	.uleb128 Ltmp1152-Lfunc_begin122
	.byte	0
	.uleb128 Ltmp1151-Lfunc_begin122
	.uleb128 Lfunc_end122-Ltmp1151
	.byte	0
	.byte	0
Lcst_end32:
	.p2align	2

	.section	__TEXT,__text,regular,pure_instructions
	.p2align	4, 0x90
__ZN4core3mem7replace17h3ba7ac3aa7adceeaE:
Lfunc_begin123:
	.loc	3 814 0 is_stmt 1
	.cfi_startproc
	.cfi_personality 155, _rust_eh_personality
	.cfi_lsda 16, Lexception33
	pushq	%rbp
	.cfi_def_cfa_offset 16
	.cfi_offset %rbp, -16
	movq	%rsp, %rbp
	.cfi_def_cfa_register %rbp
	subq	$48, %rsp
	movq	%rdi, %rax
	movq	%rsi, -24(%rbp)
Ltmp1159:
	movq	%rdi, -32(%rbp)
Ltmp1162:
	.loc	3 815 5 prologue_end
	movq	%rsi, %rdi
	movq	%rdx, %rsi
	movq	%rdx, -40(%rbp)
Ltmp1163:
	.loc	3 0 5 is_stmt 0
	movq	%rax, -48(%rbp)
	.loc	3 815 5
	callq	__ZN4core3mem4swap17hfe48e59458be5ca6E
Ltmp1160:
	jmp	LBB123_2
Ltmp1164:
LBB123_1:
	.loc	3 814 1 is_stmt 1
	movq	-16(%rbp), %rdi
	callq	__Unwind_Resume
	ud2
Ltmp1165:
LBB123_2:
	.loc	3 0 1 is_stmt 0
	movq	-32(%rbp), %rax
	movq	-40(%rbp), %rcx
	.loc	3 816 5 is_stmt 1
	movq	%rax, %rdi
	movq	%rcx, %rsi
	movl	$64, %edx
	callq	_memcpy
	movq	-48(%rbp), %rax
	.loc	3 817 2
	addq	$48, %rsp
	popq	%rbp
	retq
Ltmp1166:
LBB123_3:
	.loc	3 0 2 is_stmt 0
	movq	-40(%rbp), %rdi
	.loc	3 817 1
	callq	__ZN4core3ptr13drop_in_place17haf5d9d52a5c8c78aE
	jmp	LBB123_1
Ltmp1167:
LBB123_4:
Ltmp1161:
	.loc	3 0 1
	movq	%rax, -16(%rbp)
	movl	%edx, -8(%rbp)
	jmp	LBB123_3
Lfunc_end123:
	.cfi_endproc
	.section	__TEXT,__gcc_except_tab
	.p2align	2
GCC_except_table123:
Lexception33:
	.byte	255
	.byte	255
	.byte	1
	.uleb128 Lcst_end33-Lcst_begin33
Lcst_begin33:
	.uleb128 Ltmp1159-Lfunc_begin123
	.uleb128 Ltmp1160-Ltmp1159
	.uleb128 Ltmp1161-Lfunc_begin123
	.byte	0
	.uleb128 Ltmp1160-Lfunc_begin123
	.uleb128 Lfunc_end123-Ltmp1160
	.byte	0
	.byte	0
Lcst_end33:
	.p2align	2

	.section	__TEXT,__text,regular,pure_instructions
	.p2align	4, 0x90
__ZN4core3mem7replace17hfe5136b351c318d7E:
Lfunc_begin124:
	.loc	3 814 0 is_stmt 1
	.cfi_startproc
	.cfi_personality 155, _rust_eh_personality
	.cfi_lsda 16, Lexception34
	pushq	%rbp
	.cfi_def_cfa_offset 16
	.cfi_offset %rbp, -16
	movq	%rsp, %rbp
	.cfi_def_cfa_register %rbp
	subq	$48, %rsp
	movq	%rdi, %rax
	movq	%rsi, -24(%rbp)
Ltmp1168:
	movq	%rdi, -32(%rbp)
Ltmp1171:
	.loc	3 815 5 prologue_end
	movq	%rsi, %rdi
	movq	%rdx, %rsi
	movq	%rdx, -40(%rbp)
Ltmp1172:
	.loc	3 0 5 is_stmt 0
	movq	%rax, -48(%rbp)
	.loc	3 815 5
	callq	__ZN4core3mem4swap17heafcc48b009afc03E
Ltmp1169:
	jmp	LBB124_2
Ltmp1173:
LBB124_1:
	.loc	3 814 1 is_stmt 1
	movq	-16(%rbp), %rdi
	callq	__Unwind_Resume
	ud2
Ltmp1174:
LBB124_2:
	.loc	3 0 1 is_stmt 0
	movq	-32(%rbp), %rax
	movq	-40(%rbp), %rcx
	.loc	3 816 5 is_stmt 1
	movq	%rax, %rdi
	movq	%rcx, %rsi
	movl	$64, %edx
	callq	_memcpy
	movq	-48(%rbp), %rax
	.loc	3 817 2
	addq	$48, %rsp
	popq	%rbp
	retq
Ltmp1175:
LBB124_3:
	.loc	3 0 2 is_stmt 0
	movq	-40(%rbp), %rdi
	.loc	3 817 1
	callq	__ZN4core3ptr13drop_in_place17h1d07f274e37a5f7eE
	jmp	LBB124_1
Ltmp1176:
LBB124_4:
Ltmp1170:
	.loc	3 0 1
	movq	%rax, -16(%rbp)
	movl	%edx, -8(%rbp)
	jmp	LBB124_3
Lfunc_end124:
	.cfi_endproc
	.section	__TEXT,__gcc_except_tab
	.p2align	2
GCC_except_table124:
Lexception34:
	.byte	255
	.byte	255
	.byte	1
	.uleb128 Lcst_end34-Lcst_begin34
Lcst_begin34:
	.uleb128 Ltmp1168-Lfunc_begin124
	.uleb128 Ltmp1169-Ltmp1168
	.uleb128 Ltmp1170-Lfunc_begin124
	.byte	0
	.uleb128 Ltmp1169-Lfunc_begin124
	.uleb128 Lfunc_end124-Ltmp1169
	.byte	0
	.byte	0
Lcst_end34:
	.p2align	2

	.section	__TEXT,__text,regular,pure_instructions
	.p2align	4, 0x90
__ZN4core3num10NonZeroU323get17ha9310fbcdf055da7E:
Lfunc_begin125:
	.file	28 "/rustc/6c8927b0cf80ceee19386026cf9d7fd4fd9d486f/src/libcore/num/mod.rs"
	.loc	28 105 0 is_stmt 1
	.cfi_startproc
	pushq	%rbp
	.cfi_def_cfa_offset 16
	.cfi_offset %rbp, -16
	movq	%rsp, %rbp
	.cfi_def_cfa_register %rbp
	subq	$4, %rsp
	movl	%edi, -4(%rbp)
Ltmp1177:
	.loc	28 107 18 prologue_end
	movl	%edi, %eax
	addq	$4, %rsp
	popq	%rbp
	retq
Ltmp1178:
Lfunc_end125:
	.cfi_endproc

	.p2align	4, 0x90
__ZN4core3num10NonZeroU323new17h9be796934fb51544E:
Lfunc_begin126:
	.loc	28 92 0
	.cfi_startproc
	pushq	%rbp
	.cfi_def_cfa_offset 16
	.cfi_offset %rbp, -16
	movq	%rsp, %rbp
	.cfi_def_cfa_register %rbp
	subq	$16, %rsp
	movl	%edi, -4(%rbp)
Ltmp1179:
	.loc	28 93 24 prologue_end
	cmpl	$0, %edi
	movl	%edi, -16(%rbp)
	.loc	28 93 21 is_stmt 0
	jne	LBB126_2
	.loc	28 97 25 is_stmt 1
	movl	$0, -12(%rbp)
	.loc	28 93 21
	jmp	LBB126_3
LBB126_2:
	.loc	28 0 21 is_stmt 0
	movl	-16(%rbp), %eax
	.loc	28 95 39 is_stmt 1
	movl	%eax, -8(%rbp)
	.loc	28 95 25 is_stmt 0
	movl	-8(%rbp), %ecx
	movl	%ecx, -12(%rbp)
LBB126_3:
	.loc	28 99 18 is_stmt 1
	movl	-12(%rbp), %eax
	addq	$16, %rsp
	popq	%rbp
	retq
Ltmp1180:
Lfunc_end126:
	.cfi_endproc

	.p2align	4, 0x90
__ZN4core3num12NonZeroUsize13new_unchecked17h4e876678770e326cE:
Lfunc_begin127:
	.loc	28 83 0
	.cfi_startproc
	pushq	%rbp
	.cfi_def_cfa_offset 16
	.cfi_offset %rbp, -16
	movq	%rsp, %rbp
	.cfi_def_cfa_register %rbp
	subq	$16, %rsp
	movq	%rdi, -8(%rbp)
Ltmp1181:
	.loc	28 85 30 prologue_end
	movq	%rdi, -16(%rbp)
	.loc	28 86 18
	movq	-16(%rbp), %rax
	addq	$16, %rsp
	popq	%rbp
	retq
Ltmp1182:
Lfunc_end127:
	.cfi_endproc

	.p2align	4, 0x90
__ZN4core3num12NonZeroUsize3get17h862a1c8fc1ca7c39E:
Lfunc_begin128:
	.loc	28 105 0
	.cfi_startproc
	pushq	%rbp
	.cfi_def_cfa_offset 16
	.cfi_offset %rbp, -16
	movq	%rsp, %rbp
	.cfi_def_cfa_register %rbp
	pushq	%rax
	movq	%rdi, -8(%rbp)
Ltmp1183:
	.loc	28 107 18 prologue_end
	movq	%rdi, %rax
	addq	$8, %rsp
	popq	%rbp
	retq
Ltmp1184:
Lfunc_end128:
	.cfi_endproc

	.p2align	4, 0x90
__ZN4core3num21_$LT$impl$u20$u32$GT$11to_le_bytes17hd5df875ef87f6727E:
Lfunc_begin129:
	.loc	28 4312 0
	.cfi_startproc
	pushq	%rbp
	.cfi_def_cfa_offset 16
	.cfi_offset %rbp, -16
	movq	%rsp, %rbp
	.cfi_def_cfa_register %rbp
	subq	$16, %rsp
	movl	%edi, -8(%rbp)
Ltmp1185:
	.loc	28 4313 17 prologue_end
	callq	__ZN4core3num21_$LT$impl$u20$u32$GT$5to_le17h6beab5f7b67c3862E
	movl	%eax, -16(%rbp)
	.loc	28 0 17 is_stmt 0
	movl	-16(%rbp), %edi
	.loc	28 4313 17
	callq	__ZN4core3num21_$LT$impl$u20$u32$GT$11to_ne_bytes17h9cf79abcf3c6c734E
	movl	%eax, -4(%rbp)
	movl	-4(%rbp), %eax
	movl	%eax, -12(%rbp)
	.loc	28 4314 14 is_stmt 1
	movl	-12(%rbp), %eax
	addq	$16, %rsp
	popq	%rbp
	retq
Ltmp1186:
Lfunc_end129:
	.cfi_endproc

	.p2align	4, 0x90
__ZN4core3num21_$LT$impl$u20$u32$GT$11to_ne_bytes17h9cf79abcf3c6c734E:
Lfunc_begin130:
	.loc	28 4350 0
	.cfi_startproc
	pushq	%rbp
	.cfi_def_cfa_offset 16
	.cfi_offset %rbp, -16
	movq	%rsp, %rbp
	.cfi_def_cfa_register %rbp
	subq	$16, %rsp
	movl	%edi, -4(%rbp)
Ltmp1187:
	.loc	28 4358 26 prologue_end
	movl	%edi, -8(%rbp)
	movl	-8(%rbp), %eax
	movl	%eax, -12(%rbp)
	.loc	28 4359 14
	movl	-12(%rbp), %eax
	addq	$16, %rsp
	popq	%rbp
	retq
Ltmp1188:
Lfunc_end130:
	.cfi_endproc

	.p2align	4, 0x90
__ZN4core3num21_$LT$impl$u20$u32$GT$13from_le_bytes17h9d6ca8ffc8fbbe13E:
Lfunc_begin131:
	.loc	28 4422 0
	.cfi_startproc
	pushq	%rbp
	.cfi_def_cfa_offset 16
	.cfi_offset %rbp, -16
	movq	%rsp, %rbp
	.cfi_def_cfa_register %rbp
	subq	$32, %rsp
	movl	%edi, -8(%rbp)
	movl	-8(%rbp), %eax
	movl	%eax, -12(%rbp)
Ltmp1189:
	.loc	28 4423 51 prologue_end
	movl	-12(%rbp), %eax
	movl	%eax, -4(%rbp)
	.loc	28 4423 31 is_stmt 0
	movl	-4(%rbp), %edi
	callq	__ZN4core3num21_$LT$impl$u20$u32$GT$13from_ne_bytes17h3cc33c65555699dbE
	movl	%eax, -16(%rbp)
	.loc	28 0 31
	movl	-16(%rbp), %edi
	.loc	28 4423 17
	callq	__ZN4core3num21_$LT$impl$u20$u32$GT$7from_le17hea2ec96c37d40c5eE
	movl	%eax, -20(%rbp)
	.loc	28 0 17
	movl	-20(%rbp), %eax
	.loc	28 4424 14 is_stmt 1
	addq	$32, %rsp
	popq	%rbp
	retq
Ltmp1190:
Lfunc_end131:
	.cfi_endproc

	.p2align	4, 0x90
__ZN4core3num21_$LT$impl$u20$u32$GT$13from_ne_bytes17h3cc33c65555699dbE:
Lfunc_begin132:
	.loc	28 4468 0
	.cfi_startproc
	pushq	%rbp
	.cfi_def_cfa_offset 16
	.cfi_offset %rbp, -16
	movq	%rsp, %rbp
	.cfi_def_cfa_register %rbp
	subq	$16, %rsp
	movl	%edi, -12(%rbp)
	movl	-12(%rbp), %eax
	movl	%eax, -16(%rbp)
Ltmp1191:
	.loc	28 4475 34 prologue_end
	movl	-16(%rbp), %eax
	movl	%eax, -4(%rbp)
	.loc	28 4475 26 is_stmt 0
	movl	-4(%rbp), %eax
	movl	%eax, -8(%rbp)
	movl	-8(%rbp), %eax
	.loc	28 4476 14 is_stmt 1
	addq	$16, %rsp
	popq	%rbp
	retq
Ltmp1192:
Lfunc_end132:
	.cfi_endproc

	.p2align	4, 0x90
__ZN4core3num21_$LT$impl$u20$u32$GT$5to_le17h6beab5f7b67c3862E:
Lfunc_begin133:
	.loc	28 2962 0
	.cfi_startproc
	pushq	%rbp
	.cfi_def_cfa_offset 16
	.cfi_offset %rbp, -16
	movq	%rsp, %rbp
	.cfi_def_cfa_register %rbp
	subq	$4, %rsp
	movl	%edi, -4(%rbp)
Ltmp1193:
	.loc	28 2971 14 prologue_end
	movl	%edi, %eax
	addq	$4, %rsp
	popq	%rbp
	retq
Ltmp1194:
Lfunc_end133:
	.cfi_endproc

	.p2align	4, 0x90
__ZN4core3num21_$LT$impl$u20$u32$GT$7from_le17hea2ec96c37d40c5eE:
Lfunc_begin134:
	.loc	28 2894 0
	.cfi_startproc
	pushq	%rbp
	.cfi_def_cfa_offset 16
	.cfi_offset %rbp, -16
	movq	%rsp, %rbp
	.cfi_def_cfa_register %rbp
	subq	$4, %rsp
	movl	%edi, -4(%rbp)
Ltmp1195:
	.loc	28 2903 14 prologue_end
	movl	%edi, %eax
	addq	$4, %rsp
	popq	%rbp
	retq
Ltmp1196:
Lfunc_end134:
	.cfi_endproc

	.p2align	4, 0x90
__ZN4core3num23_$LT$impl$u20$usize$GT$10count_ones17h07af3b76467b4802E:
Lfunc_begin135:
	.loc	28 2636 0
	.cfi_startproc
	pushq	%rbp
	.cfi_def_cfa_offset 16
	.cfi_offset %rbp, -16
	movq	%rsp, %rbp
	.cfi_def_cfa_register %rbp
	subq	$24, %rsp
	movq	%rdi, -16(%rbp)
Ltmp1197:
	.loc	28 2637 17 prologue_end
	movq	%rdi, %rax
	shrq	%rax
	movabsq	$6148914691236517205, %rcx
	andq	%rcx, %rax
	subq	%rax, %rdi
	movabsq	$3689348814741910323, %rax
	movq	%rdi, %rcx
	andq	%rax, %rcx
	shrq	$2, %rdi
	andq	%rax, %rdi
	addq	%rdi, %rcx
	movq	%rcx, %rax
	shrq	$4, %rax
	addq	%rax, %rcx
	movabsq	$1085102592571150095, %rax
	andq	%rax, %rcx
	movabsq	$72340172838076673, %rax
	imulq	%rax, %rcx
	shrq	$56, %rcx
	movq	%rcx, -8(%rbp)
	movq	-8(%rbp), %rax
	movq	%rax, -24(%rbp)
	.loc	28 0 17 is_stmt 0
	movq	-24(%rbp), %rax
	.loc	28 2637 17
	movl	%eax, %ecx
	.loc	28 2638 14 is_stmt 1
	movl	%ecx, %eax
	addq	$24, %rsp
	popq	%rbp
	retq
Ltmp1198:
Lfunc_end135:
	.cfi_endproc

	.p2align	4, 0x90
__ZN4core3num23_$LT$impl$u20$usize$GT$11checked_add17h5bec03eb7e9ca7a8E:
Lfunc_begin136:
	.loc	28 2992 0
	.cfi_startproc
	pushq	%rbp
	.cfi_def_cfa_offset 16
	.cfi_offset %rbp, -16
	movq	%rsp, %rbp
	.cfi_def_cfa_register %rbp
	subq	$64, %rsp
	movq	%rdi, -32(%rbp)
	movq	%rsi, -24(%rbp)
Ltmp1199:
	.loc	28 2993 30 prologue_end
	callq	__ZN4core3num23_$LT$impl$u20$usize$GT$15overflowing_add17h52545cf5f8eca27aE
	movq	%rax, -56(%rbp)
	movb	%dl, -57(%rbp)
	.loc	28 0 30 is_stmt 0
	movq	-56(%rbp), %rax
	.loc	28 2993 22
	movq	%rax, -16(%rbp)
	movb	-57(%rbp), %cl
	.loc	28 2993 25
	andb	$1, %cl
	movb	%cl, -2(%rbp)
	movb	-57(%rbp), %cl
Ltmp1200:
	.loc	28 27 9 is_stmt 1
	andb	$1, %cl
	movb	%cl, -1(%rbp)
	movb	-1(%rbp), %cl
	movb	%cl, -58(%rbp)
	.loc	28 0 9 is_stmt 0
	movb	-58(%rbp), %al
	.loc	28 2994 17 is_stmt 1
	testb	$1, %al
	jne	LBB136_4
	jmp	LBB136_3
LBB136_3:
	.loc	28 0 17 is_stmt 0
	movq	-56(%rbp), %rax
	.loc	28 2994 46
	movq	%rax, -40(%rbp)
	movq	$1, -48(%rbp)
	.loc	28 2994 17
	jmp	LBB136_5
LBB136_4:
	.loc	28 2994 34
	movq	$0, -48(%rbp)
Ltmp1201:
LBB136_5:
	.loc	28 2995 14 is_stmt 1
	movq	-48(%rbp), %rax
	movq	-40(%rbp), %rdx
	addq	$64, %rsp
	popq	%rbp
	retq
Ltmp1202:
Lfunc_end136:
	.cfi_endproc

	.p2align	4, 0x90
__ZN4core3num23_$LT$impl$u20$usize$GT$11checked_mul17h07abad6c90078f67E:
Lfunc_begin137:
	.loc	28 3076 0
	.cfi_startproc
	pushq	%rbp
	.cfi_def_cfa_offset 16
	.cfi_offset %rbp, -16
	movq	%rsp, %rbp
	.cfi_def_cfa_register %rbp
	subq	$64, %rsp
	movq	%rdi, -32(%rbp)
	movq	%rsi, -24(%rbp)
Ltmp1203:
	.loc	28 3077 30 prologue_end
	callq	__ZN4core3num23_$LT$impl$u20$usize$GT$15overflowing_mul17hd9b57552b520e5feE
	movq	%rax, -56(%rbp)
	movb	%dl, -57(%rbp)
	.loc	28 0 30 is_stmt 0
	movq	-56(%rbp), %rax
	.loc	28 3077 22
	movq	%rax, -16(%rbp)
	movb	-57(%rbp), %cl
	.loc	28 3077 25
	andb	$1, %cl
	movb	%cl, -2(%rbp)
	movb	-57(%rbp), %cl
Ltmp1204:
	.loc	28 27 9 is_stmt 1
	andb	$1, %cl
	movb	%cl, -1(%rbp)
	movb	-1(%rbp), %cl
	movb	%cl, -58(%rbp)
	.loc	28 0 9 is_stmt 0
	movb	-58(%rbp), %al
	.loc	28 3078 17 is_stmt 1
	testb	$1, %al
	jne	LBB137_4
	jmp	LBB137_3
LBB137_3:
	.loc	28 0 17 is_stmt 0
	movq	-56(%rbp), %rax
	.loc	28 3078 46
	movq	%rax, -40(%rbp)
	movq	$1, -48(%rbp)
	.loc	28 3078 17
	jmp	LBB137_5
LBB137_4:
	.loc	28 3078 34
	movq	$0, -48(%rbp)
Ltmp1205:
LBB137_5:
	.loc	28 3079 14 is_stmt 1
	movq	-48(%rbp), %rax
	movq	-40(%rbp), %rdx
	addq	$64, %rsp
	popq	%rbp
	retq
Ltmp1206:
Lfunc_end137:
	.cfi_endproc

	.p2align	4, 0x90
__ZN4core3num23_$LT$impl$u20$usize$GT$11to_le_bytes17hfe1b277e3043a62dE:
Lfunc_begin138:
	.loc	28 4312 0
	.cfi_startproc
	pushq	%rbp
	.cfi_def_cfa_offset 16
	.cfi_offset %rbp, -16
	movq	%rsp, %rbp
	.cfi_def_cfa_register %rbp
	subq	$32, %rsp
	movq	%rdi, -16(%rbp)
Ltmp1207:
	.loc	28 4313 17 prologue_end
	callq	__ZN4core3num23_$LT$impl$u20$usize$GT$5to_le17hc2bb462e9d4f4dffE
	movq	%rax, -32(%rbp)
	.loc	28 0 17 is_stmt 0
	movq	-32(%rbp), %rdi
	.loc	28 4313 17
	callq	__ZN4core3num23_$LT$impl$u20$usize$GT$11to_ne_bytes17h38366222be91d38bE
	movq	%rax, -8(%rbp)
	movq	-8(%rbp), %rax
	movq	%rax, -24(%rbp)
	.loc	28 4314 14 is_stmt 1
	movq	-24(%rbp), %rax
	addq	$32, %rsp
	popq	%rbp
	retq
Ltmp1208:
Lfunc_end138:
	.cfi_endproc

	.p2align	4, 0x90
__ZN4core3num23_$LT$impl$u20$usize$GT$11to_ne_bytes17h38366222be91d38bE:
Lfunc_begin139:
	.loc	28 4350 0
	.cfi_startproc
	pushq	%rbp
	.cfi_def_cfa_offset 16
	.cfi_offset %rbp, -16
	movq	%rsp, %rbp
	.cfi_def_cfa_register %rbp
	subq	$24, %rsp
	movq	%rdi, -8(%rbp)
Ltmp1209:
	.loc	28 4358 26 prologue_end
	movq	%rdi, -16(%rbp)
	movq	-16(%rbp), %rax
	movq	%rax, -24(%rbp)
	.loc	28 4359 14
	movq	-24(%rbp), %rax
	addq	$24, %rsp
	popq	%rbp
	retq
Ltmp1210:
Lfunc_end139:
	.cfi_endproc

	.p2align	4, 0x90
__ZN4core3num23_$LT$impl$u20$usize$GT$12wrapping_add17hfe8891c44e2ba194E:
Lfunc_begin140:
	.loc	28 3438 0
	.cfi_startproc
	pushq	%rbp
	.cfi_def_cfa_offset 16
	.cfi_offset %rbp, -16
	movq	%rsp, %rbp
	.cfi_def_cfa_register %rbp
	subq	$32, %rsp
	movq	%rdi, -24(%rbp)
	movq	%rsi, -16(%rbp)
Ltmp1211:
	.loc	28 3439 17 prologue_end
	addq	%rsi, %rdi
	movq	%rdi, -8(%rbp)
	movq	-8(%rbp), %rax
	movq	%rax, -32(%rbp)
	.loc	28 0 17 is_stmt 0
	movq	-32(%rbp), %rax
	.loc	28 3440 14 is_stmt 1
	addq	$32, %rsp
	popq	%rbp
	retq
Ltmp1212:
Lfunc_end140:
	.cfi_endproc

	.p2align	4, 0x90
__ZN4core3num23_$LT$impl$u20$usize$GT$12wrapping_sub17h84a565c1dbaf8d10E:
Lfunc_begin141:
	.loc	28 3461 0
	.cfi_startproc
	pushq	%rbp
	.cfi_def_cfa_offset 16
	.cfi_offset %rbp, -16
	movq	%rsp, %rbp
	.cfi_def_cfa_register %rbp
	subq	$32, %rsp
	movq	%rdi, -24(%rbp)
	movq	%rsi, -16(%rbp)
Ltmp1213:
	.loc	28 3462 17 prologue_end
	subq	%rsi, %rdi
	movq	%rdi, -8(%rbp)
	movq	-8(%rbp), %rax
	movq	%rax, -32(%rbp)
	.loc	28 0 17 is_stmt 0
	movq	-32(%rbp), %rax
	.loc	28 3463 14 is_stmt 1
	addq	$32, %rsp
	popq	%rbp
	retq
Ltmp1214:
Lfunc_end141:
	.cfi_endproc

	.p2align	4, 0x90
__ZN4core3num23_$LT$impl$u20$usize$GT$14saturating_add17h76ef8cd6f06e53feE:
Lfunc_begin142:
	.loc	28 3339 0
	.cfi_startproc
	pushq	%rbp
	.cfi_def_cfa_offset 16
	.cfi_offset %rbp, -16
	movq	%rsp, %rbp
	.cfi_def_cfa_register %rbp
	subq	$32, %rsp
	movq	%rdi, -24(%rbp)
	movq	%rsi, -16(%rbp)
Ltmp1215:
	.loc	28 3340 17 prologue_end
	addq	%rsi, %rdi
	movq	$-1, %rax
	cmovbq	%rax, %rdi
	movq	%rdi, -8(%rbp)
	movq	-8(%rbp), %rax
	movq	%rax, -32(%rbp)
	.loc	28 0 17 is_stmt 0
	movq	-32(%rbp), %rax
	.loc	28 3341 14 is_stmt 1
	addq	$32, %rsp
	popq	%rbp
	retq
Ltmp1216:
Lfunc_end142:
	.cfi_endproc

	.p2align	4, 0x90
__ZN4core3num23_$LT$impl$u20$usize$GT$14saturating_sub17h1405e3becba8d3b2E:
Lfunc_begin143:
	.loc	28 3361 0
	.cfi_startproc
	pushq	%rbp
	.cfi_def_cfa_offset 16
	.cfi_offset %rbp, -16
	movq	%rsp, %rbp
	.cfi_def_cfa_register %rbp
	subq	$32, %rsp
	movq	%rdi, -24(%rbp)
	movq	%rsi, -16(%rbp)
	xorl	%eax, %eax
Ltmp1217:
	.loc	28 3362 17 prologue_end
	subq	%rsi, %rdi
	movl	%eax, %ecx
	cmovbq	%rcx, %rdi
	movq	%rdi, -8(%rbp)
	movq	-8(%rbp), %rax
	movq	%rax, -32(%rbp)
	.loc	28 0 17 is_stmt 0
	movq	-32(%rbp), %rax
	.loc	28 3363 14 is_stmt 1
	addq	$32, %rsp
	popq	%rbp
	retq
Ltmp1218:
Lfunc_end143:
	.cfi_endproc

	.p2align	4, 0x90
__ZN4core3num23_$LT$impl$u20$usize$GT$15is_power_of_two17h71bcbd3d978517c1E:
Lfunc_begin144:
	.loc	28 4176 0
	.cfi_startproc
	pushq	%rbp
	.cfi_def_cfa_offset 16
	.cfi_offset %rbp, -16
	movq	%rsp, %rbp
	.cfi_def_cfa_register %rbp
	subq	$16, %rsp
	movq	%rdi, -8(%rbp)
Ltmp1219:
	.loc	28 4177 17 prologue_end
	callq	__ZN4core3num23_$LT$impl$u20$usize$GT$10count_ones17h07af3b76467b4802E
	movl	%eax, -12(%rbp)
	.loc	28 0 17 is_stmt 0
	movl	-12(%rbp), %eax
	.loc	28 4177 17
	cmpl	$1, %eax
	sete	%cl
	.loc	28 4178 14 is_stmt 1
	andb	$1, %cl
	movzbl	%cl, %eax
	addq	$16, %rsp
	popq	%rbp
	retq
Ltmp1220:
Lfunc_end144:
	.cfi_endproc

	.p2align	4, 0x90
__ZN4core3num23_$LT$impl$u20$usize$GT$15overflowing_add17h52545cf5f8eca27aE:
Lfunc_begin145:
	.loc	28 3750 0
	.cfi_startproc
	pushq	%rbp
	.cfi_def_cfa_offset 16
	.cfi_offset %rbp, -16
	movq	%rsp, %rbp
	.cfi_def_cfa_register %rbp
	subq	$80, %rsp
	movq	%rdi, -48(%rbp)
	movq	%rsi, -40(%rbp)
Ltmp1221:
	.loc	28 3751 30 prologue_end
	addq	%rsi, %rdi
	setb	%al
	andb	$1, %al
	movq	%rdi, -32(%rbp)
	movb	%al, -24(%rbp)
	movq	-32(%rbp), %rcx
	movb	-24(%rbp), %al
	movq	%rcx, -72(%rbp)
	movb	%al, -73(%rbp)
	.loc	28 0 30 is_stmt 0
	movq	-72(%rbp), %rax
	.loc	28 3751 22
	movq	%rax, -16(%rbp)
	movb	-73(%rbp), %cl
	.loc	28 3751 25
	andb	$1, %cl
	movb	%cl, -1(%rbp)
Ltmp1222:
	.loc	28 3752 17 is_stmt 1
	movq	%rax, -64(%rbp)
	movb	%cl, -56(%rbp)
Ltmp1223:
	.loc	28 3753 14
	movq	-64(%rbp), %rax
	movb	-56(%rbp), %dl
	addq	$80, %rsp
	popq	%rbp
	retq
Ltmp1224:
Lfunc_end145:
	.cfi_endproc

	.p2align	4, 0x90
__ZN4core3num23_$LT$impl$u20$usize$GT$15overflowing_mul17hd9b57552b520e5feE:
Lfunc_begin146:
	.loc	28 3806 0
	.cfi_startproc
	pushq	%rbp
	.cfi_def_cfa_offset 16
	.cfi_offset %rbp, -16
	movq	%rsp, %rbp
	.cfi_def_cfa_register %rbp
	subq	$80, %rsp
	movq	%rdi, -48(%rbp)
	movq	%rsi, -40(%rbp)
Ltmp1225:
	.loc	28 3807 26 prologue_end
	movq	%rdi, %rax
	mulq	%rsi
	seto	%cl
	andb	$1, %cl
	movq	%rax, -32(%rbp)
	movb	%cl, -24(%rbp)
	movq	-32(%rbp), %rax
	movb	-24(%rbp), %cl
	movq	%rax, -72(%rbp)
	movb	%cl, -73(%rbp)
	.loc	28 0 26 is_stmt 0
	movq	-72(%rbp), %rax
	.loc	28 3807 18
	movq	%rax, -16(%rbp)
	movb	-73(%rbp), %cl
	.loc	28 3807 21
	andb	$1, %cl
	movb	%cl, -1(%rbp)
Ltmp1226:
	.loc	28 3808 13 is_stmt 1
	movq	%rax, -64(%rbp)
	movb	%cl, -56(%rbp)
Ltmp1227:
	.loc	28 3809 10
	movq	-64(%rbp), %rax
	movb	-56(%rbp), %dl
	addq	$80, %rsp
	popq	%rbp
	retq
Ltmp1228:
Lfunc_end146:
	.cfi_endproc

	.p2align	4, 0x90
__ZN4core3num23_$LT$impl$u20$usize$GT$5to_le17hc2bb462e9d4f4dffE:
Lfunc_begin147:
	.loc	28 2962 0
	.cfi_startproc
	pushq	%rbp
	.cfi_def_cfa_offset 16
	.cfi_offset %rbp, -16
	movq	%rsp, %rbp
	.cfi_def_cfa_register %rbp
	pushq	%rax
	movq	%rdi, -8(%rbp)
Ltmp1229:
	.loc	28 2971 14 prologue_end
	movq	%rdi, %rax
	addq	$8, %rsp
	popq	%rbp
	retq
Ltmp1230:
Lfunc_end147:
	.cfi_endproc

	.p2align	4, 0x90
__ZN4core3ops8function5FnMut8call_mut17h24611ef8c29422f5E:
Lfunc_begin148:
	.file	29 "/rustc/6c8927b0cf80ceee19386026cf9d7fd4fd9d486f/src/libcore/ops/function.rs"
	.loc	29 154 0
	.cfi_startproc
	pushq	%rbp
	.cfi_def_cfa_offset 16
	.cfi_offset %rbp, -16
	movq	%rsp, %rbp
	.cfi_def_cfa_register %rbp
	subq	$32, %rsp
	movq	%rsi, -16(%rbp)
	movq	%rdi, -8(%rbp)
Ltmp1231:
	.loc	29 154 5 prologue_end
	movq	-16(%rbp), %rdi
	callq	__ZN14failure_derive8is_cause17h29ec4fa4626d59baE
	movb	%al, -17(%rbp)
	.loc	29 0 5 is_stmt 0
	movb	-17(%rbp), %al
	.loc	29 154 5
	andb	$1, %al
	movzbl	%al, %eax
	addq	$32, %rsp
	popq	%rbp
	retq
Ltmp1232:
Lfunc_end148:
	.cfi_endproc

	.p2align	4, 0x90
__ZN4core3ops8function5FnMut8call_mut17h42705accb693a351E:
Lfunc_begin149:
	.loc	29 154 0 is_stmt 1
	.cfi_startproc
	pushq	%rbp
	.cfi_def_cfa_offset 16
	.cfi_offset %rbp, -16
	movq	%rsp, %rbp
	.cfi_def_cfa_register %rbp
	subq	$32, %rsp
	movq	%rsi, -16(%rbp)
	movq	%rdi, -8(%rbp)
Ltmp1233:
	.loc	29 154 5 prologue_end
	movq	-16(%rbp), %rdi
	callq	__ZN14failure_derive12is_backtrace17h43bce59564bcb76aE
	movb	%al, -17(%rbp)
	.loc	29 0 5 is_stmt 0
	movb	-17(%rbp), %al
	.loc	29 154 5
	andb	$1, %al
	movzbl	%al, %eax
	addq	$32, %rsp
	popq	%rbp
	retq
Ltmp1234:
Lfunc_end149:
	.cfi_endproc

	.p2align	4, 0x90
__ZN4core3ops8function6FnOnce40call_once$u7b$$u7b$vtable.shim$u7d$$u7d$17h22aa5ad51e769c52E:
Lfunc_begin150:
	.loc	29 233 0 is_stmt 1
	.cfi_startproc
	pushq	%rbp
	.cfi_def_cfa_offset 16
	.cfi_offset %rbp, -16
	movq	%rsp, %rbp
	.cfi_def_cfa_register %rbp
	subq	$16, %rsp
	movq	%rsi, -16(%rbp)
	movq	%rdi, -8(%rbp)
Ltmp1235:
	.loc	29 233 5 prologue_end
	movq	(%rdi), %rdi
	movq	-16(%rbp), %rax
	movq	%rax, %rsi
	callq	__ZN4core3ops8function6FnOnce9call_once17h1b78fd72ef9ec10aE
	addq	$16, %rsp
	popq	%rbp
	retq
Ltmp1236:
Lfunc_end150:
	.cfi_endproc

	.p2align	4, 0x90
__ZN4core3ops8function6FnOnce40call_once$u7b$$u7b$vtable.shim$u7d$$u7d$17h57a8f0e504215f2bE:
Lfunc_begin151:
	.loc	29 233 0
	.cfi_startproc
	pushq	%rbp
	.cfi_def_cfa_offset 16
	.cfi_offset %rbp, -16
	movq	%rsp, %rbp
	.cfi_def_cfa_register %rbp
	subq	$16, %rsp
	movq	%rsi, -16(%rbp)
	movq	%rdi, -8(%rbp)
Ltmp1237:
	.loc	29 233 5 prologue_end
	movq	(%rdi), %rax
	movq	8(%rdi), %rsi
	movq	-16(%rbp), %rcx
	movq	%rax, %rdi
	movq	%rcx, %rdx
	callq	__ZN4core3ops8function6FnOnce9call_once17h0adbb89444cef064E
	addq	$16, %rsp
	popq	%rbp
	retq
Ltmp1238:
Lfunc_end151:
	.cfi_endproc

	.p2align	4, 0x90
__ZN4core3ops8function6FnOnce9call_once17h0adbb89444cef064E:
Lfunc_begin152:
	.loc	29 233 0
	.cfi_startproc
	.cfi_personality 155, _rust_eh_personality
	.cfi_lsda 16, Lexception35
	pushq	%rbp
	.cfi_def_cfa_offset 16
	.cfi_offset %rbp, -16
	movq	%rsp, %rbp
	.cfi_def_cfa_register %rbp
	subq	$48, %rsp
	movq	%rdi, -40(%rbp)
	movq	%rsi, -32(%rbp)
	movq	%rdx, -24(%rbp)
Ltmp1242:
	.loc	29 233 5 prologue_end
	movq	-24(%rbp), %rsi
Ltmp1239:
	leaq	-40(%rbp), %rdi
	callq	__ZN10proc_macro6bridge6client44_$LT$impl$u20$proc_macro..bridge..Bridge$GT$5enter28_$u7b$$u7b$closure$u7d$$u7d$28_$u7b$$u7b$closure$u7d$$u7d$17h1274c532f65e206fE
Ltmp1240:
	jmp	LBB152_1
LBB152_1:
	leaq	-40(%rbp), %rdi
	callq	__ZN4core3ptr13drop_in_place17h16394b44840c1838E
	addq	$48, %rsp
	popq	%rbp
	retq
LBB152_3:
	leaq	-40(%rbp), %rdi
	callq	__ZN4core3ptr13drop_in_place17h16394b44840c1838E
	movq	-16(%rbp), %rdi
	callq	__Unwind_Resume
	ud2
Ltmp1243:
LBB152_5:
Ltmp1241:
	.loc	29 0 5 is_stmt 0
	movq	%rax, -16(%rbp)
	movl	%edx, -8(%rbp)
	jmp	LBB152_3
Lfunc_end152:
	.cfi_endproc
	.section	__TEXT,__gcc_except_tab
	.p2align	2
GCC_except_table152:
Lexception35:
	.byte	255
	.byte	255
	.byte	1
	.uleb128 Lcst_end35-Lcst_begin35
Lcst_begin35:
	.uleb128 Ltmp1239-Lfunc_begin152
	.uleb128 Ltmp1240-Ltmp1239
	.uleb128 Ltmp1241-Lfunc_begin152
	.byte	0
	.uleb128 Ltmp1240-Lfunc_begin152
	.uleb128 Lfunc_end152-Ltmp1240
	.byte	0
	.byte	0
Lcst_end35:
	.p2align	2

	.section	__TEXT,__text,regular,pure_instructions
	.p2align	4, 0x90
__ZN4core3ops8function6FnOnce9call_once17h1b78fd72ef9ec10aE:
Lfunc_begin153:
	.loc	29 233 0 is_stmt 1
	.cfi_startproc
	.cfi_personality 155, _rust_eh_personality
	.cfi_lsda 16, Lexception36
	pushq	%rbp
	.cfi_def_cfa_offset 16
	.cfi_offset %rbp, -16
	movq	%rsp, %rbp
	.cfi_def_cfa_register %rbp
	subq	$32, %rsp
	movq	%rdi, -32(%rbp)
	movq	%rsi, -24(%rbp)
Ltmp1247:
	.loc	29 233 5 prologue_end
	movq	-24(%rbp), %rsi
Ltmp1244:
	leaq	-32(%rbp), %rdi
	callq	__ZN3std4sync4once4Once9call_once28_$u7b$$u7b$closure$u7d$$u7d$17hffe8f89805b86c1aE
Ltmp1245:
	jmp	LBB153_1
LBB153_1:
	jmp	LBB153_2
LBB153_2:
	addq	$32, %rsp
	popq	%rbp
	retq
LBB153_3:
	jmp	LBB153_4
LBB153_4:
	movq	-16(%rbp), %rdi
	callq	__Unwind_Resume
	ud2
Ltmp1248:
LBB153_5:
Ltmp1246:
	.loc	29 0 5 is_stmt 0
	movq	%rax, -16(%rbp)
	movl	%edx, -8(%rbp)
	jmp	LBB153_3
Lfunc_end153:
	.cfi_endproc
	.section	__TEXT,__gcc_except_tab
	.p2align	2
GCC_except_table153:
Lexception36:
	.byte	255
	.byte	255
	.byte	1
	.uleb128 Lcst_end36-Lcst_begin36
Lcst_begin36:
	.uleb128 Ltmp1244-Lfunc_begin153
	.uleb128 Ltmp1245-Ltmp1244
	.uleb128 Ltmp1246-Lfunc_begin153
	.byte	0
	.uleb128 Ltmp1245-Lfunc_begin153
	.uleb128 Lfunc_end153-Ltmp1245
	.byte	0
	.byte	0
Lcst_end36:
	.p2align	2

	.section	__TEXT,__text,regular,pure_instructions
	.p2align	4, 0x90
__ZN4core3ops8function6FnOnce9call_once17h4de990507601220aE:
Lfunc_begin154:
	.loc	29 233 0 is_stmt 1
	.cfi_startproc
	pushq	%rbp
	.cfi_def_cfa_offset 16
	.cfi_offset %rbp, -16
	movq	%rsp, %rbp
	.cfi_def_cfa_register %rbp
	subq	$48, %rsp
	movl	%esi, -28(%rbp)
	movl	-28(%rbp), %eax
	movl	%eax, -32(%rbp)
	movq	%rdi, -16(%rbp)
Ltmp1249:
	.loc	29 233 5 prologue_end
	movl	-32(%rbp), %eax
	movq	%rdi, -40(%rbp)
	movl	%eax, %edi
	movq	-40(%rbp), %rcx
	callq	*%rcx
	movl	%eax, -4(%rbp)
	movl	-4(%rbp), %eax
	movl	%eax, -24(%rbp)
	movl	-24(%rbp), %eax
	addq	$48, %rsp
	popq	%rbp
	retq
Ltmp1250:
Lfunc_end154:
	.cfi_endproc

	.p2align	4, 0x90
__ZN4core3ops8function6FnOnce9call_once17h80896d70716277a7E:
Lfunc_begin155:
	.loc	29 233 0
	.cfi_startproc
	pushq	%rbp
	.cfi_def_cfa_offset 16
	.cfi_offset %rbp, -16
	movq	%rsp, %rbp
	.cfi_def_cfa_register %rbp
	subq	$32, %rsp
	movq	%rdi, %rax
	movq	%rsi, -16(%rbp)
Ltmp1251:
	.loc	29 233 5 prologue_end
	movq	-16(%rbp), %rsi
	movq	%rax, -24(%rbp)
	callq	__ZN45_$LT$T$u20$as$u20$alloc..string..ToString$GT$9to_string17h1bb278ca030a4764E
	.loc	29 0 5 is_stmt 0
	movq	-24(%rbp), %rax
	.loc	29 233 5
	addq	$32, %rsp
	popq	%rbp
	retq
Ltmp1252:
Lfunc_end155:
	.cfi_endproc

	.p2align	4, 0x90
__ZN4core3ops8function6FnOnce9call_once17h918d55a14034d05aE:
Lfunc_begin156:
	.loc	29 233 0 is_stmt 1
	.cfi_startproc
	pushq	%rbp
	.cfi_def_cfa_offset 16
	.cfi_offset %rbp, -16
	movq	%rsp, %rbp
	.cfi_def_cfa_register %rbp
	subq	$32, %rsp
	movq	%rdi, %rax
	movq	%rsi, -24(%rbp)
	movq	%rdx, -16(%rbp)
Ltmp1253:
	.loc	29 233 5 prologue_end
	movq	-24(%rbp), %rsi
	movq	-16(%rbp), %rdx
	movq	%rax, -32(%rbp)
	callq	__ZN155_$LT$proc_macro..bridge..rpc..PanicMessage$u20$as$u20$core..convert..From$LT$alloc..boxed..Box$LT$dyn$u20$core..any..Any$u2b$core..marker..Send$GT$$GT$$GT$4from17h3f057d2bc7421ddcE
	.loc	29 0 5 is_stmt 0
	movq	-32(%rbp), %rax
	.loc	29 233 5
	addq	$32, %rsp
	popq	%rbp
	retq
Ltmp1254:
Lfunc_end156:
	.cfi_endproc

	.p2align	4, 0x90
__ZN4core3ops8function6FnOnce9call_once17hf61934c05178d87fE:
Lfunc_begin157:
	.loc	29 233 0 is_stmt 1
	.cfi_startproc
	pushq	%rbp
	.cfi_def_cfa_offset 16
	.cfi_offset %rbp, -16
	movq	%rsp, %rbp
	.cfi_def_cfa_register %rbp
	subq	$32, %rsp
	movq	%rdi, %rax
	movq	%rsi, -16(%rbp)
Ltmp1255:
	.loc	29 233 5 prologue_end
	movq	-16(%rbp), %rsi
	movq	%rax, -24(%rbp)
	callq	__ZN3syn6derive7parsing72_$LT$impl$u20$syn..parse..Parse$u20$for$u20$syn..derive..DeriveInput$GT$5parse17hcde3e57d7bfa677cE
	.loc	29 0 5 is_stmt 0
	movq	-24(%rbp), %rax
	.loc	29 233 5
	addq	$32, %rsp
	popq	%rbp
	retq
Ltmp1256:
Lfunc_end157:
	.cfi_endproc

	.p2align	4, 0x90
__ZN4core3ptr13drop_in_place17h008f3430c90a68c5E:
Lfunc_begin158:
	.file	30 "/rustc/6c8927b0cf80ceee19386026cf9d7fd4fd9d486f/src/libcore/ptr/mod.rs"
	.loc	30 184 0 is_stmt 1
	.cfi_startproc
	pushq	%rbp
	.cfi_def_cfa_offset 16
	.cfi_offset %rbp, -16
	movq	%rsp, %rbp
	.cfi_def_cfa_register %rbp
	subq	$16, %rsp
	movq	%rdi, -8(%rbp)
Ltmp1257:
	.loc	30 184 1 prologue_end
	callq	__ZN4core3ptr13drop_in_place17hffd8bce9a347a8fcE
	addq	$16, %rsp
	popq	%rbp
	retq
Ltmp1258:
Lfunc_end158:
	.cfi_endproc

	.p2align	4, 0x90
__ZN4core3ptr13drop_in_place17h0b508b8a59609864E:
Lfunc_begin159:
	.loc	30 184 0
	.cfi_startproc
	.cfi_personality 155, _rust_eh_personality
	.cfi_lsda 16, Lexception37
	pushq	%rbp
	.cfi_def_cfa_offset 16
	.cfi_offset %rbp, -16
	movq	%rsp, %rbp
	.cfi_def_cfa_register %rbp
	subq	$48, %rsp
	movq	%rdi, -24(%rbp)
Ltmp1262:
	.loc	30 184 1 prologue_end
	movq	(%rdi), %rax
	movq	8(%rdi), %rcx
	movq	(%rcx), %rcx
Ltmp1259:
	movq	%rdi, -40(%rbp)
	movq	%rax, %rdi
	callq	*%rcx
Ltmp1260:
	jmp	LBB159_3
LBB159_1:
	addq	$48, %rsp
	popq	%rbp
	retq
LBB159_2:
	movq	-16(%rbp), %rdi
	callq	__Unwind_Resume
	ud2
LBB159_3:
	.loc	30 0 1 is_stmt 0
	movq	-40(%rbp), %rax
	.loc	30 184 1
	movq	(%rax), %rdi
	movq	8(%rax), %rsi
	callq	__ZN5alloc5alloc8box_free17h3daa1953e269aa9aE
	jmp	LBB159_1
LBB159_4:
	.loc	30 0 1
	movq	-40(%rbp), %rax
	.loc	30 184 1
	movq	(%rax), %rdi
	movq	8(%rax), %rsi
	callq	__ZN5alloc5alloc8box_free17h3daa1953e269aa9aE
	jmp	LBB159_2
Ltmp1263:
LBB159_5:
Ltmp1261:
	.loc	30 0 1
	movq	%rax, -16(%rbp)
	movl	%edx, -8(%rbp)
	jmp	LBB159_4
Lfunc_end159:
	.cfi_endproc
	.section	__TEXT,__gcc_except_tab
	.p2align	2
GCC_except_table159:
Lexception37:
	.byte	255
	.byte	255
	.byte	1
	.uleb128 Lcst_end37-Lcst_begin37
Lcst_begin37:
	.uleb128 Ltmp1259-Lfunc_begin159
	.uleb128 Ltmp1260-Ltmp1259
	.uleb128 Ltmp1261-Lfunc_begin159
	.byte	0
	.uleb128 Ltmp1260-Lfunc_begin159
	.uleb128 Lfunc_end159-Ltmp1260
	.byte	0
	.byte	0
Lcst_end37:
	.p2align	2

	.section	__TEXT,__text,regular,pure_instructions
	.p2align	4, 0x90
__ZN4core3ptr13drop_in_place17h1378e11e39ab6346E:
Lfunc_begin160:
	.loc	30 184 0 is_stmt 1
	.cfi_startproc
	.cfi_personality 155, _rust_eh_personality
	.cfi_lsda 16, Lexception38
	pushq	%rbp
	.cfi_def_cfa_offset 16
	.cfi_offset %rbp, -16
	movq	%rsp, %rbp
	.cfi_def_cfa_register %rbp
	subq	$48, %rsp
	movq	%rdi, -24(%rbp)
Ltmp1264:
	movq	%rdi, -40(%rbp)
Ltmp1267:
	.loc	30 184 1 prologue_end
	callq	__ZN127_$LT$proc_macro..bridge..scoped_cell..ScopedCell$LT$T$GT$..replace..PutBackOnDrop$LT$T$GT$$u20$as$u20$core..ops..drop..Drop$GT$4drop17h4072a5de4376873dE
Ltmp1265:
	jmp	LBB160_4
LBB160_1:
	movq	-16(%rbp), %rdi
	callq	__Unwind_Resume
	ud2
LBB160_2:
	addq	$48, %rsp
	popq	%rbp
	retq
LBB160_3:
	.loc	30 0 1 is_stmt 0
	movq	-40(%rbp), %rax
	.loc	30 184 1
	addq	$8, %rax
	movq	%rax, %rdi
	callq	__ZN4core3ptr13drop_in_place17h1d07f274e37a5f7eE
	jmp	LBB160_1
LBB160_4:
	.loc	30 0 1
	movq	-40(%rbp), %rax
	.loc	30 184 1
	addq	$8, %rax
	movq	%rax, %rdi
	callq	__ZN4core3ptr13drop_in_place17h1d07f274e37a5f7eE
	jmp	LBB160_2
Ltmp1268:
LBB160_5:
Ltmp1266:
	.loc	30 0 1
	movq	%rax, -16(%rbp)
	movl	%edx, -8(%rbp)
	jmp	LBB160_3
Lfunc_end160:
	.cfi_endproc
	.section	__TEXT,__gcc_except_tab
	.p2align	2
GCC_except_table160:
Lexception38:
	.byte	255
	.byte	255
	.byte	1
	.uleb128 Lcst_end38-Lcst_begin38
Lcst_begin38:
	.uleb128 Ltmp1264-Lfunc_begin160
	.uleb128 Ltmp1265-Ltmp1264
	.uleb128 Ltmp1266-Lfunc_begin160
	.byte	0
	.uleb128 Ltmp1265-Lfunc_begin160
	.uleb128 Lfunc_end160-Ltmp1265
	.byte	0
	.byte	0
Lcst_end38:
	.p2align	2

	.section	__TEXT,__text,regular,pure_instructions
	.p2align	4, 0x90
__ZN4core3ptr13drop_in_place17h16394b44840c1838E:
Lfunc_begin161:
	.loc	30 184 0 is_stmt 1
	.cfi_startproc
	pushq	%rbp
	.cfi_def_cfa_offset 16
	.cfi_offset %rbp, -16
	movq	%rsp, %rbp
	.cfi_def_cfa_register %rbp
	subq	$16, %rsp
	movq	%rdi, -8(%rbp)
Ltmp1269:
	.loc	30 184 1 prologue_end
	callq	__ZN4core3ptr13drop_in_place17h71716d9a7c5ad6faE
	addq	$16, %rsp
	popq	%rbp
	retq
Ltmp1270:
Lfunc_end161:
	.cfi_endproc

	.p2align	4, 0x90
__ZN4core3ptr13drop_in_place17h18b8a22c753047f7E:
Lfunc_begin162:
	.loc	30 184 0
	.cfi_startproc
	pushq	%rbp
	.cfi_def_cfa_offset 16
	.cfi_offset %rbp, -16
	movq	%rsp, %rbp
	.cfi_def_cfa_register %rbp
	subq	$16, %rsp
	movq	%rdi, -8(%rbp)
Ltmp1271:
	.loc	30 184 1 prologue_end
	callq	__ZN4core3ptr13drop_in_place17h0b508b8a59609864E
	addq	$16, %rsp
	popq	%rbp
	retq
Ltmp1272:
Lfunc_end162:
	.cfi_endproc

	.p2align	4, 0x90
__ZN4core3ptr13drop_in_place17h18cef05a5014b47cE:
Lfunc_begin163:
	.loc	30 184 0
	.cfi_startproc
	.cfi_personality 155, _rust_eh_personality
	.cfi_lsda 16, Lexception39
	pushq	%rbp
	.cfi_def_cfa_offset 16
	.cfi_offset %rbp, -16
	movq	%rsp, %rbp
	.cfi_def_cfa_register %rbp
	subq	$48, %rsp
	movq	%rdi, -24(%rbp)
Ltmp1276:
	.loc	30 184 1 prologue_end
	movq	(%rdi), %rax
Ltmp1273:
	movq	%rdi, -40(%rbp)
	movq	%rax, %rdi
	callq	__ZN4core3ptr13drop_in_place17hebc8334a5c403fedE
Ltmp1274:
	jmp	LBB163_3
LBB163_1:
	addq	$48, %rsp
	popq	%rbp
	retq
LBB163_2:
	movq	-16(%rbp), %rdi
	callq	__Unwind_Resume
	ud2
LBB163_3:
	.loc	30 0 1 is_stmt 0
	movq	-40(%rbp), %rax
	.loc	30 184 1
	movq	(%rax), %rdi
	callq	__ZN5alloc5alloc8box_free17h75628639e8198b7dE
	jmp	LBB163_1
LBB163_4:
	.loc	30 0 1
	movq	-40(%rbp), %rax
	.loc	30 184 1
	movq	(%rax), %rdi
	callq	__ZN5alloc5alloc8box_free17h75628639e8198b7dE
	jmp	LBB163_2
Ltmp1277:
LBB163_5:
Ltmp1275:
	.loc	30 0 1
	movq	%rax, -16(%rbp)
	movl	%edx, -8(%rbp)
	jmp	LBB163_4
Lfunc_end163:
	.cfi_endproc
	.section	__TEXT,__gcc_except_tab
	.p2align	2
GCC_except_table163:
Lexception39:
	.byte	255
	.byte	255
	.byte	1
	.uleb128 Lcst_end39-Lcst_begin39
Lcst_begin39:
	.uleb128 Ltmp1273-Lfunc_begin163
	.uleb128 Ltmp1274-Ltmp1273
	.uleb128 Ltmp1275-Lfunc_begin163
	.byte	0
	.uleb128 Ltmp1274-Lfunc_begin163
	.uleb128 Lfunc_end163-Ltmp1274
	.byte	0
	.byte	0
Lcst_end39:
	.p2align	2

	.section	__TEXT,__text,regular,pure_instructions
	.p2align	4, 0x90
__ZN4core3ptr13drop_in_place17h1ac178096fdeb3a7E:
Lfunc_begin164:
	.loc	30 184 0 is_stmt 1
	.cfi_startproc
	pushq	%rbp
	.cfi_def_cfa_offset 16
	.cfi_offset %rbp, -16
	movq	%rsp, %rbp
	.cfi_def_cfa_register %rbp
	subq	$32, %rsp
	movq	%rdi, -16(%rbp)
	movq	%rsi, -8(%rbp)
Ltmp1278:
	.loc	30 184 1 prologue_end
	callq	*(%rsi)
	addq	$32, %rsp
	popq	%rbp
	retq
Ltmp1279:
Lfunc_end164:
	.cfi_endproc

	.p2align	4, 0x90
__ZN4core3ptr13drop_in_place17h1b186185da6c0cc7E:
Lfunc_begin165:
	.loc	30 184 0
	.cfi_startproc
	pushq	%rbp
	.cfi_def_cfa_offset 16
	.cfi_offset %rbp, -16
	movq	%rsp, %rbp
	.cfi_def_cfa_register %rbp
	subq	$16, %rsp
	movq	%rdi, -8(%rbp)
Ltmp1280:
	.loc	30 184 1 prologue_end
	callq	__ZN4core3ptr13drop_in_place17ha15602b8be441128E
	addq	$16, %rsp
	popq	%rbp
	retq
Ltmp1281:
Lfunc_end165:
	.cfi_endproc

	.p2align	4, 0x90
__ZN4core3ptr13drop_in_place17h1c3b6b50400b4d57E:
Lfunc_begin166:
	.loc	30 184 0
	.cfi_startproc
	pushq	%rbp
	.cfi_def_cfa_offset 16
	.cfi_offset %rbp, -16
	movq	%rsp, %rbp
	.cfi_def_cfa_register %rbp
	subq	$16, %rsp
	movq	%rdi, -8(%rbp)
Ltmp1282:
	.loc	30 184 1 prologue_end
	callq	__ZN4core3ptr13drop_in_place17h52fad0f6482a8ff2E
	addq	$16, %rsp
	popq	%rbp
	retq
Ltmp1283:
Lfunc_end166:
	.cfi_endproc

	.p2align	4, 0x90
__ZN4core3ptr13drop_in_place17h1d07f274e37a5f7eE:
Lfunc_begin167:
	.loc	30 184 0
	.cfi_startproc
	pushq	%rbp
	.cfi_def_cfa_offset 16
	.cfi_offset %rbp, -16
	movq	%rsp, %rbp
	.cfi_def_cfa_register %rbp
	subq	$32, %rsp
	xorl	%eax, %eax
	movl	%eax, %ecx
	movq	%rdi, -8(%rbp)
Ltmp1284:
	.loc	30 184 1 prologue_end
	movq	(%rdi), %rdx
	subq	$3, %rdx
	cmpq	$0, %rdx
	movl	$1, %edx
	cmovbeq	%rcx, %rdx
	cmpq	$0, %rdx
	movq	%rdi, -24(%rbp)
	jne	LBB167_2
LBB167_1:
	addq	$32, %rsp
	popq	%rbp
	retq
LBB167_2:
	.loc	30 0 1 is_stmt 0
	movq	-24(%rbp), %rax
	.loc	30 184 1
	movq	%rax, %rdi
	callq	__ZN4core3ptr13drop_in_place17haf5d9d52a5c8c78aE
	jmp	LBB167_1
Ltmp1285:
Lfunc_end167:
	.cfi_endproc

	.p2align	4, 0x90
__ZN4core3ptr13drop_in_place17h2dfd63240d9fde8aE:
Lfunc_begin168:
	.loc	30 184 0 is_stmt 1
	.cfi_startproc
	pushq	%rbp
	.cfi_def_cfa_offset 16
	.cfi_offset %rbp, -16
	movq	%rsp, %rbp
	.cfi_def_cfa_register %rbp
	subq	$32, %rsp
	movq	%rdi, -16(%rbp)
	movq	%rsi, -8(%rbp)
Ltmp1286:
	.loc	30 184 1 prologue_end
	callq	*(%rsi)
	addq	$32, %rsp
	popq	%rbp
	retq
Ltmp1287:
Lfunc_end168:
	.cfi_endproc

	.p2align	4, 0x90
__ZN4core3ptr13drop_in_place17h2e97a5ac62130c67E:
Lfunc_begin169:
	.loc	30 184 0
	.cfi_startproc
	pushq	%rbp
	.cfi_def_cfa_offset 16
	.cfi_offset %rbp, -16
	movq	%rsp, %rbp
