	.section	__TEXT,__text,regular,pure_instructions
	.macosx_version_min 10, 7
	.p2align	4, 0x90
__ZN100_$LT$syn..punctuated..PrivateIter$LT$T$C$P$GT$$u20$as$u20$core..iter..traits..iterator..Iterator$GT$4next17h9da767094bb0e5a3E:
Lfunc_begin0:
	.file	1 "/Users/yingyuhang/.cargo/registry/src/github.com-1ecc6299db9ec823/syn-1.0.33/src/punctuated.rs"
	.loc	1 678 0
	.cfi_startproc
	pushq	%rbp
	.cfi_def_cfa_offset 16
	.cfi_offset %rbp, -16
	movq	%rsp, %rbp
	.cfi_def_cfa_register %rbp
Ltmp0:
	.file	2 "/rustc/a74d1862d4d87a56244958416fd05976c58ca1a8/src/libcore/slice/mod.rs"
	.loc	2 3299 29 prologue_end
	movq	(%rdi), %rax
Ltmp1:
	.loc	2 3179 9
	cmpq	8(%rdi), %rax
	.loc	2 3303 21
	je	LBB0_2
Ltmp2:
	.file	3 "/rustc/a74d1862d4d87a56244958416fd05976c58ca1a8/src/libcore/ptr/non_null.rs"
	.loc	3 90 9
	leaq	120(%rax), %rcx
Ltmp3:
	.loc	2 3258 21
	movq	%rcx, (%rdi)
Ltmp4:
	.loc	1 683 6
	popq	%rbp
	retq
Ltmp5:
LBB0_2:
	.file	4 "/rustc/a74d1862d4d87a56244958416fd05976c58ca1a8/src/libcore/intrinsics.rs"
	.loc	4 2058 5
	movq	16(%rdi), %rax
Ltmp6:
	.loc	4 2058 5 is_stmt 0
	movq	$0, 16(%rdi)
Ltmp7:
	.loc	1 683 6 is_stmt 1
	popq	%rbp
	retq
Ltmp8:
Lfunc_end0:
	.cfi_endproc
	.file	5 "/rustc/a74d1862d4d87a56244958416fd05976c58ca1a8/src/libcore/ptr/mod.rs"
	.file	6 "/rustc/a74d1862d4d87a56244958416fd05976c58ca1a8/src/libcore/mem/mod.rs"
	.file	7 "/rustc/a74d1862d4d87a56244958416fd05976c58ca1a8/src/libcore/option.rs"

	.section	__TEXT,__literal16,16byte_literals
	.p2align	4
LCPI1_0:
	.quad	1
	.quad	1
	.section	__TEXT,__text,regular,pure_instructions
	.p2align	4, 0x90
__ZN105_$LT$core..iter..adapters..ResultShunt$LT$I$C$E$GT$$u20$as$u20$core..iter..traits..iterator..Iterator$GT$4next17h15f5425b68ce4892E:
Lfunc_begin1:
	.file	8 "/rustc/a74d1862d4d87a56244958416fd05976c58ca1a8/src/libcore/iter/adapters/mod.rs"
	.loc	8 2418 0
	.cfi_startproc
	.cfi_personality 155, _rust_eh_personality
	.cfi_lsda 16, Lexception0
	pushq	%rbp
	.cfi_def_cfa_offset 16
	.cfi_offset %rbp, -16
	movq	%rsp, %rbp
	.cfi_def_cfa_register %rbp
	pushq	%r15
	pushq	%r14
	pushq	%r13
	pushq	%r12
	pushq	%rbx
	subq	$440, %rsp
	.cfi_offset %rbx, -56
	.cfi_offset %r12, -48
	.cfi_offset %r13, -40
	.cfi_offset %r14, -32
	.cfi_offset %r15, -24
	movq	%rsi, %r15
Ltmp127:
	movq	%rdi, -368(%rbp)
Ltmp128:
	.loc	8 1933 17 prologue_end
	movq	16(%rsi), %rbx
Ltmp129:
	.loc	8 2436 21
	movq	40(%rsi), %rax
	movq	%rax, -440(%rbp)
Ltmp130:
	.loc	8 1934 9
	movq	$0, 16(%rsi)
Ltmp131:
	.loc	8 1935 12
	testq	%rbx, %rbx
	.loc	8 1935 9 is_stmt 0
	je	LBB1_5
Ltmp132:
	.file	9 "/rustc/a74d1862d4d87a56244958416fd05976c58ca1a8/src/libcore/iter/traits/iterator.rs"
	.loc	9 336 9 is_stmt 1
	decq	%rbx
Ltmp133:
	.p2align	4, 0x90
LBB1_2:
	.file	10 "/rustc/a74d1862d4d87a56244958416fd05976c58ca1a8/src/liballoc/boxed.rs"
	.loc	10 968 9
	movq	(%r15), %rdi
	movq	8(%r15), %rax
	callq	*48(%rax)
Ltmp134:
	.loc	9 337 16
	subq	$1, %rbx
Ltmp135:
	.loc	9 336 13
	jb	LBB1_4
Ltmp136:
	testq	%rax, %rax
	jne	LBB1_2
Ltmp137:
LBB1_4:
	testq	%rax, %rax
Ltmp138:
	.loc	8 1937 13
	je	LBB1_120
Ltmp139:
	.p2align	4, 0x90
LBB1_5:
	.loc	10 968 9
	movq	(%r15), %rdi
	movq	8(%r15), %rax
	callq	*48(%rax)
Ltmp140:
	.loc	9 1877 19
	testq	%rax, %rax
	je	LBB1_120
Ltmp141:
	.loc	9 0 0 is_stmt 0
	movq	%rax, %r14
Ltmp142:
	.file	11 "/Users/yingyuhang/.cargo/registry/src/github.com-1ecc6299db9ec823/failure_derive-0.1.8/src/lib.rs"
	.loc	11 140 13 is_stmt 1
	cmpq	$1, (%rax)
	jne	LBB1_12
Ltmp143:
	.loc	11 140 34 is_stmt 0
	cmpl	$4, 8(%r14)
	jne	LBB1_81
Ltmp144:
	.loc	11 141 27 is_stmt 1
	movq	24(%r15), %rax
	movq	(%rax), %rdi
	callq	__ZN12synstructure11VariantInfo8bindings17h5b07cf40a08bbd5fE
	movq	%rax, %r13
	movq	%rdx, %r12
Ltmp145:
	.loc	11 140 48
	addq	$16, %r14
Ltmp146:
	.file	12 "/Users/yingyuhang/.cargo/registry/src/github.com-1ecc6299db9ec823/syn-1.0.33/src/lit.rs"
	.loc	12 467 9
	movq	%r14, %rdi
	callq	__ZN3syn3lit6LitInt13base10_digits17hff664e024bf1268aE
Ltmp147:
	.file	13 "/rustc/a74d1862d4d87a56244958416fd05976c58ca1a8/src/libcore/str/mod.rs"
	.loc	13 4280 9
	leaq	-360(%rbp), %rdi
	movq	%rax, %rsi
	callq	__ZN4core3num54_$LT$impl$u20$core..str..FromStr$u20$for$u20$usize$GT$8from_str17hde79bf6128128228E
Ltmp148:
	.file	14 "/rustc/a74d1862d4d87a56244958416fd05976c58ca1a8/src/libcore/result.rs"
	.loc	14 611 13
	cmpb	$1, -360(%rbp)
	je	LBB1_83
Ltmp149:
	.loc	14 611 16 is_stmt 0
	movq	-352(%rbp), %rbx
Ltmp150:
	.loc	11 141 27 is_stmt 1
	cmpq	%r12, %rbx
	jae	LBB1_122
Ltmp151:
	.loc	11 0 27 is_stmt 0
	leaq	-120(%rbp), %r14
Ltmp152:
	.loc	11 142 20 is_stmt 1
	movq	%r14, %rdi
	callq	__ZN11proc_macro211TokenStream3new17h747898098334175aE
Ltmp153:
	.loc	11 141 26
	imulq	$88, %rbx, %rax
	addq	%rax, %r13
Ltmp154:
Ltmp90:
	.file	15 "/Users/yingyuhang/.cargo/registry/src/github.com-1ecc6299db9ec823/quote-1.0.7/src/to_tokens.rs"
	.loc	15 81 9
	movq	%r13, %rdi
	movq	%r14, %rsi
	callq	__ZN72_$LT$synstructure..BindingInfo$u20$as$u20$quote..to_tokens..ToTokens$GT$9to_tokens17h0bfdad2557e36befE
Ltmp91:
Ltmp155:
	.loc	11 142 20
	movq	-120(%rbp), %r13
Ltmp156:
	.loc	11 0 20 is_stmt 0
	leaq	-112(%rbp), %rax
	movq	%rax, %rsi
	.loc	11 142 20
	movq	(%rax), %rax
	movq	8(%rsi), %rcx
	movq	%rax, -200(%rbp)
	movq	%rcx, -192(%rbp)
	movq	16(%rsi), %rdx
	movq	%rdx, -184(%rbp)
	movq	24(%rsi), %rsi
	movq	%rsi, -176(%rbp)
Ltmp157:
	.loc	8 792 21 is_stmt 1
	movq	%rsi, -216(%rbp)
	movq	%rdx, -224(%rbp)
	movq	%rcx, -232(%rbp)
	movq	%rax, -240(%rbp)
Ltmp158:
	.loc	8 0 21 is_stmt 0
	jmp	LBB1_52
Ltmp159:
	.p2align	4, 0x90
LBB1_12:
	.loc	11 144 35 is_stmt 1
	cmpq	$0, 8(%r14)
	jne	LBB1_81
Ltmp160:
	.loc	11 144 51 is_stmt 0
	movq	%r14, %rdi
	addq	$16, %rdi
Ltmp161:
	movq	%rdi, -408(%rbp)
Ltmp162:
	.loc	11 145 28 is_stmt 1
	callq	__ZN3syn4path7parsing33_$LT$impl$u20$syn..path..Path$GT$9get_ident17hfb45cadac78cda68E
Ltmp163:
	.loc	7 458 13
	testq	%rax, %rax
	je	LBB1_36
Ltmp164:
	.loc	7 0 13 is_stmt 0
	movq	%rax, -320(%rbp)
Ltmp165:
	.file	16 "/rustc/a74d1862d4d87a56244958416fd05976c58ca1a8/src/liballoc/string.rs"
	.loc	16 374 9 is_stmt 1
	movq	$1, -168(%rbp)
	leaq	-160(%rbp), %rax
Ltmp166:
	movq	$0, 8(%rax)
	movq	$0, (%rax)
Ltmp167:
	.loc	16 2189 23
	leaq	-320(%rbp), %rax
	movq	%rax, -304(%rbp)
	leaq	__ZN44_$LT$$RF$T$u20$as$u20$core..fmt..Display$GT$3fmt17he5e051c6be0be3c2E(%rip), %rax
	movq	%rax, -296(%rbp)
Ltmp168:
	.loc	16 0 23 is_stmt 0
	leaq	-168(%rbp), %rax
	movq	%rax, -264(%rbp)
Ltmp169:
	.file	17 "/rustc/a74d1862d4d87a56244958416fd05976c58ca1a8/src/libcore/fmt/mod.rs"
	.loc	17 193 26 is_stmt 1
	leaq	l___unnamed_10(%rip), %rax
	movq	%rax, -120(%rbp)
	movq	$1, -112(%rbp)
	movq	$0, -104(%rbp)
	leaq	-304(%rbp), %rax
	movq	%rax, -88(%rbp)
	movq	$1, -80(%rbp)
Ltmp9:
	.loc	17 193 9 is_stmt 0
	leaq	-264(%rbp), %rdi
	leaq	l___unnamed_5(%rip), %rsi
	leaq	-120(%rbp), %rdx
	callq	__ZN4core3fmt5write17h26bd57c1fd6e9c98E
Ltmp10:
Ltmp170:
	.loc	14 962 13 is_stmt 1
	testb	%al, %al
Ltmp171:
	jne	LBB1_123
Ltmp172:
	.file	18 "/rustc/a74d1862d4d87a56244958416fd05976c58ca1a8/src/liballoc/vec.rs"
	.loc	18 478 9
	movq	-160(%rbp), %rsi
Ltmp173:
	.loc	18 621 31
	movq	-152(%rbp), %rbx
Ltmp174:
	.loc	18 621 12 is_stmt 0
	cmpq	%rbx, %rsi
	.loc	18 621 9
	je	LBB1_23
Ltmp175:
	.file	19 "/rustc/a74d1862d4d87a56244958416fd05976c58ca1a8/src/liballoc/raw_vec.rs"
	.loc	19 453 9 is_stmt 1
	jb	LBB1_124
Ltmp176:
	.loc	19 200 40
	testq	%rsi, %rsi
	.loc	19 200 9 is_stmt 0
	je	LBB1_23
Ltmp177:
	.loc	19 455 48 is_stmt 1
	movq	-168(%rbp), %rdi
Ltmp178:
	.loc	19 455 36 is_stmt 0
	testq	%rdi, %rdi
	je	LBB1_24
Ltmp179:
	.file	20 "/rustc/a74d1862d4d87a56244958416fd05976c58ca1a8/src/liballoc/alloc.rs"
	.loc	20 124 5 is_stmt 1
	movl	$1, %edx
Ltmp180:
	.loc	20 247 42
	testq	%rbx, %rbx
	je	LBB1_25
Ltmp181:
	.loc	20 124 5
	movq	%rbx, %rcx
	callq	___rust_realloc
Ltmp182:
	movq	%rax, %rsi
Ltmp183:
	.loc	14 611 13
	testq	%rax, %rax
	jne	LBB1_26
	jmp	LBB1_22
Ltmp184:
	.p2align	4, 0x90
LBB1_23:
	.loc	16 2192 9
	movq	-168(%rbp), %rsi
	jmp	LBB1_27
Ltmp185:
LBB1_24:
	xorl	%esi, %esi
	jmp	LBB1_27
Ltmp186:
LBB1_25:
	.loc	20 102 5
	callq	___rust_dealloc
Ltmp187:
	.loc	20 0 5 is_stmt 0
	movl	$1, %esi
Ltmp188:
LBB1_26:
	.loc	19 387 9 is_stmt 1
	movq	%rsi, -168(%rbp)
	.loc	19 388 9
	movq	%rbx, -160(%rbp)
Ltmp189:
	.p2align	4, 0x90
LBB1_27:
	.loc	19 0 9 is_stmt 0
	leaq	-160(%rbp), %rax
	movq	%rax, %rcx
	.loc	16 2192 9 is_stmt 1
	movq	(%rax), %rax
	movq	8(%rcx), %rcx
	movq	%rcx, -352(%rbp)
	movq	%rax, -360(%rbp)
Ltmp190:
	.loc	7 411 13
	testq	%rsi, %rsi
Ltmp191:
	je	LBB1_36
Ltmp192:
	.loc	7 411 18 is_stmt 0
	movq	%rsi, -432(%rbp)
	movq	-360(%rbp), %rax
	movq	-352(%rbp), %rcx
	leaq	-424(%rbp), %rdx
	movq	%rcx, 8(%rdx)
	movq	%rax, (%rdx)
Ltmp193:
	.loc	18 1966 55 is_stmt 1
	movq	-416(%rbp), %rdx
Ltmp194:
	.loc	2 1430 9
	testq	%rdx, %rdx
Ltmp195:
	je	LBB1_37
Ltmp196:
	.loc	2 5863 12
	leaq	l___unnamed_11(%rip), %rax
	cmpq	%rax, %rsi
Ltmp197:
	.loc	2 5863 9 is_stmt 0
	je	LBB1_31
Ltmp198:
	.loc	2 5868 13 is_stmt 1
	cmpb	$95, (%rsi)
Ltmp199:
	.loc	2 1430 9
	jne	LBB1_37
Ltmp200:
LBB1_31:
	.loc	2 0 9 is_stmt 0
	movq	%rsi, -168(%rbp)
	movq	%rdx, -160(%rbp)
Ltmp201:
	.loc	13 2051 18 is_stmt 1
	movq	$1, -360(%rbp)
	.loc	13 2051 25 is_stmt 0
	movq	%rdx, -304(%rbp)
Ltmp202:
	.loc	13 2303 12 is_stmt 1
	cmpq	$1, %rdx
	je	LBB1_33
Ltmp203:
	.loc	13 2309 25
	cmpb	$-65, 1(%rsi)
Ltmp204:
	.loc	13 2021 13
	jle	LBB1_125
Ltmp205:
LBB1_33:
	.loc	13 0 13 is_stmt 0
	movq	%rsi, -208(%rbp)
Ltmp206:
	.file	21 "/rustc/a74d1862d4d87a56244958416fd05976c58ca1a8/src/libcore/ptr/const_ptr.rs"
	.loc	21 158 9 is_stmt 1
	incq	%rsi
Ltmp207:
	.loc	13 2040 23
	decq	%rdx
Ltmp208:
Ltmp16:
	.loc	13 4280 9
	leaq	-472(%rbp), %rdi
	callq	__ZN4core3num54_$LT$impl$u20$core..str..FromStr$u20$for$u20$usize$GT$8from_str17hde79bf6128128228E
Ltmp209:
Ltmp17:
	.loc	11 147 28
	cmpb	$0, -472(%rbp)
	je	LBB1_65
Ltmp210:
	.loc	11 0 28 is_stmt 0
	movq	-208(%rbp), %rsi
	jmp	LBB1_37
Ltmp211:
	.p2align	4, 0x90
LBB1_36:
	.loc	7 412 21 is_stmt 1
	movq	$1, -432(%rbp)
	leaq	-424(%rbp), %rax
	movq	$0, 8(%rax)
	movq	$0, (%rax)
	movl	$1, %esi
Ltmp212:
LBB1_37:
	.loc	7 0 21 is_stmt 0
	movq	%rsi, -208(%rbp)
Ltmp213:
	.loc	11 168 27 is_stmt 1
	movq	24(%r15), %rax
	movq	(%rax), %rdi
Ltmp50:
	callq	__ZN12synstructure11VariantInfo8bindings17h5b07cf40a08bbd5fE
Ltmp51:
Ltmp214:
	.loc	2 3179 9
	testq	%rdx, %rdx
	.loc	2 3303 21
	je	LBB1_40
Ltmp215:
	.loc	11 0 0 is_stmt 0
	movq	%rax, %r13
Ltmp216:
	.loc	11 168 21 is_stmt 1
	imulq	$88, %rdx, %r12
Ltmp217:
	testq	%r13, %r13
	jne	LBB1_57
	jmp	LBB1_40
Ltmp218:
	.p2align	4, 0x90
LBB1_55:
	.loc	11 0 0 is_stmt 0
	addq	$88, %r13
Ltmp219:
	.loc	2 3179 9 is_stmt 1
	addq	$-88, %r12
	.loc	2 3303 21
	je	LBB1_40
Ltmp220:
	.loc	11 168 21
	testq	%r13, %r13
	je	LBB1_40
Ltmp221:
LBB1_57:
Ltmp52:
	.loc	11 169 30
	movq	%r13, %rdi
	callq	__ZN12synstructure11BindingInfo3ast17h46fc3a7094c9eb5bE
Ltmp53:
Ltmp222:
	.loc	11 0 0 is_stmt 0
	movq	%rax, %rbx
Ltmp223:
	.loc	7 270 13 is_stmt 1
	cmpl	$2, 56(%rax)
Ltmp224:
	.loc	11 170 24
	je	LBB1_55
Ltmp225:
	.loc	11 170 40 is_stmt 0
	movq	-408(%rbp), %rdi
Ltmp226:
Ltmp54:
	.file	22 "/Users/yingyuhang/.cargo/registry/src/github.com-1ecc6299db9ec823/syn-1.0.33/src/path.rs"
	.loc	22 455 19 is_stmt 1
	callq	__ZN3syn4path7parsing33_$LT$impl$u20$syn..path..Path$GT$9get_ident17hfb45cadac78cda68E
Ltmp227:
Ltmp55:
	.loc	22 456 17
	testq	%rax, %rax
	je	LBB1_55
Ltmp228:
	.loc	11 0 0 is_stmt 0
	addq	$56, %rbx
Ltmp229:
Ltmp56:
	.file	23 "/rustc/a74d1862d4d87a56244958416fd05976c58ca1a8/src/libcore/cmp.rs"
	.loc	23 1220 13 is_stmt 1
	movq	%rax, %rdi
	movq	%rbx, %rsi
	callq	__ZN59_$LT$proc_macro2..Ident$u20$as$u20$core..cmp..PartialEq$GT$2eq17h099ed43bd919f158E
Ltmp230:
Ltmp57:
	.loc	11 170 24
	testb	%al, %al
	je	LBB1_55
Ltmp231:
Ltmp59:
	.loc	11 171 35
	leaq	-120(%rbp), %rdi
	callq	__ZN11proc_macro211TokenStream3new17h747898098334175aE
Ltmp60:
Ltmp232:
Ltmp61:
	.loc	15 81 9
	movq	%r13, %rdi
	leaq	-120(%rbp), %rsi
	callq	__ZN72_$LT$synstructure..BindingInfo$u20$as$u20$quote..to_tokens..ToTokens$GT$9to_tokens17h0bfdad2557e36befE
Ltmp62:
	jmp	LBB1_70
Ltmp233:
	.p2align	4, 0x90
LBB1_40:
Ltmp64:
	.loc	15 62 26
	leaq	-120(%rbp), %rdi
	callq	__ZN11proc_macro211TokenStream3new17h747898098334175aE
Ltmp65:
Ltmp234:
Ltmp66:
	.loc	15 81 9
	movq	%r14, %rdi
	leaq	-120(%rbp), %rsi
	callq	__ZN68_$LT$syn..attr..NestedMeta$u20$as$u20$quote..to_tokens..ToTokens$GT$9to_tokens17h945f0aa6c44f2515E
Ltmp67:
Ltmp235:
	.loc	15 64 9
	movq	-88(%rbp), %rax
	movq	%rax, -136(%rbp)
	movq	-96(%rbp), %rax
	movq	%rax, -144(%rbp)
	movq	-104(%rbp), %rax
	movq	%rax, -152(%rbp)
	movq	-120(%rbp), %rax
	movq	-112(%rbp), %rcx
	movq	%rcx, -160(%rbp)
	movq	%rax, -168(%rbp)
Ltmp236:
Ltmp72:
	.file	24 "/Users/yingyuhang/.cargo/registry/src/github.com-1ecc6299db9ec823/quote-1.0.7/src/spanned.rs"
	.loc	24 16 9
	leaq	-168(%rbp), %rdi
	callq	__ZN5quote7spanned10join_spans17h23ad6a7cee49a53cE
Ltmp73:
Ltmp237:
	.loc	11 0 0 is_stmt 0
	movl	%eax, %r14d
Ltmp238:
	.loc	11 179 25 is_stmt 1
	movq	32(%r15), %rax
	movq	(%rax), %rdi
Ltmp74:
	callq	__ZN12synstructure9Structure3ast17hd69c42f1e35d21f4E
Ltmp75:
Ltmp239:
	.loc	11 0 0 is_stmt 0
	movq	%rax, %rbx
	.loc	11 180 25 is_stmt 1
	movq	24(%r15), %rax
	movq	(%rax), %rsi
Ltmp76:
	leaq	-304(%rbp), %rdi
	callq	__ZN12synstructure11VariantInfo3ast17h97bb1cb522a942c4E
Ltmp77:
Ltmp240:
	.loc	17 290 18
	addq	$56, %rbx
Ltmp241:
	.loc	11 176 22
	leaq	-408(%rbp), %rax
	movq	%rax, -120(%rbp)
	leaq	__ZN42_$LT$$RF$T$u20$as$u20$core..fmt..Debug$GT$3fmt17he0ca36130837a14bE(%rip), %rax
	movq	%rax, -112(%rbp)
	movq	%rbx, -104(%rbp)
Ltmp242:
	movq	__ZN57_$LT$proc_macro2..Ident$u20$as$u20$core..fmt..Display$GT$3fmt17h5126cf470200c32cE@GOTPCREL(%rip), %rax
	movq	%rax, -96(%rbp)
	leaq	-288(%rbp), %rax
	movq	%rax, -88(%rbp)
	leaq	__ZN44_$LT$$RF$T$u20$as$u20$core..fmt..Display$GT$3fmt17he5e051c6be0be3c2E(%rip), %rax
	movq	%rax, -80(%rbp)
Ltmp243:
	.loc	17 328 9
	leaq	l___unnamed_12(%rip), %rax
	movq	%rax, -168(%rbp)
	movq	$4, -160(%rbp)
	movq	$0, -152(%rbp)
	leaq	-120(%rbp), %rax
	movq	%rax, -136(%rbp)
	movq	$3, -128(%rbp)
Ltmp244:
Ltmp78:
	.loc	11 176 22
	leaq	-264(%rbp), %rdi
	leaq	-168(%rbp), %rsi
	callq	__ZN5alloc3fmt6format17hef4b691705b449e4E
Ltmp79:
Ltmp245:
	.loc	11 176 22 is_stmt 0
	movq	-264(%rbp), %rbx
	movq	-256(%rbp), %rax
	movq	%rbx, -120(%rbp)
	movq	%rax, -112(%rbp)
	movq	-248(%rbp), %rcx
	movq	%rcx, -104(%rbp)
Ltmp246:
Ltmp81:
	.loc	11 174 28 is_stmt 1
	leaq	-360(%rbp), %rdi
	movl	%r14d, %esi
	movq	%rbx, %rdx
	callq	__ZN14failure_derive5Error3new17h9589ca82366f37edE
Ltmp82:
Ltmp247:
LBB1_47:
	.loc	11 0 0 is_stmt 0
	movq	-360(%rbp), %r13
	leaq	-352(%rbp), %rax
	movq	%rax, %rdx
	movq	(%rax), %rax
	movq	8(%rdx), %rcx
	movq	%rax, -200(%rbp)
	movq	%rcx, -192(%rbp)
	movq	16(%rdx), %rax
	movq	%rax, -184(%rbp)
	movq	24(%rdx), %rax
	movq	%rax, -176(%rbp)
Ltmp248:
	movq	-112(%rbp), %rsi
Ltmp249:
	testq	%rsi, %rsi
	je	LBB1_49
Ltmp250:
	movl	$1, %edx
	movq	%rbx, %rdi
	callq	___rust_dealloc
Ltmp251:
LBB1_49:
	movl	$1, %ebx
Ltmp252:
	.loc	5 178 1 is_stmt 1
	movq	-424(%rbp), %rsi
Ltmp253:
	.loc	19 200 40
	testq	%rsi, %rsi
	.loc	19 200 9 is_stmt 0
	je	LBB1_51
Ltmp254:
LBB1_50:
	.loc	20 102 5 is_stmt 1
	movl	$1, %edx
	movq	-208(%rbp), %rdi
	callq	___rust_dealloc
Ltmp255:
LBB1_51:
	.loc	8 792 21
	movq	-200(%rbp), %rax
	movq	-192(%rbp), %rcx
	movq	%rax, -240(%rbp)
	movq	%rcx, -232(%rbp)
	movq	-184(%rbp), %rax
	movq	%rax, -224(%rbp)
	movq	-176(%rbp), %rax
	movq	%rax, -216(%rbp)
Ltmp256:
	.loc	8 2439 17
	testq	%rbx, %rbx
	jne	LBB1_117
Ltmp257:
LBB1_52:
	.file	25 "/rustc/a74d1862d4d87a56244958416fd05976c58ca1a8/src/libcore/iter/mod.rs"
	.loc	25 413 32
	movq	-216(%rbp), %rax
	movq	%rax, -96(%rbp)
	movq	-224(%rbp), %rax
	movq	%rax, -104(%rbp)
	movq	-240(%rbp), %rax
	movq	-232(%rbp), %rcx
	movq	%rcx, -112(%rbp)
	movq	%rax, -120(%rbp)
Ltmp258:
	.loc	25 386 13
	cmpq	$2, %r13
	je	LBB1_5
Ltmp259:
	.loc	25 387 40
	movq	-96(%rbp), %rax
	movq	%rax, -376(%rbp)
	movq	-104(%rbp), %rax
	movq	%rax, -384(%rbp)
	movq	-120(%rbp), %rax
	movq	-112(%rbp), %rcx
	movq	%rcx, -392(%rbp)
	movq	%rax, -400(%rbp)
Ltmp260:
	.loc	25 386 13
	cmpq	$3, %r13
	je	LBB1_5
	jmp	LBB1_54
Ltmp261:
LBB1_65:
	.loc	11 147 31
	movq	-464(%rbp), %rbx
Ltmp262:
	movq	%rbx, -448(%rbp)
Ltmp263:
	.loc	11 148 40
	movq	24(%r15), %rax
	movq	(%rax), %rdi
Ltmp18:
	callq	__ZN12synstructure11VariantInfo8bindings17h5b07cf40a08bbd5fE
Ltmp19:
Ltmp264:
	.loc	2 2851 12
	cmpq	%rbx, %rdx
Ltmp265:
	.loc	11 149 29
	jbe	LBB1_71
Ltmp266:
	.loc	11 0 0 is_stmt 0
	movq	%rax, %r12
	imulq	$88, %rbx, %rax
	addq	%rax, %r12
	.loc	11 149 29
	je	LBB1_71
Ltmp267:
Ltmp20:
	.loc	11 165 35 is_stmt 1
	leaq	-120(%rbp), %rdi
	callq	__ZN11proc_macro211TokenStream3new17h747898098334175aE
Ltmp21:
Ltmp268:
Ltmp22:
	.loc	15 81 9
	movq	%r12, %rdi
	leaq	-120(%rbp), %rsi
	callq	__ZN72_$LT$synstructure..BindingInfo$u20$as$u20$quote..to_tokens..ToTokens$GT$9to_tokens17h0bfdad2557e36befE
Ltmp23:
Ltmp269:
LBB1_70:
	.loc	11 0 0 is_stmt 0
	movq	-120(%rbp), %r13
	leaq	-112(%rbp), %rax
	movq	%rax, %rdx
	movq	(%rax), %rax
	movq	8(%rdx), %rcx
	movq	%rax, -200(%rbp)
	movq	%rcx, -192(%rbp)
	movq	16(%rdx), %rax
	movq	%rax, -184(%rbp)
	movq	24(%rdx), %rax
	movq	%rax, -176(%rbp)
	xorl	%ebx, %ebx
Ltmp270:
	.loc	5 178 1 is_stmt 1
	movq	-424(%rbp), %rsi
Ltmp271:
	.loc	19 200 40
	testq	%rsi, %rsi
	.loc	19 200 9 is_stmt 0
	jne	LBB1_50
	jmp	LBB1_51
Ltmp272:
LBB1_71:
Ltmp25:
	.loc	15 62 26 is_stmt 1
	leaq	-120(%rbp), %rdi
	callq	__ZN11proc_macro211TokenStream3new17h747898098334175aE
Ltmp26:
Ltmp273:
Ltmp27:
	.loc	15 81 9
	movq	%r14, %rdi
	leaq	-120(%rbp), %rsi
	callq	__ZN68_$LT$syn..attr..NestedMeta$u20$as$u20$quote..to_tokens..ToTokens$GT$9to_tokens17h945f0aa6c44f2515E
Ltmp28:
Ltmp274:
	.loc	15 64 9
	movq	-88(%rbp), %rax
	movq	%rax, -136(%rbp)
	movq	-96(%rbp), %rax
	movq	%rax, -144(%rbp)
	movq	-104(%rbp), %rax
	movq	%rax, -152(%rbp)
	movq	-120(%rbp), %rax
	movq	-112(%rbp), %rcx
	movq	%rcx, -160(%rbp)
	movq	%rax, -168(%rbp)
Ltmp275:
Ltmp32:
	.loc	24 16 9
	leaq	-168(%rbp), %rdi
	callq	__ZN5quote7spanned10join_spans17h23ad6a7cee49a53cE
Ltmp33:
Ltmp276:
	.loc	11 0 0 is_stmt 0
	movl	%eax, %r14d
Ltmp277:
	.loc	11 157 41 is_stmt 1
	movq	32(%r15), %rax
	movq	(%rax), %rdi
Ltmp34:
	callq	__ZN12synstructure9Structure3ast17hd69c42f1e35d21f4E
Ltmp35:
Ltmp278:
	.loc	11 0 0 is_stmt 0
	movq	%rax, %rbx
Ltmp279:
	.loc	11 158 41 is_stmt 1
	movq	24(%r15), %rax
	movq	(%rax), %rsi
Ltmp36:
	leaq	-304(%rbp), %rdi
	callq	__ZN12synstructure11VariantInfo3ast17h97bb1cb522a942c4E
Ltmp37:
Ltmp280:
	.loc	11 159 41
	movq	24(%r15), %rax
	movq	(%rax), %rdi
Ltmp38:
	callq	__ZN12synstructure11VariantInfo8bindings17h5b07cf40a08bbd5fE
Ltmp39:
Ltmp281:
	movq	%rdx, -456(%rbp)
	.loc	11 160 44
	movq	24(%r15), %rax
	movq	(%rax), %rdi
Ltmp40:
	callq	__ZN12synstructure11VariantInfo8bindings17h5b07cf40a08bbd5fE
Ltmp41:
Ltmp282:
	xorl	%eax, %eax
	cmpq	$1, %rdx
	.loc	11 160 41 is_stmt 0
	leaq	l___unnamed_13(%rip), %rcx
	leaq	l___unnamed_14(%rip), %rdx
	cmoveq	%rdx, %rcx
	.loc	11 0 0
	movq	%rcx, -320(%rbp)
	.loc	11 160 44
	setne	%al
	.loc	11 160 83
	movq	%rax, -312(%rbp)
Ltmp283:
	.loc	17 290 18 is_stmt 1
	addq	$56, %rbx
Ltmp284:
	.loc	11 153 38
	leaq	-448(%rbp), %rax
	movq	%rax, -120(%rbp)
	movq	__ZN4core3fmt3num3imp54_$LT$impl$u20$core..fmt..Display$u20$for$u20$usize$GT$3fmt17h89ce3155a90f2edfE@GOTPCREL(%rip), %rax
	movq	%rax, %rcx
	movq	%rax, -112(%rbp)
	movq	%rbx, -104(%rbp)
Ltmp285:
	movq	__ZN57_$LT$proc_macro2..Ident$u20$as$u20$core..fmt..Display$GT$3fmt17h5126cf470200c32cE@GOTPCREL(%rip), %rax
	movq	%rax, -96(%rbp)
	leaq	-288(%rbp), %rax
	movq	%rax, -88(%rbp)
	leaq	__ZN44_$LT$$RF$T$u20$as$u20$core..fmt..Display$GT$3fmt17he5e051c6be0be3c2E(%rip), %rax
	movq	%rax, -80(%rbp)
	leaq	-456(%rbp), %rax
	movq	%rax, -72(%rbp)
	movq	%rcx, -64(%rbp)
	leaq	-320(%rbp), %rax
	movq	%rax, -56(%rbp)
	leaq	__ZN44_$LT$$RF$T$u20$as$u20$core..fmt..Display$GT$3fmt17h79f45c06953bd7bfE(%rip), %rax
	movq	%rax, -48(%rbp)
Ltmp286:
	.loc	17 328 9
	leaq	l___unnamed_15(%rip), %rax
	movq	%rax, -168(%rbp)
	movq	$6, -160(%rbp)
	movq	$0, -152(%rbp)
	leaq	-120(%rbp), %rax
	movq	%rax, -136(%rbp)
	movq	$5, -128(%rbp)
Ltmp287:
Ltmp42:
	.loc	11 153 38
	leaq	-264(%rbp), %rdi
	leaq	-168(%rbp), %rsi
	callq	__ZN5alloc3fmt6format17hef4b691705b449e4E
Ltmp43:
Ltmp288:
	.loc	11 153 38 is_stmt 0
	movq	-264(%rbp), %rbx
	movq	-256(%rbp), %rax
	movq	%rbx, -120(%rbp)
	movq	%rax, -112(%rbp)
	movq	-248(%rbp), %rcx
	movq	%rcx, -104(%rbp)
Ltmp289:
Ltmp44:
	.loc	11 151 44 is_stmt 1
	leaq	-360(%rbp), %rdi
	movl	%r14d, %esi
	movq	%rbx, %rdx
	callq	__ZN14failure_derive5Error3new17h9589ca82366f37edE
Ltmp45:
	jmp	LBB1_47
Ltmp290:
LBB1_81:
	.loc	11 0 44 is_stmt 0
	leaq	-120(%rbp), %rbx
Ltmp291:
	.loc	15 62 26 is_stmt 1
	movq	%rbx, %rdi
	callq	__ZN11proc_macro211TokenStream3new17h747898098334175aE
Ltmp292:
Ltmp84:
	.loc	15 81 9
	movq	%r14, %rdi
	movq	%rbx, %rsi
	callq	__ZN68_$LT$syn..attr..NestedMeta$u20$as$u20$quote..to_tokens..ToTokens$GT$9to_tokens17h945f0aa6c44f2515E
Ltmp85:
Ltmp293:
	.loc	15 64 9
	movq	-88(%rbp), %rax
	movq	%rax, -136(%rbp)
	movq	-96(%rbp), %rax
	movq	%rax, -144(%rbp)
	movq	-104(%rbp), %rax
	movq	%rax, -152(%rbp)
	movq	-120(%rbp), %rax
	movq	-112(%rbp), %rcx
	movq	%rcx, -160(%rbp)
	movq	%rax, -168(%rbp)
	leaq	-168(%rbp), %rdi
Ltmp294:
	.loc	24 16 9
	callq	__ZN5quote7spanned10join_spans17h23ad6a7cee49a53cE
Ltmp295:
	.loc	11 185 28
	leaq	l___unnamed_16(%rip), %rdx
	leaq	-120(%rbp), %rdi
	movl	$35, %ecx
	movl	%eax, %esi
	callq	__ZN14failure_derive5Error3new17h9589ca82366f37edE
	.loc	11 185 24 is_stmt 0
	movq	-120(%rbp), %r13
	movq	-112(%rbp), %rax
	movq	%rax, -200(%rbp)
	movq	-104(%rbp), %rax
	movq	%rax, -192(%rbp)
	movq	-96(%rbp), %rax
	movq	%rax, -184(%rbp)
	movq	-88(%rbp), %rax
	jmp	LBB1_116
Ltmp296:
LBB1_83:
	.loc	14 612 17 is_stmt 1
	movb	-359(%rbp), %bl
Ltmp297:
	.loc	12 469 39
	movq	%r14, %rdi
	callq	__ZN3syn3lit6LitInt4span17h3b1c6ef39bc25439E
	movl	%eax, %r14d
Ltmp298:
	.loc	12 0 39 is_stmt 0
	movb	%bl, -320(%rbp)
Ltmp299:
	.loc	20 80 5 is_stmt 1
	movl	$56, %edi
	movl	$8, %esi
	callq	___rust_alloc
Ltmp300:
	.loc	20 269 9
	testq	%rax, %rax
	je	LBB1_127
Ltmp301:
	.file	26 "/Users/yingyuhang/.cargo/registry/src/github.com-1ecc6299db9ec823/syn-1.0.33/src/error.rs"
	.loc	26 0 0 is_stmt 0
	movq	%rax, %rbx
Ltmp302:
Ltmp93:
	.file	27 "/Users/yingyuhang/.cargo/registry/src/github.com-1ecc6299db9ec823/syn-1.0.33/src/thread.rs"
	.loc	27 21 24 is_stmt 1
	callq	__ZN3std6thread7current17hd901c0ead2f9a6c7E
Ltmp94:
Ltmp303:
	movq	%rax, -120(%rbp)
Ltmp96:
	leaq	-120(%rbp), %rdi
	callq	__ZN3std6thread6Thread2id17he4130b41e7b6a502E
Ltmp97:
Ltmp304:
	.loc	27 0 0 is_stmt 0
	movq	%rax, %r15
Ltmp305:
	.file	28 "/rustc/a74d1862d4d87a56244958416fd05976c58ca1a8/src/liballoc/sync.rs"
	.loc	28 1346 12 is_stmt 1
	movq	-120(%rbp), %rax
Ltmp306:
	.file	29 "/rustc/a74d1862d4d87a56244958416fd05976c58ca1a8/src/libcore/sync/atomic.rs"
	.loc	29 2314 20
	lock		decq	(%rax)
Ltmp307:
	.loc	28 1346 9
	jne	LBB1_88
Ltmp308:
	.loc	29 2563 24
	##MEMBARRIER
Ltmp101:
	leaq	-120(%rbp), %rdi
Ltmp309:
	.loc	28 1381 13
	callq	__ZN5alloc4sync12Arc$LT$T$GT$9drop_slow17h0b4f40e6ae7bd116E
Ltmp102:
Ltmp310:
LBB1_88:
Ltmp103:
	.loc	27 21 24
	callq	__ZN3std6thread7current17hd901c0ead2f9a6c7E
Ltmp104:
Ltmp311:
	movq	%rax, -120(%rbp)
Ltmp106:
	leaq	-120(%rbp), %rdi
	callq	__ZN3std6thread6Thread2id17he4130b41e7b6a502E
Ltmp107:
Ltmp312:
	.loc	27 0 0 is_stmt 0
	movq	%rax, %r12
Ltmp313:
	.loc	28 1346 12 is_stmt 1
	movq	-120(%rbp), %rax
Ltmp314:
	.loc	29 2314 20
	lock		decq	(%rax)
Ltmp315:
	.loc	28 1346 9
	jne	LBB1_92
Ltmp316:
	.loc	29 2563 24
	##MEMBARRIER
Ltmp111:
	leaq	-120(%rbp), %rdi
Ltmp317:
	.loc	28 1381 13
	callq	__ZN5alloc4sync12Arc$LT$T$GT$9drop_slow17h0b4f40e6ae7bd116E
Ltmp112:
Ltmp318:
LBB1_92:
	.loc	28 0 13 is_stmt 0
	leaq	-320(%rbp), %rax
	movq	%rax, -432(%rbp)
Ltmp319:
	.loc	16 374 9 is_stmt 1
	movq	$1, -168(%rbp)
	movq	$0, -160(%rbp)
	movq	$0, -152(%rbp)
	leaq	-432(%rbp), %rax
Ltmp320:
	.loc	16 2189 23
	movq	%rax, -304(%rbp)
	leaq	__ZN44_$LT$$RF$T$u20$as$u20$core..fmt..Display$GT$3fmt17h4c051158c1c2a62bE(%rip), %rax
	movq	%rax, -296(%rbp)
Ltmp321:
	.loc	16 0 23 is_stmt 0
	leaq	-168(%rbp), %rax
	movq	%rax, -264(%rbp)
Ltmp322:
	.loc	17 193 26 is_stmt 1
	leaq	l___unnamed_10(%rip), %rax
	movq	%rax, -120(%rbp)
	movq	$1, -112(%rbp)
	movq	$0, -104(%rbp)
	leaq	-304(%rbp), %rax
	movq	%rax, -88(%rbp)
	movq	$1, -80(%rbp)
Ltmp114:
	.loc	17 193 9 is_stmt 0
	leaq	l___unnamed_5(%rip), %rsi
	leaq	-264(%rbp), %rdi
	leaq	-120(%rbp), %rdx
	callq	__ZN4core3fmt5write17h26bd57c1fd6e9c98E
Ltmp115:
Ltmp323:
	.loc	14 962 13 is_stmt 1
	testb	%al, %al
Ltmp324:
	jne	LBB1_128
Ltmp325:
	.loc	18 478 9
	movq	-160(%rbp), %rsi
Ltmp326:
	.loc	18 621 31
	movq	-152(%rbp), %r13
Ltmp327:
	.loc	18 621 12 is_stmt 0
	cmpq	%r13, %rsi
	.loc	18 621 9
	je	LBB1_103
Ltmp328:
	.loc	19 453 9 is_stmt 1
	jb	LBB1_129
Ltmp329:
	.loc	19 200 40
	testq	%rsi, %rsi
	.loc	19 200 9 is_stmt 0
	je	LBB1_103
Ltmp330:
	.loc	19 455 48 is_stmt 1
	movq	-168(%rbp), %rdi
Ltmp331:
	.loc	19 455 36 is_stmt 0
	testq	%rdi, %rdi
	je	LBB1_103
Ltmp332:
	.loc	19 0 36
	movq	%r15, -208(%rbp)
Ltmp333:
	.loc	20 247 42 is_stmt 1
	testq	%r13, %r13
	je	LBB1_101
Ltmp334:
	.loc	20 124 5
	movl	$1, %edx
	movq	%r13, %rcx
	callq	___rust_realloc
Ltmp335:
	movq	%rax, %r15
Ltmp336:
	.loc	14 611 13
	testq	%rax, %rax
	jne	LBB1_102
Ltmp337:
	.loc	19 368 47
	movl	$1, %esi
	movq	%r13, %rdi
	callq	__ZN5alloc5alloc18handle_alloc_error17hbc0ab0ed90816c07E
Ltmp338:
LBB1_54:
	.loc	25 387 40
	movq	-376(%rbp), %rax
	movq	%rax, -96(%rbp)
	movq	-384(%rbp), %rax
	movq	%rax, -104(%rbp)
	movq	-400(%rbp), %rax
	movq	-392(%rbp), %rcx
	movq	%rcx, -112(%rbp)
	movq	%rax, -120(%rbp)
	movq	-368(%rbp), %rdx
Ltmp339:
	.loc	25 405 41
	movq	%r13, (%rdx)
	movq	-120(%rbp), %rax
	movq	-112(%rbp), %rcx
	movq	%rax, 8(%rdx)
	movq	%rcx, 16(%rdx)
	movq	-104(%rbp), %rax
	movq	%rax, 24(%rdx)
	movq	-96(%rbp), %rax
	movq	%rax, 32(%rdx)
	jmp	LBB1_121
Ltmp340:
LBB1_101:
	.loc	25 0 41 is_stmt 0
	movl	$1, %r15d
Ltmp341:
	.loc	20 102 5 is_stmt 1
	movl	$1, %edx
	callq	___rust_dealloc
Ltmp342:
LBB1_102:
	.loc	19 387 9
	movq	%r15, -168(%rbp)
	.loc	19 388 9
	movq	%r13, -160(%rbp)
	movq	-208(%rbp), %r15
Ltmp343:
LBB1_103:
	.loc	16 2192 9
	movq	-152(%rbp), %rax
	movq	%rax, -104(%rbp)
	movq	-168(%rbp), %rax
	movq	-160(%rbp), %rcx
	movq	%rcx, -112(%rbp)
	movq	%rax, -120(%rbp)
Ltmp344:
	.file	30 "/rustc/a74d1862d4d87a56244958416fd05976c58ca1a8/src/liballoc/macros.rs"
	.loc	30 46 29
	movq	%r15, (%rbx)
	movl	%r14d, 8(%rbx)
	movq	%r12, 16(%rbx)
	movl	%r14d, 24(%rbx)
	movq	-120(%rbp), %rax
	movq	-112(%rbp), %rcx
	movq	%rax, 32(%rbx)
	movq	%rcx, 40(%rbx)
	movq	-104(%rbp), %rax
	movq	%rax, 48(%rbx)
Ltmp345:
	.loc	11 141 65
	movq	%rbx, -304(%rbp)
	movaps	LCPI1_0(%rip), %xmm0
	movups	%xmm0, -296(%rbp)
Ltmp118:
	leaq	-120(%rbp), %rdi
	leaq	-304(%rbp), %rsi
Ltmp346:
	.loc	11 30 15
	callq	__ZN3syn5error5Error16to_compile_error17h8f7b408fd188a13eE
Ltmp119:
Ltmp347:
	.loc	11 30 9 is_stmt 0
	movq	-120(%rbp), %r13
	movq	-112(%rbp), %rax
	movq	%rax, -168(%rbp)
	movq	-104(%rbp), %rax
	movq	%rax, -160(%rbp)
	movq	-96(%rbp), %rax
	movq	%rax, -152(%rbp)
	movq	-88(%rbp), %rax
	movq	%rax, -144(%rbp)
Ltmp348:
	.loc	18 850 19 is_stmt 1
	movq	-304(%rbp), %r15
Ltmp349:
	.loc	18 2384 81
	movq	-288(%rbp), %rax
Ltmp350:
	.loc	5 178 1
	testq	%rax, %rax
	je	LBB1_111
Ltmp351:
	.loc	19 200 9
	imulq	$56, %rax, %r14
	xorl	%ebx, %ebx
Ltmp352:
	.loc	5 178 1
	movq	32(%r15,%rbx), %rdi
Ltmp353:
	.loc	19 532 16
	testq	%rdi, %rdi
Ltmp354:
	.loc	19 200 9
	jne	LBB1_108
Ltmp355:
	.p2align	4, 0x90
LBB1_106:
	.loc	5 178 1
	addq	$56, %rbx
	cmpq	%rbx, %r14
	je	LBB1_110
Ltmp356:
LBB1_107:
	.loc	5 178 1 is_stmt 0
	movq	32(%r15,%rbx), %rdi
Ltmp357:
	.loc	19 532 16 is_stmt 1
	testq	%rdi, %rdi
Ltmp358:
	.loc	19 200 9
	je	LBB1_106
Ltmp359:
LBB1_108:
	.loc	5 0 0 is_stmt 0
	movq	40(%r15,%rbx), %rsi
Ltmp360:
	.loc	19 200 9
	testq	%rsi, %rsi
	je	LBB1_106
Ltmp361:
	.loc	20 102 5 is_stmt 1
	movl	$1, %edx
	callq	___rust_dealloc
Ltmp362:
	.loc	5 178 1
	addq	$56, %rbx
	cmpq	%rbx, %r14
	jne	LBB1_107
Ltmp363:
LBB1_110:
	.loc	5 178 1 is_stmt 0
	movq	-304(%rbp), %r15
Ltmp364:
LBB1_111:
	movq	-296(%rbp), %rax
Ltmp365:
	.loc	19 200 40 is_stmt 1
	testq	%rax, %rax
	.loc	19 200 9 is_stmt 0
	je	LBB1_115
Ltmp366:
	.loc	19 532 16 is_stmt 1
	testq	%r15, %r15
Ltmp367:
	je	LBB1_115
Ltmp368:
	.loc	19 0 0 is_stmt 0
	imulq	$56, %rax, %rsi
Ltmp369:
	.loc	19 532 16
	testq	%rsi, %rsi
	je	LBB1_115
Ltmp370:
	.loc	20 102 5 is_stmt 1
	movl	$8, %edx
	movq	%r15, %rdi
	callq	___rust_dealloc
Ltmp371:
LBB1_115:
	.loc	14 1558 9
	movq	-168(%rbp), %rax
	movq	-160(%rbp), %rcx
	movq	%rax, -200(%rbp)
	movq	%rcx, -192(%rbp)
	movq	-152(%rbp), %rax
	movq	%rax, -184(%rbp)
	movq	-144(%rbp), %rax
Ltmp372:
LBB1_116:
	.loc	11 0 0 is_stmt 0
	movq	%rax, -176(%rbp)
Ltmp373:
	.loc	8 792 21 is_stmt 1
	movq	-176(%rbp), %rax
	movq	%rax, -216(%rbp)
	movq	-184(%rbp), %rax
	movq	%rax, -224(%rbp)
	movq	-200(%rbp), %rax
	movq	-192(%rbp), %rcx
	movq	%rcx, -232(%rbp)
	movq	%rax, -240(%rbp)
Ltmp374:
LBB1_117:
	.loc	8 2441 34
	movq	-216(%rbp), %rax
	movq	%rax, -96(%rbp)
	movq	-224(%rbp), %rax
	movq	%rax, -104(%rbp)
	movq	-240(%rbp), %rax
	movq	-232(%rbp), %rcx
	movq	%rcx, -112(%rbp)
	movq	%rax, -120(%rbp)
Ltmp375:
	.loc	8 0 34 is_stmt 0
	movq	-440(%rbp), %rbx
Ltmp376:
	.loc	5 178 1 is_stmt 1
	cmpq	$2, (%rbx)
	je	LBB1_119
Ltmp377:
Ltmp121:
	.loc	5 178 1 is_stmt 0
	movq	%rbx, %rdi
	callq	__ZN4core3ptr13drop_in_place17hd09c695a35000682E
Ltmp122:
Ltmp378:
LBB1_119:
	.loc	8 2441 21 is_stmt 1
	movq	%r13, (%rbx)
	movq	-96(%rbp), %rax
	movq	%rax, 32(%rbx)
	movq	-104(%rbp), %rax
	movq	%rax, 24(%rbx)
	movq	-120(%rbp), %rax
	movq	-112(%rbp), %rcx
	movq	%rcx, 16(%rbx)
	movq	%rax, 8(%rbx)
Ltmp379:
	.loc	25 387 40
	movq	-400(%rbp), %rax
	movq	-392(%rbp), %rcx
	movq	%rax, -120(%rbp)
	movq	%rcx, -112(%rbp)
	movq	-384(%rbp), %rax
	movq	%rax, -104(%rbp)
	movq	-376(%rbp), %rax
	movq	%rax, -96(%rbp)
Ltmp380:
LBB1_120:
	.loc	25 0 40 is_stmt 0
	movq	-368(%rbp), %rax
Ltmp381:
	.loc	25 404 40 is_stmt 1
	movq	$2, (%rax)
Ltmp382:
LBB1_121:
	.loc	8 2420 6
	addq	$440, %rsp
	popq	%rbx
	popq	%r12
	popq	%r13
	popq	%r14
	popq	%r15
	popq	%rbp
	retq
LBB1_122:
Ltmp383:
Ltmp87:
	.loc	11 141 27
	leaq	l___unnamed_17(%rip), %rdx
	movq	%rbx, %rdi
	movq	%r12, %rsi
	callq	__ZN4core9panicking18panic_bounds_check17habe69d236c55e3edE
Ltmp88:
	jmp	LBB1_126
Ltmp384:
LBB1_123:
Ltmp47:
	.loc	14 963 23
	leaq	l___unnamed_18(%rip), %rdi
	leaq	l___unnamed_6(%rip), %rcx
	leaq	l___unnamed_19(%rip), %r8
	leaq	-120(%rbp), %rdx
	movl	$55, %esi
	callq	__ZN4core6result13unwrap_failed17hb5a510096a5fc85fE
Ltmp48:
	jmp	LBB1_126
Ltmp385:
LBB1_124:
Ltmp12:
	.file	31 "/rustc/a74d1862d4d87a56244958416fd05976c58ca1a8/src/libcore/macros/mod.rs"
	.loc	31 10 9
	leaq	l___unnamed_20(%rip), %rdi
	leaq	l___unnamed_21(%rip), %rdx
	movl	$36, %esi
	callq	__ZN4core9panicking5panic17h736ee47a631475c0E
Ltmp13:
	jmp	LBB1_126
Ltmp386:
LBB1_22:
	.loc	19 368 47
	movl	$1, %esi
	movq	%rbx, %rdi
	callq	__ZN5alloc5alloc18handle_alloc_error17hbc0ab0ed90816c07E
Ltmp387:
LBB1_125:
	.loc	7 430 21
	leaq	-168(%rbp), %rax
	movq	%rax, -120(%rbp)
	leaq	-360(%rbp), %rax
	movq	%rax, -112(%rbp)
	leaq	-304(%rbp), %rax
	movq	%rax, -104(%rbp)
Ltmp14:
	leaq	-120(%rbp), %rdi
	callq	__ZN4core3str6traits105_$LT$impl$u20$core..slice..SliceIndex$LT$str$GT$$u20$for$u20$core..ops..range..RangeFrom$LT$usize$GT$$GT$5index28_$u7b$$u7b$closure$u7d$$u7d$17h234c8e59135de1faE
Ltmp15:
Ltmp388:
LBB1_126:
	.loc	7 0 21 is_stmt 0
	ud2
LBB1_127:
Ltmp389:
	.loc	20 270 19 is_stmt 1
	movl	$56, %edi
	movl	$8, %esi
	callq	__ZN5alloc5alloc18handle_alloc_error17hbc0ab0ed90816c07E
Ltmp390:
LBB1_128:
Ltmp124:
	.loc	14 963 23
	leaq	l___unnamed_18(%rip), %rdi
	leaq	l___unnamed_6(%rip), %rcx
	leaq	l___unnamed_19(%rip), %r8
	leaq	-120(%rbp), %rdx
	movl	$55, %esi
	callq	__ZN4core6result13unwrap_failed17hb5a510096a5fc85fE
Ltmp125:
	jmp	LBB1_126
Ltmp391:
LBB1_129:
Ltmp116:
	.loc	31 10 9
	leaq	l___unnamed_20(%rip), %rdi
	leaq	l___unnamed_21(%rip), %rdx
	movl	$36, %esi
	callq	__ZN4core9panicking5panic17h736ee47a631475c0E
Ltmp117:
	jmp	LBB1_126
Ltmp392:
LBB1_130:
Ltmp49:
	.loc	31 0 9 is_stmt 0
	jmp	LBB1_149
Ltmp393:
LBB1_131:
Ltmp89:
	movq	%rax, %r14
Ltmp394:
	movq	%r14, %rdi
	callq	__Unwind_Resume
	ud2
Ltmp395:
LBB1_132:
Ltmp120:
	movq	%rax, %r14
Ltmp396:
	leaq	-304(%rbp), %rdi
Ltmp397:
	.loc	11 31 5 is_stmt 1
	callq	__ZN4core3ptr13drop_in_place17h32fb4e637a7d38feE
	movq	%r14, %rdi
	callq	__Unwind_Resume
	ud2
Ltmp398:
LBB1_133:
Ltmp126:
	.loc	11 0 5 is_stmt 0
	movq	%rax, %r14
Ltmp399:
	leaq	-168(%rbp), %rdi
Ltmp400:
	.loc	16 2193 5 is_stmt 1
	callq	__ZN4core3ptr13drop_in_place17hee8758d2d30aaff2E
	jmp	LBB1_140
Ltmp401:
LBB1_134:
Ltmp108:
	.loc	16 0 5 is_stmt 0
	movq	%rax, %r14
Ltmp402:
Ltmp109:
	leaq	-120(%rbp), %rdi
Ltmp403:
	.loc	27 23 5 is_stmt 1
	callq	__ZN4core3ptr13drop_in_place17h1dee087616f777ddE
Ltmp110:
	jmp	LBB1_140
Ltmp404:
LBB1_135:
Ltmp105:
	.loc	27 0 5 is_stmt 0
	jmp	LBB1_139
Ltmp405:
LBB1_136:
Ltmp98:
	movq	%rax, %r14
Ltmp406:
Ltmp99:
	leaq	-120(%rbp), %rdi
Ltmp407:
	.loc	27 23 5
	callq	__ZN4core3ptr13drop_in_place17h1dee087616f777ddE
Ltmp100:
	jmp	LBB1_140
Ltmp408:
LBB1_137:
Ltmp113:
	.loc	27 0 5
	jmp	LBB1_139
Ltmp409:
LBB1_138:
Ltmp95:
LBB1_139:
	movq	%rax, %r14
Ltmp410:
LBB1_140:
	.loc	30 46 37 is_stmt 1
	movq	%rbx, %rdi
	callq	__ZN5alloc5alloc8box_free17he0909a5c04102062E
	movq	%r14, %rdi
	callq	__Unwind_Resume
	ud2
Ltmp411:
LBB1_141:
Ltmp46:
	.loc	30 0 37 is_stmt 0
	jmp	LBB1_151
Ltmp412:
LBB1_142:
Ltmp29:
	movq	%rax, %r14
Ltmp413:
Ltmp30:
	leaq	-120(%rbp), %rdi
Ltmp414:
	.loc	15 65 5 is_stmt 1
	callq	__ZN4core3ptr13drop_in_place17hd09c695a35000682E
Ltmp31:
	jmp	LBB1_159
Ltmp415:
LBB1_143:
Ltmp24:
	.loc	15 0 5 is_stmt 0
	jmp	LBB1_147
Ltmp416:
LBB1_144:
Ltmp123:
	movq	%rax, %r14
Ltmp417:
	.loc	8 2441 21 is_stmt 1
	movq	%r13, (%rbx)
	movq	-120(%rbp), %rax
	movq	-112(%rbp), %rcx
	movq	%rax, 8(%rbx)
	movq	%rcx, 16(%rbx)
	movq	-104(%rbp), %rax
	movq	%rax, 24(%rbx)
	movq	-96(%rbp), %rax
	movq	%rax, 32(%rbx)
	movq	%r14, %rdi
	callq	__Unwind_Resume
	ud2
Ltmp418:
LBB1_145:
Ltmp86:
	.loc	8 0 21 is_stmt 0
	jmp	LBB1_155
Ltmp419:
LBB1_146:
Ltmp63:
LBB1_147:
	movq	%rax, %r14
Ltmp420:
	leaq	-120(%rbp), %rdi
Ltmp421:
	callq	__ZN4core3ptr13drop_in_place17hd09c695a35000682E
	jmp	LBB1_159
Ltmp422:
LBB1_148:
Ltmp11:
LBB1_149:
	movq	%rax, %r14
Ltmp423:
	leaq	-168(%rbp), %rdi
Ltmp424:
	.loc	16 2193 5 is_stmt 1
	callq	__ZN4core3ptr13drop_in_place17hee8758d2d30aaff2E
	movq	%r14, %rdi
	callq	__Unwind_Resume
	ud2
Ltmp425:
LBB1_150:
Ltmp83:
LBB1_151:
	.loc	16 0 5 is_stmt 0
	movq	%rax, %r14
	leaq	-120(%rbp), %rdi
Ltmp426:
	callq	__ZN4core3ptr13drop_in_place17hee8758d2d30aaff2E
	jmp	LBB1_159
Ltmp427:
LBB1_152:
Ltmp68:
	movq	%rax, %r14
Ltmp428:
Ltmp69:
	leaq	-120(%rbp), %rdi
Ltmp429:
	.loc	15 65 5 is_stmt 1
	callq	__ZN4core3ptr13drop_in_place17hd09c695a35000682E
Ltmp70:
	jmp	LBB1_159
Ltmp430:
LBB1_153:
Ltmp71:
	.loc	15 0 5 is_stmt 0
	jmp	LBB1_158
Ltmp431:
LBB1_154:
Ltmp92:
LBB1_155:
	movq	%rax, %r14
Ltmp432:
	leaq	-120(%rbp), %rdi
	callq	__ZN4core3ptr13drop_in_place17hd09c695a35000682E
	movq	%r14, %rdi
	callq	__Unwind_Resume
	ud2
Ltmp433:
LBB1_156:
Ltmp80:
	jmp	LBB1_158
Ltmp434:
LBB1_157:
Ltmp58:
LBB1_158:
	movq	%rax, %r14
Ltmp435:
LBB1_159:
	leaq	-432(%rbp), %rdi
Ltmp436:
	.loc	11 183 13 is_stmt 1
	callq	__ZN4core3ptr13drop_in_place17hee8758d2d30aaff2E
	movq	%r14, %rdi
	callq	__Unwind_Resume
	ud2
Ltmp437:
Lfunc_end1:
	.cfi_endproc
	.file	32 "/rustc/a74d1862d4d87a56244958416fd05976c58ca1a8/src/libcore/ops/function.rs"
	.file	33 "/rustc/a74d1862d4d87a56244958416fd05976c58ca1a8/src/libcore/str/pattern.rs"
	.file	34 "/Users/yingyuhang/.cargo/registry/src/github.com-1ecc6299db9ec823/syn-1.0.33/src/spanned.rs"
	.section	__TEXT,__gcc_except_tab
	.p2align	2
GCC_except_table1:
Lexception0:
	.byte	255
	.byte	255
	.byte	1
	.uleb128 Lcst_end0-Lcst_begin0
Lcst_begin0:
	.uleb128 Lfunc_begin1-Lfunc_begin1
	.uleb128 Ltmp90-Lfunc_begin1
	.byte	0
	.byte	0
	.uleb128 Ltmp90-Lfunc_begin1
	.uleb128 Ltmp91-Ltmp90
	.uleb128 Ltmp92-Lfunc_begin1
	.byte	0
	.uleb128 Ltmp91-Lfunc_begin1
	.uleb128 Ltmp9-Ltmp91
	.byte	0
	.byte	0
	.uleb128 Ltmp9-Lfunc_begin1
	.uleb128 Ltmp10-Ltmp9
	.uleb128 Ltmp11-Lfunc_begin1
	.byte	0
	.uleb128 Ltmp16-Lfunc_begin1
	.uleb128 Ltmp51-Ltmp16
	.uleb128 Ltmp80-Lfunc_begin1
	.byte	0
	.uleb128 Ltmp52-Lfunc_begin1
	.uleb128 Ltmp57-Ltmp52
	.uleb128 Ltmp58-Lfunc_begin1
	.byte	0
	.uleb128 Ltmp59-Lfunc_begin1
	.uleb128 Ltmp60-Ltmp59
	.uleb128 Ltmp80-Lfunc_begin1
	.byte	0
	.uleb128 Ltmp61-Lfunc_begin1
	.uleb128 Ltmp62-Ltmp61
	.uleb128 Ltmp63-Lfunc_begin1
	.byte	0
	.uleb128 Ltmp64-Lfunc_begin1
	.uleb128 Ltmp65-Ltmp64
	.uleb128 Ltmp80-Lfunc_begin1
	.byte	0
	.uleb128 Ltmp66-Lfunc_begin1
	.uleb128 Ltmp67-Ltmp66
	.uleb128 Ltmp68-Lfunc_begin1
	.byte	0
	.uleb128 Ltmp72-Lfunc_begin1
	.uleb128 Ltmp79-Ltmp72
	.uleb128 Ltmp80-Lfunc_begin1
	.byte	0
	.uleb128 Ltmp81-Lfunc_begin1
	.uleb128 Ltmp82-Ltmp81
	.uleb128 Ltmp83-Lfunc_begin1
	.byte	0
	.uleb128 Ltmp18-Lfunc_begin1
	.uleb128 Ltmp21-Ltmp18
	.uleb128 Ltmp80-Lfunc_begin1
	.byte	0
	.uleb128 Ltmp22-Lfunc_begin1
	.uleb128 Ltmp23-Ltmp22
	.uleb128 Ltmp24-Lfunc_begin1
	.byte	0
	.uleb128 Ltmp25-Lfunc_begin1
	.uleb128 Ltmp26-Ltmp25
	.uleb128 Ltmp80-Lfunc_begin1
	.byte	0
	.uleb128 Ltmp27-Lfunc_begin1
	.uleb128 Ltmp28-Ltmp27
	.uleb128 Ltmp29-Lfunc_begin1
	.byte	0
	.uleb128 Ltmp32-Lfunc_begin1
	.uleb128 Ltmp43-Ltmp32
	.uleb128 Ltmp80-Lfunc_begin1
	.byte	0
	.uleb128 Ltmp44-Lfunc_begin1
	.uleb128 Ltmp45-Ltmp44
	.uleb128 Ltmp46-Lfunc_begin1
	.byte	0
	.uleb128 Ltmp45-Lfunc_begin1
	.uleb128 Ltmp84-Ltmp45
	.byte	0
	.byte	0
	.uleb128 Ltmp84-Lfunc_begin1
	.uleb128 Ltmp85-Ltmp84
	.uleb128 Ltmp86-Lfunc_begin1
	.byte	0
	.uleb128 Ltmp85-Lfunc_begin1
	.uleb128 Ltmp93-Ltmp85
	.byte	0
	.byte	0
	.uleb128 Ltmp93-Lfunc_begin1
	.uleb128 Ltmp94-Ltmp93
	.uleb128 Ltmp95-Lfunc_begin1
	.byte	0
	.uleb128 Ltmp96-Lfunc_begin1
	.uleb128 Ltmp97-Ltmp96
	.uleb128 Ltmp98-Lfunc_begin1
	.byte	0
	.uleb128 Ltmp101-Lfunc_begin1
	.uleb128 Ltmp102-Ltmp101
	.uleb128 Ltmp113-Lfunc_begin1
	.byte	0
	.uleb128 Ltmp103-Lfunc_begin1
	.uleb128 Ltmp104-Ltmp103
	.uleb128 Ltmp105-Lfunc_begin1
	.byte	0
	.uleb128 Ltmp106-Lfunc_begin1
	.uleb128 Ltmp107-Ltmp106
	.uleb128 Ltmp108-Lfunc_begin1
	.byte	0
	.uleb128 Ltmp111-Lfunc_begin1
	.uleb128 Ltmp112-Ltmp111
	.uleb128 Ltmp113-Lfunc_begin1
	.byte	0
	.uleb128 Ltmp114-Lfunc_begin1
	.uleb128 Ltmp115-Ltmp114
	.uleb128 Ltmp126-Lfunc_begin1
	.byte	0
	.uleb128 Ltmp118-Lfunc_begin1
	.uleb128 Ltmp119-Ltmp118
	.uleb128 Ltmp120-Lfunc_begin1
	.byte	0
	.uleb128 Ltmp121-Lfunc_begin1
	.uleb128 Ltmp122-Ltmp121
	.uleb128 Ltmp123-Lfunc_begin1
	.byte	0
	.uleb128 Ltmp87-Lfunc_begin1
	.uleb128 Ltmp88-Ltmp87
	.uleb128 Ltmp89-Lfunc_begin1
	.byte	0
	.uleb128 Ltmp47-Lfunc_begin1
	.uleb128 Ltmp13-Ltmp47
	.uleb128 Ltmp49-Lfunc_begin1
	.byte	0
	.uleb128 Ltmp14-Lfunc_begin1
	.uleb128 Ltmp15-Ltmp14
	.uleb128 Ltmp71-Lfunc_begin1
	.byte	0
	.uleb128 Ltmp124-Lfunc_begin1
	.uleb128 Ltmp117-Ltmp124
	.uleb128 Ltmp126-Lfunc_begin1
	.byte	0
	.uleb128 Ltmp117-Lfunc_begin1
	.uleb128 Ltmp109-Ltmp117
	.byte	0
	.byte	0
	.uleb128 Ltmp109-Lfunc_begin1
	.uleb128 Ltmp100-Ltmp109
	.uleb128 Ltmp113-Lfunc_begin1
	.byte	0
	.uleb128 Ltmp100-Lfunc_begin1
	.uleb128 Ltmp30-Ltmp100
	.byte	0
	.byte	0
	.uleb128 Ltmp30-Lfunc_begin1
	.uleb128 Ltmp31-Ltmp30
	.uleb128 Ltmp71-Lfunc_begin1
	.byte	0
	.uleb128 Ltmp31-Lfunc_begin1
	.uleb128 Ltmp69-Ltmp31
	.byte	0
	.byte	0
	.uleb128 Ltmp69-Lfunc_begin1
	.uleb128 Ltmp70-Ltmp69
	.uleb128 Ltmp71-Lfunc_begin1
	.byte	0
	.uleb128 Ltmp70-Lfunc_begin1
	.uleb128 Lfunc_end1-Ltmp70
	.byte	0
	.byte	0
Lcst_end0:
	.p2align	2

	.section	__TEXT,__text,regular,pure_instructions
	.p2align	4, 0x90
__ZN10proc_macro6bridge6client44_$LT$impl$u20$proc_macro..bridge..Bridge$GT$5enter28_$u7b$$u7b$closure$u7d$$u7d$28_$u7b$$u7b$closure$u7d$$u7d$17hce65dc466dd4061eE:
Lfunc_begin2:
	.file	35 "/rustc/a74d1862d4d87a56244958416fd05976c58ca1a8/src/libproc_macro/bridge/client.rs"
	.loc	35 306 0
	.cfi_startproc
	.cfi_personality 155, _rust_eh_personality
	.cfi_lsda 16, Lexception1
	pushq	%rbp
	.cfi_def_cfa_offset 16
	.cfi_offset %rbp, -16
	movq	%rsp, %rbp
	.cfi_def_cfa_register %rbp
	pushq	%r15
	pushq	%r14
	pushq	%rbx
	subq	$72, %rsp
	.cfi_offset %rbx, -40
	.cfi_offset %r14, -32
	.cfi_offset %r15, -24
	movq	%rsi, %r14
Ltmp444:
	movq	%rdi, %r15
Ltmp445:
	.file	36 "/rustc/a74d1862d4d87a56244958416fd05976c58ca1a8/src/libstd/thread/local.rs"
	.loc	36 262 32 prologue_end
	callq	__ZN10proc_macro6bridge6client12BRIDGE_STATE7__getit17h555659aa883aa8b0E
Ltmp446:
	.loc	36 262 82 is_stmt 0
	testq	%rax, %rax
	je	LBB2_10
Ltmp447:
	.loc	36 0 82
	movl	$2, %ecx
Ltmp448:
	.loc	4 2058 5 is_stmt 1
	movq	%rcx, %xmm0
Ltmp449:
	.loc	4 2058 5 is_stmt 0
	movdqu	(%rax), %xmm1
	movups	16(%rax), %xmm2
Ltmp450:
	movups	32(%rax), %xmm3
	movups	48(%rax), %xmm4
Ltmp451:
	.loc	4 2058 5
	movdqu	%xmm0, (%rax)
Ltmp452:
	.file	37 "/rustc/a74d1862d4d87a56244958416fd05976c58ca1a8/src/libproc_macro/bridge/scoped_cell.rs"
	.loc	37 65 36 is_stmt 1
	movq	%rax, -96(%rbp)
Ltmp453:
	movups	%xmm2, -72(%rbp)
	movdqu	%xmm1, -88(%rbp)
	movups	%xmm3, -56(%rbp)
	movups	%xmm4, -40(%rbp)
Ltmp454:
	.loc	7 291 13
	movq	%xmm1, %rbx
	cmpq	$3, %rbx
Ltmp455:
	.loc	7 387 13
	je	LBB2_2
Ltmp456:
Ltmp438:
	.loc	7 0 13 is_stmt 0
	leaq	-96(%rbp), %rdi
	.loc	37 75 5 is_stmt 1
	callq	__ZN4core3ptr13drop_in_place17h98893e89b32dbdb5E
Ltmp457:
Ltmp439:
	.loc	35 308 21
	testq	%rbx, %rbx
Ltmp458:
	.loc	35 311 17
	je	LBB2_11
Ltmp459:
	.loc	35 314 14
	addq	$72, %rsp
	popq	%rbx
	popq	%r14
Ltmp460:
	popq	%r15
	popq	%rbp
	retq
LBB2_11:
Ltmp461:
	.loc	10 1048 28
	movq	(%r15), %rdi
	movq	8(%r15), %rax
	.loc	10 1048 9 is_stmt 0
	movq	24(%rax), %rax
	movq	%r14, %rsi
	addq	$72, %rsp
	popq	%rbx
	popq	%r14
Ltmp462:
	popq	%r15
Ltmp463:
	popq	%rbp
	jmpq	*%rax
Ltmp464:
LBB2_10:
	.loc	14 963 23 is_stmt 1
	leaq	l___unnamed_22(%rip), %rdi
Ltmp465:
	leaq	l___unnamed_7(%rip), %rcx
	leaq	l___unnamed_23(%rip), %r8
	leaq	-96(%rbp), %rdx
	movl	$70, %esi
	callq	__ZN4core6result13unwrap_failed17hb5a510096a5fc85fE
Ltmp466:
LBB2_2:
Ltmp441:
	.loc	31 10 9
	leaq	l___unnamed_24(%rip), %rdi
	leaq	l___unnamed_25(%rip), %rdx
	movl	$43, %esi
	callq	__ZN4core9panicking5panic17h736ee47a631475c0E
Ltmp467:
Ltmp442:
	.loc	31 0 9 is_stmt 0
	ud2
Ltmp468:
LBB2_6:
Ltmp443:
	movq	%rax, %rbx
Ltmp469:
	leaq	-96(%rbp), %rdi
	.loc	37 75 5 is_stmt 1
	callq	__ZN4core3ptr13drop_in_place17h98893e89b32dbdb5E
	movq	%rbx, %rdi
	callq	__Unwind_Resume
	ud2
Ltmp470:
LBB2_4:
Ltmp440:
	.loc	37 0 5 is_stmt 0
	movq	%rax, %rbx
	movq	%rbx, %rdi
	callq	__Unwind_Resume
	ud2
Lfunc_end2:
	.cfi_endproc
	.file	38 "/rustc/a74d1862d4d87a56244958416fd05976c58ca1a8/src/libcore/cell.rs"
	.section	__TEXT,__gcc_except_tab
	.p2align	2
GCC_except_table2:
Lexception1:
	.byte	255
	.byte	255
	.byte	1
	.uleb128 Lcst_end1-Lcst_begin1
Lcst_begin1:
	.uleb128 Lfunc_begin2-Lfunc_begin2
	.uleb128 Ltmp438-Lfunc_begin2
	.byte	0
	.byte	0
	.uleb128 Ltmp438-Lfunc_begin2
	.uleb128 Ltmp439-Ltmp438
	.uleb128 Ltmp440-Lfunc_begin2
	.byte	0
	.uleb128 Ltmp439-Lfunc_begin2
	.uleb128 Ltmp441-Ltmp439
	.byte	0
	.byte	0
	.uleb128 Ltmp441-Lfunc_begin2
	.uleb128 Ltmp442-Ltmp441
	.uleb128 Ltmp443-Lfunc_begin2
	.byte	0
	.uleb128 Ltmp442-Lfunc_begin2
	.uleb128 Lfunc_end2-Ltmp442
	.byte	0
	.byte	0
Lcst_end1:
	.p2align	2

	.section	__TEXT,__literal8,8byte_literals
	.p2align	3
LCPI3_0:
	.quad	1
	.section	__TEXT,__text,regular,pure_instructions
	.p2align	4, 0x90
__ZN10proc_macro6bridge6client85Client$LT$fn$LP$proc_macro..TokenStream$RP$$u20$.$GT$$u20$proc_macro..TokenStream$GT$7expand13run17h417145d0ac093848E:
Lfunc_begin3:
	.loc	35 397 0 is_stmt 1
	.cfi_startproc
	.cfi_personality 155, _rust_eh_personality
	.cfi_lsda 16, Lexception2
	pushq	%rbp
	.cfi_def_cfa_offset 16
	.cfi_offset %rbp, -16
	movq	%rsp, %rbp
	.cfi_def_cfa_register %rbp
	pushq	%r15
	pushq	%r14
	pushq	%r12
	pushq	%rbx
	subq	$624, %rsp
	.cfi_offset %rbx, -48
	.cfi_offset %r12, -40
	.cfi_offset %r14, -32
	.cfi_offset %r15, -24
	movq	%rsi, %r12
Ltmp619:
	movq	%rdi, %r15
Ltmp620:
	.loc	35 401 24 prologue_end
	movaps	16(%rbp), %xmm0
	movdqa	32(%rbp), %xmm1
Ltmp621:
	movq	48(%rbp), %rax
Ltmp622:
	.loc	6 806 5
	movdqu	%xmm1, -80(%rbp)
	movups	%xmm0, -96(%rbp)
	movq	%rax, -64(%rbp)
Ltmp623:
	.loc	6 0 5 is_stmt 0
	movl	$1, %eax
Ltmp624:
	.loc	35 362 9 is_stmt 1
	movq	%rax, %xmm0
	movdqa	%xmm0, -528(%rbp)
	leaq	__ZN115_$LT$proc_macro..bridge..buffer..Buffer$LT$T$GT$$u20$as$u20$core..convert..From$LT$alloc..vec..Vec$LT$T$GT$$GT$$GT$4from17extend_from_slice17h81bd4d7333c655b2E(%rip), %rax
Ltmp625:
	movq	%rax, %xmm0
	pslldq	$8, %xmm0
	movdqa	%xmm0, -336(%rbp)
	movdqa	%xmm0, -512(%rbp)
	leaq	__ZN115_$LT$proc_macro..bridge..buffer..Buffer$LT$T$GT$$u20$as$u20$core..convert..From$LT$alloc..vec..Vec$LT$T$GT$$GT$$GT$4from4drop17hc3f172e1ef9c40afE(%rip), %r14
Ltmp626:
	movq	%r14, -496(%rbp)
	movq	56(%rbp), %rax
	movq	%rax, -488(%rbp)
	movq	64(%rbp), %rax
	movq	%rax, -480(%rbp)
Ltmp627:
	.loc	29 2275 20
	movq	__ZN10proc_macro6bridge6client44_$LT$impl$u20$proc_macro..bridge..Bridge$GT$5enter28HIDE_PANICS_DURING_EXPANSION17hc9d2f9ebce5f8921E@GOTPCREL(%rip), %rax
Ltmp628:
	movq	(%rax), %rax
Ltmp629:
	.file	39 "/rustc/a74d1862d4d87a56244958416fd05976c58ca1a8/src/libstd/sync/once.rs"
	.loc	39 373 9
	cmpq	$3, %rax
Ltmp630:
	.loc	39 259 9
	je	LBB3_2
Ltmp631:
	.loc	39 263 21
	movb	$1, -616(%rbp)
	leaq	-616(%rbp), %rax
Ltmp632:
	.loc	39 264 37
	movq	%rax, -184(%rbp)
Ltmp471:
	.loc	39 264 9 is_stmt 0
	movq	__ZN10proc_macro6bridge6client44_$LT$impl$u20$proc_macro..bridge..Bridge$GT$5enter28HIDE_PANICS_DURING_EXPANSION17hc9d2f9ebce5f8921E@GOTPCREL(%rip), %rdi
	leaq	l___unnamed_2(%rip), %rcx
	leaq	-184(%rbp), %rdx
	xorl	%esi, %esi
	callq	__ZN3std4sync4once4Once10call_inner17h78f35ea5a056ddbcE
Ltmp472:
Ltmp633:
LBB3_2:
	.loc	36 239 23 is_stmt 1
	movq	-480(%rbp), %rax
	movq	%rax, -416(%rbp)
	movdqa	-528(%rbp), %xmm0
	movdqa	-512(%rbp), %xmm1
	movq	-496(%rbp), %rax
	movq	%rax, -432(%rbp)
	movq	-488(%rbp), %rax
	movq	%rax, -424(%rbp)
	movdqa	%xmm1, -448(%rbp)
	movdqa	%xmm0, -464(%rbp)
	leaq	-96(%rbp), %rax
	movq	%rax, -408(%rbp)
	movq	%r12, -400(%rbp)
Ltmp476:
Ltmp634:
	.loc	36 262 32
	callq	__ZN10proc_macro6bridge6client12BRIDGE_STATE7__getit17h555659aa883aa8b0E
Ltmp477:
Ltmp635:
	.loc	36 262 82 is_stmt 0
	testq	%rax, %rax
	je	LBB3_37
Ltmp636:
	.loc	36 263 16 is_stmt 1
	movdqa	-464(%rbp), %xmm0
	movq	-448(%rbp), %xmm1
Ltmp637:
	movdqu	-440(%rbp), %xmm2
	movups	-424(%rbp), %xmm3
Ltmp638:
	.loc	35 317 45
	palignr	$8, %xmm0, %xmm1
Ltmp639:
	movq	LCPI3_0(%rip), %xmm4
	punpcklqdq	%xmm0, %xmm4
Ltmp640:
	.loc	4 2058 5
	movdqu	(%rax), %xmm0
	movups	16(%rax), %xmm5
Ltmp641:
	movups	32(%rax), %xmm6
	movups	48(%rax), %xmm7
Ltmp642:
	.loc	4 2058 5 is_stmt 0
	movdqu	%xmm1, 16(%rax)
	movdqu	%xmm4, (%rax)
Ltmp643:
	movups	%xmm3, 48(%rax)
	movdqu	%xmm2, 32(%rax)
Ltmp644:
	.loc	37 65 36 is_stmt 1
	movq	%rax, -616(%rbp)
Ltmp645:
	movups	%xmm5, -592(%rbp)
	movdqu	%xmm0, -608(%rbp)
	movups	%xmm7, -560(%rbp)
	movups	%xmm6, -576(%rbp)
Ltmp646:
	.loc	7 291 13
	movq	%xmm0, %rax
Ltmp647:
	cmpq	$3, %rax
Ltmp648:
	.loc	7 387 13
	je	LBB3_39
Ltmp649:
	.file	40 "/rustc/a74d1862d4d87a56244958416fd05976c58ca1a8/src/libproc_macro/bridge/buffer.rs"
	.loc	40 58 63
	movq	-88(%rbp), %rsi
Ltmp650:
	.loc	2 2918 19
	cmpq	$3, %rsi
	.loc	2 2918 16 is_stmt 0
	jbe	LBB3_40
Ltmp651:
	.loc	35 0 0
	movq	-96(%rbp), %rax
Ltmp652:
	.loc	4 2058 5 is_stmt 1
	movl	(%rax), %eax
Ltmp653:
	.loc	7 387 13
	testl	%eax, %eax
	je	LBB3_41
Ltmp654:
	.loc	35 364 25
	movl	%eax, -192(%rbp)
Ltmp655:
Ltmp481:
	.loc	36 262 32
	callq	__ZN10proc_macro6bridge6client12BRIDGE_STATE7__getit17h555659aa883aa8b0E
Ltmp482:
Ltmp656:
	.loc	36 262 82 is_stmt 0
	testq	%rax, %rax
	je	LBB3_42
Ltmp657:
	.loc	36 0 82
	movl	$2, %ecx
Ltmp658:
	.loc	4 2058 5 is_stmt 1
	movq	%rcx, %xmm1
Ltmp659:
	.loc	4 2058 5 is_stmt 0
	movdqu	(%rax), %xmm2
	movups	16(%rax), %xmm3
Ltmp660:
	movdqu	32(%rax), %xmm0
	movdqu	48(%rax), %xmm4
Ltmp661:
	.loc	4 2058 5
	movdqu	%xmm1, (%rax)
Ltmp662:
	.loc	37 65 36 is_stmt 1
	movq	%rax, -184(%rbp)
Ltmp663:
	movups	%xmm3, -160(%rbp)
	movdqu	%xmm2, -176(%rbp)
	movdqu	%xmm0, -144(%rbp)
	movdqu	%xmm4, -128(%rbp)
Ltmp664:
	.loc	7 291 13
	movq	%xmm2, %rax
Ltmp665:
	.loc	7 387 13
	cmpq	$1, %rax
	jne	LBB3_31
Ltmp666:
	.loc	37 0 0 is_stmt 0
	pshufd	$78, %xmm0, %xmm0
	movq	%xmm0, %rax
Ltmp667:
	.loc	4 2058 5 is_stmt 1
	movups	-96(%rbp), %xmm0
	movaps	%xmm0, -320(%rbp)
	movups	-80(%rbp), %xmm0
	movaps	%xmm0, -256(%rbp)
	movl	$1, %ecx
Ltmp668:
	.loc	4 2058 5 is_stmt 0
	movq	%rcx, %xmm0
	movdqu	%xmm0, -96(%rbp)
	movaps	-336(%rbp), %xmm3
	movups	%xmm3, -80(%rbp)
Ltmp669:
	.loc	4 2058 5
	movq	-64(%rbp), %rbx
Ltmp670:
	.loc	4 2058 5
	movq	%r14, -64(%rbp)
Ltmp671:
	.loc	4 2058 5
	movdqu	-168(%rbp), %xmm1
	movdqu	-152(%rbp), %xmm2
Ltmp672:
	.loc	4 2058 5
	movdqu	%xmm0, -168(%rbp)
	movups	%xmm3, -152(%rbp)
Ltmp673:
	.loc	4 2058 5
	movq	%r14, -136(%rbp)
Ltmp674:
	.loc	40 115 18 is_stmt 1
	movdqu	%xmm2, -280(%rbp)
	movdqu	%xmm1, -296(%rbp)
	movq	%rax, -264(%rbp)
Ltmp485:
	.loc	40 115 9 is_stmt 0
	movq	-264(%rbp), %rcx
	movq	%rcx, 32(%rsp)
	movq	-272(%rbp), %rcx
	movq	%rcx, 24(%rsp)
	movq	-280(%rbp), %rcx
	movq	%rcx, 16(%rsp)
	movq	-296(%rbp), %rcx
	movq	-288(%rbp), %rdx
	movq	%rdx, 8(%rsp)
	movq	%rcx, (%rsp)
	callq	*%rax
Ltmp486:
Ltmp675:
	.loc	40 0 9
	movaps	-320(%rbp), %xmm0
	.loc	35 367 35 is_stmt 1
	movups	%xmm0, -168(%rbp)
	movdqa	-256(%rbp), %xmm0
	movdqu	%xmm0, -152(%rbp)
	movq	%rbx, -136(%rbp)
Ltmp488:
	leaq	-184(%rbp), %rdi
Ltmp676:
	.loc	37 75 5
	callq	__ZN4core3ptr13drop_in_place17h98893e89b32dbdb5E
Ltmp489:
Ltmp677:
	.loc	35 369 28
	movl	-192(%rbp), %edi
Ltmp678:
Ltmp491:
	.loc	32 232 5
	callq	*%r12
Ltmp679:
Ltmp492:
	.loc	35 369 26
	movl	%eax, -200(%rbp)
Ltmp494:
Ltmp680:
	.loc	36 262 32
	callq	__ZN10proc_macro6bridge6client12BRIDGE_STATE7__getit17h555659aa883aa8b0E
Ltmp495:
Ltmp681:
	.loc	36 262 82 is_stmt 0
	testq	%rax, %rax
	je	LBB3_25
Ltmp682:
	.loc	36 0 82
	movl	$2, %ecx
Ltmp683:
	.loc	4 2058 5 is_stmt 1
	movq	%rcx, %xmm0
Ltmp684:
	.loc	4 2058 5 is_stmt 0
	movdqu	(%rax), %xmm1
	movdqu	16(%rax), %xmm2
Ltmp685:
	movdqu	32(%rax), %xmm4
	movups	48(%rax), %xmm3
Ltmp686:
	.loc	4 2058 5
	movdqu	%xmm0, (%rax)
Ltmp687:
	.loc	37 65 36 is_stmt 1
	movq	%rax, -184(%rbp)
Ltmp688:
	movdqu	%xmm2, -160(%rbp)
	movdqu	%xmm1, -176(%rbp)
	movdqa	%xmm4, -544(%rbp)
	movdqu	%xmm4, -144(%rbp)
	movups	%xmm3, -128(%rbp)
Ltmp689:
	.loc	7 291 13
	movq	%xmm1, %rax
Ltmp690:
	.loc	7 387 13
	cmpq	$1, %rax
	jne	LBB3_34
Ltmp691:
	.loc	4 2058 5
	movups	-168(%rbp), %xmm0
	movaps	%xmm0, -320(%rbp)
	movups	-152(%rbp), %xmm0
	movaps	%xmm0, -256(%rbp)
	movl	$1, %eax
Ltmp692:
	.loc	4 2058 5 is_stmt 0
	movq	%rax, %xmm0
	movdqu	%xmm0, -168(%rbp)
	movdqa	-336(%rbp), %xmm0
	movdqu	%xmm0, -152(%rbp)
Ltmp693:
	.loc	4 2058 5
	movq	%r14, -136(%rbp)
Ltmp694:
Ltmp498:
	.loc	4 0 5
	leaq	-184(%rbp), %rdi
Ltmp695:
	.loc	37 75 5 is_stmt 1
	callq	__ZN4core3ptr13drop_in_place17h98893e89b32dbdb5E
Ltmp696:
Ltmp499:
	.loc	7 387 13
	pshufd	$78, -544(%rbp), %xmm0
	movq	%xmm0, %rbx
Ltmp697:
	.loc	14 962 13
	pshufd	$78, -256(%rbp), %xmm0
	movq	%xmm0, %rax
	testq	%rax, %rax
Ltmp698:
	je	LBB3_26
Ltmp699:
LBB3_18:
	.loc	4 2058 5
	movups	-96(%rbp), %xmm0
	movdqu	-80(%rbp), %xmm1
	movl	$1, %eax
Ltmp700:
	.loc	4 2058 5 is_stmt 0
	movq	%rax, %xmm2
	movdqu	%xmm2, -96(%rbp)
	movdqa	-336(%rbp), %xmm2
	movdqu	%xmm2, -80(%rbp)
Ltmp701:
	.loc	4 2058 5
	movq	-64(%rbp), %rax
Ltmp702:
	.loc	4 2058 5
	movq	%r14, -64(%rbp)
Ltmp703:
	.loc	40 115 18 is_stmt 1
	movdqu	%xmm1, -168(%rbp)
	movups	%xmm0, -184(%rbp)
	movq	%rax, -152(%rbp)
Ltmp508:
	.loc	40 115 9 is_stmt 0
	movq	-152(%rbp), %rcx
	movq	%rcx, 32(%rsp)
	movq	-160(%rbp), %rcx
	movq	%rcx, 24(%rsp)
	movq	-168(%rbp), %rcx
	movq	%rcx, 16(%rsp)
	movq	-184(%rbp), %rcx
	movq	-176(%rbp), %rdx
	movq	%rdx, 8(%rsp)
	movq	%rcx, (%rsp)
	callq	*%rax
Ltmp509:
Ltmp704:
	.loc	40 0 9
	movaps	-320(%rbp), %xmm0
	.loc	35 372 13 is_stmt 1
	movups	%xmm0, -96(%rbp)
	movdqa	-256(%rbp), %xmm0
	movdqu	%xmm0, -80(%rbp)
	movq	%rbx, -64(%rbp)
Ltmp705:
	.loc	40 74 9
	movq	$0, -88(%rbp)
Ltmp706:
	.loc	35 384 25
	movl	-200(%rbp), %eax
Ltmp707:
	.file	41 "/rustc/a74d1862d4d87a56244958416fd05976c58ca1a8/src/libproc_macro/bridge/rpc.rs"
	.loc	41 74 23
	testl	%eax, %eax
	je	LBB3_27
Ltmp708:
	.loc	41 74 42 is_stmt 0
	movl	%eax, -208(%rbp)
Ltmp709:
	.loc	41 117 22 is_stmt 1
	movb	$0, -40(%rbp)
Ltmp710:
Ltmp511:
	.loc	41 0 22 is_stmt 0
	leaq	-296(%rbp), %rdi
	leaq	-96(%rbp), %rsi
	leaq	-40(%rbp), %rdx
	.loc	41 117 9
	movl	$1, %ecx
	callq	__ZN79_$LT$proc_macro..bridge..buffer..Buffer$LT$u8$GT$$u20$as$u20$std..io..Write$GT$9write_all17h42bcc75b504d58cdE
Ltmp711:
Ltmp512:
	.loc	14 1004 13 is_stmt 1
	cmpb	$3, -296(%rbp)
	jne	LBB3_47
Ltmp712:
	.loc	41 76 27
	movl	-208(%rbp), %eax
Ltmp713:
	.loc	41 30 30
	movl	%eax, -300(%rbp)
Ltmp714:
Ltmp522:
	.loc	41 0 30 is_stmt 0
	leaq	-296(%rbp), %rdi
	leaq	-96(%rbp), %rsi
	leaq	-300(%rbp), %rdx
	.loc	41 30 17
	movl	$4, %ecx
	callq	__ZN79_$LT$proc_macro..bridge..buffer..Buffer$LT$u8$GT$$u20$as$u20$std..io..Write$GT$9write_all17h42bcc75b504d58cdE
Ltmp715:
Ltmp523:
	.loc	14 1004 13 is_stmt 1
	cmpb	$3, -296(%rbp)
	je	LBB3_29
Ltmp716:
	.loc	14 1005 17
	movq	-296(%rbp), %rax
	movq	-288(%rbp), %rcx
	movq	%rcx, -176(%rbp)
	movq	%rax, -184(%rbp)
Ltmp524:
Ltmp717:
	.loc	14 1005 23 is_stmt 0
	leaq	l___unnamed_26(%rip), %rdi
	leaq	l___unnamed_8(%rip), %rcx
	leaq	l___unnamed_27(%rip), %r8
	leaq	-184(%rbp), %rdx
	movl	$43, %esi
	callq	__ZN4core6result13unwrap_failed17hb5a510096a5fc85fE
Ltmp525:
	jmp	LBB3_49
Ltmp718:
LBB3_25:
	.loc	14 0 23
	pxor	%xmm0, %xmm0
	movdqa	%xmm0, -256(%rbp)
Ltmp719:
	.loc	14 962 13 is_stmt 1
	pshufd	$78, -256(%rbp), %xmm0
	movq	%xmm0, %rax
	testq	%rax, %rax
Ltmp720:
	jne	LBB3_18
Ltmp721:
LBB3_26:
Ltmp541:
	.loc	14 963 23
	leaq	l___unnamed_22(%rip), %rdi
	leaq	l___unnamed_7(%rip), %rcx
	leaq	l___unnamed_23(%rip), %r8
	leaq	-184(%rbp), %rdx
	movl	$70, %esi
	callq	__ZN4core6result13unwrap_failed17hb5a510096a5fc85fE
Ltmp542:
	jmp	LBB3_49
Ltmp722:
LBB3_27:
	.loc	41 117 22
	movb	$1, -40(%rbp)
Ltmp723:
Ltmp530:
	.loc	41 0 22 is_stmt 0
	leaq	-296(%rbp), %rdi
	leaq	-96(%rbp), %rsi
	leaq	-40(%rbp), %rdx
	.loc	41 117 9
	movl	$1, %ecx
	callq	__ZN79_$LT$proc_macro..bridge..buffer..Buffer$LT$u8$GT$$u20$as$u20$std..io..Write$GT$9write_all17h42bcc75b504d58cdE
Ltmp724:
Ltmp531:
	.loc	14 1004 13 is_stmt 1
	cmpb	$3, -296(%rbp)
	jne	LBB3_48
Ltmp725:
LBB3_29:
Ltmp538:
	.loc	14 0 13 is_stmt 0
	leaq	-616(%rbp), %rdi
	.loc	37 75 5 is_stmt 1
	callq	__ZN4core3ptr13drop_in_place17h98893e89b32dbdb5E
Ltmp539:
Ltmp726:
LBB3_30:
	.loc	35 392 5
	movq	-64(%rbp), %rax
	movq	%rax, 32(%r15)
	movq	-72(%rbp), %rax
	movq	%rax, 24(%r15)
	movq	-80(%rbp), %rax
	movq	%rax, 16(%r15)
	movq	-96(%rbp), %rax
	movq	-88(%rbp), %rcx
	movq	%rcx, 8(%r15)
	movq	%rax, (%r15)
Ltmp727:
	.loc	35 402 10
	movq	%r15, %rax
	addq	$624, %rsp
	popq	%rbx
	popq	%r12
Ltmp728:
	popq	%r14
	popq	%r15
	popq	%rbp
	retq
LBB3_31:
Ltmp729:
	.loc	7 387 13
	testq	%rax, %rax
	je	LBB3_44
Ltmp730:
	cmpq	$2, %rax
	je	LBB3_43
Ltmp731:
Ltmp548:
	.loc	31 10 9
	leaq	l___unnamed_24(%rip), %rdi
	leaq	l___unnamed_25(%rip), %rdx
	movl	$43, %esi
	callq	__ZN4core9panicking5panic17h736ee47a631475c0E
Ltmp549:
	jmp	LBB3_49
Ltmp732:
LBB3_34:
	.loc	7 387 13
	testq	%rax, %rax
	je	LBB3_46
Ltmp733:
	cmpq	$2, %rax
	je	LBB3_45
Ltmp734:
Ltmp503:
	.loc	31 10 9
	leaq	l___unnamed_24(%rip), %rdi
	leaq	l___unnamed_25(%rip), %rdx
	movl	$43, %esi
	callq	__ZN4core9panicking5panic17h736ee47a631475c0E
Ltmp504:
	jmp	LBB3_49
Ltmp735:
LBB3_37:
	.loc	4 2058 5
	movdqa	-464(%rbp), %xmm0
	movdqa	-448(%rbp), %xmm1
	movl	$1, %eax
Ltmp736:
	.loc	4 2058 5 is_stmt 0
	movq	%rax, %xmm2
	movdqa	%xmm2, -464(%rbp)
	movdqa	-336(%rbp), %xmm2
	movdqa	%xmm2, -448(%rbp)
Ltmp737:
	.loc	4 2058 5
	movq	-432(%rbp), %rax
Ltmp738:
	.loc	40 115 18 is_stmt 1
	movdqu	%xmm1, -168(%rbp)
	movdqu	%xmm0, -184(%rbp)
	movq	%rax, -152(%rbp)
Ltmp568:
	.loc	40 115 9 is_stmt 0
	movq	-152(%rbp), %rcx
	movq	%rcx, 32(%rsp)
	movq	-160(%rbp), %rcx
	movq	%rcx, 24(%rsp)
	movq	-168(%rbp), %rcx
	movq	%rcx, 16(%rsp)
	movq	-184(%rbp), %rcx
	movq	-176(%rbp), %rdx
	movq	%rdx, 8(%rsp)
	movq	%rcx, (%rsp)
	callq	*%rax
Ltmp569:
Ltmp739:
Ltmp570:
	.loc	14 963 23 is_stmt 1
	leaq	l___unnamed_22(%rip), %rdi
Ltmp740:
	leaq	l___unnamed_7(%rip), %rcx
	leaq	l___unnamed_23(%rip), %r8
	leaq	-184(%rbp), %rdx
	movl	$70, %esi
	callq	__ZN4core6result13unwrap_failed17hb5a510096a5fc85fE
Ltmp741:
Ltmp571:
	.loc	14 0 23 is_stmt 0
	jmp	LBB3_49
Ltmp742:
LBB3_39:
Ltmp563:
	.loc	31 10 9 is_stmt 1
	leaq	l___unnamed_24(%rip), %rdi
	leaq	l___unnamed_25(%rip), %rdx
	movl	$43, %esi
	callq	__ZN4core9panicking5panic17h736ee47a631475c0E
Ltmp564:
	jmp	LBB3_49
Ltmp743:
LBB3_40:
Ltmp560:
	.loc	2 2919 13
	leaq	l___unnamed_28(%rip), %rdx
	movl	$4, %edi
	callq	__ZN4core5slice20slice_index_len_fail17h550a313151a85135E
Ltmp744:
Ltmp561:
	.loc	2 0 13 is_stmt 0
	jmp	LBB3_49
Ltmp745:
LBB3_41:
Ltmp558:
	.loc	31 10 9 is_stmt 1
	leaq	l___unnamed_24(%rip), %rdi
	leaq	l___unnamed_29(%rip), %rdx
	movl	$43, %esi
	callq	__ZN4core9panicking5panic17h736ee47a631475c0E
Ltmp746:
Ltmp559:
	.loc	31 0 9 is_stmt 0
	jmp	LBB3_49
Ltmp747:
LBB3_42:
Ltmp553:
	.loc	14 963 23 is_stmt 1
	leaq	l___unnamed_22(%rip), %rdi
Ltmp748:
	leaq	l___unnamed_7(%rip), %rcx
	leaq	l___unnamed_23(%rip), %r8
	leaq	-184(%rbp), %rdx
	movl	$70, %esi
	callq	__ZN4core6result13unwrap_failed17hb5a510096a5fc85fE
Ltmp749:
Ltmp554:
	.loc	14 0 23 is_stmt 0
	jmp	LBB3_49
Ltmp750:
LBB3_43:
Ltmp483:
	.file	42 "/rustc/a74d1862d4d87a56244958416fd05976c58ca1a8/src/libstd/macros.rs"
	.loc	42 13 23 is_stmt 1
	leaq	l___unnamed_30(%rip), %rdi
	leaq	l___unnamed_31(%rip), %rdx
	movl	$54, %esi
	callq	__ZN3std9panicking11begin_panic17hfce67e768e80e130E
Ltmp484:
	jmp	LBB3_49
Ltmp751:
LBB3_44:
Ltmp546:
	leaq	l___unnamed_32(%rip), %rdi
	leaq	l___unnamed_31(%rip), %rdx
	movl	$58, %esi
	callq	__ZN3std9panicking11begin_panic17hfce67e768e80e130E
Ltmp547:
	jmp	LBB3_49
Ltmp752:
LBB3_45:
Ltmp496:
	.loc	42 13 23 is_stmt 0
	leaq	l___unnamed_30(%rip), %rdi
	leaq	l___unnamed_31(%rip), %rdx
	movl	$54, %esi
	callq	__ZN3std9panicking11begin_panic17hfce67e768e80e130E
Ltmp497:
	jmp	LBB3_49
Ltmp753:
LBB3_46:
Ltmp501:
	leaq	l___unnamed_32(%rip), %rdi
	leaq	l___unnamed_31(%rip), %rdx
	movl	$58, %esi
	callq	__ZN3std9panicking11begin_panic17hfce67e768e80e130E
Ltmp502:
	jmp	LBB3_49
Ltmp754:
LBB3_47:
	.loc	14 1005 17 is_stmt 1
	movq	-296(%rbp), %rax
	movq	-288(%rbp), %rcx
	movq	%rcx, -176(%rbp)
	movq	%rax, -184(%rbp)
Ltmp513:
Ltmp755:
	.loc	14 1005 23 is_stmt 0
	leaq	l___unnamed_26(%rip), %rdi
	leaq	l___unnamed_8(%rip), %rcx
	leaq	l___unnamed_33(%rip), %r8
	leaq	-184(%rbp), %rdx
	movl	$43, %esi
	callq	__ZN4core6result13unwrap_failed17hb5a510096a5fc85fE
Ltmp514:
	jmp	LBB3_49
Ltmp756:
LBB3_48:
	.loc	14 1005 17
	movq	-296(%rbp), %rax
	movq	-288(%rbp), %rcx
	movq	%rcx, -176(%rbp)
	movq	%rax, -184(%rbp)
Ltmp532:
Ltmp757:
	.loc	14 1005 23
	leaq	l___unnamed_26(%rip), %rdi
	leaq	l___unnamed_8(%rip), %rcx
	leaq	l___unnamed_33(%rip), %r8
	leaq	-184(%rbp), %rdx
	movl	$43, %esi
	callq	__ZN4core6result13unwrap_failed17hb5a510096a5fc85fE
Ltmp533:
Ltmp758:
LBB3_49:
	.loc	14 0 23
	ud2
Ltmp759:
LBB3_50:
Ltmp534:
	movq	%rax, %r14
Ltmp760:
Ltmp535:
	leaq	-184(%rbp), %rdi
	.loc	14 1005 87
	callq	__ZN4core3ptr13drop_in_place17h76df9eeda9ee7290E
Ltmp536:
	jmp	LBB3_77
Ltmp761:
LBB3_51:
Ltmp515:
	.loc	14 0 87
	movq	%rax, %r14
Ltmp762:
Ltmp516:
	leaq	-184(%rbp), %rdi
Ltmp763:
	.loc	14 1005 87
	callq	__ZN4core3ptr13drop_in_place17h76df9eeda9ee7290E
Ltmp517:
	jmp	LBB3_61
Ltmp764:
LBB3_52:
Ltmp526:
	.loc	14 0 87
	movq	%rax, %r14
Ltmp765:
Ltmp527:
	leaq	-184(%rbp), %rdi
Ltmp766:
	.loc	14 1005 87
	callq	__ZN4core3ptr13drop_in_place17h76df9eeda9ee7290E
Ltmp528:
	jmp	LBB3_77
Ltmp767:
LBB3_53:
Ltmp562:
	.loc	14 0 87
	movq	%rax, %r14
Ltmp768:
	jmp	LBB3_77
Ltmp769:
LBB3_54:
Ltmp505:
	movq	%rax, %r14
Ltmp770:
Ltmp506:
	leaq	-184(%rbp), %rdi
Ltmp771:
	.loc	37 75 5 is_stmt 1
	callq	__ZN4core3ptr13drop_in_place17h98893e89b32dbdb5E
Ltmp507:
	jmp	LBB3_69
Ltmp772:
LBB3_55:
Ltmp550:
	.loc	37 0 5 is_stmt 0
	movq	%rax, %r14
Ltmp773:
	jmp	LBB3_73
Ltmp774:
LBB3_56:
Ltmp537:
	jmp	LBB3_59
Ltmp775:
LBB3_57:
Ltmp473:
	movq	%rax, %r14
Ltmp776:
Ltmp474:
	leaq	-528(%rbp), %rdi
	.loc	35 318 5 is_stmt 1
	callq	__ZN4core3ptr13drop_in_place17hebaa13a9a3be42adE
Ltmp475:
	jmp	LBB3_78
Ltmp777:
LBB3_58:
Ltmp529:
LBB3_59:
	.loc	35 0 5 is_stmt 0
	movq	%rax, %r14
	jmp	LBB3_77
Ltmp778:
LBB3_60:
Ltmp518:
	movq	%rax, %r14
Ltmp779:
LBB3_61:
Ltmp519:
	leaq	-208(%rbp), %rdi
Ltmp780:
	.loc	41 74 27 is_stmt 1
	callq	__ZN4core3ptr13drop_in_place17h72a137ca71939bf0E
Ltmp520:
	jmp	LBB3_77
Ltmp781:
LBB3_62:
Ltmp521:
	.loc	41 0 27 is_stmt 0
	movq	%rax, %r14
	jmp	LBB3_77
Ltmp782:
LBB3_63:
Ltmp500:
	jmp	LBB3_68
Ltmp783:
LBB3_64:
Ltmp540:
LBB3_65:
	movq	%rax, %r14
	jmp	LBB3_78
Ltmp784:
LBB3_66:
Ltmp510:
	movq	%rax, %r14
Ltmp785:
	movaps	-320(%rbp), %xmm0
	.loc	35 372 13 is_stmt 1
	movups	%xmm0, -96(%rbp)
	movdqa	-256(%rbp), %xmm0
	movdqu	%xmm0, -80(%rbp)
	movq	%rbx, -64(%rbp)
	jmp	LBB3_69
Ltmp786:
LBB3_67:
Ltmp543:
LBB3_68:
	.loc	35 0 13 is_stmt 0
	movq	%rax, %r14
Ltmp787:
LBB3_69:
Ltmp544:
	leaq	-200(%rbp), %rdi
	.loc	35 385 9 is_stmt 1
	callq	__ZN4core3ptr13drop_in_place17h72a137ca71939bf0E
Ltmp545:
	jmp	LBB3_77
Ltmp788:
LBB3_70:
Ltmp493:
	.loc	35 0 9 is_stmt 0
	movq	%rax, %r14
Ltmp789:
	jmp	LBB3_77
Ltmp790:
LBB3_71:
Ltmp490:
	jmp	LBB3_75
Ltmp791:
LBB3_72:
Ltmp487:
	movq	%rax, %r14
Ltmp792:
	movaps	-320(%rbp), %xmm0
Ltmp793:
	.loc	35 367 35 is_stmt 1
	movups	%xmm0, -168(%rbp)
	movdqa	-256(%rbp), %xmm0
	movdqu	%xmm0, -152(%rbp)
	movq	%rbx, -136(%rbp)
Ltmp794:
LBB3_73:
Ltmp551:
	.loc	35 0 35 is_stmt 0
	leaq	-184(%rbp), %rdi
	.loc	37 75 5 is_stmt 1
	callq	__ZN4core3ptr13drop_in_place17h98893e89b32dbdb5E
Ltmp552:
	jmp	LBB3_76
Ltmp795:
LBB3_74:
Ltmp555:
LBB3_75:
	.loc	37 0 5 is_stmt 0
	movq	%rax, %r14
Ltmp796:
LBB3_76:
Ltmp556:
	leaq	-192(%rbp), %rdi
	.loc	35 385 9 is_stmt 1
	callq	__ZN4core3ptr13drop_in_place17h72a137ca71939bf0E
Ltmp557:
Ltmp797:
LBB3_77:
Ltmp566:
	.loc	35 0 9 is_stmt 0
	leaq	-616(%rbp), %rdi
	.loc	37 75 5 is_stmt 1
	callq	__ZN4core3ptr13drop_in_place17h98893e89b32dbdb5E
Ltmp567:
Ltmp798:
LBB3_78:
Ltmp573:
	.file	43 "/rustc/a74d1862d4d87a56244958416fd05976c58ca1a8/src/libstd/panicking.rs"
	.loc	43 309 23
	movq	%r14, %rdi
	callq	__ZN3std9panicking3try7cleanup17hd895f7beef0a7dadE
Ltmp574:
Ltmp799:
	.loc	14 611 13
	testq	%rax, %rax
	je	LBB3_30
Ltmp800:
Ltmp575:
	.loc	14 0 13 is_stmt 0
	leaq	-240(%rbp), %rdi
Ltmp801:
	.loc	32 232 5 is_stmt 1
	movq	%rax, %rsi
	callq	__ZN155_$LT$proc_macro..bridge..rpc..PanicMessage$u20$as$u20$core..convert..From$LT$alloc..boxed..Box$LT$dyn$u20$core..any..Any$u2b$core..marker..Send$GT$$GT$$GT$4from17h2d9de517a2a3c20dE
Ltmp802:
Ltmp576:
	.loc	14 612 23
	movq	-240(%rbp), %rax
Ltmp803:
	movq	-232(%rbp), %rcx
	movq	%rcx, -392(%rbp)
	movq	-224(%rbp), %rcx
	movq	%rcx, -384(%rbp)
	movq	-216(%rbp), %rcx
	movq	%rcx, -376(%rbp)
Ltmp804:
	.loc	14 852 13
	cmpq	$3, %rax
	je	LBB3_30
Ltmp805:
	.loc	40 74 9
	movq	$0, -88(%rbp)
Ltmp806:
	.loc	41 74 42 is_stmt 0
	movq	%rax, -368(%rbp)
	movq	-392(%rbp), %rax
Ltmp807:
	movq	-384(%rbp), %rcx
	movq	%rax, -360(%rbp)
	movq	%rcx, -352(%rbp)
	movq	-376(%rbp), %rax
	movq	%rax, -344(%rbp)
Ltmp808:
	.loc	41 117 22 is_stmt 1
	movb	$1, -40(%rbp)
Ltmp809:
Ltmp578:
	.loc	41 0 22 is_stmt 0
	leaq	-56(%rbp), %rdi
	leaq	-96(%rbp), %rsi
	leaq	-40(%rbp), %rdx
	.loc	41 117 9
	movl	$1, %ecx
	callq	__ZN79_$LT$proc_macro..bridge..buffer..Buffer$LT$u8$GT$$u20$as$u20$std..io..Write$GT$9write_all17h42bcc75b504d58cdE
Ltmp579:
Ltmp810:
	.loc	14 1004 13 is_stmt 1
	cmpb	$3, -56(%rbp)
	jne	LBB3_99
Ltmp811:
	.loc	41 76 27
	movq	-344(%rbp), %rax
	movq	%rax, -216(%rbp)
	movq	-352(%rbp), %rax
	movq	%rax, -224(%rbp)
	movq	-368(%rbp), %rax
	movq	-360(%rbp), %rcx
	movq	%rcx, -232(%rbp)
	movq	%rax, -240(%rbp)
Ltmp812:
Ltmp586:
	.loc	41 0 27 is_stmt 0
	leaq	-240(%rbp), %rdi
Ltmp813:
	.loc	41 294 9 is_stmt 1
	callq	__ZN10proc_macro6bridge3rpc12PanicMessage6as_str17hfbd3411aa4601babE
Ltmp587:
Ltmp814:
	.loc	41 0 0 is_stmt 0
	movq	%rax, %rbx
Ltmp815:
	.loc	41 74 23 is_stmt 1
	testq	%rax, %rax
	je	LBB3_93
Ltmp816:
	.loc	41 0 0 is_stmt 0
	movq	%rdx, %r14
Ltmp817:
	.loc	41 117 22 is_stmt 1
	movb	$1, -40(%rbp)
Ltmp818:
Ltmp589:
	.loc	41 0 22 is_stmt 0
	leaq	-112(%rbp), %rdi
	leaq	-96(%rbp), %rsi
	leaq	-40(%rbp), %rdx
	.loc	41 117 9
	movl	$1, %ecx
	callq	__ZN79_$LT$proc_macro..bridge..buffer..Buffer$LT$u8$GT$$u20$as$u20$std..io..Write$GT$9write_all17h42bcc75b504d58cdE
Ltmp590:
Ltmp819:
	.loc	14 1004 13 is_stmt 1
	cmpb	$3, -112(%rbp)
	jne	LBB3_100
Ltmp820:
	.loc	41 30 30
	movq	%r14, -40(%rbp)
Ltmp821:
Ltmp596:
	.loc	41 0 30 is_stmt 0
	leaq	-112(%rbp), %rdi
	leaq	-96(%rbp), %rsi
	leaq	-40(%rbp), %rdx
	.loc	41 30 17
	movl	$8, %ecx
	callq	__ZN79_$LT$proc_macro..bridge..buffer..Buffer$LT$u8$GT$$u20$as$u20$std..io..Write$GT$9write_all17h42bcc75b504d58cdE
Ltmp597:
Ltmp822:
	.loc	14 1004 13 is_stmt 1
	cmpb	$3, -112(%rbp)
	jne	LBB3_101
Ltmp823:
Ltmp603:
	.loc	14 0 13 is_stmt 0
	leaq	-112(%rbp), %rdi
	leaq	-96(%rbp), %rsi
	.loc	41 212 9 is_stmt 1
	movq	%rbx, %rdx
	movq	%r14, %rcx
	callq	__ZN79_$LT$proc_macro..bridge..buffer..Buffer$LT$u8$GT$$u20$as$u20$std..io..Write$GT$9write_all17h42bcc75b504d58cdE
Ltmp604:
Ltmp824:
	.loc	14 1004 13
	cmpb	$3, -112(%rbp)
	je	LBB3_95
Ltmp825:
	.loc	14 1005 17
	movq	-112(%rbp), %rax
	movq	-104(%rbp), %rcx
	movq	%rcx, -48(%rbp)
	movq	%rax, -56(%rbp)
Ltmp605:
Ltmp826:
	.loc	14 1005 23 is_stmt 0
	leaq	l___unnamed_26(%rip), %rdi
	leaq	l___unnamed_8(%rip), %rcx
	leaq	l___unnamed_34(%rip), %r8
	leaq	-56(%rbp), %rdx
	movl	$43, %esi
	callq	__ZN4core6result13unwrap_failed17hb5a510096a5fc85fE
Ltmp606:
	jmp	LBB3_49
Ltmp827:
LBB3_93:
	.loc	41 117 22 is_stmt 1
	movb	$0, -40(%rbp)
Ltmp828:
Ltmp611:
	.loc	41 0 22 is_stmt 0
	leaq	-112(%rbp), %rdi
	leaq	-96(%rbp), %rsi
	leaq	-40(%rbp), %rdx
	.loc	41 117 9
	movl	$1, %ecx
	callq	__ZN79_$LT$proc_macro..bridge..buffer..Buffer$LT$u8$GT$$u20$as$u20$std..io..Write$GT$9write_all17h42bcc75b504d58cdE
Ltmp612:
Ltmp829:
	.loc	14 1004 13 is_stmt 1
	cmpb	$3, -112(%rbp)
	jne	LBB3_102
Ltmp830:
LBB3_95:
	.loc	5 178 1
	cmpq	$1, -240(%rbp)
	jne	LBB3_30
Ltmp831:
	.loc	5 178 1 is_stmt 0
	movq	-232(%rbp), %rdi
Ltmp832:
	.loc	19 532 16 is_stmt 1
	testq	%rdi, %rdi
Ltmp833:
	.loc	19 200 9
	je	LBB3_30
Ltmp834:
	.loc	5 0 0 is_stmt 0
	movq	-224(%rbp), %rsi
Ltmp835:
	.loc	19 200 9
	testq	%rsi, %rsi
	je	LBB3_30
Ltmp836:
	.loc	20 102 5 is_stmt 1
	movl	$1, %edx
	callq	___rust_dealloc
Ltmp837:
	.loc	20 0 5 is_stmt 0
	jmp	LBB3_30
Ltmp838:
LBB3_99:
	.loc	14 1005 17 is_stmt 1
	movq	-56(%rbp), %rax
	movq	-48(%rbp), %rcx
	movq	%rcx, -232(%rbp)
	movq	%rax, -240(%rbp)
Ltmp580:
Ltmp839:
	.loc	14 1005 23 is_stmt 0
	leaq	l___unnamed_26(%rip), %rdi
	leaq	l___unnamed_8(%rip), %rcx
	leaq	l___unnamed_33(%rip), %r8
	leaq	-240(%rbp), %rdx
	movl	$43, %esi
	callq	__ZN4core6result13unwrap_failed17hb5a510096a5fc85fE
Ltmp581:
	jmp	LBB3_49
Ltmp840:
LBB3_100:
	.loc	14 1005 17
	movq	-112(%rbp), %rax
	movq	-104(%rbp), %rcx
	movq	%rcx, -48(%rbp)
	movq	%rax, -56(%rbp)
Ltmp591:
Ltmp841:
	.loc	14 1005 23
	leaq	l___unnamed_26(%rip), %rdi
	leaq	l___unnamed_8(%rip), %rcx
	leaq	l___unnamed_33(%rip), %r8
	leaq	-56(%rbp), %rdx
	movl	$43, %esi
	callq	__ZN4core6result13unwrap_failed17hb5a510096a5fc85fE
Ltmp592:
	jmp	LBB3_49
Ltmp842:
LBB3_101:
	.loc	14 1005 17
	movq	-112(%rbp), %rax
	movq	-104(%rbp), %rcx
	movq	%rcx, -48(%rbp)
	movq	%rax, -56(%rbp)
Ltmp598:
Ltmp843:
	.loc	14 1005 23
	leaq	l___unnamed_26(%rip), %rdi
	leaq	l___unnamed_8(%rip), %rcx
	leaq	l___unnamed_27(%rip), %r8
	leaq	-56(%rbp), %rdx
	movl	$43, %esi
	callq	__ZN4core6result13unwrap_failed17hb5a510096a5fc85fE
Ltmp599:
	jmp	LBB3_49
Ltmp844:
LBB3_102:
	.loc	14 1005 17
	movq	-112(%rbp), %rax
	movq	-104(%rbp), %rcx
	movq	%rcx, -48(%rbp)
	movq	%rax, -56(%rbp)
Ltmp613:
Ltmp845:
	.loc	14 1005 23
	leaq	l___unnamed_26(%rip), %rdi
	leaq	l___unnamed_8(%rip), %rcx
	leaq	l___unnamed_33(%rip), %r8
	leaq	-56(%rbp), %rdx
	movl	$43, %esi
	callq	__ZN4core6result13unwrap_failed17hb5a510096a5fc85fE
Ltmp614:
	jmp	LBB3_49
Ltmp846:
LBB3_103:
Ltmp615:
	.loc	14 0 23
	movq	%rax, %rbx
Ltmp847:
Ltmp616:
	leaq	-56(%rbp), %rdi
	.loc	14 1005 87
	callq	__ZN4core3ptr13drop_in_place17h76df9eeda9ee7290E
Ltmp617:
	jmp	LBB3_115
Ltmp848:
LBB3_104:
Ltmp600:
	.loc	14 0 87
	movq	%rax, %rbx
Ltmp849:
Ltmp601:
	leaq	-56(%rbp), %rdi
Ltmp850:
	.loc	14 1005 87
	callq	__ZN4core3ptr13drop_in_place17h76df9eeda9ee7290E
Ltmp602:
	jmp	LBB3_115
Ltmp851:
LBB3_105:
Ltmp593:
	.loc	14 0 87
	movq	%rax, %rbx
Ltmp852:
Ltmp594:
	leaq	-56(%rbp), %rdi
Ltmp853:
	.loc	14 1005 87
	callq	__ZN4core3ptr13drop_in_place17h76df9eeda9ee7290E
Ltmp595:
	jmp	LBB3_115
Ltmp854:
LBB3_106:
Ltmp582:
	.loc	14 0 87
	movq	%rax, %rbx
Ltmp855:
Ltmp583:
	leaq	-240(%rbp), %rdi
Ltmp856:
	.loc	14 1005 87
	callq	__ZN4core3ptr13drop_in_place17h76df9eeda9ee7290E
Ltmp584:
	jmp	LBB3_111
Ltmp857:
LBB3_107:
Ltmp607:
	.loc	14 0 87
	movq	%rax, %rbx
Ltmp858:
Ltmp608:
	leaq	-56(%rbp), %rdi
Ltmp859:
	.loc	14 1005 87
	callq	__ZN4core3ptr13drop_in_place17h76df9eeda9ee7290E
Ltmp609:
	jmp	LBB3_115
Ltmp860:
LBB3_108:
Ltmp618:
	.loc	14 0 87
	jmp	LBB3_114
Ltmp861:
LBB3_109:
Ltmp588:
	jmp	LBB3_114
Ltmp862:
LBB3_110:
Ltmp585:
	movq	%rax, %rbx
Ltmp863:
LBB3_111:
	leaq	-368(%rbp), %rdi
	jmp	LBB3_116
Ltmp864:
LBB3_112:
Ltmp565:
	jmp	LBB3_59
Ltmp865:
LBB3_113:
Ltmp610:
LBB3_114:
	movq	%rax, %rbx
Ltmp866:
LBB3_115:
	leaq	-240(%rbp), %rdi
Ltmp867:
LBB3_116:
	callq	__ZN4core3ptr13drop_in_place17h0d2802463aa73dabE
	jmp	LBB3_118
Ltmp868:
LBB3_117:
Ltmp577:
	movq	%rax, %rbx
Ltmp869:
LBB3_118:
	leaq	-96(%rbp), %rdi
	.loc	35 393 1 is_stmt 1
	callq	__ZN4core3ptr13drop_in_place17h831a5ac7ee7a895fE
	movq	%rbx, %rdi
	callq	__Unwind_Resume
	ud2
Ltmp870:
LBB3_119:
Ltmp478:
	.loc	35 0 1 is_stmt 0
	movq	%rax, %r14
Ltmp871:
Ltmp479:
	leaq	-464(%rbp), %rdi
Ltmp872:
	.loc	36 265 5 is_stmt 1
	callq	__ZN4core3ptr13drop_in_place17h9f5cf95c490aa8a7E
Ltmp480:
	jmp	LBB3_78
Ltmp873:
LBB3_120:
Ltmp572:
	.loc	36 0 5 is_stmt 0
	jmp	LBB3_65
Lfunc_end3:
	.cfi_endproc
	.file	44 "/rustc/a74d1862d4d87a56244958416fd05976c58ca1a8/src/libstd/panic.rs"
	.section	__TEXT,__gcc_except_tab
	.p2align	2
GCC_except_table3:
Lexception2:
	.byte	255
	.byte	155
	.uleb128 Lttbase0-Lttbaseref0
Lttbaseref0:
	.byte	1
	.uleb128 Lcst_end2-Lcst_begin2
Lcst_begin2:
	.uleb128 Ltmp471-Lfunc_begin3
	.uleb128 Ltmp472-Ltmp471
	.uleb128 Ltmp473-Lfunc_begin3
	.byte	3
	.uleb128 Ltmp476-Lfunc_begin3
	.uleb128 Ltmp477-Ltmp476
	.uleb128 Ltmp478-Lfunc_begin3
	.byte	3
	.uleb128 Ltmp481-Lfunc_begin3
	.uleb128 Ltmp482-Ltmp481
	.uleb128 Ltmp555-Lfunc_begin3
	.byte	3
	.uleb128 Ltmp485-Lfunc_begin3
	.uleb128 Ltmp486-Ltmp485
	.uleb128 Ltmp487-Lfunc_begin3
	.byte	3
	.uleb128 Ltmp488-Lfunc_begin3
	.uleb128 Ltmp489-Ltmp488
	.uleb128 Ltmp490-Lfunc_begin3
	.byte	3
	.uleb128 Ltmp491-Lfunc_begin3
	.uleb128 Ltmp492-Ltmp491
	.uleb128 Ltmp493-Lfunc_begin3
	.byte	3
	.uleb128 Ltmp494-Lfunc_begin3
	.uleb128 Ltmp495-Ltmp494
	.uleb128 Ltmp543-Lfunc_begin3
	.byte	3
	.uleb128 Ltmp498-Lfunc_begin3
	.uleb128 Ltmp499-Ltmp498
	.uleb128 Ltmp500-Lfunc_begin3
	.byte	3
	.uleb128 Ltmp508-Lfunc_begin3
	.uleb128 Ltmp509-Ltmp508
	.uleb128 Ltmp510-Lfunc_begin3
	.byte	3
	.uleb128 Ltmp511-Lfunc_begin3
	.uleb128 Ltmp512-Ltmp511
	.uleb128 Ltmp518-Lfunc_begin3
	.byte	3
	.uleb128 Ltmp522-Lfunc_begin3
	.uleb128 Ltmp523-Ltmp522
	.uleb128 Ltmp529-Lfunc_begin3
	.byte	3
	.uleb128 Ltmp524-Lfunc_begin3
	.uleb128 Ltmp525-Ltmp524
	.uleb128 Ltmp526-Lfunc_begin3
	.byte	3
	.uleb128 Ltmp541-Lfunc_begin3
	.uleb128 Ltmp542-Ltmp541
	.uleb128 Ltmp543-Lfunc_begin3
	.byte	3
	.uleb128 Ltmp530-Lfunc_begin3
	.uleb128 Ltmp531-Ltmp530
	.uleb128 Ltmp537-Lfunc_begin3
	.byte	3
	.uleb128 Ltmp538-Lfunc_begin3
	.uleb128 Ltmp539-Ltmp538
	.uleb128 Ltmp540-Lfunc_begin3
	.byte	3
	.uleb128 Ltmp548-Lfunc_begin3
	.uleb128 Ltmp549-Ltmp548
	.uleb128 Ltmp550-Lfunc_begin3
	.byte	3
	.uleb128 Ltmp503-Lfunc_begin3
	.uleb128 Ltmp504-Ltmp503
	.uleb128 Ltmp505-Lfunc_begin3
	.byte	3
	.uleb128 Ltmp568-Lfunc_begin3
	.uleb128 Ltmp571-Ltmp568
	.uleb128 Ltmp572-Lfunc_begin3
	.byte	3
	.uleb128 Ltmp563-Lfunc_begin3
	.uleb128 Ltmp564-Ltmp563
	.uleb128 Ltmp565-Lfunc_begin3
	.byte	3
	.uleb128 Ltmp560-Lfunc_begin3
	.uleb128 Ltmp559-Ltmp560
	.uleb128 Ltmp562-Lfunc_begin3
	.byte	3
	.uleb128 Ltmp553-Lfunc_begin3
	.uleb128 Ltmp554-Ltmp553
	.uleb128 Ltmp555-Lfunc_begin3
	.byte	3
	.uleb128 Ltmp483-Lfunc_begin3
	.uleb128 Ltmp547-Ltmp483
	.uleb128 Ltmp550-Lfunc_begin3
	.byte	3
	.uleb128 Ltmp496-Lfunc_begin3
	.uleb128 Ltmp502-Ltmp496
	.uleb128 Ltmp505-Lfunc_begin3
	.byte	3
	.uleb128 Ltmp513-Lfunc_begin3
	.uleb128 Ltmp514-Ltmp513
	.uleb128 Ltmp515-Lfunc_begin3
	.byte	3
	.uleb128 Ltmp532-Lfunc_begin3
	.uleb128 Ltmp533-Ltmp532
	.uleb128 Ltmp534-Lfunc_begin3
	.byte	3
	.uleb128 Ltmp535-Lfunc_begin3
	.uleb128 Ltmp536-Ltmp535
	.uleb128 Ltmp537-Lfunc_begin3
	.byte	3
	.uleb128 Ltmp516-Lfunc_begin3
	.uleb128 Ltmp517-Ltmp516
	.uleb128 Ltmp518-Lfunc_begin3
	.byte	3
	.uleb128 Ltmp527-Lfunc_begin3
	.uleb128 Ltmp528-Ltmp527
	.uleb128 Ltmp529-Lfunc_begin3
	.byte	3
	.uleb128 Ltmp506-Lfunc_begin3
	.uleb128 Ltmp507-Ltmp506
	.uleb128 Ltmp543-Lfunc_begin3
	.byte	3
	.uleb128 Ltmp474-Lfunc_begin3
	.uleb128 Ltmp475-Ltmp474
	.uleb128 Ltmp572-Lfunc_begin3
	.byte	3
	.uleb128 Ltmp519-Lfunc_begin3
	.uleb128 Ltmp520-Ltmp519
	.uleb128 Ltmp521-Lfunc_begin3
	.byte	3
	.uleb128 Ltmp544-Lfunc_begin3
	.uleb128 Ltmp545-Ltmp544
	.uleb128 Ltmp565-Lfunc_begin3
	.byte	3
	.uleb128 Ltmp551-Lfunc_begin3
	.uleb128 Ltmp552-Ltmp551
	.uleb128 Ltmp555-Lfunc_begin3
	.byte	3
	.uleb128 Ltmp556-Lfunc_begin3
	.uleb128 Ltmp557-Ltmp556
	.uleb128 Ltmp565-Lfunc_begin3
	.byte	3
	.uleb128 Ltmp566-Lfunc_begin3
	.uleb128 Ltmp567-Ltmp566
	.uleb128 Ltmp572-Lfunc_begin3
	.byte	3
	.uleb128 Ltmp573-Lfunc_begin3
	.uleb128 Ltmp576-Ltmp573
	.uleb128 Ltmp577-Lfunc_begin3
	.byte	0
	.uleb128 Ltmp578-Lfunc_begin3
	.uleb128 Ltmp579-Ltmp578
	.uleb128 Ltmp585-Lfunc_begin3
	.byte	0
	.uleb128 Ltmp586-Lfunc_begin3
	.uleb128 Ltmp587-Ltmp586
	.uleb128 Ltmp588-Lfunc_begin3
	.byte	0
	.uleb128 Ltmp589-Lfunc_begin3
	.uleb128 Ltmp604-Ltmp589
	.uleb128 Ltmp610-Lfunc_begin3
	.byte	0
	.uleb128 Ltmp605-Lfunc_begin3
	.uleb128 Ltmp606-Ltmp605
	.uleb128 Ltmp607-Lfunc_begin3
	.byte	0
	.uleb128 Ltmp611-Lfunc_begin3
	.uleb128 Ltmp612-Ltmp611
	.uleb128 Ltmp618-Lfunc_begin3
	.byte	0
	.uleb128 Ltmp580-Lfunc_begin3
	.uleb128 Ltmp581-Ltmp580
	.uleb128 Ltmp582-Lfunc_begin3
	.byte	0
	.uleb128 Ltmp591-Lfunc_begin3
	.uleb128 Ltmp592-Ltmp591
	.uleb128 Ltmp593-Lfunc_begin3
	.byte	0
	.uleb128 Ltmp598-Lfunc_begin3
	.uleb128 Ltmp599-Ltmp598
	.uleb128 Ltmp600-Lfunc_begin3
	.byte	0
	.uleb128 Ltmp613-Lfunc_begin3
	.uleb128 Ltmp614-Ltmp613
	.uleb128 Ltmp615-Lfunc_begin3
	.byte	0
	.uleb128 Ltmp616-Lfunc_begin3
	.uleb128 Ltmp617-Ltmp616
	.uleb128 Ltmp618-Lfunc_begin3
	.byte	0
	.uleb128 Ltmp601-Lfunc_begin3
	.uleb128 Ltmp595-Ltmp601
	.uleb128 Ltmp610-Lfunc_begin3
	.byte	0
	.uleb128 Ltmp583-Lfunc_begin3
	.uleb128 Ltmp584-Ltmp583
	.uleb128 Ltmp585-Lfunc_begin3
	.byte	0
	.uleb128 Ltmp608-Lfunc_begin3
	.uleb128 Ltmp609-Ltmp608
	.uleb128 Ltmp610-Lfunc_begin3
	.byte	0
	.uleb128 Ltmp609-Lfunc_begin3
	.uleb128 Ltmp479-Ltmp609
	.byte	0
	.byte	0
	.uleb128 Ltmp479-Lfunc_begin3
	.uleb128 Ltmp480-Ltmp479
	.uleb128 Ltmp572-Lfunc_begin3
	.byte	3
Lcst_end2:
	.byte	0
	.byte	0
	.byte	1
	.byte	125
	.p2align	2
	.long	0
Lttbase0:
	.p2align	2

	.section	__TEXT,__text,regular,pure_instructions
	.p2align	4, 0x90
__ZN111_$LT$syn..punctuated..PrivateIter$LT$T$C$P$GT$$u20$as$u20$core..iter..traits..exact_size..ExactSizeIterator$GT$3len17h281363420e2a58cdE:
Lfunc_begin4:
	.loc	1 695 0 is_stmt 1
	.cfi_startproc
	pushq	%rbp
	.cfi_def_cfa_offset 16
	.cfi_offset %rbp, -16
	movq	%rsp, %rbp
	.cfi_def_cfa_register %rbp
Ltmp874:
	.loc	2 0 0 prologue_end
	movq	8(%rdi), %rax
	.loc	2 3199 33
	subq	(%rdi), %rax
Ltmp875:
	.loc	2 0 33 is_stmt 0
	movabsq	$-8608480567731124087, %rcx
Ltmp876:
	.loc	2 3205 22 is_stmt 1
	mulq	%rcx
Ltmp877:
	movq	%rdx, %rax
	shrq	$6, %rax
Ltmp878:
	.loc	1 696 9
	cmpq	$1, 16(%rdi)
	sbbq	$-1, %rax
	.loc	1 697 6
	popq	%rbp
	retq
Ltmp879:
Lfunc_end4:
	.cfi_endproc

	.p2align	4, 0x90
__ZN115_$LT$proc_macro..bridge..buffer..Buffer$LT$T$GT$$u20$as$u20$core..convert..From$LT$alloc..vec..Vec$LT$T$GT$$GT$$GT$4from17extend_from_slice17h81bd4d7333c655b2E:
Lfunc_begin5:
	.loc	40 134 0
	.cfi_startproc
	.cfi_personality 155, _rust_eh_personality
	.cfi_lsda 16, Lexception3
	pushq	%rbp
	.cfi_def_cfa_offset 16
	.cfi_offset %rbp, -16
	movq	%rsp, %rbp
	.cfi_def_cfa_register %rbp
	pushq	%r15
	pushq	%r14
	pushq	%r13
	pushq	%r12
	pushq	%rbx
	subq	$24, %rsp
	.cfi_offset %rbx, -56
	.cfi_offset %r12, -48
	.cfi_offset %r13, -40
	.cfi_offset %r14, -32
	.cfi_offset %r15, -24
	movq	%rdx, %r14
	movq	%rsi, %rcx
	movq	%rdi, %rbx
Ltmp883:
	.loc	40 135 32 prologue_end
	movq	16(%rbp), %r13
Ltmp884:
	movq	24(%rbp), %r12
Ltmp885:
	movq	32(%rbp), %rsi
Ltmp886:
	.loc	18 463 9
	movq	%r13, -64(%rbp)
	movq	%rsi, -56(%rbp)
	movq	%r12, -48(%rbp)
Ltmp887:
	.file	45 "/rustc/a74d1862d4d87a56244958416fd05976c58ca1a8/src/libcore/num/mod.rs"
	.loc	45 3343 17
	movq	%rsi, %rax
	subq	%r12, %rax
Ltmp888:
	.loc	19 378 9
	cmpq	%rdx, %rax
Ltmp889:
	.loc	19 280 9
	jae	LBB5_1
Ltmp890:
	.loc	45 3632 30
	movq	%r12, %r15
	addq	%r14, %r15
Ltmp891:
	.loc	7 540 13
	jb	LBB5_14
Ltmp892:
	.loc	19 414 26
	leaq	(%rsi,%rsi), %rax
Ltmp893:
	.loc	23 1017 9
	cmpq	%r15, %rax
	.loc	23 0 0 is_stmt 0
	cmovaq	%rax, %r15
Ltmp894:
	.loc	19 200 40 is_stmt 1
	testq	%rsi, %rsi
	.loc	19 200 9 is_stmt 0
	je	LBB5_8
Ltmp895:
	.loc	19 489 25 is_stmt 1
	testq	%r13, %r13
	je	LBB5_8
Ltmp896:
	.loc	20 205 12
	cmpq	%r15, %rsi
	.loc	20 205 9 is_stmt 0
	je	LBB5_12
Ltmp897:
	.loc	20 124 5 is_stmt 1
	movl	$1, %edx
	movq	%r13, %rdi
	movq	%rcx, %r13
Ltmp898:
	movq	%r15, %rcx
Ltmp899:
	callq	___rust_realloc
Ltmp900:
	.loc	20 0 5 is_stmt 0
	jmp	LBB5_11
Ltmp901:
LBB5_1:
	.loc	40 137 26 is_stmt 1
	movq	%rsi, %r15
	jmp	LBB5_2
Ltmp902:
LBB5_8:
	.loc	20 170 16
	testq	%r15, %r15
	.loc	20 170 13 is_stmt 0
	je	LBB5_9
Ltmp903:
	.loc	20 80 5 is_stmt 1
	movl	$1, %esi
	movq	%r15, %rdi
	movq	%rcx, %r13
Ltmp904:
	callq	___rust_alloc
Ltmp905:
LBB5_11:
	.loc	20 0 5 is_stmt 0
	movq	%r13, %rcx
	movq	%rax, %r13
Ltmp906:
LBB5_12:
	.loc	14 611 13 is_stmt 1
	testq	%r13, %r13
	jne	LBB5_13
Ltmp907:
	.loc	19 269 47
	movl	$1, %esi
	movq	%r15, %rdi
	callq	__ZN5alloc5alloc18handle_alloc_error17hbc0ab0ed90816c07E
Ltmp908:
LBB5_9:
	.loc	19 0 47 is_stmt 0
	movl	$1, %r13d
Ltmp909:
LBB5_13:
	.loc	19 387 9 is_stmt 1
	movq	%r13, -64(%rbp)
	.loc	19 388 9
	movq	%r15, -56(%rbp)
Ltmp910:
LBB5_2:
	.file	46 "/rustc/a74d1862d4d87a56244958416fd05976c58ca1a8/src/libcore/ptr/mut_ptr.rs"
	.loc	46 152 9
	movq	%r13, %rdi
	addq	%r12, %rdi
Ltmp911:
	.loc	4 2058 5
	movq	%rcx, %rsi
	movq	%r14, %rdx
	callq	_memcpy
Ltmp912:
	.loc	18 2179 26
	addq	%r14, %r12
Ltmp913:
	.loc	40 144 9
	movq	%r13, (%rbx)
	movq	%r12, 8(%rbx)
	movq	%r15, 16(%rbx)
	leaq	__ZN115_$LT$proc_macro..bridge..buffer..Buffer$LT$T$GT$$u20$as$u20$core..convert..From$LT$alloc..vec..Vec$LT$T$GT$$GT$$GT$4from17extend_from_slice17h81bd4d7333c655b2E(%rip), %rax
	movq	%rax, 24(%rbx)
	leaq	__ZN115_$LT$proc_macro..bridge..buffer..Buffer$LT$T$GT$$u20$as$u20$core..convert..From$LT$alloc..vec..Vec$LT$T$GT$$GT$$GT$4from4drop17hc3f172e1ef9c40afE(%rip), %rax
	movq	%rax, 32(%rbx)
Ltmp914:
	.loc	40 138 10
	movq	%rbx, %rax
	addq	$24, %rsp
	popq	%rbx
	popq	%r12
Ltmp915:
	popq	%r13
Ltmp916:
	popq	%r14
	popq	%r15
Ltmp917:
	popq	%rbp
	retq
Ltmp918:
LBB5_14:
Ltmp880:
	.loc	19 268 38
	callq	__ZN5alloc7raw_vec17capacity_overflow17h023f34f5bc34c61fE
Ltmp919:
Ltmp881:
	ud2
Ltmp920:
LBB5_17:
Ltmp882:
	.loc	19 0 38 is_stmt 0
	movq	%rax, %rbx
	leaq	-64(%rbp), %rdi
	.loc	40 138 9 is_stmt 1
	callq	__ZN4core3ptr13drop_in_place17hf2a75a2434d85f9cE
	movq	%rbx, %rdi
	callq	__Unwind_Resume
	ud2
Ltmp921:
Lfunc_end5:
	.cfi_endproc
	.section	__TEXT,__gcc_except_tab
	.p2align	2
GCC_except_table5:
Lexception3:
	.byte	255
	.byte	255
	.byte	1
	.uleb128 Lcst_end3-Lcst_begin3
Lcst_begin3:
	.uleb128 Lfunc_begin5-Lfunc_begin5
	.uleb128 Ltmp880-Lfunc_begin5
	.byte	0
	.byte	0
	.uleb128 Ltmp880-Lfunc_begin5
	.uleb128 Ltmp881-Ltmp880
	.uleb128 Ltmp882-Lfunc_begin5
	.byte	0
	.uleb128 Ltmp881-Lfunc_begin5
	.uleb128 Lfunc_end5-Ltmp881
	.byte	0
	.byte	0
Lcst_end3:
	.p2align	2

	.section	__TEXT,__text,regular,pure_instructions
	.p2align	4, 0x90
__ZN115_$LT$proc_macro..bridge..buffer..Buffer$LT$T$GT$$u20$as$u20$core..convert..From$LT$alloc..vec..Vec$LT$T$GT$$GT$$GT$4from4drop17hc3f172e1ef9c40afE:
Lfunc_begin6:
	.loc	40 140 0
	.cfi_startproc
	pushq	%rbp
	.cfi_def_cfa_offset 16
	.cfi_offset %rbp, -16
	movq	%rsp, %rbp
	.cfi_def_cfa_register %rbp
Ltmp922:
	.loc	40 141 30 prologue_end
	movq	16(%rbp), %rdi
Ltmp923:
	.loc	19 532 16
	testq	%rdi, %rdi
Ltmp924:
	.loc	19 200 9
	je	LBB6_2
Ltmp925:
	.loc	40 0 0 is_stmt 0
	movq	32(%rbp), %rsi
Ltmp926:
	.loc	19 200 9
	testq	%rsi, %rsi
	je	LBB6_2
Ltmp927:
	.loc	20 102 5 is_stmt 1
	movl	$1, %edx
	popq	%rbp
	jmp	___rust_dealloc
Ltmp928:
LBB6_2:
	.loc	40 142 10
	popq	%rbp
	retq
Ltmp929:
Lfunc_end6:
	.cfi_endproc

	.p2align	4, 0x90
__ZN115_$LT$syn..punctuated..PrivateIter$LT$T$C$P$GT$$u20$as$u20$core..iter..traits..double_ended..DoubleEndedIterator$GT$9next_back17h3207de9a275afbb1E:
Lfunc_begin7:
	.loc	1 687 0
	.cfi_startproc
	pushq	%rbp
	.cfi_def_cfa_offset 16
	.cfi_offset %rbp, -16
	movq	%rsp, %rbp
	.cfi_def_cfa_register %rbp
Ltmp930:
	.loc	4 2058 5 prologue_end
	movq	16(%rdi), %rax
Ltmp931:
	.loc	4 2058 5 is_stmt 0
	movq	$0, 16(%rdi)
Ltmp932:
	.loc	7 767 13 is_stmt 1
	testq	%rax, %rax
	je	LBB7_1
Ltmp933:
	.loc	1 691 6
	popq	%rbp
	retq
Ltmp934:
LBB7_1:
	.loc	2 3397 33
	movq	8(%rdi), %rax
Ltmp935:
	.loc	2 3179 9
	cmpq	%rax, (%rdi)
	.loc	2 3399 21
	je	LBB7_2
Ltmp936:
	.loc	21 158 9
	addq	$-120, %rax
Ltmp937:
	.loc	2 3272 21
	movq	%rax, 8(%rdi)
Ltmp938:
	.loc	1 691 6
	popq	%rbp
	retq
Ltmp939:
LBB7_2:
	.loc	1 0 6 is_stmt 0
	xorl	%eax, %eax
	.loc	1 691 6
	popq	%rbp
	retq
Ltmp940:
Lfunc_end7:
	.cfi_endproc

	.p2align	4, 0x90
__ZN12synstructure9Structure12unbound_impl17hc91dc58ca15f0df0E:
Lfunc_begin8:
	.file	47 "/Users/yingyuhang/.cargo/registry/src/github.com-1ecc6299db9ec823/synstructure-0.12.4/src/lib.rs"
	.loc	47 1853 0 is_stmt 1
	.cfi_startproc
	.cfi_personality 155, _rust_eh_personality
	.cfi_lsda 16, Lexception4
	pushq	%rbp
	.cfi_def_cfa_offset 16
	.cfi_offset %rbp, -16
	movq	%rsp, %rbp
	.cfi_def_cfa_register %rbp
	pushq	%r15
	pushq	%r14
	pushq	%rbx
	subq	$120, %rsp
	.cfi_offset %rbx, -40
	.cfi_offset %r14, -32
	.cfi_offset %r15, -24
	movq	%rcx, %rbx
Ltmp953:
	movq	%rsi, %r14
Ltmp954:
	movq	%rdi, %r15
Ltmp955:
	.loc	47 1855 13 prologue_end
	movq	32(%rdx), %rax
	movq	%rax, -32(%rbp)
	movq	24(%rdx), %rax
	movq	%rax, -40(%rbp)
	movq	16(%rdx), %rax
	movq	%rax, -48(%rbp)
	movq	(%rdx), %rax
	movq	8(%rdx), %rcx
	movq	%rcx, -56(%rbp)
	movq	%rax, -64(%rbp)
Ltmp941:
	leaq	-104(%rbp), %rdi
	leaq	-64(%rbp), %rsi
	callq	__ZN71_$LT$proc_macro2..TokenStream$u20$as$u20$quote..to_tokens..ToTokens$GT$17into_token_stream17h76465aa703522d93E
Ltmp956:
Ltmp942:
	.loc	47 1856 13
	movq	32(%rbx), %rax
	movq	%rax, -32(%rbp)
	movq	24(%rbx), %rax
	movq	%rax, -40(%rbp)
	movq	16(%rbx), %rax
	movq	%rax, -48(%rbp)
	movq	(%rbx), %rax
	movq	8(%rbx), %rcx
	movq	%rcx, -56(%rbp)
	movq	%rax, -64(%rbp)
Ltmp944:
	leaq	-144(%rbp), %rdi
	leaq	-64(%rbp), %rsi
	callq	__ZN71_$LT$proc_macro2..TokenStream$u20$as$u20$quote..to_tokens..ToTokens$GT$17into_token_stream17h76465aa703522d93E
Ltmp945:
Ltmp957:
Ltmp947:
	.loc	47 0 13 is_stmt 0
	leaq	-64(%rbp), %rdi
	.file	48 "/Users/yingyuhang/.cargo/registry/src/github.com-1ecc6299db9ec823/quote-1.0.7/src/lib.rs"
	.loc	48 475 9 is_stmt 1
	callq	__ZN11proc_macro211TokenStream3new17h747898098334175aE
Ltmp948:
Ltmp958:
Ltmp950:
	.loc	48 0 9 is_stmt 0
	leaq	-104(%rbp), %rdx
	leaq	-144(%rbp), %rcx
	leaq	-64(%rbp), %r8
	.loc	47 1854 9 is_stmt 1
	movq	%r15, %rdi
	movq	%r14, %rsi
	movl	$3, %r9d
	callq	__ZN12synstructure9Structure13impl_internal17hb06e6a5369429be4E
Ltmp951:
Ltmp959:
	.loc	47 1860 6
	addq	$120, %rsp
	popq	%rbx
Ltmp960:
	popq	%r14
Ltmp961:
	popq	%r15
	popq	%rbp
	retq
LBB8_5:
Ltmp962:
Ltmp952:
	.loc	47 0 6 is_stmt 0
	movq	%rax, %r14
Ltmp963:
	movq	%r14, %rdi
	callq	__Unwind_Resume
	ud2
Ltmp964:
LBB8_6:
Ltmp949:
	movq	%rax, %r14
Ltmp965:
	leaq	-144(%rbp), %rdi
	.loc	47 1859 9 is_stmt 1
	callq	__ZN4core3ptr13drop_in_place17hd09c695a35000682E
	jmp	LBB8_8
Ltmp966:
LBB8_7:
Ltmp946:
	.loc	47 0 9 is_stmt 0
	movq	%rax, %r14
Ltmp967:
LBB8_8:
	leaq	-104(%rbp), %rdi
	callq	__ZN4core3ptr13drop_in_place17hd09c695a35000682E
	movq	%r14, %rdi
	callq	__Unwind_Resume
	ud2
Ltmp968:
LBB8_9:
Ltmp943:
	movq	%rax, %r14
Ltmp969:
	.loc	47 1860 5 is_stmt 1
	movq	%rbx, %rdi
	.loc	47 0 0 is_stmt 0
	callq	__ZN4core3ptr13drop_in_place17hd09c695a35000682E
	movq	%r14, %rdi
	callq	__Unwind_Resume
	ud2
Ltmp970:
Lfunc_end8:
	.cfi_endproc
	.section	__TEXT,__gcc_except_tab
	.p2align	2
GCC_except_table8:
Lexception4:
	.byte	255
	.byte	255
	.byte	1
	.uleb128 Lcst_end4-Lcst_begin4
Lcst_begin4:
	.uleb128 Ltmp941-Lfunc_begin8
	.uleb128 Ltmp942-Ltmp941
	.uleb128 Ltmp943-Lfunc_begin8
	.byte	0
	.uleb128 Ltmp944-Lfunc_begin8
	.uleb128 Ltmp945-Ltmp944
	.uleb128 Ltmp946-Lfunc_begin8
	.byte	0
	.uleb128 Ltmp947-Lfunc_begin8
	.uleb128 Ltmp948-Ltmp947
	.uleb128 Ltmp949-Lfunc_begin8
	.byte	0
	.uleb128 Ltmp950-Lfunc_begin8
	.uleb128 Ltmp951-Ltmp950
	.uleb128 Ltmp952-Lfunc_begin8
	.byte	0
	.uleb128 Ltmp951-Lfunc_begin8
	.uleb128 Lfunc_end8-Ltmp951
	.byte	0
	.byte	0
Lcst_end4:
	.p2align	2

	.section	__TEXT,__text,regular,pure_instructions
	.p2align	4, 0x90
__ZN36_$LT$T$u20$as$u20$core..any..Any$GT$7type_id17h108d9f6be346f797E:
Lfunc_begin9:
	.file	49 "/rustc/a74d1862d4d87a56244958416fd05976c58ca1a8/src/libcore/any.rs"
	.loc	49 109 0 is_stmt 1
	.cfi_startproc
	pushq	%rbp
	.cfi_def_cfa_offset 16
	.cfi_offset %rbp, -16
	movq	%rsp, %rbp
	.cfi_def_cfa_register %rbp
	movabsq	$1229646359891580772, %rax
Ltmp971:
	.loc	49 111 6 prologue_end
	popq	%rbp
	retq
Ltmp972:
Lfunc_end9:
	.cfi_endproc

	.p2align	4, 0x90
__ZN3std4sync4once4Once9call_once28_$u7b$$u7b$closure$u7d$$u7d$17h93a60645744de886E:
Lfunc_begin10:
	.loc	39 264 0
	.cfi_startproc
	pushq	%rbp
	.cfi_def_cfa_offset 16
	.cfi_offset %rbp, -16
	movq	%rsp, %rbp
	.cfi_def_cfa_register %rbp
Ltmp973:
	pushq	%r14
	pushq	%rbx
	.cfi_offset %rbx, -32
	.cfi_offset %r14, -24
Ltmp974:
	.loc	39 264 41 prologue_end
	movq	(%rdi), %rax
Ltmp975:
	.loc	7 387 13
	testb	$1, (%rax)
Ltmp976:
	.loc	4 2058 5
	movb	$0, (%rax)
Ltmp977:
	.loc	7 387 13
	je	LBB10_3
Ltmp978:
	.loc	35 305 24
	callq	__ZN3std9panicking9take_hook17h3c66d9c9a5634a1fE
Ltmp979:
	movq	%rax, %rbx
Ltmp980:
	movq	%rdx, %r14
Ltmp981:
	.loc	20 80 5
	movl	$16, %edi
	movl	$8, %esi
	callq	___rust_alloc
Ltmp982:
	.loc	20 269 9
	testq	%rax, %rax
	je	LBB10_4
Ltmp983:
	.loc	10 174 13
	movq	%rbx, (%rax)
	movq	%r14, 8(%rax)
Ltmp984:
	.loc	35 306 13
	leaq	l___unnamed_1(%rip), %rsi
	movq	%rax, %rdi
	popq	%rbx
Ltmp985:
	popq	%r14
Ltmp986:
	popq	%rbp
	jmp	__ZN3std9panicking8set_hook17h7bfb3434b29c8ec3E
Ltmp987:
LBB10_3:
	.loc	31 10 9
	leaq	l___unnamed_24(%rip), %rdi
Ltmp988:
	leaq	l___unnamed_35(%rip), %rdx
	movl	$43, %esi
Ltmp989:
	callq	__ZN4core9panicking5panic17h736ee47a631475c0E
Ltmp990:
LBB10_4:
	.loc	20 270 19
	movl	$16, %edi
	movl	$8, %esi
	callq	__ZN5alloc5alloc18handle_alloc_error17hbc0ab0ed90816c07E
Ltmp991:
Lfunc_end10:
	.cfi_endproc

	.p2align	4, 0x90
__ZN3std9panicking11begin_panic17hfce67e768e80e130E:
Lfunc_begin11:
	.loc	43 399 0
	.cfi_startproc
	pushq	%rbp
	.cfi_def_cfa_offset 16
	.cfi_offset %rbp, -16
	movq	%rsp, %rbp
	.cfi_def_cfa_register %rbp
	subq	$16, %rsp
Ltmp992:
	.loc	43 404 31 prologue_end
	movq	%rdi, -16(%rbp)
	movq	%rsi, -8(%rbp)
	.loc	43 404 61 is_stmt 0
	movq	%rdx, %rdi
Ltmp993:
	callq	__ZN4core5panic8Location6caller17hf55c9a52d6249cfcE
Ltmp994:
	.loc	43 404 5
	leaq	l___unnamed_3(%rip), %rsi
	leaq	-16(%rbp), %rdi
	xorl	%edx, %edx
	movq	%rax, %rcx
	callq	__ZN3std9panicking20rust_panic_with_hook17hf8b9378dd2e7986aE
Ltmp995:
Lfunc_end11:
	.cfi_endproc

	.p2align	4, 0x90
__ZN42_$LT$$RF$T$u20$as$u20$core..fmt..Debug$GT$3fmt17he0ca36130837a14bE:
Lfunc_begin12:
	.loc	17 1973 0 is_stmt 1
	.cfi_startproc
	pushq	%rbp
	.cfi_def_cfa_offset 16
	.cfi_offset %rbp, -16
	movq	%rsp, %rbp
	.cfi_def_cfa_register %rbp
Ltmp996:
	.loc	17 1973 71 prologue_end
	movq	(%rdi), %rdi
Ltmp997:
	.loc	17 1973 62 is_stmt 0
	popq	%rbp
	jmp	__ZN52_$LT$syn..path..Path$u20$as$u20$core..fmt..Debug$GT$3fmt17h70a8287d2b62f2a8E
Ltmp998:
Lfunc_end12:
	.cfi_endproc

	.p2align	4, 0x90
__ZN44_$LT$$RF$T$u20$as$u20$core..fmt..Display$GT$3fmt17h4c051158c1c2a62bE:
Lfunc_begin13:
	.loc	17 1973 0 is_stmt 1
	.cfi_startproc
	pushq	%rbp
	.cfi_def_cfa_offset 16
	.cfi_offset %rbp, -16
	movq	%rsp, %rbp
	.cfi_def_cfa_register %rbp
Ltmp999:
	.loc	17 1973 71 prologue_end
	movq	(%rdi), %rdi
Ltmp1000:
	.loc	17 1973 62 is_stmt 0
	popq	%rbp
	jmp	__ZN63_$LT$core..num..ParseIntError$u20$as$u20$core..fmt..Display$GT$3fmt17heb1569ad65640c9bE
Ltmp1001:
Lfunc_end13:
	.cfi_endproc

	.p2align	4, 0x90
__ZN44_$LT$$RF$T$u20$as$u20$core..fmt..Display$GT$3fmt17h79f45c06953bd7bfE:
Lfunc_begin14:
	.loc	17 1973 0 is_stmt 1
	.cfi_startproc
	pushq	%rbp
	.cfi_def_cfa_offset 16
	.cfi_offset %rbp, -16
	movq	%rsp, %rbp
	.cfi_def_cfa_register %rbp
	movq	%rsi, %rdx
Ltmp1002:
	.loc	17 1973 71 prologue_end
	movq	(%rdi), %rax
	movq	8(%rdi), %rsi
	.loc	17 1973 62 is_stmt 0
	movq	%rax, %rdi
Ltmp1003:
	popq	%rbp
	jmp	__ZN42_$LT$str$u20$as$u20$core..fmt..Display$GT$3fmt17hd4dee1c1c4ccf892E
Ltmp1004:
Lfunc_end14:
	.cfi_endproc

	.p2align	4, 0x90
__ZN44_$LT$$RF$T$u20$as$u20$core..fmt..Display$GT$3fmt17ha4b7e6099c051b0aE:
Lfunc_begin15:
	.loc	17 1973 0 is_stmt 1
	.cfi_startproc
	pushq	%rbp
	.cfi_def_cfa_offset 16
	.cfi_offset %rbp, -16
	movq	%rsp, %rbp
	.cfi_def_cfa_register %rbp
	movq	%rsi, %rdx
Ltmp1005:
	.loc	17 1973 71 prologue_end
	movq	(%rdi), %rax
Ltmp1006:
	.loc	17 1973 71 is_stmt 0
	movq	(%rax), %rdi
Ltmp1007:
	movq	8(%rax), %rsi
	.loc	17 1973 62
	popq	%rbp
	jmp	__ZN42_$LT$str$u20$as$u20$core..fmt..Display$GT$3fmt17hd4dee1c1c4ccf892E
Ltmp1008:
Lfunc_end15:
	.cfi_endproc

	.p2align	4, 0x90
__ZN44_$LT$$RF$T$u20$as$u20$core..fmt..Display$GT$3fmt17he5e051c6be0be3c2E:
Lfunc_begin16:
	.loc	17 1973 0 is_stmt 1
	.cfi_startproc
	pushq	%rbp
	.cfi_def_cfa_offset 16
	.cfi_offset %rbp, -16
	movq	%rsp, %rbp
	.cfi_def_cfa_register %rbp
Ltmp1009:
	.loc	17 1973 71 prologue_end
	movq	(%rdi), %rdi
Ltmp1010:
	.loc	17 1973 62 is_stmt 0
	popq	%rbp
	jmp	__ZN57_$LT$proc_macro2..Ident$u20$as$u20$core..fmt..Display$GT$3fmt17h5126cf470200c32cE
Ltmp1011:
Lfunc_end16:
	.cfi_endproc

	.p2align	4, 0x90
__ZN4core3ops8function6FnOnce40call_once$u7b$$u7b$vtable.shim$u7d$$u7d$17h25c3ef0010ec0dddE:
Lfunc_begin17:
	.loc	32 232 0 is_stmt 1
	.cfi_startproc
	pushq	%rbp
	.cfi_def_cfa_offset 16
	.cfi_offset %rbp, -16
	movq	%rsp, %rbp
	.cfi_def_cfa_register %rbp
Ltmp1012:
	pushq	%r14
	pushq	%rbx
	.cfi_offset %rbx, -32
	.cfi_offset %r14, -24
	.loc	32 232 5 prologue_end
	movq	(%rdi), %rax
Ltmp1013:
	.loc	7 387 13
	testb	$1, (%rax)
Ltmp1014:
	.loc	4 2058 5
	movb	$0, (%rax)
Ltmp1015:
	.loc	7 387 13
	je	LBB17_3
Ltmp1016:
	.loc	35 305 24
	callq	__ZN3std9panicking9take_hook17h3c66d9c9a5634a1fE
Ltmp1017:
	movq	%rax, %rbx
Ltmp1018:
	movq	%rdx, %r14
Ltmp1019:
	.loc	20 80 5
	movl	$16, %edi
	movl	$8, %esi
	callq	___rust_alloc
Ltmp1020:
	.loc	20 269 9
	testq	%rax, %rax
	je	LBB17_4
Ltmp1021:
	.loc	10 174 13
	movq	%rbx, (%rax)
	movq	%r14, 8(%rax)
Ltmp1022:
	.loc	35 306 13
	leaq	l___unnamed_1(%rip), %rsi
	movq	%rax, %rdi
	popq	%rbx
Ltmp1023:
	popq	%r14
Ltmp1024:
	popq	%rbp
	jmp	__ZN3std9panicking8set_hook17h7bfb3434b29c8ec3E
Ltmp1025:
LBB17_3:
	.loc	31 10 9
	leaq	l___unnamed_24(%rip), %rdi
Ltmp1026:
	leaq	l___unnamed_35(%rip), %rdx
	movl	$43, %esi
Ltmp1027:
	callq	__ZN4core9panicking5panic17h736ee47a631475c0E
Ltmp1028:
LBB17_4:
	.loc	20 270 19
	movl	$16, %edi
	movl	$8, %esi
	callq	__ZN5alloc5alloc18handle_alloc_error17hbc0ab0ed90816c07E
Ltmp1029:
Lfunc_end17:
	.cfi_endproc

	.p2align	4, 0x90
__ZN4core3ops8function6FnOnce40call_once$u7b$$u7b$vtable.shim$u7d$$u7d$17ha3e2e58e3c43c07eE:
Lfunc_begin18:
	.loc	32 232 0
	.cfi_startproc
	.cfi_personality 155, _rust_eh_personality
	.cfi_lsda 16, Lexception5
	pushq	%rbp
	.cfi_def_cfa_offset 16
	.cfi_offset %rbp, -16
	movq	%rsp, %rbp
	.cfi_def_cfa_register %rbp
Ltmp1036:
	pushq	%r15
	pushq	%r14
	pushq	%rbx
	subq	$24, %rsp
	.cfi_offset %rbx, -40
	.cfi_offset %r14, -32
	.cfi_offset %r15, -24
	.loc	32 232 5 prologue_end
	movq	(%rdi), %r14
Ltmp1037:
	movq	8(%rdi), %rbx
	movq	%r14, -40(%rbp)
	movq	%rbx, -32(%rbp)
Ltmp1038:
Ltmp1030:
	.loc	32 0 5 is_stmt 0
	leaq	-40(%rbp), %rdi
Ltmp1039:
	.loc	32 232 5
	callq	__ZN10proc_macro6bridge6client44_$LT$impl$u20$proc_macro..bridge..Bridge$GT$5enter28_$u7b$$u7b$closure$u7d$$u7d$28_$u7b$$u7b$closure$u7d$$u7d$17hce65dc466dd4061eE
Ltmp1040:
Ltmp1031:
Ltmp1033:
	.loc	5 178 1 is_stmt 1
	movq	%r14, %rdi
	callq	*(%rbx)
Ltmp1034:
Ltmp1041:
	.loc	20 282 16
	movq	8(%rbx), %rsi
Ltmp1042:
	.loc	20 185 12
	testq	%rsi, %rsi
	.loc	20 185 9 is_stmt 0
	je	LBB18_4
Ltmp1043:
	.loc	20 283 17 is_stmt 1
	movq	16(%rbx), %rdx
Ltmp1044:
	.loc	20 102 5
	movq	%r14, %rdi
	callq	___rust_dealloc
Ltmp1045:
LBB18_4:
	.loc	32 232 5
	addq	$24, %rsp
	popq	%rbx
	popq	%r14
	popq	%r15
	popq	%rbp
	retq
LBB18_5:
Ltmp1046:
Ltmp1035:
	.loc	32 0 5 is_stmt 0
	movq	%rax, %r15
Ltmp1047:
	.loc	5 178 1 is_stmt 1
	movq	%r14, %rdi
	movq	%rbx, %rsi
	callq	__ZN5alloc5alloc8box_free17h1f40f78e9e9d7775E
	movq	%r15, %rdi
	callq	__Unwind_Resume
	ud2
Ltmp1048:
LBB18_7:
Ltmp1032:
	.loc	5 0 1 is_stmt 0
	movq	%rax, %r15
	leaq	-40(%rbp), %rdi
	.loc	32 232 5 is_stmt 1
	callq	__ZN4core3ptr13drop_in_place17h01290dac6b018568E
	movq	%r15, %rdi
	callq	__Unwind_Resume
	ud2
Ltmp1049:
Lfunc_end18:
	.cfi_endproc
	.section	__TEXT,__gcc_except_tab
	.p2align	2
GCC_except_table18:
Lexception5:
	.byte	255
	.byte	255
	.byte	1
	.uleb128 Lcst_end5-Lcst_begin5
Lcst_begin5:
	.uleb128 Ltmp1030-Lfunc_begin18
	.uleb128 Ltmp1031-Ltmp1030
	.uleb128 Ltmp1032-Lfunc_begin18
	.byte	0
	.uleb128 Ltmp1033-Lfunc_begin18
	.uleb128 Ltmp1034-Ltmp1033
	.uleb128 Ltmp1035-Lfunc_begin18
	.byte	0
	.uleb128 Ltmp1034-Lfunc_begin18
	.uleb128 Lfunc_end18-Ltmp1034
	.byte	0
	.byte	0
Lcst_end5:
	.p2align	2

	.section	__TEXT,__text,regular,pure_instructions
	.p2align	4, 0x90
__ZN4core3ptr13drop_in_place17h01290dac6b018568E:
Lfunc_begin19:
	.loc	5 178 0
	.cfi_startproc
	.cfi_personality 155, _rust_eh_personality
	.cfi_lsda 16, Lexception6
	pushq	%rbp
	.cfi_def_cfa_offset 16
	.cfi_offset %rbp, -16
	movq	%rsp, %rbp
	.cfi_def_cfa_register %rbp
	pushq	%r14
	pushq	%rbx
	.cfi_offset %rbx, -32
	.cfi_offset %r14, -24
	movq	%rdi, %rbx
Ltmp1053:
	.loc	5 178 1 prologue_end
	movq	(%rdi), %rdi
	movq	8(%rbx), %rax
Ltmp1050:
	callq	*(%rax)
Ltmp1051:
Ltmp1054:
	movq	8(%rbx), %rax
Ltmp1055:
	.loc	20 282 16
	movq	8(%rax), %rsi
Ltmp1056:
	.loc	20 185 12
	testq	%rsi, %rsi
	.loc	20 185 9 is_stmt 0
	je	LBB19_4
Ltmp1057:
	.loc	5 178 1 is_stmt 1
	movq	(%rbx), %rdi
Ltmp1058:
	.loc	20 283 17
	movq	16(%rax), %rdx
Ltmp1059:
	.loc	20 102 5
	popq	%rbx
Ltmp1060:
	popq	%r14
	popq	%rbp
	jmp	___rust_dealloc
Ltmp1061:
LBB19_4:
	.loc	5 178 1
	popq	%rbx
Ltmp1062:
	popq	%r14
	popq	%rbp
	retq
LBB19_3:
Ltmp1063:
Ltmp1052:
	.loc	5 0 1 is_stmt 0
	movq	%rax, %r14
Ltmp1064:
	.loc	5 178 1
	movq	(%rbx), %rdi
	movq	8(%rbx), %rsi
	callq	__ZN5alloc5alloc8box_free17h1f40f78e9e9d7775E
	movq	%r14, %rdi
	callq	__Unwind_Resume
	ud2
Ltmp1065:
Lfunc_end19:
	.cfi_endproc
	.section	__TEXT,__gcc_except_tab
	.p2align	2
GCC_except_table19:
Lexception6:
	.byte	255
	.byte	255
	.byte	1
	.uleb128 Lcst_end6-Lcst_begin6
Lcst_begin6:
	.uleb128 Ltmp1050-Lfunc_begin19
	.uleb128 Ltmp1051-Ltmp1050
	.uleb128 Ltmp1052-Lfunc_begin19
	.byte	0
	.uleb128 Ltmp1051-Lfunc_begin19
	.uleb128 Lfunc_end19-Ltmp1051
	.byte	0
	.byte	0
Lcst_end6:
	.p2align	2

	.section	__TEXT,__text,regular,pure_instructions
	.p2align	4, 0x90
__ZN4core3ptr13drop_in_place17h03282fba4624b210E:
Lfunc_begin20:
	.loc	5 178 0 is_stmt 1
	.cfi_startproc
	pushq	%rbp
	.cfi_def_cfa_offset 16
	.cfi_offset %rbp, -16
	movq	%rsp, %rbp
	.cfi_def_cfa_register %rbp
Ltmp1066:
	.loc	5 178 1 prologue_end
	popq	%rbp
	jmp	__ZN4core3ptr13drop_in_place17h77634634be9e535eE
Ltmp1067:
Lfunc_end20:
	.cfi_endproc

	.p2align	4, 0x90
__ZN4core3ptr13drop_in_place17h03cd8ca5bdf107c2E:
Lfunc_begin21:
	.loc	5 178 0
	.cfi_startproc
	.cfi_personality 155, _rust_eh_personality
	.cfi_lsda 16, Lexception7
	pushq	%rbp
	.cfi_def_cfa_offset 16
	.cfi_offset %rbp, -16
	movq	%rsp, %rbp
	.cfi_def_cfa_register %rbp
Ltmp1077:
	pushq	%r15
	pushq	%r14
	pushq	%r12
	pushq	%rbx
	.cfi_offset %rbx, -48
	.cfi_offset %r12, -40
	.cfi_offset %r14, -32
	.cfi_offset %r15, -24
	.loc	5 178 1 prologue_end
	movq	(%rdi), %rbx
	testq	%rbx, %rbx
	je	LBB21_18
Ltmp1078:
	.loc	5 0 1 is_stmt 0
	movq	%rdi, %r15
Ltmp1079:
	.loc	5 178 1
	imulq	$392, 16(%rdi), %r12
Ltmp1080:
	.p2align	4, 0x90
LBB21_6:
	testq	%r12, %r12
	je	LBB21_7
Ltmp1081:
	.loc	5 178 1
	addq	$-392, %r12
Ltmp1068:
	movq	%rbx, %rdi
Ltmp1082:
	.loc	5 178 1
	addq	$392, %rbx
Ltmp1083:
	.loc	5 178 1
	callq	__ZN4core3ptr13drop_in_place17hb500da5abc30c158E
Ltmp1069:
	jmp	LBB21_6
Ltmp1084:
LBB21_7:
	.loc	5 178 1
	movq	8(%r15), %rax
Ltmp1085:
	.loc	19 200 40 is_stmt 1
	testq	%rax, %rax
	.loc	19 200 9 is_stmt 0
	je	LBB21_11
Ltmp1086:
	.loc	5 0 0
	movq	(%r15), %rdi
Ltmp1087:
	.loc	19 532 16 is_stmt 1
	testq	%rdi, %rdi
Ltmp1088:
	je	LBB21_11
Ltmp1089:
	.loc	19 0 0 is_stmt 0
	imulq	$392, %rax, %rsi
Ltmp1090:
	.loc	19 532 16
	testq	%rsi, %rsi
	je	LBB21_11
Ltmp1091:
	.loc	20 102 5 is_stmt 1
	movl	$8, %edx
	callq	___rust_dealloc
Ltmp1092:
LBB21_11:
	.loc	5 178 1
	movq	24(%r15), %rdi
	testq	%rdi, %rdi
	je	LBB21_18
Ltmp1093:
Ltmp1074:
	.loc	5 178 1 is_stmt 0
	callq	__ZN4core3ptr13drop_in_place17hb500da5abc30c158E
Ltmp1075:
Ltmp1094:
	movq	24(%r15), %rdi
Ltmp1095:
	.loc	20 102 5 is_stmt 1
	movl	$384, %esi
	movl	$8, %edx
	popq	%rbx
	popq	%r12
	popq	%r14
	popq	%r15
Ltmp1096:
	popq	%rbp
	jmp	___rust_dealloc
Ltmp1097:
LBB21_18:
	.loc	5 178 1
	popq	%rbx
	popq	%r12
	popq	%r14
	popq	%r15
	popq	%rbp
	retq
LBB21_16:
Ltmp1098:
Ltmp1076:
	.loc	5 0 1 is_stmt 0
	movq	%rax, %r14
Ltmp1099:
	.loc	5 178 1
	movq	24(%r15), %rdi
	callq	__ZN5alloc5alloc8box_free17hbee5418459fd2d09E
	movq	%r14, %rdi
	callq	__Unwind_Resume
	ud2
Ltmp1100:
LBB21_2:
Ltmp1070:
	.loc	5 0 1
	movq	%rax, %r14
Ltmp1101:
	.loc	5 178 1
	testq	%r12, %r12
	je	LBB21_15
Ltmp1102:
	.p2align	4, 0x90
LBB21_3:
Ltmp1071:
	movq	%rbx, %rdi
	callq	__ZN4core3ptr13drop_in_place17h5ad098770b869da8E
Ltmp1072:
Ltmp1103:
	addq	$392, %rbx
	addq	$-392, %r12
	jne	LBB21_3
	jmp	LBB21_15
Ltmp1104:
LBB21_14:
Ltmp1073:
	.loc	5 0 1
	movq	%rax, %r14
Ltmp1105:
LBB21_15:
	.loc	5 178 1
	movq	(%r15), %rdi
	movq	8(%r15), %rsi
	callq	__ZN4core3ptr13drop_in_place17h6ab9b023a551dfa3E
Ltmp1106:
	.loc	5 178 1
	addq	$24, %r15
Ltmp1107:
	movq	%r15, %rdi
	callq	__ZN4core3ptr13drop_in_place17h5b7de17cc5c26832E
	movq	%r14, %rdi
	callq	__Unwind_Resume
	ud2
Ltmp1108:
Lfunc_end21:
	.cfi_endproc
	.section	__TEXT,__gcc_except_tab
	.p2align	2
GCC_except_table21:
Lexception7:
	.byte	255
	.byte	255
	.byte	1
	.uleb128 Lcst_end7-Lcst_begin7
Lcst_begin7:
	.uleb128 Ltmp1068-Lfunc_begin21
	.uleb128 Ltmp1069-Ltmp1068
	.uleb128 Ltmp1070-Lfunc_begin21
	.byte	0
	.uleb128 Ltmp1074-Lfunc_begin21
	.uleb128 Ltmp1075-Ltmp1074
	.uleb128 Ltmp1076-Lfunc_begin21
	.byte	0
	.uleb128 Ltmp1075-Lfunc_begin21
	.uleb128 Ltmp1071-Ltmp1075
	.byte	0
	.byte	0
	.uleb128 Ltmp1071-Lfunc_begin21
	.uleb128 Ltmp1072-Ltmp1071
	.uleb128 Ltmp1073-Lfunc_begin21
	.byte	0
	.uleb128 Ltmp1072-Lfunc_begin21
	.uleb128 Lfunc_end21-Ltmp1072
	.byte	0
	.byte	0
Lcst_end7:
	.p2align	2

	.section	__TEXT,__text,regular,pure_instructions
	.p2align	4, 0x90
__ZN4core3ptr13drop_in_place17h052be63e218904f2E:
Lfunc_begin22:
	.loc	5 178 0 is_stmt 1
	.cfi_startproc
	pushq	%rbp
	.cfi_def_cfa_offset 16
	.cfi_offset %rbp, -16
	movq	%rsp, %rbp
	.cfi_def_cfa_register %rbp
Ltmp1109:
	.loc	5 178 1 prologue_end
	cmpl	$0, (%rdi)
	je	LBB22_3
Ltmp1110:
	.loc	5 0 1 is_stmt 0
	movq	%rdi, %rax
Ltmp1111:
	.loc	5 178 1
	movq	8(%rdi), %rdi
Ltmp1112:
	.loc	19 532 16 is_stmt 1
	testq	%rdi, %rdi
Ltmp1113:
	.loc	19 200 9
	je	LBB22_3
Ltmp1114:
	.loc	5 0 0 is_stmt 0
	movq	16(%rax), %rsi
Ltmp1115:
	.loc	19 200 9
	testq	%rsi, %rsi
	je	LBB22_3
Ltmp1116:
	.loc	20 102 5 is_stmt 1
	movl	$1, %edx
	popq	%rbp
	jmp	___rust_dealloc
Ltmp1117:
LBB22_3:
	.loc	5 178 1
	popq	%rbp
	retq
Ltmp1118:
Lfunc_end22:
	.cfi_endproc

	.p2align	4, 0x90
__ZN4core3ptr13drop_in_place17h05bcc5f8af6a20c2E:
Lfunc_begin23:
	.loc	5 178 0
	.cfi_startproc
	pushq	%rbp
	.cfi_def_cfa_offset 16
	.cfi_offset %rbp, -16
	movq	%rsp, %rbp
	.cfi_def_cfa_register %rbp
Ltmp1119:
	.loc	19 200 40 prologue_end
	testq	%rsi, %rsi
	.loc	19 200 9 is_stmt 0
	je	LBB23_3
Ltmp1120:
	.loc	19 532 16 is_stmt 1
	testq	%rdi, %rdi
Ltmp1121:
	je	LBB23_3
Ltmp1122:
	.loc	19 0 0 is_stmt 0
	imulq	$120, %rsi, %rsi
Ltmp1123:
	.loc	19 532 16
	testq	%rsi, %rsi
	je	LBB23_3
Ltmp1124:
	.loc	20 102 5 is_stmt 1
	movl	$8, %edx
	popq	%rbp
	jmp	___rust_dealloc
Ltmp1125:
LBB23_3:
	.loc	5 178 1
	popq	%rbp
	retq
Ltmp1126:
Lfunc_end23:
	.cfi_endproc

	.p2align	4, 0x90
__ZN4core3ptr13drop_in_place17h091330b95209d5cfE:
Lfunc_begin24:
	.loc	5 178 0
	.cfi_startproc
	.cfi_personality 155, _rust_eh_personality
	.cfi_lsda 16, Lexception8
	pushq	%rbp
	.cfi_def_cfa_offset 16
	.cfi_offset %rbp, -16
	movq	%rsp, %rbp
	.cfi_def_cfa_register %rbp
Ltmp1139:
	pushq	%r15
	pushq	%r14
	pushq	%r13
	pushq	%r12
	pushq	%rbx
	subq	$24, %rsp
	.cfi_offset %rbx, -56
	.cfi_offset %r12, -48
	.cfi_offset %r13, -40
	.cfi_offset %r14, -32
	.cfi_offset %r15, -24
	.loc	18 850 19 prologue_end
	movq	(%rdi), %r12
Ltmp1140:
	.loc	18 0 19 is_stmt 0
	movq	%rdi, -48(%rbp)
Ltmp1141:
	.loc	5 178 1 is_stmt 1
	imulq	$104, 16(%rdi), %rax
	addq	$-104, %rax
	xorl	%r14d, %r14d
	movq	%r12, %rbx
Ltmp1142:
	.p2align	4, 0x90
LBB24_1:
	cmpq	$-104, %rax
	je	LBB24_2
Ltmp1143:
	.loc	5 0 0 is_stmt 0
	movq	%rax, %r13
	movq	%r14, %r15
Ltmp1127:
Ltmp1144:
	.loc	5 178 1
	movq	%rbx, %rdi
	callq	__ZN4core3ptr13drop_in_place17h77634634be9e535eE
Ltmp1128:
Ltmp1145:
	.loc	5 0 0
	leaq	104(%rbx), %rax
	movq	%rax, -64(%rbp)
Ltmp1146:
	.loc	5 178 1
	addq	$48, %rbx
Ltmp1147:
	leaq	-104(%r13), %rax
	movq	%rax, -56(%rbp)
	leaq	-104(%r15), %r14
Ltmp1133:
	movq	%rbx, %rdi
	callq	__ZN4core3ptr13drop_in_place17hd09c695a35000682E
	movq	-56(%rbp), %rax
Ltmp1134:
	movq	-64(%rbp), %rbx
	jmp	LBB24_1
Ltmp1148:
LBB24_2:
	.loc	5 0 1
	movq	-48(%rbp), %rbx
	.loc	5 178 1
	movq	8(%rbx), %rax
Ltmp1149:
	.loc	19 200 40 is_stmt 1
	testq	%rax, %rax
	.loc	19 200 9 is_stmt 0
	je	LBB24_6
Ltmp1150:
	.loc	5 0 0
	movq	(%rbx), %rdi
Ltmp1151:
	.loc	19 532 16 is_stmt 1
	testq	%rdi, %rdi
Ltmp1152:
	je	LBB24_6
Ltmp1153:
	.loc	19 0 0 is_stmt 0
	imulq	$104, %rax, %rsi
Ltmp1154:
	.loc	19 532 16
	testq	%rsi, %rsi
	je	LBB24_6
Ltmp1155:
	.loc	20 102 5 is_stmt 1
	movl	$8, %edx
	callq	___rust_dealloc
Ltmp1156:
LBB24_6:
	.loc	5 178 1
	cmpl	$0, 24(%rbx)
	je	LBB24_10
Ltmp1157:
	.loc	5 178 1 is_stmt 0
	movq	32(%rbx), %rdi
Ltmp1158:
	.loc	19 532 16 is_stmt 1
	testq	%rdi, %rdi
Ltmp1159:
	.loc	19 200 9
	je	LBB24_10
Ltmp1160:
	.loc	5 0 0 is_stmt 0
	movq	40(%rbx), %rsi
Ltmp1161:
	.loc	19 200 9
	testq	%rsi, %rsi
	je	LBB24_10
Ltmp1162:
	.loc	20 102 5 is_stmt 1
	movl	$1, %edx
	callq	___rust_dealloc
Ltmp1163:
LBB24_10:
	.loc	5 178 1
	addq	$72, %rbx
	movq	%rbx, %rdi
	addq	$24, %rsp
	popq	%rbx
	popq	%r12
	popq	%r13
	popq	%r14
	popq	%r15
	popq	%rbp
	jmp	__ZN4core3ptr13drop_in_place17hd2661c7a6b945c6cE
Ltmp1164:
LBB24_15:
Ltmp1129:
	.loc	5 0 1 is_stmt 0
	movq	%rax, %r14
Ltmp1165:
	.loc	5 178 1
	movq	%r12, %rdi
	movq	%r15, %rbx
Ltmp1166:
	subq	%r15, %rdi
	addq	$48, %rdi
Ltmp1130:
	callq	__ZN4core3ptr13drop_in_place17hd09c695a35000682E
Ltmp1131:
	jmp	LBB24_19
Ltmp1167:
LBB24_17:
Ltmp1132:
	.loc	5 0 1
	jmp	LBB24_18
Ltmp1168:
LBB24_16:
Ltmp1135:
	movq	%r15, %rbx
Ltmp1169:
LBB24_18:
	movq	%rax, %r14
Ltmp1170:
LBB24_19:
	subq	%rbx, %r12
Ltmp1171:
	addq	$104, %r12
Ltmp1172:
	.p2align	4, 0x90
LBB24_12:
	.loc	5 178 1
	testq	%r13, %r13
	je	LBB24_21
Ltmp1173:
	addq	$-104, %r13
Ltmp1136:
	movq	%r12, %rdi
	addq	$104, %r12
	callq	__ZN4core3ptr13drop_in_place17hb49a5771186422a4E
Ltmp1137:
	jmp	LBB24_12
Ltmp1174:
LBB24_20:
Ltmp1138:
	.loc	5 0 1
	movq	%rax, %r14
Ltmp1175:
LBB24_21:
	movq	-48(%rbp), %rbx
	.loc	5 178 1
	movq	(%rbx), %rdi
	movq	8(%rbx), %rsi
	callq	__ZN4core3ptr13drop_in_place17hb9506100aebe7450E
Ltmp1176:
	.loc	5 178 1
	leaq	24(%rbx), %rdi
	callq	__ZN4core3ptr13drop_in_place17h052be63e218904f2E
	addq	$72, %rbx
	movq	%rbx, %rdi
	callq	__ZN4core3ptr13drop_in_place17hd2661c7a6b945c6cE
	movq	%r14, %rdi
	callq	__Unwind_Resume
	ud2
Ltmp1177:
Lfunc_end24:
	.cfi_endproc
	.section	__TEXT,__gcc_except_tab
	.p2align	2
GCC_except_table24:
Lexception8:
	.byte	255
	.byte	255
	.byte	1
	.uleb128 Lcst_end8-Lcst_begin8
Lcst_begin8:
	.uleb128 Ltmp1127-Lfunc_begin24
	.uleb128 Ltmp1128-Ltmp1127
	.uleb128 Ltmp1129-Lfunc_begin24
	.byte	0
	.uleb128 Ltmp1133-Lfunc_begin24
	.uleb128 Ltmp1134-Ltmp1133
	.uleb128 Ltmp1135-Lfunc_begin24
	.byte	0
	.uleb128 Ltmp1130-Lfunc_begin24
	.uleb128 Ltmp1131-Ltmp1130
	.uleb128 Ltmp1132-Lfunc_begin24
	.byte	0
	.uleb128 Ltmp1136-Lfunc_begin24
	.uleb128 Ltmp1137-Ltmp1136
	.uleb128 Ltmp1138-Lfunc_begin24
	.byte	0
	.uleb128 Ltmp1137-Lfunc_begin24
	.uleb128 Lfunc_end24-Ltmp1137
	.byte	0
	.byte	0
Lcst_end8:
	.p2align	2

	.section	__TEXT,__text,regular,pure_instructions
	.p2align	4, 0x90
__ZN4core3ptr13drop_in_place17h09342959faef922eE:
Lfunc_begin25:
	.loc	5 178 0 is_stmt 1
	.cfi_startproc
	pushq	%rbp
	.cfi_def_cfa_offset 16
	.cfi_offset %rbp, -16
	movq	%rsp, %rbp
	.cfi_def_cfa_register %rbp
Ltmp1178:
	.loc	19 200 40 prologue_end
	testq	%rsi, %rsi
	.loc	19 200 9 is_stmt 0
	je	LBB25_3
Ltmp1179:
	.loc	19 532 16 is_stmt 1
	testq	%rdi, %rdi
Ltmp1180:
	je	LBB25_3
Ltmp1181:
	.loc	19 0 0 is_stmt 0
	imulq	$296, %rsi, %rsi
Ltmp1182:
	.loc	19 532 16
	testq	%rsi, %rsi
	je	LBB25_3
Ltmp1183:
	.loc	20 102 5 is_stmt 1
	movl	$8, %edx
	popq	%rbp
	jmp	___rust_dealloc
Ltmp1184:
LBB25_3:
	.loc	5 178 1
	popq	%rbp
	retq
Ltmp1185:
Lfunc_end25:
	.cfi_endproc

	.p2align	4, 0x90
__ZN4core3ptr13drop_in_place17h0a63f0c66563fb82E:
Lfunc_begin26:
	.loc	5 178 0
	.cfi_startproc
	.cfi_personality 155, _rust_eh_personality
	.cfi_lsda 16, Lexception9
	pushq	%rbp
	.cfi_def_cfa_offset 16
	.cfi_offset %rbp, -16
	movq	%rsp, %rbp
	.cfi_def_cfa_register %rbp
	pushq	%r15
	pushq	%r14
	pushq	%r12
	pushq	%rbx
	.cfi_offset %rbx, -48
	.cfi_offset %r12, -40
	.cfi_offset %r14, -32
	.cfi_offset %r15, -24
	movq	%rdi, %r14
Ltmp1192:
	.loc	5 178 1 prologue_end
	cmpq	$0, (%rdi)
	je	LBB26_1
Ltmp1193:
	.loc	18 850 19
	movq	8(%r14), %r12
Ltmp1194:
	.loc	18 2384 81
	movq	24(%r14), %rax
Ltmp1195:
	.loc	5 178 1
	testq	%rax, %rax
	je	LBB26_16
Ltmp1196:
	.loc	19 200 9
	imulq	$56, %rax, %r15
	xorl	%ebx, %ebx
Ltmp1197:
	.loc	5 178 1
	movq	32(%r12,%rbx), %rdi
Ltmp1198:
	.loc	19 532 16
	testq	%rdi, %rdi
Ltmp1199:
	.loc	19 200 9
	jne	LBB26_12
Ltmp1200:
	.p2align	4, 0x90
LBB26_14:
	.loc	5 178 1
	addq	$56, %rbx
	cmpq	%rbx, %r15
	je	LBB26_15
Ltmp1201:
LBB26_11:
	.loc	5 178 1 is_stmt 0
	movq	32(%r12,%rbx), %rdi
Ltmp1202:
	.loc	19 532 16 is_stmt 1
	testq	%rdi, %rdi
Ltmp1203:
	.loc	19 200 9
	je	LBB26_14
Ltmp1204:
LBB26_12:
	.loc	5 0 0 is_stmt 0
	movq	40(%r12,%rbx), %rsi
Ltmp1205:
	.loc	19 200 9
	testq	%rsi, %rsi
	je	LBB26_14
Ltmp1206:
	.loc	20 102 5 is_stmt 1
	movl	$1, %edx
	callq	___rust_dealloc
Ltmp1207:
	.loc	5 178 1
	addq	$56, %rbx
	cmpq	%rbx, %r15
	jne	LBB26_11
Ltmp1208:
LBB26_15:
	.loc	5 178 1 is_stmt 0
	movq	8(%r14), %r12
Ltmp1209:
LBB26_16:
	movq	16(%r14), %rax
Ltmp1210:
	.loc	19 200 40 is_stmt 1
	testq	%rax, %rax
	.loc	19 200 9 is_stmt 0
	je	LBB26_22
Ltmp1211:
	.loc	19 532 16 is_stmt 1
	testq	%r12, %r12
Ltmp1212:
	je	LBB26_22
Ltmp1213:
	.loc	19 0 0 is_stmt 0
	imulq	$56, %rax, %rsi
Ltmp1214:
	.loc	19 532 16
	testq	%rsi, %rsi
	je	LBB26_22
Ltmp1215:
	.loc	20 102 5 is_stmt 1
	movl	$8, %edx
	movq	%r12, %rdi
	popq	%rbx
	popq	%r12
Ltmp1216:
	popq	%r14
Ltmp1217:
	popq	%r15
	popq	%rbp
	jmp	___rust_dealloc
Ltmp1218:
LBB26_22:
	.loc	5 178 1
	popq	%rbx
	popq	%r12
	popq	%r14
Ltmp1219:
	popq	%r15
	popq	%rbp
	retq
LBB26_1:
Ltmp1220:
	.loc	5 178 1 is_stmt 0
	movq	8(%r14), %rax
	cmpq	$1, %rax
	je	LBB26_4
Ltmp1221:
	testq	%rax, %rax
	jne	LBB26_7
Ltmp1222:
	addq	$16, %r14
Ltmp1223:
	.loc	5 178 1
	movq	%r14, %rdi
	popq	%rbx
	popq	%r12
	popq	%r14
Ltmp1224:
	popq	%r15
	popq	%rbp
	jmp	__ZN4core3ptr13drop_in_place17h77634634be9e535eE
Ltmp1225:
LBB26_4:
	.loc	5 178 1
	leaq	16(%r14), %rdi
Ltmp1226:
Ltmp1186:
	.loc	5 178 1
	callq	__ZN4core3ptr13drop_in_place17h77634634be9e535eE
Ltmp1227:
Ltmp1187:
	.loc	5 178 1
	addq	$64, %r14
Ltmp1228:
	movq	%r14, %rdi
	popq	%rbx
	popq	%r12
	popq	%r14
	popq	%r15
	popq	%rbp
	jmp	__ZN4core3ptr13drop_in_place17h1799caa629705a2eE
Ltmp1229:
LBB26_7:
	.loc	5 178 1
	leaq	16(%r14), %rdi
Ltmp1230:
Ltmp1189:
	.loc	5 178 1
	callq	__ZN4core3ptr13drop_in_place17h77634634be9e535eE
Ltmp1231:
Ltmp1190:
	.loc	5 178 1
	addq	$64, %r14
Ltmp1232:
	movq	%r14, %rdi
	popq	%rbx
	popq	%r12
	popq	%r14
	popq	%r15
	popq	%rbp
	jmp	__ZN4core3ptr13drop_in_place17h0e014c8b442f4af3E
LBB26_6:
Ltmp1233:
Ltmp1191:
	.loc	5 0 1
	movq	%rax, %rbx
	.loc	5 178 1
	addq	$64, %r14
Ltmp1234:
	movq	%r14, %rdi
	callq	__ZN4core3ptr13drop_in_place17h0e014c8b442f4af3E
	movq	%rbx, %rdi
	callq	__Unwind_Resume
	ud2
Ltmp1235:
LBB26_20:
Ltmp1188:
	.loc	5 0 1
	movq	%rax, %rbx
Ltmp1236:
	.loc	5 178 1
	addq	$64, %r14
Ltmp1237:
	movq	%r14, %rdi
	callq	__ZN4core3ptr13drop_in_place17h1799caa629705a2eE
	movq	%rbx, %rdi
	callq	__Unwind_Resume
	ud2
Ltmp1238:
Lfunc_end26:
	.cfi_endproc
	.section	__TEXT,__gcc_except_tab
	.p2align	2
GCC_except_table26:
Lexception9:
	.byte	255
	.byte	255
	.byte	1
	.uleb128 Lcst_end9-Lcst_begin9
Lcst_begin9:
	.uleb128 Lfunc_begin26-Lfunc_begin26
	.uleb128 Ltmp1186-Lfunc_begin26
	.byte	0
	.byte	0
	.uleb128 Ltmp1186-Lfunc_begin26
	.uleb128 Ltmp1187-Ltmp1186
	.uleb128 Ltmp1188-Lfunc_begin26
	.byte	0
	.uleb128 Ltmp1187-Lfunc_begin26
	.uleb128 Ltmp1189-Ltmp1187
	.byte	0
	.byte	0
	.uleb128 Ltmp1189-Lfunc_begin26
	.uleb128 Ltmp1190-Ltmp1189
	.uleb128 Ltmp1191-Lfunc_begin26
	.byte	0
	.uleb128 Ltmp1190-Lfunc_begin26
	.uleb128 Lfunc_end26-Ltmp1190
	.byte	0
	.byte	0
Lcst_end9:
	.p2align	2

	.section	__TEXT,__text,regular,pure_instructions
	.p2align	4, 0x90
__ZN4core3ptr13drop_in_place17h0ba6ebd6a9d9890eE:
Lfunc_begin27:
	.loc	5 178 0 is_stmt 1
	.cfi_startproc
	pushq	%rbp
	.cfi_def_cfa_offset 16
	.cfi_offset %rbp, -16
	movq	%rsp, %rbp
	.cfi_def_cfa_register %rbp
Ltmp1239:
	.loc	5 178 1 prologue_end
	movl	(%rdi), %ecx
	orl	$2, %ecx
	cmpl	$2, %ecx
	jne	LBB27_1
Ltmp1240:
LBB27_3:
	popq	%rbp
	retq
LBB27_1:
Ltmp1241:
	.loc	5 0 1 is_stmt 0
	movq	%rdi, %rax
Ltmp1242:
	.loc	5 178 1
	movq	8(%rdi), %rdi
Ltmp1243:
	.loc	19 532 16 is_stmt 1
	testq	%rdi, %rdi
Ltmp1244:
	.loc	19 200 9
	je	LBB27_3
Ltmp1245:
	.loc	5 0 0 is_stmt 0
	movq	16(%rax), %rsi
Ltmp1246:
	.loc	19 200 9
	testq	%rsi, %rsi
	je	LBB27_3
Ltmp1247:
	.loc	20 102 5 is_stmt 1
	movl	$1, %edx
	popq	%rbp
	jmp	___rust_dealloc
Ltmp1248:
Lfunc_end27:
	.cfi_endproc

	.p2align	4, 0x90
__ZN4core3ptr13drop_in_place17h0d2802463aa73dabE:
Lfunc_begin28:
	.loc	5 178 0
	.cfi_startproc
	pushq	%rbp
	.cfi_def_cfa_offset 16
	.cfi_offset %rbp, -16
	movq	%rsp, %rbp
	.cfi_def_cfa_register %rbp
Ltmp1249:
	.loc	5 178 1 prologue_end
	cmpq	$1, (%rdi)
	jne	LBB28_3
Ltmp1250:
	.loc	5 0 1 is_stmt 0
	movq	%rdi, %rax
Ltmp1251:
	.loc	5 178 1
	movq	8(%rdi), %rdi
Ltmp1252:
	.loc	19 532 16 is_stmt 1
	testq	%rdi, %rdi
Ltmp1253:
	.loc	19 200 9
	je	LBB28_3
Ltmp1254:
	.loc	5 0 0 is_stmt 0
	movq	16(%rax), %rsi
Ltmp1255:
	.loc	19 200 9
	testq	%rsi, %rsi
	je	LBB28_3
Ltmp1256:
	.loc	20 102 5 is_stmt 1
	movl	$1, %edx
	popq	%rbp
	jmp	___rust_dealloc
Ltmp1257:
LBB28_3:
	.loc	5 178 1
	popq	%rbp
	retq
Ltmp1258:
Lfunc_end28:
	.cfi_endproc

	.p2align	4, 0x90
__ZN4core3ptr13drop_in_place17h0e014c8b442f4af3E:
Lfunc_begin29:
	.loc	5 178 0
	.cfi_startproc
	.cfi_personality 155, _rust_eh_personality
	.cfi_lsda 16, Lexception10
	pushq	%rbp
	.cfi_def_cfa_offset 16
	.cfi_offset %rbp, -16
	movq	%rsp, %rbp
	.cfi_def_cfa_register %rbp
	pushq	%r15
	pushq	%r14
	pushq	%rbx
	pushq	%rax
	.cfi_offset %rbx, -40
	.cfi_offset %r14, -32
	.cfi_offset %r15, -24
	movq	%rdi, %rbx
Ltmp1265:
	.loc	5 178 1 prologue_end
	movl	(%rdi), %eax
	cmpq	$6, %rax
	ja	LBB29_18
Ltmp1266:
	.loc	5 0 1 is_stmt 0
	leaq	LJTI29_0(%rip), %rcx
	movslq	(%rcx,%rax,4), %rax
	addq	%rcx, %rax
	jmpq	*%rax
Ltmp1267:
LBB29_3:
	.loc	5 178 1
	addq	$8, %rbx
Ltmp1268:
	.loc	5 0 0
	movq	%rbx, %rdi
	addq	$8, %rsp
	popq	%rbx
Ltmp1269:
	popq	%r14
	popq	%r15
	popq	%rbp
	jmp	__ZN4core3ptr13drop_in_place17h53e68735d30f96d8E
LBB29_18:
Ltmp1270:
	.loc	5 178 1
	cmpl	$0, 8(%rbx)
	je	LBB29_23
Ltmp1271:
	.loc	5 178 1
	movq	16(%rbx), %rdi
Ltmp1272:
	.loc	19 532 16 is_stmt 1
	testq	%rdi, %rdi
Ltmp1273:
	.loc	19 200 9
	je	LBB29_2
Ltmp1274:
	.loc	5 0 0 is_stmt 0
	movq	24(%rbx), %rsi
Ltmp1275:
	.loc	19 200 9
	testq	%rsi, %rsi
	je	LBB29_2
Ltmp1276:
	.loc	20 102 5 is_stmt 1
	movl	$1, %edx
	jmp	LBB29_22
Ltmp1277:
LBB29_2:
	.loc	5 178 1
	addq	$8, %rsp
	popq	%rbx
Ltmp1278:
	popq	%r14
	popq	%r15
	popq	%rbp
	retq
LBB29_4:
Ltmp1279:
	.loc	5 178 1 is_stmt 0
	movq	8(%rbx), %r14
Ltmp1280:
	.loc	5 178 1
	cmpl	$0, (%r14)
	jne	LBB29_6
Ltmp1281:
	leaq	4(%r14), %rdi
Ltmp1282:
Ltmp1262:
	.loc	5 178 1
	callq	__ZN77_$LT$proc_macro..bridge..client..Literal$u20$as$u20$core..ops..drop..Drop$GT$4drop17he2aea19d6a82f53dE
Ltmp1283:
Ltmp1263:
	jmp	LBB29_9
Ltmp1284:
LBB29_16:
	.loc	5 178 1
	movq	8(%rbx), %r14
Ltmp1285:
	.loc	5 178 1
	cmpl	$0, (%r14)
	je	LBB29_17
Ltmp1286:
LBB29_6:
	.loc	5 0 0
	movq	8(%r14), %rdi
Ltmp1287:
	testq	%rdi, %rdi
	je	LBB29_9
Ltmp1288:
	movq	16(%r14), %rsi
Ltmp1289:
	testq	%rsi, %rsi
	je	LBB29_9
Ltmp1290:
	movl	$1, %edx
	callq	___rust_dealloc
Ltmp1291:
	movq	40(%r14), %rsi
Ltmp1292:
	testq	%rsi, %rsi
	jne	LBB29_10
	jmp	LBB29_11
Ltmp1293:
LBB29_23:
	.loc	5 178 1
	addq	$12, %rbx
Ltmp1294:
	.loc	5 178 1
	movq	%rbx, %rdi
	addq	$8, %rsp
	popq	%rbx
Ltmp1295:
	popq	%r14
	popq	%r15
	popq	%rbp
	jmp	__ZN77_$LT$proc_macro..bridge..client..Literal$u20$as$u20$core..ops..drop..Drop$GT$4drop17he2aea19d6a82f53dE
Ltmp1296:
LBB29_17:
	.loc	5 178 1
	leaq	4(%r14), %rdi
Ltmp1297:
Ltmp1259:
	.loc	5 178 1
	callq	__ZN77_$LT$proc_macro..bridge..client..Literal$u20$as$u20$core..ops..drop..Drop$GT$4drop17he2aea19d6a82f53dE
Ltmp1298:
Ltmp1260:
LBB29_9:
	.loc	5 0 0
	movq	40(%r14), %rsi
Ltmp1299:
	testq	%rsi, %rsi
	je	LBB29_11
Ltmp1300:
LBB29_10:
	movq	32(%r14), %rdi
Ltmp1301:
	movl	$1, %edx
	callq	___rust_dealloc
Ltmp1302:
LBB29_11:
	movq	56(%r14), %rsi
Ltmp1303:
	testq	%rsi, %rsi
	je	LBB29_13
Ltmp1304:
	movq	48(%r14), %rdi
Ltmp1305:
	movl	$1, %edx
	callq	___rust_dealloc
Ltmp1306:
LBB29_13:
	movq	8(%rbx), %rdi
Ltmp1307:
	movl	$64, %esi
	movl	$8, %edx
Ltmp1308:
LBB29_22:
	addq	$8, %rsp
	popq	%rbx
Ltmp1309:
	popq	%r14
	popq	%r15
	popq	%rbp
	jmp	___rust_dealloc
LBB29_24:
Ltmp1310:
Ltmp1261:
	jmp	LBB29_15
Ltmp1311:
LBB29_14:
Ltmp1264:
LBB29_15:
	movq	%rax, %r15
	leaq	32(%r14), %rdi
	callq	__ZN4core3ptr13drop_in_place17h3455c79962054a31E
	addq	$48, %r14
	movq	%r14, %rdi
	callq	__ZN4core3ptr13drop_in_place17h3455c79962054a31E
	movq	8(%rbx), %rdi
	callq	__ZN5alloc5alloc8box_free17h587198f2ec7b9808E
	movq	%r15, %rdi
	callq	__Unwind_Resume
	ud2
Ltmp1312:
Lfunc_end29:
	.cfi_endproc
	.p2align	2, 0x90
	.data_region jt32
.set L29_0_set_3, LBB29_3-LJTI29_0
.set L29_0_set_4, LBB29_4-LJTI29_0
.set L29_0_set_16, LBB29_16-LJTI29_0
.set L29_0_set_2, LBB29_2-LJTI29_0
LJTI29_0:
	.long	L29_0_set_3
	.long	L29_0_set_3
	.long	L29_0_set_3
	.long	L29_0_set_3
	.long	L29_0_set_4
	.long	L29_0_set_16
	.long	L29_0_set_2
	.end_data_region
	.section	__TEXT,__gcc_except_tab
	.p2align	2
GCC_except_table29:
Lexception10:
	.byte	255
	.byte	255
	.byte	1
	.uleb128 Lcst_end10-Lcst_begin10
Lcst_begin10:
	.uleb128 Lfunc_begin29-Lfunc_begin29
	.uleb128 Ltmp1262-Lfunc_begin29
	.byte	0
	.byte	0
	.uleb128 Ltmp1262-Lfunc_begin29
	.uleb128 Ltmp1263-Ltmp1262
	.uleb128 Ltmp1264-Lfunc_begin29
	.byte	0
	.uleb128 Ltmp1263-Lfunc_begin29
	.uleb128 Ltmp1259-Ltmp1263
	.byte	0
	.byte	0
	.uleb128 Ltmp1259-Lfunc_begin29
	.uleb128 Ltmp1260-Ltmp1259
	.uleb128 Ltmp1261-Lfunc_begin29
	.byte	0
	.uleb128 Ltmp1260-Lfunc_begin29
	.uleb128 Lfunc_end29-Ltmp1260
	.byte	0
	.byte	0
Lcst_end10:
	.p2align	2

	.section	__TEXT,__text,regular,pure_instructions
	.p2align	4, 0x90
__ZN4core3ptr13drop_in_place17h0f067b85fb51841cE:
Lfunc_begin30:
	.loc	5 178 0 is_stmt 1
	.cfi_startproc
	.cfi_personality 155, _rust_eh_personality
	.cfi_lsda 16, Lexception11
	pushq	%rbp
	.cfi_def_cfa_offset 16
	.cfi_offset %rbp, -16
	movq	%rsp, %rbp
	.cfi_def_cfa_register %rbp
	pushq	%r14
	pushq	%rbx
	.cfi_offset %rbx, -32
	.cfi_offset %r14, -24
	movq	%rdi, %rbx
Ltmp1316:
	.loc	5 178 1 prologue_end
	addq	$8, %rdi
Ltmp1317:
	cmpq	$0, (%rbx)
	je	LBB30_1
Ltmp1318:
	.loc	5 178 1 is_stmt 0
	cmpl	$0, (%rdi)
	je	LBB30_6
Ltmp1319:
	.loc	5 178 1
	movq	16(%rbx), %rdi
Ltmp1320:
	.loc	19 532 16 is_stmt 1
	testq	%rdi, %rdi
Ltmp1321:
	.loc	19 200 9
	je	LBB30_6
Ltmp1322:
	.loc	5 0 0 is_stmt 0
	movq	24(%rbx), %rsi
Ltmp1323:
	.loc	19 200 9
	testq	%rsi, %rsi
	je	LBB30_6
Ltmp1324:
	.loc	20 102 5 is_stmt 1
	movl	$1, %edx
	popq	%rbx
Ltmp1325:
	popq	%r14
	popq	%rbp
	jmp	___rust_dealloc
Ltmp1326:
LBB30_6:
	.loc	5 178 1
	popq	%rbx
Ltmp1327:
	popq	%r14
	popq	%rbp
	retq
LBB30_1:
Ltmp1328:
Ltmp1313:
	.loc	5 178 1 is_stmt 0
	callq	__ZN4core3ptr13drop_in_place17h688c7cf775c915a8E
Ltmp1329:
Ltmp1314:
	addq	$56, %rbx
Ltmp1330:
	.loc	5 178 1
	movq	%rbx, %rdi
	popq	%rbx
Ltmp1331:
	popq	%r14
	popq	%rbp
	jmp	__ZN4core3ptr13drop_in_place17h77634634be9e535eE
Ltmp1332:
LBB30_7:
Ltmp1315:
	.loc	5 0 1
	movq	%rax, %r14
	.loc	5 178 1
	addq	$56, %rbx
Ltmp1333:
	movq	%rbx, %rdi
	callq	__ZN4core3ptr13drop_in_place17h03282fba4624b210E
	movq	%r14, %rdi
	callq	__Unwind_Resume
	ud2
Ltmp1334:
Lfunc_end30:
	.cfi_endproc
	.section	__TEXT,__gcc_except_tab
	.p2align	2
GCC_except_table30:
Lexception11:
	.byte	255
	.byte	255
	.byte	1
	.uleb128 Lcst_end11-Lcst_begin11
Lcst_begin11:
	.uleb128 Ltmp1313-Lfunc_begin30
	.uleb128 Ltmp1314-Ltmp1313
	.uleb128 Ltmp1315-Lfunc_begin30
	.byte	0
	.uleb128 Ltmp1314-Lfunc_begin30
	.uleb128 Lfunc_end30-Ltmp1314
	.byte	0
	.byte	0
Lcst_end11:
	.p2align	2

	.section	__TEXT,__text,regular,pure_instructions
	.p2align	4, 0x90
__ZN4core3ptr13drop_in_place17h134245220c574e50E:
Lfunc_begin31:
	.loc	5 178 0 is_stmt 1
	.cfi_startproc
	.cfi_personality 155, _rust_eh_personality
	.cfi_lsda 16, Lexception12
	pushq	%rbp
	.cfi_def_cfa_offset 16
	.cfi_offset %rbp, -16
	movq	%rsp, %rbp
	.cfi_def_cfa_register %rbp
	pushq	%r14
	pushq	%rbx
	.cfi_offset %rbx, -32
	.cfi_offset %r14, -24
	movq	%rdi, %rbx
Ltmp1341:
Ltmp1335:
	.loc	5 178 1 prologue_end
	callq	__ZN4core3ptr13drop_in_place17h9d26a05bd540f360E
Ltmp1336:
Ltmp1342:
	.loc	5 178 1 is_stmt 0
	cmpl	$2, 24(%rbx)
	jne	LBB31_4
Ltmp1343:
	.loc	5 178 1
	movq	32(%rbx), %rdi
Ltmp1338:
Ltmp1344:
	.loc	5 178 1
	callq	__ZN4core3ptr13drop_in_place17h77634634be9e535eE
Ltmp1339:
Ltmp1345:
	.loc	5 178 1
	movq	32(%rbx), %rdi
Ltmp1346:
	.loc	20 102 5 is_stmt 1
	movl	$48, %esi
	movl	$8, %edx
	callq	___rust_dealloc
Ltmp1347:
LBB31_4:
	.loc	5 178 1
	movl	56(%rbx), %eax
	orl	$2, %eax
	cmpl	$2, %eax
	je	LBB31_8
Ltmp1348:
	.loc	5 178 1 is_stmt 0
	movq	64(%rbx), %rdi
Ltmp1349:
	.loc	19 532 16 is_stmt 1
	testq	%rdi, %rdi
Ltmp1350:
	.loc	19 200 9
	je	LBB31_8
Ltmp1351:
	.loc	5 0 0 is_stmt 0
	movq	72(%rbx), %rsi
Ltmp1352:
	.loc	19 200 9
	testq	%rsi, %rsi
	je	LBB31_8
Ltmp1353:
	.loc	20 102 5 is_stmt 1
	movl	$1, %edx
	callq	___rust_dealloc
Ltmp1354:
LBB31_8:
	.loc	5 178 1
	addq	$96, %rbx
Ltmp1355:
	movq	%rbx, %rdi
	popq	%rbx
	popq	%r14
	popq	%rbp
	jmp	__ZN4core3ptr13drop_in_place17h4cf03e8b23c4b321E
LBB31_11:
Ltmp1356:
Ltmp1340:
	.loc	5 0 1 is_stmt 0
	movq	%rax, %r14
Ltmp1357:
	.loc	5 178 1
	movq	32(%rbx), %rdi
	callq	__ZN5alloc5alloc8box_free17h0186a06cd496174eE
	jmp	LBB31_10
Ltmp1358:
LBB31_9:
Ltmp1337:
	.loc	5 0 1
	movq	%rax, %r14
	.loc	5 178 1
	leaq	24(%rbx), %rdi
	callq	__ZN4core3ptr13drop_in_place17hbdadf5d8eac88252E
Ltmp1359:
LBB31_10:
	leaq	56(%rbx), %rdi
	callq	__ZN4core3ptr13drop_in_place17h7c336242e24da191E
	addq	$96, %rbx
Ltmp1360:
	movq	%rbx, %rdi
	callq	__ZN4core3ptr13drop_in_place17h4cf03e8b23c4b321E
	movq	%r14, %rdi
	callq	__Unwind_Resume
	ud2
Ltmp1361:
Lfunc_end31:
	.cfi_endproc
	.section	__TEXT,__gcc_except_tab
	.p2align	2
GCC_except_table31:
Lexception12:
	.byte	255
	.byte	255
	.byte	1
	.uleb128 Lcst_end12-Lcst_begin12
Lcst_begin12:
	.uleb128 Ltmp1335-Lfunc_begin31
	.uleb128 Ltmp1336-Ltmp1335
	.uleb128 Ltmp1337-Lfunc_begin31
	.byte	0
	.uleb128 Ltmp1338-Lfunc_begin31
	.uleb128 Ltmp1339-Ltmp1338
	.uleb128 Ltmp1340-Lfunc_begin31
	.byte	0
	.uleb128 Ltmp1339-Lfunc_begin31
	.uleb128 Lfunc_end31-Ltmp1339
	.byte	0
	.byte	0
Lcst_end12:
	.p2align	2

	.section	__TEXT,__text,regular,pure_instructions
	.p2align	4, 0x90
__ZN4core3ptr13drop_in_place17h15a2bde14d4b15f1E:
Lfunc_begin32:
	.loc	5 178 0 is_stmt 1
	.cfi_startproc
	pushq	%rbp
	.cfi_def_cfa_offset 16
	.cfi_offset %rbp, -16
	movq	%rsp, %rbp
	.cfi_def_cfa_register %rbp
Ltmp1362:
	.loc	5 178 1 prologue_end
	cmpq	$2, (%rdi)
	jne	LBB32_2
Ltmp1363:
	popq	%rbp
	retq
Ltmp1364:
LBB32_2:
	popq	%rbp
	jmp	__ZN4core3ptr13drop_in_place17hd09c695a35000682E
Ltmp1365:
Lfunc_end32:
	.cfi_endproc

	.p2align	4, 0x90
__ZN4core3ptr13drop_in_place17h16cc69f77025971dE:
Lfunc_begin33:
	.loc	5 178 0
	.cfi_startproc
	.cfi_personality 155, _rust_eh_personality
	.cfi_lsda 16, Lexception13
	pushq	%rbp
	.cfi_def_cfa_offset 16
	.cfi_offset %rbp, -16
	movq	%rsp, %rbp
	.cfi_def_cfa_register %rbp
	pushq	%r14
	pushq	%rbx
	.cfi_offset %rbx, -32
	.cfi_offset %r14, -24
	movq	%rdi, %rbx
Ltmp1369:
	.loc	5 178 1 prologue_end
	movq	(%rdi), %rdi
	testq	%rdi, %rdi
	je	LBB33_3
Ltmp1370:
Ltmp1366:
	.loc	5 178 1 is_stmt 0
	callq	__ZN4core3ptr13drop_in_place17h251faff4ea60a9a6E
Ltmp1367:
Ltmp1371:
	movq	(%rbx), %rdi
Ltmp1372:
	.loc	20 102 5 is_stmt 1
	movl	$112, %esi
	movl	$8, %edx
	popq	%rbx
Ltmp1373:
	popq	%r14
	popq	%rbp
	jmp	___rust_dealloc
Ltmp1374:
LBB33_3:
	.loc	5 178 1
	popq	%rbx
Ltmp1375:
	popq	%r14
	popq	%rbp
	retq
LBB33_4:
Ltmp1376:
Ltmp1368:
	.loc	5 0 1 is_stmt 0
	movq	%rax, %r14
Ltmp1377:
	.loc	5 178 1
	movq	(%rbx), %rdi
	callq	__ZN5alloc5alloc8box_free17h2808d984cc7c6832E
	movq	%r14, %rdi
	callq	__Unwind_Resume
	ud2
Ltmp1378:
Lfunc_end33:
	.cfi_endproc
	.section	__TEXT,__gcc_except_tab
	.p2align	2
GCC_except_table33:
Lexception13:
	.byte	255
	.byte	255
	.byte	1
	.uleb128 Lcst_end13-Lcst_begin13
Lcst_begin13:
	.uleb128 Ltmp1366-Lfunc_begin33
	.uleb128 Ltmp1367-Ltmp1366
	.uleb128 Ltmp1368-Lfunc_begin33
	.byte	0
	.uleb128 Ltmp1367-Lfunc_begin33
	.uleb128 Lfunc_end33-Ltmp1367
	.byte	0
	.byte	0
Lcst_end13:
	.p2align	2

	.section	__TEXT,__text,regular,pure_instructions
	.p2align	4, 0x90
__ZN4core3ptr13drop_in_place17h1799caa629705a2eE:
Lfunc_begin34:
	.loc	5 178 0 is_stmt 1
	.cfi_startproc
	.cfi_personality 155, _rust_eh_personality
	.cfi_lsda 16, Lexception14
	pushq	%rbp
	.cfi_def_cfa_offset 16
	.cfi_offset %rbp, -16
	movq	%rsp, %rbp
	.cfi_def_cfa_register %rbp
	pushq	%r15
	pushq	%r14
	pushq	%r13
	pushq	%r12
	pushq	%rbx
	pushq	%rax
	.cfi_offset %rbx, -56
	.cfi_offset %r12, -48
	.cfi_offset %r13, -40
	.cfi_offset %r14, -32
	.cfi_offset %r15, -24
	movq	%rdi, %r14
Ltmp1421:
	.loc	18 850 19 prologue_end
	movq	(%rdi), %r13
Ltmp1422:
	.loc	18 2384 81
	movq	16(%rdi), %rax
Ltmp1423:
	.loc	5 178 1
	testq	%rax, %rax
	je	LBB34_17
Ltmp1424:
	.loc	5 178 1 is_stmt 0
	imulq	$120, %rax, %r12
	xorl	%ebx, %ebx
Ltmp1425:
	cmpq	$0, (%r13,%rbx)
	je	LBB34_3
Ltmp1426:
	.p2align	4, 0x90
LBB34_14:
	leaq	8(%r13,%rbx), %rdi
Ltmp1379:
	callq	__ZN4core3ptr13drop_in_place17h0e014c8b442f4af3E
Ltmp1380:
Ltmp1427:
LBB34_15:
	.loc	5 178 1
	addq	$120, %rbx
	cmpq	%rbx, %r12
	je	LBB34_16
Ltmp1428:
	.loc	5 178 1
	cmpq	$0, (%r13,%rbx)
	jne	LBB34_14
Ltmp1429:
LBB34_3:
	.loc	5 178 1
	movq	8(%r13,%rbx), %rax
Ltmp1430:
	.loc	5 178 1
	leaq	16(%r13,%rbx), %rdi
Ltmp1431:
	.loc	5 178 1
	cmpq	$1, %rax
	je	LBB34_9
Ltmp1432:
	testq	%rax, %rax
	jne	LBB34_12
Ltmp1433:
Ltmp1388:
	.loc	5 178 1
	callq	__ZN4core3ptr13drop_in_place17h77634634be9e535eE
Ltmp1389:
	jmp	LBB34_15
Ltmp1434:
LBB34_9:
Ltmp1381:
	.loc	5 178 1
	callq	__ZN4core3ptr13drop_in_place17h77634634be9e535eE
Ltmp1382:
Ltmp1435:
	.loc	5 178 1
	leaq	64(%r13,%rbx), %rdi
Ltmp1386:
	callq	__ZN4core3ptr13drop_in_place17h1799caa629705a2eE
Ltmp1387:
	jmp	LBB34_15
Ltmp1436:
LBB34_12:
Ltmp1390:
	.loc	5 178 1
	callq	__ZN4core3ptr13drop_in_place17h77634634be9e535eE
Ltmp1391:
Ltmp1437:
	.loc	5 178 1
	leaq	64(%r13,%rbx), %rdi
Ltmp1396:
	callq	__ZN4core3ptr13drop_in_place17h0e014c8b442f4af3E
Ltmp1397:
	jmp	LBB34_15
Ltmp1438:
LBB34_16:
	.loc	5 178 1
	movq	(%r14), %r13
Ltmp1439:
LBB34_17:
	movq	8(%r14), %rax
Ltmp1440:
	.loc	19 200 40 is_stmt 1
	testq	%rax, %rax
	.loc	19 200 9 is_stmt 0
	je	LBB34_21
Ltmp1441:
	.loc	19 532 16 is_stmt 1
	testq	%r13, %r13
Ltmp1442:
	je	LBB34_21
Ltmp1443:
	.loc	19 0 0 is_stmt 0
	imulq	$120, %rax, %rsi
Ltmp1444:
	.loc	19 532 16
	testq	%rsi, %rsi
	je	LBB34_21
Ltmp1445:
	.loc	20 102 5 is_stmt 1
	movl	$8, %edx
	movq	%r13, %rdi
	callq	___rust_dealloc
Ltmp1446:
LBB34_21:
	.loc	5 178 1
	movq	24(%r14), %rbx
Ltmp1447:
	testq	%rbx, %rbx
	je	LBB34_43
Ltmp1448:
	.loc	5 178 1 is_stmt 0
	leaq	8(%rbx), %rdi
Ltmp1449:
	cmpq	$0, (%rbx)
	je	LBB34_23
Ltmp1450:
Ltmp1402:
	callq	__ZN4core3ptr13drop_in_place17h0e014c8b442f4af3E
Ltmp1403:
Ltmp1451:
LBB34_42:
	.loc	5 178 1
	movq	24(%r14), %rdi
Ltmp1452:
	.loc	20 102 5 is_stmt 1
	movl	$112, %esi
	movl	$8, %edx
	addq	$8, %rsp
	popq	%rbx
	popq	%r12
	popq	%r13
	popq	%r14
Ltmp1453:
	popq	%r15
	popq	%rbp
	jmp	___rust_dealloc
Ltmp1454:
LBB34_43:
	.loc	5 178 1
	addq	$8, %rsp
	popq	%rbx
	popq	%r12
	popq	%r13
	popq	%r14
Ltmp1455:
	popq	%r15
	popq	%rbp
	retq
LBB34_23:
Ltmp1456:
	.loc	5 178 1 is_stmt 0
	movq	(%rdi), %rax
	cmpq	$1, %rax
	je	LBB34_33
Ltmp1457:
	testq	%rax, %rax
	jne	LBB34_37
Ltmp1458:
	addq	$16, %rbx
Ltmp1459:
Ltmp1411:
	.loc	5 178 1
	movq	%rbx, %rdi
Ltmp1460:
	callq	__ZN4core3ptr13drop_in_place17h77634634be9e535eE
Ltmp1412:
	jmp	LBB34_42
Ltmp1461:
LBB34_33:
	.loc	5 178 1
	leaq	16(%rbx), %rdi
Ltmp1462:
Ltmp1404:
	.loc	5 178 1
	callq	__ZN4core3ptr13drop_in_place17h77634634be9e535eE
Ltmp1463:
Ltmp1405:
	.loc	5 178 1
	addq	$64, %rbx
Ltmp1464:
Ltmp1409:
	movq	%rbx, %rdi
	callq	__ZN4core3ptr13drop_in_place17h1799caa629705a2eE
Ltmp1410:
	jmp	LBB34_42
Ltmp1465:
LBB34_37:
	.loc	5 178 1
	leaq	16(%rbx), %rdi
Ltmp1466:
Ltmp1413:
	.loc	5 178 1
	callq	__ZN4core3ptr13drop_in_place17h77634634be9e535eE
Ltmp1467:
Ltmp1414:
	.loc	5 178 1
	addq	$64, %rbx
Ltmp1468:
Ltmp1418:
	movq	%rbx, %rdi
	callq	__ZN4core3ptr13drop_in_place17h0e014c8b442f4af3E
Ltmp1419:
	jmp	LBB34_42
Ltmp1469:
LBB34_36:
Ltmp1415:
	.loc	5 0 1
	movq	%rax, %r15
	.loc	5 178 1
	addq	$64, %rbx
Ltmp1470:
Ltmp1416:
	movq	%rbx, %rdi
	callq	__ZN4core3ptr13drop_in_place17h0e014c8b442f4af3E
Ltmp1417:
	jmp	LBB34_40
Ltmp1471:
LBB34_35:
Ltmp1406:
	.loc	5 0 1
	movq	%rax, %r15
Ltmp1472:
	.loc	5 178 1
	addq	$64, %rbx
Ltmp1473:
Ltmp1407:
	movq	%rbx, %rdi
	callq	__ZN4core3ptr13drop_in_place17h1799caa629705a2eE
Ltmp1408:
	jmp	LBB34_40
Ltmp1474:
LBB34_39:
Ltmp1420:
	.loc	5 0 1
	movq	%rax, %r15
Ltmp1475:
LBB34_40:
	.loc	5 178 1
	movq	24(%r14), %rdi
	callq	__ZN5alloc5alloc8box_free17h2808d984cc7c6832E
	movq	%r15, %rdi
	callq	__Unwind_Resume
	ud2
Ltmp1476:
LBB34_8:
Ltmp1383:
	.loc	5 0 1
	movq	%rax, %r15
Ltmp1477:
	.loc	5 178 1
	leaq	64(%r13,%rbx), %rdi
Ltmp1384:
	callq	__ZN4core3ptr13drop_in_place17h1799caa629705a2eE
Ltmp1385:
	jmp	LBB34_29
Ltmp1478:
LBB34_11:
Ltmp1392:
	.loc	5 0 1
	movq	%rax, %r15
Ltmp1479:
	.loc	5 178 1
	leaq	64(%r13,%rbx), %rdi
Ltmp1393:
	callq	__ZN4core3ptr13drop_in_place17h0e014c8b442f4af3E
Ltmp1394:
	jmp	LBB34_29
Ltmp1480:
LBB34_27:
Ltmp1395:
	.loc	5 0 1
	jmp	LBB34_28
Ltmp1481:
LBB34_26:
Ltmp1398:
LBB34_28:
	movq	%rax, %r15
Ltmp1482:
LBB34_29:
	subq	%rbx, %r12
	addq	$-120, %r12
	leaq	120(%r13,%rbx), %rbx
Ltmp1483:
	.p2align	4, 0x90
LBB34_7:
	.loc	5 178 1
	testq	%r12, %r12
	je	LBB34_31
Ltmp1484:
	addq	$-120, %r12
Ltmp1399:
	movq	%rbx, %rdi
	addq	$120, %rbx
	callq	__ZN4core3ptr13drop_in_place17hf0a58164c1cfbfe1E
Ltmp1400:
	jmp	LBB34_7
Ltmp1485:
LBB34_30:
Ltmp1401:
	.loc	5 0 1
	movq	%rax, %r15
Ltmp1486:
LBB34_31:
	.loc	5 178 1
	movq	(%r14), %rdi
	movq	8(%r14), %rsi
	callq	__ZN4core3ptr13drop_in_place17h05bcc5f8af6a20c2E
Ltmp1487:
	.loc	5 178 1
	addq	$24, %r14
Ltmp1488:
	movq	%r14, %rdi
	callq	__ZN4core3ptr13drop_in_place17h4ad872e7ae8032fbE
	movq	%r15, %rdi
	callq	__Unwind_Resume
	ud2
Ltmp1489:
Lfunc_end34:
	.cfi_endproc
	.section	__TEXT,__gcc_except_tab
	.p2align	2
GCC_except_table34:
Lexception14:
	.byte	255
	.byte	255
	.byte	1
	.uleb128 Lcst_end14-Lcst_begin14
Lcst_begin14:
	.uleb128 Ltmp1379-Lfunc_begin34
	.uleb128 Ltmp1389-Ltmp1379
	.uleb128 Ltmp1398-Lfunc_begin34
	.byte	0
	.uleb128 Ltmp1381-Lfunc_begin34
	.uleb128 Ltmp1382-Ltmp1381
	.uleb128 Ltmp1383-Lfunc_begin34
	.byte	0
	.uleb128 Ltmp1386-Lfunc_begin34
	.uleb128 Ltmp1387-Ltmp1386
	.uleb128 Ltmp1398-Lfunc_begin34
	.byte	0
	.uleb128 Ltmp1390-Lfunc_begin34
	.uleb128 Ltmp1391-Ltmp1390
	.uleb128 Ltmp1392-Lfunc_begin34
	.byte	0
	.uleb128 Ltmp1396-Lfunc_begin34
	.uleb128 Ltmp1397-Ltmp1396
	.uleb128 Ltmp1398-Lfunc_begin34
	.byte	0
	.uleb128 Ltmp1402-Lfunc_begin34
	.uleb128 Ltmp1412-Ltmp1402
	.uleb128 Ltmp1420-Lfunc_begin34
	.byte	0
	.uleb128 Ltmp1404-Lfunc_begin34
	.uleb128 Ltmp1405-Ltmp1404
	.uleb128 Ltmp1406-Lfunc_begin34
	.byte	0
	.uleb128 Ltmp1409-Lfunc_begin34
	.uleb128 Ltmp1410-Ltmp1409
	.uleb128 Ltmp1420-Lfunc_begin34
	.byte	0
	.uleb128 Ltmp1413-Lfunc_begin34
	.uleb128 Ltmp1414-Ltmp1413
	.uleb128 Ltmp1415-Lfunc_begin34
	.byte	0
	.uleb128 Ltmp1418-Lfunc_begin34
	.uleb128 Ltmp1408-Ltmp1418
	.uleb128 Ltmp1420-Lfunc_begin34
	.byte	0
	.uleb128 Ltmp1408-Lfunc_begin34
	.uleb128 Ltmp1384-Ltmp1408
	.byte	0
	.byte	0
	.uleb128 Ltmp1384-Lfunc_begin34
	.uleb128 Ltmp1394-Ltmp1384
	.uleb128 Ltmp1395-Lfunc_begin34
	.byte	0
	.uleb128 Ltmp1399-Lfunc_begin34
	.uleb128 Ltmp1400-Ltmp1399
	.uleb128 Ltmp1401-Lfunc_begin34
	.byte	0
	.uleb128 Ltmp1400-Lfunc_begin34
	.uleb128 Lfunc_end34-Ltmp1400
	.byte	0
	.byte	0
Lcst_end14:
	.p2align	2

	.section	__TEXT,__text,regular,pure_instructions
	.p2align	4, 0x90
__ZN4core3ptr13drop_in_place17h1a64d709f0dd4359E:
Lfunc_begin35:
	.loc	5 178 0 is_stmt 1
	.cfi_startproc
	pushq	%rbp
	.cfi_def_cfa_offset 16
	.cfi_offset %rbp, -16
	movq	%rsp, %rbp
	.cfi_def_cfa_register %rbp
Ltmp1490:
	.loc	5 178 1 prologue_end
	popq	%rbp
	jmp	__ZN4core3ptr13drop_in_place17h7204336a4556dcc9E
Ltmp1491:
Lfunc_end35:
	.cfi_endproc

	.p2align	4, 0x90
__ZN4core3ptr13drop_in_place17h1aa19ac80f0743bbE:
Lfunc_begin36:
	.loc	5 178 0
	.cfi_startproc
	.cfi_personality 155, _rust_eh_personality
	.cfi_lsda 16, Lexception15
	pushq	%rbp
	.cfi_def_cfa_offset 16
	.cfi_offset %rbp, -16
	movq	%rsp, %rbp
	.cfi_def_cfa_register %rbp
	pushq	%r15
	pushq	%r14
	pushq	%r12
	pushq	%rbx
	.cfi_offset %rbx, -48
	.cfi_offset %r12, -40
	.cfi_offset %r14, -32
	.cfi_offset %r15, -24
	movq	%rdi, %r15
Ltmp1504:
	.loc	18 850 19 prologue_end
	movq	(%rdi), %rbx
Ltmp1505:
	.loc	5 178 1
	imulq	$392, 16(%rdi), %r12
Ltmp1506:
	.p2align	4, 0x90
LBB36_5:
	testq	%r12, %r12
	je	LBB36_6
Ltmp1507:
	.loc	5 178 1 is_stmt 0
	addq	$-392, %r12
Ltmp1492:
	movq	%rbx, %rdi
Ltmp1508:
	.loc	5 178 1
	addq	$392, %rbx
Ltmp1509:
	.loc	5 178 1
	callq	__ZN4core3ptr13drop_in_place17heec62c05114801d7E
Ltmp1493:
	jmp	LBB36_5
Ltmp1510:
LBB36_6:
	.loc	5 178 1
	movq	8(%r15), %rax
Ltmp1511:
	.loc	19 200 40 is_stmt 1
	testq	%rax, %rax
	.loc	19 200 9 is_stmt 0
	je	LBB36_10
Ltmp1512:
	.loc	5 0 0
	movq	(%r15), %rdi
Ltmp1513:
	.loc	19 532 16 is_stmt 1
	testq	%rdi, %rdi
Ltmp1514:
	je	LBB36_10
Ltmp1515:
	.loc	19 0 0 is_stmt 0
	imulq	$392, %rax, %rsi
Ltmp1516:
	.loc	19 532 16
	testq	%rsi, %rsi
	je	LBB36_10
Ltmp1517:
	.loc	20 102 5 is_stmt 1
	movl	$8, %edx
	callq	___rust_dealloc
Ltmp1518:
LBB36_10:
	.loc	5 178 1
	movq	24(%r15), %rdi
	testq	%rdi, %rdi
	je	LBB36_13
Ltmp1519:
Ltmp1501:
	.loc	5 178 1 is_stmt 0
	callq	__ZN4core3ptr13drop_in_place17heec62c05114801d7E
Ltmp1502:
Ltmp1520:
	movq	24(%r15), %rdi
Ltmp1521:
	.loc	20 102 5 is_stmt 1
	movl	$384, %esi
	movl	$8, %edx
	callq	___rust_dealloc
Ltmp1522:
LBB36_13:
	.loc	5 178 1
	addq	$32, %r15
Ltmp1523:
	movq	%r15, %rdi
	popq	%rbx
	popq	%r12
	popq	%r14
	popq	%r15
	popq	%rbp
	jmp	__ZN4core3ptr13drop_in_place17h03cd8ca5bdf107c2E
LBB36_16:
Ltmp1524:
Ltmp1503:
	.loc	5 0 1 is_stmt 0
	movq	%rax, %r14
Ltmp1525:
	.loc	5 178 1
	movq	24(%r15), %rdi
	callq	__ZN5alloc5alloc8box_free17hbee5418459fd2d09E
	jmp	LBB36_18
Ltmp1526:
LBB36_1:
Ltmp1494:
	.loc	5 0 1
	movq	%rax, %r14
Ltmp1527:
	.loc	5 178 1
	testq	%r12, %r12
	je	LBB36_15
Ltmp1528:
	.p2align	4, 0x90
LBB36_2:
Ltmp1495:
	movq	%rbx, %rdi
	callq	__ZN4core3ptr13drop_in_place17h67b885ce8ac30837E
Ltmp1496:
Ltmp1529:
	addq	$392, %rbx
	addq	$-392, %r12
	jne	LBB36_2
	jmp	LBB36_15
Ltmp1530:
LBB36_14:
Ltmp1497:
	.loc	5 0 1
	movq	%rax, %r14
Ltmp1531:
LBB36_15:
	.loc	5 178 1
	movq	(%r15), %rdi
	movq	8(%r15), %rsi
	callq	__ZN4core3ptr13drop_in_place17h6ab9b023a551dfa3E
Ltmp1532:
	.loc	5 178 1
	leaq	24(%r15), %rdi
Ltmp1498:
	callq	__ZN4core3ptr13drop_in_place17h6278b6649a39e3c3E
Ltmp1499:
Ltmp1533:
LBB36_18:
	.loc	5 178 1
	addq	$32, %r15
Ltmp1534:
	movq	%r15, %rdi
	callq	__ZN4core3ptr13drop_in_place17h03cd8ca5bdf107c2E
	movq	%r14, %rdi
	callq	__Unwind_Resume
	ud2
Ltmp1535:
LBB36_17:
Ltmp1500:
	.loc	5 0 1
	movq	%rax, %r14
	jmp	LBB36_18
Lfunc_end36:
	.cfi_endproc
	.section	__TEXT,__gcc_except_tab
	.p2align	2
GCC_except_table36:
Lexception15:
	.byte	255
	.byte	255
	.byte	1
	.uleb128 Lcst_end15-Lcst_begin15
Lcst_begin15:
	.uleb128 Ltmp1492-Lfunc_begin36
	.uleb128 Ltmp1493-Ltmp1492
	.uleb128 Ltmp1494-Lfunc_begin36
	.byte	0
	.uleb128 Ltmp1501-Lfunc_begin36
	.uleb128 Ltmp1502-Ltmp1501
	.uleb128 Ltmp1503-Lfunc_begin36
	.byte	0
	.uleb128 Ltmp1502-Lfunc_begin36
	.uleb128 Ltmp1495-Ltmp1502
	.byte	0
	.byte	0
	.uleb128 Ltmp1495-Lfunc_begin36
	.uleb128 Ltmp1496-Ltmp1495
	.uleb128 Ltmp1497-Lfunc_begin36
	.byte	0
	.uleb128 Ltmp1498-Lfunc_begin36
	.uleb128 Ltmp1499-Ltmp1498
	.uleb128 Ltmp1500-Lfunc_begin36
	.byte	0
	.uleb128 Ltmp1499-Lfunc_begin36
	.uleb128 Lfunc_end36-Ltmp1499
	.byte	0
	.byte	0
Lcst_end15:
	.p2align	2

	.section	__TEXT,__text,regular,pure_instructions
	.p2align	4, 0x90
__ZN4core3ptr13drop_in_place17h1b592b6a56219f62E:
Lfunc_begin37:
	.loc	5 178 0 is_stmt 1
	.cfi_startproc
	.cfi_personality 155, _rust_eh_personality
	.cfi_lsda 16, Lexception16
	pushq	%rbp
	.cfi_def_cfa_offset 16
	.cfi_offset %rbp, -16
	movq	%rsp, %rbp
	.cfi_def_cfa_register %rbp
	pushq	%r14
	pushq	%rbx
	.cfi_offset %rbx, -32
	.cfi_offset %r14, -24
	movq	%rdi, %rbx
Ltmp1542:
	.loc	5 178 1 prologue_end
	movq	(%rdi), %rax
	cmpq	$1, %rax
	je	LBB37_3
Ltmp1543:
	testq	%rax, %rax
	jne	LBB37_6
Ltmp1544:
	addq	$8, %rbx
Ltmp1545:
	.loc	5 178 1 is_stmt 0
	movq	%rbx, %rdi
	popq	%rbx
Ltmp1546:
	popq	%r14
	popq	%rbp
	jmp	__ZN4core3ptr13drop_in_place17h77634634be9e535eE
Ltmp1547:
LBB37_3:
	.loc	5 178 1
	leaq	8(%rbx), %rdi
Ltmp1548:
Ltmp1536:
	.loc	5 178 1
	callq	__ZN4core3ptr13drop_in_place17h77634634be9e535eE
Ltmp1549:
Ltmp1537:
	.loc	5 178 1
	addq	$56, %rbx
Ltmp1550:
	movq	%rbx, %rdi
	popq	%rbx
	popq	%r14
	popq	%rbp
	jmp	__ZN4core3ptr13drop_in_place17h1799caa629705a2eE
Ltmp1551:
LBB37_6:
	.loc	5 178 1
	leaq	8(%rbx), %rdi
Ltmp1552:
Ltmp1539:
	.loc	5 178 1
	callq	__ZN4core3ptr13drop_in_place17h77634634be9e535eE
Ltmp1553:
Ltmp1540:
	.loc	5 178 1
	addq	$56, %rbx
Ltmp1554:
	movq	%rbx, %rdi
	popq	%rbx
	popq	%r14
	popq	%rbp
	jmp	__ZN4core3ptr13drop_in_place17h0e014c8b442f4af3E
LBB37_5:
Ltmp1555:
Ltmp1541:
	.loc	5 0 1
	movq	%rax, %r14
	.loc	5 178 1
	addq	$56, %rbx
Ltmp1556:
	movq	%rbx, %rdi
	callq	__ZN4core3ptr13drop_in_place17h0e014c8b442f4af3E
	movq	%r14, %rdi
	callq	__Unwind_Resume
	ud2
Ltmp1557:
LBB37_8:
Ltmp1538:
	.loc	5 0 1
	movq	%rax, %r14
Ltmp1558:
	.loc	5 178 1
	addq	$56, %rbx
Ltmp1559:
	movq	%rbx, %rdi
	callq	__ZN4core3ptr13drop_in_place17h1799caa629705a2eE
	movq	%r14, %rdi
	callq	__Unwind_Resume
	ud2
Ltmp1560:
Lfunc_end37:
	.cfi_endproc
	.section	__TEXT,__gcc_except_tab
	.p2align	2
GCC_except_table37:
Lexception16:
	.byte	255
	.byte	255
	.byte	1
	.uleb128 Lcst_end16-Lcst_begin16
Lcst_begin16:
	.uleb128 Lfunc_begin37-Lfunc_begin37
	.uleb128 Ltmp1536-Lfunc_begin37
	.byte	0
	.byte	0
	.uleb128 Ltmp1536-Lfunc_begin37
	.uleb128 Ltmp1537-Ltmp1536
	.uleb128 Ltmp1538-Lfunc_begin37
	.byte	0
	.uleb128 Ltmp1537-Lfunc_begin37
	.uleb128 Ltmp1539-Ltmp1537
	.byte	0
	.byte	0
	.uleb128 Ltmp1539-Lfunc_begin37
	.uleb128 Ltmp1540-Ltmp1539
	.uleb128 Ltmp1541-Lfunc_begin37
	.byte	0
	.uleb128 Ltmp1540-Lfunc_begin37
	.uleb128 Lfunc_end37-Ltmp1540
	.byte	0
	.byte	0
Lcst_end16:
	.p2align	2

	.section	__TEXT,__text,regular,pure_instructions
	.p2align	4, 0x90
__ZN4core3ptr13drop_in_place17h1c6bc1bd5cefdd10E:
Lfunc_begin38:
	.loc	5 178 0 is_stmt 1
	.cfi_startproc
	pushq	%rbp
	.cfi_def_cfa_offset 16
	.cfi_offset %rbp, -16
	movq	%rsp, %rbp
	.cfi_def_cfa_register %rbp
Ltmp1561:
	.loc	19 200 40 prologue_end
	testq	%rsi, %rsi
	.loc	19 200 9 is_stmt 0
	je	LBB38_3
Ltmp1562:
	.loc	19 532 16 is_stmt 1
	testq	%rdi, %rdi
Ltmp1563:
	je	LBB38_3
Ltmp1564:
	.loc	19 0 0 is_stmt 0
	shlq	$3, %rsi
	leaq	(%rsi,%rsi,4), %rsi
Ltmp1565:
	.loc	19 532 16
	testq	%rsi, %rsi
	je	LBB38_3
Ltmp1566:
	.loc	20 102 5 is_stmt 1
	movl	$8, %edx
	popq	%rbp
	jmp	___rust_dealloc
Ltmp1567:
LBB38_3:
	.loc	5 178 1
	popq	%rbp
	retq
Ltmp1568:
Lfunc_end38:
	.cfi_endproc

	.p2align	4, 0x90
__ZN4core3ptr13drop_in_place17h1c7567cda153c8c1E:
Lfunc_begin39:
	.loc	5 178 0
	.cfi_startproc
	pushq	%rbp
	.cfi_def_cfa_offset 16
	.cfi_offset %rbp, -16
	movq	%rsp, %rbp
	.cfi_def_cfa_register %rbp
Ltmp1569:
	.loc	5 178 1 prologue_end
	popq	%rbp
	jmp	__ZN4core3ptr13drop_in_place17hada03c57a8aeb8f6E
Ltmp1570:
Lfunc_end39:
	.cfi_endproc

	.p2align	4, 0x90
__ZN4core3ptr13drop_in_place17h1dee087616f777ddE:
Lfunc_begin40:
	.loc	5 178 0
	.cfi_startproc
	pushq	%rbp
	.cfi_def_cfa_offset 16
	.cfi_offset %rbp, -16
	movq	%rsp, %rbp
	.cfi_def_cfa_register %rbp
Ltmp1571:
	.loc	28 1346 12 prologue_end
	movq	(%rdi), %rax
Ltmp1572:
	.loc	29 2314 20
	lock		decq	(%rax)
Ltmp1573:
	.loc	28 1346 9
	jne	LBB40_1
Ltmp1574:
	.loc	29 2563 24
	##MEMBARRIER
Ltmp1575:
	.loc	28 1381 13
	popq	%rbp
	jmp	__ZN5alloc4sync12Arc$LT$T$GT$9drop_slow17h0b4f40e6ae7bd116E
Ltmp1576:
LBB40_1:
	.loc	5 178 1
	popq	%rbp
	retq
Ltmp1577:
Lfunc_end40:
	.cfi_endproc

	.p2align	4, 0x90
__ZN4core3ptr13drop_in_place17h1f632c9373c81b53E:
Lfunc_begin41:
	.loc	5 178 0
	.cfi_startproc
	.cfi_personality 155, _rust_eh_personality
	.cfi_lsda 16, Lexception17
	pushq	%rbp
	.cfi_def_cfa_offset 16
	.cfi_offset %rbp, -16
	movq	%rsp, %rbp
	.cfi_def_cfa_register %rbp
	pushq	%r14
	pushq	%rbx
	.cfi_offset %rbx, -32
	.cfi_offset %r14, -24
	movq	%rdi, %rbx
Ltmp1581:
Ltmp1578:
	.loc	5 178 1 prologue_end
	callq	__ZN65_$LT$syn..parse..ParseBuffer$u20$as$u20$core..ops..drop..Drop$GT$4drop17h88d650bb8376a972E
Ltmp1579:
Ltmp1582:
	.loc	5 178 1 is_stmt 0
	movq	16(%rbx), %rax
Ltmp1583:
	testq	%rax, %rax
	je	LBB41_4
Ltmp1584:
	.loc	4 2058 5 is_stmt 1
	decq	(%rax)
Ltmp1585:
	.file	50 "/rustc/a74d1862d4d87a56244958416fd05976c58ca1a8/src/liballoc/rc.rs"
	.loc	50 1148 16
	movq	16(%rbx), %rdi
Ltmp1586:
	cmpq	$0, (%rdi)
	.loc	50 1148 13 is_stmt 0
	jne	LBB41_4
Ltmp1587:
	.loc	5 178 1 is_stmt 1
	addq	$16, %rdi
Ltmp1588:
	callq	__ZN4core3ptr13drop_in_place17h266995f93f3dd31eE
Ltmp1589:
	.loc	50 1154 17
	movq	16(%rbx), %rax
Ltmp1590:
	.loc	4 2058 5
	decq	8(%rax)
Ltmp1591:
	.loc	50 1156 20
	movq	16(%rbx), %rdi
Ltmp1592:
	cmpq	$0, 8(%rdi)
	.loc	50 1156 17 is_stmt 0
	je	LBB41_6
Ltmp1593:
LBB41_4:
	.loc	5 178 1 is_stmt 1
	popq	%rbx
Ltmp1594:
	popq	%r14
	popq	%rbp
	retq
LBB41_6:
Ltmp1595:
	.loc	20 102 5
	movl	$32, %esi
	movl	$8, %edx
	popq	%rbx
Ltmp1596:
	popq	%r14
	popq	%rbp
	jmp	___rust_dealloc
Ltmp1597:
LBB41_5:
Ltmp1580:
	.loc	20 0 5 is_stmt 0
	movq	%rax, %r14
	.loc	5 178 1 is_stmt 1
	addq	$16, %rbx
Ltmp1598:
	movq	%rbx, %rdi
	callq	__ZN4core3ptr13drop_in_place17hef06fece2a14b870E
	movq	%r14, %rdi
	callq	__Unwind_Resume
	ud2
Ltmp1599:
Lfunc_end41:
	.cfi_endproc
	.section	__TEXT,__gcc_except_tab
	.p2align	2
GCC_except_table41:
Lexception17:
	.byte	255
	.byte	255
	.byte	1
	.uleb128 Lcst_end17-Lcst_begin17
Lcst_begin17:
	.uleb128 Ltmp1578-Lfunc_begin41
	.uleb128 Ltmp1579-Ltmp1578
	.uleb128 Ltmp1580-Lfunc_begin41
	.byte	0
	.uleb128 Ltmp1579-Lfunc_begin41
	.uleb128 Lfunc_end41-Ltmp1579
	.byte	0
	.byte	0
Lcst_end17:
	.p2align	2

	.section	__TEXT,__text,regular,pure_instructions
	.p2align	4, 0x90
__ZN4core3ptr13drop_in_place17h21055b352ad1a542E:
Lfunc_begin42:
	.loc	5 178 0
	.cfi_startproc
	pushq	%rbp
	.cfi_def_cfa_offset 16
	.cfi_offset %rbp, -16
	movq	%rsp, %rbp
	.cfi_def_cfa_register %rbp
Ltmp1600:
	.loc	19 200 40 prologue_end
	testq	%rsi, %rsi
	.loc	19 200 9 is_stmt 0
	je	LBB42_3
Ltmp1601:
	.loc	19 532 16 is_stmt 1
	testq	%rdi, %rdi
Ltmp1602:
	je	LBB42_3
Ltmp1603:
	.loc	19 0 0 is_stmt 0
	shlq	$7, %rsi
Ltmp1604:
	.loc	19 532 16
	je	LBB42_3
Ltmp1605:
	.loc	20 102 5 is_stmt 1
	movl	$8, %edx
	popq	%rbp
	jmp	___rust_dealloc
Ltmp1606:
LBB42_3:
	.loc	5 178 1
	popq	%rbp
	retq
Ltmp1607:
Lfunc_end42:
	.cfi_endproc

	.p2align	4, 0x90
__ZN4core3ptr13drop_in_place17h251faff4ea60a9a6E:
Lfunc_begin43:
	.loc	5 178 0
	.cfi_startproc
	.cfi_personality 155, _rust_eh_personality
	.cfi_lsda 16, Lexception18
	pushq	%rbp
	.cfi_def_cfa_offset 16
	.cfi_offset %rbp, -16
	movq	%rsp, %rbp
	.cfi_def_cfa_register %rbp
Ltmp1749:
	pushq	%r15
	pushq	%r14
	pushq	%r13
	pushq	%r12
	pushq	%rbx
	subq	$24, %rsp
	.cfi_offset %rbx, -56
	.cfi_offset %r12, -48
	.cfi_offset %r13, -40
	.cfi_offset %r14, -32
	.cfi_offset %r15, -24
	.loc	5 178 1 prologue_end
	movq	(%rdi), %rax
	addq	$-5, %rax
	cmpq	$32, %rax
	ja	LBB43_87
Ltmp1750:
	.loc	5 0 1 is_stmt 0
	leaq	LJTI43_0(%rip), %rcx
	movslq	(%rcx,%rax,4), %rax
	addq	%rcx, %rax
	jmpq	*%rax
Ltmp1751:
LBB43_7:
	.loc	18 850 19 is_stmt 1
	movq	8(%rdi), %r12
Ltmp1752:
	.loc	18 0 19 is_stmt 0
	movq	%rdi, -48(%rbp)
Ltmp1753:
	.loc	5 178 1 is_stmt 1
	imulq	$104, 24(%rdi), %rax
	addq	$-104, %rax
	xorl	%r15d, %r15d
	movq	%r12, %rbx
Ltmp1754:
	.p2align	4, 0x90
LBB43_8:
	cmpq	$-104, %rax
	je	LBB43_9
Ltmp1755:
	.loc	5 0 0 is_stmt 0
	movq	%rax, %r13
Ltmp1674:
Ltmp1756:
	.loc	5 178 1
	movq	%rbx, %rdi
Ltmp1757:
	callq	__ZN4core3ptr13drop_in_place17h77634634be9e535eE
Ltmp1675:
Ltmp1758:
	.loc	5 0 0
	leaq	104(%rbx), %rax
	movq	%rax, -64(%rbp)
Ltmp1759:
	.loc	5 178 1
	addq	$48, %rbx
Ltmp1760:
	leaq	-104(%r13), %rax
	movq	%rax, -56(%rbp)
	movq	%r15, %r14
	addq	$-104, %r15
Ltmp1680:
	movq	%rbx, %rdi
	callq	__ZN4core3ptr13drop_in_place17hd09c695a35000682E
	movq	-56(%rbp), %rax
Ltmp1681:
	movq	-64(%rbp), %rbx
	jmp	LBB43_8
Ltmp1761:
LBB43_57:
	.loc	18 850 19 is_stmt 1
	movq	8(%rdi), %r12
Ltmp1762:
	.loc	18 0 19 is_stmt 0
	movq	%rdi, -48(%rbp)
Ltmp1763:
	.loc	5 178 1 is_stmt 1
	imulq	$104, 24(%rdi), %rcx
Ltmp1764:
	addq	$-104, %rcx
	xorl	%r15d, %r15d
	movq	%r12, %rbx
Ltmp1765:
	.p2align	4, 0x90
LBB43_58:
	cmpq	$-104, %rcx
	je	LBB43_59
Ltmp1766:
	.loc	5 0 0 is_stmt 0
	movq	%rcx, %r13
Ltmp1623:
Ltmp1767:
	.loc	5 178 1
	movq	%rbx, %rdi
	callq	__ZN4core3ptr13drop_in_place17h77634634be9e535eE
Ltmp1624:
Ltmp1768:
	.loc	5 0 0
	leaq	104(%rbx), %rax
	movq	%rax, -64(%rbp)
Ltmp1769:
	.loc	5 178 1
	addq	$48, %rbx
Ltmp1770:
	leaq	-104(%r13), %rax
	movq	%rax, -56(%rbp)
	movq	%r15, %r14
	addq	$-104, %r15
Ltmp1629:
	movq	%rbx, %rdi
	callq	__ZN4core3ptr13drop_in_place17hd09c695a35000682E
	movq	-56(%rbp), %rcx
Ltmp1630:
	movq	-64(%rbp), %rbx
	jmp	LBB43_58
Ltmp1771:
LBB43_125:
	.loc	18 850 19 is_stmt 1
	movq	8(%rdi), %r12
Ltmp1772:
	.loc	18 0 19 is_stmt 0
	movq	%rdi, -48(%rbp)
Ltmp1773:
	.loc	5 178 1 is_stmt 1
	imulq	$104, 24(%rdi), %rcx
Ltmp1774:
	addq	$-104, %rcx
	xorl	%r15d, %r15d
	movq	%r12, %rbx
Ltmp1775:
	.p2align	4, 0x90
LBB43_126:
	cmpq	$-104, %rcx
	je	LBB43_127
Ltmp1776:
	.loc	5 0 0 is_stmt 0
	movq	%rcx, %r13
Ltmp1692:
Ltmp1777:
	.loc	5 178 1
	movq	%rbx, %rdi
	callq	__ZN4core3ptr13drop_in_place17h77634634be9e535eE
Ltmp1693:
Ltmp1778:
	.loc	5 0 0
	leaq	104(%rbx), %rax
	movq	%rax, -64(%rbp)
Ltmp1779:
	.loc	5 178 1
	addq	$48, %rbx
Ltmp1780:
	leaq	-104(%r13), %rax
	movq	%rax, -56(%rbp)
	movq	%r15, %r14
	addq	$-104, %r15
Ltmp1698:
	movq	%rbx, %rdi
	callq	__ZN4core3ptr13drop_in_place17hd09c695a35000682E
	movq	-56(%rbp), %rcx
Ltmp1699:
	movq	-64(%rbp), %rbx
	jmp	LBB43_126
Ltmp1781:
LBB43_36:
	.loc	18 850 19 is_stmt 1
	movq	8(%rdi), %r12
Ltmp1782:
	.loc	18 0 19 is_stmt 0
	movq	%rdi, -48(%rbp)
Ltmp1783:
	.loc	5 178 1 is_stmt 1
	imulq	$104, 24(%rdi), %rcx
Ltmp1784:
	addq	$-104, %rcx
	xorl	%r15d, %r15d
	movq	%r12, %rbx
Ltmp1785:
	.p2align	4, 0x90
LBB43_37:
	cmpq	$-104, %rcx
	je	LBB43_38
Ltmp1786:
	.loc	5 0 0 is_stmt 0
	movq	%rcx, %r13
Ltmp1608:
Ltmp1787:
	.loc	5 178 1
	movq	%rbx, %rdi
	callq	__ZN4core3ptr13drop_in_place17h77634634be9e535eE
Ltmp1609:
Ltmp1788:
	.loc	5 0 0
	leaq	104(%rbx), %rax
	movq	%rax, -64(%rbp)
Ltmp1789:
	.loc	5 178 1
	addq	$48, %rbx
Ltmp1790:
	leaq	-104(%r13), %rax
	movq	%rax, -56(%rbp)
	movq	%r15, %r14
	addq	$-104, %r15
Ltmp1614:
	movq	%rbx, %rdi
	callq	__ZN4core3ptr13drop_in_place17hd09c695a35000682E
	movq	-56(%rbp), %rcx
Ltmp1615:
	movq	-64(%rbp), %rbx
	jmp	LBB43_37
Ltmp1791:
LBB43_143:
	.loc	18 850 19 is_stmt 1
	movq	8(%rdi), %r12
Ltmp1792:
	.loc	18 0 19 is_stmt 0
	movq	%rdi, -48(%rbp)
Ltmp1793:
	.loc	5 178 1 is_stmt 1
	imulq	$104, 24(%rdi), %rcx
Ltmp1794:
	addq	$-104, %rcx
	xorl	%r15d, %r15d
	movq	%r12, %rbx
Ltmp1795:
	.p2align	4, 0x90
LBB43_144:
	cmpq	$-104, %rcx
	je	LBB43_145
Ltmp1796:
	.loc	5 0 0 is_stmt 0
	movq	%rcx, %r13
Ltmp1704:
Ltmp1797:
	.loc	5 178 1
	movq	%rbx, %rdi
	callq	__ZN4core3ptr13drop_in_place17h77634634be9e535eE
Ltmp1705:
Ltmp1798:
	.loc	5 0 0
	leaq	104(%rbx), %rax
	movq	%rax, -64(%rbp)
Ltmp1799:
	.loc	5 178 1
	addq	$48, %rbx
Ltmp1800:
	leaq	-104(%r13), %rax
	movq	%rax, -56(%rbp)
	movq	%r15, %r14
	addq	$-104, %r15
Ltmp1710:
	movq	%rbx, %rdi
	callq	__ZN4core3ptr13drop_in_place17hd09c695a35000682E
	movq	-56(%rbp), %rcx
Ltmp1711:
	movq	-64(%rbp), %rbx
	jmp	LBB43_144
Ltmp1801:
LBB43_165:
	.loc	18 850 19 is_stmt 1
	movq	8(%rdi), %r12
Ltmp1802:
	.loc	18 0 19 is_stmt 0
	movq	%rdi, -48(%rbp)
Ltmp1803:
	.loc	5 178 1 is_stmt 1
	imulq	$104, 24(%rdi), %rcx
Ltmp1804:
	addq	$-104, %rcx
	xorl	%r15d, %r15d
	movq	%r12, %rbx
Ltmp1805:
	.p2align	4, 0x90
LBB43_166:
	cmpq	$-104, %rcx
	je	LBB43_167
Ltmp1806:
	.loc	5 0 0 is_stmt 0
	movq	%rcx, %r13
Ltmp1719:
Ltmp1807:
	.loc	5 178 1
	movq	%rbx, %rdi
	callq	__ZN4core3ptr13drop_in_place17h77634634be9e535eE
Ltmp1720:
Ltmp1808:
	.loc	5 0 0
	leaq	104(%rbx), %rax
	movq	%rax, -64(%rbp)
Ltmp1809:
	.loc	5 178 1
	addq	$48, %rbx
Ltmp1810:
	leaq	-104(%r13), %rax
	movq	%rax, -56(%rbp)
	movq	%r15, %r14
	addq	$-104, %r15
Ltmp1725:
	movq	%rbx, %rdi
	callq	__ZN4core3ptr13drop_in_place17hd09c695a35000682E
	movq	-56(%rbp), %rcx
Ltmp1726:
	movq	-64(%rbp), %rbx
	jmp	LBB43_166
Ltmp1811:
LBB43_79:
	.loc	18 850 19 is_stmt 1
	movq	8(%rdi), %r12
Ltmp1812:
	.loc	18 0 19 is_stmt 0
	movq	%rdi, -48(%rbp)
Ltmp1813:
	.loc	5 178 1 is_stmt 1
	imulq	$104, 24(%rdi), %rcx
Ltmp1814:
	addq	$-104, %rcx
	xorl	%r15d, %r15d
	movq	%r12, %rbx
Ltmp1815:
	.p2align	4, 0x90
LBB43_80:
	cmpq	$-104, %rcx
	je	LBB43_81
Ltmp1816:
	.loc	5 0 0 is_stmt 0
	movq	%rcx, %r13
Ltmp1641:
Ltmp1817:
	.loc	5 178 1
	movq	%rbx, %rdi
	callq	__ZN4core3ptr13drop_in_place17h77634634be9e535eE
Ltmp1642:
Ltmp1818:
	.loc	5 0 0
	leaq	104(%rbx), %rax
	movq	%rax, -64(%rbp)
Ltmp1819:
	.loc	5 178 1
	addq	$48, %rbx
Ltmp1820:
	leaq	-104(%r13), %rax
	movq	%rax, -56(%rbp)
	movq	%r15, %r14
	addq	$-104, %r15
Ltmp1647:
	movq	%rbx, %rdi
	callq	__ZN4core3ptr13drop_in_place17hd09c695a35000682E
	movq	-56(%rbp), %rcx
Ltmp1648:
	movq	-64(%rbp), %rbx
	jmp	LBB43_80
Ltmp1821:
LBB43_105:
	.loc	18 850 19 is_stmt 1
	movq	8(%rdi), %r12
Ltmp1822:
	.loc	18 0 19 is_stmt 0
	movq	%rdi, -48(%rbp)
Ltmp1823:
	.loc	5 178 1 is_stmt 1
	imulq	$104, 24(%rdi), %rcx
Ltmp1824:
	addq	$-104, %rcx
	xorl	%r15d, %r15d
	movq	%r12, %rbx
Ltmp1825:
	.p2align	4, 0x90
LBB43_106:
	cmpq	$-104, %rcx
	je	LBB43_107
Ltmp1826:
	.loc	5 0 0 is_stmt 0
	movq	%rcx, %r13
Ltmp1656:
Ltmp1827:
	.loc	5 178 1
	movq	%rbx, %rdi
	callq	__ZN4core3ptr13drop_in_place17h77634634be9e535eE
Ltmp1657:
Ltmp1828:
	.loc	5 0 0
	leaq	104(%rbx), %rax
	movq	%rax, -64(%rbp)
Ltmp1829:
	.loc	5 178 1
	addq	$48, %rbx
Ltmp1830:
	leaq	-104(%r13), %rax
	movq	%rax, -56(%rbp)
	movq	%r15, %r14
	addq	$-104, %r15
Ltmp1662:
	movq	%rbx, %rdi
	callq	__ZN4core3ptr13drop_in_place17hd09c695a35000682E
	movq	-56(%rbp), %rcx
Ltmp1663:
	movq	-64(%rbp), %rbx
	jmp	LBB43_106
Ltmp1831:
LBB43_201:
	.loc	5 178 1
	addq	$8, %rdi
Ltmp1832:
	addq	$24, %rsp
	popq	%rbx
	popq	%r12
	popq	%r13
	popq	%r14
	popq	%r15
	popq	%rbp
	jmp	__ZN4core3ptr13drop_in_place17hd09c695a35000682E
LBB43_188:
Ltmp1833:
	.loc	18 850 19 is_stmt 1
	movq	8(%rdi), %r12
Ltmp1834:
	.loc	18 0 19 is_stmt 0
	movq	%rdi, -48(%rbp)
Ltmp1835:
	.loc	5 178 1 is_stmt 1
	imulq	$104, 24(%rdi), %rcx
Ltmp1836:
	addq	$-104, %rcx
	xorl	%r15d, %r15d
	movq	%r12, %rbx
Ltmp1837:
	.p2align	4, 0x90
LBB43_189:
	cmpq	$-104, %rcx
	je	LBB43_190
Ltmp1838:
	.loc	5 0 0 is_stmt 0
	movq	%rcx, %r13
Ltmp1734:
Ltmp1839:
	.loc	5 178 1
	movq	%rbx, %rdi
	callq	__ZN4core3ptr13drop_in_place17h77634634be9e535eE
Ltmp1735:
Ltmp1840:
	.loc	5 0 0
	leaq	104(%rbx), %rax
	movq	%rax, -64(%rbp)
Ltmp1841:
	.loc	5 178 1
	addq	$48, %rbx
Ltmp1842:
	leaq	-104(%r13), %rax
	movq	%rax, -56(%rbp)
	movq	%r15, %r14
	addq	$-104, %r15
Ltmp1740:
	movq	%rbx, %rdi
	callq	__ZN4core3ptr13drop_in_place17hd09c695a35000682E
	movq	-56(%rbp), %rcx
Ltmp1741:
	movq	-64(%rbp), %rbx
	jmp	LBB43_189
Ltmp1843:
LBB43_59:
	.loc	5 0 1
	movq	-48(%rbp), %rbx
Ltmp1844:
	.loc	5 178 1
	movq	16(%rbx), %rax
Ltmp1845:
	.loc	19 200 40 is_stmt 1
	testq	%rax, %rax
	.loc	19 200 9 is_stmt 0
	je	LBB43_63
Ltmp1846:
	.loc	5 0 0
	movq	8(%rbx), %rdi
Ltmp1847:
	.loc	19 532 16 is_stmt 1
	testq	%rdi, %rdi
Ltmp1848:
	je	LBB43_63
Ltmp1849:
	.loc	19 0 0 is_stmt 0
	imulq	$104, %rax, %rsi
Ltmp1850:
	.loc	19 532 16
	testq	%rsi, %rsi
	je	LBB43_63
Ltmp1851:
	.loc	20 102 5 is_stmt 1
	movl	$8, %edx
	callq	___rust_dealloc
Ltmp1852:
LBB43_63:
	.loc	5 178 1
	movq	32(%rbx), %rdi
Ltmp1635:
	callq	__ZN4core3ptr13drop_in_place17h251faff4ea60a9a6E
Ltmp1636:
Ltmp1853:
	movq	32(%rbx), %rdi
Ltmp1854:
	.loc	20 102 5
	movl	$112, %esi
	movl	$8, %edx
	callq	___rust_dealloc
Ltmp1855:
	.loc	5 178 1
	movq	40(%rbx), %rdi
Ltmp1638:
	callq	__ZN4core3ptr13drop_in_place17h4cf03e8b23c4b321E
Ltmp1639:
Ltmp1856:
	movq	40(%rbx), %rdi
Ltmp1857:
	.loc	20 102 5
	movl	$184, %esi
	jmp	LBB43_17
Ltmp1858:
LBB43_127:
	.loc	20 0 5 is_stmt 0
	movq	-48(%rbp), %rbx
Ltmp1859:
	.loc	5 178 1 is_stmt 1
	movq	16(%rbx), %rax
Ltmp1860:
	.loc	19 200 40
	testq	%rax, %rax
	.loc	19 200 9 is_stmt 0
	je	LBB43_131
Ltmp1861:
	.loc	5 0 0
	movq	8(%rbx), %rdi
Ltmp1862:
	.loc	19 532 16 is_stmt 1
	testq	%rdi, %rdi
Ltmp1863:
	je	LBB43_131
Ltmp1864:
	.loc	19 0 0 is_stmt 0
	imulq	$104, %rax, %rsi
Ltmp1865:
	.loc	19 532 16
	testq	%rsi, %rsi
	je	LBB43_131
Ltmp1866:
	.loc	20 102 5 is_stmt 1
	movl	$8, %edx
	callq	___rust_dealloc
Ltmp1867:
LBB43_131:
	.loc	5 178 1
	addq	$32, %rbx
	movq	%rbx, %rdi
	addq	$24, %rsp
	popq	%rbx
	popq	%r12
	popq	%r13
	popq	%r14
	popq	%r15
	popq	%rbp
	jmp	__ZN4core3ptr13drop_in_place17h0e014c8b442f4af3E
Ltmp1868:
LBB43_9:
	.loc	5 0 1 is_stmt 0
	movq	-48(%rbp), %rbx
Ltmp1869:
	.loc	5 178 1
	movq	16(%rbx), %rax
Ltmp1870:
	.loc	19 200 40 is_stmt 1
	testq	%rax, %rax
	.loc	19 200 9 is_stmt 0
	je	LBB43_13
Ltmp1871:
	.loc	5 0 0
	movq	8(%rbx), %rdi
Ltmp1872:
	.loc	19 532 16 is_stmt 1
	testq	%rdi, %rdi
Ltmp1873:
	je	LBB43_13
Ltmp1874:
	.loc	19 0 0 is_stmt 0
	imulq	$104, %rax, %rsi
Ltmp1875:
	.loc	19 532 16
	testq	%rsi, %rsi
	je	LBB43_13
Ltmp1876:
	.loc	20 102 5 is_stmt 1
	movl	$8, %edx
	callq	___rust_dealloc
Ltmp1877:
LBB43_13:
	.loc	5 178 1
	movq	32(%rbx), %rdi
Ltmp1686:
	callq	__ZN4core3ptr13drop_in_place17h251faff4ea60a9a6E
Ltmp1687:
Ltmp1878:
	movq	32(%rbx), %rdi
Ltmp1879:
	.loc	20 102 5
	movl	$112, %esi
	movl	$8, %edx
	callq	___rust_dealloc
Ltmp1880:
	.loc	5 178 1
	movq	40(%rbx), %rdi
Ltmp1689:
	callq	__ZN4core3ptr13drop_in_place17h251faff4ea60a9a6E
Ltmp1690:
	jmp	LBB43_15
Ltmp1881:
LBB43_38:
	.loc	5 0 1 is_stmt 0
	movq	-48(%rbp), %rbx
Ltmp1882:
	.loc	5 178 1
	movq	16(%rbx), %rax
Ltmp1883:
	.loc	19 200 40 is_stmt 1
	testq	%rax, %rax
	.loc	19 200 9 is_stmt 0
	je	LBB43_42
Ltmp1884:
	.loc	5 0 0
	movq	8(%rbx), %rdi
Ltmp1885:
	.loc	19 532 16 is_stmt 1
	testq	%rdi, %rdi
Ltmp1886:
	je	LBB43_42
Ltmp1887:
	.loc	19 0 0 is_stmt 0
	imulq	$104, %rax, %rsi
Ltmp1888:
	.loc	19 532 16
	testq	%rsi, %rsi
	je	LBB43_42
Ltmp1889:
	.loc	20 102 5 is_stmt 1
	movl	$8, %edx
	callq	___rust_dealloc
Ltmp1890:
LBB43_42:
	.loc	5 178 1
	movq	32(%rbx), %rdi
Ltmp1620:
	callq	__ZN4core3ptr13drop_in_place17h251faff4ea60a9a6E
Ltmp1621:
Ltmp1891:
	movq	32(%rbx), %rdi
Ltmp1892:
	.loc	20 102 5
	movl	$112, %esi
	movl	$8, %edx
	callq	___rust_dealloc
Ltmp1893:
	.loc	5 178 1
	addq	$40, %rbx
	movq	%rbx, %rdi
	addq	$24, %rsp
	popq	%rbx
	popq	%r12
	popq	%r13
	popq	%r14
	popq	%r15
	popq	%rbp
	jmp	__ZN4core3ptr13drop_in_place17h529a4aa94cb267b2E
Ltmp1894:
LBB43_145:
	.loc	5 0 1 is_stmt 0
	movq	-48(%rbp), %rbx
Ltmp1895:
	.loc	5 178 1
	movq	16(%rbx), %rax
Ltmp1896:
	.loc	19 200 40 is_stmt 1
	testq	%rax, %rax
	.loc	19 200 9 is_stmt 0
	je	LBB43_149
Ltmp1897:
	.loc	5 0 0
	movq	8(%rbx), %rdi
Ltmp1898:
	.loc	19 532 16 is_stmt 1
	testq	%rdi, %rdi
Ltmp1899:
	je	LBB43_149
Ltmp1900:
	.loc	19 0 0 is_stmt 0
	imulq	$104, %rax, %rsi
Ltmp1901:
	.loc	19 532 16
	testq	%rsi, %rsi
	je	LBB43_149
Ltmp1902:
	.loc	20 102 5 is_stmt 1
	movl	$8, %edx
	callq	___rust_dealloc
Ltmp1903:
LBB43_149:
	.loc	5 178 1
	movq	32(%rbx), %rdi
Ltmp1716:
	callq	__ZN4core3ptr13drop_in_place17h251faff4ea60a9a6E
Ltmp1717:
	jmp	LBB43_150
Ltmp1904:
LBB43_167:
	.loc	5 0 1 is_stmt 0
	movq	-48(%rbp), %rbx
Ltmp1905:
	.loc	5 178 1
	movq	16(%rbx), %rax
Ltmp1906:
	.loc	19 200 40 is_stmt 1
	testq	%rax, %rax
	.loc	19 200 9 is_stmt 0
	je	LBB43_171
Ltmp1907:
	.loc	5 0 0
	movq	8(%rbx), %rdi
Ltmp1908:
	.loc	19 532 16 is_stmt 1
	testq	%rdi, %rdi
Ltmp1909:
	je	LBB43_171
Ltmp1910:
	.loc	19 0 0 is_stmt 0
	imulq	$104, %rax, %rsi
Ltmp1911:
	.loc	19 532 16
	testq	%rsi, %rsi
	je	LBB43_171
Ltmp1912:
	.loc	20 102 5 is_stmt 1
	movl	$8, %edx
	callq	___rust_dealloc
Ltmp1913:
LBB43_171:
	.loc	5 178 1
	cmpl	$2, 52(%rbx)
	je	LBB43_174
Ltmp1914:
	.loc	5 178 1 is_stmt 0
	movq	32(%rbx), %rdi
Ltmp1731:
	callq	__ZN4core3ptr13drop_in_place17h4cf03e8b23c4b321E
Ltmp1732:
Ltmp1915:
	movq	32(%rbx), %rdi
Ltmp1916:
	.loc	20 102 5 is_stmt 1
	movl	$184, %esi
	movl	$8, %edx
	callq	___rust_dealloc
Ltmp1917:
LBB43_174:
	.loc	5 178 1
	addq	$64, %rbx
Ltmp1918:
	.loc	5 178 1 is_stmt 0
	movq	%rbx, %rdi
	addq	$24, %rsp
	popq	%rbx
Ltmp1919:
	popq	%r12
	popq	%r13
	popq	%r14
	popq	%r15
	popq	%rbp
	jmp	__ZN4core3ptr13drop_in_place17h77634634be9e535eE
Ltmp1920:
LBB43_81:
	.loc	5 0 1
	movq	-48(%rbp), %rbx
Ltmp1921:
	.loc	5 178 1
	movq	16(%rbx), %rax
Ltmp1922:
	.loc	19 200 40 is_stmt 1
	testq	%rax, %rax
	.loc	19 200 9 is_stmt 0
	je	LBB43_85
Ltmp1923:
	.loc	5 0 0
	movq	8(%rbx), %rdi
Ltmp1924:
	.loc	19 532 16 is_stmt 1
	testq	%rdi, %rdi
Ltmp1925:
	je	LBB43_85
Ltmp1926:
	.loc	19 0 0 is_stmt 0
	imulq	$104, %rax, %rsi
Ltmp1927:
	.loc	19 532 16
	testq	%rsi, %rsi
	je	LBB43_85
Ltmp1928:
	.loc	20 102 5 is_stmt 1
	movl	$8, %edx
	callq	___rust_dealloc
Ltmp1929:
LBB43_85:
	.loc	5 178 1
	movq	32(%rbx), %rdi
Ltmp1653:
	callq	__ZN4core3ptr13drop_in_place17h251faff4ea60a9a6E
Ltmp1654:
Ltmp1930:
	movq	32(%rbx), %rdi
Ltmp1931:
	.loc	20 102 5
	movl	$112, %esi
	movl	$8, %edx
	callq	___rust_dealloc
Ltmp1932:
	.loc	5 178 1
	cmpl	$0, 40(%rbx)
	je	LBB43_95
Ltmp1933:
LBB43_87:
	.loc	5 178 1 is_stmt 0
	addq	$24, %rsp
	popq	%rbx
	popq	%r12
	popq	%r13
	popq	%r14
	popq	%r15
	popq	%rbp
	retq
LBB43_107:
Ltmp1934:
	.loc	5 0 1
	movq	-48(%rbp), %rbx
Ltmp1935:
	.loc	5 178 1
	movq	16(%rbx), %rax
Ltmp1936:
	.loc	19 200 40 is_stmt 1
	testq	%rax, %rax
	.loc	19 200 9 is_stmt 0
	je	LBB43_111
Ltmp1937:
	.loc	5 0 0
	movq	8(%rbx), %rdi
Ltmp1938:
	.loc	19 532 16 is_stmt 1
	testq	%rdi, %rdi
Ltmp1939:
	je	LBB43_111
Ltmp1940:
	.loc	19 0 0 is_stmt 0
	imulq	$104, %rax, %rsi
Ltmp1941:
	.loc	19 532 16
	testq	%rsi, %rsi
	je	LBB43_111
Ltmp1942:
	.loc	20 102 5 is_stmt 1
	movl	$8, %edx
	callq	___rust_dealloc
Ltmp1943:
LBB43_111:
	.loc	5 178 1
	movq	32(%rbx), %rdi
Ltmp1668:
	callq	__ZN4core3ptr13drop_in_place17h251faff4ea60a9a6E
Ltmp1669:
Ltmp1944:
	movq	32(%rbx), %rdi
Ltmp1945:
	.loc	20 102 5
	movl	$112, %esi
	movl	$8, %edx
	callq	___rust_dealloc
Ltmp1946:
	.loc	5 178 1
	movq	40(%rbx), %rdi
Ltmp1671:
	callq	__ZN4core3ptr13drop_in_place17h251faff4ea60a9a6E
Ltmp1672:
Ltmp1947:
LBB43_15:
	.loc	5 0 0 is_stmt 0
	movq	40(%rbx), %rdi
	jmp	LBB43_16
LBB43_190:
Ltmp1948:
	movq	-48(%rbp), %rbx
Ltmp1949:
	.loc	5 178 1
	movq	16(%rbx), %rax
Ltmp1950:
	.loc	19 200 40 is_stmt 1
	testq	%rax, %rax
	.loc	19 200 9 is_stmt 0
	je	LBB43_194
Ltmp1951:
	.loc	5 0 0
	movq	8(%rbx), %rdi
Ltmp1952:
	.loc	19 532 16 is_stmt 1
	testq	%rdi, %rdi
Ltmp1953:
	je	LBB43_194
Ltmp1954:
	.loc	19 0 0 is_stmt 0
	imulq	$104, %rax, %rsi
Ltmp1955:
	.loc	19 532 16
	testq	%rsi, %rsi
	je	LBB43_194
Ltmp1956:
	.loc	20 102 5 is_stmt 1
	movl	$8, %edx
	callq	___rust_dealloc
Ltmp1957:
LBB43_194:
	.loc	5 178 1
	movq	32(%rbx), %rdi
Ltmp1746:
	callq	__ZN4core3ptr13drop_in_place17h251faff4ea60a9a6E
Ltmp1747:
Ltmp1958:
LBB43_150:
	.loc	5 0 0 is_stmt 0
	movq	32(%rbx), %rdi
Ltmp1959:
LBB43_16:
	movl	$112, %esi
Ltmp1960:
LBB43_17:
	movl	$8, %edx
LBB43_18:
	addq	$24, %rsp
	popq	%rbx
	popq	%r12
	popq	%r13
	popq	%r14
	popq	%r15
	popq	%rbp
	jmp	___rust_dealloc
LBB43_95:
Ltmp1961:
	.loc	5 178 1
	cmpl	$0, 48(%rbx)
	je	LBB43_87
Ltmp1962:
	.loc	5 178 1
	movq	56(%rbx), %rdi
Ltmp1963:
	.loc	19 532 16 is_stmt 1
	testq	%rdi, %rdi
Ltmp1964:
	.loc	19 200 9
	je	LBB43_87
Ltmp1965:
	.loc	5 0 0 is_stmt 0
	movq	64(%rbx), %rsi
Ltmp1966:
	.loc	19 200 9
	testq	%rsi, %rsi
	je	LBB43_87
Ltmp1967:
	.loc	20 102 5 is_stmt 1
	movl	$1, %edx
	jmp	LBB43_18
Ltmp1968:
LBB43_182:
Ltmp1733:
	.loc	20 0 5 is_stmt 0
	movq	%rax, %r14
Ltmp1969:
	.loc	5 178 1 is_stmt 1
	movq	32(%rbx), %rdi
	callq	__ZN5alloc5alloc8box_free17h621812deb834cb8eE
	jmp	LBB43_181
Ltmp1970:
LBB43_200:
Ltmp1748:
	.loc	5 0 1 is_stmt 0
	jmp	LBB43_159
Ltmp1971:
LBB43_118:
Ltmp1673:
	jmp	LBB43_28
Ltmp1972:
LBB43_119:
Ltmp1670:
	jmp	LBB43_30
Ltmp1973:
LBB43_99:
Ltmp1655:
	movq	%rax, %r14
Ltmp1974:
	.loc	5 178 1
	movq	32(%rbx), %rdi
	callq	__ZN5alloc5alloc8box_free17h2808d984cc7c6832E
	jmp	LBB43_94
Ltmp1975:
LBB43_158:
Ltmp1718:
LBB43_159:
	.loc	5 0 1
	movq	%rax, %r14
	movq	32(%rbx), %rdi
	callq	__ZN5alloc5alloc8box_free17h2808d984cc7c6832E
	movq	%r14, %rdi
	callq	__Unwind_Resume
	ud2
Ltmp1976:
LBB43_51:
Ltmp1622:
	movq	%rax, %r14
Ltmp1977:
	.loc	5 178 1
	movq	32(%rbx), %rdi
	callq	__ZN5alloc5alloc8box_free17h2808d984cc7c6832E
	jmp	LBB43_50
Ltmp1978:
LBB43_27:
Ltmp1691:
LBB43_28:
	.loc	5 0 1
	movq	%rax, %r14
	movq	40(%rbx), %rdi
	callq	__ZN5alloc5alloc8box_free17h2808d984cc7c6832E
	movq	%r14, %rdi
	callq	__Unwind_Resume
	ud2
LBB43_29:
Ltmp1979:
Ltmp1688:
LBB43_30:
	movq	%rax, %r14
	movq	32(%rbx), %rdi
	callq	__ZN5alloc5alloc8box_free17h2808d984cc7c6832E
	jmp	LBB43_26
LBB43_202:
Ltmp1980:
Ltmp1640:
	movq	%rax, %r14
Ltmp1981:
	.loc	5 178 1
	movq	40(%rbx), %rdi
	callq	__ZN5alloc5alloc8box_free17h621812deb834cb8eE
	movq	%r14, %rdi
	callq	__Unwind_Resume
	ud2
Ltmp1982:
LBB43_73:
Ltmp1637:
	.loc	5 0 1
	movq	%rax, %r14
Ltmp1983:
	.loc	5 178 1
	movq	32(%rbx), %rdi
	callq	__ZN5alloc5alloc8box_free17h2808d984cc7c6832E
	jmp	LBB43_72
Ltmp1984:
LBB43_187:
Ltmp1736:
	.loc	5 0 1
	movq	%rax, %r14
Ltmp1985:
	.loc	5 178 1
	movq	%r12, %rdi
	movq	%r15, %rbx
Ltmp1986:
	subq	%r15, %rdi
	addq	$48, %rdi
Ltmp1737:
	callq	__ZN4core3ptr13drop_in_place17hd09c695a35000682E
Ltmp1738:
	jmp	LBB43_198
Ltmp1987:
LBB43_196:
Ltmp1739:
	.loc	5 0 1
	jmp	LBB43_197
Ltmp1988:
LBB43_104:
Ltmp1658:
	movq	%rax, %r14
Ltmp1989:
	.loc	5 178 1
	movq	%r12, %rdi
	movq	%r15, %rbx
Ltmp1990:
	subq	%r15, %rdi
	addq	$48, %rdi
Ltmp1659:
	callq	__ZN4core3ptr13drop_in_place17hd09c695a35000682E
Ltmp1660:
	jmp	LBB43_116
Ltmp1991:
LBB43_114:
Ltmp1661:
	.loc	5 0 1
	jmp	LBB43_115
Ltmp1992:
LBB43_78:
Ltmp1643:
	movq	%rax, %r14
Ltmp1993:
	.loc	5 178 1
	movq	%r12, %rdi
	movq	%r15, %rbx
Ltmp1994:
	subq	%r15, %rdi
	addq	$48, %rdi
Ltmp1644:
	callq	__ZN4core3ptr13drop_in_place17hd09c695a35000682E
Ltmp1645:
	jmp	LBB43_91
Ltmp1995:
LBB43_89:
Ltmp1646:
	.loc	5 0 1
	jmp	LBB43_90
Ltmp1996:
LBB43_164:
Ltmp1721:
	movq	%rax, %r14
Ltmp1997:
	.loc	5 178 1
	movq	%r12, %rdi
	movq	%r15, %rbx
Ltmp1998:
	subq	%r15, %rdi
	addq	$48, %rdi
Ltmp1722:
	callq	__ZN4core3ptr13drop_in_place17hd09c695a35000682E
Ltmp1723:
	jmp	LBB43_178
Ltmp1999:
LBB43_176:
Ltmp1724:
	.loc	5 0 1
	jmp	LBB43_177
Ltmp2000:
LBB43_142:
Ltmp1706:
	movq	%rax, %r14
Ltmp2001:
	.loc	5 178 1
	movq	%r12, %rdi
	movq	%r15, %rbx
Ltmp2002:
	subq	%r15, %rdi
	addq	$48, %rdi
Ltmp1707:
	callq	__ZN4core3ptr13drop_in_place17hd09c695a35000682E
Ltmp1708:
	jmp	LBB43_154
Ltmp2003:
LBB43_152:
Ltmp1709:
	.loc	5 0 1
	jmp	LBB43_153
Ltmp2004:
LBB43_35:
Ltmp1610:
	movq	%rax, %r14
Ltmp2005:
	.loc	5 178 1
	movq	%r12, %rdi
	movq	%r15, %rbx
Ltmp2006:
	subq	%r15, %rdi
	addq	$48, %rdi
Ltmp1611:
	callq	__ZN4core3ptr13drop_in_place17hd09c695a35000682E
Ltmp1612:
	jmp	LBB43_47
Ltmp2007:
LBB43_45:
Ltmp1613:
	.loc	5 0 1
	jmp	LBB43_46
Ltmp2008:
LBB43_124:
Ltmp1694:
	movq	%rax, %r14
Ltmp2009:
	.loc	5 178 1
	movq	%r12, %rdi
	movq	%r15, %rbx
Ltmp2010:
	subq	%r15, %rdi
	addq	$48, %rdi
Ltmp1695:
	callq	__ZN4core3ptr13drop_in_place17hd09c695a35000682E
Ltmp1696:
	jmp	LBB43_135
Ltmp2011:
LBB43_133:
Ltmp1697:
	.loc	5 0 1
	jmp	LBB43_134
Ltmp2012:
LBB43_56:
Ltmp1625:
	movq	%rax, %r14
Ltmp2013:
	.loc	5 178 1
	movq	%r12, %rdi
	movq	%r15, %rbx
Ltmp2014:
	subq	%r15, %rdi
	addq	$48, %rdi
Ltmp1626:
	callq	__ZN4core3ptr13drop_in_place17hd09c695a35000682E
Ltmp1627:
	jmp	LBB43_69
Ltmp2015:
LBB43_67:
Ltmp1628:
	.loc	5 0 1
	jmp	LBB43_68
Ltmp2016:
LBB43_6:
Ltmp1676:
	movq	%rax, %r14
Ltmp2017:
	.loc	5 178 1
	movq	%r12, %rdi
	movq	%r15, %rbx
Ltmp2018:
	subq	%r15, %rdi
	addq	$48, %rdi
Ltmp1677:
	callq	__ZN4core3ptr13drop_in_place17hd09c695a35000682E
Ltmp1678:
	jmp	LBB43_22
Ltmp2019:
LBB43_20:
Ltmp1679:
	.loc	5 0 1
	jmp	LBB43_21
Ltmp2020:
LBB43_195:
Ltmp1742:
	movq	%r14, %rbx
Ltmp2021:
LBB43_197:
	movq	%rax, %r14
Ltmp2022:
LBB43_198:
	subq	%rbx, %r12
Ltmp2023:
	addq	$104, %r12
Ltmp2024:
	.p2align	4, 0x90
LBB43_184:
	.loc	5 178 1
	testq	%r13, %r13
	je	LBB43_157
Ltmp2025:
	addq	$-104, %r13
Ltmp1743:
	movq	%r12, %rdi
	addq	$104, %r12
	callq	__ZN4core3ptr13drop_in_place17hb49a5771186422a4E
Ltmp1744:
	jmp	LBB43_184
Ltmp2026:
LBB43_113:
Ltmp1664:
	.loc	5 0 1
	movq	%r14, %rbx
Ltmp2027:
LBB43_115:
	movq	%rax, %r14
Ltmp2028:
LBB43_116:
	subq	%rbx, %r12
Ltmp2029:
	addq	$104, %r12
Ltmp2030:
	.p2align	4, 0x90
LBB43_101:
	.loc	5 178 1
	testq	%r13, %r13
	je	LBB43_25
Ltmp2031:
	addq	$-104, %r13
Ltmp1665:
	movq	%r12, %rdi
	addq	$104, %r12
	callq	__ZN4core3ptr13drop_in_place17hb49a5771186422a4E
Ltmp1666:
	jmp	LBB43_101
Ltmp2032:
LBB43_88:
Ltmp1649:
	.loc	5 0 1
	movq	%r14, %rbx
Ltmp2033:
LBB43_90:
	movq	%rax, %r14
Ltmp2034:
LBB43_91:
	subq	%rbx, %r12
Ltmp2035:
	addq	$104, %r12
Ltmp2036:
	.p2align	4, 0x90
LBB43_75:
	.loc	5 178 1
	testq	%r13, %r13
	je	LBB43_93
Ltmp2037:
	addq	$-104, %r13
Ltmp1650:
	movq	%r12, %rdi
	addq	$104, %r12
	callq	__ZN4core3ptr13drop_in_place17hb49a5771186422a4E
Ltmp1651:
	jmp	LBB43_75
Ltmp2038:
LBB43_175:
Ltmp1727:
	.loc	5 0 1
	movq	%r14, %rbx
Ltmp2039:
LBB43_177:
	movq	%rax, %r14
Ltmp2040:
LBB43_178:
	subq	%rbx, %r12
Ltmp2041:
	addq	$104, %r12
Ltmp2042:
	.p2align	4, 0x90
LBB43_161:
	.loc	5 178 1
	testq	%r13, %r13
	je	LBB43_180
Ltmp2043:
	addq	$-104, %r13
Ltmp1728:
	movq	%r12, %rdi
	addq	$104, %r12
	callq	__ZN4core3ptr13drop_in_place17hb49a5771186422a4E
Ltmp1729:
	jmp	LBB43_161
Ltmp2044:
LBB43_151:
Ltmp1712:
	.loc	5 0 1
	movq	%r14, %rbx
Ltmp2045:
LBB43_153:
	movq	%rax, %r14
Ltmp2046:
LBB43_154:
	subq	%rbx, %r12
Ltmp2047:
	addq	$104, %r12
Ltmp2048:
	.p2align	4, 0x90
LBB43_139:
	.loc	5 178 1
	testq	%r13, %r13
	je	LBB43_157
Ltmp2049:
	addq	$-104, %r13
Ltmp1713:
	movq	%r12, %rdi
	addq	$104, %r12
	callq	__ZN4core3ptr13drop_in_place17hb49a5771186422a4E
Ltmp1714:
	jmp	LBB43_139
Ltmp2050:
LBB43_44:
Ltmp1616:
	.loc	5 0 1
	movq	%r14, %rbx
Ltmp2051:
LBB43_46:
	movq	%rax, %r14
Ltmp2052:
LBB43_47:
	subq	%rbx, %r12
Ltmp2053:
	addq	$104, %r12
Ltmp2054:
	.p2align	4, 0x90
LBB43_32:
	.loc	5 178 1
	testq	%r13, %r13
	je	LBB43_49
Ltmp2055:
	addq	$-104, %r13
Ltmp1617:
	movq	%r12, %rdi
	addq	$104, %r12
	callq	__ZN4core3ptr13drop_in_place17hb49a5771186422a4E
Ltmp1618:
	jmp	LBB43_32
Ltmp2056:
LBB43_132:
Ltmp1700:
	.loc	5 0 1
	movq	%r14, %rbx
Ltmp2057:
LBB43_134:
	movq	%rax, %r14
Ltmp2058:
LBB43_135:
	subq	%rbx, %r12
Ltmp2059:
	addq	$104, %r12
Ltmp2060:
	.p2align	4, 0x90
LBB43_121:
	.loc	5 178 1
	testq	%r13, %r13
	je	LBB43_137
Ltmp2061:
	addq	$-104, %r13
Ltmp1701:
	movq	%r12, %rdi
	addq	$104, %r12
	callq	__ZN4core3ptr13drop_in_place17hb49a5771186422a4E
Ltmp1702:
	jmp	LBB43_121
Ltmp2062:
LBB43_66:
Ltmp1631:
	.loc	5 0 1
	movq	%r14, %rbx
Ltmp2063:
LBB43_68:
	movq	%rax, %r14
Ltmp2064:
LBB43_69:
	subq	%rbx, %r12
Ltmp2065:
	addq	$104, %r12
Ltmp2066:
	.p2align	4, 0x90
LBB43_53:
	.loc	5 178 1
	testq	%r13, %r13
	je	LBB43_71
Ltmp2067:
	addq	$-104, %r13
Ltmp1632:
	movq	%r12, %rdi
	addq	$104, %r12
	callq	__ZN4core3ptr13drop_in_place17hb49a5771186422a4E
Ltmp1633:
	jmp	LBB43_53
Ltmp2068:
LBB43_19:
Ltmp1682:
	.loc	5 0 1
	movq	%r14, %rbx
Ltmp2069:
LBB43_21:
	movq	%rax, %r14
Ltmp2070:
LBB43_22:
	subq	%rbx, %r12
Ltmp2071:
	addq	$104, %r12
Ltmp2072:
	.p2align	4, 0x90
LBB43_3:
	.loc	5 178 1
	testq	%r13, %r13
	je	LBB43_25
Ltmp2073:
	addq	$-104, %r13
Ltmp1683:
	movq	%r12, %rdi
	addq	$104, %r12
	callq	__ZN4core3ptr13drop_in_place17hb49a5771186422a4E
Ltmp1684:
	jmp	LBB43_3
Ltmp2074:
LBB43_23:
Ltmp1685:
	.loc	5 0 1
	jmp	LBB43_24
Ltmp2075:
LBB43_48:
Ltmp1619:
	movq	%rax, %r14
Ltmp2076:
LBB43_49:
	movq	-48(%rbp), %rbx
Ltmp2077:
	.loc	5 178 1
	movq	8(%rbx), %rdi
	movq	16(%rbx), %rsi
	callq	__ZN4core3ptr13drop_in_place17hb9506100aebe7450E
Ltmp2078:
	.loc	5 178 1
	leaq	32(%rbx), %rdi
	callq	__ZN4core3ptr13drop_in_place17hd6e498c503057356E
Ltmp2079:
LBB43_50:
	.loc	5 0 1
	movq	-48(%rbp), %rdi
	.loc	5 178 1
	addq	$40, %rdi
	callq	__ZN4core3ptr13drop_in_place17h529a4aa94cb267b2E
	movq	%r14, %rdi
	callq	__Unwind_Resume
	ud2
Ltmp2080:
LBB43_155:
Ltmp1715:
	.loc	5 0 1
	jmp	LBB43_156
Ltmp2081:
LBB43_179:
Ltmp1730:
	movq	%rax, %r14
Ltmp2082:
LBB43_180:
	movq	-48(%rbp), %rbx
Ltmp2083:
	.loc	5 178 1
	movq	8(%rbx), %rdi
	movq	16(%rbx), %rsi
	callq	__ZN4core3ptr13drop_in_place17hb9506100aebe7450E
Ltmp2084:
	.loc	5 178 1
	leaq	32(%rbx), %rdi
	callq	__ZN4core3ptr13drop_in_place17h64eff06c39a285a7E
Ltmp2085:
LBB43_181:
	.loc	5 0 1
	movq	-48(%rbp), %rdi
	.loc	5 178 1
	addq	$64, %rdi
	callq	__ZN4core3ptr13drop_in_place17h03282fba4624b210E
	movq	%r14, %rdi
	callq	__Unwind_Resume
	ud2
Ltmp2086:
LBB43_92:
Ltmp1652:
	.loc	5 0 1
	movq	%rax, %r14
Ltmp2087:
LBB43_93:
	movq	-48(%rbp), %rbx
Ltmp2088:
	.loc	5 178 1
	movq	8(%rbx), %rdi
	movq	16(%rbx), %rsi
	callq	__ZN4core3ptr13drop_in_place17hb9506100aebe7450E
Ltmp2089:
	.loc	5 178 1
	leaq	32(%rbx), %rdi
	callq	__ZN4core3ptr13drop_in_place17hd6e498c503057356E
Ltmp2090:
LBB43_94:
	.loc	5 0 1
	movq	-48(%rbp), %rdi
	.loc	5 178 1
	addq	$40, %rdi
	callq	__ZN4core3ptr13drop_in_place17he8cf30c605702eeaE
	movq	%r14, %rdi
	callq	__Unwind_Resume
	ud2
Ltmp2091:
LBB43_117:
Ltmp1667:
LBB43_24:
	.loc	5 0 1
	movq	%rax, %r14
LBB43_25:
	movq	-48(%rbp), %rbx
	movq	8(%rbx), %rdi
	movq	16(%rbx), %rsi
	callq	__ZN4core3ptr13drop_in_place17hb9506100aebe7450E
	leaq	32(%rbx), %rdi
	callq	__ZN4core3ptr13drop_in_place17hd6e498c503057356E
LBB43_26:
	movq	-48(%rbp), %rdi
	addq	$40, %rdi
	callq	__ZN4core3ptr13drop_in_place17hd6e498c503057356E
	movq	%r14, %rdi
	callq	__Unwind_Resume
	ud2
LBB43_199:
Ltmp2092:
Ltmp1745:
LBB43_156:
	movq	%rax, %r14
Ltmp2093:
LBB43_157:
	movq	-48(%rbp), %rbx
	movq	8(%rbx), %rdi
	movq	16(%rbx), %rsi
	callq	__ZN4core3ptr13drop_in_place17hb9506100aebe7450E
	addq	$32, %rbx
	movq	%rbx, %rdi
	callq	__ZN4core3ptr13drop_in_place17hd6e498c503057356E
	movq	%r14, %rdi
	callq	__Unwind_Resume
	ud2
Ltmp2094:
LBB43_70:
Ltmp1634:
	movq	%rax, %r14
Ltmp2095:
LBB43_71:
	movq	-48(%rbp), %rbx
Ltmp2096:
	.loc	5 178 1
	movq	8(%rbx), %rdi
	movq	16(%rbx), %rsi
	callq	__ZN4core3ptr13drop_in_place17hb9506100aebe7450E
Ltmp2097:
	.loc	5 178 1
	leaq	32(%rbx), %rdi
	callq	__ZN4core3ptr13drop_in_place17hd6e498c503057356E
Ltmp2098:
LBB43_72:
	.loc	5 0 1
	movq	-48(%rbp), %rdi
	.loc	5 178 1
	addq	$40, %rdi
	callq	__ZN4core3ptr13drop_in_place17h445b24b5939e03ddE
	movq	%r14, %rdi
	callq	__Unwind_Resume
	ud2
Ltmp2099:
LBB43_136:
Ltmp1703:
	.loc	5 0 1
	movq	%rax, %r14
Ltmp2100:
LBB43_137:
	movq	-48(%rbp), %rbx
Ltmp2101:
	.loc	5 178 1
	movq	8(%rbx), %rdi
	movq	16(%rbx), %rsi
	callq	__ZN4core3ptr13drop_in_place17hb9506100aebe7450E
Ltmp2102:
	.loc	5 178 1
	addq	$32, %rbx
	movq	%rbx, %rdi
	callq	__ZN4core3ptr13drop_in_place17h0e014c8b442f4af3E
	movq	%r14, %rdi
	callq	__Unwind_Resume
	ud2
Ltmp2103:
Lfunc_end43:
	.cfi_endproc
	.p2align	2, 0x90
	.data_region jt32
.set L43_0_set_7, LBB43_7-LJTI43_0
.set L43_0_set_87, LBB43_87-LJTI43_0
.set L43_0_set_36, LBB43_36-LJTI43_0
.set L43_0_set_57, LBB43_57-LJTI43_0
.set L43_0_set_79, LBB43_79-LJTI43_0
.set L43_0_set_105, LBB43_105-LJTI43_0
.set L43_0_set_125, LBB43_125-LJTI43_0
.set L43_0_set_143, LBB43_143-LJTI43_0
.set L43_0_set_165, LBB43_165-LJTI43_0
.set L43_0_set_188, LBB43_188-LJTI43_0
.set L43_0_set_201, LBB43_201-LJTI43_0
LJTI43_0:
	.long	L43_0_set_7
	.long	L43_0_set_87
	.long	L43_0_set_87
	.long	L43_0_set_87
	.long	L43_0_set_36
	.long	L43_0_set_57
	.long	L43_0_set_87
	.long	L43_0_set_87
	.long	L43_0_set_79
	.long	L43_0_set_87
	.long	L43_0_set_87
	.long	L43_0_set_87
	.long	L43_0_set_105
	.long	L43_0_set_87
	.long	L43_0_set_125
	.long	L43_0_set_87
	.long	L43_0_set_87
	.long	L43_0_set_87
	.long	L43_0_set_87
	.long	L43_0_set_143
	.long	L43_0_set_165
	.long	L43_0_set_87
	.long	L43_0_set_87
	.long	L43_0_set_87
	.long	L43_0_set_87
	.long	L43_0_set_87
	.long	L43_0_set_87
	.long	L43_0_set_87
	.long	L43_0_set_87
	.long	L43_0_set_87
	.long	L43_0_set_188
	.long	L43_0_set_87
	.long	L43_0_set_201
	.end_data_region
	.section	__TEXT,__gcc_except_tab
	.p2align	2
GCC_except_table43:
Lexception18:
	.byte	255
	.byte	255
	.byte	1
	.uleb128 Lcst_end18-Lcst_begin18
Lcst_begin18:
	.uleb128 Ltmp1674-Lfunc_begin43
	.uleb128 Ltmp1675-Ltmp1674
	.uleb128 Ltmp1676-Lfunc_begin43
	.byte	0
	.uleb128 Ltmp1680-Lfunc_begin43
	.uleb128 Ltmp1681-Ltmp1680
	.uleb128 Ltmp1682-Lfunc_begin43
	.byte	0
	.uleb128 Ltmp1623-Lfunc_begin43
	.uleb128 Ltmp1624-Ltmp1623
	.uleb128 Ltmp1625-Lfunc_begin43
	.byte	0
	.uleb128 Ltmp1629-Lfunc_begin43
	.uleb128 Ltmp1630-Ltmp1629
	.uleb128 Ltmp1631-Lfunc_begin43
	.byte	0
	.uleb128 Ltmp1692-Lfunc_begin43
	.uleb128 Ltmp1693-Ltmp1692
	.uleb128 Ltmp1694-Lfunc_begin43
	.byte	0
	.uleb128 Ltmp1698-Lfunc_begin43
	.uleb128 Ltmp1699-Ltmp1698
	.uleb128 Ltmp1700-Lfunc_begin43
	.byte	0
	.uleb128 Ltmp1608-Lfunc_begin43
	.uleb128 Ltmp1609-Ltmp1608
	.uleb128 Ltmp1610-Lfunc_begin43
	.byte	0
	.uleb128 Ltmp1614-Lfunc_begin43
	.uleb128 Ltmp1615-Ltmp1614
	.uleb128 Ltmp1616-Lfunc_begin43
	.byte	0
	.uleb128 Ltmp1704-Lfunc_begin43
	.uleb128 Ltmp1705-Ltmp1704
	.uleb128 Ltmp1706-Lfunc_begin43
	.byte	0
	.uleb128 Ltmp1710-Lfunc_begin43
	.uleb128 Ltmp1711-Ltmp1710
	.uleb128 Ltmp1712-Lfunc_begin43
	.byte	0
	.uleb128 Ltmp1719-Lfunc_begin43
	.uleb128 Ltmp1720-Ltmp1719
	.uleb128 Ltmp1721-Lfunc_begin43
	.byte	0
	.uleb128 Ltmp1725-Lfunc_begin43
	.uleb128 Ltmp1726-Ltmp1725
	.uleb128 Ltmp1727-Lfunc_begin43
	.byte	0
	.uleb128 Ltmp1641-Lfunc_begin43
	.uleb128 Ltmp1642-Ltmp1641
	.uleb128 Ltmp1643-Lfunc_begin43
	.byte	0
	.uleb128 Ltmp1647-Lfunc_begin43
	.uleb128 Ltmp1648-Ltmp1647
	.uleb128 Ltmp1649-Lfunc_begin43
	.byte	0
	.uleb128 Ltmp1656-Lfunc_begin43
	.uleb128 Ltmp1657-Ltmp1656
	.uleb128 Ltmp1658-Lfunc_begin43
	.byte	0
	.uleb128 Ltmp1662-Lfunc_begin43
	.uleb128 Ltmp1663-Ltmp1662
	.uleb128 Ltmp1664-Lfunc_begin43
	.byte	0
	.uleb128 Ltmp1663-Lfunc_begin43
	.uleb128 Ltmp1734-Ltmp1663
	.byte	0
	.byte	0
	.uleb128 Ltmp1734-Lfunc_begin43
	.uleb128 Ltmp1735-Ltmp1734
	.uleb128 Ltmp1736-Lfunc_begin43
	.byte	0
	.uleb128 Ltmp1740-Lfunc_begin43
	.uleb128 Ltmp1741-Ltmp1740
	.uleb128 Ltmp1742-Lfunc_begin43
	.byte	0
	.uleb128 Ltmp1635-Lfunc_begin43
	.uleb128 Ltmp1636-Ltmp1635
	.uleb128 Ltmp1637-Lfunc_begin43
	.byte	0
	.uleb128 Ltmp1638-Lfunc_begin43
	.uleb128 Ltmp1639-Ltmp1638
	.uleb128 Ltmp1640-Lfunc_begin43
	.byte	0
	.uleb128 Ltmp1639-Lfunc_begin43
	.uleb128 Ltmp1686-Ltmp1639
	.byte	0
	.byte	0
	.uleb128 Ltmp1686-Lfunc_begin43
	.uleb128 Ltmp1687-Ltmp1686
	.uleb128 Ltmp1688-Lfunc_begin43
	.byte	0
	.uleb128 Ltmp1689-Lfunc_begin43
	.uleb128 Ltmp1690-Ltmp1689
	.uleb128 Ltmp1691-Lfunc_begin43
	.byte	0
	.uleb128 Ltmp1620-Lfunc_begin43
	.uleb128 Ltmp1621-Ltmp1620
	.uleb128 Ltmp1622-Lfunc_begin43
	.byte	0
	.uleb128 Ltmp1621-Lfunc_begin43
	.uleb128 Ltmp1716-Ltmp1621
	.byte	0
	.byte	0
	.uleb128 Ltmp1716-Lfunc_begin43
	.uleb128 Ltmp1717-Ltmp1716
	.uleb128 Ltmp1718-Lfunc_begin43
	.byte	0
	.uleb128 Ltmp1731-Lfunc_begin43
	.uleb128 Ltmp1732-Ltmp1731
	.uleb128 Ltmp1733-Lfunc_begin43
	.byte	0
	.uleb128 Ltmp1732-Lfunc_begin43
	.uleb128 Ltmp1653-Ltmp1732
	.byte	0
	.byte	0
	.uleb128 Ltmp1653-Lfunc_begin43
	.uleb128 Ltmp1654-Ltmp1653
	.uleb128 Ltmp1655-Lfunc_begin43
	.byte	0
	.uleb128 Ltmp1668-Lfunc_begin43
	.uleb128 Ltmp1669-Ltmp1668
	.uleb128 Ltmp1670-Lfunc_begin43
	.byte	0
	.uleb128 Ltmp1671-Lfunc_begin43
	.uleb128 Ltmp1672-Ltmp1671
	.uleb128 Ltmp1673-Lfunc_begin43
	.byte	0
	.uleb128 Ltmp1746-Lfunc_begin43
	.uleb128 Ltmp1747-Ltmp1746
	.uleb128 Ltmp1748-Lfunc_begin43
	.byte	0
	.uleb128 Ltmp1747-Lfunc_begin43
	.uleb128 Ltmp1737-Ltmp1747
	.byte	0
	.byte	0
	.uleb128 Ltmp1737-Lfunc_begin43
	.uleb128 Ltmp1738-Ltmp1737
	.uleb128 Ltmp1739-Lfunc_begin43
	.byte	0
	.uleb128 Ltmp1659-Lfunc_begin43
	.uleb128 Ltmp1660-Ltmp1659
	.uleb128 Ltmp1661-Lfunc_begin43
	.byte	0
	.uleb128 Ltmp1644-Lfunc_begin43
	.uleb128 Ltmp1645-Ltmp1644
	.uleb128 Ltmp1646-Lfunc_begin43
	.byte	0
	.uleb128 Ltmp1722-Lfunc_begin43
	.uleb128 Ltmp1723-Ltmp1722
	.uleb128 Ltmp1724-Lfunc_begin43
	.byte	0
	.uleb128 Ltmp1707-Lfunc_begin43
	.uleb128 Ltmp1708-Ltmp1707
	.uleb128 Ltmp1709-Lfunc_begin43
	.byte	0
	.uleb128 Ltmp1611-Lfunc_begin43
	.uleb128 Ltmp1612-Ltmp1611
	.uleb128 Ltmp1613-Lfunc_begin43
	.byte	0
	.uleb128 Ltmp1695-Lfunc_begin43
	.uleb128 Ltmp1696-Ltmp1695
	.uleb128 Ltmp1697-Lfunc_begin43
	.byte	0
	.uleb128 Ltmp1626-Lfunc_begin43
	.uleb128 Ltmp1627-Ltmp1626
	.uleb128 Ltmp1628-Lfunc_begin43
	.byte	0
	.uleb128 Ltmp1677-Lfunc_begin43
	.uleb128 Ltmp1678-Ltmp1677
	.uleb128 Ltmp1679-Lfunc_begin43
	.byte	0
	.uleb128 Ltmp1743-Lfunc_begin43
	.uleb128 Ltmp1744-Ltmp1743
	.uleb128 Ltmp1745-Lfunc_begin43
	.byte	0
	.uleb128 Ltmp1665-Lfunc_begin43
	.uleb128 Ltmp1666-Ltmp1665
	.uleb128 Ltmp1667-Lfunc_begin43
	.byte	0
	.uleb128 Ltmp1650-Lfunc_begin43
	.uleb128 Ltmp1651-Ltmp1650
	.uleb128 Ltmp1652-Lfunc_begin43
	.byte	0
	.uleb128 Ltmp1728-Lfunc_begin43
	.uleb128 Ltmp1729-Ltmp1728
	.uleb128 Ltmp1730-Lfunc_begin43
	.byte	0
	.uleb128 Ltmp1713-Lfunc_begin43
	.uleb128 Ltmp1714-Ltmp1713
	.uleb128 Ltmp1715-Lfunc_begin43
	.byte	0
	.uleb128 Ltmp1617-Lfunc_begin43
	.uleb128 Ltmp1618-Ltmp1617
	.uleb128 Ltmp1619-Lfunc_begin43
	.byte	0
	.uleb128 Ltmp1701-Lfunc_begin43
	.uleb128 Ltmp1702-Ltmp1701
	.uleb128 Ltmp1703-Lfunc_begin43
	.byte	0
	.uleb128 Ltmp1632-Lfunc_begin43
	.uleb128 Ltmp1633-Ltmp1632
	.uleb128 Ltmp1634-Lfunc_begin43
	.byte	0
	.uleb128 Ltmp1683-Lfunc_begin43
	.uleb128 Ltmp1684-Ltmp1683
	.uleb128 Ltmp1685-Lfunc_begin43
	.byte	0
	.uleb128 Ltmp1684-Lfunc_begin43
	.uleb128 Lfunc_end43-Ltmp1684
	.byte	0
	.byte	0
Lcst_end18:
	.p2align	2

	.section	__TEXT,__text,regular,pure_instructions
	.p2align	4, 0x90
__ZN4core3ptr13drop_in_place17h25e3bc5be0ceb33dE:
Lfunc_begin44:
	.loc	5 178 0 is_stmt 1
	.cfi_startproc
	.cfi_personality 155, _rust_eh_personality
	.cfi_lsda 16, Lexception19
	pushq	%rbp
	.cfi_def_cfa_offset 16
	.cfi_offset %rbp, -16
	movq	%rsp, %rbp
	.cfi_def_cfa_register %rbp
Ltmp2116:
	pushq	%r15
	pushq	%r14
	pushq	%r13
	pushq	%r12
	pushq	%rbx
	pushq	%rax
	.cfi_offset %rbx, -56
	.cfi_offset %r12, -48
	.cfi_offset %r13, -40
	.cfi_offset %r14, -32
	.cfi_offset %r15, -24
	.loc	18 850 19 prologue_end
	movq	(%rdi), %r15
Ltmp2117:
	.loc	18 2384 81
	movq	16(%rdi), %rax
Ltmp2118:
	.loc	5 178 1
	testq	%rax, %rax
	movq	%rdi, -48(%rbp)
Ltmp2119:
	je	LBB44_1
Ltmp2120:
	imulq	$88, %rax, %r12
	addq	%r15, %r12
Ltmp2121:
	.loc	18 850 19
	movq	8(%r15), %rbx
Ltmp2122:
	.loc	18 2384 81
	movq	24(%r15), %rax
Ltmp2123:
	.loc	5 178 1
	testq	%rax, %rax
	jne	LBB44_4
	jmp	LBB44_14
Ltmp2124:
	.p2align	4, 0x90
LBB44_18:
	.loc	5 178 1 is_stmt 0
	cmpq	%r12, %r15
	je	LBB44_19
Ltmp2125:
	.loc	18 850 19 is_stmt 1
	movq	8(%r15), %rbx
Ltmp2126:
	.loc	18 2384 81
	movq	24(%r15), %rax
Ltmp2127:
	.loc	5 178 1
	testq	%rax, %rax
	je	LBB44_14
Ltmp2128:
LBB44_4:
	.loc	5 0 0 is_stmt 0
	imulq	$88, %rax, %r13
	addq	%rbx, %r13
Ltmp2129:
	.loc	5 178 1
	addq	$16, %rbx
Ltmp2130:
	leaq	-16(%rbx), %r14
	cmpl	$0, -16(%rbx)
	jne	LBB44_6
	jmp	LBB44_9
Ltmp2131:
	.p2align	4, 0x90
LBB44_12:
	.loc	5 178 1
	addq	$88, %rbx
	addq	$88, %r14
	cmpq	%r13, %r14
	je	LBB44_13
Ltmp2132:
	.loc	5 178 1
	leaq	-16(%rbx), %r14
	cmpl	$0, -16(%rbx)
	je	LBB44_9
Ltmp2133:
LBB44_6:
	.loc	5 178 1
	movq	-8(%rbx), %rdi
Ltmp2134:
	.loc	19 532 16 is_stmt 1
	testq	%rdi, %rdi
Ltmp2135:
	.loc	19 200 9
	je	LBB44_9
Ltmp2136:
	.loc	5 0 0 is_stmt 0
	movq	(%rbx), %rsi
Ltmp2137:
	.loc	19 200 9
	testq	%rsi, %rsi
	je	LBB44_9
Ltmp2138:
	.loc	20 102 5 is_stmt 1
	movl	$1, %edx
	callq	___rust_dealloc
Ltmp2139:
LBB44_9:
	.loc	5 178 1
	movq	56(%r14), %rdi
Ltmp2140:
	.loc	19 532 16
	testq	%rdi, %rdi
Ltmp2141:
	.loc	19 200 9
	je	LBB44_12
Ltmp2142:
	.loc	5 0 0 is_stmt 0
	movq	64(%r14), %rsi
Ltmp2143:
	.loc	19 200 9
	testq	%rsi, %rsi
	je	LBB44_12
Ltmp2144:
	.loc	20 102 5 is_stmt 1
	movl	$1, %edx
	callq	___rust_dealloc
Ltmp2145:
	.loc	20 0 5 is_stmt 0
	jmp	LBB44_12
Ltmp2146:
	.p2align	4, 0x90
LBB44_13:
	.loc	5 178 1 is_stmt 1
	movq	8(%r15), %rbx
Ltmp2147:
LBB44_14:
	movq	16(%r15), %rax
Ltmp2148:
	.loc	5 0 0 is_stmt 0
	addq	$88, %r15
Ltmp2149:
	.loc	19 200 40 is_stmt 1
	testq	%rax, %rax
	.loc	19 200 9 is_stmt 0
	je	LBB44_18
Ltmp2150:
	.loc	19 532 16 is_stmt 1
	testq	%rbx, %rbx
Ltmp2151:
	je	LBB44_18
Ltmp2152:
	.loc	19 0 0 is_stmt 0
	imulq	$88, %rax, %rsi
Ltmp2153:
	.loc	19 532 16
	testq	%rsi, %rsi
	je	LBB44_18
Ltmp2154:
	.loc	20 102 5 is_stmt 1
	movl	$8, %edx
	movq	%rbx, %rdi
	callq	___rust_dealloc
Ltmp2155:
	.loc	20 0 5 is_stmt 0
	jmp	LBB44_18
Ltmp2156:
LBB44_19:
	movq	-48(%rbp), %r14
	.loc	5 178 1 is_stmt 1
	movq	(%r14), %r15
Ltmp2157:
	movq	8(%r14), %rax
Ltmp2158:
	.loc	19 200 40
	testq	%rax, %rax
	.loc	19 200 9 is_stmt 0
	je	LBB44_24
Ltmp2159:
LBB44_21:
	.loc	19 532 16 is_stmt 1
	testq	%r15, %r15
Ltmp2160:
	je	LBB44_24
Ltmp2161:
	.loc	19 0 0 is_stmt 0
	imulq	$88, %rax, %rsi
Ltmp2162:
	.loc	19 532 16
	testq	%rsi, %rsi
	je	LBB44_24
Ltmp2163:
	.loc	20 102 5 is_stmt 1
	movl	$8, %edx
	movq	%r15, %rdi
	callq	___rust_dealloc
Ltmp2164:
	.loc	20 0 5 is_stmt 0
	jmp	LBB44_24
Ltmp2165:
LBB44_1:
	movq	%rdi, %r14
Ltmp2166:
	.loc	5 178 1 is_stmt 1
	movq	8(%r14), %rax
Ltmp2167:
	.loc	19 200 40
	testq	%rax, %rax
	.loc	19 200 9 is_stmt 0
	jne	LBB44_21
Ltmp2168:
LBB44_24:
	.loc	18 850 19 is_stmt 1
	movq	32(%r14), %rbx
Ltmp2169:
	.loc	18 2384 81
	movq	48(%r14), %rax
Ltmp2170:
	.loc	5 178 1
	shlq	$7, %rax
Ltmp2171:
	leaq	(%rax,%rax,2), %r12
Ltmp2172:
	.p2align	4, 0x90
LBB44_41:
	testq	%r12, %r12
	je	LBB44_42
Ltmp2173:
	addq	$-384, %r12
Ltmp2104:
	movq	%rbx, %rdi
	addq	$384, %rbx
Ltmp2174:
	callq	__ZN4core3ptr13drop_in_place17heec62c05114801d7E
Ltmp2105:
	jmp	LBB44_41
Ltmp2175:
LBB44_42:
	.loc	5 0 1 is_stmt 0
	movq	-48(%rbp), %r14
	.loc	5 178 1
	movq	40(%r14), %rax
Ltmp2176:
	.loc	19 200 40 is_stmt 1
	testq	%rax, %rax
	.loc	19 200 9 is_stmt 0
	je	LBB44_46
Ltmp2177:
	.loc	5 0 0
	movq	32(%r14), %rdi
Ltmp2178:
	.loc	19 532 16 is_stmt 1
	testq	%rdi, %rdi
Ltmp2179:
	je	LBB44_46
Ltmp2180:
	.loc	19 0 0 is_stmt 0
	shlq	$7, %rax
	leaq	(%rax,%rax,2), %rsi
Ltmp2181:
	.loc	19 532 16
	testq	%rsi, %rsi
	je	LBB44_46
Ltmp2182:
	.loc	20 102 5 is_stmt 1
	movl	$8, %edx
	callq	___rust_dealloc
Ltmp2183:
LBB44_46:
	.loc	18 850 19
	movq	56(%r14), %rbx
Ltmp2184:
	.loc	18 2384 81
	movq	72(%r14), %rax
Ltmp2185:
	.loc	5 178 1
	shlq	$7, %rax
Ltmp2186:
	leaq	(%rax,%rax,2), %r12
Ltmp2187:
	.p2align	4, 0x90
LBB44_29:
	testq	%r12, %r12
	je	LBB44_30
Ltmp2188:
	addq	$-384, %r12
Ltmp2110:
	movq	%rbx, %rdi
	addq	$384, %rbx
Ltmp2189:
	callq	__ZN4core3ptr13drop_in_place17hb500da5abc30c158E
Ltmp2111:
	jmp	LBB44_29
Ltmp2190:
LBB44_30:
	.loc	5 0 1 is_stmt 0
	movq	-48(%rbp), %rcx
	.loc	5 178 1
	movq	64(%rcx), %rax
Ltmp2191:
	.loc	19 200 40 is_stmt 1
	testq	%rax, %rax
	.loc	19 200 9 is_stmt 0
	je	LBB44_36
Ltmp2192:
	.loc	5 0 0
	movq	56(%rcx), %rdi
Ltmp2193:
	.loc	19 532 16 is_stmt 1
	testq	%rdi, %rdi
Ltmp2194:
	je	LBB44_36
Ltmp2195:
	.loc	19 0 0 is_stmt 0
	shlq	$7, %rax
	leaq	(%rax,%rax,2), %rsi
Ltmp2196:
	.loc	19 532 16
	testq	%rsi, %rsi
	je	LBB44_36
Ltmp2197:
	.loc	20 102 5 is_stmt 1
	movl	$8, %edx
	addq	$8, %rsp
	popq	%rbx
	popq	%r12
	popq	%r13
	popq	%r14
	popq	%r15
	popq	%rbp
	jmp	___rust_dealloc
Ltmp2198:
LBB44_36:
	.loc	5 178 1
	addq	$8, %rsp
	popq	%rbx
	popq	%r12
	popq	%r13
	popq	%r14
	popq	%r15
	popq	%rbp
	retq
LBB44_25:
Ltmp2199:
Ltmp2112:
	.loc	5 0 1 is_stmt 0
	movq	%rax, %r15
Ltmp2200:
	.loc	5 178 1
	testq	%r12, %r12
	je	LBB44_35
Ltmp2201:
	.p2align	4, 0x90
LBB44_26:
Ltmp2113:
	movq	%rbx, %rdi
	callq	__ZN4core3ptr13drop_in_place17hb500da5abc30c158E
Ltmp2114:
Ltmp2202:
	addq	$384, %rbx
	addq	$-384, %r12
	jne	LBB44_26
	jmp	LBB44_35
Ltmp2203:
LBB44_34:
Ltmp2115:
	.loc	5 0 1
	movq	%rax, %r15
Ltmp2204:
LBB44_35:
	movq	-48(%rbp), %rax
	.loc	5 178 1
	movq	56(%rax), %rdi
	movq	64(%rax), %rsi
	callq	__ZN4core3ptr13drop_in_place17ha0b729522ac725d9E
	movq	%r15, %rdi
	callq	__Unwind_Resume
	ud2
Ltmp2205:
LBB44_37:
Ltmp2106:
	.loc	5 0 1
	movq	%rax, %r15
Ltmp2206:
	.loc	5 178 1
	testq	%r12, %r12
	je	LBB44_48
Ltmp2207:
	.p2align	4, 0x90
LBB44_38:
Ltmp2107:
	movq	%rbx, %rdi
	callq	__ZN4core3ptr13drop_in_place17heec62c05114801d7E
Ltmp2108:
Ltmp2208:
	addq	$384, %rbx
	addq	$-384, %r12
	jne	LBB44_38
	jmp	LBB44_48
Ltmp2209:
LBB44_47:
Ltmp2109:
	.loc	5 0 1
	movq	%rax, %r15
Ltmp2210:
LBB44_48:
	movq	-48(%rbp), %rbx
	.loc	5 178 1
	movq	32(%rbx), %rdi
	movq	40(%rbx), %rsi
	callq	__ZN4core3ptr13drop_in_place17ha0b729522ac725d9E
Ltmp2211:
	.loc	5 178 1
	addq	$56, %rbx
	movq	%rbx, %rdi
	callq	__ZN4core3ptr13drop_in_place17h3d67405589ad27ecE
	movq	%r15, %rdi
	callq	__Unwind_Resume
	ud2
Ltmp2212:
Lfunc_end44:
	.cfi_endproc
	.section	__TEXT,__gcc_except_tab
	.p2align	2
GCC_except_table44:
Lexception19:
	.byte	255
	.byte	255
	.byte	1
	.uleb128 Lcst_end19-Lcst_begin19
Lcst_begin19:
	.uleb128 Ltmp2104-Lfunc_begin44
	.uleb128 Ltmp2105-Ltmp2104
	.uleb128 Ltmp2106-Lfunc_begin44
	.byte	0
	.uleb128 Ltmp2110-Lfunc_begin44
	.uleb128 Ltmp2111-Ltmp2110
	.uleb128 Ltmp2112-Lfunc_begin44
	.byte	0
	.uleb128 Ltmp2113-Lfunc_begin44
	.uleb128 Ltmp2114-Ltmp2113
	.uleb128 Ltmp2115-Lfunc_begin44
	.byte	0
	.uleb128 Ltmp2114-Lfunc_begin44
	.uleb128 Ltmp2107-Ltmp2114
	.byte	0
	.byte	0
	.uleb128 Ltmp2107-Lfunc_begin44
	.uleb128 Ltmp2108-Ltmp2107
	.uleb128 Ltmp2109-Lfunc_begin44
	.byte	0
	.uleb128 Ltmp2108-Lfunc_begin44
	.uleb128 Lfunc_end44-Ltmp2108
	.byte	0
	.byte	0
Lcst_end19:
	.p2align	2

	.section	__TEXT,__text,regular,pure_instructions
	.p2align	4, 0x90
__ZN4core3ptr13drop_in_place17h266995f93f3dd31eE:
Lfunc_begin45:
	.loc	5 178 0 is_stmt 1
	.cfi_startproc
	pushq	%rbp
	.cfi_def_cfa_offset 16
	.cfi_offset %rbp, -16
	movq	%rsp, %rbp
	.cfi_def_cfa_register %rbp
Ltmp2213:
	pushq	%rbx
	pushq	%rax
	.cfi_offset %rbx, -24
	.loc	5 178 1 prologue_end
	cmpl	$2, (%rdi)
	jb	LBB45_3
Ltmp2214:
	.loc	5 0 1 is_stmt 0
	movq	%rdi, %rbx
Ltmp2215:
	.loc	50 1147 13 is_stmt 1
	movq	8(%rdi), %rax
Ltmp2216:
	.loc	4 2058 5
	decq	(%rax)
Ltmp2217:
	.loc	50 1148 16
	movq	8(%rdi), %rdi
Ltmp2218:
	cmpq	$0, (%rdi)
	.loc	50 1148 13 is_stmt 0
	jne	LBB45_3
Ltmp2219:
	.loc	5 178 1 is_stmt 1
	addq	$16, %rdi
Ltmp2220:
	callq	__ZN4core3ptr13drop_in_place17h266995f93f3dd31eE
Ltmp2221:
	.loc	50 1154 17
	movq	8(%rbx), %rax
Ltmp2222:
	.loc	4 2058 5
	decq	8(%rax)
Ltmp2223:
	.loc	50 1156 20
	movq	8(%rbx), %rdi
Ltmp2224:
	cmpq	$0, 8(%rdi)
	.loc	50 1156 17 is_stmt 0
	je	LBB45_4
Ltmp2225:
LBB45_3:
	.loc	5 178 1 is_stmt 1
	addq	$8, %rsp
	popq	%rbx
	popq	%rbp
	retq
LBB45_4:
Ltmp2226:
	.loc	20 102 5
	movl	$32, %esi
	movl	$8, %edx
	addq	$8, %rsp
	popq	%rbx
Ltmp2227:
	popq	%rbp
	jmp	___rust_dealloc
Ltmp2228:
Lfunc_end45:
	.cfi_endproc

	.p2align	4, 0x90
__ZN4core3ptr13drop_in_place17h28c6592fb7fa798cE:
Lfunc_begin46:
	.loc	5 178 0
	.cfi_startproc
	pushq	%rbp
	.cfi_def_cfa_offset 16
	.cfi_offset %rbp, -16
	movq	%rsp, %rbp
	.cfi_def_cfa_register %rbp
	movq	%rdi, %rax
Ltmp2229:
	.loc	5 178 1 prologue_end
	cmpl	$0, (%rdi)
	je	LBB46_4
Ltmp2230:
	.loc	5 178 1 is_stmt 0
	movq	8(%rax), %rdi
Ltmp2231:
	.loc	19 532 16 is_stmt 1
	testq	%rdi, %rdi
Ltmp2232:
	.loc	19 200 9
	je	LBB46_3
Ltmp2233:
	.loc	5 0 0 is_stmt 0
	movq	16(%rax), %rsi
Ltmp2234:
	.loc	19 200 9
	testq	%rsi, %rsi
	je	LBB46_3
Ltmp2235:
	.loc	20 102 5 is_stmt 1
	movl	$1, %edx
	popq	%rbp
	jmp	___rust_dealloc
Ltmp2236:
LBB46_4:
	.loc	5 178 1
	addq	$4, %rax
Ltmp2237:
	.loc	5 178 1 is_stmt 0
	movq	%rax, %rdi
	popq	%rbp
	jmp	__ZN77_$LT$proc_macro..bridge..client..Literal$u20$as$u20$core..ops..drop..Drop$GT$4drop17he2aea19d6a82f53dE
Ltmp2238:
LBB46_3:
	.loc	5 178 1
	popq	%rbp
	retq
Ltmp2239:
Lfunc_end46:
	.cfi_endproc

	.p2align	4, 0x90
__ZN4core3ptr13drop_in_place17h2a57ad8131801fb4E:
Lfunc_begin47:
	.loc	5 178 0 is_stmt 1
	.cfi_startproc
	.cfi_personality 155, _rust_eh_personality
	.cfi_lsda 16, Lexception20
	pushq	%rbp
	.cfi_def_cfa_offset 16
	.cfi_offset %rbp, -16
	movq	%rsp, %rbp
	.cfi_def_cfa_register %rbp
	pushq	%r14
	pushq	%rbx
	.cfi_offset %rbx, -32
	.cfi_offset %r14, -24
	movq	%rdi, %rbx
Ltmp2243:
	.loc	5 178 1 prologue_end
	movq	(%rdi), %rdi
	movq	8(%rbx), %rax
Ltmp2240:
	callq	*(%rax)
Ltmp2241:
Ltmp2244:
	movq	8(%rbx), %rax
Ltmp2245:
	.loc	20 282 16
	movq	8(%rax), %rsi
Ltmp2246:
	.loc	20 185 12
	testq	%rsi, %rsi
	.loc	20 185 9 is_stmt 0
	je	LBB47_4
Ltmp2247:
	.loc	5 178 1 is_stmt 1
	movq	(%rbx), %rdi
Ltmp2248:
	.loc	20 283 17
	movq	16(%rax), %rdx
Ltmp2249:
	.loc	20 102 5
	popq	%rbx
Ltmp2250:
	popq	%r14
	popq	%rbp
	jmp	___rust_dealloc
Ltmp2251:
LBB47_4:
	.loc	5 178 1
	popq	%rbx
Ltmp2252:
	popq	%r14
	popq	%rbp
	retq
LBB47_3:
Ltmp2253:
Ltmp2242:
	.loc	5 0 1 is_stmt 0
	movq	%rax, %r14
Ltmp2254:
	.loc	5 178 1
	movq	(%rbx), %rdi
	movq	8(%rbx), %rsi
	callq	__ZN5alloc5alloc8box_free17h1f40f78e9e9d7775E
	movq	%r14, %rdi
	callq	__Unwind_Resume
	ud2
Ltmp2255:
Lfunc_end47:
	.cfi_endproc
	.section	__TEXT,__gcc_except_tab
	.p2align	2
GCC_except_table47:
Lexception20:
	.byte	255
	.byte	255
	.byte	1
	.uleb128 Lcst_end20-Lcst_begin20
Lcst_begin20:
	.uleb128 Ltmp2240-Lfunc_begin47
	.uleb128 Ltmp2241-Ltmp2240
	.uleb128 Ltmp2242-Lfunc_begin47
	.byte	0
	.uleb128 Ltmp2241-Lfunc_begin47
	.uleb128 Lfunc_end47-Ltmp2241
	.byte	0
	.byte	0
Lcst_end20:
	.p2align	2

	.section	__TEXT,__text,regular,pure_instructions
	.p2align	4, 0x90
__ZN4core3ptr13drop_in_place17h32fb4e637a7d38feE:
Lfunc_begin48:
	.loc	5 178 0 is_stmt 1
	.cfi_startproc
	pushq	%rbp
	.cfi_def_cfa_offset 16
	.cfi_offset %rbp, -16
	movq	%rsp, %rbp
	.cfi_def_cfa_register %rbp
	pushq	%r15
	pushq	%r14
	pushq	%r12
	pushq	%rbx
	.cfi_offset %rbx, -48
	.cfi_offset %r12, -40
	.cfi_offset %r14, -32
	.cfi_offset %r15, -24
	movq	%rdi, %r14
Ltmp2256:
	.loc	18 850 19 prologue_end
	movq	(%rdi), %r12
Ltmp2257:
	.loc	18 2384 81
	movq	16(%rdi), %rax
Ltmp2258:
	.loc	5 178 1
	testq	%rax, %rax
	je	LBB48_7
Ltmp2259:
	.loc	19 200 9
	imulq	$56, %rax, %r15
	xorl	%ebx, %ebx
Ltmp2260:
	.loc	5 178 1
	movq	32(%r12,%rbx), %rdi
Ltmp2261:
	.loc	19 532 16
	testq	%rdi, %rdi
Ltmp2262:
	.loc	19 200 9
	jne	LBB48_3
Ltmp2263:
	.p2align	4, 0x90
LBB48_5:
	.loc	5 178 1
	addq	$56, %rbx
	cmpq	%rbx, %r15
	je	LBB48_6
Ltmp2264:
LBB48_2:
	.loc	5 178 1 is_stmt 0
	movq	32(%r12,%rbx), %rdi
Ltmp2265:
	.loc	19 532 16 is_stmt 1
	testq	%rdi, %rdi
Ltmp2266:
	.loc	19 200 9
	je	LBB48_5
Ltmp2267:
LBB48_3:
	.loc	5 0 0 is_stmt 0
	movq	40(%r12,%rbx), %rsi
Ltmp2268:
	.loc	19 200 9
	testq	%rsi, %rsi
	je	LBB48_5
Ltmp2269:
	.loc	20 102 5 is_stmt 1
	movl	$1, %edx
	callq	___rust_dealloc
Ltmp2270:
	.loc	5 178 1
	addq	$56, %rbx
	cmpq	%rbx, %r15
	jne	LBB48_2
Ltmp2271:
LBB48_6:
	.loc	5 178 1 is_stmt 0
	movq	(%r14), %r12
Ltmp2272:
LBB48_7:
	movq	8(%r14), %rax
Ltmp2273:
	.loc	19 200 40 is_stmt 1
	testq	%rax, %rax
	.loc	19 200 9 is_stmt 0
	je	LBB48_10
Ltmp2274:
	.loc	19 532 16 is_stmt 1
	testq	%r12, %r12
Ltmp2275:
	je	LBB48_10
Ltmp2276:
	.loc	19 0 0 is_stmt 0
	imulq	$56, %rax, %rsi
Ltmp2277:
	.loc	19 532 16
	testq	%rsi, %rsi
	je	LBB48_10
Ltmp2278:
	.loc	20 102 5 is_stmt 1
	movl	$8, %edx
	movq	%r12, %rdi
	popq	%rbx
	popq	%r12
Ltmp2279:
	popq	%r14
Ltmp2280:
	popq	%r15
	popq	%rbp
	jmp	___rust_dealloc
Ltmp2281:
LBB48_10:
	.loc	5 178 1
	popq	%rbx
	popq	%r12
	popq	%r14
Ltmp2282:
	popq	%r15
	popq	%rbp
	retq
Ltmp2283:
Lfunc_end48:
	.cfi_endproc

	.p2align	4, 0x90
__ZN4core3ptr13drop_in_place17h3455c79962054a31E:
Lfunc_begin49:
	.loc	5 178 0
	.cfi_startproc
	pushq	%rbp
	.cfi_def_cfa_offset 16
	.cfi_offset %rbp, -16
	movq	%rsp, %rbp
	.cfi_def_cfa_register %rbp
Ltmp2284:
	.loc	5 178 1 prologue_end
	movq	8(%rdi), %rsi
Ltmp2285:
	.loc	20 185 12
	testq	%rsi, %rsi
	.loc	20 185 9 is_stmt 0
	je	LBB49_1
Ltmp2286:
	.loc	5 178 1 is_stmt 1
	movq	(%rdi), %rdi
Ltmp2287:
	.loc	20 102 5
	movl	$1, %edx
	popq	%rbp
	jmp	___rust_dealloc
Ltmp2288:
LBB49_1:
	.loc	5 178 1
	popq	%rbp
	retq
Ltmp2289:
Lfunc_end49:
	.cfi_endproc

	.p2align	4, 0x90
__ZN4core3ptr13drop_in_place17h39ebd9dd82392eaaE:
Lfunc_begin50:
	.loc	5 178 0
	.cfi_startproc
	pushq	%rbp
	.cfi_def_cfa_offset 16
	.cfi_offset %rbp, -16
	movq	%rsp, %rbp
	.cfi_def_cfa_register %rbp
Ltmp2290:
	.loc	18 2710 57 prologue_end
	movq	(%rdi), %rax
	.loc	18 2710 78 is_stmt 0
	movq	8(%rax), %rcx
Ltmp2291:
	.loc	19 200 40 is_stmt 1
	testq	%rcx, %rcx
	.loc	19 200 9 is_stmt 0
	je	LBB50_2
Ltmp2292:
	.loc	19 207 28 is_stmt 1
	shlq	$4, %rcx
	leaq	(%rcx,%rcx,2), %rsi
Ltmp2293:
	.loc	20 185 12
	testq	%rsi, %rsi
Ltmp2294:
	.loc	19 532 16
	je	LBB50_2
Ltmp2295:
	.loc	18 0 0 is_stmt 0
	movq	(%rax), %rdi
Ltmp2296:
	.loc	20 102 5 is_stmt 1
	movl	$8, %edx
	popq	%rbp
	jmp	___rust_dealloc
Ltmp2297:
LBB50_2:
	.loc	5 178 1
	popq	%rbp
	retq
Ltmp2298:
Lfunc_end50:
	.cfi_endproc

	.p2align	4, 0x90
__ZN4core3ptr13drop_in_place17h3d67405589ad27ecE:
Lfunc_begin51:
	.loc	5 178 0
	.cfi_startproc
	.cfi_personality 155, _rust_eh_personality
	.cfi_lsda 16, Lexception21
	pushq	%rbp
	.cfi_def_cfa_offset 16
	.cfi_offset %rbp, -16
	movq	%rsp, %rbp
	.cfi_def_cfa_register %rbp
	pushq	%r15
	pushq	%r14
	pushq	%r12
	pushq	%rbx
	.cfi_offset %rbx, -48
	.cfi_offset %r12, -40
	.cfi_offset %r14, -32
	.cfi_offset %r15, -24
	movq	%rdi, %r14
Ltmp2305:
	.loc	18 850 19 prologue_end
	movq	(%rdi), %rbx
Ltmp2306:
	.loc	18 2384 81
	movq	16(%rdi), %rax
Ltmp2307:
	.loc	5 178 1
	shlq	$7, %rax
Ltmp2308:
	leaq	(%rax,%rax,2), %r12
Ltmp2309:
	.p2align	4, 0x90
LBB51_5:
	testq	%r12, %r12
	je	LBB51_6
Ltmp2310:
	addq	$-384, %r12
Ltmp2299:
	movq	%rbx, %rdi
	addq	$384, %rbx
Ltmp2311:
	callq	__ZN4core3ptr13drop_in_place17hb500da5abc30c158E
Ltmp2300:
	jmp	LBB51_5
Ltmp2312:
LBB51_6:
	.loc	5 178 1 is_stmt 0
	movq	8(%r14), %rax
Ltmp2313:
	.loc	19 200 40 is_stmt 1
	testq	%rax, %rax
	.loc	19 200 9 is_stmt 0
	je	LBB51_9
Ltmp2314:
	.loc	5 0 0
	movq	(%r14), %rdi
Ltmp2315:
	.loc	19 532 16 is_stmt 1
	testq	%rdi, %rdi
Ltmp2316:
	je	LBB51_9
Ltmp2317:
	.loc	19 0 0 is_stmt 0
	shlq	$7, %rax
	leaq	(%rax,%rax,2), %rsi
Ltmp2318:
	.loc	19 532 16
	testq	%rsi, %rsi
	je	LBB51_9
Ltmp2319:
	.loc	20 102 5 is_stmt 1
	movl	$8, %edx
	popq	%rbx
	popq	%r12
	popq	%r14
Ltmp2320:
	popq	%r15
	popq	%rbp
	jmp	___rust_dealloc
Ltmp2321:
LBB51_9:
	.loc	5 178 1
	popq	%rbx
	popq	%r12
	popq	%r14
Ltmp2322:
	popq	%r15
	popq	%rbp
	retq
LBB51_1:
Ltmp2323:
Ltmp2301:
	.loc	5 0 1 is_stmt 0
	movq	%rax, %r15
Ltmp2324:
	.loc	5 178 1
	testq	%r12, %r12
	je	LBB51_11
Ltmp2325:
	.p2align	4, 0x90
LBB51_2:
Ltmp2302:
	movq	%rbx, %rdi
	callq	__ZN4core3ptr13drop_in_place17hb500da5abc30c158E
Ltmp2303:
Ltmp2326:
	addq	$384, %rbx
	addq	$-384, %r12
	jne	LBB51_2
	jmp	LBB51_11
Ltmp2327:
LBB51_10:
Ltmp2304:
	.loc	5 0 1
	movq	%rax, %r15
Ltmp2328:
LBB51_11:
	.loc	5 178 1
	movq	(%r14), %rdi
	movq	8(%r14), %rsi
	callq	__ZN4core3ptr13drop_in_place17ha0b729522ac725d9E
	movq	%r15, %rdi
	callq	__Unwind_Resume
	ud2
Ltmp2329:
Lfunc_end51:
	.cfi_endproc
	.section	__TEXT,__gcc_except_tab
	.p2align	2
GCC_except_table51:
Lexception21:
	.byte	255
	.byte	255
	.byte	1
	.uleb128 Lcst_end21-Lcst_begin21
Lcst_begin21:
	.uleb128 Ltmp2299-Lfunc_begin51
	.uleb128 Ltmp2300-Ltmp2299
	.uleb128 Ltmp2301-Lfunc_begin51
	.byte	0
	.uleb128 Ltmp2302-Lfunc_begin51
	.uleb128 Ltmp2303-Ltmp2302
	.uleb128 Ltmp2304-Lfunc_begin51
	.byte	0
	.uleb128 Ltmp2303-Lfunc_begin51
	.uleb128 Lfunc_end51-Ltmp2303
	.byte	0
	.byte	0
Lcst_end21:
	.p2align	2

	.section	__TEXT,__text,regular,pure_instructions
	.p2align	4, 0x90
__ZN4core3ptr13drop_in_place17h3e94c4eccb7ae5bbE:
Lfunc_begin52:
	.loc	5 178 0 is_stmt 1
	.cfi_startproc
	pushq	%rbp
	.cfi_def_cfa_offset 16
	.cfi_offset %rbp, -16
	movq	%rsp, %rbp
	.cfi_def_cfa_register %rbp
Ltmp2330:
	.loc	5 178 1 prologue_end
	popq	%rbp
	retq
Ltmp2331:
Lfunc_end52:
	.cfi_endproc

	.p2align	4, 0x90
__ZN4core3ptr13drop_in_place17h4021daf8d4200f96E:
Lfunc_begin53:
	.loc	5 178 0
	.cfi_startproc
	.cfi_personality 155, _rust_eh_personality
	.cfi_lsda 16, Lexception22
	pushq	%rbp
	.cfi_def_cfa_offset 16
	.cfi_offset %rbp, -16
	movq	%rsp, %rbp
	.cfi_def_cfa_register %rbp
Ltmp2345:
	pushq	%r15
	pushq	%r14
	pushq	%rbx
	pushq	%rax
	.cfi_offset %rbx, -40
	.cfi_offset %r14, -32
	.cfi_offset %r15, -24
	.loc	5 178 1 prologue_end
	movq	(%rdi), %rbx
Ltmp2346:
	testq	%rbx, %rbx
	je	LBB53_16
Ltmp2347:
	.loc	5 0 1 is_stmt 0
	movq	%rdi, %r14
Ltmp2348:
Ltmp2332:
	.loc	5 178 1
	movq	%rbx, %rdi
	callq	__ZN4core3ptr13drop_in_place17h9d26a05bd540f360E
Ltmp2333:
Ltmp2349:
	.loc	5 178 1
	cmpl	$2, 24(%rbx)
	jne	LBB53_5
Ltmp2350:
	.loc	5 178 1
	movq	32(%rbx), %rdi
Ltmp2337:
Ltmp2351:
	.loc	5 178 1
	callq	__ZN4core3ptr13drop_in_place17h77634634be9e535eE
Ltmp2338:
Ltmp2352:
	.loc	5 178 1
	movq	32(%rbx), %rdi
Ltmp2353:
	.loc	20 102 5 is_stmt 1
	movl	$48, %esi
	movl	$8, %edx
	callq	___rust_dealloc
Ltmp2354:
LBB53_5:
	.loc	5 178 1
	movl	56(%rbx), %eax
	orl	$2, %eax
	cmpl	$2, %eax
	je	LBB53_9
Ltmp2355:
	.loc	5 178 1 is_stmt 0
	movq	64(%rbx), %rdi
Ltmp2356:
	.loc	19 532 16 is_stmt 1
	testq	%rdi, %rdi
Ltmp2357:
	.loc	19 200 9
	je	LBB53_9
Ltmp2358:
	.loc	5 0 0 is_stmt 0
	movq	72(%rbx), %rsi
Ltmp2359:
	.loc	19 200 9
	testq	%rsi, %rsi
	je	LBB53_9
Ltmp2360:
	.loc	20 102 5 is_stmt 1
	movl	$1, %edx
	callq	___rust_dealloc
Ltmp2361:
LBB53_9:
	.loc	5 178 1
	addq	$96, %rbx
Ltmp2362:
Ltmp2342:
	movq	%rbx, %rdi
	callq	__ZN4core3ptr13drop_in_place17h4cf03e8b23c4b321E
Ltmp2343:
Ltmp2363:
	.loc	5 178 1 is_stmt 0
	movq	(%r14), %rdi
Ltmp2364:
	.loc	20 102 5 is_stmt 1
	movl	$288, %esi
	movl	$8, %edx
	addq	$8, %rsp
	popq	%rbx
	popq	%r14
Ltmp2365:
	popq	%r15
	popq	%rbp
	jmp	___rust_dealloc
Ltmp2366:
LBB53_16:
	.loc	5 178 1
	addq	$8, %rsp
	popq	%rbx
	popq	%r14
	popq	%r15
	popq	%rbp
	retq
Ltmp2367:
LBB53_11:
Ltmp2339:
	.loc	5 0 1 is_stmt 0
	movq	%rax, %r15
Ltmp2368:
	.loc	5 178 1
	movq	32(%rbx), %rdi
	callq	__ZN5alloc5alloc8box_free17h0186a06cd496174eE
	jmp	LBB53_12
Ltmp2369:
LBB53_13:
Ltmp2334:
	.loc	5 0 1
	movq	%rax, %r15
	.loc	5 178 1
	leaq	24(%rbx), %rdi
Ltmp2335:
	callq	__ZN4core3ptr13drop_in_place17hbdadf5d8eac88252E
Ltmp2336:
Ltmp2370:
LBB53_12:
	leaq	56(%rbx), %rdi
	callq	__ZN4core3ptr13drop_in_place17h7c336242e24da191E
	addq	$96, %rbx
Ltmp2371:
Ltmp2340:
	movq	%rbx, %rdi
	callq	__ZN4core3ptr13drop_in_place17h4cf03e8b23c4b321E
Ltmp2341:
	jmp	LBB53_15
Ltmp2372:
LBB53_14:
Ltmp2344:
	.loc	5 0 1
	movq	%rax, %r15
Ltmp2373:
LBB53_15:
	.loc	5 178 1
	movq	(%r14), %rdi
	callq	__ZN5alloc5alloc8box_free17ha4e11112611356afE
	movq	%r15, %rdi
	callq	__Unwind_Resume
	ud2
Ltmp2374:
Lfunc_end53:
	.cfi_endproc
	.section	__TEXT,__gcc_except_tab
	.p2align	2
GCC_except_table53:
Lexception22:
	.byte	255
	.byte	255
	.byte	1
	.uleb128 Lcst_end22-Lcst_begin22
Lcst_begin22:
	.uleb128 Ltmp2332-Lfunc_begin53
	.uleb128 Ltmp2333-Ltmp2332
	.uleb128 Ltmp2334-Lfunc_begin53
	.byte	0
	.uleb128 Ltmp2337-Lfunc_begin53
	.uleb128 Ltmp2338-Ltmp2337
	.uleb128 Ltmp2339-Lfunc_begin53
	.byte	0
	.uleb128 Ltmp2342-Lfunc_begin53
	.uleb128 Ltmp2341-Ltmp2342
	.uleb128 Ltmp2344-Lfunc_begin53
	.byte	0
	.uleb128 Ltmp2341-Lfunc_begin53
	.uleb128 Lfunc_end53-Ltmp2341
	.byte	0
	.byte	0
Lcst_end22:
	.p2align	2

	.section	__TEXT,__text,regular,pure_instructions
	.p2align	4, 0x90
__ZN4core3ptr13drop_in_place17h4223ef6ce5d0d484E:
Lfunc_begin54:
	.loc	5 178 0 is_stmt 1
	.cfi_startproc
	pushq	%rbp
	.cfi_def_cfa_offset 16
	.cfi_offset %rbp, -16
	movq	%rsp, %rbp
	.cfi_def_cfa_register %rbp
Ltmp2375:
	.loc	5 178 1 prologue_end
	popq	%rbp
	jmp	__ZN4core3ptr13drop_in_place17h7adf70235b30cd9eE
Ltmp2376:
Lfunc_end54:
	.cfi_endproc

	.p2align	4, 0x90
__ZN4core3ptr13drop_in_place17h445b24b5939e03ddE:
Lfunc_begin55:
	.loc	5 178 0
	.cfi_startproc
	.cfi_personality 155, _rust_eh_personality
	.cfi_lsda 16, Lexception23
	pushq	%rbp
	.cfi_def_cfa_offset 16
	.cfi_offset %rbp, -16
	movq	%rsp, %rbp
	.cfi_def_cfa_register %rbp
	pushq	%r14
	pushq	%rbx
	.cfi_offset %rbx, -32
	.cfi_offset %r14, -24
	movq	%rdi, %rbx
Ltmp2380:
	.loc	5 178 1 prologue_end
	movq	(%rdi), %rdi
Ltmp2377:
	callq	__ZN4core3ptr13drop_in_place17h4cf03e8b23c4b321E
Ltmp2378:
Ltmp2381:
	movq	(%rbx), %rdi
Ltmp2382:
	.loc	20 102 5
	movl	$184, %esi
	movl	$8, %edx
	popq	%rbx
Ltmp2383:
	popq	%r14
	popq	%rbp
	jmp	___rust_dealloc
Ltmp2384:
LBB55_2:
Ltmp2379:
	.loc	20 0 5 is_stmt 0
	movq	%rax, %r14
	.loc	5 178 1 is_stmt 1
	movq	(%rbx), %rdi
	callq	__ZN5alloc5alloc8box_free17h621812deb834cb8eE
	movq	%r14, %rdi
	callq	__Unwind_Resume
	ud2
Ltmp2385:
Lfunc_end55:
	.cfi_endproc
	.section	__TEXT,__gcc_except_tab
	.p2align	2
GCC_except_table55:
Lexception23:
	.byte	255
	.byte	255
	.byte	1
	.uleb128 Lcst_end23-Lcst_begin23
Lcst_begin23:
	.uleb128 Ltmp2377-Lfunc_begin55
	.uleb128 Ltmp2378-Ltmp2377
	.uleb128 Ltmp2379-Lfunc_begin55
	.byte	0
	.uleb128 Ltmp2378-Lfunc_begin55
	.uleb128 Lfunc_end55-Ltmp2378
	.byte	0
	.byte	0
Lcst_end23:
	.p2align	2

	.section	__TEXT,__text,regular,pure_instructions
	.p2align	4, 0x90
__ZN4core3ptr13drop_in_place17h4a1eb4dc4ebebe80E:
Lfunc_begin56:
	.loc	5 178 0
	.cfi_startproc
	.cfi_personality 155, _rust_eh_personality
	.cfi_lsda 16, Lexception24
	pushq	%rbp
	.cfi_def_cfa_offset 16
	.cfi_offset %rbp, -16
	movq	%rsp, %rbp
	.cfi_def_cfa_register %rbp
Ltmp2398:
	pushq	%r15
	pushq	%r14
	pushq	%r13
	pushq	%r12
	pushq	%rbx
	subq	$24, %rsp
	.cfi_offset %rbx, -56
	.cfi_offset %r12, -48
	.cfi_offset %r13, -40
	.cfi_offset %r14, -32
	.cfi_offset %r15, -24
	.loc	5 178 1 prologue_end
	movq	(%rdi), %r12
	testq	%r12, %r12
	je	LBB56_18
Ltmp2399:
	.loc	5 0 1 is_stmt 0
	movq	%rdi, -48(%rbp)
Ltmp2400:
	.loc	5 178 1
	imulq	$104, 16(%rdi), %rax
	addq	$-104, %rax
	xorl	%r14d, %r14d
	movq	%r12, %rbx
Ltmp2401:
	.p2align	4, 0x90
LBB56_2:
	cmpq	$-104, %rax
	je	LBB56_3
Ltmp2402:
	.loc	5 0 0
	movq	%rax, %r13
	movq	%r14, %r15
Ltmp2386:
Ltmp2403:
	.loc	5 178 1
	movq	%rbx, %rdi
Ltmp2404:
	callq	__ZN4core3ptr13drop_in_place17h77634634be9e535eE
Ltmp2387:
Ltmp2405:
	.loc	5 0 0
	leaq	104(%rbx), %rax
	movq	%rax, -64(%rbp)
Ltmp2406:
	.loc	5 178 1
	addq	$48, %rbx
Ltmp2407:
	leaq	-104(%r13), %rax
	movq	%rax, -56(%rbp)
	leaq	-104(%r15), %r14
Ltmp2392:
	movq	%rbx, %rdi
	callq	__ZN4core3ptr13drop_in_place17hd09c695a35000682E
	movq	-56(%rbp), %rax
Ltmp2393:
	movq	-64(%rbp), %rbx
	jmp	LBB56_2
Ltmp2408:
LBB56_3:
	.loc	5 0 1
	movq	-48(%rbp), %rcx
	.loc	5 178 1
	movq	8(%rcx), %rax
Ltmp2409:
	.loc	19 200 40 is_stmt 1
	testq	%rax, %rax
	.loc	19 200 9 is_stmt 0
	je	LBB56_18
Ltmp2410:
	.loc	5 0 0
	movq	(%rcx), %rdi
Ltmp2411:
	.loc	19 532 16 is_stmt 1
	testq	%rdi, %rdi
Ltmp2412:
	je	LBB56_18
Ltmp2413:
	.loc	19 0 0 is_stmt 0
	imulq	$104, %rax, %rsi
Ltmp2414:
	.loc	19 532 16
	testq	%rsi, %rsi
	je	LBB56_18
Ltmp2415:
	.loc	20 102 5 is_stmt 1
	movl	$8, %edx
	addq	$24, %rsp
	popq	%rbx
	popq	%r12
	popq	%r13
	popq	%r14
	popq	%r15
	popq	%rbp
	jmp	___rust_dealloc
Ltmp2416:
LBB56_18:
	.loc	5 178 1
	addq	$24, %rsp
	popq	%rbx
	popq	%r12
	popq	%r13
	popq	%r14
	popq	%r15
	popq	%rbp
	retq
LBB56_11:
Ltmp2417:
Ltmp2388:
	.loc	5 0 1 is_stmt 0
	movq	%rax, %r14
Ltmp2418:
	.loc	5 178 1
	movq	%r12, %rdi
	movq	%r15, %rbx
Ltmp2419:
	subq	%r15, %rdi
	addq	$48, %rdi
Ltmp2389:
	callq	__ZN4core3ptr13drop_in_place17hd09c695a35000682E
Ltmp2390:
	jmp	LBB56_15
Ltmp2420:
LBB56_13:
Ltmp2391:
	.loc	5 0 1
	jmp	LBB56_14
Ltmp2421:
LBB56_12:
Ltmp2394:
	movq	%r15, %rbx
Ltmp2422:
LBB56_14:
	movq	%rax, %r14
Ltmp2423:
LBB56_15:
	subq	%rbx, %r12
	addq	$104, %r12
Ltmp2424:
	.p2align	4, 0x90
LBB56_8:
	.loc	5 178 1
	testq	%r13, %r13
	je	LBB56_17
Ltmp2425:
	addq	$-104, %r13
Ltmp2395:
	movq	%r12, %rdi
	addq	$104, %r12
	callq	__ZN4core3ptr13drop_in_place17hb49a5771186422a4E
Ltmp2396:
	jmp	LBB56_8
Ltmp2426:
LBB56_16:
Ltmp2397:
	.loc	5 0 1
	movq	%rax, %r14
Ltmp2427:
LBB56_17:
	movq	-48(%rbp), %rax
	.loc	5 178 1
	movq	(%rax), %rdi
	movq	8(%rax), %rsi
	callq	__ZN4core3ptr13drop_in_place17hb9506100aebe7450E
	movq	%r14, %rdi
	callq	__Unwind_Resume
	ud2
Ltmp2428:
Lfunc_end56:
	.cfi_endproc
	.section	__TEXT,__gcc_except_tab
	.p2align	2
GCC_except_table56:
Lexception24:
	.byte	255
	.byte	255
	.byte	1
	.uleb128 Lcst_end24-Lcst_begin24
Lcst_begin24:
	.uleb128 Ltmp2386-Lfunc_begin56
	.uleb128 Ltmp2387-Ltmp2386
	.uleb128 Ltmp2388-Lfunc_begin56
	.byte	0
	.uleb128 Ltmp2392-Lfunc_begin56
	.uleb128 Ltmp2393-Ltmp2392
	.uleb128 Ltmp2394-Lfunc_begin56
	.byte	0
	.uleb128 Ltmp2389-Lfunc_begin56
	.uleb128 Ltmp2390-Ltmp2389
	.uleb128 Ltmp2391-Lfunc_begin56
	.byte	0
	.uleb128 Ltmp2395-Lfunc_begin56
	.uleb128 Ltmp2396-Ltmp2395
	.uleb128 Ltmp2397-Lfunc_begin56
	.byte	0
	.uleb128 Ltmp2396-Lfunc_begin56
	.uleb128 Lfunc_end56-Ltmp2396
	.byte	0
	.byte	0
Lcst_end24:
	.p2align	2

	.section	__TEXT,__text,regular,pure_instructions
	.p2align	4, 0x90
__ZN4core3ptr13drop_in_place17h4ad872e7ae8032fbE:
Lfunc_begin57:
	.loc	5 178 0 is_stmt 1
	.cfi_startproc
	.cfi_personality 155, _rust_eh_personality
	.cfi_lsda 16, Lexception25
	pushq	%rbp
	.cfi_def_cfa_offset 16
	.cfi_offset %rbp, -16
	movq	%rsp, %rbp
	.cfi_def_cfa_register %rbp
Ltmp2448:
	pushq	%r15
	pushq	%r14
	pushq	%rbx
	pushq	%rax
	.cfi_offset %rbx, -40
	.cfi_offset %r14, -32
	.cfi_offset %r15, -24
	.loc	5 178 1 prologue_end
	movq	(%rdi), %rbx
Ltmp2449:
	testq	%rbx, %rbx
	je	LBB57_15
Ltmp2450:
	.loc	5 0 1 is_stmt 0
	movq	%rdi, %r14
Ltmp2451:
	.loc	5 178 1
	leaq	8(%rbx), %rdi
Ltmp2452:
	cmpq	$0, (%rbx)
	je	LBB57_2
Ltmp2453:
Ltmp2429:
	callq	__ZN4core3ptr13drop_in_place17h0e014c8b442f4af3E
Ltmp2430:
Ltmp2454:
LBB57_14:
	.loc	5 178 1
	movq	(%r14), %rdi
Ltmp2455:
	.loc	20 102 5 is_stmt 1
	movl	$112, %esi
	movl	$8, %edx
	addq	$8, %rsp
	popq	%rbx
	popq	%r14
Ltmp2456:
	popq	%r15
	popq	%rbp
	jmp	___rust_dealloc
Ltmp2457:
LBB57_15:
	.loc	5 178 1
	addq	$8, %rsp
	popq	%rbx
	popq	%r14
	popq	%r15
	popq	%rbp
	retq
Ltmp2458:
LBB57_2:
	.loc	5 178 1 is_stmt 0
	movq	(%rdi), %rax
	cmpq	$1, %rax
	je	LBB57_6
Ltmp2459:
	testq	%rax, %rax
	jne	LBB57_9
Ltmp2460:
	addq	$16, %rbx
Ltmp2461:
Ltmp2438:
	.loc	5 178 1
	movq	%rbx, %rdi
Ltmp2462:
	callq	__ZN4core3ptr13drop_in_place17h77634634be9e535eE
Ltmp2439:
	jmp	LBB57_14
Ltmp2463:
LBB57_6:
	.loc	5 178 1
	leaq	16(%rbx), %rdi
Ltmp2464:
Ltmp2431:
	.loc	5 178 1
	callq	__ZN4core3ptr13drop_in_place17h77634634be9e535eE
Ltmp2465:
Ltmp2432:
	.loc	5 178 1
	addq	$64, %rbx
Ltmp2466:
Ltmp2436:
	movq	%rbx, %rdi
	callq	__ZN4core3ptr13drop_in_place17h1799caa629705a2eE
Ltmp2437:
	jmp	LBB57_14
Ltmp2467:
LBB57_9:
	.loc	5 178 1
	leaq	16(%rbx), %rdi
Ltmp2468:
Ltmp2440:
	.loc	5 178 1
	callq	__ZN4core3ptr13drop_in_place17h77634634be9e535eE
Ltmp2469:
Ltmp2441:
	.loc	5 178 1
	addq	$64, %rbx
Ltmp2470:
Ltmp2445:
	movq	%rbx, %rdi
	callq	__ZN4core3ptr13drop_in_place17h0e014c8b442f4af3E
Ltmp2446:
	jmp	LBB57_14
Ltmp2471:
LBB57_8:
Ltmp2442:
	.loc	5 0 1
	movq	%rax, %r15
	.loc	5 178 1
	addq	$64, %rbx
Ltmp2472:
Ltmp2443:
	movq	%rbx, %rdi
	callq	__ZN4core3ptr13drop_in_place17h0e014c8b442f4af3E
Ltmp2444:
	jmp	LBB57_12
Ltmp2473:
LBB57_5:
Ltmp2433:
	.loc	5 0 1
	movq	%rax, %r15
Ltmp2474:
	.loc	5 178 1
	addq	$64, %rbx
Ltmp2475:
Ltmp2434:
	movq	%rbx, %rdi
	callq	__ZN4core3ptr13drop_in_place17h1799caa629705a2eE
Ltmp2435:
	jmp	LBB57_12
Ltmp2476:
LBB57_11:
Ltmp2447:
	.loc	5 0 1
	movq	%rax, %r15
Ltmp2477:
LBB57_12:
	.loc	5 178 1
	movq	(%r14), %rdi
	callq	__ZN5alloc5alloc8box_free17h2808d984cc7c6832E
	movq	%r15, %rdi
	callq	__Unwind_Resume
	ud2
Ltmp2478:
Lfunc_end57:
	.cfi_endproc
	.section	__TEXT,__gcc_except_tab
	.p2align	2
GCC_except_table57:
Lexception25:
	.byte	255
	.byte	255
	.byte	1
	.uleb128 Lcst_end25-Lcst_begin25
Lcst_begin25:
	.uleb128 Ltmp2429-Lfunc_begin57
	.uleb128 Ltmp2439-Ltmp2429
	.uleb128 Ltmp2447-Lfunc_begin57
	.byte	0
	.uleb128 Ltmp2431-Lfunc_begin57
	.uleb128 Ltmp2432-Ltmp2431
	.uleb128 Ltmp2433-Lfunc_begin57
	.byte	0
	.uleb128 Ltmp2436-Lfunc_begin57
	.uleb128 Ltmp2437-Ltmp2436
	.uleb128 Ltmp2447-Lfunc_begin57
	.byte	0
	.uleb128 Ltmp2440-Lfunc_begin57
	.uleb128 Ltmp2441-Ltmp2440
	.uleb128 Ltmp2442-Lfunc_begin57
	.byte	0
	.uleb128 Ltmp2445-Lfunc_begin57
	.uleb128 Ltmp2435-Ltmp2445
	.uleb128 Ltmp2447-Lfunc_begin57
	.byte	0
	.uleb128 Ltmp2435-Lfunc_begin57
	.uleb128 Lfunc_end57-Ltmp2435
	.byte	0
	.byte	0
Lcst_end25:
	.p2align	2

	.section	__TEXT,__text,regular,pure_instructions
	.p2align	4, 0x90
__ZN4core3ptr13drop_in_place17h4b78fa5d34244002E:
Lfunc_begin58:
	.loc	5 178 0 is_stmt 1
	.cfi_startproc
	.cfi_personality 155, _rust_eh_personality
	.cfi_lsda 16, Lexception26
	pushq	%rbp
	.cfi_def_cfa_offset 16
	.cfi_offset %rbp, -16
	movq	%rsp, %rbp
	.cfi_def_cfa_register %rbp
Ltmp2494:
	pushq	%r15
	pushq	%r14
	pushq	%rbx
	pushq	%rax
	.cfi_offset %rbx, -40
	.cfi_offset %r14, -32
	.cfi_offset %r15, -24
	.loc	5 178 1 prologue_end
	movq	(%rdi), %rbx
Ltmp2495:
	testq	%rbx, %rbx
	je	LBB58_18
Ltmp2496:
	.loc	5 0 1 is_stmt 0
	movq	%rdi, %r14
Ltmp2497:
Ltmp2479:
	.loc	5 178 1
	movq	%rbx, %rdi
	callq	__ZN4core3ptr13drop_in_place17h9d26a05bd540f360E
Ltmp2480:
Ltmp2498:
	.loc	5 178 1
	cmpl	$0, 24(%rbx)
	je	LBB58_6
Ltmp2499:
	.loc	5 178 1
	movq	32(%rbx), %rdi
Ltmp2500:
	.loc	19 532 16 is_stmt 1
	testq	%rdi, %rdi
Ltmp2501:
	.loc	19 200 9
	je	LBB58_6
Ltmp2502:
	.loc	5 0 0 is_stmt 0
	movq	40(%rbx), %rsi
Ltmp2503:
	.loc	19 200 9
	testq	%rsi, %rsi
	je	LBB58_6
Ltmp2504:
	.loc	20 102 5 is_stmt 1
	movl	$1, %edx
	callq	___rust_dealloc
Ltmp2505:
LBB58_6:
	.loc	5 178 1
	movq	64(%rbx), %rax
	cmpq	$1, %rax
	je	LBB58_12
Ltmp2506:
	testq	%rax, %rax
	jne	LBB58_13
Ltmp2507:
	leaq	72(%rbx), %rdi
Ltmp2508:
Ltmp2486:
	.loc	5 178 1 is_stmt 0
	callq	__ZN4core3ptr13drop_in_place17hac5d1ffee40b21fcE
Ltmp2509:
Ltmp2487:
LBB58_13:
	.loc	5 178 1
	cmpq	$41, 120(%rbx)
	je	LBB58_15
Ltmp2510:
	.loc	5 0 0
	addq	$120, %rbx
Ltmp2511:
Ltmp2491:
	.loc	5 178 1
	movq	%rbx, %rdi
	callq	__ZN4core3ptr13drop_in_place17h251faff4ea60a9a6E
Ltmp2492:
Ltmp2512:
LBB58_15:
	.loc	5 178 1
	movq	(%r14), %rdi
Ltmp2513:
	.loc	20 102 5 is_stmt 1
	movl	$232, %esi
	movl	$8, %edx
	addq	$8, %rsp
	popq	%rbx
	popq	%r14
Ltmp2514:
	popq	%r15
	popq	%rbp
	jmp	___rust_dealloc
Ltmp2515:
LBB58_18:
	.loc	5 178 1
	addq	$8, %rsp
	popq	%rbx
	popq	%r14
	popq	%r15
	popq	%rbp
	retq
Ltmp2516:
LBB58_12:
	.loc	5 178 1 is_stmt 0
	leaq	72(%rbx), %rdi
Ltmp2517:
Ltmp2484:
	.loc	5 178 1
	callq	__ZN4core3ptr13drop_in_place17hac5d1ffee40b21fcE
Ltmp2518:
Ltmp2485:
	.loc	5 0 1
	jmp	LBB58_13
Ltmp2519:
LBB58_9:
Ltmp2488:
	movq	%rax, %r15
	jmp	LBB58_10
Ltmp2520:
LBB58_11:
Ltmp2481:
	movq	%rax, %r15
	.loc	5 178 1
	leaq	24(%rbx), %rdi
	callq	__ZN4core3ptr13drop_in_place17ha942be6b25d743d1E
	leaq	64(%rbx), %rdi
Ltmp2482:
	callq	__ZN4core3ptr13drop_in_place17hf6b1c31d1d5eeaf9E
Ltmp2483:
Ltmp2521:
LBB58_10:
	addq	$112, %rbx
Ltmp2522:
Ltmp2489:
	movq	%rbx, %rdi
	callq	__ZN4core3ptr13drop_in_place17h6af7747ac743a9e7E
Ltmp2490:
	jmp	LBB58_17
Ltmp2523:
LBB58_16:
Ltmp2493:
	.loc	5 0 1
	movq	%rax, %r15
Ltmp2524:
LBB58_17:
	.loc	5 178 1
	movq	(%r14), %rdi
	callq	__ZN5alloc5alloc8box_free17h4a11c2ade50570ffE
	movq	%r15, %rdi
	callq	__Unwind_Resume
	ud2
Ltmp2525:
Lfunc_end58:
	.cfi_endproc
	.section	__TEXT,__gcc_except_tab
	.p2align	2
GCC_except_table58:
Lexception26:
	.byte	255
	.byte	255
	.byte	1
	.uleb128 Lcst_end26-Lcst_begin26
Lcst_begin26:
	.uleb128 Ltmp2479-Lfunc_begin58
	.uleb128 Ltmp2480-Ltmp2479
	.uleb128 Ltmp2481-Lfunc_begin58
	.byte	0
	.uleb128 Ltmp2486-Lfunc_begin58
	.uleb128 Ltmp2487-Ltmp2486
	.uleb128 Ltmp2488-Lfunc_begin58
	.byte	0
	.uleb128 Ltmp2491-Lfunc_begin58
	.uleb128 Ltmp2492-Ltmp2491
	.uleb128 Ltmp2493-Lfunc_begin58
	.byte	0
	.uleb128 Ltmp2484-Lfunc_begin58
	.uleb128 Ltmp2485-Ltmp2484
	.uleb128 Ltmp2488-Lfunc_begin58
	.byte	0
	.uleb128 Ltmp2482-Lfunc_begin58
	.uleb128 Ltmp2490-Ltmp2482
	.uleb128 Ltmp2493-Lfunc_begin58
	.byte	0
	.uleb128 Ltmp2490-Lfunc_begin58
	.uleb128 Lfunc_end58-Ltmp2490
	.byte	0
	.byte	0
Lcst_end26:
	.p2align	2

	.section	__TEXT,__text,regular,pure_instructions
	.p2align	4, 0x90
__ZN4core3ptr13drop_in_place17h4cf03e8b23c4b321E:
Lfunc_begin59:
	.loc	5 178 0 is_stmt 1
	.cfi_startproc
	.cfi_personality 155, _rust_eh_personality
	.cfi_lsda 16, Lexception27
	pushq	%rbp
	.cfi_def_cfa_offset 16
	.cfi_offset %rbp, -16
	movq	%rsp, %rbp
	.cfi_def_cfa_register %rbp
Ltmp2615:
	pushq	%r15
	pushq	%r14
	pushq	%r13
	pushq	%r12
	pushq	%rbx
	subq	$24, %rsp
	.cfi_offset %rbx, -56
	.cfi_offset %r12, -48
	.cfi_offset %r13, -40
	.cfi_offset %r14, -32
	.cfi_offset %r15, -24
	.loc	5 178 1 prologue_end
	movl	(%rdi), %eax
	cmpq	$14, %rax
	ja	LBB59_20
Ltmp2616:
	.loc	5 0 1 is_stmt 0
	movq	%rdi, %r15
Ltmp2617:
	leaq	LJTI59_0(%rip), %rcx
	movslq	(%rcx,%rax,4), %rax
	addq	%rcx, %rax
	jmpq	*%rax
Ltmp2618:
LBB59_2:
	.loc	5 178 1
	movq	8(%r15), %rdi
Ltmp2612:
	callq	__ZN4core3ptr13drop_in_place17h4cf03e8b23c4b321E
Ltmp2613:
Ltmp2619:
	movq	8(%r15), %rdi
Ltmp2620:
	.loc	20 102 5 is_stmt 1
	movl	$184, %esi
	movl	$8, %edx
	callq	___rust_dealloc
Ltmp2621:
	.loc	5 178 1
	addq	$16, %r15
Ltmp2622:
	movq	%r15, %rdi
	addq	$24, %rsp
	popq	%rbx
	popq	%r12
	popq	%r13
	popq	%r14
	popq	%r15
	popq	%rbp
	jmp	__ZN4core3ptr13drop_in_place17h251faff4ea60a9a6E
Ltmp2623:
LBB59_100:
	.loc	18 850 19
	movq	8(%r15), %r12
Ltmp2624:
	.loc	18 2384 81
	movq	24(%r15), %rbx
Ltmp2625:
	.loc	5 178 1
	testq	%rbx, %rbx
	je	LBB59_114
Ltmp2626:
	.loc	5 178 1 is_stmt 0
	shlq	$7, %rbx
Ltmp2627:
	addq	$-128, %rbx
	subq	$-128, %r12
Ltmp2628:
	cmpq	$0, -128(%r12)
	jne	LBB59_108
	jmp	LBB59_103
Ltmp2629:
	.p2align	4, 0x90
LBB59_112:
	.loc	5 178 1
	addq	$-128, %rbx
	subq	$-128, %r12
	cmpq	$-128, %rbx
	je	LBB59_113
Ltmp2630:
	.loc	5 178 1
	cmpq	$0, -128(%r12)
	je	LBB59_103
Ltmp2631:
LBB59_108:
	.loc	5 178 1
	cmpl	$0, -120(%r12)
	je	LBB59_112
Ltmp2632:
	.loc	5 178 1
	movq	-112(%r12), %rdi
Ltmp2633:
	.loc	19 532 16 is_stmt 1
	testq	%rdi, %rdi
Ltmp2634:
	.loc	19 200 9
	je	LBB59_112
Ltmp2635:
	.loc	5 0 0 is_stmt 0
	movq	-104(%r12), %rsi
Ltmp2636:
	.loc	19 200 9
	testq	%rsi, %rsi
	je	LBB59_112
Ltmp2637:
	.loc	20 102 5 is_stmt 1
	movl	$1, %edx
	callq	___rust_dealloc
Ltmp2638:
	.loc	20 0 5 is_stmt 0
	jmp	LBB59_112
Ltmp2639:
	.p2align	4, 0x90
LBB59_103:
	.loc	5 178 1 is_stmt 1
	leaq	-120(%r12), %rdi
Ltmp2526:
	callq	__ZN4core3ptr13drop_in_place17h688c7cf775c915a8E
Ltmp2527:
Ltmp2640:
	.loc	5 178 1 is_stmt 0
	leaq	-72(%r12), %rdi
Ltmp2532:
	callq	__ZN4core3ptr13drop_in_place17h77634634be9e535eE
Ltmp2533:
	jmp	LBB59_112
Ltmp2641:
LBB59_81:
	.loc	5 178 1
	leaq	8(%r15), %rdi
Ltmp2642:
Ltmp2562:
	.loc	5 178 1
	callq	__ZN4core3ptr13drop_in_place17h77634634be9e535eE
Ltmp2643:
Ltmp2563:
	.loc	5 178 1
	addq	$56, %r15
Ltmp2644:
	.loc	5 0 1
	jmp	LBB59_83
Ltmp2645:
LBB59_139:
	.loc	5 178 1
	addq	$8, %r15
Ltmp2646:
LBB59_83:
	.loc	5 0 0
	movq	%r15, %rdi
	addq	$24, %rsp
	popq	%rbx
	popq	%r12
	popq	%r13
	popq	%r14
	popq	%r15
	popq	%rbp
	jmp	__ZN4core3ptr13drop_in_place17hd09c695a35000682E
LBB59_85:
Ltmp2647:
	.loc	5 178 1
	movq	8(%r15), %rdi
Ltmp2550:
	callq	__ZN4core3ptr13drop_in_place17h4cf03e8b23c4b321E
Ltmp2551:
	jmp	LBB59_43
Ltmp2648:
LBB59_124:
	.loc	18 850 19 is_stmt 1
	movq	8(%r15), %r14
Ltmp2649:
	.loc	18 2384 81
	movq	24(%r15), %rax
Ltmp2650:
	.loc	5 178 1
	shlq	$6, %rax
Ltmp2651:
	leaq	(%rax,%rax,2), %rbx
Ltmp2652:
	.p2align	4, 0x90
LBB59_128:
	testq	%rbx, %rbx
	je	LBB59_129
Ltmp2653:
	.loc	5 178 1 is_stmt 0
	addq	$-192, %rbx
Ltmp2553:
	movq	%r14, %rdi
Ltmp2654:
	.loc	5 178 1
	addq	$192, %r14
Ltmp2655:
	.loc	5 178 1
	callq	__ZN4core3ptr13drop_in_place17h4cf03e8b23c4b321E
Ltmp2554:
	jmp	LBB59_128
Ltmp2656:
LBB59_44:
	.loc	18 850 19 is_stmt 1
	movq	8(%r15), %r12
Ltmp2657:
	.loc	18 2384 81
	movq	24(%r15), %rbx
Ltmp2658:
	.loc	5 178 1
	testq	%rbx, %rbx
	je	LBB59_58
Ltmp2659:
	.loc	5 178 1 is_stmt 0
	shlq	$7, %rbx
Ltmp2660:
	addq	$-128, %rbx
	subq	$-128, %r12
Ltmp2661:
	cmpq	$0, -128(%r12)
	jne	LBB59_52
	jmp	LBB59_47
Ltmp2662:
	.p2align	4, 0x90
LBB59_56:
	.loc	5 178 1
	addq	$-128, %rbx
	subq	$-128, %r12
	cmpq	$-128, %rbx
	je	LBB59_57
Ltmp2663:
	.loc	5 178 1
	cmpq	$0, -128(%r12)
	je	LBB59_47
Ltmp2664:
LBB59_52:
	.loc	5 178 1
	cmpl	$0, -120(%r12)
	je	LBB59_56
Ltmp2665:
	.loc	5 178 1
	movq	-112(%r12), %rdi
Ltmp2666:
	.loc	19 532 16 is_stmt 1
	testq	%rdi, %rdi
Ltmp2667:
	.loc	19 200 9
	je	LBB59_56
Ltmp2668:
	.loc	5 0 0 is_stmt 0
	movq	-104(%r12), %rsi
Ltmp2669:
	.loc	19 200 9
	testq	%rsi, %rsi
	je	LBB59_56
Ltmp2670:
	.loc	20 102 5 is_stmt 1
	movl	$1, %edx
	callq	___rust_dealloc
Ltmp2671:
	.loc	20 0 5 is_stmt 0
	jmp	LBB59_56
Ltmp2672:
	.p2align	4, 0x90
LBB59_47:
	.loc	5 178 1 is_stmt 1
	leaq	-120(%r12), %rdi
Ltmp2565:
	callq	__ZN4core3ptr13drop_in_place17h688c7cf775c915a8E
Ltmp2566:
Ltmp2673:
	.loc	5 178 1 is_stmt 0
	leaq	-72(%r12), %rdi
Ltmp2571:
	callq	__ZN4core3ptr13drop_in_place17h77634634be9e535eE
Ltmp2572:
	jmp	LBB59_56
Ltmp2674:
LBB59_42:
	.loc	5 178 1
	movq	8(%r15), %rdi
Ltmp2585:
	callq	__ZN4core3ptr13drop_in_place17h4cf03e8b23c4b321E
Ltmp2586:
	jmp	LBB59_43
Ltmp2675:
LBB59_32:
	.loc	5 178 1
	leaq	8(%r15), %rdi
Ltmp2676:
Ltmp2588:
	.loc	5 178 1
	callq	__ZN4core3ptr13drop_in_place17h688c7cf775c915a8E
Ltmp2677:
Ltmp2589:
	.loc	5 178 1
	cmpq	$0, 56(%r15)
	je	LBB59_36
Ltmp2678:
	.loc	5 178 1
	cmpq	$0, 64(%r15)
	je	LBB59_36
Ltmp2679:
	.loc	5 0 0
	leaq	64(%r15), %rdi
Ltmp2680:
Ltmp2591:
	.loc	5 178 1
	callq	__ZN4core3ptr13drop_in_place17h53e68735d30f96d8E
Ltmp2681:
Ltmp2592:
LBB59_36:
	.loc	5 178 1
	leaq	80(%r15), %rdi
Ltmp2594:
	callq	__ZN4core3ptr13drop_in_place17h95ef33a65d07460aE
Ltmp2595:
Ltmp2682:
	.loc	5 178 1
	movq	112(%r15), %r12
	testq	%r12, %r12
	je	LBB59_19
Ltmp2683:
	.loc	5 0 1
	movq	%r15, -56(%rbp)
Ltmp2684:
	.loc	5 178 1
	imulq	$104, 128(%r15), %rcx
	addq	$-104, %rcx
	xorl	%r15d, %r15d
Ltmp2685:
	movq	%r12, %rbx
Ltmp2686:
	.p2align	4, 0x90
LBB59_14:
	cmpq	$-104, %rcx
	je	LBB59_15
Ltmp2687:
	.loc	5 0 0
	movq	%rcx, %r13
Ltmp2597:
Ltmp2688:
	.loc	5 178 1
	movq	%rbx, %rdi
	callq	__ZN4core3ptr13drop_in_place17h77634634be9e535eE
Ltmp2598:
Ltmp2689:
	.loc	5 0 0
	leaq	104(%rbx), %rax
	movq	%rax, -48(%rbp)
Ltmp2690:
	.loc	5 178 1
	addq	$48, %rbx
Ltmp2691:
	leaq	-104(%r13), %rax
	movq	%rax, -64(%rbp)
	movq	%r15, %r14
	addq	$-104, %r15
Ltmp2603:
	movq	%rbx, %rdi
	callq	__ZN4core3ptr13drop_in_place17hd09c695a35000682E
	movq	-64(%rbp), %rcx
Ltmp2604:
	movq	-48(%rbp), %rbx
	jmp	LBB59_14
Ltmp2692:
LBB59_86:
	.loc	5 178 1
	cmpl	$2, 28(%r15)
	je	LBB59_89
Ltmp2693:
	.loc	5 178 1
	movq	8(%r15), %rdi
Ltmp2547:
	callq	__ZN4core3ptr13drop_in_place17h4cf03e8b23c4b321E
Ltmp2548:
Ltmp2694:
	movq	8(%r15), %rdi
Ltmp2695:
	.loc	20 102 5 is_stmt 1
	movl	$184, %esi
	movl	$8, %edx
	callq	___rust_dealloc
Ltmp2696:
LBB59_89:
	.loc	5 178 1
	addq	$40, %r15
Ltmp2697:
	.loc	5 178 1 is_stmt 0
	movq	%r15, %rdi
	addq	$24, %rsp
	popq	%rbx
	popq	%r12
	popq	%r13
	popq	%r14
	popq	%r15
Ltmp2698:
	popq	%rbp
	jmp	__ZN4core3ptr13drop_in_place17h77634634be9e535eE
Ltmp2699:
LBB59_91:
	.loc	5 178 1
	movq	8(%r15), %rdi
Ltmp2544:
	callq	__ZN4core3ptr13drop_in_place17h4cf03e8b23c4b321E
Ltmp2545:
	jmp	LBB59_43
Ltmp2700:
LBB59_99:
	.loc	5 178 1
	movq	8(%r15), %rdi
Ltmp2538:
	callq	__ZN4core3ptr13drop_in_place17h4cf03e8b23c4b321E
Ltmp2539:
Ltmp2701:
LBB59_43:
	.loc	5 0 0
	movq	8(%r15), %rdi
Ltmp2702:
LBB59_10:
	movl	$184, %esi
Ltmp2703:
LBB59_11:
	movl	$8, %edx
	addq	$24, %rsp
	popq	%rbx
	popq	%r12
	popq	%r13
	popq	%r14
	popq	%r15
	popq	%rbp
	jmp	___rust_dealloc
LBB59_92:
Ltmp2704:
	.loc	5 178 1
	movl	8(%r15), %eax
	orl	$2, %eax
	cmpl	$2, %eax
	jne	LBB59_93
Ltmp2705:
LBB59_96:
	.loc	5 178 1
	movq	56(%r15), %rdi
Ltmp2541:
	callq	__ZN4core3ptr13drop_in_place17h4cf03e8b23c4b321E
Ltmp2542:
Ltmp2706:
	movq	56(%r15), %rdi
	jmp	LBB59_10
Ltmp2707:
LBB59_129:
	.loc	5 178 1
	movq	16(%r15), %rax
Ltmp2708:
	.loc	19 200 40 is_stmt 1
	testq	%rax, %rax
	.loc	19 200 9 is_stmt 0
	je	LBB59_133
Ltmp2709:
	.loc	5 0 0
	movq	8(%r15), %rdi
Ltmp2710:
	.loc	19 532 16 is_stmt 1
	testq	%rdi, %rdi
Ltmp2711:
	je	LBB59_133
Ltmp2712:
	.loc	19 0 0 is_stmt 0
	shlq	$6, %rax
	leaq	(%rax,%rax,2), %rsi
Ltmp2713:
	.loc	19 532 16
	testq	%rsi, %rsi
	je	LBB59_133
Ltmp2714:
	.loc	20 102 5 is_stmt 1
	movl	$8, %edx
	callq	___rust_dealloc
Ltmp2715:
LBB59_133:
	.loc	5 178 1
	movq	32(%r15), %rdi
	testq	%rdi, %rdi
	je	LBB59_20
Ltmp2716:
Ltmp2559:
	.loc	5 178 1 is_stmt 0
	callq	__ZN4core3ptr13drop_in_place17h4cf03e8b23c4b321E
Ltmp2560:
Ltmp2717:
	movq	32(%r15), %rdi
	jmp	LBB59_10
Ltmp2718:
LBB59_113:
	.loc	5 178 1
	movq	8(%r15), %r12
Ltmp2719:
LBB59_114:
	movq	16(%r15), %rsi
Ltmp2720:
	.loc	19 200 40 is_stmt 1
	testq	%rsi, %rsi
	.loc	19 200 9 is_stmt 0
	je	LBB59_118
Ltmp2721:
	.loc	19 532 16 is_stmt 1
	testq	%r12, %r12
Ltmp2722:
	je	LBB59_118
Ltmp2723:
	.loc	19 0 0 is_stmt 0
	shlq	$7, %rsi
Ltmp2724:
	.loc	19 532 16
	je	LBB59_118
Ltmp2725:
	.loc	20 102 5 is_stmt 1
	movl	$8, %edx
	movq	%r12, %rdi
	callq	___rust_dealloc
Ltmp2726:
LBB59_118:
	.loc	5 178 1
	cmpq	$0, 32(%r15)
	je	LBB59_20
Ltmp2727:
	.loc	5 0 0 is_stmt 0
	addq	$32, %r15
Ltmp2728:
	.loc	5 178 1
	movq	%r15, %rdi
	addq	$24, %rsp
	popq	%rbx
	popq	%r12
	popq	%r13
	popq	%r14
	popq	%r15
Ltmp2729:
	popq	%rbp
	jmp	__ZN4core3ptr13drop_in_place17h9a23021a4e9a6a92E
Ltmp2730:
LBB59_57:
	.loc	5 178 1
	movq	8(%r15), %r12
Ltmp2731:
LBB59_58:
	movq	16(%r15), %rsi
Ltmp2732:
	.loc	19 200 40 is_stmt 1
	testq	%rsi, %rsi
	.loc	19 200 9 is_stmt 0
	je	LBB59_62
Ltmp2733:
	.loc	19 532 16 is_stmt 1
	testq	%r12, %r12
Ltmp2734:
	je	LBB59_62
Ltmp2735:
	.loc	19 0 0 is_stmt 0
	shlq	$7, %rsi
Ltmp2736:
	.loc	19 532 16
	je	LBB59_62
Ltmp2737:
	.loc	20 102 5 is_stmt 1
	movl	$8, %edx
	movq	%r12, %rdi
	callq	___rust_dealloc
Ltmp2738:
LBB59_62:
	.loc	5 178 1
	movq	32(%r15), %rbx
Ltmp2739:
	testq	%rbx, %rbx
	je	LBB59_20
Ltmp2740:
	.loc	5 178 1 is_stmt 0
	leaq	8(%rbx), %rdi
Ltmp2741:
	cmpq	$0, (%rbx)
	je	LBB59_64
Ltmp2742:
	.loc	5 178 1
	cmpl	$0, (%rdi)
	je	LBB59_77
Ltmp2743:
	.loc	5 178 1
	movq	16(%rbx), %rdi
Ltmp2744:
	.loc	19 532 16 is_stmt 1
	testq	%rdi, %rdi
Ltmp2745:
	.loc	19 200 9
	je	LBB59_77
Ltmp2746:
	.loc	5 0 0 is_stmt 0
	movq	24(%rbx), %rsi
Ltmp2747:
	.loc	19 200 9
	testq	%rsi, %rsi
	je	LBB59_77
Ltmp2748:
	.loc	20 102 5 is_stmt 1
	movl	$1, %edx
	callq	___rust_dealloc
Ltmp2749:
	.loc	20 0 5 is_stmt 0
	jmp	LBB59_77
Ltmp2750:
LBB59_15:
	movq	-56(%rbp), %r15
Ltmp2751:
	.loc	5 178 1 is_stmt 1
	movq	120(%r15), %rax
Ltmp2752:
	.loc	19 200 40
	testq	%rax, %rax
	.loc	19 200 9 is_stmt 0
	je	LBB59_19
Ltmp2753:
	.loc	5 0 0
	movq	112(%r15), %rdi
Ltmp2754:
	.loc	19 532 16 is_stmt 1
	testq	%rdi, %rdi
Ltmp2755:
	je	LBB59_19
Ltmp2756:
	.loc	19 0 0 is_stmt 0
	imulq	$104, %rax, %rsi
Ltmp2757:
	.loc	19 532 16
	testq	%rsi, %rsi
	je	LBB59_19
Ltmp2758:
	.loc	20 102 5 is_stmt 1
	movl	$8, %edx
	callq	___rust_dealloc
Ltmp2759:
LBB59_19:
	.loc	5 178 1
	movq	152(%r15), %rdi
	testq	%rdi, %rdi
	je	LBB59_20
Ltmp2760:
Ltmp2609:
	.loc	5 178 1 is_stmt 0
	callq	__ZN4core3ptr13drop_in_place17h4cf03e8b23c4b321E
Ltmp2610:
Ltmp2761:
	movq	152(%r15), %rdi
	jmp	LBB59_10
Ltmp2762:
LBB59_20:
	.loc	5 178 1
	addq	$24, %rsp
	popq	%rbx
	popq	%r12
	popq	%r13
	popq	%r14
	popq	%r15
	popq	%rbp
	retq
LBB59_93:
Ltmp2763:
	.loc	5 178 1
	movq	16(%r15), %rdi
Ltmp2764:
	.loc	19 532 16 is_stmt 1
	testq	%rdi, %rdi
Ltmp2765:
	.loc	19 200 9
	je	LBB59_96
Ltmp2766:
	.loc	5 0 0 is_stmt 0
	movq	24(%r15), %rsi
Ltmp2767:
	.loc	19 200 9
	testq	%rsi, %rsi
	je	LBB59_96
Ltmp2768:
	.loc	20 102 5 is_stmt 1
	movl	$1, %edx
	callq	___rust_dealloc
Ltmp2769:
	.loc	20 0 5 is_stmt 0
	jmp	LBB59_96
Ltmp2770:
LBB59_64:
Ltmp2577:
	.loc	5 178 1 is_stmt 1
	callq	__ZN4core3ptr13drop_in_place17h688c7cf775c915a8E
Ltmp2771:
Ltmp2578:
	addq	$56, %rbx
Ltmp2772:
Ltmp2582:
	.loc	5 178 1 is_stmt 0
	movq	%rbx, %rdi
	callq	__ZN4core3ptr13drop_in_place17h77634634be9e535eE
Ltmp2583:
Ltmp2773:
LBB59_77:
	.loc	5 178 1
	movq	32(%r15), %rdi
Ltmp2774:
	.loc	20 102 5 is_stmt 1
	movl	$120, %esi
	jmp	LBB59_11
Ltmp2775:
LBB59_72:
Ltmp2579:
	.loc	20 0 5 is_stmt 0
	movq	%rax, -48(%rbp)
Ltmp2776:
	.loc	5 178 1 is_stmt 1
	addq	$56, %rbx
Ltmp2777:
Ltmp2580:
	movq	%rbx, %rdi
	callq	__ZN4core3ptr13drop_in_place17h03282fba4624b210E
Ltmp2581:
	jmp	LBB59_79
Ltmp2778:
LBB59_78:
Ltmp2584:
	.loc	5 0 1 is_stmt 0
	movq	%rax, -48(%rbp)
Ltmp2779:
LBB59_79:
	.loc	5 178 1
	movq	32(%r15), %rdi
	callq	__ZN5alloc5alloc8box_free17hcbd2dc4ae8eeaeadE
	movq	-48(%rbp), %rdi
	callq	__Unwind_Resume
	ud2
Ltmp2780:
LBB59_39:
Ltmp2593:
	.loc	5 0 1
	movq	%r15, -56(%rbp)
Ltmp2781:
	movq	%rax, -48(%rbp)
	jmp	LBB59_38
Ltmp2782:
LBB59_142:
Ltmp2549:
	movq	%rax, -48(%rbp)
Ltmp2783:
	.loc	5 178 1
	movq	8(%r15), %rdi
	callq	__ZN5alloc5alloc8box_free17h621812deb834cb8eE
Ltmp2784:
	.loc	5 178 1
	addq	$40, %r15
Ltmp2785:
	movq	%r15, %rdi
	callq	__ZN4core3ptr13drop_in_place17h03282fba4624b210E
	movq	-48(%rbp), %rdi
	callq	__Unwind_Resume
	ud2
Ltmp2786:
LBB59_7:
Ltmp2611:
	.loc	5 0 1
	movq	%rax, -48(%rbp)
Ltmp2787:
	.loc	5 178 1
	movq	152(%r15), %rdi
	callq	__ZN5alloc5alloc8box_free17h621812deb834cb8eE
	movq	-48(%rbp), %rdi
	callq	__Unwind_Resume
	ud2
Ltmp2788:
LBB59_138:
Ltmp2561:
	.loc	5 0 1
	movq	%rax, -48(%rbp)
Ltmp2789:
	.loc	5 178 1
	movq	32(%r15), %rdi
	callq	__ZN5alloc5alloc8box_free17h621812deb834cb8eE
	movq	-48(%rbp), %rdi
	callq	__Unwind_Resume
	ud2
Ltmp2790:
LBB59_4:
Ltmp2596:
	.loc	5 0 1
	movq	%r15, -56(%rbp)
Ltmp2791:
	movq	%rax, -48(%rbp)
	jmp	LBB59_5
Ltmp2792:
LBB59_143:
Ltmp2543:
	movq	%rax, -48(%rbp)
Ltmp2793:
	.loc	5 178 1
	movq	56(%r15), %rdi
	callq	__ZN5alloc5alloc8box_free17h621812deb834cb8eE
	movq	-48(%rbp), %rdi
	callq	__Unwind_Resume
	ud2
Ltmp2794:
LBB59_98:
Ltmp2540:
	.loc	5 0 1
	jmp	LBB59_41
Ltmp2795:
LBB59_90:
Ltmp2546:
	jmp	LBB59_41
Ltmp2796:
LBB59_37:
Ltmp2590:
	movq	%rax, -48(%rbp)
	movq	%r15, -56(%rbp)
Ltmp2797:
	.loc	5 178 1
	leaq	56(%r15), %rdi
	callq	__ZN4core3ptr13drop_in_place17head78874320b1500E
Ltmp2798:
LBB59_38:
	.loc	5 0 1
	movq	-56(%rbp), %rax
	.loc	5 178 1
	leaq	80(%rax), %rdi
	callq	__ZN4core3ptr13drop_in_place17h95ef33a65d07460aE
Ltmp2799:
LBB59_5:
	.loc	5 0 1
	movq	-56(%rbp), %rax
	.loc	5 178 1
	leaq	112(%rax), %rdi
	callq	__ZN4core3ptr13drop_in_place17h4a1eb4dc4ebebe80E
	jmp	LBB59_6
Ltmp2800:
LBB59_40:
Ltmp2587:
	.loc	5 0 1
	jmp	LBB59_41
Ltmp2801:
LBB59_84:
Ltmp2552:
LBB59_41:
	movq	%rax, -48(%rbp)
	movq	8(%r15), %rdi
	callq	__ZN5alloc5alloc8box_free17h621812deb834cb8eE
	movq	-48(%rbp), %rdi
	callq	__Unwind_Resume
	ud2
Ltmp2802:
LBB59_80:
Ltmp2564:
	movq	%rax, -48(%rbp)
Ltmp2803:
	.loc	5 178 1
	addq	$56, %r15
Ltmp2804:
	movq	%r15, %rdi
	callq	__ZN4core3ptr13drop_in_place17hd09c695a35000682E
	movq	-48(%rbp), %rdi
	callq	__Unwind_Resume
	ud2
Ltmp2805:
LBB59_140:
Ltmp2614:
	.loc	5 0 1
	movq	%rax, -48(%rbp)
Ltmp2806:
	.loc	5 178 1
	movq	8(%r15), %rdi
	callq	__ZN5alloc5alloc8box_free17h621812deb834cb8eE
Ltmp2807:
	.loc	5 178 1
	addq	$16, %r15
Ltmp2808:
	movq	%r15, %rdi
	callq	__ZN4core3ptr13drop_in_place17h251faff4ea60a9a6E
	movq	-48(%rbp), %rdi
	callq	__Unwind_Resume
	ud2
Ltmp2809:
LBB59_51:
Ltmp2567:
	.loc	5 0 1
	movq	%rax, -48(%rbp)
Ltmp2810:
	.loc	5 178 1
	leaq	-72(%r12), %rdi
Ltmp2568:
	callq	__ZN4core3ptr13drop_in_place17h03282fba4624b210E
Ltmp2569:
	jmp	LBB59_50
Ltmp2811:
LBB59_67:
Ltmp2570:
	.loc	5 0 1
	movq	%rax, -48(%rbp)
	.loc	5 178 1
	testq	%rbx, %rbx
	jne	LBB59_49
	jmp	LBB59_71
Ltmp2812:
LBB59_107:
Ltmp2528:
	.loc	5 0 1
	movq	%rax, -48(%rbp)
Ltmp2813:
	.loc	5 178 1
	leaq	-72(%r12), %rdi
Ltmp2529:
	callq	__ZN4core3ptr13drop_in_place17h03282fba4624b210E
Ltmp2530:
	jmp	LBB59_106
Ltmp2814:
LBB59_121:
Ltmp2531:
	.loc	5 0 1
	movq	%rax, -48(%rbp)
	.loc	5 178 1
	testq	%rbx, %rbx
	jne	LBB59_105
	jmp	LBB59_71
Ltmp2815:
LBB59_66:
Ltmp2573:
	.loc	5 0 1
	movq	%rax, -48(%rbp)
Ltmp2816:
	.p2align	4, 0x90
LBB59_50:
	.loc	5 178 1
	testq	%rbx, %rbx
	je	LBB59_71
Ltmp2817:
LBB59_49:
	addq	$-128, %rbx
Ltmp2574:
	movq	%r12, %rdi
	addq	$128, %r12
	callq	__ZN4core3ptr13drop_in_place17h0f067b85fb51841cE
Ltmp2575:
	jmp	LBB59_50
Ltmp2818:
LBB59_120:
Ltmp2534:
	.loc	5 0 1
	movq	%rax, -48(%rbp)
Ltmp2819:
	.p2align	4, 0x90
LBB59_106:
	.loc	5 178 1
	testq	%rbx, %rbx
	je	LBB59_71
Ltmp2820:
LBB59_105:
	addq	$-128, %rbx
Ltmp2535:
	movq	%r12, %rdi
	addq	$128, %r12
	callq	__ZN4core3ptr13drop_in_place17h0f067b85fb51841cE
Ltmp2536:
	jmp	LBB59_106
Ltmp2821:
LBB59_123:
Ltmp2537:
	.loc	5 0 1
	jmp	LBB59_70
Ltmp2822:
LBB59_69:
Ltmp2576:
LBB59_70:
	movq	%rax, -48(%rbp)
Ltmp2823:
LBB59_71:
	movq	8(%r15), %rdi
	movq	16(%r15), %rsi
	callq	__ZN4core3ptr13drop_in_place17h21055b352ad1a542E
	addq	$32, %r15
Ltmp2824:
	movq	%r15, %rdi
	callq	__ZN4core3ptr13drop_in_place17hb9ff5efb3c2d27cdE
	movq	-48(%rbp), %rdi
	callq	__Unwind_Resume
	ud2
LBB59_25:
Ltmp2825:
Ltmp2599:
	movq	%rax, -48(%rbp)
Ltmp2826:
	.loc	5 178 1
	movq	%r12, %rdi
	movq	%r15, %r14
	subq	%r15, %rdi
	addq	$48, %rdi
Ltmp2600:
	callq	__ZN4core3ptr13drop_in_place17hd09c695a35000682E
Ltmp2601:
	jmp	LBB59_29
Ltmp2827:
LBB59_27:
Ltmp2602:
	.loc	5 0 1
	jmp	LBB59_28
Ltmp2828:
LBB59_26:
Ltmp2605:
LBB59_28:
	movq	%rax, -48(%rbp)
Ltmp2829:
LBB59_29:
	subq	%r14, %r12
	addq	$104, %r12
Ltmp2830:
	.p2align	4, 0x90
LBB59_22:
	.loc	5 178 1
	testq	%r13, %r13
	je	LBB59_31
Ltmp2831:
	addq	$-104, %r13
Ltmp2606:
	movq	%r12, %rdi
	addq	$104, %r12
	callq	__ZN4core3ptr13drop_in_place17hb49a5771186422a4E
Ltmp2607:
	jmp	LBB59_22
Ltmp2832:
LBB59_144:
Ltmp2555:
	.loc	5 0 1
	movq	%rax, -48(%rbp)
Ltmp2833:
	.p2align	4, 0x90
LBB59_126:
	.loc	5 178 1
	testq	%rbx, %rbx
	je	LBB59_137
Ltmp2834:
	addq	$-192, %rbx
Ltmp2556:
	movq	%r14, %rdi
	addq	$192, %r14
	callq	__ZN4core3ptr13drop_in_place17h58899a6df3993f88E
Ltmp2557:
	jmp	LBB59_126
Ltmp2835:
LBB59_136:
Ltmp2558:
	.loc	5 0 1
	movq	%rax, -48(%rbp)
Ltmp2836:
LBB59_137:
	.loc	5 178 1
	movq	8(%r15), %rdi
	movq	16(%r15), %rsi
	callq	__ZN4core3ptr13drop_in_place17he5be80f8e67be1d9E
Ltmp2837:
	.loc	5 178 1
	addq	$32, %r15
Ltmp2838:
	movq	%r15, %rdi
	callq	__ZN4core3ptr13drop_in_place17hbd395ea7b3e29d4eE
	movq	-48(%rbp), %rdi
	callq	__Unwind_Resume
	ud2
Ltmp2839:
LBB59_30:
Ltmp2608:
	.loc	5 0 1
	movq	%rax, -48(%rbp)
Ltmp2840:
LBB59_31:
	movq	-56(%rbp), %rax
Ltmp2841:
	.loc	5 178 1
	movq	112(%rax), %rdi
	movq	120(%rax), %rsi
	callq	__ZN4core3ptr13drop_in_place17hb9506100aebe7450E
Ltmp2842:
LBB59_6:
	.loc	5 0 1
	movq	-56(%rbp), %rdi
	.loc	5 178 1
	addq	$152, %rdi
	callq	__ZN4core3ptr13drop_in_place17hb2e580218afb4030E
	movq	-48(%rbp), %rdi
	callq	__Unwind_Resume
	ud2
Ltmp2843:
Lfunc_end59:
	.cfi_endproc
	.p2align	2, 0x90
	.data_region jt32
.set L59_0_set_2, LBB59_2-LJTI59_0
.set L59_0_set_32, LBB59_32-LJTI59_0
.set L59_0_set_42, LBB59_42-LJTI59_0
.set L59_0_set_44, LBB59_44-LJTI59_0
.set L59_0_set_20, LBB59_20-LJTI59_0
.set L59_0_set_81, LBB59_81-LJTI59_0
.set L59_0_set_85, LBB59_85-LJTI59_0
.set L59_0_set_86, LBB59_86-LJTI59_0
.set L59_0_set_91, LBB59_91-LJTI59_0
.set L59_0_set_92, LBB59_92-LJTI59_0
.set L59_0_set_99, LBB59_99-LJTI59_0
.set L59_0_set_100, LBB59_100-LJTI59_0
.set L59_0_set_124, LBB59_124-LJTI59_0
.set L59_0_set_139, LBB59_139-LJTI59_0
LJTI59_0:
	.long	L59_0_set_2
	.long	L59_0_set_32
	.long	L59_0_set_42
	.long	L59_0_set_44
	.long	L59_0_set_20
	.long	L59_0_set_81
	.long	L59_0_set_20
	.long	L59_0_set_85
	.long	L59_0_set_86
	.long	L59_0_set_91
	.long	L59_0_set_92
	.long	L59_0_set_99
	.long	L59_0_set_100
	.long	L59_0_set_124
	.long	L59_0_set_139
	.end_data_region
	.section	__TEXT,__gcc_except_tab
	.p2align	2
GCC_except_table59:
Lexception27:
	.byte	255
	.byte	255
	.byte	1
	.uleb128 Lcst_end27-Lcst_begin27
Lcst_begin27:
	.uleb128 Ltmp2612-Lfunc_begin59
	.uleb128 Ltmp2613-Ltmp2612
	.uleb128 Ltmp2614-Lfunc_begin59
	.byte	0
	.uleb128 Ltmp2613-Lfunc_begin59
	.uleb128 Ltmp2526-Ltmp2613
	.byte	0
	.byte	0
	.uleb128 Ltmp2526-Lfunc_begin59
	.uleb128 Ltmp2527-Ltmp2526
	.uleb128 Ltmp2528-Lfunc_begin59
	.byte	0
	.uleb128 Ltmp2532-Lfunc_begin59
	.uleb128 Ltmp2533-Ltmp2532
	.uleb128 Ltmp2534-Lfunc_begin59
	.byte	0
	.uleb128 Ltmp2562-Lfunc_begin59
	.uleb128 Ltmp2563-Ltmp2562
	.uleb128 Ltmp2564-Lfunc_begin59
	.byte	0
	.uleb128 Ltmp2563-Lfunc_begin59
	.uleb128 Ltmp2550-Ltmp2563
	.byte	0
	.byte	0
	.uleb128 Ltmp2550-Lfunc_begin59
	.uleb128 Ltmp2551-Ltmp2550
	.uleb128 Ltmp2552-Lfunc_begin59
	.byte	0
	.uleb128 Ltmp2553-Lfunc_begin59
	.uleb128 Ltmp2554-Ltmp2553
	.uleb128 Ltmp2555-Lfunc_begin59
	.byte	0
	.uleb128 Ltmp2565-Lfunc_begin59
	.uleb128 Ltmp2566-Ltmp2565
	.uleb128 Ltmp2567-Lfunc_begin59
	.byte	0
	.uleb128 Ltmp2571-Lfunc_begin59
	.uleb128 Ltmp2572-Ltmp2571
	.uleb128 Ltmp2573-Lfunc_begin59
	.byte	0
	.uleb128 Ltmp2585-Lfunc_begin59
	.uleb128 Ltmp2586-Ltmp2585
	.uleb128 Ltmp2587-Lfunc_begin59
	.byte	0
	.uleb128 Ltmp2588-Lfunc_begin59
	.uleb128 Ltmp2589-Ltmp2588
	.uleb128 Ltmp2590-Lfunc_begin59
	.byte	0
	.uleb128 Ltmp2591-Lfunc_begin59
	.uleb128 Ltmp2592-Ltmp2591
	.uleb128 Ltmp2593-Lfunc_begin59
	.byte	0
	.uleb128 Ltmp2594-Lfunc_begin59
	.uleb128 Ltmp2595-Ltmp2594
	.uleb128 Ltmp2596-Lfunc_begin59
	.byte	0
	.uleb128 Ltmp2597-Lfunc_begin59
	.uleb128 Ltmp2598-Ltmp2597
	.uleb128 Ltmp2599-Lfunc_begin59
	.byte	0
	.uleb128 Ltmp2603-Lfunc_begin59
	.uleb128 Ltmp2604-Ltmp2603
	.uleb128 Ltmp2605-Lfunc_begin59
	.byte	0
	.uleb128 Ltmp2547-Lfunc_begin59
	.uleb128 Ltmp2548-Ltmp2547
	.uleb128 Ltmp2549-Lfunc_begin59
	.byte	0
	.uleb128 Ltmp2548-Lfunc_begin59
	.uleb128 Ltmp2544-Ltmp2548
	.byte	0
	.byte	0
	.uleb128 Ltmp2544-Lfunc_begin59
	.uleb128 Ltmp2545-Ltmp2544
	.uleb128 Ltmp2546-Lfunc_begin59
	.byte	0
	.uleb128 Ltmp2538-Lfunc_begin59
	.uleb128 Ltmp2539-Ltmp2538
	.uleb128 Ltmp2540-Lfunc_begin59
	.byte	0
	.uleb128 Ltmp2541-Lfunc_begin59
	.uleb128 Ltmp2542-Ltmp2541
	.uleb128 Ltmp2543-Lfunc_begin59
	.byte	0
	.uleb128 Ltmp2559-Lfunc_begin59
	.uleb128 Ltmp2560-Ltmp2559
	.uleb128 Ltmp2561-Lfunc_begin59
	.byte	0
	.uleb128 Ltmp2560-Lfunc_begin59
	.uleb128 Ltmp2609-Ltmp2560
	.byte	0
	.byte	0
	.uleb128 Ltmp2609-Lfunc_begin59
	.uleb128 Ltmp2610-Ltmp2609
	.uleb128 Ltmp2611-Lfunc_begin59
	.byte	0
	.uleb128 Ltmp2577-Lfunc_begin59
	.uleb128 Ltmp2578-Ltmp2577
	.uleb128 Ltmp2579-Lfunc_begin59
	.byte	0
	.uleb128 Ltmp2582-Lfunc_begin59
	.uleb128 Ltmp2581-Ltmp2582
	.uleb128 Ltmp2584-Lfunc_begin59
	.byte	0
	.uleb128 Ltmp2581-Lfunc_begin59
	.uleb128 Ltmp2568-Ltmp2581
	.byte	0
	.byte	0
	.uleb128 Ltmp2568-Lfunc_begin59
	.uleb128 Ltmp2569-Ltmp2568
	.uleb128 Ltmp2570-Lfunc_begin59
	.byte	0
	.uleb128 Ltmp2529-Lfunc_begin59
	.uleb128 Ltmp2530-Ltmp2529
	.uleb128 Ltmp2531-Lfunc_begin59
	.byte	0
	.uleb128 Ltmp2574-Lfunc_begin59
	.uleb128 Ltmp2575-Ltmp2574
	.uleb128 Ltmp2576-Lfunc_begin59
	.byte	0
	.uleb128 Ltmp2535-Lfunc_begin59
	.uleb128 Ltmp2536-Ltmp2535
	.uleb128 Ltmp2537-Lfunc_begin59
	.byte	0
	.uleb128 Ltmp2536-Lfunc_begin59
	.uleb128 Ltmp2600-Ltmp2536
	.byte	0
	.byte	0
	.uleb128 Ltmp2600-Lfunc_begin59
	.uleb128 Ltmp2601-Ltmp2600
	.uleb128 Ltmp2602-Lfunc_begin59
	.byte	0
	.uleb128 Ltmp2606-Lfunc_begin59
	.uleb128 Ltmp2607-Ltmp2606
	.uleb128 Ltmp2608-Lfunc_begin59
	.byte	0
	.uleb128 Ltmp2556-Lfunc_begin59
	.uleb128 Ltmp2557-Ltmp2556
	.uleb128 Ltmp2558-Lfunc_begin59
	.byte	0
	.uleb128 Ltmp2557-Lfunc_begin59
	.uleb128 Lfunc_end59-Ltmp2557
	.byte	0
	.byte	0
Lcst_end27:
	.p2align	2

	.section	__TEXT,__text,regular,pure_instructions
	.p2align	4, 0x90
__ZN4core3ptr13drop_in_place17h51e5f0703cbd3775E:
Lfunc_begin60:
	.loc	5 178 0 is_stmt 1
	.cfi_startproc
	.cfi_personality 155, _rust_eh_personality
	.cfi_lsda 16, Lexception28
	pushq	%rbp
	.cfi_def_cfa_offset 16
	.cfi_offset %rbp, -16
	movq	%rsp, %rbp
	.cfi_def_cfa_register %rbp
Ltmp2856:
	pushq	%r15
	pushq	%r14
	pushq	%r13
	pushq	%r12
	pushq	%rbx
	subq	$40, %rsp
	.cfi_offset %rbx, -56
	.cfi_offset %r12, -48
	.cfi_offset %r13, -40
	.cfi_offset %r14, -32
	.cfi_offset %r15, -24
	.loc	5 178 1 prologue_end
	movq	(%rdi), %rax
Ltmp2857:
	testq	%rax, %rax
	je	LBB60_23
Ltmp2858:
	.loc	5 0 1 is_stmt 0
	movq	%rdi, -56(%rbp)
Ltmp2859:
	.loc	18 850 19 is_stmt 1
	movq	(%rax), %r13
Ltmp2860:
	.loc	18 0 19 is_stmt 0
	movq	%rax, -48(%rbp)
Ltmp2861:
	.loc	5 178 1 is_stmt 1
	imulq	$104, 16(%rax), %rax
Ltmp2862:
	addq	$-104, %rax
	xorl	%r15d, %r15d
	movq	%r13, %rbx
Ltmp2863:
	.p2align	4, 0x90
LBB60_2:
	cmpq	$-104, %rax
	je	LBB60_3
Ltmp2864:
	.loc	5 0 0 is_stmt 0
	movq	%rax, %r12
Ltmp2844:
Ltmp2865:
	.loc	5 178 1
	movq	%rbx, %rdi
	callq	__ZN4core3ptr13drop_in_place17h77634634be9e535eE
Ltmp2845:
Ltmp2866:
	.loc	5 0 0
	leaq	104(%rbx), %rax
	movq	%rax, -72(%rbp)
Ltmp2867:
	.loc	5 178 1
	addq	$48, %rbx
Ltmp2868:
	leaq	-104(%r12), %rax
	movq	%rax, -64(%rbp)
	movq	%r15, %r14
	addq	$-104, %r15
Ltmp2850:
	movq	%rbx, %rdi
	callq	__ZN4core3ptr13drop_in_place17hd09c695a35000682E
	movq	-64(%rbp), %rax
Ltmp2851:
	movq	-72(%rbp), %rbx
	jmp	LBB60_2
Ltmp2869:
LBB60_3:
	.loc	5 0 1
	movq	-48(%rbp), %rbx
	.loc	5 178 1
	movq	8(%rbx), %rax
Ltmp2870:
	.loc	19 200 40 is_stmt 1
	testq	%rax, %rax
	movq	-56(%rbp), %r14
	.loc	19 200 9 is_stmt 0
	je	LBB60_7
Ltmp2871:
	.loc	5 0 0
	movq	(%rbx), %rdi
Ltmp2872:
	.loc	19 532 16 is_stmt 1
	testq	%rdi, %rdi
Ltmp2873:
	je	LBB60_7
Ltmp2874:
	.loc	19 0 0 is_stmt 0
	imulq	$104, %rax, %rsi
Ltmp2875:
	.loc	19 532 16
	testq	%rsi, %rsi
	je	LBB60_7
Ltmp2876:
	.loc	20 102 5 is_stmt 1
	movl	$8, %edx
	callq	___rust_dealloc
Ltmp2877:
LBB60_7:
	.loc	5 178 1
	cmpl	$0, 24(%rbx)
	je	LBB60_11
Ltmp2878:
	.loc	5 178 1 is_stmt 0
	movq	32(%rbx), %rdi
Ltmp2879:
	.loc	19 532 16 is_stmt 1
	testq	%rdi, %rdi
Ltmp2880:
	.loc	19 200 9
	je	LBB60_11
Ltmp2881:
	.loc	5 0 0 is_stmt 0
	movq	40(%rbx), %rsi
Ltmp2882:
	.loc	19 200 9
	testq	%rsi, %rsi
	je	LBB60_11
Ltmp2883:
	.loc	20 102 5 is_stmt 1
	movl	$1, %edx
	callq	___rust_dealloc
Ltmp2884:
LBB60_11:
	.loc	5 178 1
	addq	$72, %rbx
	movq	%rbx, %rdi
	callq	__ZN4core3ptr13drop_in_place17hd2661c7a6b945c6cE
Ltmp2885:
	.loc	5 178 1 is_stmt 0
	movq	(%r14), %rdi
Ltmp2886:
	.loc	20 102 5 is_stmt 1
	movl	$112, %esi
	movl	$8, %edx
	addq	$40, %rsp
	popq	%rbx
	popq	%r12
	popq	%r13
	popq	%r14
	popq	%r15
	popq	%rbp
	jmp	___rust_dealloc
Ltmp2887:
LBB60_23:
	.loc	5 178 1
	addq	$40, %rsp
	popq	%rbx
	popq	%r12
	popq	%r13
	popq	%r14
	popq	%r15
	popq	%rbp
	retq
Ltmp2888:
LBB60_16:
Ltmp2846:
	.loc	5 0 1 is_stmt 0
	movq	%rax, %r14
Ltmp2889:
	.loc	5 178 1
	movq	%r13, %rdi
	movq	%r15, %rbx
Ltmp2890:
	subq	%r15, %rdi
	addq	$48, %rdi
Ltmp2847:
	callq	__ZN4core3ptr13drop_in_place17hd09c695a35000682E
Ltmp2848:
	jmp	LBB60_20
Ltmp2891:
LBB60_18:
Ltmp2849:
	.loc	5 0 1
	jmp	LBB60_19
Ltmp2892:
LBB60_17:
Ltmp2852:
	movq	%r14, %rbx
Ltmp2893:
LBB60_19:
	movq	%rax, %r14
Ltmp2894:
LBB60_20:
	subq	%rbx, %r13
Ltmp2895:
	addq	$104, %r13
Ltmp2896:
	.p2align	4, 0x90
LBB60_13:
	.loc	5 178 1
	testq	%r12, %r12
	je	LBB60_22
Ltmp2897:
	addq	$-104, %r12
Ltmp2853:
	movq	%r13, %rdi
	addq	$104, %r13
	callq	__ZN4core3ptr13drop_in_place17hb49a5771186422a4E
Ltmp2854:
	jmp	LBB60_13
Ltmp2898:
LBB60_21:
Ltmp2855:
	.loc	5 0 1
	movq	%rax, %r14
Ltmp2899:
LBB60_22:
	movq	-48(%rbp), %rbx
	.loc	5 178 1
	movq	(%rbx), %rdi
	movq	8(%rbx), %rsi
	callq	__ZN4core3ptr13drop_in_place17hb9506100aebe7450E
Ltmp2900:
	.loc	5 178 1
	leaq	24(%rbx), %rdi
	callq	__ZN4core3ptr13drop_in_place17h052be63e218904f2E
	addq	$72, %rbx
	movq	%rbx, %rdi
	callq	__ZN4core3ptr13drop_in_place17hd2661c7a6b945c6cE
	movq	-56(%rbp), %rax
Ltmp2901:
	.loc	5 178 1
	movq	(%rax), %rdi
	callq	__ZN5alloc5alloc8box_free17h2808d984cc7c6832E
	movq	%r14, %rdi
	callq	__Unwind_Resume
	ud2
Ltmp2902:
Lfunc_end60:
	.cfi_endproc
	.section	__TEXT,__gcc_except_tab
	.p2align	2
GCC_except_table60:
Lexception28:
	.byte	255
	.byte	255
	.byte	1
	.uleb128 Lcst_end28-Lcst_begin28
Lcst_begin28:
	.uleb128 Ltmp2844-Lfunc_begin60
	.uleb128 Ltmp2845-Ltmp2844
	.uleb128 Ltmp2846-Lfunc_begin60
	.byte	0
	.uleb128 Ltmp2850-Lfunc_begin60
	.uleb128 Ltmp2851-Ltmp2850
	.uleb128 Ltmp2852-Lfunc_begin60
	.byte	0
	.uleb128 Ltmp2847-Lfunc_begin60
	.uleb128 Ltmp2848-Ltmp2847
	.uleb128 Ltmp2849-Lfunc_begin60
	.byte	0
	.uleb128 Ltmp2853-Lfunc_begin60
	.uleb128 Ltmp2854-Ltmp2853
	.uleb128 Ltmp2855-Lfunc_begin60
	.byte	0
	.uleb128 Ltmp2854-Lfunc_begin60
	.uleb128 Lfunc_end60-Ltmp2854
	.byte	0
	.byte	0
Lcst_end28:
	.p2align	2

	.section	__TEXT,__text,regular,pure_instructions
	.p2align	4, 0x90
__ZN4core3ptr13drop_in_place17h529a4aa94cb267b2E:
Lfunc_begin61:
	.loc	5 178 0 is_stmt 1
	.cfi_startproc
	.cfi_personality 155, _rust_eh_personality
	.cfi_lsda 16, Lexception29
	pushq	%rbp
	.cfi_def_cfa_offset 16
	.cfi_offset %rbp, -16
	movq	%rsp, %rbp
	.cfi_def_cfa_register %rbp
	pushq	%r15
	pushq	%r14
	pushq	%r12
	pushq	%rbx
	.cfi_offset %rbx, -48
	.cfi_offset %r12, -40
	.cfi_offset %r14, -32
	.cfi_offset %r15, -24
	movq	%rdi, %r15
Ltmp2912:
	.loc	18 850 19 prologue_end
	movq	(%rdi), %r12
Ltmp2913:
	.loc	5 178 1
	imulq	$120, 16(%rdi), %rbx
Ltmp2914:
	.p2align	4, 0x90
LBB61_4:
	testq	%rbx, %rbx
	je	LBB61_5
Ltmp2915:
	.loc	5 178 1 is_stmt 0
	addq	$-120, %rbx
Ltmp2903:
	movq	%r12, %rdi
Ltmp2916:
	.loc	5 178 1
	addq	$120, %r12
Ltmp2917:
	.loc	5 178 1
	callq	__ZN4core3ptr13drop_in_place17h251faff4ea60a9a6E
Ltmp2904:
	jmp	LBB61_4
Ltmp2918:
LBB61_5:
	.loc	5 178 1
	movq	8(%r15), %rax
Ltmp2919:
	.loc	19 200 40 is_stmt 1
	testq	%rax, %rax
	.loc	19 200 9 is_stmt 0
	je	LBB61_9
Ltmp2920:
	.loc	5 0 0
	movq	(%r15), %rdi
Ltmp2921:
	.loc	19 532 16 is_stmt 1
	testq	%rdi, %rdi
Ltmp2922:
	je	LBB61_9
Ltmp2923:
	.loc	19 0 0 is_stmt 0
	imulq	$120, %rax, %rsi
Ltmp2924:
	.loc	19 532 16
	testq	%rsi, %rsi
	je	LBB61_9
Ltmp2925:
	.loc	20 102 5 is_stmt 1
	movl	$8, %edx
	callq	___rust_dealloc
Ltmp2926:
LBB61_9:
	.loc	5 178 1
	movq	24(%r15), %rdi
	testq	%rdi, %rdi
	je	LBB61_14
Ltmp2927:
Ltmp2909:
	.loc	5 178 1 is_stmt 0
	callq	__ZN4core3ptr13drop_in_place17h251faff4ea60a9a6E
Ltmp2910:
Ltmp2928:
	movq	24(%r15), %rdi
Ltmp2929:
	.loc	20 102 5 is_stmt 1
	movl	$112, %esi
	movl	$8, %edx
	popq	%rbx
	popq	%r12
	popq	%r14
	popq	%r15
Ltmp2930:
	popq	%rbp
	jmp	___rust_dealloc
Ltmp2931:
LBB61_14:
	.loc	5 178 1
	popq	%rbx
	popq	%r12
	popq	%r14
	popq	%r15
Ltmp2932:
	popq	%rbp
	retq
LBB61_15:
Ltmp2933:
Ltmp2911:
	.loc	5 0 1 is_stmt 0
	movq	%rax, %r14
Ltmp2934:
	.loc	5 178 1
	movq	24(%r15), %rdi
	callq	__ZN5alloc5alloc8box_free17h2808d984cc7c6832E
	movq	%r14, %rdi
	callq	__Unwind_Resume
	ud2
Ltmp2935:
LBB61_17:
Ltmp2905:
	.loc	5 0 1
	movq	%rax, %r14
Ltmp2936:
	.p2align	4, 0x90
LBB61_2:
	.loc	5 178 1
	testq	%rbx, %rbx
	je	LBB61_13
Ltmp2937:
	addq	$-120, %rbx
Ltmp2906:
	movq	%r12, %rdi
	addq	$120, %r12
	callq	__ZN4core3ptr13drop_in_place17hc8b2835925cb72f1E
Ltmp2907:
	jmp	LBB61_2
Ltmp2938:
LBB61_12:
Ltmp2908:
	.loc	5 0 1
	movq	%rax, %r14
Ltmp2939:
LBB61_13:
	.loc	5 178 1
	movq	(%r15), %rdi
	movq	8(%r15), %rsi
	callq	__ZN4core3ptr13drop_in_place17h05bcc5f8af6a20c2E
Ltmp2940:
	.loc	5 178 1
	addq	$24, %r15
Ltmp2941:
	movq	%r15, %rdi
	callq	__ZN4core3ptr13drop_in_place17h16cc69f77025971dE
	movq	%r14, %rdi
	callq	__Unwind_Resume
	ud2
Ltmp2942:
Lfunc_end61:
	.cfi_endproc
	.section	__TEXT,__gcc_except_tab
	.p2align	2
GCC_except_table61:
Lexception29:
	.byte	255
	.byte	255
	.byte	1
	.uleb128 Lcst_end29-Lcst_begin29
Lcst_begin29:
	.uleb128 Ltmp2903-Lfunc_begin61
	.uleb128 Ltmp2904-Ltmp2903
	.uleb128 Ltmp2905-Lfunc_begin61
	.byte	0
	.uleb128 Ltmp2909-Lfunc_begin61
	.uleb128 Ltmp2910-Ltmp2909
	.uleb128 Ltmp2911-Lfunc_begin61
	.byte	0
	.uleb128 Ltmp2910-Lfunc_begin61
	.uleb128 Ltmp2906-Ltmp2910
	.byte	0
	.byte	0
	.uleb128 Ltmp2906-Lfunc_begin61
	.uleb128 Ltmp2907-Ltmp2906
	.uleb128 Ltmp2908-Lfunc_begin61
	.byte	0
	.uleb128 Ltmp2907-Lfunc_begin61
	.uleb128 Lfunc_end61-Ltmp2907
	.byte	0
	.byte	0
Lcst_end29:
	.p2align	2

	.section	__TEXT,__text,regular,pure_instructions
	.p2align	4, 0x90
__ZN4core3ptr13drop_in_place17h52c742423c9b2761E:
Lfunc_begin62:
	.loc	5 178 0 is_stmt 1
	.cfi_startproc
	.cfi_personality 155, _rust_eh_personality
	.cfi_lsda 16, Lexception30
	pushq	%rbp
	.cfi_def_cfa_offset 16
	.cfi_offset %rbp, -16
	movq	%rsp, %rbp
	.cfi_def_cfa_register %rbp
	pushq	%r15
	pushq	%r14
	pushq	%r12
	pushq	%rbx
	.cfi_offset %rbx, -48
	.cfi_offset %r12, -40
	.cfi_offset %r14, -32
	.cfi_offset %r15, -24
	movq	%rdi, %r14
Ltmp2949:
	.loc	18 850 19 prologue_end
	movq	(%rdi), %rbx
Ltmp2950:
	.loc	18 2384 81
	movq	16(%rdi), %rax
Ltmp2951:
	.loc	5 178 1
	shlq	$3, %rax
Ltmp2952:
	leaq	(%rax,%rax,4), %r12
Ltmp2953:
	.p2align	4, 0x90
LBB62_5:
	testq	%r12, %r12
	je	LBB62_6
Ltmp2954:
	addq	$-40, %r12
Ltmp2943:
	movq	%rbx, %rdi
	addq	$40, %rbx
Ltmp2955:
	callq	__ZN4core3ptr13drop_in_place17hd09c695a35000682E
Ltmp2944:
	jmp	LBB62_5
Ltmp2956:
LBB62_6:
	.loc	5 178 1 is_stmt 0
	movq	8(%r14), %rax
Ltmp2957:
	.loc	19 200 40 is_stmt 1
	testq	%rax, %rax
	.loc	19 200 9 is_stmt 0
	je	LBB62_9
Ltmp2958:
	.loc	5 0 0
	movq	(%r14), %rdi
Ltmp2959:
	.loc	19 532 16 is_stmt 1
	testq	%rdi, %rdi
Ltmp2960:
	je	LBB62_9
Ltmp2961:
	.loc	19 0 0 is_stmt 0
	shlq	$3, %rax
	leaq	(%rax,%rax,4), %rsi
Ltmp2962:
	.loc	19 532 16
	testq	%rsi, %rsi
	je	LBB62_9
Ltmp2963:
	.loc	20 102 5 is_stmt 1
	movl	$8, %edx
	popq	%rbx
	popq	%r12
	popq	%r14
Ltmp2964:
	popq	%r15
	popq	%rbp
	jmp	___rust_dealloc
Ltmp2965:
LBB62_9:
	.loc	5 178 1
	popq	%rbx
	popq	%r12
	popq	%r14
Ltmp2966:
	popq	%r15
	popq	%rbp
	retq
LBB62_1:
Ltmp2967:
Ltmp2945:
	.loc	5 0 1 is_stmt 0
	movq	%rax, %r15
Ltmp2968:
	.loc	5 178 1
	testq	%r12, %r12
	je	LBB62_11
Ltmp2969:
	.p2align	4, 0x90
LBB62_2:
Ltmp2946:
	movq	%rbx, %rdi
	callq	__ZN4core3ptr13drop_in_place17hd09c695a35000682E
Ltmp2947:
Ltmp2970:
	addq	$40, %rbx
	addq	$-40, %r12
	jne	LBB62_2
	jmp	LBB62_11
Ltmp2971:
LBB62_10:
Ltmp2948:
	.loc	5 0 1
	movq	%rax, %r15
Ltmp2972:
LBB62_11:
	.loc	5 178 1
	movq	(%r14), %rdi
	movq	8(%r14), %rsi
	callq	__ZN4core3ptr13drop_in_place17h1c6bc1bd5cefdd10E
	movq	%r15, %rdi
	callq	__Unwind_Resume
	ud2
Ltmp2973:
Lfunc_end62:
	.cfi_endproc
	.section	__TEXT,__gcc_except_tab
	.p2align	2
GCC_except_table62:
Lexception30:
	.byte	255
	.byte	255
	.byte	1
	.uleb128 Lcst_end30-Lcst_begin30
Lcst_begin30:
	.uleb128 Ltmp2943-Lfunc_begin62
	.uleb128 Ltmp2944-Ltmp2943
	.uleb128 Ltmp2945-Lfunc_begin62
	.byte	0
	.uleb128 Ltmp2946-Lfunc_begin62
	.uleb128 Ltmp2947-Ltmp2946
	.uleb128 Ltmp2948-Lfunc_begin62
	.byte	0
	.uleb128 Ltmp2947-Lfunc_begin62
	.uleb128 Lfunc_end62-Ltmp2947
	.byte	0
	.byte	0
Lcst_end30:
	.p2align	2

	.section	__TEXT,__text,regular,pure_instructions
	.p2align	4, 0x90
__ZN4core3ptr13drop_in_place17h53e68735d30f96d8E:
Lfunc_begin63:
	.loc	5 178 0 is_stmt 1
	.cfi_startproc
	.cfi_personality 155, _rust_eh_personality
	.cfi_lsda 16, Lexception31
	pushq	%rbp
	.cfi_def_cfa_offset 16
	.cfi_offset %rbp, -16
	movq	%rsp, %rbp
	.cfi_def_cfa_register %rbp
	pushq	%r15
	pushq	%r14
	pushq	%rbx
	pushq	%rax
	.cfi_offset %rbx, -40
	.cfi_offset %r14, -32
	.cfi_offset %r15, -24
	movq	%rdi, %r14
Ltmp2977:
	.loc	5 178 1 prologue_end
	movq	(%rdi), %rbx
Ltmp2978:
	.loc	5 178 1 is_stmt 0
	cmpl	$0, (%rbx)
	je	LBB63_1
Ltmp2979:
	.loc	5 178 1
	movq	8(%rbx), %rdi
Ltmp2980:
	.loc	19 532 16 is_stmt 1
	testq	%rdi, %rdi
Ltmp2981:
	.loc	19 200 9
	je	LBB63_5
Ltmp2982:
	.loc	5 0 0 is_stmt 0
	movq	16(%rbx), %rsi
Ltmp2983:
	.loc	19 200 9
	testq	%rsi, %rsi
	je	LBB63_5
Ltmp2984:
	.loc	20 102 5 is_stmt 1
	movl	$1, %edx
	callq	___rust_dealloc
Ltmp2985:
	.loc	5 178 1
	movq	40(%rbx), %rsi
Ltmp2986:
	.loc	20 185 12
	testq	%rsi, %rsi
	.loc	20 185 9 is_stmt 0
	jne	LBB63_6
	jmp	LBB63_7
Ltmp2987:
LBB63_1:
	.loc	5 178 1 is_stmt 1
	leaq	4(%rbx), %rdi
Ltmp2988:
Ltmp2974:
	.loc	5 178 1 is_stmt 0
	callq	__ZN77_$LT$proc_macro..bridge..client..Literal$u20$as$u20$core..ops..drop..Drop$GT$4drop17he2aea19d6a82f53dE
Ltmp2989:
Ltmp2975:
LBB63_5:
	.loc	5 178 1
	movq	40(%rbx), %rsi
Ltmp2990:
	.loc	20 185 12 is_stmt 1
	testq	%rsi, %rsi
	.loc	20 185 9 is_stmt 0
	je	LBB63_7
Ltmp2991:
LBB63_6:
	.loc	5 178 1 is_stmt 1
	movq	32(%rbx), %rdi
Ltmp2992:
	.loc	20 102 5
	movl	$1, %edx
	callq	___rust_dealloc
Ltmp2993:
LBB63_7:
	.loc	5 178 1
	movq	(%r14), %rdi
Ltmp2994:
	.loc	20 102 5
	movl	$48, %esi
	movl	$8, %edx
	addq	$8, %rsp
	popq	%rbx
	popq	%r14
Ltmp2995:
	popq	%r15
	popq	%rbp
	jmp	___rust_dealloc
Ltmp2996:
LBB63_8:
Ltmp2976:
	.loc	20 0 5 is_stmt 0
	movq	%rax, %r15
Ltmp2997:
	.loc	5 178 1 is_stmt 1
	addq	$32, %rbx
Ltmp2998:
	movq	%rbx, %rdi
	callq	__ZN4core3ptr13drop_in_place17h3455c79962054a31E
Ltmp2999:
	.loc	5 178 1 is_stmt 0
	movq	(%r14), %rdi
	callq	__ZN5alloc5alloc8box_free17h0186a06cd496174eE
	movq	%r15, %rdi
	callq	__Unwind_Resume
	ud2
Ltmp3000:
Lfunc_end63:
	.cfi_endproc
	.section	__TEXT,__gcc_except_tab
	.p2align	2
GCC_except_table63:
Lexception31:
	.byte	255
	.byte	255
	.byte	1
	.uleb128 Lcst_end31-Lcst_begin31
Lcst_begin31:
	.uleb128 Ltmp2974-Lfunc_begin63
	.uleb128 Ltmp2975-Ltmp2974
	.uleb128 Ltmp2976-Lfunc_begin63
	.byte	0
	.uleb128 Ltmp2975-Lfunc_begin63
	.uleb128 Lfunc_end63-Ltmp2975
	.byte	0
	.byte	0
Lcst_end31:
	.p2align	2

	.section	__TEXT,__text,regular,pure_instructions
	.p2align	4, 0x90
__ZN4core3ptr13drop_in_place17h558421f041855195E:
Lfunc_begin64:
	.loc	5 178 0 is_stmt 1
	.cfi_startproc
	pushq	%rbp
	.cfi_def_cfa_offset 16
	.cfi_offset %rbp, -16
	movq	%rsp, %rbp
	.cfi_def_cfa_register %rbp
Ltmp3001:
	.loc	5 178 1 prologue_end
	cmpl	$16, (%rdi)
	jne	LBB64_2
Ltmp3002:
	popq	%rbp
	retq
Ltmp3003:
LBB64_2:
	popq	%rbp
	jmp	__ZN4core3ptr13drop_in_place17h4cf03e8b23c4b321E
Ltmp3004:
Lfunc_end64:
	.cfi_endproc

	.p2align	4, 0x90
__ZN4core3ptr13drop_in_place17h55eab01652b365e3E:
Lfunc_begin65:
	.loc	5 178 0
	.cfi_startproc
	pushq	%rbp
	.cfi_def_cfa_offset 16
	.cfi_offset %rbp, -16
	movq	%rsp, %rbp
	.cfi_def_cfa_register %rbp
Ltmp3005:
	.loc	19 200 40 prologue_end
	testq	%rsi, %rsi
	.loc	19 200 9 is_stmt 0
	je	LBB65_3
Ltmp3006:
	.loc	19 532 16 is_stmt 1
	testq	%rdi, %rdi
Ltmp3007:
	je	LBB65_3
Ltmp3008:
	.loc	19 0 0 is_stmt 0
	imulq	$248, %rsi, %rsi
Ltmp3009:
	.loc	19 532 16
	testq	%rsi, %rsi
	je	LBB65_3
Ltmp3010:
	.loc	20 102 5 is_stmt 1
	movl	$8, %edx
	popq	%rbp
	jmp	___rust_dealloc
Ltmp3011:
LBB65_3:
	.loc	5 178 1
	popq	%rbp
	retq
Ltmp3012:
Lfunc_end65:
	.cfi_endproc

	.p2align	4, 0x90
__ZN4core3ptr13drop_in_place17h57fe97f3990eea31E:
Lfunc_begin66:
	.loc	5 178 0
	.cfi_startproc
	pushq	%rbp
	.cfi_def_cfa_offset 16
	.cfi_offset %rbp, -16
	movq	%rsp, %rbp
	.cfi_def_cfa_register %rbp
Ltmp3013:
	.loc	19 200 40 prologue_end
	testq	%rsi, %rsi
	.loc	19 200 9 is_stmt 0
	je	LBB66_3
Ltmp3014:
	.loc	19 532 16 is_stmt 1
	testq	%rdi, %rdi
Ltmp3015:
	je	LBB66_3
Ltmp3016:
	.loc	19 0 0 is_stmt 0
	movq	%rsi, %rax
	shlq	$8, %rax
	leaq	(%rax,%rsi,8), %rsi
Ltmp3017:
	.loc	19 532 16
	testq	%rsi, %rsi
	je	LBB66_3
Ltmp3018:
	.loc	20 102 5 is_stmt 1
	movl	$8, %edx
	popq	%rbp
	jmp	___rust_dealloc
Ltmp3019:
LBB66_3:
	.loc	5 178 1
	popq	%rbp
	retq
Ltmp3020:
Lfunc_end66:
	.cfi_endproc

	.p2align	4, 0x90
__ZN4core3ptr13drop_in_place17h58899a6df3993f88E:
Lfunc_begin67:
	.loc	5 178 0
	.cfi_startproc
	pushq	%rbp
	.cfi_def_cfa_offset 16
	.cfi_offset %rbp, -16
	movq	%rsp, %rbp
	.cfi_def_cfa_register %rbp
Ltmp3021:
	.loc	5 178 1 prologue_end
	popq	%rbp
	jmp	__ZN4core3ptr13drop_in_place17h4cf03e8b23c4b321E
Ltmp3022:
Lfunc_end67:
	.cfi_endproc

	.p2align	4, 0x90
__ZN4core3ptr13drop_in_place17h5ad098770b869da8E:
Lfunc_begin68:
	.loc	5 178 0
	.cfi_startproc
	pushq	%rbp
	.cfi_def_cfa_offset 16
	.cfi_offset %rbp, -16
	movq	%rsp, %rbp
	.cfi_def_cfa_register %rbp
Ltmp3023:
	.loc	5 178 1 prologue_end
	popq	%rbp
	jmp	__ZN4core3ptr13drop_in_place17hb500da5abc30c158E
Ltmp3024:
Lfunc_end68:
	.cfi_endproc

	.p2align	4, 0x90
__ZN4core3ptr13drop_in_place17h5b7de17cc5c26832E:
Lfunc_begin69:
	.loc	5 178 0
	.cfi_startproc
	.cfi_personality 155, _rust_eh_personality
	.cfi_lsda 16, Lexception32
	pushq	%rbp
	.cfi_def_cfa_offset 16
	.cfi_offset %rbp, -16
	movq	%rsp, %rbp
	.cfi_def_cfa_register %rbp
	pushq	%r14
	pushq	%rbx
	.cfi_offset %rbx, -32
	.cfi_offset %r14, -24
	movq	%rdi, %rbx
Ltmp3028:
	.loc	5 178 1 prologue_end
	movq	(%rdi), %rdi
	testq	%rdi, %rdi
	je	LBB69_3
Ltmp3029:
Ltmp3025:
	.loc	5 178 1 is_stmt 0
	callq	__ZN4core3ptr13drop_in_place17hb500da5abc30c158E
Ltmp3026:
Ltmp3030:
	movq	(%rbx), %rdi
Ltmp3031:
	.loc	20 102 5 is_stmt 1
	movl	$384, %esi
	movl	$8, %edx
	popq	%rbx
Ltmp3032:
	popq	%r14
	popq	%rbp
	jmp	___rust_dealloc
Ltmp3033:
LBB69_3:
	.loc	5 178 1
	popq	%rbx
Ltmp3034:
	popq	%r14
	popq	%rbp
	retq
LBB69_4:
Ltmp3035:
Ltmp3027:
	.loc	5 0 1 is_stmt 0
	movq	%rax, %r14
Ltmp3036:
	.loc	5 178 1
	movq	(%rbx), %rdi
	callq	__ZN5alloc5alloc8box_free17hbee5418459fd2d09E
	movq	%r14, %rdi
	callq	__Unwind_Resume
	ud2
Ltmp3037:
Lfunc_end69:
	.cfi_endproc
	.section	__TEXT,__gcc_except_tab
	.p2align	2
GCC_except_table69:
Lexception32:
	.byte	255
	.byte	255
	.byte	1
	.uleb128 Lcst_end32-Lcst_begin32
Lcst_begin32:
	.uleb128 Ltmp3025-Lfunc_begin69
	.uleb128 Ltmp3026-Ltmp3025
	.uleb128 Ltmp3027-Lfunc_begin69
	.byte	0
	.uleb128 Ltmp3026-Lfunc_begin69
	.uleb128 Lfunc_end69-Ltmp3026
	.byte	0
	.byte	0
Lcst_end32:
	.p2align	2

	.section	__TEXT,__text,regular,pure_instructions
	.p2align	4, 0x90
__ZN4core3ptr13drop_in_place17h60e637d3d3e277d8E:
Lfunc_begin70:
	.loc	5 178 0 is_stmt 1
	.cfi_startproc
	.cfi_personality 155, _rust_eh_personality
	.cfi_lsda 16, Lexception33
	pushq	%rbp
	.cfi_def_cfa_offset 16
	.cfi_offset %rbp, -16
	movq	%rsp, %rbp
	.cfi_def_cfa_register %rbp
	pushq	%r15
	pushq	%r14
	pushq	%r12
	pushq	%rbx
	.cfi_offset %rbx, -48
	.cfi_offset %r12, -40
	.cfi_offset %r14, -32
	.cfi_offset %r15, -24
	movq	%rdi, %r14
Ltmp3044:
	.loc	18 850 19 prologue_end
	movq	(%rdi), %r12
Ltmp3045:
	.loc	18 2384 81
	movq	16(%rdi), %rax
Ltmp3046:
	.loc	5 178 1
	shlq	$4, %rax
Ltmp3047:
	leaq	(%rax,%rax,2), %rbx
Ltmp3048:
	.p2align	4, 0x90
LBB70_4:
	testq	%rbx, %rbx
	je	LBB70_5
Ltmp3049:
	addq	$-48, %rbx
Ltmp3038:
	movq	%r12, %rdi
	addq	$48, %r12
Ltmp3050:
	callq	__ZN4core3ptr13drop_in_place17ha6d207040d602fe5E
Ltmp3039:
	jmp	LBB70_4
Ltmp3051:
LBB70_5:
	.loc	5 178 1 is_stmt 0
	movq	8(%r14), %rax
Ltmp3052:
	.loc	19 200 40 is_stmt 1
	testq	%rax, %rax
	.loc	19 200 9 is_stmt 0
	je	LBB70_8
Ltmp3053:
	.loc	5 0 0
	movq	(%r14), %rdi
Ltmp3054:
	.loc	19 532 16 is_stmt 1
	testq	%rdi, %rdi
Ltmp3055:
	je	LBB70_8
Ltmp3056:
	.loc	19 0 0 is_stmt 0
	shlq	$4, %rax
	leaq	(%rax,%rax,2), %rsi
Ltmp3057:
	.loc	19 532 16
	testq	%rsi, %rsi
	je	LBB70_8
Ltmp3058:
	.loc	20 102 5 is_stmt 1
	movl	$8, %edx
