	.section	__TEXT,__text,regular,pure_instructions
	.macosx_version_min 10, 7
	.file	1 "/Users/yingyuhang/.cargo/registry/src/github.com-1ecc6299db9ec823/failure-0.1.8/src/backtrace/internal.rs"
	.p2align	4, 0x90
__ZN3std5error5Error5cause17h11d1d2aa78fd9733E:
Lfunc_begin0:
	.file	2 "/rustc/6c8927b0cf80ceee19386026cf9d7fd4fd9d486f/src/libstd/error.rs"
	.loc	2 150 0
	.cfi_startproc
	pushq	%rbp
	.cfi_def_cfa_offset 16
	.cfi_offset %rbp, -16
	movq	%rsp, %rbp
	.cfi_def_cfa_register %rbp
Ltmp0:
	.loc	2 152 6 prologue_end
	xorl	%eax, %eax
	popq	%rbp
	retq
Ltmp1:
Lfunc_end0:
	.cfi_endproc

	.p2align	4, 0x90
__ZN3std5error5Error7type_id17h5da9efe9e3ce8d0aE:
Lfunc_begin1:
	.loc	2 111 0
	.cfi_startproc
	pushq	%rbp
	.cfi_def_cfa_offset 16
	.cfi_offset %rbp, -16
	movq	%rsp, %rbp
	.cfi_def_cfa_register %rbp
	movabsq	$-906282015132628886, %rax
Ltmp2:
	.loc	2 116 6 prologue_end
	popq	%rbp
	retq
Ltmp3:
Lfunc_end1:
	.cfi_endproc

	.p2align	4, 0x90
__ZN3std5error5Error9backtrace17hb09fabe3218f91a9E:
Lfunc_begin2:
	.loc	2 128 0
	.cfi_startproc
	pushq	%rbp
	.cfi_def_cfa_offset 16
	.cfi_offset %rbp, -16
	movq	%rsp, %rbp
	.cfi_def_cfa_register %rbp
Ltmp4:
	.loc	2 130 6 prologue_end
	xorl	%eax, %eax
	popq	%rbp
	retq
Ltmp5:
Lfunc_end2:
	.cfi_endproc

	.p2align	4, 0x90
__ZN42_$LT$$RF$T$u20$as$u20$core..fmt..Debug$GT$3fmt17h5185150447c208d3E:
Lfunc_begin3:
	.file	3 "/rustc/6c8927b0cf80ceee19386026cf9d7fd4fd9d486f/src/libcore/fmt/mod.rs"
	.loc	3 2022 0
	.cfi_startproc
	pushq	%rbp
	.cfi_def_cfa_offset 16
	.cfi_offset %rbp, -16
	movq	%rsp, %rbp
	.cfi_def_cfa_register %rbp
Ltmp6:
	.loc	3 2022 71 prologue_end
	movq	(%rdi), %rax
	.loc	3 2022 62 is_stmt 0
	movq	(%rax), %rdi
Ltmp7:
	.loc	3 2022 62
	popq	%rbp
	jmp	__ZN66_$LT$backtrace..capture..Backtrace$u20$as$u20$core..fmt..Debug$GT$3fmt17hafc114cb6f91aca0E
Ltmp8:
Lfunc_end3:
	.cfi_endproc

	.p2align	4, 0x90
__ZN42_$LT$$RF$T$u20$as$u20$core..fmt..Debug$GT$3fmt17h6ac8da18fb77d082E:
Lfunc_begin4:
	.loc	3 2022 0 is_stmt 1
	.cfi_startproc
	pushq	%rbp
	.cfi_def_cfa_offset 16
	.cfi_offset %rbp, -16
	movq	%rsp, %rbp
	.cfi_def_cfa_register %rbp
	subq	$112, %rsp
Ltmp9:
	.loc	3 2022 71 prologue_end
	movq	(%rdi), %rax
Ltmp10:
	.file	4 "/Users/yingyuhang/.cargo/registry/src/github.com-1ecc6299db9ec823/failure-0.1.8/src/error/error_impl.rs"
	.loc	4 37 9
	movq	(%rax), %rdi
Ltmp11:
	.file	5 "/Users/yingyuhang/.cargo/registry/src/github.com-1ecc6299db9ec823/failure-0.1.8/src/error/mod.rs"
	.loc	5 195 25
	movq	%rdi, -8(%rbp)
Ltmp12:
	.file	6 "/rustc/6c8927b0cf80ceee19386026cf9d7fd4fd9d486f/src/libcore/option.rs"
	.loc	6 185 25
	cmpq	$0, (%rdi)
Ltmp13:
	.loc	5 196 9
	je	LBB4_2
Ltmp14:
	.loc	4 29 9
	movq	8(%rax), %rax
Ltmp15:
	movq	16(%rax), %rcx
	leaq	47(%rcx), %rdx
	negq	%rcx
	andq	%rcx, %rdx
	addq	%rdx, %rdi
Ltmp16:
	.loc	5 199 40
	movq	%rdi, -32(%rbp)
	movq	%rax, -24(%rbp)
	leaq	-32(%rbp), %rax
	.loc	5 199 39 is_stmt 0
	movq	%rax, -16(%rbp)
	leaq	-16(%rbp), %rax
Ltmp17:
	.loc	5 199 13
	movq	%rax, -64(%rbp)
	leaq	__ZN42_$LT$$RF$T$u20$as$u20$core..fmt..Debug$GT$3fmt17had2cd6c996909e2fE(%rip), %rax
	movq	%rax, -56(%rbp)
	leaq	-8(%rbp), %rax
	movq	%rax, -48(%rbp)
	leaq	__ZN42_$LT$$RF$T$u20$as$u20$core..fmt..Debug$GT$3fmt17ha39bba41b035bf2dE(%rip), %rax
	movq	%rax, -40(%rbp)
Ltmp18:
	.loc	3 328 9 is_stmt 1
	leaq	l___unnamed_7(%rip), %rax
Ltmp19:
	movq	%rax, -112(%rbp)
	movq	$2, -104(%rbp)
	movq	$0, -96(%rbp)
	leaq	-64(%rbp), %rax
Ltmp20:
	movq	%rax, -80(%rbp)
	movq	$2, -72(%rbp)
	leaq	-112(%rbp), %rax
Ltmp21:
	.loc	5 199 13
	movq	%rsi, %rdi
	movq	%rax, %rsi
Ltmp22:
	callq	__ZN4core3fmt9Formatter9write_fmt17h742ca6aae87ad23cE
Ltmp23:
	.loc	3 2022 84
	addq	$112, %rsp
	popq	%rbp
	retq
Ltmp24:
LBB4_2:
	.loc	4 29 9
	movq	8(%rax), %rax
Ltmp25:
	movq	16(%rax), %rcx
	leaq	47(%rcx), %rdx
	negq	%rcx
	andq	%rcx, %rdx
	addq	%rdx, %rdi
Ltmp26:
	.loc	3 2022 62
	callq	*96(%rax)
Ltmp27:
	.loc	3 2022 84 is_stmt 0
	addq	$112, %rsp
	popq	%rbp
	retq
Ltmp28:
Lfunc_end4:
	.cfi_endproc
	.file	7 "/Users/yingyuhang/.cargo/registry/src/github.com-1ecc6299db9ec823/failure-0.1.8/src/backtrace/mod.rs"

	.p2align	4, 0x90
__ZN42_$LT$$RF$T$u20$as$u20$core..fmt..Debug$GT$3fmt17ha39bba41b035bf2dE:
Lfunc_begin5:
	.loc	3 2022 0 is_stmt 1
	.cfi_startproc
	pushq	%rbp
	.cfi_def_cfa_offset 16
	.cfi_offset %rbp, -16
	movq	%rsp, %rbp
	.cfi_def_cfa_register %rbp
	pushq	%rbx
	pushq	%rax
	.cfi_offset %rbx, -24
	movq	%rsi, %rbx
Ltmp29:
	.loc	3 2022 71 prologue_end
	movq	(%rdi), %rdi
Ltmp30:
	.loc	7 146 31
	callq	__ZN7failure9backtrace8internal17InternalBacktrace12as_backtrace17h3a8d25bc77b02a5aE
	.loc	7 146 20 is_stmt 0
	testq	%rax, %rax
	je	LBB5_1
Ltmp31:
	.loc	7 147 17 is_stmt 1
	movq	%rax, %rdi
	movq	%rbx, %rsi
	addq	$8, %rsp
	popq	%rbx
Ltmp32:
	popq	%rbp
	jmp	__ZN66_$LT$backtrace..capture..Backtrace$u20$as$u20$core..fmt..Debug$GT$3fmt17hafc114cb6f91aca0E
Ltmp33:
LBB5_1:
	.loc	3 2022 84
	xorl	%eax, %eax
	addq	$8, %rsp
	popq	%rbx
Ltmp34:
	popq	%rbp
	retq
Ltmp35:
Lfunc_end5:
	.cfi_endproc

	.p2align	4, 0x90
__ZN42_$LT$$RF$T$u20$as$u20$core..fmt..Debug$GT$3fmt17had2cd6c996909e2fE:
Lfunc_begin6:
	.loc	3 2022 0
	.cfi_startproc
	pushq	%rbp
	.cfi_def_cfa_offset 16
	.cfi_offset %rbp, -16
	movq	%rsp, %rbp
	.cfi_def_cfa_register %rbp
Ltmp36:
	.loc	3 2022 71 prologue_end
	movq	(%rdi), %rax
Ltmp37:
	.loc	3 2022 71 is_stmt 0
	movq	(%rax), %rdi
Ltmp38:
	movq	8(%rax), %rax
Ltmp39:
	.loc	3 2022 62
	movq	96(%rax), %rax
	popq	%rbp
	jmpq	*%rax
Ltmp40:
Lfunc_end6:
	.cfi_endproc

	.p2align	4, 0x90
__ZN4core3ptr13drop_in_place17h0b7161427a6e4359E:
Lfunc_begin7:
	.file	8 "/rustc/6c8927b0cf80ceee19386026cf9d7fd4fd9d486f/src/libcore/ptr/mod.rs"
	.loc	8 184 0 is_stmt 1
	.cfi_startproc
	.cfi_personality 155, _rust_eh_personality
	.cfi_lsda 16, Lexception0
	pushq	%rbp
	.cfi_def_cfa_offset 16
	.cfi_offset %rbp, -16
	movq	%rsp, %rbp
	.cfi_def_cfa_register %rbp
	pushq	%r14
	pushq	%rbx
	.cfi_offset %rbx, -32
	.cfi_offset %r14, -24
	movq	%rdi, %rbx
Ltmp44:
	.loc	8 184 1 prologue_end
	movq	(%rdi), %rdi
	movq	8(%rbx), %rax
Ltmp41:
	callq	*(%rax)
Ltmp42:
Ltmp45:
	movq	8(%rbx), %rax
Ltmp46:
	.file	9 "/rustc/6c8927b0cf80ceee19386026cf9d7fd4fd9d486f/src/liballoc/alloc.rs"
	.loc	9 292 20
	movq	8(%rax), %rsi
Ltmp47:
	.loc	9 185 12
	testq	%rsi, %rsi
	.loc	9 185 9 is_stmt 0
	je	LBB7_4
Ltmp48:
	.loc	8 184 1 is_stmt 1
	movq	(%rbx), %rdi
Ltmp49:
	.loc	9 293 21
	movq	16(%rax), %rdx
Ltmp50:
	.loc	9 102 14
	popq	%rbx
Ltmp51:
	popq	%r14
	popq	%rbp
	jmp	___rust_dealloc
Ltmp52:
LBB7_4:
	.loc	8 184 1
	popq	%rbx
Ltmp53:
	popq	%r14
	popq	%rbp
	retq
LBB7_3:
Ltmp54:
Ltmp43:
	.loc	8 0 1 is_stmt 0
	movq	%rax, %r14
Ltmp55:
	.loc	8 184 1
	movq	(%rbx), %rdi
	movq	8(%rbx), %rsi
	callq	__ZN5alloc5alloc8box_free17h9acfb091890ed2deE
	movq	%r14, %rdi
	callq	__Unwind_Resume
	ud2
Ltmp56:
Lfunc_end7:
	.cfi_endproc
	.section	__TEXT,__gcc_except_tab
	.p2align	2
GCC_except_table7:
Lexception0:
	.byte	255
	.byte	255
	.byte	1
	.uleb128 Lcst_end0-Lcst_begin0
Lcst_begin0:
	.uleb128 Ltmp41-Lfunc_begin7
	.uleb128 Ltmp42-Ltmp41
	.uleb128 Ltmp43-Lfunc_begin7
	.byte	0
	.uleb128 Ltmp42-Lfunc_begin7
	.uleb128 Lfunc_end7-Ltmp42
	.byte	0
	.byte	0
Lcst_end0:
	.p2align	2

	.section	__TEXT,__text,regular,pure_instructions
	.p2align	4, 0x90
__ZN4core3ptr13drop_in_place17h17de1126b5bf103aE:
Lfunc_begin8:
	.loc	8 184 0 is_stmt 1
	.cfi_startproc
	pushq	%rbp
	.cfi_def_cfa_offset 16
	.cfi_offset %rbp, -16
	movq	%rsp, %rbp
	.cfi_def_cfa_register %rbp
	pushq	%rbx
	pushq	%rax
	.cfi_offset %rbx, -24
	movq	%rdi, %rbx
Ltmp57:
	.file	10 "/rustc/6c8927b0cf80ceee19386026cf9d7fd4fd9d486f/src/libstd/sync/mutex.rs"
	.loc	10 427 18 prologue_end
	movq	(%rdi), %rdi
Ltmp58:
	.file	11 "/rustc/6c8927b0cf80ceee19386026cf9d7fd4fd9d486f/src/libstd/sys/unix/mutex.rs"
	.loc	11 78 17
	callq	_pthread_mutex_destroy
Ltmp59:
	.loc	8 184 1
	movq	(%rbx), %rdi
Ltmp60:
	.loc	9 102 14
	movl	$64, %esi
	movl	$8, %edx
	addq	$8, %rsp
	popq	%rbx
Ltmp61:
	popq	%rbp
	jmp	___rust_dealloc
Ltmp62:
Lfunc_end8:
	.cfi_endproc
	.file	12 "/rustc/6c8927b0cf80ceee19386026cf9d7fd4fd9d486f/src/libcore/macros/mod.rs"
	.file	13 "/rustc/6c8927b0cf80ceee19386026cf9d7fd4fd9d486f/src/libstd/sys_common/mutex.rs"

	.p2align	4, 0x90
__ZN4core3ptr13drop_in_place17h1ccb39db33e656b8E:
Lfunc_begin9:
	.loc	8 184 0
	.cfi_startproc
	pushq	%rbp
	.cfi_def_cfa_offset 16
	.cfi_offset %rbp, -16
	movq	%rsp, %rbp
	.cfi_def_cfa_register %rbp
	pushq	%r14
	pushq	%rbx
	.cfi_offset %rbx, -32
	.cfi_offset %r14, -24
	movq	%rdi, %rbx
Ltmp63:
	.file	14 "/rustc/6c8927b0cf80ceee19386026cf9d7fd4fd9d486f/src/libstd/sys_common/poison.rs"
	.loc	14 34 13 prologue_end
	cmpb	$0, 8(%rdi)
	.loc	14 34 12 is_stmt 0
	jne	LBB9_4
Ltmp64:
	.loc	10 0 0
	movq	(%rbx), %r14
Ltmp65:
	.file	15 "/rustc/6c8927b0cf80ceee19386026cf9d7fd4fd9d486f/src/libcore/sync/atomic.rs"
	.loc	15 2356 24 is_stmt 1
	movq	__ZN3std9panicking11panic_count18GLOBAL_PANIC_COUNT17h5754c1d48a496461E@GOTPCREL(%rip), %rax
Ltmp66:
	movq	(%rax), %rax
Ltmp67:
	.file	16 "/rustc/6c8927b0cf80ceee19386026cf9d7fd4fd9d486f/src/libstd/panicking.rs"
	.loc	16 262 12
	testq	%rax, %rax
	.loc	16 262 9 is_stmt 0
	jne	LBB9_2
Ltmp68:
LBB9_4:
	.loc	10 500 13 is_stmt 1
	movq	(%rbx), %rax
	movq	(%rax), %rdi
Ltmp69:
	.loc	11 68 17
	popq	%rbx
Ltmp70:
	popq	%r14
	popq	%rbp
	jmp	_pthread_mutex_unlock
Ltmp71:
LBB9_2:
	.loc	16 274 13
	callq	__ZN3std9panicking11panic_count17is_zero_slow_path17ha588394117c50e3dE
Ltmp72:
	.loc	14 34 12
	testb	%al, %al
	jne	LBB9_4
Ltmp73:
	.loc	15 2342 24
	movb	$1, 8(%r14)
	jmp	LBB9_4
Ltmp74:
Lfunc_end9:
	.cfi_endproc
	.file	17 "/rustc/6c8927b0cf80ceee19386026cf9d7fd4fd9d486f/src/libstd/thread/mod.rs"

	.p2align	4, 0x90
__ZN4core3ptr13drop_in_place17h4314960148dde3a0E:
Lfunc_begin10:
	.loc	8 184 0
	.cfi_startproc
	pushq	%rbp
	.cfi_def_cfa_offset 16
	.cfi_offset %rbp, -16
	movq	%rsp, %rbp
	.cfi_def_cfa_register %rbp
Ltmp75:
	.loc	8 184 1 prologue_end
	popq	%rbp
	retq
Ltmp76:
Lfunc_end10:
	.cfi_endproc

	.p2align	4, 0x90
__ZN4core3ptr13drop_in_place17h799611e5264b7229E:
Lfunc_begin11:
	.loc	8 184 0
	.cfi_startproc
	pushq	%rbp
	.cfi_def_cfa_offset 16
	.cfi_offset %rbp, -16
	movq	%rsp, %rbp
	.cfi_def_cfa_register %rbp
Ltmp77:
	.loc	8 184 1 prologue_end
	movq	(%rdi), %rdi
Ltmp78:
	.loc	9 102 14
	movl	$64, %esi
	movl	$8, %edx
	popq	%rbp
	jmp	___rust_dealloc
Ltmp79:
Lfunc_end11:
	.cfi_endproc

	.p2align	4, 0x90
__ZN4core3ptr13drop_in_place17hb10ada2ef3d99eb0E:
Lfunc_begin12:
	.loc	8 184 0
	.cfi_startproc
	.cfi_personality 155, _rust_eh_personality
	.cfi_lsda 16, Lexception1
	pushq	%rbp
	.cfi_def_cfa_offset 16
	.cfi_offset %rbp, -16
	movq	%rsp, %rbp
	.cfi_def_cfa_register %rbp
	pushq	%r15
	pushq	%r14
	pushq	%r13
	pushq	%r12
	pushq	%rbx
	subq	$24, %rsp
	.cfi_offset %rbx, -56
	.cfi_offset %r12, -48
	.cfi_offset %r13, -40
	.cfi_offset %r14, -32
	.cfi_offset %r15, -24
	movq	%rdi, %r12
Ltmp83:
	.loc	8 184 1 prologue_end
	movq	(%rdi), %rbx
	movq	8(%rdi), %r15
Ltmp84:
	.loc	8 184 1 is_stmt 0
	movq	(%rbx), %rdi
	testq	%rdi, %rdi
	je	LBB12_24
Ltmp85:
	.loc	11 78 17 is_stmt 1
	callq	_pthread_mutex_destroy
Ltmp86:
	.loc	8 184 1
	movq	(%rbx), %rdi
Ltmp87:
	.loc	9 102 14
	movl	$64, %esi
	movl	$8, %edx
	callq	___rust_dealloc
Ltmp88:
	.file	18 "/rustc/6c8927b0cf80ceee19386026cf9d7fd4fd9d486f/src/liballoc/vec.rs"
	.loc	18 854 19
	movq	16(%rbx), %r14
Ltmp89:
	.loc	18 2421 81
	movq	32(%rbx), %r13
Ltmp90:
	.loc	8 184 1
	testq	%r13, %r13
	je	LBB12_20
Ltmp91:
	.loc	8 0 1 is_stmt 0
	movq	%rbx, -48(%rbp)
Ltmp92:
	movq	%r15, -56(%rbp)
Ltmp93:
	movq	%r12, -64(%rbp)
Ltmp94:
	.loc	8 184 1
	shlq	$6, %r13
Ltmp95:
	addq	%r14, %r13
	jmp	LBB12_3
Ltmp96:
	.p2align	4, 0x90
LBB12_18:
	cmpq	%r13, %r14
	je	LBB12_19
Ltmp97:
LBB12_3:
	.loc	8 0 1
	movq	%r14, %r12
	.loc	8 184 1
	addq	$64, %r14
Ltmp98:
	.loc	8 184 1
	movq	40(%r12), %rbx
	testq	%rbx, %rbx
	je	LBB12_18
Ltmp99:
	.loc	18 2421 81 is_stmt 1
	movq	56(%r12), %rax
Ltmp100:
	.loc	8 184 1
	testq	%rax, %rax
Ltmp101:
	je	LBB12_14
Ltmp102:
	leaq	(%rax,%rax,8), %rax
Ltmp103:
	leaq	(%rbx,%rax,8), %r15
	jmp	LBB12_6
Ltmp104:
	.p2align	4, 0x90
LBB12_12:
	addq	$72, %rbx
	cmpq	%r15, %rbx
	je	LBB12_13
Ltmp105:
LBB12_6:
	.loc	8 184 1 is_stmt 0
	movq	(%rbx), %rdi
	testq	%rdi, %rdi
	je	LBB12_9
Ltmp106:
	.loc	8 184 1
	movq	8(%rbx), %rsi
Ltmp107:
	.file	19 "/rustc/6c8927b0cf80ceee19386026cf9d7fd4fd9d486f/src/liballoc/raw_vec.rs"
	.loc	19 235 40 is_stmt 1
	testq	%rsi, %rsi
	.loc	19 235 9 is_stmt 0
	je	LBB12_9
Ltmp108:
	.loc	9 102 14 is_stmt 1
	movl	$1, %edx
	callq	___rust_dealloc
Ltmp109:
LBB12_9:
	.loc	8 184 1
	movq	40(%rbx), %rdi
	testq	%rdi, %rdi
	je	LBB12_12
Ltmp110:
	.loc	8 184 1 is_stmt 0
	movq	48(%rbx), %rsi
Ltmp111:
	.loc	19 235 40 is_stmt 1
	testq	%rsi, %rsi
	.loc	19 235 9 is_stmt 0
	je	LBB12_12
Ltmp112:
	.loc	9 102 14 is_stmt 1
	movl	$1, %edx
	callq	___rust_dealloc
Ltmp113:
	.loc	9 0 14 is_stmt 0
	jmp	LBB12_12
Ltmp114:
	.p2align	4, 0x90
LBB12_13:
	.loc	8 184 1 is_stmt 1
	movq	40(%r12), %rbx
Ltmp115:
LBB12_14:
	movq	48(%r12), %rax
Ltmp116:
	.loc	19 235 40
	testq	%rax, %rax
	.loc	19 235 9 is_stmt 0
	je	LBB12_18
Ltmp117:
	.loc	19 507 16 is_stmt 1
	testq	%rbx, %rbx
Ltmp118:
	je	LBB12_18
Ltmp119:
	.loc	19 0 0 is_stmt 0
	shlq	$3, %rax
	leaq	(%rax,%rax,8), %rsi
Ltmp120:
	.loc	19 507 16
	testq	%rsi, %rsi
	je	LBB12_18
Ltmp121:
	.loc	9 102 14 is_stmt 1
	movl	$8, %edx
	movq	%rbx, %rdi
	callq	___rust_dealloc
Ltmp122:
	.loc	9 0 14 is_stmt 0
	jmp	LBB12_18
Ltmp123:
LBB12_19:
	movq	-48(%rbp), %rbx
Ltmp124:
	.loc	8 184 1 is_stmt 1
	movq	16(%rbx), %r14
	movq	-64(%rbp), %r12
Ltmp125:
	.loc	8 0 1 is_stmt 0
	movq	-56(%rbp), %r15
Ltmp126:
LBB12_20:
	.loc	8 184 1
	movq	24(%rbx), %rsi
Ltmp127:
	.loc	19 235 40 is_stmt 1
	testq	%rsi, %rsi
	.loc	19 235 9 is_stmt 0
	je	LBB12_24
Ltmp128:
	.loc	19 507 16 is_stmt 1
	testq	%r14, %r14
Ltmp129:
	je	LBB12_24
Ltmp130:
	.loc	19 0 0 is_stmt 0
	shlq	$6, %rsi
Ltmp131:
	.loc	19 507 16
	je	LBB12_24
Ltmp132:
	.loc	9 102 14 is_stmt 1
	movl	$8, %edx
	movq	%r14, %rdi
	callq	___rust_dealloc
Ltmp133:
LBB12_24:
	.loc	8 184 1
	movq	16(%r15), %rax
	leaq	47(%rax), %rcx
	negq	%rax
	andq	%rax, %rcx
	addq	%rcx, %rbx
Ltmp80:
	movq	%rbx, %rdi
	callq	*(%r15)
Ltmp81:
Ltmp134:
	.loc	8 184 1 is_stmt 0
	movq	8(%r12), %rax
Ltmp135:
	.loc	9 292 20 is_stmt 1
	movq	16(%rax), %rcx
	cmpq	$8, %rcx
	movl	$8, %edx
	cmovaq	%rcx, %rdx
	movq	8(%rax), %rax
Ltmp136:
	leaq	47(%rax,%rdx), %rax
	movq	%rdx, %rsi
	negq	%rsi
Ltmp137:
	.loc	9 185 12
	andq	%rax, %rsi
Ltmp138:
	.loc	9 185 9 is_stmt 0
	je	LBB12_28
Ltmp139:
	.loc	8 184 1 is_stmt 1
	movq	(%r12), %rdi
Ltmp140:
	.loc	9 102 14
	addq	$24, %rsp
	popq	%rbx
	popq	%r12
Ltmp141:
	popq	%r13
	popq	%r14
	popq	%r15
	popq	%rbp
	jmp	___rust_dealloc
Ltmp142:
LBB12_28:
	.loc	8 184 1
	addq	$24, %rsp
	popq	%rbx
	popq	%r12
	popq	%r13
	popq	%r14
	popq	%r15
	popq	%rbp
	retq
LBB12_27:
Ltmp143:
Ltmp82:
	.loc	8 0 1 is_stmt 0
	movq	%rax, %r14
Ltmp144:
	.loc	8 184 1
	movq	(%r12), %rdi
	movq	8(%r12), %rsi
	callq	__ZN5alloc5alloc8box_free17hbd15a55bac23b2dcE
	movq	%r14, %rdi
	callq	__Unwind_Resume
	ud2
Ltmp145:
Lfunc_end12:
	.cfi_endproc
	.section	__TEXT,__gcc_except_tab
	.p2align	2
GCC_except_table12:
Lexception1:
	.byte	255
	.byte	255
	.byte	1
	.uleb128 Lcst_end1-Lcst_begin1
Lcst_begin1:
	.uleb128 Ltmp80-Lfunc_begin12
	.uleb128 Ltmp81-Ltmp80
	.uleb128 Ltmp82-Lfunc_begin12
	.byte	0
	.uleb128 Ltmp81-Lfunc_begin12
	.uleb128 Lfunc_end12-Ltmp81
	.byte	0
	.byte	0
Lcst_end1:
	.p2align	2

	.section	__TEXT,__text,regular,pure_instructions
	.p2align	4, 0x90
__ZN4core3ptr13drop_in_place17hbfed75c6a8e47969E:
Lfunc_begin13:
	.loc	8 184 0 is_stmt 1
	.cfi_startproc
	pushq	%rbp
	.cfi_def_cfa_offset 16
	.cfi_offset %rbp, -16
	movq	%rsp, %rbp
	.cfi_def_cfa_register %rbp
	pushq	%r14
	pushq	%rbx
	.cfi_offset %rbx, -32
	.cfi_offset %r14, -24
	movq	%rdi, %rbx
Ltmp146:
	.loc	14 34 13 prologue_end
	cmpb	$0, 8(%rdi)
	.loc	14 34 12 is_stmt 0
	jne	LBB13_4
Ltmp147:
	.loc	10 0 0
	movq	(%rbx), %r14
Ltmp148:
	.loc	15 2356 24 is_stmt 1
	movq	__ZN3std9panicking11panic_count18GLOBAL_PANIC_COUNT17h5754c1d48a496461E@GOTPCREL(%rip), %rax
Ltmp149:
	movq	(%rax), %rax
Ltmp150:
	.loc	16 262 12
	testq	%rax, %rax
	.loc	16 262 9 is_stmt 0
	jne	LBB13_2
Ltmp151:
LBB13_4:
	.loc	10 500 13 is_stmt 1
	movq	(%rbx), %rax
	movq	(%rax), %rdi
Ltmp152:
	.loc	11 68 17
	popq	%rbx
Ltmp153:
	popq	%r14
	popq	%rbp
	jmp	_pthread_mutex_unlock
Ltmp154:
LBB13_2:
	.loc	16 274 13
	callq	__ZN3std9panicking11panic_count17is_zero_slow_path17ha588394117c50e3dE
Ltmp155:
	.loc	14 34 12
	testb	%al, %al
	jne	LBB13_4
Ltmp156:
	.loc	15 2342 24
	movb	$1, 8(%r14)
	jmp	LBB13_4
Ltmp157:
Lfunc_end13:
	.cfi_endproc

	.p2align	4, 0x90
__ZN4core3ptr13drop_in_place17hdf9667764e2cddbcE:
Lfunc_begin14:
	.loc	8 184 0
	.cfi_startproc
	pushq	%rbp
	.cfi_def_cfa_offset 16
	.cfi_offset %rbp, -16
	movq	%rsp, %rbp
	.cfi_def_cfa_register %rbp
	movq	%rdi, %rax
Ltmp158:
	.loc	8 184 1 prologue_end
	movq	(%rdi), %rdi
	testq	%rdi, %rdi
	je	LBB14_2
Ltmp159:
	.loc	8 184 1 is_stmt 0
	movq	8(%rax), %rsi
Ltmp160:
	.loc	19 235 40 is_stmt 1
	testq	%rsi, %rsi
	.loc	19 235 9 is_stmt 0
	je	LBB14_2
Ltmp161:
	.loc	9 102 14 is_stmt 1
	movl	$1, %edx
	popq	%rbp
	jmp	___rust_dealloc
Ltmp162:
LBB14_2:
	.loc	8 184 1
	popq	%rbp
	retq
Ltmp163:
Lfunc_end14:
	.cfi_endproc

	.p2align	4, 0x90
__ZN5alloc5alloc8box_free17h10949d5a693e3479E:
Lfunc_begin15:
	.loc	9 290 0
	.cfi_startproc
	pushq	%rbp
	.cfi_def_cfa_offset 16
	.cfi_offset %rbp, -16
	movq	%rsp, %rbp
	.cfi_def_cfa_register %rbp
Ltmp164:
	.loc	9 102 14 prologue_end
	movl	$64, %esi
	movl	$8, %edx
	popq	%rbp
	jmp	___rust_dealloc
Ltmp165:
Lfunc_end15:
	.cfi_endproc

	.p2align	4, 0x90
__ZN5alloc5alloc8box_free17h9acfb091890ed2deE:
Lfunc_begin16:
	.loc	9 290 0
	.cfi_startproc
	pushq	%rbp
	.cfi_def_cfa_offset 16
	.cfi_offset %rbp, -16
	movq	%rsp, %rbp
	.cfi_def_cfa_register %rbp
	movq	%rsi, %rax
Ltmp166:
	.loc	9 292 20 prologue_end
	movq	8(%rsi), %rsi
Ltmp167:
	.loc	9 185 12
	testq	%rsi, %rsi
	.loc	9 185 9 is_stmt 0
	je	LBB16_1
Ltmp168:
	.loc	9 293 21 is_stmt 1
	movq	16(%rax), %rdx
Ltmp169:
	.loc	9 102 14
	popq	%rbp
	jmp	___rust_dealloc
Ltmp170:
LBB16_1:
	.loc	9 297 2
	popq	%rbp
	retq
Ltmp171:
Lfunc_end16:
	.cfi_endproc

	.p2align	4, 0x90
__ZN5alloc5alloc8box_free17hbd15a55bac23b2dcE:
Lfunc_begin17:
	.loc	9 290 0
	.cfi_startproc
	pushq	%rbp
	.cfi_def_cfa_offset 16
	.cfi_offset %rbp, -16
	movq	%rsp, %rbp
	.cfi_def_cfa_register %rbp
Ltmp172:
	.loc	9 292 20 prologue_end
	movq	16(%rsi), %rax
	cmpq	$8, %rax
	movl	$8, %edx
	cmovaq	%rax, %rdx
	movq	8(%rsi), %rax
	leaq	47(%rax,%rdx), %rax
	movq	%rdx, %rsi
Ltmp173:
	negq	%rsi
Ltmp174:
	.loc	9 185 12
	andq	%rax, %rsi
Ltmp175:
	.loc	9 185 9 is_stmt 0
	je	LBB17_1
Ltmp176:
	.loc	9 102 14 is_stmt 1
	popq	%rbp
	jmp	___rust_dealloc
Ltmp177:
LBB17_1:
	.loc	9 297 2
	popq	%rbp
	retq
Ltmp178:
Lfunc_end17:
	.cfi_endproc

	.p2align	4, 0x90
__ZN66_$LT$core..option..Option$LT$T$GT$$u20$as$u20$core..fmt..Debug$GT$3fmt17h1a04f32f0bdad8b2E:
Lfunc_begin18:
	.loc	6 146 0
	.cfi_startproc
	pushq	%rbp
	.cfi_def_cfa_offset 16
	.cfi_offset %rbp, -16
	movq	%rsp, %rbp
	.cfi_def_cfa_register %rbp
Ltmp179:
	pushq	%r14
	pushq	%rbx
	subq	$32, %rsp
	.cfi_offset %rbx, -32
	.cfi_offset %r14, -24
	.loc	6 146 48 prologue_end
	cmpq	$0, (%rdi)
	je	LBB18_2
Ltmp180:
	.loc	6 0 48 is_stmt 0
	movq	%rdi, %rbx
Ltmp181:
	.loc	6 146 48
	leaq	L___unnamed_8(%rip), %rdx
	leaq	-48(%rbp), %r14
	movl	$4, %ecx
	movq	%r14, %rdi
	callq	__ZN4core3fmt9Formatter11debug_tuple17h6c448643801d07e8E
Ltmp182:
	.loc	6 155 56 is_stmt 1
	movq	%rbx, -24(%rbp)
	.loc	6 146 48
	leaq	l___unnamed_2(%rip), %rdx
	leaq	-24(%rbp), %rsi
	movq	%r14, %rdi
	callq	__ZN4core3fmt8builders10DebugTuple5field17hc7b676d0e36b51d9E
	movq	%r14, %rdi
	jmp	LBB18_3
Ltmp183:
LBB18_2:
	.loc	6 146 48 is_stmt 0
	leaq	L___unnamed_9(%rip), %rdx
	leaq	-48(%rbp), %rbx
	movl	$4, %ecx
	movq	%rbx, %rdi
Ltmp184:
	callq	__ZN4core3fmt9Formatter11debug_tuple17h6c448643801d07e8E
Ltmp185:
	.loc	6 146 48
	movq	%rbx, %rdi
Ltmp186:
LBB18_3:
	.loc	6 0 0
	callq	__ZN4core3fmt8builders10DebugTuple6finish17h9f206806f7096c33E
	.loc	6 146 53
	addq	$32, %rsp
	popq	%rbx
	popq	%r14
	popq	%rbp
	retq
Ltmp187:
Lfunc_end18:
	.cfi_endproc

	.p2align	4, 0x90
__ZN82_$LT$std..sys_common..poison..PoisonError$LT$T$GT$$u20$as$u20$core..fmt..Debug$GT$3fmt17hfe42117e7247c5c5E:
Lfunc_begin19:
	.loc	14 137 0 is_stmt 1
	.cfi_startproc
	pushq	%rbp
	.cfi_def_cfa_offset 16
	.cfi_offset %rbp, -16
	movq	%rsp, %rbp
	.cfi_def_cfa_register %rbp
	movq	%rsi, %rdx
Ltmp188:
	.loc	14 138 9 prologue_end
	leaq	l___unnamed_10(%rip), %rdi
Ltmp189:
	movl	$25, %esi
	popq	%rbp
	jmp	__ZN40_$LT$str$u20$as$u20$core..fmt..Debug$GT$3fmt17h5b42b6f497bd434cE
Ltmp190:
Lfunc_end19:
	.cfi_endproc

	.globl	__ZN66_$LT$dyn$u20$failure..Fail$u20$as$u20$failure..as_fail..AsFail$GT$7as_fail17h9763456ab1be9f52E
	.p2align	4, 0x90
__ZN66_$LT$dyn$u20$failure..Fail$u20$as$u20$failure..as_fail..AsFail$GT$7as_fail17h9763456ab1be9f52E:
Lfunc_begin20:
	.file	20 "/Users/yingyuhang/.cargo/registry/src/github.com-1ecc6299db9ec823/failure-0.1.8/src/as_fail.rs"
	.loc	20 24 0
	.cfi_startproc
	pushq	%rbp
	.cfi_def_cfa_offset 16
	.cfi_offset %rbp, -16
	movq	%rsp, %rbp
	.cfi_def_cfa_register %rbp
	movq	%rsi, %rdx
	movq	%rdi, %rax
Ltmp191:
	.loc	20 26 6 prologue_end
	popq	%rbp
	retq
Ltmp192:
Lfunc_end20:
	.cfi_endproc

	.globl	__ZN63_$LT$failure..box_std..BoxStd$u20$as$u20$core..fmt..Display$GT$3fmt17hf9383a9e538db5aeE
	.p2align	4, 0x90
__ZN63_$LT$failure..box_std..BoxStd$u20$as$u20$core..fmt..Display$GT$3fmt17hf9383a9e538db5aeE:
Lfunc_begin21:
	.file	21 "/Users/yingyuhang/.cargo/registry/src/github.com-1ecc6299db9ec823/failure-0.1.8/src/box_std.rs"
	.loc	21 8 0
	.cfi_startproc
	pushq	%rbp
	.cfi_def_cfa_offset 16
	.cfi_offset %rbp, -16
	movq	%rsp, %rbp
	.cfi_def_cfa_register %rbp
Ltmp193:
	.file	22 "/rustc/6c8927b0cf80ceee19386026cf9d7fd4fd9d486f/src/liballoc/boxed.rs"
	.loc	22 964 27 prologue_end
	movq	(%rdi), %rax
	movq	8(%rdi), %rcx
	.loc	22 964 9 is_stmt 0
	movq	64(%rcx), %rcx
	movq	%rax, %rdi
Ltmp194:
	popq	%rbp
	jmpq	*%rcx
Ltmp195:
Lfunc_end21:
	.cfi_endproc

	.globl	__ZN61_$LT$failure..box_std..BoxStd$u20$as$u20$core..fmt..Debug$GT$3fmt17hefbc6d8603810b5dE
	.p2align	4, 0x90
__ZN61_$LT$failure..box_std..BoxStd$u20$as$u20$core..fmt..Debug$GT$3fmt17hefbc6d8603810b5dE:
Lfunc_begin22:
	.loc	21 14 0 is_stmt 1
	.cfi_startproc
	pushq	%rbp
	.cfi_def_cfa_offset 16
	.cfi_offset %rbp, -16
	movq	%rsp, %rbp
	.cfi_def_cfa_register %rbp
Ltmp196:
	.loc	22 971 25 prologue_end
	movq	(%rdi), %rax
	movq	8(%rdi), %rcx
	.loc	22 971 9 is_stmt 0
	movq	72(%rcx), %rcx
	movq	%rax, %rdi
Ltmp197:
	popq	%rbp
	jmpq	*%rcx
Ltmp198:
Lfunc_end22:
	.cfi_endproc

	.p2align	4, 0x90
__ZN71_$LT$failure..compat..Compat$LT$E$GT$$u20$as$u20$core..fmt..Display$GT$3fmt17hb57e9547dc39a4abE:
Lfunc_begin23:
	.file	23 "/Users/yingyuhang/.cargo/registry/src/github.com-1ecc6299db9ec823/failure-0.1.8/src/compat.rs"
	.loc	23 13 0 is_stmt 1
	.cfi_startproc
	pushq	%rbp
	.cfi_def_cfa_offset 16
	.cfi_offset %rbp, -16
	movq	%rsp, %rbp
	.cfi_def_cfa_register %rbp
Ltmp199:
	.loc	4 29 9 prologue_end
	movq	8(%rdi), %rax
	movq	16(%rax), %rcx
Ltmp200:
	.loc	3 2022 62
	movq	88(%rax), %rdx
Ltmp201:
	.loc	4 29 9
	leaq	47(%rcx), %rax
	negq	%rcx
	andq	%rcx, %rax
	addq	(%rdi), %rax
Ltmp202:
	.loc	3 2022 62
	movq	%rax, %rdi
Ltmp203:
	popq	%rbp
	jmpq	*%rdx
Ltmp204:
Lfunc_end23:
	.cfi_endproc

	.p2align	4, 0x90
__ZN7failure4Fail9backtrace17h574a16d6bf03092aE:
Lfunc_begin24:
	.file	24 "/Users/yingyuhang/.cargo/registry/src/github.com-1ecc6299db9ec823/failure-0.1.8/src/lib.rs"
	.loc	24 138 0
	.cfi_startproc
	pushq	%rbp
	.cfi_def_cfa_offset 16
	.cfi_offset %rbp, -16
	movq	%rsp, %rbp
	.cfi_def_cfa_register %rbp
Ltmp205:
	.loc	24 140 6 prologue_end
	xorl	%eax, %eax
	popq	%rbp
	retq
Ltmp206:
Lfunc_end24:
	.cfi_endproc

	.p2align	4, 0x90
__ZN7failure4Fail23__private_get_type_id__17h8e3ae3ef973f768cE:
Lfunc_begin25:
	.loc	24 197 0
	.cfi_startproc
	pushq	%rbp
	.cfi_def_cfa_offset 16
	.cfi_offset %rbp, -16
	movq	%rsp, %rbp
	.cfi_def_cfa_register %rbp
	movabsq	$766384709473993787, %rax
Ltmp207:
	.loc	24 199 6 prologue_end
	popq	%rbp
	retq
Ltmp208:
Lfunc_end25:
	.cfi_endproc

	.globl	__ZN30_$LT$dyn$u20$failure..Fail$GT$11iter_causes17h9ff93dedcf6632ceE
	.p2align	4, 0x90
__ZN30_$LT$dyn$u20$failure..Fail$GT$11iter_causes17h9ff93dedcf6632ceE:
Lfunc_begin26:
	.loc	24 242 0
	.cfi_startproc
	pushq	%rbp
	.cfi_def_cfa_offset 16
	.cfi_offset %rbp, -16
	movq	%rsp, %rbp
	.cfi_def_cfa_register %rbp
Ltmp209:
	.loc	24 243 24 prologue_end
	popq	%rbp
	jmpq	*32(%rsi)
Ltmp210:
Lfunc_end26:
	.cfi_endproc

	.globl	__ZN30_$LT$dyn$u20$failure..Fail$GT$10iter_chain17h2d99e9b4e449cacfE
	.p2align	4, 0x90
__ZN30_$LT$dyn$u20$failure..Fail$GT$10iter_chain17h2d99e9b4e449cacfE:
Lfunc_begin27:
	.loc	24 252 0
	.cfi_startproc
	pushq	%rbp
	.cfi_def_cfa_offset 16
	.cfi_offset %rbp, -16
	movq	%rsp, %rbp
	.cfi_def_cfa_register %rbp
	movq	%rsi, %rdx
	movq	%rdi, %rax
Ltmp211:
	.loc	24 254 6 prologue_end
	popq	%rbp
	retq
Ltmp212:
Lfunc_end27:
	.cfi_endproc

	.globl	__ZN30_$LT$dyn$u20$failure..Fail$GT$10root_cause17he74d5cfdf3a494fdE
	.p2align	4, 0x90
__ZN30_$LT$dyn$u20$failure..Fail$GT$10root_cause17he74d5cfdf3a494fdE:
Lfunc_begin28:
	.loc	24 261 0
	.cfi_startproc
	pushq	%rbp
	.cfi_def_cfa_offset 16
	.cfi_offset %rbp, -16
	movq	%rsp, %rbp
	.cfi_def_cfa_register %rbp
	pushq	%r14
	pushq	%rbx
	.cfi_offset %rbx, -32
	.cfi_offset %r14, -24
	movq	%rsi, %r14
	movq	%rdi, %rbx
Ltmp213:
	.loc	24 302 29 prologue_end
	callq	*32(%rsi)
	.loc	24 302 15 is_stmt 0
	testq	%rax, %rax
	je	LBB28_3
Ltmp214:
	.p2align	4, 0x90
LBB28_1:
	.loc	24 0 15
	movq	%rax, %rbx
Ltmp215:
	movq	%rdx, %r14
Ltmp216:
	.loc	24 302 29
	movq	%rax, %rdi
	callq	*32(%rdx)
	.loc	24 302 15
	testq	%rax, %rax
	jne	LBB28_1
Ltmp217:
LBB28_3:
	.loc	24 263 6 is_stmt 1
	movq	%rbx, %rax
	movq	%r14, %rdx
	popq	%rbx
	popq	%r14
	popq	%rbp
	retq
Ltmp218:
Lfunc_end28:
	.cfi_endproc

	.globl	__ZN80_$LT$alloc..boxed..Box$LT$dyn$u20$failure..Fail$GT$$u20$as$u20$failure..Fail$GT$5cause17h72bea7862bcf7e9aE
	.p2align	4, 0x90
__ZN80_$LT$alloc..boxed..Box$LT$dyn$u20$failure..Fail$GT$$u20$as$u20$failure..Fail$GT$5cause17h72bea7862bcf7e9aE:
Lfunc_begin29:
	.loc	24 277 0
	.cfi_startproc
	pushq	%rbp
	.cfi_def_cfa_offset 16
	.cfi_offset %rbp, -16
	movq	%rsp, %rbp
	.cfi_def_cfa_register %rbp
Ltmp219:
	.loc	24 278 9 prologue_end
	movq	(%rdi), %rax
	movq	8(%rdi), %rcx
	movq	%rax, %rdi
Ltmp220:
	popq	%rbp
	jmpq	*32(%rcx)
Ltmp221:
Lfunc_end29:
	.cfi_endproc

	.globl	__ZN80_$LT$alloc..boxed..Box$LT$dyn$u20$failure..Fail$GT$$u20$as$u20$failure..Fail$GT$9backtrace17hdf133704a9a356c5E
	.p2align	4, 0x90
__ZN80_$LT$alloc..boxed..Box$LT$dyn$u20$failure..Fail$GT$$u20$as$u20$failure..Fail$GT$9backtrace17hdf133704a9a356c5E:
Lfunc_begin30:
	.loc	24 281 0
	.cfi_startproc
	pushq	%rbp
	.cfi_def_cfa_offset 16
	.cfi_offset %rbp, -16
	movq	%rsp, %rbp
	.cfi_def_cfa_register %rbp
Ltmp222:
	.loc	24 282 9 prologue_end
	movq	(%rdi), %rax
	movq	8(%rdi), %rcx
	movq	%rax, %rdi
Ltmp223:
	popq	%rbp
	jmpq	*40(%rcx)
Ltmp224:
Lfunc_end30:
	.cfi_endproc

	.globl	__ZN74_$LT$failure..Causes$u20$as$u20$core..iter..traits..iterator..Iterator$GT$4next17h7b28ebdbab91a130E
	.p2align	4, 0x90
__ZN74_$LT$failure..Causes$u20$as$u20$core..iter..traits..iterator..Iterator$GT$4next17h7b28ebdbab91a130E:
Lfunc_begin31:
	.loc	24 293 0
	.cfi_startproc
	pushq	%rbp
	.cfi_def_cfa_offset 16
	.cfi_offset %rbp, -16
	movq	%rsp, %rbp
	.cfi_def_cfa_register %rbp
Ltmp225:
	pushq	%r15
	pushq	%r14
	pushq	%rbx
	pushq	%rax
	.cfi_offset %rbx, -40
	.cfi_offset %r14, -32
	.cfi_offset %r15, -24
	.loc	24 294 9 prologue_end
	movq	(%rdi), %r15
	movq	8(%rdi), %r14
Ltmp226:
	.loc	6 456 13
	testq	%r15, %r15
	je	LBB31_2
Ltmp227:
	.loc	6 0 13 is_stmt 0
	movq	%rdi, %rbx
Ltmp228:
	.loc	24 295 25 is_stmt 1
	movq	%r15, %rdi
	callq	*32(%r14)
	.loc	24 295 13 is_stmt 0
	movq	%rax, (%rbx)
	movq	%rdx, 8(%rbx)
Ltmp229:
LBB31_2:
	.loc	24 298 6 is_stmt 1
	movq	%r15, %rax
	movq	%r14, %rdx
	addq	$8, %rsp
	popq	%rbx
	popq	%r14
	popq	%r15
	popq	%rbp
	retq
Ltmp230:
Lfunc_end31:
	.cfi_endproc

	.globl	__ZN7failure15find_root_cause17h3e818285094024b5E
	.p2align	4, 0x90
__ZN7failure15find_root_cause17h3e818285094024b5E:
Lfunc_begin32:
	.loc	24 301 0
	.cfi_startproc
	pushq	%rbp
	.cfi_def_cfa_offset 16
	.cfi_offset %rbp, -16
	movq	%rsp, %rbp
	.cfi_def_cfa_register %rbp
	pushq	%r14
	pushq	%rbx
	.cfi_offset %rbx, -32
	.cfi_offset %r14, -24
	movq	%rsi, %r14
	movq	%rdi, %rbx
Ltmp231:
	.loc	24 302 29 prologue_end
	callq	*32(%rsi)
	.loc	24 302 15 is_stmt 0
	testq	%rax, %rax
	je	LBB32_3
Ltmp232:
	.p2align	4, 0x90
LBB32_1:
	.loc	24 0 15
	movq	%rax, %rbx
Ltmp233:
	movq	%rdx, %r14
Ltmp234:
	.loc	24 302 29
	movq	%rax, %rdi
	callq	*32(%rdx)
	.loc	24 302 15
	testq	%rax, %rax
	jne	LBB32_1
Ltmp235:
LBB32_3:
	.loc	24 307 2 is_stmt 1
	movq	%rbx, %rax
	movq	%r14, %rdx
	popq	%rbx
Ltmp236:
	popq	%r14
Ltmp237:
	popq	%rbp
	retq
Ltmp238:
Lfunc_end32:
	.cfi_endproc

	.globl	__ZN66_$LT$failure..error..Error$u20$as$u20$failure..as_fail..AsFail$GT$7as_fail17ha8cd428282b12c72E
	.p2align	4, 0x90
__ZN66_$LT$failure..error..Error$u20$as$u20$failure..as_fail..AsFail$GT$7as_fail17ha8cd428282b12c72E:
Lfunc_begin33:
	.loc	20 33 0
	.cfi_startproc
	pushq	%rbp
	.cfi_def_cfa_offset 16
	.cfi_offset %rbp, -16
	movq	%rsp, %rbp
	.cfi_def_cfa_register %rbp
Ltmp239:
	.loc	4 29 9 prologue_end
	movq	8(%rdi), %rdx
	movq	16(%rdx), %rcx
	leaq	47(%rcx), %rax
	negq	%rcx
	andq	%rcx, %rax
	addq	(%rdi), %rax
Ltmp240:
	.loc	20 35 10
	popq	%rbp
	retq
Ltmp241:
Lfunc_end33:
	.cfi_endproc

	.p2align	4, 0x90
__ZN7failure9backtrace8internal17InternalBacktrace12as_backtrace17h3a8d25bc77b02a5aE:
Lfunc_begin34:
	.loc	1 55 0
	.cfi_startproc
	.cfi_personality 155, _rust_eh_personality
	.cfi_lsda 16, Lexception2
	pushq	%rbp
	.cfi_def_cfa_offset 16
	.cfi_offset %rbp, -16
	movq	%rsp, %rbp
	.cfi_def_cfa_register %rbp
	pushq	%r15
	pushq	%r14
	pushq	%rbx
	subq	$24, %rsp
	.cfi_offset %rbx, -40
	.cfi_offset %r14, -32
	.cfi_offset %r15, -24
	movq	%rdi, %rbx
Ltmp248:
	.loc	1 57 13 prologue_end
	movq	(%rdi), %rdi
	testq	%rdi, %rdi
	je	LBB34_1
Ltmp249:
	.loc	11 63 17
	callq	_pthread_mutex_lock
Ltmp250:
	.loc	15 2356 24
	movq	__ZN3std9panicking11panic_count18GLOBAL_PANIC_COUNT17h5754c1d48a496461E@GOTPCREL(%rip), %r15
Ltmp251:
	movq	(%r15), %rax
Ltmp252:
	.loc	16 262 12
	testq	%rax, %rax
	.loc	16 262 9 is_stmt 0
	jne	LBB34_4
Ltmp253:
	.loc	16 0 9
	xorl	%r14d, %r14d
Ltmp254:
	.loc	15 2356 24 is_stmt 1
	movb	8(%rbx), %al
Ltmp255:
	.loc	15 410 18
	testb	%al, %al
Ltmp256:
	.file	25 "/rustc/6c8927b0cf80ceee19386026cf9d7fd4fd9d486f/src/libcore/result.rs"
	.loc	25 1004 13
	jne	LBB34_6
Ltmp257:
LBB34_9:
	.loc	1 60 28
	movq	%rbx, -40(%rbp)
	movb	%r14b, -32(%rbp)
Ltmp258:
	.loc	1 62 17
	cmpb	$0, 9(%rbx)
	.loc	1 62 13 is_stmt 0
	je	LBB34_10
Ltmp259:
	.loc	14 34 13 is_stmt 1
	testb	%r14b, %r14b
Ltmp260:
	.loc	14 0 13 is_stmt 0
	jne	LBB34_16
	jmp	LBB34_13
Ltmp261:
LBB34_1:
	xorl	%ebx, %ebx
Ltmp262:
	jmp	LBB34_17
LBB34_10:
Ltmp263:
	.loc	1 63 19 is_stmt 1
	leaq	16(%rbx), %rdi
Ltmp264:
Ltmp245:
	.loc	1 63 17 is_stmt 0
	callq	__ZN9backtrace7capture9Backtrace7resolve17hbadfbf327a8edb3fE
Ltmp265:
Ltmp246:
	.loc	1 64 17 is_stmt 1
	movb	$1, 9(%rbx)
Ltmp266:
	.loc	14 34 13
	testb	%r14b, %r14b
Ltmp267:
	.loc	14 34 12 is_stmt 0
	jne	LBB34_16
Ltmp268:
LBB34_13:
	.loc	15 2356 24 is_stmt 1
	movq	(%r15), %rax
Ltmp269:
	.loc	16 262 12
	testq	%rax, %rax
	.loc	16 262 9 is_stmt 0
	jne	LBB34_14
Ltmp270:
LBB34_16:
	.loc	10 500 13 is_stmt 1
	movq	(%rbx), %rdi
Ltmp271:
	.loc	1 0 0 is_stmt 0
	addq	$16, %rbx
Ltmp272:
	.loc	11 68 17 is_stmt 1
	callq	_pthread_mutex_unlock
Ltmp273:
LBB34_17:
	.loc	1 68 6 is_stmt 0
	movq	%rbx, %rax
	addq	$24, %rsp
	popq	%rbx
	popq	%r14
	popq	%r15
	popq	%rbp
	retq
LBB34_4:
Ltmp274:
	.loc	16 274 13 is_stmt 1
	callq	__ZN3std9panicking11panic_count17is_zero_slow_path17ha588394117c50e3dE
	movl	%eax, %r14d
	xorb	$1, %r14b
Ltmp275:
	.loc	15 2356 24
	movb	8(%rbx), %al
Ltmp276:
	.loc	15 410 18
	testb	%al, %al
Ltmp277:
	.loc	25 1004 13
	je	LBB34_9
Ltmp278:
LBB34_6:
	.loc	25 1005 17
	movq	%rbx, -40(%rbp)
	movb	%r14b, -32(%rbp)
Ltmp242:
Ltmp279:
	.loc	25 1005 23 is_stmt 0
	leaq	l___unnamed_11(%rip), %rdi
	leaq	l___unnamed_1(%rip), %rcx
	leaq	l___unnamed_12(%rip), %r8
	leaq	-40(%rbp), %rdx
	movl	$43, %esi
	callq	__ZN4core6result13unwrap_failed17hc193898ef513e81fE
Ltmp243:
Ltmp280:
	.loc	25 0 23
	ud2
Ltmp281:
LBB34_14:
	.loc	16 274 13 is_stmt 1
	callq	__ZN3std9panicking11panic_count17is_zero_slow_path17ha588394117c50e3dE
Ltmp282:
	.loc	14 34 12
	testb	%al, %al
	jne	LBB34_16
Ltmp283:
	.loc	15 2342 24
	movb	$1, 8(%rbx)
Ltmp284:
	.loc	15 0 24 is_stmt 0
	jmp	LBB34_16
Ltmp285:
LBB34_8:
Ltmp244:
	movq	%rax, %rbx
Ltmp286:
	leaq	-40(%rbp), %rdi
Ltmp287:
	.loc	25 1005 86 is_stmt 1
	callq	__ZN4core3ptr13drop_in_place17h1ccb39db33e656b8E
	jmp	LBB34_19
Ltmp288:
LBB34_18:
Ltmp247:
	.loc	25 0 86 is_stmt 0
	movq	%rax, %rbx
Ltmp289:
	leaq	-40(%rbp), %rdi
	.loc	1 68 5 is_stmt 1
	callq	__ZN4core3ptr13drop_in_place17hbfed75c6a8e47969E
Ltmp290:
LBB34_19:
	.loc	1 0 5 is_stmt 0
	movq	%rbx, %rdi
	callq	__Unwind_Resume
	ud2
Lfunc_end34:
	.cfi_endproc
	.section	__TEXT,__gcc_except_tab
	.p2align	2
GCC_except_table34:
Lexception2:
	.byte	255
	.byte	255
	.byte	1
	.uleb128 Lcst_end2-Lcst_begin2
Lcst_begin2:
	.uleb128 Ltmp245-Lfunc_begin34
	.uleb128 Ltmp246-Ltmp245
	.uleb128 Ltmp247-Lfunc_begin34
	.byte	0
	.uleb128 Ltmp246-Lfunc_begin34
	.uleb128 Ltmp242-Ltmp246
	.byte	0
	.byte	0
	.uleb128 Ltmp242-Lfunc_begin34
	.uleb128 Ltmp243-Ltmp242
	.uleb128 Ltmp244-Lfunc_begin34
	.byte	0
	.uleb128 Ltmp243-Lfunc_begin34
	.uleb128 Lfunc_end34-Ltmp243
	.byte	0
	.byte	0
Lcst_end2:
	.p2align	2

	.section	__TEXT,__text,regular,pure_instructions
	.globl	__ZN84_$LT$failure..backtrace..internal..InternalBacktrace$u20$as$u20$core..fmt..Debug$GT$3fmt17hf19552d333949a68E
	.p2align	4, 0x90
__ZN84_$LT$failure..backtrace..internal..InternalBacktrace$u20$as$u20$core..fmt..Debug$GT$3fmt17hf19552d333949a68E:
Lfunc_begin35:
	.loc	1 76 0 is_stmt 1
	.cfi_startproc
	pushq	%rbp
	.cfi_def_cfa_offset 16
	.cfi_offset %rbp, -16
	movq	%rsp, %rbp
	.cfi_def_cfa_register %rbp
	pushq	%r14
	pushq	%rbx
	subq	$32, %rsp
	.cfi_offset %rbx, -32
	.cfi_offset %r14, -24
	movq	%rdi, %rbx
Ltmp291:
	.loc	1 77 9 prologue_end
	leaq	l___unnamed_13(%rip), %rdx
	leaq	-40(%rbp), %r14
	movl	$17, %ecx
	movq	%r14, %rdi
	callq	__ZN4core3fmt9Formatter12debug_struct17ha1a64e91d2a98458E
Ltmp292:
	.loc	1 78 34
	movq	%rbx, %rdi
Ltmp293:
	callq	__ZN7failure9backtrace8internal17InternalBacktrace12as_backtrace17h3a8d25bc77b02a5aE
Ltmp294:
	movq	%rax, -24(%rbp)
	.loc	1 77 9
	leaq	l___unnamed_14(%rip), %rsi
	leaq	l___unnamed_3(%rip), %r8
	leaq	-24(%rbp), %rcx
	movl	$9, %edx
	movq	%r14, %rdi
	callq	__ZN4core3fmt8builders11DebugStruct5field17h6c54d35ac41bb1e6E
	movq	%rax, %rdi
	callq	__ZN4core3fmt8builders11DebugStruct6finish17h67ed49fd5e81bb24E
	.loc	1 80 6
	addq	$32, %rsp
	popq	%rbx
	popq	%r14
	popq	%rbp
	retq
Ltmp295:
Lfunc_end35:
	.cfi_endproc

	.globl	__ZN7failure9backtrace9Backtrace3new17hd61c7fb783a02c44E
	.p2align	4, 0x90
__ZN7failure9backtrace9Backtrace3new17hd61c7fb783a02c44E:
Lfunc_begin36:
	.loc	7 120 0
	.cfi_startproc
	.cfi_personality 155, _rust_eh_personality
	.cfi_lsda 16, Lexception3
	pushq	%rbp
	.cfi_def_cfa_offset 16
	.cfi_offset %rbp, -16
	movq	%rsp, %rbp
	.cfi_def_cfa_register %rbp
	pushq	%r15
	pushq	%r14
	pushq	%rbx
	subq	$120, %rsp
	.cfi_offset %rbx, -40
	.cfi_offset %r14, -32
	.cfi_offset %r15, -24
	movq	%rdi, %r14
Ltmp318:
	.loc	15 2357 23 prologue_end
	movq	__ZN7failure9backtrace8internal17InternalBacktrace3new7ENABLED17h0f239c4da5a44180E(%rip), %rax
Ltmp319:
	.loc	1 32 13
	cmpq	$1, %rax
	je	LBB36_26
Ltmp320:
	testq	%rax, %rax
	jne	LBB36_21
Ltmp296:
Ltmp321:
	.file	26 "/rustc/6c8927b0cf80ceee19386026cf9d7fd4fd9d486f/src/libstd/env.rs"
	.loc	26 246 5
	leaq	l___unnamed_15(%rip), %rsi
	leaq	-64(%rbp), %rdi
	movl	$22, %edx
	callq	__ZN3std3env7_var_os17hc628b18a701aa4a3E
Ltmp297:
Ltmp322:
	.loc	1 85 9
	cmpq	$0, -64(%rbp)
	je	LBB36_10
Ltmp299:
Ltmp323:
	.file	27 "/rustc/6c8927b0cf80ceee19386026cf9d7fd4fd9d486f/src/libcore/cmp.rs"
	.loc	27 216 10
	leaq	l___unnamed_16(%rip), %rsi
Ltmp324:
	.loc	27 0 10 is_stmt 0
	leaq	-64(%rbp), %rdi
Ltmp325:
	.loc	27 216 10
	movl	$1, %edx
	callq	__ZN78_$LT$std..ffi..os_str..OsString$u20$as$u20$core..cmp..PartialEq$LT$str$GT$$GT$2eq17h3c7d124d61620464E
Ltmp326:
Ltmp300:
	.loc	27 0 10
	movb	$1, %bl
	.loc	1 85 26 is_stmt 1
	testb	%al, %al
	je	LBB36_17
Ltmp301:
Ltmp327:
	.loc	27 1219 13
	leaq	l___unnamed_16(%rip), %rsi
	leaq	-64(%rbp), %rdi
	movl	$1, %edx
	callq	__ZN78_$LT$std..ffi..os_str..OsString$u20$as$u20$core..cmp..PartialEq$LT$str$GT$$GT$2eq17h3c7d124d61620464E
Ltmp302:
Ltmp328:
	.loc	1 86 26
	testb	%al, %al
	jne	LBB36_16
LBB36_10:
Ltmp303:
Ltmp329:
	.loc	26 246 5
	leaq	l___unnamed_17(%rip), %rsi
	leaq	-104(%rbp), %rdi
	movl	$14, %edx
	callq	__ZN3std3env7_var_os17hc628b18a701aa4a3E
Ltmp304:
Ltmp330:
	.loc	1 88 13
	cmpq	$0, -104(%rbp)
	je	LBB36_16
Ltmp306:
Ltmp331:
	.loc	27 216 10
	leaq	l___unnamed_16(%rip), %rsi
Ltmp332:
	.loc	27 0 10 is_stmt 0
	leaq	-104(%rbp), %rdi
Ltmp333:
	.loc	27 216 10
	movl	$1, %edx
	callq	__ZN78_$LT$std..ffi..os_str..OsString$u20$as$u20$core..cmp..PartialEq$LT$str$GT$$GT$2eq17h3c7d124d61620464E
Ltmp334:
Ltmp307:
	.loc	27 0 0
	movl	%eax, %ebx
	.loc	27 216 9
	xorb	$1, %bl
Ltmp335:
	.loc	8 184 1 is_stmt 1
	movq	-104(%rbp), %rdi
Ltmp336:
	testq	%rdi, %rdi
	je	LBB36_17
Ltmp337:
	.loc	8 184 1 is_stmt 0
	movq	-96(%rbp), %rsi
Ltmp338:
	.loc	19 235 40 is_stmt 1
	testq	%rsi, %rsi
	.loc	19 235 9 is_stmt 0
	je	LBB36_17
Ltmp339:
	.loc	9 102 14 is_stmt 1
	movl	$1, %edx
	callq	___rust_dealloc
Ltmp340:
	.loc	9 0 14 is_stmt 0
	jmp	LBB36_17
Ltmp341:
LBB36_16:
	xorl	%ebx, %ebx
LBB36_17:
Ltmp342:
	.loc	8 184 1 is_stmt 1
	movq	-64(%rbp), %rdi
	testq	%rdi, %rdi
	je	LBB36_20
Ltmp343:
	.loc	8 184 1 is_stmt 0
	movq	-56(%rbp), %rsi
Ltmp344:
	.loc	19 235 40 is_stmt 1
	testq	%rsi, %rsi
	.loc	19 235 9 is_stmt 0
	je	LBB36_20
Ltmp345:
	.loc	9 102 14 is_stmt 1
	movl	$1, %edx
	callq	___rust_dealloc
Ltmp346:
LBB36_20:
	.loc	1 34 31
	movzbl	%bl, %eax
	leaq	1(%rax), %rcx
Ltmp347:
	.loc	15 2343 23
	xchgq	%rcx, __ZN7failure9backtrace8internal17InternalBacktrace3new7ENABLED17h0f239c4da5a44180E(%rip)
Ltmp348:
	.loc	1 35 17
	testb	%al, %al
	je	LBB36_26
Ltmp349:
LBB36_21:
	.loc	9 80 14
	movl	$64, %edi
	movl	$8, %esi
	callq	___rust_alloc
Ltmp350:
	.loc	9 278 9
	testq	%rax, %rax
	je	LBB36_28
Ltmp351:
	.loc	10 0 0 is_stmt 0
	movq	%rax, %rbx
Ltmp309:
	.loc	10 223 24 is_stmt 1
	movq	%rax, %rdi
	callq	__ZN3std10sys_common5mutex5Mutex3new17hfec750c2ce1161a9E
Ltmp310:
Ltmp352:
	.loc	10 223 20 is_stmt 0
	movq	%rbx, -104(%rbp)
Ltmp312:
	.loc	10 224 21 is_stmt 1
	callq	__ZN3std10sys_common6poison4Flag3new17hd7ec4e2336668a12E
Ltmp313:
Ltmp353:
	.loc	10 222 21
	movq	%rbx, -64(%rbp)
	movb	%al, -56(%rbp)
	movb	$0, -55(%rbp)
Ltmp354:
	.loc	10 0 21 is_stmt 0
	leaq	-104(%rbp), %r15
Ltmp355:
	.loc	11 52 17 is_stmt 1
	movq	%r15, %rdi
	callq	_pthread_mutexattr_init
Ltmp356:
	.loc	11 54 17
	movq	%r15, %rdi
	xorl	%esi, %esi
	callq	_pthread_mutexattr_settype
Ltmp357:
	.loc	11 56 17
	movq	%rbx, %rdi
	movq	%r15, %rsi
	callq	_pthread_mutex_init
Ltmp358:
	.loc	11 58 17
	movq	%r15, %rdi
	callq	_pthread_mutexattr_destroy
Ltmp315:
	leaq	-104(%rbp), %rdi
Ltmp359:
	.loc	1 46 44
	callq	__ZN9backtrace7capture9Backtrace14new_unresolved17h03124c6d0a5251f3E
Ltmp316:
Ltmp360:
	.file	28 "/rustc/6c8927b0cf80ceee19386026cf9d7fd4fd9d486f/src/libcore/cell.rs"
	.loc	28 1616 22
	movq	-88(%rbp), %rax
	movq	-80(%rbp), %rcx
	movq	-104(%rbp), %rdx
	movq	-96(%rbp), %rsi
Ltmp361:
	.loc	1 44 29
	movq	-56(%rbp), %rdi
	movq	%rdi, -104(%rbp)
	movq	%rdx, -96(%rbp)
	movq	%rsi, -88(%rbp)
	.loc	1 44 24 is_stmt 0
	movq	%rcx, -32(%rbp)
	movq	%rax, -40(%rbp)
	movq	%rsi, -48(%rbp)
	movq	%rdx, -56(%rbp)
	movq	%rdi, -64(%rbp)
	jmp	LBB36_27
Ltmp362:
LBB36_26:
	.loc	1 0 24
	xorl	%ebx, %ebx
LBB36_27:
	.loc	7 121 13 is_stmt 1
	movq	%rbx, (%r14)
	movq	-64(%rbp), %rax
	movq	-56(%rbp), %rcx
	movq	%rax, 8(%r14)
	movq	%rcx, 16(%r14)
	movq	-48(%rbp), %rax
	movq	%rax, 24(%r14)
	movq	-40(%rbp), %rax
	movq	%rax, 32(%r14)
	movq	-32(%rbp), %rax
	movq	%rax, 40(%r14)
	.loc	7 122 10
	movq	%r14, %rax
	addq	$120, %rsp
	popq	%rbx
	popq	%r14
	popq	%r15
	popq	%rbp
	retq
LBB36_28:
Ltmp363:
	.loc	9 279 19
	movl	$64, %edi
	movl	$8, %esi
	callq	__ZN5alloc5alloc18handle_alloc_error17h28974197717b8939E
Ltmp364:
LBB36_29:
Ltmp308:
	.loc	9 0 19 is_stmt 0
	movq	%rax, %r14
	leaq	-104(%rbp), %rdi
Ltmp365:
	.loc	1 90 9 is_stmt 1
	callq	__ZN4core3ptr13drop_in_place17hdf9667764e2cddbcE
	jmp	LBB36_32
LBB36_30:
Ltmp366:
Ltmp298:
	.loc	1 0 9 is_stmt 0
	movq	%rax, %r14
	jmp	LBB36_36
Ltmp367:
LBB36_31:
Ltmp305:
	movq	%rax, %r14
LBB36_32:
	leaq	-64(%rbp), %rdi
	.loc	1 92 1 is_stmt 1
	callq	__ZN4core3ptr13drop_in_place17hdf9667764e2cddbcE
	jmp	LBB36_36
Ltmp368:
LBB36_33:
Ltmp317:
	.loc	1 0 1 is_stmt 0
	movq	%rax, %r14
	leaq	-64(%rbp), %rdi
	.loc	1 47 13 is_stmt 1
	callq	__ZN4core3ptr13drop_in_place17h17de1126b5bf103aE
	jmp	LBB36_36
LBB36_34:
Ltmp369:
Ltmp314:
	.loc	1 0 13 is_stmt 0
	movq	%rax, %r14
	leaq	-104(%rbp), %rdi
Ltmp370:
	.loc	10 226 9 is_stmt 1
	callq	__ZN4core3ptr13drop_in_place17h799611e5264b7229E
	jmp	LBB36_36
Ltmp371:
LBB36_35:
Ltmp311:
	.loc	10 0 9 is_stmt 0
	movq	%rax, %r14
	.loc	10 223 40 is_stmt 1
	movq	%rbx, %rdi
	callq	__ZN5alloc5alloc8box_free17h10949d5a693e3479E
Ltmp372:
LBB36_36:
	.loc	10 0 40 is_stmt 0
	movq	%r14, %rdi
	callq	__Unwind_Resume
	ud2
Lfunc_end36:
	.cfi_endproc
	.section	__TEXT,__gcc_except_tab
	.p2align	2
GCC_except_table36:
Lexception3:
	.byte	255
	.byte	255
	.byte	1
	.uleb128 Lcst_end3-Lcst_begin3
Lcst_begin3:
	.uleb128 Ltmp296-Lfunc_begin36
	.uleb128 Ltmp297-Ltmp296
	.uleb128 Ltmp298-Lfunc_begin36
	.byte	0
	.uleb128 Ltmp299-Lfunc_begin36
	.uleb128 Ltmp304-Ltmp299
	.uleb128 Ltmp305-Lfunc_begin36
	.byte	0
	.uleb128 Ltmp306-Lfunc_begin36
	.uleb128 Ltmp307-Ltmp306
	.uleb128 Ltmp308-Lfunc_begin36
	.byte	0
	.uleb128 Ltmp309-Lfunc_begin36
	.uleb128 Ltmp310-Ltmp309
	.uleb128 Ltmp311-Lfunc_begin36
	.byte	0
	.uleb128 Ltmp312-Lfunc_begin36
	.uleb128 Ltmp313-Ltmp312
	.uleb128 Ltmp314-Lfunc_begin36
	.byte	0
	.uleb128 Ltmp315-Lfunc_begin36
	.uleb128 Ltmp316-Ltmp315
	.uleb128 Ltmp317-Lfunc_begin36
	.byte	0
	.uleb128 Ltmp316-Lfunc_begin36
	.uleb128 Lfunc_end36-Ltmp316
	.byte	0
	.byte	0
Lcst_end3:
	.p2align	2

	.section	__TEXT,__text,regular,pure_instructions
	.globl	__ZN7failure9backtrace9Backtrace4none17hdf09bb2a22c5d27bE
	.p2align	4, 0x90
__ZN7failure9backtrace9Backtrace4none17hdf09bb2a22c5d27bE:
Lfunc_begin37:
	.loc	7 124 0 is_stmt 1
	.cfi_startproc
	pushq	%rbp
	.cfi_def_cfa_offset 16
	.cfi_offset %rbp, -16
	movq	%rsp, %rbp
	.cfi_def_cfa_register %rbp
	movq	%rdi, %rax
Ltmp373:
	.loc	7 125 13 prologue_end
	movq	$0, (%rdi)
	.loc	7 126 10
	popq	%rbp
	retq
Ltmp374:
Lfunc_end37:
	.cfi_endproc

	.globl	__ZN7failure9backtrace9Backtrace8is_empty17h832ab304a3efdbe4E
	.p2align	4, 0x90
__ZN7failure9backtrace9Backtrace8is_empty17h832ab304a3efdbe4E:
Lfunc_begin38:
	.loc	7 133 0
	.cfi_startproc
	pushq	%rbp
	.cfi_def_cfa_offset 16
	.cfi_offset %rbp, -16
	movq	%rsp, %rbp
	.cfi_def_cfa_register %rbp
Ltmp375:
	.loc	6 185 25 prologue_end
	cmpq	$0, (%rdi)
	sete	%al
Ltmp376:
	.loc	7 135 10
	popq	%rbp
	retq
Ltmp377:
Lfunc_end38:
	.cfi_endproc

	.globl	__ZN72_$LT$failure..backtrace..Backtrace$u20$as$u20$core..default..Default$GT$7default17h63d8e8290004f44dE
	.p2align	4, 0x90
__ZN72_$LT$failure..backtrace..Backtrace$u20$as$u20$core..default..Default$GT$7default17h63d8e8290004f44dE:
Lfunc_begin39:
	.loc	7 139 0
	.cfi_startproc
	pushq	%rbp
	.cfi_def_cfa_offset 16
	.cfi_offset %rbp, -16
	movq	%rsp, %rbp
	.cfi_def_cfa_register %rbp
	pushq	%rbx
	pushq	%rax
	.cfi_offset %rbx, -24
	movq	%rdi, %rbx
Ltmp378:
	.loc	7 140 13 prologue_end
	callq	__ZN7failure9backtrace9Backtrace3new17hd61c7fb783a02c44E
	.loc	7 141 10
	movq	%rbx, %rax
	addq	$8, %rsp
	popq	%rbx
	popq	%rbp
	retq
Ltmp379:
Lfunc_end39:
	.cfi_endproc

	.globl	__ZN66_$LT$failure..backtrace..Backtrace$u20$as$u20$core..fmt..Debug$GT$3fmt17h1b1f1a1ce2a67832E
	.p2align	4, 0x90
__ZN66_$LT$failure..backtrace..Backtrace$u20$as$u20$core..fmt..Debug$GT$3fmt17h1b1f1a1ce2a67832E:
Lfunc_begin40:
	.loc	7 145 0
	.cfi_startproc
	pushq	%rbp
	.cfi_def_cfa_offset 16
	.cfi_offset %rbp, -16
	movq	%rsp, %rbp
	.cfi_def_cfa_register %rbp
	pushq	%rbx
	pushq	%rax
	.cfi_offset %rbx, -24
	movq	%rsi, %rbx
Ltmp380:
	.loc	7 146 31 prologue_end
	callq	__ZN7failure9backtrace8internal17InternalBacktrace12as_backtrace17h3a8d25bc77b02a5aE
Ltmp381:
	.loc	7 146 20 is_stmt 0
	testq	%rax, %rax
	je	LBB40_1
Ltmp382:
	.loc	7 147 17 is_stmt 1
	movq	%rax, %rdi
	movq	%rbx, %rsi
	addq	$8, %rsp
	popq	%rbx
Ltmp383:
	popq	%rbp
	jmp	__ZN66_$LT$backtrace..capture..Backtrace$u20$as$u20$core..fmt..Debug$GT$3fmt17hafc114cb6f91aca0E
Ltmp384:
LBB40_1:
	.loc	7 149 10
	xorl	%eax, %eax
	addq	$8, %rsp
	popq	%rbx
Ltmp385:
	popq	%rbp
	retq
Ltmp386:
Lfunc_end40:
	.cfi_endproc

	.p2align	4, 0x90
__ZN69_$LT$failure..compat..Compat$LT$E$GT$$u20$as$u20$core..fmt..Debug$GT$3fmt17h5e0fecaf88ac378eE:
Lfunc_begin41:
	.loc	23 7 0
	.cfi_startproc
	pushq	%rbp
	.cfi_def_cfa_offset 16
	.cfi_offset %rbp, -16
	movq	%rsp, %rbp
	.cfi_def_cfa_register %rbp
	pushq	%r14
	pushq	%rbx
	subq	$32, %rsp
	.cfi_offset %rbx, -32
	.cfi_offset %r14, -24
	movq	%rdi, %rbx
Ltmp387:
	.loc	23 7 10 prologue_end
	leaq	l___unnamed_18(%rip), %rdx
	leaq	-40(%rbp), %r14
	movl	$6, %ecx
	movq	%r14, %rdi
	callq	__ZN4core3fmt9Formatter12debug_struct17ha1a64e91d2a98458E
Ltmp388:
	.loc	23 9 5
	movq	%rbx, -24(%rbp)
	.loc	23 7 10
	leaq	l___unnamed_19(%rip), %rsi
	leaq	l___unnamed_4(%rip), %r8
	leaq	-24(%rbp), %rcx
	movl	$5, %edx
	movq	%r14, %rdi
	callq	__ZN4core3fmt8builders11DebugStruct5field17h6c54d35ac41bb1e6E
	movq	%r14, %rdi
	callq	__ZN4core3fmt8builders11DebugStruct6finish17h67ed49fd5e81bb24E
Ltmp389:
	.loc	23 7 15 is_stmt 0
	addq	$32, %rsp
	popq	%rbx
Ltmp390:
	popq	%r14
	popq	%rbp
	retq
Ltmp391:
Lfunc_end41:
	.cfi_endproc

	.p2align	4, 0x90
__ZN70_$LT$failure..compat..Compat$LT$E$GT$$u20$as$u20$std..error..Error$GT$11description17h1cb79c37c4ca5947E:
Lfunc_begin42:
	.loc	23 37 0 is_stmt 1
	.cfi_startproc
	pushq	%rbp
	.cfi_def_cfa_offset 16
	.cfi_offset %rbp, -16
	movq	%rsp, %rbp
	.cfi_def_cfa_register %rbp
Ltmp392:
	.loc	23 39 10 prologue_end
	leaq	l___unnamed_20(%rip), %rax
	movl	$22, %edx
	popq	%rbp
	retq
Ltmp393:
Lfunc_end42:
	.cfi_endproc

	.globl	__ZN7failure6compat129_$LT$impl$u20$core..convert..From$LT$failure..error..Error$GT$$u20$for$u20$alloc..boxed..Box$LT$dyn$u20$std..error..Error$GT$$GT$4from17h967ee33d23b88253E
	.p2align	4, 0x90
__ZN7failure6compat129_$LT$impl$u20$core..convert..From$LT$failure..error..Error$GT$$u20$for$u20$alloc..boxed..Box$LT$dyn$u20$std..error..Error$GT$$GT$4from17h967ee33d23b88253E:
Lfunc_begin43:
	.loc	23 43 0
	.cfi_startproc
	pushq	%rbp
	.cfi_def_cfa_offset 16
	.cfi_offset %rbp, -16
	movq	%rsp, %rbp
	.cfi_def_cfa_register %rbp
	pushq	%r14
	pushq	%rbx
	.cfi_offset %rbx, -32
	.cfi_offset %r14, -24
	movq	%rsi, %r14
	movq	%rdi, %rbx
Ltmp394:
	.loc	9 80 14 prologue_end
	movl	$16, %edi
	movl	$8, %esi
	callq	___rust_alloc
Ltmp395:
	.loc	9 278 9
	testq	%rax, %rax
	je	LBB43_2
Ltmp396:
	.loc	22 176 13
	movq	%rbx, (%rax)
	movq	%r14, 8(%rax)
Ltmp397:
	.loc	23 45 10
	leaq	l___unnamed_5(%rip), %rdx
	popq	%rbx
Ltmp398:
	popq	%r14
Ltmp399:
	popq	%rbp
	retq
LBB43_2:
Ltmp400:
	.loc	9 279 19
	movl	$16, %edi
	movl	$8, %esi
	callq	__ZN5alloc5alloc18handle_alloc_error17h28974197717b8939E
Ltmp401:
Lfunc_end43:
	.cfi_endproc

	.globl	__ZN7failure7context67Either$LT$failure..backtrace..Backtrace$C$failure..error..Error$GT$9backtrace17h2c63e5a917e5df0cE
	.p2align	4, 0x90
__ZN7failure7context67Either$LT$failure..backtrace..Backtrace$C$failure..error..Error$GT$9backtrace17h2c63e5a917e5df0cE:
Lfunc_begin44:
	.file	29 "/Users/yingyuhang/.cargo/registry/src/github.com-1ecc6299db9ec823/failure-0.1.8/src/context.rs"
	.loc	29 142 0
	.cfi_startproc
	pushq	%rbp
	.cfi_def_cfa_offset 16
	.cfi_offset %rbp, -16
	movq	%rsp, %rbp
	.cfi_def_cfa_register %rbp
	pushq	%rbx
	pushq	%rax
	.cfi_offset %rbx, -24
	movq	%rdi, %rax
Ltmp402:
	.loc	29 144 17 prologue_end
	cmpl	$1, (%rdi)
	jne	LBB44_2
Ltmp403:
	.loc	4 29 9
	movq	8(%rax), %rbx
	movq	16(%rax), %rax
Ltmp404:
	movq	16(%rax), %rcx
	leaq	47(%rcx), %rdi
	negq	%rcx
	andq	%rcx, %rdi
	addq	%rbx, %rdi
Ltmp405:
	.loc	5 95 9
	callq	*40(%rax)
Ltmp406:
	.loc	6 409 13
	testq	%rax, %rax
	cmoveq	%rbx, %rax
Ltmp407:
	.loc	29 147 10
	addq	$8, %rsp
	popq	%rbx
Ltmp408:
	popq	%rbp
	retq
LBB44_2:
Ltmp409:
	.loc	29 0 0 is_stmt 0
	addq	$8, %rax
Ltmp410:
	.loc	29 147 10
	addq	$8, %rsp
	popq	%rbx
	popq	%rbp
	retq
Ltmp411:
Lfunc_end44:
	.cfi_endproc

	.globl	__ZN7failure7context67Either$LT$failure..backtrace..Backtrace$C$failure..error..Error$GT$8as_cause17h3e9c9affafd690baE
	.p2align	4, 0x90
__ZN7failure7context67Either$LT$failure..backtrace..Backtrace$C$failure..error..Error$GT$8as_cause17h3e9c9affafd690baE:
Lfunc_begin45:
	.loc	29 149 0 is_stmt 1
	.cfi_startproc
	pushq	%rbp
	.cfi_def_cfa_offset 16
	.cfi_offset %rbp, -16
	movq	%rsp, %rbp
	.cfi_def_cfa_register %rbp
Ltmp412:
	.loc	29 151 17 prologue_end
	cmpl	$1, (%rdi)
	jne	LBB45_1
Ltmp413:
	.loc	4 29 9
	movq	16(%rdi), %rdx
	movq	16(%rdx), %rcx
	leaq	47(%rcx), %rax
	negq	%rcx
	andq	%rcx, %rax
	addq	8(%rdi), %rax
Ltmp414:
	.loc	29 154 10
	popq	%rbp
	retq
Ltmp415:
LBB45_1:
	.loc	29 0 10 is_stmt 0
	xorl	%eax, %eax
	.loc	29 154 10
	popq	%rbp
	retq
Ltmp416:
Lfunc_end45:
	.cfi_endproc

	.globl	__ZN122_$LT$failure..context..Either$LT$failure..backtrace..Backtrace$C$failure..error..Error$GT$$u20$as$u20$core..fmt..Debug$GT$3fmt17he52070297827995eE
	.p2align	4, 0x90
__ZN122_$LT$failure..context..Either$LT$failure..backtrace..Backtrace$C$failure..error..Error$GT$$u20$as$u20$core..fmt..Debug$GT$3fmt17he52070297827995eE:
Lfunc_begin46:
	.loc	29 158 0 is_stmt 1
	.cfi_startproc
	pushq	%rbp
	.cfi_def_cfa_offset 16
	.cfi_offset %rbp, -16
	movq	%rsp, %rbp
	.cfi_def_cfa_register %rbp
	subq	$80, %rsp
	movq	%rsi, %rax
Ltmp417:
	.loc	29 160 17 prologue_end
	cmpl	$1, (%rdi)
	jne	LBB46_2
Ltmp418:
	.loc	29 161 30
	addq	$8, %rdi
Ltmp419:
	movq	%rdi, -8(%rbp)
	leaq	-8(%rbp), %rcx
Ltmp420:
	.loc	29 161 48 is_stmt 0
	movq	%rcx, -24(%rbp)
	leaq	__ZN42_$LT$$RF$T$u20$as$u20$core..fmt..Debug$GT$3fmt17h6ac8da18fb77d082E(%rip), %rcx
	jmp	LBB46_3
Ltmp421:
LBB46_2:
	.loc	29 160 30 is_stmt 1
	addq	$8, %rdi
Ltmp422:
	movq	%rdi, -8(%rbp)
	leaq	-8(%rbp), %rcx
Ltmp423:
	.loc	29 160 48 is_stmt 0
	movq	%rcx, -24(%rbp)
	leaq	__ZN42_$LT$$RF$T$u20$as$u20$core..fmt..Debug$GT$3fmt17ha39bba41b035bf2dE(%rip), %rcx
Ltmp424:
LBB46_3:
	.loc	29 0 0
	movq	%rcx, -16(%rbp)
Ltmp425:
	leaq	l___unnamed_21(%rip), %rcx
Ltmp426:
	movq	%rcx, -72(%rbp)
	movq	$1, -64(%rbp)
	movq	$0, -56(%rbp)
	leaq	-24(%rbp), %rcx
Ltmp427:
	movq	%rcx, -40(%rbp)
	movq	$1, -32(%rbp)
	leaq	-72(%rbp), %rsi
	movq	%rax, %rdi
	callq	__ZN4core3fmt9Formatter9write_fmt17h742ca6aae87ad23cE
Ltmp428:
	.loc	29 163 10 is_stmt 1
	addq	$80, %rsp
	popq	%rbp
	retq
Ltmp429:
Lfunc_end46:
	.cfi_endproc

	.globl	__ZN7failure5error10error_impl9ErrorImpl7failure17hd9462d17b4944746E
	.p2align	4, 0x90
__ZN7failure5error10error_impl9ErrorImpl7failure17hd9462d17b4944746E:
Lfunc_begin47:
	.loc	4 28 0
	.cfi_startproc
	pushq	%rbp
	.cfi_def_cfa_offset 16
	.cfi_offset %rbp, -16
	movq	%rsp, %rbp
	.cfi_def_cfa_register %rbp
Ltmp430:
	.loc	4 29 9 prologue_end
	movq	8(%rdi), %rdx
	movq	16(%rdx), %rcx
	leaq	47(%rcx), %rax
	negq	%rcx
	andq	%rcx, %rax
	addq	(%rdi), %rax
	.loc	4 30 6
	popq	%rbp
	retq
Ltmp431:
Lfunc_end47:
	.cfi_endproc

	.globl	__ZN7failure5error10error_impl9ErrorImpl11failure_mut17h551a229339b1056aE
	.p2align	4, 0x90
__ZN7failure5error10error_impl9ErrorImpl11failure_mut17h551a229339b1056aE:
Lfunc_begin48:
	.loc	4 32 0
	.cfi_startproc
	pushq	%rbp
	.cfi_def_cfa_offset 16
	.cfi_offset %rbp, -16
	movq	%rsp, %rbp
	.cfi_def_cfa_register %rbp
Ltmp432:
	.loc	4 33 9 prologue_end
	movq	8(%rdi), %rdx
	movq	16(%rdx), %rcx
	leaq	47(%rcx), %rax
	negq	%rcx
	andq	%rcx, %rax
	addq	(%rdi), %rax
	.loc	4 34 6
	popq	%rbp
	retq
Ltmp433:
Lfunc_end48:
	.cfi_endproc

	.globl	__ZN7failure5error5Error17from_boxed_compat17hab6a7b16773d8efcE
	.p2align	4, 0x90
__ZN7failure5error5Error17from_boxed_compat17hab6a7b16773d8efcE:
Lfunc_begin49:
	.loc	5 63 0
	.cfi_startproc
	.cfi_personality 155, _rust_eh_personality
	.cfi_lsda 16, Lexception4
	pushq	%rbp
	.cfi_def_cfa_offset 16
	.cfi_offset %rbp, -16
	movq	%rsp, %rbp
	.cfi_def_cfa_register %rbp
	pushq	%r15
	pushq	%r14
	pushq	%rbx
	subq	$120, %rsp
	.cfi_offset %rbx, -40
	.cfi_offset %r14, -32
	.cfi_offset %r15, -24
	movq	%rsi, %r14
	movq	%rdi, %r15
	movq	%rdi, -88(%rbp)
	movq	%rsi, -80(%rbp)
Ltmp434:
Ltmp437:
	leaq	-72(%rbp), %rdi
Ltmp438:
	.loc	4 19 17 prologue_end
	callq	__ZN7failure9backtrace9Backtrace3new17hd61c7fb783a02c44E
Ltmp435:
Ltmp439:
	.loc	4 21 30
	movq	-32(%rbp), %rax
	movq	%rax, -96(%rbp)
	movq	-40(%rbp), %rcx
	movq	%rcx, -104(%rbp)
	movq	-48(%rbp), %rdx
	movq	%rdx, -112(%rbp)
	movq	-56(%rbp), %rsi
	movq	%rsi, -120(%rbp)
	movq	-72(%rbp), %rdi
	movq	-64(%rbp), %rbx
	movq	%rbx, -128(%rbp)
	movq	%rdi, -136(%rbp)
Ltmp440:
	.loc	4 23 37
	movq	%rax, -32(%rbp)
	movq	%rcx, -40(%rbp)
	movq	%rdx, -48(%rbp)
	movq	%rsi, -56(%rbp)
	movq	%rbx, -64(%rbp)
	movq	%rdi, -72(%rbp)
Ltmp441:
	.loc	9 80 14
	movl	$64, %edi
	movl	$8, %esi
	callq	___rust_alloc
Ltmp442:
	.loc	9 278 9
	testq	%rax, %rax
	je	LBB49_4
Ltmp443:
	.loc	22 176 13
	movq	-32(%rbp), %rcx
	movq	%rcx, 40(%rax)
	movq	-40(%rbp), %rcx
	movq	%rcx, 32(%rax)
	movq	-48(%rbp), %rcx
	movq	%rcx, 24(%rax)
	movq	-56(%rbp), %rcx
	movq	%rcx, 16(%rax)
	movq	-72(%rbp), %rcx
	movq	-64(%rbp), %rdx
	movq	%rdx, 8(%rax)
	movq	%rcx, (%rax)
	movq	%r15, 48(%rax)
	movq	%r14, 56(%rax)
Ltmp444:
	.loc	4 24 6
	leaq	l___unnamed_6(%rip), %rdx
Ltmp445:
	.loc	5 65 6
	addq	$120, %rsp
	popq	%rbx
	popq	%r14
Ltmp446:
	popq	%r15
Ltmp447:
	popq	%rbp
	retq
LBB49_4:
Ltmp448:
	.loc	9 279 19
	movl	$64, %edi
	movl	$8, %esi
	callq	__ZN5alloc5alloc18handle_alloc_error17h28974197717b8939E
Ltmp449:
LBB49_3:
Ltmp436:
	.loc	9 0 19 is_stmt 0
	movq	%rax, %rbx
	leaq	-88(%rbp), %rdi
	.loc	4 24 5 is_stmt 1
	callq	__ZN4core3ptr13drop_in_place17h0b7161427a6e4359E
	movq	%rbx, %rdi
	callq	__Unwind_Resume
	ud2
Ltmp450:
Lfunc_end49:
	.cfi_endproc
	.section	__TEXT,__gcc_except_tab
	.p2align	2
GCC_except_table49:
Lexception4:
	.byte	255
	.byte	255
	.byte	1
	.uleb128 Lcst_end4-Lcst_begin4
Lcst_begin4:
	.uleb128 Ltmp434-Lfunc_begin49
	.uleb128 Ltmp435-Ltmp434
	.uleb128 Ltmp436-Lfunc_begin49
	.byte	0
	.uleb128 Ltmp435-Lfunc_begin49
	.uleb128 Lfunc_end49-Ltmp435
	.byte	0
	.byte	0
Lcst_end4:
	.p2align	2

	.section	__TEXT,__text,regular,pure_instructions
	.globl	__ZN7failure5error5Error7as_fail17hd3515e82b265db67E
	.p2align	4, 0x90
__ZN7failure5error5Error7as_fail17hd3515e82b265db67E:
Lfunc_begin50:
	.loc	5 69 0
	.cfi_startproc
	pushq	%rbp
	.cfi_def_cfa_offset 16
	.cfi_offset %rbp, -16
	movq	%rsp, %rbp
	.cfi_def_cfa_register %rbp
Ltmp451:
	.loc	4 29 9 prologue_end
	movq	8(%rdi), %rdx
	movq	16(%rdx), %rcx
	leaq	47(%rcx), %rax
	negq	%rcx
	andq	%rcx, %rax
	addq	(%rdi), %rax
Ltmp452:
	.loc	5 71 6
	popq	%rbp
	retq
Ltmp453:
Lfunc_end50:
	.cfi_endproc

	.globl	__ZN7failure5error5Error4name17h7a4ebcb37a189ebfE
	.p2align	4, 0x90
__ZN7failure5error5Error4name17h7a4ebcb37a189ebfE:
Lfunc_begin51:
	.loc	5 74 0
	.cfi_startproc
	pushq	%rbp
	.cfi_def_cfa_offset 16
	.cfi_offset %rbp, -16
	movq	%rsp, %rbp
	.cfi_def_cfa_register %rbp
Ltmp454:
	.loc	4 29 9 prologue_end
	movq	8(%rdi), %rcx
	movq	16(%rcx), %rdx
	leaq	47(%rdx), %rax
	negq	%rdx
	andq	%rdx, %rax
	addq	(%rdi), %rax
Ltmp455:
	.loc	5 75 9
	movq	%rax, %rdi
Ltmp456:
	popq	%rbp
	jmpq	*24(%rcx)
Ltmp457:
Lfunc_end51:
	.cfi_endproc

	.globl	__ZN7failure5error5Error9backtrace17h47cb66771e1370f1E
	.p2align	4, 0x90
__ZN7failure5error5Error9backtrace17h47cb66771e1370f1E:
Lfunc_begin52:
	.loc	5 94 0
	.cfi_startproc
	pushq	%rbp
	.cfi_def_cfa_offset 16
	.cfi_offset %rbp, -16
	movq	%rsp, %rbp
	.cfi_def_cfa_register %rbp
Ltmp458:
	pushq	%rbx
	pushq	%rax
	.cfi_offset %rbx, -24
	.loc	4 29 9 prologue_end
	movq	(%rdi), %rbx
	movq	8(%rdi), %rax
	movq	16(%rax), %rcx
	leaq	47(%rcx), %rdi
Ltmp459:
	negq	%rcx
	andq	%rcx, %rdi
	addq	%rbx, %rdi
Ltmp460:
	.loc	5 95 9
	callq	*40(%rax)
Ltmp461:
	.loc	6 409 13
	testq	%rax, %rax
	cmoveq	%rbx, %rax
Ltmp462:
	.loc	5 96 6
	addq	$8, %rsp
	popq	%rbx
Ltmp463:
	popq	%rbp
	retq
Ltmp464:
Lfunc_end52:
	.cfi_endproc

	.globl	__ZN7failure5error5Error6compat17ha6a3a016472c12f3E
	.p2align	4, 0x90
__ZN7failure5error5Error6compat17ha6a3a016472c12f3E:
Lfunc_begin53:
	.loc	5 120 0
	.cfi_startproc
	pushq	%rbp
	.cfi_def_cfa_offset 16
	.cfi_offset %rbp, -16
	movq	%rsp, %rbp
	.cfi_def_cfa_register %rbp
	movq	%rsi, %rdx
	movq	%rdi, %rax
Ltmp465:
	.loc	5 122 6 prologue_end
	popq	%rbp
	retq
Ltmp466:
Lfunc_end53:
	.cfi_endproc

	.globl	__ZN7failure5error5Error15find_root_cause17h7d314a11fd6769c0E
	.p2align	4, 0x90
__ZN7failure5error5Error15find_root_cause17h7d314a11fd6769c0E:
Lfunc_begin54:
	.loc	5 136 0
	.cfi_startproc
	pushq	%rbp
	.cfi_def_cfa_offset 16
	.cfi_offset %rbp, -16
	movq	%rsp, %rbp
	.cfi_def_cfa_register %rbp
Ltmp467:
	pushq	%r14
	pushq	%rbx
	.cfi_offset %rbx, -32
	.cfi_offset %r14, -24
	.loc	4 29 9 prologue_end
	movq	8(%rdi), %r14
	movq	16(%r14), %rax
	leaq	47(%rax), %rbx
	negq	%rax
	andq	%rax, %rbx
	addq	(%rdi), %rbx
Ltmp468:
	.loc	24 302 29
	movq	%rbx, %rdi
Ltmp469:
	callq	*32(%r14)
	.loc	24 302 15 is_stmt 0
	testq	%rax, %rax
	je	LBB54_3
Ltmp470:
	.p2align	4, 0x90
LBB54_1:
	.loc	24 0 15
	movq	%rax, %rbx
Ltmp471:
	movq	%rdx, %r14
Ltmp472:
	.loc	24 302 29
	movq	%rax, %rdi
	callq	*32(%rdx)
	.loc	24 302 15
	testq	%rax, %rax
	jne	LBB54_1
Ltmp473:
LBB54_3:
	.loc	5 138 6 is_stmt 1
	movq	%rbx, %rax
	movq	%r14, %rdx
	popq	%rbx
	popq	%r14
	popq	%rbp
	retq
Ltmp474:
Lfunc_end54:
	.cfi_endproc

	.globl	__ZN7failure5error5Error11iter_causes17hdef4128942ef2e75E
	.p2align	4, 0x90
__ZN7failure5error5Error11iter_causes17hdef4128942ef2e75E:
Lfunc_begin55:
	.loc	5 144 0
	.cfi_startproc
	pushq	%rbp
	.cfi_def_cfa_offset 16
	.cfi_offset %rbp, -16
	movq	%rsp, %rbp
	.cfi_def_cfa_register %rbp
Ltmp475:
	.loc	4 29 9 prologue_end
	movq	8(%rdi), %rcx
	movq	16(%rcx), %rdx
	leaq	47(%rdx), %rax
	negq	%rdx
	andq	%rdx, %rax
	addq	(%rdi), %rax
Ltmp476:
	.loc	24 243 24
	movq	%rax, %rdi
Ltmp477:
	popq	%rbp
	jmpq	*32(%rcx)
Ltmp478:
Lfunc_end55:
	.cfi_endproc

	.globl	__ZN7failure5error5Error10iter_chain17h371e195661def133E
	.p2align	4, 0x90
__ZN7failure5error5Error10iter_chain17h371e195661def133E:
Lfunc_begin56:
	.loc	5 154 0
	.cfi_startproc
	pushq	%rbp
	.cfi_def_cfa_offset 16
	.cfi_offset %rbp, -16
	movq	%rsp, %rbp
	.cfi_def_cfa_register %rbp
Ltmp479:
	.loc	4 29 9 prologue_end
	movq	8(%rdi), %rdx
	movq	16(%rdx), %rcx
	leaq	47(%rcx), %rax
	negq	%rcx
	andq	%rcx, %rax
	addq	(%rdi), %rax
Ltmp480:
	.loc	5 156 6
	popq	%rbp
	retq
Ltmp481:
Lfunc_end56:
	.cfi_endproc

	.globl	__ZN7failure5error5Error10root_cause17h6dedfd58cbc0c154E
	.p2align	4, 0x90
__ZN7failure5error5Error10root_cause17h6dedfd58cbc0c154E:
Lfunc_begin57:
	.loc	5 176 0
	.cfi_startproc
	pushq	%rbp
	.cfi_def_cfa_offset 16
	.cfi_offset %rbp, -16
	movq	%rsp, %rbp
	.cfi_def_cfa_register %rbp
Ltmp482:
	pushq	%r14
	pushq	%rbx
	.cfi_offset %rbx, -32
	.cfi_offset %r14, -24
	.loc	4 29 9 prologue_end
	movq	8(%rdi), %r14
	movq	16(%r14), %rax
	leaq	47(%rax), %rbx
	negq	%rax
	andq	%rax, %rbx
	addq	(%rdi), %rbx
Ltmp483:
	.loc	24 302 29
	movq	%rbx, %rdi
Ltmp484:
	callq	*32(%r14)
	.loc	24 302 15 is_stmt 0
	testq	%rax, %rax
	je	LBB57_3
Ltmp485:
	.p2align	4, 0x90
LBB57_1:
	.loc	24 0 15
	movq	%rax, %rbx
Ltmp486:
	movq	%rdx, %r14
Ltmp487:
	.loc	24 302 29
	movq	%rax, %rdi
	callq	*32(%rdx)
	.loc	24 302 15
	testq	%rax, %rax
	jne	LBB57_1
Ltmp488:
LBB57_3:
	.loc	5 178 6 is_stmt 1
	movq	%rbx, %rax
	movq	%r14, %rdx
	popq	%rbx
	popq	%r14
	popq	%rbp
	retq
Ltmp489:
Lfunc_end57:
	.cfi_endproc

	.globl	__ZN7failure5error5Error6causes17ha241ddedbcd04e06E
	.p2align	4, 0x90
__ZN7failure5error5Error6causes17ha241ddedbcd04e06E:
Lfunc_begin58:
	.loc	5 182 0
	.cfi_startproc
	pushq	%rbp
	.cfi_def_cfa_offset 16
	.cfi_offset %rbp, -16
	movq	%rsp, %rbp
	.cfi_def_cfa_register %rbp
Ltmp490:
	.loc	4 29 9 prologue_end
	movq	8(%rdi), %rdx
	movq	16(%rdx), %rcx
	leaq	47(%rcx), %rax
	negq	%rcx
	andq	%rcx, %rax
	addq	(%rdi), %rax
Ltmp491:
	.loc	5 184 6
	popq	%rbp
	retq
Ltmp492:
Lfunc_end58:
	.cfi_endproc

	.globl	__ZN60_$LT$failure..error..Error$u20$as$u20$core..fmt..Display$GT$3fmt17hc22f5d1e871d7e44E
	.p2align	4, 0x90
__ZN60_$LT$failure..error..Error$u20$as$u20$core..fmt..Display$GT$3fmt17hc22f5d1e871d7e44E:
Lfunc_begin59:
	.loc	5 188 0
	.cfi_startproc
	pushq	%rbp
	.cfi_def_cfa_offset 16
	.cfi_offset %rbp, -16
	movq	%rsp, %rbp
	.cfi_def_cfa_register %rbp
Ltmp493:
	.loc	4 29 9 prologue_end
	movq	8(%rdi), %rax
	movq	16(%rax), %rcx
Ltmp494:
	.loc	3 2022 62
	movq	88(%rax), %rdx
Ltmp495:
	.loc	4 29 9
	leaq	47(%rcx), %rax
	negq	%rcx
	andq	%rcx, %rax
	addq	(%rdi), %rax
Ltmp496:
	.loc	3 2022 62
	movq	%rax, %rdi
Ltmp497:
	popq	%rbp
	jmpq	*%rdx
Ltmp498:
Lfunc_end59:
	.cfi_endproc

	.globl	__ZN58_$LT$failure..error..Error$u20$as$u20$core..fmt..Debug$GT$3fmt17h8289deb366b62bfbE
	.p2align	4, 0x90
__ZN58_$LT$failure..error..Error$u20$as$u20$core..fmt..Debug$GT$3fmt17h8289deb366b62bfbE:
Lfunc_begin60:
	.loc	5 194 0
	.cfi_startproc
	pushq	%rbp
	.cfi_def_cfa_offset 16
	.cfi_offset %rbp, -16
	movq	%rsp, %rbp
	.cfi_def_cfa_register %rbp
	subq	$112, %rsp
	movq	%rdi, %rax
Ltmp499:
	.loc	4 37 9 prologue_end
	movq	(%rdi), %rdi
Ltmp500:
	.loc	5 195 25
	movq	%rdi, -8(%rbp)
Ltmp501:
	.loc	6 185 25
	cmpq	$0, (%rdi)
Ltmp502:
	.loc	5 196 9
	je	LBB60_2
Ltmp503:
	.loc	4 29 9
	movq	8(%rax), %rax
Ltmp504:
	movq	16(%rax), %rcx
	leaq	47(%rcx), %rdx
	negq	%rcx
	andq	%rcx, %rdx
	addq	%rdx, %rdi
Ltmp505:
	.loc	5 199 40
	movq	%rdi, -32(%rbp)
	movq	%rax, -24(%rbp)
	leaq	-32(%rbp), %rax
	.loc	5 199 39 is_stmt 0
	movq	%rax, -16(%rbp)
	leaq	-16(%rbp), %rax
Ltmp506:
	.loc	5 199 13
	movq	%rax, -64(%rbp)
	leaq	__ZN42_$LT$$RF$T$u20$as$u20$core..fmt..Debug$GT$3fmt17had2cd6c996909e2fE(%rip), %rax
	movq	%rax, -56(%rbp)
	leaq	-8(%rbp), %rax
	movq	%rax, -48(%rbp)
	leaq	__ZN42_$LT$$RF$T$u20$as$u20$core..fmt..Debug$GT$3fmt17ha39bba41b035bf2dE(%rip), %rax
	movq	%rax, -40(%rbp)
Ltmp507:
	.loc	3 328 9 is_stmt 1
	leaq	l___unnamed_7(%rip), %rax
Ltmp508:
	movq	%rax, -112(%rbp)
	movq	$2, -104(%rbp)
	movq	$0, -96(%rbp)
	leaq	-64(%rbp), %rax
Ltmp509:
	movq	%rax, -80(%rbp)
	movq	$2, -72(%rbp)
	leaq	-112(%rbp), %rax
Ltmp510:
	.loc	5 199 13
	movq	%rsi, %rdi
	movq	%rax, %rsi
Ltmp511:
	callq	__ZN4core3fmt9Formatter9write_fmt17h742ca6aae87ad23cE
Ltmp512:
	.loc	5 201 6
	addq	$112, %rsp
	popq	%rbp
	retq
Ltmp513:
LBB60_2:
	.loc	4 29 9
	movq	8(%rax), %rax
Ltmp514:
	movq	16(%rax), %rcx
	leaq	47(%rcx), %rdx
	negq	%rcx
	andq	%rcx, %rdx
	addq	%rdx, %rdi
Ltmp515:
	.loc	3 2022 62
	callq	*96(%rax)
Ltmp516:
	.loc	5 201 6
	addq	$112, %rsp
	popq	%rbp
	retq
Ltmp517:
Lfunc_end60:
	.cfi_endproc

	.section	__TEXT,__const
l___unnamed_11:
	.ascii	"called `Result::unwrap()` on an `Err` value"

	.section	__DATA,__const
	.p2align	3
l___unnamed_1:
	.quad	__ZN4core3ptr13drop_in_place17h1ccb39db33e656b8E
	.quad	16
	.quad	8
	.quad	__ZN82_$LT$std..sys_common..poison..PoisonError$LT$T$GT$$u20$as$u20$core..fmt..Debug$GT$3fmt17hfe42117e7247c5c5E

	.section	__TEXT,__literal4,4byte_literals
L___unnamed_8:
	.ascii	"Some"

	.section	__DATA,__const
	.p2align	3
l___unnamed_2:
	.quad	__ZN4core3ptr13drop_in_place17h4314960148dde3a0E
	.quad	8
	.quad	8
	.quad	__ZN42_$LT$$RF$T$u20$as$u20$core..fmt..Debug$GT$3fmt17h5185150447c208d3E

	.section	__TEXT,__literal4,4byte_literals
L___unnamed_9:
	.ascii	"None"

	.section	__TEXT,__const
l___unnamed_10:
	.ascii	"PoisonError { inner: .. }"

l___unnamed_22:
	.ascii	"/Users/yingyuhang/.cargo/registry/src/github.com-1ecc6299db9ec823/failure-0.1.8/src/backtrace/internal.rs"

.zerofill __DATA,__bss,__ZN7failure9backtrace8internal17InternalBacktrace3new7ENABLED17h0f239c4da5a44180E,8,3
	.section	__DATA,__const
	.p2align	3
l___unnamed_12:
	.quad	l___unnamed_22
	.asciz	"i\000\000\000\000\000\000\000<\000\000\000/\000\000"

	.section	__TEXT,__const
l___unnamed_13:
	.ascii	"InternalBacktrace"

l___unnamed_14:
	.ascii	"backtrace"

	.section	__DATA,__const
	.p2align	3
l___unnamed_3:
	.quad	__ZN4core3ptr13drop_in_place17h4314960148dde3a0E
	.quad	8
	.quad	8
	.quad	__ZN66_$LT$core..option..Option$LT$T$GT$$u20$as$u20$core..fmt..Debug$GT$3fmt17h1a04f32f0bdad8b2E

	.section	__TEXT,__const
l___unnamed_15:
	.ascii	"RUST_FAILURE_BACKTRACE"

l___unnamed_16:
	.byte	48

l___unnamed_17:
	.ascii	"RUST_BACKTRACE"

l___unnamed_18:
	.ascii	"Compat"

l___unnamed_19:
	.ascii	"error"

	.section	__DATA,__const
	.p2align	3
l___unnamed_4:
	.quad	__ZN4core3ptr13drop_in_place17h4314960148dde3a0E
	.quad	8
	.quad	8
	.quad	__ZN42_$LT$$RF$T$u20$as$u20$core..fmt..Debug$GT$3fmt17h6ac8da18fb77d082E

	.section	__TEXT,__const
l___unnamed_20:
	.ascii	"An error has occurred."

	.section	__DATA,__const
	.p2align	3
l___unnamed_5:
	.quad	__ZN4core3ptr13drop_in_place17hb10ada2ef3d99eb0E
	.quad	16
	.quad	8
	.quad	__ZN3std5error5Error5cause17h11d1d2aa78fd9733E
	.quad	__ZN3std5error5Error7type_id17h5da9efe9e3ce8d0aE
	.quad	__ZN3std5error5Error9backtrace17hb09fabe3218f91a9E
	.quad	__ZN70_$LT$failure..compat..Compat$LT$E$GT$$u20$as$u20$std..error..Error$GT$11description17h1cb79c37c4ca5947E
	.quad	__ZN3std5error5Error5cause17h11d1d2aa78fd9733E
	.quad	__ZN71_$LT$failure..compat..Compat$LT$E$GT$$u20$as$u20$core..fmt..Display$GT$3fmt17hb57e9547dc39a4abE
	.quad	__ZN69_$LT$failure..compat..Compat$LT$E$GT$$u20$as$u20$core..fmt..Debug$GT$3fmt17h5e0fecaf88ac378eE

	.section	__TEXT,__const
l___unnamed_23:
	.byte	0

	.section	__DATA,__const
	.p2align	3
l___unnamed_21:
	.quad	l___unnamed_23
	.space	8

	.p2align	3
l___unnamed_6:
	.quad	__ZN4core3ptr13drop_in_place17h0b7161427a6e4359E
	.quad	16
	.quad	8
	.quad	__ZN3std5error5Error5cause17h11d1d2aa78fd9733E
	.quad	__ZN3std5error5Error5cause17h11d1d2aa78fd9733E
	.quad	__ZN7failure4Fail9backtrace17h574a16d6bf03092aE
	.quad	0
	.quad	0
	.quad	0
	.quad	0
	.quad	__ZN7failure4Fail23__private_get_type_id__17h8e3ae3ef973f768cE
	.quad	__ZN63_$LT$failure..box_std..BoxStd$u20$as$u20$core..fmt..Display$GT$3fmt17hf9383a9e538db5aeE
	.quad	__ZN61_$LT$failure..box_std..BoxStd$u20$as$u20$core..fmt..Debug$GT$3fmt17hefbc6d8603810b5dE

	.section	__TEXT,__const
l___unnamed_24:
	.space	2,10

	.section	__DATA,__const
	.p2align	3
l___unnamed_7:
	.quad	l___unnamed_23
	.space	8
	.quad	l___unnamed_24
	.asciz	"\002\000\000\000\000\000\000"

	.section	__DATA,__const
Lsec_end0:
	.section	__DATA,__bss
Lsec_end1:
	.section	__TEXT,__text,regular,pure_instructions
Lsec_end2: