	.section	__TEXT,__text,regular,pure_instructions
	.macosx_version_min 10, 7
	.file	1 "/Users/yingyuhang/.cargo/registry/src/github.com-1ecc6299db9ec823/getrandom-0.1.14/src/use_file.rs"
	.file	2 "/Users/yingyuhang/.cargo/registry/src/github.com-1ecc6299db9ec823/getrandom-0.1.14/src/macos.rs"
	.p2align	4, 0x90
__ZN3std5error5Error11description17h8efcb851ee327af9E:
Lfunc_begin0:
	.file	3 "/rustc/6c8927b0cf80ceee19386026cf9d7fd4fd9d486f/src/libstd/error.rs"
	.loc	3 140 0
	.cfi_startproc
	pushq	%rbp
	.cfi_def_cfa_offset 16
	.cfi_offset %rbp, -16
	movq	%rsp, %rbp
	.cfi_def_cfa_register %rbp
Ltmp0:
	.loc	3 142 6 prologue_end
	leaq	l___unnamed_5(%rip), %rax
	movl	$40, %edx
	popq	%rbp
	retq
Ltmp1:
Lfunc_end0:
	.cfi_endproc

	.p2align	4, 0x90
__ZN3std5error5Error5cause17h7884e20e2236ab64E:
Lfunc_begin1:
	.loc	3 150 0
	.cfi_startproc
	pushq	%rbp
	.cfi_def_cfa_offset 16
	.cfi_offset %rbp, -16
	movq	%rsp, %rbp
	.cfi_def_cfa_register %rbp
Ltmp2:
	.loc	3 152 6 prologue_end
	xorl	%eax, %eax
	popq	%rbp
	retq
Ltmp3:
Lfunc_end1:
	.cfi_endproc

	.p2align	4, 0x90
__ZN3std5error5Error7type_id17hc0f0cfa527ed28c3E:
Lfunc_begin2:
	.loc	3 111 0
	.cfi_startproc
	pushq	%rbp
	.cfi_def_cfa_offset 16
	.cfi_offset %rbp, -16
	movq	%rsp, %rbp
	.cfi_def_cfa_register %rbp
	movabsq	$2219189025166995018, %rax
Ltmp4:
	.loc	3 116 6 prologue_end
	popq	%rbp
	retq
Ltmp5:
Lfunc_end2:
	.cfi_endproc

	.p2align	4, 0x90
__ZN3std5error5Error9backtrace17h557602ec1afcb6ddE:
Lfunc_begin3:
	.loc	3 128 0
	.cfi_startproc
	pushq	%rbp
	.cfi_def_cfa_offset 16
	.cfi_offset %rbp, -16
	movq	%rsp, %rbp
	.cfi_def_cfa_register %rbp
Ltmp6:
	.loc	3 130 6 prologue_end
	xorl	%eax, %eax
	popq	%rbp
	retq
Ltmp7:
Lfunc_end3:
	.cfi_endproc

	.p2align	4, 0x90
__ZN42_$LT$$RF$T$u20$as$u20$core..fmt..Debug$GT$3fmt17h7861dfa610869e3fE:
Lfunc_begin4:
	.file	4 "/rustc/6c8927b0cf80ceee19386026cf9d7fd4fd9d486f/src/libcore/fmt/mod.rs"
	.loc	4 2022 0
	.cfi_startproc
	pushq	%rbp
	.cfi_def_cfa_offset 16
	.cfi_offset %rbp, -16
	movq	%rsp, %rbp
	.cfi_def_cfa_register %rbp
	movq	%rsi, %rdx
Ltmp8:
	.loc	4 2022 71 prologue_end
	movq	(%rdi), %rax
	movq	8(%rdi), %rsi
	.loc	4 2022 62 is_stmt 0
	movq	%rax, %rdi
Ltmp9:
	popq	%rbp
	jmp	__ZN40_$LT$str$u20$as$u20$core..fmt..Debug$GT$3fmt17h5b42b6f497bd434cE
Ltmp10:
Lfunc_end4:
	.cfi_endproc

	.p2align	4, 0x90
__ZN42_$LT$$RF$T$u20$as$u20$core..fmt..Debug$GT$3fmt17ha27003c72ced6869E:
Lfunc_begin5:
	.loc	4 2022 0 is_stmt 1
	.cfi_startproc
	pushq	%rbp
	.cfi_def_cfa_offset 16
	.cfi_offset %rbp, -16
	movq	%rsp, %rbp
	.cfi_def_cfa_register %rbp
	pushq	%r14
	pushq	%rbx
	.cfi_offset %rbx, -32
	.cfi_offset %r14, -24
	movq	%rsi, %rbx
Ltmp11:
	.loc	4 2022 71 prologue_end
	movq	(%rdi), %r14
Ltmp12:
	.file	5 "/rustc/6c8927b0cf80ceee19386026cf9d7fd4fd9d486f/src/libcore/fmt/num.rs"
	.loc	5 149 20
	movq	%rsi, %rdi
Ltmp13:
	callq	__ZN4core3fmt9Formatter15debug_lower_hex17hd07f6fde8d0365dfE
	.loc	5 149 17 is_stmt 0
	testb	%al, %al
	je	LBB5_1
Ltmp14:
	.loc	5 150 21 is_stmt 1
	movq	%r14, %rdi
	movq	%rbx, %rsi
	popq	%rbx
Ltmp15:
	popq	%r14
Ltmp16:
	popq	%rbp
	jmp	__ZN4core3fmt3num53_$LT$impl$u20$core..fmt..LowerHex$u20$for$u20$i32$GT$3fmt17hb7ffbd061f7948a2E
LBB5_1:
Ltmp17:
	.loc	5 151 27
	movq	%rbx, %rdi
	callq	__ZN4core3fmt9Formatter15debug_upper_hex17hf480c256a9c81c1eE
	.loc	5 154 21
	movq	%r14, %rdi
	movq	%rbx, %rsi
	.loc	5 151 24
	testb	%al, %al
	je	LBB5_4
Ltmp18:
	.loc	5 152 21
	popq	%rbx
Ltmp19:
	popq	%r14
Ltmp20:
	popq	%rbp
	jmp	__ZN4core3fmt3num53_$LT$impl$u20$core..fmt..UpperHex$u20$for$u20$i32$GT$3fmt17hbb8d8cd7e36208d7E
LBB5_4:
Ltmp21:
	.loc	5 154 21
	popq	%rbx
Ltmp22:
	popq	%r14
Ltmp23:
	popq	%rbp
	jmp	__ZN4core3fmt3num3imp52_$LT$impl$u20$core..fmt..Display$u20$for$u20$i32$GT$3fmt17h00ed7ff77f9da654E
Ltmp24:
Lfunc_end5:
	.cfi_endproc

	.p2align	4, 0x90
__ZN4core3fmt3num50_$LT$impl$u20$core..fmt..Debug$u20$for$u20$i32$GT$3fmt17h98bc43ab4e1a9ca3E:
Lfunc_begin6:
	.loc	5 148 0
	.cfi_startproc
	pushq	%rbp
	.cfi_def_cfa_offset 16
	.cfi_offset %rbp, -16
	movq	%rsp, %rbp
	.cfi_def_cfa_register %rbp
	pushq	%r14
	pushq	%rbx
	.cfi_offset %rbx, -32
	.cfi_offset %r14, -24
	movq	%rsi, %rbx
	movq	%rdi, %r14
Ltmp25:
	.loc	5 149 20 prologue_end
	movq	%rsi, %rdi
	callq	__ZN4core3fmt9Formatter15debug_lower_hex17hd07f6fde8d0365dfE
	.loc	5 149 17 is_stmt 0
	testb	%al, %al
	je	LBB6_1
Ltmp26:
	.loc	5 150 21 is_stmt 1
	movq	%r14, %rdi
	movq	%rbx, %rsi
	popq	%rbx
Ltmp27:
	popq	%r14
Ltmp28:
	popq	%rbp
	jmp	__ZN4core3fmt3num53_$LT$impl$u20$core..fmt..LowerHex$u20$for$u20$i32$GT$3fmt17hb7ffbd061f7948a2E
LBB6_1:
Ltmp29:
	.loc	5 151 27
	movq	%rbx, %rdi
	callq	__ZN4core3fmt9Formatter15debug_upper_hex17hf480c256a9c81c1eE
	.loc	5 154 21
	movq	%r14, %rdi
	movq	%rbx, %rsi
	.loc	5 151 24
	testb	%al, %al
	je	LBB6_4
Ltmp30:
	.loc	5 152 21
	popq	%rbx
Ltmp31:
	popq	%r14
Ltmp32:
	popq	%rbp
	jmp	__ZN4core3fmt3num53_$LT$impl$u20$core..fmt..UpperHex$u20$for$u20$i32$GT$3fmt17hbb8d8cd7e36208d7E
LBB6_4:
Ltmp33:
	.loc	5 154 21
	popq	%rbx
Ltmp34:
	popq	%r14
Ltmp35:
	popq	%rbp
	jmp	__ZN4core3fmt3num3imp52_$LT$impl$u20$core..fmt..Display$u20$for$u20$i32$GT$3fmt17h00ed7ff77f9da654E
Ltmp36:
Lfunc_end6:
	.cfi_endproc

	.p2align	4, 0x90
__ZN4core3fmt3num50_$LT$impl$u20$core..fmt..Debug$u20$for$u20$u32$GT$3fmt17h1ea6d626882ea7ffE:
Lfunc_begin7:
	.loc	5 148 0
	.cfi_startproc
	pushq	%rbp
	.cfi_def_cfa_offset 16
	.cfi_offset %rbp, -16
	movq	%rsp, %rbp
	.cfi_def_cfa_register %rbp
	pushq	%r14
	pushq	%rbx
	.cfi_offset %rbx, -32
	.cfi_offset %r14, -24
	movq	%rsi, %rbx
	movq	%rdi, %r14
Ltmp37:
	.loc	5 149 20 prologue_end
	movq	%rsi, %rdi
	callq	__ZN4core3fmt9Formatter15debug_lower_hex17hd07f6fde8d0365dfE
	.loc	5 149 17 is_stmt 0
	testb	%al, %al
	je	LBB7_1
Ltmp38:
	.loc	5 150 21 is_stmt 1
	movq	%r14, %rdi
	movq	%rbx, %rsi
	popq	%rbx
Ltmp39:
	popq	%r14
Ltmp40:
	popq	%rbp
	jmp	__ZN4core3fmt3num53_$LT$impl$u20$core..fmt..LowerHex$u20$for$u20$u32$GT$3fmt17h019ba2b9dd60d385E
LBB7_1:
Ltmp41:
	.loc	5 151 27
	movq	%rbx, %rdi
	callq	__ZN4core3fmt9Formatter15debug_upper_hex17hf480c256a9c81c1eE
	.loc	5 154 21
	movq	%r14, %rdi
	movq	%rbx, %rsi
	.loc	5 151 24
	testb	%al, %al
	je	LBB7_4
Ltmp42:
	.loc	5 152 21
	popq	%rbx
Ltmp43:
	popq	%r14
Ltmp44:
	popq	%rbp
	jmp	__ZN4core3fmt3num53_$LT$impl$u20$core..fmt..UpperHex$u20$for$u20$u32$GT$3fmt17h7bd10b5f3c9584f1E
LBB7_4:
Ltmp45:
	.loc	5 154 21
	popq	%rbx
Ltmp46:
	popq	%r14
Ltmp47:
	popq	%rbp
	jmp	__ZN4core3fmt3num3imp52_$LT$impl$u20$core..fmt..Display$u20$for$u20$u32$GT$3fmt17hb70882cf65fd1a66E
Ltmp48:
Lfunc_end7:
	.cfi_endproc

	.p2align	4, 0x90
__ZN4core3ptr13drop_in_place17h3f0074eeeb848325E:
Lfunc_begin8:
	.file	6 "/rustc/6c8927b0cf80ceee19386026cf9d7fd4fd9d486f/src/libcore/ptr/mod.rs"
	.loc	6 184 0
	.cfi_startproc
	pushq	%rbp
	.cfi_def_cfa_offset 16
	.cfi_offset %rbp, -16
	movq	%rsp, %rbp
	.cfi_def_cfa_register %rbp
Ltmp49:
	.loc	6 184 1 prologue_end
	popq	%rbp
	retq
Ltmp50:
Lfunc_end8:
	.cfi_endproc

	.p2align	4, 0x90
__ZN4core3ptr13drop_in_place17h459227c3cedd8efcE:
Lfunc_begin9:
	.loc	6 184 0
	.cfi_startproc
	pushq	%rbp
	.cfi_def_cfa_offset 16
	.cfi_offset %rbp, -16
	movq	%rsp, %rbp
	.cfi_def_cfa_register %rbp
	subq	$112, %rsp
Ltmp51:
	.loc	1 124 17 prologue_end
	leaq	__ZN9getrandom8use_file10get_rng_fd5MUTEX17h5b792ec88ab77fe2E(%rip), %rdi
	callq	_pthread_mutex_unlock
	movl	%eax, -4(%rbp)
Ltmp52:
	.loc	1 125 9
	testl	%eax, %eax
Ltmp53:
	jne	LBB9_2
Ltmp54:
	.loc	6 184 1
	addq	$112, %rsp
	popq	%rbp
	retq
LBB9_2:
Ltmp55:
	.loc	6 0 1 is_stmt 0
	leaq	-4(%rbp), %rax
Ltmp56:
	.loc	1 125 9 is_stmt 1
	movq	%rax, -16(%rbp)
	leaq	L___unnamed_6(%rip), %rax
	movq	%rax, -24(%rbp)
	leaq	-16(%rbp), %rax
Ltmp57:
	.loc	1 125 9 is_stmt 0
	movq	%rax, -56(%rbp)
	leaq	__ZN42_$LT$$RF$T$u20$as$u20$core..fmt..Debug$GT$3fmt17ha27003c72ced6869E(%rip), %rax
	movq	%rax, -48(%rbp)
	leaq	-24(%rbp), %rcx
	movq	%rcx, -40(%rbp)
	movq	%rax, -32(%rbp)
Ltmp58:
	.loc	4 328 9 is_stmt 1
	leaq	l___unnamed_7(%rip), %rax
Ltmp59:
	movq	%rax, -104(%rbp)
	movq	$3, -96(%rbp)
	movq	$0, -88(%rbp)
	leaq	-56(%rbp), %rax
Ltmp60:
	movq	%rax, -72(%rbp)
	movq	$2, -64(%rbp)
Ltmp61:
	.loc	1 125 9
	leaq	l___unnamed_8(%rip), %rsi
	leaq	-104(%rbp), %rdi
	callq	__ZN4core9panicking9panic_fmt17hfce5b7173905fc53E
Ltmp62:
Lfunc_end9:
	.cfi_endproc

	.p2align	4, 0x90
__ZN4core3ptr13drop_in_place17h8ec51035746a3619E:
Lfunc_begin10:
	.loc	6 184 0
	.cfi_startproc
	.cfi_personality 155, _rust_eh_personality
	.cfi_lsda 16, Lexception0
	pushq	%rbp
	.cfi_def_cfa_offset 16
	.cfi_offset %rbp, -16
	movq	%rsp, %rbp
	.cfi_def_cfa_register %rbp
Ltmp66:
	pushq	%r15
	pushq	%r14
	pushq	%rbx
	pushq	%rax
	.cfi_offset %rbx, -40
	.cfi_offset %r14, -32
	.cfi_offset %r15, -24
	.loc	6 184 1 prologue_end
	cmpb	$2, (%rdi)
	jae	LBB10_1
Ltmp67:
	.loc	6 184 1 is_stmt 0
	addq	$8, %rsp
	popq	%rbx
	popq	%r14
	popq	%r15
	popq	%rbp
	retq
Ltmp68:
LBB10_1:
	.loc	6 0 1
	movq	%rdi, %r15
Ltmp69:
	.loc	6 184 1
	movq	8(%rdi), %rbx
Ltmp70:
	.loc	6 184 1
	movq	(%rbx), %rdi
	movq	8(%rbx), %rax
Ltmp63:
	callq	*(%rax)
Ltmp64:
Ltmp71:
	movq	8(%rbx), %rax
Ltmp72:
	.file	7 "/rustc/6c8927b0cf80ceee19386026cf9d7fd4fd9d486f/src/liballoc/alloc.rs"
	.loc	7 292 20 is_stmt 1
	movq	8(%rax), %rsi
Ltmp73:
	.loc	7 185 12
	testq	%rsi, %rsi
	.loc	7 185 9 is_stmt 0
	je	LBB10_4
Ltmp74:
	.loc	6 184 1 is_stmt 1
	movq	(%rbx), %rdi
Ltmp75:
	.loc	7 293 21
	movq	16(%rax), %rdx
Ltmp76:
	.loc	7 102 14
	callq	___rust_dealloc
Ltmp77:
LBB10_4:
	.loc	6 184 1
	movq	8(%r15), %rdi
Ltmp78:
	.loc	7 102 14
	movl	$24, %esi
	movl	$8, %edx
	addq	$8, %rsp
	popq	%rbx
	popq	%r14
	popq	%r15
Ltmp79:
	popq	%rbp
	jmp	___rust_dealloc
Ltmp80:
LBB10_6:
Ltmp65:
	.loc	7 0 14 is_stmt 0
	movq	%rax, %r14
Ltmp81:
	.loc	6 184 1 is_stmt 1
	movq	(%rbx), %rdi
	movq	8(%rbx), %rsi
	callq	__ZN5alloc5alloc8box_free17h828490e91fea60cdE
Ltmp82:
	.loc	6 184 1 is_stmt 0
	movq	8(%r15), %rdi
	callq	__ZN5alloc5alloc8box_free17h18fecc539992d1ccE
	movq	%r14, %rdi
	callq	__Unwind_Resume
	ud2
Ltmp83:
Lfunc_end10:
	.cfi_endproc
	.section	__TEXT,__gcc_except_tab
	.p2align	2
GCC_except_table10:
Lexception0:
	.byte	255
	.byte	255
	.byte	1
	.uleb128 Lcst_end0-Lcst_begin0
Lcst_begin0:
	.uleb128 Ltmp63-Lfunc_begin10
	.uleb128 Ltmp64-Ltmp63
	.uleb128 Ltmp65-Lfunc_begin10
	.byte	0
	.uleb128 Ltmp64-Lfunc_begin10
	.uleb128 Lfunc_end10-Ltmp64
	.byte	0
	.byte	0
Lcst_end0:
	.p2align	2

	.section	__TEXT,__text,regular,pure_instructions
	.p2align	4, 0x90
__ZN5alloc5alloc8box_free17h18fecc539992d1ccE:
Lfunc_begin11:
	.loc	7 290 0 is_stmt 1
	.cfi_startproc
	pushq	%rbp
	.cfi_def_cfa_offset 16
	.cfi_offset %rbp, -16
	movq	%rsp, %rbp
	.cfi_def_cfa_register %rbp
Ltmp84:
	.loc	7 102 14 prologue_end
	movl	$24, %esi
	movl	$8, %edx
	popq	%rbp
	jmp	___rust_dealloc
Ltmp85:
Lfunc_end11:
	.cfi_endproc

	.p2align	4, 0x90
__ZN5alloc5alloc8box_free17h828490e91fea60cdE:
Lfunc_begin12:
	.loc	7 290 0
	.cfi_startproc
	pushq	%rbp
	.cfi_def_cfa_offset 16
	.cfi_offset %rbp, -16
	movq	%rsp, %rbp
	.cfi_def_cfa_register %rbp
	movq	%rsi, %rax
Ltmp86:
	.loc	7 292 20 prologue_end
	movq	8(%rsi), %rsi
Ltmp87:
	.loc	7 185 12
	testq	%rsi, %rsi
	.loc	7 185 9 is_stmt 0
	je	LBB12_1
Ltmp88:
	.loc	7 293 21 is_stmt 1
	movq	16(%rax), %rdx
Ltmp89:
	.loc	7 102 14
	popq	%rbp
	jmp	___rust_dealloc
Ltmp90:
LBB12_1:
	.loc	7 297 2
	popq	%rbp
	retq
Ltmp91:
Lfunc_end12:
	.cfi_endproc

	.globl	__ZN60_$LT$getrandom..error..Error$u20$as$u20$core..fmt..Debug$GT$3fmt17hb526f0ed84dc59d0E
	.p2align	4, 0x90
__ZN60_$LT$getrandom..error..Error$u20$as$u20$core..fmt..Debug$GT$3fmt17hb526f0ed84dc59d0E:
Lfunc_begin13:
	.file	8 "/Users/yingyuhang/.cargo/registry/src/github.com-1ecc6299db9ec823/getrandom-0.1.14/src/error.rs"
	.loc	8 88 0
	.cfi_startproc
	pushq	%rbp
	.cfi_def_cfa_offset 16
	.cfi_offset %rbp, -16
	movq	%rsp, %rbp
	.cfi_def_cfa_register %rbp
	pushq	%rbx
	subq	$184, %rsp
	.cfi_offset %rbx, -24
	movq	%rdi, %rbx
Ltmp92:
	.loc	8 89 23 prologue_end
	leaq	l___unnamed_9(%rip), %rdx
	leaq	-32(%rbp), %rdi
	movl	$5, %ecx
	callq	__ZN4core3fmt9Formatter12debug_struct17ha1a64e91d2a98458E
Ltmp93:
	.loc	8 90 30
	movslq	(%rbx), %rcx
	movl	%ecx, %eax
	testq	%rcx, %rcx
	.loc	8 90 16 is_stmt 0
	js	LBB13_1
Ltmp94:
	.loc	8 90 21
	movl	%eax, -12(%rbp)
Ltmp95:
	.loc	8 91 13 is_stmt 1
	leaq	L___unnamed_10(%rip), %rsi
	leaq	l___unnamed_4(%rip), %r8
	leaq	-32(%rbp), %rdi
	leaq	-12(%rbp), %rcx
	movl	$8, %edx
	callq	__ZN4core3fmt8builders11DebugStruct5field17h6c54d35ac41bb1e6E
	.loc	8 92 27
	xorps	%xmm0, %xmm0
	movaps	%xmm0, -80(%rbp)
	movaps	%xmm0, -96(%rbp)
	movaps	%xmm0, -112(%rbp)
	movaps	%xmm0, -128(%rbp)
	movaps	%xmm0, -144(%rbp)
	movaps	%xmm0, -160(%rbp)
	movaps	%xmm0, -176(%rbp)
	movaps	%xmm0, -192(%rbp)
Ltmp96:
	.loc	8 93 39
	movl	-12(%rbp), %edi
Ltmp97:
	.loc	8 0 39 is_stmt 0
	leaq	-192(%rbp), %rsi
Ltmp98:
	.loc	8 67 25 is_stmt 1
	movl	$128, %edx
	callq	_strerror_r
Ltmp99:
	.loc	8 67 16 is_stmt 0
	testl	%eax, %eax
	.loc	8 67 13
	jne	LBB13_15
Ltmp100:
	.file	9 "/rustc/6c8927b0cf80ceee19386026cf9d7fd4fd9d486f/src/libcore/ptr/const_ptr.rs"
	.loc	9 164 18 is_stmt 1
	leaq	-64(%rbp), %rax
	xorl	%edx, %edx
Ltmp101:
	.p2align	4, 0x90
LBB13_5:
	.loc	8 73 48
	cmpb	$0, -192(%rbp,%rdx)
Ltmp102:
	.file	10 "/rustc/6c8927b0cf80ceee19386026cf9d7fd4fd9d486f/src/libcore/slice/mod.rs"
	.loc	10 3711 21
	je	LBB13_10
Ltmp103:
	.loc	10 0 0 is_stmt 0
	leaq	-192(%rbp,%rdx), %rcx
Ltmp104:
	.loc	8 73 48 is_stmt 1
	cmpb	$0, 1(%rcx)
Ltmp105:
	.loc	10 3711 21
	je	LBB13_7
Ltmp106:
	.loc	8 73 48
	cmpb	$0, 2(%rcx)
Ltmp107:
	.loc	10 3711 21
	je	LBB13_9
Ltmp108:
	.loc	8 73 48
	cmpb	$0, 3(%rcx)
Ltmp109:
	.loc	10 3711 21
	je	LBB13_8
Ltmp110:
	.loc	10 0 21 is_stmt 0
	addq	$4, %rdx
Ltmp111:
	.loc	10 3440 9 is_stmt 1
	addq	$4, %rcx
	cmpq	%rax, %rcx
	.loc	10 3570 21
	jne	LBB13_5
Ltmp112:
	.loc	10 0 21 is_stmt 0
	movl	$128, %edx
Ltmp113:
	jmp	LBB13_10
Ltmp114:
LBB13_1:
	.loc	8 151 9 is_stmt 1
	xorq	$-2147483648, %rcx
	cmpl	$12, %ecx
	jae	LBB13_2
Ltmp115:
	leaq	l_switch.table._ZN60_$LT$getrandom..error..Error$u20$as$u20$core..fmt..Debug$GT$3fmt17hb526f0ed84dc59d0E(%rip), %rdx
	movq	(%rdx,%rcx,8), %rdx
	movslq	%ecx, %rcx
	leaq	l_switch.table._ZN60_$LT$getrandom..error..Error$u20$as$u20$core..fmt..Debug$GT$3fmt17hb526f0ed84dc59d0E.20(%rip), %rsi
	movq	(%rsi,%rcx,8), %rcx
Ltmp116:
	.loc	8 96 28
	movq	%rcx, -192(%rbp)
	movq	%rdx, -184(%rbp)
Ltmp117:
	.loc	8 97 41
	movl	%eax, -56(%rbp)
	.loc	8 97 13 is_stmt 0
	leaq	l___unnamed_11(%rip), %rsi
	leaq	l___unnamed_2(%rip), %r8
	leaq	-32(%rbp), %rbx
Ltmp118:
	.loc	8 0 13
	leaq	-56(%rbp), %rcx
	.loc	8 97 13
	movl	$13, %edx
	movq	%rbx, %rdi
	callq	__ZN4core3fmt8builders11DebugStruct5field17h6c54d35ac41bb1e6E
Ltmp119:
	.loc	8 98 13 is_stmt 1
	leaq	l___unnamed_12(%rip), %rsi
	leaq	l___unnamed_3(%rip), %r8
	leaq	-192(%rbp), %rcx
	movl	$11, %edx
	movq	%rbx, %rdi
	jmp	LBB13_14
Ltmp120:
LBB13_2:
	.loc	8 100 40
	movl	%eax, -192(%rbp)
	.loc	8 100 13 is_stmt 0
	leaq	l___unnamed_13(%rip), %rsi
	leaq	l___unnamed_2(%rip), %r8
	leaq	-32(%rbp), %rdi
	leaq	-192(%rbp), %rcx
	movl	$12, %edx
	jmp	LBB13_14
Ltmp121:
LBB13_7:
	.loc	10 3712 41 is_stmt 1
	incq	%rdx
Ltmp122:
	.loc	10 0 41 is_stmt 0
	jmp	LBB13_10
Ltmp123:
LBB13_9:
	.loc	10 3712 41
	addq	$2, %rdx
Ltmp124:
	.loc	10 0 41
	jmp	LBB13_10
Ltmp125:
LBB13_8:
	.loc	10 3712 41
	addq	$3, %rdx
Ltmp126:
LBB13_10:
	.loc	10 0 41
	leaq	-56(%rbp), %rdi
	leaq	-192(%rbp), %rsi
Ltmp127:
	.loc	8 74 13 is_stmt 1
	callq	__ZN4core3str9from_utf817hc7dfc8cc9345acf5E
Ltmp128:
	.file	11 "/rustc/6c8927b0cf80ceee19386026cf9d7fd4fd9d486f/src/libcore/result.rs"
	.loc	11 396 13
	cmpl	$1, -56(%rbp)
	je	LBB13_15
Ltmp129:
	.loc	11 0 13 is_stmt 0
	movq	-48(%rbp), %rax
	testq	%rax, %rax
	je	LBB13_15
Ltmp130:
	movq	-40(%rbp), %rcx
	.loc	8 93 25 is_stmt 1
	movq	%rax, -56(%rbp)
	movq	%rcx, -48(%rbp)
Ltmp131:
	.loc	8 94 17
	leaq	l___unnamed_12(%rip), %rsi
	leaq	l___unnamed_3(%rip), %r8
	leaq	-32(%rbp), %rdi
	leaq	-56(%rbp), %rcx
	movl	$11, %edx
Ltmp132:
LBB13_14:
	.loc	8 0 0 is_stmt 0
	callq	__ZN4core3fmt8builders11DebugStruct5field17h6c54d35ac41bb1e6E
LBB13_15:
	leaq	-32(%rbp), %rdi
	.loc	8 102 9 is_stmt 1
	callq	__ZN4core3fmt8builders11DebugStruct6finish17h67ed49fd5e81bb24E
Ltmp133:
	.loc	8 103 6
	addq	$184, %rsp
	popq	%rbx
	popq	%rbp
	retq
Ltmp134:
Lfunc_end13:
	.cfi_endproc

	.globl	__ZN62_$LT$getrandom..error..Error$u20$as$u20$core..fmt..Display$GT$3fmt17hee65f306fa090226E
	.p2align	4, 0x90
__ZN62_$LT$getrandom..error..Error$u20$as$u20$core..fmt..Display$GT$3fmt17hee65f306fa090226E:
Lfunc_begin14:
	.loc	8 107 0
	.cfi_startproc
	pushq	%rbp
	.cfi_def_cfa_offset 16
	.cfi_offset %rbp, -16
	movq	%rsp, %rbp
	.cfi_def_cfa_register %rbp
	pushq	%rbx
	subq	$200, %rsp
	.cfi_offset %rbx, -24
	movq	%rsi, %rbx
Ltmp135:
	.loc	8 108 30 prologue_end
	movl	(%rdi), %edi
Ltmp136:
	.loc	8 108 16 is_stmt 0
	testl	%edi, %edi
	js	LBB14_1
Ltmp137:
	.loc	8 108 21
	movl	%edi, -12(%rbp)
Ltmp138:
	.loc	8 109 27 is_stmt 1
	xorps	%xmm0, %xmm0
	movaps	%xmm0, -96(%rbp)
	movaps	%xmm0, -112(%rbp)
	movaps	%xmm0, -128(%rbp)
	movaps	%xmm0, -144(%rbp)
	movaps	%xmm0, -160(%rbp)
	movaps	%xmm0, -176(%rbp)
	movaps	%xmm0, -192(%rbp)
	movaps	%xmm0, -208(%rbp)
Ltmp139:
	.loc	8 0 27 is_stmt 0
	leaq	-208(%rbp), %rsi
Ltmp140:
	.loc	8 67 25 is_stmt 1
	movl	$128, %edx
	callq	_strerror_r
Ltmp141:
	.loc	8 67 16 is_stmt 0
	testl	%eax, %eax
	.loc	8 67 13
	je	LBB14_14
Ltmp142:
LBB14_22:
	.loc	8 0 13
	leaq	-12(%rbp), %rax
Ltmp143:
	.loc	8 112 25 is_stmt 1
	movq	%rax, -32(%rbp)
	movq	__ZN4core3fmt3num3imp52_$LT$impl$u20$core..fmt..Display$u20$for$u20$i32$GT$3fmt17h00ed7ff77f9da654E@GOTPCREL(%rip), %rax
	movq	%rax, -24(%rbp)
Ltmp144:
	.loc	4 328 9
	leaq	l___unnamed_14(%rip), %rax
Ltmp145:
	movq	%rax, -80(%rbp)
	movq	$1, -72(%rbp)
	movq	$0, -64(%rbp)
	leaq	-32(%rbp), %rax
Ltmp146:
	movq	%rax, -48(%rbp)
	movq	$1, -40(%rbp)
	leaq	-80(%rbp), %rsi
Ltmp147:
LBB14_23:
	.loc	8 0 0 is_stmt 0
	movq	%rbx, %rdi
	callq	__ZN4core3fmt9Formatter9write_fmt17h742ca6aae87ad23cE
	.loc	8 119 6 is_stmt 1
	addq	$200, %rsp
	popq	%rbx
Ltmp148:
	popq	%rbp
	retq
LBB14_1:
Ltmp149:
	.loc	8 151 9
	leal	-2147483648(%rdi), %eax
	cmpl	$11, %eax
	ja	LBB14_24
Ltmp150:
	.loc	8 0 9 is_stmt 0
	leaq	l___unnamed_15(%rip), %rsi
	movl	$39, %edx
	leaq	LJTI14_0(%rip), %rcx
	movslq	(%rcx,%rax,4), %rax
	addq	%rcx, %rax
	jmpq	*%rax
Ltmp151:
LBB14_25:
	leaq	l___unnamed_16(%rip), %rsi
	jmp	LBB14_26
Ltmp152:
LBB14_14:
	.loc	9 164 18 is_stmt 1
	leaq	-80(%rbp), %rax
	xorl	%edx, %edx
Ltmp153:
	.p2align	4, 0x90
LBB14_15:
	.loc	8 73 48
	cmpb	$0, -208(%rbp,%rdx)
Ltmp154:
	.loc	10 3711 21
	je	LBB14_20
Ltmp155:
	.loc	10 0 0 is_stmt 0
	leaq	-208(%rbp,%rdx), %rcx
Ltmp156:
	.loc	8 73 48 is_stmt 1
	cmpb	$0, 1(%rcx)
Ltmp157:
	.loc	10 3711 21
	je	LBB14_17
Ltmp158:
	.loc	8 73 48
	cmpb	$0, 2(%rcx)
Ltmp159:
	.loc	10 3711 21
	je	LBB14_19
Ltmp160:
	.loc	8 73 48
	cmpb	$0, 3(%rcx)
Ltmp161:
	.loc	10 3711 21
	je	LBB14_18
Ltmp162:
	.loc	10 0 21 is_stmt 0
	addq	$4, %rdx
Ltmp163:
	.loc	10 3440 9 is_stmt 1
	addq	$4, %rcx
	cmpq	%rax, %rcx
	.loc	10 3570 21
	jne	LBB14_15
Ltmp164:
	.loc	10 0 21 is_stmt 0
	movl	$128, %edx
Ltmp165:
	jmp	LBB14_20
Ltmp166:
LBB14_17:
	.loc	10 3712 41 is_stmt 1
	incq	%rdx
Ltmp167:
	.loc	10 0 41 is_stmt 0
	jmp	LBB14_20
Ltmp168:
LBB14_19:
	.loc	10 3712 41
	addq	$2, %rdx
Ltmp169:
	.loc	10 0 41
	jmp	LBB14_20
Ltmp170:
LBB14_18:
	.loc	10 3712 41
	addq	$3, %rdx
Ltmp171:
LBB14_20:
	.loc	10 0 41
	leaq	-80(%rbp), %rdi
	leaq	-208(%rbp), %rsi
Ltmp172:
	.loc	8 74 13 is_stmt 1
	callq	__ZN4core3str9from_utf817hc7dfc8cc9345acf5E
Ltmp173:
	.loc	11 396 13
	cmpl	$1, -80(%rbp)
	je	LBB14_22
Ltmp174:
	.loc	11 0 13 is_stmt 0
	movq	-72(%rbp), %rdi
	testq	%rdi, %rdi
	je	LBB14_22
Ltmp175:
	movq	-64(%rbp), %rsi
Ltmp176:
	.loc	8 111 30 is_stmt 1
	movq	%rbx, %rdx
	callq	__ZN42_$LT$str$u20$as$u20$core..fmt..Display$GT$3fmt17h6768afae62e94f93E
Ltmp177:
	.loc	8 119 6
	addq	$200, %rsp
	popq	%rbx
Ltmp178:
	popq	%rbp
	retq
LBB14_24:
Ltmp179:
	.loc	8 117 44
	movl	%edi, -32(%rbp)
	leaq	-32(%rbp), %rax
Ltmp180:
	.loc	8 117 13 is_stmt 0
	movq	%rax, -80(%rbp)
	movq	__ZN4core3fmt3num3imp52_$LT$impl$u20$core..fmt..Display$u20$for$u20$u32$GT$3fmt17hb70882cf65fd1a66E@GOTPCREL(%rip), %rax
	movq	%rax, -72(%rbp)
Ltmp181:
	.loc	4 328 9 is_stmt 1
	leaq	l___unnamed_17(%rip), %rax
Ltmp182:
	movq	%rax, -208(%rbp)
	movq	$1, -200(%rbp)
	movq	$0, -192(%rbp)
	leaq	-80(%rbp), %rax
Ltmp183:
	movq	%rax, -176(%rbp)
	movq	$1, -168(%rbp)
	leaq	-208(%rbp), %rsi
	jmp	LBB14_23
Ltmp184:
LBB14_3:
	.loc	4 0 9 is_stmt 0
	leaq	l___unnamed_18(%rip), %rsi
	movl	$22, %edx
	jmp	LBB14_27
Ltmp185:
LBB14_4:
	leaq	l___unnamed_19(%rip), %rsi
	movl	$31, %edx
	jmp	LBB14_27
Ltmp186:
LBB14_5:
	leaq	l___unnamed_20(%rip), %rsi
	movl	$25, %edx
	jmp	LBB14_27
Ltmp187:
LBB14_6:
	leaq	l___unnamed_21(%rip), %rsi
	movl	$47, %edx
	jmp	LBB14_27
Ltmp188:
LBB14_7:
	leaq	l___unnamed_22(%rip), %rsi
	movl	$33, %edx
	jmp	LBB14_27
Ltmp189:
LBB14_8:
	leaq	l___unnamed_23(%rip), %rsi
	jmp	LBB14_26
Ltmp190:
LBB14_9:
	leaq	l___unnamed_24(%rip), %rsi
	movl	$49, %edx
	jmp	LBB14_27
Ltmp191:
LBB14_10:
	leaq	l___unnamed_25(%rip), %rsi
Ltmp192:
LBB14_26:
	movl	$38, %edx
	jmp	LBB14_27
Ltmp193:
LBB14_11:
	leaq	l___unnamed_26(%rip), %rsi
	movl	$32, %edx
	jmp	LBB14_27
Ltmp194:
LBB14_12:
	leaq	l___unnamed_27(%rip), %rsi
	movl	$61, %edx
Ltmp195:
LBB14_27:
	.loc	8 115 13 is_stmt 1
	movq	%rbx, %rdi
	addq	$200, %rsp
	popq	%rbx
Ltmp196:
	popq	%rbp
	jmp	__ZN4core3fmt9Formatter9write_str17h98e119ad25a8903eE
Ltmp197:
Lfunc_end14:
	.cfi_endproc
	.p2align	2, 0x90
	.data_region jt32
.set L14_0_set_27, LBB14_27-LJTI14_0
.set L14_0_set_25, LBB14_25-LJTI14_0
.set L14_0_set_3, LBB14_3-LJTI14_0
.set L14_0_set_4, LBB14_4-LJTI14_0
.set L14_0_set_5, LBB14_5-LJTI14_0
.set L14_0_set_6, LBB14_6-LJTI14_0
.set L14_0_set_7, LBB14_7-LJTI14_0
.set L14_0_set_8, LBB14_8-LJTI14_0
.set L14_0_set_9, LBB14_9-LJTI14_0
.set L14_0_set_10, LBB14_10-LJTI14_0
.set L14_0_set_11, LBB14_11-LJTI14_0
.set L14_0_set_12, LBB14_12-LJTI14_0
LJTI14_0:
	.long	L14_0_set_27
	.long	L14_0_set_25
	.long	L14_0_set_3
	.long	L14_0_set_4
	.long	L14_0_set_5
	.long	L14_0_set_6
	.long	L14_0_set_7
	.long	L14_0_set_8
	.long	L14_0_set_9
	.long	L14_0_set_10
	.long	L14_0_set_11
	.long	L14_0_set_12
	.end_data_region

	.globl	__ZN92_$LT$getrandom..error..Error$u20$as$u20$core..convert..From$LT$core..num..NonZeroU32$GT$$GT$4from17h0f60e187a8487a3cE
	.p2align	4, 0x90
__ZN92_$LT$getrandom..error..Error$u20$as$u20$core..convert..From$LT$core..num..NonZeroU32$GT$$GT$4from17h0f60e187a8487a3cE:
Lfunc_begin15:
	.loc	8 123 0
	.cfi_startproc
	pushq	%rbp
	.cfi_def_cfa_offset 16
	.cfi_offset %rbp, -16
	movq	%rsp, %rbp
	.cfi_def_cfa_register %rbp
	movl	%edi, %eax
Ltmp198:
	.loc	8 125 6 prologue_end
	popq	%rbp
	retq
Ltmp199:
Lfunc_end15:
	.cfi_endproc

	.globl	__ZN9getrandom9getrandom17ha69ce59147feb2c1E
	.p2align	4, 0x90
__ZN9getrandom9getrandom17ha69ce59147feb2c1E:
Lfunc_begin16:
	.file	12 "/Users/yingyuhang/.cargo/registry/src/github.com-1ecc6299db9ec823/getrandom-0.1.14/src/lib.rs"
	.loc	12 277 0
	.cfi_startproc
	.cfi_personality 155, _rust_eh_personality
	.cfi_lsda 16, Lexception1
	pushq	%rbp
	.cfi_def_cfa_offset 16
	.cfi_offset %rbp, -16
	movq	%rsp, %rbp
	.cfi_def_cfa_register %rbp
Ltmp203:
	pushq	%r15
	pushq	%r14
	pushq	%r12
	pushq	%rbx
	subq	$112, %rsp
	.cfi_offset %rbx, -48
	.cfi_offset %r12, -40
	.cfi_offset %r14, -32
	.cfi_offset %r15, -24
	.loc	10 88 9 prologue_end
	testq	%rsi, %rsi
Ltmp204:
	.loc	12 278 5
	je	LBB16_16
Ltmp205:
	.loc	12 0 5 is_stmt 0
	movq	%rsi, %rbx
Ltmp206:
	movq	%rdi, %r14
Ltmp207:
	.file	13 "/rustc/6c8927b0cf80ceee19386026cf9d7fd4fd9d486f/src/libcore/sync/atomic.rs"
	.loc	13 2356 24 is_stmt 1
	movq	__ZN9getrandom3imp15getrandom_inner10GETENTROPY17h988f69102871d1c3E+16(%rip), %r15
Ltmp208:
	.file	14 "/Users/yingyuhang/.cargo/registry/src/github.com-1ecc6299db9ec823/getrandom-0.1.14/src/util.rs"
	.loc	14 45 12
	cmpq	$-1, %r15
Ltmp209:
	.loc	14 45 9 is_stmt 0
	je	LBB16_7
Ltmp210:
	.loc	2 18 12 is_stmt 1
	testq	%r15, %r15
	je	LBB16_8
Ltmp211:
	.p2align	4, 0x90
LBB16_3:
	.loc	10 88 9
	testq	%rbx, %rbx
Ltmp212:
	.loc	10 5042 9
	je	LBB16_16
Ltmp213:
	.file	15 "/rustc/6c8927b0cf80ceee19386026cf9d7fd4fd9d486f/src/libcore/cmp.rs"
	.loc	15 0 0 is_stmt 0
	cmpq	$256, %rbx
	movl	$256, %esi
	cmovbq	%rbx, %rsi
Ltmp214:
	.loc	10 1074 77 is_stmt 1
	subq	%rsi, %rbx
Ltmp215:
	.loc	2 21 32
	movq	%r14, %rdi
Ltmp216:
	.file	16 "/rustc/6c8927b0cf80ceee19386026cf9d7fd4fd9d486f/src/libcore/ptr/mut_ptr.rs"
	.loc	16 165 18
	addq	%rsi, %r14
Ltmp217:
	.loc	2 21 32
	callq	*%r15
Ltmp218:
	.loc	2 22 16
	testl	%eax, %eax
	.loc	2 22 13 is_stmt 0
	je	LBB16_3
Ltmp219:
	.file	17 "/Users/yingyuhang/.cargo/registry/src/github.com-1ecc6299db9ec823/getrandom-0.1.14/src/util_libc.rs"
	.loc	17 36 49 is_stmt 1
	callq	___error
Ltmp220:
	.loc	17 36 48 is_stmt 0
	movl	(%rax), %eax
Ltmp221:
	.loc	17 42 8 is_stmt 1
	testl	%eax, %eax
	movl	$-2147483647, %r15d
	.loc	17 42 5 is_stmt 0
	cmovgl	%eax, %r15d
	jmp	LBB16_17
Ltmp222:
LBB16_7:
	.loc	17 95 45 is_stmt 1
	movq	__ZN9getrandom3imp15getrandom_inner10GETENTROPY17h988f69102871d1c3E(%rip), %rsi
Ltmp223:
	.loc	17 95 13 is_stmt 0
	movq	$-2, %rdi
	callq	_dlsym
Ltmp224:
	movq	%rax, %r15
Ltmp225:
	.loc	13 2342 24 is_stmt 1
	movq	%rax, __ZN9getrandom3imp15getrandom_inner10GETENTROPY17h988f69102871d1c3E+16(%rip)
Ltmp226:
	.loc	2 18 12
	testq	%r15, %r15
	jne	LBB16_3
Ltmp227:
LBB16_8:
	.loc	13 2356 24
	movq	__ZN9getrandom8use_file10get_rng_fd2FD17ha5285d8f2b3f59e1E(%rip), %r15
Ltmp228:
	.loc	1 52 13
	cmpq	$-1, %r15
Ltmp229:
	.loc	1 58 12
	je	LBB16_18
Ltmp230:
LBB16_9:
	.loc	1 0 12 is_stmt 0
	movl	$-2147483647, %r12d
Ltmp231:
	jmp	LBB16_12
Ltmp232:
	.p2align	4, 0x90
LBB16_10:
	.loc	17 36 49 is_stmt 1
	callq	___error
Ltmp233:
	.loc	17 36 48 is_stmt 0
	movl	(%rax), %eax
Ltmp234:
	.loc	17 42 8 is_stmt 1
	testl	%eax, %eax
	.loc	17 42 5 is_stmt 0
	cmovlel	%r12d, %eax
Ltmp235:
	.loc	17 61 13 is_stmt 1
	cmpl	$4, %eax
	jne	LBB16_23
Ltmp236:
	.loc	10 88 9
	testq	%rbx, %rbx
Ltmp237:
	.loc	17 56 5
	je	LBB16_16
Ltmp238:
LBB16_12:
	.loc	1 32 42
	movl	%r15d, %edi
	movq	%r14, %rsi
	movq	%rbx, %rdx
	callq	_read
Ltmp239:
	.loc	17 58 12
	testq	%rax, %rax
	.loc	17 58 9 is_stmt 0
	js	LBB16_10
Ltmp240:
	.loc	10 3259 12 is_stmt 1
	movq	%rbx, %rcx
	subq	%rax, %rcx
	.loc	10 3259 9 is_stmt 0
	jb	LBB16_30
Ltmp241:
	.loc	16 165 18 is_stmt 1
	addq	%rax, %r14
Ltmp242:
	.loc	16 0 18 is_stmt 0
	movq	%rcx, %rbx
Ltmp243:
	.loc	10 88 9 is_stmt 1
	testq	%rbx, %rbx
Ltmp244:
	.loc	17 56 5
	jne	LBB16_12
Ltmp245:
LBB16_16:
	.loc	12 0 0 is_stmt 0
	xorl	%r15d, %r15d
LBB16_17:
	.loc	12 282 2 is_stmt 1
	movl	%r15d, %eax
	addq	$112, %rsp
	popq	%rbx
	popq	%r12
	popq	%r14
	popq	%r15
	popq	%rbp
	retq
LBB16_18:
Ltmp246:
	.loc	1 120 17
	leaq	__ZN9getrandom8use_file10get_rng_fd5MUTEX17h5b792ec88ab77fe2E(%rip), %rdi
	callq	_pthread_mutex_lock
	movl	%eax, -36(%rbp)
Ltmp247:
	.loc	1 121 9
	testl	%eax, %eax
Ltmp248:
	jne	LBB16_31
Ltmp249:
	.loc	13 2356 24
	movq	__ZN9getrandom8use_file10get_rng_fd2FD17ha5285d8f2b3f59e1E(%rip), %r15
Ltmp250:
	.loc	1 52 13
	cmpq	$-1, %r15
Ltmp251:
	.loc	1 68 12
	je	LBB16_25
Ltmp252:
	.loc	1 0 12 is_stmt 0
	xorl	%r12d, %r12d
Ltmp253:
LBB16_21:
	.loc	1 124 17 is_stmt 1
	leaq	__ZN9getrandom8use_file10get_rng_fd5MUTEX17h5b792ec88ab77fe2E(%rip), %rdi
	callq	_pthread_mutex_unlock
	movl	%eax, -36(%rbp)
Ltmp254:
	.loc	1 125 9
	testl	%eax, %eax
Ltmp255:
	jne	LBB16_28
Ltmp256:
	.loc	1 31 26
	testq	%r12, %r12
	jne	LBB16_17
	jmp	LBB16_9
Ltmp257:
LBB16_23:
	.loc	12 0 0 is_stmt 0
	movl	$0, %r15d
Ltmp258:
	.loc	17 61 13 is_stmt 1
	testl	%eax, %eax
	je	LBB16_17
Ltmp259:
	.loc	12 0 0 is_stmt 0
	movl	%eax, %r15d
Ltmp260:
	jmp	LBB16_17
Ltmp261:
LBB16_25:
	.file	18 "/rustc/6c8927b0cf80ceee19386026cf9d7fd4fd9d486f/src/libcore/option.rs"
	.loc	18 146 16 is_stmt 1
	leaq	l___unnamed_28(%rip), %rax
	testq	%rax, %rax
Ltmp262:
	je	LBB16_32
Ltmp263:
	.loc	17 112 14
	leaq	l___unnamed_29(%rip), %rdi
	movl	$16777216, %esi
	xorl	%eax, %eax
	callq	_open
Ltmp264:
	.loc	17 113 8
	testl	%eax, %eax
	.loc	17 113 5 is_stmt 0
	js	LBB16_29
Ltmp265:
	.loc	17 0 0
	movl	%eax, %r15d
Ltmp266:
	.loc	17 121 2 is_stmt 1
	movl	%eax, %eax
Ltmp267:
	.loc	13 2342 24
	movq	%rax, __ZN9getrandom8use_file10get_rng_fd2FD17ha5285d8f2b3f59e1E(%rip)
Ltmp268:
	.loc	1 124 17
	leaq	__ZN9getrandom8use_file10get_rng_fd5MUTEX17h5b792ec88ab77fe2E(%rip), %rdi
	callq	_pthread_mutex_unlock
Ltmp269:
	movl	%eax, -36(%rbp)
Ltmp270:
	.loc	1 125 9
	testl	%eax, %eax
Ltmp271:
	je	LBB16_9
Ltmp272:
LBB16_28:
	.loc	1 0 9 is_stmt 0
	leaq	-36(%rbp), %rax
	movq	%rax, -48(%rbp)
	leaq	L___unnamed_6(%rip), %rax
	movq	%rax, -56(%rbp)
	leaq	-48(%rbp), %rax
Ltmp273:
	movq	%rax, -88(%rbp)
	leaq	__ZN42_$LT$$RF$T$u20$as$u20$core..fmt..Debug$GT$3fmt17ha27003c72ced6869E(%rip), %rax
	movq	%rax, -80(%rbp)
	leaq	-56(%rbp), %rcx
	movq	%rcx, -72(%rbp)
	movq	%rax, -64(%rbp)
Ltmp274:
	leaq	l___unnamed_7(%rip), %rax
Ltmp275:
	movq	%rax, -136(%rbp)
	movq	$3, -128(%rbp)
	movq	$0, -120(%rbp)
	leaq	-88(%rbp), %rax
Ltmp276:
	movq	%rax, -104(%rbp)
	movq	$2, -96(%rbp)
	leaq	l___unnamed_8(%rip), %rsi
	leaq	-136(%rbp), %rdi
	callq	__ZN4core9panicking9panic_fmt17hfce5b7173905fc53E
Ltmp277:
LBB16_29:
	.loc	17 36 49 is_stmt 1
	callq	___error
Ltmp278:
	.loc	17 36 48 is_stmt 0
	movl	(%rax), %eax
Ltmp279:
	.loc	17 42 8 is_stmt 1
	testl	%eax, %eax
	movl	$-2147483647, %r15d
	.loc	17 42 5 is_stmt 0
	cmovgl	%eax, %r15d
	movl	$1, %r12d
	jmp	LBB16_21
Ltmp280:
LBB16_30:
	.loc	10 3260 13 is_stmt 1
	leaq	l___unnamed_30(%rip), %rdx
	movq	%rax, %rdi
	movq	%rbx, %rsi
	callq	__ZN4core5slice26slice_start_index_len_fail17h787e2f1bbfc1d2f3E
Ltmp281:
LBB16_31:
	.loc	10 0 13 is_stmt 0
	leaq	-36(%rbp), %rax
Ltmp282:
	.loc	1 121 9 is_stmt 1
	movq	%rax, -48(%rbp)
	leaq	L___unnamed_6(%rip), %rax
	movq	%rax, -56(%rbp)
	leaq	-48(%rbp), %rax
Ltmp283:
	.loc	1 121 9 is_stmt 0
	movq	%rax, -88(%rbp)
	leaq	__ZN42_$LT$$RF$T$u20$as$u20$core..fmt..Debug$GT$3fmt17ha27003c72ced6869E(%rip), %rax
	movq	%rax, -80(%rbp)
	leaq	-56(%rbp), %rcx
	movq	%rcx, -72(%rbp)
	movq	%rax, -64(%rbp)
Ltmp284:
	.loc	4 328 9 is_stmt 1
	leaq	l___unnamed_7(%rip), %rax
Ltmp285:
	movq	%rax, -136(%rbp)
	movq	$3, -128(%rbp)
	movq	$0, -120(%rbp)
	leaq	-88(%rbp), %rax
Ltmp286:
	movq	%rax, -104(%rbp)
	movq	$2, -96(%rbp)
Ltmp287:
	.loc	1 121 9
	leaq	l___unnamed_31(%rip), %rsi
	leaq	-136(%rbp), %rdi
	callq	__ZN4core9panicking9panic_fmt17hfce5b7173905fc53E
Ltmp288:
LBB16_32:
Ltmp200:
	.loc	17 111 5
	leaq	l___unnamed_32(%rip), %rdi
	leaq	l___unnamed_33(%rip), %rdx
	movl	$52, %esi
	callq	__ZN4core9panicking5panic17h383a6b80ea7021aaE
Ltmp201:
Ltmp289:
	ud2
Ltmp290:
LBB16_34:
Ltmp202:
	.loc	17 0 5 is_stmt 0
	movq	%rax, %rbx
Ltmp291:
	.loc	1 82 1 is_stmt 1
	callq	__ZN4core3ptr13drop_in_place17h459227c3cedd8efcE
	movq	%rbx, %rdi
	callq	__Unwind_Resume
	ud2
Ltmp292:
Lfunc_end16:
	.cfi_endproc
	.section	__TEXT,__gcc_except_tab
	.p2align	2
GCC_except_table16:
Lexception1:
	.byte	255
	.byte	255
	.byte	1
	.uleb128 Lcst_end1-Lcst_begin1
Lcst_begin1:
	.uleb128 Lfunc_begin16-Lfunc_begin16
	.uleb128 Ltmp200-Lfunc_begin16
	.byte	0
	.byte	0
	.uleb128 Ltmp200-Lfunc_begin16
	.uleb128 Ltmp201-Ltmp200
	.uleb128 Ltmp202-Lfunc_begin16
	.byte	0
	.uleb128 Ltmp201-Lfunc_begin16
	.uleb128 Lfunc_end16-Ltmp201
	.byte	0
	.byte	0
Lcst_end1:
	.p2align	2

	.section	__TEXT,__text,regular,pure_instructions
	.globl	__ZN9getrandom11error_impls102_$LT$impl$u20$core..convert..From$LT$std..io..error..Error$GT$$u20$for$u20$getrandom..error..Error$GT$4from17h873d920c7b4f7752E
	.p2align	4, 0x90
__ZN9getrandom11error_impls102_$LT$impl$u20$core..convert..From$LT$std..io..error..Error$GT$$u20$for$u20$getrandom..error..Error$GT$4from17h873d920c7b4f7752E:
Lfunc_begin17:
	.file	19 "/Users/yingyuhang/.cargo/registry/src/github.com-1ecc6299db9ec823/getrandom-0.1.14/src/error_impls.rs"
	.loc	19 16 0
	.cfi_startproc
	.cfi_personality 155, _rust_eh_personality
	.cfi_lsda 16, Lexception2
	pushq	%rbp
	.cfi_def_cfa_offset 16
	.cfi_offset %rbp, -16
	movq	%rsp, %rbp
	.cfi_def_cfa_register %rbp
	pushq	%r15
	pushq	%r14
	pushq	%r12
	pushq	%rbx
	.cfi_offset %rbx, -48
	.cfi_offset %r12, -40
	.cfi_offset %r14, -32
	.cfi_offset %r15, -24
	movq	%rdi, %r12
Ltmp293:
Ltmp302:
	.loc	19 17 30 prologue_end
	callq	__ZN3std2io5error5Error12raw_os_error17h2e03d9abad56699dE
Ltmp294:
Ltmp303:
	.loc	19 17 16 is_stmt 0
	cmpl	$1, %eax
	jne	LBB17_12
Ltmp304:
	.loc	19 0 0
	movl	%edx, %r14d
Ltmp305:
	.loc	19 18 20 is_stmt 1
	testl	%edx, %edx
	je	LBB17_12
Ltmp306:
	.loc	6 184 1
	cmpb	$2, (%r12)
	jb	LBB17_9
Ltmp307:
	.loc	6 184 1 is_stmt 0
	movq	8(%r12), %r15
Ltmp308:
	.loc	6 184 1
	movq	(%r15), %rdi
	movq	8(%r15), %rax
Ltmp296:
	callq	*(%rax)
Ltmp297:
Ltmp309:
	movq	8(%r15), %rax
Ltmp310:
	.loc	7 292 20 is_stmt 1
	movq	8(%rax), %rsi
Ltmp311:
	.loc	7 185 12
	testq	%rsi, %rsi
	.loc	7 185 9 is_stmt 0
	je	LBB17_8
Ltmp312:
	.loc	6 184 1 is_stmt 1
	movq	(%r15), %rdi
Ltmp313:
	.loc	6 0 1 is_stmt 0
	jmp	LBB17_7
Ltmp314:
LBB17_12:
	movl	$-2147483646, %r14d
Ltmp315:
	.loc	6 184 1
	cmpb	$2, (%r12)
	jb	LBB17_9
Ltmp316:
	.loc	6 184 1
	movq	8(%r12), %rbx
Ltmp317:
	.loc	6 184 1
	movq	(%rbx), %rdi
	movq	8(%rbx), %rax
Ltmp299:
	callq	*(%rax)
Ltmp300:
Ltmp318:
	movq	8(%rbx), %rax
Ltmp319:
	.loc	7 292 20 is_stmt 1
	movq	8(%rax), %rsi
Ltmp320:
	.loc	7 185 12
	testq	%rsi, %rsi
	.loc	7 185 9 is_stmt 0
	je	LBB17_8
Ltmp321:
	.loc	6 184 1 is_stmt 1
	movq	(%rbx), %rdi
Ltmp322:
LBB17_7:
	.loc	19 0 0 is_stmt 0
	movq	16(%rax), %rdx
Ltmp323:
	callq	___rust_dealloc
Ltmp324:
LBB17_8:
	movq	8(%r12), %rdi
Ltmp325:
	movl	$24, %esi
	movl	$8, %edx
	callq	___rust_dealloc
Ltmp326:
LBB17_9:
	.loc	19 23 6 is_stmt 1
	movl	%r14d, %eax
	popq	%rbx
	popq	%r12
Ltmp327:
	popq	%r14
	popq	%r15
	popq	%rbp
	retq
LBB17_10:
Ltmp328:
Ltmp298:
	.loc	19 0 6 is_stmt 0
	movq	%rax, %r14
Ltmp329:
	.loc	6 184 1 is_stmt 1
	movq	(%r15), %rdi
	movq	8(%r15), %rsi
	jmp	LBB17_11
Ltmp330:
LBB17_18:
Ltmp301:
	.loc	6 0 1 is_stmt 0
	movq	%rax, %r14
Ltmp331:
	.loc	6 184 1
	movq	(%rbx), %rdi
	movq	8(%rbx), %rsi
Ltmp332:
LBB17_11:
	.loc	19 0 0
	callq	__ZN5alloc5alloc8box_free17h828490e91fea60cdE
	movq	8(%r12), %rdi
	callq	__ZN5alloc5alloc8box_free17h18fecc539992d1ccE
	jmp	LBB17_17
Ltmp333:
LBB17_16:
Ltmp295:
	movq	%rax, %r14
	.loc	19 23 5 is_stmt 1
	movq	%r12, %rdi
	callq	__ZN4core3ptr13drop_in_place17h8ec51035746a3619E
Ltmp334:
LBB17_17:
	.loc	19 0 5 is_stmt 0
	movq	%r14, %rdi
	callq	__Unwind_Resume
	ud2
Lfunc_end17:
	.cfi_endproc
	.section	__TEXT,__gcc_except_tab
	.p2align	2
GCC_except_table17:
Lexception2:
	.byte	255
	.byte	255
	.byte	1
	.uleb128 Lcst_end2-Lcst_begin2
Lcst_begin2:
	.uleb128 Ltmp293-Lfunc_begin17
	.uleb128 Ltmp294-Ltmp293
	.uleb128 Ltmp295-Lfunc_begin17
	.byte	0
	.uleb128 Ltmp296-Lfunc_begin17
	.uleb128 Ltmp297-Ltmp296
	.uleb128 Ltmp298-Lfunc_begin17
	.byte	0
	.uleb128 Ltmp299-Lfunc_begin17
	.uleb128 Ltmp300-Ltmp299
	.uleb128 Ltmp301-Lfunc_begin17
	.byte	0
	.uleb128 Ltmp300-Lfunc_begin17
	.uleb128 Lfunc_end17-Ltmp300
	.byte	0
	.byte	0
Lcst_end2:
	.p2align	2

	.section	__TEXT,__text,regular,pure_instructions
	.globl	__ZN9getrandom11error_impls102_$LT$impl$u20$core..convert..From$LT$getrandom..error..Error$GT$$u20$for$u20$std..io..error..Error$GT$4from17haf2c814575ad4a8bE
	.p2align	4, 0x90
__ZN9getrandom11error_impls102_$LT$impl$u20$core..convert..From$LT$getrandom..error..Error$GT$$u20$for$u20$std..io..error..Error$GT$4from17haf2c814575ad4a8bE:
Lfunc_begin18:
	.loc	19 27 0 is_stmt 1
	.cfi_startproc
	pushq	%rbp
	.cfi_def_cfa_offset 16
	.cfi_offset %rbp, -16
	movq	%rsp, %rbp
	.cfi_def_cfa_register %rbp
	pushq	%r14
	pushq	%rbx
	.cfi_offset %rbx, -32
	.cfi_offset %r14, -24
	movl	%esi, %ebx
	movq	%rdi, %r14
Ltmp335:
	.loc	19 29 13 prologue_end
	testl	%esi, %esi
	js	LBB18_1
Ltmp336:
	.loc	19 29 28 is_stmt 0
	movq	%r14, %rdi
	movl	%ebx, %esi
	callq	__ZN3std2io5error5Error17from_raw_os_error17h511d755f55958c1eE
	jmp	LBB18_4
Ltmp337:
LBB18_1:
	.loc	7 80 14 is_stmt 1
	movl	$4, %edi
	movl	$4, %esi
	callq	___rust_alloc
Ltmp338:
	.loc	7 278 9
	testq	%rax, %rax
	je	LBB18_5
Ltmp339:
	.file	20 "/rustc/6c8927b0cf80ceee19386026cf9d7fd4fd9d486f/src/liballoc/boxed.rs"
	.loc	20 176 13
	movl	%ebx, (%rax)
Ltmp340:
	.file	21 "/rustc/6c8927b0cf80ceee19386026cf9d7fd4fd9d486f/src/libstd/io/error.rs"
	.loc	21 256 9
	leaq	l___unnamed_1(%rip), %rcx
	movq	%r14, %rdi
	movl	$16, %esi
	movq	%rax, %rdx
	callq	__ZN3std2io5error5Error4_new17hb256250a216f5df7E
Ltmp341:
LBB18_4:
	.loc	19 32 6
	movq	%r14, %rax
	popq	%rbx
Ltmp342:
	popq	%r14
	popq	%rbp
	retq
LBB18_5:
Ltmp343:
	.loc	7 279 19
	movl	$4, %edi
	movl	$4, %esi
	callq	__ZN5alloc5alloc18handle_alloc_error17h28974197717b8939E
Ltmp344:
Lfunc_end18:
	.cfi_endproc
	.file	22 "/rustc/6c8927b0cf80ceee19386026cf9d7fd4fd9d486f/src/libcore/convert/mod.rs"

	.section	__DATA,__const
	.p2align	3
l___unnamed_1:
	.quad	__ZN4core3ptr13drop_in_place17h3f0074eeeb848325E
	.quad	4
	.quad	4
	.quad	__ZN3std5error5Error5cause17h7884e20e2236ab64E
	.quad	__ZN3std5error5Error7type_id17hc0f0cfa527ed28c3E
	.quad	__ZN3std5error5Error9backtrace17h557602ec1afcb6ddE
	.quad	__ZN3std5error5Error11description17h8efcb851ee327af9E
	.quad	__ZN3std5error5Error5cause17h7884e20e2236ab64E
	.quad	__ZN62_$LT$getrandom..error..Error$u20$as$u20$core..fmt..Display$GT$3fmt17hee65f306fa090226E
	.quad	__ZN60_$LT$getrandom..error..Error$u20$as$u20$core..fmt..Debug$GT$3fmt17hb526f0ed84dc59d0E

	.section	__TEXT,__const
l___unnamed_5:
	.ascii	"description() is deprecated; use Display"

l___unnamed_9:
	.ascii	"Error"

l___unnamed_13:
	.ascii	"unknown_code"

	.section	__DATA,__const
	.p2align	3
l___unnamed_2:
	.quad	__ZN4core3ptr13drop_in_place17h3f0074eeeb848325E
	.quad	4
	.quad	4
	.quad	__ZN4core3fmt3num50_$LT$impl$u20$core..fmt..Debug$u20$for$u20$u32$GT$3fmt17h1ea6d626882ea7ffE

	.section	__TEXT,__const
l___unnamed_11:
	.ascii	"internal_code"

l___unnamed_12:
	.ascii	"description"

	.section	__DATA,__const
	.p2align	3
l___unnamed_3:
	.quad	__ZN4core3ptr13drop_in_place17h3f0074eeeb848325E
	.quad	16
	.quad	8
	.quad	__ZN42_$LT$$RF$T$u20$as$u20$core..fmt..Debug$GT$3fmt17h7861dfa610869e3fE

	.section	__TEXT,__literal8,8byte_literals
L___unnamed_10:
	.ascii	"os_error"

	.section	__DATA,__const
	.p2align	3
l___unnamed_4:
	.quad	__ZN4core3ptr13drop_in_place17h3f0074eeeb848325E
	.quad	4
	.quad	4
	.quad	__ZN4core3fmt3num50_$LT$impl$u20$core..fmt..Debug$u20$for$u20$i32$GT$3fmt17h98bc43ab4e1a9ca3E

	.section	__TEXT,__const
l___unnamed_34:
	.ascii	"Unknown Error: "

	.section	__DATA,__const
	.p2align	3
l___unnamed_17:
	.quad	l___unnamed_34
	.asciz	"\017\000\000\000\000\000\000"

	.section	__TEXT,__const
l___unnamed_35:
	.ascii	"OS Error: "

	.section	__DATA,__const
	.p2align	3
l___unnamed_14:
	.quad	l___unnamed_35
	.asciz	"\n\000\000\000\000\000\000"

	.section	__TEXT,__const
l___unnamed_27:
	.ascii	"randSecure: random number generator module is not initialized"

l___unnamed_26:
	.ascii	"stdweb: failed to get randomness"

l___unnamed_25:
	.ascii	"stdweb: no randomness source available"

l___unnamed_24:
	.ascii	"wasm-bindgen: crypto.getRandomValues is undefined"

l___unnamed_23:
	.ascii	"wasm-bindgen: self.crypto is undefined"

l___unnamed_22:
	.ascii	"RDRAND: instruction not supported"

l___unnamed_21:
	.ascii	"RDRAND: failed multiple times: CPU issue likely"

l___unnamed_20:
	.ascii	"RtlGenRandom: call failed"

l___unnamed_19:
	.ascii	"SecRandomCopyBytes: call failed"

l___unnamed_18:
	.ascii	"Unknown std::io::Error"

l___unnamed_16:
	.ascii	"errno: did not return a positive value"

l___unnamed_15:
	.ascii	"getrandom: this target is not supported"

l___unnamed_29:
	.asciz	"/dev/random"

l___unnamed_36:
	.ascii	"/Users/yingyuhang/.cargo/registry/src/github.com-1ecc6299db9ec823/getrandom-0.1.14/src/use_file.rs"

	.section	__DATA,__data
	.p2align	3
__ZN9getrandom8use_file10get_rng_fd2FD17ha5285d8f2b3f59e1E:
	.space	8,255

	.p2align	3
__ZN9getrandom8use_file10get_rng_fd5MUTEX17h5b792ec88ab77fe2E:
	.asciz	"\247\253\2522\000\000\000\000\000\000\000\000\000\000\000\000\000\000\000\000\000\000\000\000\000\000\000\000\000\000\000\000\000\000\000\000\000\000\000\000\000\000\000\000\000\000\000\000\000\000\000\000\000\000\000\000\000\000\000\000\000\000\000"

	.section	__TEXT,__literal4,4byte_literals
	.p2align	2
L___unnamed_6:
	.space	4

	.section	__TEXT,__const
l___unnamed_37:
	.ascii	"assertion failed: `(left == right)`\n  left: `"

l___unnamed_38:
	.ascii	"`,\n right: `"

l___unnamed_39:
	.byte	96

	.section	__DATA,__const
	.p2align	3
l___unnamed_7:
	.quad	l___unnamed_37
	.asciz	"-\000\000\000\000\000\000"
	.quad	l___unnamed_38
	.asciz	"\f\000\000\000\000\000\000"
	.quad	l___unnamed_39
	.asciz	"\001\000\000\000\000\000\000"

	.p2align	3
l___unnamed_31:
	.quad	l___unnamed_36
	.asciz	"b\000\000\000\000\000\000\000y\000\000\000\t\000\000"

	.p2align	3
l___unnamed_8:
	.quad	l___unnamed_36
	.asciz	"b\000\000\000\000\000\000\000}\000\000\000\t\000\000"

	.section	__TEXT,__const
l___unnamed_40:
	.ascii	"/Users/yingyuhang/.cargo/registry/src/github.com-1ecc6299db9ec823/getrandom-0.1.14/src/util_libc.rs"

	.section	__DATA,__const
	.p2align	3
l___unnamed_30:
	.quad	l___unnamed_40
	.asciz	"c\000\000\000\000\000\000\000C\000\000\000\030\000\000"

	.section	__TEXT,__const
l___unnamed_28:
	.space	1

l___unnamed_32:
	.ascii	"assertion failed: path.as_bytes().last() == Some(&0)"

	.section	__DATA,__const
	.p2align	3
l___unnamed_33:
	.quad	l___unnamed_40
	.asciz	"c\000\000\000\000\000\000\000o\000\000\000\005\000\000"

	.section	__TEXT,__const
l___unnamed_41:
	.asciz	"getentropy"

	.section	__DATA,__data
	.p2align	3
__ZN9getrandom3imp15getrandom_inner10GETENTROPY17h988f69102871d1c3E:
	.quad	l___unnamed_41
	.ascii	"\013\000\000\000\000\000\000\000\377\377\377\377\377\377\377\377"

	.section	__TEXT,__const
	.p2align	3
l_switch.table._ZN60_$LT$getrandom..error..Error$u20$as$u20$core..fmt..Debug$GT$3fmt17hb526f0ed84dc59d0E:
	.quad	39
	.quad	38
	.quad	22
	.quad	31
	.quad	25
	.quad	47
	.quad	33
	.quad	38
	.quad	49
	.quad	38
	.quad	32
	.quad	61

	.section	__DATA,__const
	.p2align	3
l_switch.table._ZN60_$LT$getrandom..error..Error$u20$as$u20$core..fmt..Debug$GT$3fmt17hb526f0ed84dc59d0E.20:
	.quad	l___unnamed_15
	.quad	l___unnamed_16
	.quad	l___unnamed_18
	.quad	l___unnamed_19
	.quad	l___unnamed_20
	.quad	l___unnamed_21
	.quad	l___unnamed_22
	.quad	l___unnamed_23
	.quad	l___unnamed_24
	.quad	l___unnamed_25
	.quad	l___unnamed_26
	.quad	l___unnamed_27

	.section	__DATA,__const
Lsec_end0:
	.section	__DATA,__data
Lsec_end1:
	.section	__TEXT,__text,regular,pure_instructions
Lsec_end2: