	.section	__TEXT,__text,regular,pure_instructions
	.macosx_version_min 10, 7
	.p2align	4, 0x90
__ZN42_$LT$$RF$T$u20$as$u20$core..fmt..Debug$GT$3fmt17h00d2dfd148e23eb7E:
Lfunc_begin0:
	.file	1 "/rustc/a74d1862d4d87a56244958416fd05976c58ca1a8/src/libcore/fmt/mod.rs"
	.loc	1 1973 0
	.cfi_startproc
	pushq	%rbp
	.cfi_def_cfa_offset 16
	.cfi_offset %rbp, -16
	movq	%rsp, %rbp
	.cfi_def_cfa_register %rbp
Ltmp0:
	pushq	%r14
	pushq	%rbx
	subq	$32, %rsp
	.cfi_offset %rbx, -32
	.cfi_offset %r14, -24
	.loc	1 1973 71 prologue_end
	movq	(%rdi), %rbx
Ltmp1:
	.file	2 "/Users/yingyuhang/.cargo/registry/src/github.com-1ecc6299db9ec823/gimli-0.22.0/src/constants.rs"
	.loc	2 61 18
	leaq	l___unnamed_38(%rip), %rdx
	leaq	-48(%rbp), %r14
	movl	$6, %ecx
	movq	%r14, %rdi
Ltmp2:
	callq	__ZN4core3fmt9Formatter11debug_tuple17h15ca25ad759edd1cE
Ltmp3:
	.loc	2 62 33
	movq	%rbx, -24(%rbp)
	.loc	2 61 18
	leaq	l___unnamed_9(%rip), %rdx
	leaq	-24(%rbp), %rsi
	movq	%r14, %rdi
	callq	__ZN4core3fmt8builders10DebugTuple5field17hf36121153a94f236E
	movq	%r14, %rdi
	callq	__ZN4core3fmt8builders10DebugTuple6finish17h68acf09c6f6593f2E
Ltmp4:
	.loc	1 1973 84
	addq	$32, %rsp
	popq	%rbx
	popq	%r14
	popq	%rbp
	retq
Ltmp5:
Lfunc_end0:
	.cfi_endproc

	.p2align	4, 0x90
__ZN42_$LT$$RF$T$u20$as$u20$core..fmt..Debug$GT$3fmt17h03d80cd8eb090454E:
Lfunc_begin1:
	.loc	1 1973 0
	.cfi_startproc
	pushq	%rbp
	.cfi_def_cfa_offset 16
	.cfi_offset %rbp, -16
	movq	%rsp, %rbp
	.cfi_def_cfa_register %rbp
Ltmp6:
	pushq	%r14
	pushq	%rbx
	subq	$32, %rsp
	.cfi_offset %rbx, -32
	.cfi_offset %r14, -24
	.loc	1 1973 71 prologue_end
	movq	(%rdi), %rax
Ltmp7:
	.file	3 "/Users/yingyuhang/.cargo/registry/src/github.com-1ecc6299db9ec823/gimli-0.22.0/src/read/cfi.rs"
	.loc	3 3278 23
	cmpq	$1, (%rax)
	.loc	3 0 0 is_stmt 0
	leaq	8(%rax), %r14
	leaq	-48(%rbp), %rbx
Ltmp8:
	.loc	3 3278 23
	jne	LBB1_2
Ltmp9:
	.loc	3 3278 23
	leaq	L___unnamed_39(%rip), %rdx
	movl	$8, %ecx
	jmp	LBB1_3
Ltmp10:
LBB1_2:
	.loc	3 3278 23
	leaq	l___unnamed_40(%rip), %rdx
	movl	$6, %ecx
Ltmp11:
LBB1_3:
	.loc	3 0 0
	movq	%rbx, %rdi
Ltmp12:
	callq	__ZN4core3fmt9Formatter11debug_tuple17h15ca25ad759edd1cE
Ltmp13:
	leaq	-24(%rbp), %rsi
	movq	%r14, -24(%rbp)
	leaq	l___unnamed_1(%rip), %rdx
	movq	%rbx, %rdi
	callq	__ZN4core3fmt8builders10DebugTuple5field17hf36121153a94f236E
	movq	%rbx, %rdi
	callq	__ZN4core3fmt8builders10DebugTuple6finish17h68acf09c6f6593f2E
Ltmp14:
	.loc	1 1973 84 is_stmt 1
	addq	$32, %rsp
	popq	%rbx
	popq	%r14
	popq	%rbp
	retq
Ltmp15:
Lfunc_end1:
	.cfi_endproc

	.p2align	4, 0x90
__ZN42_$LT$$RF$T$u20$as$u20$core..fmt..Debug$GT$3fmt17h0c077572a300e1fdE:
Lfunc_begin2:
	.loc	1 1973 0
	.cfi_startproc
	pushq	%rbp
	.cfi_def_cfa_offset 16
	.cfi_offset %rbp, -16
	movq	%rsp, %rbp
	.cfi_def_cfa_register %rbp
Ltmp16:
	pushq	%r14
	pushq	%rbx
	subq	$32, %rsp
	.cfi_offset %rbx, -32
	.cfi_offset %r14, -24
	.loc	1 1973 71 prologue_end
	movq	(%rdi), %rbx
Ltmp17:
	.file	4 "/rustc/a74d1862d4d87a56244958416fd05976c58ca1a8/src/libcore/option.rs"
	.loc	4 151 48
	cmpb	$1, (%rbx)
	jne	LBB2_2
Ltmp18:
	.loc	4 160 56
	incq	%rbx
Ltmp19:
	.loc	4 0 56 is_stmt 0
	leaq	-48(%rbp), %r14
Ltmp20:
	.loc	4 151 48 is_stmt 1
	leaq	L___unnamed_41(%rip), %rdx
	movl	$4, %ecx
	movq	%r14, %rdi
Ltmp21:
	callq	__ZN4core3fmt9Formatter11debug_tuple17h15ca25ad759edd1cE
Ltmp22:
	.loc	4 160 56
	movq	%rbx, -24(%rbp)
	.loc	4 151 48
	leaq	l___unnamed_4(%rip), %rdx
	leaq	-24(%rbp), %rsi
	movq	%r14, %rdi
	callq	__ZN4core3fmt8builders10DebugTuple5field17hf36121153a94f236E
	jmp	LBB2_3
Ltmp23:
LBB2_2:
	.loc	4 0 48 is_stmt 0
	leaq	-48(%rbp), %r14
Ltmp24:
	.loc	4 151 48
	leaq	L___unnamed_42(%rip), %rdx
	movl	$4, %ecx
	movq	%r14, %rdi
Ltmp25:
	callq	__ZN4core3fmt9Formatter11debug_tuple17h15ca25ad759edd1cE
Ltmp26:
LBB2_3:
	.loc	4 0 0
	movq	%r14, %rdi
	callq	__ZN4core3fmt8builders10DebugTuple6finish17h68acf09c6f6593f2E
Ltmp27:
	.loc	1 1973 84 is_stmt 1
	addq	$32, %rsp
	popq	%rbx
	popq	%r14
	popq	%rbp
	retq
Ltmp28:
Lfunc_end2:
	.cfi_endproc

	.p2align	4, 0x90
__ZN42_$LT$$RF$T$u20$as$u20$core..fmt..Debug$GT$3fmt17h0e326b5b74c5cd2aE:
Lfunc_begin3:
	.loc	1 1973 0
	.cfi_startproc
	pushq	%rbp
	.cfi_def_cfa_offset 16
	.cfi_offset %rbp, -16
	movq	%rsp, %rbp
	.cfi_def_cfa_register %rbp
	pushq	%r14
	pushq	%rbx
	.cfi_offset %rbx, -32
	.cfi_offset %r14, -24
	movq	%rsi, %rbx
Ltmp29:
	.loc	1 1973 71 prologue_end
	movq	(%rdi), %r14
Ltmp30:
	.file	5 "/rustc/a74d1862d4d87a56244958416fd05976c58ca1a8/src/libcore/fmt/num.rs"
	.loc	5 149 20
	movq	%rsi, %rdi
Ltmp31:
	callq	__ZN4core3fmt9Formatter15debug_lower_hex17h8530fbaeba13f4d9E
	.loc	5 149 17 is_stmt 0
	testb	%al, %al
	je	LBB3_1
Ltmp32:
	.loc	5 150 21 is_stmt 1
	movq	%r14, %rdi
	movq	%rbx, %rsi
	popq	%rbx
Ltmp33:
	popq	%r14
Ltmp34:
	popq	%rbp
	jmp	__ZN4core3fmt3num53_$LT$impl$u20$core..fmt..LowerHex$u20$for$u20$i64$GT$3fmt17ha8bb237a95553570E
LBB3_1:
Ltmp35:
	.loc	5 151 27
	movq	%rbx, %rdi
	callq	__ZN4core3fmt9Formatter15debug_upper_hex17hf8fda15ec43a1e68E
	.loc	5 154 21
	movq	%r14, %rdi
	movq	%rbx, %rsi
	.loc	5 151 24
	testb	%al, %al
	je	LBB3_4
Ltmp36:
	.loc	5 152 21
	popq	%rbx
Ltmp37:
	popq	%r14
Ltmp38:
	popq	%rbp
	jmp	__ZN4core3fmt3num53_$LT$impl$u20$core..fmt..UpperHex$u20$for$u20$i64$GT$3fmt17h13194bd83ca37803E
LBB3_4:
Ltmp39:
	.loc	5 154 21
	popq	%rbx
Ltmp40:
	popq	%r14
Ltmp41:
	popq	%rbp
	jmp	__ZN4core3fmt3num3imp52_$LT$impl$u20$core..fmt..Display$u20$for$u20$i64$GT$3fmt17h6a5170735d6294a5E
Ltmp42:
Lfunc_end3:
	.cfi_endproc

	.p2align	4, 0x90
__ZN42_$LT$$RF$T$u20$as$u20$core..fmt..Debug$GT$3fmt17h14a5435935be5f6eE:
Lfunc_begin4:
	.loc	1 1973 0
	.cfi_startproc
	pushq	%rbp
	.cfi_def_cfa_offset 16
	.cfi_offset %rbp, -16
	movq	%rsp, %rbp
	.cfi_def_cfa_register %rbp
Ltmp43:
	pushq	%r15
	pushq	%r14
	pushq	%r13
	pushq	%r12
	pushq	%rbx
	subq	$24, %rsp
	.cfi_offset %rbx, -56
	.cfi_offset %r12, -48
	.cfi_offset %r13, -40
	.cfi_offset %r14, -32
	.cfi_offset %r15, -24
	.loc	1 1973 71 prologue_end
	movq	(%rdi), %rax
Ltmp44:
	.file	6 "/Users/yingyuhang/.cargo/registry/src/github.com-1ecc6299db9ec823/gimli-0.22.0/src/read/abbrev.rs"
	.loc	6 348 13
	cmpq	$1, (%rax)
	jne	LBB4_2
Ltmp45:
	.file	7 "/rustc/a74d1862d4d87a56244958416fd05976c58ca1a8/src/liballoc/vec.rs"
	.loc	7 814 19
	movq	8(%rax), %rbx
Ltmp46:
	.loc	7 1966 55
	movq	24(%rax), %r13
Ltmp47:
	.loc	7 0 55 is_stmt 0
	leaq	-64(%rbp), %rdi
Ltmp48:
	.loc	1 2162 9 is_stmt 1
	callq	__ZN4core3fmt9Formatter10debug_list17hd054f0986422feb9E
Ltmp49:
	.file	8 "/rustc/a74d1862d4d87a56244958416fd05976c58ca1a8/src/libcore/slice/mod.rs"
	.loc	8 3179 9
	testq	%r13, %r13
	.loc	8 3303 21
	jne	LBB4_5
	jmp	LBB4_7
Ltmp50:
LBB4_2:
	.loc	6 348 55
	movq	88(%rax), %r13
Ltmp51:
	.loc	8 2918 19
	cmpq	$6, %r13
	.loc	8 2918 16 is_stmt 0
	jae	LBB4_8
Ltmp52:
	.loc	6 0 0
	addq	$8, %rax
Ltmp53:
	movq	%rax, %rbx
Ltmp54:
	leaq	-64(%rbp), %rdi
Ltmp55:
	.loc	1 2162 9 is_stmt 1
	callq	__ZN4core3fmt9Formatter10debug_list17hd054f0986422feb9E
Ltmp56:
	.loc	8 3179 9
	testq	%r13, %r13
	.loc	8 3303 21
	je	LBB4_7
Ltmp57:
LBB4_5:
	shlq	$4, %r13
Ltmp58:
	.loc	8 0 21 is_stmt 0
	leaq	l___unnamed_3(%rip), %r14
	leaq	-64(%rbp), %r15
	leaq	-48(%rbp), %r12
Ltmp59:
	.p2align	4, 0x90
LBB4_6:
	.file	9 "/rustc/a74d1862d4d87a56244958416fd05976c58ca1a8/src/libcore/fmt/builders.rs"
	.loc	9 661 22 is_stmt 1
	movq	%rbx, -48(%rbp)
Ltmp60:
	.file	10 "/rustc/a74d1862d4d87a56244958416fd05976c58ca1a8/src/libcore/ptr/non_null.rs"
	.loc	10 90 9
	addq	$16, %rbx
Ltmp61:
	.loc	9 662 13
	movq	%r15, %rdi
	movq	%r12, %rsi
	movq	%r14, %rdx
	callq	__ZN4core3fmt8builders9DebugList5entry17h5c0dec54538196dfE
Ltmp62:
	.loc	8 3179 9
	addq	$-16, %r13
	.loc	8 3303 21
	jne	LBB4_6
Ltmp63:
LBB4_7:
	.loc	8 0 21 is_stmt 0
	leaq	-64(%rbp), %rdi
	.loc	1 2162 9 is_stmt 1
	callq	__ZN4core3fmt8builders9DebugList6finish17h3635bd6af9b1c5a6E
Ltmp64:
	.loc	1 1973 84
	addq	$24, %rsp
	popq	%rbx
	popq	%r12
	popq	%r13
	popq	%r14
	popq	%r15
	popq	%rbp
	retq
LBB4_8:
Ltmp65:
	.loc	8 2919 13
	leaq	l___unnamed_43(%rip), %rdx
	movl	$5, %esi
Ltmp66:
	movq	%r13, %rdi
Ltmp67:
	callq	__ZN4core5slice20slice_index_len_fail17h550a313151a85135E
Ltmp68:
Lfunc_end4:
	.cfi_endproc

	.p2align	4, 0x90
__ZN42_$LT$$RF$T$u20$as$u20$core..fmt..Debug$GT$3fmt17h241d098ae97ee540E:
Lfunc_begin5:
	.loc	1 1973 0
	.cfi_startproc
	pushq	%rbp
	.cfi_def_cfa_offset 16
	.cfi_offset %rbp, -16
	movq	%rsp, %rbp
	.cfi_def_cfa_register %rbp
Ltmp69:
	pushq	%r14
	pushq	%rbx
	subq	$32, %rsp
	.cfi_offset %rbx, -32
	.cfi_offset %r14, -24
	.loc	1 1973 71 prologue_end
	movq	(%rdi), %rbx
Ltmp70:
	.file	11 "/Users/yingyuhang/.cargo/registry/src/github.com-1ecc6299db9ec823/gimli-0.22.0/src/read/reader.rs"
	.loc	11 16 10
	leaq	l___unnamed_44(%rip), %rdx
	leaq	-48(%rbp), %r14
	movl	$14, %ecx
	movq	%r14, %rdi
Ltmp71:
	callq	__ZN4core3fmt9Formatter11debug_tuple17h15ca25ad759edd1cE
Ltmp72:
	.loc	11 17 27
	movq	%rbx, -24(%rbp)
	.loc	11 16 10
	leaq	l___unnamed_1(%rip), %rdx
	leaq	-24(%rbp), %rsi
	movq	%r14, %rdi
	callq	__ZN4core3fmt8builders10DebugTuple5field17hf36121153a94f236E
	movq	%r14, %rdi
	callq	__ZN4core3fmt8builders10DebugTuple6finish17h68acf09c6f6593f2E
Ltmp73:
	.loc	1 1973 84
	addq	$32, %rsp
	popq	%rbx
	popq	%r14
	popq	%rbp
	retq
Ltmp74:
Lfunc_end5:
	.cfi_endproc

	.p2align	4, 0x90
__ZN42_$LT$$RF$T$u20$as$u20$core..fmt..Debug$GT$3fmt17h2608852ec91f1164E:
Lfunc_begin6:
	.loc	1 1973 0
	.cfi_startproc
	pushq	%rbp
	.cfi_def_cfa_offset 16
	.cfi_offset %rbp, -16
	movq	%rsp, %rbp
	.cfi_def_cfa_register %rbp
	pushq	%r14
	pushq	%rbx
	.cfi_offset %rbx, -32
	.cfi_offset %r14, -24
	movq	%rsi, %rbx
Ltmp75:
	.loc	1 1973 71 prologue_end
	movq	(%rdi), %r14
Ltmp76:
	.loc	5 149 20
	movq	%rsi, %rdi
Ltmp77:
	callq	__ZN4core3fmt9Formatter15debug_lower_hex17h8530fbaeba13f4d9E
	.loc	5 149 17 is_stmt 0
	testb	%al, %al
	je	LBB6_1
Ltmp78:
	.loc	5 150 21 is_stmt 1
	movq	%r14, %rdi
	movq	%rbx, %rsi
	popq	%rbx
Ltmp79:
	popq	%r14
Ltmp80:
	popq	%rbp
	jmp	__ZN4core3fmt3num53_$LT$impl$u20$core..fmt..LowerHex$u20$for$u20$i16$GT$3fmt17h3f851141fadcf5dbE
LBB6_1:
Ltmp81:
	.loc	5 151 27
	movq	%rbx, %rdi
	callq	__ZN4core3fmt9Formatter15debug_upper_hex17hf8fda15ec43a1e68E
	.loc	5 154 21
	movq	%r14, %rdi
	movq	%rbx, %rsi
	.loc	5 151 24
	testb	%al, %al
	je	LBB6_4
Ltmp82:
	.loc	5 152 21
	popq	%rbx
Ltmp83:
	popq	%r14
Ltmp84:
	popq	%rbp
	jmp	__ZN4core3fmt3num53_$LT$impl$u20$core..fmt..UpperHex$u20$for$u20$i16$GT$3fmt17h68fce712c402f58aE
LBB6_4:
Ltmp85:
	.loc	5 154 21
	popq	%rbx
Ltmp86:
	popq	%r14
Ltmp87:
	popq	%rbp
	jmp	__ZN4core3fmt3num3imp52_$LT$impl$u20$core..fmt..Display$u20$for$u20$i16$GT$3fmt17h3a2fa6e453c65d3eE
Ltmp88:
Lfunc_end6:
	.cfi_endproc

	.p2align	4, 0x90
__ZN42_$LT$$RF$T$u20$as$u20$core..fmt..Debug$GT$3fmt17h2962bf203ec26b3fE:
Lfunc_begin7:
	.loc	1 1973 0
	.cfi_startproc
	pushq	%rbp
	.cfi_def_cfa_offset 16
	.cfi_offset %rbp, -16
	movq	%rsp, %rbp
	.cfi_def_cfa_register %rbp
Ltmp89:
	pushq	%r14
	pushq	%rbx
	subq	$32, %rsp
	.cfi_offset %rbx, -32
	.cfi_offset %r14, -24
	.loc	1 1973 71 prologue_end
	movq	(%rdi), %rbx
Ltmp90:
	.loc	2 61 18
	leaq	L___unnamed_45(%rip), %rdx
	leaq	-48(%rbp), %r14
	movl	$4, %ecx
	movq	%r14, %rdi
Ltmp91:
	callq	__ZN4core3fmt9Formatter11debug_tuple17h15ca25ad759edd1cE
Ltmp92:
	.loc	2 62 33
	movq	%rbx, -24(%rbp)
	.loc	2 61 18
	leaq	l___unnamed_7(%rip), %rdx
	leaq	-24(%rbp), %rsi
	movq	%r14, %rdi
	callq	__ZN4core3fmt8builders10DebugTuple5field17hf36121153a94f236E
	movq	%r14, %rdi
	callq	__ZN4core3fmt8builders10DebugTuple6finish17h68acf09c6f6593f2E
Ltmp93:
	.loc	1 1973 84
	addq	$32, %rsp
	popq	%rbx
	popq	%r14
	popq	%rbp
	retq
Ltmp94:
Lfunc_end7:
	.cfi_endproc

	.p2align	4, 0x90
__ZN42_$LT$$RF$T$u20$as$u20$core..fmt..Debug$GT$3fmt17h374482e467980b13E:
Lfunc_begin8:
	.loc	1 1973 0
	.cfi_startproc
	pushq	%rbp
	.cfi_def_cfa_offset 16
	.cfi_offset %rbp, -16
	movq	%rsp, %rbp
	.cfi_def_cfa_register %rbp
Ltmp95:
	pushq	%rbx
	subq	$24, %rsp
	.cfi_offset %rbx, -24
	.loc	1 1973 71 prologue_end
	movq	(%rdi), %rax
Ltmp96:
	.file	12 "/Users/yingyuhang/.cargo/registry/src/github.com-1ecc6299db9ec823/gimli-0.22.0/src/common.rs"
	.loc	12 2 10
	cmpb	$8, (%rax)
	jne	LBB8_1
Ltmp97:
	.loc	12 0 10 is_stmt 0
	leaq	-32(%rbp), %rbx
Ltmp98:
	.loc	12 2 10
	leaq	l___unnamed_46(%rip), %rdx
	jmp	LBB8_3
Ltmp99:
LBB8_1:
	.loc	12 0 10
	leaq	-32(%rbp), %rbx
Ltmp100:
	.loc	12 2 10
	leaq	l___unnamed_47(%rip), %rdx
Ltmp101:
LBB8_3:
	movl	$7, %ecx
	movq	%rbx, %rdi
Ltmp102:
	callq	__ZN4core3fmt9Formatter11debug_tuple17h15ca25ad759edd1cE
Ltmp103:
	.loc	12 0 0
	movq	%rbx, %rdi
	callq	__ZN4core3fmt8builders10DebugTuple6finish17h68acf09c6f6593f2E
Ltmp104:
	.loc	1 1973 84 is_stmt 1
	addq	$24, %rsp
	popq	%rbx
	popq	%rbp
	retq
Ltmp105:
Lfunc_end8:
	.cfi_endproc

	.p2align	4, 0x90
__ZN42_$LT$$RF$T$u20$as$u20$core..fmt..Debug$GT$3fmt17h3a82624a7f11f912E:
Lfunc_begin9:
	.loc	1 1973 0
	.cfi_startproc
	pushq	%rbp
	.cfi_def_cfa_offset 16
	.cfi_offset %rbp, -16
	movq	%rsp, %rbp
	.cfi_def_cfa_register %rbp
Ltmp106:
	pushq	%r15
	pushq	%r14
	pushq	%r12
	pushq	%rbx
	subq	$32, %rsp
	.cfi_offset %rbx, -48
	.cfi_offset %r12, -40
	.cfi_offset %r14, -32
	.cfi_offset %r15, -24
	.loc	1 1973 71 prologue_end
	movq	(%rdi), %rbx
Ltmp107:
	.loc	3 813 26
	leaq	l___unnamed_48(%rip), %rdx
	leaq	-56(%rbp), %r15
	movl	$20, %ecx
	movq	%r15, %rdi
Ltmp108:
	callq	__ZN4core3fmt9Formatter12debug_struct17h985c0158d1fc7193E
Ltmp109:
	.loc	3 816 5
	movq	%rbx, -40(%rbp)
Ltmp110:
	.loc	3 820 5
	leaq	16(%rbx), %r12
	.loc	3 829 5
	addq	$32, %rbx
Ltmp111:
	.loc	3 813 26
	leaq	l___unnamed_49(%rip), %rsi
	leaq	l___unnamed_13(%rip), %r14
	leaq	-40(%rbp), %rcx
	movl	$7, %edx
	movq	%r15, %rdi
	movq	%r14, %r8
	callq	__ZN4core3fmt8builders11DebugStruct5field17h9c15dc155278eed2E
	.loc	3 820 5
	movq	%r12, -40(%rbp)
	.loc	3 813 26
	leaq	L___unnamed_50(%rip), %rsi
	leaq	-40(%rbp), %rcx
	movl	$4, %edx
	movq	%r15, %rdi
	movq	%r14, %r8
	callq	__ZN4core3fmt8builders11DebugStruct5field17h9c15dc155278eed2E
	.loc	3 829 5
	movq	%rbx, -40(%rbp)
	.loc	3 813 26
	leaq	L___unnamed_51(%rip), %rsi
	leaq	-40(%rbp), %rcx
	movl	$4, %edx
	movq	%r15, %rdi
	movq	%r14, %r8
	callq	__ZN4core3fmt8builders11DebugStruct5field17h9c15dc155278eed2E
	movq	%r15, %rdi
	callq	__ZN4core3fmt8builders11DebugStruct6finish17h26808393f3fed630E
Ltmp112:
	.loc	1 1973 84
	addq	$32, %rsp
	popq	%rbx
	popq	%r12
	popq	%r14
	popq	%r15
	popq	%rbp
	retq
Ltmp113:
Lfunc_end9:
	.cfi_endproc
	.file	13 "/Users/yingyuhang/.cargo/registry/src/github.com-1ecc6299db9ec823/gimli-0.22.0/src/lib.rs"

	.p2align	4, 0x90
__ZN42_$LT$$RF$T$u20$as$u20$core..fmt..Debug$GT$3fmt17h3c203a7ea76b5768E:
Lfunc_begin10:
	.loc	1 1973 0
	.cfi_startproc
	pushq	%rbp
	.cfi_def_cfa_offset 16
	.cfi_offset %rbp, -16
	movq	%rsp, %rbp
	.cfi_def_cfa_register %rbp
Ltmp114:
	pushq	%r14
	pushq	%rbx
	subq	$48, %rsp
	.cfi_offset %rbx, -32
	.cfi_offset %r14, -24
	.loc	1 1973 71 prologue_end
	movq	(%rdi), %rbx
Ltmp115:
	.loc	1 2139 35
	leaq	l___unnamed_52(%rip), %rdx
	leaq	-56(%rbp), %r14
	movq	%r14, %rdi
Ltmp116:
	xorl	%ecx, %ecx
	callq	__ZN4core3fmt9Formatter11debug_tuple17h15ca25ad759edd1cE
Ltmp117:
	.loc	1 2140 24
	movq	%rbx, -24(%rbp)
	addq	$8, %rbx
Ltmp118:
	movq	%rbx, -32(%rbp)
Ltmp119:
	.loc	1 2142 21
	leaq	l___unnamed_4(%rip), %rdx
	leaq	-24(%rbp), %rsi
	movq	%r14, %rdi
	callq	__ZN4core3fmt8builders10DebugTuple5field17hf36121153a94f236E
	leaq	l___unnamed_5(%rip), %rdx
	leaq	-32(%rbp), %rsi
	movq	%r14, %rdi
	callq	__ZN4core3fmt8builders10DebugTuple5field17hf36121153a94f236E
	.loc	1 2145 17
	movq	%r14, %rdi
	callq	__ZN4core3fmt8builders10DebugTuple6finish17h68acf09c6f6593f2E
Ltmp120:
	.loc	1 1973 84
	addq	$48, %rsp
	popq	%rbx
Ltmp121:
	popq	%r14
	popq	%rbp
	retq
Ltmp122:
Lfunc_end10:
	.cfi_endproc

	.p2align	4, 0x90
__ZN42_$LT$$RF$T$u20$as$u20$core..fmt..Debug$GT$3fmt17h43e95a18af64e7c3E:
Lfunc_begin11:
	.loc	1 1973 0
	.cfi_startproc
	pushq	%rbp
	.cfi_def_cfa_offset 16
	.cfi_offset %rbp, -16
	movq	%rsp, %rbp
	.cfi_def_cfa_register %rbp
Ltmp123:
	pushq	%r15
	pushq	%r14
	pushq	%rbx
	subq	$24, %rsp
	.cfi_offset %rbx, -40
	.cfi_offset %r14, -32
	.cfi_offset %r15, -24
	.loc	1 1973 71 prologue_end
	movq	(%rdi), %rbx
Ltmp124:
	.loc	12 33 10
	leaq	L___unnamed_53(%rip), %rdx
	leaq	-48(%rbp), %r14
	movl	$8, %ecx
	movq	%r14, %rdi
Ltmp125:
	callq	__ZN4core3fmt9Formatter12debug_struct17h985c0158d1fc7193E
Ltmp126:
	.loc	12 39 5
	movq	%rbx, -32(%rbp)
Ltmp127:
	.loc	12 44 5
	leaq	1(%rbx), %r15
	.loc	12 47 5
	addq	$2, %rbx
Ltmp128:
	.loc	12 33 10
	leaq	l___unnamed_54(%rip), %rsi
	leaq	l___unnamed_7(%rip), %r8
	leaq	-32(%rbp), %rcx
	movl	$12, %edx
	movq	%r14, %rdi
	callq	__ZN4core3fmt8builders11DebugStruct5field17h9c15dc155278eed2E
	.loc	12 44 5
	movq	%r15, -32(%rbp)
	.loc	12 33 10
	leaq	l___unnamed_55(%rip), %rsi
	leaq	l___unnamed_8(%rip), %r8
	leaq	-32(%rbp), %rcx
	movl	$6, %edx
	movq	%r14, %rdi
	callq	__ZN4core3fmt8builders11DebugStruct5field17h9c15dc155278eed2E
	.loc	12 47 5
	movq	%rbx, -32(%rbp)
	.loc	12 33 10
	leaq	l___unnamed_56(%rip), %rsi
	leaq	l___unnamed_9(%rip), %r8
	leaq	-32(%rbp), %rcx
	movl	$7, %edx
	movq	%r14, %rdi
	callq	__ZN4core3fmt8builders11DebugStruct5field17h9c15dc155278eed2E
	movq	%r14, %rdi
	callq	__ZN4core3fmt8builders11DebugStruct6finish17h26808393f3fed630E
Ltmp129:
	.loc	1 1973 84
	addq	$24, %rsp
	popq	%rbx
	popq	%r14
	popq	%r15
	popq	%rbp
	retq
Ltmp130:
Lfunc_end11:
	.cfi_endproc

	.p2align	4, 0x90
__ZN42_$LT$$RF$T$u20$as$u20$core..fmt..Debug$GT$3fmt17h4786ed855eb5c09eE:
Lfunc_begin12:
	.loc	1 1973 0
	.cfi_startproc
	pushq	%rbp
	.cfi_def_cfa_offset 16
	.cfi_offset %rbp, -16
	movq	%rsp, %rbp
	.cfi_def_cfa_register %rbp
Ltmp131:
	pushq	%r15
	pushq	%r14
	pushq	%r13
	pushq	%r12
	pushq	%rbx
	subq	$136, %rsp
	.cfi_offset %rbx, -56
	.cfi_offset %r12, -48
	.cfi_offset %r13, -40
	.cfi_offset %r14, -32
	.cfi_offset %r15, -24
	.loc	1 1973 71 prologue_end
	movq	(%rdi), %r14
Ltmp132:
	.loc	1 0 71 is_stmt 0
	leaq	-168(%rbp), %rdi
Ltmp133:
	.file	14 "/rustc/a74d1862d4d87a56244958416fd05976c58ca1a8/src/liballoc/collections/btree/map.rs"
	.loc	14 2012 9 is_stmt 1
	callq	__ZN4core3fmt9Formatter9debug_map17h5cea039dab7ad6bbE
Ltmp134:
	.loc	14 2172 16
	movq	(%r14), %rcx
Ltmp135:
	testq	%rcx, %rcx
	je	LBB12_1
Ltmp136:
	.loc	14 2173 44
	movq	8(%r14), %rsi
Ltmp137:
	.file	15 "/rustc/a74d1862d4d87a56244958416fd05976c58ca1a8/src/liballoc/collections/btree/node.rs"
	.loc	15 293 9
	movzwl	10(%rcx), %edx
Ltmp138:
	.loc	15 680 12
	testq	%rsi, %rsi
Ltmp139:
	.loc	14 2136 14
	je	LBB12_3
Ltmp140:
	.loc	14 0 14 is_stmt 0
	movb	$1, %bl
	movq	%rcx, %r8
Ltmp141:
	.p2align	4, 0x90
LBB12_6:
	.loc	14 2139 33 is_stmt 1
	testb	$1, %bl
	je	LBB12_4
Ltmp142:
	.loc	15 680 12
	cmpq	$1, %rsi
	setne	%bl
Ltmp143:
	.loc	15 963 17
	movq	1336(%r8), %r8
Ltmp144:
	.loc	15 963 17 is_stmt 0
	movq	1336(%rcx,%rdx,8), %rcx
Ltmp145:
	.loc	15 293 9 is_stmt 1
	movzwl	10(%rcx), %edx
Ltmp146:
	.loc	15 680 12
	decq	%rsi
Ltmp147:
	.loc	14 2136 14
	jne	LBB12_6
	jmp	LBB12_8
Ltmp148:
LBB12_1:
	.loc	14 0 14 is_stmt 0
	xorl	%ecx, %ecx
Ltmp149:
	xorl	%r8d, %r8d
	xorl	%esi, %esi
	jmp	LBB12_9
Ltmp150:
LBB12_3:
	movq	%rcx, %r8
Ltmp151:
LBB12_8:
	.loc	14 2175 76 is_stmt 1
	movq	16(%r14), %rsi
Ltmp152:
	.loc	14 2175 13 is_stmt 0
	xorps	%xmm0, %xmm0
	movaps	%xmm0, -64(%rbp)
	movq	$0, -48(%rbp)
Ltmp153:
LBB12_9:
	.loc	9 915 23 is_stmt 1
	movq	$0, -136(%rbp)
	movq	%r8, -128(%rbp)
	movq	-64(%rbp), %rax
	movq	-56(%rbp), %rdi
	movq	%rax, -120(%rbp)
	movq	%rdi, -112(%rbp)
	movq	-48(%rbp), %rax
	movq	%rax, -104(%rbp)
	movq	%rcx, -96(%rbp)
	movq	$0, -88(%rbp)
	movq	%rdx, -80(%rbp)
	movq	%rsi, -72(%rbp)
Ltmp154:
	.loc	14 1435 12
	testq	%rsi, %rsi
	.loc	14 1435 9 is_stmt 0
	je	LBB12_28
Ltmp155:
	.loc	14 0 9
	leaq	l___unnamed_2(%rip), %r15
	leaq	-168(%rbp), %r12
	leaq	-144(%rbp), %r13
	leaq	-152(%rbp), %r14
Ltmp156:
	.p2align	4, 0x90
LBB12_11:
	.loc	14 1438 13 is_stmt 1
	decq	%rsi
Ltmp157:
	movq	%rsi, -72(%rbp)
Ltmp158:
	.loc	4 291 13
	testq	%r8, %r8
	leaq	-136(%rbp), %rax
	cmovneq	%rax, %r8
Ltmp159:
	.file	16 "/rustc/a74d1862d4d87a56244958416fd05976c58ca1a8/src/libcore/ptr/mod.rs"
	.loc	16 651 5
	movq	(%r8), %rbx
Ltmp160:
	movq	8(%r8), %rcx
Ltmp161:
	movq	24(%r8), %rdx
Ltmp162:
	.loc	15 293 9
	movzwl	10(%rcx), %eax
Ltmp163:
	.loc	15 814 12
	cmpq	%rax, %rdx
	.loc	15 814 9 is_stmt 0
	jb	LBB12_16
Ltmp164:
	.p2align	4, 0x90
LBB12_12:
	.loc	15 344 30 is_stmt 1
	movq	(%rcx), %rsi
Ltmp165:
	.loc	15 345 16
	testq	%rsi, %rsi
	je	LBB12_13
Ltmp166:
	.loc	15 348 29
	incq	%rbx
Ltmp167:
	.loc	15 353 43
	movzwl	8(%rcx), %edx
Ltmp168:
	.loc	15 0 43 is_stmt 0
	movq	%rsi, %rcx
Ltmp169:
	.loc	15 814 12 is_stmt 1
	cmpw	10(%rsi), %dx
	.loc	15 814 9 is_stmt 0
	jae	LBB12_12
Ltmp170:
	.file	17 "/rustc/a74d1862d4d87a56244958416fd05976c58ca1a8/src/libcore/result.rs"
	.loc	17 0 0
	movq	%rsi, %rcx
Ltmp171:
LBB12_16:
	.loc	15 680 12 is_stmt 1
	testq	%rbx, %rbx
Ltmp172:
	.file	18 "/rustc/a74d1862d4d87a56244958416fd05976c58ca1a8/src/liballoc/collections/btree/navigate.rs"
	.loc	18 223 13
	je	LBB12_17
Ltmp173:
LBB12_18:
	.loc	15 680 12
	movq	%rbx, %rsi
Ltmp174:
	.loc	15 963 17
	movq	1344(%rcx,%rdx,8), %rdi
Ltmp175:
	.loc	15 680 12
	decq	%rsi
Ltmp176:
	.loc	18 199 17
	je	LBB12_25
Ltmp177:
	addq	$-2, %rbx
	movq	%rsi, %r9
	andq	$7, %r9
	je	LBB12_23
Ltmp178:
	.loc	18 0 17 is_stmt 0
	xorl	%eax, %eax
Ltmp179:
	.p2align	4, 0x90
LBB12_21:
	movq	1336(%rdi), %rdi
Ltmp180:
	.loc	18 199 17
	incq	%rax
	cmpq	%rax, %r9
	jne	LBB12_21
Ltmp181:
	subq	%rax, %rsi
Ltmp182:
LBB12_23:
	cmpq	$7, %rbx
	jb	LBB12_25
Ltmp183:
	.p2align	4, 0x90
LBB12_24:
	.loc	18 0 0
	movq	1336(%rdi), %rax
Ltmp184:
	movq	1336(%rax), %rax
Ltmp185:
	movq	1336(%rax), %rax
Ltmp186:
	movq	1336(%rax), %rax
Ltmp187:
	movq	1336(%rax), %rax
Ltmp188:
	movq	1336(%rax), %rax
Ltmp189:
	movq	1336(%rax), %rax
Ltmp190:
	movq	1336(%rax), %rdi
Ltmp191:
	.loc	15 680 12 is_stmt 1
	addq	$-8, %rsi
Ltmp192:
	.loc	18 199 17
	jne	LBB12_24
Ltmp193:
LBB12_25:
	.loc	18 0 0 is_stmt 0
	xorl	%eax, %eax
	jmp	LBB12_26
Ltmp194:
	.p2align	4, 0x90
LBB12_13:
	xorl	%ecx, %ecx
Ltmp195:
	.loc	15 680 12 is_stmt 1
	testq	%rbx, %rbx
Ltmp196:
	.loc	18 223 13
	jne	LBB12_18
Ltmp197:
LBB12_17:
	.loc	18 0 13 is_stmt 0
	leaq	1(%rdx), %rax
Ltmp198:
	movq	%rcx, %rdi
Ltmp199:
LBB12_26:
	.file	19 "/rustc/a74d1862d4d87a56244958416fd05976c58ca1a8/src/libcore/ptr/const_ptr.rs"
	.loc	19 158 9 is_stmt 1
	leaq	16(%rcx,%rdx,8), %rsi
Ltmp200:
	.loc	15 975 13
	imulq	$112, %rdx, %rdx
	leaq	104(%rcx,%rdx), %rcx
Ltmp201:
	.loc	16 836 42
	movq	$0, (%r8)
	movq	%rdi, 8(%r8)
	movq	%rax, 24(%r8)
Ltmp202:
	.loc	9 915 14
	movq	%rsi, -144(%rbp)
	.loc	9 915 17 is_stmt 0
	movq	%rcx, -152(%rbp)
Ltmp203:
	.loc	9 916 13 is_stmt 1
	movq	%r12, %rdi
Ltmp204:
	movq	%r13, %rsi
Ltmp205:
	leaq	l___unnamed_1(%rip), %rdx
	movq	%r14, %rcx
Ltmp206:
	movq	%r15, %r8
Ltmp207:
	callq	__ZN4core3fmt8builders8DebugMap5entry17h653834b3ad194ffcE
Ltmp208:
	.loc	14 1435 12
	movq	-72(%rbp), %rsi
	testq	%rsi, %rsi
	.loc	14 1435 9 is_stmt 0
	je	LBB12_28
Ltmp209:
	.loc	4 291 13 is_stmt 1
	movq	-128(%rbp), %r8
	jmp	LBB12_11
Ltmp210:
LBB12_28:
	.loc	4 0 13 is_stmt 0
	leaq	-168(%rbp), %rdi
	.loc	14 2012 9 is_stmt 1
	callq	__ZN4core3fmt8builders8DebugMap6finish17h655b3836bbc58824E
Ltmp211:
	.loc	1 1973 84
	addq	$136, %rsp
	popq	%rbx
	popq	%r12
	popq	%r13
	popq	%r14
	popq	%r15
	popq	%rbp
	retq
LBB12_4:
Ltmp212:
	.file	20 "/rustc/a74d1862d4d87a56244958416fd05976c58ca1a8/src/libcore/macros/mod.rs"
	.loc	20 16 38
	leaq	__ZN44_$LT$$RF$T$u20$as$u20$core..fmt..Display$GT$3fmt17he33434ed9f8028b0E(%rip), %rax
	movq	%rax, %xmm0
	leaq	l___unnamed_57(%rip), %rax
	movq	%rax, %xmm1
	punpcklqdq	%xmm0, %xmm1
	movdqa	%xmm1, -64(%rbp)
Ltmp213:
	.loc	1 328 9
	leaq	l___unnamed_58(%rip), %rax
Ltmp214:
	movq	%rax, -136(%rbp)
	movq	$1, -128(%rbp)
	movq	$0, -120(%rbp)
	leaq	-64(%rbp), %rax
Ltmp215:
	movq	%rax, -104(%rbp)
	movq	$1, -96(%rbp)
Ltmp216:
	.loc	20 16 9
	leaq	l___unnamed_59(%rip), %rsi
Ltmp217:
	.loc	20 0 9 is_stmt 0
	leaq	-136(%rbp), %rdi
	.loc	20 16 9
	callq	__ZN4core9panicking9panic_fmt17hab6ef1464e9720aaE
Ltmp218:
Lfunc_end12:
	.cfi_endproc

	.p2align	4, 0x90
__ZN42_$LT$$RF$T$u20$as$u20$core..fmt..Debug$GT$3fmt17h5717fab26834fc6fE:
Lfunc_begin13:
	.loc	1 1973 0 is_stmt 1
	.cfi_startproc
	pushq	%rbp
	.cfi_def_cfa_offset 16
	.cfi_offset %rbp, -16
	movq	%rsp, %rbp
	.cfi_def_cfa_register %rbp
Ltmp219:
	pushq	%r14
	pushq	%rbx
	subq	$32, %rsp
	.cfi_offset %rbx, -32
	.cfi_offset %r14, -24
	.loc	1 1973 71 prologue_end
	movq	(%rdi), %rbx
Ltmp220:
	.loc	2 61 18
	leaq	L___unnamed_60(%rip), %rdx
	leaq	-48(%rbp), %r14
	movl	$4, %ecx
	movq	%r14, %rdi
Ltmp221:
	callq	__ZN4core3fmt9Formatter11debug_tuple17h15ca25ad759edd1cE
Ltmp222:
	.loc	2 62 33
	movq	%rbx, -24(%rbp)
	.loc	2 61 18
	leaq	l___unnamed_9(%rip), %rdx
	leaq	-24(%rbp), %rsi
	movq	%r14, %rdi
	callq	__ZN4core3fmt8builders10DebugTuple5field17hf36121153a94f236E
	movq	%r14, %rdi
	callq	__ZN4core3fmt8builders10DebugTuple6finish17h68acf09c6f6593f2E
Ltmp223:
	.loc	1 1973 84
	addq	$32, %rsp
	popq	%rbx
	popq	%r14
	popq	%rbp
	retq
Ltmp224:
Lfunc_end13:
	.cfi_endproc

	.p2align	4, 0x90
__ZN42_$LT$$RF$T$u20$as$u20$core..fmt..Debug$GT$3fmt17h593842a9f51357d5E:
Lfunc_begin14:
	.loc	1 1973 0
	.cfi_startproc
	pushq	%rbp
	.cfi_def_cfa_offset 16
	.cfi_offset %rbp, -16
	movq	%rsp, %rbp
	.cfi_def_cfa_register %rbp
Ltmp225:
	.loc	1 1973 71 prologue_end
	movq	(%rdi), %rdi
Ltmp226:
	.loc	1 1973 62 is_stmt 0
	popq	%rbp
	jmp	__ZN4core3fmt5float50_$LT$impl$u20$core..fmt..Debug$u20$for$u20$f64$GT$3fmt17h45f97cf93875c48bE
Ltmp227:
Lfunc_end14:
	.cfi_endproc

	.p2align	4, 0x90
__ZN42_$LT$$RF$T$u20$as$u20$core..fmt..Debug$GT$3fmt17h5c50db1b8583d7f8E:
Lfunc_begin15:
	.loc	1 1973 0 is_stmt 1
	.cfi_startproc
	pushq	%rbp
	.cfi_def_cfa_offset 16
	.cfi_offset %rbp, -16
	movq	%rsp, %rbp
	.cfi_def_cfa_register %rbp
	pushq	%r14
	pushq	%rbx
	.cfi_offset %rbx, -32
	.cfi_offset %r14, -24
	movq	%rsi, %rbx
Ltmp228:
	.loc	1 1973 71 prologue_end
	movq	(%rdi), %r14
Ltmp229:
	.loc	5 149 20
	movq	%rsi, %rdi
Ltmp230:
	callq	__ZN4core3fmt9Formatter15debug_lower_hex17h8530fbaeba13f4d9E
	.loc	5 149 17 is_stmt 0
	testb	%al, %al
	je	LBB15_1
Ltmp231:
	.loc	5 150 21 is_stmt 1
	movq	%r14, %rdi
	movq	%rbx, %rsi
	popq	%rbx
Ltmp232:
	popq	%r14
Ltmp233:
	popq	%rbp
	jmp	__ZN4core3fmt3num52_$LT$impl$u20$core..fmt..LowerHex$u20$for$u20$u8$GT$3fmt17h7701faa643a10c55E
LBB15_1:
Ltmp234:
	.loc	5 151 27
	movq	%rbx, %rdi
	callq	__ZN4core3fmt9Formatter15debug_upper_hex17hf8fda15ec43a1e68E
	.loc	5 154 21
	movq	%r14, %rdi
	movq	%rbx, %rsi
	.loc	5 151 24
	testb	%al, %al
	je	LBB15_4
Ltmp235:
	.loc	5 152 21
	popq	%rbx
Ltmp236:
	popq	%r14
Ltmp237:
	popq	%rbp
	jmp	__ZN4core3fmt3num52_$LT$impl$u20$core..fmt..UpperHex$u20$for$u20$u8$GT$3fmt17ha797e73a900719d8E
LBB15_4:
Ltmp238:
	.loc	5 154 21
	popq	%rbx
Ltmp239:
	popq	%r14
Ltmp240:
	popq	%rbp
	jmp	__ZN4core3fmt3num3imp51_$LT$impl$u20$core..fmt..Display$u20$for$u20$u8$GT$3fmt17h0e89df114e53d66dE
Ltmp241:
Lfunc_end15:
	.cfi_endproc

	.p2align	4, 0x90
__ZN42_$LT$$RF$T$u20$as$u20$core..fmt..Debug$GT$3fmt17h68fdeb1b2c2ad1a3E:
Lfunc_begin16:
	.loc	1 1973 0
	.cfi_startproc
	pushq	%rbp
	.cfi_def_cfa_offset 16
	.cfi_offset %rbp, -16
	movq	%rsp, %rbp
	.cfi_def_cfa_register %rbp
Ltmp242:
	pushq	%r14
	pushq	%rbx
	subq	$32, %rsp
	.cfi_offset %rbx, -32
	.cfi_offset %r14, -24
	.loc	1 1973 71 prologue_end
	movq	(%rdi), %rbx
Ltmp243:
	.loc	2 61 18
	leaq	l___unnamed_61(%rip), %rdx
	leaq	-48(%rbp), %r14
	movl	$5, %ecx
	movq	%r14, %rdi
Ltmp244:
	callq	__ZN4core3fmt9Formatter11debug_tuple17h15ca25ad759edd1cE
Ltmp245:
	.loc	2 62 33
	movq	%rbx, -24(%rbp)
	.loc	2 61 18
	leaq	l___unnamed_9(%rip), %rdx
	leaq	-24(%rbp), %rsi
	movq	%r14, %rdi
	callq	__ZN4core3fmt8builders10DebugTuple5field17hf36121153a94f236E
	movq	%r14, %rdi
	callq	__ZN4core3fmt8builders10DebugTuple6finish17h68acf09c6f6593f2E
Ltmp246:
	.loc	1 1973 84
	addq	$32, %rsp
	popq	%rbx
	popq	%r14
	popq	%rbp
	retq
Ltmp247:
Lfunc_end16:
	.cfi_endproc

	.p2align	4, 0x90
__ZN42_$LT$$RF$T$u20$as$u20$core..fmt..Debug$GT$3fmt17h6c4f428b2b380fcfE:
Lfunc_begin17:
	.loc	1 1973 0
	.cfi_startproc
	pushq	%rbp
	.cfi_def_cfa_offset 16
	.cfi_offset %rbp, -16
	movq	%rsp, %rbp
	.cfi_def_cfa_register %rbp
Ltmp248:
	pushq	%r14
	pushq	%rbx
	subq	$32, %rsp
	.cfi_offset %rbx, -32
	.cfi_offset %r14, -24
	.loc	1 1973 71 prologue_end
	movq	(%rdi), %rbx
Ltmp249:
	.loc	2 61 18
	leaq	l___unnamed_62(%rip), %rdx
	leaq	-48(%rbp), %r14
	movl	$5, %ecx
	movq	%r14, %rdi
Ltmp250:
	callq	__ZN4core3fmt9Formatter11debug_tuple17h15ca25ad759edd1cE
Ltmp251:
	.loc	2 62 33
	movq	%rbx, -24(%rbp)
	.loc	2 61 18
	leaq	l___unnamed_7(%rip), %rdx
	leaq	-24(%rbp), %rsi
	movq	%r14, %rdi
	callq	__ZN4core3fmt8builders10DebugTuple5field17hf36121153a94f236E
	movq	%r14, %rdi
	callq	__ZN4core3fmt8builders10DebugTuple6finish17h68acf09c6f6593f2E
Ltmp252:
	.loc	1 1973 84
	addq	$32, %rsp
	popq	%rbx
	popq	%r14
	popq	%rbp
	retq
Ltmp253:
Lfunc_end17:
	.cfi_endproc

	.p2align	4, 0x90
__ZN42_$LT$$RF$T$u20$as$u20$core..fmt..Debug$GT$3fmt17h6f78abf24f9eee4eE:
Lfunc_begin18:
	.loc	1 1973 0
	.cfi_startproc
	pushq	%rbp
	.cfi_def_cfa_offset 16
	.cfi_offset %rbp, -16
	movq	%rsp, %rbp
	.cfi_def_cfa_register %rbp
Ltmp254:
	pushq	%r15
	pushq	%r14
	pushq	%r13
	pushq	%r12
	pushq	%rbx
	subq	$24, %rsp
	.cfi_offset %rbx, -56
	.cfi_offset %r12, -48
	.cfi_offset %r13, -40
	.cfi_offset %r14, -32
	.cfi_offset %r15, -24
	.loc	1 1973 71 prologue_end
	movq	(%rdi), %rax
Ltmp255:
	.loc	7 814 19
	movq	(%rax), %r13
Ltmp256:
	.loc	7 1966 55
	movq	16(%rax), %rbx
Ltmp257:
	.loc	7 0 55 is_stmt 0
	leaq	-64(%rbp), %rdi
Ltmp258:
	.loc	1 2162 9 is_stmt 1
	callq	__ZN4core3fmt9Formatter10debug_list17hd054f0986422feb9E
Ltmp259:
	.loc	8 3179 9
	testq	%rbx, %rbx
	.loc	8 3303 21
	je	LBB18_3
Ltmp260:
	imulq	$112, %rbx, %rbx
Ltmp261:
	.loc	8 0 21 is_stmt 0
	leaq	l___unnamed_2(%rip), %r14
	leaq	-64(%rbp), %r15
	leaq	-48(%rbp), %r12
Ltmp262:
	.p2align	4, 0x90
LBB18_2:
	.loc	9 661 22 is_stmt 1
	movq	%r13, -48(%rbp)
Ltmp263:
	.loc	10 90 9
	addq	$112, %r13
Ltmp264:
	.loc	9 662 13
	movq	%r15, %rdi
	movq	%r12, %rsi
	movq	%r14, %rdx
	callq	__ZN4core3fmt8builders9DebugList5entry17h5c0dec54538196dfE
Ltmp265:
	.loc	8 3179 9
	addq	$-112, %rbx
	.loc	8 3303 21
	jne	LBB18_2
Ltmp266:
LBB18_3:
	.loc	8 0 21 is_stmt 0
	leaq	-64(%rbp), %rdi
	.loc	1 2162 9 is_stmt 1
	callq	__ZN4core3fmt8builders9DebugList6finish17h3635bd6af9b1c5a6E
Ltmp267:
	.loc	1 1973 84
	addq	$24, %rsp
	popq	%rbx
	popq	%r12
	popq	%r13
	popq	%r14
	popq	%r15
	popq	%rbp
	retq
Ltmp268:
Lfunc_end18:
	.cfi_endproc

	.p2align	4, 0x90
__ZN42_$LT$$RF$T$u20$as$u20$core..fmt..Debug$GT$3fmt17h7307b308d73019e4E:
Lfunc_begin19:
	.loc	1 1973 0
	.cfi_startproc
	pushq	%rbp
	.cfi_def_cfa_offset 16
	.cfi_offset %rbp, -16
	movq	%rsp, %rbp
	.cfi_def_cfa_register %rbp
Ltmp269:
	pushq	%r14
	pushq	%rbx
	subq	$32, %rsp
	.cfi_offset %rbx, -32
	.cfi_offset %r14, -24
	.loc	1 1973 71 prologue_end
	movq	(%rdi), %rbx
Ltmp270:
	.loc	2 61 18
	leaq	l___unnamed_63(%rip), %rdx
	leaq	-48(%rbp), %r14
	movl	$6, %ecx
	movq	%r14, %rdi
Ltmp271:
	callq	__ZN4core3fmt9Formatter11debug_tuple17h15ca25ad759edd1cE
Ltmp272:
	.loc	2 62 33
	movq	%rbx, -24(%rbp)
	.loc	2 61 18
	leaq	l___unnamed_7(%rip), %rdx
	leaq	-24(%rbp), %rsi
	movq	%r14, %rdi
	callq	__ZN4core3fmt8builders10DebugTuple5field17hf36121153a94f236E
	movq	%r14, %rdi
	callq	__ZN4core3fmt8builders10DebugTuple6finish17h68acf09c6f6593f2E
Ltmp273:
	.loc	1 1973 84
	addq	$32, %rsp
	popq	%rbx
	popq	%r14
	popq	%rbp
	retq
Ltmp274:
Lfunc_end19:
	.cfi_endproc

	.p2align	4, 0x90
__ZN42_$LT$$RF$T$u20$as$u20$core..fmt..Debug$GT$3fmt17h7464375591f4ba36E:
Lfunc_begin20:
	.loc	1 1973 0
	.cfi_startproc
	pushq	%rbp
	.cfi_def_cfa_offset 16
	.cfi_offset %rbp, -16
	movq	%rsp, %rbp
	.cfi_def_cfa_register %rbp
	pushq	%r14
	pushq	%rbx
	.cfi_offset %rbx, -32
	.cfi_offset %r14, -24
	movq	%rsi, %rbx
Ltmp275:
	.loc	1 1973 71 prologue_end
	movq	(%rdi), %r14
Ltmp276:
	.loc	5 149 20
	movq	%rsi, %rdi
Ltmp277:
	callq	__ZN4core3fmt9Formatter15debug_lower_hex17h8530fbaeba13f4d9E
	.loc	5 149 17 is_stmt 0
	testb	%al, %al
	je	LBB20_1
Ltmp278:
	.loc	5 150 21 is_stmt 1
	movq	%r14, %rdi
	movq	%rbx, %rsi
	popq	%rbx
Ltmp279:
	popq	%r14
Ltmp280:
	popq	%rbp
	jmp	__ZN4core3fmt3num53_$LT$impl$u20$core..fmt..LowerHex$u20$for$u20$u16$GT$3fmt17h4a3e59891cc09bc8E
LBB20_1:
Ltmp281:
	.loc	5 151 27
	movq	%rbx, %rdi
	callq	__ZN4core3fmt9Formatter15debug_upper_hex17hf8fda15ec43a1e68E
	.loc	5 154 21
	movq	%r14, %rdi
	movq	%rbx, %rsi
	.loc	5 151 24
	testb	%al, %al
	je	LBB20_4
Ltmp282:
	.loc	5 152 21
	popq	%rbx
Ltmp283:
	popq	%r14
Ltmp284:
	popq	%rbp
	jmp	__ZN4core3fmt3num53_$LT$impl$u20$core..fmt..UpperHex$u20$for$u20$u16$GT$3fmt17h80b29e32979d60cdE
LBB20_4:
Ltmp285:
	.loc	5 154 21
	popq	%rbx
Ltmp286:
	popq	%r14
Ltmp287:
	popq	%rbp
	jmp	__ZN4core3fmt3num3imp52_$LT$impl$u20$core..fmt..Display$u20$for$u20$u16$GT$3fmt17h7d9582ae70d300cbE
Ltmp288:
Lfunc_end20:
	.cfi_endproc

	.p2align	4, 0x90
__ZN42_$LT$$RF$T$u20$as$u20$core..fmt..Debug$GT$3fmt17h7dce57a2c8e4a100E:
Lfunc_begin21:
	.loc	1 1973 0
	.cfi_startproc
	pushq	%rbp
	.cfi_def_cfa_offset 16
	.cfi_offset %rbp, -16
	movq	%rsp, %rbp
	.cfi_def_cfa_register %rbp
	pushq	%r14
	pushq	%rbx
	.cfi_offset %rbx, -32
	.cfi_offset %r14, -24
	movq	%rsi, %rbx
Ltmp289:
	.loc	1 1973 71 prologue_end
	movq	(%rdi), %r14
Ltmp290:
	.loc	5 149 20
	movq	%rsi, %rdi
Ltmp291:
	callq	__ZN4core3fmt9Formatter15debug_lower_hex17h8530fbaeba13f4d9E
	.loc	5 149 17 is_stmt 0
	testb	%al, %al
	je	LBB21_1
Ltmp292:
	.loc	5 150 21 is_stmt 1
	movq	%r14, %rdi
	movq	%rbx, %rsi
	popq	%rbx
Ltmp293:
	popq	%r14
Ltmp294:
	popq	%rbp
	jmp	__ZN4core3fmt3num53_$LT$impl$u20$core..fmt..LowerHex$u20$for$u20$i32$GT$3fmt17h45ae8797392b15d4E
LBB21_1:
Ltmp295:
	.loc	5 151 27
	movq	%rbx, %rdi
	callq	__ZN4core3fmt9Formatter15debug_upper_hex17hf8fda15ec43a1e68E
	.loc	5 154 21
	movq	%r14, %rdi
	movq	%rbx, %rsi
	.loc	5 151 24
	testb	%al, %al
	je	LBB21_4
Ltmp296:
	.loc	5 152 21
	popq	%rbx
Ltmp297:
	popq	%r14
Ltmp298:
	popq	%rbp
	jmp	__ZN4core3fmt3num53_$LT$impl$u20$core..fmt..UpperHex$u20$for$u20$i32$GT$3fmt17h7218a38926162563E
LBB21_4:
Ltmp299:
	.loc	5 154 21
	popq	%rbx
Ltmp300:
	popq	%r14
Ltmp301:
	popq	%rbp
	jmp	__ZN4core3fmt3num3imp52_$LT$impl$u20$core..fmt..Display$u20$for$u20$i32$GT$3fmt17he2ccc2060d52a2ceE
Ltmp302:
Lfunc_end21:
	.cfi_endproc

	.p2align	4, 0x90
__ZN42_$LT$$RF$T$u20$as$u20$core..fmt..Debug$GT$3fmt17h7e421e78b11bd1e6E:
Lfunc_begin22:
	.loc	1 1973 0
	.cfi_startproc
	pushq	%rbp
	.cfi_def_cfa_offset 16
	.cfi_offset %rbp, -16
	movq	%rsp, %rbp
	.cfi_def_cfa_register %rbp
	pushq	%r14
	pushq	%rbx
	.cfi_offset %rbx, -32
	.cfi_offset %r14, -24
	movq	%rsi, %rbx
Ltmp303:
	.loc	1 1973 71 prologue_end
	movq	(%rdi), %r14
Ltmp304:
	.loc	5 149 20
	movq	%rsi, %rdi
Ltmp305:
	callq	__ZN4core3fmt9Formatter15debug_lower_hex17h8530fbaeba13f4d9E
	.loc	5 149 17 is_stmt 0
	testb	%al, %al
	je	LBB22_1
Ltmp306:
	.loc	5 150 21 is_stmt 1
	movq	%r14, %rdi
	movq	%rbx, %rsi
	popq	%rbx
Ltmp307:
	popq	%r14
Ltmp308:
	popq	%rbp
	jmp	__ZN4core3fmt3num53_$LT$impl$u20$core..fmt..LowerHex$u20$for$u20$u64$GT$3fmt17h45355469eb7ddf8bE
LBB22_1:
Ltmp309:
	.loc	5 151 27
	movq	%rbx, %rdi
	callq	__ZN4core3fmt9Formatter15debug_upper_hex17hf8fda15ec43a1e68E
	.loc	5 154 21
	movq	%r14, %rdi
	movq	%rbx, %rsi
	.loc	5 151 24
	testb	%al, %al
	je	LBB22_4
Ltmp310:
	.loc	5 152 21
	popq	%rbx
Ltmp311:
	popq	%r14
Ltmp312:
	popq	%rbp
	jmp	__ZN4core3fmt3num53_$LT$impl$u20$core..fmt..UpperHex$u20$for$u20$u64$GT$3fmt17ha26765e3e26c1816E
LBB22_4:
Ltmp313:
	.loc	5 154 21
	popq	%rbx
Ltmp314:
	popq	%r14
Ltmp315:
	popq	%rbp
	jmp	__ZN4core3fmt3num3imp52_$LT$impl$u20$core..fmt..Display$u20$for$u20$u64$GT$3fmt17hb00db9d5e1e54df6E
Ltmp316:
Lfunc_end22:
	.cfi_endproc
	.file	21 "/rustc/a74d1862d4d87a56244958416fd05976c58ca1a8/src/libcore/num/mod.rs"

	.p2align	4, 0x90
__ZN42_$LT$$RF$T$u20$as$u20$core..fmt..Debug$GT$3fmt17h8fb74805fabaaf0eE:
Lfunc_begin23:
	.loc	1 1973 0
	.cfi_startproc
	pushq	%rbp
	.cfi_def_cfa_offset 16
	.cfi_offset %rbp, -16
	movq	%rsp, %rbp
	.cfi_def_cfa_register %rbp
Ltmp317:
	pushq	%r14
	pushq	%rbx
	subq	$32, %rsp
	.cfi_offset %rbx, -32
	.cfi_offset %r14, -24
	.loc	1 1973 71 prologue_end
	movq	(%rdi), %rbx
Ltmp318:
	.loc	2 61 18
	leaq	l___unnamed_64(%rip), %rdx
	leaq	-48(%rbp), %r14
	movl	$10, %ecx
	movq	%r14, %rdi
Ltmp319:
	callq	__ZN4core3fmt9Formatter11debug_tuple17h15ca25ad759edd1cE
Ltmp320:
	.loc	2 62 33
	movq	%rbx, -24(%rbp)
	.loc	2 61 18
	leaq	l___unnamed_7(%rip), %rdx
	leaq	-24(%rbp), %rsi
	movq	%r14, %rdi
	callq	__ZN4core3fmt8builders10DebugTuple5field17hf36121153a94f236E
	movq	%r14, %rdi
	callq	__ZN4core3fmt8builders10DebugTuple6finish17h68acf09c6f6593f2E
Ltmp321:
	.loc	1 1973 84
	addq	$32, %rsp
	popq	%rbx
	popq	%r14
	popq	%rbp
	retq
Ltmp322:
Lfunc_end23:
	.cfi_endproc

	.p2align	4, 0x90
__ZN42_$LT$$RF$T$u20$as$u20$core..fmt..Debug$GT$3fmt17hb2bee3e7a141cba6E:
Lfunc_begin24:
	.loc	1 1973 0
	.cfi_startproc
	pushq	%rbp
	.cfi_def_cfa_offset 16
	.cfi_offset %rbp, -16
	movq	%rsp, %rbp
	.cfi_def_cfa_register %rbp
Ltmp323:
	pushq	%r14
	pushq	%rbx
	subq	$32, %rsp
	.cfi_offset %rbx, -32
	.cfi_offset %r14, -24
	.loc	1 1973 71 prologue_end
	movq	(%rdi), %rbx
Ltmp324:
	.loc	4 151 48
	cmpq	$1, (%rbx)
	jne	LBB24_2
Ltmp325:
	.loc	4 160 56
	addq	$8, %rbx
Ltmp326:
	.loc	4 0 56 is_stmt 0
	leaq	-48(%rbp), %r14
Ltmp327:
	.loc	4 151 48 is_stmt 1
	leaq	L___unnamed_41(%rip), %rdx
	movl	$4, %ecx
	movq	%r14, %rdi
Ltmp328:
	callq	__ZN4core3fmt9Formatter11debug_tuple17h15ca25ad759edd1cE
Ltmp329:
	.loc	4 160 56
	movq	%rbx, -24(%rbp)
	.loc	4 151 48
	leaq	l___unnamed_1(%rip), %rdx
	leaq	-24(%rbp), %rsi
	movq	%r14, %rdi
	callq	__ZN4core3fmt8builders10DebugTuple5field17hf36121153a94f236E
	jmp	LBB24_3
Ltmp330:
LBB24_2:
	.loc	4 0 48 is_stmt 0
	leaq	-48(%rbp), %r14
Ltmp331:
	.loc	4 151 48
	leaq	L___unnamed_42(%rip), %rdx
	movl	$4, %ecx
	movq	%r14, %rdi
Ltmp332:
	callq	__ZN4core3fmt9Formatter11debug_tuple17h15ca25ad759edd1cE
Ltmp333:
LBB24_3:
	.loc	4 0 0
	movq	%r14, %rdi
	callq	__ZN4core3fmt8builders10DebugTuple6finish17h68acf09c6f6593f2E
Ltmp334:
	.loc	1 1973 84 is_stmt 1
	addq	$32, %rsp
	popq	%rbx
	popq	%r14
	popq	%rbp
	retq
Ltmp335:
Lfunc_end24:
	.cfi_endproc

	.p2align	4, 0x90
__ZN42_$LT$$RF$T$u20$as$u20$core..fmt..Debug$GT$3fmt17hb6d05a1d120edea2E:
Lfunc_begin25:
	.loc	1 1973 0
	.cfi_startproc
	pushq	%rbp
	.cfi_def_cfa_offset 16
	.cfi_offset %rbp, -16
	movq	%rsp, %rbp
	.cfi_def_cfa_register %rbp
Ltmp336:
	pushq	%r14
	pushq	%rbx
	subq	$32, %rsp
	.cfi_offset %rbx, -32
	.cfi_offset %r14, -24
	.loc	1 1973 71 prologue_end
	movq	(%rdi), %rbx
Ltmp337:
	.loc	2 61 18
	leaq	l___unnamed_65(%rip), %rdx
	leaq	-48(%rbp), %r14
	movl	$5, %ecx
	movq	%r14, %rdi
Ltmp338:
	callq	__ZN4core3fmt9Formatter11debug_tuple17h15ca25ad759edd1cE
Ltmp339:
	.loc	2 62 33
	movq	%rbx, -24(%rbp)
	.loc	2 61 18
	leaq	l___unnamed_7(%rip), %rdx
	leaq	-24(%rbp), %rsi
	movq	%r14, %rdi
	callq	__ZN4core3fmt8builders10DebugTuple5field17hf36121153a94f236E
	movq	%r14, %rdi
	callq	__ZN4core3fmt8builders10DebugTuple6finish17h68acf09c6f6593f2E
Ltmp340:
	.loc	1 1973 84
	addq	$32, %rsp
	popq	%rbx
	popq	%r14
	popq	%rbp
	retq
Ltmp341:
Lfunc_end25:
	.cfi_endproc

	.p2align	4, 0x90
__ZN42_$LT$$RF$T$u20$as$u20$core..fmt..Debug$GT$3fmt17hb6f79482da78ee59E:
Lfunc_begin26:
	.loc	1 1973 0
	.cfi_startproc
	pushq	%rbp
	.cfi_def_cfa_offset 16
	.cfi_offset %rbp, -16
	movq	%rsp, %rbp
	.cfi_def_cfa_register %rbp
Ltmp342:
	pushq	%r14
	pushq	%rbx
	subq	$32, %rsp
	.cfi_offset %rbx, -32
	.cfi_offset %r14, -24
	.loc	1 1973 71 prologue_end
	movq	(%rdi), %rbx
Ltmp343:
	.loc	4 151 48
	cmpq	$2, (%rbx)
	jne	LBB26_1
Ltmp344:
	.loc	4 0 48 is_stmt 0
	leaq	-48(%rbp), %r14
Ltmp345:
	.loc	4 151 48
	leaq	L___unnamed_42(%rip), %rdx
	movl	$4, %ecx
	movq	%r14, %rdi
Ltmp346:
	callq	__ZN4core3fmt9Formatter11debug_tuple17h15ca25ad759edd1cE
Ltmp347:
	.loc	4 0 48
	jmp	LBB26_3
Ltmp348:
LBB26_1:
	leaq	-48(%rbp), %r14
Ltmp349:
	.loc	4 151 48
	leaq	L___unnamed_41(%rip), %rdx
	movl	$4, %ecx
	movq	%r14, %rdi
Ltmp350:
	callq	__ZN4core3fmt9Formatter11debug_tuple17h15ca25ad759edd1cE
Ltmp351:
	.loc	4 160 56 is_stmt 1
	movq	%rbx, -24(%rbp)
	.loc	4 151 48
	leaq	l___unnamed_5(%rip), %rdx
	leaq	-24(%rbp), %rsi
	movq	%r14, %rdi
	callq	__ZN4core3fmt8builders10DebugTuple5field17hf36121153a94f236E
Ltmp352:
LBB26_3:
	.loc	4 0 0 is_stmt 0
	movq	%r14, %rdi
	callq	__ZN4core3fmt8builders10DebugTuple6finish17h68acf09c6f6593f2E
Ltmp353:
	.loc	1 1973 84 is_stmt 1
	addq	$32, %rsp
	popq	%rbx
Ltmp354:
	popq	%r14
	popq	%rbp
	retq
Ltmp355:
Lfunc_end26:
	.cfi_endproc

	.p2align	4, 0x90
__ZN42_$LT$$RF$T$u20$as$u20$core..fmt..Debug$GT$3fmt17hbb78bfb77ba4622fE:
Lfunc_begin27:
	.loc	1 1973 0
	.cfi_startproc
	pushq	%rbp
	.cfi_def_cfa_offset 16
	.cfi_offset %rbp, -16
	movq	%rsp, %rbp
	.cfi_def_cfa_register %rbp
	pushq	%r14
	pushq	%rbx
	.cfi_offset %rbx, -32
	.cfi_offset %r14, -24
	movq	%rsi, %rbx
Ltmp356:
	.loc	1 1973 71 prologue_end
	movq	(%rdi), %r14
Ltmp357:
	.loc	5 149 20
	movq	%rsi, %rdi
Ltmp358:
	callq	__ZN4core3fmt9Formatter15debug_lower_hex17h8530fbaeba13f4d9E
	.loc	5 149 17 is_stmt 0
	testb	%al, %al
	je	LBB27_1
Ltmp359:
	.loc	5 150 21 is_stmt 1
	movq	%r14, %rdi
	movq	%rbx, %rsi
	popq	%rbx
Ltmp360:
	popq	%r14
Ltmp361:
	popq	%rbp
	jmp	__ZN4core3fmt3num53_$LT$impl$u20$core..fmt..LowerHex$u20$for$u20$u64$GT$3fmt17h45355469eb7ddf8bE
LBB27_1:
Ltmp362:
	.loc	5 151 27
	movq	%rbx, %rdi
	callq	__ZN4core3fmt9Formatter15debug_upper_hex17hf8fda15ec43a1e68E
	.loc	5 154 21
	movq	%r14, %rdi
	movq	%rbx, %rsi
	.loc	5 151 24
	testb	%al, %al
	je	LBB27_4
Ltmp363:
	.loc	5 152 21
	popq	%rbx
Ltmp364:
	popq	%r14
Ltmp365:
	popq	%rbp
	jmp	__ZN4core3fmt3num53_$LT$impl$u20$core..fmt..UpperHex$u20$for$u20$u64$GT$3fmt17ha26765e3e26c1816E
LBB27_4:
Ltmp366:
	.loc	5 154 21
	popq	%rbx
Ltmp367:
	popq	%r14
Ltmp368:
	popq	%rbp
	jmp	__ZN4core3fmt3num3imp52_$LT$impl$u20$core..fmt..Display$u20$for$u20$u64$GT$3fmt17hb00db9d5e1e54df6E
Ltmp369:
Lfunc_end27:
	.cfi_endproc

	.p2align	4, 0x90
__ZN42_$LT$$RF$T$u20$as$u20$core..fmt..Debug$GT$3fmt17hbe344b60f23c0c66E:
Lfunc_begin28:
	.loc	1 1973 0
	.cfi_startproc
	pushq	%rbp
	.cfi_def_cfa_offset 16
	.cfi_offset %rbp, -16
	movq	%rsp, %rbp
	.cfi_def_cfa_register %rbp
Ltmp370:
	pushq	%r15
	pushq	%r14
	pushq	%r13
	pushq	%r12
	pushq	%rbx
	subq	$24, %rsp
	.cfi_offset %rbx, -56
	.cfi_offset %r12, -48
	.cfi_offset %r13, -40
	.cfi_offset %r14, -32
	.cfi_offset %r15, -24
	.loc	1 1973 71 prologue_end
	movq	(%rdi), %rbx
Ltmp371:
	.loc	6 184 10
	leaq	l___unnamed_66(%rip), %rdx
	leaq	-64(%rbp), %r15
	movl	$12, %ecx
	movq	%r15, %rdi
Ltmp372:
	callq	__ZN4core3fmt9Formatter12debug_struct17h985c0158d1fc7193E
Ltmp373:
	.loc	6 186 5
	movq	%rbx, -48(%rbp)
Ltmp374:
	.loc	6 187 5
	leaq	104(%rbx), %r12
	.loc	6 188 5
	leaq	106(%rbx), %r13
	.loc	6 189 5
	leaq	8(%rbx), %r14
Ltmp375:
	.loc	6 184 10
	leaq	L___unnamed_67(%rip), %rsi
	leaq	l___unnamed_1(%rip), %r8
	leaq	-48(%rbp), %rcx
	movl	$4, %edx
	movq	%r15, %rdi
	callq	__ZN4core3fmt8builders11DebugStruct5field17h9c15dc155278eed2E
	.loc	6 187 5
	movq	%r12, -48(%rbp)
	.loc	6 184 10
	leaq	l___unnamed_68(%rip), %rsi
	leaq	l___unnamed_19(%rip), %r8
	leaq	-48(%rbp), %rcx
	movl	$3, %edx
	movq	%r15, %rdi
	callq	__ZN4core3fmt8builders11DebugStruct5field17h9c15dc155278eed2E
	.loc	6 188 5
	movq	%r13, -48(%rbp)
	.loc	6 184 10
	leaq	l___unnamed_69(%rip), %rsi
	leaq	l___unnamed_20(%rip), %r8
	leaq	-48(%rbp), %rcx
	movl	$12, %edx
	movq	%r15, %rdi
	callq	__ZN4core3fmt8builders11DebugStruct5field17h9c15dc155278eed2E
	.loc	6 189 5
	movq	%r14, -48(%rbp)
	.loc	6 184 10
	leaq	l___unnamed_70(%rip), %rsi
	leaq	l___unnamed_21(%rip), %r8
	leaq	-48(%rbp), %rcx
	movl	$10, %edx
	movq	%r15, %rdi
	callq	__ZN4core3fmt8builders11DebugStruct5field17h9c15dc155278eed2E
	movq	%r15, %rdi
	callq	__ZN4core3fmt8builders11DebugStruct6finish17h26808393f3fed630E
Ltmp376:
	.loc	1 1973 84
	addq	$24, %rsp
	popq	%rbx
Ltmp377:
	popq	%r12
	popq	%r13
	popq	%r14
	popq	%r15
	popq	%rbp
	retq
Ltmp378:
Lfunc_end28:
	.cfi_endproc

	.p2align	4, 0x90
__ZN42_$LT$$RF$T$u20$as$u20$core..fmt..Debug$GT$3fmt17hcff88ccb1e37348eE:
Lfunc_begin29:
	.loc	1 1973 0
	.cfi_startproc
	pushq	%rbp
	.cfi_def_cfa_offset 16
	.cfi_offset %rbp, -16
	movq	%rsp, %rbp
	.cfi_def_cfa_register %rbp
Ltmp379:
	pushq	%r14
	pushq	%rbx
	subq	$32, %rsp
	.cfi_offset %rbx, -32
	.cfi_offset %r14, -24
	.loc	1 1973 71 prologue_end
	movq	(%rdi), %rbx
Ltmp380:
	.loc	2 61 18
	leaq	l___unnamed_71(%rip), %rdx
	leaq	-48(%rbp), %r14
	movl	$6, %ecx
	movq	%r14, %rdi
Ltmp381:
	callq	__ZN4core3fmt9Formatter11debug_tuple17h15ca25ad759edd1cE
Ltmp382:
	.loc	2 62 33
	movq	%rbx, -24(%rbp)
	.loc	2 61 18
	leaq	l___unnamed_9(%rip), %rdx
	leaq	-24(%rbp), %rsi
	movq	%r14, %rdi
	callq	__ZN4core3fmt8builders10DebugTuple5field17hf36121153a94f236E
	movq	%r14, %rdi
	callq	__ZN4core3fmt8builders10DebugTuple6finish17h68acf09c6f6593f2E
Ltmp383:
	.loc	1 1973 84
	addq	$32, %rsp
	popq	%rbx
	popq	%r14
	popq	%rbp
	retq
Ltmp384:
Lfunc_end29:
	.cfi_endproc

	.p2align	4, 0x90
__ZN42_$LT$$RF$T$u20$as$u20$core..fmt..Debug$GT$3fmt17hdf0756a88a27af83E:
Lfunc_begin30:
	.loc	1 1973 0
	.cfi_startproc
	pushq	%rbp
	.cfi_def_cfa_offset 16
	.cfi_offset %rbp, -16
	movq	%rsp, %rbp
	.cfi_def_cfa_register %rbp
Ltmp385:
	.loc	1 1973 71 prologue_end
	movq	(%rdi), %rdi
Ltmp386:
	.loc	1 1973 62 is_stmt 0
	popq	%rbp
	jmp	__ZN4core3fmt5float50_$LT$impl$u20$core..fmt..Debug$u20$for$u20$f32$GT$3fmt17h1aed94fea29f73c8E
Ltmp387:
Lfunc_end30:
	.cfi_endproc

	.p2align	4, 0x90
__ZN42_$LT$$RF$T$u20$as$u20$core..fmt..Debug$GT$3fmt17hdf0aa95ed8a9c3d9E:
Lfunc_begin31:
	.loc	1 1973 0 is_stmt 1
	.cfi_startproc
	pushq	%rbp
	.cfi_def_cfa_offset 16
	.cfi_offset %rbp, -16
	movq	%rsp, %rbp
	.cfi_def_cfa_register %rbp
	pushq	%r14
	pushq	%rbx
	.cfi_offset %rbx, -32
	.cfi_offset %r14, -24
	movq	%rsi, %rbx
Ltmp388:
	.loc	1 1973 71 prologue_end
	movq	(%rdi), %r14
Ltmp389:
	.loc	5 149 20
	movq	%rsi, %rdi
Ltmp390:
	callq	__ZN4core3fmt9Formatter15debug_lower_hex17h8530fbaeba13f4d9E
	.loc	5 149 17 is_stmt 0
	testb	%al, %al
	je	LBB31_1
Ltmp391:
	.loc	5 150 21 is_stmt 1
	movq	%r14, %rdi
	movq	%rbx, %rsi
	popq	%rbx
Ltmp392:
	popq	%r14
Ltmp393:
	popq	%rbp
	jmp	__ZN4core3fmt3num53_$LT$impl$u20$core..fmt..LowerHex$u20$for$u20$u32$GT$3fmt17h6f8627d2574097eeE
LBB31_1:
Ltmp394:
	.loc	5 151 27
	movq	%rbx, %rdi
	callq	__ZN4core3fmt9Formatter15debug_upper_hex17hf8fda15ec43a1e68E
	.loc	5 154 21
	movq	%r14, %rdi
	movq	%rbx, %rsi
	.loc	5 151 24
	testb	%al, %al
	je	LBB31_4
Ltmp395:
	.loc	5 152 21
	popq	%rbx
Ltmp396:
	popq	%r14
Ltmp397:
	popq	%rbp
	jmp	__ZN4core3fmt3num53_$LT$impl$u20$core..fmt..UpperHex$u20$for$u20$u32$GT$3fmt17hfea5795b8018329eE
LBB31_4:
Ltmp398:
	.loc	5 154 21
	popq	%rbx
Ltmp399:
	popq	%r14
Ltmp400:
	popq	%rbp
	jmp	__ZN4core3fmt3num3imp52_$LT$impl$u20$core..fmt..Display$u20$for$u20$u32$GT$3fmt17h8cb3163b2d7e102aE
Ltmp401:
Lfunc_end31:
	.cfi_endproc

	.p2align	4, 0x90
__ZN42_$LT$$RF$T$u20$as$u20$core..fmt..Debug$GT$3fmt17hdf34344dd77d8dc3E:
Lfunc_begin32:
	.loc	1 1973 0
	.cfi_startproc
	pushq	%rbp
	.cfi_def_cfa_offset 16
	.cfi_offset %rbp, -16
	movq	%rsp, %rbp
	.cfi_def_cfa_register %rbp
Ltmp402:
	pushq	%r14
	pushq	%rbx
	subq	$32, %rsp
	.cfi_offset %rbx, -32
	.cfi_offset %r14, -24
	.loc	1 1973 71 prologue_end
	movq	(%rdi), %rbx
Ltmp403:
	.loc	4 151 48
	cmpq	$2, 8(%rbx)
	jne	LBB32_1
Ltmp404:
	.loc	4 0 48 is_stmt 0
	leaq	-48(%rbp), %r14
Ltmp405:
	.loc	4 151 48
	leaq	L___unnamed_42(%rip), %rdx
	movl	$4, %ecx
	movq	%r14, %rdi
Ltmp406:
	callq	__ZN4core3fmt9Formatter11debug_tuple17h15ca25ad759edd1cE
Ltmp407:
	.loc	4 0 48
	jmp	LBB32_3
Ltmp408:
LBB32_1:
	leaq	-48(%rbp), %r14
Ltmp409:
	.loc	4 151 48
	leaq	L___unnamed_41(%rip), %rdx
	movl	$4, %ecx
	movq	%r14, %rdi
Ltmp410:
	callq	__ZN4core3fmt9Formatter11debug_tuple17h15ca25ad759edd1cE
Ltmp411:
	.loc	4 160 56 is_stmt 1
	movq	%rbx, -24(%rbp)
	.loc	4 151 48
	leaq	l___unnamed_6(%rip), %rdx
	leaq	-24(%rbp), %rsi
	movq	%r14, %rdi
	callq	__ZN4core3fmt8builders10DebugTuple5field17hf36121153a94f236E
Ltmp412:
LBB32_3:
	.loc	4 0 0 is_stmt 0
	movq	%r14, %rdi
	callq	__ZN4core3fmt8builders10DebugTuple6finish17h68acf09c6f6593f2E
Ltmp413:
	.loc	1 1973 84 is_stmt 1
	addq	$32, %rsp
	popq	%rbx
Ltmp414:
	popq	%r14
	popq	%rbp
	retq
Ltmp415:
Lfunc_end32:
	.cfi_endproc

	.p2align	4, 0x90
__ZN42_$LT$$RF$T$u20$as$u20$core..fmt..Debug$GT$3fmt17he6f849303d3778b7E:
Lfunc_begin33:
	.loc	1 1973 0
	.cfi_startproc
	pushq	%rbp
	.cfi_def_cfa_offset 16
	.cfi_offset %rbp, -16
	movq	%rsp, %rbp
	.cfi_def_cfa_register %rbp
Ltmp416:
	pushq	%r15
	pushq	%r14
	pushq	%r12
	pushq	%rbx
	subq	$32, %rsp
	.cfi_offset %rbx, -48
	.cfi_offset %r12, -40
	.cfi_offset %r14, -32
	.cfi_offset %r15, -24
	.loc	1 1973 71 prologue_end
	movq	(%rdi), %rbx
Ltmp417:
	.loc	6 377 5
	leaq	8(%rbx), %r15
Ltmp418:
	.loc	6 378 5
	leaq	10(%rbx), %r12
Ltmp419:
	.loc	6 375 10
	leaq	l___unnamed_72(%rip), %rdx
	leaq	-56(%rbp), %r14
	movl	$22, %ecx
	movq	%r14, %rdi
Ltmp420:
	callq	__ZN4core3fmt9Formatter12debug_struct17h985c0158d1fc7193E
Ltmp421:
	.loc	6 377 5
	movq	%r15, -40(%rbp)
	.loc	6 375 10
	leaq	L___unnamed_73(%rip), %rsi
	leaq	l___unnamed_22(%rip), %r8
	leaq	-40(%rbp), %rcx
	movl	$4, %edx
	movq	%r14, %rdi
	callq	__ZN4core3fmt8builders11DebugStruct5field17h9c15dc155278eed2E
	.loc	6 378 5
	movq	%r12, -40(%rbp)
	.loc	6 375 10
	leaq	L___unnamed_74(%rip), %rsi
	leaq	l___unnamed_23(%rip), %r8
	leaq	-40(%rbp), %rcx
	movl	$4, %edx
	movq	%r14, %rdi
	callq	__ZN4core3fmt8builders11DebugStruct5field17h9c15dc155278eed2E
	.loc	6 379 5
	movq	%rbx, -40(%rbp)
	.loc	6 375 10
	leaq	l___unnamed_75(%rip), %rsi
	leaq	l___unnamed_24(%rip), %r8
	leaq	-40(%rbp), %rcx
	movl	$20, %edx
	movq	%r14, %rdi
	callq	__ZN4core3fmt8builders11DebugStruct5field17h9c15dc155278eed2E
	movq	%r14, %rdi
	callq	__ZN4core3fmt8builders11DebugStruct6finish17h26808393f3fed630E
Ltmp422:
	.loc	1 1973 84
	addq	$32, %rsp
	popq	%rbx
Ltmp423:
	popq	%r12
Ltmp424:
	popq	%r14
	popq	%r15
Ltmp425:
	popq	%rbp
	retq
Ltmp426:
Lfunc_end33:
	.cfi_endproc

	.p2align	4, 0x90
__ZN42_$LT$$RF$T$u20$as$u20$core..fmt..Debug$GT$3fmt17he8454a129d253d38E:
Lfunc_begin34:
	.loc	1 1973 0
	.cfi_startproc
	pushq	%rbp
	.cfi_def_cfa_offset 16
	.cfi_offset %rbp, -16
	movq	%rsp, %rbp
	.cfi_def_cfa_register %rbp
	pushq	%r14
	pushq	%rbx
	.cfi_offset %rbx, -32
	.cfi_offset %r14, -24
	movq	%rsi, %rbx
Ltmp427:
	.loc	1 1973 71 prologue_end
	movq	(%rdi), %r14
Ltmp428:
	.loc	5 149 20
	movq	%rsi, %rdi
Ltmp429:
	callq	__ZN4core3fmt9Formatter15debug_lower_hex17h8530fbaeba13f4d9E
	.loc	5 149 17 is_stmt 0
	testb	%al, %al
	je	LBB34_1
Ltmp430:
	.loc	5 150 21 is_stmt 1
	movq	%r14, %rdi
	movq	%rbx, %rsi
	popq	%rbx
Ltmp431:
	popq	%r14
Ltmp432:
	popq	%rbp
	jmp	__ZN4core3fmt3num52_$LT$impl$u20$core..fmt..LowerHex$u20$for$u20$i8$GT$3fmt17h7f7e9f270a5d54c2E
LBB34_1:
Ltmp433:
	.loc	5 151 27
	movq	%rbx, %rdi
	callq	__ZN4core3fmt9Formatter15debug_upper_hex17hf8fda15ec43a1e68E
	.loc	5 154 21
	movq	%r14, %rdi
	movq	%rbx, %rsi
	.loc	5 151 24
	testb	%al, %al
	je	LBB34_4
Ltmp434:
	.loc	5 152 21
	popq	%rbx
Ltmp435:
	popq	%r14
Ltmp436:
	popq	%rbp
	jmp	__ZN4core3fmt3num52_$LT$impl$u20$core..fmt..UpperHex$u20$for$u20$i8$GT$3fmt17hd41115610f011194E
LBB34_4:
Ltmp437:
	.loc	5 154 21
	popq	%rbx
Ltmp438:
	popq	%r14
Ltmp439:
	popq	%rbp
	jmp	__ZN4core3fmt3num3imp51_$LT$impl$u20$core..fmt..Display$u20$for$u20$i8$GT$3fmt17hc80f24a4257c3563E
Ltmp440:
Lfunc_end34:
	.cfi_endproc

	.p2align	4, 0x90
__ZN42_$LT$$RF$T$u20$as$u20$core..fmt..Debug$GT$3fmt17hf52fed397c6a0861E:
Lfunc_begin35:
	.loc	1 1973 0
	.cfi_startproc
	pushq	%rbp
	.cfi_def_cfa_offset 16
	.cfi_offset %rbp, -16
	movq	%rsp, %rbp
	.cfi_def_cfa_register %rbp
Ltmp441:
	pushq	%r14
	pushq	%rbx
	subq	$32, %rsp
	.cfi_offset %rbx, -32
	.cfi_offset %r14, -24
	.loc	1 1973 71 prologue_end
	movq	(%rdi), %rbx
Ltmp442:
	.loc	2 61 18
	leaq	l___unnamed_76(%rip), %rdx
	leaq	-48(%rbp), %r14
	movl	$5, %ecx
	movq	%r14, %rdi
Ltmp443:
	callq	__ZN4core3fmt9Formatter11debug_tuple17h15ca25ad759edd1cE
Ltmp444:
	.loc	2 62 33
	movq	%rbx, -24(%rbp)
	.loc	2 61 18
	leaq	l___unnamed_7(%rip), %rdx
	leaq	-24(%rbp), %rsi
	movq	%r14, %rdi
	callq	__ZN4core3fmt8builders10DebugTuple5field17hf36121153a94f236E
	movq	%r14, %rdi
	callq	__ZN4core3fmt8builders10DebugTuple6finish17h68acf09c6f6593f2E
Ltmp445:
	.loc	1 1973 84
	addq	$32, %rsp
	popq	%rbx
	popq	%r14
	popq	%rbp
	retq
Ltmp446:
Lfunc_end35:
	.cfi_endproc

	.p2align	4, 0x90
__ZN42_$LT$$RF$T$u20$as$u20$core..fmt..Debug$GT$3fmt17hfeeafebc7851ace9E:
Lfunc_begin36:
	.loc	1 1973 0
	.cfi_startproc
	pushq	%rbp
	.cfi_def_cfa_offset 16
	.cfi_offset %rbp, -16
	movq	%rsp, %rbp
	.cfi_def_cfa_register %rbp
Ltmp447:
	.loc	1 1973 71 prologue_end
	movq	(%rdi), %rdi
Ltmp448:
	.loc	1 2003 9
	popq	%rbp
	jmp	__ZN43_$LT$bool$u20$as$u20$core..fmt..Display$GT$3fmt17hf36463fa8b480ab4E
Ltmp449:
Lfunc_end36:
	.cfi_endproc

	.p2align	4, 0x90
__ZN44_$LT$$RF$T$u20$as$u20$core..fmt..Display$GT$3fmt17he33434ed9f8028b0E:
Lfunc_begin37:
	.loc	1 1973 0
	.cfi_startproc
	pushq	%rbp
	.cfi_def_cfa_offset 16
	.cfi_offset %rbp, -16
	movq	%rsp, %rbp
	.cfi_def_cfa_register %rbp
	movq	%rsi, %rdx
Ltmp450:
	.loc	1 1973 71 prologue_end
	movq	(%rdi), %rax
	movq	8(%rdi), %rsi
	.loc	1 1973 62 is_stmt 0
	movq	%rax, %rdi
Ltmp451:
	popq	%rbp
	jmp	__ZN42_$LT$str$u20$as$u20$core..fmt..Display$GT$3fmt17hd4dee1c1c4ccf892E
Ltmp452:
Lfunc_end37:
	.cfi_endproc

	.p2align	4, 0x90
__ZN4core3ptr13drop_in_place17h1a28479a3832b68bE:
Lfunc_begin38:
	.loc	16 178 0 is_stmt 1
	.cfi_startproc
	pushq	%rbp
	.cfi_def_cfa_offset 16
	.cfi_offset %rbp, -16
	movq	%rsp, %rbp
	.cfi_def_cfa_register %rbp
Ltmp453:
	.loc	16 178 1 prologue_end
	popq	%rbp
	retq
Ltmp454:
Lfunc_end38:
	.cfi_endproc

	.p2align	4, 0x90
__ZN4core3ptr13drop_in_place17h465cbcefdbe34ca2E:
Lfunc_begin39:
	.loc	16 178 0
	.cfi_startproc
	pushq	%rbp
	.cfi_def_cfa_offset 16
	.cfi_offset %rbp, -16
	movq	%rsp, %rbp
	.cfi_def_cfa_register %rbp
Ltmp455:
	.loc	16 178 1 prologue_end
	movq	8(%rdi), %rsi
Ltmp456:
	.file	22 "/rustc/a74d1862d4d87a56244958416fd05976c58ca1a8/src/liballoc/raw_vec.rs"
	.loc	22 200 40
	testq	%rsi, %rsi
	.loc	22 200 9 is_stmt 0
	je	LBB39_3
Ltmp457:
	.loc	16 0 0
	movq	(%rdi), %rdi
Ltmp458:
	.loc	22 532 16 is_stmt 1
	testq	%rdi, %rdi
Ltmp459:
	je	LBB39_3
Ltmp460:
	.loc	22 0 0 is_stmt 0
	shlq	$4, %rsi
Ltmp461:
	.loc	22 532 16
	je	LBB39_3
Ltmp462:
	.file	23 "/rustc/a74d1862d4d87a56244958416fd05976c58ca1a8/src/liballoc/alloc.rs"
	.loc	23 102 5 is_stmt 1
	movl	$8, %edx
	popq	%rbp
	jmp	___rust_dealloc
Ltmp463:
LBB39_3:
	.loc	16 178 1
	popq	%rbp
	retq
Ltmp464:
Lfunc_end39:
	.cfi_endproc

	.p2align	4, 0x90
__ZN4core3ptr13drop_in_place17h64e0ffa1af7c87f4E:
Lfunc_begin40:
	.loc	16 178 0
	.cfi_startproc
	pushq	%rbp
	.cfi_def_cfa_offset 16
	.cfi_offset %rbp, -16
	movq	%rsp, %rbp
	.cfi_def_cfa_register %rbp
	movq	%rdi, %rax
Ltmp465:
	.loc	16 178 1 prologue_end
	movq	(%rdi), %rdi
Ltmp466:
	.loc	22 532 16
	testq	%rdi, %rdi
Ltmp467:
	.loc	22 200 9
	je	LBB40_2
Ltmp468:
	.loc	16 0 0 is_stmt 0
	movq	8(%rax), %rsi
Ltmp469:
	.loc	22 200 9
	testq	%rsi, %rsi
	je	LBB40_2
Ltmp470:
	.loc	23 102 5 is_stmt 1
	movl	$1, %edx
	popq	%rbp
	jmp	___rust_dealloc
Ltmp471:
LBB40_2:
	.loc	16 178 1
	popq	%rbp
	retq
Ltmp472:
Lfunc_end40:
	.cfi_endproc

	.p2align	4, 0x90
__ZN4core3ptr13drop_in_place17h736fb9dde5b0babfE:
Lfunc_begin41:
	.loc	16 178 0
	.cfi_startproc
	pushq	%rbp
	.cfi_def_cfa_offset 16
	.cfi_offset %rbp, -16
	movq	%rsp, %rbp
	.cfi_def_cfa_register %rbp
Ltmp473:
	.loc	16 178 1 prologue_end
	cmpq	$0, (%rdi)
	je	LBB41_4
Ltmp474:
	.loc	16 178 1 is_stmt 0
	movq	16(%rdi), %rsi
Ltmp475:
	.loc	22 200 40 is_stmt 1
	testq	%rsi, %rsi
	.loc	22 200 9 is_stmt 0
	je	LBB41_4
Ltmp476:
	.loc	16 0 0
	movq	8(%rdi), %rdi
Ltmp477:
	.loc	22 532 16 is_stmt 1
	testq	%rdi, %rdi
Ltmp478:
	je	LBB41_4
Ltmp479:
	.loc	22 0 0 is_stmt 0
	shlq	$4, %rsi
Ltmp480:
	.loc	22 532 16
	je	LBB41_4
Ltmp481:
	.loc	23 102 5 is_stmt 1
	movl	$8, %edx
	popq	%rbp
	jmp	___rust_dealloc
Ltmp482:
LBB41_4:
	.loc	16 178 1
	popq	%rbp
	retq
Ltmp483:
Lfunc_end41:
	.cfi_endproc

	.p2align	4, 0x90
__ZN4core3ptr13drop_in_place17hf1edb6823efa869dE:
Lfunc_begin42:
	.loc	16 178 0
	.cfi_startproc
	pushq	%rbp
	.cfi_def_cfa_offset 16
	.cfi_offset %rbp, -16
	movq	%rsp, %rbp
	.cfi_def_cfa_register %rbp
Ltmp484:
	.loc	16 178 1 prologue_end
	cmpq	$0, 8(%rdi)
	je	LBB42_4
Ltmp485:
	.loc	16 178 1 is_stmt 0
	movq	24(%rdi), %rsi
Ltmp486:
	.loc	22 200 40 is_stmt 1
	testq	%rsi, %rsi
	.loc	22 200 9 is_stmt 0
	je	LBB42_4
Ltmp487:
	.loc	16 0 0
	movq	16(%rdi), %rdi
Ltmp488:
	.loc	22 532 16 is_stmt 1
	testq	%rdi, %rdi
Ltmp489:
	je	LBB42_4
Ltmp490:
	.loc	22 0 0 is_stmt 0
	shlq	$4, %rsi
Ltmp491:
	.loc	22 532 16
	je	LBB42_4
Ltmp492:
	.loc	23 102 5 is_stmt 1
	movl	$8, %edx
	popq	%rbp
	jmp	___rust_dealloc
Ltmp493:
LBB42_4:
	.loc	16 178 1
	popq	%rbp
	retq
Ltmp494:
Lfunc_end42:
	.cfi_endproc

	.p2align	4, 0x90
__ZN5alloc3vec12Vec$LT$T$GT$7reserve17he206ec2985328f41E:
Lfunc_begin43:
	.loc	7 499 0
	.cfi_startproc
	pushq	%rbp
	.cfi_def_cfa_offset 16
	.cfi_offset %rbp, -16
	movq	%rsp, %rbp
	.cfi_def_cfa_register %rbp
	pushq	%r14
	pushq	%rbx
	.cfi_offset %rbx, -32
	.cfi_offset %r14, -24
	movq	%rsi, %rcx
Ltmp495:
	.loc	22 280 12 prologue_end
	movq	8(%rdi), %rsi
Ltmp496:
	.loc	7 500 26
	movq	16(%rdi), %rax
Ltmp497:
	.loc	21 3343 17
	movq	%rsi, %rdx
	subq	%rax, %rdx
Ltmp498:
	.loc	22 378 9
	cmpq	%rcx, %rdx
Ltmp499:
	.loc	22 280 9
	jae	LBB43_18
Ltmp500:
	.loc	21 3632 30
	addq	%rcx, %rax
Ltmp501:
	.loc	4 540 13
	jb	LBB43_19
Ltmp502:
	.loc	4 0 13 is_stmt 0
	movq	%rdi, %rbx
Ltmp503:
	.loc	22 414 26 is_stmt 1
	leaq	(%rsi,%rsi), %rcx
Ltmp504:
	.file	24 "/rustc/a74d1862d4d87a56244958416fd05976c58ca1a8/src/libcore/cmp.rs"
	.loc	24 1017 9
	cmpq	%rax, %rcx
	.loc	24 0 0 is_stmt 0
	cmovaq	%rcx, %rax
Ltmp505:
	movl	$16, %edx
Ltmp506:
	.file	25 "/rustc/a74d1862d4d87a56244958416fd05976c58ca1a8/src/libcore/alloc/layout.rs"
	.loc	25 250 85 is_stmt 1
	xorl	%ecx, %ecx
Ltmp507:
	.loc	21 3688 26
	mulq	%rdx
Ltmp508:
	movq	%rax, %r14
Ltmp509:
	.loc	21 0 26 is_stmt 0
	seto	%dl
Ltmp510:
	.loc	25 250 85 is_stmt 1
	setno	%dil
Ltmp511:
	.loc	22 200 9
	movq	%rsi, %rax
	.loc	22 200 40 is_stmt 0
	testq	%rsi, %rsi
	.loc	22 200 9
	je	LBB43_4
Ltmp512:
	.loc	22 0 9
	movq	(%rbx), %rax
Ltmp513:
LBB43_4:
	.loc	17 611 13 is_stmt 1
	testb	%dl, %dl
	jne	LBB43_19
Ltmp514:
	.loc	22 489 25
	testq	%rax, %rax
	je	LBB43_12
Ltmp515:
	.loc	22 0 0 is_stmt 0
	shlq	$4, %rsi
Ltmp516:
	.loc	23 205 12 is_stmt 1
	cmpq	%r14, %rsi
	.loc	23 205 9 is_stmt 0
	je	LBB43_16
Ltmp517:
	.loc	23 211 42 is_stmt 1
	testq	%rsi, %rsi
	je	LBB43_8
Ltmp518:
	.loc	23 124 5
	movl	$8, %edx
	movq	%rax, %rdi
	movq	%r14, %rcx
	callq	___rust_realloc
Ltmp519:
	.loc	17 611 13
	testq	%rax, %rax
	jne	LBB43_17
	jmp	LBB43_20
Ltmp520:
LBB43_12:
	.loc	22 0 0 is_stmt 0
	movb	%dil, %cl
	shlq	$3, %rcx
Ltmp521:
	.loc	23 170 16 is_stmt 1
	testq	%r14, %r14
	.loc	23 170 13 is_stmt 0
	je	LBB43_13
Ltmp522:
	.loc	23 80 5 is_stmt 1
	movq	%r14, %rdi
	movq	%rcx, %rsi
	jmp	LBB43_15
Ltmp523:
LBB43_13:
	.loc	22 0 0 is_stmt 0
	movq	%rcx, %rax
Ltmp524:
	.loc	17 611 13 is_stmt 1
	testq	%rax, %rax
	jne	LBB43_17
	jmp	LBB43_20
Ltmp525:
LBB43_8:
	.loc	23 170 16
	testq	%r14, %r14
	.loc	23 170 13 is_stmt 0
	je	LBB43_9
Ltmp526:
	.loc	23 80 5 is_stmt 1
	movl	$8, %esi
Ltmp527:
	movq	%r14, %rdi
Ltmp528:
LBB43_15:
	.loc	22 0 0 is_stmt 0
	callq	___rust_alloc
Ltmp529:
LBB43_16:
	.loc	17 611 13 is_stmt 1
	testq	%rax, %rax
	je	LBB43_20
Ltmp530:
LBB43_17:
	.loc	22 387 9
	movq	%rax, (%rbx)
Ltmp531:
	.loc	22 383 9
	shrq	$4, %r14
Ltmp532:
	.loc	22 388 9
	movq	%r14, 8(%rbx)
Ltmp533:
LBB43_18:
	.loc	7 501 6
	popq	%rbx
	popq	%r14
	popq	%rbp
	retq
LBB43_9:
Ltmp534:
	.loc	7 0 6 is_stmt 0
	movl	$8, %eax
Ltmp535:
	jmp	LBB43_17
Ltmp536:
LBB43_19:
	.loc	22 268 38 is_stmt 1
	callq	__ZN5alloc7raw_vec17capacity_overflow17h023f34f5bc34c61fE
LBB43_20:
Ltmp537:
	.loc	22 269 47
	movl	$8, %esi
	movq	%r14, %rdi
	callq	__ZN5alloc5alloc18handle_alloc_error17hbc0ab0ed90816c07E
Ltmp538:
Lfunc_end43:
	.cfi_endproc

	.p2align	4, 0x90
__ZN5alloc7raw_vec19RawVec$LT$T$C$A$GT$11allocate_in28_$u7b$$u7b$closure$u7d$$u7d$17h65da8e735cec975bE:
Lfunc_begin44:
	.loc	22 152 0
	.cfi_startproc
	pushq	%rbp
	.cfi_def_cfa_offset 16
	.cfi_offset %rbp, -16
	movq	%rsp, %rbp
	.cfi_def_cfa_register %rbp
Ltmp539:
	.loc	22 152 71 prologue_end
	callq	__ZN5alloc5alloc18handle_alloc_error17hbc0ab0ed90816c07E
Ltmp540:
Lfunc_end44:
	.cfi_endproc

	.globl	__ZN70_$LT$gimli..common..LineEncoding$u20$as$u20$core..default..Default$GT$7default17h78500d682ce67c62E
	.p2align	4, 0x90
__ZN70_$LT$gimli..common..LineEncoding$u20$as$u20$core..default..Default$GT$7default17h78500d682ce67c62E:
Lfunc_begin45:
	.loc	12 71 0
	.cfi_startproc
	pushq	%rbp
	.cfi_def_cfa_offset 16
	.cfi_offset %rbp, -16
	movq	%rsp, %rbp
	.cfi_def_cfa_register %rbp
	movabsq	$64340689153, %rax
Ltmp541:
	.loc	12 80 6 prologue_end
	popq	%rbp
	retq
Ltmp542:
Lfunc_end45:
	.cfi_endproc

	.globl	__ZN5gimli6common9SectionId4name17h5f4f4706c2944945E
	.p2align	4, 0x90
__ZN5gimli6common9SectionId4name17h5f4f4706c2944945E:
Lfunc_begin46:
	.loc	12 246 0
	.cfi_startproc
	pushq	%rbp
	.cfi_def_cfa_offset 16
	.cfi_offset %rbp, -16
	movq	%rsp, %rbp
	.cfi_def_cfa_register %rbp
Ltmp543:
	movl	$12, %edx
	leaq	l___unnamed_77(%rip), %rax
Ltmp544:
	.loc	12 248 13 prologue_end
	movzbl	%dil, %ecx
	leaq	LJTI46_0(%rip), %rsi
	movslq	(%rsi,%rcx,4), %rcx
	addq	%rsi, %rcx
	jmpq	*%rcx
Ltmp545:
LBB46_1:
	.loc	12 0 13 is_stmt 0
	movl	$13, %edx
	leaq	l___unnamed_78(%rip), %rax
	.loc	12 269 6 is_stmt 1
	popq	%rbp
	retq
Ltmp546:
LBB46_2:
	.loc	12 0 6 is_stmt 0
	movl	$11, %edx
	leaq	l___unnamed_79(%rip), %rax
	.loc	12 269 6
	popq	%rbp
	retq
Ltmp547:
LBB46_3:
	.loc	12 0 6
	movl	$14, %edx
	leaq	l___unnamed_80(%rip), %rax
	.loc	12 269 6
	popq	%rbp
	retq
Ltmp548:
LBB46_4:
	.loc	12 0 6
	leaq	l___unnamed_81(%rip), %rax
	.loc	12 269 6
	popq	%rbp
	retq
Ltmp549:
LBB46_5:
	.loc	12 0 6
	movl	$9, %edx
	leaq	l___unnamed_82(%rip), %rax
	.loc	12 269 6
	popq	%rbp
	retq
Ltmp550:
LBB46_6:
	.loc	12 0 6
	movl	$13, %edx
	leaq	l___unnamed_83(%rip), %rax
	.loc	12 269 6
	popq	%rbp
	retq
Ltmp551:
LBB46_7:
	.loc	12 0 6
	movl	$11, %edx
	leaq	l___unnamed_84(%rip), %rax
	.loc	12 269 6
	popq	%rbp
	retq
Ltmp552:
LBB46_8:
	.loc	12 0 6
	movl	$11, %edx
	leaq	l___unnamed_85(%rip), %rax
	.loc	12 269 6
	popq	%rbp
	retq
Ltmp553:
LBB46_9:
	.loc	12 0 6
	movl	$15, %edx
	leaq	l___unnamed_86(%rip), %rax
	.loc	12 269 6
	popq	%rbp
	retq
Ltmp554:
LBB46_10:
	.loc	12 0 6
	movl	$10, %edx
	leaq	l___unnamed_87(%rip), %rax
	.loc	12 269 6
	popq	%rbp
	retq
Ltmp555:
LBB46_11:
	.loc	12 0 6
	movl	$15, %edx
	leaq	l___unnamed_88(%rip), %rax
	.loc	12 269 6
	popq	%rbp
	retq
Ltmp556:
LBB46_12:
	.loc	12 0 6
	movl	$14, %edx
	leaq	l___unnamed_89(%rip), %rax
	.loc	12 269 6
	popq	%rbp
	retq
Ltmp557:
LBB46_13:
	.loc	12 0 6
	leaq	l___unnamed_90(%rip), %rax
	.loc	12 269 6
	popq	%rbp
	retq
Ltmp558:
LBB46_14:
	.loc	12 0 6
	movl	$15, %edx
	leaq	l___unnamed_91(%rip), %rax
	.loc	12 269 6
	popq	%rbp
	retq
Ltmp559:
LBB46_15:
	.loc	12 0 6
	movl	$15, %edx
	leaq	l___unnamed_92(%rip), %rax
	.loc	12 269 6
	popq	%rbp
	retq
Ltmp560:
LBB46_16:
	.loc	12 0 6
	movl	$13, %edx
	leaq	l___unnamed_93(%rip), %rax
	.loc	12 269 6
	popq	%rbp
	retq
Ltmp561:
LBB46_17:
	.loc	12 0 6
	movl	$15, %edx
	leaq	l___unnamed_94(%rip), %rax
	.loc	12 269 6
	popq	%rbp
	retq
Ltmp562:
LBB46_18:
	.loc	12 0 6
	movl	$10, %edx
	leaq	l___unnamed_95(%rip), %rax
	.loc	12 269 6
	popq	%rbp
	retq
Ltmp563:
LBB46_19:
	.loc	12 0 6
	movl	$18, %edx
	leaq	l___unnamed_96(%rip), %rax
Ltmp564:
LBB46_20:
	.loc	12 269 6
	popq	%rbp
	retq
Ltmp565:
Lfunc_end46:
	.cfi_endproc
	.p2align	2, 0x90
	.data_region jt32
.set L46_0_set_1, LBB46_1-LJTI46_0
.set L46_0_set_2, LBB46_2-LJTI46_0
.set L46_0_set_3, LBB46_3-LJTI46_0
.set L46_0_set_4, LBB46_4-LJTI46_0
.set L46_0_set_5, LBB46_5-LJTI46_0
.set L46_0_set_6, LBB46_6-LJTI46_0
.set L46_0_set_7, LBB46_7-LJTI46_0
.set L46_0_set_8, LBB46_8-LJTI46_0
.set L46_0_set_9, LBB46_9-LJTI46_0
.set L46_0_set_10, LBB46_10-LJTI46_0
.set L46_0_set_11, LBB46_11-LJTI46_0
.set L46_0_set_12, LBB46_12-LJTI46_0
.set L46_0_set_13, LBB46_13-LJTI46_0
.set L46_0_set_14, LBB46_14-LJTI46_0
.set L46_0_set_15, LBB46_15-LJTI46_0
.set L46_0_set_16, LBB46_16-LJTI46_0
.set L46_0_set_17, LBB46_17-LJTI46_0
.set L46_0_set_18, LBB46_18-LJTI46_0
.set L46_0_set_19, LBB46_19-LJTI46_0
.set L46_0_set_20, LBB46_20-LJTI46_0
LJTI46_0:
	.long	L46_0_set_1
	.long	L46_0_set_2
	.long	L46_0_set_3
	.long	L46_0_set_4
	.long	L46_0_set_5
	.long	L46_0_set_6
	.long	L46_0_set_7
	.long	L46_0_set_8
	.long	L46_0_set_9
	.long	L46_0_set_10
	.long	L46_0_set_11
	.long	L46_0_set_12
	.long	L46_0_set_13
	.long	L46_0_set_14
	.long	L46_0_set_15
	.long	L46_0_set_16
	.long	L46_0_set_17
	.long	L46_0_set_18
	.long	L46_0_set_19
	.long	L46_0_set_20
	.end_data_region

	.globl	__ZN5gimli6common9SectionId8dwo_name17h0d56e7c6bf68d5e3E
	.p2align	4, 0x90
__ZN5gimli6common9SectionId8dwo_name17h0d56e7c6bf68d5e3E:
Lfunc_begin47:
	.loc	12 272 0 is_stmt 1
	.cfi_startproc
	xorl	%eax, %eax
Ltmp566:
	.loc	12 274 13 prologue_end
	cmpb	$18, %dil
	ja	LBB47_1
Ltmp567:
	pushq	%rbp
	.cfi_def_cfa_offset 16
	.cfi_offset %rbp, -16
	movq	%rsp, %rbp
	.cfi_def_cfa_register %rbp
	movl	$17, %edx
	leaq	l___unnamed_97(%rip), %rcx
	movzbl	%dil, %esi
	leaq	LJTI47_0(%rip), %rdi
Ltmp568:
	.loc	12 0 13 is_stmt 0
	movslq	(%rdi,%rsi,4), %rsi
	addq	%rdi, %rsi
	popq	%rbp
	jmpq	*%rsi
LBB47_3:
	movl	$15, %edx
	leaq	l___unnamed_98(%rip), %rcx
	jmp	LBB47_9
LBB47_7:
	movl	$14, %edx
	leaq	l___unnamed_99(%rip), %rcx
	jmp	LBB47_9
LBB47_4:
	movl	$15, %edx
	leaq	l___unnamed_100(%rip), %rcx
	jmp	LBB47_9
LBB47_5:
	movl	$19, %edx
	leaq	l___unnamed_101(%rip), %rcx
	jmp	LBB47_9
LBB47_6:
	movl	$16, %edx
	leaq	L___unnamed_102(%rip), %rcx
	jmp	LBB47_9
LBB47_8:
	movl	$22, %edx
	leaq	l___unnamed_103(%rip), %rcx
LBB47_9:
	movq	%rcx, %rax
LBB47_10:
	.loc	12 283 6 is_stmt 1
	retq
LBB47_1:
Ltmp569:
	retq
Ltmp570:
Lfunc_end47:
	.cfi_endproc
	.p2align	2, 0x90
	.data_region jt32
.set L47_0_set_9, LBB47_9-LJTI47_0
.set L47_0_set_10, LBB47_10-LJTI47_0
.set L47_0_set_3, LBB47_3-LJTI47_0
.set L47_0_set_4, LBB47_4-LJTI47_0
.set L47_0_set_5, LBB47_5-LJTI47_0
.set L47_0_set_6, LBB47_6-LJTI47_0
.set L47_0_set_7, LBB47_7-LJTI47_0
.set L47_0_set_8, LBB47_8-LJTI47_0
LJTI47_0:
	.long	L47_0_set_9
	.long	L47_0_set_10
	.long	L47_0_set_10
	.long	L47_0_set_10
	.long	L47_0_set_10
	.long	L47_0_set_10
	.long	L47_0_set_3
	.long	L47_0_set_4
	.long	L47_0_set_10
	.long	L47_0_set_10
	.long	L47_0_set_5
	.long	L47_0_set_10
	.long	L47_0_set_6
	.long	L47_0_set_10
	.long	L47_0_set_10
	.long	L47_0_set_10
	.long	L47_0_set_10
	.long	L47_0_set_7
	.long	L47_0_set_8
	.end_data_region

	.globl	__ZN5gimli9constants6DwLang19default_lower_bound17h5a2eced07ee7d187E
	.p2align	4, 0x90
__ZN5gimli9constants6DwLang19default_lower_bound17h5a2eced07ee7d187E:
Lfunc_begin48:
	.loc	2 838 0
	.cfi_startproc
	.loc	2 840 13 prologue_end
	decl	%edi
Ltmp571:
	cmpw	$36, %di
	ja	LBB48_1
	pushq	%rbp
	.cfi_def_cfa_offset 16
	.cfi_offset %rbp, -16
	movq	%rsp, %rbp
	.cfi_def_cfa_register %rbp
	movswq	%di, %rax
	leaq	l_switch.table._ZN5gimli9constants6DwLang19default_lower_bound17h5a2eced07ee7d187E(%rip), %rcx
	movq	(%rcx,%rax,8), %rdx
	movl	$1, %eax
	popq	%rbp
	.loc	2 869 6
	retq
LBB48_1:
	.loc	2 0 6 is_stmt 0
	xorl	%eax, %eax
	.loc	2 869 6
	retq
Ltmp572:
Lfunc_end48:
	.cfi_endproc

	.globl	__ZN5gimli9constants6DwEhPe17is_valid_encoding17hd900673330fc3ee4E
	.p2align	4, 0x90
__ZN5gimli9constants6DwEhPe17is_valid_encoding17hd900673330fc3ee4E:
Lfunc_begin49:
	.loc	2 1316 0 is_stmt 1
	.cfi_startproc
	pushq	%rbp
	.cfi_def_cfa_offset 16
	.cfi_offset %rbp, -16
	movq	%rsp, %rbp
	.cfi_def_cfa_register %rbp
Ltmp573:
	.loc	2 62 33 prologue_end
	cmpb	$-1, %dil
Ltmp574:
	.loc	2 1317 9
	je	LBB49_1
Ltmp575:
	.loc	2 1293 16
	movl	%edi, %ecx
	andb	$15, %cl
	xorl	%eax, %eax
Ltmp576:
	.loc	2 1322 13
	cmpb	$12, %cl
	ja	LBB49_5
Ltmp577:
	.loc	2 0 13 is_stmt 0
	movzbl	%cl, %ecx
	movl	$7711, %edx
	btq	%rcx, %rdx
	jae	LBB49_5
Ltmp578:
	.loc	2 1329 13 is_stmt 1
	andb	$96, %dil
Ltmp579:
	cmpb	$96, %dil
	setne	%al
LBB49_5:
	.loc	2 1335 6
	popq	%rbp
	retq
LBB49_1:
Ltmp580:
	.loc	2 0 6 is_stmt 0
	movb	$1, %al
	.loc	2 1335 6
	popq	%rbp
	retq
Ltmp581:
Lfunc_end49:
	.cfi_endproc

	.globl	__ZN5gimli4read6abbrev13Abbreviations5empty17h161449f0754f3438E
	.p2align	4, 0x90
__ZN5gimli4read6abbrev13Abbreviations5empty17h161449f0754f3438E:
Lfunc_begin50:
	.loc	6 116 0 is_stmt 1
	.cfi_startproc
	pushq	%rbp
	.cfi_def_cfa_offset 16
	.cfi_offset %rbp, -16
	movq	%rsp, %rbp
	.cfi_def_cfa_register %rbp
	movq	%rdi, %rax
Ltmp582:
	.loc	6 117 9 prologue_end
	movq	$8, (%rdi)
	movq	$0, 40(%rdi)
	movq	$0, 8(%rdi)
	movq	$0, 16(%rdi)
	movq	$0, 24(%rdi)
	.loc	6 121 6
	popq	%rbp
	retq
Ltmp583:
Lfunc_end50:
	.cfi_endproc

	.globl	__ZN5gimli4read6abbrev13Abbreviations6insert17hb2dc28dc9fdb9a43E
	.p2align	4, 0x90
__ZN5gimli4read6abbrev13Abbreviations6insert17hb2dc28dc9fdb9a43E:
Lfunc_begin51:
	.loc	6 128 0
	.cfi_startproc
	.cfi_personality 155, _rust_eh_personality
	.cfi_lsda 16, Lexception0
	pushq	%rbp
	.cfi_def_cfa_offset 16
	.cfi_offset %rbp, -16
	movq	%rsp, %rbp
	.cfi_def_cfa_register %rbp
	pushq	%r15
	pushq	%r14
	pushq	%r13
	pushq	%r12
	pushq	%rbx
	subq	$1848, %rsp
	.cfi_offset %rbx, -56
	.cfi_offset %r12, -48
	.cfi_offset %r13, -40
	.cfi_offset %r14, -32
	.cfi_offset %r15, -24
	movq	%rsi, %r14
Ltmp595:
	.loc	6 129 26 prologue_end
	movq	(%rsi), %r13
Ltmp596:
	.loc	6 135 16
	movq	%r13, %rbx
	subq	$1, %rbx
	jb	LBB51_111
Ltmp597:
	.loc	6 0 16 is_stmt 0
	movq	%rdi, %r15
Ltmp598:
	.loc	6 135 16
	cmpq	16(%rdi), %rbx
	.loc	6 135 13
	jb	LBB51_51
Ltmp599:
	.loc	6 137 20 is_stmt 1
	jne	LBB51_39
Ltmp600:
	.loc	14 2319 9
	cmpq	$0, 40(%r15)
Ltmp601:
	.loc	6 138 20
	je	LBB51_4
Ltmp602:
	.loc	4 270 13
	movq	24(%r15), %rax
	testq	%rax, %rax
Ltmp603:
	.loc	14 606 53
	je	LBB51_4
Ltmp604:
	.loc	14 606 35 is_stmt 0
	movq	32(%r15), %r9
Ltmp605:
	.loc	14 0 35
	movq	$-1, %r8
Ltmp606:
LBB51_32:
	.loc	15 293 9 is_stmt 1
	movzwl	10(%rax), %edi
Ltmp607:
	.file	26 "/rustc/a74d1862d4d87a56244958416fd05976c58ca1a8/src/liballoc/collections/btree/search.rs"
	.loc	26 75 5
	leaq	(,%rdi,8), %rdx
Ltmp608:
	.loc	26 75 19 is_stmt 0
	movq	$-1, %rsi
Ltmp609:
LBB51_33:
	.loc	8 3179 9 is_stmt 1
	testq	%rdx, %rdx
	.loc	8 3303 21
	je	LBB51_34
Ltmp610:
	.loc	24 1152 21
	xorl	%ecx, %ecx
	.loc	24 1152 24 is_stmt 0
	cmpq	%r13, 24(%rax,%rsi,8)
	.loc	24 1152 21
	setne	%cl
Ltmp611:
	.loc	26 77 13 is_stmt 1
	cmovaq	%r8, %rcx
	incq	%rsi
	cmpq	$-1, %rcx
	je	LBB51_35
Ltmp612:
	addq	$-8, %rdx
	testq	%rcx, %rcx
	jne	LBB51_33
	jmp	LBB51_51
Ltmp613:
LBB51_34:
	.loc	26 0 13 is_stmt 0
	movq	%rdi, %rsi
Ltmp614:
LBB51_35:
	.loc	15 680 12 is_stmt 1
	testq	%r9, %r9
Ltmp615:
	.loc	26 29 17
	je	LBB51_4
Ltmp616:
	.loc	15 961 21
	decq	%r9
Ltmp617:
	.loc	26 26 27
	movq	1336(%rax,%rsi,8), %rax
Ltmp618:
	.loc	26 0 27 is_stmt 0
	jmp	LBB51_32
Ltmp619:
LBB51_39:
	.loc	4 857 16 is_stmt 1
	movq	24(%r15), %r12
	testq	%r12, %r12
	movq	%r15, -144(%rbp)
	je	LBB51_41
Ltmp620:
	.loc	15 171 21
	movq	32(%r15), %rax
	jmp	LBB51_43
Ltmp621:
LBB51_4:
	.loc	15 0 21 is_stmt 0
	leaq	-1888(%rbp), %rdi
	.loc	6 141 35 is_stmt 1
	movl	$14, %ecx
	movq	%r14, %rsi
	rep;movsq (%rsi), %es:(%rdi)
Ltmp622:
	.loc	7 1200 12
	cmpq	8(%r15), %rbx
	.loc	7 1200 9 is_stmt 0
	jne	LBB51_5
Ltmp623:
	.loc	21 3632 30 is_stmt 1
	movq	%rbx, %rax
	incq	%rax
Ltmp624:
	.loc	4 540 13
	je	LBB51_25
Ltmp625:
	.loc	22 414 26
	leaq	(%rbx,%rbx), %rcx
Ltmp626:
	.loc	24 1017 9
	cmpq	%rax, %rcx
	.loc	24 0 0 is_stmt 0
	cmovaq	%rcx, %rax
Ltmp627:
	movl	$112, %ecx
Ltmp628:
	.loc	25 250 85 is_stmt 1
	xorl	%esi, %esi
Ltmp629:
	.loc	21 3688 26
	mulq	%rcx
Ltmp630:
	movq	%rax, %r14
Ltmp631:
	.loc	21 0 26 is_stmt 0
	seto	%dl
Ltmp632:
	.loc	25 250 85 is_stmt 1
	setno	%al
Ltmp633:
	.loc	22 200 9
	movq	%rbx, %rcx
	.loc	22 200 40 is_stmt 0
	testq	%rbx, %rbx
	.loc	22 200 9
	je	LBB51_10
Ltmp634:
	.loc	22 0 9
	movq	(%r15), %rcx
Ltmp635:
LBB51_10:
	.loc	17 611 13 is_stmt 1
	testb	%dl, %dl
	jne	LBB51_25
Ltmp636:
	.loc	22 489 25
	testq	%rcx, %rcx
	je	LBB51_17
Ltmp637:
	.loc	22 0 0 is_stmt 0
	imulq	$112, %rbx, %rsi
Ltmp638:
	.loc	23 205 12 is_stmt 1
	cmpq	%r14, %rsi
	.loc	23 205 9 is_stmt 0
	je	LBB51_22
Ltmp639:
	.loc	23 211 42 is_stmt 1
	testq	%rsi, %rsi
	je	LBB51_14
Ltmp640:
	.loc	23 124 5
	movl	$8, %edx
	movq	%rcx, %rdi
	movq	%r14, %rcx
Ltmp641:
	callq	___rust_realloc
Ltmp642:
	.loc	23 0 5 is_stmt 0
	jmp	LBB51_21
Ltmp643:
LBB51_41:
	.loc	15 75 9 is_stmt 1
	movq	$0, -360(%rbp)
	movq	$0, -352(%rbp)
	movq	$0, -344(%rbp)
	movq	$0, -336(%rbp)
	movq	$0, -328(%rbp)
	movq	$0, -320(%rbp)
	movq	$0, -312(%rbp)
	movq	$0, -304(%rbp)
	movq	$0, -296(%rbp)
	movq	$0, -288(%rbp)
	movq	$0, -280(%rbp)
	leaq	-1888(%rbp), %rdi
	movl	$1232, %esi
	callq	___bzero
Ltmp644:
	.loc	23 80 5
	movl	$1336, %edi
	movl	$8, %esi
	callq	___rust_alloc
Ltmp645:
	.loc	23 269 9
	testq	%rax, %rax
	je	LBB51_112
Ltmp646:
	.file	27 "/rustc/a74d1862d4d87a56244958416fd05976c58ca1a8/src/liballoc/boxed.rs"
	.loc	27 0 0 is_stmt 0
	movq	%rax, %r12
	.loc	27 174 13 is_stmt 1
	movq	$0, (%rax)
	movw	$0, 10(%rax)
	leaq	12(%rax), %rdi
	leaq	-364(%rbp), %rsi
	movl	$23, %ecx
	rep;movsl (%rsi), %es:(%rdi)
	movq	%rax, %rdi
	addq	$104, %rdi
	leaq	-1888(%rbp), %rsi
	movl	$1232, %edx
	callq	_memcpy
Ltmp647:
	.loc	4 858 13
	movq	%r12, 24(%r15)
	movq	$0, 32(%r15)
	xorl	%eax, %eax
Ltmp648:
LBB51_43:
	.loc	4 0 13 is_stmt 0
	movq	$-1, %rcx
Ltmp649:
LBB51_44:
	.loc	15 293 9 is_stmt 1
	movzwl	10(%r12), %edx
Ltmp650:
	.loc	15 455 63
	leaq	16(%r12), %r15
Ltmp651:
	.loc	26 75 5
	leaq	(,%rdx,8), %rsi
Ltmp652:
	.loc	26 75 19 is_stmt 0
	movq	$-1, %rbx
Ltmp653:
LBB51_45:
	.loc	8 3179 9 is_stmt 1
	testq	%rsi, %rsi
	.loc	8 3303 21
	je	LBB51_46
Ltmp654:
	.loc	24 1152 21
	xorl	%edi, %edi
	.loc	24 1152 24 is_stmt 0
	cmpq	%r13, 8(%r15,%rbx,8)
	.loc	24 1152 21
	setne	%dil
Ltmp655:
	.loc	26 77 13 is_stmt 1
	cmovaq	%rcx, %rdi
	incq	%rbx
	cmpq	$-1, %rdi
	je	LBB51_47
Ltmp656:
	addq	$-8, %rsi
	testq	%rdi, %rdi
	jne	LBB51_45
	jmp	LBB51_51
Ltmp657:
LBB51_46:
	.loc	26 0 13 is_stmt 0
	movq	%rdx, %rbx
Ltmp658:
	.p2align	4, 0x90
LBB51_47:
	.loc	15 680 12 is_stmt 1
	testq	%rax, %rax
Ltmp659:
	.loc	26 29 17
	je	LBB51_56
Ltmp660:
	.loc	15 961 21
	decq	%rax
Ltmp661:
	.loc	26 26 27
	movq	1336(%r12,%rbx,8), %r12
Ltmp662:
	.loc	26 0 27 is_stmt 0
	jmp	LBB51_44
Ltmp663:
LBB51_51:
	movb	$1, %bl
	cmpq	$0, 8(%r14)
	je	LBB51_108
Ltmp664:
	movq	24(%r14), %rsi
	testq	%rsi, %rsi
	je	LBB51_108
Ltmp665:
	movq	16(%r14), %rdi
Ltmp666:
	testq	%rdi, %rdi
Ltmp667:
	je	LBB51_108
Ltmp668:
	shlq	$4, %rsi
Ltmp669:
	je	LBB51_108
Ltmp670:
	movl	$8, %edx
	callq	___rust_dealloc
Ltmp671:
	jmp	LBB51_108
Ltmp672:
LBB51_5:
	.loc	7 850 19 is_stmt 1
	movq	(%r15), %rcx
	jmp	LBB51_6
Ltmp673:
LBB51_17:
	.loc	22 0 0 is_stmt 0
	movb	%al, %sil
	shlq	$3, %rsi
Ltmp674:
	.loc	23 170 16 is_stmt 1
	testq	%r14, %r14
	.loc	23 170 13 is_stmt 0
	jne	LBB51_20
Ltmp675:
	.loc	22 0 0
	movq	%rsi, %rcx
Ltmp676:
	.loc	17 611 13 is_stmt 1
	testq	%rcx, %rcx
	jne	LBB51_23
	jmp	LBB51_27
Ltmp677:
LBB51_14:
	.loc	23 170 16
	testq	%r14, %r14
	.loc	23 170 13 is_stmt 0
	je	LBB51_15
Ltmp678:
	.loc	23 80 5 is_stmt 1
	movl	$8, %esi
Ltmp679:
LBB51_20:
	.loc	22 0 0 is_stmt 0
	movq	%r14, %rdi
	callq	___rust_alloc
Ltmp680:
LBB51_21:
	movq	%rax, %rcx
Ltmp681:
LBB51_22:
	.loc	17 611 13 is_stmt 1
	testq	%rcx, %rcx
	je	LBB51_27
Ltmp682:
LBB51_23:
	.loc	7 1204 45
	movq	16(%r15), %rbx
Ltmp683:
LBB51_24:
	.loc	22 387 9
	movq	%rcx, (%r15)
Ltmp684:
	.loc	22 383 9
	shrq	$4, %r14
	movabsq	$2635249153387078803, %rdx
	movq	%r14, %rax
	mulq	%rdx
Ltmp685:
	.loc	22 388 9
	movq	%rdx, 8(%r15)
Ltmp686:
LBB51_6:
	.file	28 "/rustc/a74d1862d4d87a56244958416fd05976c58ca1a8/src/libcore/ptr/mut_ptr.rs"
	.loc	28 152 9
	imulq	$112, %rbx, %rdi
	addq	%rcx, %rdi
Ltmp687:
	.loc	28 0 9 is_stmt 0
	leaq	-1888(%rbp), %rsi
Ltmp688:
	.loc	16 836 42 is_stmt 1
	movl	$14, %ecx
Ltmp689:
	rep;movsq (%rsi), %es:(%rdi)
Ltmp690:
	.loc	7 1206 13
	incq	16(%r15)
Ltmp691:
LBB51_107:
	.loc	7 0 13 is_stmt 0
	xorl	%ebx, %ebx
LBB51_108:
	.loc	6 153 6 is_stmt 1
	movl	%ebx, %eax
	addq	$1848, %rsp
	popq	%rbx
	popq	%r12
	popq	%r13
	popq	%r14
	popq	%r15
	popq	%rbp
	retq
LBB51_56:
Ltmp692:
	.loc	6 0 6 is_stmt 0
	movq	-144(%rbp), %rax
Ltmp693:
	.loc	14 2532 9 is_stmt 1
	incq	40(%rax)
Ltmp694:
	.loc	14 0 9 is_stmt 0
	leaq	-480(%rbp), %rdi
Ltmp695:
	.loc	14 2540 65 is_stmt 1
	movl	$14, %ecx
	movq	%r14, %rsi
	rep;movsq (%rsi), %es:(%rdi)
Ltmp696:
	.loc	15 293 9
	movzwl	10(%r12), %r14d
Ltmp697:
	cmpq	$11, %r14
Ltmp698:
	.loc	15 847 9
	jae	LBB51_57
Ltmp699:
	.loc	19 158 9
	leaq	(%r15,%rbx,8), %rsi
Ltmp700:
	.loc	28 152 9
	leaq	8(%r15,%rbx,8), %rdi
Ltmp701:
	.loc	15 1462 73
	movq	%r14, %r15
	subq	%rbx, %r15
Ltmp702:
	.file	29 "/rustc/a74d1862d4d87a56244958416fd05976c58ca1a8/src/libcore/intrinsics.rs"
	.loc	29 2122 5
	leaq	(,%r15,8), %rdx
	callq	_memmove
Ltmp703:
	.loc	16 836 42
	movq	%r13, 16(%r12,%rbx,8)
Ltmp704:
	.loc	15 1462 63
	imulq	$112, %rbx, %rax
Ltmp705:
	.loc	19 158 9
	leaq	104(%r12,%rax), %rbx
Ltmp706:
	.loc	28 152 9
	leaq	216(%r12,%rax), %rdi
Ltmp707:
	.loc	29 2122 5
	imulq	$112, %r15, %rdx
	movq	%rbx, %rsi
	callq	_memmove
Ltmp708:
	.loc	16 836 42
	movl	$14, %ecx
	movq	%rbx, %rdi
	leaq	-480(%rbp), %rsi
	rep;movsq (%rsi), %es:(%rdi)
Ltmp709:
	.loc	15 836 13 is_stmt 0
	leal	1(%r14), %eax
	movw	%ax, 10(%r12)
Ltmp710:
	.loc	15 0 13
	jmp	LBB51_107
Ltmp711:
LBB51_57:
	.loc	15 75 9 is_stmt 1
	movq	$0, -268(%rbp)
	movq	$0, -260(%rbp)
	movq	$0, -252(%rbp)
	movq	$0, -244(%rbp)
	movq	$0, -236(%rbp)
	movq	$0, -228(%rbp)
	movq	$0, -220(%rbp)
	movq	$0, -212(%rbp)
	movq	$0, -204(%rbp)
	movq	$0, -196(%rbp)
	movq	$0, -188(%rbp)
	leaq	-1888(%rbp), %rdi
	movl	$1232, %esi
	callq	___bzero
Ltmp712:
	.loc	23 80 5
	movl	$1336, %edi
	movl	$8, %esi
	callq	___rust_alloc
Ltmp713:
	.loc	23 269 9
	testq	%rax, %rax
	je	LBB51_112
Ltmp714:
	.loc	27 174 13
	movq	$0, (%rax)
	movw	$0, 10(%rax)
	leaq	12(%rax), %rdi
	leaq	-272(%rbp), %rsi
	movl	$23, %ecx
	rep;movsl (%rsi), %es:(%rdi)
	leaq	104(%rax), %rdi
Ltmp715:
	.loc	27 0 13 is_stmt 0
	movq	%rdi, -48(%rbp)
	leaq	-1888(%rbp), %rsi
	.loc	27 174 13
	movl	$1232, %edx
Ltmp716:
	.loc	27 0 13
	movq	%rax, -80(%rbp)
Ltmp717:
	.loc	27 174 13
	callq	_memcpy
Ltmp718:
	.loc	29 2058 5 is_stmt 1
	movq	64(%r12), %rax
Ltmp719:
	.loc	29 0 5 is_stmt 0
	movq	%rax, -96(%rbp)
Ltmp720:
	.loc	16 651 5 is_stmt 1
	movq	776(%r12), %rax
	movq	%rax, -112(%rbp)
	movq	784(%r12), %rax
	movq	%rax, -120(%rbp)
	movq	792(%r12), %rax
	movq	%rax, -128(%rbp)
	movq	800(%r12), %rax
	movq	%rax, -136(%rbp)
	leaq	808(%r12), %rsi
	leaq	-1888(%rbp), %rdi
	movl	$10, %ecx
	rep;movsq (%rsi), %es:(%rdi)
Ltmp721:
	.loc	15 293 9
	movzwl	10(%r12), %r14d
Ltmp722:
	.loc	19 158 9
	leaq	72(%r12), %rsi
Ltmp723:
	.loc	19 0 9 is_stmt 0
	movq	-80(%rbp), %rax
Ltmp724:
	.loc	15 1017 17 is_stmt 1
	leaq	16(%rax), %rdi
Ltmp725:
	.loc	29 2058 5
	leaq	-56(,%r14,8), %rdx
Ltmp726:
	.loc	15 1013 27
	addq	$-7, %r14
Ltmp727:
	.loc	15 0 27 is_stmt 0
	movq	%rdi, -64(%rbp)
Ltmp728:
	.loc	29 2058 5 is_stmt 1
	callq	_memcpy
Ltmp729:
	.loc	19 158 9
	leaq	888(%r12), %rsi
Ltmp730:
	.loc	29 2058 5
	imulq	$112, %r14, %rdx
Ltmp731:
	.loc	29 0 5 is_stmt 0
	movq	-48(%rbp), %rdi
	.loc	29 2058 5
	callq	_memcpy
Ltmp732:
	.loc	29 0 5
	movq	-80(%rbp), %rax
Ltmp733:
	.loc	15 1026 13 is_stmt 1
	movw	$6, 10(%r12)
	.loc	15 1027 13
	movw	%r14w, 10(%rax)
	leaq	-272(%rbp), %rdi
Ltmp734:
	.loc	15 853 31
	movl	$10, %ecx
	leaq	-1888(%rbp), %rsi
	rep;movsq (%rsi), %es:(%rdi)
Ltmp735:
	.loc	15 854 26
	cmpq	$6, %rbx
	.loc	15 854 23 is_stmt 0
	ja	LBB51_60
Ltmp736:
	.loc	6 0 0
	leaq	10(%r12), %rax
	movq	%rax, -48(%rbp)
Ltmp737:
	leaq	104(%r12), %rcx
Ltmp738:
	movq	%rcx, -64(%rbp)
Ltmp739:
	.loc	15 293 9 is_stmt 1
	movzwl	(%rax), %r14d
Ltmp740:
	.loc	15 0 9 is_stmt 0
	movq	%r14, -72(%rbp)
Ltmp741:
	.loc	19 158 9 is_stmt 1
	leaq	(%r15,%rbx,8), %rsi
Ltmp742:
	.loc	28 152 9
	leaq	8(%r15,%rbx,8), %rdi
Ltmp743:
	.loc	15 1462 73
	subq	%rbx, %r14
Ltmp744:
	.loc	29 2122 5
	leaq	(,%r14,8), %rdx
	callq	_memmove
Ltmp745:
	.loc	16 836 42
	movq	%r13, (%r15,%rbx,8)
Ltmp746:
	.loc	15 1462 63
	imulq	$112, %rbx, %rax
	movq	-64(%rbp), %rcx
Ltmp747:
	.loc	19 158 9
	leaq	(%rcx,%rax), %r13
Ltmp748:
	.loc	28 152 9
	leaq	112(%rcx,%rax), %rdi
Ltmp749:
	.loc	29 2122 5
	imulq	$112, %r14, %rdx
	movq	-72(%rbp), %rbx
Ltmp750:
	movq	%r13, %rsi
	callq	_memmove
Ltmp751:
	.loc	29 0 5 is_stmt 0
	movq	-48(%rbp), %r15
	leaq	-480(%rbp), %rsi
Ltmp752:
	.loc	16 836 42 is_stmt 1
	movl	$14, %ecx
	movq	%r13, %rdi
	rep;movsq (%rsi), %es:(%rdi)
Ltmp753:
	.loc	16 0 42 is_stmt 0
	jmp	LBB51_61
Ltmp754:
LBB51_15:
	movl	$8, %ecx
Ltmp755:
	jmp	LBB51_24
Ltmp756:
LBB51_60:
	.loc	27 174 13 is_stmt 1
	movq	%rax, %r15
	addq	$10, %r15
Ltmp757:
	.loc	15 860 25
	leaq	-7(%rbx), %rax
Ltmp758:
	.loc	15 0 25 is_stmt 0
	movq	%rax, -88(%rbp)
Ltmp759:
	.loc	15 293 9 is_stmt 1
	movzwl	%r14w, %edx
Ltmp760:
	.loc	15 0 9 is_stmt 0
	movq	-64(%rbp), %r14
Ltmp761:
	.loc	19 158 9 is_stmt 1
	leaq	-56(%r14,%rbx,8), %rsi
Ltmp762:
	.loc	15 860 25
	imulq	$112, %rbx, %rcx
Ltmp763:
	.loc	15 0 25 is_stmt 0
	movq	%rcx, -72(%rbp)
Ltmp764:
	.loc	28 152 9 is_stmt 1
	leaq	-48(%r14,%rbx,8), %rdi
Ltmp765:
	.loc	15 1462 73
	subq	%rax, %rdx
Ltmp766:
	.loc	29 2122 5
	shlq	$3, %rdx
Ltmp767:
	callq	_memmove
Ltmp768:
	.loc	16 836 42
	movq	%r13, -56(%r14,%rbx,8)
Ltmp769:
	.loc	15 293 9
	movzwl	(%r15), %eax
Ltmp770:
	.loc	15 0 9 is_stmt 0
	movq	-48(%rbp), %rcx
Ltmp771:
	movq	-72(%rbp), %rdx
Ltmp772:
	.loc	19 158 9 is_stmt 1
	leaq	-784(%rdx,%rcx), %rbx
Ltmp773:
	.loc	28 152 9
	leaq	-672(%rdx,%rcx), %rdi
Ltmp774:
	.loc	15 1462 73
	subq	-88(%rbp), %rax
Ltmp775:
	.loc	29 2122 5
	imulq	$112, %rax, %rdx
	movq	%rbx, %rsi
	callq	_memmove
Ltmp776:
	.loc	29 0 5 is_stmt 0
	leaq	-480(%rbp), %rsi
Ltmp777:
	.loc	16 836 42 is_stmt 1
	movl	$14, %ecx
	movq	%rbx, %rdi
	rep;movsq (%rsi), %es:(%rdi)
Ltmp778:
	.loc	15 836 13 is_stmt 0
	movzwl	(%r15), %ebx
Ltmp779:
LBB51_61:
	.loc	15 0 0
	incl	%ebx
	movw	%bx, (%r15)
	leaq	-560(%rbp), %rdi
	leaq	-272(%rbp), %rsi
Ltmp780:
	.loc	15 865 13 is_stmt 1
	movl	$10, %ecx
	rep;movsq (%rsi), %es:(%rdi)
Ltmp781:
	.loc	15 344 30
	movq	(%r12), %r14
Ltmp782:
	.loc	15 345 16
	testq	%r14, %r14
	je	LBB51_62
Ltmp783:
	.loc	15 353 43
	movzwl	8(%r12), %eax
Ltmp784:
	.loc	15 0 43 is_stmt 0
	movw	%ax, -50(%rbp)
Ltmp785:
	movzwl	%ax, %r8d
Ltmp786:
	movq	-112(%rbp), %rax
Ltmp787:
	.loc	14 2553 58 is_stmt 1
	movq	%rax, -480(%rbp)
	movq	-120(%rbp), %rax
	movq	%rax, -472(%rbp)
	movq	-128(%rbp), %rax
	movq	%rax, -464(%rbp)
	movq	-136(%rbp), %rax
	movq	%rax, -456(%rbp)
	leaq	-448(%rbp), %rdi
	leaq	-560(%rbp), %rsi
	movl	$10, %ecx
	rep;movsq (%rsi), %es:(%rdi)
Ltmp788:
	.loc	15 293 9
	movzwl	10(%r14), %r15d
Ltmp789:
	.loc	15 929 12
	cmpw	$11, %r15w
	.loc	15 929 9 is_stmt 0
	jae	LBB51_78
Ltmp790:
	.loc	15 0 9
	movq	-80(%rbp), %r12
	movq	-96(%rbp), %rax
	movq	%rax, -104(%rbp)
	movq	%r14, -72(%rbp)
Ltmp791:
	movq	%r14, %rbx
Ltmp792:
	jmp	LBB51_70
Ltmp793:
LBB51_62:
	xorl	%r12d, %r12d
	jmp	LBB51_63
Ltmp794:
LBB51_78:
	leaq	10(%r14), %rax
	movq	%rax, -64(%rbp)
	movl	$1, %edx
	leaq	-364(%rbp), %r13
	movq	%r14, %rbx
Ltmp795:
LBB51_79:
	movq	%r8, -48(%rbp)
Ltmp796:
	movq	%rbx, -176(%rbp)
Ltmp797:
	movq	%rdx, -160(%rbp)
Ltmp798:
	leaq	-268(%rbp), %rax
Ltmp799:
	.loc	15 75 9 is_stmt 1
	movq	$0, 80(%rax)
	movq	$0, 72(%rax)
	movq	$0, 64(%rax)
	movq	$0, 56(%rax)
	movq	$0, 48(%rax)
	movq	$0, 40(%rax)
	movq	$0, 32(%rax)
	movq	$0, 24(%rax)
	movq	$0, 16(%rax)
	movq	$0, 8(%rax)
	movq	$0, (%rax)
Ltmp800:
	.loc	15 110 9
	movl	$23, %ecx
	movq	%r13, %rdi
	leaq	-272(%rbp), %rsi
	rep;movsl (%rsi), %es:(%rdi)
	movl	$1328, %esi
	leaq	-1888(%rbp), %rbx
	movq	%rbx, %rdi
	callq	___bzero
Ltmp801:
	.loc	23 80 5
	movl	$1432, %edi
	movl	$8, %esi
	callq	___rust_alloc
Ltmp802:
	.loc	23 269 9
	testq	%rax, %rax
	je	LBB51_64
Ltmp803:
	.loc	27 0 0 is_stmt 0
	movq	%rax, %r12
Ltmp804:
	.loc	27 174 13 is_stmt 1
	movq	$0, (%rax)
	movw	$0, 10(%rax)
	leaq	12(%rax), %rdi
	movl	$23, %ecx
	movq	%r13, %rsi
	rep;movsl (%rsi), %es:(%rdi)
	leaq	104(%rax), %rdi
Ltmp805:
	.loc	27 0 13 is_stmt 0
	movq	%rdi, -88(%rbp)
	.loc	27 174 13
	movl	$1328, %edx
Ltmp806:
	movq	%rbx, %rsi
	callq	_memcpy
Ltmp807:
	.loc	29 2058 5 is_stmt 1
	movq	64(%r14), %rax
Ltmp808:
	.loc	29 0 5 is_stmt 0
	movq	%rax, -104(%rbp)
Ltmp809:
	.loc	16 651 5 is_stmt 1
	movq	776(%r14), %rax
	movq	%rax, -112(%rbp)
	movq	784(%r14), %rax
	movq	%rax, -120(%rbp)
	movq	792(%r14), %rax
	movq	%rax, -128(%rbp)
	movq	800(%r14), %rax
	movq	%rax, -136(%rbp)
	leaq	808(%r14), %rsi
	movl	$10, %ecx
	movq	%rbx, %rdi
	rep;movsq (%rsi), %es:(%rdi)
	movq	-64(%rbp), %rax
Ltmp810:
	.loc	15 293 9
	movzwl	(%rax), %r15d
Ltmp811:
	.loc	15 1063 27
	leaq	-6(%r15), %rbx
Ltmp812:
	leaq	-7(%r15), %r13
Ltmp813:
	.loc	19 158 9
	leaq	72(%r14), %rsi
Ltmp814:
	.loc	15 1067 17
	leaq	16(%r12), %rdi
Ltmp815:
	.loc	29 2058 5
	leaq	-56(,%r15,8), %rdx
	movq	%rdi, -152(%rbp)
Ltmp816:
	callq	_memcpy
Ltmp817:
	.loc	19 158 9
	leaq	888(%r14), %rsi
Ltmp818:
	.loc	29 2058 5
	imulq	$112, %r13, %rdx
Ltmp819:
	.loc	29 0 5 is_stmt 0
	movq	-88(%rbp), %rdi
	.loc	29 2058 5
	callq	_memcpy
Ltmp820:
	.loc	29 0 5
	movq	%r14, -72(%rbp)
Ltmp821:
	.loc	19 158 9 is_stmt 1
	leaq	1392(%r14), %rsi
Ltmp822:
	.loc	15 1077 17
	movq	%r12, %r14
Ltmp823:
	addq	$1336, %r14
Ltmp824:
	.loc	29 2058 5
	leaq	-48(,%r15,8), %rdx
	movq	%r14, %rdi
	callq	_memcpy
Ltmp825:
	.loc	29 0 5 is_stmt 0
	movq	-64(%rbp), %rcx
Ltmp826:
	.loc	15 1081 13 is_stmt 1
	movw	$6, (%rcx)
	.loc	15 1082 13
	movw	%r13w, 10(%r12)
Ltmp827:
	.loc	24 1137 52
	testq	%rbx, %rbx
	movq	-48(%rbp), %r8
Ltmp828:
	.file	30 "/rustc/a74d1862d4d87a56244958416fd05976c58ca1a8/src/libcore/iter/range.rs"
	.loc	30 211 9
	je	LBB51_87
Ltmp829:
	andl	$3, %ebx
	cmpq	$3, %r13
	jae	LBB51_83
Ltmp830:
	.loc	30 0 9 is_stmt 0
	xorl	%eax, %eax
	.loc	30 211 9
	testq	%rbx, %rbx
	jne	LBB51_86
	jmp	LBB51_87
Ltmp831:
LBB51_83:
	subq	%rbx, %r15
	addq	$-6, %r15
	xorl	%eax, %eax
Ltmp832:
	.p2align	4, 0x90
LBB51_84:
	.loc	15 963 17 is_stmt 1
	movq	1336(%r12,%rax,8), %rcx
Ltmp833:
	.loc	15 878 13
	movq	%r12, (%rcx)
Ltmp834:
	.loc	15 0 13 is_stmt 0
	movl	%eax, %edx
Ltmp835:
	.file	31 "/rustc/a74d1862d4d87a56244958416fd05976c58ca1a8/src/libcore/mem/maybe_uninit.rs"
	.loc	31 372 13 is_stmt 1
	movw	%ax, 8(%rcx)
Ltmp836:
	.loc	15 963 17
	movq	1344(%r12,%rax,8), %rcx
Ltmp837:
	.loc	15 878 13
	movq	%r12, (%rcx)
Ltmp838:
	.loc	31 372 13
	leal	1(%rdx), %esi
	movw	%si, 8(%rcx)
Ltmp839:
	.loc	15 963 17
	movq	1352(%r12,%rax,8), %rcx
Ltmp840:
	.loc	15 878 13
	movq	%r12, (%rcx)
Ltmp841:
	.loc	31 372 13
	leal	2(%rdx), %esi
	movw	%si, 8(%rcx)
Ltmp842:
	.loc	15 963 17
	movq	1360(%r12,%rax,8), %rcx
Ltmp843:
	.loc	21 3632 30
	addq	$4, %rax
Ltmp844:
	.loc	15 878 13
	movq	%r12, (%rcx)
Ltmp845:
	.loc	31 372 13
	addl	$3, %edx
	movw	%dx, 8(%rcx)
Ltmp846:
	.loc	30 211 9
	cmpq	%rax, %r15
	jne	LBB51_84
Ltmp847:
	testq	%rbx, %rbx
	je	LBB51_87
Ltmp848:
	.p2align	4, 0x90
LBB51_86:
	.loc	15 963 17
	movq	1336(%r12,%rax,8), %rcx
Ltmp849:
	.loc	15 878 13
	movq	%r12, (%rcx)
Ltmp850:
	.loc	31 372 13
	movw	%ax, 8(%rcx)
Ltmp851:
	.loc	21 3632 30
	incq	%rax
Ltmp852:
	.loc	30 211 9
	decq	%rbx
	jne	LBB51_86
Ltmp853:
LBB51_87:
	.loc	15 1090 13
	movl	$10, %ecx
	leaq	-272(%rbp), %rax
	movq	%rax, %rdi
	leaq	-1888(%rbp), %rdx
	movq	%rdx, %rsi
	rep;movsq (%rsi), %es:(%rdi)
Ltmp854:
	.loc	15 935 31
	movl	$10, %ecx
	movq	%rdx, %rdi
	movq	%rax, %rsi
	rep;movsq (%rsi), %es:(%rdi)
	movzwl	-50(%rbp), %r13d
Ltmp855:
	.loc	15 936 16
	cmpw	$6, %r13w
	.loc	15 936 13 is_stmt 0
	ja	LBB51_95
Ltmp856:
	.loc	15 0 13
	movq	-72(%rbp), %rax
	leaq	16(%rax), %r15
Ltmp857:
	leaq	104(%rax), %rcx
Ltmp858:
	movq	%rcx, -168(%rbp)
	addq	$1336, %rax
Ltmp859:
	movq	%rax, -88(%rbp)
	movq	-64(%rbp), %rax
Ltmp860:
	.loc	15 293 9 is_stmt 1
	movzwl	(%rax), %r14d
Ltmp861:
	.loc	15 0 9 is_stmt 0
	movq	%r14, -152(%rbp)
Ltmp862:
	.loc	19 158 9 is_stmt 1
	leaq	(%r15,%r8,8), %rsi
Ltmp863:
	.loc	15 1462 63
	leaq	1(%r8), %rbx
Ltmp864:
	.loc	28 152 9
	leaq	8(%r15,%r8,8), %rdi
Ltmp865:
	.loc	15 1462 73
	subq	%r8, %r14
Ltmp866:
	.loc	29 2122 5
	leaq	(,%r14,8), %rdx
	callq	_memmove
Ltmp867:
	.loc	29 0 5 is_stmt 0
	movq	-48(%rbp), %rax
	movq	-96(%rbp), %rcx
Ltmp868:
	.loc	16 836 42 is_stmt 1
	movq	%rcx, (%r15,%rax,8)
Ltmp869:
	.loc	15 1462 63
	imulq	$112, -48(%rbp), %rax
	movq	-168(%rbp), %rcx
Ltmp870:
	.loc	19 158 9
	leaq	(%rcx,%rax), %r15
Ltmp871:
	.loc	28 152 9
	leaq	112(%rcx,%rax), %rdi
Ltmp872:
	.loc	29 2122 5
	imulq	$112, %r14, %rdx
	movq	%r15, %rsi
	callq	_memmove
Ltmp873:
	.loc	16 836 42
	movl	$14, %ecx
	movq	%r15, %rdi
	leaq	-480(%rbp), %rsi
	rep;movsq (%rsi), %es:(%rdi)
	movq	-152(%rbp), %rax
Ltmp874:
	.loc	15 836 13 is_stmt 0
	leal	1(%rax), %r14d
Ltmp875:
	.loc	15 0 13
	movq	-64(%rbp), %rax
	.loc	15 836 13
	movw	%r14w, (%rax)
Ltmp876:
	.loc	15 293 9 is_stmt 1
	movzwl	%r14w, %r15d
Ltmp877:
	.loc	15 0 9 is_stmt 0
	movq	-48(%rbp), %rax
	movq	-88(%rbp), %rcx
Ltmp878:
	.loc	19 158 9 is_stmt 1
	leaq	8(%rcx,%rax,8), %rsi
Ltmp879:
	.loc	19 0 9 is_stmt 0
	movq	-48(%rbp), %rax
Ltmp880:
	.loc	28 152 9 is_stmt 1
	leaq	16(%rcx,%rax,8), %rdi
Ltmp881:
	.loc	15 1462 73
	movq	%r15, %rdx
	subq	%rbx, %rdx
Ltmp882:
	.loc	29 2122 5
	shlq	$3, %rdx
Ltmp883:
	callq	_memmove
Ltmp884:
	.loc	29 0 5 is_stmt 0
	movq	-48(%rbp), %rcx
Ltmp885:
	movq	-80(%rbp), %rax
	movq	-88(%rbp), %rdx
Ltmp886:
	.loc	16 836 42 is_stmt 1
	movq	%rax, 8(%rdx,%rcx,8)
Ltmp887:
	.loc	24 1137 52
	cmpw	%r14w, %r13w
	movq	-72(%rbp), %r9
	movq	-176(%rbp), %rsi
	leaq	-560(%rbp), %r11
Ltmp888:
	.loc	30 211 9
	jae	LBB51_100
Ltmp889:
	movl	%r15d, %r10d
	subl	%ecx, %r10d
	movq	%rcx, %r8
	notq	%r8
	addq	%r15, %r8
	andq	$3, %r10
	je	LBB51_93
Ltmp890:
	leaq	1344(%r9,%rcx,8), %rcx
	xorl	%edx, %edx
Ltmp891:
LBB51_91:
	.loc	19 158 9
	leal	(%rbx,%rdx), %edi
Ltmp892:
	.loc	15 963 17
	movq	(%rcx,%rdx,8), %rax
Ltmp893:
	.loc	15 878 13
	movq	%rsi, (%rax)
Ltmp894:
	.loc	31 372 13
	movw	%di, 8(%rax)
Ltmp895:
	.loc	30 211 9
	incq	%rdx
	cmpq	%rdx, %r10
	jne	LBB51_91
Ltmp896:
	addq	%rdx, %rbx
Ltmp897:
LBB51_93:
	cmpq	$3, %r8
	jb	LBB51_100
Ltmp898:
LBB51_94:
	.loc	15 963 17
	movq	1336(%r9,%rbx,8), %rax
Ltmp899:
	.loc	15 878 13
	movq	%rsi, (%rax)
Ltmp900:
	.loc	31 372 13
	movw	%bx, 8(%rax)
Ltmp901:
	.loc	15 963 17
	movq	1344(%r9,%rbx,8), %rax
Ltmp902:
	.loc	15 878 13
	movq	%rsi, (%rax)
Ltmp903:
	.loc	31 372 13
	leal	1(%rbx), %ecx
	movw	%cx, 8(%rax)
Ltmp904:
	.loc	15 963 17
	movq	1352(%r9,%rbx,8), %rax
Ltmp905:
	.loc	15 878 13
	movq	%rsi, (%rax)
Ltmp906:
	.loc	31 372 13
	leal	2(%rbx), %ecx
	movw	%cx, 8(%rax)
Ltmp907:
	.loc	15 963 17
	movq	1360(%r9,%rbx,8), %rax
Ltmp908:
	.loc	15 878 13
	movq	%rsi, (%rax)
Ltmp909:
	.loc	31 372 13
	leaq	3(%rbx), %rcx
	movw	%cx, 8(%rax)
Ltmp910:
	.loc	30 211 9
	addq	$4, %rbx
Ltmp911:
	.loc	24 1137 52
	cmpq	%r15, %rcx
Ltmp912:
	.loc	30 211 9
	jne	LBB51_94
	jmp	LBB51_100
Ltmp913:
LBB51_95:
	.loc	30 0 9 is_stmt 0
	movq	%r14, -64(%rbp)
	.loc	15 944 25 is_stmt 1
	leaq	-7(%r8), %r14
Ltmp914:
	.loc	15 293 9
	movzwl	10(%r12), %edx
Ltmp915:
	.loc	15 0 9 is_stmt 0
	movq	-152(%rbp), %rax
Ltmp916:
	.loc	19 158 9 is_stmt 1
	leaq	-56(%rax,%r8,8), %rsi
Ltmp917:
	.loc	15 1462 63
	leaq	-6(%r8), %rbx
Ltmp918:
	.loc	15 944 25
	imulq	$112, %r8, %r15
Ltmp919:
	.loc	28 152 9
	leaq	-48(%rax,%r8,8), %rdi
Ltmp920:
	.loc	15 1462 73
	subq	%r14, %rdx
Ltmp921:
	.loc	29 2122 5
	shlq	$3, %rdx
Ltmp922:
	callq	_memmove
Ltmp923:
	.loc	29 0 5 is_stmt 0
	movq	-48(%rbp), %rax
	movq	-96(%rbp), %rcx
Ltmp924:
	.loc	16 836 42 is_stmt 1
	movq	%rcx, -40(%r12,%rax,8)
Ltmp925:
	.loc	15 293 9
	movzwl	10(%r12), %eax
Ltmp926:
	.loc	15 0 9 is_stmt 0
	movq	-88(%rbp), %rcx
Ltmp927:
	.loc	19 158 9 is_stmt 1
	leaq	-784(%r15,%rcx), %r13
Ltmp928:
	.loc	28 152 9
	leaq	-672(%r15,%rcx), %rdi
Ltmp929:
	.loc	15 1462 73
	subq	%r14, %rax
Ltmp930:
	.loc	29 2122 5
	imulq	$112, %rax, %rdx
	movq	%r13, %rsi
	callq	_memmove
Ltmp931:
	.loc	16 836 42
	movl	$14, %ecx
	movq	%r13, %rdi
	leaq	-480(%rbp), %rsi
	rep;movsq (%rsi), %es:(%rdi)
Ltmp932:
	.loc	15 836 13 is_stmt 0
	movzwl	10(%r12), %eax
	incl	%eax
	movw	%ax, 10(%r12)
Ltmp933:
	.loc	15 293 9 is_stmt 1
	movzwl	%ax, %r13d
Ltmp934:
	.loc	15 0 9 is_stmt 0
	movq	-48(%rbp), %rax
	movq	-64(%rbp), %rcx
Ltmp935:
	.loc	19 158 9 is_stmt 1
	leaq	-48(%rcx,%rax,8), %rsi
Ltmp936:
	.loc	19 0 9 is_stmt 0
	movq	-48(%rbp), %rax
Ltmp937:
	.loc	28 152 9 is_stmt 1
	leaq	-40(%rcx,%rax,8), %rdi
Ltmp938:
	.loc	15 1462 73
	movq	%r13, %rdx
	subq	%rbx, %rdx
Ltmp939:
	.loc	29 2122 5
	shlq	$3, %rdx
	callq	_memmove
Ltmp940:
	.loc	29 0 5 is_stmt 0
	movq	-48(%rbp), %rdx
	movq	-80(%rbp), %rax
Ltmp941:
	.loc	16 836 42 is_stmt 1
	movq	%rax, 1288(%r12,%rdx,8)
Ltmp942:
	.loc	15 1462 73
	cmpq	%rbx, %r13
Ltmp943:
	.loc	15 0 73 is_stmt 0
	movq	-72(%rbp), %r9
	leaq	-560(%rbp), %r11
Ltmp944:
	.loc	30 211 9 is_stmt 1
	jb	LBB51_100
Ltmp945:
	movl	%edx, %ecx
	notl	%ecx
	addl	%r13d, %ecx
	movq	%r13, %rax
	subq	%rdx, %rax
	addq	$6, %rax
	andq	$3, %rcx
	je	LBB51_98
Ltmp946:
LBB51_97:
	.loc	15 963 17
	movq	1336(%r12,%rbx,8), %rdx
Ltmp947:
	.loc	15 878 13
	movq	%r12, (%rdx)
Ltmp948:
	.loc	31 372 13
	movw	%bx, 8(%rdx)
Ltmp949:
	.loc	15 0 0 is_stmt 0
	incq	%rbx
Ltmp950:
	.loc	30 211 9 is_stmt 1
	decq	%rcx
	jne	LBB51_97
Ltmp951:
LBB51_98:
	cmpq	$3, %rax
	jb	LBB51_100
Ltmp952:
LBB51_99:
	.loc	15 963 17
	movq	1336(%r12,%rbx,8), %rax
Ltmp953:
	.loc	15 878 13
	movq	%r12, (%rax)
Ltmp954:
	.loc	31 372 13
	movw	%bx, 8(%rax)
Ltmp955:
	.loc	15 963 17
	movq	1344(%r12,%rbx,8), %rax
Ltmp956:
	.loc	15 878 13
	movq	%r12, (%rax)
Ltmp957:
	.loc	31 372 13
	leal	1(%rbx), %ecx
	movw	%cx, 8(%rax)
Ltmp958:
	.loc	15 963 17
	movq	1352(%r12,%rbx,8), %rax
Ltmp959:
	.loc	15 878 13
	movq	%r12, (%rax)
Ltmp960:
	.loc	31 372 13
	leal	2(%rbx), %ecx
	movw	%cx, 8(%rax)
Ltmp961:
	.loc	15 963 17
	movq	1360(%r12,%rbx,8), %rax
Ltmp962:
	.loc	15 878 13
	movq	%r12, (%rax)
Ltmp963:
	.loc	31 372 13
	leaq	3(%rbx), %rcx
	movw	%cx, 8(%rax)
Ltmp964:
	.loc	30 211 9
	addq	$4, %rbx
Ltmp965:
	.loc	24 1137 52
	cmpq	%r13, %rcx
Ltmp966:
	.loc	30 211 9
	jne	LBB51_99
Ltmp967:
LBB51_100:
	.loc	15 949 13
	movl	$10, %ecx
	movq	%r11, %rdi
	leaq	-1888(%rbp), %rsi
	rep;movsq (%rsi), %es:(%rdi)
Ltmp968:
	.loc	15 344 30
	movq	(%r9), %rbx
Ltmp969:
	.loc	15 345 16
	testq	%rbx, %rbx
	je	LBB51_101
Ltmp970:
	.loc	15 353 43
	movzwl	8(%r9), %eax
	movw	%ax, -50(%rbp)
	movzwl	%ax, %r8d
Ltmp971:
	.loc	15 0 43 is_stmt 0
	movq	-160(%rbp), %rdx
Ltmp972:
	incq	%rdx
Ltmp973:
	movq	-112(%rbp), %rax
Ltmp974:
	.loc	14 2553 58 is_stmt 1
	movq	%rax, -480(%rbp)
	movq	-120(%rbp), %rax
	movq	%rax, -472(%rbp)
	movq	-128(%rbp), %rax
	movq	%rax, -464(%rbp)
	movq	-136(%rbp), %rax
	movq	%rax, -456(%rbp)
	movl	$10, %ecx
	leaq	-448(%rbp), %rdi
	movq	%r11, %rsi
	rep;movsq (%rsi), %es:(%rdi)
Ltmp975:
	.loc	15 293 9
	leaq	10(%rbx), %rax
	movq	%rax, -64(%rbp)
	movzwl	10(%rbx), %r15d
	movq	%rbx, %r14
	movq	-104(%rbp), %rax
	movq	%rax, -96(%rbp)
	movq	%r12, -80(%rbp)
Ltmp976:
	.loc	15 929 12
	cmpw	$11, %r15w
	leaq	-364(%rbp), %r13
	.loc	15 929 9 is_stmt 0
	jae	LBB51_79
Ltmp977:
	.loc	15 0 9
	movq	%rbx, -72(%rbp)
Ltmp978:
LBB51_70:
	movq	%r8, -48(%rbp)
Ltmp979:
	.loc	15 293 9 is_stmt 1
	movzwl	%r15w, %r14d
Ltmp980:
	.loc	15 0 9 is_stmt 0
	movq	%r14, -144(%rbp)
Ltmp981:
	.loc	19 158 9 is_stmt 1
	leaq	16(%rbx,%r8,8), %rsi
Ltmp982:
	.loc	15 1462 63
	leaq	1(%r8), %r13
Ltmp983:
	.loc	28 152 9
	leaq	24(%rbx,%r8,8), %rdi
Ltmp984:
	.loc	15 1462 73
	subq	%r8, %r14
Ltmp985:
	.loc	29 2122 5
	leaq	(,%r14,8), %rdx
Ltmp986:
	callq	_memmove
Ltmp987:
	.loc	29 0 5 is_stmt 0
	movq	-48(%rbp), %rax
	movq	-104(%rbp), %rcx
Ltmp988:
	.loc	16 836 42 is_stmt 1
	movq	%rcx, 16(%rbx,%rax,8)
Ltmp989:
	.loc	15 1462 63
	imulq	$112, -48(%rbp), %rax
Ltmp990:
	.loc	19 158 9
	leaq	104(%rbx,%rax), %rsi
Ltmp991:
	.loc	28 152 9
	leaq	216(%rbx,%rax), %rdi
Ltmp992:
	.loc	29 2122 5
	imulq	$112, %r14, %rdx
	movq	%rsi, %r14
Ltmp993:
	callq	_memmove
Ltmp994:
	.loc	16 836 42
	movl	$14, %ecx
	movq	%r14, %rdi
	leaq	-480(%rbp), %rsi
	rep;movsq (%rsi), %es:(%rdi)
Ltmp995:
	.loc	15 836 13 is_stmt 0
	leal	1(%r15), %eax
	movw	%ax, 10(%rbx)
Ltmp996:
	.loc	15 293 9 is_stmt 1
	movzwl	%ax, %r15d
Ltmp997:
	.loc	15 0 9 is_stmt 0
	movq	-48(%rbp), %rax
Ltmp998:
	.loc	19 158 9 is_stmt 1
	leaq	1344(%rbx,%rax,8), %rsi
Ltmp999:
	.loc	19 0 9 is_stmt 0
	movq	-48(%rbp), %rax
Ltmp1000:
	.loc	28 152 9 is_stmt 1
	leaq	1352(%rbx,%rax,8), %rdi
Ltmp1001:
	.loc	15 1462 73
	movq	%r15, %rdx
	subq	%r13, %rdx
Ltmp1002:
	.loc	29 2122 5
	shlq	$3, %rdx
Ltmp1003:
	callq	_memmove
Ltmp1004:
	.loc	29 0 5 is_stmt 0
	movq	-48(%rbp), %rcx
Ltmp1005:
	.loc	16 836 42 is_stmt 1
	movq	%r12, 1344(%rbx,%rcx,8)
Ltmp1006:
	.loc	16 0 42 is_stmt 0
	movq	-144(%rbp), %rax
Ltmp1007:
	.loc	24 1137 52 is_stmt 1
	cmpw	%ax, -50(%rbp)
	movq	-72(%rbp), %r8
Ltmp1008:
	.loc	30 211 9
	ja	LBB51_107
Ltmp1009:
	.loc	15 878 13
	movq	%r8, (%r12)
Ltmp1010:
	.loc	31 372 13
	movw	%r13w, 8(%r12)
Ltmp1011:
	.loc	24 1137 52
	cmpq	%r15, %r13
Ltmp1012:
	.loc	30 211 9
	je	LBB51_107
Ltmp1013:
	movl	%ecx, %eax
	notl	%eax
	addl	%r15d, %eax
	movq	%r15, %r9
	subq	%rcx, %r9
	addq	$-2, %r9
	andq	$3, %rax
	je	LBB51_76
Ltmp1014:
	addq	$169, %rcx
Ltmp1015:
	negq	%rax
	xorl	%edx, %edx
Ltmp1016:
LBB51_74:
	.loc	15 963 17
	movq	(%rbx,%rcx,8), %rsi
Ltmp1017:
	.loc	15 878 13
	movq	%r8, (%rsi)
Ltmp1018:
	.loc	15 0 13 is_stmt 0
	leal	-167(%rcx), %edi
Ltmp1019:
	.loc	31 372 13 is_stmt 1
	movw	%di, 8(%rsi)
Ltmp1020:
	.loc	30 211 9
	decq	%rdx
	incq	%rcx
	cmpq	%rdx, %rax
	jne	LBB51_74
Ltmp1021:
	subq	%rdx, %r13
Ltmp1022:
LBB51_76:
	cmpq	$3, %r9
	jb	LBB51_107
Ltmp1023:
LBB51_77:
	.loc	15 963 17
	movq	1344(%rbx,%r13,8), %rax
Ltmp1024:
	.loc	15 878 13
	movq	%r8, (%rax)
Ltmp1025:
	.loc	15 0 13 is_stmt 0
	leal	1(%r13), %ecx
Ltmp1026:
	.loc	31 372 13 is_stmt 1
	movw	%cx, 8(%rax)
Ltmp1027:
	.loc	15 963 17
	movq	1352(%rbx,%r13,8), %rax
Ltmp1028:
	.loc	15 878 13
	movq	%r8, (%rax)
Ltmp1029:
	.loc	15 0 13 is_stmt 0
	leal	2(%r13), %ecx
Ltmp1030:
	.loc	31 372 13 is_stmt 1
	movw	%cx, 8(%rax)
Ltmp1031:
	.loc	15 963 17
	movq	1360(%rbx,%r13,8), %rax
Ltmp1032:
	.loc	15 878 13
	movq	%r8, (%rax)
	leal	3(%r13), %ecx
Ltmp1033:
	.loc	31 372 13
	movw	%cx, 8(%rax)
Ltmp1034:
	.loc	15 963 17
	movq	1368(%rbx,%r13,8), %rax
Ltmp1035:
	.loc	15 0 0 is_stmt 0
	addq	$4, %r13
Ltmp1036:
	.loc	15 878 13 is_stmt 1
	movq	%r8, (%rax)
Ltmp1037:
	.loc	31 372 13
	movw	%r13w, 8(%rax)
Ltmp1038:
	.loc	24 1137 52
	cmpq	%r13, %r15
Ltmp1039:
	.loc	30 211 9
	jne	LBB51_77
	jmp	LBB51_107
Ltmp1040:
LBB51_101:
	.loc	30 0 9 is_stmt 0
	movq	%r12, -80(%rbp)
Ltmp1041:
	movq	-104(%rbp), %rax
	movq	%rax, -96(%rbp)
	movq	-160(%rbp), %r12
Ltmp1042:
LBB51_63:
	leaq	-268(%rbp), %rax
Ltmp1043:
	.loc	15 75 9 is_stmt 1
	movq	$0, 80(%rax)
	movq	$0, 72(%rax)
	movq	$0, 64(%rax)
	movq	$0, 56(%rax)
	movq	$0, 48(%rax)
	movq	$0, 40(%rax)
	movq	$0, 32(%rax)
	movq	$0, 24(%rax)
	movq	$0, 16(%rax)
	movq	$0, 8(%rax)
	movq	$0, (%rax)
	leaq	-364(%rbp), %rdi
	leaq	-272(%rbp), %rsi
Ltmp1044:
	.loc	15 110 9
	movl	$23, %ecx
	rep;movsl (%rsi), %es:(%rdi)
	leaq	-1888(%rbp), %rdi
	movl	$1328, %esi
	callq	___bzero
Ltmp1045:
	.loc	23 80 5
	movl	$1432, %edi
	movl	$8, %esi
	callq	___rust_alloc
Ltmp1046:
	.loc	23 269 9
	testq	%rax, %rax
	movq	-144(%rbp), %r15
Ltmp1047:
	je	LBB51_64
Ltmp1048:
	.loc	14 0 0 is_stmt 0
	movq	%rax, %rbx
Ltmp1049:
	.loc	27 174 13 is_stmt 1
	movq	$0, (%rax)
	movw	$0, 10(%rax)
	leaq	12(%rax), %rdi
	leaq	-364(%rbp), %rsi
	movl	$23, %ecx
	rep;movsl (%rsi), %es:(%rdi)
	movq	%rax, %r14
	addq	$104, %r14
	leaq	-1888(%rbp), %rsi
	movl	$1328, %edx
	movq	%r14, %rdi
	callq	_memcpy
Ltmp1050:
	.loc	15 191 62
	movq	24(%r15), %rax
Ltmp1051:
	.loc	31 372 13
	movq	%rax, 1336(%rbx)
Ltmp1052:
	.loc	15 193 9
	movq	%rbx, 24(%r15)
	.loc	15 194 9
	movq	32(%r15), %rdx
	leaq	1(%rdx), %rcx
Ltmp1053:
	movq	%rcx, 32(%r15)
Ltmp1054:
	.loc	15 878 13
	movq	%rbx, (%rax)
Ltmp1055:
	.loc	31 372 13
	movw	$0, 8(%rax)
	movq	-112(%rbp), %rax
Ltmp1056:
	.loc	14 2563 51
	movq	%rax, -1888(%rbp)
	movq	-120(%rbp), %rax
	movq	%rax, -1880(%rbp)
	movq	-128(%rbp), %rax
	movq	%rax, -1872(%rbp)
	movq	-136(%rbp), %rax
	movq	%rax, -1864(%rbp)
	leaq	-1856(%rbp), %rdi
	leaq	-560(%rbp), %rsi
	movl	$10, %ecx
Ltmp1057:
	rep;movsq (%rsi), %es:(%rdi)
Ltmp1058:
	.loc	15 547 17
	cmpq	%r12, %rdx
	.loc	15 547 9 is_stmt 0
	jne	LBB51_103
Ltmp1059:
	.loc	15 293 9 is_stmt 1
	movzwl	10(%rbx), %eax
Ltmp1060:
	cmpq	$11, %rax
Ltmp1061:
	.loc	15 548 9
	jae	LBB51_105
Ltmp1062:
	.loc	15 0 9 is_stmt 0
	leaq	-1888(%rbp), %rsi
Ltmp1063:
	movq	-96(%rbp), %rcx
Ltmp1064:
	.loc	16 836 42 is_stmt 1
	movq	%rcx, 16(%rbx,%rax,8)
Ltmp1065:
	.loc	28 152 9
	imulq	$112, %rax, %rcx
	addq	%rcx, %r14
Ltmp1066:
	.loc	16 836 42
	movl	$14, %ecx
	movq	%r14, %rdi
	rep;movsq (%rsi), %es:(%rdi)
Ltmp1067:
	.loc	15 555 60
	leaq	1(%rax), %rcx
Ltmp1068:
	.loc	15 0 60 is_stmt 0
	movq	-80(%rbp), %rdx
Ltmp1069:
	.loc	31 372 13 is_stmt 1
	movq	%rdx, 1344(%rbx,%rax,8)
Ltmp1070:
	.loc	15 557 13
	leal	1(%rax), %edx
	movw	%dx, 10(%rbx)
Ltmp1071:
	.loc	15 963 17
	movq	1344(%rbx,%rax,8), %rax
Ltmp1072:
	.loc	15 878 13
	movq	%rbx, (%rax)
Ltmp1073:
	.loc	31 372 13
	movw	%cx, 8(%rax)
	jmp	LBB51_107
Ltmp1074:
LBB51_111:
Ltmp592:
	.loc	6 135 16
	leaq	_str.5(%rip), %rdi
Ltmp1075:
	leaq	l___unnamed_104(%rip), %rdx
	movl	$33, %esi
	callq	__ZN4core9panicking5panic17h736ee47a631475c0E
Ltmp593:
Ltmp1076:
LBB51_26:
	.loc	6 0 16 is_stmt 0
	ud2
LBB51_25:
Ltmp1077:
Ltmp589:
	.loc	22 268 38 is_stmt 1
	callq	__ZN5alloc7raw_vec17capacity_overflow17h023f34f5bc34c61fE
Ltmp590:
	jmp	LBB51_26
Ltmp1078:
LBB51_112:
	.loc	6 0 0 is_stmt 0
	movl	$1336, %edi
	movl	$8, %esi
	callq	__ZN5alloc5alloc18handle_alloc_error17hbc0ab0ed90816c07E
Ltmp1079:
LBB51_27:
	.loc	22 269 47 is_stmt 1
	movl	$8, %esi
	movq	%r14, %rdi
	callq	__ZN5alloc5alloc18handle_alloc_error17hbc0ab0ed90816c07E
Ltmp1080:
LBB51_64:
	.loc	14 0 0 is_stmt 0
	movl	$1432, %edi
	movl	$8, %esi
	callq	__ZN5alloc5alloc18handle_alloc_error17hbc0ab0ed90816c07E
Ltmp1081:
LBB51_103:
Ltmp584:
	.loc	20 10 9 is_stmt 1
	leaq	l___unnamed_105(%rip), %rdi
	leaq	l___unnamed_106(%rip), %rdx
	movl	$48, %esi
	callq	__ZN4core9panicking5panic17h736ee47a631475c0E
Ltmp585:
	jmp	LBB51_26
Ltmp1082:
LBB51_105:
Ltmp586:
	leaq	l___unnamed_107(%rip), %rdi
	leaq	l___unnamed_106(%rip), %rdx
	movl	$39, %esi
	callq	__ZN4core9panicking5panic17h736ee47a631475c0E
Ltmp587:
	jmp	LBB51_26
Ltmp1083:
LBB51_113:
Ltmp588:
	.loc	20 0 9 is_stmt 0
	jmp	LBB51_29
Ltmp1084:
LBB51_28:
Ltmp591:
LBB51_29:
	movq	%rax, %rbx
Ltmp1085:
	leaq	-1888(%rbp), %rdi
	callq	__ZN4core3ptr13drop_in_place17hf1edb6823efa869dE
	movq	%rbx, %rdi
	callq	__Unwind_Resume
	ud2
Ltmp1086:
LBB51_109:
Ltmp594:
	movq	%rax, %rbx
	.loc	6 153 5 is_stmt 1
	movq	%r14, %rdi
	.loc	6 0 0 is_stmt 0
	callq	__ZN4core3ptr13drop_in_place17hf1edb6823efa869dE
	movq	%rbx, %rdi
	callq	__Unwind_Resume
	ud2
Ltmp1087:
Lfunc_end51:
	.cfi_endproc
	.file	32 "/rustc/a74d1862d4d87a56244958416fd05976c58ca1a8/src/libcore/iter/adapters/mod.rs"
	.file	33 "/rustc/a74d1862d4d87a56244958416fd05976c58ca1a8/src/libcore/ops/function.rs"
	.section	__TEXT,__gcc_except_tab
	.p2align	2
GCC_except_table51:
Lexception0:
	.byte	255
	.byte	255
	.byte	1
	.uleb128 Lcst_end0-Lcst_begin0
Lcst_begin0:
	.uleb128 Lfunc_begin51-Lfunc_begin51
	.uleb128 Ltmp592-Lfunc_begin51
	.byte	0
	.byte	0
	.uleb128 Ltmp592-Lfunc_begin51
	.uleb128 Ltmp593-Ltmp592
	.uleb128 Ltmp594-Lfunc_begin51
	.byte	0
	.uleb128 Ltmp589-Lfunc_begin51
	.uleb128 Ltmp590-Ltmp589
	.uleb128 Ltmp591-Lfunc_begin51
	.byte	0
	.uleb128 Ltmp584-Lfunc_begin51
	.uleb128 Ltmp587-Ltmp584
	.uleb128 Ltmp588-Lfunc_begin51
	.byte	0
	.uleb128 Ltmp587-Lfunc_begin51
	.uleb128 Lfunc_end51-Ltmp587
	.byte	0
	.byte	0
Lcst_end0:
	.p2align	2

	.section	__TEXT,__text,regular,pure_instructions
	.globl	__ZN5gimli4read6abbrev12Abbreviation3new17h31b739296b0d6835E
	.p2align	4, 0x90
__ZN5gimli4read6abbrev12Abbreviation3new17h31b739296b0d6835E:
Lfunc_begin52:
	.loc	6 198 0 is_stmt 1
	.cfi_startproc
	.cfi_personality 155, _rust_eh_personality
	.cfi_lsda 16, Lexception1
	pushq	%rbp
	.cfi_def_cfa_offset 16
	.cfi_offset %rbp, -16
	movq	%rsp, %rbp
	.cfi_def_cfa_register %rbp
	pushq	%r14
	pushq	%rbx
	subq	$112, %rsp
	.cfi_offset %rbx, -32
	.cfi_offset %r14, -24
	movq	%r8, %rbx
Ltmp1091:
	movq	%rsi, -24(%rbp)
Ltmp1092:
	.loc	6 204 9 prologue_end
	testq	%rsi, %rsi
Ltmp1093:
	je	LBB52_1
Ltmp1094:
	.loc	6 0 9 is_stmt 0
	movq	%rdi, %rax
Ltmp1095:
	.loc	6 205 9 is_stmt 1
	movq	%rsi, (%rdi)
	movw	%dx, 104(%rdi)
	movb	%cl, 106(%rdi)
	addq	$8, %rdi
	movl	$12, %ecx
Ltmp1096:
	movq	%rbx, %rsi
Ltmp1097:
	rep;movsq (%rsi), %es:(%rdi)
	.loc	6 211 6
	addq	$112, %rsp
	popq	%rbx
Ltmp1098:
	popq	%r14
	popq	%rbp
	retq
Ltmp1099:
LBB52_1:
	.loc	6 0 6 is_stmt 0
	leaq	-24(%rbp), %rax
Ltmp1100:
	.loc	6 204 9 is_stmt 1
	movq	%rax, -32(%rbp)
	leaq	L___unnamed_108(%rip), %rax
	movq	%rax, -40(%rbp)
	leaq	-32(%rbp), %rax
Ltmp1101:
	.loc	6 204 9 is_stmt 0
	movq	%rax, -72(%rbp)
	leaq	__ZN42_$LT$$RF$T$u20$as$u20$core..fmt..Debug$GT$3fmt17hbb78bfb77ba4622fE(%rip), %rax
	movq	%rax, -64(%rbp)
	leaq	-40(%rbp), %rcx
Ltmp1102:
	movq	%rcx, -56(%rbp)
	movq	%rax, -48(%rbp)
Ltmp1103:
	.loc	1 328 9 is_stmt 1
	leaq	l___unnamed_109(%rip), %rax
Ltmp1104:
	movq	%rax, -120(%rbp)
	movq	$3, -112(%rbp)
	movq	$0, -104(%rbp)
	leaq	-72(%rbp), %rax
Ltmp1105:
	movq	%rax, -88(%rbp)
	movq	$2, -80(%rbp)
Ltmp1106:
Ltmp1088:
	.loc	6 204 9
	leaq	l___unnamed_110(%rip), %rsi
Ltmp1107:
	.loc	6 0 9 is_stmt 0
	leaq	-120(%rbp), %rdi
	.loc	6 204 9
	callq	__ZN4core9panicking9panic_fmt17hab6ef1464e9720aaE
Ltmp1108:
Ltmp1089:
	.loc	6 0 9
	ud2
Ltmp1109:
LBB52_2:
Ltmp1090:
	movq	%rax, %r14
	.loc	6 211 5 is_stmt 1
	movq	%rbx, %rdi
	callq	__ZN4core3ptr13drop_in_place17h736fb9dde5b0babfE
	movq	%r14, %rdi
	callq	__Unwind_Resume
	ud2
Ltmp1110:
Lfunc_end52:
	.cfi_endproc
	.section	__TEXT,__gcc_except_tab
	.p2align	2
GCC_except_table52:
Lexception1:
	.byte	255
	.byte	255
	.byte	1
	.uleb128 Lcst_end1-Lcst_begin1
Lcst_begin1:
	.uleb128 Ltmp1088-Lfunc_begin52
	.uleb128 Ltmp1089-Ltmp1088
	.uleb128 Ltmp1090-Lfunc_begin52
	.byte	0
	.uleb128 Ltmp1089-Lfunc_begin52
	.uleb128 Lfunc_end52-Ltmp1089
	.byte	0
	.byte	0
Lcst_end1:
	.p2align	2

	.section	__TEXT,__text,regular,pure_instructions
	.globl	__ZN5gimli4read6abbrev10Attributes3new17hd43ece9bf647edbaE
	.p2align	4, 0x90
__ZN5gimli4read6abbrev10Attributes3new17hd43ece9bf647edbaE:
Lfunc_begin53:
	.loc	6 301 0
	.cfi_startproc
	pushq	%rbp
	.cfi_def_cfa_offset 16
	.cfi_offset %rbp, -16
	movq	%rsp, %rbp
	.cfi_def_cfa_register %rbp
	subq	$80, %rsp
	movq	%rdi, %rax
Ltmp1111:
	movq	$0, -80(%rbp)
	movl	$0, -72(%rbp)
	movq	$0, -64(%rbp)
	movl	$0, -56(%rbp)
	movq	$0, -48(%rbp)
	movl	$0, -40(%rbp)
	movq	$0, -32(%rbp)
	movl	$0, -24(%rbp)
	movq	$0, -16(%rbp)
	movl	$0, -8(%rbp)
Ltmp1112:
	.loc	6 304 9 prologue_end
	leaq	8(%rdi), %rdi
	leaq	-80(%rbp), %rsi
	movl	$10, %ecx
	rep;movsq (%rsi), %es:(%rdi)
	movq	$0, 88(%rax)
	movq	$0, (%rax)
Ltmp1113:
	.loc	6 308 6
	addq	$80, %rsp
	popq	%rbp
	retq
Ltmp1114:
Lfunc_end53:
	.cfi_endproc

	.globl	__ZN5gimli4read6abbrev10Attributes4push17ha43a7d20750e1c4aE
	.p2align	4, 0x90
__ZN5gimli4read6abbrev10Attributes4push17ha43a7d20750e1c4aE:
Lfunc_begin54:
	.loc	6 311 0
	.cfi_startproc
	.cfi_personality 155, _rust_eh_personality
	.cfi_lsda 16, Lexception2
	pushq	%rbp
	.cfi_def_cfa_offset 16
	.cfi_offset %rbp, -16
	movq	%rsp, %rbp
	.cfi_def_cfa_register %rbp
	pushq	%r15
	pushq	%r14
	pushq	%rbx
	subq	$120, %rsp
	.cfi_offset %rbx, -40
	.cfi_offset %r14, -32
	.cfi_offset %r15, -24
	movq	%rsi, %r15
Ltmp1121:
	movq	%rdi, %rbx
Ltmp1122:
	.loc	6 313 13 prologue_end
	cmpq	$1, (%rdi)
	jne	LBB54_1
Ltmp1123:
	.loc	6 313 56 is_stmt 0
	movq	(%r15), %rax
	movq	8(%r15), %rcx
	movq	%rcx, -80(%rbp)
	movq	%rax, -88(%rbp)
Ltmp1124:
	.loc	7 1200 12 is_stmt 1
	movq	24(%rbx), %rax
	cmpq	16(%rbx), %rax
	.loc	7 1200 9 is_stmt 0
	jne	LBB54_8
Ltmp1125:
	.loc	6 0 0
	leaq	8(%rbx), %rdi
Ltmp1126:
	.loc	7 1201 13 is_stmt 1
	movl	$1, %esi
	callq	__ZN5alloc3vec12Vec$LT$T$GT$7reserve17he206ec2985328f41E
Ltmp1127:
	.loc	7 1204 45
	movq	24(%rbx), %rax
Ltmp1128:
LBB54_8:
	.loc	7 850 19
	movq	8(%rbx), %rcx
Ltmp1129:
	.loc	28 152 9
	shlq	$4, %rax
Ltmp1130:
	.loc	16 836 42
	movq	-88(%rbp), %rdx
	movq	-80(%rbp), %rsi
	movq	%rsi, 8(%rcx,%rax)
	movq	%rdx, (%rcx,%rax)
Ltmp1131:
	.loc	7 1206 13
	incq	24(%rbx)
	jmp	LBB54_5
Ltmp1132:
LBB54_1:
	.loc	6 316 22
	leaq	8(%rbx), %r14
	movq	88(%rbx), %rdi
	cmpq	$5, %rdi
Ltmp1133:
	jne	LBB54_2
Ltmp1134:
	.loc	23 80 5
	movl	$80, %edi
	movl	$8, %esi
	callq	___rust_alloc
Ltmp1135:
	.loc	17 852 13
	testq	%rax, %rax
	je	LBB54_24
Ltmp1136:
	.loc	7 358 9
	movq	%rax, -88(%rbp)
	movl	$5, %eax
	movq	%rax, %xmm0
	movdqu	%xmm0, -80(%rbp)
Ltmp1137:
Ltmp1115:
	.loc	7 0 9 is_stmt 0
	leaq	-88(%rbp), %rdi
Ltmp1138:
	.loc	7 2174 9 is_stmt 1
	movl	$5, %esi
	callq	__ZN5alloc3vec12Vec$LT$T$GT$7reserve17he206ec2985328f41E
Ltmp1116:
Ltmp1139:
	.loc	7 2176 23
	movq	-72(%rbp), %rax
Ltmp1140:
	.loc	28 152 9
	movq	%rax, %rdi
	shlq	$4, %rdi
	addq	-88(%rbp), %rdi
Ltmp1141:
	.loc	29 2058 5
	movl	$10, %ecx
	movq	%r14, %rsi
	rep;movsq (%rsi), %es:(%rdi)
Ltmp1142:
	.loc	7 2179 26
	addq	$5, %rax
Ltmp1143:
	.file	34 "/rustc/a74d1862d4d87a56244958416fd05976c58ca1a8/src/liballoc/slice.rs"
	.loc	34 161 9
	movq	%rax, -96(%rbp)
	movq	-88(%rbp), %rcx
	movq	-80(%rbp), %rdx
	movq	%rdx, -104(%rbp)
	movq	%rcx, -112(%rbp)
Ltmp1144:
	.loc	6 319 27
	movq	(%r15), %rcx
	movq	8(%r15), %rsi
	movq	%rsi, -80(%rbp)
	movq	%rcx, -88(%rbp)
Ltmp1145:
	.loc	7 1200 12
	cmpq	%rdx, %rax
	.loc	7 1200 9 is_stmt 0
	jne	LBB54_14
Ltmp1146:
Ltmp1118:
	.loc	7 0 9
	leaq	-112(%rbp), %rdi
	.loc	7 1201 13 is_stmt 1
	movl	$1, %esi
	callq	__ZN5alloc3vec12Vec$LT$T$GT$7reserve17he206ec2985328f41E
Ltmp1119:
Ltmp1147:
	.loc	7 1204 45
	movq	-96(%rbp), %rax
Ltmp1148:
LBB54_14:
	.loc	7 850 19
	movq	-112(%rbp), %rcx
Ltmp1149:
	.loc	28 152 9
	movq	%rax, %rdx
	shlq	$4, %rdx
Ltmp1150:
	.loc	16 836 42
	movq	-88(%rbp), %rsi
	movq	-80(%rbp), %rdi
	movq	%rdi, 8(%rcx,%rdx)
	movq	%rsi, (%rcx,%rdx)
Ltmp1151:
	.loc	7 1206 13
	incq	%rax
Ltmp1152:
	movq	%rax, -96(%rbp)
Ltmp1153:
	.loc	6 320 42
	movq	%rax, -120(%rbp)
	movq	-112(%rbp), %rax
	movq	-104(%rbp), %rcx
Ltmp1154:
	movq	%rcx, -128(%rbp)
	movq	%rax, -136(%rbp)
Ltmp1155:
	.loc	16 178 1
	cmpq	$0, (%rbx)
	je	LBB54_19
Ltmp1156:
	.loc	16 178 1 is_stmt 0
	movq	16(%rbx), %rsi
Ltmp1157:
	.loc	22 200 40 is_stmt 1
	testq	%rsi, %rsi
	.loc	22 200 9 is_stmt 0
	je	LBB54_19
Ltmp1158:
	.loc	16 0 0
	movq	8(%rbx), %rdi
Ltmp1159:
	.loc	22 532 16 is_stmt 1
	testq	%rdi, %rdi
Ltmp1160:
	je	LBB54_19
Ltmp1161:
	.loc	22 0 0 is_stmt 0
	shlq	$4, %rsi
Ltmp1162:
	.loc	22 532 16
	je	LBB54_19
Ltmp1163:
	.loc	23 102 5 is_stmt 1
	movl	$8, %edx
	callq	___rust_dealloc
Ltmp1164:
LBB54_19:
	.loc	6 320 17
	movq	$1, (%rbx)
	movq	-120(%rbp), %rax
	movq	%rax, 16(%r14)
	movq	-136(%rbp), %rax
	movq	-128(%rbp), %rcx
	movq	%rcx, 8(%r14)
	movq	%rax, (%r14)
	movq	-32(%rbp), %rax
	movq	%rax, 88(%rbx)
	movq	-40(%rbp), %rax
	movq	%rax, 80(%rbx)
	movq	-48(%rbp), %rax
	movq	%rax, 72(%rbx)
	movq	-56(%rbp), %rax
	movq	%rax, 64(%rbx)
	movq	-64(%rbp), %rax
	movq	%rax, 56(%rbx)
	movq	-72(%rbp), %rax
	movq	%rax, 48(%rbx)
	movq	-88(%rbp), %rax
	movq	-80(%rbp), %rcx
	movq	%rcx, 40(%rbx)
	movq	%rax, 32(%rbx)
	jmp	LBB54_5
Ltmp1165:
LBB54_2:
	.loc	6 323 29
	movq	(%r15), %rax
	movq	8(%r15), %rcx
	movq	%rcx, -80(%rbp)
	movq	%rax, -88(%rbp)
	.loc	6 323 17 is_stmt 0
	cmpq	$5, %rdi
	jae	LBB54_20
Ltmp1166:
	shlq	$4, %rdi
	movq	-88(%rbp), %rax
	movq	-80(%rbp), %rcx
	movq	%rcx, 8(%r14,%rdi)
	movq	%rax, (%r14,%rdi)
	.loc	6 324 17 is_stmt 1
	movq	88(%rbx), %rax
	incq	%rax
	je	LBB54_21
Ltmp1167:
	movq	%rax, 88(%rbx)
Ltmp1168:
LBB54_5:
	.loc	6 327 6
	addq	$120, %rsp
	popq	%rbx
Ltmp1169:
	popq	%r14
	popq	%r15
Ltmp1170:
	popq	%rbp
	retq
LBB54_24:
Ltmp1171:
	.loc	17 853 23
	movl	$80, %edi
	movl	$8, %esi
	callq	__ZN5alloc7raw_vec19RawVec$LT$T$C$A$GT$11allocate_in28_$u7b$$u7b$closure$u7d$$u7d$17h65da8e735cec975bE
Ltmp1172:
LBB54_20:
	.loc	6 323 17
	leaq	l___unnamed_111(%rip), %rdx
	movl	$5, %esi
	callq	__ZN4core9panicking18panic_bounds_check17habe69d236c55e3edE
Ltmp1173:
LBB54_21:
	.loc	6 324 17
	leaq	_str.4(%rip), %rdi
	leaq	l___unnamed_112(%rip), %rdx
	movl	$28, %esi
	callq	__ZN4core9panicking5panic17h736ee47a631475c0E
Ltmp1174:
LBB54_25:
Ltmp1120:
	.loc	6 0 17 is_stmt 0
	movq	%rax, %rbx
Ltmp1175:
	leaq	-112(%rbp), %rdi
Ltmp1176:
	callq	__ZN4core3ptr13drop_in_place17h465cbcefdbe34ca2E
	movq	%rbx, %rdi
	callq	__Unwind_Resume
	ud2
Ltmp1177:
LBB54_22:
Ltmp1117:
	movq	%rax, %rbx
Ltmp1178:
	leaq	-88(%rbp), %rdi
	callq	__ZN4core3ptr13drop_in_place17h465cbcefdbe34ca2E
	movq	%rbx, %rdi
	callq	__Unwind_Resume
	ud2
Ltmp1179:
Lfunc_end54:
	.cfi_endproc
	.section	__TEXT,__gcc_except_tab
	.p2align	2
GCC_except_table54:
Lexception2:
	.byte	255
	.byte	255
	.byte	1
	.uleb128 Lcst_end2-Lcst_begin2
Lcst_begin2:
	.uleb128 Lfunc_begin54-Lfunc_begin54
	.uleb128 Ltmp1115-Lfunc_begin54
	.byte	0
	.byte	0
	.uleb128 Ltmp1115-Lfunc_begin54
	.uleb128 Ltmp1116-Ltmp1115
	.uleb128 Ltmp1117-Lfunc_begin54
	.byte	0
	.uleb128 Ltmp1118-Lfunc_begin54
	.uleb128 Ltmp1119-Ltmp1118
	.uleb128 Ltmp1120-Lfunc_begin54
	.byte	0
	.uleb128 Ltmp1119-Lfunc_begin54
	.uleb128 Lfunc_end54-Ltmp1119
	.byte	0
	.byte	0
Lcst_end2:
	.p2align	2

	.section	__TEXT,__text,regular,pure_instructions
	.globl	__ZN68_$LT$gimli..read..abbrev..Attributes$u20$as$u20$core..fmt..Debug$GT$3fmt17h3e661bd47db079e5E
	.p2align	4, 0x90
__ZN68_$LT$gimli..read..abbrev..Attributes$u20$as$u20$core..fmt..Debug$GT$3fmt17h3e661bd47db079e5E:
Lfunc_begin55:
	.loc	6 331 0 is_stmt 1
	.cfi_startproc
	pushq	%rbp
	.cfi_def_cfa_offset 16
	.cfi_offset %rbp, -16
	movq	%rsp, %rbp
	.cfi_def_cfa_register %rbp
Ltmp1180:
	pushq	%r15
	pushq	%r14
	pushq	%r13
	pushq	%r12
	pushq	%rbx
	subq	$24, %rsp
	.cfi_offset %rbx, -56
	.cfi_offset %r12, -48
	.cfi_offset %r13, -40
	.cfi_offset %r14, -32
	.cfi_offset %r15, -24
	.loc	6 348 13 prologue_end
	cmpq	$1, (%rdi)
	jne	LBB55_2
Ltmp1181:
	.loc	7 814 19
	movq	8(%rdi), %rbx
Ltmp1182:
	.loc	7 1966 55
	movq	24(%rdi), %r13
Ltmp1183:
	.loc	7 0 55 is_stmt 0
	leaq	-64(%rbp), %rdi
Ltmp1184:
	.loc	1 2162 9 is_stmt 1
	callq	__ZN4core3fmt9Formatter10debug_list17hd054f0986422feb9E
Ltmp1185:
	.loc	8 3179 9
	testq	%r13, %r13
	.loc	8 3303 21
	jne	LBB55_5
	jmp	LBB55_7
Ltmp1186:
LBB55_2:
	.loc	6 348 55
	movq	88(%rdi), %r13
Ltmp1187:
	.loc	8 2918 19
	cmpq	$6, %r13
	.loc	8 2918 16 is_stmt 0
	jae	LBB55_8
Ltmp1188:
	.loc	6 0 0
	addq	$8, %rdi
Ltmp1189:
	movq	%rdi, %rbx
Ltmp1190:
	leaq	-64(%rbp), %rdi
Ltmp1191:
	.loc	1 2162 9 is_stmt 1
	callq	__ZN4core3fmt9Formatter10debug_list17hd054f0986422feb9E
Ltmp1192:
	.loc	8 3179 9
	testq	%r13, %r13
	.loc	8 3303 21
	je	LBB55_7
Ltmp1193:
LBB55_5:
	shlq	$4, %r13
Ltmp1194:
	.loc	8 0 21 is_stmt 0
	leaq	l___unnamed_3(%rip), %r14
	leaq	-64(%rbp), %r15
	leaq	-48(%rbp), %r12
Ltmp1195:
	.p2align	4, 0x90
LBB55_6:
	.loc	9 661 22 is_stmt 1
	movq	%rbx, -48(%rbp)
Ltmp1196:
	.loc	10 90 9
	addq	$16, %rbx
Ltmp1197:
	.loc	9 662 13
	movq	%r15, %rdi
	movq	%r12, %rsi
	movq	%r14, %rdx
	callq	__ZN4core3fmt8builders9DebugList5entry17h5c0dec54538196dfE
Ltmp1198:
	.loc	8 3179 9
	addq	$-16, %r13
	.loc	8 3303 21
	jne	LBB55_6
Ltmp1199:
LBB55_7:
	.loc	8 0 21 is_stmt 0
	leaq	-64(%rbp), %rdi
	.loc	1 2162 9 is_stmt 1
	callq	__ZN4core3fmt8builders9DebugList6finish17h3635bd6af9b1c5a6E
Ltmp1200:
	.loc	6 333 6
	addq	$24, %rsp
	popq	%rbx
	popq	%r12
	popq	%r13
	popq	%r14
	popq	%r15
	popq	%rbp
	retq
LBB55_8:
Ltmp1201:
	.loc	8 2919 13
	leaq	l___unnamed_43(%rip), %rdx
	movl	$5, %esi
Ltmp1202:
	movq	%r13, %rdi
Ltmp1203:
	callq	__ZN4core5slice20slice_index_len_fail17h550a313151a85135E
Ltmp1204:
Lfunc_end55:
	.cfi_endproc

	.globl	__ZN72_$LT$gimli..read..abbrev..Attributes$u20$as$u20$core..cmp..PartialEq$GT$2eq17h15b2a3f950541eb0E
	.p2align	4, 0x90
__ZN72_$LT$gimli..read..abbrev..Attributes$u20$as$u20$core..cmp..PartialEq$GT$2eq17h15b2a3f950541eb0E:
Lfunc_begin56:
	.loc	6 337 0
	.cfi_startproc
	pushq	%rbp
	.cfi_def_cfa_offset 16
	.cfi_offset %rbp, -16
	movq	%rsp, %rbp
	.cfi_def_cfa_register %rbp
	movq	%rdi, %rax
Ltmp1205:
	.loc	6 348 13 prologue_end
	cmpq	$1, (%rdi)
	jne	LBB56_2
Ltmp1206:
	.loc	7 814 19
	movq	8(%rax), %r8
Ltmp1207:
	.loc	7 1966 55
	movq	24(%rax), %rdi
Ltmp1208:
	.loc	6 348 13
	cmpq	$1, (%rsi)
	jne	LBB56_6
Ltmp1209:
LBB56_5:
	.loc	7 814 19
	movq	8(%rsi), %rdx
Ltmp1210:
	.loc	7 1966 55
	movq	24(%rsi), %rax
Ltmp1211:
	.loc	8 5842 12
	cmpq	%rax, %rdi
	.loc	8 5842 9 is_stmt 0
	jne	LBB56_15
Ltmp1212:
LBB56_9:
	.loc	8 0 9
	movb	$1, %al
Ltmp1213:
	.loc	8 5846 12 is_stmt 1
	cmpq	%rdx, %r8
	.loc	8 5846 9 is_stmt 0
	je	LBB56_16
Ltmp1214:
	.file	35 "/rustc/a74d1862d4d87a56244958416fd05976c58ca1a8/src/libcore/iter/adapters/zip.rs"
	.loc	35 174 9 is_stmt 1
	incq	%rdi
	movl	$10, %esi
Ltmp1215:
	.p2align	4, 0x90
LBB56_11:
	.loc	35 174 12 is_stmt 0
	decq	%rdi
	.loc	35 174 9
	je	LBB56_16
Ltmp1216:
	.loc	6 377 5 is_stmt 1
	movzwl	-2(%r8,%rsi), %ecx
Ltmp1217:
	.loc	2 62 33
	cmpw	-2(%rdx,%rsi), %cx
Ltmp1218:
	.loc	6 378 5
	jne	LBB56_15
Ltmp1219:
	movzwl	(%r8,%rsi), %ecx
Ltmp1220:
	.loc	2 62 33
	cmpw	(%rdx,%rsi), %cx
Ltmp1221:
	.loc	6 378 5
	jne	LBB56_15
Ltmp1222:
	.loc	6 379 5
	movq	-10(%r8,%rsi), %rcx
	cmpq	-10(%rdx,%rsi), %rcx
Ltmp1223:
	.file	36 "/rustc/a74d1862d4d87a56244958416fd05976c58ca1a8/src/libcore/iter/traits/iterator.rs"
	.loc	36 0 0 is_stmt 0
	leaq	16(%rsi), %rsi
Ltmp1224:
	.loc	36 1878 32 is_stmt 1
	je	LBB56_11
	jmp	LBB56_15
Ltmp1225:
LBB56_2:
	.loc	6 348 55
	movq	88(%rax), %rdi
Ltmp1226:
	.loc	8 2918 19
	cmpq	$6, %rdi
	.loc	8 2918 16 is_stmt 0
	jae	LBB56_17
Ltmp1227:
	.loc	6 0 0
	addq	$8, %rax
Ltmp1228:
	movq	%rax, %r8
Ltmp1229:
	.loc	6 348 13 is_stmt 1
	cmpq	$1, (%rsi)
	je	LBB56_5
Ltmp1230:
LBB56_6:
	.loc	6 348 55 is_stmt 0
	movq	88(%rsi), %rax
Ltmp1231:
	.loc	8 2918 19 is_stmt 1
	cmpq	$6, %rax
	.loc	8 2918 16 is_stmt 0
	jae	LBB56_18
Ltmp1232:
	.loc	6 0 0
	addq	$8, %rsi
Ltmp1233:
	movq	%rsi, %rdx
Ltmp1234:
	.loc	8 5842 12 is_stmt 1
	cmpq	%rax, %rdi
	.loc	8 5842 9 is_stmt 0
	je	LBB56_9
Ltmp1235:
LBB56_15:
	.loc	8 0 9
	xorl	%eax, %eax
Ltmp1236:
LBB56_16:
	.loc	6 339 6 is_stmt 1
	popq	%rbp
	retq
LBB56_17:
Ltmp1237:
	.loc	8 2919 13
	leaq	l___unnamed_43(%rip), %rdx
	movl	$5, %esi
Ltmp1238:
	callq	__ZN4core5slice20slice_index_len_fail17h550a313151a85135E
Ltmp1239:
LBB56_18:
	.loc	8 2919 13 is_stmt 0
	leaq	l___unnamed_43(%rip), %rdx
	movl	$5, %esi
Ltmp1240:
	movq	%rax, %rdi
	callq	__ZN4core5slice20slice_index_len_fail17h550a313151a85135E
Ltmp1241:
Lfunc_end56:
	.cfi_endproc

	.globl	__ZN75_$LT$gimli..read..abbrev..Attributes$u20$as$u20$core..ops..deref..Deref$GT$5deref17h15d518540c113254E
	.p2align	4, 0x90
__ZN75_$LT$gimli..read..abbrev..Attributes$u20$as$u20$core..ops..deref..Deref$GT$5deref17h15d518540c113254E:
Lfunc_begin57:
	.loc	6 346 0 is_stmt 1
	.cfi_startproc
	pushq	%rbp
	.cfi_def_cfa_offset 16
	.cfi_offset %rbp, -16
	movq	%rsp, %rbp
	.cfi_def_cfa_register %rbp
Ltmp1242:
	.loc	6 348 13 prologue_end
	cmpq	$1, (%rdi)
	jne	LBB57_2
Ltmp1243:
	.loc	7 814 19
	movq	8(%rdi), %rax
Ltmp1244:
	.loc	7 1966 55
	movq	24(%rdi), %rdx
Ltmp1245:
	.loc	6 351 6
	popq	%rbp
	retq
Ltmp1246:
LBB57_2:
	.loc	6 348 55
	movq	88(%rdi), %rdx
Ltmp1247:
	.loc	8 2918 19
	cmpq	$6, %rdx
	.loc	8 2918 16 is_stmt 0
	jae	LBB57_5
Ltmp1248:
	.loc	6 0 0
	addq	$8, %rdi
Ltmp1249:
	movq	%rdi, %rax
Ltmp1250:
	.loc	6 351 6 is_stmt 1
	popq	%rbp
	retq
Ltmp1251:
LBB57_5:
	.loc	8 2919 13
	leaq	l___unnamed_43(%rip), %rax
	movl	$5, %esi
	movq	%rdx, %rdi
Ltmp1252:
	movq	%rax, %rdx
Ltmp1253:
	callq	__ZN4core5slice20slice_index_len_fail17h550a313151a85135E
Ltmp1254:
Lfunc_end57:
	.cfi_endproc

	.globl	__ZN145_$LT$gimli..read..abbrev..Attributes$u20$as$u20$core..convert..From$LT$alloc..vec..Vec$LT$gimli..read..abbrev..AttributeSpecification$GT$$GT$$GT$4from17h524b0c177e7777e0E
	.p2align	4, 0x90
__ZN145_$LT$gimli..read..abbrev..Attributes$u20$as$u20$core..convert..From$LT$alloc..vec..Vec$LT$gimli..read..abbrev..AttributeSpecification$GT$$GT$$GT$4from17h524b0c177e7777e0E:
Lfunc_begin58:
	.loc	6 368 0
	.cfi_startproc
	pushq	%rbp
	.cfi_def_cfa_offset 16
	.cfi_offset %rbp, -16
	movq	%rsp, %rbp
	.cfi_def_cfa_register %rbp
	movq	%rdi, %rax
Ltmp1255:
	.loc	6 369 9 prologue_end
	movq	16(%rsi), %rcx
	movq	%rcx, 24(%rdi)
	movq	(%rsi), %rcx
	movq	8(%rsi), %rdx
	movq	%rdx, 16(%rdi)
	movq	%rcx, 8(%rdi)
	movq	$1, (%rdi)
	.loc	6 370 6
	popq	%rbp
	retq
Ltmp1256:
Lfunc_end58:
	.cfi_endproc

	.globl	__ZN5gimli4read4line7LineRow18apply_line_advance17hf77ba4ddf88aa97fE
	.p2align	4, 0x90
__ZN5gimli4read4line7LineRow18apply_line_advance17hf77ba4ddf88aa97fE:
Lfunc_begin59:
	.file	37 "/Users/yingyuhang/.cargo/registry/src/github.com-1ecc6299db9ec823/gimli-0.22.0/src/read/line.rs"
	.loc	37 931 0
	.cfi_startproc
	pushq	%rbp
	.cfi_def_cfa_offset 16
	.cfi_offset %rbp, -16
	movq	%rsp, %rbp
	.cfi_def_cfa_register %rbp
Ltmp1257:
	.loc	37 932 12 prologue_end
	testq	%rsi, %rsi
	.loc	37 932 9 is_stmt 0
	js	LBB59_2
Ltmp1258:
	.file	38 "/rustc/a74d1862d4d87a56244958416fd05976c58ca1a8/src/libcore/num/wrapping.rs"
	.loc	38 146 17 is_stmt 1
	addq	%rsi, 24(%rdi)
Ltmp1259:
	.loc	37 942 6
	popq	%rbp
	retq
Ltmp1260:
LBB59_2:
	.loc	37 0 6 is_stmt 0
	movabsq	$-9223372036854775808, %rax
	.loc	37 933 29 is_stmt 1
	cmpq	%rax, %rsi
	je	LBB59_8
Ltmp1261:
	negq	%rsi
Ltmp1262:
	.loc	37 934 29
	movq	24(%rdi), %rax
	.loc	37 934 16 is_stmt 0
	subq	%rsi, %rax
	.loc	37 934 13
	jae	LBB59_5
Ltmp1263:
	.loc	37 937 17 is_stmt 1
	movq	$0, 24(%rdi)
Ltmp1264:
	.loc	37 942 6
	popq	%rbp
	retq
Ltmp1265:
LBB59_5:
	.loc	37 935 17
	jb	LBB59_9
Ltmp1266:
	movq	%rax, 24(%rdi)
Ltmp1267:
	.loc	37 942 6
	popq	%rbp
	retq
Ltmp1268:
LBB59_8:
	.loc	37 933 29
	leaq	_str.6(%rip), %rdi
Ltmp1269:
	leaq	l___unnamed_113(%rip), %rdx
	movl	$31, %esi
Ltmp1270:
	callq	__ZN4core9panicking5panic17h736ee47a631475c0E
LBB59_9:
Ltmp1271:
	.loc	37 935 17
	leaq	_str.5(%rip), %rdi
Ltmp1272:
	leaq	l___unnamed_114(%rip), %rdx
	movl	$33, %esi
Ltmp1273:
	callq	__ZN4core9panicking5panic17h736ee47a631475c0E
Ltmp1274:
Lfunc_end59:
	.cfi_endproc

	.globl	__ZN80_$LT$gimli..read..loclists..LocListsHeader$u20$as$u20$core..default..Default$GT$7default17h8cc0891a699fd0aeE
	.p2align	4, 0x90
__ZN80_$LT$gimli..read..loclists..LocListsHeader$u20$as$u20$core..default..Default$GT$7default17h8cc0891a699fd0aeE:
Lfunc_begin60:
	.file	39 "/Users/yingyuhang/.cargo/registry/src/github.com-1ecc6299db9ec823/gimli-0.22.0/src/read/loclists.rs"
	.loc	39 110 0
	.cfi_startproc
	pushq	%rbp
	.cfi_def_cfa_offset 16
	.cfi_offset %rbp, -16
	movq	%rsp, %rbp
	.cfi_def_cfa_register %rbp
	movabsq	$1411772930064384, %rax
Ltmp1275:
	.loc	39 119 6 prologue_end
	popq	%rbp
	retq
Ltmp1276:
Lfunc_end60:
	.cfi_endproc

	.globl	__ZN5gimli4read4unit20allow_section_offset17hf877ab7b8eb51598E
	.p2align	4, 0x90
__ZN5gimli4read4unit20allow_section_offset17hf877ab7b8eb51598E:
Lfunc_begin61:
	.file	40 "/Users/yingyuhang/.cargo/registry/src/github.com-1ecc6299db9ec823/gimli-0.22.0/src/read/unit.rs"
	.loc	40 2030 0
	.cfi_startproc
	xorl	%eax, %eax
Ltmp1277:
	.loc	40 2032 9 prologue_end
	addl	$-2, %edi
Ltmp1278:
	cmpw	$119, %di
	ja	LBB61_4
Ltmp1279:
	pushq	%rbp
	.cfi_def_cfa_offset 16
	.cfi_offset %rbp, -16
	movq	%rsp, %rbp
	.cfi_def_cfa_register %rbp
	movzwl	%di, %ecx
	leaq	LJTI61_0(%rip), %rdx
	movslq	(%rdx,%rcx,4), %rcx
	addq	%rdx, %rcx
	popq	%rbp
	jmpq	*%rcx
Ltmp1280:
LBB61_2:
	.loc	40 0 9 is_stmt 0
	movb	$1, %al
	.loc	40 2048 2 is_stmt 1
	retq
Ltmp1281:
LBB61_3:
	.loc	40 2045 50
	andl	$65534, %esi
Ltmp1282:
	cmpw	$2, %si
	sete	%al
LBB61_4:
	.loc	40 2048 2
	retq
Ltmp1283:
Lfunc_end61:
	.cfi_endproc
	.p2align	2, 0x90
	.data_region jt32
.set L61_0_set_2, LBB61_2-LJTI61_0
.set L61_0_set_4, LBB61_4-LJTI61_0
.set L61_0_set_3, LBB61_3-LJTI61_0
LJTI61_0:
	.long	L61_0_set_2
	.long	L61_0_set_4
	.long	L61_0_set_4
	.long	L61_0_set_4
	.long	L61_0_set_4
	.long	L61_0_set_4
	.long	L61_0_set_4
	.long	L61_0_set_4
	.long	L61_0_set_4
	.long	L61_0_set_4
	.long	L61_0_set_4
	.long	L61_0_set_4
	.long	L61_0_set_4
	.long	L61_0_set_4
	.long	L61_0_set_2
	.long	L61_0_set_4
	.long	L61_0_set_4
	.long	L61_0_set_4
	.long	L61_0_set_4
	.long	L61_0_set_4
	.long	L61_0_set_4
	.long	L61_0_set_4
	.long	L61_0_set_4
	.long	L61_0_set_2
	.long	L61_0_set_4
	.long	L61_0_set_4
	.long	L61_0_set_4
	.long	L61_0_set_4
	.long	L61_0_set_4
	.long	L61_0_set_4
	.long	L61_0_set_4
	.long	L61_0_set_4
	.long	L61_0_set_4
	.long	L61_0_set_4
	.long	L61_0_set_4
	.long	L61_0_set_4
	.long	L61_0_set_4
	.long	L61_0_set_4
	.long	L61_0_set_4
	.long	L61_0_set_4
	.long	L61_0_set_2
	.long	L61_0_set_4
	.long	L61_0_set_2
	.long	L61_0_set_4
	.long	L61_0_set_4
	.long	L61_0_set_4
	.long	L61_0_set_4
	.long	L61_0_set_4
	.long	L61_0_set_4
	.long	L61_0_set_4
	.long	L61_0_set_4
	.long	L61_0_set_4
	.long	L61_0_set_4
	.long	L61_0_set_4
	.long	L61_0_set_3
	.long	L61_0_set_4
	.long	L61_0_set_4
	.long	L61_0_set_4
	.long	L61_0_set_4
	.long	L61_0_set_4
	.long	L61_0_set_4
	.long	L61_0_set_4
	.long	L61_0_set_2
	.long	L61_0_set_4
	.long	L61_0_set_4
	.long	L61_0_set_2
	.long	L61_0_set_4
	.long	L61_0_set_4
	.long	L61_0_set_2
	.long	L61_0_set_4
	.long	L61_0_set_2
	.long	L61_0_set_4
	.long	L61_0_set_2
	.long	L61_0_set_4
	.long	L61_0_set_4
	.long	L61_0_set_2
	.long	L61_0_set_4
	.long	L61_0_set_4
	.long	L61_0_set_4
	.long	L61_0_set_4
	.long	L61_0_set_4
	.long	L61_0_set_4
	.long	L61_0_set_4
	.long	L61_0_set_2
	.long	L61_0_set_4
	.long	L61_0_set_4
	.long	L61_0_set_4
	.long	L61_0_set_4
	.long	L61_0_set_4
	.long	L61_0_set_4
	.long	L61_0_set_4
	.long	L61_0_set_4
	.long	L61_0_set_4
	.long	L61_0_set_4
	.long	L61_0_set_4
	.long	L61_0_set_4
	.long	L61_0_set_4
	.long	L61_0_set_4
	.long	L61_0_set_4
	.long	L61_0_set_4
	.long	L61_0_set_4
	.long	L61_0_set_4
	.long	L61_0_set_4
	.long	L61_0_set_4
	.long	L61_0_set_4
	.long	L61_0_set_4
	.long	L61_0_set_4
	.long	L61_0_set_4
	.long	L61_0_set_4
	.long	L61_0_set_4
	.long	L61_0_set_4
	.long	L61_0_set_4
	.long	L61_0_set_4
	.long	L61_0_set_4
	.long	L61_0_set_4
	.long	L61_0_set_4
	.long	L61_0_set_4
	.long	L61_0_set_4
	.long	L61_0_set_4
	.long	L61_0_set_2
	.end_data_region

	.globl	__ZN5gimli4read5value9ValueType8bit_size17ha959dc03c4656871E
	.p2align	4, 0x90
__ZN5gimli4read5value9ValueType8bit_size17ha959dc03c4656871E:
Lfunc_begin62:
	.file	41 "/Users/yingyuhang/.cargo/registry/src/github.com-1ecc6299db9ec823/gimli-0.22.0/src/read/value.rs"
	.loc	41 82 0
	.cfi_startproc
	pushq	%rbp
	.cfi_def_cfa_offset 16
	.cfi_offset %rbp, -16
	movq	%rsp, %rbp
	.cfi_def_cfa_register %rbp
Ltmp1284:
	movl	$8, %eax
Ltmp1285:
	.loc	41 84 13 prologue_end
	movzbl	%dil, %ecx
	leaq	LJTI62_0(%rip), %rdx
	movslq	(%rdx,%rcx,4), %rcx
	addq	%rdx, %rcx
	jmpq	*%rcx
Ltmp1286:
LBB62_7:
	.loc	41 0 13 is_stmt 0
	movl	$32, %eax
	.loc	41 90 6 is_stmt 1
	popq	%rbp
	retq
Ltmp1287:
LBB62_8:
	.loc	41 0 6 is_stmt 0
	movl	$64, %eax
	.loc	41 90 6
	popq	%rbp
	retq
Ltmp1288:
LBB62_6:
	.loc	41 0 6
	movl	$16, %eax
	.loc	41 90 6
	popq	%rbp
	retq
Ltmp1289:
LBB62_1:
	.loc	21 2616 17 is_stmt 1
	testq	%rsi, %rsi
	je	LBB62_2
Ltmp1290:
	bsrq	%rsi, %rcx
	xorq	$63, %rcx
	movl	$64, %eax
Ltmp1291:
	.loc	41 21 5
	subl	%ecx, %eax
	jb	LBB62_5
Ltmp1292:
LBB62_9:
	.loc	41 90 6
	popq	%rbp
	retq
Ltmp1293:
LBB62_2:
	.loc	41 0 6 is_stmt 0
	movl	$64, %ecx
	movl	$64, %eax
Ltmp1294:
	.loc	41 21 5 is_stmt 1
	subl	%ecx, %eax
	jae	LBB62_9
Ltmp1295:
LBB62_5:
	leaq	_str.5(%rip), %rdi
Ltmp1296:
	leaq	l___unnamed_115(%rip), %rdx
	movl	$33, %esi
Ltmp1297:
	callq	__ZN4core9panicking5panic17h736ee47a631475c0E
Ltmp1298:
Lfunc_end62:
	.cfi_endproc
	.p2align	2, 0x90
	.data_region jt32
.set L62_0_set_1, LBB62_1-LJTI62_0
.set L62_0_set_9, LBB62_9-LJTI62_0
.set L62_0_set_6, LBB62_6-LJTI62_0
.set L62_0_set_7, LBB62_7-LJTI62_0
.set L62_0_set_8, LBB62_8-LJTI62_0
LJTI62_0:
	.long	L62_0_set_1
	.long	L62_0_set_9
	.long	L62_0_set_9
	.long	L62_0_set_6
	.long	L62_0_set_6
	.long	L62_0_set_7
	.long	L62_0_set_7
	.long	L62_0_set_8
	.long	L62_0_set_8
	.long	L62_0_set_7
	.long	L62_0_set_8
	.end_data_region

	.globl	__ZN5gimli4read5value9ValueType13from_encoding17h20ab355759638905E
	.p2align	4, 0x90
__ZN5gimli4read5value9ValueType13from_encoding17h20ab355759638905E:
Lfunc_begin63:
	.loc	41 93 0
	.cfi_startproc
	pushq	%rbp
	.cfi_def_cfa_offset 16
	.cfi_offset %rbp, -16
	movq	%rsp, %rbp
	.cfi_def_cfa_register %rbp
	movb	$11, %al
Ltmp1299:
	.loc	41 95 14 prologue_end
	cmpb	$4, %dil
	je	LBB63_7
Ltmp1300:
	cmpb	$7, %dil
	je	LBB63_10
Ltmp1301:
	cmpb	$5, %dil
	jne	LBB63_12
Ltmp1302:
	.loc	41 95 40 is_stmt 0
	decq	%rsi
Ltmp1303:
	cmpq	$8, %rsi
	jae	LBB63_12
Ltmp1304:
	.loc	41 0 40
	movl	$139, %ecx
	.loc	41 95 40
	btl	%esi, %ecx
	jae	LBB63_12
Ltmp1305:
	shll	$3, %esi
	movabsq	$504685737132753665, %rax
	.loc	41 0 0
	movl	%esi, %ecx
	shrq	%cl, %rax
	.loc	41 107 6 is_stmt 1
	popq	%rbp
	retq
Ltmp1306:
LBB63_7:
	.loc	41 103 39
	cmpq	$4, %rsi
	je	LBB63_13
Ltmp1307:
	cmpq	$8, %rsi
	jne	LBB63_12
Ltmp1308:
	.loc	41 0 39 is_stmt 0
	movb	$10, %al
	.loc	41 107 6 is_stmt 1
	popq	%rbp
	retq
Ltmp1309:
LBB63_10:
	.loc	41 99 42
	decq	%rsi
Ltmp1310:
	cmpq	$8, %rsi
	jae	LBB63_12
Ltmp1311:
	.loc	41 0 42 is_stmt 0
	movl	$139, %ecx
	.loc	41 99 42
	btl	%esi, %ecx
	jb	LBB63_14
Ltmp1312:
LBB63_12:
	.loc	41 107 6 is_stmt 1
	popq	%rbp
	retq
Ltmp1313:
LBB63_13:
	.loc	41 0 6 is_stmt 0
	movb	$9, %al
	.loc	41 107 6
	popq	%rbp
	retq
Ltmp1314:
LBB63_14:
	.loc	41 99 42 is_stmt 1
	shll	$3, %esi
	movabsq	$577025909970830338, %rax
	.loc	41 0 0 is_stmt 0
	movl	%esi, %ecx
	shrq	%cl, %rax
	.loc	41 107 6 is_stmt 1
	popq	%rbp
	retq
Ltmp1315:
Lfunc_end63:
	.cfi_endproc

	.globl	__ZN5gimli4read5value5Value10value_type17h1f65e3f6c18e1d7cE
	.p2align	4, 0x90
__ZN5gimli4read5value5Value10value_type17h1f65e3f6c18e1d7cE:
Lfunc_begin64:
	.loc	41 153 0
	.cfi_startproc
	pushq	%rbp
	.cfi_def_cfa_offset 16
	.cfi_offset %rbp, -16
	movq	%rsp, %rbp
	.cfi_def_cfa_register %rbp
Ltmp1316:
	.loc	41 155 13 prologue_end
	movb	(%rdi), %al
	popq	%rbp
	retq
Ltmp1317:
Lfunc_end64:
	.cfi_endproc

	.globl	__ZN5gimli4read5value5Value6to_u6417h6b49a4d8385f5807E
	.p2align	4, 0x90
__ZN5gimli4read5value5Value6to_u6417h6b49a4d8385f5807E:
Lfunc_begin65:
	.loc	41 191 0
	.cfi_startproc
	pushq	%rbp
	.cfi_def_cfa_offset 16
	.cfi_offset %rbp, -16
	movq	%rsp, %rbp
	.cfi_def_cfa_register %rbp
	movq	%rdi, %rax
Ltmp1318:
	.loc	41 193 13 prologue_end
	movzbl	(%rsi), %ecx
	cmpq	$8, %rcx
	ja	LBB65_2
Ltmp1319:
	.loc	41 0 13 is_stmt 0
	leaq	LJTI65_0(%rip), %rdi
	movslq	(%rdi,%rcx,4), %rcx
	addq	%rdi, %rcx
	jmpq	*%rcx
Ltmp1320:
LBB65_10:
	movq	8(%rsi), %rdx
Ltmp1321:
	jmp	LBB65_11
Ltmp1322:
LBB65_2:
	.loc	41 202 25 is_stmt 1
	movb	$43, 8(%rax)
	movl	$1, %ecx
	.loc	41 0 0 is_stmt 0
	movq	%rcx, (%rax)
	.loc	41 205 6 is_stmt 1
	popq	%rbp
	retq
Ltmp1323:
LBB65_3:
	.loc	41 193 38
	andq	8(%rsi), %rdx
Ltmp1324:
	.loc	41 0 38 is_stmt 0
	jmp	LBB65_11
Ltmp1325:
LBB65_4:
	.loc	41 194 23 is_stmt 1
	movsbq	1(%rsi), %rdx
Ltmp1326:
	.loc	41 0 23 is_stmt 0
	jmp	LBB65_11
Ltmp1327:
LBB65_5:
	.loc	41 195 23 is_stmt 1
	movzbl	1(%rsi), %edx
Ltmp1328:
	.loc	41 0 23 is_stmt 0
	jmp	LBB65_11
Ltmp1329:
LBB65_6:
	.loc	41 196 24 is_stmt 1
	movswq	2(%rsi), %rdx
Ltmp1330:
	.loc	41 0 24 is_stmt 0
	jmp	LBB65_11
Ltmp1331:
LBB65_7:
	.loc	41 197 24 is_stmt 1
	movzwl	2(%rsi), %edx
Ltmp1332:
	.loc	41 0 24 is_stmt 0
	jmp	LBB65_11
Ltmp1333:
LBB65_8:
	.loc	41 198 24 is_stmt 1
	movslq	4(%rsi), %rdx
Ltmp1334:
	.loc	41 0 24 is_stmt 0
	jmp	LBB65_11
Ltmp1335:
LBB65_9:
	.loc	41 199 24 is_stmt 1
	movl	4(%rsi), %edx
Ltmp1336:
LBB65_11:
	.loc	41 204 9
	movq	%rdx, 8(%rax)
	xorl	%ecx, %ecx
Ltmp1337:
	.loc	41 0 0 is_stmt 0
	movq	%rcx, (%rax)
	.loc	41 205 6 is_stmt 1
	popq	%rbp
	retq
Ltmp1338:
Lfunc_end65:
	.cfi_endproc
	.p2align	2, 0x90
	.data_region jt32
.set L65_0_set_3, LBB65_3-LJTI65_0
.set L65_0_set_4, LBB65_4-LJTI65_0
.set L65_0_set_5, LBB65_5-LJTI65_0
.set L65_0_set_6, LBB65_6-LJTI65_0
.set L65_0_set_7, LBB65_7-LJTI65_0
.set L65_0_set_8, LBB65_8-LJTI65_0
.set L65_0_set_9, LBB65_9-LJTI65_0
.set L65_0_set_10, LBB65_10-LJTI65_0
LJTI65_0:
	.long	L65_0_set_3
	.long	L65_0_set_4
	.long	L65_0_set_5
	.long	L65_0_set_6
	.long	L65_0_set_7
	.long	L65_0_set_8
	.long	L65_0_set_9
	.long	L65_0_set_10
	.long	L65_0_set_10
	.end_data_region

	.section	__TEXT,__literal16,16byte_literals
	.p2align	4
LCPI66_0:
	.long	1127219200
	.long	1160773632
	.long	0
	.long	0
LCPI66_1:
	.quad	4841369599423283200
	.quad	4985484787499139072
	.section	__TEXT,__text,regular,pure_instructions
	.globl	__ZN5gimli4read5value5Value8from_u6417hc46c8457ffca475fE
	.p2align	4, 0x90
__ZN5gimli4read5value5Value8from_u6417hc46c8457ffca475fE:
Lfunc_begin66:
	.loc	41 212 0
	.cfi_startproc
	pushq	%rbp
	.cfi_def_cfa_offset 16
	.cfi_offset %rbp, -16
	movq	%rsp, %rbp
	.cfi_def_cfa_register %rbp
Ltmp1339:
	movq	%rdi, %rax
Ltmp1340:
	.loc	41 214 13 prologue_end
	movzbl	%sil, %ecx
	leaq	LJTI66_0(%rip), %rdi
	movslq	(%rdi,%rcx,4), %rcx
	addq	%rdi, %rcx
	jmpq	*%rcx
Ltmp1341:
LBB66_2:
	.loc	41 0 13 is_stmt 0
	movb	$1, %sil
Ltmp1342:
	jmp	LBB66_12
Ltmp1343:
LBB66_3:
	movb	$2, %sil
Ltmp1344:
	jmp	LBB66_12
Ltmp1345:
LBB66_4:
	movb	$3, %sil
Ltmp1346:
	jmp	LBB66_12
Ltmp1347:
LBB66_5:
	movb	$4, %sil
Ltmp1348:
	jmp	LBB66_12
Ltmp1349:
LBB66_6:
	movb	$5, %sil
Ltmp1350:
	jmp	LBB66_12
Ltmp1351:
LBB66_7:
	movb	$6, %sil
Ltmp1352:
	jmp	LBB66_12
Ltmp1353:
LBB66_8:
	.loc	41 223 42 is_stmt 1
	testq	%rdx, %rdx
	js	LBB66_9
Ltmp1354:
	.loc	41 0 42 is_stmt 0
	cvtsi2ss	%rdx, %xmm0
	jmp	LBB66_11
Ltmp1355:
LBB66_1:
	.loc	41 224 42 is_stmt 1
	movq	%rdx, %xmm0
	punpckldq	LCPI66_0(%rip), %xmm0
	subpd	LCPI66_1(%rip), %xmm0
	haddpd	%xmm0, %xmm0
	.loc	41 224 31 is_stmt 0
	movq	%xmm0, %rdx
Ltmp1356:
	.loc	41 0 31
	movb	$10, %sil
Ltmp1357:
	jmp	LBB66_12
Ltmp1358:
LBB66_9:
	movq	%rdx, %rcx
	shrq	%rcx
	andl	$1, %edx
Ltmp1359:
	orq	%rcx, %rdx
	cvtsi2ss	%rdx, %xmm0
	addss	%xmm0, %xmm0
Ltmp1360:
LBB66_11:
	.loc	41 223 31 is_stmt 1
	movd	%xmm0, %edx
Ltmp1361:
	.loc	41 0 31 is_stmt 0
	movb	$9, %sil
Ltmp1362:
LBB66_12:
	.loc	41 226 9 is_stmt 1
	movb	%sil, 8(%rax)
	movb	%dl, 9(%rax)
	movw	%dx, 10(%rax)
	movl	%edx, 12(%rax)
	movq	%rdx, 16(%rax)
	movq	$0, (%rax)
Ltmp1363:
	.loc	41 227 6
	popq	%rbp
	retq
Ltmp1364:
Lfunc_end66:
	.cfi_endproc
	.p2align	2, 0x90
	.data_region jt32
.set L66_0_set_12, LBB66_12-LJTI66_0
.set L66_0_set_2, LBB66_2-LJTI66_0
.set L66_0_set_3, LBB66_3-LJTI66_0
.set L66_0_set_4, LBB66_4-LJTI66_0
.set L66_0_set_5, LBB66_5-LJTI66_0
.set L66_0_set_6, LBB66_6-LJTI66_0
.set L66_0_set_7, LBB66_7-LJTI66_0
.set L66_0_set_8, LBB66_8-LJTI66_0
.set L66_0_set_1, LBB66_1-LJTI66_0
LJTI66_0:
	.long	L66_0_set_12
	.long	L66_0_set_2
	.long	L66_0_set_3
	.long	L66_0_set_4
	.long	L66_0_set_5
	.long	L66_0_set_6
	.long	L66_0_set_7
	.long	L66_0_set_12
	.long	L66_0_set_12
	.long	L66_0_set_8
	.long	L66_0_set_1
	.end_data_region

	.section	__TEXT,__literal8,8byte_literals
	.p2align	3
LCPI67_0:
	.quad	4890909195324358656
LCPI67_1:
	.quad	4895412794951729151
LCPI67_2:
	.quad	4890909195324358655
LCPI67_3:
	.quad	-4332462841530417152
LCPI67_4:
	.quad	4751297606873776128
LCPI67_5:
	.quad	4746794007244308480
LCPI67_6:
	.quad	-4476578029606273024
LCPI67_7:
	.quad	4679239875398991872
LCPI67_8:
	.quad	4674736138332667904
LCPI67_9:
	.quad	-4548635623644200960
LCPI67_10:
	.quad	4643176031446892544
LCPI67_11:
	.quad	4638637247447433216
LCPI67_12:
	.quad	-4584664420663164928
	.section	__TEXT,__literal4,4byte_literals
	.p2align	2
LCPI67_13:
	.long	1593835520
LCPI67_14:
	.long	1602224127
LCPI67_15:
	.long	1593835519
LCPI67_16:
	.long	3741319168
LCPI67_17:
	.long	1333788671
LCPI67_18:
	.long	1325400063
LCPI67_19:
	.long	3472883712
LCPI67_20:
	.long	1199570688
LCPI67_21:
	.long	1191181824
LCPI67_22:
	.long	3338665984
LCPI67_23:
	.long	1132396544
LCPI67_24:
	.long	1123942400
LCPI67_25:
	.long	3271557120
	.section	__TEXT,__literal16,16byte_literals
	.p2align	4
LCPI67_26:
	.long	1127219200
	.long	1160773632
	.long	0
	.long	0
LCPI67_27:
	.quad	4841369599423283200
	.quad	4985484787499139072
	.section	__TEXT,__text,regular,pure_instructions
	.globl	__ZN5gimli4read5value5Value7convert17h83273a8a82192d17E
	.p2align	4, 0x90
__ZN5gimli4read5value5Value7convert17h83273a8a82192d17E:
Lfunc_begin67:
	.loc	41 281 0
	.cfi_startproc
	pushq	%rbp
	.cfi_def_cfa_offset 16
	.cfi_offset %rbp, -16
	movq	%rsp, %rbp
	.cfi_def_cfa_register %rbp
	movq	%rdi, %rax
Ltmp1365:
	.loc	41 283 13 prologue_end
	movzbl	(%rsi), %edi
	cmpq	$9, %rdi
Ltmp1366:
	je	LBB67_4
Ltmp1367:
	cmpq	$10, %rdi
	jne	LBB67_7
Ltmp1368:
	.loc	41 284 24
	movsd	8(%rsi), %xmm0
Ltmp1369:
	.loc	41 258 13
	movzbl	%dl, %ecx
Ltmp1370:
	.loc	41 0 13 is_stmt 0
	leaq	LJTI67_0(%rip), %rdx
Ltmp1371:
	movslq	(%rdx,%rcx,4), %rcx
	addq	%rdx, %rcx
	jmpq	*%rcx
Ltmp1372:
LBB67_3:
	xorpd	%xmm1, %xmm1
	.loc	41 258 50
	movapd	%xmm0, %xmm2
	maxsd	%xmm1, %xmm2
	movsd	LCPI67_0(%rip), %xmm1
	movapd	%xmm2, %xmm3
	subsd	%xmm1, %xmm3
	cvttsd2si	%xmm3, %rcx
	movabsq	$-9223372036854775808, %rdx
	xorq	%rcx, %rdx
	cvttsd2si	%xmm2, %rsi
Ltmp1373:
	ucomisd	%xmm1, %xmm2
	cmovaeq	%rdx, %rsi
	ucomisd	LCPI67_1(%rip), %xmm0
	jmp	LBB67_6
Ltmp1374:
LBB67_4:
	.loc	41 283 24 is_stmt 1
	movd	4(%rsi), %xmm0
Ltmp1375:
	.loc	41 236 13
	movzbl	%dl, %ecx
Ltmp1376:
	.loc	41 0 13 is_stmt 0
	leaq	LJTI67_1(%rip), %rdx
Ltmp1377:
	movslq	(%rdx,%rcx,4), %rcx
	addq	%rdx, %rcx
	jmpq	*%rcx
Ltmp1378:
LBB67_5:
	xorps	%xmm1, %xmm1
	.loc	41 236 50
	movaps	%xmm0, %xmm2
	maxss	%xmm1, %xmm2
	movss	LCPI67_13(%rip), %xmm1
	movaps	%xmm2, %xmm3
	subss	%xmm1, %xmm3
	cvttss2si	%xmm3, %rcx
	movabsq	$-9223372036854775808, %rdx
	xorq	%rcx, %rdx
	cvttss2si	%xmm2, %rsi
Ltmp1379:
	ucomiss	%xmm1, %xmm2
	cmovaeq	%rdx, %rsi
	ucomiss	LCPI67_14(%rip), %xmm0
Ltmp1380:
LBB67_6:
	.loc	41 0 50
	movq	$-1, %rcx
	cmovbeq	%rsi, %rcx
Ltmp1381:
	xorl	%edx, %edx
Ltmp1382:
	jmp	LBB67_43
Ltmp1383:
LBB67_7:
	.loc	41 193 13 is_stmt 1
	cmpq	$8, %rdi
	ja	LBB67_10
Ltmp1384:
	.loc	41 0 13 is_stmt 0
	movsbq	1(%rsi), %r8
	movswq	2(%rsi), %r9
	movslq	4(%rsi), %r10
	movq	8(%rsi), %r11
Ltmp1385:
	leaq	LJTI67_2(%rip), %rsi
Ltmp1386:
	movslq	(%rsi,%rdi,4), %rdi
	addq	%rsi, %rdi
	jmpq	*%rdi
Ltmp1387:
LBB67_9:
	.loc	41 214 13 is_stmt 1
	movzbl	%dl, %ecx
Ltmp1388:
	.loc	41 0 13 is_stmt 0
	leaq	LJTI67_3(%rip), %rsi
	movslq	(%rsi,%rcx,4), %rcx
	addq	%rsi, %rcx
	jmpq	*%rcx
Ltmp1389:
LBB67_10:
	.loc	17 1558 9 is_stmt 1
	movq	$43, 8(%rax)
	movl	$1, %ecx
Ltmp1390:
	.loc	41 0 0 is_stmt 0
	movq	%rcx, (%rax)
	.loc	41 287 6 is_stmt 1
	popq	%rbp
	retq
Ltmp1391:
LBB67_11:
	.loc	41 193 38
	andq	%rcx, %r11
Ltmp1392:
	.loc	41 214 13
	movzbl	%dl, %ecx
Ltmp1393:
	.loc	41 0 13 is_stmt 0
	leaq	LJTI67_3(%rip), %rsi
	movslq	(%rsi,%rcx,4), %rcx
	addq	%rsi, %rcx
	jmpq	*%rcx
Ltmp1394:
LBB67_12:
	.loc	41 214 13
	movzbl	%dl, %ecx
Ltmp1395:
	.loc	41 0 13
	leaq	LJTI67_3(%rip), %rsi
	movslq	(%rsi,%rcx,4), %rcx
	addq	%rsi, %rcx
	movq	%r8, %r11
Ltmp1396:
	jmpq	*%rcx
Ltmp1397:
LBB67_13:
	.file	42 "/rustc/a74d1862d4d87a56244958416fd05976c58ca1a8/src/libcore/convert/num.rs"
	.loc	42 51 17 is_stmt 1
	movzbl	%r8b, %r11d
Ltmp1398:
	.loc	41 214 13
	movzbl	%dl, %ecx
Ltmp1399:
	.loc	41 0 13 is_stmt 0
	leaq	LJTI67_3(%rip), %rsi
	movslq	(%rsi,%rcx,4), %rcx
	addq	%rsi, %rcx
	jmpq	*%rcx
Ltmp1400:
LBB67_14:
	.loc	41 214 13
	movzbl	%dl, %ecx
Ltmp1401:
	.loc	41 0 13
	leaq	LJTI67_3(%rip), %rsi
	movslq	(%rsi,%rcx,4), %rcx
	addq	%rsi, %rcx
	movq	%r9, %r11
Ltmp1402:
	jmpq	*%rcx
Ltmp1403:
LBB67_15:
	.loc	42 51 17 is_stmt 1
	movzwl	%r9w, %r11d
Ltmp1404:
	.loc	41 214 13
	movzbl	%dl, %ecx
Ltmp1405:
	.loc	41 0 13 is_stmt 0
	leaq	LJTI67_3(%rip), %rsi
	movslq	(%rsi,%rcx,4), %rcx
	addq	%rsi, %rcx
	jmpq	*%rcx
Ltmp1406:
LBB67_16:
	.loc	41 214 13
	movzbl	%dl, %ecx
Ltmp1407:
	.loc	41 0 13
	leaq	LJTI67_3(%rip), %rsi
	movslq	(%rsi,%rcx,4), %rcx
	addq	%rsi, %rcx
	movq	%r10, %r11
Ltmp1408:
	jmpq	*%rcx
Ltmp1409:
LBB67_17:
	.loc	42 51 17 is_stmt 1
	movl	%r10d, %r11d
Ltmp1410:
	.loc	41 214 13
	movzbl	%dl, %ecx
Ltmp1411:
	.loc	41 0 13 is_stmt 0
	leaq	LJTI67_3(%rip), %rsi
	movslq	(%rsi,%rcx,4), %rcx
	addq	%rsi, %rcx
	jmpq	*%rcx
Ltmp1412:
LBB67_18:
	movb	$1, %dl
Ltmp1413:
	jmp	LBB67_60
Ltmp1414:
LBB67_19:
	.loc	41 259 40 is_stmt 1
	ucomisd	LCPI67_11(%rip), %xmm0
	movapd	%xmm0, %xmm1
	maxsd	LCPI67_12(%rip), %xmm1
	cvttsd2si	%xmm1, %ecx
	movl	$127, %edx
	cmovbel	%ecx, %edx
	xorl	%edi, %edi
	ucomisd	%xmm0, %xmm0
	jmp	LBB67_30
Ltmp1415:
LBB67_20:
	.loc	41 260 40
	ucomisd	LCPI67_10(%rip), %xmm0
	xorpd	%xmm1, %xmm1
	maxsd	%xmm1, %xmm0
Ltmp1416:
	cvttsd2si	%xmm0, %ecx
	jmp	LBB67_32
Ltmp1417:
LBB67_21:
	.loc	41 261 42
	ucomisd	LCPI67_8(%rip), %xmm0
	movapd	%xmm0, %xmm1
	maxsd	LCPI67_9(%rip), %xmm1
	cvttsd2si	%xmm1, %ecx
	movl	$32767, %edx
	cmovbel	%ecx, %edx
	xorl	%esi, %esi
Ltmp1418:
	ucomisd	%xmm0, %xmm0
	cmovnpl	%edx, %esi
Ltmp1419:
	.loc	41 0 42 is_stmt 0
	movb	$3, %dl
Ltmp1420:
	jmp	LBB67_41
Ltmp1421:
LBB67_22:
	.loc	41 262 42 is_stmt 1
	ucomisd	LCPI67_7(%rip), %xmm0
	xorpd	%xmm1, %xmm1
	maxsd	%xmm1, %xmm0
Ltmp1422:
	cvttsd2si	%xmm0, %ecx
	jmp	LBB67_35
Ltmp1423:
LBB67_23:
	.loc	41 263 42
	ucomisd	LCPI67_5(%rip), %xmm0
	movapd	%xmm0, %xmm1
	maxsd	LCPI67_6(%rip), %xmm1
	cvttsd2si	%xmm1, %ecx
	movl	$2147483647, %edx
	cmovbel	%ecx, %edx
	xorl	%r8d, %r8d
	ucomisd	%xmm0, %xmm0
	jmp	LBB67_37
Ltmp1424:
LBB67_24:
	.loc	41 264 42
	ucomisd	LCPI67_4(%rip), %xmm0
	xorpd	%xmm1, %xmm1
	maxsd	%xmm1, %xmm0
Ltmp1425:
	cvttsd2si	%xmm0, %rcx
	jmp	LBB67_39
Ltmp1426:
LBB67_25:
	.loc	41 265 42
	ucomisd	LCPI67_2(%rip), %xmm0
	movapd	%xmm0, %xmm1
	maxsd	LCPI67_3(%rip), %xmm1
	cvttsd2si	%xmm1, %rcx
	movabsq	$9223372036854775807, %rdx
	cmovbeq	%rcx, %rdx
	xorl	%ecx, %ecx
	ucomisd	%xmm0, %xmm0
	jmp	LBB67_45
Ltmp1427:
LBB67_26:
	.loc	41 0 42 is_stmt 0
	xorpd	%xmm1, %xmm1
	.loc	41 266 42 is_stmt 1
	movapd	%xmm0, %xmm2
	maxsd	%xmm1, %xmm2
	movsd	LCPI67_0(%rip), %xmm1
	movapd	%xmm2, %xmm3
	subsd	%xmm1, %xmm3
	cvttsd2si	%xmm3, %rcx
	movabsq	$-9223372036854775808, %rdx
	xorq	%rcx, %rdx
	cvttsd2si	%xmm2, %rsi
Ltmp1428:
	ucomisd	%xmm1, %xmm2
	cmovaeq	%rdx, %rsi
	ucomisd	LCPI67_1(%rip), %xmm0
	jmp	LBB67_47
Ltmp1429:
LBB67_27:
	.loc	41 267 42
	cvtsd2ss	%xmm0, %xmm0
Ltmp1430:
LBB67_28:
	.loc	41 0 0 is_stmt 0
	movd	%xmm0, %r8d
Ltmp1431:
	movb	$9, %dl
	jmp	LBB67_40
Ltmp1432:
LBB67_29:
	.loc	41 237 40 is_stmt 1
	ucomiss	LCPI67_24(%rip), %xmm0
	movaps	%xmm0, %xmm1
	maxss	LCPI67_25(%rip), %xmm1
	cvttss2si	%xmm1, %ecx
	movl	$127, %edx
	cmovbel	%ecx, %edx
	xorl	%edi, %edi
	ucomiss	%xmm0, %xmm0
Ltmp1433:
LBB67_30:
	.loc	41 0 0 is_stmt 0
	cmovnpl	%edx, %edi
Ltmp1434:
	movb	$1, %dl
Ltmp1435:
	jmp	LBB67_42
Ltmp1436:
LBB67_31:
	.loc	41 238 40 is_stmt 1
	ucomiss	LCPI67_23(%rip), %xmm0
	xorps	%xmm1, %xmm1
	maxss	%xmm1, %xmm0
Ltmp1437:
	cvttss2si	%xmm0, %ecx
Ltmp1438:
LBB67_32:
	.loc	41 0 40 is_stmt 0
	movl	$255, %edi
	cmovbel	%ecx, %edi
Ltmp1439:
	movb	$2, %dl
Ltmp1440:
	jmp	LBB67_42
Ltmp1441:
LBB67_33:
	.loc	41 239 42 is_stmt 1
	ucomiss	LCPI67_21(%rip), %xmm0
	movaps	%xmm0, %xmm1
	maxss	LCPI67_22(%rip), %xmm1
	cvttss2si	%xmm1, %ecx
	movl	$32767, %edx
	cmovbel	%ecx, %edx
	xorl	%esi, %esi
Ltmp1442:
	ucomiss	%xmm0, %xmm0
	cmovnpl	%edx, %esi
Ltmp1443:
	.loc	41 0 42 is_stmt 0
	movb	$3, %dl
Ltmp1444:
	jmp	LBB67_41
Ltmp1445:
LBB67_34:
	.loc	41 240 42 is_stmt 1
	ucomiss	LCPI67_20(%rip), %xmm0
	xorps	%xmm1, %xmm1
	maxss	%xmm1, %xmm0
Ltmp1446:
	cvttss2si	%xmm0, %ecx
Ltmp1447:
LBB67_35:
	.loc	41 0 42 is_stmt 0
	movl	$65535, %esi
Ltmp1448:
	cmovbel	%ecx, %esi
Ltmp1449:
	movb	$4, %dl
Ltmp1450:
	jmp	LBB67_41
Ltmp1451:
LBB67_36:
	.loc	41 241 42 is_stmt 1
	ucomiss	LCPI67_18(%rip), %xmm0
	movaps	%xmm0, %xmm1
	maxss	LCPI67_19(%rip), %xmm1
	cvttss2si	%xmm1, %ecx
	movl	$2147483647, %edx
	cmovbel	%ecx, %edx
	xorl	%r8d, %r8d
	ucomiss	%xmm0, %xmm0
Ltmp1452:
LBB67_37:
	.loc	41 0 0 is_stmt 0
	cmovnpl	%edx, %r8d
Ltmp1453:
	movb	$5, %dl
	jmp	LBB67_40
Ltmp1454:
LBB67_38:
	.loc	41 242 42 is_stmt 1
	ucomiss	LCPI67_17(%rip), %xmm0
	xorps	%xmm1, %xmm1
	maxss	%xmm1, %xmm0
Ltmp1455:
	cvttss2si	%xmm0, %rcx
Ltmp1456:
LBB67_39:
	.loc	41 0 42 is_stmt 0
	movl	$-1, %r8d
	cmovbel	%ecx, %r8d
Ltmp1457:
	movb	$6, %dl
Ltmp1458:
LBB67_40:
LBB67_41:
LBB67_42:
LBB67_43:
	movb	%dl, 8(%rax)
	movb	%dil, 9(%rax)
	movw	%si, 10(%rax)
	movl	%r8d, 12(%rax)
	movq	%rcx, 16(%rax)
	xorl	%ecx, %ecx
Ltmp1459:
	movq	%rcx, (%rax)
	.loc	41 287 6 is_stmt 1
	popq	%rbp
	retq
Ltmp1460:
LBB67_44:
	.loc	41 243 42
	ucomiss	LCPI67_15(%rip), %xmm0
	movdqa	%xmm0, %xmm1
	maxss	LCPI67_16(%rip), %xmm1
	cvttss2si	%xmm1, %rcx
	movabsq	$9223372036854775807, %rdx
	cmovbeq	%rcx, %rdx
	xorl	%ecx, %ecx
	ucomiss	%xmm0, %xmm0
Ltmp1461:
LBB67_45:
	.loc	41 0 0 is_stmt 0
	cmovnpq	%rdx, %rcx
Ltmp1462:
	movb	$7, %dl
Ltmp1463:
	jmp	LBB67_43
Ltmp1464:
LBB67_46:
	xorps	%xmm1, %xmm1
Ltmp1465:
	.loc	41 244 42 is_stmt 1
	movdqa	%xmm0, %xmm2
	maxss	%xmm1, %xmm2
	movss	LCPI67_13(%rip), %xmm1
	movaps	%xmm2, %xmm3
	subss	%xmm1, %xmm3
	cvttss2si	%xmm3, %rcx
	movabsq	$-9223372036854775808, %rdx
	xorq	%rcx, %rdx
	cvttss2si	%xmm2, %rsi
Ltmp1466:
	ucomiss	%xmm1, %xmm2
	cmovaeq	%rdx, %rsi
	ucomiss	LCPI67_14(%rip), %xmm0
Ltmp1467:
LBB67_47:
	.loc	41 0 42 is_stmt 0
	movq	$-1, %rcx
	cmovbeq	%rsi, %rcx
Ltmp1468:
	movb	$8, %dl
Ltmp1469:
	jmp	LBB67_43
Ltmp1470:
LBB67_48:
	.loc	42 51 17 is_stmt 1
	cvtss2sd	%xmm0, %xmm0
Ltmp1471:
LBB67_49:
	.loc	41 0 0 is_stmt 0
	movq	%xmm0, %rcx
Ltmp1472:
	movb	$10, %dl
Ltmp1473:
	jmp	LBB67_43
Ltmp1474:
LBB67_50:
	movb	$2, %dl
Ltmp1475:
	jmp	LBB67_60
Ltmp1476:
LBB67_51:
	movb	$3, %dl
Ltmp1477:
	jmp	LBB67_60
Ltmp1478:
LBB67_52:
	movb	$4, %dl
Ltmp1479:
	jmp	LBB67_60
Ltmp1480:
LBB67_53:
	movb	$5, %dl
Ltmp1481:
	jmp	LBB67_60
Ltmp1482:
LBB67_54:
	movb	$6, %dl
Ltmp1483:
	jmp	LBB67_60
Ltmp1484:
LBB67_55:
	.loc	41 223 42 is_stmt 1
	testq	%r11, %r11
	js	LBB67_58
Ltmp1485:
	.loc	41 0 42 is_stmt 0
	cvtsi2ss	%r11, %xmm0
	jmp	LBB67_59
Ltmp1486:
LBB67_57:
	.loc	41 224 42 is_stmt 1
	movq	%r11, %xmm0
	punpckldq	LCPI67_26(%rip), %xmm0
	subpd	LCPI67_27(%rip), %xmm0
	haddpd	%xmm0, %xmm0
	.loc	41 224 31 is_stmt 0
	movq	%xmm0, %r11
Ltmp1487:
	.loc	41 0 31
	movb	$10, %dl
Ltmp1488:
	jmp	LBB67_60
Ltmp1489:
LBB67_58:
	movq	%r11, %rcx
	shrq	%rcx
	andl	$1, %r11d
	orq	%rcx, %r11
	cvtsi2ss	%r11, %xmm0
	addss	%xmm0, %xmm0
Ltmp1490:
LBB67_59:
	.loc	41 223 31 is_stmt 1
	movd	%xmm0, %r11d
Ltmp1491:
	.loc	41 0 31 is_stmt 0
	movb	$9, %dl
Ltmp1492:
LBB67_60:
	.loc	41 226 9 is_stmt 1
	movb	%dl, 8(%rax)
	movb	%r11b, 9(%rax)
	movw	%r11w, 10(%rax)
	movl	%r11d, 12(%rax)
	movq	%r11, 16(%rax)
	xorl	%ecx, %ecx
Ltmp1493:
	.loc	41 0 0 is_stmt 0
	movq	%rcx, (%rax)
	.loc	41 287 6 is_stmt 1
	popq	%rbp
	retq
Ltmp1494:
Lfunc_end67:
	.cfi_endproc
	.p2align	2, 0x90
	.data_region jt32
.set L67_0_set_3, LBB67_3-LJTI67_0
.set L67_0_set_19, LBB67_19-LJTI67_0
.set L67_0_set_20, LBB67_20-LJTI67_0
.set L67_0_set_21, LBB67_21-LJTI67_0
.set L67_0_set_22, LBB67_22-LJTI67_0
.set L67_0_set_23, LBB67_23-LJTI67_0
.set L67_0_set_24, LBB67_24-LJTI67_0
.set L67_0_set_25, LBB67_25-LJTI67_0
.set L67_0_set_26, LBB67_26-LJTI67_0
.set L67_0_set_27, LBB67_27-LJTI67_0
.set L67_0_set_49, LBB67_49-LJTI67_0
LJTI67_0:
	.long	L67_0_set_3
	.long	L67_0_set_19
	.long	L67_0_set_20
	.long	L67_0_set_21
	.long	L67_0_set_22
	.long	L67_0_set_23
	.long	L67_0_set_24
	.long	L67_0_set_25
	.long	L67_0_set_26
	.long	L67_0_set_27
	.long	L67_0_set_49
.set L67_1_set_5, LBB67_5-LJTI67_1
.set L67_1_set_29, LBB67_29-LJTI67_1
.set L67_1_set_31, LBB67_31-LJTI67_1
.set L67_1_set_33, LBB67_33-LJTI67_1
.set L67_1_set_34, LBB67_34-LJTI67_1
.set L67_1_set_36, LBB67_36-LJTI67_1
.set L67_1_set_38, LBB67_38-LJTI67_1
.set L67_1_set_44, LBB67_44-LJTI67_1
.set L67_1_set_46, LBB67_46-LJTI67_1
.set L67_1_set_28, LBB67_28-LJTI67_1
.set L67_1_set_48, LBB67_48-LJTI67_1
LJTI67_1:
	.long	L67_1_set_5
	.long	L67_1_set_29
	.long	L67_1_set_31
	.long	L67_1_set_33
	.long	L67_1_set_34
	.long	L67_1_set_36
	.long	L67_1_set_38
	.long	L67_1_set_44
	.long	L67_1_set_46
	.long	L67_1_set_28
	.long	L67_1_set_48
.set L67_2_set_11, LBB67_11-LJTI67_2
.set L67_2_set_12, LBB67_12-LJTI67_2
.set L67_2_set_13, LBB67_13-LJTI67_2
.set L67_2_set_14, LBB67_14-LJTI67_2
.set L67_2_set_15, LBB67_15-LJTI67_2
.set L67_2_set_16, LBB67_16-LJTI67_2
.set L67_2_set_17, LBB67_17-LJTI67_2
.set L67_2_set_9, LBB67_9-LJTI67_2
LJTI67_2:
	.long	L67_2_set_11
	.long	L67_2_set_12
	.long	L67_2_set_13
	.long	L67_2_set_14
	.long	L67_2_set_15
	.long	L67_2_set_16
	.long	L67_2_set_17
	.long	L67_2_set_9
	.long	L67_2_set_9
.set L67_3_set_60, LBB67_60-LJTI67_3
.set L67_3_set_18, LBB67_18-LJTI67_3
.set L67_3_set_50, LBB67_50-LJTI67_3
.set L67_3_set_51, LBB67_51-LJTI67_3
.set L67_3_set_52, LBB67_52-LJTI67_3
.set L67_3_set_53, LBB67_53-LJTI67_3
.set L67_3_set_54, LBB67_54-LJTI67_3
.set L67_3_set_55, LBB67_55-LJTI67_3
.set L67_3_set_57, LBB67_57-LJTI67_3
LJTI67_3:
	.long	L67_3_set_60
	.long	L67_3_set_18
	.long	L67_3_set_50
	.long	L67_3_set_51
	.long	L67_3_set_52
	.long	L67_3_set_53
	.long	L67_3_set_54
	.long	L67_3_set_60
	.long	L67_3_set_60
	.long	L67_3_set_55
	.long	L67_3_set_57
	.end_data_region

	.globl	__ZN5gimli4read5value5Value11reinterpret17h7aaf1b3923f42f39E
	.p2align	4, 0x90
__ZN5gimli4read5value5Value11reinterpret17h7aaf1b3923f42f39E:
Lfunc_begin68:
	.loc	41 294 0
	.cfi_startproc
	pushq	%rbp
	.cfi_def_cfa_offset 16
	.cfi_offset %rbp, -16
	movq	%rsp, %rbp
	.cfi_def_cfa_register %rbp
	pushq	%rbx
	pushq	%rax
	.cfi_offset %rbx, -24
	movq	%rdi, %rax
Ltmp1495:
	.loc	41 155 13 prologue_end
	movzbl	(%rsi), %r8d
	movl	$64, %r9d
	leaq	LJTI68_0(%rip), %r10
	movslq	(%r10,%r8,4), %rdi
	addq	%r10, %rdi
	jmpq	*%rdi
Ltmp1496:
LBB68_6:
	.loc	41 0 13 is_stmt 0
	movl	$8, %r9d
Ltmp1497:
	movl	$8, %ebx
Ltmp1498:
	.loc	41 84 13 is_stmt 1
	movzbl	%dl, %edi
	leaq	LJTI68_1(%rip), %r10
	movslq	(%r10,%rdi,4), %rdi
	addq	%r10, %rdi
	jmpq	*%rdi
Ltmp1499:
LBB68_4:
	.loc	41 0 13 is_stmt 0
	movl	$32, %r9d
Ltmp1500:
	movl	$8, %ebx
	.loc	41 84 13
	movzbl	%dl, %edi
	leaq	LJTI68_1(%rip), %r10
	movslq	(%r10,%rdi,4), %rdi
	addq	%r10, %rdi
	jmpq	*%rdi
Ltmp1501:
LBB68_2:
	.loc	41 0 13
	movl	$16, %r9d
Ltmp1502:
	movl	$8, %ebx
	.loc	41 84 13
	movzbl	%dl, %edi
	leaq	LJTI68_1(%rip), %r10
	movslq	(%r10,%rdi,4), %rdi
	addq	%r10, %rdi
	jmpq	*%rdi
Ltmp1503:
LBB68_1:
	.loc	41 0 13
	movl	$16, %r9d
Ltmp1504:
	movl	$8, %ebx
	.loc	41 84 13
	movzbl	%dl, %r10d
	leaq	LJTI68_1(%rip), %r11
	movslq	(%r11,%r10,4), %rdi
	addq	%r11, %rdi
	jmpq	*%rdi
Ltmp1505:
LBB68_5:
	.loc	41 0 13
	movl	$32, %r9d
Ltmp1506:
	movl	$8, %ebx
	.loc	41 84 13
	movzbl	%dl, %edi
	leaq	LJTI68_1(%rip), %r10
	movslq	(%r10,%rdi,4), %rdi
	addq	%r10, %rdi
	jmpq	*%rdi
Ltmp1507:
LBB68_3:
	.loc	41 0 13
	movl	$32, %r9d
Ltmp1508:
	movl	$8, %ebx
	.loc	41 84 13
	movzbl	%dl, %edi
	leaq	LJTI68_1(%rip), %r10
	movslq	(%r10,%rdi,4), %rdi
	addq	%r10, %rdi
	jmpq	*%rdi
Ltmp1509:
LBB68_7:
	.loc	21 2616 17 is_stmt 1
	testq	%rcx, %rcx
	je	LBB68_8
Ltmp1510:
	bsrq	%rcx, %rdi
	xorq	$63, %rdi
	movl	$64, %r9d
Ltmp1511:
	.loc	41 21 5
	subl	%edi, %r9d
	jae	LBB68_11
	jmp	LBB68_16
Ltmp1512:
LBB68_8:
	.loc	41 0 5 is_stmt 0
	movl	$64, %edi
	movl	$64, %r9d
	.loc	41 21 5
	subl	%edi, %r9d
	jb	LBB68_16
Ltmp1513:
LBB68_11:
	.loc	41 0 5
	movl	$8, %ebx
Ltmp1514:
	.loc	41 84 13 is_stmt 1
	movzbl	%dl, %edi
	leaq	LJTI68_1(%rip), %r10
	movslq	(%r10,%rdi,4), %rdi
	addq	%r10, %rdi
	jmpq	*%rdi
Ltmp1515:
LBB68_18:
	.loc	41 0 13 is_stmt 0
	movl	$32, %ebx
	.loc	41 295 12 is_stmt 1
	cmpl	%ebx, %r9d
	.loc	41 295 9 is_stmt 0
	je	LBB68_21
	jmp	LBB68_22
Ltmp1516:
LBB68_19:
	.loc	41 0 9
	movl	$64, %ebx
	.loc	41 295 12
	cmpl	%ebx, %r9d
	.loc	41 295 9
	je	LBB68_21
	jmp	LBB68_22
Ltmp1517:
LBB68_17:
	.loc	41 0 9
	movl	$16, %ebx
	.loc	41 295 12
	cmpl	%ebx, %r9d
	.loc	41 295 9
	je	LBB68_21
	jmp	LBB68_22
Ltmp1518:
LBB68_12:
	.loc	21 2616 17 is_stmt 1
	testq	%rcx, %rcx
	je	LBB68_13
Ltmp1519:
	bsrq	%rcx, %rcx
Ltmp1520:
	xorq	$63, %rcx
	movl	$64, %ebx
Ltmp1521:
	.loc	41 21 5
	subl	%ecx, %ebx
	jb	LBB68_16
Ltmp1522:
LBB68_20:
	.loc	41 295 12
	cmpl	%ebx, %r9d
	.loc	41 295 9 is_stmt 0
	jne	LBB68_22
Ltmp1523:
LBB68_21:
	.loc	41 0 9
	leaq	LJTI68_2(%rip), %rcx
	movslq	(%rcx,%r8,4), %rdi
	addq	%rcx, %rdi
	jmpq	*%rdi
Ltmp1524:
LBB68_24:
	.loc	41 299 28 is_stmt 1
	movq	8(%rsi), %rcx
Ltmp1525:
	.loc	41 312 13
	movzbl	%dl, %esi
Ltmp1526:
	.loc	41 0 13 is_stmt 0
	leaq	LJTI68_3(%rip), %rdi
	movslq	(%rdi,%rsi,4), %rsi
	addq	%rdi, %rsi
	jmpq	*%rsi
Ltmp1527:
LBB68_22:
	.loc	41 296 20 is_stmt 1
	movb	$42, 8(%rax)
	movl	$1, %ecx
	jmp	LBB68_42
Ltmp1528:
LBB68_28:
	.loc	41 303 24
	movzwl	2(%rsi), %ecx
Ltmp1529:
	.loc	41 312 13
	movzbl	%dl, %esi
Ltmp1530:
	.loc	41 0 13 is_stmt 0
	leaq	LJTI68_3(%rip), %rdi
	movslq	(%rdi,%rsi,4), %rsi
	addq	%rdi, %rsi
	jmpq	*%rsi
Ltmp1531:
LBB68_33:
	.loc	41 308 24 is_stmt 1
	movl	4(%rsi), %ecx
Ltmp1532:
	.loc	41 312 13
	movzbl	%dl, %esi
Ltmp1533:
	.loc	41 0 13 is_stmt 0
	leaq	LJTI68_3(%rip), %rdi
	movslq	(%rdi,%rsi,4), %rsi
	addq	%rdi, %rsi
	jmpq	*%rsi
Ltmp1534:
LBB68_26:
	.loc	41 301 23 is_stmt 1
	movzbl	1(%rsi), %ecx
Ltmp1535:
	.loc	41 312 13
	movzbl	%dl, %esi
Ltmp1536:
	.loc	41 0 13 is_stmt 0
	leaq	LJTI68_3(%rip), %rdi
	movslq	(%rdi,%rsi,4), %rsi
	addq	%rdi, %rsi
	jmpq	*%rsi
Ltmp1537:
LBB68_27:
	.loc	41 302 24 is_stmt 1
	movswq	2(%rsi), %rcx
Ltmp1538:
	.loc	41 312 13
	movzbl	%dl, %esi
Ltmp1539:
	.loc	41 0 13 is_stmt 0
	leaq	LJTI68_3(%rip), %rdi
	movslq	(%rdi,%rsi,4), %rsi
	addq	%rdi, %rsi
	jmpq	*%rsi
Ltmp1540:
LBB68_25:
	.loc	41 300 23 is_stmt 1
	movsbq	1(%rsi), %rcx
Ltmp1541:
	.loc	41 312 13
	movzbl	%dl, %esi
Ltmp1542:
	.loc	41 0 13 is_stmt 0
	leaq	LJTI68_3(%rip), %rdi
	movslq	(%rdi,%rsi,4), %rsi
	addq	%rdi, %rsi
	jmpq	*%rsi
Ltmp1543:
LBB68_31:
	.loc	41 306 24 is_stmt 1
	movq	8(%rsi), %rcx
Ltmp1544:
	.loc	41 312 13
	movzbl	%dl, %esi
Ltmp1545:
	.loc	41 0 13 is_stmt 0
	leaq	LJTI68_3(%rip), %rdi
	movslq	(%rdi,%rsi,4), %rsi
	addq	%rdi, %rsi
	jmpq	*%rsi
Ltmp1546:
LBB68_29:
	.loc	41 304 24 is_stmt 1
	movslq	4(%rsi), %rcx
Ltmp1547:
	.loc	41 312 13
	movzbl	%dl, %esi
Ltmp1548:
	.loc	41 0 13 is_stmt 0
	leaq	LJTI68_3(%rip), %rdi
	movslq	(%rdi,%rsi,4), %rsi
	addq	%rdi, %rsi
	jmpq	*%rsi
Ltmp1549:
LBB68_30:
	.loc	41 305 24 is_stmt 1
	movl	4(%rsi), %ecx
Ltmp1550:
	.loc	41 312 13
	movzbl	%dl, %esi
Ltmp1551:
	.loc	41 0 13 is_stmt 0
	leaq	LJTI68_3(%rip), %rdi
	movslq	(%rdi,%rsi,4), %rsi
	addq	%rdi, %rsi
	jmpq	*%rsi
Ltmp1552:
LBB68_32:
	.loc	41 307 24 is_stmt 1
	movq	8(%rsi), %rcx
Ltmp1553:
	.loc	41 312 13
	movzbl	%dl, %esi
Ltmp1554:
	.loc	41 0 13 is_stmt 0
	leaq	LJTI68_3(%rip), %rdi
	movslq	(%rdi,%rsi,4), %rsi
	addq	%rdi, %rsi
	jmpq	*%rsi
Ltmp1555:
LBB68_23:
	.loc	41 309 24 is_stmt 1
	movq	8(%rsi), %rcx
Ltmp1556:
	.loc	41 312 13
	movzbl	%dl, %esi
Ltmp1557:
	.loc	41 0 13 is_stmt 0
	leaq	LJTI68_3(%rip), %rdi
	movslq	(%rdi,%rsi,4), %rsi
	addq	%rdi, %rsi
	jmpq	*%rsi
Ltmp1558:
LBB68_34:
	movb	$1, %dl
Ltmp1559:
	jmp	LBB68_41
Ltmp1560:
LBB68_39:
	movb	$6, %dl
Ltmp1561:
	jmp	LBB68_41
Ltmp1562:
LBB68_37:
	movb	$4, %dl
Ltmp1563:
	jmp	LBB68_41
Ltmp1564:
LBB68_35:
	movb	$2, %dl
Ltmp1565:
	jmp	LBB68_41
Ltmp1566:
LBB68_36:
	movb	$3, %dl
Ltmp1567:
	jmp	LBB68_41
Ltmp1568:
LBB68_38:
	movb	$5, %dl
Ltmp1569:
	jmp	LBB68_41
Ltmp1570:
LBB68_40:
	movb	$9, %dl
Ltmp1571:
LBB68_41:
	.loc	41 324 9 is_stmt 1
	movb	%dl, 8(%rax)
	movb	%cl, 9(%rax)
	movw	%cx, 10(%rax)
	movl	%ecx, 12(%rax)
	movq	%rcx, 16(%rax)
	xorl	%ecx, %ecx
Ltmp1572:
LBB68_42:
	.loc	41 0 0 is_stmt 0
	movq	%rcx, (%rax)
	.loc	41 325 6 is_stmt 1
	addq	$8, %rsp
	popq	%rbx
	popq	%rbp
	retq
LBB68_13:
Ltmp1573:
	.loc	41 0 6 is_stmt 0
	movl	$64, %ecx
Ltmp1574:
	movl	$64, %ebx
Ltmp1575:
	.loc	41 21 5 is_stmt 1
	subl	%ecx, %ebx
	jae	LBB68_20
Ltmp1576:
LBB68_16:
	.loc	41 0 0 is_stmt 0
	leaq	_str.5(%rip), %rdi
	leaq	l___unnamed_115(%rip), %rdx
Ltmp1577:
	movl	$33, %esi
Ltmp1578:
	callq	__ZN4core9panicking5panic17h736ee47a631475c0E
Ltmp1579:
Lfunc_end68:
	.cfi_endproc
	.p2align	2, 0x90
	.data_region jt32
.set L68_0_set_7, LBB68_7-LJTI68_0
.set L68_0_set_6, LBB68_6-LJTI68_0
.set L68_0_set_1, LBB68_1-LJTI68_0
.set L68_0_set_2, LBB68_2-LJTI68_0
.set L68_0_set_3, LBB68_3-LJTI68_0
.set L68_0_set_4, LBB68_4-LJTI68_0
.set L68_0_set_11, LBB68_11-LJTI68_0
.set L68_0_set_5, LBB68_5-LJTI68_0
LJTI68_0:
	.long	L68_0_set_7
	.long	L68_0_set_6
	.long	L68_0_set_6
	.long	L68_0_set_1
	.long	L68_0_set_2
	.long	L68_0_set_3
	.long	L68_0_set_4
	.long	L68_0_set_11
	.long	L68_0_set_11
	.long	L68_0_set_5
	.long	L68_0_set_11
.set L68_1_set_12, LBB68_12-LJTI68_1
.set L68_1_set_20, LBB68_20-LJTI68_1
.set L68_1_set_17, LBB68_17-LJTI68_1
.set L68_1_set_18, LBB68_18-LJTI68_1
.set L68_1_set_19, LBB68_19-LJTI68_1
LJTI68_1:
	.long	L68_1_set_12
	.long	L68_1_set_20
	.long	L68_1_set_20
	.long	L68_1_set_17
	.long	L68_1_set_17
	.long	L68_1_set_18
	.long	L68_1_set_18
	.long	L68_1_set_19
	.long	L68_1_set_19
	.long	L68_1_set_18
	.long	L68_1_set_19
.set L68_2_set_24, LBB68_24-LJTI68_2
.set L68_2_set_25, LBB68_25-LJTI68_2
.set L68_2_set_26, LBB68_26-LJTI68_2
.set L68_2_set_27, LBB68_27-LJTI68_2
.set L68_2_set_28, LBB68_28-LJTI68_2
.set L68_2_set_29, LBB68_29-LJTI68_2
.set L68_2_set_30, LBB68_30-LJTI68_2
.set L68_2_set_31, LBB68_31-LJTI68_2
.set L68_2_set_32, LBB68_32-LJTI68_2
.set L68_2_set_33, LBB68_33-LJTI68_2
.set L68_2_set_23, LBB68_23-LJTI68_2
LJTI68_2:
	.long	L68_2_set_24
	.long	L68_2_set_25
	.long	L68_2_set_26
	.long	L68_2_set_27
	.long	L68_2_set_28
	.long	L68_2_set_29
	.long	L68_2_set_30
	.long	L68_2_set_31
	.long	L68_2_set_32
	.long	L68_2_set_33
	.long	L68_2_set_23
.set L68_3_set_41, LBB68_41-LJTI68_3
.set L68_3_set_34, LBB68_34-LJTI68_3
.set L68_3_set_35, LBB68_35-LJTI68_3
.set L68_3_set_36, LBB68_36-LJTI68_3
.set L68_3_set_37, LBB68_37-LJTI68_3
.set L68_3_set_38, LBB68_38-LJTI68_3
.set L68_3_set_39, LBB68_39-LJTI68_3
.set L68_3_set_40, LBB68_40-LJTI68_3
LJTI68_3:
	.long	L68_3_set_41
	.long	L68_3_set_34
	.long	L68_3_set_35
	.long	L68_3_set_36
	.long	L68_3_set_37
	.long	L68_3_set_38
	.long	L68_3_set_39
	.long	L68_3_set_41
	.long	L68_3_set_41
	.long	L68_3_set_40
	.long	L68_3_set_41
	.end_data_region

	.section	__TEXT,__literal16,16byte_literals
	.p2align	4
LCPI69_0:
	.quad	-9223372036854775808
	.quad	-9223372036854775808
LCPI69_1:
	.long	2147483648
	.long	2147483648
	.long	2147483648
	.long	2147483648
	.section	__TEXT,__text,regular,pure_instructions
	.globl	__ZN5gimli4read5value5Value3abs17h6866fcbf85fd1d4bE
	.p2align	4, 0x90
__ZN5gimli4read5value5Value3abs17h6866fcbf85fd1d4bE:
Lfunc_begin69:
	.loc	41 332 0 is_stmt 1
	.cfi_startproc
	pushq	%rbp
	.cfi_def_cfa_offset 16
	.cfi_offset %rbp, -16
	movq	%rsp, %rbp
	.cfi_def_cfa_register %rbp
	movq	%rdi, %rax
Ltmp1580:
	.loc	41 336 13 prologue_end
	movb	(%rsi), %r10b
Ltmp1581:
	movzbl	%r10b, %edi
	leaq	LJTI69_0(%rip), %rcx
	movslq	(%rcx,%rdi,4), %rdi
	addq	%rcx, %rdi
	jmpq	*%rdi
Ltmp1582:
LBB69_1:
	.loc	41 346 77
	movb	1(%rsi), %dil
Ltmp1583:
	movzwl	2(%rsi), %r9d
Ltmp1584:
	movl	4(%rsi), %r8d
Ltmp1585:
	movq	8(%rsi), %rdx
Ltmp1586:
LBB69_2:
	.loc	41 348 9
	movb	%r10b, 8(%rax)
	movb	%dil, 9(%rax)
	movw	%r9w, 10(%rax)
	movl	%r8d, 12(%rax)
	movq	%rdx, 16(%rax)
	movq	$0, (%rax)
Ltmp1587:
	.loc	41 349 6
	popq	%rbp
	retq
Ltmp1588:
LBB69_3:
	.loc	41 15 17
	movq	%rdx, %rcx
	shrq	%rcx
	.loc	41 15 16 is_stmt 0
	incq	%rcx
Ltmp1589:
	.loc	41 14 17 is_stmt 1
	andq	8(%rsi), %rdx
Ltmp1590:
	.loc	41 16 5
	xorq	%rcx, %rdx
Ltmp1591:
	.loc	21 2193 54
	subq	%rcx, %rdx
Ltmp1592:
	.loc	21 1535 18
	jns	LBB69_4
Ltmp1593:
	.loc	21 1826 22
	movq	%rdx, %rcx
	negq	%rcx
	movabsq	$-9223372036854775808, %rsi
Ltmp1594:
	.loc	21 1823 20
	cmpq	%rsi, %rdx
	.loc	21 1823 17 is_stmt 0
	cmovneq	%rcx, %rdx
Ltmp1595:
LBB69_4:
	.loc	21 0 17
	xorl	%r10d, %r10d
	jmp	LBB69_2
LBB69_5:
Ltmp1596:
	.loc	41 339 23 is_stmt 1
	movb	1(%rsi), %dil
Ltmp1597:
	.loc	41 0 23 is_stmt 0
	movb	$1, %r10b
Ltmp1598:
	.loc	21 2193 54 is_stmt 1
	testb	%dil, %dil
Ltmp1599:
	.loc	21 1535 18
	js	LBB69_16
Ltmp1600:
	.loc	21 0 18 is_stmt 0
	jmp	LBB69_2
Ltmp1601:
LBB69_7:
	.loc	41 340 24 is_stmt 1
	movzwl	2(%rsi), %r9d
Ltmp1602:
	.loc	41 0 24 is_stmt 0
	movb	$3, %r10b
Ltmp1603:
	.loc	21 2193 54 is_stmt 1
	testw	%r9w, %r9w
Ltmp1604:
	.loc	21 1535 18
	js	LBB69_17
Ltmp1605:
	.loc	21 0 18 is_stmt 0
	jmp	LBB69_2
Ltmp1606:
LBB69_9:
	.loc	41 341 24 is_stmt 1
	movl	4(%rsi), %r8d
Ltmp1607:
	.loc	41 0 24 is_stmt 0
	movb	$5, %r10b
Ltmp1608:
	.loc	21 2193 54 is_stmt 1
	testl	%r8d, %r8d
Ltmp1609:
	.loc	21 1535 18
	js	LBB69_18
Ltmp1610:
	.loc	21 0 18 is_stmt 0
	jmp	LBB69_2
Ltmp1611:
LBB69_11:
	.loc	41 342 24 is_stmt 1
	movq	8(%rsi), %rdx
Ltmp1612:
	.loc	41 0 24 is_stmt 0
	movb	$7, %r10b
Ltmp1613:
	.loc	21 2193 54 is_stmt 1
	testq	%rdx, %rdx
Ltmp1614:
	.loc	21 1535 18
	js	LBB69_19
Ltmp1615:
	.loc	21 0 18 is_stmt 0
	jmp	LBB69_2
Ltmp1616:
LBB69_13:
	.loc	41 344 24 is_stmt 1
	movss	4(%rsi), %xmm0
Ltmp1617:
	.loc	41 0 24 is_stmt 0
	movaps	LCPI69_1(%rip), %xmm1
Ltmp1618:
	.loc	41 344 45
	xorps	%xmm0, %xmm1
	xorps	%xmm2, %xmm2
	movaps	%xmm0, %xmm3
	cmpltss	%xmm2, %xmm3
	andps	%xmm3, %xmm1
	andnps	%xmm0, %xmm3
	orps	%xmm1, %xmm3
	.loc	41 344 34
	movd	%xmm3, %r8d
Ltmp1619:
	.loc	41 0 34
	movb	$9, %r10b
Ltmp1620:
	jmp	LBB69_2
Ltmp1621:
LBB69_14:
	.loc	41 345 24 is_stmt 1
	movsd	8(%rsi), %xmm0
Ltmp1622:
	.loc	41 0 24 is_stmt 0
	movapd	LCPI69_0(%rip), %xmm1
Ltmp1623:
	.loc	41 345 45
	xorpd	%xmm0, %xmm1
	xorpd	%xmm2, %xmm2
	movapd	%xmm0, %xmm3
	cmpltsd	%xmm2, %xmm3
	andpd	%xmm3, %xmm1
	andnpd	%xmm0, %xmm3
	orpd	%xmm1, %xmm3
	.loc	41 345 34
	movq	%xmm3, %rdx
Ltmp1624:
	.loc	41 0 34
	movb	$10, %r10b
Ltmp1625:
	jmp	LBB69_2
Ltmp1626:
LBB69_16:
	.loc	21 1826 22 is_stmt 1
	movl	%edi, %ecx
	negb	%cl
	.loc	21 1823 20
	cmpb	$-128, %dil
	.loc	21 1823 17 is_stmt 0
	movzbl	%cl, %ecx
	movl	$128, %edi
Ltmp1627:
	cmovnel	%ecx, %edi
Ltmp1628:
	.loc	21 0 17
	jmp	LBB69_2
Ltmp1629:
LBB69_17:
	.loc	21 1823 20
	movzwl	%r9w, %ecx
	.loc	21 1826 22 is_stmt 1
	negl	%r9d
Ltmp1630:
	.loc	21 1823 20
	cmpl	$32768, %ecx
	.loc	21 1823 17 is_stmt 0
	cmovel	%ecx, %r9d
Ltmp1631:
	.loc	21 0 17
	jmp	LBB69_2
Ltmp1632:
LBB69_18:
	.loc	21 1826 22 is_stmt 1
	movl	%r8d, %ecx
	negl	%ecx
	.loc	21 1823 20
	cmpl	$-2147483648, %r8d
	.loc	21 1823 17 is_stmt 0
	cmovnel	%ecx, %r8d
Ltmp1633:
	.loc	21 0 17
	jmp	LBB69_2
Ltmp1634:
LBB69_19:
	.loc	21 1826 22 is_stmt 1
	movq	%rdx, %rcx
	negq	%rcx
	movabsq	$-9223372036854775808, %rsi
Ltmp1635:
	.loc	21 1823 20
	cmpq	%rsi, %rdx
	.loc	21 1823 17 is_stmt 0
	cmovneq	%rcx, %rdx
Ltmp1636:
	.loc	21 0 17
	jmp	LBB69_2
Ltmp1637:
Lfunc_end69:
	.cfi_endproc
	.p2align	2, 0x90
	.data_region jt32
.set L69_0_set_3, LBB69_3-LJTI69_0
.set L69_0_set_5, LBB69_5-LJTI69_0
.set L69_0_set_1, LBB69_1-LJTI69_0
.set L69_0_set_7, LBB69_7-LJTI69_0
.set L69_0_set_9, LBB69_9-LJTI69_0
.set L69_0_set_11, LBB69_11-LJTI69_0
.set L69_0_set_13, LBB69_13-LJTI69_0
.set L69_0_set_14, LBB69_14-LJTI69_0
LJTI69_0:
	.long	L69_0_set_3
	.long	L69_0_set_5
	.long	L69_0_set_1
	.long	L69_0_set_7
	.long	L69_0_set_1
	.long	L69_0_set_9
	.long	L69_0_set_1
	.long	L69_0_set_11
	.long	L69_0_set_1
	.long	L69_0_set_13
	.long	L69_0_set_14
	.end_data_region

	.globl	__ZN5gimli4read5value5Value3neg17h9430bb7da2d00f30E
	.p2align	4, 0x90
__ZN5gimli4read5value5Value3neg17h9430bb7da2d00f30E:
Lfunc_begin70:
	.loc	41 356 0 is_stmt 1
	.cfi_startproc
	pushq	%rbp
	.cfi_def_cfa_offset 16
	.cfi_offset %rbp, -16
	movq	%rsp, %rbp
	.cfi_def_cfa_register %rbp
	movq	%rdi, %rax
Ltmp1638:
	.loc	41 360 13 prologue_end
	movzbl	(%rsi), %ecx
	leaq	LJTI70_0(%rip), %rdi
	movslq	(%rdi,%rcx,4), %rcx
	addq	%rdi, %rcx
	jmpq	*%rcx
Ltmp1639:
LBB70_1:
	.loc	41 372 24
	movb	$44, 8(%rax)
	movl	$1, %ecx
	.loc	41 0 0 is_stmt 0
	movq	%rcx, (%rax)
	.loc	41 376 6 is_stmt 1
	popq	%rbp
	retq
Ltmp1640:
LBB70_2:
	.loc	41 15 17
	movq	%rdx, %rcx
	shrq	%rcx
	.loc	41 15 16 is_stmt 0
	incq	%rcx
Ltmp1641:
	.loc	41 14 17 is_stmt 1
	andq	8(%rsi), %rdx
Ltmp1642:
	.loc	41 16 5
	xorq	%rcx, %rdx
Ltmp1643:
	.loc	21 1271 17
	subq	%rcx, %rdx
Ltmp1644:
	.loc	21 1826 22
	movq	%rdx, %rcx
Ltmp1645:
	negq	%rcx
	movabsq	$-9223372036854775808, %rsi
Ltmp1646:
	.loc	21 1823 20
	cmpq	%rsi, %rdx
	.loc	21 1823 17 is_stmt 0
	cmoveq	%rdx, %rcx
Ltmp1647:
	.loc	21 0 17
	xorl	%edx, %edx
Ltmp1648:
	jmp	LBB70_9
Ltmp1649:
LBB70_3:
	.loc	41 363 23 is_stmt 1
	movb	1(%rsi), %cl
Ltmp1650:
	.loc	21 1826 22
	movl	%ecx, %edx
Ltmp1651:
	negb	%dl
	.loc	21 1823 20
	cmpb	$-128, %cl
	.loc	21 1823 17 is_stmt 0
	movzbl	%dl, %ecx
Ltmp1652:
	.loc	21 0 17
	movl	$128, %r8d
	.loc	21 1823 17
	cmovnel	%ecx, %r8d
Ltmp1653:
	.loc	21 0 17
	movb	$1, %dl
Ltmp1654:
	jmp	LBB70_12
Ltmp1655:
LBB70_4:
	.loc	41 364 24 is_stmt 1
	movzwl	2(%rsi), %ecx
Ltmp1656:
	.loc	21 1826 22
	movl	%ecx, %esi
Ltmp1657:
	negl	%esi
	.loc	21 1823 20
	cmpl	$32768, %ecx
	.loc	21 1823 17 is_stmt 0
	cmovel	%ecx, %esi
Ltmp1658:
	.loc	21 0 17
	movb	$3, %dl
Ltmp1659:
	jmp	LBB70_11
Ltmp1660:
LBB70_5:
	.loc	41 365 24 is_stmt 1
	movl	4(%rsi), %ecx
Ltmp1661:
	.loc	21 1826 22
	movl	%ecx, %edi
	negl	%edi
	.loc	21 1823 20
	cmpl	$-2147483648, %ecx
	.loc	21 1823 17 is_stmt 0
	cmovel	%ecx, %edi
Ltmp1662:
	.loc	21 0 17
	movb	$5, %dl
Ltmp1663:
	jmp	LBB70_10
Ltmp1664:
LBB70_6:
	movl	$-2147483648, %edi
Ltmp1665:
	.loc	41 367 34 is_stmt 1
	xorl	4(%rsi), %edi
Ltmp1666:
	.loc	41 0 34 is_stmt 0
	movb	$9, %dl
Ltmp1667:
	jmp	LBB70_10
Ltmp1668:
LBB70_7:
	movabsq	$-9223372036854775808, %rcx
Ltmp1669:
	.loc	41 368 34 is_stmt 1
	xorq	8(%rsi), %rcx
Ltmp1670:
	.loc	41 0 34 is_stmt 0
	movb	$10, %dl
Ltmp1671:
	jmp	LBB70_9
Ltmp1672:
LBB70_8:
	.loc	41 366 24 is_stmt 1
	movq	8(%rsi), %rdx
Ltmp1673:
	.loc	21 1826 22
	movq	%rdx, %rcx
	negq	%rcx
	movabsq	$-9223372036854775808, %rsi
Ltmp1674:
	.loc	21 1823 20
	cmpq	%rsi, %rdx
	.loc	21 1823 17 is_stmt 0
	cmoveq	%rdx, %rcx
Ltmp1675:
	.loc	21 0 17
	movb	$7, %dl
Ltmp1676:
LBB70_9:
LBB70_10:
LBB70_11:
LBB70_12:
	.loc	41 375 9 is_stmt 1
	movb	%dl, 8(%rax)
	movb	%r8b, 9(%rax)
	movw	%si, 10(%rax)
	movl	%edi, 12(%rax)
	movq	%rcx, 16(%rax)
	xorl	%ecx, %ecx
Ltmp1677:
	.loc	41 0 0 is_stmt 0
	movq	%rcx, (%rax)
	.loc	41 376 6 is_stmt 1
	popq	%rbp
	retq
Ltmp1678:
Lfunc_end70:
	.cfi_endproc
	.p2align	2, 0x90
	.data_region jt32
.set L70_0_set_2, LBB70_2-LJTI70_0
.set L70_0_set_3, LBB70_3-LJTI70_0
.set L70_0_set_1, LBB70_1-LJTI70_0
.set L70_0_set_4, LBB70_4-LJTI70_0
.set L70_0_set_5, LBB70_5-LJTI70_0
.set L70_0_set_8, LBB70_8-LJTI70_0
.set L70_0_set_6, LBB70_6-LJTI70_0
.set L70_0_set_7, LBB70_7-LJTI70_0
LJTI70_0:
	.long	L70_0_set_2
	.long	L70_0_set_3
	.long	L70_0_set_1
	.long	L70_0_set_4
	.long	L70_0_set_1
	.long	L70_0_set_5
	.long	L70_0_set_1
	.long	L70_0_set_8
	.long	L70_0_set_1
	.long	L70_0_set_6
	.long	L70_0_set_7
	.end_data_region

	.globl	__ZN5gimli4read5value5Value3add17he830baf12a7b81ffE
	.p2align	4, 0x90
__ZN5gimli4read5value5Value3add17he830baf12a7b81ffE:
Lfunc_begin71:
	.loc	41 383 0
	.cfi_startproc
	pushq	%rbp
	.cfi_def_cfa_offset 16
	.cfi_offset %rbp, -16
	movq	%rsp, %rbp
	.cfi_def_cfa_register %rbp
	pushq	%r15
	pushq	%r14
	pushq	%r12
	pushq	%rbx
	.cfi_offset %rbx, -48
	.cfi_offset %r12, -40
	.cfi_offset %r14, -32
	.cfi_offset %r15, -24
	movq	%rdi, %rax
Ltmp1679:
	.loc	41 384 28 prologue_end
	movzbl	(%rsi), %edi
	cmpq	$10, %rdi
	.loc	41 385 14
	ja	LBB71_3
Ltmp1680:
	.loc	41 0 14 is_stmt 0
	movb	1(%rsi), %r14b
Ltmp1681:
	movzwl	2(%rsi), %r11d
Ltmp1682:
	movl	4(%rsi), %r15d
Ltmp1683:
	movq	8(%rsi), %rsi
Ltmp1684:
	movb	(%rdx), %bl
	movb	1(%rdx), %r8b
Ltmp1685:
	movzwl	2(%rdx), %r10d
Ltmp1686:
	movl	4(%rdx), %r9d
Ltmp1687:
	movq	8(%rdx), %r12
Ltmp1688:
	leaq	LJTI71_0(%rip), %rdx
Ltmp1689:
	movslq	(%rdx,%rdi,4), %rdi
	addq	%rdx, %rdi
	jmpq	*%rdi
Ltmp1690:
LBB71_2:
	.loc	41 385 34
	testb	%bl, %bl
	jne	LBB71_3
Ltmp1691:
	.loc	21 3320 17 is_stmt 1
	addq	%rsi, %r12
Ltmp1692:
	.loc	41 386 32
	andq	%rcx, %r12
Ltmp1693:
	.loc	41 0 32 is_stmt 0
	xorl	%ecx, %ecx
Ltmp1694:
	jmp	LBB71_28
Ltmp1695:
LBB71_5:
	.loc	41 388 29 is_stmt 1
	cmpb	$1, %bl
	jne	LBB71_3
Ltmp1696:
	.loc	21 1247 17
	addb	%r14b, %r8b
Ltmp1697:
	.loc	21 0 17 is_stmt 0
	movb	$1, %cl
Ltmp1698:
	jmp	LBB71_31
Ltmp1699:
LBB71_8:
	.loc	41 389 29 is_stmt 1
	cmpb	$2, %bl
	jne	LBB71_3
Ltmp1700:
	.loc	21 3320 17
	addb	%r14b, %r8b
Ltmp1701:
	.loc	21 0 17 is_stmt 0
	movb	$2, %cl
Ltmp1702:
	jmp	LBB71_31
Ltmp1703:
LBB71_10:
	.loc	41 390 30 is_stmt 1
	cmpb	$3, %bl
	jne	LBB71_3
Ltmp1704:
	.loc	21 1247 17
	addl	%r11d, %r10d
Ltmp1705:
	.loc	21 0 17 is_stmt 0
	movb	$3, %cl
Ltmp1706:
	jmp	LBB71_30
Ltmp1707:
LBB71_13:
	.loc	41 391 30 is_stmt 1
	cmpb	$4, %bl
	jne	LBB71_3
Ltmp1708:
	.loc	21 3320 17
	addl	%r11d, %r10d
Ltmp1709:
	.loc	21 0 17 is_stmt 0
	movb	$4, %cl
Ltmp1710:
	jmp	LBB71_30
Ltmp1711:
LBB71_15:
	.loc	41 392 30 is_stmt 1
	cmpb	$5, %bl
	jne	LBB71_3
Ltmp1712:
	.loc	21 1247 17
	addl	%r15d, %r9d
Ltmp1713:
	.loc	21 0 17 is_stmt 0
	movb	$5, %cl
Ltmp1714:
	jmp	LBB71_29
Ltmp1715:
LBB71_18:
	.loc	41 393 30 is_stmt 1
	cmpb	$6, %bl
	jne	LBB71_3
Ltmp1716:
	.loc	21 3320 17
	addl	%r15d, %r9d
Ltmp1717:
	.loc	21 0 17 is_stmt 0
	movb	$6, %cl
Ltmp1718:
	jmp	LBB71_29
Ltmp1719:
LBB71_20:
	.loc	41 394 30 is_stmt 1
	cmpb	$7, %bl
	jne	LBB71_3
Ltmp1720:
	.loc	21 1247 17
	addq	%rsi, %r12
Ltmp1721:
	.loc	21 0 17 is_stmt 0
	movb	$7, %cl
Ltmp1722:
	jmp	LBB71_28
Ltmp1723:
LBB71_22:
	.loc	41 395 30 is_stmt 1
	cmpb	$8, %bl
	jne	LBB71_3
Ltmp1724:
	.loc	21 3320 17
	addq	%rsi, %r12
Ltmp1725:
	.loc	21 0 17 is_stmt 0
	movb	$8, %cl
Ltmp1726:
	jmp	LBB71_28
Ltmp1727:
LBB71_24:
	.loc	41 396 30 is_stmt 1
	cmpb	$9, %bl
	jne	LBB71_3
Ltmp1728:
	.loc	41 396 25 is_stmt 0
	movd	%r15d, %xmm0
Ltmp1729:
	.loc	41 396 41
	movd	%r9d, %xmm1
Ltmp1730:
	.loc	41 396 60
	addss	%xmm0, %xmm1
Ltmp1731:
	.loc	41 396 49
	movd	%xmm1, %r9d
Ltmp1732:
	.loc	41 0 49
	movb	$9, %cl
Ltmp1733:
	jmp	LBB71_29
Ltmp1734:
LBB71_26:
	.loc	41 397 30 is_stmt 1
	cmpb	$10, %bl
	jne	LBB71_3
Ltmp1735:
	.loc	41 397 25 is_stmt 0
	movq	%rsi, %xmm0
Ltmp1736:
	.loc	41 397 41
	movq	%r12, %xmm1
Ltmp1737:
	.loc	41 397 60
	addsd	%xmm0, %xmm1
Ltmp1738:
	.loc	41 397 49
	movq	%xmm1, %r12
Ltmp1739:
	.loc	41 0 49
	movb	$10, %cl
Ltmp1740:
LBB71_28:
LBB71_29:
LBB71_30:
LBB71_31:
	.loc	41 400 9 is_stmt 1
	movb	%cl, 8(%rax)
	movb	%r8b, 9(%rax)
	movw	%r10w, 10(%rax)
	movl	%r9d, 12(%rax)
	movq	%r12, 16(%rax)
	xorl	%ecx, %ecx
Ltmp1741:
	.loc	41 0 9 is_stmt 0
	jmp	LBB71_32
Ltmp1742:
LBB71_3:
	.loc	41 398 25 is_stmt 1
	movb	$42, 8(%rax)
	movl	$1, %ecx
Ltmp1743:
LBB71_32:
	.loc	41 0 0 is_stmt 0
	movq	%rcx, (%rax)
	.loc	41 401 6 is_stmt 1
	popq	%rbx
	popq	%r12
	popq	%r14
	popq	%r15
	popq	%rbp
	retq
Ltmp1744:
Lfunc_end71:
	.cfi_endproc
	.p2align	2, 0x90
	.data_region jt32
.set L71_0_set_2, LBB71_2-LJTI71_0
.set L71_0_set_5, LBB71_5-LJTI71_0
.set L71_0_set_8, LBB71_8-LJTI71_0
.set L71_0_set_10, LBB71_10-LJTI71_0
.set L71_0_set_13, LBB71_13-LJTI71_0
.set L71_0_set_15, LBB71_15-LJTI71_0
.set L71_0_set_18, LBB71_18-LJTI71_0
.set L71_0_set_20, LBB71_20-LJTI71_0
.set L71_0_set_22, LBB71_22-LJTI71_0
.set L71_0_set_24, LBB71_24-LJTI71_0
.set L71_0_set_26, LBB71_26-LJTI71_0
LJTI71_0:
	.long	L71_0_set_2
	.long	L71_0_set_5
	.long	L71_0_set_8
	.long	L71_0_set_10
	.long	L71_0_set_13
	.long	L71_0_set_15
	.long	L71_0_set_18
	.long	L71_0_set_20
	.long	L71_0_set_22
	.long	L71_0_set_24
	.long	L71_0_set_26
	.end_data_region

	.globl	__ZN5gimli4read5value5Value3sub17h174f2a74a203b910E
	.p2align	4, 0x90
__ZN5gimli4read5value5Value3sub17h174f2a74a203b910E:
Lfunc_begin72:
	.loc	41 408 0
	.cfi_startproc
	pushq	%rbp
	.cfi_def_cfa_offset 16
	.cfi_offset %rbp, -16
	movq	%rsp, %rbp
	.cfi_def_cfa_register %rbp
	pushq	%r15
	pushq	%r14
	pushq	%r12
	pushq	%rbx
	.cfi_offset %rbx, -48
	.cfi_offset %r12, -40
	.cfi_offset %r14, -32
	.cfi_offset %r15, -24
	movq	%rdi, %rax
Ltmp1745:
	.loc	41 409 28 prologue_end
	movzbl	(%rsi), %edi
	cmpq	$10, %rdi
	.loc	41 410 14
	ja	LBB72_3
Ltmp1746:
	.loc	41 0 14 is_stmt 0
	movb	1(%rsi), %r9b
Ltmp1747:
	movzwl	2(%rsi), %r11d
Ltmp1748:
	movl	4(%rsi), %r8d
Ltmp1749:
	movq	8(%rsi), %r10
Ltmp1750:
	movb	(%rdx), %bl
	movb	1(%rdx), %r14b
Ltmp1751:
	movzwl	2(%rdx), %r15d
Ltmp1752:
	movl	4(%rdx), %esi
Ltmp1753:
	movq	8(%rdx), %r12
Ltmp1754:
	leaq	LJTI72_0(%rip), %rdx
Ltmp1755:
	movslq	(%rdx,%rdi,4), %rdi
	addq	%rdx, %rdi
	jmpq	*%rdi
Ltmp1756:
LBB72_2:
	.loc	41 410 34
	testb	%bl, %bl
	jne	LBB72_3
Ltmp1757:
	.loc	21 3343 17 is_stmt 1
	subq	%r12, %r10
Ltmp1758:
	.loc	41 411 32
	andq	%rcx, %r10
Ltmp1759:
	.loc	41 0 32 is_stmt 0
	xorl	%ecx, %ecx
Ltmp1760:
	jmp	LBB72_28
Ltmp1761:
LBB72_5:
	.loc	41 413 29 is_stmt 1
	cmpb	$1, %bl
	jne	LBB72_3
Ltmp1762:
	.loc	21 1271 17
	subb	%r14b, %r9b
Ltmp1763:
	.loc	21 0 17 is_stmt 0
	movb	$1, %cl
Ltmp1764:
	jmp	LBB72_31
Ltmp1765:
LBB72_8:
	.loc	41 414 29 is_stmt 1
	cmpb	$2, %bl
	jne	LBB72_3
Ltmp1766:
	.loc	21 3343 17
	subb	%r14b, %r9b
Ltmp1767:
	.loc	21 0 17 is_stmt 0
	movb	$2, %cl
Ltmp1768:
	jmp	LBB72_31
Ltmp1769:
LBB72_10:
	.loc	41 415 30 is_stmt 1
	cmpb	$3, %bl
	jne	LBB72_3
Ltmp1770:
	.loc	21 1271 17
	subl	%r15d, %r11d
Ltmp1771:
	.loc	21 0 17 is_stmt 0
	movb	$3, %cl
Ltmp1772:
	jmp	LBB72_30
Ltmp1773:
LBB72_13:
	.loc	41 416 30 is_stmt 1
	cmpb	$4, %bl
	jne	LBB72_3
Ltmp1774:
	.loc	21 3343 17
	subl	%r15d, %r11d
Ltmp1775:
	.loc	21 0 17 is_stmt 0
	movb	$4, %cl
Ltmp1776:
	jmp	LBB72_30
Ltmp1777:
LBB72_15:
	.loc	41 417 30 is_stmt 1
	cmpb	$5, %bl
	jne	LBB72_3
Ltmp1778:
	.loc	21 1271 17
	subl	%esi, %r8d
Ltmp1779:
	.loc	21 0 17 is_stmt 0
	movb	$5, %cl
Ltmp1780:
	jmp	LBB72_29
Ltmp1781:
LBB72_18:
	.loc	41 418 30 is_stmt 1
	cmpb	$6, %bl
	jne	LBB72_3
Ltmp1782:
	.loc	21 3343 17
	subl	%esi, %r8d
Ltmp1783:
	.loc	21 0 17 is_stmt 0
	movb	$6, %cl
Ltmp1784:
	jmp	LBB72_29
Ltmp1785:
LBB72_20:
	.loc	41 419 30 is_stmt 1
	cmpb	$7, %bl
	jne	LBB72_3
Ltmp1786:
	.loc	21 1271 17
	subq	%r12, %r10
Ltmp1787:
	.loc	21 0 17 is_stmt 0
	movb	$7, %cl
Ltmp1788:
	jmp	LBB72_28
Ltmp1789:
LBB72_22:
	.loc	41 420 30 is_stmt 1
	cmpb	$8, %bl
	jne	LBB72_3
Ltmp1790:
	.loc	21 3343 17
	subq	%r12, %r10
Ltmp1791:
	.loc	21 0 17 is_stmt 0
	movb	$8, %cl
Ltmp1792:
	jmp	LBB72_28
Ltmp1793:
LBB72_24:
	.loc	41 421 30 is_stmt 1
	cmpb	$9, %bl
	jne	LBB72_3
Ltmp1794:
	.loc	41 421 25 is_stmt 0
	movd	%r8d, %xmm0
Ltmp1795:
	.loc	41 421 41
	movd	%esi, %xmm1
Ltmp1796:
	.loc	41 421 60
	subss	%xmm1, %xmm0
Ltmp1797:
	.loc	41 421 49
	movd	%xmm0, %r8d
Ltmp1798:
	.loc	41 0 49
	movb	$9, %cl
Ltmp1799:
	jmp	LBB72_29
Ltmp1800:
LBB72_26:
	.loc	41 422 30 is_stmt 1
	cmpb	$10, %bl
	jne	LBB72_3
Ltmp1801:
	.loc	41 422 25 is_stmt 0
	movq	%r10, %xmm0
Ltmp1802:
	.loc	41 422 41
	movq	%r12, %xmm1
Ltmp1803:
	.loc	41 422 60
	subsd	%xmm1, %xmm0
Ltmp1804:
	.loc	41 422 49
	movq	%xmm0, %r10
Ltmp1805:
	.loc	41 0 49
	movb	$10, %cl
Ltmp1806:
LBB72_28:
LBB72_29:
LBB72_30:
LBB72_31:
	.loc	41 425 9 is_stmt 1
	movb	%cl, 8(%rax)
	movb	%r9b, 9(%rax)
	movw	%r11w, 10(%rax)
	movl	%r8d, 12(%rax)
	movq	%r10, 16(%rax)
	xorl	%ecx, %ecx
Ltmp1807:
	.loc	41 0 9 is_stmt 0
	jmp	LBB72_32
Ltmp1808:
LBB72_3:
	.loc	41 423 25 is_stmt 1
	movb	$42, 8(%rax)
	movl	$1, %ecx
Ltmp1809:
LBB72_32:
	.loc	41 0 0 is_stmt 0
	movq	%rcx, (%rax)
	.loc	41 426 6 is_stmt 1
	popq	%rbx
	popq	%r12
	popq	%r14
	popq	%r15
	popq	%rbp
	retq
Ltmp1810:
Lfunc_end72:
	.cfi_endproc
	.p2align	2, 0x90
	.data_region jt32
.set L72_0_set_2, LBB72_2-LJTI72_0
.set L72_0_set_5, LBB72_5-LJTI72_0
.set L72_0_set_8, LBB72_8-LJTI72_0
.set L72_0_set_10, LBB72_10-LJTI72_0
.set L72_0_set_13, LBB72_13-LJTI72_0
.set L72_0_set_15, LBB72_15-LJTI72_0
.set L72_0_set_18, LBB72_18-LJTI72_0
.set L72_0_set_20, LBB72_20-LJTI72_0
.set L72_0_set_22, LBB72_22-LJTI72_0
.set L72_0_set_24, LBB72_24-LJTI72_0
.set L72_0_set_26, LBB72_26-LJTI72_0
LJTI72_0:
	.long	L72_0_set_2
	.long	L72_0_set_5
	.long	L72_0_set_8
	.long	L72_0_set_10
	.long	L72_0_set_13
	.long	L72_0_set_15
	.long	L72_0_set_18
	.long	L72_0_set_20
	.long	L72_0_set_22
	.long	L72_0_set_24
	.long	L72_0_set_26
	.end_data_region

	.globl	__ZN5gimli4read5value5Value3mul17h54ef703add649e35E
	.p2align	4, 0x90
__ZN5gimli4read5value5Value3mul17h54ef703add649e35E:
Lfunc_begin73:
	.loc	41 433 0
	.cfi_startproc
	pushq	%rbp
	.cfi_def_cfa_offset 16
	.cfi_offset %rbp, -16
	movq	%rsp, %rbp
	.cfi_def_cfa_register %rbp
	pushq	%r15
	pushq	%r14
	pushq	%r12
	pushq	%rbx
	.cfi_offset %rbx, -48
	.cfi_offset %r12, -40
	.cfi_offset %r14, -32
	.cfi_offset %r15, -24
	movq	%rdi, %r15
Ltmp1811:
	.loc	41 434 28 prologue_end
	movzbl	(%rsi), %edi
	cmpq	$10, %rdi
	.loc	41 435 14
	ja	LBB73_29
Ltmp1812:
	.loc	41 0 14 is_stmt 0
	movb	1(%rsi), %r14b
Ltmp1813:
	movzwl	2(%rsi), %r11d
Ltmp1814:
	movl	4(%rsi), %r10d
Ltmp1815:
	movq	8(%rsi), %rsi
Ltmp1816:
	movb	(%rdx), %bl
	movb	1(%rdx), %al
Ltmp1817:
	movzwl	2(%rdx), %r9d
Ltmp1818:
	movl	4(%rdx), %r8d
Ltmp1819:
	movq	8(%rdx), %r12
Ltmp1820:
	leaq	LJTI73_0(%rip), %rdx
Ltmp1821:
	movslq	(%rdx,%rdi,4), %rdi
	addq	%rdx, %rdi
	jmpq	*%rdi
Ltmp1822:
LBB73_2:
	.loc	41 435 34
	testb	%bl, %bl
	jne	LBB73_29
Ltmp1823:
	.loc	21 3367 13 is_stmt 1
	imulq	%rsi, %r12
Ltmp1824:
	.loc	41 436 32
	andq	%rcx, %r12
Ltmp1825:
	.loc	41 0 32 is_stmt 0
	xorl	%ecx, %ecx
Ltmp1826:
	jmp	LBB73_25
Ltmp1827:
LBB73_4:
	.loc	41 438 29 is_stmt 1
	cmpb	$1, %bl
	jne	LBB73_29
Ltmp1828:
	.loc	41 0 29 is_stmt 0
	movb	$1, %cl
Ltmp1829:
	jmp	LBB73_6
LBB73_7:
Ltmp1830:
	.loc	41 439 29 is_stmt 1
	cmpb	$2, %bl
	jne	LBB73_29
Ltmp1831:
	.loc	41 0 29 is_stmt 0
	movb	$2, %cl
Ltmp1832:
LBB73_6:
	mulb	%r14b
Ltmp1833:
	jmp	LBB73_28
Ltmp1834:
LBB73_9:
	.loc	41 440 30 is_stmt 1
	cmpb	$3, %bl
	jne	LBB73_29
Ltmp1835:
	.loc	21 1294 17
	imull	%r11d, %r9d
Ltmp1836:
	.loc	21 0 17 is_stmt 0
	movb	$3, %cl
Ltmp1837:
	jmp	LBB73_27
Ltmp1838:
LBB73_11:
	.loc	41 441 30 is_stmt 1
	cmpb	$4, %bl
	jne	LBB73_29
Ltmp1839:
	.loc	21 3367 13
	imull	%r11d, %r9d
Ltmp1840:
	.loc	21 0 13 is_stmt 0
	movb	$4, %cl
Ltmp1841:
	jmp	LBB73_27
Ltmp1842:
LBB73_13:
	.loc	41 442 30 is_stmt 1
	cmpb	$5, %bl
	jne	LBB73_29
Ltmp1843:
	.loc	21 1294 17
	imull	%r10d, %r8d
Ltmp1844:
	.loc	21 0 17 is_stmt 0
	movb	$5, %cl
Ltmp1845:
	jmp	LBB73_26
Ltmp1846:
LBB73_15:
	.loc	41 443 30 is_stmt 1
	cmpb	$6, %bl
	jne	LBB73_29
Ltmp1847:
	.loc	21 3367 13
	imull	%r10d, %r8d
Ltmp1848:
	.loc	21 0 13 is_stmt 0
	movb	$6, %cl
Ltmp1849:
	jmp	LBB73_26
Ltmp1850:
LBB73_17:
	.loc	41 444 30 is_stmt 1
	cmpb	$7, %bl
	jne	LBB73_29
Ltmp1851:
	.loc	21 1294 17
	imulq	%rsi, %r12
Ltmp1852:
	.loc	21 0 17 is_stmt 0
	movb	$7, %cl
Ltmp1853:
	jmp	LBB73_25
Ltmp1854:
LBB73_19:
	.loc	41 445 30 is_stmt 1
	cmpb	$8, %bl
	jne	LBB73_29
Ltmp1855:
	.loc	21 3367 13
	imulq	%rsi, %r12
Ltmp1856:
	.loc	21 0 13 is_stmt 0
	movb	$8, %cl
Ltmp1857:
	jmp	LBB73_25
Ltmp1858:
LBB73_21:
	.loc	41 446 30 is_stmt 1
	cmpb	$9, %bl
	jne	LBB73_29
Ltmp1859:
	.loc	41 446 25 is_stmt 0
	movd	%r10d, %xmm0
Ltmp1860:
	.loc	41 446 41
	movd	%r8d, %xmm1
Ltmp1861:
	.loc	41 446 60
	mulss	%xmm0, %xmm1
Ltmp1862:
	.loc	41 446 49
	movd	%xmm1, %r8d
Ltmp1863:
	.loc	41 0 49
	movb	$9, %cl
Ltmp1864:
	jmp	LBB73_26
Ltmp1865:
LBB73_23:
	.loc	41 447 30 is_stmt 1
	cmpb	$10, %bl
	jne	LBB73_29
Ltmp1866:
	.loc	41 447 25 is_stmt 0
	movq	%rsi, %xmm0
Ltmp1867:
	.loc	41 447 41
	movq	%r12, %xmm1
Ltmp1868:
	.loc	41 447 60
	mulsd	%xmm0, %xmm1
Ltmp1869:
	.loc	41 447 49
	movq	%xmm1, %r12
Ltmp1870:
	.loc	41 0 49
	movb	$10, %cl
Ltmp1871:
LBB73_25:
LBB73_26:
LBB73_27:
LBB73_28:
	.loc	41 450 9 is_stmt 1
	movb	%cl, 8(%r15)
	movb	%al, 9(%r15)
	movw	%r9w, 10(%r15)
	movl	%r8d, 12(%r15)
	movq	%r12, 16(%r15)
	xorl	%eax, %eax
Ltmp1872:
	.loc	41 0 9 is_stmt 0
	jmp	LBB73_30
Ltmp1873:
LBB73_29:
	.loc	41 448 25 is_stmt 1
	movb	$42, 8(%r15)
	movl	$1, %eax
Ltmp1874:
LBB73_30:
	.loc	41 0 0 is_stmt 0
	movq	%rax, (%r15)
	.loc	41 451 6 is_stmt 1
	movq	%r15, %rax
	popq	%rbx
	popq	%r12
	popq	%r14
	popq	%r15
	popq	%rbp
	retq
Ltmp1875:
Lfunc_end73:
	.cfi_endproc
	.p2align	2, 0x90
	.data_region jt32
.set L73_0_set_2, LBB73_2-LJTI73_0
.set L73_0_set_4, LBB73_4-LJTI73_0
.set L73_0_set_7, LBB73_7-LJTI73_0
.set L73_0_set_9, LBB73_9-LJTI73_0
.set L73_0_set_11, LBB73_11-LJTI73_0
.set L73_0_set_13, LBB73_13-LJTI73_0
.set L73_0_set_15, LBB73_15-LJTI73_0
.set L73_0_set_17, LBB73_17-LJTI73_0
.set L73_0_set_19, LBB73_19-LJTI73_0
.set L73_0_set_21, LBB73_21-LJTI73_0
.set L73_0_set_23, LBB73_23-LJTI73_0
LJTI73_0:
	.long	L73_0_set_2
	.long	L73_0_set_4
	.long	L73_0_set_7
	.long	L73_0_set_9
	.long	L73_0_set_11
	.long	L73_0_set_13
	.long	L73_0_set_15
	.long	L73_0_set_17
	.long	L73_0_set_19
	.long	L73_0_set_21
	.long	L73_0_set_23
	.end_data_region

	.globl	__ZN5gimli4read5value5Value3div17habc3e287add96c13E
	.p2align	4, 0x90
__ZN5gimli4read5value5Value3div17habc3e287add96c13E:
Lfunc_begin74:
	.loc	41 459 0
	.cfi_startproc
	pushq	%rbp
	.cfi_def_cfa_offset 16
	.cfi_offset %rbp, -16
	movq	%rsp, %rbp
	.cfi_def_cfa_register %rbp
	pushq	%r15
	pushq	%r14
	pushq	%r12
	pushq	%rbx
	.cfi_offset %rbx, -48
	.cfi_offset %r12, -40
	.cfi_offset %r14, -32
	.cfi_offset %r15, -24
	movq	%rdi, %r11
Ltmp1876:
	.loc	41 461 13 prologue_end
	movzbl	(%rdx), %edi
	cmpq	$8, %rdi
	ja	LBB74_5
Ltmp1877:
	.loc	41 0 13 is_stmt 0
	leaq	LJTI74_0(%rip), %rax
	movslq	(%rax,%rdi,4), %rbx
	addq	%rax, %rbx
	jmpq	*%rbx
Ltmp1878:
LBB74_2:
	cmpb	$0, 1(%rdx)
	jne	LBB74_5
Ltmp1879:
LBB74_3:
	movb	$41, 8(%r11)
	movl	$1, %eax
	jmp	LBB74_60
Ltmp1880:
LBB74_4:
	cmpl	$0, 4(%rdx)
	je	LBB74_3
Ltmp1881:
LBB74_5:
	.loc	41 476 28 is_stmt 1
	movzbl	(%rsi), %ebx
	cmpq	$10, %rbx
	.loc	41 477 14
	ja	LBB74_50
Ltmp1882:
	.loc	41 0 14 is_stmt 0
	movb	1(%rsi), %r9b
Ltmp1883:
	movzwl	2(%rsi), %r8d
Ltmp1884:
	movl	4(%rsi), %eax
Ltmp1885:
	movq	8(%rsi), %r10
Ltmp1886:
	movb	1(%rdx), %r12b
Ltmp1887:
	movzwl	2(%rdx), %esi
Ltmp1888:
	movl	4(%rdx), %r15d
Ltmp1889:
	movq	8(%rdx), %r14
Ltmp1890:
	leaq	LJTI74_1(%rip), %rdx
Ltmp1891:
	movslq	(%rdx,%rbx,4), %rbx
	addq	%rdx, %rbx
	jmpq	*%rbx
Ltmp1892:
LBB74_7:
	.loc	41 477 34
	testb	%dil, %dil
	jne	LBB74_50
Ltmp1893:
	.loc	41 0 34
	movabsq	$-9223372036854775808, %rax
Ltmp1894:
	.loc	41 15 17 is_stmt 1
	movq	%rcx, %rdx
	shrq	%rdx
	.loc	41 15 16 is_stmt 0
	incq	%rdx
Ltmp1895:
	.loc	41 14 17 is_stmt 1
	andq	%rcx, %r10
Ltmp1896:
	.loc	41 16 5
	xorq	%rdx, %r10
Ltmp1897:
	.loc	21 1271 17
	subq	%rdx, %r10
Ltmp1898:
	.loc	41 14 17
	andq	%rcx, %r14
Ltmp1899:
	.loc	41 16 5
	xorq	%rdx, %r14
Ltmp1900:
	.loc	21 1271 17
	subq	%rdx, %r14
Ltmp1901:
	.loc	21 1692 20
	cmpq	%rax, %r10
	.loc	21 1692 17 is_stmt 0
	jne	LBB74_10
Ltmp1902:
	cmpq	$-1, %r14
	je	LBB74_12
Ltmp1903:
LBB74_10:
	.loc	21 1695 22 is_stmt 1
	testq	%r14, %r14
	je	LBB74_62
Ltmp1904:
	movq	%r10, %rax
	cqto
	idivq	%r14
Ltmp1905:
LBB74_12:
	.loc	21 0 22 is_stmt 0
	xorl	%ecx, %ecx
Ltmp1906:
	jmp	LBB74_46
Ltmp1907:
LBB74_13:
	cmpw	$0, 2(%rdx)
	jne	LBB74_5
	jmp	LBB74_3
Ltmp1908:
LBB74_14:
	cmpq	$0, 8(%rdx)
	jne	LBB74_5
	jmp	LBB74_3
Ltmp1909:
LBB74_15:
	.loc	41 461 35 is_stmt 1
	testq	%rcx, 8(%rdx)
	jne	LBB74_5
	jmp	LBB74_3
Ltmp1910:
LBB74_16:
	.loc	41 486 30
	cmpb	$4, %dil
	jne	LBB74_50
Ltmp1911:
	.loc	21 3390 17
	testw	%si, %si
	je	LBB74_61
Ltmp1912:
	movl	%r8d, %eax
	xorl	%edx, %edx
	divw	%si
	movl	%eax, %r8d
Ltmp1913:
	.loc	21 0 17 is_stmt 0
	movb	$4, %cl
Ltmp1914:
	jmp	LBB74_58
Ltmp1915:
LBB74_19:
	.loc	41 491 30 is_stmt 1
	cmpb	$9, %dil
	jne	LBB74_50
Ltmp1916:
	.loc	41 491 25 is_stmt 0
	movd	%eax, %xmm0
Ltmp1917:
	.loc	41 491 41
	movd	%r15d, %xmm1
Ltmp1918:
	.loc	41 491 60
	divss	%xmm1, %xmm0
Ltmp1919:
	.loc	41 491 49
	movd	%xmm0, %esi
Ltmp1920:
	.loc	41 0 49
	movb	$9, %cl
Ltmp1921:
	jmp	LBB74_57
Ltmp1922:
LBB74_21:
	.loc	41 484 29 is_stmt 1
	cmpb	$2, %dil
	jne	LBB74_50
Ltmp1923:
	.loc	21 3390 17
	testb	%r12b, %r12b
	je	LBB74_61
Ltmp1924:
	movzbl	%r9b, %eax
	divb	%r12b
	movl	%eax, %edx
Ltmp1925:
	.loc	21 0 17 is_stmt 0
	movb	$2, %cl
Ltmp1926:
	jmp	LBB74_58
Ltmp1927:
LBB74_24:
	.loc	41 485 30 is_stmt 1
	cmpb	$3, %dil
	jne	LBB74_50
Ltmp1928:
	.loc	21 1692 20
	movzwl	%r8w, %eax
	movb	$3, %cl
Ltmp1929:
	cmpl	$32768, %eax
	.loc	21 1692 17 is_stmt 0
	jne	LBB74_51
	cmpw	$-1, %si
	jne	LBB74_51
Ltmp1930:
	.loc	21 0 17
	movw	$-32768, %r8w
	jmp	LBB74_58
LBB74_28:
Ltmp1931:
	.loc	41 489 30 is_stmt 1
	cmpb	$7, %dil
	jne	LBB74_50
Ltmp1932:
	.loc	41 0 30 is_stmt 0
	movabsq	$-9223372036854775808, %rax
	movb	$7, %cl
Ltmp1933:
	.loc	21 1692 20 is_stmt 1
	cmpq	%rax, %r10
	.loc	21 1692 17 is_stmt 0
	jne	LBB74_31
	cmpq	$-1, %r14
	je	LBB74_46
LBB74_31:
	.loc	21 1695 22 is_stmt 1
	testq	%r14, %r14
	je	LBB74_62
	movq	%r10, %rax
	cqto
	idivq	%r14
	jmp	LBB74_46
Ltmp1934:
LBB74_33:
	.loc	41 483 29
	cmpb	$1, %dil
	jne	LBB74_50
Ltmp1935:
	.loc	41 0 29 is_stmt 0
	movb	$1, %cl
Ltmp1936:
	.loc	21 1692 20 is_stmt 1
	cmpb	$-128, %r9b
	.loc	21 1692 17 is_stmt 0
	jne	LBB74_53
	cmpb	$-1, %r12b
	jne	LBB74_53
Ltmp1937:
	.loc	21 0 17
	movb	$-128, %dl
	jmp	LBB74_58
LBB74_37:
Ltmp1938:
	.loc	41 487 30 is_stmt 1
	cmpb	$5, %dil
	jne	LBB74_50
Ltmp1939:
	.loc	41 0 30 is_stmt 0
	movb	$5, %cl
Ltmp1940:
	.loc	21 1692 20 is_stmt 1
	cmpl	$-2147483648, %eax
	.loc	21 1692 17 is_stmt 0
	jne	LBB74_55
	cmpl	$-1, %r15d
	jne	LBB74_55
Ltmp1941:
	.loc	21 0 17
	movl	$-2147483648, %esi
	jmp	LBB74_57
LBB74_41:
Ltmp1942:
	.loc	41 488 30 is_stmt 1
	cmpb	$6, %dil
	jne	LBB74_50
Ltmp1943:
	.loc	21 3390 17
	testl	%r15d, %r15d
	je	LBB74_61
Ltmp1944:
	xorl	%edx, %edx
	divl	%r15d
	movl	%eax, %esi
Ltmp1945:
	.loc	21 0 17 is_stmt 0
	movb	$6, %cl
Ltmp1946:
	jmp	LBB74_57
Ltmp1947:
LBB74_44:
	.loc	41 492 30 is_stmt 1
	cmpb	$10, %dil
	jne	LBB74_50
Ltmp1948:
	.loc	41 492 25 is_stmt 0
	movq	%r10, %xmm0
Ltmp1949:
	.loc	41 492 41
	movq	%r14, %xmm1
Ltmp1950:
	.loc	41 492 60
	divsd	%xmm1, %xmm0
Ltmp1951:
	.loc	41 492 49
	movq	%xmm0, %rax
Ltmp1952:
	.loc	41 0 49
	movb	$10, %cl
Ltmp1953:
	jmp	LBB74_46
Ltmp1954:
LBB74_47:
	.loc	41 490 30 is_stmt 1
	cmpb	$8, %dil
	jne	LBB74_50
Ltmp1955:
	.loc	21 3390 17
	testq	%r14, %r14
	je	LBB74_61
Ltmp1956:
	movq	%r10, %rax
	xorl	%edx, %edx
	divq	%r14
Ltmp1957:
	.loc	21 0 17 is_stmt 0
	movb	$8, %cl
Ltmp1958:
LBB74_46:
	jmp	LBB74_59
Ltmp1959:
LBB74_50:
	.loc	41 493 25 is_stmt 1
	movb	$42, 8(%r11)
	movl	$1, %eax
	jmp	LBB74_60
Ltmp1960:
LBB74_51:
	.loc	21 1695 22
	testw	%si, %si
	je	LBB74_62
	movl	%r8d, %eax
	cwtd
	idivw	%si
	movl	%eax, %r8d
	jmp	LBB74_58
Ltmp1961:
LBB74_53:
	.loc	21 1695 22 is_stmt 0
	testb	%r12b, %r12b
	je	LBB74_62
	movl	%r9d, %eax
	cbtw
	idivb	%r12b
	movl	%eax, %edx
	jmp	LBB74_58
Ltmp1962:
LBB74_55:
	.loc	21 1695 22
	testl	%r15d, %r15d
	je	LBB74_62
	cltd
	idivl	%r15d
	movl	%eax, %esi
Ltmp1963:
LBB74_57:
LBB74_58:
LBB74_59:
	.loc	41 495 9 is_stmt 1
	movb	%cl, 8(%r11)
	movb	%dl, 9(%r11)
	movw	%r8w, 10(%r11)
	movl	%esi, 12(%r11)
	movq	%rax, 16(%r11)
	xorl	%eax, %eax
Ltmp1964:
LBB74_60:
	.loc	41 0 0 is_stmt 0
	movq	%rax, (%r11)
	.loc	41 496 6 is_stmt 1
	movq	%r11, %rax
	popq	%rbx
	popq	%r12
	popq	%r14
	popq	%r15
	popq	%rbp
	retq
LBB74_61:
Ltmp1965:
	.loc	41 0 0 is_stmt 0
	leaq	_str.0(%rip), %rdi
	leaq	l___unnamed_116(%rip), %rdx
	movl	$25, %esi
	callq	__ZN4core9panicking5panic17h736ee47a631475c0E
Ltmp1966:
LBB74_62:
	leaq	_str.0(%rip), %rdi
	leaq	l___unnamed_117(%rip), %rdx
	movl	$25, %esi
	callq	__ZN4core9panicking5panic17h736ee47a631475c0E
Ltmp1967:
Lfunc_end74:
	.cfi_endproc
	.p2align	2, 0x90
	.data_region jt32
.set L74_0_set_15, LBB74_15-LJTI74_0
.set L74_0_set_2, LBB74_2-LJTI74_0
.set L74_0_set_13, LBB74_13-LJTI74_0
.set L74_0_set_4, LBB74_4-LJTI74_0
.set L74_0_set_14, LBB74_14-LJTI74_0
LJTI74_0:
	.long	L74_0_set_15
	.long	L74_0_set_2
	.long	L74_0_set_2
	.long	L74_0_set_13
	.long	L74_0_set_13
	.long	L74_0_set_4
	.long	L74_0_set_4
	.long	L74_0_set_14
	.long	L74_0_set_14
.set L74_1_set_7, LBB74_7-LJTI74_1
.set L74_1_set_33, LBB74_33-LJTI74_1
.set L74_1_set_21, LBB74_21-LJTI74_1
.set L74_1_set_24, LBB74_24-LJTI74_1
.set L74_1_set_16, LBB74_16-LJTI74_1
.set L74_1_set_37, LBB74_37-LJTI74_1
.set L74_1_set_41, LBB74_41-LJTI74_1
.set L74_1_set_28, LBB74_28-LJTI74_1
.set L74_1_set_47, LBB74_47-LJTI74_1
.set L74_1_set_19, LBB74_19-LJTI74_1
.set L74_1_set_44, LBB74_44-LJTI74_1
LJTI74_1:
	.long	L74_1_set_7
	.long	L74_1_set_33
	.long	L74_1_set_21
	.long	L74_1_set_24
	.long	L74_1_set_16
	.long	L74_1_set_37
	.long	L74_1_set_41
	.long	L74_1_set_28
	.long	L74_1_set_47
	.long	L74_1_set_19
	.long	L74_1_set_44
	.end_data_region

	.globl	__ZN5gimli4read5value5Value3rem17h7972f35a81d89b2fE
	.p2align	4, 0x90
__ZN5gimli4read5value5Value3rem17h7972f35a81d89b2fE:
Lfunc_begin75:
	.loc	41 504 0 is_stmt 1
	.cfi_startproc
	pushq	%rbp
	.cfi_def_cfa_offset 16
	.cfi_offset %rbp, -16
	movq	%rsp, %rbp
	.cfi_def_cfa_register %rbp
	pushq	%r15
	pushq	%r14
	pushq	%r13
	pushq	%r12
	pushq	%rbx
	pushq	%rax
	.cfi_offset %rbx, -56
	.cfi_offset %r12, -48
	.cfi_offset %r13, -40
	.cfi_offset %r14, -32
	.cfi_offset %r15, -24
	movq	%rdi, %r13
Ltmp1968:
	.loc	41 506 13 prologue_end
	movzbl	(%rdx), %ebx
	cmpq	$8, %rbx
	ja	LBB75_3
Ltmp1969:
	.loc	41 0 13 is_stmt 0
	leaq	LJTI75_0(%rip), %rax
	movslq	(%rax,%rbx,4), %rdi
	addq	%rax, %rdi
	jmpq	*%rdi
Ltmp1970:
LBB75_2:
	cmpb	$0, 1(%rdx)
	jne	LBB75_3
Ltmp1971:
LBB75_9:
	movb	$41, 8(%r13)
	jmp	LBB75_61
Ltmp1972:
LBB75_6:
	cmpl	$0, 4(%rdx)
	je	LBB75_9
Ltmp1973:
LBB75_3:
	.loc	41 521 28 is_stmt 1
	movzbl	(%rsi), %edi
	cmpq	$10, %rdi
	.loc	41 522 14
	ja	LBB75_11
Ltmp1974:
	.loc	41 0 14 is_stmt 0
	movb	1(%rsi), %r9b
Ltmp1975:
	movzwl	2(%rsi), %r8d
Ltmp1976:
	movl	4(%rsi), %r10d
Ltmp1977:
	movq	8(%rsi), %rax
Ltmp1978:
	movb	1(%rdx), %r15b
Ltmp1979:
	movzwl	2(%rdx), %r12d
Ltmp1980:
	movl	4(%rdx), %esi
Ltmp1981:
	movq	8(%rdx), %r14
Ltmp1982:
	leaq	LJTI75_1(%rip), %rdx
Ltmp1983:
	movslq	(%rdx,%rdi,4), %rdi
	addq	%rdx, %rdi
	jmpq	*%rdi
Ltmp1984:
LBB75_10:
	.loc	41 522 34
	testb	%bl, %bl
	jne	LBB75_11
Ltmp1985:
	.loc	21 3442 17 is_stmt 1
	andq	%rcx, %r14
Ltmp1986:
	je	LBB75_63
Ltmp1987:
	.loc	41 524 32
	andq	%rcx, %rax
Ltmp1988:
	.loc	21 3442 17
	xorl	%edx, %edx
	divq	%r14
Ltmp1989:
	movq	%rdx, %rax
Ltmp1990:
	.loc	21 0 17 is_stmt 0
	xorl	%r11d, %r11d
Ltmp1991:
	jmp	LBB75_42
Ltmp1992:
LBB75_5:
	cmpw	$0, 2(%rdx)
	jne	LBB75_3
	jmp	LBB75_9
Ltmp1993:
LBB75_7:
	cmpq	$0, 8(%rdx)
	jne	LBB75_3
	jmp	LBB75_9
Ltmp1994:
LBB75_8:
	.loc	41 506 36 is_stmt 1
	testq	%rcx, 8(%rdx)
	jne	LBB75_3
	jmp	LBB75_9
Ltmp1995:
LBB75_33:
	.loc	41 529 30
	cmpb	$4, %bl
	jne	LBB75_11
Ltmp1996:
	.loc	21 3442 17
	testw	%r12w, %r12w
	je	LBB75_63
Ltmp1997:
	movl	%r8d, %eax
	xorl	%edx, %edx
	divw	%r12w
Ltmp1998:
	.loc	21 0 17 is_stmt 0
	movb	$4, %r11b
Ltmp1999:
	jmp	LBB75_41
Ltmp2000:
LBB75_59:
	.loc	41 534 29 is_stmt 1
	cmpb	$9, %bl
	je	LBB75_60
	jmp	LBB75_11
Ltmp2001:
LBB75_23:
	.loc	41 527 29
	cmpb	$2, %bl
	jne	LBB75_11
Ltmp2002:
	.loc	21 3442 17
	testb	%r15b, %r15b
	je	LBB75_63
Ltmp2003:
	movzbl	%r9b, %eax
	divb	%r15b
	movzbl	%ah, %ebx
Ltmp2004:
	.loc	21 0 17 is_stmt 0
	movb	$2, %r11b
Ltmp2005:
	jmp	LBB75_41
Ltmp2006:
LBB75_26:
	.loc	41 528 30 is_stmt 1
	cmpb	$3, %bl
	jne	LBB75_11
Ltmp2007:
	.loc	21 1759 20
	movzwl	%r8w, %eax
	movb	$3, %r11b
	cmpl	$32768, %eax
	.loc	21 1759 17 is_stmt 0
	jne	LBB75_31
Ltmp2008:
	cmpw	$-1, %r12w
	jne	LBB75_31
Ltmp2009:
	.loc	21 0 17
	xorl	%edx, %edx
Ltmp2010:
	jmp	LBB75_41
LBB75_48:
Ltmp2011:
	.loc	41 532 30 is_stmt 1
	cmpb	$7, %bl
	jne	LBB75_11
Ltmp2012:
	.loc	41 0 30 is_stmt 0
	movabsq	$-9223372036854775808, %rcx
Ltmp2013:
	movb	$7, %r11b
Ltmp2014:
	.loc	21 1759 20 is_stmt 1
	cmpq	%rcx, %rax
	.loc	21 1759 17 is_stmt 0
	jne	LBB75_53
	cmpq	$-1, %r14
	jne	LBB75_53
Ltmp2015:
	.loc	21 0 17
	xorl	%eax, %eax
	jmp	LBB75_42
LBB75_15:
Ltmp2016:
	.loc	41 526 29 is_stmt 1
	cmpb	$1, %bl
	jne	LBB75_11
Ltmp2017:
	.loc	41 0 29 is_stmt 0
	movb	$1, %r11b
Ltmp2018:
	.loc	21 1759 20 is_stmt 1
	cmpb	$-128, %r9b
	.loc	21 1759 17 is_stmt 0
	jne	LBB75_21
Ltmp2019:
	cmpb	$-1, %r15b
	jne	LBB75_21
Ltmp2020:
	.loc	21 0 17
	xorl	%ebx, %ebx
Ltmp2021:
	jmp	LBB75_41
LBB75_36:
Ltmp2022:
	.loc	41 530 30 is_stmt 1
	cmpb	$5, %bl
	jne	LBB75_11
Ltmp2023:
	.loc	41 0 30 is_stmt 0
	movb	$5, %r11b
Ltmp2024:
	.loc	21 1759 20 is_stmt 1
	cmpl	$-2147483648, %r10d
	.loc	21 1759 17 is_stmt 0
	jne	LBB75_43
Ltmp2025:
	cmpl	$-1, %esi
	jne	LBB75_43
Ltmp2026:
	.loc	21 0 17
	xorl	%ecx, %ecx
Ltmp2027:
	jmp	LBB75_40
LBB75_45:
Ltmp2028:
	.loc	41 531 30 is_stmt 1
	cmpb	$6, %bl
	jne	LBB75_11
Ltmp2029:
	.loc	21 3442 17
	testl	%esi, %esi
	je	LBB75_63
Ltmp2030:
	movl	%r10d, %eax
	xorl	%edx, %edx
	divl	%esi
	movl	%edx, %ecx
Ltmp2031:
	.loc	21 0 17 is_stmt 0
	movb	$6, %r11b
	jmp	LBB75_40
Ltmp2032:
LBB75_56:
	.loc	41 533 30 is_stmt 1
	cmpb	$8, %bl
	jne	LBB75_11
Ltmp2033:
	.loc	21 3442 17
	testq	%r14, %r14
	je	LBB75_63
Ltmp2034:
	xorl	%edx, %edx
	divq	%r14
	movq	%rdx, %rax
Ltmp2035:
	.loc	21 0 17 is_stmt 0
	movb	$8, %r11b
Ltmp2036:
	jmp	LBB75_42
Ltmp2037:
LBB75_12:
	.loc	41 535 29 is_stmt 1
	cmpb	$10, %bl
	jne	LBB75_11
Ltmp2038:
LBB75_60:
	.loc	41 0 0 is_stmt 0
	movb	$43, 8(%r13)
	jmp	LBB75_61
Ltmp2039:
LBB75_11:
	.loc	41 536 25 is_stmt 1
	movb	$42, 8(%r13)
Ltmp2040:
LBB75_61:
	.loc	41 0 25 is_stmt 0
	movl	$1, %eax
	jmp	LBB75_62
Ltmp2041:
LBB75_31:
	.loc	21 1762 22 is_stmt 1
	testw	%r12w, %r12w
	je	LBB75_55
Ltmp2042:
	movl	%r8d, %eax
	cwtd
	idivw	%r12w
Ltmp2043:
	.loc	21 0 22 is_stmt 0
	jmp	LBB75_41
Ltmp2044:
LBB75_53:
	.loc	21 1762 22
	testq	%r14, %r14
	je	LBB75_55
	cqto
	idivq	%r14
	movq	%rdx, %rax
	jmp	LBB75_42
Ltmp2045:
LBB75_21:
	.loc	21 1762 22
	testb	%r15b, %r15b
	je	LBB75_55
Ltmp2046:
	movl	%r9d, %eax
	cbtw
	idivb	%r15b
	movsbl	%ah, %ebx
Ltmp2047:
	.loc	21 0 22
	jmp	LBB75_41
Ltmp2048:
LBB75_43:
	.loc	21 1762 22
	testl	%esi, %esi
	je	LBB75_55
Ltmp2049:
	movl	%r10d, %eax
	cltd
	idivl	%esi
	movl	%edx, %ecx
Ltmp2050:
LBB75_40:
LBB75_41:
LBB75_42:
	.loc	41 538 9 is_stmt 1
	movb	%r11b, 8(%r13)
	movb	%bl, 9(%r13)
	movw	%dx, 10(%r13)
	movl	%ecx, 12(%r13)
	movq	%rax, 16(%r13)
	xorl	%eax, %eax
Ltmp2051:
LBB75_62:
	.loc	41 0 0 is_stmt 0
	movq	%rax, (%r13)
	.loc	41 539 6 is_stmt 1
	movq	%r13, %rax
	addq	$8, %rsp
	popq	%rbx
	popq	%r12
	popq	%r13
	popq	%r14
	popq	%r15
	popq	%rbp
	retq
LBB75_63:
Ltmp2052:
	.loc	41 0 0 is_stmt 0
	leaq	_str.2(%rip), %rdi
	leaq	l___unnamed_118(%rip), %rdx
	movl	$57, %esi
	callq	__ZN4core9panicking5panic17h736ee47a631475c0E
Ltmp2053:
LBB75_55:
	leaq	_str.2(%rip), %rdi
	leaq	l___unnamed_119(%rip), %rdx
	movl	$57, %esi
	callq	__ZN4core9panicking5panic17h736ee47a631475c0E
Ltmp2054:
Lfunc_end75:
	.cfi_endproc
	.p2align	2, 0x90
	.data_region jt32
.set L75_0_set_8, LBB75_8-LJTI75_0
.set L75_0_set_2, LBB75_2-LJTI75_0
.set L75_0_set_5, LBB75_5-LJTI75_0
.set L75_0_set_6, LBB75_6-LJTI75_0
.set L75_0_set_7, LBB75_7-LJTI75_0
LJTI75_0:
	.long	L75_0_set_8
	.long	L75_0_set_2
	.long	L75_0_set_2
	.long	L75_0_set_5
	.long	L75_0_set_5
	.long	L75_0_set_6
	.long	L75_0_set_6
	.long	L75_0_set_7
	.long	L75_0_set_7
.set L75_1_set_10, LBB75_10-LJTI75_1
.set L75_1_set_15, LBB75_15-LJTI75_1
.set L75_1_set_23, LBB75_23-LJTI75_1
.set L75_1_set_26, LBB75_26-LJTI75_1
.set L75_1_set_33, LBB75_33-LJTI75_1
.set L75_1_set_36, LBB75_36-LJTI75_1
.set L75_1_set_45, LBB75_45-LJTI75_1
.set L75_1_set_48, LBB75_48-LJTI75_1
.set L75_1_set_56, LBB75_56-LJTI75_1
.set L75_1_set_59, LBB75_59-LJTI75_1
.set L75_1_set_12, LBB75_12-LJTI75_1
LJTI75_1:
	.long	L75_1_set_10
	.long	L75_1_set_15
	.long	L75_1_set_23
	.long	L75_1_set_26
	.long	L75_1_set_33
	.long	L75_1_set_36
	.long	L75_1_set_45
	.long	L75_1_set_48
	.long	L75_1_set_56
	.long	L75_1_set_59
	.long	L75_1_set_12
	.end_data_region

	.globl	__ZN5gimli4read5value5Value3not17h574e3d88c0896729E
	.p2align	4, 0x90
__ZN5gimli4read5value5Value3not17h574e3d88c0896729E:
Lfunc_begin76:
	.loc	41 546 0 is_stmt 1
	.cfi_startproc
	pushq	%rbp
	.cfi_def_cfa_offset 16
	.cfi_offset %rbp, -16
	movq	%rsp, %rbp
	.cfi_def_cfa_register %rbp
	movq	%rdi, %rax
Ltmp2055:
	.loc	41 155 13 prologue_end
	movzbl	(%rsi), %ecx
Ltmp2056:
	.loc	41 0 13 is_stmt 0
	leaq	LJTI76_0(%rip), %rdi
	movslq	(%rdi,%rcx,4), %rcx
	addq	%rdi, %rcx
	jmpq	*%rcx
Ltmp2057:
LBB76_16:
	.loc	17 1558 9 is_stmt 1
	movq	$43, 8(%rax)
	movl	$1, %ecx
Ltmp2058:
	.loc	41 0 0 is_stmt 0
	movq	%rcx, (%rax)
Ltmp2059:
	.loc	41 550 6 is_stmt 1
	popq	%rbp
	retq
Ltmp2060:
LBB76_1:
	.loc	41 193 38
	andq	8(%rsi), %rdx
Ltmp2061:
	.loc	41 549 37
	notq	%rdx
	xorl	%esi, %esi
Ltmp2062:
	.loc	41 0 37 is_stmt 0
	jmp	LBB76_14
Ltmp2063:
LBB76_2:
	.loc	41 548 17 is_stmt 1
	movb	1(%rsi), %cl
Ltmp2064:
	.loc	41 549 37
	notb	%cl
Ltmp2065:
	.loc	41 0 37 is_stmt 0
	movb	$1, %sil
Ltmp2066:
	jmp	LBB76_15
Ltmp2067:
LBB76_4:
	.loc	41 548 17 is_stmt 1
	movb	1(%rsi), %cl
Ltmp2068:
	.loc	41 549 37
	notb	%cl
Ltmp2069:
	.loc	41 0 37 is_stmt 0
	movb	$2, %sil
Ltmp2070:
	jmp	LBB76_15
Ltmp2071:
LBB76_5:
	.loc	41 548 17 is_stmt 1
	movzwl	2(%rsi), %edi
Ltmp2072:
	.loc	41 549 37
	notl	%edi
Ltmp2073:
	.loc	41 0 37 is_stmt 0
	movb	$3, %sil
Ltmp2074:
	jmp	LBB76_15
Ltmp2075:
LBB76_8:
	.loc	41 548 17 is_stmt 1
	movzwl	2(%rsi), %edi
Ltmp2076:
	.loc	41 549 37
	notl	%edi
Ltmp2077:
	.loc	41 0 37 is_stmt 0
	movb	$4, %sil
Ltmp2078:
	jmp	LBB76_15
Ltmp2079:
LBB76_9:
	.loc	41 548 17 is_stmt 1
	movl	4(%rsi), %r8d
Ltmp2080:
	.loc	41 549 37
	notl	%r8d
Ltmp2081:
	.loc	41 0 37 is_stmt 0
	movb	$5, %sil
Ltmp2082:
	jmp	LBB76_15
Ltmp2083:
LBB76_11:
	.loc	41 548 17 is_stmt 1
	movl	4(%rsi), %r8d
Ltmp2084:
	.loc	41 549 37
	notl	%r8d
Ltmp2085:
	.loc	41 0 37 is_stmt 0
	movb	$6, %sil
Ltmp2086:
	jmp	LBB76_15
Ltmp2087:
LBB76_12:
	.loc	41 548 17 is_stmt 1
	movq	8(%rsi), %rdx
Ltmp2088:
	.loc	41 549 37
	notq	%rdx
Ltmp2089:
	.loc	41 0 37 is_stmt 0
	movb	$7, %sil
Ltmp2090:
	jmp	LBB76_14
Ltmp2091:
LBB76_13:
	.loc	41 548 17 is_stmt 1
	movq	8(%rsi), %rdx
Ltmp2092:
	.loc	41 549 37
	notq	%rdx
Ltmp2093:
	.loc	41 0 37 is_stmt 0
	movb	$8, %sil
Ltmp2094:
LBB76_14:
LBB76_15:
	.loc	41 226 9 is_stmt 1
	movb	%sil, 8(%rax)
	movb	%cl, 9(%rax)
	movw	%di, 10(%rax)
	movl	%r8d, 12(%rax)
	movq	%rdx, 16(%rax)
	xorl	%ecx, %ecx
Ltmp2095:
	.loc	41 0 0 is_stmt 0
	movq	%rcx, (%rax)
Ltmp2096:
	.loc	41 550 6 is_stmt 1
	popq	%rbp
	retq
Ltmp2097:
Lfunc_end76:
	.cfi_endproc
	.p2align	2, 0x90
	.data_region jt32
.set L76_0_set_1, LBB76_1-LJTI76_0
.set L76_0_set_2, LBB76_2-LJTI76_0
.set L76_0_set_4, LBB76_4-LJTI76_0
.set L76_0_set_5, LBB76_5-LJTI76_0
.set L76_0_set_8, LBB76_8-LJTI76_0
.set L76_0_set_9, LBB76_9-LJTI76_0
.set L76_0_set_11, LBB76_11-LJTI76_0
.set L76_0_set_12, LBB76_12-LJTI76_0
.set L76_0_set_13, LBB76_13-LJTI76_0
.set L76_0_set_16, LBB76_16-LJTI76_0
LJTI76_0:
	.long	L76_0_set_1
	.long	L76_0_set_2
	.long	L76_0_set_4
	.long	L76_0_set_5
	.long	L76_0_set_8
	.long	L76_0_set_9
	.long	L76_0_set_11
	.long	L76_0_set_12
	.long	L76_0_set_13
	.long	L76_0_set_16
	.long	L76_0_set_16
	.end_data_region

	.section	__TEXT,__literal16,16byte_literals
	.p2align	4
LCPI77_0:
	.long	1127219200
	.long	1160773632
	.long	0
	.long	0
LCPI77_1:
	.quad	4841369599423283200
	.quad	4985484787499139072
	.section	__TEXT,__text,regular,pure_instructions
	.globl	__ZN5gimli4read5value5Value3and17h05f9c5bad2ea253fE
	.p2align	4, 0x90
__ZN5gimli4read5value5Value3and17h05f9c5bad2ea253fE:
Lfunc_begin77:
	.loc	41 557 0
	.cfi_startproc
	pushq	%rbp
	.cfi_def_cfa_offset 16
	.cfi_offset %rbp, -16
	movq	%rsp, %rbp
	.cfi_def_cfa_register %rbp
	pushq	%r15
	pushq	%r14
	pushq	%rbx
	.cfi_offset %rbx, -40
	.cfi_offset %r14, -32
	.cfi_offset %r15, -24
	movq	%rdi, %rax
Ltmp2098:
	.loc	41 155 13 prologue_end
	movb	(%rsi), %r8b
Ltmp2099:
	.loc	41 155 13 is_stmt 0
	movzbl	(%rdx), %edi
Ltmp2100:
	.loc	41 25 30 is_stmt 1
	cmpb	%dil, %r8b
Ltmp2101:
	.loc	41 559 9
	jne	LBB77_9
Ltmp2102:
	.loc	41 0 0 is_stmt 0
	movzbl	%r8b, %r9d
Ltmp2103:
	.loc	41 193 13 is_stmt 1
	cmpq	$8, %r9
	ja	LBB77_33
Ltmp2104:
	.loc	41 0 13 is_stmt 0
	movsbq	1(%rsi), %r11
	movswq	2(%rsi), %r14
	movslq	4(%rsi), %r15
	movq	8(%rsi), %r10
Ltmp2105:
	leaq	LJTI77_0(%rip), %rsi
Ltmp2106:
	movslq	(%rsi,%r9,4), %rbx
	addq	%rsi, %rbx
	jmpq	*%rbx
Ltmp2107:
LBB77_10:
	.loc	41 193 38
	andq	%rcx, %r10
Ltmp2108:
	.loc	41 193 13
	cmpq	$8, %rdi
	jbe	LBB77_12
	jmp	LBB77_33
Ltmp2109:
LBB77_9:
	.loc	41 560 20 is_stmt 1
	movb	$42, 8(%rax)
Ltmp2110:
LBB77_34:
	.loc	41 0 20 is_stmt 0
	movl	$1, %ecx
Ltmp2111:
	jmp	LBB77_35
Ltmp2112:
LBB77_3:
	movq	%r11, %r10
Ltmp2113:
	.loc	41 193 13 is_stmt 1
	cmpq	$8, %rdi
	jbe	LBB77_12
	jmp	LBB77_33
Ltmp2114:
LBB77_4:
	.loc	42 51 17
	movzbl	%r11b, %r10d
Ltmp2115:
	.loc	41 193 13
	cmpq	$8, %rdi
	jbe	LBB77_12
	jmp	LBB77_33
Ltmp2116:
LBB77_5:
	.loc	41 0 0 is_stmt 0
	movq	%r14, %r10
Ltmp2117:
	.loc	41 193 13
	cmpq	$8, %rdi
	jbe	LBB77_12
	jmp	LBB77_33
Ltmp2118:
LBB77_6:
	.loc	42 51 17 is_stmt 1
	movzwl	%r14w, %r10d
Ltmp2119:
	.loc	41 193 13
	cmpq	$8, %rdi
	jbe	LBB77_12
	jmp	LBB77_33
Ltmp2120:
LBB77_7:
	.loc	41 0 0 is_stmt 0
	movq	%r15, %r10
Ltmp2121:
	.loc	41 193 13
	cmpq	$8, %rdi
	jbe	LBB77_12
	jmp	LBB77_33
Ltmp2122:
LBB77_8:
	.loc	42 51 17 is_stmt 1
	movl	%r15d, %r10d
Ltmp2123:
LBB77_11:
	.loc	41 193 13
	cmpq	$8, %rdi
	ja	LBB77_33
Ltmp2124:
LBB77_12:
	.loc	41 0 13 is_stmt 0
	movsbq	1(%rdx), %r11
	movswq	2(%rdx), %r14
	movslq	4(%rdx), %rbx
	movq	8(%rdx), %rdx
Ltmp2125:
	leaq	LJTI77_1(%rip), %rsi
	movslq	(%rsi,%rdi,4), %rdi
	addq	%rsi, %rdi
	jmpq	*%rdi
Ltmp2126:
LBB77_20:
	.loc	41 564 37 is_stmt 1
	andq	%r10, %rdx
Ltmp2127:
	.loc	41 0 37 is_stmt 0
	leaq	LJTI77_2(%rip), %rcx
Ltmp2128:
	movslq	(%rcx,%r9,4), %rsi
	addq	%rcx, %rsi
	jmpq	*%rsi
Ltmp2129:
LBB77_33:
	movq	$43, 8(%rax)
	jmp	LBB77_34
Ltmp2130:
LBB77_13:
	.loc	41 193 38 is_stmt 1
	andq	%rcx, %rdx
Ltmp2131:
	.loc	41 564 37
	andq	%r10, %rdx
Ltmp2132:
	.loc	41 0 37 is_stmt 0
	leaq	LJTI77_2(%rip), %rcx
Ltmp2133:
	movslq	(%rcx,%r9,4), %rsi
	addq	%rcx, %rsi
	jmpq	*%rsi
Ltmp2134:
LBB77_14:
	.loc	41 564 37
	andq	%r10, %r11
Ltmp2135:
	.loc	41 0 37
	leaq	LJTI77_2(%rip), %rcx
Ltmp2136:
	movslq	(%rcx,%r9,4), %rsi
	addq	%rcx, %rsi
	movq	%r11, %rdx
Ltmp2137:
	jmpq	*%rsi
Ltmp2138:
LBB77_15:
	.loc	42 51 17 is_stmt 1
	movzbl	%r11b, %edx
Ltmp2139:
	.loc	41 564 37
	andq	%r10, %rdx
Ltmp2140:
	.loc	41 0 37 is_stmt 0
	leaq	LJTI77_2(%rip), %rcx
Ltmp2141:
	movslq	(%rcx,%r9,4), %rsi
	addq	%rcx, %rsi
	jmpq	*%rsi
Ltmp2142:
LBB77_16:
	.loc	41 564 37
	andq	%r10, %r14
Ltmp2143:
	.loc	41 0 37
	leaq	LJTI77_2(%rip), %rcx
Ltmp2144:
	movslq	(%rcx,%r9,4), %rsi
	addq	%rcx, %rsi
	movq	%r14, %rdx
Ltmp2145:
	jmpq	*%rsi
Ltmp2146:
LBB77_17:
	.loc	42 51 17 is_stmt 1
	movzwl	%r14w, %edx
Ltmp2147:
	.loc	41 564 37
	andq	%r10, %rdx
Ltmp2148:
	.loc	41 0 37 is_stmt 0
	leaq	LJTI77_2(%rip), %rcx
Ltmp2149:
	movslq	(%rcx,%r9,4), %rsi
	addq	%rcx, %rsi
	jmpq	*%rsi
Ltmp2150:
LBB77_18:
	.loc	41 564 37
	andq	%r10, %rbx
Ltmp2151:
	.loc	41 0 37
	leaq	LJTI77_2(%rip), %rcx
Ltmp2152:
	movslq	(%rcx,%r9,4), %rsi
	addq	%rcx, %rsi
	movq	%rbx, %rdx
Ltmp2153:
	jmpq	*%rsi
Ltmp2154:
LBB77_19:
	.loc	42 51 17 is_stmt 1
	movl	%ebx, %edx
Ltmp2155:
	.loc	41 564 37
	andq	%r10, %rdx
Ltmp2156:
	.loc	41 0 37 is_stmt 0
	leaq	LJTI77_2(%rip), %rcx
Ltmp2157:
	movslq	(%rcx,%r9,4), %rsi
	addq	%rcx, %rsi
	jmpq	*%rsi
Ltmp2158:
LBB77_22:
	movb	$1, %r8b
Ltmp2159:
	jmp	LBB77_32
Ltmp2160:
LBB77_23:
	movb	$2, %r8b
Ltmp2161:
	jmp	LBB77_32
Ltmp2162:
LBB77_24:
	movb	$3, %r8b
Ltmp2163:
	jmp	LBB77_32
Ltmp2164:
LBB77_25:
	movb	$4, %r8b
Ltmp2165:
	jmp	LBB77_32
Ltmp2166:
LBB77_26:
	movb	$5, %r8b
Ltmp2167:
	jmp	LBB77_32
Ltmp2168:
LBB77_27:
	movb	$6, %r8b
Ltmp2169:
	jmp	LBB77_32
Ltmp2170:
LBB77_28:
	.loc	41 223 42 is_stmt 1
	testq	%rdx, %rdx
	js	LBB77_29
Ltmp2171:
	.loc	41 0 42 is_stmt 0
	cvtsi2ss	%rdx, %xmm0
	jmp	LBB77_31
Ltmp2172:
LBB77_21:
	.loc	41 224 42 is_stmt 1
	movq	%rdx, %xmm0
	punpckldq	LCPI77_0(%rip), %xmm0
	subpd	LCPI77_1(%rip), %xmm0
	haddpd	%xmm0, %xmm0
	.loc	41 224 31 is_stmt 0
	movq	%xmm0, %rdx
Ltmp2173:
	.loc	41 0 31
	movb	$10, %r8b
Ltmp2174:
	jmp	LBB77_32
Ltmp2175:
LBB77_29:
	movq	%rdx, %rcx
	shrq	%rcx
	andl	$1, %edx
	orq	%rcx, %rdx
	cvtsi2ss	%rdx, %xmm0
	addss	%xmm0, %xmm0
Ltmp2176:
LBB77_31:
	.loc	41 223 31 is_stmt 1
	movd	%xmm0, %edx
Ltmp2177:
	.loc	41 0 31 is_stmt 0
	movb	$9, %r8b
Ltmp2178:
LBB77_32:
	.loc	41 226 9 is_stmt 1
	movb	%r8b, 8(%rax)
	movb	%dl, 9(%rax)
	movw	%dx, 10(%rax)
	movl	%edx, 12(%rax)
	movq	%rdx, 16(%rax)
	xorl	%ecx, %ecx
Ltmp2179:
LBB77_35:
	.loc	41 0 0 is_stmt 0
	movq	%rcx, (%rax)
Ltmp2180:
	.loc	41 565 6 is_stmt 1
	popq	%rbx
	popq	%r14
	popq	%r15
	popq	%rbp
	retq
Ltmp2181:
Lfunc_end77:
	.cfi_endproc
	.p2align	2, 0x90
	.data_region jt32
.set L77_0_set_10, LBB77_10-LJTI77_0
.set L77_0_set_3, LBB77_3-LJTI77_0
.set L77_0_set_4, LBB77_4-LJTI77_0
.set L77_0_set_5, LBB77_5-LJTI77_0
.set L77_0_set_6, LBB77_6-LJTI77_0
.set L77_0_set_7, LBB77_7-LJTI77_0
.set L77_0_set_8, LBB77_8-LJTI77_0
.set L77_0_set_11, LBB77_11-LJTI77_0
LJTI77_0:
	.long	L77_0_set_10
	.long	L77_0_set_3
	.long	L77_0_set_4
	.long	L77_0_set_5
	.long	L77_0_set_6
	.long	L77_0_set_7
	.long	L77_0_set_8
	.long	L77_0_set_11
	.long	L77_0_set_11
.set L77_1_set_13, LBB77_13-LJTI77_1
.set L77_1_set_14, LBB77_14-LJTI77_1
.set L77_1_set_15, LBB77_15-LJTI77_1
.set L77_1_set_16, LBB77_16-LJTI77_1
.set L77_1_set_17, LBB77_17-LJTI77_1
.set L77_1_set_18, LBB77_18-LJTI77_1
.set L77_1_set_19, LBB77_19-LJTI77_1
.set L77_1_set_20, LBB77_20-LJTI77_1
LJTI77_1:
	.long	L77_1_set_13
	.long	L77_1_set_14
	.long	L77_1_set_15
	.long	L77_1_set_16
	.long	L77_1_set_17
	.long	L77_1_set_18
	.long	L77_1_set_19
	.long	L77_1_set_20
	.long	L77_1_set_20
.set L77_2_set_32, LBB77_32-LJTI77_2
.set L77_2_set_22, LBB77_22-LJTI77_2
.set L77_2_set_23, LBB77_23-LJTI77_2
.set L77_2_set_24, LBB77_24-LJTI77_2
.set L77_2_set_25, LBB77_25-LJTI77_2
.set L77_2_set_26, LBB77_26-LJTI77_2
.set L77_2_set_27, LBB77_27-LJTI77_2
.set L77_2_set_28, LBB77_28-LJTI77_2
.set L77_2_set_21, LBB77_21-LJTI77_2
LJTI77_2:
	.long	L77_2_set_32
	.long	L77_2_set_22
	.long	L77_2_set_23
	.long	L77_2_set_24
	.long	L77_2_set_25
	.long	L77_2_set_26
	.long	L77_2_set_27
	.long	L77_2_set_32
	.long	L77_2_set_32
	.long	L77_2_set_28
	.long	L77_2_set_21
	.end_data_region

	.section	__TEXT,__literal16,16byte_literals
	.p2align	4
LCPI78_0:
	.long	1127219200
	.long	1160773632
	.long	0
	.long	0
LCPI78_1:
	.quad	4841369599423283200
	.quad	4985484787499139072
	.section	__TEXT,__text,regular,pure_instructions
	.globl	__ZN5gimli4read5value5Value2or17h0c94a669797a8f07E
	.p2align	4, 0x90
__ZN5gimli4read5value5Value2or17h0c94a669797a8f07E:
Lfunc_begin78:
	.loc	41 572 0
	.cfi_startproc
	pushq	%rbp
	.cfi_def_cfa_offset 16
	.cfi_offset %rbp, -16
	movq	%rsp, %rbp
	.cfi_def_cfa_register %rbp
	pushq	%r15
	pushq	%r14
	pushq	%rbx
	.cfi_offset %rbx, -40
	.cfi_offset %r14, -32
	.cfi_offset %r15, -24
	movq	%rdi, %rax
Ltmp2182:
	.loc	41 155 13 prologue_end
	movb	(%rsi), %r8b
Ltmp2183:
	.loc	41 155 13 is_stmt 0
	movzbl	(%rdx), %edi
Ltmp2184:
	.loc	41 25 30 is_stmt 1
	cmpb	%dil, %r8b
Ltmp2185:
	.loc	41 574 9
	jne	LBB78_9
Ltmp2186:
	.loc	41 0 0 is_stmt 0
	movzbl	%r8b, %r9d
Ltmp2187:
	.loc	41 193 13 is_stmt 1
	cmpq	$8, %r9
	ja	LBB78_33
Ltmp2188:
	.loc	41 0 13 is_stmt 0
	movsbq	1(%rsi), %r11
	movswq	2(%rsi), %r14
	movslq	4(%rsi), %r15
	movq	8(%rsi), %r10
Ltmp2189:
	leaq	LJTI78_0(%rip), %rsi
Ltmp2190:
	movslq	(%rsi,%r9,4), %rbx
	addq	%rsi, %rbx
	jmpq	*%rbx
Ltmp2191:
LBB78_10:
	.loc	41 193 38
	andq	%rcx, %r10
Ltmp2192:
	.loc	41 193 13
	cmpq	$8, %rdi
	jbe	LBB78_12
	jmp	LBB78_33
Ltmp2193:
LBB78_9:
	.loc	41 575 20 is_stmt 1
	movb	$42, 8(%rax)
Ltmp2194:
LBB78_34:
	.loc	41 0 20 is_stmt 0
	movl	$1, %ecx
Ltmp2195:
	jmp	LBB78_35
Ltmp2196:
LBB78_3:
	movq	%r11, %r10
Ltmp2197:
	.loc	41 193 13 is_stmt 1
	cmpq	$8, %rdi
	jbe	LBB78_12
	jmp	LBB78_33
Ltmp2198:
LBB78_4:
	.loc	42 51 17
	movzbl	%r11b, %r10d
Ltmp2199:
	.loc	41 193 13
	cmpq	$8, %rdi
	jbe	LBB78_12
	jmp	LBB78_33
Ltmp2200:
LBB78_5:
	.loc	41 0 0 is_stmt 0
	movq	%r14, %r10
Ltmp2201:
	.loc	41 193 13
	cmpq	$8, %rdi
	jbe	LBB78_12
	jmp	LBB78_33
Ltmp2202:
LBB78_6:
	.loc	42 51 17 is_stmt 1
	movzwl	%r14w, %r10d
Ltmp2203:
	.loc	41 193 13
	cmpq	$8, %rdi
	jbe	LBB78_12
	jmp	LBB78_33
Ltmp2204:
LBB78_7:
	.loc	41 0 0 is_stmt 0
	movq	%r15, %r10
Ltmp2205:
	.loc	41 193 13
	cmpq	$8, %rdi
	jbe	LBB78_12
	jmp	LBB78_33
Ltmp2206:
LBB78_8:
	.loc	42 51 17 is_stmt 1
	movl	%r15d, %r10d
Ltmp2207:
LBB78_11:
	.loc	41 193 13
	cmpq	$8, %rdi
	ja	LBB78_33
Ltmp2208:
LBB78_12:
	.loc	41 0 13 is_stmt 0
	movsbq	1(%rdx), %r11
	movswq	2(%rdx), %r14
	movslq	4(%rdx), %rbx
	movq	8(%rdx), %rdx
Ltmp2209:
	leaq	LJTI78_1(%rip), %rsi
	movslq	(%rsi,%rdi,4), %rdi
	addq	%rsi, %rdi
	jmpq	*%rdi
Ltmp2210:
LBB78_20:
	.loc	41 579 37 is_stmt 1
	orq	%r10, %rdx
Ltmp2211:
	.loc	41 0 37 is_stmt 0
	leaq	LJTI78_2(%rip), %rcx
Ltmp2212:
	movslq	(%rcx,%r9,4), %rsi
	addq	%rcx, %rsi
	jmpq	*%rsi
Ltmp2213:
LBB78_33:
	movq	$43, 8(%rax)
	jmp	LBB78_34
Ltmp2214:
LBB78_13:
	.loc	41 193 38 is_stmt 1
	andq	%rcx, %rdx
Ltmp2215:
	.loc	41 579 37
	orq	%r10, %rdx
Ltmp2216:
	.loc	41 0 37 is_stmt 0
	leaq	LJTI78_2(%rip), %rcx
Ltmp2217:
	movslq	(%rcx,%r9,4), %rsi
	addq	%rcx, %rsi
	jmpq	*%rsi
Ltmp2218:
LBB78_14:
	.loc	41 579 37
	orq	%r10, %r11
Ltmp2219:
	.loc	41 0 37
	leaq	LJTI78_2(%rip), %rcx
Ltmp2220:
	movslq	(%rcx,%r9,4), %rsi
	addq	%rcx, %rsi
	movq	%r11, %rdx
Ltmp2221:
	jmpq	*%rsi
Ltmp2222:
LBB78_15:
	.loc	42 51 17 is_stmt 1
	movzbl	%r11b, %edx
Ltmp2223:
	.loc	41 579 37
	orq	%r10, %rdx
Ltmp2224:
	.loc	41 0 37 is_stmt 0
	leaq	LJTI78_2(%rip), %rcx
Ltmp2225:
	movslq	(%rcx,%r9,4), %rsi
	addq	%rcx, %rsi
	jmpq	*%rsi
Ltmp2226:
LBB78_16:
	.loc	41 579 37
	orq	%r10, %r14
Ltmp2227:
	.loc	41 0 37
	leaq	LJTI78_2(%rip), %rcx
Ltmp2228:
	movslq	(%rcx,%r9,4), %rsi
	addq	%rcx, %rsi
	movq	%r14, %rdx
Ltmp2229:
	jmpq	*%rsi
Ltmp2230:
LBB78_17:
	.loc	42 51 17 is_stmt 1
	movzwl	%r14w, %edx
Ltmp2231:
	.loc	41 579 37
	orq	%r10, %rdx
Ltmp2232:
	.loc	41 0 37 is_stmt 0
	leaq	LJTI78_2(%rip), %rcx
Ltmp2233:
	movslq	(%rcx,%r9,4), %rsi
	addq	%rcx, %rsi
	jmpq	*%rsi
Ltmp2234:
LBB78_18:
	.loc	41 579 37
	orq	%r10, %rbx
Ltmp2235:
	.loc	41 0 37
	leaq	LJTI78_2(%rip), %rcx
Ltmp2236:
	movslq	(%rcx,%r9,4), %rsi
	addq	%rcx, %rsi
	movq	%rbx, %rdx
Ltmp2237:
	jmpq	*%rsi
Ltmp2238:
LBB78_19:
	.loc	42 51 17 is_stmt 1
	movl	%ebx, %edx
Ltmp2239:
	.loc	41 579 37
	orq	%r10, %rdx
Ltmp2240:
	.loc	41 0 37 is_stmt 0
	leaq	LJTI78_2(%rip), %rcx
Ltmp2241:
	movslq	(%rcx,%r9,4), %rsi
	addq	%rcx, %rsi
	jmpq	*%rsi
Ltmp2242:
LBB78_22:
	movb	$1, %r8b
Ltmp2243:
	jmp	LBB78_32
Ltmp2244:
LBB78_23:
	movb	$2, %r8b
Ltmp2245:
	jmp	LBB78_32
Ltmp2246:
LBB78_24:
	movb	$3, %r8b
Ltmp2247:
	jmp	LBB78_32
Ltmp2248:
LBB78_25:
	movb	$4, %r8b
Ltmp2249:
	jmp	LBB78_32
Ltmp2250:
LBB78_26:
	movb	$5, %r8b
Ltmp2251:
	jmp	LBB78_32
Ltmp2252:
LBB78_27:
	movb	$6, %r8b
Ltmp2253:
	jmp	LBB78_32
Ltmp2254:
LBB78_28:
	.loc	41 223 42 is_stmt 1
	testq	%rdx, %rdx
	js	LBB78_29
Ltmp2255:
	.loc	41 0 42 is_stmt 0
	cvtsi2ss	%rdx, %xmm0
	jmp	LBB78_31
Ltmp2256:
LBB78_21:
	.loc	41 224 42 is_stmt 1
	movq	%rdx, %xmm0
	punpckldq	LCPI78_0(%rip), %xmm0
	subpd	LCPI78_1(%rip), %xmm0
	haddpd	%xmm0, %xmm0
	.loc	41 224 31 is_stmt 0
	movq	%xmm0, %rdx
Ltmp2257:
	.loc	41 0 31
	movb	$10, %r8b
Ltmp2258:
	jmp	LBB78_32
Ltmp2259:
LBB78_29:
	movq	%rdx, %rcx
	shrq	%rcx
	andl	$1, %edx
	orq	%rcx, %rdx
	cvtsi2ss	%rdx, %xmm0
	addss	%xmm0, %xmm0
Ltmp2260:
LBB78_31:
	.loc	41 223 31 is_stmt 1
	movd	%xmm0, %edx
Ltmp2261:
	.loc	41 0 31 is_stmt 0
	movb	$9, %r8b
Ltmp2262:
LBB78_32:
	.loc	41 226 9 is_stmt 1
	movb	%r8b, 8(%rax)
	movb	%dl, 9(%rax)
	movw	%dx, 10(%rax)
	movl	%edx, 12(%rax)
	movq	%rdx, 16(%rax)
	xorl	%ecx, %ecx
Ltmp2263:
LBB78_35:
	.loc	41 0 0 is_stmt 0
	movq	%rcx, (%rax)
Ltmp2264:
	.loc	41 580 6 is_stmt 1
	popq	%rbx
	popq	%r14
	popq	%r15
	popq	%rbp
	retq
Ltmp2265:
Lfunc_end78:
	.cfi_endproc
	.p2align	2, 0x90
	.data_region jt32
.set L78_0_set_10, LBB78_10-LJTI78_0
.set L78_0_set_3, LBB78_3-LJTI78_0
.set L78_0_set_4, LBB78_4-LJTI78_0
.set L78_0_set_5, LBB78_5-LJTI78_0
.set L78_0_set_6, LBB78_6-LJTI78_0
.set L78_0_set_7, LBB78_7-LJTI78_0
.set L78_0_set_8, LBB78_8-LJTI78_0
.set L78_0_set_11, LBB78_11-LJTI78_0
LJTI78_0:
	.long	L78_0_set_10
	.long	L78_0_set_3
	.long	L78_0_set_4
	.long	L78_0_set_5
	.long	L78_0_set_6
	.long	L78_0_set_7
	.long	L78_0_set_8
	.long	L78_0_set_11
	.long	L78_0_set_11
.set L78_1_set_13, LBB78_13-LJTI78_1
.set L78_1_set_14, LBB78_14-LJTI78_1
.set L78_1_set_15, LBB78_15-LJTI78_1
.set L78_1_set_16, LBB78_16-LJTI78_1
.set L78_1_set_17, LBB78_17-LJTI78_1
.set L78_1_set_18, LBB78_18-LJTI78_1
.set L78_1_set_19, LBB78_19-LJTI78_1
.set L78_1_set_20, LBB78_20-LJTI78_1
LJTI78_1:
	.long	L78_1_set_13
	.long	L78_1_set_14
	.long	L78_1_set_15
	.long	L78_1_set_16
	.long	L78_1_set_17
	.long	L78_1_set_18
	.long	L78_1_set_19
	.long	L78_1_set_20
	.long	L78_1_set_20
.set L78_2_set_32, LBB78_32-LJTI78_2
.set L78_2_set_22, LBB78_22-LJTI78_2
.set L78_2_set_23, LBB78_23-LJTI78_2
.set L78_2_set_24, LBB78_24-LJTI78_2
.set L78_2_set_25, LBB78_25-LJTI78_2
.set L78_2_set_26, LBB78_26-LJTI78_2
.set L78_2_set_27, LBB78_27-LJTI78_2
.set L78_2_set_28, LBB78_28-LJTI78_2
.set L78_2_set_21, LBB78_21-LJTI78_2
LJTI78_2:
	.long	L78_2_set_32
	.long	L78_2_set_22
	.long	L78_2_set_23
	.long	L78_2_set_24
	.long	L78_2_set_25
	.long	L78_2_set_26
	.long	L78_2_set_27
	.long	L78_2_set_32
	.long	L78_2_set_32
	.long	L78_2_set_28
	.long	L78_2_set_21
	.end_data_region

	.section	__TEXT,__literal16,16byte_literals
	.p2align	4
LCPI79_0:
	.long	1127219200
	.long	1160773632
	.long	0
	.long	0
LCPI79_1:
	.quad	4841369599423283200
	.quad	4985484787499139072
	.section	__TEXT,__text,regular,pure_instructions
	.globl	__ZN5gimli4read5value5Value3xor17had4a608950f63354E
	.p2align	4, 0x90
__ZN5gimli4read5value5Value3xor17had4a608950f63354E:
Lfunc_begin79:
	.loc	41 587 0
	.cfi_startproc
	pushq	%rbp
	.cfi_def_cfa_offset 16
	.cfi_offset %rbp, -16
	movq	%rsp, %rbp
	.cfi_def_cfa_register %rbp
	pushq	%r15
	pushq	%r14
	pushq	%rbx
	.cfi_offset %rbx, -40
	.cfi_offset %r14, -32
	.cfi_offset %r15, -24
	movq	%rdi, %rax
Ltmp2266:
	.loc	41 155 13 prologue_end
	movb	(%rsi), %r8b
Ltmp2267:
	.loc	41 155 13 is_stmt 0
	movzbl	(%rdx), %edi
Ltmp2268:
	.loc	41 25 30 is_stmt 1
	cmpb	%dil, %r8b
Ltmp2269:
	.loc	41 589 9
	jne	LBB79_9
Ltmp2270:
	.loc	41 0 0 is_stmt 0
	movzbl	%r8b, %r9d
Ltmp2271:
	.loc	41 193 13 is_stmt 1
	cmpq	$8, %r9
	ja	LBB79_33
Ltmp2272:
	.loc	41 0 13 is_stmt 0
	movsbq	1(%rsi), %r11
	movswq	2(%rsi), %r14
	movslq	4(%rsi), %r15
	movq	8(%rsi), %r10
Ltmp2273:
	leaq	LJTI79_0(%rip), %rsi
Ltmp2274:
	movslq	(%rsi,%r9,4), %rbx
	addq	%rsi, %rbx
	jmpq	*%rbx
Ltmp2275:
LBB79_10:
	.loc	41 193 38
	andq	%rcx, %r10
Ltmp2276:
	.loc	41 193 13
	cmpq	$8, %rdi
	jbe	LBB79_12
	jmp	LBB79_33
Ltmp2277:
LBB79_9:
	.loc	41 590 20 is_stmt 1
	movb	$42, 8(%rax)
Ltmp2278:
LBB79_34:
	.loc	41 0 20 is_stmt 0
	movl	$1, %ecx
Ltmp2279:
	jmp	LBB79_35
Ltmp2280:
LBB79_3:
	movq	%r11, %r10
Ltmp2281:
	.loc	41 193 13 is_stmt 1
	cmpq	$8, %rdi
	jbe	LBB79_12
	jmp	LBB79_33
Ltmp2282:
LBB79_4:
	.loc	42 51 17
	movzbl	%r11b, %r10d
Ltmp2283:
	.loc	41 193 13
	cmpq	$8, %rdi
	jbe	LBB79_12
	jmp	LBB79_33
Ltmp2284:
LBB79_5:
	.loc	41 0 0 is_stmt 0
	movq	%r14, %r10
Ltmp2285:
	.loc	41 193 13
	cmpq	$8, %rdi
	jbe	LBB79_12
	jmp	LBB79_33
Ltmp2286:
LBB79_6:
	.loc	42 51 17 is_stmt 1
	movzwl	%r14w, %r10d
Ltmp2287:
	.loc	41 193 13
	cmpq	$8, %rdi
	jbe	LBB79_12
	jmp	LBB79_33
Ltmp2288:
LBB79_7:
	.loc	41 0 0 is_stmt 0
	movq	%r15, %r10
Ltmp2289:
	.loc	41 193 13
	cmpq	$8, %rdi
	jbe	LBB79_12
	jmp	LBB79_33
Ltmp2290:
LBB79_8:
	.loc	42 51 17 is_stmt 1
	movl	%r15d, %r10d
Ltmp2291:
LBB79_11:
	.loc	41 193 13
	cmpq	$8, %rdi
	ja	LBB79_33
Ltmp2292:
LBB79_12:
	.loc	41 0 13 is_stmt 0
	movsbq	1(%rdx), %r11
	movswq	2(%rdx), %r14
	movslq	4(%rdx), %rbx
	movq	8(%rdx), %rdx
Ltmp2293:
	leaq	LJTI79_1(%rip), %rsi
	movslq	(%rsi,%rdi,4), %rdi
	addq	%rsi, %rdi
	jmpq	*%rdi
Ltmp2294:
LBB79_20:
	.loc	41 594 37 is_stmt 1
	xorq	%r10, %rdx
Ltmp2295:
	.loc	41 0 37 is_stmt 0
	leaq	LJTI79_2(%rip), %rcx
Ltmp2296:
	movslq	(%rcx,%r9,4), %rsi
	addq	%rcx, %rsi
	jmpq	*%rsi
Ltmp2297:
LBB79_33:
	movq	$43, 8(%rax)
	jmp	LBB79_34
Ltmp2298:
LBB79_13:
	.loc	41 193 38 is_stmt 1
	andq	%rcx, %rdx
Ltmp2299:
	.loc	41 594 37
	xorq	%r10, %rdx
Ltmp2300:
	.loc	41 0 37 is_stmt 0
	leaq	LJTI79_2(%rip), %rcx
Ltmp2301:
	movslq	(%rcx,%r9,4), %rsi
	addq	%rcx, %rsi
	jmpq	*%rsi
Ltmp2302:
LBB79_14:
	.loc	41 594 37
	xorq	%r10, %r11
Ltmp2303:
	.loc	41 0 37
	leaq	LJTI79_2(%rip), %rcx
Ltmp2304:
	movslq	(%rcx,%r9,4), %rsi
	addq	%rcx, %rsi
	movq	%r11, %rdx
Ltmp2305:
	jmpq	*%rsi
Ltmp2306:
LBB79_15:
	.loc	42 51 17 is_stmt 1
	movzbl	%r11b, %edx
Ltmp2307:
	.loc	41 594 37
	xorq	%r10, %rdx
Ltmp2308:
	.loc	41 0 37 is_stmt 0
	leaq	LJTI79_2(%rip), %rcx
Ltmp2309:
	movslq	(%rcx,%r9,4), %rsi
	addq	%rcx, %rsi
	jmpq	*%rsi
Ltmp2310:
LBB79_16:
	.loc	41 594 37
	xorq	%r10, %r14
Ltmp2311:
	.loc	41 0 37
	leaq	LJTI79_2(%rip), %rcx
Ltmp2312:
	movslq	(%rcx,%r9,4), %rsi
	addq	%rcx, %rsi
	movq	%r14, %rdx
Ltmp2313:
	jmpq	*%rsi
Ltmp2314:
LBB79_17:
	.loc	42 51 17 is_stmt 1
	movzwl	%r14w, %edx
Ltmp2315:
	.loc	41 594 37
	xorq	%r10, %rdx
Ltmp2316:
	.loc	41 0 37 is_stmt 0
	leaq	LJTI79_2(%rip), %rcx
Ltmp2317:
	movslq	(%rcx,%r9,4), %rsi
	addq	%rcx, %rsi
	jmpq	*%rsi
Ltmp2318:
LBB79_18:
	.loc	41 594 37
	xorq	%r10, %rbx
Ltmp2319:
	.loc	41 0 37
	leaq	LJTI79_2(%rip), %rcx
Ltmp2320:
	movslq	(%rcx,%r9,4), %rsi
	addq	%rcx, %rsi
	movq	%rbx, %rdx
Ltmp2321:
	jmpq	*%rsi
Ltmp2322:
LBB79_19:
	.loc	42 51 17 is_stmt 1
	movl	%ebx, %edx
Ltmp2323:
	.loc	41 594 37
	xorq	%r10, %rdx
Ltmp2324:
	.loc	41 0 37 is_stmt 0
	leaq	LJTI79_2(%rip), %rcx
Ltmp2325:
	movslq	(%rcx,%r9,4), %rsi
	addq	%rcx, %rsi
	jmpq	*%rsi
Ltmp2326:
LBB79_22:
	movb	$1, %r8b
Ltmp2327:
	jmp	LBB79_32
Ltmp2328:
LBB79_23:
	movb	$2, %r8b
Ltmp2329:
	jmp	LBB79_32
Ltmp2330:
LBB79_24:
	movb	$3, %r8b
Ltmp2331:
	jmp	LBB79_32
Ltmp2332:
LBB79_25:
	movb	$4, %r8b
Ltmp2333:
	jmp	LBB79_32
Ltmp2334:
LBB79_26:
	movb	$5, %r8b
Ltmp2335:
	jmp	LBB79_32
Ltmp2336:
LBB79_27:
	movb	$6, %r8b
Ltmp2337:
	jmp	LBB79_32
Ltmp2338:
LBB79_28:
	.loc	41 223 42 is_stmt 1
	testq	%rdx, %rdx
	js	LBB79_29
Ltmp2339:
	.loc	41 0 42 is_stmt 0
	cvtsi2ss	%rdx, %xmm0
	jmp	LBB79_31
Ltmp2340:
LBB79_21:
	.loc	41 224 42 is_stmt 1
	movq	%rdx, %xmm0
	punpckldq	LCPI79_0(%rip), %xmm0
	subpd	LCPI79_1(%rip), %xmm0
	haddpd	%xmm0, %xmm0
	.loc	41 224 31 is_stmt 0
	movq	%xmm0, %rdx
Ltmp2341:
	.loc	41 0 31
	movb	$10, %r8b
Ltmp2342:
	jmp	LBB79_32
Ltmp2343:
LBB79_29:
	movq	%rdx, %rcx
	shrq	%rcx
	andl	$1, %edx
	orq	%rcx, %rdx
	cvtsi2ss	%rdx, %xmm0
	addss	%xmm0, %xmm0
Ltmp2344:
LBB79_31:
	.loc	41 223 31 is_stmt 1
	movd	%xmm0, %edx
Ltmp2345:
	.loc	41 0 31 is_stmt 0
	movb	$9, %r8b
Ltmp2346:
LBB79_32:
	.loc	41 226 9 is_stmt 1
	movb	%r8b, 8(%rax)
	movb	%dl, 9(%rax)
	movw	%dx, 10(%rax)
	movl	%edx, 12(%rax)
	movq	%rdx, 16(%rax)
	xorl	%ecx, %ecx
Ltmp2347:
LBB79_35:
	.loc	41 0 0 is_stmt 0
	movq	%rcx, (%rax)
Ltmp2348:
	.loc	41 595 6 is_stmt 1
	popq	%rbx
	popq	%r14
	popq	%r15
	popq	%rbp
	retq
Ltmp2349:
Lfunc_end79:
	.cfi_endproc
	.p2align	2, 0x90
	.data_region jt32
.set L79_0_set_10, LBB79_10-LJTI79_0
.set L79_0_set_3, LBB79_3-LJTI79_0
.set L79_0_set_4, LBB79_4-LJTI79_0
.set L79_0_set_5, LBB79_5-LJTI79_0
.set L79_0_set_6, LBB79_6-LJTI79_0
.set L79_0_set_7, LBB79_7-LJTI79_0
.set L79_0_set_8, LBB79_8-LJTI79_0
.set L79_0_set_11, LBB79_11-LJTI79_0
LJTI79_0:
	.long	L79_0_set_10
	.long	L79_0_set_3
	.long	L79_0_set_4
	.long	L79_0_set_5
	.long	L79_0_set_6
	.long	L79_0_set_7
	.long	L79_0_set_8
	.long	L79_0_set_11
	.long	L79_0_set_11
.set L79_1_set_13, LBB79_13-LJTI79_1
.set L79_1_set_14, LBB79_14-LJTI79_1
.set L79_1_set_15, LBB79_15-LJTI79_1
.set L79_1_set_16, LBB79_16-LJTI79_1
.set L79_1_set_17, LBB79_17-LJTI79_1
.set L79_1_set_18, LBB79_18-LJTI79_1
.set L79_1_set_19, LBB79_19-LJTI79_1
.set L79_1_set_20, LBB79_20-LJTI79_1
LJTI79_1:
	.long	L79_1_set_13
	.long	L79_1_set_14
	.long	L79_1_set_15
	.long	L79_1_set_16
	.long	L79_1_set_17
	.long	L79_1_set_18
	.long	L79_1_set_19
	.long	L79_1_set_20
	.long	L79_1_set_20
.set L79_2_set_32, LBB79_32-LJTI79_2
.set L79_2_set_22, LBB79_22-LJTI79_2
.set L79_2_set_23, LBB79_23-LJTI79_2
.set L79_2_set_24, LBB79_24-LJTI79_2
.set L79_2_set_25, LBB79_25-LJTI79_2
.set L79_2_set_26, LBB79_26-LJTI79_2
.set L79_2_set_27, LBB79_27-LJTI79_2
.set L79_2_set_28, LBB79_28-LJTI79_2
.set L79_2_set_21, LBB79_21-LJTI79_2
LJTI79_2:
	.long	L79_2_set_32
	.long	L79_2_set_22
	.long	L79_2_set_23
	.long	L79_2_set_24
	.long	L79_2_set_25
	.long	L79_2_set_26
	.long	L79_2_set_27
	.long	L79_2_set_32
	.long	L79_2_set_32
	.long	L79_2_set_28
	.long	L79_2_set_21
	.end_data_region

	.globl	__ZN5gimli4read5value5Value3shl17h80946d432417cbebE
	.p2align	4, 0x90
__ZN5gimli4read5value5Value3shl17h80946d432417cbebE:
Lfunc_begin80:
	.loc	41 623 0
	.cfi_startproc
	pushq	%rbp
	.cfi_def_cfa_offset 16
	.cfi_offset %rbp, -16
	movq	%rsp, %rbp
	.cfi_def_cfa_register %rbp
	movq	%rdi, %rax
Ltmp2350:
	.loc	41 624 18 prologue_end
	movzbl	(%rdx), %edi
	cmpq	$8, %rdi
Ltmp2351:
	.loc	41 602 13
	ja	LBB80_11
Ltmp2352:
	.loc	41 0 13 is_stmt 0
	movq	%rcx, %r8
Ltmp2353:
	movsbq	1(%rdx), %r9
	movswq	2(%rdx), %r10
	movslq	4(%rdx), %r11
	movq	8(%rdx), %rcx
Ltmp2354:
	leaq	LJTI80_0(%rip), %rdx
Ltmp2355:
	movslq	(%rdx,%rdi,4), %rdi
	addq	%rdx, %rdi
	jmpq	*%rdi
Ltmp2356:
LBB80_10:
	movq	%r9, %rcx
Ltmp2357:
	.loc	41 603 33 is_stmt 1
	testb	%r9b, %r9b
	jns	LBB80_8
	jmp	LBB80_11
Ltmp2358:
LBB80_3:
	.loc	41 0 0 is_stmt 0
	movq	%r10, %rcx
Ltmp2359:
	.loc	41 605 34 is_stmt 1
	testw	%r10w, %r10w
	jns	LBB80_8
	jmp	LBB80_11
Ltmp2360:
LBB80_2:
	.loc	42 51 17
	movzbl	%r9b, %ecx
Ltmp2361:
	.loc	41 626 13
	movzbl	(%rsi), %edx
	cmpq	$8, %rdx
	jbe	LBB80_9
	jmp	LBB80_12
Ltmp2362:
LBB80_6:
	.loc	42 51 17
	movl	%r11d, %ecx
Ltmp2363:
	.loc	41 626 13
	movzbl	(%rsi), %edx
	cmpq	$8, %rdx
	jbe	LBB80_9
	jmp	LBB80_12
Ltmp2364:
LBB80_4:
	.loc	42 51 17
	movzwl	%r10w, %ecx
Ltmp2365:
	.loc	41 626 13
	movzbl	(%rsi), %edx
	cmpq	$8, %rdx
	jbe	LBB80_9
	jmp	LBB80_12
Ltmp2366:
LBB80_5:
	.loc	41 0 0 is_stmt 0
	movq	%r11, %rcx
Ltmp2367:
	.loc	41 607 34 is_stmt 1
	testl	%r11d, %r11d
	js	LBB80_11
Ltmp2368:
LBB80_8:
	.loc	41 626 13
	movzbl	(%rsi), %edx
	cmpq	$8, %rdx
	ja	LBB80_12
Ltmp2369:
LBB80_9:
	.loc	41 0 13 is_stmt 0
	leaq	LJTI80_1(%rip), %rdi
	movslq	(%rdi,%rdx,4), %rdx
	addq	%rdi, %rdx
	jmpq	*%rdx
Ltmp2370:
LBB80_13:
	.loc	41 626 28
	movq	8(%rsi), %r9
Ltmp2371:
	.loc	21 2616 17 is_stmt 1
	testq	%r8, %r8
	je	LBB80_14
Ltmp2372:
	bsrq	%r8, %rdx
	xorq	$63, %rdx
	movl	$64, %esi
Ltmp2373:
	.loc	41 21 5
	subl	%edx, %esi
	jae	LBB80_17
	jmp	LBB80_50
Ltmp2374:
LBB80_7:
	.loc	41 609 34
	testq	%rcx, %rcx
	jns	LBB80_8
Ltmp2375:
LBB80_11:
	.loc	17 1558 9
	movq	$45, 8(%rax)
	movl	$1, %ecx
Ltmp2376:
	.loc	41 0 0 is_stmt 0
	movq	%rcx, (%rax)
	.loc	41 642 6 is_stmt 1
	popq	%rbp
	retq
Ltmp2377:
LBB80_31:
	.loc	41 0 6 is_stmt 0
	movb	$4, %r8b
Ltmp2378:
	cmpq	$15, %rcx
	jbe	LBB80_32
Ltmp2379:
LBB80_29:
	xorl	%edx, %edx
	jmp	LBB80_46
Ltmp2380:
LBB80_25:
	movb	$2, %r8b
Ltmp2381:
	cmpq	$7, %rcx
	jbe	LBB80_26
Ltmp2382:
LBB80_23:
	xorl	%esi, %esi
Ltmp2383:
	jmp	LBB80_47
Ltmp2384:
LBB80_27:
	movb	$3, %r8b
Ltmp2385:
	cmpq	$15, %rcx
	ja	LBB80_29
Ltmp2386:
LBB80_32:
	movzwl	2(%rsi), %edx
	andb	$15, %cl
Ltmp2387:
	shll	%cl, %edx
	jmp	LBB80_46
Ltmp2388:
LBB80_39:
	movb	$7, %r8b
Ltmp2389:
	cmpq	$63, %rcx
	jbe	LBB80_43
Ltmp2390:
LBB80_41:
	xorl	%r9d, %r9d
	jmp	LBB80_44
Ltmp2391:
LBB80_21:
	movb	$1, %r8b
Ltmp2392:
	cmpq	$7, %rcx
	ja	LBB80_23
Ltmp2393:
LBB80_26:
	movb	1(%rsi), %sil
Ltmp2394:
	andb	$7, %cl
Ltmp2395:
	shlb	%cl, %sil
Ltmp2396:
	jmp	LBB80_47
LBB80_33:
Ltmp2397:
	movb	$5, %r8b
Ltmp2398:
	cmpq	$31, %rcx
	jbe	LBB80_38
Ltmp2399:
LBB80_35:
	xorl	%edi, %edi
	jmp	LBB80_45
Ltmp2400:
LBB80_37:
	movb	$6, %r8b
Ltmp2401:
	cmpq	$31, %rcx
	ja	LBB80_35
Ltmp2402:
LBB80_38:
	movl	4(%rsi), %edi
Ltmp2403:
	shll	%cl, %edi
Ltmp2404:
	jmp	LBB80_45
Ltmp2405:
LBB80_42:
	movb	$8, %r8b
Ltmp2406:
	cmpq	$63, %rcx
	ja	LBB80_41
Ltmp2407:
LBB80_43:
	movq	8(%rsi), %r9
Ltmp2408:
	shlq	%cl, %r9
Ltmp2409:
	jmp	LBB80_44
Ltmp2410:
LBB80_12:
	.loc	41 639 25 is_stmt 1
	movb	$43, 8(%rax)
	movl	$1, %ecx
Ltmp2411:
	.loc	41 0 0 is_stmt 0
	movq	%rcx, (%rax)
	.loc	41 642 6 is_stmt 1
	popq	%rbp
	retq
Ltmp2412:
LBB80_14:
	.loc	41 0 6 is_stmt 0
	movl	$64, %edx
	movl	$64, %esi
Ltmp2413:
	.loc	41 21 5 is_stmt 1
	subl	%edx, %esi
	jb	LBB80_50
Ltmp2414:
LBB80_17:
	.loc	42 51 17
	movl	%esi, %edx
Ltmp2415:
	.loc	41 626 53
	cmpq	%rdx, %rcx
	.loc	41 626 50 is_stmt 0
	jae	LBB80_18
Ltmp2416:
	.loc	41 629 17 is_stmt 1
	cmpq	$63, %rcx
	ja	LBB80_49
Ltmp2417:
	andq	%r8, %r9
Ltmp2418:
	shlq	%cl, %r9
	xorl	%r8d, %r8d
Ltmp2419:
LBB80_44:
LBB80_45:
LBB80_46:
LBB80_47:
	.loc	41 641 9
	movb	%r8b, 8(%rax)
	movb	%sil, 9(%rax)
	movw	%dx, 10(%rax)
	movl	%edi, 12(%rax)
	movq	%r9, 16(%rax)
	xorl	%ecx, %ecx
Ltmp2420:
	.loc	41 0 0 is_stmt 0
	movq	%rcx, (%rax)
	.loc	41 642 6 is_stmt 1
	popq	%rbp
	retq
Ltmp2421:
LBB80_18:
	.loc	41 0 6 is_stmt 0
	xorl	%r9d, %r9d
Ltmp2422:
	xorl	%r8d, %r8d
Ltmp2423:
	jmp	LBB80_47
Ltmp2424:
LBB80_50:
	.loc	41 21 5 is_stmt 1
	leaq	_str.5(%rip), %rdi
	leaq	l___unnamed_115(%rip), %rdx
	movl	$33, %esi
	callq	__ZN4core9panicking5panic17h736ee47a631475c0E
Ltmp2425:
LBB80_49:
	.loc	41 629 17
	leaq	_str.7(%rip), %rdi
	leaq	l___unnamed_120(%rip), %rdx
	movl	$35, %esi
	callq	__ZN4core9panicking5panic17h736ee47a631475c0E
Ltmp2426:
Lfunc_end80:
	.cfi_endproc
	.p2align	2, 0x90
	.data_region jt32
.set L80_0_set_8, LBB80_8-LJTI80_0
.set L80_0_set_10, LBB80_10-LJTI80_0
.set L80_0_set_2, LBB80_2-LJTI80_0
.set L80_0_set_3, LBB80_3-LJTI80_0
.set L80_0_set_4, LBB80_4-LJTI80_0
.set L80_0_set_5, LBB80_5-LJTI80_0
.set L80_0_set_6, LBB80_6-LJTI80_0
.set L80_0_set_7, LBB80_7-LJTI80_0
LJTI80_0:
	.long	L80_0_set_8
	.long	L80_0_set_10
	.long	L80_0_set_2
	.long	L80_0_set_3
	.long	L80_0_set_4
	.long	L80_0_set_5
	.long	L80_0_set_6
	.long	L80_0_set_7
	.long	L80_0_set_8
.set L80_1_set_13, LBB80_13-LJTI80_1
.set L80_1_set_21, LBB80_21-LJTI80_1
.set L80_1_set_25, LBB80_25-LJTI80_1
.set L80_1_set_27, LBB80_27-LJTI80_1
.set L80_1_set_31, LBB80_31-LJTI80_1
.set L80_1_set_33, LBB80_33-LJTI80_1
.set L80_1_set_37, LBB80_37-LJTI80_1
.set L80_1_set_39, LBB80_39-LJTI80_1
.set L80_1_set_42, LBB80_42-LJTI80_1
LJTI80_1:
	.long	L80_1_set_13
	.long	L80_1_set_21
	.long	L80_1_set_25
	.long	L80_1_set_27
	.long	L80_1_set_31
	.long	L80_1_set_33
	.long	L80_1_set_37
	.long	L80_1_set_39
	.long	L80_1_set_42
	.end_data_region

	.globl	__ZN5gimli4read5value5Value3shr17hc3092eb9dacdaa2eE
	.p2align	4, 0x90
__ZN5gimli4read5value5Value3shr17hc3092eb9dacdaa2eE:
Lfunc_begin81:
	.loc	41 654 0
	.cfi_startproc
	pushq	%rbp
	.cfi_def_cfa_offset 16
	.cfi_offset %rbp, -16
	movq	%rsp, %rbp
	.cfi_def_cfa_register %rbp
	movq	%rdi, %rax
Ltmp2427:
	.loc	41 655 18 prologue_end
	movzbl	(%rdx), %edi
	cmpq	$8, %rdi
Ltmp2428:
	.loc	41 602 13
	ja	LBB81_11
Ltmp2429:
	.loc	41 0 13 is_stmt 0
	movq	%rcx, %r8
Ltmp2430:
	movsbq	1(%rdx), %r9
	movswq	2(%rdx), %r10
	movslq	4(%rdx), %r11
	movq	8(%rdx), %rcx
Ltmp2431:
	leaq	LJTI81_0(%rip), %rdx
Ltmp2432:
	movslq	(%rdx,%rdi,4), %rdi
	addq	%rdx, %rdi
	jmpq	*%rdi
Ltmp2433:
LBB81_10:
	movq	%r9, %rcx
Ltmp2434:
	.loc	41 603 33 is_stmt 1
	testb	%r9b, %r9b
	jns	LBB81_8
	jmp	LBB81_11
Ltmp2435:
LBB81_3:
	.loc	41 0 0 is_stmt 0
	movq	%r10, %rcx
Ltmp2436:
	.loc	41 605 34 is_stmt 1
	testw	%r10w, %r10w
	jns	LBB81_8
	jmp	LBB81_11
Ltmp2437:
LBB81_2:
	.loc	42 51 17
	movzbl	%r9b, %ecx
Ltmp2438:
	.loc	41 657 13
	movzbl	(%rsi), %edx
	cmpq	$8, %rdx
	jbe	LBB81_9
	jmp	LBB81_12
Ltmp2439:
LBB81_6:
	.loc	42 51 17
	movl	%r11d, %ecx
Ltmp2440:
	.loc	41 657 13
	movzbl	(%rsi), %edx
	cmpq	$8, %rdx
	jbe	LBB81_9
	jmp	LBB81_12
Ltmp2441:
LBB81_4:
	.loc	42 51 17
	movzwl	%r10w, %ecx
Ltmp2442:
	.loc	41 657 13
	movzbl	(%rsi), %edx
	cmpq	$8, %rdx
	jbe	LBB81_9
	jmp	LBB81_12
Ltmp2443:
LBB81_5:
	.loc	41 0 0 is_stmt 0
	movq	%r11, %rcx
Ltmp2444:
	.loc	41 607 34 is_stmt 1
	testl	%r11d, %r11d
	js	LBB81_11
Ltmp2445:
LBB81_8:
	.loc	41 657 13
	movzbl	(%rsi), %edx
	cmpq	$8, %rdx
	ja	LBB81_12
Ltmp2446:
LBB81_9:
	.loc	41 0 13 is_stmt 0
	leaq	LJTI81_1(%rip), %rdi
	movslq	(%rdi,%rdx,4), %rdx
	addq	%rdi, %rdx
	jmpq	*%rdx
Ltmp2447:
LBB81_39:
	.loc	41 669 24 is_stmt 1
	movb	$44, 8(%rax)
	movl	$1, %ecx
Ltmp2448:
	.loc	41 0 0 is_stmt 0
	movq	%rcx, (%rax)
	.loc	41 674 6 is_stmt 1
	popq	%rbp
	retq
Ltmp2449:
LBB81_7:
	.loc	41 609 34
	testq	%rcx, %rcx
	jns	LBB81_8
Ltmp2450:
LBB81_11:
	.loc	17 1558 9
	movq	$45, 8(%rax)
	movl	$1, %ecx
Ltmp2451:
	.loc	41 0 0 is_stmt 0
	movq	%rcx, (%rax)
	.loc	41 674 6 is_stmt 1
	popq	%rbp
	retq
Ltmp2452:
LBB81_30:
	.loc	41 0 6 is_stmt 0
	movb	$6, %r8b
Ltmp2453:
	.loc	41 664 45 is_stmt 1
	cmpq	$31, %rcx
	.loc	41 664 42 is_stmt 0
	jbe	LBB81_34
Ltmp2454:
	.loc	41 0 42
	xorl	%esi, %esi
Ltmp2455:
	jmp	LBB81_19
Ltmp2456:
LBB81_22:
	movb	$2, %r8b
Ltmp2457:
	.loc	41 662 43 is_stmt 1
	cmpq	$7, %rcx
	.loc	41 662 40 is_stmt 0
	jbe	LBB81_25
Ltmp2458:
	.loc	41 0 40
	xorl	%edx, %edx
Ltmp2459:
	jmp	LBB81_19
Ltmp2460:
LBB81_26:
	movb	$4, %r8b
Ltmp2461:
	.loc	41 663 45 is_stmt 1
	cmpq	$15, %rcx
	.loc	41 663 42 is_stmt 0
	jbe	LBB81_29
Ltmp2462:
	.loc	41 0 42
	xorl	%edi, %edi
Ltmp2463:
	jmp	LBB81_19
Ltmp2464:
LBB81_13:
	.loc	41 657 28 is_stmt 1
	movq	8(%rsi), %r9
Ltmp2465:
	.loc	21 2616 17
	testq	%r8, %r8
	je	LBB81_14
Ltmp2466:
	bsrq	%r8, %rdx
	xorq	$63, %rdx
	movl	$64, %esi
Ltmp2467:
	.loc	41 21 5
	subl	%edx, %esi
	jae	LBB81_17
	jmp	LBB81_43
Ltmp2468:
LBB81_35:
	.loc	41 0 5 is_stmt 0
	movb	$8, %r8b
Ltmp2469:
	.loc	41 665 45 is_stmt 1
	cmpq	$63, %rcx
	.loc	41 665 42 is_stmt 0
	jbe	LBB81_38
Ltmp2470:
	.loc	41 0 42
	xorl	%r9d, %r9d
Ltmp2471:
	jmp	LBB81_19
Ltmp2472:
LBB81_12:
	.loc	41 671 25 is_stmt 1
	movb	$43, 8(%rax)
	movl	$1, %ecx
Ltmp2473:
	.loc	41 0 0 is_stmt 0
	movq	%rcx, (%rax)
	.loc	41 674 6 is_stmt 1
	popq	%rbp
	retq
Ltmp2474:
LBB81_34:
	.loc	41 664 24
	movl	4(%rsi), %esi
Ltmp2475:
	.loc	41 664 67 is_stmt 0
	shrl	%cl, %esi
Ltmp2476:
	.loc	41 0 67
	jmp	LBB81_19
Ltmp2477:
LBB81_25:
	.loc	41 662 23 is_stmt 1
	movb	1(%rsi), %dl
Ltmp2478:
	.loc	41 662 64 is_stmt 0
	andb	$7, %cl
Ltmp2479:
	shrb	%cl, %dl
Ltmp2480:
	.loc	41 0 64
	jmp	LBB81_19
Ltmp2481:
LBB81_29:
	.loc	41 663 24 is_stmt 1
	movzwl	2(%rsi), %edi
Ltmp2482:
	.loc	41 663 67 is_stmt 0
	andb	$15, %cl
Ltmp2483:
	shrl	%cl, %edi
Ltmp2484:
	.loc	41 0 67
	jmp	LBB81_19
Ltmp2485:
LBB81_38:
	.loc	41 665 24 is_stmt 1
	movq	8(%rsi), %r9
Ltmp2486:
	.loc	41 665 67 is_stmt 0
	shrq	%cl, %r9
Ltmp2487:
	.loc	41 0 67
	jmp	LBB81_19
Ltmp2488:
LBB81_14:
	movl	$64, %edx
	movl	$64, %esi
Ltmp2489:
	.loc	41 21 5 is_stmt 1
	subl	%edx, %esi
	jb	LBB81_43
Ltmp2490:
LBB81_17:
	.loc	42 51 17
	movl	%esi, %edx
Ltmp2491:
	.loc	41 657 53
	cmpq	%rdx, %rcx
	.loc	41 657 50 is_stmt 0
	jae	LBB81_18
Ltmp2492:
	.loc	41 660 17 is_stmt 1
	cmpq	$63, %rcx
	ja	LBB81_42
Ltmp2493:
	andq	%r8, %r9
Ltmp2494:
	shrq	%cl, %r9
	xorl	%r8d, %r8d
Ltmp2495:
	.loc	41 0 17 is_stmt 0
	jmp	LBB81_19
Ltmp2496:
LBB81_18:
	xorl	%r9d, %r9d
Ltmp2497:
	xorl	%r8d, %r8d
Ltmp2498:
LBB81_19:
	.loc	41 673 9 is_stmt 1
	movb	%r8b, 8(%rax)
	movb	%dl, 9(%rax)
	movw	%di, 10(%rax)
	movl	%esi, 12(%rax)
	movq	%r9, 16(%rax)
	xorl	%ecx, %ecx
Ltmp2499:
	.loc	41 0 0 is_stmt 0
	movq	%rcx, (%rax)
	.loc	41 674 6 is_stmt 1
	popq	%rbp
	retq
Ltmp2500:
LBB81_43:
	.loc	41 21 5
	leaq	_str.5(%rip), %rdi
	leaq	l___unnamed_115(%rip), %rdx
	movl	$33, %esi
	callq	__ZN4core9panicking5panic17h736ee47a631475c0E
Ltmp2501:
LBB81_42:
	.loc	41 660 17
	leaq	_str.8(%rip), %rdi
	leaq	l___unnamed_121(%rip), %rdx
	movl	$36, %esi
	callq	__ZN4core9panicking5panic17h736ee47a631475c0E
Ltmp2502:
Lfunc_end81:
	.cfi_endproc
	.p2align	2, 0x90
	.data_region jt32
.set L81_0_set_8, LBB81_8-LJTI81_0
.set L81_0_set_10, LBB81_10-LJTI81_0
.set L81_0_set_2, LBB81_2-LJTI81_0
.set L81_0_set_3, LBB81_3-LJTI81_0
.set L81_0_set_4, LBB81_4-LJTI81_0
.set L81_0_set_5, LBB81_5-LJTI81_0
.set L81_0_set_6, LBB81_6-LJTI81_0
.set L81_0_set_7, LBB81_7-LJTI81_0
LJTI81_0:
	.long	L81_0_set_8
	.long	L81_0_set_10
	.long	L81_0_set_2
	.long	L81_0_set_3
	.long	L81_0_set_4
	.long	L81_0_set_5
	.long	L81_0_set_6
	.long	L81_0_set_7
	.long	L81_0_set_8
.set L81_1_set_13, LBB81_13-LJTI81_1
.set L81_1_set_39, LBB81_39-LJTI81_1
.set L81_1_set_22, LBB81_22-LJTI81_1
.set L81_1_set_26, LBB81_26-LJTI81_1
.set L81_1_set_30, LBB81_30-LJTI81_1
.set L81_1_set_35, LBB81_35-LJTI81_1
LJTI81_1:
	.long	L81_1_set_13
	.long	L81_1_set_39
	.long	L81_1_set_22
	.long	L81_1_set_39
	.long	L81_1_set_26
	.long	L81_1_set_39
	.long	L81_1_set_30
	.long	L81_1_set_39
	.long	L81_1_set_35
	.end_data_region

	.globl	__ZN5gimli4read5value5Value4shra17h7e9d41f42443e00aE
	.p2align	4, 0x90
__ZN5gimli4read5value5Value4shra17h7e9d41f42443e00aE:
Lfunc_begin82:
	.loc	41 687 0
	.cfi_startproc
	pushq	%rbp
	.cfi_def_cfa_offset 16
	.cfi_offset %rbp, -16
	movq	%rsp, %rbp
	.cfi_def_cfa_register %rbp
	movq	%rdi, %rax
Ltmp2503:
	.loc	41 688 18 prologue_end
	movzbl	(%rdx), %edi
	cmpq	$8, %rdi
Ltmp2504:
	.loc	41 602 13
	ja	LBB82_12
Ltmp2505:
	.loc	41 0 13 is_stmt 0
	movq	%rcx, %r8
Ltmp2506:
	movsbq	1(%rdx), %r9
	movswq	2(%rdx), %r10
	movslq	4(%rdx), %r11
	movq	8(%rdx), %rcx
Ltmp2507:
	leaq	LJTI82_0(%rip), %rdx
Ltmp2508:
	movslq	(%rdx,%rdi,4), %rdi
	addq	%rdx, %rdi
	jmpq	*%rdi
Ltmp2509:
LBB82_2:
	movq	%r9, %rcx
Ltmp2510:
	.loc	41 603 33 is_stmt 1
	testb	%r9b, %r9b
	jns	LBB82_8
Ltmp2511:
LBB82_12:
	.loc	17 1558 9
	movq	$45, 8(%rax)
	movl	$1, %ecx
Ltmp2512:
	.loc	41 0 0 is_stmt 0
	movq	%rcx, (%rax)
	.loc	41 747 6 is_stmt 1
	popq	%rbp
	retq
Ltmp2513:
LBB82_3:
	.loc	41 0 0 is_stmt 0
	movq	%r10, %rcx
Ltmp2514:
	.loc	41 605 34 is_stmt 1
	testw	%r10w, %r10w
	js	LBB82_12
Ltmp2515:
LBB82_8:
	.loc	41 690 13
	movzbl	(%rsi), %edx
	cmpq	$8, %rdx
	ja	LBB82_19
Ltmp2516:
LBB82_9:
	.loc	41 0 13 is_stmt 0
	leaq	LJTI82_1(%rip), %rdi
	movslq	(%rdi,%rdx,4), %rdx
	addq	%rdi, %rdx
	jmpq	*%rdx
Ltmp2517:
LBB82_10:
	.loc	41 742 24 is_stmt 1
	movb	$44, 8(%rax)
	movl	$1, %ecx
Ltmp2518:
	.loc	41 0 0 is_stmt 0
	movq	%rcx, (%rax)
	.loc	41 747 6 is_stmt 1
	popq	%rbp
	retq
Ltmp2519:
LBB82_4:
	.loc	42 51 17
	movzbl	%r9b, %ecx
Ltmp2520:
	.loc	41 690 13
	movzbl	(%rsi), %edx
	cmpq	$8, %rdx
	jbe	LBB82_9
Ltmp2521:
LBB82_19:
	.loc	41 744 25
	movb	$43, 8(%rax)
	movl	$1, %ecx
Ltmp2522:
	.loc	41 0 0 is_stmt 0
	movq	%rcx, (%rax)
	.loc	41 747 6 is_stmt 1
	popq	%rbp
	retq
Ltmp2523:
LBB82_5:
	.loc	42 51 17
	movl	%r11d, %ecx
Ltmp2524:
	.loc	41 690 13
	movzbl	(%rsi), %edx
	cmpq	$8, %rdx
	jbe	LBB82_9
	jmp	LBB82_19
Ltmp2525:
LBB82_6:
	.loc	42 51 17
	movzwl	%r10w, %ecx
Ltmp2526:
	.loc	41 690 13
	movzbl	(%rsi), %edx
	cmpq	$8, %rdx
	jbe	LBB82_9
	jmp	LBB82_19
Ltmp2527:
LBB82_7:
	.loc	41 0 0 is_stmt 0
	movq	%r11, %rcx
Ltmp2528:
	.loc	41 607 34 is_stmt 1
	testl	%r11d, %r11d
	jns	LBB82_8
	jmp	LBB82_12
Ltmp2529:
LBB82_11:
	.loc	41 609 34
	testq	%rcx, %rcx
	jns	LBB82_8
	jmp	LBB82_12
Ltmp2530:
LBB82_13:
	.loc	41 721 24
	movl	4(%rsi), %r9d
Ltmp2531:
	.loc	41 721 42 is_stmt 0
	movl	%ecx, %edx
	andb	$31, %dl
	.loc	41 721 45
	cmpq	$31, %rcx
	.loc	41 721 42
	movzbl	%dl, %edx
	movl	$31, %ecx
Ltmp2532:
	cmovbel	%edx, %ecx
	sarl	%cl, %r9d
Ltmp2533:
	.loc	41 0 42
	movb	$5, %cl
	jmp	LBB82_27
Ltmp2534:
LBB82_14:
	movq	8(%rsi), %rdi
Ltmp2535:
	.loc	41 14 17 is_stmt 1
	andq	%r8, %rdi
Ltmp2536:
	.loc	21 2616 17
	testq	%r8, %r8
	je	LBB82_20
Ltmp2537:
	bsrq	%r8, %rdx
	xorq	$63, %rdx
	movl	$64, %esi
Ltmp2538:
	.loc	41 21 5
	subl	%edx, %esi
	jb	LBB82_30
Ltmp2539:
LBB82_21:
	.loc	41 0 0 is_stmt 0
	shrq	%r8
Ltmp2540:
	incq	%r8
Ltmp2541:
	xorq	%r8, %rdi
Ltmp2542:
	subq	%r8, %rdi
Ltmp2543:
	.loc	42 51 17 is_stmt 1
	movl	%esi, %esi
Ltmp2544:
	.loc	41 692 32
	cmpq	%rsi, %rcx
	.loc	41 692 29 is_stmt 0
	jae	LBB82_24
Ltmp2545:
	.loc	41 699 21 is_stmt 1
	cmpq	$63, %rcx
	ja	LBB82_31
Ltmp2546:
	sarq	%cl, %rdi
Ltmp2547:
	.loc	41 0 21 is_stmt 0
	jmp	LBB82_25
Ltmp2548:
LBB82_16:
	.loc	41 703 23 is_stmt 1
	movb	1(%rsi), %r8b
Ltmp2549:
	.loc	41 703 40 is_stmt 0
	movl	%ecx, %edx
	andb	$7, %dl
	.loc	41 703 43
	cmpq	$7, %rcx
	.loc	41 703 40
	movzbl	%dl, %edx
	movl	$7, %ecx
Ltmp2550:
	cmovbel	%edx, %ecx
	sarb	%cl, %r8b
Ltmp2551:
	.loc	41 0 40
	movb	$1, %cl
Ltmp2552:
	jmp	LBB82_29
Ltmp2553:
LBB82_17:
	.loc	41 712 24 is_stmt 1
	movswl	2(%rsi), %esi
Ltmp2554:
	.loc	41 712 42 is_stmt 0
	movl	%ecx, %edx
	andb	$15, %dl
Ltmp2555:
	.loc	41 712 45
	cmpq	$15, %rcx
	.loc	41 712 42
	movzbl	%dl, %edx
	movl	$15, %ecx
Ltmp2556:
	cmovbel	%edx, %ecx
	sarl	%cl, %esi
	movb	$3, %cl
	jmp	LBB82_28
Ltmp2557:
LBB82_18:
	.loc	41 730 24 is_stmt 1
	movq	8(%rsi), %rdi
Ltmp2558:
	.loc	41 730 42 is_stmt 0
	movl	%ecx, %edx
	andb	$63, %dl
	.loc	41 730 45
	cmpq	$63, %rcx
	.loc	41 730 42
	movzbl	%dl, %edx
	movl	$63, %ecx
Ltmp2559:
	cmovbel	%edx, %ecx
	sarq	%cl, %rdi
Ltmp2560:
	.loc	41 0 42
	movb	$7, %cl
	jmp	LBB82_26
Ltmp2561:
LBB82_24:
	.loc	41 693 21 is_stmt 1
	sarq	$63, %rdi
Ltmp2562:
LBB82_25:
	.loc	41 0 21 is_stmt 0
	xorl	%ecx, %ecx
LBB82_26:
LBB82_27:
LBB82_28:
LBB82_29:
Ltmp2563:
	.loc	41 746 9 is_stmt 1
	movb	%cl, 8(%rax)
	movb	%r8b, 9(%rax)
	movw	%si, 10(%rax)
	movl	%r9d, 12(%rax)
	movq	%rdi, 16(%rax)
	xorl	%ecx, %ecx
Ltmp2564:
	.loc	41 0 0 is_stmt 0
	movq	%rcx, (%rax)
	.loc	41 747 6 is_stmt 1
	popq	%rbp
	retq
Ltmp2565:
LBB82_20:
	.loc	41 0 6 is_stmt 0
	movl	$64, %edx
	movl	$64, %esi
Ltmp2566:
	.loc	41 21 5 is_stmt 1
	subl	%edx, %esi
	jae	LBB82_21
Ltmp2567:
LBB82_30:
	leaq	_str.5(%rip), %rdi
	leaq	l___unnamed_115(%rip), %rdx
	movl	$33, %esi
	callq	__ZN4core9panicking5panic17h736ee47a631475c0E
Ltmp2568:
LBB82_31:
	.loc	41 699 21
	leaq	_str.8(%rip), %rdi
Ltmp2569:
	leaq	l___unnamed_122(%rip), %rdx
	movl	$36, %esi
	callq	__ZN4core9panicking5panic17h736ee47a631475c0E
Ltmp2570:
Lfunc_end82:
	.cfi_endproc
	.p2align	2, 0x90
	.data_region jt32
.set L82_0_set_8, LBB82_8-LJTI82_0
.set L82_0_set_2, LBB82_2-LJTI82_0
.set L82_0_set_4, LBB82_4-LJTI82_0
.set L82_0_set_3, LBB82_3-LJTI82_0
.set L82_0_set_6, LBB82_6-LJTI82_0
.set L82_0_set_7, LBB82_7-LJTI82_0
.set L82_0_set_5, LBB82_5-LJTI82_0
.set L82_0_set_11, LBB82_11-LJTI82_0
LJTI82_0:
	.long	L82_0_set_8
	.long	L82_0_set_2
	.long	L82_0_set_4
	.long	L82_0_set_3
	.long	L82_0_set_6
	.long	L82_0_set_7
	.long	L82_0_set_5
	.long	L82_0_set_11
	.long	L82_0_set_8
.set L82_1_set_14, LBB82_14-LJTI82_1
.set L82_1_set_16, LBB82_16-LJTI82_1
.set L82_1_set_10, LBB82_10-LJTI82_1
.set L82_1_set_17, LBB82_17-LJTI82_1
.set L82_1_set_13, LBB82_13-LJTI82_1
.set L82_1_set_18, LBB82_18-LJTI82_1
LJTI82_1:
	.long	L82_1_set_14
	.long	L82_1_set_16
	.long	L82_1_set_10
	.long	L82_1_set_17
	.long	L82_1_set_10
	.long	L82_1_set_13
	.long	L82_1_set_10
	.long	L82_1_set_18
	.long	L82_1_set_10
	.end_data_region

	.globl	__ZN5gimli4read5value5Value2eq17h2ed2779a7a2a23beE
	.p2align	4, 0x90
__ZN5gimli4read5value5Value2eq17h2ed2779a7a2a23beE:
Lfunc_begin83:
	.loc	41 755 0
	.cfi_startproc
	pushq	%rbp
	.cfi_def_cfa_offset 16
	.cfi_offset %rbp, -16
	movq	%rsp, %rbp
	.cfi_def_cfa_register %rbp
	pushq	%r15
	pushq	%r14
	pushq	%r12
	pushq	%rbx
	.cfi_offset %rbx, -48
	.cfi_offset %r12, -40
	.cfi_offset %r14, -32
	.cfi_offset %r15, -24
	movq	%rdi, %rax
Ltmp2571:
	.loc	41 756 28 prologue_end
	movzbl	(%rsi), %ebx
	cmpq	$10, %rbx
	.loc	41 757 14
	ja	LBB83_3
Ltmp2572:
	.loc	41 0 14 is_stmt 0
	movb	1(%rsi), %r8b
Ltmp2573:
	movzwl	2(%rsi), %r14d
Ltmp2574:
	movl	4(%rsi), %r10d
Ltmp2575:
	movq	8(%rsi), %r9
Ltmp2576:
	movb	(%rdx), %r11b
	movb	1(%rdx), %r15b
Ltmp2577:
	movzwl	2(%rdx), %edi
Ltmp2578:
	movl	4(%rdx), %esi
Ltmp2579:
	movq	8(%rdx), %r12
Ltmp2580:
	leaq	LJTI83_0(%rip), %rdx
Ltmp2581:
	movslq	(%rdx,%rbx,4), %rbx
	addq	%rdx, %rbx
	jmpq	*%rbx
Ltmp2582:
LBB83_2:
	.loc	41 757 34
	testb	%r11b, %r11b
	jne	LBB83_3
Ltmp2583:
	.loc	41 758 17 is_stmt 1
	xorq	%r9, %r12
	testq	%rcx, %r12
	sete	%cl
Ltmp2584:
	.loc	41 0 17 is_stmt 0
	jmp	LBB83_22
Ltmp2585:
LBB83_9:
	.loc	41 760 29 is_stmt 1
	cmpb	$1, %r11b
	je	LBB83_10
	jmp	LBB83_3
Ltmp2586:
LBB83_4:
	.loc	41 761 29
	cmpb	$2, %r11b
	jne	LBB83_3
Ltmp2587:
LBB83_10:
	.loc	41 0 0 is_stmt 0
	cmpb	%r15b, %r8b
	sete	%cl
Ltmp2588:
	jmp	LBB83_22
Ltmp2589:
LBB83_11:
	.loc	41 762 30 is_stmt 1
	cmpb	$3, %r11b
	je	LBB83_12
	jmp	LBB83_3
Ltmp2590:
LBB83_5:
	.loc	41 763 30
	cmpb	$4, %r11b
	jne	LBB83_3
Ltmp2591:
LBB83_12:
	.loc	41 0 0 is_stmt 0
	cmpw	%di, %r14w
	sete	%cl
Ltmp2592:
	jmp	LBB83_22
Ltmp2593:
LBB83_13:
	.loc	41 764 30 is_stmt 1
	cmpb	$5, %r11b
	je	LBB83_14
	jmp	LBB83_3
Ltmp2594:
LBB83_6:
	.loc	41 765 30
	cmpb	$6, %r11b
	jne	LBB83_3
Ltmp2595:
LBB83_14:
	.loc	41 0 0 is_stmt 0
	cmpl	%esi, %r10d
	sete	%cl
Ltmp2596:
	jmp	LBB83_22
Ltmp2597:
LBB83_15:
	.loc	41 766 30 is_stmt 1
	cmpb	$7, %r11b
	je	LBB83_16
	jmp	LBB83_3
Ltmp2598:
LBB83_7:
	.loc	41 767 30
	cmpb	$8, %r11b
	jne	LBB83_3
Ltmp2599:
LBB83_16:
	.loc	41 0 0 is_stmt 0
	cmpq	%r12, %r9
	sete	%cl
Ltmp2600:
	jmp	LBB83_22
Ltmp2601:
LBB83_17:
	.loc	41 768 30 is_stmt 1
	cmpb	$9, %r11b
	jne	LBB83_3
Ltmp2602:
	.loc	41 768 25 is_stmt 0
	movd	%r10d, %xmm0
Ltmp2603:
	.loc	41 768 41
	movd	%esi, %xmm1
Ltmp2604:
	.loc	41 768 49
	cmpeqss	%xmm0, %xmm1
Ltmp2605:
	movd	%xmm1, %ecx
Ltmp2606:
	.loc	41 0 49
	jmp	LBB83_21
Ltmp2607:
LBB83_19:
	.loc	41 769 30 is_stmt 1
	cmpb	$10, %r11b
	jne	LBB83_3
Ltmp2608:
	.loc	41 769 25 is_stmt 0
	movq	%r9, %xmm0
Ltmp2609:
	.loc	41 769 41
	movq	%r12, %xmm1
Ltmp2610:
	.loc	41 769 49
	cmpeqsd	%xmm0, %xmm1
Ltmp2611:
	movq	%xmm1, %rcx
Ltmp2612:
LBB83_21:
	.loc	41 0 0
	andl	$1, %ecx
Ltmp2613:
LBB83_22:
	.loc	41 772 27 is_stmt 1
	movzbl	%cl, %ecx
Ltmp2614:
	.loc	41 772 9 is_stmt 0
	movb	$0, 8(%rax)
	movq	%rcx, 16(%rax)
	xorl	%ecx, %ecx
	jmp	LBB83_23
Ltmp2615:
LBB83_3:
	.loc	41 770 25 is_stmt 1
	movb	$42, 8(%rax)
	movl	$1, %ecx
Ltmp2616:
LBB83_23:
	.loc	41 0 0 is_stmt 0
	movq	%rcx, (%rax)
	.loc	41 773 6 is_stmt 1
	popq	%rbx
	popq	%r12
	popq	%r14
	popq	%r15
	popq	%rbp
	retq
Ltmp2617:
Lfunc_end83:
	.cfi_endproc
	.p2align	2, 0x90
	.data_region jt32
.set L83_0_set_2, LBB83_2-LJTI83_0
.set L83_0_set_9, LBB83_9-LJTI83_0
.set L83_0_set_4, LBB83_4-LJTI83_0
.set L83_0_set_11, LBB83_11-LJTI83_0
.set L83_0_set_5, LBB83_5-LJTI83_0
.set L83_0_set_13, LBB83_13-LJTI83_0
.set L83_0_set_6, LBB83_6-LJTI83_0
.set L83_0_set_15, LBB83_15-LJTI83_0
.set L83_0_set_7, LBB83_7-LJTI83_0
.set L83_0_set_17, LBB83_17-LJTI83_0
.set L83_0_set_19, LBB83_19-LJTI83_0
LJTI83_0:
	.long	L83_0_set_2
	.long	L83_0_set_9
	.long	L83_0_set_4
	.long	L83_0_set_11
	.long	L83_0_set_5
	.long	L83_0_set_13
	.long	L83_0_set_6
	.long	L83_0_set_15
	.long	L83_0_set_7
	.long	L83_0_set_17
	.long	L83_0_set_19
	.end_data_region

	.globl	__ZN5gimli4read5value5Value2ge17h0b31bc9e28a9c701E
	.p2align	4, 0x90
__ZN5gimli4read5value5Value2ge17h0b31bc9e28a9c701E:
Lfunc_begin84:
	.loc	41 781 0
	.cfi_startproc
	pushq	%rbp
	.cfi_def_cfa_offset 16
	.cfi_offset %rbp, -16
	movq	%rsp, %rbp
	.cfi_def_cfa_register %rbp
	pushq	%r15
	pushq	%r14
	pushq	%r12
	pushq	%rbx
	.cfi_offset %rbx, -48
	.cfi_offset %r12, -40
	.cfi_offset %r14, -32
	.cfi_offset %r15, -24
	movq	%rdi, %rax
Ltmp2618:
	.loc	41 782 28 prologue_end
	movzbl	(%rsi), %ebx
	cmpq	$10, %rbx
	.loc	41 783 14
	ja	LBB84_3
Ltmp2619:
	.loc	41 0 14 is_stmt 0
	movb	1(%rsi), %r8b
Ltmp2620:
	movzwl	2(%rsi), %r14d
Ltmp2621:
	movl	4(%rsi), %r10d
Ltmp2622:
	movq	8(%rsi), %r9
Ltmp2623:
	movb	(%rdx), %r11b
	movb	1(%rdx), %r15b
Ltmp2624:
	movzwl	2(%rdx), %edi
Ltmp2625:
	movl	4(%rdx), %esi
Ltmp2626:
	movq	8(%rdx), %r12
Ltmp2627:
	leaq	LJTI84_0(%rip), %rdx
Ltmp2628:
	movslq	(%rdx,%rbx,4), %rbx
	addq	%rdx, %rbx
	jmpq	*%rbx
Ltmp2629:
LBB84_2:
	.loc	41 783 34
	testb	%r11b, %r11b
	jne	LBB84_3
Ltmp2630:
	.loc	41 15 17 is_stmt 1
	movq	%rcx, %rdx
	shrq	%rdx
	.loc	41 15 16 is_stmt 0
	incq	%rdx
Ltmp2631:
	.loc	41 14 17 is_stmt 1
	andq	%rcx, %r9
Ltmp2632:
	.loc	41 16 5
	xorq	%rdx, %r9
Ltmp2633:
	.loc	21 1271 17
	subq	%rdx, %r9
Ltmp2634:
	.loc	41 14 17
	andq	%rcx, %r12
Ltmp2635:
	.loc	41 16 5
	xorq	%rdx, %r12
Ltmp2636:
	.loc	21 1271 17
	subq	%rdx, %r12
Ltmp2637:
	.loc	21 0 17 is_stmt 0
	jmp	LBB84_18
Ltmp2638:
LBB84_5:
	.loc	41 786 29 is_stmt 1
	cmpb	$1, %r11b
	jne	LBB84_3
Ltmp2639:
	.loc	41 786 47 is_stmt 0
	cmpb	%r15b, %r8b
	setge	%cl
Ltmp2640:
	.loc	41 0 47
	jmp	LBB84_26
Ltmp2641:
LBB84_7:
	.loc	41 787 29 is_stmt 1
	cmpb	$2, %r11b
	jne	LBB84_3
Ltmp2642:
	.loc	41 787 47 is_stmt 0
	cmpb	%r15b, %r8b
	jmp	LBB84_25
Ltmp2643:
LBB84_9:
	.loc	41 788 30 is_stmt 1
	cmpb	$3, %r11b
	jne	LBB84_3
Ltmp2644:
	.loc	41 788 49 is_stmt 0
	cmpw	%di, %r14w
	setge	%cl
Ltmp2645:
	.loc	41 0 49
	jmp	LBB84_26
Ltmp2646:
LBB84_11:
	.loc	41 789 30 is_stmt 1
	cmpb	$4, %r11b
	jne	LBB84_3
Ltmp2647:
	.loc	41 789 49 is_stmt 0
	cmpw	%di, %r14w
	jmp	LBB84_25
Ltmp2648:
LBB84_13:
	.loc	41 790 30 is_stmt 1
	cmpb	$5, %r11b
	jne	LBB84_3
Ltmp2649:
	.loc	41 790 49 is_stmt 0
	cmpl	%esi, %r10d
	setge	%cl
Ltmp2650:
	.loc	41 0 49
	jmp	LBB84_26
Ltmp2651:
LBB84_15:
	.loc	41 791 30 is_stmt 1
	cmpb	$6, %r11b
	jne	LBB84_3
Ltmp2652:
	.loc	41 791 49 is_stmt 0
	cmpl	%esi, %r10d
	jmp	LBB84_25
Ltmp2653:
LBB84_17:
	.loc	41 792 30 is_stmt 1
	cmpb	$7, %r11b
	jne	LBB84_3
Ltmp2654:
LBB84_18:
	.loc	41 0 0 is_stmt 0
	cmpq	%r12, %r9
	setge	%cl
Ltmp2655:
	jmp	LBB84_26
Ltmp2656:
LBB84_19:
	.loc	41 793 30 is_stmt 1
	cmpb	$8, %r11b
	jne	LBB84_3
Ltmp2657:
	.loc	41 793 49 is_stmt 0
	cmpq	%r12, %r9
	jmp	LBB84_25
Ltmp2658:
LBB84_21:
	.loc	41 794 30 is_stmt 1
	cmpb	$9, %r11b
	jne	LBB84_3
Ltmp2659:
	.loc	41 794 25 is_stmt 0
	movd	%r10d, %xmm0
Ltmp2660:
	.loc	41 794 41
	movd	%esi, %xmm1
Ltmp2661:
	.loc	41 794 49
	ucomiss	%xmm1, %xmm0
	jmp	LBB84_25
Ltmp2662:
LBB84_23:
	.loc	41 795 30 is_stmt 1
	cmpb	$10, %r11b
	jne	LBB84_3
Ltmp2663:
	.loc	41 795 25 is_stmt 0
	movq	%r9, %xmm0
Ltmp2664:
	.loc	41 795 41
	movq	%r12, %xmm1
Ltmp2665:
	.loc	41 795 49
	ucomisd	%xmm1, %xmm0
Ltmp2666:
LBB84_25:
	.loc	41 0 0
	setae	%cl
Ltmp2667:
LBB84_26:
	.loc	41 798 27 is_stmt 1
	movzbl	%cl, %ecx
Ltmp2668:
	.loc	41 798 9 is_stmt 0
	movb	$0, 8(%rax)
	movq	%rcx, 16(%rax)
	xorl	%ecx, %ecx
	jmp	LBB84_27
Ltmp2669:
LBB84_3:
	.loc	41 796 25 is_stmt 1
	movb	$42, 8(%rax)
	movl	$1, %ecx
Ltmp2670:
LBB84_27:
	.loc	41 0 0 is_stmt 0
	movq	%rcx, (%rax)
	.loc	41 799 6 is_stmt 1
	popq	%rbx
	popq	%r12
	popq	%r14
	popq	%r15
	popq	%rbp
	retq
Ltmp2671:
Lfunc_end84:
	.cfi_endproc
	.p2align	2, 0x90
	.data_region jt32
.set L84_0_set_2, LBB84_2-LJTI84_0
.set L84_0_set_5, LBB84_5-LJTI84_0
.set L84_0_set_7, LBB84_7-LJTI84_0
.set L84_0_set_9, LBB84_9-LJTI84_0
.set L84_0_set_11, LBB84_11-LJTI84_0
.set L84_0_set_13, LBB84_13-LJTI84_0
.set L84_0_set_15, LBB84_15-LJTI84_0
.set L84_0_set_17, LBB84_17-LJTI84_0
.set L84_0_set_19, LBB84_19-LJTI84_0
.set L84_0_set_21, LBB84_21-LJTI84_0
.set L84_0_set_23, LBB84_23-LJTI84_0
LJTI84_0:
	.long	L84_0_set_2
	.long	L84_0_set_5
	.long	L84_0_set_7
	.long	L84_0_set_9
	.long	L84_0_set_11
	.long	L84_0_set_13
	.long	L84_0_set_15
	.long	L84_0_set_17
	.long	L84_0_set_19
	.long	L84_0_set_21
	.long	L84_0_set_23
	.end_data_region

	.globl	__ZN5gimli4read5value5Value2gt17h7664f766e3011cd1E
	.p2align	4, 0x90
__ZN5gimli4read5value5Value2gt17h7664f766e3011cd1E:
Lfunc_begin85:
	.loc	41 807 0
	.cfi_startproc
	pushq	%rbp
	.cfi_def_cfa_offset 16
	.cfi_offset %rbp, -16
	movq	%rsp, %rbp
	.cfi_def_cfa_register %rbp
	pushq	%r15
	pushq	%r14
	pushq	%r12
	pushq	%rbx
	.cfi_offset %rbx, -48
	.cfi_offset %r12, -40
	.cfi_offset %r14, -32
	.cfi_offset %r15, -24
	movq	%rdi, %rax
Ltmp2672:
	.loc	41 808 28 prologue_end
	movzbl	(%rsi), %ebx
	cmpq	$10, %rbx
	.loc	41 809 14
	ja	LBB85_3
Ltmp2673:
	.loc	41 0 14 is_stmt 0
	movb	1(%rsi), %r8b
Ltmp2674:
	movzwl	2(%rsi), %r14d
Ltmp2675:
	movl	4(%rsi), %r10d
Ltmp2676:
	movq	8(%rsi), %r9
Ltmp2677:
	movb	(%rdx), %r11b
	movb	1(%rdx), %r15b
Ltmp2678:
	movzwl	2(%rdx), %edi
Ltmp2679:
	movl	4(%rdx), %esi
Ltmp2680:
	movq	8(%rdx), %r12
Ltmp2681:
	leaq	LJTI85_0(%rip), %rdx
Ltmp2682:
	movslq	(%rdx,%rbx,4), %rbx
	addq	%rdx, %rbx
	jmpq	*%rbx
Ltmp2683:
LBB85_2:
	.loc	41 809 34
	testb	%r11b, %r11b
	jne	LBB85_3
Ltmp2684:
	.loc	41 15 17 is_stmt 1
	movq	%rcx, %rdx
	shrq	%rdx
	.loc	41 15 16 is_stmt 0
	incq	%rdx
Ltmp2685:
	.loc	41 14 17 is_stmt 1
	andq	%rcx, %r9
Ltmp2686:
	.loc	41 16 5
	xorq	%rdx, %r9
Ltmp2687:
	.loc	21 1271 17
	subq	%rdx, %r9
Ltmp2688:
	.loc	41 14 17
	andq	%rcx, %r12
Ltmp2689:
	.loc	41 16 5
	xorq	%rdx, %r12
Ltmp2690:
	.loc	21 1271 17
	subq	%rdx, %r12
Ltmp2691:
	.loc	21 0 17 is_stmt 0
	jmp	LBB85_18
Ltmp2692:
LBB85_5:
	.loc	41 812 29 is_stmt 1
	cmpb	$1, %r11b
	jne	LBB85_3
Ltmp2693:
	.loc	41 812 47 is_stmt 0
	cmpb	%r15b, %r8b
	setg	%cl
Ltmp2694:
	.loc	41 0 47
	jmp	LBB85_26
Ltmp2695:
LBB85_7:
	.loc	41 813 29 is_stmt 1
	cmpb	$2, %r11b
	jne	LBB85_3
Ltmp2696:
	.loc	41 813 47 is_stmt 0
	cmpb	%r15b, %r8b
	jmp	LBB85_25
Ltmp2697:
LBB85_9:
	.loc	41 814 30 is_stmt 1
	cmpb	$3, %r11b
	jne	LBB85_3
Ltmp2698:
	.loc	41 814 49 is_stmt 0
	cmpw	%di, %r14w
	setg	%cl
Ltmp2699:
	.loc	41 0 49
	jmp	LBB85_26
Ltmp2700:
LBB85_11:
	.loc	41 815 30 is_stmt 1
	cmpb	$4, %r11b
	jne	LBB85_3
Ltmp2701:
	.loc	41 815 49 is_stmt 0
	cmpw	%di, %r14w
	jmp	LBB85_25
Ltmp2702:
LBB85_13:
	.loc	41 816 30 is_stmt 1
	cmpb	$5, %r11b
	jne	LBB85_3
Ltmp2703:
	.loc	41 816 49 is_stmt 0
	cmpl	%esi, %r10d
	setg	%cl
Ltmp2704:
	.loc	41 0 49
	jmp	LBB85_26
Ltmp2705:
LBB85_15:
	.loc	41 817 30 is_stmt 1
	cmpb	$6, %r11b
	jne	LBB85_3
Ltmp2706:
	.loc	41 817 49 is_stmt 0
	cmpl	%esi, %r10d
	jmp	LBB85_25
Ltmp2707:
LBB85_17:
	.loc	41 818 30 is_stmt 1
	cmpb	$7, %r11b
	jne	LBB85_3
Ltmp2708:
LBB85_18:
	.loc	41 0 0 is_stmt 0
	cmpq	%r12, %r9
	setg	%cl
Ltmp2709:
	jmp	LBB85_26
Ltmp2710:
LBB85_19:
	.loc	41 819 30 is_stmt 1
	cmpb	$8, %r11b
	jne	LBB85_3
Ltmp2711:
	.loc	41 819 49 is_stmt 0
	cmpq	%r12, %r9
	jmp	LBB85_25
Ltmp2712:
LBB85_21:
	.loc	41 820 30 is_stmt 1
	cmpb	$9, %r11b
	jne	LBB85_3
Ltmp2713:
	.loc	41 820 25 is_stmt 0
	movd	%r10d, %xmm0
Ltmp2714:
	.loc	41 820 41
	movd	%esi, %xmm1
Ltmp2715:
	.loc	41 820 49
	ucomiss	%xmm1, %xmm0
	jmp	LBB85_25
Ltmp2716:
LBB85_23:
	.loc	41 821 30 is_stmt 1
	cmpb	$10, %r11b
	jne	LBB85_3
Ltmp2717:
	.loc	41 821 25 is_stmt 0
	movq	%r9, %xmm0
Ltmp2718:
	.loc	41 821 41
	movq	%r12, %xmm1
Ltmp2719:
	.loc	41 821 49
	ucomisd	%xmm1, %xmm0
Ltmp2720:
LBB85_25:
	.loc	41 0 0
	seta	%cl
Ltmp2721:
LBB85_26:
	.loc	41 824 27 is_stmt 1
	movzbl	%cl, %ecx
Ltmp2722:
	.loc	41 824 9 is_stmt 0
	movb	$0, 8(%rax)
	movq	%rcx, 16(%rax)
	xorl	%ecx, %ecx
	jmp	LBB85_27
Ltmp2723:
LBB85_3:
	.loc	41 822 25 is_stmt 1
	movb	$42, 8(%rax)
	movl	$1, %ecx
Ltmp2724:
LBB85_27:
	.loc	41 0 0 is_stmt 0
	movq	%rcx, (%rax)
	.loc	41 825 6 is_stmt 1
	popq	%rbx
	popq	%r12
	popq	%r14
	popq	%r15
	popq	%rbp
	retq
Ltmp2725:
Lfunc_end85:
	.cfi_endproc
	.p2align	2, 0x90
	.data_region jt32
.set L85_0_set_2, LBB85_2-LJTI85_0
.set L85_0_set_5, LBB85_5-LJTI85_0
.set L85_0_set_7, LBB85_7-LJTI85_0
.set L85_0_set_9, LBB85_9-LJTI85_0
.set L85_0_set_11, LBB85_11-LJTI85_0
.set L85_0_set_13, LBB85_13-LJTI85_0
.set L85_0_set_15, LBB85_15-LJTI85_0
.set L85_0_set_17, LBB85_17-LJTI85_0
.set L85_0_set_19, LBB85_19-LJTI85_0
.set L85_0_set_21, LBB85_21-LJTI85_0
.set L85_0_set_23, LBB85_23-LJTI85_0
LJTI85_0:
	.long	L85_0_set_2
	.long	L85_0_set_5
	.long	L85_0_set_7
	.long	L85_0_set_9
	.long	L85_0_set_11
	.long	L85_0_set_13
	.long	L85_0_set_15
	.long	L85_0_set_17
	.long	L85_0_set_19
	.long	L85_0_set_21
	.long	L85_0_set_23
	.end_data_region

	.globl	__ZN5gimli4read5value5Value2le17h121ea97aa2067fb1E
	.p2align	4, 0x90
__ZN5gimli4read5value5Value2le17h121ea97aa2067fb1E:
Lfunc_begin86:
	.loc	41 833 0
	.cfi_startproc
	pushq	%rbp
	.cfi_def_cfa_offset 16
	.cfi_offset %rbp, -16
	movq	%rsp, %rbp
	.cfi_def_cfa_register %rbp
	pushq	%r15
	pushq	%r14
	pushq	%r12
	pushq	%rbx
	.cfi_offset %rbx, -48
	.cfi_offset %r12, -40
	.cfi_offset %r14, -32
	.cfi_offset %r15, -24
	movq	%rdi, %rax
Ltmp2726:
	.loc	41 834 28 prologue_end
	movzbl	(%rsi), %ebx
	cmpq	$10, %rbx
	.loc	41 835 14
	ja	LBB86_3
Ltmp2727:
	.loc	41 0 14 is_stmt 0
	movb	1(%rsi), %r8b
Ltmp2728:
	movzwl	2(%rsi), %r14d
Ltmp2729:
	movl	4(%rsi), %r10d
Ltmp2730:
	movq	8(%rsi), %r9
Ltmp2731:
	movb	(%rdx), %r11b
	movb	1(%rdx), %r15b
Ltmp2732:
	movzwl	2(%rdx), %edi
Ltmp2733:
	movl	4(%rdx), %esi
Ltmp2734:
	movq	8(%rdx), %r12
Ltmp2735:
	leaq	LJTI86_0(%rip), %rdx
Ltmp2736:
	movslq	(%rdx,%rbx,4), %rbx
	addq	%rdx, %rbx
	jmpq	*%rbx
Ltmp2737:
LBB86_2:
	.loc	41 835 34
	testb	%r11b, %r11b
	jne	LBB86_3
Ltmp2738:
	.loc	41 15 17 is_stmt 1
	movq	%rcx, %rdx
	shrq	%rdx
	.loc	41 15 16 is_stmt 0
	incq	%rdx
Ltmp2739:
	.loc	41 14 17 is_stmt 1
	andq	%rcx, %r9
Ltmp2740:
	.loc	41 16 5
	xorq	%rdx, %r9
Ltmp2741:
	.loc	21 1271 17
	subq	%rdx, %r9
Ltmp2742:
	.loc	41 14 17
	andq	%rcx, %r12
Ltmp2743:
	.loc	41 16 5
	xorq	%rdx, %r12
Ltmp2744:
	.loc	21 1271 17
	subq	%rdx, %r12
Ltmp2745:
	.loc	21 0 17 is_stmt 0
	jmp	LBB86_18
Ltmp2746:
LBB86_5:
	.loc	41 838 29 is_stmt 1
	cmpb	$1, %r11b
	jne	LBB86_3
Ltmp2747:
	.loc	41 838 47 is_stmt 0
	cmpb	%r15b, %r8b
	setle	%cl
Ltmp2748:
	.loc	41 0 47
	jmp	LBB86_26
Ltmp2749:
LBB86_7:
	.loc	41 839 29 is_stmt 1
	cmpb	$2, %r11b
	jne	LBB86_3
Ltmp2750:
	.loc	41 839 47 is_stmt 0
	cmpb	%r15b, %r8b
	setbe	%cl
Ltmp2751:
	.loc	41 0 47
	jmp	LBB86_26
Ltmp2752:
LBB86_9:
	.loc	41 840 30 is_stmt 1
	cmpb	$3, %r11b
	jne	LBB86_3
Ltmp2753:
	.loc	41 840 49 is_stmt 0
	cmpw	%di, %r14w
	setle	%cl
Ltmp2754:
	.loc	41 0 49
	jmp	LBB86_26
Ltmp2755:
LBB86_11:
	.loc	41 841 30 is_stmt 1
	cmpb	$4, %r11b
	jne	LBB86_3
Ltmp2756:
	.loc	41 841 49 is_stmt 0
	cmpw	%di, %r14w
	setbe	%cl
Ltmp2757:
	.loc	41 0 49
	jmp	LBB86_26
Ltmp2758:
LBB86_13:
	.loc	41 842 30 is_stmt 1
	cmpb	$5, %r11b
	jne	LBB86_3
Ltmp2759:
	.loc	41 842 49 is_stmt 0
	cmpl	%esi, %r10d
	setle	%cl
Ltmp2760:
	.loc	41 0 49
	jmp	LBB86_26
Ltmp2761:
LBB86_15:
	.loc	41 843 30 is_stmt 1
	cmpb	$6, %r11b
	jne	LBB86_3
Ltmp2762:
	.loc	41 843 49 is_stmt 0
	cmpl	%esi, %r10d
	setbe	%cl
Ltmp2763:
	.loc	41 0 49
	jmp	LBB86_26
Ltmp2764:
LBB86_17:
	.loc	41 844 30 is_stmt 1
	cmpb	$7, %r11b
	jne	LBB86_3
Ltmp2765:
LBB86_18:
	.loc	41 0 0 is_stmt 0
	cmpq	%r12, %r9
	setle	%cl
Ltmp2766:
	jmp	LBB86_26
Ltmp2767:
LBB86_19:
	.loc	41 845 30 is_stmt 1
	cmpb	$8, %r11b
	jne	LBB86_3
Ltmp2768:
	.loc	41 845 49 is_stmt 0
	cmpq	%r12, %r9
	setbe	%cl
Ltmp2769:
	.loc	41 0 49
	jmp	LBB86_26
