	.section	__TEXT,__text,regular,pure_instructions
	.macosx_version_min 10, 7
	.p2align	4, 0x90
__ZN42_$LT$$RF$T$u20$as$u20$core..fmt..Debug$GT$3fmt17h06d2c65e60f030c0E:
Lfunc_begin0:
	.file	1 "/rustc/6c8927b0cf80ceee19386026cf9d7fd4fd9d486f/src/libcore/fmt/mod.rs"
	.loc	1 2022 0
	.cfi_startproc
	pushq	%rbp
	.cfi_def_cfa_offset 16
	.cfi_offset %rbp, -16
	movq	%rsp, %rbp
	.cfi_def_cfa_register %rbp
Ltmp0:
	pushq	%r14
	pushq	%rbx
	subq	$32, %rsp
	.cfi_offset %rbx, -32
	.cfi_offset %r14, -24
	.loc	1 2022 71 prologue_end
	movq	(%rdi), %rbx
Ltmp1:
	.file	2 "/rustc/6c8927b0cf80ceee19386026cf9d7fd4fd9d486f/src/libcore/option.rs"
	.loc	2 146 48
	cmpl	$2, (%rbx)
	jne	LBB0_1
Ltmp2:
	leaq	L___unnamed_38(%rip), %rdx
	leaq	-48(%rbp), %rbx
Ltmp3:
	movl	$4, %ecx
	movq	%rbx, %rdi
Ltmp4:
	callq	__ZN4core3fmt9Formatter11debug_tuple17h6c448643801d07e8E
Ltmp5:
	.loc	2 146 48 is_stmt 0
	movq	%rbx, %rdi
	jmp	LBB0_3
Ltmp6:
LBB0_1:
	.loc	2 146 48
	leaq	L___unnamed_39(%rip), %rdx
	leaq	-48(%rbp), %r14
	movl	$4, %ecx
	movq	%r14, %rdi
Ltmp7:
	callq	__ZN4core3fmt9Formatter11debug_tuple17h6c448643801d07e8E
Ltmp8:
	.loc	2 155 56 is_stmt 1
	movq	%rbx, -24(%rbp)
	.loc	2 146 48
	leaq	l___unnamed_5(%rip), %rdx
	leaq	-24(%rbp), %rsi
	movq	%r14, %rdi
	callq	__ZN4core3fmt8builders10DebugTuple5field17hc7b676d0e36b51d9E
	movq	%r14, %rdi
Ltmp9:
LBB0_3:
	.loc	2 0 0 is_stmt 0
	callq	__ZN4core3fmt8builders10DebugTuple6finish17h9f206806f7096c33E
Ltmp10:
	.loc	1 2022 84 is_stmt 1
	addq	$32, %rsp
	popq	%rbx
	popq	%r14
	popq	%rbp
	retq
Ltmp11:
Lfunc_end0:
	.cfi_endproc

	.p2align	4, 0x90
__ZN42_$LT$$RF$T$u20$as$u20$core..fmt..Debug$GT$3fmt17h070808cbfd7d17b9E:
Lfunc_begin1:
	.loc	1 2022 0
	.cfi_startproc
	pushq	%rbp
	.cfi_def_cfa_offset 16
	.cfi_offset %rbp, -16
	movq	%rsp, %rbp
	.cfi_def_cfa_register %rbp
Ltmp12:
	.loc	1 2022 71 prologue_end
	movq	(%rdi), %rdi
Ltmp13:
	.loc	1 2022 62 is_stmt 0
	popq	%rbp
	jmp	__ZN4core3fmt5float50_$LT$impl$u20$core..fmt..Debug$u20$for$u20$f64$GT$3fmt17h77c57a6e82ae635cE
Ltmp14:
Lfunc_end1:
	.cfi_endproc

	.p2align	4, 0x90
__ZN42_$LT$$RF$T$u20$as$u20$core..fmt..Debug$GT$3fmt17h17fe6cb9ede99322E:
Lfunc_begin2:
	.loc	1 2022 0 is_stmt 1
	.cfi_startproc
	pushq	%rbp
	.cfi_def_cfa_offset 16
	.cfi_offset %rbp, -16
	movq	%rsp, %rbp
	.cfi_def_cfa_register %rbp
Ltmp15:
	pushq	%r14
	pushq	%rbx
	subq	$32, %rsp
	.cfi_offset %rbx, -32
	.cfi_offset %r14, -24
	.loc	1 2022 71 prologue_end
	movq	(%rdi), %rbx
Ltmp16:
	.file	3 "/Users/yingyuhang/.cargo/registry/src/github.com-1ecc6299db9ec823/gimli-0.22.0/src/constants.rs"
	.loc	3 61 18
	leaq	l___unnamed_40(%rip), %rdx
	leaq	-48(%rbp), %r14
	movl	$6, %ecx
	movq	%r14, %rdi
Ltmp17:
	callq	__ZN4core3fmt9Formatter11debug_tuple17h6c448643801d07e8E
Ltmp18:
	.loc	3 62 33
	movq	%rbx, -24(%rbp)
	.loc	3 61 18
	leaq	l___unnamed_7(%rip), %rdx
	leaq	-24(%rbp), %rsi
	movq	%r14, %rdi
	callq	__ZN4core3fmt8builders10DebugTuple5field17hc7b676d0e36b51d9E
	movq	%r14, %rdi
	callq	__ZN4core3fmt8builders10DebugTuple6finish17h9f206806f7096c33E
Ltmp19:
	.loc	1 2022 84
	addq	$32, %rsp
	popq	%rbx
	popq	%r14
	popq	%rbp
	retq
Ltmp20:
Lfunc_end2:
	.cfi_endproc

	.p2align	4, 0x90
__ZN42_$LT$$RF$T$u20$as$u20$core..fmt..Debug$GT$3fmt17h21f4799d6489f3cfE:
Lfunc_begin3:
	.loc	1 2022 0
	.cfi_startproc
	pushq	%rbp
	.cfi_def_cfa_offset 16
	.cfi_offset %rbp, -16
	movq	%rsp, %rbp
	.cfi_def_cfa_register %rbp
Ltmp21:
	pushq	%r14
	pushq	%rbx
	subq	$48, %rsp
	.cfi_offset %rbx, -32
	.cfi_offset %r14, -24
	.loc	1 2022 71 prologue_end
	movq	(%rdi), %rbx
Ltmp22:
	.loc	1 2188 35
	leaq	l___unnamed_41(%rip), %rdx
	leaq	-56(%rbp), %r14
	movq	%r14, %rdi
Ltmp23:
	xorl	%ecx, %ecx
	callq	__ZN4core3fmt9Formatter11debug_tuple17h6c448643801d07e8E
Ltmp24:
	.loc	1 2189 24
	movq	%rbx, -24(%rbp)
	addq	$8, %rbx
Ltmp25:
	movq	%rbx, -32(%rbp)
Ltmp26:
	.loc	1 2191 21
	leaq	l___unnamed_4(%rip), %rdx
	leaq	-24(%rbp), %rsi
	movq	%r14, %rdi
	callq	__ZN4core3fmt8builders10DebugTuple5field17hc7b676d0e36b51d9E
Ltmp27:
	leaq	l___unnamed_5(%rip), %rdx
	leaq	-32(%rbp), %rsi
	movq	%r14, %rdi
	callq	__ZN4core3fmt8builders10DebugTuple5field17hc7b676d0e36b51d9E
	.loc	1 2194 17
	movq	%r14, %rdi
	callq	__ZN4core3fmt8builders10DebugTuple6finish17h9f206806f7096c33E
Ltmp28:
	.loc	1 2022 84
	addq	$48, %rsp
	popq	%rbx
	popq	%r14
	popq	%rbp
	retq
Ltmp29:
Lfunc_end3:
	.cfi_endproc

	.p2align	4, 0x90
__ZN42_$LT$$RF$T$u20$as$u20$core..fmt..Debug$GT$3fmt17h228872250a5627ceE:
Lfunc_begin4:
	.loc	1 2022 0
	.cfi_startproc
	pushq	%rbp
	.cfi_def_cfa_offset 16
	.cfi_offset %rbp, -16
	movq	%rsp, %rbp
	.cfi_def_cfa_register %rbp
Ltmp30:
	pushq	%r14
	pushq	%rbx
	subq	$32, %rsp
	.cfi_offset %rbx, -32
	.cfi_offset %r14, -24
	.loc	1 2022 71 prologue_end
	movq	(%rdi), %rbx
Ltmp31:
	.loc	3 61 18
	leaq	l___unnamed_42(%rip), %rdx
	leaq	-48(%rbp), %r14
	movl	$6, %ecx
	movq	%r14, %rdi
Ltmp32:
	callq	__ZN4core3fmt9Formatter11debug_tuple17h6c448643801d07e8E
Ltmp33:
	.loc	3 62 33
	movq	%rbx, -24(%rbp)
	.loc	3 61 18
	leaq	l___unnamed_9(%rip), %rdx
	leaq	-24(%rbp), %rsi
	movq	%r14, %rdi
	callq	__ZN4core3fmt8builders10DebugTuple5field17hc7b676d0e36b51d9E
	movq	%r14, %rdi
	callq	__ZN4core3fmt8builders10DebugTuple6finish17h9f206806f7096c33E
Ltmp34:
	.loc	1 2022 84
	addq	$32, %rsp
	popq	%rbx
	popq	%r14
	popq	%rbp
	retq
Ltmp35:
Lfunc_end4:
	.cfi_endproc

	.p2align	4, 0x90
__ZN42_$LT$$RF$T$u20$as$u20$core..fmt..Debug$GT$3fmt17h24950efddb9ac7e1E:
Lfunc_begin5:
	.loc	1 2022 0
	.cfi_startproc
	pushq	%rbp
	.cfi_def_cfa_offset 16
	.cfi_offset %rbp, -16
	movq	%rsp, %rbp
	.cfi_def_cfa_register %rbp
Ltmp36:
	pushq	%r14
	pushq	%rbx
	subq	$32, %rsp
	.cfi_offset %rbx, -32
	.cfi_offset %r14, -24
	.loc	1 2022 71 prologue_end
	movq	(%rdi), %rbx
Ltmp37:
	.loc	3 61 18
	leaq	l___unnamed_43(%rip), %rdx
	leaq	-48(%rbp), %r14
	movl	$5, %ecx
	movq	%r14, %rdi
Ltmp38:
	callq	__ZN4core3fmt9Formatter11debug_tuple17h6c448643801d07e8E
Ltmp39:
	.loc	3 62 33
	movq	%rbx, -24(%rbp)
	.loc	3 61 18
	leaq	l___unnamed_7(%rip), %rdx
	leaq	-24(%rbp), %rsi
	movq	%r14, %rdi
	callq	__ZN4core3fmt8builders10DebugTuple5field17hc7b676d0e36b51d9E
	movq	%r14, %rdi
	callq	__ZN4core3fmt8builders10DebugTuple6finish17h9f206806f7096c33E
Ltmp40:
	.loc	1 2022 84
	addq	$32, %rsp
	popq	%rbx
	popq	%r14
	popq	%rbp
	retq
Ltmp41:
Lfunc_end5:
	.cfi_endproc

	.p2align	4, 0x90
__ZN42_$LT$$RF$T$u20$as$u20$core..fmt..Debug$GT$3fmt17h3174e377447c2f0bE:
Lfunc_begin6:
	.loc	1 2022 0
	.cfi_startproc
	pushq	%rbp
	.cfi_def_cfa_offset 16
	.cfi_offset %rbp, -16
	movq	%rsp, %rbp
	.cfi_def_cfa_register %rbp
Ltmp42:
	pushq	%rbx
	subq	$24, %rsp
	.cfi_offset %rbx, -24
	.loc	1 2022 71 prologue_end
	movq	(%rdi), %rax
Ltmp43:
	.file	4 "/Users/yingyuhang/.cargo/registry/src/github.com-1ecc6299db9ec823/gimli-0.22.0/src/common.rs"
	.loc	4 2 10
	cmpb	$8, (%rax)
	jne	LBB6_1
Ltmp44:
	leaq	l___unnamed_44(%rip), %rdx
	jmp	LBB6_3
Ltmp45:
LBB6_1:
	leaq	l___unnamed_45(%rip), %rdx
Ltmp46:
LBB6_3:
	.loc	4 0 10 is_stmt 0
	leaq	-32(%rbp), %rbx
	.loc	4 2 10
	movl	$7, %ecx
	movq	%rbx, %rdi
Ltmp47:
	callq	__ZN4core3fmt9Formatter11debug_tuple17h6c448643801d07e8E
Ltmp48:
	.loc	4 0 0
	movq	%rbx, %rdi
	callq	__ZN4core3fmt8builders10DebugTuple6finish17h9f206806f7096c33E
Ltmp49:
	.loc	1 2022 84 is_stmt 1
	addq	$24, %rsp
	popq	%rbx
	popq	%rbp
	retq
Ltmp50:
Lfunc_end6:
	.cfi_endproc

	.p2align	4, 0x90
__ZN42_$LT$$RF$T$u20$as$u20$core..fmt..Debug$GT$3fmt17h4abadc3336398241E:
Lfunc_begin7:
	.loc	1 2022 0
	.cfi_startproc
	pushq	%rbp
	.cfi_def_cfa_offset 16
	.cfi_offset %rbp, -16
	movq	%rsp, %rbp
	.cfi_def_cfa_register %rbp
Ltmp51:
	pushq	%r14
	pushq	%rbx
	subq	$32, %rsp
	.cfi_offset %rbx, -32
	.cfi_offset %r14, -24
	.loc	1 2022 71 prologue_end
	movq	(%rdi), %rbx
Ltmp52:
	.loc	2 146 48
	cmpl	$1, (%rbx)
	jne	LBB7_2
Ltmp53:
	.loc	2 155 56
	addq	$8, %rbx
Ltmp54:
	.loc	2 146 48
	leaq	L___unnamed_39(%rip), %rdx
	leaq	-48(%rbp), %r14
	movl	$4, %ecx
	movq	%r14, %rdi
Ltmp55:
	callq	__ZN4core3fmt9Formatter11debug_tuple17h6c448643801d07e8E
Ltmp56:
	.loc	2 155 56
	movq	%rbx, -24(%rbp)
	.loc	2 146 48
	leaq	l___unnamed_1(%rip), %rdx
	leaq	-24(%rbp), %rsi
	movq	%r14, %rdi
	callq	__ZN4core3fmt8builders10DebugTuple5field17hc7b676d0e36b51d9E
	movq	%r14, %rdi
	jmp	LBB7_3
Ltmp57:
LBB7_2:
	.loc	2 146 48 is_stmt 0
	leaq	L___unnamed_38(%rip), %rdx
	leaq	-48(%rbp), %rbx
Ltmp58:
	movl	$4, %ecx
	movq	%rbx, %rdi
Ltmp59:
	callq	__ZN4core3fmt9Formatter11debug_tuple17h6c448643801d07e8E
Ltmp60:
	.loc	2 146 48
	movq	%rbx, %rdi
Ltmp61:
LBB7_3:
	.loc	2 0 0
	callq	__ZN4core3fmt8builders10DebugTuple6finish17h9f206806f7096c33E
Ltmp62:
	.loc	1 2022 84 is_stmt 1
	addq	$32, %rsp
	popq	%rbx
	popq	%r14
	popq	%rbp
	retq
Ltmp63:
Lfunc_end7:
	.cfi_endproc

	.p2align	4, 0x90
__ZN42_$LT$$RF$T$u20$as$u20$core..fmt..Debug$GT$3fmt17h4c827bd2a012fdc4E:
Lfunc_begin8:
	.loc	1 2022 0
	.cfi_startproc
	pushq	%rbp
	.cfi_def_cfa_offset 16
	.cfi_offset %rbp, -16
	movq	%rsp, %rbp
	.cfi_def_cfa_register %rbp
	pushq	%r14
	pushq	%rbx
	.cfi_offset %rbx, -32
	.cfi_offset %r14, -24
	movq	%rsi, %rbx
Ltmp64:
	.loc	1 2022 71 prologue_end
	movq	(%rdi), %r14
Ltmp65:
	.file	5 "/rustc/6c8927b0cf80ceee19386026cf9d7fd4fd9d486f/src/libcore/fmt/num.rs"
	.loc	5 149 20
	movq	%rsi, %rdi
Ltmp66:
	callq	__ZN4core3fmt9Formatter15debug_lower_hex17hd07f6fde8d0365dfE
	.loc	5 149 17 is_stmt 0
	testb	%al, %al
	je	LBB8_1
Ltmp67:
	.loc	5 150 21 is_stmt 1
	movq	%r14, %rdi
	movq	%rbx, %rsi
	popq	%rbx
Ltmp68:
	popq	%r14
Ltmp69:
	popq	%rbp
	jmp	__ZN4core3fmt3num53_$LT$impl$u20$core..fmt..LowerHex$u20$for$u20$u64$GT$3fmt17hb1b2554e6a6ce90cE
LBB8_1:
Ltmp70:
	.loc	5 151 27
	movq	%rbx, %rdi
	callq	__ZN4core3fmt9Formatter15debug_upper_hex17hf480c256a9c81c1eE
	.loc	5 154 21
	movq	%r14, %rdi
	movq	%rbx, %rsi
	.loc	5 151 24
	testb	%al, %al
	je	LBB8_4
Ltmp71:
	.loc	5 152 21
	popq	%rbx
Ltmp72:
	popq	%r14
Ltmp73:
	popq	%rbp
	jmp	__ZN4core3fmt3num53_$LT$impl$u20$core..fmt..UpperHex$u20$for$u20$u64$GT$3fmt17h67a4ddf8c7fd5f2bE
LBB8_4:
Ltmp74:
	.loc	5 154 21
	popq	%rbx
Ltmp75:
	popq	%r14
Ltmp76:
	popq	%rbp
	jmp	__ZN4core3fmt3num3imp52_$LT$impl$u20$core..fmt..Display$u20$for$u20$u64$GT$3fmt17h3230c9bc78e30ed1E
Ltmp77:
Lfunc_end8:
	.cfi_endproc
	.file	6 "/rustc/6c8927b0cf80ceee19386026cf9d7fd4fd9d486f/src/libcore/num/mod.rs"

	.p2align	4, 0x90
__ZN42_$LT$$RF$T$u20$as$u20$core..fmt..Debug$GT$3fmt17h4d1de1984625f7e9E:
Lfunc_begin9:
	.loc	1 2022 0
	.cfi_startproc
	pushq	%rbp
	.cfi_def_cfa_offset 16
	.cfi_offset %rbp, -16
	movq	%rsp, %rbp
	.cfi_def_cfa_register %rbp
Ltmp78:
	pushq	%r15
	pushq	%r14
	pushq	%r13
	pushq	%r12
	pushq	%rbx
	subq	$24, %rsp
	.cfi_offset %rbx, -56
	.cfi_offset %r12, -48
	.cfi_offset %r13, -40
	.cfi_offset %r14, -32
	.cfi_offset %r15, -24
	.loc	1 2022 71 prologue_end
	movq	(%rdi), %rbx
Ltmp79:
	.file	7 "/Users/yingyuhang/.cargo/registry/src/github.com-1ecc6299db9ec823/gimli-0.22.0/src/read/abbrev.rs"
	.loc	7 184 10
	leaq	l___unnamed_46(%rip), %rdx
	leaq	-64(%rbp), %r15
	movl	$12, %ecx
	movq	%r15, %rdi
Ltmp80:
	callq	__ZN4core3fmt9Formatter12debug_struct17ha1a64e91d2a98458E
Ltmp81:
	.loc	7 186 5
	movq	%rbx, -48(%rbp)
Ltmp82:
	.loc	7 187 5
	leaq	104(%rbx), %r12
	.loc	7 188 5
	leaq	106(%rbx), %r13
	.loc	7 189 5
	leaq	8(%rbx), %r14
Ltmp83:
	.loc	7 184 10
	leaq	L___unnamed_47(%rip), %rsi
	leaq	l___unnamed_1(%rip), %r8
	leaq	-48(%rbp), %rcx
	movl	$4, %edx
	movq	%r15, %rdi
	callq	__ZN4core3fmt8builders11DebugStruct5field17h6c54d35ac41bb1e6E
	.loc	7 187 5
	movq	%r12, -48(%rbp)
	.loc	7 184 10
	leaq	l___unnamed_48(%rip), %rsi
	leaq	l___unnamed_19(%rip), %r8
	leaq	-48(%rbp), %rcx
	movl	$3, %edx
	movq	%r15, %rdi
	callq	__ZN4core3fmt8builders11DebugStruct5field17h6c54d35ac41bb1e6E
	.loc	7 188 5
	movq	%r13, -48(%rbp)
	.loc	7 184 10
	leaq	l___unnamed_49(%rip), %rsi
	leaq	l___unnamed_20(%rip), %r8
	leaq	-48(%rbp), %rcx
	movl	$12, %edx
	movq	%r15, %rdi
	callq	__ZN4core3fmt8builders11DebugStruct5field17h6c54d35ac41bb1e6E
	.loc	7 189 5
	movq	%r14, -48(%rbp)
	.loc	7 184 10
	leaq	l___unnamed_50(%rip), %rsi
	leaq	l___unnamed_21(%rip), %r8
	leaq	-48(%rbp), %rcx
	movl	$10, %edx
	movq	%r15, %rdi
	callq	__ZN4core3fmt8builders11DebugStruct5field17h6c54d35ac41bb1e6E
	movq	%r15, %rdi
	callq	__ZN4core3fmt8builders11DebugStruct6finish17h67ed49fd5e81bb24E
Ltmp84:
	.loc	1 2022 84
	addq	$24, %rsp
	popq	%rbx
Ltmp85:
	popq	%r12
	popq	%r13
	popq	%r14
	popq	%r15
	popq	%rbp
	retq
Ltmp86:
Lfunc_end9:
	.cfi_endproc
	.file	8 "/Users/yingyuhang/.cargo/registry/src/github.com-1ecc6299db9ec823/gimli-0.22.0/src/lib.rs"

	.p2align	4, 0x90
__ZN42_$LT$$RF$T$u20$as$u20$core..fmt..Debug$GT$3fmt17h50e3657bd15f8ba6E:
Lfunc_begin10:
	.loc	1 2022 0
	.cfi_startproc
	pushq	%rbp
	.cfi_def_cfa_offset 16
	.cfi_offset %rbp, -16
	movq	%rsp, %rbp
	.cfi_def_cfa_register %rbp
	pushq	%r14
	pushq	%rbx
	.cfi_offset %rbx, -32
	.cfi_offset %r14, -24
	movq	%rsi, %rbx
Ltmp87:
	.loc	1 2022 71 prologue_end
	movq	(%rdi), %r14
Ltmp88:
	.loc	5 149 20
	movq	%rsi, %rdi
Ltmp89:
	callq	__ZN4core3fmt9Formatter15debug_lower_hex17hd07f6fde8d0365dfE
	.loc	5 149 17 is_stmt 0
	testb	%al, %al
	je	LBB10_1
Ltmp90:
	.loc	5 150 21 is_stmt 1
	movq	%r14, %rdi
	movq	%rbx, %rsi
	popq	%rbx
Ltmp91:
	popq	%r14
Ltmp92:
	popq	%rbp
	jmp	__ZN4core3fmt3num53_$LT$impl$u20$core..fmt..LowerHex$u20$for$u20$u16$GT$3fmt17h7067c16dc119bdc6E
LBB10_1:
Ltmp93:
	.loc	5 151 27
	movq	%rbx, %rdi
	callq	__ZN4core3fmt9Formatter15debug_upper_hex17hf480c256a9c81c1eE
	.loc	5 154 21
	movq	%r14, %rdi
	movq	%rbx, %rsi
	.loc	5 151 24
	testb	%al, %al
	je	LBB10_4
Ltmp94:
	.loc	5 152 21
	popq	%rbx
Ltmp95:
	popq	%r14
Ltmp96:
	popq	%rbp
	jmp	__ZN4core3fmt3num53_$LT$impl$u20$core..fmt..UpperHex$u20$for$u20$u16$GT$3fmt17hb4f6c786d08c2f96E
LBB10_4:
Ltmp97:
	.loc	5 154 21
	popq	%rbx
Ltmp98:
	popq	%r14
Ltmp99:
	popq	%rbp
	jmp	__ZN4core3fmt3num3imp52_$LT$impl$u20$core..fmt..Display$u20$for$u20$u16$GT$3fmt17h5ce1a50c193bc52eE
Ltmp100:
Lfunc_end10:
	.cfi_endproc

	.p2align	4, 0x90
__ZN42_$LT$$RF$T$u20$as$u20$core..fmt..Debug$GT$3fmt17h58f098ed7655333aE:
Lfunc_begin11:
	.loc	1 2022 0
	.cfi_startproc
	pushq	%rbp
	.cfi_def_cfa_offset 16
	.cfi_offset %rbp, -16
	movq	%rsp, %rbp
	.cfi_def_cfa_register %rbp
Ltmp101:
	pushq	%r15
	pushq	%r14
	pushq	%rbx
	subq	$24, %rsp
	.cfi_offset %rbx, -40
	.cfi_offset %r14, -32
	.cfi_offset %r15, -24
	.loc	1 2022 71 prologue_end
	movq	(%rdi), %rbx
Ltmp102:
	.loc	4 33 10
	leaq	L___unnamed_51(%rip), %rdx
	leaq	-48(%rbp), %r14
	movl	$8, %ecx
	movq	%r14, %rdi
Ltmp103:
	callq	__ZN4core3fmt9Formatter12debug_struct17ha1a64e91d2a98458E
Ltmp104:
	.loc	4 39 5
	movq	%rbx, -32(%rbp)
Ltmp105:
	.loc	4 44 5
	leaq	1(%rbx), %r15
	.loc	4 47 5
	addq	$2, %rbx
Ltmp106:
	.loc	4 33 10
	leaq	l___unnamed_52(%rip), %rsi
	leaq	l___unnamed_7(%rip), %r8
	leaq	-32(%rbp), %rcx
	movl	$12, %edx
	movq	%r14, %rdi
	callq	__ZN4core3fmt8builders11DebugStruct5field17h6c54d35ac41bb1e6E
	.loc	4 44 5
	movq	%r15, -32(%rbp)
	.loc	4 33 10
	leaq	l___unnamed_53(%rip), %rsi
	leaq	l___unnamed_8(%rip), %r8
	leaq	-32(%rbp), %rcx
	movl	$6, %edx
	movq	%r14, %rdi
	callq	__ZN4core3fmt8builders11DebugStruct5field17h6c54d35ac41bb1e6E
	.loc	4 47 5
	movq	%rbx, -32(%rbp)
	.loc	4 33 10
	leaq	l___unnamed_54(%rip), %rsi
	leaq	l___unnamed_9(%rip), %r8
	leaq	-32(%rbp), %rcx
	movl	$7, %edx
	movq	%r14, %rdi
	callq	__ZN4core3fmt8builders11DebugStruct5field17h6c54d35ac41bb1e6E
	movq	%r14, %rdi
	callq	__ZN4core3fmt8builders11DebugStruct6finish17h67ed49fd5e81bb24E
Ltmp107:
	.loc	1 2022 84
	addq	$24, %rsp
	popq	%rbx
	popq	%r14
	popq	%r15
	popq	%rbp
	retq
Ltmp108:
Lfunc_end11:
	.cfi_endproc

	.p2align	4, 0x90
__ZN42_$LT$$RF$T$u20$as$u20$core..fmt..Debug$GT$3fmt17h5c6701566defb58dE:
Lfunc_begin12:
	.loc	1 2022 0
	.cfi_startproc
	pushq	%rbp
	.cfi_def_cfa_offset 16
	.cfi_offset %rbp, -16
	movq	%rsp, %rbp
	.cfi_def_cfa_register %rbp
Ltmp109:
	pushq	%r15
	pushq	%r14
	pushq	%r12
	pushq	%rbx
	subq	$32, %rsp
	.cfi_offset %rbx, -48
	.cfi_offset %r12, -40
	.cfi_offset %r14, -32
	.cfi_offset %r15, -24
	.loc	1 2022 71 prologue_end
	movq	(%rdi), %rbx
Ltmp110:
	.loc	7 377 5
	leaq	8(%rbx), %r15
	.loc	7 378 5
	leaq	10(%rbx), %r12
Ltmp111:
	.loc	7 375 10
	leaq	l___unnamed_55(%rip), %rdx
	leaq	-56(%rbp), %r14
	movl	$22, %ecx
	movq	%r14, %rdi
Ltmp112:
	callq	__ZN4core3fmt9Formatter12debug_struct17ha1a64e91d2a98458E
Ltmp113:
	.loc	7 377 5
	movq	%r15, -40(%rbp)
	.loc	7 375 10
	leaq	L___unnamed_56(%rip), %rsi
	leaq	l___unnamed_22(%rip), %r8
	leaq	-40(%rbp), %rcx
	movl	$4, %edx
	movq	%r14, %rdi
	callq	__ZN4core3fmt8builders11DebugStruct5field17h6c54d35ac41bb1e6E
	.loc	7 378 5
	movq	%r12, -40(%rbp)
	.loc	7 375 10
	leaq	L___unnamed_57(%rip), %rsi
	leaq	l___unnamed_23(%rip), %r8
	leaq	-40(%rbp), %rcx
	movl	$4, %edx
	movq	%r14, %rdi
	callq	__ZN4core3fmt8builders11DebugStruct5field17h6c54d35ac41bb1e6E
	.loc	7 379 5
	movq	%rbx, -40(%rbp)
	.loc	7 375 10
	leaq	l___unnamed_58(%rip), %rsi
	leaq	l___unnamed_24(%rip), %r8
	leaq	-40(%rbp), %rcx
	movl	$20, %edx
	movq	%r14, %rdi
	callq	__ZN4core3fmt8builders11DebugStruct5field17h6c54d35ac41bb1e6E
	movq	%r14, %rdi
	callq	__ZN4core3fmt8builders11DebugStruct6finish17h67ed49fd5e81bb24E
Ltmp114:
	.loc	1 2022 84
	addq	$32, %rsp
	popq	%rbx
Ltmp115:
	popq	%r12
Ltmp116:
	popq	%r14
	popq	%r15
Ltmp117:
	popq	%rbp
	retq
Ltmp118:
Lfunc_end12:
	.cfi_endproc

	.p2align	4, 0x90
__ZN42_$LT$$RF$T$u20$as$u20$core..fmt..Debug$GT$3fmt17h5f14a04d889e922dE:
Lfunc_begin13:
	.loc	1 2022 0
	.cfi_startproc
	pushq	%rbp
	.cfi_def_cfa_offset 16
	.cfi_offset %rbp, -16
	movq	%rsp, %rbp
	.cfi_def_cfa_register %rbp
	pushq	%r14
	pushq	%rbx
	.cfi_offset %rbx, -32
	.cfi_offset %r14, -24
	movq	%rsi, %rbx
Ltmp119:
	.loc	1 2022 71 prologue_end
	movq	(%rdi), %r14
Ltmp120:
	.loc	5 149 20
	movq	%rsi, %rdi
Ltmp121:
	callq	__ZN4core3fmt9Formatter15debug_lower_hex17hd07f6fde8d0365dfE
	.loc	5 149 17 is_stmt 0
	testb	%al, %al
	je	LBB13_1
Ltmp122:
	.loc	5 150 21 is_stmt 1
	movq	%r14, %rdi
	movq	%rbx, %rsi
	popq	%rbx
Ltmp123:
	popq	%r14
Ltmp124:
	popq	%rbp
	jmp	__ZN4core3fmt3num53_$LT$impl$u20$core..fmt..LowerHex$u20$for$u20$u64$GT$3fmt17hb1b2554e6a6ce90cE
LBB13_1:
Ltmp125:
	.loc	5 151 27
	movq	%rbx, %rdi
	callq	__ZN4core3fmt9Formatter15debug_upper_hex17hf480c256a9c81c1eE
	.loc	5 154 21
	movq	%r14, %rdi
	movq	%rbx, %rsi
	.loc	5 151 24
	testb	%al, %al
	je	LBB13_4
Ltmp126:
	.loc	5 152 21
	popq	%rbx
Ltmp127:
	popq	%r14
Ltmp128:
	popq	%rbp
	jmp	__ZN4core3fmt3num53_$LT$impl$u20$core..fmt..UpperHex$u20$for$u20$u64$GT$3fmt17h67a4ddf8c7fd5f2bE
LBB13_4:
Ltmp129:
	.loc	5 154 21
	popq	%rbx
Ltmp130:
	popq	%r14
Ltmp131:
	popq	%rbp
	jmp	__ZN4core3fmt3num3imp52_$LT$impl$u20$core..fmt..Display$u20$for$u20$u64$GT$3fmt17h3230c9bc78e30ed1E
Ltmp132:
Lfunc_end13:
	.cfi_endproc

	.p2align	4, 0x90
__ZN42_$LT$$RF$T$u20$as$u20$core..fmt..Debug$GT$3fmt17h63e23290615c6191E:
Lfunc_begin14:
	.loc	1 2022 0
	.cfi_startproc
	pushq	%rbp
	.cfi_def_cfa_offset 16
	.cfi_offset %rbp, -16
	movq	%rsp, %rbp
	.cfi_def_cfa_register %rbp
Ltmp133:
	.loc	1 2022 71 prologue_end
	movq	(%rdi), %rdi
Ltmp134:
	.loc	1 2052 9
	popq	%rbp
	jmp	__ZN43_$LT$bool$u20$as$u20$core..fmt..Display$GT$3fmt17hd78396651a24cfbbE
Ltmp135:
Lfunc_end14:
	.cfi_endproc

	.p2align	4, 0x90
__ZN42_$LT$$RF$T$u20$as$u20$core..fmt..Debug$GT$3fmt17h6734e680fb6abf27E:
Lfunc_begin15:
	.loc	1 2022 0
	.cfi_startproc
	pushq	%rbp
	.cfi_def_cfa_offset 16
	.cfi_offset %rbp, -16
	movq	%rsp, %rbp
	.cfi_def_cfa_register %rbp
	pushq	%r14
	pushq	%rbx
	.cfi_offset %rbx, -32
	.cfi_offset %r14, -24
	movq	%rsi, %rbx
Ltmp136:
	.loc	1 2022 71 prologue_end
	movq	(%rdi), %r14
Ltmp137:
	.loc	5 149 20
	movq	%rsi, %rdi
Ltmp138:
	callq	__ZN4core3fmt9Formatter15debug_lower_hex17hd07f6fde8d0365dfE
	.loc	5 149 17 is_stmt 0
	testb	%al, %al
	je	LBB15_1
Ltmp139:
	.loc	5 150 21 is_stmt 1
	movq	%r14, %rdi
	movq	%rbx, %rsi
	popq	%rbx
Ltmp140:
	popq	%r14
Ltmp141:
	popq	%rbp
	jmp	__ZN4core3fmt3num53_$LT$impl$u20$core..fmt..LowerHex$u20$for$u20$i32$GT$3fmt17hb7ffbd061f7948a2E
LBB15_1:
Ltmp142:
	.loc	5 151 27
	movq	%rbx, %rdi
	callq	__ZN4core3fmt9Formatter15debug_upper_hex17hf480c256a9c81c1eE
	.loc	5 154 21
	movq	%r14, %rdi
	movq	%rbx, %rsi
	.loc	5 151 24
	testb	%al, %al
	je	LBB15_4
Ltmp143:
	.loc	5 152 21
	popq	%rbx
Ltmp144:
	popq	%r14
Ltmp145:
	popq	%rbp
	jmp	__ZN4core3fmt3num53_$LT$impl$u20$core..fmt..UpperHex$u20$for$u20$i32$GT$3fmt17hbb8d8cd7e36208d7E
LBB15_4:
Ltmp146:
	.loc	5 154 21
	popq	%rbx
Ltmp147:
	popq	%r14
Ltmp148:
	popq	%rbp
	jmp	__ZN4core3fmt3num3imp52_$LT$impl$u20$core..fmt..Display$u20$for$u20$i32$GT$3fmt17h00ed7ff77f9da654E
Ltmp149:
Lfunc_end15:
	.cfi_endproc

	.p2align	4, 0x90
__ZN42_$LT$$RF$T$u20$as$u20$core..fmt..Debug$GT$3fmt17h676efca319e8f483E:
Lfunc_begin16:
	.loc	1 2022 0
	.cfi_startproc
	pushq	%rbp
	.cfi_def_cfa_offset 16
	.cfi_offset %rbp, -16
	movq	%rsp, %rbp
	.cfi_def_cfa_register %rbp
Ltmp150:
	pushq	%r14
	pushq	%rbx
	subq	$32, %rsp
	.cfi_offset %rbx, -32
	.cfi_offset %r14, -24
	.loc	1 2022 71 prologue_end
	movq	(%rdi), %rbx
Ltmp151:
	.loc	3 61 18
	leaq	l___unnamed_59(%rip), %rdx
	leaq	-48(%rbp), %r14
	movl	$5, %ecx
	movq	%r14, %rdi
Ltmp152:
	callq	__ZN4core3fmt9Formatter11debug_tuple17h6c448643801d07e8E
Ltmp153:
	.loc	3 62 33
	movq	%rbx, -24(%rbp)
	.loc	3 61 18
	leaq	l___unnamed_7(%rip), %rdx
	leaq	-24(%rbp), %rsi
	movq	%r14, %rdi
	callq	__ZN4core3fmt8builders10DebugTuple5field17hc7b676d0e36b51d9E
	movq	%r14, %rdi
	callq	__ZN4core3fmt8builders10DebugTuple6finish17h9f206806f7096c33E
Ltmp154:
	.loc	1 2022 84
	addq	$32, %rsp
	popq	%rbx
	popq	%r14
	popq	%rbp
	retq
Ltmp155:
Lfunc_end16:
	.cfi_endproc

	.p2align	4, 0x90
__ZN42_$LT$$RF$T$u20$as$u20$core..fmt..Debug$GT$3fmt17h68d1d35dd0540496E:
Lfunc_begin17:
	.loc	1 2022 0
	.cfi_startproc
	pushq	%rbp
	.cfi_def_cfa_offset 16
	.cfi_offset %rbp, -16
	movq	%rsp, %rbp
	.cfi_def_cfa_register %rbp
Ltmp156:
	pushq	%r14
	pushq	%rbx
	subq	$32, %rsp
	.cfi_offset %rbx, -32
	.cfi_offset %r14, -24
	.loc	1 2022 71 prologue_end
	movq	(%rdi), %rbx
Ltmp157:
	.loc	2 146 48
	cmpb	$1, (%rbx)
	jne	LBB17_2
Ltmp158:
	.loc	2 155 56
	incq	%rbx
Ltmp159:
	.loc	2 146 48
	leaq	L___unnamed_39(%rip), %rdx
	leaq	-48(%rbp), %r14
	movl	$4, %ecx
	movq	%r14, %rdi
Ltmp160:
	callq	__ZN4core3fmt9Formatter11debug_tuple17h6c448643801d07e8E
Ltmp161:
	.loc	2 155 56
	movq	%rbx, -24(%rbp)
	.loc	2 146 48
	leaq	l___unnamed_4(%rip), %rdx
	leaq	-24(%rbp), %rsi
	movq	%r14, %rdi
	callq	__ZN4core3fmt8builders10DebugTuple5field17hc7b676d0e36b51d9E
	movq	%r14, %rdi
	jmp	LBB17_3
Ltmp162:
LBB17_2:
	.loc	2 146 48 is_stmt 0
	leaq	L___unnamed_38(%rip), %rdx
	leaq	-48(%rbp), %rbx
Ltmp163:
	movl	$4, %ecx
	movq	%rbx, %rdi
Ltmp164:
	callq	__ZN4core3fmt9Formatter11debug_tuple17h6c448643801d07e8E
Ltmp165:
	.loc	2 146 48
	movq	%rbx, %rdi
Ltmp166:
LBB17_3:
	.loc	2 0 0
	callq	__ZN4core3fmt8builders10DebugTuple6finish17h9f206806f7096c33E
Ltmp167:
	.loc	1 2022 84 is_stmt 1
	addq	$32, %rsp
	popq	%rbx
	popq	%r14
	popq	%rbp
	retq
Ltmp168:
Lfunc_end17:
	.cfi_endproc

	.p2align	4, 0x90
__ZN42_$LT$$RF$T$u20$as$u20$core..fmt..Debug$GT$3fmt17h6d1a65498dcfe661E:
Lfunc_begin18:
	.loc	1 2022 0
	.cfi_startproc
	pushq	%rbp
	.cfi_def_cfa_offset 16
	.cfi_offset %rbp, -16
	movq	%rsp, %rbp
	.cfi_def_cfa_register %rbp
Ltmp169:
	pushq	%r14
	pushq	%rbx
	subq	$32, %rsp
	.cfi_offset %rbx, -32
	.cfi_offset %r14, -24
	.loc	1 2022 71 prologue_end
	movq	(%rdi), %rbx
Ltmp170:
	.loc	3 61 18
	leaq	l___unnamed_60(%rip), %rdx
	leaq	-48(%rbp), %r14
	movl	$5, %ecx
	movq	%r14, %rdi
Ltmp171:
	callq	__ZN4core3fmt9Formatter11debug_tuple17h6c448643801d07e8E
Ltmp172:
	.loc	3 62 33
	movq	%rbx, -24(%rbp)
	.loc	3 61 18
	leaq	l___unnamed_7(%rip), %rdx
	leaq	-24(%rbp), %rsi
	movq	%r14, %rdi
	callq	__ZN4core3fmt8builders10DebugTuple5field17hc7b676d0e36b51d9E
	movq	%r14, %rdi
	callq	__ZN4core3fmt8builders10DebugTuple6finish17h9f206806f7096c33E
Ltmp173:
	.loc	1 2022 84
	addq	$32, %rsp
	popq	%rbx
	popq	%r14
	popq	%rbp
	retq
Ltmp174:
Lfunc_end18:
	.cfi_endproc

	.p2align	4, 0x90
__ZN42_$LT$$RF$T$u20$as$u20$core..fmt..Debug$GT$3fmt17h7fca6c59b575a71bE:
Lfunc_begin19:
	.loc	1 2022 0
	.cfi_startproc
	pushq	%rbp
	.cfi_def_cfa_offset 16
	.cfi_offset %rbp, -16
	movq	%rsp, %rbp
	.cfi_def_cfa_register %rbp
Ltmp175:
	pushq	%r14
	pushq	%rbx
	subq	$32, %rsp
	.cfi_offset %rbx, -32
	.cfi_offset %r14, -24
	.loc	1 2022 71 prologue_end
	movq	(%rdi), %rbx
Ltmp176:
	.file	9 "/Users/yingyuhang/.cargo/registry/src/github.com-1ecc6299db9ec823/gimli-0.22.0/src/read/reader.rs"
	.loc	9 16 10
	leaq	l___unnamed_61(%rip), %rdx
	leaq	-48(%rbp), %r14
	movl	$14, %ecx
	movq	%r14, %rdi
Ltmp177:
	callq	__ZN4core3fmt9Formatter11debug_tuple17h6c448643801d07e8E
Ltmp178:
	.loc	9 17 27
	movq	%rbx, -24(%rbp)
	.loc	9 16 10
	leaq	l___unnamed_1(%rip), %rdx
	leaq	-24(%rbp), %rsi
	movq	%r14, %rdi
	callq	__ZN4core3fmt8builders10DebugTuple5field17hc7b676d0e36b51d9E
	movq	%r14, %rdi
	callq	__ZN4core3fmt8builders10DebugTuple6finish17h9f206806f7096c33E
Ltmp179:
	.loc	1 2022 84
	addq	$32, %rsp
	popq	%rbx
	popq	%r14
	popq	%rbp
	retq
Ltmp180:
Lfunc_end19:
	.cfi_endproc

	.p2align	4, 0x90
__ZN42_$LT$$RF$T$u20$as$u20$core..fmt..Debug$GT$3fmt17h8039b206ba34a7d1E:
Lfunc_begin20:
	.loc	1 2022 0
	.cfi_startproc
	pushq	%rbp
	.cfi_def_cfa_offset 16
	.cfi_offset %rbp, -16
	movq	%rsp, %rbp
	.cfi_def_cfa_register %rbp
Ltmp181:
	pushq	%r14
	pushq	%rbx
	subq	$32, %rsp
	.cfi_offset %rbx, -32
	.cfi_offset %r14, -24
	.loc	1 2022 71 prologue_end
	movq	(%rdi), %rbx
Ltmp182:
	.loc	3 61 18
	leaq	L___unnamed_62(%rip), %rdx
	leaq	-48(%rbp), %r14
	movl	$4, %ecx
	movq	%r14, %rdi
Ltmp183:
	callq	__ZN4core3fmt9Formatter11debug_tuple17h6c448643801d07e8E
Ltmp184:
	.loc	3 62 33
	movq	%rbx, -24(%rbp)
	.loc	3 61 18
	leaq	l___unnamed_9(%rip), %rdx
	leaq	-24(%rbp), %rsi
	movq	%r14, %rdi
	callq	__ZN4core3fmt8builders10DebugTuple5field17hc7b676d0e36b51d9E
	movq	%r14, %rdi
	callq	__ZN4core3fmt8builders10DebugTuple6finish17h9f206806f7096c33E
Ltmp185:
	.loc	1 2022 84
	addq	$32, %rsp
	popq	%rbx
	popq	%r14
	popq	%rbp
	retq
Ltmp186:
Lfunc_end20:
	.cfi_endproc

	.p2align	4, 0x90
__ZN42_$LT$$RF$T$u20$as$u20$core..fmt..Debug$GT$3fmt17h8c6e249a97c8b79bE:
Lfunc_begin21:
	.loc	1 2022 0
	.cfi_startproc
	pushq	%rbp
	.cfi_def_cfa_offset 16
	.cfi_offset %rbp, -16
	movq	%rsp, %rbp
	.cfi_def_cfa_register %rbp
Ltmp187:
	pushq	%r15
	pushq	%r14
	pushq	%r13
	pushq	%r12
	pushq	%rbx
	subq	$24, %rsp
	.cfi_offset %rbx, -56
	.cfi_offset %r12, -48
	.cfi_offset %r13, -40
	.cfi_offset %r14, -32
	.cfi_offset %r15, -24
	.loc	1 2022 71 prologue_end
	movq	(%rdi), %rax
Ltmp188:
	.loc	7 348 13
	cmpl	$1, (%rax)
	jne	LBB21_2
Ltmp189:
	.file	10 "/rustc/6c8927b0cf80ceee19386026cf9d7fd4fd9d486f/src/liballoc/vec.rs"
	.loc	10 818 19
	movq	8(%rax), %rbx
Ltmp190:
	.loc	10 1923 55
	movq	24(%rax), %r13
Ltmp191:
	.loc	10 0 55 is_stmt 0
	leaq	-64(%rbp), %rdi
Ltmp192:
	.loc	1 2211 9 is_stmt 1
	callq	__ZN4core3fmt9Formatter10debug_list17h113a4e31f24f00d7E
Ltmp193:
	.file	11 "/rustc/6c8927b0cf80ceee19386026cf9d7fd4fd9d486f/src/libcore/slice/mod.rs"
	.loc	11 3440 9
	testq	%r13, %r13
	.loc	11 3570 21
	jne	LBB21_5
	jmp	LBB21_7
Ltmp194:
LBB21_2:
	.loc	7 348 55
	movq	88(%rax), %r13
Ltmp195:
	.loc	11 3169 19
	cmpq	$6, %r13
	.loc	11 3169 16 is_stmt 0
	jae	LBB21_8
Ltmp196:
	.loc	7 0 0
	addq	$8, %rax
Ltmp197:
	movq	%rax, %rbx
Ltmp198:
	leaq	-64(%rbp), %rdi
Ltmp199:
	.loc	1 2211 9 is_stmt 1
	callq	__ZN4core3fmt9Formatter10debug_list17h113a4e31f24f00d7E
Ltmp200:
	.loc	11 3440 9
	testq	%r13, %r13
	.loc	11 3570 21
	je	LBB21_7
Ltmp201:
LBB21_5:
	shlq	$4, %r13
Ltmp202:
	.loc	11 0 21 is_stmt 0
	leaq	l___unnamed_3(%rip), %r14
	leaq	-64(%rbp), %r15
	leaq	-48(%rbp), %r12
Ltmp203:
	.p2align	4, 0x90
LBB21_6:
	.file	12 "/rustc/6c8927b0cf80ceee19386026cf9d7fd4fd9d486f/src/libcore/fmt/builders.rs"
	.loc	12 661 22 is_stmt 1
	movq	%rbx, -48(%rbp)
Ltmp204:
	.file	13 "/rustc/6c8927b0cf80ceee19386026cf9d7fd4fd9d486f/src/libcore/ptr/non_null.rs"
	.loc	13 92 18
	addq	$16, %rbx
Ltmp205:
	.loc	12 662 13
	movq	%r15, %rdi
	movq	%r12, %rsi
	movq	%r14, %rdx
	callq	__ZN4core3fmt8builders9DebugList5entry17h2dea26f6c644471aE
Ltmp206:
	.loc	11 3440 9
	addq	$-16, %r13
	.loc	11 3570 21
	jne	LBB21_6
Ltmp207:
LBB21_7:
	.loc	11 0 21 is_stmt 0
	leaq	-64(%rbp), %rdi
	.loc	1 2211 9 is_stmt 1
	callq	__ZN4core3fmt8builders9DebugList6finish17h1537bc92ee1acb1cE
Ltmp208:
	.loc	1 2022 84
	addq	$24, %rsp
	popq	%rbx
	popq	%r12
	popq	%r13
	popq	%r14
	popq	%r15
	popq	%rbp
	retq
LBB21_8:
Ltmp209:
	.loc	11 3170 13
	leaq	l___unnamed_63(%rip), %rdx
	movl	$5, %esi
Ltmp210:
	movq	%r13, %rdi
Ltmp211:
	callq	__ZN4core5slice24slice_end_index_len_fail17hea9e3399ed430f80E
Ltmp212:
Lfunc_end21:
	.cfi_endproc

	.p2align	4, 0x90
__ZN42_$LT$$RF$T$u20$as$u20$core..fmt..Debug$GT$3fmt17h8d4b76452aed28c5E:
Lfunc_begin22:
	.loc	1 2022 0
	.cfi_startproc
	pushq	%rbp
	.cfi_def_cfa_offset 16
	.cfi_offset %rbp, -16
	movq	%rsp, %rbp
	.cfi_def_cfa_register %rbp
Ltmp213:
	pushq	%r14
	pushq	%rbx
	subq	$32, %rsp
	.cfi_offset %rbx, -32
	.cfi_offset %r14, -24
	.loc	1 2022 71 prologue_end
	movq	(%rdi), %rbx
Ltmp214:
	.loc	3 61 18
	leaq	l___unnamed_64(%rip), %rdx
	leaq	-48(%rbp), %r14
	movl	$5, %ecx
	movq	%r14, %rdi
Ltmp215:
	callq	__ZN4core3fmt9Formatter11debug_tuple17h6c448643801d07e8E
Ltmp216:
	.loc	3 62 33
	movq	%rbx, -24(%rbp)
	.loc	3 61 18
	leaq	l___unnamed_9(%rip), %rdx
	leaq	-24(%rbp), %rsi
	movq	%r14, %rdi
	callq	__ZN4core3fmt8builders10DebugTuple5field17hc7b676d0e36b51d9E
	movq	%r14, %rdi
	callq	__ZN4core3fmt8builders10DebugTuple6finish17h9f206806f7096c33E
Ltmp217:
	.loc	1 2022 84
	addq	$32, %rsp
	popq	%rbx
	popq	%r14
	popq	%rbp
	retq
Ltmp218:
Lfunc_end22:
	.cfi_endproc

	.p2align	4, 0x90
__ZN42_$LT$$RF$T$u20$as$u20$core..fmt..Debug$GT$3fmt17h9188f7ce65f01105E:
Lfunc_begin23:
	.loc	1 2022 0
	.cfi_startproc
	pushq	%rbp
	.cfi_def_cfa_offset 16
	.cfi_offset %rbp, -16
	movq	%rsp, %rbp
	.cfi_def_cfa_register %rbp
Ltmp219:
	pushq	%r15
	pushq	%r14
	pushq	%r12
	pushq	%rbx
	subq	$32, %rsp
	.cfi_offset %rbx, -48
	.cfi_offset %r12, -40
	.cfi_offset %r14, -32
	.cfi_offset %r15, -24
	.loc	1 2022 71 prologue_end
	movq	(%rdi), %rbx
Ltmp220:
	.file	14 "/Users/yingyuhang/.cargo/registry/src/github.com-1ecc6299db9ec823/gimli-0.22.0/src/read/cfi.rs"
	.loc	14 813 26
	leaq	l___unnamed_65(%rip), %rdx
	leaq	-56(%rbp), %r15
	movl	$20, %ecx
	movq	%r15, %rdi
Ltmp221:
	callq	__ZN4core3fmt9Formatter12debug_struct17ha1a64e91d2a98458E
Ltmp222:
	.loc	14 816 5
	movq	%rbx, -40(%rbp)
Ltmp223:
	.loc	14 820 5
	leaq	16(%rbx), %r12
	.loc	14 829 5
	addq	$32, %rbx
Ltmp224:
	.loc	14 813 26
	leaq	l___unnamed_66(%rip), %rsi
	leaq	l___unnamed_13(%rip), %r14
	leaq	-40(%rbp), %rcx
	movl	$7, %edx
	movq	%r15, %rdi
	movq	%r14, %r8
	callq	__ZN4core3fmt8builders11DebugStruct5field17h6c54d35ac41bb1e6E
	.loc	14 820 5
	movq	%r12, -40(%rbp)
	.loc	14 813 26
	leaq	L___unnamed_67(%rip), %rsi
	leaq	-40(%rbp), %rcx
	movl	$4, %edx
	movq	%r15, %rdi
	movq	%r14, %r8
	callq	__ZN4core3fmt8builders11DebugStruct5field17h6c54d35ac41bb1e6E
	.loc	14 829 5
	movq	%rbx, -40(%rbp)
	.loc	14 813 26
	leaq	L___unnamed_68(%rip), %rsi
	leaq	-40(%rbp), %rcx
	movl	$4, %edx
	movq	%r15, %rdi
	movq	%r14, %r8
	callq	__ZN4core3fmt8builders11DebugStruct5field17h6c54d35ac41bb1e6E
	movq	%r15, %rdi
	callq	__ZN4core3fmt8builders11DebugStruct6finish17h67ed49fd5e81bb24E
Ltmp225:
	.loc	1 2022 84
	addq	$32, %rsp
	popq	%rbx
	popq	%r12
	popq	%r14
	popq	%r15
	popq	%rbp
	retq
Ltmp226:
Lfunc_end23:
	.cfi_endproc

	.p2align	4, 0x90
__ZN42_$LT$$RF$T$u20$as$u20$core..fmt..Debug$GT$3fmt17h9208c548e9cf9595E:
Lfunc_begin24:
	.loc	1 2022 0
	.cfi_startproc
	pushq	%rbp
	.cfi_def_cfa_offset 16
	.cfi_offset %rbp, -16
	movq	%rsp, %rbp
	.cfi_def_cfa_register %rbp
Ltmp227:
	pushq	%r14
	pushq	%rbx
	subq	$32, %rsp
	.cfi_offset %rbx, -32
	.cfi_offset %r14, -24
	.loc	1 2022 71 prologue_end
	movq	(%rdi), %rbx
Ltmp228:
	.loc	3 61 18
	leaq	l___unnamed_69(%rip), %rdx
	leaq	-48(%rbp), %r14
	movl	$10, %ecx
	movq	%r14, %rdi
Ltmp229:
	callq	__ZN4core3fmt9Formatter11debug_tuple17h6c448643801d07e8E
Ltmp230:
	.loc	3 62 33
	movq	%rbx, -24(%rbp)
	.loc	3 61 18
	leaq	l___unnamed_7(%rip), %rdx
	leaq	-24(%rbp), %rsi
	movq	%r14, %rdi
	callq	__ZN4core3fmt8builders10DebugTuple5field17hc7b676d0e36b51d9E
	movq	%r14, %rdi
	callq	__ZN4core3fmt8builders10DebugTuple6finish17h9f206806f7096c33E
Ltmp231:
	.loc	1 2022 84
	addq	$32, %rsp
	popq	%rbx
	popq	%r14
	popq	%rbp
	retq
Ltmp232:
Lfunc_end24:
	.cfi_endproc

	.p2align	4, 0x90
__ZN42_$LT$$RF$T$u20$as$u20$core..fmt..Debug$GT$3fmt17h957ff93690efe90eE:
Lfunc_begin25:
	.loc	1 2022 0
	.cfi_startproc
	pushq	%rbp
	.cfi_def_cfa_offset 16
	.cfi_offset %rbp, -16
	movq	%rsp, %rbp
	.cfi_def_cfa_register %rbp
Ltmp233:
	pushq	%r15
	pushq	%r14
	pushq	%r13
	pushq	%r12
	pushq	%rbx
	subq	$136, %rsp
	.cfi_offset %rbx, -56
	.cfi_offset %r12, -48
	.cfi_offset %r13, -40
	.cfi_offset %r14, -32
	.cfi_offset %r15, -24
	.loc	1 2022 71 prologue_end
	movq	(%rdi), %r14
Ltmp234:
	.loc	1 0 71 is_stmt 0
	leaq	-168(%rbp), %rdi
Ltmp235:
	.file	15 "/rustc/6c8927b0cf80ceee19386026cf9d7fd4fd9d486f/src/liballoc/collections/btree/map.rs"
	.loc	15 1929 9 is_stmt 1
	callq	__ZN4core3fmt9Formatter9debug_map17h61faa4280f099e87E
Ltmp236:
	.loc	15 2089 16
	movq	(%r14), %rcx
	testq	%rcx, %rcx
	je	LBB25_1
Ltmp237:
	.loc	15 2090 44
	movq	8(%r14), %rsi
Ltmp238:
	.file	16 "/rustc/6c8927b0cf80ceee19386026cf9d7fd4fd9d486f/src/liballoc/collections/btree/node.rs"
	.loc	16 299 9
	movzwl	10(%rcx), %edx
Ltmp239:
	.loc	16 690 12
	testq	%rsi, %rsi
Ltmp240:
	.loc	15 2053 14
	je	LBB25_3
Ltmp241:
	.loc	15 0 14 is_stmt 0
	movb	$1, %bl
	movq	%rcx, %r8
Ltmp242:
	.p2align	4, 0x90
LBB25_6:
	.loc	15 2056 33 is_stmt 1
	testb	$1, %bl
Ltmp243:
	je	LBB25_4
Ltmp244:
	.loc	16 690 12
	cmpq	$1, %rsi
	setne	%bl
Ltmp245:
	.loc	16 973 17
	movq	1336(%r8), %r8
Ltmp246:
	.loc	16 973 17 is_stmt 0
	movq	1336(%rcx,%rdx,8), %rcx
Ltmp247:
	.loc	16 299 9 is_stmt 1
	movzwl	10(%rcx), %edx
Ltmp248:
	.loc	16 690 12
	decq	%rsi
Ltmp249:
	.loc	15 2053 14
	jne	LBB25_6
	jmp	LBB25_8
Ltmp250:
LBB25_1:
	.loc	15 0 14 is_stmt 0
	xorl	%ecx, %ecx
	xorl	%r8d, %r8d
	xorl	%esi, %esi
	jmp	LBB25_9
Ltmp251:
LBB25_3:
	movq	%rcx, %r8
Ltmp252:
LBB25_8:
	.loc	15 2092 76 is_stmt 1
	movq	16(%r14), %rsi
Ltmp253:
	.loc	15 2092 13 is_stmt 0
	xorps	%xmm0, %xmm0
	movaps	%xmm0, -64(%rbp)
	movq	$0, -48(%rbp)
Ltmp254:
LBB25_9:
	.loc	12 915 23 is_stmt 1
	movq	$0, -136(%rbp)
	movq	%r8, -128(%rbp)
	movq	-64(%rbp), %rax
	movq	-56(%rbp), %rdi
	movq	%rax, -120(%rbp)
	movq	%rdi, -112(%rbp)
	movq	-48(%rbp), %rax
	movq	%rax, -104(%rbp)
	movq	%rcx, -96(%rbp)
	movq	$0, -88(%rbp)
	movq	%rdx, -80(%rbp)
	movq	%rsi, -72(%rbp)
Ltmp255:
	.loc	15 1307 12
	testq	%rsi, %rsi
	.loc	15 1307 9 is_stmt 0
	je	LBB25_28
Ltmp256:
	.loc	15 0 9
	leaq	l___unnamed_2(%rip), %r15
	leaq	-168(%rbp), %r12
	leaq	-144(%rbp), %r13
	leaq	-152(%rbp), %r14
Ltmp257:
	.p2align	4, 0x90
LBB25_11:
	.loc	15 1310 13 is_stmt 1
	decq	%rsi
	movq	%rsi, -72(%rbp)
Ltmp258:
	.loc	2 289 13
	testq	%r8, %r8
	leaq	-136(%rbp), %rax
	cmovneq	%rax, %r8
Ltmp259:
	.file	17 "/rustc/6c8927b0cf80ceee19386026cf9d7fd4fd9d486f/src/libcore/ptr/mod.rs"
	.loc	17 703 9
	movq	(%r8), %rbx
	movq	8(%r8), %rcx
Ltmp260:
	movq	24(%r8), %rdx
Ltmp261:
	.loc	16 299 9
	movzwl	10(%rcx), %eax
Ltmp262:
	.loc	16 824 12
	cmpq	%rax, %rdx
	.loc	16 824 9 is_stmt 0
	jb	LBB25_16
Ltmp263:
	.p2align	4, 0x90
LBB25_12:
	.loc	16 350 30 is_stmt 1
	movq	(%rcx), %rsi
Ltmp264:
	.loc	16 351 16
	testq	%rsi, %rsi
	je	LBB25_13
Ltmp265:
	.loc	16 354 29
	incq	%rbx
Ltmp266:
	.loc	16 359 43
	movzwl	8(%rcx), %edx
Ltmp267:
	.loc	16 0 43 is_stmt 0
	movq	%rsi, %rcx
Ltmp268:
	.loc	16 824 12 is_stmt 1
	cmpw	10(%rsi), %dx
	.loc	16 824 9 is_stmt 0
	jae	LBB25_12
Ltmp269:
	.file	18 "/rustc/6c8927b0cf80ceee19386026cf9d7fd4fd9d486f/src/libcore/result.rs"
	.loc	18 0 0
	movq	%rsi, %rcx
Ltmp270:
LBB25_16:
	.loc	16 690 12 is_stmt 1
	testq	%rbx, %rbx
Ltmp271:
	.file	19 "/rustc/6c8927b0cf80ceee19386026cf9d7fd4fd9d486f/src/liballoc/collections/btree/navigate.rs"
	.loc	19 241 13
	je	LBB25_17
Ltmp272:
LBB25_18:
	.loc	16 690 12
	movq	%rbx, %rsi
Ltmp273:
	.loc	16 973 17
	movq	1344(%rcx,%rdx,8), %rdi
Ltmp274:
	.loc	16 690 12
	decq	%rsi
Ltmp275:
	.loc	19 217 17
	je	LBB25_25
Ltmp276:
	addq	$-2, %rbx
	movq	%rsi, %r9
	andq	$7, %r9
	je	LBB25_23
Ltmp277:
	.loc	19 0 17 is_stmt 0
	xorl	%eax, %eax
Ltmp278:
	.p2align	4, 0x90
LBB25_21:
	movq	1336(%rdi), %rdi
Ltmp279:
	.loc	19 217 17
	incq	%rax
	cmpq	%rax, %r9
	jne	LBB25_21
Ltmp280:
	subq	%rax, %rsi
Ltmp281:
LBB25_23:
	cmpq	$7, %rbx
	jb	LBB25_25
Ltmp282:
	.p2align	4, 0x90
LBB25_24:
	.loc	19 0 0
	movq	1336(%rdi), %rax
Ltmp283:
	movq	1336(%rax), %rax
Ltmp284:
	movq	1336(%rax), %rax
Ltmp285:
	movq	1336(%rax), %rax
Ltmp286:
	movq	1336(%rax), %rax
Ltmp287:
	movq	1336(%rax), %rax
Ltmp288:
	movq	1336(%rax), %rax
Ltmp289:
	movq	1336(%rax), %rdi
Ltmp290:
	.loc	16 690 12 is_stmt 1
	addq	$-8, %rsi
Ltmp291:
	.loc	19 217 17
	jne	LBB25_24
Ltmp292:
LBB25_25:
	.loc	19 0 0 is_stmt 0
	xorl	%eax, %eax
	jmp	LBB25_26
Ltmp293:
	.p2align	4, 0x90
LBB25_13:
	xorl	%ecx, %ecx
Ltmp294:
	.loc	16 690 12 is_stmt 1
	testq	%rbx, %rbx
Ltmp295:
	.loc	19 241 13
	jne	LBB25_18
Ltmp296:
LBB25_17:
	.loc	19 0 13 is_stmt 0
	leaq	1(%rdx), %rax
	movq	%rcx, %rdi
Ltmp297:
LBB25_26:
	.file	20 "/rustc/6c8927b0cf80ceee19386026cf9d7fd4fd9d486f/src/libcore/ptr/const_ptr.rs"
	.loc	20 164 18 is_stmt 1
	leaq	16(%rcx,%rdx,8), %rsi
Ltmp298:
	.loc	16 985 13
	imulq	$112, %rdx, %rdx
	leaq	104(%rcx,%rdx), %rcx
Ltmp299:
	.loc	17 901 51
	movq	$0, (%r8)
	movq	%rdi, 8(%r8)
	movq	%rax, 24(%r8)
Ltmp300:
	.loc	12 915 14
	movq	%rsi, -144(%rbp)
	.loc	12 915 17 is_stmt 0
	movq	%rcx, -152(%rbp)
Ltmp301:
	.loc	12 916 13 is_stmt 1
	movq	%r12, %rdi
Ltmp302:
	movq	%r13, %rsi
Ltmp303:
	leaq	l___unnamed_1(%rip), %rdx
	movq	%r14, %rcx
Ltmp304:
	movq	%r15, %r8
Ltmp305:
	callq	__ZN4core3fmt8builders8DebugMap5entry17h178ce595077c16c4E
Ltmp306:
	.loc	15 1307 12
	movq	-72(%rbp), %rsi
	testq	%rsi, %rsi
	.loc	15 1307 9 is_stmt 0
	je	LBB25_28
Ltmp307:
	.loc	2 289 13 is_stmt 1
	movq	-128(%rbp), %r8
	jmp	LBB25_11
Ltmp308:
LBB25_28:
	.loc	2 0 13 is_stmt 0
	leaq	-168(%rbp), %rdi
	.loc	15 1929 9 is_stmt 1
	callq	__ZN4core3fmt8builders8DebugMap6finish17h0bc0c46ca49f31deE
Ltmp309:
	.loc	1 2022 84
	addq	$136, %rsp
	popq	%rbx
	popq	%r12
	popq	%r13
	popq	%r14
	popq	%r15
	popq	%rbp
	retq
LBB25_4:
Ltmp310:
	.file	21 "/rustc/6c8927b0cf80ceee19386026cf9d7fd4fd9d486f/src/libcore/macros/mod.rs"
	.loc	21 19 38
	leaq	l___unnamed_70(%rip), %rax
	movq	%rax, -64(%rbp)
	leaq	__ZN44_$LT$$RF$T$u20$as$u20$core..fmt..Display$GT$3fmt17h6e7f93f9125ef267E(%rip), %rax
	movq	%rax, -56(%rbp)
Ltmp311:
	.loc	1 328 9
	leaq	l___unnamed_71(%rip), %rax
Ltmp312:
	movq	%rax, -136(%rbp)
	movq	$1, -128(%rbp)
	movq	$0, -120(%rbp)
	leaq	-64(%rbp), %rax
Ltmp313:
	movq	%rax, -104(%rbp)
	movq	$1, -96(%rbp)
Ltmp314:
	.loc	21 19 9
	leaq	l___unnamed_72(%rip), %rsi
Ltmp315:
	.loc	21 0 9 is_stmt 0
	leaq	-136(%rbp), %rdi
	.loc	21 19 9
	callq	__ZN4core9panicking9panic_fmt17hfce5b7173905fc53E
Ltmp316:
Lfunc_end25:
	.cfi_endproc

	.p2align	4, 0x90
__ZN42_$LT$$RF$T$u20$as$u20$core..fmt..Debug$GT$3fmt17ha25372dba5c39cdfE:
Lfunc_begin26:
	.loc	1 2022 0 is_stmt 1
	.cfi_startproc
	pushq	%rbp
	.cfi_def_cfa_offset 16
	.cfi_offset %rbp, -16
	movq	%rsp, %rbp
	.cfi_def_cfa_register %rbp
	pushq	%r14
	pushq	%rbx
	.cfi_offset %rbx, -32
	.cfi_offset %r14, -24
	movq	%rsi, %rbx
Ltmp317:
	.loc	1 2022 71 prologue_end
	movq	(%rdi), %r14
Ltmp318:
	.loc	5 149 20
	movq	%rsi, %rdi
Ltmp319:
	callq	__ZN4core3fmt9Formatter15debug_lower_hex17hd07f6fde8d0365dfE
	.loc	5 149 17 is_stmt 0
	testb	%al, %al
	je	LBB26_1
Ltmp320:
	.loc	5 150 21 is_stmt 1
	movq	%r14, %rdi
	movq	%rbx, %rsi
	popq	%rbx
Ltmp321:
	popq	%r14
Ltmp322:
	popq	%rbp
	jmp	__ZN4core3fmt3num53_$LT$impl$u20$core..fmt..LowerHex$u20$for$u20$i64$GT$3fmt17h4ef40751c6de7de0E
LBB26_1:
Ltmp323:
	.loc	5 151 27
	movq	%rbx, %rdi
	callq	__ZN4core3fmt9Formatter15debug_upper_hex17hf480c256a9c81c1eE
	.loc	5 154 21
	movq	%r14, %rdi
	movq	%rbx, %rsi
	.loc	5 151 24
	testb	%al, %al
	je	LBB26_4
Ltmp324:
	.loc	5 152 21
	popq	%rbx
Ltmp325:
	popq	%r14
Ltmp326:
	popq	%rbp
	jmp	__ZN4core3fmt3num53_$LT$impl$u20$core..fmt..UpperHex$u20$for$u20$i64$GT$3fmt17h98e190490afbae54E
LBB26_4:
Ltmp327:
	.loc	5 154 21
	popq	%rbx
Ltmp328:
	popq	%r14
Ltmp329:
	popq	%rbp
	jmp	__ZN4core3fmt3num3imp52_$LT$impl$u20$core..fmt..Display$u20$for$u20$i64$GT$3fmt17h310ed6661e8c983fE
Ltmp330:
Lfunc_end26:
	.cfi_endproc

	.p2align	4, 0x90
__ZN42_$LT$$RF$T$u20$as$u20$core..fmt..Debug$GT$3fmt17ha3f9cbdd6e7c995cE:
Lfunc_begin27:
	.loc	1 2022 0
	.cfi_startproc
	pushq	%rbp
	.cfi_def_cfa_offset 16
	.cfi_offset %rbp, -16
	movq	%rsp, %rbp
	.cfi_def_cfa_register %rbp
Ltmp331:
	pushq	%r15
	pushq	%r14
	pushq	%r13
	pushq	%r12
	pushq	%rbx
	subq	$24, %rsp
	.cfi_offset %rbx, -56
	.cfi_offset %r12, -48
	.cfi_offset %r13, -40
	.cfi_offset %r14, -32
	.cfi_offset %r15, -24
	.loc	1 2022 71 prologue_end
	movq	(%rdi), %rax
Ltmp332:
	.loc	10 818 19
	movq	(%rax), %r13
Ltmp333:
	.loc	10 1923 55
	movq	16(%rax), %rbx
Ltmp334:
	.loc	10 0 55 is_stmt 0
	leaq	-64(%rbp), %rdi
Ltmp335:
	.loc	1 2211 9 is_stmt 1
	callq	__ZN4core3fmt9Formatter10debug_list17h113a4e31f24f00d7E
Ltmp336:
	.loc	11 3440 9
	testq	%rbx, %rbx
	.loc	11 3570 21
	je	LBB27_3
Ltmp337:
	imulq	$112, %rbx, %rbx
Ltmp338:
	.loc	11 0 21 is_stmt 0
	leaq	l___unnamed_2(%rip), %r14
	leaq	-64(%rbp), %r15
	leaq	-48(%rbp), %r12
Ltmp339:
	.p2align	4, 0x90
LBB27_2:
	.loc	12 661 22 is_stmt 1
	movq	%r13, -48(%rbp)
Ltmp340:
	.loc	13 92 18
	addq	$112, %r13
Ltmp341:
	.loc	12 662 13
	movq	%r15, %rdi
	movq	%r12, %rsi
	movq	%r14, %rdx
	callq	__ZN4core3fmt8builders9DebugList5entry17h2dea26f6c644471aE
Ltmp342:
	.loc	11 3440 9
	addq	$-112, %rbx
	.loc	11 3570 21
	jne	LBB27_2
Ltmp343:
LBB27_3:
	.loc	11 0 21 is_stmt 0
	leaq	-64(%rbp), %rdi
	.loc	1 2211 9 is_stmt 1
	callq	__ZN4core3fmt8builders9DebugList6finish17h1537bc92ee1acb1cE
Ltmp344:
	.loc	1 2022 84
	addq	$24, %rsp
	popq	%rbx
	popq	%r12
	popq	%r13
	popq	%r14
	popq	%r15
	popq	%rbp
	retq
Ltmp345:
Lfunc_end27:
	.cfi_endproc

	.p2align	4, 0x90
__ZN42_$LT$$RF$T$u20$as$u20$core..fmt..Debug$GT$3fmt17habb5df06179b9533E:
Lfunc_begin28:
	.loc	1 2022 0
	.cfi_startproc
	pushq	%rbp
	.cfi_def_cfa_offset 16
	.cfi_offset %rbp, -16
	movq	%rsp, %rbp
	.cfi_def_cfa_register %rbp
Ltmp346:
	.loc	1 2022 71 prologue_end
	movq	(%rdi), %rdi
Ltmp347:
	.loc	1 2022 62 is_stmt 0
	popq	%rbp
	jmp	__ZN4core3fmt5float50_$LT$impl$u20$core..fmt..Debug$u20$for$u20$f32$GT$3fmt17ha9420faa99d1b790E
Ltmp348:
Lfunc_end28:
	.cfi_endproc

	.p2align	4, 0x90
__ZN42_$LT$$RF$T$u20$as$u20$core..fmt..Debug$GT$3fmt17hb0585ead8f278bbbE:
Lfunc_begin29:
	.loc	1 2022 0 is_stmt 1
	.cfi_startproc
	pushq	%rbp
	.cfi_def_cfa_offset 16
	.cfi_offset %rbp, -16
	movq	%rsp, %rbp
	.cfi_def_cfa_register %rbp
	pushq	%r14
	pushq	%rbx
	.cfi_offset %rbx, -32
	.cfi_offset %r14, -24
	movq	%rsi, %rbx
Ltmp349:
	.loc	1 2022 71 prologue_end
	movq	(%rdi), %r14
Ltmp350:
	.loc	5 149 20
	movq	%rsi, %rdi
Ltmp351:
	callq	__ZN4core3fmt9Formatter15debug_lower_hex17hd07f6fde8d0365dfE
	.loc	5 149 17 is_stmt 0
	testb	%al, %al
	je	LBB29_1
Ltmp352:
	.loc	5 150 21 is_stmt 1
	movq	%r14, %rdi
	movq	%rbx, %rsi
	popq	%rbx
Ltmp353:
	popq	%r14
Ltmp354:
	popq	%rbp
	jmp	__ZN4core3fmt3num53_$LT$impl$u20$core..fmt..LowerHex$u20$for$u20$i16$GT$3fmt17h7236122704e16c86E
LBB29_1:
Ltmp355:
	.loc	5 151 27
	movq	%rbx, %rdi
	callq	__ZN4core3fmt9Formatter15debug_upper_hex17hf480c256a9c81c1eE
	.loc	5 154 21
	movq	%r14, %rdi
	movq	%rbx, %rsi
	.loc	5 151 24
	testb	%al, %al
	je	LBB29_4
Ltmp356:
	.loc	5 152 21
	popq	%rbx
Ltmp357:
	popq	%r14
Ltmp358:
	popq	%rbp
	jmp	__ZN4core3fmt3num53_$LT$impl$u20$core..fmt..UpperHex$u20$for$u20$i16$GT$3fmt17hf50bc938a2a1e02bE
LBB29_4:
Ltmp359:
	.loc	5 154 21
	popq	%rbx
Ltmp360:
	popq	%r14
Ltmp361:
	popq	%rbp
	jmp	__ZN4core3fmt3num3imp52_$LT$impl$u20$core..fmt..Display$u20$for$u20$i16$GT$3fmt17h7c7135e52a8bf68aE
Ltmp362:
Lfunc_end29:
	.cfi_endproc

	.p2align	4, 0x90
__ZN42_$LT$$RF$T$u20$as$u20$core..fmt..Debug$GT$3fmt17hbc094090e9f67942E:
Lfunc_begin30:
	.loc	1 2022 0
	.cfi_startproc
	pushq	%rbp
	.cfi_def_cfa_offset 16
	.cfi_offset %rbp, -16
	movq	%rsp, %rbp
	.cfi_def_cfa_register %rbp
Ltmp363:
	pushq	%r14
	pushq	%rbx
	subq	$32, %rsp
	.cfi_offset %rbx, -32
	.cfi_offset %r14, -24
	.loc	1 2022 71 prologue_end
	movq	(%rdi), %rbx
Ltmp364:
	.loc	2 146 48
	cmpl	$2, 8(%rbx)
	jne	LBB30_1
Ltmp365:
	leaq	L___unnamed_38(%rip), %rdx
	leaq	-48(%rbp), %rbx
Ltmp366:
	movl	$4, %ecx
	movq	%rbx, %rdi
Ltmp367:
	callq	__ZN4core3fmt9Formatter11debug_tuple17h6c448643801d07e8E
Ltmp368:
	.loc	2 146 48 is_stmt 0
	movq	%rbx, %rdi
	jmp	LBB30_3
Ltmp369:
LBB30_1:
	.loc	2 146 48
	leaq	L___unnamed_39(%rip), %rdx
	leaq	-48(%rbp), %r14
	movl	$4, %ecx
	movq	%r14, %rdi
Ltmp370:
	callq	__ZN4core3fmt9Formatter11debug_tuple17h6c448643801d07e8E
Ltmp371:
	.loc	2 155 56 is_stmt 1
	movq	%rbx, -24(%rbp)
	.loc	2 146 48
	leaq	l___unnamed_6(%rip), %rdx
	leaq	-24(%rbp), %rsi
	movq	%r14, %rdi
	callq	__ZN4core3fmt8builders10DebugTuple5field17hc7b676d0e36b51d9E
	movq	%r14, %rdi
Ltmp372:
LBB30_3:
	.loc	2 0 0 is_stmt 0
	callq	__ZN4core3fmt8builders10DebugTuple6finish17h9f206806f7096c33E
Ltmp373:
	.loc	1 2022 84 is_stmt 1
	addq	$32, %rsp
	popq	%rbx
	popq	%r14
	popq	%rbp
	retq
Ltmp374:
Lfunc_end30:
	.cfi_endproc

	.p2align	4, 0x90
__ZN42_$LT$$RF$T$u20$as$u20$core..fmt..Debug$GT$3fmt17hc107ac62fdaf37e5E:
Lfunc_begin31:
	.loc	1 2022 0
	.cfi_startproc
	pushq	%rbp
	.cfi_def_cfa_offset 16
	.cfi_offset %rbp, -16
	movq	%rsp, %rbp
	.cfi_def_cfa_register %rbp
	pushq	%r14
	pushq	%rbx
	.cfi_offset %rbx, -32
	.cfi_offset %r14, -24
	movq	%rsi, %rbx
Ltmp375:
	.loc	1 2022 71 prologue_end
	movq	(%rdi), %r14
Ltmp376:
	.loc	5 149 20
	movq	%rsi, %rdi
Ltmp377:
	callq	__ZN4core3fmt9Formatter15debug_lower_hex17hd07f6fde8d0365dfE
	.loc	5 149 17 is_stmt 0
	testb	%al, %al
	je	LBB31_1
Ltmp378:
	.loc	5 150 21 is_stmt 1
	movq	%r14, %rdi
	movq	%rbx, %rsi
	popq	%rbx
Ltmp379:
	popq	%r14
Ltmp380:
	popq	%rbp
	jmp	__ZN4core3fmt3num52_$LT$impl$u20$core..fmt..LowerHex$u20$for$u20$i8$GT$3fmt17h5ba2f2472d1b08b3E
LBB31_1:
Ltmp381:
	.loc	5 151 27
	movq	%rbx, %rdi
	callq	__ZN4core3fmt9Formatter15debug_upper_hex17hf480c256a9c81c1eE
	.loc	5 154 21
	movq	%r14, %rdi
	movq	%rbx, %rsi
	.loc	5 151 24
	testb	%al, %al
	je	LBB31_4
Ltmp382:
	.loc	5 152 21
	popq	%rbx
Ltmp383:
	popq	%r14
Ltmp384:
	popq	%rbp
	jmp	__ZN4core3fmt3num52_$LT$impl$u20$core..fmt..UpperHex$u20$for$u20$i8$GT$3fmt17h36a1c2413d99c98eE
LBB31_4:
Ltmp385:
	.loc	5 154 21
	popq	%rbx
Ltmp386:
	popq	%r14
Ltmp387:
	popq	%rbp
	jmp	__ZN4core3fmt3num3imp51_$LT$impl$u20$core..fmt..Display$u20$for$u20$i8$GT$3fmt17hc9fc67837369c997E
Ltmp388:
Lfunc_end31:
	.cfi_endproc

	.p2align	4, 0x90
__ZN42_$LT$$RF$T$u20$as$u20$core..fmt..Debug$GT$3fmt17hd7a36493d9cb4452E:
Lfunc_begin32:
	.loc	1 2022 0
	.cfi_startproc
	pushq	%rbp
	.cfi_def_cfa_offset 16
	.cfi_offset %rbp, -16
	movq	%rsp, %rbp
	.cfi_def_cfa_register %rbp
Ltmp389:
	pushq	%r14
	pushq	%rbx
	subq	$32, %rsp
	.cfi_offset %rbx, -32
	.cfi_offset %r14, -24
	.loc	1 2022 71 prologue_end
	movq	(%rdi), %rax
Ltmp390:
	.loc	14 3278 23
	cmpl	$1, (%rax)
	.loc	14 0 0 is_stmt 0
	leaq	8(%rax), %rbx
	.loc	14 3278 23
	jne	LBB32_2
Ltmp391:
	.loc	14 3278 23
	leaq	L___unnamed_73(%rip), %rdx
	leaq	-48(%rbp), %r14
	movl	$8, %ecx
	jmp	LBB32_3
Ltmp392:
LBB32_2:
	.loc	14 3278 23
	leaq	l___unnamed_74(%rip), %rdx
	leaq	-48(%rbp), %r14
	movl	$6, %ecx
Ltmp393:
LBB32_3:
	.loc	14 0 0
	movq	%r14, %rdi
Ltmp394:
	callq	__ZN4core3fmt9Formatter11debug_tuple17h6c448643801d07e8E
Ltmp395:
	movq	%rbx, -24(%rbp)
	leaq	l___unnamed_1(%rip), %rdx
	leaq	-24(%rbp), %rsi
	movq	%r14, %rdi
	callq	__ZN4core3fmt8builders10DebugTuple5field17hc7b676d0e36b51d9E
	movq	%r14, %rdi
	callq	__ZN4core3fmt8builders10DebugTuple6finish17h9f206806f7096c33E
Ltmp396:
	.loc	1 2022 84 is_stmt 1
	addq	$32, %rsp
	popq	%rbx
	popq	%r14
	popq	%rbp
	retq
Ltmp397:
Lfunc_end32:
	.cfi_endproc

	.p2align	4, 0x90
__ZN42_$LT$$RF$T$u20$as$u20$core..fmt..Debug$GT$3fmt17he0be0624ac6ed78cE:
Lfunc_begin33:
	.loc	1 2022 0
	.cfi_startproc
	pushq	%rbp
	.cfi_def_cfa_offset 16
	.cfi_offset %rbp, -16
	movq	%rsp, %rbp
	.cfi_def_cfa_register %rbp
	pushq	%r14
	pushq	%rbx
	.cfi_offset %rbx, -32
	.cfi_offset %r14, -24
	movq	%rsi, %rbx
Ltmp398:
	.loc	1 2022 71 prologue_end
	movq	(%rdi), %r14
Ltmp399:
	.loc	5 149 20
	movq	%rsi, %rdi
Ltmp400:
	callq	__ZN4core3fmt9Formatter15debug_lower_hex17hd07f6fde8d0365dfE
	.loc	5 149 17 is_stmt 0
	testb	%al, %al
	je	LBB33_1
Ltmp401:
	.loc	5 150 21 is_stmt 1
	movq	%r14, %rdi
	movq	%rbx, %rsi
	popq	%rbx
Ltmp402:
	popq	%r14
Ltmp403:
	popq	%rbp
	jmp	__ZN4core3fmt3num53_$LT$impl$u20$core..fmt..LowerHex$u20$for$u20$u32$GT$3fmt17h019ba2b9dd60d385E
LBB33_1:
Ltmp404:
	.loc	5 151 27
	movq	%rbx, %rdi
	callq	__ZN4core3fmt9Formatter15debug_upper_hex17hf480c256a9c81c1eE
	.loc	5 154 21
	movq	%r14, %rdi
	movq	%rbx, %rsi
	.loc	5 151 24
	testb	%al, %al
	je	LBB33_4
Ltmp405:
	.loc	5 152 21
	popq	%rbx
Ltmp406:
	popq	%r14
Ltmp407:
	popq	%rbp
	jmp	__ZN4core3fmt3num53_$LT$impl$u20$core..fmt..UpperHex$u20$for$u20$u32$GT$3fmt17h7bd10b5f3c9584f1E
LBB33_4:
Ltmp408:
	.loc	5 154 21
	popq	%rbx
Ltmp409:
	popq	%r14
Ltmp410:
	popq	%rbp
	jmp	__ZN4core3fmt3num3imp52_$LT$impl$u20$core..fmt..Display$u20$for$u20$u32$GT$3fmt17hb70882cf65fd1a66E
Ltmp411:
Lfunc_end33:
	.cfi_endproc

	.p2align	4, 0x90
__ZN42_$LT$$RF$T$u20$as$u20$core..fmt..Debug$GT$3fmt17he4e3dd85b9351fe9E:
Lfunc_begin34:
	.loc	1 2022 0
	.cfi_startproc
	pushq	%rbp
	.cfi_def_cfa_offset 16
	.cfi_offset %rbp, -16
	movq	%rsp, %rbp
	.cfi_def_cfa_register %rbp
Ltmp412:
	pushq	%r14
	pushq	%rbx
	subq	$32, %rsp
	.cfi_offset %rbx, -32
	.cfi_offset %r14, -24
	.loc	1 2022 71 prologue_end
	movq	(%rdi), %rbx
Ltmp413:
	.loc	3 61 18
	leaq	L___unnamed_75(%rip), %rdx
	leaq	-48(%rbp), %r14
	movl	$4, %ecx
	movq	%r14, %rdi
Ltmp414:
	callq	__ZN4core3fmt9Formatter11debug_tuple17h6c448643801d07e8E
Ltmp415:
	.loc	3 62 33
	movq	%rbx, -24(%rbp)
	.loc	3 61 18
	leaq	l___unnamed_7(%rip), %rdx
	leaq	-24(%rbp), %rsi
	movq	%r14, %rdi
	callq	__ZN4core3fmt8builders10DebugTuple5field17hc7b676d0e36b51d9E
	movq	%r14, %rdi
	callq	__ZN4core3fmt8builders10DebugTuple6finish17h9f206806f7096c33E
Ltmp416:
	.loc	1 2022 84
	addq	$32, %rsp
	popq	%rbx
	popq	%r14
	popq	%rbp
	retq
Ltmp417:
Lfunc_end34:
	.cfi_endproc

	.p2align	4, 0x90
__ZN42_$LT$$RF$T$u20$as$u20$core..fmt..Debug$GT$3fmt17hee03b6990e9dfb35E:
Lfunc_begin35:
	.loc	1 2022 0
	.cfi_startproc
	pushq	%rbp
	.cfi_def_cfa_offset 16
	.cfi_offset %rbp, -16
	movq	%rsp, %rbp
	.cfi_def_cfa_register %rbp
Ltmp418:
	pushq	%r14
	pushq	%rbx
	subq	$32, %rsp
	.cfi_offset %rbx, -32
	.cfi_offset %r14, -24
	.loc	1 2022 71 prologue_end
	movq	(%rdi), %rbx
Ltmp419:
	.loc	3 61 18
	leaq	l___unnamed_76(%rip), %rdx
	leaq	-48(%rbp), %r14
	movl	$6, %ecx
	movq	%r14, %rdi
Ltmp420:
	callq	__ZN4core3fmt9Formatter11debug_tuple17h6c448643801d07e8E
Ltmp421:
	.loc	3 62 33
	movq	%rbx, -24(%rbp)
	.loc	3 61 18
	leaq	l___unnamed_9(%rip), %rdx
	leaq	-24(%rbp), %rsi
	movq	%r14, %rdi
	callq	__ZN4core3fmt8builders10DebugTuple5field17hc7b676d0e36b51d9E
	movq	%r14, %rdi
	callq	__ZN4core3fmt8builders10DebugTuple6finish17h9f206806f7096c33E
Ltmp422:
	.loc	1 2022 84
	addq	$32, %rsp
	popq	%rbx
	popq	%r14
	popq	%rbp
	retq
Ltmp423:
Lfunc_end35:
	.cfi_endproc

	.p2align	4, 0x90
__ZN42_$LT$$RF$T$u20$as$u20$core..fmt..Debug$GT$3fmt17hffb9bdecf4ec3c37E:
Lfunc_begin36:
	.loc	1 2022 0
	.cfi_startproc
	pushq	%rbp
	.cfi_def_cfa_offset 16
	.cfi_offset %rbp, -16
	movq	%rsp, %rbp
	.cfi_def_cfa_register %rbp
	pushq	%r14
	pushq	%rbx
	.cfi_offset %rbx, -32
	.cfi_offset %r14, -24
	movq	%rsi, %rbx
Ltmp424:
	.loc	1 2022 71 prologue_end
	movq	(%rdi), %r14
Ltmp425:
	.loc	5 149 20
	movq	%rsi, %rdi
Ltmp426:
	callq	__ZN4core3fmt9Formatter15debug_lower_hex17hd07f6fde8d0365dfE
	.loc	5 149 17 is_stmt 0
	testb	%al, %al
	je	LBB36_1
Ltmp427:
	.loc	5 150 21 is_stmt 1
	movq	%r14, %rdi
	movq	%rbx, %rsi
	popq	%rbx
Ltmp428:
	popq	%r14
Ltmp429:
	popq	%rbp
	jmp	__ZN4core3fmt3num52_$LT$impl$u20$core..fmt..LowerHex$u20$for$u20$u8$GT$3fmt17h35609b3cfed2e613E
LBB36_1:
Ltmp430:
	.loc	5 151 27
	movq	%rbx, %rdi
	callq	__ZN4core3fmt9Formatter15debug_upper_hex17hf480c256a9c81c1eE
	.loc	5 154 21
	movq	%r14, %rdi
	movq	%rbx, %rsi
	.loc	5 151 24
	testb	%al, %al
	je	LBB36_4
Ltmp431:
	.loc	5 152 21
	popq	%rbx
Ltmp432:
	popq	%r14
Ltmp433:
	popq	%rbp
	jmp	__ZN4core3fmt3num52_$LT$impl$u20$core..fmt..UpperHex$u20$for$u20$u8$GT$3fmt17hdec4e64a988d6129E
LBB36_4:
Ltmp434:
	.loc	5 154 21
	popq	%rbx
Ltmp435:
	popq	%r14
Ltmp436:
	popq	%rbp
	jmp	__ZN4core3fmt3num3imp51_$LT$impl$u20$core..fmt..Display$u20$for$u20$u8$GT$3fmt17hac49effbf87f075dE
Ltmp437:
Lfunc_end36:
	.cfi_endproc

	.p2align	4, 0x90
__ZN44_$LT$$RF$T$u20$as$u20$core..fmt..Display$GT$3fmt17h6e7f93f9125ef267E:
Lfunc_begin37:
	.loc	1 2022 0
	.cfi_startproc
	pushq	%rbp
	.cfi_def_cfa_offset 16
	.cfi_offset %rbp, -16
	movq	%rsp, %rbp
	.cfi_def_cfa_register %rbp
	movq	%rsi, %rdx
Ltmp438:
	.loc	1 2022 71 prologue_end
	movq	(%rdi), %rax
	movq	8(%rdi), %rsi
	.loc	1 2022 62 is_stmt 0
	movq	%rax, %rdi
Ltmp439:
	popq	%rbp
	jmp	__ZN42_$LT$str$u20$as$u20$core..fmt..Display$GT$3fmt17h6768afae62e94f93E
Ltmp440:
Lfunc_end37:
	.cfi_endproc

	.p2align	4, 0x90
__ZN4core3ptr13drop_in_place17h0c11ac3b3d376632E:
Lfunc_begin38:
	.loc	17 184 0 is_stmt 1
	.cfi_startproc
	pushq	%rbp
	.cfi_def_cfa_offset 16
	.cfi_offset %rbp, -16
	movq	%rsp, %rbp
	.cfi_def_cfa_register %rbp
Ltmp441:
	.loc	17 184 1 prologue_end
	popq	%rbp
	retq
Ltmp442:
Lfunc_end38:
	.cfi_endproc

	.p2align	4, 0x90
__ZN4core3ptr13drop_in_place17h4a851cd77e90a943E:
Lfunc_begin39:
	.loc	17 184 0
	.cfi_startproc
	pushq	%rbp
	.cfi_def_cfa_offset 16
	.cfi_offset %rbp, -16
	movq	%rsp, %rbp
	.cfi_def_cfa_register %rbp
Ltmp443:
	.loc	17 184 1 prologue_end
	cmpq	$0, 8(%rdi)
	je	LBB39_4
Ltmp444:
	.loc	17 184 1 is_stmt 0
	movq	24(%rdi), %rsi
Ltmp445:
	.file	22 "/rustc/6c8927b0cf80ceee19386026cf9d7fd4fd9d486f/src/liballoc/raw_vec.rs"
	.loc	22 235 40 is_stmt 1
	testq	%rsi, %rsi
	.loc	22 235 9 is_stmt 0
	je	LBB39_4
Ltmp446:
	.loc	17 0 0
	movq	16(%rdi), %rdi
Ltmp447:
	.loc	22 507 16 is_stmt 1
	testq	%rdi, %rdi
Ltmp448:
	je	LBB39_4
Ltmp449:
	.loc	22 0 0 is_stmt 0
	shlq	$4, %rsi
Ltmp450:
	.loc	22 507 16
	je	LBB39_4
Ltmp451:
	.file	23 "/rustc/6c8927b0cf80ceee19386026cf9d7fd4fd9d486f/src/liballoc/alloc.rs"
	.loc	23 102 14 is_stmt 1
	movl	$8, %edx
	popq	%rbp
	jmp	___rust_dealloc
Ltmp452:
LBB39_4:
	.loc	17 184 1
	popq	%rbp
	retq
Ltmp453:
Lfunc_end39:
	.cfi_endproc

	.p2align	4, 0x90
__ZN4core3ptr13drop_in_place17h7c22bdab08208369E:
Lfunc_begin40:
	.loc	17 184 0
	.cfi_startproc
	pushq	%rbp
	.cfi_def_cfa_offset 16
	.cfi_offset %rbp, -16
	movq	%rsp, %rbp
	.cfi_def_cfa_register %rbp
	movq	%rdi, %rax
Ltmp454:
	.loc	17 184 1 prologue_end
	movq	(%rdi), %rdi
Ltmp455:
	.loc	22 507 16
	testq	%rdi, %rdi
Ltmp456:
	.loc	22 235 9
	je	LBB40_2
Ltmp457:
	.loc	17 0 0 is_stmt 0
	movq	8(%rax), %rsi
Ltmp458:
	.loc	22 235 9
	testq	%rsi, %rsi
	je	LBB40_2
Ltmp459:
	.loc	23 102 14 is_stmt 1
	movl	$1, %edx
	popq	%rbp
	jmp	___rust_dealloc
Ltmp460:
LBB40_2:
	.loc	17 184 1
	popq	%rbp
	retq
Ltmp461:
Lfunc_end40:
	.cfi_endproc

	.p2align	4, 0x90
__ZN4core3ptr13drop_in_place17ha1710a5f18e65dbbE:
Lfunc_begin41:
	.loc	17 184 0
	.cfi_startproc
	pushq	%rbp
	.cfi_def_cfa_offset 16
	.cfi_offset %rbp, -16
	movq	%rsp, %rbp
	.cfi_def_cfa_register %rbp
Ltmp462:
	.loc	17 184 1 prologue_end
	movq	8(%rdi), %rsi
Ltmp463:
	.loc	22 235 40
	testq	%rsi, %rsi
	.loc	22 235 9 is_stmt 0
	je	LBB41_3
Ltmp464:
	.loc	17 0 0
	movq	(%rdi), %rdi
Ltmp465:
	.loc	22 507 16 is_stmt 1
	testq	%rdi, %rdi
Ltmp466:
	je	LBB41_3
Ltmp467:
	.loc	22 0 0 is_stmt 0
	shlq	$4, %rsi
Ltmp468:
	.loc	22 507 16
	je	LBB41_3
Ltmp469:
	.loc	23 102 14 is_stmt 1
	movl	$8, %edx
	popq	%rbp
	jmp	___rust_dealloc
Ltmp470:
LBB41_3:
	.loc	17 184 1
	popq	%rbp
	retq
Ltmp471:
Lfunc_end41:
	.cfi_endproc

	.p2align	4, 0x90
__ZN4core3ptr13drop_in_place17he8ac5bc5177d1213E:
Lfunc_begin42:
	.loc	17 184 0
	.cfi_startproc
	pushq	%rbp
	.cfi_def_cfa_offset 16
	.cfi_offset %rbp, -16
	movq	%rsp, %rbp
	.cfi_def_cfa_register %rbp
Ltmp472:
	.loc	17 184 1 prologue_end
	cmpq	$0, (%rdi)
	je	LBB42_4
Ltmp473:
	.loc	17 184 1 is_stmt 0
	movq	16(%rdi), %rsi
Ltmp474:
	.loc	22 235 40 is_stmt 1
	testq	%rsi, %rsi
	.loc	22 235 9 is_stmt 0
	je	LBB42_4
Ltmp475:
	.loc	17 0 0
	movq	8(%rdi), %rdi
Ltmp476:
	.loc	22 507 16 is_stmt 1
	testq	%rdi, %rdi
Ltmp477:
	je	LBB42_4
Ltmp478:
	.loc	22 0 0 is_stmt 0
	shlq	$4, %rsi
Ltmp479:
	.loc	22 507 16
	je	LBB42_4
Ltmp480:
	.loc	23 102 14 is_stmt 1
	movl	$8, %edx
	popq	%rbp
	jmp	___rust_dealloc
Ltmp481:
LBB42_4:
	.loc	17 184 1
	popq	%rbp
	retq
Ltmp482:
Lfunc_end42:
	.cfi_endproc

	.p2align	4, 0x90
__ZN5alloc3vec12Vec$LT$T$GT$7reserve17h0ab86ad625e9d64dE:
Lfunc_begin43:
	.loc	10 503 0
	.cfi_startproc
	pushq	%rbp
	.cfi_def_cfa_offset 16
	.cfi_offset %rbp, -16
	movq	%rsp, %rbp
	.cfi_def_cfa_register %rbp
	pushq	%r14
	pushq	%rbx
	.cfi_offset %rbx, -32
	.cfi_offset %r14, -24
	movq	%rsi, %rax
Ltmp483:
	.loc	22 309 12 prologue_end
	movq	8(%rdi), %rsi
Ltmp484:
	.loc	10 504 26
	movq	16(%rdi), %rcx
Ltmp485:
	.loc	6 3462 17
	movq	%rsi, %rdx
	subq	%rcx, %rdx
Ltmp486:
	.loc	22 373 9
	cmpq	%rax, %rdx
Ltmp487:
	.loc	22 309 9
	jae	LBB43_17
Ltmp488:
	.loc	6 3751 30
	addq	%rax, %rcx
Ltmp489:
	.loc	2 538 13
	jb	LBB43_18
Ltmp490:
	.loc	2 0 13 is_stmt 0
	movq	%rdi, %rbx
Ltmp491:
	.loc	22 408 28 is_stmt 1
	leaq	(%rsi,%rsi), %rax
Ltmp492:
	.file	24 "/rustc/6c8927b0cf80ceee19386026cf9d7fd4fd9d486f/src/libcore/cmp.rs"
	.loc	24 1016 9
	cmpq	%rcx, %rax
	.loc	24 0 0 is_stmt 0
	cmovaq	%rax, %rcx
Ltmp493:
	cmpq	$4, %rcx
	movl	$4, %eax
Ltmp494:
	cmovaq	%rcx, %rax
	movl	$16, %edx
Ltmp495:
	.file	25 "/rustc/6c8927b0cf80ceee19386026cf9d7fd4fd9d486f/src/libcore/alloc/layout.rs"
	.loc	25 286 85 is_stmt 1
	xorl	%ecx, %ecx
Ltmp496:
	.loc	6 3807 26
	mulq	%rdx
Ltmp497:
	movq	%rax, %r14
Ltmp498:
	.loc	6 0 26 is_stmt 0
	seto	%dl
Ltmp499:
	.loc	25 286 85 is_stmt 1
	setno	%dil
Ltmp500:
	.loc	22 235 9
	movq	%rsi, %rax
	.loc	22 235 40 is_stmt 0
	testq	%rsi, %rsi
	.loc	22 235 9
	je	LBB43_4
Ltmp501:
	.loc	22 0 9
	movq	(%rbx), %rax
Ltmp502:
LBB43_4:
	.loc	18 611 13 is_stmt 1
	testb	%dl, %dl
	jne	LBB43_18
Ltmp503:
	.loc	22 493 25
	testq	%rax, %rax
	je	LBB43_6
Ltmp504:
	.loc	22 0 0 is_stmt 0
	shlq	$4, %rsi
Ltmp505:
	.loc	23 205 12 is_stmt 1
	cmpq	%r14, %rsi
	.loc	23 205 9 is_stmt 0
	je	LBB43_15
Ltmp506:
	.loc	23 211 42 is_stmt 1
	testq	%rsi, %rsi
	je	LBB43_11
Ltmp507:
	.loc	23 124 14
	movl	$8, %edx
	movq	%rax, %rdi
	movq	%r14, %rcx
	callq	___rust_realloc
Ltmp508:
	.loc	18 611 13
	testq	%rax, %rax
	jne	LBB43_16
	jmp	LBB43_19
Ltmp509:
LBB43_6:
	.loc	22 0 0 is_stmt 0
	movb	%dil, %cl
	shlq	$3, %rcx
Ltmp510:
	.loc	23 170 16 is_stmt 1
	testq	%r14, %r14
	.loc	23 170 13 is_stmt 0
	je	LBB43_7
Ltmp511:
	.loc	23 80 14 is_stmt 1
	movq	%r14, %rdi
	movq	%rcx, %rsi
	callq	___rust_alloc
Ltmp512:
	.loc	18 611 13
	testq	%rax, %rax
	jne	LBB43_16
	jmp	LBB43_19
Ltmp513:
LBB43_7:
	.loc	22 0 0 is_stmt 0
	movq	%rcx, %rax
Ltmp514:
LBB43_15:
	.loc	18 611 13
	testq	%rax, %rax
	je	LBB43_19
Ltmp515:
LBB43_16:
	.loc	22 382 9 is_stmt 1
	movq	%rax, (%rbx)
Ltmp516:
	.loc	22 378 9
	shrq	$4, %r14
Ltmp517:
	.loc	22 383 9
	movq	%r14, 8(%rbx)
Ltmp518:
LBB43_17:
	.loc	10 505 6
	popq	%rbx
	popq	%r14
	popq	%rbp
	retq
LBB43_11:
Ltmp519:
	.loc	23 170 16
	testq	%r14, %r14
	.loc	23 170 13 is_stmt 0
	je	LBB43_12
Ltmp520:
	.loc	23 80 14 is_stmt 1
	movl	$8, %esi
Ltmp521:
	movq	%r14, %rdi
	callq	___rust_alloc
Ltmp522:
	.loc	18 611 13
	testq	%rax, %rax
	jne	LBB43_16
Ltmp523:
LBB43_19:
	.loc	22 302 47
	movl	$8, %esi
	movq	%r14, %rdi
	callq	__ZN5alloc5alloc18handle_alloc_error17h28974197717b8939E
Ltmp524:
LBB43_12:
	.loc	22 0 47 is_stmt 0
	movl	$8, %eax
Ltmp525:
	jmp	LBB43_16
Ltmp526:
LBB43_18:
	.loc	22 301 38 is_stmt 1
	callq	__ZN5alloc7raw_vec17capacity_overflow17h7526b10e27579d59E
Ltmp527:
Lfunc_end43:
	.cfi_endproc

	.globl	__ZN70_$LT$gimli..common..LineEncoding$u20$as$u20$core..default..Default$GT$7default17hb64f0de10b008266E
	.p2align	4, 0x90
__ZN70_$LT$gimli..common..LineEncoding$u20$as$u20$core..default..Default$GT$7default17hb64f0de10b008266E:
Lfunc_begin44:
	.loc	4 71 0
	.cfi_startproc
	pushq	%rbp
	.cfi_def_cfa_offset 16
	.cfi_offset %rbp, -16
	movq	%rsp, %rbp
	.cfi_def_cfa_register %rbp
	movabsq	$64340689153, %rax
Ltmp528:
	.loc	4 80 6 prologue_end
	popq	%rbp
	retq
Ltmp529:
Lfunc_end44:
	.cfi_endproc

	.globl	__ZN5gimli6common9SectionId4name17hf2aab5cfadcd2540E
	.p2align	4, 0x90
__ZN5gimli6common9SectionId4name17hf2aab5cfadcd2540E:
Lfunc_begin45:
	.loc	4 246 0
	.cfi_startproc
	pushq	%rbp
	.cfi_def_cfa_offset 16
	.cfi_offset %rbp, -16
	movq	%rsp, %rbp
	.cfi_def_cfa_register %rbp
	movl	$12, %edx
	leaq	l___unnamed_77(%rip), %rax
Ltmp530:
	.loc	4 248 13 prologue_end
	movzbl	%dil, %ecx
	leaq	LJTI45_0(%rip), %rsi
	movslq	(%rsi,%rcx,4), %rcx
	addq	%rsi, %rcx
	jmpq	*%rcx
Ltmp531:
LBB45_1:
	.loc	4 0 13 is_stmt 0
	movl	$13, %edx
	leaq	l___unnamed_78(%rip), %rax
	.loc	4 269 6 is_stmt 1
	popq	%rbp
	retq
Ltmp532:
LBB45_2:
	.loc	4 0 6 is_stmt 0
	movl	$11, %edx
	leaq	l___unnamed_79(%rip), %rax
	.loc	4 269 6
	popq	%rbp
	retq
Ltmp533:
LBB45_3:
	.loc	4 0 6
	movl	$14, %edx
	leaq	l___unnamed_80(%rip), %rax
	.loc	4 269 6
	popq	%rbp
	retq
Ltmp534:
LBB45_4:
	.loc	4 0 6
	leaq	l___unnamed_81(%rip), %rax
	.loc	4 269 6
	popq	%rbp
	retq
Ltmp535:
LBB45_5:
	.loc	4 0 6
	movl	$9, %edx
	leaq	l___unnamed_82(%rip), %rax
	.loc	4 269 6
	popq	%rbp
	retq
Ltmp536:
LBB45_6:
	.loc	4 0 6
	movl	$13, %edx
	leaq	l___unnamed_83(%rip), %rax
	.loc	4 269 6
	popq	%rbp
	retq
Ltmp537:
LBB45_7:
	.loc	4 0 6
	movl	$11, %edx
	leaq	l___unnamed_84(%rip), %rax
	.loc	4 269 6
	popq	%rbp
	retq
Ltmp538:
LBB45_8:
	.loc	4 0 6
	movl	$11, %edx
	leaq	l___unnamed_85(%rip), %rax
	.loc	4 269 6
	popq	%rbp
	retq
Ltmp539:
LBB45_9:
	.loc	4 0 6
	movl	$15, %edx
	leaq	l___unnamed_86(%rip), %rax
	.loc	4 269 6
	popq	%rbp
	retq
Ltmp540:
LBB45_10:
	.loc	4 0 6
	movl	$10, %edx
	leaq	l___unnamed_87(%rip), %rax
	.loc	4 269 6
	popq	%rbp
	retq
Ltmp541:
LBB45_11:
	.loc	4 0 6
	movl	$15, %edx
	leaq	l___unnamed_88(%rip), %rax
	.loc	4 269 6
	popq	%rbp
	retq
Ltmp542:
LBB45_12:
	.loc	4 0 6
	movl	$14, %edx
	leaq	l___unnamed_89(%rip), %rax
	.loc	4 269 6
	popq	%rbp
	retq
Ltmp543:
LBB45_13:
	.loc	4 0 6
	leaq	l___unnamed_90(%rip), %rax
	.loc	4 269 6
	popq	%rbp
	retq
Ltmp544:
LBB45_14:
	.loc	4 0 6
	movl	$15, %edx
	leaq	l___unnamed_91(%rip), %rax
	.loc	4 269 6
	popq	%rbp
	retq
Ltmp545:
LBB45_15:
	.loc	4 0 6
	movl	$15, %edx
	leaq	l___unnamed_92(%rip), %rax
	.loc	4 269 6
	popq	%rbp
	retq
Ltmp546:
LBB45_16:
	.loc	4 0 6
	movl	$13, %edx
	leaq	l___unnamed_93(%rip), %rax
	.loc	4 269 6
	popq	%rbp
	retq
Ltmp547:
LBB45_17:
	.loc	4 0 6
	movl	$15, %edx
	leaq	l___unnamed_94(%rip), %rax
	.loc	4 269 6
	popq	%rbp
	retq
Ltmp548:
LBB45_18:
	.loc	4 0 6
	movl	$10, %edx
	leaq	l___unnamed_95(%rip), %rax
	.loc	4 269 6
	popq	%rbp
	retq
Ltmp549:
LBB45_19:
	.loc	4 0 6
	movl	$18, %edx
	leaq	l___unnamed_96(%rip), %rax
Ltmp550:
LBB45_20:
	.loc	4 269 6
	popq	%rbp
	retq
Ltmp551:
Lfunc_end45:
	.cfi_endproc
	.p2align	2, 0x90
	.data_region jt32
.set L45_0_set_1, LBB45_1-LJTI45_0
.set L45_0_set_2, LBB45_2-LJTI45_0
.set L45_0_set_3, LBB45_3-LJTI45_0
.set L45_0_set_4, LBB45_4-LJTI45_0
.set L45_0_set_5, LBB45_5-LJTI45_0
.set L45_0_set_6, LBB45_6-LJTI45_0
.set L45_0_set_7, LBB45_7-LJTI45_0
.set L45_0_set_8, LBB45_8-LJTI45_0
.set L45_0_set_9, LBB45_9-LJTI45_0
.set L45_0_set_10, LBB45_10-LJTI45_0
.set L45_0_set_11, LBB45_11-LJTI45_0
.set L45_0_set_12, LBB45_12-LJTI45_0
.set L45_0_set_13, LBB45_13-LJTI45_0
.set L45_0_set_14, LBB45_14-LJTI45_0
.set L45_0_set_15, LBB45_15-LJTI45_0
.set L45_0_set_16, LBB45_16-LJTI45_0
.set L45_0_set_17, LBB45_17-LJTI45_0
.set L45_0_set_18, LBB45_18-LJTI45_0
.set L45_0_set_19, LBB45_19-LJTI45_0
.set L45_0_set_20, LBB45_20-LJTI45_0
LJTI45_0:
	.long	L45_0_set_1
	.long	L45_0_set_2
	.long	L45_0_set_3
	.long	L45_0_set_4
	.long	L45_0_set_5
	.long	L45_0_set_6
	.long	L45_0_set_7
	.long	L45_0_set_8
	.long	L45_0_set_9
	.long	L45_0_set_10
	.long	L45_0_set_11
	.long	L45_0_set_12
	.long	L45_0_set_13
	.long	L45_0_set_14
	.long	L45_0_set_15
	.long	L45_0_set_16
	.long	L45_0_set_17
	.long	L45_0_set_18
	.long	L45_0_set_19
	.long	L45_0_set_20
	.end_data_region

	.globl	__ZN5gimli6common9SectionId8dwo_name17h890ccadf0eb7dd09E
	.p2align	4, 0x90
__ZN5gimli6common9SectionId8dwo_name17h890ccadf0eb7dd09E:
Lfunc_begin46:
	.loc	4 272 0 is_stmt 1
	.cfi_startproc
	xorl	%eax, %eax
Ltmp552:
	.loc	4 274 13 prologue_end
	cmpb	$18, %dil
	ja	LBB46_1
Ltmp553:
	pushq	%rbp
	.cfi_def_cfa_offset 16
	.cfi_offset %rbp, -16
	movq	%rsp, %rbp
	.cfi_def_cfa_register %rbp
	movl	$17, %edx
	leaq	l___unnamed_97(%rip), %rcx
	movzbl	%dil, %esi
	leaq	LJTI46_0(%rip), %rdi
Ltmp554:
	.loc	4 0 13 is_stmt 0
	movslq	(%rdi,%rsi,4), %rsi
	addq	%rdi, %rsi
	popq	%rbp
	jmpq	*%rsi
LBB46_8:
	movl	$15, %edx
	leaq	l___unnamed_98(%rip), %rcx
	jmp	LBB46_9
LBB46_6:
	movl	$14, %edx
	leaq	l___unnamed_99(%rip), %rcx
	jmp	LBB46_9
LBB46_3:
	movl	$15, %edx
	leaq	l___unnamed_100(%rip), %rcx
	jmp	LBB46_9
LBB46_4:
	movl	$19, %edx
	leaq	l___unnamed_101(%rip), %rcx
	jmp	LBB46_9
LBB46_5:
	movl	$16, %edx
	leaq	L___unnamed_102(%rip), %rcx
	jmp	LBB46_9
LBB46_7:
	movl	$22, %edx
	leaq	l___unnamed_103(%rip), %rcx
LBB46_9:
	movq	%rcx, %rax
LBB46_10:
	.loc	4 283 6 is_stmt 1
	retq
LBB46_1:
Ltmp555:
	retq
Ltmp556:
Lfunc_end46:
	.cfi_endproc
	.p2align	2, 0x90
	.data_region jt32
.set L46_0_set_9, LBB46_9-LJTI46_0
.set L46_0_set_10, LBB46_10-LJTI46_0
.set L46_0_set_8, LBB46_8-LJTI46_0
.set L46_0_set_3, LBB46_3-LJTI46_0
.set L46_0_set_4, LBB46_4-LJTI46_0
.set L46_0_set_5, LBB46_5-LJTI46_0
.set L46_0_set_6, LBB46_6-LJTI46_0
.set L46_0_set_7, LBB46_7-LJTI46_0
LJTI46_0:
	.long	L46_0_set_9
	.long	L46_0_set_10
	.long	L46_0_set_10
	.long	L46_0_set_10
	.long	L46_0_set_10
	.long	L46_0_set_10
	.long	L46_0_set_8
	.long	L46_0_set_3
	.long	L46_0_set_10
	.long	L46_0_set_10
	.long	L46_0_set_4
	.long	L46_0_set_10
	.long	L46_0_set_5
	.long	L46_0_set_10
	.long	L46_0_set_10
	.long	L46_0_set_10
	.long	L46_0_set_10
	.long	L46_0_set_6
	.long	L46_0_set_7
	.end_data_region

	.globl	__ZN5gimli9constants6DwLang19default_lower_bound17h14472d47f79d7388E
	.p2align	4, 0x90
__ZN5gimli9constants6DwLang19default_lower_bound17h14472d47f79d7388E:
Lfunc_begin47:
	.loc	3 838 0
	.cfi_startproc
	.loc	3 840 13 prologue_end
	decl	%edi
Ltmp557:
	cmpw	$36, %di
	ja	LBB47_1
	pushq	%rbp
	.cfi_def_cfa_offset 16
	.cfi_offset %rbp, -16
	movq	%rsp, %rbp
	.cfi_def_cfa_register %rbp
	movswq	%di, %rax
	leaq	l_switch.table._ZN5gimli9constants6DwLang19default_lower_bound17h14472d47f79d7388E(%rip), %rcx
	movq	(%rcx,%rax,8), %rdx
	movl	$1, %eax
	popq	%rbp
	.loc	3 869 6
	retq
LBB47_1:
	.loc	3 0 6 is_stmt 0
	xorl	%eax, %eax
	.loc	3 869 6
	retq
Ltmp558:
Lfunc_end47:
	.cfi_endproc

	.globl	__ZN5gimli9constants6DwEhPe17is_valid_encoding17h1f330dea8dc3ea5aE
	.p2align	4, 0x90
__ZN5gimli9constants6DwEhPe17is_valid_encoding17h1f330dea8dc3ea5aE:
Lfunc_begin48:
	.loc	3 1316 0 is_stmt 1
	.cfi_startproc
	pushq	%rbp
	.cfi_def_cfa_offset 16
	.cfi_offset %rbp, -16
	movq	%rsp, %rbp
	.cfi_def_cfa_register %rbp
Ltmp559:
	.loc	3 62 33 prologue_end
	cmpb	$-1, %dil
Ltmp560:
	.loc	3 1317 9
	je	LBB48_1
Ltmp561:
	.loc	3 1293 16
	movl	%edi, %ecx
	andb	$15, %cl
	xorl	%eax, %eax
Ltmp562:
	.loc	3 1322 13
	cmpb	$12, %cl
	ja	LBB48_5
Ltmp563:
	.loc	3 0 13 is_stmt 0
	movzbl	%cl, %ecx
	movl	$7711, %edx
	btq	%rcx, %rdx
	jae	LBB48_5
Ltmp564:
	.loc	3 1329 13 is_stmt 1
	andb	$96, %dil
Ltmp565:
	cmpb	$96, %dil
	setne	%al
LBB48_5:
	.loc	3 1335 6
	popq	%rbp
	retq
LBB48_1:
Ltmp566:
	.loc	3 0 6 is_stmt 0
	movb	$1, %al
	.loc	3 1335 6
	popq	%rbp
	retq
Ltmp567:
Lfunc_end48:
	.cfi_endproc

	.globl	__ZN5gimli4read6abbrev13Abbreviations5empty17h8f284915dd4beee5E
	.p2align	4, 0x90
__ZN5gimli4read6abbrev13Abbreviations5empty17h8f284915dd4beee5E:
Lfunc_begin49:
	.loc	7 116 0 is_stmt 1
	.cfi_startproc
	pushq	%rbp
	.cfi_def_cfa_offset 16
	.cfi_offset %rbp, -16
	movq	%rsp, %rbp
	.cfi_def_cfa_register %rbp
	movq	%rdi, %rax
Ltmp568:
	.loc	7 117 9 prologue_end
	movq	$8, (%rdi)
	movq	$0, 40(%rdi)
	movq	$0, 8(%rdi)
	movq	$0, 16(%rdi)
	movq	$0, 24(%rdi)
	.loc	7 121 6
	popq	%rbp
	retq
Ltmp569:
Lfunc_end49:
	.cfi_endproc

	.globl	__ZN5gimli4read6abbrev13Abbreviations6insert17h2f5b69f10a6dd65fE
	.p2align	4, 0x90
__ZN5gimli4read6abbrev13Abbreviations6insert17h2f5b69f10a6dd65fE:
Lfunc_begin50:
	.loc	7 128 0
	.cfi_startproc
	.cfi_personality 155, _rust_eh_personality
	.cfi_lsda 16, Lexception0
	pushq	%rbp
	.cfi_def_cfa_offset 16
	.cfi_offset %rbp, -16
	movq	%rsp, %rbp
	.cfi_def_cfa_register %rbp
	pushq	%r15
	pushq	%r14
	pushq	%r13
	pushq	%r12
	pushq	%rbx
	subq	$3080, %rsp
	.cfi_offset %rbx, -56
	.cfi_offset %r12, -48
	.cfi_offset %r13, -40
	.cfi_offset %r14, -32
	.cfi_offset %r15, -24
	movq	%rsi, %r15
Ltmp581:
	.loc	7 129 26 prologue_end
	movq	(%rsi), %r12
Ltmp582:
	.loc	7 135 16
	movq	%r12, %rbx
	subq	$1, %rbx
	jb	LBB50_111
Ltmp583:
	.loc	7 0 16 is_stmt 0
	movq	%rdi, %r10
Ltmp584:
	.loc	7 135 16
	cmpq	16(%rdi), %rbx
	.loc	7 135 13
	jae	LBB50_2
Ltmp585:
LBB50_39:
	.loc	7 0 13
	movb	$1, %bl
Ltmp586:
	cmpq	$0, 8(%r15)
	je	LBB50_108
Ltmp587:
	movq	24(%r15), %rsi
	testq	%rsi, %rsi
	je	LBB50_108
Ltmp588:
	movq	16(%r15), %rdi
Ltmp589:
	testq	%rdi, %rdi
Ltmp590:
	je	LBB50_108
Ltmp591:
	shlq	$4, %rsi
Ltmp592:
	je	LBB50_108
Ltmp593:
	movl	$8, %edx
	callq	___rust_dealloc
Ltmp594:
	jmp	LBB50_108
Ltmp595:
LBB50_2:
	.loc	7 137 20 is_stmt 1
	jne	LBB50_44
Ltmp596:
	.loc	15 2236 9
	cmpq	$0, 40(%r10)
Ltmp597:
	.loc	7 138 20
	je	LBB50_4
Ltmp598:
	.loc	2 268 13
	movq	24(%r10), %rax
	testq	%rax, %rax
Ltmp599:
	.loc	15 542 53
	je	LBB50_4
Ltmp600:
	.loc	15 542 35 is_stmt 0
	movq	32(%r10), %r9
Ltmp601:
	.loc	15 0 35
	movq	$-1, %r8
Ltmp602:
LBB50_32:
	.loc	16 299 9 is_stmt 1
	movzwl	10(%rax), %edi
Ltmp603:
	.file	26 "/rustc/6c8927b0cf80ceee19386026cf9d7fd4fd9d486f/src/liballoc/collections/btree/search.rs"
	.loc	26 75 5
	leaq	(,%rdi,8), %rdx
Ltmp604:
	.loc	26 75 19 is_stmt 0
	movq	$-1, %rsi
Ltmp605:
LBB50_33:
	.loc	11 3440 9 is_stmt 1
	testq	%rdx, %rdx
	.loc	11 3570 21
	je	LBB50_34
Ltmp606:
	.loc	24 1151 21
	xorl	%ecx, %ecx
	.loc	24 1151 24 is_stmt 0
	cmpq	%r12, 24(%rax,%rsi,8)
	.loc	24 1151 21
	setne	%cl
Ltmp607:
	.loc	26 77 13 is_stmt 1
	cmovaq	%r8, %rcx
	incq	%rsi
	cmpq	$-1, %rcx
	je	LBB50_35
Ltmp608:
	addq	$-8, %rdx
	testq	%rcx, %rcx
	jne	LBB50_33
	jmp	LBB50_39
Ltmp609:
LBB50_34:
	.loc	26 0 13 is_stmt 0
	movq	%rdi, %rsi
Ltmp610:
LBB50_35:
	.loc	16 690 12 is_stmt 1
	testq	%r9, %r9
Ltmp611:
	.loc	26 29 17
	je	LBB50_4
Ltmp612:
	.loc	16 971 21
	decq	%r9
Ltmp613:
	.loc	26 26 27
	movq	1336(%rax,%rsi,8), %rax
Ltmp614:
	.loc	26 0 27 is_stmt 0
	jmp	LBB50_32
Ltmp615:
LBB50_44:
	.loc	2 856 16 is_stmt 1
	movq	24(%r10), %r14
	testq	%r14, %r14
	je	LBB50_46
Ltmp616:
	.loc	16 177 21
	movq	32(%r10), %rax
	jmp	LBB50_48
Ltmp617:
LBB50_4:
	.loc	16 0 21 is_stmt 0
	leaq	-1792(%rbp), %rdi
	.loc	7 141 35 is_stmt 1
	movl	$14, %ecx
	movq	%r15, %rsi
	rep;movsq (%rsi), %es:(%rdi)
Ltmp618:
	.loc	10 1204 12
	cmpq	8(%r10), %rbx
	.loc	10 1204 9 is_stmt 0
	jne	LBB50_5
Ltmp619:
	.loc	6 3751 30 is_stmt 1
	movq	%rbx, %rcx
	incq	%rcx
Ltmp620:
	.loc	2 538 13
	je	LBB50_27
Ltmp621:
	.loc	22 408 28
	leaq	(%rbx,%rbx), %rax
Ltmp622:
	.loc	24 1016 9
	cmpq	%rcx, %rax
	.loc	24 0 0 is_stmt 0
	cmovaq	%rax, %rcx
Ltmp623:
	cmpq	$4, %rcx
	movl	$4, %eax
Ltmp624:
	cmovaq	%rcx, %rax
	movl	$112, %ecx
Ltmp625:
	.loc	25 286 85 is_stmt 1
	xorl	%esi, %esi
Ltmp626:
	.loc	6 3807 26
	mulq	%rcx
Ltmp627:
	movq	%rax, %r14
Ltmp628:
	.loc	6 0 26 is_stmt 0
	seto	%dl
Ltmp629:
	.loc	25 286 85 is_stmt 1
	setno	%al
Ltmp630:
	.loc	22 235 9
	movq	%rbx, %rcx
	.loc	22 235 40 is_stmt 0
	testq	%rbx, %rbx
	.loc	22 235 9
	je	LBB50_12
Ltmp631:
	.loc	22 0 9
	movq	(%r10), %rcx
Ltmp632:
LBB50_12:
	.loc	18 611 13 is_stmt 1
	testb	%dl, %dl
	jne	LBB50_27
Ltmp633:
	.loc	22 493 25
	testq	%rcx, %rcx
	je	LBB50_14
Ltmp634:
	.loc	22 0 0 is_stmt 0
	imulq	$112, %rbx, %rsi
Ltmp635:
	.loc	23 205 12 is_stmt 1
	cmpq	%r14, %rsi
	.loc	23 205 9 is_stmt 0
	je	LBB50_24
Ltmp636:
	.loc	23 0 9
	movq	%r10, %r15
Ltmp637:
	.loc	23 211 42 is_stmt 1
	testq	%rsi, %rsi
	je	LBB50_19
Ltmp638:
	.loc	23 124 14
	movl	$8, %edx
	movq	%rcx, %rdi
	movq	%r14, %rcx
Ltmp639:
	callq	___rust_realloc
Ltmp640:
	.loc	23 0 14 is_stmt 0
	jmp	LBB50_23
Ltmp641:
LBB50_46:
	movq	%r10, %rbx
Ltmp642:
	.loc	16 75 9 is_stmt 1
	leaq	-3116(%rbp), %rdi
	movl	$1320, %esi
	callq	___bzero
Ltmp643:
	.loc	23 80 14
	movl	$1336, %edi
	movl	$8, %esi
	callq	___rust_alloc
Ltmp644:
	.loc	23 278 9
	testq	%rax, %rax
	je	LBB50_112
Ltmp645:
	.file	27 "/rustc/6c8927b0cf80ceee19386026cf9d7fd4fd9d486f/src/liballoc/boxed.rs"
	.loc	27 0 0 is_stmt 0
	movq	%rax, %r14
	.loc	27 176 13 is_stmt 1
	movq	$0, (%rax)
	movw	$0, 10(%rax)
	movq	%rax, %rdi
	addq	$12, %rdi
	leaq	-3120(%rbp), %rsi
	movl	$1324, %edx
	callq	_memcpy
	movq	%rbx, %r10
Ltmp646:
	.loc	2 857 13
	movq	%r14, 24(%rbx)
	movq	$0, 32(%rbx)
	xorl	%eax, %eax
Ltmp647:
LBB50_48:
	.loc	2 0 13 is_stmt 0
	movq	$-1, %rcx
Ltmp648:
LBB50_49:
	.loc	16 299 9 is_stmt 1
	movzwl	10(%r14), %edx
Ltmp649:
	.loc	16 463 63
	leaq	16(%r14), %r13
Ltmp650:
	.loc	26 75 5
	leaq	(,%rdx,8), %rsi
Ltmp651:
	.loc	26 75 19 is_stmt 0
	movq	$-1, %rbx
Ltmp652:
LBB50_50:
	.loc	11 3440 9 is_stmt 1
	testq	%rsi, %rsi
	.loc	11 3570 21
	je	LBB50_51
Ltmp653:
	.loc	24 1151 21
	xorl	%edi, %edi
	.loc	24 1151 24 is_stmt 0
	cmpq	%r12, 8(%r13,%rbx,8)
	.loc	24 1151 21
	setne	%dil
Ltmp654:
	.loc	26 77 13 is_stmt 1
	cmovaq	%rcx, %rdi
	incq	%rbx
	cmpq	$-1, %rdi
	je	LBB50_52
Ltmp655:
	addq	$-8, %rsi
	testq	%rdi, %rdi
	jne	LBB50_50
	jmp	LBB50_39
Ltmp656:
LBB50_51:
	.loc	26 0 13 is_stmt 0
	movq	%rdx, %rbx
Ltmp657:
	.p2align	4, 0x90
LBB50_52:
	.loc	16 690 12 is_stmt 1
	testq	%rax, %rax
Ltmp658:
	.loc	26 29 17
	je	LBB50_56
Ltmp659:
	.loc	16 971 21
	decq	%rax
Ltmp660:
	.loc	26 26 27
	movq	1336(%r14,%rbx,8), %r14
Ltmp661:
	.loc	26 0 27 is_stmt 0
	jmp	LBB50_49
Ltmp662:
LBB50_5:
	.loc	10 854 19 is_stmt 1
	movq	(%r10), %rcx
	jmp	LBB50_6
Ltmp663:
LBB50_14:
	.loc	22 0 0 is_stmt 0
	movb	%al, %sil
	shlq	$3, %rsi
Ltmp664:
	.loc	23 170 16 is_stmt 1
	testq	%r14, %r14
	.loc	23 170 13 is_stmt 0
	je	LBB50_15
Ltmp665:
	.loc	23 80 14 is_stmt 1
	movq	%r14, %rdi
	movq	%r10, %rbx
Ltmp666:
	callq	___rust_alloc
Ltmp667:
	.loc	23 0 14 is_stmt 0
	movq	%rbx, %r10
	.loc	23 80 14
	movq	%rax, %rcx
Ltmp668:
	.loc	23 0 14
	jmp	LBB50_24
Ltmp669:
LBB50_15:
	movq	%rsi, %rcx
Ltmp670:
	jmp	LBB50_24
Ltmp671:
LBB50_19:
	.loc	23 170 16 is_stmt 1
	testq	%r14, %r14
	.loc	23 170 13 is_stmt 0
	je	LBB50_20
Ltmp672:
	.loc	23 80 14 is_stmt 1
	movl	$8, %esi
Ltmp673:
	movq	%r14, %rdi
	callq	___rust_alloc
Ltmp674:
LBB50_23:
	.loc	23 0 0 is_stmt 0
	movq	%rax, %rcx
Ltmp675:
	movq	%r15, %r10
Ltmp676:
LBB50_24:
	.loc	18 611 13 is_stmt 1
	testq	%rcx, %rcx
	je	LBB50_29
Ltmp677:
	.loc	10 1208 45
	movq	16(%r10), %rbx
Ltmp678:
LBB50_26:
	.loc	22 382 9
	movq	%rcx, (%r10)
Ltmp679:
	.loc	22 378 9
	shrq	$4, %r14
Ltmp680:
	.loc	22 0 9 is_stmt 0
	movabsq	$2635249153387078803, %rdx
	.loc	22 378 9
	movq	%r14, %rax
	mulq	%rdx
Ltmp681:
	.loc	22 383 9 is_stmt 1
	movq	%rdx, 8(%r10)
Ltmp682:
LBB50_6:
	.file	28 "/rustc/6c8927b0cf80ceee19386026cf9d7fd4fd9d486f/src/libcore/ptr/mut_ptr.rs"
	.loc	28 165 18
	imulq	$112, %rbx, %rdi
	addq	%rcx, %rdi
	leaq	-1792(%rbp), %rsi
Ltmp683:
	.loc	17 901 51
	movl	$14, %ecx
Ltmp684:
	rep;movsq (%rsi), %es:(%rdi)
Ltmp685:
	.loc	10 1210 13
	incq	16(%r10)
Ltmp686:
LBB50_107:
	.loc	10 0 13 is_stmt 0
	xorl	%ebx, %ebx
LBB50_108:
	.loc	7 153 6 is_stmt 1
	movl	%ebx, %eax
	addq	$3080, %rsp
	popq	%rbx
	popq	%r12
	popq	%r13
	popq	%r14
	popq	%r15
	popq	%rbp
	retq
LBB50_56:
Ltmp687:
	.loc	15 2449 9
	incq	40(%r10)
	leaq	-352(%rbp), %rdi
Ltmp688:
	.loc	15 2457 65
	movl	$14, %ecx
	movq	%r15, %rsi
	rep;movsq (%rsi), %es:(%rdi)
Ltmp689:
	.loc	16 299 9
	movzwl	10(%r14), %r15d
Ltmp690:
	cmpq	$11, %r15
Ltmp691:
	.loc	16 857 9
	jae	LBB50_57
Ltmp692:
	.loc	20 164 18
	leaq	(%r13,%rbx,8), %rsi
Ltmp693:
	.loc	28 165 18
	leaq	8(%r13,%rbx,8), %rdi
Ltmp694:
	.loc	16 1477 77
	movq	%r15, %r13
Ltmp695:
	subq	%rbx, %r13
Ltmp696:
	.file	29 "/rustc/6c8927b0cf80ceee19386026cf9d7fd4fd9d486f/src/libcore/intrinsics.rs"
	.loc	29 2198 14
	leaq	(,%r13,8), %rdx
	callq	_memmove
Ltmp697:
	.loc	17 901 51
	movq	%r12, 16(%r14,%rbx,8)
Ltmp698:
	.loc	16 1477 67
	imulq	$112, %rbx, %rax
Ltmp699:
	.loc	20 164 18
	leaq	104(%r14,%rax), %rbx
Ltmp700:
	.loc	28 165 18
	leaq	216(%r14,%rax), %rdi
Ltmp701:
	.loc	29 2198 14
	imulq	$112, %r13, %rdx
	movq	%rbx, %rsi
	callq	_memmove
Ltmp702:
	.loc	29 0 14 is_stmt 0
	leaq	-352(%rbp), %rsi
Ltmp703:
	.loc	17 901 51 is_stmt 1
	movl	$14, %ecx
	movq	%rbx, %rdi
	rep;movsq (%rsi), %es:(%rdi)
Ltmp704:
	.loc	16 846 13
	leal	1(%r15), %eax
	movw	%ax, 10(%r14)
Ltmp705:
	.loc	16 0 13 is_stmt 0
	jmp	LBB50_107
Ltmp706:
LBB50_57:
	movq	%r10, -136(%rbp)
Ltmp707:
	.loc	16 75 9 is_stmt 1
	leaq	-1788(%rbp), %rdi
	movl	$1320, %esi
	callq	___bzero
Ltmp708:
	.loc	23 80 14
	movl	$1336, %edi
	movl	$8, %esi
	callq	___rust_alloc
Ltmp709:
	.loc	23 278 9
	testq	%rax, %rax
	je	LBB50_112
Ltmp710:
	.loc	27 0 0 is_stmt 0
	movq	%rax, %r15
	.loc	27 176 13 is_stmt 1
	movq	$0, (%rax)
	movw	$0, 10(%rax)
	leaq	12(%rax), %rdi
	leaq	-1792(%rbp), %rsi
	movl	$1324, %edx
	callq	_memcpy
Ltmp711:
	.loc	29 2130 14
	movq	64(%r14), %rax
Ltmp712:
	.loc	29 0 14 is_stmt 0
	movq	%rax, -96(%rbp)
Ltmp713:
	.loc	20 164 18 is_stmt 1
	leaq	776(%r14), %rsi
	leaq	-1792(%rbp), %rdi
Ltmp714:
	.loc	17 703 9
	movl	$14, %ecx
	rep;movsq (%rsi), %es:(%rdi)
Ltmp715:
	.loc	17 0 9 is_stmt 0
	movq	%r15, %rax
Ltmp716:
	movq	%r15, -88(%rbp)
Ltmp717:
	.loc	16 299 9 is_stmt 1
	movzwl	10(%r14), %r15d
Ltmp718:
	.loc	20 164 18
	leaq	72(%r14), %rsi
Ltmp719:
	.loc	16 1027 17
	leaq	16(%rax), %rdi
Ltmp720:
	.loc	29 2130 14
	leaq	-56(,%r15,8), %rdx
Ltmp721:
	.loc	16 1023 27
	addq	$-7, %r15
Ltmp722:
	.loc	16 0 27 is_stmt 0
	movq	%rdi, -48(%rbp)
Ltmp723:
	.loc	29 2130 14 is_stmt 1
	callq	_memcpy
Ltmp724:
	.loc	20 164 18
	leaq	888(%r14), %rsi
	movq	-88(%rbp), %rax
Ltmp725:
	.loc	16 1032 17
	leaq	104(%rax), %rdi
Ltmp726:
	.loc	29 2130 14
	imulq	$112, %r15, %rdx
	movq	%rdi, -64(%rbp)
Ltmp727:
	callq	_memcpy
Ltmp728:
	.loc	29 0 14 is_stmt 0
	movq	-88(%rbp), %rax
Ltmp729:
	.loc	16 1036 13 is_stmt 1
	movw	$6, 10(%r14)
	.loc	16 1037 13
	movw	%r15w, 10(%rax)
	leaq	-3120(%rbp), %rdi
Ltmp730:
	.loc	16 863 31
	movl	$14, %ecx
	leaq	-1792(%rbp), %rsi
	rep;movsq (%rsi), %es:(%rdi)
Ltmp731:
	.loc	16 864 26
	cmpq	$6, %rbx
	.loc	16 864 23 is_stmt 0
	ja	LBB50_60
Ltmp732:
	.loc	7 0 0
	leaq	10(%r14), %rax
Ltmp733:
	movq	%rax, -48(%rbp)
Ltmp734:
	leaq	104(%r14), %rcx
Ltmp735:
	movq	%rcx, -64(%rbp)
Ltmp736:
	.loc	16 299 9 is_stmt 1
	movzwl	(%rax), %r15d
Ltmp737:
	.loc	16 0 9 is_stmt 0
	movq	%r15, -72(%rbp)
Ltmp738:
	.loc	20 164 18 is_stmt 1
	leaq	(%r13,%rbx,8), %rsi
Ltmp739:
	.loc	28 165 18
	leaq	8(%r13,%rbx,8), %rdi
Ltmp740:
	.loc	16 1477 77
	subq	%rbx, %r15
Ltmp741:
	.loc	29 2198 14
	leaq	(,%r15,8), %rdx
	callq	_memmove
Ltmp742:
	.loc	17 901 51
	movq	%r12, (%r13,%rbx,8)
Ltmp743:
	.loc	16 1477 67
	imulq	$112, %rbx, %rax
	movq	-64(%rbp), %rcx
Ltmp744:
	.loc	20 164 18
	leaq	(%rcx,%rax), %r12
Ltmp745:
	.loc	28 165 18
	leaq	112(%rcx,%rax), %rdi
Ltmp746:
	.loc	29 2198 14
	imulq	$112, %r15, %rdx
	movq	-72(%rbp), %rbx
Ltmp747:
	movq	%r12, %rsi
	callq	_memmove
Ltmp748:
	.loc	29 0 14 is_stmt 0
	movq	-48(%rbp), %r13
Ltmp749:
	leaq	-352(%rbp), %rsi
Ltmp750:
	.loc	17 901 51 is_stmt 1
	movl	$14, %ecx
	movq	%r12, %rdi
	rep;movsq (%rsi), %es:(%rdi)
Ltmp751:
	.loc	17 0 51 is_stmt 0
	jmp	LBB50_61
Ltmp752:
LBB50_20:
	movl	$8, %ecx
Ltmp753:
	movq	%r15, %r10
Ltmp754:
	jmp	LBB50_26
Ltmp755:
LBB50_60:
	.loc	27 176 13 is_stmt 1
	movq	%rax, %r13
Ltmp756:
	addq	$10, %r13
Ltmp757:
	.loc	16 870 25
	leaq	-7(%rbx), %rax
Ltmp758:
	.loc	16 0 25 is_stmt 0
	movq	%rax, -80(%rbp)
Ltmp759:
	.loc	16 299 9 is_stmt 1
	movzwl	%r15w, %edx
	movq	-48(%rbp), %r15
Ltmp760:
	.loc	20 164 18
	leaq	-56(%r15,%rbx,8), %rsi
Ltmp761:
	.loc	16 870 25
	imulq	$112, %rbx, %rcx
Ltmp762:
	.loc	16 0 25 is_stmt 0
	movq	%rcx, -72(%rbp)
Ltmp763:
	.loc	28 165 18 is_stmt 1
	leaq	-48(%r15,%rbx,8), %rdi
Ltmp764:
	.loc	16 1477 77
	subq	%rax, %rdx
Ltmp765:
	.loc	29 2198 14
	shlq	$3, %rdx
Ltmp766:
	callq	_memmove
Ltmp767:
	.loc	17 901 51
	movq	%r12, -56(%r15,%rbx,8)
Ltmp768:
	.loc	16 299 9
	movzwl	(%r13), %eax
Ltmp769:
	.loc	16 0 9 is_stmt 0
	movq	-64(%rbp), %rcx
Ltmp770:
	movq	-72(%rbp), %rdx
Ltmp771:
	.loc	20 164 18 is_stmt 1
	leaq	-784(%rdx,%rcx), %rbx
Ltmp772:
	.loc	28 165 18
	leaq	-672(%rdx,%rcx), %rdi
Ltmp773:
	.loc	16 1477 77
	subq	-80(%rbp), %rax
Ltmp774:
	.loc	29 2198 14
	imulq	$112, %rax, %rdx
	movq	%rbx, %rsi
	callq	_memmove
Ltmp775:
	.loc	29 0 14 is_stmt 0
	leaq	-352(%rbp), %rsi
Ltmp776:
	.loc	17 901 51 is_stmt 1
	movl	$14, %ecx
	movq	%rbx, %rdi
	rep;movsq (%rsi), %es:(%rdi)
Ltmp777:
	.loc	16 846 13
	movzwl	(%r13), %ebx
Ltmp778:
LBB50_61:
	.loc	16 0 0 is_stmt 0
	incl	%ebx
	movw	%bx, (%r13)
	leaq	-464(%rbp), %rdi
	leaq	-3120(%rbp), %rsi
Ltmp779:
	.loc	16 875 13 is_stmt 1
	movl	$14, %ecx
	rep;movsq (%rsi), %es:(%rdi)
Ltmp780:
	.loc	16 350 30
	movq	(%r14), %r15
Ltmp781:
	.loc	16 351 16
	testq	%r15, %r15
	je	LBB50_62
Ltmp782:
	.loc	16 359 43
	movzwl	8(%r14), %eax
Ltmp783:
	.loc	16 0 43 is_stmt 0
	movw	%ax, -50(%rbp)
Ltmp784:
	movzwl	%ax, %edx
	leaq	-352(%rbp), %rdi
	leaq	-464(%rbp), %rsi
Ltmp785:
	.loc	15 2470 58 is_stmt 1
	movl	$14, %ecx
	rep;movsq (%rsi), %es:(%rdi)
Ltmp786:
	.loc	16 299 9
	movzwl	10(%r15), %r12d
Ltmp787:
	.loc	16 939 12
	cmpw	$11, %r12w
	.loc	16 939 9 is_stmt 0
	jae	LBB50_77
Ltmp788:
	.loc	16 0 9
	movq	-88(%rbp), %r14
Ltmp789:
	movq	-96(%rbp), %rax
	movq	%rax, -104(%rbp)
	movq	%r15, -72(%rbp)
Ltmp790:
	movq	%r15, %r8
	jmp	LBB50_69
Ltmp791:
LBB50_62:
	leaq	-240(%rbp), %r12
	xorl	%r15d, %r15d
Ltmp792:
	movq	-88(%rbp), %r14
Ltmp793:
	jmp	LBB50_63
Ltmp794:
LBB50_77:
	leaq	10(%r15), %rax
	movq	%rax, -64(%rbp)
	movl	$1, %eax
	leaq	-3120(%rbp), %rbx
	leaq	-240(%rbp), %r13
	movq	%r15, %r8
Ltmp795:
LBB50_78:
	movq	%rdx, -48(%rbp)
Ltmp796:
	movq	%r8, -144(%rbp)
Ltmp797:
	movq	%rax, -128(%rbp)
Ltmp798:
	.loc	16 75 9 is_stmt 1
	movl	$1320, %esi
	leaq	-1788(%rbp), %rdi
	callq	___bzero
Ltmp799:
	.loc	16 111 9
	movl	$1324, %edx
	movq	%rbx, %rdi
	leaq	-1792(%rbp), %rsi
	callq	_memcpy
	xorps	%xmm0, %xmm0
	movaps	%xmm0, -240(%rbp)
	movaps	%xmm0, -224(%rbp)
	movaps	%xmm0, -208(%rbp)
	movaps	%xmm0, -192(%rbp)
	movaps	%xmm0, -176(%rbp)
	movaps	%xmm0, -160(%rbp)
Ltmp800:
	.loc	23 80 14
	movl	$1432, %edi
	movl	$8, %esi
	callq	___rust_alloc
Ltmp801:
	.loc	23 278 9
	testq	%rax, %rax
	je	LBB50_64
Ltmp802:
	.loc	27 0 0 is_stmt 0
	movq	%rax, %r14
	.loc	27 176 13 is_stmt 1
	movq	$0, (%rax)
	movw	$0, 10(%rax)
	leaq	12(%rax), %rdi
	movl	$1324, %edx
	movq	%rbx, %rsi
	callq	_memcpy
	leaq	1336(%r14), %rdi
	movq	%rdi, -80(%rbp)
	movl	$12, %ecx
	movq	%r13, %rsi
	rep;movsq (%rsi), %es:(%rdi)
Ltmp803:
	.loc	29 2130 14
	movq	64(%r15), %rax
Ltmp804:
	.loc	29 0 14 is_stmt 0
	movq	%rax, -104(%rbp)
Ltmp805:
	.loc	20 164 18 is_stmt 1
	leaq	776(%r15), %rsi
Ltmp806:
	.loc	17 703 9
	movl	$14, %ecx
	leaq	-1792(%rbp), %rdi
	rep;movsq (%rsi), %es:(%rdi)
Ltmp807:
	.loc	17 0 9 is_stmt 0
	movq	-64(%rbp), %rax
Ltmp808:
	.loc	16 299 9 is_stmt 1
	movzwl	(%rax), %r13d
Ltmp809:
	.loc	16 1073 27
	leaq	-6(%r13), %rbx
	leaq	-7(%r13), %r12
Ltmp810:
	.loc	20 164 18
	leaq	72(%r15), %rsi
Ltmp811:
	.loc	16 1077 17
	leaq	16(%r14), %rdi
Ltmp812:
	.loc	29 2130 14
	leaq	-56(,%r13,8), %rdx
	movq	%rdi, -112(%rbp)
Ltmp813:
	callq	_memcpy
Ltmp814:
	.loc	20 164 18
	leaq	888(%r15), %rsi
Ltmp815:
	.loc	16 1082 17
	movq	%r14, %rdi
	addq	$104, %rdi
Ltmp816:
	.loc	29 2130 14
	imulq	$112, %r12, %rdx
	movq	%rdi, -120(%rbp)
Ltmp817:
	callq	_memcpy
Ltmp818:
	.loc	29 0 14 is_stmt 0
	movq	%r15, -72(%rbp)
Ltmp819:
	.loc	20 164 18 is_stmt 1
	leaq	1392(%r15), %rsi
Ltmp820:
	.loc	29 2130 14
	leaq	-48(,%r13,8), %rdx
Ltmp821:
	.loc	29 0 14 is_stmt 0
	movq	-80(%rbp), %rdi
	.loc	29 2130 14
	callq	_memcpy
Ltmp822:
	.loc	29 0 14
	movq	-64(%rbp), %rcx
Ltmp823:
	.loc	16 1091 13 is_stmt 1
	movw	$6, (%rcx)
	.loc	16 1092 13
	movw	%r12w, 10(%r14)
Ltmp824:
	.loc	24 1136 52
	testq	%rbx, %rbx
	movq	-48(%rbp), %r8
Ltmp825:
	.file	30 "/rustc/6c8927b0cf80ceee19386026cf9d7fd4fd9d486f/src/libcore/iter/range.rs"
	.loc	30 505 9
	je	LBB50_86
Ltmp826:
	andl	$3, %ebx
Ltmp827:
	cmpq	$3, %r12
	jae	LBB50_82
Ltmp828:
	.loc	30 0 9 is_stmt 0
	xorl	%eax, %eax
	jmp	LBB50_84
Ltmp829:
LBB50_82:
	.loc	30 505 9
	subq	%rbx, %r13
	addq	$-6, %r13
	xorl	%eax, %eax
Ltmp830:
	.p2align	4, 0x90
LBB50_83:
	.loc	16 973 17 is_stmt 1
	movq	1336(%r14,%rax,8), %rcx
Ltmp831:
	.loc	16 888 13
	movq	%r14, (%rcx)
	movl	%eax, %edx
Ltmp832:
	.file	31 "/rustc/6c8927b0cf80ceee19386026cf9d7fd4fd9d486f/src/libcore/mem/maybe_uninit.rs"
	.loc	31 371 13
	movw	%ax, 8(%rcx)
Ltmp833:
	.loc	16 973 17
	movq	1344(%r14,%rax,8), %rcx
Ltmp834:
	.loc	16 888 13
	movq	%r14, (%rcx)
Ltmp835:
	.loc	31 371 13
	leal	1(%rdx), %esi
	movw	%si, 8(%rcx)
Ltmp836:
	.loc	16 973 17
	movq	1352(%r14,%rax,8), %rcx
Ltmp837:
	.loc	16 888 13
	movq	%r14, (%rcx)
Ltmp838:
	.loc	31 371 13
	leal	2(%rdx), %esi
	movw	%si, 8(%rcx)
Ltmp839:
	.loc	16 973 17
	movq	1360(%r14,%rax,8), %rcx
Ltmp840:
	.loc	6 3013 26
	addq	$4, %rax
Ltmp841:
	.loc	16 888 13
	movq	%r14, (%rcx)
Ltmp842:
	.loc	31 371 13
	addl	$3, %edx
	movw	%dx, 8(%rcx)
Ltmp843:
	.loc	30 505 9
	cmpq	%rax, %r13
	jne	LBB50_83
Ltmp844:
LBB50_84:
	testq	%rbx, %rbx
	je	LBB50_86
Ltmp845:
	.p2align	4, 0x90
LBB50_85:
	.loc	16 973 17
	movq	1336(%r14,%rax,8), %rcx
Ltmp846:
	.loc	16 888 13
	movq	%r14, (%rcx)
Ltmp847:
	.loc	31 371 13
	movw	%ax, 8(%rcx)
Ltmp848:
	.loc	6 3013 26
	incq	%rax
Ltmp849:
	.loc	30 505 9
	decq	%rbx
	jne	LBB50_85
Ltmp850:
LBB50_86:
	.loc	16 1100 13
	movl	$14, %ecx
	leaq	-3120(%rbp), %rax
	movq	%rax, %rdi
	leaq	-1792(%rbp), %rdx
	movq	%rdx, %rsi
	rep;movsq (%rsi), %es:(%rdi)
Ltmp851:
	.loc	16 945 31
	movl	$14, %ecx
	movq	%rdx, %rdi
	movq	%rax, %rsi
	rep;movsq (%rsi), %es:(%rdi)
	movzwl	-50(%rbp), %r12d
Ltmp852:
	.loc	16 946 16
	cmpw	$6, %r12w
	.loc	16 946 13 is_stmt 0
	ja	LBB50_94
Ltmp853:
	.loc	16 0 13
	movq	-72(%rbp), %rax
	leaq	16(%rax), %r13
Ltmp854:
	leaq	104(%rax), %rcx
Ltmp855:
	movq	%rcx, -112(%rbp)
Ltmp856:
	addq	$1336, %rax
Ltmp857:
	movq	%rax, -80(%rbp)
Ltmp858:
	movq	-64(%rbp), %rax
Ltmp859:
	.loc	16 299 9 is_stmt 1
	movzwl	(%rax), %r15d
Ltmp860:
	.loc	16 0 9 is_stmt 0
	movq	%r15, -120(%rbp)
Ltmp861:
	.loc	20 164 18 is_stmt 1
	leaq	(%r13,%r8,8), %rsi
Ltmp862:
	.loc	16 1477 67
	leaq	1(%r8), %rbx
Ltmp863:
	.loc	28 165 18
	leaq	8(%r13,%r8,8), %rdi
Ltmp864:
	.loc	16 1477 77
	subq	%r8, %r15
Ltmp865:
	.loc	29 2198 14
	leaq	(,%r15,8), %rdx
	callq	_memmove
Ltmp866:
	.loc	29 0 14 is_stmt 0
	movq	-48(%rbp), %rax
Ltmp867:
	movq	-96(%rbp), %rcx
Ltmp868:
	.loc	17 901 51 is_stmt 1
	movq	%rcx, (%r13,%rax,8)
Ltmp869:
	.loc	16 1477 67
	imulq	$112, -48(%rbp), %rax
	movq	-112(%rbp), %rcx
Ltmp870:
	.loc	20 164 18
	leaq	(%rcx,%rax), %r13
Ltmp871:
	.loc	28 165 18
	leaq	112(%rcx,%rax), %rdi
Ltmp872:
	.loc	29 2198 14
	imulq	$112, %r15, %rdx
	movq	%r13, %rsi
	callq	_memmove
Ltmp873:
	.loc	17 901 51
	movl	$14, %ecx
	movq	%r13, %rdi
	leaq	-352(%rbp), %rsi
	rep;movsq (%rsi), %es:(%rdi)
	movq	-120(%rbp), %rax
Ltmp874:
	.loc	16 846 13
	leal	1(%rax), %r15d
Ltmp875:
	.loc	16 0 13 is_stmt 0
	movq	-64(%rbp), %rax
Ltmp876:
	.loc	16 846 13
	movw	%r15w, (%rax)
Ltmp877:
	.loc	16 299 9 is_stmt 1
	movzwl	%r15w, %r13d
Ltmp878:
	.loc	16 0 9 is_stmt 0
	movq	-48(%rbp), %rax
Ltmp879:
	movq	-80(%rbp), %rcx
Ltmp880:
	.loc	20 164 18 is_stmt 1
	leaq	8(%rcx,%rax,8), %rsi
Ltmp881:
	.loc	20 0 18 is_stmt 0
	movq	-48(%rbp), %rax
Ltmp882:
	.loc	28 165 18 is_stmt 1
	leaq	16(%rcx,%rax,8), %rdi
Ltmp883:
	.loc	16 1477 77
	movq	%r13, %rdx
	subq	%rbx, %rdx
Ltmp884:
	.loc	29 2198 14
	shlq	$3, %rdx
Ltmp885:
	callq	_memmove
Ltmp886:
	.loc	29 0 14 is_stmt 0
	movq	-48(%rbp), %rcx
Ltmp887:
	movq	-88(%rbp), %rax
	movq	-80(%rbp), %rdx
Ltmp888:
	.loc	17 901 51 is_stmt 1
	movq	%rax, 8(%rdx,%rcx,8)
Ltmp889:
	.loc	24 1136 52
	cmpw	%r15w, %r12w
	movq	-72(%rbp), %r9
	movq	-144(%rbp), %rsi
	leaq	-464(%rbp), %r11
Ltmp890:
	.loc	30 505 9
	jae	LBB50_99
Ltmp891:
	movl	%r13d, %r10d
	subl	%ecx, %r10d
	movq	%rcx, %r8
	notq	%r8
	addq	%r13, %r8
	andq	$3, %r10
	je	LBB50_92
Ltmp892:
	leaq	1344(%r9,%rcx,8), %rcx
Ltmp893:
	.loc	30 0 9 is_stmt 0
	xorl	%edx, %edx
Ltmp894:
LBB50_90:
	.loc	20 164 18 is_stmt 1
	leal	(%rbx,%rdx), %edi
Ltmp895:
	.loc	16 973 17
	movq	(%rcx,%rdx,8), %rax
Ltmp896:
	.loc	16 888 13
	movq	%rsi, (%rax)
Ltmp897:
	.loc	31 371 13
	movw	%di, 8(%rax)
Ltmp898:
	.loc	30 505 9
	incq	%rdx
	cmpq	%rdx, %r10
	jne	LBB50_90
Ltmp899:
	addq	%rdx, %rbx
Ltmp900:
LBB50_92:
	cmpq	$3, %r8
	jb	LBB50_99
Ltmp901:
LBB50_93:
	.loc	16 973 17
	movq	1336(%r9,%rbx,8), %rax
Ltmp902:
	.loc	16 888 13
	movq	%rsi, (%rax)
Ltmp903:
	.loc	31 371 13
	movw	%bx, 8(%rax)
Ltmp904:
	.loc	16 973 17
	movq	1344(%r9,%rbx,8), %rax
Ltmp905:
	.loc	16 888 13
	movq	%rsi, (%rax)
Ltmp906:
	.loc	31 371 13
	leal	1(%rbx), %ecx
	movw	%cx, 8(%rax)
Ltmp907:
	.loc	16 973 17
	movq	1352(%r9,%rbx,8), %rax
Ltmp908:
	.loc	16 888 13
	movq	%rsi, (%rax)
Ltmp909:
	.loc	31 371 13
	leal	2(%rbx), %ecx
	movw	%cx, 8(%rax)
Ltmp910:
	.loc	16 973 17
	movq	1360(%r9,%rbx,8), %rax
Ltmp911:
	.loc	16 888 13
	movq	%rsi, (%rax)
Ltmp912:
	.loc	31 371 13
	leaq	3(%rbx), %rcx
	movw	%cx, 8(%rax)
Ltmp913:
	.loc	30 505 9
	addq	$4, %rbx
Ltmp914:
	.loc	24 1136 52
	cmpq	%r13, %rcx
Ltmp915:
	.loc	30 505 9
	jne	LBB50_93
	jmp	LBB50_99
Ltmp916:
LBB50_94:
	.loc	16 954 25
	leaq	-7(%r8), %r15
Ltmp917:
	.loc	16 299 9
	movzwl	10(%r14), %edx
	movq	-112(%rbp), %rax
Ltmp918:
	.loc	20 164 18
	leaq	-56(%rax,%r8,8), %rsi
Ltmp919:
	.loc	16 1477 67
	leaq	-6(%r8), %rbx
Ltmp920:
	.loc	16 954 25
	imulq	$112, %r8, %r13
Ltmp921:
	.loc	28 165 18
	leaq	-48(%rax,%r8,8), %rdi
Ltmp922:
	.loc	16 1477 77
	subq	%r15, %rdx
Ltmp923:
	.loc	29 2198 14
	shlq	$3, %rdx
Ltmp924:
	callq	_memmove
Ltmp925:
	.loc	29 0 14 is_stmt 0
	movq	-48(%rbp), %rax
	movq	-96(%rbp), %rcx
Ltmp926:
	.loc	17 901 51 is_stmt 1
	movq	%rcx, -40(%r14,%rax,8)
Ltmp927:
	.loc	16 299 9
	movzwl	10(%r14), %eax
Ltmp928:
	.loc	16 0 9 is_stmt 0
	movq	-120(%rbp), %rcx
Ltmp929:
	.loc	20 164 18 is_stmt 1
	leaq	-784(%r13,%rcx), %r12
Ltmp930:
	.loc	28 165 18
	leaq	-672(%r13,%rcx), %rdi
Ltmp931:
	.loc	16 1477 77
	subq	%r15, %rax
Ltmp932:
	.loc	29 2198 14
	imulq	$112, %rax, %rdx
	movq	%r12, %rsi
	callq	_memmove
Ltmp933:
	.loc	17 901 51
	movl	$14, %ecx
	movq	%r12, %rdi
	leaq	-352(%rbp), %rsi
	rep;movsq (%rsi), %es:(%rdi)
Ltmp934:
	.loc	16 846 13
	movzwl	10(%r14), %eax
	incl	%eax
	movw	%ax, 10(%r14)
Ltmp935:
	.loc	16 299 9
	movzwl	%ax, %r12d
Ltmp936:
	.loc	16 0 9 is_stmt 0
	movq	-48(%rbp), %rax
	movq	-80(%rbp), %rcx
Ltmp937:
	.loc	20 164 18 is_stmt 1
	leaq	-48(%rcx,%rax,8), %rsi
Ltmp938:
	.loc	20 0 18 is_stmt 0
	movq	-48(%rbp), %rax
Ltmp939:
	.loc	28 165 18 is_stmt 1
	leaq	-40(%rcx,%rax,8), %rdi
Ltmp940:
	.loc	16 1477 77
	movq	%r12, %rdx
	subq	%rbx, %rdx
Ltmp941:
	.loc	29 2198 14
	shlq	$3, %rdx
	callq	_memmove
Ltmp942:
	.loc	29 0 14 is_stmt 0
	movq	-48(%rbp), %rdx
	movq	-88(%rbp), %rax
Ltmp943:
	.loc	17 901 51 is_stmt 1
	movq	%rax, 1288(%r14,%rdx,8)
Ltmp944:
	.loc	16 1477 77
	cmpq	%rbx, %r12
Ltmp945:
	.loc	16 0 77 is_stmt 0
	movq	-72(%rbp), %r9
	leaq	-464(%rbp), %r11
Ltmp946:
	.loc	30 505 9 is_stmt 1
	jb	LBB50_99
Ltmp947:
	movl	%edx, %ecx
	notl	%ecx
	addl	%r12d, %ecx
	movq	%r12, %rax
	subq	%rdx, %rax
	addq	$6, %rax
	andq	$3, %rcx
	je	LBB50_97
Ltmp948:
LBB50_96:
	.loc	16 973 17
	movq	1336(%r14,%rbx,8), %rdx
Ltmp949:
	.loc	16 888 13
	movq	%r14, (%rdx)
Ltmp950:
	.loc	31 371 13
	movw	%bx, 8(%rdx)
Ltmp951:
	.loc	16 0 0 is_stmt 0
	incq	%rbx
Ltmp952:
	.loc	30 505 9 is_stmt 1
	decq	%rcx
	jne	LBB50_96
Ltmp953:
LBB50_97:
	cmpq	$3, %rax
	jb	LBB50_99
Ltmp954:
LBB50_98:
	.loc	16 973 17
	movq	1336(%r14,%rbx,8), %rax
Ltmp955:
	.loc	16 888 13
	movq	%r14, (%rax)
Ltmp956:
	.loc	31 371 13
	movw	%bx, 8(%rax)
Ltmp957:
	.loc	16 973 17
	movq	1344(%r14,%rbx,8), %rax
Ltmp958:
	.loc	16 888 13
	movq	%r14, (%rax)
Ltmp959:
	.loc	31 371 13
	leal	1(%rbx), %ecx
	movw	%cx, 8(%rax)
Ltmp960:
	.loc	16 973 17
	movq	1352(%r14,%rbx,8), %rax
Ltmp961:
	.loc	16 888 13
	movq	%r14, (%rax)
Ltmp962:
	.loc	31 371 13
	leal	2(%rbx), %ecx
	movw	%cx, 8(%rax)
Ltmp963:
	.loc	16 973 17
	movq	1360(%r14,%rbx,8), %rax
Ltmp964:
	.loc	16 888 13
	movq	%r14, (%rax)
Ltmp965:
	.loc	31 371 13
	leaq	3(%rbx), %rcx
	movw	%cx, 8(%rax)
Ltmp966:
	.loc	30 505 9
	addq	$4, %rbx
Ltmp967:
	.loc	24 1136 52
	cmpq	%r12, %rcx
Ltmp968:
	.loc	30 505 9
	jne	LBB50_98
Ltmp969:
LBB50_99:
	.loc	16 959 13
	movl	$14, %ecx
	movq	%r11, %rdi
	leaq	-1792(%rbp), %rsi
	rep;movsq (%rsi), %es:(%rdi)
Ltmp970:
	.loc	16 350 30
	movq	(%r9), %r8
Ltmp971:
	.loc	16 351 16
	testq	%r8, %r8
	je	LBB50_100
Ltmp972:
	.loc	16 359 43
	movzwl	8(%r9), %eax
	movw	%ax, -50(%rbp)
	movzwl	%ax, %edx
Ltmp973:
	.loc	16 0 43 is_stmt 0
	movq	-128(%rbp), %rax
Ltmp974:
	incq	%rax
Ltmp975:
	.loc	15 2470 58 is_stmt 1
	movl	$14, %ecx
Ltmp976:
	leaq	-352(%rbp), %rdi
	movq	%r11, %rsi
	rep;movsq (%rsi), %es:(%rdi)
Ltmp977:
	.loc	16 299 9
	leaq	10(%r8), %rcx
	movq	%rcx, -64(%rbp)
	movzwl	10(%r8), %r12d
	movq	%r8, %r15
	movq	-104(%rbp), %rcx
Ltmp978:
	.loc	16 0 9 is_stmt 0
	movq	%rcx, -96(%rbp)
Ltmp979:
	movq	%r14, -88(%rbp)
Ltmp980:
	.loc	16 939 12 is_stmt 1
	cmpw	$11, %r12w
	leaq	-240(%rbp), %r13
	leaq	-3120(%rbp), %rbx
	.loc	16 939 9 is_stmt 0
	jae	LBB50_78
Ltmp981:
	.loc	16 0 9
	movq	%r8, -72(%rbp)
Ltmp982:
LBB50_69:
	movq	%rdx, -48(%rbp)
Ltmp983:
	.loc	16 299 9 is_stmt 1
	movzwl	%r12w, %r15d
Ltmp984:
	.loc	16 0 9 is_stmt 0
	movq	%r15, -64(%rbp)
Ltmp985:
	.loc	20 164 18 is_stmt 1
	leaq	16(%r8,%rdx,8), %rsi
Ltmp986:
	.loc	16 1477 67
	leaq	1(%rdx), %r13
Ltmp987:
	.loc	28 165 18
	leaq	24(%r8,%rdx,8), %rdi
Ltmp988:
	.loc	16 1477 77
	subq	%rdx, %r15
Ltmp989:
	.loc	29 2198 14
	leaq	(,%r15,8), %rdx
Ltmp990:
	.loc	29 0 14 is_stmt 0
	movq	%r8, %rbx
Ltmp991:
	.loc	29 2198 14
	callq	_memmove
Ltmp992:
	.loc	29 0 14
	movq	-48(%rbp), %rax
Ltmp993:
	movq	-104(%rbp), %rcx
Ltmp994:
	.loc	17 901 51 is_stmt 1
	movq	%rcx, 16(%rbx,%rax,8)
Ltmp995:
	.loc	16 1477 67
	imulq	$112, -48(%rbp), %rax
Ltmp996:
	.loc	20 164 18
	leaq	104(%rbx,%rax), %rsi
Ltmp997:
	.loc	28 165 18
	leaq	216(%rbx,%rax), %rdi
Ltmp998:
	.loc	29 2198 14
	imulq	$112, %r15, %rdx
	movq	%rsi, %r15
Ltmp999:
	callq	_memmove
Ltmp1000:
	.loc	29 0 14 is_stmt 0
	leaq	-352(%rbp), %rsi
Ltmp1001:
	.loc	17 901 51 is_stmt 1
	movl	$14, %ecx
	movq	%r15, %rdi
	rep;movsq (%rsi), %es:(%rdi)
Ltmp1002:
	.loc	16 846 13
	leal	1(%r12), %eax
	movw	%ax, 10(%rbx)
Ltmp1003:
	.loc	16 299 9
	movzwl	%ax, %r15d
Ltmp1004:
	.loc	16 0 9 is_stmt 0
	movq	-48(%rbp), %rax
Ltmp1005:
	.loc	20 164 18 is_stmt 1
	leaq	1344(%rbx,%rax,8), %rsi
Ltmp1006:
	.loc	20 0 18 is_stmt 0
	movq	-48(%rbp), %rax
Ltmp1007:
	.loc	28 165 18 is_stmt 1
	leaq	1352(%rbx,%rax,8), %rdi
Ltmp1008:
	.loc	16 1477 77
	movq	%r15, %rdx
	subq	%r13, %rdx
Ltmp1009:
	.loc	29 2198 14
	shlq	$3, %rdx
Ltmp1010:
	callq	_memmove
Ltmp1011:
	.loc	29 0 14 is_stmt 0
	movq	-48(%rbp), %rcx
Ltmp1012:
	movq	%rbx, %r8
Ltmp1013:
	.loc	17 901 51 is_stmt 1
	movq	%r14, 1344(%rbx,%rcx,8)
Ltmp1014:
	.loc	17 0 51 is_stmt 0
	movq	-64(%rbp), %rax
Ltmp1015:
	.loc	24 1136 52 is_stmt 1
	cmpw	%ax, -50(%rbp)
	movq	-72(%rbp), %rbx
Ltmp1016:
	.loc	30 505 9
	ja	LBB50_107
Ltmp1017:
	.loc	16 888 13
	movq	%rbx, (%r14)
Ltmp1018:
	.loc	31 371 13
	movw	%r13w, 8(%r14)
Ltmp1019:
	.loc	24 1136 52
	cmpq	%r15, %r13
Ltmp1020:
	.loc	30 505 9
	je	LBB50_107
Ltmp1021:
	movl	%ecx, %eax
	notl	%eax
	addl	%r15d, %eax
	movq	%r15, %r9
	subq	%rcx, %r9
	addq	$-2, %r9
	andq	$3, %rax
	je	LBB50_75
Ltmp1022:
	addq	$169, %rcx
Ltmp1023:
	negq	%rax
	xorl	%edx, %edx
Ltmp1024:
LBB50_73:
	.loc	16 973 17
	movq	(%r8,%rcx,8), %rsi
Ltmp1025:
	.loc	16 888 13
	movq	%rbx, (%rsi)
	leal	-167(%rcx), %edi
Ltmp1026:
	.loc	31 371 13
	movw	%di, 8(%rsi)
Ltmp1027:
	.loc	30 505 9
	decq	%rdx
	incq	%rcx
	cmpq	%rdx, %rax
	jne	LBB50_73
Ltmp1028:
	subq	%rdx, %r13
Ltmp1029:
LBB50_75:
	cmpq	$3, %r9
	jb	LBB50_107
Ltmp1030:
LBB50_76:
	.loc	16 973 17
	movq	1344(%r8,%r13,8), %rax
Ltmp1031:
	.loc	16 888 13
	movq	%rbx, (%rax)
	leal	1(%r13), %ecx
Ltmp1032:
	.loc	31 371 13
	movw	%cx, 8(%rax)
Ltmp1033:
	.loc	16 973 17
	movq	1352(%r8,%r13,8), %rax
Ltmp1034:
	.loc	16 888 13
	movq	%rbx, (%rax)
	leal	2(%r13), %ecx
Ltmp1035:
	.loc	31 371 13
	movw	%cx, 8(%rax)
Ltmp1036:
	.loc	16 973 17
	movq	1360(%r8,%r13,8), %rax
Ltmp1037:
	.loc	16 888 13
	movq	%rbx, (%rax)
	leal	3(%r13), %ecx
Ltmp1038:
	.loc	31 371 13
	movw	%cx, 8(%rax)
Ltmp1039:
	.loc	16 973 17
	movq	1368(%r8,%r13,8), %rax
Ltmp1040:
	.loc	16 0 0 is_stmt 0
	addq	$4, %r13
Ltmp1041:
	.loc	16 888 13 is_stmt 1
	movq	%rbx, (%rax)
Ltmp1042:
	.loc	31 371 13
	movw	%r13w, 8(%rax)
Ltmp1043:
	.loc	24 1136 52
	cmpq	%r13, %r15
Ltmp1044:
	.loc	30 505 9
	jne	LBB50_76
	jmp	LBB50_107
Ltmp1045:
LBB50_100:
	.loc	30 0 9 is_stmt 0
	movq	-104(%rbp), %rax
	movq	%rax, -96(%rbp)
	movq	-128(%rbp), %r15
	leaq	-240(%rbp), %r12
Ltmp1046:
LBB50_63:
	.loc	16 75 9 is_stmt 1
	movl	$1320, %esi
	leaq	-1788(%rbp), %rdi
	callq	___bzero
	leaq	-3120(%rbp), %rdi
	leaq	-1792(%rbp), %rsi
Ltmp1047:
	.loc	16 111 9
	movl	$1324, %edx
	callq	_memcpy
	movq	$0, (%r12)
	movq	$0, 8(%r12)
	movq	$0, 16(%r12)
	movq	$0, 24(%r12)
	movq	$0, 32(%r12)
	movq	$0, 40(%r12)
	movq	$0, 48(%r12)
	movq	$0, 56(%r12)
	movq	$0, 64(%r12)
	movq	$0, 72(%r12)
	movq	$0, 80(%r12)
	movq	$0, 88(%r12)
Ltmp1048:
	.loc	23 80 14
	movl	$1432, %edi
	movl	$8, %esi
	callq	___rust_alloc
Ltmp1049:
	.loc	23 278 9
	testq	%rax, %rax
	je	LBB50_64
Ltmp1050:
	.loc	15 0 0 is_stmt 0
	movq	%rax, %rbx
Ltmp1051:
	.loc	27 176 13 is_stmt 1
	movq	$0, (%rax)
	movw	$0, 10(%rax)
	leaq	12(%rax), %rdi
	leaq	-3120(%rbp), %rsi
	movl	$1324, %edx
	callq	_memcpy
	leaq	1336(%rbx), %rdi
	movl	$12, %ecx
	movq	%r12, %rsi
	rep;movsq (%rsi), %es:(%rdi)
	movq	-136(%rbp), %rsi
Ltmp1052:
	.loc	16 197 62
	movq	24(%rsi), %rax
Ltmp1053:
	.loc	31 371 13
	movq	%rax, 1336(%rbx)
Ltmp1054:
	.loc	16 199 9
	movq	%rbx, 24(%rsi)
	.loc	16 200 9
	movq	32(%rsi), %rdx
	leaq	1(%rdx), %rcx
	movq	%rcx, 32(%rsi)
Ltmp1055:
	.loc	16 888 13
	movq	%rbx, (%rax)
Ltmp1056:
	.loc	31 371 13
	movw	$0, 8(%rax)
	leaq	-1792(%rbp), %rdi
	leaq	-464(%rbp), %rsi
Ltmp1057:
	.loc	15 2480 51
	movl	$14, %ecx
	rep;movsq (%rsi), %es:(%rdi)
Ltmp1058:
	.loc	16 555 17
	cmpq	%r15, %rdx
	.loc	16 555 9 is_stmt 0
	jne	LBB50_102
Ltmp1059:
	.loc	16 299 9 is_stmt 1
	movzwl	10(%rbx), %eax
	cmpq	$11, %rax
Ltmp1060:
	.loc	16 556 9
	jae	LBB50_105
Ltmp1061:
	.loc	16 0 9 is_stmt 0
	movq	-96(%rbp), %rcx
Ltmp1062:
	.loc	17 901 51 is_stmt 1
	movq	%rcx, 16(%rbx,%rax,8)
Ltmp1063:
	.loc	28 165 18
	imulq	$112, %rax, %rcx
Ltmp1064:
	leaq	104(%rbx,%rcx), %rdi
	leaq	-1792(%rbp), %rsi
Ltmp1065:
	.loc	17 901 51
	movl	$14, %ecx
	rep;movsq (%rsi), %es:(%rdi)
Ltmp1066:
	.loc	16 563 60
	leaq	1(%rax), %rcx
Ltmp1067:
	.loc	31 371 13
	movq	%r14, 1344(%rbx,%rax,8)
Ltmp1068:
	.loc	16 565 13
	leal	1(%rax), %edx
	movw	%dx, 10(%rbx)
Ltmp1069:
	.loc	16 973 17
	movq	1344(%rbx,%rax,8), %rax
Ltmp1070:
	.loc	16 888 13
	movq	%rbx, (%rax)
Ltmp1071:
	.loc	31 371 13
	movw	%cx, 8(%rax)
Ltmp1072:
	.loc	31 0 13 is_stmt 0
	jmp	LBB50_107
Ltmp1073:
LBB50_111:
Ltmp578:
	.loc	7 135 16 is_stmt 1
	leaq	_str.5(%rip), %rdi
Ltmp1074:
	leaq	l___unnamed_104(%rip), %rdx
	movl	$33, %esi
	callq	__ZN4core9panicking5panic17h383a6b80ea7021aaE
Ltmp579:
Ltmp1075:
LBB50_28:
	.loc	7 0 16 is_stmt 0
	ud2
LBB50_27:
Ltmp1076:
Ltmp575:
	.loc	22 301 38 is_stmt 1
	callq	__ZN5alloc7raw_vec17capacity_overflow17h7526b10e27579d59E
Ltmp1077:
Ltmp576:
	.loc	22 0 38 is_stmt 0
	jmp	LBB50_28
Ltmp1078:
LBB50_112:
	movl	$1336, %edi
	movl	$8, %esi
	callq	__ZN5alloc5alloc18handle_alloc_error17h28974197717b8939E
Ltmp1079:
LBB50_29:
	.loc	22 302 47 is_stmt 1
	movl	$8, %esi
	movq	%r14, %rdi
	callq	__ZN5alloc5alloc18handle_alloc_error17h28974197717b8939E
Ltmp1080:
LBB50_64:
	.loc	15 0 0 is_stmt 0
	movl	$1432, %edi
	movl	$8, %esi
	callq	__ZN5alloc5alloc18handle_alloc_error17h28974197717b8939E
Ltmp1081:
LBB50_102:
Ltmp570:
	.loc	21 10 9 is_stmt 1
	leaq	l___unnamed_105(%rip), %rdi
	leaq	l___unnamed_106(%rip), %rdx
	movl	$48, %esi
	callq	__ZN4core9panicking5panic17h383a6b80ea7021aaE
Ltmp571:
	jmp	LBB50_28
Ltmp1082:
LBB50_105:
Ltmp572:
	leaq	l___unnamed_107(%rip), %rdi
	leaq	l___unnamed_106(%rip), %rdx
	movl	$39, %esi
	callq	__ZN4core9panicking5panic17h383a6b80ea7021aaE
Ltmp573:
	jmp	LBB50_28
Ltmp1083:
LBB50_103:
Ltmp574:
	.loc	21 0 9 is_stmt 0
	jmp	LBB50_8
Ltmp1084:
LBB50_7:
Ltmp577:
LBB50_8:
	movq	%rax, %rbx
	leaq	-1792(%rbp), %rdi
	jmp	LBB50_110
LBB50_109:
Ltmp1085:
Ltmp580:
	movq	%rax, %rbx
	.loc	7 153 5 is_stmt 1
	movq	%r15, %rdi
Ltmp1086:
LBB50_110:
	.loc	7 0 0 is_stmt 0
	callq	__ZN4core3ptr13drop_in_place17h4a851cd77e90a943E
	movq	%rbx, %rdi
	callq	__Unwind_Resume
	ud2
Ltmp1087:
Lfunc_end50:
	.cfi_endproc
	.file	32 "/rustc/6c8927b0cf80ceee19386026cf9d7fd4fd9d486f/src/libcore/iter/adapters/mod.rs"
	.file	33 "/rustc/6c8927b0cf80ceee19386026cf9d7fd4fd9d486f/src/libcore/ops/function.rs"
	.section	__TEXT,__gcc_except_tab
	.p2align	2
GCC_except_table50:
Lexception0:
	.byte	255
	.byte	255
	.byte	1
	.uleb128 Lcst_end0-Lcst_begin0
Lcst_begin0:
	.uleb128 Lfunc_begin50-Lfunc_begin50
	.uleb128 Ltmp578-Lfunc_begin50
	.byte	0
	.byte	0
	.uleb128 Ltmp578-Lfunc_begin50
	.uleb128 Ltmp579-Ltmp578
	.uleb128 Ltmp580-Lfunc_begin50
	.byte	0
	.uleb128 Ltmp575-Lfunc_begin50
	.uleb128 Ltmp576-Ltmp575
	.uleb128 Ltmp577-Lfunc_begin50
	.byte	0
	.uleb128 Ltmp570-Lfunc_begin50
	.uleb128 Ltmp573-Ltmp570
	.uleb128 Ltmp574-Lfunc_begin50
	.byte	0
	.uleb128 Ltmp573-Lfunc_begin50
	.uleb128 Lfunc_end50-Ltmp573
	.byte	0
	.byte	0
Lcst_end0:
	.p2align	2

	.section	__TEXT,__text,regular,pure_instructions
	.globl	__ZN5gimli4read6abbrev12Abbreviation3new17h3bf5c7019d37e746E
	.p2align	4, 0x90
__ZN5gimli4read6abbrev12Abbreviation3new17h3bf5c7019d37e746E:
Lfunc_begin51:
	.loc	7 198 0 is_stmt 1
	.cfi_startproc
	.cfi_personality 155, _rust_eh_personality
	.cfi_lsda 16, Lexception1
	pushq	%rbp
	.cfi_def_cfa_offset 16
	.cfi_offset %rbp, -16
	movq	%rsp, %rbp
	.cfi_def_cfa_register %rbp
	pushq	%r14
	pushq	%rbx
	subq	$112, %rsp
	.cfi_offset %rbx, -32
	.cfi_offset %r14, -24
	movq	%r8, %rbx
Ltmp1091:
	movq	%rsi, -24(%rbp)
Ltmp1092:
	.loc	7 204 9 prologue_end
	testq	%rsi, %rsi
Ltmp1093:
	je	LBB51_1
Ltmp1094:
	.loc	7 0 9 is_stmt 0
	movq	%rdi, %rax
Ltmp1095:
	.loc	7 205 9 is_stmt 1
	movq	%rsi, (%rdi)
	movw	%dx, 104(%rdi)
	movb	%cl, 106(%rdi)
	addq	$8, %rdi
	movl	$12, %ecx
Ltmp1096:
	movq	%rbx, %rsi
Ltmp1097:
	rep;movsq (%rsi), %es:(%rdi)
	.loc	7 211 6
	addq	$112, %rsp
	popq	%rbx
Ltmp1098:
	popq	%r14
	popq	%rbp
	retq
Ltmp1099:
LBB51_1:
	.loc	7 0 6 is_stmt 0
	leaq	-24(%rbp), %rax
Ltmp1100:
	.loc	7 204 9 is_stmt 1
	movq	%rax, -32(%rbp)
	leaq	L___unnamed_108(%rip), %rax
	movq	%rax, -40(%rbp)
	leaq	-32(%rbp), %rax
Ltmp1101:
	.loc	7 204 9 is_stmt 0
	movq	%rax, -72(%rbp)
	leaq	__ZN42_$LT$$RF$T$u20$as$u20$core..fmt..Debug$GT$3fmt17h5f14a04d889e922dE(%rip), %rax
	movq	%rax, -64(%rbp)
	leaq	-40(%rbp), %rcx
Ltmp1102:
	movq	%rcx, -56(%rbp)
	movq	%rax, -48(%rbp)
Ltmp1103:
	.loc	1 328 9 is_stmt 1
	leaq	l___unnamed_109(%rip), %rax
Ltmp1104:
	movq	%rax, -120(%rbp)
	movq	$3, -112(%rbp)
	movq	$0, -104(%rbp)
	leaq	-72(%rbp), %rax
Ltmp1105:
	movq	%rax, -88(%rbp)
	movq	$2, -80(%rbp)
Ltmp1106:
Ltmp1088:
	.loc	7 204 9
	leaq	l___unnamed_110(%rip), %rsi
Ltmp1107:
	.loc	7 0 9 is_stmt 0
	leaq	-120(%rbp), %rdi
	.loc	7 204 9
	callq	__ZN4core9panicking9panic_fmt17hfce5b7173905fc53E
Ltmp1108:
Ltmp1089:
	.loc	7 0 9
	ud2
Ltmp1109:
LBB51_2:
Ltmp1090:
	movq	%rax, %r14
	.loc	7 211 5 is_stmt 1
	movq	%rbx, %rdi
	callq	__ZN4core3ptr13drop_in_place17he8ac5bc5177d1213E
	movq	%r14, %rdi
	callq	__Unwind_Resume
	ud2
Ltmp1110:
Lfunc_end51:
	.cfi_endproc
	.section	__TEXT,__gcc_except_tab
	.p2align	2
GCC_except_table51:
Lexception1:
	.byte	255
	.byte	255
	.byte	1
	.uleb128 Lcst_end1-Lcst_begin1
Lcst_begin1:
	.uleb128 Ltmp1088-Lfunc_begin51
	.uleb128 Ltmp1089-Ltmp1088
	.uleb128 Ltmp1090-Lfunc_begin51
	.byte	0
	.uleb128 Ltmp1089-Lfunc_begin51
	.uleb128 Lfunc_end51-Ltmp1089
	.byte	0
	.byte	0
Lcst_end1:
	.p2align	2

	.section	__TEXT,__text,regular,pure_instructions
	.globl	__ZN5gimli4read6abbrev10Attributes3new17h102a8b6844298e43E
	.p2align	4, 0x90
__ZN5gimli4read6abbrev10Attributes3new17h102a8b6844298e43E:
Lfunc_begin52:
	.loc	7 301 0
	.cfi_startproc
	pushq	%rbp
	.cfi_def_cfa_offset 16
	.cfi_offset %rbp, -16
	movq	%rsp, %rbp
	.cfi_def_cfa_register %rbp
	subq	$80, %rsp
	movq	%rdi, %rax
	movq	$0, -80(%rbp)
	movl	$0, -72(%rbp)
	movq	$0, -64(%rbp)
	movl	$0, -56(%rbp)
	movq	$0, -48(%rbp)
	movl	$0, -40(%rbp)
	movq	$0, -32(%rbp)
	movl	$0, -24(%rbp)
	movq	$0, -16(%rbp)
	movl	$0, -8(%rbp)
Ltmp1111:
	.loc	7 304 9 prologue_end
	leaq	8(%rdi), %rdi
	leaq	-80(%rbp), %rsi
	movl	$10, %ecx
	rep;movsq (%rsi), %es:(%rdi)
	movq	$0, 88(%rax)
	movq	$0, (%rax)
Ltmp1112:
	.loc	7 308 6
	addq	$80, %rsp
	popq	%rbp
	retq
Ltmp1113:
Lfunc_end52:
	.cfi_endproc

	.globl	__ZN5gimli4read6abbrev10Attributes4push17h56374a63eb8d9187E
	.p2align	4, 0x90
__ZN5gimli4read6abbrev10Attributes4push17h56374a63eb8d9187E:
Lfunc_begin53:
	.loc	7 311 0
	.cfi_startproc
	.cfi_personality 155, _rust_eh_personality
	.cfi_lsda 16, Lexception2
	pushq	%rbp
	.cfi_def_cfa_offset 16
	.cfi_offset %rbp, -16
	movq	%rsp, %rbp
	.cfi_def_cfa_register %rbp
	pushq	%r15
	pushq	%r14
	pushq	%rbx
	subq	$120, %rsp
	.cfi_offset %rbx, -40
	.cfi_offset %r14, -32
	.cfi_offset %r15, -24
	movq	%rsi, %r15
	movq	%rdi, %rbx
Ltmp1120:
	.loc	7 313 13 prologue_end
	cmpl	$1, (%rdi)
	jne	LBB53_1
Ltmp1121:
	.loc	7 313 56 is_stmt 0
	movq	(%r15), %rax
	movq	8(%r15), %rcx
	movq	%rcx, -104(%rbp)
	movq	%rax, -112(%rbp)
Ltmp1122:
	.loc	10 1204 12 is_stmt 1
	movq	24(%rbx), %rax
	cmpq	16(%rbx), %rax
	.loc	10 1204 9 is_stmt 0
	jne	LBB53_9
Ltmp1123:
	.loc	7 0 0
	leaq	8(%rbx), %rdi
Ltmp1124:
	.loc	10 1205 13 is_stmt 1
	movl	$1, %esi
	callq	__ZN5alloc3vec12Vec$LT$T$GT$7reserve17h0ab86ad625e9d64dE
Ltmp1125:
	.loc	10 1208 45
	movq	24(%rbx), %rax
Ltmp1126:
LBB53_9:
	.loc	10 854 19
	movq	8(%rbx), %rcx
Ltmp1127:
	.loc	28 165 18
	shlq	$4, %rax
Ltmp1128:
	.loc	17 901 51
	movq	-112(%rbp), %rdx
	movq	-104(%rbp), %rsi
	movq	%rsi, 8(%rcx,%rax)
	movq	%rdx, (%rcx,%rax)
Ltmp1129:
	.loc	10 1210 13
	incq	24(%rbx)
	jmp	LBB53_10
Ltmp1130:
LBB53_1:
	.loc	7 316 22
	leaq	8(%rbx), %r14
	movq	88(%rbx), %rdi
	cmpq	$5, %rdi
	jne	LBB53_2
Ltmp1131:
	.loc	23 80 14
	movl	$80, %edi
	movl	$8, %esi
	callq	___rust_alloc
Ltmp1132:
	.loc	22 184 17
	testq	%rax, %rax
	je	LBB53_24
Ltmp1133:
	.loc	10 362 9
	movq	%rax, -48(%rbp)
	movl	$5, %eax
	movq	%rax, %xmm0
	movdqu	%xmm0, -40(%rbp)
Ltmp1114:
Ltmp1134:
	.loc	10 0 9 is_stmt 0
	leaq	-48(%rbp), %rdi
Ltmp1135:
	.loc	10 2196 9 is_stmt 1
	movl	$5, %esi
	callq	__ZN5alloc3vec12Vec$LT$T$GT$7reserve17h0ab86ad625e9d64dE
Ltmp1115:
Ltmp1136:
	.loc	10 854 19
	movq	-48(%rbp), %rdx
Ltmp1137:
	.loc	10 2198 23
	movq	-32(%rbp), %rax
Ltmp1138:
	.loc	28 165 18
	movq	%rax, %rdi
	shlq	$4, %rdi
	addq	%rdx, %rdi
Ltmp1139:
	.loc	29 2130 14
	movl	$10, %ecx
	movq	%r14, %rsi
	rep;movsq (%rsi), %es:(%rdi)
Ltmp1140:
	.loc	10 2201 26
	addq	$5, %rax
Ltmp1141:
	.loc	10 944 9
	movq	%rax, -32(%rbp)
Ltmp1142:
	.loc	7 319 27
	movq	(%r15), %rcx
	movq	8(%r15), %rsi
	movq	%rsi, -104(%rbp)
	movq	%rcx, -112(%rbp)
Ltmp1143:
	.loc	10 1204 12
	cmpq	-40(%rbp), %rax
	.loc	10 1204 9 is_stmt 0
	jne	LBB53_16
Ltmp1144:
Ltmp1117:
	.loc	10 0 9
	leaq	-48(%rbp), %rdi
	.loc	10 1205 13 is_stmt 1
	movl	$1, %esi
	callq	__ZN5alloc3vec12Vec$LT$T$GT$7reserve17h0ab86ad625e9d64dE
Ltmp1118:
Ltmp1145:
	.loc	10 854 19
	movq	-48(%rbp), %rdx
Ltmp1146:
	.loc	10 1208 45
	movq	-32(%rbp), %rax
Ltmp1147:
LBB53_16:
	.loc	28 165 18
	movq	%rax, %rcx
	shlq	$4, %rcx
Ltmp1148:
	.loc	17 901 51
	movq	-112(%rbp), %rsi
	movq	-104(%rbp), %rdi
	movq	%rdi, 8(%rdx,%rcx)
	movq	%rsi, (%rdx,%rcx)
Ltmp1149:
	.loc	10 1210 13
	incq	%rax
Ltmp1150:
	movq	%rax, -32(%rbp)
Ltmp1151:
	.loc	7 320 42
	movq	%rax, -120(%rbp)
	movq	-48(%rbp), %rax
	movq	-40(%rbp), %rcx
	movq	%rcx, -128(%rbp)
	movq	%rax, -136(%rbp)
Ltmp1152:
	.loc	17 184 1
	cmpq	$0, (%rbx)
	je	LBB53_21
Ltmp1153:
	.loc	17 184 1 is_stmt 0
	movq	16(%rbx), %rsi
Ltmp1154:
	.loc	22 235 40 is_stmt 1
	testq	%rsi, %rsi
	.loc	22 235 9 is_stmt 0
	je	LBB53_21
Ltmp1155:
	.loc	17 0 0
	movq	8(%rbx), %rdi
Ltmp1156:
	.loc	22 507 16 is_stmt 1
	testq	%rdi, %rdi
Ltmp1157:
	je	LBB53_21
Ltmp1158:
	.loc	22 0 0 is_stmt 0
	shlq	$4, %rsi
Ltmp1159:
	.loc	22 507 16
	je	LBB53_21
Ltmp1160:
	.loc	23 102 14 is_stmt 1
	movl	$8, %edx
	callq	___rust_dealloc
Ltmp1161:
LBB53_21:
	.loc	7 320 17
	movq	$1, (%rbx)
	movq	-120(%rbp), %rax
	movq	%rax, 16(%r14)
	movq	-136(%rbp), %rax
	movq	-128(%rbp), %rcx
	movq	%rcx, 8(%r14)
	movq	%rax, (%r14)
	movq	-56(%rbp), %rax
	movq	%rax, 88(%rbx)
	movq	-64(%rbp), %rax
	movq	%rax, 80(%rbx)
	movq	-72(%rbp), %rax
	movq	%rax, 72(%rbx)
	movq	-80(%rbp), %rax
	movq	%rax, 64(%rbx)
	movq	-88(%rbp), %rax
	movq	%rax, 56(%rbx)
	movq	-96(%rbp), %rax
	movq	%rax, 48(%rbx)
	movq	-112(%rbp), %rax
	movq	-104(%rbp), %rcx
	movq	%rcx, 40(%rbx)
	movq	%rax, 32(%rbx)
	jmp	LBB53_10
Ltmp1162:
LBB53_2:
	.loc	7 323 29
	movq	(%r15), %rax
	movq	8(%r15), %rcx
	movq	%rcx, -104(%rbp)
	movq	%rax, -112(%rbp)
	.loc	7 323 17 is_stmt 0
	cmpq	$5, %rdi
Ltmp1163:
	jae	LBB53_22
Ltmp1164:
	shlq	$4, %rdi
	movq	-112(%rbp), %rax
	movq	-104(%rbp), %rcx
	movq	%rcx, 8(%r14,%rdi)
	movq	%rax, (%r14,%rdi)
	.loc	7 324 17 is_stmt 1
	movq	88(%rbx), %rax
	incq	%rax
	je	LBB53_23
Ltmp1165:
	movq	%rax, 88(%rbx)
Ltmp1166:
LBB53_10:
	.loc	7 327 6
	addq	$120, %rsp
	popq	%rbx
Ltmp1167:
	popq	%r14
	popq	%r15
Ltmp1168:
	popq	%rbp
	retq
LBB53_24:
Ltmp1169:
	.loc	22 185 27
	movl	$80, %edi
	movl	$8, %esi
	callq	__ZN5alloc5alloc18handle_alloc_error17h28974197717b8939E
Ltmp1170:
LBB53_22:
	.loc	7 323 17
	leaq	l___unnamed_111(%rip), %rdx
	movl	$5, %esi
	callq	__ZN4core9panicking18panic_bounds_check17he87128426d100e93E
Ltmp1171:
LBB53_23:
	.loc	7 324 17
	leaq	_str.4(%rip), %rdi
	leaq	l___unnamed_112(%rip), %rdx
	movl	$28, %esi
	callq	__ZN4core9panicking5panic17h383a6b80ea7021aaE
Ltmp1172:
LBB53_5:
Ltmp1119:
	.loc	7 0 17 is_stmt 0
	jmp	LBB53_6
Ltmp1173:
LBB53_25:
Ltmp1116:
LBB53_6:
	movq	%rax, %rbx
Ltmp1174:
	leaq	-48(%rbp), %rdi
Ltmp1175:
	callq	__ZN4core3ptr13drop_in_place17ha1710a5f18e65dbbE
	movq	%rbx, %rdi
	callq	__Unwind_Resume
	ud2
Ltmp1176:
Lfunc_end53:
	.cfi_endproc
	.file	34 "/rustc/6c8927b0cf80ceee19386026cf9d7fd4fd9d486f/src/liballoc/slice.rs"
	.section	__TEXT,__gcc_except_tab
	.p2align	2
GCC_except_table53:
Lexception2:
	.byte	255
	.byte	255
	.byte	1
	.uleb128 Lcst_end2-Lcst_begin2
Lcst_begin2:
	.uleb128 Lfunc_begin53-Lfunc_begin53
	.uleb128 Ltmp1114-Lfunc_begin53
	.byte	0
	.byte	0
	.uleb128 Ltmp1114-Lfunc_begin53
	.uleb128 Ltmp1115-Ltmp1114
	.uleb128 Ltmp1116-Lfunc_begin53
	.byte	0
	.uleb128 Ltmp1117-Lfunc_begin53
	.uleb128 Ltmp1118-Ltmp1117
	.uleb128 Ltmp1119-Lfunc_begin53
	.byte	0
	.uleb128 Ltmp1118-Lfunc_begin53
	.uleb128 Lfunc_end53-Ltmp1118
	.byte	0
	.byte	0
Lcst_end2:
	.p2align	2

	.section	__TEXT,__text,regular,pure_instructions
	.globl	__ZN68_$LT$gimli..read..abbrev..Attributes$u20$as$u20$core..fmt..Debug$GT$3fmt17h227152472766969eE
	.p2align	4, 0x90
__ZN68_$LT$gimli..read..abbrev..Attributes$u20$as$u20$core..fmt..Debug$GT$3fmt17h227152472766969eE:
Lfunc_begin54:
	.loc	7 331 0 is_stmt 1
	.cfi_startproc
	pushq	%rbp
	.cfi_def_cfa_offset 16
	.cfi_offset %rbp, -16
	movq	%rsp, %rbp
	.cfi_def_cfa_register %rbp
Ltmp1177:
	pushq	%r15
	pushq	%r14
	pushq	%r13
	pushq	%r12
	pushq	%rbx
	subq	$24, %rsp
	.cfi_offset %rbx, -56
	.cfi_offset %r12, -48
	.cfi_offset %r13, -40
	.cfi_offset %r14, -32
	.cfi_offset %r15, -24
	.loc	7 348 13 prologue_end
	cmpl	$1, (%rdi)
	jne	LBB54_2
Ltmp1178:
	.loc	10 818 19
	movq	8(%rdi), %rbx
Ltmp1179:
	.loc	10 1923 55
	movq	24(%rdi), %r13
Ltmp1180:
	.loc	10 0 55 is_stmt 0
	leaq	-64(%rbp), %rdi
Ltmp1181:
	.loc	1 2211 9 is_stmt 1
	callq	__ZN4core3fmt9Formatter10debug_list17h113a4e31f24f00d7E
Ltmp1182:
	.loc	11 3440 9
	testq	%r13, %r13
	.loc	11 3570 21
	jne	LBB54_5
	jmp	LBB54_7
Ltmp1183:
LBB54_2:
	.loc	7 348 55
	movq	88(%rdi), %r13
Ltmp1184:
	.loc	11 3169 19
	cmpq	$6, %r13
	.loc	11 3169 16 is_stmt 0
	jae	LBB54_8
Ltmp1185:
	.loc	7 0 0
	addq	$8, %rdi
Ltmp1186:
	movq	%rdi, %rbx
Ltmp1187:
	leaq	-64(%rbp), %rdi
Ltmp1188:
	.loc	1 2211 9 is_stmt 1
	callq	__ZN4core3fmt9Formatter10debug_list17h113a4e31f24f00d7E
Ltmp1189:
	.loc	11 3440 9
	testq	%r13, %r13
	.loc	11 3570 21
	je	LBB54_7
Ltmp1190:
LBB54_5:
	shlq	$4, %r13
Ltmp1191:
	.loc	11 0 21 is_stmt 0
	leaq	l___unnamed_3(%rip), %r14
	leaq	-64(%rbp), %r15
	leaq	-48(%rbp), %r12
Ltmp1192:
	.p2align	4, 0x90
LBB54_6:
	.loc	12 661 22 is_stmt 1
	movq	%rbx, -48(%rbp)
Ltmp1193:
	.loc	13 92 18
	addq	$16, %rbx
Ltmp1194:
	.loc	12 662 13
	movq	%r15, %rdi
	movq	%r12, %rsi
	movq	%r14, %rdx
	callq	__ZN4core3fmt8builders9DebugList5entry17h2dea26f6c644471aE
Ltmp1195:
	.loc	11 3440 9
	addq	$-16, %r13
	.loc	11 3570 21
	jne	LBB54_6
Ltmp1196:
LBB54_7:
	.loc	11 0 21 is_stmt 0
	leaq	-64(%rbp), %rdi
	.loc	1 2211 9 is_stmt 1
	callq	__ZN4core3fmt8builders9DebugList6finish17h1537bc92ee1acb1cE
Ltmp1197:
	.loc	7 333 6
	addq	$24, %rsp
	popq	%rbx
	popq	%r12
	popq	%r13
	popq	%r14
	popq	%r15
	popq	%rbp
	retq
LBB54_8:
Ltmp1198:
	.loc	11 3170 13
	leaq	l___unnamed_63(%rip), %rdx
	movl	$5, %esi
Ltmp1199:
	movq	%r13, %rdi
Ltmp1200:
	callq	__ZN4core5slice24slice_end_index_len_fail17hea9e3399ed430f80E
Ltmp1201:
Lfunc_end54:
	.cfi_endproc

	.globl	__ZN72_$LT$gimli..read..abbrev..Attributes$u20$as$u20$core..cmp..PartialEq$GT$2eq17h96f2079261e8ba5cE
	.p2align	4, 0x90
__ZN72_$LT$gimli..read..abbrev..Attributes$u20$as$u20$core..cmp..PartialEq$GT$2eq17h96f2079261e8ba5cE:
Lfunc_begin55:
	.loc	7 337 0
	.cfi_startproc
	pushq	%rbp
	.cfi_def_cfa_offset 16
	.cfi_offset %rbp, -16
	movq	%rsp, %rbp
	.cfi_def_cfa_register %rbp
	movq	%rdi, %rax
Ltmp1202:
	.loc	7 348 13 prologue_end
	cmpl	$1, (%rdi)
	jne	LBB55_2
Ltmp1203:
	.loc	10 818 19
	movq	8(%rax), %r8
Ltmp1204:
	.loc	10 1923 55
	movq	24(%rax), %rdi
Ltmp1205:
	.loc	7 348 13
	cmpl	$1, (%rsi)
	jne	LBB55_6
Ltmp1206:
LBB55_5:
	.loc	10 818 19
	movq	8(%rsi), %rdx
Ltmp1207:
	.loc	10 1923 55
	movq	24(%rsi), %rax
Ltmp1208:
	.loc	11 6245 12
	cmpq	%rax, %rdi
	.loc	11 6245 9 is_stmt 0
	je	LBB55_9
	jmp	LBB55_15
Ltmp1209:
LBB55_2:
	.loc	7 348 55 is_stmt 1
	movq	88(%rax), %rdi
Ltmp1210:
	.loc	11 3169 19
	cmpq	$6, %rdi
	.loc	11 3169 16 is_stmt 0
	jae	LBB55_17
Ltmp1211:
	.loc	7 0 0
	addq	$8, %rax
Ltmp1212:
	movq	%rax, %r8
Ltmp1213:
	.loc	7 348 13 is_stmt 1
	cmpl	$1, (%rsi)
	je	LBB55_5
Ltmp1214:
LBB55_6:
	.loc	7 348 55 is_stmt 0
	movq	88(%rsi), %rax
Ltmp1215:
	.loc	11 3169 19 is_stmt 1
	cmpq	$6, %rax
	.loc	11 3169 16 is_stmt 0
	jae	LBB55_18
Ltmp1216:
	.loc	7 0 0
	addq	$8, %rsi
Ltmp1217:
	movq	%rsi, %rdx
Ltmp1218:
	.loc	11 6245 12 is_stmt 1
	cmpq	%rax, %rdi
	.loc	11 6245 9 is_stmt 0
	jne	LBB55_15
Ltmp1219:
LBB55_9:
	.loc	11 0 9
	movb	$1, %al
Ltmp1220:
	.loc	20 331 9 is_stmt 1
	cmpq	%rdx, %r8
Ltmp1221:
	.loc	11 6251 9
	je	LBB55_16
Ltmp1222:
	.file	35 "/rustc/6c8927b0cf80ceee19386026cf9d7fd4fd9d486f/src/libcore/iter/adapters/zip.rs"
	.loc	35 174 9
	incq	%rdi
Ltmp1223:
	.loc	35 0 9 is_stmt 0
	movl	$10, %esi
Ltmp1224:
	.p2align	4, 0x90
LBB55_11:
	.loc	35 174 12
	decq	%rdi
	.loc	35 174 9
	je	LBB55_16
Ltmp1225:
	.loc	7 377 5 is_stmt 1
	movzwl	-2(%r8,%rsi), %ecx
Ltmp1226:
	.loc	3 62 33
	cmpw	-2(%rdx,%rsi), %cx
Ltmp1227:
	.loc	7 378 5
	jne	LBB55_15
Ltmp1228:
	movzwl	(%r8,%rsi), %ecx
Ltmp1229:
	.loc	3 62 33
	cmpw	(%rdx,%rsi), %cx
Ltmp1230:
	.loc	7 378 5
	jne	LBB55_15
Ltmp1231:
	.loc	7 379 5
	movq	-10(%r8,%rsi), %rcx
	cmpq	-10(%rdx,%rsi), %rcx
Ltmp1232:
	.file	36 "/rustc/6c8927b0cf80ceee19386026cf9d7fd4fd9d486f/src/libcore/iter/traits/iterator.rs"
	.loc	36 0 0 is_stmt 0
	leaq	16(%rsi), %rsi
Ltmp1233:
	.loc	36 1870 32 is_stmt 1
	je	LBB55_11
Ltmp1234:
LBB55_15:
	.loc	36 0 32 is_stmt 0
	xorl	%eax, %eax
Ltmp1235:
LBB55_16:
	.loc	7 339 6 is_stmt 1
	popq	%rbp
	retq
LBB55_17:
Ltmp1236:
	.loc	11 3170 13
	leaq	l___unnamed_63(%rip), %rdx
	movl	$5, %esi
Ltmp1237:
	callq	__ZN4core5slice24slice_end_index_len_fail17hea9e3399ed430f80E
Ltmp1238:
LBB55_18:
	.loc	11 3170 13 is_stmt 0
	leaq	l___unnamed_63(%rip), %rdx
	movl	$5, %esi
Ltmp1239:
	movq	%rax, %rdi
	callq	__ZN4core5slice24slice_end_index_len_fail17hea9e3399ed430f80E
Ltmp1240:
Lfunc_end55:
	.cfi_endproc

	.globl	__ZN75_$LT$gimli..read..abbrev..Attributes$u20$as$u20$core..ops..deref..Deref$GT$5deref17h60d806def8a61f8eE
	.p2align	4, 0x90
__ZN75_$LT$gimli..read..abbrev..Attributes$u20$as$u20$core..ops..deref..Deref$GT$5deref17h60d806def8a61f8eE:
Lfunc_begin56:
	.loc	7 346 0 is_stmt 1
	.cfi_startproc
	pushq	%rbp
	.cfi_def_cfa_offset 16
	.cfi_offset %rbp, -16
	movq	%rsp, %rbp
	.cfi_def_cfa_register %rbp
Ltmp1241:
	.loc	7 348 13 prologue_end
	cmpl	$1, (%rdi)
	jne	LBB56_2
Ltmp1242:
	.loc	10 818 19
	movq	8(%rdi), %rax
Ltmp1243:
	.loc	10 1923 55
	movq	24(%rdi), %rdx
Ltmp1244:
	.loc	7 351 6
	popq	%rbp
	retq
Ltmp1245:
LBB56_2:
	.loc	7 348 55
	movq	88(%rdi), %rdx
Ltmp1246:
	.loc	11 3169 19
	cmpq	$6, %rdx
	.loc	11 3169 16 is_stmt 0
	jae	LBB56_5
Ltmp1247:
	.loc	7 0 0
	addq	$8, %rdi
Ltmp1248:
	movq	%rdi, %rax
Ltmp1249:
	.loc	7 351 6 is_stmt 1
	popq	%rbp
	retq
Ltmp1250:
LBB56_5:
	.loc	11 3170 13
	leaq	l___unnamed_63(%rip), %rax
	movl	$5, %esi
	movq	%rdx, %rdi
Ltmp1251:
	movq	%rax, %rdx
Ltmp1252:
	callq	__ZN4core5slice24slice_end_index_len_fail17hea9e3399ed430f80E
Ltmp1253:
Lfunc_end56:
	.cfi_endproc

	.globl	__ZN145_$LT$gimli..read..abbrev..Attributes$u20$as$u20$core..convert..From$LT$alloc..vec..Vec$LT$gimli..read..abbrev..AttributeSpecification$GT$$GT$$GT$4from17h4f1789925faa33c0E
	.p2align	4, 0x90
__ZN145_$LT$gimli..read..abbrev..Attributes$u20$as$u20$core..convert..From$LT$alloc..vec..Vec$LT$gimli..read..abbrev..AttributeSpecification$GT$$GT$$GT$4from17h4f1789925faa33c0E:
Lfunc_begin57:
	.loc	7 368 0
	.cfi_startproc
	pushq	%rbp
	.cfi_def_cfa_offset 16
	.cfi_offset %rbp, -16
	movq	%rsp, %rbp
	.cfi_def_cfa_register %rbp
	movq	%rdi, %rax
Ltmp1254:
	.loc	7 369 9 prologue_end
	movq	16(%rsi), %rcx
	movq	%rcx, 24(%rdi)
	movq	(%rsi), %rcx
	movq	8(%rsi), %rdx
	movq	%rdx, 16(%rdi)
	movq	%rcx, 8(%rdi)
	movq	$1, (%rdi)
	.loc	7 370 6
	popq	%rbp
	retq
Ltmp1255:
Lfunc_end57:
	.cfi_endproc

	.globl	__ZN5gimli4read4line7LineRow18apply_line_advance17h4700e61f2c21b1f7E
	.p2align	4, 0x90
__ZN5gimli4read4line7LineRow18apply_line_advance17h4700e61f2c21b1f7E:
Lfunc_begin58:
	.file	37 "/Users/yingyuhang/.cargo/registry/src/github.com-1ecc6299db9ec823/gimli-0.22.0/src/read/line.rs"
	.loc	37 931 0
	.cfi_startproc
	pushq	%rbp
	.cfi_def_cfa_offset 16
	.cfi_offset %rbp, -16
	movq	%rsp, %rbp
	.cfi_def_cfa_register %rbp
Ltmp1256:
	.loc	37 932 12 prologue_end
	testq	%rsi, %rsi
	.loc	37 932 9 is_stmt 0
	js	LBB58_2
Ltmp1257:
	.file	38 "/rustc/6c8927b0cf80ceee19386026cf9d7fd4fd9d486f/src/libcore/num/wrapping.rs"
	.loc	38 146 17 is_stmt 1
	addq	%rsi, 24(%rdi)
Ltmp1258:
	.loc	37 942 6
	popq	%rbp
	retq
Ltmp1259:
LBB58_2:
	.loc	37 0 6 is_stmt 0
	movabsq	$-9223372036854775808, %rax
	.loc	37 933 29 is_stmt 1
	cmpq	%rax, %rsi
	je	LBB58_8
Ltmp1260:
	negq	%rsi
Ltmp1261:
	.loc	37 934 29
	movq	24(%rdi), %rax
	.loc	37 934 16 is_stmt 0
	subq	%rsi, %rax
	.loc	37 934 13
	jae	LBB58_5
Ltmp1262:
	.loc	37 937 17 is_stmt 1
	movq	$0, 24(%rdi)
Ltmp1263:
	.loc	37 942 6
	popq	%rbp
	retq
Ltmp1264:
LBB58_5:
	.loc	37 935 17
	jb	LBB58_9
Ltmp1265:
	movq	%rax, 24(%rdi)
Ltmp1266:
	.loc	37 942 6
	popq	%rbp
	retq
Ltmp1267:
LBB58_8:
	.loc	37 933 29
	leaq	_str.6(%rip), %rdi
Ltmp1268:
	leaq	l___unnamed_113(%rip), %rdx
	movl	$31, %esi
Ltmp1269:
	callq	__ZN4core9panicking5panic17h383a6b80ea7021aaE
LBB58_9:
Ltmp1270:
	.loc	37 935 17
	leaq	_str.5(%rip), %rdi
Ltmp1271:
	leaq	l___unnamed_114(%rip), %rdx
	movl	$33, %esi
Ltmp1272:
	callq	__ZN4core9panicking5panic17h383a6b80ea7021aaE
Ltmp1273:
Lfunc_end58:
	.cfi_endproc

	.globl	__ZN80_$LT$gimli..read..loclists..LocListsHeader$u20$as$u20$core..default..Default$GT$7default17hdad3b5614e3f1349E
	.p2align	4, 0x90
__ZN80_$LT$gimli..read..loclists..LocListsHeader$u20$as$u20$core..default..Default$GT$7default17hdad3b5614e3f1349E:
Lfunc_begin59:
	.file	39 "/Users/yingyuhang/.cargo/registry/src/github.com-1ecc6299db9ec823/gimli-0.22.0/src/read/loclists.rs"
	.loc	39 110 0
	.cfi_startproc
	pushq	%rbp
	.cfi_def_cfa_offset 16
	.cfi_offset %rbp, -16
	movq	%rsp, %rbp
	.cfi_def_cfa_register %rbp
	movabsq	$1411772930064384, %rax
Ltmp1274:
	.loc	39 119 6 prologue_end
	popq	%rbp
	retq
Ltmp1275:
Lfunc_end59:
	.cfi_endproc

	.globl	__ZN5gimli4read4unit20allow_section_offset17h24b0f2a918cdbe41E
	.p2align	4, 0x90
__ZN5gimli4read4unit20allow_section_offset17h24b0f2a918cdbe41E:
Lfunc_begin60:
	.file	40 "/Users/yingyuhang/.cargo/registry/src/github.com-1ecc6299db9ec823/gimli-0.22.0/src/read/unit.rs"
	.loc	40 2030 0
	.cfi_startproc
	xorl	%eax, %eax
Ltmp1276:
	.loc	40 2032 9 prologue_end
	addl	$-2, %edi
Ltmp1277:
	cmpw	$119, %di
	ja	LBB60_4
Ltmp1278:
	pushq	%rbp
	.cfi_def_cfa_offset 16
	.cfi_offset %rbp, -16
	movq	%rsp, %rbp
	.cfi_def_cfa_register %rbp
	movzwl	%di, %ecx
	leaq	LJTI60_0(%rip), %rdx
	movslq	(%rdx,%rcx,4), %rcx
	addq	%rdx, %rcx
	popq	%rbp
	jmpq	*%rcx
Ltmp1279:
LBB60_2:
	.loc	40 0 9 is_stmt 0
	movb	$1, %al
	.loc	40 2048 2 is_stmt 1
	retq
Ltmp1280:
LBB60_3:
	.loc	40 2045 50
	andl	$65534, %esi
Ltmp1281:
	cmpw	$2, %si
	sete	%al
LBB60_4:
	.loc	40 2048 2
	retq
Ltmp1282:
Lfunc_end60:
	.cfi_endproc
	.p2align	2, 0x90
	.data_region jt32
.set L60_0_set_2, LBB60_2-LJTI60_0
.set L60_0_set_4, LBB60_4-LJTI60_0
.set L60_0_set_3, LBB60_3-LJTI60_0
LJTI60_0:
	.long	L60_0_set_2
	.long	L60_0_set_4
	.long	L60_0_set_4
	.long	L60_0_set_4
	.long	L60_0_set_4
	.long	L60_0_set_4
	.long	L60_0_set_4
	.long	L60_0_set_4
	.long	L60_0_set_4
	.long	L60_0_set_4
	.long	L60_0_set_4
	.long	L60_0_set_4
	.long	L60_0_set_4
	.long	L60_0_set_4
	.long	L60_0_set_2
	.long	L60_0_set_4
	.long	L60_0_set_4
	.long	L60_0_set_4
	.long	L60_0_set_4
	.long	L60_0_set_4
	.long	L60_0_set_4
	.long	L60_0_set_4
	.long	L60_0_set_4
	.long	L60_0_set_2
	.long	L60_0_set_4
	.long	L60_0_set_4
	.long	L60_0_set_4
	.long	L60_0_set_4
	.long	L60_0_set_4
	.long	L60_0_set_4
	.long	L60_0_set_4
	.long	L60_0_set_4
	.long	L60_0_set_4
	.long	L60_0_set_4
	.long	L60_0_set_4
	.long	L60_0_set_4
	.long	L60_0_set_4
	.long	L60_0_set_4
	.long	L60_0_set_4
	.long	L60_0_set_4
	.long	L60_0_set_2
	.long	L60_0_set_4
	.long	L60_0_set_2
	.long	L60_0_set_4
	.long	L60_0_set_4
	.long	L60_0_set_4
	.long	L60_0_set_4
	.long	L60_0_set_4
	.long	L60_0_set_4
	.long	L60_0_set_4
	.long	L60_0_set_4
	.long	L60_0_set_4
	.long	L60_0_set_4
	.long	L60_0_set_4
	.long	L60_0_set_3
	.long	L60_0_set_4
	.long	L60_0_set_4
	.long	L60_0_set_4
	.long	L60_0_set_4
	.long	L60_0_set_4
	.long	L60_0_set_4
	.long	L60_0_set_4
	.long	L60_0_set_2
	.long	L60_0_set_4
	.long	L60_0_set_4
	.long	L60_0_set_2
	.long	L60_0_set_4
	.long	L60_0_set_4
	.long	L60_0_set_2
	.long	L60_0_set_4
	.long	L60_0_set_2
	.long	L60_0_set_4
	.long	L60_0_set_2
	.long	L60_0_set_4
	.long	L60_0_set_4
	.long	L60_0_set_2
	.long	L60_0_set_4
	.long	L60_0_set_4
	.long	L60_0_set_4
	.long	L60_0_set_4
	.long	L60_0_set_4
	.long	L60_0_set_4
	.long	L60_0_set_4
	.long	L60_0_set_2
	.long	L60_0_set_4
	.long	L60_0_set_4
	.long	L60_0_set_4
	.long	L60_0_set_4
	.long	L60_0_set_4
	.long	L60_0_set_4
	.long	L60_0_set_4
	.long	L60_0_set_4
	.long	L60_0_set_4
	.long	L60_0_set_4
	.long	L60_0_set_4
	.long	L60_0_set_4
	.long	L60_0_set_4
	.long	L60_0_set_4
	.long	L60_0_set_4
	.long	L60_0_set_4
	.long	L60_0_set_4
	.long	L60_0_set_4
	.long	L60_0_set_4
	.long	L60_0_set_4
	.long	L60_0_set_4
	.long	L60_0_set_4
	.long	L60_0_set_4
	.long	L60_0_set_4
	.long	L60_0_set_4
	.long	L60_0_set_4
	.long	L60_0_set_4
	.long	L60_0_set_4
	.long	L60_0_set_4
	.long	L60_0_set_4
	.long	L60_0_set_4
	.long	L60_0_set_4
	.long	L60_0_set_4
	.long	L60_0_set_4
	.long	L60_0_set_4
	.long	L60_0_set_2
	.end_data_region

	.globl	__ZN5gimli4read5value9ValueType8bit_size17h1c48202d7889fd53E
	.p2align	4, 0x90
__ZN5gimli4read5value9ValueType8bit_size17h1c48202d7889fd53E:
Lfunc_begin61:
	.file	41 "/Users/yingyuhang/.cargo/registry/src/github.com-1ecc6299db9ec823/gimli-0.22.0/src/read/value.rs"
	.loc	41 82 0
	.cfi_startproc
	pushq	%rbp
	.cfi_def_cfa_offset 16
	.cfi_offset %rbp, -16
	movq	%rsp, %rbp
	.cfi_def_cfa_register %rbp
	movl	$8, %eax
Ltmp1283:
	.loc	41 84 13 prologue_end
	movzbl	%dil, %ecx
	leaq	LJTI61_0(%rip), %rdx
	movslq	(%rdx,%rcx,4), %rcx
	addq	%rdx, %rcx
	jmpq	*%rcx
Ltmp1284:
LBB61_7:
	.loc	41 0 13 is_stmt 0
	movl	$32, %eax
	.loc	41 90 6 is_stmt 1
	popq	%rbp
	retq
Ltmp1285:
LBB61_8:
	.loc	41 0 6 is_stmt 0
	movl	$64, %eax
	jmp	LBB61_9
Ltmp1286:
LBB61_6:
	movl	$16, %eax
	.loc	41 90 6
	popq	%rbp
	retq
Ltmp1287:
LBB61_1:
	.loc	6 2675 17 is_stmt 1
	testq	%rsi, %rsi
	je	LBB61_2
Ltmp1288:
	bsrq	%rsi, %rcx
	xorq	$63, %rcx
	movl	$64, %eax
Ltmp1289:
	.loc	41 21 5
	subl	%ecx, %eax
	jb	LBB61_5
Ltmp1290:
LBB61_9:
	.loc	41 90 6
	popq	%rbp
	retq
Ltmp1291:
LBB61_2:
	.loc	41 0 6 is_stmt 0
	movl	$64, %ecx
	movl	$64, %eax
Ltmp1292:
	.loc	41 21 5 is_stmt 1
	subl	%ecx, %eax
	jae	LBB61_9
Ltmp1293:
LBB61_5:
	leaq	_str.5(%rip), %rdi
Ltmp1294:
	leaq	l___unnamed_115(%rip), %rdx
	movl	$33, %esi
Ltmp1295:
	callq	__ZN4core9panicking5panic17h383a6b80ea7021aaE
Ltmp1296:
Lfunc_end61:
	.cfi_endproc
	.p2align	2, 0x90
	.data_region jt32
.set L61_0_set_1, LBB61_1-LJTI61_0
.set L61_0_set_9, LBB61_9-LJTI61_0
.set L61_0_set_6, LBB61_6-LJTI61_0
.set L61_0_set_7, LBB61_7-LJTI61_0
.set L61_0_set_8, LBB61_8-LJTI61_0
LJTI61_0:
	.long	L61_0_set_1
	.long	L61_0_set_9
	.long	L61_0_set_9
	.long	L61_0_set_6
	.long	L61_0_set_6
	.long	L61_0_set_7
	.long	L61_0_set_7
	.long	L61_0_set_8
	.long	L61_0_set_8
	.long	L61_0_set_7
	.long	L61_0_set_8
	.end_data_region

	.globl	__ZN5gimli4read5value9ValueType13from_encoding17h5da3ea3a83e9e412E
	.p2align	4, 0x90
__ZN5gimli4read5value9ValueType13from_encoding17h5da3ea3a83e9e412E:
Lfunc_begin62:
	.loc	41 93 0
	.cfi_startproc
	pushq	%rbp
	.cfi_def_cfa_offset 16
	.cfi_offset %rbp, -16
	movq	%rsp, %rbp
	.cfi_def_cfa_register %rbp
	movb	$11, %al
Ltmp1297:
	.loc	41 95 14 prologue_end
	cmpb	$4, %dil
	je	LBB62_7
Ltmp1298:
	cmpb	$7, %dil
	je	LBB62_10
Ltmp1299:
	cmpb	$5, %dil
	jne	LBB62_12
Ltmp1300:
	.loc	41 95 40 is_stmt 0
	decq	%rsi
Ltmp1301:
	cmpq	$8, %rsi
	jae	LBB62_12
Ltmp1302:
	.loc	41 0 40
	movl	$139, %ecx
	.loc	41 95 40
	btl	%esi, %ecx
	jae	LBB62_12
Ltmp1303:
	shll	$3, %esi
	movabsq	$504685737132753665, %rax
	.loc	41 0 0
	movl	%esi, %ecx
	shrq	%cl, %rax
	.loc	41 107 6 is_stmt 1
	popq	%rbp
	retq
Ltmp1304:
LBB62_7:
	.loc	41 103 39
	cmpq	$4, %rsi
	je	LBB62_13
Ltmp1305:
	cmpq	$8, %rsi
	jne	LBB62_12
Ltmp1306:
	.loc	41 0 39 is_stmt 0
	movb	$10, %al
	jmp	LBB62_12
Ltmp1307:
LBB62_10:
	.loc	41 99 42 is_stmt 1
	decq	%rsi
Ltmp1308:
	cmpq	$8, %rsi
	jae	LBB62_12
Ltmp1309:
	.loc	41 0 42 is_stmt 0
	movl	$139, %ecx
	.loc	41 99 42
	btl	%esi, %ecx
	jb	LBB62_14
Ltmp1310:
LBB62_12:
	.loc	41 107 6 is_stmt 1
	popq	%rbp
	retq
Ltmp1311:
LBB62_13:
	.loc	41 0 6 is_stmt 0
	movb	$9, %al
	.loc	41 107 6
	popq	%rbp
	retq
Ltmp1312:
LBB62_14:
	.loc	41 99 42 is_stmt 1
	shll	$3, %esi
	movabsq	$577025909970830338, %rax
	.loc	41 0 0 is_stmt 0
	movl	%esi, %ecx
	shrq	%cl, %rax
	.loc	41 107 6 is_stmt 1
	popq	%rbp
	retq
Ltmp1313:
Lfunc_end62:
	.cfi_endproc

	.globl	__ZN5gimli4read5value5Value10value_type17h3f2a2203cabc1c59E
	.p2align	4, 0x90
__ZN5gimli4read5value5Value10value_type17h3f2a2203cabc1c59E:
Lfunc_begin63:
	.loc	41 153 0
	.cfi_startproc
	pushq	%rbp
	.cfi_def_cfa_offset 16
	.cfi_offset %rbp, -16
	movq	%rsp, %rbp
	.cfi_def_cfa_register %rbp
Ltmp1314:
	.loc	41 155 13 prologue_end
	movb	(%rdi), %al
	popq	%rbp
	retq
Ltmp1315:
Lfunc_end63:
	.cfi_endproc

	.globl	__ZN5gimli4read5value5Value6to_u6417h17656911c565a572E
	.p2align	4, 0x90
__ZN5gimli4read5value5Value6to_u6417h17656911c565a572E:
Lfunc_begin64:
	.loc	41 191 0
	.cfi_startproc
	pushq	%rbp
	.cfi_def_cfa_offset 16
	.cfi_offset %rbp, -16
	movq	%rsp, %rbp
	.cfi_def_cfa_register %rbp
	movq	%rdi, %rax
Ltmp1316:
	.loc	41 193 13 prologue_end
	movzbl	(%rsi), %ecx
	cmpq	$8, %rcx
	ja	LBB64_9
Ltmp1317:
	.loc	41 0 13 is_stmt 0
	leaq	LJTI64_0(%rip), %rdi
	movslq	(%rdi,%rcx,4), %rcx
	addq	%rdi, %rcx
	jmpq	*%rcx
Ltmp1318:
LBB64_8:
	movq	8(%rsi), %rdx
Ltmp1319:
	jmp	LBB64_12
Ltmp1320:
LBB64_9:
	.loc	41 202 25 is_stmt 1
	movb	$43, 8(%rax)
	movl	$1, %ecx
	.loc	41 0 0 is_stmt 0
	movq	%rcx, (%rax)
	.loc	41 205 6 is_stmt 1
	popq	%rbp
	retq
Ltmp1321:
LBB64_11:
	.loc	41 193 38
	andq	8(%rsi), %rdx
Ltmp1322:
	.loc	41 0 38 is_stmt 0
	jmp	LBB64_12
Ltmp1323:
LBB64_2:
	.loc	41 194 23 is_stmt 1
	movsbq	1(%rsi), %rdx
Ltmp1324:
	.loc	41 0 23 is_stmt 0
	jmp	LBB64_12
Ltmp1325:
LBB64_3:
	.loc	41 195 23 is_stmt 1
	movzbl	1(%rsi), %edx
Ltmp1326:
	.loc	41 0 23 is_stmt 0
	jmp	LBB64_12
Ltmp1327:
LBB64_4:
	.loc	41 196 24 is_stmt 1
	movswq	2(%rsi), %rdx
Ltmp1328:
	.loc	41 0 24 is_stmt 0
	jmp	LBB64_12
Ltmp1329:
LBB64_5:
	.loc	41 197 24 is_stmt 1
	movzwl	2(%rsi), %edx
Ltmp1330:
	.loc	41 0 24 is_stmt 0
	jmp	LBB64_12
Ltmp1331:
LBB64_6:
	.loc	41 198 24 is_stmt 1
	movslq	4(%rsi), %rdx
Ltmp1332:
	.loc	41 0 24 is_stmt 0
	jmp	LBB64_12
Ltmp1333:
LBB64_7:
	.loc	41 199 24 is_stmt 1
	movl	4(%rsi), %edx
Ltmp1334:
LBB64_12:
	.loc	41 204 9
	movq	%rdx, 8(%rax)
	xorl	%ecx, %ecx
Ltmp1335:
	.loc	41 0 0 is_stmt 0
	movq	%rcx, (%rax)
	.loc	41 205 6 is_stmt 1
	popq	%rbp
	retq
Ltmp1336:
Lfunc_end64:
	.cfi_endproc
	.p2align	2, 0x90
	.data_region jt32
.set L64_0_set_11, LBB64_11-LJTI64_0
.set L64_0_set_2, LBB64_2-LJTI64_0
.set L64_0_set_3, LBB64_3-LJTI64_0
.set L64_0_set_4, LBB64_4-LJTI64_0
.set L64_0_set_5, LBB64_5-LJTI64_0
.set L64_0_set_6, LBB64_6-LJTI64_0
.set L64_0_set_7, LBB64_7-LJTI64_0
.set L64_0_set_8, LBB64_8-LJTI64_0
LJTI64_0:
	.long	L64_0_set_11
	.long	L64_0_set_2
	.long	L64_0_set_3
	.long	L64_0_set_4
	.long	L64_0_set_5
	.long	L64_0_set_6
	.long	L64_0_set_7
	.long	L64_0_set_8
	.long	L64_0_set_8
	.end_data_region

	.section	__TEXT,__literal16,16byte_literals
	.p2align	4
LCPI65_0:
	.long	1127219200
	.long	1160773632
	.long	0
	.long	0
LCPI65_1:
	.quad	4841369599423283200
	.quad	4985484787499139072
	.section	__TEXT,__text,regular,pure_instructions
	.globl	__ZN5gimli4read5value5Value8from_u6417h4f96a1d7b75ca1afE
	.p2align	4, 0x90
__ZN5gimli4read5value5Value8from_u6417h4f96a1d7b75ca1afE:
Lfunc_begin65:
	.loc	41 212 0
	.cfi_startproc
	pushq	%rbp
	.cfi_def_cfa_offset 16
	.cfi_offset %rbp, -16
	movq	%rsp, %rbp
	.cfi_def_cfa_register %rbp
	movq	%rdi, %rax
Ltmp1337:
	.loc	41 214 13 prologue_end
	movzbl	%sil, %ecx
	leaq	LJTI65_0(%rip), %rdi
	movslq	(%rdi,%rcx,4), %rcx
	addq	%rdi, %rcx
	jmpq	*%rcx
Ltmp1338:
LBB65_2:
	.loc	41 0 13 is_stmt 0
	movb	$1, %sil
Ltmp1339:
	jmp	LBB65_12
Ltmp1340:
LBB65_3:
	movb	$2, %sil
Ltmp1341:
	jmp	LBB65_12
Ltmp1342:
LBB65_4:
	movb	$3, %sil
Ltmp1343:
	jmp	LBB65_12
Ltmp1344:
LBB65_5:
	movb	$4, %sil
Ltmp1345:
	jmp	LBB65_12
Ltmp1346:
LBB65_6:
	movb	$5, %sil
Ltmp1347:
	jmp	LBB65_12
Ltmp1348:
LBB65_7:
	movb	$6, %sil
Ltmp1349:
	jmp	LBB65_12
Ltmp1350:
LBB65_8:
	.loc	41 223 42 is_stmt 1
	testq	%rdx, %rdx
	js	LBB65_9
Ltmp1351:
	.loc	41 0 42 is_stmt 0
	cvtsi2ss	%rdx, %xmm0
	jmp	LBB65_11
Ltmp1352:
LBB65_1:
	.loc	41 224 42 is_stmt 1
	movq	%rdx, %xmm0
	punpckldq	LCPI65_0(%rip), %xmm0
	subpd	LCPI65_1(%rip), %xmm0
	movapd	%xmm0, %xmm1
	unpckhpd	%xmm0, %xmm1
	addsd	%xmm0, %xmm1
	.loc	41 224 31 is_stmt 0
	movq	%xmm1, %rdx
Ltmp1353:
	.loc	41 0 31
	movb	$10, %sil
Ltmp1354:
	jmp	LBB65_12
Ltmp1355:
LBB65_9:
	movq	%rdx, %rcx
	shrq	%rcx
	andl	$1, %edx
Ltmp1356:
	orq	%rcx, %rdx
	cvtsi2ss	%rdx, %xmm0
	addss	%xmm0, %xmm0
Ltmp1357:
LBB65_11:
	.loc	41 223 31 is_stmt 1
	movd	%xmm0, %edx
	movb	$9, %sil
Ltmp1358:
LBB65_12:
	.loc	41 226 9
	movb	%sil, 8(%rax)
	movb	%dl, 9(%rax)
	movw	%dx, 10(%rax)
	movl	%edx, 12(%rax)
	movq	%rdx, 16(%rax)
	movq	$0, (%rax)
Ltmp1359:
	.loc	41 227 6
	popq	%rbp
	retq
Ltmp1360:
Lfunc_end65:
	.cfi_endproc
	.p2align	2, 0x90
	.data_region jt32
.set L65_0_set_12, LBB65_12-LJTI65_0
.set L65_0_set_2, LBB65_2-LJTI65_0
.set L65_0_set_3, LBB65_3-LJTI65_0
.set L65_0_set_4, LBB65_4-LJTI65_0
.set L65_0_set_5, LBB65_5-LJTI65_0
.set L65_0_set_6, LBB65_6-LJTI65_0
.set L65_0_set_7, LBB65_7-LJTI65_0
.set L65_0_set_8, LBB65_8-LJTI65_0
.set L65_0_set_1, LBB65_1-LJTI65_0
LJTI65_0:
	.long	L65_0_set_12
	.long	L65_0_set_2
	.long	L65_0_set_3
	.long	L65_0_set_4
	.long	L65_0_set_5
	.long	L65_0_set_6
	.long	L65_0_set_7
	.long	L65_0_set_12
	.long	L65_0_set_12
	.long	L65_0_set_8
	.long	L65_0_set_1
	.end_data_region

	.section	__TEXT,__literal8,8byte_literals
	.p2align	3
LCPI66_0:
	.quad	4890909195324358656
LCPI66_1:
	.quad	4895412794951729151
LCPI66_2:
	.quad	4890909195324358655
LCPI66_3:
	.quad	-4332462841530417152
LCPI66_4:
	.quad	4751297606873776128
LCPI66_5:
	.quad	4746794007244308480
LCPI66_6:
	.quad	-4476578029606273024
LCPI66_7:
	.quad	4679239875398991872
LCPI66_8:
	.quad	4674736138332667904
LCPI66_9:
	.quad	-4548635623644200960
LCPI66_10:
	.quad	4643176031446892544
LCPI66_11:
	.quad	4638637247447433216
LCPI66_12:
	.quad	-4584664420663164928
	.section	__TEXT,__literal4,4byte_literals
	.p2align	2
LCPI66_13:
	.long	1593835520
LCPI66_14:
	.long	1602224127
LCPI66_15:
	.long	1593835519
LCPI66_16:
	.long	3741319168
LCPI66_17:
	.long	1333788671
LCPI66_18:
	.long	1325400063
LCPI66_19:
	.long	3472883712
LCPI66_20:
	.long	1199570688
LCPI66_21:
	.long	1191181824
LCPI66_22:
	.long	3338665984
LCPI66_23:
	.long	1132396544
LCPI66_24:
	.long	1123942400
LCPI66_25:
	.long	3271557120
	.section	__TEXT,__literal16,16byte_literals
	.p2align	4
LCPI66_26:
	.long	1127219200
	.long	1160773632
	.long	0
	.long	0
LCPI66_27:
	.quad	4841369599423283200
	.quad	4985484787499139072
	.section	__TEXT,__text,regular,pure_instructions
	.globl	__ZN5gimli4read5value5Value7convert17h0f66a78950d55831E
	.p2align	4, 0x90
__ZN5gimli4read5value5Value7convert17h0f66a78950d55831E:
Lfunc_begin66:
	.loc	41 281 0
	.cfi_startproc
	pushq	%rbp
	.cfi_def_cfa_offset 16
	.cfi_offset %rbp, -16
	movq	%rsp, %rbp
	.cfi_def_cfa_register %rbp
	movq	%rdi, %rax
Ltmp1361:
	.loc	41 283 13 prologue_end
	movzbl	(%rsi), %edi
	cmpq	$9, %rdi
	je	LBB66_4
Ltmp1362:
	cmpl	$10, %edi
	jne	LBB66_7
Ltmp1363:
	.loc	41 284 24
	movsd	8(%rsi), %xmm0
Ltmp1364:
	.loc	41 258 13
	movzbl	%dl, %ecx
Ltmp1365:
	.loc	41 0 13 is_stmt 0
	leaq	LJTI66_0(%rip), %rdx
Ltmp1366:
	movslq	(%rdx,%rcx,4), %rcx
	addq	%rdx, %rcx
	jmpq	*%rcx
Ltmp1367:
LBB66_3:
	xorpd	%xmm1, %xmm1
	.loc	41 258 50
	movapd	%xmm0, %xmm2
	maxsd	%xmm1, %xmm2
	movsd	LCPI66_0(%rip), %xmm1
	movapd	%xmm2, %xmm3
	subsd	%xmm1, %xmm3
	cvttsd2si	%xmm3, %rcx
	movabsq	$-9223372036854775808, %rdx
	xorq	%rcx, %rdx
	cvttsd2si	%xmm2, %rsi
Ltmp1368:
	ucomisd	%xmm1, %xmm2
	cmovaeq	%rdx, %rsi
	ucomisd	LCPI66_1(%rip), %xmm0
	jmp	LBB66_6
Ltmp1369:
LBB66_4:
	.loc	41 283 24 is_stmt 1
	movd	4(%rsi), %xmm0
Ltmp1370:
	.loc	41 236 13
	movzbl	%dl, %ecx
Ltmp1371:
	.loc	41 0 13 is_stmt 0
	leaq	LJTI66_1(%rip), %rdx
Ltmp1372:
	movslq	(%rdx,%rcx,4), %rcx
	addq	%rdx, %rcx
	jmpq	*%rcx
Ltmp1373:
LBB66_5:
	xorps	%xmm1, %xmm1
	.loc	41 236 50
	movaps	%xmm0, %xmm2
	maxss	%xmm1, %xmm2
	movss	LCPI66_13(%rip), %xmm1
	movaps	%xmm2, %xmm3
	subss	%xmm1, %xmm3
	cvttss2si	%xmm3, %rcx
	movabsq	$-9223372036854775808, %rdx
	xorq	%rcx, %rdx
	cvttss2si	%xmm2, %rsi
Ltmp1374:
	ucomiss	%xmm1, %xmm2
	cmovaeq	%rdx, %rsi
	ucomiss	LCPI66_14(%rip), %xmm0
Ltmp1375:
LBB66_6:
	.loc	41 0 50
	movq	$-1, %rcx
	cmovbeq	%rsi, %rcx
Ltmp1376:
	xorl	%edx, %edx
Ltmp1377:
	jmp	LBB66_43
Ltmp1378:
LBB66_7:
	.loc	41 193 13 is_stmt 1
	cmpq	$8, %rdi
Ltmp1379:
	ja	LBB66_10
Ltmp1380:
	.loc	41 0 13 is_stmt 0
	movsbq	1(%rsi), %r8
	movswq	2(%rsi), %r9
	movslq	4(%rsi), %r10
	movq	8(%rsi), %r11
Ltmp1381:
	leaq	LJTI66_2(%rip), %rsi
Ltmp1382:
	movslq	(%rsi,%rdi,4), %rdi
	addq	%rsi, %rdi
	jmpq	*%rdi
Ltmp1383:
LBB66_9:
	.loc	41 214 13 is_stmt 1
	movzbl	%dl, %ecx
Ltmp1384:
	.loc	41 0 13 is_stmt 0
	leaq	LJTI66_3(%rip), %rsi
	movslq	(%rsi,%rcx,4), %rcx
	addq	%rsi, %rcx
	jmpq	*%rcx
Ltmp1385:
LBB66_10:
	.loc	18 1586 9 is_stmt 1
	movq	$43, 8(%rax)
	movl	$1, %ecx
Ltmp1386:
	.loc	41 0 0 is_stmt 0
	movq	%rcx, (%rax)
	.loc	41 287 6 is_stmt 1
	popq	%rbp
	retq
Ltmp1387:
LBB66_11:
	.loc	41 193 38
	andq	%rcx, %r11
Ltmp1388:
	.loc	41 214 13
	movzbl	%dl, %ecx
Ltmp1389:
	.loc	41 0 13 is_stmt 0
	leaq	LJTI66_3(%rip), %rsi
	movslq	(%rsi,%rcx,4), %rcx
	addq	%rsi, %rcx
	jmpq	*%rcx
Ltmp1390:
LBB66_12:
	.loc	41 214 13
	movzbl	%dl, %ecx
Ltmp1391:
	.loc	41 0 13
	leaq	LJTI66_3(%rip), %rsi
	movslq	(%rsi,%rcx,4), %rcx
	addq	%rsi, %rcx
	movq	%r8, %r11
Ltmp1392:
	jmpq	*%rcx
Ltmp1393:
LBB66_13:
	.file	42 "/rustc/6c8927b0cf80ceee19386026cf9d7fd4fd9d486f/src/libcore/convert/num.rs"
	.loc	42 52 17 is_stmt 1
	movzbl	%r8b, %r11d
Ltmp1394:
	.loc	41 214 13
	movzbl	%dl, %ecx
Ltmp1395:
	.loc	41 0 13 is_stmt 0
	leaq	LJTI66_3(%rip), %rsi
	movslq	(%rsi,%rcx,4), %rcx
	addq	%rsi, %rcx
	jmpq	*%rcx
Ltmp1396:
LBB66_14:
	.loc	41 214 13
	movzbl	%dl, %ecx
Ltmp1397:
	.loc	41 0 13
	leaq	LJTI66_3(%rip), %rsi
	movslq	(%rsi,%rcx,4), %rcx
	addq	%rsi, %rcx
	movq	%r9, %r11
Ltmp1398:
	jmpq	*%rcx
Ltmp1399:
LBB66_15:
	.loc	42 52 17 is_stmt 1
	movzwl	%r9w, %r11d
Ltmp1400:
	.loc	41 214 13
	movzbl	%dl, %ecx
Ltmp1401:
	.loc	41 0 13 is_stmt 0
	leaq	LJTI66_3(%rip), %rsi
	movslq	(%rsi,%rcx,4), %rcx
	addq	%rsi, %rcx
	jmpq	*%rcx
Ltmp1402:
LBB66_16:
	.loc	41 214 13
	movzbl	%dl, %ecx
Ltmp1403:
	.loc	41 0 13
	leaq	LJTI66_3(%rip), %rsi
	movslq	(%rsi,%rcx,4), %rcx
	addq	%rsi, %rcx
	movq	%r10, %r11
Ltmp1404:
	jmpq	*%rcx
Ltmp1405:
LBB66_17:
	.loc	42 52 17 is_stmt 1
	movl	%r10d, %r11d
Ltmp1406:
	.loc	41 214 13
	movzbl	%dl, %ecx
Ltmp1407:
	.loc	41 0 13 is_stmt 0
	leaq	LJTI66_3(%rip), %rsi
	movslq	(%rsi,%rcx,4), %rcx
	addq	%rsi, %rcx
	jmpq	*%rcx
Ltmp1408:
LBB66_18:
	movb	$1, %dl
Ltmp1409:
	jmp	LBB66_60
Ltmp1410:
LBB66_19:
	.loc	41 259 40 is_stmt 1
	ucomisd	LCPI66_11(%rip), %xmm0
	movapd	%xmm0, %xmm1
	maxsd	LCPI66_12(%rip), %xmm1
	cvttsd2si	%xmm1, %ecx
	movl	$127, %edx
	cmovbel	%ecx, %edx
	xorl	%edi, %edi
	ucomisd	%xmm0, %xmm0
	jmp	LBB66_30
Ltmp1411:
LBB66_20:
	.loc	41 260 40
	ucomisd	LCPI66_10(%rip), %xmm0
	xorpd	%xmm1, %xmm1
	maxsd	%xmm1, %xmm0
Ltmp1412:
	cvttsd2si	%xmm0, %ecx
	jmp	LBB66_32
Ltmp1413:
LBB66_21:
	.loc	41 261 42
	ucomisd	LCPI66_8(%rip), %xmm0
	movapd	%xmm0, %xmm1
	maxsd	LCPI66_9(%rip), %xmm1
	cvttsd2si	%xmm1, %ecx
	movl	$32767, %edx
	cmovbel	%ecx, %edx
	xorl	%esi, %esi
Ltmp1414:
	ucomisd	%xmm0, %xmm0
	cmovnpl	%edx, %esi
Ltmp1415:
	.loc	41 0 42 is_stmt 0
	movb	$3, %dl
Ltmp1416:
	jmp	LBB66_41
Ltmp1417:
LBB66_22:
	.loc	41 262 42 is_stmt 1
	ucomisd	LCPI66_7(%rip), %xmm0
	xorpd	%xmm1, %xmm1
	maxsd	%xmm1, %xmm0
Ltmp1418:
	cvttsd2si	%xmm0, %ecx
	jmp	LBB66_35
Ltmp1419:
LBB66_23:
	.loc	41 263 42
	ucomisd	LCPI66_5(%rip), %xmm0
	movapd	%xmm0, %xmm1
	maxsd	LCPI66_6(%rip), %xmm1
	cvttsd2si	%xmm1, %ecx
	movl	$2147483647, %edx
	cmovbel	%ecx, %edx
	xorl	%r8d, %r8d
	ucomisd	%xmm0, %xmm0
	jmp	LBB66_37
Ltmp1420:
LBB66_24:
	.loc	41 264 42
	ucomisd	LCPI66_4(%rip), %xmm0
	xorpd	%xmm1, %xmm1
	maxsd	%xmm1, %xmm0
Ltmp1421:
	cvttsd2si	%xmm0, %rcx
	jmp	LBB66_39
Ltmp1422:
LBB66_25:
	.loc	41 265 42
	ucomisd	LCPI66_2(%rip), %xmm0
	movapd	%xmm0, %xmm1
	maxsd	LCPI66_3(%rip), %xmm1
	cvttsd2si	%xmm1, %rcx
	movabsq	$9223372036854775807, %rdx
	cmovbeq	%rcx, %rdx
	xorl	%ecx, %ecx
	ucomisd	%xmm0, %xmm0
	jmp	LBB66_45
Ltmp1423:
LBB66_26:
	.loc	41 0 42 is_stmt 0
	xorpd	%xmm1, %xmm1
	.loc	41 266 42 is_stmt 1
	movapd	%xmm0, %xmm2
	maxsd	%xmm1, %xmm2
	movsd	LCPI66_0(%rip), %xmm1
	movapd	%xmm2, %xmm3
	subsd	%xmm1, %xmm3
	cvttsd2si	%xmm3, %rcx
	movabsq	$-9223372036854775808, %rdx
	xorq	%rcx, %rdx
	cvttsd2si	%xmm2, %rsi
Ltmp1424:
	ucomisd	%xmm1, %xmm2
	cmovaeq	%rdx, %rsi
	ucomisd	LCPI66_1(%rip), %xmm0
	jmp	LBB66_47
Ltmp1425:
LBB66_27:
	.loc	41 267 42
	cvtsd2ss	%xmm0, %xmm0
Ltmp1426:
LBB66_28:
	.loc	41 0 0 is_stmt 0
	movd	%xmm0, %r8d
	movb	$9, %dl
Ltmp1427:
	jmp	LBB66_40
Ltmp1428:
LBB66_29:
	.loc	41 237 40 is_stmt 1
	ucomiss	LCPI66_24(%rip), %xmm0
	movaps	%xmm0, %xmm1
	maxss	LCPI66_25(%rip), %xmm1
	cvttss2si	%xmm1, %ecx
	movl	$127, %edx
	cmovbel	%ecx, %edx
	xorl	%edi, %edi
	ucomiss	%xmm0, %xmm0
Ltmp1429:
LBB66_30:
	.loc	41 0 0 is_stmt 0
	cmovnpl	%edx, %edi
Ltmp1430:
	movb	$1, %dl
Ltmp1431:
	jmp	LBB66_42
Ltmp1432:
LBB66_31:
	.loc	41 238 40 is_stmt 1
	ucomiss	LCPI66_23(%rip), %xmm0
	xorps	%xmm1, %xmm1
	maxss	%xmm1, %xmm0
Ltmp1433:
	cvttss2si	%xmm0, %ecx
Ltmp1434:
LBB66_32:
	.loc	41 0 40 is_stmt 0
	movl	$255, %edi
	cmovbel	%ecx, %edi
Ltmp1435:
	movb	$2, %dl
Ltmp1436:
	jmp	LBB66_42
Ltmp1437:
LBB66_33:
	.loc	41 239 42 is_stmt 1
	ucomiss	LCPI66_21(%rip), %xmm0
	movaps	%xmm0, %xmm1
	maxss	LCPI66_22(%rip), %xmm1
	cvttss2si	%xmm1, %ecx
	movl	$32767, %edx
	cmovbel	%ecx, %edx
	xorl	%esi, %esi
Ltmp1438:
	ucomiss	%xmm0, %xmm0
	cmovnpl	%edx, %esi
Ltmp1439:
	.loc	41 0 42 is_stmt 0
	movb	$3, %dl
Ltmp1440:
	jmp	LBB66_41
Ltmp1441:
LBB66_34:
	.loc	41 240 42 is_stmt 1
	ucomiss	LCPI66_20(%rip), %xmm0
	xorps	%xmm1, %xmm1
	maxss	%xmm1, %xmm0
Ltmp1442:
	cvttss2si	%xmm0, %ecx
Ltmp1443:
LBB66_35:
	.loc	41 0 42 is_stmt 0
	movl	$65535, %esi
Ltmp1444:
	cmovbel	%ecx, %esi
Ltmp1445:
	movb	$4, %dl
Ltmp1446:
	jmp	LBB66_41
Ltmp1447:
LBB66_36:
	.loc	41 241 42 is_stmt 1
	ucomiss	LCPI66_18(%rip), %xmm0
	movaps	%xmm0, %xmm1
	maxss	LCPI66_19(%rip), %xmm1
	cvttss2si	%xmm1, %ecx
	movl	$2147483647, %edx
	cmovbel	%ecx, %edx
	xorl	%r8d, %r8d
	ucomiss	%xmm0, %xmm0
Ltmp1448:
LBB66_37:
	.loc	41 0 0 is_stmt 0
	cmovnpl	%edx, %r8d
Ltmp1449:
	movb	$5, %dl
Ltmp1450:
	jmp	LBB66_40
Ltmp1451:
LBB66_38:
	.loc	41 242 42 is_stmt 1
	ucomiss	LCPI66_17(%rip), %xmm0
	xorps	%xmm1, %xmm1
	maxss	%xmm1, %xmm0
Ltmp1452:
	cvttss2si	%xmm0, %rcx
Ltmp1453:
LBB66_39:
	.loc	41 0 42 is_stmt 0
	movl	$-1, %r8d
	cmovbel	%ecx, %r8d
Ltmp1454:
	movb	$6, %dl
Ltmp1455:
LBB66_40:
LBB66_41:
LBB66_42:
LBB66_43:
	movb	%dl, 8(%rax)
	movb	%dil, 9(%rax)
	movw	%si, 10(%rax)
	movl	%r8d, 12(%rax)
	movq	%rcx, 16(%rax)
	xorl	%ecx, %ecx
Ltmp1456:
	movq	%rcx, (%rax)
	.loc	41 287 6 is_stmt 1
	popq	%rbp
	retq
Ltmp1457:
LBB66_44:
	.loc	41 243 42
	ucomiss	LCPI66_15(%rip), %xmm0
	movaps	%xmm0, %xmm1
	maxss	LCPI66_16(%rip), %xmm1
	cvttss2si	%xmm1, %rcx
	movabsq	$9223372036854775807, %rdx
	cmovbeq	%rcx, %rdx
	xorl	%ecx, %ecx
	ucomiss	%xmm0, %xmm0
Ltmp1458:
LBB66_45:
	.loc	41 0 0 is_stmt 0
	cmovnpq	%rdx, %rcx
Ltmp1459:
	movb	$7, %dl
Ltmp1460:
	jmp	LBB66_43
Ltmp1461:
LBB66_46:
	xorps	%xmm1, %xmm1
Ltmp1462:
	.loc	41 244 42 is_stmt 1
	movdqa	%xmm0, %xmm2
	maxss	%xmm1, %xmm2
	movss	LCPI66_13(%rip), %xmm1
	movaps	%xmm2, %xmm3
	subss	%xmm1, %xmm3
	cvttss2si	%xmm3, %rcx
	movabsq	$-9223372036854775808, %rdx
	xorq	%rcx, %rdx
	cvttss2si	%xmm2, %rsi
Ltmp1463:
	ucomiss	%xmm1, %xmm2
	cmovaeq	%rdx, %rsi
	ucomiss	LCPI66_14(%rip), %xmm0
Ltmp1464:
LBB66_47:
	.loc	41 0 42 is_stmt 0
	movq	$-1, %rcx
	cmovbeq	%rsi, %rcx
Ltmp1465:
	movb	$8, %dl
Ltmp1466:
	jmp	LBB66_43
Ltmp1467:
LBB66_48:
	.loc	42 52 17 is_stmt 1
	cvtss2sd	%xmm0, %xmm0
Ltmp1468:
LBB66_49:
	.loc	41 0 0 is_stmt 0
	movq	%xmm0, %rcx
Ltmp1469:
	movb	$10, %dl
Ltmp1470:
	jmp	LBB66_43
Ltmp1471:
LBB66_50:
	movb	$2, %dl
Ltmp1472:
	jmp	LBB66_60
Ltmp1473:
LBB66_51:
	movb	$3, %dl
Ltmp1474:
	jmp	LBB66_60
Ltmp1475:
LBB66_52:
	movb	$4, %dl
Ltmp1476:
	jmp	LBB66_60
Ltmp1477:
LBB66_53:
	movb	$5, %dl
Ltmp1478:
	jmp	LBB66_60
Ltmp1479:
LBB66_54:
	movb	$6, %dl
Ltmp1480:
	jmp	LBB66_60
Ltmp1481:
LBB66_55:
	.loc	41 223 42 is_stmt 1
	testq	%r11, %r11
	js	LBB66_58
Ltmp1482:
	.loc	41 0 42 is_stmt 0
	cvtsi2ss	%r11, %xmm0
	jmp	LBB66_59
Ltmp1483:
LBB66_57:
	.loc	41 224 42 is_stmt 1
	movq	%r11, %xmm0
	punpckldq	LCPI66_26(%rip), %xmm0
	subpd	LCPI66_27(%rip), %xmm0
	movapd	%xmm0, %xmm1
	unpckhpd	%xmm0, %xmm1
	addsd	%xmm0, %xmm1
	.loc	41 224 31 is_stmt 0
	movq	%xmm1, %r11
Ltmp1484:
	.loc	41 0 31
	movb	$10, %dl
Ltmp1485:
	jmp	LBB66_60
Ltmp1486:
LBB66_58:
	movq	%r11, %rcx
	shrq	%rcx
	andl	$1, %r11d
	orq	%rcx, %r11
	cvtsi2ss	%r11, %xmm0
	addss	%xmm0, %xmm0
Ltmp1487:
LBB66_59:
	.loc	41 223 31 is_stmt 1
	movd	%xmm0, %r11d
	movb	$9, %dl
Ltmp1488:
LBB66_60:
	.loc	41 226 9
	movb	%dl, 8(%rax)
	movb	%r11b, 9(%rax)
	movw	%r11w, 10(%rax)
	movl	%r11d, 12(%rax)
	movq	%r11, 16(%rax)
	xorl	%ecx, %ecx
Ltmp1489:
	.loc	41 0 0 is_stmt 0
	movq	%rcx, (%rax)
	.loc	41 287 6 is_stmt 1
	popq	%rbp
	retq
Ltmp1490:
Lfunc_end66:
	.cfi_endproc
	.p2align	2, 0x90
	.data_region jt32
.set L66_0_set_3, LBB66_3-LJTI66_0
.set L66_0_set_19, LBB66_19-LJTI66_0
.set L66_0_set_20, LBB66_20-LJTI66_0
.set L66_0_set_21, LBB66_21-LJTI66_0
.set L66_0_set_22, LBB66_22-LJTI66_0
.set L66_0_set_23, LBB66_23-LJTI66_0
.set L66_0_set_24, LBB66_24-LJTI66_0
.set L66_0_set_25, LBB66_25-LJTI66_0
.set L66_0_set_26, LBB66_26-LJTI66_0
.set L66_0_set_27, LBB66_27-LJTI66_0
.set L66_0_set_49, LBB66_49-LJTI66_0
LJTI66_0:
	.long	L66_0_set_3
	.long	L66_0_set_19
	.long	L66_0_set_20
	.long	L66_0_set_21
	.long	L66_0_set_22
	.long	L66_0_set_23
	.long	L66_0_set_24
	.long	L66_0_set_25
	.long	L66_0_set_26
	.long	L66_0_set_27
	.long	L66_0_set_49
.set L66_1_set_5, LBB66_5-LJTI66_1
.set L66_1_set_29, LBB66_29-LJTI66_1
.set L66_1_set_31, LBB66_31-LJTI66_1
.set L66_1_set_33, LBB66_33-LJTI66_1
.set L66_1_set_34, LBB66_34-LJTI66_1
.set L66_1_set_36, LBB66_36-LJTI66_1
.set L66_1_set_38, LBB66_38-LJTI66_1
.set L66_1_set_44, LBB66_44-LJTI66_1
.set L66_1_set_46, LBB66_46-LJTI66_1
.set L66_1_set_28, LBB66_28-LJTI66_1
.set L66_1_set_48, LBB66_48-LJTI66_1
LJTI66_1:
	.long	L66_1_set_5
	.long	L66_1_set_29
	.long	L66_1_set_31
	.long	L66_1_set_33
	.long	L66_1_set_34
	.long	L66_1_set_36
	.long	L66_1_set_38
	.long	L66_1_set_44
	.long	L66_1_set_46
	.long	L66_1_set_28
	.long	L66_1_set_48
.set L66_2_set_11, LBB66_11-LJTI66_2
.set L66_2_set_12, LBB66_12-LJTI66_2
.set L66_2_set_13, LBB66_13-LJTI66_2
.set L66_2_set_14, LBB66_14-LJTI66_2
.set L66_2_set_15, LBB66_15-LJTI66_2
.set L66_2_set_16, LBB66_16-LJTI66_2
.set L66_2_set_17, LBB66_17-LJTI66_2
.set L66_2_set_9, LBB66_9-LJTI66_2
LJTI66_2:
	.long	L66_2_set_11
	.long	L66_2_set_12
	.long	L66_2_set_13
	.long	L66_2_set_14
	.long	L66_2_set_15
	.long	L66_2_set_16
	.long	L66_2_set_17
	.long	L66_2_set_9
	.long	L66_2_set_9
.set L66_3_set_60, LBB66_60-LJTI66_3
.set L66_3_set_18, LBB66_18-LJTI66_3
.set L66_3_set_50, LBB66_50-LJTI66_3
.set L66_3_set_51, LBB66_51-LJTI66_3
.set L66_3_set_52, LBB66_52-LJTI66_3
.set L66_3_set_53, LBB66_53-LJTI66_3
.set L66_3_set_54, LBB66_54-LJTI66_3
.set L66_3_set_55, LBB66_55-LJTI66_3
.set L66_3_set_57, LBB66_57-LJTI66_3
LJTI66_3:
	.long	L66_3_set_60
	.long	L66_3_set_18
	.long	L66_3_set_50
	.long	L66_3_set_51
	.long	L66_3_set_52
	.long	L66_3_set_53
	.long	L66_3_set_54
	.long	L66_3_set_60
	.long	L66_3_set_60
	.long	L66_3_set_55
	.long	L66_3_set_57
	.end_data_region

	.globl	__ZN5gimli4read5value5Value11reinterpret17h9ed16f67a85fe77dE
	.p2align	4, 0x90
__ZN5gimli4read5value5Value11reinterpret17h9ed16f67a85fe77dE:
Lfunc_begin67:
	.loc	41 294 0
	.cfi_startproc
	pushq	%rbp
	.cfi_def_cfa_offset 16
	.cfi_offset %rbp, -16
	movq	%rsp, %rbp
	.cfi_def_cfa_register %rbp
	pushq	%rbx
	pushq	%rax
	.cfi_offset %rbx, -24
	movq	%rdi, %rax
Ltmp1491:
	.loc	41 155 13 prologue_end
	movzbl	(%rsi), %r8d
	movl	$64, %r9d
	leaq	LJTI67_0(%rip), %r10
	movslq	(%r10,%r8,4), %rdi
	addq	%r10, %rdi
	jmpq	*%rdi
Ltmp1492:
LBB67_6:
	.loc	41 0 13 is_stmt 0
	movl	$8, %r9d
Ltmp1493:
	movl	$8, %ebx
Ltmp1494:
	.loc	41 84 13 is_stmt 1
	movzbl	%dl, %edi
	leaq	LJTI67_1(%rip), %r10
	movslq	(%r10,%rdi,4), %rdi
	addq	%r10, %rdi
Ltmp1495:
	.loc	41 0 13 is_stmt 0
	jmpq	*%rdi
Ltmp1496:
LBB67_4:
	movl	$32, %r9d
Ltmp1497:
	movl	$8, %ebx
	.loc	41 84 13
	movzbl	%dl, %edi
	leaq	LJTI67_1(%rip), %r10
	movslq	(%r10,%rdi,4), %rdi
	addq	%r10, %rdi
	jmpq	*%rdi
Ltmp1498:
LBB67_2:
	.loc	41 0 13
	movl	$16, %r9d
Ltmp1499:
	movl	$8, %ebx
	.loc	41 84 13
	movzbl	%dl, %edi
	leaq	LJTI67_1(%rip), %r10
	movslq	(%r10,%rdi,4), %rdi
	addq	%r10, %rdi
	jmpq	*%rdi
Ltmp1500:
LBB67_1:
	.loc	41 0 13
	movl	$16, %r9d
	movl	$8, %ebx
Ltmp1501:
	.loc	41 84 13
	movzbl	%dl, %r10d
	leaq	LJTI67_1(%rip), %r11
	movslq	(%r11,%r10,4), %rdi
	addq	%r11, %rdi
	jmpq	*%rdi
Ltmp1502:
LBB67_5:
	.loc	41 0 13
	movl	$32, %r9d
Ltmp1503:
	movl	$8, %ebx
	.loc	41 84 13
	movzbl	%dl, %edi
	leaq	LJTI67_1(%rip), %r10
	movslq	(%r10,%rdi,4), %rdi
	addq	%r10, %rdi
	jmpq	*%rdi
Ltmp1504:
LBB67_3:
	.loc	41 0 13
	movl	$32, %r9d
Ltmp1505:
	movl	$8, %ebx
	.loc	41 84 13
	movzbl	%dl, %edi
	leaq	LJTI67_1(%rip), %r10
	movslq	(%r10,%rdi,4), %rdi
	addq	%r10, %rdi
	jmpq	*%rdi
Ltmp1506:
LBB67_7:
	.loc	6 2675 17 is_stmt 1
	testq	%rcx, %rcx
	je	LBB67_8
Ltmp1507:
	bsrq	%rcx, %rdi
	xorq	$63, %rdi
	movl	$64, %r9d
Ltmp1508:
	.loc	41 21 5
	subl	%edi, %r9d
	jae	LBB67_11
	jmp	LBB67_16
Ltmp1509:
LBB67_8:
	.loc	41 0 5 is_stmt 0
	movl	$64, %edi
	movl	$64, %r9d
	.loc	41 21 5
	subl	%edi, %r9d
	jb	LBB67_16
Ltmp1510:
LBB67_11:
	.loc	41 0 5
	movl	$8, %ebx
Ltmp1511:
	.loc	41 84 13 is_stmt 1
	movzbl	%dl, %edi
	leaq	LJTI67_1(%rip), %r10
	movslq	(%r10,%rdi,4), %rdi
	addq	%r10, %rdi
	jmpq	*%rdi
Ltmp1512:
LBB67_18:
	.loc	41 0 13 is_stmt 0
	movl	$32, %ebx
	jmp	LBB67_20
Ltmp1513:
LBB67_19:
	movl	$64, %ebx
	jmp	LBB67_20
Ltmp1514:
LBB67_17:
	movl	$16, %ebx
	jmp	LBB67_20
Ltmp1515:
LBB67_12:
	.loc	6 2675 17 is_stmt 1
	testq	%rcx, %rcx
	je	LBB67_13
Ltmp1516:
	bsrq	%rcx, %rcx
Ltmp1517:
	xorq	$63, %rcx
	movl	$64, %ebx
Ltmp1518:
	.loc	41 21 5
	subl	%ecx, %ebx
	jb	LBB67_16
Ltmp1519:
LBB67_20:
	.loc	41 295 12
	cmpl	%ebx, %r9d
	.loc	41 295 9 is_stmt 0
	jne	LBB67_22
Ltmp1520:
	.loc	41 0 9
	leaq	LJTI67_2(%rip), %rcx
	movslq	(%rcx,%r8,4), %rdi
	addq	%rcx, %rdi
	jmpq	*%rdi
Ltmp1521:
LBB67_25:
	.loc	41 299 28 is_stmt 1
	movq	8(%rsi), %rcx
Ltmp1522:
	.loc	41 312 13
	movzbl	%dl, %esi
Ltmp1523:
	.loc	41 0 13 is_stmt 0
	leaq	LJTI67_3(%rip), %rdi
	movslq	(%rdi,%rsi,4), %rsi
	addq	%rdi, %rsi
	jmpq	*%rsi
Ltmp1524:
LBB67_22:
	.loc	41 296 20 is_stmt 1
	movb	$42, 8(%rax)
	movl	$1, %ecx
	jmp	LBB67_23
Ltmp1525:
LBB67_29:
	.loc	41 303 24
	movzwl	2(%rsi), %ecx
Ltmp1526:
	.loc	41 312 13
	movzbl	%dl, %esi
Ltmp1527:
	.loc	41 0 13 is_stmt 0
	leaq	LJTI67_3(%rip), %rdi
	movslq	(%rdi,%rsi,4), %rsi
	addq	%rdi, %rsi
	jmpq	*%rsi
Ltmp1528:
LBB67_34:
	.loc	41 308 24 is_stmt 1
	movl	4(%rsi), %ecx
Ltmp1529:
	.loc	41 312 13
	movzbl	%dl, %esi
Ltmp1530:
	.loc	41 0 13 is_stmt 0
	leaq	LJTI67_3(%rip), %rdi
	movslq	(%rdi,%rsi,4), %rsi
	addq	%rdi, %rsi
	jmpq	*%rsi
Ltmp1531:
LBB67_27:
	.loc	41 301 23 is_stmt 1
	movzbl	1(%rsi), %ecx
Ltmp1532:
	.loc	41 312 13
	movzbl	%dl, %esi
Ltmp1533:
	.loc	41 0 13 is_stmt 0
	leaq	LJTI67_3(%rip), %rdi
	movslq	(%rdi,%rsi,4), %rsi
	addq	%rdi, %rsi
	jmpq	*%rsi
Ltmp1534:
LBB67_28:
	.loc	41 302 24 is_stmt 1
	movswq	2(%rsi), %rcx
Ltmp1535:
	.loc	41 312 13
	movzbl	%dl, %esi
Ltmp1536:
	.loc	41 0 13 is_stmt 0
	leaq	LJTI67_3(%rip), %rdi
	movslq	(%rdi,%rsi,4), %rsi
	addq	%rdi, %rsi
	jmpq	*%rsi
Ltmp1537:
LBB67_26:
	.loc	41 300 23 is_stmt 1
	movsbq	1(%rsi), %rcx
Ltmp1538:
	.loc	41 312 13
	movzbl	%dl, %esi
Ltmp1539:
	.loc	41 0 13 is_stmt 0
	leaq	LJTI67_3(%rip), %rdi
	movslq	(%rdi,%rsi,4), %rsi
	addq	%rdi, %rsi
	jmpq	*%rsi
Ltmp1540:
LBB67_32:
	.loc	41 306 24 is_stmt 1
	movq	8(%rsi), %rcx
Ltmp1541:
	.loc	41 312 13
	movzbl	%dl, %esi
Ltmp1542:
	.loc	41 0 13 is_stmt 0
	leaq	LJTI67_3(%rip), %rdi
	movslq	(%rdi,%rsi,4), %rsi
	addq	%rdi, %rsi
	jmpq	*%rsi
Ltmp1543:
LBB67_30:
	.loc	41 304 24 is_stmt 1
	movslq	4(%rsi), %rcx
Ltmp1544:
	.loc	41 312 13
	movzbl	%dl, %esi
Ltmp1545:
	.loc	41 0 13 is_stmt 0
	leaq	LJTI67_3(%rip), %rdi
	movslq	(%rdi,%rsi,4), %rsi
	addq	%rdi, %rsi
	jmpq	*%rsi
Ltmp1546:
LBB67_31:
	.loc	41 305 24 is_stmt 1
	movl	4(%rsi), %ecx
Ltmp1547:
	.loc	41 312 13
	movzbl	%dl, %esi
Ltmp1548:
	.loc	41 0 13 is_stmt 0
	leaq	LJTI67_3(%rip), %rdi
	movslq	(%rdi,%rsi,4), %rsi
	addq	%rdi, %rsi
	jmpq	*%rsi
Ltmp1549:
LBB67_33:
	.loc	41 307 24 is_stmt 1
	movq	8(%rsi), %rcx
Ltmp1550:
	.loc	41 312 13
	movzbl	%dl, %esi
Ltmp1551:
	.loc	41 0 13 is_stmt 0
	leaq	LJTI67_3(%rip), %rdi
	movslq	(%rdi,%rsi,4), %rsi
	addq	%rdi, %rsi
	jmpq	*%rsi
Ltmp1552:
LBB67_24:
	.loc	41 309 24 is_stmt 1
	movq	8(%rsi), %rcx
Ltmp1553:
	.loc	41 312 13
	movzbl	%dl, %esi
Ltmp1554:
	.loc	41 0 13 is_stmt 0
	leaq	LJTI67_3(%rip), %rdi
	movslq	(%rdi,%rsi,4), %rsi
	addq	%rdi, %rsi
	jmpq	*%rsi
Ltmp1555:
LBB67_35:
	movb	$1, %dl
Ltmp1556:
	jmp	LBB67_42
Ltmp1557:
LBB67_40:
	movb	$6, %dl
Ltmp1558:
	jmp	LBB67_42
Ltmp1559:
LBB67_38:
	movb	$4, %dl
Ltmp1560:
	jmp	LBB67_42
Ltmp1561:
LBB67_36:
	movb	$2, %dl
Ltmp1562:
	jmp	LBB67_42
Ltmp1563:
LBB67_37:
	movb	$3, %dl
Ltmp1564:
	jmp	LBB67_42
Ltmp1565:
LBB67_39:
	movb	$5, %dl
Ltmp1566:
	jmp	LBB67_42
Ltmp1567:
LBB67_41:
	movb	$9, %dl
Ltmp1568:
LBB67_42:
	.loc	41 324 9 is_stmt 1
	movb	%dl, 8(%rax)
	movb	%cl, 9(%rax)
	movw	%cx, 10(%rax)
	movl	%ecx, 12(%rax)
	movq	%rcx, 16(%rax)
	xorl	%ecx, %ecx
Ltmp1569:
LBB67_23:
	.loc	41 0 0 is_stmt 0
	movq	%rcx, (%rax)
	.loc	41 325 6 is_stmt 1
	addq	$8, %rsp
	popq	%rbx
	popq	%rbp
	retq
LBB67_13:
Ltmp1570:
	.loc	41 0 6 is_stmt 0
	movl	$64, %ecx
Ltmp1571:
	movl	$64, %ebx
Ltmp1572:
	.loc	41 21 5 is_stmt 1
	subl	%ecx, %ebx
	jae	LBB67_20
Ltmp1573:
LBB67_16:
	.loc	41 0 0 is_stmt 0
	leaq	_str.5(%rip), %rdi
	leaq	l___unnamed_115(%rip), %rdx
Ltmp1574:
	movl	$33, %esi
Ltmp1575:
	callq	__ZN4core9panicking5panic17h383a6b80ea7021aaE
Ltmp1576:
Lfunc_end67:
	.cfi_endproc
	.p2align	2, 0x90
	.data_region jt32
.set L67_0_set_7, LBB67_7-LJTI67_0
.set L67_0_set_6, LBB67_6-LJTI67_0
.set L67_0_set_1, LBB67_1-LJTI67_0
.set L67_0_set_2, LBB67_2-LJTI67_0
.set L67_0_set_3, LBB67_3-LJTI67_0
.set L67_0_set_4, LBB67_4-LJTI67_0
.set L67_0_set_11, LBB67_11-LJTI67_0
.set L67_0_set_5, LBB67_5-LJTI67_0
LJTI67_0:
	.long	L67_0_set_7
	.long	L67_0_set_6
	.long	L67_0_set_6
	.long	L67_0_set_1
	.long	L67_0_set_2
	.long	L67_0_set_3
	.long	L67_0_set_4
	.long	L67_0_set_11
	.long	L67_0_set_11
	.long	L67_0_set_5
	.long	L67_0_set_11
.set L67_1_set_12, LBB67_12-LJTI67_1
.set L67_1_set_20, LBB67_20-LJTI67_1
.set L67_1_set_17, LBB67_17-LJTI67_1
.set L67_1_set_18, LBB67_18-LJTI67_1
.set L67_1_set_19, LBB67_19-LJTI67_1
LJTI67_1:
	.long	L67_1_set_12
	.long	L67_1_set_20
	.long	L67_1_set_20
	.long	L67_1_set_17
	.long	L67_1_set_17
	.long	L67_1_set_18
	.long	L67_1_set_18
	.long	L67_1_set_19
	.long	L67_1_set_19
	.long	L67_1_set_18
	.long	L67_1_set_19
.set L67_2_set_25, LBB67_25-LJTI67_2
.set L67_2_set_26, LBB67_26-LJTI67_2
.set L67_2_set_27, LBB67_27-LJTI67_2
.set L67_2_set_28, LBB67_28-LJTI67_2
.set L67_2_set_29, LBB67_29-LJTI67_2
.set L67_2_set_30, LBB67_30-LJTI67_2
.set L67_2_set_31, LBB67_31-LJTI67_2
.set L67_2_set_32, LBB67_32-LJTI67_2
.set L67_2_set_33, LBB67_33-LJTI67_2
.set L67_2_set_34, LBB67_34-LJTI67_2
.set L67_2_set_24, LBB67_24-LJTI67_2
LJTI67_2:
	.long	L67_2_set_25
	.long	L67_2_set_26
	.long	L67_2_set_27
	.long	L67_2_set_28
	.long	L67_2_set_29
	.long	L67_2_set_30
	.long	L67_2_set_31
	.long	L67_2_set_32
	.long	L67_2_set_33
	.long	L67_2_set_34
	.long	L67_2_set_24
.set L67_3_set_42, LBB67_42-LJTI67_3
.set L67_3_set_35, LBB67_35-LJTI67_3
.set L67_3_set_36, LBB67_36-LJTI67_3
.set L67_3_set_37, LBB67_37-LJTI67_3
.set L67_3_set_38, LBB67_38-LJTI67_3
.set L67_3_set_39, LBB67_39-LJTI67_3
.set L67_3_set_40, LBB67_40-LJTI67_3
.set L67_3_set_41, LBB67_41-LJTI67_3
LJTI67_3:
	.long	L67_3_set_42
	.long	L67_3_set_35
	.long	L67_3_set_36
	.long	L67_3_set_37
	.long	L67_3_set_38
	.long	L67_3_set_39
	.long	L67_3_set_40
	.long	L67_3_set_42
	.long	L67_3_set_42
	.long	L67_3_set_41
	.long	L67_3_set_42
	.end_data_region

	.section	__TEXT,__literal16,16byte_literals
	.p2align	4
LCPI68_0:
	.quad	-9223372036854775808
	.quad	-9223372036854775808
LCPI68_1:
	.long	2147483648
	.long	2147483648
	.long	2147483648
	.long	2147483648
	.section	__TEXT,__text,regular,pure_instructions
	.globl	__ZN5gimli4read5value5Value3abs17h07431611dfb415e7E
	.p2align	4, 0x90
__ZN5gimli4read5value5Value3abs17h07431611dfb415e7E:
Lfunc_begin68:
	.loc	41 332 0 is_stmt 1
	.cfi_startproc
	pushq	%rbp
	.cfi_def_cfa_offset 16
	.cfi_offset %rbp, -16
	movq	%rsp, %rbp
	.cfi_def_cfa_register %rbp
	movq	%rdi, %rax
Ltmp1577:
	.loc	41 336 13 prologue_end
	movb	(%rsi), %r9b
	movzbl	%r9b, %edi
	leaq	LJTI68_0(%rip), %rcx
	movslq	(%rcx,%rdi,4), %rdi
	addq	%rcx, %rdi
	jmpq	*%rdi
Ltmp1578:
LBB68_1:
	.loc	41 346 77
	movb	1(%rsi), %dl
Ltmp1579:
	movzwl	2(%rsi), %edi
	movl	4(%rsi), %r8d
	movq	8(%rsi), %rsi
Ltmp1580:
	.loc	41 0 77 is_stmt 0
	jmp	LBB68_12
Ltmp1581:
LBB68_2:
	.loc	41 15 17 is_stmt 1
	movq	%rdx, %rcx
	shrq	%rcx
	.loc	41 15 16 is_stmt 0
	incq	%rcx
Ltmp1582:
	.loc	41 14 17 is_stmt 1
	andq	8(%rsi), %rdx
Ltmp1583:
	.loc	41 16 5
	xorq	%rcx, %rdx
Ltmp1584:
	.loc	6 1333 17
	subq	%rcx, %rdx
Ltmp1585:
	.loc	6 1596 18
	movq	%rdx, %rsi
Ltmp1586:
	negq	%rsi
	cmovlq	%rdx, %rsi
Ltmp1587:
	.loc	6 0 18 is_stmt 0
	xorl	%r9d, %r9d
Ltmp1588:
	jmp	LBB68_9
Ltmp1589:
LBB68_3:
	.loc	41 339 23 is_stmt 1
	movb	1(%rsi), %dl
Ltmp1590:
	.loc	6 1596 18
	movl	%edx, %ecx
	sarb	$7, %cl
	addb	%cl, %dl
Ltmp1591:
	xorb	%cl, %dl
Ltmp1592:
	.loc	6 0 18 is_stmt 0
	movb	$1, %r9b
Ltmp1593:
	jmp	LBB68_12
Ltmp1594:
LBB68_4:
	.loc	41 340 24 is_stmt 1
	movzwl	2(%rsi), %ecx
Ltmp1595:
	.loc	6 1596 18
	movl	%ecx, %edi
	negw	%di
	cmovlw	%cx, %di
Ltmp1596:
	.loc	6 0 18 is_stmt 0
	movb	$3, %r9b
Ltmp1597:
	jmp	LBB68_11
Ltmp1598:
LBB68_5:
	.loc	41 341 24 is_stmt 1
	movl	4(%rsi), %ecx
Ltmp1599:
	.loc	6 1596 18
	movl	%ecx, %r8d
	negl	%r8d
	cmovll	%ecx, %r8d
Ltmp1600:
	.loc	6 0 18 is_stmt 0
	movb	$5, %r9b
Ltmp1601:
	jmp	LBB68_10
Ltmp1602:
LBB68_6:
	.loc	41 344 24 is_stmt 1
	movss	4(%rsi), %xmm0
	movaps	LCPI68_1(%rip), %xmm1
Ltmp1603:
	.loc	41 344 45 is_stmt 0
	xorps	%xmm0, %xmm1
	xorps	%xmm2, %xmm2
	movaps	%xmm0, %xmm3
	cmpltss	%xmm2, %xmm3
	andps	%xmm3, %xmm1
	andnps	%xmm0, %xmm3
	orps	%xmm1, %xmm3
	.loc	41 344 34
	movd	%xmm3, %r8d
Ltmp1604:
	.loc	41 0 34
	movb	$9, %r9b
Ltmp1605:
	jmp	LBB68_10
Ltmp1606:
LBB68_7:
	.loc	41 345 24 is_stmt 1
	movsd	8(%rsi), %xmm0
	movapd	LCPI68_0(%rip), %xmm1
Ltmp1607:
	.loc	41 345 45 is_stmt 0
	xorpd	%xmm0, %xmm1
	xorpd	%xmm2, %xmm2
	movapd	%xmm0, %xmm3
	cmpltsd	%xmm2, %xmm3
	andpd	%xmm3, %xmm1
	andnpd	%xmm0, %xmm3
	orpd	%xmm1, %xmm3
	.loc	41 345 34
	movq	%xmm3, %rsi
Ltmp1608:
	.loc	41 0 34
	movb	$10, %r9b
Ltmp1609:
	jmp	LBB68_9
Ltmp1610:
LBB68_8:
	.loc	41 342 24 is_stmt 1
	movq	8(%rsi), %rcx
Ltmp1611:
	.loc	6 1596 18
	movq	%rcx, %rsi
Ltmp1612:
	negq	%rsi
	cmovlq	%rcx, %rsi
Ltmp1613:
	.loc	6 0 18 is_stmt 0
	movb	$7, %r9b
Ltmp1614:
LBB68_9:
LBB68_10:
LBB68_11:
LBB68_12:
	.loc	41 348 9 is_stmt 1
	movb	%r9b, 8(%rax)
	movb	%dl, 9(%rax)
	movw	%di, 10(%rax)
	movl	%r8d, 12(%rax)
	movq	%rsi, 16(%rax)
	movq	$0, (%rax)
Ltmp1615:
	.loc	41 349 6
	popq	%rbp
	retq
Ltmp1616:
Lfunc_end68:
	.cfi_endproc
	.p2align	2, 0x90
	.data_region jt32
.set L68_0_set_2, LBB68_2-LJTI68_0
.set L68_0_set_3, LBB68_3-LJTI68_0
.set L68_0_set_1, LBB68_1-LJTI68_0
.set L68_0_set_4, LBB68_4-LJTI68_0
.set L68_0_set_5, LBB68_5-LJTI68_0
.set L68_0_set_8, LBB68_8-LJTI68_0
.set L68_0_set_6, LBB68_6-LJTI68_0
.set L68_0_set_7, LBB68_7-LJTI68_0
LJTI68_0:
	.long	L68_0_set_2
	.long	L68_0_set_3
	.long	L68_0_set_1
	.long	L68_0_set_4
	.long	L68_0_set_1
	.long	L68_0_set_5
	.long	L68_0_set_1
	.long	L68_0_set_8
	.long	L68_0_set_1
	.long	L68_0_set_6
	.long	L68_0_set_7
	.end_data_region

	.globl	__ZN5gimli4read5value5Value3neg17he1c82fb007ce62dbE
	.p2align	4, 0x90
__ZN5gimli4read5value5Value3neg17he1c82fb007ce62dbE:
Lfunc_begin69:
	.loc	41 356 0
	.cfi_startproc
	pushq	%rbp
	.cfi_def_cfa_offset 16
	.cfi_offset %rbp, -16
	movq	%rsp, %rbp
	.cfi_def_cfa_register %rbp
	movq	%rdi, %rax
Ltmp1617:
	.loc	41 360 13 prologue_end
	movzbl	(%rsi), %ecx
	leaq	LJTI69_0(%rip), %rdi
	movslq	(%rdi,%rcx,4), %rcx
	addq	%rdi, %rcx
	jmpq	*%rcx
Ltmp1618:
LBB69_1:
	.loc	41 372 24
	movb	$44, 8(%rax)
	movl	$1, %ecx
	.loc	41 0 0 is_stmt 0
	movq	%rcx, (%rax)
	.loc	41 376 6 is_stmt 1
	popq	%rbp
	retq
Ltmp1619:
LBB69_2:
	.loc	41 15 17
	movq	%rdx, %rcx
	shrq	%rcx
Ltmp1620:
	.loc	41 14 17
	andq	8(%rsi), %rdx
Ltmp1621:
	.loc	41 15 16
	incq	%rcx
Ltmp1622:
	.loc	41 16 5
	xorq	%rcx, %rdx
Ltmp1623:
	.loc	6 1883 17
	subq	%rdx, %rcx
Ltmp1624:
	.loc	6 0 17 is_stmt 0
	xorl	%edx, %edx
Ltmp1625:
	jmp	LBB69_9
Ltmp1626:
LBB69_3:
	xorl	%r9d, %r9d
Ltmp1627:
	.loc	6 1883 17
	subb	1(%rsi), %r9b
Ltmp1628:
	.loc	6 0 17
	movb	$1, %dl
Ltmp1629:
	jmp	LBB69_12
Ltmp1630:
LBB69_4:
	xorl	%r8d, %r8d
Ltmp1631:
	.loc	6 1883 17
	subw	2(%rsi), %r8w
Ltmp1632:
	.loc	6 0 17
	movb	$3, %dl
Ltmp1633:
	jmp	LBB69_11
Ltmp1634:
LBB69_5:
	xorl	%edi, %edi
Ltmp1635:
	.loc	6 1883 17
	subl	4(%rsi), %edi
Ltmp1636:
	.loc	6 0 17
	movb	$5, %dl
Ltmp1637:
	jmp	LBB69_10
Ltmp1638:
LBB69_6:
	movl	$-2147483648, %edi
Ltmp1639:
	.loc	41 367 34 is_stmt 1
	xorl	4(%rsi), %edi
Ltmp1640:
	.loc	41 0 34 is_stmt 0
	movb	$9, %dl
Ltmp1641:
	jmp	LBB69_10
Ltmp1642:
LBB69_7:
	movabsq	$-9223372036854775808, %rcx
Ltmp1643:
	.loc	41 368 34 is_stmt 1
	xorq	8(%rsi), %rcx
Ltmp1644:
	.loc	41 0 34 is_stmt 0
	movb	$10, %dl
Ltmp1645:
	jmp	LBB69_9
Ltmp1646:
LBB69_8:
	xorl	%ecx, %ecx
Ltmp1647:
	.loc	6 1883 17 is_stmt 1
	subq	8(%rsi), %rcx
Ltmp1648:
	.loc	6 0 17 is_stmt 0
	movb	$7, %dl
Ltmp1649:
LBB69_9:
LBB69_10:
LBB69_11:
LBB69_12:
	.loc	41 375 9 is_stmt 1
	movb	%dl, 8(%rax)
	movb	%r9b, 9(%rax)
	movw	%r8w, 10(%rax)
	movl	%edi, 12(%rax)
	movq	%rcx, 16(%rax)
	xorl	%ecx, %ecx
Ltmp1650:
	.loc	41 0 0 is_stmt 0
	movq	%rcx, (%rax)
	.loc	41 376 6 is_stmt 1
	popq	%rbp
	retq
Ltmp1651:
Lfunc_end69:
	.cfi_endproc
	.p2align	2, 0x90
	.data_region jt32
.set L69_0_set_2, LBB69_2-LJTI69_0
.set L69_0_set_3, LBB69_3-LJTI69_0
.set L69_0_set_1, LBB69_1-LJTI69_0
.set L69_0_set_4, LBB69_4-LJTI69_0
.set L69_0_set_5, LBB69_5-LJTI69_0
.set L69_0_set_8, LBB69_8-LJTI69_0
.set L69_0_set_6, LBB69_6-LJTI69_0
.set L69_0_set_7, LBB69_7-LJTI69_0
LJTI69_0:
	.long	L69_0_set_2
	.long	L69_0_set_3
	.long	L69_0_set_1
	.long	L69_0_set_4
	.long	L69_0_set_1
	.long	L69_0_set_5
	.long	L69_0_set_1
	.long	L69_0_set_8
	.long	L69_0_set_1
	.long	L69_0_set_6
	.long	L69_0_set_7
	.end_data_region

	.globl	__ZN5gimli4read5value5Value3add17h13bac3e382a7baf4E
	.p2align	4, 0x90
__ZN5gimli4read5value5Value3add17h13bac3e382a7baf4E:
Lfunc_begin70:
	.loc	41 383 0
	.cfi_startproc
	pushq	%rbp
	.cfi_def_cfa_offset 16
	.cfi_offset %rbp, -16
	movq	%rsp, %rbp
	.cfi_def_cfa_register %rbp
	pushq	%r15
	pushq	%r14
	pushq	%r12
	pushq	%rbx
	.cfi_offset %rbx, -48
	.cfi_offset %r12, -40
	.cfi_offset %r14, -32
	.cfi_offset %r15, -24
	movq	%rdi, %rax
Ltmp1652:
	.loc	41 384 28 prologue_end
	movzbl	(%rsi), %edi
	cmpq	$10, %rdi
	.loc	41 385 14
	ja	LBB70_29
Ltmp1653:
	.loc	41 0 14 is_stmt 0
	movb	1(%rsi), %r14b
	movzwl	2(%rsi), %r11d
	movl	4(%rsi), %r15d
	movq	8(%rsi), %rsi
Ltmp1654:
	movb	(%rdx), %bl
	movb	1(%rdx), %r8b
	movzwl	2(%rdx), %r10d
	movl	4(%rdx), %r9d
	movq	8(%rdx), %r12
	leaq	LJTI70_0(%rip), %rdx
Ltmp1655:
	movslq	(%rdx,%rdi,4), %rdi
	addq	%rdx, %rdi
	jmpq	*%rdi
Ltmp1656:
LBB70_2:
	.loc	41 385 34
	testb	%bl, %bl
	jne	LBB70_29
Ltmp1657:
	.loc	6 3439 17 is_stmt 1
	addq	%rsi, %r12
Ltmp1658:
	.loc	41 386 32
	andq	%rcx, %r12
Ltmp1659:
	.loc	41 0 32 is_stmt 0
	xorl	%ecx, %ecx
Ltmp1660:
	jmp	LBB70_25
Ltmp1661:
LBB70_4:
	.loc	41 388 29 is_stmt 1
	cmpb	$1, %bl
	jne	LBB70_29
Ltmp1662:
	.loc	6 1309 17
	addb	%r14b, %r8b
Ltmp1663:
	.loc	6 0 17 is_stmt 0
	movb	$1, %cl
Ltmp1664:
	jmp	LBB70_8
Ltmp1665:
LBB70_6:
	.loc	41 389 29 is_stmt 1
	cmpb	$2, %bl
	jne	LBB70_29
Ltmp1666:
	.loc	6 3439 17
	addb	%r14b, %r8b
Ltmp1667:
	.loc	6 0 17 is_stmt 0
	movb	$2, %cl
Ltmp1668:
LBB70_8:
	jmp	LBB70_28
Ltmp1669:
LBB70_9:
	.loc	41 390 30 is_stmt 1
	cmpb	$3, %bl
	jne	LBB70_29
Ltmp1670:
	.loc	6 1309 17
	addl	%r11d, %r10d
Ltmp1671:
	.loc	6 0 17 is_stmt 0
	movb	$3, %cl
Ltmp1672:
	jmp	LBB70_27
Ltmp1673:
LBB70_11:
	.loc	41 391 30 is_stmt 1
	cmpb	$4, %bl
	jne	LBB70_29
Ltmp1674:
	.loc	6 3439 17
	addl	%r11d, %r10d
Ltmp1675:
	.loc	6 0 17 is_stmt 0
	movb	$4, %cl
Ltmp1676:
	jmp	LBB70_27
Ltmp1677:
LBB70_13:
	.loc	41 392 30 is_stmt 1
	cmpb	$5, %bl
	jne	LBB70_29
Ltmp1678:
	.loc	6 1309 17
	addl	%r15d, %r9d
Ltmp1679:
	.loc	6 0 17 is_stmt 0
	movb	$5, %cl
Ltmp1680:
	jmp	LBB70_26
Ltmp1681:
LBB70_15:
	.loc	41 393 30 is_stmt 1
	cmpb	$6, %bl
	jne	LBB70_29
Ltmp1682:
	.loc	6 3439 17
	addl	%r15d, %r9d
Ltmp1683:
	.loc	6 0 17 is_stmt 0
	movb	$6, %cl
Ltmp1684:
	jmp	LBB70_26
Ltmp1685:
LBB70_17:
	.loc	41 394 30 is_stmt 1
	cmpb	$7, %bl
	jne	LBB70_29
Ltmp1686:
	.loc	6 1309 17
	addq	%rsi, %r12
Ltmp1687:
	.loc	6 0 17 is_stmt 0
	movb	$7, %cl
Ltmp1688:
	jmp	LBB70_25
Ltmp1689:
LBB70_19:
	.loc	41 395 30 is_stmt 1
	cmpb	$8, %bl
	jne	LBB70_29
Ltmp1690:
	.loc	6 3439 17
	addq	%rsi, %r12
Ltmp1691:
	.loc	6 0 17 is_stmt 0
	movb	$8, %cl
Ltmp1692:
	jmp	LBB70_25
Ltmp1693:
LBB70_21:
	.loc	41 396 30 is_stmt 1
	cmpb	$9, %bl
	jne	LBB70_29
Ltmp1694:
	.loc	41 396 25 is_stmt 0
	movd	%r15d, %xmm0
	.loc	41 396 41
	movd	%r9d, %xmm1
Ltmp1695:
	.loc	41 396 60
	addss	%xmm0, %xmm1
Ltmp1696:
	.loc	41 396 49
	movd	%xmm1, %r9d
Ltmp1697:
	.loc	41 0 49
	movb	$9, %cl
Ltmp1698:
	jmp	LBB70_26
Ltmp1699:
LBB70_23:
	.loc	41 397 30 is_stmt 1
	cmpb	$10, %bl
	jne	LBB70_29
Ltmp1700:
	.loc	41 397 25 is_stmt 0
	movq	%rsi, %xmm0
	.loc	41 397 41
	movq	%r12, %xmm1
Ltmp1701:
	.loc	41 397 60
	addsd	%xmm0, %xmm1
Ltmp1702:
	.loc	41 397 49
	movq	%xmm1, %r12
Ltmp1703:
	.loc	41 0 49
	movb	$10, %cl
Ltmp1704:
LBB70_25:
LBB70_26:
LBB70_27:
LBB70_28:
	.loc	41 400 9 is_stmt 1
	movb	%cl, 8(%rax)
	movb	%r8b, 9(%rax)
	movw	%r10w, 10(%rax)
	movl	%r9d, 12(%rax)
	movq	%r12, 16(%rax)
	xorl	%ecx, %ecx
Ltmp1705:
	.loc	41 0 9 is_stmt 0
	jmp	LBB70_30
Ltmp1706:
LBB70_29:
	.loc	41 398 25 is_stmt 1
	movb	$42, 8(%rax)
	movl	$1, %ecx
Ltmp1707:
LBB70_30:
	.loc	41 0 0 is_stmt 0
	movq	%rcx, (%rax)
	.loc	41 401 6 is_stmt 1
	popq	%rbx
	popq	%r12
	popq	%r14
	popq	%r15
	popq	%rbp
	retq
Ltmp1708:
Lfunc_end70:
	.cfi_endproc
	.p2align	2, 0x90
	.data_region jt32
.set L70_0_set_2, LBB70_2-LJTI70_0
.set L70_0_set_4, LBB70_4-LJTI70_0
.set L70_0_set_6, LBB70_6-LJTI70_0
.set L70_0_set_9, LBB70_9-LJTI70_0
.set L70_0_set_11, LBB70_11-LJTI70_0
.set L70_0_set_13, LBB70_13-LJTI70_0
.set L70_0_set_15, LBB70_15-LJTI70_0
.set L70_0_set_17, LBB70_17-LJTI70_0
.set L70_0_set_19, LBB70_19-LJTI70_0
.set L70_0_set_21, LBB70_21-LJTI70_0
.set L70_0_set_23, LBB70_23-LJTI70_0
LJTI70_0:
	.long	L70_0_set_2
	.long	L70_0_set_4
	.long	L70_0_set_6
	.long	L70_0_set_9
	.long	L70_0_set_11
	.long	L70_0_set_13
	.long	L70_0_set_15
	.long	L70_0_set_17
	.long	L70_0_set_19
	.long	L70_0_set_21
	.long	L70_0_set_23
	.end_data_region

	.globl	__ZN5gimli4read5value5Value3sub17h1980064fffba4250E
	.p2align	4, 0x90
__ZN5gimli4read5value5Value3sub17h1980064fffba4250E:
Lfunc_begin71:
	.loc	41 408 0
	.cfi_startproc
	pushq	%rbp
	.cfi_def_cfa_offset 16
	.cfi_offset %rbp, -16
	movq	%rsp, %rbp
	.cfi_def_cfa_register %rbp
	pushq	%r15
	pushq	%r14
	pushq	%r12
	pushq	%rbx
	.cfi_offset %rbx, -48
	.cfi_offset %r12, -40
	.cfi_offset %r14, -32
	.cfi_offset %r15, -24
	movq	%rdi, %rax
Ltmp1709:
	.loc	41 409 28 prologue_end
	movzbl	(%rsi), %edi
	cmpq	$10, %rdi
	.loc	41 410 14
	ja	LBB71_29
Ltmp1710:
	.loc	41 0 14 is_stmt 0
	movb	1(%rsi), %r9b
	movzwl	2(%rsi), %r11d
	movl	4(%rsi), %r8d
	movq	8(%rsi), %r10
	movb	(%rdx), %bl
	movb	1(%rdx), %r14b
	movzwl	2(%rdx), %r15d
	movl	4(%rdx), %esi
Ltmp1711:
	movq	8(%rdx), %r12
	leaq	LJTI71_0(%rip), %rdx
Ltmp1712:
	movslq	(%rdx,%rdi,4), %rdi
	addq	%rdx, %rdi
	jmpq	*%rdi
Ltmp1713:
LBB71_2:
	.loc	41 410 34
	testb	%bl, %bl
	jne	LBB71_29
Ltmp1714:
	.loc	6 3462 17 is_stmt 1
	subq	%r12, %r10
Ltmp1715:
	.loc	41 411 32
	andq	%rcx, %r10
Ltmp1716:
	.loc	41 0 32 is_stmt 0
	xorl	%ecx, %ecx
Ltmp1717:
	jmp	LBB71_25
Ltmp1718:
LBB71_4:
	.loc	41 413 29 is_stmt 1
	cmpb	$1, %bl
	jne	LBB71_29
Ltmp1719:
	.loc	6 1333 17
	subb	%r14b, %r9b
Ltmp1720:
	.loc	6 0 17 is_stmt 0
	movb	$1, %cl
Ltmp1721:
	jmp	LBB71_8
Ltmp1722:
LBB71_6:
	.loc	41 414 29 is_stmt 1
	cmpb	$2, %bl
	jne	LBB71_29
Ltmp1723:
	.loc	6 3462 17
	subb	%r14b, %r9b
Ltmp1724:
	.loc	6 0 17 is_stmt 0
	movb	$2, %cl
Ltmp1725:
LBB71_8:
	jmp	LBB71_28
Ltmp1726:
LBB71_9:
	.loc	41 415 30 is_stmt 1
	cmpb	$3, %bl
	jne	LBB71_29
Ltmp1727:
	.loc	6 1333 17
	subl	%r15d, %r11d
Ltmp1728:
	.loc	6 0 17 is_stmt 0
	movb	$3, %cl
Ltmp1729:
	jmp	LBB71_27
Ltmp1730:
LBB71_11:
	.loc	41 416 30 is_stmt 1
	cmpb	$4, %bl
	jne	LBB71_29
Ltmp1731:
	.loc	6 3462 17
	subl	%r15d, %r11d
Ltmp1732:
	.loc	6 0 17 is_stmt 0
	movb	$4, %cl
Ltmp1733:
	jmp	LBB71_27
Ltmp1734:
LBB71_13:
	.loc	41 417 30 is_stmt 1
	cmpb	$5, %bl
	jne	LBB71_29
Ltmp1735:
	.loc	6 1333 17
	subl	%esi, %r8d
Ltmp1736:
	.loc	6 0 17 is_stmt 0
	movb	$5, %cl
Ltmp1737:
	jmp	LBB71_26
Ltmp1738:
LBB71_15:
	.loc	41 418 30 is_stmt 1
	cmpb	$6, %bl
	jne	LBB71_29
Ltmp1739:
	.loc	6 3462 17
	subl	%esi, %r8d
Ltmp1740:
	.loc	6 0 17 is_stmt 0
	movb	$6, %cl
Ltmp1741:
	jmp	LBB71_26
Ltmp1742:
LBB71_17:
	.loc	41 419 30 is_stmt 1
	cmpb	$7, %bl
	jne	LBB71_29
Ltmp1743:
	.loc	6 1333 17
	subq	%r12, %r10
Ltmp1744:
	.loc	6 0 17 is_stmt 0
	movb	$7, %cl
Ltmp1745:
	jmp	LBB71_25
Ltmp1746:
LBB71_19:
	.loc	41 420 30 is_stmt 1
	cmpb	$8, %bl
	jne	LBB71_29
Ltmp1747:
	.loc	6 3462 17
	subq	%r12, %r10
Ltmp1748:
	.loc	6 0 17 is_stmt 0
	movb	$8, %cl
Ltmp1749:
	jmp	LBB71_25
Ltmp1750:
LBB71_21:
	.loc	41 421 30 is_stmt 1
	cmpb	$9, %bl
	jne	LBB71_29
Ltmp1751:
	.loc	41 421 25 is_stmt 0
	movd	%r8d, %xmm0
	.loc	41 421 41
	movd	%esi, %xmm1
Ltmp1752:
	.loc	41 421 60
	subss	%xmm1, %xmm0
Ltmp1753:
	.loc	41 421 49
	movd	%xmm0, %r8d
Ltmp1754:
	.loc	41 0 49
	movb	$9, %cl
Ltmp1755:
	jmp	LBB71_26
Ltmp1756:
LBB71_23:
	.loc	41 422 30 is_stmt 1
	cmpb	$10, %bl
	jne	LBB71_29
Ltmp1757:
	.loc	41 422 25 is_stmt 0
	movq	%r10, %xmm0
	.loc	41 422 41
	movq	%r12, %xmm1
Ltmp1758:
	.loc	41 422 60
	subsd	%xmm1, %xmm0
Ltmp1759:
	.loc	41 422 49
	movq	%xmm0, %r10
Ltmp1760:
	.loc	41 0 49
	movb	$10, %cl
Ltmp1761:
LBB71_25:
LBB71_26:
LBB71_27:
LBB71_28:
	.loc	41 425 9 is_stmt 1
	movb	%cl, 8(%rax)
	movb	%r9b, 9(%rax)
	movw	%r11w, 10(%rax)
	movl	%r8d, 12(%rax)
	movq	%r10, 16(%rax)
	xorl	%ecx, %ecx
Ltmp1762:
	.loc	41 0 9 is_stmt 0
	jmp	LBB71_30
Ltmp1763:
LBB71_29:
	.loc	41 423 25 is_stmt 1
	movb	$42, 8(%rax)
	movl	$1, %ecx
Ltmp1764:
LBB71_30:
	.loc	41 0 0 is_stmt 0
	movq	%rcx, (%rax)
	.loc	41 426 6 is_stmt 1
	popq	%rbx
	popq	%r12
	popq	%r14
	popq	%r15
	popq	%rbp
	retq
Ltmp1765:
Lfunc_end71:
	.cfi_endproc
	.p2align	2, 0x90
	.data_region jt32
.set L71_0_set_2, LBB71_2-LJTI71_0
.set L71_0_set_4, LBB71_4-LJTI71_0
.set L71_0_set_6, LBB71_6-LJTI71_0
.set L71_0_set_9, LBB71_9-LJTI71_0
.set L71_0_set_11, LBB71_11-LJTI71_0
.set L71_0_set_13, LBB71_13-LJTI71_0
.set L71_0_set_15, LBB71_15-LJTI71_0
.set L71_0_set_17, LBB71_17-LJTI71_0
.set L71_0_set_19, LBB71_19-LJTI71_0
.set L71_0_set_21, LBB71_21-LJTI71_0
.set L71_0_set_23, LBB71_23-LJTI71_0
LJTI71_0:
	.long	L71_0_set_2
	.long	L71_0_set_4
	.long	L71_0_set_6
	.long	L71_0_set_9
	.long	L71_0_set_11
	.long	L71_0_set_13
	.long	L71_0_set_15
	.long	L71_0_set_17
	.long	L71_0_set_19
	.long	L71_0_set_21
	.long	L71_0_set_23
	.end_data_region

	.globl	__ZN5gimli4read5value5Value3mul17h2beb77251722c114E
	.p2align	4, 0x90
__ZN5gimli4read5value5Value3mul17h2beb77251722c114E:
Lfunc_begin72:
	.loc	41 433 0
	.cfi_startproc
	pushq	%rbp
	.cfi_def_cfa_offset 16
	.cfi_offset %rbp, -16
	movq	%rsp, %rbp
	.cfi_def_cfa_register %rbp
	pushq	%r15
	pushq	%r14
	pushq	%r12
	pushq	%rbx
	.cfi_offset %rbx, -48
	.cfi_offset %r12, -40
	.cfi_offset %r14, -32
	.cfi_offset %r15, -24
	movq	%rdi, %r15
Ltmp1766:
	.loc	41 434 28 prologue_end
	movzbl	(%rsi), %edi
	cmpq	$10, %rdi
	.loc	41 435 14
	ja	LBB72_29
Ltmp1767:
	.loc	41 0 14 is_stmt 0
	movb	1(%rsi), %r14b
	movzwl	2(%rsi), %r11d
	movl	4(%rsi), %r10d
	movq	8(%rsi), %rsi
Ltmp1768:
	movb	(%rdx), %bl
	movb	1(%rdx), %al
	movzwl	2(%rdx), %r9d
	movl	4(%rdx), %r8d
	movq	8(%rdx), %r12
	leaq	LJTI72_0(%rip), %rdx
Ltmp1769:
	movslq	(%rdx,%rdi,4), %rdi
	addq	%rdx, %rdi
	jmpq	*%rdi
Ltmp1770:
LBB72_2:
	.loc	41 435 34
	testb	%bl, %bl
	jne	LBB72_29
Ltmp1771:
	.loc	6 3486 13 is_stmt 1
	imulq	%rsi, %r12
Ltmp1772:
	.loc	41 436 32
	andq	%rcx, %r12
Ltmp1773:
	.loc	41 0 32 is_stmt 0
	xorl	%ecx, %ecx
Ltmp1774:
	jmp	LBB72_25
Ltmp1775:
LBB72_4:
	.loc	41 438 29 is_stmt 1
	cmpb	$1, %bl
	jne	LBB72_29
Ltmp1776:
	.loc	41 0 29 is_stmt 0
	movb	$1, %cl
Ltmp1777:
	jmp	LBB72_8
Ltmp1778:
LBB72_6:
	.loc	41 439 29 is_stmt 1
	cmpb	$2, %bl
	jne	LBB72_29
Ltmp1779:
	.loc	41 0 29 is_stmt 0
	movb	$2, %cl
Ltmp1780:
LBB72_8:
	mulb	%r14b
Ltmp1781:
	jmp	LBB72_28
Ltmp1782:
LBB72_9:
	.loc	41 440 30 is_stmt 1
	cmpb	$3, %bl
	jne	LBB72_29
Ltmp1783:
	.loc	6 1356 17
	imull	%r11d, %r9d
Ltmp1784:
	.loc	6 0 17 is_stmt 0
	movb	$3, %cl
Ltmp1785:
	jmp	LBB72_27
Ltmp1786:
LBB72_11:
	.loc	41 441 30 is_stmt 1
	cmpb	$4, %bl
	jne	LBB72_29
Ltmp1787:
	.loc	6 3486 13
	imull	%r11d, %r9d
Ltmp1788:
	.loc	6 0 13 is_stmt 0
	movb	$4, %cl
Ltmp1789:
	jmp	LBB72_27
Ltmp1790:
LBB72_13:
	.loc	41 442 30 is_stmt 1
	cmpb	$5, %bl
	jne	LBB72_29
Ltmp1791:
	.loc	6 1356 17
	imull	%r10d, %r8d
Ltmp1792:
	.loc	6 0 17 is_stmt 0
	movb	$5, %cl
Ltmp1793:
	jmp	LBB72_26
Ltmp1794:
LBB72_15:
	.loc	41 443 30 is_stmt 1
	cmpb	$6, %bl
	jne	LBB72_29
Ltmp1795:
	.loc	6 3486 13
	imull	%r10d, %r8d
Ltmp1796:
	.loc	6 0 13 is_stmt 0
	movb	$6, %cl
Ltmp1797:
	jmp	LBB72_26
Ltmp1798:
LBB72_17:
	.loc	41 444 30 is_stmt 1
	cmpb	$7, %bl
	jne	LBB72_29
Ltmp1799:
	.loc	6 1356 17
	imulq	%rsi, %r12
Ltmp1800:
	.loc	6 0 17 is_stmt 0
	movb	$7, %cl
Ltmp1801:
	jmp	LBB72_25
Ltmp1802:
LBB72_19:
	.loc	41 445 30 is_stmt 1
	cmpb	$8, %bl
	jne	LBB72_29
Ltmp1803:
	.loc	6 3486 13
	imulq	%rsi, %r12
Ltmp1804:
	.loc	6 0 13 is_stmt 0
	movb	$8, %cl
Ltmp1805:
	jmp	LBB72_25
Ltmp1806:
LBB72_21:
	.loc	41 446 30 is_stmt 1
	cmpb	$9, %bl
	jne	LBB72_29
Ltmp1807:
	.loc	41 446 25 is_stmt 0
	movd	%r10d, %xmm0
	.loc	41 446 41
	movd	%r8d, %xmm1
Ltmp1808:
	.loc	41 446 60
	mulss	%xmm0, %xmm1
Ltmp1809:
	.loc	41 446 49
	movd	%xmm1, %r8d
Ltmp1810:
	.loc	41 0 49
	movb	$9, %cl
Ltmp1811:
	jmp	LBB72_26
Ltmp1812:
LBB72_23:
	.loc	41 447 30 is_stmt 1
	cmpb	$10, %bl
	jne	LBB72_29
Ltmp1813:
	.loc	41 447 25 is_stmt 0
	movq	%rsi, %xmm0
	.loc	41 447 41
	movq	%r12, %xmm1
Ltmp1814:
	.loc	41 447 60
	mulsd	%xmm0, %xmm1
Ltmp1815:
	.loc	41 447 49
	movq	%xmm1, %r12
Ltmp1816:
	.loc	41 0 49
	movb	$10, %cl
Ltmp1817:
LBB72_25:
LBB72_26:
LBB72_27:
LBB72_28:
	.loc	41 450 9 is_stmt 1
	movb	%cl, 8(%r15)
	movb	%al, 9(%r15)
	movw	%r9w, 10(%r15)
	movl	%r8d, 12(%r15)
	movq	%r12, 16(%r15)
	xorl	%eax, %eax
Ltmp1818:
	.loc	41 0 9 is_stmt 0
	jmp	LBB72_30
Ltmp1819:
LBB72_29:
	.loc	41 448 25 is_stmt 1
	movb	$42, 8(%r15)
	movl	$1, %eax
Ltmp1820:
LBB72_30:
	.loc	41 0 0 is_stmt 0
	movq	%rax, (%r15)
	.loc	41 451 6 is_stmt 1
	movq	%r15, %rax
	popq	%rbx
	popq	%r12
	popq	%r14
	popq	%r15
	popq	%rbp
	retq
Ltmp1821:
Lfunc_end72:
	.cfi_endproc
	.p2align	2, 0x90
	.data_region jt32
.set L72_0_set_2, LBB72_2-LJTI72_0
.set L72_0_set_4, LBB72_4-LJTI72_0
.set L72_0_set_6, LBB72_6-LJTI72_0
.set L72_0_set_9, LBB72_9-LJTI72_0
.set L72_0_set_11, LBB72_11-LJTI72_0
.set L72_0_set_13, LBB72_13-LJTI72_0
.set L72_0_set_15, LBB72_15-LJTI72_0
.set L72_0_set_17, LBB72_17-LJTI72_0
.set L72_0_set_19, LBB72_19-LJTI72_0
.set L72_0_set_21, LBB72_21-LJTI72_0
.set L72_0_set_23, LBB72_23-LJTI72_0
LJTI72_0:
	.long	L72_0_set_2
	.long	L72_0_set_4
	.long	L72_0_set_6
	.long	L72_0_set_9
	.long	L72_0_set_11
	.long	L72_0_set_13
	.long	L72_0_set_15
	.long	L72_0_set_17
	.long	L72_0_set_19
	.long	L72_0_set_21
	.long	L72_0_set_23
	.end_data_region

	.globl	__ZN5gimli4read5value5Value3div17ha07a129a01a5f488E
	.p2align	4, 0x90
__ZN5gimli4read5value5Value3div17ha07a129a01a5f488E:
Lfunc_begin73:
	.loc	41 459 0
	.cfi_startproc
	pushq	%rbp
	.cfi_def_cfa_offset 16
	.cfi_offset %rbp, -16
	movq	%rsp, %rbp
	.cfi_def_cfa_register %rbp
	pushq	%r15
	pushq	%r14
	pushq	%r12
	pushq	%rbx
	.cfi_offset %rbx, -48
	.cfi_offset %r12, -40
	.cfi_offset %r14, -32
	.cfi_offset %r15, -24
	movq	%rdi, %r10
Ltmp1822:
	.loc	41 461 13 prologue_end
	movzbl	(%rdx), %edi
	cmpq	$8, %rdi
	ja	LBB73_3
Ltmp1823:
	.loc	41 0 13 is_stmt 0
	leaq	LJTI73_0(%rip), %rax
	movslq	(%rax,%rdi,4), %rbx
	addq	%rax, %rbx
	jmpq	*%rbx
Ltmp1824:
LBB73_11:
	cmpb	$0, 1(%rdx)
	jne	LBB73_3
Ltmp1825:
LBB73_8:
	movb	$41, 8(%r10)
	jmp	LBB73_9
Ltmp1826:
LBB73_5:
	cmpl	$0, 4(%rdx)
	je	LBB73_8
Ltmp1827:
LBB73_3:
	.loc	41 476 28 is_stmt 1
	movzbl	(%rsi), %ebx
	cmpq	$10, %rbx
	.loc	41 477 14
	ja	LBB73_13
Ltmp1828:
	.loc	41 0 14 is_stmt 0
	movb	1(%rsi), %r14b
	movzwl	2(%rsi), %r8d
	movl	4(%rsi), %eax
	movq	8(%rsi), %r9
	movb	1(%rdx), %r12b
	movzwl	2(%rdx), %esi
Ltmp1829:
	movl	4(%rdx), %r15d
	movq	8(%rdx), %r11
	leaq	LJTI73_1(%rip), %rdx
Ltmp1830:
	movslq	(%rdx,%rbx,4), %rbx
	addq	%rdx, %rbx
	jmpq	*%rbx
Ltmp1831:
LBB73_12:
	.loc	41 477 34
	testb	%dil, %dil
	jne	LBB73_13
Ltmp1832:
	.loc	41 0 34
	movabsq	$-9223372036854775808, %rax
Ltmp1833:
	.loc	41 15 17 is_stmt 1
	movq	%rcx, %rdx
	shrq	%rdx
	.loc	41 15 16 is_stmt 0
	incq	%rdx
Ltmp1834:
	.loc	41 14 17 is_stmt 1
	andq	%rcx, %r9
Ltmp1835:
	.loc	41 16 5
	xorq	%rdx, %r9
Ltmp1836:
	.loc	6 1333 17
	subq	%rdx, %r9
Ltmp1837:
	.loc	41 14 17
	andq	%rcx, %r11
Ltmp1838:
	.loc	41 16 5
	xorq	%rdx, %r11
Ltmp1839:
	.loc	6 1333 17
	subq	%rdx, %r11
Ltmp1840:
	.loc	6 1753 30
	cmpq	%rax, %r9
	.loc	6 1753 17 is_stmt 0
	jne	LBB73_17
Ltmp1841:
	cmpq	$-1, %r11
	je	LBB73_16
Ltmp1842:
LBB73_17:
	.loc	6 1756 22 is_stmt 1
	testq	%r11, %r11
	je	LBB73_55
Ltmp1843:
	movq	%r9, %rax
	cqto
	idivq	%r11
	xorl	%ecx, %ecx
Ltmp1844:
	.loc	6 0 22 is_stmt 0
	jmp	LBB73_63
Ltmp1845:
LBB73_2:
	cmpw	$0, 2(%rdx)
	jne	LBB73_3
	jmp	LBB73_8
Ltmp1846:
LBB73_6:
	cmpq	$0, 8(%rdx)
	jne	LBB73_3
	jmp	LBB73_8
Ltmp1847:
LBB73_7:
	.loc	41 461 35 is_stmt 1
	testq	%rcx, 8(%rdx)
	jne	LBB73_3
	jmp	LBB73_8
Ltmp1848:
LBB73_37:
	.loc	41 486 30
	cmpb	$4, %dil
	jne	LBB73_13
Ltmp1849:
	.loc	6 3509 17
	testw	%si, %si
	je	LBB73_65
Ltmp1850:
	movl	%r8d, %eax
	xorl	%edx, %edx
	divw	%si
	movl	%eax, %r8d
Ltmp1851:
	.loc	6 0 17 is_stmt 0
	movb	$4, %cl
Ltmp1852:
	jmp	LBB73_64
Ltmp1853:
LBB73_59:
	.loc	41 491 30 is_stmt 1
	cmpb	$9, %dil
	jne	LBB73_13
Ltmp1854:
	.loc	41 491 25 is_stmt 0
	movd	%eax, %xmm0
	.loc	41 491 41
	movd	%r15d, %xmm1
Ltmp1855:
	.loc	41 491 60
	divss	%xmm1, %xmm0
Ltmp1856:
	.loc	41 491 49
	movd	%xmm0, %esi
Ltmp1857:
	.loc	41 0 49
	movb	$9, %cl
Ltmp1858:
	jmp	LBB73_64
Ltmp1859:
LBB73_27:
	.loc	41 484 29 is_stmt 1
	cmpb	$2, %dil
	jne	LBB73_13
Ltmp1860:
	.loc	6 3509 17
	testb	%r12b, %r12b
	je	LBB73_65
Ltmp1861:
	movzbl	%r14b, %eax
	divb	%r12b
	movl	%eax, %edx
Ltmp1862:
	.loc	6 0 17 is_stmt 0
	movb	$2, %cl
Ltmp1863:
	jmp	LBB73_64
Ltmp1864:
LBB73_30:
	.loc	41 485 30 is_stmt 1
	cmpb	$3, %dil
	jne	LBB73_13
Ltmp1865:
	.loc	6 1753 30
	movzwl	%r8w, %eax
	movb	$3, %cl
Ltmp1866:
	cmpl	$32768, %eax
	.loc	6 1753 17 is_stmt 0
	jne	LBB73_35
Ltmp1867:
	cmpw	$-1, %si
	je	LBB73_33
Ltmp1868:
LBB73_35:
	.loc	6 1756 22 is_stmt 1
	testw	%si, %si
	je	LBB73_55
Ltmp1869:
	movl	%r8d, %eax
	cwtd
	idivw	%si
	movl	%eax, %r8d
Ltmp1870:
	.loc	6 0 22 is_stmt 0
	jmp	LBB73_64
Ltmp1871:
LBB73_50:
	.loc	41 489 30 is_stmt 1
	cmpb	$7, %dil
	jne	LBB73_13
Ltmp1872:
	.loc	41 0 30 is_stmt 0
	movabsq	$-9223372036854775808, %rax
	movb	$7, %cl
Ltmp1873:
	.loc	6 1753 30 is_stmt 1
	cmpq	%rax, %r9
	.loc	6 1753 17 is_stmt 0
	jne	LBB73_53
Ltmp1874:
	cmpq	$-1, %r11
	je	LBB73_63
Ltmp1875:
LBB73_53:
	.loc	6 1756 22 is_stmt 1
	testq	%r11, %r11
	je	LBB73_55
Ltmp1876:
	movq	%r9, %rax
	cqto
	idivq	%r11
	jmp	LBB73_63
Ltmp1877:
LBB73_19:
	.loc	41 483 29
	cmpb	$1, %dil
	jne	LBB73_13
Ltmp1878:
	.loc	41 0 29 is_stmt 0
	movb	$1, %cl
Ltmp1879:
	.loc	6 1753 30 is_stmt 1
	cmpb	$-128, %r14b
	.loc	6 1753 17 is_stmt 0
	jne	LBB73_25
Ltmp1880:
	cmpb	$-1, %r12b
	je	LBB73_22
Ltmp1881:
LBB73_25:
	.loc	6 1756 22 is_stmt 1
	testb	%r12b, %r12b
	je	LBB73_55
Ltmp1882:
	movsbl	%r14b, %eax
	idivb	%r12b
	movl	%eax, %edx
	jmp	LBB73_64
Ltmp1883:
LBB73_40:
	.loc	41 487 30
	cmpb	$5, %dil
	jne	LBB73_13
Ltmp1884:
	.loc	41 0 30 is_stmt 0
	movb	$5, %cl
Ltmp1885:
	.loc	6 1753 30 is_stmt 1
	cmpl	$-2147483648, %eax
	.loc	6 1753 17 is_stmt 0
	jne	LBB73_45
Ltmp1886:
	cmpl	$-1, %r15d
	je	LBB73_43
Ltmp1887:
LBB73_45:
	.loc	6 1756 22 is_stmt 1
	testl	%r15d, %r15d
	je	LBB73_55
Ltmp1888:
	cltd
Ltmp1889:
	idivl	%r15d
	movl	%eax, %esi
	jmp	LBB73_64
Ltmp1890:
LBB73_47:
	.loc	41 488 30
	cmpb	$6, %dil
	jne	LBB73_13
Ltmp1891:
	.loc	6 3509 17
	testl	%r15d, %r15d
	je	LBB73_65
Ltmp1892:
	xorl	%edx, %edx
	divl	%r15d
Ltmp1893:
	movl	%eax, %esi
Ltmp1894:
	.loc	6 0 17 is_stmt 0
	movb	$6, %cl
Ltmp1895:
	jmp	LBB73_64
Ltmp1896:
LBB73_56:
	.loc	41 490 30 is_stmt 1
	cmpb	$8, %dil
	jne	LBB73_13
Ltmp1897:
	.loc	6 3509 17
	testq	%r11, %r11
	je	LBB73_65
Ltmp1898:
	movq	%r9, %rax
	xorl	%edx, %edx
	divq	%r11
Ltmp1899:
	.loc	6 0 17 is_stmt 0
	movb	$8, %cl
Ltmp1900:
	jmp	LBB73_63
Ltmp1901:
LBB73_61:
	.loc	41 492 30 is_stmt 1
	cmpb	$10, %dil
	jne	LBB73_13
Ltmp1902:
	.loc	41 492 25 is_stmt 0
	movq	%r9, %xmm0
	.loc	41 492 41
	movq	%r11, %xmm1
Ltmp1903:
	.loc	41 492 60
	divsd	%xmm1, %xmm0
Ltmp1904:
	.loc	41 492 49
	movq	%xmm0, %rax
	movb	$10, %cl
Ltmp1905:
LBB73_63:
LBB73_64:
	.loc	41 495 9 is_stmt 1
	movb	%cl, 8(%r10)
	movb	%dl, 9(%r10)
	movw	%r8w, 10(%r10)
	movl	%esi, 12(%r10)
	movq	%rax, 16(%r10)
	xorl	%eax, %eax
Ltmp1906:
	.loc	41 0 9 is_stmt 0
	jmp	LBB73_10
Ltmp1907:
LBB73_13:
	.loc	41 493 25 is_stmt 1
	movb	$42, 8(%r10)
Ltmp1908:
LBB73_9:
	.loc	41 0 25 is_stmt 0
	movl	$1, %eax
Ltmp1909:
LBB73_10:
	movq	%rax, (%r10)
	.loc	41 496 6 is_stmt 1
	movq	%r10, %rax
	popq	%rbx
	popq	%r12
	popq	%r14
	popq	%r15
	popq	%rbp
	retq
LBB73_33:
Ltmp1910:
	.loc	41 0 6 is_stmt 0
	movw	$-32768, %r8w
Ltmp1911:
	jmp	LBB73_64
Ltmp1912:
LBB73_22:
	movb	$-128, %dl
	jmp	LBB73_64
Ltmp1913:
LBB73_43:
	movl	$-2147483648, %esi
	jmp	LBB73_64
Ltmp1914:
LBB73_16:
	xorl	%ecx, %ecx
Ltmp1915:
	jmp	LBB73_63
Ltmp1916:
LBB73_55:
	leaq	_str.0(%rip), %rdi
	leaq	l___unnamed_116(%rip), %rdx
	movl	$25, %esi
	callq	__ZN4core9panicking5panic17h383a6b80ea7021aaE
LBB73_65:
Ltmp1917:
	leaq	_str.0(%rip), %rdi
	leaq	l___unnamed_117(%rip), %rdx
	movl	$25, %esi
	callq	__ZN4core9panicking5panic17h383a6b80ea7021aaE
Ltmp1918:
Lfunc_end73:
	.cfi_endproc
	.p2align	2, 0x90
	.data_region jt32
.set L73_0_set_7, LBB73_7-LJTI73_0
.set L73_0_set_11, LBB73_11-LJTI73_0
.set L73_0_set_2, LBB73_2-LJTI73_0
.set L73_0_set_5, LBB73_5-LJTI73_0
.set L73_0_set_6, LBB73_6-LJTI73_0
LJTI73_0:
	.long	L73_0_set_7
	.long	L73_0_set_11
	.long	L73_0_set_11
	.long	L73_0_set_2
	.long	L73_0_set_2
	.long	L73_0_set_5
	.long	L73_0_set_5
	.long	L73_0_set_6
	.long	L73_0_set_6
.set L73_1_set_12, LBB73_12-LJTI73_1
.set L73_1_set_19, LBB73_19-LJTI73_1
.set L73_1_set_27, LBB73_27-LJTI73_1
.set L73_1_set_30, LBB73_30-LJTI73_1
.set L73_1_set_37, LBB73_37-LJTI73_1
.set L73_1_set_40, LBB73_40-LJTI73_1
.set L73_1_set_47, LBB73_47-LJTI73_1
.set L73_1_set_50, LBB73_50-LJTI73_1
.set L73_1_set_56, LBB73_56-LJTI73_1
.set L73_1_set_59, LBB73_59-LJTI73_1
.set L73_1_set_61, LBB73_61-LJTI73_1
LJTI73_1:
	.long	L73_1_set_12
	.long	L73_1_set_19
	.long	L73_1_set_27
	.long	L73_1_set_30
	.long	L73_1_set_37
	.long	L73_1_set_40
	.long	L73_1_set_47
	.long	L73_1_set_50
	.long	L73_1_set_56
	.long	L73_1_set_59
	.long	L73_1_set_61
	.end_data_region

	.globl	__ZN5gimli4read5value5Value3rem17h0a62999c021f9a0fE
	.p2align	4, 0x90
__ZN5gimli4read5value5Value3rem17h0a62999c021f9a0fE:
Lfunc_begin74:
	.loc	41 504 0 is_stmt 1
	.cfi_startproc
	pushq	%rbp
	.cfi_def_cfa_offset 16
	.cfi_offset %rbp, -16
	movq	%rsp, %rbp
	.cfi_def_cfa_register %rbp
	pushq	%r15
	pushq	%r14
	pushq	%r13
	pushq	%r12
	pushq	%rbx
	pushq	%rax
	.cfi_offset %rbx, -56
	.cfi_offset %r12, -48
	.cfi_offset %r13, -40
	.cfi_offset %r14, -32
	.cfi_offset %r15, -24
	movq	%rdi, %r13
Ltmp1919:
	.loc	41 506 13 prologue_end
	movzbl	(%rdx), %ebx
	cmpq	$8, %rbx
	ja	LBB74_3
Ltmp1920:
	.loc	41 0 13 is_stmt 0
	leaq	LJTI74_0(%rip), %rax
	movslq	(%rax,%rbx,4), %rdi
	addq	%rax, %rdi
	jmpq	*%rdi
Ltmp1921:
LBB74_11:
	cmpb	$0, 1(%rdx)
	jne	LBB74_3
Ltmp1922:
LBB74_8:
	movb	$41, 8(%r13)
	jmp	LBB74_9
Ltmp1923:
LBB74_5:
	cmpl	$0, 4(%rdx)
	je	LBB74_8
Ltmp1924:
LBB74_3:
	.loc	41 521 28 is_stmt 1
	movzbl	(%rsi), %edi
	cmpq	$10, %rdi
	.loc	41 522 14
	ja	LBB74_13
Ltmp1925:
	.loc	41 0 14 is_stmt 0
	movb	1(%rsi), %r14b
	movzwl	2(%rsi), %r8d
	movl	4(%rsi), %r9d
	movq	8(%rsi), %rax
	movb	1(%rdx), %r15b
	movzwl	2(%rdx), %r12d
	movl	4(%rdx), %esi
Ltmp1926:
	movq	8(%rdx), %r11
	leaq	LJTI74_1(%rip), %rdx
Ltmp1927:
	movslq	(%rdx,%rdi,4), %rdi
	addq	%rdx, %rdi
	jmpq	*%rdi
Ltmp1928:
LBB74_12:
	.loc	41 522 34
	testb	%bl, %bl
	jne	LBB74_13
Ltmp1929:
	.loc	6 3561 17 is_stmt 1
	andq	%rcx, %r11
Ltmp1930:
	je	LBB74_63
Ltmp1931:
	.loc	41 524 32
	andq	%rcx, %rax
Ltmp1932:
	.loc	6 3561 17
	xorl	%edx, %edx
	divq	%r11
Ltmp1933:
	movq	%rdx, %rax
Ltmp1934:
	.loc	6 0 17 is_stmt 0
	xorl	%r10d, %r10d
Ltmp1935:
	jmp	LBB74_44
Ltmp1936:
LBB74_2:
	cmpw	$0, 2(%rdx)
	jne	LBB74_3
	jmp	LBB74_8
Ltmp1937:
LBB74_6:
	cmpq	$0, 8(%rdx)
	jne	LBB74_3
	jmp	LBB74_8
Ltmp1938:
LBB74_7:
	.loc	41 506 36 is_stmt 1
	testq	%rcx, 8(%rdx)
	jne	LBB74_3
	jmp	LBB74_8
Ltmp1939:
LBB74_35:
	.loc	41 529 30
	cmpb	$4, %bl
	jne	LBB74_13
Ltmp1940:
	.loc	6 3561 17
	testw	%r12w, %r12w
	je	LBB74_63
Ltmp1941:
	movl	%r8d, %eax
	xorl	%edx, %edx
	divw	%r12w
Ltmp1942:
	.loc	6 0 17 is_stmt 0
	movb	$4, %r10b
Ltmp1943:
	jmp	LBB74_43
Ltmp1944:
LBB74_61:
	.loc	41 534 29 is_stmt 1
	cmpb	$9, %bl
	je	LBB74_62
	jmp	LBB74_13
Ltmp1945:
LBB74_25:
	.loc	41 527 29
	cmpb	$2, %bl
	jne	LBB74_13
Ltmp1946:
	.loc	6 3561 17
	testb	%r15b, %r15b
	je	LBB74_63
Ltmp1947:
	movzbl	%r14b, %eax
	divb	%r15b
	movzbl	%ah, %ebx
Ltmp1948:
	.loc	6 0 17 is_stmt 0
	movb	$2, %r10b
Ltmp1949:
	jmp	LBB74_43
Ltmp1950:
LBB74_28:
	.loc	41 528 30 is_stmt 1
	cmpb	$3, %bl
	jne	LBB74_13
Ltmp1951:
	.loc	6 1820 30
	movzwl	%r8w, %eax
	movb	$3, %r10b
	cmpl	$32768, %eax
	.loc	6 1820 17 is_stmt 0
	jne	LBB74_33
Ltmp1952:
	cmpw	$-1, %r12w
	je	LBB74_31
Ltmp1953:
LBB74_33:
	.loc	6 1823 22 is_stmt 1
	testw	%r12w, %r12w
	je	LBB74_57
Ltmp1954:
	movl	%r8d, %eax
	cwtd
	idivw	%r12w
	jmp	LBB74_43
Ltmp1955:
LBB74_50:
	.loc	41 532 30
	cmpb	$7, %bl
	jne	LBB74_13
Ltmp1956:
	.loc	41 0 30 is_stmt 0
	movabsq	$-9223372036854775808, %rcx
Ltmp1957:
	movb	$7, %r10b
Ltmp1958:
	.loc	6 1820 30 is_stmt 1
	cmpq	%rcx, %rax
	.loc	6 1820 17 is_stmt 0
	jne	LBB74_55
Ltmp1959:
	cmpq	$-1, %r11
	je	LBB74_53
Ltmp1960:
LBB74_55:
	.loc	6 1823 22 is_stmt 1
	testq	%r11, %r11
	je	LBB74_57
Ltmp1961:
	cqto
Ltmp1962:
	idivq	%r11
	movq	%rdx, %rax
	jmp	LBB74_44
Ltmp1963:
LBB74_17:
	.loc	41 526 29
	cmpb	$1, %bl
	jne	LBB74_13
Ltmp1964:
	.loc	41 0 29 is_stmt 0
	movb	$1, %r10b
Ltmp1965:
	.loc	6 1820 30 is_stmt 1
	cmpb	$-128, %r14b
	.loc	6 1820 17 is_stmt 0
	jne	LBB74_23
Ltmp1966:
	cmpb	$-1, %r15b
	je	LBB74_20
Ltmp1967:
LBB74_23:
	.loc	6 1823 22 is_stmt 1
	testb	%r15b, %r15b
	je	LBB74_57
Ltmp1968:
	movsbl	%r14b, %eax
	idivb	%r15b
	movsbl	%ah, %ebx
	jmp	LBB74_43
Ltmp1969:
LBB74_38:
	.loc	41 530 30
	cmpb	$5, %bl
	jne	LBB74_13
Ltmp1970:
	.loc	41 0 30 is_stmt 0
	movb	$5, %r10b
Ltmp1971:
	.loc	6 1820 30 is_stmt 1
	cmpl	$-2147483648, %r9d
	.loc	6 1820 17 is_stmt 0
	jne	LBB74_45
Ltmp1972:
	cmpl	$-1, %esi
	je	LBB74_41
Ltmp1973:
LBB74_45:
	.loc	6 1823 22 is_stmt 1
	testl	%esi, %esi
	je	LBB74_57
Ltmp1974:
	movl	%r9d, %eax
	cltd
	idivl	%esi
	movl	%edx, %ecx
Ltmp1975:
	.loc	6 0 22 is_stmt 0
	jmp	LBB74_42
Ltmp1976:
LBB74_47:
	.loc	41 531 30 is_stmt 1
	cmpb	$6, %bl
	jne	LBB74_13
Ltmp1977:
	.loc	6 3561 17
	testl	%esi, %esi
	je	LBB74_63
Ltmp1978:
	movl	%r9d, %eax
	xorl	%edx, %edx
	divl	%esi
	movl	%edx, %ecx
Ltmp1979:
	.loc	6 0 17 is_stmt 0
	movb	$6, %r10b
Ltmp1980:
LBB74_42:
LBB74_43:
LBB74_44:
	.loc	41 538 9 is_stmt 1
	movb	%r10b, 8(%r13)
	movb	%bl, 9(%r13)
	movw	%dx, 10(%r13)
	movl	%ecx, 12(%r13)
	movq	%rax, 16(%r13)
	xorl	%eax, %eax
Ltmp1981:
	.loc	41 0 9 is_stmt 0
	jmp	LBB74_10
Ltmp1982:
LBB74_14:
	.loc	41 535 29 is_stmt 1
	cmpb	$10, %bl
	jne	LBB74_13
Ltmp1983:
LBB74_62:
	.loc	41 0 0 is_stmt 0
	movb	$43, 8(%r13)
	jmp	LBB74_9
Ltmp1984:
LBB74_58:
	.loc	41 533 30 is_stmt 1
	cmpb	$8, %bl
	jne	LBB74_13
Ltmp1985:
	.loc	6 3561 17
	testq	%r11, %r11
	je	LBB74_63
Ltmp1986:
	xorl	%edx, %edx
	divq	%r11
Ltmp1987:
	movq	%rdx, %rax
Ltmp1988:
	.loc	6 0 17 is_stmt 0
	movb	$8, %r10b
Ltmp1989:
	jmp	LBB74_44
Ltmp1990:
LBB74_13:
	.loc	41 536 25 is_stmt 1
	movb	$42, 8(%r13)
Ltmp1991:
LBB74_9:
	.loc	41 0 25 is_stmt 0
	movl	$1, %eax
Ltmp1992:
LBB74_10:
	movq	%rax, (%r13)
	.loc	41 539 6 is_stmt 1
	movq	%r13, %rax
	addq	$8, %rsp
	popq	%rbx
	popq	%r12
	popq	%r13
	popq	%r14
	popq	%r15
	popq	%rbp
	retq
LBB74_31:
Ltmp1993:
	.loc	41 0 6 is_stmt 0
	xorl	%edx, %edx
	jmp	LBB74_43
Ltmp1994:
LBB74_53:
	xorl	%eax, %eax
Ltmp1995:
	jmp	LBB74_44
Ltmp1996:
LBB74_20:
	xorl	%ebx, %ebx
	jmp	LBB74_43
Ltmp1997:
LBB74_41:
	xorl	%ecx, %ecx
Ltmp1998:
	jmp	LBB74_42
Ltmp1999:
LBB74_63:
	leaq	_str.2(%rip), %rdi
	leaq	l___unnamed_118(%rip), %rdx
	movl	$57, %esi
	callq	__ZN4core9panicking5panic17h383a6b80ea7021aaE
Ltmp2000:
LBB74_57:
	leaq	_str.2(%rip), %rdi
	leaq	l___unnamed_119(%rip), %rdx
	movl	$57, %esi
	callq	__ZN4core9panicking5panic17h383a6b80ea7021aaE
Ltmp2001:
Lfunc_end74:
	.cfi_endproc
	.p2align	2, 0x90
	.data_region jt32
.set L74_0_set_7, LBB74_7-LJTI74_0
.set L74_0_set_11, LBB74_11-LJTI74_0
.set L74_0_set_2, LBB74_2-LJTI74_0
.set L74_0_set_5, LBB74_5-LJTI74_0
.set L74_0_set_6, LBB74_6-LJTI74_0
LJTI74_0:
	.long	L74_0_set_7
	.long	L74_0_set_11
	.long	L74_0_set_11
	.long	L74_0_set_2
	.long	L74_0_set_2
	.long	L74_0_set_5
	.long	L74_0_set_5
	.long	L74_0_set_6
	.long	L74_0_set_6
.set L74_1_set_12, LBB74_12-LJTI74_1
.set L74_1_set_17, LBB74_17-LJTI74_1
.set L74_1_set_25, LBB74_25-LJTI74_1
.set L74_1_set_28, LBB74_28-LJTI74_1
.set L74_1_set_35, LBB74_35-LJTI74_1
.set L74_1_set_38, LBB74_38-LJTI74_1
.set L74_1_set_47, LBB74_47-LJTI74_1
.set L74_1_set_50, LBB74_50-LJTI74_1
.set L74_1_set_58, LBB74_58-LJTI74_1
.set L74_1_set_61, LBB74_61-LJTI74_1
.set L74_1_set_14, LBB74_14-LJTI74_1
LJTI74_1:
	.long	L74_1_set_12
	.long	L74_1_set_17
	.long	L74_1_set_25
	.long	L74_1_set_28
	.long	L74_1_set_35
	.long	L74_1_set_38
	.long	L74_1_set_47
	.long	L74_1_set_50
	.long	L74_1_set_58
	.long	L74_1_set_61
	.long	L74_1_set_14
	.end_data_region

	.globl	__ZN5gimli4read5value5Value3not17h9b287d7a91718d9aE
	.p2align	4, 0x90
__ZN5gimli4read5value5Value3not17h9b287d7a91718d9aE:
Lfunc_begin75:
	.loc	41 546 0 is_stmt 1
	.cfi_startproc
	pushq	%rbp
	.cfi_def_cfa_offset 16
	.cfi_offset %rbp, -16
	movq	%rsp, %rbp
	.cfi_def_cfa_register %rbp
	movq	%rdi, %rax
Ltmp2002:
	.loc	41 155 13 prologue_end
	movzbl	(%rsi), %ecx
	leaq	LJTI75_0(%rip), %rdi
	movslq	(%rdi,%rcx,4), %rcx
	addq	%rdi, %rcx
	jmpq	*%rcx
Ltmp2003:
LBB75_16:
	.loc	18 1586 9
	movq	$43, 8(%rax)
	movl	$1, %ecx
Ltmp2004:
	.loc	41 0 0 is_stmt 0
	movq	%rcx, (%rax)
Ltmp2005:
	.loc	41 550 6 is_stmt 1
	popq	%rbp
	retq
Ltmp2006:
LBB75_1:
	.loc	41 193 38
	andq	8(%rsi), %rdx
Ltmp2007:
	.loc	41 549 37
	notq	%rdx
	xorl	%esi, %esi
Ltmp2008:
	.loc	41 0 37 is_stmt 0
	jmp	LBB75_14
Ltmp2009:
LBB75_2:
	.loc	41 548 17 is_stmt 1
	movb	1(%rsi), %cl
Ltmp2010:
	.loc	41 549 37
	notb	%cl
Ltmp2011:
	.loc	41 0 37 is_stmt 0
	movb	$1, %sil
Ltmp2012:
	jmp	LBB75_15
Ltmp2013:
LBB75_4:
	.loc	41 548 17 is_stmt 1
	movb	1(%rsi), %cl
Ltmp2014:
	.loc	41 549 37
	notb	%cl
Ltmp2015:
	.loc	41 0 37 is_stmt 0
	movb	$2, %sil
Ltmp2016:
	jmp	LBB75_15
Ltmp2017:
LBB75_5:
	.loc	41 548 17 is_stmt 1
	movzwl	2(%rsi), %edi
Ltmp2018:
	.loc	41 549 37
	notl	%edi
Ltmp2019:
	.loc	41 0 37 is_stmt 0
	movb	$3, %sil
Ltmp2020:
	jmp	LBB75_15
Ltmp2021:
LBB75_8:
	.loc	41 548 17 is_stmt 1
	movzwl	2(%rsi), %edi
Ltmp2022:
	.loc	41 549 37
	notl	%edi
Ltmp2023:
	.loc	41 0 37 is_stmt 0
	movb	$4, %sil
Ltmp2024:
	jmp	LBB75_15
Ltmp2025:
LBB75_9:
	.loc	41 548 17 is_stmt 1
	movl	4(%rsi), %r8d
Ltmp2026:
	.loc	41 549 37
	notl	%r8d
Ltmp2027:
	.loc	41 0 37 is_stmt 0
	movb	$5, %sil
Ltmp2028:
	jmp	LBB75_15
Ltmp2029:
LBB75_11:
	.loc	41 548 17 is_stmt 1
	movl	4(%rsi), %r8d
Ltmp2030:
	.loc	41 549 37
	notl	%r8d
Ltmp2031:
	.loc	41 0 37 is_stmt 0
	movb	$6, %sil
Ltmp2032:
	jmp	LBB75_15
Ltmp2033:
LBB75_12:
	.loc	41 548 17 is_stmt 1
	movq	8(%rsi), %rdx
Ltmp2034:
	.loc	41 549 37
	notq	%rdx
Ltmp2035:
	.loc	41 0 37 is_stmt 0
	movb	$7, %sil
Ltmp2036:
	jmp	LBB75_14
Ltmp2037:
LBB75_13:
	.loc	41 548 17 is_stmt 1
	movq	8(%rsi), %rdx
Ltmp2038:
	.loc	41 549 37
	notq	%rdx
Ltmp2039:
	.loc	41 0 37 is_stmt 0
	movb	$8, %sil
Ltmp2040:
LBB75_14:
LBB75_15:
	.loc	41 226 9 is_stmt 1
	movb	%sil, 8(%rax)
	movb	%cl, 9(%rax)
	movw	%di, 10(%rax)
	movl	%r8d, 12(%rax)
	movq	%rdx, 16(%rax)
	xorl	%ecx, %ecx
Ltmp2041:
	.loc	41 0 0 is_stmt 0
	movq	%rcx, (%rax)
Ltmp2042:
	.loc	41 550 6 is_stmt 1
	popq	%rbp
	retq
Ltmp2043:
Lfunc_end75:
	.cfi_endproc
	.p2align	2, 0x90
	.data_region jt32
.set L75_0_set_1, LBB75_1-LJTI75_0
.set L75_0_set_2, LBB75_2-LJTI75_0
.set L75_0_set_4, LBB75_4-LJTI75_0
.set L75_0_set_5, LBB75_5-LJTI75_0
.set L75_0_set_8, LBB75_8-LJTI75_0
.set L75_0_set_9, LBB75_9-LJTI75_0
.set L75_0_set_11, LBB75_11-LJTI75_0
.set L75_0_set_12, LBB75_12-LJTI75_0
.set L75_0_set_13, LBB75_13-LJTI75_0
.set L75_0_set_16, LBB75_16-LJTI75_0
LJTI75_0:
	.long	L75_0_set_1
	.long	L75_0_set_2
	.long	L75_0_set_4
	.long	L75_0_set_5
	.long	L75_0_set_8
	.long	L75_0_set_9
	.long	L75_0_set_11
	.long	L75_0_set_12
	.long	L75_0_set_13
	.long	L75_0_set_16
	.long	L75_0_set_16
	.end_data_region

	.section	__TEXT,__literal16,16byte_literals
	.p2align	4
LCPI76_0:
	.long	1127219200
	.long	1160773632
	.long	0
	.long	0
LCPI76_1:
	.quad	4841369599423283200
	.quad	4985484787499139072
	.section	__TEXT,__text,regular,pure_instructions
	.globl	__ZN5gimli4read5value5Value3and17h7dc2c07c4740a931E
	.p2align	4, 0x90
__ZN5gimli4read5value5Value3and17h7dc2c07c4740a931E:
Lfunc_begin76:
	.loc	41 557 0
	.cfi_startproc
	pushq	%rbp
	.cfi_def_cfa_offset 16
	.cfi_offset %rbp, -16
	movq	%rsp, %rbp
	.cfi_def_cfa_register %rbp
	pushq	%r15
	pushq	%r14
	pushq	%rbx
	.cfi_offset %rbx, -40
	.cfi_offset %r14, -32
	.cfi_offset %r15, -24
	movq	%rdi, %rax
Ltmp2044:
	.loc	41 155 13 prologue_end
	movb	(%rsi), %r8b
Ltmp2045:
	.loc	41 155 13 is_stmt 0
	movzbl	(%rdx), %edi
Ltmp2046:
	.loc	41 25 30 is_stmt 1
	cmpb	%dil, %r8b
Ltmp2047:
	.loc	41 559 9
	jne	LBB76_9
Ltmp2048:
	.loc	41 0 0 is_stmt 0
	movzbl	%r8b, %r9d
Ltmp2049:
	.loc	41 193 13 is_stmt 1
	cmpq	$8, %r9
	ja	LBB76_35
Ltmp2050:
	.loc	41 0 13 is_stmt 0
	movsbq	1(%rsi), %r11
	movswq	2(%rsi), %r14
	movslq	4(%rsi), %r15
	movq	8(%rsi), %r10
Ltmp2051:
	leaq	LJTI76_0(%rip), %rsi
Ltmp2052:
	movslq	(%rsi,%r9,4), %rbx
	addq	%rsi, %rbx
	jmpq	*%rbx
Ltmp2053:
LBB76_12:
	.loc	41 193 38
	andq	%rcx, %r10
Ltmp2054:
	.loc	41 0 38
	jmp	LBB76_13
Ltmp2055:
LBB76_9:
	.loc	41 560 20 is_stmt 1
	movb	$42, 8(%rax)
Ltmp2056:
LBB76_10:
	.loc	41 0 20 is_stmt 0
	movl	$1, %ecx
Ltmp2057:
	jmp	LBB76_11
Ltmp2058:
LBB76_3:
	movq	%r11, %r10
Ltmp2059:
	jmp	LBB76_13
Ltmp2060:
LBB76_4:
	.loc	42 52 17 is_stmt 1
	movzbl	%r11b, %r10d
Ltmp2061:
	.loc	42 0 17 is_stmt 0
	jmp	LBB76_13
Ltmp2062:
LBB76_5:
	movq	%r14, %r10
Ltmp2063:
	jmp	LBB76_13
Ltmp2064:
LBB76_6:
	.loc	42 52 17
	movzwl	%r14w, %r10d
Ltmp2065:
	.loc	42 0 17
	jmp	LBB76_13
Ltmp2066:
LBB76_7:
	movq	%r15, %r10
Ltmp2067:
	jmp	LBB76_13
Ltmp2068:
LBB76_8:
	.loc	42 52 17
	movl	%r15d, %r10d
Ltmp2069:
LBB76_13:
	.loc	41 193 13 is_stmt 1
	cmpq	$8, %rdi
Ltmp2070:
	ja	LBB76_35
Ltmp2071:
	.loc	41 0 13 is_stmt 0
	movsbq	1(%rdx), %r11
	movswq	2(%rdx), %r14
	movslq	4(%rdx), %rbx
	movq	8(%rdx), %rdx
Ltmp2072:
	leaq	LJTI76_1(%rip), %rsi
	movslq	(%rsi,%rdi,4), %rdi
	addq	%rsi, %rdi
	jmpq	*%rdi
Ltmp2073:
LBB76_22:
	.loc	41 564 37 is_stmt 1
	andq	%r10, %rdx
Ltmp2074:
	.loc	41 0 37 is_stmt 0
	leaq	LJTI76_2(%rip), %rcx
Ltmp2075:
	movslq	(%rcx,%r9,4), %rsi
	addq	%rcx, %rsi
	jmpq	*%rsi
Ltmp2076:
LBB76_35:
	movq	$43, 8(%rax)
	jmp	LBB76_10
Ltmp2077:
LBB76_15:
	.loc	41 193 38 is_stmt 1
	andq	%rcx, %rdx
Ltmp2078:
	.loc	41 564 37
	andq	%r10, %rdx
Ltmp2079:
	.loc	41 0 37 is_stmt 0
	leaq	LJTI76_2(%rip), %rcx
Ltmp2080:
	movslq	(%rcx,%r9,4), %rsi
	addq	%rcx, %rsi
	jmpq	*%rsi
Ltmp2081:
LBB76_16:
	.loc	41 564 37
	andq	%r10, %r11
Ltmp2082:
	.loc	41 0 37
	leaq	LJTI76_2(%rip), %rcx
Ltmp2083:
	movslq	(%rcx,%r9,4), %rsi
	addq	%rcx, %rsi
	movq	%r11, %rdx
Ltmp2084:
	jmpq	*%rsi
Ltmp2085:
LBB76_17:
	.loc	42 52 17 is_stmt 1
	movzbl	%r11b, %edx
Ltmp2086:
	.loc	41 564 37
	andq	%r10, %rdx
Ltmp2087:
	.loc	41 0 37 is_stmt 0
	leaq	LJTI76_2(%rip), %rcx
Ltmp2088:
	movslq	(%rcx,%r9,4), %rsi
	addq	%rcx, %rsi
	jmpq	*%rsi
Ltmp2089:
LBB76_18:
	.loc	41 564 37
	andq	%r10, %r14
Ltmp2090:
	.loc	41 0 37
	leaq	LJTI76_2(%rip), %rcx
Ltmp2091:
	movslq	(%rcx,%r9,4), %rsi
	addq	%rcx, %rsi
	movq	%r14, %rdx
Ltmp2092:
	jmpq	*%rsi
Ltmp2093:
LBB76_19:
	.loc	42 52 17 is_stmt 1
	movzwl	%r14w, %edx
Ltmp2094:
	.loc	41 564 37
	andq	%r10, %rdx
Ltmp2095:
	.loc	41 0 37 is_stmt 0
	leaq	LJTI76_2(%rip), %rcx
Ltmp2096:
	movslq	(%rcx,%r9,4), %rsi
	addq	%rcx, %rsi
	jmpq	*%rsi
Ltmp2097:
LBB76_20:
	.loc	41 564 37
	andq	%r10, %rbx
Ltmp2098:
	.loc	41 0 37
	leaq	LJTI76_2(%rip), %rcx
Ltmp2099:
	movslq	(%rcx,%r9,4), %rsi
	addq	%rcx, %rsi
	movq	%rbx, %rdx
Ltmp2100:
	jmpq	*%rsi
Ltmp2101:
LBB76_21:
	.loc	42 52 17 is_stmt 1
	movl	%ebx, %edx
Ltmp2102:
	.loc	41 564 37
	andq	%r10, %rdx
Ltmp2103:
	.loc	41 0 37 is_stmt 0
	leaq	LJTI76_2(%rip), %rcx
Ltmp2104:
	movslq	(%rcx,%r9,4), %rsi
	addq	%rcx, %rsi
	jmpq	*%rsi
Ltmp2105:
LBB76_24:
	movb	$1, %r8b
Ltmp2106:
	jmp	LBB76_34
Ltmp2107:
LBB76_25:
	movb	$2, %r8b
Ltmp2108:
	jmp	LBB76_34
Ltmp2109:
LBB76_26:
	movb	$3, %r8b
Ltmp2110:
	jmp	LBB76_34
Ltmp2111:
LBB76_27:
	movb	$4, %r8b
Ltmp2112:
	jmp	LBB76_34
Ltmp2113:
LBB76_28:
	movb	$5, %r8b
Ltmp2114:
	jmp	LBB76_34
Ltmp2115:
LBB76_29:
	movb	$6, %r8b
Ltmp2116:
	jmp	LBB76_34
Ltmp2117:
LBB76_30:
	.loc	41 223 42 is_stmt 1
	testq	%rdx, %rdx
	js	LBB76_31
Ltmp2118:
	.loc	41 0 42 is_stmt 0
	cvtsi2ss	%rdx, %xmm0
	jmp	LBB76_33
Ltmp2119:
LBB76_23:
	.loc	41 224 42 is_stmt 1
	movq	%rdx, %xmm0
	punpckldq	LCPI76_0(%rip), %xmm0
	subpd	LCPI76_1(%rip), %xmm0
	movapd	%xmm0, %xmm1
	unpckhpd	%xmm0, %xmm1
	addsd	%xmm0, %xmm1
	.loc	41 224 31 is_stmt 0
	movq	%xmm1, %rdx
Ltmp2120:
	.loc	41 0 31
	movb	$10, %r8b
Ltmp2121:
	jmp	LBB76_34
Ltmp2122:
LBB76_31:
	movq	%rdx, %rcx
	shrq	%rcx
	andl	$1, %edx
	orq	%rcx, %rdx
	cvtsi2ss	%rdx, %xmm0
	addss	%xmm0, %xmm0
Ltmp2123:
LBB76_33:
	.loc	41 223 31 is_stmt 1
	movd	%xmm0, %edx
	movb	$9, %r8b
Ltmp2124:
LBB76_34:
	.loc	41 226 9
	movb	%r8b, 8(%rax)
	movb	%dl, 9(%rax)
	movw	%dx, 10(%rax)
	movl	%edx, 12(%rax)
	movq	%rdx, 16(%rax)
	xorl	%ecx, %ecx
Ltmp2125:
LBB76_11:
	.loc	41 0 0 is_stmt 0
	movq	%rcx, (%rax)
Ltmp2126:
	.loc	41 565 6 is_stmt 1
	popq	%rbx
	popq	%r14
	popq	%r15
	popq	%rbp
	retq
Ltmp2127:
Lfunc_end76:
	.cfi_endproc
	.p2align	2, 0x90
	.data_region jt32
.set L76_0_set_12, LBB76_12-LJTI76_0
.set L76_0_set_3, LBB76_3-LJTI76_0
.set L76_0_set_4, LBB76_4-LJTI76_0
.set L76_0_set_5, LBB76_5-LJTI76_0
.set L76_0_set_6, LBB76_6-LJTI76_0
.set L76_0_set_7, LBB76_7-LJTI76_0
.set L76_0_set_8, LBB76_8-LJTI76_0
.set L76_0_set_13, LBB76_13-LJTI76_0
LJTI76_0:
	.long	L76_0_set_12
	.long	L76_0_set_3
	.long	L76_0_set_4
	.long	L76_0_set_5
	.long	L76_0_set_6
	.long	L76_0_set_7
	.long	L76_0_set_8
	.long	L76_0_set_13
	.long	L76_0_set_13
.set L76_1_set_15, LBB76_15-LJTI76_1
.set L76_1_set_16, LBB76_16-LJTI76_1
.set L76_1_set_17, LBB76_17-LJTI76_1
.set L76_1_set_18, LBB76_18-LJTI76_1
.set L76_1_set_19, LBB76_19-LJTI76_1
.set L76_1_set_20, LBB76_20-LJTI76_1
.set L76_1_set_21, LBB76_21-LJTI76_1
.set L76_1_set_22, LBB76_22-LJTI76_1
LJTI76_1:
	.long	L76_1_set_15
	.long	L76_1_set_16
	.long	L76_1_set_17
	.long	L76_1_set_18
	.long	L76_1_set_19
	.long	L76_1_set_20
	.long	L76_1_set_21
	.long	L76_1_set_22
	.long	L76_1_set_22
.set L76_2_set_34, LBB76_34-LJTI76_2
.set L76_2_set_24, LBB76_24-LJTI76_2
.set L76_2_set_25, LBB76_25-LJTI76_2
.set L76_2_set_26, LBB76_26-LJTI76_2
.set L76_2_set_27, LBB76_27-LJTI76_2
.set L76_2_set_28, LBB76_28-LJTI76_2
.set L76_2_set_29, LBB76_29-LJTI76_2
.set L76_2_set_30, LBB76_30-LJTI76_2
.set L76_2_set_23, LBB76_23-LJTI76_2
LJTI76_2:
	.long	L76_2_set_34
	.long	L76_2_set_24
	.long	L76_2_set_25
	.long	L76_2_set_26
	.long	L76_2_set_27
	.long	L76_2_set_28
	.long	L76_2_set_29
	.long	L76_2_set_34
	.long	L76_2_set_34
	.long	L76_2_set_30
	.long	L76_2_set_23
	.end_data_region

	.section	__TEXT,__literal16,16byte_literals
	.p2align	4
LCPI77_0:
	.long	1127219200
	.long	1160773632
	.long	0
	.long	0
LCPI77_1:
	.quad	4841369599423283200
	.quad	4985484787499139072
	.section	__TEXT,__text,regular,pure_instructions
	.globl	__ZN5gimli4read5value5Value2or17hc9fa62b9ce45da65E
	.p2align	4, 0x90
__ZN5gimli4read5value5Value2or17hc9fa62b9ce45da65E:
Lfunc_begin77:
	.loc	41 572 0
	.cfi_startproc
	pushq	%rbp
	.cfi_def_cfa_offset 16
	.cfi_offset %rbp, -16
	movq	%rsp, %rbp
	.cfi_def_cfa_register %rbp
	pushq	%r15
	pushq	%r14
	pushq	%rbx
	.cfi_offset %rbx, -40
	.cfi_offset %r14, -32
	.cfi_offset %r15, -24
	movq	%rdi, %rax
Ltmp2128:
	.loc	41 155 13 prologue_end
	movb	(%rsi), %r8b
Ltmp2129:
	.loc	41 155 13 is_stmt 0
	movzbl	(%rdx), %edi
Ltmp2130:
	.loc	41 25 30 is_stmt 1
	cmpb	%dil, %r8b
Ltmp2131:
	.loc	41 574 9
	jne	LBB77_9
Ltmp2132:
	.loc	41 0 0 is_stmt 0
	movzbl	%r8b, %r9d
Ltmp2133:
	.loc	41 193 13 is_stmt 1
	cmpq	$8, %r9
	ja	LBB77_35
Ltmp2134:
	.loc	41 0 13 is_stmt 0
	movsbq	1(%rsi), %r11
	movswq	2(%rsi), %r14
	movslq	4(%rsi), %r15
	movq	8(%rsi), %r10
Ltmp2135:
	leaq	LJTI77_0(%rip), %rsi
Ltmp2136:
	movslq	(%rsi,%r9,4), %rbx
	addq	%rsi, %rbx
	jmpq	*%rbx
Ltmp2137:
LBB77_12:
	.loc	41 193 38
	andq	%rcx, %r10
Ltmp2138:
	.loc	41 0 38
	jmp	LBB77_13
Ltmp2139:
LBB77_9:
	.loc	41 575 20 is_stmt 1
	movb	$42, 8(%rax)
Ltmp2140:
LBB77_10:
	.loc	41 0 20 is_stmt 0
	movl	$1, %ecx
Ltmp2141:
	jmp	LBB77_11
Ltmp2142:
LBB77_3:
	movq	%r11, %r10
Ltmp2143:
	jmp	LBB77_13
Ltmp2144:
LBB77_4:
	.loc	42 52 17 is_stmt 1
	movzbl	%r11b, %r10d
Ltmp2145:
	.loc	42 0 17 is_stmt 0
	jmp	LBB77_13
Ltmp2146:
LBB77_5:
	movq	%r14, %r10
Ltmp2147:
	jmp	LBB77_13
Ltmp2148:
LBB77_6:
	.loc	42 52 17
	movzwl	%r14w, %r10d
Ltmp2149:
	.loc	42 0 17
	jmp	LBB77_13
Ltmp2150:
LBB77_7:
	movq	%r15, %r10
Ltmp2151:
	jmp	LBB77_13
Ltmp2152:
LBB77_8:
	.loc	42 52 17
	movl	%r15d, %r10d
Ltmp2153:
LBB77_13:
	.loc	41 193 13 is_stmt 1
	cmpq	$8, %rdi
Ltmp2154:
	ja	LBB77_35
Ltmp2155:
	.loc	41 0 13 is_stmt 0
	movsbq	1(%rdx), %r11
	movswq	2(%rdx), %r14
	movslq	4(%rdx), %rbx
	movq	8(%rdx), %rdx
Ltmp2156:
	leaq	LJTI77_1(%rip), %rsi
	movslq	(%rsi,%rdi,4), %rdi
	addq	%rsi, %rdi
	jmpq	*%rdi
Ltmp2157:
LBB77_22:
	.loc	41 579 37 is_stmt 1
	orq	%r10, %rdx
Ltmp2158:
	.loc	41 0 37 is_stmt 0
	leaq	LJTI77_2(%rip), %rcx
Ltmp2159:
	movslq	(%rcx,%r9,4), %rsi
	addq	%rcx, %rsi
	jmpq	*%rsi
Ltmp2160:
LBB77_35:
	movq	$43, 8(%rax)
	jmp	LBB77_10
Ltmp2161:
LBB77_15:
	.loc	41 193 38 is_stmt 1
	andq	%rcx, %rdx
Ltmp2162:
	.loc	41 579 37
	orq	%r10, %rdx
Ltmp2163:
	.loc	41 0 37 is_stmt 0
	leaq	LJTI77_2(%rip), %rcx
Ltmp2164:
	movslq	(%rcx,%r9,4), %rsi
	addq	%rcx, %rsi
	jmpq	*%rsi
Ltmp2165:
LBB77_16:
	.loc	41 579 37
	orq	%r10, %r11
Ltmp2166:
	.loc	41 0 37
	leaq	LJTI77_2(%rip), %rcx
Ltmp2167:
	movslq	(%rcx,%r9,4), %rsi
	addq	%rcx, %rsi
	movq	%r11, %rdx
Ltmp2168:
	jmpq	*%rsi
Ltmp2169:
LBB77_17:
	.loc	42 52 17 is_stmt 1
	movzbl	%r11b, %edx
Ltmp2170:
	.loc	41 579 37
	orq	%r10, %rdx
Ltmp2171:
	.loc	41 0 37 is_stmt 0
	leaq	LJTI77_2(%rip), %rcx
Ltmp2172:
	movslq	(%rcx,%r9,4), %rsi
	addq	%rcx, %rsi
	jmpq	*%rsi
Ltmp2173:
LBB77_18:
	.loc	41 579 37
	orq	%r10, %r14
Ltmp2174:
	.loc	41 0 37
	leaq	LJTI77_2(%rip), %rcx
Ltmp2175:
	movslq	(%rcx,%r9,4), %rsi
	addq	%rcx, %rsi
	movq	%r14, %rdx
Ltmp2176:
	jmpq	*%rsi
Ltmp2177:
LBB77_19:
	.loc	42 52 17 is_stmt 1
	movzwl	%r14w, %edx
Ltmp2178:
	.loc	41 579 37
	orq	%r10, %rdx
Ltmp2179:
	.loc	41 0 37 is_stmt 0
	leaq	LJTI77_2(%rip), %rcx
Ltmp2180:
	movslq	(%rcx,%r9,4), %rsi
	addq	%rcx, %rsi
	jmpq	*%rsi
Ltmp2181:
LBB77_20:
	.loc	41 579 37
	orq	%r10, %rbx
Ltmp2182:
	.loc	41 0 37
	leaq	LJTI77_2(%rip), %rcx
Ltmp2183:
	movslq	(%rcx,%r9,4), %rsi
	addq	%rcx, %rsi
	movq	%rbx, %rdx
Ltmp2184:
	jmpq	*%rsi
Ltmp2185:
LBB77_21:
	.loc	42 52 17 is_stmt 1
	movl	%ebx, %edx
Ltmp2186:
	.loc	41 579 37
	orq	%r10, %rdx
Ltmp2187:
	.loc	41 0 37 is_stmt 0
	leaq	LJTI77_2(%rip), %rcx
Ltmp2188:
	movslq	(%rcx,%r9,4), %rsi
	addq	%rcx, %rsi
	jmpq	*%rsi
Ltmp2189:
LBB77_24:
	movb	$1, %r8b
Ltmp2190:
	jmp	LBB77_34
Ltmp2191:
LBB77_25:
	movb	$2, %r8b
Ltmp2192:
	jmp	LBB77_34
Ltmp2193:
LBB77_26:
	movb	$3, %r8b
Ltmp2194:
	jmp	LBB77_34
Ltmp2195:
LBB77_27:
	movb	$4, %r8b
Ltmp2196:
	jmp	LBB77_34
Ltmp2197:
LBB77_28:
	movb	$5, %r8b
Ltmp2198:
	jmp	LBB77_34
Ltmp2199:
LBB77_29:
	movb	$6, %r8b
Ltmp2200:
	jmp	LBB77_34
Ltmp2201:
LBB77_30:
	.loc	41 223 42 is_stmt 1
	testq	%rdx, %rdx
	js	LBB77_31
Ltmp2202:
	.loc	41 0 42 is_stmt 0
	cvtsi2ss	%rdx, %xmm0
	jmp	LBB77_33
Ltmp2203:
LBB77_23:
	.loc	41 224 42 is_stmt 1
	movq	%rdx, %xmm0
	punpckldq	LCPI77_0(%rip), %xmm0
	subpd	LCPI77_1(%rip), %xmm0
	movapd	%xmm0, %xmm1
	unpckhpd	%xmm0, %xmm1
	addsd	%xmm0, %xmm1
	.loc	41 224 31 is_stmt 0
	movq	%xmm1, %rdx
Ltmp2204:
	.loc	41 0 31
	movb	$10, %r8b
Ltmp2205:
	jmp	LBB77_34
Ltmp2206:
LBB77_31:
	movq	%rdx, %rcx
	shrq	%rcx
	andl	$1, %edx
	orq	%rcx, %rdx
	cvtsi2ss	%rdx, %xmm0
	addss	%xmm0, %xmm0
Ltmp2207:
LBB77_33:
	.loc	41 223 31 is_stmt 1
	movd	%xmm0, %edx
	movb	$9, %r8b
Ltmp2208:
LBB77_34:
	.loc	41 226 9
	movb	%r8b, 8(%rax)
	movb	%dl, 9(%rax)
	movw	%dx, 10(%rax)
	movl	%edx, 12(%rax)
	movq	%rdx, 16(%rax)
	xorl	%ecx, %ecx
Ltmp2209:
LBB77_11:
	.loc	41 0 0 is_stmt 0
	movq	%rcx, (%rax)
Ltmp2210:
	.loc	41 580 6 is_stmt 1
	popq	%rbx
	popq	%r14
	popq	%r15
	popq	%rbp
	retq
Ltmp2211:
Lfunc_end77:
	.cfi_endproc
	.p2align	2, 0x90
	.data_region jt32
.set L77_0_set_12, LBB77_12-LJTI77_0
.set L77_0_set_3, LBB77_3-LJTI77_0
.set L77_0_set_4, LBB77_4-LJTI77_0
.set L77_0_set_5, LBB77_5-LJTI77_0
.set L77_0_set_6, LBB77_6-LJTI77_0
.set L77_0_set_7, LBB77_7-LJTI77_0
.set L77_0_set_8, LBB77_8-LJTI77_0
.set L77_0_set_13, LBB77_13-LJTI77_0
LJTI77_0:
	.long	L77_0_set_12
	.long	L77_0_set_3
	.long	L77_0_set_4
	.long	L77_0_set_5
	.long	L77_0_set_6
	.long	L77_0_set_7
	.long	L77_0_set_8
	.long	L77_0_set_13
	.long	L77_0_set_13
.set L77_1_set_15, LBB77_15-LJTI77_1
.set L77_1_set_16, LBB77_16-LJTI77_1
.set L77_1_set_17, LBB77_17-LJTI77_1
.set L77_1_set_18, LBB77_18-LJTI77_1
.set L77_1_set_19, LBB77_19-LJTI77_1
.set L77_1_set_20, LBB77_20-LJTI77_1
.set L77_1_set_21, LBB77_21-LJTI77_1
.set L77_1_set_22, LBB77_22-LJTI77_1
LJTI77_1:
	.long	L77_1_set_15
	.long	L77_1_set_16
	.long	L77_1_set_17
	.long	L77_1_set_18
	.long	L77_1_set_19
	.long	L77_1_set_20
	.long	L77_1_set_21
	.long	L77_1_set_22
	.long	L77_1_set_22
.set L77_2_set_34, LBB77_34-LJTI77_2
.set L77_2_set_24, LBB77_24-LJTI77_2
.set L77_2_set_25, LBB77_25-LJTI77_2
.set L77_2_set_26, LBB77_26-LJTI77_2
.set L77_2_set_27, LBB77_27-LJTI77_2
.set L77_2_set_28, LBB77_28-LJTI77_2
.set L77_2_set_29, LBB77_29-LJTI77_2
.set L77_2_set_30, LBB77_30-LJTI77_2
.set L77_2_set_23, LBB77_23-LJTI77_2
LJTI77_2:
	.long	L77_2_set_34
	.long	L77_2_set_24
	.long	L77_2_set_25
	.long	L77_2_set_26
	.long	L77_2_set_27
	.long	L77_2_set_28
	.long	L77_2_set_29
	.long	L77_2_set_34
	.long	L77_2_set_34
	.long	L77_2_set_30
	.long	L77_2_set_23
	.end_data_region

	.section	__TEXT,__literal16,16byte_literals
	.p2align	4
LCPI78_0:
	.long	1127219200
	.long	1160773632
	.long	0
	.long	0
LCPI78_1:
	.quad	4841369599423283200
	.quad	4985484787499139072
	.section	__TEXT,__text,regular,pure_instructions
	.globl	__ZN5gimli4read5value5Value3xor17h971f4bddf1aba0baE
	.p2align	4, 0x90
__ZN5gimli4read5value5Value3xor17h971f4bddf1aba0baE:
Lfunc_begin78:
	.loc	41 587 0
	.cfi_startproc
	pushq	%rbp
	.cfi_def_cfa_offset 16
	.cfi_offset %rbp, -16
	movq	%rsp, %rbp
	.cfi_def_cfa_register %rbp
	pushq	%r15
	pushq	%r14
	pushq	%rbx
	.cfi_offset %rbx, -40
	.cfi_offset %r14, -32
	.cfi_offset %r15, -24
	movq	%rdi, %rax
Ltmp2212:
	.loc	41 155 13 prologue_end
	movb	(%rsi), %r8b
Ltmp2213:
	.loc	41 155 13 is_stmt 0
	movzbl	(%rdx), %edi
Ltmp2214:
	.loc	41 25 30 is_stmt 1
	cmpb	%dil, %r8b
Ltmp2215:
	.loc	41 589 9
	jne	LBB78_9
Ltmp2216:
	.loc	41 0 0 is_stmt 0
	movzbl	%r8b, %r9d
Ltmp2217:
	.loc	41 193 13 is_stmt 1
	cmpq	$8, %r9
	ja	LBB78_35
Ltmp2218:
	.loc	41 0 13 is_stmt 0
	movsbq	1(%rsi), %r11
	movswq	2(%rsi), %r14
	movslq	4(%rsi), %r15
	movq	8(%rsi), %r10
Ltmp2219:
	leaq	LJTI78_0(%rip), %rsi
Ltmp2220:
	movslq	(%rsi,%r9,4), %rbx
	addq	%rsi, %rbx
	jmpq	*%rbx
Ltmp2221:
LBB78_12:
	.loc	41 193 38
	andq	%rcx, %r10
Ltmp2222:
	.loc	41 0 38
	jmp	LBB78_13
Ltmp2223:
LBB78_9:
	.loc	41 590 20 is_stmt 1
	movb	$42, 8(%rax)
Ltmp2224:
LBB78_10:
	.loc	41 0 20 is_stmt 0
	movl	$1, %ecx
Ltmp2225:
	jmp	LBB78_11
Ltmp2226:
LBB78_3:
	movq	%r11, %r10
Ltmp2227:
	jmp	LBB78_13
Ltmp2228:
LBB78_4:
	.loc	42 52 17 is_stmt 1
	movzbl	%r11b, %r10d
Ltmp2229:
	.loc	42 0 17 is_stmt 0
	jmp	LBB78_13
Ltmp2230:
LBB78_5:
	movq	%r14, %r10
Ltmp2231:
	jmp	LBB78_13
Ltmp2232:
LBB78_6:
	.loc	42 52 17
	movzwl	%r14w, %r10d
Ltmp2233:
	.loc	42 0 17
	jmp	LBB78_13
Ltmp2234:
LBB78_7:
	movq	%r15, %r10
Ltmp2235:
	jmp	LBB78_13
Ltmp2236:
LBB78_8:
	.loc	42 52 17
	movl	%r15d, %r10d
Ltmp2237:
LBB78_13:
	.loc	41 193 13 is_stmt 1
	cmpq	$8, %rdi
Ltmp2238:
	ja	LBB78_35
Ltmp2239:
	.loc	41 0 13 is_stmt 0
	movsbq	1(%rdx), %r11
	movswq	2(%rdx), %r14
	movslq	4(%rdx), %rbx
	movq	8(%rdx), %rdx
Ltmp2240:
	leaq	LJTI78_1(%rip), %rsi
	movslq	(%rsi,%rdi,4), %rdi
	addq	%rsi, %rdi
	jmpq	*%rdi
Ltmp2241:
LBB78_22:
	.loc	41 594 37 is_stmt 1
	xorq	%r10, %rdx
Ltmp2242:
	.loc	41 0 37 is_stmt 0
	leaq	LJTI78_2(%rip), %rcx
Ltmp2243:
	movslq	(%rcx,%r9,4), %rsi
	addq	%rcx, %rsi
	jmpq	*%rsi
Ltmp2244:
LBB78_35:
	movq	$43, 8(%rax)
	jmp	LBB78_10
Ltmp2245:
LBB78_15:
	.loc	41 193 38 is_stmt 1
	andq	%rcx, %rdx
Ltmp2246:
	.loc	41 594 37
	xorq	%r10, %rdx
Ltmp2247:
	.loc	41 0 37 is_stmt 0
	leaq	LJTI78_2(%rip), %rcx
Ltmp2248:
	movslq	(%rcx,%r9,4), %rsi
	addq	%rcx, %rsi
	jmpq	*%rsi
Ltmp2249:
LBB78_16:
	.loc	41 594 37
	xorq	%r10, %r11
Ltmp2250:
	.loc	41 0 37
	leaq	LJTI78_2(%rip), %rcx
Ltmp2251:
	movslq	(%rcx,%r9,4), %rsi
	addq	%rcx, %rsi
	movq	%r11, %rdx
Ltmp2252:
	jmpq	*%rsi
Ltmp2253:
LBB78_17:
	.loc	42 52 17 is_stmt 1
	movzbl	%r11b, %edx
Ltmp2254:
	.loc	41 594 37
	xorq	%r10, %rdx
Ltmp2255:
	.loc	41 0 37 is_stmt 0
	leaq	LJTI78_2(%rip), %rcx
Ltmp2256:
	movslq	(%rcx,%r9,4), %rsi
	addq	%rcx, %rsi
	jmpq	*%rsi
Ltmp2257:
LBB78_18:
	.loc	41 594 37
	xorq	%r10, %r14
Ltmp2258:
	.loc	41 0 37
	leaq	LJTI78_2(%rip), %rcx
Ltmp2259:
	movslq	(%rcx,%r9,4), %rsi
	addq	%rcx, %rsi
	movq	%r14, %rdx
Ltmp2260:
	jmpq	*%rsi
Ltmp2261:
LBB78_19:
	.loc	42 52 17 is_stmt 1
	movzwl	%r14w, %edx
Ltmp2262:
	.loc	41 594 37
	xorq	%r10, %rdx
Ltmp2263:
	.loc	41 0 37 is_stmt 0
	leaq	LJTI78_2(%rip), %rcx
Ltmp2264:
	movslq	(%rcx,%r9,4), %rsi
	addq	%rcx, %rsi
	jmpq	*%rsi
Ltmp2265:
LBB78_20:
	.loc	41 594 37
	xorq	%r10, %rbx
Ltmp2266:
	.loc	41 0 37
	leaq	LJTI78_2(%rip), %rcx
Ltmp2267:
	movslq	(%rcx,%r9,4), %rsi
	addq	%rcx, %rsi
	movq	%rbx, %rdx
Ltmp2268:
	jmpq	*%rsi
Ltmp2269:
LBB78_21:
	.loc	42 52 17 is_stmt 1
	movl	%ebx, %edx
Ltmp2270:
	.loc	41 594 37
	xorq	%r10, %rdx
Ltmp2271:
	.loc	41 0 37 is_stmt 0
	leaq	LJTI78_2(%rip), %rcx
Ltmp2272:
	movslq	(%rcx,%r9,4), %rsi
	addq	%rcx, %rsi
	jmpq	*%rsi
Ltmp2273:
LBB78_24:
	movb	$1, %r8b
Ltmp2274:
	jmp	LBB78_34
Ltmp2275:
LBB78_25:
	movb	$2, %r8b
Ltmp2276:
	jmp	LBB78_34
Ltmp2277:
LBB78_26:
	movb	$3, %r8b
Ltmp2278:
	jmp	LBB78_34
Ltmp2279:
LBB78_27:
	movb	$4, %r8b
Ltmp2280:
	jmp	LBB78_34
Ltmp2281:
LBB78_28:
	movb	$5, %r8b
Ltmp2282:
	jmp	LBB78_34
Ltmp2283:
LBB78_29:
	movb	$6, %r8b
Ltmp2284:
	jmp	LBB78_34
Ltmp2285:
LBB78_30:
	.loc	41 223 42 is_stmt 1
	testq	%rdx, %rdx
	js	LBB78_31
Ltmp2286:
	.loc	41 0 42 is_stmt 0
	cvtsi2ss	%rdx, %xmm0
	jmp	LBB78_33
Ltmp2287:
LBB78_23:
	.loc	41 224 42 is_stmt 1
	movq	%rdx, %xmm0
	punpckldq	LCPI78_0(%rip), %xmm0
	subpd	LCPI78_1(%rip), %xmm0
	movapd	%xmm0, %xmm1
	unpckhpd	%xmm0, %xmm1
	addsd	%xmm0, %xmm1
	.loc	41 224 31 is_stmt 0
	movq	%xmm1, %rdx
Ltmp2288:
	.loc	41 0 31
	movb	$10, %r8b
Ltmp2289:
	jmp	LBB78_34
Ltmp2290:
LBB78_31:
	movq	%rdx, %rcx
	shrq	%rcx
	andl	$1, %edx
	orq	%rcx, %rdx
	cvtsi2ss	%rdx, %xmm0
	addss	%xmm0, %xmm0
Ltmp2291:
LBB78_33:
	.loc	41 223 31 is_stmt 1
	movd	%xmm0, %edx
	movb	$9, %r8b
Ltmp2292:
LBB78_34:
	.loc	41 226 9
	movb	%r8b, 8(%rax)
	movb	%dl, 9(%rax)
	movw	%dx, 10(%rax)
	movl	%edx, 12(%rax)
	movq	%rdx, 16(%rax)
	xorl	%ecx, %ecx
Ltmp2293:
LBB78_11:
	.loc	41 0 0 is_stmt 0
	movq	%rcx, (%rax)
Ltmp2294:
	.loc	41 595 6 is_stmt 1
	popq	%rbx
	popq	%r14
	popq	%r15
	popq	%rbp
	retq
Ltmp2295:
Lfunc_end78:
	.cfi_endproc
	.p2align	2, 0x90
	.data_region jt32
.set L78_0_set_12, LBB78_12-LJTI78_0
.set L78_0_set_3, LBB78_3-LJTI78_0
.set L78_0_set_4, LBB78_4-LJTI78_0
.set L78_0_set_5, LBB78_5-LJTI78_0
.set L78_0_set_6, LBB78_6-LJTI78_0
.set L78_0_set_7, LBB78_7-LJTI78_0
.set L78_0_set_8, LBB78_8-LJTI78_0
.set L78_0_set_13, LBB78_13-LJTI78_0
LJTI78_0:
	.long	L78_0_set_12
	.long	L78_0_set_3
	.long	L78_0_set_4
	.long	L78_0_set_5
	.long	L78_0_set_6
	.long	L78_0_set_7
	.long	L78_0_set_8
	.long	L78_0_set_13
	.long	L78_0_set_13
.set L78_1_set_15, LBB78_15-LJTI78_1
.set L78_1_set_16, LBB78_16-LJTI78_1
.set L78_1_set_17, LBB78_17-LJTI78_1
.set L78_1_set_18, LBB78_18-LJTI78_1
.set L78_1_set_19, LBB78_19-LJTI78_1
.set L78_1_set_20, LBB78_20-LJTI78_1
.set L78_1_set_21, LBB78_21-LJTI78_1
.set L78_1_set_22, LBB78_22-LJTI78_1
LJTI78_1:
	.long	L78_1_set_15
	.long	L78_1_set_16
	.long	L78_1_set_17
	.long	L78_1_set_18
	.long	L78_1_set_19
	.long	L78_1_set_20
	.long	L78_1_set_21
	.long	L78_1_set_22
	.long	L78_1_set_22
.set L78_2_set_34, LBB78_34-LJTI78_2
.set L78_2_set_24, LBB78_24-LJTI78_2
.set L78_2_set_25, LBB78_25-LJTI78_2
.set L78_2_set_26, LBB78_26-LJTI78_2
.set L78_2_set_27, LBB78_27-LJTI78_2
.set L78_2_set_28, LBB78_28-LJTI78_2
.set L78_2_set_29, LBB78_29-LJTI78_2
.set L78_2_set_30, LBB78_30-LJTI78_2
.set L78_2_set_23, LBB78_23-LJTI78_2
LJTI78_2:
	.long	L78_2_set_34
	.long	L78_2_set_24
	.long	L78_2_set_25
	.long	L78_2_set_26
	.long	L78_2_set_27
	.long	L78_2_set_28
	.long	L78_2_set_29
	.long	L78_2_set_34
	.long	L78_2_set_34
	.long	L78_2_set_30
	.long	L78_2_set_23
	.end_data_region

	.globl	__ZN5gimli4read5value5Value3shl17h1900fae4b46b51b6E
	.p2align	4, 0x90
__ZN5gimli4read5value5Value3shl17h1900fae4b46b51b6E:
Lfunc_begin79:
	.loc	41 623 0
	.cfi_startproc
	pushq	%rbp
	.cfi_def_cfa_offset 16
	.cfi_offset %rbp, -16
	movq	%rsp, %rbp
	.cfi_def_cfa_register %rbp
	movq	%rdi, %rax
Ltmp2296:
	.loc	41 624 18 prologue_end
	movzbl	(%rdx), %edi
	cmpq	$8, %rdi
Ltmp2297:
	.loc	41 602 13
	ja	LBB79_11
Ltmp2298:
	.loc	41 0 13 is_stmt 0
	movzbl	1(%rdx), %r8d
	movzwl	2(%rdx), %r9d
	movl	4(%rdx), %r10d
	movq	8(%rdx), %r11
Ltmp2299:
	leaq	LJTI79_0(%rip), %rdx
Ltmp2300:
	movslq	(%rdx,%rdi,4), %rdi
	addq	%rdx, %rdi
	jmpq	*%rdi
Ltmp2301:
LBB79_10:
	movq	%r8, %r11
Ltmp2302:
	.loc	41 603 33 is_stmt 1
	testb	%r8b, %r8b
	jns	LBB79_8
	jmp	LBB79_11
Ltmp2303:
LBB79_3:
	.loc	41 0 0 is_stmt 0
	movq	%r9, %r11
Ltmp2304:
	.loc	41 605 34 is_stmt 1
	testw	%r9w, %r9w
	jns	LBB79_8
	jmp	LBB79_11
Ltmp2305:
LBB79_2:
	.loc	41 0 0 is_stmt 0
	movq	%r8, %r11
Ltmp2306:
	jmp	LBB79_8
Ltmp2307:
LBB79_6:
	movq	%r10, %r11
Ltmp2308:
	jmp	LBB79_8
Ltmp2309:
LBB79_4:
	movq	%r9, %r11
Ltmp2310:
	jmp	LBB79_8
Ltmp2311:
LBB79_5:
	movq	%r10, %r11
Ltmp2312:
	.loc	41 607 34 is_stmt 1
	testl	%r10d, %r10d
	js	LBB79_11
Ltmp2313:
LBB79_8:
	.loc	41 626 13
	movzbl	(%rsi), %edi
	cmpq	$8, %rdi
	ja	LBB79_14
Ltmp2314:
	.loc	41 0 13 is_stmt 0
	leaq	LJTI79_1(%rip), %rdx
	movslq	(%rdx,%rdi,4), %rdi
	addq	%rdx, %rdi
	jmpq	*%rdi
Ltmp2315:
LBB79_15:
	.loc	41 626 28
	movq	8(%rsi), %r8
Ltmp2316:
	.loc	6 2675 17 is_stmt 1
	testq	%rcx, %rcx
	je	LBB79_16
Ltmp2317:
	bsrq	%rcx, %rsi
Ltmp2318:
	xorq	$63, %rsi
	jmp	LBB79_18
Ltmp2319:
LBB79_7:
	.loc	41 609 34
	testq	%r11, %r11
	jns	LBB79_8
Ltmp2320:
LBB79_11:
	.loc	18 1586 9
	movq	$45, 8(%rax)
	movl	$1, %ecx
Ltmp2321:
	.loc	41 0 0 is_stmt 0
	movq	%rcx, (%rax)
	.loc	41 642 6 is_stmt 1
	popq	%rbp
	retq
Ltmp2322:
LBB79_30:
	.loc	41 0 6 is_stmt 0
	movb	$4, %r9b
Ltmp2323:
	cmpq	$15, %r11
	jbe	LBB79_31
Ltmp2324:
LBB79_28:
	xorl	%edi, %edi
	jmp	LBB79_45
Ltmp2325:
LBB79_25:
	.loc	41 632 40 is_stmt 1
	movb	1(%rsi), %dl
	movl	%r11d, %ecx
Ltmp2326:
	andb	$7, %cl
	shlb	%cl, %dl
	xorl	%esi, %esi
Ltmp2327:
	.loc	41 632 43 is_stmt 0
	cmpq	$7, %r11
	.loc	41 632 40
	movzbl	%dl, %ecx
	cmoval	%esi, %ecx
	movb	$2, %r9b
	jmp	LBB79_46
Ltmp2328:
LBB79_26:
	.loc	41 0 40
	movb	$3, %r9b
	cmpq	$15, %r11
	ja	LBB79_28
Ltmp2329:
LBB79_31:
	movzwl	2(%rsi), %edi
	movl	%r11d, %ecx
Ltmp2330:
	shll	%cl, %edi
	jmp	LBB79_45
Ltmp2331:
LBB79_38:
	movb	$7, %r9b
	cmpq	$63, %r11
	jbe	LBB79_42
Ltmp2332:
LBB79_40:
	xorl	%r8d, %r8d
	jmp	LBB79_43
Ltmp2333:
LBB79_23:
	.loc	41 631 40 is_stmt 1
	movb	1(%rsi), %dl
	movl	%r11d, %ecx
Ltmp2334:
	andb	$7, %cl
	shlb	%cl, %dl
	xorl	%esi, %esi
Ltmp2335:
	.loc	41 631 43 is_stmt 0
	cmpq	$7, %r11
	.loc	41 631 40
	movzbl	%dl, %ecx
	cmoval	%esi, %ecx
	movb	$1, %r9b
	jmp	LBB79_46
Ltmp2336:
LBB79_32:
	.loc	41 0 40
	movb	$5, %r9b
	cmpq	$31, %r11
	jbe	LBB79_37
Ltmp2337:
LBB79_34:
	xorl	%esi, %esi
Ltmp2338:
	jmp	LBB79_44
Ltmp2339:
LBB79_36:
	movb	$6, %r9b
	cmpq	$31, %r11
	ja	LBB79_34
Ltmp2340:
LBB79_37:
	movl	4(%rsi), %esi
Ltmp2341:
	movl	%r11d, %ecx
Ltmp2342:
	shll	%cl, %esi
Ltmp2343:
	jmp	LBB79_44
Ltmp2344:
LBB79_41:
	movb	$8, %r9b
	cmpq	$63, %r11
	ja	LBB79_40
Ltmp2345:
LBB79_42:
	movq	8(%rsi), %r8
Ltmp2346:
	movl	%r11d, %ecx
Ltmp2347:
	shlq	%cl, %r8
Ltmp2348:
	jmp	LBB79_43
Ltmp2349:
LBB79_14:
	.loc	41 639 25 is_stmt 1
	movb	$43, 8(%rax)
	movl	$1, %ecx
Ltmp2350:
	.loc	41 0 0 is_stmt 0
	movq	%rcx, (%rax)
	.loc	41 642 6 is_stmt 1
	popq	%rbp
	retq
Ltmp2351:
LBB79_16:
	.loc	41 0 6 is_stmt 0
	movl	$64, %esi
Ltmp2352:
LBB79_18:
	movl	$64, %edi
Ltmp2353:
	.loc	41 21 5 is_stmt 1
	subl	%esi, %edi
	jb	LBB79_48
Ltmp2354:
	.loc	42 52 17
	movl	%edi, %edx
Ltmp2355:
	.loc	41 626 53
	cmpq	%rdx, %r11
	.loc	41 626 50 is_stmt 0
	jae	LBB79_20
Ltmp2356:
	.loc	41 629 17 is_stmt 1
	cmpq	$63, %r11
	ja	LBB79_47
Ltmp2357:
	andq	%rcx, %r8
Ltmp2358:
	movl	%r11d, %ecx
Ltmp2359:
	shlq	%cl, %r8
	xorl	%r9d, %r9d
Ltmp2360:
LBB79_43:
LBB79_44:
LBB79_45:
LBB79_46:
	.loc	41 641 9
	movb	%r9b, 8(%rax)
	movb	%cl, 9(%rax)
	movw	%di, 10(%rax)
	movl	%esi, 12(%rax)
	movq	%r8, 16(%rax)
	xorl	%ecx, %ecx
Ltmp2361:
	.loc	41 0 0 is_stmt 0
	movq	%rcx, (%rax)
	.loc	41 642 6 is_stmt 1
	popq	%rbp
	retq
Ltmp2362:
LBB79_20:
	.loc	41 0 6 is_stmt 0
	xorl	%r8d, %r8d
Ltmp2363:
	xorl	%r9d, %r9d
	jmp	LBB79_46
Ltmp2364:
LBB79_48:
	.loc	41 21 5 is_stmt 1
	leaq	_str.5(%rip), %rdi
	leaq	l___unnamed_115(%rip), %rdx
	movl	$33, %esi
	callq	__ZN4core9panicking5panic17h383a6b80ea7021aaE
Ltmp2365:
LBB79_47:
	.loc	41 629 17
	leaq	_str.7(%rip), %rdi
	leaq	l___unnamed_120(%rip), %rdx
	movl	$35, %esi
	callq	__ZN4core9panicking5panic17h383a6b80ea7021aaE
Ltmp2366:
Lfunc_end79:
	.cfi_endproc
	.p2align	2, 0x90
	.data_region jt32
.set L79_0_set_8, LBB79_8-LJTI79_0
.set L79_0_set_10, LBB79_10-LJTI79_0
.set L79_0_set_2, LBB79_2-LJTI79_0
.set L79_0_set_3, LBB79_3-LJTI79_0
.set L79_0_set_4, LBB79_4-LJTI79_0
.set L79_0_set_5, LBB79_5-LJTI79_0
.set L79_0_set_6, LBB79_6-LJTI79_0
.set L79_0_set_7, LBB79_7-LJTI79_0
LJTI79_0:
	.long	L79_0_set_8
	.long	L79_0_set_10
	.long	L79_0_set_2
	.long	L79_0_set_3
	.long	L79_0_set_4
	.long	L79_0_set_5
	.long	L79_0_set_6
	.long	L79_0_set_7
	.long	L79_0_set_8
.set L79_1_set_15, LBB79_15-LJTI79_1
.set L79_1_set_23, LBB79_23-LJTI79_1
.set L79_1_set_25, LBB79_25-LJTI79_1
.set L79_1_set_26, LBB79_26-LJTI79_1
.set L79_1_set_30, LBB79_30-LJTI79_1
.set L79_1_set_32, LBB79_32-LJTI79_1
.set L79_1_set_36, LBB79_36-LJTI79_1
.set L79_1_set_38, LBB79_38-LJTI79_1
.set L79_1_set_41, LBB79_41-LJTI79_1
LJTI79_1:
	.long	L79_1_set_15
	.long	L79_1_set_23
	.long	L79_1_set_25
	.long	L79_1_set_26
	.long	L79_1_set_30
	.long	L79_1_set_32
	.long	L79_1_set_36
	.long	L79_1_set_38
	.long	L79_1_set_41
	.end_data_region

	.globl	__ZN5gimli4read5value5Value3shr17h6ba281f0ad428968E
	.p2align	4, 0x90
__ZN5gimli4read5value5Value3shr17h6ba281f0ad428968E:
Lfunc_begin80:
	.loc	41 654 0
	.cfi_startproc
	pushq	%rbp
	.cfi_def_cfa_offset 16
	.cfi_offset %rbp, -16
	movq	%rsp, %rbp
	.cfi_def_cfa_register %rbp
	movq	%rdi, %rax
Ltmp2367:
	.loc	41 655 18 prologue_end
	movzbl	(%rdx), %edi
	cmpq	$8, %rdi
Ltmp2368:
	.loc	41 602 13
	ja	LBB80_11
Ltmp2369:
	.loc	41 0 13 is_stmt 0
	movzbl	1(%rdx), %r8d
	movzwl	2(%rdx), %r9d
	movl	4(%rdx), %r10d
	movq	8(%rdx), %r11
Ltmp2370:
	leaq	LJTI80_0(%rip), %rdx
Ltmp2371:
	movslq	(%rdx,%rdi,4), %rdi
	addq	%rdx, %rdi
	jmpq	*%rdi
Ltmp2372:
LBB80_10:
	movq	%r8, %r11
Ltmp2373:
	.loc	41 603 33 is_stmt 1
	testb	%r8b, %r8b
	jns	LBB80_8
	jmp	LBB80_11
Ltmp2374:
LBB80_3:
	.loc	41 0 0 is_stmt 0
	movq	%r9, %r11
Ltmp2375:
	.loc	41 605 34 is_stmt 1
	testw	%r9w, %r9w
	jns	LBB80_8
	jmp	LBB80_11
Ltmp2376:
LBB80_2:
	.loc	41 0 0 is_stmt 0
	movq	%r8, %r11
Ltmp2377:
	jmp	LBB80_8
Ltmp2378:
LBB80_6:
	movq	%r10, %r11
Ltmp2379:
	jmp	LBB80_8
Ltmp2380:
LBB80_4:
	movq	%r9, %r11
Ltmp2381:
	jmp	LBB80_8
Ltmp2382:
LBB80_5:
	movq	%r10, %r11
Ltmp2383:
	.loc	41 607 34 is_stmt 1
	testl	%r10d, %r10d
	js	LBB80_11
Ltmp2384:
LBB80_8:
	.loc	41 657 13
	movzbl	(%rsi), %edi
	cmpq	$8, %rdi
	ja	LBB80_14
Ltmp2385:
	.loc	41 0 13 is_stmt 0
	leaq	LJTI80_1(%rip), %rdx
	movslq	(%rdx,%rdi,4), %rdi
	addq	%rdx, %rdi
	jmpq	*%rdi
Ltmp2386:
LBB80_36:
	.loc	41 669 24 is_stmt 1
	movb	$44, 8(%rax)
	movl	$1, %ecx
Ltmp2387:
	.loc	41 0 0 is_stmt 0
	movq	%rcx, (%rax)
	.loc	41 674 6 is_stmt 1
	popq	%rbp
	retq
Ltmp2388:
LBB80_7:
	.loc	41 609 34
	testq	%r11, %r11
	jns	LBB80_8
Ltmp2389:
LBB80_11:
	.loc	18 1586 9
	movq	$45, 8(%rax)
	movl	$1, %ecx
Ltmp2390:
	.loc	41 0 0 is_stmt 0
	movq	%rcx, (%rax)
	.loc	41 674 6 is_stmt 1
	popq	%rbp
	retq
Ltmp2391:
LBB80_27:
	.loc	41 0 6 is_stmt 0
	movb	$6, %dil
Ltmp2392:
	.loc	41 664 45 is_stmt 1
	cmpq	$31, %r11
	.loc	41 664 42 is_stmt 0
	jbe	LBB80_31
Ltmp2393:
	.loc	41 0 42
	xorl	%r9d, %r9d
	jmp	LBB80_38
Ltmp2394:
LBB80_37:
	.loc	41 662 40 is_stmt 1
	movb	1(%rsi), %dl
	movl	%r11d, %ecx
Ltmp2395:
	andb	$7, %cl
	shrb	%cl, %dl
	xorl	%esi, %esi
Ltmp2396:
	.loc	41 662 43 is_stmt 0
	cmpq	$7, %r11
	.loc	41 662 40
	movzbl	%dl, %ecx
	cmoval	%esi, %ecx
	movb	$2, %dil
	jmp	LBB80_38
Ltmp2397:
LBB80_23:
	.loc	41 0 40
	movb	$4, %dil
Ltmp2398:
	.loc	41 663 45 is_stmt 1
	cmpq	$15, %r11
	.loc	41 663 42 is_stmt 0
	jbe	LBB80_26
Ltmp2399:
	.loc	41 0 42
	xorl	%esi, %esi
Ltmp2400:
	jmp	LBB80_38
Ltmp2401:
LBB80_15:
	.loc	41 657 28 is_stmt 1
	movq	8(%rsi), %r8
Ltmp2402:
	.loc	6 2675 17
	testq	%rcx, %rcx
	je	LBB80_16
Ltmp2403:
	bsrq	%rcx, %rsi
Ltmp2404:
	xorq	$63, %rsi
	jmp	LBB80_18
Ltmp2405:
LBB80_32:
	.loc	6 0 17 is_stmt 0
	movb	$8, %dil
Ltmp2406:
	.loc	41 665 45 is_stmt 1
	cmpq	$63, %r11
	.loc	41 665 42 is_stmt 0
	jbe	LBB80_35
Ltmp2407:
	.loc	41 0 42
	xorl	%r8d, %r8d
	jmp	LBB80_38
Ltmp2408:
LBB80_14:
	.loc	41 671 25 is_stmt 1
	movb	$43, 8(%rax)
	movl	$1, %ecx
Ltmp2409:
	.loc	41 0 0 is_stmt 0
	movq	%rcx, (%rax)
	.loc	41 674 6 is_stmt 1
	popq	%rbp
	retq
Ltmp2410:
LBB80_31:
	.loc	41 664 24
	movl	4(%rsi), %r9d
Ltmp2411:
	.loc	41 664 67 is_stmt 0
	movl	%r11d, %ecx
Ltmp2412:
	shrl	%cl, %r9d
Ltmp2413:
	.loc	41 0 67
	jmp	LBB80_38
Ltmp2414:
LBB80_26:
	.loc	41 663 24 is_stmt 1
	movzwl	2(%rsi), %esi
Ltmp2415:
	.loc	41 663 67 is_stmt 0
	movl	%r11d, %ecx
Ltmp2416:
	shrl	%cl, %esi
	jmp	LBB80_38
Ltmp2417:
LBB80_35:
	.loc	41 665 24 is_stmt 1
	movq	8(%rsi), %r8
Ltmp2418:
	.loc	41 665 67 is_stmt 0
	movl	%r11d, %ecx
Ltmp2419:
	shrq	%cl, %r8
Ltmp2420:
	.loc	41 0 67
	jmp	LBB80_38
Ltmp2421:
LBB80_16:
	movl	$64, %esi
Ltmp2422:
LBB80_18:
	movl	$64, %edi
Ltmp2423:
	.loc	41 21 5 is_stmt 1
	subl	%esi, %edi
	jb	LBB80_40
Ltmp2424:
	.loc	42 52 17
	movl	%edi, %edx
Ltmp2425:
	.loc	41 657 53
	cmpq	%rdx, %r11
	.loc	41 657 50 is_stmt 0
	jae	LBB80_20
Ltmp2426:
	.loc	41 660 17 is_stmt 1
	cmpq	$63, %r11
	ja	LBB80_39
Ltmp2427:
	andq	%rcx, %r8
Ltmp2428:
	movl	%r11d, %ecx
Ltmp2429:
	shrq	%cl, %r8
	xorl	%edi, %edi
	jmp	LBB80_38
Ltmp2430:
LBB80_20:
	.loc	41 0 17 is_stmt 0
	xorl	%r8d, %r8d
Ltmp2431:
	xorl	%edi, %edi
Ltmp2432:
LBB80_38:
	.loc	41 673 9 is_stmt 1
	movb	%dil, 8(%rax)
	movb	%cl, 9(%rax)
	movw	%si, 10(%rax)
	movl	%r9d, 12(%rax)
	movq	%r8, 16(%rax)
	xorl	%ecx, %ecx
Ltmp2433:
	.loc	41 0 0 is_stmt 0
	movq	%rcx, (%rax)
	.loc	41 674 6 is_stmt 1
	popq	%rbp
	retq
Ltmp2434:
LBB80_40:
	.loc	41 21 5
	leaq	_str.5(%rip), %rdi
	leaq	l___unnamed_115(%rip), %rdx
	movl	$33, %esi
	callq	__ZN4core9panicking5panic17h383a6b80ea7021aaE
Ltmp2435:
LBB80_39:
	.loc	41 660 17
	leaq	_str.8(%rip), %rdi
	leaq	l___unnamed_121(%rip), %rdx
	movl	$36, %esi
	callq	__ZN4core9panicking5panic17h383a6b80ea7021aaE
Ltmp2436:
Lfunc_end80:
	.cfi_endproc
	.p2align	2, 0x90
	.data_region jt32
.set L80_0_set_8, LBB80_8-LJTI80_0
.set L80_0_set_10, LBB80_10-LJTI80_0
.set L80_0_set_2, LBB80_2-LJTI80_0
.set L80_0_set_3, LBB80_3-LJTI80_0
.set L80_0_set_4, LBB80_4-LJTI80_0
.set L80_0_set_5, LBB80_5-LJTI80_0
.set L80_0_set_6, LBB80_6-LJTI80_0
.set L80_0_set_7, LBB80_7-LJTI80_0
LJTI80_0:
	.long	L80_0_set_8
	.long	L80_0_set_10
	.long	L80_0_set_2
	.long	L80_0_set_3
	.long	L80_0_set_4
	.long	L80_0_set_5
	.long	L80_0_set_6
	.long	L80_0_set_7
	.long	L80_0_set_8
.set L80_1_set_15, LBB80_15-LJTI80_1
.set L80_1_set_36, LBB80_36-LJTI80_1
.set L80_1_set_37, LBB80_37-LJTI80_1
.set L80_1_set_23, LBB80_23-LJTI80_1
.set L80_1_set_27, LBB80_27-LJTI80_1
.set L80_1_set_32, LBB80_32-LJTI80_1
LJTI80_1:
	.long	L80_1_set_15
	.long	L80_1_set_36
	.long	L80_1_set_37
	.long	L80_1_set_36
	.long	L80_1_set_23
	.long	L80_1_set_36
	.long	L80_1_set_27
	.long	L80_1_set_36
	.long	L80_1_set_32
	.end_data_region

	.globl	__ZN5gimli4read5value5Value4shra17hc0f2fc141a3bc2c6E
	.p2align	4, 0x90
__ZN5gimli4read5value5Value4shra17hc0f2fc141a3bc2c6E:
Lfunc_begin81:
	.loc	41 687 0
	.cfi_startproc
	pushq	%rbp
	.cfi_def_cfa_offset 16
	.cfi_offset %rbp, -16
	movq	%rsp, %rbp
	.cfi_def_cfa_register %rbp
	movq	%rdi, %rax
Ltmp2437:
	.loc	41 688 18 prologue_end
	movzbl	(%rdx), %edi
	cmpq	$8, %rdi
Ltmp2438:
	.loc	41 602 13
	ja	LBB81_12
Ltmp2439:
	.loc	41 0 13 is_stmt 0
	movq	%rcx, %r8
Ltmp2440:
	movzbl	1(%rdx), %r9d
	movzwl	2(%rdx), %r10d
	movl	4(%rdx), %r11d
	movq	8(%rdx), %rcx
Ltmp2441:
	leaq	LJTI81_0(%rip), %rdx
Ltmp2442:
	movslq	(%rdx,%rdi,4), %rdi
	addq	%rdx, %rdi
	jmpq	*%rdi
Ltmp2443:
LBB81_2:
	movq	%r9, %rcx
Ltmp2444:
	.loc	41 603 33 is_stmt 1
	testb	%r9b, %r9b
	jns	LBB81_8
	jmp	LBB81_12
Ltmp2445:
LBB81_3:
	.loc	41 0 0 is_stmt 0
	movq	%r10, %rcx
Ltmp2446:
	.loc	41 605 34 is_stmt 1
	testw	%r10w, %r10w
	jns	LBB81_8
	jmp	LBB81_12
Ltmp2447:
LBB81_4:
	.loc	41 0 0 is_stmt 0
	movq	%r9, %rcx
Ltmp2448:
	jmp	LBB81_8
Ltmp2449:
LBB81_5:
	movq	%r11, %rcx
Ltmp2450:
	jmp	LBB81_8
Ltmp2451:
LBB81_6:
	movq	%r10, %rcx
Ltmp2452:
	jmp	LBB81_8
Ltmp2453:
LBB81_7:
	movq	%r11, %rcx
Ltmp2454:
	.loc	41 607 34 is_stmt 1
	testl	%r11d, %r11d
	js	LBB81_12
Ltmp2455:
LBB81_8:
	.loc	41 690 13
	movzbl	(%rsi), %edx
	cmpq	$8, %rdx
	ja	LBB81_19
Ltmp2456:
	.loc	41 0 13 is_stmt 0
	leaq	LJTI81_1(%rip), %rdi
	movslq	(%rdi,%rdx,4), %rdx
	addq	%rdi, %rdx
	jmpq	*%rdx
Ltmp2457:
LBB81_10:
	.loc	41 742 24 is_stmt 1
	movb	$44, 8(%rax)
	movl	$1, %ecx
Ltmp2458:
	.loc	41 0 0 is_stmt 0
	movq	%rcx, (%rax)
	.loc	41 747 6 is_stmt 1
	popq	%rbp
	retq
Ltmp2459:
LBB81_11:
	.loc	41 609 34
	testq	%rcx, %rcx
	jns	LBB81_8
Ltmp2460:
LBB81_12:
	.loc	18 1586 9
	movq	$45, 8(%rax)
	movl	$1, %ecx
Ltmp2461:
	.loc	41 0 0 is_stmt 0
	movq	%rcx, (%rax)
	.loc	41 747 6 is_stmt 1
	popq	%rbp
	retq
Ltmp2462:
LBB81_13:
	.loc	41 721 24
	movl	4(%rsi), %r9d
Ltmp2463:
	.loc	41 721 42 is_stmt 0
	movl	%ecx, %edx
	andb	$31, %dl
	.loc	41 721 45
	cmpq	$31, %rcx
	.loc	41 721 42
	movzbl	%dl, %edx
	movl	$31, %ecx
Ltmp2464:
	cmovbel	%edx, %ecx
	sarl	%cl, %r9d
Ltmp2465:
	.loc	41 0 42
	movb	$5, %cl
	jmp	LBB81_28
Ltmp2466:
LBB81_14:
	movq	8(%rsi), %rdi
Ltmp2467:
	.loc	41 14 17 is_stmt 1
	andq	%r8, %rdi
Ltmp2468:
	.loc	6 2675 17
	testq	%r8, %r8
	je	LBB81_20
Ltmp2469:
	bsrq	%r8, %rdx
	xorq	$63, %rdx
	jmp	LBB81_21
Ltmp2470:
LBB81_16:
	.loc	41 703 23
	movb	1(%rsi), %r8b
Ltmp2471:
	.loc	41 703 40 is_stmt 0
	movl	%ecx, %edx
	andb	$7, %dl
	.loc	41 703 43
	cmpq	$7, %rcx
	.loc	41 703 40
	movzbl	%dl, %edx
	movl	$7, %ecx
Ltmp2472:
	cmovbel	%edx, %ecx
	sarb	%cl, %r8b
Ltmp2473:
	.loc	41 0 40
	movb	$1, %cl
	jmp	LBB81_30
Ltmp2474:
LBB81_17:
	.loc	41 712 24 is_stmt 1
	movswl	2(%rsi), %esi
Ltmp2475:
	.loc	41 712 42 is_stmt 0
	movl	%ecx, %edx
	andb	$15, %dl
Ltmp2476:
	.loc	41 712 45
	cmpq	$15, %rcx
	.loc	41 712 42
	movzbl	%dl, %edx
	movl	$15, %ecx
Ltmp2477:
	cmovbel	%edx, %ecx
	sarl	%cl, %esi
	movb	$3, %cl
	jmp	LBB81_29
Ltmp2478:
LBB81_18:
	.loc	41 730 24 is_stmt 1
	movq	8(%rsi), %rdi
Ltmp2479:
	.loc	41 730 42 is_stmt 0
	movl	%ecx, %edx
	andb	$63, %dl
	.loc	41 730 45
	cmpq	$63, %rcx
	.loc	41 730 42
	movzbl	%dl, %edx
	movl	$63, %ecx
Ltmp2480:
	cmovbel	%edx, %ecx
	sarq	%cl, %rdi
Ltmp2481:
	.loc	41 0 42
	movb	$7, %cl
	jmp	LBB81_27
Ltmp2482:
LBB81_19:
	.loc	41 744 25 is_stmt 1
	movb	$43, 8(%rax)
	movl	$1, %ecx
Ltmp2483:
	.loc	41 0 0 is_stmt 0
	movq	%rcx, (%rax)
	.loc	41 747 6 is_stmt 1
	popq	%rbp
	retq
Ltmp2484:
LBB81_20:
	.loc	41 0 6 is_stmt 0
	movl	$64, %edx
Ltmp2485:
LBB81_21:
	movl	$64, %esi
Ltmp2486:
	.loc	41 21 5 is_stmt 1
	subl	%edx, %esi
	jb	LBB81_31
Ltmp2487:
	.loc	41 0 0 is_stmt 0
	shrq	%r8
Ltmp2488:
	incq	%r8
Ltmp2489:
	xorq	%r8, %rdi
Ltmp2490:
	subq	%r8, %rdi
Ltmp2491:
	.loc	42 52 17 is_stmt 1
	movl	%esi, %esi
Ltmp2492:
	.loc	41 692 32
	cmpq	%rsi, %rcx
	.loc	41 692 29 is_stmt 0
	jae	LBB81_25
Ltmp2493:
	.loc	41 699 21 is_stmt 1
	cmpq	$63, %rcx
	ja	LBB81_32
Ltmp2494:
	sarq	%cl, %rdi
Ltmp2495:
	.loc	41 0 21 is_stmt 0
	jmp	LBB81_26
Ltmp2496:
LBB81_25:
	.loc	41 693 21 is_stmt 1
	sarq	$63, %rdi
Ltmp2497:
LBB81_26:
	.loc	41 0 21 is_stmt 0
	xorl	%ecx, %ecx
LBB81_27:
LBB81_28:
LBB81_29:
LBB81_30:
Ltmp2498:
	.loc	41 746 9 is_stmt 1
	movb	%cl, 8(%rax)
	movb	%r8b, 9(%rax)
	movw	%si, 10(%rax)
	movl	%r9d, 12(%rax)
	movq	%rdi, 16(%rax)
	xorl	%ecx, %ecx
Ltmp2499:
	.loc	41 0 0 is_stmt 0
	movq	%rcx, (%rax)
	.loc	41 747 6 is_stmt 1
	popq	%rbp
	retq
Ltmp2500:
LBB81_31:
	.loc	41 21 5
	leaq	_str.5(%rip), %rdi
	leaq	l___unnamed_115(%rip), %rdx
	movl	$33, %esi
	callq	__ZN4core9panicking5panic17h383a6b80ea7021aaE
Ltmp2501:
LBB81_32:
	.loc	41 699 21
	leaq	_str.8(%rip), %rdi
Ltmp2502:
	leaq	l___unnamed_122(%rip), %rdx
	movl	$36, %esi
	callq	__ZN4core9panicking5panic17h383a6b80ea7021aaE
Ltmp2503:
Lfunc_end81:
	.cfi_endproc
	.p2align	2, 0x90
	.data_region jt32
.set L81_0_set_8, LBB81_8-LJTI81_0
.set L81_0_set_2, LBB81_2-LJTI81_0
.set L81_0_set_4, LBB81_4-LJTI81_0
.set L81_0_set_3, LBB81_3-LJTI81_0
.set L81_0_set_6, LBB81_6-LJTI81_0
.set L81_0_set_7, LBB81_7-LJTI81_0
.set L81_0_set_5, LBB81_5-LJTI81_0
.set L81_0_set_11, LBB81_11-LJTI81_0
LJTI81_0:
	.long	L81_0_set_8
	.long	L81_0_set_2
	.long	L81_0_set_4
	.long	L81_0_set_3
	.long	L81_0_set_6
	.long	L81_0_set_7
	.long	L81_0_set_5
	.long	L81_0_set_11
	.long	L81_0_set_8
.set L81_1_set_14, LBB81_14-LJTI81_1
.set L81_1_set_16, LBB81_16-LJTI81_1
.set L81_1_set_10, LBB81_10-LJTI81_1
.set L81_1_set_17, LBB81_17-LJTI81_1
.set L81_1_set_13, LBB81_13-LJTI81_1
.set L81_1_set_18, LBB81_18-LJTI81_1
LJTI81_1:
	.long	L81_1_set_14
	.long	L81_1_set_16
	.long	L81_1_set_10
	.long	L81_1_set_17
	.long	L81_1_set_10
	.long	L81_1_set_13
	.long	L81_1_set_10
	.long	L81_1_set_18
	.long	L81_1_set_10
	.end_data_region

	.globl	__ZN5gimli4read5value5Value2eq17h2c757ad79d0b9a7aE
	.p2align	4, 0x90
__ZN5gimli4read5value5Value2eq17h2c757ad79d0b9a7aE:
Lfunc_begin82:
	.loc	41 755 0
	.cfi_startproc
	pushq	%rbp
	.cfi_def_cfa_offset 16
	.cfi_offset %rbp, -16
	movq	%rsp, %rbp
	.cfi_def_cfa_register %rbp
	pushq	%r15
	pushq	%r14
	pushq	%r12
	pushq	%rbx
	.cfi_offset %rbx, -48
	.cfi_offset %r12, -40
	.cfi_offset %r14, -32
	.cfi_offset %r15, -24
	movq	%rdi, %rax
Ltmp2504:
	.loc	41 756 28 prologue_end
	movzbl	(%rsi), %ebx
	cmpq	$10, %rbx
	.loc	41 757 14
	ja	LBB82_3
Ltmp2505:
	.loc	41 0 14 is_stmt 0
	movb	1(%rsi), %r8b
	movzwl	2(%rsi), %r14d
	movl	4(%rsi), %r10d
	movq	8(%rsi), %r9
	movb	(%rdx), %r11b
	movb	1(%rdx), %r15b
	movzwl	2(%rdx), %edi
	movl	4(%rdx), %esi
Ltmp2506:
	movq	8(%rdx), %r12
	leaq	LJTI82_0(%rip), %rdx
Ltmp2507:
	movslq	(%rdx,%rbx,4), %rbx
	addq	%rdx, %rbx
	jmpq	*%rbx
Ltmp2508:
LBB82_2:
	.loc	41 757 34
	testb	%r11b, %r11b
	jne	LBB82_3
Ltmp2509:
	.loc	41 758 17 is_stmt 1
	xorq	%r9, %r12
Ltmp2510:
	testq	%rcx, %r12
	jmp	LBB82_21
Ltmp2511:
LBB82_8:
	.loc	41 760 29
	cmpb	$1, %r11b
	je	LBB82_9
	jmp	LBB82_3
Ltmp2512:
LBB82_4:
	.loc	41 761 29
	cmpb	$2, %r11b
	jne	LBB82_3
Ltmp2513:
LBB82_9:
	.loc	41 0 0 is_stmt 0
	cmpb	%r15b, %r8b
	jmp	LBB82_21
Ltmp2514:
LBB82_10:
	.loc	41 762 30 is_stmt 1
	cmpb	$3, %r11b
	je	LBB82_11
	jmp	LBB82_3
Ltmp2515:
LBB82_5:
	.loc	41 763 30
	cmpb	$4, %r11b
	jne	LBB82_3
Ltmp2516:
LBB82_11:
	.loc	41 0 0 is_stmt 0
	cmpw	%di, %r14w
	jmp	LBB82_21
Ltmp2517:
LBB82_12:
	.loc	41 764 30 is_stmt 1
	cmpb	$5, %r11b
	je	LBB82_13
	jmp	LBB82_3
Ltmp2518:
LBB82_6:
	.loc	41 765 30
	cmpb	$6, %r11b
	jne	LBB82_3
Ltmp2519:
LBB82_13:
	.loc	41 0 0 is_stmt 0
	cmpl	%esi, %r10d
	jmp	LBB82_21
Ltmp2520:
LBB82_14:
	.loc	41 766 30 is_stmt 1
	cmpb	$7, %r11b
	je	LBB82_15
	jmp	LBB82_3
Ltmp2521:
LBB82_7:
	.loc	41 767 30
	cmpb	$8, %r11b
	jne	LBB82_3
Ltmp2522:
LBB82_15:
	.loc	41 0 0 is_stmt 0
	cmpq	%r12, %r9
Ltmp2523:
LBB82_21:
	sete	%cl
Ltmp2524:
LBB82_22:
	.loc	41 772 27 is_stmt 1
	movzbl	%cl, %ecx
Ltmp2525:
	.loc	41 772 9 is_stmt 0
	movb	$0, 8(%rax)
	movq	%rcx, 16(%rax)
	xorl	%ecx, %ecx
	jmp	LBB82_23
Ltmp2526:
LBB82_16:
	.loc	41 768 30 is_stmt 1
	cmpb	$9, %r11b
	jne	LBB82_3
Ltmp2527:
	.loc	41 768 25 is_stmt 0
	movd	%r10d, %xmm0
	.loc	41 768 41
	movd	%esi, %xmm1
Ltmp2528:
	.loc	41 768 49
	cmpeqss	%xmm0, %xmm1
Ltmp2529:
	movd	%xmm1, %ecx
Ltmp2530:
	andl	$1, %ecx
Ltmp2531:
	.loc	41 0 49
	jmp	LBB82_22
Ltmp2532:
LBB82_18:
	.loc	41 769 30 is_stmt 1
	cmpb	$10, %r11b
	jne	LBB82_3
Ltmp2533:
	.loc	41 769 25 is_stmt 0
	movq	%r9, %xmm0
	.loc	41 769 41
	movq	%r12, %xmm1
Ltmp2534:
	.loc	41 769 49
	cmpeqsd	%xmm0, %xmm1
Ltmp2535:
	movq	%xmm1, %rcx
Ltmp2536:
	andl	$1, %ecx
Ltmp2537:
	.loc	41 0 49
	jmp	LBB82_22
Ltmp2538:
LBB82_3:
	.loc	41 770 25 is_stmt 1
	movb	$42, 8(%rax)
	movl	$1, %ecx
Ltmp2539:
LBB82_23:
	.loc	41 0 0 is_stmt 0
	movq	%rcx, (%rax)
	.loc	41 773 6 is_stmt 1
	popq	%rbx
	popq	%r12
	popq	%r14
	popq	%r15
	popq	%rbp
	retq
Ltmp2540:
Lfunc_end82:
	.cfi_endproc
	.p2align	2, 0x90
	.data_region jt32
.set L82_0_set_2, LBB82_2-LJTI82_0
.set L82_0_set_8, LBB82_8-LJTI82_0
.set L82_0_set_4, LBB82_4-LJTI82_0
.set L82_0_set_10, LBB82_10-LJTI82_0
.set L82_0_set_5, LBB82_5-LJTI82_0
.set L82_0_set_12, LBB82_12-LJTI82_0
.set L82_0_set_6, LBB82_6-LJTI82_0
.set L82_0_set_14, LBB82_14-LJTI82_0
.set L82_0_set_7, LBB82_7-LJTI82_0
.set L82_0_set_16, LBB82_16-LJTI82_0
.set L82_0_set_18, LBB82_18-LJTI82_0
LJTI82_0:
	.long	L82_0_set_2
	.long	L82_0_set_8
	.long	L82_0_set_4
	.long	L82_0_set_10
	.long	L82_0_set_5
	.long	L82_0_set_12
	.long	L82_0_set_6
	.long	L82_0_set_14
	.long	L82_0_set_7
	.long	L82_0_set_16
	.long	L82_0_set_18
	.end_data_region

	.globl	__ZN5gimli4read5value5Value2ge17h7a100e71db06fafcE
	.p2align	4, 0x90
__ZN5gimli4read5value5Value2ge17h7a100e71db06fafcE:
Lfunc_begin83:
	.loc	41 781 0
	.cfi_startproc
	pushq	%rbp
	.cfi_def_cfa_offset 16
	.cfi_offset %rbp, -16
	movq	%rsp, %rbp
	.cfi_def_cfa_register %rbp
	pushq	%r15
	pushq	%r14
	pushq	%r12
	pushq	%rbx
	.cfi_offset %rbx, -48
	.cfi_offset %r12, -40
	.cfi_offset %r14, -32
	.cfi_offset %r15, -24
	movq	%rdi, %rax
Ltmp2541:
	.loc	41 782 28 prologue_end
	movzbl	(%rsi), %ebx
	cmpq	$10, %rbx
	.loc	41 783 14
	ja	LBB83_3
Ltmp2542:
	.loc	41 0 14 is_stmt 0
	movb	1(%rsi), %r8b
	movzwl	2(%rsi), %r14d
	movl	4(%rsi), %r10d
	movq	8(%rsi), %r9
	movb	(%rdx), %r11b
	movb	1(%rdx), %r15b
	movzwl	2(%rdx), %edi
	movl	4(%rdx), %esi
Ltmp2543:
	movq	8(%rdx), %r12
	leaq	LJTI83_0(%rip), %rdx
Ltmp2544:
	movslq	(%rdx,%rbx,4), %rbx
	addq	%rdx, %rbx
	jmpq	*%rbx
Ltmp2545:
LBB83_2:
	.loc	41 783 34
	testb	%r11b, %r11b
	jne	LBB83_3
Ltmp2546:
	.loc	41 15 17 is_stmt 1
	movq	%rcx, %rdx
	shrq	%rdx
	.loc	41 15 16 is_stmt 0
	incq	%rdx
Ltmp2547:
	.loc	41 14 17 is_stmt 1
	andq	%rcx, %r9
Ltmp2548:
	.loc	41 16 5
	xorq	%rdx, %r9
Ltmp2549:
	.loc	6 1333 17
	subq	%rdx, %r9
Ltmp2550:
	.loc	41 14 17
	andq	%rcx, %r12
Ltmp2551:
	.loc	41 16 5
	xorq	%rdx, %r12
Ltmp2552:
	.loc	6 1333 17
	subq	%rdx, %r12
Ltmp2553:
	.loc	6 0 17 is_stmt 0
	jmp	LBB83_18
Ltmp2554:
LBB83_5:
	.loc	41 786 29 is_stmt 1
	cmpb	$1, %r11b
	jne	LBB83_3
Ltmp2555:
	.loc	41 786 47 is_stmt 0
	cmpb	%r15b, %r8b
	setge	%cl
Ltmp2556:
	.loc	41 0 47
	jmp	LBB83_26
Ltmp2557:
LBB83_7:
	.loc	41 787 29 is_stmt 1
	cmpb	$2, %r11b
	jne	LBB83_3
Ltmp2558:
	.loc	41 787 47 is_stmt 0
	cmpb	%r15b, %r8b
	jmp	LBB83_25
Ltmp2559:
LBB83_9:
	.loc	41 788 30 is_stmt 1
	cmpb	$3, %r11b
	jne	LBB83_3
Ltmp2560:
	.loc	41 788 49 is_stmt 0
	cmpw	%di, %r14w
	setge	%cl
Ltmp2561:
	.loc	41 0 49
	jmp	LBB83_26
Ltmp2562:
LBB83_11:
	.loc	41 789 30 is_stmt 1
	cmpb	$4, %r11b
	jne	LBB83_3
Ltmp2563:
	.loc	41 789 49 is_stmt 0
	cmpw	%di, %r14w
	jmp	LBB83_25
Ltmp2564:
LBB83_13:
	.loc	41 790 30 is_stmt 1
	cmpb	$5, %r11b
	jne	LBB83_3
Ltmp2565:
	.loc	41 790 49 is_stmt 0
	cmpl	%esi, %r10d
	setge	%cl
Ltmp2566:
	.loc	41 0 49
	jmp	LBB83_26
Ltmp2567:
LBB83_15:
	.loc	41 791 30 is_stmt 1
	cmpb	$6, %r11b
	jne	LBB83_3
Ltmp2568:
	.loc	41 791 49 is_stmt 0
	cmpl	%esi, %r10d
	jmp	LBB83_25
Ltmp2569:
LBB83_17:
	.loc	41 792 30 is_stmt 1
	cmpb	$7, %r11b
	jne	LBB83_3
Ltmp2570:
LBB83_18:
	.loc	41 0 0 is_stmt 0
	cmpq	%r12, %r9
	setge	%cl
Ltmp2571:
	jmp	LBB83_26
Ltmp2572:
LBB83_19:
	.loc	41 793 30 is_stmt 1
	cmpb	$8, %r11b
	jne	LBB83_3
Ltmp2573:
	.loc	41 793 49 is_stmt 0
	cmpq	%r12, %r9
	jmp	LBB83_25
Ltmp2574:
LBB83_21:
	.loc	41 794 30 is_stmt 1
	cmpb	$9, %r11b
	jne	LBB83_3
Ltmp2575:
	.loc	41 794 25 is_stmt 0
	movd	%r10d, %xmm0
	.loc	41 794 41
	movd	%esi, %xmm1
Ltmp2576:
	.loc	41 794 49
	ucomiss	%xmm1, %xmm0
	jmp	LBB83_25
Ltmp2577:
LBB83_23:
	.loc	41 795 30 is_stmt 1
	cmpb	$10, %r11b
	jne	LBB83_3
Ltmp2578:
	.loc	41 795 25 is_stmt 0
	movq	%r9, %xmm0
	.loc	41 795 41
	movq	%r12, %xmm1
Ltmp2579:
	.loc	41 795 49
	ucomisd	%xmm1, %xmm0
Ltmp2580:
LBB83_25:
	.loc	41 0 0
	setae	%cl
Ltmp2581:
LBB83_26:
	.loc	41 798 27 is_stmt 1
	movzbl	%cl, %ecx
Ltmp2582:
	.loc	41 798 9 is_stmt 0
	movb	$0, 8(%rax)
	movq	%rcx, 16(%rax)
	xorl	%ecx, %ecx
	jmp	LBB83_27
Ltmp2583:
LBB83_3:
	.loc	41 796 25 is_stmt 1
	movb	$42, 8(%rax)
	movl	$1, %ecx
Ltmp2584:
LBB83_27:
	.loc	41 0 0 is_stmt 0
	movq	%rcx, (%rax)
	.loc	41 799 6 is_stmt 1
	popq	%rbx
	popq	%r12
	popq	%r14
	popq	%r15
	popq	%rbp
	retq
Ltmp2585:
Lfunc_end83:
	.cfi_endproc
	.p2align	2, 0x90
	.data_region jt32
.set L83_0_set_2, LBB83_2-LJTI83_0
.set L83_0_set_5, LBB83_5-LJTI83_0
.set L83_0_set_7, LBB83_7-LJTI83_0
.set L83_0_set_9, LBB83_9-LJTI83_0
.set L83_0_set_11, LBB83_11-LJTI83_0
.set L83_0_set_13, LBB83_13-LJTI83_0
.set L83_0_set_15, LBB83_15-LJTI83_0
.set L83_0_set_17, LBB83_17-LJTI83_0
.set L83_0_set_19, LBB83_19-LJTI83_0
.set L83_0_set_21, LBB83_21-LJTI83_0
.set L83_0_set_23, LBB83_23-LJTI83_0
LJTI83_0:
	.long	L83_0_set_2
	.long	L83_0_set_5
	.long	L83_0_set_7
	.long	L83_0_set_9
	.long	L83_0_set_11
	.long	L83_0_set_13
	.long	L83_0_set_15
	.long	L83_0_set_17
	.long	L83_0_set_19
	.long	L83_0_set_21
	.long	L83_0_set_23
	.end_data_region

	.globl	__ZN5gimli4read5value5Value2gt17hf9d80b9c84cf4fe1E
	.p2align	4, 0x90
__ZN5gimli4read5value5Value2gt17hf9d80b9c84cf4fe1E:
Lfunc_begin84:
	.loc	41 807 0
	.cfi_startproc
	pushq	%rbp
	.cfi_def_cfa_offset 16
	.cfi_offset %rbp, -16
	movq	%rsp, %rbp
	.cfi_def_cfa_register %rbp
	pushq	%r15
	pushq	%r14
	pushq	%r12
	pushq	%rbx
	.cfi_offset %rbx, -48
	.cfi_offset %r12, -40
	.cfi_offset %r14, -32
	.cfi_offset %r15, -24
	movq	%rdi, %rax
Ltmp2586:
	.loc	41 808 28 prologue_end
	movzbl	(%rsi), %ebx
	cmpq	$10, %rbx
	.loc	41 809 14
	ja	LBB84_3
Ltmp2587:
	.loc	41 0 14 is_stmt 0
	movb	1(%rsi), %r8b
	movzwl	2(%rsi), %r14d
	movl	4(%rsi), %r10d
	movq	8(%rsi), %r9
	movb	(%rdx), %r11b
	movb	1(%rdx), %r15b
	movzwl	2(%rdx), %edi
	movl	4(%rdx), %esi
Ltmp2588:
	movq	8(%rdx), %r12
	leaq	LJTI84_0(%rip), %rdx
Ltmp2589:
	movslq	(%rdx,%rbx,4), %rbx
	addq	%rdx, %rbx
	jmpq	*%rbx
Ltmp2590:
LBB84_2:
	.loc	41 809 34
	testb	%r11b, %r11b
	jne	LBB84_3
Ltmp2591:
	.loc	41 15 17 is_stmt 1
	movq	%rcx, %rdx
	shrq	%rdx
	.loc	41 15 16 is_stmt 0
	incq	%rdx
Ltmp2592:
	.loc	41 14 17 is_stmt 1
	andq	%rcx, %r9
Ltmp2593:
	.loc	41 16 5
	xorq	%rdx, %r9
Ltmp2594:
	.loc	6 1333 17
	subq	%rdx, %r9
Ltmp2595:
	.loc	41 14 17
	andq	%rcx, %r12
Ltmp2596:
	.loc	41 16 5
	xorq	%rdx, %r12
Ltmp2597:
	.loc	6 1333 17
	subq	%rdx, %r12
Ltmp2598:
	.loc	6 0 17 is_stmt 0
	jmp	LBB84_18
Ltmp2599:
LBB84_5:
	.loc	41 812 29 is_stmt 1
	cmpb	$1, %r11b
	jne	LBB84_3
Ltmp2600:
	.loc	41 812 47 is_stmt 0
	cmpb	%r15b, %r8b
	setg	%cl
Ltmp2601:
	.loc	41 0 47
	jmp	LBB84_26
Ltmp2602:
LBB84_7:
	.loc	41 813 29 is_stmt 1
	cmpb	$2, %r11b
	jne	LBB84_3
Ltmp2603:
	.loc	41 813 47 is_stmt 0
	cmpb	%r15b, %r8b
	jmp	LBB84_25
Ltmp2604:
LBB84_9:
	.loc	41 814 30 is_stmt 1
	cmpb	$3, %r11b
	jne	LBB84_3
Ltmp2605:
	.loc	41 814 49 is_stmt 0
	cmpw	%di, %r14w
	setg	%cl
Ltmp2606:
	.loc	41 0 49
	jmp	LBB84_26
Ltmp2607:
LBB84_11:
	.loc	41 815 30 is_stmt 1
	cmpb	$4, %r11b
	jne	LBB84_3
Ltmp2608:
	.loc	41 815 49 is_stmt 0
	cmpw	%di, %r14w
	jmp	LBB84_25
Ltmp2609:
LBB84_13:
	.loc	41 816 30 is_stmt 1
	cmpb	$5, %r11b
	jne	LBB84_3
Ltmp2610:
	.loc	41 816 49 is_stmt 0
	cmpl	%esi, %r10d
	setg	%cl
Ltmp2611:
	.loc	41 0 49
	jmp	LBB84_26
Ltmp2612:
LBB84_15:
	.loc	41 817 30 is_stmt 1
	cmpb	$6, %r11b
	jne	LBB84_3
Ltmp2613:
	.loc	41 817 49 is_stmt 0
	cmpl	%esi, %r10d
	jmp	LBB84_25
Ltmp2614:
LBB84_17:
	.loc	41 818 30 is_stmt 1
	cmpb	$7, %r11b
	jne	LBB84_3
Ltmp2615:
LBB84_18:
	.loc	41 0 0 is_stmt 0
	cmpq	%r12, %r9
	setg	%cl
Ltmp2616:
	jmp	LBB84_26
Ltmp2617:
LBB84_19:
	.loc	41 819 30 is_stmt 1
	cmpb	$8, %r11b
	jne	LBB84_3
Ltmp2618:
	.loc	41 819 49 is_stmt 0
	cmpq	%r12, %r9
	jmp	LBB84_25
Ltmp2619:
LBB84_21:
	.loc	41 820 30 is_stmt 1
	cmpb	$9, %r11b
	jne	LBB84_3
Ltmp2620:
	.loc	41 820 25 is_stmt 0
	movd	%r10d, %xmm0
	.loc	41 820 41
	movd	%esi, %xmm1
Ltmp2621:
	.loc	41 820 49
	ucomiss	%xmm1, %xmm0
	jmp	LBB84_25
Ltmp2622:
LBB84_23:
	.loc	41 821 30 is_stmt 1
	cmpb	$10, %r11b
	jne	LBB84_3
Ltmp2623:
	.loc	41 821 25 is_stmt 0
	movq	%r9, %xmm0
	.loc	41 821 41
	movq	%r12, %xmm1
Ltmp2624:
	.loc	41 821 49
	ucomisd	%xmm1, %xmm0
Ltmp2625:
LBB84_25:
	.loc	41 0 0
	seta	%cl
Ltmp2626:
LBB84_26:
	.loc	41 824 27 is_stmt 1
	movzbl	%cl, %ecx
Ltmp2627:
	.loc	41 824 9 is_stmt 0
	movb	$0, 8(%rax)
	movq	%rcx, 16(%rax)
	xorl	%ecx, %ecx
	jmp	LBB84_27
Ltmp2628:
LBB84_3:
	.loc	41 822 25 is_stmt 1
	movb	$42, 8(%rax)
	movl	$1, %ecx
Ltmp2629:
LBB84_27:
	.loc	41 0 0 is_stmt 0
	movq	%rcx, (%rax)
	.loc	41 825 6 is_stmt 1
	popq	%rbx
	popq	%r12
	popq	%r14
	popq	%r15
	popq	%rbp
	retq
Ltmp2630:
Lfunc_end84:
	.cfi_endproc
	.p2align	2, 0x90
	.data_region jt32
.set L84_0_set_2, LBB84_2-LJTI84_0
.set L84_0_set_5, LBB84_5-LJTI84_0
.set L84_0_set_7, LBB84_7-LJTI84_0
.set L84_0_set_9, LBB84_9-LJTI84_0
.set L84_0_set_11, LBB84_11-LJTI84_0
.set L84_0_set_13, LBB84_13-LJTI84_0
.set L84_0_set_15, LBB84_15-LJTI84_0
.set L84_0_set_17, LBB84_17-LJTI84_0
.set L84_0_set_19, LBB84_19-LJTI84_0
.set L84_0_set_21, LBB84_21-LJTI84_0
.set L84_0_set_23, LBB84_23-LJTI84_0
LJTI84_0:
	.long	L84_0_set_2
	.long	L84_0_set_5
	.long	L84_0_set_7
	.long	L84_0_set_9
	.long	L84_0_set_11
	.long	L84_0_set_13
	.long	L84_0_set_15
	.long	L84_0_set_17
	.long	L84_0_set_19
	.long	L84_0_set_21
	.long	L84_0_set_23
	.end_data_region

	.globl	__ZN5gimli4read5value5Value2le17hbcd5e4f23d62f01fE
	.p2align	4, 0x90
__ZN5gimli4read5value5Value2le17hbcd5e4f23d62f01fE:
Lfunc_begin85:
	.loc	41 833 0
	.cfi_startproc
	pushq	%rbp
	.cfi_def_cfa_offset 16
	.cfi_offset %rbp, -16
	movq	%rsp, %rbp
	.cfi_def_cfa_register %rbp
	pushq	%r15
	pushq	%r14
	pushq	%r12
	pushq	%rbx
	.cfi_offset %rbx, -48
	.cfi_offset %r12, -40
	.cfi_offset %r14, -32
	.cfi_offset %r15, -24
	movq	%rdi, %rax
Ltmp2631:
	.loc	41 834 28 prologue_end
	movzbl	(%rsi), %ebx
	cmpq	$10, %rbx
	.loc	41 835 14
	ja	LBB85_3
Ltmp2632:
	.loc	41 0 14 is_stmt 0
	movb	1(%rsi), %r8b
	movzwl	2(%rsi), %r14d
	movl	4(%rsi), %r10d
	movq	8(%rsi), %r9
	movb	(%rdx), %r11b
	movb	1(%rdx), %r15b
	movzwl	2(%rdx), %edi
	movl	4(%rdx), %esi
Ltmp2633:
	movq	8(%rdx), %r12
	leaq	LJTI85_0(%rip), %rdx
Ltmp2634:
	movslq	(%rdx,%rbx,4), %rbx
	addq	%rdx, %rbx
	jmpq	*%rbx
Ltmp2635:
LBB85_2:
	.loc	41 835 34
	testb	%r11b, %r11b
	jne	LBB85_3
Ltmp2636:
	.loc	41 15 17 is_stmt 1
	movq	%rcx, %rdx
	shrq	%rdx
	.loc	41 15 16 is_stmt 0
	incq	%rdx
Ltmp2637:
	.loc	41 14 17 is_stmt 1
	andq	%rcx, %r9
Ltmp2638:
	.loc	41 16 5
	xorq	%rdx, %r9
Ltmp2639:
	.loc	6 1333 17
	subq	%rdx, %r9
Ltmp2640:
	.loc	41 14 17
	andq	%rcx, %r12
Ltmp2641:
	.loc	41 16 5
	xorq	%rdx, %r12
Ltmp2642:
	.loc	6 1333 17
	subq	%rdx, %r12
Ltmp2643:
	.loc	6 0 17 is_stmt 0
	jmp	LBB85_18
Ltmp2644:
LBB85_5:
	.loc	41 838 29 is_stmt 1
	cmpb	$1, %r11b
	jne	LBB85_3
Ltmp2645:
	.loc	41 838 47 is_stmt 0
	cmpb	%r15b, %r8b
	setle	%cl
Ltmp2646:
	.loc	41 0 47
	jmp	LBB85_26
Ltmp2647:
LBB85_7:
	.loc	41 839 29 is_stmt 1
	cmpb	$2, %r11b
	jne	LBB85_3
Ltmp2648:
	.loc	41 839 47 is_stmt 0
	cmpb	%r15b, %r8b
	setbe	%cl
Ltmp2649:
	.loc	41 0 47
	jmp	LBB85_26
Ltmp2650:
LBB85_9:
	.loc	41 840 30 is_stmt 1
	cmpb	$3, %r11b
	jne	LBB85_3
Ltmp2651:
	.loc	41 840 49 is_stmt 0
	cmpw	%di, %r14w
	setle	%cl
Ltmp2652:
	.loc	41 0 49
	jmp	LBB85_26
Ltmp2653:
LBB85_11:
	.loc	41 841 30 is_stmt 1
	cmpb	$4, %r11b
	jne	LBB85_3
Ltmp2654:
	.loc	41 841 49 is_stmt 0
	cmpw	%di, %r14w
	setbe	%cl
Ltmp2655:
	.loc	41 0 49
	jmp	LBB85_26
Ltmp2656:
LBB85_13:
	.loc	41 842 30 is_stmt 1
	cmpb	$5, %r11b
	jne	LBB85_3
Ltmp2657:
	.loc	41 842 49 is_stmt 0
	cmpl	%esi, %r10d
	setle	%cl
Ltmp2658:
	.loc	41 0 49
	jmp	LBB85_26
Ltmp2659:
LBB85_15:
	.loc	41 843 30 is_stmt 1
	cmpb	$6, %r11b
	jne	LBB85_3
Ltmp2660:
	.loc	41 843 49 is_stmt 0
	cmpl	%esi, %r10d
	setbe	%cl
Ltmp2661:
	.loc	41 0 49
	jmp	LBB85_26
Ltmp2662:
LBB85_17:
	.loc	41 844 30 is_stmt 1
	cmpb	$7, %r11b
	jne	LBB85_3
Ltmp2663:
LBB85_18:
	.loc	41 0 0 is_stmt 0
	cmpq	%r12, %r9
	setle	%cl
Ltmp2664:
	jmp	LBB85_26
Ltmp2665:
LBB85_19:
	.loc	41 845 30 is_stmt 1
	cmpb	$8, %r11b
	jne	LBB85_3
Ltmp2666:
	.loc	41 845 49 is_stmt 0
	cmpq	%r12, %r9
	setbe	%cl
Ltmp2667:
	.loc	41 0 49
	jmp	LBB85_26
Ltmp2668:
LBB85_21:
	.loc	41 846 30 is_stmt 1
	cmpb	$9, %r11b
	jne	LBB85_3
Ltmp2669:
	.loc	41 846 25 is_stmt 0
	movd	%r10d, %xmm0
	.loc	41 846 41
	movd	%esi, %xmm1
Ltmp2670:
	.loc	41 846 49
	ucomiss	%xmm0, %xmm1
	jmp	LBB85_25
Ltmp2671:
LBB85_23:
	.loc	41 847 30 is_stmt 1
	cmpb	$10, %r11b
	jne	LBB85_3
Ltmp2672:
	.loc	41 847 25 is_stmt 0
	movq	%r9, %xmm0
	.loc	41 847 41
	movq	%r12, %xmm1
Ltmp2673:
	.loc	41 847 49
	ucomisd	%xmm0, %xmm1
Ltmp2674:
LBB85_25:
	.loc	41 0 0
	setae	%cl
Ltmp2675:
LBB85_26:
	.loc	41 850 27 is_stmt 1
	movzbl	%cl, %ecx
Ltmp2676:
	.loc	41 850 9 is_stmt 0
	movb	$0, 8(%rax)
	movq	%rcx, 16(%rax)
	xorl	%ecx, %ecx
	jmp	LBB85_27
Ltmp2677:
LBB85_3:
	.loc	41 848 25 is_stmt 1
	movb	$42, 8(%rax)
	movl	$1, %ecx
Ltmp2678:
LBB85_27:
	.loc	41 0 0 is_stmt 0
	movq	%rcx, (%rax)
	.loc	41 851 6 is_stmt 1
	popq	%rbx
	popq	%r12
	popq	%r14
	popq	%r15
	popq	%rbp
	retq
Ltmp2679:
Lfunc_end85:
	.cfi_endproc
	.p2align	2, 0x90
	.data_region jt32
.set L85_0_set_2, LBB85_2-LJTI85_0
.set L85_0_set_5, LBB85_5-LJTI85_0
.set L85_0_set_7, LBB85_7-LJTI85_0
.set L85_0_set_9, LBB85_9-LJTI85_0
.set L85_0_set_11, LBB85_11-LJTI85_0
.set L85_0_set_13, LBB85_13-LJTI85_0
.set L85_0_set_15, LBB85_15-LJTI85_0
.set L85_0_set_17, LBB85_17-LJTI85_0
.set L85_0_set_19, LBB85_19-LJTI85_0
.set L85_0_set_21, LBB85_21-LJTI85_0
.set L85_0_set_23, LBB85_23-LJTI85_0
LJTI85_0:
	.long	L85_0_set_2
	.long	L85_0_set_5
	.long	L85_0_set_7
	.long	L85_0_set_9
	.long	L85_0_set_11
	.long	L85_0_set_13
	.long	L85_0_set_15
	.long	L85_0_set_17
	.long	L85_0_set_19
	.long	L85_0_set_21
	.long	L85_0_set_23
	.end_data_region

	.globl	__ZN5gimli4read5value5Value2lt17h50c4f1b16985920fE
	.p2align	4, 0x90
__ZN5gimli4read5value5Value2lt17h50c4f1b16985920fE:
Lfunc_begin86:
	.loc	41 859 0
	.cfi_startproc
	pushq	%rbp
	.cfi_def_cfa_offset 16
	.cfi_offset %rbp, -16
	movq	%rsp, %rbp
	.cfi_def_cfa_register %rbp
	pushq	%r15
	pushq	%r14
	pushq	%r12
	pushq	%rbx
	.cfi_offset %rbx, -48
	.cfi_offset %r12, -40
	.cfi_offset %r14, -32
	.cfi_offset %r15, -24
	movq	%rdi, %rax
Ltmp2680:
	.loc	41 860 28 prologue_end
	movzbl	(%rsi), %ebx
	cmpq	$10, %rbx
	.loc	41 861 14
	ja	LBB86_3
Ltmp2681:
	.loc	41 0 14 is_stmt 0
	movb	1(%rsi), %r8b
	movzwl	2(%rsi), %r14d
	movl	4(%rsi), %r10d
	movq	8(%rsi), %r9
	movb	(%rdx), %r11b
	movb	1(%rdx), %r15b
	movzwl	2(%rdx), %edi
	movl	4(%rdx), %esi
Ltmp2682:
	movq	8(%rdx), %r12
	leaq	LJTI86_0(%rip), %rdx
Ltmp2683:
	movslq	(%rdx,%rbx,4), %rbx
	addq	%rdx, %rbx
	jmpq	*%rbx
Ltmp2684:
LBB86_2:
	.loc	41 861 34
	testb	%r11b, %r11b
	jne	LBB86_3
Ltmp2685:
	.loc	41 15 17 is_stmt 1
	movq	%rcx, %rdx
	shrq	%rdx
	.loc	41 15 16 is_stmt 0
	incq	%rdx
Ltmp2686:
	.loc	41 14 17 is_stmt 1
	andq	%rcx, %r9
Ltmp2687:
	.loc	41 16 5
	xorq	%rdx, %r9
Ltmp2688:
	.loc	6 1333 17
	subq	%rdx, %r9
Ltmp2689:
	.loc	41 14 17
	andq	%rcx, %r12
Ltmp2690:
	.loc	41 16 5
	xorq	%rdx, %r12
Ltmp2691:
	.loc	6 1333 17
	subq	%rdx, %r12
Ltmp2692:
	.loc	6 0 17 is_stmt 0
	jmp	LBB86_18
Ltmp2693:
LBB86_5:
	.loc	41 864 29 is_stmt 1
	cmpb	$1, %r11b
	jne	LBB86_3
Ltmp2694:
	.loc	41 864 47 is_stmt 0
	cmpb	%r15b, %r8b
	setl	%cl
Ltmp2695:
	.loc	41 0 47
	jmp	LBB86_26
Ltmp2696:
LBB86_7:
	.loc	41 865 29 is_stmt 1
	cmpb	$2, %r11b
	jne	LBB86_3
Ltmp2697:
	.loc	41 865 47 is_stmt 0
	cmpb	%r15b, %r8b
	setb	%cl
Ltmp2698:
	.loc	41 0 47
	jmp	LBB86_26
Ltmp2699:
LBB86_9:
	.loc	41 866 30 is_stmt 1
	cmpb	$3, %r11b
	jne	LBB86_3
Ltmp2700:
	.loc	41 866 49 is_stmt 0
	cmpw	%di, %r14w
	setl	%cl
Ltmp2701:
	.loc	41 0 49
	jmp	LBB86_26
Ltmp2702:
LBB86_11:
	.loc	41 867 30 is_stmt 1
	cmpb	$4, %r11b
	jne	LBB86_3
Ltmp2703:
	.loc	41 867 49 is_stmt 0
	cmpw	%di, %r14w
	setb	%cl
Ltmp2704:
	.loc	41 0 49
	jmp	LBB86_26
Ltmp2705:
LBB86_13:
	.loc	41 868 30 is_stmt 1
	cmpb	$5, %r11b
	jne	LBB86_3
Ltmp2706:
	.loc	41 868 49 is_stmt 0
	cmpl	%esi, %r10d
	setl	%cl
Ltmp2707:
	.loc	41 0 49
	jmp	LBB86_26
Ltmp2708:
LBB86_15:
	.loc	41 869 30 is_stmt 1
	cmpb	$6, %r11b
	jne	LBB86_3
Ltmp2709:
	.loc	41 869 49 is_stmt 0
	cmpl	%esi, %r10d
	setb	%cl
Ltmp2710:
	.loc	41 0 49
	jmp	LBB86_26
Ltmp2711:
LBB86_17:
	.loc	41 870 30 is_stmt 1
	cmpb	$7, %r11b
	jne	LBB86_3
Ltmp2712:
LBB86_18:
	.loc	41 0 0 is_stmt 0
	cmpq	%r12, %r9
	setl	%cl
Ltmp2713:
	jmp	LBB86_26
Ltmp2714:
LBB86_19:
	.loc	41 871 30 is_stmt 1
	cmpb	$8, %r11b
	jne	LBB86_3
Ltmp2715:
	.loc	41 871 49 is_stmt 0
	cmpq	%r12, %r9
	setb	%cl
Ltmp2716:
	.loc	41 0 49
	jmp	LBB86_26
Ltmp2717:
LBB86_21:
	.loc	41 872 30 is_stmt 1
	cmpb	$9, %r11b
	jne	LBB86_3
Ltmp2718:
	.loc	41 872 25 is_stmt 0
	movd	%r10d, %xmm0
	.loc	41 872 41
	movd	%esi, %xmm1
Ltmp2719:
	.loc	41 872 49
	ucomiss	%xmm0, %xmm1
	jmp	LBB86_25
Ltmp2720:
LBB86_23:
	.loc	41 873 30 is_stmt 1
	cmpb	$10, %r11b
	jne	LBB86_3
Ltmp2721:
	.loc	41 873 25 is_stmt 0
	movq	%r9, %xmm0
	.loc	41 873 41
	movq	%r12, %xmm1
Ltmp2722:
	.loc	41 873 49
	ucomisd	%xmm0, %xmm1
Ltmp2723:
LBB86_25:
	.loc	41 0 0
	seta	%cl
Ltmp2724:
LBB86_26:
	.loc	41 876 27 is_stmt 1
	movzbl	%cl, %ecx
Ltmp2725:
	.loc	41 876 9 is_stmt 0
	movb	$0, 8(%rax)
	movq	%rcx, 16(%rax)
	xorl	%ecx, %ecx
	jmp	LBB86_27
Ltmp2726:
LBB86_3:
	.loc	41 874 25 is_stmt 1
	movb	$42, 8(%rax)
	movl	$1, %ecx
Ltmp2727:
LBB86_27:
	.loc	41 0 0 is_stmt 0
	movq	%rcx, (%rax)
	.loc	41 877 6 is_stmt 1
	popq	%rbx
	popq	%r12
	popq	%r14
	popq	%r15
	popq	%rbp
	retq
Ltmp2728:
Lfunc_end86:
	.cfi_endproc
	.p2align	2, 0x90
	.data_region jt32
.set L86_0_set_2, LBB86_2-LJTI86_0
.set L86_0_set_5, LBB86_5-LJTI86_0
.set L86_0_set_7, LBB86_7-LJTI86_0
.set L86_0_set_9, LBB86_9-LJTI86_0
.set L86_0_set_11, LBB86_11-LJTI86_0
.set L86_0_set_13, LBB86_13-LJTI86_0
.set L86_0_set_15, LBB86_15-LJTI86_0
.set L86_0_set_17, LBB86_17-LJTI86_0
.set L86_0_set_19, LBB86_19-LJTI86_0
.set L86_0_set_21, LBB86_21-LJTI86_0
.set L86_0_set_23, LBB86_23-LJTI86_0
LJTI86_0:
	.long	L86_0_set_2
	.long	L86_0_set_5
	.long	L86_0_set_7
	.long	L86_0_set_9
	.long	L86_0_set_11
	.long	L86_0_set_13
	.long	L86_0_set_15
	.long	L86_0_set_17
	.long	L86_0_set_19
	.long	L86_0_set_21
	.long	L86_0_set_23
	.end_data_region

	.globl	__ZN5gimli4read5value5Value2ne17h155b9b93494ad489E
	.p2align	4, 0x90
__ZN5gimli4read5value5Value2ne17h155b9b93494ad489E:
Lfunc_begin87:
	.loc	41 885 0
	.cfi_startproc
	pushq	%rbp
	.cfi_def_cfa_offset 16
	.cfi_offset %rbp, -16
	movq	%rsp, %rbp
	.cfi_def_cfa_register %rbp
	pushq	%r15
	pushq	%r14
	pushq	%r12
	pushq	%rbx
	.cfi_offset %rbx, -48
	.cfi_offset %r12, -40
	.cfi_offset %r14, -32
	.cfi_offset %r15, -24
	movq	%rdi, %rax
Ltmp2729:
	.loc	41 886 28 prologue_end
	movzbl	(%rsi), %ebx
	cmpq	$10, %rbx
	.loc	41 887 14
	ja	LBB87_3
Ltmp2730:
	.loc	41 0 14 is_stmt 0
	movb	1(%rsi), %r8b
	movzwl	2(%rsi), %r14d
	movl	4(%rsi), %r10d
	movq	8(%rsi), %r9
	movb	(%rdx), %r11b
	movb	1(%rdx), %r15b
	movzwl	2(%rdx), %edi
	movl	4(%rdx), %esi
Ltmp2731:
	movq	8(%rdx), %r12
	leaq	LJTI87_0(%rip), %rdx
Ltmp2732:
	movslq	(%rdx,%rbx,4), %rbx
	addq	%rdx, %rbx
