	.section	__TEXT,__text,regular,pure_instructions
	.macosx_version_min 10, 7
	.globl	__ZN54_$LT$libc..unix..DIR$u20$as$u20$core..clone..Clone$GT$5clone17h97adcf0531d6c609E
	.p2align	4, 0x90
__ZN54_$LT$libc..unix..DIR$u20$as$u20$core..clone..Clone$GT$5clone17h97adcf0531d6c609E:
Lfunc_begin0:
	.file	1 "/Users/yingyuhang/.cargo/registry/src/github.com-1ecc6299db9ec823/libc-0.2.71/src/unix/mod.rs"
	.loc	1 37 0
	.cfi_startproc
	pushq	%rbp
	.cfi_def_cfa_offset 16
	.cfi_offset %rbp, -16
	movq	%rsp, %rbp
	.cfi_def_cfa_register %rbp
Ltmp0:
	.loc	1 39 6 prologue_end
	ud2
Ltmp1:
Lfunc_end0:
	.cfi_endproc

	.globl	__ZN58_$LT$libc..unix..timeval$u20$as$u20$core..clone..Clone$GT$5clone17h8dce2680a021693fE
	.p2align	4, 0x90
__ZN58_$LT$libc..unix..timeval$u20$as$u20$core..clone..Clone$GT$5clone17h8dce2680a021693fE:
Lfunc_begin1:
	.file	2 "/Users/yingyuhang/.cargo/registry/src/github.com-1ecc6299db9ec823/libc-0.2.71/src/macros.rs"
	.loc	2 85 0
	.cfi_startproc
	pushq	%rbp
	.cfi_def_cfa_offset 16
	.cfi_offset %rbp, -16
	movq	%rsp, %rbp
	.cfi_def_cfa_register %rbp
Ltmp2:
	.loc	2 85 37 prologue_end
	movq	(%rdi), %rax
	movl	8(%rdi), %edx
	.loc	2 85 44 is_stmt 0
	popq	%rbp
	retq
Ltmp3:
Lfunc_end1:
	.cfi_endproc

	.globl	__ZN57_$LT$libc..unix..rusage$u20$as$u20$core..clone..Clone$GT$5clone17h184e7e1ff58a73a6E
	.p2align	4, 0x90
__ZN57_$LT$libc..unix..rusage$u20$as$u20$core..clone..Clone$GT$5clone17h184e7e1ff58a73a6E:
Lfunc_begin2:
	.loc	2 85 0 is_stmt 1
	.cfi_startproc
	pushq	%rbp
	.cfi_def_cfa_offset 16
	.cfi_offset %rbp, -16
	movq	%rsp, %rbp
	.cfi_def_cfa_register %rbp
	pushq	%rbx
	pushq	%rax
	.cfi_offset %rbx, -24
	movq	%rdi, %rbx
Ltmp4:
	.loc	2 85 37 prologue_end
	movl	$144, %edx
	callq	_memcpy
Ltmp5:
	.loc	2 85 44 is_stmt 0
	movq	%rbx, %rax
	addq	$8, %rsp
	popq	%rbx
	popq	%rbp
	retq
Ltmp6:
Lfunc_end2:
	.cfi_endproc

	.globl	__ZN60_$LT$libc..unix..ipv6_mreq$u20$as$u20$core..clone..Clone$GT$5clone17h793b96d7647b0509E
	.p2align	4, 0x90
__ZN60_$LT$libc..unix..ipv6_mreq$u20$as$u20$core..clone..Clone$GT$5clone17h793b96d7647b0509E:
Lfunc_begin3:
	.loc	2 85 0 is_stmt 1
	.cfi_startproc
	pushq	%rbp
	.cfi_def_cfa_offset 16
	.cfi_offset %rbp, -16
	movq	%rsp, %rbp
	.cfi_def_cfa_register %rbp
	movq	%rdi, %rax
Ltmp7:
	.loc	2 85 37 prologue_end
	movl	16(%rsi), %ecx
	movl	%ecx, 16(%rdi)
	movq	(%rsi), %rcx
	movq	8(%rsi), %rdx
	movq	%rdx, 8(%rdi)
	movq	%rcx, (%rdi)
	.loc	2 85 44 is_stmt 0
	popq	%rbp
	retq
Ltmp8:
Lfunc_end3:
	.cfi_endproc

	.globl	__ZN56_$LT$libc..unix..iovec$u20$as$u20$core..clone..Clone$GT$5clone17hb75b5cd917827af9E
	.p2align	4, 0x90
__ZN56_$LT$libc..unix..iovec$u20$as$u20$core..clone..Clone$GT$5clone17hb75b5cd917827af9E:
Lfunc_begin4:
	.loc	2 85 0 is_stmt 1
	.cfi_startproc
	pushq	%rbp
	.cfi_def_cfa_offset 16
	.cfi_offset %rbp, -16
	movq	%rsp, %rbp
	.cfi_def_cfa_register %rbp
Ltmp9:
	.loc	2 85 37 prologue_end
	movq	(%rdi), %rax
	movq	8(%rdi), %rdx
	.loc	2 85 44 is_stmt 0
	popq	%rbp
	retq
Ltmp10:
Lfunc_end4:
	.cfi_endproc

	.globl	__ZN57_$LT$libc..unix..pollfd$u20$as$u20$core..clone..Clone$GT$5clone17h54376326fc2ed3d5E
	.p2align	4, 0x90
__ZN57_$LT$libc..unix..pollfd$u20$as$u20$core..clone..Clone$GT$5clone17h54376326fc2ed3d5E:
Lfunc_begin5:
	.loc	2 85 0 is_stmt 1
	.cfi_startproc
	pushq	%rbp
	.cfi_def_cfa_offset 16
	.cfi_offset %rbp, -16
	movq	%rsp, %rbp
	.cfi_def_cfa_register %rbp
Ltmp11:
	.loc	2 85 37 prologue_end
	movq	(%rdi), %rax
	.loc	2 85 44 is_stmt 0
	popq	%rbp
	retq
Ltmp12:
Lfunc_end5:
	.cfi_endproc

	.globl	__ZN58_$LT$libc..unix..winsize$u20$as$u20$core..clone..Clone$GT$5clone17h099ca9931a2b19c8E
	.p2align	4, 0x90
__ZN58_$LT$libc..unix..winsize$u20$as$u20$core..clone..Clone$GT$5clone17h099ca9931a2b19c8E:
Lfunc_begin6:
	.loc	2 85 0 is_stmt 1
	.cfi_startproc
	pushq	%rbp
	.cfi_def_cfa_offset 16
	.cfi_offset %rbp, -16
	movq	%rsp, %rbp
	.cfi_def_cfa_register %rbp
Ltmp13:
	.loc	2 85 37 prologue_end
	movq	(%rdi), %rax
	.loc	2 85 44 is_stmt 0
	popq	%rbp
	retq
Ltmp14:
Lfunc_end6:
	.cfi_endproc

	.globl	__ZN57_$LT$libc..unix..linger$u20$as$u20$core..clone..Clone$GT$5clone17h1a2aaa9618368b64E
	.p2align	4, 0x90
__ZN57_$LT$libc..unix..linger$u20$as$u20$core..clone..Clone$GT$5clone17h1a2aaa9618368b64E:
Lfunc_begin7:
	.loc	2 85 0 is_stmt 1
	.cfi_startproc
	pushq	%rbp
	.cfi_def_cfa_offset 16
	.cfi_offset %rbp, -16
	movq	%rsp, %rbp
	.cfi_def_cfa_register %rbp
Ltmp15:
	.loc	2 85 37 prologue_end
	movl	(%rdi), %eax
	movl	4(%rdi), %edx
	.loc	2 85 44 is_stmt 0
	popq	%rbp
	retq
Ltmp16:
Lfunc_end7:
	.cfi_endproc

	.globl	__ZN57_$LT$libc..unix..sigval$u20$as$u20$core..clone..Clone$GT$5clone17h5aea8165d7f9c4e2E
	.p2align	4, 0x90
__ZN57_$LT$libc..unix..sigval$u20$as$u20$core..clone..Clone$GT$5clone17h5aea8165d7f9c4e2E:
Lfunc_begin8:
	.loc	2 85 0 is_stmt 1
	.cfi_startproc
	pushq	%rbp
	.cfi_def_cfa_offset 16
	.cfi_offset %rbp, -16
	movq	%rsp, %rbp
	.cfi_def_cfa_register %rbp
Ltmp17:
	.loc	2 85 37 prologue_end
	movq	(%rdi), %rax
	.loc	2 85 44 is_stmt 0
	popq	%rbp
	retq
Ltmp18:
Lfunc_end8:
	.cfi_endproc

	.globl	__ZN54_$LT$libc..unix..tms$u20$as$u20$core..clone..Clone$GT$5clone17ha96a65c69ba523afE
	.p2align	4, 0x90
__ZN54_$LT$libc..unix..tms$u20$as$u20$core..clone..Clone$GT$5clone17ha96a65c69ba523afE:
Lfunc_begin9:
	.loc	2 85 0 is_stmt 1
	.cfi_startproc
	pushq	%rbp
	.cfi_def_cfa_offset 16
	.cfi_offset %rbp, -16
	movq	%rsp, %rbp
	.cfi_def_cfa_register %rbp
	movq	%rdi, %rax
Ltmp19:
	.loc	2 85 37 prologue_end
	movq	24(%rsi), %rcx
	movq	%rcx, 24(%rdi)
	movq	16(%rsi), %rcx
	movq	%rcx, 16(%rdi)
	movq	(%rsi), %rcx
	movq	8(%rsi), %rdx
	movq	%rdx, 8(%rdi)
	movq	%rcx, (%rdi)
	.loc	2 85 44 is_stmt 0
	popq	%rbp
	retq
Ltmp20:
Lfunc_end9:
	.cfi_endproc

	.globl	__ZN59_$LT$libc..unix..protoent$u20$as$u20$core..clone..Clone$GT$5clone17h75aad9ae054f1c70E
	.p2align	4, 0x90
__ZN59_$LT$libc..unix..protoent$u20$as$u20$core..clone..Clone$GT$5clone17h75aad9ae054f1c70E:
Lfunc_begin10:
	.loc	2 85 0 is_stmt 1
	.cfi_startproc
	pushq	%rbp
	.cfi_def_cfa_offset 16
	.cfi_offset %rbp, -16
	movq	%rsp, %rbp
	.cfi_def_cfa_register %rbp
	movq	%rdi, %rax
Ltmp21:
	.loc	2 85 37 prologue_end
	movq	16(%rsi), %rcx
	movq	%rcx, 16(%rdi)
	movq	(%rsi), %rcx
	movq	8(%rsi), %rdx
	movq	%rdx, 8(%rdi)
	movq	%rcx, (%rdi)
	.loc	2 85 44 is_stmt 0
	popq	%rbp
	retq
Ltmp22:
Lfunc_end10:
	.cfi_endproc

	.globl	__ZN64_$LT$libc..unix..bsd..sockaddr$u20$as$u20$core..clone..Clone$GT$5clone17h40db4194fc6e1375E
	.p2align	4, 0x90
__ZN64_$LT$libc..unix..bsd..sockaddr$u20$as$u20$core..clone..Clone$GT$5clone17h40db4194fc6e1375E:
Lfunc_begin11:
	.loc	2 85 0 is_stmt 1
	.cfi_startproc
	pushq	%rbp
	.cfi_def_cfa_offset 16
	.cfi_offset %rbp, -16
	movq	%rsp, %rbp
	.cfi_def_cfa_register %rbp
	movq	%rdi, %rax
Ltmp23:
	.loc	2 85 37 prologue_end
	movq	(%rsi), %rcx
	movq	8(%rsi), %rdx
	movq	%rdx, 8(%rdi)
	movq	%rcx, (%rdi)
	.loc	2 85 44 is_stmt 0
	popq	%rbp
	retq
Ltmp24:
Lfunc_end11:
	.cfi_endproc

	.globl	__ZN68_$LT$libc..unix..bsd..sockaddr_in6$u20$as$u20$core..clone..Clone$GT$5clone17h984b239897ceedd6E
	.p2align	4, 0x90
__ZN68_$LT$libc..unix..bsd..sockaddr_in6$u20$as$u20$core..clone..Clone$GT$5clone17h984b239897ceedd6E:
Lfunc_begin12:
	.loc	2 85 0 is_stmt 1
	.cfi_startproc
	pushq	%rbp
	.cfi_def_cfa_offset 16
	.cfi_offset %rbp, -16
	movq	%rsp, %rbp
	.cfi_def_cfa_register %rbp
	movq	%rdi, %rax
Ltmp25:
	.loc	2 85 37 prologue_end
	movl	24(%rsi), %ecx
	movl	%ecx, 24(%rdi)
	movq	16(%rsi), %rcx
	movq	%rcx, 16(%rdi)
	movq	(%rsi), %rcx
	movq	8(%rsi), %rdx
	movq	%rdx, 8(%rdi)
	movq	%rcx, (%rdi)
	.loc	2 85 44 is_stmt 0
	popq	%rbp
	retq
Ltmp26:
Lfunc_end12:
	.cfi_endproc

	.globl	__ZN62_$LT$libc..unix..bsd..passwd$u20$as$u20$core..clone..Clone$GT$5clone17hecaf7b4cb416e2f0E
	.p2align	4, 0x90
__ZN62_$LT$libc..unix..bsd..passwd$u20$as$u20$core..clone..Clone$GT$5clone17hecaf7b4cb416e2f0E:
Lfunc_begin13:
	.loc	2 85 0 is_stmt 1
	.cfi_startproc
	pushq	%rbp
	.cfi_def_cfa_offset 16
	.cfi_offset %rbp, -16
	movq	%rsp, %rbp
	.cfi_def_cfa_register %rbp
	movq	%rdi, %rax
Ltmp27:
	.loc	2 85 37 prologue_end
	movl	$9, %ecx
	rep;movsq (%rsi), %es:(%rdi)
Ltmp28:
	.loc	2 85 44 is_stmt 0
	popq	%rbp
	retq
Ltmp29:
Lfunc_end13:
	.cfi_endproc

	.globl	__ZN62_$LT$libc..unix..bsd..fd_set$u20$as$u20$core..clone..Clone$GT$5clone17h1af060edda84325bE
	.p2align	4, 0x90
__ZN62_$LT$libc..unix..bsd..fd_set$u20$as$u20$core..clone..Clone$GT$5clone17h1af060edda84325bE:
Lfunc_begin14:
	.loc	2 85 0 is_stmt 1
	.cfi_startproc
	pushq	%rbp
	.cfi_def_cfa_offset 16
	.cfi_offset %rbp, -16
	movq	%rsp, %rbp
	.cfi_def_cfa_register %rbp
	movq	%rdi, %rax
Ltmp30:
	.loc	2 85 37 prologue_end
	movl	$32, %ecx
	rep;movsl (%rsi), %es:(%rdi)
Ltmp31:
	.loc	2 85 44 is_stmt 0
	popq	%rbp
	retq
Ltmp32:
Lfunc_end14:
	.cfi_endproc

	.globl	__ZN58_$LT$libc..unix..bsd..tm$u20$as$u20$core..clone..Clone$GT$5clone17h318e7d616fadc1deE
	.p2align	4, 0x90
__ZN58_$LT$libc..unix..bsd..tm$u20$as$u20$core..clone..Clone$GT$5clone17h318e7d616fadc1deE:
Lfunc_begin15:
	.loc	2 85 0 is_stmt 1
	.cfi_startproc
	pushq	%rbp
	.cfi_def_cfa_offset 16
	.cfi_offset %rbp, -16
	movq	%rsp, %rbp
	.cfi_def_cfa_register %rbp
	movq	%rdi, %rax
Ltmp33:
	.loc	2 85 37 prologue_end
	movq	48(%rsi), %rcx
	movq	%rcx, 48(%rdi)
	movq	40(%rsi), %rcx
	movq	%rcx, 40(%rdi)
	movq	32(%rsi), %rcx
	movq	%rcx, 32(%rdi)
	movq	24(%rsi), %rcx
	movq	%rcx, 24(%rdi)
	movq	16(%rsi), %rcx
	movq	%rcx, 16(%rdi)
	movq	(%rsi), %rcx
	movq	8(%rsi), %rdx
	movq	%rdx, 8(%rdi)
	movq	%rcx, (%rdi)
	.loc	2 85 44 is_stmt 0
	popq	%rbp
	retq
Ltmp34:
Lfunc_end15:
	.cfi_endproc

	.globl	__ZN62_$LT$libc..unix..bsd..msghdr$u20$as$u20$core..clone..Clone$GT$5clone17h98d8bb82739dfd15E
	.p2align	4, 0x90
__ZN62_$LT$libc..unix..bsd..msghdr$u20$as$u20$core..clone..Clone$GT$5clone17h98d8bb82739dfd15E:
Lfunc_begin16:
	.loc	2 85 0 is_stmt 1
	.cfi_startproc
	pushq	%rbp
	.cfi_def_cfa_offset 16
	.cfi_offset %rbp, -16
	movq	%rsp, %rbp
	.cfi_def_cfa_register %rbp
	movq	%rdi, %rax
Ltmp35:
	.loc	2 85 37 prologue_end
	movq	40(%rsi), %rcx
	movq	%rcx, 40(%rdi)
	movq	32(%rsi), %rcx
	movq	%rcx, 32(%rdi)
	movq	24(%rsi), %rcx
	movq	%rcx, 24(%rdi)
	movq	16(%rsi), %rcx
	movq	%rcx, 16(%rdi)
	movq	(%rsi), %rcx
	movq	8(%rsi), %rdx
	movq	%rdx, 8(%rdi)
	movq	%rcx, (%rdi)
	.loc	2 85 44 is_stmt 0
	popq	%rbp
	retq
Ltmp36:
Lfunc_end16:
	.cfi_endproc

	.globl	__ZN63_$LT$libc..unix..bsd..cmsghdr$u20$as$u20$core..clone..Clone$GT$5clone17hb9bb005e8ba52895E
	.p2align	4, 0x90
__ZN63_$LT$libc..unix..bsd..cmsghdr$u20$as$u20$core..clone..Clone$GT$5clone17hb9bb005e8ba52895E:
Lfunc_begin17:
	.loc	2 85 0 is_stmt 1
	.cfi_startproc
	pushq	%rbp
	.cfi_def_cfa_offset 16
	.cfi_offset %rbp, -16
	movq	%rsp, %rbp
	.cfi_def_cfa_register %rbp
	movq	%rdi, %rax
Ltmp37:
	.loc	2 85 37 prologue_end
	movl	8(%rsi), %ecx
	movl	%ecx, 8(%rdi)
	movq	(%rsi), %rcx
	movq	%rcx, (%rdi)
	.loc	2 85 44 is_stmt 0
	popq	%rbp
	retq
Ltmp38:
Lfunc_end17:
	.cfi_endproc

	.globl	__ZN68_$LT$libc..unix..bsd..if_nameindex$u20$as$u20$core..clone..Clone$GT$5clone17h14b8ade03a274479E
	.p2align	4, 0x90
__ZN68_$LT$libc..unix..bsd..if_nameindex$u20$as$u20$core..clone..Clone$GT$5clone17h14b8ade03a274479E:
Lfunc_begin18:
	.loc	2 85 0 is_stmt 1
	.cfi_startproc
	pushq	%rbp
	.cfi_def_cfa_offset 16
	.cfi_offset %rbp, -16
	movq	%rsp, %rbp
	.cfi_def_cfa_register %rbp
Ltmp39:
	.loc	2 85 37 prologue_end
	movl	(%rdi), %eax
	movq	8(%rdi), %rdx
	.loc	2 85 44 is_stmt 0
	popq	%rbp
	retq
Ltmp40:
Lfunc_end18:
	.cfi_endproc

	.globl	__ZN67_$LT$libc..unix..bsd..sockaddr_un$u20$as$u20$core..clone..Clone$GT$5clone17h8c7d443d0f7cc47dE
	.p2align	4, 0x90
__ZN67_$LT$libc..unix..bsd..sockaddr_un$u20$as$u20$core..clone..Clone$GT$5clone17h8c7d443d0f7cc47dE:
Lfunc_begin19:
	.loc	2 119 0 is_stmt 1
	.cfi_startproc
	pushq	%rbp
	.cfi_def_cfa_offset 16
	.cfi_offset %rbp, -16
	movq	%rsp, %rbp
	.cfi_def_cfa_register %rbp
	pushq	%rbx
	pushq	%rax
	.cfi_offset %rbx, -24
	movq	%rdi, %rbx
Ltmp41:
	.loc	2 119 37 prologue_end
	movl	$106, %edx
	callq	_memcpy
Ltmp42:
	.loc	2 119 44 is_stmt 0
	movq	%rbx, %rax
	addq	$8, %rsp
	popq	%rbx
	popq	%rbp
	retq
Ltmp43:
Lfunc_end19:
	.cfi_endproc

	.globl	__ZN63_$LT$libc..unix..bsd..utsname$u20$as$u20$core..clone..Clone$GT$5clone17h73fd2c4065dae18dE
	.p2align	4, 0x90
__ZN63_$LT$libc..unix..bsd..utsname$u20$as$u20$core..clone..Clone$GT$5clone17h73fd2c4065dae18dE:
Lfunc_begin20:
	.loc	2 119 0 is_stmt 1
	.cfi_startproc
	pushq	%rbp
	.cfi_def_cfa_offset 16
	.cfi_offset %rbp, -16
	movq	%rsp, %rbp
	.cfi_def_cfa_register %rbp
	pushq	%rbx
	pushq	%rax
	.cfi_offset %rbx, -24
	movq	%rdi, %rbx
Ltmp44:
	.loc	2 119 37 prologue_end
	movl	$1280, %edx
	callq	_memcpy
Ltmp45:
	.loc	2 119 44 is_stmt 0
	movq	%rbx, %rax
	addq	$8, %rsp
	popq	%rbx
	popq	%rbp
	retq
Ltmp46:
Lfunc_end20:
	.cfi_endproc

	.globl	__ZN4libc4unix3bsd5apple9siginfo_t7si_addr17hb5ee5ffb5f1e6becE
	.p2align	4, 0x90
__ZN4libc4unix3bsd5apple9siginfo_t7si_addr17hb5ee5ffb5f1e6becE:
Lfunc_begin21:
	.file	3 "/Users/yingyuhang/.cargo/registry/src/github.com-1ecc6299db9ec823/libc-0.2.71/src/unix/bsd/apple/mod.rs"
	.loc	3 663 0 is_stmt 1
	.cfi_startproc
	pushq	%rbp
	.cfi_def_cfa_offset 16
	.cfi_offset %rbp, -16
	movq	%rsp, %rbp
	.cfi_def_cfa_register %rbp
Ltmp47:
	.loc	3 664 9 prologue_end
	movq	24(%rdi), %rax
	.loc	3 665 6
	popq	%rbp
	retq
Ltmp48:
Lfunc_end21:
	.cfi_endproc

	.globl	__ZN4libc4unix3bsd5apple9siginfo_t8si_value17h02fdbe5e8e7d2e3fE
	.p2align	4, 0x90
__ZN4libc4unix3bsd5apple9siginfo_t8si_value17h02fdbe5e8e7d2e3fE:
Lfunc_begin22:
	.loc	3 667 0
	.cfi_startproc
	pushq	%rbp
	.cfi_def_cfa_offset 16
	.cfi_offset %rbp, -16
	movq	%rsp, %rbp
	.cfi_def_cfa_register %rbp
Ltmp49:
	.loc	3 680 9 prologue_end
	movq	32(%rdi), %rax
	.loc	3 681 6
	popq	%rbp
	retq
Ltmp50:
Lfunc_end22:
	.cfi_endproc

	.globl	__ZN68_$LT$libc..unix..bsd..apple..aiocb$u20$as$u20$core..clone..Clone$GT$5clone17h8879d4b1501074f1E
	.p2align	4, 0x90
__ZN68_$LT$libc..unix..bsd..apple..aiocb$u20$as$u20$core..clone..Clone$GT$5clone17h8879d4b1501074f1E:
Lfunc_begin23:
	.loc	2 85 0
	.cfi_startproc
	pushq	%rbp
	.cfi_def_cfa_offset 16
	.cfi_offset %rbp, -16
	movq	%rsp, %rbp
	.cfi_def_cfa_register %rbp
	movq	%rdi, %rax
Ltmp51:
	.loc	2 85 37 prologue_end
	movl	$10, %ecx
	rep;movsq (%rsi), %es:(%rdi)
Ltmp52:
	.loc	2 85 44 is_stmt 0
	popq	%rbp
	retq
Ltmp53:
Lfunc_end23:
	.cfi_endproc

	.globl	__ZN69_$LT$libc..unix..bsd..apple..glob_t$u20$as$u20$core..clone..Clone$GT$5clone17h353d66f49ffcead3E
	.p2align	4, 0x90
__ZN69_$LT$libc..unix..bsd..apple..glob_t$u20$as$u20$core..clone..Clone$GT$5clone17h353d66f49ffcead3E:
Lfunc_begin24:
	.loc	2 85 0 is_stmt 1
	.cfi_startproc
	pushq	%rbp
	.cfi_def_cfa_offset 16
	.cfi_offset %rbp, -16
	movq	%rsp, %rbp
	.cfi_def_cfa_register %rbp
	movq	%rdi, %rax
Ltmp54:
	.loc	2 85 37 prologue_end
	movl	$11, %ecx
	rep;movsq (%rsi), %es:(%rdi)
Ltmp55:
	.loc	2 85 44 is_stmt 0
	popq	%rbp
	retq
Ltmp56:
Lfunc_end24:
	.cfi_endproc

	.globl	__ZN72_$LT$libc..unix..bsd..apple..siginfo_t$u20$as$u20$core..clone..Clone$GT$5clone17h5b4ee1f287caa8f3E
	.p2align	4, 0x90
__ZN72_$LT$libc..unix..bsd..apple..siginfo_t$u20$as$u20$core..clone..Clone$GT$5clone17h5b4ee1f287caa8f3E:
Lfunc_begin25:
	.loc	2 85 0 is_stmt 1
	.cfi_startproc
	pushq	%rbp
	.cfi_def_cfa_offset 16
	.cfi_offset %rbp, -16
	movq	%rsp, %rbp
	.cfi_def_cfa_register %rbp
	movq	%rdi, %rax
Ltmp57:
	.loc	2 85 37 prologue_end
	movl	$13, %ecx
	rep;movsq (%rsi), %es:(%rdi)
Ltmp58:
	.loc	2 85 44 is_stmt 0
	popq	%rbp
	retq
Ltmp59:
Lfunc_end25:
	.cfi_endproc

	.globl	__ZN72_$LT$libc..unix..bsd..apple..sigaction$u20$as$u20$core..clone..Clone$GT$5clone17h6a6df7afa5a51cc0E
	.p2align	4, 0x90
__ZN72_$LT$libc..unix..bsd..apple..sigaction$u20$as$u20$core..clone..Clone$GT$5clone17h6a6df7afa5a51cc0E:
Lfunc_begin26:
	.loc	2 85 0 is_stmt 1
	.cfi_startproc
	pushq	%rbp
	.cfi_def_cfa_offset 16
	.cfi_offset %rbp, -16
	movq	%rsp, %rbp
	.cfi_def_cfa_register %rbp
	movq	%rdi, %rax
Ltmp60:
	.loc	2 85 37 prologue_end
	movq	(%rsi), %rcx
	movq	8(%rsi), %rdx
	movq	%rdx, 8(%rdi)
	movq	%rcx, (%rdi)
	.loc	2 85 44 is_stmt 0
	popq	%rbp
	retq
Ltmp61:
Lfunc_end26:
	.cfi_endproc

	.globl	__ZN68_$LT$libc..unix..bsd..apple..dqblk$u20$as$u20$core..clone..Clone$GT$5clone17h0b9e18ffbaeb8ee2E
	.p2align	4, 0x90
__ZN68_$LT$libc..unix..bsd..apple..dqblk$u20$as$u20$core..clone..Clone$GT$5clone17h0b9e18ffbaeb8ee2E:
Lfunc_begin27:
	.loc	2 85 0 is_stmt 1
	.cfi_startproc
	pushq	%rbp
	.cfi_def_cfa_offset 16
	.cfi_offset %rbp, -16
	movq	%rsp, %rbp
	.cfi_def_cfa_register %rbp
	movq	%rdi, %rax
Ltmp62:
	.loc	2 85 37 prologue_end
	movq	56(%rsi), %rcx
	movq	%rcx, 56(%rdi)
	movq	48(%rsi), %rcx
	movq	%rcx, 48(%rdi)
	movq	40(%rsi), %rcx
	movq	%rcx, 40(%rdi)
	movq	32(%rsi), %rcx
	movq	%rcx, 32(%rdi)
	movq	24(%rsi), %rcx
	movq	%rcx, 24(%rdi)
	movq	16(%rsi), %rcx
	movq	%rcx, 16(%rdi)
	movq	(%rsi), %rcx
	movq	8(%rsi), %rdx
	movq	%rdx, 8(%rdi)
	movq	%rcx, (%rdi)
	.loc	2 85 44 is_stmt 0
	popq	%rbp
	retq
Ltmp63:
Lfunc_end27:
	.cfi_endproc

	.globl	__ZN72_$LT$libc..unix..bsd..apple..if_msghdr$u20$as$u20$core..clone..Clone$GT$5clone17h81237ebd304aa3c6E
	.p2align	4, 0x90
__ZN72_$LT$libc..unix..bsd..apple..if_msghdr$u20$as$u20$core..clone..Clone$GT$5clone17h81237ebd304aa3c6E:
Lfunc_begin28:
	.loc	2 85 0 is_stmt 1
	.cfi_startproc
	pushq	%rbp
	.cfi_def_cfa_offset 16
	.cfi_offset %rbp, -16
	movq	%rsp, %rbp
	.cfi_def_cfa_register %rbp
	movq	%rdi, %rax
Ltmp64:
	.loc	2 85 37 prologue_end
	movl	$28, %ecx
	rep;movsl (%rsi), %es:(%rdi)
Ltmp65:
	.loc	2 85 44 is_stmt 0
	popq	%rbp
	retq
Ltmp66:
Lfunc_end28:
	.cfi_endproc

	.globl	__ZN68_$LT$libc..unix..bsd..apple..lconv$u20$as$u20$core..clone..Clone$GT$5clone17hf5409b112eee9690E
	.p2align	4, 0x90
__ZN68_$LT$libc..unix..bsd..apple..lconv$u20$as$u20$core..clone..Clone$GT$5clone17hf5409b112eee9690E:
Lfunc_begin29:
	.loc	2 85 0 is_stmt 1
	.cfi_startproc
	pushq	%rbp
	.cfi_def_cfa_offset 16
	.cfi_offset %rbp, -16
	movq	%rsp, %rbp
	.cfi_def_cfa_register %rbp
	movq	%rdi, %rax
Ltmp67:
	.loc	2 85 37 prologue_end
	movl	$12, %ecx
	rep;movsq (%rsi), %es:(%rdi)
Ltmp68:
	.loc	2 85 44 is_stmt 0
	popq	%rbp
	retq
Ltmp69:
Lfunc_end29:
	.cfi_endproc

	.globl	__ZN79_$LT$libc..unix..bsd..apple..proc_taskallinfo$u20$as$u20$core..clone..Clone$GT$5clone17hedc9d7e2fd5693b6E
	.p2align	4, 0x90
__ZN79_$LT$libc..unix..bsd..apple..proc_taskallinfo$u20$as$u20$core..clone..Clone$GT$5clone17hedc9d7e2fd5693b6E:
Lfunc_begin30:
	.loc	2 85 0 is_stmt 1
	.cfi_startproc
	pushq	%rbp
	.cfi_def_cfa_offset 16
	.cfi_offset %rbp, -16
	movq	%rsp, %rbp
	.cfi_def_cfa_register %rbp
	pushq	%rbx
	pushq	%rax
	.cfi_offset %rbx, -24
	movq	%rdi, %rbx
Ltmp70:
	.loc	2 85 37 prologue_end
	movl	$232, %edx
	callq	_memcpy
Ltmp71:
	.loc	2 85 44 is_stmt 0
	movq	%rbx, %rax
	addq	$8, %rsp
	popq	%rbx
	popq	%rbp
	retq
Ltmp72:
Lfunc_end30:
	.cfi_endproc

	.globl	__ZN69_$LT$libc..unix..bsd..apple..xucred$u20$as$u20$core..clone..Clone$GT$5clone17hf889a681f627cef5E
	.p2align	4, 0x90
__ZN69_$LT$libc..unix..bsd..apple..xucred$u20$as$u20$core..clone..Clone$GT$5clone17hf889a681f627cef5E:
Lfunc_begin31:
	.loc	2 85 0 is_stmt 1
	.cfi_startproc
	pushq	%rbp
	.cfi_def_cfa_offset 16
	.cfi_offset %rbp, -16
	movq	%rsp, %rbp
	.cfi_def_cfa_register %rbp
	movq	%rdi, %rax
Ltmp73:
	.loc	2 85 37 prologue_end
	movl	$19, %ecx
	rep;movsl (%rsi), %es:(%rdi)
Ltmp74:
	.loc	2 85 44 is_stmt 0
	popq	%rbp
	retq
Ltmp75:
Lfunc_end31:
	.cfi_endproc

	.globl	__ZN74_$LT$libc..unix..bsd..apple..mach_header$u20$as$u20$core..clone..Clone$GT$5clone17h205f7801bf197ed9E
	.p2align	4, 0x90
__ZN74_$LT$libc..unix..bsd..apple..mach_header$u20$as$u20$core..clone..Clone$GT$5clone17h205f7801bf197ed9E:
Lfunc_begin32:
	.loc	2 85 0 is_stmt 1
	.cfi_startproc
	pushq	%rbp
	.cfi_def_cfa_offset 16
	.cfi_offset %rbp, -16
	movq	%rsp, %rbp
	.cfi_def_cfa_register %rbp
	movq	%rdi, %rax
Ltmp76:
	.loc	2 85 37 prologue_end
	movl	24(%rsi), %ecx
	movl	%ecx, 24(%rdi)
	movq	16(%rsi), %rcx
	movq	%rcx, 16(%rdi)
	movq	(%rsi), %rcx
	movq	8(%rsi), %rdx
	movq	%rdx, 8(%rdi)
	movq	%rcx, (%rdi)
	.loc	2 85 44 is_stmt 0
	popq	%rbp
	retq
Ltmp77:
Lfunc_end32:
	.cfi_endproc

	.globl	__ZN78_$LT$libc..unix..bsd..apple..segment_command$u20$as$u20$core..clone..Clone$GT$5clone17h87bb8a9c002be732E
	.p2align	4, 0x90
__ZN78_$LT$libc..unix..bsd..apple..segment_command$u20$as$u20$core..clone..Clone$GT$5clone17h87bb8a9c002be732E:
Lfunc_begin33:
	.loc	2 85 0 is_stmt 1
	.cfi_startproc
	pushq	%rbp
	.cfi_def_cfa_offset 16
	.cfi_offset %rbp, -16
	movq	%rsp, %rbp
	.cfi_def_cfa_register %rbp
	movq	%rdi, %rax
Ltmp78:
	.loc	2 85 37 prologue_end
	movq	48(%rsi), %rcx
	movq	%rcx, 48(%rdi)
	movq	40(%rsi), %rcx
	movq	%rcx, 40(%rdi)
	movq	32(%rsi), %rcx
	movq	%rcx, 32(%rdi)
	movq	24(%rsi), %rcx
	movq	%rcx, 24(%rdi)
	movq	16(%rsi), %rcx
	movq	%rcx, 16(%rdi)
	movq	(%rsi), %rcx
	movq	8(%rsi), %rdx
	movq	%rdx, 8(%rdi)
	movq	%rcx, (%rdi)
	.loc	2 85 44 is_stmt 0
	popq	%rbp
	retq
Ltmp79:
Lfunc_end33:
	.cfi_endproc

	.globl	__ZN74_$LT$libc..unix..bsd..apple..sockaddr_dl$u20$as$u20$core..clone..Clone$GT$5clone17hc61baf434eb71896E
	.p2align	4, 0x90
__ZN74_$LT$libc..unix..bsd..apple..sockaddr_dl$u20$as$u20$core..clone..Clone$GT$5clone17hc61baf434eb71896E:
Lfunc_begin34:
	.loc	2 85 0 is_stmt 1
	.cfi_startproc
	pushq	%rbp
	.cfi_def_cfa_offset 16
	.cfi_offset %rbp, -16
	movq	%rsp, %rbp
	.cfi_def_cfa_register %rbp
	movq	%rdi, %rax
Ltmp80:
	.loc	2 85 37 prologue_end
	movl	16(%rsi), %ecx
	movl	%ecx, 16(%rdi)
	movq	(%rsi), %rcx
	movq	8(%rsi), %rdx
	movq	%rdx, 8(%rdi)
	movq	%rcx, (%rdi)
	.loc	2 85 44 is_stmt 0
	popq	%rbp
	retq
Ltmp81:
Lfunc_end34:
	.cfi_endproc

	.globl	__ZN75_$LT$libc..unix..bsd..apple..sockaddr_ctl$u20$as$u20$core..clone..Clone$GT$5clone17h9afc7c879ff8878bE
	.p2align	4, 0x90
__ZN75_$LT$libc..unix..bsd..apple..sockaddr_ctl$u20$as$u20$core..clone..Clone$GT$5clone17h9afc7c879ff8878bE:
Lfunc_begin35:
	.loc	2 85 0 is_stmt 1
	.cfi_startproc
	pushq	%rbp
	.cfi_def_cfa_offset 16
	.cfi_offset %rbp, -16
	movq	%rsp, %rbp
	.cfi_def_cfa_register %rbp
	movq	%rdi, %rax
Ltmp82:
	.loc	2 85 37 prologue_end
	movq	24(%rsi), %rcx
	movq	%rcx, 24(%rdi)
	movq	16(%rsi), %rcx
	movq	%rcx, 16(%rdi)
	movq	(%rsi), %rcx
	movq	8(%rsi), %rdx
	movq	%rdx, 8(%rdi)
	movq	%rcx, (%rdi)
	.loc	2 85 44 is_stmt 0
	popq	%rbp
	retq
Ltmp83:
Lfunc_end35:
	.cfi_endproc

	.globl	__ZN71_$LT$libc..unix..bsd..apple..ipc_perm$u20$as$u20$core..clone..Clone$GT$5clone17he44b82099c65d44bE
	.p2align	4, 0x90
__ZN71_$LT$libc..unix..bsd..apple..ipc_perm$u20$as$u20$core..clone..Clone$GT$5clone17he44b82099c65d44bE:
Lfunc_begin36:
	.loc	2 85 0 is_stmt 1
	.cfi_startproc
	pushq	%rbp
	.cfi_def_cfa_offset 16
	.cfi_offset %rbp, -16
	movq	%rsp, %rbp
	.cfi_def_cfa_register %rbp
	movq	%rdi, %rax
Ltmp84:
	.loc	2 85 37 prologue_end
	movq	16(%rsi), %rcx
	movq	%rcx, 16(%rdi)
	movq	(%rsi), %rcx
	movq	8(%rsi), %rdx
	movq	%rdx, 8(%rdi)
	movq	%rcx, (%rdi)
	.loc	2 85 44 is_stmt 0
	popq	%rbp
	retq
Ltmp85:
Lfunc_end36:
	.cfi_endproc

	.globl	__ZN69_$LT$libc..unix..bsd..apple..sembuf$u20$as$u20$core..clone..Clone$GT$5clone17h9ceff49ef4b6177eE
	.p2align	4, 0x90
__ZN69_$LT$libc..unix..bsd..apple..sembuf$u20$as$u20$core..clone..Clone$GT$5clone17h9ceff49ef4b6177eE:
Lfunc_begin37:
	.loc	2 85 0 is_stmt 1
	.cfi_startproc
	pushq	%rbp
	.cfi_def_cfa_offset 16
	.cfi_offset %rbp, -16
	movq	%rsp, %rbp
	.cfi_def_cfa_register %rbp
Ltmp86:
	.loc	2 85 37 prologue_end
	movl	(%rdi), %ecx
	movzwl	4(%rdi), %eax
	shlq	$32, %rax
	orq	%rcx, %rax
	.loc	2 85 44 is_stmt 0
	popq	%rbp
	retq
Ltmp87:
Lfunc_end37:
	.cfi_endproc

	.globl	__ZN70_$LT$libc..unix..bsd..apple..in_addr$u20$as$u20$core..clone..Clone$GT$5clone17h3e71cbf2ef8c1f2bE
	.p2align	4, 0x90
__ZN70_$LT$libc..unix..bsd..apple..in_addr$u20$as$u20$core..clone..Clone$GT$5clone17h3e71cbf2ef8c1f2bE:
Lfunc_begin38:
	.loc	2 85 0 is_stmt 1
	.cfi_startproc
	pushq	%rbp
	.cfi_def_cfa_offset 16
	.cfi_offset %rbp, -16
	movq	%rsp, %rbp
	.cfi_def_cfa_register %rbp
Ltmp88:
	.loc	2 85 37 prologue_end
	movl	(%rdi), %eax
	.loc	2 85 44 is_stmt 0
	popq	%rbp
	retq
Ltmp89:
Lfunc_end38:
	.cfi_endproc

	.globl	__ZN77_$LT$libc..unix..bsd..apple..sa_endpoints_t$u20$as$u20$core..clone..Clone$GT$5clone17h0bfd0ac8a5c74c9bE
	.p2align	4, 0x90
__ZN77_$LT$libc..unix..bsd..apple..sa_endpoints_t$u20$as$u20$core..clone..Clone$GT$5clone17h0bfd0ac8a5c74c9bE:
Lfunc_begin39:
	.loc	2 85 0 is_stmt 1
	.cfi_startproc
	pushq	%rbp
	.cfi_def_cfa_offset 16
	.cfi_offset %rbp, -16
	movq	%rsp, %rbp
	.cfi_def_cfa_register %rbp
	movq	%rdi, %rax
Ltmp90:
	.loc	2 85 37 prologue_end
	movq	32(%rsi), %rcx
	movq	%rcx, 32(%rdi)
	movq	24(%rsi), %rcx
	movq	%rcx, 24(%rdi)
	movq	16(%rsi), %rcx
	movq	%rcx, 16(%rdi)
	movq	(%rsi), %rcx
	movq	8(%rsi), %rdx
	movq	%rdx, 8(%rdi)
	movq	%rcx, (%rdi)
	.loc	2 85 44 is_stmt 0
	popq	%rbp
	retq
Ltmp91:
Lfunc_end39:
	.cfi_endproc

	.globl	__ZN68_$LT$libc..unix..bsd..apple..timex$u20$as$u20$core..clone..Clone$GT$5clone17h4c50974921f9aa38E
	.p2align	4, 0x90
__ZN68_$LT$libc..unix..bsd..apple..timex$u20$as$u20$core..clone..Clone$GT$5clone17h4c50974921f9aa38E:
Lfunc_begin40:
	.loc	2 85 0 is_stmt 1
	.cfi_startproc
	pushq	%rbp
	.cfi_def_cfa_offset 16
	.cfi_offset %rbp, -16
	movq	%rsp, %rbp
	.cfi_def_cfa_register %rbp
	pushq	%rbx
	pushq	%rax
	.cfi_offset %rbx, -24
	movq	%rdi, %rbx
Ltmp92:
	.loc	2 85 37 prologue_end
	movl	$136, %edx
	callq	_memcpy
Ltmp93:
	.loc	2 85 44 is_stmt 0
	movq	%rbx, %rax
	addq	$8, %rsp
	popq	%rbx
	popq	%rbp
	retq
Ltmp94:
Lfunc_end40:
	.cfi_endproc

	.globl	__ZN69_$LT$libc..unix..bsd..apple..kevent$u20$as$u20$core..clone..Clone$GT$5clone17h08e7a0ac95b2fcd5E
	.p2align	4, 0x90
__ZN69_$LT$libc..unix..bsd..apple..kevent$u20$as$u20$core..clone..Clone$GT$5clone17h08e7a0ac95b2fcd5E:
Lfunc_begin41:
	.loc	2 119 0 is_stmt 1
	.cfi_startproc
	pushq	%rbp
	.cfi_def_cfa_offset 16
	.cfi_offset %rbp, -16
	movq	%rsp, %rbp
	.cfi_def_cfa_register %rbp
	movq	%rdi, %rax
Ltmp95:
	.loc	2 119 37 prologue_end
	movq	24(%rsi), %rcx
	movq	%rcx, 24(%rdi)
	movq	16(%rsi), %rcx
	movq	%rcx, 16(%rdi)
	movq	(%rsi), %rcx
	movq	8(%rsi), %rdx
	movq	%rdx, 8(%rdi)
	movq	%rcx, (%rdi)
	.loc	2 119 44 is_stmt 0
	popq	%rbp
	retq
Ltmp96:
Lfunc_end41:
	.cfi_endproc

	.globl	__ZN71_$LT$libc..unix..bsd..apple..semid_ds$u20$as$u20$core..clone..Clone$GT$5clone17h3535e74e4d3e1147E
	.p2align	4, 0x90
__ZN71_$LT$libc..unix..bsd..apple..semid_ds$u20$as$u20$core..clone..Clone$GT$5clone17h3535e74e4d3e1147E:
Lfunc_begin42:
	.loc	2 119 0 is_stmt 1
	.cfi_startproc
	pushq	%rbp
	.cfi_def_cfa_offset 16
	.cfi_offset %rbp, -16
	movq	%rsp, %rbp
	.cfi_def_cfa_register %rbp
	movq	%rdi, %rax
Ltmp97:
	.loc	2 119 37 prologue_end
	movl	$18, %ecx
	rep;movsl (%rsi), %es:(%rdi)
Ltmp98:
	.loc	2 119 44 is_stmt 0
	popq	%rbp
	retq
Ltmp99:
Lfunc_end42:
	.cfi_endproc

	.globl	__ZN78_$LT$libc..unix..bsd..apple..proc_threadinfo$u20$as$u20$core..clone..Clone$GT$5clone17h9af1f39ddecc6c13E
	.p2align	4, 0x90
__ZN78_$LT$libc..unix..bsd..apple..proc_threadinfo$u20$as$u20$core..clone..Clone$GT$5clone17h9af1f39ddecc6c13E:
Lfunc_begin43:
	.loc	2 119 0 is_stmt 1
	.cfi_startproc
	pushq	%rbp
	.cfi_def_cfa_offset 16
	.cfi_offset %rbp, -16
	movq	%rsp, %rbp
	.cfi_def_cfa_register %rbp
	movq	%rdi, %rax
Ltmp100:
	.loc	2 119 37 prologue_end
	movl	$14, %ecx
	rep;movsq (%rsi), %es:(%rdi)
Ltmp101:
	.loc	2 119 44 is_stmt 0
	popq	%rbp
	retq
Ltmp102:
Lfunc_end43:
	.cfi_endproc

	.globl	__ZN69_$LT$libc..unix..bsd..apple..statfs$u20$as$u20$core..clone..Clone$GT$5clone17he1e17743262452b3E
	.p2align	4, 0x90
__ZN69_$LT$libc..unix..bsd..apple..statfs$u20$as$u20$core..clone..Clone$GT$5clone17he1e17743262452b3E:
Lfunc_begin44:
	.loc	2 119 0 is_stmt 1
	.cfi_startproc
	pushq	%rbp
	.cfi_def_cfa_offset 16
	.cfi_offset %rbp, -16
	movq	%rsp, %rbp
	.cfi_def_cfa_register %rbp
	pushq	%rbx
	pushq	%rax
	.cfi_offset %rbx, -24
	movq	%rdi, %rbx
Ltmp103:
	.loc	2 119 37 prologue_end
	movl	$2168, %edx
	callq	_memcpy
Ltmp104:
	.loc	2 119 44 is_stmt 0
	movq	%rbx, %rax
	addq	$8, %rsp
	popq	%rbx
	popq	%rbp
	retq
Ltmp105:
Lfunc_end44:
	.cfi_endproc

	.globl	__ZN69_$LT$libc..unix..bsd..apple..dirent$u20$as$u20$core..clone..Clone$GT$5clone17h785d18e0b52558d2E
	.p2align	4, 0x90
__ZN69_$LT$libc..unix..bsd..apple..dirent$u20$as$u20$core..clone..Clone$GT$5clone17h785d18e0b52558d2E:
Lfunc_begin45:
	.loc	2 119 0 is_stmt 1
	.cfi_startproc
	pushq	%rbp
	.cfi_def_cfa_offset 16
	.cfi_offset %rbp, -16
	movq	%rsp, %rbp
	.cfi_def_cfa_register %rbp
	pushq	%rbx
	pushq	%rax
	.cfi_offset %rbx, -24
	movq	%rdi, %rbx
Ltmp106:
	.loc	2 119 37 prologue_end
	movl	$1048, %edx
	callq	_memcpy
Ltmp107:
	.loc	2 119 44 is_stmt 0
	movq	%rbx, %rax
	addq	$8, %rsp
	popq	%rbx
	popq	%rbp
	retq
Ltmp108:
Lfunc_end45:
	.cfi_endproc

	.globl	__ZN79_$LT$libc..unix..bsd..apple..pthread_rwlock_t$u20$as$u20$core..clone..Clone$GT$5clone17h5ff7c56190591564E
	.p2align	4, 0x90
__ZN79_$LT$libc..unix..bsd..apple..pthread_rwlock_t$u20$as$u20$core..clone..Clone$GT$5clone17h5ff7c56190591564E:
Lfunc_begin46:
	.loc	2 119 0 is_stmt 1
	.cfi_startproc
	pushq	%rbp
	.cfi_def_cfa_offset 16
	.cfi_offset %rbp, -16
	movq	%rsp, %rbp
	.cfi_def_cfa_register %rbp
	pushq	%rbx
	pushq	%rax
	.cfi_offset %rbx, -24
	movq	%rdi, %rbx
Ltmp109:
	.loc	2 119 37 prologue_end
	movl	$200, %edx
	callq	_memcpy
Ltmp110:
	.loc	2 119 44 is_stmt 0
	movq	%rbx, %rax
	addq	$8, %rsp
	popq	%rbx
	popq	%rbp
	retq
Ltmp111:
Lfunc_end46:
	.cfi_endproc

	.globl	__ZN79_$LT$libc..unix..bsd..apple..sockaddr_storage$u20$as$u20$core..clone..Clone$GT$5clone17h89adf0a8e88091a9E
	.p2align	4, 0x90
__ZN79_$LT$libc..unix..bsd..apple..sockaddr_storage$u20$as$u20$core..clone..Clone$GT$5clone17h89adf0a8e88091a9E:
Lfunc_begin47:
	.loc	2 119 0 is_stmt 1
	.cfi_startproc
	pushq	%rbp
	.cfi_def_cfa_offset 16
	.cfi_offset %rbp, -16
	movq	%rsp, %rbp
	.cfi_def_cfa_register %rbp
	movq	%rdi, %rax
Ltmp112:
	.loc	2 119 37 prologue_end
	movl	$16, %ecx
	rep;movsq (%rsi), %es:(%rdi)
Ltmp113:
	.loc	2 119 44 is_stmt 0
	popq	%rbp
	retq
Ltmp114:
Lfunc_end47:
	.cfi_endproc

	.globl	__ZN68_$LT$libc..unix..bsd..apple..utmpx$u20$as$u20$core..clone..Clone$GT$5clone17h10245f3289f0c43eE
	.p2align	4, 0x90
__ZN68_$LT$libc..unix..bsd..apple..utmpx$u20$as$u20$core..clone..Clone$GT$5clone17h10245f3289f0c43eE:
Lfunc_begin48:
	.loc	2 119 0 is_stmt 1
	.cfi_startproc
	pushq	%rbp
	.cfi_def_cfa_offset 16
	.cfi_offset %rbp, -16
	movq	%rsp, %rbp
	.cfi_def_cfa_register %rbp
	pushq	%rbx
	pushq	%rax
	.cfi_offset %rbx, -24
	movq	%rdi, %rbx
Ltmp115:
	.loc	2 119 37 prologue_end
	movl	$640, %edx
	callq	_memcpy
Ltmp116:
	.loc	2 119 44 is_stmt 0
	movq	%rbx, %rax
	addq	$8, %rsp
	popq	%rbx
	popq	%rbp
	retq
Ltmp117:
Lfunc_end48:
	.cfi_endproc

	.globl	__ZN4libc4unix3bsd5apple16__DARWIN_ALIGN3217he713048dc99c853eE
	.p2align	4, 0x90
__ZN4libc4unix3bsd5apple16__DARWIN_ALIGN3217he713048dc99c853eE:
Lfunc_begin49:
	.loc	3 3188 0 is_stmt 1
	.cfi_startproc
	movq	%rdi, %rax
Ltmp118:
	.loc	3 3190 13 prologue_end
	addq	$3, %rax
Ltmp119:
	jb	LBB49_2
	andq	$-4, %rax
	.loc	3 3191 10
	retq
LBB49_2:
	pushq	%rbp
	.cfi_def_cfa_offset 16
	.cfi_offset %rbp, -16
	movq	%rsp, %rbp
	.cfi_def_cfa_register %rbp
	.loc	3 3190 13
	leaq	_str.0(%rip), %rdi
	leaq	l___unnamed_1(%rip), %rdx
	movl	$28, %esi
	callq	__ZN4core9panicking5panic17h736ee47a631475c0E
Ltmp120:
Lfunc_end49:
	.cfi_endproc

	.globl	__ZN75_$LT$libc..unix..bsd..apple..b64..if_data$u20$as$u20$core..clone..Clone$GT$5clone17hfd86b19572d3ec41E
	.p2align	4, 0x90
__ZN75_$LT$libc..unix..bsd..apple..b64..if_data$u20$as$u20$core..clone..Clone$GT$5clone17hfd86b19572d3ec41E:
Lfunc_begin50:
	.loc	2 85 0
	.cfi_startproc
	pushq	%rbp
	.cfi_def_cfa_offset 16
	.cfi_offset %rbp, -16
	movq	%rsp, %rbp
	.cfi_def_cfa_register %rbp
	movq	%rdi, %rax
Ltmp121:
	.loc	2 85 37 prologue_end
	movl	$24, %ecx
	rep;movsl (%rsi), %es:(%rdi)
Ltmp122:
	.loc	2 85 44 is_stmt 0
	popq	%rbp
	retq
Ltmp123:
Lfunc_end50:
	.cfi_endproc

	.globl	__ZN87_$LT$libc..unix..bsd..apple..b64..__darwin_mcontext64$u20$as$u20$core..clone..Clone$GT$5clone17hc22c58158650fed7E
	.p2align	4, 0x90
__ZN87_$LT$libc..unix..bsd..apple..b64..__darwin_mcontext64$u20$as$u20$core..clone..Clone$GT$5clone17hc22c58158650fed7E:
Lfunc_begin51:
	.loc	2 85 0 is_stmt 1
	.cfi_startproc
	pushq	%rbp
	.cfi_def_cfa_offset 16
	.cfi_offset %rbp, -16
	movq	%rsp, %rbp
	.cfi_def_cfa_register %rbp
	pushq	%rbx
	pushq	%rax
	.cfi_offset %rbx, -24
	movq	%rdi, %rbx
Ltmp124:
	.loc	2 85 37 prologue_end
	movl	$712, %edx
	callq	_memcpy
Ltmp125:
	.loc	2 85 44 is_stmt 0
	movq	%rbx, %rax
	addq	$8, %rsp
	popq	%rbx
	popq	%rbp
	retq
Ltmp126:
Lfunc_end51:
	.cfi_endproc

	.globl	__ZN95_$LT$libc..unix..bsd..apple..b64..__darwin_x86_thread_state64$u20$as$u20$core..clone..Clone$GT$5clone17hb892fff0a01e1893E
	.p2align	4, 0x90
__ZN95_$LT$libc..unix..bsd..apple..b64..__darwin_x86_thread_state64$u20$as$u20$core..clone..Clone$GT$5clone17hb892fff0a01e1893E:
Lfunc_begin52:
	.loc	2 85 0 is_stmt 1
	.cfi_startproc
	pushq	%rbp
	.cfi_def_cfa_offset 16
	.cfi_offset %rbp, -16
	movq	%rsp, %rbp
	.cfi_def_cfa_register %rbp
	pushq	%rbx
	pushq	%rax
	.cfi_offset %rbx, -24
	movq	%rdi, %rbx
Ltmp127:
	.loc	2 85 37 prologue_end
	movl	$168, %edx
	callq	_memcpy
Ltmp128:
	.loc	2 85 44 is_stmt 0
	movq	%rbx, %rax
	addq	$8, %rsp
	popq	%rbx
	popq	%rbp
	retq
Ltmp129:
Lfunc_end52:
	.cfi_endproc

	.globl	__ZN94_$LT$libc..unix..bsd..apple..b64..__darwin_x86_float_state64$u20$as$u20$core..clone..Clone$GT$5clone17hf34fa4ef94b01a03E
	.p2align	4, 0x90
__ZN94_$LT$libc..unix..bsd..apple..b64..__darwin_x86_float_state64$u20$as$u20$core..clone..Clone$GT$5clone17hf34fa4ef94b01a03E:
Lfunc_begin53:
	.loc	2 85 0 is_stmt 1
	.cfi_startproc
	pushq	%rbp
	.cfi_def_cfa_offset 16
	.cfi_offset %rbp, -16
	movq	%rsp, %rbp
	.cfi_def_cfa_register %rbp
	pushq	%rbx
	pushq	%rax
	.cfi_offset %rbx, -24
	movq	%rdi, %rbx
Ltmp130:
	.loc	2 85 37 prologue_end
	movl	$524, %edx
	callq	_memcpy
Ltmp131:
	.loc	2 85 44 is_stmt 0
	movq	%rbx, %rax
	addq	$8, %rsp
	popq	%rbx
	popq	%rbp
	retq
Ltmp132:
Lfunc_end53:
	.cfi_endproc

	.globl	__ZN86_$LT$libc..unix..bsd..apple..b64..align..max_align_t$u20$as$u20$core..clone..Clone$GT$5clone17h44f197b7ae8a8fbeE
	.p2align	4, 0x90
__ZN86_$LT$libc..unix..bsd..apple..b64..align..max_align_t$u20$as$u20$core..clone..Clone$GT$5clone17h44f197b7ae8a8fbeE:
Lfunc_begin54:
	.loc	2 119 0 is_stmt 1
	.cfi_startproc
	pushq	%rbp
	.cfi_def_cfa_offset 16
	.cfi_offset %rbp, -16
	movq	%rsp, %rbp
	.cfi_def_cfa_register %rbp
	movq	%rdi, %rax
Ltmp133:
	.loc	2 119 37 prologue_end
	movaps	(%rsi), %xmm0
	movaps	%xmm0, (%rdi)
	.loc	2 119 44 is_stmt 0
	popq	%rbp
	retq
Ltmp134:
Lfunc_end54:
	.cfi_endproc

	.globl	__ZN66_$LT$libc..unix..align..in6_addr$u20$as$u20$core..clone..Clone$GT$5clone17h236a532b5d9fc814E
	.p2align	4, 0x90
__ZN66_$LT$libc..unix..align..in6_addr$u20$as$u20$core..clone..Clone$GT$5clone17h236a532b5d9fc814E:
Lfunc_begin55:
	.loc	2 85 0 is_stmt 1
	.cfi_startproc
	pushq	%rbp
	.cfi_def_cfa_offset 16
	.cfi_offset %rbp, -16
	movq	%rsp, %rbp
	.cfi_def_cfa_register %rbp
	movq	%rdi, %rax
Ltmp135:
	.loc	2 85 37 prologue_end
	movq	(%rsi), %rcx
	movq	8(%rsi), %rdx
	movq	%rdx, 8(%rdi)
	movq	%rcx, (%rdi)
	.loc	2 85 44 is_stmt 0
	popq	%rbp
	retq
Ltmp136:
Lfunc_end55:
	.cfi_endproc

	.section	__TEXT,__const
l___unnamed_2:
	.ascii	"/Users/yingyuhang/.cargo/registry/src/github.com-1ecc6299db9ec823/libc-0.2.71/src/unix/bsd/apple/mod.rs"

	.section	__DATA,__const
	.p2align	3
l___unnamed_1:
	.quad	l___unnamed_2
	.asciz	"g\000\000\000\000\000\000\000v\f\000\000\r\000\000"

	.section	__TEXT,__const
	.p2align	4
_str.0:
	.ascii	"attempt to add with overflow"

	.section	__TEXT,__text,regular,pure_instructions
Lsec_end0: