	.section	__TEXT,__text,regular,pure_instructions
	.macosx_version_min 10, 7
	.p2align	4, 0x90
__ZN42_$LT$$RF$T$u20$as$u20$core..fmt..Debug$GT$3fmt17h09f5777626b45126E:
Lfunc_begin0:
	.file	1 "/rustc/6c8927b0cf80ceee19386026cf9d7fd4fd9d486f/src/libcore/fmt/mod.rs"
	.loc	1 2022 0
	.cfi_startproc
	pushq	%rbp
	.cfi_def_cfa_offset 16
	.cfi_offset %rbp, -16
	movq	%rsp, %rbp
	.cfi_def_cfa_register %rbp
Ltmp0:
	pushq	%rbx
	subq	$24, %rsp
	.cfi_offset %rbx, -24
	.loc	1 2022 71 prologue_end
	movq	(%rdi), %rax
Ltmp1:
	.file	2 "/Users/yingyuhang/.cargo/registry/src/github.com-1ecc6299db9ec823/miniz_oxide-0.4.0/src/lib.rs"
	.loc	2 82 10
	movl	(%rax), %eax
Ltmp2:
	testl	%eax, %eax
	je	LBB0_3
Ltmp3:
	cmpl	$1, %eax
	je	LBB0_4
Ltmp4:
	leaq	L___unnamed_5(%rip), %rdx
	leaq	-32(%rbp), %rbx
	movl	$8, %ecx
	jmp	LBB0_5
Ltmp5:
LBB0_3:
	leaq	l___unnamed_6(%rip), %rdx
	leaq	-32(%rbp), %rbx
	movl	$2, %ecx
	jmp	LBB0_5
Ltmp6:
LBB0_4:
	leaq	l___unnamed_7(%rip), %rdx
	leaq	-32(%rbp), %rbx
	movl	$9, %ecx
Ltmp7:
LBB0_5:
	movq	%rbx, %rdi
Ltmp8:
	callq	__ZN4core3fmt9Formatter11debug_tuple17h6c448643801d07e8E
Ltmp9:
	.loc	2 0 0 is_stmt 0
	movq	%rbx, %rdi
	callq	__ZN4core3fmt8builders10DebugTuple6finish17h9f206806f7096c33E
Ltmp10:
	.loc	1 2022 84 is_stmt 1
	addq	$24, %rsp
	popq	%rbx
	popq	%rbp
	retq
Ltmp11:
Lfunc_end0:
	.cfi_endproc

	.p2align	4, 0x90
__ZN42_$LT$$RF$T$u20$as$u20$core..fmt..Debug$GT$3fmt17h93a796d65d1d6834E:
Lfunc_begin1:
	.loc	1 2022 0
	.cfi_startproc
	pushq	%rbp
	.cfi_def_cfa_offset 16
	.cfi_offset %rbp, -16
	movq	%rsp, %rbp
	.cfi_def_cfa_register %rbp
	pushq	%r14
	pushq	%rbx
	.cfi_offset %rbx, -32
	.cfi_offset %r14, -24
	movq	%rsi, %rbx
Ltmp12:
	.loc	1 2022 71 prologue_end
	movq	(%rdi), %r14
Ltmp13:
	.file	3 "/rustc/6c8927b0cf80ceee19386026cf9d7fd4fd9d486f/src/libcore/fmt/num.rs"
	.loc	3 149 20
	movq	%rsi, %rdi
Ltmp14:
	callq	__ZN4core3fmt9Formatter15debug_lower_hex17hd07f6fde8d0365dfE
	.loc	3 149 17 is_stmt 0
	testb	%al, %al
	je	LBB1_1
Ltmp15:
	.loc	3 150 21 is_stmt 1
	movq	%r14, %rdi
	movq	%rbx, %rsi
	popq	%rbx
Ltmp16:
	popq	%r14
Ltmp17:
	popq	%rbp
	jmp	__ZN4core3fmt3num53_$LT$impl$u20$core..fmt..LowerHex$u20$for$u20$u32$GT$3fmt17h019ba2b9dd60d385E
LBB1_1:
Ltmp18:
	.loc	3 151 27
	movq	%rbx, %rdi
	callq	__ZN4core3fmt9Formatter15debug_upper_hex17hf480c256a9c81c1eE
	.loc	3 154 21
	movq	%r14, %rdi
	movq	%rbx, %rsi
	.loc	3 151 24
	testb	%al, %al
	je	LBB1_4
Ltmp19:
	.loc	3 152 21
	popq	%rbx
Ltmp20:
	popq	%r14
Ltmp21:
	popq	%rbp
	jmp	__ZN4core3fmt3num53_$LT$impl$u20$core..fmt..UpperHex$u20$for$u20$u32$GT$3fmt17h7bd10b5f3c9584f1E
LBB1_4:
Ltmp22:
	.loc	3 154 21
	popq	%rbx
Ltmp23:
	popq	%r14
Ltmp24:
	popq	%rbp
	jmp	__ZN4core3fmt3num3imp52_$LT$impl$u20$core..fmt..Display$u20$for$u20$u32$GT$3fmt17hb70882cf65fd1a66E
Ltmp25:
Lfunc_end1:
	.cfi_endproc

	.p2align	4, 0x90
__ZN42_$LT$$RF$T$u20$as$u20$core..fmt..Debug$GT$3fmt17hba288db9807855bfE:
Lfunc_begin2:
	.loc	1 2022 0
	.cfi_startproc
	pushq	%rbp
	.cfi_def_cfa_offset 16
	.cfi_offset %rbp, -16
	movq	%rsp, %rbp
	.cfi_def_cfa_register %rbp
	pushq	%r14
	pushq	%rbx
	.cfi_offset %rbx, -32
	.cfi_offset %r14, -24
	movq	%rsi, %rbx
Ltmp26:
	.loc	1 2022 71 prologue_end
	movq	(%rdi), %r14
Ltmp27:
	.loc	3 149 20
	movq	%rsi, %rdi
Ltmp28:
	callq	__ZN4core3fmt9Formatter15debug_lower_hex17hd07f6fde8d0365dfE
	.loc	3 149 17 is_stmt 0
	testb	%al, %al
	je	LBB2_1
Ltmp29:
	.loc	3 150 21 is_stmt 1
	movq	%r14, %rdi
	movq	%rbx, %rsi
	popq	%rbx
Ltmp30:
	popq	%r14
Ltmp31:
	popq	%rbp
	jmp	__ZN4core3fmt3num55_$LT$impl$u20$core..fmt..LowerHex$u20$for$u20$usize$GT$3fmt17hc47c170655f2f8b1E
LBB2_1:
Ltmp32:
	.loc	3 151 27
	movq	%rbx, %rdi
	callq	__ZN4core3fmt9Formatter15debug_upper_hex17hf480c256a9c81c1eE
	.loc	3 154 21
	movq	%r14, %rdi
	movq	%rbx, %rsi
	.loc	3 151 24
	testb	%al, %al
	je	LBB2_4
Ltmp33:
	.loc	3 152 21
	popq	%rbx
Ltmp34:
	popq	%r14
Ltmp35:
	popq	%rbp
	jmp	__ZN4core3fmt3num55_$LT$impl$u20$core..fmt..UpperHex$u20$for$u20$usize$GT$3fmt17he5a77a1ce12f6c22E
LBB2_4:
Ltmp36:
	.loc	3 154 21
	popq	%rbx
Ltmp37:
	popq	%r14
Ltmp38:
	popq	%rbp
	jmp	__ZN4core3fmt3num3imp54_$LT$impl$u20$core..fmt..Display$u20$for$u20$usize$GT$3fmt17h12ea2856299c9b06E
Ltmp39:
Lfunc_end2:
	.cfi_endproc

	.p2align	4, 0x90
__ZN42_$LT$$RF$T$u20$as$u20$core..fmt..Debug$GT$3fmt17hbcc024143c819db2E:
Lfunc_begin3:
	.loc	1 2022 0
	.cfi_startproc
	pushq	%rbp
	.cfi_def_cfa_offset 16
	.cfi_offset %rbp, -16
	movq	%rsp, %rbp
	.cfi_def_cfa_register %rbp
Ltmp40:
	.loc	1 2022 71 prologue_end
	movq	(%rdi), %rdi
Ltmp41:
	.loc	1 2022 62 is_stmt 0
	popq	%rbp
	jmp	__ZN57_$LT$miniz_oxide..MZError$u20$as$u20$core..fmt..Debug$GT$3fmt17h12215d6c7bbd7582E
Ltmp42:
Lfunc_end3:
	.cfi_endproc

	.p2align	4, 0x90
__ZN42_$LT$$RF$T$u20$as$u20$core..fmt..Debug$GT$3fmt17hfa66c2073a402e27E:
Lfunc_begin4:
	.loc	1 2022 0 is_stmt 1
	.cfi_startproc
	pushq	%rbp
	.cfi_def_cfa_offset 16
	.cfi_offset %rbp, -16
	movq	%rsp, %rbp
	.cfi_def_cfa_register %rbp
Ltmp43:
	pushq	%r14
	pushq	%rbx
	subq	$32, %rsp
	.cfi_offset %rbx, -32
	.cfi_offset %r14, -24
	.loc	1 2022 71 prologue_end
	movq	(%rdi), %rax
Ltmp44:
	.file	4 "/rustc/6c8927b0cf80ceee19386026cf9d7fd4fd9d486f/src/libcore/result.rs"
	.loc	4 243 48
	cmpl	$1, (%rax)
	.loc	4 0 0 is_stmt 0
	leaq	4(%rax), %rbx
	.loc	4 243 48
	jne	LBB4_2
Ltmp45:
	.loc	4 243 48
	leaq	l___unnamed_8(%rip), %rdx
	leaq	-48(%rbp), %r14
	movl	$3, %ecx
	movq	%r14, %rdi
Ltmp46:
	callq	__ZN4core3fmt9Formatter11debug_tuple17h6c448643801d07e8E
Ltmp47:
	.loc	4 254 55 is_stmt 1
	movq	%rbx, -24(%rbp)
	.loc	4 243 48
	leaq	l___unnamed_1(%rip), %rdx
	jmp	LBB4_3
Ltmp48:
LBB4_2:
	.loc	4 243 48 is_stmt 0
	leaq	l___unnamed_6(%rip), %rdx
	leaq	-48(%rbp), %r14
	movl	$2, %ecx
	movq	%r14, %rdi
Ltmp49:
	callq	__ZN4core3fmt9Formatter11debug_tuple17h6c448643801d07e8E
Ltmp50:
	.loc	4 250 54 is_stmt 1
	movq	%rbx, -24(%rbp)
	.loc	4 243 48
	leaq	l___unnamed_2(%rip), %rdx
Ltmp51:
LBB4_3:
	.loc	4 0 48 is_stmt 0
	leaq	-24(%rbp), %rsi
	movq	%r14, %rdi
	callq	__ZN4core3fmt8builders10DebugTuple5field17hc7b676d0e36b51d9E
	movq	%r14, %rdi
	callq	__ZN4core3fmt8builders10DebugTuple6finish17h9f206806f7096c33E
Ltmp52:
	.loc	1 2022 84 is_stmt 1
	addq	$32, %rsp
	popq	%rbx
	popq	%r14
	popq	%rbp
	retq
Ltmp53:
Lfunc_end4:
	.cfi_endproc

	.p2align	4, 0x90
__ZN4core3ptr13drop_in_place17h01241dc6e9107b4aE:
Lfunc_begin5:
	.file	5 "/rustc/6c8927b0cf80ceee19386026cf9d7fd4fd9d486f/src/libcore/ptr/mod.rs"
	.loc	5 184 0
	.cfi_startproc
	pushq	%rbp
	.cfi_def_cfa_offset 16
	.cfi_offset %rbp, -16
	movq	%rsp, %rbp
	.cfi_def_cfa_register %rbp
Ltmp54:
	.loc	5 184 1 prologue_end
	popq	%rbp
	retq
Ltmp55:
Lfunc_end5:
	.cfi_endproc

	.p2align	4, 0x90
__ZN4core3ptr13drop_in_place17h152fe8e2863922a5E:
Lfunc_begin6:
	.loc	5 184 0
	.cfi_startproc
	pushq	%rbp
	.cfi_def_cfa_offset 16
	.cfi_offset %rbp, -16
	movq	%rsp, %rbp
	.cfi_def_cfa_register %rbp
Ltmp56:
	.loc	5 184 1 prologue_end
	movq	(%rdi), %rdi
Ltmp57:
	.file	6 "/rustc/6c8927b0cf80ceee19386026cf9d7fd4fd9d486f/src/liballoc/alloc.rs"
	.loc	6 102 14
	movl	$10992, %esi
	movl	$8, %edx
	popq	%rbp
	jmp	___rust_dealloc
Ltmp58:
Lfunc_end6:
	.cfi_endproc

	.p2align	4, 0x90
__ZN4core3ptr13drop_in_place17hbb32f9741898ae40E:
Lfunc_begin7:
	.loc	5 184 0
	.cfi_startproc
	pushq	%rbp
	.cfi_def_cfa_offset 16
	.cfi_offset %rbp, -16
	movq	%rsp, %rbp
	.cfi_def_cfa_register %rbp
	pushq	%rbx
	pushq	%rax
	.cfi_offset %rbx, -24
	movq	%rdi, %rbx
Ltmp59:
	.loc	5 184 1 prologue_end
	movq	65576(%rdi), %rdi
Ltmp60:
	.loc	6 102 14
	movl	$85196, %esi
	movl	$1, %edx
	callq	___rust_dealloc
Ltmp61:
	.loc	5 184 1
	movq	65632(%rbx), %rdi
Ltmp62:
	.loc	6 102 14
	movl	$4320, %esi
	movl	$2, %edx
	callq	___rust_dealloc
Ltmp63:
	.loc	5 184 1
	movq	65640(%rbx), %rdi
Ltmp64:
	.loc	6 102 14
	movl	$164098, %esi
	movl	$2, %edx
	addq	$8, %rsp
	popq	%rbx
Ltmp65:
	popq	%rbp
	jmp	___rust_dealloc
Ltmp66:
Lfunc_end7:
	.cfi_endproc

	.p2align	4, 0x90
__ZN4core3ptr13drop_in_place17hf9b9b9babd35bf8bE:
Lfunc_begin8:
	.loc	5 184 0
	.cfi_startproc
	pushq	%rbp
	.cfi_def_cfa_offset 16
	.cfi_offset %rbp, -16
	movq	%rsp, %rbp
	.cfi_def_cfa_register %rbp
	movq	%rdi, %rax
Ltmp67:
	.loc	5 184 1 prologue_end
	movq	(%rdi), %rdi
Ltmp68:
	.file	7 "/rustc/6c8927b0cf80ceee19386026cf9d7fd4fd9d486f/src/liballoc/raw_vec.rs"
	.loc	7 507 16
	testq	%rdi, %rdi
Ltmp69:
	.loc	7 235 9
	je	LBB8_2
Ltmp70:
	.loc	5 0 0 is_stmt 0
	movq	8(%rax), %rsi
Ltmp71:
	.loc	7 235 9
	testq	%rsi, %rsi
	je	LBB8_2
Ltmp72:
	.loc	6 102 14 is_stmt 1
	movl	$1, %edx
	popq	%rbp
	jmp	___rust_dealloc
Ltmp73:
LBB8_2:
	.loc	5 184 1
	popq	%rbp
	retq
Ltmp74:
Lfunc_end8:
	.cfi_endproc

	.p2align	4, 0x90
__ZN5alloc3vec12Vec$LT$T$GT$6resize17h72f93c8b6eee8e91E:
Lfunc_begin9:
	.file	8 "/rustc/6c8927b0cf80ceee19386026cf9d7fd4fd9d486f/src/liballoc/vec.rs"
	.loc	8 1558 0
	.cfi_startproc
	pushq	%rbp
	.cfi_def_cfa_offset 16
	.cfi_offset %rbp, -16
	movq	%rsp, %rbp
	.cfi_def_cfa_register %rbp
	pushq	%r15
	pushq	%r14
	pushq	%r13
	pushq	%r12
	pushq	%rbx
	pushq	%rax
	.cfi_offset %rbx, -56
	.cfi_offset %r12, -48
	.cfi_offset %r13, -40
	.cfi_offset %r14, -32
	.cfi_offset %r15, -24
	movq	%rsi, %r12
	movq	%rdi, %r13
Ltmp75:
	.loc	8 1559 19 prologue_end
	movq	16(%rdi), %rbx
Ltmp76:
	.loc	8 1561 12
	cmpq	%rsi, %rbx
	.loc	8 1561 9 is_stmt 0
	jae	LBB9_1
Ltmp77:
	.loc	8 1562 30 is_stmt 1
	movq	%r12, %rdx
	subq	%rbx, %rdx
Ltmp78:
	.loc	7 309 12
	movq	8(%r13), %rsi
Ltmp79:
	.file	9 "/rustc/6c8927b0cf80ceee19386026cf9d7fd4fd9d486f/src/libcore/num/mod.rs"
	.loc	9 3462 17
	movq	%rsi, %rax
	subq	%rbx, %rax
Ltmp80:
	.loc	7 373 9
	cmpq	%rdx, %rax
Ltmp81:
	.loc	7 309 9
	jae	LBB9_3
Ltmp82:
	.loc	9 3751 30
	movq	%rbx, %rax
	addq	%rdx, %rax
Ltmp83:
	.file	10 "/rustc/6c8927b0cf80ceee19386026cf9d7fd4fd9d486f/src/libcore/option.rs"
	.loc	10 538 13
	jb	LBB9_15
Ltmp84:
	.loc	7 408 28
	leaq	(%rsi,%rsi), %rcx
Ltmp85:
	.file	11 "/rustc/6c8927b0cf80ceee19386026cf9d7fd4fd9d486f/src/libcore/cmp.rs"
	.loc	11 1016 9
	cmpq	%rax, %rcx
	.loc	11 0 0 is_stmt 0
	cmovaq	%rcx, %rax
Ltmp86:
	cmpq	$8, %rax
	movl	$8, %edi
	cmovaq	%rax, %rdi
Ltmp87:
	.loc	7 235 40 is_stmt 1
	testq	%rsi, %rsi
	movq	%rdi, -48(%rbp)
	.loc	7 235 9 is_stmt 0
	je	LBB9_9
Ltmp88:
	.loc	7 429 46 is_stmt 1
	movq	(%r13), %r15
Ltmp89:
	.loc	7 493 25
	testq	%r15, %r15
	je	LBB9_9
Ltmp90:
	.loc	6 205 12
	cmpq	%rdi, %rsi
	.loc	6 205 9 is_stmt 0
	je	LBB9_13
Ltmp91:
	.loc	6 0 9
	movq	%rdx, %r14
Ltmp92:
	.loc	6 124 14 is_stmt 1
	movl	$1, %edx
Ltmp93:
	movq	%r15, %rdi
Ltmp94:
	.loc	6 0 14 is_stmt 0
	movq	-48(%rbp), %rcx
	.loc	6 124 14
	callq	___rust_realloc
Ltmp95:
	.loc	6 0 14
	jmp	LBB9_12
Ltmp96:
LBB9_1:
	movq	%r12, %r14
Ltmp97:
	jmp	LBB9_19
Ltmp98:
LBB9_3:
	.loc	8 854 19 is_stmt 1
	movq	(%r13), %r15
Ltmp99:
	.loc	8 1682 49
	movq	%rbx, %r14
Ltmp100:
	.file	12 "/rustc/6c8927b0cf80ceee19386026cf9d7fd4fd9d486f/src/libcore/ptr/mut_ptr.rs"
	.loc	12 165 18
	leaq	(%r15,%r14), %rdi
Ltmp101:
	.loc	11 1136 52
	cmpq	$2, %rdx
Ltmp102:
	.file	13 "/rustc/6c8927b0cf80ceee19386026cf9d7fd4fd9d486f/src/libcore/iter/range.rs"
	.loc	13 505 9
	jb	LBB9_17
Ltmp103:
LBB9_5:
	leaq	-1(%rdx), %rsi
	movq	%rdx, -48(%rbp)
Ltmp104:
	.loc	5 901 51
	callq	___bzero
Ltmp105:
	.loc	13 505 9
	addq	%r14, %r12
Ltmp106:
	notq	%rbx
Ltmp107:
	addq	%r12, %rbx
Ltmp108:
	addq	%rbx, %r15
	movq	-48(%rbp), %rax
Ltmp109:
	leaq	-1(%rax,%r14), %r14
Ltmp110:
	.loc	13 0 9 is_stmt 0
	movq	%r15, %rdi
	jmp	LBB9_18
Ltmp111:
LBB9_9:
	.loc	6 80 14 is_stmt 1
	movl	$1, %esi
Ltmp112:
	.loc	6 0 14 is_stmt 0
	movq	%rdx, %r14
Ltmp113:
	.loc	6 80 14
	callq	___rust_alloc
Ltmp114:
LBB9_12:
	.loc	6 0 14
	movq	%r14, %rdx
	movq	%rax, %r15
Ltmp115:
LBB9_13:
	.loc	4 611 13 is_stmt 1
	testq	%r15, %r15
	je	LBB9_16
Ltmp116:
	.loc	7 382 9
	movq	%r15, (%r13)
	movq	-48(%rbp), %rax
Ltmp117:
	.loc	7 383 9
	movq	%rax, 8(%r13)
Ltmp118:
	.loc	8 1682 49
	movq	16(%r13), %r14
Ltmp119:
	.loc	12 165 18
	leaq	(%r15,%r14), %rdi
Ltmp120:
	.loc	11 1136 52
	cmpq	$2, %rdx
Ltmp121:
	.loc	13 505 9
	jae	LBB9_5
Ltmp122:
LBB9_17:
	.loc	8 1696 16
	testq	%rdx, %rdx
	.loc	8 1696 13 is_stmt 0
	je	LBB9_19
Ltmp123:
LBB9_18:
	.loc	5 901 51 is_stmt 1
	movb	$0, (%rdi)
Ltmp124:
	.loc	8 1725 9
	incq	%r14
Ltmp125:
LBB9_19:
	.loc	8 0 0 is_stmt 0
	movq	%r14, 16(%r13)
Ltmp126:
	.loc	8 1566 6 is_stmt 1
	addq	$8, %rsp
	popq	%rbx
	popq	%r12
	popq	%r13
Ltmp127:
	popq	%r14
	popq	%r15
	popq	%rbp
	retq
Ltmp128:
LBB9_15:
	.loc	7 301 38
	callq	__ZN5alloc7raw_vec17capacity_overflow17h7526b10e27579d59E
Ltmp129:
LBB9_16:
	.loc	7 302 47
	movl	$1, %esi
	movq	-48(%rbp), %rdi
	callq	__ZN5alloc5alloc18handle_alloc_error17h28974197717b8939E
Ltmp130:
Lfunc_end9:
	.cfi_endproc
	.file	14 "/rustc/6c8927b0cf80ceee19386026cf9d7fd4fd9d486f/src/libcore/macros/mod.rs"

	.globl	__ZN84_$LT$miniz_oxide..deflate..buffer..HashBuffers$u20$as$u20$core..default..Default$GT$7default17h902ceaf8ba5493b4E
	.p2align	4, 0x90
__ZN84_$LT$miniz_oxide..deflate..buffer..HashBuffers$u20$as$u20$core..default..Default$GT$7default17h902ceaf8ba5493b4E:
Lfunc_begin10:
	.file	15 "/Users/yingyuhang/.cargo/registry/src/github.com-1ecc6299db9ec823/miniz_oxide-0.4.0/src/deflate/buffer.rs"
	.loc	15 38 0
	.cfi_startproc
	pushq	%rbp
	.cfi_def_cfa_offset 16
	.cfi_offset %rbp, -16
	movq	%rsp, %rbp
	.cfi_def_cfa_register %rbp
	pushq	%rbx
	pushq	%rax
	.cfi_offset %rbx, -24
	movq	%rdi, %rbx
Ltmp131:
	.loc	15 41 19 prologue_end
	movl	$65536, %esi
	callq	___bzero
	.loc	15 39 9
	movq	%rbx, %rdi
	addq	$65536, %rdi
	movl	$98562, %esi
	callq	___bzero
	.loc	15 44 6
	movq	%rbx, %rax
	addq	$8, %rsp
	popq	%rbx
	popq	%rbp
	retq
Ltmp132:
Lfunc_end10:
	.cfi_endproc

	.globl	__ZN81_$LT$miniz_oxide..deflate..buffer..LocalBuf$u20$as$u20$core..default..Default$GT$7default17h1df5ce669f0c4fc1E
	.p2align	4, 0x90
__ZN81_$LT$miniz_oxide..deflate..buffer..LocalBuf$u20$as$u20$core..default..Default$GT$7default17h1df5ce669f0c4fc1E:
Lfunc_begin11:
	.loc	15 52 0
	.cfi_startproc
	pushq	%rbp
	.cfi_def_cfa_offset 16
	.cfi_offset %rbp, -16
	movq	%rsp, %rbp
	.cfi_def_cfa_register %rbp
	pushq	%rbx
	pushq	%rax
	.cfi_offset %rbx, -24
	movq	%rdi, %rbx
Ltmp133:
	.loc	15 54 16 prologue_end
	movl	$85196, %esi
	callq	___bzero
	.loc	15 56 6
	movq	%rbx, %rax
	addq	$8, %rsp
	popq	%rbx
	popq	%rbp
	retq
Ltmp134:
Lfunc_end11:
	.cfi_endproc

	.globl	__ZN106_$LT$miniz_oxide..deflate..core..TDEFLFlush$u20$as$u20$core..convert..From$LT$miniz_oxide..MZFlush$GT$$GT$4from17h21581facb862d936E
	.p2align	4, 0x90
__ZN106_$LT$miniz_oxide..deflate..core..TDEFLFlush$u20$as$u20$core..convert..From$LT$miniz_oxide..MZFlush$GT$$GT$4from17h21581facb862d936E:
Lfunc_begin12:
	.file	16 "/Users/yingyuhang/.cargo/registry/src/github.com-1ecc6299db9ec823/miniz_oxide-0.4.0/src/deflate/core.rs"
	.loc	16 225 0
	.cfi_startproc
	pushq	%rbp
	.cfi_def_cfa_offset 16
	.cfi_offset %rbp, -16
	movq	%rsp, %rbp
	.cfi_def_cfa_register %rbp
Ltmp135:
	.loc	16 227 13 prologue_end
	addl	$-2, %edi
Ltmp136:
	cmpl	$2, %edi
	ja	LBB12_2
	addb	$2, %dil
	movl	%edi, %eax
	popq	%rbp
	retq
LBB12_2:
	.loc	16 233 6
	xorl	%eax, %eax
	popq	%rbp
	retq
Ltmp137:
Lfunc_end12:
	.cfi_endproc

	.globl	__ZN11miniz_oxide7deflate4core10TDEFLFlush3new17hc4bb083e0259bb22E
	.p2align	4, 0x90
__ZN11miniz_oxide7deflate4core10TDEFLFlush3new17hc4bb083e0259bb22E:
Lfunc_begin13:
	.loc	16 237 0
	.cfi_startproc
	.loc	16 239 13 prologue_end
	cmpl	$4, %edi
	ja	LBB13_1
Ltmp138:
	pushq	%rbp
	.cfi_def_cfa_offset 16
	.cfi_offset %rbp, -16
	movq	%rsp, %rbp
	.cfi_def_cfa_register %rbp
	movslq	%edi, %rcx
	leaq	l_switch.table._ZN11miniz_oxide7deflate4core10TDEFLFlush3new17hc4bb083e0259bb22E(%rip), %rax
	movq	(%rax,%rcx,8), %rax
	leaq	l_switch.table._ZN11miniz_oxide7deflate4core10TDEFLFlush3new17hc4bb083e0259bb22E.87(%rip), %rdx
	movq	(%rdx,%rcx,8), %rcx
	popq	%rbp
	.loc	16 245 6
	orq	%rcx, %rax
	retq
Ltmp139:
LBB13_1:
	.loc	16 0 6 is_stmt 0
	movl	$1, %ecx
	movabsq	$-42949672960000, %rax
	.loc	16 245 6
	orq	%rcx, %rax
	retq
Ltmp140:
Lfunc_end13:
	.cfi_endproc

	.globl	__ZN11miniz_oxide7deflate4core15CompressorOxide3new17h30e9e85e12a33aa6E
	.p2align	4, 0x90
__ZN11miniz_oxide7deflate4core15CompressorOxide3new17h30e9e85e12a33aa6E:
Lfunc_begin14:
	.loc	16 406 0 is_stmt 1
	.cfi_startproc
	pushq	%rbp
	.cfi_def_cfa_offset 16
	.cfi_offset %rbp, -16
	movq	%rsp, %rbp
	.cfi_def_cfa_register %rbp
	pushq	%r15
	pushq	%r14
	pushq	%r13
	pushq	%r12
	pushq	%rbx
	movl	$65608, %eax
	callq	___rust_probestack
	subq	%rax, %rsp
	.cfi_offset %rbx, -56
	.cfi_offset %r12, -48
	.cfi_offset %r13, -40
	.cfi_offset %r14, -32
	.cfi_offset %r15, -24
	movl	%esi, %r13d
	movq	%rdi, %r14
Ltmp141:
	leaq	-65648(%rbp), %rdi
Ltmp142:
	.loc	16 1450 9 prologue_end
	movl	$65536, %esi
	callq	___bzero
Ltmp143:
	.loc	6 80 14
	movl	$85196, %edi
	movl	$1, %esi
	callq	___rust_alloc
Ltmp144:
	.loc	6 278 9
	testq	%rax, %rax
	je	LBB14_4
Ltmp145:
	.file	17 "/rustc/6c8927b0cf80ceee19386026cf9d7fd4fd9d486f/src/liballoc/boxed.rs"
	.loc	17 0 0 is_stmt 0
	movq	%rax, %r15
Ltmp146:
	.loc	15 54 16 is_stmt 1
	movl	$85196, %esi
	movq	%rax, %rdi
	callq	___bzero
Ltmp147:
	.loc	16 1391 9
	movl	%r13d, -88(%rbp)
	movl	%r13d, %eax
	shrl	$14, %eax
	andb	$1, %al
	movb	%al, -48(%rbp)
	movw	$0, -47(%rbp)
	movb	$0, -45(%rbp)
	movq	$0, -84(%rbp)
	movq	$0, -76(%rbp)
	movl	$0, -68(%rbp)
	movl	$1, %eax
	movd	%eax, %xmm0
	movdqa	%xmm0, -64(%rbp)
	pxor	%xmm0, %xmm0
	movdqa	%xmm0, -112(%rbp)
	movq	%r15, -96(%rbp)
Ltmp148:
	.loc	6 80 14
	movl	$4320, %edi
	movl	$2, %esi
	callq	___rust_alloc
Ltmp149:
	.loc	6 278 9
	testq	%rax, %rax
	je	LBB14_5
Ltmp150:
	.loc	17 0 0 is_stmt 0
	movq	%rax, %r15
Ltmp151:
	.loc	16 828 9 is_stmt 1
	movl	$4320, %esi
	movq	%rax, %rdi
	callq	___bzero
Ltmp152:
	.loc	6 80 14
	movl	$164098, %edi
	movl	$2, %esi
	callq	___rust_alloc
Ltmp153:
	.loc	6 278 9
	testq	%rax, %rax
	je	LBB14_6
Ltmp154:
	.loc	16 0 0 is_stmt 0
	movq	%rax, %r12
	andl	$4095, %r13d
Ltmp155:
	.loc	16 1189 13 is_stmt 1
	imull	$43691, %r13d, %ebx
	.loc	16 1190 14
	shrl	$2, %r13d
	.loc	16 1190 13 is_stmt 0
	imull	$43691, %r13d, %eax
	addl	$87382, %eax
	shrl	$17, %eax
	.loc	16 1190 9
	incl	%eax
	.loc	16 1192 2 is_stmt 1
	shlq	$32, %rax
	.loc	16 1189 13
	addl	$87382, %ebx
	shrl	$17, %ebx
	.loc	16 1189 9 is_stmt 0
	incl	%ebx
	.loc	16 1192 2 is_stmt 1
	orq	%rax, %rbx
Ltmp156:
	.loc	15 39 9
	movl	$164098, %esi
	movq	%r12, %rdi
	callq	___bzero
	movl	$1, %eax
Ltmp157:
	.loc	16 407 9
	movq	%rax, %xmm0
	movdqu	%xmm0, (%r14)
	movabsq	$34359738368, %rax
	movq	%rax, 16(%r14)
	leaq	24(%r14), %rdi
	leaq	-65648(%rbp), %rsi
	movl	$65536, %edx
	callq	_memcpy
	leaq	65560(%r14), %rdi
	leaq	-112(%rbp), %rsi
	movl	$9, %ecx
	rep;movsq (%rsi), %es:(%rdi)
	movq	%r15, 65632(%r14)
	movq	%r12, 65640(%r14)
	movq	$0, 65648(%r14)
	movq	$0, 65656(%r14)
	movq	$0, 65664(%r14)
	movq	$0, 65672(%r14)
	movq	%rbx, 65680(%r14)
	.loc	16 415 6
	movq	%r14, %rax
	addq	$65608, %rsp
	popq	%rbx
	popq	%r12
	popq	%r13
	popq	%r14
	popq	%r15
	popq	%rbp
	retq
LBB14_4:
Ltmp158:
	.loc	6 279 19
	movl	$85196, %edi
	movl	$1, %esi
	callq	__ZN5alloc5alloc18handle_alloc_error17h28974197717b8939E
Ltmp159:
LBB14_5:
	.loc	6 279 19 is_stmt 0
	movl	$4320, %edi
	movl	$2, %esi
	callq	__ZN5alloc5alloc18handle_alloc_error17h28974197717b8939E
Ltmp160:
LBB14_6:
	.loc	6 279 19
	movl	$164098, %edi
	movl	$2, %esi
	callq	__ZN5alloc5alloc18handle_alloc_error17h28974197717b8939E
Ltmp161:
Lfunc_end14:
	.cfi_endproc

	.globl	__ZN11miniz_oxide7deflate4core15CompressorOxide7adler3217h18f4931c3b3d844dE
	.p2align	4, 0x90
__ZN11miniz_oxide7deflate4core15CompressorOxide7adler3217h18f4931c3b3d844dE:
Lfunc_begin15:
	.loc	16 418 0 is_stmt 1
	.cfi_startproc
	pushq	%rbp
	.cfi_def_cfa_offset 16
	.cfi_offset %rbp, -16
	movq	%rsp, %rbp
	.cfi_def_cfa_register %rbp
Ltmp162:
	.loc	16 419 9 prologue_end
	movl	65608(%rdi), %eax
	.loc	16 420 6
	popq	%rbp
	retq
Ltmp163:
Lfunc_end15:
	.cfi_endproc

	.globl	__ZN11miniz_oxide7deflate4core15CompressorOxide18prev_return_status17h28f01e99b6f6f497E
	.p2align	4, 0x90
__ZN11miniz_oxide7deflate4core15CompressorOxide18prev_return_status17h28f01e99b6f6f497E:
Lfunc_begin16:
	.loc	16 424 0
	.cfi_startproc
	pushq	%rbp
	.cfi_def_cfa_offset 16
	.cfi_offset %rbp, -16
	movq	%rsp, %rbp
	.cfi_def_cfa_register %rbp
Ltmp164:
	.loc	16 425 9 prologue_end
	movl	65612(%rdi), %eax
	.loc	16 426 6
	popq	%rbp
	retq
Ltmp165:
Lfunc_end16:
	.cfi_endproc

	.globl	__ZN11miniz_oxide7deflate4core15CompressorOxide5flags17h282a90635c5db31eE
	.p2align	4, 0x90
__ZN11miniz_oxide7deflate4core15CompressorOxide5flags17h282a90635c5db31eE:
Lfunc_begin17:
	.loc	16 432 0
	.cfi_startproc
	pushq	%rbp
	.cfi_def_cfa_offset 16
	.cfi_offset %rbp, -16
	movq	%rsp, %rbp
	.cfi_def_cfa_register %rbp
Ltmp166:
	.loc	16 433 9 prologue_end
	movl	65584(%rdi), %eax
	.loc	16 434 6
	popq	%rbp
	retq
Ltmp167:
Lfunc_end17:
	.cfi_endproc

	.globl	__ZN11miniz_oxide7deflate4core15CompressorOxide11data_format17h11466ebee6936188E
	.p2align	4, 0x90
__ZN11miniz_oxide7deflate4core15CompressorOxide11data_format17h11466ebee6936188E:
Lfunc_begin18:
	.loc	16 437 0
	.cfi_startproc
	pushq	%rbp
	.cfi_def_cfa_offset 16
	.cfi_offset %rbp, -16
	movq	%rsp, %rbp
	.cfi_def_cfa_register %rbp
Ltmp168:
	.loc	16 438 12 prologue_end
	testb	$16, 65585(%rdi)
	sete	%al
	.loc	16 443 6
	popq	%rbp
	retq
Ltmp169:
Lfunc_end18:
	.cfi_endproc

	.globl	__ZN11miniz_oxide7deflate4core15CompressorOxide5reset17h2bbc735dba8c3a75E
	.p2align	4, 0x90
__ZN11miniz_oxide7deflate4core15CompressorOxide5reset17h2bbc735dba8c3a75E:
Lfunc_begin19:
	.loc	16 448 0
	.cfi_startproc
	pushq	%rbp
	.cfi_def_cfa_offset 16
	.cfi_offset %rbp, -16
	movq	%rsp, %rbp
	.cfi_def_cfa_register %rbp
	pushq	%rbx
	pushq	%rax
	.cfi_offset %rbx, -24
	movq	%rdi, %rbx
	movl	$1, %eax
Ltmp170:
	.loc	16 451 9 prologue_end
	movq	%rax, %xmm0
	movdqu	%xmm0, (%rdi)
	movabsq	$34359738368, %rax
	movq	%rax, 16(%rdi)
	addq	$24, %rdi
	movl	$65536, %esi
	callq	___bzero
Ltmp171:
	.loc	16 1422 9
	movw	$0, 65625(%rbx)
	.loc	16 1426 9
	movb	$0, 65627(%rbx)
	.loc	16 1420 9
	movq	$0, 65588(%rbx)
	movq	$0, 65596(%rbx)
	movl	$0, 65604(%rbx)
	.loc	16 1427 9
	movq	$1, 65608(%rbx)
	.loc	16 1431 9
	movq	$0, 65616(%rbx)
	.loc	16 1429 9
	movq	$0, 65560(%rbx)
	movq	$0, 65568(%rbx)
	.loc	16 1433 9
	movq	65576(%rbx), %rdi
	movl	$85196, %esi
	callq	___bzero
Ltmp172:
	.loc	16 453 9
	movq	65632(%rbx), %rdi
	movl	$4320, %esi
	callq	___bzero
Ltmp173:
	.loc	16 1211 9
	movq	65640(%rbx), %rdi
Ltmp174:
	.loc	15 33 9
	movl	$164098, %esi
	callq	___bzero
Ltmp175:
	.loc	16 1213 9
	movq	$0, 65672(%rbx)
	movq	$0, 65664(%rbx)
	movq	$0, 65656(%rbx)
	movq	$0, 65648(%rbx)
Ltmp176:
	.loc	16 455 6
	addq	$8, %rsp
	popq	%rbx
Ltmp177:
	popq	%rbp
	retq
Ltmp178:
Lfunc_end19:
	.cfi_endproc

	.globl	__ZN11miniz_oxide7deflate4core15CompressorOxide21set_compression_level17hcb37dfa485deaf8bE
	.p2align	4, 0x90
__ZN11miniz_oxide7deflate4core15CompressorOxide21set_compression_level17hcb37dfa485deaf8bE:
Lfunc_begin20:
	.loc	16 462 0
	.cfi_startproc
	pushq	%rbp
	.cfi_def_cfa_offset 16
	.cfi_offset %rbp, -16
	movq	%rsp, %rbp
	.cfi_def_cfa_register %rbp
	movl	$4096, %r8d
Ltmp179:
	.loc	16 438 12 prologue_end
	andl	65584(%rdi), %r8d
Ltmp180:
	.file	18 "/rustc/6c8927b0cf80ceee19386026cf9d7fd4fd9d486f/src/libcore/convert/num.rs"
	.loc	18 52 17
	movzbl	%sil, %ecx
Ltmp181:
	.loc	16 2321 23
	cmpl	$10, %ecx
	movl	$10, %edx
	cmovbl	%ecx, %edx
Ltmp182:
	.loc	16 2326 21
	xorl	%esi, %esi
Ltmp183:
	cmpb	$4, %cl
	setb	%sil
	.loc	16 2326 18 is_stmt 0
	shll	$14, %esi
Ltmp184:
	.loc	16 2331 26 is_stmt 1
	leaq	l___unnamed_9(%rip), %rax
	orl	(%rax,%rdx,4), %esi
Ltmp185:
	.loc	16 2333 5
	orl	%r8d, %esi
Ltmp186:
	.loc	16 2338 9
	movl	%esi, %eax
	orl	$524288, %eax
	.loc	16 2337 8
	testb	%cl, %cl
	.loc	16 2337 5 is_stmt 0
	cmovnel	%esi, %eax
Ltmp187:
	.loc	16 1413 9 is_stmt 1
	movl	%eax, 65584(%rdi)
	.loc	16 1414 9
	movl	%eax, %ecx
Ltmp188:
	shrl	$14, %ecx
	andb	$1, %cl
	movb	%cl, 65624(%rdi)
Ltmp189:
	.loc	16 1189 14
	andl	$4095, %eax
Ltmp190:
	.loc	16 1189 13 is_stmt 0
	imull	$43691, %eax, %ecx
	addl	$87382, %ecx
	shrl	$17, %ecx
	.loc	16 1189 9
	incl	%ecx
	.loc	16 1190 14 is_stmt 1
	shrl	$2, %eax
	.loc	16 1190 13 is_stmt 0
	imull	$43691, %eax, %eax
	addl	$87382, %eax
	shrl	$17, %eax
	.loc	16 1190 9
	incl	%eax
	.loc	16 1192 2 is_stmt 1
	shlq	$32, %rax
	orq	%rax, %rcx
Ltmp191:
	.loc	16 1207 9
	movq	%rcx, 65680(%rdi)
Ltmp192:
	.loc	16 465 6
	popq	%rbp
	retq
Ltmp193:
Lfunc_end20:
	.cfi_endproc
	.file	19 "/rustc/6c8927b0cf80ceee19386026cf9d7fd4fd9d486f/src/libcore/convert/mod.rs"

	.globl	__ZN11miniz_oxide7deflate4core15CompressorOxide25set_compression_level_raw17h5ea65f9bf9ac0fc1E
	.p2align	4, 0x90
__ZN11miniz_oxide7deflate4core15CompressorOxide25set_compression_level_raw17h5ea65f9bf9ac0fc1E:
Lfunc_begin21:
	.loc	16 472 0
	.cfi_startproc
	pushq	%rbp
	.cfi_def_cfa_offset 16
	.cfi_offset %rbp, -16
	movq	%rsp, %rbp
	.cfi_def_cfa_register %rbp
	movl	$4096, %r8d
Ltmp194:
	.loc	16 438 12 prologue_end
	andl	65584(%rdi), %r8d
Ltmp195:
	.loc	18 52 17
	movzbl	%sil, %ecx
Ltmp196:
	.loc	16 2321 23
	cmpb	$10, %cl
	movl	$10, %edx
	cmovbl	%ecx, %edx
Ltmp197:
	.loc	16 2326 21
	xorl	%esi, %esi
Ltmp198:
	cmpb	$4, %cl
	setb	%sil
	.loc	16 2326 18 is_stmt 0
	shll	$14, %esi
Ltmp199:
	.loc	16 2331 26 is_stmt 1
	leaq	l___unnamed_9(%rip), %rax
	orl	(%rax,%rdx,4), %esi
Ltmp200:
	.loc	16 2333 5
	orl	%r8d, %esi
Ltmp201:
	.loc	16 2338 9
	movl	%esi, %eax
	orl	$524288, %eax
	.loc	16 2337 8
	testb	%cl, %cl
	.loc	16 2337 5 is_stmt 0
	cmovnel	%esi, %eax
Ltmp202:
	.loc	16 1413 9 is_stmt 1
	movl	%eax, 65584(%rdi)
	.loc	16 1414 9
	movl	%eax, %ecx
Ltmp203:
	shrl	$14, %ecx
	andb	$1, %cl
	movb	%cl, 65624(%rdi)
Ltmp204:
	.loc	16 1189 14
	andl	$4095, %eax
Ltmp205:
	.loc	16 1189 13 is_stmt 0
	imull	$43691, %eax, %ecx
	addl	$87382, %ecx
	shrl	$17, %ecx
	.loc	16 1189 9
	incl	%ecx
	.loc	16 1190 14 is_stmt 1
	shrl	$2, %eax
	.loc	16 1190 13 is_stmt 0
	imull	$43691, %eax, %eax
	addl	$87382, %eax
	shrl	$17, %eax
	.loc	16 1190 9
	incl	%eax
	.loc	16 1192 2 is_stmt 1
	shlq	$32, %rax
	orq	%rax, %rcx
Ltmp206:
	.loc	16 1207 9
	movq	%rcx, 65680(%rdi)
Ltmp207:
	.loc	16 475 6
	popq	%rbp
	retq
Ltmp208:
Lfunc_end21:
	.cfi_endproc

	.globl	__ZN11miniz_oxide7deflate4core15CompressorOxide20set_format_and_level17had65c218156959f0E
	.p2align	4, 0x90
__ZN11miniz_oxide7deflate4core15CompressorOxide20set_format_and_level17had65c218156959f0E:
Lfunc_begin22:
	.loc	16 486 0
	.cfi_startproc
	pushq	%rbp
	.cfi_def_cfa_offset 16
	.cfi_offset %rbp, -16
	movq	%rsp, %rbp
	.cfi_def_cfa_register %rbp
Ltmp209:
	.loc	18 52 17 prologue_end
	movzbl	%dl, %r8d
Ltmp210:
	.loc	16 2321 23
	cmpb	$10, %r8b
	movl	$10, %ecx
	cmovbl	%r8d, %ecx
Ltmp211:
	.loc	16 2326 21
	xorl	%edx, %edx
Ltmp212:
	cmpb	$4, %r8b
	setb	%dl
	.loc	16 2326 18 is_stmt 0
	shll	$14, %edx
Ltmp213:
	.loc	16 2331 26 is_stmt 1
	leaq	l___unnamed_9(%rip), %rax
	orl	(%rax,%rcx,4), %edx
Ltmp214:
	.loc	16 2334 9
	movl	%edx, %eax
	orl	$4096, %eax
	.loc	16 2333 5
	testl	%esi, %esi
	cmovnel	%edx, %eax
Ltmp215:
	.loc	16 2338 9
	movl	%eax, %ecx
Ltmp216:
	orl	$524288, %ecx
	.loc	16 2337 8
	testb	%r8b, %r8b
	.loc	16 2337 5 is_stmt 0
	cmovnel	%eax, %ecx
Ltmp217:
	.loc	16 1413 9 is_stmt 1
	movl	%ecx, 65584(%rdi)
	.loc	16 1414 9
	movl	%ecx, %eax
	shrl	$14, %eax
	andb	$1, %al
	movb	%al, 65624(%rdi)
Ltmp218:
	.loc	16 1189 14
	andl	$4095, %ecx
Ltmp219:
	.loc	16 1189 13 is_stmt 0
	imull	$43691, %ecx, %eax
	addl	$87382, %eax
	shrl	$17, %eax
	.loc	16 1189 9
	incl	%eax
	.loc	16 1190 14 is_stmt 1
	shrl	$2, %ecx
	.loc	16 1190 13 is_stmt 0
	imull	$43691, %ecx, %ecx
	addl	$87382, %ecx
	shrl	$17, %ecx
	.loc	16 1190 9
	incl	%ecx
	.loc	16 1192 2 is_stmt 1
	shlq	$32, %rcx
	orq	%rcx, %rax
Ltmp220:
	.loc	16 1207 9
	movq	%rax, 65680(%rdi)
Ltmp221:
	.loc	16 494 6
	popq	%rbp
	retq
Ltmp222:
Lfunc_end22:
	.cfi_endproc

	.globl	__ZN11miniz_oxide7deflate4core13CallbackOxide17new_callback_func17h41a4e474b7918126E
	.p2align	4, 0x90
__ZN11miniz_oxide7deflate4core13CallbackOxide17new_callback_func17h41a4e474b7918126E:
Lfunc_begin23:
	.loc	16 620 0
	.cfi_startproc
	pushq	%rbp
	.cfi_def_cfa_offset 16
	.cfi_offset %rbp, -16
	movq	%rsp, %rbp
	.cfi_def_cfa_register %rbp
	movq	%rdi, %rax
Ltmp223:
	.loc	16 621 9 prologue_end
	movq	%rsi, (%rdi)
	movq	%rdx, 8(%rdi)
	movq	$0, 16(%rdi)
	movq	$0, 24(%rdi)
	movq	$0, 32(%rdi)
	movq	%rcx, 40(%rdi)
	movq	%r8, 48(%rdi)
	.loc	16 627 6
	popq	%rbp
	retq
Ltmp224:
Lfunc_end23:
	.cfi_endproc

	.p2align	4, 0x90
__ZN11miniz_oxide7deflate4core17OutputBufferOxide8put_bits17hf668fc4ddb341623E:
Lfunc_begin24:
	.loc	16 666 0
	.cfi_startproc
	pushq	%rbp
	.cfi_def_cfa_offset 16
	.cfi_offset %rbp, -16
	movq	%rsp, %rbp
	.cfi_def_cfa_register %rbp
Ltmp225:
	.loc	16 667 26 prologue_end
	cmpl	$31, %edx
	ja	LBB24_10
Ltmp226:
	.loc	16 667 17 is_stmt 0
	movl	%esi, %eax
	movl	%edx, %ecx
	shrl	%cl, %eax
	testl	%eax, %eax
	.loc	16 667 9
	jne	LBB24_15
Ltmp227:
	.loc	16 668 36 is_stmt 1
	movl	28(%rdi), %ecx
	.loc	16 668 28 is_stmt 0
	cmpl	$31, %ecx
	ja	LBB24_11
Ltmp228:
	shll	%cl, %esi
Ltmp229:
	.loc	16 668 9
	orl	24(%rdi), %esi
	movl	%esi, 24(%rdi)
	.loc	16 669 9 is_stmt 1
	addl	%ecx, %edx
Ltmp230:
	.loc	16 0 0 is_stmt 0
	movl	%edx, 28(%rdi)
	.loc	16 670 15 is_stmt 1
	cmpl	$8, %edx
	.loc	16 670 9 is_stmt 0
	jb	LBB24_9
Ltmp231:
	.loc	16 671 24 is_stmt 1
	movq	16(%rdi), %rax
Ltmp232:
	.p2align	4, 0x90
LBB24_5:
	.loc	16 671 13 is_stmt 0
	movq	8(%rdi), %rcx
	cmpq	%rcx, %rax
	jae	LBB24_12
Ltmp233:
	movq	(%rdi), %rcx
	movb	%sil, (%rcx,%rax)
	.loc	16 672 13 is_stmt 1
	movq	16(%rdi), %rax
	incq	%rax
	je	LBB24_13
Ltmp234:
	movq	%rax, 16(%rdi)
	.loc	16 673 13
	movl	24(%rdi), %esi
	.loc	16 674 13
	movl	28(%rdi), %ecx
	.loc	16 673 13
	shrl	$8, %esi
	movl	%esi, 24(%rdi)
	.loc	16 674 13
	subl	$8, %ecx
	jb	LBB24_14
Ltmp235:
	.loc	16 0 0 is_stmt 0
	movl	%ecx, 28(%rdi)
	.loc	16 670 15 is_stmt 1
	cmpl	$7, %ecx
	.loc	16 670 9 is_stmt 0
	ja	LBB24_5
Ltmp236:
LBB24_9:
	.loc	16 676 6 is_stmt 1
	popq	%rbp
	retq
Ltmp237:
LBB24_12:
	.loc	16 671 13
	leaq	l___unnamed_10(%rip), %rdx
	movq	%rax, %rdi
Ltmp238:
	movq	%rcx, %rsi
	callq	__ZN4core9panicking18panic_bounds_check17he87128426d100e93E
LBB24_13:
Ltmp239:
	.loc	16 672 13
	leaq	_str.0(%rip), %rdi
Ltmp240:
	leaq	l___unnamed_11(%rip), %rdx
	movl	$28, %esi
	callq	__ZN4core9panicking5panic17h383a6b80ea7021aaE
LBB24_14:
Ltmp241:
	.loc	16 674 13
	leaq	_str.1(%rip), %rdi
Ltmp242:
	leaq	l___unnamed_12(%rip), %rdx
	movl	$33, %esi
	callq	__ZN4core9panicking5panic17h383a6b80ea7021aaE
LBB24_10:
Ltmp243:
	.loc	16 667 26
	leaq	_str.5(%rip), %rdi
Ltmp244:
	leaq	l___unnamed_13(%rip), %rdx
Ltmp245:
	movl	$35, %esi
Ltmp246:
	callq	__ZN4core9panicking5panic17h383a6b80ea7021aaE
LBB24_15:
Ltmp247:
	.loc	16 667 9 is_stmt 0
	leaq	l___unnamed_14(%rip), %rdi
Ltmp248:
	leaq	l___unnamed_15(%rip), %rdx
Ltmp249:
	movl	$48, %esi
Ltmp250:
	callq	__ZN4core9panicking5panic17h383a6b80ea7021aaE
LBB24_11:
Ltmp251:
	.loc	16 668 28 is_stmt 1
	leaq	_str.5(%rip), %rdi
Ltmp252:
	leaq	l___unnamed_16(%rip), %rdx
Ltmp253:
	movl	$35, %esi
Ltmp254:
	callq	__ZN4core9panicking5panic17h383a6b80ea7021aaE
Ltmp255:
Lfunc_end24:
	.cfi_endproc

	.p2align	4, 0x90
__ZN11miniz_oxide7deflate4core3RLE14prev_code_size17hca3769b71886b615E:
Lfunc_begin25:
	.loc	16 767 0
	.cfi_startproc
	pushq	%rbp
	.cfi_def_cfa_offset 16
	.cfi_offset %rbp, -16
	movq	%rsp, %rbp
	.cfi_def_cfa_register %rbp
Ltmp256:
	pushq	%r15
	pushq	%r14
	pushq	%rbx
	subq	$184, %rsp
	.cfi_offset %rbx, -40
	.cfi_offset %r14, -32
	.cfi_offset %r15, -24
Ltmp257:
	.loc	16 775 12 prologue_end
	movl	4(%rdi), %eax
	testl	%eax, %eax
	.loc	16 775 9 is_stmt 0
	je	LBB25_17
Ltmp258:
	.loc	16 0 9
	movq	%rdx, %r14
Ltmp259:
	movq	%rdi, %rbx
Ltmp260:
	.loc	16 776 16 is_stmt 1
	cmpl	$3, %eax
	.loc	16 776 13 is_stmt 0
	jae	LBB25_9
Ltmp261:
	.loc	16 778 28 is_stmt 1
	movzbl	8(%rbx), %edx
Ltmp262:
	.loc	16 777 17
	addw	%ax, 1152(%rcx,%rdx,2)
	.loc	16 779 28
	movb	8(%rbx), %al
Ltmp263:
	.loc	16 780 24
	movb	%al, -28(%rbp)
	movb	%al, -27(%rbp)
	movb	%al, -26(%rbp)
	.loc	16 780 45 is_stmt 0
	movl	4(%rbx), %r15d
	cmpq	$4, %r15
Ltmp264:
	.file	20 "/rustc/6c8927b0cf80ceee19386026cf9d7fd4fd9d486f/src/libcore/slice/mod.rs"
	.loc	20 3169 16 is_stmt 1
	jae	LBB25_20
Ltmp265:
	.loc	16 818 23
	movq	(%r14), %rax
Ltmp266:
	.loc	16 818 33 is_stmt 0
	movq	%rax, %rcx
Ltmp267:
	addq	%r15, %rcx
	jb	LBB25_19
Ltmp268:
	.loc	20 3141 37 is_stmt 1
	cmpq	$320, %rcx
Ltmp269:
	.loc	16 819 9
	ja	LBB25_12
Ltmp270:
	.loc	20 3141 12
	subq	%rax, %rcx
Ltmp271:
	.loc	20 2370 20
	movq	%rcx, -40(%rbp)
	.loc	20 2370 32 is_stmt 0
	movq	%r15, -48(%rbp)
Ltmp272:
	.loc	14 66 21 is_stmt 1
	cmpq	%r15, %rcx
	.loc	14 66 17 is_stmt 0
	jne	LBB25_22
Ltmp273:
	.loc	20 3141 12 is_stmt 1
	addq	%rax, %rsi
Ltmp274:
	.loc	20 0 12 is_stmt 0
	leaq	-28(%rbp), %rax
Ltmp275:
	.file	21 "/rustc/6c8927b0cf80ceee19386026cf9d7fd4fd9d486f/src/libcore/intrinsics.rs"
	.loc	21 2130 14 is_stmt 1
	movq	%rsi, %rdi
	movq	%rax, %rsi
Ltmp276:
	movq	%r15, %rdx
	callq	_memcpy
Ltmp277:
	.loc	16 822 5
	addq	(%r14), %r15
Ltmp278:
	jb	LBB25_23
Ltmp279:
	movq	%r15, (%r14)
	jmp	LBB25_16
Ltmp280:
LBB25_9:
	.loc	16 782 17
	incw	1184(%rcx)
	.loc	16 783 30
	movl	4(%rbx), %eax
	.loc	16 783 29 is_stmt 0
	subl	$3, %eax
	jb	LBB25_21
Ltmp281:
	.loc	16 783 24
	movb	$16, -28(%rbp)
	movb	%al, -27(%rbp)
Ltmp282:
	.loc	16 818 23 is_stmt 1
	movq	(%r14), %rax
	.loc	16 818 33 is_stmt 0
	movq	%rax, %rcx
Ltmp283:
	addq	$2, %rcx
	jb	LBB25_19
Ltmp284:
	.loc	20 3141 37 is_stmt 1
	cmpq	$320, %rcx
Ltmp285:
	.loc	16 819 9
	jbe	LBB25_13
Ltmp286:
LBB25_12:
	.loc	16 0 9 is_stmt 0
	movb	$1, %al
	jmp	LBB25_18
Ltmp287:
LBB25_13:
	.loc	20 3141 12 is_stmt 1
	subq	%rax, %rcx
Ltmp288:
	.loc	20 2370 20
	movq	%rcx, -40(%rbp)
	.loc	20 2370 32 is_stmt 0
	movq	$2, -48(%rbp)
Ltmp289:
	.loc	14 66 21 is_stmt 1
	cmpq	$2, %rcx
	.loc	14 66 17 is_stmt 0
	jne	LBB25_22
Ltmp290:
	.loc	21 2130 14 is_stmt 1
	movzwl	-28(%rbp), %ecx
Ltmp291:
	movw	%cx, (%rsi,%rax)
Ltmp292:
	.loc	16 822 5
	movq	(%r14), %rax
	addq	$2, %rax
Ltmp293:
	jb	LBB25_23
Ltmp294:
	movq	%rax, (%r14)
Ltmp295:
LBB25_16:
	.loc	16 785 13
	movl	$0, 4(%rbx)
Ltmp296:
LBB25_17:
	.loc	16 0 13 is_stmt 0
	xorl	%eax, %eax
Ltmp297:
LBB25_18:
	.loc	16 789 6 is_stmt 1
	addq	$184, %rsp
	popq	%rbx
	popq	%r14
	popq	%r15
	popq	%rbp
	retq
Ltmp298:
LBB25_19:
	.loc	16 0 0 is_stmt 0
	leaq	_str.0(%rip), %rdi
	leaq	l___unnamed_17(%rip), %rdx
	movl	$28, %esi
Ltmp299:
	callq	__ZN4core9panicking5panic17h383a6b80ea7021aaE
Ltmp300:
LBB25_20:
	.loc	20 3170 13 is_stmt 1
	leaq	l___unnamed_18(%rip), %rdx
	movl	$3, %esi
Ltmp301:
	movq	%r15, %rdi
	callq	__ZN4core5slice24slice_end_index_len_fail17hea9e3399ed430f80E
Ltmp302:
LBB25_21:
	.loc	16 783 29
	leaq	_str.1(%rip), %rdi
	leaq	l___unnamed_19(%rip), %rdx
	movl	$33, %esi
Ltmp303:
	callq	__ZN4core9panicking5panic17h383a6b80ea7021aaE
Ltmp304:
LBB25_22:
	.loc	16 0 29 is_stmt 0
	leaq	-40(%rbp), %rax
	movq	%rax, -56(%rbp)
	leaq	-48(%rbp), %rax
	movq	%rax, -64(%rbp)
Ltmp305:
	leaq	l___unnamed_20(%rip), %rax
Ltmp306:
	movq	%rax, -208(%rbp)
	movq	$1, -200(%rbp)
	movq	$0, -192(%rbp)
	leaq	l___unnamed_21(%rip), %rax
Ltmp307:
	movq	%rax, -176(%rbp)
	movq	$0, -168(%rbp)
	leaq	-56(%rbp), %rax
Ltmp308:
	movq	%rax, -112(%rbp)
	leaq	__ZN42_$LT$$RF$T$u20$as$u20$core..fmt..Debug$GT$3fmt17hba288db9807855bfE(%rip), %rax
	movq	%rax, -104(%rbp)
	leaq	-64(%rbp), %rcx
	movq	%rcx, -96(%rbp)
	movq	%rax, -88(%rbp)
	leaq	-208(%rbp), %rax
	movq	%rax, -80(%rbp)
	movq	__ZN59_$LT$core..fmt..Arguments$u20$as$u20$core..fmt..Display$GT$3fmt17hca54f9d63261f398E@GOTPCREL(%rip), %rax
	movq	%rax, -72(%rbp)
Ltmp309:
	leaq	l___unnamed_22(%rip), %rax
Ltmp310:
	movq	%rax, -160(%rbp)
	movq	$3, -152(%rbp)
	movq	$0, -144(%rbp)
	leaq	-112(%rbp), %rax
Ltmp311:
	movq	%rax, -128(%rbp)
	movq	$3, -120(%rbp)
	leaq	l___unnamed_23(%rip), %rsi
Ltmp312:
	leaq	-160(%rbp), %rdi
	callq	__ZN4core9panicking9panic_fmt17hfce5b7173905fc53E
Ltmp313:
LBB25_23:
	leaq	_str.0(%rip), %rdi
	leaq	l___unnamed_24(%rip), %rdx
	movl	$28, %esi
	callq	__ZN4core9panicking5panic17h383a6b80ea7021aaE
Ltmp314:
Lfunc_end25:
	.cfi_endproc

	.p2align	4, 0x90
__ZN11miniz_oxide7deflate4core3RLE14zero_code_size17h0cee5c92c75b24d6E:
Lfunc_begin26:
	.loc	16 791 0 is_stmt 1
	.cfi_startproc
	pushq	%rbp
	.cfi_def_cfa_offset 16
	.cfi_offset %rbp, -16
	movq	%rsp, %rbp
	.cfi_def_cfa_register %rbp
Ltmp315:
	pushq	%r15
	pushq	%r14
	pushq	%rbx
	subq	$184, %rsp
	.cfi_offset %rbx, -40
	.cfi_offset %r14, -32
	.cfi_offset %r15, -24
Ltmp316:
	.loc	16 799 12 prologue_end
	movl	(%rdi), %eax
	testl	%eax, %eax
	.loc	16 799 9 is_stmt 0
	je	LBB26_21
Ltmp317:
	.loc	16 0 9
	movq	%rdx, %r14
Ltmp318:
	movq	%rdi, %r15
Ltmp319:
	.loc	16 800 16 is_stmt 1
	cmpl	$3, %eax
	.loc	16 800 13 is_stmt 0
	jae	LBB26_9
Ltmp320:
	.loc	16 801 17 is_stmt 1
	addw	%ax, 1152(%rcx)
	.loc	16 802 36
	movl	(%r15), %ebx
	cmpq	$4, %rbx
Ltmp321:
	.loc	20 3169 16
	jae	LBB26_24
Ltmp322:
	.loc	16 818 23
	movq	(%r14), %rcx
Ltmp323:
	.loc	16 818 33 is_stmt 0
	movq	%rcx, %rdx
	addq	%rbx, %rdx
	jb	LBB26_23
Ltmp324:
	.loc	16 0 33
	movb	$1, %al
Ltmp325:
	.loc	20 3141 37 is_stmt 1
	cmpq	$320, %rdx
Ltmp326:
	.loc	16 819 9
	ja	LBB26_22
Ltmp327:
	.loc	20 3141 12
	subq	%rcx, %rdx
Ltmp328:
	.loc	20 2370 20
	movq	%rdx, -40(%rbp)
	.loc	20 2370 32 is_stmt 0
	movq	%rbx, -48(%rbp)
Ltmp329:
	.loc	14 66 21 is_stmt 1
	cmpq	%rbx, %rdx
	.loc	14 66 17 is_stmt 0
	jne	LBB26_25
Ltmp330:
	.loc	20 3141 12 is_stmt 1
	addq	%rcx, %rsi
Ltmp331:
	.loc	21 2130 14
	movq	%rsi, %rdi
	movq	%rbx, %rsi
Ltmp332:
	callq	___bzero
Ltmp333:
	.loc	16 822 5
	addq	(%r14), %rbx
Ltmp334:
	jb	LBB26_26
Ltmp335:
	movq	%rbx, (%r14)
	jmp	LBB26_20
Ltmp336:
LBB26_9:
	.loc	16 803 23
	cmpl	$11, %eax
	.loc	16 803 20 is_stmt 0
	jae	LBB26_12
Ltmp337:
	.loc	16 804 17 is_stmt 1
	incw	1186(%rcx)
	.loc	16 805 30
	movl	(%r15), %eax
	.loc	16 805 29 is_stmt 0
	subl	$3, %eax
	jb	LBB26_27
Ltmp338:
	.loc	16 805 24
	movb	$17, -26(%rbp)
	jmp	LBB26_14
Ltmp339:
LBB26_12:
	.loc	16 807 17 is_stmt 1
	incw	1188(%rcx)
	.loc	16 808 30
	movl	(%r15), %eax
	.loc	16 808 29 is_stmt 0
	subl	$11, %eax
	jb	LBB26_28
Ltmp340:
	.loc	16 808 24
	movb	$18, -26(%rbp)
Ltmp341:
LBB26_14:
	.loc	16 0 0
	movb	%al, -25(%rbp)
Ltmp342:
	movq	(%r14), %rax
	movq	%rax, %rcx
Ltmp343:
	addq	$2, %rcx
	jb	LBB26_23
Ltmp344:
	cmpq	$320, %rcx
	jbe	LBB26_17
Ltmp345:
	movb	$1, %al
Ltmp346:
	jmp	LBB26_22
Ltmp347:
LBB26_17:
	subq	%rax, %rcx
Ltmp348:
	movq	%rcx, -40(%rbp)
	movq	$2, -48(%rbp)
Ltmp349:
	cmpq	$2, %rcx
	jne	LBB26_25
Ltmp350:
	movzwl	-26(%rbp), %ecx
Ltmp351:
	movw	%cx, (%rsi,%rax)
	movq	(%r14), %rax
Ltmp352:
	addq	$2, %rax
Ltmp353:
	jb	LBB26_26
Ltmp354:
	movq	%rax, (%r14)
Ltmp355:
LBB26_20:
	.loc	16 810 13 is_stmt 1
	movl	$0, (%r15)
Ltmp356:
LBB26_21:
	.loc	16 0 13 is_stmt 0
	xorl	%eax, %eax
Ltmp357:
LBB26_22:
	.loc	16 814 6 is_stmt 1
	addq	$184, %rsp
	popq	%rbx
	popq	%r14
	popq	%r15
	popq	%rbp
	retq
Ltmp358:
LBB26_23:
	.loc	16 0 0 is_stmt 0
	leaq	_str.0(%rip), %rdi
	leaq	l___unnamed_17(%rip), %rdx
	movl	$28, %esi
Ltmp359:
	callq	__ZN4core9panicking5panic17h383a6b80ea7021aaE
Ltmp360:
LBB26_24:
	.loc	20 3170 13 is_stmt 1
	leaq	l___unnamed_25(%rip), %rdx
	movl	$3, %esi
Ltmp361:
	movq	%rbx, %rdi
	callq	__ZN4core5slice24slice_end_index_len_fail17hea9e3399ed430f80E
Ltmp362:
LBB26_25:
	.loc	20 0 13 is_stmt 0
	leaq	-40(%rbp), %rax
	movq	%rax, -56(%rbp)
	leaq	-48(%rbp), %rax
	movq	%rax, -64(%rbp)
Ltmp363:
	leaq	l___unnamed_20(%rip), %rax
Ltmp364:
	movq	%rax, -208(%rbp)
	movq	$1, -200(%rbp)
	movq	$0, -192(%rbp)
	leaq	l___unnamed_21(%rip), %rax
Ltmp365:
	movq	%rax, -176(%rbp)
	movq	$0, -168(%rbp)
	leaq	-56(%rbp), %rax
Ltmp366:
	movq	%rax, -112(%rbp)
	leaq	__ZN42_$LT$$RF$T$u20$as$u20$core..fmt..Debug$GT$3fmt17hba288db9807855bfE(%rip), %rax
	movq	%rax, -104(%rbp)
	leaq	-64(%rbp), %rcx
	movq	%rcx, -96(%rbp)
	movq	%rax, -88(%rbp)
	leaq	-208(%rbp), %rax
	movq	%rax, -80(%rbp)
	movq	__ZN59_$LT$core..fmt..Arguments$u20$as$u20$core..fmt..Display$GT$3fmt17hca54f9d63261f398E@GOTPCREL(%rip), %rax
	movq	%rax, -72(%rbp)
Ltmp367:
	leaq	l___unnamed_22(%rip), %rax
Ltmp368:
	movq	%rax, -160(%rbp)
	movq	$3, -152(%rbp)
	movq	$0, -144(%rbp)
	leaq	-112(%rbp), %rax
Ltmp369:
	movq	%rax, -128(%rbp)
	movq	$3, -120(%rbp)
	leaq	l___unnamed_23(%rip), %rsi
Ltmp370:
	leaq	-160(%rbp), %rdi
	callq	__ZN4core9panicking9panic_fmt17hfce5b7173905fc53E
Ltmp371:
LBB26_26:
	leaq	_str.0(%rip), %rdi
	leaq	l___unnamed_24(%rip), %rdx
	movl	$28, %esi
	callq	__ZN4core9panicking5panic17h383a6b80ea7021aaE
Ltmp372:
LBB26_27:
	.loc	16 805 29 is_stmt 1
	leaq	_str.1(%rip), %rdi
	leaq	l___unnamed_26(%rip), %rdx
	movl	$33, %esi
Ltmp373:
	callq	__ZN4core9panicking5panic17h383a6b80ea7021aaE
Ltmp374:
LBB26_28:
	.loc	16 808 29
	leaq	_str.1(%rip), %rdi
	leaq	l___unnamed_27(%rip), %rdx
	movl	$33, %esi
Ltmp375:
	callq	__ZN4core9panicking5panic17h383a6b80ea7021aaE
Ltmp376:
Lfunc_end26:
	.cfi_endproc

	.globl	__ZN83_$LT$miniz_oxide..deflate..core..HuffmanOxide$u20$as$u20$core..default..Default$GT$7default17hd30d4d4b5df0a08fE
	.p2align	4, 0x90
__ZN83_$LT$miniz_oxide..deflate..core..HuffmanOxide$u20$as$u20$core..default..Default$GT$7default17hd30d4d4b5df0a08fE:
Lfunc_begin27:
	.loc	16 827 0
	.cfi_startproc
	pushq	%rbp
	.cfi_def_cfa_offset 16
	.cfi_offset %rbp, -16
	movq	%rsp, %rbp
	.cfi_def_cfa_register %rbp
	pushq	%rbx
	pushq	%rax
	.cfi_offset %rbx, -24
	movq	%rdi, %rbx
Ltmp377:
	.loc	16 828 9 prologue_end
	movl	$4320, %esi
	callq	___bzero
	.loc	16 833 6
	movq	%rbx, %rax
	addq	$8, %rsp
	popq	%rbx
	popq	%rbp
	retq
Ltmp378:
Lfunc_end27:
	.cfi_endproc

	.p2align	4, 0x90
__ZN11miniz_oxide7deflate4core12HuffmanOxide14optimize_table17h86d27a3255ecbfccE:
Lfunc_begin28:
	.loc	16 956 0
	.cfi_startproc
	pushq	%rbp
	.cfi_def_cfa_offset 16
	.cfi_offset %rbp, -16
	movq	%rsp, %rbp
	.cfi_def_cfa_register %rbp
	pushq	%r15
	pushq	%r14
	pushq	%r13
	pushq	%r12
	pushq	%rbx
	movl	$8760, %eax
	callq	___rust_probestack
	subq	%rax, %rsp
	.cfi_offset %rbx, -56
	.cfi_offset %r12, -48
	.cfi_offset %r13, -40
	.cfi_offset %r14, -32
	.cfi_offset %r15, -24
	movq	%rdx, %r10
	movq	%rsi, %r14
	movq	%rdi, %r13
Ltmp379:
	.loc	16 963 29 prologue_end
	xorps	%xmm0, %xmm0
	movaps	%xmm0, -96(%rbp)
	movaps	%xmm0, -112(%rbp)
	movaps	%xmm0, -128(%rbp)
	movaps	%xmm0, -144(%rbp)
	movaps	%xmm0, -160(%rbp)
	movaps	%xmm0, -176(%rbp)
	movaps	%xmm0, -192(%rbp)
	movaps	%xmm0, -208(%rbp)
	movl	$0, -80(%rbp)
Ltmp380:
	.loc	16 964 29
	movaps	%xmm0, -240(%rbp)
	movaps	%xmm0, -256(%rbp)
	movaps	%xmm0, -272(%rbp)
	movaps	%xmm0, -288(%rbp)
	movaps	%xmm0, -304(%rbp)
	movaps	%xmm0, -320(%rbp)
	movaps	%xmm0, -336(%rbp)
	movaps	%xmm0, -352(%rbp)
	movl	$0, -224(%rbp)
Ltmp381:
	.loc	16 966 9
	testl	%r8d, %r8d
	je	LBB28_1
Ltmp382:
	.loc	20 3169 19
	cmpq	$289, %r10
	.loc	20 3169 16 is_stmt 0
	jae	LBB28_210
Ltmp383:
	.loc	20 3440 9 is_stmt 1
	testq	%r10, %r10
	.loc	20 3570 21
	je	LBB28_164
Ltmp384:
	.loc	16 968 17
	leaq	(%r14,%r14,8), %rax
	shlq	$5, %rax
	leaq	3456(%rax,%r13), %rax
	xorl	%esi, %esi
Ltmp385:
	.p2align	4, 0x90
LBB28_6:
	.loc	16 967 18
	movzbl	(%rax,%rsi), %edi
	cmpq	$32, %rdi
Ltmp386:
	.loc	16 968 17
	ja	LBB28_185
Ltmp387:
	movl	-208(%rbp,%rdi,4), %edx
	incl	%edx
	jo	LBB28_186
Ltmp388:
	movl	%edx, -208(%rbp,%rdi,4)
Ltmp389:
	.loc	20 3440 9
	incq	%rsi
	cmpq	%rsi, %r10
	.loc	20 3570 21
	jne	LBB28_6
Ltmp390:
LBB28_164:
	.loc	16 1017 9
	movl	$0, -348(%rbp)
Ltmp391:
	.file	22 "/rustc/6c8927b0cf80ceee19386026cf9d7fd4fd9d486f/src/libcore/ops/range.rs"
	.loc	22 514 9
	cmpq	$2, %rcx
Ltmp392:
	.loc	13 654 9
	jae	LBB28_165
	jmp	LBB28_171
Ltmp393:
LBB28_1:
	.loc	13 0 9 is_stmt 0
	movq	%rcx, -56(%rbp)
Ltmp394:
	leaq	-1504(%rbp), %r15
	movl	$1152, %esi
	movq	%r15, %rdi
	movq	%r10, -72(%rbp)
Ltmp395:
	callq	___bzero
Ltmp396:
	leaq	-4704(%rbp), %r12
	movl	$1152, %esi
	movq	%r12, %rdi
	callq	___bzero
	movq	-72(%rbp), %rsi
Ltmp397:
	.loc	11 1136 52 is_stmt 1
	testq	%rsi, %rsi
	movq	%r14, -64(%rbp)
Ltmp398:
	.loc	13 505 9
	je	LBB28_2
Ltmp399:
	leaq	(%r14,%r14,8), %rax
	shlq	$6, %rax
	addq	%r13, %rax
	xorl	%r14d, %r14d
Ltmp400:
	.loc	13 0 9 is_stmt 0
	xorl	%ecx, %ecx
	jmp	LBB28_114
Ltmp401:
	.p2align	4, 0x90
LBB28_117:
	.loc	16 983 21 is_stmt 1
	movw	%dx, -1504(%rbp,%r14,4)
	movw	%cx, -1502(%rbp,%r14,4)
	.loc	16 987 21
	incq	%r14
Ltmp402:
LBB28_118:
	.loc	16 0 0 is_stmt 0
	incq	%rcx
Ltmp403:
	.loc	11 1136 52 is_stmt 1
	cmpq	%rcx, %rsi
Ltmp404:
	.loc	13 505 9
	je	LBB28_9
Ltmp405:
LBB28_114:
	.loc	16 982 20
	cmpq	$288, %rcx
	je	LBB28_187
Ltmp406:
	movzwl	(%rax,%rcx,2), %edx
	testw	%dx, %dx
	.loc	16 982 17 is_stmt 0
	je	LBB28_118
Ltmp407:
	.loc	16 983 21 is_stmt 1
	cmpq	$287, %r14
	jbe	LBB28_117
Ltmp408:
	leaq	l___unnamed_28(%rip), %rdx
	movl	$288, %esi
Ltmp409:
	movq	%r14, %rdi
	callq	__ZN4core9panicking18panic_bounds_check17he87128426d100e93E
Ltmp410:
LBB28_9:
	.loc	20 3179 19
	cmpq	$289, %r14
	.loc	20 3179 16 is_stmt 0
	jae	LBB28_211
Ltmp411:
	.loc	20 0 16
	leaq	-8800(%rbp), %rdi
	movl	$4096, %esi
Ltmp412:
	callq	___bzero
Ltmp413:
	.loc	20 3440 9 is_stmt 1
	testq	%r14, %r14
	.loc	20 3570 21
	je	LBB28_11
Ltmp414:
	.loc	16 844 13
	leaq	(,%r14,4), %rax
	xorl	%ecx, %ecx
Ltmp415:
	.p2align	4, 0x90
LBB28_33:
	.loc	16 844 22 is_stmt 0
	movzbl	-1504(%rbp,%rcx), %edx
	.loc	16 844 13
	movq	-8800(%rbp,%rdx,8), %rsi
	incq	%rsi
	je	LBB28_34
Ltmp416:
	movq	%rsi, -8800(%rbp,%rdx,8)
	.loc	16 845 23 is_stmt 1
	movzwl	-1504(%rbp,%rcx), %edx
	.loc	16 845 22 is_stmt 0
	shrq	$8, %rdx
	.loc	16 845 13
	movq	-6752(%rbp,%rdx,8), %rsi
	incq	%rsi
	je	LBB28_35
Ltmp417:
	movq	%rsi, -6752(%rbp,%rdx,8)
Ltmp418:
	.loc	20 3440 9 is_stmt 1
	addq	$4, %rcx
	cmpq	%rcx, %rax
	.loc	20 3570 21
	jne	LBB28_33
Ltmp419:
	.loc	16 849 30
	movq	-6752(%rbp), %rbx
	jmp	LBB28_13
Ltmp420:
LBB28_2:
	.loc	16 0 30 is_stmt 0
	leaq	-8800(%rbp), %rdi
	movl	$4096, %esi
Ltmp421:
	callq	___bzero
Ltmp422:
LBB28_11:
	xorl	%r14d, %r14d
	.loc	16 849 30
	xorl	%ebx, %ebx
Ltmp423:
LBB28_13:
	.loc	16 0 30
	leaq	-3552(%rbp), %rdi
Ltmp424:
	.loc	16 857 31 is_stmt 1
	movl	$2048, %esi
	callq	___bzero
	xorl	%eax, %eax
Ltmp425:
	.loc	16 0 31 is_stmt 0
	xorl	%ecx, %ecx
	movq	-56(%rbp), %r9
Ltmp426:
	.p2align	4, 0x90
LBB28_14:
	.loc	16 860 17 is_stmt 1
	movq	%rax, -3552(%rbp,%rcx,8)
	.loc	16 861 17
	addq	-8800(%rbp,%rcx,8), %rax
Ltmp427:
	jb	LBB28_16
Ltmp428:
	.loc	16 860 17
	movq	%rax, -3544(%rbp,%rcx,8)
	.loc	16 861 17
	addq	-8792(%rbp,%rcx,8), %rax
Ltmp429:
	jb	LBB28_16
Ltmp430:
	.loc	9 3013 26
	addq	$2, %rcx
Ltmp431:
	.loc	11 1136 52
	cmpq	$256, %rcx
Ltmp432:
	.loc	13 505 9
	jne	LBB28_14
Ltmp433:
	.loc	20 3440 9
	testq	%r14, %r14
	.loc	20 3570 21
	je	LBB28_25
Ltmp434:
	.loc	16 0 0 is_stmt 0
	leaq	-1504(%rbp,%r14,4), %rax
Ltmp435:
	.p2align	4, 0x90
LBB28_22:
	.loc	16 866 43 is_stmt 1
	movzwl	(%r15), %edx
Ltmp436:
	.loc	16 865 25
	movzbl	%dl, %ecx
Ltmp437:
	.loc	16 866 29
	movq	-3552(%rbp,%rcx,8), %rdi
	.loc	16 866 17 is_stmt 0
	cmpq	%r14, %rdi
	jae	LBB28_217
Ltmp438:
	.loc	16 866 43
	movzwl	2(%r15), %esi
	.loc	16 866 17
	movw	%dx, -4704(%rbp,%rdi,4)
	movw	%si, -4702(%rbp,%rdi,4)
	.loc	16 867 17 is_stmt 1
	movq	-3552(%rbp,%rcx,8), %rdx
	incq	%rdx
	je	LBB28_36
Ltmp439:
	movq	%rdx, -3552(%rbp,%rcx,8)
Ltmp440:
	.loc	20 3440 9
	addq	$4, %r15
Ltmp441:
	cmpq	%rax, %r15
	.loc	20 3570 21
	jne	LBB28_22
Ltmp442:
LBB28_25:
	.loc	16 849 12
	cmpq	%r14, %rbx
Ltmp443:
	.loc	13 505 9
	je	LBB28_26
Ltmp444:
	.loc	13 0 9 is_stmt 0
	leaq	-3552(%rbp), %rdi
Ltmp445:
	.loc	16 857 31 is_stmt 1
	movl	$2048, %esi
	callq	___bzero
Ltmp446:
	.loc	16 0 31 is_stmt 0
	movq	-56(%rbp), %r9
	xorl	%eax, %eax
Ltmp447:
	xorl	%ecx, %ecx
Ltmp448:
	.p2align	4, 0x90
LBB28_201:
	.loc	16 860 17 is_stmt 1
	movq	%rax, -3552(%rbp,%rcx,8)
	.loc	16 861 17
	addq	-6752(%rbp,%rcx,8), %rax
Ltmp449:
	jb	LBB28_16
Ltmp450:
	.loc	16 860 17
	movq	%rax, -3544(%rbp,%rcx,8)
	.loc	16 861 17
	addq	-6744(%rbp,%rcx,8), %rax
Ltmp451:
	jb	LBB28_16
Ltmp452:
	.loc	9 3013 26
	addq	$2, %rcx
Ltmp453:
	.loc	11 1136 52
	cmpq	$256, %rcx
Ltmp454:
	.loc	13 505 9
	jne	LBB28_201
Ltmp455:
	.loc	20 3440 9
	testq	%r14, %r14
	.loc	20 3570 21
	je	LBB28_209
Ltmp456:
	.loc	16 0 0 is_stmt 0
	leaq	-4704(%rbp,%r14,4), %rax
Ltmp457:
	leaq	-4704(%rbp), %rcx
Ltmp458:
	.p2align	4, 0x90
LBB28_206:
	.loc	16 866 43 is_stmt 1
	movzwl	(%rcx), %esi
Ltmp459:
	.loc	16 865 26
	movq	%rsi, %rdx
	shrq	$8, %rdx
Ltmp460:
	.loc	16 866 29
	movq	-3552(%rbp,%rdx,8), %rdi
	.loc	16 866 17 is_stmt 0
	cmpq	%r14, %rdi
	jae	LBB28_217
Ltmp461:
	.loc	16 866 43
	movzwl	2(%rcx), %ebx
	.loc	16 866 17
	movw	%si, -1504(%rbp,%rdi,4)
	movw	%bx, -1502(%rbp,%rdi,4)
	.loc	16 867 17 is_stmt 1
	movq	-3552(%rbp,%rdx,8), %rsi
	incq	%rsi
	je	LBB28_36
Ltmp462:
	movq	%rsi, -3552(%rbp,%rdx,8)
Ltmp463:
	.loc	20 3440 9
	addq	$4, %rcx
Ltmp464:
	cmpq	%rax, %rcx
	.loc	20 3570 21
	jne	LBB28_206
Ltmp465:
LBB28_209:
	.loc	20 0 21 is_stmt 0
	leaq	-1504(%rbp), %r12
Ltmp466:
LBB28_26:
	.loc	16 878 13 is_stmt 1
	testq	%r14, %r14
	je	LBB28_27
Ltmp467:
	cmpq	$1, %r14
	jne	LBB28_44
Ltmp468:
	.loc	16 879 18
	movw	$1, (%r12)
Ltmp469:
	.loc	20 622 13
	leaq	4(%r12), %rax
Ltmp470:
	.loc	20 0 13 is_stmt 0
	jmp	LBB28_39
Ltmp471:
LBB28_44:
	.loc	16 881 17 is_stmt 1
	movzwl	(%r12), %eax
	addw	4(%r12), %ax
	jb	LBB28_93
Ltmp472:
	movw	%ax, (%r12)
Ltmp473:
	.loc	16 884 32
	leaq	-1(%r14), %r8
Ltmp474:
	.loc	11 1136 52
	cmpq	$2, %r8
Ltmp475:
	.loc	13 505 9
	jb	LBB28_65
Ltmp476:
	.loc	13 0 9 is_stmt 0
	movl	$2, %ecx
Ltmp477:
	.loc	16 885 24 is_stmt 1
	movl	$2, %esi
	subq	%r14, %rsi
	movl	$1, %edi
	xorl	%eax, %eax
	jmp	LBB28_47
Ltmp478:
	.p2align	4, 0x90
LBB28_59:
	.loc	16 0 0 is_stmt 0
	cmpq	%r14, %rdi
	.loc	16 899 45 is_stmt 1
	jae	LBB28_102
Ltmp479:
	.loc	16 899 76 is_stmt 0
	movzwl	(%r12,%rcx,4), %edx
Ltmp480:
	.loc	16 899 25
	addw	%dx, (%r12,%rdi,4)
	.loc	16 900 25 is_stmt 1
	incq	%rcx
Ltmp481:
	.loc	16 0 0 is_stmt 0
	incq	%rdi
Ltmp482:
	.loc	11 1136 52 is_stmt 1
	leaq	(%rsi,%rdi), %rdx
Ltmp483:
	cmpq	$1, %rdx
Ltmp484:
	.loc	13 505 9
	je	LBB28_65
Ltmp485:
LBB28_47:
	.loc	16 885 24
	cmpq	%r14, %rcx
	jae	LBB28_50
Ltmp486:
	.loc	16 885 40 is_stmt 0
	cmpq	%r14, %rax
	jae	LBB28_94
Ltmp487:
	.loc	16 885 60
	movzwl	(%r12,%rcx,4), %edx
	.loc	16 885 39
	cmpw	%dx, (%r12,%rax,4)
	.loc	16 885 24
	jae	LBB28_53
Ltmp488:
LBB28_50:
	.loc	16 886 45 is_stmt 1
	cmpq	%r14, %rax
	jae	LBB28_96
Ltmp489:
	.loc	16 886 25 is_stmt 0
	cmpq	%r14, %rdi
	jae	LBB28_97
Ltmp490:
	.loc	16 886 45
	movzwl	(%r12,%rax,4), %edx
	.loc	16 886 25
	movw	%dx, (%r12,%rdi,4)
	.loc	16 887 25 is_stmt 1
	movw	%di, (%r12,%rax,4)
	.loc	16 888 25
	incq	%rax
Ltmp491:
	.loc	16 894 24
	cmpq	%r14, %rcx
	jb	LBB28_56
	jmp	LBB28_61
Ltmp492:
	.p2align	4, 0x90
LBB28_53:
	.loc	16 890 25
	cmpq	%r14, %rdi
	jae	LBB28_98
Ltmp493:
	movw	%dx, (%r12,%rdi,4)
	.loc	16 891 25
	incq	%rcx
Ltmp494:
	.loc	16 894 24
	cmpq	%r14, %rcx
	jae	LBB28_61
Ltmp495:
LBB28_56:
	.loc	16 894 40 is_stmt 0
	cmpq	%rdi, %rax
	.loc	16 894 39
	jae	LBB28_59
Ltmp496:
	.loc	16 894 55
	cmpq	%r14, %rax
	jae	LBB28_99
Ltmp497:
	movzwl	(%r12,%rax,4), %edx
	cmpw	(%r12,%rcx,4), %dx
	.loc	16 894 39
	jae	LBB28_59
Ltmp498:
	.p2align	4, 0x90
LBB28_61:
	.loc	16 0 0
	cmpq	%r14, %rdi
	.loc	16 895 45 is_stmt 1
	jae	LBB28_100
Ltmp499:
	.loc	16 895 76 is_stmt 0
	cmpq	%r14, %rax
	jae	LBB28_101
Ltmp500:
	movzwl	(%r12,%rax,4), %edx
Ltmp501:
	.loc	16 895 25
	addw	%dx, (%r12,%rdi,4)
	.loc	16 896 25 is_stmt 1
	movw	%di, (%r12,%rax,4)
	.loc	16 897 25
	incq	%rax
Ltmp502:
	.loc	16 0 0 is_stmt 0
	incq	%rdi
Ltmp503:
	.loc	11 1136 52 is_stmt 1
	leaq	(%rsi,%rdi), %rdx
Ltmp504:
	cmpq	$1, %rdx
Ltmp505:
	.loc	13 505 9
	jne	LBB28_47
Ltmp506:
LBB28_65:
	.loc	16 904 25
	movq	%r14, %rdi
	subq	$2, %rdi
	jb	LBB28_103
Ltmp507:
	.loc	16 904 17 is_stmt 0
	cmpq	%r14, %rdi
	jae	LBB28_104
Ltmp508:
	movw	$0, (%r12,%rdi,4)
Ltmp509:
	.loc	11 1136 52 is_stmt 1
	testq	%rdi, %rdi
Ltmp510:
	.loc	13 589 9
	je	LBB28_73
Ltmp511:
	.loc	16 906 49
	leaq	-3(%r14), %rax
Ltmp512:
	.p2align	4, 0x90
LBB28_69:
	cmpq	%r14, %rax
	jae	LBB28_105
Ltmp513:
	movzwl	(%r12,%rax,4), %ecx
	.loc	16 906 41 is_stmt 0
	cmpq	%rcx, %r14
	jbe	LBB28_106
Ltmp514:
	movzwl	(%r12,%rcx,4), %ecx
	incw	%cx
	je	LBB28_107
Ltmp515:
	.loc	16 906 21
	movw	%cx, (%r12,%rax,4)
Ltmp516:
	.loc	11 1136 52 is_stmt 1
	addq	$-1, %rax
Ltmp517:
	.loc	13 589 9
	jb	LBB28_69
Ltmp518:
LBB28_73:
	.loc	13 0 9 is_stmt 0
	movl	$1, %esi
	xorl	%ecx, %ecx
Ltmp519:
	.p2align	4, 0x90
LBB28_74:
	.loc	16 915 27 is_stmt 1
	testl	%edi, %edi
	js	LBB28_75
Ltmp520:
	.loc	16 915 43 is_stmt 0
	movl	%edi, %edi
Ltmp521:
	.loc	16 0 43
	xorl	%edx, %edx
Ltmp522:
	.p2align	4, 0x90
LBB28_83:
	.loc	16 915 43
	cmpq	%rdi, %r14
	jbe	LBB28_108
Ltmp523:
	.loc	16 915 42
	cmpw	%cx, (%r12,%rdi,4)
	.loc	16 915 27
	jne	LBB28_77
Ltmp524:
	.loc	16 916 25 is_stmt 1
	incl	%edx
	jo	LBB28_109
Ltmp525:
	.loc	16 917 25
	leaq	-1(%rdi), %rax
	.loc	16 915 27
	testq	%rdi, %rdi
	movq	%rax, %rdi
	jg	LBB28_83
Ltmp526:
	.loc	16 0 27 is_stmt 0
	movl	$-1, %edi
Ltmp527:
LBB28_77:
	.loc	16 919 27 is_stmt 1
	cmpl	%edx, %esi
	.loc	16 919 21 is_stmt 0
	jg	LBB28_78
	jmp	LBB28_88
Ltmp528:
	.p2align	4, 0x90
LBB28_75:
	.loc	16 0 0
	xorl	%edx, %edx
Ltmp529:
	.loc	16 919 27
	cmpl	%edx, %esi
	.loc	16 919 21
	jle	LBB28_88
Ltmp530:
LBB28_78:
	.loc	16 920 25 is_stmt 1
	movslq	%r8d, %rax
	movl	%eax, %r8d
Ltmp531:
	subl	%esi, %r8d
	addl	%edx, %r8d
Ltmp532:
	.p2align	4, 0x90
LBB28_79:
	cmpq	%r14, %rax
	jae	LBB28_110
Ltmp533:
	movw	%cx, (%r12,%rax,4)
Ltmp534:
	.loc	16 921 25
	movl	%eax, %ebx
	decl	%ebx
	jo	LBB28_81
Ltmp535:
	.loc	16 0 0 is_stmt 0
	decl	%esi
Ltmp536:
	.loc	16 921 25
	decq	%rax
Ltmp537:
	.loc	16 919 27 is_stmt 1
	cmpl	%edx, %esi
	.loc	16 919 21 is_stmt 0
	jg	LBB28_79
Ltmp538:
LBB28_88:
	.loc	16 924 28 is_stmt 1
	addl	%edx, %edx
Ltmp539:
	jo	LBB28_111
Ltmp540:
	.loc	16 925 21
	incw	%cx
Ltmp541:
	je	LBB28_112
Ltmp542:
	.loc	16 0 21 is_stmt 0
	movl	%edx, %esi
	.loc	16 914 23 is_stmt 1
	testl	%edx, %edx
Ltmp543:
	.loc	16 914 17 is_stmt 0
	jg	LBB28_74
Ltmp544:
	.loc	20 3440 9 is_stmt 1
	testq	%r14, %r14
	.loc	20 3570 21
	je	LBB28_27
Ltmp545:
	.loc	20 0 21 is_stmt 0
	leaq	(%r12,%r14,4), %rax
Ltmp546:
LBB28_39:
	movq	%r12, %rcx
Ltmp547:
	.p2align	4, 0x90
LBB28_40:
	.loc	16 998 27 is_stmt 1
	movzwl	(%rcx), %edi
	cmpq	$33, %rdi
	.loc	16 998 17 is_stmt 0
	jae	LBB28_189
Ltmp548:
	movl	-208(%rbp,%rdi,4), %edx
	incl	%edx
	jo	LBB28_190
Ltmp549:
	.loc	16 0 0
	addq	$4, %rcx
Ltmp550:
	.loc	16 998 17
	movl	%edx, -208(%rbp,%rdi,4)
Ltmp551:
	.loc	20 3440 9 is_stmt 1
	cmpq	%rcx, %rax
	.loc	20 3570 21
	jne	LBB28_40
Ltmp552:
	.loc	20 0 21 is_stmt 0
	movq	%r14, -48(%rbp)
Ltmp553:
	.loc	16 933 12 is_stmt 1
	cmpq	$2, %r14
	.loc	16 933 9 is_stmt 0
	jae	LBB28_29
	jmp	LBB28_152
Ltmp554:
LBB28_27:
	.loc	16 0 9
	xorl	%eax, %eax
	movq	%rax, -48(%rbp)
Ltmp555:
	.loc	16 933 12
	cmpq	$2, %r14
	.loc	16 933 9
	jb	LBB28_152
Ltmp556:
LBB28_29:
	.loc	16 937 47 is_stmt 1
	movq	%r9, %rdi
	incq	%rdi
	je	LBB28_144
Ltmp557:
	.loc	20 3251 12
	cmpq	$34, %rdi
	.loc	20 3251 9 is_stmt 0
	jae	LBB28_31
Ltmp558:
	.loc	20 0 9
	xorl	%eax, %eax
Ltmp559:
	.loc	20 3440 9 is_stmt 1
	cmpq	$33, %rdi
	.loc	20 3570 21
	je	LBB28_123
Ltmp560:
	.file	23 "/rustc/6c8927b0cf80ceee19386026cf9d7fd4fd9d486f/src/libcore/ops/arith.rs"
	.loc	23 94 45
	leaq	(,%r9,4), %rcx
	xorl	%eax, %eax
Ltmp561:
	.p2align	4, 0x90
LBB28_121:
	addl	-204(%rbp,%rcx), %eax
Ltmp562:
	jo	LBB28_212
Ltmp563:
	.loc	20 3440 9
	addq	$4, %rcx
	cmpq	$128, %rcx
	.loc	20 3570 21
	jne	LBB28_121
Ltmp564:
LBB28_123:
	.loc	16 937 9
	cmpq	$32, %r9
	ja	LBB28_145
Ltmp565:
	addl	-208(%rbp,%r9,4), %eax
	jo	LBB28_146
Ltmp566:
	movl	%eax, -208(%rbp,%r9,4)
Ltmp567:
	.loc	20 3440 9
	testq	%r9, %r9
	.loc	20 3753 21
	je	LBB28_152
Ltmp568:
	.loc	16 942 50
	leaq	-208(%rbp,%r9,4), %rsi
	xorl	%edx, %edx
	xorl	%ecx, %ecx
Ltmp569:
	.p2align	4, 0x90
LBB28_127:
	cmpq	$32, %rcx
	je	LBB28_213
Ltmp570:
	.file	24 "/rustc/6c8927b0cf80ceee19386026cf9d7fd4fd9d486f/src/libcore/iter/traits/double_ended.rs"
	.loc	24 256 21
	movl	(%rsi), %ebx
Ltmp571:
	.loc	16 942 50
	shll	%cl, %ebx
Ltmp572:
	.loc	16 942 42 is_stmt 0
	addl	%ebx, %edx
Ltmp573:
	jb	LBB28_214
Ltmp574:
	.loc	23 686 51 is_stmt 1
	incq	%rcx
Ltmp575:
	.loc	20 3440 9
	addq	$-4, %rsi
	cmpq	%rcx, %r9
	.loc	20 3753 21
	jne	LBB28_127
Ltmp576:
	.loc	16 944 18
	cmpq	$31, %r9
	ja	LBB28_147
Ltmp577:
	.loc	16 0 18 is_stmt 0
	movl	$1, %esi
	.loc	16 944 18
	movl	%r9d, %ecx
	shll	%cl, %esi
Ltmp578:
	.loc	11 1136 52 is_stmt 1
	cmpl	%edx, %esi
Ltmp579:
	.loc	13 505 9
	jae	LBB28_152
Ltmp580:
	.p2align	4, 0x90
	.loc	16 945 13
	decl	%eax
	jo	LBB28_143
Ltmp581:
LBB28_133:
	.loc	9 3013 26
	incl	%esi
Ltmp582:
	.loc	16 945 13
	movl	%eax, -208(%rbp,%r9,4)
Ltmp583:
	.loc	16 0 0 is_stmt 0
	movq	%rdi, %rbx
Ltmp584:
	.p2align	4, 0x90
LBB28_134:
	movq	%rbx, %rax
Ltmp585:
	.loc	11 1136 52 is_stmt 1
	decq	%rbx
	cmpq	$2, %rbx
Ltmp586:
	.loc	13 589 9
	jb	LBB28_141
Ltmp587:
	.loc	16 947 20
	leaq	-2(%rax), %rcx
	cmpq	$33, %rcx
	jae	LBB28_148
Ltmp588:
	movl	-216(%rbp,%rax,4), %ecx
	testl	%ecx, %ecx
	.loc	16 947 17 is_stmt 0
	je	LBB28_134
Ltmp589:
	.loc	16 948 21 is_stmt 1
	decl	%ecx
	jo	LBB28_149
Ltmp590:
	movl	%ecx, -216(%rbp,%rax,4)
	.loc	16 949 21
	cmpq	$32, %rbx
	ja	LBB28_150
Ltmp591:
	movl	-212(%rbp,%rax,4), %ecx
	addl	$2, %ecx
	jo	LBB28_151
Ltmp592:
	movl	%ecx, -212(%rbp,%rax,4)
Ltmp593:
LBB28_141:
	.loc	11 1136 52
	cmpl	%edx, %esi
Ltmp594:
	.loc	13 505 9
	je	LBB28_152
Ltmp595:
	.loc	16 945 13
	movl	-208(%rbp,%r9,4), %eax
Ltmp596:
	decl	%eax
	jno	LBB28_133
Ltmp597:
LBB28_143:
	leaq	_str.1(%rip), %rdi
	leaq	l___unnamed_29(%rip), %rdx
Ltmp598:
	movl	$33, %esi
Ltmp599:
	callq	__ZN4core9panicking5panic17h383a6b80ea7021aaE
Ltmp600:
LBB28_152:
	.loc	16 0 13 is_stmt 0
	movq	-64(%rbp), %rax
	leaq	(%rax,%rax,8), %rbx
	movq	%rbx, %r15
	shlq	$5, %r15
	leaq	3456(%r13,%r15), %rdi
Ltmp601:
	.loc	16 375 9 is_stmt 1
	movl	$288, %esi
	callq	___bzero
Ltmp602:
	.loc	16 1004 25
	shlq	$6, %rbx
	leaq	1728(%r13,%rbx), %rdi
Ltmp603:
	.loc	16 375 9
	movl	$576, %esi
	callq	___bzero
Ltmp604:
	.loc	16 0 9 is_stmt 0
	movq	-56(%rbp), %rcx
Ltmp605:
	.loc	22 514 9 is_stmt 1
	testq	%rcx, %rcx
	movq	-72(%rbp), %r10
Ltmp606:
	.loc	13 654 9
	je	LBB28_163
Ltmp607:
	.loc	16 1008 36
	addq	$2, %r12
Ltmp608:
	.loc	16 0 36 is_stmt 0
	movl	$1, %r9d
	jmp	LBB28_155
Ltmp609:
	.p2align	4, 0x90
LBB28_154:
	.loc	22 514 9 is_stmt 1
	cmpq	%rcx, %r9
	seta	%al
	orb	%r8b, %al
	movq	%r11, %r14
Ltmp610:
	.loc	13 654 9
	jne	LBB28_163
Ltmp611:
LBB28_155:
	.loc	13 0 9 is_stmt 0
	movq	%r9, %rdi
Ltmp612:
	.loc	11 1136 52 is_stmt 1
	cmpq	%rcx, %r9
	setae	%r8b
Ltmp613:
	.loc	13 658 14
	adcq	$0, %r9
Ltmp614:
	.loc	16 1008 36
	cmpq	$33, %rdi
	jae	LBB28_191
Ltmp615:
	movslq	-208(%rbp,%rdi,4), %rsi
	.loc	16 1008 29 is_stmt 0
	movq	%r14, %r11
	subq	%rsi, %r11
	jb	LBB28_192
Ltmp616:
	.loc	20 3167 12 is_stmt 1
	cmpq	%r11, %r14
	.loc	20 3167 9 is_stmt 0
	jb	LBB28_215
Ltmp617:
	.loc	20 3169 19 is_stmt 1
	cmpq	%r14, -48(%rbp)
	.loc	20 3169 16 is_stmt 0
	jb	LBB28_216
Ltmp618:
	.loc	20 3440 9 is_stmt 1
	cmpq	%r14, %r11
	.loc	20 3570 21
	je	LBB28_154
Ltmp619:
	leaq	(%r12,%r14,4), %rdx
	shlq	$2, %rsi
	negq	%rsi
Ltmp620:
	.p2align	4, 0x90
LBB28_161:
	.loc	16 1010 48
	movzwl	(%rdx,%rsi), %eax
	cmpq	$287, %rax
	.loc	16 1010 21 is_stmt 0
	ja	LBB28_193
Ltmp621:
	leaq	(%r13,%r15), %rbx
	movb	%dil, 3456(%rax,%rbx)
Ltmp622:
	.loc	20 3440 9 is_stmt 1
	addq	$4, %rsi
	jne	LBB28_161
	jmp	LBB28_154
Ltmp623:
LBB28_163:
	.loc	20 0 9 is_stmt 0
	movq	-64(%rbp), %r14
Ltmp624:
	.loc	16 1017 9 is_stmt 1
	movl	$0, -348(%rbp)
Ltmp625:
	.loc	22 514 9
	cmpq	$2, %rcx
Ltmp626:
	.loc	13 654 9
	jb	LBB28_171
Ltmp627:
LBB28_165:
	.loc	13 0 9 is_stmt 0
	movl	$2, %edi
	xorl	%esi, %esi
Ltmp628:
	.loc	13 658 14 is_stmt 1
	movl	$2, %edx
Ltmp629:
	.p2align	4, 0x90
LBB28_166:
	.loc	11 1136 52
	cmpq	%rcx, %rdi
	setae	%bl
Ltmp630:
	.loc	13 658 14
	adcq	$0, %rdx
Ltmp631:
	.loc	16 1019 32
	movq	%rdi, %rax
	subq	$1, %rax
	jb	LBB28_194
Ltmp632:
	.loc	16 1019 22 is_stmt 0
	cmpq	$32, %rax
	ja	LBB28_195
Ltmp633:
	.loc	16 1019 17
	addl	-208(%rbp,%rax,4), %esi
Ltmp634:
	jo	LBB28_196
Ltmp635:
	.loc	16 1020 13 is_stmt 1
	cmpq	$32, %rdi
	ja	LBB28_197
Ltmp636:
	.loc	16 0 0 is_stmt 0
	addl	%esi, %esi
Ltmp637:
	.loc	16 1020 13
	movl	%esi, -352(%rbp,%rdi,4)
Ltmp638:
	.loc	22 514 9 is_stmt 1
	cmpq	%rcx, %rdx
	seta	%al
	orb	%bl, %al
	movq	%rdx, %rdi
Ltmp639:
	.loc	13 654 9
	je	LBB28_166
Ltmp640:
LBB28_171:
	.file	25 "/rustc/6c8927b0cf80ceee19386026cf9d7fd4fd9d486f/src/libcore/iter/adapters/mod.rs"
	.loc	25 2196 12
	testq	%r10, %r10
	.loc	25 2196 9 is_stmt 0
	je	LBB28_184
Ltmp641:
	.loc	16 0 0
	leaq	(%r14,%r14,8), %rax
	movq	%rax, %rcx
	shlq	$5, %rcx
	leaq	3744(%r13,%rcx), %r8
Ltmp642:
	.loc	20 410 9 is_stmt 1
	shlq	$6, %rax
	leaq	1728(%r13,%rax), %r9
Ltmp643:
	.loc	20 383 9
	leaq	3456(%r13,%rcx), %rdx
Ltmp644:
	.loc	20 0 9 is_stmt 0
	jmp	LBB28_173
Ltmp645:
	.p2align	4, 0x90
LBB28_182:
	.loc	16 1040 13 is_stmt 1
	movw	%ax, (%r9)
Ltmp646:
LBB28_183:
	.loc	16 0 0 is_stmt 0
	decq	%r10
Ltmp647:
	incq	%rdx
Ltmp648:
	addq	$2, %r9
Ltmp649:
	.loc	25 2196 12 is_stmt 1
	testq	%r10, %r10
	.loc	25 2196 9 is_stmt 0
	je	LBB28_184
Ltmp650:
LBB28_173:
	.loc	20 3440 9 is_stmt 1
	cmpq	%r8, %rdx
	.loc	20 3570 21
	je	LBB28_184
Ltmp651:
	.loc	16 1023 15
	movzbl	(%rdx), %edi
	testq	%rdi, %rdi
Ltmp652:
	.loc	16 1028 13
	je	LBB28_183
Ltmp653:
	.loc	16 1032 28
	cmpb	$32, %dil
	ja	LBB28_198
Ltmp654:
	movl	-352(%rbp,%rdi,4), %esi
Ltmp655:
	.loc	16 1033 13
	movl	%esi, %eax
	incl	%eax
	je	LBB28_199
Ltmp656:
	movl	%eax, -352(%rbp,%rdi,4)
Ltmp657:
	.loc	13 505 9
	leal	-1(%rdi), %ebx
	movl	%edi, %ecx
	andb	$3, %cl
	xorl	%eax, %eax
	cmpb	$3, %bl
Ltmp658:
	jb	LBB28_180
Ltmp659:
	movl	%ecx, %ebx
	subb	%dil, %bl
	xorl	%eax, %eax
Ltmp660:
	.p2align	4, 0x90
LBB28_179:
	.loc	16 1037 28
	movl	%esi, %edi
	andl	$1, %edi
	shll	$2, %edi
	leal	(%rdi,%rax,8), %eax
	.loc	16 1037 46 is_stmt 0
	movl	%esi, %edi
	andl	$2, %edi
	.loc	16 1037 17
	orl	%eax, %edi
Ltmp661:
	.loc	16 1038 17 is_stmt 1
	movl	%esi, %eax
	shrl	$2, %eax
Ltmp662:
	.loc	16 1037 46
	andl	$1, %eax
Ltmp663:
	.loc	16 1037 17 is_stmt 0
	orl	%edi, %eax
Ltmp664:
	.loc	16 1038 17 is_stmt 1
	movl	%esi, %edi
	shrl	$3, %edi
Ltmp665:
	.loc	16 1037 46
	andl	$1, %edi
Ltmp666:
	.loc	16 1037 17 is_stmt 0
	leal	(%rdi,%rax,2), %eax
Ltmp667:
	.loc	16 1038 17 is_stmt 1
	shrl	$4, %esi
Ltmp668:
	.loc	13 505 9
	addb	$4, %bl
	jne	LBB28_179
Ltmp669:
LBB28_180:
	testb	%cl, %cl
	je	LBB28_182
Ltmp670:
	.p2align	4, 0x90
LBB28_181:
	.loc	16 1037 46
	movl	%esi, %edi
	andl	$1, %edi
	.loc	16 1037 17 is_stmt 0
	leal	(%rdi,%rax,2), %eax
Ltmp671:
	.loc	16 1038 17 is_stmt 1
	shrl	%esi
Ltmp672:
	.loc	13 505 9
	decb	%cl
	jne	LBB28_181
	jmp	LBB28_182
Ltmp673:
LBB28_184:
	.loc	16 1042 6
	addq	$8760, %rsp
	popq	%rbx
	popq	%r12
	popq	%r13
Ltmp674:
	popq	%r14
	popq	%r15
	popq	%rbp
	retq
LBB28_193:
Ltmp675:
	.loc	16 1010 21
	leaq	l___unnamed_30(%rip), %rdx
	movl	$288, %esi
	movq	%rax, %rdi
Ltmp676:
	callq	__ZN4core9panicking18panic_bounds_check17he87128426d100e93E
Ltmp677:
LBB28_110:
	.loc	16 920 25
	leaq	l___unnamed_31(%rip), %rdx
Ltmp678:
	.loc	16 0 0 is_stmt 0
	movq	%rax, %rdi
Ltmp679:
	movq	%r14, %rsi
Ltmp680:
	callq	__ZN4core9panicking18panic_bounds_check17he87128426d100e93E
Ltmp681:
LBB28_81:
	.loc	16 921 25 is_stmt 1
	leaq	_str.1(%rip), %rdi
Ltmp682:
	leaq	l___unnamed_32(%rip), %rdx
Ltmp683:
	movl	$33, %esi
Ltmp684:
	callq	__ZN4core9panicking5panic17h383a6b80ea7021aaE
Ltmp685:
LBB28_108:
	.loc	16 915 51
	movl	%edi, %edi
Ltmp686:
	.loc	16 915 43 is_stmt 0
	leaq	l___unnamed_33(%rip), %rdx
	movq	%r14, %rsi
Ltmp687:
	callq	__ZN4core9panicking18panic_bounds_check17he87128426d100e93E
Ltmp688:
LBB28_109:
	.loc	16 916 25 is_stmt 1
	leaq	_str.0(%rip), %rdi
Ltmp689:
	leaq	l___unnamed_34(%rip), %rdx
	movl	$28, %esi
Ltmp690:
	callq	__ZN4core9panicking5panic17h383a6b80ea7021aaE
Ltmp691:
LBB28_16:
	.loc	16 861 17
	leaq	_str.0(%rip), %rdi
	leaq	l___unnamed_35(%rip), %rdx
	movl	$28, %esi
	callq	__ZN4core9panicking5panic17h383a6b80ea7021aaE
Ltmp692:
LBB28_148:
	.loc	16 947 20
	leaq	l___unnamed_36(%rip), %rdx
Ltmp693:
	movl	$33, %esi
	movq	%rcx, %rdi
	callq	__ZN4core9panicking18panic_bounds_check17he87128426d100e93E
Ltmp694:
LBB28_194:
	.loc	16 1019 32
	leaq	_str.1(%rip), %rdi
Ltmp695:
	leaq	l___unnamed_37(%rip), %rdx
	movl	$33, %esi
Ltmp696:
	callq	__ZN4core9panicking5panic17h383a6b80ea7021aaE
Ltmp697:
LBB28_195:
	.loc	16 1019 22 is_stmt 0
	leaq	l___unnamed_38(%rip), %rdx
	movl	$33, %esi
Ltmp698:
	movq	%rax, %rdi
Ltmp699:
	callq	__ZN4core9panicking18panic_bounds_check17he87128426d100e93E
Ltmp700:
LBB28_196:
	.loc	16 1019 17
	leaq	_str.0(%rip), %rdi
Ltmp701:
	leaq	l___unnamed_39(%rip), %rdx
	movl	$28, %esi
	callq	__ZN4core9panicking5panic17h383a6b80ea7021aaE
Ltmp702:
LBB28_197:
	.loc	16 1020 13 is_stmt 1
	leaq	l___unnamed_40(%rip), %rdx
	movl	$33, %esi
	callq	__ZN4core9panicking18panic_bounds_check17he87128426d100e93E
Ltmp703:
LBB28_217:
	.loc	16 866 17
	leaq	l___unnamed_41(%rip), %rdx
	movq	%r14, %rsi
	callq	__ZN4core9panicking18panic_bounds_check17he87128426d100e93E
Ltmp704:
LBB28_36:
	.loc	16 867 17
	leaq	_str.0(%rip), %rdi
	leaq	l___unnamed_42(%rip), %rdx
	movl	$28, %esi
	callq	__ZN4core9panicking5panic17h383a6b80ea7021aaE
Ltmp705:
LBB28_185:
	.loc	16 968 17
	leaq	l___unnamed_43(%rip), %rdx
	movl	$33, %esi
	callq	__ZN4core9panicking18panic_bounds_check17he87128426d100e93E
Ltmp706:
LBB28_186:
	leaq	_str.0(%rip), %rdi
	leaq	l___unnamed_43(%rip), %rdx
	movl	$28, %esi
	callq	__ZN4core9panicking5panic17h383a6b80ea7021aaE
Ltmp707:
LBB28_187:
	.loc	16 982 20
	leaq	l___unnamed_44(%rip), %rdx
	movl	$288, %edi
	movl	$288, %esi
Ltmp708:
	callq	__ZN4core9panicking18panic_bounds_check17he87128426d100e93E
Ltmp709:
LBB28_191:
	.loc	16 1008 36
	leaq	l___unnamed_45(%rip), %rdx
	movl	$33, %esi
	callq	__ZN4core9panicking18panic_bounds_check17he87128426d100e93E
Ltmp710:
LBB28_192:
	.loc	16 1008 29 is_stmt 0
	leaq	_str.1(%rip), %rdi
Ltmp711:
	leaq	l___unnamed_46(%rip), %rdx
	movl	$33, %esi
	callq	__ZN4core9panicking5panic17h383a6b80ea7021aaE
Ltmp712:
LBB28_215:
	.loc	20 3168 13 is_stmt 1
	leaq	l___unnamed_47(%rip), %rdx
	movq	%r11, %rdi
Ltmp713:
	movq	%r14, %rsi
	callq	__ZN4core5slice22slice_index_order_fail17h65298a4d6b795c79E
Ltmp714:
LBB28_216:
	.loc	20 3170 13
	leaq	l___unnamed_47(%rip), %rdx
	movq	%r14, %rdi
Ltmp715:
	.loc	20 0 13 is_stmt 0
	movq	-48(%rbp), %rsi
	.loc	20 3170 13
	callq	__ZN4core5slice24slice_end_index_len_fail17hea9e3399ed430f80E
Ltmp716:
LBB28_189:
	.loc	16 998 17 is_stmt 1
	leaq	l___unnamed_48(%rip), %rdx
	movl	$33, %esi
	callq	__ZN4core9panicking18panic_bounds_check17he87128426d100e93E
Ltmp717:
LBB28_190:
	leaq	_str.0(%rip), %rdi
	leaq	l___unnamed_48(%rip), %rdx
	movl	$28, %esi
	callq	__ZN4core9panicking5panic17h383a6b80ea7021aaE
Ltmp718:
LBB28_34:
	.loc	16 844 13
	leaq	_str.0(%rip), %rdi
	leaq	l___unnamed_49(%rip), %rdx
	movl	$28, %esi
	callq	__ZN4core9panicking5panic17h383a6b80ea7021aaE
Ltmp719:
LBB28_35:
	.loc	16 845 13
	leaq	_str.0(%rip), %rdi
	leaq	l___unnamed_50(%rip), %rdx
	movl	$28, %esi
	callq	__ZN4core9panicking5panic17h383a6b80ea7021aaE
Ltmp720:
LBB28_198:
	.loc	16 1032 28
	leaq	l___unnamed_51(%rip), %rdx
Ltmp721:
	movl	$33, %esi
	callq	__ZN4core9panicking18panic_bounds_check17he87128426d100e93E
Ltmp722:
LBB28_199:
	.loc	16 1033 13
	leaq	_str.0(%rip), %rdi
	leaq	l___unnamed_52(%rip), %rdx
Ltmp723:
	movl	$28, %esi
Ltmp724:
	callq	__ZN4core9panicking5panic17h383a6b80ea7021aaE
Ltmp725:
LBB28_111:
	.loc	16 924 28
	leaq	_str.3(%rip), %rdi
Ltmp726:
	leaq	l___unnamed_53(%rip), %rdx
	movl	$33, %esi
Ltmp727:
	callq	__ZN4core9panicking5panic17h383a6b80ea7021aaE
Ltmp728:
LBB28_112:
	.loc	16 925 21
	leaq	_str.0(%rip), %rdi
Ltmp729:
	leaq	l___unnamed_54(%rip), %rdx
Ltmp730:
	movl	$28, %esi
	callq	__ZN4core9panicking5panic17h383a6b80ea7021aaE
Ltmp731:
LBB28_213:
	.loc	16 942 50
	leaq	_str.5(%rip), %rdi
	leaq	l___unnamed_55(%rip), %rdx
Ltmp732:
	movl	$35, %esi
	callq	__ZN4core9panicking5panic17h383a6b80ea7021aaE
Ltmp733:
LBB28_214:
	.loc	16 942 42 is_stmt 0
	leaq	_str.0(%rip), %rdi
	leaq	l___unnamed_56(%rip), %rdx
	movl	$28, %esi
	callq	__ZN4core9panicking5panic17h383a6b80ea7021aaE
Ltmp734:
LBB28_212:
	.loc	23 94 45 is_stmt 1
	leaq	_str.0(%rip), %rdi
	leaq	l___unnamed_57(%rip), %rdx
	movl	$28, %esi
	callq	__ZN4core9panicking5panic17h383a6b80ea7021aaE
Ltmp735:
LBB28_105:
	.loc	16 906 49
	leaq	l___unnamed_58(%rip), %rdx
Ltmp736:
	.loc	16 0 0 is_stmt 0
	movq	%rax, %rdi
Ltmp737:
	movq	%r14, %rsi
	callq	__ZN4core9panicking18panic_bounds_check17he87128426d100e93E
Ltmp738:
LBB28_106:
	.loc	16 906 41
	leaq	l___unnamed_59(%rip), %rdx
	movq	%rcx, %rdi
Ltmp739:
	movq	%r14, %rsi
	callq	__ZN4core9panicking18panic_bounds_check17he87128426d100e93E
Ltmp740:
LBB28_107:
	leaq	_str.0(%rip), %rdi
Ltmp741:
	leaq	l___unnamed_59(%rip), %rdx
	movl	$28, %esi
	callq	__ZN4core9panicking5panic17h383a6b80ea7021aaE
Ltmp742:
LBB28_96:
	.loc	16 886 45 is_stmt 1
	leaq	l___unnamed_60(%rip), %rdx
Ltmp743:
	.loc	16 0 0 is_stmt 0
	movq	%rax, %rdi
Ltmp744:
	movq	%r14, %rsi
	callq	__ZN4core9panicking18panic_bounds_check17he87128426d100e93E
Ltmp745:
LBB28_97:
	.loc	16 886 25
	leaq	l___unnamed_61(%rip), %rdx
	movq	%r14, %rsi
	callq	__ZN4core9panicking18panic_bounds_check17he87128426d100e93E
Ltmp746:
LBB28_100:
	.loc	16 895 45 is_stmt 1
	leaq	l___unnamed_62(%rip), %rdx
	movq	%r14, %rsi
	callq	__ZN4core9panicking18panic_bounds_check17he87128426d100e93E
Ltmp747:
LBB28_101:
	.loc	16 895 76 is_stmt 0
	leaq	l___unnamed_63(%rip), %rdx
Ltmp748:
	.loc	16 0 0
	movq	%rax, %rdi
Ltmp749:
	movq	%r14, %rsi
	callq	__ZN4core9panicking18panic_bounds_check17he87128426d100e93E
Ltmp750:
LBB28_94:
	.loc	16 885 40 is_stmt 1
	leaq	l___unnamed_64(%rip), %rdx
Ltmp751:
	.loc	16 0 0 is_stmt 0
	movq	%rax, %rdi
Ltmp752:
	movq	%r14, %rsi
	callq	__ZN4core9panicking18panic_bounds_check17he87128426d100e93E
Ltmp753:
LBB28_149:
	.loc	16 948 21 is_stmt 1
	leaq	_str.1(%rip), %rdi
	leaq	l___unnamed_65(%rip), %rdx
Ltmp754:
	movl	$33, %esi
	callq	__ZN4core9panicking5panic17h383a6b80ea7021aaE
Ltmp755:
LBB28_150:
	.loc	16 949 21
	leaq	l___unnamed_66(%rip), %rdx
Ltmp756:
	movl	$33, %esi
	movq	%rbx, %rdi
	callq	__ZN4core9panicking18panic_bounds_check17he87128426d100e93E
Ltmp757:
LBB28_151:
	leaq	_str.0(%rip), %rdi
	leaq	l___unnamed_66(%rip), %rdx
Ltmp758:
	movl	$28, %esi
	callq	__ZN4core9panicking5panic17h383a6b80ea7021aaE
Ltmp759:
LBB28_102:
	.loc	16 899 45
	leaq	l___unnamed_67(%rip), %rdx
	movq	%r14, %rsi
	callq	__ZN4core9panicking18panic_bounds_check17he87128426d100e93E
Ltmp760:
LBB28_98:
	.loc	16 890 25
	leaq	l___unnamed_68(%rip), %rdx
	movq	%r14, %rsi
	callq	__ZN4core9panicking18panic_bounds_check17he87128426d100e93E
Ltmp761:
LBB28_99:
	.loc	16 894 55
	leaq	l___unnamed_69(%rip), %rdx
Ltmp762:
	.loc	16 0 0 is_stmt 0
	movq	%rax, %rdi
Ltmp763:
	movq	%r14, %rsi
	callq	__ZN4core9panicking18panic_bounds_check17he87128426d100e93E
Ltmp764:
LBB28_210:
	.loc	20 3170 13 is_stmt 1
	leaq	l___unnamed_70(%rip), %rdx
	movl	$288, %esi
	movq	%r10, %rdi
	callq	__ZN4core5slice24slice_end_index_len_fail17hea9e3399ed430f80E
Ltmp765:
LBB28_211:
	.loc	20 3180 13
	leaq	l___unnamed_71(%rip), %rdx
	movl	$288, %esi
Ltmp766:
	movq	%r14, %rdi
	callq	__ZN4core5slice24slice_end_index_len_fail17hea9e3399ed430f80E
Ltmp767:
LBB28_144:
	.loc	16 937 47
	leaq	_str.0(%rip), %rdi
	leaq	l___unnamed_72(%rip), %rdx
	movl	$28, %esi
	callq	__ZN4core9panicking5panic17h383a6b80ea7021aaE
Ltmp768:
LBB28_31:
	.loc	20 3252 13
	leaq	l___unnamed_73(%rip), %rdx
	movl	$33, %esi
	callq	__ZN4core5slice26slice_start_index_len_fail17h787e2f1bbfc1d2f3E
Ltmp769:
LBB28_145:
	.loc	16 937 9
	leaq	l___unnamed_74(%rip), %rdx
	movl	$33, %esi
	movq	%r9, %rdi
	callq	__ZN4core9panicking18panic_bounds_check17he87128426d100e93E
Ltmp770:
LBB28_146:
	leaq	_str.0(%rip), %rdi
	leaq	l___unnamed_74(%rip), %rdx
	movl	$28, %esi
	callq	__ZN4core9panicking5panic17h383a6b80ea7021aaE
Ltmp771:
LBB28_93:
	.loc	16 881 17
	leaq	_str.0(%rip), %rdi
	leaq	l___unnamed_75(%rip), %rdx
	movl	$28, %esi
	callq	__ZN4core9panicking5panic17h383a6b80ea7021aaE
Ltmp772:
LBB28_103:
	.loc	16 904 25
	leaq	_str.1(%rip), %rdi
	leaq	l___unnamed_76(%rip), %rdx
	movl	$33, %esi
	callq	__ZN4core9panicking5panic17h383a6b80ea7021aaE
Ltmp773:
LBB28_104:
	.loc	16 904 17 is_stmt 0
	leaq	l___unnamed_77(%rip), %rdx
	movq	%r14, %rsi
	callq	__ZN4core9panicking18panic_bounds_check17he87128426d100e93E
Ltmp774:
LBB28_147:
	.loc	16 944 18 is_stmt 1
	leaq	_str.5(%rip), %rdi
	leaq	l___unnamed_78(%rip), %rdx
Ltmp775:
	movl	$35, %esi
	callq	__ZN4core9panicking5panic17h383a6b80ea7021aaE
Ltmp776:
Lfunc_end28:
	.cfi_endproc
	.file	26 "/rustc/6c8927b0cf80ceee19386026cf9d7fd4fd9d486f/src/libcore/iter/traits/iterator.rs"
	.file	27 "/rustc/6c8927b0cf80ceee19386026cf9d7fd4fd9d486f/src/libcore/iter/traits/accum.rs"
	.file	28 "/rustc/6c8927b0cf80ceee19386026cf9d7fd4fd9d486f/src/libcore/internal_macros.rs"
	.file	29 "/rustc/6c8927b0cf80ceee19386026cf9d7fd4fd9d486f/src/libcore/ops/function.rs"
	.file	30 "/rustc/6c8927b0cf80ceee19386026cf9d7fd4fd9d486f/src/libcore/iter/adapters/zip.rs"

	.globl	__ZN11miniz_oxide7deflate4core9DictOxide3new17hea31910a44ba2e40E
	.p2align	4, 0x90
__ZN11miniz_oxide7deflate4core9DictOxide3new17hea31910a44ba2e40E:
Lfunc_begin29:
	.loc	16 1195 0
	.cfi_startproc
	pushq	%rbp
	.cfi_def_cfa_offset 16
	.cfi_offset %rbp, -16
	movq	%rsp, %rbp
	.cfi_def_cfa_register %rbp
	pushq	%r15
	pushq	%r14
	pushq	%r12
	pushq	%rbx
	.cfi_offset %rbx, -48
	.cfi_offset %r12, -40
	.cfi_offset %r14, -32
	.cfi_offset %r15, -24
	movl	%esi, %r12d
Ltmp777:
	movq	%rdi, %r15
Ltmp778:
	.loc	6 80 14 prologue_end
	movl	$164098, %edi
	movl	$2, %esi
	callq	___rust_alloc
Ltmp779:
	.loc	6 278 9
	testq	%rax, %rax
	je	LBB29_2
Ltmp780:
	.loc	16 0 0 is_stmt 0
	movq	%rax, %r14
	andl	$4095, %r12d
Ltmp781:
	.loc	16 1189 13 is_stmt 1
	imull	$43691, %r12d, %ebx
	.loc	16 1190 14
	shrl	$2, %r12d
	.loc	16 1190 13 is_stmt 0
	imull	$43691, %r12d, %eax
	addl	$87382, %eax
	shrl	$17, %eax
	.loc	16 1190 9
	incl	%eax
	.loc	16 1192 2 is_stmt 1
	shlq	$32, %rax
	.loc	16 1189 13
	addl	$87382, %ebx
	shrl	$17, %ebx
	.loc	16 1189 9 is_stmt 0
	incl	%ebx
	.loc	16 1192 2 is_stmt 1
	orq	%rax, %rbx
Ltmp782:
	.loc	15 39 9
	movl	$164098, %esi
	movq	%r14, %rdi
	callq	___bzero
Ltmp783:
	.loc	16 1196 9
	movq	%rbx, 40(%r15)
	movq	%r14, (%r15)
	movq	$0, 8(%r15)
	movq	$0, 16(%r15)
	movq	$0, 24(%r15)
	movq	$0, 32(%r15)
	.loc	16 1204 6
	movq	%r15, %rax
	popq	%rbx
	popq	%r12
	popq	%r14
	popq	%r15
	popq	%rbp
	retq
LBB29_2:
Ltmp784:
	.loc	6 279 19
	movl	$164098, %edi
	movl	$2, %esi
	callq	__ZN5alloc5alloc18handle_alloc_error17h28974197717b8939E
Ltmp785:
Lfunc_end29:
	.cfi_endproc

	.globl	__ZN11miniz_oxide7deflate4core11ParamsOxide3new17h5e03c41912688878E
	.p2align	4, 0x90
__ZN11miniz_oxide7deflate4core11ParamsOxide3new17h5e03c41912688878E:
Lfunc_begin30:
	.loc	16 1390 0
	.cfi_startproc
	pushq	%rbp
	.cfi_def_cfa_offset 16
	.cfi_offset %rbp, -16
	movq	%rsp, %rbp
	.cfi_def_cfa_register %rbp
	pushq	%r15
	pushq	%r14
	pushq	%rbx
	pushq	%rax
	.cfi_offset %rbx, -40
	.cfi_offset %r14, -32
	.cfi_offset %r15, -24
	movl	%esi, %r15d
	movq	%rdi, %rbx
Ltmp786:
	.loc	6 80 14 prologue_end
	movl	$85196, %edi
	movl	$1, %esi
	callq	___rust_alloc
Ltmp787:
	.loc	6 278 9
	testq	%rax, %rax
	je	LBB30_2
Ltmp788:
	.loc	17 0 0 is_stmt 0
	movq	%rax, %r14
Ltmp789:
	.loc	15 54 16 is_stmt 1
	movl	$85196, %esi
	movq	%rax, %rdi
	callq	___bzero
Ltmp790:
	.loc	16 1391 9
	movl	%r15d, 24(%rbx)
	shrl	$14, %r15d
Ltmp791:
	andb	$1, %r15b
	movb	%r15b, 64(%rbx)
	movw	$0, 65(%rbx)
	movb	$0, 67(%rbx)
	movq	$0, 28(%rbx)
	movq	$0, 36(%rbx)
	movl	$0, 44(%rbx)
	movl	$1, %eax
	movd	%eax, %xmm0
	movdqu	%xmm0, 48(%rbx)
	movq	$0, (%rbx)
	movq	$0, 8(%rbx)
	movq	%r14, 16(%rbx)
	.loc	16 1410 6
	movq	%rbx, %rax
	addq	$8, %rsp
	popq	%rbx
	popq	%r14
	popq	%r15
	popq	%rbp
	retq
LBB30_2:
Ltmp792:
	.loc	6 279 19
	movl	$85196, %edi
	movl	$1, %esi
	callq	__ZN5alloc5alloc18handle_alloc_error17h28974197717b8939E
Ltmp793:
Lfunc_end30:
	.cfi_endproc

	.globl	__ZN11miniz_oxide7deflate4core7LZOxide3new17hb378788f42621e56E
	.p2align	4, 0x90
__ZN11miniz_oxide7deflate4core7LZOxide3new17hb378788f42621e56E:
Lfunc_begin31:
	.loc	16 1449 0
	.cfi_startproc
	pushq	%rbp
	.cfi_def_cfa_offset 16
	.cfi_offset %rbp, -16
	movq	%rsp, %rbp
	.cfi_def_cfa_register %rbp
	pushq	%rbx
	pushq	%rax
	.cfi_offset %rbx, -24
	movq	%rdi, %rbx
Ltmp794:
	.loc	16 1450 9 prologue_end
	addq	$24, %rdi
	movl	$65536, %esi
	callq	___bzero
	movl	$1, %eax
	movq	%rax, %xmm0
	movdqu	%xmm0, (%rbx)
	movabsq	$34359738368, %rax
	movq	%rax, 16(%rbx)
	.loc	16 1457 6
	movq	%rbx, %rax
	addq	$8, %rsp
	popq	%rbx
	popq	%rbp
	retq
Ltmp795:
Lfunc_end31:
	.cfi_endproc

	.p2align	4, 0x90
__ZN11miniz_oxide7deflate4core14compress_block17h0518d2a88c21f8ceE:
Lfunc_begin32:
	.loc	16 1589 0
	.cfi_startproc
	pushq	%rbp
	.cfi_def_cfa_offset 16
	.cfi_offset %rbp, -16
	movq	%rsp, %rbp
	.cfi_def_cfa_register %rbp
	pushq	%r15
	pushq	%r14
	pushq	%r13
	pushq	%r12
	pushq	%rbx
	subq	$872, %rsp
	.cfi_offset %rbx, -56
	.cfi_offset %r12, -48
	.cfi_offset %r13, -40
	.cfi_offset %r14, -32
	.cfi_offset %r15, -24
	movq	%rdx, -80(%rbp)
	movq	%rdi, %r12
Ltmp796:
	.loc	16 1595 5 prologue_end
	testl	%ecx, %ecx
	movq	%rsi, -72(%rbp)
Ltmp797:
	je	LBB32_1
Ltmp798:
	.loc	16 0 5 is_stmt 0
	movq	%rsi, %rbx
Ltmp799:
	leaq	3456(%r12), %rdi
Ltmp800:
	.loc	16 375 9 is_stmt 1
	movl	$144, %edx
	movl	$8, %esi
	callq	_memset
Ltmp801:
	.loc	16 0 9 is_stmt 0
	movabsq	$651061555542690057, %rax
Ltmp802:
	.loc	16 375 9
	movq	%rax, 3600(%r12)
	movq	%rax, 3608(%r12)
	movq	%rax, 3616(%r12)
	movq	%rax, 3624(%r12)
	movq	%rax, 3632(%r12)
	movq	%rax, 3640(%r12)
	movq	%rax, 3648(%r12)
	movq	%rax, 3656(%r12)
	movq	%rax, 3664(%r12)
	movq	%rax, 3672(%r12)
	movq	%rax, 3680(%r12)
	movq	%rax, 3688(%r12)
	movq	%rax, 3696(%r12)
	movq	%rax, 3704(%r12)
	movabsq	$506381209866536711, %rax
Ltmp803:
	.loc	16 375 9
	movq	%rax, 3712(%r12)
	movq	%rax, 3720(%r12)
	movq	%rax, 3728(%r12)
	movabsq	$578721382704613384, %rax
Ltmp804:
	.loc	16 375 9
	movq	%rax, 3736(%r12)
	movabsq	$361700864190383365, %rax
Ltmp805:
	.loc	16 375 9
	movq	%rax, 3768(%r12)
	movq	%rax, 3760(%r12)
	movq	%rax, 3752(%r12)
	movq	%rax, 3744(%r12)
Ltmp806:
	.loc	16 1052 9 is_stmt 1
	movl	$288, %edx
	movl	$15, %ecx
	movq	%r12, %rdi
	xorl	%esi, %esi
	movl	$1, %r8d
	callq	__ZN11miniz_oxide7deflate4core12HuffmanOxide14optimize_table17h86d27a3255ecbfccE
	.loc	16 1053 9
	movl	$1, %esi
	movl	$32, %edx
	movl	$15, %ecx
	movq	%r12, %rdi
	movl	$1, %r8d
	callq	__ZN11miniz_oxide7deflate4core12HuffmanOxide14optimize_table17h86d27a3255ecbfccE
	.loc	16 1055 9
	movq	%rbx, %rdi
	movl	$1, %esi
	movl	$2, %edx
	callq	__ZN11miniz_oxide7deflate4core17OutputBufferOxide8put_bits17hf668fc4ddb341623E
Ltmp807:
LBB32_135:
	.loc	16 0 9 is_stmt 0
	movq	-80(%rbp), %rax
	.loc	16 1601 49 is_stmt 1
	movq	(%rax), %r8
Ltmp808:
	.loc	20 3169 19
	cmpq	$65537, %r8
	.loc	20 3169 16 is_stmt 0
	jae	LBB32_197
Ltmp809:
	.loc	20 0 16
	movq	-72(%rbp), %r9
Ltmp810:
	.loc	16 1498 31 is_stmt 1
	movl	24(%r9), %r14d
Ltmp811:
	.loc	16 1499 18
	movl	28(%r9), %ecx
Ltmp812:
	.loc	16 1503 11
	testq	%r8, %r8
	.loc	16 1503 5 is_stmt 0
	je	LBB32_137
Ltmp813:
	.loc	16 0 5
	movl	$1, %r11d
	xorl	%edi, %edi
Ltmp814:
	.p2align	4, 0x90
LBB32_144:
	.loc	16 1504 12 is_stmt 1
	cmpl	$1, %r11d
	.loc	16 1504 9 is_stmt 0
	jne	LBB32_146
Ltmp815:
	.loc	16 0 9
	movq	-80(%rbp), %rax
	.loc	16 1505 31 is_stmt 1
	movzbl	24(%rax,%rdi), %r11d
Ltmp816:
	.loc	16 1506 13
	incq	%rdi
Ltmp817:
	.loc	16 1505 13
	orl	$256, %r11d
Ltmp818:
LBB32_146:
	.loc	16 1510 9
	testb	$1, %r11b
	jne	LBB32_150
Ltmp819:
	.loc	16 1553 27
	cmpq	%r8, %rdi
	jae	LBB32_189
Ltmp820:
	.loc	16 0 27 is_stmt 0
	movq	-80(%rbp), %rax
	.loc	16 1553 27
	movzbl	24(%rax,%rdi), %ebx
Ltmp821:
	.loc	16 1556 31 is_stmt 1
	movzbl	3456(%r12,%rbx), %esi
	testq	%rsi, %rsi
	.loc	16 1556 17 is_stmt 0
	je	LBB32_149
Ltmp822:
	.loc	16 716 28 is_stmt 1
	cmpl	$63, %ecx
Ltmp823:
	ja	LBB32_178
Ltmp824:
	.loc	16 0 0 is_stmt 0
	movl	%r11d, %eax
	shrl	%eax
Ltmp825:
	leaq	1(%rdi), %rdx
Ltmp826:
	.loc	16 1558 31 is_stmt 1
	movzwl	1728(%r12,%rbx,2), %r13d
Ltmp827:
	.loc	16 716 28
	shlq	%cl, %r13
Ltmp828:
	movl	%ecx, %r15d
Ltmp829:
	.loc	16 716 9 is_stmt 0
	orq	%r14, %r13
Ltmp830:
	.loc	16 717 9 is_stmt 1
	addq	%rsi, %r15
Ltmp831:
	.loc	16 1562 38
	cmpq	%r8, %rdx
	.loc	16 1562 20 is_stmt 0
	jae	LBB32_174
Ltmp832:
	movl	%r11d, %ecx
	andl	$2, %ecx
	jne	LBB32_174
Ltmp833:
	.loc	16 0 20
	movq	-80(%rbp), %rax
	.loc	16 1553 27 is_stmt 1
	movzbl	25(%rax,%rdi), %ecx
Ltmp834:
	.loc	16 1556 31
	movzbl	3456(%r12,%rcx), %esi
	testq	%rsi, %rsi
	.loc	16 1556 17 is_stmt 0
	je	LBB32_149
Ltmp835:
	.loc	16 716 28 is_stmt 1
	cmpl	$63, %r15d
Ltmp836:
	ja	LBB32_178
Ltmp837:
	.loc	16 0 0 is_stmt 0
	movl	%r11d, %eax
	shrl	$2, %eax
Ltmp838:
	leaq	2(%rdi), %rdx
Ltmp839:
	.loc	16 1558 31 is_stmt 1
	movzwl	1728(%r12,%rcx,2), %ebx
Ltmp840:
	.loc	16 716 28
	movl	%r15d, %ecx
	shlq	%cl, %rbx
Ltmp841:
	.loc	16 716 9 is_stmt 0
	orq	%rbx, %r13
Ltmp842:
	.loc	16 716 28
	movl	%r15d, %r15d
Ltmp843:
	.loc	16 717 9 is_stmt 1
	addq	%rsi, %r15
Ltmp844:
	.loc	16 1562 38
	cmpq	%r8, %rdx
	.loc	16 1562 20 is_stmt 0
	jae	LBB32_174
Ltmp845:
	movl	%r11d, %ecx
	andl	$4, %ecx
	jne	LBB32_174
Ltmp846:
	.loc	16 0 20
	movq	-80(%rbp), %rax
	.loc	16 1553 27 is_stmt 1
	movzbl	26(%rax,%rdi), %ecx
Ltmp847:
	.loc	16 1556 31
	movzbl	3456(%r12,%rcx), %eax
	testl	%eax, %eax
	.loc	16 1556 17 is_stmt 0
	je	LBB32_149
Ltmp848:
	.loc	16 716 28 is_stmt 1
	cmpl	$63, %r15d
Ltmp849:
	ja	LBB32_178
Ltmp850:
	.loc	16 0 0 is_stmt 0
	addq	$3, %rdi
Ltmp851:
	movl	%r11d, %edx
	shrl	$3, %edx
Ltmp852:
	.loc	16 1558 31 is_stmt 1
	movzwl	1728(%r12,%rcx,2), %esi
Ltmp853:
	.loc	16 716 28
	movl	%r15d, %ecx
	shlq	%cl, %rsi
	.loc	16 716 9 is_stmt 0
	orq	%rsi, %r13
Ltmp854:
	.loc	16 717 9 is_stmt 1
	addl	%r15d, %eax
Ltmp855:
	.loc	16 1562 20
	testb	$8, %r11b
	movq	%rdi, %rcx
	cmoveq	%rdi, %rcx
	.loc	16 1562 38 is_stmt 0
	cmpq	%r8, %rdi
	.loc	16 1562 20
	cmovbq	%rcx, %rdi
Ltmp856:
	.loc	16 0 0
	movl	%eax, %r15d
Ltmp857:
	movl	%edx, %r11d
Ltmp858:
	jmp	LBB32_169
Ltmp859:
	.p2align	4, 0x90
LBB32_150:
	.loc	16 1516 29 is_stmt 1
	cmpq	%r8, %rdi
	jae	LBB32_184
Ltmp860:
	.loc	16 1518 55
	leaq	1(%rdi), %rax
Ltmp861:
	.loc	16 390 5
	cmpq	%r8, %rax
	jae	LBB32_154
Ltmp862:
	.loc	16 390 33 is_stmt 0
	leaq	2(%rdi), %rax
Ltmp863:
	.loc	16 390 27
	cmpq	%r8, %rax
	jae	LBB32_153
Ltmp864:
	.loc	16 0 27
	movq	-80(%rbp), %rax
	movzbl	24(%rax,%rdi), %edx
Ltmp865:
	.loc	16 1522 46 is_stmt 1
	leaq	l___unnamed_79(%rip), %rax
Ltmp866:
	movzwl	(%rax,%rdx,2), %eax
	cmpq	$287, %rax
	.loc	16 1522 27 is_stmt 0
	ja	LBB32_185
Ltmp867:
	movzbl	3456(%r12,%rax), %esi
	testq	%rsi, %rsi
	.loc	16 1522 13
	je	LBB32_198
Ltmp868:
	.loc	16 716 28 is_stmt 1
	cmpl	$63, %ecx
Ltmp869:
	ja	LBB32_178
Ltmp870:
	.loc	16 1524 27
	movzwl	1728(%r12,%rax,2), %r10d
Ltmp871:
	.loc	16 716 28
	shlq	%cl, %r10
Ltmp872:
	.loc	16 1528 55
	leaq	l___unnamed_80(%rip), %rax
	movzbl	(%rdx,%rax), %r15d
	cmpq	$17, %r15
	.loc	16 1528 46 is_stmt 0
	jae	LBB32_186
Ltmp873:
	.loc	16 0 0
	movl	%ecx, %ecx
Ltmp874:
	addq	%rsi, %rcx
Ltmp875:
	.loc	16 716 28 is_stmt 1
	cmpl	$63, %ecx
Ltmp876:
	ja	LBB32_178
Ltmp877:
	.loc	16 0 28 is_stmt 0
	movq	-80(%rbp), %rax
	movzbl	25(%rax,%rdi), %esi
Ltmp878:
	.loc	16 1528 17 is_stmt 1
	leaq	l___unnamed_81(%rip), %rbx
	andl	(%rbx,%r15,4), %edx
Ltmp879:
	.loc	16 0 0 is_stmt 0
	movzbl	26(%rax,%rdi), %eax
	movq	%rax, %rbx
Ltmp880:
	.loc	16 716 28 is_stmt 1
	shlq	%cl, %rdx
Ltmp881:
	.loc	16 0 0 is_stmt 0
	shlq	$8, %rbx
	orq	%rsi, %rbx
Ltmp882:
	.loc	16 1532 16 is_stmt 1
	movzwl	%bx, %r13d
	cmpl	$512, %r13d
	.loc	16 1532 13 is_stmt 0
	jae	LBB32_162
Ltmp883:
	.loc	16 1533 23 is_stmt 1
	leaq	l___unnamed_82(%rip), %rax
	leaq	(%rax,%rbx), %rsi
	.loc	16 1534 34
	leaq	l___unnamed_83(%rip), %rax
	addq	%rax, %rbx
Ltmp884:
	.loc	16 0 34 is_stmt 0
	jmp	LBB32_164
Ltmp885:
	.p2align	4, 0x90
LBB32_174:
	movq	%rdx, %rdi
	movl	%eax, %r11d
	jmp	LBB32_169
Ltmp886:
	.p2align	4, 0x90
LBB32_162:
	.loc	16 1536 23 is_stmt 1
	testw	%bx, %bx
	js	LBB32_187
Ltmp887:
	leaq	l___unnamed_84(%rip), %rsi
	addq	%rax, %rsi
	.loc	16 1537 34
	leaq	l___unnamed_85(%rip), %rbx
Ltmp888:
	addq	%rbx, %rax
Ltmp889:
	.loc	16 0 34 is_stmt 0
	movq	%rax, %rbx
Ltmp890:
LBB32_164:
	movzbl	(%rsi), %r9d
Ltmp891:
	.loc	16 1540 27 is_stmt 1
	movzbl	3744(%r12,%r9), %esi
	testq	%rsi, %rsi
	.loc	16 1540 13 is_stmt 0
	je	LBB32_200
Ltmp892:
	.loc	16 0 0
	movl	%ecx, %ecx
Ltmp893:
	addq	%r15, %rcx
Ltmp894:
	.loc	16 716 28 is_stmt 1
	cmpl	$63, %ecx
Ltmp895:
	ja	LBB32_178
Ltmp896:
	.loc	16 0 28 is_stmt 0
	movzbl	(%rbx), %eax
Ltmp897:
	.loc	16 1542 27 is_stmt 1
	movzwl	2304(%r12,%r9,2), %ebx
Ltmp898:
	.loc	16 716 28
	shlq	%cl, %rbx
Ltmp899:
	.loc	16 1546 51
	cmpb	$17, %al
	jae	LBB32_188
Ltmp900:
	.loc	16 0 0 is_stmt 0
	movl	%ecx, %ecx
Ltmp901:
	addq	%rsi, %rcx
Ltmp902:
	.loc	16 716 28 is_stmt 1
	cmpl	$64, %ecx
Ltmp903:
	.loc	16 0 28 is_stmt 0
	movq	-72(%rbp), %r9
Ltmp904:
	.loc	16 716 28
	jae	LBB32_178
Ltmp905:
	.loc	16 0 28
	shrl	%r11d
Ltmp906:
	addq	$3, %rdi
Ltmp907:
	orq	%r14, %r10
	orq	%rdx, %r10
	orq	%rbx, %r10
Ltmp908:
	.loc	16 717 9 is_stmt 1
	leal	(%rcx,%rax), %r15d
Ltmp909:
	.loc	16 1546 17
	leaq	l___unnamed_81(%rip), %rdx
	andl	(%rdx,%rax,4), %r13d
Ltmp910:
	.loc	16 716 28
	shlq	%cl, %r13
Ltmp911:
	.loc	16 716 9 is_stmt 0
	orq	%r10, %r13
Ltmp912:
LBB32_169:
	.loc	16 721 19 is_stmt 1
	movq	16(%r9), %rax
Ltmp913:
	.loc	16 724 48
	movq	%rax, %rcx
	addq	$8, %rcx
	jb	LBB32_202
Ltmp914:
	.loc	16 724 30 is_stmt 0
	movq	8(%r9), %rsi
Ltmp915:
	.loc	20 3179 19 is_stmt 1
	cmpq	%rcx, %rsi
	.loc	20 3179 16 is_stmt 0
	jb	LBB32_171
Ltmp916:
	.loc	16 0 0
	movq	(%r9), %rdx
Ltmp917:
	.loc	20 3161 79 is_stmt 1
	subq	%rax, %rcx
Ltmp918:
	.loc	20 2370 20
	movq	%rcx, -96(%rbp)
	.loc	20 2370 32 is_stmt 0
	movq	$8, -56(%rbp)
Ltmp919:
	.loc	14 66 21 is_stmt 1
	cmpq	$8, %rcx
	.loc	14 66 17 is_stmt 0
	jne	LBB32_201
Ltmp920:
	.loc	21 2130 14 is_stmt 1
	movq	%r13, (%rdx,%rax)
Ltmp921:
	.loc	16 728 44
	movl	%r15d, %ecx
Ltmp922:
	shrl	$3, %ecx
Ltmp923:
	.loc	16 0 44 is_stmt 0
	movb	$2, %al
Ltmp924:
	.loc	9 3751 30 is_stmt 1
	addq	16(%r9), %rcx
Ltmp925:
	.loc	16 729 13
	jb	LBB32_15
Ltmp926:
	cmpq	8(%r9), %rcx
	ja	LBB32_15
Ltmp927:
	.loc	16 729 51 is_stmt 0
	movq	%rcx, 16(%r9)
Ltmp928:
	.loc	16 732 9 is_stmt 1
	cmpl	$63, %r15d
	ja	LBB32_203
Ltmp929:
	movl	%r15d, %ecx
	andb	$56, %cl
	shrq	%cl, %r13
Ltmp930:
	.loc	16 733 9
	andl	$7, %r15d
Ltmp931:
	.loc	16 0 9 is_stmt 0
	movq	%r13, %r14
	movl	%r15d, %ecx
Ltmp932:
	.loc	16 1503 11 is_stmt 1
	cmpq	%r8, %rdi
	.loc	16 1503 5 is_stmt 0
	jb	LBB32_144
Ltmp933:
	.loc	16 1572 5 is_stmt 1
	movq	$0, 24(%r9)
	.loc	16 1573 11
	testl	%r15d, %r15d
	.loc	16 1573 5 is_stmt 0
	jne	LBB32_139
	jmp	LBB32_142
Ltmp934:
LBB32_1:
	.loc	16 1060 9 is_stmt 1
	movw	$1, 512(%r12)
	.loc	16 1062 9
	movl	$288, %edx
	movl	$15, %ecx
Ltmp935:
	movq	%r12, %rdi
	xorl	%esi, %esi
	xorl	%r8d, %r8d
	callq	__ZN11miniz_oxide7deflate4core12HuffmanOxide14optimize_table17h86d27a3255ecbfccE
	.loc	16 1063 9
	movl	$1, %esi
	movl	$32, %edx
	movl	$15, %ecx
	movq	%r12, %rdi
	xorl	%r8d, %r8d
	callq	__ZN11miniz_oxide7deflate4core12HuffmanOxide14optimize_table17h86d27a3255ecbfccE
	movl	$286, %r15d
Ltmp936:
	.loc	16 1069 34
	cmpb	$0, 3741(%r12)
Ltmp937:
	.loc	25 1866 17
	jne	LBB32_3
Ltmp938:
	.loc	25 0 17 is_stmt 0
	movl	$285, %r15d
Ltmp939:
	.loc	16 1069 34 is_stmt 1
	cmpb	$0, 3740(%r12)
Ltmp940:
	.loc	25 1866 17
	jne	LBB32_3
Ltmp941:
	.loc	25 0 17 is_stmt 0
	movl	$284, %r15d
Ltmp942:
	.loc	16 1069 34 is_stmt 1
	cmpb	$0, 3739(%r12)
Ltmp943:
	.loc	25 1866 17
	jne	LBB32_3
Ltmp944:
	.loc	25 0 17 is_stmt 0
	movl	$283, %r15d
Ltmp945:
	.loc	16 1069 34 is_stmt 1
	cmpb	$0, 3738(%r12)
Ltmp946:
	.loc	25 1866 17
	jne	LBB32_3
Ltmp947:
	.loc	25 0 17 is_stmt 0
	movl	$282, %r15d
Ltmp948:
	.loc	16 1069 34 is_stmt 1
	cmpb	$0, 3737(%r12)
Ltmp949:
	.loc	25 1866 17
	jne	LBB32_3
Ltmp950:
	.loc	25 0 17 is_stmt 0
	movl	$281, %r15d
Ltmp951:
	.loc	16 1069 34 is_stmt 1
	cmpb	$0, 3736(%r12)
Ltmp952:
	.loc	25 1866 17
	jne	LBB32_3
Ltmp953:
	.loc	25 0 17 is_stmt 0
	movl	$280, %r15d
Ltmp954:
	.loc	16 1069 34 is_stmt 1
	cmpb	$0, 3735(%r12)
Ltmp955:
	.loc	25 1866 17
	jne	LBB32_3
Ltmp956:
	.loc	25 0 17 is_stmt 0
	movl	$279, %r15d
Ltmp957:
	.loc	16 1069 34 is_stmt 1
	cmpb	$0, 3734(%r12)
Ltmp958:
	.loc	25 1866 17
	jne	LBB32_3
Ltmp959:
	.loc	25 0 17 is_stmt 0
	movl	$278, %r15d
Ltmp960:
	.loc	16 1069 34 is_stmt 1
	cmpb	$0, 3733(%r12)
Ltmp961:
	.loc	25 1866 17
	jne	LBB32_3
Ltmp962:
	.loc	25 0 17 is_stmt 0
	movl	$277, %r15d
Ltmp963:
	.loc	16 1069 34 is_stmt 1
	cmpb	$0, 3732(%r12)
Ltmp964:
	.loc	25 1866 17
	jne	LBB32_3
Ltmp965:
	.loc	25 0 17 is_stmt 0
	movl	$276, %r15d
Ltmp966:
	.loc	16 1069 34 is_stmt 1
	cmpb	$0, 3731(%r12)
Ltmp967:
	.loc	25 1866 17
	jne	LBB32_3
Ltmp968:
	.loc	25 0 17 is_stmt 0
	movl	$275, %r15d
Ltmp969:
	.loc	16 1069 34 is_stmt 1
	cmpb	$0, 3730(%r12)
Ltmp970:
	.loc	25 1866 17
	jne	LBB32_3
Ltmp971:
	.loc	25 0 17 is_stmt 0
	movl	$274, %r15d
Ltmp972:
	.loc	16 1069 34 is_stmt 1
	cmpb	$0, 3729(%r12)
Ltmp973:
	.loc	25 1866 17
	jne	LBB32_3
Ltmp974:
	.loc	25 0 17 is_stmt 0
	movl	$273, %r15d
Ltmp975:
	.loc	16 1069 34 is_stmt 1
	cmpb	$0, 3728(%r12)
Ltmp976:
	.loc	25 1866 17
	jne	LBB32_3
Ltmp977:
	.loc	25 0 17 is_stmt 0
	movl	$272, %r15d
Ltmp978:
	.loc	16 1069 34 is_stmt 1
	cmpb	$0, 3727(%r12)
Ltmp979:
	.loc	25 1866 17
	jne	LBB32_3
Ltmp980:
	.loc	25 0 17 is_stmt 0
	movl	$271, %r15d
Ltmp981:
	.loc	16 1069 34 is_stmt 1
	cmpb	$0, 3726(%r12)
Ltmp982:
	.loc	25 1866 17
	jne	LBB32_3
Ltmp983:
	.loc	25 0 17 is_stmt 0
	movl	$270, %r15d
Ltmp984:
	.loc	16 1069 34 is_stmt 1
	cmpb	$0, 3725(%r12)
Ltmp985:
	.loc	25 1866 17
	jne	LBB32_3
Ltmp986:
	.loc	25 0 17 is_stmt 0
	movl	$269, %r15d
Ltmp987:
	.loc	16 1069 34 is_stmt 1
	cmpb	$0, 3724(%r12)
Ltmp988:
	.loc	25 1866 17
	jne	LBB32_3
Ltmp989:
	.loc	25 0 17 is_stmt 0
	movl	$268, %r15d
Ltmp990:
	.loc	16 1069 34 is_stmt 1
	cmpb	$0, 3723(%r12)
Ltmp991:
	.loc	25 1866 17
	jne	LBB32_3
Ltmp992:
	.loc	25 0 17 is_stmt 0
	movl	$267, %r15d
Ltmp993:
	.loc	16 1069 34 is_stmt 1
	cmpb	$0, 3722(%r12)
Ltmp994:
	.loc	25 1866 17
	jne	LBB32_3
Ltmp995:
	.loc	25 0 17 is_stmt 0
	movl	$266, %r15d
Ltmp996:
	.loc	16 1069 34 is_stmt 1
	cmpb	$0, 3721(%r12)
Ltmp997:
	.loc	25 1866 17
	jne	LBB32_3
Ltmp998:
	.loc	25 0 17 is_stmt 0
	movl	$265, %r15d
Ltmp999:
	.loc	16 1069 34 is_stmt 1
	cmpb	$0, 3720(%r12)
Ltmp1000:
	.loc	25 1866 17
	jne	LBB32_3
Ltmp1001:
	.loc	25 0 17 is_stmt 0
	movl	$264, %r15d
Ltmp1002:
	.loc	16 1069 34 is_stmt 1
	cmpb	$0, 3719(%r12)
Ltmp1003:
	.loc	25 1866 17
	jne	LBB32_3
Ltmp1004:
	.loc	25 0 17 is_stmt 0
	movl	$263, %r15d
Ltmp1005:
	.loc	16 1069 34 is_stmt 1
	cmpb	$0, 3718(%r12)
Ltmp1006:
	.loc	25 1866 17
	jne	LBB32_3
Ltmp1007:
	.loc	25 0 17 is_stmt 0
	movl	$262, %r15d
Ltmp1008:
	.loc	16 1069 34 is_stmt 1
	cmpb	$0, 3717(%r12)
Ltmp1009:
	.loc	25 1866 17
	jne	LBB32_3
Ltmp1010:
	.loc	25 0 17 is_stmt 0
	movl	$261, %r15d
Ltmp1011:
	.loc	16 1069 34 is_stmt 1
	cmpb	$0, 3716(%r12)
Ltmp1012:
	.loc	25 1866 17
	jne	LBB32_3
Ltmp1013:
	.loc	25 0 17 is_stmt 0
	movl	$260, %r15d
Ltmp1014:
	.loc	16 1069 34 is_stmt 1
	cmpb	$0, 3715(%r12)
Ltmp1015:
	.loc	25 1866 17
	jne	LBB32_3
Ltmp1016:
	.loc	25 0 17 is_stmt 0
	movl	$259, %r15d
Ltmp1017:
	.loc	16 1069 34 is_stmt 1
	cmpb	$0, 3714(%r12)
Ltmp1018:
	.loc	25 1866 17
	jne	LBB32_3
Ltmp1019:
	cmpb	$1, 3713(%r12)
	movl	$258, %r15d
	sbbq	$0, %r15
Ltmp1020:
LBB32_3:
	.loc	16 1076 34
	cmpb	$0, 3773(%r12)
Ltmp1021:
	.loc	25 1866 17
	je	LBB32_5
Ltmp1022:
	.loc	25 0 17 is_stmt 0
	xorl	%eax, %eax
	jmp	LBB32_6
Ltmp1023:
LBB32_137:
	.loc	16 1497 18 is_stmt 1
	movl	%ecx, %r15d
Ltmp1024:
	movq	%r14, %r13
Ltmp1025:
	.loc	16 1572 5
	movq	$0, 24(%r9)
	.loc	16 1573 11
	testl	%r15d, %r15d
	.loc	16 1573 5 is_stmt 0
	je	LBB32_142
Ltmp1026:
LBB32_139:
	.loc	16 0 5
	leaq	l___unnamed_81(%rip), %r14
Ltmp1027:
	.p2align	4, 0x90
LBB32_140:
	cmpl	$16, %r15d
	movl	$16, %ebx
	cmovbl	%r15d, %ebx
	movl	(%r14,%rbx,4), %esi
Ltmp1028:
	.loc	16 1575 25 is_stmt 1
	andl	%r13d, %esi
	.loc	16 1575 9 is_stmt 0
	movq	%r9, %rdi
	movl	%ebx, %edx
	callq	__ZN11miniz_oxide7deflate4core17OutputBufferOxide8put_bits17hf668fc4ddb341623E
Ltmp1029:
	.loc	16 1577 9 is_stmt 1
	subl	%ebx, %r15d
Ltmp1030:
	jb	LBB32_190
Ltmp1031:
	.loc	16 1576 9
	movl	%ebx, %ecx
	shrq	%cl, %r13
Ltmp1032:
	.loc	16 1573 11
	testl	%r15d, %r15d
	movq	-72(%rbp), %r9
	.loc	16 1573 5 is_stmt 0
	jne	LBB32_140
Ltmp1033:
LBB32_142:
	.loc	16 1582 19 is_stmt 1
	movzwl	2240(%r12), %esi
Ltmp1034:
	.loc	16 1583 19
	movzbl	3712(%r12), %edx
Ltmp1035:
	.loc	16 1581 5
	movq	%r9, %rdi
	callq	__ZN11miniz_oxide7deflate4core17OutputBufferOxide8put_bits17hf668fc4ddb341623E
	movb	$1, %al
	jmp	LBB32_15
Ltmp1036:
LBB32_5:
	.loc	16 0 5 is_stmt 0
	movl	$1, %eax
Ltmp1037:
	.loc	16 1076 34 is_stmt 1
	cmpb	$0, 3772(%r12)
Ltmp1038:
	.loc	25 1866 17
	jne	LBB32_6
Ltmp1039:
	.loc	25 0 17 is_stmt 0
	movl	$2, %eax
Ltmp1040:
	.loc	16 1076 34 is_stmt 1
	cmpb	$0, 3771(%r12)
Ltmp1041:
	.loc	25 1866 17
	jne	LBB32_6
Ltmp1042:
	.loc	25 0 17 is_stmt 0
	movl	$3, %eax
Ltmp1043:
	.loc	16 1076 34 is_stmt 1
	cmpb	$0, 3770(%r12)
Ltmp1044:
	.loc	25 1866 17
	jne	LBB32_6
Ltmp1045:
	.loc	25 0 17 is_stmt 0
	movl	$4, %eax
Ltmp1046:
	.loc	16 1076 34 is_stmt 1
	cmpb	$0, 3769(%r12)
Ltmp1047:
	.loc	25 1866 17
	jne	LBB32_6
Ltmp1048:
	.loc	25 0 17 is_stmt 0
	movl	$5, %eax
Ltmp1049:
	.loc	16 1076 34 is_stmt 1
	cmpb	$0, 3768(%r12)
Ltmp1050:
	.loc	25 1866 17
	jne	LBB32_6
Ltmp1051:
	.loc	25 0 17 is_stmt 0
	movl	$6, %eax
Ltmp1052:
	.loc	16 1076 34 is_stmt 1
	cmpb	$0, 3767(%r12)
Ltmp1053:
	.loc	25 1866 17
	jne	LBB32_6
Ltmp1054:
	.loc	25 0 17 is_stmt 0
	movl	$7, %eax
Ltmp1055:
	.loc	16 1076 34 is_stmt 1
	cmpb	$0, 3766(%r12)
Ltmp1056:
	.loc	25 1866 17
	jne	LBB32_6
Ltmp1057:
	.loc	25 0 17 is_stmt 0
	movl	$8, %eax
Ltmp1058:
	.loc	16 1076 34 is_stmt 1
	cmpb	$0, 3765(%r12)
Ltmp1059:
	.loc	25 1866 17
	jne	LBB32_6
Ltmp1060:
	.loc	25 0 17 is_stmt 0
	movl	$9, %eax
Ltmp1061:
	.loc	16 1076 34 is_stmt 1
	cmpb	$0, 3764(%r12)
Ltmp1062:
	.loc	25 1866 17
	jne	LBB32_6
Ltmp1063:
	.loc	25 0 17 is_stmt 0
	movl	$10, %eax
Ltmp1064:
	.loc	16 1076 34 is_stmt 1
	cmpb	$0, 3763(%r12)
Ltmp1065:
	.loc	25 1866 17
	jne	LBB32_6
Ltmp1066:
	.loc	25 0 17 is_stmt 0
	movl	$11, %eax
Ltmp1067:
	.loc	16 1076 34 is_stmt 1
	cmpb	$0, 3762(%r12)
Ltmp1068:
	.loc	25 1866 17
	jne	LBB32_6
Ltmp1069:
	.loc	25 0 17 is_stmt 0
	movl	$12, %eax
Ltmp1070:
	.loc	16 1076 34 is_stmt 1
	cmpb	$0, 3761(%r12)
Ltmp1071:
	.loc	25 1866 17
	jne	LBB32_6
Ltmp1072:
	.loc	25 0 17 is_stmt 0
	movl	$13, %eax
Ltmp1073:
	.loc	16 1076 34 is_stmt 1
	cmpb	$0, 3760(%r12)
Ltmp1074:
	.loc	25 1866 17
	jne	LBB32_6
Ltmp1075:
	.loc	25 0 17 is_stmt 0
	movl	$14, %eax
Ltmp1076:
	.loc	16 1076 34 is_stmt 1
	cmpb	$0, 3759(%r12)
Ltmp1077:
	.loc	25 1866 17
	jne	LBB32_6
Ltmp1078:
	.loc	25 0 17 is_stmt 0
	movl	$15, %eax
Ltmp1079:
	.loc	16 1076 34 is_stmt 1
	cmpb	$0, 3758(%r12)
Ltmp1080:
	.loc	25 1866 17
	jne	LBB32_6
Ltmp1081:
	.loc	25 0 17 is_stmt 0
	movl	$16, %eax
Ltmp1082:
	.loc	16 1076 34 is_stmt 1
	cmpb	$0, 3757(%r12)
Ltmp1083:
	.loc	25 1866 17
	jne	LBB32_6
Ltmp1084:
	.loc	25 0 17 is_stmt 0
	movl	$17, %eax
Ltmp1085:
	.loc	16 1076 34 is_stmt 1
	cmpb	$0, 3756(%r12)
Ltmp1086:
	.loc	25 1866 17
	jne	LBB32_6
Ltmp1087:
	.loc	25 0 17 is_stmt 0
	movl	$18, %eax
Ltmp1088:
	.loc	16 1076 34 is_stmt 1
	cmpb	$0, 3755(%r12)
Ltmp1089:
	.loc	25 1866 17
	jne	LBB32_6
Ltmp1090:
	.loc	25 0 17 is_stmt 0
	movl	$19, %eax
Ltmp1091:
	.loc	16 1076 34 is_stmt 1
	cmpb	$0, 3754(%r12)
Ltmp1092:
	.loc	25 1866 17
	jne	LBB32_6
Ltmp1093:
	.loc	25 0 17 is_stmt 0
	movl	$20, %eax
Ltmp1094:
	.loc	16 1076 34 is_stmt 1
	cmpb	$0, 3753(%r12)
Ltmp1095:
	.loc	25 1866 17
	jne	LBB32_6
Ltmp1096:
	.loc	25 0 17 is_stmt 0
	movl	$21, %eax
Ltmp1097:
	.loc	16 1076 34 is_stmt 1
	cmpb	$0, 3752(%r12)
Ltmp1098:
	.loc	25 1866 17
	jne	LBB32_6
Ltmp1099:
	.loc	25 0 17 is_stmt 0
	movl	$22, %eax
Ltmp1100:
	.loc	16 1076 34 is_stmt 1
	cmpb	$0, 3751(%r12)
Ltmp1101:
	.loc	25 1866 17
	jne	LBB32_6
Ltmp1102:
	.loc	25 0 17 is_stmt 0
	movl	$23, %eax
Ltmp1103:
	.loc	16 1076 34 is_stmt 1
	cmpb	$0, 3750(%r12)
Ltmp1104:
	.loc	25 1866 17
	jne	LBB32_6
Ltmp1105:
	.loc	25 0 17 is_stmt 0
	movl	$24, %eax
Ltmp1106:
	.loc	16 1076 34 is_stmt 1
	cmpb	$0, 3749(%r12)
Ltmp1107:
	.loc	25 1866 17
	jne	LBB32_6
Ltmp1108:
	.loc	25 0 17 is_stmt 0
	movl	$25, %eax
Ltmp1109:
	.loc	16 1076 34 is_stmt 1
	cmpb	$0, 3748(%r12)
Ltmp1110:
	.loc	25 1866 17
	jne	LBB32_6
Ltmp1111:
	.loc	25 0 17 is_stmt 0
	movl	$26, %eax
Ltmp1112:
	.loc	16 1076 34 is_stmt 1
	cmpb	$0, 3747(%r12)
Ltmp1113:
	.loc	25 1866 17
	jne	LBB32_6
Ltmp1114:
	.loc	25 0 17 is_stmt 0
	movl	$27, %eax
Ltmp1115:
	.loc	16 1076 34 is_stmt 1
	cmpb	$0, 3746(%r12)
Ltmp1116:
	.loc	25 1866 17
	jne	LBB32_6
Ltmp1117:
	.loc	16 1076 34
	xorl	%eax, %eax
	cmpb	$0, 3745(%r12)
	sete	%al
Ltmp1118:
	.loc	25 1866 17
	orq	$28, %rax
Ltmp1119:
LBB32_6:
	.loc	25 0 17 is_stmt 0
	movq	%rax, -152(%rbp)
	movl	$30, %r14d
Ltmp1120:
	.loc	23 194 45 is_stmt 1
	subq	%rax, %r14
Ltmp1121:
	.loc	23 0 45 is_stmt 0
	leaq	-592(%rbp), %rdi
	movl	$320, %ebx
Ltmp1122:
	.loc	16 1080 37 is_stmt 1
	movl	$320, %esi
	callq	___bzero
Ltmp1123:
	.loc	20 383 9
	leaq	3456(%r12), %rax
	movq	%rax, -88(%rbp)
Ltmp1124:
	.loc	21 2130 14
	subq	%r15, %rbx
Ltmp1125:
	leaq	-912(%rbp,%r15), %r13
	movq	%r13, %rdi
	movq	%rbx, %rsi
	callq	___bzero
	leaq	-912(%rbp), %rdi
Ltmp1126:
	.loc	21 0 14 is_stmt 0
	movq	-88(%rbp), %rsi
	.loc	21 2130 14
	movq	%r15, %rdx
	callq	_memcpy
Ltmp1127:
	.loc	20 383 9 is_stmt 1
	leaq	3744(%r12), %rsi
Ltmp1128:
	.loc	21 2130 14
	movq	%r13, %rdi
	movq	%r14, -88(%rbp)
Ltmp1129:
	movq	%r14, %rdx
	callq	_memcpy
Ltmp1130:
	.loc	16 1089 23
	movq	$0, -56(%rbp)
	movb	$-1, -48(%rbp)
Ltmp1131:
	.loc	16 375 9
	movq	$0, 1182(%r12)
	movq	$0, 1176(%r12)
	movq	$0, 1168(%r12)
	movq	$0, 1160(%r12)
	movq	$0, 1152(%r12)
Ltmp1132:
	.loc	16 1097 30
	movq	$0, -64(%rbp)
Ltmp1133:
	.loc	16 0 30 is_stmt 0
	movq	%r15, %r14
Ltmp1134:
	.loc	20 3570 21 is_stmt 1
	movq	%r15, %rbx
Ltmp1135:
	subq	-152(%rbp), %rbx
Ltmp1136:
	addq	$30, %rbx
	xorl	%r13d, %r13d
Ltmp1137:
	.loc	20 0 21 is_stmt 0
	jmp	LBB32_7
Ltmp1138:
	.p2align	4, 0x90
LBB32_13:
	testb	%al, %al
	jne	LBB32_14
Ltmp1139:
LBB32_27:
	.loc	16 1119 13 is_stmt 1
	movb	%r15b, -48(%rbp)
Ltmp1140:
	.loc	20 3440 9
	incq	%r13
	cmpq	%r13, %rbx
	.loc	20 3570 21
	je	LBB32_28
Ltmp1141:
LBB32_7:
	.loc	16 1098 14
	movzbl	-912(%rbp,%r13), %r15d
Ltmp1142:
	.loc	16 1100 17
	leaq	-56(%rbp), %rdi
	leaq	-592(%rbp), %rsi
	leaq	-64(%rbp), %rdx
	movq	%r12, %rcx
Ltmp1143:
	.loc	16 1098 14
	testq	%r15, %r15
Ltmp1144:
	.loc	16 1099 13
	je	LBB32_16
Ltmp1145:
	.loc	16 1106 17
	callq	__ZN11miniz_oxide7deflate4core3RLE14zero_code_size17h0cee5c92c75b24d6E
	.loc	16 1106 82 is_stmt 0
	testb	%al, %al
	jne	LBB32_14
Ltmp1146:
	.loc	16 1107 20 is_stmt 1
	cmpb	-48(%rbp), %r15b
	.loc	16 1107 17 is_stmt 0
	jne	LBB32_20
Ltmp1147:
	.loc	16 1113 21 is_stmt 1
	movl	-52(%rbp), %eax
	incl	%eax
	je	LBB32_54
Ltmp1148:
	movl	%eax, -52(%rbp)
	.loc	16 1114 24
	cmpl	$6, %eax
	.loc	16 1114 21 is_stmt 0
	jne	LBB32_27
Ltmp1149:
	.loc	16 1115 25 is_stmt 1
	leaq	-56(%rbp), %rdi
	leaq	-592(%rbp), %rsi
	leaq	-64(%rbp), %rdx
	movq	%r12, %rcx
	callq	__ZN11miniz_oxide7deflate4core3RLE14prev_code_size17hca3769b71886b615E
	jmp	LBB32_13
Ltmp1150:
	.p2align	4, 0x90
LBB32_16:
	.loc	16 1100 17
	callq	__ZN11miniz_oxide7deflate4core3RLE14prev_code_size17hca3769b71886b615E
	.loc	16 1100 82 is_stmt 0
	testb	%al, %al
	jne	LBB32_14
Ltmp1151:
	.loc	16 1101 17 is_stmt 1
	movl	-56(%rbp), %eax
	incl	%eax
	je	LBB32_53
Ltmp1152:
	movl	%eax, -56(%rbp)
	.loc	16 1102 20
	cmpl	$138, %eax
	.loc	16 1102 17 is_stmt 0
	jne	LBB32_27
Ltmp1153:
	.loc	16 1103 21 is_stmt 1
	leaq	-56(%rbp), %rdi
	leaq	-592(%rbp), %rsi
	leaq	-64(%rbp), %rdx
	movq	%r12, %rcx
	callq	__ZN11miniz_oxide7deflate4core3RLE14zero_code_size17h0cee5c92c75b24d6E
	jmp	LBB32_13
Ltmp1154:
	.p2align	4, 0x90
LBB32_20:
	.loc	16 1108 21
	leaq	-56(%rbp), %rdi
	leaq	-592(%rbp), %rsi
	leaq	-64(%rbp), %rdx
	movq	%r12, %rcx
	callq	__ZN11miniz_oxide7deflate4core3RLE14prev_code_size17hca3769b71886b615E
	.loc	16 1108 86 is_stmt 0
	testb	%al, %al
	jne	LBB32_14
Ltmp1155:
	.loc	16 1109 21 is_stmt 1
	incw	1152(%r12,%r15,2)
Ltmp1156:
	.loc	16 818 23
	movq	-64(%rbp), %rax
	.loc	16 818 33 is_stmt 0
	movq	%rax, %rcx
	incq	%rcx
	je	LBB32_25
Ltmp1157:
	.loc	20 3141 37 is_stmt 1
	cmpq	$320, %rcx
Ltmp1158:
	.loc	16 819 9
	ja	LBB32_14
Ltmp1159:
	.loc	20 3141 12
	movq	%rcx, %rdx
	subq	%rax, %rdx
Ltmp1160:
	.loc	20 2370 20
	movq	%rdx, -160(%rbp)
	.loc	20 2370 32 is_stmt 0
	movq	$1, -168(%rbp)
Ltmp1161:
	.loc	14 66 21 is_stmt 1
	cmpq	$1, %rdx
	.loc	14 66 17 is_stmt 0
	jne	LBB32_24
Ltmp1162:
	.loc	21 2130 14 is_stmt 1
	movb	%r15b, -592(%rbp,%rax)
Ltmp1163:
	.loc	16 822 5
	movq	%rcx, -64(%rbp)
Ltmp1164:
	.loc	16 0 5 is_stmt 0
	jmp	LBB32_27
Ltmp1165:
LBB32_28:
	.loc	16 1122 12 is_stmt 1
	cmpl	$0, -52(%rbp)
	.loc	16 1122 9 is_stmt 0
	je	LBB32_29
Ltmp1166:
	.loc	16 0 9
	leaq	-56(%rbp), %rdi
	leaq	-592(%rbp), %rsi
	leaq	-64(%rbp), %rdx
	.loc	16 1123 13 is_stmt 1
	movq	%r12, %rcx
	callq	__ZN11miniz_oxide7deflate4core3RLE14prev_code_size17hca3769b71886b615E
	.loc	16 0 0 is_stmt 0
	testb	%al, %al
	je	LBB32_32
Ltmp1167:
LBB32_14:
	movb	$2, %al
Ltmp1168:
LBB32_15:
	.loc	16 1602 2 is_stmt 1
	addq	$872, %rsp
	popq	%rbx
	popq	%r12
Ltmp1169:
	popq	%r13
	popq	%r14
	popq	%r15
	popq	%rbp
	retq
Ltmp1170:
LBB32_29:
	.loc	16 0 2 is_stmt 0
	leaq	-56(%rbp), %rdi
	leaq	-592(%rbp), %rsi
	leaq	-64(%rbp), %rdx
Ltmp1171:
	.loc	16 1125 13 is_stmt 1
	movq	%r12, %rcx
	callq	__ZN11miniz_oxide7deflate4core3RLE14zero_code_size17h0cee5c92c75b24d6E
	.loc	16 0 0 is_stmt 0
	testb	%al, %al
	jne	LBB32_14
Ltmp1172:
LBB32_32:
	.loc	16 1128 9 is_stmt 1
	movl	$2, %esi
	movl	$19, %edx
	movl	$7, %ecx
	movq	%r12, %rdi
	xorl	%r8d, %r8d
	callq	__ZN11miniz_oxide7deflate4core12HuffmanOxide14optimize_table17h86d27a3255ecbfccE
	movq	-72(%rbp), %rbx
	.loc	16 1130 9
	movq	%rbx, %rdi
	movl	$2, %esi
	movl	$2, %edx
	callq	__ZN11miniz_oxide7deflate4core17OutputBufferOxide8put_bits17hf668fc4ddb341623E
	movq	%r14, %rsi
	.loc	16 1132 25
	subq	$257, %rsi
	jb	LBB32_55
Ltmp1173:
	.loc	16 1132 9 is_stmt 0
	movq	%rbx, %rdi
	movl	$5, %edx
	callq	__ZN11miniz_oxide7deflate4core17OutputBufferOxide8put_bits17hf668fc4ddb341623E
	movq	-88(%rbp), %rsi
	.loc	16 1133 25 is_stmt 1
	subq	$1, %rsi
	jb	LBB32_56
Ltmp1174:
	.loc	16 1133 9 is_stmt 0
	movq	%rbx, %rdi
	movl	$5, %edx
	callq	__ZN11miniz_oxide7deflate4core17OutputBufferOxide8put_bits17hf668fc4ddb341623E
Ltmp1175:
	.loc	16 1139 40 is_stmt 1
	cmpb	$0, 4047(%r12)
Ltmp1176:
	.loc	25 1866 17
	je	LBB32_36
Ltmp1177:
	.loc	25 0 17 is_stmt 0
	xorl	%eax, %eax
	jmp	LBB32_37
Ltmp1178:
LBB32_36:
	movl	$1, %eax
Ltmp1179:
	.loc	16 1139 40 is_stmt 1
	cmpb	$0, 4033(%r12)
Ltmp1180:
	.loc	25 1866 17
	jne	LBB32_37
Ltmp1181:
	.loc	25 0 17 is_stmt 0
	movl	$2, %eax
Ltmp1182:
	.loc	16 1139 40 is_stmt 1
	cmpb	$0, 4046(%r12)
Ltmp1183:
	.loc	25 1866 17
	jne	LBB32_37
Ltmp1184:
	.loc	25 0 17 is_stmt 0
	movl	$3, %eax
Ltmp1185:
	.loc	16 1139 40 is_stmt 1
	cmpb	$0, 4034(%r12)
Ltmp1186:
	.loc	25 1866 17
	jne	LBB32_37
Ltmp1187:
	.loc	25 0 17 is_stmt 0
	movl	$4, %eax
Ltmp1188:
	.loc	16 1139 40 is_stmt 1
	cmpb	$0, 4045(%r12)
Ltmp1189:
	.loc	25 1866 17
	jne	LBB32_37
Ltmp1190:
	.loc	25 0 17 is_stmt 0
	movl	$5, %eax
Ltmp1191:
	.loc	16 1139 40 is_stmt 1
	cmpb	$0, 4035(%r12)
Ltmp1192:
	.loc	25 1866 17
	jne	LBB32_37
Ltmp1193:
	.loc	25 0 17 is_stmt 0
	movl	$6, %eax
Ltmp1194:
	.loc	16 1139 40 is_stmt 1
	cmpb	$0, 4044(%r12)
Ltmp1195:
	.loc	25 1866 17
	jne	LBB32_37
Ltmp1196:
	.loc	25 0 17 is_stmt 0
	movl	$7, %eax
Ltmp1197:
	.loc	16 1139 40 is_stmt 1
	cmpb	$0, 4036(%r12)
Ltmp1198:
	.loc	25 1866 17
	jne	LBB32_37
Ltmp1199:
	.loc	25 0 17 is_stmt 0
	movl	$8, %eax
Ltmp1200:
	.loc	16 1139 40 is_stmt 1
	cmpb	$0, 4043(%r12)
Ltmp1201:
	.loc	25 1866 17
	jne	LBB32_37
Ltmp1202:
	.loc	25 0 17 is_stmt 0
	movl	$9, %eax
Ltmp1203:
	.loc	16 1139 40 is_stmt 1
	cmpb	$0, 4037(%r12)
Ltmp1204:
	.loc	25 1866 17
	jne	LBB32_37
Ltmp1205:
	.loc	25 0 17 is_stmt 0
	movl	$10, %eax
Ltmp1206:
	.loc	16 1139 40 is_stmt 1
	cmpb	$0, 4042(%r12)
Ltmp1207:
	.loc	25 1866 17
	jne	LBB32_37
Ltmp1208:
	.loc	25 0 17 is_stmt 0
	movl	$11, %eax
Ltmp1209:
	.loc	16 1139 40 is_stmt 1
	cmpb	$0, 4038(%r12)
Ltmp1210:
	.loc	25 1866 17
	jne	LBB32_37
Ltmp1211:
	.loc	25 0 17 is_stmt 0
	movl	$12, %eax
Ltmp1212:
	.loc	16 1139 40 is_stmt 1
	cmpb	$0, 4041(%r12)
Ltmp1213:
	.loc	25 1866 17
	jne	LBB32_37
Ltmp1214:
	.loc	25 0 17 is_stmt 0
	movl	$13, %eax
Ltmp1215:
	.loc	16 1139 40 is_stmt 1
	cmpb	$0, 4039(%r12)
Ltmp1216:
	.loc	25 1866 17
	jne	LBB32_37
Ltmp1217:
	.loc	25 0 17 is_stmt 0
	movl	$14, %eax
Ltmp1218:
	.loc	16 1139 40 is_stmt 1
	cmpb	$0, 4040(%r12)
Ltmp1219:
	.loc	25 1866 17
	jne	LBB32_37
Ltmp1220:
	.loc	25 0 17 is_stmt 0
	movl	$15, %eax
Ltmp1221:
	.loc	16 1139 40 is_stmt 1
	cmpb	$0, 4032(%r12)
Ltmp1222:
	.loc	25 1866 17
	jne	LBB32_37
Ltmp1223:
	.loc	25 0 17 is_stmt 0
	movl	$16, %eax
Ltmp1224:
	.loc	16 1139 40 is_stmt 1
	cmpb	$0, 4050(%r12)
Ltmp1225:
	.loc	25 1866 17
	jne	LBB32_37
Ltmp1226:
	.loc	25 0 17 is_stmt 0
	movl	$17, %eax
Ltmp1227:
	.loc	16 1139 40 is_stmt 1
	cmpb	$0, 4049(%r12)
Ltmp1228:
	.loc	25 1866 17
	jne	LBB32_37
Ltmp1229:
	.loc	16 1139 40
	xorl	%eax, %eax
	cmpb	$0, 4048(%r12)
	sete	%al
Ltmp1230:
	.loc	25 1866 17
	orq	$18, %rax
Ltmp1231:
LBB32_37:
	.loc	25 0 17 is_stmt 0
	movl	$18, %ecx
	.loc	16 1135 35 is_stmt 1
	subq	%rax, %rcx
	movq	-72(%rbp), %r13
	jb	LBB32_57
Ltmp1232:
	.loc	16 1142 39
	incq	%rcx
Ltmp1233:
	je	LBB32_58
Ltmp1234:
	.loc	11 0 0 is_stmt 0
	cmpq	$4, %rcx
	movl	$4, %r14d
	cmovaq	%rcx, %r14
Ltmp1235:
	.loc	16 1143 25 is_stmt 1
	leal	-4(%r14), %esi
	.loc	16 1143 9 is_stmt 0
	movq	%r13, %rdi
	movl	$4, %edx
	callq	__ZN11miniz_oxide7deflate4core17OutputBufferOxide8put_bits17hf668fc4ddb341623E
Ltmp1236:
	.loc	20 3440 9 is_stmt 1
	testq	%r14, %r14
	.loc	20 3570 21
	je	LBB32_42
Ltmp1237:
	.loc	20 0 21 is_stmt 0
	xorl	%ebx, %ebx
	leaq	l___unnamed_86(%rip), %r15
Ltmp1238:
	.p2align	4, 0x90
LBB32_41:
	.loc	16 1144 14 is_stmt 1
	movzbl	(%rbx,%r15), %eax
Ltmp1239:
	.loc	16 1146 27
	movzbl	4032(%r12,%rax), %esi
Ltmp1240:
	.loc	16 1145 13
	movq	%r13, %rdi
	movl	$3, %edx
	callq	__ZN11miniz_oxide7deflate4core17OutputBufferOxide8put_bits17hf668fc4ddb341623E
Ltmp1241:
	.loc	20 3440 9
	incq	%rbx
	cmpq	%rbx, %r14
	.loc	20 3570 21
	jne	LBB32_41
Ltmp1242:
LBB32_42:
	.loc	16 1152 15
	cmpq	$0, -64(%rbp)
	.loc	16 1152 9 is_stmt 0
	je	LBB32_135
Ltmp1243:
	.loc	16 0 9
	movq	%r13, %rdi
	xorl	%r15d, %r15d
	movabsq	$12884901890, %r14
Ltmp1244:
	jmp	LBB32_44
Ltmp1245:
	.p2align	4, 0x90
LBB32_47:
	movq	%r13, %r15
Ltmp1246:
	.loc	16 1152 15
	cmpq	-64(%rbp), %r13
	movq	-72(%rbp), %rdi
	.loc	16 1152 9
	jae	LBB32_135
Ltmp1247:
LBB32_44:
	.loc	16 1153 24 is_stmt 1
	cmpq	$319, %r15
	ja	LBB32_59
Ltmp1248:
	movzbl	-592(%rbp,%r15), %ebx
Ltmp1249:
	cmpq	$19, %rbx
Ltmp1250:
	.loc	16 1155 13
	jae	LBB32_196
Ltmp1251:
	.loc	16 0 13 is_stmt 0
	leaq	1(%r15), %r13
Ltmp1252:
	.loc	16 1157 27 is_stmt 1
	movzwl	2880(%r12,%rbx,2), %esi
Ltmp1253:
	.loc	16 1158 27
	movzbl	4032(%r12,%rbx), %edx
Ltmp1254:
	.loc	16 1156 13
	callq	__ZN11miniz_oxide7deflate4core17OutputBufferOxide8put_bits17hf668fc4ddb341623E
	.loc	16 1160 16
	cmpb	$16, %bl
	.loc	16 1160 13 is_stmt 0
	jb	LBB32_47
Ltmp1255:
	.loc	16 1162 31 is_stmt 1
	cmpq	$318, %r15
	ja	LBB32_60
Ltmp1256:
	movzbl	-592(%rbp,%r13), %esi
Ltmp1257:
	.loc	16 1163 21
	movq	%r14, -224(%rbp)
	movl	$7, -216(%rbp)
	.loc	16 1163 31 is_stmt 0
	subq	$16, %rbx
Ltmp1258:
	.loc	16 0 31
	movq	-72(%rbp), %rdi
	.loc	16 1163 31
	jb	LBB32_61
Ltmp1259:
	.loc	16 1163 21
	cmpq	$2, %rbx
	ja	LBB32_62
Ltmp1260:
	movl	-224(%rbp,%rbx,4), %edx
	.loc	16 1161 17 is_stmt 1
	callq	__ZN11miniz_oxide7deflate4core17OutputBufferOxide8put_bits17hf668fc4ddb341623E
	.loc	16 1165 17
	addq	$2, %r15
Ltmp1261:
	.loc	16 0 0 is_stmt 0
	movq	%r15, %r13
Ltmp1262:
	.loc	16 1152 15 is_stmt 1
	cmpq	-64(%rbp), %r13
	movq	-72(%rbp), %rdi
	.loc	16 1152 9 is_stmt 0
	jb	LBB32_44
	jmp	LBB32_135
Ltmp1263:
LBB32_178:
	.loc	16 0 0
	leaq	_str.5(%rip), %rdi
	leaq	l___unnamed_87(%rip), %rdx
	movl	$35, %esi
	callq	__ZN4core9panicking5panic17h383a6b80ea7021aaE
Ltmp1264:
LBB32_190:
	.loc	16 1577 9 is_stmt 1
	leaq	_str.1(%rip), %rdi
	leaq	l___unnamed_88(%rip), %rdx
	movl	$33, %esi
	callq	__ZN4core9panicking5panic17h383a6b80ea7021aaE
Ltmp1265:
LBB32_202:
	.loc	16 724 48
	leaq	_str.0(%rip), %rdi
Ltmp1266:
	leaq	l___unnamed_89(%rip), %rdx
	movl	$28, %esi
	callq	__ZN4core9panicking5panic17h383a6b80ea7021aaE
Ltmp1267:
LBB32_171:
	.loc	20 3180 13
	leaq	l___unnamed_90(%rip), %rdx
	movq	%rcx, %rdi
Ltmp1268:
	callq	__ZN4core5slice24slice_end_index_len_fail17hea9e3399ed430f80E
Ltmp1269:
LBB32_201:
	.loc	20 0 13 is_stmt 0
	leaq	-96(%rbp), %rax
Ltmp1270:
	.loc	14 72 23 is_stmt 1
	movq	%rax, -272(%rbp)
	leaq	-56(%rbp), %rax
	.loc	14 72 35 is_stmt 0
	movq	%rax, -224(%rbp)
Ltmp1271:
	.loc	1 328 9 is_stmt 1
	leaq	l___unnamed_20(%rip), %rax
Ltmp1272:
	movq	%rax, -592(%rbp)
	movq	$1, -584(%rbp)
	movq	$0, -576(%rbp)
	leaq	l___unnamed_21(%rip), %rax
Ltmp1273:
	movq	%rax, -560(%rbp)
	movq	$0, -552(%rbp)
	leaq	-272(%rbp), %rax
Ltmp1274:
	.loc	14 19 38
	movq	%rax, -144(%rbp)
	leaq	__ZN42_$LT$$RF$T$u20$as$u20$core..fmt..Debug$GT$3fmt17hba288db9807855bfE(%rip), %rax
	movq	%rax, -136(%rbp)
	leaq	-224(%rbp), %rcx
Ltmp1275:
	movq	%rcx, -128(%rbp)
	movq	%rax, -120(%rbp)
	leaq	-592(%rbp), %rax
	movq	%rax, -112(%rbp)
	movq	__ZN59_$LT$core..fmt..Arguments$u20$as$u20$core..fmt..Display$GT$3fmt17hca54f9d63261f398E@GOTPCREL(%rip), %rax
	movq	%rax, -104(%rbp)
Ltmp1276:
	.loc	1 328 9
	leaq	l___unnamed_22(%rip), %rax
Ltmp1277:
	movq	%rax, -912(%rbp)
	movq	$3, -904(%rbp)
	movq	$0, -896(%rbp)
	leaq	-144(%rbp), %rax
Ltmp1278:
	movq	%rax, -880(%rbp)
	movq	$3, -872(%rbp)
Ltmp1279:
	.loc	14 19 9
	leaq	l___unnamed_23(%rip), %rsi
	leaq	-912(%rbp), %rdi
Ltmp1280:
	callq	__ZN4core9panicking9panic_fmt17hfce5b7173905fc53E
Ltmp1281:
LBB32_203:
	.loc	16 732 9
	leaq	_str.6(%rip), %rdi
Ltmp1282:
	leaq	l___unnamed_91(%rip), %rdx
	movl	$36, %esi
	callq	__ZN4core9panicking5panic17h383a6b80ea7021aaE
Ltmp1283:
LBB32_149:
	.loc	16 1556 17
	leaq	l___unnamed_92(%rip), %rdi
	leaq	l___unnamed_93(%rip), %rdx
	movl	$55, %esi
	callq	__ZN4core9panicking5panic17h383a6b80ea7021aaE
Ltmp1284:
LBB32_189:
	.loc	16 1553 27
	leaq	l___unnamed_94(%rip), %rdx
	movq	%r8, %rsi
	callq	__ZN4core9panicking18panic_bounds_check17he87128426d100e93E
Ltmp1285:
LBB32_184:
	.loc	16 1516 29
	leaq	l___unnamed_95(%rip), %rdx
	movq	%r8, %rsi
	callq	__ZN4core9panicking18panic_bounds_check17he87128426d100e93E
Ltmp1286:
LBB32_154:
	.loc	16 390 5
	leaq	l___unnamed_96(%rip), %rdx
	jmp	LBB32_155
Ltmp1287:
LBB32_153:
	.loc	16 390 27 is_stmt 0
	leaq	l___unnamed_97(%rip), %rdx
Ltmp1288:
LBB32_155:
	.loc	16 0 0
	movq	%rax, %rdi
Ltmp1289:
	movq	%r8, %rsi
	callq	__ZN4core9panicking18panic_bounds_check17he87128426d100e93E
Ltmp1290:
LBB32_185:
	.loc	16 1522 27 is_stmt 1
	leaq	l___unnamed_98(%rip), %rdx
Ltmp1291:
	movl	$288, %esi
	movq	%rax, %rdi
Ltmp1292:
	callq	__ZN4core9panicking18panic_bounds_check17he87128426d100e93E
Ltmp1293:
LBB32_198:
	.loc	16 1522 13 is_stmt 0
	leaq	l___unnamed_99(%rip), %rdi
Ltmp1294:
	leaq	l___unnamed_100(%rip), %rdx
Ltmp1295:
	movl	$70, %esi
	callq	__ZN4core9panicking5panic17h383a6b80ea7021aaE
Ltmp1296:
LBB32_186:
	.loc	16 1528 46 is_stmt 1
	leaq	l___unnamed_101(%rip), %rdx
Ltmp1297:
	movl	$17, %esi
	movq	%r15, %rdi
Ltmp1298:
	callq	__ZN4core9panicking18panic_bounds_check17he87128426d100e93E
Ltmp1299:
LBB32_200:
	.loc	16 1540 13
	leaq	l___unnamed_102(%rip), %rdi
Ltmp1300:
	leaq	l___unnamed_103(%rip), %rdx
	movl	$46, %esi
	callq	__ZN4core9panicking5panic17h383a6b80ea7021aaE
Ltmp1301:
LBB32_188:
	.loc	16 1546 51
	leaq	l___unnamed_104(%rip), %rdx
	movl	$17, %esi
	movq	%rax, %rdi
Ltmp1302:
	callq	__ZN4core9panicking18panic_bounds_check17he87128426d100e93E
Ltmp1303:
LBB32_53:
	.loc	16 1101 17
	leaq	_str.0(%rip), %rdi
	leaq	l___unnamed_105(%rip), %rdx
	movl	$28, %esi
	callq	__ZN4core9panicking5panic17h383a6b80ea7021aaE
Ltmp1304:
LBB32_59:
	.loc	16 1153 24
	leaq	l___unnamed_106(%rip), %rdx
	movl	$320, %esi
	movq	%r15, %rdi
	callq	__ZN4core9panicking18panic_bounds_check17he87128426d100e93E
Ltmp1305:
LBB32_196:
	.loc	16 1155 13
	leaq	l___unnamed_107(%rip), %rdi
	leaq	l___unnamed_108(%rip), %rdx
	movl	$43, %esi
	callq	__ZN4core9panicking5panic17h383a6b80ea7021aaE
Ltmp1306:
LBB32_54:
	.loc	16 1113 21
	leaq	_str.0(%rip), %rdi
	leaq	l___unnamed_109(%rip), %rdx
	movl	$28, %esi
	callq	__ZN4core9panicking5panic17h383a6b80ea7021aaE
Ltmp1307:
LBB32_25:
	.loc	16 818 33
	leaq	_str.0(%rip), %rdi
	leaq	l___unnamed_17(%rip), %rdx
	movl	$28, %esi
	callq	__ZN4core9panicking5panic17h383a6b80ea7021aaE
Ltmp1308:
LBB32_24:
	.loc	16 0 33 is_stmt 0
	leaq	-160(%rbp), %rax
Ltmp1309:
	.loc	14 72 23 is_stmt 1
	movq	%rax, -176(%rbp)
	leaq	-168(%rbp), %rax
	.loc	14 72 35 is_stmt 0
	movq	%rax, -96(%rbp)
Ltmp1310:
	.loc	1 328 9 is_stmt 1
	leaq	l___unnamed_20(%rip), %rax
Ltmp1311:
	movq	%rax, -224(%rbp)
	movq	$1, -216(%rbp)
	movq	$0, -208(%rbp)
	leaq	l___unnamed_21(%rip), %rax
Ltmp1312:
	movq	%rax, -192(%rbp)
	movq	$0, -184(%rbp)
	leaq	-176(%rbp), %rax
Ltmp1313:
	.loc	14 19 38
	movq	%rax, -144(%rbp)
	leaq	__ZN42_$LT$$RF$T$u20$as$u20$core..fmt..Debug$GT$3fmt17hba288db9807855bfE(%rip), %rax
	movq	%rax, -136(%rbp)
	leaq	-96(%rbp), %rcx
	movq	%rcx, -128(%rbp)
	movq	%rax, -120(%rbp)
	leaq	-224(%rbp), %rax
	movq	%rax, -112(%rbp)
	movq	__ZN59_$LT$core..fmt..Arguments$u20$as$u20$core..fmt..Display$GT$3fmt17hca54f9d63261f398E@GOTPCREL(%rip), %rax
	movq	%rax, -104(%rbp)
Ltmp1314:
	.loc	1 328 9
	leaq	l___unnamed_22(%rip), %rax
Ltmp1315:
	movq	%rax, -272(%rbp)
	movq	$3, -264(%rbp)
	movq	$0, -256(%rbp)
	leaq	-144(%rbp), %rax
Ltmp1316:
	movq	%rax, -240(%rbp)
	movq	$3, -232(%rbp)
Ltmp1317:
	.loc	14 19 9
	leaq	l___unnamed_23(%rip), %rsi
	leaq	-272(%rbp), %rdi
	callq	__ZN4core9panicking9panic_fmt17hfce5b7173905fc53E
Ltmp1318:
LBB32_187:
	.loc	16 1536 23
	leaq	l___unnamed_110(%rip), %rdx
	movl	$128, %esi
	movq	%rax, %rdi
Ltmp1319:
	callq	__ZN4core9panicking18panic_bounds_check17he87128426d100e93E
Ltmp1320:
LBB32_60:
	.loc	16 1162 31
	leaq	l___unnamed_111(%rip), %rdx
	movl	$320, %esi
	movq	%r13, %rdi
	callq	__ZN4core9panicking18panic_bounds_check17he87128426d100e93E
Ltmp1321:
LBB32_61:
	.loc	16 1163 31
	leaq	_str.1(%rip), %rdi
	leaq	l___unnamed_112(%rip), %rdx
	movl	$33, %esi
	callq	__ZN4core9panicking5panic17h383a6b80ea7021aaE
Ltmp1322:
LBB32_62:
	.loc	16 1163 21 is_stmt 0
	leaq	l___unnamed_113(%rip), %rdx
	movl	$3, %esi
	movq	%rbx, %rdi
	callq	__ZN4core9panicking18panic_bounds_check17he87128426d100e93E
Ltmp1323:
LBB32_197:
	.loc	20 3170 13 is_stmt 1
	leaq	l___unnamed_114(%rip), %rdx
	movl	$65536, %esi
	movq	%r8, %rdi
	callq	__ZN4core5slice24slice_end_index_len_fail17hea9e3399ed430f80E
Ltmp1324:
LBB32_55:
	.loc	16 1132 25
	leaq	_str.1(%rip), %rdi
	leaq	l___unnamed_115(%rip), %rdx
	movl	$33, %esi
	callq	__ZN4core9panicking5panic17h383a6b80ea7021aaE
Ltmp1325:
LBB32_56:
	.loc	16 1133 25
	leaq	_str.1(%rip), %rdi
	leaq	l___unnamed_116(%rip), %rdx
	movl	$33, %esi
	callq	__ZN4core9panicking5panic17h383a6b80ea7021aaE
Ltmp1326:
LBB32_57:
	.loc	16 1135 35
	leaq	_str.1(%rip), %rdi
	leaq	l___unnamed_117(%rip), %rdx
	movl	$33, %esi
	callq	__ZN4core9panicking5panic17h383a6b80ea7021aaE
Ltmp1327:
LBB32_58:
	.loc	16 1142 39
	leaq	_str.0(%rip), %rdi
	leaq	l___unnamed_118(%rip), %rdx
	movl	$28, %esi
	callq	__ZN4core9panicking5panic17h383a6b80ea7021aaE
Ltmp1328:
Lfunc_end32:
	.cfi_endproc

	.p2align	4, 0x90
__ZN11miniz_oxide7deflate4core11flush_block17h3def04e98797ec6fE:
Lfunc_begin33:
	.loc	16 1604 0
	.cfi_startproc
	pushq	%rbp
	.cfi_def_cfa_offset 16
	.cfi_offset %rbp, -16
	movq	%rsp, %rbp
	.cfi_def_cfa_register %rbp
	pushq	%r15
	pushq	%r14
	pushq	%r13
	pushq	%r12
	pushq	%rbx
	subq	$200, %rsp
	.cfi_offset %rbx, -56
	.cfi_offset %r12, -48
	.cfi_offset %r13, -40
	.cfi_offset %r14, -32
	.cfi_offset %r15, -24
	movl	%edx, %r14d
Ltmp1329:
	movq	%rsi, %rbx
	movq	%rdi, %r13
Ltmp1330:
	.loc	16 1613 32 prologue_end
	movq	65576(%rdi), %rdx
	movb	$1, %cl
	movl	$85180, %esi
Ltmp1331:
	.loc	16 583 13
	cmpl	$1, 32(%rbx)
	jne	LBB33_6
Ltmp1332:
	.loc	16 0 0 is_stmt 0
	movq	65568(%r13), %rdi
Ltmp1333:
	.loc	16 583 45
	movq	48(%rbx), %r8
	movq	%r8, %rax
	subq	%rdi, %rax
	jb	LBB33_8
Ltmp1334:
	cmpq	$85196, %rax
	jb	LBB33_6
Ltmp1335:
	.loc	16 585 46 is_stmt 1
	movq	%rdi, %rsi
	addq	$85180, %rsi
	jb	LBB33_9
Ltmp1336:
	.loc	20 3179 19
	cmpq	%rsi, %r8
	.loc	20 3179 16 is_stmt 0
	jb	LBB33_127
Ltmp1337:
	.loc	20 3161 79 is_stmt 1
	subq	%rdi, %rsi
Ltmp1338:
	.loc	12 165 18
	addq	40(%rbx), %rdi
Ltmp1339:
	.loc	12 0 18 is_stmt 0
	xorl	%ecx, %ecx
Ltmp1340:
	movq	%rdi, %rdx
Ltmp1341:
LBB33_6:
	.loc	16 593 9 is_stmt 1
	movq	%rdx, -88(%rbp)
	movq	%rsi, -80(%rbp)
	movq	$0, -72(%rbp)
	movb	%cl, -56(%rbp)
Ltmp1342:
	.loc	16 1614 29
	movl	65616(%r13), %r8d
	.loc	16 1614 9 is_stmt 0
	movl	%r8d, -64(%rbp)
	.loc	16 1615 26 is_stmt 1
	movl	65620(%r13), %eax
	.loc	16 1615 9 is_stmt 0
	movl	%eax, -60(%rbp)
	.loc	16 1617 29 is_stmt 1
	testb	$8, 65586(%r13)
	je	LBB33_7
Ltmp1343:
	.loc	16 1618 17
	movq	65664(%r13), %rcx
	.loc	16 1618 16 is_stmt 0
	subq	65648(%r13), %rcx
	jb	LBB33_120
Ltmp1344:
	.loc	16 0 16
	movb	$1, %dl
	.loc	16 1618 16
	cmpq	65672(%r13), %rcx
	.loc	16 1617 29 is_stmt 1
	jbe	LBB33_11
Ltmp1345:
LBB33_7:
	.loc	16 0 29 is_stmt 0
	xorl	%edx, %edx
Ltmp1346:
LBB33_11:
	.loc	16 1620 17 is_stmt 1
	cmpl	$0, 65604(%r13)
	.loc	16 1620 9 is_stmt 0
	jne	LBB33_25
Ltmp1347:
	.loc	16 1621 9 is_stmt 1
	movq	$0, 65600(%r13)
Ltmp1348:
	.loc	16 1474 25
	movq	8(%r13), %rdi
	.loc	16 1474 14 is_stmt 0
	cmpq	$65536, %rdi
	jae	LBB33_128
Ltmp1349:
	.loc	16 1465 12 is_stmt 1
	movl	20(%r13), %ecx
	cmpl	$8, %ecx
	.loc	16 1465 9 is_stmt 0
	jne	LBB33_14
Ltmp1350:
	.loc	16 1466 13 is_stmt 1
	movb	$0, 24(%r13,%rdi)
	.loc	16 1467 13
	movq	(%r13), %rcx
	subq	$1, %rcx
	jb	LBB33_23
Ltmp1351:
	movq	%rcx, (%r13)
	jmp	LBB33_16
Ltmp1352:
LBB33_14:
	.loc	16 1469 13
	cmpl	$7, %ecx
	ja	LBB33_24
Ltmp1353:
	shrb	%cl, 24(%r13,%rdi)
Ltmp1354:
LBB33_16:
	.loc	16 0 13 is_stmt 0
	movl	%edx, -92(%rbp)
	movq	%rbx, -104(%rbp)
Ltmp1355:
	.loc	16 1627 12 is_stmt 1
	movl	65584(%r13), %ecx
	testl	$4096, %ecx
	je	LBB33_33
Ltmp1356:
	.loc	16 1627 61 is_stmt 0
	cmpl	$0, 65588(%r13)
	.loc	16 1627 12
	jne	LBB33_33
Ltmp1357:
	.loc	16 306 26 is_stmt 1
	movl	%ecx, %edi
	andl	$4095, %edi
Ltmp1358:
	.loc	16 307 9
	cmpl	$767, %edi
	seta	%bl
	orb	$2, %bl
	xorl	%edx, %edx
	cmpl	$1, %edi
	seta	%dl
	.loc	16 307 12 is_stmt 0
	testl	$16384, %ecx
	.loc	16 307 9
	movzbl	%bl, %edi
Ltmp1359:
	cmovnel	%edx, %edi
Ltmp1360:
	.loc	16 668 28 is_stmt 1
	cmpl	$31, %eax
	ja	LBB33_84
Ltmp1361:
	.loc	16 0 28 is_stmt 0
	movl	$120, %ebx
	.loc	16 668 28
	movl	%eax, %ecx
	shll	%cl, %ebx
	.loc	16 668 9
	orl	%r8d, %ebx
	movl	%ebx, -64(%rbp)
	.loc	16 669 9 is_stmt 1
	addl	$8, %eax
	.loc	16 0 0 is_stmt 0
	movl	%eax, -60(%rbp)
	.loc	16 671 13 is_stmt 1
	testq	%rsi, %rsi
	je	LBB33_20
Ltmp1362:
	.loc	16 0 13 is_stmt 0
	shlb	$6, %dil
Ltmp1363:
	movzbl	%dil, %eax
	leal	30720(%rax), %ecx
	imull	$2115, %ecx, %edx
	shrl	$16, %edx
	subl	%edx, %ecx
	shrl	%ecx
	addl	%edx, %ecx
	shrl	$4, %ecx
	movl	%ecx, %edx
	shll	$5, %edx
	subl	%edx, %ecx
	addl	%eax, %ecx
	orb	%cl, %al
	xorb	$31, %al
Ltmp1364:
	xorl	%edi, %edi
Ltmp1365:
	.p2align	4, 0x90
LBB33_27:
	.loc	16 671 13
	movq	-88(%rbp), %rcx
	movb	%bl, (%rcx,%rdi)
	.loc	16 672 13 is_stmt 1
	movq	-72(%rbp), %rdi
	incq	%rdi
	je	LBB33_85
Ltmp1366:
	movq	%rdi, -72(%rbp)
	.loc	16 673 13
	movl	-64(%rbp), %ebx
	.loc	16 674 13
	movl	-60(%rbp), %ecx
	.loc	16 673 13
	shrl	$8, %ebx
	movl	%ebx, -64(%rbp)
	.loc	16 674 13
	subl	$8, %ecx
	jb	LBB33_86
Ltmp1367:
	.loc	16 0 0 is_stmt 0
	movl	%ecx, -60(%rbp)
	.loc	16 670 15 is_stmt 1
	cmpl	$8, %ecx
	.loc	16 670 9 is_stmt 0
	jb	LBB33_32
Ltmp1368:
	.loc	16 671 13 is_stmt 1
	movq	-80(%rbp), %rsi
	cmpq	%rsi, %rdi
	jb	LBB33_27
Ltmp1369:
LBB33_31:
	.loc	16 0 0 is_stmt 0
	leaq	l___unnamed_10(%rip), %rdx
	callq	__ZN4core9panicking18panic_bounds_check17he87128426d100e93E
Ltmp1370:
LBB33_32:
	.loc	18 52 17 is_stmt 1
	movzbl	%al, %esi
	leaq	-88(%rbp), %rdi
Ltmp1371:
	.loc	16 1630 13
	movl	$8, %edx
	callq	__ZN11miniz_oxide7deflate4core17OutputBufferOxide8put_bits17hf668fc4ddb341623E
Ltmp1372:
LBB33_33:
	.loc	16 210 30
	xorl	%esi, %esi
	movl	%r14d, -96(%rbp)
Ltmp1373:
	cmpb	$4, %r14b
	sete	%sil
	leaq	-88(%rbp), %rdi
Ltmp1374:
	.loc	16 1634 9
	movl	$1, %edx
	callq	__ZN11miniz_oxide7deflate4core17OutputBufferOxide8put_bits17hf668fc4ddb341623E
Ltmp1375:
	.loc	16 680 18
	movq	-72(%rbp), %rbx
	.loc	16 681 25
	movl	-64(%rbp), %r14d
	.loc	16 682 22
	movl	-60(%rbp), %r12d
	.loc	16 683 20
	movb	-56(%rbp), %r15b
Ltmp1376:
	.loc	16 0 20 is_stmt 0
	movl	-92(%rbp), %esi
Ltmp1377:
	.loc	16 1638 28 is_stmt 1
	testb	%sil, %sil
	je	LBB33_35
Ltmp1378:
	.loc	16 0 28 is_stmt 0
	movb	$1, %al
Ltmp1379:
	.loc	16 1655 25 is_stmt 1
	movl	16(%r13), %ecx
	cmpq	$32, %rcx
	.loc	16 1655 24 is_stmt 0
	ja	LBB33_53
	jmp	LBB33_38
Ltmp1380:
LBB33_35:
	.loc	16 1640 18 is_stmt 1
	movl	65584(%r13), %eax
	.loc	16 1640 17 is_stmt 0
	shrl	$18, %eax
	andl	$1, %eax
	cmpl	$48, 16(%r13)
	setb	%cl
	orb	%al, %cl
Ltmp1381:
	.loc	16 1641 28 is_stmt 1
	movq	65632(%r13), %rdi
	.loc	16 1641 13 is_stmt 0
	movzbl	%cl, %ecx
	leaq	-88(%rbp), %rsi
	movq	%r13, %rdx
	callq	__ZN11miniz_oxide7deflate4core14compress_block17h0518d2a88c21f8ceE
	.loc	16 1641 72
	cmpb	$2, %al
	je	LBB33_51
Ltmp1382:
	.loc	16 1641 13
	testb	%al, %al
	sete	%al
Ltmp1383:
	.loc	16 0 13
	movl	-92(%rbp), %esi
Ltmp1384:
	.loc	16 1655 25 is_stmt 1
	movl	16(%r13), %ecx
	cmpq	$32, %rcx
	.loc	16 1655 24 is_stmt 0
	jbe	LBB33_38
Ltmp1385:
LBB33_53:
	.loc	16 1656 17 is_stmt 1
	movq	-72(%rbp), %rdx
	subq	%rbx, %rdx
	jb	LBB33_121
Ltmp1386:
	incq	%rdx
	je	LBB33_122
Ltmp1387:
	.loc	16 1656 16 is_stmt 0
	cmpq	%rcx, %rdx
	.loc	16 1655 24 is_stmt 1
	jae	LBB33_56
Ltmp1388:
LBB33_38:
	.loc	16 1659 12
	testb	%sil, %sil
	je	LBB33_58
Ltmp1389:
LBB33_39:
	.loc	16 688 9
	movq	%rbx, -72(%rbp)
	.loc	16 689 9
	movl	%r14d, -64(%rbp)
	.loc	16 690 9
	movl	%r12d, -60(%rbp)
	.loc	16 691 9
	movb	%r15b, -56(%rbp)
Ltmp1390:
	.loc	16 668 28
	cmpl	$31, %r12d
	ja	LBB33_84
Ltmp1391:
	.loc	16 668 9 is_stmt 0
	movl	%r14d, -64(%rbp)
	.loc	16 669 9 is_stmt 1
	leal	2(%r12), %eax
	.loc	16 0 0 is_stmt 0
	movl	%eax, -60(%rbp)
	.loc	16 670 15 is_stmt 1
	cmpl	$6, %r12d
	.loc	16 670 9 is_stmt 0
	jb	LBB33_46
Ltmp1392:
	.p2align	4, 0x90
LBB33_41:
	.loc	16 671 13 is_stmt 1
	movq	-80(%rbp), %rsi
	cmpq	%rsi, %rbx
	jae	LBB33_71
Ltmp1393:
	movq	-88(%rbp), %rax
	movb	%r14b, (%rax,%rbx)
	.loc	16 672 13
	movq	-72(%rbp), %rbx
	incq	%rbx
	je	LBB33_85
Ltmp1394:
	movq	%rbx, -72(%rbp)
	.loc	16 673 13
	movl	-64(%rbp), %r14d
	.loc	16 674 13
	movl	-60(%rbp), %eax
	.loc	16 673 13
	shrl	$8, %r14d
	movl	%r14d, -64(%rbp)
	.loc	16 674 13
	subl	$8, %eax
	jb	LBB33_86
Ltmp1395:
	.loc	16 0 0 is_stmt 0
	movl	%eax, -60(%rbp)
	.loc	16 670 15 is_stmt 1
	cmpl	$7, %eax
	.loc	16 670 9 is_stmt 0
	ja	LBB33_41
Ltmp1396:
	.loc	16 695 12 is_stmt 1
	testl	%eax, %eax
	.loc	16 695 9 is_stmt 0
	je	LBB33_47
Ltmp1397:
LBB33_46:
	.loc	16 0 9
	movl	$8, %edx
	.loc	16 696 23 is_stmt 1
	subl	%eax, %edx
Ltmp1398:
	.loc	16 0 23 is_stmt 0
	leaq	-88(%rbp), %rdi
Ltmp1399:
	.loc	16 697 13 is_stmt 1
	xorl	%esi, %esi
	callq	__ZN11miniz_oxide7deflate4core17OutputBufferOxide8put_bits17hf668fc4ddb341623E
Ltmp1400:
LBB33_47:
	.loc	16 1669 29
	movzwl	16(%r13), %esi
	leaq	-88(%rbp), %rbx
	.loc	16 1669 13 is_stmt 0
	movq	%rbx, %rdi
	movl	$16, %edx
	callq	__ZN11miniz_oxide7deflate4core17OutputBufferOxide8put_bits17hf668fc4ddb341623E
	.loc	16 1670 30 is_stmt 1
	movzwl	16(%r13), %esi
	xorl	$65535, %esi
	.loc	16 1670 13 is_stmt 0
	movq	%rbx, %rdi
	movl	$16, %edx
	callq	__ZN11miniz_oxide7deflate4core17OutputBufferOxide8put_bits17hf668fc4ddb341623E
	.loc	16 1673 25 is_stmt 1
	movl	16(%r13), %r15d
Ltmp1401:
	testq	%r15, %r15
Ltmp1402:
	.loc	13 505 9
	je	LBB33_60
Ltmp1403:
	.loc	13 0 9 is_stmt 0
	xorl	%ebx, %ebx
	leaq	-88(%rbp), %r14
Ltmp1404:
	.p2align	4, 0x90
LBB33_49:
	movq	65648(%r13), %rax
Ltmp1405:
	.loc	16 1674 27 is_stmt 1
	addq	%rbx, %rax
	jb	LBB33_124
Ltmp1406:
	.loc	9 3013 26
	incq	%rbx
Ltmp1407:
	.loc	16 1674 27
	andl	$32767, %eax
Ltmp1408:
	.loc	16 1675 43
	movq	65640(%r13), %rcx
	movzbl	131072(%rcx,%rax), %esi
Ltmp1409:
	.loc	16 1675 17 is_stmt 0
	movq	%r14, %rdi
	movl	$8, %edx
	callq	__ZN11miniz_oxide7deflate4core17OutputBufferOxide8put_bits17hf668fc4ddb341623E
Ltmp1410:
	.loc	11 1136 52 is_stmt 1
	cmpq	%rbx, %r15
Ltmp1411:
	.loc	13 505 9
	jne	LBB33_49
	jmp	LBB33_60
Ltmp1412:
LBB33_56:
	.loc	16 1657 17
	movq	65664(%r13), %rcx
	subq	65648(%r13), %rcx
	jb	LBB33_123
Ltmp1413:
	.loc	16 1657 16 is_stmt 0
	cmpq	65672(%r13), %rcx
	setbe	%cl
	.loc	16 1655 24 is_stmt 1
	orb	%sil, %cl
Ltmp1414:
	jne	LBB33_39
Ltmp1415:
LBB33_58:
	.loc	16 1677 16
	testb	%al, %al
	je	LBB33_60
Ltmp1416:
	.loc	16 688 9
	movq	%rbx, -72(%rbp)
	.loc	16 689 9
	movl	%r14d, -64(%rbp)
	.loc	16 690 9
	movl	%r12d, -60(%rbp)
	.loc	16 691 9
	movb	%r15b, -56(%rbp)
Ltmp1417:
	.loc	16 1679 28
	movq	65632(%r13), %rdi
	leaq	-88(%rbp), %rsi
	.loc	16 1679 13 is_stmt 0
	movq	%r13, %rdx
	movl	$1, %ecx
	callq	__ZN11miniz_oxide7deflate4core14compress_block17h0518d2a88c21f8ceE
	.loc	16 1679 66
	cmpb	$2, %al
	jne	LBB33_60
Ltmp1418:
LBB33_51:
	.loc	16 0 66
	movl	$1, %eax
	jmp	LBB33_52
Ltmp1419:
LBB33_60:
	movl	-96(%rbp), %eax
Ltmp1420:
	.loc	16 210 30 is_stmt 1
	testb	%al, %al
Ltmp1421:
	.loc	16 1682 9
	je	LBB33_92
Ltmp1422:
	.loc	16 0 0 is_stmt 0
	movl	-60(%rbp), %esi
Ltmp1423:
	.loc	16 210 30 is_stmt 1
	cmpb	$4, %al
Ltmp1424:
	.loc	16 1683 13
	jne	LBB33_62
Ltmp1425:
	.loc	16 695 12
	testl	%esi, %esi
	.loc	16 695 9 is_stmt 0
	je	LBB33_90
Ltmp1426:
	.loc	16 0 9
	movl	$8, %edx
	.loc	16 696 23 is_stmt 1
	subl	%esi, %edx
	jb	LBB33_129
Ltmp1427:
	.loc	16 0 23 is_stmt 0
	leaq	-88(%rbp), %rdi
Ltmp1428:
	.loc	16 697 13 is_stmt 1
	xorl	%esi, %esi
	callq	__ZN11miniz_oxide7deflate4core17OutputBufferOxide8put_bits17hf668fc4ddb341623E
Ltmp1429:
LBB33_90:
	.loc	16 1685 20
	testb	$16, 65585(%r13)
	.loc	16 1685 17 is_stmt 0
	je	LBB33_92
Ltmp1430:
	.loc	16 1686 37 is_stmt 1
	movl	65608(%r13), %ebx
Ltmp1431:
	.loc	16 1688 41
	movl	%ebx, %eax
	shrl	$24, %eax
	leaq	-88(%rbp), %r14
	.loc	16 1688 25 is_stmt 0
	movq	%r14, %rdi
	movl	%eax, %esi
	movl	$8, %edx
	callq	__ZN11miniz_oxide7deflate4core17OutputBufferOxide8put_bits17hf668fc4ddb341623E
	.loc	16 1688 41
	movzbl	%bl, %r12d
Ltmp1432:
	movl	%ebx, %eax
	shrl	$16, %eax
	movzbl	%al, %esi
	.loc	16 1688 25
	movq	%r14, %rdi
	movl	$8, %edx
	callq	__ZN11miniz_oxide7deflate4core17OutputBufferOxide8put_bits17hf668fc4ddb341623E
Ltmp1433:
	.loc	16 1688 41
	movzbl	%bh, %esi
	.loc	16 1688 25
	movq	%r14, %rdi
	movl	$8, %edx
	callq	__ZN11miniz_oxide7deflate4core17OutputBufferOxide8put_bits17hf668fc4ddb341623E
Ltmp1434:
	movq	%r14, %rdi
	movl	%r12d, %esi
	movl	$8, %edx
	callq	__ZN11miniz_oxide7deflate4core17OutputBufferOxide8put_bits17hf668fc4ddb341623E
Ltmp1435:
	.loc	16 0 25
	jmp	LBB33_92
Ltmp1436:
LBB33_62:
	.loc	16 668 28 is_stmt 1
	cmpl	$31, %esi
	ja	LBB33_84
Ltmp1437:
	.loc	16 668 9 is_stmt 0
	movl	-64(%rbp), %eax
	.loc	16 669 9 is_stmt 1
	leal	3(%rsi), %ecx
	.loc	16 0 0 is_stmt 0
	movl	%ecx, -60(%rbp)
	.loc	16 670 15 is_stmt 1
	cmpl	$5, %esi
	.loc	16 670 9 is_stmt 0
	jb	LBB33_72
Ltmp1438:
	.loc	16 671 24 is_stmt 1
	movq	-72(%rbp), %rdi
Ltmp1439:
	.p2align	4, 0x90
LBB33_65:
	.loc	16 671 13 is_stmt 0
	movq	-80(%rbp), %rsi
	cmpq	%rsi, %rdi
	jae	LBB33_31
Ltmp1440:
	movq	-88(%rbp), %rcx
	movb	%al, (%rcx,%rdi)
	.loc	16 672 13 is_stmt 1
	movq	-72(%rbp), %rdi
	incq	%rdi
	je	LBB33_85
Ltmp1441:
	movq	%rdi, -72(%rbp)
	.loc	16 673 13
	movl	-64(%rbp), %eax
	.loc	16 674 13
	movl	-60(%rbp), %ecx
	.loc	16 673 13
	shrl	$8, %eax
	movl	%eax, -64(%rbp)
	.loc	16 674 13
	subl	$8, %ecx
	jb	LBB33_86
Ltmp1442:
	.loc	16 0 0 is_stmt 0
	movl	%ecx, -60(%rbp)
	.loc	16 670 15 is_stmt 1
	cmpl	$7, %ecx
	.loc	16 670 9 is_stmt 0
	ja	LBB33_65
Ltmp1443:
	.loc	16 695 12 is_stmt 1
	testl	%ecx, %ecx
	.loc	16 695 9 is_stmt 0
	je	LBB33_70
Ltmp1444:
LBB33_72:
	.loc	16 0 9
	movl	$8, %edx
	.loc	16 696 23 is_stmt 1
	subl	%ecx, %edx
Ltmp1445:
	.loc	16 0 23 is_stmt 0
	leaq	-88(%rbp), %rdi
Ltmp1446:
	.loc	16 697 13 is_stmt 1
	xorl	%esi, %esi
	callq	__ZN11miniz_oxide7deflate4core17OutputBufferOxide8put_bits17hf668fc4ddb341623E
Ltmp1447:
	.loc	16 668 36
	movl	-60(%rbp), %ecx
Ltmp1448:
	.loc	16 668 28 is_stmt 0
	cmpl	$31, %ecx
	ja	LBB33_84
Ltmp1449:
	.loc	16 668 9
	movl	-64(%rbp), %eax
	.loc	16 671 24 is_stmt 1
	movq	-72(%rbp), %rdi
Ltmp1450:
LBB33_74:
	.loc	16 669 9
	addl	$16, %ecx
	.loc	16 0 0 is_stmt 0
	movl	%ecx, -60(%rbp)
Ltmp1451:
	.p2align	4, 0x90
LBB33_75:
	.loc	16 671 13 is_stmt 1
	movq	-80(%rbp), %rsi
	cmpq	%rsi, %rdi
	jae	LBB33_31
Ltmp1452:
	movq	-88(%rbp), %rcx
	movb	%al, (%rcx,%rdi)
	.loc	16 672 13
	movq	-72(%rbp), %rdi
	incq	%rdi
	je	LBB33_85
Ltmp1453:
	movq	%rdi, -72(%rbp)
	.loc	16 673 13
	movl	-64(%rbp), %eax
	.loc	16 674 13
	movl	-60(%rbp), %ecx
	.loc	16 673 13
	shrl	$8, %eax
	movl	%eax, -64(%rbp)
	.loc	16 674 13
	subl	$8, %ecx
	jb	LBB33_86
Ltmp1454:
	.loc	16 0 0 is_stmt 0
	movl	%ecx, -60(%rbp)
	.loc	16 670 15 is_stmt 1
	cmpl	$7, %ecx
	.loc	16 670 9 is_stmt 0
	ja	LBB33_75
Ltmp1455:
	.loc	16 0 9
	movl	$65535, %edx
Ltmp1456:
	.loc	16 668 28 is_stmt 1
	shll	%cl, %edx
	.loc	16 668 9 is_stmt 0
	orl	%eax, %edx
	movl	%edx, -64(%rbp)
	.loc	16 669 9 is_stmt 1
	addl	$16, %ecx
	.loc	16 0 0 is_stmt 0
	movl	%ecx, -60(%rbp)
Ltmp1457:
	.p2align	4, 0x90
LBB33_80:
	.loc	16 671 13 is_stmt 1
	movq	-80(%rbp), %rsi
	cmpq	%rsi, %rdi
	jae	LBB33_31
Ltmp1458:
	movq	-88(%rbp), %rax
	movb	%dl, (%rax,%rdi)
	.loc	16 672 13
	movq	-72(%rbp), %rdi
	incq	%rdi
	je	LBB33_85
Ltmp1459:
	movq	%rdi, -72(%rbp)
	.loc	16 673 13
	movl	-64(%rbp), %edx
	.loc	16 674 13
	movl	-60(%rbp), %eax
	.loc	16 673 13
	shrl	$8, %edx
	movl	%edx, -64(%rbp)
	.loc	16 674 13
	subl	$8, %eax
	jb	LBB33_86
Ltmp1460:
	.loc	16 0 0 is_stmt 0
	movl	%eax, -60(%rbp)
	.loc	16 670 15 is_stmt 1
	cmpl	$7, %eax
	.loc	16 670 9 is_stmt 0
	ja	LBB33_80
Ltmp1461:
LBB33_92:
	.loc	16 1702 21 is_stmt 1
	movq	65632(%r13), %rdi
Ltmp1462:
	.loc	16 375 9
	movl	$576, %esi
	callq	___bzero
Ltmp1463:
	.loc	16 1703 21
	movq	65632(%r13), %rax
Ltmp1464:
	.loc	16 375 9
	movq	$0, 632(%rax)
	movq	$0, 624(%rax)
	movq	$0, 616(%rax)
	movq	$0, 608(%rax)
	movq	$0, 600(%rax)
	movq	$0, 592(%rax)
	movq	$0, 584(%rax)
	movq	$0, 576(%rax)
	movl	$1, %eax
Ltmp1465:
	.loc	16 1705 9
	movq	%rax, %xmm0
	movdqu	%xmm0, (%r13)
	.loc	16 1707 9
	movl	$8, 20(%r13)
	.loc	16 1708 37
	movl	16(%r13), %eax
	.loc	16 1708 9 is_stmt 0
	addq	65648(%r13), %rax
	jb	LBB33_125
Ltmp1466:
	movq	%rax, 65648(%r13)
	.loc	16 1709 9 is_stmt 1
	movl	$0, 16(%r13)
	.loc	16 1710 9
	movl	65588(%r13), %eax
	incl	%eax
	movq	-104(%rbp), %rbx
Ltmp1467:
	je	LBB33_126
Ltmp1468:
	movl	%eax, 65588(%r13)
Ltmp1469:
	.loc	16 680 18
	movq	-72(%rbp), %r15
	.loc	16 681 25
	movq	-64(%rbp), %rcx
	.loc	16 683 20
	movb	-56(%rbp), %al
Ltmp1470:
	.loc	16 1714 9
	movq	%rcx, 65616(%r13)
Ltmp1471:
	.loc	16 644 12
	testq	%r15, %r15
	.loc	16 644 9 is_stmt 0
	je	LBB33_117
Ltmp1472:
	.loc	10 289 13 is_stmt 1
	movq	16(%rbx), %rcx
	testq	%rcx, %rcx
Ltmp1473:
	.loc	16 630 32
	je	LBB33_97
Ltmp1474:
	.loc	16 648 31
	movq	65560(%r13), %rdx
Ltmp1475:
	.loc	16 631 13
	movq	%rdx, (%rcx)
Ltmp1476:
LBB33_97:
	.loc	16 650 13
	cmpl	$1, 32(%rbx)
	jne	LBB33_115
Ltmp1477:
	.loc	16 548 12
	testb	%al, %al
	.loc	16 548 9 is_stmt 0
	je	LBB33_99
Ltmp1478:
	.loc	16 551 17 is_stmt 1
	movq	48(%rbx), %rsi
	.loc	16 551 38 is_stmt 0
	movq	65568(%r13), %rdi
	.loc	16 551 17
	movq	%rsi, %r14
	subq	%rdi, %r14
	jb	LBB33_110
Ltmp1479:
	.loc	11 950 9 is_stmt 1
	cmpq	%r15, %r14
	.loc	11 0 0 is_stmt 0
	movq	%r15, %r12
	cmovbq	%r14, %r12
Ltmp1480:
	.loc	16 553 52 is_stmt 1
	movq	%rdi, %rax
Ltmp1481:
	addq	%r12, %rax
	jb	LBB33_111
Ltmp1482:
	.loc	20 3179 19
	cmpq	%rax, %rsi
	.loc	20 3179 16 is_stmt 0
	jb	LBB33_130
Ltmp1483:
	.loc	20 3169 19 is_stmt 1
	cmpq	$85197, %r12
	.loc	20 3169 16 is_stmt 0
	jae	LBB33_131
Ltmp1484:
	.loc	16 0 0
	subq	%rdi, %rax
	addq	40(%rbx), %rdi
	movq	65576(%r13), %rsi
Ltmp1485:
	.loc	20 2370 20 is_stmt 1
	movq	%rax, -112(%rbp)
	.loc	20 2370 32 is_stmt 0
	movq	%r12, -120(%rbp)
Ltmp1486:
	.loc	14 66 21 is_stmt 1
	cmpq	%r12, %rax
	.loc	14 66 17 is_stmt 0
	jne	LBB33_132
Ltmp1487:
	.loc	21 2130 14 is_stmt 1
	movq	%r12, %rdx
	callq	_memcpy
Ltmp1488:
	.loc	21 0 14 is_stmt 0
	movq	65568(%r13), %rax
Ltmp1489:
	.loc	16 556 13 is_stmt 1
	addq	%r12, %rax
	jb	LBB33_112
Ltmp1490:
	movq	%rax, 65568(%r13)
Ltmp1491:
	.loc	11 950 9
	cmpq	%r15, %r14
Ltmp1492:
	.loc	16 557 13
	jae	LBB33_117
Ltmp1493:
	.loc	16 558 17
	movl	%r12d, 65600(%r13)
	.loc	16 559 42
	subq	%r12, %r15
Ltmp1494:
	jb	LBB33_113
Ltmp1495:
	.loc	16 559 17 is_stmt 0
	movl	%r15d, 65604(%r13)
	jmp	LBB33_117
Ltmp1496:
LBB33_115:
	.loc	20 3169 19 is_stmt 1
	cmpq	$85197, %r15
	.loc	20 3169 16 is_stmt 0
	jae	LBB33_133
Ltmp1497:
	.loc	16 527 49 is_stmt 1
	movq	65576(%r13), %rsi
Ltmp1498:
	.loc	16 527 28 is_stmt 0
	movq	40(%rbx), %rdi
	movq	48(%rbx), %rax
Ltmp1499:
	movq	%r15, %rdx
	callq	*24(%rax)
Ltmp1500:
	.loc	16 529 9 is_stmt 1
	testb	%al, %al
	jne	LBB33_117
Ltmp1501:
	.loc	16 530 13
	movl	$-1, 65612(%r13)
	xorl	%eax, %eax
	movl	$-1, %edx
	jmp	LBB33_52
Ltmp1502:
LBB33_99:
	.loc	16 562 13
	addq	65568(%r13), %r15
Ltmp1503:
	jb	LBB33_114
Ltmp1504:
	movq	%r15, 65568(%r13)
Ltmp1505:
LBB33_117:
	.loc	16 0 0 is_stmt 0
	movl	65604(%r13), %edx
	xorl	%eax, %eax
Ltmp1506:
LBB33_52:
	.loc	16 1719 2 is_stmt 1
	addq	$200, %rsp
	popq	%rbx
	popq	%r12
	popq	%r13
Ltmp1507:
	popq	%r14
	popq	%r15
	popq	%rbp
	retq
Ltmp1508:
LBB33_70:
	.loc	16 0 2 is_stmt 0
	xorl	%ecx, %ecx
	jmp	LBB33_74
Ltmp1509:
LBB33_85:
	leaq	_str.0(%rip), %rdi
	leaq	l___unnamed_11(%rip), %rdx
	movl	$28, %esi
	callq	__ZN4core9panicking5panic17h383a6b80ea7021aaE
Ltmp1510:
LBB33_86:
	leaq	_str.1(%rip), %rdi
	leaq	l___unnamed_12(%rip), %rdx
	movl	$33, %esi
	callq	__ZN4core9panicking5panic17h383a6b80ea7021aaE
Ltmp1511:
LBB33_124:
	.loc	16 1674 27 is_stmt 1
	leaq	_str.0(%rip), %rdi
	leaq	l___unnamed_119(%rip), %rdx
	movl	$28, %esi
	callq	__ZN4core9panicking5panic17h383a6b80ea7021aaE
Ltmp1512:
LBB33_71:
	.loc	16 671 13
	leaq	l___unnamed_10(%rip), %rdx
	movq	%rbx, %rdi
	callq	__ZN4core9panicking18panic_bounds_check17he87128426d100e93E
Ltmp1513:
LBB33_25:
	.loc	16 1620 9
	leaq	l___unnamed_120(%rip), %rdi
	leaq	l___unnamed_121(%rip), %rdx
	movl	$47, %esi
	callq	__ZN4core9panicking5panic17h383a6b80ea7021aaE
Ltmp1514:
LBB33_128:
	.loc	16 1474 14
	leaq	l___unnamed_122(%rip), %rdx
	movl	$65536, %esi
	callq	__ZN4core9panicking18panic_bounds_check17he87128426d100e93E
Ltmp1515:
LBB33_84:
	.loc	16 0 0 is_stmt 0
	leaq	_str.5(%rip), %rdi
	leaq	l___unnamed_16(%rip), %rdx
	movl	$35, %esi
	callq	__ZN4core9panicking5panic17h383a6b80ea7021aaE
Ltmp1516:
LBB33_125:
	.loc	16 1708 9 is_stmt 1
	leaq	_str.0(%rip), %rdi
	leaq	l___unnamed_123(%rip), %rdx
	movl	$28, %esi
	callq	__ZN4core9panicking5panic17h383a6b80ea7021aaE
Ltmp1517:
LBB33_126:
	.loc	16 1710 9
	leaq	_str.0(%rip), %rdi
	leaq	l___unnamed_124(%rip), %rdx
	movl	$28, %esi
	callq	__ZN4core9panicking5panic17h383a6b80ea7021aaE
Ltmp1518:
LBB33_8:
	.loc	16 583 45
	leaq	_str.1(%rip), %rdi
Ltmp1519:
	leaq	l___unnamed_125(%rip), %rdx
Ltmp1520:
	movl	$33, %esi
	callq	__ZN4core9panicking5panic17h383a6b80ea7021aaE
Ltmp1521:
LBB33_120:
	.loc	16 1618 16
	leaq	_str.1(%rip), %rdi
	leaq	l___unnamed_126(%rip), %rdx
	movl	$33, %esi
	callq	__ZN4core9panicking5panic17h383a6b80ea7021aaE
Ltmp1522:
LBB33_23:
	.loc	16 1467 13
	leaq	_str.1(%rip), %rdi
	leaq	l___unnamed_127(%rip), %rdx
	movl	$33, %esi
	callq	__ZN4core9panicking5panic17h383a6b80ea7021aaE
Ltmp1523:
LBB33_24:
	.loc	16 1469 13
	leaq	_str.6(%rip), %rdi
	leaq	l___unnamed_128(%rip), %rdx
	movl	$36, %esi
	callq	__ZN4core9panicking5panic17h383a6b80ea7021aaE
Ltmp1524:
LBB33_121:
	.loc	16 1656 17
	leaq	_str.1(%rip), %rdi
	leaq	l___unnamed_129(%rip), %rdx
	movl	$33, %esi
	callq	__ZN4core9panicking5panic17h383a6b80ea7021aaE
Ltmp1525:
LBB33_122:
	leaq	_str.0(%rip), %rdi
	leaq	l___unnamed_129(%rip), %rdx
	movl	$28, %esi
	callq	__ZN4core9panicking5panic17h383a6b80ea7021aaE
Ltmp1526:
LBB33_9:
	.loc	16 585 46
	leaq	_str.0(%rip), %rdi
Ltmp1527:
	leaq	l___unnamed_130(%rip), %rdx
Ltmp1528:
	movl	$28, %esi
	callq	__ZN4core9panicking5panic17h383a6b80ea7021aaE
Ltmp1529:
LBB33_127:
	.loc	20 3180 13
	leaq	l___unnamed_131(%rip), %rdx
Ltmp1530:
	movq	%rsi, %rdi
Ltmp1531:
	movq	%r8, %rsi
Ltmp1532:
	callq	__ZN4core5slice24slice_end_index_len_fail17hea9e3399ed430f80E
Ltmp1533:
LBB33_133:
	.loc	20 3170 13
	leaq	l___unnamed_132(%rip), %rdx
	movl	$85196, %esi
	movq	%r15, %rdi
	callq	__ZN4core5slice24slice_end_index_len_fail17hea9e3399ed430f80E
Ltmp1534:
LBB33_20:
	.loc	20 0 13 is_stmt 0
	xorl	%edi, %edi
Ltmp1535:
	leaq	l___unnamed_10(%rip), %rdx
	callq	__ZN4core9panicking18panic_bounds_check17he87128426d100e93E
Ltmp1536:
LBB33_123:
	.loc	16 1657 17 is_stmt 1
	leaq	_str.1(%rip), %rdi
	leaq	l___unnamed_133(%rip), %rdx
	movl	$33, %esi
	callq	__ZN4core9panicking5panic17h383a6b80ea7021aaE
Ltmp1537:
LBB33_129:
	.loc	16 696 23
	leaq	_str.1(%rip), %rdi
	leaq	l___unnamed_134(%rip), %rdx
	movl	$33, %esi
	callq	__ZN4core9panicking5panic17h383a6b80ea7021aaE
Ltmp1538:
LBB33_110:
	.loc	16 551 17
	leaq	_str.1(%rip), %rdi
	leaq	l___unnamed_135(%rip), %rdx
	movl	$33, %esi
	callq	__ZN4core9panicking5panic17h383a6b80ea7021aaE
Ltmp1539:
LBB33_111:
	.loc	16 553 52
	leaq	_str.0(%rip), %rdi
	leaq	l___unnamed_136(%rip), %rdx
	movl	$28, %esi
	callq	__ZN4core9panicking5panic17h383a6b80ea7021aaE
Ltmp1540:
LBB33_130:
	.loc	20 3180 13
	leaq	l___unnamed_137(%rip), %rdx
	movq	%rax, %rdi
Ltmp1541:
	callq	__ZN4core5slice24slice_end_index_len_fail17hea9e3399ed430f80E
Ltmp1542:
LBB33_131:
	.loc	20 3170 13
	leaq	l___unnamed_138(%rip), %rdx
	movl	$85196, %esi
	movq	%r12, %rdi
	callq	__ZN4core5slice24slice_end_index_len_fail17hea9e3399ed430f80E
Ltmp1543:
LBB33_132:
	.loc	20 0 13 is_stmt 0
	leaq	-112(%rbp), %rax
Ltmp1544:
	.loc	14 72 23 is_stmt 1
	movq	%rax, -128(%rbp)
	leaq	-120(%rbp), %rax
	.loc	14 72 35 is_stmt 0
	movq	%rax, -136(%rbp)
Ltmp1545:
	.loc	1 328 9 is_stmt 1
	leaq	l___unnamed_20(%rip), %rax
Ltmp1546:
	movq	%rax, -88(%rbp)
	movq	$1, -80(%rbp)
	movq	$0, -72(%rbp)
	leaq	l___unnamed_21(%rip), %rax
Ltmp1547:
	movq	%rax, -56(%rbp)
	movq	$0, -48(%rbp)
	leaq	-128(%rbp), %rax
Ltmp1548:
	.loc	14 19 38
	movq	%rax, -184(%rbp)
	leaq	__ZN42_$LT$$RF$T$u20$as$u20$core..fmt..Debug$GT$3fmt17hba288db9807855bfE(%rip), %rax
	movq	%rax, -176(%rbp)
	leaq	-136(%rbp), %rcx
	movq	%rcx, -168(%rbp)
	movq	%rax, -160(%rbp)
	leaq	-88(%rbp), %rax
	movq	%rax, -152(%rbp)
	movq	__ZN59_$LT$core..fmt..Arguments$u20$as$u20$core..fmt..Display$GT$3fmt17hca54f9d63261f398E@GOTPCREL(%rip), %rax
	movq	%rax, -144(%rbp)
Ltmp1549:
	.loc	1 328 9
	leaq	l___unnamed_22(%rip), %rax
Ltmp1550:
	movq	%rax, -232(%rbp)
	movq	$3, -224(%rbp)
	movq	$0, -216(%rbp)
	leaq	-184(%rbp), %rax
Ltmp1551:
	movq	%rax, -200(%rbp)
	movq	$3, -192(%rbp)
Ltmp1552:
	.loc	14 19 9
	leaq	l___unnamed_23(%rip), %rsi
Ltmp1553:
	.loc	14 0 9 is_stmt 0
	leaq	-232(%rbp), %rdi
Ltmp1554:
	.loc	14 19 9
	callq	__ZN4core9panicking9panic_fmt17hfce5b7173905fc53E
Ltmp1555:
LBB33_112:
	.loc	16 556 13 is_stmt 1
	leaq	_str.0(%rip), %rdi
	leaq	l___unnamed_139(%rip), %rdx
	movl	$28, %esi
	callq	__ZN4core9panicking5panic17h383a6b80ea7021aaE
Ltmp1556:
LBB33_114:
	.loc	16 562 13
	leaq	_str.0(%rip), %rdi
	leaq	l___unnamed_140(%rip), %rdx
	movl	$28, %esi
	callq	__ZN4core9panicking5panic17h383a6b80ea7021aaE
Ltmp1557:
LBB33_113:
	.loc	16 559 42
	leaq	_str.1(%rip), %rdi
	leaq	l___unnamed_141(%rip), %rdx
	movl	$33, %esi
	callq	__ZN4core9panicking5panic17h383a6b80ea7021aaE
Ltmp1558:
Lfunc_end33:
	.cfi_endproc

	.p2align	4, 0x90
__ZN11miniz_oxide7deflate4core12record_match17hf7a583217a39a394E:
Lfunc_begin34:
	.loc	16 1731 0
	.cfi_startproc
	pushq	%rbp
	.cfi_def_cfa_offset 16
	.cfi_offset %rbp, -16
	movq	%rsp, %rbp
	.cfi_def_cfa_register %rbp
Ltmp1559:
	.loc	16 1732 13 prologue_end
	cmpl	$3, %edx
	.loc	16 1732 5 is_stmt 0
	jb	LBB34_30
Ltmp1560:
	.loc	16 1733 13 is_stmt 1
	testl	%ecx, %ecx
	.loc	16 1733 5 is_stmt 0
	je	LBB34_31
Ltmp1561:
	.loc	16 1734 13 is_stmt 1
	cmpl	$32768, %ecx
	.loc	16 1734 5 is_stmt 0
	ja	LBB34_32
Ltmp1562:
	.loc	16 0 5
	movl	16(%rsi), %eax
	.loc	16 1736 5 is_stmt 1
	addl	%edx, %eax
	jb	LBB34_25
Ltmp1563:
	movl	%eax, 16(%rsi)
Ltmp1564:
	.loc	16 1460 20
	movq	(%rsi), %rax
	.loc	16 1460 9 is_stmt 0
	cmpq	$65535, %rax
	ja	LBB34_7
Ltmp1565:
	.loc	16 0 0
	addl	$-3, %edx
Ltmp1566:
	.loc	16 1460 9
	movb	%dl, 24(%rsi,%rax)
	.loc	16 1461 9 is_stmt 1
	movq	(%rsi), %rax
	incq	%rax
	je	LBB34_6
Ltmp1567:
	movq	%rax, (%rsi)
Ltmp1568:
	.loc	16 1460 9
	cmpq	$65535, %rax
	ja	LBB34_7
Ltmp1569:
	.loc	16 0 0 is_stmt 0
	decl	%ecx
Ltmp1570:
	.loc	16 1460 9
	movb	%cl, 24(%rsi,%rax)
	.loc	16 1461 9 is_stmt 1
	movq	(%rsi), %rax
	incq	%rax
	je	LBB34_6
Ltmp1571:
	movq	%rax, (%rsi)
Ltmp1572:
	.loc	16 1460 9
	cmpq	$65535, %rax
	ja	LBB34_7
Ltmp1573:
	.loc	16 1741 19
	movl	%ecx, %r8d
	shrl	$8, %r8d
Ltmp1574:
	.loc	16 1460 9
	movb	%r8b, 24(%rsi,%rax)
	.loc	16 1461 9
	movq	(%rsi), %rax
	incq	%rax
	je	LBB34_6
Ltmp1575:
	movq	%rax, (%rsi)
Ltmp1576:
	.loc	16 1474 25
	movq	8(%rsi), %rax
	.loc	16 1474 14 is_stmt 0
	cmpq	$65536, %rax
	jae	LBB34_14
Ltmp1577:
	.loc	16 1743 5 is_stmt 1
	shrb	24(%rsi,%rax)
Ltmp1578:
	.loc	16 1474 25
	movq	8(%rsi), %rax
	.loc	16 1474 14 is_stmt 0
	cmpq	$65536, %rax
	jae	LBB34_14
Ltmp1579:
	.loc	16 1744 5 is_stmt 1
	orb	$-128, 24(%rsi,%rax)
Ltmp1580:
	.loc	16 1483 9
	movl	20(%rsi), %eax
	subl	$1, %eax
	jb	LBB34_34
Ltmp1581:
	movl	%eax, 20(%rsi)
	.loc	16 1484 12
	testl	%eax, %eax
	.loc	16 1484 9 is_stmt 0
	jne	LBB34_20
Ltmp1582:
	.loc	16 1485 13 is_stmt 1
	movl	$8, 20(%rsi)
Ltmp1583:
	.loc	16 1478 30
	movq	(%rsi), %rax
	.loc	16 1478 9 is_stmt 0
	movq	%rax, 8(%rsi)
	.loc	16 1479 9 is_stmt 1
	incq	%rax
	je	LBB34_33
Ltmp1584:
	movq	%rax, (%rsi)
Ltmp1585:
LBB34_20:
	.loc	16 1747 18
	movl	%ecx, %eax
	leaq	l___unnamed_82(%rip), %rsi
Ltmp1586:
	addq	%rax, %rsi
	movl	%r8d, %r8d
	leaq	l___unnamed_84(%rip), %rax
	addq	%r8, %rax
	.loc	16 1747 21 is_stmt 0
	cmpl	$512, %ecx
	.loc	16 1747 18
	cmovbq	%rsi, %rax
Ltmp1587:
	.loc	16 0 0
	movzbl	(%rax), %eax
Ltmp1588:
	.loc	16 1752 5 is_stmt 1
	movzwl	576(%rdi,%rax,2), %ecx
Ltmp1589:
	incw	%cx
	je	LBB34_26
Ltmp1590:
	movw	%cx, 576(%rdi,%rax,2)
	.loc	16 1753 24
	movl	%edx, %eax
Ltmp1591:
	.loc	16 1753 16 is_stmt 0
	cmpl	$255, %edx
	ja	LBB34_27
Ltmp1592:
	leaq	l___unnamed_79(%rip), %rcx
	movzwl	(%rcx,%rax,2), %eax
	cmpq	$287, %rax
	.loc	16 1753 5
	ja	LBB34_28
Ltmp1593:
	movzwl	(%rdi,%rax,2), %ecx
	incw	%cx
	je	LBB34_29
Ltmp1594:
	movw	%cx, (%rdi,%rax,2)
Ltmp1595:
	.loc	16 1754 2 is_stmt 1
	popq	%rbp
	retq
Ltmp1596:
LBB34_7:
	.loc	16 0 0 is_stmt 0
	leaq	l___unnamed_142(%rip), %rdx
Ltmp1597:
	jmp	LBB34_8
Ltmp1598:
LBB34_6:
	leaq	_str.0(%rip), %rdi
Ltmp1599:
	leaq	l___unnamed_143(%rip), %rdx
Ltmp1600:
	movl	$28, %esi
Ltmp1601:
	callq	__ZN4core9panicking5panic17h383a6b80ea7021aaE
Ltmp1602:
LBB34_14:
	leaq	l___unnamed_122(%rip), %rdx
Ltmp1603:
LBB34_8:
	movl	$65536, %esi
Ltmp1604:
	movq	%rax, %rdi
Ltmp1605:
	callq	__ZN4core9panicking18panic_bounds_check17he87128426d100e93E
Ltmp1606:
LBB34_30:
	.loc	16 1732 5 is_stmt 1
	leaq	l___unnamed_144(%rip), %rdi
Ltmp1607:
	leaq	l___unnamed_145(%rip), %rdx
Ltmp1608:
	movl	$51, %esi
Ltmp1609:
	callq	__ZN4core9panicking5panic17h383a6b80ea7021aaE
Ltmp1610:
LBB34_31:
	.loc	16 1733 5
	leaq	l___unnamed_146(%rip), %rdi
Ltmp1611:
	leaq	l___unnamed_147(%rip), %rdx
Ltmp1612:
	movl	$33, %esi
Ltmp1613:
	callq	__ZN4core9panicking5panic17h383a6b80ea7021aaE
Ltmp1614:
LBB34_32:
	.loc	16 1734 5
	leaq	l___unnamed_148(%rip), %rdi
Ltmp1615:
	leaq	l___unnamed_149(%rip), %rdx
Ltmp1616:
	movl	$53, %esi
Ltmp1617:
	callq	__ZN4core9panicking5panic17h383a6b80ea7021aaE
Ltmp1618:
LBB34_25:
	.loc	16 1736 5
	leaq	_str.0(%rip), %rdi
Ltmp1619:
	leaq	l___unnamed_150(%rip), %rdx
Ltmp1620:
	movl	$28, %esi
Ltmp1621:
	callq	__ZN4core9panicking5panic17h383a6b80ea7021aaE
Ltmp1622:
LBB34_34:
	.loc	16 1483 9
	leaq	_str.1(%rip), %rdi
Ltmp1623:
	leaq	l___unnamed_151(%rip), %rdx
Ltmp1624:
	movl	$33, %esi
Ltmp1625:
	callq	__ZN4core9panicking5panic17h383a6b80ea7021aaE
Ltmp1626:
LBB34_26:
	.loc	16 1752 5
	leaq	_str.0(%rip), %rdi
Ltmp1627:
	leaq	l___unnamed_152(%rip), %rdx
Ltmp1628:
	movl	$28, %esi
	callq	__ZN4core9panicking5panic17h383a6b80ea7021aaE
Ltmp1629:
LBB34_27:
	.loc	16 1753 16
	leaq	l___unnamed_153(%rip), %rdx
Ltmp1630:
	movl	$256, %esi
	movq	%rax, %rdi
Ltmp1631:
	callq	__ZN4core9panicking18panic_bounds_check17he87128426d100e93E
LBB34_28:
Ltmp1632:
	.loc	16 1753 5 is_stmt 0
	leaq	l___unnamed_154(%rip), %rdx
Ltmp1633:
	movl	$288, %esi
	movq	%rax, %rdi
Ltmp1634:
	callq	__ZN4core9panicking18panic_bounds_check17he87128426d100e93E
LBB34_29:
Ltmp1635:
	leaq	_str.0(%rip), %rdi
Ltmp1636:
	leaq	l___unnamed_154(%rip), %rdx
Ltmp1637:
	movl	$28, %esi
	callq	__ZN4core9panicking5panic17h383a6b80ea7021aaE
Ltmp1638:
LBB34_33:
	.loc	16 1479 9 is_stmt 1
	leaq	_str.0(%rip), %rdi
Ltmp1639:
	leaq	l___unnamed_155(%rip), %rdx
Ltmp1640:
	movl	$28, %esi
Ltmp1641:
	callq	__ZN4core9panicking5panic17h383a6b80ea7021aaE
Ltmp1642:
Lfunc_end34:
	.cfi_endproc

	.p2align	4, 0x90
__ZN11miniz_oxide7deflate4core19flush_output_buffer17hb7f8641d2b850355E:
Lfunc_begin35:
	.loc	16 2150 0
	.cfi_startproc
	pushq	%rbp
	.cfi_def_cfa_offset 16
	.cfi_offset %rbp, -16
	movq	%rsp, %rbp
	.cfi_def_cfa_register %rbp
	pushq	%r15
	pushq	%r14
	pushq	%rbx
	subq	$184, %rsp
	.cfi_offset %rbx, -40
	.cfi_offset %r14, -32
	.cfi_offset %r15, -24
Ltmp1643:
	movq	%rdx, %r15
	movq	%rdi, %r14
Ltmp1644:
	.loc	16 2151 39 prologue_end
	movq	(%rdx), %rax
	.loc	16 2151 19 is_stmt 0
	movl	$0, 8(%rdi)
	movq	%rax, (%rdi)
	movq	$0, 16(%rdi)
Ltmp1645:
	.loc	16 2152 12 is_stmt 1
	cmpl	$1, 32(%rsi)
	jne	LBB35_12
Ltmp1646:
	.loc	16 2153 26
	movq	48(%rsi), %rax
	.loc	16 2153 45 is_stmt 0
	movq	8(%r15), %rdi
	.loc	16 2153 26
	movq	%rax, %rbx
	subq	%rdi, %rbx
	jb	LBB35_16
Ltmp1647:
	.loc	16 2153 60
	movl	44(%r15), %ecx
Ltmp1648:
	.loc	11 950 9 is_stmt 1
	cmpq	%rcx, %rbx
	.loc	11 0 0 is_stmt 0
	cmovaq	%rcx, %rbx
Ltmp1649:
	.loc	16 2154 12 is_stmt 1
	testq	%rbx, %rbx
	.loc	16 2154 9 is_stmt 0
	je	LBB35_8
Ltmp1650:
	.loc	16 2155 45 is_stmt 1
	movq	%rdi, %rcx
	addq	%rbx, %rcx
	jb	LBB35_17
Ltmp1651:
	.loc	20 3179 19
	cmpq	%rcx, %rax
	.loc	20 3179 16 is_stmt 0
	jb	LBB35_21
Ltmp1652:
	.loc	16 2156 49 is_stmt 1
	movl	40(%r15), %edx
	.loc	16 2156 71 is_stmt 0
	leaq	(%rbx,%rdx), %rax
Ltmp1653:
	.loc	20 3169 19 is_stmt 1
	cmpq	$85197, %rax
	.loc	20 3169 16 is_stmt 0
	jae	LBB35_22
Ltmp1654:
	.loc	16 0 0
	subq	%rdi, %rcx
	addq	40(%rsi), %rdi
	movq	16(%r15), %rsi
Ltmp1655:
	.loc	20 2370 20 is_stmt 1
	movq	%rcx, -32(%rbp)
	.loc	20 2370 32 is_stmt 0
	movq	%rbx, -40(%rbp)
Ltmp1656:
	.loc	14 66 21 is_stmt 1
	cmpq	%rbx, %rcx
	.loc	14 66 17 is_stmt 0
	jne	LBB35_23
Ltmp1657:
	.file	31 "/rustc/6c8927b0cf80ceee19386026cf9d7fd4fd9d486f/src/libcore/ptr/const_ptr.rs"
	.loc	31 164 18 is_stmt 1
	addq	%rdx, %rsi
Ltmp1658:
	.loc	21 2130 14
	movq	%rbx, %rdx
Ltmp1659:
	callq	_memcpy
Ltmp1660:
LBB35_8:
	.loc	21 0 14 is_stmt 0
	movl	40(%r15), %eax
	.loc	16 2158 9 is_stmt 1
	addl	%ebx, %eax
	jb	LBB35_18
Ltmp1661:
	movl	%eax, 40(%r15)
	.loc	16 2159 9
	movl	44(%r15), %eax
	subl	%ebx, %eax
	jb	LBB35_19
Ltmp1662:
	movl	%eax, 44(%r15)
	.loc	16 2160 9
	addq	8(%r15), %rbx
Ltmp1663:
	jb	LBB35_20
Ltmp1664:
	movq	%rbx, 8(%r15)
	.loc	16 2161 9
	movq	%rbx, 16(%r14)
Ltmp1665:
LBB35_12:
	.loc	16 2164 8
	cmpb	$0, 67(%r15)
	je	LBB35_15
Ltmp1666:
	.loc	16 2164 22 is_stmt 0
	cmpl	$0, 44(%r15)
	.loc	16 2164 8
	jne	LBB35_15
Ltmp1667:
	.loc	16 2165 9 is_stmt 1
	movl	$1, 8(%r14)
Ltmp1668:
LBB35_15:
	.loc	16 2168 2
	addq	$184, %rsp
	popq	%rbx
	popq	%r14
	popq	%r15
Ltmp1669:
	popq	%rbp
	retq
LBB35_16:
Ltmp1670:
	.loc	16 2153 26
	leaq	_str.1(%rip), %rdi
	leaq	l___unnamed_156(%rip), %rdx
	movl	$33, %esi
Ltmp1671:
	callq	__ZN4core9panicking5panic17h383a6b80ea7021aaE
Ltmp1672:
LBB35_18:
	.loc	16 2158 9
	leaq	_str.0(%rip), %rdi
	leaq	l___unnamed_157(%rip), %rdx
	movl	$28, %esi
	callq	__ZN4core9panicking5panic17h383a6b80ea7021aaE
Ltmp1673:
LBB35_19:
	.loc	16 2159 9
	leaq	_str.1(%rip), %rdi
	leaq	l___unnamed_158(%rip), %rdx
	movl	$33, %esi
	callq	__ZN4core9panicking5panic17h383a6b80ea7021aaE
Ltmp1674:
LBB35_20:
	.loc	16 2160 9
	leaq	_str.0(%rip), %rdi
	leaq	l___unnamed_159(%rip), %rdx
	movl	$28, %esi
	callq	__ZN4core9panicking5panic17h383a6b80ea7021aaE
Ltmp1675:
LBB35_17:
	.loc	16 2155 45
	leaq	_str.0(%rip), %rdi
	leaq	l___unnamed_160(%rip), %rdx
	movl	$28, %esi
Ltmp1676:
	callq	__ZN4core9panicking5panic17h383a6b80ea7021aaE
Ltmp1677:
LBB35_21:
	.loc	20 3180 13
	leaq	l___unnamed_161(%rip), %rdx
	movq	%rcx, %rdi
Ltmp1678:
	movq	%rax, %rsi
Ltmp1679:
	callq	__ZN4core5slice24slice_end_index_len_fail17hea9e3399ed430f80E
Ltmp1680:
LBB35_22:
	.loc	20 3170 13
	leaq	l___unnamed_162(%rip), %rdx
Ltmp1681:
	movl	$85196, %esi
Ltmp1682:
	movq	%rax, %rdi
	callq	__ZN4core5slice24slice_end_index_len_fail17hea9e3399ed430f80E
Ltmp1683:
LBB35_23:
	.loc	20 0 13 is_stmt 0
	leaq	-32(%rbp), %rax
Ltmp1684:
	.loc	14 72 23 is_stmt 1
	movq	%rax, -48(%rbp)
	leaq	-40(%rbp), %rax
	.loc	14 72 35 is_stmt 0
	movq	%rax, -56(%rbp)
Ltmp1685:
	.loc	1 328 9 is_stmt 1
	leaq	l___unnamed_20(%rip), %rax
Ltmp1686:
	movq	%rax, -200(%rbp)
	movq	$1, -192(%rbp)
	movq	$0, -184(%rbp)
	leaq	l___unnamed_21(%rip), %rax
Ltmp1687:
	movq	%rax, -168(%rbp)
	movq	$0, -160(%rbp)
	leaq	-48(%rbp), %rax
Ltmp1688:
	.loc	14 19 38
	movq	%rax, -104(%rbp)
	leaq	__ZN42_$LT$$RF$T$u20$as$u20$core..fmt..Debug$GT$3fmt17hba288db9807855bfE(%rip), %rax
	movq	%rax, -96(%rbp)
	leaq	-56(%rbp), %rcx
Ltmp1689:
	movq	%rcx, -88(%rbp)
	movq	%rax, -80(%rbp)
	leaq	-200(%rbp), %rax
	movq	%rax, -72(%rbp)
	movq	__ZN59_$LT$core..fmt..Arguments$u20$as$u20$core..fmt..Display$GT$3fmt17hca54f9d63261f398E@GOTPCREL(%rip), %rax
	movq	%rax, -64(%rbp)
Ltmp1690:
	.loc	1 328 9
	leaq	l___unnamed_22(%rip), %rax
Ltmp1691:
	movq	%rax, -152(%rbp)
	movq	$3, -144(%rbp)
	movq	$0, -136(%rbp)
	leaq	-104(%rbp), %rax
Ltmp1692:
	movq	%rax, -120(%rbp)
	movq	$3, -112(%rbp)
Ltmp1693:
	.loc	14 19 9
	leaq	l___unnamed_23(%rip), %rsi
	leaq	-152(%rbp), %rdi
Ltmp1694:
	callq	__ZN4core9panicking9panic_fmt17hfce5b7173905fc53E
Ltmp1695:
Lfunc_end35:
	.cfi_endproc

	.globl	__ZN11miniz_oxide7deflate4core8compress17h5198c2ddca828678E
	.p2align	4, 0x90
__ZN11miniz_oxide7deflate4core8compress17h5198c2ddca828678E:
Lfunc_begin36:
	.loc	16 2180 0
	.cfi_startproc
	pushq	%rbp
	.cfi_def_cfa_offset 16
	.cfi_offset %rbp, -16
	movq	%rsp, %rbp
	.cfi_def_cfa_register %rbp
	pushq	%rbx
	subq	$56, %rsp
	.cfi_offset %rbx, -24
	movq	%rdi, %rbx
Ltmp1696:
	.loc	16 612 9 prologue_end
	movq	%rdx, -64(%rbp)
	movq	%rcx, -56(%rbp)
	movq	$0, -48(%rbp)
	movq	$0, -40(%rbp)
	movq	$1, -32(%rbp)
	movq	%r8, -24(%rbp)
	movq	%r9, -16(%rbp)
Ltmp1697:
	.loc	16 2186 5
	movl	16(%rbp), %ecx
Ltmp1698:
	.loc	16 0 5 is_stmt 0
	leaq	-64(%rbp), %rdx
Ltmp1699:
	.loc	16 2186 5
	callq	__ZN11miniz_oxide7deflate4core14compress_inner17h5c332d492e0baa7cE
Ltmp1700:
	.loc	16 2191 2 is_stmt 1
	movq	%rbx, %rax
	addq	$56, %rsp
	popq	%rbx
	popq	%rbp
	retq
Ltmp1701:
Lfunc_end36:
	.cfi_endproc

	.globl	__ZN11miniz_oxide7deflate4core14compress_inner17h5c332d492e0baa7cE
	.p2align	4, 0x90
__ZN11miniz_oxide7deflate4core14compress_inner17h5c332d492e0baa7cE:
Lfunc_begin37:
	.loc	16 2221 0
	.cfi_startproc
	pushq	%rbp
	.cfi_def_cfa_offset 16
	.cfi_offset %rbp, -16
	movq	%rsp, %rbp
	.cfi_def_cfa_register %rbp
	pushq	%r15
	pushq	%r14
	pushq	%r13
	pushq	%r12
	pushq	%rbx
	subq	$312, %rsp
	.cfi_offset %rbx, -56
	.cfi_offset %r12, -48
	.cfi_offset %r13, -40
	.cfi_offset %r14, -32
	.cfi_offset %r15, -24
	movq	%rdx, %r12
	movq	%rsi, %r13
	movq	%rdi, %r14
Ltmp1702:
	.loc	16 2227 5 prologue_end
	movq	$0, 65568(%rsi)
	movq	$0, 65560(%rsi)
Ltmp1703:
	.loc	16 210 30
	cmpb	$4, 65626(%rsi)
	sete	%al
Ltmp1704:
	.loc	16 2230 29
	cmpb	$4, %cl
	setne	%dl
Ltmp1705:
	.loc	16 250 30
	cmpl	$0, 65612(%rsi)
Ltmp1706:
	.loc	16 2232 5
	movb	%cl, 65626(%rsi)
	.loc	16 2233 8
	jne	LBB37_5
Ltmp1707:
	.loc	16 0 0 is_stmt 0
	andb	%al, %dl
Ltmp1708:
	.loc	16 2233 8
	jne	LBB37_5
Ltmp1709:
	.loc	16 0 0
	leaq	65560(%r13), %rbx
Ltmp1710:
	.loc	16 2238 8 is_stmt 1
	cmpl	$0, 65604(%r13)
	jne	LBB37_4
Ltmp1711:
	.loc	16 2238 41 is_stmt 0
	cmpb	$0, 65627(%r13)
	.loc	16 2238 5
	je	LBB37_7
Ltmp1712:
LBB37_4:
	.loc	16 0 5
	leaq	-184(%rbp), %rdi
	movq	%r12, %rsi
	movq	%rbx, %rdx
	callq	__ZN11miniz_oxide7deflate4core19flush_output_buffer17hb7f8641d2b850355E
	movl	-176(%rbp), %eax
	movl	%eax, 65612(%r13)
	movq	-168(%rbp), %rax
	movq	%rax, 16(%r14)
	movq	-184(%rbp), %rax
	movq	-176(%rbp), %rcx
	movq	%rcx, 8(%r14)
	movq	%rax, (%r14)
	jmp	LBB37_6
LBB37_5:
Ltmp1713:
	.loc	16 2234 9 is_stmt 1
	movl	$-2, 65612(%r13)
	.loc	16 2235 16
	movl	$-2, 8(%r14)
	movq	$0, (%r14)
	movq	$0, 16(%r14)
Ltmp1714:
LBB37_6:
	.loc	16 2306 2
	movq	%r14, %rax
	addq	$312, %rsp
	popq	%rbx
	popq	%r12
	popq	%r13
	popq	%r14
	popq	%r15
	popq	%rbp
	retq
LBB37_7:
Ltmp1715:
	.loc	16 0 2 is_stmt 0
	movl	$741375, %eax
Ltmp1716:
	.loc	16 2250 31 is_stmt 1
	andl	65584(%r13), %eax
	cmpl	$16385, %eax
	movq	%r13, -64(%rbp)
	jne	LBB37_115
Ltmp1717:
	.loc	16 1960 9
	movq	(%r12), %rax
	movq	%rax, -88(%rbp)
	testq	%rax, %rax
	je	LBB37_263
Ltmp1718:
	.loc	16 0 9 is_stmt 0
	movq	%rbx, -112(%rbp)
Ltmp1719:
	.loc	16 1964 19 is_stmt 1
	cmpq	$65533, (%r13)
	.loc	16 1964 5 is_stmt 0
	ja	LBB37_379
Ltmp1720:
	.loc	16 0 0
	movq	65664(%r13), %rbx
	movq	8(%r12), %rax
Ltmp1721:
	movq	%rax, -72(%rbp)
	.loc	16 1955 30 is_stmt 1
	movq	65656(%r13), %r15
Ltmp1722:
	.loc	16 1958 23
	movl	%ebx, %r11d
	andl	$32767, %r11d
	xorl	%r10d, %r10d
	movq	%r14, -136(%rbp)
	movq	%r12, -80(%rbp)
Ltmp1723:
LBB37_11:
	.loc	16 1966 11
	cmpq	-72(%rbp), %r10
	jb	LBB37_14
Ltmp1724:
	.loc	16 1966 76 is_stmt 0
	testq	%r15, %r15
	.loc	16 1966 11
	je	LBB37_270
Ltmp1725:
	cmpb	$0, 65626(%r13)
	je	LBB37_270
Ltmp1726:
LBB37_14:
	.loc	16 0 11
	movq	%rbx, -128(%rbp)
Ltmp1727:
	.loc	16 1967 28 is_stmt 1
	movq	%rbx, %rcx
	addq	%r15, %rcx
	jb	LBB37_372
Ltmp1728:
	.loc	16 0 28 is_stmt 0
	movq	-72(%rbp), %rbx
Ltmp1729:
	.loc	16 1969 13 is_stmt 1
	subq	%r10, %rbx
	jb	LBB37_373
Ltmp1730:
	.loc	16 1970 13
	movl	$4096, %eax
	subq	%r15, %rax
	jb	LBB37_374
Ltmp1731:
	.loc	11 950 9
	cmpq	%rax, %rbx
	.loc	11 0 0 is_stmt 0
	cmovaq	%rax, %rbx
Ltmp1732:
	.loc	16 1972 9 is_stmt 1
	addq	%rbx, %r15
Ltmp1733:
	.loc	16 0 9 is_stmt 0
	movq	%r15, -96(%rbp)
	.loc	16 1972 9
	jb	LBB37_375
Ltmp1734:
	.loc	16 1974 15 is_stmt 1
	testq	%rbx, %rbx
	.loc	16 1974 9 is_stmt 0
	je	LBB37_32
Ltmp1735:
	.p2align	4, 0x90
LBB37_19:
	.loc	16 0 0
	movl	%ecx, %r15d
	andl	$32767, %r15d
Ltmp1736:
	.loc	16 1975 30 is_stmt 1
	movl	$32768, %r14d
	subq	%r15, %r14
Ltmp1737:
	.loc	11 950 9
	cmpq	%rbx, %r14
	.loc	11 0 0 is_stmt 0
	cmovaq	%rbx, %r14
Ltmp1738:
	.loc	16 1976 36 is_stmt 1
	leaq	(%r14,%r15), %rdi
Ltmp1739:
	.loc	20 3179 19
	cmpq	$33027, %rdi
	.loc	20 3179 16 is_stmt 0
	jae	LBB37_306
Ltmp1740:
	.loc	16 1976 82 is_stmt 1
	movq	%r10, %r12
	addq	%r14, %r12
	jb	LBB37_307
Ltmp1741:
	.loc	20 3169 19
	cmpq	%r12, -72(%rbp)
	.loc	20 3169 16 is_stmt 0
	jb	LBB37_308
Ltmp1742:
	.loc	20 0 16
	movq	%rdi, -120(%rbp)
Ltmp1743:
	movq	-64(%rbp), %rax
	movq	65640(%rax), %rax
Ltmp1744:
	.loc	20 3154 76 is_stmt 1
	movq	%r12, %rcx
Ltmp1745:
	subq	%r10, %rcx
Ltmp1746:
	.loc	20 2370 20
	movq	%r14, -200(%rbp)
	.loc	20 2370 32 is_stmt 0
	movq	%rcx, -208(%rbp)
Ltmp1747:
	.loc	14 66 21 is_stmt 1
	cmpq	%rcx, %r14
	.loc	14 66 17 is_stmt 0
	jne	LBB37_295
Ltmp1748:
	.loc	14 0 17
	movq	%r11, %r13
Ltmp1749:
	leaq	131072(%rax,%r15), %rdi
	movq	-88(%rbp), %rax
	movq	%r10, -56(%rbp)
Ltmp1750:
	.loc	31 164 18 is_stmt 1
	leaq	(%rax,%r10), %rsi
Ltmp1751:
	.loc	31 0 18 is_stmt 0
	movq	%rsi, -192(%rbp)
Ltmp1752:
	.loc	21 2130 14 is_stmt 1
	movq	%r14, %rdx
	callq	_memcpy
Ltmp1753:
	.loc	16 1978 16
	cmpl	$256, %r15d
	.loc	16 1978 13 is_stmt 0
	ja	LBB37_29
Ltmp1754:
	.loc	16 1979 37 is_stmt 1
	movl	$257, %edx
	subq	%r15, %rdx
Ltmp1755:
	.loc	11 950 9
	cmpq	%rdx, %r14
	.loc	11 0 0 is_stmt 0
	cmovbeq	%r14, %rdx
Ltmp1756:
	.loc	16 1980 55 is_stmt 1
	leaq	32768(%rdx,%r15), %rdi
Ltmp1757:
	.loc	20 3179 19
	cmpq	$33027, %rdi
	.loc	20 3179 16 is_stmt 0
	jae	LBB37_315
Ltmp1758:
	.loc	20 0 16
	movq	-56(%rbp), %rcx
	.loc	16 1981 55 is_stmt 1
	movq	%rcx, %rdi
Ltmp1759:
	addq	%rdx, %rdi
	jb	LBB37_316
Ltmp1760:
	.loc	20 3169 19
	cmpq	%rdi, -72(%rbp)
	.loc	20 3169 16 is_stmt 0
	jb	LBB37_317
Ltmp1761:
	.loc	20 0 16
	movq	-64(%rbp), %rax
	movq	65640(%rax), %rax
Ltmp1762:
	.loc	20 3154 76 is_stmt 1
	subq	%rcx, %rdi
Ltmp1763:
	.loc	20 2370 20
	movq	%rdx, -200(%rbp)
	.loc	20 2370 32 is_stmt 0
	movq	%rdi, -208(%rbp)
Ltmp1764:
	.loc	14 66 21 is_stmt 1
	cmpq	%rdi, %rdx
	.loc	14 66 17 is_stmt 0
	jne	LBB37_295
Ltmp1765:
	.loc	16 0 0
	orq	$32768, %r15
Ltmp1766:
	leaq	131072(%rax,%r15), %rdi
Ltmp1767:
	movq	-192(%rbp), %rsi
Ltmp1768:
	.loc	21 2130 14 is_stmt 1
	callq	_memcpy
Ltmp1769:
LBB37_29:
	.loc	16 1986 13
	subq	%r14, %rbx
Ltmp1770:
	jb	LBB37_309
Ltmp1771:
	.loc	16 0 13 is_stmt 0
	movq	%r13, %r11
Ltmp1772:
	movq	%r12, %r10
	.loc	16 1974 15 is_stmt 1
	testq	%rbx, %rbx
	movq	-120(%rbp), %rcx
Ltmp1773:
	.loc	16 1974 9 is_stmt 0
	jne	LBB37_19
Ltmp1774:
	.loc	16 0 0
	movq	%r12, %r10
Ltmp1775:
LBB37_32:
	.loc	16 1989 32 is_stmt 1
	movl	$32768, %eax
	movq	-96(%rbp), %r15
	subq	%r15, %rax
	jb	LBB37_376
Ltmp1776:
	.loc	16 0 32 is_stmt 0
	movq	-64(%rbp), %r13
	.loc	16 1989 63
	movq	65672(%r13), %rcx
Ltmp1777:
	.loc	11 950 9 is_stmt 1
	cmpq	%rcx, %rax
	.loc	11 0 0 is_stmt 0
	cmovaq	%rcx, %rax
Ltmp1778:
	.loc	16 1989 9 is_stmt 1
	movq	%rax, 65672(%r13)
Ltmp1779:
	.loc	16 1990 50
	cmpq	$4095, %r15
	movq	-136(%rbp), %r14
	movq	-80(%rbp), %r12
	movq	-128(%rbp), %rbx
Ltmp1780:
	.loc	16 1990 9 is_stmt 0
	ja	LBB37_35
Ltmp1781:
	cmpb	$0, 65626(%r13)
	je	LBB37_270
Ltmp1782:
LBB37_35:
	.loc	16 1994 15 is_stmt 1
	cmpq	$4, %r15
	movq	%r10, -56(%rbp)
	.loc	16 1994 9 is_stmt 0
	jae	LBB37_56
Ltmp1783:
LBB37_36:
	.loc	16 0 0
	movq	%r15, %rax
Ltmp1784:
	movl	$0, %r15d
Ltmp1785:
	.loc	16 2107 15 is_stmt 1
	testq	%rax, %rax
	.loc	16 2107 9 is_stmt 0
	je	LBB37_11
	jmp	LBB37_38
Ltmp1786:
	.p2align	4, 0x90
LBB37_37:
	.loc	16 0 0
	incl	%r11d
	andl	$32767, %r11d
Ltmp1787:
	.loc	16 2107 15
	testq	%rax, %rax
	.loc	16 2107 9
	je	LBB37_114
Ltmp1788:
LBB37_38:
	.loc	16 2108 23 is_stmt 1
	cmpq	$33025, %r11
	ja	LBB37_324
Ltmp1789:
	.loc	16 2109 13
	movl	16(%r13), %edx
	incl	%edx
	je	LBB37_325
Ltmp1790:
	.loc	16 0 0 is_stmt 0
	movq	65640(%r13), %rcx
	movzbl	131072(%rcx,%r11), %ecx
Ltmp1791:
	.loc	16 2109 13
	movl	%edx, 16(%r13)
Ltmp1792:
	.loc	16 1460 20 is_stmt 1
	movq	(%r13), %rdi
	.loc	16 1460 9 is_stmt 0
	cmpq	$65535, %rdi
	ja	LBB37_312
Ltmp1793:
	movb	%cl, 24(%r13,%rdi)
	.loc	16 1461 9 is_stmt 1
	movq	(%r13), %rdx
	incq	%rdx
	je	LBB37_310
Ltmp1794:
	movq	%rdx, (%r13)
Ltmp1795:
	.loc	16 1474 25
	movq	8(%r13), %rdi
	.loc	16 1474 14 is_stmt 0
	cmpq	$65536, %rdi
	jae	LBB37_313
Ltmp1796:
	.loc	16 2111 13 is_stmt 1
	shrb	24(%r13,%rdi)
Ltmp1797:
	.loc	16 1483 9
	movl	20(%r13), %edx
	subl	$1, %edx
	jb	LBB37_311
Ltmp1798:
	movl	%edx, 20(%r13)
	.loc	16 1484 12
	testl	%edx, %edx
	.loc	16 1484 9 is_stmt 0
	jne	LBB37_47
Ltmp1799:
	.loc	16 1485 13 is_stmt 1
	movl	$8, 20(%r13)
Ltmp1800:
	.loc	16 1478 30
	movq	(%r13), %rdx
	.loc	16 1478 9 is_stmt 0
	movq	%rdx, 8(%r13)
	.loc	16 1479 9 is_stmt 1
	incq	%rdx
	je	LBB37_334
Ltmp1801:
	movq	%rdx, (%r13)
Ltmp1802:
LBB37_47:
	.loc	16 0 0 is_stmt 0
	movzbl	%cl, %ecx
Ltmp1803:
	.loc	16 2114 13 is_stmt 1
	movq	65632(%r13), %rdx
	movzwl	(%rdx,%rcx,2), %esi
	incw	%si
	je	LBB37_326
Ltmp1804:
	movw	%si, (%rdx,%rcx,2)
	.loc	16 2115 13
	incq	%rbx
Ltmp1805:
	je	LBB37_327
Ltmp1806:
	.loc	16 2116 36
	movq	65672(%r13), %rcx
	incq	%rcx
	je	LBB37_328
Ltmp1807:
	.loc	11 0 0 is_stmt 0
	cmpq	$32768, %rcx
	movl	$32768, %edx
	cmovaeq	%rdx, %rcx
Ltmp1808:
	.loc	16 2116 13
	movq	%rcx, 65672(%r13)
Ltmp1809:
	.loc	16 2118 13 is_stmt 1
	decq	%rax
Ltmp1810:
	.loc	16 2120 16
	cmpq	$65529, (%r13)
	.loc	16 2120 13 is_stmt 0
	jb	LBB37_37
Ltmp1811:
	.loc	16 0 13
	movq	%rbx, %rcx
	movq	%r11, %rbx
Ltmp1812:
	.loc	16 2122 17 is_stmt 1
	movq	%rax, 65656(%r13)
	.loc	16 2123 17
	movq	%rcx, 65664(%r13)
	.loc	16 2125 31
	movq	%r13, %rdi
	movq	%r12, %rsi
	xorl	%edx, %edx
	callq	__ZN11miniz_oxide7deflate4core11flush_block17h3def04e98797ec6fE
Ltmp1813:
	.loc	16 2126 21
	testl	%eax, %eax
	jne	LBB37_265
Ltmp1814:
	.loc	16 2133 20
	testl	%edx, %edx
	movq	-56(%rbp), %r10
	.loc	16 2133 17 is_stmt 0
	jne	LBB37_264
Ltmp1815:
	.loc	16 0 17
	movq	%rbx, %r11
	.loc	16 2138 34 is_stmt 1
	movq	65656(%r13), %rax
Ltmp1816:
	.loc	16 2139 33
	movq	65664(%r13), %rbx
Ltmp1817:
	.loc	16 0 33 is_stmt 0
	jmp	LBB37_37
Ltmp1818:
LBB37_54:
	.loc	16 2101 38 is_stmt 1
	movq	65656(%r13), %r15
Ltmp1819:
	.loc	16 2102 37
	movq	65664(%r13), %rax
Ltmp1820:
	.loc	16 0 37 is_stmt 0
	movq	%rbx, %r11
	movq	%rax, %rbx
Ltmp1821:
LBB37_55:
	.loc	16 1994 15 is_stmt 1
	cmpq	$3, %r15
	.loc	16 1994 9 is_stmt 0
	jbe	LBB37_36
Ltmp1822:
LBB37_56:
	.loc	16 1228 30 is_stmt 1
	movq	65640(%r13), %rdx
Ltmp1823:
	.loc	16 1223 19
	movl	%r11d, %eax
	andl	$32767, %eax
Ltmp1824:
	.file	32 "/rustc/6c8927b0cf80ceee19386026cf9d7fd4fd9d486f/src/libcore/array/mod.rs"
	.loc	32 132 42
	movl	131072(%rdx,%rax), %r9d
Ltmp1825:
	.loc	16 1997 33
	movl	%r9d, %eax
Ltmp1826:
	andl	$16777215, %eax
Ltmp1827:
	.loc	16 1999 41
	movl	%eax, %ecx
	shrl	$17, %ecx
	.loc	16 1999 24 is_stmt 0
	movl	%r9d, %esi
	andl	$4095, %esi
	xorl	%ecx, %esi
Ltmp1828:
	.loc	16 2002 45 is_stmt 1
	movzwl	65536(%rdx,%rsi,2), %ecx
Ltmp1829:
	.loc	16 2003 13
	movw	%bx, 65536(%rdx,%rsi,2)
	.loc	16 2005 38
	movq	%rbx, %rdx
Ltmp1830:
	subq	%rcx, %rdx
	jb	LBB37_314
Ltmp1831:
	.loc	16 2006 16
	movzwl	%dx, %r8d
	cmpq	65672(%r13), %r8
	.loc	16 2006 13 is_stmt 0
	ja	LBB37_55
Ltmp1832:
	.loc	16 0 13
	movq	%rbx, %r12
Ltmp1833:
	.loc	16 2007 17 is_stmt 1
	andl	$32767, %ecx
Ltmp1834:
	.loc	16 1228 30
	movq	65640(%r13), %rdi
Ltmp1835:
	.loc	16 0 30 is_stmt 0
	movl	131072(%rdi,%rcx), %esi
Ltmp1836:
	.loc	16 2009 31 is_stmt 1
	movl	$16777215, %ebx
	andl	%ebx, %esi
Ltmp1837:
	.loc	16 2011 20
	cmpl	%esi, %eax
	.loc	16 2011 17 is_stmt 0
	jne	LBB37_75
Ltmp1838:
	.loc	16 2013 33 is_stmt 1
	movq	%r11, %rax
Ltmp1839:
	addq	$3, %rax
	jb	LBB37_353
Ltmp1840:
	.loc	16 2016 25
	leaq	131075(%rdi,%r11), %rsi
Ltmp1841:
	leaq	131075(%rdi,%rcx), %rax
Ltmp1842:
	.loc	16 0 0 is_stmt 0
	xorl	%ebx, %ebx
Ltmp1843:
	.p2align	4, 0x90
LBB37_61:
	.loc	11 1136 52 is_stmt 1
	cmpl	$256, %ebx
Ltmp1844:
	.loc	13 505 9
	je	LBB37_80
Ltmp1845:
	.loc	13 0 9 is_stmt 0
	leaq	3(%r11,%rbx), %rdi
Ltmp1846:
	.loc	16 1237 47 is_stmt 1
	addq	$8, %rdi
	jb	LBB37_292
Ltmp1847:
	.loc	20 3169 19
	cmpq	$33027, %rdi
	.loc	20 3169 16 is_stmt 0
	jae	LBB37_294
Ltmp1848:
	.loc	20 0 16
	leaq	3(%rcx,%rbx), %rdi
Ltmp1849:
	.loc	20 3169 19
	cmpq	$33019, %rdi
Ltmp1850:
	.loc	20 3169 16
	jae	LBB37_293
Ltmp1851:
	.loc	32 132 42 is_stmt 1
	movq	(%rax,%rbx), %rdi
Ltmp1852:
	.loc	16 2020 32
	xorq	(%rsi,%rbx), %rdi
Ltmp1853:
	.loc	16 2020 29 is_stmt 0
	leaq	8(%rbx), %rbx
Ltmp1854:
	je	LBB37_61
Ltmp1855:
	.loc	16 2025 62 is_stmt 1
	leal	-5(%r11,%rbx), %ecx
Ltmp1856:
	.loc	16 2025 51 is_stmt 0
	subl	%r11d, %ecx
	jb	LBB37_360
Ltmp1857:
	.loc	9 2696 17 is_stmt 1
	bsfq	%rdi, %rax
Ltmp1858:
	.loc	16 2025 79
	shrl	$3, %eax
Ltmp1859:
	.loc	16 2025 51 is_stmt 0
	addl	%eax, %ecx
	jb	LBB37_361
Ltmp1860:
	.loc	16 0 51
	movq	%r12, %rbx
Ltmp1861:
	.loc	16 2036 24 is_stmt 1
	cmpl	$3, %ecx
	jb	LBB37_71
Ltmp1862:
	.loc	16 2037 70
	cmpl	$8192, %r8d
	.loc	16 2036 24
	jb	LBB37_81
Ltmp1863:
	cmpl	$3, %ecx
	jne	LBB37_81
Ltmp1864:
LBB37_71:
	.loc	16 1460 20
	movq	(%r13), %rdi
	.loc	16 1460 9 is_stmt 0
	cmpq	$65535, %rdi
Ltmp1865:
	ja	LBB37_312
Ltmp1866:
	movb	%r9b, 24(%r13,%rdi)
	.loc	16 1461 9 is_stmt 1
	movq	(%r13), %rax
	incq	%rax
	movq	-80(%rbp), %r12
Ltmp1867:
	je	LBB37_310
Ltmp1868:
	movq	%rax, (%r13)
Ltmp1869:
	.loc	16 1474 25
	movq	8(%r13), %rdi
	.loc	16 1474 14 is_stmt 0
	cmpq	$65536, %rdi
	jae	LBB37_313
Ltmp1870:
	.loc	16 2042 25 is_stmt 1
	shrb	24(%r13,%rdi)
	.loc	16 2043 41
	movzbl	%r9b, %ecx
	.loc	16 2043 25 is_stmt 0
	movq	65632(%r13), %rdx
Ltmp1871:
	movzwl	(%rdx,%rcx,2), %eax
	incw	%ax
	jne	LBB37_79
	jmp	LBB37_378
Ltmp1872:
LBB37_75:
	.loc	16 1460 20 is_stmt 1
	movq	(%r13), %rdi
	.loc	16 1460 9 is_stmt 0
	cmpq	$65535, %rdi
Ltmp1873:
	ja	LBB37_312
Ltmp1874:
	movb	%r9b, 24(%r13,%rdi)
	.loc	16 1461 9 is_stmt 1
	movq	(%r13), %rax
Ltmp1875:
	incq	%rax
	je	LBB37_310
Ltmp1876:
	.loc	16 0 9 is_stmt 0
	movq	%r12, %rbx
Ltmp1877:
	.loc	16 1461 9
	movq	%rax, (%r13)
Ltmp1878:
	.loc	16 1474 25 is_stmt 1
	movq	8(%r13), %rdi
	.loc	16 1474 14 is_stmt 0
	cmpq	$65536, %rdi
	movq	-80(%rbp), %r12
	jae	LBB37_313
Ltmp1879:
	.loc	16 2071 21 is_stmt 1
	shrb	24(%r13,%rdi)
	.loc	16 2072 37
	movzbl	%r9b, %ecx
Ltmp1880:
	.loc	16 2072 21 is_stmt 0
	movq	65632(%r13), %rdx
Ltmp1881:
	movzwl	(%rdx,%rcx,2), %eax
	incw	%ax
	je	LBB37_357
Ltmp1882:
LBB37_79:
	.loc	16 0 21
	leaq	(%rdx,%rcx,2), %rdx
	movl	$1, %ecx
	movw	%ax, (%rdx)
Ltmp1883:
	.loc	16 1483 9 is_stmt 1
	movl	20(%r13), %eax
	subl	$1, %eax
	jae	LBB37_102
	jmp	LBB37_311
Ltmp1884:
LBB37_80:
	.loc	16 0 9 is_stmt 0
	movl	$258, %ecx
Ltmp1885:
	.loc	16 2029 46 is_stmt 1
	testw	%dx, %dx
	movq	%r12, %rbx
	je	LBB37_71
Ltmp1886:
LBB37_81:
	.loc	16 0 46 is_stmt 0
	movq	%r15, %rax
Ltmp1887:
	.loc	11 950 9 is_stmt 1
	cmpl	%eax, %ecx
	.loc	11 0 0 is_stmt 0
	cmoval	%eax, %ecx
Ltmp1888:
	.loc	16 2048 39 is_stmt 1
	cmpl	$3, %ecx
	.loc	16 2048 25 is_stmt 0
	jb	LBB37_362
Ltmp1889:
	.loc	16 2049 39 is_stmt 1
	testw	%dx, %dx
	.loc	16 2049 25 is_stmt 0
	je	LBB37_363
Ltmp1890:
	.loc	16 2050 39 is_stmt 1
	cmpl	$32768, %r8d
	.loc	16 2050 25 is_stmt 0
	ja	LBB37_364
Ltmp1891:
	.loc	16 1460 20 is_stmt 1
	movq	(%r13), %rdi
	.loc	16 1460 9 is_stmt 0
	cmpq	$65536, %rdi
	jae	LBB37_312
Ltmp1892:
	.loc	16 2053 41 is_stmt 1
	leal	-3(%rcx), %esi
Ltmp1893:
	.loc	16 1460 9
	movb	%sil, 24(%r13,%rdi)
	.loc	16 1461 9
	movq	(%r13), %rdi
	incq	%rdi
	je	LBB37_310
Ltmp1894:
	movq	%rdi, (%r13)
Ltmp1895:
	.loc	16 1460 9
	cmpq	$65535, %rdi
	ja	LBB37_312
Ltmp1896:
	.loc	16 0 0 is_stmt 0
	decl	%edx
Ltmp1897:
	.loc	16 1460 9
	movb	%dl, 24(%r13,%rdi)
	.loc	16 1461 9 is_stmt 1
	movq	(%r13), %rax
	incq	%rax
	je	LBB37_310
Ltmp1898:
	movq	%rax, (%r13)
Ltmp1899:
	.loc	16 1460 9
	cmpq	$65535, %rax
	ja	LBB37_343
Ltmp1900:
	.loc	16 0 0 is_stmt 0
	movzwl	%dx, %ebx
	movq	%rbx, %rdi
	shrq	$8, %rdi
Ltmp1901:
	.loc	16 1460 9
	movb	%dil, 24(%r13,%rax)
	.loc	16 1461 9 is_stmt 1
	movq	(%r13), %rax
	incq	%rax
	je	LBB37_310
Ltmp1902:
	movq	%rax, (%r13)
Ltmp1903:
	.loc	16 1474 25
	movq	8(%r13), %rax
	.loc	16 1474 14 is_stmt 0
	cmpq	$65536, %rax
	jae	LBB37_340
Ltmp1904:
	.loc	16 2057 25 is_stmt 1
	shrb	24(%r13,%rax)
Ltmp1905:
	.loc	16 1474 25
	movq	8(%r13), %rax
	.loc	16 1474 14 is_stmt 0
	cmpq	$65536, %rax
	jae	LBB37_340
Ltmp1906:
	.loc	16 2058 25 is_stmt 1
	orb	$-128, 24(%r13,%rax)
	.loc	16 2059 28
	cmpl	$512, %ebx
	.loc	16 2059 25 is_stmt 0
	jae	LBB37_95
Ltmp1907:
	.loc	16 2060 45 is_stmt 1
	leaq	l___unnamed_82(%rip), %rax
	movzbl	(%rbx,%rax), %edx
Ltmp1908:
	.loc	16 2060 29 is_stmt 0
	movq	65632(%r13), %rdi
	movzwl	576(%rdi,%rdx,2), %eax
	incw	%ax
	je	LBB37_380
Ltmp1909:
	.loc	16 0 29
	leaq	576(%rdi,%rdx,2), %rdx
	movq	%r12, %rbx
Ltmp1910:
	jmp	LBB37_98
Ltmp1911:
LBB37_95:
	.loc	16 2063 34 is_stmt 1
	testw	%dx, %dx
	js	LBB37_381
Ltmp1912:
	leaq	l___unnamed_84(%rip), %rax
	movzbl	(%rdi,%rax), %edx
Ltmp1913:
	.loc	16 2062 29
	movq	65632(%r13), %rdi
	movzwl	576(%rdi,%rdx,2), %eax
	incw	%ax
	je	LBB37_382
Ltmp1914:
	.loc	16 0 29 is_stmt 0
	movq	%r12, %rbx
Ltmp1915:
	leaq	576(%rdi,%rdx,2), %rdx
Ltmp1916:
LBB37_98:
	movq	-80(%rbp), %r12
	movw	%ax, (%rdx)
	.loc	16 2066 49 is_stmt 1
	movl	%esi, %edi
	.loc	16 2066 41 is_stmt 0
	cmpl	$255, %esi
	ja	LBB37_365
Ltmp1917:
	leaq	l___unnamed_79(%rip), %rax
	movzwl	(%rax,%rdi,2), %edi
	cmpq	$287, %rdi
	.loc	16 2066 25
	ja	LBB37_366
Ltmp1918:
	movq	65632(%r13), %rdx
	movzwl	(%rdx,%rdi,2), %eax
	incw	%ax
	je	LBB37_367
Ltmp1919:
	.loc	16 0 25
	leaq	(%rdx,%rdi,2), %rdx
	movw	%ax, (%rdx)
Ltmp1920:
	.loc	16 1483 9 is_stmt 1
	movl	20(%r13), %eax
	subl	$1, %eax
	jb	LBB37_311
Ltmp1921:
LBB37_102:
	movl	%eax, 20(%r13)
	.loc	16 1484 12
	testl	%eax, %eax
	.loc	16 1484 9 is_stmt 0
	jne	LBB37_105
Ltmp1922:
	.loc	16 1485 13 is_stmt 1
	movl	$8, 20(%r13)
Ltmp1923:
	.loc	16 1478 30
	movq	(%r13), %rax
	.loc	16 1478 9 is_stmt 0
	movq	%rax, 8(%r13)
	.loc	16 1479 9 is_stmt 1
	incq	%rax
	je	LBB37_334
Ltmp1924:
	movq	%rax, (%r13)
Ltmp1925:
LBB37_105:
	.loc	16 0 9 is_stmt 0
	movl	16(%r13), %eax
	.loc	16 2076 17 is_stmt 1
	addl	%ecx, %eax
	jb	LBB37_335
Ltmp1926:
	movl	%eax, 16(%r13)
	.loc	16 2077 34
	movl	%ecx, %eax
	.loc	16 2077 17 is_stmt 0
	addq	%rax, %rbx
	jb	LBB37_336
Ltmp1927:
	.loc	16 0 17
	movq	65672(%r13), %rcx
Ltmp1928:
	.loc	16 2078 40 is_stmt 1
	addq	%rax, %rcx
	jb	LBB37_337
Ltmp1929:
	.loc	11 0 0 is_stmt 0
	cmpq	$32768, %rcx
	movl	$32768, %edx
	cmovaeq	%rdx, %rcx
Ltmp1930:
	.loc	16 2078 17
	movq	%rcx, 65672(%r13)
	.loc	16 2079 27 is_stmt 1
	addq	%rax, %r11
Ltmp1931:
	jb	LBB37_338
Ltmp1932:
	.loc	16 2080 17
	subq	%rax, %r15
Ltmp1933:
	jb	LBB37_339
Ltmp1934:
	.loc	16 0 0 is_stmt 0
	andl	$32767, %r11d
Ltmp1935:
	.loc	16 2082 20 is_stmt 1
	cmpq	$65529, (%r13)
	.loc	16 2082 17 is_stmt 0
	jb	LBB37_55
Ltmp1936:
	.loc	16 0 17
	movq	%rbx, %rax
	movq	%r11, %rbx
Ltmp1937:
	.loc	16 2084 21 is_stmt 1
	movq	%r15, 65656(%r13)
	.loc	16 2085 21
	movq	%rax, 65664(%r13)
	.loc	16 2087 35
	movq	%r13, %rdi
	movq	%r12, %rsi
	xorl	%edx, %edx
	callq	__ZN11miniz_oxide7deflate4core11flush_block17h3def04e98797ec6fE
	.loc	16 2088 25
	testl	%eax, %eax
	jne	LBB37_268
Ltmp1938:
	.loc	16 2095 24
	testl	%edx, %edx
	movq	-56(%rbp), %r10
	.loc	16 2095 21 is_stmt 0
	jne	LBB37_264
Ltmp1939:
	.loc	16 2099 35 is_stmt 1
	cmpq	$65533, (%r13)
	.loc	16 2099 21 is_stmt 0
	jbe	LBB37_54
	jmp	LBB37_354
Ltmp1940:
LBB37_114:
	.loc	16 0 0
	xorl	%r15d, %r15d
	jmp	LBB37_11
Ltmp1941:
LBB37_115:
	.loc	16 1759 9 is_stmt 1
	movq	(%r12), %rax
	xorl	%ecx, %ecx
Ltmp1942:
	.loc	16 0 9 is_stmt 0
	movq	%rax, -240(%rbp)
	.loc	16 1759 9
	testq	%rax, %rax
	je	LBB37_276
Ltmp1943:
	.loc	16 0 9
	movq	%rbx, -112(%rbp)
	movq	%r14, -136(%rbp)
	movq	%r12, -80(%rbp)
Ltmp1944:
	.loc	16 1760 14 is_stmt 1
	movq	8(%r12), %rsi
Ltmp1945:
	.loc	16 1763 30
	movq	65656(%r13), %r15
Ltmp1946:
	.loc	16 1764 29
	movq	65664(%r13), %r14
Ltmp1947:
	.loc	16 1765 25
	movb	65625(%r13), %al
	movb	%al, -88(%rbp)
Ltmp1948:
	.loc	16 1766 32
	movl	65592(%r13), %eax
	movl	%eax, -96(%rbp)
Ltmp1949:
	.loc	16 1767 31
	movl	65596(%r13), %r8d
Ltmp1950:
	.loc	16 0 0 is_stmt 0
	xorl	%r12d, %r12d
Ltmp1951:
	movq	%rsi, -72(%rbp)
Ltmp1952:
	jmp	LBB37_118
Ltmp1953:
LBB37_117:
	.loc	16 1926 13 is_stmt 1
	movq	%r12, 65560(%r13)
	.loc	16 1928 13
	movq	%r15, 65656(%r13)
	.loc	16 1929 13
	movq	%r14, 65664(%r13)
	.loc	16 1931 21
	movq	%r13, %rdi
	movq	-80(%rbp), %rsi
Ltmp1954:
	xorl	%edx, %edx
	movl	%r8d, %ebx
Ltmp1955:
	callq	__ZN11miniz_oxide7deflate4core11flush_block17h3def04e98797ec6fE
Ltmp1956:
	.loc	16 0 21 is_stmt 0
	movl	%ebx, %r8d
	movq	-72(%rbp), %rsi
Ltmp1957:
	cmpl	$1, %eax
	movl	$0, %eax
Ltmp1958:
	sbbl	%eax, %eax
	notl	%eax
	orl	%edx, %eax
Ltmp1959:
	.loc	16 1933 13 is_stmt 1
	jne	LBB37_266
Ltmp1960:
LBB37_118:
	.loc	16 1769 11
	cmpq	%rsi, %r12
	jb	LBB37_121
Ltmp1961:
	.loc	16 1769 76 is_stmt 0
	testq	%r15, %r15
	.loc	16 1769 11
	je	LBB37_262
Ltmp1962:
	cmpb	$0, 65626(%r13)
	je	LBB37_262
Ltmp1963:
LBB37_121:
	.loc	16 0 11
	movl	%r8d, -56(%rbp)
Ltmp1964:
	.loc	16 1770 28 is_stmt 1
	movq	%rsi, %r8
	subq	%r12, %r8
	jb	LBB37_320
Ltmp1965:
	.loc	16 1771 59
	movl	$258, %eax
	subq	%r15, %rax
	jb	LBB37_321
Ltmp1966:
	.loc	11 950 9
	cmpq	%rax, %r8
	.loc	11 0 0 is_stmt 0
	cmovaq	%rax, %r8
Ltmp1967:
	movq	65672(%r13), %rax
Ltmp1968:
	.loc	16 1773 12 is_stmt 1
	addq	%r15, %rax
	jb	LBB37_322
Ltmp1969:
	.loc	16 1774 16
	testq	%r8, %r8
	.loc	16 1773 9
	je	LBB37_140
Ltmp1970:
	cmpq	$1, %rax
	jbe	LBB37_140
Ltmp1971:
	.loc	16 1778 31
	movq	%r14, %r10
	addq	%r15, %r10
	jb	LBB37_345
Ltmp1972:
	.loc	16 1779 31
	movq	%r10, %rdx
	subq	$2, %rdx
	jb	LBB37_346
Ltmp1973:
	.loc	16 1783 29
	movq	%rdx, %rcx
	incq	%rcx
	je	LBB37_347
Ltmp1974:
	.loc	16 1786 13
	addq	%r8, %r15
Ltmp1975:
	jb	LBB37_348
Ltmp1976:
	.loc	16 1788 40
	movq	%r12, %rdi
	addq	%r8, %rdi
	jb	LBB37_349
Ltmp1977:
	.loc	20 3169 19
	cmpq	%rdi, %rsi
	.loc	20 3169 16 is_stmt 0
	jb	LBB37_350
Ltmp1978:
	.loc	20 3440 9 is_stmt 1
	cmpq	%rdi, %r12
	.loc	20 3570 21
	je	LBB37_158
Ltmp1979:
	.loc	16 0 0 is_stmt 0
	movq	65640(%r13), %rax
	movl	%edx, %esi
	andl	$32767, %esi
	movzbl	131072(%rax,%rsi), %ebx
Ltmp1980:
	andl	$32767, %ecx
	movzbl	131072(%rax,%rcx), %ecx
	shll	$5, %ebx
Ltmp1981:
	xorl	%ecx, %ebx
Ltmp1982:
	.loc	16 1791 17 is_stmt 1
	addq	-240(%rbp), %r12
Ltmp1983:
	decq	%r8
Ltmp1984:
	.loc	16 1790 17
	xorl	%r9d, %r9d
Ltmp1985:
	.p2align	4, 0x90
LBB37_134:
	.loc	16 0 0 is_stmt 0
	andl	$32767, %r10d
Ltmp1986:
	.loc	16 1788 18 is_stmt 1
	movzbl	(%r12,%r9), %ecx
Ltmp1987:
	.loc	16 1790 17
	movb	%cl, 131072(%rax,%r10)
	.loc	16 1791 20
	cmpq	$256, %r10
	.loc	16 1791 17 is_stmt 0
	ja	LBB37_137
Ltmp1988:
	.loc	16 1792 32 is_stmt 1
	leaq	32768(%r10), %rax
	.loc	16 1792 21 is_stmt 0
	cmpq	$33025, %rax
	ja	LBB37_296
Ltmp1989:
	movq	65640(%r13), %rsi
	movb	%cl, 131072(%rsi,%rax)
Ltmp1990:
LBB37_137:
	.loc	16 0 0
	movzbl	%cl, %eax
Ltmp1991:
	.loc	15 21 6 is_stmt 1
	shll	$5, %ebx
Ltmp1992:
	.loc	15 21 5 is_stmt 0
	andl	$32736, %ebx
	xorl	%eax, %ebx
Ltmp1993:
	.loc	16 1797 70 is_stmt 1
	movq	65640(%r13), %rax
	.loc	16 1797 28 is_stmt 0
	movl	%edx, %ecx
Ltmp1994:
	andl	$32767, %ecx
	.loc	16 1797 70
	movzwl	65536(%rax,%rbx,2), %esi
	.loc	16 1797 17
	movw	%si, (%rax,%rcx,2)
	.loc	16 1799 17 is_stmt 1
	movq	65640(%r13), %rax
	movw	%dx, 65536(%rax,%rbx,2)
Ltmp1995:
	.loc	16 1801 17
	incq	%rdx
	je	LBB37_288
Ltmp1996:
	.loc	20 3440 9
	cmpq	%r9, %r8
	.loc	20 3570 21
	je	LBB37_157
Ltmp1997:
	.loc	16 1800 27
	incq	%r10
Ltmp1998:
	.loc	16 1790 17
	movq	65640(%r13), %rax
Ltmp1999:
	.loc	20 3570 21
	incq	%r9
	jmp	LBB37_134
Ltmp2000:
LBB37_140:
	.loc	16 1806 40
	movq	%r12, %rdi
	addq	%r8, %rdi
	jb	LBB37_351
Ltmp2001:
	.loc	20 3169 19
	cmpq	%rdi, %rsi
	.loc	20 3169 16 is_stmt 0
	jb	LBB37_352
Ltmp2002:
	.loc	20 3440 9 is_stmt 1
	cmpq	%rdi, %r12
	.loc	20 3570 21
	je	LBB37_158
Ltmp2003:
	.loc	16 1807 31
	addq	-240(%rbp), %r12
Ltmp2004:
	.loc	16 0 31 is_stmt 0
	xorl	%edx, %edx
	jmp	LBB37_145
Ltmp2005:
	.p2align	4, 0x90
LBB37_144:
	.loc	20 3440 9 is_stmt 1
	incq	%rdx
	cmpq	%rdx, %r8
	.loc	20 3570 21
	je	LBB37_156
Ltmp2006:
LBB37_145:
	.loc	12 165 18
	leaq	(%r15,%rdx), %rsi
Ltmp2007:
	.loc	16 1807 31
	movq	%r14, %rax
	addq	%rsi, %rax
	jb	LBB37_289
Ltmp2008:
	.loc	16 0 0 is_stmt 0
	movzbl	(%r12,%rdx), %ecx
Ltmp2009:
	.loc	16 1807 31
	andl	$32767, %eax
Ltmp2010:
	.loc	16 1808 17 is_stmt 1
	movq	65640(%r13), %rbx
	movb	%cl, 131072(%rbx,%rax)
	.loc	16 1809 20
	cmpq	$256, %rax
	.loc	16 1809 17 is_stmt 0
	ja	LBB37_149
Ltmp2011:
	.loc	16 1810 32 is_stmt 1
	orq	$32768, %rax
Ltmp2012:
	.loc	16 1810 21 is_stmt 0
	cmpq	$33025, %rax
	ja	LBB37_297
Ltmp2013:
	movq	65640(%r13), %rbx
	movb	%cl, 131072(%rbx,%rax)
Ltmp2014:
LBB37_149:
	.loc	16 1813 17 is_stmt 1
	incq	%rsi
	je	LBB37_290
Ltmp2015:
	.loc	16 0 17 is_stmt 0
	movq	65672(%r13), %rax
	.loc	16 1814 20 is_stmt 1
	addq	%rsi, %rax
	jb	LBB37_291
Ltmp2016:
	cmpq	$3, %rax
	.loc	16 1814 17 is_stmt 0
	jb	LBB37_144
Ltmp2017:
	.loc	16 1815 35 is_stmt 1
	movq	%r14, %rbx
	addq	%rsi, %rbx
	jb	LBB37_298
Ltmp2018:
	subq	$3, %rbx
	jb	LBB37_299
Ltmp2019:
	.loc	16 1818 51
	movq	%rbx, %rax
	incq	%rax
	je	LBB37_300
Ltmp2020:
	.loc	16 0 0 is_stmt 0
	movzbl	%cl, %r9d
Ltmp2021:
	movl	%ebx, %r10d
	andl	$32767, %r10d
	movq	65640(%r13), %r11
Ltmp2022:
	.loc	18 52 17 is_stmt 1
	movzbl	131072(%r11,%r10), %ecx
Ltmp2023:
	.loc	16 1818 50
	andl	$32767, %eax
	.loc	16 1818 39 is_stmt 0
	movzbl	131072(%r11,%rax), %eax
Ltmp2024:
	.loc	16 1818 28
	shlq	$5, %rax
Ltmp2025:
	.loc	16 1818 27
	xorq	%r9, %rax
	.loc	16 1816 32 is_stmt 1
	andl	$31, %ecx
	shlq	$10, %rcx
	xorq	%rax, %rcx
Ltmp2026:
	.loc	16 1823 74
	movzwl	65536(%r11,%rcx,2), %eax
	.loc	16 1823 21 is_stmt 0
	movw	%ax, (%r11,%r10,2)
	.loc	16 1824 21 is_stmt 1
	movq	65640(%r13), %rax
	movw	%bx, 65536(%rax,%rcx,2)
	jmp	LBB37_144
Ltmp2027:
LBB37_156:
	.loc	16 0 0 is_stmt 0
	movq	%rsi, %r15
Ltmp2028:
LBB37_157:
	movq	%rdi, %r12
Ltmp2029:
LBB37_158:
	.loc	16 1831 32 is_stmt 1
	movl	$32768, %esi
	subq	%r15, %rsi
	movl	-56(%rbp), %r8d
Ltmp2030:
	jb	LBB37_323
Ltmp2031:
	.loc	16 1831 63 is_stmt 0
	movq	65672(%r13), %rax
Ltmp2032:
	.loc	11 950 9 is_stmt 1
	cmpq	%rax, %rsi
	.loc	11 0 0 is_stmt 0
	cmovaq	%rax, %rsi
Ltmp2033:
	.loc	16 1831 9 is_stmt 1
	movq	%rsi, 65672(%r13)
Ltmp2034:
	.loc	16 1832 50
	cmpq	$257, %r15
	.loc	16 1832 9 is_stmt 0
	ja	LBB37_161
Ltmp2035:
	cmpb	$0, 65626(%r13)
	je	LBB37_262
Ltmp2036:
LBB37_161:
	.loc	16 1838 36 is_stmt 1
	testl	%r8d, %r8d
	movq	%r13, %rax
	.loc	16 1838 33 is_stmt 0
	movl	$2, %r13d
	cmovnel	%r8d, %r13d
Ltmp2037:
	.loc	16 1843 23 is_stmt 1
	movl	%r14d, %r9d
	andl	$32767, %r9d
Ltmp2038:
	.loc	16 1844 12
	movl	65584(%rax), %r10d
	testl	$589824, %r10d
	.loc	16 1844 9 is_stmt 0
	je	LBB37_168
Ltmp2039:
	.loc	16 0 9
	xorl	%ecx, %ecx
	.loc	16 1846 16 is_stmt 1
	testq	%rsi, %rsi
	je	LBB37_224
Ltmp2040:
	.loc	16 0 0 is_stmt 0
	movl	%r10d, %eax
	andl	$524288, %eax
	.loc	16 1846 16
	jne	LBB37_224
Ltmp2041:
	.loc	16 1848 65 is_stmt 1
	movq	%r9, %rdi
	addq	%r15, %rdi
	jb	LBB37_358
Ltmp2042:
	.loc	20 3169 19
	cmpq	$33027, %rdi
	movq	-64(%rbp), %rcx
	.loc	20 3169 16 is_stmt 0
	jae	LBB37_359
Ltmp2043:
	.loc	20 3440 9 is_stmt 1
	cmpq	%rdi, %r9
	.loc	20 3570 21
	jne	LBB37_215
Ltmp2044:
	.loc	25 0 0 is_stmt 0
	xorl	%r13d, %r13d
Ltmp2045:
	jmp	LBB37_219
Ltmp2046:
LBB37_168:
	.loc	11 950 9 is_stmt 1
	cmpl	$258, %r15d
	.loc	11 0 0 is_stmt 0
	movl	$258, %ebx
	cmovbl	%r15d, %ebx
Ltmp2047:
	.loc	11 1016 9 is_stmt 1
	cmpl	$1, %r13d
	.loc	11 0 0 is_stmt 0
	movl	$1, %eax
	cmovbel	%eax, %r13d
Ltmp2048:
	.loc	16 1271 51 is_stmt 1
	xorl	%edx, %edx
	cmpl	$31, %r13d
	seta	%r11b
Ltmp2049:
	.loc	16 0 51 is_stmt 0
	xorl	%ecx, %ecx
Ltmp2050:
	.loc	16 1274 12 is_stmt 1
	cmpl	%r13d, %ebx
	.loc	16 1274 9 is_stmt 0
	jbe	LBB37_224
Ltmp2051:
	.loc	16 1279 60 is_stmt 1
	movl	%r13d, %eax
	.loc	16 1279 45 is_stmt 0
	leaq	(%r9,%rax), %rdi
	leaq	-1(%r9,%rax), %rax
Ltmp2052:
	.loc	16 390 5 is_stmt 1
	cmpq	$33025, %rax
	ja	LBB37_301
Ltmp2053:
	.loc	16 0 5 is_stmt 0
	movl	%ebx, -100(%rbp)
Ltmp2054:
	movl	%r10d, -44(%rbp)
	.loc	16 390 27
	je	LBB37_368
Ltmp2055:
	.loc	16 0 0
	movb	%r11b, %dl
	movq	-64(%rbp), %rax
Ltmp2056:
	movl	65680(%rax,%rdx,4), %edx
Ltmp2057:
	.loc	16 1286 17 is_stmt 1
	subl	$1, %edx
Ltmp2058:
	jb	LBB37_318
Ltmp2059:
	.loc	16 0 17 is_stmt 0
	movq	-64(%rbp), %rax
	movq	65640(%rax), %r11
Ltmp2060:
	movzwl	131072(%r11,%r9), %eax
	movw	%ax, -102(%rbp)
Ltmp2061:
	.loc	16 390 5 is_stmt 1
	movzwl	131071(%r11,%rdi), %eax
	movw	%ax, -120(%rbp)
Ltmp2062:
	.loc	16 1286 17
	leaq	131074(%r11), %rax
	movq	%rax, -296(%rbp)
	leaq	131074(%r11,%r9), %rax
	movq	%rax, -192(%rbp)
	xorl	%ecx, %ecx
	movq	%r9, %rdi
Ltmp2063:
LBB37_173:
	.loc	16 0 0 is_stmt 0
	movl	%r13d, %r8d
Ltmp2064:
	.p2align	4, 0x90
LBB37_174:
	.loc	16 1287 20 is_stmt 1
	testl	%edx, %edx
	.loc	16 1287 17 is_stmt 0
	je	LBB37_222
Ltmp2065:
	.loc	16 1294 42 is_stmt 1
	cmpq	$32767, %rdi
	ja	LBB37_319
Ltmp2066:
	movzwl	(%r11,%rdi,2), %edi
Ltmp2067:
	.loc	16 1296 28
	movq	%r14, %rax
	subq	%rdi, %rax
	jb	LBB37_302
Ltmp2068:
	.loc	16 1297 24
	testw	%di, %di
	.loc	16 1297 21 is_stmt 0
	je	LBB37_222
Ltmp2069:
	.loc	16 0 0
	movzwl	%ax, %r10d
Ltmp2070:
	.loc	16 1297 21
	cmpq	%rsi, %r10
	ja	LBB37_222
Ltmp2071:
	.loc	16 1306 21 is_stmt 1
	andl	$32767, %edi
Ltmp2072:
	.loc	16 1308 42
	leaq	(%rdi,%r8), %rax
	.loc	16 1308 41 is_stmt 0
	subq	$1, %rax
	jb	LBB37_303
Ltmp2073:
	.loc	16 390 5 is_stmt 1
	cmpq	$33025, %rax
	ja	LBB37_301
Ltmp2074:
	.loc	16 390 27 is_stmt 0
	cmpq	$33025, %rax
	je	LBB37_304
Ltmp2075:
	.loc	16 0 27
	movzwl	-120(%rbp), %ebx
	.loc	16 1308 24 is_stmt 1
	cmpw	%bx, 131072(%r11,%rax)
	.loc	16 1308 21 is_stmt 0
	je	LBB37_198
Ltmp2076:
	.loc	16 1294 42 is_stmt 1
	movzwl	(%r11,%rdi,2), %edi
Ltmp2077:
	.loc	16 1296 28
	movq	%r14, %rax
	subq	%rdi, %rax
	jb	LBB37_302
Ltmp2078:
	.loc	16 1297 24
	testw	%di, %di
	.loc	16 1297 21 is_stmt 0
	je	LBB37_222
Ltmp2079:
	.loc	16 0 0
	movzwl	%ax, %r10d
Ltmp2080:
	.loc	16 1297 21
	cmpq	%rsi, %r10
	ja	LBB37_222
Ltmp2081:
	.loc	16 1306 21 is_stmt 1
	andl	$32767, %edi
Ltmp2082:
	.loc	16 1308 42
	leaq	(%rdi,%r8), %rax
	.loc	16 1308 41 is_stmt 0
	subq	$1, %rax
	jb	LBB37_303
Ltmp2083:
	.loc	16 390 5 is_stmt 1
	cmpq	$33025, %rax
	ja	LBB37_301
Ltmp2084:
	.loc	16 390 27 is_stmt 0
	cmpq	$33025, %rax
	je	LBB37_304
Ltmp2085:
	.loc	16 0 27
	movzwl	-120(%rbp), %ebx
	.loc	16 1308 24 is_stmt 1
	cmpw	%bx, 131072(%r11,%rax)
	.loc	16 1308 21 is_stmt 0
	je	LBB37_198
Ltmp2086:
	.loc	16 1294 42 is_stmt 1
	movzwl	(%r11,%rdi,2), %edi
Ltmp2087:
	.loc	16 1296 28
	movq	%r14, %rax
	subq	%rdi, %rax
	jb	LBB37_302
Ltmp2088:
	.loc	16 1297 24
	testw	%di, %di
	.loc	16 1297 21 is_stmt 0
	je	LBB37_222
Ltmp2089:
	.loc	16 0 0
	movzwl	%ax, %r10d
Ltmp2090:
	.loc	16 1297 21
	cmpq	%rsi, %r10
	ja	LBB37_222
Ltmp2091:
	.loc	16 1306 21 is_stmt 1
	andl	$32767, %edi
Ltmp2092:
	.loc	16 1308 42
	leaq	(%rdi,%r8), %rax
	.loc	16 1308 41 is_stmt 0
	subq	$1, %rax
	jb	LBB37_303
Ltmp2093:
	.loc	16 390 5 is_stmt 1
	cmpq	$33025, %rax
	ja	LBB37_301
Ltmp2094:
	.loc	16 390 27 is_stmt 0
	cmpq	$33025, %rax
	je	LBB37_304
Ltmp2095:
	.loc	16 0 27
	movzwl	-120(%rbp), %ebx
	.loc	16 1308 24 is_stmt 1
	cmpw	%bx, 131072(%r11,%rax)
	.loc	16 1308 21 is_stmt 0
	je	LBB37_198
Ltmp2096:
	.loc	16 1286 17 is_stmt 1
	leal	-1(%rdx), %eax
	cmpl	$1, %edx
	movl	%eax, %edx
	jae	LBB37_174
	jmp	LBB37_318
Ltmp2097:
LBB37_198:
	.loc	16 1314 16
	testq	%r10, %r10
	.loc	16 1314 13 is_stmt 0
	je	LBB37_222
Ltmp2098:
	.loc	16 0 13
	movzwl	-102(%rbp), %eax
	.loc	16 1321 16 is_stmt 1
	cmpw	%ax, 131072(%r11,%rdi)
	.loc	16 1321 13 is_stmt 0
	jne	LBB37_214
Ltmp2099:
	.loc	16 0 13
	movl	%ecx, -228(%rbp)
Ltmp2100:
	movq	%r9, -128(%rbp)
Ltmp2101:
	movq	-296(%rbp), %rax
Ltmp2102:
	.loc	16 1328 13 is_stmt 1
	leaq	(%rax,%rdi), %rbx
Ltmp2103:
	.loc	16 0 0 is_stmt 0
	xorl	%r9d, %r9d
Ltmp2104:
	.p2align	4, 0x90
LBB37_201:
	.loc	11 1136 52 is_stmt 1
	cmpl	$256, %r9d
Ltmp2105:
	.loc	13 505 9
	je	LBB37_220
Ltmp2106:
	.loc	13 0 9 is_stmt 0
	movq	-128(%rbp), %rax
Ltmp2107:
	leaq	2(%rax,%r9), %rax
Ltmp2108:
	.loc	16 1237 47 is_stmt 1
	addq	$8, %rax
	jb	LBB37_292
Ltmp2109:
	.loc	20 3169 19
	cmpq	$33027, %rax
	.loc	20 3169 16 is_stmt 0
	jae	LBB37_341
Ltmp2110:
	.loc	20 0 16
	leaq	2(%rdi,%r9), %rax
Ltmp2111:
	.loc	20 3169 19
	cmpq	$33019, %rax
Ltmp2112:
	.loc	20 3169 16
	jae	LBB37_342
Ltmp2113:
	.loc	32 132 42 is_stmt 1
	movq	(%rbx,%r9), %rax
	movq	-192(%rbp), %rcx
Ltmp2114:
	.loc	16 1333 20
	xorq	(%rcx,%r9), %rax
Ltmp2115:
	.loc	16 1333 17 is_stmt 0
	leaq	8(%r9), %r9
Ltmp2116:
	je	LBB37_201
Ltmp2117:
	.loc	16 0 17
	movq	-128(%rbp), %rcx
Ltmp2118:
	.loc	16 1340 37 is_stmt 1
	leaq	-6(%rcx,%r9), %rbx
	subq	%rcx, %rbx
	jb	LBB37_369
Ltmp2119:
	.loc	16 0 37 is_stmt 0
	movq	%rcx, %r9
Ltmp2120:
	.loc	9 2696 17 is_stmt 1
	bsfq	%rax, %rax
Ltmp2121:
	.loc	16 1340 47
	shrq	$3, %rax
Ltmp2122:
	.loc	16 1340 37 is_stmt 0
	addq	%rax, %rbx
	movl	-228(%rbp), %ecx
Ltmp2123:
	jb	LBB37_370
Ltmp2124:
	.loc	16 1341 24 is_stmt 1
	cmpq	%r8, %rbx
	.loc	16 1341 21 is_stmt 0
	jbe	LBB37_214
Ltmp2125:
	.loc	11 950 9 is_stmt 1
	cmpl	%ebx, -100(%rbp)
Ltmp2126:
	.loc	16 1344 25
	jbe	LBB37_221
Ltmp2127:
	.loc	16 1351 54
	movl	%ebx, %eax
	.loc	16 1351 48 is_stmt 0
	addq	%r9, %rax
	subq	$1, %rax
	jb	LBB37_371
Ltmp2128:
	.loc	16 390 5 is_stmt 1
	cmpq	$33025, %rax
	ja	LBB37_301
Ltmp2129:
	.loc	16 390 27 is_stmt 0
	cmpq	$33025, %rax
	je	LBB37_304
Ltmp2130:
	.loc	16 390 5
	movzwl	131072(%r11,%rax), %eax
Ltmp2131:
	.loc	16 0 5
	movw	%ax, -120(%rbp)
Ltmp2132:
	movl	%ebx, %r13d
	movl	%r10d, %ecx
Ltmp2133:
LBB37_214:
	.loc	16 1286 17 is_stmt 1
	subl	$1, %edx
	jae	LBB37_173
	jmp	LBB37_318
Ltmp2134:
LBB37_215:
	.loc	16 0 0 is_stmt 0
	leal	-1(%r14), %eax
	andl	$32767, %eax
	movq	65640(%rcx), %rcx
Ltmp2135:
	movb	131072(%rcx,%rax), %al
Ltmp2136:
	leaq	131072(%rcx,%r9), %rdx
Ltmp2137:
	leaq	131072(%rcx,%rdi), %rcx
Ltmp2138:
	.loc	20 3570 21 is_stmt 1
	subq	%rdx, %rcx
Ltmp2139:
	.loc	20 0 21 is_stmt 0
	xorl	%r13d, %r13d
Ltmp2140:
	.p2align	4, 0x90
LBB37_216:
	.loc	16 1850 38 is_stmt 1
	cmpb	%al, (%rdx,%r13)
Ltmp2141:
	.loc	25 1866 17
	jne	LBB37_219
Ltmp2142:
	.loc	25 0 17 is_stmt 0
	incq	%r13
Ltmp2143:
	.loc	20 3440 9 is_stmt 1
	cmpq	%r13, %r15
	.loc	20 3570 21
	jne	LBB37_216
Ltmp2144:
	.loc	25 0 0 is_stmt 0
	movq	%rcx, %r13
Ltmp2145:
LBB37_219:
	.loc	16 1852 20 is_stmt 1
	xorl	%ecx, %ecx
	cmpl	$2, %r13d
	seta	%cl
	cmpl	$3, %r13d
	.loc	16 1852 17 is_stmt 0
	movl	$0, %eax
	cmovbl	%eax, %r13d
Ltmp2146:
	.loc	16 0 17
	jmp	LBB37_224
Ltmp2147:
LBB37_220:
	movl	-100(%rbp), %eax
Ltmp2148:
	movl	%eax, %r13d
Ltmp2149:
	movl	%r10d, %eax
	movl	-56(%rbp), %r8d
	movq	-128(%rbp), %r9
Ltmp2150:
	movl	%r10d, %ecx
	jmp	LBB37_223
Ltmp2151:
LBB37_221:
	movl	-100(%rbp), %eax
Ltmp2152:
	movl	%eax, %r13d
Ltmp2153:
	movl	%r10d, %ecx
Ltmp2154:
LBB37_222:
	movl	-56(%rbp), %r8d
Ltmp2155:
LBB37_223:
	movl	-44(%rbp), %r10d
Ltmp2156:
	.p2align	4, 0x90
LBB37_224:
	.loc	16 1871 29 is_stmt 1
	cmpl	$3, %r13d
	sete	%al
	.loc	16 1871 70 is_stmt 0
	cmpl	$8191, %ecx
	seta	%dl
	.loc	16 1871 29
	andb	%al, %dl
Ltmp2157:
	.loc	16 1872 28 is_stmt 1
	movl	%r10d, %eax
	shrl	$17, %eax
	.loc	16 1872 74 is_stmt 0
	cmpl	$6, %r13d
	setb	%bl
	.loc	16 1872 28
	andb	%al, %bl
Ltmp2158:
	.loc	16 1873 56 is_stmt 1
	movl	%ecx, %eax
	.loc	16 1873 45 is_stmt 0
	cmpq	%rax, %r9
	sete	%al
	.loc	16 1873 12
	orb	%bl, %al
	orb	%dl, %al
	movl	$0, %eax
	.loc	16 1873 9
	cmovnel	%eax, %r13d
Ltmp2159:
	cmovnel	%eax, %ecx
Ltmp2160:
	.loc	16 1838 36 is_stmt 1
	testl	%r8d, %r8d
Ltmp2161:
	.loc	16 1878 9
	je	LBB37_236
Ltmp2162:
	.loc	16 0 9 is_stmt 0
	movq	-64(%rbp), %rsi
	movq	65632(%rsi), %rdi
	.loc	16 1879 16 is_stmt 1
	cmpl	%r8d, %r13d
	.loc	16 1879 13 is_stmt 0
	jbe	LBB37_241
Ltmp2163:
	.loc	16 1722 5 is_stmt 1
	movl	16(%rsi), %eax
	incl	%eax
	je	LBB37_355
Ltmp2164:
	movl	%eax, 16(%rsi)
Ltmp2165:
	.loc	16 1460 20
	movq	(%rsi), %rax
	.loc	16 1460 9 is_stmt 0
	cmpq	$65535, %rax
	ja	LBB37_343
Ltmp2166:
	.loc	16 0 9
	movb	-88(%rbp), %dl
	.loc	16 1460 9
	movb	%dl, 24(%rsi,%rax)
	.loc	16 1461 9 is_stmt 1
	movq	(%rsi), %rax
	incq	%rax
	je	LBB37_310
Ltmp2167:
	movq	%rax, (%rsi)
Ltmp2168:
	.loc	16 1474 25
	movq	8(%rsi), %rax
	.loc	16 1474 14 is_stmt 0
	cmpq	$65536, %rax
	jae	LBB37_340
Ltmp2169:
	.loc	16 1725 5 is_stmt 1
	shrb	24(%rsi,%rax)
Ltmp2170:
	.loc	16 1483 9
	movl	20(%rsi), %eax
	subl	$1, %eax
	jb	LBB37_311
Ltmp2171:
	movl	%eax, 20(%rsi)
	.loc	16 1484 12
	testl	%eax, %eax
	.loc	16 1484 9 is_stmt 0
	jne	LBB37_234
Ltmp2172:
	.loc	16 0 9
	movq	-64(%rbp), %rdx
	.loc	16 1485 13 is_stmt 1
	movl	$8, 20(%rdx)
Ltmp2173:
	.loc	16 1478 30
	movq	(%rdx), %rax
	.loc	16 1478 9 is_stmt 0
	movq	%rax, 8(%rdx)
	.loc	16 1479 9 is_stmt 1
	incq	%rax
	je	LBB37_334
Ltmp2174:
	movq	%rax, (%rdx)
Ltmp2175:
LBB37_234:
	.loc	16 1728 16
	movzbl	-88(%rbp), %eax
	.loc	16 1728 5 is_stmt 0
	movzwl	(%rdi,%rax,2), %edx
	incw	%dx
	je	LBB37_356
Ltmp2176:
	movw	%dx, (%rdi,%rax,2)
Ltmp2177:
	.loc	16 1881 20 is_stmt 1
	cmpl	$128, %r13d
	.loc	16 1881 17 is_stmt 0
	jb	LBB37_240
	jmp	LBB37_242
Ltmp2178:
LBB37_236:
	.loc	16 1895 19 is_stmt 1
	testl	%ecx, %ecx
	.loc	16 1895 16 is_stmt 0
	je	LBB37_243
Ltmp2179:
	.loc	16 1903 16 is_stmt 1
	cmpl	$127, %r13d
	.loc	16 1901 19
	ja	LBB37_242
Ltmp2180:
	andl	$65536, %r10d
	jne	LBB37_242
Ltmp2181:
	.loc	16 0 19 is_stmt 0
	movq	-64(%rbp), %rax
	.loc	16 1901 19
	cmpb	$0, 65624(%rax)
	jne	LBB37_242
Ltmp2182:
LBB37_240:
	.loc	16 0 19
	movq	-64(%rbp), %rax
	movq	65640(%rax), %rax
	movb	131072(%rax,%r9), %al
Ltmp2183:
	movb	%al, -88(%rbp)
Ltmp2184:
	movl	$1, %eax
Ltmp2185:
	movl	%r13d, %r8d
	movl	%ecx, -96(%rbp)
Ltmp2186:
	movq	-72(%rbp), %rsi
Ltmp2187:
	movl	%eax, %eax
Ltmp2188:
	.loc	16 1915 9 is_stmt 1
	addq	%rax, %r14
Ltmp2189:
	.loc	16 0 9 is_stmt 0
	jae	LBB37_253
	jmp	LBB37_329
Ltmp2190:
LBB37_241:
	.loc	16 1891 17 is_stmt 1
	movl	%r8d, %edx
	movl	-96(%rbp), %ecx
Ltmp2191:
	.loc	16 0 17 is_stmt 0
	movl	%r8d, %ebx
	.loc	16 1891 17
	callq	__ZN11miniz_oxide7deflate4core12record_match17hf7a583217a39a394E
	.loc	16 1892 31 is_stmt 1
	decl	%ebx
Ltmp2192:
	.loc	16 0 31 is_stmt 0
	movl	%ebx, %eax
Ltmp2193:
	xorl	%r8d, %r8d
	movq	-72(%rbp), %rsi
Ltmp2194:
	movl	%eax, %eax
Ltmp2195:
	.loc	16 1915 9 is_stmt 1
	addq	%rax, %r14
Ltmp2196:
	jae	LBB37_253
	jmp	LBB37_329
Ltmp2197:
LBB37_242:
	.loc	16 0 9 is_stmt 0
	movq	-64(%rbp), %rsi
	movq	65632(%rsi), %rdi
	movl	%r13d, %edx
	callq	__ZN11miniz_oxide7deflate4core12record_match17hf7a583217a39a394E
Ltmp2198:
	xorl	%r8d, %r8d
Ltmp2199:
	movl	%r13d, %eax
	movq	-72(%rbp), %rsi
Ltmp2200:
	movl	%eax, %eax
Ltmp2201:
	.loc	16 1915 9
	addq	%rax, %r14
Ltmp2202:
	.loc	16 0 9
	jae	LBB37_253
	jmp	LBB37_329
Ltmp2203:
LBB37_243:
	movq	-64(%rbp), %rsi
Ltmp2204:
	.loc	16 1722 5 is_stmt 1
	movl	16(%rsi), %edx
	incl	%edx
	je	LBB37_355
Ltmp2205:
	.loc	16 0 0 is_stmt 0
	movq	65632(%rsi), %rax
	movq	65640(%rsi), %rcx
Ltmp2206:
	movb	131072(%rcx,%r9), %cl
Ltmp2207:
	.loc	16 1722 5
	movl	%edx, 16(%rsi)
Ltmp2208:
	.loc	16 1460 20 is_stmt 1
	movq	(%rsi), %rdi
	.loc	16 1460 9 is_stmt 0
	cmpq	$65535, %rdi
	ja	LBB37_312
Ltmp2209:
	movb	%cl, 24(%rsi,%rdi)
	.loc	16 1461 9 is_stmt 1
	movq	(%rsi), %rdx
	incq	%rdx
	je	LBB37_310
Ltmp2210:
	movq	%rdx, (%rsi)
Ltmp2211:
	.loc	16 1474 25
	movq	8(%rsi), %rdi
	.loc	16 1474 14 is_stmt 0
	cmpq	$65536, %rdi
	jae	LBB37_313
Ltmp2212:
	.loc	16 1725 5 is_stmt 1
	shrb	24(%rsi,%rdi)
Ltmp2213:
	.loc	16 1483 9
	movl	20(%rsi), %edx
	subl	$1, %edx
	jb	LBB37_311
Ltmp2214:
	movl	%edx, 20(%rsi)
	.loc	16 1484 12
	testl	%edx, %edx
	.loc	16 1484 9 is_stmt 0
	jne	LBB37_251
Ltmp2215:
	.loc	16 1485 13 is_stmt 1
	movl	$8, 20(%rsi)
Ltmp2216:
	.loc	16 1478 30
	movq	(%rsi), %rdx
	.loc	16 1478 9 is_stmt 0
	movq	%rdx, 8(%rsi)
	.loc	16 1479 9 is_stmt 1
	incq	%rdx
	je	LBB37_334
Ltmp2217:
	movq	%rdx, (%rsi)
Ltmp2218:
LBB37_251:
	.loc	16 0 0 is_stmt 0
	movzbl	%cl, %ecx
Ltmp2219:
	.loc	16 1728 5 is_stmt 1
	movzwl	(%rax,%rcx,2), %edx
	incw	%dx
	je	LBB37_356
Ltmp2220:
	movw	%dx, (%rax,%rcx,2)
	xorl	%r8d, %r8d
	movl	$1, %eax
	movq	-72(%rbp), %rsi
Ltmp2221:
	.loc	16 0 0 is_stmt 0
	movl	%eax, %eax
Ltmp2222:
	.loc	16 1915 9 is_stmt 1
	addq	%rax, %r14
Ltmp2223:
	jb	LBB37_329
Ltmp2224:
	.p2align	4, 0x90
LBB37_253:
	.loc	16 1916 17
	subq	%rax, %r15
Ltmp2225:
	.loc	16 0 17 is_stmt 0
	movq	-64(%rbp), %r13
Ltmp2226:
	.loc	16 1916 9
	jb	LBB37_330
Ltmp2227:
	.loc	16 1917 9 is_stmt 1
	jb	LBB37_331
Ltmp2228:
	.loc	16 1918 32
	addq	65672(%r13), %rax
Ltmp2229:
	jb	LBB37_332
Ltmp2230:
	.loc	11 0 0 is_stmt 0
	cmpq	$32768, %rax
	movl	$32768, %ecx
	cmovaeq	%rcx, %rax
Ltmp2231:
	.loc	16 1918 9
	movq	%rax, 65672(%r13)
	.loc	16 1920 28 is_stmt 1
	movq	(%r13), %rcx
Ltmp2232:
	.loc	16 1922 20
	movq	%rcx, %rax
	movl	$115, %edx
	mulq	%rdx
	jo	LBB37_333
Ltmp2233:
	.loc	16 1922 56 is_stmt 0
	movl	16(%r13), %edx
	cmpq	$31745, %rdx
Ltmp2234:
	.loc	16 1923 26 is_stmt 1
	jb	LBB37_261
Ltmp2235:
	.loc	16 1920 28
	cmpq	$65528, %rcx
Ltmp2236:
	.loc	16 1923 26
	ja	LBB37_117
Ltmp2237:
	.loc	16 0 0 is_stmt 0
	movl	65584(%r13), %ecx
	andl	$524288, %ecx
Ltmp2238:
	.loc	16 1923 26
	jne	LBB37_117
Ltmp2239:
	.loc	16 0 0
	shrq	$7, %rax
Ltmp2240:
	.loc	16 1923 26
	cmpq	%rdx, %rax
	jb	LBB37_118
	jmp	LBB37_117
Ltmp2241:
LBB37_261:
	.loc	16 1920 28 is_stmt 1
	cmpq	$65529, %rcx
Ltmp2242:
	.loc	16 1925 12
	jb	LBB37_118
	jmp	LBB37_117
Ltmp2243:
LBB37_262:
	.loc	16 1942 5
	movq	%r12, 65560(%r13)
	.loc	16 1943 5
	movq	%r15, 65656(%r13)
	.loc	16 1944 5
	movq	%r14, 65664(%r13)
	movb	-88(%rbp), %al
Ltmp2244:
	.loc	16 1945 5
	movb	%al, 65625(%r13)
	movl	-96(%rbp), %eax
Ltmp2245:
	.loc	16 1946 5
	movl	%eax, 65592(%r13)
	.loc	16 1947 5
	movl	%r8d, 65596(%r13)
	movq	-136(%rbp), %r14
Ltmp2246:
	.loc	16 0 5 is_stmt 0
	movq	-80(%rbp), %r12
Ltmp2247:
LBB37_271:
	movq	-112(%rbp), %rbx
	jmp	LBB37_272
LBB37_263:
Ltmp2248:
	xorl	%ecx, %ecx
Ltmp2249:
	jmp	LBB37_276
Ltmp2250:
LBB37_264:
	movq	%r10, 65560(%r13)
Ltmp2251:
	movq	-112(%rbp), %rbx
Ltmp2252:
	jg	LBB37_272
	jmp	LBB37_269
Ltmp2253:
LBB37_265:
	.loc	16 2127 25 is_stmt 1
	movl	$-1, 65612(%r13)
	movq	-56(%rbp), %r10
Ltmp2254:
	.loc	16 2128 25
	movq	%r10, 65560(%r13)
	jmp	LBB37_269
Ltmp2255:
LBB37_266:
	.loc	16 0 25 is_stmt 0
	movb	-88(%rbp), %cl
Ltmp2256:
	.loc	16 1934 17 is_stmt 1
	movb	%cl, 65625(%r13)
	movl	-96(%rbp), %ecx
Ltmp2257:
	.loc	16 1935 17
	movl	%ecx, 65592(%r13)
	.loc	16 1936 17
	movl	%r8d, 65596(%r13)
	.loc	16 1937 24
	testl	%eax, %eax
	movq	-136(%rbp), %r14
Ltmp2258:
	.loc	16 0 24 is_stmt 0
	movq	-80(%rbp), %r12
Ltmp2259:
	movq	-112(%rbp), %rbx
Ltmp2260:
	.loc	16 2256 5 is_stmt 1
	jle	LBB37_267
Ltmp2261:
LBB37_272:
	.loc	16 2264 12
	movq	(%r12), %rcx
	testq	%rcx, %rcx
	je	LBB37_276
Ltmp2262:
	.loc	16 2265 12
	testb	$48, 65585(%r13)
	.loc	16 2265 9 is_stmt 0
	je	LBB37_276
Ltmp2263:
	.loc	16 2264 17 is_stmt 1
	movq	8(%r12), %rsi
Ltmp2264:
	.loc	16 2266 75
	movq	65560(%r13), %rdx
Ltmp2265:
	.loc	20 3169 19
	cmpq	%rdx, %rsi
	.loc	20 3169 16 is_stmt 0
	jb	LBB37_383
Ltmp2266:
	.loc	16 0 0
	movl	65608(%r13), %eax
Ltmp2267:
	.file	33 "/Users/yingyuhang/.cargo/registry/src/github.com-1ecc6299db9ec823/miniz_oxide-0.4.0/src/shared.rs"
	.loc	33 15 20 is_stmt 1
	movw	%ax, -184(%rbp)
Ltmp2268:
	.file	34 "/Users/yingyuhang/.cargo/registry/src/github.com-1ecc6299db9ec823/adler-0.2.3/src/lib.rs"
	.loc	34 84 16
	shrl	$16, %eax
Ltmp2269:
	.loc	33 15 20
	movw	%ax, -182(%rbp)
	leaq	-184(%rbp), %rdi
Ltmp2270:
	.loc	33 16 5
	movq	%rcx, %rsi
Ltmp2271:
	callq	__ZN5adler7Adler3211write_slice17h0f9274a5628dc463E
Ltmp2272:
	.loc	34 91 9
	movl	-184(%rbp), %eax
Ltmp2273:
	.loc	16 2266 13
	movl	%eax, 65608(%r13)
Ltmp2274:
	.loc	16 2271 19
	movq	(%r12), %rcx
Ltmp2275:
LBB37_276:
	.loc	16 2270 22
	movb	65626(%r13), %al
Ltmp2276:
	.loc	10 483 13
	testq	%rcx, %rcx
	je	LBB37_278
Ltmp2277:
	.loc	10 0 13 is_stmt 0
	movq	8(%r12), %rcx
Ltmp2278:
LBB37_278:
	.loc	16 2271 19 is_stmt 1
	subq	65560(%r13), %rcx
	jb	LBB37_377
Ltmp2279:
	.loc	16 210 30
	testb	%al, %al
Ltmp2280:
	.loc	16 2273 8
	je	LBB37_4
Ltmp2281:
	orq	65656(%r13), %rcx
Ltmp2282:
	jne	LBB37_4
	cmpl	$0, 65604(%r13)
	jne	LBB37_4
Ltmp2283:
	.loc	16 2275 15
	movzbl	%al, %edx
	movq	%r13, %rdi
	movq	%r12, %rsi
	callq	__ZN11miniz_oxide7deflate4core11flush_block17h3def04e98797ec6fE
Ltmp2284:
	.loc	16 2276 13
	testl	%eax, %eax
	je	LBB37_284
	.loc	16 2277 17
	movl	$-1, 65612(%r13)
	.loc	16 2280 21
	movq	65560(%r13), %rax
	.loc	16 2281 21
	movq	65568(%r13), %rcx
	.loc	16 2278 24
	movl	$-1, 8(%r14)
	movq	%rax, (%r14)
	movq	%rcx, 16(%r14)
	jmp	LBB37_6
LBB37_284:
Ltmp2285:
	.loc	16 2284 22
	testl	%edx, %edx
	js	LBB37_287
Ltmp2286:
	.loc	16 2292 37
	movb	65626(%r13), %al
Ltmp2287:
	.loc	16 210 30
	cmpb	$4, %al
Ltmp2288:
	.loc	16 2292 17
	sete	65627(%r13)
Ltmp2289:
	.loc	16 210 30
	cmpb	$3, %al
Ltmp2290:
	.loc	16 2293 17
	jne	LBB37_4
Ltmp2291:
	.loc	16 0 17 is_stmt 0
	movl	$65536, %eax
	movq	65640(%r13), %rdi
	.loc	16 2294 33 is_stmt 1
	addq	%rax, %rdi
Ltmp2292:
	.loc	16 375 9
	movl	$65536, %esi
	callq	___bzero
Ltmp2293:
	.loc	16 2295 33
	movq	65640(%r13), %rdi
Ltmp2294:
	.loc	16 375 9
	movl	$65536, %esi
	callq	___bzero
Ltmp2295:
	.loc	16 2296 21
	movq	$0, 65672(%r13)
	jmp	LBB37_4
Ltmp2296:
LBB37_268:
	.loc	16 0 21 is_stmt 0
	movq	-56(%rbp), %r10
Ltmp2297:
	.loc	16 2089 29 is_stmt 1
	movq	%r10, 65560(%r13)
	.loc	16 2090 29
	movl	$-1, 65612(%r13)
	jmp	LBB37_269
Ltmp2298:
LBB37_270:
	.loc	16 2144 5
	movq	%r10, 65560(%r13)
	.loc	16 2145 5
	movq	%r15, 65656(%r13)
	.loc	16 2146 5
	movq	%rbx, 65664(%r13)
	jmp	LBB37_271
Ltmp2299:
LBB37_287:
	.loc	16 2286 21
	movl	65612(%r13), %eax
	.loc	16 2287 21
	movq	65560(%r13), %rcx
	.loc	16 2288 21
	movq	65568(%r13), %rdx
	.loc	16 2285 24
	movl	%eax, 8(%r14)
	movq	%rcx, (%r14)
	movq	%rdx, 16(%r14)
Ltmp2300:
	.loc	16 0 24 is_stmt 0
	jmp	LBB37_6
Ltmp2301:
LBB37_267:
	.loc	16 2259 13 is_stmt 1
	movq	(%rbx), %r10
LBB37_269:
	.loc	16 2258 13
	movl	65612(%r13), %eax
	.loc	16 2260 13
	movq	65568(%r13), %rcx
	.loc	16 2257 16
	movl	%eax, 8(%r14)
	movq	%r10, (%r14)
	movq	%rcx, 16(%r14)
	jmp	LBB37_6
Ltmp2302:
LBB37_288:
	.loc	16 1801 17
	leaq	_str.0(%rip), %rdi
	leaq	l___unnamed_163(%rip), %rdx
	movl	$28, %esi
	callq	__ZN4core9panicking5panic17h383a6b80ea7021aaE
Ltmp2303:
LBB37_289:
	.loc	16 1807 31
	leaq	_str.0(%rip), %rdi
	leaq	l___unnamed_164(%rip), %rdx
	movl	$28, %esi
	callq	__ZN4core9panicking5panic17h383a6b80ea7021aaE
Ltmp2304:
LBB37_290:
	.loc	16 1813 17
	leaq	_str.0(%rip), %rdi
	leaq	l___unnamed_165(%rip), %rdx
	movl	$28, %esi
	callq	__ZN4core9panicking5panic17h383a6b80ea7021aaE
Ltmp2305:
LBB37_291:
	.loc	16 1814 20
	leaq	_str.0(%rip), %rdi
	leaq	l___unnamed_166(%rip), %rdx
	movl	$28, %esi
Ltmp2306:
	callq	__ZN4core9panicking5panic17h383a6b80ea7021aaE
Ltmp2307:
LBB37_292:
	.loc	16 0 0 is_stmt 0
	leaq	_str.0(%rip), %rdi
	leaq	l___unnamed_167(%rip), %rdx
	movl	$28, %esi
	callq	__ZN4core9panicking5panic17h383a6b80ea7021aaE
LBB37_293:
Ltmp2308:
	movl	$33023, %eax
Ltmp2309:
	.loc	16 2016 25 is_stmt 1
	subl	%ecx, %eax
	andl	$-8, %eax
	leaq	11(%rcx,%rax), %rdi
Ltmp2310:
LBB37_294:
	.loc	16 0 0 is_stmt 0
	leaq	l___unnamed_168(%rip), %rdx
Ltmp2311:
	movl	$33026, %esi
	callq	__ZN4core5slice24slice_end_index_len_fail17hea9e3399ed430f80E
Ltmp2312:
LBB37_295:
	leaq	-200(%rbp), %rax
Ltmp2313:
	movq	%rax, -216(%rbp)
	leaq	-208(%rbp), %rax
	movq	%rax, -224(%rbp)
Ltmp2314:
	leaq	l___unnamed_20(%rip), %rax
Ltmp2315:
	movq	%rax, -184(%rbp)
	movq	$1, -176(%rbp)
	movq	$0, -168(%rbp)
	leaq	l___unnamed_21(%rip), %rax
Ltmp2316:
	movq	%rax, -152(%rbp)
	movq	$0, -144(%rbp)
	leaq	-216(%rbp), %rax
Ltmp2317:
	movq	%rax, -288(%rbp)
	leaq	__ZN42_$LT$$RF$T$u20$as$u20$core..fmt..Debug$GT$3fmt17hba288db9807855bfE(%rip), %rax
	movq	%rax, -280(%rbp)
	leaq	-224(%rbp), %rcx
	movq	%rcx, -272(%rbp)
	movq	%rax, -264(%rbp)
	leaq	-184(%rbp), %rax
	movq	%rax, -256(%rbp)
	movq	__ZN59_$LT$core..fmt..Arguments$u20$as$u20$core..fmt..Display$GT$3fmt17hca54f9d63261f398E@GOTPCREL(%rip), %rax
	movq	%rax, -248(%rbp)
Ltmp2318:
	leaq	l___unnamed_22(%rip), %rax
Ltmp2319:
	movq	%rax, -344(%rbp)
	movq	$3, -336(%rbp)
	movq	$0, -328(%rbp)
	leaq	-288(%rbp), %rax
Ltmp2320:
	movq	%rax, -312(%rbp)
	movq	$3, -304(%rbp)
	leaq	l___unnamed_23(%rip), %rsi
	leaq	-344(%rbp), %rdi
	callq	__ZN4core9panicking9panic_fmt17hfce5b7173905fc53E
Ltmp2321:
LBB37_296:
	.loc	16 1792 21 is_stmt 1
	leaq	l___unnamed_169(%rip), %rdx
	jmp	LBB37_305
Ltmp2322:
LBB37_297:
	.loc	16 1810 21
	leaq	l___unnamed_170(%rip), %rdx
	jmp	LBB37_305
Ltmp2323:
LBB37_298:
	.loc	16 1815 35
	leaq	_str.0(%rip), %rdi
	leaq	l___unnamed_171(%rip), %rdx
	movl	$28, %esi
Ltmp2324:
	callq	__ZN4core9panicking5panic17h383a6b80ea7021aaE
Ltmp2325:
LBB37_299:
	leaq	_str.1(%rip), %rdi
	leaq	l___unnamed_171(%rip), %rdx
	movl	$33, %esi
Ltmp2326:
	callq	__ZN4core9panicking5panic17h383a6b80ea7021aaE
Ltmp2327:
LBB37_300:
	.loc	16 1818 51
	leaq	_str.0(%rip), %rdi
	leaq	l___unnamed_172(%rip), %rdx
	movl	$28, %esi
Ltmp2328:
	callq	__ZN4core9panicking5panic17h383a6b80ea7021aaE
Ltmp2329:
LBB37_301:
	.loc	16 0 0 is_stmt 0
	leaq	l___unnamed_96(%rip), %rdx
	jmp	LBB37_305
Ltmp2330:
LBB37_302:
	.loc	16 1296 28 is_stmt 1
	leaq	_str.1(%rip), %rdi
Ltmp2331:
	leaq	l___unnamed_173(%rip), %rdx
	movl	$33, %esi
Ltmp2332:
	callq	__ZN4core9panicking5panic17h383a6b80ea7021aaE
Ltmp2333:
LBB37_303:
	.loc	16 1308 41
	leaq	_str.1(%rip), %rdi
Ltmp2334:
	leaq	l___unnamed_174(%rip), %rdx
	movl	$33, %esi
Ltmp2335:
	callq	__ZN4core9panicking5panic17h383a6b80ea7021aaE
Ltmp2336:
LBB37_304:
	.loc	16 0 41 is_stmt 0
	incq	%rax
	leaq	l___unnamed_97(%rip), %rdx
Ltmp2337:
LBB37_305:
	movl	$33026, %esi
	movq	%rax, %rdi
	callq	__ZN4core9panicking18panic_bounds_check17he87128426d100e93E
Ltmp2338:
LBB37_306:
	.loc	20 3180 13 is_stmt 1
	leaq	l___unnamed_175(%rip), %rdx
	movl	$33026, %esi
	callq	__ZN4core5slice24slice_end_index_len_fail17hea9e3399ed430f80E
Ltmp2339:
LBB37_307:
	.loc	16 1976 82
	leaq	_str.0(%rip), %rdi
	leaq	l___unnamed_176(%rip), %rdx
	movl	$28, %esi
	callq	__ZN4core9panicking5panic17h383a6b80ea7021aaE
Ltmp2340:
LBB37_308:
	.loc	20 3170 13
	leaq	l___unnamed_177(%rip), %rdx
	movq	%r12, %rdi
	movq	-72(%rbp), %rsi
	callq	__ZN4core5slice24slice_end_index_len_fail17hea9e3399ed430f80E
Ltmp2341:
LBB37_309:
	.loc	16 1986 13
	leaq	_str.1(%rip), %rdi
	leaq	l___unnamed_178(%rip), %rdx
	movl	$33, %esi
	callq	__ZN4core9panicking5panic17h383a6b80ea7021aaE
Ltmp2342:
LBB37_310:
	.loc	16 0 0 is_stmt 0
	leaq	_str.0(%rip), %rdi
	leaq	l___unnamed_143(%rip), %rdx
	movl	$28, %esi
	callq	__ZN4core9panicking5panic17h383a6b80ea7021aaE
LBB37_311:
	leaq	_str.1(%rip), %rdi
	leaq	l___unnamed_151(%rip), %rdx
	movl	$33, %esi
	callq	__ZN4core9panicking5panic17h383a6b80ea7021aaE
LBB37_312:
	leaq	l___unnamed_142(%rip), %rdx
	movl	$65536, %esi
	callq	__ZN4core9panicking18panic_bounds_check17he87128426d100e93E
LBB37_313:
	leaq	l___unnamed_122(%rip), %rdx
	movl	$65536, %esi
	callq	__ZN4core9panicking18panic_bounds_check17he87128426d100e93E
LBB37_314:
Ltmp2343:
	.loc	16 2005 38 is_stmt 1
	leaq	_str.1(%rip), %rdi
	leaq	l___unnamed_179(%rip), %rdx
	movl	$33, %esi
Ltmp2344:
	callq	__ZN4core9panicking5panic17h383a6b80ea7021aaE
Ltmp2345:
LBB37_315:
	.loc	20 3180 13
	leaq	l___unnamed_180(%rip), %rdx
Ltmp2346:
	movl	$33026, %esi
	callq	__ZN4core5slice24slice_end_index_len_fail17hea9e3399ed430f80E
Ltmp2347:
LBB37_316:
	.loc	16 1981 55
	leaq	_str.0(%rip), %rdi
	leaq	l___unnamed_181(%rip), %rdx
Ltmp2348:
	movl	$28, %esi
	callq	__ZN4core9panicking5panic17h383a6b80ea7021aaE
Ltmp2349:
LBB37_317:
	.loc	20 3170 13
	leaq	l___unnamed_182(%rip), %rdx
Ltmp2350:
	.loc	20 0 13 is_stmt 0
	movq	-72(%rbp), %rsi
	.loc	20 3170 13
	callq	__ZN4core5slice24slice_end_index_len_fail17hea9e3399ed430f80E
Ltmp2351:
LBB37_318:
	.loc	16 1286 17 is_stmt 1
	leaq	_str.1(%rip), %rdi
	leaq	l___unnamed_183(%rip), %rdx
	movl	$33, %esi
Ltmp2352:
	callq	__ZN4core9panicking5panic17h383a6b80ea7021aaE
Ltmp2353:
LBB37_319:
	.loc	16 1294 42
	leaq	l___unnamed_184(%rip), %rdx
	movl	$32768, %esi
Ltmp2354:
	callq	__ZN4core9panicking18panic_bounds_check17he87128426d100e93E
Ltmp2355:
LBB37_320:
	.loc	16 1770 28
	leaq	_str.1(%rip), %rdi
	leaq	l___unnamed_185(%rip), %rdx
	movl	$33, %esi
	callq	__ZN4core9panicking5panic17h383a6b80ea7021aaE
Ltmp2356:
LBB37_321:
	.loc	16 1771 59
	leaq	_str.1(%rip), %rdi
	leaq	l___unnamed_186(%rip), %rdx
	movl	$33, %esi
	callq	__ZN4core9panicking5panic17h383a6b80ea7021aaE
Ltmp2357:
LBB37_322:
	.loc	16 1773 12
	leaq	_str.0(%rip), %rdi
	leaq	l___unnamed_187(%rip), %rdx
	movl	$28, %esi
	callq	__ZN4core9panicking5panic17h383a6b80ea7021aaE
Ltmp2358:
LBB37_323:
	.loc	16 1831 32
	leaq	_str.1(%rip), %rdi
	leaq	l___unnamed_188(%rip), %rdx
	movl	$33, %esi
	callq	__ZN4core9panicking5panic17h383a6b80ea7021aaE
Ltmp2359:
LBB37_324:
	.loc	16 2108 23
	leaq	l___unnamed_189(%rip), %rdx
	movl	$33026, %esi
	movq	%r11, %rdi
	callq	__ZN4core9panicking18panic_bounds_check17he87128426d100e93E
Ltmp2360:
LBB37_325:
	.loc	16 2109 13
	leaq	_str.0(%rip), %rdi
	leaq	l___unnamed_190(%rip), %rdx
	movl	$28, %esi
	callq	__ZN4core9panicking5panic17h383a6b80ea7021aaE
Ltmp2361:
LBB37_326:
	.loc	16 2114 13
	leaq	_str.0(%rip), %rdi
	leaq	l___unnamed_191(%rip), %rdx
	movl	$28, %esi
	callq	__ZN4core9panicking5panic17h383a6b80ea7021aaE
Ltmp2362:
LBB37_327:
	.loc	16 2115 13
	leaq	_str.0(%rip), %rdi
	leaq	l___unnamed_192(%rip), %rdx
	movl	$28, %esi
	callq	__ZN4core9panicking5panic17h383a6b80ea7021aaE
Ltmp2363:
LBB37_328:
	.loc	16 2116 36
	leaq	_str.0(%rip), %rdi
	leaq	l___unnamed_193(%rip), %rdx
	movl	$28, %esi
	callq	__ZN4core9panicking5panic17h383a6b80ea7021aaE
Ltmp2364:
LBB37_329:
	.loc	16 1915 9
	leaq	_str.0(%rip), %rdi
	leaq	l___unnamed_194(%rip), %rdx
	movl	$28, %esi
	callq	__ZN4core9panicking5panic17h383a6b80ea7021aaE
Ltmp2365:
LBB37_330:
	.loc	16 1916 9
	leaq	l___unnamed_195(%rip), %rdi
	leaq	l___unnamed_196(%rip), %rdx
	movl	$47, %esi
	callq	__ZN4core9panicking5panic17h383a6b80ea7021aaE
Ltmp2366:
LBB37_331:
	.loc	16 1917 9
	leaq	_str.1(%rip), %rdi
	leaq	l___unnamed_197(%rip), %rdx
	movl	$33, %esi
	callq	__ZN4core9panicking5panic17h383a6b80ea7021aaE
Ltmp2367:
LBB37_332:
	.loc	16 1918 32
	leaq	_str.0(%rip), %rdi
	leaq	l___unnamed_198(%rip), %rdx
	movl	$28, %esi
	callq	__ZN4core9panicking5panic17h383a6b80ea7021aaE
Ltmp2368:
LBB37_333:
	.loc	16 1922 20
	leaq	_str.3(%rip), %rdi
	leaq	l___unnamed_199(%rip), %rdx
	movl	$33, %esi
	callq	__ZN4core9panicking5panic17h383a6b80ea7021aaE
Ltmp2369:
LBB37_334:
	.loc	16 0 0 is_stmt 0
	leaq	_str.0(%rip), %rdi
	leaq	l___unnamed_155(%rip), %rdx
	movl	$28, %esi
	callq	__ZN4core9panicking5panic17h383a6b80ea7021aaE
LBB37_335:
Ltmp2370:
	.loc	16 2076 17 is_stmt 1
	leaq	_str.0(%rip), %rdi
	leaq	l___unnamed_200(%rip), %rdx
	movl	$28, %esi
	callq	__ZN4core9panicking5panic17h383a6b80ea7021aaE
Ltmp2371:
LBB37_336:
	.loc	16 2077 17
	leaq	_str.0(%rip), %rdi
	leaq	l___unnamed_201(%rip), %rdx
	movl	$28, %esi
	callq	__ZN4core9panicking5panic17h383a6b80ea7021aaE
Ltmp2372:
LBB37_337:
	.loc	16 2078 40
	leaq	_str.0(%rip), %rdi
	leaq	l___unnamed_202(%rip), %rdx
	movl	$28, %esi
	callq	__ZN4core9panicking5panic17h383a6b80ea7021aaE
Ltmp2373:
LBB37_338:
	.loc	16 2079 27
	leaq	_str.0(%rip), %rdi
	leaq	l___unnamed_203(%rip), %rdx
	movl	$28, %esi
	callq	__ZN4core9panicking5panic17h383a6b80ea7021aaE
Ltmp2374:
LBB37_339:
	.loc	16 2080 17
	leaq	_str.1(%rip), %rdi
	leaq	l___unnamed_204(%rip), %rdx
	movl	$33, %esi
	callq	__ZN4core9panicking5panic17h383a6b80ea7021aaE
Ltmp2375:
LBB37_340:
	.loc	16 0 0 is_stmt 0
	leaq	l___unnamed_122(%rip), %rdx
	jmp	LBB37_344
LBB37_341:
Ltmp2376:
	.loc	20 3170 13 is_stmt 1
	leaq	l___unnamed_168(%rip), %rdx
	movl	$33026, %esi
Ltmp2377:
	movq	%rax, %rdi
Ltmp2378:
	callq	__ZN4core5slice24slice_end_index_len_fail17hea9e3399ed430f80E
Ltmp2379:
LBB37_342:
	.loc	20 0 13 is_stmt 0
	movl	$33024, %eax
	.loc	16 1328 13 is_stmt 1
	subl	%edi, %eax
	andl	$-8, %eax
	leaq	10(%rdi,%rax), %rdi
Ltmp2380:
	.loc	16 0 0 is_stmt 0
	leaq	l___unnamed_168(%rip), %rdx
	movl	$33026, %esi
Ltmp2381:
	callq	__ZN4core5slice24slice_end_index_len_fail17hea9e3399ed430f80E
Ltmp2382:
LBB37_343:
	leaq	l___unnamed_142(%rip), %rdx
LBB37_344:
	movl	$65536, %esi
	movq	%rax, %rdi
	callq	__ZN4core9panicking18panic_bounds_check17he87128426d100e93E
LBB37_345:
Ltmp2383:
	.loc	16 1778 31 is_stmt 1
	leaq	_str.0(%rip), %rdi
	leaq	l___unnamed_205(%rip), %rdx
	movl	$28, %esi
	callq	__ZN4core9panicking5panic17h383a6b80ea7021aaE
Ltmp2384:
LBB37_346:
	.loc	16 1779 31
	leaq	_str.1(%rip), %rdi
	leaq	l___unnamed_206(%rip), %rdx
	movl	$33, %esi
	callq	__ZN4core9panicking5panic17h383a6b80ea7021aaE
Ltmp2385:
LBB37_347:
	.loc	16 1783 29
	leaq	_str.0(%rip), %rdi
	leaq	l___unnamed_207(%rip), %rdx
Ltmp2386:
	movl	$28, %esi
	callq	__ZN4core9panicking5panic17h383a6b80ea7021aaE
Ltmp2387:
LBB37_348:
	.loc	16 1786 13
	leaq	_str.0(%rip), %rdi
	leaq	l___unnamed_208(%rip), %rdx
Ltmp2388:
	movl	$28, %esi
	callq	__ZN4core9panicking5panic17h383a6b80ea7021aaE
Ltmp2389:
LBB37_349:
	.loc	16 1788 40
	leaq	_str.0(%rip), %rdi
	leaq	l___unnamed_209(%rip), %rdx
Ltmp2390:
	movl	$28, %esi
	callq	__ZN4core9panicking5panic17h383a6b80ea7021aaE
Ltmp2391:
LBB37_350:
	.loc	20 3170 13
	leaq	l___unnamed_210(%rip), %rdx
Ltmp2392:
	callq	__ZN4core5slice24slice_end_index_len_fail17hea9e3399ed430f80E
Ltmp2393:
LBB37_351:
	.loc	16 1806 40
	leaq	_str.0(%rip), %rdi
	leaq	l___unnamed_211(%rip), %rdx
	movl	$28, %esi
	callq	__ZN4core9panicking5panic17h383a6b80ea7021aaE
Ltmp2394:
LBB37_352:
	.loc	20 3170 13
	leaq	l___unnamed_212(%rip), %rdx
	callq	__ZN4core5slice24slice_end_index_len_fail17hea9e3399ed430f80E
Ltmp2395:
LBB37_353:
	.loc	16 2013 33
	leaq	_str.0(%rip), %rdi
	leaq	l___unnamed_213(%rip), %rdx
Ltmp2396:
	movl	$28, %esi
Ltmp2397:
	callq	__ZN4core9panicking5panic17h383a6b80ea7021aaE
Ltmp2398:
LBB37_354:
	.loc	16 2099 21
	leaq	l___unnamed_214(%rip), %rdi
	leaq	l___unnamed_215(%rip), %rdx
Ltmp2399:
	movl	$59, %esi
	callq	__ZN4core9panicking5panic17h383a6b80ea7021aaE
Ltmp2400:
LBB37_355:
	.loc	16 0 0 is_stmt 0
	leaq	_str.0(%rip), %rdi
	leaq	l___unnamed_216(%rip), %rdx
	movl	$28, %esi
	callq	__ZN4core9panicking5panic17h383a6b80ea7021aaE
Ltmp2401:
LBB37_356:
	leaq	_str.0(%rip), %rdi
	leaq	l___unnamed_217(%rip), %rdx
	movl	$28, %esi
	callq	__ZN4core9panicking5panic17h383a6b80ea7021aaE
Ltmp2402:
LBB37_357:
	.loc	16 2072 21 is_stmt 1
	leaq	_str.0(%rip), %rdi
	leaq	l___unnamed_218(%rip), %rdx
	movl	$28, %esi
Ltmp2403:
	callq	__ZN4core9panicking5panic17h383a6b80ea7021aaE
Ltmp2404:
LBB37_358:
	.loc	16 1848 65
	leaq	_str.0(%rip), %rdi
	leaq	l___unnamed_219(%rip), %rdx
	movl	$28, %esi
	callq	__ZN4core9panicking5panic17h383a6b80ea7021aaE
Ltmp2405:
LBB37_359:
	.loc	20 3170 13
	leaq	l___unnamed_220(%rip), %rdx
	movl	$33026, %esi
	callq	__ZN4core5slice24slice_end_index_len_fail17hea9e3399ed430f80E
Ltmp2406:
LBB37_360:
	.loc	16 2025 51
	leaq	_str.1(%rip), %rdi
Ltmp2407:
	leaq	l___unnamed_221(%rip), %rdx
Ltmp2408:
	movl	$33, %esi
	callq	__ZN4core9panicking5panic17h383a6b80ea7021aaE
Ltmp2409:
LBB37_361:
	leaq	_str.0(%rip), %rdi
Ltmp2410:
	leaq	l___unnamed_221(%rip), %rdx
Ltmp2411:
	movl	$28, %esi
	callq	__ZN4core9panicking5panic17h383a6b80ea7021aaE
Ltmp2412:
LBB37_362:
	.loc	16 2048 25
	leaq	l___unnamed_222(%rip), %rdi
	leaq	l___unnamed_223(%rip), %rdx
Ltmp2413:
	movl	$55, %esi
	callq	__ZN4core9panicking5panic17h383a6b80ea7021aaE
Ltmp2414:
LBB37_363:
	.loc	16 2049 25
	leaq	l___unnamed_224(%rip), %rdi
	leaq	l___unnamed_225(%rip), %rdx
Ltmp2415:
	movl	$37, %esi
	callq	__ZN4core9panicking5panic17h383a6b80ea7021aaE
Ltmp2416:
LBB37_364:
	.loc	16 2050 25
	leaq	l___unnamed_226(%rip), %rdi
	leaq	l___unnamed_227(%rip), %rdx
Ltmp2417:
	movl	$57, %esi
	callq	__ZN4core9panicking5panic17h383a6b80ea7021aaE
Ltmp2418:
LBB37_365:
	.loc	16 2066 41
	leaq	l___unnamed_228(%rip), %rdx
	movl	$256, %esi
	callq	__ZN4core9panicking18panic_bounds_check17he87128426d100e93E
Ltmp2419:
LBB37_366:
	.loc	16 2066 25 is_stmt 0
	leaq	l___unnamed_229(%rip), %rdx
	movl	$288, %esi
	callq	__ZN4core9panicking18panic_bounds_check17he87128426d100e93E
Ltmp2420:
LBB37_367:
	leaq	_str.0(%rip), %rdi
	leaq	l___unnamed_229(%rip), %rdx
	movl	$28, %esi
	callq	__ZN4core9panicking5panic17h383a6b80ea7021aaE
Ltmp2421:
LBB37_368:
	.loc	16 390 27 is_stmt 1
	leaq	l___unnamed_97(%rip), %rdx
	movl	$33026, %esi
Ltmp2422:
	callq	__ZN4core9panicking18panic_bounds_check17he87128426d100e93E
Ltmp2423:
LBB37_369:
	.loc	16 1340 37
	leaq	_str.1(%rip), %rdi
Ltmp2424:
	leaq	l___unnamed_230(%rip), %rdx
	movl	$33, %esi
Ltmp2425:
	callq	__ZN4core9panicking5panic17h383a6b80ea7021aaE
Ltmp2426:
LBB37_370:
	leaq	_str.0(%rip), %rdi
Ltmp2427:
	leaq	l___unnamed_230(%rip), %rdx
	movl	$28, %esi
Ltmp2428:
	callq	__ZN4core9panicking5panic17h383a6b80ea7021aaE
Ltmp2429:
LBB37_371:
	.loc	16 1351 48
	leaq	_str.1(%rip), %rdi
Ltmp2430:
	leaq	l___unnamed_231(%rip), %rdx
	movl	$33, %esi
Ltmp2431:
	callq	__ZN4core9panicking5panic17h383a6b80ea7021aaE
Ltmp2432:
LBB37_372:
	.loc	16 1967 28
	leaq	_str.0(%rip), %rdi
	leaq	l___unnamed_232(%rip), %rdx
	movl	$28, %esi
	callq	__ZN4core9panicking5panic17h383a6b80ea7021aaE
Ltmp2433:
LBB37_373:
	.loc	16 1969 13
	leaq	_str.1(%rip), %rdi
	leaq	l___unnamed_233(%rip), %rdx
	movl	$33, %esi
	callq	__ZN4core9panicking5panic17h383a6b80ea7021aaE
Ltmp2434:
LBB37_374:
	.loc	16 1970 13
	leaq	_str.1(%rip), %rdi
	leaq	l___unnamed_234(%rip), %rdx
	movl	$33, %esi
	callq	__ZN4core9panicking5panic17h383a6b80ea7021aaE
Ltmp2435:
LBB37_375:
	.loc	16 1972 9
	leaq	_str.0(%rip), %rdi
	leaq	l___unnamed_235(%rip), %rdx
	movl	$28, %esi
	callq	__ZN4core9panicking5panic17h383a6b80ea7021aaE
Ltmp2436:
LBB37_376:
	.loc	16 1989 32
	leaq	_str.1(%rip), %rdi
	leaq	l___unnamed_236(%rip), %rdx
	movl	$33, %esi
	callq	__ZN4core9panicking5panic17h383a6b80ea7021aaE
Ltmp2437:
LBB37_377:
	.loc	16 2271 19
	leaq	_str.1(%rip), %rdi
	leaq	l___unnamed_237(%rip), %rdx
	movl	$33, %esi
	callq	__ZN4core9panicking5panic17h383a6b80ea7021aaE
Ltmp2438:
LBB37_378:
	.loc	16 2043 25
	leaq	_str.0(%rip), %rdi
	leaq	l___unnamed_238(%rip), %rdx
	movl	$28, %esi
	callq	__ZN4core9panicking5panic17h383a6b80ea7021aaE
Ltmp2439:
LBB37_379:
	.loc	16 1964 5
	leaq	l___unnamed_214(%rip), %rdi
	leaq	l___unnamed_239(%rip), %rdx
	movl	$59, %esi
	callq	__ZN4core9panicking5panic17h383a6b80ea7021aaE
Ltmp2440:
LBB37_380:
	.loc	16 2060 29
	leaq	_str.0(%rip), %rdi
	leaq	l___unnamed_240(%rip), %rdx
	movl	$28, %esi
	callq	__ZN4core9panicking5panic17h383a6b80ea7021aaE
Ltmp2441:
LBB37_381:
	.loc	16 2063 34
	leaq	l___unnamed_241(%rip), %rdx
Ltmp2442:
	movl	$128, %esi
	callq	__ZN4core9panicking18panic_bounds_check17he87128426d100e93E
Ltmp2443:
LBB37_382:
	.loc	16 2062 29
	leaq	_str.0(%rip), %rdi
	leaq	l___unnamed_242(%rip), %rdx
	movl	$28, %esi
	callq	__ZN4core9panicking5panic17h383a6b80ea7021aaE
Ltmp2444:
LBB37_383:
	.loc	20 3170 13
	leaq	l___unnamed_243(%rip), %rax
	movq	%rdx, %rdi
	movq	%rax, %rdx
Ltmp2445:
	callq	__ZN4core5slice24slice_end_index_len_fail17hea9e3399ed430f80E
Ltmp2446:
Lfunc_end37:
	.cfi_endproc

	.globl	__ZN11miniz_oxide7deflate4core33create_comp_flags_from_zip_params17h0177d52491c58b1aE
	.p2align	4, 0x90
__ZN11miniz_oxide7deflate4core33create_comp_flags_from_zip_params17h0177d52491c58b1aE:
Lfunc_begin38:
	.loc	16 2320 0
	.cfi_startproc
	pushq	%rbp
	.cfi_def_cfa_offset 16
	.cfi_offset %rbp, -16
	movq	%rsp, %rbp
	.cfi_def_cfa_register %rbp
Ltmp2447:
	.loc	16 2321 23 prologue_end
	cmpl	$11, %edi
	movl	$10, %eax
	cmovll	%edi, %eax
	.loc	16 2321 26 is_stmt 0
	testl	%edi, %edi
	movl	$6, %ecx
	.loc	16 2321 23
	cmovnsl	%eax, %ecx
	movslq	%ecx, %r8
Ltmp2448:
	.loc	16 2326 21 is_stmt 1
	xorl	%ecx, %ecx
	cmpl	$4, %edi
	setl	%cl
	.loc	16 2326 18 is_stmt 0
	shll	$14, %ecx
Ltmp2449:
	.loc	16 2331 26 is_stmt 1
	leaq	l___unnamed_9(%rip), %rax
	orl	(%rax,%r8,4), %ecx
Ltmp2450:
	.loc	16 2334 9
	movl	%ecx, %eax
	orl	$4096, %eax
	.loc	16 2333 8
	testl	%esi, %esi
	.loc	16 2333 5 is_stmt 0
	cmovlel	%ecx, %eax
Ltmp2451:
	.loc	16 2321 26 is_stmt 1
	testl	%edi, %edi
Ltmp2452:
	.loc	16 2337 5
	je	LBB38_3
Ltmp2453:
	.loc	16 2339 12
	decl	%edx
Ltmp2454:
	cmpl	$3, %edx
	ja	LBB38_8
Ltmp2455:
	.loc	16 0 12 is_stmt 0
	leaq	LJTI38_0(%rip), %rcx
	movslq	(%rcx,%rdx,4), %rdx
	addq	%rcx, %rdx
	jmpq	*%rdx
Ltmp2456:
LBB38_4:
	.loc	16 2340 9 is_stmt 1
	orl	$131072, %eax
Ltmp2457:
	.loc	16 2350 2
	popq	%rbp
	retq
Ltmp2458:
LBB38_3:
	.loc	16 2338 9
	orl	$524288, %eax
Ltmp2459:
	.loc	16 2350 2
	popq	%rbp
	retq
Ltmp2460:
LBB38_5:
	.loc	16 2342 9
	andl	$-4096, %eax
Ltmp2461:
	.loc	16 2350 2
	popq	%rbp
	retq
Ltmp2462:
LBB38_7:
	.loc	16 2346 9
	orl	$65536, %eax
Ltmp2463:
LBB38_8:
	.loc	16 2350 2
	popq	%rbp
	retq
Ltmp2464:
LBB38_6:
	.loc	16 2344 9
	orl	$262144, %eax
Ltmp2465:
	.loc	16 2350 2
	popq	%rbp
	retq
Ltmp2466:
Lfunc_end38:
	.cfi_endproc
	.p2align	2, 0x90
	.data_region jt32
.set L38_0_set_4, LBB38_4-LJTI38_0
.set L38_0_set_5, LBB38_5-LJTI38_0
.set L38_0_set_7, LBB38_7-LJTI38_0
.set L38_0_set_6, LBB38_6-LJTI38_0
LJTI38_0:
	.long	L38_0_set_4
	.long	L38_0_set_5
	.long	L38_0_set_7
	.long	L38_0_set_6
	.end_data_region

	.globl	__ZN11miniz_oxide7deflate6stream7deflate17h20922aea8ba0d2e9E
	.p2align	4, 0x90
__ZN11miniz_oxide7deflate6stream7deflate17h20922aea8ba0d2e9E:
Lfunc_begin39:
	.file	35 "/Users/yingyuhang/.cargo/registry/src/github.com-1ecc6299db9ec823/miniz_oxide-0.4.0/src/deflate/stream.rs"
	.loc	35 20 0
	.cfi_startproc
	pushq	%rbp
	.cfi_def_cfa_offset 16
	.cfi_offset %rbp, -16
	movq	%rsp, %rbp
	.cfi_def_cfa_register %rbp
Ltmp2467:
	pushq	%r15
	pushq	%r14
	pushq	%r13
	pushq	%r12
	pushq	%rbx
	subq	$120, %rsp
	.cfi_offset %rbx, -56
	.cfi_offset %r12, -48
	.cfi_offset %r13, -40
	.cfi_offset %r14, -32
	.cfi_offset %r15, -24
Ltmp2468:
	.loc	20 88 9 prologue_end
	testq	%r9, %r9
Ltmp2469:
	.loc	35 26 5
	je	LBB39_30
Ltmp2470:
	.loc	35 0 5 is_stmt 0
	movq	%rcx, %r14
Ltmp2471:
	movq	%rsi, %r11
Ltmp2472:
	movl	16(%rbp), %ecx
Ltmp2473:
	.loc	16 250 30 is_stmt 1
	cmpl	$1, 65612(%rsi)
Ltmp2474:
	.loc	35 30 5
	jne	LBB39_2
Ltmp2475:
	.loc	2 44 30
	cmpl	$4, %ecx
Ltmp2476:
	.loc	35 31 16
	jne	LBB39_30
Ltmp2477:
	.loc	35 0 16 is_stmt 0
	movabsq	$4294967296, %rax
	.loc	35 32 13 is_stmt 1
	movq	%rax, 16(%rdi)
	movq	$0, 8(%rdi)
	movq	$0, (%rdi)
	jmp	LBB39_31
Ltmp2478:
LBB39_30:
	.loc	35 0 0 is_stmt 0
	movq	$0, 8(%rdi)
	movq	$0, (%rdi)
	movabsq	$-21474836479, %rax
	movq	%rax, 16(%rdi)
	jmp	LBB39_31
Ltmp2479:
LBB39_2:
	movq	%r9, %rsi
Ltmp2480:
	.loc	16 227 13 is_stmt 1
	cmpl	$4, %ecx
	movq	%r11, -64(%rbp)
	movq	%rdi, -56(%rbp)
	je	LBB39_16
Ltmp2481:
	cmpl	$2, %ecx
	jne	LBB39_34
Ltmp2482:
	.loc	16 0 13 is_stmt 0
	xorl	%r9d, %r9d
	xorl	%r12d, %r12d
	movq	%rsi, %rdi
Ltmp2483:
	.p2align	4, 0x90
LBB39_5:
	movq	%r9, %r13
Ltmp2484:
	movq	%rdx, %r15
Ltmp2485:
	.loc	16 612 9 is_stmt 1
	movq	%rdx, -152(%rbp)
Ltmp2486:
	movq	%r14, -144(%rbp)
	leaq	-136(%rbp), %rax
	movq	$0, 8(%rax)
	movq	$0, (%rax)
	movq	$1, -120(%rbp)
	movq	%r8, -48(%rbp)
Ltmp2487:
	movq	%r8, -112(%rbp)
Ltmp2488:
	movq	%rdi, -104(%rbp)
	movq	%r14, %rbx
Ltmp2489:
	.loc	16 0 9 is_stmt 0
	movq	%rdi, %r14
Ltmp2490:
	.loc	16 2186 5 is_stmt 1
	leaq	-88(%rbp), %rdi
Ltmp2491:
	movq	%r11, %rsi
	leaq	-152(%rbp), %rdx
	movl	$2, %ecx
	callq	__ZN11miniz_oxide7deflate4core14compress_inner17h5c332d492e0baa7cE
Ltmp2492:
	.loc	35 53 24
	movq	-88(%rbp), %rdi
Ltmp2493:
	.loc	20 3251 12
	movq	%rbx, %rcx
	subq	%rdi, %rcx
Ltmp2494:
	.loc	20 3251 9 is_stmt 0
	jb	LBB39_50
Ltmp2495:
	.loc	35 0 0
	movq	-72(%rbp), %rax
Ltmp2496:
	.loc	20 3259 12 is_stmt 1
	movq	%r14, %rbx
	subq	%rax, %rbx
	.loc	20 3259 9 is_stmt 0
	jb	LBB39_49
Ltmp2497:
	.loc	20 0 9
	movq	%r13, %r9
Ltmp2498:
	.loc	35 60 9 is_stmt 1
	addq	%rdi, %r9
	movq	-64(%rbp), %r11
	jb	LBB39_47
Ltmp2499:
	.loc	35 61 9
	addq	%rax, %r12
Ltmp2500:
	jb	LBB39_48
Ltmp2501:
	.loc	35 0 0 is_stmt 0
	movl	-80(%rbp), %esi
Ltmp2502:
	.loc	35 65 13 is_stmt 1
	cmpl	$-2, %esi
	je	LBB39_22
Ltmp2503:
	cmpl	$-1, %esi
	je	LBB39_45
Ltmp2504:
	cmpl	$1, %esi
	je	LBB39_46
Ltmp2505:
	.loc	20 88 9
	testq	%rbx, %rbx
Ltmp2506:
	.loc	35 73 9
	je	LBB39_27
Ltmp2507:
	.loc	35 0 9 is_stmt 0
	movq	%r15, %rdx
	addq	%rdi, %rdx
Ltmp2508:
	movq	-48(%rbp), %r8
Ltmp2509:
	addq	%rax, %r8
Ltmp2510:
	movq	%rbx, %rdi
Ltmp2511:
	movq	%rcx, %r14
	movl	16(%rbp), %esi
Ltmp2512:
	cmpl	$4, %esi
Ltmp2513:
	.loc	35 77 12 is_stmt 1
	je	LBB39_5
Ltmp2514:
	.loc	35 0 0 is_stmt 0
	movq	%rbx, %rdi
Ltmp2515:
	movq	%rcx, %r14
Ltmp2516:
	.loc	35 77 12
	testq	%rcx, %rcx
	jne	LBB39_5
	jmp	LBB39_15
Ltmp2517:
LBB39_16:
	.loc	35 0 12
	xorl	%r9d, %r9d
	xorl	%r12d, %r12d
	movq	%rsi, %rdi
Ltmp2518:
	.p2align	4, 0x90
LBB39_17:
	movq	%r9, %r13
Ltmp2519:
	movq	%rdx, %r15
Ltmp2520:
	.loc	16 612 9 is_stmt 1
	movq	%rdx, -152(%rbp)
	movq	%r14, -144(%rbp)
	leaq	-136(%rbp), %rax
	movq	$0, 8(%rax)
	movq	$0, (%rax)
	movq	$1, -120(%rbp)
	movq	%r8, -48(%rbp)
Ltmp2521:
	movq	%r8, -112(%rbp)
Ltmp2522:
	movq	%rdi, -104(%rbp)
	movq	%r14, %rbx
Ltmp2523:
	.loc	16 0 9 is_stmt 0
	movq	%rdi, %r14
Ltmp2524:
	.loc	16 2186 5 is_stmt 1
	leaq	-88(%rbp), %rdi
Ltmp2525:
	movq	%r11, %rsi
	leaq	-152(%rbp), %rdx
	movl	$4, %ecx
	callq	__ZN11miniz_oxide7deflate4core14compress_inner17h5c332d492e0baa7cE
Ltmp2526:
	.loc	35 53 24
	movq	-88(%rbp), %rdi
Ltmp2527:
	.loc	20 3251 12
	movq	%rbx, %rcx
	subq	%rdi, %rcx
Ltmp2528:
	.loc	20 3251 9 is_stmt 0
	jb	LBB39_50
Ltmp2529:
	.loc	35 0 0
	movq	-72(%rbp), %rax
Ltmp2530:
	.loc	20 3259 12 is_stmt 1
	movq	%r14, %rbx
	subq	%rax, %rbx
	.loc	20 3259 9 is_stmt 0
	jb	LBB39_49
Ltmp2531:
	.loc	20 0 9
	movq	%r13, %r9
Ltmp2532:
	.loc	35 60 9 is_stmt 1
	addq	%rdi, %r9
	movq	-64(%rbp), %r11
	jb	LBB39_47
Ltmp2533:
	.loc	35 61 9
	addq	%rax, %r12
Ltmp2534:
	jb	LBB39_48
Ltmp2535:
	.loc	35 0 0 is_stmt 0
	movl	-80(%rbp), %esi
Ltmp2536:
	.loc	35 65 13 is_stmt 1
	cmpl	$-2, %esi
	je	LBB39_22
Ltmp2537:
	cmpl	$-1, %esi
	je	LBB39_45
Ltmp2538:
	cmpl	$1, %esi
	je	LBB39_46
Ltmp2539:
	.loc	20 88 9
	testq	%rbx, %rbx
Ltmp2540:
	.loc	35 73 9
	je	LBB39_27
Ltmp2541:
	.loc	35 0 9 is_stmt 0
	movq	%r15, %rdx
	addq	%rdi, %rdx
Ltmp2542:
	movq	-48(%rbp), %r8
Ltmp2543:
	addq	%rax, %r8
Ltmp2544:
	movq	%rbx, %rdi
Ltmp2545:
	movq	%rcx, %r14
	movl	16(%rbp), %esi
Ltmp2546:
	cmpl	$4, %esi
Ltmp2547:
	.loc	35 77 12 is_stmt 1
	je	LBB39_17
Ltmp2548:
	.loc	35 0 0 is_stmt 0
	movq	%rbx, %rdi
Ltmp2549:
	movq	%rcx, %r14
Ltmp2550:
	.loc	35 77 12
	testq	%rcx, %rcx
	jne	LBB39_17
	jmp	LBB39_15
Ltmp2551:
LBB39_34:
	.loc	16 0 0
	xorl	%eax, %eax
	cmpl	$3, %ecx
	sete	%al
	leal	(%rax,%rax,2), %eax
	xorl	%r9d, %r9d
	movzbl	%al, %eax
	movl	%eax, -92(%rbp)
	movq	%r8, %rax
Ltmp2552:
	xorl	%r12d, %r12d
	movq	%rsi, %rdi
Ltmp2553:
	.p2align	4, 0x90
LBB39_35:
	movq	%r9, %r13
Ltmp2554:
	movq	%rdx, %r15
Ltmp2555:
	.loc	16 612 9 is_stmt 1
	movq	%rdx, -152(%rbp)
Ltmp2556:
	movq	%r14, -144(%rbp)
	leaq	-136(%rbp), %rcx
	movq	$0, 8(%rcx)
	movq	$0, (%rcx)
	movq	$1, -120(%rbp)
	movq	%rax, -48(%rbp)
Ltmp2557:
	movq	%rax, -112(%rbp)
	movq	%rdi, -104(%rbp)
	movq	%r14, %rbx
Ltmp2558:
	.loc	16 0 9 is_stmt 0
	movq	%rdi, %r14
Ltmp2559:
	.loc	16 2186 5 is_stmt 1
	leaq	-88(%rbp), %rdi
Ltmp2560:
	movq	%r11, %rsi
	leaq	-152(%rbp), %rdx
	movl	-92(%rbp), %ecx
	callq	__ZN11miniz_oxide7deflate4core14compress_inner17h5c332d492e0baa7cE
Ltmp2561:
	.loc	35 53 24
	movq	-88(%rbp), %rdi
Ltmp2562:
	.loc	20 3251 12
	movq	%rbx, %rcx
	subq	%rdi, %rcx
Ltmp2563:
	.loc	20 3251 9 is_stmt 0
	jb	LBB39_50
Ltmp2564:
	.loc	35 0 0
	movq	-72(%rbp), %rax
Ltmp2565:
	.loc	20 3259 12 is_stmt 1
	movq	%r14, %rbx
	subq	%rax, %rbx
	.loc	20 3259 9 is_stmt 0
	jb	LBB39_49
Ltmp2566:
	.loc	20 0 9
	movq	%r13, %r9
Ltmp2567:
	.loc	35 60 9 is_stmt 1
	addq	%rdi, %r9
	movq	-64(%rbp), %r11
	jb	LBB39_47
Ltmp2568:
	.loc	35 61 9
	addq	%rax, %r12
Ltmp2569:
	jb	LBB39_48
Ltmp2570:
	.loc	35 0 0 is_stmt 0
	movl	-80(%rbp), %esi
Ltmp2571:
	.loc	35 65 13 is_stmt 1
	cmpl	$-2, %esi
	je	LBB39_22
Ltmp2572:
	cmpl	$-1, %esi
	je	LBB39_45
Ltmp2573:
	cmpl	$1, %esi
	je	LBB39_46
Ltmp2574:
	.loc	20 88 9
	testq	%rbx, %rbx
Ltmp2575:
	.loc	35 73 9
	je	LBB39_27
Ltmp2576:
	.loc	35 0 9 is_stmt 0
	movq	%r15, %rdx
	addq	%rdi, %rdx
Ltmp2577:
	movq	-48(%rbp), %r13
	addq	%rax, %r13
Ltmp2578:
	movq	%r13, %rax
Ltmp2579:
	movq	%rbx, %rdi
Ltmp2580:
	movq	%rcx, %r14
	movl	16(%rbp), %esi
Ltmp2581:
	cmpl	$4, %esi
Ltmp2582:
	.loc	35 77 12 is_stmt 1
	je	LBB39_35
Ltmp2583:
	.loc	35 0 0 is_stmt 0
	movq	%rbx, %rdi
Ltmp2584:
	movq	%rcx, %r14
Ltmp2585:
	.loc	35 77 12
	testq	%rcx, %rcx
	jne	LBB39_35
Ltmp2586:
LBB39_15:
	.loc	35 78 33 is_stmt 1
	movq	%r12, %rax
	orq	%r9, %rax
	setne	%al
Ltmp2587:
	.loc	2 44 30
	testl	%esi, %esi
	setne	%cl
Ltmp2588:
	.loc	35 80 22
	orb	%al, %cl
	.loc	35 80 19 is_stmt 0
	movzbl	%cl, %ecx
	leal	-5(%rcx,%rcx,4), %eax
Ltmp2589:
	xorb	$1, %cl
	movzbl	%cl, %ecx
Ltmp2590:
	.loc	35 0 19
	jmp	LBB39_23
Ltmp2591:
LBB39_27:
	xorl	%eax, %eax
Ltmp2592:
	xorl	%ecx, %ecx
Ltmp2593:
	jmp	LBB39_23
Ltmp2594:
LBB39_45:
	movl	$1, %ecx
Ltmp2595:
	movl	$-2, %eax
Ltmp2596:
	jmp	LBB39_23
Ltmp2597:
LBB39_22:
	movl	$1, %ecx
Ltmp2598:
	movl	$-10000, %eax
Ltmp2599:
	jmp	LBB39_23
Ltmp2600:
LBB39_46:
	xorl	%ecx, %ecx
Ltmp2601:
	movl	$1, %eax
Ltmp2602:
LBB39_23:
	movq	-56(%rbp), %rdi
Ltmp2603:
	.loc	35 90 5 is_stmt 1
	movq	%r9, (%rdi)
	movq	%r12, 8(%rdi)
	movl	%ecx, 16(%rdi)
	movl	%eax, 20(%rdi)
Ltmp2604:
LBB39_31:
	.loc	35 95 2
	movq	%rdi, %rax
	addq	$120, %rsp
	popq	%rbx
	popq	%r12
	popq	%r13
	popq	%r14
	popq	%r15
	popq	%rbp
	retq
Ltmp2605:
LBB39_50:
	.loc	35 0 2 is_stmt 0
	movq	%rbx, %rsi
Ltmp2606:
	.loc	20 3252 13 is_stmt 1
	leaq	l___unnamed_244(%rip), %rdx
	callq	__ZN4core5slice26slice_start_index_len_fail17h787e2f1bbfc1d2f3E
Ltmp2607:
LBB39_49:
	.loc	20 3260 13
	leaq	l___unnamed_245(%rip), %rdx
	movq	%rax, %rdi
Ltmp2608:
	movq	%r14, %rsi
	callq	__ZN4core5slice26slice_start_index_len_fail17h787e2f1bbfc1d2f3E
Ltmp2609:
LBB39_47:
	.loc	35 60 9
	leaq	_str.0(%rip), %rdi
Ltmp2610:
	leaq	l___unnamed_246(%rip), %rdx
	movl	$28, %esi
	callq	__ZN4core9panicking5panic17h383a6b80ea7021aaE
Ltmp2611:
LBB39_48:
	.loc	35 61 9
	leaq	_str.0(%rip), %rdi
Ltmp2612:
	leaq	l___unnamed_247(%rip), %rdx
	movl	$28, %esi
	callq	__ZN4core9panicking5panic17h383a6b80ea7021aaE
Ltmp2613:
Lfunc_end39:
	.cfi_endproc

	.globl	__ZN11miniz_oxide7deflate15compress_to_vec17h949dbc2faa80dff3E
	.p2align	4, 0x90
__ZN11miniz_oxide7deflate15compress_to_vec17h949dbc2faa80dff3E:
Lfunc_begin40:
	.file	36 "/Users/yingyuhang/.cargo/registry/src/github.com-1ecc6299db9ec823/miniz_oxide-0.4.0/src/deflate/mod.rs"
	.loc	36 110 0
	.cfi_startproc
	pushq	%rbp
	.cfi_def_cfa_offset 16
	.cfi_offset %rbp, -16
	movq	%rsp, %rbp
	.cfi_def_cfa_register %rbp
	pushq	%rbx
	pushq	%rax
	.cfi_offset %rbx, -24
	movq	%rdi, %rbx
Ltmp2614:
	.loc	36 111 5 prologue_end
	xorl	%r8d, %r8d
	callq	__ZN11miniz_oxide7deflate21compress_to_vec_inner17hdef690cb585dc8e4E
Ltmp2615:
	.loc	36 112 2
	movq	%rbx, %rax
	addq	$8, %rsp
	popq	%rbx
	popq	%rbp
	retq
Ltmp2616:
Lfunc_end40:
	.cfi_endproc

	.globl	__ZN11miniz_oxide7deflate20compress_to_vec_zlib17h4e7af41ee892ad78E
	.p2align	4, 0x90
__ZN11miniz_oxide7deflate20compress_to_vec_zlib17h4e7af41ee892ad78E:
Lfunc_begin41:
	.loc	36 116 0
	.cfi_startproc
	pushq	%rbp
	.cfi_def_cfa_offset 16
	.cfi_offset %rbp, -16
	movq	%rsp, %rbp
	.cfi_def_cfa_register %rbp
	pushq	%rbx
	pushq	%rax
	.cfi_offset %rbx, -24
	movq	%rdi, %rbx
Ltmp2617:
	.loc	36 117 5 prologue_end
	movl	$1, %r8d
	callq	__ZN11miniz_oxide7deflate21compress_to_vec_inner17hdef690cb585dc8e4E
Ltmp2618:
	.loc	36 118 2
	movq	%rbx, %rax
	addq	$8, %rsp
	popq	%rbx
	popq	%rbp
	retq
Ltmp2619:
Lfunc_end41:
	.cfi_endproc

	.p2align	4, 0x90
__ZN11miniz_oxide7deflate21compress_to_vec_inner17hdef690cb585dc8e4E:
Lfunc_begin42:
	.loc	36 121 0
	.cfi_startproc
	.cfi_personality 155, _rust_eh_personality
	.cfi_lsda 16, Lexception0
	pushq	%rbp
	.cfi_def_cfa_offset 16
	.cfi_offset %rbp, -16
	movq	%rsp, %rbp
	.cfi_def_cfa_register %rbp
Ltmp2638:
	pushq	%r15
	pushq	%r14
	pushq	%r13
	pushq	%r12
	pushq	%rbx
	movl	$65800, %eax
	callq	___rust_probestack
	subq	%rax, %rsp
	.cfi_offset %rbx, -56
	.cfi_offset %r12, -48
	.cfi_offset %r13, -40
	.cfi_offset %r14, -32
	.cfi_offset %r15, -24
Ltmp2639:
	.loc	18 52 17 prologue_end
	movzbl	%cl, %eax
Ltmp2640:
	.loc	16 2321 23
	cmpb	$10, %al
	movl	$10, %ecx
Ltmp2641:
	cmovbl	%eax, %ecx
	movq	%rdx, %rbx
Ltmp2642:
	.loc	16 0 23 is_stmt 0
	movq	%rsi, -64(%rbp)
Ltmp2643:
	movq	%rdi, %r14
Ltmp2644:
	.loc	16 2326 21 is_stmt 1
	xorl	%edx, %edx
	cmpb	$4, %al
	setb	%dl
	.loc	16 2326 18 is_stmt 0
	shll	$14, %edx
Ltmp2645:
	.loc	16 2331 26 is_stmt 1
	leaq	l___unnamed_9(%rip), %rsi
	orl	(%rsi,%rcx,4), %edx
Ltmp2646:
	.loc	16 2334 9
	movl	%edx, %ecx
Ltmp2647:
	orl	$4096, %ecx
	.loc	16 2333 8
	testl	%r8d, %r8d
	.loc	16 2333 5 is_stmt 0
	cmovlel	%edx, %ecx
Ltmp2648:
	.loc	16 2338 9 is_stmt 1
	movl	%ecx, %esi
	orl	$524288, %esi
	.loc	16 2337 8
	testb	%al, %al
	.loc	16 2337 5 is_stmt 0
	cmovnel	%ecx, %esi
Ltmp2649:
	.loc	16 0 5
	leaq	-65832(%rbp), %rdi
Ltmp2650:
	.loc	36 124 26 is_stmt 1
	callq	__ZN11miniz_oxide7deflate4core15CompressorOxide3new17h30e9e85e12a33aa6E
Ltmp2651:
	.loc	36 0 26 is_stmt 0
	movq	%rbx, -56(%rbp)
Ltmp2652:
	.loc	36 125 47 is_stmt 1
	shrq	%rbx
Ltmp2653:
	.loc	11 1016 9
	cmpq	$2, %rbx
	movl	$2, %r13d
	.loc	11 0 0 is_stmt 0
	cmovaq	%rbx, %r13
Ltmp2654:
	.loc	6 161 14 is_stmt 1
	movl	$1, %esi
	movq	%r13, %rdi
	callq	___rust_alloc_zeroed
Ltmp2655:
	.loc	7 184 17
	testq	%rax, %rax
	je	LBB42_1
Ltmp2656:
	.loc	8 1821 20
	movq	%rax, (%r14)
	movq	%r13, 8(%r14)
	movq	%r13, 16(%r14)
Ltmp2657:
	.loc	16 0 0 is_stmt 0
	leaq	-128(%rbp), %r9
	xorl	%r12d, %r12d
Ltmp2658:
	leaq	-88(%rbp), %rdi
	leaq	-65832(%rbp), %rsi
	leaq	-144(%rbp), %rdx
	xorl	%r15d, %r15d
	movq	%r14, -48(%rbp)
Ltmp2659:
LBB42_8:
	movq	-64(%rbp), %rax
Ltmp2660:
	.loc	31 164 18 is_stmt 1
	leaq	(%rax,%r15), %r8
	movq	-56(%rbp), %rcx
Ltmp2661:
	.loc	20 3154 76
	subq	%r15, %rcx
Ltmp2662:
	.loc	20 0 76 is_stmt 0
	movq	(%r14), %rbx
Ltmp2663:
	.loc	12 165 18 is_stmt 1
	addq	%r12, %rbx
Ltmp2664:
	.loc	20 3161 79
	movq	%r13, %rax
	subq	%r12, %rax
Ltmp2665:
	.loc	16 612 9
	movq	%r8, -144(%rbp)
	movq	%rcx, -136(%rbp)
	movq	$0, 8(%r9)
	movq	$0, (%r9)
	movq	$1, -112(%rbp)
	movq	%rbx, -104(%rbp)
	movq	%rax, -96(%rbp)
Ltmp2620:
	movq	%rdi, %r14
Ltmp2666:
	.loc	16 2186 5
	movl	$4, %ecx
Ltmp2667:
	callq	__ZN11miniz_oxide7deflate4core14compress_inner17h5c332d492e0baa7cE
Ltmp2668:
Ltmp2621:
	.loc	36 137 9
	addq	-72(%rbp), %r12
Ltmp2669:
	jb	LBB42_23
Ltmp2670:
	.loc	36 138 9
	addq	-88(%rbp), %r15
Ltmp2671:
	jb	LBB42_24
Ltmp2672:
	.loc	36 0 0 is_stmt 0
	movl	-80(%rbp), %eax
Ltmp2673:
	.loc	36 141 13 is_stmt 1
	testl	%eax, %eax
	jne	LBB42_12
Ltmp2674:
	.loc	9 3362 17
	movq	%r13, %rax
Ltmp2675:
	subq	%r12, %rax
	movl	$0, %ecx
	cmovaeq	%rax, %rcx
Ltmp2676:
	.loc	36 147 20
	cmpq	$29, %rcx
	.loc	36 147 17 is_stmt 0
	ja	LBB42_20
Ltmp2677:
	.loc	36 148 35 is_stmt 1
	addq	%r13, %r13
	jb	LBB42_25
Ltmp2678:
Ltmp2622:
	.loc	36 0 35 is_stmt 0
	movq	-48(%rbp), %rdi
	.loc	36 148 21
	movq	%r13, %rsi
	callq	__ZN5alloc3vec12Vec$LT$T$GT$6resize17h72f93c8b6eee8e91E
Ltmp2623:
Ltmp2679:
LBB42_20:
	.loc	20 3251 12 is_stmt 1
	cmpq	-56(%rbp), %r15
	.loc	20 3251 9 is_stmt 0
	ja	LBB42_5
Ltmp2680:
	.loc	20 0 9
	movq	-48(%rbp), %rax
Ltmp2681:
	.loc	8 1930 63 is_stmt 1
	movq	16(%rax), %r13
Ltmp2682:
	.loc	20 3259 12
	cmpq	%r12, %r13
	leaq	-128(%rbp), %r9
	movq	%r14, %rdi
	movq	%rax, %r14
	leaq	-65832(%rbp), %rsi
	leaq	-144(%rbp), %rdx
	.loc	20 3259 9 is_stmt 0
	jae	LBB42_8
Ltmp2683:
Ltmp2625:
	.loc	20 3260 13 is_stmt 1
	leaq	l___unnamed_248(%rip), %rdx
	movq	%r12, %rdi
	movq	%r13, %rsi
	callq	__ZN4core5slice26slice_start_index_len_fail17h787e2f1bbfc1d2f3E
Ltmp2626:
	jmp	LBB42_6
Ltmp2684:
LBB42_12:
	.loc	36 141 13
	cmpl	$1, %eax
	jne	LBB42_13
Ltmp2685:
	.loc	8 744 16
	cmpq	%r12, %r13
	movq	-48(%rbp), %rax
Ltmp2686:
	.loc	8 744 13 is_stmt 0
	jb	LBB42_16
Ltmp2687:
	.loc	8 749 13 is_stmt 1
	movq	%r12, 16(%rax)
Ltmp2688:
LBB42_16:
	.loc	5 184 1
	movq	-256(%rbp), %rdi
Ltmp2689:
	.loc	6 102 14
	movl	$85196, %esi
	movl	$1, %edx
	callq	___rust_dealloc
Ltmp2690:
	.loc	5 184 1
	movq	-200(%rbp), %rdi
Ltmp2691:
	.loc	6 102 14
	movl	$4320, %esi
	movl	$2, %edx
	callq	___rust_dealloc
Ltmp2692:
	.loc	5 184 1
	movq	-192(%rbp), %rdi
Ltmp2693:
	.loc	6 102 14
	movl	$164098, %esi
	movl	$2, %edx
	callq	___rust_dealloc
Ltmp2694:
	.loc	36 157 2
	addq	$65800, %rsp
	popq	%rbx
	popq	%r12
	popq	%r13
	popq	%r14
	popq	%r15
	popq	%rbp
	retq
Ltmp2695:
LBB42_23:
Ltmp2635:
	.loc	36 137 9
	leaq	_str.0(%rip), %rdi
	leaq	l___unnamed_249(%rip), %rdx
	movl	$28, %esi
	callq	__ZN4core9panicking5panic17h383a6b80ea7021aaE
Ltmp2636:
	jmp	LBB42_6
Ltmp2696:
LBB42_24:
Ltmp2633:
	.loc	36 138 9
	leaq	_str.0(%rip), %rdi
	leaq	l___unnamed_250(%rip), %rdx
	movl	$28, %esi
	callq	__ZN4core9panicking5panic17h383a6b80ea7021aaE
Ltmp2634:
	jmp	LBB42_6
Ltmp2697:
LBB42_25:
Ltmp2629:
	.loc	36 148 35
	leaq	_str.3(%rip), %rdi
	leaq	l___unnamed_251(%rip), %rdx
	movl	$33, %esi
	callq	__ZN4core9panicking5panic17h383a6b80ea7021aaE
Ltmp2630:
	jmp	LBB42_6
Ltmp2698:
LBB42_5:
Ltmp2627:
	.loc	20 3252 13
	leaq	l___unnamed_252(%rip), %rdx
	movq	%r15, %rdi
	movq	-56(%rbp), %rsi
	callq	__ZN4core5slice26slice_start_index_len_fail17h787e2f1bbfc1d2f3E
Ltmp2628:
	jmp	LBB42_6
Ltmp2699:
LBB42_13:
Ltmp2631:
	.loc	36 152 18
	leaq	l___unnamed_253(%rip), %rdi
	leaq	l___unnamed_254(%rip), %rdx
	movl	$37, %esi
	callq	__ZN4core9panicking5panic17h383a6b80ea7021aaE
Ltmp2700:
Ltmp2632:
LBB42_6:
	.loc	36 0 18 is_stmt 0
	ud2
Ltmp2701:
LBB42_1:
	.loc	7 185 27 is_stmt 1
	movl	$1, %esi
	movq	%r13, %rdi
	callq	__ZN5alloc5alloc18handle_alloc_error17h28974197717b8939E
Ltmp2702:
LBB42_3:
Ltmp2637:
	.loc	7 0 27 is_stmt 0
	jmp	LBB42_4
Ltmp2703:
LBB42_2:
Ltmp2624:
LBB42_4:
	movq	%rax, %rbx
	movq	-48(%rbp), %rdi
	.loc	36 157 1 is_stmt 1
	callq	__ZN4core3ptr13drop_in_place17hf9b9b9babd35bf8bE
	leaq	-65832(%rbp), %rdi
Ltmp2704:
	.loc	36 157 1 is_stmt 0
	callq	__ZN4core3ptr13drop_in_place17hbb32f9741898ae40E
	movq	%rbx, %rdi
	callq	__Unwind_Resume
	ud2
Ltmp2705:
Lfunc_end42:
	.cfi_endproc
	.section	__TEXT,__gcc_except_tab
	.p2align	2
GCC_except_table42:
Lexception0:
	.byte	255
	.byte	255
	.byte	1
	.uleb128 Lcst_end0-Lcst_begin0
Lcst_begin0:
	.uleb128 Lfunc_begin42-Lfunc_begin42
	.uleb128 Ltmp2620-Lfunc_begin42
	.byte	0
	.byte	0
	.uleb128 Ltmp2620-Lfunc_begin42
	.uleb128 Ltmp2623-Ltmp2620
	.uleb128 Ltmp2624-Lfunc_begin42
	.byte	0
	.uleb128 Ltmp2625-Lfunc_begin42
	.uleb128 Ltmp2632-Ltmp2625
	.uleb128 Ltmp2637-Lfunc_begin42
	.byte	0
	.uleb128 Ltmp2632-Lfunc_begin42
	.uleb128 Lfunc_end42-Ltmp2632
	.byte	0
	.byte	0
Lcst_end0:
	.p2align	2

	.section	__TEXT,__text,regular,pure_instructions
	.globl	__ZN11miniz_oxide7inflate4core12HuffmanTable3new17h4ddd28a10fd668e3E
	.p2align	4, 0x90
__ZN11miniz_oxide7inflate4core12HuffmanTable3new17h4ddd28a10fd668e3E:
Lfunc_begin43:
	.file	37 "/Users/yingyuhang/.cargo/registry/src/github.com-1ecc6299db9ec823/miniz_oxide-0.4.0/src/inflate/core.rs"
	.loc	37 29 0 is_stmt 1
	.cfi_startproc
	pushq	%rbp
	.cfi_def_cfa_offset 16
	.cfi_offset %rbp, -16
	movq	%rsp, %rbp
	.cfi_def_cfa_register %rbp
	pushq	%rbx
	pushq	%rax
	.cfi_offset %rbx, -24
	movq	%rdi, %rbx
Ltmp2706:
	.loc	37 32 22 prologue_end
	movl	$2048, %esi
	callq	___bzero
	.loc	37 30 9
	movq	%rbx, %rdi
	addq	$2048, %rdi
	movl	$1440, %esi
	callq	___bzero
	.loc	37 35 6
	movq	%rbx, %rax
	addq	$8, %rsp
	popq	%rbx
	popq	%rbp
	retq
Ltmp2707:
Lfunc_end43:
	.cfi_endproc

	.globl	__ZN11miniz_oxide7inflate4core17DecompressorOxide3new17h0c965d7070802022E
	.p2align	4, 0x90
__ZN11miniz_oxide7inflate4core17DecompressorOxide3new17h0c965d7070802022E:
Lfunc_begin44:
	.loc	37 165 0
	.cfi_startproc
	pushq	%rbp
	.cfi_def_cfa_offset 16
	.cfi_offset %rbp, -16
	movq	%rsp, %rbp
	.cfi_def_cfa_register %rbp
	pushq	%rbx
	pushq	%rax
	.cfi_offset %rbx, -24
	movq	%rdi, %rbx
Ltmp2708:
	.loc	37 191 9 prologue_end
	movl	$10986, %esi
	callq	___bzero
Ltmp2709:
	.loc	37 167 6
	movq	%rbx, %rax
	addq	$8, %rsp
	popq	%rbx
	popq	%rbp
	retq
Ltmp2710:
Lfunc_end44:
	.cfi_endproc

	.globl	__ZN11miniz_oxide7inflate4core5State10is_failure17h167267fd073f5eb5E
	.p2align	4, 0x90
__ZN11miniz_oxide7inflate4core5State10is_failure17h167267fd073f5eb5E:
Lfunc_begin45:
	.loc	37 260 0
	.cfi_startproc
	pushq	%rbp
	.cfi_def_cfa_offset 16
	.cfi_offset %rbp, -16
	movq	%rsp, %rbp
	.cfi_def_cfa_register %rbp
Ltmp2711:
	.loc	37 262 13 prologue_end
	addb	$-25, %dil
Ltmp2712:
	cmpb	$9, %dil
	setb	%al
	popq	%rbp
	retq
Ltmp2713:
Lfunc_end45:
	.cfi_endproc

	.p2align	4, 0x90
__ZN11miniz_oxide7inflate4core9init_tree17hb37c0ae48077ab5aE:
Lfunc_begin46:
	.loc	37 626 0
	.cfi_startproc
	pushq	%rbp
	.cfi_def_cfa_offset 16
	.cfi_offset %rbp, -16
	movq	%rsp, %rbp
	.cfi_def_cfa_register %rbp
	pushq	%r15
	pushq	%r14
	pushq	%r13
	pushq	%r12
	pushq	%rbx
	subq	$200, %rsp
	.cfi_offset %rbx, -56
	.cfi_offset %r12, -48
	.cfi_offset %r13, -40
	.cfi_offset %r14, -32
	.cfi_offset %r15, -24
	movq	%rsi, -56(%rbp)
	movq	%rdi, %r14
Ltmp2714:
	.loc	37 628 35 prologue_end
	movl	28(%rdi), %edi
	cmpq	$2, %rdi
	.loc	37 628 26 is_stmt 0
	ja	LBB46_53
Ltmp2715:
	leaq	3260(%r14), %rax
	movq	%rax, -224(%rbp)
	leaq	60(%r14), %rax
	movq	%rax, -216(%rbp)
Ltmp2716:
	.p2align	4, 0x90
LBB46_2:
	.loc	37 628 21
	imulq	$3488, %rdi, %rax
	movq	%rax, -48(%rbp)
	leaq	60(%r14,%rax), %rbx
Ltmp2717:
	.loc	37 629 26 is_stmt 1
	movl	48(%r14,%rdi,4), %r13d
	xorps	%xmm0, %xmm0
Ltmp2718:
	.loc	37 630 33
	movaps	%xmm0, -80(%rbp)
	movaps	%xmm0, -96(%rbp)
	movaps	%xmm0, -112(%rbp)
	movaps	%xmm0, -128(%rbp)
Ltmp2719:
	.loc	37 631 29
	movaps	%xmm0, -160(%rbp)
	movaps	%xmm0, -176(%rbp)
	movaps	%xmm0, -192(%rbp)
	movaps	%xmm0, -208(%rbp)
	movl	$0, -144(%rbp)
Ltmp2720:
	.loc	37 328 9
	movl	$3200, %esi
	movq	%rbx, %rdi
	callq	___bzero
Ltmp2721:
	.loc	37 629 26
	cmpq	$289, %r13
Ltmp2722:
	.loc	20 3169 16
	jae	LBB46_98
Ltmp2723:
	.loc	20 3440 9
	testl	%r13d, %r13d
	.loc	20 3570 21
	je	LBB46_4
Ltmp2724:
	.loc	20 0 21 is_stmt 0
	movq	-224(%rbp), %rax
	movq	-48(%rbp), %rcx
Ltmp2725:
	.loc	37 636 13 is_stmt 1
	addq	%rcx, %rax
	xorl	%ecx, %ecx
Ltmp2726:
	.p2align	4, 0x90
LBB46_6:
	.loc	37 635 14
	movzbl	(%rax,%rcx), %edi
	cmpq	$15, %rdi
Ltmp2727:
	.loc	37 636 13
	ja	LBB46_54
Ltmp2728:
	movl	-128(%rbp,%rdi,4), %edx
	incl	%edx
	je	LBB46_55
Ltmp2729:
	movl	%edx, -128(%rbp,%rdi,4)
Ltmp2730:
	.loc	20 3440 9
	incq	%rcx
	cmpq	%rcx, %r13
	.loc	20 3570 21
	jne	LBB46_6
Ltmp2731:
	.loc	37 642 29
	movl	-124(%rbp), %eax
	jmp	LBB46_10
Ltmp2732:
	.p2align	4, 0x90
LBB46_4:
	.loc	37 0 29 is_stmt 0
	xorl	%eax, %eax
Ltmp2733:
LBB46_10:
	.loc	37 644 13 is_stmt 1
	leal	(%rax,%rax), %ecx
Ltmp2734:
	.loc	37 645 13
	movl	%ecx, -200(%rbp)
Ltmp2735:
	.loc	37 642 29
	movl	-120(%rbp), %edx
	.loc	37 642 13 is_stmt 0
	addl	%edx, %eax
Ltmp2736:
	jb	LBB46_11
Ltmp2737:
	.loc	37 643 13 is_stmt 1
	addl	%edx, %ecx
Ltmp2738:
	jb	LBB46_56
Ltmp2739:
	.loc	37 644 13
	addl	%ecx, %ecx
Ltmp2740:
	.loc	37 645 13
	movl	%ecx, -196(%rbp)
Ltmp2741:
	.loc	37 642 29
	movl	-116(%rbp), %edx
	.loc	37 642 13 is_stmt 0
	addl	%edx, %eax
Ltmp2742:
	jb	LBB46_11
Ltmp2743:
	.loc	37 643 13 is_stmt 1
	addl	%edx, %ecx
Ltmp2744:
	jb	LBB46_56
Ltmp2745:
	.loc	37 644 13
	addl	%ecx, %ecx
Ltmp2746:
	.loc	37 645 13
	movl	%ecx, -192(%rbp)
Ltmp2747:
	.loc	37 642 29
	movl	-112(%rbp), %edx
	.loc	37 642 13 is_stmt 0
	addl	%edx, %eax
Ltmp2748:
	jb	LBB46_11
Ltmp2749:
	.loc	37 643 13 is_stmt 1
	addl	%edx, %ecx
Ltmp2750:
	jb	LBB46_56
Ltmp2751:
	.loc	37 644 13
	addl	%ecx, %ecx
Ltmp2752:
	.loc	37 645 13
	movl	%ecx, -188(%rbp)
Ltmp2753:
	.loc	37 642 29
	movl	-108(%rbp), %edx
	.loc	37 642 13 is_stmt 0
	addl	%edx, %eax
Ltmp2754:
	jb	LBB46_11
Ltmp2755:
	.loc	37 643 13 is_stmt 1
	addl	%edx, %ecx
Ltmp2756:
	jb	LBB46_56
Ltmp2757:
	.loc	37 644 13
	addl	%ecx, %ecx
Ltmp2758:
	.loc	37 645 13
	movl	%ecx, -184(%rbp)
Ltmp2759:
	.loc	37 642 29
	movl	-104(%rbp), %edx
	.loc	37 642 13 is_stmt 0
	addl	%edx, %eax
Ltmp2760:
	jb	LBB46_11
Ltmp2761:
	.loc	37 643 13 is_stmt 1
	addl	%edx, %ecx
Ltmp2762:
	jb	LBB46_56
Ltmp2763:
	.loc	37 644 13
	addl	%ecx, %ecx
Ltmp2764:
	.loc	37 645 13
	movl	%ecx, -180(%rbp)
Ltmp2765:
	.loc	37 642 29
	movl	-100(%rbp), %edx
	.loc	37 642 13 is_stmt 0
	addl	%edx, %eax
Ltmp2766:
	jb	LBB46_11
Ltmp2767:
	.loc	37 643 13 is_stmt 1
	addl	%edx, %ecx
Ltmp2768:
	jb	LBB46_56
Ltmp2769:
	.loc	37 644 13
	addl	%ecx, %ecx
Ltmp2770:
	.loc	37 645 13
	movl	%ecx, -176(%rbp)
Ltmp2771:
	.loc	37 642 29
	movl	-96(%rbp), %edx
	.loc	37 642 13 is_stmt 0
	addl	%edx, %eax
Ltmp2772:
	jb	LBB46_11
Ltmp2773:
	.loc	37 643 13 is_stmt 1
	addl	%edx, %ecx
Ltmp2774:
	jb	LBB46_56
Ltmp2775:
	.loc	37 644 13
	addl	%ecx, %ecx
Ltmp2776:
	.loc	37 645 13
	movl	%ecx, -172(%rbp)
Ltmp2777:
	.loc	37 642 29
	movl	-92(%rbp), %edx
	.loc	37 642 13 is_stmt 0
	addl	%edx, %eax
Ltmp2778:
	jb	LBB46_11
Ltmp2779:
	.loc	37 643 13 is_stmt 1
	addl	%edx, %ecx
Ltmp2780:
	jb	LBB46_56
Ltmp2781:
	.loc	37 644 13
	addl	%ecx, %ecx
Ltmp2782:
	.loc	37 645 13
	movl	%ecx, -168(%rbp)
Ltmp2783:
	.loc	37 642 29
	movl	-88(%rbp), %edx
	.loc	37 642 13 is_stmt 0
	addl	%edx, %eax
Ltmp2784:
	jb	LBB46_11
Ltmp2785:
	.loc	37 643 13 is_stmt 1
	addl	%edx, %ecx
Ltmp2786:
	jb	LBB46_56
Ltmp2787:
	.loc	37 644 13
	addl	%ecx, %ecx
Ltmp2788:
	.loc	37 645 13
	movl	%ecx, -164(%rbp)
Ltmp2789:
	.loc	37 642 29
	movl	-84(%rbp), %edx
	.loc	37 642 13 is_stmt 0
	addl	%edx, %eax
Ltmp2790:
	jb	LBB46_11
Ltmp2791:
	.loc	37 643 13 is_stmt 1
	addl	%edx, %ecx
Ltmp2792:
	jb	LBB46_56
Ltmp2793:
	.loc	37 644 13
	addl	%ecx, %ecx
Ltmp2794:
	.loc	37 645 13
	movl	%ecx, -160(%rbp)
Ltmp2795:
	.loc	37 642 29
	movl	-80(%rbp), %edx
	.loc	37 642 13 is_stmt 0
	addl	%edx, %eax
Ltmp2796:
	jb	LBB46_11
Ltmp2797:
	.loc	37 643 13 is_stmt 1
	addl	%edx, %ecx
Ltmp2798:
	jb	LBB46_56
Ltmp2799:
	.loc	37 644 13
	addl	%ecx, %ecx
Ltmp2800:
	.loc	37 645 13
	movl	%ecx, -156(%rbp)
Ltmp2801:
	.loc	37 642 29
	movl	-76(%rbp), %edx
	.loc	37 642 13 is_stmt 0
	addl	%edx, %eax
Ltmp2802:
	jb	LBB46_11
Ltmp2803:
	.loc	37 643 13 is_stmt 1
	addl	%edx, %ecx
Ltmp2804:
	jb	LBB46_56
Ltmp2805:
	.loc	37 644 13
	addl	%ecx, %ecx
Ltmp2806:
	.loc	37 645 13
	movl	%ecx, -152(%rbp)
Ltmp2807:
	.loc	37 642 29
	movl	-72(%rbp), %edx
	.loc	37 642 13 is_stmt 0
	addl	%edx, %eax
Ltmp2808:
	jb	LBB46_11
Ltmp2809:
	.loc	37 643 13 is_stmt 1
	addl	%edx, %ecx
Ltmp2810:
	jb	LBB46_56
Ltmp2811:
	.loc	37 644 13
	addl	%ecx, %ecx
Ltmp2812:
	.loc	37 645 13
	movl	%ecx, -148(%rbp)
Ltmp2813:
	.loc	37 642 29
	movl	-68(%rbp), %edx
	.loc	37 642 13 is_stmt 0
	addl	%edx, %eax
Ltmp2814:
	jb	LBB46_11
Ltmp2815:
	.loc	37 643 13 is_stmt 1
	addl	%edx, %ecx
Ltmp2816:
	jb	LBB46_56
Ltmp2817:
	.loc	37 644 13
	addl	%ecx, %ecx
Ltmp2818:
	.loc	37 645 13
	movl	%ecx, -144(%rbp)
Ltmp2819:
	.loc	37 648 12
	cmpl	$65536, %ecx
	.loc	37 648 9 is_stmt 0
	je	LBB46_12
Ltmp2820:
	cmpl	$1, %eax
	ja	LBB46_97
Ltmp2821:
LBB46_12:
	.loc	37 0 9
	movq	%rbx, -232(%rbp)
Ltmp2822:
	.loc	20 3440 9 is_stmt 1
	testl	%r13d, %r13d
Ltmp2823:
	.loc	13 505 9
	je	LBB46_27
Ltmp2824:
	.loc	13 0 9 is_stmt 0
	movq	-216(%rbp), %rax
Ltmp2825:
	movq	-48(%rbp), %rcx
Ltmp2826:
	.loc	13 505 9
	leaq	(%rax,%rcx), %r11
	movw	$-1, %r9w
	xorl	%r10d, %r10d
	jmp	LBB46_14
Ltmp2827:
LBB46_41:
	.loc	37 699 13 is_stmt 1
	movw	%di, 2108(%r8,%rcx,2)
Ltmp2828:
	.p2align	4, 0x90
LBB46_26:
	.loc	11 1136 52
	cmpq	%r13, %r10
	jae	LBB46_27
Ltmp2829:
LBB46_14:
	.loc	11 0 52 is_stmt 0
	movq	%r10, %rdi
Ltmp2830:
	.loc	37 655 29 is_stmt 1
	cmpq	$287, %r10
	ja	LBB46_57
Ltmp2831:
	.loc	37 0 0 is_stmt 0
	leaq	1(%rdi), %r10
Ltmp2832:
	movq	-48(%rbp), %rax
Ltmp2833:
	.loc	37 655 29
	leaq	(%r14,%rax), %r8
	movzbl	3260(%rdi,%r8), %ebx
	testw	%bx, %bx
Ltmp2834:
	.loc	37 656 13 is_stmt 1
	je	LBB46_26
Ltmp2835:
	.loc	37 0 13 is_stmt 0
	movzwl	%bx, %ecx
	.loc	37 660 32 is_stmt 1
	cmpb	$17, %cl
	jae	LBB46_58
Ltmp2836:
	movl	-208(%rbp,%rcx,4), %r15d
Ltmp2837:
	.loc	37 661 13
	movl	%r15d, %edx
	incl	%edx
	je	LBB46_59
Ltmp2838:
	movl	%edx, -208(%rbp,%rcx,4)
Ltmp2839:
	.loc	13 505 9
	leal	-1(%rbx), %edx
	movl	%ecx, %r12d
	andb	$3, %r12b
	xorl	%esi, %esi
	cmpb	$3, %dl
Ltmp2840:
	jae	LBB46_30
Ltmp2841:
	.loc	13 0 9 is_stmt 0
	jmp	LBB46_20
Ltmp2842:
	.p2align	4, 0x90
LBB46_30:
	.loc	13 505 9
	movl	%r12d, %edx
	subb	%bl, %dl
	xorl	%esi, %esi
Ltmp2843:
	.p2align	4, 0x90
LBB46_31:
	.loc	37 664 28 is_stmt 1
	movl	%r15d, %ebx
	andl	$1, %ebx
	shll	$2, %ebx
	leal	(%rbx,%rsi,8), %esi
	.loc	37 664 46 is_stmt 0
	movl	%r15d, %eax
	andl	$2, %eax
	.loc	37 664 17
	orl	%esi, %eax
Ltmp2844:
	.loc	37 665 17 is_stmt 1
	movl	%r15d, %ebx
	shrl	$2, %ebx
Ltmp2845:
	.loc	37 664 46
	andl	$1, %ebx
Ltmp2846:
	.loc	37 664 17 is_stmt 0
	orl	%eax, %ebx
Ltmp2847:
	.loc	37 665 17 is_stmt 1
	movl	%r15d, %eax
	shrl	$3, %eax
Ltmp2848:
	.loc	37 664 46
	andl	$1, %eax
Ltmp2849:
	.loc	37 664 17 is_stmt 0
	leal	(%rax,%rbx,2), %esi
Ltmp2850:
	.loc	37 665 17 is_stmt 1
	shrl	$4, %r15d
Ltmp2851:
	.loc	13 505 9
	addb	$4, %dl
	jne	LBB46_31
Ltmp2852:
LBB46_20:
	testb	%r12b, %r12b
	je	LBB46_22
Ltmp2853:
	.p2align	4, 0x90
LBB46_21:
	.loc	13 0 9 is_stmt 0
	movl	%esi, %ebx
Ltmp2854:
	.loc	37 664 46 is_stmt 1
	movl	%r15d, %edx
	andl	$1, %edx
	.loc	37 664 17 is_stmt 0
	leal	(%rdx,%rbx,2), %esi
Ltmp2855:
	.loc	37 665 17 is_stmt 1
	shrl	%r15d
Ltmp2856:
	.loc	13 505 9
	decb	%r12b
	jne	LBB46_21
Ltmp2857:
LBB46_22:
	.loc	37 668 16
	cmpb	$11, %cl
	.loc	37 668 13 is_stmt 0
	jae	LBB46_32
Ltmp2858:
	.loc	37 670 23 is_stmt 1
	cmpl	$1023, %esi
Ltmp2859:
	.loc	37 670 17 is_stmt 0
	ja	LBB46_26
Ltmp2860:
	.loc	37 0 0
	movl	%ecx, %eax
	shll	$9, %eax
	orl	%eax, %edi
Ltmp2861:
	movl	$1, %eax
	shlq	%cl, %rax
	.loc	37 670 17
	movl	%esi, %ecx
Ltmp2862:
	.p2align	4, 0x90
LBB46_25:
	.loc	37 671 21 is_stmt 1
	movw	%di, (%r11,%rcx,2)
	.loc	37 672 21
	addq	%rax, %rcx
Ltmp2863:
	.loc	37 670 23
	cmpq	$1024, %rcx
	.loc	37 670 17 is_stmt 0
	jb	LBB46_25
	jmp	LBB46_26
Ltmp2864:
LBB46_32:
	.loc	37 677 46 is_stmt 1
	andl	$1023, %esi
Ltmp2865:
	.loc	37 0 46 is_stmt 0
	movq	-232(%rbp), %rdx
Ltmp2866:
	.loc	37 677 32
	movzwl	(%rdx,%rsi,2), %eax
Ltmp2867:
	.loc	37 678 16 is_stmt 1
	testw	%ax, %ax
	.loc	37 678 13 is_stmt 0
	je	LBB46_34
Ltmp2868:
	.loc	37 0 0
	movl	%r9d, %edx
Ltmp2869:
	.loc	37 684 13 is_stmt 1
	shrl	$8, %ebx
	andl	$8388607, %ebx
Ltmp2870:
	.loc	11 1136 52
	cmpb	$12, %cl
Ltmp2871:
	.loc	13 505 9
	jb	LBB46_37
Ltmp2872:
LBB46_42:
	.loc	37 687 17
	addl	$-11, %ecx
	jmp	LBB46_43
Ltmp2873:
	.p2align	4, 0x90
LBB46_47:
	.loc	37 0 0 is_stmt 0
	movl	%edx, %r9d
Ltmp2874:
	movl	%esi, %edx
Ltmp2875:
LBB46_49:
	movl	%edx, %eax
Ltmp2876:
	movl	%r9d, %edx
Ltmp2877:
	.loc	11 1136 52 is_stmt 1
	decb	%cl
Ltmp2878:
	.loc	13 505 9
	je	LBB46_38
Ltmp2879:
LBB46_43:
	.loc	37 686 17
	shrl	%ebx
Ltmp2880:
	.loc	37 687 29
	movl	%ebx, %esi
	andl	$1, %esi
	.loc	37 687 17 is_stmt 0
	subw	%si, %ax
Ltmp2881:
	jo	LBB46_61
Ltmp2882:
	.loc	37 688 32 is_stmt 1
	movzwl	%ax, %esi
	cmpl	$32768, %esi
	je	LBB46_62
Ltmp2883:
	.loc	37 688 31 is_stmt 0
	movl	%esi, %eax
Ltmp2884:
	notl	%eax
	movswq	%ax, %rax
	.loc	37 688 20
	cmpl	$64960, %esi
	jb	LBB46_63
Ltmp2885:
	movzwl	2108(%r8,%rax,2), %esi
	testw	%si, %si
	.loc	37 688 17
	jne	LBB46_47
Ltmp2886:
	.loc	37 0 0
	leaq	2108(%r8,%rax,2), %rax
	.loc	37 689 21 is_stmt 1
	movw	%dx, (%rax)
Ltmp2887:
	.loc	37 691 21
	movl	%edx, %r9d
	addw	$-2, %r9w
	jno	LBB46_49
	jmp	LBB46_64
Ltmp2888:
LBB46_34:
	.loc	37 679 17
	movw	%r9w, (%rdx,%rsi,2)
Ltmp2889:
	.loc	37 681 17
	movl	%r9d, %edx
	addw	$-2, %dx
	jo	LBB46_60
Ltmp2890:
	.loc	37 0 0 is_stmt 0
	movl	%r9d, %eax
Ltmp2891:
	.loc	37 684 13 is_stmt 1
	shrl	$8, %ebx
	andl	$8388607, %ebx
Ltmp2892:
	.loc	11 1136 52
	cmpb	$12, %cl
Ltmp2893:
	.loc	13 505 9
	jae	LBB46_42
Ltmp2894:
LBB46_37:
	.loc	37 0 0 is_stmt 0
	movl	%edx, %r9d
Ltmp2895:
LBB46_38:
	.loc	37 698 25 is_stmt 1
	shrl	%ebx
	andl	$1, %ebx
	.loc	37 698 13 is_stmt 0
	subw	%bx, %ax
Ltmp2896:
	jo	LBB46_65
Ltmp2897:
	.loc	37 699 25 is_stmt 1
	movzwl	%ax, %eax
Ltmp2898:
	cmpl	$32768, %eax
	je	LBB46_66
Ltmp2899:
	.loc	37 699 24 is_stmt 0
	movl	%eax, %ecx
	notl	%ecx
	movswq	%cx, %rcx
	.loc	37 699 13
	cmpl	$64960, %eax
	jae	LBB46_41
	jmp	LBB46_67
Ltmp2900:
	.p2align	4, 0x90
LBB46_27:
	.loc	37 702 12 is_stmt 1
	movl	28(%r14), %edi
	.loc	37 702 9 is_stmt 0
	testl	%edi, %edi
	je	LBB46_50
Ltmp2901:
	cmpl	$2, %edi
	je	LBB46_29
Ltmp2902:
	.loc	37 710 9 is_stmt 1
	decl	%edi
	movl	%edi, 28(%r14)
Ltmp2903:
	.loc	37 628 26
	cmpl	$3, %edi
	jb	LBB46_2
Ltmp2904:
LBB46_53:
	leaq	l___unnamed_255(%rip), %rdx
	movl	$3, %esi
	callq	__ZN4core9panicking18panic_bounds_check17he87128426d100e93E
Ltmp2905:
LBB46_97:
	.loc	37 0 26 is_stmt 0
	movw	$6912, %ax
Ltmp2906:
	jmp	LBB46_51
Ltmp2907:
LBB46_29:
	movq	-56(%rbp), %rax
Ltmp2908:
	.loc	37 703 13 is_stmt 1
	movl	$0, 16(%rax)
	movw	$2560, %ax
	jmp	LBB46_51
Ltmp2909:
LBB46_50:
	.loc	37 0 13 is_stmt 0
	movq	-56(%rbp), %rax
	.loc	37 713 5 is_stmt 1
	movl	$0, 16(%rax)
	movw	$3072, %ax
Ltmp2910:
LBB46_51:
	.loc	37 715 2
	movzwl	%ax, %eax
	orl	$1, %eax
	addq	$200, %rsp
	popq	%rbx
	popq	%r12
	popq	%r13
	popq	%r14
Ltmp2911:
	popq	%r15
	popq	%rbp
	retq
Ltmp2912:
LBB46_54:
	.loc	37 636 13
	leaq	l___unnamed_256(%rip), %rdx
	movl	$16, %esi
	callq	__ZN4core9panicking18panic_bounds_check17he87128426d100e93E
Ltmp2913:
LBB46_55:
	leaq	_str.0(%rip), %rdi
	leaq	l___unnamed_256(%rip), %rdx
	movl	$28, %esi
	callq	__ZN4core9panicking5panic17h383a6b80ea7021aaE
Ltmp2914:
LBB46_57:
	.loc	37 655 29
	leaq	l___unnamed_257(%rip), %rdx
	movl	$288, %esi
	callq	__ZN4core9panicking18panic_bounds_check17he87128426d100e93E
Ltmp2915:
LBB46_11:
	.loc	37 642 13
	leaq	_str.0(%rip), %rdi
	leaq	l___unnamed_258(%rip), %rdx
	movl	$28, %esi
	callq	__ZN4core9panicking5panic17h383a6b80ea7021aaE
Ltmp2916:
LBB46_56:
	.loc	37 643 13
	leaq	_str.0(%rip), %rdi
	leaq	l___unnamed_259(%rip), %rdx
	movl	$28, %esi
	callq	__ZN4core9panicking5panic17h383a6b80ea7021aaE
Ltmp2917:
LBB46_58:
	.loc	37 660 42
	movl	%ecx, %edi
Ltmp2918:
	.loc	37 660 32 is_stmt 0
	leaq	l___unnamed_260(%rip), %rdx
	movl	$17, %esi
	callq	__ZN4core9panicking18panic_bounds_check17he87128426d100e93E
Ltmp2919:
LBB46_59:
	.loc	37 661 13 is_stmt 1
	leaq	_str.0(%rip), %rdi
Ltmp2920:
	leaq	l___unnamed_261(%rip), %rdx
	movl	$28, %esi
	callq	__ZN4core9panicking5panic17h383a6b80ea7021aaE
Ltmp2921:
LBB46_61:
	.loc	37 687 17
	leaq	_str.1(%rip), %rdi
Ltmp2922:
	leaq	l___unnamed_262(%rip), %rdx
Ltmp2923:
	movl	$33, %esi
	callq	__ZN4core9panicking5panic17h383a6b80ea7021aaE
Ltmp2924:
LBB46_62:
	.loc	37 688 32
	leaq	_str.7(%rip), %rdi
Ltmp2925:
	leaq	l___unnamed_263(%rip), %rdx
Ltmp2926:
	movl	$31, %esi
	callq	__ZN4core9panicking5panic17h383a6b80ea7021aaE
Ltmp2927:
LBB46_63:
	.loc	37 688 20 is_stmt 0
	leaq	l___unnamed_264(%rip), %rdx
Ltmp2928:
	movl	$576, %esi
	movq	%rax, %rdi
Ltmp2929:
	callq	__ZN4core9panicking18panic_bounds_check17he87128426d100e93E
Ltmp2930:
LBB46_64:
	.loc	37 691 21 is_stmt 1
	leaq	_str.1(%rip), %rdi
Ltmp2931:
	leaq	l___unnamed_265(%rip), %rdx
Ltmp2932:
	movl	$33, %esi
	callq	__ZN4core9panicking5panic17h383a6b80ea7021aaE
Ltmp2933:
LBB46_60:
	.loc	37 681 17
	leaq	_str.1(%rip), %rdi
Ltmp2934:
	leaq	l___unnamed_266(%rip), %rdx
	movl	$33, %esi
	callq	__ZN4core9panicking5panic17h383a6b80ea7021aaE
Ltmp2935:
LBB46_65:
	.loc	37 698 13
	leaq	_str.1(%rip), %rdi
Ltmp2936:
	leaq	l___unnamed_267(%rip), %rdx
	movl	$33, %esi
	callq	__ZN4core9panicking5panic17h383a6b80ea7021aaE
Ltmp2937:
LBB46_66:
	.loc	37 699 25
	leaq	_str.7(%rip), %rdi
Ltmp2938:
	leaq	l___unnamed_268(%rip), %rdx
	movl	$31, %esi
	callq	__ZN4core9panicking5panic17h383a6b80ea7021aaE
Ltmp2939:
LBB46_67:
	.loc	37 699 13 is_stmt 0
	leaq	l___unnamed_269(%rip), %rdx
	movl	$576, %esi
	movq	%rcx, %rdi
Ltmp2940:
	callq	__ZN4core9panicking18panic_bounds_check17he87128426d100e93E
Ltmp2941:
LBB46_98:
	.loc	20 3170 13 is_stmt 1
	leaq	l___unnamed_270(%rip), %rdx
	movl	$288, %esi
	movq	%r13, %rdi
	callq	__ZN4core5slice24slice_end_index_len_fail17hea9e3399ed430f80E
Ltmp2942:
Lfunc_end46:
	.cfi_endproc

	.p2align	4, 0x90
__ZN11miniz_oxide7inflate4core8transfer17h24817e0682c4eed0E:
Lfunc_begin47:
	.loc	37 746 0
	.cfi_startproc
	pushq	%rbp
	.cfi_def_cfa_offset 16
	.cfi_offset %rbp, -16
	movq	%rsp, %rbp
	.cfi_def_cfa_register %rbp
Ltmp2943:
	.loc	37 753 17 prologue_end
	movq	%r8, %r11
	shrq	$2, %r11
Ltmp2944:
	.loc	13 505 9
	je	LBB47_1
Ltmp2945:
	.p2align	4, 0x90
LBB47_2:
	.loc	37 754 40
	movq	%rdx, %rax
	andq	%r9, %rax
	.loc	37 754 30 is_stmt 0
	cmpq	%rsi, %rax
	jae	LBB47_36
Ltmp2946:
	.loc	37 754 9
	cmpq	%rsi, %rcx
	jae	LBB47_37
Ltmp2947:
	.loc	37 754 30
	movzbl	(%rdi,%rax), %eax
	.loc	37 754 9
	movb	%al, (%rdi,%rcx)
	.loc	37 755 44 is_stmt 1
	movq	%rdx, %rax
	incq	%rax
	je	LBB47_38
Ltmp2948:
	andq	%r9, %rax
	.loc	37 755 34 is_stmt 0
	cmpq	%rsi, %rax
	jae	LBB47_39
Ltmp2949:
	.loc	37 755 9
	leaq	1(%rcx), %r10
	cmpq	%rsi, %r10
	jae	LBB47_40
Ltmp2950:
	.loc	37 755 34
	movzbl	(%rdi,%rax), %eax
	.loc	37 755 9
	movb	%al, 1(%rdi,%rcx)
	.loc	37 756 44 is_stmt 1
	movq	%rdx, %rax
	addq	$2, %rax
	jb	LBB47_41
Ltmp2951:
	andq	%r9, %rax
	.loc	37 756 34 is_stmt 0
	cmpq	%rsi, %rax
	jae	LBB47_42
Ltmp2952:
	.loc	37 756 9
	leaq	2(%rcx), %r10
	cmpq	%rsi, %r10
	jae	LBB47_43
Ltmp2953:
	.loc	37 756 34
	movzbl	(%rdi,%rax), %eax
	.loc	37 756 9
	movb	%al, 2(%rdi,%rcx)
	.loc	37 757 44 is_stmt 1
	movq	%rdx, %rax
	addq	$3, %rax
	jb	LBB47_44
Ltmp2954:
	andq	%r9, %rax
	.loc	37 757 34 is_stmt 0
	cmpq	%rsi, %rax
	jae	LBB47_45
Ltmp2955:
	.loc	37 757 19
	movq	%rcx, %r10
	addq	$3, %r10
	jb	LBB47_46
Ltmp2956:
	.loc	37 757 9
	cmpq	%rsi, %r10
	jae	LBB47_47
Ltmp2957:
	.loc	37 0 0
	movzbl	(%rdi,%rax), %eax
	.loc	37 757 9
	movb	%al, (%rdi,%r10)
	.loc	37 758 9 is_stmt 1
	addq	$4, %rdx
	jb	LBB47_48
Ltmp2958:
	.loc	37 759 9
	addq	$4, %rcx
	jb	LBB47_49
Ltmp2959:
	.loc	11 1136 52
	decq	%r11
Ltmp2960:
	.loc	13 505 9
	jne	LBB47_2
Ltmp2961:
LBB47_1:
	.loc	37 762 11
	andl	$3, %r8d
Ltmp2962:
	.loc	37 0 11 is_stmt 0
	leaq	LJTI47_0(%rip), %r10
	movslq	(%r10,%r8,4), %rax
	addq	%r10, %rax
	jmpq	*%rax
Ltmp2963:
LBB47_17:
	.loc	37 764 45 is_stmt 1
	andq	%r9, %rdx
Ltmp2964:
	.loc	37 764 35 is_stmt 0
	cmpq	%rsi, %rdx
	jae	LBB47_63
Ltmp2965:
	.loc	37 764 14
	cmpq	%rsi, %rcx
	jb	LBB47_34
Ltmp2966:
	leaq	l___unnamed_271(%rip), %rdx
	movq	%rcx, %rdi
Ltmp2967:
	callq	__ZN4core9panicking18panic_bounds_check17he87128426d100e93E
Ltmp2968:
LBB47_20:
	.loc	37 766 44 is_stmt 1
