	.section	__TEXT,__text,regular,pure_instructions
	.macosx_version_min 10, 7
	.p2align	4, 0x90
__ZN42_$LT$$RF$T$u20$as$u20$core..fmt..Debug$GT$3fmt17h030ae25c350c8cd8E:
Lfunc_begin0:
	.file	1 "/rustc/a74d1862d4d87a56244958416fd05976c58ca1a8/src/libcore/fmt/mod.rs"
	.loc	1 1973 0
	.cfi_startproc
	pushq	%rbp
	.cfi_def_cfa_offset 16
	.cfi_offset %rbp, -16
	movq	%rsp, %rbp
	.cfi_def_cfa_register %rbp
Ltmp0:
	pushq	%r14
	pushq	%rbx
	subq	$32, %rsp
	.cfi_offset %rbx, -32
	.cfi_offset %r14, -24
	.loc	1 1973 71 prologue_end
	movq	(%rdi), %rax
Ltmp1:
	.file	2 "/rustc/a74d1862d4d87a56244958416fd05976c58ca1a8/src/libcore/result.rs"
	.loc	2 243 48
	cmpl	$1, (%rax)
	.loc	2 0 0 is_stmt 0
	leaq	4(%rax), %r14
	leaq	-48(%rbp), %rbx
Ltmp2:
	.loc	2 243 48
	jne	LBB0_2
Ltmp3:
	.loc	2 243 48
	leaq	l___unnamed_5(%rip), %rdx
	movl	$3, %ecx
	movq	%rbx, %rdi
Ltmp4:
	callq	__ZN4core3fmt9Formatter11debug_tuple17h15ca25ad759edd1cE
Ltmp5:
	.loc	2 0 48
	leaq	-24(%rbp), %rsi
Ltmp6:
	.loc	2 254 55 is_stmt 1
	movq	%r14, -24(%rbp)
	.loc	2 243 48
	leaq	l___unnamed_1(%rip), %rdx
	jmp	LBB0_3
Ltmp7:
LBB0_2:
	.loc	2 243 48 is_stmt 0
	leaq	l___unnamed_6(%rip), %rdx
	movl	$2, %ecx
	movq	%rbx, %rdi
Ltmp8:
	callq	__ZN4core3fmt9Formatter11debug_tuple17h15ca25ad759edd1cE
Ltmp9:
	.loc	2 0 48
	leaq	-24(%rbp), %rsi
Ltmp10:
	.loc	2 250 54 is_stmt 1
	movq	%r14, -24(%rbp)
	.loc	2 243 48
	leaq	l___unnamed_2(%rip), %rdx
Ltmp11:
LBB0_3:
	.loc	2 0 0 is_stmt 0
	movq	%rbx, %rdi
	callq	__ZN4core3fmt8builders10DebugTuple5field17hf36121153a94f236E
	movq	%rbx, %rdi
	callq	__ZN4core3fmt8builders10DebugTuple6finish17h68acf09c6f6593f2E
Ltmp12:
	.loc	1 1973 84 is_stmt 1
	addq	$32, %rsp
	popq	%rbx
	popq	%r14
	popq	%rbp
	retq
Ltmp13:
Lfunc_end0:
	.cfi_endproc

	.p2align	4, 0x90
__ZN42_$LT$$RF$T$u20$as$u20$core..fmt..Debug$GT$3fmt17h746a44147b4efa2eE:
Lfunc_begin1:
	.loc	1 1973 0
	.cfi_startproc
	pushq	%rbp
	.cfi_def_cfa_offset 16
	.cfi_offset %rbp, -16
	movq	%rsp, %rbp
	.cfi_def_cfa_register %rbp
	pushq	%r14
	pushq	%rbx
	.cfi_offset %rbx, -32
	.cfi_offset %r14, -24
	movq	%rsi, %rbx
Ltmp14:
	.loc	1 1973 71 prologue_end
	movq	(%rdi), %r14
Ltmp15:
	.file	3 "/rustc/a74d1862d4d87a56244958416fd05976c58ca1a8/src/libcore/fmt/num.rs"
	.loc	3 149 20
	movq	%rsi, %rdi
Ltmp16:
	callq	__ZN4core3fmt9Formatter15debug_lower_hex17h8530fbaeba13f4d9E
	.loc	3 149 17 is_stmt 0
	testb	%al, %al
	je	LBB1_1
Ltmp17:
	.loc	3 150 21 is_stmt 1
	movq	%r14, %rdi
	movq	%rbx, %rsi
	popq	%rbx
Ltmp18:
	popq	%r14
Ltmp19:
	popq	%rbp
	jmp	__ZN4core3fmt3num55_$LT$impl$u20$core..fmt..LowerHex$u20$for$u20$usize$GT$3fmt17hbf7dc8c1d7fa021dE
LBB1_1:
Ltmp20:
	.loc	3 151 27
	movq	%rbx, %rdi
	callq	__ZN4core3fmt9Formatter15debug_upper_hex17hf8fda15ec43a1e68E
	.loc	3 154 21
	movq	%r14, %rdi
	movq	%rbx, %rsi
	.loc	3 151 24
	testb	%al, %al
	je	LBB1_4
Ltmp21:
	.loc	3 152 21
	popq	%rbx
Ltmp22:
	popq	%r14
Ltmp23:
	popq	%rbp
	jmp	__ZN4core3fmt3num55_$LT$impl$u20$core..fmt..UpperHex$u20$for$u20$usize$GT$3fmt17hf20a4f369caf234bE
LBB1_4:
Ltmp24:
	.loc	3 154 21
	popq	%rbx
Ltmp25:
	popq	%r14
Ltmp26:
	popq	%rbp
	jmp	__ZN4core3fmt3num3imp54_$LT$impl$u20$core..fmt..Display$u20$for$u20$usize$GT$3fmt17h89ce3155a90f2edfE
Ltmp27:
Lfunc_end1:
	.cfi_endproc

	.p2align	4, 0x90
__ZN42_$LT$$RF$T$u20$as$u20$core..fmt..Debug$GT$3fmt17h84e60ac251eb3b53E:
Lfunc_begin2:
	.loc	1 1973 0
	.cfi_startproc
	pushq	%rbp
	.cfi_def_cfa_offset 16
	.cfi_offset %rbp, -16
	movq	%rsp, %rbp
	.cfi_def_cfa_register %rbp
Ltmp28:
	.loc	1 1973 71 prologue_end
	movq	(%rdi), %rdi
Ltmp29:
	.loc	1 1973 62 is_stmt 0
	popq	%rbp
	jmp	__ZN57_$LT$miniz_oxide..MZError$u20$as$u20$core..fmt..Debug$GT$3fmt17h83d6610ddd5f9eb6E
Ltmp30:
Lfunc_end2:
	.cfi_endproc

	.p2align	4, 0x90
__ZN42_$LT$$RF$T$u20$as$u20$core..fmt..Debug$GT$3fmt17hab2dddcd6ce567b3E:
Lfunc_begin3:
	.loc	1 1973 0 is_stmt 1
	.cfi_startproc
	pushq	%rbp
	.cfi_def_cfa_offset 16
	.cfi_offset %rbp, -16
	movq	%rsp, %rbp
	.cfi_def_cfa_register %rbp
	pushq	%r14
	pushq	%rbx
	.cfi_offset %rbx, -32
	.cfi_offset %r14, -24
	movq	%rsi, %rbx
Ltmp31:
	.loc	1 1973 71 prologue_end
	movq	(%rdi), %r14
Ltmp32:
	.loc	3 149 20
	movq	%rsi, %rdi
Ltmp33:
	callq	__ZN4core3fmt9Formatter15debug_lower_hex17h8530fbaeba13f4d9E
	.loc	3 149 17 is_stmt 0
	testb	%al, %al
	je	LBB3_1
Ltmp34:
	.loc	3 150 21 is_stmt 1
	movq	%r14, %rdi
	movq	%rbx, %rsi
	popq	%rbx
Ltmp35:
	popq	%r14
Ltmp36:
	popq	%rbp
	jmp	__ZN4core3fmt3num53_$LT$impl$u20$core..fmt..LowerHex$u20$for$u20$u32$GT$3fmt17h6f8627d2574097eeE
LBB3_1:
Ltmp37:
	.loc	3 151 27
	movq	%rbx, %rdi
	callq	__ZN4core3fmt9Formatter15debug_upper_hex17hf8fda15ec43a1e68E
	.loc	3 154 21
	movq	%r14, %rdi
	movq	%rbx, %rsi
	.loc	3 151 24
	testb	%al, %al
	je	LBB3_4
Ltmp38:
	.loc	3 152 21
	popq	%rbx
Ltmp39:
	popq	%r14
Ltmp40:
	popq	%rbp
	jmp	__ZN4core3fmt3num53_$LT$impl$u20$core..fmt..UpperHex$u20$for$u20$u32$GT$3fmt17hfea5795b8018329eE
LBB3_4:
Ltmp41:
	.loc	3 154 21
	popq	%rbx
Ltmp42:
	popq	%r14
Ltmp43:
	popq	%rbp
	jmp	__ZN4core3fmt3num3imp52_$LT$impl$u20$core..fmt..Display$u20$for$u20$u32$GT$3fmt17h8cb3163b2d7e102aE
Ltmp44:
Lfunc_end3:
	.cfi_endproc

	.p2align	4, 0x90
__ZN42_$LT$$RF$T$u20$as$u20$core..fmt..Debug$GT$3fmt17hea35af3ece684edbE:
Lfunc_begin4:
	.loc	1 1973 0
	.cfi_startproc
	pushq	%rbp
	.cfi_def_cfa_offset 16
	.cfi_offset %rbp, -16
	movq	%rsp, %rbp
	.cfi_def_cfa_register %rbp
Ltmp45:
	pushq	%rbx
	subq	$24, %rsp
	.cfi_offset %rbx, -24
	.loc	1 1973 71 prologue_end
	movq	(%rdi), %rax
Ltmp46:
	.file	4 "/Users/yingyuhang/.cargo/registry/src/github.com-1ecc6299db9ec823/miniz_oxide-0.4.0/src/lib.rs"
	.loc	4 82 10
	movl	(%rax), %eax
Ltmp47:
	.loc	4 0 10 is_stmt 0
	leaq	-32(%rbp), %rbx
Ltmp48:
	.loc	4 82 10
	testl	%eax, %eax
	je	LBB4_3
Ltmp49:
	cmpl	$1, %eax
	je	LBB4_4
Ltmp50:
	leaq	L___unnamed_7(%rip), %rdx
	movl	$8, %ecx
	jmp	LBB4_5
Ltmp51:
LBB4_3:
	leaq	l___unnamed_6(%rip), %rdx
	movl	$2, %ecx
	jmp	LBB4_5
Ltmp52:
LBB4_4:
	leaq	l___unnamed_8(%rip), %rdx
	movl	$9, %ecx
Ltmp53:
LBB4_5:
	movq	%rbx, %rdi
Ltmp54:
	callq	__ZN4core3fmt9Formatter11debug_tuple17h15ca25ad759edd1cE
Ltmp55:
	.loc	4 0 0
	movq	%rbx, %rdi
	callq	__ZN4core3fmt8builders10DebugTuple6finish17h68acf09c6f6593f2E
Ltmp56:
	.loc	1 1973 84 is_stmt 1
	addq	$24, %rsp
	popq	%rbx
	popq	%rbp
	retq
Ltmp57:
Lfunc_end4:
	.cfi_endproc

	.p2align	4, 0x90
__ZN4core3ptr13drop_in_place17h030e85c29965de37E:
Lfunc_begin5:
	.file	5 "/rustc/a74d1862d4d87a56244958416fd05976c58ca1a8/src/libcore/ptr/mod.rs"
	.loc	5 178 0
	.cfi_startproc
	pushq	%rbp
	.cfi_def_cfa_offset 16
	.cfi_offset %rbp, -16
	movq	%rsp, %rbp
	.cfi_def_cfa_register %rbp
Ltmp58:
	.loc	5 178 1 prologue_end
	popq	%rbp
	retq
Ltmp59:
Lfunc_end5:
	.cfi_endproc

	.p2align	4, 0x90
__ZN4core3ptr13drop_in_place17hdc0fe2d6cb9a8f79E:
Lfunc_begin6:
	.loc	5 178 0
	.cfi_startproc
	pushq	%rbp
	.cfi_def_cfa_offset 16
	.cfi_offset %rbp, -16
	movq	%rsp, %rbp
	.cfi_def_cfa_register %rbp
	movq	%rdi, %rax
Ltmp60:
	.loc	5 178 1 prologue_end
	movq	(%rdi), %rdi
Ltmp61:
	.file	6 "/rustc/a74d1862d4d87a56244958416fd05976c58ca1a8/src/liballoc/raw_vec.rs"
	.loc	6 532 16
	testq	%rdi, %rdi
Ltmp62:
	.loc	6 200 9
	je	LBB6_2
Ltmp63:
	.loc	5 0 0 is_stmt 0
	movq	8(%rax), %rsi
Ltmp64:
	.loc	6 200 9
	testq	%rsi, %rsi
	je	LBB6_2
Ltmp65:
	.file	7 "/rustc/a74d1862d4d87a56244958416fd05976c58ca1a8/src/liballoc/alloc.rs"
	.loc	7 102 5 is_stmt 1
	movl	$1, %edx
	popq	%rbp
	jmp	___rust_dealloc
Ltmp66:
LBB6_2:
	.loc	5 178 1
	popq	%rbp
	retq
Ltmp67:
Lfunc_end6:
	.cfi_endproc

	.p2align	4, 0x90
__ZN4core3ptr13drop_in_place17hdc24caefd2c381f9E:
Lfunc_begin7:
	.loc	5 178 0
	.cfi_startproc
	pushq	%rbp
	.cfi_def_cfa_offset 16
	.cfi_offset %rbp, -16
	movq	%rsp, %rbp
	.cfi_def_cfa_register %rbp
	pushq	%rbx
	pushq	%rax
	.cfi_offset %rbx, -24
	movq	%rdi, %rbx
Ltmp68:
	.loc	5 178 1 prologue_end
	movq	65576(%rdi), %rdi
Ltmp69:
	.loc	7 102 5
	movl	$85196, %esi
	movl	$1, %edx
	callq	___rust_dealloc
Ltmp70:
	.loc	5 178 1
	movq	65632(%rbx), %rdi
Ltmp71:
	.loc	7 102 5
	movl	$4320, %esi
	movl	$2, %edx
	callq	___rust_dealloc
Ltmp72:
	.loc	5 178 1
	movq	65640(%rbx), %rdi
Ltmp73:
	.loc	7 102 5
	movl	$164098, %esi
	movl	$2, %edx
	addq	$8, %rsp
	popq	%rbx
Ltmp74:
	popq	%rbp
	jmp	___rust_dealloc
Ltmp75:
Lfunc_end7:
	.cfi_endproc

	.p2align	4, 0x90
__ZN4core3ptr13drop_in_place17hee66caec15f1d328E:
Lfunc_begin8:
	.loc	5 178 0
	.cfi_startproc
	pushq	%rbp
	.cfi_def_cfa_offset 16
	.cfi_offset %rbp, -16
	movq	%rsp, %rbp
	.cfi_def_cfa_register %rbp
Ltmp76:
	.loc	5 178 1 prologue_end
	movq	(%rdi), %rdi
Ltmp77:
	.loc	7 102 5
	movl	$10992, %esi
	movl	$8, %edx
	popq	%rbp
	jmp	___rust_dealloc
Ltmp78:
Lfunc_end8:
	.cfi_endproc

	.p2align	4, 0x90
__ZN5alloc3vec12Vec$LT$T$GT$6resize17h00e7d23a205a6fe0E:
Lfunc_begin9:
	.file	8 "/rustc/a74d1862d4d87a56244958416fd05976c58ca1a8/src/liballoc/vec.rs"
	.loc	8 1555 0
	.cfi_startproc
	pushq	%rbp
	.cfi_def_cfa_offset 16
	.cfi_offset %rbp, -16
	movq	%rsp, %rbp
	.cfi_def_cfa_register %rbp
	pushq	%r15
	pushq	%r14
	pushq	%r13
	pushq	%r12
	pushq	%rbx
	pushq	%rax
	.cfi_offset %rbx, -56
	.cfi_offset %r12, -48
	.cfi_offset %r13, -40
	.cfi_offset %r14, -32
	.cfi_offset %r15, -24
	movq	%rsi, %r15
Ltmp79:
	movq	%rdi, %r13
Ltmp80:
	.loc	8 1556 19 prologue_end
	movq	16(%rdi), %rbx
Ltmp81:
	.loc	8 1558 12
	cmpq	%rsi, %rbx
	.loc	8 1558 9 is_stmt 0
	jae	LBB9_1
Ltmp82:
	.loc	8 1559 30 is_stmt 1
	movq	%r15, %rcx
	subq	%rbx, %rcx
Ltmp83:
	.loc	6 280 12
	movq	8(%r13), %rsi
Ltmp84:
	.file	9 "/rustc/a74d1862d4d87a56244958416fd05976c58ca1a8/src/libcore/num/mod.rs"
	.loc	9 3343 17
	movq	%rsi, %rax
	subq	%rbx, %rax
Ltmp85:
	.loc	6 378 9
	cmpq	%rcx, %rax
Ltmp86:
	.loc	6 280 9
	jae	LBB9_3
Ltmp87:
	.loc	9 3632 30
	movq	%rbx, %r8
	addq	%rcx, %r8
Ltmp88:
	.file	10 "/rustc/a74d1862d4d87a56244958416fd05976c58ca1a8/src/libcore/option.rs"
	.loc	10 540 13
	jb	LBB9_18
Ltmp89:
	.loc	6 414 26
	leaq	(%rsi,%rsi), %rax
Ltmp90:
	.file	11 "/rustc/a74d1862d4d87a56244958416fd05976c58ca1a8/src/libcore/cmp.rs"
	.loc	11 1017 9
	cmpq	%r8, %rax
	.loc	11 0 0 is_stmt 0
	cmovaq	%rax, %r8
Ltmp91:
	.loc	6 200 40 is_stmt 1
	testq	%rsi, %rsi
	.loc	6 200 9 is_stmt 0
	je	LBB9_11
Ltmp92:
	.loc	6 420 57 is_stmt 1
	movq	(%r13), %r12
Ltmp93:
	.loc	6 489 25
	testq	%r12, %r12
	je	LBB9_11
Ltmp94:
	.loc	7 205 12
	cmpq	%r8, %rsi
	.loc	7 205 9 is_stmt 0
	je	LBB9_15
Ltmp95:
	.loc	7 124 5 is_stmt 1
	movl	$1, %edx
	movq	%r12, %rdi
	movq	%rcx, %r14
Ltmp96:
	movq	%r8, %rcx
Ltmp97:
	.loc	7 0 5 is_stmt 0
	movq	%r8, %r12
Ltmp98:
	.loc	7 124 5
	callq	___rust_realloc
Ltmp99:
	.loc	7 0 5
	jmp	LBB9_14
Ltmp100:
LBB9_1:
	movq	%r15, %r14
Ltmp101:
	jmp	LBB9_22
Ltmp102:
LBB9_3:
	.loc	8 850 19 is_stmt 1
	movq	(%r13), %r12
Ltmp103:
	.loc	8 1679 49
	movq	%rbx, %r14
Ltmp104:
	.file	12 "/rustc/a74d1862d4d87a56244958416fd05976c58ca1a8/src/libcore/ptr/mut_ptr.rs"
	.loc	12 152 9
	leaq	(%r12,%r14), %rdi
Ltmp105:
	.loc	11 1137 52
	cmpq	$2, %rcx
Ltmp106:
	.file	13 "/rustc/a74d1862d4d87a56244958416fd05976c58ca1a8/src/libcore/iter/range.rs"
	.loc	13 211 9
	jb	LBB9_20
Ltmp107:
LBB9_5:
	leaq	-1(%rcx), %rsi
	movq	%rcx, -48(%rbp)
Ltmp108:
	.loc	5 836 42
	callq	___bzero
Ltmp109:
	.loc	13 211 9
	addq	%r14, %r15
Ltmp110:
	notq	%rbx
Ltmp111:
	addq	%r15, %rbx
Ltmp112:
	addq	%rbx, %r12
	movq	-48(%rbp), %rax
	leaq	-1(%rax,%r14), %r14
	movq	%r12, %rdi
	jmp	LBB9_21
Ltmp113:
LBB9_11:
	.loc	7 170 16
	testq	%r8, %r8
	.loc	7 170 13 is_stmt 0
	je	LBB9_12
Ltmp114:
	.loc	7 80 5 is_stmt 1
	movl	$1, %esi
	movq	%r8, %rdi
	movq	%rcx, %r14
Ltmp115:
	.loc	7 0 5 is_stmt 0
	movq	%r8, %r12
Ltmp116:
	.loc	7 80 5
	callq	___rust_alloc
Ltmp117:
LBB9_14:
	.loc	7 0 5
	movq	%r12, %r8
	movq	%r14, %rcx
	movq	%rax, %r12
Ltmp118:
LBB9_15:
	.loc	2 611 13 is_stmt 1
	testq	%r12, %r12
	je	LBB9_19
Ltmp119:
	.loc	8 1679 49
	movq	16(%r13), %r14
	jmp	LBB9_17
Ltmp120:
LBB9_12:
	.loc	8 0 49 is_stmt 0
	movl	$1, %r12d
	.loc	8 1679 49
	movq	%rbx, %r14
Ltmp121:
LBB9_17:
	.loc	6 387 9 is_stmt 1
	movq	%r12, (%r13)
	.loc	6 388 9
	movq	%r8, 8(%r13)
Ltmp122:
	.loc	12 152 9
	leaq	(%r12,%r14), %rdi
Ltmp123:
	.loc	11 1137 52
	cmpq	$2, %rcx
Ltmp124:
	.loc	13 211 9
	jae	LBB9_5
Ltmp125:
LBB9_20:
	.loc	8 1693 16
	testq	%rcx, %rcx
	.loc	8 1693 13 is_stmt 0
	je	LBB9_22
Ltmp126:
LBB9_21:
	.loc	5 836 42 is_stmt 1
	movb	$0, (%rdi)
Ltmp127:
	.loc	8 1722 9
	incq	%r14
Ltmp128:
LBB9_22:
	.loc	8 0 0 is_stmt 0
	movq	%r14, 16(%r13)
Ltmp129:
	.loc	8 1563 6 is_stmt 1
	addq	$8, %rsp
	popq	%rbx
	popq	%r12
	popq	%r13
Ltmp130:
	popq	%r14
	popq	%r15
	popq	%rbp
	retq
Ltmp131:
LBB9_18:
	.loc	6 268 38
	callq	__ZN5alloc7raw_vec17capacity_overflow17h023f34f5bc34c61fE
Ltmp132:
LBB9_19:
	.loc	6 269 47
	movl	$1, %esi
	movq	%r8, %rdi
	callq	__ZN5alloc5alloc18handle_alloc_error17hbc0ab0ed90816c07E
Ltmp133:
Lfunc_end9:
	.cfi_endproc
	.file	14 "/rustc/a74d1862d4d87a56244958416fd05976c58ca1a8/src/libcore/macros/mod.rs"

	.p2align	4, 0x90
__ZN5alloc7raw_vec19RawVec$LT$T$C$A$GT$11allocate_in28_$u7b$$u7b$closure$u7d$$u7d$17hbe9d1e2d3cd4b387E:
Lfunc_begin10:
	.loc	6 152 0
	.cfi_startproc
	pushq	%rbp
	.cfi_def_cfa_offset 16
	.cfi_offset %rbp, -16
	movq	%rsp, %rbp
	.cfi_def_cfa_register %rbp
Ltmp134:
	.loc	6 152 71 prologue_end
	callq	__ZN5alloc5alloc18handle_alloc_error17hbc0ab0ed90816c07E
Ltmp135:
Lfunc_end10:
	.cfi_endproc

	.globl	__ZN84_$LT$miniz_oxide..deflate..buffer..HashBuffers$u20$as$u20$core..default..Default$GT$7default17h16126cda0f576228E
	.p2align	4, 0x90
__ZN84_$LT$miniz_oxide..deflate..buffer..HashBuffers$u20$as$u20$core..default..Default$GT$7default17h16126cda0f576228E:
Lfunc_begin11:
	.file	15 "/Users/yingyuhang/.cargo/registry/src/github.com-1ecc6299db9ec823/miniz_oxide-0.4.0/src/deflate/buffer.rs"
	.loc	15 38 0
	.cfi_startproc
	pushq	%rbp
	.cfi_def_cfa_offset 16
	.cfi_offset %rbp, -16
	movq	%rsp, %rbp
	.cfi_def_cfa_register %rbp
	pushq	%rbx
	pushq	%rax
	.cfi_offset %rbx, -24
	movq	%rdi, %rbx
Ltmp136:
	.loc	15 41 19 prologue_end
	movl	$65536, %esi
	callq	___bzero
	.loc	15 39 9
	movq	%rbx, %rdi
	addq	$65536, %rdi
	movl	$98562, %esi
	callq	___bzero
	.loc	15 44 6
	movq	%rbx, %rax
	addq	$8, %rsp
	popq	%rbx
	popq	%rbp
	retq
Ltmp137:
Lfunc_end11:
	.cfi_endproc

	.globl	__ZN81_$LT$miniz_oxide..deflate..buffer..LocalBuf$u20$as$u20$core..default..Default$GT$7default17h1152059b9d4c7a05E
	.p2align	4, 0x90
__ZN81_$LT$miniz_oxide..deflate..buffer..LocalBuf$u20$as$u20$core..default..Default$GT$7default17h1152059b9d4c7a05E:
Lfunc_begin12:
	.loc	15 52 0
	.cfi_startproc
	pushq	%rbp
	.cfi_def_cfa_offset 16
	.cfi_offset %rbp, -16
	movq	%rsp, %rbp
	.cfi_def_cfa_register %rbp
	pushq	%rbx
	pushq	%rax
	.cfi_offset %rbx, -24
	movq	%rdi, %rbx
Ltmp138:
	.loc	15 54 16 prologue_end
	movl	$85196, %esi
	callq	___bzero
	.loc	15 56 6
	movq	%rbx, %rax
	addq	$8, %rsp
	popq	%rbx
	popq	%rbp
	retq
Ltmp139:
Lfunc_end12:
	.cfi_endproc

	.globl	__ZN106_$LT$miniz_oxide..deflate..core..TDEFLFlush$u20$as$u20$core..convert..From$LT$miniz_oxide..MZFlush$GT$$GT$4from17h9a4cecebc573da7dE
	.p2align	4, 0x90
__ZN106_$LT$miniz_oxide..deflate..core..TDEFLFlush$u20$as$u20$core..convert..From$LT$miniz_oxide..MZFlush$GT$$GT$4from17h9a4cecebc573da7dE:
Lfunc_begin13:
	.file	16 "/Users/yingyuhang/.cargo/registry/src/github.com-1ecc6299db9ec823/miniz_oxide-0.4.0/src/deflate/core.rs"
	.loc	16 225 0
	.cfi_startproc
	pushq	%rbp
	.cfi_def_cfa_offset 16
	.cfi_offset %rbp, -16
	movq	%rsp, %rbp
	.cfi_def_cfa_register %rbp
Ltmp140:
	.loc	16 227 13 prologue_end
	addl	$-2, %edi
Ltmp141:
	cmpl	$2, %edi
	ja	LBB13_2
	addb	$2, %dil
	movl	%edi, %eax
	popq	%rbp
	retq
LBB13_2:
	.loc	16 233 6
	xorl	%eax, %eax
	popq	%rbp
	retq
Ltmp142:
Lfunc_end13:
	.cfi_endproc

	.globl	__ZN11miniz_oxide7deflate4core10TDEFLFlush3new17h5d049ba8f7e644caE
	.p2align	4, 0x90
__ZN11miniz_oxide7deflate4core10TDEFLFlush3new17h5d049ba8f7e644caE:
Lfunc_begin14:
	.loc	16 237 0
	.cfi_startproc
	.loc	16 239 13 prologue_end
	cmpl	$4, %edi
	ja	LBB14_1
Ltmp143:
	pushq	%rbp
	.cfi_def_cfa_offset 16
	.cfi_offset %rbp, -16
	movq	%rsp, %rbp
	.cfi_def_cfa_register %rbp
	movslq	%edi, %rcx
	leaq	l_switch.table._ZN11miniz_oxide7deflate4core10TDEFLFlush3new17h5d049ba8f7e644caE(%rip), %rax
	movq	(%rax,%rcx,8), %rax
	leaq	l_switch.table._ZN11miniz_oxide7deflate4core10TDEFLFlush3new17h5d049ba8f7e644caE.92(%rip), %rdx
	movq	(%rdx,%rcx,8), %rcx
	popq	%rbp
	.loc	16 245 6
	orq	%rcx, %rax
	retq
Ltmp144:
LBB14_1:
	.loc	16 0 6 is_stmt 0
	movl	$1, %ecx
	movabsq	$-42949672960000, %rax
	.loc	16 245 6
	orq	%rcx, %rax
	retq
Ltmp145:
Lfunc_end14:
	.cfi_endproc

	.globl	__ZN11miniz_oxide7deflate4core15CompressorOxide3new17hc5edf7fee0543440E
	.p2align	4, 0x90
__ZN11miniz_oxide7deflate4core15CompressorOxide3new17hc5edf7fee0543440E:
Lfunc_begin15:
	.loc	16 406 0 is_stmt 1
	.cfi_startproc
	pushq	%rbp
	.cfi_def_cfa_offset 16
	.cfi_offset %rbp, -16
	movq	%rsp, %rbp
	.cfi_def_cfa_register %rbp
	pushq	%r15
	pushq	%r14
	pushq	%r13
	pushq	%r12
	pushq	%rbx
	movl	$65608, %eax
	callq	___rust_probestack
	subq	%rax, %rsp
	.cfi_offset %rbx, -56
	.cfi_offset %r12, -48
	.cfi_offset %r13, -40
	.cfi_offset %r14, -32
	.cfi_offset %r15, -24
	movl	%esi, %r13d
Ltmp146:
	movq	%rdi, %r14
	leaq	-65648(%rbp), %rdi
Ltmp147:
	.loc	16 1450 9 prologue_end
	movl	$65536, %esi
	callq	___bzero
Ltmp148:
	.loc	7 80 5
	movl	$85196, %edi
	movl	$1, %esi
	callq	___rust_alloc
Ltmp149:
	.loc	7 269 9
	testq	%rax, %rax
	je	LBB15_4
Ltmp150:
	.file	17 "/rustc/a74d1862d4d87a56244958416fd05976c58ca1a8/src/liballoc/boxed.rs"
	.loc	17 0 0 is_stmt 0
	movq	%rax, %r15
Ltmp151:
	.loc	15 54 16 is_stmt 1
	movl	$85196, %esi
	movq	%rax, %rdi
	callq	___bzero
Ltmp152:
	.loc	16 1391 9
	movl	%r13d, -88(%rbp)
	movl	%r13d, %eax
	shrl	$14, %eax
	andb	$1, %al
	movb	%al, -48(%rbp)
	movw	$0, -47(%rbp)
	movb	$0, -45(%rbp)
	movq	$0, -84(%rbp)
	movq	$0, -76(%rbp)
	movl	$0, -68(%rbp)
	movl	$1, %eax
	movd	%eax, %xmm0
	movdqa	%xmm0, -64(%rbp)
	pxor	%xmm0, %xmm0
	movdqa	%xmm0, -112(%rbp)
	movq	%r15, -96(%rbp)
Ltmp153:
	.loc	7 80 5
	movl	$4320, %edi
	movl	$2, %esi
	callq	___rust_alloc
Ltmp154:
	.loc	7 269 9
	testq	%rax, %rax
	je	LBB15_5
Ltmp155:
	.loc	17 0 0 is_stmt 0
	movq	%rax, %r15
Ltmp156:
	.loc	16 828 9 is_stmt 1
	movl	$4320, %esi
	movq	%rax, %rdi
	callq	___bzero
Ltmp157:
	.loc	7 80 5
	movl	$164098, %edi
	movl	$2, %esi
	callq	___rust_alloc
Ltmp158:
	.loc	7 269 9
	testq	%rax, %rax
	je	LBB15_6
Ltmp159:
	.loc	16 0 0 is_stmt 0
	movq	%rax, %r12
	andl	$4095, %r13d
Ltmp160:
	.loc	16 1189 13 is_stmt 1
	imull	$43691, %r13d, %ebx
	.loc	16 1190 14
	shrl	$2, %r13d
	.loc	16 1190 13 is_stmt 0
	imull	$43691, %r13d, %eax
	addl	$87382, %eax
	shrl	$17, %eax
	.loc	16 1190 9
	incl	%eax
	.loc	16 1192 2 is_stmt 1
	shlq	$32, %rax
	.loc	16 1189 13
	addl	$87382, %ebx
	shrl	$17, %ebx
	.loc	16 1189 9 is_stmt 0
	incl	%ebx
	.loc	16 1192 2 is_stmt 1
	orq	%rax, %rbx
Ltmp161:
	.loc	15 39 9
	movl	$164098, %esi
	movq	%r12, %rdi
	callq	___bzero
	movl	$1, %eax
Ltmp162:
	.loc	16 407 9
	movq	%rax, %xmm0
	movdqu	%xmm0, (%r14)
	movabsq	$34359738368, %rax
	movq	%rax, 16(%r14)
	leaq	24(%r14), %rdi
	leaq	-65648(%rbp), %rsi
	movl	$65536, %edx
	callq	_memcpy
	leaq	65560(%r14), %rdi
	leaq	-112(%rbp), %rsi
	movl	$9, %ecx
	rep;movsq (%rsi), %es:(%rdi)
	movq	%r15, 65632(%r14)
	movq	%r12, 65640(%r14)
	movq	$0, 65648(%r14)
	movq	$0, 65656(%r14)
	movq	$0, 65664(%r14)
	movq	$0, 65672(%r14)
	movq	%rbx, 65680(%r14)
	.loc	16 415 6
	movq	%r14, %rax
	addq	$65608, %rsp
	popq	%rbx
	popq	%r12
	popq	%r13
	popq	%r14
	popq	%r15
	popq	%rbp
	retq
LBB15_4:
Ltmp163:
	.loc	7 270 19
	movl	$85196, %edi
	movl	$1, %esi
	callq	__ZN5alloc5alloc18handle_alloc_error17hbc0ab0ed90816c07E
Ltmp164:
LBB15_5:
	.loc	7 270 19 is_stmt 0
	movl	$4320, %edi
	movl	$2, %esi
	callq	__ZN5alloc5alloc18handle_alloc_error17hbc0ab0ed90816c07E
Ltmp165:
LBB15_6:
	.loc	7 270 19
	movl	$164098, %edi
	movl	$2, %esi
	callq	__ZN5alloc5alloc18handle_alloc_error17hbc0ab0ed90816c07E
Ltmp166:
Lfunc_end15:
	.cfi_endproc

	.globl	__ZN11miniz_oxide7deflate4core15CompressorOxide7adler3217h2bf7ff74ff1c3fe0E
	.p2align	4, 0x90
__ZN11miniz_oxide7deflate4core15CompressorOxide7adler3217h2bf7ff74ff1c3fe0E:
Lfunc_begin16:
	.loc	16 418 0 is_stmt 1
	.cfi_startproc
	pushq	%rbp
	.cfi_def_cfa_offset 16
	.cfi_offset %rbp, -16
	movq	%rsp, %rbp
	.cfi_def_cfa_register %rbp
Ltmp167:
	.loc	16 419 9 prologue_end
	movl	65608(%rdi), %eax
	.loc	16 420 6
	popq	%rbp
	retq
Ltmp168:
Lfunc_end16:
	.cfi_endproc

	.globl	__ZN11miniz_oxide7deflate4core15CompressorOxide18prev_return_status17hf70ef42da8f598f2E
	.p2align	4, 0x90
__ZN11miniz_oxide7deflate4core15CompressorOxide18prev_return_status17hf70ef42da8f598f2E:
Lfunc_begin17:
	.loc	16 424 0
	.cfi_startproc
	pushq	%rbp
	.cfi_def_cfa_offset 16
	.cfi_offset %rbp, -16
	movq	%rsp, %rbp
	.cfi_def_cfa_register %rbp
Ltmp169:
	.loc	16 425 9 prologue_end
	movl	65612(%rdi), %eax
	.loc	16 426 6
	popq	%rbp
	retq
Ltmp170:
Lfunc_end17:
	.cfi_endproc

	.globl	__ZN11miniz_oxide7deflate4core15CompressorOxide5flags17h2edea6b9acab8c81E
	.p2align	4, 0x90
__ZN11miniz_oxide7deflate4core15CompressorOxide5flags17h2edea6b9acab8c81E:
Lfunc_begin18:
	.loc	16 432 0
	.cfi_startproc
	pushq	%rbp
	.cfi_def_cfa_offset 16
	.cfi_offset %rbp, -16
	movq	%rsp, %rbp
	.cfi_def_cfa_register %rbp
Ltmp171:
	.loc	16 433 9 prologue_end
	movl	65584(%rdi), %eax
	.loc	16 434 6
	popq	%rbp
	retq
Ltmp172:
Lfunc_end18:
	.cfi_endproc

	.globl	__ZN11miniz_oxide7deflate4core15CompressorOxide11data_format17hf484854372ae6fdbE
	.p2align	4, 0x90
__ZN11miniz_oxide7deflate4core15CompressorOxide11data_format17hf484854372ae6fdbE:
Lfunc_begin19:
	.loc	16 437 0
	.cfi_startproc
	pushq	%rbp
	.cfi_def_cfa_offset 16
	.cfi_offset %rbp, -16
	movq	%rsp, %rbp
	.cfi_def_cfa_register %rbp
Ltmp173:
	.loc	16 438 12 prologue_end
	testb	$16, 65585(%rdi)
	sete	%al
	.loc	16 443 6
	popq	%rbp
	retq
Ltmp174:
Lfunc_end19:
	.cfi_endproc

	.globl	__ZN11miniz_oxide7deflate4core15CompressorOxide5reset17hb255ad800a6be35aE
	.p2align	4, 0x90
__ZN11miniz_oxide7deflate4core15CompressorOxide5reset17hb255ad800a6be35aE:
Lfunc_begin20:
	.loc	16 448 0
	.cfi_startproc
	pushq	%rbp
	.cfi_def_cfa_offset 16
	.cfi_offset %rbp, -16
	movq	%rsp, %rbp
	.cfi_def_cfa_register %rbp
	pushq	%rbx
	pushq	%rax
	.cfi_offset %rbx, -24
	movq	%rdi, %rbx
Ltmp175:
	movl	$1, %eax
Ltmp176:
	.loc	16 451 9 prologue_end
	movq	%rax, %xmm0
	movdqu	%xmm0, (%rdi)
	movabsq	$34359738368, %rax
	movq	%rax, 16(%rdi)
	addq	$24, %rdi
	movl	$65536, %esi
	callq	___bzero
Ltmp177:
	.loc	16 1422 9
	movw	$0, 65625(%rbx)
	.loc	16 1426 9
	movb	$0, 65627(%rbx)
	.loc	16 1420 9
	movq	$0, 65588(%rbx)
	movq	$0, 65596(%rbx)
	movl	$0, 65604(%rbx)
	movl	$1, %eax
	.loc	16 1427 9
	movd	%eax, %xmm0
	movdqu	%xmm0, 65608(%rbx)
	.loc	16 1429 9
	movq	$0, 65560(%rbx)
	movq	$0, 65568(%rbx)
	.loc	16 1433 9
	movq	65576(%rbx), %rdi
	movl	$85196, %esi
	callq	___bzero
Ltmp178:
	.loc	16 453 9
	movq	65632(%rbx), %rdi
	movl	$4320, %esi
	callq	___bzero
Ltmp179:
	.loc	16 1211 9
	movq	65640(%rbx), %rdi
Ltmp180:
	.loc	15 33 9
	movl	$164098, %esi
	callq	___bzero
Ltmp181:
	.loc	16 1213 9
	movq	$0, 65672(%rbx)
	movq	$0, 65664(%rbx)
	movq	$0, 65656(%rbx)
	movq	$0, 65648(%rbx)
Ltmp182:
	.loc	16 455 6
	addq	$8, %rsp
	popq	%rbx
Ltmp183:
	popq	%rbp
	retq
Ltmp184:
Lfunc_end20:
	.cfi_endproc

	.globl	__ZN11miniz_oxide7deflate4core15CompressorOxide21set_compression_level17h6e8856faa1a4744bE
	.p2align	4, 0x90
__ZN11miniz_oxide7deflate4core15CompressorOxide21set_compression_level17h6e8856faa1a4744bE:
Lfunc_begin21:
	.loc	16 462 0
	.cfi_startproc
	pushq	%rbp
	.cfi_def_cfa_offset 16
	.cfi_offset %rbp, -16
	movq	%rsp, %rbp
	.cfi_def_cfa_register %rbp
	movl	$4096, %r8d
Ltmp185:
	.loc	16 438 12 prologue_end
	andl	65584(%rdi), %r8d
Ltmp186:
	.file	18 "/rustc/a74d1862d4d87a56244958416fd05976c58ca1a8/src/libcore/convert/num.rs"
	.loc	18 51 17
	movzbl	%sil, %ecx
Ltmp187:
	.loc	11 951 9
	cmpl	$10, %ecx
	movl	$10, %edx
	.loc	11 0 0 is_stmt 0
	cmovbl	%ecx, %edx
Ltmp188:
	.loc	16 464 43 is_stmt 1
	xorl	%esi, %esi
Ltmp189:
	cmpb	$4, %cl
	setb	%sil
Ltmp190:
	.loc	16 2326 18
	shll	$14, %esi
Ltmp191:
	.loc	16 2331 26
	leaq	l___unnamed_9(%rip), %rax
	orl	(%rax,%rdx,4), %esi
Ltmp192:
	.loc	16 2333 5
	orl	%r8d, %esi
Ltmp193:
	.loc	16 2338 9
	movl	%esi, %eax
	orl	$524288, %eax
	.loc	16 2337 8
	testb	%cl, %cl
	.loc	16 2337 5 is_stmt 0
	cmovnel	%esi, %eax
Ltmp194:
	.loc	16 1413 9 is_stmt 1
	movl	%eax, 65584(%rdi)
	.loc	16 1414 9
	movl	%eax, %ecx
Ltmp195:
	shrl	$14, %ecx
	andb	$1, %cl
	movb	%cl, 65624(%rdi)
Ltmp196:
	.loc	16 1189 14
	andl	$4095, %eax
Ltmp197:
	.loc	16 1189 13 is_stmt 0
	imull	$43691, %eax, %ecx
	addl	$87382, %ecx
	shrl	$17, %ecx
	.loc	16 1189 9
	incl	%ecx
	.loc	16 1190 14 is_stmt 1
	shrl	$2, %eax
	.loc	16 1190 13 is_stmt 0
	imull	$43691, %eax, %eax
	addl	$87382, %eax
	shrl	$17, %eax
	.loc	16 1190 9
	incl	%eax
	.loc	16 1192 2 is_stmt 1
	shlq	$32, %rax
	orq	%rax, %rcx
Ltmp198:
	.loc	16 1207 9
	movq	%rcx, 65680(%rdi)
Ltmp199:
	.loc	16 465 6
	popq	%rbp
	retq
Ltmp200:
Lfunc_end21:
	.cfi_endproc
	.file	19 "/rustc/a74d1862d4d87a56244958416fd05976c58ca1a8/src/libcore/convert/mod.rs"

	.globl	__ZN11miniz_oxide7deflate4core15CompressorOxide25set_compression_level_raw17hb76afbb61a379059E
	.p2align	4, 0x90
__ZN11miniz_oxide7deflate4core15CompressorOxide25set_compression_level_raw17hb76afbb61a379059E:
Lfunc_begin22:
	.loc	16 472 0
	.cfi_startproc
	pushq	%rbp
	.cfi_def_cfa_offset 16
	.cfi_offset %rbp, -16
	movq	%rsp, %rbp
	.cfi_def_cfa_register %rbp
	movl	$4096, %r8d
Ltmp201:
	.loc	16 438 12 prologue_end
	andl	65584(%rdi), %r8d
Ltmp202:
	.loc	18 51 17
	movzbl	%sil, %ecx
Ltmp203:
	.loc	11 951 9
	cmpb	$10, %cl
	movl	$10, %edx
	.loc	11 0 0 is_stmt 0
	cmovbl	%ecx, %edx
Ltmp204:
	xorl	%esi, %esi
Ltmp205:
	cmpb	$4, %cl
	setb	%sil
Ltmp206:
	.loc	16 2326 18 is_stmt 1
	shll	$14, %esi
Ltmp207:
	.loc	16 2331 26
	leaq	l___unnamed_9(%rip), %rax
	orl	(%rax,%rdx,4), %esi
Ltmp208:
	.loc	16 2333 5
	orl	%r8d, %esi
Ltmp209:
	.loc	16 2338 9
	movl	%esi, %eax
	orl	$524288, %eax
	.loc	16 2337 8
	testb	%cl, %cl
	.loc	16 2337 5 is_stmt 0
	cmovnel	%esi, %eax
Ltmp210:
	.loc	16 1413 9 is_stmt 1
	movl	%eax, 65584(%rdi)
	.loc	16 1414 9
	movl	%eax, %ecx
Ltmp211:
	shrl	$14, %ecx
	andb	$1, %cl
	movb	%cl, 65624(%rdi)
Ltmp212:
	.loc	16 1189 14
	andl	$4095, %eax
Ltmp213:
	.loc	16 1189 13 is_stmt 0
	imull	$43691, %eax, %ecx
	addl	$87382, %ecx
	shrl	$17, %ecx
	.loc	16 1189 9
	incl	%ecx
	.loc	16 1190 14 is_stmt 1
	shrl	$2, %eax
	.loc	16 1190 13 is_stmt 0
	imull	$43691, %eax, %eax
	addl	$87382, %eax
	shrl	$17, %eax
	.loc	16 1190 9
	incl	%eax
	.loc	16 1192 2 is_stmt 1
	shlq	$32, %rax
	orq	%rax, %rcx
Ltmp214:
	.loc	16 1207 9
	movq	%rcx, 65680(%rdi)
Ltmp215:
	.loc	16 475 6
	popq	%rbp
	retq
Ltmp216:
Lfunc_end22:
	.cfi_endproc

	.globl	__ZN11miniz_oxide7deflate4core15CompressorOxide20set_format_and_level17hcdef3f62a8dda922E
	.p2align	4, 0x90
__ZN11miniz_oxide7deflate4core15CompressorOxide20set_format_and_level17hcdef3f62a8dda922E:
Lfunc_begin23:
	.loc	16 486 0
	.cfi_startproc
	pushq	%rbp
	.cfi_def_cfa_offset 16
	.cfi_offset %rbp, -16
	movq	%rsp, %rbp
	.cfi_def_cfa_register %rbp
Ltmp217:
	.loc	18 51 17 prologue_end
	movzbl	%dl, %r8d
Ltmp218:
	.loc	11 951 9
	cmpb	$10, %r8b
	movl	$10, %ecx
	.loc	11 0 0 is_stmt 0
	cmovbl	%r8d, %ecx
Ltmp219:
	xorl	%edx, %edx
Ltmp220:
	cmpb	$4, %r8b
	setb	%dl
Ltmp221:
	.loc	16 2326 18 is_stmt 1
	shll	$14, %edx
Ltmp222:
	.loc	16 2331 26
	leaq	l___unnamed_9(%rip), %rax
	orl	(%rax,%rcx,4), %edx
Ltmp223:
	.loc	16 2334 9
	movl	%edx, %eax
	orl	$4096, %eax
	.loc	16 2333 5
	testl	%esi, %esi
	cmovnel	%edx, %eax
Ltmp224:
	.loc	16 2338 9
	movl	%eax, %ecx
Ltmp225:
	orl	$524288, %ecx
	.loc	16 2337 8
	testb	%r8b, %r8b
	.loc	16 2337 5 is_stmt 0
	cmovnel	%eax, %ecx
Ltmp226:
	.loc	16 1413 9 is_stmt 1
	movl	%ecx, 65584(%rdi)
	.loc	16 1414 9
	movl	%ecx, %eax
	shrl	$14, %eax
	andb	$1, %al
	movb	%al, 65624(%rdi)
Ltmp227:
	.loc	16 1189 14
	andl	$4095, %ecx
Ltmp228:
	.loc	16 1189 13 is_stmt 0
	imull	$43691, %ecx, %eax
	addl	$87382, %eax
	shrl	$17, %eax
	.loc	16 1189 9
	incl	%eax
	.loc	16 1190 14 is_stmt 1
	shrl	$2, %ecx
	.loc	16 1190 13 is_stmt 0
	imull	$43691, %ecx, %ecx
	addl	$87382, %ecx
	shrl	$17, %ecx
	.loc	16 1190 9
	incl	%ecx
	.loc	16 1192 2 is_stmt 1
	shlq	$32, %rcx
	orq	%rcx, %rax
Ltmp229:
	.loc	16 1207 9
	movq	%rax, 65680(%rdi)
Ltmp230:
	.loc	16 494 6
	popq	%rbp
	retq
Ltmp231:
Lfunc_end23:
	.cfi_endproc

	.globl	__ZN11miniz_oxide7deflate4core13CallbackOxide17new_callback_func17h0c064b19bc8890f2E
	.p2align	4, 0x90
__ZN11miniz_oxide7deflate4core13CallbackOxide17new_callback_func17h0c064b19bc8890f2E:
Lfunc_begin24:
	.loc	16 620 0
	.cfi_startproc
	pushq	%rbp
	.cfi_def_cfa_offset 16
	.cfi_offset %rbp, -16
	movq	%rsp, %rbp
	.cfi_def_cfa_register %rbp
	movq	%rdi, %rax
Ltmp232:
	.loc	16 621 9 prologue_end
	movq	%rsi, (%rdi)
	movq	%rdx, 8(%rdi)
	movq	$0, 16(%rdi)
	movq	$0, 24(%rdi)
	movq	$0, 32(%rdi)
	movq	%rcx, 40(%rdi)
	movq	%r8, 48(%rdi)
	.loc	16 627 6
	popq	%rbp
	retq
Ltmp233:
Lfunc_end24:
	.cfi_endproc

	.p2align	4, 0x90
__ZN11miniz_oxide7deflate4core17OutputBufferOxide8put_bits17h1fa9b308dfa5baa6E:
Lfunc_begin25:
	.loc	16 666 0
	.cfi_startproc
	pushq	%rbp
	.cfi_def_cfa_offset 16
	.cfi_offset %rbp, -16
	movq	%rsp, %rbp
	.cfi_def_cfa_register %rbp
Ltmp234:
	.loc	16 667 26 prologue_end
	cmpl	$31, %edx
	ja	LBB25_10
Ltmp235:
	.loc	16 667 17 is_stmt 0
	movl	%esi, %eax
	movl	%edx, %ecx
	shrl	%cl, %eax
	testl	%eax, %eax
	.loc	16 667 9
	jne	LBB25_15
Ltmp236:
	.loc	16 668 36 is_stmt 1
	movl	28(%rdi), %ecx
	.loc	16 668 28 is_stmt 0
	cmpl	$31, %ecx
	ja	LBB25_11
Ltmp237:
	shll	%cl, %esi
Ltmp238:
	.loc	16 668 9
	orl	24(%rdi), %esi
	movl	%esi, 24(%rdi)
	.loc	16 669 9 is_stmt 1
	addl	%ecx, %edx
Ltmp239:
	.loc	16 0 0 is_stmt 0
	movl	%edx, 28(%rdi)
	.loc	16 670 15 is_stmt 1
	cmpl	$8, %edx
	.loc	16 670 9 is_stmt 0
	jb	LBB25_9
Ltmp240:
	.loc	16 671 24 is_stmt 1
	movq	16(%rdi), %rax
Ltmp241:
	.p2align	4, 0x90
LBB25_5:
	.loc	16 671 13 is_stmt 0
	movq	8(%rdi), %rcx
	cmpq	%rcx, %rax
	jae	LBB25_12
Ltmp242:
	movq	(%rdi), %rcx
	movb	%sil, (%rcx,%rax)
	.loc	16 672 13 is_stmt 1
	movq	16(%rdi), %rax
	incq	%rax
	je	LBB25_13
Ltmp243:
	movq	%rax, 16(%rdi)
	.loc	16 673 13
	movl	24(%rdi), %esi
	.loc	16 674 13
	movl	28(%rdi), %ecx
	.loc	16 673 13
	shrl	$8, %esi
	movl	%esi, 24(%rdi)
	.loc	16 674 13
	subl	$8, %ecx
	jb	LBB25_14
Ltmp244:
	.loc	16 0 0 is_stmt 0
	movl	%ecx, 28(%rdi)
	.loc	16 670 15 is_stmt 1
	cmpl	$7, %ecx
	.loc	16 670 9 is_stmt 0
	ja	LBB25_5
Ltmp245:
LBB25_9:
	.loc	16 676 6 is_stmt 1
	popq	%rbp
	retq
Ltmp246:
LBB25_12:
	.loc	16 671 13
	leaq	l___unnamed_10(%rip), %rdx
	movq	%rax, %rdi
Ltmp247:
	movq	%rcx, %rsi
	callq	__ZN4core9panicking18panic_bounds_check17habe69d236c55e3edE
LBB25_13:
Ltmp248:
	.loc	16 672 13
	leaq	_str.0(%rip), %rdi
Ltmp249:
	leaq	l___unnamed_11(%rip), %rdx
	movl	$28, %esi
	callq	__ZN4core9panicking5panic17h736ee47a631475c0E
LBB25_14:
Ltmp250:
	.loc	16 674 13
	leaq	_str.1(%rip), %rdi
Ltmp251:
	leaq	l___unnamed_12(%rip), %rdx
	movl	$33, %esi
	callq	__ZN4core9panicking5panic17h736ee47a631475c0E
LBB25_10:
Ltmp252:
	.loc	16 667 26
	leaq	_str.5(%rip), %rdi
Ltmp253:
	leaq	l___unnamed_13(%rip), %rdx
Ltmp254:
	movl	$35, %esi
Ltmp255:
	callq	__ZN4core9panicking5panic17h736ee47a631475c0E
LBB25_15:
Ltmp256:
	.loc	16 667 9 is_stmt 0
	leaq	l___unnamed_14(%rip), %rdi
Ltmp257:
	leaq	l___unnamed_15(%rip), %rdx
Ltmp258:
	movl	$48, %esi
Ltmp259:
	callq	__ZN4core9panicking5panic17h736ee47a631475c0E
LBB25_11:
Ltmp260:
	.loc	16 668 28 is_stmt 1
	leaq	_str.5(%rip), %rdi
Ltmp261:
	leaq	l___unnamed_16(%rip), %rdx
Ltmp262:
	movl	$35, %esi
Ltmp263:
	callq	__ZN4core9panicking5panic17h736ee47a631475c0E
Ltmp264:
Lfunc_end25:
	.cfi_endproc

	.p2align	4, 0x90
__ZN11miniz_oxide7deflate4core3RLE14prev_code_size17h437cd0f17edb0bfaE:
Lfunc_begin26:
	.loc	16 767 0
	.cfi_startproc
	pushq	%rbp
	.cfi_def_cfa_offset 16
	.cfi_offset %rbp, -16
	movq	%rsp, %rbp
	.cfi_def_cfa_register %rbp
Ltmp265:
	pushq	%r15
	pushq	%r14
	pushq	%rbx
	subq	$184, %rsp
	.cfi_offset %rbx, -40
	.cfi_offset %r14, -32
	.cfi_offset %r15, -24
Ltmp266:
	.loc	16 775 12 prologue_end
	movl	4(%rdi), %eax
	testl	%eax, %eax
	.loc	16 775 9 is_stmt 0
	je	LBB26_10
Ltmp267:
	.loc	16 0 9
	movq	%rdx, %r14
Ltmp268:
	movq	%rdi, %rbx
Ltmp269:
	.loc	16 776 16 is_stmt 1
	cmpl	$3, %eax
	.loc	16 776 13 is_stmt 0
	jae	LBB26_2
Ltmp270:
	.loc	16 778 28 is_stmt 1
	movzbl	8(%rbx), %edx
Ltmp271:
	.loc	16 777 17
	addw	%ax, 1152(%rcx,%rdx,2)
	.loc	16 779 28
	movb	8(%rbx), %al
Ltmp272:
	.loc	16 780 24
	movb	%al, -28(%rbp)
	movb	%al, -27(%rbp)
	movb	%al, -26(%rbp)
	.loc	16 780 45 is_stmt 0
	movl	4(%rbx), %r15d
Ltmp273:
	cmpq	$4, %r15
Ltmp274:
	.file	20 "/rustc/a74d1862d4d87a56244958416fd05976c58ca1a8/src/libcore/slice/mod.rs"
	.loc	20 2918 16 is_stmt 1
	jae	LBB26_22
Ltmp275:
	.loc	16 818 23
	movq	(%r14), %rax
Ltmp276:
	.loc	16 818 33 is_stmt 0
	movq	%rax, %rdx
	addq	%r15, %rdx
	jb	LBB26_18
Ltmp277:
	.loc	20 2897 12 is_stmt 1
	movq	%rdx, %rcx
Ltmp278:
	subq	%rax, %rcx
Ltmp279:
	.loc	16 819 9
	jb	LBB26_19
Ltmp280:
	cmpq	$320, %rdx
	ja	LBB26_19
Ltmp281:
	.loc	20 2302 20
	movq	%rcx, -40(%rbp)
	.loc	20 2302 32 is_stmt 0
	movq	%r15, -48(%rbp)
Ltmp282:
	.loc	14 63 21 is_stmt 1
	cmpq	%r15, %rcx
	.loc	14 63 17 is_stmt 0
	jne	LBB26_23
Ltmp283:
	.loc	20 2897 12 is_stmt 1
	addq	%rax, %rsi
Ltmp284:
	.loc	20 0 12 is_stmt 0
	leaq	-28(%rbp), %rax
Ltmp285:
	.file	21 "/rustc/a74d1862d4d87a56244958416fd05976c58ca1a8/src/libcore/intrinsics.rs"
	.loc	21 2058 5 is_stmt 1
	movq	%rsi, %rdi
	movq	%rax, %rsi
Ltmp286:
	movq	%r15, %rdx
	callq	_memcpy
Ltmp287:
	.loc	16 822 5
	addq	(%r14), %r15
Ltmp288:
	jb	LBB26_24
Ltmp289:
	movq	%r15, (%r14)
	jmp	LBB26_9
Ltmp290:
LBB26_2:
	.loc	16 782 17
	incw	1184(%rcx)
Ltmp291:
	.loc	16 783 30
	movl	4(%rbx), %eax
	.loc	16 783 29 is_stmt 0
	subl	$3, %eax
	jb	LBB26_21
Ltmp292:
	.loc	16 783 24
	movb	$16, -28(%rbp)
	movb	%al, -27(%rbp)
Ltmp293:
	.loc	16 818 23 is_stmt 1
	movq	(%r14), %rax
Ltmp294:
	.loc	16 818 33 is_stmt 0
	movq	%rax, %rdx
	addq	$2, %rdx
	jb	LBB26_18
Ltmp295:
	.loc	20 2897 12 is_stmt 1
	movq	%rdx, %rcx
Ltmp296:
	subq	%rax, %rcx
Ltmp297:
	.loc	16 819 9
	jb	LBB26_19
Ltmp298:
	cmpq	$320, %rdx
	ja	LBB26_19
Ltmp299:
	.loc	20 2302 20
	movq	%rcx, -40(%rbp)
	.loc	20 2302 32 is_stmt 0
	movq	$2, -48(%rbp)
Ltmp300:
	.loc	14 63 21 is_stmt 1
	cmpq	$2, %rcx
	.loc	14 63 17 is_stmt 0
	jne	LBB26_23
Ltmp301:
	.loc	21 2058 5 is_stmt 1
	movzwl	-28(%rbp), %ecx
Ltmp302:
	movw	%cx, (%rsi,%rax)
Ltmp303:
	.loc	16 822 5
	movq	(%r14), %rax
	addq	$2, %rax
	jb	LBB26_24
Ltmp304:
	movq	%rax, (%r14)
Ltmp305:
LBB26_9:
	.loc	16 785 13
	movl	$0, 4(%rbx)
Ltmp306:
LBB26_10:
	.loc	16 0 13 is_stmt 0
	xorl	%eax, %eax
	jmp	LBB26_20
LBB26_19:
Ltmp307:
	movb	$1, %al
Ltmp308:
LBB26_20:
	.loc	16 789 6 is_stmt 1
	addq	$184, %rsp
	popq	%rbx
	popq	%r14
	popq	%r15
	popq	%rbp
	retq
LBB26_18:
Ltmp309:
	.loc	16 0 0 is_stmt 0
	leaq	_str.0(%rip), %rdi
	leaq	l___unnamed_17(%rip), %rdx
	movl	$28, %esi
	callq	__ZN4core9panicking5panic17h736ee47a631475c0E
Ltmp310:
LBB26_22:
	.loc	20 2919 13 is_stmt 1
	leaq	l___unnamed_18(%rip), %rdx
	movl	$3, %esi
	movq	%r15, %rdi
	callq	__ZN4core5slice20slice_index_len_fail17h550a313151a85135E
Ltmp311:
LBB26_21:
	.loc	16 783 29
	leaq	_str.1(%rip), %rdi
	leaq	l___unnamed_19(%rip), %rdx
	movl	$33, %esi
	callq	__ZN4core9panicking5panic17h736ee47a631475c0E
Ltmp312:
LBB26_23:
	.loc	16 0 29 is_stmt 0
	leaq	-40(%rbp), %rax
	movq	%rax, -56(%rbp)
	leaq	-48(%rbp), %rax
	movq	%rax, -64(%rbp)
Ltmp313:
	leaq	l___unnamed_20(%rip), %rax
Ltmp314:
	movq	%rax, -208(%rbp)
	movq	$1, -200(%rbp)
	movq	$0, -192(%rbp)
	leaq	l___unnamed_21(%rip), %rax
Ltmp315:
	movq	%rax, -176(%rbp)
	movq	$0, -168(%rbp)
	leaq	-56(%rbp), %rax
Ltmp316:
	movq	%rax, -112(%rbp)
	leaq	__ZN42_$LT$$RF$T$u20$as$u20$core..fmt..Debug$GT$3fmt17h746a44147b4efa2eE(%rip), %rax
	movq	%rax, -104(%rbp)
	leaq	-64(%rbp), %rcx
	movq	%rcx, -96(%rbp)
	movq	%rax, -88(%rbp)
	leaq	-208(%rbp), %rax
	movq	%rax, -80(%rbp)
	movq	__ZN59_$LT$core..fmt..Arguments$u20$as$u20$core..fmt..Display$GT$3fmt17h58d7abb0506833b1E@GOTPCREL(%rip), %rax
	movq	%rax, -72(%rbp)
Ltmp317:
	leaq	l___unnamed_22(%rip), %rax
Ltmp318:
	movq	%rax, -160(%rbp)
	movq	$3, -152(%rbp)
	movq	$0, -144(%rbp)
	leaq	-112(%rbp), %rax
Ltmp319:
	movq	%rax, -128(%rbp)
	movq	$3, -120(%rbp)
	leaq	l___unnamed_23(%rip), %rsi
	leaq	-160(%rbp), %rdi
	callq	__ZN4core9panicking9panic_fmt17hab6ef1464e9720aaE
Ltmp320:
LBB26_24:
	leaq	_str.0(%rip), %rdi
	leaq	l___unnamed_24(%rip), %rdx
	movl	$28, %esi
	callq	__ZN4core9panicking5panic17h736ee47a631475c0E
Ltmp321:
Lfunc_end26:
	.cfi_endproc

	.p2align	4, 0x90
__ZN11miniz_oxide7deflate4core3RLE14zero_code_size17h211dfedf0cad449eE:
Lfunc_begin27:
	.loc	16 791 0 is_stmt 1
	.cfi_startproc
	pushq	%rbp
	.cfi_def_cfa_offset 16
	.cfi_offset %rbp, -16
	movq	%rsp, %rbp
	.cfi_def_cfa_register %rbp
Ltmp322:
	pushq	%r15
	pushq	%r14
	pushq	%rbx
	subq	$184, %rsp
	.cfi_offset %rbx, -40
	.cfi_offset %r14, -32
	.cfi_offset %r15, -24
Ltmp323:
	.loc	16 799 12 prologue_end
	movl	(%rdi), %eax
	testl	%eax, %eax
	.loc	16 799 9 is_stmt 0
	je	LBB27_12
Ltmp324:
	.loc	16 0 9
	movq	%rdx, %r14
Ltmp325:
	movq	%rdi, %r15
Ltmp326:
	.loc	16 800 16 is_stmt 1
	cmpl	$3, %eax
	.loc	16 800 13 is_stmt 0
	jae	LBB27_2
Ltmp327:
	.loc	16 801 17 is_stmt 1
	addw	%ax, 1152(%rcx)
	.loc	16 802 36
	movl	(%r15), %ebx
Ltmp328:
	cmpq	$4, %rbx
Ltmp329:
	.loc	20 2918 16
	jae	LBB27_29
Ltmp330:
	.loc	16 818 23
	movq	(%r14), %rcx
Ltmp331:
	.loc	16 818 33 is_stmt 0
	movq	%rcx, %rdi
	addq	%rbx, %rdi
	jb	LBB27_22
Ltmp332:
	.loc	20 2897 12 is_stmt 1
	movq	%rdi, %rdx
	movb	$1, %al
	subq	%rcx, %rdx
Ltmp333:
	.loc	16 819 9
	jb	LBB27_24
Ltmp334:
	cmpq	$320, %rdi
	ja	LBB27_24
Ltmp335:
	.loc	20 2302 20
	movq	%rdx, -40(%rbp)
	.loc	20 2302 32 is_stmt 0
	movq	%rbx, -48(%rbp)
Ltmp336:
	.loc	14 63 21 is_stmt 1
	cmpq	%rbx, %rdx
	.loc	14 63 17 is_stmt 0
	jne	LBB27_25
Ltmp337:
	.loc	20 2897 12 is_stmt 1
	addq	%rcx, %rsi
Ltmp338:
	.loc	21 2058 5
	movq	%rsi, %rdi
	movq	%rbx, %rsi
Ltmp339:
	callq	___bzero
Ltmp340:
	.loc	16 822 5
	addq	(%r14), %rbx
Ltmp341:
	jb	LBB27_26
Ltmp342:
	movq	%rbx, (%r14)
	jmp	LBB27_11
Ltmp343:
LBB27_2:
	.loc	16 803 23
	cmpl	$11, %eax
	.loc	16 803 20 is_stmt 0
	jae	LBB27_3
Ltmp344:
	.loc	16 804 17 is_stmt 1
	incw	1186(%rcx)
Ltmp345:
	.loc	16 805 30
	movl	(%r15), %eax
	.loc	16 805 29 is_stmt 0
	subl	$3, %eax
	jb	LBB27_27
Ltmp346:
	.loc	16 805 24
	movb	$17, -26(%rbp)
	jmp	LBB27_5
Ltmp347:
LBB27_3:
	.loc	16 807 17 is_stmt 1
	incw	1188(%rcx)
Ltmp348:
	.loc	16 808 30
	movl	(%r15), %eax
	.loc	16 808 29 is_stmt 0
	subl	$11, %eax
	jb	LBB27_28
Ltmp349:
	.loc	16 808 24
	movb	$18, -26(%rbp)
Ltmp350:
LBB27_5:
	.loc	16 0 0
	movb	%al, -25(%rbp)
Ltmp351:
	movq	(%r14), %rax
Ltmp352:
	movq	%rax, %rdx
	addq	$2, %rdx
	jb	LBB27_22
Ltmp353:
	movq	%rdx, %rcx
Ltmp354:
	subq	%rax, %rcx
	jb	LBB27_23
Ltmp355:
	cmpq	$320, %rdx
	ja	LBB27_23
Ltmp356:
	movq	%rcx, -40(%rbp)
	movq	$2, -48(%rbp)
Ltmp357:
	cmpq	$2, %rcx
	jne	LBB27_25
Ltmp358:
	movzwl	-26(%rbp), %ecx
Ltmp359:
	movw	%cx, (%rsi,%rax)
	movq	(%r14), %rax
Ltmp360:
	addq	$2, %rax
	jb	LBB27_26
Ltmp361:
	movq	%rax, (%r14)
Ltmp362:
LBB27_11:
	.loc	16 810 13 is_stmt 1
	movl	$0, (%r15)
Ltmp363:
LBB27_12:
	.loc	16 0 13 is_stmt 0
	xorl	%eax, %eax
LBB27_24:
	.loc	16 814 6 is_stmt 1
	addq	$184, %rsp
	popq	%rbx
	popq	%r14
	popq	%r15
	popq	%rbp
	retq
LBB27_23:
Ltmp364:
	.loc	16 0 6 is_stmt 0
	movb	$1, %al
Ltmp365:
	jmp	LBB27_24
Ltmp366:
LBB27_22:
	leaq	_str.0(%rip), %rdi
	leaq	l___unnamed_17(%rip), %rdx
	movl	$28, %esi
	callq	__ZN4core9panicking5panic17h736ee47a631475c0E
Ltmp367:
LBB27_29:
	.loc	20 2919 13 is_stmt 1
	leaq	l___unnamed_25(%rip), %rdx
	movl	$3, %esi
	movq	%rbx, %rdi
	callq	__ZN4core5slice20slice_index_len_fail17h550a313151a85135E
Ltmp368:
LBB27_25:
	.loc	20 0 13 is_stmt 0
	leaq	-40(%rbp), %rax
	movq	%rax, -56(%rbp)
	leaq	-48(%rbp), %rax
	movq	%rax, -64(%rbp)
Ltmp369:
	leaq	l___unnamed_20(%rip), %rax
Ltmp370:
	movq	%rax, -208(%rbp)
	movq	$1, -200(%rbp)
	movq	$0, -192(%rbp)
	leaq	l___unnamed_21(%rip), %rax
Ltmp371:
	movq	%rax, -176(%rbp)
	movq	$0, -168(%rbp)
	leaq	-56(%rbp), %rax
Ltmp372:
	movq	%rax, -112(%rbp)
	leaq	__ZN42_$LT$$RF$T$u20$as$u20$core..fmt..Debug$GT$3fmt17h746a44147b4efa2eE(%rip), %rax
	movq	%rax, -104(%rbp)
	leaq	-64(%rbp), %rcx
	movq	%rcx, -96(%rbp)
	movq	%rax, -88(%rbp)
	leaq	-208(%rbp), %rax
	movq	%rax, -80(%rbp)
	movq	__ZN59_$LT$core..fmt..Arguments$u20$as$u20$core..fmt..Display$GT$3fmt17h58d7abb0506833b1E@GOTPCREL(%rip), %rax
	movq	%rax, -72(%rbp)
Ltmp373:
	leaq	l___unnamed_22(%rip), %rax
Ltmp374:
	movq	%rax, -160(%rbp)
	movq	$3, -152(%rbp)
	movq	$0, -144(%rbp)
	leaq	-112(%rbp), %rax
Ltmp375:
	movq	%rax, -128(%rbp)
	movq	$3, -120(%rbp)
	leaq	l___unnamed_23(%rip), %rsi
	leaq	-160(%rbp), %rdi
	callq	__ZN4core9panicking9panic_fmt17hab6ef1464e9720aaE
Ltmp376:
LBB27_26:
	leaq	_str.0(%rip), %rdi
	leaq	l___unnamed_24(%rip), %rdx
	movl	$28, %esi
	callq	__ZN4core9panicking5panic17h736ee47a631475c0E
Ltmp377:
LBB27_27:
	.loc	16 805 29 is_stmt 1
	leaq	_str.1(%rip), %rdi
	leaq	l___unnamed_26(%rip), %rdx
	movl	$33, %esi
	callq	__ZN4core9panicking5panic17h736ee47a631475c0E
Ltmp378:
LBB27_28:
	.loc	16 808 29
	leaq	_str.1(%rip), %rdi
	leaq	l___unnamed_27(%rip), %rdx
	movl	$33, %esi
	callq	__ZN4core9panicking5panic17h736ee47a631475c0E
Ltmp379:
Lfunc_end27:
	.cfi_endproc

	.globl	__ZN83_$LT$miniz_oxide..deflate..core..HuffmanOxide$u20$as$u20$core..default..Default$GT$7default17hc0f19bffc4524f29E
	.p2align	4, 0x90
__ZN83_$LT$miniz_oxide..deflate..core..HuffmanOxide$u20$as$u20$core..default..Default$GT$7default17hc0f19bffc4524f29E:
Lfunc_begin28:
	.loc	16 827 0
	.cfi_startproc
	pushq	%rbp
	.cfi_def_cfa_offset 16
	.cfi_offset %rbp, -16
	movq	%rsp, %rbp
	.cfi_def_cfa_register %rbp
	pushq	%r15
	pushq	%r14
	pushq	%r13
	pushq	%r12
	pushq	%rbx
	movl	$4328, %eax
	callq	___rust_probestack
	subq	%rax, %rsp
	.cfi_offset %rbx, -56
	.cfi_offset %r12, -48
	.cfi_offset %r13, -40
	.cfi_offset %r14, -32
	.cfi_offset %r15, -24
	movq	%rdi, %rbx
	leaq	-1480(%rbp), %r15
	leaq	-2632(%rbp), %r14
	movl	$1152, %esi
	movq	%r14, %rdi
	callq	___bzero
	movl	$576, %esi
	movq	%r15, %rdi
	callq	___bzero
	leaq	-3208(%rbp), %r15
	leaq	-4360(%rbp), %r12
	movl	$1152, %esi
	movq	%r12, %rdi
	callq	___bzero
	movl	$576, %esi
	movq	%r15, %rdi
	callq	___bzero
	leaq	-328(%rbp), %r15
	leaq	-904(%rbp), %r13
	movl	$576, %esi
	movq	%r13, %rdi
	callq	___bzero
	movl	$288, %esi
	movq	%r15, %rdi
	callq	___bzero
Ltmp380:
	.loc	16 828 9 prologue_end
	movl	$1728, %edx
	movq	%rbx, %rdi
	movq	%r14, %rsi
	callq	_memcpy
	leaq	1728(%rbx), %rdi
	movl	$1728, %edx
	movq	%r12, %rsi
	callq	_memcpy
	movq	%rbx, %rdi
	addq	$3456, %rdi
	movl	$864, %edx
	movq	%r13, %rsi
	callq	_memcpy
	.loc	16 833 6
	movq	%rbx, %rax
	addq	$4328, %rsp
	popq	%rbx
	popq	%r12
	popq	%r13
	popq	%r14
	popq	%r15
	popq	%rbp
	retq
Ltmp381:
Lfunc_end28:
	.cfi_endproc

	.p2align	4, 0x90
__ZN11miniz_oxide7deflate4core12HuffmanOxide14optimize_table17hd366e2faee5dbdffE:
Lfunc_begin29:
	.loc	16 956 0
	.cfi_startproc
	pushq	%rbp
	.cfi_def_cfa_offset 16
	.cfi_offset %rbp, -16
	movq	%rsp, %rbp
	.cfi_def_cfa_register %rbp
	pushq	%r15
	pushq	%r14
	pushq	%r13
	pushq	%r12
	pushq	%rbx
	movl	$8760, %eax
	callq	___rust_probestack
	subq	%rax, %rsp
	.cfi_offset %rbx, -56
	.cfi_offset %r12, -48
	.cfi_offset %r13, -40
	.cfi_offset %r14, -32
	.cfi_offset %r15, -24
	movq	%rdx, %r11
Ltmp382:
	movq	%rsi, %r15
Ltmp383:
	movq	%rdi, %r13
Ltmp384:
	.loc	16 963 29 prologue_end
	xorps	%xmm0, %xmm0
	movaps	%xmm0, -96(%rbp)
	movaps	%xmm0, -112(%rbp)
	movaps	%xmm0, -128(%rbp)
	movaps	%xmm0, -144(%rbp)
	movaps	%xmm0, -160(%rbp)
	movaps	%xmm0, -176(%rbp)
	movaps	%xmm0, -192(%rbp)
	movaps	%xmm0, -208(%rbp)
	movl	$0, -80(%rbp)
Ltmp385:
	.loc	16 964 29
	movaps	%xmm0, -240(%rbp)
	movaps	%xmm0, -256(%rbp)
	movaps	%xmm0, -272(%rbp)
	movaps	%xmm0, -288(%rbp)
	movaps	%xmm0, -304(%rbp)
	movaps	%xmm0, -320(%rbp)
	movaps	%xmm0, -336(%rbp)
	movaps	%xmm0, -352(%rbp)
	movl	$0, -224(%rbp)
Ltmp386:
	.loc	16 966 9
	testl	%r8d, %r8d
	je	LBB29_1
Ltmp387:
	.loc	20 2918 19
	cmpq	$289, %r11
	.loc	20 2918 16 is_stmt 0
	jae	LBB29_211
Ltmp388:
	.loc	20 3179 9 is_stmt 1
	testq	%r11, %r11
	.loc	20 3303 21
	je	LBB29_164
Ltmp389:
	.loc	16 968 17
	leaq	(%r15,%r15,8), %rax
	shlq	$5, %rax
	leaq	3456(%rax,%r13), %rax
	xorl	%esi, %esi
Ltmp390:
	.p2align	4, 0x90
LBB29_6:
	.loc	16 967 18
	movzbl	(%rax,%rsi), %edi
	cmpq	$32, %rdi
Ltmp391:
	.loc	16 968 17
	ja	LBB29_186
Ltmp392:
	movl	-208(%rbp,%rdi,4), %edx
	incl	%edx
	jo	LBB29_187
Ltmp393:
	movl	%edx, -208(%rbp,%rdi,4)
Ltmp394:
	.loc	20 3179 9
	incq	%rsi
	cmpq	%rsi, %r11
	.loc	20 3303 21
	jne	LBB29_6
Ltmp395:
LBB29_164:
	.loc	16 1017 9
	movl	$0, -348(%rbp)
Ltmp396:
	.file	22 "/rustc/a74d1862d4d87a56244958416fd05976c58ca1a8/src/libcore/ops/range.rs"
	.loc	22 508 9
	cmpq	$2, %rcx
Ltmp397:
	.loc	13 343 9
	jae	LBB29_165
	jmp	LBB29_171
Ltmp398:
LBB29_1:
	.loc	13 0 9 is_stmt 0
	movq	%rcx, -48(%rbp)
Ltmp399:
	leaq	-1504(%rbp), %r14
	movl	$1152, %esi
	movq	%r14, %rdi
	movq	%r11, -64(%rbp)
Ltmp400:
	callq	___bzero
Ltmp401:
	leaq	-4704(%rbp), %r12
	movl	$1152, %esi
	movq	%r12, %rdi
	callq	___bzero
	movq	-64(%rbp), %rsi
Ltmp402:
	.loc	11 1137 52 is_stmt 1
	testq	%rsi, %rsi
	movq	%r15, -56(%rbp)
Ltmp403:
	.loc	13 211 9
	je	LBB29_2
Ltmp404:
	leaq	(%r15,%r15,8), %rax
	shlq	$6, %rax
	addq	%r13, %rax
	xorl	%r15d, %r15d
Ltmp405:
	.loc	13 0 9 is_stmt 0
	xorl	%ecx, %ecx
Ltmp406:
	.loc	16 982 20 is_stmt 1
	cmpq	$288, %rcx
	jne	LBB29_110
	jmp	LBB29_188
Ltmp407:
	.p2align	4, 0x90
LBB29_112:
	.loc	16 983 21
	movw	%dx, -1504(%rbp,%r15,4)
	movw	%cx, -1502(%rbp,%r15,4)
	.loc	16 987 21
	incq	%r15
Ltmp408:
LBB29_113:
	.loc	16 0 0 is_stmt 0
	incq	%rcx
Ltmp409:
	.loc	11 1137 52 is_stmt 1
	cmpq	%rcx, %rsi
Ltmp410:
	.loc	13 211 9
	je	LBB29_9
Ltmp411:
	.loc	16 982 20
	cmpq	$288, %rcx
	je	LBB29_188
Ltmp412:
LBB29_110:
	movzwl	(%rax,%rcx,2), %edx
	testw	%dx, %dx
	.loc	16 982 17 is_stmt 0
	je	LBB29_113
Ltmp413:
	.loc	16 983 21 is_stmt 1
	cmpq	$287, %r15
	jbe	LBB29_112
Ltmp414:
	leaq	l___unnamed_28(%rip), %rdx
	movl	$288, %esi
Ltmp415:
	movq	%r15, %rdi
	callq	__ZN4core9panicking18panic_bounds_check17habe69d236c55e3edE
Ltmp416:
LBB29_9:
	.loc	20 2928 19
	cmpq	$289, %r15
	.loc	20 2928 16 is_stmt 0
	jae	LBB29_212
Ltmp417:
	.loc	20 0 16
	leaq	-8800(%rbp), %rdi
	movl	$4096, %esi
Ltmp418:
	callq	___bzero
Ltmp419:
	.loc	20 3179 9 is_stmt 1
	testq	%r15, %r15
	.loc	20 3303 21
	je	LBB29_11
Ltmp420:
	.loc	16 844 13
	leaq	(,%r15,4), %rax
	xorl	%ecx, %ecx
Ltmp421:
	.p2align	4, 0x90
LBB29_37:
	.loc	16 844 22 is_stmt 0
	movzbl	-1504(%rbp,%rcx), %edx
	.loc	16 844 13
	movq	-8800(%rbp,%rdx,8), %rsi
	incq	%rsi
	je	LBB29_38
Ltmp422:
	movq	%rsi, -8800(%rbp,%rdx,8)
	.loc	16 845 23 is_stmt 1
	movzwl	-1504(%rbp,%rcx), %edx
	.loc	16 845 22 is_stmt 0
	shrq	$8, %rdx
	.loc	16 845 13
	movq	-6752(%rbp,%rdx,8), %rsi
	incq	%rsi
	je	LBB29_39
Ltmp423:
	movq	%rsi, -6752(%rbp,%rdx,8)
Ltmp424:
	.loc	20 3179 9 is_stmt 1
	addq	$4, %rcx
	cmpq	%rcx, %rax
	.loc	20 3303 21
	jne	LBB29_37
Ltmp425:
	.loc	16 849 30
	movq	-6752(%rbp), %rbx
	jmp	LBB29_13
Ltmp426:
LBB29_2:
	.loc	16 0 30 is_stmt 0
	leaq	-8800(%rbp), %rdi
	movl	$4096, %esi
Ltmp427:
	callq	___bzero
Ltmp428:
LBB29_11:
	xorl	%r15d, %r15d
	.loc	16 849 30
	xorl	%ebx, %ebx
Ltmp429:
LBB29_13:
	.loc	16 0 30
	leaq	-3552(%rbp), %rdi
Ltmp430:
	.loc	16 857 31 is_stmt 1
	movl	$2048, %esi
	callq	___bzero
	xorl	%eax, %eax
Ltmp431:
	.loc	16 0 31 is_stmt 0
	xorl	%ecx, %ecx
	movq	-48(%rbp), %r9
Ltmp432:
	.p2align	4, 0x90
LBB29_14:
	.loc	16 860 17 is_stmt 1
	movq	%rax, -3552(%rbp,%rcx,8)
	.loc	16 861 17
	addq	-8800(%rbp,%rcx,8), %rax
Ltmp433:
	jb	LBB29_16
Ltmp434:
	.loc	16 860 17
	movq	%rax, -3544(%rbp,%rcx,8)
	.loc	16 861 17
	addq	-8792(%rbp,%rcx,8), %rax
Ltmp435:
	jb	LBB29_16
Ltmp436:
	.loc	16 0 0 is_stmt 0
	addq	$2, %rcx
Ltmp437:
	.loc	11 1137 52 is_stmt 1
	cmpq	$256, %rcx
Ltmp438:
	.loc	13 211 9
	jne	LBB29_14
Ltmp439:
	.loc	20 3179 9
	testq	%r15, %r15
	.loc	20 3303 21
	je	LBB29_25
Ltmp440:
	.loc	20 0 21 is_stmt 0
	leaq	-1504(%rbp,%r15,4), %rax
Ltmp441:
	.p2align	4, 0x90
LBB29_22:
	.loc	16 866 43 is_stmt 1
	movzwl	(%r14), %edx
Ltmp442:
	.loc	16 865 25
	movzbl	%dl, %ecx
Ltmp443:
	.loc	16 866 29
	movq	-3552(%rbp,%rcx,8), %rdi
	.loc	16 866 17 is_stmt 0
	cmpq	%r15, %rdi
	jae	LBB29_216
Ltmp444:
	.loc	16 866 43
	movzwl	2(%r14), %esi
	.loc	16 866 17
	movw	%dx, -4704(%rbp,%rdi,4)
	movw	%si, -4702(%rbp,%rdi,4)
	.loc	16 867 17 is_stmt 1
	movq	-3552(%rbp,%rcx,8), %rdx
Ltmp445:
	incq	%rdx
	je	LBB29_40
Ltmp446:
	movq	%rdx, -3552(%rbp,%rcx,8)
Ltmp447:
	.loc	20 3179 9
	addq	$4, %r14
Ltmp448:
	cmpq	%rax, %r14
	.loc	20 3303 21
	jne	LBB29_22
Ltmp449:
LBB29_25:
	.loc	16 849 12
	cmpq	%r15, %rbx
Ltmp450:
	.loc	13 211 9
	je	LBB29_26
Ltmp451:
	.loc	13 0 9 is_stmt 0
	leaq	-3552(%rbp), %rdi
Ltmp452:
	.loc	16 857 31 is_stmt 1
	movl	$2048, %esi
	callq	___bzero
	movq	-48(%rbp), %r9
	xorl	%eax, %eax
Ltmp453:
	.loc	16 0 31 is_stmt 0
	xorl	%ecx, %ecx
Ltmp454:
	.p2align	4, 0x90
LBB29_202:
	.loc	16 860 17 is_stmt 1
	movq	%rax, -3552(%rbp,%rcx,8)
	.loc	16 861 17
	addq	-6752(%rbp,%rcx,8), %rax
Ltmp455:
	jb	LBB29_16
Ltmp456:
	.loc	16 860 17
	movq	%rax, -3544(%rbp,%rcx,8)
	.loc	16 861 17
	addq	-6744(%rbp,%rcx,8), %rax
Ltmp457:
	jb	LBB29_16
Ltmp458:
	.loc	16 0 0 is_stmt 0
	addq	$2, %rcx
Ltmp459:
	.loc	11 1137 52 is_stmt 1
	cmpq	$256, %rcx
Ltmp460:
	.loc	13 211 9
	jne	LBB29_202
Ltmp461:
	.loc	20 3179 9
	testq	%r15, %r15
	.loc	20 3303 21
	je	LBB29_210
Ltmp462:
	.loc	20 0 21 is_stmt 0
	leaq	-4704(%rbp,%r15,4), %rax
Ltmp463:
	leaq	-4704(%rbp), %rcx
Ltmp464:
	.p2align	4, 0x90
LBB29_207:
	.loc	16 866 43 is_stmt 1
	movzwl	(%rcx), %esi
Ltmp465:
	.loc	16 865 26
	movq	%rsi, %rdx
	shrq	$8, %rdx
Ltmp466:
	.loc	16 866 29
	movq	-3552(%rbp,%rdx,8), %rdi
	.loc	16 866 17 is_stmt 0
	cmpq	%r15, %rdi
	jae	LBB29_216
Ltmp467:
	.loc	16 866 43
	movzwl	2(%rcx), %ebx
	.loc	16 866 17
	movw	%si, -1504(%rbp,%rdi,4)
	movw	%bx, -1502(%rbp,%rdi,4)
	.loc	16 867 17 is_stmt 1
	movq	-3552(%rbp,%rdx,8), %rsi
	incq	%rsi
	je	LBB29_40
Ltmp468:
	movq	%rsi, -3552(%rbp,%rdx,8)
Ltmp469:
	.loc	20 3179 9
	addq	$4, %rcx
Ltmp470:
	cmpq	%rax, %rcx
	.loc	20 3303 21
	jne	LBB29_207
Ltmp471:
LBB29_210:
	.loc	20 0 21 is_stmt 0
	leaq	-1504(%rbp), %r12
Ltmp472:
LBB29_26:
	.loc	16 878 13 is_stmt 1
	testq	%r15, %r15
	je	LBB29_29
Ltmp473:
	cmpq	$1, %r15
	jne	LBB29_41
Ltmp474:
	.loc	16 879 18
	movw	$1, (%r12)
Ltmp475:
	.loc	20 3179 9
	testq	%r15, %r15
	.loc	20 3303 21
	jne	LBB29_30
	jmp	LBB29_32
Ltmp476:
LBB29_41:
	.loc	16 881 17
	movzwl	(%r12), %eax
	addw	4(%r12), %ax
	jb	LBB29_88
Ltmp477:
	movw	%ax, (%r12)
Ltmp478:
	.loc	16 884 32
	leaq	-1(%r15), %rdx
Ltmp479:
	.loc	11 1137 52
	cmpq	$2, %rdx
Ltmp480:
	.loc	13 211 9
	jb	LBB29_62
Ltmp481:
	.loc	13 0 9 is_stmt 0
	movl	$2, %ecx
Ltmp482:
	.loc	16 885 24 is_stmt 1
	movl	$2, %esi
	subq	%r15, %rsi
	movl	$1, %edi
	xorl	%eax, %eax
Ltmp483:
	cmpq	%r15, %rcx
	jae	LBB29_47
	jmp	LBB29_45
Ltmp484:
	.p2align	4, 0x90
LBB29_60:
	.loc	16 895 76
	movzwl	(%r12,%rax,4), %ebx
Ltmp485:
	.loc	16 895 25 is_stmt 0
	addw	%bx, (%r12,%rdi,4)
	.loc	16 896 25 is_stmt 1
	movw	%di, (%r12,%rax,4)
	.loc	16 897 25
	incq	%rax
Ltmp486:
	.loc	16 0 0 is_stmt 0
	incq	%rdi
Ltmp487:
	.loc	11 1137 52 is_stmt 1
	leaq	(%rsi,%rdi), %rbx
Ltmp488:
	cmpq	$1, %rbx
Ltmp489:
	.loc	13 211 9
	je	LBB29_62
Ltmp490:
LBB29_44:
	.loc	16 885 24
	cmpq	%r15, %rcx
	jae	LBB29_47
Ltmp491:
LBB29_45:
	.loc	16 885 40 is_stmt 0
	cmpq	%r15, %rax
	jae	LBB29_89
Ltmp492:
	.loc	16 885 60
	movzwl	(%r12,%rcx,4), %ebx
	.loc	16 885 39
	cmpw	%bx, (%r12,%rax,4)
	.loc	16 885 24
	jae	LBB29_50
Ltmp493:
LBB29_47:
	.loc	16 886 45 is_stmt 1
	cmpq	%r15, %rax
	jae	LBB29_91
Ltmp494:
	.loc	16 886 25 is_stmt 0
	cmpq	%r15, %rdi
	jae	LBB29_92
Ltmp495:
	.loc	16 886 45
	movzwl	(%r12,%rax,4), %ebx
	.loc	16 886 25
	movw	%bx, (%r12,%rdi,4)
	.loc	16 887 25 is_stmt 1
	movw	%di, (%r12,%rax,4)
	.loc	16 888 25
	incq	%rax
Ltmp496:
	.loc	16 894 24
	cmpq	%r15, %rcx
	jae	LBB29_58
Ltmp497:
LBB29_53:
	.loc	16 894 40 is_stmt 0
	cmpq	%rdi, %rax
	.loc	16 894 39
	jae	LBB29_56
Ltmp498:
	.loc	16 894 55
	cmpq	%r15, %rax
	jae	LBB29_94
Ltmp499:
	movzwl	(%r12,%rax,4), %ebx
	cmpw	(%r12,%rcx,4), %bx
	.loc	16 894 39
	jb	LBB29_58
Ltmp500:
LBB29_56:
	.loc	16 0 0
	cmpq	%r15, %rdi
	.loc	16 899 45 is_stmt 1
	jae	LBB29_97
Ltmp501:
	.loc	16 899 76 is_stmt 0
	movzwl	(%r12,%rcx,4), %ebx
Ltmp502:
	.loc	16 899 25
	addw	%bx, (%r12,%rdi,4)
	.loc	16 900 25 is_stmt 1
	incq	%rcx
Ltmp503:
	.loc	16 0 0 is_stmt 0
	incq	%rdi
Ltmp504:
	.loc	11 1137 52 is_stmt 1
	leaq	(%rsi,%rdi), %rbx
Ltmp505:
	cmpq	$1, %rbx
Ltmp506:
	.loc	13 211 9
	jne	LBB29_44
	jmp	LBB29_62
Ltmp507:
	.p2align	4, 0x90
LBB29_50:
	.loc	16 890 25
	cmpq	%r15, %rdi
	jae	LBB29_93
Ltmp508:
	movw	%bx, (%r12,%rdi,4)
	.loc	16 891 25
	incq	%rcx
Ltmp509:
	.loc	16 894 24
	cmpq	%r15, %rcx
	jb	LBB29_53
Ltmp510:
	.p2align	4, 0x90
LBB29_58:
	.loc	16 0 0 is_stmt 0
	cmpq	%r15, %rdi
	.loc	16 895 45 is_stmt 1
	jae	LBB29_95
Ltmp511:
	.loc	16 895 76 is_stmt 0
	cmpq	%r15, %rax
	jb	LBB29_60
Ltmp512:
	leaq	l___unnamed_29(%rip), %rdx
Ltmp513:
	.loc	16 0 0
	movq	%rax, %rdi
Ltmp514:
	movq	%r15, %rsi
	callq	__ZN4core9panicking18panic_bounds_check17habe69d236c55e3edE
Ltmp515:
LBB29_62:
	.loc	16 904 25 is_stmt 1
	movq	%r15, %rdi
	subq	$2, %rdi
	jb	LBB29_98
Ltmp516:
	.loc	16 904 17 is_stmt 0
	cmpq	%r15, %rdi
	jae	LBB29_99
Ltmp517:
	movw	$0, (%r12,%rdi,4)
Ltmp518:
	.loc	11 1137 52 is_stmt 1
	testq	%rdi, %rdi
Ltmp519:
	.loc	13 282 9
	je	LBB29_70
Ltmp520:
	.loc	16 906 49
	leaq	-3(%r15), %rax
Ltmp521:
	.p2align	4, 0x90
LBB29_66:
	cmpq	%r15, %rax
	jae	LBB29_100
Ltmp522:
	movzwl	(%r12,%rax,4), %ecx
	.loc	16 906 41 is_stmt 0
	cmpq	%rcx, %r15
	jbe	LBB29_101
Ltmp523:
	movzwl	(%r12,%rcx,4), %ecx
	incw	%cx
	je	LBB29_102
Ltmp524:
	.loc	16 906 21
	movw	%cx, (%r12,%rax,4)
Ltmp525:
	.loc	11 1137 52 is_stmt 1
	decq	%rax
	cmpq	$-1, %rax
Ltmp526:
	.loc	13 282 9
	jne	LBB29_66
Ltmp527:
LBB29_70:
	.loc	13 0 9 is_stmt 0
	movl	$1, %esi
	xorl	%r8d, %r8d
Ltmp528:
	.p2align	4, 0x90
LBB29_71:
	.loc	16 915 27 is_stmt 1
	testl	%edi, %edi
	js	LBB29_72
Ltmp529:
	.loc	16 915 43 is_stmt 0
	movslq	%edi, %rdi
Ltmp530:
	.loc	16 0 43
	xorl	%ebx, %ebx
Ltmp531:
	.p2align	4, 0x90
LBB29_80:
	.loc	16 915 43
	cmpq	%r15, %rdi
	jae	LBB29_103
Ltmp532:
	.loc	16 915 42
	cmpw	%r8w, (%r12,%rdi,4)
	.loc	16 915 27
	jne	LBB29_74
Ltmp533:
	.loc	16 916 25 is_stmt 1
	movl	%ebx, %eax
	incl	%eax
Ltmp534:
	jo	LBB29_104
Ltmp535:
	.loc	16 917 25
	leaq	-1(%rdi), %rcx
Ltmp536:
	.loc	16 915 27
	incl	%ebx
	testq	%rdi, %rdi
	movq	%rcx, %rdi
	jg	LBB29_80
Ltmp537:
	.loc	16 0 0 is_stmt 0
	movl	%eax, %ebx
Ltmp538:
	movl	%ecx, %edi
Ltmp539:
LBB29_74:
	.loc	16 919 27 is_stmt 1
	cmpl	%ebx, %esi
	.loc	16 919 21 is_stmt 0
	jg	LBB29_75
	jmp	LBB29_85
Ltmp540:
	.p2align	4, 0x90
LBB29_72:
	.loc	16 0 0
	xorl	%ebx, %ebx
Ltmp541:
	.loc	16 919 27
	cmpl	%ebx, %esi
	.loc	16 919 21
	jle	LBB29_85
Ltmp542:
LBB29_75:
	.loc	16 920 25 is_stmt 1
	movslq	%edx, %rax
Ltmp543:
	.p2align	4, 0x90
LBB29_76:
	cmpq	%r15, %rax
	jae	LBB29_105
Ltmp544:
	movw	%r8w, (%r12,%rax,4)
	.loc	16 921 25
	movl	%eax, %edx
	decl	%edx
	jo	LBB29_78
Ltmp545:
	.loc	16 0 0 is_stmt 0
	decl	%esi
Ltmp546:
	.loc	16 921 25
	decq	%rax
Ltmp547:
	.loc	16 919 27 is_stmt 1
	cmpl	%ebx, %esi
	.loc	16 919 21 is_stmt 0
	jg	LBB29_76
Ltmp548:
LBB29_85:
	.loc	16 924 28 is_stmt 1
	addl	%ebx, %ebx
Ltmp549:
	jo	LBB29_106
Ltmp550:
	.loc	16 925 21
	incw	%r8w
Ltmp551:
	je	LBB29_107
Ltmp552:
	.loc	16 0 21 is_stmt 0
	movl	%ebx, %esi
	.loc	16 914 23 is_stmt 1
	testl	%ebx, %ebx
	.loc	16 914 17 is_stmt 0
	jg	LBB29_71
Ltmp553:
LBB29_29:
	.loc	20 3179 9 is_stmt 1
	testq	%r15, %r15
	.loc	20 3303 21
	je	LBB29_32
Ltmp554:
LBB29_30:
	.loc	16 997 17
	leaq	(,%r15,4), %rax
	xorl	%ecx, %ecx
Ltmp555:
	.p2align	4, 0x90
LBB29_31:
	movq	%r12, %rdx
	addq	%rcx, %rdx
	je	LBB29_32
Ltmp556:
	.loc	16 998 27
	movzwl	(%rdx), %edi
	cmpq	$32, %rdi
	.loc	16 998 17 is_stmt 0
	ja	LBB29_190
Ltmp557:
	movl	-208(%rbp,%rdi,4), %edx
	incl	%edx
	jo	LBB29_191
Ltmp558:
	movl	%edx, -208(%rbp,%rdi,4)
Ltmp559:
	.loc	20 3179 9 is_stmt 1
	addq	$4, %rcx
	cmpq	%rcx, %rax
	.loc	20 3303 21
	jne	LBB29_31
Ltmp560:
LBB29_32:
	.loc	16 933 12
	cmpq	$2, %r15
	.loc	16 933 9 is_stmt 0
	jb	LBB29_147
Ltmp561:
	.loc	16 937 47 is_stmt 1
	movq	%r9, %rdi
	incq	%rdi
	je	LBB29_139
Ltmp562:
	.loc	20 2916 12
	cmpq	$34, %rdi
	.loc	20 2916 9 is_stmt 0
	jae	LBB29_35
Ltmp563:
	.loc	20 0 9
	xorl	%eax, %eax
Ltmp564:
	.loc	20 3179 9 is_stmt 1
	cmpq	$33, %rdi
	.loc	20 3303 21
	je	LBB29_118
Ltmp565:
	.file	23 "/rustc/a74d1862d4d87a56244958416fd05976c58ca1a8/src/libcore/ops/arith.rs"
	.loc	23 94 45
	leaq	(,%r9,4), %rcx
	xorl	%eax, %eax
Ltmp566:
	.p2align	4, 0x90
LBB29_116:
	addl	-204(%rbp,%rcx), %eax
Ltmp567:
	jo	LBB29_213
Ltmp568:
	.loc	20 3179 9
	addq	$4, %rcx
	cmpq	$128, %rcx
	.loc	20 3303 21
	jne	LBB29_116
Ltmp569:
LBB29_118:
	.loc	16 937 9
	cmpq	$32, %r9
	ja	LBB29_140
Ltmp570:
	addl	-208(%rbp,%r9,4), %eax
	jo	LBB29_141
Ltmp571:
	movl	%eax, -208(%rbp,%r9,4)
Ltmp572:
	.loc	20 3179 9
	testq	%r9, %r9
	.loc	20 3399 21
	je	LBB29_147
Ltmp573:
	.loc	16 942 50
	leaq	-208(%rbp,%r9,4), %rsi
	xorl	%edx, %edx
	xorl	%ecx, %ecx
Ltmp574:
	.p2align	4, 0x90
LBB29_122:
	cmpq	$32, %rcx
	je	LBB29_214
Ltmp575:
	.file	24 "/rustc/a74d1862d4d87a56244958416fd05976c58ca1a8/src/libcore/iter/traits/double_ended.rs"
	.loc	24 166 21
	movl	(%rsi), %ebx
Ltmp576:
	.loc	16 942 50
	shll	%cl, %ebx
Ltmp577:
	.loc	16 942 42 is_stmt 0
	addl	%ebx, %edx
Ltmp578:
	jb	LBB29_215
Ltmp579:
	.loc	23 686 51 is_stmt 1
	incq	%rcx
Ltmp580:
	.loc	20 3179 9
	addq	$-4, %rsi
	cmpq	%rcx, %r9
	.loc	20 3399 21
	jne	LBB29_122
Ltmp581:
	.loc	16 944 18
	cmpq	$31, %r9
	ja	LBB29_142
Ltmp582:
	.loc	16 0 18 is_stmt 0
	movl	$1, %esi
	.loc	16 944 18
	movl	%r9d, %ecx
	shll	%cl, %esi
Ltmp583:
	.loc	11 1137 52 is_stmt 1
	cmpl	%edx, %esi
Ltmp584:
	.loc	13 211 9
	jae	LBB29_147
Ltmp585:
	.p2align	4, 0x90
	.loc	16 945 13
	decl	%eax
	jo	LBB29_138
Ltmp586:
LBB29_128:
	.loc	9 3632 30
	incl	%esi
Ltmp587:
	.loc	16 945 13
	movl	%eax, -208(%rbp,%r9,4)
	.loc	16 0 0 is_stmt 0
	movq	%rdi, %rbx
Ltmp588:
	.p2align	4, 0x90
LBB29_129:
	movq	%rbx, %rax
Ltmp589:
	.loc	11 1137 52 is_stmt 1
	decq	%rbx
	cmpq	$2, %rbx
Ltmp590:
	.loc	13 282 9
	jb	LBB29_136
Ltmp591:
	.loc	16 947 20
	leaq	-2(%rax), %rcx
	cmpq	$32, %rcx
	ja	LBB29_143
Ltmp592:
	movl	-216(%rbp,%rax,4), %ecx
	testl	%ecx, %ecx
	.loc	16 947 17 is_stmt 0
	je	LBB29_129
Ltmp593:
	.loc	16 948 21 is_stmt 1
	decl	%ecx
	jo	LBB29_144
Ltmp594:
	movl	%ecx, -216(%rbp,%rax,4)
	.loc	16 949 21
	cmpq	$32, %rbx
	ja	LBB29_145
Ltmp595:
	movl	-212(%rbp,%rax,4), %ecx
	addl	$2, %ecx
	jo	LBB29_146
Ltmp596:
	movl	%ecx, -212(%rbp,%rax,4)
Ltmp597:
LBB29_136:
	.loc	11 1137 52
	cmpl	%edx, %esi
Ltmp598:
	.loc	13 211 9
	je	LBB29_147
Ltmp599:
	.loc	16 945 13
	movl	-208(%rbp,%r9,4), %eax
Ltmp600:
	decl	%eax
	jno	LBB29_128
Ltmp601:
LBB29_138:
	leaq	_str.1(%rip), %rdi
	leaq	l___unnamed_30(%rip), %rdx
Ltmp602:
	movl	$33, %esi
	callq	__ZN4core9panicking5panic17h736ee47a631475c0E
Ltmp603:
LBB29_147:
	.loc	16 0 13 is_stmt 0
	movq	-56(%rbp), %rax
	leaq	(%rax,%rax,8), %rbx
	movq	%rbx, %r14
	shlq	$5, %r14
	leaq	3456(%r13,%r14), %rdi
Ltmp604:
	.loc	16 375 9 is_stmt 1
	movl	$288, %esi
	callq	___bzero
Ltmp605:
	.loc	16 1004 25
	shlq	$6, %rbx
	leaq	1728(%r13,%rbx), %rdi
Ltmp606:
	.loc	16 375 9
	movl	$576, %esi
	callq	___bzero
Ltmp607:
	.loc	16 0 9 is_stmt 0
	movq	-48(%rbp), %rcx
Ltmp608:
	.loc	22 508 9 is_stmt 1
	testq	%rcx, %rcx
	movq	-64(%rbp), %r11
Ltmp609:
	.loc	13 343 9
	je	LBB29_163
Ltmp610:
	.loc	16 1008 36
	addq	$2, %r12
Ltmp611:
	.loc	16 0 36 is_stmt 0
	movl	$1, %edi
	movq	%r15, %rsi
Ltmp612:
	.loc	13 347 14 is_stmt 1
	movl	$1, %r9d
	jmp	LBB29_149
Ltmp613:
	.p2align	4, 0x90
LBB29_162:
	.loc	22 508 9
	cmpq	%rcx, %r9
	seta	%al
	orb	%r8b, %al
	movq	%r10, %rsi
	movq	%r9, %rdi
Ltmp614:
	.loc	13 343 9
	jne	LBB29_163
Ltmp615:
LBB29_149:
	.loc	11 1137 52
	cmpq	%rcx, %rdi
	setae	%r8b
Ltmp616:
	.loc	13 347 14
	adcq	$0, %r9
Ltmp617:
	.loc	16 1008 36
	cmpq	$33, %rdi
	jae	LBB29_192
Ltmp618:
	movslq	-208(%rbp,%rdi,4), %rdx
	.loc	16 1008 29 is_stmt 0
	movq	%rsi, %r10
	subq	%rdx, %r10
Ltmp619:
	jb	LBB29_193
Ltmp620:
	.loc	20 2916 12 is_stmt 1
	cmpq	%r10, %rsi
	.loc	20 2916 9 is_stmt 0
	jb	LBB29_157
Ltmp621:
	.loc	20 2918 19 is_stmt 1
	cmpq	%rsi, %r15
	.loc	20 2918 16 is_stmt 0
	jb	LBB29_153
Ltmp622:
	.loc	20 3179 9 is_stmt 1
	cmpq	%rsi, %r10
	.loc	20 3303 21
	je	LBB29_162
Ltmp623:
	leaq	(%r12,%rsi,4), %rsi
	shlq	$2, %rdx
	negq	%rdx
Ltmp624:
	.p2align	4, 0x90
LBB29_160:
	.loc	16 1010 48
	movzwl	(%rsi,%rdx), %eax
	cmpq	$287, %rax
	.loc	16 1010 21 is_stmt 0
	ja	LBB29_194
Ltmp625:
	leaq	(%r13,%r14), %rbx
	movb	%dil, 3456(%rax,%rbx)
Ltmp626:
	.loc	20 3179 9 is_stmt 1
	addq	$4, %rdx
	.loc	20 3303 21
	jne	LBB29_160
	jmp	LBB29_162
Ltmp627:
LBB29_163:
	.loc	20 0 21 is_stmt 0
	movq	-56(%rbp), %r15
Ltmp628:
	.loc	16 1017 9 is_stmt 1
	movl	$0, -348(%rbp)
Ltmp629:
	.loc	22 508 9
	cmpq	$2, %rcx
Ltmp630:
	.loc	13 343 9
	jb	LBB29_171
Ltmp631:
LBB29_165:
	.loc	13 0 9 is_stmt 0
	movl	$2, %edi
	xorl	%esi, %esi
Ltmp632:
	.loc	13 347 14 is_stmt 1
	movl	$2, %edx
Ltmp633:
	.p2align	4, 0x90
LBB29_166:
	.loc	11 1137 52
	cmpq	%rcx, %rdi
	setae	%bl
Ltmp634:
	.loc	13 347 14
	adcq	$0, %rdx
Ltmp635:
	.loc	16 1019 32
	movq	%rdi, %rax
	subq	$1, %rax
	jb	LBB29_195
Ltmp636:
	.loc	16 1019 22 is_stmt 0
	cmpq	$32, %rax
	ja	LBB29_196
Ltmp637:
	.loc	16 1019 17
	addl	-208(%rbp,%rax,4), %esi
Ltmp638:
	jo	LBB29_197
Ltmp639:
	.loc	16 1020 13 is_stmt 1
	cmpq	$32, %rdi
	ja	LBB29_198
Ltmp640:
	.loc	16 0 0 is_stmt 0
	addl	%esi, %esi
Ltmp641:
	.loc	16 1020 13
	movl	%esi, -352(%rbp,%rdi,4)
Ltmp642:
	.loc	22 508 9 is_stmt 1
	cmpq	%rcx, %rdx
	seta	%al
	orb	%bl, %al
	movq	%rdx, %rdi
Ltmp643:
	.loc	13 343 9
	je	LBB29_166
Ltmp644:
LBB29_171:
	.file	25 "/rustc/a74d1862d4d87a56244958416fd05976c58ca1a8/src/libcore/iter/adapters/mod.rs"
	.loc	25 2043 12
	testq	%r11, %r11
	.loc	25 2043 9 is_stmt 0
	je	LBB29_185
Ltmp645:
	.loc	16 0 0
	leaq	(%r15,%r15,8), %rax
	movq	%rax, %rcx
	shlq	$5, %rcx
	leaq	3744(%r13,%rcx), %r9
Ltmp646:
	shlq	$6, %rax
	leaq	2304(%r13,%rax), %r8
Ltmp647:
	.loc	20 404 9 is_stmt 1
	leaq	1728(%r13,%rax), %r10
Ltmp648:
	.loc	20 377 9
	leaq	3456(%r13,%rcx), %rsi
Ltmp649:
	.loc	20 3179 9
	cmpq	%r9, %rsi
	.loc	20 3303 21
	jne	LBB29_174
	jmp	LBB29_185
Ltmp650:
	.p2align	4, 0x90
LBB29_183:
	.loc	16 1040 13
	movw	%ax, (%r10)
Ltmp651:
LBB29_184:
	.loc	16 0 0 is_stmt 0
	decq	%r11
	incq	%rsi
Ltmp652:
	addq	$2, %r10
Ltmp653:
	.loc	25 2043 12 is_stmt 1
	testq	%r11, %r11
	.loc	25 2043 9 is_stmt 0
	je	LBB29_185
Ltmp654:
	.loc	20 3179 9 is_stmt 1
	cmpq	%r9, %rsi
	.loc	20 3303 21
	je	LBB29_185
Ltmp655:
LBB29_174:
	.loc	20 3179 9
	cmpq	%r8, %r10
	.loc	20 3303 21
	je	LBB29_185
Ltmp656:
	.loc	16 1023 15
	movzbl	(%rsi), %edi
	testq	%rdi, %rdi
Ltmp657:
	.loc	16 1028 13
	je	LBB29_184
Ltmp658:
	.loc	16 1032 28
	cmpb	$32, %dil
	ja	LBB29_199
Ltmp659:
	movl	-352(%rbp,%rdi,4), %ebx
Ltmp660:
	.loc	16 1033 13
	movl	%ebx, %eax
	incl	%eax
	je	LBB29_200
Ltmp661:
	movl	%eax, -352(%rbp,%rdi,4)
Ltmp662:
	.loc	13 211 9
	leal	-1(%rdi), %ecx
	movl	%edi, %edx
	andb	$3, %dl
	xorl	%eax, %eax
	cmpb	$3, %cl
	jb	LBB29_181
Ltmp663:
	movl	%edx, %ecx
	subb	%dil, %cl
	xorl	%eax, %eax
Ltmp664:
	.p2align	4, 0x90
LBB29_180:
	.loc	16 1037 46
	movl	%ebx, %edi
	andl	$1, %edi
	.loc	16 1037 17 is_stmt 0
	leal	(%rdi,%rax,2), %eax
Ltmp665:
	.loc	16 1037 46
	movl	%ebx, %edi
	andl	$2, %edi
	.loc	16 1037 17
	leal	(%rdi,%rax,4), %eax
Ltmp666:
	.loc	16 1038 17 is_stmt 1
	movl	%ebx, %edi
	shrl	$2, %edi
Ltmp667:
	.loc	16 1037 46
	andl	$1, %edi
Ltmp668:
	.loc	16 1037 17 is_stmt 0
	orl	%eax, %edi
Ltmp669:
	.loc	16 1038 17 is_stmt 1
	movl	%ebx, %eax
	shrl	$3, %eax
Ltmp670:
	.loc	16 1037 46
	andl	$1, %eax
Ltmp671:
	.loc	16 1037 17 is_stmt 0
	leal	(%rax,%rdi,2), %eax
Ltmp672:
	.loc	16 1038 17 is_stmt 1
	shrl	$4, %ebx
Ltmp673:
	.loc	13 211 9
	addb	$4, %cl
	jne	LBB29_180
Ltmp674:
LBB29_181:
	testb	%dl, %dl
	je	LBB29_183
Ltmp675:
	.p2align	4, 0x90
LBB29_182:
	.loc	16 1037 46
	movl	%ebx, %ecx
	andl	$1, %ecx
	.loc	16 1037 17 is_stmt 0
	leal	(%rcx,%rax,2), %eax
Ltmp676:
	.loc	16 1038 17 is_stmt 1
	shrl	%ebx
Ltmp677:
	.loc	13 211 9
	decb	%dl
	jne	LBB29_182
	jmp	LBB29_183
Ltmp678:
LBB29_185:
	.loc	16 1042 6
	addq	$8760, %rsp
	popq	%rbx
	popq	%r12
	popq	%r13
Ltmp679:
	popq	%r14
	popq	%r15
	popq	%rbp
	retq
LBB29_194:
Ltmp680:
	.loc	16 1010 21
	leaq	l___unnamed_31(%rip), %rdx
	movl	$288, %esi
	movq	%rax, %rdi
Ltmp681:
	callq	__ZN4core9panicking18panic_bounds_check17habe69d236c55e3edE
Ltmp682:
LBB29_105:
	.loc	16 920 25
	leaq	l___unnamed_32(%rip), %rdx
Ltmp683:
	.loc	16 0 0 is_stmt 0
	movq	%rax, %rdi
Ltmp684:
	movq	%r15, %rsi
Ltmp685:
	callq	__ZN4core9panicking18panic_bounds_check17habe69d236c55e3edE
Ltmp686:
LBB29_78:
	.loc	16 921 25 is_stmt 1
	leaq	_str.1(%rip), %rdi
Ltmp687:
	leaq	l___unnamed_33(%rip), %rdx
	movl	$33, %esi
Ltmp688:
	callq	__ZN4core9panicking5panic17h736ee47a631475c0E
Ltmp689:
LBB29_103:
	.loc	16 915 43
	leaq	l___unnamed_34(%rip), %rdx
Ltmp690:
	movq	%r15, %rsi
Ltmp691:
	callq	__ZN4core9panicking18panic_bounds_check17habe69d236c55e3edE
Ltmp692:
LBB29_104:
	.loc	16 916 25
	leaq	_str.0(%rip), %rdi
Ltmp693:
	leaq	l___unnamed_35(%rip), %rdx
Ltmp694:
	movl	$28, %esi
Ltmp695:
	callq	__ZN4core9panicking5panic17h736ee47a631475c0E
Ltmp696:
LBB29_16:
	.loc	16 861 17
	leaq	_str.0(%rip), %rdi
	leaq	l___unnamed_36(%rip), %rdx
	movl	$28, %esi
	callq	__ZN4core9panicking5panic17h736ee47a631475c0E
Ltmp697:
LBB29_143:
	.loc	16 947 20
	leaq	l___unnamed_37(%rip), %rdx
Ltmp698:
	movl	$33, %esi
	movq	%rcx, %rdi
	callq	__ZN4core9panicking18panic_bounds_check17habe69d236c55e3edE
Ltmp699:
LBB29_195:
	.loc	16 1019 32
	leaq	_str.1(%rip), %rdi
Ltmp700:
	leaq	l___unnamed_38(%rip), %rdx
	movl	$33, %esi
Ltmp701:
	callq	__ZN4core9panicking5panic17h736ee47a631475c0E
Ltmp702:
LBB29_196:
	.loc	16 1019 22 is_stmt 0
	leaq	l___unnamed_39(%rip), %rdx
	movl	$33, %esi
Ltmp703:
	movq	%rax, %rdi
Ltmp704:
	callq	__ZN4core9panicking18panic_bounds_check17habe69d236c55e3edE
Ltmp705:
LBB29_197:
	.loc	16 1019 17
	leaq	_str.0(%rip), %rdi
Ltmp706:
	leaq	l___unnamed_40(%rip), %rdx
	movl	$28, %esi
	callq	__ZN4core9panicking5panic17h736ee47a631475c0E
Ltmp707:
LBB29_198:
	.loc	16 1020 13 is_stmt 1
	leaq	l___unnamed_41(%rip), %rdx
	movl	$33, %esi
	callq	__ZN4core9panicking18panic_bounds_check17habe69d236c55e3edE
Ltmp708:
LBB29_216:
	.loc	16 866 17
	leaq	l___unnamed_42(%rip), %rdx
	movq	%r15, %rsi
	callq	__ZN4core9panicking18panic_bounds_check17habe69d236c55e3edE
Ltmp709:
LBB29_40:
	.loc	16 867 17
	leaq	_str.0(%rip), %rdi
	leaq	l___unnamed_43(%rip), %rdx
	movl	$28, %esi
	callq	__ZN4core9panicking5panic17h736ee47a631475c0E
Ltmp710:
LBB29_186:
	.loc	16 968 17
	leaq	l___unnamed_44(%rip), %rdx
	movl	$33, %esi
	callq	__ZN4core9panicking18panic_bounds_check17habe69d236c55e3edE
Ltmp711:
LBB29_187:
	leaq	_str.0(%rip), %rdi
	leaq	l___unnamed_44(%rip), %rdx
	movl	$28, %esi
	callq	__ZN4core9panicking5panic17h736ee47a631475c0E
Ltmp712:
LBB29_188:
	.loc	16 982 20
	leaq	l___unnamed_45(%rip), %rdx
	movl	$288, %edi
	movl	$288, %esi
Ltmp713:
	callq	__ZN4core9panicking18panic_bounds_check17habe69d236c55e3edE
Ltmp714:
LBB29_192:
	.loc	16 1008 36
	leaq	l___unnamed_46(%rip), %rdx
	movl	$33, %esi
Ltmp715:
	callq	__ZN4core9panicking18panic_bounds_check17habe69d236c55e3edE
Ltmp716:
LBB29_193:
	.loc	16 1008 29 is_stmt 0
	leaq	_str.1(%rip), %rdi
Ltmp717:
	leaq	l___unnamed_47(%rip), %rdx
	movl	$33, %esi
	callq	__ZN4core9panicking5panic17h736ee47a631475c0E
Ltmp718:
LBB29_157:
	.loc	20 2917 13 is_stmt 1
	leaq	l___unnamed_48(%rip), %rdx
	movq	%r10, %rdi
Ltmp719:
	callq	__ZN4core5slice22slice_index_order_fail17h85b430a3a039f0a8E
Ltmp720:
LBB29_153:
	.loc	20 2919 13
	leaq	l___unnamed_48(%rip), %rdx
	movq	%rsi, %rdi
Ltmp721:
	movq	%r15, %rsi
Ltmp722:
	callq	__ZN4core5slice20slice_index_len_fail17h550a313151a85135E
Ltmp723:
LBB29_38:
	.loc	16 844 13
	leaq	_str.0(%rip), %rdi
	leaq	l___unnamed_49(%rip), %rdx
	movl	$28, %esi
	callq	__ZN4core9panicking5panic17h736ee47a631475c0E
Ltmp724:
LBB29_39:
	.loc	16 845 13
	leaq	_str.0(%rip), %rdi
	leaq	l___unnamed_50(%rip), %rdx
	movl	$28, %esi
	callq	__ZN4core9panicking5panic17h736ee47a631475c0E
Ltmp725:
LBB29_106:
	.loc	16 924 28
	leaq	_str.3(%rip), %rdi
Ltmp726:
	leaq	l___unnamed_51(%rip), %rdx
Ltmp727:
	movl	$33, %esi
	callq	__ZN4core9panicking5panic17h736ee47a631475c0E
Ltmp728:
LBB29_107:
	.loc	16 925 21
	leaq	_str.0(%rip), %rdi
Ltmp729:
	leaq	l___unnamed_52(%rip), %rdx
Ltmp730:
	movl	$28, %esi
	callq	__ZN4core9panicking5panic17h736ee47a631475c0E
Ltmp731:
LBB29_214:
	.loc	16 942 50
	leaq	_str.5(%rip), %rdi
	leaq	l___unnamed_53(%rip), %rdx
Ltmp732:
	movl	$35, %esi
	callq	__ZN4core9panicking5panic17h736ee47a631475c0E
Ltmp733:
LBB29_215:
	.loc	16 942 42 is_stmt 0
	leaq	_str.0(%rip), %rdi
	leaq	l___unnamed_54(%rip), %rdx
	movl	$28, %esi
	callq	__ZN4core9panicking5panic17h736ee47a631475c0E
Ltmp734:
LBB29_190:
	.loc	16 998 17 is_stmt 1
	leaq	l___unnamed_55(%rip), %rdx
	movl	$33, %esi
	callq	__ZN4core9panicking18panic_bounds_check17habe69d236c55e3edE
Ltmp735:
LBB29_191:
	leaq	_str.0(%rip), %rdi
	leaq	l___unnamed_55(%rip), %rdx
	movl	$28, %esi
	callq	__ZN4core9panicking5panic17h736ee47a631475c0E
Ltmp736:
LBB29_199:
	.loc	16 1032 28
	leaq	l___unnamed_56(%rip), %rdx
	movl	$33, %esi
Ltmp737:
	callq	__ZN4core9panicking18panic_bounds_check17habe69d236c55e3edE
Ltmp738:
LBB29_200:
	.loc	16 1033 13
	leaq	_str.0(%rip), %rdi
	leaq	l___unnamed_57(%rip), %rdx
	movl	$28, %esi
Ltmp739:
	callq	__ZN4core9panicking5panic17h736ee47a631475c0E
Ltmp740:
LBB29_213:
	.loc	23 94 45
	leaq	_str.0(%rip), %rdi
	leaq	l___unnamed_58(%rip), %rdx
	movl	$28, %esi
	callq	__ZN4core9panicking5panic17h736ee47a631475c0E
Ltmp741:
LBB29_100:
	.loc	16 906 49
	leaq	l___unnamed_59(%rip), %rdx
Ltmp742:
	.loc	16 0 0 is_stmt 0
	movq	%rax, %rdi
	movq	%r15, %rsi
	callq	__ZN4core9panicking18panic_bounds_check17habe69d236c55e3edE
Ltmp743:
LBB29_101:
	.loc	16 906 41
	leaq	l___unnamed_60(%rip), %rdx
	movq	%rcx, %rdi
	movq	%r15, %rsi
	callq	__ZN4core9panicking18panic_bounds_check17habe69d236c55e3edE
Ltmp744:
LBB29_102:
	leaq	_str.0(%rip), %rdi
	leaq	l___unnamed_60(%rip), %rdx
	movl	$28, %esi
	callq	__ZN4core9panicking5panic17h736ee47a631475c0E
Ltmp745:
LBB29_91:
	.loc	16 886 45 is_stmt 1
	leaq	l___unnamed_61(%rip), %rdx
Ltmp746:
	.loc	16 0 0 is_stmt 0
	movq	%rax, %rdi
Ltmp747:
	movq	%r15, %rsi
	callq	__ZN4core9panicking18panic_bounds_check17habe69d236c55e3edE
Ltmp748:
LBB29_92:
	.loc	16 886 25
	leaq	l___unnamed_62(%rip), %rdx
	movq	%r15, %rsi
	callq	__ZN4core9panicking18panic_bounds_check17habe69d236c55e3edE
Ltmp749:
LBB29_95:
	.loc	16 895 45 is_stmt 1
	leaq	l___unnamed_63(%rip), %rdx
	movq	%r15, %rsi
	callq	__ZN4core9panicking18panic_bounds_check17habe69d236c55e3edE
Ltmp750:
LBB29_89:
	.loc	16 885 40
	leaq	l___unnamed_64(%rip), %rdx
Ltmp751:
	.loc	16 0 0 is_stmt 0
	movq	%rax, %rdi
Ltmp752:
	movq	%r15, %rsi
	callq	__ZN4core9panicking18panic_bounds_check17habe69d236c55e3edE
Ltmp753:
LBB29_144:
	.loc	16 948 21 is_stmt 1
	leaq	_str.1(%rip), %rdi
	leaq	l___unnamed_65(%rip), %rdx
Ltmp754:
	movl	$33, %esi
	callq	__ZN4core9panicking5panic17h736ee47a631475c0E
Ltmp755:
LBB29_145:
	.loc	16 949 21
	leaq	l___unnamed_66(%rip), %rdx
Ltmp756:
	movl	$33, %esi
	movq	%rbx, %rdi
	callq	__ZN4core9panicking18panic_bounds_check17habe69d236c55e3edE
Ltmp757:
LBB29_146:
	leaq	_str.0(%rip), %rdi
	leaq	l___unnamed_66(%rip), %rdx
Ltmp758:
	movl	$28, %esi
	callq	__ZN4core9panicking5panic17h736ee47a631475c0E
Ltmp759:
LBB29_97:
	.loc	16 899 45
	leaq	l___unnamed_67(%rip), %rdx
	movq	%r15, %rsi
	callq	__ZN4core9panicking18panic_bounds_check17habe69d236c55e3edE
Ltmp760:
LBB29_94:
	.loc	16 894 55
	leaq	l___unnamed_68(%rip), %rdx
Ltmp761:
	.loc	16 0 0 is_stmt 0
	movq	%rax, %rdi
Ltmp762:
	movq	%r15, %rsi
	callq	__ZN4core9panicking18panic_bounds_check17habe69d236c55e3edE
Ltmp763:
LBB29_93:
	.loc	16 890 25 is_stmt 1
	leaq	l___unnamed_69(%rip), %rdx
	movq	%r15, %rsi
	callq	__ZN4core9panicking18panic_bounds_check17habe69d236c55e3edE
Ltmp764:
LBB29_211:
	.loc	20 2919 13
	leaq	l___unnamed_70(%rip), %rdx
	movl	$288, %esi
	movq	%r11, %rdi
	callq	__ZN4core5slice20slice_index_len_fail17h550a313151a85135E
Ltmp765:
LBB29_212:
	.loc	20 2929 13
	leaq	l___unnamed_71(%rip), %rdx
	movl	$288, %esi
Ltmp766:
	movq	%r15, %rdi
	callq	__ZN4core5slice20slice_index_len_fail17h550a313151a85135E
Ltmp767:
LBB29_139:
	.loc	16 937 47
	leaq	_str.0(%rip), %rdi
	leaq	l___unnamed_72(%rip), %rdx
	movl	$28, %esi
	callq	__ZN4core9panicking5panic17h736ee47a631475c0E
Ltmp768:
LBB29_35:
	.loc	20 2917 13
	leaq	l___unnamed_73(%rip), %rdx
	movl	$33, %esi
	callq	__ZN4core5slice22slice_index_order_fail17h85b430a3a039f0a8E
Ltmp769:
LBB29_140:
	.loc	16 937 9
	leaq	l___unnamed_74(%rip), %rdx
	movl	$33, %esi
	movq	%r9, %rdi
	callq	__ZN4core9panicking18panic_bounds_check17habe69d236c55e3edE
Ltmp770:
LBB29_141:
	leaq	_str.0(%rip), %rdi
	leaq	l___unnamed_74(%rip), %rdx
	movl	$28, %esi
	callq	__ZN4core9panicking5panic17h736ee47a631475c0E
Ltmp771:
LBB29_88:
	.loc	16 881 17
	leaq	_str.0(%rip), %rdi
	leaq	l___unnamed_75(%rip), %rdx
	movl	$28, %esi
	callq	__ZN4core9panicking5panic17h736ee47a631475c0E
Ltmp772:
LBB29_98:
	.loc	16 904 25
	leaq	_str.1(%rip), %rdi
	leaq	l___unnamed_76(%rip), %rdx
	movl	$33, %esi
	callq	__ZN4core9panicking5panic17h736ee47a631475c0E
Ltmp773:
LBB29_99:
	.loc	16 904 17 is_stmt 0
	leaq	l___unnamed_77(%rip), %rdx
	movq	%r15, %rsi
	callq	__ZN4core9panicking18panic_bounds_check17habe69d236c55e3edE
Ltmp774:
LBB29_142:
	.loc	16 944 18 is_stmt 1
	leaq	_str.5(%rip), %rdi
	leaq	l___unnamed_78(%rip), %rdx
Ltmp775:
	movl	$35, %esi
	callq	__ZN4core9panicking5panic17h736ee47a631475c0E
Ltmp776:
Lfunc_end29:
	.cfi_endproc
	.file	26 "/rustc/a74d1862d4d87a56244958416fd05976c58ca1a8/src/libcore/iter/traits/iterator.rs"
	.file	27 "/rustc/a74d1862d4d87a56244958416fd05976c58ca1a8/src/libcore/iter/traits/accum.rs"
	.file	28 "/rustc/a74d1862d4d87a56244958416fd05976c58ca1a8/src/libcore/internal_macros.rs"
	.file	29 "/rustc/a74d1862d4d87a56244958416fd05976c58ca1a8/src/libcore/ops/function.rs"
	.file	30 "/rustc/a74d1862d4d87a56244958416fd05976c58ca1a8/src/libcore/iter/adapters/zip.rs"

	.globl	__ZN11miniz_oxide7deflate4core9DictOxide3new17hba42b4f8dad14a1cE
	.p2align	4, 0x90
__ZN11miniz_oxide7deflate4core9DictOxide3new17hba42b4f8dad14a1cE:
Lfunc_begin30:
	.loc	16 1195 0
	.cfi_startproc
	pushq	%rbp
	.cfi_def_cfa_offset 16
	.cfi_offset %rbp, -16
	movq	%rsp, %rbp
	.cfi_def_cfa_register %rbp
	pushq	%r15
	pushq	%r14
	pushq	%r12
	pushq	%rbx
	.cfi_offset %rbx, -48
	.cfi_offset %r12, -40
	.cfi_offset %r14, -32
	.cfi_offset %r15, -24
	movl	%esi, %r12d
Ltmp777:
	movq	%rdi, %r15
Ltmp778:
	.loc	7 80 5 prologue_end
	movl	$164098, %edi
	movl	$2, %esi
	callq	___rust_alloc
Ltmp779:
	.loc	7 269 9
	testq	%rax, %rax
	je	LBB30_2
Ltmp780:
	.loc	16 0 0 is_stmt 0
	movq	%rax, %r14
	andl	$4095, %r12d
Ltmp781:
	.loc	16 1189 13 is_stmt 1
	imull	$43691, %r12d, %ebx
	.loc	16 1190 14
	shrl	$2, %r12d
	.loc	16 1190 13 is_stmt 0
	imull	$43691, %r12d, %eax
	addl	$87382, %eax
	shrl	$17, %eax
	.loc	16 1190 9
	incl	%eax
	.loc	16 1192 2 is_stmt 1
	shlq	$32, %rax
	.loc	16 1189 13
	addl	$87382, %ebx
	shrl	$17, %ebx
	.loc	16 1189 9 is_stmt 0
	incl	%ebx
	.loc	16 1192 2 is_stmt 1
	orq	%rax, %rbx
Ltmp782:
	.loc	15 39 9
	movl	$164098, %esi
	movq	%r14, %rdi
	callq	___bzero
Ltmp783:
	.loc	16 1196 9
	movq	%rbx, 40(%r15)
	movq	%r14, (%r15)
	movq	$0, 8(%r15)
	movq	$0, 16(%r15)
	movq	$0, 24(%r15)
	movq	$0, 32(%r15)
	.loc	16 1204 6
	movq	%r15, %rax
	popq	%rbx
	popq	%r12
	popq	%r14
	popq	%r15
	popq	%rbp
	retq
LBB30_2:
Ltmp784:
	.loc	7 270 19
	movl	$164098, %edi
	movl	$2, %esi
	callq	__ZN5alloc5alloc18handle_alloc_error17hbc0ab0ed90816c07E
Ltmp785:
Lfunc_end30:
	.cfi_endproc

	.globl	__ZN11miniz_oxide7deflate4core11ParamsOxide3new17h258806705ffbef76E
	.p2align	4, 0x90
__ZN11miniz_oxide7deflate4core11ParamsOxide3new17h258806705ffbef76E:
Lfunc_begin31:
	.loc	16 1390 0
	.cfi_startproc
	pushq	%rbp
	.cfi_def_cfa_offset 16
	.cfi_offset %rbp, -16
	movq	%rsp, %rbp
	.cfi_def_cfa_register %rbp
	pushq	%r15
	pushq	%r14
	pushq	%rbx
	pushq	%rax
	.cfi_offset %rbx, -40
	.cfi_offset %r14, -32
	.cfi_offset %r15, -24
	movl	%esi, %r15d
Ltmp786:
	movq	%rdi, %rbx
Ltmp787:
	.loc	7 80 5 prologue_end
	movl	$85196, %edi
	movl	$1, %esi
	callq	___rust_alloc
Ltmp788:
	.loc	7 269 9
	testq	%rax, %rax
	je	LBB31_2
Ltmp789:
	.loc	17 0 0 is_stmt 0
	movq	%rax, %r14
Ltmp790:
	.loc	15 54 16 is_stmt 1
	movl	$85196, %esi
	movq	%rax, %rdi
	callq	___bzero
Ltmp791:
	.loc	16 1391 9
	movl	%r15d, 24(%rbx)
	shrl	$14, %r15d
Ltmp792:
	andb	$1, %r15b
	movb	%r15b, 64(%rbx)
	movw	$0, 65(%rbx)
	movb	$0, 67(%rbx)
	movq	$0, 28(%rbx)
	movq	$0, 36(%rbx)
	movl	$0, 44(%rbx)
	movl	$1, %eax
	movd	%eax, %xmm0
	movdqu	%xmm0, 48(%rbx)
	movq	$0, (%rbx)
	movq	$0, 8(%rbx)
	movq	%r14, 16(%rbx)
	.loc	16 1410 6
	movq	%rbx, %rax
	addq	$8, %rsp
	popq	%rbx
	popq	%r14
	popq	%r15
	popq	%rbp
	retq
LBB31_2:
Ltmp793:
	.loc	7 270 19
	movl	$85196, %edi
	movl	$1, %esi
	callq	__ZN5alloc5alloc18handle_alloc_error17hbc0ab0ed90816c07E
Ltmp794:
Lfunc_end31:
	.cfi_endproc

	.globl	__ZN11miniz_oxide7deflate4core7LZOxide3new17h08d27fa83acd85a1E
	.p2align	4, 0x90
__ZN11miniz_oxide7deflate4core7LZOxide3new17h08d27fa83acd85a1E:
Lfunc_begin32:
	.loc	16 1449 0
	.cfi_startproc
	pushq	%rbp
	.cfi_def_cfa_offset 16
	.cfi_offset %rbp, -16
	movq	%rsp, %rbp
	.cfi_def_cfa_register %rbp
	pushq	%rbx
	pushq	%rax
	.cfi_offset %rbx, -24
	movq	%rdi, %rbx
Ltmp795:
	.loc	16 1450 9 prologue_end
	addq	$24, %rdi
	movl	$65536, %esi
	callq	___bzero
	movl	$1, %eax
	movq	%rax, %xmm0
	movdqu	%xmm0, (%rbx)
	movabsq	$34359738368, %rax
	movq	%rax, 16(%rbx)
	.loc	16 1457 6
	movq	%rbx, %rax
	addq	$8, %rsp
	popq	%rbx
	popq	%rbp
	retq
Ltmp796:
Lfunc_end32:
	.cfi_endproc

	.p2align	4, 0x90
__ZN11miniz_oxide7deflate4core14compress_block17he1130c7e57329643E:
Lfunc_begin33:
	.loc	16 1589 0
	.cfi_startproc
	pushq	%rbp
	.cfi_def_cfa_offset 16
	.cfi_offset %rbp, -16
	movq	%rsp, %rbp
	.cfi_def_cfa_register %rbp
	pushq	%r15
	pushq	%r14
	pushq	%r13
	pushq	%r12
	pushq	%rbx
	subq	$888, %rsp
	.cfi_offset %rbx, -56
	.cfi_offset %r12, -48
	.cfi_offset %r13, -40
	.cfi_offset %r14, -32
	.cfi_offset %r15, -24
	movq	%rdx, %rbx
Ltmp797:
	movq	%rdi, %r14
Ltmp798:
	.loc	16 1595 5 prologue_end
	testl	%ecx, %ecx
	movq	%rsi, -80(%rbp)
	je	LBB33_47
Ltmp799:
	.loc	16 0 5 is_stmt 0
	movq	%rsi, %r13
Ltmp800:
	leaq	3456(%r14), %rdi
Ltmp801:
	.loc	16 375 9 is_stmt 1
	movl	$144, %edx
	movl	$8, %esi
	callq	_memset
Ltmp802:
	.loc	16 0 9 is_stmt 0
	movabsq	$651061555542690057, %rax
Ltmp803:
	.loc	16 375 9
	movq	%rax, 3600(%r14)
	movq	%rax, 3608(%r14)
	movq	%rax, 3616(%r14)
	movq	%rax, 3624(%r14)
	movq	%rax, 3632(%r14)
	movq	%rax, 3640(%r14)
	movq	%rax, 3648(%r14)
	movq	%rax, 3656(%r14)
	movq	%rax, 3664(%r14)
	movq	%rax, 3672(%r14)
	movq	%rax, 3680(%r14)
	movq	%rax, 3688(%r14)
	movq	%rax, 3696(%r14)
	movq	%rax, 3704(%r14)
	movabsq	$506381209866536711, %rax
Ltmp804:
	.loc	16 375 9
	movq	%rax, 3712(%r14)
	movq	%rax, 3720(%r14)
	movq	%rax, 3728(%r14)
	movabsq	$578721382704613384, %rax
Ltmp805:
	.loc	16 375 9
	movq	%rax, 3736(%r14)
	movabsq	$361700864190383365, %rax
Ltmp806:
	.loc	16 375 9
	movq	%rax, 3768(%r14)
	movq	%rax, 3760(%r14)
	movq	%rax, 3752(%r14)
	movq	%rax, 3744(%r14)
Ltmp807:
	.loc	16 1052 9 is_stmt 1
	movl	$288, %edx
	movl	$15, %ecx
	movq	%r14, %rdi
	xorl	%esi, %esi
	movl	$1, %r8d
	callq	__ZN11miniz_oxide7deflate4core12HuffmanOxide14optimize_table17hd366e2faee5dbdffE
	.loc	16 1053 9
	movl	$1, %esi
	movl	$32, %edx
	movl	$15, %ecx
	movq	%r14, %rdi
	movl	$1, %r8d
	callq	__ZN11miniz_oxide7deflate4core12HuffmanOxide14optimize_table17hd366e2faee5dbdffE
	.loc	16 1055 9
	movq	%r13, %rdi
	movl	$1, %esi
	movl	$2, %edx
	callq	__ZN11miniz_oxide7deflate4core17OutputBufferOxide8put_bits17h1fa9b308dfa5baa6E
Ltmp808:
	.loc	16 1601 49
	movq	(%rbx), %r8
Ltmp809:
	.loc	20 2918 19
	cmpq	$65537, %r8
	.loc	20 2918 16 is_stmt 0
	jae	LBB33_174
Ltmp810:
LBB33_2:
	.loc	20 0 16
	movq	%r14, -48(%rbp)
Ltmp811:
	movq	%r13, %rax
Ltmp812:
	.loc	16 1498 31 is_stmt 1
	movl	24(%r13), %r13d
Ltmp813:
	.loc	16 1499 18
	movl	28(%rax), %r15d
Ltmp814:
	.loc	16 1503 11
	testq	%r8, %r8
	.loc	16 1503 5 is_stmt 0
	je	LBB33_78
Ltmp815:
	.loc	16 0 5
	movl	$1, %r11d
	xorl	%r14d, %r14d
Ltmp816:
	.p2align	4, 0x90
LBB33_4:
	.loc	16 1504 12 is_stmt 1
	cmpl	$1, %r11d
	.loc	16 1504 9 is_stmt 0
	jne	LBB33_16
Ltmp817:
	.loc	16 1505 31 is_stmt 1
	movzbl	24(%rbx,%r14), %eax
Ltmp818:
	.loc	16 1506 13
	incq	%r14
Ltmp819:
	.loc	16 1505 13
	orl	$256, %eax
Ltmp820:
	.loc	16 0 0 is_stmt 0
	movl	%eax, %r11d
	shrl	%r11d
Ltmp821:
	.loc	16 1510 12 is_stmt 1
	testb	$1, %al
	.loc	16 1510 9 is_stmt 0
	je	LBB33_17
Ltmp822:
LBB33_6:
	.loc	16 0 0
	cmpq	%r8, %r14
Ltmp823:
	.loc	16 1516 29 is_stmt 1
	jae	LBB33_182
Ltmp824:
	.loc	16 1518 55
	leaq	1(%r14), %rax
Ltmp825:
	.loc	16 390 5
	cmpq	%r8, %rax
	jae	LBB33_183
Ltmp826:
	.loc	16 390 33 is_stmt 0
	leaq	2(%r14), %rax
Ltmp827:
	.loc	16 390 27
	cmpq	%r8, %rax
	jae	LBB33_184
Ltmp828:
	.loc	16 0 0
	movzbl	24(%rbx,%r14), %r9d
Ltmp829:
	.loc	16 1522 46 is_stmt 1
	leaq	l___unnamed_79(%rip), %rax
	movzwl	(%rax,%r9,2), %ecx
	cmpq	$287, %rcx
	.loc	16 1522 27 is_stmt 0
	ja	LBB33_185
Ltmp830:
	.loc	16 0 27
	movq	-48(%rbp), %rax
	.loc	16 1522 27
	movzbl	3456(%rax,%rcx), %eax
	testq	%rax, %rax
Ltmp831:
	.loc	16 1522 13
	je	LBB33_186
Ltmp832:
	.loc	16 716 28 is_stmt 1
	cmpl	$63, %r15d
	ja	LBB33_175
Ltmp833:
	.loc	16 0 28 is_stmt 0
	movq	-48(%rbp), %rdx
	.loc	16 1524 27 is_stmt 1
	movzwl	1728(%rdx,%rcx,2), %r10d
Ltmp834:
	.loc	16 716 28
	movl	%r15d, %ecx
	shlq	%cl, %r10
Ltmp835:
	.loc	16 1528 55
	leaq	l___unnamed_80(%rip), %rcx
	movzbl	(%r9,%rcx), %edi
	cmpq	$17, %rdi
Ltmp836:
	.loc	16 1528 46 is_stmt 0
	jae	LBB33_187
Ltmp837:
	.loc	16 0 0
	movl	%r15d, %ecx
	addq	%rax, %rcx
Ltmp838:
	.loc	16 716 28 is_stmt 1
	cmpl	$63, %ecx
	ja	LBB33_175
Ltmp839:
	.loc	16 0 0 is_stmt 0
	movzbl	25(%rbx,%r14), %edx
Ltmp840:
	.loc	16 1528 17 is_stmt 1
	leaq	l___unnamed_81(%rip), %rax
	andl	(%rax,%rdi,4), %r9d
Ltmp841:
	.loc	16 0 17 is_stmt 0
	movq	%rbx, %r15
Ltmp842:
	movzbl	26(%rbx,%r14), %eax
	movq	%rax, %rbx
Ltmp843:
	.loc	16 716 28 is_stmt 1
	shlq	%cl, %r9
Ltmp844:
	.loc	16 0 0 is_stmt 0
	shlq	$8, %rbx
	orq	%rdx, %rbx
Ltmp845:
	.loc	16 1532 16 is_stmt 1
	movzwl	%bx, %r12d
	cmpl	$512, %r12d
	.loc	16 1532 13 is_stmt 0
	jae	LBB33_30
Ltmp846:
	.loc	16 1533 23 is_stmt 1
	leaq	l___unnamed_82(%rip), %rax
	leaq	(%rax,%rbx), %rdx
	.loc	16 1534 34
	leaq	l___unnamed_83(%rip), %rax
	addq	%rax, %rbx
Ltmp847:
	.loc	16 0 34 is_stmt 0
	jmp	LBB33_32
Ltmp848:
	.p2align	4, 0x90
LBB33_16:
	movl	%r11d, %eax
Ltmp849:
	shrl	%r11d
Ltmp850:
	.loc	16 1510 12 is_stmt 1
	testb	$1, %al
	.loc	16 1510 9 is_stmt 0
	jne	LBB33_6
Ltmp851:
LBB33_17:
	.loc	16 0 0
	cmpq	%r8, %r14
Ltmp852:
	.loc	16 1553 27 is_stmt 1
	jae	LBB33_188
Ltmp853:
	movzbl	24(%rbx,%r14), %ecx
	movq	-48(%rbp), %rdx
Ltmp854:
	.loc	16 1556 31
	movzbl	3456(%rdx,%rcx), %edi
	testq	%rdi, %rdi
Ltmp855:
	.loc	16 1556 17 is_stmt 0
	je	LBB33_181
Ltmp856:
	.loc	16 716 28 is_stmt 1
	cmpl	$63, %r15d
	ja	LBB33_175
Ltmp857:
	.loc	16 0 0 is_stmt 0
	leaq	1(%r14), %rdx
Ltmp858:
	movq	-48(%rbp), %rsi
	.loc	16 1558 31 is_stmt 1
	movzwl	1728(%rsi,%rcx,2), %r12d
Ltmp859:
	.loc	16 716 28
	movl	%r15d, %ecx
	shlq	%cl, %r12
Ltmp860:
	.loc	16 716 9 is_stmt 0
	orq	%r13, %r12
	.loc	16 716 28
	movl	%r15d, %r15d
	.loc	16 717 9 is_stmt 1
	addq	%rdi, %r15
Ltmp861:
	.loc	16 1562 38
	cmpq	%r8, %rdx
	.loc	16 1562 20 is_stmt 0
	jae	LBB33_29
Ltmp862:
	movl	%eax, %ecx
	andl	$2, %ecx
	movq	-80(%rbp), %rdi
	jne	LBB33_45
Ltmp863:
	.loc	16 1553 27 is_stmt 1
	movzbl	25(%rbx,%r14), %ecx
	movq	-48(%rbp), %rdx
Ltmp864:
	.loc	16 1556 31
	movzbl	3456(%rdx,%rcx), %esi
	testq	%rsi, %rsi
Ltmp865:
	.loc	16 1556 17 is_stmt 0
	je	LBB33_181
Ltmp866:
	.loc	16 716 28 is_stmt 1
	cmpl	$63, %r15d
	ja	LBB33_175
Ltmp867:
	.loc	16 0 0 is_stmt 0
	movl	%eax, %r11d
Ltmp868:
	shrl	$2, %r11d
Ltmp869:
	leaq	2(%r14), %rdx
Ltmp870:
	movq	-48(%rbp), %rdi
	.loc	16 1558 31 is_stmt 1
	movzwl	1728(%rdi,%rcx,2), %edi
Ltmp871:
	.loc	16 716 28
	movl	%r15d, %ecx
	shlq	%cl, %rdi
Ltmp872:
	.loc	16 716 9 is_stmt 0
	orq	%rdi, %r12
	.loc	16 716 28
	movl	%r15d, %r15d
	.loc	16 717 9 is_stmt 1
	addq	%rsi, %r15
Ltmp873:
	.loc	16 1562 38
	cmpq	%r8, %rdx
	.loc	16 1562 20 is_stmt 0
	jae	LBB33_29
Ltmp874:
	movl	%eax, %ecx
	andl	$4, %ecx
	jne	LBB33_29
Ltmp875:
	.loc	16 1553 27 is_stmt 1
	movzbl	26(%rbx,%r14), %ecx
	movq	-48(%rbp), %rdx
Ltmp876:
	.loc	16 1556 31
	movzbl	3456(%rdx,%rcx), %edx
	testl	%edx, %edx
Ltmp877:
	.loc	16 1556 17 is_stmt 0
	je	LBB33_181
Ltmp878:
	.loc	16 716 28 is_stmt 1
	cmpl	$63, %r15d
	ja	LBB33_175
Ltmp879:
	.loc	16 0 28 is_stmt 0
	movq	-48(%rbp), %rsi
	.loc	16 1558 31 is_stmt 1
	movzwl	1728(%rsi,%rcx,2), %esi
Ltmp880:
	.loc	16 716 28
	movl	%r15d, %ecx
	shlq	%cl, %rsi
Ltmp881:
	.loc	16 0 0 is_stmt 0
	shrl	$3, %eax
Ltmp882:
	addq	$3, %r14
Ltmp883:
	.loc	16 716 9
	orq	%rsi, %r12
Ltmp884:
	.loc	16 717 9 is_stmt 1
	addl	%r15d, %edx
Ltmp885:
	.loc	16 0 0 is_stmt 0
	movl	%edx, %r15d
Ltmp886:
	movl	%eax, %r11d
	jmp	LBB33_37
Ltmp887:
	.p2align	4, 0x90
LBB33_29:
	movq	%rdx, %r14
Ltmp888:
	jmp	LBB33_37
Ltmp889:
	.p2align	4, 0x90
LBB33_30:
	.loc	16 1536 23 is_stmt 1
	testw	%bx, %bx
	js	LBB33_197
Ltmp890:
	leaq	l___unnamed_84(%rip), %rdx
	addq	%rax, %rdx
	.loc	16 1537 34
	leaq	l___unnamed_85(%rip), %rsi
	addq	%rsi, %rax
	movq	%rax, %rbx
Ltmp891:
LBB33_32:
	.loc	16 0 0 is_stmt 0
	movzbl	(%rdx), %esi
Ltmp892:
	movq	-48(%rbp), %rax
	.loc	16 1540 27 is_stmt 1
	movzbl	3744(%rax,%rsi), %edx
	testq	%rdx, %rdx
Ltmp893:
	.loc	16 1540 13 is_stmt 0
	je	LBB33_189
Ltmp894:
	.loc	16 0 0
	movl	%ecx, %ecx
	addq	%rdi, %rcx
Ltmp895:
	.loc	16 716 28 is_stmt 1
	cmpl	$63, %ecx
	ja	LBB33_175
Ltmp896:
	.loc	16 0 28 is_stmt 0
	movzbl	(%rbx), %eax
Ltmp897:
	movq	-48(%rbp), %rdi
	.loc	16 1542 27 is_stmt 1
	movzwl	2304(%rdi,%rsi,2), %edi
Ltmp898:
	.loc	16 716 28
	shlq	%cl, %rdi
Ltmp899:
	.loc	16 1546 51
	cmpb	$17, %al
	jae	LBB33_190
Ltmp900:
	.loc	16 0 0 is_stmt 0
	movl	%ecx, %ecx
	addq	%rdx, %rcx
Ltmp901:
	.loc	16 716 28 is_stmt 1
	cmpl	$64, %ecx
	jae	LBB33_175
Ltmp902:
	.loc	16 0 28 is_stmt 0
	movq	%r15, %rbx
	addq	$3, %r14
Ltmp903:
	orq	%r13, %r10
	orq	%r9, %r10
	orq	%rdi, %r10
Ltmp904:
	.loc	16 717 9 is_stmt 1
	leal	(%rcx,%rax), %r15d
Ltmp905:
	.loc	16 1546 17
	leaq	l___unnamed_81(%rip), %rdx
	andl	(%rdx,%rax,4), %r12d
Ltmp906:
	.loc	16 716 28
	shlq	%cl, %r12
Ltmp907:
	.loc	16 716 9 is_stmt 0
	orq	%r10, %r12
Ltmp908:
LBB33_37:
	.loc	16 0 9
	movq	-80(%rbp), %rdi
Ltmp909:
	.loc	16 721 19 is_stmt 1
	movq	16(%rdi), %rcx
Ltmp910:
	.loc	16 724 48
	movq	%rcx, %rax
	addq	$8, %rax
	jb	LBB33_46
Ltmp911:
LBB33_38:
	.loc	20 2926 12
	movq	%rax, %rdx
	subq	%rcx, %rdx
	.loc	20 2926 9 is_stmt 0
	jb	LBB33_177
Ltmp912:
	.loc	16 0 0
	movq	8(%rdi), %rsi
Ltmp913:
	.loc	20 2928 19 is_stmt 1
	cmpq	%rax, %rsi
	.loc	20 2928 16 is_stmt 0
	jb	LBB33_178
Ltmp914:
	.loc	16 0 0
	movq	(%rdi), %rax
Ltmp915:
	.loc	20 2302 20 is_stmt 1
	movq	%rdx, -96(%rbp)
	.loc	20 2302 32 is_stmt 0
	movq	$8, -64(%rbp)
Ltmp916:
	.loc	14 63 21 is_stmt 1
	cmpq	$8, %rdx
	.loc	14 63 17 is_stmt 0
	jne	LBB33_179
Ltmp917:
	.loc	21 2058 5 is_stmt 1
	movq	%r12, (%rax,%rcx)
Ltmp918:
	.loc	16 728 44
	movl	%r15d, %ecx
Ltmp919:
	shrl	$3, %ecx
Ltmp920:
	.loc	16 0 44 is_stmt 0
	movb	$2, %al
Ltmp921:
	.loc	9 3632 30 is_stmt 1
	addq	16(%rdi), %rcx
Ltmp922:
	.loc	16 729 13
	jb	LBB33_134
Ltmp923:
	cmpq	8(%rdi), %rcx
	ja	LBB33_134
Ltmp924:
	.loc	16 729 51 is_stmt 0
	movq	%rcx, 16(%rdi)
Ltmp925:
	.loc	16 732 9 is_stmt 1
	cmpl	$63, %r15d
	ja	LBB33_180
Ltmp926:
	movl	%r15d, %ecx
	andb	$56, %cl
	shrq	%cl, %r12
	.loc	16 733 9
	andl	$7, %r15d
	movq	%r12, %r13
Ltmp927:
	.loc	16 1503 11
	cmpq	%r8, %r14
	jb	LBB33_4
	jmp	LBB33_79
Ltmp928:
LBB33_45:
	.loc	16 0 0 is_stmt 0
	movq	%rdx, %r14
Ltmp929:
	.loc	16 721 19 is_stmt 1
	movq	16(%rdi), %rcx
Ltmp930:
	.loc	16 724 48
	movq	%rcx, %rax
	addq	$8, %rax
	jae	LBB33_38
Ltmp931:
LBB33_46:
	leaq	_str.0(%rip), %rdi
	leaq	l___unnamed_86(%rip), %rdx
	movl	$28, %esi
	callq	__ZN4core9panicking5panic17h736ee47a631475c0E
Ltmp932:
LBB33_47:
	.loc	16 1060 9
	movw	$1, 512(%r14)
	.loc	16 1062 9
	movl	$288, %edx
	movl	$15, %ecx
Ltmp933:
	movq	%r14, %rdi
	xorl	%esi, %esi
Ltmp934:
	xorl	%r8d, %r8d
	callq	__ZN11miniz_oxide7deflate4core12HuffmanOxide14optimize_table17hd366e2faee5dbdffE
	.loc	16 1063 9
	movl	$1, %esi
	movl	$32, %edx
	movl	$15, %ecx
	movq	%r14, %rdi
	xorl	%r8d, %r8d
	callq	__ZN11miniz_oxide7deflate4core12HuffmanOxide14optimize_table17hd366e2faee5dbdffE
	movl	$286, %r13d
Ltmp935:
	.loc	16 1069 34
	cmpb	$0, 3741(%r14)
Ltmp936:
	.loc	25 1753 17
	jne	LBB33_76
Ltmp937:
	.loc	25 0 17 is_stmt 0
	movl	$285, %r13d
Ltmp938:
	.loc	16 1069 34 is_stmt 1
	cmpb	$0, 3740(%r14)
Ltmp939:
	.loc	25 1753 17
	jne	LBB33_76
Ltmp940:
	.loc	25 0 17 is_stmt 0
	movl	$284, %r13d
Ltmp941:
	.loc	16 1069 34 is_stmt 1
	cmpb	$0, 3739(%r14)
Ltmp942:
	.loc	25 1753 17
	jne	LBB33_76
Ltmp943:
	.loc	25 0 17 is_stmt 0
	movl	$283, %r13d
Ltmp944:
	.loc	16 1069 34 is_stmt 1
	cmpb	$0, 3738(%r14)
Ltmp945:
	.loc	25 1753 17
	jne	LBB33_76
Ltmp946:
	.loc	25 0 17 is_stmt 0
	movl	$282, %r13d
Ltmp947:
	.loc	16 1069 34 is_stmt 1
	cmpb	$0, 3737(%r14)
Ltmp948:
	.loc	25 1753 17
	jne	LBB33_76
Ltmp949:
	.loc	25 0 17 is_stmt 0
	movl	$281, %r13d
Ltmp950:
	.loc	16 1069 34 is_stmt 1
	cmpb	$0, 3736(%r14)
Ltmp951:
	.loc	25 1753 17
	jne	LBB33_76
Ltmp952:
	.loc	25 0 17 is_stmt 0
	movl	$280, %r13d
Ltmp953:
	.loc	16 1069 34 is_stmt 1
	cmpb	$0, 3735(%r14)
Ltmp954:
	.loc	25 1753 17
	jne	LBB33_76
Ltmp955:
	.loc	25 0 17 is_stmt 0
	movl	$279, %r13d
Ltmp956:
	.loc	16 1069 34 is_stmt 1
	cmpb	$0, 3734(%r14)
Ltmp957:
	.loc	25 1753 17
	jne	LBB33_76
Ltmp958:
	.loc	25 0 17 is_stmt 0
	movl	$278, %r13d
Ltmp959:
	.loc	16 1069 34 is_stmt 1
	cmpb	$0, 3733(%r14)
Ltmp960:
	.loc	25 1753 17
	jne	LBB33_76
Ltmp961:
	.loc	25 0 17 is_stmt 0
	movl	$277, %r13d
Ltmp962:
	.loc	16 1069 34 is_stmt 1
	cmpb	$0, 3732(%r14)
Ltmp963:
	.loc	25 1753 17
	jne	LBB33_76
Ltmp964:
	.loc	25 0 17 is_stmt 0
	movl	$276, %r13d
Ltmp965:
	.loc	16 1069 34 is_stmt 1
	cmpb	$0, 3731(%r14)
Ltmp966:
	.loc	25 1753 17
	jne	LBB33_76
Ltmp967:
	.loc	25 0 17 is_stmt 0
	movl	$275, %r13d
Ltmp968:
	.loc	16 1069 34 is_stmt 1
	cmpb	$0, 3730(%r14)
Ltmp969:
	.loc	25 1753 17
	jne	LBB33_76
Ltmp970:
	.loc	25 0 17 is_stmt 0
	movl	$274, %r13d
Ltmp971:
	.loc	16 1069 34 is_stmt 1
	cmpb	$0, 3729(%r14)
Ltmp972:
	.loc	25 1753 17
	jne	LBB33_76
Ltmp973:
	.loc	25 0 17 is_stmt 0
	movl	$273, %r13d
Ltmp974:
	.loc	16 1069 34 is_stmt 1
	cmpb	$0, 3728(%r14)
Ltmp975:
	.loc	25 1753 17
	jne	LBB33_76
Ltmp976:
	.loc	25 0 17 is_stmt 0
	movl	$272, %r13d
Ltmp977:
	.loc	16 1069 34 is_stmt 1
	cmpb	$0, 3727(%r14)
Ltmp978:
	.loc	25 1753 17
	jne	LBB33_76
Ltmp979:
	.loc	25 0 17 is_stmt 0
	movl	$271, %r13d
Ltmp980:
	.loc	16 1069 34 is_stmt 1
	cmpb	$0, 3726(%r14)
Ltmp981:
	.loc	25 1753 17
	jne	LBB33_76
Ltmp982:
	.loc	25 0 17 is_stmt 0
	movl	$270, %r13d
Ltmp983:
	.loc	16 1069 34 is_stmt 1
	cmpb	$0, 3725(%r14)
Ltmp984:
	.loc	25 1753 17
	jne	LBB33_76
Ltmp985:
	.loc	25 0 17 is_stmt 0
	movl	$269, %r13d
Ltmp986:
	.loc	16 1069 34 is_stmt 1
	cmpb	$0, 3724(%r14)
Ltmp987:
	.loc	25 1753 17
	jne	LBB33_76
Ltmp988:
	.loc	25 0 17 is_stmt 0
	movl	$268, %r13d
Ltmp989:
	.loc	16 1069 34 is_stmt 1
	cmpb	$0, 3723(%r14)
Ltmp990:
	.loc	25 1753 17
	jne	LBB33_76
Ltmp991:
	.loc	25 0 17 is_stmt 0
	movl	$267, %r13d
Ltmp992:
	.loc	16 1069 34 is_stmt 1
	cmpb	$0, 3722(%r14)
Ltmp993:
	.loc	25 1753 17
	jne	LBB33_76
Ltmp994:
	.loc	25 0 17 is_stmt 0
	movl	$266, %r13d
Ltmp995:
	.loc	16 1069 34 is_stmt 1
	cmpb	$0, 3721(%r14)
Ltmp996:
	.loc	25 1753 17
	jne	LBB33_76
Ltmp997:
	.loc	25 0 17 is_stmt 0
	movl	$265, %r13d
Ltmp998:
	.loc	16 1069 34 is_stmt 1
	cmpb	$0, 3720(%r14)
Ltmp999:
	.loc	25 1753 17
	jne	LBB33_76
Ltmp1000:
	.loc	25 0 17 is_stmt 0
	movl	$264, %r13d
Ltmp1001:
	.loc	16 1069 34 is_stmt 1
	cmpb	$0, 3719(%r14)
Ltmp1002:
	.loc	25 1753 17
	jne	LBB33_76
Ltmp1003:
	.loc	25 0 17 is_stmt 0
	movl	$263, %r13d
Ltmp1004:
	.loc	16 1069 34 is_stmt 1
	cmpb	$0, 3718(%r14)
Ltmp1005:
	.loc	25 1753 17
	jne	LBB33_76
Ltmp1006:
	.loc	25 0 17 is_stmt 0
	movl	$262, %r13d
Ltmp1007:
	.loc	16 1069 34 is_stmt 1
	cmpb	$0, 3717(%r14)
Ltmp1008:
	.loc	25 1753 17
	jne	LBB33_76
Ltmp1009:
	.loc	25 0 17 is_stmt 0
	movl	$261, %r13d
Ltmp1010:
	.loc	16 1069 34 is_stmt 1
	cmpb	$0, 3716(%r14)
Ltmp1011:
	.loc	25 1753 17
	jne	LBB33_76
Ltmp1012:
	.loc	25 0 17 is_stmt 0
	movl	$260, %r13d
Ltmp1013:
	.loc	16 1069 34 is_stmt 1
	cmpb	$0, 3715(%r14)
Ltmp1014:
	.loc	25 1753 17
	jne	LBB33_76
Ltmp1015:
	.loc	25 0 17 is_stmt 0
	movl	$259, %r13d
Ltmp1016:
	.loc	16 1069 34 is_stmt 1
	cmpb	$0, 3714(%r14)
Ltmp1017:
	.loc	25 1753 17
	jne	LBB33_76
Ltmp1018:
	cmpb	$1, 3713(%r14)
	movl	$258, %r13d
	sbbq	$0, %r13
Ltmp1019:
LBB33_76:
	.loc	16 1076 34
	cmpb	$0, 3773(%r14)
	movq	%rbx, -160(%rbp)
Ltmp1020:
	.loc	25 1753 17
	je	LBB33_84
Ltmp1021:
	.loc	25 0 17 is_stmt 0
	xorl	%eax, %eax
	jmp	LBB33_112
Ltmp1022:
LBB33_78:
	.loc	16 1497 18 is_stmt 1
	movq	%r13, %r12
Ltmp1023:
LBB33_79:
	.loc	16 0 18 is_stmt 0
	movq	-80(%rbp), %r13
Ltmp1024:
	.loc	16 1572 5 is_stmt 1
	movq	$0, 24(%r13)
	.loc	16 1573 11
	testl	%r15d, %r15d
	.loc	16 1573 5 is_stmt 0
	je	LBB33_83
Ltmp1025:
	.loc	16 0 5
	leaq	l___unnamed_81(%rip), %r14
Ltmp1026:
	.p2align	4, 0x90
LBB33_81:
	cmpl	$16, %r15d
	movl	$16, %ebx
	cmovbl	%r15d, %ebx
Ltmp1027:
	movl	(%r14,%rbx,4), %esi
Ltmp1028:
	.loc	16 1575 25 is_stmt 1
	andl	%r12d, %esi
	.loc	16 1575 9 is_stmt 0
	movq	%r13, %rdi
	movl	%ebx, %edx
	callq	__ZN11miniz_oxide7deflate4core17OutputBufferOxide8put_bits17h1fa9b308dfa5baa6E
Ltmp1029:
	.loc	16 1577 9 is_stmt 1
	subl	%ebx, %r15d
Ltmp1030:
	jb	LBB33_176
Ltmp1031:
	.loc	16 1576 9
	movl	%ebx, %ecx
	shrq	%cl, %r12
Ltmp1032:
	.loc	16 1573 11
	testl	%r15d, %r15d
	.loc	16 1573 5 is_stmt 0
	jne	LBB33_81
Ltmp1033:
LBB33_83:
	.loc	16 0 5
	movq	-48(%rbp), %rax
	.loc	16 1582 19 is_stmt 1
	movzwl	2240(%rax), %esi
Ltmp1034:
	.loc	16 1583 19
	movzbl	3712(%rax), %edx
Ltmp1035:
	.loc	16 1581 5
	movq	%r13, %rdi
	callq	__ZN11miniz_oxide7deflate4core17OutputBufferOxide8put_bits17h1fa9b308dfa5baa6E
	movb	$1, %al
	jmp	LBB33_134
Ltmp1036:
LBB33_84:
	.loc	16 0 5 is_stmt 0
	movl	$1, %eax
Ltmp1037:
	.loc	16 1076 34 is_stmt 1
	cmpb	$0, 3772(%r14)
Ltmp1038:
	.loc	25 1753 17
	jne	LBB33_112
Ltmp1039:
	.loc	25 0 17 is_stmt 0
	movl	$2, %eax
Ltmp1040:
	.loc	16 1076 34 is_stmt 1
	cmpb	$0, 3771(%r14)
Ltmp1041:
	.loc	25 1753 17
	jne	LBB33_112
Ltmp1042:
	.loc	25 0 17 is_stmt 0
	movl	$3, %eax
Ltmp1043:
	.loc	16 1076 34 is_stmt 1
	cmpb	$0, 3770(%r14)
Ltmp1044:
	.loc	25 1753 17
	jne	LBB33_112
Ltmp1045:
	.loc	25 0 17 is_stmt 0
	movl	$4, %eax
Ltmp1046:
	.loc	16 1076 34 is_stmt 1
	cmpb	$0, 3769(%r14)
Ltmp1047:
	.loc	25 1753 17
	jne	LBB33_112
Ltmp1048:
	.loc	25 0 17 is_stmt 0
	movl	$5, %eax
Ltmp1049:
	.loc	16 1076 34 is_stmt 1
	cmpb	$0, 3768(%r14)
Ltmp1050:
	.loc	25 1753 17
	jne	LBB33_112
Ltmp1051:
	.loc	25 0 17 is_stmt 0
	movl	$6, %eax
Ltmp1052:
	.loc	16 1076 34 is_stmt 1
	cmpb	$0, 3767(%r14)
Ltmp1053:
	.loc	25 1753 17
	jne	LBB33_112
Ltmp1054:
	.loc	25 0 17 is_stmt 0
	movl	$7, %eax
Ltmp1055:
	.loc	16 1076 34 is_stmt 1
	cmpb	$0, 3766(%r14)
Ltmp1056:
	.loc	25 1753 17
	jne	LBB33_112
Ltmp1057:
	.loc	25 0 17 is_stmt 0
	movl	$8, %eax
Ltmp1058:
	.loc	16 1076 34 is_stmt 1
	cmpb	$0, 3765(%r14)
Ltmp1059:
	.loc	25 1753 17
	jne	LBB33_112
Ltmp1060:
	.loc	25 0 17 is_stmt 0
	movl	$9, %eax
Ltmp1061:
	.loc	16 1076 34 is_stmt 1
	cmpb	$0, 3764(%r14)
Ltmp1062:
	.loc	25 1753 17
	jne	LBB33_112
Ltmp1063:
	.loc	25 0 17 is_stmt 0
	movl	$10, %eax
Ltmp1064:
	.loc	16 1076 34 is_stmt 1
	cmpb	$0, 3763(%r14)
Ltmp1065:
	.loc	25 1753 17
	jne	LBB33_112
Ltmp1066:
	.loc	25 0 17 is_stmt 0
	movl	$11, %eax
Ltmp1067:
	.loc	16 1076 34 is_stmt 1
	cmpb	$0, 3762(%r14)
Ltmp1068:
	.loc	25 1753 17
	jne	LBB33_112
Ltmp1069:
	.loc	25 0 17 is_stmt 0
	movl	$12, %eax
Ltmp1070:
	.loc	16 1076 34 is_stmt 1
	cmpb	$0, 3761(%r14)
Ltmp1071:
	.loc	25 1753 17
	jne	LBB33_112
Ltmp1072:
	.loc	25 0 17 is_stmt 0
	movl	$13, %eax
Ltmp1073:
	.loc	16 1076 34 is_stmt 1
	cmpb	$0, 3760(%r14)
Ltmp1074:
	.loc	25 1753 17
	jne	LBB33_112
Ltmp1075:
	.loc	25 0 17 is_stmt 0
	movl	$14, %eax
Ltmp1076:
	.loc	16 1076 34 is_stmt 1
	cmpb	$0, 3759(%r14)
Ltmp1077:
	.loc	25 1753 17
	jne	LBB33_112
Ltmp1078:
	.loc	25 0 17 is_stmt 0
	movl	$15, %eax
Ltmp1079:
	.loc	16 1076 34 is_stmt 1
	cmpb	$0, 3758(%r14)
Ltmp1080:
	.loc	25 1753 17
	jne	LBB33_112
Ltmp1081:
	.loc	25 0 17 is_stmt 0
	movl	$16, %eax
Ltmp1082:
	.loc	16 1076 34 is_stmt 1
	cmpb	$0, 3757(%r14)
Ltmp1083:
	.loc	25 1753 17
	jne	LBB33_112
Ltmp1084:
	.loc	25 0 17 is_stmt 0
	movl	$17, %eax
Ltmp1085:
	.loc	16 1076 34 is_stmt 1
	cmpb	$0, 3756(%r14)
Ltmp1086:
	.loc	25 1753 17
	jne	LBB33_112
Ltmp1087:
	.loc	25 0 17 is_stmt 0
	movl	$18, %eax
Ltmp1088:
	.loc	16 1076 34 is_stmt 1
	cmpb	$0, 3755(%r14)
Ltmp1089:
	.loc	25 1753 17
	jne	LBB33_112
Ltmp1090:
	.loc	25 0 17 is_stmt 0
	movl	$19, %eax
Ltmp1091:
	.loc	16 1076 34 is_stmt 1
	cmpb	$0, 3754(%r14)
Ltmp1092:
	.loc	25 1753 17
	jne	LBB33_112
Ltmp1093:
	.loc	25 0 17 is_stmt 0
	movl	$20, %eax
Ltmp1094:
	.loc	16 1076 34 is_stmt 1
	cmpb	$0, 3753(%r14)
Ltmp1095:
	.loc	25 1753 17
	jne	LBB33_112
Ltmp1096:
	.loc	25 0 17 is_stmt 0
	movl	$21, %eax
Ltmp1097:
	.loc	16 1076 34 is_stmt 1
	cmpb	$0, 3752(%r14)
Ltmp1098:
	.loc	25 1753 17
	jne	LBB33_112
Ltmp1099:
	.loc	25 0 17 is_stmt 0
	movl	$22, %eax
Ltmp1100:
	.loc	16 1076 34 is_stmt 1
	cmpb	$0, 3751(%r14)
Ltmp1101:
	.loc	25 1753 17
	jne	LBB33_112
Ltmp1102:
	.loc	25 0 17 is_stmt 0
	movl	$23, %eax
Ltmp1103:
	.loc	16 1076 34 is_stmt 1
	cmpb	$0, 3750(%r14)
Ltmp1104:
	.loc	25 1753 17
	jne	LBB33_112
Ltmp1105:
	.loc	25 0 17 is_stmt 0
	movl	$24, %eax
Ltmp1106:
	.loc	16 1076 34 is_stmt 1
	cmpb	$0, 3749(%r14)
Ltmp1107:
	.loc	25 1753 17
	jne	LBB33_112
Ltmp1108:
	.loc	25 0 17 is_stmt 0
	movl	$25, %eax
Ltmp1109:
	.loc	16 1076 34 is_stmt 1
	cmpb	$0, 3748(%r14)
Ltmp1110:
	.loc	25 1753 17
	jne	LBB33_112
Ltmp1111:
	.loc	25 0 17 is_stmt 0
	movl	$26, %eax
Ltmp1112:
	.loc	16 1076 34 is_stmt 1
	cmpb	$0, 3747(%r14)
Ltmp1113:
	.loc	25 1753 17
	jne	LBB33_112
Ltmp1114:
	.loc	25 0 17 is_stmt 0
	movl	$27, %eax
Ltmp1115:
	.loc	16 1076 34 is_stmt 1
	cmpb	$0, 3746(%r14)
Ltmp1116:
	.loc	25 1753 17
	jne	LBB33_112
Ltmp1117:
	.loc	16 1076 34
	xorl	%eax, %eax
	cmpb	$0, 3745(%r14)
	sete	%al
Ltmp1118:
	.loc	25 1753 17
	orq	$28, %rax
Ltmp1119:
LBB33_112:
	.loc	25 0 17 is_stmt 0
	movq	%rax, -48(%rbp)
	movl	$30, %r15d
Ltmp1120:
	.loc	23 194 45 is_stmt 1
	subq	%rax, %r15
Ltmp1121:
	.loc	23 0 45 is_stmt 0
	leaq	-600(%rbp), %rdi
	movl	$320, %ebx
Ltmp1122:
	.loc	16 1080 37 is_stmt 1
	movl	$320, %esi
	callq	___bzero
Ltmp1123:
	.loc	20 377 9
	leaq	3456(%r14), %rax
Ltmp1124:
	.loc	20 0 9 is_stmt 0
	movq	%rax, -88(%rbp)
Ltmp1125:
	.loc	21 2058 5 is_stmt 1
	subq	%r13, %rbx
	leaq	-920(%rbp,%r13), %r12
	movq	%r12, %rdi
	movq	%rbx, %rsi
	callq	___bzero
	leaq	-920(%rbp), %rdi
Ltmp1126:
	.loc	21 0 5 is_stmt 0
	movq	-88(%rbp), %rsi
	.loc	21 2058 5
	movq	%r13, %rdx
	callq	_memcpy
Ltmp1127:
	.loc	20 377 9 is_stmt 1
	leaq	3744(%r14), %rsi
Ltmp1128:
	.loc	21 2058 5
	movq	%r12, %rdi
	movq	%r15, -152(%rbp)
Ltmp1129:
	movq	%r15, %rdx
	callq	_memcpy
Ltmp1130:
	.loc	16 1089 23
	movq	$0, -64(%rbp)
	movb	$-1, -56(%rbp)
Ltmp1131:
	.loc	16 375 9
	movq	$0, 1182(%r14)
	movq	$0, 1176(%r14)
	movq	$0, 1168(%r14)
	movq	$0, 1160(%r14)
	movq	$0, 1152(%r14)
Ltmp1132:
	.loc	16 1097 30
	movq	$0, -72(%rbp)
Ltmp1133:
	.loc	16 0 30 is_stmt 0
	movq	%r13, -88(%rbp)
Ltmp1134:
	.loc	20 3303 21 is_stmt 1
	movq	%r13, %rbx
	subq	-48(%rbp), %rbx
	addq	$30, %rbx
	xorl	%r12d, %r12d
Ltmp1135:
	.loc	20 0 21 is_stmt 0
	movq	-80(%rbp), %r13
	jmp	LBB33_115
Ltmp1136:
	.p2align	4, 0x90
LBB33_113:
	testb	%al, %al
	jne	LBB33_133
Ltmp1137:
LBB33_114:
	.loc	16 1119 13 is_stmt 1
	movb	%r15b, -56(%rbp)
Ltmp1138:
	.loc	20 3179 9
	incq	%r12
	cmpq	%r12, %rbx
	.loc	20 3303 21
	je	LBB33_131
Ltmp1139:
LBB33_115:
	.loc	16 1098 14
	movzbl	-920(%rbp,%r12), %r15d
Ltmp1140:
	.loc	16 1100 17
	leaq	-64(%rbp), %rdi
	leaq	-600(%rbp), %rsi
	leaq	-72(%rbp), %rdx
	movq	%r14, %rcx
Ltmp1141:
	.loc	16 1098 14
	testq	%r15, %r15
Ltmp1142:
	.loc	16 1099 13
	je	LBB33_121
Ltmp1143:
	.loc	16 1106 17
	callq	__ZN11miniz_oxide7deflate4core3RLE14zero_code_size17h211dfedf0cad449eE
	.loc	16 1106 82 is_stmt 0
	testb	%al, %al
	jne	LBB33_133
Ltmp1144:
	.loc	16 1107 20 is_stmt 1
	cmpb	-56(%rbp), %r15b
	.loc	16 1107 17 is_stmt 0
	jne	LBB33_125
Ltmp1145:
	.loc	16 1113 21 is_stmt 1
	movl	-60(%rbp), %eax
	incl	%eax
	je	LBB33_194
Ltmp1146:
	movl	%eax, -60(%rbp)
	.loc	16 1114 24
	cmpl	$6, %eax
	.loc	16 1114 21 is_stmt 0
	jne	LBB33_114
Ltmp1147:
	.loc	16 1115 25 is_stmt 1
	leaq	-64(%rbp), %rdi
	leaq	-600(%rbp), %rsi
	leaq	-72(%rbp), %rdx
	movq	%r14, %rcx
	callq	__ZN11miniz_oxide7deflate4core3RLE14prev_code_size17h437cd0f17edb0bfaE
	jmp	LBB33_113
Ltmp1148:
	.p2align	4, 0x90
LBB33_121:
	.loc	16 1100 17
	callq	__ZN11miniz_oxide7deflate4core3RLE14prev_code_size17h437cd0f17edb0bfaE
	.loc	16 1100 82 is_stmt 0
	testb	%al, %al
	jne	LBB33_133
Ltmp1149:
	.loc	16 1101 17 is_stmt 1
	movl	-64(%rbp), %eax
	incl	%eax
	je	LBB33_191
Ltmp1150:
	movl	%eax, -64(%rbp)
	.loc	16 1102 20
	cmpl	$138, %eax
	.loc	16 1102 17 is_stmt 0
	jne	LBB33_114
Ltmp1151:
	.loc	16 1103 21 is_stmt 1
	leaq	-64(%rbp), %rdi
	leaq	-600(%rbp), %rsi
	leaq	-72(%rbp), %rdx
	movq	%r14, %rcx
	callq	__ZN11miniz_oxide7deflate4core3RLE14zero_code_size17h211dfedf0cad449eE
	jmp	LBB33_113
Ltmp1152:
	.p2align	4, 0x90
LBB33_125:
	.loc	16 1108 21
	leaq	-64(%rbp), %rdi
	leaq	-600(%rbp), %rsi
	leaq	-72(%rbp), %rdx
	movq	%r14, %rcx
	callq	__ZN11miniz_oxide7deflate4core3RLE14prev_code_size17h437cd0f17edb0bfaE
	.loc	16 1108 86 is_stmt 0
	testb	%al, %al
	jne	LBB33_133
Ltmp1153:
	.loc	16 1109 21 is_stmt 1
	incw	1152(%r14,%r15,2)
Ltmp1154:
	.loc	16 818 23
	movq	-72(%rbp), %rax
Ltmp1155:
	.loc	16 818 33 is_stmt 0
	movq	%rax, %rcx
	incq	%rcx
	je	LBB33_195
Ltmp1156:
	.loc	20 2897 12 is_stmt 1
	movq	%rcx, %rdx
	subq	%rax, %rdx
Ltmp1157:
	.loc	16 819 9
	jb	LBB33_133
Ltmp1158:
	cmpq	$320, %rcx
	ja	LBB33_133
Ltmp1159:
	.loc	20 2302 20
	movq	%rdx, -168(%rbp)
	.loc	20 2302 32 is_stmt 0
	movq	$1, -176(%rbp)
Ltmp1160:
	.loc	14 63 21 is_stmt 1
	cmpq	$1, %rdx
	.loc	14 63 17 is_stmt 0
	jne	LBB33_196
Ltmp1161:
	.loc	21 2058 5 is_stmt 1
	movb	%r15b, -600(%rbp,%rax)
Ltmp1162:
	.loc	16 822 5
	movq	%rcx, -72(%rbp)
Ltmp1163:
	.loc	16 1119 13
	movb	%r15b, -56(%rbp)
Ltmp1164:
	.loc	20 3179 9
	incq	%r12
	cmpq	%r12, %rbx
	.loc	20 3303 21
	jne	LBB33_115
Ltmp1165:
LBB33_131:
	.loc	16 1122 12
	cmpl	$0, -60(%rbp)
	.loc	16 1122 9 is_stmt 0
	je	LBB33_135
Ltmp1166:
	.loc	16 0 9
	leaq	-64(%rbp), %rdi
	leaq	-600(%rbp), %rsi
	leaq	-72(%rbp), %rdx
	.loc	16 1123 13 is_stmt 1
	movq	%r14, %rcx
	callq	__ZN11miniz_oxide7deflate4core3RLE14prev_code_size17h437cd0f17edb0bfaE
	.loc	16 0 0 is_stmt 0
	testb	%al, %al
	je	LBB33_136
Ltmp1167:
LBB33_133:
	movb	$2, %al
Ltmp1168:
LBB33_134:
	.loc	16 1602 2 is_stmt 1
	addq	$888, %rsp
	popq	%rbx
	popq	%r12
	popq	%r13
	popq	%r14
	popq	%r15
	popq	%rbp
	retq
LBB33_135:
Ltmp1169:
	.loc	16 0 2 is_stmt 0
	leaq	-64(%rbp), %rdi
	leaq	-600(%rbp), %rsi
	leaq	-72(%rbp), %rdx
Ltmp1170:
	.loc	16 1125 13 is_stmt 1
	movq	%r14, %rcx
	callq	__ZN11miniz_oxide7deflate4core3RLE14zero_code_size17h211dfedf0cad449eE
	.loc	16 0 0 is_stmt 0
	testb	%al, %al
	jne	LBB33_133
Ltmp1171:
LBB33_136:
	.loc	16 1128 9 is_stmt 1
	movl	$2, %esi
	movl	$19, %edx
	movl	$7, %ecx
	movq	%r14, %rdi
	xorl	%r8d, %r8d
	callq	__ZN11miniz_oxide7deflate4core12HuffmanOxide14optimize_table17hd366e2faee5dbdffE
	.loc	16 1130 9
	movq	%r13, %rdi
	movl	$2, %esi
	movl	$2, %edx
	callq	__ZN11miniz_oxide7deflate4core17OutputBufferOxide8put_bits17h1fa9b308dfa5baa6E
	movq	-88(%rbp), %rsi
	.loc	16 1132 25
	subq	$257, %rsi
	jb	LBB33_201
Ltmp1172:
	.loc	16 1132 9 is_stmt 0
	movq	%r13, %rdi
	movl	$5, %edx
	callq	__ZN11miniz_oxide7deflate4core17OutputBufferOxide8put_bits17h1fa9b308dfa5baa6E
	movq	-152(%rbp), %rsi
	.loc	16 1133 25 is_stmt 1
	subq	$1, %rsi
	jb	LBB33_202
Ltmp1173:
	.loc	16 1133 9 is_stmt 0
	movq	%r13, %rdi
	movl	$5, %edx
	callq	__ZN11miniz_oxide7deflate4core17OutputBufferOxide8put_bits17h1fa9b308dfa5baa6E
Ltmp1174:
	.loc	16 1139 40 is_stmt 1
	cmpb	$0, 4047(%r14)
Ltmp1175:
	.loc	25 1753 17
	je	LBB33_140
Ltmp1176:
	.loc	25 0 17 is_stmt 0
	xorl	%eax, %eax
	movl	$18, %ecx
	.loc	16 1135 35 is_stmt 1
	subq	%rax, %rcx
	jae	LBB33_159
Ltmp1177:
LBB33_203:
	leaq	_str.1(%rip), %rdi
	leaq	l___unnamed_87(%rip), %rdx
	movl	$33, %esi
	callq	__ZN4core9panicking5panic17h736ee47a631475c0E
Ltmp1178:
LBB33_140:
	.loc	16 0 35 is_stmt 0
	movl	$1, %eax
Ltmp1179:
	.loc	16 1139 40 is_stmt 1
	cmpb	$0, 4033(%r14)
Ltmp1180:
	.loc	25 1753 17
	jne	LBB33_158
Ltmp1181:
	.loc	25 0 17 is_stmt 0
	movl	$2, %eax
Ltmp1182:
	.loc	16 1139 40 is_stmt 1
	cmpb	$0, 4046(%r14)
Ltmp1183:
	.loc	25 1753 17
	jne	LBB33_158
Ltmp1184:
	.loc	25 0 17 is_stmt 0
	movl	$3, %eax
Ltmp1185:
	.loc	16 1139 40 is_stmt 1
	cmpb	$0, 4034(%r14)
Ltmp1186:
	.loc	25 1753 17
	jne	LBB33_158
Ltmp1187:
	.loc	25 0 17 is_stmt 0
	movl	$4, %eax
Ltmp1188:
	.loc	16 1139 40 is_stmt 1
	cmpb	$0, 4045(%r14)
Ltmp1189:
	.loc	25 1753 17
	jne	LBB33_158
Ltmp1190:
	.loc	25 0 17 is_stmt 0
	movl	$5, %eax
Ltmp1191:
	.loc	16 1139 40 is_stmt 1
	cmpb	$0, 4035(%r14)
Ltmp1192:
	.loc	25 1753 17
	jne	LBB33_158
Ltmp1193:
	.loc	25 0 17 is_stmt 0
	movl	$6, %eax
Ltmp1194:
	.loc	16 1139 40 is_stmt 1
	cmpb	$0, 4044(%r14)
Ltmp1195:
	.loc	25 1753 17
	jne	LBB33_158
Ltmp1196:
	.loc	25 0 17 is_stmt 0
	movl	$7, %eax
Ltmp1197:
	.loc	16 1139 40 is_stmt 1
	cmpb	$0, 4036(%r14)
Ltmp1198:
	.loc	25 1753 17
	jne	LBB33_158
Ltmp1199:
	.loc	25 0 17 is_stmt 0
	movl	$8, %eax
Ltmp1200:
	.loc	16 1139 40 is_stmt 1
	cmpb	$0, 4043(%r14)
Ltmp1201:
	.loc	25 1753 17
	jne	LBB33_158
Ltmp1202:
	.loc	25 0 17 is_stmt 0
	movl	$9, %eax
Ltmp1203:
	.loc	16 1139 40 is_stmt 1
	cmpb	$0, 4037(%r14)
Ltmp1204:
	.loc	25 1753 17
	jne	LBB33_158
Ltmp1205:
	.loc	25 0 17 is_stmt 0
	movl	$10, %eax
Ltmp1206:
	.loc	16 1139 40 is_stmt 1
	cmpb	$0, 4042(%r14)
Ltmp1207:
	.loc	25 1753 17
	jne	LBB33_158
Ltmp1208:
	.loc	25 0 17 is_stmt 0
	movl	$11, %eax
Ltmp1209:
	.loc	16 1139 40 is_stmt 1
	cmpb	$0, 4038(%r14)
Ltmp1210:
	.loc	25 1753 17
	jne	LBB33_158
Ltmp1211:
	.loc	25 0 17 is_stmt 0
	movl	$12, %eax
Ltmp1212:
	.loc	16 1139 40 is_stmt 1
	cmpb	$0, 4041(%r14)
Ltmp1213:
	.loc	25 1753 17
	jne	LBB33_158
Ltmp1214:
	.loc	25 0 17 is_stmt 0
	movl	$13, %eax
Ltmp1215:
	.loc	16 1139 40 is_stmt 1
	cmpb	$0, 4039(%r14)
Ltmp1216:
	.loc	25 1753 17
	jne	LBB33_158
Ltmp1217:
	.loc	25 0 17 is_stmt 0
	movl	$14, %eax
Ltmp1218:
	.loc	16 1139 40 is_stmt 1
	cmpb	$0, 4040(%r14)
Ltmp1219:
	.loc	25 1753 17
	jne	LBB33_158
Ltmp1220:
	.loc	25 0 17 is_stmt 0
	movl	$15, %eax
Ltmp1221:
	.loc	16 1139 40 is_stmt 1
	cmpb	$0, 4032(%r14)
Ltmp1222:
	.loc	25 1753 17
	jne	LBB33_158
Ltmp1223:
	.loc	25 0 17 is_stmt 0
	movl	$16, %eax
Ltmp1224:
	.loc	16 1139 40 is_stmt 1
	cmpb	$0, 4050(%r14)
Ltmp1225:
	.loc	25 1753 17
	jne	LBB33_158
Ltmp1226:
	.loc	25 0 17 is_stmt 0
	movl	$17, %eax
Ltmp1227:
	.loc	16 1139 40 is_stmt 1
	cmpb	$0, 4049(%r14)
Ltmp1228:
	.loc	25 1753 17
	jne	LBB33_158
Ltmp1229:
	.loc	16 1139 40
	xorl	%eax, %eax
	cmpb	$0, 4048(%r14)
	sete	%al
Ltmp1230:
	.loc	25 1753 17
	orq	$18, %rax
Ltmp1231:
LBB33_158:
	.loc	25 0 17 is_stmt 0
	movl	$18, %ecx
	.loc	16 1135 35 is_stmt 1
	subq	%rax, %rcx
	jb	LBB33_203
Ltmp1232:
LBB33_159:
	.loc	16 1142 39
	incq	%rcx
Ltmp1233:
	je	LBB33_204
Ltmp1234:
	.loc	16 0 39 is_stmt 0
	movq	%r14, %r12
Ltmp1235:
	cmpq	$4, %rcx
	movl	$4, %r14d
Ltmp1236:
	cmovaq	%rcx, %r14
Ltmp1237:
	.loc	16 1143 25 is_stmt 1
	leal	-4(%r14), %esi
	.loc	16 1143 9 is_stmt 0
	movq	%r13, %rdi
	movl	$4, %edx
	callq	__ZN11miniz_oxide7deflate4core17OutputBufferOxide8put_bits17h1fa9b308dfa5baa6E
Ltmp1238:
	.loc	20 3179 9 is_stmt 1
	testq	%r14, %r14
	.loc	20 3303 21
	je	LBB33_163
Ltmp1239:
	.loc	20 0 21 is_stmt 0
	xorl	%ebx, %ebx
	leaq	l___unnamed_88(%rip), %r15
Ltmp1240:
	.p2align	4, 0x90
LBB33_162:
	.loc	16 1144 14 is_stmt 1
	movzbl	(%rbx,%r15), %eax
Ltmp1241:
	.loc	16 1146 27
	movzbl	4032(%r12,%rax), %esi
Ltmp1242:
	.loc	16 1145 13
	movq	%r13, %rdi
	movl	$3, %edx
	callq	__ZN11miniz_oxide7deflate4core17OutputBufferOxide8put_bits17h1fa9b308dfa5baa6E
Ltmp1243:
	.loc	20 3179 9
	incq	%rbx
	cmpq	%rbx, %r14
	.loc	20 3303 21
	jne	LBB33_162
Ltmp1244:
LBB33_163:
	.loc	16 1152 15
	cmpq	$0, -72(%rbp)
	movq	%r12, %r14
Ltmp1245:
	.loc	16 1152 9 is_stmt 0
	je	LBB33_173
Ltmp1246:
	.loc	16 0 9
	xorl	%r15d, %r15d
Ltmp1247:
	.loc	16 1153 24 is_stmt 1
	cmpq	$319, %r15
	jbe	LBB33_167
	jmp	LBB33_192
Ltmp1248:
	.p2align	4, 0x90
LBB33_165:
	.loc	16 0 24 is_stmt 0
	movq	%r12, %r15
Ltmp1249:
	.loc	16 1152 15 is_stmt 1
	cmpq	-72(%rbp), %r12
	.loc	16 1152 9 is_stmt 0
	jae	LBB33_173
Ltmp1250:
LBB33_166:
	.loc	16 1153 24 is_stmt 1
	cmpq	$319, %r15
	ja	LBB33_192
Ltmp1251:
LBB33_167:
	movzbl	-600(%rbp,%r15), %ebx
Ltmp1252:
	cmpq	$19, %rbx
Ltmp1253:
	.loc	16 1155 13
	jae	LBB33_193
Ltmp1254:
	.loc	16 0 13 is_stmt 0
	leaq	1(%r15), %r12
Ltmp1255:
	.loc	16 1157 27 is_stmt 1
	movzwl	2880(%r14,%rbx,2), %esi
Ltmp1256:
	.loc	16 1158 27
	movzbl	4032(%r14,%rbx), %edx
Ltmp1257:
	.loc	16 1156 13
	movq	%r13, %rdi
	callq	__ZN11miniz_oxide7deflate4core17OutputBufferOxide8put_bits17h1fa9b308dfa5baa6E
	.loc	16 1160 16
	cmpb	$16, %bl
	.loc	16 1160 13 is_stmt 0
	jb	LBB33_165
Ltmp1258:
	.loc	16 1162 31 is_stmt 1
	cmpq	$319, %r12
	ja	LBB33_198
Ltmp1259:
	movzbl	-600(%rbp,%r12), %esi
Ltmp1260:
	.loc	16 1163 21
	movabsq	$12884901890, %rax
	movq	%rax, -232(%rbp)
	movl	$7, -224(%rbp)
	.loc	16 1163 31 is_stmt 0
	subq	$16, %rbx
Ltmp1261:
	jb	LBB33_199
Ltmp1262:
	.loc	16 1163 21
	cmpq	$2, %rbx
	ja	LBB33_200
Ltmp1263:
	movl	-232(%rbp,%rbx,4), %edx
	.loc	16 1161 17 is_stmt 1
	movq	%r13, %rdi
	callq	__ZN11miniz_oxide7deflate4core17OutputBufferOxide8put_bits17h1fa9b308dfa5baa6E
	.loc	16 1165 17
	addq	$2, %r15
Ltmp1264:
	.loc	16 0 0 is_stmt 0
	movq	%r15, %r12
Ltmp1265:
	.loc	16 1152 15 is_stmt 1
	cmpq	-72(%rbp), %r12
	.loc	16 1152 9 is_stmt 0
	jb	LBB33_166
Ltmp1266:
LBB33_173:
	.loc	16 0 9
	movq	-160(%rbp), %rbx
	.loc	16 1601 49 is_stmt 1
	movq	(%rbx), %r8
Ltmp1267:
	.loc	20 2918 19
	cmpq	$65537, %r8
	.loc	20 2918 16 is_stmt 0
	jb	LBB33_2
Ltmp1268:
LBB33_174:
	.loc	20 2919 13 is_stmt 1
	leaq	l___unnamed_89(%rip), %rdx
	movl	$65536, %esi
	movq	%r8, %rdi
	callq	__ZN4core5slice20slice_index_len_fail17h550a313151a85135E
Ltmp1269:
LBB33_175:
	.loc	16 0 0 is_stmt 0
	leaq	_str.5(%rip), %rdi
	leaq	l___unnamed_90(%rip), %rdx
	movl	$35, %esi
	callq	__ZN4core9panicking5panic17h736ee47a631475c0E
Ltmp1270:
LBB33_176:
	.loc	16 1577 9 is_stmt 1
	leaq	_str.1(%rip), %rdi
	leaq	l___unnamed_91(%rip), %rdx
	movl	$33, %esi
	callq	__ZN4core9panicking5panic17h736ee47a631475c0E
Ltmp1271:
LBB33_177:
	.loc	20 2927 13
	leaq	l___unnamed_92(%rip), %rdx
	movq	%rcx, %rdi
	movq	%rax, %rsi
	callq	__ZN4core5slice22slice_index_order_fail17h85b430a3a039f0a8E
Ltmp1272:
LBB33_178:
	.loc	20 2929 13
	leaq	l___unnamed_92(%rip), %rdx
	movq	%rax, %rdi
	callq	__ZN4core5slice20slice_index_len_fail17h550a313151a85135E
Ltmp1273:
LBB33_179:
	.loc	20 0 13 is_stmt 0
	leaq	-96(%rbp), %rax
Ltmp1274:
	.loc	14 69 23 is_stmt 1
	movq	%rax, -280(%rbp)
	leaq	-64(%rbp), %rax
	.loc	14 69 35 is_stmt 0
	movq	%rax, -232(%rbp)
Ltmp1275:
	.loc	1 328 9 is_stmt 1
	leaq	l___unnamed_20(%rip), %rax
Ltmp1276:
	movq	%rax, -600(%rbp)
	movq	$1, -592(%rbp)
	movq	$0, -584(%rbp)
	leaq	l___unnamed_21(%rip), %rax
Ltmp1277:
	movq	%rax, -568(%rbp)
	movq	$0, -560(%rbp)
	leaq	-280(%rbp), %rax
Ltmp1278:
	.loc	14 16 38
	movq	%rax, -144(%rbp)
	leaq	__ZN42_$LT$$RF$T$u20$as$u20$core..fmt..Debug$GT$3fmt17h746a44147b4efa2eE(%rip), %rax
	movq	%rax, -136(%rbp)
	leaq	-232(%rbp), %rcx
Ltmp1279:
	movq	%rcx, -128(%rbp)
	movq	%rax, -120(%rbp)
	leaq	-600(%rbp), %rax
	movq	%rax, -112(%rbp)
	movq	__ZN59_$LT$core..fmt..Arguments$u20$as$u20$core..fmt..Display$GT$3fmt17h58d7abb0506833b1E@GOTPCREL(%rip), %rax
	movq	%rax, -104(%rbp)
Ltmp1280:
	.loc	1 328 9
	leaq	l___unnamed_22(%rip), %rax
Ltmp1281:
	movq	%rax, -920(%rbp)
	movq	$3, -912(%rbp)
	movq	$0, -904(%rbp)
	leaq	-144(%rbp), %rax
Ltmp1282:
	movq	%rax, -888(%rbp)
	movq	$3, -880(%rbp)
Ltmp1283:
	.loc	14 16 9
	leaq	l___unnamed_23(%rip), %rsi
	leaq	-920(%rbp), %rdi
	callq	__ZN4core9panicking9panic_fmt17hab6ef1464e9720aaE
Ltmp1284:
LBB33_180:
	.loc	16 732 9
	leaq	_str.6(%rip), %rdi
	leaq	l___unnamed_93(%rip), %rdx
	movl	$36, %esi
	callq	__ZN4core9panicking5panic17h736ee47a631475c0E
Ltmp1285:
LBB33_181:
	.loc	16 1556 17
	leaq	l___unnamed_94(%rip), %rdi
	leaq	l___unnamed_95(%rip), %rdx
	movl	$55, %esi
	callq	__ZN4core9panicking5panic17h736ee47a631475c0E
Ltmp1286:
LBB33_182:
	.loc	16 1516 29
	leaq	l___unnamed_96(%rip), %rdx
Ltmp1287:
	.loc	16 0 0 is_stmt 0
	movq	%r14, %rdi
	movq	%r8, %rsi
	callq	__ZN4core9panicking18panic_bounds_check17habe69d236c55e3edE
Ltmp1288:
LBB33_183:
	.loc	16 390 5 is_stmt 1
	leaq	l___unnamed_97(%rip), %rdx
	.loc	16 0 0 is_stmt 0
	movq	%rax, %rdi
	movq	%r8, %rsi
	callq	__ZN4core9panicking18panic_bounds_check17habe69d236c55e3edE
Ltmp1289:
LBB33_184:
	.loc	16 390 27
	leaq	l___unnamed_98(%rip), %rdx
	.loc	16 0 0
	movq	%rax, %rdi
	movq	%r8, %rsi
	callq	__ZN4core9panicking18panic_bounds_check17habe69d236c55e3edE
Ltmp1290:
LBB33_185:
	.loc	16 1522 27 is_stmt 1
	leaq	l___unnamed_99(%rip), %rdx
	movl	$288, %esi
	movq	%rcx, %rdi
	callq	__ZN4core9panicking18panic_bounds_check17habe69d236c55e3edE
Ltmp1291:
LBB33_186:
	.loc	16 1522 13 is_stmt 0
	leaq	l___unnamed_100(%rip), %rdi
	leaq	l___unnamed_101(%rip), %rdx
	movl	$70, %esi
	callq	__ZN4core9panicking5panic17h736ee47a631475c0E
Ltmp1292:
LBB33_187:
	.loc	16 1528 46 is_stmt 1
	leaq	l___unnamed_102(%rip), %rdx
	movl	$17, %esi
	callq	__ZN4core9panicking18panic_bounds_check17habe69d236c55e3edE
Ltmp1293:
LBB33_188:
	.loc	16 1553 27
	leaq	l___unnamed_103(%rip), %rdx
Ltmp1294:
	.loc	16 0 0 is_stmt 0
	movq	%r14, %rdi
	movq	%r8, %rsi
	callq	__ZN4core9panicking18panic_bounds_check17habe69d236c55e3edE
Ltmp1295:
LBB33_189:
	.loc	16 1540 13 is_stmt 1
	leaq	l___unnamed_104(%rip), %rdi
	leaq	l___unnamed_105(%rip), %rdx
	movl	$46, %esi
Ltmp1296:
	callq	__ZN4core9panicking5panic17h736ee47a631475c0E
Ltmp1297:
LBB33_190:
	.loc	16 1546 51
	leaq	l___unnamed_106(%rip), %rdx
	movl	$17, %esi
Ltmp1298:
	movq	%rax, %rdi
	callq	__ZN4core9panicking18panic_bounds_check17habe69d236c55e3edE
Ltmp1299:
LBB33_191:
	.loc	16 1101 17
	leaq	_str.0(%rip), %rdi
	leaq	l___unnamed_107(%rip), %rdx
	movl	$28, %esi
	callq	__ZN4core9panicking5panic17h736ee47a631475c0E
Ltmp1300:
LBB33_192:
	.loc	16 1153 24
	leaq	l___unnamed_108(%rip), %rdx
	movl	$320, %esi
	movq	%r15, %rdi
	callq	__ZN4core9panicking18panic_bounds_check17habe69d236c55e3edE
Ltmp1301:
LBB33_193:
	.loc	16 1155 13
	leaq	l___unnamed_109(%rip), %rdi
	leaq	l___unnamed_110(%rip), %rdx
	movl	$43, %esi
	callq	__ZN4core9panicking5panic17h736ee47a631475c0E
Ltmp1302:
LBB33_194:
	.loc	16 1113 21
	leaq	_str.0(%rip), %rdi
	leaq	l___unnamed_111(%rip), %rdx
	movl	$28, %esi
	callq	__ZN4core9panicking5panic17h736ee47a631475c0E
Ltmp1303:
LBB33_195:
	.loc	16 818 33
	leaq	_str.0(%rip), %rdi
	leaq	l___unnamed_17(%rip), %rdx
	movl	$28, %esi
	callq	__ZN4core9panicking5panic17h736ee47a631475c0E
Ltmp1304:
LBB33_196:
	.loc	16 0 33 is_stmt 0
	leaq	-168(%rbp), %rax
Ltmp1305:
	.loc	14 69 23 is_stmt 1
	movq	%rax, -184(%rbp)
	leaq	-176(%rbp), %rax
	.loc	14 69 35 is_stmt 0
	movq	%rax, -96(%rbp)
Ltmp1306:
	.loc	1 328 9 is_stmt 1
	leaq	l___unnamed_20(%rip), %rax
Ltmp1307:
	movq	%rax, -232(%rbp)
	movq	$1, -224(%rbp)
	movq	$0, -216(%rbp)
	leaq	l___unnamed_21(%rip), %rax
Ltmp1308:
	movq	%rax, -200(%rbp)
	movq	$0, -192(%rbp)
	leaq	-184(%rbp), %rax
Ltmp1309:
	.loc	14 16 38
	movq	%rax, -144(%rbp)
	leaq	__ZN42_$LT$$RF$T$u20$as$u20$core..fmt..Debug$GT$3fmt17h746a44147b4efa2eE(%rip), %rax
	movq	%rax, -136(%rbp)
	leaq	-96(%rbp), %rcx
	movq	%rcx, -128(%rbp)
	movq	%rax, -120(%rbp)
	leaq	-232(%rbp), %rax
	movq	%rax, -112(%rbp)
	movq	__ZN59_$LT$core..fmt..Arguments$u20$as$u20$core..fmt..Display$GT$3fmt17h58d7abb0506833b1E@GOTPCREL(%rip), %rax
	movq	%rax, -104(%rbp)
Ltmp1310:
	.loc	1 328 9
	leaq	l___unnamed_22(%rip), %rax
Ltmp1311:
	movq	%rax, -280(%rbp)
	movq	$3, -272(%rbp)
	movq	$0, -264(%rbp)
	leaq	-144(%rbp), %rax
Ltmp1312:
	movq	%rax, -248(%rbp)
	movq	$3, -240(%rbp)
Ltmp1313:
	.loc	14 16 9
	leaq	l___unnamed_23(%rip), %rsi
	leaq	-280(%rbp), %rdi
	callq	__ZN4core9panicking9panic_fmt17hab6ef1464e9720aaE
Ltmp1314:
LBB33_197:
	.loc	16 1536 23
	leaq	l___unnamed_112(%rip), %rdx
	movl	$128, %esi
	movq	%rax, %rdi
	callq	__ZN4core9panicking18panic_bounds_check17habe69d236c55e3edE
Ltmp1315:
LBB33_198:
	.loc	16 1162 31
	leaq	l___unnamed_113(%rip), %rdx
	movl	$320, %esi
	movq	%r12, %rdi
	callq	__ZN4core9panicking18panic_bounds_check17habe69d236c55e3edE
Ltmp1316:
LBB33_199:
	.loc	16 1163 31
	leaq	_str.1(%rip), %rdi
	leaq	l___unnamed_114(%rip), %rdx
	movl	$33, %esi
	callq	__ZN4core9panicking5panic17h736ee47a631475c0E
Ltmp1317:
LBB33_200:
	.loc	16 1163 21 is_stmt 0
	leaq	l___unnamed_115(%rip), %rdx
	movl	$3, %esi
	movq	%rbx, %rdi
	callq	__ZN4core9panicking18panic_bounds_check17habe69d236c55e3edE
Ltmp1318:
LBB33_201:
	.loc	16 1132 25 is_stmt 1
	leaq	_str.1(%rip), %rdi
	leaq	l___unnamed_116(%rip), %rdx
	movl	$33, %esi
	callq	__ZN4core9panicking5panic17h736ee47a631475c0E
Ltmp1319:
LBB33_202:
	.loc	16 1133 25
	leaq	_str.1(%rip), %rdi
	leaq	l___unnamed_117(%rip), %rdx
	movl	$33, %esi
	callq	__ZN4core9panicking5panic17h736ee47a631475c0E
Ltmp1320:
LBB33_204:
	.loc	16 1142 39
	leaq	_str.0(%rip), %rdi
	leaq	l___unnamed_118(%rip), %rdx
	movl	$28, %esi
	callq	__ZN4core9panicking5panic17h736ee47a631475c0E
Ltmp1321:
Lfunc_end33:
	.cfi_endproc

	.p2align	4, 0x90
__ZN11miniz_oxide7deflate4core11flush_block17h74ece9f30160b90fE:
Lfunc_begin34:
	.loc	16 1604 0
	.cfi_startproc
	pushq	%rbp
	.cfi_def_cfa_offset 16
	.cfi_offset %rbp, -16
	movq	%rsp, %rbp
	.cfi_def_cfa_register %rbp
	pushq	%r15
	pushq	%r14
	pushq	%r13
	pushq	%r12
	pushq	%rbx
	subq	$200, %rsp
	.cfi_offset %rbx, -56
	.cfi_offset %r12, -48
	.cfi_offset %r13, -40
	.cfi_offset %r14, -32
	.cfi_offset %r15, -24
	movl	%edx, %r14d
Ltmp1322:
	movq	%rsi, %rbx
Ltmp1323:
	movq	%rdi, %r13
Ltmp1324:
	.loc	16 1613 32 prologue_end
	movq	65576(%rdi), %rdx
Ltmp1325:
	.loc	16 0 32 is_stmt 0
	movb	$1, %cl
	movl	$85180, %esi
Ltmp1326:
	.loc	16 583 13 is_stmt 1
	cmpq	$1, 32(%rbx)
	jne	LBB34_7
Ltmp1327:
	.loc	16 0 0 is_stmt 0
	movq	65568(%r13), %rdi
Ltmp1328:
	.loc	16 583 45
	movq	48(%rbx), %r8
Ltmp1329:
	movq	%r8, %rax
	subq	%rdi, %rax
	jb	LBB34_9
Ltmp1330:
	cmpq	$85196, %rax
	jb	LBB34_7
Ltmp1331:
	.loc	16 585 46 is_stmt 1
	movq	%rdi, %rcx
	addq	$85180, %rcx
	jb	LBB34_10
Ltmp1332:
	.loc	20 2926 12
	movq	%rcx, %rsi
	subq	%rdi, %rsi
	.loc	20 2926 9 is_stmt 0
	jb	LBB34_129
Ltmp1333:
	.loc	20 2928 19 is_stmt 1
	cmpq	%rcx, %r8
	.loc	20 2928 16 is_stmt 0
	jb	LBB34_130
Ltmp1334:
	.loc	12 152 9 is_stmt 1
	addq	40(%rbx), %rdi
Ltmp1335:
	.loc	12 0 9 is_stmt 0
	xorl	%ecx, %ecx
Ltmp1336:
	movq	%rdi, %rdx
Ltmp1337:
LBB34_7:
	.loc	16 593 9 is_stmt 1
	movq	%rdx, -88(%rbp)
	movq	%rsi, -80(%rbp)
	movq	$0, -72(%rbp)
	movb	%cl, -56(%rbp)
Ltmp1338:
	.loc	16 1614 29
	movl	65616(%r13), %r8d
	.loc	16 1614 9 is_stmt 0
	movl	%r8d, -64(%rbp)
	.loc	16 1615 26 is_stmt 1
	movl	65620(%r13), %r10d
	.loc	16 1615 9 is_stmt 0
	movl	%r10d, -60(%rbp)
	.loc	16 1617 29 is_stmt 1
	testb	$8, 65586(%r13)
	je	LBB34_8
Ltmp1339:
	.loc	16 1618 17
	movq	65664(%r13), %rax
	.loc	16 1618 16 is_stmt 0
	subq	65648(%r13), %rax
	jb	LBB34_122
Ltmp1340:
	.loc	16 0 16
	movb	$1, %dl
	.loc	16 1618 16
	cmpq	65672(%r13), %rax
	.loc	16 1617 29 is_stmt 1
	jbe	LBB34_12
Ltmp1341:
LBB34_8:
	.loc	16 0 29 is_stmt 0
	xorl	%edx, %edx
Ltmp1342:
LBB34_12:
	.loc	16 1620 17 is_stmt 1
	cmpl	$0, 65604(%r13)
	.loc	16 1620 9 is_stmt 0
	jne	LBB34_26
Ltmp1343:
	.loc	16 1621 9 is_stmt 1
	movq	$0, 65600(%r13)
Ltmp1344:
	.loc	16 1474 25
	movq	8(%r13), %rdi
	.loc	16 1474 14 is_stmt 0
	cmpq	$65536, %rdi
	jae	LBB34_131
Ltmp1345:
	.loc	16 1465 12 is_stmt 1
	movl	20(%r13), %ecx
	cmpl	$8, %ecx
	movq	%rbx, -104(%rbp)
Ltmp1346:
	.loc	16 1465 9 is_stmt 0
	jne	LBB34_15
Ltmp1347:
	.loc	16 1466 13 is_stmt 1
	movb	$0, 24(%r13,%rdi)
	.loc	16 1467 13
	movq	(%r13), %rax
	subq	$1, %rax
	jb	LBB34_24
Ltmp1348:
	movq	%rax, (%r13)
	movl	%edx, -92(%rbp)
Ltmp1349:
	.loc	16 1627 12
	movl	65584(%r13), %eax
Ltmp1350:
	testl	$4096, %eax
	je	LBB34_34
Ltmp1351:
LBB34_18:
	.loc	16 1627 61 is_stmt 0
	cmpl	$0, 65588(%r13)
	.loc	16 1627 12
	jne	LBB34_34
Ltmp1352:
	.loc	16 306 26 is_stmt 1
	movl	%eax, %ecx
	andl	$4095, %ecx
Ltmp1353:
	.loc	16 307 9
	cmpl	$767, %ecx
	seta	%dl
	orb	$2, %dl
	xorl	%edi, %edi
	cmpl	$1, %ecx
	seta	%dil
	.loc	16 307 12 is_stmt 0
	testl	$16384, %eax
	.loc	16 307 9
	movzbl	%dl, %r9d
	cmovnel	%edi, %r9d
Ltmp1354:
	.loc	16 324 31 is_stmt 1
	shlb	$6, %r9b
Ltmp1355:
	.loc	18 51 17
	movzbl	%r9b, %edi
Ltmp1356:
	.loc	16 293 19
	orq	$30720, %rdi
	movabsq	$595056260442243601, %rcx
Ltmp1357:
	movq	%rdi, %rax
	mulq	%rcx
Ltmp1358:
	.loc	16 668 28
	cmpl	$31, %r10d
	ja	LBB34_83
Ltmp1359:
	.loc	16 0 28 is_stmt 0
	movl	$120, %eax
	.loc	16 668 28
	movl	%r10d, %ecx
	shll	%cl, %eax
	.loc	16 668 9
	orl	%r8d, %eax
	movl	%eax, -64(%rbp)
	.loc	16 669 9 is_stmt 1
	addl	$8, %r10d
	.loc	16 0 0 is_stmt 0
	movl	%r10d, -60(%rbp)
	.loc	16 671 13 is_stmt 1
	testq	%rsi, %rsi
	je	LBB34_21
Ltmp1360:
	.loc	16 0 13 is_stmt 0
	movl	%edi, %ecx
	subl	%edx, %ecx
	shrl	%ecx
	addl	%edx, %ecx
	shrl	$4, %ecx
	movl	%ecx, %edx
	shll	$5, %edx
	subl	%edx, %ecx
	addl	%edi, %ecx
	orb	%cl, %r9b
	xorb	$31, %r9b
Ltmp1361:
	xorl	%edi, %edi
Ltmp1362:
	.p2align	4, 0x90
LBB34_28:
	.loc	16 671 13
	movq	-88(%rbp), %rcx
	movb	%al, (%rcx,%rdi)
	.loc	16 672 13 is_stmt 1
	movq	-72(%rbp), %rdi
	incq	%rdi
	je	LBB34_84
Ltmp1363:
	movq	%rdi, -72(%rbp)
	.loc	16 673 13
	movl	-64(%rbp), %eax
	.loc	16 674 13
	movl	-60(%rbp), %ecx
	.loc	16 673 13
	shrl	$8, %eax
	movl	%eax, -64(%rbp)
	.loc	16 674 13
	subl	$8, %ecx
	jb	LBB34_85
Ltmp1364:
	.loc	16 0 0 is_stmt 0
	movl	%ecx, -60(%rbp)
	.loc	16 670 15 is_stmt 1
	cmpl	$8, %ecx
	.loc	16 670 9 is_stmt 0
	jb	LBB34_33
Ltmp1365:
	.loc	16 671 13 is_stmt 1
	movq	-80(%rbp), %rsi
	cmpq	%rsi, %rdi
	jb	LBB34_28
	jmp	LBB34_32
Ltmp1366:
LBB34_15:
	.loc	16 1469 13
	cmpl	$7, %ecx
	ja	LBB34_25
Ltmp1367:
	andb	$7, %cl
	shrb	%cl, 24(%r13,%rdi)
	movl	%edx, -92(%rbp)
Ltmp1368:
	.loc	16 1627 12
	movl	65584(%r13), %eax
Ltmp1369:
	testl	$4096, %eax
	jne	LBB34_18
	jmp	LBB34_34
Ltmp1370:
LBB34_33:
	.loc	18 51 17
	movzbl	%r9b, %esi
	leaq	-88(%rbp), %rdi
Ltmp1371:
	.loc	16 1630 13
	movl	$8, %edx
	callq	__ZN11miniz_oxide7deflate4core17OutputBufferOxide8put_bits17h1fa9b308dfa5baa6E
Ltmp1372:
LBB34_34:
	.loc	16 210 30
	xorl	%esi, %esi
	movl	%r14d, -96(%rbp)
Ltmp1373:
	cmpb	$4, %r14b
	sete	%sil
Ltmp1374:
	.loc	16 0 30 is_stmt 0
	leaq	-88(%rbp), %rdi
Ltmp1375:
	.loc	16 1634 9 is_stmt 1
	movl	$1, %edx
	callq	__ZN11miniz_oxide7deflate4core17OutputBufferOxide8put_bits17h1fa9b308dfa5baa6E
Ltmp1376:
	.loc	16 680 18
	movq	-72(%rbp), %rbx
Ltmp1377:
	.loc	16 681 25
	movl	-64(%rbp), %r14d
Ltmp1378:
	.loc	16 682 22
	movl	-60(%rbp), %r12d
Ltmp1379:
	.loc	16 683 20
	movb	-56(%rbp), %r15b
Ltmp1380:
	.loc	16 0 20 is_stmt 0
	movl	-92(%rbp), %esi
Ltmp1381:
	.loc	16 1638 28 is_stmt 1
	testb	%sil, %sil
	je	LBB34_36
Ltmp1382:
	.loc	16 0 28 is_stmt 0
	movb	$1, %al
Ltmp1383:
	.loc	16 1655 25 is_stmt 1
	movl	16(%r13), %ecx
	cmpq	$32, %rcx
	.loc	16 1655 24 is_stmt 0
	jbe	LBB34_39
Ltmp1384:
LBB34_52:
	.loc	16 1656 17 is_stmt 1
	movq	-72(%rbp), %rdx
	subq	%rbx, %rdx
	jb	LBB34_123
Ltmp1385:
	incq	%rdx
	je	LBB34_124
Ltmp1386:
	.loc	16 1656 16 is_stmt 0
	cmpq	%rcx, %rdx
	.loc	16 1655 24 is_stmt 1
	jb	LBB34_39
Ltmp1387:
	.loc	16 1657 17
	movq	65664(%r13), %rcx
	subq	65648(%r13), %rcx
	jb	LBB34_125
Ltmp1388:
	.loc	16 1657 16 is_stmt 0
	cmpq	65672(%r13), %rcx
	setbe	%cl
	.loc	16 1655 24 is_stmt 1
	orb	%sil, %cl
Ltmp1389:
	jne	LBB34_40
Ltmp1390:
LBB34_57:
	.loc	16 1677 16
	testb	%al, %al
	je	LBB34_59
Ltmp1391:
	.loc	16 688 9
	movq	%rbx, -72(%rbp)
	.loc	16 689 9
	movl	%r14d, -64(%rbp)
	.loc	16 690 9
	movl	%r12d, -60(%rbp)
	.loc	16 691 9
	movb	%r15b, -56(%rbp)
Ltmp1392:
	.loc	16 1679 28
	movq	65632(%r13), %rdi
	leaq	-88(%rbp), %rsi
	.loc	16 1679 13 is_stmt 0
	movq	%r13, %rdx
	movl	$1, %ecx
	callq	__ZN11miniz_oxide7deflate4core14compress_block17he1130c7e57329643E
	.loc	16 1679 66
	cmpb	$2, %al
	je	LBB34_119
	jmp	LBB34_59
Ltmp1393:
LBB34_36:
	.loc	16 1640 18 is_stmt 1
	movl	65584(%r13), %eax
	.loc	16 1640 17 is_stmt 0
	shrl	$18, %eax
	andl	$1, %eax
	cmpl	$48, 16(%r13)
	setb	%cl
	orb	%al, %cl
Ltmp1394:
	.loc	16 1641 28 is_stmt 1
	movq	65632(%r13), %rdi
	.loc	16 1641 13 is_stmt 0
	movzbl	%cl, %ecx
	leaq	-88(%rbp), %rsi
	movq	%r13, %rdx
	callq	__ZN11miniz_oxide7deflate4core14compress_block17he1130c7e57329643E
	.loc	16 1641 72
	cmpb	$2, %al
	jne	LBB34_37
Ltmp1395:
LBB34_119:
	.loc	16 0 72
	movl	$1, %eax
	jmp	LBB34_120
Ltmp1396:
LBB34_37:
	.loc	16 1641 13
	testb	$1, %al
	sete	%al
Ltmp1397:
	.loc	16 0 13
	movl	-92(%rbp), %esi
Ltmp1398:
	.loc	16 1655 25 is_stmt 1
	movl	16(%r13), %ecx
	cmpq	$32, %rcx
	.loc	16 1655 24 is_stmt 0
	ja	LBB34_52
Ltmp1399:
LBB34_39:
	.loc	16 1659 12 is_stmt 1
	testb	%sil, %sil
	je	LBB34_57
Ltmp1400:
LBB34_40:
	.loc	16 688 9
	movq	%rbx, -72(%rbp)
	.loc	16 689 9
	movl	%r14d, -64(%rbp)
	.loc	16 690 9
	movl	%r12d, -60(%rbp)
	.loc	16 691 9
	movb	%r15b, -56(%rbp)
Ltmp1401:
	.loc	16 668 28
	cmpl	$31, %r12d
	ja	LBB34_83
Ltmp1402:
	.loc	16 668 9 is_stmt 0
	movl	%r14d, -64(%rbp)
	.loc	16 669 9 is_stmt 1
	addl	$2, %r12d
Ltmp1403:
	.loc	16 0 0 is_stmt 0
	movl	%r12d, -60(%rbp)
	.loc	16 670 15 is_stmt 1
	cmpl	$8, %r12d
	.loc	16 670 9 is_stmt 0
	jb	LBB34_47
Ltmp1404:
	.p2align	4, 0x90
LBB34_42:
	.loc	16 671 13 is_stmt 1
	movq	-80(%rbp), %rsi
	cmpq	%rsi, %rbx
	jae	LBB34_70
Ltmp1405:
	movq	-88(%rbp), %rax
	movb	%r14b, (%rax,%rbx)
	.loc	16 672 13
	movq	-72(%rbp), %rbx
Ltmp1406:
	incq	%rbx
	je	LBB34_84
Ltmp1407:
	movq	%rbx, -72(%rbp)
	.loc	16 673 13
	movl	-64(%rbp), %r14d
Ltmp1408:
	.loc	16 674 13
	movl	-60(%rbp), %r12d
	.loc	16 673 13
	shrl	$8, %r14d
	movl	%r14d, -64(%rbp)
	.loc	16 674 13
	subl	$8, %r12d
	jb	LBB34_85
Ltmp1409:
	.loc	16 0 0 is_stmt 0
	movl	%r12d, -60(%rbp)
	.loc	16 670 15 is_stmt 1
	cmpl	$7, %r12d
	.loc	16 670 9 is_stmt 0
	ja	LBB34_42
Ltmp1410:
	.loc	16 695 12 is_stmt 1
	testl	%r12d, %r12d
	.loc	16 695 9 is_stmt 0
	je	LBB34_48
Ltmp1411:
LBB34_47:
	.loc	16 0 9
	movl	$8, %edx
	.loc	16 696 23 is_stmt 1
	subl	%r12d, %edx
Ltmp1412:
	.loc	16 0 23 is_stmt 0
	leaq	-88(%rbp), %rdi
Ltmp1413:
	.loc	16 697 13 is_stmt 1
	xorl	%esi, %esi
	callq	__ZN11miniz_oxide7deflate4core17OutputBufferOxide8put_bits17h1fa9b308dfa5baa6E
Ltmp1414:
LBB34_48:
	.loc	16 1669 29
	movzwl	16(%r13), %esi
	leaq	-88(%rbp), %rbx
	.loc	16 1669 13 is_stmt 0
	movq	%rbx, %rdi
	movl	$16, %edx
	callq	__ZN11miniz_oxide7deflate4core17OutputBufferOxide8put_bits17h1fa9b308dfa5baa6E
	.loc	16 1670 30 is_stmt 1
	movzwl	16(%r13), %esi
	xorl	$65535, %esi
	.loc	16 1670 13 is_stmt 0
	movq	%rbx, %rdi
	movl	$16, %edx
	callq	__ZN11miniz_oxide7deflate4core17OutputBufferOxide8put_bits17h1fa9b308dfa5baa6E
	.loc	16 1673 25 is_stmt 1
	movl	16(%r13), %r15d
	testq	%r15, %r15
Ltmp1415:
	.loc	13 211 9
	je	LBB34_59
Ltmp1416:
	.loc	13 0 9 is_stmt 0
	xorl	%ebx, %ebx
	leaq	-88(%rbp), %r14
Ltmp1417:
	.p2align	4, 0x90
LBB34_50:
	movq	65648(%r13), %rax
Ltmp1418:
	.loc	16 1674 27 is_stmt 1
	addq	%rbx, %rax
	jb	LBB34_126
Ltmp1419:
	.loc	9 3632 30
	incq	%rbx
Ltmp1420:
	.loc	16 1674 27
	andl	$32767, %eax
Ltmp1421:
	.loc	16 1675 43
	movq	65640(%r13), %rcx
	movzbl	131072(%rcx,%rax), %esi
Ltmp1422:
	.loc	16 1675 17 is_stmt 0
	movq	%r14, %rdi
	movl	$8, %edx
	callq	__ZN11miniz_oxide7deflate4core17OutputBufferOxide8put_bits17h1fa9b308dfa5baa6E
Ltmp1423:
	.loc	11 1137 52 is_stmt 1
	cmpq	%rbx, %r15
Ltmp1424:
	.loc	13 211 9
	jne	LBB34_50
Ltmp1425:
LBB34_59:
	.loc	13 0 9 is_stmt 0
	movl	-96(%rbp), %eax
Ltmp1426:
	.loc	16 210 30 is_stmt 1
	testb	%al, %al
Ltmp1427:
	.loc	16 1682 9
	je	LBB34_91
Ltmp1428:
	.loc	16 0 0 is_stmt 0
	movl	-60(%rbp), %ecx
Ltmp1429:
	.loc	16 210 30 is_stmt 1
	cmpb	$4, %al
Ltmp1430:
	.loc	16 1683 13
	jne	LBB34_61
Ltmp1431:
	.loc	16 695 12
	testl	%ecx, %ecx
	.loc	16 695 9 is_stmt 0
	je	LBB34_89
Ltmp1432:
	.loc	16 0 9
	movl	$8, %edx
	.loc	16 696 23 is_stmt 1
	subl	%ecx, %edx
	jb	LBB34_132
Ltmp1433:
	.loc	16 0 23 is_stmt 0
	leaq	-88(%rbp), %rdi
Ltmp1434:
	.loc	16 697 13 is_stmt 1
	xorl	%esi, %esi
	callq	__ZN11miniz_oxide7deflate4core17OutputBufferOxide8put_bits17h1fa9b308dfa5baa6E
Ltmp1435:
LBB34_89:
	.loc	16 1685 20
	testb	$16, 65585(%r13)
	.loc	16 1685 17 is_stmt 0
	je	LBB34_91
Ltmp1436:
	.loc	16 1686 37 is_stmt 1
	movl	65608(%r13), %ebx
Ltmp1437:
	.loc	16 1688 41
	movl	%ebx, %eax
	shrl	$24, %eax
	leaq	-88(%rbp), %r14
	.loc	16 1688 25 is_stmt 0
	movq	%r14, %rdi
	movl	%eax, %esi
	movl	$8, %edx
	callq	__ZN11miniz_oxide7deflate4core17OutputBufferOxide8put_bits17h1fa9b308dfa5baa6E
	.loc	16 1688 41
	movzbl	%bl, %r12d
	movl	%ebx, %eax
	shrl	$16, %eax
	movzbl	%al, %esi
	.loc	16 1688 25
	movq	%r14, %rdi
	movl	$8, %edx
	callq	__ZN11miniz_oxide7deflate4core17OutputBufferOxide8put_bits17h1fa9b308dfa5baa6E
	.loc	16 1688 41
	movzbl	%bh, %esi
	.loc	16 1688 25
	movq	%r14, %rdi
	movl	$8, %edx
	callq	__ZN11miniz_oxide7deflate4core17OutputBufferOxide8put_bits17h1fa9b308dfa5baa6E
	movq	%r14, %rdi
	movl	%r12d, %esi
	movl	$8, %edx
	callq	__ZN11miniz_oxide7deflate4core17OutputBufferOxide8put_bits17h1fa9b308dfa5baa6E
Ltmp1438:
	.loc	16 0 25
	jmp	LBB34_91
Ltmp1439:
LBB34_61:
	.loc	16 668 28 is_stmt 1
	cmpl	$31, %ecx
	ja	LBB34_83
Ltmp1440:
	.loc	16 668 9 is_stmt 0
	movl	-64(%rbp), %eax
	.loc	16 669 9 is_stmt 1
	addl	$3, %ecx
	.loc	16 0 0 is_stmt 0
	movl	%ecx, -60(%rbp)
	.loc	16 670 15 is_stmt 1
	cmpl	$8, %ecx
	.loc	16 670 9 is_stmt 0
	jb	LBB34_71
Ltmp1441:
	.loc	16 671 24 is_stmt 1
	movq	-72(%rbp), %rdi
Ltmp1442:
	.p2align	4, 0x90
LBB34_64:
	.loc	16 671 13 is_stmt 0
	movq	-80(%rbp), %rsi
	cmpq	%rsi, %rdi
	jae	LBB34_32
Ltmp1443:
	movq	-88(%rbp), %rcx
	movb	%al, (%rcx,%rdi)
	.loc	16 672 13 is_stmt 1
	movq	-72(%rbp), %rdi
	incq	%rdi
	je	LBB34_84
Ltmp1444:
	movq	%rdi, -72(%rbp)
	.loc	16 673 13
	movl	-64(%rbp), %eax
	.loc	16 674 13
	movl	-60(%rbp), %ecx
	.loc	16 673 13
	shrl	$8, %eax
	movl	%eax, -64(%rbp)
	.loc	16 674 13
	subl	$8, %ecx
	jb	LBB34_85
Ltmp1445:
	.loc	16 0 0 is_stmt 0
	movl	%ecx, -60(%rbp)
	.loc	16 670 15 is_stmt 1
	cmpl	$7, %ecx
	.loc	16 670 9 is_stmt 0
	ja	LBB34_64
Ltmp1446:
	.loc	16 695 12 is_stmt 1
	testl	%ecx, %ecx
	.loc	16 695 9 is_stmt 0
	je	LBB34_69
Ltmp1447:
LBB34_71:
	.loc	16 0 9
	movl	$8, %edx
	.loc	16 696 23 is_stmt 1
	subl	%ecx, %edx
Ltmp1448:
	.loc	16 0 23 is_stmt 0
	leaq	-88(%rbp), %rdi
Ltmp1449:
	.loc	16 697 13 is_stmt 1
	xorl	%esi, %esi
	callq	__ZN11miniz_oxide7deflate4core17OutputBufferOxide8put_bits17h1fa9b308dfa5baa6E
Ltmp1450:
	.loc	16 668 36
	movl	-60(%rbp), %ecx
Ltmp1451:
	.loc	16 668 28 is_stmt 0
	cmpl	$31, %ecx
	ja	LBB34_83
Ltmp1452:
	.loc	16 668 9
	movl	-64(%rbp), %eax
	.loc	16 671 24 is_stmt 1
	movq	-72(%rbp), %rdi
Ltmp1453:
LBB34_73:
	.loc	16 669 9
	addl	$16, %ecx
	.loc	16 0 0 is_stmt 0
	movl	%ecx, -60(%rbp)
Ltmp1454:
	.p2align	4, 0x90
LBB34_74:
	.loc	16 671 13 is_stmt 1
	movq	-80(%rbp), %rsi
	cmpq	%rsi, %rdi
	jae	LBB34_32
Ltmp1455:
	movq	-88(%rbp), %rcx
	movb	%al, (%rcx,%rdi)
	.loc	16 672 13
	movq	-72(%rbp), %rdi
	incq	%rdi
	je	LBB34_84
Ltmp1456:
	movq	%rdi, -72(%rbp)
	.loc	16 673 13
	movl	-64(%rbp), %eax
	.loc	16 674 13
	movl	-60(%rbp), %ecx
	.loc	16 673 13
	shrl	$8, %eax
	movl	%eax, -64(%rbp)
	.loc	16 674 13
	subl	$8, %ecx
	jb	LBB34_85
Ltmp1457:
	.loc	16 0 0 is_stmt 0
	movl	%ecx, -60(%rbp)
	.loc	16 670 15 is_stmt 1
	cmpl	$7, %ecx
	.loc	16 670 9 is_stmt 0
	ja	LBB34_74
Ltmp1458:
	.loc	16 0 9
	movl	$65535, %edx
Ltmp1459:
	.loc	16 668 28 is_stmt 1
	shll	%cl, %edx
	.loc	16 668 9 is_stmt 0
	orl	%eax, %edx
	movl	%edx, -64(%rbp)
	.loc	16 669 9 is_stmt 1
	addl	$16, %ecx
	.loc	16 0 0 is_stmt 0
	movl	%ecx, -60(%rbp)
Ltmp1460:
	.p2align	4, 0x90
LBB34_79:
	.loc	16 671 13 is_stmt 1
	movq	-80(%rbp), %rsi
	cmpq	%rsi, %rdi
	jae	LBB34_32
Ltmp1461:
	movq	-88(%rbp), %rax
	movb	%dl, (%rax,%rdi)
	.loc	16 672 13
	movq	-72(%rbp), %rdi
	incq	%rdi
	je	LBB34_84
Ltmp1462:
	movq	%rdi, -72(%rbp)
	.loc	16 673 13
	movl	-64(%rbp), %edx
	.loc	16 674 13
	movl	-60(%rbp), %eax
	.loc	16 673 13
	shrl	$8, %edx
	movl	%edx, -64(%rbp)
	.loc	16 674 13
	subl	$8, %eax
	jb	LBB34_85
Ltmp1463:
	.loc	16 0 0 is_stmt 0
	movl	%eax, -60(%rbp)
	.loc	16 670 15 is_stmt 1
	cmpl	$7, %eax
	.loc	16 670 9 is_stmt 0
	ja	LBB34_79
Ltmp1464:
LBB34_91:
	.loc	16 1702 21 is_stmt 1
	movq	65632(%r13), %rdi
Ltmp1465:
	.loc	16 375 9
	movl	$576, %esi
	callq	___bzero
Ltmp1466:
	.loc	16 1703 21
	movq	65632(%r13), %rax
Ltmp1467:
	.loc	16 375 9
	movq	$0, 632(%rax)
	movq	$0, 624(%rax)
	movq	$0, 616(%rax)
	movq	$0, 608(%rax)
	movq	$0, 600(%rax)
	movq	$0, 592(%rax)
	movq	$0, 584(%rax)
	movq	$0, 576(%rax)
	movl	$1, %eax
Ltmp1468:
	.loc	16 1705 9
	movq	%rax, %xmm0
	movdqu	%xmm0, (%r13)
	.loc	16 1707 9
	movl	$8, 20(%r13)
	.loc	16 1708 37
	movl	16(%r13), %eax
	.loc	16 1708 9 is_stmt 0
	addq	65648(%r13), %rax
	jb	LBB34_127
Ltmp1469:
	movq	%rax, 65648(%r13)
	.loc	16 1709 9 is_stmt 1
	movl	$0, 16(%r13)
	.loc	16 1710 9
	movl	65588(%r13), %eax
	incl	%eax
	movq	-104(%rbp), %rbx
	je	LBB34_128
Ltmp1470:
	movl	%eax, 65588(%r13)
Ltmp1471:
	.loc	16 680 18
	movq	-72(%rbp), %r15
Ltmp1472:
	.loc	16 681 25
	movq	-64(%rbp), %rcx
Ltmp1473:
	.loc	16 683 20
	movb	-56(%rbp), %al
Ltmp1474:
	.loc	16 1714 9
	movq	%rcx, 65616(%r13)
Ltmp1475:
	.loc	16 644 12
	testq	%r15, %r15
	.loc	16 644 9 is_stmt 0
	je	LBB34_117
Ltmp1476:
	.loc	10 291 13 is_stmt 1
	movq	16(%rbx), %rcx
	testq	%rcx, %rcx
Ltmp1477:
	.loc	16 630 32
	je	LBB34_96
Ltmp1478:
	.loc	16 648 31
	movq	65560(%r13), %rdx
Ltmp1479:
	.loc	16 631 13
	movq	%rdx, (%rcx)
Ltmp1480:
LBB34_96:
	.loc	16 650 13
	cmpq	$1, 32(%rbx)
	jne	LBB34_115
Ltmp1481:
	.loc	16 548 12
	testb	%al, %al
	.loc	16 548 9 is_stmt 0
	je	LBB34_98
Ltmp1482:
	.loc	16 551 17 is_stmt 1
	movq	48(%rbx), %rsi
Ltmp1483:
	.loc	16 551 38 is_stmt 0
	movq	65568(%r13), %rdi
Ltmp1484:
	.loc	16 551 17
	movq	%rsi, %r14
	subq	%rdi, %r14
	jb	LBB34_110
Ltmp1485:
	.loc	11 951 9 is_stmt 1
	cmpq	%r15, %r14
	.loc	11 0 0 is_stmt 0
	movq	%r15, %r12
	cmovbq	%r14, %r12
Ltmp1486:
	.loc	16 553 52 is_stmt 1
	movq	%rdi, %rax
Ltmp1487:
	addq	%r12, %rax
	jb	LBB34_111
Ltmp1488:
	.loc	20 2926 12
	movq	%rax, %rcx
	subq	%rdi, %rcx
	.loc	20 2926 9 is_stmt 0
	jb	LBB34_133
Ltmp1489:
	.loc	20 2928 19 is_stmt 1
	cmpq	%rax, %rsi
	.loc	20 2928 16 is_stmt 0
	jb	LBB34_134
Ltmp1490:
	.loc	20 2918 19 is_stmt 1
	cmpq	$85197, %r12
	.loc	20 2918 16 is_stmt 0
	jae	LBB34_135
Ltmp1491:
	.loc	16 0 0
	movq	40(%rbx), %rax
Ltmp1492:
	movq	65576(%r13), %rsi
Ltmp1493:
	.loc	20 2302 20 is_stmt 1
	movq	%rcx, -112(%rbp)
	.loc	20 2302 32 is_stmt 0
	movq	%r12, -120(%rbp)
Ltmp1494:
	.loc	14 63 21 is_stmt 1
	cmpq	%r12, %rcx
	.loc	14 63 17 is_stmt 0
	jne	LBB34_136
Ltmp1495:
	.loc	16 0 0
	addq	%rdi, %rax
Ltmp1496:
	.loc	21 2058 5 is_stmt 1
	movq	%rax, %rdi
	movq	%r12, %rdx
	callq	_memcpy
Ltmp1497:
	.loc	21 0 5 is_stmt 0
	movq	65568(%r13), %rax
Ltmp1498:
	.loc	16 556 13 is_stmt 1
	addq	%r12, %rax
	jb	LBB34_112
Ltmp1499:
	movq	%rax, 65568(%r13)
Ltmp1500:
	.loc	11 951 9
	cmpq	%r15, %r14
Ltmp1501:
	.loc	16 557 13
	jae	LBB34_117
Ltmp1502:
	.loc	16 558 17
	movl	%r12d, 65600(%r13)
	.loc	16 559 42
	subq	%r12, %r15
Ltmp1503:
	jb	LBB34_113
Ltmp1504:
	.loc	16 559 17 is_stmt 0
	movl	%r15d, 65604(%r13)
	jmp	LBB34_117
Ltmp1505:
LBB34_115:
	.loc	20 2918 19 is_stmt 1
	cmpq	$85197, %r15
	.loc	20 2918 16 is_stmt 0
	jae	LBB34_137
Ltmp1506:
	.loc	16 527 49 is_stmt 1
	movq	65576(%r13), %rsi
Ltmp1507:
	.loc	16 527 28 is_stmt 0
	movq	40(%rbx), %rdi
	movq	48(%rbx), %rax
Ltmp1508:
	movq	%r15, %rdx
	callq	*24(%rax)
Ltmp1509:
	.loc	16 529 9 is_stmt 1
	testb	%al, %al
	jne	LBB34_117
Ltmp1510:
	.loc	16 530 13
	movl	$-1, 65612(%r13)
	xorl	%eax, %eax
	movl	$-1, %edx
	jmp	LBB34_120
Ltmp1511:
LBB34_98:
	.loc	16 562 13
	addq	65568(%r13), %r15
Ltmp1512:
	jb	LBB34_114
Ltmp1513:
	movq	%r15, 65568(%r13)
Ltmp1514:
LBB34_117:
	.loc	16 0 0 is_stmt 0
	movl	65604(%r13), %edx
	xorl	%eax, %eax
Ltmp1515:
LBB34_120:
	.loc	16 1719 2 is_stmt 1
	addq	$200, %rsp
	popq	%rbx
	popq	%r12
	popq	%r13
Ltmp1516:
	popq	%r14
	popq	%r15
	popq	%rbp
	retq
Ltmp1517:
LBB34_69:
	.loc	16 0 2 is_stmt 0
	xorl	%ecx, %ecx
	jmp	LBB34_73
Ltmp1518:
LBB34_84:
	leaq	_str.0(%rip), %rdi
	leaq	l___unnamed_11(%rip), %rdx
	movl	$28, %esi
	callq	__ZN4core9panicking5panic17h736ee47a631475c0E
Ltmp1519:
LBB34_85:
	leaq	_str.1(%rip), %rdi
	leaq	l___unnamed_12(%rip), %rdx
	movl	$33, %esi
	callq	__ZN4core9panicking5panic17h736ee47a631475c0E
Ltmp1520:
LBB34_32:
	leaq	l___unnamed_10(%rip), %rdx
	callq	__ZN4core9panicking18panic_bounds_check17habe69d236c55e3edE
Ltmp1521:
LBB34_126:
	.loc	16 1674 27 is_stmt 1
	leaq	_str.0(%rip), %rdi
	leaq	l___unnamed_119(%rip), %rdx
	movl	$28, %esi
	callq	__ZN4core9panicking5panic17h736ee47a631475c0E
Ltmp1522:
LBB34_70:
	.loc	16 671 13
	leaq	l___unnamed_10(%rip), %rdx
	movq	%rbx, %rdi
	callq	__ZN4core9panicking18panic_bounds_check17habe69d236c55e3edE
Ltmp1523:
LBB34_26:
	.loc	16 1620 9
	leaq	l___unnamed_120(%rip), %rdi
	leaq	l___unnamed_121(%rip), %rdx
	movl	$47, %esi
	callq	__ZN4core9panicking5panic17h736ee47a631475c0E
Ltmp1524:
LBB34_131:
	.loc	16 1474 14
	leaq	l___unnamed_122(%rip), %rdx
	movl	$65536, %esi
	callq	__ZN4core9panicking18panic_bounds_check17habe69d236c55e3edE
Ltmp1525:
LBB34_83:
	.loc	16 0 0 is_stmt 0
	leaq	_str.5(%rip), %rdi
	leaq	l___unnamed_16(%rip), %rdx
	movl	$35, %esi
	callq	__ZN4core9panicking5panic17h736ee47a631475c0E
Ltmp1526:
LBB34_127:
	.loc	16 1708 9 is_stmt 1
	leaq	_str.0(%rip), %rdi
	leaq	l___unnamed_123(%rip), %rdx
	movl	$28, %esi
	callq	__ZN4core9panicking5panic17h736ee47a631475c0E
Ltmp1527:
LBB34_128:
	.loc	16 1710 9
	leaq	_str.0(%rip), %rdi
	leaq	l___unnamed_124(%rip), %rdx
	movl	$28, %esi
	callq	__ZN4core9panicking5panic17h736ee47a631475c0E
Ltmp1528:
LBB34_9:
	.loc	16 583 45
	leaq	_str.1(%rip), %rdi
Ltmp1529:
	leaq	l___unnamed_125(%rip), %rdx
Ltmp1530:
	movl	$33, %esi
	callq	__ZN4core9panicking5panic17h736ee47a631475c0E
Ltmp1531:
LBB34_122:
	.loc	16 1618 16
	leaq	_str.1(%rip), %rdi
	leaq	l___unnamed_126(%rip), %rdx
	movl	$33, %esi
	callq	__ZN4core9panicking5panic17h736ee47a631475c0E
Ltmp1532:
LBB34_24:
	.loc	16 1467 13
	leaq	_str.1(%rip), %rdi
	leaq	l___unnamed_127(%rip), %rdx
	movl	$33, %esi
	callq	__ZN4core9panicking5panic17h736ee47a631475c0E
Ltmp1533:
LBB34_25:
	.loc	16 1469 13
	leaq	_str.6(%rip), %rdi
	leaq	l___unnamed_128(%rip), %rdx
	movl	$36, %esi
	callq	__ZN4core9panicking5panic17h736ee47a631475c0E
Ltmp1534:
LBB34_123:
	.loc	16 1656 17
	leaq	_str.1(%rip), %rdi
	leaq	l___unnamed_129(%rip), %rdx
	movl	$33, %esi
	callq	__ZN4core9panicking5panic17h736ee47a631475c0E
Ltmp1535:
LBB34_124:
	leaq	_str.0(%rip), %rdi
	leaq	l___unnamed_129(%rip), %rdx
	movl	$28, %esi
	callq	__ZN4core9panicking5panic17h736ee47a631475c0E
Ltmp1536:
LBB34_10:
	.loc	16 585 46
	leaq	_str.0(%rip), %rdi
Ltmp1537:
	leaq	l___unnamed_130(%rip), %rdx
Ltmp1538:
	movl	$28, %esi
	callq	__ZN4core9panicking5panic17h736ee47a631475c0E
Ltmp1539:
LBB34_129:
	.loc	20 2927 13
	leaq	l___unnamed_131(%rip), %rdx
Ltmp1540:
	movq	%rcx, %rsi
	callq	__ZN4core5slice22slice_index_order_fail17h85b430a3a039f0a8E
Ltmp1541:
LBB34_130:
	.loc	20 2929 13
	leaq	l___unnamed_131(%rip), %rdx
Ltmp1542:
	movq	%rcx, %rdi
Ltmp1543:
	movq	%r8, %rsi
	callq	__ZN4core5slice20slice_index_len_fail17h550a313151a85135E
Ltmp1544:
LBB34_137:
	.loc	20 2919 13
	leaq	l___unnamed_132(%rip), %rdx
	movl	$85196, %esi
	movq	%r15, %rdi
	callq	__ZN4core5slice20slice_index_len_fail17h550a313151a85135E
Ltmp1545:
LBB34_21:
	.loc	20 0 13 is_stmt 0
	xorl	%edi, %edi
Ltmp1546:
	leaq	l___unnamed_10(%rip), %rdx
	callq	__ZN4core9panicking18panic_bounds_check17habe69d236c55e3edE
Ltmp1547:
LBB34_125:
	.loc	16 1657 17 is_stmt 1
	leaq	_str.1(%rip), %rdi
	leaq	l___unnamed_133(%rip), %rdx
	movl	$33, %esi
	callq	__ZN4core9panicking5panic17h736ee47a631475c0E
Ltmp1548:
LBB34_132:
	.loc	16 696 23
	leaq	_str.1(%rip), %rdi
	leaq	l___unnamed_134(%rip), %rdx
	movl	$33, %esi
	callq	__ZN4core9panicking5panic17h736ee47a631475c0E
Ltmp1549:
LBB34_110:
	.loc	16 551 17
	leaq	_str.1(%rip), %rdi
	leaq	l___unnamed_135(%rip), %rdx
	movl	$33, %esi
	callq	__ZN4core9panicking5panic17h736ee47a631475c0E
Ltmp1550:
LBB34_111:
	.loc	16 553 52
	leaq	_str.0(%rip), %rdi
	leaq	l___unnamed_136(%rip), %rdx
	movl	$28, %esi
	callq	__ZN4core9panicking5panic17h736ee47a631475c0E
Ltmp1551:
LBB34_133:
	.loc	20 2927 13
	leaq	l___unnamed_137(%rip), %rdx
	movq	%rax, %rsi
	callq	__ZN4core5slice22slice_index_order_fail17h85b430a3a039f0a8E
Ltmp1552:
LBB34_134:
	.loc	20 2929 13
	leaq	l___unnamed_137(%rip), %rdx
	movq	%rax, %rdi
	callq	__ZN4core5slice20slice_index_len_fail17h550a313151a85135E
Ltmp1553:
LBB34_135:
	.loc	20 2919 13
	leaq	l___unnamed_138(%rip), %rdx
	movl	$85196, %esi
	movq	%r12, %rdi
	callq	__ZN4core5slice20slice_index_len_fail17h550a313151a85135E
Ltmp1554:
LBB34_136:
	.loc	20 0 13 is_stmt 0
	leaq	-112(%rbp), %rax
Ltmp1555:
	.loc	14 69 23 is_stmt 1
	movq	%rax, -128(%rbp)
	leaq	-120(%rbp), %rax
	.loc	14 69 35 is_stmt 0
	movq	%rax, -136(%rbp)
Ltmp1556:
	.loc	1 328 9 is_stmt 1
	leaq	l___unnamed_20(%rip), %rax
Ltmp1557:
	movq	%rax, -88(%rbp)
	movq	$1, -80(%rbp)
	movq	$0, -72(%rbp)
	leaq	l___unnamed_21(%rip), %rax
Ltmp1558:
	movq	%rax, -56(%rbp)
	movq	$0, -48(%rbp)
	leaq	-128(%rbp), %rax
Ltmp1559:
	.loc	14 16 38
	movq	%rax, -184(%rbp)
	leaq	__ZN42_$LT$$RF$T$u20$as$u20$core..fmt..Debug$GT$3fmt17h746a44147b4efa2eE(%rip), %rax
	movq	%rax, -176(%rbp)
	leaq	-136(%rbp), %rcx
Ltmp1560:
	movq	%rcx, -168(%rbp)
	movq	%rax, -160(%rbp)
	leaq	-88(%rbp), %rax
	movq	%rax, -152(%rbp)
	movq	__ZN59_$LT$core..fmt..Arguments$u20$as$u20$core..fmt..Display$GT$3fmt17h58d7abb0506833b1E@GOTPCREL(%rip), %rax
	movq	%rax, -144(%rbp)
Ltmp1561:
	.loc	1 328 9
	leaq	l___unnamed_22(%rip), %rax
Ltmp1562:
	movq	%rax, -232(%rbp)
	movq	$3, -224(%rbp)
	movq	$0, -216(%rbp)
	leaq	-184(%rbp), %rax
Ltmp1563:
	movq	%rax, -200(%rbp)
	movq	$3, -192(%rbp)
Ltmp1564:
	.loc	14 16 9
	leaq	l___unnamed_23(%rip), %rsi
Ltmp1565:
	.loc	14 0 9 is_stmt 0
	leaq	-232(%rbp), %rdi
	.loc	14 16 9
	callq	__ZN4core9panicking9panic_fmt17hab6ef1464e9720aaE
Ltmp1566:
LBB34_112:
	.loc	16 556 13 is_stmt 1
	leaq	_str.0(%rip), %rdi
	leaq	l___unnamed_139(%rip), %rdx
	movl	$28, %esi
	callq	__ZN4core9panicking5panic17h736ee47a631475c0E
Ltmp1567:
LBB34_114:
	.loc	16 562 13
	leaq	_str.0(%rip), %rdi
	leaq	l___unnamed_140(%rip), %rdx
	movl	$28, %esi
	callq	__ZN4core9panicking5panic17h736ee47a631475c0E
Ltmp1568:
LBB34_113:
	.loc	16 559 42
	leaq	_str.1(%rip), %rdi
	leaq	l___unnamed_141(%rip), %rdx
	movl	$33, %esi
	callq	__ZN4core9panicking5panic17h736ee47a631475c0E
Ltmp1569:
Lfunc_end34:
	.cfi_endproc

	.p2align	4, 0x90
__ZN11miniz_oxide7deflate4core12record_match17h936b525d8cfcf4c6E:
Lfunc_begin35:
	.loc	16 1731 0
	.cfi_startproc
	pushq	%rbp
	.cfi_def_cfa_offset 16
	.cfi_offset %rbp, -16
	movq	%rsp, %rbp
	.cfi_def_cfa_register %rbp
Ltmp1570:
	.loc	16 1732 13 prologue_end
	cmpl	$3, %edx
	.loc	16 1732 5 is_stmt 0
	jb	LBB35_30
Ltmp1571:
	.loc	16 1733 13 is_stmt 1
	testl	%ecx, %ecx
	.loc	16 1733 5 is_stmt 0
	je	LBB35_31
Ltmp1572:
	.loc	16 1734 13 is_stmt 1
	cmpl	$32768, %ecx
	.loc	16 1734 5 is_stmt 0
	ja	LBB35_32
Ltmp1573:
	.loc	16 0 5
	movl	16(%rsi), %eax
	.loc	16 1736 5 is_stmt 1
	addl	%edx, %eax
	jb	LBB35_25
Ltmp1574:
	movl	%eax, 16(%rsi)
Ltmp1575:
	.loc	16 1460 20
	movq	(%rsi), %rax
	.loc	16 1460 9 is_stmt 0
	cmpq	$65535, %rax
	ja	LBB35_7
Ltmp1576:
	.loc	16 0 0
	addl	$-3, %edx
Ltmp1577:
	.loc	16 1460 9
	movb	%dl, 24(%rsi,%rax)
	.loc	16 1461 9 is_stmt 1
	movq	(%rsi), %rax
	incq	%rax
	je	LBB35_6
Ltmp1578:
	movq	%rax, (%rsi)
Ltmp1579:
	.loc	16 1460 9
	cmpq	$65535, %rax
	ja	LBB35_7
Ltmp1580:
	.loc	16 0 0 is_stmt 0
	decl	%ecx
Ltmp1581:
	.loc	16 1460 9
	movb	%cl, 24(%rsi,%rax)
	.loc	16 1461 9 is_stmt 1
	movq	(%rsi), %rax
	incq	%rax
	je	LBB35_6
Ltmp1582:
	movq	%rax, (%rsi)
Ltmp1583:
	.loc	16 1460 9
	cmpq	$65535, %rax
	ja	LBB35_7
Ltmp1584:
	.loc	16 1741 19
	movl	%ecx, %r8d
	shrl	$8, %r8d
Ltmp1585:
	.loc	16 1460 9
	movb	%r8b, 24(%rsi,%rax)
	.loc	16 1461 9
	movq	(%rsi), %rax
	incq	%rax
	je	LBB35_6
Ltmp1586:
	movq	%rax, (%rsi)
Ltmp1587:
	.loc	16 1474 25
	movq	8(%rsi), %rax
	.loc	16 1474 14 is_stmt 0
	cmpq	$65536, %rax
	jae	LBB35_14
Ltmp1588:
	.loc	16 1743 5 is_stmt 1
	shrb	24(%rsi,%rax)
Ltmp1589:
	.loc	16 1474 25
	movq	8(%rsi), %rax
	.loc	16 1474 14 is_stmt 0
	cmpq	$65536, %rax
	jae	LBB35_14
Ltmp1590:
	.loc	16 1744 5 is_stmt 1
	orb	$-128, 24(%rsi,%rax)
Ltmp1591:
	.loc	16 1483 9
	movl	20(%rsi), %eax
	subl	$1, %eax
	jb	LBB35_34
Ltmp1592:
	movl	%eax, 20(%rsi)
	.loc	16 1484 12
	testl	%eax, %eax
	.loc	16 1484 9 is_stmt 0
	jne	LBB35_20
Ltmp1593:
	.loc	16 1485 13 is_stmt 1
	movl	$8, 20(%rsi)
Ltmp1594:
	.loc	16 1478 30
	movq	(%rsi), %rax
	.loc	16 1478 9 is_stmt 0
	movq	%rax, 8(%rsi)
	.loc	16 1479 9 is_stmt 1
	incq	%rax
	je	LBB35_33
Ltmp1595:
	movq	%rax, (%rsi)
Ltmp1596:
LBB35_20:
	.loc	16 1747 18
	movl	%ecx, %eax
	leaq	l___unnamed_82(%rip), %rsi
Ltmp1597:
	addq	%rax, %rsi
	andl	$127, %r8d
	leaq	l___unnamed_84(%rip), %rax
	addq	%r8, %rax
	.loc	16 1747 21 is_stmt 0
	cmpl	$512, %ecx
	.loc	16 1747 18
	cmovbq	%rsi, %rax
Ltmp1598:
	.loc	16 0 0
	movzbl	(%rax), %eax
Ltmp1599:
	.loc	16 1752 5 is_stmt 1
	movzwl	576(%rdi,%rax,2), %ecx
Ltmp1600:
	incw	%cx
	je	LBB35_26
Ltmp1601:
	movw	%cx, 576(%rdi,%rax,2)
	.loc	16 1753 24
	movl	%edx, %eax
Ltmp1602:
	.loc	16 1753 16 is_stmt 0
	cmpl	$255, %edx
	ja	LBB35_27
Ltmp1603:
	leaq	l___unnamed_79(%rip), %rcx
	movzwl	(%rcx,%rax,2), %eax
	cmpq	$287, %rax
	.loc	16 1753 5
	ja	LBB35_28
Ltmp1604:
	movzwl	(%rdi,%rax,2), %ecx
	incw	%cx
	je	LBB35_29
Ltmp1605:
	movw	%cx, (%rdi,%rax,2)
Ltmp1606:
	.loc	16 1754 2 is_stmt 1
	popq	%rbp
	retq
Ltmp1607:
LBB35_7:
	.loc	16 0 0 is_stmt 0
	leaq	l___unnamed_142(%rip), %rdx
Ltmp1608:
	movl	$65536, %esi
Ltmp1609:
	movq	%rax, %rdi
Ltmp1610:
	callq	__ZN4core9panicking18panic_bounds_check17habe69d236c55e3edE
Ltmp1611:
LBB35_6:
	leaq	_str.0(%rip), %rdi
Ltmp1612:
	leaq	l___unnamed_143(%rip), %rdx
Ltmp1613:
	movl	$28, %esi
Ltmp1614:
	callq	__ZN4core9panicking5panic17h736ee47a631475c0E
Ltmp1615:
LBB35_14:
	leaq	l___unnamed_122(%rip), %rdx
Ltmp1616:
	movl	$65536, %esi
Ltmp1617:
	movq	%rax, %rdi
Ltmp1618:
	callq	__ZN4core9panicking18panic_bounds_check17habe69d236c55e3edE
Ltmp1619:
LBB35_30:
	.loc	16 1732 5 is_stmt 1
	leaq	l___unnamed_144(%rip), %rdi
Ltmp1620:
	leaq	l___unnamed_145(%rip), %rdx
Ltmp1621:
	movl	$51, %esi
Ltmp1622:
	callq	__ZN4core9panicking5panic17h736ee47a631475c0E
Ltmp1623:
LBB35_31:
	.loc	16 1733 5
	leaq	l___unnamed_146(%rip), %rdi
Ltmp1624:
	leaq	l___unnamed_147(%rip), %rdx
Ltmp1625:
	movl	$33, %esi
Ltmp1626:
	callq	__ZN4core9panicking5panic17h736ee47a631475c0E
Ltmp1627:
LBB35_32:
	.loc	16 1734 5
	leaq	l___unnamed_148(%rip), %rdi
Ltmp1628:
	leaq	l___unnamed_149(%rip), %rdx
Ltmp1629:
	movl	$53, %esi
Ltmp1630:
	callq	__ZN4core9panicking5panic17h736ee47a631475c0E
Ltmp1631:
LBB35_25:
	.loc	16 1736 5
	leaq	_str.0(%rip), %rdi
Ltmp1632:
	leaq	l___unnamed_150(%rip), %rdx
Ltmp1633:
	movl	$28, %esi
Ltmp1634:
	callq	__ZN4core9panicking5panic17h736ee47a631475c0E
Ltmp1635:
LBB35_34:
	.loc	16 1483 9
	leaq	_str.1(%rip), %rdi
Ltmp1636:
	leaq	l___unnamed_151(%rip), %rdx
Ltmp1637:
	movl	$33, %esi
Ltmp1638:
	callq	__ZN4core9panicking5panic17h736ee47a631475c0E
Ltmp1639:
LBB35_26:
	.loc	16 1752 5
	leaq	_str.0(%rip), %rdi
Ltmp1640:
	leaq	l___unnamed_152(%rip), %rdx
Ltmp1641:
	movl	$28, %esi
	callq	__ZN4core9panicking5panic17h736ee47a631475c0E
Ltmp1642:
LBB35_27:
	.loc	16 1753 16
	leaq	l___unnamed_153(%rip), %rdx
Ltmp1643:
	movl	$256, %esi
	movq	%rax, %rdi
Ltmp1644:
	callq	__ZN4core9panicking18panic_bounds_check17habe69d236c55e3edE
LBB35_28:
Ltmp1645:
	.loc	16 1753 5 is_stmt 0
	leaq	l___unnamed_154(%rip), %rdx
Ltmp1646:
	movl	$288, %esi
	movq	%rax, %rdi
Ltmp1647:
	callq	__ZN4core9panicking18panic_bounds_check17habe69d236c55e3edE
LBB35_29:
Ltmp1648:
	leaq	_str.0(%rip), %rdi
Ltmp1649:
	leaq	l___unnamed_154(%rip), %rdx
Ltmp1650:
	movl	$28, %esi
	callq	__ZN4core9panicking5panic17h736ee47a631475c0E
Ltmp1651:
LBB35_33:
	.loc	16 1479 9 is_stmt 1
	leaq	_str.0(%rip), %rdi
Ltmp1652:
	leaq	l___unnamed_155(%rip), %rdx
Ltmp1653:
	movl	$28, %esi
Ltmp1654:
	callq	__ZN4core9panicking5panic17h736ee47a631475c0E
Ltmp1655:
Lfunc_end35:
	.cfi_endproc

	.p2align	4, 0x90
__ZN11miniz_oxide7deflate4core19flush_output_buffer17h78cc964b848afaa6E:
Lfunc_begin36:
	.loc	16 2150 0
	.cfi_startproc
	pushq	%rbp
	.cfi_def_cfa_offset 16
	.cfi_offset %rbp, -16
	movq	%rsp, %rbp
	.cfi_def_cfa_register %rbp
	pushq	%r15
	pushq	%r14
	pushq	%r13
	pushq	%r12
	pushq	%rbx
	subq	$184, %rsp
	.cfi_offset %rbx, -56
	.cfi_offset %r12, -48
	.cfi_offset %r13, -40
	.cfi_offset %r14, -32
	.cfi_offset %r15, -24
	movq	%rdx, %r15
Ltmp1656:
	movq	%rdi, %r14
Ltmp1657:
	.loc	16 2151 39 prologue_end
	movq	(%rdx), %r12
Ltmp1658:
	.loc	16 0 39 is_stmt 0
	xorl	%r13d, %r13d
Ltmp1659:
	.loc	16 2152 12 is_stmt 1
	cmpq	$1, 32(%rsi)
	jne	LBB36_1
Ltmp1660:
	.loc	16 2153 26
	movq	48(%rsi), %rax
Ltmp1661:
	.loc	16 2153 45 is_stmt 0
	movq	8(%r15), %rdi
Ltmp1662:
	.loc	16 2153 26
	movq	%rax, %rbx
	subq	%rdi, %rbx
	jb	LBB36_17
Ltmp1663:
	.loc	16 2153 60
	movl	44(%r15), %ecx
Ltmp1664:
	.loc	11 951 9 is_stmt 1
	cmpq	%rcx, %rbx
	.loc	11 0 0 is_stmt 0
	cmovaq	%rcx, %rbx
Ltmp1665:
	.loc	16 2154 12 is_stmt 1
	testq	%rbx, %rbx
	.loc	16 2154 9 is_stmt 0
	je	LBB36_10
Ltmp1666:
	.loc	16 2155 45 is_stmt 1
	movq	%rdi, %rcx
	addq	%rbx, %rcx
	jb	LBB36_18
Ltmp1667:
	.loc	20 2926 12
	movq	%rcx, %rdx
	subq	%rdi, %rdx
	.loc	20 2926 9 is_stmt 0
	jb	LBB36_22
Ltmp1668:
	.loc	20 2928 19 is_stmt 1
	cmpq	%rcx, %rax
	.loc	20 2928 16 is_stmt 0
	jb	LBB36_23
Ltmp1669:
	.loc	16 2156 49 is_stmt 1
	movl	40(%r15), %ecx
Ltmp1670:
	.loc	16 2156 71 is_stmt 0
	leaq	(%rbx,%rcx), %rax
Ltmp1671:
	.loc	20 2918 19 is_stmt 1
	cmpq	$85197, %rax
	.loc	20 2918 16 is_stmt 0
	jae	LBB36_24
Ltmp1672:
	.loc	16 0 0
	movq	40(%rsi), %rax
Ltmp1673:
	movq	16(%r15), %rsi
Ltmp1674:
	.loc	20 2302 20 is_stmt 1
	movq	%rdx, -48(%rbp)
	.loc	20 2302 32 is_stmt 0
	movq	%rbx, -56(%rbp)
Ltmp1675:
	.loc	14 63 21 is_stmt 1
	cmpq	%rbx, %rdx
	.loc	14 63 17 is_stmt 0
	jne	LBB36_25
Ltmp1676:
	.loc	16 0 0
	addq	%rdi, %rax
Ltmp1677:
	.file	31 "/rustc/a74d1862d4d87a56244958416fd05976c58ca1a8/src/libcore/ptr/const_ptr.rs"
	.loc	31 158 9 is_stmt 1
	addq	%rcx, %rsi
Ltmp1678:
	.loc	21 2058 5
	movq	%rax, %rdi
	movq	%rbx, %rdx
Ltmp1679:
	callq	_memcpy
Ltmp1680:
LBB36_10:
	.loc	21 0 5 is_stmt 0
	movl	40(%r15), %eax
	.loc	16 2158 9 is_stmt 1
	addl	%ebx, %eax
	jb	LBB36_19
Ltmp1681:
	movl	%eax, 40(%r15)
	.loc	16 2159 9
	movl	44(%r15), %eax
	subl	%ebx, %eax
	jb	LBB36_20
Ltmp1682:
	movl	%eax, 44(%r15)
	.loc	16 2160 9
	addq	8(%r15), %rbx
Ltmp1683:
	jb	LBB36_21
Ltmp1684:
	movq	%rbx, 8(%r15)
Ltmp1685:
	.loc	16 2164 8
	cmpb	$0, 67(%r15)
	jne	LBB36_15
	jmp	LBB36_16
Ltmp1686:
LBB36_1:
	.loc	16 0 0 is_stmt 0
	xorl	%ebx, %ebx
Ltmp1687:
	.loc	16 2164 8
	cmpb	$0, 67(%r15)
	je	LBB36_16
Ltmp1688:
LBB36_15:
	.loc	16 2164 22
	xorl	%r13d, %r13d
	cmpl	$0, 44(%r15)
	sete	%r13b
Ltmp1689:
LBB36_16:
	.loc	16 2167 5 is_stmt 1
	movq	%r12, (%r14)
	movl	%r13d, 8(%r14)
	movq	%rbx, 16(%r14)
Ltmp1690:
	.loc	16 2168 2
	addq	$184, %rsp
	popq	%rbx
Ltmp1691:
	popq	%r12
Ltmp1692:
	popq	%r13
Ltmp1693:
	popq	%r14
	popq	%r15
Ltmp1694:
	popq	%rbp
	retq
LBB36_17:
Ltmp1695:
	.loc	16 2153 26
	leaq	_str.1(%rip), %rdi
	leaq	l___unnamed_156(%rip), %rdx
	movl	$33, %esi
Ltmp1696:
	callq	__ZN4core9panicking5panic17h736ee47a631475c0E
Ltmp1697:
LBB36_19:
	.loc	16 2158 9
	leaq	_str.0(%rip), %rdi
	leaq	l___unnamed_157(%rip), %rdx
	movl	$28, %esi
	callq	__ZN4core9panicking5panic17h736ee47a631475c0E
Ltmp1698:
LBB36_20:
	.loc	16 2159 9
	leaq	_str.1(%rip), %rdi
	leaq	l___unnamed_158(%rip), %rdx
	movl	$33, %esi
	callq	__ZN4core9panicking5panic17h736ee47a631475c0E
Ltmp1699:
LBB36_21:
	.loc	16 2160 9
	leaq	_str.0(%rip), %rdi
	leaq	l___unnamed_159(%rip), %rdx
	movl	$28, %esi
	callq	__ZN4core9panicking5panic17h736ee47a631475c0E
Ltmp1700:
LBB36_18:
	.loc	16 2155 45
	leaq	_str.0(%rip), %rdi
	leaq	l___unnamed_160(%rip), %rdx
	movl	$28, %esi
Ltmp1701:
	callq	__ZN4core9panicking5panic17h736ee47a631475c0E
Ltmp1702:
LBB36_22:
	.loc	20 2927 13
	leaq	l___unnamed_161(%rip), %rdx
	movq	%rcx, %rsi
Ltmp1703:
	callq	__ZN4core5slice22slice_index_order_fail17h85b430a3a039f0a8E
Ltmp1704:
LBB36_23:
	.loc	20 2929 13
	leaq	l___unnamed_161(%rip), %rdx
	movq	%rcx, %rdi
	movq	%rax, %rsi
Ltmp1705:
	callq	__ZN4core5slice20slice_index_len_fail17h550a313151a85135E
Ltmp1706:
LBB36_24:
	.loc	20 2919 13
	leaq	l___unnamed_162(%rip), %rdx
	movl	$85196, %esi
Ltmp1707:
	movq	%rax, %rdi
	callq	__ZN4core5slice20slice_index_len_fail17h550a313151a85135E
Ltmp1708:
LBB36_25:
	.loc	20 0 13 is_stmt 0
	leaq	-48(%rbp), %rax
Ltmp1709:
	.loc	14 69 23 is_stmt 1
	movq	%rax, -64(%rbp)
	leaq	-56(%rbp), %rax
	.loc	14 69 35 is_stmt 0
	movq	%rax, -72(%rbp)
Ltmp1710:
	.loc	1 328 9 is_stmt 1
	leaq	l___unnamed_20(%rip), %rax
Ltmp1711:
	movq	%rax, -216(%rbp)
	movq	$1, -208(%rbp)
	movq	$0, -200(%rbp)
	leaq	l___unnamed_21(%rip), %rax
Ltmp1712:
	movq	%rax, -184(%rbp)
	movq	$0, -176(%rbp)
	leaq	-64(%rbp), %rax
Ltmp1713:
	.loc	14 16 38
	movq	%rax, -120(%rbp)
	leaq	__ZN42_$LT$$RF$T$u20$as$u20$core..fmt..Debug$GT$3fmt17h746a44147b4efa2eE(%rip), %rax
	movq	%rax, -112(%rbp)
	leaq	-72(%rbp), %rcx
	movq	%rcx, -104(%rbp)
	movq	%rax, -96(%rbp)
	leaq	-216(%rbp), %rax
	movq	%rax, -88(%rbp)
	movq	__ZN59_$LT$core..fmt..Arguments$u20$as$u20$core..fmt..Display$GT$3fmt17h58d7abb0506833b1E@GOTPCREL(%rip), %rax
	movq	%rax, -80(%rbp)
Ltmp1714:
	.loc	1 328 9
	leaq	l___unnamed_22(%rip), %rax
Ltmp1715:
	movq	%rax, -168(%rbp)
	movq	$3, -160(%rbp)
	movq	$0, -152(%rbp)
	leaq	-120(%rbp), %rax
Ltmp1716:
	movq	%rax, -136(%rbp)
	movq	$3, -128(%rbp)
Ltmp1717:
	.loc	14 16 9
	leaq	l___unnamed_23(%rip), %rsi
	leaq	-168(%rbp), %rdi
	callq	__ZN4core9panicking9panic_fmt17hab6ef1464e9720aaE
Ltmp1718:
Lfunc_end36:
	.cfi_endproc

	.globl	__ZN11miniz_oxide7deflate4core8compress17haa35f0e82c801c5eE
	.p2align	4, 0x90
__ZN11miniz_oxide7deflate4core8compress17haa35f0e82c801c5eE:
Lfunc_begin37:
	.loc	16 2180 0
	.cfi_startproc
	pushq	%rbp
	.cfi_def_cfa_offset 16
	.cfi_offset %rbp, -16
	movq	%rsp, %rbp
	.cfi_def_cfa_register %rbp
	pushq	%rbx
	subq	$56, %rsp
	.cfi_offset %rbx, -24
Ltmp1719:
	movq	%rdi, %rbx
Ltmp1720:
	.loc	16 612 9 prologue_end
	movq	%rdx, -64(%rbp)
	movq	%rcx, -56(%rbp)
	movq	$0, -48(%rbp)
	movq	$0, -40(%rbp)
	movq	$1, -32(%rbp)
	movq	%r8, -24(%rbp)
	movq	%r9, -16(%rbp)
Ltmp1721:
	.loc	16 2186 5
	movl	16(%rbp), %ecx
Ltmp1722:
	.loc	16 0 5 is_stmt 0
	leaq	-64(%rbp), %rdx
Ltmp1723:
	.loc	16 2186 5
	callq	__ZN11miniz_oxide7deflate4core14compress_inner17h47e8efd53adeeb22E
Ltmp1724:
	.loc	16 2191 2 is_stmt 1
	movq	%rbx, %rax
	addq	$56, %rsp
	popq	%rbx
	popq	%rbp
	retq
Ltmp1725:
Lfunc_end37:
	.cfi_endproc

	.globl	__ZN11miniz_oxide7deflate4core14compress_inner17h47e8efd53adeeb22E
	.p2align	4, 0x90
__ZN11miniz_oxide7deflate4core14compress_inner17h47e8efd53adeeb22E:
Lfunc_begin38:
	.loc	16 2221 0
	.cfi_startproc
	pushq	%rbp
	.cfi_def_cfa_offset 16
	.cfi_offset %rbp, -16
	movq	%rsp, %rbp
	.cfi_def_cfa_register %rbp
	pushq	%r15
	pushq	%r14
	pushq	%r13
	pushq	%r12
	pushq	%rbx
	subq	$312, %rsp
	.cfi_offset %rbx, -56
	.cfi_offset %r12, -48
	.cfi_offset %r13, -40
	.cfi_offset %r14, -32
	.cfi_offset %r15, -24
	movq	%rsi, %r15
Ltmp1726:
	movq	%rdi, %r14
Ltmp1727:
	.loc	16 2227 5 prologue_end
	movq	$0, 65568(%rsi)
	movq	$0, 65560(%rsi)
Ltmp1728:
	.loc	16 250 30
	cmpl	$0, 65612(%rsi)
Ltmp1729:
	.loc	16 2230 29
	movb	65626(%rsi), %al
Ltmp1730:
	.loc	16 2232 5
	movb	%cl, 65626(%rsi)
	.loc	16 2233 8
	jne	LBB38_393
Ltmp1731:
	.loc	16 0 8 is_stmt 0
	movq	%rdx, %r12
Ltmp1732:
	.loc	16 2230 29 is_stmt 1
	cmpb	$4, %cl
Ltmp1733:
	.loc	16 2233 5
	je	LBB38_3
Ltmp1734:
	cmpb	$4, %al
	jne	LBB38_3
Ltmp1735:
LBB38_393:
	.loc	16 2234 9
	movl	$-2, 65612(%r15)
	.loc	16 2235 16
	movl	$-2, 8(%r14)
	movq	$0, (%r14)
	movq	$0, 16(%r14)
Ltmp1736:
LBB38_375:
	.loc	16 2306 2
	movq	%r14, %rax
	addq	$312, %rsp
	popq	%rbx
	popq	%r12
	popq	%r13
	popq	%r14
	popq	%r15
	popq	%rbp
	retq
LBB38_3:
Ltmp1737:
	.loc	16 0 0 is_stmt 0
	leaq	65560(%r15), %rbx
Ltmp1738:
	.loc	16 2238 8 is_stmt 1
	cmpl	$0, 65604(%r15)
	jne	LBB38_374
Ltmp1739:
	.loc	16 2238 41 is_stmt 0
	cmpb	$0, 65627(%r15)
	.loc	16 2238 5
	je	LBB38_5
Ltmp1740:
LBB38_374:
	.loc	16 0 5
	leaq	-192(%rbp), %rdi
	movq	%r12, %rsi
	movq	%rbx, %rdx
	callq	__ZN11miniz_oxide7deflate4core19flush_output_buffer17h78cc964b848afaa6E
	movl	-184(%rbp), %eax
	movl	%eax, 65612(%r15)
	movq	-176(%rbp), %rax
	movq	%rax, 16(%r14)
	movq	-192(%rbp), %rax
	movq	-184(%rbp), %rcx
	movq	%rcx, 8(%r14)
	movq	%rax, (%r14)
	jmp	LBB38_375
Ltmp1741:
LBB38_5:
	movl	$741375, %eax
Ltmp1742:
	.loc	16 2250 31 is_stmt 1
	andl	65584(%r15), %eax
	cmpl	$16385, %eax
	movq	%r15, -64(%rbp)
	jne	LBB38_6
Ltmp1743:
	.loc	16 1960 9
	movq	(%r12), %rax
Ltmp1744:
	.loc	16 0 9 is_stmt 0
	movq	%rax, -208(%rbp)
Ltmp1745:
	.loc	16 1960 9
	testq	%rax, %rax
	je	LBB38_196
Ltmp1746:
	.loc	16 0 9
	movq	%rbx, -128(%rbp)
Ltmp1747:
	.loc	16 1964 19 is_stmt 1
	cmpq	$65533, (%r15)
	.loc	16 1964 5 is_stmt 0
	ja	LBB38_402
Ltmp1748:
	.loc	16 0 0
	movq	65664(%r15), %rbx
Ltmp1749:
	movq	8(%r12), %rax
Ltmp1750:
	movq	%rax, -80(%rbp)
	.loc	16 1955 30 is_stmt 1
	movq	65656(%r15), %rcx
Ltmp1751:
	.loc	16 0 30 is_stmt 0
	movq	%rbx, -72(%rbp)
Ltmp1752:
	.loc	16 1958 23 is_stmt 1
	andl	$32767, %ebx
Ltmp1753:
	.loc	16 0 23 is_stmt 0
	xorl	%r8d, %r8d
	movq	%r14, -144(%rbp)
	movq	%r12, -112(%rbp)
Ltmp1754:
LBB38_199:
	.loc	16 1966 11 is_stmt 1
	cmpq	-80(%rbp), %r8
	movq	%rcx, %r12
Ltmp1755:
	jb	LBB38_202
Ltmp1756:
LBB38_200:
	.loc	16 1966 76 is_stmt 0
	testq	%r12, %r12
	.loc	16 1966 11
	je	LBB38_325
Ltmp1757:
	cmpb	$0, 65626(%r15)
	je	LBB38_325
Ltmp1758:
LBB38_202:
	.loc	16 0 11
	movq	%rbx, -104(%rbp)
	movq	-72(%rbp), %r15
Ltmp1759:
	.loc	16 1967 28 is_stmt 1
	addq	%r12, %r15
	jb	LBB38_326
Ltmp1760:
	.loc	16 0 28 is_stmt 0
	movq	-80(%rbp), %rbx
Ltmp1761:
	.loc	16 1969 13 is_stmt 1
	subq	%r8, %rbx
Ltmp1762:
	jb	LBB38_327
Ltmp1763:
	.loc	16 1970 13
	movl	$4096, %eax
	subq	%rcx, %rax
	jb	LBB38_328
Ltmp1764:
	.loc	11 951 9
	cmpq	%rax, %rbx
	.loc	11 0 0 is_stmt 0
	cmovaq	%rax, %rbx
Ltmp1765:
	.loc	16 1972 9 is_stmt 1
	addq	%rbx, %rcx
Ltmp1766:
	jb	LBB38_329
Ltmp1767:
	.loc	16 0 9 is_stmt 0
	movq	%rcx, -200(%rbp)
Ltmp1768:
	.loc	16 1974 15 is_stmt 1
	testq	%rbx, %rbx
	.loc	16 1974 9 is_stmt 0
	je	LBB38_208
Ltmp1769:
	.p2align	4, 0x90
LBB38_231:
	.loc	16 0 0
	movl	%r15d, %r13d
	andl	$32767, %r13d
Ltmp1770:
	.loc	16 1975 30 is_stmt 1
	movl	$32768, %r14d
	subq	%r13, %r14
Ltmp1771:
	.loc	11 951 9
	cmpq	%rbx, %r14
	.loc	11 0 0 is_stmt 0
	cmovaq	%rbx, %r14
Ltmp1772:
	.loc	16 1976 36 is_stmt 1
	leaq	(%r14,%r13), %r15
Ltmp1773:
	.loc	20 2928 19
	cmpq	$33027, %r15
	.loc	20 2928 16 is_stmt 0
	jae	LBB38_403
Ltmp1774:
	.loc	16 1976 82 is_stmt 1
	movq	%r8, %r12
	addq	%r14, %r12
Ltmp1775:
	jb	LBB38_330
Ltmp1776:
	.loc	20 2916 12
	movq	%r12, %rax
	subq	%r8, %rax
	.loc	20 2916 9 is_stmt 0
	jb	LBB38_404
Ltmp1777:
	.loc	20 2918 19 is_stmt 1
	cmpq	%r12, -80(%rbp)
	.loc	20 2918 16 is_stmt 0
	jb	LBB38_405
Ltmp1778:
	.loc	20 0 16
	movq	-64(%rbp), %rcx
	movq	65640(%rcx), %rcx
Ltmp1779:
	.loc	20 2302 20 is_stmt 1
	movq	%r14, -216(%rbp)
	.loc	20 2302 32 is_stmt 0
	movq	%rax, -224(%rbp)
Ltmp1780:
	.loc	14 63 21 is_stmt 1
	cmpq	%rax, %r14
	.loc	14 63 17 is_stmt 0
	jne	LBB38_406
Ltmp1781:
	.loc	16 0 0
	leaq	131072(%rcx,%r13), %rdi
Ltmp1782:
	movq	%r8, -48(%rbp)
	movq	-208(%rbp), %rax
Ltmp1783:
	.loc	31 158 9 is_stmt 1
	leaq	(%rax,%r8), %rsi
Ltmp1784:
	.loc	31 0 9 is_stmt 0
	movq	%rsi, -136(%rbp)
Ltmp1785:
	.loc	21 2058 5 is_stmt 1
	movq	%r14, %rdx
	callq	_memcpy
Ltmp1786:
	.loc	16 1978 16
	cmpq	$256, %r13
	.loc	16 1978 13 is_stmt 0
	ja	LBB38_243
Ltmp1787:
	.loc	16 1979 37 is_stmt 1
	movl	$257, %edx
	subq	%r13, %rdx
Ltmp1788:
	.loc	11 951 9
	cmpq	%rdx, %r14
	.loc	11 0 0 is_stmt 0
	cmovbeq	%r14, %rdx
Ltmp1789:
	.loc	16 1980 55 is_stmt 1
	leaq	32768(%rdx,%r13), %rdi
Ltmp1790:
	.loc	20 2928 19
	cmpq	$33027, %rdi
	.loc	20 2928 16 is_stmt 0
	jae	LBB38_407
Ltmp1791:
	.loc	20 0 16
	movq	-48(%rbp), %rdi
Ltmp1792:
	.loc	16 1981 55 is_stmt 1
	movq	%rdi, %rsi
	addq	%rdx, %rsi
	jb	LBB38_331
Ltmp1793:
	.loc	20 2916 12
	movq	%rsi, %rax
	subq	%rdi, %rax
	.loc	20 2916 9 is_stmt 0
	jb	LBB38_408
Ltmp1794:
	.loc	20 2918 19 is_stmt 1
	cmpq	%rsi, -80(%rbp)
	.loc	20 2918 16 is_stmt 0
	jb	LBB38_409
Ltmp1795:
	.loc	20 0 16
	movq	-64(%rbp), %rcx
	movq	65640(%rcx), %rcx
Ltmp1796:
	.loc	20 2302 20 is_stmt 1
	movq	%rdx, -216(%rbp)
	.loc	20 2302 32 is_stmt 0
	movq	%rax, -224(%rbp)
Ltmp1797:
	.loc	14 63 21 is_stmt 1
	cmpq	%rax, %rdx
	.loc	14 63 17 is_stmt 0
	jne	LBB38_406
Ltmp1798:
	.loc	16 0 0
	orq	$32768, %r13
Ltmp1799:
	leaq	131072(%rcx,%r13), %rdi
Ltmp1800:
	movq	-136(%rbp), %rsi
Ltmp1801:
	.loc	21 2058 5 is_stmt 1
	callq	_memcpy
Ltmp1802:
LBB38_243:
	.loc	16 1986 13
	subq	%r14, %rbx
Ltmp1803:
	jb	LBB38_332
Ltmp1804:
	.loc	16 0 0 is_stmt 0
	movq	%r12, %r8
Ltmp1805:
	.loc	16 1974 15 is_stmt 1
	testq	%rbx, %rbx
	.loc	16 1974 9 is_stmt 0
	jne	LBB38_231
Ltmp1806:
LBB38_208:
	.loc	16 1989 32 is_stmt 1
	movl	$32768, %eax
	movq	-200(%rbp), %r12
	subq	%r12, %rax
	jb	LBB38_333
Ltmp1807:
	.loc	16 0 32 is_stmt 0
	movq	-64(%rbp), %r15
Ltmp1808:
	.loc	16 1989 63
	movq	65672(%r15), %rcx
Ltmp1809:
	.loc	11 951 9 is_stmt 1
	cmpq	%rcx, %rax
	.loc	11 0 0 is_stmt 0
	cmovaq	%rcx, %rax
Ltmp1810:
	.loc	16 1989 9 is_stmt 1
	movq	%rax, 65672(%r15)
Ltmp1811:
	.loc	16 1990 50
	cmpq	$4095, %r12
	movq	-144(%rbp), %r14
	movq	-104(%rbp), %rbx
Ltmp1812:
	.loc	16 0 50 is_stmt 0
	movl	$32768, %r13d
	.loc	16 1990 9
	ja	LBB38_211
Ltmp1813:
	cmpb	$0, 65626(%r15)
	je	LBB38_325
Ltmp1814:
LBB38_211:
	.loc	16 1994 15 is_stmt 1
	cmpq	$4, %r12
	movq	%r8, -48(%rbp)
	.loc	16 1994 9 is_stmt 0
	jae	LBB38_245
	jmp	LBB38_212
Ltmp1815:
LBB38_247:
	.loc	16 0 9
	movq	-48(%rbp), %r8
Ltmp1816:
	.loc	16 1994 15
	cmpq	$3, %r12
	.loc	16 1994 9
	jbe	LBB38_212
Ltmp1817:
LBB38_245:
	.loc	16 1223 19 is_stmt 1
	movl	%ebx, %eax
	andl	$32767, %eax
Ltmp1818:
	.loc	16 1228 30
	movq	65640(%r15), %rcx
Ltmp1819:
	.file	32 "/rustc/a74d1862d4d87a56244958416fd05976c58ca1a8/src/libcore/array/mod.rs"
	.loc	32 145 42
	movl	131072(%rcx,%rax), %r9d
Ltmp1820:
	.loc	16 1997 33
	movl	%r9d, %eax
Ltmp1821:
	andl	$16777215, %eax
Ltmp1822:
	.loc	16 1999 41
	movl	%eax, %edx
	shrl	$17, %edx
	.loc	16 1999 24 is_stmt 0
	movl	%r9d, %esi
	andl	$4095, %esi
	xorl	%edx, %esi
Ltmp1823:
	.loc	16 2002 45 is_stmt 1
	movzwl	65536(%rcx,%rsi,2), %r10d
Ltmp1824:
	.loc	16 0 45 is_stmt 0
	movq	-72(%rbp), %r11
Ltmp1825:
	.loc	16 2003 13 is_stmt 1
	movw	%r11w, 65536(%rcx,%rsi,2)
	.loc	16 2005 38
	subq	%r10, %r11
	jb	LBB38_334
Ltmp1826:
	.loc	16 2006 16
	movzwl	%r11w, %r8d
Ltmp1827:
	cmpq	65672(%r15), %r8
	.loc	16 2006 13 is_stmt 0
	ja	LBB38_247
Ltmp1828:
	.loc	16 2007 17 is_stmt 1
	movl	%r10d, %ecx
	andl	$32767, %ecx
Ltmp1829:
	.loc	16 1228 30
	movq	65640(%r15), %rdx
Ltmp1830:
	.loc	16 0 30 is_stmt 0
	movl	131072(%rdx,%rcx), %esi
Ltmp1831:
	.loc	16 2009 31 is_stmt 1
	movl	$16777215, %edi
	andl	%edi, %esi
Ltmp1832:
	.loc	16 2011 20
	cmpl	%esi, %eax
	.loc	16 2011 17 is_stmt 0
	jne	LBB38_249
Ltmp1833:
	.loc	16 2013 33 is_stmt 1
	movq	%rbx, %rax
Ltmp1834:
	addq	$3, %rax
	jb	LBB38_335
Ltmp1835:
	.loc	16 0 33 is_stmt 0
	movq	%rbx, %r13
Ltmp1836:
	.loc	16 2016 25 is_stmt 1
	leaq	131075(%rdx,%rbx), %rbx
Ltmp1837:
	leaq	131075(%rdx,%rcx), %rdx
Ltmp1838:
	.loc	16 0 0 is_stmt 0
	xorl	%esi, %esi
Ltmp1839:
	.p2align	4, 0x90
LBB38_256:
	.loc	11 1137 52 is_stmt 1
	cmpl	$256, %esi
Ltmp1840:
	.loc	13 211 9
	je	LBB38_257
Ltmp1841:
	.loc	13 0 9 is_stmt 0
	leaq	3(%r13,%rsi), %rdi
Ltmp1842:
	.loc	16 1237 47 is_stmt 1
	movq	%rdi, %rax
	addq	$8, %rax
	jb	LBB38_276
Ltmp1843:
	.loc	20 2916 12
	cmpq	%rdi, %rax
	.loc	20 2916 9 is_stmt 0
	jb	LBB38_275
Ltmp1844:
	.loc	20 2918 19 is_stmt 1
	cmpq	$33026, %rax
	.loc	20 2918 16 is_stmt 0
	ja	LBB38_87
Ltmp1845:
	.loc	20 2918 19
	leaq	11(%rcx,%rsi), %rax
	cmpq	$33027, %rax
	.loc	20 2918 16
	jae	LBB38_273
Ltmp1846:
	.loc	32 145 42 is_stmt 1
	movq	(%rdx,%rsi), %rax
Ltmp1847:
	.loc	16 2020 32
	xorq	(%rbx,%rsi), %rax
Ltmp1848:
	.loc	16 2020 29 is_stmt 0
	leaq	8(%rsi), %rsi
	je	LBB38_256
Ltmp1849:
	.loc	16 0 29
	movq	%r13, %rbx
Ltmp1850:
	.loc	16 2025 62 is_stmt 1
	leal	-5(%r13,%rsi), %ecx
Ltmp1851:
	.loc	16 2025 51 is_stmt 0
	subl	%ebx, %ecx
	jb	LBB38_336
Ltmp1852:
	.loc	9 2637 17 is_stmt 1
	testq	%rax, %rax
	movl	$32768, %r13d
	je	LBB38_280
Ltmp1853:
	bsfq	%rax, %rax
Ltmp1854:
	.loc	16 2025 79
	shrl	$3, %eax
Ltmp1855:
	.loc	16 2025 51 is_stmt 0
	addl	%eax, %ecx
	jae	LBB38_283
	jmp	LBB38_337
Ltmp1856:
LBB38_249:
	.loc	16 1460 20 is_stmt 1
	movq	(%r15), %rdi
	.loc	16 1460 9 is_stmt 0
	cmpq	$65535, %rdi
	ja	LBB38_322
Ltmp1857:
	movb	%r9b, 24(%r15,%rdi)
	.loc	16 1461 9 is_stmt 1
	movq	(%r15), %rax
Ltmp1858:
	incq	%rax
	je	LBB38_135
Ltmp1859:
	movq	%rax, (%r15)
Ltmp1860:
	.loc	16 1474 25
	movq	8(%r15), %rdi
	.loc	16 1474 14 is_stmt 0
	cmpq	$65536, %rdi
	jae	LBB38_399
Ltmp1861:
	.loc	16 2071 21 is_stmt 1
	shrb	24(%r15,%rdi)
	.loc	16 2072 37
	movzbl	%r9b, %ecx
Ltmp1862:
	.loc	16 2072 21 is_stmt 0
	movq	65632(%r15), %rdx
	movzwl	(%rdx,%rcx,2), %eax
	incw	%ax
	jne	LBB38_253
	jmp	LBB38_343
Ltmp1863:
LBB38_257:
	.loc	16 0 21
	movl	$258, %ecx
Ltmp1864:
	.loc	16 2029 46 is_stmt 1
	testw	%r11w, %r11w
	movq	%r13, %rbx
	movl	$32768, %r13d
	movq	%r12, %rax
	je	LBB38_286
Ltmp1865:
LBB38_258:
	.loc	11 951 9
	cmpl	%eax, %ecx
	.loc	11 0 0 is_stmt 0
	cmoval	%eax, %ecx
Ltmp1866:
	.loc	16 2048 39 is_stmt 1
	cmpl	$3, %ecx
	.loc	16 2048 25 is_stmt 0
	jb	LBB38_291
Ltmp1867:
	.loc	16 2049 39 is_stmt 1
	testw	%r11w, %r11w
	.loc	16 2049 25 is_stmt 0
	je	LBB38_292
Ltmp1868:
	.loc	16 2050 39 is_stmt 1
	cmpq	$32768, %r8
	.loc	16 2050 25 is_stmt 0
	ja	LBB38_293
Ltmp1869:
	.loc	16 1460 20 is_stmt 1
	movq	(%r15), %rdi
	.loc	16 1460 9 is_stmt 0
	cmpq	$65536, %rdi
	jae	LBB38_322
Ltmp1870:
	.loc	16 2053 41 is_stmt 1
	leal	-3(%rcx), %esi
Ltmp1871:
	.loc	16 1460 9
	movb	%sil, 24(%r15,%rdi)
	.loc	16 1461 9
	movq	(%r15), %rdi
	incq	%rdi
	je	LBB38_135
Ltmp1872:
	movq	%rdi, (%r15)
Ltmp1873:
	.loc	16 1460 9
	cmpq	$65535, %rdi
	ja	LBB38_322
Ltmp1874:
	.loc	16 0 0 is_stmt 0
	decl	%r11d
Ltmp1875:
	.loc	16 1460 9
	movb	%r11b, 24(%r15,%rdi)
	.loc	16 1461 9 is_stmt 1
	movq	(%r15), %rax
	incq	%rax
	je	LBB38_135
Ltmp1876:
	movq	%rax, (%r15)
Ltmp1877:
	.loc	16 1460 9
	cmpq	$65535, %rax
	ja	LBB38_294
Ltmp1878:
	.loc	16 0 0 is_stmt 0
	movzwl	%r11w, %edx
	movq	%rdx, %rdi
	shrq	$8, %rdi
Ltmp1879:
	.loc	16 1460 9
	movb	%dil, 24(%r15,%rax)
	.loc	16 1461 9 is_stmt 1
	movq	(%r15), %rax
	incq	%rax
	je	LBB38_135
Ltmp1880:
	movq	%rax, (%r15)
Ltmp1881:
	.loc	16 1474 25
	movq	8(%r15), %rax
	.loc	16 1474 14 is_stmt 0
	cmpq	$65536, %rax
	jae	LBB38_268
Ltmp1882:
	.loc	16 2057 25 is_stmt 1
	shrb	24(%r15,%rax)
Ltmp1883:
	.loc	16 1474 25
	movq	8(%r15), %rax
	.loc	16 1474 14 is_stmt 0
	cmpq	$65536, %rax
	jae	LBB38_268
Ltmp1884:
	.loc	16 2058 25 is_stmt 1
	orb	$-128, 24(%r15,%rax)
	.loc	16 2059 28
	cmpl	$512, %edx
	.loc	16 2059 25 is_stmt 0
	jae	LBB38_298
Ltmp1885:
	.loc	16 2060 45 is_stmt 1
	leaq	l___unnamed_82(%rip), %rax
	movzbl	(%rdx,%rax), %edx
	.loc	16 2060 29 is_stmt 0
	movq	65632(%r15), %rdi
	movzwl	576(%rdi,%rdx,2), %eax
	incw	%ax
	jne	LBB38_302
	jmp	LBB38_338
Ltmp1886:
LBB38_298:
	.loc	16 2063 34 is_stmt 1
	testw	%r11w, %r11w
	js	LBB38_339
Ltmp1887:
	leaq	l___unnamed_84(%rip), %rax
	movzbl	(%rdi,%rax), %edx
	.loc	16 2062 29
	movq	65632(%r15), %rdi
	movzwl	576(%rdi,%rdx,2), %eax
	incw	%ax
	je	LBB38_300
Ltmp1888:
LBB38_302:
	.loc	16 0 29 is_stmt 0
	leaq	576(%rdi,%rdx,2), %rdx
	movw	%ax, (%rdx)
	.loc	16 2066 49 is_stmt 1
	movl	%esi, %edi
	.loc	16 2066 41 is_stmt 0
	cmpl	$255, %esi
	ja	LBB38_340
Ltmp1889:
	leaq	l___unnamed_79(%rip), %rax
	movzwl	(%rax,%rdi,2), %edi
	cmpq	$287, %rdi
	.loc	16 2066 25
	ja	LBB38_341
Ltmp1890:
	movq	65632(%r15), %rdx
	movzwl	(%rdx,%rdi,2), %eax
	incw	%ax
	je	LBB38_342
Ltmp1891:
	.loc	16 0 25
	leaq	(%rdx,%rdi,2), %rdx
	movw	%ax, (%rdx)
Ltmp1892:
	.loc	16 1483 9 is_stmt 1
	movl	20(%r15), %eax
	subl	$1, %eax
	jae	LBB38_307
	jmp	LBB38_323
Ltmp1893:
LBB38_280:
	.loc	16 0 9 is_stmt 0
	movl	$64, %eax
Ltmp1894:
	.loc	16 2025 79 is_stmt 1
	shrl	$3, %eax
Ltmp1895:
	.loc	16 2025 51 is_stmt 0
	addl	%eax, %ecx
	jb	LBB38_337
Ltmp1896:
LBB38_283:
	.loc	16 2036 24 is_stmt 1
	cmpl	$3, %ecx
	jb	LBB38_286
Ltmp1897:
	.loc	16 0 24 is_stmt 0
	movq	%r12, %rax
	.loc	16 2037 70 is_stmt 1
	cmpl	$8192, %r8d
	.loc	16 2036 24
	jb	LBB38_258
Ltmp1898:
	cmpl	$3, %ecx
	jne	LBB38_258
Ltmp1899:
LBB38_286:
	.loc	16 1460 20
	movq	(%r15), %rdi
	.loc	16 1460 9 is_stmt 0
	cmpq	$65535, %rdi
	ja	LBB38_322
Ltmp1900:
	movb	%r9b, 24(%r15,%rdi)
	.loc	16 1461 9 is_stmt 1
	movq	(%r15), %rax
	incq	%rax
	je	LBB38_135
Ltmp1901:
	movq	%rax, (%r15)
Ltmp1902:
	.loc	16 1474 25
	movq	8(%r15), %rdi
	.loc	16 1474 14 is_stmt 0
	cmpq	$65536, %rdi
	jae	LBB38_399
Ltmp1903:
	.loc	16 2042 25 is_stmt 1
	shrb	24(%r15,%rdi)
	.loc	16 2043 41
	movzbl	%r9b, %ecx
	.loc	16 2043 25 is_stmt 0
	movq	65632(%r15), %rdx
	movzwl	(%rdx,%rcx,2), %eax
	incw	%ax
	je	LBB38_290
Ltmp1904:
LBB38_253:
	.loc	16 0 25
	leaq	(%rdx,%rcx,2), %rdx
	movl	$1, %ecx
Ltmp1905:
	movw	%ax, (%rdx)
Ltmp1906:
	.loc	16 1483 9 is_stmt 1
	movl	20(%r15), %eax
	subl	$1, %eax
	jb	LBB38_323
Ltmp1907:
LBB38_307:
	movl	%eax, 20(%r15)
	.loc	16 1484 12
	testl	%eax, %eax
	.loc	16 1484 9 is_stmt 0
	jne	LBB38_310
Ltmp1908:
	.loc	16 1485 13 is_stmt 1
	movl	$8, 20(%r15)
Ltmp1909:
	.loc	16 1478 30
	movq	(%r15), %rax
	.loc	16 1478 9 is_stmt 0
	movq	%rax, 8(%r15)
	.loc	16 1479 9 is_stmt 1
	incq	%rax
	je	LBB38_397
Ltmp1910:
	movq	%rax, (%r15)
Ltmp1911:
LBB38_310:
	.loc	16 0 9 is_stmt 0
	movl	16(%r15), %eax
	.loc	16 2076 17 is_stmt 1
	addl	%ecx, %eax
	jb	LBB38_344
Ltmp1912:
	movl	%eax, 16(%r15)
	.loc	16 2077 34
	movl	%ecx, %eax
	.loc	16 2077 17 is_stmt 0
	addq	%rax, -72(%rbp)
	jb	LBB38_345
Ltmp1913:
	.loc	16 0 17
	movq	65672(%r15), %rcx
Ltmp1914:
	.loc	16 2078 40 is_stmt 1
	addq	%rax, %rcx
	jb	LBB38_346
Ltmp1915:
	.loc	11 0 0 is_stmt 0
	cmpq	$32768, %rcx
	cmovaeq	%r13, %rcx
Ltmp1916:
	.loc	16 2078 17
	movq	%rcx, 65672(%r15)
	.loc	16 2079 27 is_stmt 1
	addq	%rax, %rbx
	jb	LBB38_347
Ltmp1917:
	.loc	16 2080 17
	subq	%rax, %r12
Ltmp1918:
	jb	LBB38_348
Ltmp1919:
	.loc	16 0 0 is_stmt 0
	andl	$32767, %ebx
Ltmp1920:
	.loc	16 2082 20 is_stmt 1
	cmpq	$65529, (%r15)
	.loc	16 2082 17 is_stmt 0
	jb	LBB38_316
Ltmp1921:
	.loc	16 2084 21 is_stmt 1
	movq	%r12, 65656(%r15)
	movq	-72(%rbp), %rax
	.loc	16 2085 21
	movq	%rax, 65664(%r15)
	.loc	16 2087 35
	movq	%r15, %rdi
	movq	-112(%rbp), %r12
Ltmp1922:
	movq	%r12, %rsi
	xorl	%edx, %edx
	callq	__ZN11miniz_oxide7deflate4core11flush_block17h74ece9f30160b90fE
Ltmp1923:
	.loc	16 2088 25
	testl	%eax, %eax
	jne	LBB38_359
Ltmp1924:
	.loc	16 2095 24
	testl	%edx, %edx
	movq	-48(%rbp), %r8
	.loc	16 2095 21 is_stmt 0
	jne	LBB38_354
Ltmp1925:
	.loc	16 2099 35 is_stmt 1
	cmpq	$65533, (%r15)
	.loc	16 2099 21 is_stmt 0
	ja	LBB38_410
Ltmp1926:
	.loc	16 2101 38 is_stmt 1
	movq	65656(%r15), %r12
Ltmp1927:
	.loc	16 2102 37
	movq	65664(%r15), %rax
	movq	%rax, -72(%rbp)
Ltmp1928:
	.loc	16 1994 15
	cmpq	$3, %r12
	ja	LBB38_245
	jmp	LBB38_212
Ltmp1929:
LBB38_316:
	.loc	16 0 15 is_stmt 0
	movq	-48(%rbp), %r8
Ltmp1930:
	.loc	16 1994 15
	cmpq	$3, %r12
	.loc	16 1994 9
	ja	LBB38_245
Ltmp1931:
LBB38_212:
	.loc	16 0 0
	movq	%r12, %rax
Ltmp1932:
	movl	$0, %ecx
Ltmp1933:
	.loc	16 2107 15 is_stmt 1
	testq	%r12, %r12
	movq	-112(%rbp), %r12
	.loc	16 2107 9 is_stmt 0
	je	LBB38_199
	jmp	LBB38_213
Ltmp1934:
LBB38_229:
	.loc	16 0 0
	incl	%ebx
Ltmp1935:
	andl	$32767, %ebx
Ltmp1936:
	.loc	16 2107 15
	testq	%rax, %rax
	.loc	16 2107 9
	je	LBB38_230
Ltmp1937:
LBB38_213:
	.loc	16 2108 23 is_stmt 1
	cmpq	$33025, %rbx
	ja	LBB38_349
Ltmp1938:
	.loc	16 2109 13
	movl	16(%r15), %edx
	incl	%edx
	je	LBB38_350
Ltmp1939:
	.loc	16 0 0 is_stmt 0
	movq	65640(%r15), %rcx
	movzbl	131072(%rcx,%rbx), %ecx
Ltmp1940:
	.loc	16 2109 13
	movl	%edx, 16(%r15)
Ltmp1941:
	.loc	16 1460 20 is_stmt 1
	movq	(%r15), %rdi
	.loc	16 1460 9 is_stmt 0
	cmpq	$65535, %rdi
	ja	LBB38_322
Ltmp1942:
	movb	%cl, 24(%r15,%rdi)
	.loc	16 1461 9 is_stmt 1
	movq	(%r15), %rdx
	incq	%rdx
	je	LBB38_135
Ltmp1943:
	movq	%rdx, (%r15)
Ltmp1944:
	.loc	16 1474 25
	movq	8(%r15), %rdi
	.loc	16 1474 14 is_stmt 0
	cmpq	$65536, %rdi
	jae	LBB38_399
Ltmp1945:
	.loc	16 2111 13 is_stmt 1
	shrb	24(%r15,%rdi)
Ltmp1946:
	.loc	16 1483 9
	movl	20(%r15), %edx
	subl	$1, %edx
	jb	LBB38_323
Ltmp1947:
	movl	%edx, 20(%r15)
	.loc	16 1484 12
	testl	%edx, %edx
	.loc	16 1484 9 is_stmt 0
	jne	LBB38_222
Ltmp1948:
	.loc	16 1485 13 is_stmt 1
	movl	$8, 20(%r15)
Ltmp1949:
	.loc	16 1478 30
	movq	(%r15), %rdx
	.loc	16 1478 9 is_stmt 0
	movq	%rdx, 8(%r15)
	.loc	16 1479 9 is_stmt 1
	incq	%rdx
	je	LBB38_397
Ltmp1950:
	movq	%rdx, (%r15)
Ltmp1951:
LBB38_222:
	.loc	16 0 0 is_stmt 0
	movzbl	%cl, %ecx
Ltmp1952:
	.loc	16 2114 13 is_stmt 1
	movq	65632(%r15), %rdx
	movzwl	(%rdx,%rcx,2), %esi
	incw	%si
	je	LBB38_351
Ltmp1953:
	movw	%si, (%rdx,%rcx,2)
	.loc	16 2115 13
	incq	-72(%rbp)
	je	LBB38_352
Ltmp1954:
	.loc	16 2116 36
	movq	65672(%r15), %rcx
	incq	%rcx
	je	LBB38_353
Ltmp1955:
	.loc	11 0 0 is_stmt 0
	cmpq	$32768, %rcx
	cmovaeq	%r13, %rcx
Ltmp1956:
	.loc	16 2116 13
	movq	%rcx, 65672(%r15)
	.loc	16 2118 13 is_stmt 1
	decq	%rax
Ltmp1957:
	.loc	16 2120 16
	cmpq	$65529, (%r15)
	.loc	16 2120 13 is_stmt 0
	jb	LBB38_229
Ltmp1958:
	.loc	16 2122 17 is_stmt 1
	movq	%rax, 65656(%r15)
	movq	-72(%rbp), %rax
Ltmp1959:
	.loc	16 2123 17
	movq	%rax, 65664(%r15)
	.loc	16 2125 31
	movq	%r15, %rdi
	movq	%r12, %rsi
	xorl	%edx, %edx
	callq	__ZN11miniz_oxide7deflate4core11flush_block17h74ece9f30160b90fE
Ltmp1960:
	.loc	16 2126 21
	testl	%eax, %eax
	jne	LBB38_324
Ltmp1961:
	.loc	16 2133 20
	testl	%edx, %edx
	movq	-48(%rbp), %r8
	.loc	16 2133 17 is_stmt 0
	jne	LBB38_354
Ltmp1962:
	.loc	16 2138 34 is_stmt 1
	movq	65656(%r15), %rax
Ltmp1963:
	.loc	16 2139 33
	movq	65664(%r15), %rcx
	movq	%rcx, -72(%rbp)
	jmp	LBB38_229
Ltmp1964:
LBB38_230:
	.loc	16 0 0 is_stmt 0
	xorl	%ecx, %ecx
Ltmp1965:
	.loc	16 1966 11 is_stmt 1
	cmpq	-80(%rbp), %r8
	movq	%rcx, %r12
	jae	LBB38_200
	jmp	LBB38_202
Ltmp1966:
LBB38_6:
	.loc	16 1759 9
	movq	(%r12), %rax
Ltmp1967:
	.loc	16 0 9 is_stmt 0
	xorl	%ecx, %ecx
Ltmp1968:
	movq	%rax, -248(%rbp)
Ltmp1969:
	.loc	16 1759 9
	testq	%rax, %rax
	je	LBB38_362
Ltmp1970:
	.loc	16 0 9
	movq	%rbx, -128(%rbp)
	movq	%r14, -144(%rbp)
	movq	%r12, -112(%rbp)
Ltmp1971:
	.loc	16 1760 14 is_stmt 1
	movq	8(%r12), %rax
Ltmp1972:
	.loc	16 0 14 is_stmt 0
	movq	%rax, -80(%rbp)
Ltmp1973:
	.loc	16 1763 30 is_stmt 1
	movq	65656(%r15), %r13
Ltmp1974:
	.loc	16 1764 29
	movq	65664(%r15), %r14
Ltmp1975:
	.loc	16 1765 25
	movb	65625(%r15), %al
Ltmp1976:
	.loc	16 0 25 is_stmt 0
	movb	%al, -104(%rbp)
Ltmp1977:
	.loc	16 1766 32 is_stmt 1
	movl	65592(%r15), %eax
Ltmp1978:
	.loc	16 0 32 is_stmt 0
	movl	%eax, -84(%rbp)
Ltmp1979:
	.loc	16 1767 31 is_stmt 1
	movl	65596(%r15), %ebx
Ltmp1980:
	.loc	16 0 0 is_stmt 0
	xorl	%r12d, %r12d
Ltmp1981:
	.loc	16 1769 11 is_stmt 1
	cmpq	-80(%rbp), %r12
	jb	LBB38_11
	jmp	LBB38_9
Ltmp1982:
LBB38_167:
	.loc	16 1926 13
	movq	%r12, 65560(%r15)
	.loc	16 1928 13
	movq	%r13, 65656(%r15)
	.loc	16 1929 13
	movq	%r14, 65664(%r15)
	.loc	16 1931 21
	movq	%r15, %rdi
	movq	-112(%rbp), %rsi
	xorl	%edx, %edx
	callq	__ZN11miniz_oxide7deflate4core11flush_block17h74ece9f30160b90fE
Ltmp1983:
	.loc	2 0 0 is_stmt 0
	cmpl	$1, %eax
	movl	$0, %eax
Ltmp1984:
	sbbl	%eax, %eax
	notl	%eax
	orl	%edx, %eax
Ltmp1985:
	.loc	16 1933 13 is_stmt 1
	jne	LBB38_168
Ltmp1986:
LBB38_8:
	.loc	16 1769 11
	cmpq	-80(%rbp), %r12
	jb	LBB38_11
Ltmp1987:
LBB38_9:
	.loc	16 1769 76 is_stmt 0
	testq	%r13, %r13
	.loc	16 1769 11
	je	LBB38_170
Ltmp1988:
	cmpb	$0, 65626(%r15)
	je	LBB38_170
Ltmp1989:
LBB38_11:
	.loc	16 0 11
	movq	-80(%rbp), %r9
	.loc	16 1770 28 is_stmt 1
	subq	%r12, %r9
Ltmp1990:
	jb	LBB38_171
Ltmp1991:
	.loc	16 1771 59
	movl	$258, %eax
	subq	%r13, %rax
	jb	LBB38_172
Ltmp1992:
	.loc	11 951 9
	cmpq	%rax, %r9
	.loc	11 0 0 is_stmt 0
	cmovaq	%rax, %r9
Ltmp1993:
	movq	65672(%r15), %rax
Ltmp1994:
	.loc	16 1773 12 is_stmt 1
	addq	%r13, %rax
	jb	LBB38_173
Ltmp1995:
	.loc	16 1774 16
	testq	%r9, %r9
	movl	%ebx, -136(%rbp)
	.loc	16 1773 9
	je	LBB38_16
Ltmp1996:
	cmpq	$1, %rax
	jbe	LBB38_16
Ltmp1997:
	.loc	16 1778 31
	movq	%r14, %rcx
	addq	%r13, %rcx
Ltmp1998:
	jb	LBB38_174
Ltmp1999:
	.loc	16 1779 31
	movq	%rcx, %rdx
	subq	$2, %rdx
Ltmp2000:
	jb	LBB38_175
Ltmp2001:
	.loc	16 1783 29
	movq	%rdx, %rsi
	incq	%rsi
	je	LBB38_176
Ltmp2002:
	.loc	16 1786 13
	addq	%r9, %r13
Ltmp2003:
	jb	LBB38_177
Ltmp2004:
	.loc	16 1788 40
	movq	%r12, %r8
	addq	%r9, %r8
Ltmp2005:
	jb	LBB38_178
Ltmp2006:
	.loc	20 2916 12
	cmpq	%r12, %r8
	.loc	20 2916 9 is_stmt 0
	jb	LBB38_29
Ltmp2007:
	.loc	20 2918 19 is_stmt 1
	cmpq	%r8, -80(%rbp)
	.loc	20 2918 16 is_stmt 0
	jb	LBB38_27
Ltmp2008:
	.loc	20 3179 9 is_stmt 1
	cmpq	%r8, %r12
	.loc	20 3303 21
	je	LBB38_56
Ltmp2009:
	.loc	16 0 0 is_stmt 0
	movq	65640(%r15), %rdi
	movl	%edx, %eax
	andl	$32767, %eax
	movzbl	131072(%rdi,%rax), %ebx
Ltmp2010:
	andl	$32767, %esi
	movzbl	131072(%rdi,%rsi), %eax
	shll	$5, %ebx
Ltmp2011:
	xorl	%eax, %ebx
Ltmp2012:
	.loc	16 1791 17 is_stmt 1
	addq	-248(%rbp), %r12
Ltmp2013:
	decq	%r9
Ltmp2014:
	.loc	16 1790 17
	xorl	%r10d, %r10d
Ltmp2015:
	.p2align	4, 0x90
LBB38_33:
	.loc	16 0 0 is_stmt 0
	andl	$32767, %ecx
Ltmp2016:
	.loc	16 1788 18 is_stmt 1
	movzbl	(%r12,%r10), %eax
Ltmp2017:
	.loc	16 1790 17
	movb	%al, 131072(%rdi,%rcx)
	.loc	16 1791 20
	cmpq	$256, %rcx
	.loc	16 1791 17 is_stmt 0
	ja	LBB38_36
Ltmp2018:
	.loc	16 1792 32 is_stmt 1
	leaq	32768(%rcx), %rdi
	.loc	16 1792 21 is_stmt 0
	cmpq	$33025, %rdi
	ja	LBB38_179
Ltmp2019:
	movq	65640(%r15), %rsi
	movb	%al, 131072(%rsi,%rdi)
Ltmp2020:
LBB38_36:
	.loc	16 0 0
	movzbl	%al, %eax
Ltmp2021:
	.loc	15 21 6 is_stmt 1
	shll	$5, %ebx
Ltmp2022:
	.loc	15 21 5 is_stmt 0
	andl	$32736, %ebx
	xorl	%eax, %ebx
Ltmp2023:
	.loc	16 1797 70 is_stmt 1
	movq	65640(%r15), %rax
	.loc	16 1797 28 is_stmt 0
	movl	%edx, %esi
	andl	$32767, %esi
	.loc	16 1797 70
	movzwl	65536(%rax,%rbx,2), %edi
	.loc	16 1797 17
	movw	%di, (%rax,%rsi,2)
	.loc	16 1799 17 is_stmt 1
	movq	65640(%r15), %rax
	movw	%dx, 65536(%rax,%rbx,2)
	.loc	16 1801 17
	incq	%rdx
Ltmp2024:
	je	LBB38_180
Ltmp2025:
	.loc	20 3179 9
	cmpq	%r10, %r9
	.loc	20 3303 21
	je	LBB38_55
Ltmp2026:
	.loc	16 1800 27
	incq	%rcx
Ltmp2027:
	.loc	16 1790 17
	movq	65640(%r15), %rdi
Ltmp2028:
	.loc	20 3303 21
	incq	%r10
	jmp	LBB38_33
Ltmp2029:
LBB38_16:
	.loc	16 1806 40
	movq	%r12, %r8
	addq	%r9, %r8
Ltmp2030:
	jb	LBB38_181
Ltmp2031:
	.loc	20 2916 12
	cmpq	%r12, %r8
	.loc	20 2916 9 is_stmt 0
	jb	LBB38_39
Ltmp2032:
	.loc	20 2918 19 is_stmt 1
	cmpq	%r8, -80(%rbp)
	.loc	20 2918 16 is_stmt 0
	jb	LBB38_19
Ltmp2033:
	.loc	20 3179 9 is_stmt 1
	cmpq	%r8, %r12
	.loc	20 3303 21
	je	LBB38_56
Ltmp2034:
	.loc	16 1807 31
	addq	-248(%rbp), %r12
Ltmp2035:
	.loc	16 0 31 is_stmt 0
	xorl	%ecx, %ecx
Ltmp2036:
	.loc	12 152 9 is_stmt 1
	leaq	(%r13,%rcx), %rdx
Ltmp2037:
	.loc	16 1807 31
	movq	%r14, %rdi
	addq	%rdx, %rdi
	jae	LBB38_43
	jmp	LBB38_182
Ltmp2038:
	.p2align	4, 0x90
LBB38_53:
	.loc	20 3179 9
	incq	%rcx
	cmpq	%rcx, %r9
	.loc	20 3303 21
	je	LBB38_54
Ltmp2039:
	.loc	12 152 9
	leaq	(%r13,%rcx), %rdx
Ltmp2040:
	.loc	16 1807 31
	movq	%r14, %rdi
	addq	%rdx, %rdi
	jb	LBB38_182
Ltmp2041:
LBB38_43:
	.loc	16 0 0 is_stmt 0
	movzbl	(%r12,%rcx), %ebx
Ltmp2042:
	.loc	16 1807 31
	andl	$32767, %edi
Ltmp2043:
	.loc	16 1808 17 is_stmt 1
	movq	65640(%r15), %rax
	movb	%bl, 131072(%rax,%rdi)
	.loc	16 1809 20
	cmpq	$256, %rdi
	.loc	16 1809 17 is_stmt 0
	ja	LBB38_46
Ltmp2044:
	.loc	16 1810 32 is_stmt 1
	orq	$32768, %rdi
Ltmp2045:
	.loc	16 1810 21 is_stmt 0
	cmpq	$33025, %rdi
	ja	LBB38_183
Ltmp2046:
	movq	65640(%r15), %rax
	movb	%bl, 131072(%rax,%rdi)
Ltmp2047:
LBB38_46:
	.loc	16 1813 17 is_stmt 1
	incq	%rdx
Ltmp2048:
	je	LBB38_184
Ltmp2049:
	.loc	16 0 17 is_stmt 0
	movq	65672(%r15), %rax
	.loc	16 1814 20 is_stmt 1
	addq	%rdx, %rax
	jb	LBB38_185
Ltmp2050:
	cmpq	$3, %rax
	.loc	16 1814 17 is_stmt 0
	jb	LBB38_53
Ltmp2051:
	.loc	16 1815 35 is_stmt 1
	movq	%r14, %rsi
	addq	%rdx, %rsi
	jb	LBB38_186
Ltmp2052:
	subq	$3, %rsi
Ltmp2053:
	jb	LBB38_187
Ltmp2054:
	.loc	16 1818 51
	movq	%rsi, %rdi
	incq	%rdi
	je	LBB38_188
Ltmp2055:
	.loc	16 0 0 is_stmt 0
	movzbl	%bl, %r10d
Ltmp2056:
	movl	%esi, %r11d
	andl	$32767, %r11d
	movq	65640(%r15), %rax
Ltmp2057:
	.loc	18 51 17 is_stmt 1
	movzbl	131072(%rax,%r11), %ebx
Ltmp2058:
	.loc	16 1818 50
	andl	$32767, %edi
	.loc	16 1818 39 is_stmt 0
	movzbl	131072(%rax,%rdi), %edi
Ltmp2059:
	.loc	16 1818 28
	shlq	$5, %rdi
	.loc	16 1818 27
	xorq	%r10, %rdi
	.loc	16 1816 32 is_stmt 1
	andl	$31, %ebx
	shlq	$10, %rbx
	xorq	%rdi, %rbx
Ltmp2060:
	.loc	16 1823 74
	movzwl	65536(%rax,%rbx,2), %edi
	.loc	16 1823 21 is_stmt 0
	movw	%di, (%rax,%r11,2)
	.loc	16 1824 21 is_stmt 1
	movq	65640(%r15), %rax
	movw	%si, 65536(%rax,%rbx,2)
	jmp	LBB38_53
Ltmp2061:
LBB38_54:
	.loc	16 0 0 is_stmt 0
	movq	%rdx, %r13
Ltmp2062:
LBB38_55:
	movq	%r8, %r12
	movl	-136(%rbp), %ebx
Ltmp2063:
LBB38_56:
	.loc	16 1831 32 is_stmt 1
	movl	$32768, %esi
	subq	%r13, %rsi
	jb	LBB38_189
Ltmp2064:
	.loc	16 1831 63 is_stmt 0
	movq	65672(%r15), %rax
Ltmp2065:
	.loc	11 951 9 is_stmt 1
	cmpq	%rax, %rsi
	.loc	11 0 0 is_stmt 0
	cmovaq	%rax, %rsi
Ltmp2066:
	.loc	16 1831 9 is_stmt 1
	movq	%rsi, 65672(%r15)
Ltmp2067:
	.loc	16 1832 50
	cmpq	$257, %r13
	.loc	16 1832 9 is_stmt 0
	ja	LBB38_59
Ltmp2068:
	cmpb	$0, 65626(%r15)
	je	LBB38_170
Ltmp2069:
LBB38_59:
	.loc	16 1838 36 is_stmt 1
	testl	%ebx, %ebx
	movq	%r15, %rax
	.loc	16 1838 33 is_stmt 0
	movl	$2, %r15d
Ltmp2070:
	cmovnel	%ebx, %r15d
Ltmp2071:
	.loc	16 1843 23 is_stmt 1
	movl	%r14d, %edi
	andl	$32767, %edi
Ltmp2072:
	.loc	16 1844 12
	movl	65584(%rax), %r8d
	testl	$589824, %r8d
	.loc	16 1844 9 is_stmt 0
	je	LBB38_60
Ltmp2073:
	.loc	16 0 9
	xorl	%ecx, %ecx
	.loc	16 1846 16 is_stmt 1
	testq	%rsi, %rsi
	je	LBB38_124
Ltmp2074:
	.loc	16 0 0 is_stmt 0
	movl	%r8d, %eax
	andl	$524288, %eax
	.loc	16 1846 16
	jne	LBB38_124
Ltmp2075:
	.loc	16 1848 65 is_stmt 1
	movq	%rdi, %rax
	addq	%r13, %rax
	jb	LBB38_190
Ltmp2076:
	.loc	20 2916 12
	cmpq	%rdi, %rax
	movq	-64(%rbp), %rcx
	.loc	20 2916 9 is_stmt 0
	jb	LBB38_396
Ltmp2077:
	.loc	20 2918 19 is_stmt 1
	cmpq	$33026, %rax
	.loc	20 2918 16 is_stmt 0
	ja	LBB38_115
Ltmp2078:
	.loc	20 3179 9 is_stmt 1
	cmpq	%rax, %rdi
	.loc	20 3303 21
	jne	LBB38_118
Ltmp2079:
	.loc	25 0 0 is_stmt 0
	xorl	%r15d, %r15d
Ltmp2080:
	jmp	LBB38_121
Ltmp2081:
LBB38_60:
	.loc	11 951 9 is_stmt 1
	cmpl	$258, %r13d
	.loc	11 0 0 is_stmt 0
	movl	$258, %ebx
	cmovbl	%r13d, %ebx
Ltmp2082:
	.loc	11 1017 9 is_stmt 1
	cmpl	$1, %r15d
	.loc	11 0 0 is_stmt 0
	movl	$1, %eax
	cmovbel	%eax, %r15d
Ltmp2083:
	.loc	16 1271 51 is_stmt 1
	xorl	%edx, %edx
	cmpl	$31, %r15d
	seta	%r9b
	xorl	%ecx, %ecx
Ltmp2084:
	.loc	16 1274 12
	cmpl	%r15d, %ebx
	.loc	16 1274 9 is_stmt 0
	jbe	LBB38_124
Ltmp2085:
	.loc	16 1279 60 is_stmt 1
	movl	%r15d, %eax
	.loc	16 1279 45 is_stmt 0
	leaq	-1(%rdi,%rax), %rcx
Ltmp2086:
	.loc	16 390 5 is_stmt 1
	cmpq	$33025, %rcx
	ja	LBB38_394
Ltmp2087:
	.loc	16 0 5 is_stmt 0
	movq	%r14, -48(%rbp)
Ltmp2088:
	movq	%r12, -96(%rbp)
Ltmp2089:
	movl	%ebx, -116(%rbp)
Ltmp2090:
	movl	%r8d, -52(%rbp)
	addq	%rdi, %rax
Ltmp2091:
	.loc	16 390 27
	cmpq	$33026, %rax
	jae	LBB38_63
Ltmp2092:
	.loc	16 0 0
	movb	%r9b, %dl
	movq	-64(%rbp), %rcx
	movl	65680(%rcx,%rdx,4), %r10d
Ltmp2093:
	.loc	16 1286 17 is_stmt 1
	subl	$1, %r10d
Ltmp2094:
	jb	LBB38_103
Ltmp2095:
	.loc	16 0 17 is_stmt 0
	movq	-64(%rbp), %rcx
	movq	65640(%rcx), %r12
Ltmp2096:
	movzwl	131072(%r12,%rdi), %ecx
Ltmp2097:
	movw	%cx, -118(%rbp)
Ltmp2098:
	.loc	16 390 5 is_stmt 1
	movzwl	131071(%r12,%rax), %eax
Ltmp2099:
	.loc	16 0 5 is_stmt 0
	movw	%ax, -72(%rbp)
Ltmp2100:
	.loc	16 1286 17 is_stmt 1
	leaq	131074(%r12), %rax
	movq	%rax, -304(%rbp)
	leaq	131074(%r12,%rdi), %rax
	movq	%rax, -208(%rbp)
	movl	$0, -56(%rbp)
	movq	%rdi, %r8
Ltmp2101:
LBB38_67:
	.loc	16 0 0 is_stmt 0
	movl	%r15d, %r14d
Ltmp2102:
LBB38_68:
	.loc	16 1287 20 is_stmt 1
	testl	%r10d, %r10d
	.loc	16 1287 17 is_stmt 0
	je	LBB38_69
Ltmp2103:
	.loc	16 1294 42 is_stmt 1
	cmpq	$32767, %r8
	ja	LBB38_104
Ltmp2104:
	movzwl	(%r12,%r8,2), %r8d
Ltmp2105:
	.loc	16 0 42 is_stmt 0
	movq	-48(%rbp), %rax
Ltmp2106:
	.loc	16 1296 28 is_stmt 1
	subq	%r8, %rax
	jb	LBB38_105
Ltmp2107:
	.loc	16 1297 24
	testw	%r8w, %r8w
	.loc	16 1297 21 is_stmt 0
	je	LBB38_69
Ltmp2108:
	.loc	16 0 0
	movzwl	%ax, %ecx
Ltmp2109:
	.loc	16 1297 21
	cmpq	%rsi, %rcx
	ja	LBB38_69
Ltmp2110:
	.loc	16 1306 21 is_stmt 1
	andl	$32767, %r8d
Ltmp2111:
	.loc	16 1308 42
	leaq	(%r8,%r14), %rax
	.loc	16 1308 41 is_stmt 0
	subq	$1, %rax
	jb	LBB38_106
Ltmp2112:
	.loc	16 390 5 is_stmt 1
	cmpq	$33025, %rax
	ja	LBB38_382
Ltmp2113:
	.loc	16 390 33 is_stmt 0
	movq	%rax, %rbx
	incq	%rbx
	.loc	16 390 27
	cmpq	$33026, %rbx
	jae	LBB38_77
Ltmp2114:
	.loc	16 0 27
	movzwl	-72(%rbp), %edx
	.loc	16 1308 24 is_stmt 1
	cmpw	%dx, 131072(%r12,%rax)
	.loc	16 1308 21 is_stmt 0
	je	LBB38_80
Ltmp2115:
	.loc	16 1294 42 is_stmt 1
	movzwl	(%r12,%r8,2), %r8d
Ltmp2116:
	.loc	16 0 42 is_stmt 0
	movq	-48(%rbp), %rax
Ltmp2117:
	.loc	16 1296 28 is_stmt 1
	subq	%r8, %rax
	jb	LBB38_105
Ltmp2118:
	.loc	16 1297 24
	testw	%r8w, %r8w
	.loc	16 1297 21 is_stmt 0
	je	LBB38_69
Ltmp2119:
	.loc	16 0 0
	movzwl	%ax, %ecx
Ltmp2120:
	.loc	16 1297 21
	cmpq	%rsi, %rcx
	ja	LBB38_69
Ltmp2121:
	.loc	16 1306 21 is_stmt 1
	andl	$32767, %r8d
Ltmp2122:
	.loc	16 1308 42
	leaq	(%r8,%r14), %rax
	.loc	16 1308 41 is_stmt 0
	subq	$1, %rax
	jb	LBB38_106
Ltmp2123:
	.loc	16 390 5 is_stmt 1
	cmpq	$33025, %rax
	ja	LBB38_382
Ltmp2124:
	.loc	16 390 33 is_stmt 0
	movq	%rax, %rbx
	incq	%rbx
	.loc	16 390 27
	cmpq	$33025, %rbx
	ja	LBB38_77
Ltmp2125:
	.loc	16 0 27
	movzwl	-72(%rbp), %edx
	.loc	16 1308 24 is_stmt 1
	cmpw	%dx, 131072(%r12,%rax)
	.loc	16 1308 21 is_stmt 0
	je	LBB38_80
Ltmp2126:
	.loc	16 1294 42 is_stmt 1
	movzwl	(%r12,%r8,2), %r8d
Ltmp2127:
	.loc	16 0 42 is_stmt 0
	movq	-48(%rbp), %rax
Ltmp2128:
	.loc	16 1296 28 is_stmt 1
	subq	%r8, %rax
	jb	LBB38_105
Ltmp2129:
	.loc	16 1297 24
	testw	%r8w, %r8w
	.loc	16 1297 21 is_stmt 0
	je	LBB38_69
Ltmp2130:
	.loc	16 0 0
	movzwl	%ax, %ecx
Ltmp2131:
	.loc	16 1297 21
	cmpq	%rsi, %rcx
	ja	LBB38_69
Ltmp2132:
	.loc	16 1306 21 is_stmt 1
	andl	$32767, %r8d
Ltmp2133:
	.loc	16 1308 42
	leaq	(%r8,%r14), %rax
	.loc	16 1308 41 is_stmt 0
	subq	$1, %rax
	jb	LBB38_106
Ltmp2134:
	.loc	16 390 5 is_stmt 1
	cmpq	$33025, %rax
	ja	LBB38_382
Ltmp2135:
	.loc	16 390 33 is_stmt 0
	movq	%rax, %rbx
	incq	%rbx
	.loc	16 390 27
	cmpq	$33025, %rbx
	ja	LBB38_77
Ltmp2136:
	.loc	16 0 27
	movzwl	-72(%rbp), %edx
	.loc	16 1308 24 is_stmt 1
	cmpw	%dx, 131072(%r12,%rax)
	.loc	16 1308 21 is_stmt 0
	je	LBB38_80
Ltmp2137:
	.loc	16 1286 17 is_stmt 1
	leal	-1(%r10), %eax
	cmpl	$1, %r10d
	movl	%eax, %r10d
	jae	LBB38_68
	jmp	LBB38_103
Ltmp2138:
LBB38_80:
	.loc	16 1314 16
	testq	%rcx, %rcx
	.loc	16 1314 13 is_stmt 0
	je	LBB38_69
Ltmp2139:
	.loc	16 0 13
	movzwl	-118(%rbp), %eax
	.loc	16 1321 16 is_stmt 1
	cmpw	%ax, 131072(%r12,%r8)
	.loc	16 1321 13 is_stmt 0
	jne	LBB38_102
Ltmp2140:
	.loc	16 0 13
	movq	-304(%rbp), %rax
Ltmp2141:
	.loc	16 1328 13 is_stmt 1
	addq	%r8, %rax
	movq	%rax, -200(%rbp)
Ltmp2142:
	.loc	16 0 0 is_stmt 0
	xorl	%ebx, %ebx
Ltmp2143:
LBB38_83:
	.loc	11 1137 52 is_stmt 1
	cmpl	$256, %ebx
Ltmp2144:
	.loc	13 211 9
	je	LBB38_122
Ltmp2145:
	.loc	13 0 9 is_stmt 0
	movq	%r15, %r9
	movq	%rsi, %r15
Ltmp2146:
	movq	%r10, %rsi
	movq	%rdi, %r10
	leaq	2(%rdi,%rbx), %rdi
Ltmp2147:
	.loc	16 1237 47 is_stmt 1
	movq	%rdi, %rax
	addq	$8, %rax
	jb	LBB38_276
Ltmp2148:
	.loc	16 0 47 is_stmt 0
	movq	%r13, %r11
Ltmp2149:
	movq	-48(%rbp), %r13
Ltmp2150:
	.loc	20 2916 12 is_stmt 1
	cmpq	%rdi, %rax
	.loc	20 2916 9 is_stmt 0
	jb	LBB38_274
Ltmp2151:
	.loc	20 2918 19 is_stmt 1
	cmpq	$33026, %rax
	.loc	20 2918 16 is_stmt 0
	ja	LBB38_87
Ltmp2152:
	.loc	20 2918 19
	leaq	10(%r8,%rbx), %rax
	cmpq	$33027, %rax
	.loc	20 2918 16
	jae	LBB38_87
Ltmp2153:
	.loc	20 0 16
	movq	%rcx, %rdx
	movq	%r10, %rdi
Ltmp2154:
	movq	-200(%rbp), %rax
Ltmp2155:
	.loc	32 145 42 is_stmt 1
	movq	(%rax,%rbx), %rax
Ltmp2156:
	.loc	32 0 42 is_stmt 0
	movq	-208(%rbp), %rcx
Ltmp2157:
	.loc	16 1333 20 is_stmt 1
	xorq	(%rcx,%rbx), %rax
Ltmp2158:
	.loc	16 1333 17 is_stmt 0
	leaq	8(%rbx), %rbx
	movq	%r11, %r13
	movq	%rsi, %r10
	movq	%r15, %rsi
	movq	%r9, %r15
	movq	%rdx, %rcx
	je	LBB38_83
Ltmp2159:
	.loc	16 1340 37 is_stmt 1
	leaq	-6(%rdi,%rbx), %rbx
	subq	%rdi, %rbx
	jb	LBB38_107
Ltmp2160:
	.loc	9 2637 17
	testq	%rax, %rax
	je	LBB38_93
Ltmp2161:
	bsfq	%rax, %rax
Ltmp2162:
	.loc	16 1340 47
	shrq	$3, %rax
	.loc	16 1340 37 is_stmt 0
	addq	%rax, %rbx
Ltmp2163:
	.loc	16 0 37
	jae	LBB38_96
	jmp	LBB38_108
Ltmp2164:
LBB38_93:
	movl	$64, %eax
	.loc	16 1340 47
	shrq	$3, %rax
	.loc	16 1340 37
	addq	%rax, %rbx
Ltmp2165:
	jb	LBB38_108
Ltmp2166:
LBB38_96:
	.loc	16 1341 24 is_stmt 1
	cmpq	%r14, %rbx
	.loc	16 1341 21 is_stmt 0
	jbe	LBB38_102
Ltmp2167:
	.loc	11 951 9 is_stmt 1
	cmpl	%ebx, -116(%rbp)
Ltmp2168:
	.loc	16 1344 25
	jbe	LBB38_122
Ltmp2169:
	.loc	16 1351 54
	movl	%ebx, %eax
	.loc	16 1351 48 is_stmt 0
	addq	%rdi, %rax
	subq	$1, %rax
	jb	LBB38_109
Ltmp2170:
	.loc	16 390 5 is_stmt 1
	cmpq	$33025, %rax
	ja	LBB38_382
Ltmp2171:
	.loc	16 390 33 is_stmt 0
	movq	%rax, %r9
	incq	%r9
	.loc	16 390 27
	cmpq	$33026, %r9
	jae	LBB38_395
Ltmp2172:
	.loc	16 390 5
	movzwl	131072(%r12,%rax), %eax
Ltmp2173:
	.loc	16 0 5
	movw	%ax, -72(%rbp)
Ltmp2174:
	movl	%ebx, %r15d
	movl	%ecx, %eax
	movl	%ecx, -56(%rbp)
Ltmp2175:
LBB38_102:
	.loc	16 1286 17 is_stmt 1
	subl	$1, %r10d
	jae	LBB38_67
	jmp	LBB38_103
Ltmp2176:
LBB38_69:
	.loc	16 0 17 is_stmt 0
	movl	-52(%rbp), %r8d
	movl	-56(%rbp), %ecx
Ltmp2177:
LBB38_123:
	movq	-96(%rbp), %r12
	movq	-48(%rbp), %r14
	jmp	LBB38_124
Ltmp2178:
LBB38_118:
	leal	-1(%r14), %eax
	andl	$32767, %eax
	movq	65640(%rcx), %rcx
Ltmp2179:
	movb	131072(%rcx,%rax), %al
Ltmp2180:
	.loc	25 1753 17 is_stmt 1
	leaq	131072(%rcx,%rdi), %rcx
Ltmp2181:
	.loc	25 0 17 is_stmt 0
	xorl	%r15d, %r15d
Ltmp2182:
	.p2align	4, 0x90
LBB38_119:
	.loc	16 1850 38 is_stmt 1
	cmpb	%al, (%rcx,%r15)
Ltmp2183:
	.loc	25 1753 17
	jne	LBB38_121
Ltmp2184:
	.loc	25 0 17 is_stmt 0
	incq	%r15
Ltmp2185:
	.loc	20 3179 9 is_stmt 1
	cmpq	%r15, %r13
	.loc	20 3303 21
	jne	LBB38_119
Ltmp2186:
LBB38_121:
	.loc	16 1852 20
	xorl	%ecx, %ecx
	cmpl	$2, %r15d
	seta	%cl
	cmpl	$3, %r15d
	.loc	16 1852 17 is_stmt 0
	movl	$0, %eax
	cmovbl	%eax, %r15d
Ltmp2187:
LBB38_124:
	.loc	16 1871 29 is_stmt 1
	cmpl	$3, %r15d
	sete	%al
	.loc	16 1871 70 is_stmt 0
	cmpl	$8191, %ecx
	seta	%dl
	.loc	16 1871 29
	andb	%al, %dl
Ltmp2188:
	.loc	16 1872 28 is_stmt 1
	movl	%r8d, %eax
	shrl	$17, %eax
	.loc	16 1872 74 is_stmt 0
	cmpl	$6, %r15d
	setb	%bl
	.loc	16 1872 28
	andb	%al, %bl
Ltmp2189:
	.loc	16 1873 56 is_stmt 1
	movl	%ecx, %eax
	.loc	16 1873 45 is_stmt 0
	cmpq	%rax, %rdi
	sete	%al
	.loc	16 1873 12
	orb	%bl, %al
	orb	%dl, %al
	movl	$0, %eax
	.loc	16 1873 9
	cmovnel	%eax, %r15d
Ltmp2190:
	cmovnel	%eax, %ecx
Ltmp2191:
	.loc	16 0 9
	movl	-136(%rbp), %ebx
Ltmp2192:
	.loc	16 1838 36 is_stmt 1
	testl	%ebx, %ebx
Ltmp2193:
	.loc	16 1878 9
	je	LBB38_125
Ltmp2194:
	.loc	16 0 9 is_stmt 0
	movq	-64(%rbp), %rsi
	movq	65632(%rsi), %rax
Ltmp2195:
	.loc	16 1879 16 is_stmt 1
	cmpl	%ebx, %r15d
	.loc	16 1879 13 is_stmt 0
	jbe	LBB38_131
Ltmp2196:
	.loc	16 1722 5 is_stmt 1
	movl	16(%rsi), %edx
	incl	%edx
	je	LBB38_400
Ltmp2197:
	movl	%edx, 16(%rsi)
Ltmp2198:
	.loc	16 1460 20
	movq	(%rsi), %rbx
	.loc	16 1460 9 is_stmt 0
	cmpq	$65535, %rbx
	ja	LBB38_136
Ltmp2199:
	.loc	16 0 9
	movb	-104(%rbp), %dl
	.loc	16 1460 9
	movb	%dl, 24(%rsi,%rbx)
	.loc	16 1461 9 is_stmt 1
	movq	(%rsi), %rdx
	incq	%rdx
	je	LBB38_135
Ltmp2200:
	movq	%rdx, (%rsi)
Ltmp2201:
	.loc	16 1474 25
	movq	8(%rsi), %rbx
	.loc	16 1474 14 is_stmt 0
	cmpq	$65536, %rbx
	jae	LBB38_139
Ltmp2202:
	.loc	16 1725 5 is_stmt 1
	shrb	24(%rsi,%rbx)
Ltmp2203:
	.loc	16 1483 9
	movl	20(%rsi), %edx
	subl	$1, %edx
	jb	LBB38_323
Ltmp2204:
	movl	%edx, 20(%rsi)
	.loc	16 1484 12
	testl	%edx, %edx
	.loc	16 1484 9 is_stmt 0
	jne	LBB38_144
Ltmp2205:
	.loc	16 0 9
	movq	-64(%rbp), %rsi
	.loc	16 1485 13 is_stmt 1
	movl	$8, 20(%rsi)
Ltmp2206:
	.loc	16 1478 30
	movq	(%rsi), %rdx
	.loc	16 1478 9 is_stmt 0
	movq	%rdx, 8(%rsi)
	.loc	16 1479 9 is_stmt 1
	incq	%rdx
	je	LBB38_397
Ltmp2207:
	movq	%rdx, (%rsi)
Ltmp2208:
LBB38_144:
	.loc	16 1728 16
	movzbl	-104(%rbp), %edx
	.loc	16 1728 5 is_stmt 0
	movzwl	(%rax,%rdx,2), %esi
	incw	%si
	je	LBB38_398
Ltmp2209:
	movw	%si, (%rax,%rdx,2)
Ltmp2210:
LBB38_128:
	.loc	16 0 0
	cmpl	$128, %r15d
	jae	LBB38_146
Ltmp2211:
	movq	-64(%rbp), %rax
	movq	65640(%rax), %rax
	movb	131072(%rax,%rdi), %al
	movb	%al, -104(%rbp)
	movl	$1, %eax
Ltmp2212:
	movl	%r15d, %ebx
	movl	%ecx, -84(%rbp)
Ltmp2213:
	movl	%eax, %eax
Ltmp2214:
	.loc	16 1915 9 is_stmt 1
	addq	%rax, %r14
Ltmp2215:
	.loc	16 0 9 is_stmt 0
	jae	LBB38_158
	jmp	LBB38_191
Ltmp2216:
LBB38_125:
	.loc	16 1895 19 is_stmt 1
	testl	%ecx, %ecx
	.loc	16 1895 16 is_stmt 0
	je	LBB38_147
Ltmp2217:
	.loc	16 0 16
	movq	-64(%rbp), %rax
	.loc	16 1901 19 is_stmt 1
	cmpb	$0, 65624(%rax)
	je	LBB38_127
Ltmp2218:
LBB38_146:
	.loc	16 0 19 is_stmt 0
	movq	-64(%rbp), %rsi
	movq	65632(%rsi), %rdi
	movl	%r15d, %edx
	callq	__ZN11miniz_oxide7deflate4core12record_match17h936b525d8cfcf4c6E
Ltmp2219:
	xorl	%ebx, %ebx
Ltmp2220:
	movl	%r15d, %eax
Ltmp2221:
	movl	%eax, %eax
Ltmp2222:
	.loc	16 1915 9 is_stmt 1
	addq	%rax, %r14
Ltmp2223:
	.loc	16 0 9 is_stmt 0
	jae	LBB38_158
	jmp	LBB38_191
Ltmp2224:
LBB38_131:
	.loc	16 1891 17 is_stmt 1
	movq	%rax, %rdi
	movl	%ebx, %edx
	movl	-84(%rbp), %ecx
Ltmp2225:
	callq	__ZN11miniz_oxide7deflate4core12record_match17h936b525d8cfcf4c6E
	.loc	16 1892 31
	decl	%ebx
Ltmp2226:
	.loc	16 0 31 is_stmt 0
	movl	%ebx, %eax
Ltmp2227:
	xorl	%ebx, %ebx
Ltmp2228:
	movl	%eax, %eax
Ltmp2229:
	.loc	16 1915 9 is_stmt 1
	addq	%rax, %r14
Ltmp2230:
	jb	LBB38_191
Ltmp2231:
LBB38_158:
	.loc	16 1916 17
	subq	%rax, %r13
	movq	-64(%rbp), %r15
Ltmp2232:
	.loc	16 1916 9 is_stmt 0
	jb	LBB38_401
Ltmp2233:
	.loc	16 1917 9 is_stmt 1
	jb	LBB38_192
Ltmp2234:
	.loc	16 1918 32
	addq	65672(%r15), %rax
Ltmp2235:
	jb	LBB38_193
Ltmp2236:
	.loc	11 0 0 is_stmt 0
	cmpq	$32768, %rax
	movl	$32768, %ecx
	cmovaeq	%rcx, %rax
Ltmp2237:
	.loc	16 1918 9
	movq	%rax, 65672(%r15)
	.loc	16 1920 28 is_stmt 1
	movq	(%r15), %rcx
Ltmp2238:
	.loc	16 1922 20
	movq	%rcx, %rax
	movl	$115, %edx
	mulq	%rdx
	jo	LBB38_194
Ltmp2239:
	.loc	16 1922 56 is_stmt 0
	movl	16(%r15), %edx
	cmpq	$31745, %rdx
Ltmp2240:
	.loc	16 1923 26 is_stmt 1
	jb	LBB38_166
Ltmp2241:
	.loc	16 1920 28
	cmpq	$65528, %rcx
Ltmp2242:
	.loc	16 1923 26
	ja	LBB38_167
Ltmp2243:
	.loc	16 0 0 is_stmt 0
	movl	65584(%r15), %ecx
	andl	$524288, %ecx
Ltmp2244:
	.loc	16 1923 26
	jne	LBB38_167
Ltmp2245:
	.loc	16 0 0
	shrq	$7, %rax
Ltmp2246:
	.loc	16 1923 26
	cmpq	%rdx, %rax
	jb	LBB38_8
	jmp	LBB38_167
Ltmp2247:
LBB38_166:
	.loc	16 1920 28 is_stmt 1
	cmpq	$65529, %rcx
Ltmp2248:
	.loc	16 1925 12
	jb	LBB38_8
	jmp	LBB38_167
Ltmp2249:
LBB38_147:
	.loc	16 0 12 is_stmt 0
	movq	-64(%rbp), %rsi
Ltmp2250:
	.loc	16 1722 5 is_stmt 1
	movl	16(%rsi), %edx
	incl	%edx
	je	LBB38_400
Ltmp2251:
	.loc	16 0 0 is_stmt 0
	movq	65632(%rsi), %rax
	movq	65640(%rsi), %rcx
Ltmp2252:
	movb	131072(%rcx,%rdi), %cl
Ltmp2253:
	.loc	16 1722 5
	movl	%edx, 16(%rsi)
Ltmp2254:
	.loc	16 1460 20 is_stmt 1
	movq	(%rsi), %rdi
	.loc	16 1460 9 is_stmt 0
	cmpq	$65535, %rdi
	ja	LBB38_322
Ltmp2255:
	movb	%cl, 24(%rsi,%rdi)
	.loc	16 1461 9 is_stmt 1
	movq	(%rsi), %rdx
	incq	%rdx
	je	LBB38_135
Ltmp2256:
	movq	%rdx, (%rsi)
Ltmp2257:
	.loc	16 1474 25
	movq	8(%rsi), %rdi
	.loc	16 1474 14 is_stmt 0
	cmpq	$65536, %rdi
	jae	LBB38_399
Ltmp2258:
	.loc	16 1725 5 is_stmt 1
	shrb	24(%rsi,%rdi)
Ltmp2259:
	.loc	16 1483 9
	movl	20(%rsi), %edx
	subl	$1, %edx
	jb	LBB38_323
Ltmp2260:
	movl	%edx, 20(%rsi)
	.loc	16 1484 12
	testl	%edx, %edx
	.loc	16 1484 9 is_stmt 0
	jne	LBB38_155
Ltmp2261:
	.loc	16 1485 13 is_stmt 1
	movl	$8, 20(%rsi)
Ltmp2262:
	.loc	16 1478 30
	movq	(%rsi), %rdx
	.loc	16 1478 9 is_stmt 0
	movq	%rdx, 8(%rsi)
	.loc	16 1479 9 is_stmt 1
	incq	%rdx
	je	LBB38_397
Ltmp2263:
	movq	%rdx, (%rsi)
Ltmp2264:
LBB38_155:
	.loc	16 0 0 is_stmt 0
	movzbl	%cl, %ecx
Ltmp2265:
	.loc	16 1728 5 is_stmt 1
	movzwl	(%rax,%rcx,2), %edx
	incw	%dx
	je	LBB38_398
Ltmp2266:
	movw	%dx, (%rax,%rcx,2)
	xorl	%ebx, %ebx
	movl	$1, %eax
Ltmp2267:
	.loc	16 0 0 is_stmt 0
	movl	%eax, %eax
Ltmp2268:
	.loc	16 1915 9 is_stmt 1
	addq	%rax, %r14
Ltmp2269:
	.loc	16 0 9 is_stmt 0
	jae	LBB38_158
	jmp	LBB38_191
Ltmp2270:
LBB38_127:
	.loc	16 1902 16 is_stmt 1
	testl	$65536, %r8d
	.loc	16 1901 19
	je	LBB38_128
	jmp	LBB38_146
Ltmp2271:
LBB38_122:
	.loc	16 0 19 is_stmt 0
	movl	-116(%rbp), %eax
	movl	%eax, %r15d
	movl	-52(%rbp), %r8d
Ltmp2272:
	jmp	LBB38_123
Ltmp2273:
LBB38_170:
	.loc	16 1942 5 is_stmt 1
	movq	%r12, 65560(%r15)
	.loc	16 1943 5
	movq	%r13, 65656(%r15)
	.loc	16 1944 5
	movq	%r14, 65664(%r15)
	movb	-104(%rbp), %al
	.loc	16 1945 5
	movb	%al, 65625(%r15)
	movl	-84(%rbp), %eax
	.loc	16 1946 5
	movl	%eax, 65592(%r15)
	.loc	16 1947 5
	movl	%ebx, 65596(%r15)
	movq	-144(%rbp), %r14
Ltmp2274:
	.loc	16 0 5 is_stmt 0
	movq	-112(%rbp), %r12
Ltmp2275:
	movq	-128(%rbp), %rbx
Ltmp2276:
	.loc	16 2264 12 is_stmt 1
	movq	(%r12), %rcx
Ltmp2277:
	testq	%rcx, %rcx
	jne	LBB38_356
	jmp	LBB38_362
Ltmp2278:
LBB38_196:
	.loc	16 0 12 is_stmt 0
	xorl	%ecx, %ecx
Ltmp2279:
	.loc	16 2270 22 is_stmt 1
	movb	65626(%r15), %al
Ltmp2280:
	.loc	10 485 13
	testq	%rcx, %rcx
	jne	LBB38_363
	jmp	LBB38_364
Ltmp2281:
LBB38_354:
	.loc	16 0 0 is_stmt 0
	movq	%r8, 65560(%r15)
Ltmp2282:
	movq	-128(%rbp), %rbx
Ltmp2283:
	jg	LBB38_355
	jmp	LBB38_360
Ltmp2284:
LBB38_324:
	.loc	16 2127 25 is_stmt 1
	movl	$-1, 65612(%r15)
	movq	-48(%rbp), %r8
	.loc	16 2128 25
	movq	%r8, 65560(%r15)
	jmp	LBB38_360
Ltmp2285:
LBB38_168:
	.loc	16 0 25 is_stmt 0
	movb	-104(%rbp), %cl
Ltmp2286:
	.loc	16 1934 17 is_stmt 1
	movb	%cl, 65625(%r15)
	movl	-84(%rbp), %ecx
	.loc	16 1935 17
	movl	%ecx, 65592(%r15)
	.loc	16 1936 17
	movl	%ebx, 65596(%r15)
	.loc	16 1937 24
	testl	%eax, %eax
	movq	-144(%rbp), %r14
Ltmp2287:
	.loc	16 0 24 is_stmt 0
	movq	-112(%rbp), %r12
	movq	-128(%rbp), %rbx
Ltmp2288:
	.loc	16 2256 5 is_stmt 1
	jg	LBB38_355
Ltmp2289:
	.loc	16 2259 13
	movq	(%rbx), %r8
	jmp	LBB38_360
Ltmp2290:
LBB38_359:
	.loc	16 0 13 is_stmt 0
	movq	-48(%rbp), %r8
Ltmp2291:
	.loc	16 2089 29 is_stmt 1
	movq	%r8, 65560(%r15)
	.loc	16 2090 29
	movl	$-1, 65612(%r15)
Ltmp2292:
LBB38_360:
	.loc	16 2258 13
	movl	65612(%r15), %eax
	.loc	16 2260 13
	movq	65568(%r15), %rcx
	.loc	16 2257 16
	movl	%eax, 8(%r14)
	movq	%r8, (%r14)
	movq	%rcx, 16(%r14)
	jmp	LBB38_375
Ltmp2293:
LBB38_325:
	.loc	16 2144 5
	movq	%r8, 65560(%r15)
	.loc	16 2145 5
	movq	%r12, 65656(%r15)
	movq	-72(%rbp), %rax
	.loc	16 2146 5
	movq	%rax, 65664(%r15)
	movq	-128(%rbp), %rbx
	movq	-112(%rbp), %r12
Ltmp2294:
LBB38_355:
	.loc	16 2264 12
	movq	(%r12), %rcx
Ltmp2295:
	testq	%rcx, %rcx
	je	LBB38_362
Ltmp2296:
LBB38_356:
	.loc	16 2265 12
	testb	$48, 65585(%r15)
	.loc	16 2265 9 is_stmt 0
	je	LBB38_362
Ltmp2297:
	.loc	16 2264 17 is_stmt 1
	movq	8(%r12), %rsi
Ltmp2298:
	.loc	16 2266 75
	movq	65560(%r15), %rdx
Ltmp2299:
	.loc	20 2918 19
	cmpq	%rdx, %rsi
	.loc	20 2918 16 is_stmt 0
	jb	LBB38_358
Ltmp2300:
	.loc	16 0 0
	movl	65608(%r15), %eax
Ltmp2301:
	.file	33 "/Users/yingyuhang/.cargo/registry/src/github.com-1ecc6299db9ec823/miniz_oxide-0.4.0/src/shared.rs"
	.loc	33 15 20 is_stmt 1
	movw	%ax, -192(%rbp)
Ltmp2302:
	.file	34 "/Users/yingyuhang/.cargo/registry/src/github.com-1ecc6299db9ec823/adler-0.2.3/src/lib.rs"
	.loc	34 84 16
	shrl	$16, %eax
Ltmp2303:
	.loc	33 15 20
	movw	%ax, -190(%rbp)
Ltmp2304:
	.loc	33 0 20 is_stmt 0
	leaq	-192(%rbp), %rdi
Ltmp2305:
	.loc	33 16 5 is_stmt 1
	movq	%rcx, %rsi
Ltmp2306:
	callq	__ZN5adler7Adler3211write_slice17hf20b6fe6d324734bE
Ltmp2307:
	.loc	34 91 9
	movl	-192(%rbp), %eax
Ltmp2308:
	.loc	16 2266 13
	movl	%eax, 65608(%r15)
Ltmp2309:
	.loc	16 2271 19
	movq	(%r12), %rcx
Ltmp2310:
LBB38_362:
	.loc	16 2270 22
	movb	65626(%r15), %al
Ltmp2311:
	.loc	10 485 13
	testq	%rcx, %rcx
	je	LBB38_364
Ltmp2312:
LBB38_363:
	.loc	10 0 13 is_stmt 0
	movq	8(%r12), %rcx
Ltmp2313:
LBB38_364:
	.loc	16 2271 19 is_stmt 1
	subq	65560(%r15), %rcx
	jb	LBB38_376
Ltmp2314:
	.loc	16 210 30
	testb	%al, %al
Ltmp2315:
	.loc	16 2273 8
	je	LBB38_374
Ltmp2316:
	orq	65656(%r15), %rcx
Ltmp2317:
	jne	LBB38_374
	cmpl	$0, 65604(%r15)
	jne	LBB38_374
Ltmp2318:
	.loc	16 2275 15
	movzbl	%al, %edx
	movq	%r15, %rdi
	movq	%r12, %rsi
	callq	__ZN11miniz_oxide7deflate4core11flush_block17h74ece9f30160b90fE
	.loc	16 2276 13
	testl	%eax, %eax
	je	LBB38_370
	.loc	16 2277 17
	movl	$-1, 65612(%r15)
	.loc	16 2280 21
	movq	65560(%r15), %rax
	.loc	16 2281 21
	movq	65568(%r15), %rcx
	.loc	16 2278 24
	movl	$-1, 8(%r14)
	movq	%rax, (%r14)
	movq	%rcx, 16(%r14)
	jmp	LBB38_375
LBB38_370:
Ltmp2319:
	.loc	16 2284 22
	testl	%edx, %edx
	js	LBB38_371
Ltmp2320:
	.loc	16 2292 37
	movb	65626(%r15), %al
Ltmp2321:
	.loc	16 210 30
	cmpb	$4, %al
Ltmp2322:
	.loc	16 2292 17
	sete	65627(%r15)
Ltmp2323:
	.loc	16 210 30
	cmpb	$3, %al
Ltmp2324:
	.loc	16 2293 17
	jne	LBB38_374
Ltmp2325:
	.loc	16 0 17 is_stmt 0
	movl	$65536, %eax
	movq	65640(%r15), %rdi
	.loc	16 2294 33 is_stmt 1
	addq	%rax, %rdi
Ltmp2326:
	.loc	16 375 9
	movl	$65536, %esi
	callq	___bzero
Ltmp2327:
	.loc	16 2295 33
	movq	65640(%r15), %rdi
Ltmp2328:
	.loc	16 375 9
	movl	$65536, %esi
	callq	___bzero
Ltmp2329:
	.loc	16 2296 21
	movq	$0, 65672(%r15)
	jmp	LBB38_374
Ltmp2330:
LBB38_371:
	.loc	16 2286 21
	movl	65612(%r15), %eax
	.loc	16 2287 21
	movq	65560(%r15), %rcx
	.loc	16 2288 21
	movq	65568(%r15), %rdx
	.loc	16 2285 24
	movl	%eax, 8(%r14)
	movq	%rcx, (%r14)
	movq	%rdx, 16(%r14)
	jmp	LBB38_375
Ltmp2331:
LBB38_180:
	.loc	16 1801 17
	leaq	_str.0(%rip), %rdi
	leaq	l___unnamed_163(%rip), %rdx
	movl	$28, %esi
	callq	__ZN4core9panicking5panic17h736ee47a631475c0E
Ltmp2332:
LBB38_182:
	.loc	16 1807 31
	leaq	_str.0(%rip), %rdi
	leaq	l___unnamed_164(%rip), %rdx
	movl	$28, %esi
	callq	__ZN4core9panicking5panic17h736ee47a631475c0E
Ltmp2333:
LBB38_184:
	.loc	16 1813 17
	leaq	_str.0(%rip), %rdi
	leaq	l___unnamed_165(%rip), %rdx
Ltmp2334:
	movl	$28, %esi
	callq	__ZN4core9panicking5panic17h736ee47a631475c0E
Ltmp2335:
LBB38_185:
	.loc	16 1814 20
	leaq	_str.0(%rip), %rdi
	leaq	l___unnamed_166(%rip), %rdx
Ltmp2336:
	movl	$28, %esi
	callq	__ZN4core9panicking5panic17h736ee47a631475c0E
Ltmp2337:
LBB38_87:
	.loc	16 0 0 is_stmt 0
	leaq	l___unnamed_167(%rip), %rdx
	movl	$33026, %esi
	movq	%rax, %rdi
	callq	__ZN4core5slice20slice_index_len_fail17h550a313151a85135E
Ltmp2338:
LBB38_276:
	leaq	_str.0(%rip), %rdi
	leaq	l___unnamed_168(%rip), %rdx
	movl	$28, %esi
	callq	__ZN4core9panicking5panic17h736ee47a631475c0E
Ltmp2339:
LBB38_273:
	.loc	20 2919 13 is_stmt 1
	andl	$32767, %r10d
	leaq	11(%r10,%rsi), %rdi
	leaq	l___unnamed_167(%rip), %rdx
	movl	$33026, %esi
	callq	__ZN4core5slice20slice_index_len_fail17h550a313151a85135E
Ltmp2340:
LBB38_406:
	.loc	20 0 13 is_stmt 0
	leaq	-216(%rbp), %rax
Ltmp2341:
	movq	%rax, -232(%rbp)
	leaq	-224(%rbp), %rax
	movq	%rax, -240(%rbp)
Ltmp2342:
	leaq	l___unnamed_20(%rip), %rax
Ltmp2343:
	movq	%rax, -192(%rbp)
	movq	$1, -184(%rbp)
	movq	$0, -176(%rbp)
	leaq	l___unnamed_21(%rip), %rax
Ltmp2344:
	movq	%rax, -160(%rbp)
	movq	$0, -152(%rbp)
	leaq	-232(%rbp), %rax
Ltmp2345:
	movq	%rax, -296(%rbp)
	leaq	__ZN42_$LT$$RF$T$u20$as$u20$core..fmt..Debug$GT$3fmt17h746a44147b4efa2eE(%rip), %rax
	movq	%rax, -288(%rbp)
	leaq	-240(%rbp), %rcx
	movq	%rcx, -280(%rbp)
	movq	%rax, -272(%rbp)
	leaq	-192(%rbp), %rax
	movq	%rax, -264(%rbp)
	movq	__ZN59_$LT$core..fmt..Arguments$u20$as$u20$core..fmt..Display$GT$3fmt17h58d7abb0506833b1E@GOTPCREL(%rip), %rax
	movq	%rax, -256(%rbp)
Ltmp2346:
	leaq	l___unnamed_22(%rip), %rax
Ltmp2347:
	movq	%rax, -352(%rbp)
	movq	$3, -344(%rbp)
	movq	$0, -336(%rbp)
	leaq	-296(%rbp), %rax
Ltmp2348:
	movq	%rax, -320(%rbp)
	movq	$3, -312(%rbp)
	leaq	l___unnamed_23(%rip), %rsi
	leaq	-352(%rbp), %rdi
	callq	__ZN4core9panicking9panic_fmt17hab6ef1464e9720aaE
Ltmp2349:
LBB38_179:
	.loc	16 1792 21 is_stmt 1
	leaq	l___unnamed_169(%rip), %rdx
Ltmp2350:
	movl	$33026, %esi
	callq	__ZN4core9panicking18panic_bounds_check17habe69d236c55e3edE
Ltmp2351:
LBB38_183:
	.loc	16 1810 21
	leaq	l___unnamed_170(%rip), %rdx
	movl	$33026, %esi
	callq	__ZN4core9panicking18panic_bounds_check17habe69d236c55e3edE
Ltmp2352:
LBB38_186:
	.loc	16 1815 35
	leaq	_str.0(%rip), %rdi
	leaq	l___unnamed_171(%rip), %rdx
Ltmp2353:
	movl	$28, %esi
	callq	__ZN4core9panicking5panic17h736ee47a631475c0E
Ltmp2354:
LBB38_187:
	leaq	_str.1(%rip), %rdi
	leaq	l___unnamed_171(%rip), %rdx
Ltmp2355:
	movl	$33, %esi
	callq	__ZN4core9panicking5panic17h736ee47a631475c0E
Ltmp2356:
LBB38_188:
	.loc	16 1818 51
	leaq	_str.0(%rip), %rdi
	leaq	l___unnamed_172(%rip), %rdx
Ltmp2357:
	movl	$28, %esi
Ltmp2358:
	callq	__ZN4core9panicking5panic17h736ee47a631475c0E
Ltmp2359:
LBB38_77:
	.loc	16 390 27
	leaq	l___unnamed_98(%rip), %rdx
Ltmp2360:
	.loc	16 0 0 is_stmt 0
	movl	$33026, %esi
	movq	%rbx, %rdi
Ltmp2361:
	callq	__ZN4core9panicking18panic_bounds_check17habe69d236c55e3edE
Ltmp2362:
LBB38_382:
	leaq	l___unnamed_97(%rip), %rdx
Ltmp2363:
	movl	$33026, %esi
	movq	%rax, %rdi
	callq	__ZN4core9panicking18panic_bounds_check17habe69d236c55e3edE
Ltmp2364:
LBB38_105:
	.loc	16 1296 28 is_stmt 1
	leaq	_str.1(%rip), %rdi
Ltmp2365:
	leaq	l___unnamed_173(%rip), %rdx
	movl	$33, %esi
	callq	__ZN4core9panicking5panic17h736ee47a631475c0E
Ltmp2366:
LBB38_106:
	.loc	16 1308 41
	leaq	_str.1(%rip), %rdi
Ltmp2367:
	leaq	l___unnamed_174(%rip), %rdx
	movl	$33, %esi
	callq	__ZN4core9panicking5panic17h736ee47a631475c0E
Ltmp2368:
LBB38_403:
	.loc	20 2929 13
	leaq	l___unnamed_175(%rip), %rdx
	movl	$33026, %esi
	movq	%r15, %rdi
	callq	__ZN4core5slice20slice_index_len_fail17h550a313151a85135E
Ltmp2369:
LBB38_330:
	.loc	16 1976 82
	leaq	_str.0(%rip), %rdi
	leaq	l___unnamed_176(%rip), %rdx
	movl	$28, %esi
	callq	__ZN4core9panicking5panic17h736ee47a631475c0E
Ltmp2370:
LBB38_404:
	.loc	20 2917 13
	leaq	l___unnamed_177(%rip), %rdx
	movq	%r8, %rdi
	movq	%r12, %rsi
	callq	__ZN4core5slice22slice_index_order_fail17h85b430a3a039f0a8E
Ltmp2371:
LBB38_405:
	.loc	20 2919 13
	leaq	l___unnamed_177(%rip), %rdx
	movq	%r12, %rdi
	movq	-80(%rbp), %rsi
	callq	__ZN4core5slice20slice_index_len_fail17h550a313151a85135E
Ltmp2372:
LBB38_332:
	.loc	16 1986 13
	leaq	_str.1(%rip), %rdi
	leaq	l___unnamed_178(%rip), %rdx
	movl	$33, %esi
	callq	__ZN4core9panicking5panic17h736ee47a631475c0E
Ltmp2373:
LBB38_135:
	.loc	16 0 0 is_stmt 0
	leaq	_str.0(%rip), %rdi
	leaq	l___unnamed_143(%rip), %rdx
	movl	$28, %esi
	callq	__ZN4core9panicking5panic17h736ee47a631475c0E
Ltmp2374:
LBB38_323:
	leaq	_str.1(%rip), %rdi
	leaq	l___unnamed_151(%rip), %rdx
	movl	$33, %esi
	callq	__ZN4core9panicking5panic17h736ee47a631475c0E
Ltmp2375:
LBB38_322:
	leaq	l___unnamed_142(%rip), %rdx
	movl	$65536, %esi
	callq	__ZN4core9panicking18panic_bounds_check17habe69d236c55e3edE
Ltmp2376:
LBB38_399:
	leaq	l___unnamed_122(%rip), %rdx
	movl	$65536, %esi
	callq	__ZN4core9panicking18panic_bounds_check17habe69d236c55e3edE
Ltmp2377:
LBB38_334:
	.loc	16 2005 38 is_stmt 1
	leaq	_str.1(%rip), %rdi
	leaq	l___unnamed_179(%rip), %rdx
	movl	$33, %esi
Ltmp2378:
	callq	__ZN4core9panicking5panic17h736ee47a631475c0E
Ltmp2379:
LBB38_407:
	.loc	20 2929 13
	leaq	l___unnamed_180(%rip), %rdx
Ltmp2380:
	movl	$33026, %esi
	callq	__ZN4core5slice20slice_index_len_fail17h550a313151a85135E
Ltmp2381:
LBB38_331:
	.loc	16 1981 55
	leaq	_str.0(%rip), %rdi
	leaq	l___unnamed_181(%rip), %rdx
Ltmp2382:
	movl	$28, %esi
	callq	__ZN4core9panicking5panic17h736ee47a631475c0E
Ltmp2383:
LBB38_408:
	.loc	20 2917 13
	leaq	l___unnamed_182(%rip), %rdx
Ltmp2384:
	callq	__ZN4core5slice22slice_index_order_fail17h85b430a3a039f0a8E
Ltmp2385:
LBB38_409:
	.loc	20 2919 13
	leaq	l___unnamed_182(%rip), %rdx
Ltmp2386:
	movq	%rsi, %rdi
	movq	-80(%rbp), %rsi
Ltmp2387:
	callq	__ZN4core5slice20slice_index_len_fail17h550a313151a85135E
Ltmp2388:
LBB38_104:
	.loc	16 1294 42
	leaq	l___unnamed_183(%rip), %rdx
	movl	$32768, %esi
	movq	%r8, %rdi
Ltmp2389:
	callq	__ZN4core9panicking18panic_bounds_check17habe69d236c55e3edE
Ltmp2390:
LBB38_103:
	.loc	16 1286 17
	leaq	_str.1(%rip), %rdi
	leaq	l___unnamed_184(%rip), %rdx
	movl	$33, %esi
	callq	__ZN4core9panicking5panic17h736ee47a631475c0E
Ltmp2391:
LBB38_171:
	.loc	16 1770 28
	leaq	_str.1(%rip), %rdi
	leaq	l___unnamed_185(%rip), %rdx
	movl	$33, %esi
	callq	__ZN4core9panicking5panic17h736ee47a631475c0E
Ltmp2392:
LBB38_172:
	.loc	16 1771 59
	leaq	_str.1(%rip), %rdi
	leaq	l___unnamed_186(%rip), %rdx
	movl	$33, %esi
	callq	__ZN4core9panicking5panic17h736ee47a631475c0E
Ltmp2393:
LBB38_173:
	.loc	16 1773 12
	leaq	_str.0(%rip), %rdi
	leaq	l___unnamed_187(%rip), %rdx
	movl	$28, %esi
	callq	__ZN4core9panicking5panic17h736ee47a631475c0E
Ltmp2394:
LBB38_189:
	.loc	16 1831 32
	leaq	_str.1(%rip), %rdi
	leaq	l___unnamed_188(%rip), %rdx
	movl	$33, %esi
	callq	__ZN4core9panicking5panic17h736ee47a631475c0E
Ltmp2395:
LBB38_349:
	.loc	16 2108 23
	leaq	l___unnamed_189(%rip), %rdx
Ltmp2396:
	.loc	16 0 0 is_stmt 0
	movl	$33026, %esi
	movq	%rbx, %rdi
	callq	__ZN4core9panicking18panic_bounds_check17habe69d236c55e3edE
Ltmp2397:
LBB38_350:
	.loc	16 2109 13 is_stmt 1
	leaq	_str.0(%rip), %rdi
	leaq	l___unnamed_190(%rip), %rdx
	movl	$28, %esi
	callq	__ZN4core9panicking5panic17h736ee47a631475c0E
Ltmp2398:
LBB38_351:
	.loc	16 2114 13
	leaq	_str.0(%rip), %rdi
	leaq	l___unnamed_191(%rip), %rdx
	movl	$28, %esi
	callq	__ZN4core9panicking5panic17h736ee47a631475c0E
Ltmp2399:
LBB38_352:
	.loc	16 2115 13
	leaq	_str.0(%rip), %rdi
	leaq	l___unnamed_192(%rip), %rdx
	movl	$28, %esi
	callq	__ZN4core9panicking5panic17h736ee47a631475c0E
Ltmp2400:
LBB38_353:
	.loc	16 2116 36
	leaq	_str.0(%rip), %rdi
	leaq	l___unnamed_193(%rip), %rdx
	movl	$28, %esi
	callq	__ZN4core9panicking5panic17h736ee47a631475c0E
Ltmp2401:
LBB38_401:
	.loc	16 1916 9
	leaq	l___unnamed_194(%rip), %rdi
	leaq	l___unnamed_195(%rip), %rdx
	movl	$47, %esi
	callq	__ZN4core9panicking5panic17h736ee47a631475c0E
Ltmp2402:
LBB38_192:
	.loc	16 1917 9
	leaq	_str.1(%rip), %rdi
	leaq	l___unnamed_196(%rip), %rdx
	movl	$33, %esi
	callq	__ZN4core9panicking5panic17h736ee47a631475c0E
Ltmp2403:
LBB38_193:
	.loc	16 1918 32
	leaq	_str.0(%rip), %rdi
	leaq	l___unnamed_197(%rip), %rdx
	movl	$28, %esi
	callq	__ZN4core9panicking5panic17h736ee47a631475c0E
Ltmp2404:
LBB38_194:
	.loc	16 1922 20
	leaq	_str.3(%rip), %rdi
	leaq	l___unnamed_198(%rip), %rdx
	movl	$33, %esi
	callq	__ZN4core9panicking5panic17h736ee47a631475c0E
Ltmp2405:
LBB38_191:
	.loc	16 1915 9
	leaq	_str.0(%rip), %rdi
	leaq	l___unnamed_199(%rip), %rdx
	movl	$28, %esi
	callq	__ZN4core9panicking5panic17h736ee47a631475c0E
Ltmp2406:
LBB38_397:
	.loc	16 0 0 is_stmt 0
	leaq	_str.0(%rip), %rdi
	leaq	l___unnamed_155(%rip), %rdx
	movl	$28, %esi
	callq	__ZN4core9panicking5panic17h736ee47a631475c0E
Ltmp2407:
LBB38_344:
	.loc	16 2076 17 is_stmt 1
	leaq	_str.0(%rip), %rdi
	leaq	l___unnamed_200(%rip), %rdx
	movl	$28, %esi
	callq	__ZN4core9panicking5panic17h736ee47a631475c0E
Ltmp2408:
LBB38_345:
	.loc	16 2077 17
	leaq	_str.0(%rip), %rdi
	leaq	l___unnamed_201(%rip), %rdx
	movl	$28, %esi
	callq	__ZN4core9panicking5panic17h736ee47a631475c0E
Ltmp2409:
LBB38_346:
	.loc	16 2078 40
	leaq	_str.0(%rip), %rdi
	leaq	l___unnamed_202(%rip), %rdx
	movl	$28, %esi
	callq	__ZN4core9panicking5panic17h736ee47a631475c0E
Ltmp2410:
LBB38_347:
	.loc	16 2079 27
	leaq	_str.0(%rip), %rdi
	leaq	l___unnamed_203(%rip), %rdx
	movl	$28, %esi
	callq	__ZN4core9panicking5panic17h736ee47a631475c0E
Ltmp2411:
LBB38_348:
	.loc	16 2080 17
	leaq	_str.1(%rip), %rdi
	leaq	l___unnamed_204(%rip), %rdx
	movl	$33, %esi
	callq	__ZN4core9panicking5panic17h736ee47a631475c0E
Ltmp2412:
LBB38_274:
	.loc	20 2917 13
	andl	$32767, %r13d
	leaq	2(%r13,%rbx), %rdi
Ltmp2413:
LBB38_275:
	.loc	16 0 0 is_stmt 0
	leaq	l___unnamed_167(%rip), %rdx
	movq	%rax, %rsi
	callq	__ZN4core5slice22slice_index_order_fail17h85b430a3a039f0a8E
Ltmp2414:
LBB38_174:
	.loc	16 1778 31 is_stmt 1
	leaq	_str.0(%rip), %rdi
	leaq	l___unnamed_205(%rip), %rdx
	movl	$28, %esi
	callq	__ZN4core9panicking5panic17h736ee47a631475c0E
Ltmp2415:
LBB38_175:
	.loc	16 1779 31
	leaq	_str.1(%rip), %rdi
	leaq	l___unnamed_206(%rip), %rdx
	movl	$33, %esi
	callq	__ZN4core9panicking5panic17h736ee47a631475c0E
Ltmp2416:
LBB38_176:
	.loc	16 1783 29
	leaq	_str.0(%rip), %rdi
	leaq	l___unnamed_207(%rip), %rdx
Ltmp2417:
	movl	$28, %esi
	callq	__ZN4core9panicking5panic17h736ee47a631475c0E
Ltmp2418:
LBB38_177:
	.loc	16 1786 13
	leaq	_str.0(%rip), %rdi
	leaq	l___unnamed_208(%rip), %rdx
Ltmp2419:
	movl	$28, %esi
	callq	__ZN4core9panicking5panic17h736ee47a631475c0E
Ltmp2420:
LBB38_178:
	.loc	16 1788 40
	leaq	_str.0(%rip), %rdi
	leaq	l___unnamed_209(%rip), %rdx
Ltmp2421:
	movl	$28, %esi
	callq	__ZN4core9panicking5panic17h736ee47a631475c0E
Ltmp2422:
LBB38_29:
	.loc	20 2917 13
	leaq	l___unnamed_210(%rip), %rdx
Ltmp2423:
	.loc	16 0 0 is_stmt 0
	movq	%r12, %rdi
	movq	%r8, %rsi
	callq	__ZN4core5slice22slice_index_order_fail17h85b430a3a039f0a8E
Ltmp2424:
LBB38_27:
	.loc	20 2919 13 is_stmt 1
	leaq	l___unnamed_210(%rip), %rdx
Ltmp2425:
	.loc	16 0 0 is_stmt 0
	movq	%r8, %rdi
	movq	-80(%rbp), %rsi
	callq	__ZN4core5slice20slice_index_len_fail17h550a313151a85135E
Ltmp2426:
LBB38_181:
	.loc	16 1806 40 is_stmt 1
	leaq	_str.0(%rip), %rdi
	leaq	l___unnamed_211(%rip), %rdx
	movl	$28, %esi
	callq	__ZN4core9panicking5panic17h736ee47a631475c0E
Ltmp2427:
LBB38_39:
	.loc	20 2917 13
	leaq	l___unnamed_212(%rip), %rdx
Ltmp2428:
	.loc	16 0 0 is_stmt 0
	movq	%r12, %rdi
	movq	%r8, %rsi
	callq	__ZN4core5slice22slice_index_order_fail17h85b430a3a039f0a8E
Ltmp2429:
LBB38_19:
	.loc	20 2919 13 is_stmt 1
	leaq	l___unnamed_212(%rip), %rdx
Ltmp2430:
	.loc	16 0 0 is_stmt 0
	movq	%r8, %rdi
	movq	-80(%rbp), %rsi
	callq	__ZN4core5slice20slice_index_len_fail17h550a313151a85135E
Ltmp2431:
LBB38_335:
	.loc	16 2013 33 is_stmt 1
	leaq	_str.0(%rip), %rdi
	leaq	l___unnamed_213(%rip), %rdx
	movl	$28, %esi
Ltmp2432:
	callq	__ZN4core9panicking5panic17h736ee47a631475c0E
Ltmp2433:
LBB38_410:
	.loc	16 2099 21
	leaq	l___unnamed_214(%rip), %rdi
	leaq	l___unnamed_215(%rip), %rdx
Ltmp2434:
	movl	$59, %esi
	callq	__ZN4core9panicking5panic17h736ee47a631475c0E
Ltmp2435:
LBB38_400:
	.loc	16 0 0 is_stmt 0
	leaq	_str.0(%rip), %rdi
	leaq	l___unnamed_216(%rip), %rdx
	movl	$28, %esi
	callq	__ZN4core9panicking5panic17h736ee47a631475c0E
Ltmp2436:
LBB38_398:
	leaq	_str.0(%rip), %rdi
	leaq	l___unnamed_217(%rip), %rdx
	movl	$28, %esi
	callq	__ZN4core9panicking5panic17h736ee47a631475c0E
Ltmp2437:
LBB38_343:
	.loc	16 2072 21 is_stmt 1
	leaq	_str.0(%rip), %rdi
	leaq	l___unnamed_218(%rip), %rdx
	movl	$28, %esi
Ltmp2438:
	callq	__ZN4core9panicking5panic17h736ee47a631475c0E
Ltmp2439:
LBB38_268:
	.loc	16 0 0 is_stmt 0
	leaq	l___unnamed_122(%rip), %rdx
	movl	$65536, %esi
	movq	%rax, %rdi
	callq	__ZN4core9panicking18panic_bounds_check17habe69d236c55e3edE
Ltmp2440:
LBB38_190:
	.loc	16 1848 65 is_stmt 1
	leaq	_str.0(%rip), %rdi
Ltmp2441:
	leaq	l___unnamed_219(%rip), %rdx
	movl	$28, %esi
	callq	__ZN4core9panicking5panic17h736ee47a631475c0E
Ltmp2442:
LBB38_396:
	.loc	20 2917 13
	leaq	l___unnamed_220(%rip), %rdx
	movq	%rax, %rsi
	callq	__ZN4core5slice22slice_index_order_fail17h85b430a3a039f0a8E
Ltmp2443:
LBB38_115:
	.loc	20 2919 13
	leaq	l___unnamed_220(%rip), %rdx
Ltmp2444:
	.loc	16 0 0 is_stmt 0
	movl	$33026, %esi
	movq	%rax, %rdi
Ltmp2445:
	callq	__ZN4core5slice20slice_index_len_fail17h550a313151a85135E
Ltmp2446:
LBB38_136:
	.loc	16 1460 9 is_stmt 1
	leaq	l___unnamed_142(%rip), %rdx
Ltmp2447:
	.loc	16 0 0 is_stmt 0
	movl	$65536, %esi
	movq	%rbx, %rdi
	callq	__ZN4core9panicking18panic_bounds_check17habe69d236c55e3edE
Ltmp2448:
LBB38_139:
	.loc	16 1474 14 is_stmt 1
	leaq	l___unnamed_122(%rip), %rdx
Ltmp2449:
	.loc	16 0 0 is_stmt 0
	movl	$65536, %esi
	movq	%rbx, %rdi
	callq	__ZN4core9panicking18panic_bounds_check17habe69d236c55e3edE
Ltmp2450:
LBB38_336:
	.loc	16 2025 51 is_stmt 1
	leaq	_str.1(%rip), %rdi
	leaq	l___unnamed_221(%rip), %rdx
	movl	$33, %esi
	callq	__ZN4core9panicking5panic17h736ee47a631475c0E
Ltmp2451:
LBB38_291:
	.loc	16 2048 25
	leaq	l___unnamed_222(%rip), %rdi
	leaq	l___unnamed_223(%rip), %rdx
	movl	$55, %esi
	callq	__ZN4core9panicking5panic17h736ee47a631475c0E
Ltmp2452:
LBB38_292:
	.loc	16 2049 25
	leaq	l___unnamed_224(%rip), %rdi
	leaq	l___unnamed_225(%rip), %rdx
	movl	$37, %esi
	callq	__ZN4core9panicking5panic17h736ee47a631475c0E
Ltmp2453:
LBB38_293:
	.loc	16 2050 25
	leaq	l___unnamed_226(%rip), %rdi
	leaq	l___unnamed_227(%rip), %rdx
	movl	$57, %esi
	callq	__ZN4core9panicking5panic17h736ee47a631475c0E
Ltmp2454:
LBB38_294:
	.loc	16 1460 9
	leaq	l___unnamed_142(%rip), %rdx
Ltmp2455:
	.loc	16 0 0 is_stmt 0
	movl	$65536, %esi
	movq	%rax, %rdi
	callq	__ZN4core9panicking18panic_bounds_check17habe69d236c55e3edE
Ltmp2456:
LBB38_340:
	.loc	16 2066 41 is_stmt 1
	leaq	l___unnamed_228(%rip), %rdx
	movl	$256, %esi
	callq	__ZN4core9panicking18panic_bounds_check17habe69d236c55e3edE
Ltmp2457:
LBB38_341:
	.loc	16 2066 25 is_stmt 0
	leaq	l___unnamed_229(%rip), %rdx
	movl	$288, %esi
	callq	__ZN4core9panicking18panic_bounds_check17habe69d236c55e3edE
Ltmp2458:
LBB38_342:
	leaq	_str.0(%rip), %rdi
	leaq	l___unnamed_229(%rip), %rdx
	movl	$28, %esi
	callq	__ZN4core9panicking5panic17h736ee47a631475c0E
Ltmp2459:
LBB38_337:
	.loc	16 2025 51 is_stmt 1
	leaq	_str.0(%rip), %rdi
	leaq	l___unnamed_221(%rip), %rdx
	movl	$28, %esi
	callq	__ZN4core9panicking5panic17h736ee47a631475c0E
Ltmp2460:
LBB38_394:
	.loc	16 390 5
	leaq	l___unnamed_97(%rip), %rdx
	movl	$33026, %esi
	movq	%rcx, %rdi
Ltmp2461:
	callq	__ZN4core9panicking18panic_bounds_check17habe69d236c55e3edE
Ltmp2462:
LBB38_63:
	.loc	16 390 27 is_stmt 0
	leaq	l___unnamed_98(%rip), %rdx
Ltmp2463:
	.loc	16 0 0
	movl	$33026, %esi
	movq	%rax, %rdi
Ltmp2464:
	callq	__ZN4core9panicking18panic_bounds_check17habe69d236c55e3edE
Ltmp2465:
LBB38_107:
	.loc	16 1340 37 is_stmt 1
	leaq	_str.1(%rip), %rdi
	leaq	l___unnamed_230(%rip), %rdx
	movl	$33, %esi
	callq	__ZN4core9panicking5panic17h736ee47a631475c0E
Ltmp2466:
LBB38_108:
	leaq	_str.0(%rip), %rdi
	leaq	l___unnamed_230(%rip), %rdx
	movl	$28, %esi
	callq	__ZN4core9panicking5panic17h736ee47a631475c0E
Ltmp2467:
LBB38_109:
	.loc	16 1351 48
	leaq	_str.1(%rip), %rdi
	leaq	l___unnamed_231(%rip), %rdx
	movl	$33, %esi
	callq	__ZN4core9panicking5panic17h736ee47a631475c0E
Ltmp2468:
LBB38_395:
	.loc	16 390 27
	leaq	l___unnamed_98(%rip), %rdx
	movl	$33026, %esi
	movq	%r9, %rdi
	callq	__ZN4core9panicking18panic_bounds_check17habe69d236c55e3edE
Ltmp2469:
LBB38_326:
	.loc	16 1967 28
	leaq	_str.0(%rip), %rdi
	leaq	l___unnamed_232(%rip), %rdx
	movl	$28, %esi
	callq	__ZN4core9panicking5panic17h736ee47a631475c0E
Ltmp2470:
LBB38_327:
	.loc	16 1969 13
	leaq	_str.1(%rip), %rdi
	leaq	l___unnamed_233(%rip), %rdx
	movl	$33, %esi
	callq	__ZN4core9panicking5panic17h736ee47a631475c0E
Ltmp2471:
LBB38_328:
	.loc	16 1970 13
	leaq	_str.1(%rip), %rdi
	leaq	l___unnamed_234(%rip), %rdx
	movl	$33, %esi
	callq	__ZN4core9panicking5panic17h736ee47a631475c0E
Ltmp2472:
LBB38_329:
	.loc	16 1972 9
	leaq	_str.0(%rip), %rdi
	leaq	l___unnamed_235(%rip), %rdx
	movl	$28, %esi
	callq	__ZN4core9panicking5panic17h736ee47a631475c0E
Ltmp2473:
LBB38_333:
	.loc	16 1989 32
	leaq	_str.1(%rip), %rdi
	leaq	l___unnamed_236(%rip), %rdx
	movl	$33, %esi
	callq	__ZN4core9panicking5panic17h736ee47a631475c0E
Ltmp2474:
LBB38_376:
	.loc	16 2271 19
	leaq	_str.1(%rip), %rdi
	leaq	l___unnamed_237(%rip), %rdx
	movl	$33, %esi
	callq	__ZN4core9panicking5panic17h736ee47a631475c0E
Ltmp2475:
LBB38_290:
	.loc	16 2043 25
	leaq	_str.0(%rip), %rdi
	leaq	l___unnamed_238(%rip), %rdx
	movl	$28, %esi
	callq	__ZN4core9panicking5panic17h736ee47a631475c0E
Ltmp2476:
LBB38_402:
	.loc	16 1964 5
	leaq	l___unnamed_214(%rip), %rdi
	leaq	l___unnamed_239(%rip), %rdx
	movl	$59, %esi
	callq	__ZN4core9panicking5panic17h736ee47a631475c0E
Ltmp2477:
LBB38_338:
	.loc	16 2060 29
	leaq	_str.0(%rip), %rdi
	leaq	l___unnamed_240(%rip), %rdx
	movl	$28, %esi
	callq	__ZN4core9panicking5panic17h736ee47a631475c0E
Ltmp2478:
LBB38_339:
	.loc	16 2063 34
	leaq	l___unnamed_241(%rip), %rdx
	movl	$128, %esi
	callq	__ZN4core9panicking18panic_bounds_check17habe69d236c55e3edE
Ltmp2479:
LBB38_300:
	.loc	16 2062 29
	leaq	_str.0(%rip), %rdi
	leaq	l___unnamed_242(%rip), %rdx
	movl	$28, %esi
	callq	__ZN4core9panicking5panic17h736ee47a631475c0E
Ltmp2480:
LBB38_358:
	.loc	20 2919 13
	leaq	l___unnamed_243(%rip), %rax
	movq	%rdx, %rdi
	movq	%rax, %rdx
Ltmp2481:
	callq	__ZN4core5slice20slice_index_len_fail17h550a313151a85135E
Ltmp2482:
Lfunc_end38:
	.cfi_endproc

	.globl	__ZN11miniz_oxide7deflate4core33create_comp_flags_from_zip_params17h9aab0addac13f774E
	.p2align	4, 0x90
__ZN11miniz_oxide7deflate4core33create_comp_flags_from_zip_params17h9aab0addac13f774E:
Lfunc_begin39:
	.loc	16 2320 0
	.cfi_startproc
	.loc	16 2321 26 prologue_end
	testl	%edi, %edi
	.loc	16 2321 23 is_stmt 0
	js	LBB39_1
Ltmp2483:
	.loc	11 951 9 is_stmt 1
	cmpl	$11, %edi
	movl	$10, %eax
	.loc	11 0 0 is_stmt 0
	cmovll	%edi, %eax
Ltmp2484:
	.loc	16 2321 22 is_stmt 1
	movslq	%eax, %r8
	jmp	LBB39_3
Ltmp2485:
LBB39_1:
	.loc	16 0 22 is_stmt 0
	movl	$6, %r8d
Ltmp2486:
LBB39_3:
	pushq	%rbp
	.cfi_def_cfa_offset 16
	.cfi_offset %rbp, -16
	movq	%rsp, %rbp
	.cfi_def_cfa_register %rbp
Ltmp2487:
	.loc	16 2326 21 is_stmt 1
	xorl	%ecx, %ecx
	cmpl	$4, %edi
	setl	%cl
	.loc	16 2326 18 is_stmt 0
	shll	$14, %ecx
Ltmp2488:
	.loc	16 2331 26 is_stmt 1
	leaq	l___unnamed_9(%rip), %rax
	orl	(%rax,%r8,4), %ecx
Ltmp2489:
	.loc	16 2334 9
	movl	%ecx, %eax
	orl	$4096, %eax
	.loc	16 2333 8
	testl	%esi, %esi
	.loc	16 2333 5 is_stmt 0
	cmovlel	%ecx, %eax
Ltmp2490:
	.loc	16 2337 8 is_stmt 1
	testl	%edi, %edi
	.loc	16 2337 5 is_stmt 0
	je	LBB39_6
Ltmp2491:
	.loc	16 2339 12 is_stmt 1
	decl	%edx
Ltmp2492:
	cmpl	$3, %edx
	ja	LBB39_11
Ltmp2493:
	.loc	16 0 12 is_stmt 0
	leaq	LJTI39_0(%rip), %rcx
	movslq	(%rcx,%rdx,4), %rdx
	addq	%rcx, %rdx
	jmpq	*%rdx
Ltmp2494:
LBB39_7:
	.loc	16 2340 9 is_stmt 1
	orl	$131072, %eax
Ltmp2495:
	.loc	16 2350 2
	popq	%rbp
	retq
Ltmp2496:
LBB39_6:
	.loc	16 2338 9
	orl	$524288, %eax
Ltmp2497:
	.loc	16 2350 2
	popq	%rbp
	retq
Ltmp2498:
LBB39_8:
	.loc	16 2342 9
	andl	$-4096, %eax
Ltmp2499:
	.loc	16 2350 2
	popq	%rbp
	retq
Ltmp2500:
LBB39_10:
	.loc	16 2346 9
	orl	$65536, %eax
Ltmp2501:
LBB39_11:
	.loc	16 2350 2
	popq	%rbp
	retq
Ltmp2502:
LBB39_9:
	.loc	16 2344 9
	orl	$262144, %eax
Ltmp2503:
	.loc	16 2350 2
	popq	%rbp
	retq
Ltmp2504:
Lfunc_end39:
	.cfi_endproc
	.p2align	2, 0x90
	.data_region jt32
.set L39_0_set_7, LBB39_7-LJTI39_0
.set L39_0_set_8, LBB39_8-LJTI39_0
.set L39_0_set_10, LBB39_10-LJTI39_0
.set L39_0_set_9, LBB39_9-LJTI39_0
LJTI39_0:
	.long	L39_0_set_7
	.long	L39_0_set_8
	.long	L39_0_set_10
	.long	L39_0_set_9
	.end_data_region

	.globl	__ZN11miniz_oxide7deflate6stream7deflate17h9e2ece0bc7ff7b20E
	.p2align	4, 0x90
__ZN11miniz_oxide7deflate6stream7deflate17h9e2ece0bc7ff7b20E:
Lfunc_begin40:
	.file	35 "/Users/yingyuhang/.cargo/registry/src/github.com-1ecc6299db9ec823/miniz_oxide-0.4.0/src/deflate/stream.rs"
	.loc	35 20 0
	.cfi_startproc
	pushq	%rbp
	.cfi_def_cfa_offset 16
	.cfi_offset %rbp, -16
	movq	%rsp, %rbp
	.cfi_def_cfa_register %rbp
Ltmp2505:
	pushq	%r15
	pushq	%r14
	pushq	%r13
	pushq	%r12
	pushq	%rbx
	subq	$120, %rsp
	.cfi_offset %rbx, -56
	.cfi_offset %r12, -48
	.cfi_offset %r13, -40
	.cfi_offset %r14, -32
	.cfi_offset %r15, -24
Ltmp2506:
	.loc	20 88 9 prologue_end
	testq	%r9, %r9
Ltmp2507:
	.loc	35 26 5
	je	LBB40_4
Ltmp2508:
	.loc	35 0 5 is_stmt 0
	movq	%rcx, %r14
Ltmp2509:
	movl	16(%rbp), %ecx
Ltmp2510:
	.loc	16 250 30 is_stmt 1
	cmpl	$1, 65612(%rsi)
Ltmp2511:
	.loc	35 30 5
	jne	LBB40_5
Ltmp2512:
	.loc	4 44 30
	cmpl	$4, %ecx
Ltmp2513:
	.loc	35 31 16
	jne	LBB40_4
Ltmp2514:
	.loc	35 0 16 is_stmt 0
	movabsq	$4294967296, %rax
	.loc	35 32 13 is_stmt 1
	movq	%rax, 16(%rdi)
	movq	$0, 8(%rdi)
	movq	$0, (%rdi)
	jmp	LBB40_48
Ltmp2515:
LBB40_4:
	.loc	35 0 0 is_stmt 0
	movq	$0, 8(%rdi)
	movq	$0, (%rdi)
	movabsq	$-21474836479, %rax
	movq	%rax, 16(%rdi)
	jmp	LBB40_48
Ltmp2516:
LBB40_5:
	movq	%r9, %r15
Ltmp2517:
	.loc	16 227 13 is_stmt 1
	cmpl	$4, %ecx
	movq	%rsi, -56(%rbp)
	movq	%rdi, -152(%rbp)
	je	LBB40_18
Ltmp2518:
	cmpl	$2, %ecx
	jne	LBB40_29
Ltmp2519:
	.loc	16 0 13 is_stmt 0
	xorl	%r10d, %r10d
	xorl	%r12d, %r12d
Ltmp2520:
	.p2align	4, 0x90
LBB40_8:
	movq	%r10, %r13
Ltmp2521:
	movq	%rdx, %rbx
Ltmp2522:
	.loc	16 612 9 is_stmt 1
	movq	%rdx, -144(%rbp)
Ltmp2523:
	movq	%r14, -136(%rbp)
	leaq	-128(%rbp), %rax
	movq	$0, 8(%rax)
	movq	$0, (%rax)
	movq	$1, -112(%rbp)
	movq	%r8, -48(%rbp)
Ltmp2524:
	movq	%r8, -104(%rbp)
Ltmp2525:
	movq	%r15, -96(%rbp)
Ltmp2526:
	.loc	16 2186 5
	leaq	-80(%rbp), %rdi
	leaq	-144(%rbp), %rdx
Ltmp2527:
	movl	$2, %ecx
	callq	__ZN11miniz_oxide7deflate4core14compress_inner17h47e8efd53adeeb22E
Ltmp2528:
	.loc	35 53 24
	movq	-80(%rbp), %rdi
Ltmp2529:
	.loc	20 2916 12
	movq	%r14, %r11
	subq	%rdi, %r11
Ltmp2530:
	.loc	20 2916 9 is_stmt 0
	jb	LBB40_49
Ltmp2531:
	.loc	35 0 0
	movq	-64(%rbp), %rcx
Ltmp2532:
	.loc	20 2926 12 is_stmt 1
	movq	%r15, %rax
	subq	%rcx, %rax
	.loc	20 2926 9 is_stmt 0
	jb	LBB40_50
Ltmp2533:
	.loc	20 0 9
	movq	%r13, %r10
Ltmp2534:
	.loc	35 60 9 is_stmt 1
	addq	%rdi, %r10
Ltmp2535:
	.loc	35 0 9 is_stmt 0
	movq	-56(%rbp), %rsi
	.loc	35 60 9
	jb	LBB40_51
Ltmp2536:
	.loc	35 61 9 is_stmt 1
	addq	%rcx, %r12
Ltmp2537:
	jb	LBB40_52
Ltmp2538:
	.loc	35 0 9 is_stmt 0
	movq	%rbx, %rdx
	movl	-72(%rbp), %ebx
Ltmp2539:
	movl	$1, %r8d
	.loc	35 65 13 is_stmt 1
	cmpl	$-2, %ebx
	je	LBB40_46
Ltmp2540:
	cmpl	$-1, %ebx
	je	LBB40_42
Ltmp2541:
	cmpl	$1, %ebx
	je	LBB40_43
Ltmp2542:
	.loc	20 88 9
	testq	%rax, %rax
Ltmp2543:
	.loc	35 73 9
	je	LBB40_41
Ltmp2544:
	.loc	35 0 9 is_stmt 0
	addq	%rdi, %rdx
Ltmp2545:
	movq	-48(%rbp), %r8
	addq	%rcx, %r8
Ltmp2546:
	movq	%rax, %r15
Ltmp2547:
	movq	%r11, %r14
Ltmp2548:
	movl	16(%rbp), %ecx
Ltmp2549:
	cmpl	$4, %ecx
Ltmp2550:
	.loc	35 77 12 is_stmt 1
	je	LBB40_8
Ltmp2551:
	.loc	35 0 0 is_stmt 0
	movq	%rax, %r15
Ltmp2552:
	movq	%r11, %r14
Ltmp2553:
	.loc	35 77 12
	testq	%r11, %r11
	jne	LBB40_8
	jmp	LBB40_40
Ltmp2554:
LBB40_18:
	.loc	35 0 12
	xorl	%r10d, %r10d
	xorl	%r12d, %r12d
Ltmp2555:
	.p2align	4, 0x90
LBB40_19:
	movq	%r12, %r13
Ltmp2556:
	movq	%r10, %rbx
Ltmp2557:
	movq	%rdx, %r12
Ltmp2558:
	.loc	16 612 9 is_stmt 1
	movq	%rdx, -144(%rbp)
	movq	%r14, -136(%rbp)
	leaq	-128(%rbp), %rax
	movq	$0, 8(%rax)
	movq	$0, (%rax)
	movq	$1, -112(%rbp)
	movq	%r8, -48(%rbp)
Ltmp2559:
	movq	%r8, -104(%rbp)
Ltmp2560:
	movq	%r15, -96(%rbp)
Ltmp2561:
	.loc	16 2186 5
	leaq	-80(%rbp), %rdi
	leaq	-144(%rbp), %rdx
Ltmp2562:
	movl	$4, %ecx
	callq	__ZN11miniz_oxide7deflate4core14compress_inner17h47e8efd53adeeb22E
Ltmp2563:
	.loc	35 53 24
	movq	-80(%rbp), %rdi
Ltmp2564:
	.loc	20 2916 12
	movq	%r14, %r11
	subq	%rdi, %r11
Ltmp2565:
	.loc	20 2916 9 is_stmt 0
	jb	LBB40_49
Ltmp2566:
	.loc	35 0 0
	movq	-64(%rbp), %rcx
Ltmp2567:
	.loc	20 2926 12 is_stmt 1
	movq	%r15, %rax
	subq	%rcx, %rax
	.loc	20 2926 9 is_stmt 0
	jb	LBB40_50
Ltmp2568:
	.loc	35 60 9 is_stmt 1
	addq	%rdi, %rbx
Ltmp2569:
	.loc	35 0 9 is_stmt 0
	movq	-56(%rbp), %rsi
	.loc	35 60 9
	jb	LBB40_51
Ltmp2570:
	.loc	35 0 9
	movq	%r12, %rdx
	movq	%r13, %r12
Ltmp2571:
	.loc	35 61 9 is_stmt 1
	addq	%rcx, %r12
Ltmp2572:
	jb	LBB40_52
Ltmp2573:
	.loc	35 0 9 is_stmt 0
	movq	%rbx, %r10
Ltmp2574:
	movl	-72(%rbp), %ebx
Ltmp2575:
	movl	$1, %r8d
	.loc	35 65 13 is_stmt 1
	cmpl	$-2, %ebx
	je	LBB40_46
Ltmp2576:
	cmpl	$-1, %ebx
	je	LBB40_42
Ltmp2577:
	cmpl	$1, %ebx
	je	LBB40_43
Ltmp2578:
	.loc	20 88 9
	testq	%rax, %rax
Ltmp2579:
	.loc	35 73 9
	je	LBB40_41
Ltmp2580:
	.loc	35 0 9 is_stmt 0
	addq	%rdi, %rdx
Ltmp2581:
	movq	-48(%rbp), %r8
	addq	%rcx, %r8
Ltmp2582:
	movq	%rax, %r15
Ltmp2583:
	movq	%r11, %r14
Ltmp2584:
	movl	16(%rbp), %ecx
Ltmp2585:
	cmpl	$4, %ecx
Ltmp2586:
	.loc	35 77 12 is_stmt 1
	je	LBB40_19
Ltmp2587:
	.loc	35 0 0 is_stmt 0
	movq	%rax, %r15
Ltmp2588:
	movq	%r11, %r14
Ltmp2589:
	.loc	35 77 12
	testq	%r11, %r11
	jne	LBB40_19
	jmp	LBB40_40
Ltmp2590:
LBB40_29:
	.loc	16 0 0
	xorl	%eax, %eax
	cmpl	$3, %ecx
	sete	%al
	leal	(%rax,%rax,2), %eax
Ltmp2591:
	xorl	%r10d, %r10d
	movzbl	%al, %eax
Ltmp2592:
	movl	%eax, -84(%rbp)
Ltmp2593:
	xorl	%r12d, %r12d
Ltmp2594:
	.p2align	4, 0x90
LBB40_30:
	movq	%r10, %r13
Ltmp2595:
	movq	%rdx, %rbx
Ltmp2596:
	.loc	16 612 9 is_stmt 1
	movq	%rdx, -144(%rbp)
Ltmp2597:
	movq	%r14, -136(%rbp)
	leaq	-128(%rbp), %rax
	movq	$0, 8(%rax)
	movq	$0, (%rax)
	movq	$1, -112(%rbp)
	movq	%r8, -48(%rbp)
Ltmp2598:
	movq	%r8, -104(%rbp)
	movq	%r15, -96(%rbp)
Ltmp2599:
	.loc	16 2186 5
	leaq	-80(%rbp), %rdi
	leaq	-144(%rbp), %rdx
Ltmp2600:
	.loc	16 0 5 is_stmt 0
	movl	-84(%rbp), %ecx
	.loc	16 2186 5
	callq	__ZN11miniz_oxide7deflate4core14compress_inner17h47e8efd53adeeb22E
Ltmp2601:
	.loc	35 53 24 is_stmt 1
	movq	-80(%rbp), %rdi
Ltmp2602:
	.loc	20 2916 12
	movq	%r14, %r11
	subq	%rdi, %r11
Ltmp2603:
	.loc	20 2916 9 is_stmt 0
	jb	LBB40_49
Ltmp2604:
	.loc	35 0 0
	movq	-64(%rbp), %rcx
Ltmp2605:
	.loc	20 2926 12 is_stmt 1
	movq	%r15, %rax
	subq	%rcx, %rax
	.loc	20 2926 9 is_stmt 0
	jb	LBB40_50
Ltmp2606:
	.loc	20 0 9
	movq	%r13, %r10
Ltmp2607:
	.loc	35 60 9 is_stmt 1
	addq	%rdi, %r10
Ltmp2608:
	.loc	35 0 9 is_stmt 0
	movq	-56(%rbp), %rsi
	.loc	35 60 9
	jb	LBB40_51
Ltmp2609:
	.loc	35 61 9 is_stmt 1
	addq	%rcx, %r12
Ltmp2610:
	jb	LBB40_52
Ltmp2611:
	.loc	35 0 9 is_stmt 0
	movq	%rbx, %rdx
	movl	-72(%rbp), %ebx
Ltmp2612:
	movl	$1, %r8d
	.loc	35 65 13 is_stmt 1
	cmpl	$-2, %ebx
	je	LBB40_46
Ltmp2613:
	cmpl	$-1, %ebx
	je	LBB40_42
Ltmp2614:
	cmpl	$1, %ebx
	je	LBB40_43
Ltmp2615:
	.loc	20 88 9
	testq	%rax, %rax
Ltmp2616:
	.loc	35 73 9
	je	LBB40_41
Ltmp2617:
	.loc	35 0 9 is_stmt 0
	addq	%rdi, %rdx
Ltmp2618:
	movq	-48(%rbp), %r13
	addq	%rcx, %r13
Ltmp2619:
	movq	%r13, %r8
Ltmp2620:
	movq	%rax, %r15
Ltmp2621:
	movq	%r11, %r14
Ltmp2622:
	movl	16(%rbp), %ecx
Ltmp2623:
	cmpl	$4, %ecx
Ltmp2624:
	.loc	35 77 12 is_stmt 1
	je	LBB40_30
Ltmp2625:
	.loc	35 0 0 is_stmt 0
	movq	%rax, %r15
Ltmp2626:
	movq	%r11, %r14
Ltmp2627:
	.loc	35 77 12
	testq	%r11, %r11
	jne	LBB40_30
Ltmp2628:
LBB40_40:
	.loc	35 78 33 is_stmt 1
	movq	%r12, %rax
	orq	%r10, %rax
	setne	%al
Ltmp2629:
	.loc	4 44 30
	testl	%ecx, %ecx
	setne	%cl
Ltmp2630:
	.loc	35 80 22
	orb	%al, %cl
	.loc	35 80 19 is_stmt 0
	movzbl	%cl, %ecx
	leal	-5(%rcx,%rcx,4), %eax
Ltmp2631:
	xorb	$1, %cl
	movzbl	%cl, %r8d
Ltmp2632:
	.loc	35 0 19
	jmp	LBB40_47
Ltmp2633:
LBB40_41:
	xorl	%eax, %eax
Ltmp2634:
	xorl	%r8d, %r8d
	jmp	LBB40_47
Ltmp2635:
LBB40_42:
	movl	$-2, %eax
Ltmp2636:
	jmp	LBB40_47
Ltmp2637:
LBB40_46:
	movl	$-10000, %eax
Ltmp2638:
	jmp	LBB40_47
Ltmp2639:
LBB40_43:
	xorl	%r8d, %r8d
	movl	$1, %eax
Ltmp2640:
LBB40_47:
	movq	-152(%rbp), %rdi
Ltmp2641:
	.loc	35 90 5 is_stmt 1
	movq	%r10, (%rdi)
	movq	%r12, 8(%rdi)
	movl	%r8d, 16(%rdi)
	movl	%eax, 20(%rdi)
Ltmp2642:
LBB40_48:
	.loc	35 95 2
	movq	%rdi, %rax
	addq	$120, %rsp
	popq	%rbx
	popq	%r12
	popq	%r13
	popq	%r14
	popq	%r15
	popq	%rbp
	retq
LBB40_49:
Ltmp2643:
	.loc	20 2917 13
	leaq	l___unnamed_244(%rip), %rdx
	movq	%r14, %rsi
	callq	__ZN4core5slice22slice_index_order_fail17h85b430a3a039f0a8E
Ltmp2644:
LBB40_50:
	.loc	20 2927 13
	leaq	l___unnamed_245(%rip), %rdx
	movq	%rcx, %rdi
Ltmp2645:
	movq	%r15, %rsi
	callq	__ZN4core5slice22slice_index_order_fail17h85b430a3a039f0a8E
Ltmp2646:
LBB40_51:
	.loc	35 60 9
	leaq	_str.0(%rip), %rdi
Ltmp2647:
	leaq	l___unnamed_246(%rip), %rdx
	movl	$28, %esi
	callq	__ZN4core9panicking5panic17h736ee47a631475c0E
Ltmp2648:
LBB40_52:
	.loc	35 61 9
	leaq	_str.0(%rip), %rdi
Ltmp2649:
	leaq	l___unnamed_247(%rip), %rdx
	movl	$28, %esi
	callq	__ZN4core9panicking5panic17h736ee47a631475c0E
Ltmp2650:
Lfunc_end40:
	.cfi_endproc

	.globl	__ZN11miniz_oxide7deflate15compress_to_vec17h2c1f6228f9232dc1E
	.p2align	4, 0x90
__ZN11miniz_oxide7deflate15compress_to_vec17h2c1f6228f9232dc1E:
Lfunc_begin41:
	.file	36 "/Users/yingyuhang/.cargo/registry/src/github.com-1ecc6299db9ec823/miniz_oxide-0.4.0/src/deflate/mod.rs"
	.loc	36 110 0
	.cfi_startproc
	pushq	%rbp
	.cfi_def_cfa_offset 16
	.cfi_offset %rbp, -16
	movq	%rsp, %rbp
	.cfi_def_cfa_register %rbp
	pushq	%rbx
	pushq	%rax
	.cfi_offset %rbx, -24
	movq	%rdi, %rbx
Ltmp2651:
	.loc	36 111 5 prologue_end
	xorl	%r8d, %r8d
	callq	__ZN11miniz_oxide7deflate21compress_to_vec_inner17h3ab015f730ff5310E
Ltmp2652:
	.loc	36 112 2
	movq	%rbx, %rax
	addq	$8, %rsp
	popq	%rbx
	popq	%rbp
	retq
Ltmp2653:
Lfunc_end41:
	.cfi_endproc

	.globl	__ZN11miniz_oxide7deflate20compress_to_vec_zlib17h60caee21209022cfE
	.p2align	4, 0x90
__ZN11miniz_oxide7deflate20compress_to_vec_zlib17h60caee21209022cfE:
Lfunc_begin42:
	.loc	36 116 0
	.cfi_startproc
	pushq	%rbp
	.cfi_def_cfa_offset 16
	.cfi_offset %rbp, -16
	movq	%rsp, %rbp
	.cfi_def_cfa_register %rbp
	pushq	%rbx
	pushq	%rax
	.cfi_offset %rbx, -24
	movq	%rdi, %rbx
Ltmp2654:
	.loc	36 117 5 prologue_end
	movl	$1, %r8d
	callq	__ZN11miniz_oxide7deflate21compress_to_vec_inner17h3ab015f730ff5310E
Ltmp2655:
	.loc	36 118 2
	movq	%rbx, %rax
	addq	$8, %rsp
	popq	%rbx
	popq	%rbp
	retq
Ltmp2656:
Lfunc_end42:
	.cfi_endproc

	.p2align	4, 0x90
__ZN11miniz_oxide7deflate21compress_to_vec_inner17h3ab015f730ff5310E:
Lfunc_begin43:
	.loc	36 121 0
	.cfi_startproc
	.cfi_personality 155, _rust_eh_personality
	.cfi_lsda 16, Lexception0
	pushq	%rbp
	.cfi_def_cfa_offset 16
	.cfi_offset %rbp, -16
	movq	%rsp, %rbp
	.cfi_def_cfa_register %rbp
Ltmp2675:
	pushq	%r15
	pushq	%r14
	pushq	%r13
	pushq	%r12
	pushq	%rbx
	movl	$65816, %eax
	callq	___rust_probestack
	subq	%rax, %rsp
	.cfi_offset %rbx, -56
	.cfi_offset %r12, -48
	.cfi_offset %r13, -40
	.cfi_offset %r14, -32
	.cfi_offset %r15, -24
	.loc	18 51 17 prologue_end
	movzbl	%cl, %eax
Ltmp2676:
	.loc	11 951 9
	cmpb	$10, %al
	movl	$10, %ecx
Ltmp2677:
	.loc	11 0 0 is_stmt 0
	cmovbl	%eax, %ecx
Ltmp2678:
	movq	%rdx, %rbx
Ltmp2679:
	movq	%rsi, -88(%rbp)
Ltmp2680:
	movq	%rdi, -80(%rbp)
Ltmp2681:
	xorl	%edx, %edx
	cmpb	$4, %al
	setb	%dl
Ltmp2682:
	.loc	16 2326 18 is_stmt 1
	shll	$14, %edx
Ltmp2683:
	.loc	16 2331 26
	leaq	l___unnamed_9(%rip), %rsi
	orl	(%rsi,%rcx,4), %edx
Ltmp2684:
	.loc	16 2334 9
	movl	%edx, %ecx
Ltmp2685:
	orl	$4096, %ecx
	.loc	16 2333 8
	testl	%r8d, %r8d
	.loc	16 2333 5 is_stmt 0
	cmovlel	%edx, %ecx
Ltmp2686:
	.loc	16 2338 9 is_stmt 1
	movl	%ecx, %esi
	orl	$524288, %esi
	.loc	16 2337 8
	testb	%al, %al
	.loc	16 2337 5 is_stmt 0
	cmovnel	%ecx, %esi
Ltmp2687:
	.loc	16 0 5
	leaq	-65856(%rbp), %rdi
Ltmp2688:
	.loc	36 124 26 is_stmt 1
	callq	__ZN11miniz_oxide7deflate4core15CompressorOxide3new17hc5edf7fee0543440E
Ltmp2689:
	.loc	36 0 26 is_stmt 0
	movq	%rbx, -48(%rbp)
Ltmp2690:
	.loc	36 125 47 is_stmt 1
	shrq	%rbx
Ltmp2691:
	.loc	11 1017 9
	cmpq	$2, %rbx
	movl	$2, %r13d
	.loc	11 0 0 is_stmt 0
	cmovaq	%rbx, %r13
Ltmp2692:
	.loc	7 161 5 is_stmt 1
	movl	$1, %esi
	movq	%r13, %rdi
	callq	___rust_alloc_zeroed
Ltmp2693:
	.loc	2 852 13
	testq	%rax, %rax
	je	LBB43_25
Ltmp2694:
	.loc	8 1805 20
	movq	%rax, -72(%rbp)
	movq	%r13, -64(%rbp)
	movq	%r13, -56(%rbp)
Ltmp2695:
	.loc	16 0 0 is_stmt 0
	leaq	-152(%rbp), %r9
	xorl	%r12d, %r12d
Ltmp2696:
	leaq	-112(%rbp), %rdi
	leaq	-65856(%rbp), %rsi
	leaq	-168(%rbp), %rdx
	xorl	%r15d, %r15d
Ltmp2697:
LBB43_2:
	movq	-88(%rbp), %rax
Ltmp2698:
	.loc	31 158 9 is_stmt 1
	leaq	(%rax,%r15), %r8
Ltmp2699:
	.loc	31 0 9 is_stmt 0
	movq	-48(%rbp), %rcx
Ltmp2700:
	.loc	20 2906 56 is_stmt 1
	subq	%r15, %rcx
Ltmp2701:
	.loc	20 0 56 is_stmt 0
	movq	-72(%rbp), %rbx
Ltmp2702:
	.loc	12 152 9 is_stmt 1
	addq	%r12, %rbx
Ltmp2703:
	.loc	20 2911 64
	movq	%r13, %rax
	subq	%r12, %rax
Ltmp2704:
	.loc	16 612 9
	movq	%r8, -168(%rbp)
	movq	%rcx, -160(%rbp)
	movq	$0, 8(%r9)
	movq	$0, (%r9)
	movq	$1, -136(%rbp)
	movq	%rbx, -128(%rbp)
	movq	%rax, -120(%rbp)
Ltmp2657:
	movq	%rsi, %r14
Ltmp2705:
	.loc	16 2186 5
	movl	$4, %ecx
Ltmp2706:
	callq	__ZN11miniz_oxide7deflate4core14compress_inner17h47e8efd53adeeb22E
Ltmp2707:
Ltmp2658:
	.loc	36 137 9
	addq	-96(%rbp), %r12
Ltmp2708:
	jb	LBB43_22
Ltmp2709:
	.loc	36 138 9
	addq	-112(%rbp), %r15
Ltmp2710:
	jb	LBB43_23
Ltmp2711:
	.loc	36 0 0 is_stmt 0
	movl	-104(%rbp), %eax
Ltmp2712:
	.loc	36 141 13 is_stmt 1
	testl	%eax, %eax
	jne	LBB43_6
Ltmp2713:
	.loc	9 3243 17
	movq	%r13, %rax
Ltmp2714:
	subq	%r12, %rax
	movl	$0, %ecx
	cmovaeq	%rax, %rcx
Ltmp2715:
	.loc	36 147 20
	cmpq	$29, %rcx
	.loc	36 147 17 is_stmt 0
	ja	LBB43_16
Ltmp2716:
	.loc	36 148 35 is_stmt 1
	addq	%r13, %r13
	jb	LBB43_24
Ltmp2717:
Ltmp2659:
	.loc	36 148 21 is_stmt 0
	leaq	-72(%rbp), %rdi
	movq	%r13, %rsi
	callq	__ZN5alloc3vec12Vec$LT$T$GT$6resize17h00e7d23a205a6fe0E
Ltmp2660:
Ltmp2718:
LBB43_16:
	.loc	20 2916 12 is_stmt 1
	cmpq	-48(%rbp), %r15
	.loc	20 2916 9 is_stmt 0
	ja	LBB43_8
Ltmp2719:
	.loc	8 1973 63 is_stmt 1
	movq	-56(%rbp), %r13
Ltmp2720:
	.loc	20 2926 12
	cmpq	%r12, %r13
	leaq	-152(%rbp), %rbx
	movq	%rbx, %r9
	leaq	-112(%rbp), %rdi
	movq	%r14, %rsi
	leaq	-168(%rbp), %rdx
	.loc	20 2926 9 is_stmt 0
	jae	LBB43_2
Ltmp2721:
Ltmp2662:
	.loc	20 2927 13 is_stmt 1
	leaq	l___unnamed_248(%rip), %rdx
	movq	%r12, %rdi
	movq	%r13, %rsi
	callq	__ZN4core5slice22slice_index_order_fail17h85b430a3a039f0a8E
Ltmp2663:
	jmp	LBB43_9
Ltmp2722:
LBB43_6:
	.loc	36 141 13
	cmpl	$1, %eax
	jne	LBB43_7
Ltmp2723:
	.loc	8 740 16
	cmpq	%r12, %r13
	.loc	8 740 13 is_stmt 0
	jb	LBB43_12
Ltmp2724:
	.loc	8 745 13 is_stmt 1
	movq	%r12, -56(%rbp)
Ltmp2725:
LBB43_12:
	.loc	36 156 5
	movq	-56(%rbp), %rax
	movq	-80(%rbp), %rdx
	movq	%rax, 16(%rdx)
	movq	-72(%rbp), %rax
	movq	-64(%rbp), %rcx
	movq	%rcx, 8(%rdx)
	movq	%rax, (%rdx)
Ltmp2726:
	.loc	5 178 1
	movq	-280(%rbp), %rdi
Ltmp2727:
	.loc	7 102 5
	movl	$85196, %esi
	movl	$1, %edx
	callq	___rust_dealloc
Ltmp2728:
	.loc	5 178 1
	movq	-224(%rbp), %rdi
Ltmp2729:
	.loc	7 102 5
	movl	$4320, %esi
	movl	$2, %edx
	callq	___rust_dealloc
Ltmp2730:
	.loc	5 178 1
	movq	-216(%rbp), %rdi
Ltmp2731:
	.loc	7 102 5
	movl	$164098, %esi
	movl	$2, %edx
	callq	___rust_dealloc
Ltmp2732:
	.loc	36 157 2
	addq	$65816, %rsp
	popq	%rbx
	popq	%r12
Ltmp2733:
	popq	%r13
	popq	%r14
	popq	%r15
Ltmp2734:
	popq	%rbp
	retq
Ltmp2735:
LBB43_22:
Ltmp2672:
	.loc	36 137 9
	leaq	_str.0(%rip), %rdi
	leaq	l___unnamed_249(%rip), %rdx
	movl	$28, %esi
	callq	__ZN4core9panicking5panic17h736ee47a631475c0E
Ltmp2673:
	jmp	LBB43_9
Ltmp2736:
LBB43_23:
Ltmp2670:
	.loc	36 138 9
	leaq	_str.0(%rip), %rdi
	leaq	l___unnamed_250(%rip), %rdx
	movl	$28, %esi
	callq	__ZN4core9panicking5panic17h736ee47a631475c0E
Ltmp2671:
	jmp	LBB43_9
Ltmp2737:
LBB43_24:
Ltmp2666:
	.loc	36 148 35
	leaq	_str.3(%rip), %rdi
	leaq	l___unnamed_251(%rip), %rdx
	movl	$33, %esi
	callq	__ZN4core9panicking5panic17h736ee47a631475c0E
Ltmp2667:
	jmp	LBB43_9
Ltmp2738:
LBB43_8:
Ltmp2664:
	.loc	20 2917 13
	leaq	l___unnamed_252(%rip), %rdx
	movq	%r15, %rdi
	movq	-48(%rbp), %rsi
	callq	__ZN4core5slice22slice_index_order_fail17h85b430a3a039f0a8E
Ltmp2665:
	jmp	LBB43_9
Ltmp2739:
LBB43_7:
Ltmp2668:
	.loc	36 152 18
	leaq	l___unnamed_253(%rip), %rdi
	leaq	l___unnamed_254(%rip), %rdx
	movl	$37, %esi
	callq	__ZN4core9panicking5panic17h736ee47a631475c0E
Ltmp2740:
Ltmp2669:
LBB43_9:
	.loc	36 0 18 is_stmt 0
	ud2
Ltmp2741:
LBB43_25:
	.loc	2 853 23 is_stmt 1
	movl	$1, %esi
	movq	%r13, %rdi
	callq	__ZN5alloc7raw_vec19RawVec$LT$T$C$A$GT$11allocate_in28_$u7b$$u7b$closure$u7d$$u7d$17hbe9d1e2d3cd4b387E
Ltmp2742:
LBB43_20:
Ltmp2674:
	.loc	2 0 23 is_stmt 0
	jmp	LBB43_21
Ltmp2743:
LBB43_19:
Ltmp2661:
LBB43_21:
	movq	%rax, %rbx
Ltmp2744:
	leaq	-72(%rbp), %rdi
	.loc	36 157 1 is_stmt 1
	callq	__ZN4core3ptr13drop_in_place17hdc0fe2d6cb9a8f79E
	leaq	-65856(%rbp), %rdi
Ltmp2745:
	.loc	36 157 1 is_stmt 0
	callq	__ZN4core3ptr13drop_in_place17hdc24caefd2c381f9E
	movq	%rbx, %rdi
	callq	__Unwind_Resume
	ud2
Ltmp2746:
Lfunc_end43:
	.cfi_endproc
	.section	__TEXT,__gcc_except_tab
	.p2align	2
GCC_except_table43:
Lexception0:
	.byte	255
	.byte	255
	.byte	1
	.uleb128 Lcst_end0-Lcst_begin0
Lcst_begin0:
	.uleb128 Lfunc_begin43-Lfunc_begin43
	.uleb128 Ltmp2657-Lfunc_begin43
	.byte	0
	.byte	0
	.uleb128 Ltmp2657-Lfunc_begin43
	.uleb128 Ltmp2660-Ltmp2657
	.uleb128 Ltmp2661-Lfunc_begin43
	.byte	0
	.uleb128 Ltmp2662-Lfunc_begin43
	.uleb128 Ltmp2669-Ltmp2662
	.uleb128 Ltmp2674-Lfunc_begin43
	.byte	0
	.uleb128 Ltmp2669-Lfunc_begin43
	.uleb128 Lfunc_end43-Ltmp2669
	.byte	0
	.byte	0
Lcst_end0:
	.p2align	2

	.section	__TEXT,__text,regular,pure_instructions
	.globl	__ZN11miniz_oxide7inflate4core12HuffmanTable3new17h6cb9ed7aa2fe3b53E
	.p2align	4, 0x90
__ZN11miniz_oxide7inflate4core12HuffmanTable3new17h6cb9ed7aa2fe3b53E:
Lfunc_begin44:
	.file	37 "/Users/yingyuhang/.cargo/registry/src/github.com-1ecc6299db9ec823/miniz_oxide-0.4.0/src/inflate/core.rs"
	.loc	37 29 0 is_stmt 1
	.cfi_startproc
	pushq	%rbp
	.cfi_def_cfa_offset 16
	.cfi_offset %rbp, -16
	movq	%rsp, %rbp
	.cfi_def_cfa_register %rbp
	pushq	%rbx
	pushq	%rax
	.cfi_offset %rbx, -24
	movq	%rdi, %rbx
Ltmp2747:
	.loc	37 32 22 prologue_end
	movl	$2048, %esi
	callq	___bzero
	.loc	37 30 9
	movq	%rbx, %rdi
	addq	$2048, %rdi
	movl	$1440, %esi
	callq	___bzero
	.loc	37 35 6
	movq	%rbx, %rax
	addq	$8, %rsp
	popq	%rbx
	popq	%rbp
	retq
Ltmp2748:
Lfunc_end44:
	.cfi_endproc

	.globl	__ZN11miniz_oxide7inflate4core17DecompressorOxide3new17h0a69689fbafa9707E
	.p2align	4, 0x90
__ZN11miniz_oxide7inflate4core17DecompressorOxide3new17h0a69689fbafa9707E:
Lfunc_begin45:
	.loc	37 165 0
	.cfi_startproc
	pushq	%rbp
	.cfi_def_cfa_offset 16
	.cfi_offset %rbp, -16
	movq	%rsp, %rbp
	.cfi_def_cfa_register %rbp
	pushq	%rbx
	pushq	%rax
	.cfi_offset %rbx, -24
	movq	%rdi, %rbx
Ltmp2749:
	.loc	37 191 9 prologue_end
	movl	$10986, %esi
	callq	___bzero
Ltmp2750:
	.loc	37 167 6
	movq	%rbx, %rax
	addq	$8, %rsp
	popq	%rbx
	popq	%rbp
	retq
Ltmp2751:
Lfunc_end45:
	.cfi_endproc

	.globl	__ZN11miniz_oxide7inflate4core5State10is_failure17h749720034c82145eE
	.p2align	4, 0x90
__ZN11miniz_oxide7inflate4core5State10is_failure17h749720034c82145eE:
Lfunc_begin46:
	.loc	37 260 0
	.cfi_startproc
	pushq	%rbp
	.cfi_def_cfa_offset 16
	.cfi_offset %rbp, -16
	movq	%rsp, %rbp
	.cfi_def_cfa_register %rbp
Ltmp2752:
	.loc	37 262 13 prologue_end
	addb	$-25, %dil
Ltmp2753:
	cmpb	$9, %dil
	setb	%al
	popq	%rbp
	retq
Ltmp2754:
Lfunc_end46:
	.cfi_endproc

	.p2align	4, 0x90
__ZN11miniz_oxide7inflate4core9init_tree17h860d84615d4c54dfE:
Lfunc_begin47:
	.loc	37 626 0
	.cfi_startproc
	pushq	%rbp
	.cfi_def_cfa_offset 16
	.cfi_offset %rbp, -16
	movq	%rsp, %rbp
	.cfi_def_cfa_register %rbp
	pushq	%r15
	pushq	%r14
	pushq	%r13
	pushq	%r12
	pushq	%rbx
	subq	$232, %rsp
	.cfi_offset %rbx, -56
	.cfi_offset %r12, -48
	.cfi_offset %r13, -40
	.cfi_offset %r14, -32
	.cfi_offset %r15, -24
	movq	%rsi, -64(%rbp)
Ltmp2755:
	movq	%rdi, %r14
Ltmp2756:
	.loc	37 628 35 prologue_end
	movl	28(%rdi), %edi
	cmpq	$2, %rdi
	.loc	37 628 26 is_stmt 0
	ja	LBB47_62
Ltmp2757:
	leaq	3260(%r14), %rax
	movq	%rax, -232(%rbp)
	leaq	60(%r14), %rax
	movq	%rax, -224(%rbp)
	leaq	76(%r14), %rax
	movq	%rax, -216(%rbp)
	movq	%r14, -256(%rbp)
Ltmp2758:
	.p2align	4, 0x90
LBB47_2:
	.loc	37 628 21
	imulq	$3488, %rdi, %rax
	movq	%rax, -56(%rbp)
	leaq	60(%r14,%rax), %rbx
Ltmp2759:
	.loc	37 629 26 is_stmt 1
	movl	48(%r14,%rdi,4), %r13d
Ltmp2760:
	.loc	37 0 26 is_stmt 0
	pxor	%xmm0, %xmm0
Ltmp2761:
	.loc	37 630 33 is_stmt 1
	movdqa	%xmm0, -80(%rbp)
	movdqa	%xmm0, -96(%rbp)
	movdqa	%xmm0, -112(%rbp)
	movdqa	%xmm0, -128(%rbp)
Ltmp2762:
	.loc	37 631 29
	movdqa	%xmm0, -160(%rbp)
	movdqa	%xmm0, -176(%rbp)
	movdqa	%xmm0, -192(%rbp)
	movdqa	%xmm0, -208(%rbp)
	movl	$0, -144(%rbp)
Ltmp2763:
	.loc	37 328 9
	movl	$3200, %esi
	movq	%rbx, %rdi
	callq	___bzero
Ltmp2764:
	.loc	37 629 26
	cmpq	$289, %r13
Ltmp2765:
	.loc	20 2918 16
	jae	LBB47_107
Ltmp2766:
	.loc	20 3179 9
	testl	%r13d, %r13d
	.loc	20 3303 21
	je	LBB47_4
Ltmp2767:
	.loc	20 0 21 is_stmt 0
	movq	-232(%rbp), %rax
	movq	-56(%rbp), %r9
Ltmp2768:
	.loc	37 636 13 is_stmt 1
	addq	%r9, %rax
	xorl	%ecx, %ecx
Ltmp2769:
	.p2align	4, 0x90
LBB47_6:
	.loc	37 635 14
	movzbl	(%rax,%rcx), %edi
	cmpq	$15, %rdi
Ltmp2770:
	.loc	37 636 13
	ja	LBB47_63
Ltmp2771:
	movl	-128(%rbp,%rdi,4), %edx
	incl	%edx
	je	LBB47_64
Ltmp2772:
	movl	%edx, -128(%rbp,%rdi,4)
Ltmp2773:
	.loc	20 3179 9
	incq	%rcx
	cmpq	%rcx, %r13
	.loc	20 3303 21
	jne	LBB47_6
Ltmp2774:
	.loc	37 642 29
	movl	-124(%rbp), %eax
	jmp	LBB47_10
Ltmp2775:
	.p2align	4, 0x90
LBB47_4:
	.loc	37 0 29 is_stmt 0
	xorl	%eax, %eax
	movq	-56(%rbp), %r9
Ltmp2776:
LBB47_10:
	.loc	37 644 13 is_stmt 1
	leal	(%rax,%rax), %ecx
Ltmp2777:
	.loc	37 645 13
	movl	%ecx, -200(%rbp)
Ltmp2778:
	.loc	37 642 29
	movl	-120(%rbp), %edx
	.loc	37 642 13 is_stmt 0
	addl	%edx, %eax
Ltmp2779:
	jb	LBB47_11
Ltmp2780:
	.loc	37 643 13 is_stmt 1
	addl	%edx, %ecx
Ltmp2781:
	jb	LBB47_65
Ltmp2782:
	.loc	37 644 13
	addl	%ecx, %ecx
Ltmp2783:
	.loc	37 645 13
	movl	%ecx, -196(%rbp)
Ltmp2784:
	.loc	37 642 29
	movl	-116(%rbp), %edx
	.loc	37 642 13 is_stmt 0
	addl	%edx, %eax
Ltmp2785:
	jb	LBB47_11
Ltmp2786:
	.loc	37 643 13 is_stmt 1
	addl	%edx, %ecx
Ltmp2787:
	jb	LBB47_65
Ltmp2788:
	.loc	37 644 13
	addl	%ecx, %ecx
Ltmp2789:
	.loc	37 645 13
	movl	%ecx, -192(%rbp)
Ltmp2790:
	.loc	37 642 29
	movl	-112(%rbp), %edx
	.loc	37 642 13 is_stmt 0
	addl	%edx, %eax
Ltmp2791:
	jb	LBB47_11
Ltmp2792:
	.loc	37 643 13 is_stmt 1
	addl	%edx, %ecx
Ltmp2793:
	jb	LBB47_65
Ltmp2794:
	.loc	37 644 13
	addl	%ecx, %ecx
Ltmp2795:
	.loc	37 645 13
	movl	%ecx, -188(%rbp)
Ltmp2796:
	.loc	37 642 29
	movl	-108(%rbp), %edx
	.loc	37 642 13 is_stmt 0
	addl	%edx, %eax
Ltmp2797:
	jb	LBB47_11
Ltmp2798:
	.loc	37 643 13 is_stmt 1
	addl	%edx, %ecx
Ltmp2799:
	jb	LBB47_65
Ltmp2800:
	.loc	37 644 13
	addl	%ecx, %ecx
Ltmp2801:
	.loc	37 645 13
	movl	%ecx, -184(%rbp)
Ltmp2802:
	.loc	37 642 29
	movl	-104(%rbp), %edx
	.loc	37 642 13 is_stmt 0
	addl	%edx, %eax
Ltmp2803:
	jb	LBB47_11
Ltmp2804:
	.loc	37 643 13 is_stmt 1
	addl	%edx, %ecx
Ltmp2805:
	jb	LBB47_65
Ltmp2806:
	.loc	37 644 13
	addl	%ecx, %ecx
Ltmp2807:
	.loc	37 645 13
	movl	%ecx, -180(%rbp)
Ltmp2808:
	.loc	37 642 29
	movl	-100(%rbp), %edx
	.loc	37 642 13 is_stmt 0
	addl	%edx, %eax
Ltmp2809:
	jb	LBB47_11
Ltmp2810:
	.loc	37 643 13 is_stmt 1
	addl	%edx, %ecx
Ltmp2811:
	jb	LBB47_65
Ltmp2812:
	.loc	37 644 13
	addl	%ecx, %ecx
Ltmp2813:
	.loc	37 645 13
	movl	%ecx, -176(%rbp)
Ltmp2814:
	.loc	37 642 29
	movl	-96(%rbp), %edx
	.loc	37 642 13 is_stmt 0
	addl	%edx, %eax
Ltmp2815:
	jb	LBB47_11
Ltmp2816:
	.loc	37 643 13 is_stmt 1
	addl	%edx, %ecx
Ltmp2817:
	jb	LBB47_65
Ltmp2818:
	.loc	37 644 13
	addl	%ecx, %ecx
Ltmp2819:
	.loc	37 645 13
	movl	%ecx, -172(%rbp)
Ltmp2820:
	.loc	37 642 29
	movl	-92(%rbp), %edx
	.loc	37 642 13 is_stmt 0
	addl	%edx, %eax
Ltmp2821:
	jb	LBB47_11
Ltmp2822:
	.loc	37 643 13 is_stmt 1
	addl	%edx, %ecx
Ltmp2823:
	jb	LBB47_65
Ltmp2824:
	.loc	37 644 13
	addl	%ecx, %ecx
Ltmp2825:
	.loc	37 645 13
	movl	%ecx, -168(%rbp)
Ltmp2826:
	.loc	37 642 29
	movl	-88(%rbp), %edx
	.loc	37 642 13 is_stmt 0
	addl	%edx, %eax
Ltmp2827:
	jb	LBB47_11
Ltmp2828:
	.loc	37 643 13 is_stmt 1
	addl	%edx, %ecx
Ltmp2829:
	jb	LBB47_65
Ltmp2830:
	.loc	37 644 13
	addl	%ecx, %ecx
Ltmp2831:
	.loc	37 645 13
	movl	%ecx, -164(%rbp)
Ltmp2832:
	.loc	37 642 29
	movl	-84(%rbp), %edx
	.loc	37 642 13 is_stmt 0
	addl	%edx, %eax
Ltmp2833:
	jb	LBB47_11
Ltmp2834:
	.loc	37 643 13 is_stmt 1
	addl	%edx, %ecx
Ltmp2835:
	jb	LBB47_65
Ltmp2836:
	.loc	37 644 13
	addl	%ecx, %ecx
Ltmp2837:
	.loc	37 645 13
	movl	%ecx, -160(%rbp)
Ltmp2838:
	.loc	37 642 29
	movl	-80(%rbp), %edx
	.loc	37 642 13 is_stmt 0
	addl	%edx, %eax
Ltmp2839:
	jb	LBB47_11
Ltmp2840:
	.loc	37 643 13 is_stmt 1
	addl	%edx, %ecx
Ltmp2841:
	jb	LBB47_65
Ltmp2842:
	.loc	37 644 13
	addl	%ecx, %ecx
Ltmp2843:
	.loc	37 645 13
	movl	%ecx, -156(%rbp)
Ltmp2844:
	.loc	37 642 29
	movl	-76(%rbp), %edx
	.loc	37 642 13 is_stmt 0
	addl	%edx, %eax
Ltmp2845:
	jb	LBB47_11
Ltmp2846:
	.loc	37 643 13 is_stmt 1
	addl	%edx, %ecx
Ltmp2847:
	jb	LBB47_65
Ltmp2848:
	.loc	37 644 13
	addl	%ecx, %ecx
Ltmp2849:
	.loc	37 645 13
	movl	%ecx, -152(%rbp)
Ltmp2850:
	.loc	37 642 29
	movl	-72(%rbp), %edx
	.loc	37 642 13 is_stmt 0
	addl	%edx, %eax
Ltmp2851:
	jb	LBB47_11
Ltmp2852:
	.loc	37 643 13 is_stmt 1
	addl	%edx, %ecx
Ltmp2853:
	jb	LBB47_65
Ltmp2854:
	.loc	37 644 13
	addl	%ecx, %ecx
Ltmp2855:
	.loc	37 645 13
	movl	%ecx, -148(%rbp)
Ltmp2856:
	.loc	37 642 29
	movl	-68(%rbp), %edx
	.loc	37 642 13 is_stmt 0
	addl	%edx, %eax
Ltmp2857:
	jb	LBB47_11
Ltmp2858:
	.loc	37 643 13 is_stmt 1
	addl	%edx, %ecx
Ltmp2859:
	jb	LBB47_65
Ltmp2860:
	.loc	37 644 13
	addl	%ecx, %ecx
Ltmp2861:
	.loc	37 645 13
	movl	%ecx, -144(%rbp)
Ltmp2862:
	.loc	37 648 12
	cmpl	$65536, %ecx
	.loc	37 648 9 is_stmt 0
	je	LBB47_12
Ltmp2863:
	cmpl	$1, %eax
	ja	LBB47_106
Ltmp2864:
LBB47_12:
	.loc	37 0 9
	movq	%rbx, -240(%rbp)
Ltmp2865:
	.loc	20 3179 9 is_stmt 1
	testl	%r13d, %r13d
Ltmp2866:
	.loc	13 211 9
	je	LBB47_28
Ltmp2867:
	.loc	13 0 9 is_stmt 0
	movq	-224(%rbp), %rax
Ltmp2868:
	.loc	13 211 9
	leaq	(%rax,%r9), %r15
	movq	-216(%rbp), %rax
	addq	%r9, %rax
	movq	%rax, -248(%rbp)
	movw	$-1, -42(%rbp)
	xorl	%r10d, %r10d
	movq	%r13, -264(%rbp)
	movq	%r10, %rdi
Ltmp2869:
	.loc	37 655 29 is_stmt 1
	cmpq	$287, %r10
	jbe	LBB47_15
	jmp	LBB47_66
Ltmp2870:
LBB47_50:
	.loc	37 699 13
	movw	%di, 2108(%r11,%rcx,2)
Ltmp2871:
	.p2align	4, 0x90
LBB47_41:
	.loc	11 1137 52
	cmpq	%r13, %r10
	jae	LBB47_28
Ltmp2872:
	.loc	11 0 52 is_stmt 0
	movq	%r10, %rdi
Ltmp2873:
	.loc	37 655 29 is_stmt 1
	cmpq	$287, %r10
	ja	LBB47_66
Ltmp2874:
LBB47_15:
	.loc	37 0 0 is_stmt 0
	leaq	1(%rdi), %r10
Ltmp2875:
	.loc	37 655 29
	leaq	(%r14,%r9), %r11
	movzbl	3260(%rdi,%r11), %edx
	testw	%dx, %dx
Ltmp2876:
	.loc	37 656 13 is_stmt 1
	je	LBB47_41
Ltmp2877:
	.loc	37 0 13 is_stmt 0
	movzwl	%dx, %ecx
Ltmp2878:
	.loc	37 660 32 is_stmt 1
	cmpb	$16, %cl
	ja	LBB47_67
Ltmp2879:
	movl	-208(%rbp,%rcx,4), %eax
Ltmp2880:
	.loc	37 661 13
	movl	%eax, %esi
	incl	%esi
	je	LBB47_68
Ltmp2881:
	movl	%esi, -208(%rbp,%rcx,4)
Ltmp2882:
	.loc	13 211 9
	leal	-1(%rdx), %esi
	movl	%ecx, %r12d
	andb	$3, %r12b
	xorl	%ebx, %ebx
	cmpb	$3, %sil
	jae	LBB47_31
Ltmp2883:
	testb	%r12b, %r12b
	jne	LBB47_21
	jmp	LBB47_22
Ltmp2884:
	.p2align	4, 0x90
LBB47_31:
	movl	%r12d, %r8d
	subb	%dl, %r8b
	xorl	%ebx, %ebx
Ltmp2885:
	.p2align	4, 0x90
LBB47_32:
	.loc	37 664 46
	movl	%eax, %edx
	andl	$1, %edx
	.loc	37 664 17 is_stmt 0
	leal	(%rdx,%rbx,2), %edx
Ltmp2886:
	.loc	37 664 46
	movl	%eax, %esi
	andl	$2, %esi
	.loc	37 664 17
	leal	(%rsi,%rdx,4), %edx
Ltmp2887:
	.loc	37 665 17 is_stmt 1
	movl	%eax, %esi
	shrl	$2, %esi
Ltmp2888:
	.loc	37 664 46
	andl	$1, %esi
Ltmp2889:
	.loc	37 664 17 is_stmt 0
	orl	%edx, %esi
Ltmp2890:
	.loc	37 665 17 is_stmt 1
	movl	%eax, %edx
	shrl	$3, %edx
Ltmp2891:
	.loc	37 664 46
	andl	$1, %edx
Ltmp2892:
	.loc	37 664 17 is_stmt 0
	leal	(%rdx,%rsi,2), %ebx
Ltmp2893:
	.loc	37 665 17 is_stmt 1
	shrl	$4, %eax
Ltmp2894:
	.loc	13 211 9
	addb	$4, %r8b
	jne	LBB47_32
Ltmp2895:
	testb	%r12b, %r12b
	je	LBB47_22
Ltmp2896:
	.p2align	4, 0x90
LBB47_21:
	.loc	13 0 9 is_stmt 0
	movl	%ebx, %esi
Ltmp2897:
	.loc	37 664 46 is_stmt 1
	movl	%eax, %edx
	andl	$1, %edx
	.loc	37 664 17 is_stmt 0
	leal	(%rdx,%rsi,2), %ebx
Ltmp2898:
	.loc	37 665 17 is_stmt 1
	shrl	%eax
Ltmp2899:
	.loc	13 211 9
	decb	%r12b
	jne	LBB47_21
Ltmp2900:
LBB47_22:
	.loc	37 668 16
	cmpb	$11, %cl
	.loc	37 668 13 is_stmt 0
	jae	LBB47_42
Ltmp2901:
	.loc	37 670 23 is_stmt 1
	cmpl	$1023, %ebx
	.loc	37 670 17 is_stmt 0
	ja	LBB47_41
Ltmp2902:
	.loc	37 0 0
	movl	$1, %r12d
	shll	%cl, %r12d
Ltmp2903:
	movl	%ecx, %eax
Ltmp2904:
	andb	$31, %cl
	.loc	37 670 17
	movl	%ebx, %ebx
	movl	$1023, %r11d
	subq	%rbx, %r11
	shrq	%cl, %r11
Ltmp2905:
	.loc	37 0 0
	shll	$9, %eax
	orl	%eax, %edi
Ltmp2906:
	.loc	37 670 17
	incq	%r11
	cmpq	$16, %r11
	jb	LBB47_40
Ltmp2907:
	testb	%cl, %cl
	jne	LBB47_40
Ltmp2908:
	.loc	37 0 17
	movq	%r10, -272(%rbp)
	.loc	37 670 17
	movq	%r11, %r8
	andq	$-16, %r8
	movd	%edi, %xmm0
	pshuflw	$224, %xmm0, %xmm0
	pshufd	$0, %xmm0, %xmm0
	leaq	-16(%r8), %rax
	movq	%rax, %rdx
	shrq	$4, %rdx
	incq	%rdx
	movl	%edx, %r14d
Ltmp2909:
	andl	$3, %r14d
	cmpq	$48, %rax
	jae	LBB47_33
Ltmp2910:
	.loc	37 0 17
	xorl	%r9d, %r9d
	testq	%r14, %r14
