	.section	__TEXT,__text,regular,pure_instructions
	.macosx_version_min 10, 7
	.p2align	4, 0x90
__ZN4core3ptr13drop_in_place17h081e1314f7832e5bE:
Lfunc_begin0:
	.file	1 "/rustc/a74d1862d4d87a56244958416fd05976c58ca1a8/src/libcore/ptr/mod.rs"
	.loc	1 178 0
	.cfi_startproc
	pushq	%rbp
	.cfi_def_cfa_offset 16
	.cfi_offset %rbp, -16
	movq	%rsp, %rbp
	.cfi_def_cfa_register %rbp
Ltmp0:
	.loc	1 178 1 prologue_end
	popq	%rbp
	retq
Ltmp1:
Lfunc_end0:
	.cfi_endproc

	.globl	__ZN8num_cpus21get_num_physical_cpus17h53dd17fa98b3dd8eE
	.p2align	4, 0x90
__ZN8num_cpus21get_num_physical_cpus17h53dd17fa98b3dd8eE:
Lfunc_begin1:
	.file	2 "/Users/yingyuhang/.cargo/registry/src/github.com-1ecc6299db9ec823/num_cpus-1.13.0/src/lib.rs"
	.loc	2 305 0
	.cfi_startproc
	pushq	%rbp
	.cfi_def_cfa_offset 16
	.cfi_offset %rbp, -16
	movq	%rsp, %rbp
	.cfi_def_cfa_register %rbp
	subq	$64, %rsp
Ltmp2:
	.loc	2 309 25 prologue_end
	movl	$0, -4(%rbp)
Ltmp3:
	.loc	2 310 25
	movq	$4, -16(%rbp)
Ltmp4:
	.loc	2 312 23
	leaq	l___unnamed_2(%rip), %rsi
	leaq	-40(%rbp), %rdi
	movl	$15, %edx
	callq	__ZN3std3ffi5c_str4CStr19from_bytes_with_nul17ha74c91d32424d5feE
Ltmp5:
	.file	3 "/rustc/a74d1862d4d87a56244958416fd05976c58ca1a8/src/libcore/result.rs"
	.loc	3 962 13
	cmpq	$1, -40(%rbp)
Ltmp6:
	je	LBB1_5
Ltmp7:
	.loc	3 962 16 is_stmt 0
	movq	-32(%rbp), %rdi
Ltmp8:
	.loc	3 0 16
	leaq	-4(%rbp), %rsi
	leaq	-16(%rbp), %rdx
Ltmp9:
	.loc	2 316 17 is_stmt 1
	xorl	%ecx, %ecx
	xorl	%r8d, %r8d
	callq	_sysctlbyname
Ltmp10:
	.loc	2 316 12 is_stmt 0
	testl	%eax, %eax
	.loc	2 316 9
	je	LBB1_2
Ltmp11:
	.loc	2 344 25 is_stmt 1
	movl	$58, %edi
	callq	_sysconf
	movq	%rax, %rcx
Ltmp12:
	.loc	2 345 5
	testq	%rax, %rax
	movl	$1, %eax
	cmovgq	%rcx, %rax
Ltmp13:
	.loc	2 325 2
	addq	$64, %rsp
	popq	%rbp
	retq
Ltmp14:
LBB1_2:
	.loc	2 324 5
	movslq	-4(%rbp), %rax
Ltmp15:
	.loc	2 325 2
	addq	$64, %rsp
	popq	%rbp
	retq
Ltmp16:
LBB1_5:
	.loc	3 963 17
	movups	-32(%rbp), %xmm0
	movaps	%xmm0, -64(%rbp)
Ltmp17:
	.loc	3 963 23 is_stmt 0
	leaq	l___unnamed_3(%rip), %rdi
	leaq	l___unnamed_1(%rip), %rcx
	leaq	l___unnamed_4(%rip), %r8
	leaq	-64(%rbp), %rdx
	movl	$27, %esi
	callq	__ZN4core6result13unwrap_failed17hb5a510096a5fc85fE
Ltmp18:
Lfunc_end1:
	.cfi_endproc

	.globl	__ZN8num_cpus12get_num_cpus17h99fdb710541515e2E
	.p2align	4, 0x90
__ZN8num_cpus12get_num_cpus17h99fdb710541515e2E:
Lfunc_begin2:
	.loc	2 336 0 is_stmt 1
	.cfi_startproc
	pushq	%rbp
	.cfi_def_cfa_offset 16
	.cfi_offset %rbp, -16
	movq	%rsp, %rbp
	.cfi_def_cfa_register %rbp
Ltmp19:
	.loc	2 344 25 prologue_end
	movl	$58, %edi
	callq	_sysconf
Ltmp20:
	.loc	2 345 5
	testq	%rax, %rax
	movl	$1, %ecx
	cmovleq	%rcx, %rax
Ltmp21:
	.loc	2 350 2
	popq	%rbp
	retq
Ltmp22:
Lfunc_end2:
	.cfi_endproc

	.section	__DATA,__const
	.p2align	3
l___unnamed_1:
	.quad	__ZN4core3ptr13drop_in_place17h081e1314f7832e5bE
	.quad	16
	.quad	8
	.quad	__ZN75_$LT$std..ffi..c_str..FromBytesWithNulError$u20$as$u20$core..fmt..Debug$GT$3fmt17hd54736fca851499bE

	.section	__TEXT,__const
l___unnamed_2:
	.asciz	"hw.physicalcpu"

l___unnamed_3:
	.ascii	"byte literal is missing NUL"

l___unnamed_5:
	.ascii	"/Users/yingyuhang/.cargo/registry/src/github.com-1ecc6299db9ec823/num_cpus-1.13.0/src/lib.rs"

	.section	__DATA,__const
	.p2align	3
l___unnamed_4:
	.quad	l___unnamed_5
	.asciz	"\\\000\000\000\000\000\000\0008\001\000\000\027\000\000"

	.section	__DATA,__const
Lsec_end0:
	.section	__TEXT,__text,regular,pure_instructions
Lsec_end1: