	.section	__TEXT,__text,regular,pure_instructions
	.macosx_version_min 10, 7
	.file	1 "/Users/yingyuhang/.cargo/registry/src/github.com-1ecc6299db9ec823/optional-0.5.0/src/lib.rs"
	.p2align	4, 0x90
__ZN44_$LT$$RF$T$u20$as$u20$core..fmt..Display$GT$3fmt17h3bc29285b1f21bf5E:
Lfunc_begin0:
	.file	2 "/rustc/6c8927b0cf80ceee19386026cf9d7fd4fd9d486f/src/libcore/fmt/mod.rs"
	.loc	2 2022 0
	.cfi_startproc
	pushq	%rbp
	.cfi_def_cfa_offset 16
	.cfi_offset %rbp, -16
	movq	%rsp, %rbp
	.cfi_def_cfa_register %rbp
	movq	%rsi, %rdx
Ltmp0:
	.loc	2 2022 71 prologue_end
	movq	(%rdi), %rax
	movq	8(%rdi), %rsi
	.loc	2 2022 62 is_stmt 0
	movq	%rax, %rdi
Ltmp1:
	popq	%rbp
	jmp	__ZN42_$LT$str$u20$as$u20$core..fmt..Display$GT$3fmt17h6768afae62e94f93E
Ltmp2:
Lfunc_end0:
	.cfi_endproc

	.globl	__ZN57_$LT$optional..OptionBool$u20$as$u20$core..fmt..Debug$GT$3fmt17h169b5b4b8370c21cE
	.p2align	4, 0x90
__ZN57_$LT$optional..OptionBool$u20$as$u20$core..fmt..Debug$GT$3fmt17h169b5b4b8370c21cE:
Lfunc_begin1:
	.loc	1 767 0 is_stmt 1
	.cfi_startproc
	pushq	%rbp
	.cfi_def_cfa_offset 16
	.cfi_offset %rbp, -16
	movq	%rsp, %rbp
	.cfi_def_cfa_register %rbp
	subq	$80, %rsp
	movq	%rsi, %rax
Ltmp3:
	.loc	1 772 17 prologue_end
	movzbl	(%rdi), %ecx
	testq	%rcx, %rcx
	je	LBB1_3
Ltmp4:
	cmpl	$1, %ecx
	je	LBB1_4
Ltmp5:
	.loc	1 774 25
	leaq	L___unnamed_2(%rip), %rcx
	movq	%rcx, -16(%rbp)
	movl	$4, %ecx
	jmp	LBB1_5
Ltmp6:
LBB1_3:
	.loc	1 772 29
	leaq	l___unnamed_3(%rip), %rcx
	movq	%rcx, -16(%rbp)
	movl	$10, %ecx
	jmp	LBB1_5
Ltmp7:
LBB1_4:
	.loc	1 773 30
	leaq	l___unnamed_4(%rip), %rcx
	movq	%rcx, -16(%rbp)
	movl	$11, %ecx
Ltmp8:
LBB1_5:
	.loc	1 0 0 is_stmt 0
	movq	%rcx, -8(%rbp)
	leaq	-16(%rbp), %rcx
Ltmp9:
	.loc	1 768 9 is_stmt 1
	movq	%rcx, -32(%rbp)
	leaq	__ZN44_$LT$$RF$T$u20$as$u20$core..fmt..Display$GT$3fmt17h3bc29285b1f21bf5E(%rip), %rcx
	movq	%rcx, -24(%rbp)
Ltmp10:
	.loc	2 328 9
	leaq	__ZN8optional18OB_EMPTY_SLICE_REF17ha4cfd913f4698bb6E(%rip), %rcx
Ltmp11:
	movq	%rcx, -80(%rbp)
	movq	$1, -72(%rbp)
	movq	$0, -64(%rbp)
	leaq	-32(%rbp), %rcx
Ltmp12:
	movq	%rcx, -48(%rbp)
	movq	$1, -40(%rbp)
	leaq	-80(%rbp), %rsi
Ltmp13:
	.loc	1 768 9
	movq	%rax, %rdi
Ltmp14:
	callq	__ZN4core3fmt9Formatter9write_fmt17h742ca6aae87ad23cE
Ltmp15:
	.loc	1 777 6
	addq	$80, %rsp
	popq	%rbp
	retq
Ltmp16:
Lfunc_end1:
	.cfi_endproc

	.globl	__ZN38_$LT$i8$u20$as$u20$optional..OptEq$GT$6opt_eq17he4495838c72b000cE
	.p2align	4, 0x90
__ZN38_$LT$i8$u20$as$u20$optional..OptEq$GT$6opt_eq17he4495838c72b000cE:
Lfunc_begin2:
	.loc	1 1064 0
	.cfi_startproc
	pushq	%rbp
	.cfi_def_cfa_offset 16
	.cfi_offset %rbp, -16
	movq	%rsp, %rbp
	.cfi_def_cfa_register %rbp
Ltmp17:
	.loc	1 1065 9 prologue_end
	movb	(%rdi), %al
Ltmp18:
	.file	3 "/rustc/6c8927b0cf80ceee19386026cf9d7fd4fd9d486f/src/libcore/cmp.rs"
	.loc	3 1052 52
	cmpb	(%rsi), %al
	sete	%al
Ltmp19:
	.loc	1 1066 6
	popq	%rbp
	retq
Ltmp20:
Lfunc_end2:
	.cfi_endproc

	.globl	__ZN39_$LT$i16$u20$as$u20$optional..OptEq$GT$6opt_eq17h250562f92ecd1c6eE
	.p2align	4, 0x90
__ZN39_$LT$i16$u20$as$u20$optional..OptEq$GT$6opt_eq17h250562f92ecd1c6eE:
Lfunc_begin3:
	.loc	1 1069 0
	.cfi_startproc
	pushq	%rbp
	.cfi_def_cfa_offset 16
	.cfi_offset %rbp, -16
	movq	%rsp, %rbp
	.cfi_def_cfa_register %rbp
Ltmp21:
	.loc	1 1070 9 prologue_end
	movzwl	(%rdi), %eax
Ltmp22:
	.loc	3 1052 52
	cmpw	(%rsi), %ax
	sete	%al
Ltmp23:
	.loc	1 1071 6
	popq	%rbp
	retq
Ltmp24:
Lfunc_end3:
	.cfi_endproc

	.globl	__ZN39_$LT$i32$u20$as$u20$optional..OptEq$GT$6opt_eq17h6de564e00ecaff48E
	.p2align	4, 0x90
__ZN39_$LT$i32$u20$as$u20$optional..OptEq$GT$6opt_eq17h6de564e00ecaff48E:
Lfunc_begin4:
	.loc	1 1074 0
	.cfi_startproc
	pushq	%rbp
	.cfi_def_cfa_offset 16
	.cfi_offset %rbp, -16
	movq	%rsp, %rbp
	.cfi_def_cfa_register %rbp
Ltmp25:
	.loc	1 1075 9 prologue_end
	movl	(%rdi), %eax
Ltmp26:
	.loc	3 1052 52
	cmpl	(%rsi), %eax
	sete	%al
Ltmp27:
	.loc	1 1076 6
	popq	%rbp
	retq
Ltmp28:
Lfunc_end4:
	.cfi_endproc

	.globl	__ZN39_$LT$i64$u20$as$u20$optional..OptEq$GT$6opt_eq17h3251e6f8e948591aE
	.p2align	4, 0x90
__ZN39_$LT$i64$u20$as$u20$optional..OptEq$GT$6opt_eq17h3251e6f8e948591aE:
Lfunc_begin5:
	.loc	1 1079 0
	.cfi_startproc
	pushq	%rbp
	.cfi_def_cfa_offset 16
	.cfi_offset %rbp, -16
	movq	%rsp, %rbp
	.cfi_def_cfa_register %rbp
Ltmp29:
	.loc	1 1080 9 prologue_end
	movq	(%rdi), %rax
Ltmp30:
	.loc	3 1052 52
	cmpq	(%rsi), %rax
	sete	%al
Ltmp31:
	.loc	1 1081 6
	popq	%rbp
	retq
Ltmp32:
Lfunc_end5:
	.cfi_endproc

	.globl	__ZN39_$LT$f32$u20$as$u20$optional..OptEq$GT$6opt_eq17hf8e5dd23740078e9E
	.p2align	4, 0x90
__ZN39_$LT$f32$u20$as$u20$optional..OptEq$GT$6opt_eq17hf8e5dd23740078e9E:
Lfunc_begin6:
	.loc	1 1090 0
	.cfi_startproc
	pushq	%rbp
	.cfi_def_cfa_offset 16
	.cfi_offset %rbp, -16
	movq	%rsp, %rbp
	.cfi_def_cfa_register %rbp
Ltmp33:
	.loc	1 1091 12 prologue_end
	movss	(%rdi), %xmm0
	.loc	1 0 0 is_stmt 0
	movss	(%rsi), %xmm1
	.loc	1 1091 9
	xorl	%eax, %eax
	ucomiss	%xmm1, %xmm1
	setp	%al
	cmpeqss	%xmm0, %xmm1
	movd	%xmm1, %ecx
	andl	$1, %ecx
Ltmp34:
	.file	4 "/rustc/6c8927b0cf80ceee19386026cf9d7fd4fd9d486f/src/libcore/num/f32.rs"
	.loc	4 386 9 is_stmt 1
	ucomiss	%xmm0, %xmm0
Ltmp35:
	.loc	1 1091 9
	cmovnpl	%ecx, %eax
	.loc	1 1096 6
	popq	%rbp
	retq
Ltmp36:
Lfunc_end6:
	.cfi_endproc

	.globl	__ZN39_$LT$f64$u20$as$u20$optional..OptEq$GT$6opt_eq17h505620798969c5abE
	.p2align	4, 0x90
__ZN39_$LT$f64$u20$as$u20$optional..OptEq$GT$6opt_eq17h505620798969c5abE:
Lfunc_begin7:
	.loc	1 1099 0
	.cfi_startproc
	pushq	%rbp
	.cfi_def_cfa_offset 16
	.cfi_offset %rbp, -16
	movq	%rsp, %rbp
	.cfi_def_cfa_register %rbp
Ltmp37:
	.loc	1 1100 12 prologue_end
	movsd	(%rdi), %xmm0
	.loc	1 0 0 is_stmt 0
	movsd	(%rsi), %xmm1
	.loc	1 1100 9
	xorl	%eax, %eax
	ucomisd	%xmm1, %xmm1
	setp	%al
	cmpeqsd	%xmm0, %xmm1
	movq	%xmm1, %rcx
	andl	$1, %ecx
Ltmp38:
	.file	5 "/rustc/6c8927b0cf80ceee19386026cf9d7fd4fd9d486f/src/libcore/num/f64.rs"
	.loc	5 385 9 is_stmt 1
	ucomisd	%xmm0, %xmm0
Ltmp39:
	.loc	1 1100 9
	cmovnpl	%ecx, %eax
	.loc	1 1105 6
	popq	%rbp
	retq
Ltmp40:
Lfunc_end7:
	.cfi_endproc

	.globl	__ZN39_$LT$u8$u20$as$u20$optional..OptOrd$GT$7opt_cmp17h6da77cd497b16ba4E
	.p2align	4, 0x90
__ZN39_$LT$u8$u20$as$u20$optional..OptOrd$GT$7opt_cmp17h6da77cd497b16ba4E:
Lfunc_begin8:
	.loc	1 1152 0
	.cfi_startproc
	pushq	%rbp
	.cfi_def_cfa_offset 16
	.cfi_offset %rbp, -16
	movq	%rsp, %rbp
	.cfi_def_cfa_register %rbp
Ltmp41:
	.loc	1 1153 9 prologue_end
	movb	(%rdi), %cl
	movb	(%rsi), %al
Ltmp42:
	.loc	3 1052 52
	cmpb	$-1, %cl
Ltmp43:
	.loc	1 1123 5
	je	LBB8_3
Ltmp44:
	.loc	3 1052 52
	cmpb	$-1, %al
Ltmp45:
	.loc	1 1129 12
	je	LBB8_2
Ltmp46:
	.loc	3 1151 21
	xorl	%edx, %edx
	.loc	3 1151 24 is_stmt 0
	cmpb	%al, %cl
	.loc	3 1151 21
	setne	%dl
	movl	$255, %eax
	cmovael	%edx, %eax
Ltmp47:
	.loc	1 1154 6 is_stmt 1
	popq	%rbp
	retq
Ltmp48:
LBB8_3:
	.loc	3 1052 52
	cmpb	$-1, %al
	sete	%al
Ltmp49:
	.loc	1 1124 9
	decb	%al
Ltmp50:
	.loc	1 1154 6
	popq	%rbp
	retq
Ltmp51:
LBB8_2:
	.loc	1 0 6 is_stmt 0
	movb	$1, %al
	.loc	1 1154 6
	popq	%rbp
	retq
Ltmp52:
Lfunc_end8:
	.cfi_endproc

	.globl	__ZN40_$LT$u16$u20$as$u20$optional..OptOrd$GT$7opt_cmp17hd3f947faa999797eE
	.p2align	4, 0x90
__ZN40_$LT$u16$u20$as$u20$optional..OptOrd$GT$7opt_cmp17hd3f947faa999797eE:
Lfunc_begin9:
	.loc	1 1157 0 is_stmt 1
	.cfi_startproc
	pushq	%rbp
	.cfi_def_cfa_offset 16
	.cfi_offset %rbp, -16
	movq	%rsp, %rbp
	.cfi_def_cfa_register %rbp
Ltmp53:
	.loc	1 1158 9 prologue_end
	movzwl	(%rdi), %ecx
	movzwl	(%rsi), %eax
Ltmp54:
	.loc	3 1052 52
	cmpw	$-1, %cx
Ltmp55:
	.loc	1 1123 5
	je	LBB9_3
Ltmp56:
	.loc	3 1052 52
	cmpw	$-1, %ax
Ltmp57:
	.loc	1 1129 12
	je	LBB9_2
Ltmp58:
	.loc	3 1151 21
	xorl	%edx, %edx
	.loc	3 1151 24 is_stmt 0
	cmpw	%ax, %cx
	.loc	3 1151 21
	setne	%dl
	movl	$255, %eax
	cmovael	%edx, %eax
Ltmp59:
	.loc	1 1159 6 is_stmt 1
	popq	%rbp
	retq
Ltmp60:
LBB9_3:
	.loc	3 1052 52
	cmpw	$-1, %ax
	sete	%al
Ltmp61:
	.loc	1 1124 9
	decb	%al
Ltmp62:
	.loc	1 1159 6
	popq	%rbp
	retq
Ltmp63:
LBB9_2:
	.loc	1 0 6 is_stmt 0
	movb	$1, %al
	.loc	1 1159 6
	popq	%rbp
	retq
Ltmp64:
Lfunc_end9:
	.cfi_endproc

	.globl	__ZN40_$LT$u32$u20$as$u20$optional..OptOrd$GT$7opt_cmp17h87a9636a2086490eE
	.p2align	4, 0x90
__ZN40_$LT$u32$u20$as$u20$optional..OptOrd$GT$7opt_cmp17h87a9636a2086490eE:
Lfunc_begin10:
	.loc	1 1162 0 is_stmt 1
	.cfi_startproc
	pushq	%rbp
	.cfi_def_cfa_offset 16
	.cfi_offset %rbp, -16
	movq	%rsp, %rbp
	.cfi_def_cfa_register %rbp
Ltmp65:
	.loc	1 1163 9 prologue_end
	movl	(%rdi), %ecx
	movl	(%rsi), %eax
Ltmp66:
	.loc	3 1052 52
	cmpl	$-1, %ecx
Ltmp67:
	.loc	1 1123 5
	je	LBB10_3
Ltmp68:
	.loc	3 1052 52
	cmpl	$-1, %eax
Ltmp69:
	.loc	1 1129 12
	je	LBB10_2
Ltmp70:
	.loc	3 1151 21
	xorl	%edx, %edx
	.loc	3 1151 24 is_stmt 0
	cmpl	%eax, %ecx
	.loc	3 1151 21
	setne	%dl
	movl	$255, %eax
	cmovael	%edx, %eax
Ltmp71:
	.loc	1 1164 6 is_stmt 1
	popq	%rbp
	retq
Ltmp72:
LBB10_3:
	.loc	3 1052 52
	cmpl	$-1, %eax
	sete	%al
Ltmp73:
	.loc	1 1124 9
	decb	%al
Ltmp74:
	.loc	1 1164 6
	popq	%rbp
	retq
Ltmp75:
LBB10_2:
	.loc	1 0 6 is_stmt 0
	movb	$1, %al
	.loc	1 1164 6
	popq	%rbp
	retq
Ltmp76:
Lfunc_end10:
	.cfi_endproc

	.globl	__ZN40_$LT$u64$u20$as$u20$optional..OptOrd$GT$7opt_cmp17h5eb4b1428ca48b59E
	.p2align	4, 0x90
__ZN40_$LT$u64$u20$as$u20$optional..OptOrd$GT$7opt_cmp17h5eb4b1428ca48b59E:
Lfunc_begin11:
	.loc	1 1167 0 is_stmt 1
	.cfi_startproc
	pushq	%rbp
	.cfi_def_cfa_offset 16
	.cfi_offset %rbp, -16
	movq	%rsp, %rbp
	.cfi_def_cfa_register %rbp
Ltmp77:
	.loc	1 1168 9 prologue_end
	movq	(%rdi), %rcx
	movq	(%rsi), %rax
Ltmp78:
	.loc	3 1052 52
	cmpq	$-1, %rcx
Ltmp79:
	.loc	1 1123 5
	je	LBB11_3
Ltmp80:
	.loc	3 1052 52
	cmpq	$-1, %rax
Ltmp81:
	.loc	1 1129 12
	je	LBB11_2
Ltmp82:
	.loc	3 1151 21
	xorl	%edx, %edx
	.loc	3 1151 24 is_stmt 0
	cmpq	%rax, %rcx
	.loc	3 1151 21
	setne	%dl
	movl	$255, %eax
	cmovael	%edx, %eax
Ltmp83:
	.loc	1 1169 6 is_stmt 1
	popq	%rbp
	retq
Ltmp84:
LBB11_3:
	.loc	3 1052 52
	cmpq	$-1, %rax
	sete	%al
Ltmp85:
	.loc	1 1124 9
	decb	%al
Ltmp86:
	.loc	1 1169 6
	popq	%rbp
	retq
Ltmp87:
LBB11_2:
	.loc	1 0 6 is_stmt 0
	movb	$1, %al
	.loc	1 1169 6
	popq	%rbp
	retq
Ltmp88:
Lfunc_end11:
	.cfi_endproc

	.globl	__ZN39_$LT$i8$u20$as$u20$optional..OptOrd$GT$7opt_cmp17h6b466b5d730e9790E
	.p2align	4, 0x90
__ZN39_$LT$i8$u20$as$u20$optional..OptOrd$GT$7opt_cmp17h6b466b5d730e9790E:
Lfunc_begin12:
	.loc	1 1178 0 is_stmt 1
	.cfi_startproc
	pushq	%rbp
	.cfi_def_cfa_offset 16
	.cfi_offset %rbp, -16
	movq	%rsp, %rbp
	.cfi_def_cfa_register %rbp
Ltmp89:
	.loc	1 1179 9 prologue_end
	movb	(%rdi), %al
Ltmp90:
	.loc	3 1151 21
	xorl	%ecx, %ecx
	.loc	3 1151 24 is_stmt 0
	cmpb	(%rsi), %al
	.loc	3 1151 21
	setne	%cl
	movl	$255, %eax
	cmovgel	%ecx, %eax
Ltmp91:
	.loc	1 1180 6 is_stmt 1
	popq	%rbp
	retq
Ltmp92:
Lfunc_end12:
	.cfi_endproc

	.globl	__ZN40_$LT$i16$u20$as$u20$optional..OptOrd$GT$7opt_cmp17hf39b9c875e650fefE
	.p2align	4, 0x90
__ZN40_$LT$i16$u20$as$u20$optional..OptOrd$GT$7opt_cmp17hf39b9c875e650fefE:
Lfunc_begin13:
	.loc	1 1183 0
	.cfi_startproc
	pushq	%rbp
	.cfi_def_cfa_offset 16
	.cfi_offset %rbp, -16
	movq	%rsp, %rbp
	.cfi_def_cfa_register %rbp
Ltmp93:
	.loc	1 1184 9 prologue_end
	movzwl	(%rdi), %eax
Ltmp94:
	.loc	3 1151 21
	xorl	%ecx, %ecx
	.loc	3 1151 24 is_stmt 0
	cmpw	(%rsi), %ax
	.loc	3 1151 21
	setne	%cl
	movl	$255, %eax
	cmovgel	%ecx, %eax
Ltmp95:
	.loc	1 1185 6 is_stmt 1
	popq	%rbp
	retq
Ltmp96:
Lfunc_end13:
	.cfi_endproc

	.globl	__ZN40_$LT$i32$u20$as$u20$optional..OptOrd$GT$7opt_cmp17hc2c71a562f704975E
	.p2align	4, 0x90
__ZN40_$LT$i32$u20$as$u20$optional..OptOrd$GT$7opt_cmp17hc2c71a562f704975E:
Lfunc_begin14:
	.loc	1 1188 0
	.cfi_startproc
	pushq	%rbp
	.cfi_def_cfa_offset 16
	.cfi_offset %rbp, -16
	movq	%rsp, %rbp
	.cfi_def_cfa_register %rbp
Ltmp97:
	.loc	1 1189 9 prologue_end
	movl	(%rdi), %eax
Ltmp98:
	.loc	3 1151 21
	xorl	%ecx, %ecx
	.loc	3 1151 24 is_stmt 0
	cmpl	(%rsi), %eax
	.loc	3 1151 21
	setne	%cl
	movl	$255, %eax
	cmovgel	%ecx, %eax
Ltmp99:
	.loc	1 1190 6 is_stmt 1
	popq	%rbp
	retq
Ltmp100:
Lfunc_end14:
	.cfi_endproc

	.globl	__ZN40_$LT$i64$u20$as$u20$optional..OptOrd$GT$7opt_cmp17h4cb7366d4a4d02c7E
	.p2align	4, 0x90
__ZN40_$LT$i64$u20$as$u20$optional..OptOrd$GT$7opt_cmp17h4cb7366d4a4d02c7E:
Lfunc_begin15:
	.loc	1 1193 0
	.cfi_startproc
	pushq	%rbp
	.cfi_def_cfa_offset 16
	.cfi_offset %rbp, -16
	movq	%rsp, %rbp
	.cfi_def_cfa_register %rbp
Ltmp101:
	.loc	1 1194 9 prologue_end
	movq	(%rdi), %rax
Ltmp102:
	.loc	3 1151 21
	xorl	%ecx, %ecx
	.loc	3 1151 24 is_stmt 0
	cmpq	(%rsi), %rax
	.loc	3 1151 21
	setne	%cl
	movl	$255, %eax
	cmovgel	%ecx, %eax
Ltmp103:
	.loc	1 1195 6 is_stmt 1
	popq	%rbp
	retq
Ltmp104:
Lfunc_end15:
	.cfi_endproc

	.globl	__ZN40_$LT$f32$u20$as$u20$optional..OptOrd$GT$7opt_cmp17h17e0a31e473fe3fdE
	.p2align	4, 0x90
__ZN40_$LT$f32$u20$as$u20$optional..OptOrd$GT$7opt_cmp17h17e0a31e473fe3fdE:
Lfunc_begin16:
	.loc	1 1204 0
	.cfi_startproc
	pushq	%rbp
	.cfi_def_cfa_offset 16
	.cfi_offset %rbp, -16
	movq	%rsp, %rbp
	.cfi_def_cfa_register %rbp
Ltmp105:
	.loc	1 1205 9 prologue_end
	movss	(%rdi), %xmm1
	movss	(%rsi), %xmm0
Ltmp106:
	.loc	4 386 9
	ucomiss	%xmm1, %xmm1
Ltmp107:
	.loc	1 1138 5
	jp	LBB16_5
Ltmp108:
	.loc	4 386 9
	ucomiss	%xmm0, %xmm0
Ltmp109:
	.loc	1 1144 12
	jp	LBB16_2
Ltmp110:
	.loc	3 1102 52
	ucomiss	%xmm0, %xmm1
	setae	%al
	movb	$2, %cl
Ltmp111:
	.loc	3 1091 26
	subb	%al, %cl
	decb	%al
Ltmp112:
	.loc	3 1100 52
	ucomiss	%xmm1, %xmm0
Ltmp113:
	.loc	3 1091 26
	movzbl	%al, %edx
	movzbl	%cl, %eax
	cmovael	%edx, %eax
Ltmp114:
	.file	6 "/rustc/6c8927b0cf80ceee19386026cf9d7fd4fd9d486f/src/libcore/option.rs"
	.loc	6 385 13
	cmpb	$2, %al
	je	LBB16_4
Ltmp115:
	.loc	1 1206 6
	popq	%rbp
	retq
Ltmp116:
LBB16_5:
	.loc	4 386 9
	ucomiss	%xmm0, %xmm0
	setp	%al
Ltmp117:
	.loc	1 1139 9
	decb	%al
Ltmp118:
	.loc	1 1206 6
	popq	%rbp
	retq
Ltmp119:
LBB16_2:
	.loc	1 0 6 is_stmt 0
	movb	$1, %al
	.loc	1 1206 6
	popq	%rbp
	retq
Ltmp120:
LBB16_4:
	.file	7 "/rustc/6c8927b0cf80ceee19386026cf9d7fd4fd9d486f/src/libcore/macros/mod.rs"
	.loc	7 10 9 is_stmt 1
	leaq	l___unnamed_5(%rip), %rdi
Ltmp121:
	leaq	l___unnamed_6(%rip), %rdx
	movl	$43, %esi
Ltmp122:
	callq	__ZN4core9panicking5panic17h383a6b80ea7021aaE
Ltmp123:
Lfunc_end16:
	.cfi_endproc

	.globl	__ZN40_$LT$f64$u20$as$u20$optional..OptOrd$GT$7opt_cmp17h428c45f4555f234eE
	.p2align	4, 0x90
__ZN40_$LT$f64$u20$as$u20$optional..OptOrd$GT$7opt_cmp17h428c45f4555f234eE:
Lfunc_begin17:
	.loc	1 1209 0
	.cfi_startproc
	pushq	%rbp
	.cfi_def_cfa_offset 16
	.cfi_offset %rbp, -16
	movq	%rsp, %rbp
	.cfi_def_cfa_register %rbp
Ltmp124:
	.loc	1 1210 9 prologue_end
	movsd	(%rdi), %xmm1
	movsd	(%rsi), %xmm0
Ltmp125:
	.loc	5 385 9
	ucomisd	%xmm1, %xmm1
Ltmp126:
	.loc	1 1138 5
	jp	LBB17_5
Ltmp127:
	.loc	5 385 9
	ucomisd	%xmm0, %xmm0
Ltmp128:
	.loc	1 1144 12
	jp	LBB17_2
Ltmp129:
	.loc	3 1102 52
	ucomisd	%xmm0, %xmm1
	setae	%al
	movb	$2, %cl
Ltmp130:
	.loc	3 1091 26
	subb	%al, %cl
	decb	%al
Ltmp131:
	.loc	3 1100 52
	ucomisd	%xmm1, %xmm0
Ltmp132:
	.loc	3 1091 26
	movzbl	%al, %edx
	movzbl	%cl, %eax
	cmovael	%edx, %eax
Ltmp133:
	.loc	6 385 13
	cmpb	$2, %al
	je	LBB17_4
Ltmp134:
	.loc	1 1211 6
	popq	%rbp
	retq
Ltmp135:
LBB17_5:
	.loc	5 385 9
	ucomisd	%xmm0, %xmm0
	setp	%al
Ltmp136:
	.loc	1 1139 9
	decb	%al
Ltmp137:
	.loc	1 1211 6
	popq	%rbp
	retq
Ltmp138:
LBB17_2:
	.loc	1 0 6 is_stmt 0
	movb	$1, %al
	.loc	1 1211 6
	popq	%rbp
	retq
Ltmp139:
LBB17_4:
	.loc	7 10 9 is_stmt 1
	leaq	l___unnamed_5(%rip), %rdi
Ltmp140:
	leaq	l___unnamed_6(%rip), %rdx
	movl	$43, %esi
Ltmp141:
	callq	__ZN4core9panicking5panic17h383a6b80ea7021aaE
Ltmp142:
Lfunc_end17:
	.cfi_endproc

	.globl	__ZN41_$LT$char$u20$as$u20$optional..OptOrd$GT$7opt_cmp17h6ab137b21fe41ecaE
	.p2align	4, 0x90
__ZN41_$LT$char$u20$as$u20$optional..OptOrd$GT$7opt_cmp17h6ab137b21fe41ecaE:
Lfunc_begin18:
	.loc	1 1215 0
	.cfi_startproc
	pushq	%rbp
	.cfi_def_cfa_offset 16
	.cfi_offset %rbp, -16
	movq	%rsp, %rbp
	.cfi_def_cfa_register %rbp
Ltmp143:
	.loc	1 1216 9 prologue_end
	movl	(%rdi), %ecx
	movl	(%rsi), %eax
Ltmp144:
	.loc	1 1024 33
	testl	%ecx, %ecx
Ltmp145:
	.loc	1 1123 5
	je	LBB18_3
Ltmp146:
	.loc	1 1024 33
	testl	%eax, %eax
Ltmp147:
	.loc	1 1129 12
	je	LBB18_2
Ltmp148:
	.loc	3 1151 21
	xorl	%edx, %edx
	.loc	3 1151 24 is_stmt 0
	cmpl	%eax, %ecx
	.loc	3 1151 21
	setne	%dl
	movl	$255, %eax
	cmovael	%edx, %eax
Ltmp149:
	.loc	1 1217 6 is_stmt 1
	popq	%rbp
	retq
Ltmp150:
LBB18_3:
	.loc	1 1124 9
	negl	%eax
	sbbb	%al, %al
Ltmp151:
	.loc	1 1217 6
	popq	%rbp
	retq
Ltmp152:
LBB18_2:
	.loc	1 0 6 is_stmt 0
	movb	$1, %al
	.loc	1 1217 6
	popq	%rbp
	retq
Ltmp153:
Lfunc_end18:
	.cfi_endproc

	.section	__TEXT,__const
l___unnamed_5:
	.ascii	"called `Option::unwrap()` on a `None` value"

__ZN8optional13OB_TRUE_SLICE17h5c883b82fc51a761E:
	.byte	1

__ZN8optional14OB_FALSE_SLICE17h6d9969c5ad63ca14E:
	.space	1

	.section	__DATA,__const
	.globl	__ZN8optional17OB_TRUE_SLICE_REF17h6339b56cf5886225E
	.p2align	3
__ZN8optional17OB_TRUE_SLICE_REF17h6339b56cf5886225E:
	.quad	__ZN8optional13OB_TRUE_SLICE17h5c883b82fc51a761E
	.asciz	"\001\000\000\000\000\000\000"

	.globl	__ZN8optional18OB_FALSE_SLICE_REF17h749204a56365dc26E
	.p2align	3
__ZN8optional18OB_FALSE_SLICE_REF17h749204a56365dc26E:
	.quad	__ZN8optional14OB_FALSE_SLICE17h6d9969c5ad63ca14E
	.asciz	"\001\000\000\000\000\000\000"

	.globl	__ZN8optional18OB_EMPTY_SLICE_REF17ha4cfd913f4698bb6E
	.p2align	3
__ZN8optional18OB_EMPTY_SLICE_REF17ha4cfd913f4698bb6E:
	.quad	l___unnamed_1
	.space	8

	.section	__TEXT,__const
l___unnamed_1:
	.byte	0

	.section	__TEXT,__literal4,4byte_literals
L___unnamed_2:
	.ascii	"None"

	.section	__TEXT,__const
l___unnamed_4:
	.ascii	"Some(false)"

l___unnamed_3:
	.ascii	"Some(true)"

l___unnamed_7:
	.ascii	"/Users/yingyuhang/.cargo/registry/src/github.com-1ecc6299db9ec823/optional-0.5.0/src/lib.rs"

	.section	__DATA,__const
	.p2align	3
l___unnamed_6:
	.quad	l___unnamed_7
	.asciz	"[\000\000\000\000\000\000\000{\004\000\000\032\000\000"

	.section	__TEXT,__const
Lsec_end0:
	.section	__DATA,__const
Lsec_end1:
	.section	__TEXT,__text,regular,pure_instructions
Lsec_end2: