	.section	__TEXT,__text,regular,pure_instructions
	.macosx_version_min 10, 7
	.file	1 "/Users/yingyuhang/.cargo/registry/src/github.com-1ecc6299db9ec823/optional-0.5.0/src/lib.rs"
	.p2align	4, 0x90
__ZN44_$LT$$RF$T$u20$as$u20$core..fmt..Display$GT$3fmt17h9758d0c3487ba07aE:
Lfunc_begin0:
	.file	2 "/rustc/a74d1862d4d87a56244958416fd05976c58ca1a8/src/libcore/fmt/mod.rs"
	.loc	2 1973 0
	.cfi_startproc
	pushq	%rbp
	.cfi_def_cfa_offset 16
	.cfi_offset %rbp, -16
	movq	%rsp, %rbp
	.cfi_def_cfa_register %rbp
	movq	%rsi, %rdx
Ltmp0:
	.loc	2 1973 71 prologue_end
	movq	(%rdi), %rax
	movq	8(%rdi), %rsi
	.loc	2 1973 62 is_stmt 0
	movq	%rax, %rdi
Ltmp1:
	popq	%rbp
	jmp	__ZN42_$LT$str$u20$as$u20$core..fmt..Display$GT$3fmt17hd4dee1c1c4ccf892E
Ltmp2:
Lfunc_end0:
	.cfi_endproc

	.globl	__ZN57_$LT$optional..OptionBool$u20$as$u20$core..fmt..Debug$GT$3fmt17h5a0a790822e87313E
	.p2align	4, 0x90
__ZN57_$LT$optional..OptionBool$u20$as$u20$core..fmt..Debug$GT$3fmt17h5a0a790822e87313E:
Lfunc_begin1:
	.loc	1 767 0 is_stmt 1
	.cfi_startproc
	pushq	%rbp
	.cfi_def_cfa_offset 16
	.cfi_offset %rbp, -16
	movq	%rsp, %rbp
	.cfi_def_cfa_register %rbp
	subq	$80, %rsp
	movq	%rsi, %rax
Ltmp3:
	.loc	1 772 17 prologue_end
	movzbl	(%rdi), %ecx
	testq	%rcx, %rcx
	je	LBB1_3
Ltmp4:
	cmpq	$1, %rcx
	je	LBB1_4
Ltmp5:
	.loc	1 0 17 is_stmt 0
	movl	$4, %ecx
	leaq	L___unnamed_2(%rip), %rdx
	jmp	LBB1_5
Ltmp6:
LBB1_3:
	movl	$10, %ecx
	leaq	l___unnamed_3(%rip), %rdx
	jmp	LBB1_5
Ltmp7:
LBB1_4:
	movl	$11, %ecx
	leaq	l___unnamed_4(%rip), %rdx
Ltmp8:
LBB1_5:
	movq	%rdx, -32(%rbp)
	movq	%rcx, -24(%rbp)
	leaq	-32(%rbp), %rcx
Ltmp9:
	.loc	1 768 9 is_stmt 1
	movq	%rcx, -16(%rbp)
	leaq	__ZN44_$LT$$RF$T$u20$as$u20$core..fmt..Display$GT$3fmt17h9758d0c3487ba07aE(%rip), %rcx
	movq	%rcx, -8(%rbp)
Ltmp10:
	.loc	2 328 9
	leaq	__ZN8optional18OB_EMPTY_SLICE_REF17hdac78b87b3770806E(%rip), %rcx
Ltmp11:
	movq	%rcx, -80(%rbp)
	movq	$1, -72(%rbp)
	movq	$0, -64(%rbp)
	leaq	-16(%rbp), %rcx
Ltmp12:
	movq	%rcx, -48(%rbp)
	movq	$1, -40(%rbp)
	leaq	-80(%rbp), %rsi
Ltmp13:
	.loc	1 768 9
	movq	%rax, %rdi
Ltmp14:
	callq	__ZN4core3fmt9Formatter9write_fmt17h3dc2bf45afed3069E
Ltmp15:
	.loc	1 777 6
	addq	$80, %rsp
	popq	%rbp
	retq
Ltmp16:
Lfunc_end1:
	.cfi_endproc

	.globl	__ZN38_$LT$i8$u20$as$u20$optional..OptEq$GT$6opt_eq17h2072b1815007415fE
	.p2align	4, 0x90
__ZN38_$LT$i8$u20$as$u20$optional..OptEq$GT$6opt_eq17h2072b1815007415fE:
Lfunc_begin2:
	.loc	1 1064 0
	.cfi_startproc
	pushq	%rbp
	.cfi_def_cfa_offset 16
	.cfi_offset %rbp, -16
	movq	%rsp, %rbp
	.cfi_def_cfa_register %rbp
Ltmp17:
	.loc	1 1065 9 prologue_end
	movb	(%rdi), %al
Ltmp18:
	.file	3 "/rustc/a74d1862d4d87a56244958416fd05976c58ca1a8/src/libcore/cmp.rs"
	.loc	3 1053 52
	cmpb	(%rsi), %al
	sete	%al
Ltmp19:
	.loc	1 1066 6
	popq	%rbp
	retq
Ltmp20:
Lfunc_end2:
	.cfi_endproc

	.globl	__ZN39_$LT$i16$u20$as$u20$optional..OptEq$GT$6opt_eq17hc0b3acfab0b804c8E
	.p2align	4, 0x90
__ZN39_$LT$i16$u20$as$u20$optional..OptEq$GT$6opt_eq17hc0b3acfab0b804c8E:
Lfunc_begin3:
	.loc	1 1069 0
	.cfi_startproc
	pushq	%rbp
	.cfi_def_cfa_offset 16
	.cfi_offset %rbp, -16
	movq	%rsp, %rbp
	.cfi_def_cfa_register %rbp
Ltmp21:
	.loc	1 1070 9 prologue_end
	movzwl	(%rdi), %eax
Ltmp22:
	.loc	3 1053 52
	cmpw	(%rsi), %ax
	sete	%al
Ltmp23:
	.loc	1 1071 6
	popq	%rbp
	retq
Ltmp24:
Lfunc_end3:
	.cfi_endproc

	.globl	__ZN39_$LT$i32$u20$as$u20$optional..OptEq$GT$6opt_eq17h1b1b6e142c01a839E
	.p2align	4, 0x90
__ZN39_$LT$i32$u20$as$u20$optional..OptEq$GT$6opt_eq17h1b1b6e142c01a839E:
Lfunc_begin4:
	.loc	1 1074 0
	.cfi_startproc
	pushq	%rbp
	.cfi_def_cfa_offset 16
	.cfi_offset %rbp, -16
	movq	%rsp, %rbp
	.cfi_def_cfa_register %rbp
Ltmp25:
	.loc	1 1075 9 prologue_end
	movl	(%rdi), %eax
Ltmp26:
	.loc	3 1053 52
	cmpl	(%rsi), %eax
	sete	%al
Ltmp27:
	.loc	1 1076 6
	popq	%rbp
	retq
Ltmp28:
Lfunc_end4:
	.cfi_endproc

	.globl	__ZN39_$LT$i64$u20$as$u20$optional..OptEq$GT$6opt_eq17h8220e2c8b17323c5E
	.p2align	4, 0x90
__ZN39_$LT$i64$u20$as$u20$optional..OptEq$GT$6opt_eq17h8220e2c8b17323c5E:
Lfunc_begin5:
	.loc	1 1079 0
	.cfi_startproc
	pushq	%rbp
	.cfi_def_cfa_offset 16
	.cfi_offset %rbp, -16
	movq	%rsp, %rbp
	.cfi_def_cfa_register %rbp
Ltmp29:
	.loc	1 1080 9 prologue_end
	movq	(%rdi), %rax
Ltmp30:
	.loc	3 1053 52
	cmpq	(%rsi), %rax
	sete	%al
Ltmp31:
	.loc	1 1081 6
	popq	%rbp
	retq
Ltmp32:
Lfunc_end5:
	.cfi_endproc

	.globl	__ZN39_$LT$f32$u20$as$u20$optional..OptEq$GT$6opt_eq17h722cc366faaa36aaE
	.p2align	4, 0x90
__ZN39_$LT$f32$u20$as$u20$optional..OptEq$GT$6opt_eq17h722cc366faaa36aaE:
Lfunc_begin6:
	.loc	1 1090 0
	.cfi_startproc
	pushq	%rbp
	.cfi_def_cfa_offset 16
	.cfi_offset %rbp, -16
	movq	%rsp, %rbp
	.cfi_def_cfa_register %rbp
Ltmp33:
	.loc	1 1091 12 prologue_end
	movss	(%rdi), %xmm0
Ltmp34:
	.loc	1 0 0 is_stmt 0
	movss	(%rsi), %xmm1
	.loc	1 1091 9
	xorl	%eax, %eax
	ucomiss	%xmm1, %xmm1
	setp	%al
	cmpeqss	%xmm0, %xmm1
	movd	%xmm1, %ecx
	andl	$1, %ecx
Ltmp35:
	.file	4 "/rustc/a74d1862d4d87a56244958416fd05976c58ca1a8/src/libcore/num/f32.rs"
	.loc	4 386 9 is_stmt 1
	ucomiss	%xmm0, %xmm0
Ltmp36:
	.loc	1 1091 9
	cmovnpl	%ecx, %eax
	.loc	1 1096 6
	popq	%rbp
	retq
Ltmp37:
Lfunc_end6:
	.cfi_endproc

	.globl	__ZN39_$LT$f64$u20$as$u20$optional..OptEq$GT$6opt_eq17hac0a11b9bff855f8E
	.p2align	4, 0x90
__ZN39_$LT$f64$u20$as$u20$optional..OptEq$GT$6opt_eq17hac0a11b9bff855f8E:
Lfunc_begin7:
	.loc	1 1099 0
	.cfi_startproc
	pushq	%rbp
	.cfi_def_cfa_offset 16
	.cfi_offset %rbp, -16
	movq	%rsp, %rbp
	.cfi_def_cfa_register %rbp
Ltmp38:
	.loc	1 1100 12 prologue_end
	movsd	(%rdi), %xmm0
Ltmp39:
	.loc	1 0 0 is_stmt 0
	movsd	(%rsi), %xmm1
	.loc	1 1100 9
	xorl	%eax, %eax
	ucomisd	%xmm1, %xmm1
	setp	%al
	cmpeqsd	%xmm0, %xmm1
	movq	%xmm1, %rcx
	andl	$1, %ecx
Ltmp40:
	.file	5 "/rustc/a74d1862d4d87a56244958416fd05976c58ca1a8/src/libcore/num/f64.rs"
	.loc	5 385 9 is_stmt 1
	ucomisd	%xmm0, %xmm0
Ltmp41:
	.loc	1 1100 9
	cmovnpl	%ecx, %eax
	.loc	1 1105 6
	popq	%rbp
	retq
Ltmp42:
Lfunc_end7:
	.cfi_endproc

	.globl	__ZN39_$LT$u8$u20$as$u20$optional..OptOrd$GT$7opt_cmp17hb6916fd6964d0c08E
	.p2align	4, 0x90
__ZN39_$LT$u8$u20$as$u20$optional..OptOrd$GT$7opt_cmp17hb6916fd6964d0c08E:
Lfunc_begin8:
	.loc	1 1152 0
	.cfi_startproc
	pushq	%rbp
	.cfi_def_cfa_offset 16
	.cfi_offset %rbp, -16
	movq	%rsp, %rbp
	.cfi_def_cfa_register %rbp
Ltmp43:
	.loc	1 1153 9 prologue_end
	movb	(%rdi), %cl
	movb	(%rsi), %al
Ltmp44:
	.loc	3 1053 52
	cmpb	$-1, %cl
Ltmp45:
	.loc	1 1123 5
	je	LBB8_3
Ltmp46:
	.loc	3 1053 52
	cmpb	$-1, %al
Ltmp47:
	.loc	1 1129 12
	je	LBB8_2
Ltmp48:
	.loc	3 1152 21
	xorl	%edx, %edx
	.loc	3 1152 24 is_stmt 0
	cmpb	%al, %cl
	.loc	3 1152 21
	setne	%dl
	movl	$255, %eax
	cmovael	%edx, %eax
Ltmp49:
	.loc	1 1154 6 is_stmt 1
	popq	%rbp
	retq
Ltmp50:
LBB8_3:
	.loc	3 1053 52
	cmpb	$-1, %al
	sete	%al
Ltmp51:
	.loc	1 1124 9
	decb	%al
Ltmp52:
	.loc	1 1154 6
	popq	%rbp
	retq
Ltmp53:
LBB8_2:
	.loc	1 0 6 is_stmt 0
	movb	$1, %al
	.loc	1 1154 6
	popq	%rbp
	retq
Ltmp54:
Lfunc_end8:
	.cfi_endproc

	.globl	__ZN40_$LT$u16$u20$as$u20$optional..OptOrd$GT$7opt_cmp17h21d2b7e23d4d547eE
	.p2align	4, 0x90
__ZN40_$LT$u16$u20$as$u20$optional..OptOrd$GT$7opt_cmp17h21d2b7e23d4d547eE:
Lfunc_begin9:
	.loc	1 1157 0 is_stmt 1
	.cfi_startproc
	pushq	%rbp
	.cfi_def_cfa_offset 16
	.cfi_offset %rbp, -16
	movq	%rsp, %rbp
	.cfi_def_cfa_register %rbp
Ltmp55:
	.loc	1 1158 9 prologue_end
	movzwl	(%rdi), %ecx
	movzwl	(%rsi), %eax
Ltmp56:
	.loc	3 1053 52
	cmpw	$-1, %cx
Ltmp57:
	.loc	1 1123 5
	je	LBB9_3
Ltmp58:
	.loc	3 1053 52
	cmpw	$-1, %ax
Ltmp59:
	.loc	1 1129 12
	je	LBB9_2
Ltmp60:
	.loc	3 1152 21
	xorl	%edx, %edx
	.loc	3 1152 24 is_stmt 0
	cmpw	%ax, %cx
	.loc	3 1152 21
	setne	%dl
	movl	$255, %eax
	cmovael	%edx, %eax
Ltmp61:
	.loc	1 1159 6 is_stmt 1
	popq	%rbp
	retq
Ltmp62:
LBB9_3:
	.loc	3 1053 52
	cmpw	$-1, %ax
	sete	%al
Ltmp63:
	.loc	1 1124 9
	decb	%al
Ltmp64:
	.loc	1 1159 6
	popq	%rbp
	retq
Ltmp65:
LBB9_2:
	.loc	1 0 6 is_stmt 0
	movb	$1, %al
	.loc	1 1159 6
	popq	%rbp
	retq
Ltmp66:
Lfunc_end9:
	.cfi_endproc

	.globl	__ZN40_$LT$u32$u20$as$u20$optional..OptOrd$GT$7opt_cmp17h24d2733b7332213bE
	.p2align	4, 0x90
__ZN40_$LT$u32$u20$as$u20$optional..OptOrd$GT$7opt_cmp17h24d2733b7332213bE:
Lfunc_begin10:
	.loc	1 1162 0 is_stmt 1
	.cfi_startproc
	pushq	%rbp
	.cfi_def_cfa_offset 16
	.cfi_offset %rbp, -16
	movq	%rsp, %rbp
	.cfi_def_cfa_register %rbp
Ltmp67:
	.loc	1 1163 9 prologue_end
	movl	(%rdi), %ecx
	movl	(%rsi), %eax
Ltmp68:
	.loc	3 1053 52
	cmpl	$-1, %ecx
Ltmp69:
	.loc	1 1123 5
	je	LBB10_3
Ltmp70:
	.loc	3 1053 52
	cmpl	$-1, %eax
Ltmp71:
	.loc	1 1129 12
	je	LBB10_2
Ltmp72:
	.loc	3 1152 21
	xorl	%edx, %edx
	.loc	3 1152 24 is_stmt 0
	cmpl	%eax, %ecx
	.loc	3 1152 21
	setne	%dl
	movl	$255, %eax
	cmovael	%edx, %eax
Ltmp73:
	.loc	1 1164 6 is_stmt 1
	popq	%rbp
	retq
Ltmp74:
LBB10_3:
	.loc	3 1053 52
	cmpl	$-1, %eax
	sete	%al
Ltmp75:
	.loc	1 1124 9
	decb	%al
Ltmp76:
	.loc	1 1164 6
	popq	%rbp
	retq
Ltmp77:
LBB10_2:
	.loc	1 0 6 is_stmt 0
	movb	$1, %al
	.loc	1 1164 6
	popq	%rbp
	retq
Ltmp78:
Lfunc_end10:
	.cfi_endproc

	.globl	__ZN40_$LT$u64$u20$as$u20$optional..OptOrd$GT$7opt_cmp17h191080ac23272405E
	.p2align	4, 0x90
__ZN40_$LT$u64$u20$as$u20$optional..OptOrd$GT$7opt_cmp17h191080ac23272405E:
Lfunc_begin11:
	.loc	1 1167 0 is_stmt 1
	.cfi_startproc
	pushq	%rbp
	.cfi_def_cfa_offset 16
	.cfi_offset %rbp, -16
	movq	%rsp, %rbp
	.cfi_def_cfa_register %rbp
Ltmp79:
	.loc	1 1168 9 prologue_end
	movq	(%rdi), %rcx
	movq	(%rsi), %rax
Ltmp80:
	.loc	3 1053 52
	cmpq	$-1, %rcx
Ltmp81:
	.loc	1 1123 5
	je	LBB11_3
Ltmp82:
	.loc	3 1053 52
	cmpq	$-1, %rax
Ltmp83:
	.loc	1 1129 12
	je	LBB11_2
Ltmp84:
	.loc	3 1152 21
	xorl	%edx, %edx
	.loc	3 1152 24 is_stmt 0
	cmpq	%rax, %rcx
	.loc	3 1152 21
	setne	%dl
	movl	$255, %eax
	cmovael	%edx, %eax
Ltmp85:
	.loc	1 1169 6 is_stmt 1
	popq	%rbp
	retq
Ltmp86:
LBB11_3:
	.loc	3 1053 52
	cmpq	$-1, %rax
	sete	%al
Ltmp87:
	.loc	1 1124 9
	decb	%al
Ltmp88:
	.loc	1 1169 6
	popq	%rbp
	retq
Ltmp89:
LBB11_2:
	.loc	1 0 6 is_stmt 0
	movb	$1, %al
	.loc	1 1169 6
	popq	%rbp
	retq
Ltmp90:
Lfunc_end11:
	.cfi_endproc

	.globl	__ZN39_$LT$i8$u20$as$u20$optional..OptOrd$GT$7opt_cmp17hf6bfe4d340b2fffaE
	.p2align	4, 0x90
__ZN39_$LT$i8$u20$as$u20$optional..OptOrd$GT$7opt_cmp17hf6bfe4d340b2fffaE:
Lfunc_begin12:
	.loc	1 1178 0 is_stmt 1
	.cfi_startproc
	pushq	%rbp
	.cfi_def_cfa_offset 16
	.cfi_offset %rbp, -16
	movq	%rsp, %rbp
	.cfi_def_cfa_register %rbp
Ltmp91:
	.loc	1 1179 9 prologue_end
	movb	(%rdi), %al
Ltmp92:
	.loc	3 1152 21
	xorl	%ecx, %ecx
	.loc	3 1152 24 is_stmt 0
	cmpb	(%rsi), %al
	.loc	3 1152 21
	setne	%cl
	movl	$255, %eax
	cmovgel	%ecx, %eax
Ltmp93:
	.loc	1 1180 6 is_stmt 1
	popq	%rbp
	retq
Ltmp94:
Lfunc_end12:
	.cfi_endproc

	.globl	__ZN40_$LT$i16$u20$as$u20$optional..OptOrd$GT$7opt_cmp17he38856f9a42a7294E
	.p2align	4, 0x90
__ZN40_$LT$i16$u20$as$u20$optional..OptOrd$GT$7opt_cmp17he38856f9a42a7294E:
Lfunc_begin13:
	.loc	1 1183 0
	.cfi_startproc
	pushq	%rbp
	.cfi_def_cfa_offset 16
	.cfi_offset %rbp, -16
	movq	%rsp, %rbp
	.cfi_def_cfa_register %rbp
Ltmp95:
	.loc	1 1184 9 prologue_end
	movzwl	(%rdi), %eax
Ltmp96:
	.loc	3 1152 21
	xorl	%ecx, %ecx
	.loc	3 1152 24 is_stmt 0
	cmpw	(%rsi), %ax
	.loc	3 1152 21
	setne	%cl
	movl	$255, %eax
	cmovgel	%ecx, %eax
Ltmp97:
	.loc	1 1185 6 is_stmt 1
	popq	%rbp
	retq
Ltmp98:
Lfunc_end13:
	.cfi_endproc

	.globl	__ZN40_$LT$i32$u20$as$u20$optional..OptOrd$GT$7opt_cmp17he81a5fcccd9a1a73E
	.p2align	4, 0x90
__ZN40_$LT$i32$u20$as$u20$optional..OptOrd$GT$7opt_cmp17he81a5fcccd9a1a73E:
Lfunc_begin14:
	.loc	1 1188 0
	.cfi_startproc
	pushq	%rbp
	.cfi_def_cfa_offset 16
	.cfi_offset %rbp, -16
	movq	%rsp, %rbp
	.cfi_def_cfa_register %rbp
Ltmp99:
	.loc	1 1189 9 prologue_end
	movl	(%rdi), %eax
Ltmp100:
	.loc	3 1152 21
	xorl	%ecx, %ecx
	.loc	3 1152 24 is_stmt 0
	cmpl	(%rsi), %eax
	.loc	3 1152 21
	setne	%cl
	movl	$255, %eax
	cmovgel	%ecx, %eax
Ltmp101:
	.loc	1 1190 6 is_stmt 1
	popq	%rbp
	retq
Ltmp102:
Lfunc_end14:
	.cfi_endproc

	.globl	__ZN40_$LT$i64$u20$as$u20$optional..OptOrd$GT$7opt_cmp17ha4c68a22c92616beE
	.p2align	4, 0x90
__ZN40_$LT$i64$u20$as$u20$optional..OptOrd$GT$7opt_cmp17ha4c68a22c92616beE:
Lfunc_begin15:
	.loc	1 1193 0
	.cfi_startproc
	pushq	%rbp
	.cfi_def_cfa_offset 16
	.cfi_offset %rbp, -16
	movq	%rsp, %rbp
	.cfi_def_cfa_register %rbp
Ltmp103:
	.loc	1 1194 9 prologue_end
	movq	(%rdi), %rax
Ltmp104:
	.loc	3 1152 21
	xorl	%ecx, %ecx
	.loc	3 1152 24 is_stmt 0
	cmpq	(%rsi), %rax
	.loc	3 1152 21
	setne	%cl
	movl	$255, %eax
	cmovgel	%ecx, %eax
Ltmp105:
	.loc	1 1195 6 is_stmt 1
	popq	%rbp
	retq
Ltmp106:
Lfunc_end15:
	.cfi_endproc

	.globl	__ZN40_$LT$f32$u20$as$u20$optional..OptOrd$GT$7opt_cmp17hddd81805f841d0d8E
	.p2align	4, 0x90
__ZN40_$LT$f32$u20$as$u20$optional..OptOrd$GT$7opt_cmp17hddd81805f841d0d8E:
Lfunc_begin16:
	.loc	1 1204 0
	.cfi_startproc
	pushq	%rbp
	.cfi_def_cfa_offset 16
	.cfi_offset %rbp, -16
	movq	%rsp, %rbp
	.cfi_def_cfa_register %rbp
Ltmp107:
	.loc	1 1205 9 prologue_end
	movss	(%rdi), %xmm1
Ltmp108:
	movss	(%rsi), %xmm0
Ltmp109:
	.loc	4 386 9
	ucomiss	%xmm1, %xmm1
Ltmp110:
	.loc	1 1138 5
	jp	LBB16_5
Ltmp111:
	.loc	4 386 9
	ucomiss	%xmm0, %xmm0
Ltmp112:
	.loc	1 1144 12
	jp	LBB16_2
Ltmp113:
	.loc	3 1103 52
	ucomiss	%xmm0, %xmm1
	setae	%al
	movb	$2, %cl
Ltmp114:
	.loc	3 1092 26
	subb	%al, %cl
	decb	%al
Ltmp115:
	.loc	3 1101 52
	ucomiss	%xmm1, %xmm0
Ltmp116:
	.loc	3 1092 26
	movzbl	%al, %edx
	movzbl	%cl, %eax
	cmovael	%edx, %eax
Ltmp117:
	.file	6 "/rustc/a74d1862d4d87a56244958416fd05976c58ca1a8/src/libcore/option.rs"
	.loc	6 387 13
	cmpb	$2, %al
	je	LBB16_4
Ltmp118:
	.loc	1 1206 6
	popq	%rbp
	retq
Ltmp119:
LBB16_5:
	.loc	4 386 9
	ucomiss	%xmm0, %xmm0
	setp	%al
Ltmp120:
	.loc	1 1139 9
	decb	%al
Ltmp121:
	.loc	1 1206 6
	popq	%rbp
	retq
Ltmp122:
LBB16_2:
	.loc	1 0 6 is_stmt 0
	movb	$1, %al
	.loc	1 1206 6
	popq	%rbp
	retq
Ltmp123:
LBB16_4:
	.file	7 "/rustc/a74d1862d4d87a56244958416fd05976c58ca1a8/src/libcore/macros/mod.rs"
	.loc	7 10 9 is_stmt 1
	leaq	l___unnamed_5(%rip), %rdi
Ltmp124:
	leaq	l___unnamed_6(%rip), %rdx
	movl	$43, %esi
Ltmp125:
	callq	__ZN4core9panicking5panic17h736ee47a631475c0E
Ltmp126:
Lfunc_end16:
	.cfi_endproc

	.globl	__ZN40_$LT$f64$u20$as$u20$optional..OptOrd$GT$7opt_cmp17ha988b0ba48d89e61E
	.p2align	4, 0x90
__ZN40_$LT$f64$u20$as$u20$optional..OptOrd$GT$7opt_cmp17ha988b0ba48d89e61E:
Lfunc_begin17:
	.loc	1 1209 0
	.cfi_startproc
	pushq	%rbp
	.cfi_def_cfa_offset 16
	.cfi_offset %rbp, -16
	movq	%rsp, %rbp
	.cfi_def_cfa_register %rbp
Ltmp127:
	.loc	1 1210 9 prologue_end
	movsd	(%rdi), %xmm1
Ltmp128:
	movsd	(%rsi), %xmm0
Ltmp129:
	.loc	5 385 9
	ucomisd	%xmm1, %xmm1
Ltmp130:
	.loc	1 1138 5
	jp	LBB17_5
Ltmp131:
	.loc	5 385 9
	ucomisd	%xmm0, %xmm0
Ltmp132:
	.loc	1 1144 12
	jp	LBB17_2
Ltmp133:
	.loc	3 1103 52
	ucomisd	%xmm0, %xmm1
	setae	%al
	movb	$2, %cl
Ltmp134:
	.loc	3 1092 26
	subb	%al, %cl
	decb	%al
Ltmp135:
	.loc	3 1101 52
	ucomisd	%xmm1, %xmm0
Ltmp136:
	.loc	3 1092 26
	movzbl	%al, %edx
	movzbl	%cl, %eax
	cmovael	%edx, %eax
Ltmp137:
	.loc	6 387 13
	cmpb	$2, %al
	je	LBB17_4
Ltmp138:
	.loc	1 1211 6
	popq	%rbp
	retq
Ltmp139:
LBB17_5:
	.loc	5 385 9
	ucomisd	%xmm0, %xmm0
	setp	%al
Ltmp140:
	.loc	1 1139 9
	decb	%al
Ltmp141:
	.loc	1 1211 6
	popq	%rbp
	retq
Ltmp142:
LBB17_2:
	.loc	1 0 6 is_stmt 0
	movb	$1, %al
	.loc	1 1211 6
	popq	%rbp
	retq
Ltmp143:
LBB17_4:
	.loc	7 10 9 is_stmt 1
	leaq	l___unnamed_5(%rip), %rdi
Ltmp144:
	leaq	l___unnamed_6(%rip), %rdx
	movl	$43, %esi
Ltmp145:
	callq	__ZN4core9panicking5panic17h736ee47a631475c0E
Ltmp146:
Lfunc_end17:
	.cfi_endproc

	.globl	__ZN41_$LT$char$u20$as$u20$optional..OptOrd$GT$7opt_cmp17hfbd78f949ceda482E
	.p2align	4, 0x90
__ZN41_$LT$char$u20$as$u20$optional..OptOrd$GT$7opt_cmp17hfbd78f949ceda482E:
Lfunc_begin18:
	.loc	1 1215 0
	.cfi_startproc
	pushq	%rbp
	.cfi_def_cfa_offset 16
	.cfi_offset %rbp, -16
	movq	%rsp, %rbp
	.cfi_def_cfa_register %rbp
Ltmp147:
	.loc	1 1216 9 prologue_end
	movl	(%rdi), %ecx
	movl	(%rsi), %eax
Ltmp148:
	.loc	1 1024 33
	testl	%ecx, %ecx
Ltmp149:
	.loc	1 1123 5
	je	LBB18_3
Ltmp150:
	.loc	1 1024 33
	testl	%eax, %eax
Ltmp151:
	.loc	1 1129 12
	je	LBB18_2
Ltmp152:
	.loc	3 1152 21
	xorl	%edx, %edx
	.loc	3 1152 24 is_stmt 0
	cmpl	%eax, %ecx
	.loc	3 1152 21
	setne	%dl
	movl	$255, %eax
	cmovael	%edx, %eax
Ltmp153:
	.loc	1 1217 6 is_stmt 1
	popq	%rbp
	retq
Ltmp154:
LBB18_3:
	.loc	1 1124 9
	negl	%eax
	sbbb	%al, %al
Ltmp155:
	.loc	1 1217 6
	popq	%rbp
	retq
Ltmp156:
LBB18_2:
	.loc	1 0 6 is_stmt 0
	movb	$1, %al
	.loc	1 1217 6
	popq	%rbp
	retq
Ltmp157:
Lfunc_end18:
	.cfi_endproc

	.section	__TEXT,__const
l___unnamed_5:
	.ascii	"called `Option::unwrap()` on a `None` value"

__ZN8optional13OB_TRUE_SLICE17h90a7f07577074854E:
	.byte	1

__ZN8optional14OB_FALSE_SLICE17h4eb1f8d3e5ba3cb5E:
	.space	1

	.section	__DATA,__const
	.globl	__ZN8optional17OB_TRUE_SLICE_REF17h88193fe7d13052d3E
	.p2align	3
__ZN8optional17OB_TRUE_SLICE_REF17h88193fe7d13052d3E:
	.quad	__ZN8optional13OB_TRUE_SLICE17h90a7f07577074854E
	.asciz	"\001\000\000\000\000\000\000"

	.globl	__ZN8optional18OB_FALSE_SLICE_REF17he7e97d60b8373363E
	.p2align	3
__ZN8optional18OB_FALSE_SLICE_REF17he7e97d60b8373363E:
	.quad	__ZN8optional14OB_FALSE_SLICE17h4eb1f8d3e5ba3cb5E
	.asciz	"\001\000\000\000\000\000\000"

	.globl	__ZN8optional18OB_EMPTY_SLICE_REF17hdac78b87b3770806E
	.p2align	3
__ZN8optional18OB_EMPTY_SLICE_REF17hdac78b87b3770806E:
	.quad	l___unnamed_1
	.space	8

	.section	__TEXT,__const
l___unnamed_1:
	.byte	0

	.section	__TEXT,__literal4,4byte_literals
L___unnamed_2:
	.ascii	"None"

	.section	__TEXT,__const
l___unnamed_4:
	.ascii	"Some(false)"

l___unnamed_3:
	.ascii	"Some(true)"

l___unnamed_7:
	.ascii	"/Users/yingyuhang/.cargo/registry/src/github.com-1ecc6299db9ec823/optional-0.5.0/src/lib.rs"

	.section	__DATA,__const
	.p2align	3
l___unnamed_6:
	.quad	l___unnamed_7
	.asciz	"[\000\000\000\000\000\000\000{\004\000\000\t\000\000"

	.section	__TEXT,__const
Lsec_end0:
	.section	__DATA,__const
Lsec_end1:
	.section	__TEXT,__text,regular,pure_instructions
Lsec_end2: