	.section	__TEXT,__text,regular,pure_instructions
	.macosx_version_min 10, 7
	.p2align	4, 0x90
__ZN44_$LT$$RF$T$u20$as$u20$core..fmt..Display$GT$3fmt17h189ab73c0bfea6d1E:
Lfunc_begin0:
	.file	1 "/rustc/6c8927b0cf80ceee19386026cf9d7fd4fd9d486f/src/libcore/fmt/mod.rs"
	.loc	1 2022 0
	.cfi_startproc
	pushq	%rbp
	.cfi_def_cfa_offset 16
	.cfi_offset %rbp, -16
	movq	%rsp, %rbp
	.cfi_def_cfa_register %rbp
	movq	%rsi, %rdx
Ltmp0:
	.loc	1 2022 71 prologue_end
	movq	(%rdi), %rax
	movq	8(%rdi), %rsi
	.loc	1 2022 62 is_stmt 0
	movq	%rax, %rdi
Ltmp1:
	popq	%rbp
	jmp	__ZN42_$LT$str$u20$as$u20$core..fmt..Display$GT$3fmt17h6768afae62e94f93E
Ltmp2:
Lfunc_end0:
	.cfi_endproc

	.globl	__ZN68_$LT$packed_simd..masks..m8$u20$as$u20$packed_simd..sealed..Mask$GT$4test17hfbbe7bed5e1b84c5E
	.p2align	4, 0x90
__ZN68_$LT$packed_simd..masks..m8$u20$as$u20$packed_simd..sealed..Mask$GT$4test17hfbbe7bed5e1b84c5E:
Lfunc_begin1:
	.file	2 "/Users/yingyuhang/.cargo/registry/src/github.com-1ecc6299db9ec823/packed_simd-0.3.3/src/masks.rs"
	.loc	2 10 0 is_stmt 1
	.cfi_startproc
	pushq	%rbp
	.cfi_def_cfa_offset 16
	.cfi_offset %rbp, -16
	movq	%rsp, %rbp
	.cfi_def_cfa_register %rbp
Ltmp3:
	.loc	2 28 17 prologue_end
	cmpb	$0, (%rdi)
	setne	%al
Ltmp4:
	.loc	2 12 14
	popq	%rbp
	retq
Ltmp5:
Lfunc_end1:
	.cfi_endproc

	.globl	__ZN69_$LT$packed_simd..masks..m16$u20$as$u20$packed_simd..sealed..Mask$GT$4test17h62121048ed8b6b2cE
	.p2align	4, 0x90
__ZN69_$LT$packed_simd..masks..m16$u20$as$u20$packed_simd..sealed..Mask$GT$4test17h62121048ed8b6b2cE:
Lfunc_begin2:
	.loc	2 10 0
	.cfi_startproc
	pushq	%rbp
	.cfi_def_cfa_offset 16
	.cfi_offset %rbp, -16
	movq	%rsp, %rbp
	.cfi_def_cfa_register %rbp
Ltmp6:
	.loc	2 28 17 prologue_end
	cmpw	$0, (%rdi)
	setne	%al
Ltmp7:
	.loc	2 12 14
	popq	%rbp
	retq
Ltmp8:
Lfunc_end2:
	.cfi_endproc

	.globl	__ZN69_$LT$packed_simd..masks..m32$u20$as$u20$packed_simd..sealed..Mask$GT$4test17h34b1d072abe06d6fE
	.p2align	4, 0x90
__ZN69_$LT$packed_simd..masks..m32$u20$as$u20$packed_simd..sealed..Mask$GT$4test17h34b1d072abe06d6fE:
Lfunc_begin3:
	.loc	2 10 0
	.cfi_startproc
	pushq	%rbp
	.cfi_def_cfa_offset 16
	.cfi_offset %rbp, -16
	movq	%rsp, %rbp
	.cfi_def_cfa_register %rbp
Ltmp9:
	.loc	2 28 17 prologue_end
	cmpl	$0, (%rdi)
	setne	%al
Ltmp10:
	.loc	2 12 14
	popq	%rbp
	retq
Ltmp11:
Lfunc_end3:
	.cfi_endproc

	.globl	__ZN69_$LT$packed_simd..masks..m64$u20$as$u20$packed_simd..sealed..Mask$GT$4test17hbf88fd13d796810fE
	.p2align	4, 0x90
__ZN69_$LT$packed_simd..masks..m64$u20$as$u20$packed_simd..sealed..Mask$GT$4test17hbf88fd13d796810fE:
Lfunc_begin4:
	.loc	2 10 0
	.cfi_startproc
	pushq	%rbp
	.cfi_def_cfa_offset 16
	.cfi_offset %rbp, -16
	movq	%rsp, %rbp
	.cfi_def_cfa_register %rbp
Ltmp12:
	.loc	2 28 17 prologue_end
	cmpq	$0, (%rdi)
	setne	%al
Ltmp13:
	.loc	2 12 14
	popq	%rbp
	retq
Ltmp14:
Lfunc_end4:
	.cfi_endproc

	.globl	__ZN70_$LT$packed_simd..masks..m128$u20$as$u20$packed_simd..sealed..Mask$GT$4test17h3b0f485d082996caE
	.p2align	4, 0x90
__ZN70_$LT$packed_simd..masks..m128$u20$as$u20$packed_simd..sealed..Mask$GT$4test17h3b0f485d082996caE:
Lfunc_begin5:
	.loc	2 10 0
	.cfi_startproc
	pushq	%rbp
	.cfi_def_cfa_offset 16
	.cfi_offset %rbp, -16
	movq	%rsp, %rbp
	.cfi_def_cfa_register %rbp
Ltmp15:
	.loc	2 11 17 prologue_end
	movq	(%rdi), %rax
Ltmp16:
	.loc	2 28 17
	orq	8(%rdi), %rax
	setne	%al
Ltmp17:
	.loc	2 12 14
	popq	%rbp
	retq
Ltmp18:
Lfunc_end5:
	.cfi_endproc

	.globl	__ZN11packed_simd3v1695_$LT$impl$u20$core..fmt..Debug$u20$for$u20$packed_simd..Simd$LT$$u5b$i8$u3b$$u20$2$u5d$$GT$$GT$3fmt17h41473d5b0986c289E
	.p2align	4, 0x90
__ZN11packed_simd3v1695_$LT$impl$u20$core..fmt..Debug$u20$for$u20$packed_simd..Simd$LT$$u5b$i8$u3b$$u20$2$u5d$$GT$$GT$3fmt17h41473d5b0986c289E:
Lfunc_begin6:
	.file	3 "/Users/yingyuhang/.cargo/registry/src/github.com-1ecc6299db9ec823/packed_simd-0.3.3/src/api/fmt/debug.rs"
	.loc	3 49 0
	.cfi_startproc
	pushq	%rbp
	.cfi_def_cfa_offset 16
	.cfi_offset %rbp, -16
	movq	%rsp, %rbp
	.cfi_def_cfa_register %rbp
	pushq	%r15
	pushq	%r14
	pushq	%rbx
	subq	$104, %rsp
	.cfi_offset %rbx, -40
	.cfi_offset %r14, -32
	.cfi_offset %r15, -24
	movq	%rsi, %r15
	movq	%rdi, %rbx
Ltmp19:
	.loc	3 52 17 prologue_end
	leaq	l___unnamed_1(%rip), %rax
	movq	%rax, -88(%rbp)
	leaq	__ZN44_$LT$$RF$T$u20$as$u20$core..fmt..Display$GT$3fmt17h189ab73c0bfea6d1E(%rip), %rax
	movq	%rax, -80(%rbp)
Ltmp20:
	.loc	1 328 9
	leaq	l___unnamed_2(%rip), %rax
Ltmp21:
	movq	%rax, -72(%rbp)
	movq	$2, -64(%rbp)
	movq	$0, -56(%rbp)
	leaq	-88(%rbp), %rax
Ltmp22:
	movq	%rax, -40(%rbp)
	movq	$1, -32(%rbp)
	leaq	-72(%rbp), %rsi
Ltmp23:
	.loc	3 52 17
	movq	%r15, %rdi
	callq	__ZN4core3fmt9Formatter9write_fmt17h742ca6aae87ad23cE
	movb	$1, %r14b
	.loc	3 52 50 is_stmt 0
	testb	%al, %al
	jne	LBB6_12
Ltmp24:
	.loc	3 0 0
	movzwl	(%rbx), %eax
	movd	%eax, %xmm0
	movdqa	%xmm0, -112(%rbp)
	movdqa	%xmm0, -128(%rbp)
	movb	-128(%rbp), %al
Ltmp25:
	.loc	3 57 21 is_stmt 1
	movb	%al, -72(%rbp)
Ltmp26:
	.file	4 "/rustc/6c8927b0cf80ceee19386026cf9d7fd4fd9d486f/src/libcore/fmt/num.rs"
	.loc	4 149 20
	movq	%r15, %rdi
	callq	__ZN4core3fmt9Formatter15debug_lower_hex17hd07f6fde8d0365dfE
	.loc	4 149 17 is_stmt 0
	testb	%al, %al
	je	LBB6_2
Ltmp27:
	.loc	4 0 17
	leaq	-72(%rbp), %rdi
	.loc	4 150 21 is_stmt 1
	movq	%r15, %rsi
	callq	__ZN4core3fmt3num52_$LT$impl$u20$core..fmt..LowerHex$u20$for$u20$i8$GT$3fmt17h5ba2f2472d1b08b3E
Ltmp28:
	.loc	3 57 43
	testb	%al, %al
	je	LBB6_6
	jmp	LBB6_12
Ltmp29:
LBB6_2:
	.loc	4 151 27
	movq	%r15, %rdi
	callq	__ZN4core3fmt9Formatter15debug_upper_hex17hf480c256a9c81c1eE
	leaq	-72(%rbp), %rdi
	.loc	4 154 21
	movq	%r15, %rsi
	.loc	4 151 24
	testb	%al, %al
	je	LBB6_4
Ltmp30:
	.loc	4 152 21
	callq	__ZN4core3fmt3num52_$LT$impl$u20$core..fmt..UpperHex$u20$for$u20$i8$GT$3fmt17h36a1c2413d99c98eE
Ltmp31:
	.loc	3 57 43
	testb	%al, %al
	je	LBB6_6
	jmp	LBB6_12
Ltmp32:
LBB6_4:
	.loc	4 154 21
	callq	__ZN4core3fmt3num3imp51_$LT$impl$u20$core..fmt..Display$u20$for$u20$i8$GT$3fmt17hc9fc67837369c997E
Ltmp33:
	.loc	3 57 43
	testb	%al, %al
	jne	LBB6_12
Ltmp34:
LBB6_6:
	.loc	1 328 9
	leaq	l___unnamed_3(%rip), %rax
Ltmp35:
	movq	%rax, -72(%rbp)
	movq	$1, -64(%rbp)
	movq	$0, -56(%rbp)
	leaq	l___unnamed_4(%rip), %rbx
Ltmp36:
	movq	%rbx, -40(%rbp)
	movq	$0, -32(%rbp)
	leaq	-72(%rbp), %rsi
Ltmp37:
	.loc	3 55 25
	movq	%r15, %rdi
	callq	__ZN4core3fmt9Formatter9write_fmt17h742ca6aae87ad23cE
Ltmp38:
	.loc	3 55 40 is_stmt 0
	testb	%al, %al
	jne	LBB6_12
Ltmp39:
	.loc	3 0 40
	movdqa	-112(%rbp), %xmm0
Ltmp40:
	.file	5 "/Users/yingyuhang/.cargo/registry/src/github.com-1ecc6299db9ec823/packed_simd-0.3.3/src/api/minimal/iuf.rs"
	.loc	5 63 36 is_stmt 1
	movd	%xmm0, %eax
Ltmp41:
	.loc	3 57 21
	movb	%ah, -72(%rbp)
Ltmp42:
	.loc	4 149 20
	movq	%r15, %rdi
	callq	__ZN4core3fmt9Formatter15debug_lower_hex17hd07f6fde8d0365dfE
	.loc	4 149 17 is_stmt 0
	testb	%al, %al
	je	LBB6_8
Ltmp43:
	.loc	4 0 17
	leaq	-72(%rbp), %rdi
	.loc	4 150 21 is_stmt 1
	movq	%r15, %rsi
	callq	__ZN4core3fmt3num52_$LT$impl$u20$core..fmt..LowerHex$u20$for$u20$i8$GT$3fmt17h5ba2f2472d1b08b3E
	jmp	LBB6_10
Ltmp44:
LBB6_8:
	.loc	4 151 27
	movq	%r15, %rdi
	callq	__ZN4core3fmt9Formatter15debug_upper_hex17hf480c256a9c81c1eE
	leaq	-72(%rbp), %rdi
	.loc	4 152 21
	movq	%r15, %rsi
	.loc	4 151 24
	testb	%al, %al
	je	LBB6_9
Ltmp45:
	.loc	4 152 21
	callq	__ZN4core3fmt3num52_$LT$impl$u20$core..fmt..UpperHex$u20$for$u20$i8$GT$3fmt17h36a1c2413d99c98eE
	jmp	LBB6_10
Ltmp46:
LBB6_9:
	.loc	4 154 21
	callq	__ZN4core3fmt3num3imp51_$LT$impl$u20$core..fmt..Display$u20$for$u20$i8$GT$3fmt17hc9fc67837369c997E
Ltmp47:
LBB6_10:
	.loc	3 57 43
	testb	%al, %al
	jne	LBB6_12
Ltmp48:
	.loc	1 328 9
	leaq	l___unnamed_5(%rip), %rax
Ltmp49:
	movq	%rax, -72(%rbp)
	movq	$1, -64(%rbp)
	movq	$0, -56(%rbp)
Ltmp50:
	movq	%rbx, -40(%rbp)
	movq	$0, -32(%rbp)
	leaq	-72(%rbp), %rsi
Ltmp51:
	.loc	3 59 17
	movq	%r15, %rdi
	callq	__ZN4core3fmt9Formatter9write_fmt17h742ca6aae87ad23cE
Ltmp52:
	movl	%eax, %r14d
Ltmp53:
LBB6_12:
	.loc	3 60 14
	movl	%r14d, %eax
	addq	$104, %rsp
	popq	%rbx
	popq	%r14
	popq	%r15
Ltmp54:
	popq	%rbp
	retq
Ltmp55:
Lfunc_end6:
	.cfi_endproc

	.globl	__ZN11packed_simd3v1698_$LT$impl$u20$core..fmt..LowerHex$u20$for$u20$packed_simd..Simd$LT$$u5b$i8$u3b$$u20$2$u5d$$GT$$GT$3fmt17h0a95dfbc247a0eaeE
	.p2align	4, 0x90
__ZN11packed_simd3v1698_$LT$impl$u20$core..fmt..LowerHex$u20$for$u20$packed_simd..Simd$LT$$u5b$i8$u3b$$u20$2$u5d$$GT$$GT$3fmt17h0a95dfbc247a0eaeE:
Lfunc_begin7:
	.file	6 "/Users/yingyuhang/.cargo/registry/src/github.com-1ecc6299db9ec823/packed_simd-0.3.3/src/api/fmt/lower_hex.rs"
	.loc	6 9 0
	.cfi_startproc
	pushq	%rbp
	.cfi_def_cfa_offset 16
	.cfi_offset %rbp, -16
	movq	%rsp, %rbp
	.cfi_def_cfa_register %rbp
	pushq	%r15
	pushq	%r14
	pushq	%r13
	pushq	%r12
	pushq	%rbx
	subq	$104, %rsp
	.cfi_offset %rbx, -56
	.cfi_offset %r12, -48
	.cfi_offset %r13, -40
	.cfi_offset %r14, -32
	.cfi_offset %r15, -24
	movq	%rsi, %rbx
	movq	%rdi, %r15
Ltmp56:
	.loc	6 11 17 prologue_end
	leaq	l___unnamed_1(%rip), %rax
	movq	%rax, -104(%rbp)
	leaq	__ZN44_$LT$$RF$T$u20$as$u20$core..fmt..Display$GT$3fmt17h189ab73c0bfea6d1E(%rip), %rax
	movq	%rax, -96(%rbp)
Ltmp57:
	.loc	1 328 9
	leaq	l___unnamed_2(%rip), %rax
Ltmp58:
	movq	%rax, -88(%rbp)
	movq	$2, -80(%rbp)
	movq	$0, -72(%rbp)
	leaq	-104(%rbp), %rax
Ltmp59:
	movq	%rax, -56(%rbp)
	movq	$1, -48(%rbp)
	leaq	-88(%rbp), %rsi
Ltmp60:
	.loc	6 11 17
	movq	%rbx, %rdi
	callq	__ZN4core3fmt9Formatter9write_fmt17h742ca6aae87ad23cE
	movb	$1, %cl
	.loc	6 11 50 is_stmt 0
	testb	%al, %al
	jne	LBB7_9
Ltmp61:
	.loc	6 0 0
	movzwl	(%r15), %eax
	movd	%eax, %xmm0
	movdqa	%xmm0, -128(%rbp)
	xorl	%r14d, %r14d
	leaq	-88(%rbp), %r15
Ltmp62:
	leaq	l___unnamed_3(%rip), %r13
	jmp	LBB7_3
Ltmp63:
	.p2align	4, 0x90
LBB7_2:
	movdqa	-128(%rbp), %xmm0
Ltmp64:
	.loc	5 63 36 is_stmt 1
	movdqa	%xmm0, -144(%rbp)
Ltmp65:
	.loc	6 0 0 is_stmt 0
	leaq	1(%r14), %r12
Ltmp66:
	.loc	5 63 36
	andl	$15, %r14d
Ltmp67:
	movzbl	-144(%rbp,%r14), %eax
Ltmp68:
	.loc	6 16 21 is_stmt 1
	movb	%al, -88(%rbp)
	movq	%r15, %rdi
	movq	%rbx, %rsi
	callq	__ZN4core3fmt3num52_$LT$impl$u20$core..fmt..LowerHex$u20$for$u20$i8$GT$3fmt17h5ba2f2472d1b08b3E
Ltmp69:
	.loc	6 0 0 is_stmt 0
	movq	%r12, %r14
Ltmp70:
	.loc	6 16 43
	testb	%al, %al
	jne	LBB7_8
Ltmp71:
LBB7_3:
	.file	7 "/rustc/6c8927b0cf80ceee19386026cf9d7fd4fd9d486f/src/libcore/cmp.rs"
	.loc	7 1136 52 is_stmt 1
	cmpq	$2, %r14
Ltmp72:
	.file	8 "/rustc/6c8927b0cf80ceee19386026cf9d7fd4fd9d486f/src/libcore/iter/range.rs"
	.loc	8 505 9
	je	LBB7_7
Ltmp73:
	.loc	6 13 24
	testq	%r14, %r14
	.loc	6 13 21 is_stmt 0
	je	LBB7_2
Ltmp74:
	.loc	1 328 9 is_stmt 1
	movq	%r13, -88(%rbp)
	movq	$1, -80(%rbp)
	movq	$0, -72(%rbp)
Ltmp75:
	leaq	l___unnamed_4(%rip), %rax
Ltmp76:
	movq	%rax, -56(%rbp)
Ltmp77:
	movq	$0, -48(%rbp)
Ltmp78:
	.loc	6 14 25
	movq	%rbx, %rdi
	movq	%r15, %rsi
	callq	__ZN4core3fmt9Formatter9write_fmt17h742ca6aae87ad23cE
	.loc	6 14 40 is_stmt 0
	testb	%al, %al
	je	LBB7_2
Ltmp79:
LBB7_8:
	.loc	6 0 40
	movb	$1, %cl
	jmp	LBB7_9
Ltmp80:
LBB7_7:
	.loc	1 328 9 is_stmt 1
	leaq	l___unnamed_5(%rip), %rax
Ltmp81:
	movq	%rax, -88(%rbp)
	movq	$1, -80(%rbp)
	movq	$0, -72(%rbp)
Ltmp82:
	leaq	l___unnamed_4(%rip), %rax
Ltmp83:
	movq	%rax, -56(%rbp)
	movq	$0, -48(%rbp)
	leaq	-88(%rbp), %rsi
Ltmp84:
	.loc	6 18 17
	movq	%rbx, %rdi
	callq	__ZN4core3fmt9Formatter9write_fmt17h742ca6aae87ad23cE
Ltmp85:
	movl	%eax, %ecx
Ltmp86:
LBB7_9:
	.loc	6 19 14
	movl	%ecx, %eax
	addq	$104, %rsp
	popq	%rbx
Ltmp87:
	popq	%r12
	popq	%r13
	popq	%r14
	popq	%r15
	popq	%rbp
	retq
Ltmp88:
Lfunc_end7:
	.cfi_endproc

	.globl	__ZN11packed_simd3v1698_$LT$impl$u20$core..fmt..UpperHex$u20$for$u20$packed_simd..Simd$LT$$u5b$i8$u3b$$u20$2$u5d$$GT$$GT$3fmt17h5fceca3b1d1f6a9dE
	.p2align	4, 0x90
__ZN11packed_simd3v1698_$LT$impl$u20$core..fmt..UpperHex$u20$for$u20$packed_simd..Simd$LT$$u5b$i8$u3b$$u20$2$u5d$$GT$$GT$3fmt17h5fceca3b1d1f6a9dE:
Lfunc_begin8:
	.file	9 "/Users/yingyuhang/.cargo/registry/src/github.com-1ecc6299db9ec823/packed_simd-0.3.3/src/api/fmt/upper_hex.rs"
	.loc	9 9 0
	.cfi_startproc
	pushq	%rbp
	.cfi_def_cfa_offset 16
	.cfi_offset %rbp, -16
	movq	%rsp, %rbp
	.cfi_def_cfa_register %rbp
	pushq	%r15
	pushq	%r14
	pushq	%r13
	pushq	%r12
	pushq	%rbx
	subq	$104, %rsp
	.cfi_offset %rbx, -56
	.cfi_offset %r12, -48
	.cfi_offset %r13, -40
	.cfi_offset %r14, -32
	.cfi_offset %r15, -24
	movq	%rsi, %rbx
	movq	%rdi, %r15
Ltmp89:
	.loc	9 11 17 prologue_end
	leaq	l___unnamed_1(%rip), %rax
	movq	%rax, -104(%rbp)
	leaq	__ZN44_$LT$$RF$T$u20$as$u20$core..fmt..Display$GT$3fmt17h189ab73c0bfea6d1E(%rip), %rax
	movq	%rax, -96(%rbp)
Ltmp90:
	.loc	1 328 9
	leaq	l___unnamed_2(%rip), %rax
Ltmp91:
	movq	%rax, -88(%rbp)
	movq	$2, -80(%rbp)
	movq	$0, -72(%rbp)
	leaq	-104(%rbp), %rax
Ltmp92:
	movq	%rax, -56(%rbp)
	movq	$1, -48(%rbp)
	leaq	-88(%rbp), %rsi
Ltmp93:
	.loc	9 11 17
	movq	%rbx, %rdi
	callq	__ZN4core3fmt9Formatter9write_fmt17h742ca6aae87ad23cE
	movb	$1, %cl
	.loc	9 11 50 is_stmt 0
	testb	%al, %al
	jne	LBB8_9
Ltmp94:
	.loc	9 0 0
	movzwl	(%r15), %eax
	movd	%eax, %xmm0
	movdqa	%xmm0, -128(%rbp)
	xorl	%r14d, %r14d
	leaq	-88(%rbp), %r15
Ltmp95:
	leaq	l___unnamed_3(%rip), %r13
	jmp	LBB8_3
Ltmp96:
	.p2align	4, 0x90
LBB8_2:
	movdqa	-128(%rbp), %xmm0
Ltmp97:
	.loc	5 63 36 is_stmt 1
	movdqa	%xmm0, -144(%rbp)
Ltmp98:
	.loc	9 0 0 is_stmt 0
	leaq	1(%r14), %r12
Ltmp99:
	.loc	5 63 36
	andl	$15, %r14d
Ltmp100:
	movzbl	-144(%rbp,%r14), %eax
Ltmp101:
	.loc	9 16 21 is_stmt 1
	movb	%al, -88(%rbp)
	movq	%r15, %rdi
	movq	%rbx, %rsi
	callq	__ZN4core3fmt3num52_$LT$impl$u20$core..fmt..UpperHex$u20$for$u20$i8$GT$3fmt17h36a1c2413d99c98eE
Ltmp102:
	.loc	9 0 0 is_stmt 0
	movq	%r12, %r14
Ltmp103:
	.loc	9 16 43
	testb	%al, %al
	jne	LBB8_8
Ltmp104:
LBB8_3:
	.loc	7 1136 52 is_stmt 1
	cmpq	$2, %r14
Ltmp105:
	.loc	8 505 9
	je	LBB8_7
Ltmp106:
	.loc	9 13 24
	testq	%r14, %r14
	.loc	9 13 21 is_stmt 0
	je	LBB8_2
Ltmp107:
	.loc	1 328 9 is_stmt 1
	movq	%r13, -88(%rbp)
	movq	$1, -80(%rbp)
	movq	$0, -72(%rbp)
Ltmp108:
	leaq	l___unnamed_4(%rip), %rax
Ltmp109:
	movq	%rax, -56(%rbp)
Ltmp110:
	movq	$0, -48(%rbp)
Ltmp111:
	.loc	9 14 25
	movq	%rbx, %rdi
	movq	%r15, %rsi
	callq	__ZN4core3fmt9Formatter9write_fmt17h742ca6aae87ad23cE
	.loc	9 14 40 is_stmt 0
	testb	%al, %al
	je	LBB8_2
Ltmp112:
LBB8_8:
	.loc	9 0 40
	movb	$1, %cl
	jmp	LBB8_9
Ltmp113:
LBB8_7:
	.loc	1 328 9 is_stmt 1
	leaq	l___unnamed_5(%rip), %rax
Ltmp114:
	movq	%rax, -88(%rbp)
	movq	$1, -80(%rbp)
	movq	$0, -72(%rbp)
Ltmp115:
	leaq	l___unnamed_4(%rip), %rax
Ltmp116:
	movq	%rax, -56(%rbp)
	movq	$0, -48(%rbp)
	leaq	-88(%rbp), %rsi
Ltmp117:
	.loc	9 18 17
	movq	%rbx, %rdi
	callq	__ZN4core3fmt9Formatter9write_fmt17h742ca6aae87ad23cE
Ltmp118:
	movl	%eax, %ecx
Ltmp119:
LBB8_9:
	.loc	9 19 14
	movl	%ecx, %eax
	addq	$104, %rsp
	popq	%rbx
Ltmp120:
	popq	%r12
	popq	%r13
	popq	%r14
	popq	%r15
	popq	%rbp
	retq
Ltmp121:
Lfunc_end8:
	.cfi_endproc

	.globl	__ZN11packed_simd3v1695_$LT$impl$u20$core..fmt..Octal$u20$for$u20$packed_simd..Simd$LT$$u5b$i8$u3b$$u20$2$u5d$$GT$$GT$3fmt17h586ddafedb4e26acE
	.p2align	4, 0x90
__ZN11packed_simd3v1695_$LT$impl$u20$core..fmt..Octal$u20$for$u20$packed_simd..Simd$LT$$u5b$i8$u3b$$u20$2$u5d$$GT$$GT$3fmt17h586ddafedb4e26acE:
Lfunc_begin9:
	.file	10 "/Users/yingyuhang/.cargo/registry/src/github.com-1ecc6299db9ec823/packed_simd-0.3.3/src/api/fmt/octal.rs"
	.loc	10 9 0
	.cfi_startproc
	pushq	%rbp
	.cfi_def_cfa_offset 16
	.cfi_offset %rbp, -16
	movq	%rsp, %rbp
	.cfi_def_cfa_register %rbp
	pushq	%r15
	pushq	%r14
	pushq	%r13
	pushq	%r12
	pushq	%rbx
	subq	$104, %rsp
	.cfi_offset %rbx, -56
	.cfi_offset %r12, -48
	.cfi_offset %r13, -40
	.cfi_offset %r14, -32
	.cfi_offset %r15, -24
	movq	%rsi, %rbx
	movq	%rdi, %r15
Ltmp122:
	.loc	10 11 17 prologue_end
	leaq	l___unnamed_1(%rip), %rax
	movq	%rax, -104(%rbp)
	leaq	__ZN44_$LT$$RF$T$u20$as$u20$core..fmt..Display$GT$3fmt17h189ab73c0bfea6d1E(%rip), %rax
	movq	%rax, -96(%rbp)
Ltmp123:
	.loc	1 328 9
	leaq	l___unnamed_2(%rip), %rax
Ltmp124:
	movq	%rax, -88(%rbp)
	movq	$2, -80(%rbp)
	movq	$0, -72(%rbp)
	leaq	-104(%rbp), %rax
Ltmp125:
	movq	%rax, -56(%rbp)
	movq	$1, -48(%rbp)
	leaq	-88(%rbp), %rsi
Ltmp126:
	.loc	10 11 17
	movq	%rbx, %rdi
	callq	__ZN4core3fmt9Formatter9write_fmt17h742ca6aae87ad23cE
	movb	$1, %cl
	.loc	10 11 50 is_stmt 0
	testb	%al, %al
	jne	LBB9_9
Ltmp127:
	.loc	10 0 0
	movzwl	(%r15), %eax
	movd	%eax, %xmm0
	movdqa	%xmm0, -128(%rbp)
	xorl	%r14d, %r14d
	leaq	-88(%rbp), %r15
Ltmp128:
	leaq	l___unnamed_3(%rip), %r13
	jmp	LBB9_3
Ltmp129:
	.p2align	4, 0x90
LBB9_2:
	movdqa	-128(%rbp), %xmm0
Ltmp130:
	.loc	5 63 36 is_stmt 1
	movdqa	%xmm0, -144(%rbp)
Ltmp131:
	.loc	10 0 0 is_stmt 0
	leaq	1(%r14), %r12
Ltmp132:
	.loc	5 63 36
	andl	$15, %r14d
Ltmp133:
	movzbl	-144(%rbp,%r14), %eax
Ltmp134:
	.loc	10 16 21 is_stmt 1
	movb	%al, -88(%rbp)
	movq	%r15, %rdi
	movq	%rbx, %rsi
	callq	__ZN4core3fmt3num49_$LT$impl$u20$core..fmt..Octal$u20$for$u20$i8$GT$3fmt17h22bc4fdd4bc3127cE
Ltmp135:
	.loc	10 0 0 is_stmt 0
	movq	%r12, %r14
Ltmp136:
	.loc	10 16 43
	testb	%al, %al
	jne	LBB9_8
Ltmp137:
LBB9_3:
	.loc	7 1136 52 is_stmt 1
	cmpq	$2, %r14
Ltmp138:
	.loc	8 505 9
	je	LBB9_7
Ltmp139:
	.loc	10 13 24
	testq	%r14, %r14
	.loc	10 13 21 is_stmt 0
	je	LBB9_2
Ltmp140:
	.loc	1 328 9 is_stmt 1
	movq	%r13, -88(%rbp)
	movq	$1, -80(%rbp)
	movq	$0, -72(%rbp)
Ltmp141:
	leaq	l___unnamed_4(%rip), %rax
Ltmp142:
	movq	%rax, -56(%rbp)
Ltmp143:
	movq	$0, -48(%rbp)
Ltmp144:
	.loc	10 14 25
	movq	%rbx, %rdi
	movq	%r15, %rsi
	callq	__ZN4core3fmt9Formatter9write_fmt17h742ca6aae87ad23cE
	.loc	10 14 40 is_stmt 0
	testb	%al, %al
	je	LBB9_2
Ltmp145:
LBB9_8:
	.loc	10 0 40
	movb	$1, %cl
	jmp	LBB9_9
Ltmp146:
LBB9_7:
	.loc	1 328 9 is_stmt 1
	leaq	l___unnamed_5(%rip), %rax
Ltmp147:
	movq	%rax, -88(%rbp)
	movq	$1, -80(%rbp)
	movq	$0, -72(%rbp)
Ltmp148:
	leaq	l___unnamed_4(%rip), %rax
Ltmp149:
	movq	%rax, -56(%rbp)
	movq	$0, -48(%rbp)
	leaq	-88(%rbp), %rsi
Ltmp150:
	.loc	10 18 17
	movq	%rbx, %rdi
	callq	__ZN4core3fmt9Formatter9write_fmt17h742ca6aae87ad23cE
Ltmp151:
	movl	%eax, %ecx
Ltmp152:
LBB9_9:
	.loc	10 19 14
	movl	%ecx, %eax
	addq	$104, %rsp
	popq	%rbx
Ltmp153:
	popq	%r12
	popq	%r13
	popq	%r14
	popq	%r15
	popq	%rbp
	retq
Ltmp154:
Lfunc_end9:
	.cfi_endproc

	.globl	__ZN11packed_simd3v1696_$LT$impl$u20$core..fmt..Binary$u20$for$u20$packed_simd..Simd$LT$$u5b$i8$u3b$$u20$2$u5d$$GT$$GT$3fmt17h0abcdb0ab2617b41E
	.p2align	4, 0x90
__ZN11packed_simd3v1696_$LT$impl$u20$core..fmt..Binary$u20$for$u20$packed_simd..Simd$LT$$u5b$i8$u3b$$u20$2$u5d$$GT$$GT$3fmt17h0abcdb0ab2617b41E:
Lfunc_begin10:
	.file	11 "/Users/yingyuhang/.cargo/registry/src/github.com-1ecc6299db9ec823/packed_simd-0.3.3/src/api/fmt/binary.rs"
	.loc	11 9 0
	.cfi_startproc
	pushq	%rbp
	.cfi_def_cfa_offset 16
	.cfi_offset %rbp, -16
	movq	%rsp, %rbp
	.cfi_def_cfa_register %rbp
	pushq	%r15
	pushq	%r14
	pushq	%r13
	pushq	%r12
	pushq	%rbx
	subq	$104, %rsp
	.cfi_offset %rbx, -56
	.cfi_offset %r12, -48
	.cfi_offset %r13, -40
	.cfi_offset %r14, -32
	.cfi_offset %r15, -24
	movq	%rsi, %rbx
	movq	%rdi, %r15
Ltmp155:
	.loc	11 11 17 prologue_end
	leaq	l___unnamed_1(%rip), %rax
	movq	%rax, -104(%rbp)
	leaq	__ZN44_$LT$$RF$T$u20$as$u20$core..fmt..Display$GT$3fmt17h189ab73c0bfea6d1E(%rip), %rax
	movq	%rax, -96(%rbp)
Ltmp156:
	.loc	1 328 9
	leaq	l___unnamed_2(%rip), %rax
Ltmp157:
	movq	%rax, -88(%rbp)
	movq	$2, -80(%rbp)
	movq	$0, -72(%rbp)
	leaq	-104(%rbp), %rax
Ltmp158:
	movq	%rax, -56(%rbp)
	movq	$1, -48(%rbp)
	leaq	-88(%rbp), %rsi
Ltmp159:
	.loc	11 11 17
	movq	%rbx, %rdi
	callq	__ZN4core3fmt9Formatter9write_fmt17h742ca6aae87ad23cE
	movb	$1, %cl
	.loc	11 11 50 is_stmt 0
	testb	%al, %al
	jne	LBB10_9
Ltmp160:
	.loc	11 0 0
	movzwl	(%r15), %eax
	movd	%eax, %xmm0
	movdqa	%xmm0, -128(%rbp)
	xorl	%r14d, %r14d
	leaq	-88(%rbp), %r15
Ltmp161:
	leaq	l___unnamed_3(%rip), %r13
	jmp	LBB10_3
Ltmp162:
	.p2align	4, 0x90
LBB10_2:
	movdqa	-128(%rbp), %xmm0
Ltmp163:
	.loc	5 63 36 is_stmt 1
	movdqa	%xmm0, -144(%rbp)
Ltmp164:
	.loc	11 0 0 is_stmt 0
	leaq	1(%r14), %r12
Ltmp165:
	.loc	5 63 36
	andl	$15, %r14d
Ltmp166:
	movzbl	-144(%rbp,%r14), %eax
Ltmp167:
	.loc	11 16 21 is_stmt 1
	movb	%al, -88(%rbp)
	movq	%r15, %rdi
	movq	%rbx, %rsi
	callq	__ZN4core3fmt3num50_$LT$impl$u20$core..fmt..Binary$u20$for$u20$i8$GT$3fmt17h99e877cd09afbddeE
Ltmp168:
	.loc	11 0 0 is_stmt 0
	movq	%r12, %r14
Ltmp169:
	.loc	11 16 43
	testb	%al, %al
	jne	LBB10_8
Ltmp170:
LBB10_3:
	.loc	7 1136 52 is_stmt 1
	cmpq	$2, %r14
Ltmp171:
	.loc	8 505 9
	je	LBB10_7
Ltmp172:
	.loc	11 13 24
	testq	%r14, %r14
	.loc	11 13 21 is_stmt 0
	je	LBB10_2
Ltmp173:
	.loc	1 328 9 is_stmt 1
	movq	%r13, -88(%rbp)
	movq	$1, -80(%rbp)
	movq	$0, -72(%rbp)
Ltmp174:
	leaq	l___unnamed_4(%rip), %rax
Ltmp175:
	movq	%rax, -56(%rbp)
Ltmp176:
	movq	$0, -48(%rbp)
Ltmp177:
	.loc	11 14 25
	movq	%rbx, %rdi
	movq	%r15, %rsi
	callq	__ZN4core3fmt9Formatter9write_fmt17h742ca6aae87ad23cE
	.loc	11 14 40 is_stmt 0
	testb	%al, %al
	je	LBB10_2
Ltmp178:
LBB10_8:
	.loc	11 0 40
	movb	$1, %cl
	jmp	LBB10_9
Ltmp179:
LBB10_7:
	.loc	1 328 9 is_stmt 1
	leaq	l___unnamed_5(%rip), %rax
Ltmp180:
	movq	%rax, -88(%rbp)
	movq	$1, -80(%rbp)
	movq	$0, -72(%rbp)
Ltmp181:
	leaq	l___unnamed_4(%rip), %rax
Ltmp182:
	movq	%rax, -56(%rbp)
	movq	$0, -48(%rbp)
	leaq	-88(%rbp), %rsi
Ltmp183:
	.loc	11 18 17
	movq	%rbx, %rdi
	callq	__ZN4core3fmt9Formatter9write_fmt17h742ca6aae87ad23cE
Ltmp184:
	movl	%eax, %ecx
Ltmp185:
LBB10_9:
	.loc	11 19 14
	movl	%ecx, %eax
	addq	$104, %rsp
	popq	%rbx
Ltmp186:
	popq	%r12
	popq	%r13
	popq	%r14
	popq	%r15
	popq	%rbp
	retq
Ltmp187:
Lfunc_end10:
	.cfi_endproc

	.globl	__ZN11packed_simd3v1695_$LT$impl$u20$core..fmt..Debug$u20$for$u20$packed_simd..Simd$LT$$u5b$u8$u3b$$u20$2$u5d$$GT$$GT$3fmt17h1bae71c9b98c9db5E
	.p2align	4, 0x90
__ZN11packed_simd3v1695_$LT$impl$u20$core..fmt..Debug$u20$for$u20$packed_simd..Simd$LT$$u5b$u8$u3b$$u20$2$u5d$$GT$$GT$3fmt17h1bae71c9b98c9db5E:
Lfunc_begin11:
	.loc	3 49 0
	.cfi_startproc
	pushq	%rbp
	.cfi_def_cfa_offset 16
	.cfi_offset %rbp, -16
	movq	%rsp, %rbp
	.cfi_def_cfa_register %rbp
	pushq	%r15
	pushq	%r14
	pushq	%rbx
	subq	$104, %rsp
	.cfi_offset %rbx, -40
	.cfi_offset %r14, -32
	.cfi_offset %r15, -24
	movq	%rsi, %r15
	movq	%rdi, %rbx
Ltmp188:
	.loc	3 52 17 prologue_end
	leaq	l___unnamed_6(%rip), %rax
	movq	%rax, -88(%rbp)
	leaq	__ZN44_$LT$$RF$T$u20$as$u20$core..fmt..Display$GT$3fmt17h189ab73c0bfea6d1E(%rip), %rax
	movq	%rax, -80(%rbp)
Ltmp189:
	.loc	1 328 9
	leaq	l___unnamed_2(%rip), %rax
Ltmp190:
	movq	%rax, -72(%rbp)
	movq	$2, -64(%rbp)
	movq	$0, -56(%rbp)
	leaq	-88(%rbp), %rax
Ltmp191:
	movq	%rax, -40(%rbp)
	movq	$1, -32(%rbp)
	leaq	-72(%rbp), %rsi
Ltmp192:
	.loc	3 52 17
	movq	%r15, %rdi
	callq	__ZN4core3fmt9Formatter9write_fmt17h742ca6aae87ad23cE
	movb	$1, %r14b
	.loc	3 52 50 is_stmt 0
	testb	%al, %al
	jne	LBB11_12
Ltmp193:
	.loc	3 0 0
	movzwl	(%rbx), %eax
	movd	%eax, %xmm0
	movdqa	%xmm0, -112(%rbp)
	movdqa	%xmm0, -128(%rbp)
	movb	-128(%rbp), %al
Ltmp194:
	.loc	3 57 21 is_stmt 1
	movb	%al, -72(%rbp)
Ltmp195:
	.loc	4 149 20
	movq	%r15, %rdi
	callq	__ZN4core3fmt9Formatter15debug_lower_hex17hd07f6fde8d0365dfE
	.loc	4 149 17 is_stmt 0
	testb	%al, %al
	je	LBB11_2
Ltmp196:
	.loc	4 0 17
	leaq	-72(%rbp), %rdi
	.loc	4 150 21 is_stmt 1
	movq	%r15, %rsi
	callq	__ZN4core3fmt3num52_$LT$impl$u20$core..fmt..LowerHex$u20$for$u20$u8$GT$3fmt17h35609b3cfed2e613E
Ltmp197:
	.loc	3 57 43
	testb	%al, %al
	je	LBB11_6
	jmp	LBB11_12
Ltmp198:
LBB11_2:
	.loc	4 151 27
	movq	%r15, %rdi
	callq	__ZN4core3fmt9Formatter15debug_upper_hex17hf480c256a9c81c1eE
	leaq	-72(%rbp), %rdi
	.loc	4 154 21
	movq	%r15, %rsi
	.loc	4 151 24
	testb	%al, %al
	je	LBB11_4
Ltmp199:
	.loc	4 152 21
	callq	__ZN4core3fmt3num52_$LT$impl$u20$core..fmt..UpperHex$u20$for$u20$u8$GT$3fmt17hdec4e64a988d6129E
Ltmp200:
	.loc	3 57 43
	testb	%al, %al
	je	LBB11_6
	jmp	LBB11_12
Ltmp201:
LBB11_4:
	.loc	4 154 21
	callq	__ZN4core3fmt3num3imp51_$LT$impl$u20$core..fmt..Display$u20$for$u20$u8$GT$3fmt17hac49effbf87f075dE
Ltmp202:
	.loc	3 57 43
	testb	%al, %al
	jne	LBB11_12
Ltmp203:
LBB11_6:
	.loc	1 328 9
	leaq	l___unnamed_3(%rip), %rax
Ltmp204:
	movq	%rax, -72(%rbp)
	movq	$1, -64(%rbp)
	movq	$0, -56(%rbp)
	leaq	l___unnamed_4(%rip), %rbx
Ltmp205:
	movq	%rbx, -40(%rbp)
	movq	$0, -32(%rbp)
	leaq	-72(%rbp), %rsi
Ltmp206:
	.loc	3 55 25
	movq	%r15, %rdi
	callq	__ZN4core3fmt9Formatter9write_fmt17h742ca6aae87ad23cE
Ltmp207:
	.loc	3 55 40 is_stmt 0
	testb	%al, %al
	jne	LBB11_12
Ltmp208:
	.loc	3 0 40
	movdqa	-112(%rbp), %xmm0
Ltmp209:
	.loc	5 63 36 is_stmt 1
	movd	%xmm0, %eax
Ltmp210:
	.loc	3 57 21
	movb	%ah, -72(%rbp)
Ltmp211:
	.loc	4 149 20
	movq	%r15, %rdi
	callq	__ZN4core3fmt9Formatter15debug_lower_hex17hd07f6fde8d0365dfE
	.loc	4 149 17 is_stmt 0
	testb	%al, %al
	je	LBB11_8
Ltmp212:
	.loc	4 0 17
	leaq	-72(%rbp), %rdi
	.loc	4 150 21 is_stmt 1
	movq	%r15, %rsi
	callq	__ZN4core3fmt3num52_$LT$impl$u20$core..fmt..LowerHex$u20$for$u20$u8$GT$3fmt17h35609b3cfed2e613E
	jmp	LBB11_10
Ltmp213:
LBB11_8:
	.loc	4 151 27
	movq	%r15, %rdi
	callq	__ZN4core3fmt9Formatter15debug_upper_hex17hf480c256a9c81c1eE
	leaq	-72(%rbp), %rdi
	.loc	4 152 21
	movq	%r15, %rsi
	.loc	4 151 24
	testb	%al, %al
	je	LBB11_9
Ltmp214:
	.loc	4 152 21
	callq	__ZN4core3fmt3num52_$LT$impl$u20$core..fmt..UpperHex$u20$for$u20$u8$GT$3fmt17hdec4e64a988d6129E
	jmp	LBB11_10
Ltmp215:
LBB11_9:
	.loc	4 154 21
	callq	__ZN4core3fmt3num3imp51_$LT$impl$u20$core..fmt..Display$u20$for$u20$u8$GT$3fmt17hac49effbf87f075dE
Ltmp216:
LBB11_10:
	.loc	3 57 43
	testb	%al, %al
	jne	LBB11_12
Ltmp217:
	.loc	1 328 9
	leaq	l___unnamed_5(%rip), %rax
Ltmp218:
	movq	%rax, -72(%rbp)
	movq	$1, -64(%rbp)
	movq	$0, -56(%rbp)
Ltmp219:
	movq	%rbx, -40(%rbp)
	movq	$0, -32(%rbp)
	leaq	-72(%rbp), %rsi
Ltmp220:
	.loc	3 59 17
	movq	%r15, %rdi
	callq	__ZN4core3fmt9Formatter9write_fmt17h742ca6aae87ad23cE
Ltmp221:
	movl	%eax, %r14d
Ltmp222:
LBB11_12:
	.loc	3 60 14
	movl	%r14d, %eax
	addq	$104, %rsp
	popq	%rbx
	popq	%r14
	popq	%r15
Ltmp223:
	popq	%rbp
	retq
Ltmp224:
Lfunc_end11:
	.cfi_endproc

	.globl	__ZN11packed_simd3v1698_$LT$impl$u20$core..fmt..LowerHex$u20$for$u20$packed_simd..Simd$LT$$u5b$u8$u3b$$u20$2$u5d$$GT$$GT$3fmt17h4821e8b062611f9cE
	.p2align	4, 0x90
__ZN11packed_simd3v1698_$LT$impl$u20$core..fmt..LowerHex$u20$for$u20$packed_simd..Simd$LT$$u5b$u8$u3b$$u20$2$u5d$$GT$$GT$3fmt17h4821e8b062611f9cE:
Lfunc_begin12:
	.loc	6 9 0
	.cfi_startproc
	pushq	%rbp
	.cfi_def_cfa_offset 16
	.cfi_offset %rbp, -16
	movq	%rsp, %rbp
	.cfi_def_cfa_register %rbp
	pushq	%r15
	pushq	%r14
	pushq	%r13
	pushq	%r12
	pushq	%rbx
	subq	$104, %rsp
	.cfi_offset %rbx, -56
	.cfi_offset %r12, -48
	.cfi_offset %r13, -40
	.cfi_offset %r14, -32
	.cfi_offset %r15, -24
	movq	%rsi, %rbx
	movq	%rdi, %r15
Ltmp225:
	.loc	6 11 17 prologue_end
	leaq	l___unnamed_6(%rip), %rax
	movq	%rax, -104(%rbp)
	leaq	__ZN44_$LT$$RF$T$u20$as$u20$core..fmt..Display$GT$3fmt17h189ab73c0bfea6d1E(%rip), %rax
	movq	%rax, -96(%rbp)
Ltmp226:
	.loc	1 328 9
	leaq	l___unnamed_2(%rip), %rax
Ltmp227:
	movq	%rax, -88(%rbp)
	movq	$2, -80(%rbp)
	movq	$0, -72(%rbp)
	leaq	-104(%rbp), %rax
Ltmp228:
	movq	%rax, -56(%rbp)
	movq	$1, -48(%rbp)
	leaq	-88(%rbp), %rsi
Ltmp229:
	.loc	6 11 17
	movq	%rbx, %rdi
	callq	__ZN4core3fmt9Formatter9write_fmt17h742ca6aae87ad23cE
	movb	$1, %cl
	.loc	6 11 50 is_stmt 0
	testb	%al, %al
	jne	LBB12_9
Ltmp230:
	.loc	6 0 0
	movzwl	(%r15), %eax
	movd	%eax, %xmm0
	movdqa	%xmm0, -128(%rbp)
	xorl	%r14d, %r14d
	leaq	-88(%rbp), %r15
Ltmp231:
	leaq	l___unnamed_3(%rip), %r13
	jmp	LBB12_3
Ltmp232:
	.p2align	4, 0x90
LBB12_2:
	movdqa	-128(%rbp), %xmm0
Ltmp233:
	.loc	5 63 36 is_stmt 1
	movdqa	%xmm0, -144(%rbp)
Ltmp234:
	.loc	6 0 0 is_stmt 0
	leaq	1(%r14), %r12
Ltmp235:
	.loc	5 63 36
	andl	$15, %r14d
Ltmp236:
	movzbl	-144(%rbp,%r14), %eax
Ltmp237:
	.loc	6 16 21 is_stmt 1
	movb	%al, -88(%rbp)
	movq	%r15, %rdi
	movq	%rbx, %rsi
	callq	__ZN4core3fmt3num52_$LT$impl$u20$core..fmt..LowerHex$u20$for$u20$u8$GT$3fmt17h35609b3cfed2e613E
Ltmp238:
	.loc	6 0 0 is_stmt 0
	movq	%r12, %r14
Ltmp239:
	.loc	6 16 43
	testb	%al, %al
	jne	LBB12_8
Ltmp240:
LBB12_3:
	.loc	7 1136 52 is_stmt 1
	cmpq	$2, %r14
Ltmp241:
	.loc	8 505 9
	je	LBB12_7
Ltmp242:
	.loc	6 13 24
	testq	%r14, %r14
	.loc	6 13 21 is_stmt 0
	je	LBB12_2
Ltmp243:
	.loc	1 328 9 is_stmt 1
	movq	%r13, -88(%rbp)
	movq	$1, -80(%rbp)
	movq	$0, -72(%rbp)
Ltmp244:
	leaq	l___unnamed_4(%rip), %rax
Ltmp245:
	movq	%rax, -56(%rbp)
Ltmp246:
	movq	$0, -48(%rbp)
Ltmp247:
	.loc	6 14 25
	movq	%rbx, %rdi
	movq	%r15, %rsi
	callq	__ZN4core3fmt9Formatter9write_fmt17h742ca6aae87ad23cE
	.loc	6 14 40 is_stmt 0
	testb	%al, %al
	je	LBB12_2
Ltmp248:
LBB12_8:
	.loc	6 0 40
	movb	$1, %cl
	jmp	LBB12_9
Ltmp249:
LBB12_7:
	.loc	1 328 9 is_stmt 1
	leaq	l___unnamed_5(%rip), %rax
Ltmp250:
	movq	%rax, -88(%rbp)
	movq	$1, -80(%rbp)
	movq	$0, -72(%rbp)
Ltmp251:
	leaq	l___unnamed_4(%rip), %rax
Ltmp252:
	movq	%rax, -56(%rbp)
	movq	$0, -48(%rbp)
	leaq	-88(%rbp), %rsi
Ltmp253:
	.loc	6 18 17
	movq	%rbx, %rdi
	callq	__ZN4core3fmt9Formatter9write_fmt17h742ca6aae87ad23cE
Ltmp254:
	movl	%eax, %ecx
Ltmp255:
LBB12_9:
	.loc	6 19 14
	movl	%ecx, %eax
	addq	$104, %rsp
	popq	%rbx
Ltmp256:
	popq	%r12
	popq	%r13
	popq	%r14
	popq	%r15
	popq	%rbp
	retq
Ltmp257:
Lfunc_end12:
	.cfi_endproc

	.globl	__ZN11packed_simd3v1698_$LT$impl$u20$core..fmt..UpperHex$u20$for$u20$packed_simd..Simd$LT$$u5b$u8$u3b$$u20$2$u5d$$GT$$GT$3fmt17hf093174458571284E
	.p2align	4, 0x90
__ZN11packed_simd3v1698_$LT$impl$u20$core..fmt..UpperHex$u20$for$u20$packed_simd..Simd$LT$$u5b$u8$u3b$$u20$2$u5d$$GT$$GT$3fmt17hf093174458571284E:
Lfunc_begin13:
	.loc	9 9 0
	.cfi_startproc
	pushq	%rbp
	.cfi_def_cfa_offset 16
	.cfi_offset %rbp, -16
	movq	%rsp, %rbp
	.cfi_def_cfa_register %rbp
	pushq	%r15
	pushq	%r14
	pushq	%r13
	pushq	%r12
	pushq	%rbx
	subq	$104, %rsp
	.cfi_offset %rbx, -56
	.cfi_offset %r12, -48
	.cfi_offset %r13, -40
	.cfi_offset %r14, -32
	.cfi_offset %r15, -24
	movq	%rsi, %rbx
	movq	%rdi, %r15
Ltmp258:
	.loc	9 11 17 prologue_end
	leaq	l___unnamed_6(%rip), %rax
	movq	%rax, -104(%rbp)
	leaq	__ZN44_$LT$$RF$T$u20$as$u20$core..fmt..Display$GT$3fmt17h189ab73c0bfea6d1E(%rip), %rax
	movq	%rax, -96(%rbp)
Ltmp259:
	.loc	1 328 9
	leaq	l___unnamed_2(%rip), %rax
Ltmp260:
	movq	%rax, -88(%rbp)
	movq	$2, -80(%rbp)
	movq	$0, -72(%rbp)
	leaq	-104(%rbp), %rax
Ltmp261:
	movq	%rax, -56(%rbp)
	movq	$1, -48(%rbp)
	leaq	-88(%rbp), %rsi
Ltmp262:
	.loc	9 11 17
	movq	%rbx, %rdi
	callq	__ZN4core3fmt9Formatter9write_fmt17h742ca6aae87ad23cE
	movb	$1, %cl
	.loc	9 11 50 is_stmt 0
	testb	%al, %al
	jne	LBB13_9
Ltmp263:
	.loc	9 0 0
	movzwl	(%r15), %eax
	movd	%eax, %xmm0
	movdqa	%xmm0, -128(%rbp)
	xorl	%r14d, %r14d
	leaq	-88(%rbp), %r15
Ltmp264:
	leaq	l___unnamed_3(%rip), %r13
	jmp	LBB13_3
Ltmp265:
	.p2align	4, 0x90
LBB13_2:
	movdqa	-128(%rbp), %xmm0
Ltmp266:
	.loc	5 63 36 is_stmt 1
	movdqa	%xmm0, -144(%rbp)
Ltmp267:
	.loc	9 0 0 is_stmt 0
	leaq	1(%r14), %r12
Ltmp268:
	.loc	5 63 36
	andl	$15, %r14d
Ltmp269:
	movzbl	-144(%rbp,%r14), %eax
Ltmp270:
	.loc	9 16 21 is_stmt 1
	movb	%al, -88(%rbp)
	movq	%r15, %rdi
	movq	%rbx, %rsi
	callq	__ZN4core3fmt3num52_$LT$impl$u20$core..fmt..UpperHex$u20$for$u20$u8$GT$3fmt17hdec4e64a988d6129E
Ltmp271:
	.loc	9 0 0 is_stmt 0
	movq	%r12, %r14
Ltmp272:
	.loc	9 16 43
	testb	%al, %al
	jne	LBB13_8
Ltmp273:
LBB13_3:
	.loc	7 1136 52 is_stmt 1
	cmpq	$2, %r14
Ltmp274:
	.loc	8 505 9
	je	LBB13_7
Ltmp275:
	.loc	9 13 24
	testq	%r14, %r14
	.loc	9 13 21 is_stmt 0
	je	LBB13_2
Ltmp276:
	.loc	1 328 9 is_stmt 1
	movq	%r13, -88(%rbp)
	movq	$1, -80(%rbp)
	movq	$0, -72(%rbp)
Ltmp277:
	leaq	l___unnamed_4(%rip), %rax
Ltmp278:
	movq	%rax, -56(%rbp)
Ltmp279:
	movq	$0, -48(%rbp)
Ltmp280:
	.loc	9 14 25
	movq	%rbx, %rdi
	movq	%r15, %rsi
	callq	__ZN4core3fmt9Formatter9write_fmt17h742ca6aae87ad23cE
	.loc	9 14 40 is_stmt 0
	testb	%al, %al
	je	LBB13_2
Ltmp281:
LBB13_8:
	.loc	9 0 40
	movb	$1, %cl
	jmp	LBB13_9
Ltmp282:
LBB13_7:
	.loc	1 328 9 is_stmt 1
	leaq	l___unnamed_5(%rip), %rax
Ltmp283:
	movq	%rax, -88(%rbp)
	movq	$1, -80(%rbp)
	movq	$0, -72(%rbp)
Ltmp284:
	leaq	l___unnamed_4(%rip), %rax
Ltmp285:
	movq	%rax, -56(%rbp)
	movq	$0, -48(%rbp)
	leaq	-88(%rbp), %rsi
Ltmp286:
	.loc	9 18 17
	movq	%rbx, %rdi
	callq	__ZN4core3fmt9Formatter9write_fmt17h742ca6aae87ad23cE
Ltmp287:
	movl	%eax, %ecx
Ltmp288:
LBB13_9:
	.loc	9 19 14
	movl	%ecx, %eax
	addq	$104, %rsp
	popq	%rbx
Ltmp289:
	popq	%r12
	popq	%r13
	popq	%r14
	popq	%r15
	popq	%rbp
	retq
Ltmp290:
Lfunc_end13:
	.cfi_endproc

	.globl	__ZN11packed_simd3v1695_$LT$impl$u20$core..fmt..Octal$u20$for$u20$packed_simd..Simd$LT$$u5b$u8$u3b$$u20$2$u5d$$GT$$GT$3fmt17h85a4b75fb0df40aaE
	.p2align	4, 0x90
__ZN11packed_simd3v1695_$LT$impl$u20$core..fmt..Octal$u20$for$u20$packed_simd..Simd$LT$$u5b$u8$u3b$$u20$2$u5d$$GT$$GT$3fmt17h85a4b75fb0df40aaE:
Lfunc_begin14:
	.loc	10 9 0
	.cfi_startproc
	pushq	%rbp
	.cfi_def_cfa_offset 16
	.cfi_offset %rbp, -16
	movq	%rsp, %rbp
	.cfi_def_cfa_register %rbp
	pushq	%r15
	pushq	%r14
	pushq	%r13
	pushq	%r12
	pushq	%rbx
	subq	$104, %rsp
	.cfi_offset %rbx, -56
	.cfi_offset %r12, -48
	.cfi_offset %r13, -40
	.cfi_offset %r14, -32
	.cfi_offset %r15, -24
	movq	%rsi, %rbx
	movq	%rdi, %r15
Ltmp291:
	.loc	10 11 17 prologue_end
	leaq	l___unnamed_6(%rip), %rax
	movq	%rax, -104(%rbp)
	leaq	__ZN44_$LT$$RF$T$u20$as$u20$core..fmt..Display$GT$3fmt17h189ab73c0bfea6d1E(%rip), %rax
	movq	%rax, -96(%rbp)
Ltmp292:
	.loc	1 328 9
	leaq	l___unnamed_2(%rip), %rax
Ltmp293:
	movq	%rax, -88(%rbp)
	movq	$2, -80(%rbp)
	movq	$0, -72(%rbp)
	leaq	-104(%rbp), %rax
Ltmp294:
	movq	%rax, -56(%rbp)
	movq	$1, -48(%rbp)
	leaq	-88(%rbp), %rsi
Ltmp295:
	.loc	10 11 17
	movq	%rbx, %rdi
	callq	__ZN4core3fmt9Formatter9write_fmt17h742ca6aae87ad23cE
	movb	$1, %cl
	.loc	10 11 50 is_stmt 0
	testb	%al, %al
	jne	LBB14_9
Ltmp296:
	.loc	10 0 0
	movzwl	(%r15), %eax
	movd	%eax, %xmm0
	movdqa	%xmm0, -128(%rbp)
	xorl	%r14d, %r14d
	leaq	-88(%rbp), %r15
Ltmp297:
	leaq	l___unnamed_3(%rip), %r13
	jmp	LBB14_3
Ltmp298:
	.p2align	4, 0x90
LBB14_2:
	movdqa	-128(%rbp), %xmm0
Ltmp299:
	.loc	5 63 36 is_stmt 1
	movdqa	%xmm0, -144(%rbp)
Ltmp300:
	.loc	10 0 0 is_stmt 0
	leaq	1(%r14), %r12
Ltmp301:
	.loc	5 63 36
	andl	$15, %r14d
Ltmp302:
	movzbl	-144(%rbp,%r14), %eax
Ltmp303:
	.loc	10 16 21 is_stmt 1
	movb	%al, -88(%rbp)
	movq	%r15, %rdi
	movq	%rbx, %rsi
	callq	__ZN4core3fmt3num49_$LT$impl$u20$core..fmt..Octal$u20$for$u20$u8$GT$3fmt17hf7600dd9a4d32e44E
Ltmp304:
	.loc	10 0 0 is_stmt 0
	movq	%r12, %r14
Ltmp305:
	.loc	10 16 43
	testb	%al, %al
	jne	LBB14_8
Ltmp306:
LBB14_3:
	.loc	7 1136 52 is_stmt 1
	cmpq	$2, %r14
Ltmp307:
	.loc	8 505 9
	je	LBB14_7
Ltmp308:
	.loc	10 13 24
	testq	%r14, %r14
	.loc	10 13 21 is_stmt 0
	je	LBB14_2
Ltmp309:
	.loc	1 328 9 is_stmt 1
	movq	%r13, -88(%rbp)
	movq	$1, -80(%rbp)
	movq	$0, -72(%rbp)
Ltmp310:
	leaq	l___unnamed_4(%rip), %rax
Ltmp311:
	movq	%rax, -56(%rbp)
Ltmp312:
	movq	$0, -48(%rbp)
Ltmp313:
	.loc	10 14 25
	movq	%rbx, %rdi
	movq	%r15, %rsi
	callq	__ZN4core3fmt9Formatter9write_fmt17h742ca6aae87ad23cE
	.loc	10 14 40 is_stmt 0
	testb	%al, %al
	je	LBB14_2
Ltmp314:
LBB14_8:
	.loc	10 0 40
	movb	$1, %cl
	jmp	LBB14_9
Ltmp315:
LBB14_7:
	.loc	1 328 9 is_stmt 1
	leaq	l___unnamed_5(%rip), %rax
Ltmp316:
	movq	%rax, -88(%rbp)
	movq	$1, -80(%rbp)
	movq	$0, -72(%rbp)
Ltmp317:
	leaq	l___unnamed_4(%rip), %rax
Ltmp318:
	movq	%rax, -56(%rbp)
	movq	$0, -48(%rbp)
	leaq	-88(%rbp), %rsi
Ltmp319:
	.loc	10 18 17
	movq	%rbx, %rdi
	callq	__ZN4core3fmt9Formatter9write_fmt17h742ca6aae87ad23cE
Ltmp320:
	movl	%eax, %ecx
Ltmp321:
LBB14_9:
	.loc	10 19 14
	movl	%ecx, %eax
	addq	$104, %rsp
	popq	%rbx
Ltmp322:
	popq	%r12
	popq	%r13
	popq	%r14
	popq	%r15
	popq	%rbp
	retq
Ltmp323:
Lfunc_end14:
	.cfi_endproc

	.globl	__ZN11packed_simd3v1696_$LT$impl$u20$core..fmt..Binary$u20$for$u20$packed_simd..Simd$LT$$u5b$u8$u3b$$u20$2$u5d$$GT$$GT$3fmt17h43cd2bc76da35756E
	.p2align	4, 0x90
__ZN11packed_simd3v1696_$LT$impl$u20$core..fmt..Binary$u20$for$u20$packed_simd..Simd$LT$$u5b$u8$u3b$$u20$2$u5d$$GT$$GT$3fmt17h43cd2bc76da35756E:
Lfunc_begin15:
	.loc	11 9 0
	.cfi_startproc
	pushq	%rbp
	.cfi_def_cfa_offset 16
	.cfi_offset %rbp, -16
	movq	%rsp, %rbp
	.cfi_def_cfa_register %rbp
	pushq	%r15
	pushq	%r14
	pushq	%r13
	pushq	%r12
	pushq	%rbx
	subq	$104, %rsp
	.cfi_offset %rbx, -56
	.cfi_offset %r12, -48
	.cfi_offset %r13, -40
	.cfi_offset %r14, -32
	.cfi_offset %r15, -24
	movq	%rsi, %rbx
	movq	%rdi, %r15
Ltmp324:
	.loc	11 11 17 prologue_end
	leaq	l___unnamed_6(%rip), %rax
	movq	%rax, -104(%rbp)
	leaq	__ZN44_$LT$$RF$T$u20$as$u20$core..fmt..Display$GT$3fmt17h189ab73c0bfea6d1E(%rip), %rax
	movq	%rax, -96(%rbp)
Ltmp325:
	.loc	1 328 9
	leaq	l___unnamed_2(%rip), %rax
Ltmp326:
	movq	%rax, -88(%rbp)
	movq	$2, -80(%rbp)
	movq	$0, -72(%rbp)
	leaq	-104(%rbp), %rax
Ltmp327:
	movq	%rax, -56(%rbp)
	movq	$1, -48(%rbp)
	leaq	-88(%rbp), %rsi
Ltmp328:
	.loc	11 11 17
	movq	%rbx, %rdi
	callq	__ZN4core3fmt9Formatter9write_fmt17h742ca6aae87ad23cE
	movb	$1, %cl
	.loc	11 11 50 is_stmt 0
	testb	%al, %al
	jne	LBB15_9
Ltmp329:
	.loc	11 0 0
	movzwl	(%r15), %eax
	movd	%eax, %xmm0
	movdqa	%xmm0, -128(%rbp)
	xorl	%r14d, %r14d
	leaq	-88(%rbp), %r15
Ltmp330:
	leaq	l___unnamed_3(%rip), %r13
	jmp	LBB15_3
Ltmp331:
	.p2align	4, 0x90
LBB15_2:
	movdqa	-128(%rbp), %xmm0
Ltmp332:
	.loc	5 63 36 is_stmt 1
	movdqa	%xmm0, -144(%rbp)
Ltmp333:
	.loc	11 0 0 is_stmt 0
	leaq	1(%r14), %r12
Ltmp334:
	.loc	5 63 36
	andl	$15, %r14d
Ltmp335:
	movzbl	-144(%rbp,%r14), %eax
Ltmp336:
	.loc	11 16 21 is_stmt 1
	movb	%al, -88(%rbp)
	movq	%r15, %rdi
	movq	%rbx, %rsi
	callq	__ZN4core3fmt3num50_$LT$impl$u20$core..fmt..Binary$u20$for$u20$u8$GT$3fmt17h34ba181458cacf9cE
Ltmp337:
	.loc	11 0 0 is_stmt 0
	movq	%r12, %r14
Ltmp338:
	.loc	11 16 43
	testb	%al, %al
	jne	LBB15_8
Ltmp339:
LBB15_3:
	.loc	7 1136 52 is_stmt 1
	cmpq	$2, %r14
Ltmp340:
	.loc	8 505 9
	je	LBB15_7
Ltmp341:
	.loc	11 13 24
	testq	%r14, %r14
	.loc	11 13 21 is_stmt 0
	je	LBB15_2
Ltmp342:
	.loc	1 328 9 is_stmt 1
	movq	%r13, -88(%rbp)
	movq	$1, -80(%rbp)
	movq	$0, -72(%rbp)
Ltmp343:
	leaq	l___unnamed_4(%rip), %rax
Ltmp344:
	movq	%rax, -56(%rbp)
Ltmp345:
	movq	$0, -48(%rbp)
Ltmp346:
	.loc	11 14 25
	movq	%rbx, %rdi
	movq	%r15, %rsi
	callq	__ZN4core3fmt9Formatter9write_fmt17h742ca6aae87ad23cE
	.loc	11 14 40 is_stmt 0
	testb	%al, %al
	je	LBB15_2
Ltmp347:
LBB15_8:
	.loc	11 0 40
	movb	$1, %cl
	jmp	LBB15_9
Ltmp348:
LBB15_7:
	.loc	1 328 9 is_stmt 1
	leaq	l___unnamed_5(%rip), %rax
Ltmp349:
	movq	%rax, -88(%rbp)
	movq	$1, -80(%rbp)
	movq	$0, -72(%rbp)
Ltmp350:
	leaq	l___unnamed_4(%rip), %rax
Ltmp351:
	movq	%rax, -56(%rbp)
	movq	$0, -48(%rbp)
	leaq	-88(%rbp), %rsi
Ltmp352:
	.loc	11 18 17
	movq	%rbx, %rdi
	callq	__ZN4core3fmt9Formatter9write_fmt17h742ca6aae87ad23cE
Ltmp353:
	movl	%eax, %ecx
Ltmp354:
LBB15_9:
	.loc	11 19 14
	movl	%ecx, %eax
	addq	$104, %rsp
	popq	%rbx
Ltmp355:
	popq	%r12
	popq	%r13
	popq	%r14
	popq	%r15
	popq	%rbp
	retq
Ltmp356:
Lfunc_end15:
	.cfi_endproc

	.globl	__ZN11packed_simd3v16115_$LT$impl$u20$core..fmt..Debug$u20$for$u20$packed_simd..Simd$LT$$u5b$packed_simd..masks..m8$u3b$$u20$2$u5d$$GT$$GT$3fmt17h591a11c9b198a84bE
	.p2align	4, 0x90
__ZN11packed_simd3v16115_$LT$impl$u20$core..fmt..Debug$u20$for$u20$packed_simd..Simd$LT$$u5b$packed_simd..masks..m8$u3b$$u20$2$u5d$$GT$$GT$3fmt17h591a11c9b198a84bE:
Lfunc_begin16:
	.loc	3 49 0
	.cfi_startproc
	pushq	%rbp
	.cfi_def_cfa_offset 16
	.cfi_offset %rbp, -16
	movq	%rsp, %rbp
	.cfi_def_cfa_register %rbp
	pushq	%r15
	pushq	%r14
	pushq	%r13
	pushq	%r12
	pushq	%rbx
	subq	$104, %rsp
	.cfi_offset %rbx, -56
	.cfi_offset %r12, -48
	.cfi_offset %r13, -40
	.cfi_offset %r14, -32
	.cfi_offset %r15, -24
	movq	%rsi, %rbx
	movq	%rdi, %r15
Ltmp357:
	.loc	3 52 17 prologue_end
	leaq	l___unnamed_7(%rip), %rax
	movq	%rax, -104(%rbp)
	leaq	__ZN44_$LT$$RF$T$u20$as$u20$core..fmt..Display$GT$3fmt17h189ab73c0bfea6d1E(%rip), %rax
	movq	%rax, -96(%rbp)
Ltmp358:
	.loc	1 328 9
	leaq	l___unnamed_2(%rip), %rax
Ltmp359:
	movq	%rax, -88(%rbp)
	movq	$2, -80(%rbp)
	movq	$0, -72(%rbp)
	leaq	-104(%rbp), %rax
Ltmp360:
	movq	%rax, -56(%rbp)
	movq	$1, -48(%rbp)
	leaq	-88(%rbp), %rsi
Ltmp361:
	.loc	3 52 17
	movq	%rbx, %rdi
	callq	__ZN4core3fmt9Formatter9write_fmt17h742ca6aae87ad23cE
	movb	$1, %cl
	.loc	3 52 50 is_stmt 0
	testb	%al, %al
	jne	LBB16_9
Ltmp362:
	.loc	3 0 0
	movzwl	(%r15), %eax
	movd	%eax, %xmm0
	movdqa	%xmm0, -128(%rbp)
	xorl	%r14d, %r14d
	leaq	-88(%rbp), %r15
Ltmp363:
	leaq	l___unnamed_3(%rip), %r13
	jmp	LBB16_3
Ltmp364:
	.p2align	4, 0x90
LBB16_2:
	movdqa	-128(%rbp), %xmm0
Ltmp365:
	.file	12 "/Users/yingyuhang/.cargo/registry/src/github.com-1ecc6299db9ec823/packed_simd-0.3.3/src/api/minimal/mask.rs"
	.loc	12 67 36 is_stmt 1
	movdqa	%xmm0, -144(%rbp)
Ltmp366:
	.loc	3 0 0 is_stmt 0
	leaq	1(%r14), %r12
Ltmp367:
	.loc	12 67 36
	andl	$15, %r14d
Ltmp368:
	.loc	12 68 17 is_stmt 1
	cmpb	$0, -144(%rbp,%r14)
Ltmp369:
	.loc	3 57 21
	setne	-88(%rbp)
Ltmp370:
	.loc	1 2052 9
	movq	%r15, %rdi
	movq	%rbx, %rsi
	callq	__ZN43_$LT$bool$u20$as$u20$core..fmt..Display$GT$3fmt17hd78396651a24cfbbE
Ltmp371:
	.loc	3 0 0 is_stmt 0
	movq	%r12, %r14
Ltmp372:
	.loc	3 57 43 is_stmt 1
	testb	%al, %al
	jne	LBB16_8
Ltmp373:
LBB16_3:
	.loc	7 1136 52
	cmpq	$2, %r14
Ltmp374:
	.loc	8 505 9
	je	LBB16_7
Ltmp375:
	.loc	3 54 24
	testq	%r14, %r14
	.loc	3 54 21 is_stmt 0
	je	LBB16_2
Ltmp376:
	.loc	1 328 9 is_stmt 1
	movq	%r13, -88(%rbp)
	movq	$1, -80(%rbp)
	movq	$0, -72(%rbp)
Ltmp377:
	leaq	l___unnamed_4(%rip), %rax
Ltmp378:
	movq	%rax, -56(%rbp)
Ltmp379:
	movq	$0, -48(%rbp)
Ltmp380:
	.loc	3 55 25
	movq	%rbx, %rdi
	movq	%r15, %rsi
	callq	__ZN4core3fmt9Formatter9write_fmt17h742ca6aae87ad23cE
	.loc	3 55 40 is_stmt 0
	testb	%al, %al
	je	LBB16_2
Ltmp381:
LBB16_8:
	.loc	3 0 40
	movb	$1, %cl
	jmp	LBB16_9
Ltmp382:
LBB16_7:
	.loc	1 328 9 is_stmt 1
	leaq	l___unnamed_5(%rip), %rax
Ltmp383:
	movq	%rax, -88(%rbp)
	movq	$1, -80(%rbp)
	movq	$0, -72(%rbp)
Ltmp384:
	leaq	l___unnamed_4(%rip), %rax
Ltmp385:
	movq	%rax, -56(%rbp)
	movq	$0, -48(%rbp)
	leaq	-88(%rbp), %rsi
Ltmp386:
	.loc	3 59 17
	movq	%rbx, %rdi
	callq	__ZN4core3fmt9Formatter9write_fmt17h742ca6aae87ad23cE
Ltmp387:
	movl	%eax, %ecx
Ltmp388:
LBB16_9:
	.loc	3 60 14
	movl	%ecx, %eax
	addq	$104, %rsp
	popq	%rbx
Ltmp389:
	popq	%r12
	popq	%r13
	popq	%r14
	popq	%r15
	popq	%rbp
	retq
Ltmp390:
Lfunc_end16:
	.cfi_endproc

	.globl	__ZN11packed_simd3v3295_$LT$impl$u20$core..fmt..Debug$u20$for$u20$packed_simd..Simd$LT$$u5b$i8$u3b$$u20$4$u5d$$GT$$GT$3fmt17he4aee78f600db1d2E
	.p2align	4, 0x90
__ZN11packed_simd3v3295_$LT$impl$u20$core..fmt..Debug$u20$for$u20$packed_simd..Simd$LT$$u5b$i8$u3b$$u20$4$u5d$$GT$$GT$3fmt17he4aee78f600db1d2E:
Lfunc_begin17:
	.loc	3 49 0
	.cfi_startproc
	pushq	%rbp
	.cfi_def_cfa_offset 16
	.cfi_offset %rbp, -16
	movq	%rsp, %rbp
	.cfi_def_cfa_register %rbp
	pushq	%r15
	pushq	%r14
	pushq	%r13
	pushq	%r12
	pushq	%rbx
	subq	$104, %rsp
	.cfi_offset %rbx, -56
	.cfi_offset %r12, -48
	.cfi_offset %r13, -40
	.cfi_offset %r14, -32
	.cfi_offset %r15, -24
	movq	%rsi, %r15
	movq	%rdi, %rbx
Ltmp391:
	.loc	3 52 17 prologue_end
	leaq	l___unnamed_8(%rip), %rax
	movq	%rax, -104(%rbp)
	leaq	__ZN44_$LT$$RF$T$u20$as$u20$core..fmt..Display$GT$3fmt17h189ab73c0bfea6d1E(%rip), %rax
	movq	%rax, -96(%rbp)
Ltmp392:
	.loc	1 328 9
	leaq	l___unnamed_2(%rip), %rax
Ltmp393:
	movq	%rax, -88(%rbp)
	movq	$2, -80(%rbp)
	movq	$0, -72(%rbp)
	leaq	-104(%rbp), %rax
Ltmp394:
	movq	%rax, -56(%rbp)
	movq	$1, -48(%rbp)
	leaq	-88(%rbp), %rsi
Ltmp395:
	.loc	3 52 17
	movq	%r15, %rdi
	callq	__ZN4core3fmt9Formatter9write_fmt17h742ca6aae87ad23cE
	movb	$1, %r14b
	.loc	3 52 50 is_stmt 0
	testb	%al, %al
	jne	LBB17_22
Ltmp396:
	.loc	3 0 0
	movd	(%rbx), %xmm0
	movdqa	%xmm0, -128(%rbp)
	movdqa	%xmm0, -144(%rbp)
	movb	-144(%rbp), %al
Ltmp397:
	.loc	3 57 21 is_stmt 1
	movb	%al, -88(%rbp)
Ltmp398:
	.loc	4 149 20
	movq	%r15, %rdi
	callq	__ZN4core3fmt9Formatter15debug_lower_hex17hd07f6fde8d0365dfE
	.loc	4 149 17 is_stmt 0
	testb	%al, %al
	je	LBB17_2
Ltmp399:
	.loc	4 0 17
	leaq	-88(%rbp), %rdi
	.loc	4 150 21 is_stmt 1
	movq	%r15, %rsi
	callq	__ZN4core3fmt3num52_$LT$impl$u20$core..fmt..LowerHex$u20$for$u20$i8$GT$3fmt17h5ba2f2472d1b08b3E
Ltmp400:
	.loc	3 57 43
	testb	%al, %al
	je	LBB17_6
	jmp	LBB17_22
Ltmp401:
LBB17_2:
	.loc	4 151 27
	movq	%r15, %rdi
	callq	__ZN4core3fmt9Formatter15debug_upper_hex17hf480c256a9c81c1eE
	leaq	-88(%rbp), %rdi
	.loc	4 154 21
	movq	%r15, %rsi
	.loc	4 151 24
	testb	%al, %al
	je	LBB17_4
Ltmp402:
	.loc	4 152 21
	callq	__ZN4core3fmt3num52_$LT$impl$u20$core..fmt..UpperHex$u20$for$u20$i8$GT$3fmt17h36a1c2413d99c98eE
Ltmp403:
	.loc	3 57 43
	testb	%al, %al
	je	LBB17_6
	jmp	LBB17_22
Ltmp404:
LBB17_4:
	.loc	4 154 21
	callq	__ZN4core3fmt3num3imp51_$LT$impl$u20$core..fmt..Display$u20$for$u20$i8$GT$3fmt17hc9fc67837369c997E
Ltmp405:
	.loc	3 57 43
	testb	%al, %al
	jne	LBB17_22
Ltmp406:
LBB17_6:
	.loc	1 328 9
	leaq	l___unnamed_3(%rip), %r13
Ltmp407:
	movq	%r13, -88(%rbp)
	movq	$1, -80(%rbp)
	movq	$0, -72(%rbp)
	leaq	l___unnamed_4(%rip), %r12
Ltmp408:
	movq	%r12, -56(%rbp)
	movq	$0, -48(%rbp)
	leaq	-88(%rbp), %rsi
Ltmp409:
	.loc	3 55 25
	movq	%r15, %rdi
	callq	__ZN4core3fmt9Formatter9write_fmt17h742ca6aae87ad23cE
	.loc	3 55 40 is_stmt 0
	testb	%al, %al
	jne	LBB17_22
Ltmp410:
	.loc	3 0 40
	movdqa	-128(%rbp), %xmm0
Ltmp411:
	.loc	5 63 36 is_stmt 1
	movd	%xmm0, %ebx
Ltmp412:
	.loc	3 57 21
	movb	%bh, -88(%rbp)
Ltmp413:
	.loc	4 149 20
	movq	%r15, %rdi
	callq	__ZN4core3fmt9Formatter15debug_lower_hex17hd07f6fde8d0365dfE
	.loc	4 149 17 is_stmt 0
	testb	%al, %al
	je	LBB17_8
Ltmp414:
	.loc	4 0 17
	leaq	-88(%rbp), %rdi
	.loc	4 150 21 is_stmt 1
	movq	%r15, %rsi
	callq	__ZN4core3fmt3num52_$LT$impl$u20$core..fmt..LowerHex$u20$for$u20$i8$GT$3fmt17h5ba2f2472d1b08b3E
	jmp	LBB17_10
Ltmp415:
LBB17_8:
	.loc	4 151 27
	movq	%r15, %rdi
	callq	__ZN4core3fmt9Formatter15debug_upper_hex17hf480c256a9c81c1eE
	leaq	-88(%rbp), %rdi
	.loc	4 152 21
	movq	%r15, %rsi
	.loc	4 151 24
	testb	%al, %al
	je	LBB17_9
Ltmp416:
	.loc	4 152 21
	callq	__ZN4core3fmt3num52_$LT$impl$u20$core..fmt..UpperHex$u20$for$u20$i8$GT$3fmt17h36a1c2413d99c98eE
	jmp	LBB17_10
Ltmp417:
LBB17_9:
	.loc	4 154 21
	callq	__ZN4core3fmt3num3imp51_$LT$impl$u20$core..fmt..Display$u20$for$u20$i8$GT$3fmt17hc9fc67837369c997E
Ltmp418:
LBB17_10:
	.loc	3 57 43
	testb	%al, %al
	jne	LBB17_22
Ltmp419:
	.loc	1 328 9
	movq	%r13, -88(%rbp)
	movq	$1, -80(%rbp)
	movq	$0, -72(%rbp)
Ltmp420:
	movq	%r12, -56(%rbp)
	movq	$0, -48(%rbp)
	leaq	-88(%rbp), %rsi
Ltmp421:
	.loc	3 55 25
	movq	%r15, %rdi
	callq	__ZN4core3fmt9Formatter9write_fmt17h742ca6aae87ad23cE
	.loc	3 55 40 is_stmt 0
	testb	%al, %al
	jne	LBB17_22
Ltmp422:
	.loc	5 63 36 is_stmt 1
	movl	%ebx, %eax
	shrl	$16, %eax
Ltmp423:
	.loc	3 57 21
	movb	%al, -88(%rbp)
Ltmp424:
	.loc	4 149 20
	movq	%r15, %rdi
	callq	__ZN4core3fmt9Formatter15debug_lower_hex17hd07f6fde8d0365dfE
	.loc	4 149 17 is_stmt 0
	testb	%al, %al
	je	LBB17_13
Ltmp425:
	.loc	4 0 17
	leaq	-88(%rbp), %rdi
	.loc	4 150 21 is_stmt 1
	movq	%r15, %rsi
	callq	__ZN4core3fmt3num52_$LT$impl$u20$core..fmt..LowerHex$u20$for$u20$i8$GT$3fmt17h5ba2f2472d1b08b3E
	jmp	LBB17_15
Ltmp426:
LBB17_13:
	.loc	4 151 27
	movq	%r15, %rdi
	callq	__ZN4core3fmt9Formatter15debug_upper_hex17hf480c256a9c81c1eE
	leaq	-88(%rbp), %rdi
	.loc	4 152 21
	movq	%r15, %rsi
	.loc	4 151 24
	testb	%al, %al
	je	LBB17_14
Ltmp427:
	.loc	4 152 21
	callq	__ZN4core3fmt3num52_$LT$impl$u20$core..fmt..UpperHex$u20$for$u20$i8$GT$3fmt17h36a1c2413d99c98eE
	jmp	LBB17_15
Ltmp428:
LBB17_14:
	.loc	4 154 21
	callq	__ZN4core3fmt3num3imp51_$LT$impl$u20$core..fmt..Display$u20$for$u20$i8$GT$3fmt17hc9fc67837369c997E
Ltmp429:
LBB17_15:
	.loc	3 57 43
	testb	%al, %al
	jne	LBB17_22
Ltmp430:
	.loc	1 328 9
	movq	%r13, -88(%rbp)
	movq	$1, -80(%rbp)
	movq	$0, -72(%rbp)
Ltmp431:
	movq	%r12, -56(%rbp)
	movq	$0, -48(%rbp)
	leaq	-88(%rbp), %rsi
Ltmp432:
	.loc	3 55 25
	movq	%r15, %rdi
	callq	__ZN4core3fmt9Formatter9write_fmt17h742ca6aae87ad23cE
	.loc	3 55 40 is_stmt 0
	testb	%al, %al
	jne	LBB17_22
Ltmp433:
	.loc	5 63 36 is_stmt 1
	shrl	$24, %ebx
Ltmp434:
	.loc	3 57 21
	movb	%bl, -88(%rbp)
Ltmp435:
	.loc	4 149 20
	movq	%r15, %rdi
	callq	__ZN4core3fmt9Formatter15debug_lower_hex17hd07f6fde8d0365dfE
	.loc	4 149 17 is_stmt 0
	testb	%al, %al
	je	LBB17_18
Ltmp436:
	.loc	4 0 17
	leaq	-88(%rbp), %rdi
	.loc	4 150 21 is_stmt 1
	movq	%r15, %rsi
	callq	__ZN4core3fmt3num52_$LT$impl$u20$core..fmt..LowerHex$u20$for$u20$i8$GT$3fmt17h5ba2f2472d1b08b3E
	jmp	LBB17_20
Ltmp437:
LBB17_18:
	.loc	4 151 27
	movq	%r15, %rdi
	callq	__ZN4core3fmt9Formatter15debug_upper_hex17hf480c256a9c81c1eE
	leaq	-88(%rbp), %rdi
	.loc	4 152 21
	movq	%r15, %rsi
	.loc	4 151 24
	testb	%al, %al
	je	LBB17_19
Ltmp438:
	.loc	4 152 21
	callq	__ZN4core3fmt3num52_$LT$impl$u20$core..fmt..UpperHex$u20$for$u20$i8$GT$3fmt17h36a1c2413d99c98eE
	jmp	LBB17_20
Ltmp439:
LBB17_19:
	.loc	4 154 21
	callq	__ZN4core3fmt3num3imp51_$LT$impl$u20$core..fmt..Display$u20$for$u20$i8$GT$3fmt17hc9fc67837369c997E
Ltmp440:
LBB17_20:
	.loc	3 57 43
	testb	%al, %al
	jne	LBB17_22
Ltmp441:
	.loc	1 328 9
	leaq	l___unnamed_5(%rip), %rax
Ltmp442:
	movq	%rax, -88(%rbp)
	movq	$1, -80(%rbp)
	movq	$0, -72(%rbp)
Ltmp443:
	movq	%r12, -56(%rbp)
	movq	$0, -48(%rbp)
	leaq	-88(%rbp), %rsi
Ltmp444:
	.loc	3 59 17
	movq	%r15, %rdi
	callq	__ZN4core3fmt9Formatter9write_fmt17h742ca6aae87ad23cE
Ltmp445:
	movl	%eax, %r14d
Ltmp446:
LBB17_22:
	.loc	3 60 14
	movl	%r14d, %eax
	addq	$104, %rsp
	popq	%rbx
	popq	%r12
	popq	%r13
	popq	%r14
	popq	%r15
Ltmp447:
	popq	%rbp
	retq
Ltmp448:
Lfunc_end17:
	.cfi_endproc

	.globl	__ZN11packed_simd3v3298_$LT$impl$u20$core..fmt..LowerHex$u20$for$u20$packed_simd..Simd$LT$$u5b$i8$u3b$$u20$4$u5d$$GT$$GT$3fmt17h4dd68bdd0e764d26E
	.p2align	4, 0x90
__ZN11packed_simd3v3298_$LT$impl$u20$core..fmt..LowerHex$u20$for$u20$packed_simd..Simd$LT$$u5b$i8$u3b$$u20$4$u5d$$GT$$GT$3fmt17h4dd68bdd0e764d26E:
Lfunc_begin18:
	.loc	6 9 0
	.cfi_startproc
	pushq	%rbp
	.cfi_def_cfa_offset 16
	.cfi_offset %rbp, -16
	movq	%rsp, %rbp
	.cfi_def_cfa_register %rbp
	pushq	%r15
	pushq	%r14
	pushq	%r13
	pushq	%r12
	pushq	%rbx
	subq	$104, %rsp
	.cfi_offset %rbx, -56
	.cfi_offset %r12, -48
	.cfi_offset %r13, -40
	.cfi_offset %r14, -32
	.cfi_offset %r15, -24
	movq	%rsi, %rbx
	movq	%rdi, %r15
Ltmp449:
	.loc	6 11 17 prologue_end
	leaq	l___unnamed_8(%rip), %rax
	movq	%rax, -104(%rbp)
	leaq	__ZN44_$LT$$RF$T$u20$as$u20$core..fmt..Display$GT$3fmt17h189ab73c0bfea6d1E(%rip), %rax
	movq	%rax, -96(%rbp)
Ltmp450:
	.loc	1 328 9
	leaq	l___unnamed_2(%rip), %rax
Ltmp451:
	movq	%rax, -88(%rbp)
	movq	$2, -80(%rbp)
	movq	$0, -72(%rbp)
	leaq	-104(%rbp), %rax
Ltmp452:
	movq	%rax, -56(%rbp)
	movq	$1, -48(%rbp)
	leaq	-88(%rbp), %rsi
Ltmp453:
	.loc	6 11 17
	movq	%rbx, %rdi
	callq	__ZN4core3fmt9Formatter9write_fmt17h742ca6aae87ad23cE
	movb	$1, %cl
	.loc	6 11 50 is_stmt 0
	testb	%al, %al
	jne	LBB18_9
Ltmp454:
	.loc	6 0 0
	movss	(%r15), %xmm0
	movaps	%xmm0, -128(%rbp)
	xorl	%r14d, %r14d
	leaq	-88(%rbp), %r15
Ltmp455:
	leaq	l___unnamed_3(%rip), %r13
	jmp	LBB18_3
Ltmp456:
	.p2align	4, 0x90
LBB18_2:
	movaps	-128(%rbp), %xmm0
Ltmp457:
	.loc	5 63 36 is_stmt 1
	movaps	%xmm0, -144(%rbp)
Ltmp458:
	.loc	6 0 0 is_stmt 0
	leaq	1(%r14), %r12
Ltmp459:
	.loc	5 63 36
	andl	$15, %r14d
Ltmp460:
	movzbl	-144(%rbp,%r14), %eax
Ltmp461:
	.loc	6 16 21 is_stmt 1
	movb	%al, -88(%rbp)
	movq	%r15, %rdi
	movq	%rbx, %rsi
	callq	__ZN4core3fmt3num52_$LT$impl$u20$core..fmt..LowerHex$u20$for$u20$i8$GT$3fmt17h5ba2f2472d1b08b3E
Ltmp462:
	.loc	6 0 0 is_stmt 0
	movq	%r12, %r14
Ltmp463:
	.loc	6 16 43
	testb	%al, %al
	jne	LBB18_8
Ltmp464:
LBB18_3:
	.loc	7 1136 52 is_stmt 1
	cmpq	$4, %r14
Ltmp465:
	.loc	8 505 9
	je	LBB18_7
Ltmp466:
	.loc	6 13 24
	testq	%r14, %r14
	.loc	6 13 21 is_stmt 0
	je	LBB18_2
Ltmp467:
	.loc	1 328 9 is_stmt 1
	movq	%r13, -88(%rbp)
	movq	$1, -80(%rbp)
	movq	$0, -72(%rbp)
Ltmp468:
	leaq	l___unnamed_4(%rip), %rax
Ltmp469:
	movq	%rax, -56(%rbp)
Ltmp470:
	movq	$0, -48(%rbp)
Ltmp471:
	.loc	6 14 25
	movq	%rbx, %rdi
	movq	%r15, %rsi
	callq	__ZN4core3fmt9Formatter9write_fmt17h742ca6aae87ad23cE
	.loc	6 14 40 is_stmt 0
	testb	%al, %al
	je	LBB18_2
Ltmp472:
LBB18_8:
	.loc	6 0 40
	movb	$1, %cl
	jmp	LBB18_9
Ltmp473:
LBB18_7:
	.loc	1 328 9 is_stmt 1
	leaq	l___unnamed_5(%rip), %rax
Ltmp474:
	movq	%rax, -88(%rbp)
	movq	$1, -80(%rbp)
	movq	$0, -72(%rbp)
Ltmp475:
	leaq	l___unnamed_4(%rip), %rax
Ltmp476:
	movq	%rax, -56(%rbp)
	movq	$0, -48(%rbp)
	leaq	-88(%rbp), %rsi
Ltmp477:
	.loc	6 18 17
	movq	%rbx, %rdi
	callq	__ZN4core3fmt9Formatter9write_fmt17h742ca6aae87ad23cE
Ltmp478:
	movl	%eax, %ecx
Ltmp479:
LBB18_9:
	.loc	6 19 14
	movl	%ecx, %eax
	addq	$104, %rsp
	popq	%rbx
Ltmp480:
	popq	%r12
	popq	%r13
	popq	%r14
	popq	%r15
	popq	%rbp
	retq
Ltmp481:
Lfunc_end18:
	.cfi_endproc

	.globl	__ZN11packed_simd3v3298_$LT$impl$u20$core..fmt..UpperHex$u20$for$u20$packed_simd..Simd$LT$$u5b$i8$u3b$$u20$4$u5d$$GT$$GT$3fmt17hc6322cb5a54b8fcfE
	.p2align	4, 0x90
__ZN11packed_simd3v3298_$LT$impl$u20$core..fmt..UpperHex$u20$for$u20$packed_simd..Simd$LT$$u5b$i8$u3b$$u20$4$u5d$$GT$$GT$3fmt17hc6322cb5a54b8fcfE:
Lfunc_begin19:
	.loc	9 9 0
	.cfi_startproc
	pushq	%rbp
	.cfi_def_cfa_offset 16
	.cfi_offset %rbp, -16
	movq	%rsp, %rbp
	.cfi_def_cfa_register %rbp
	pushq	%r15
	pushq	%r14
	pushq	%r13
	pushq	%r12
	pushq	%rbx
	subq	$104, %rsp
	.cfi_offset %rbx, -56
	.cfi_offset %r12, -48
	.cfi_offset %r13, -40
	.cfi_offset %r14, -32
	.cfi_offset %r15, -24
	movq	%rsi, %rbx
	movq	%rdi, %r15
Ltmp482:
	.loc	9 11 17 prologue_end
	leaq	l___unnamed_8(%rip), %rax
	movq	%rax, -104(%rbp)
	leaq	__ZN44_$LT$$RF$T$u20$as$u20$core..fmt..Display$GT$3fmt17h189ab73c0bfea6d1E(%rip), %rax
	movq	%rax, -96(%rbp)
Ltmp483:
	.loc	1 328 9
	leaq	l___unnamed_2(%rip), %rax
Ltmp484:
	movq	%rax, -88(%rbp)
	movq	$2, -80(%rbp)
	movq	$0, -72(%rbp)
	leaq	-104(%rbp), %rax
Ltmp485:
	movq	%rax, -56(%rbp)
	movq	$1, -48(%rbp)
	leaq	-88(%rbp), %rsi
Ltmp486:
	.loc	9 11 17
	movq	%rbx, %rdi
	callq	__ZN4core3fmt9Formatter9write_fmt17h742ca6aae87ad23cE
	movb	$1, %cl
	.loc	9 11 50 is_stmt 0
	testb	%al, %al
	jne	LBB19_9
Ltmp487:
	.loc	9 0 0
	movss	(%r15), %xmm0
	movaps	%xmm0, -128(%rbp)
	xorl	%r14d, %r14d
	leaq	-88(%rbp), %r15
Ltmp488:
	leaq	l___unnamed_3(%rip), %r13
	jmp	LBB19_3
Ltmp489:
	.p2align	4, 0x90
LBB19_2:
	movaps	-128(%rbp), %xmm0
Ltmp490:
	.loc	5 63 36 is_stmt 1
	movaps	%xmm0, -144(%rbp)
Ltmp491:
	.loc	9 0 0 is_stmt 0
	leaq	1(%r14), %r12
Ltmp492:
	.loc	5 63 36
	andl	$15, %r14d
Ltmp493:
	movzbl	-144(%rbp,%r14), %eax
Ltmp494:
	.loc	9 16 21 is_stmt 1
	movb	%al, -88(%rbp)
	movq	%r15, %rdi
	movq	%rbx, %rsi
	callq	__ZN4core3fmt3num52_$LT$impl$u20$core..fmt..UpperHex$u20$for$u20$i8$GT$3fmt17h36a1c2413d99c98eE
Ltmp495:
	.loc	9 0 0 is_stmt 0
	movq	%r12, %r14
Ltmp496:
	.loc	9 16 43
	testb	%al, %al
	jne	LBB19_8
Ltmp497:
LBB19_3:
	.loc	7 1136 52 is_stmt 1
	cmpq	$4, %r14
Ltmp498:
	.loc	8 505 9
	je	LBB19_7
Ltmp499:
	.loc	9 13 24
	testq	%r14, %r14
	.loc	9 13 21 is_stmt 0
	je	LBB19_2
Ltmp500:
	.loc	1 328 9 is_stmt 1
	movq	%r13, -88(%rbp)
	movq	$1, -80(%rbp)
	movq	$0, -72(%rbp)
Ltmp501:
	leaq	l___unnamed_4(%rip), %rax
Ltmp502:
	movq	%rax, -56(%rbp)
Ltmp503:
	movq	$0, -48(%rbp)
Ltmp504:
	.loc	9 14 25
	movq	%rbx, %rdi
	movq	%r15, %rsi
	callq	__ZN4core3fmt9Formatter9write_fmt17h742ca6aae87ad23cE
	.loc	9 14 40 is_stmt 0
	testb	%al, %al
	je	LBB19_2
Ltmp505:
LBB19_8:
	.loc	9 0 40
	movb	$1, %cl
	jmp	LBB19_9
Ltmp506:
LBB19_7:
	.loc	1 328 9 is_stmt 1
	leaq	l___unnamed_5(%rip), %rax
Ltmp507:
	movq	%rax, -88(%rbp)
	movq	$1, -80(%rbp)
	movq	$0, -72(%rbp)
Ltmp508:
	leaq	l___unnamed_4(%rip), %rax
Ltmp509:
	movq	%rax, -56(%rbp)
	movq	$0, -48(%rbp)
	leaq	-88(%rbp), %rsi
Ltmp510:
	.loc	9 18 17
	movq	%rbx, %rdi
	callq	__ZN4core3fmt9Formatter9write_fmt17h742ca6aae87ad23cE
Ltmp511:
	movl	%eax, %ecx
Ltmp512:
LBB19_9:
	.loc	9 19 14
	movl	%ecx, %eax
	addq	$104, %rsp
	popq	%rbx
Ltmp513:
	popq	%r12
	popq	%r13
	popq	%r14
	popq	%r15
	popq	%rbp
	retq
Ltmp514:
Lfunc_end19:
	.cfi_endproc

	.globl	__ZN11packed_simd3v3295_$LT$impl$u20$core..fmt..Octal$u20$for$u20$packed_simd..Simd$LT$$u5b$i8$u3b$$u20$4$u5d$$GT$$GT$3fmt17h45c8a445ce8d8b7eE
	.p2align	4, 0x90
__ZN11packed_simd3v3295_$LT$impl$u20$core..fmt..Octal$u20$for$u20$packed_simd..Simd$LT$$u5b$i8$u3b$$u20$4$u5d$$GT$$GT$3fmt17h45c8a445ce8d8b7eE:
Lfunc_begin20:
	.loc	10 9 0
	.cfi_startproc
	pushq	%rbp
	.cfi_def_cfa_offset 16
	.cfi_offset %rbp, -16
	movq	%rsp, %rbp
	.cfi_def_cfa_register %rbp
	pushq	%r15
	pushq	%r14
	pushq	%r13
	pushq	%r12
	pushq	%rbx
	subq	$104, %rsp
	.cfi_offset %rbx, -56
	.cfi_offset %r12, -48
	.cfi_offset %r13, -40
	.cfi_offset %r14, -32
	.cfi_offset %r15, -24
	movq	%rsi, %rbx
	movq	%rdi, %r15
Ltmp515:
	.loc	10 11 17 prologue_end
	leaq	l___unnamed_8(%rip), %rax
	movq	%rax, -104(%rbp)
	leaq	__ZN44_$LT$$RF$T$u20$as$u20$core..fmt..Display$GT$3fmt17h189ab73c0bfea6d1E(%rip), %rax
	movq	%rax, -96(%rbp)
Ltmp516:
	.loc	1 328 9
	leaq	l___unnamed_2(%rip), %rax
Ltmp517:
	movq	%rax, -88(%rbp)
	movq	$2, -80(%rbp)
	movq	$0, -72(%rbp)
	leaq	-104(%rbp), %rax
Ltmp518:
	movq	%rax, -56(%rbp)
	movq	$1, -48(%rbp)
	leaq	-88(%rbp), %rsi
Ltmp519:
	.loc	10 11 17
	movq	%rbx, %rdi
	callq	__ZN4core3fmt9Formatter9write_fmt17h742ca6aae87ad23cE
	movb	$1, %cl
	.loc	10 11 50 is_stmt 0
	testb	%al, %al
	jne	LBB20_9
Ltmp520:
	.loc	10 0 0
	movss	(%r15), %xmm0
	movaps	%xmm0, -128(%rbp)
	xorl	%r14d, %r14d
	leaq	-88(%rbp), %r15
Ltmp521:
	leaq	l___unnamed_3(%rip), %r13
	jmp	LBB20_3
Ltmp522:
	.p2align	4, 0x90
LBB20_2:
	movaps	-128(%rbp), %xmm0
Ltmp523:
	.loc	5 63 36 is_stmt 1
	movaps	%xmm0, -144(%rbp)
Ltmp524:
	.loc	10 0 0 is_stmt 0
	leaq	1(%r14), %r12
Ltmp525:
	.loc	5 63 36
	andl	$15, %r14d
Ltmp526:
	movzbl	-144(%rbp,%r14), %eax
Ltmp527:
	.loc	10 16 21 is_stmt 1
	movb	%al, -88(%rbp)
	movq	%r15, %rdi
	movq	%rbx, %rsi
	callq	__ZN4core3fmt3num49_$LT$impl$u20$core..fmt..Octal$u20$for$u20$i8$GT$3fmt17h22bc4fdd4bc3127cE
Ltmp528:
	.loc	10 0 0 is_stmt 0
	movq	%r12, %r14
Ltmp529:
	.loc	10 16 43
	testb	%al, %al
	jne	LBB20_8
Ltmp530:
LBB20_3:
	.loc	7 1136 52 is_stmt 1
	cmpq	$4, %r14
Ltmp531:
	.loc	8 505 9
	je	LBB20_7
Ltmp532:
	.loc	10 13 24
	testq	%r14, %r14
	.loc	10 13 21 is_stmt 0
	je	LBB20_2
Ltmp533:
	.loc	1 328 9 is_stmt 1
	movq	%r13, -88(%rbp)
	movq	$1, -80(%rbp)
	movq	$0, -72(%rbp)
Ltmp534:
	leaq	l___unnamed_4(%rip), %rax
Ltmp535:
	movq	%rax, -56(%rbp)
Ltmp536:
	movq	$0, -48(%rbp)
Ltmp537:
	.loc	10 14 25
	movq	%rbx, %rdi
	movq	%r15, %rsi
	callq	__ZN4core3fmt9Formatter9write_fmt17h742ca6aae87ad23cE
	.loc	10 14 40 is_stmt 0
	testb	%al, %al
	je	LBB20_2
Ltmp538:
LBB20_8:
	.loc	10 0 40
	movb	$1, %cl
	jmp	LBB20_9
Ltmp539:
LBB20_7:
	.loc	1 328 9 is_stmt 1
	leaq	l___unnamed_5(%rip), %rax
Ltmp540:
	movq	%rax, -88(%rbp)
	movq	$1, -80(%rbp)
	movq	$0, -72(%rbp)
Ltmp541:
	leaq	l___unnamed_4(%rip), %rax
Ltmp542:
	movq	%rax, -56(%rbp)
	movq	$0, -48(%rbp)
	leaq	-88(%rbp), %rsi
Ltmp543:
	.loc	10 18 17
	movq	%rbx, %rdi
	callq	__ZN4core3fmt9Formatter9write_fmt17h742ca6aae87ad23cE
Ltmp544:
	movl	%eax, %ecx
Ltmp545:
LBB20_9:
	.loc	10 19 14
	movl	%ecx, %eax
	addq	$104, %rsp
	popq	%rbx
Ltmp546:
	popq	%r12
	popq	%r13
	popq	%r14
	popq	%r15
	popq	%rbp
	retq
Ltmp547:
Lfunc_end20:
	.cfi_endproc

	.globl	__ZN11packed_simd3v3296_$LT$impl$u20$core..fmt..Binary$u20$for$u20$packed_simd..Simd$LT$$u5b$i8$u3b$$u20$4$u5d$$GT$$GT$3fmt17h7db64ea695cd415aE
	.p2align	4, 0x90
__ZN11packed_simd3v3296_$LT$impl$u20$core..fmt..Binary$u20$for$u20$packed_simd..Simd$LT$$u5b$i8$u3b$$u20$4$u5d$$GT$$GT$3fmt17h7db64ea695cd415aE:
Lfunc_begin21:
	.loc	11 9 0
	.cfi_startproc
	pushq	%rbp
	.cfi_def_cfa_offset 16
	.cfi_offset %rbp, -16
	movq	%rsp, %rbp
	.cfi_def_cfa_register %rbp
	pushq	%r15
	pushq	%r14
	pushq	%r13
	pushq	%r12
	pushq	%rbx
	subq	$104, %rsp
	.cfi_offset %rbx, -56
	.cfi_offset %r12, -48
	.cfi_offset %r13, -40
	.cfi_offset %r14, -32
	.cfi_offset %r15, -24
	movq	%rsi, %rbx
	movq	%rdi, %r15
Ltmp548:
	.loc	11 11 17 prologue_end
	leaq	l___unnamed_8(%rip), %rax
	movq	%rax, -104(%rbp)
	leaq	__ZN44_$LT$$RF$T$u20$as$u20$core..fmt..Display$GT$3fmt17h189ab73c0bfea6d1E(%rip), %rax
	movq	%rax, -96(%rbp)
Ltmp549:
	.loc	1 328 9
	leaq	l___unnamed_2(%rip), %rax
Ltmp550:
	movq	%rax, -88(%rbp)
	movq	$2, -80(%rbp)
	movq	$0, -72(%rbp)
	leaq	-104(%rbp), %rax
Ltmp551:
	movq	%rax, -56(%rbp)
	movq	$1, -48(%rbp)
	leaq	-88(%rbp), %rsi
Ltmp552:
	.loc	11 11 17
	movq	%rbx, %rdi
	callq	__ZN4core3fmt9Formatter9write_fmt17h742ca6aae87ad23cE
	movb	$1, %cl
	.loc	11 11 50 is_stmt 0
	testb	%al, %al
	jne	LBB21_9
Ltmp553:
	.loc	11 0 0
	movss	(%r15), %xmm0
	movaps	%xmm0, -128(%rbp)
	xorl	%r14d, %r14d
	leaq	-88(%rbp), %r15
Ltmp554:
	leaq	l___unnamed_3(%rip), %r13
	jmp	LBB21_3
Ltmp555:
	.p2align	4, 0x90
LBB21_2:
	movaps	-128(%rbp), %xmm0
Ltmp556:
	.loc	5 63 36 is_stmt 1
	movaps	%xmm0, -144(%rbp)
Ltmp557:
	.loc	11 0 0 is_stmt 0
	leaq	1(%r14), %r12
Ltmp558:
	.loc	5 63 36
	andl	$15, %r14d
Ltmp559:
	movzbl	-144(%rbp,%r14), %eax
Ltmp560:
	.loc	11 16 21 is_stmt 1
	movb	%al, -88(%rbp)
	movq	%r15, %rdi
	movq	%rbx, %rsi
	callq	__ZN4core3fmt3num50_$LT$impl$u20$core..fmt..Binary$u20$for$u20$i8$GT$3fmt17h99e877cd09afbddeE
Ltmp561:
	.loc	11 0 0 is_stmt 0
	movq	%r12, %r14
Ltmp562:
	.loc	11 16 43
	testb	%al, %al
	jne	LBB21_8
Ltmp563:
LBB21_3:
	.loc	7 1136 52 is_stmt 1
	cmpq	$4, %r14
Ltmp564:
	.loc	8 505 9
	je	LBB21_7
Ltmp565:
	.loc	11 13 24
	testq	%r14, %r14
	.loc	11 13 21 is_stmt 0
	je	LBB21_2
Ltmp566:
	.loc	1 328 9 is_stmt 1
	movq	%r13, -88(%rbp)
	movq	$1, -80(%rbp)
	movq	$0, -72(%rbp)
Ltmp567:
	leaq	l___unnamed_4(%rip), %rax
Ltmp568:
	movq	%rax, -56(%rbp)
Ltmp569:
	movq	$0, -48(%rbp)
Ltmp570:
	.loc	11 14 25
	movq	%rbx, %rdi
	movq	%r15, %rsi
	callq	__ZN4core3fmt9Formatter9write_fmt17h742ca6aae87ad23cE
	.loc	11 14 40 is_stmt 0
	testb	%al, %al
	je	LBB21_2
Ltmp571:
LBB21_8:
	.loc	11 0 40
	movb	$1, %cl
	jmp	LBB21_9
Ltmp572:
LBB21_7:
	.loc	1 328 9 is_stmt 1
	leaq	l___unnamed_5(%rip), %rax
Ltmp573:
	movq	%rax, -88(%rbp)
	movq	$1, -80(%rbp)
	movq	$0, -72(%rbp)
Ltmp574:
	leaq	l___unnamed_4(%rip), %rax
Ltmp575:
	movq	%rax, -56(%rbp)
	movq	$0, -48(%rbp)
	leaq	-88(%rbp), %rsi
Ltmp576:
	.loc	11 18 17
	movq	%rbx, %rdi
	callq	__ZN4core3fmt9Formatter9write_fmt17h742ca6aae87ad23cE
Ltmp577:
	movl	%eax, %ecx
Ltmp578:
LBB21_9:
	.loc	11 19 14
	movl	%ecx, %eax
	addq	$104, %rsp
	popq	%rbx
Ltmp579:
	popq	%r12
	popq	%r13
	popq	%r14
	popq	%r15
	popq	%rbp
	retq
Ltmp580:
Lfunc_end21:
	.cfi_endproc

	.globl	__ZN11packed_simd3v3295_$LT$impl$u20$core..fmt..Debug$u20$for$u20$packed_simd..Simd$LT$$u5b$u8$u3b$$u20$4$u5d$$GT$$GT$3fmt17h3167233cb74dddffE
	.p2align	4, 0x90
__ZN11packed_simd3v3295_$LT$impl$u20$core..fmt..Debug$u20$for$u20$packed_simd..Simd$LT$$u5b$u8$u3b$$u20$4$u5d$$GT$$GT$3fmt17h3167233cb74dddffE:
Lfunc_begin22:
	.loc	3 49 0
	.cfi_startproc
	pushq	%rbp
	.cfi_def_cfa_offset 16
	.cfi_offset %rbp, -16
	movq	%rsp, %rbp
	.cfi_def_cfa_register %rbp
	pushq	%r15
	pushq	%r14
	pushq	%r13
	pushq	%r12
	pushq	%rbx
	subq	$104, %rsp
	.cfi_offset %rbx, -56
	.cfi_offset %r12, -48
	.cfi_offset %r13, -40
	.cfi_offset %r14, -32
	.cfi_offset %r15, -24
	movq	%rsi, %r15
	movq	%rdi, %rbx
Ltmp581:
	.loc	3 52 17 prologue_end
	leaq	l___unnamed_9(%rip), %rax
	movq	%rax, -104(%rbp)
	leaq	__ZN44_$LT$$RF$T$u20$as$u20$core..fmt..Display$GT$3fmt17h189ab73c0bfea6d1E(%rip), %rax
	movq	%rax, -96(%rbp)
Ltmp582:
	.loc	1 328 9
	leaq	l___unnamed_2(%rip), %rax
Ltmp583:
	movq	%rax, -88(%rbp)
	movq	$2, -80(%rbp)
	movq	$0, -72(%rbp)
	leaq	-104(%rbp), %rax
Ltmp584:
	movq	%rax, -56(%rbp)
	movq	$1, -48(%rbp)
	leaq	-88(%rbp), %rsi
Ltmp585:
	.loc	3 52 17
	movq	%r15, %rdi
	callq	__ZN4core3fmt9Formatter9write_fmt17h742ca6aae87ad23cE
	movb	$1, %r14b
	.loc	3 52 50 is_stmt 0
	testb	%al, %al
	jne	LBB22_22
Ltmp586:
	.loc	3 0 0
	movd	(%rbx), %xmm0
	movdqa	%xmm0, -128(%rbp)
	movdqa	%xmm0, -144(%rbp)
	movb	-144(%rbp), %al
Ltmp587:
	.loc	3 57 21 is_stmt 1
	movb	%al, -88(%rbp)
Ltmp588:
	.loc	4 149 20
	movq	%r15, %rdi
	callq	__ZN4core3fmt9Formatter15debug_lower_hex17hd07f6fde8d0365dfE
	.loc	4 149 17 is_stmt 0
	testb	%al, %al
	je	LBB22_2
Ltmp589:
	.loc	4 0 17
	leaq	-88(%rbp), %rdi
	.loc	4 150 21 is_stmt 1
	movq	%r15, %rsi
	callq	__ZN4core3fmt3num52_$LT$impl$u20$core..fmt..LowerHex$u20$for$u20$u8$GT$3fmt17h35609b3cfed2e613E
Ltmp590:
	.loc	3 57 43
	testb	%al, %al
	je	LBB22_6
	jmp	LBB22_22
Ltmp591:
LBB22_2:
	.loc	4 151 27
	movq	%r15, %rdi
	callq	__ZN4core3fmt9Formatter15debug_upper_hex17hf480c256a9c81c1eE
	leaq	-88(%rbp), %rdi
	.loc	4 154 21
	movq	%r15, %rsi
	.loc	4 151 24
	testb	%al, %al
	je	LBB22_4
Ltmp592:
	.loc	4 152 21
	callq	__ZN4core3fmt3num52_$LT$impl$u20$core..fmt..UpperHex$u20$for$u20$u8$GT$3fmt17hdec4e64a988d6129E
Ltmp593:
	.loc	3 57 43
	testb	%al, %al
	je	LBB22_6
	jmp	LBB22_22
Ltmp594:
LBB22_4:
	.loc	4 154 21
	callq	__ZN4core3fmt3num3imp51_$LT$impl$u20$core..fmt..Display$u20$for$u20$u8$GT$3fmt17hac49effbf87f075dE
Ltmp595:
	.loc	3 57 43
	testb	%al, %al
	jne	LBB22_22
Ltmp596:
LBB22_6:
	.loc	1 328 9
	leaq	l___unnamed_3(%rip), %r13
Ltmp597:
	movq	%r13, -88(%rbp)
	movq	$1, -80(%rbp)
	movq	$0, -72(%rbp)
	leaq	l___unnamed_4(%rip), %r12
Ltmp598:
	movq	%r12, -56(%rbp)
	movq	$0, -48(%rbp)
	leaq	-88(%rbp), %rsi
Ltmp599:
	.loc	3 55 25
	movq	%r15, %rdi
	callq	__ZN4core3fmt9Formatter9write_fmt17h742ca6aae87ad23cE
	.loc	3 55 40 is_stmt 0
	testb	%al, %al
	jne	LBB22_22
Ltmp600:
	.loc	3 0 40
	movdqa	-128(%rbp), %xmm0
Ltmp601:
	.loc	5 63 36 is_stmt 1
	movd	%xmm0, %ebx
Ltmp602:
	.loc	3 57 21
	movb	%bh, -88(%rbp)
Ltmp603:
	.loc	4 149 20
	movq	%r15, %rdi
	callq	__ZN4core3fmt9Formatter15debug_lower_hex17hd07f6fde8d0365dfE
	.loc	4 149 17 is_stmt 0
	testb	%al, %al
	je	LBB22_8
Ltmp604:
	.loc	4 0 17
	leaq	-88(%rbp), %rdi
	.loc	4 150 21 is_stmt 1
	movq	%r15, %rsi
	callq	__ZN4core3fmt3num52_$LT$impl$u20$core..fmt..LowerHex$u20$for$u20$u8$GT$3fmt17h35609b3cfed2e613E
	jmp	LBB22_10
Ltmp605:
LBB22_8:
	.loc	4 151 27
	movq	%r15, %rdi
	callq	__ZN4core3fmt9Formatter15debug_upper_hex17hf480c256a9c81c1eE
	leaq	-88(%rbp), %rdi
	.loc	4 152 21
	movq	%r15, %rsi
	.loc	4 151 24
	testb	%al, %al
	je	LBB22_9
Ltmp606:
	.loc	4 152 21
	callq	__ZN4core3fmt3num52_$LT$impl$u20$core..fmt..UpperHex$u20$for$u20$u8$GT$3fmt17hdec4e64a988d6129E
	jmp	LBB22_10
Ltmp607:
LBB22_9:
	.loc	4 154 21
	callq	__ZN4core3fmt3num3imp51_$LT$impl$u20$core..fmt..Display$u20$for$u20$u8$GT$3fmt17hac49effbf87f075dE
Ltmp608:
LBB22_10:
	.loc	3 57 43
	testb	%al, %al
	jne	LBB22_22
Ltmp609:
	.loc	1 328 9
	movq	%r13, -88(%rbp)
	movq	$1, -80(%rbp)
	movq	$0, -72(%rbp)
Ltmp610:
	movq	%r12, -56(%rbp)
	movq	$0, -48(%rbp)
	leaq	-88(%rbp), %rsi
Ltmp611:
	.loc	3 55 25
	movq	%r15, %rdi
	callq	__ZN4core3fmt9Formatter9write_fmt17h742ca6aae87ad23cE
	.loc	3 55 40 is_stmt 0
	testb	%al, %al
	jne	LBB22_22
Ltmp612:
	.loc	5 63 36 is_stmt 1
	movl	%ebx, %eax
	shrl	$16, %eax
Ltmp613:
	.loc	3 57 21
	movb	%al, -88(%rbp)
Ltmp614:
	.loc	4 149 20
	movq	%r15, %rdi
	callq	__ZN4core3fmt9Formatter15debug_lower_hex17hd07f6fde8d0365dfE
	.loc	4 149 17 is_stmt 0
	testb	%al, %al
	je	LBB22_13
Ltmp615:
	.loc	4 0 17
	leaq	-88(%rbp), %rdi
	.loc	4 150 21 is_stmt 1
	movq	%r15, %rsi
	callq	__ZN4core3fmt3num52_$LT$impl$u20$core..fmt..LowerHex$u20$for$u20$u8$GT$3fmt17h35609b3cfed2e613E
	jmp	LBB22_15
Ltmp616:
LBB22_13:
	.loc	4 151 27
	movq	%r15, %rdi
	callq	__ZN4core3fmt9Formatter15debug_upper_hex17hf480c256a9c81c1eE
	leaq	-88(%rbp), %rdi
	.loc	4 152 21
	movq	%r15, %rsi
	.loc	4 151 24
	testb	%al, %al
	je	LBB22_14
Ltmp617:
	.loc	4 152 21
	callq	__ZN4core3fmt3num52_$LT$impl$u20$core..fmt..UpperHex$u20$for$u20$u8$GT$3fmt17hdec4e64a988d6129E
	jmp	LBB22_15
Ltmp618:
LBB22_14:
	.loc	4 154 21
	callq	__ZN4core3fmt3num3imp51_$LT$impl$u20$core..fmt..Display$u20$for$u20$u8$GT$3fmt17hac49effbf87f075dE
Ltmp619:
LBB22_15:
	.loc	3 57 43
	testb	%al, %al
	jne	LBB22_22
Ltmp620:
	.loc	1 328 9
	movq	%r13, -88(%rbp)
	movq	$1, -80(%rbp)
	movq	$0, -72(%rbp)
Ltmp621:
	movq	%r12, -56(%rbp)
	movq	$0, -48(%rbp)
	leaq	-88(%rbp), %rsi
Ltmp622:
	.loc	3 55 25
	movq	%r15, %rdi
	callq	__ZN4core3fmt9Formatter9write_fmt17h742ca6aae87ad23cE
	.loc	3 55 40 is_stmt 0
	testb	%al, %al
	jne	LBB22_22
Ltmp623:
	.loc	5 63 36 is_stmt 1
	shrl	$24, %ebx
Ltmp624:
	.loc	3 57 21
	movb	%bl, -88(%rbp)
Ltmp625:
	.loc	4 149 20
	movq	%r15, %rdi
	callq	__ZN4core3fmt9Formatter15debug_lower_hex17hd07f6fde8d0365dfE
	.loc	4 149 17 is_stmt 0
	testb	%al, %al
	je	LBB22_18
Ltmp626:
	.loc	4 0 17
	leaq	-88(%rbp), %rdi
	.loc	4 150 21 is_stmt 1
	movq	%r15, %rsi
	callq	__ZN4core3fmt3num52_$LT$impl$u20$core..fmt..LowerHex$u20$for$u20$u8$GT$3fmt17h35609b3cfed2e613E
	jmp	LBB22_20
Ltmp627:
LBB22_18:
	.loc	4 151 27
	movq	%r15, %rdi
	callq	__ZN4core3fmt9Formatter15debug_upper_hex17hf480c256a9c81c1eE
	leaq	-88(%rbp), %rdi
	.loc	4 152 21
	movq	%r15, %rsi
	.loc	4 151 24
	testb	%al, %al
	je	LBB22_19
Ltmp628:
	.loc	4 152 21
	callq	__ZN4core3fmt3num52_$LT$impl$u20$core..fmt..UpperHex$u20$for$u20$u8$GT$3fmt17hdec4e64a988d6129E
	jmp	LBB22_20
Ltmp629:
LBB22_19:
	.loc	4 154 21
	callq	__ZN4core3fmt3num3imp51_$LT$impl$u20$core..fmt..Display$u20$for$u20$u8$GT$3fmt17hac49effbf87f075dE
Ltmp630:
LBB22_20:
	.loc	3 57 43
	testb	%al, %al
	jne	LBB22_22
Ltmp631:
	.loc	1 328 9
	leaq	l___unnamed_5(%rip), %rax
Ltmp632:
	movq	%rax, -88(%rbp)
	movq	$1, -80(%rbp)
	movq	$0, -72(%rbp)
Ltmp633:
	movq	%r12, -56(%rbp)
	movq	$0, -48(%rbp)
	leaq	-88(%rbp), %rsi
Ltmp634:
	.loc	3 59 17
	movq	%r15, %rdi
	callq	__ZN4core3fmt9Formatter9write_fmt17h742ca6aae87ad23cE
Ltmp635:
	movl	%eax, %r14d
Ltmp636:
LBB22_22:
	.loc	3 60 14
	movl	%r14d, %eax
	addq	$104, %rsp
	popq	%rbx
	popq	%r12
	popq	%r13
	popq	%r14
	popq	%r15
Ltmp637:
	popq	%rbp
	retq
Ltmp638:
Lfunc_end22:
	.cfi_endproc

	.globl	__ZN11packed_simd3v3298_$LT$impl$u20$core..fmt..LowerHex$u20$for$u20$packed_simd..Simd$LT$$u5b$u8$u3b$$u20$4$u5d$$GT$$GT$3fmt17hfe021ffe2c6f5bb5E
	.p2align	4, 0x90
__ZN11packed_simd3v3298_$LT$impl$u20$core..fmt..LowerHex$u20$for$u20$packed_simd..Simd$LT$$u5b$u8$u3b$$u20$4$u5d$$GT$$GT$3fmt17hfe021ffe2c6f5bb5E:
Lfunc_begin23:
	.loc	6 9 0
	.cfi_startproc
	pushq	%rbp
	.cfi_def_cfa_offset 16
	.cfi_offset %rbp, -16
	movq	%rsp, %rbp
	.cfi_def_cfa_register %rbp
	pushq	%r15
	pushq	%r14
	pushq	%r13
	pushq	%r12
	pushq	%rbx
	subq	$104, %rsp
	.cfi_offset %rbx, -56
	.cfi_offset %r12, -48
	.cfi_offset %r13, -40
	.cfi_offset %r14, -32
	.cfi_offset %r15, -24
	movq	%rsi, %rbx
	movq	%rdi, %r15
Ltmp639:
	.loc	6 11 17 prologue_end
	leaq	l___unnamed_9(%rip), %rax
	movq	%rax, -104(%rbp)
	leaq	__ZN44_$LT$$RF$T$u20$as$u20$core..fmt..Display$GT$3fmt17h189ab73c0bfea6d1E(%rip), %rax
	movq	%rax, -96(%rbp)
Ltmp640:
	.loc	1 328 9
	leaq	l___unnamed_2(%rip), %rax
Ltmp641:
	movq	%rax, -88(%rbp)
	movq	$2, -80(%rbp)
	movq	$0, -72(%rbp)
	leaq	-104(%rbp), %rax
Ltmp642:
	movq	%rax, -56(%rbp)
	movq	$1, -48(%rbp)
	leaq	-88(%rbp), %rsi
Ltmp643:
	.loc	6 11 17
	movq	%rbx, %rdi
	callq	__ZN4core3fmt9Formatter9write_fmt17h742ca6aae87ad23cE
	movb	$1, %cl
	.loc	6 11 50 is_stmt 0
	testb	%al, %al
	jne	LBB23_9
Ltmp644:
	.loc	6 0 0
	movss	(%r15), %xmm0
	movaps	%xmm0, -128(%rbp)
	xorl	%r14d, %r14d
	leaq	-88(%rbp), %r15
Ltmp645:
	leaq	l___unnamed_3(%rip), %r13
	jmp	LBB23_3
Ltmp646:
	.p2align	4, 0x90
LBB23_2:
	movaps	-128(%rbp), %xmm0
Ltmp647:
	.loc	5 63 36 is_stmt 1
	movaps	%xmm0, -144(%rbp)
Ltmp648:
	.loc	6 0 0 is_stmt 0
	leaq	1(%r14), %r12
Ltmp649:
	.loc	5 63 36
	andl	$15, %r14d
Ltmp650:
	movzbl	-144(%rbp,%r14), %eax
Ltmp651:
	.loc	6 16 21 is_stmt 1
	movb	%al, -88(%rbp)
	movq	%r15, %rdi
	movq	%rbx, %rsi
	callq	__ZN4core3fmt3num52_$LT$impl$u20$core..fmt..LowerHex$u20$for$u20$u8$GT$3fmt17h35609b3cfed2e613E
Ltmp652:
	.loc	6 0 0 is_stmt 0
	movq	%r12, %r14
Ltmp653:
	.loc	6 16 43
	testb	%al, %al
	jne	LBB23_8
Ltmp654:
LBB23_3:
	.loc	7 1136 52 is_stmt 1
	cmpq	$4, %r14
Ltmp655:
	.loc	8 505 9
	je	LBB23_7
Ltmp656:
	.loc	6 13 24
	testq	%r14, %r14
	.loc	6 13 21 is_stmt 0
	je	LBB23_2
Ltmp657:
	.loc	1 328 9 is_stmt 1
	movq	%r13, -88(%rbp)
	movq	$1, -80(%rbp)
	movq	$0, -72(%rbp)
Ltmp658:
	leaq	l___unnamed_4(%rip), %rax
Ltmp659:
	movq	%rax, -56(%rbp)
Ltmp660:
	movq	$0, -48(%rbp)
Ltmp661:
	.loc	6 14 25
	movq	%rbx, %rdi
	movq	%r15, %rsi
	callq	__ZN4core3fmt9Formatter9write_fmt17h742ca6aae87ad23cE
	.loc	6 14 40 is_stmt 0
	testb	%al, %al
	je	LBB23_2
Ltmp662:
LBB23_8:
	.loc	6 0 40
	movb	$1, %cl
	jmp	LBB23_9
Ltmp663:
LBB23_7:
	.loc	1 328 9 is_stmt 1
	leaq	l___unnamed_5(%rip), %rax
Ltmp664:
	movq	%rax, -88(%rbp)
	movq	$1, -80(%rbp)
	movq	$0, -72(%rbp)
Ltmp665:
	leaq	l___unnamed_4(%rip), %rax
Ltmp666:
	movq	%rax, -56(%rbp)
	movq	$0, -48(%rbp)
	leaq	-88(%rbp), %rsi
Ltmp667:
	.loc	6 18 17
	movq	%rbx, %rdi
	callq	__ZN4core3fmt9Formatter9write_fmt17h742ca6aae87ad23cE
Ltmp668:
	movl	%eax, %ecx
Ltmp669:
LBB23_9:
	.loc	6 19 14
	movl	%ecx, %eax
	addq	$104, %rsp
	popq	%rbx
Ltmp670:
	popq	%r12
	popq	%r13
	popq	%r14
	popq	%r15
	popq	%rbp
	retq
Ltmp671:
Lfunc_end23:
	.cfi_endproc

	.globl	__ZN11packed_simd3v3298_$LT$impl$u20$core..fmt..UpperHex$u20$for$u20$packed_simd..Simd$LT$$u5b$u8$u3b$$u20$4$u5d$$GT$$GT$3fmt17h16e482ab50a8785fE
	.p2align	4, 0x90
__ZN11packed_simd3v3298_$LT$impl$u20$core..fmt..UpperHex$u20$for$u20$packed_simd..Simd$LT$$u5b$u8$u3b$$u20$4$u5d$$GT$$GT$3fmt17h16e482ab50a8785fE:
Lfunc_begin24:
	.loc	9 9 0
	.cfi_startproc
	pushq	%rbp
	.cfi_def_cfa_offset 16
	.cfi_offset %rbp, -16
	movq	%rsp, %rbp
	.cfi_def_cfa_register %rbp
	pushq	%r15
	pushq	%r14
	pushq	%r13
	pushq	%r12
	pushq	%rbx
	subq	$104, %rsp
	.cfi_offset %rbx, -56
	.cfi_offset %r12, -48
	.cfi_offset %r13, -40
	.cfi_offset %r14, -32
	.cfi_offset %r15, -24
	movq	%rsi, %rbx
	movq	%rdi, %r15
Ltmp672:
	.loc	9 11 17 prologue_end
	leaq	l___unnamed_9(%rip), %rax
	movq	%rax, -104(%rbp)
	leaq	__ZN44_$LT$$RF$T$u20$as$u20$core..fmt..Display$GT$3fmt17h189ab73c0bfea6d1E(%rip), %rax
	movq	%rax, -96(%rbp)
Ltmp673:
	.loc	1 328 9
	leaq	l___unnamed_2(%rip), %rax
Ltmp674:
	movq	%rax, -88(%rbp)
	movq	$2, -80(%rbp)
	movq	$0, -72(%rbp)
	leaq	-104(%rbp), %rax
Ltmp675:
	movq	%rax, -56(%rbp)
	movq	$1, -48(%rbp)
	leaq	-88(%rbp), %rsi
Ltmp676:
	.loc	9 11 17
	movq	%rbx, %rdi
	callq	__ZN4core3fmt9Formatter9write_fmt17h742ca6aae87ad23cE
	movb	$1, %cl
	.loc	9 11 50 is_stmt 0
	testb	%al, %al
	jne	LBB24_9
Ltmp677:
	.loc	9 0 0
	movss	(%r15), %xmm0
	movaps	%xmm0, -128(%rbp)
	xorl	%r14d, %r14d
	leaq	-88(%rbp), %r15
Ltmp678:
	leaq	l___unnamed_3(%rip), %r13
	jmp	LBB24_3
Ltmp679:
	.p2align	4, 0x90
LBB24_2:
	movaps	-128(%rbp), %xmm0
Ltmp680:
	.loc	5 63 36 is_stmt 1
	movaps	%xmm0, -144(%rbp)
Ltmp681:
	.loc	9 0 0 is_stmt 0
	leaq	1(%r14), %r12
Ltmp682:
	.loc	5 63 36
	andl	$15, %r14d
Ltmp683:
	movzbl	-144(%rbp,%r14), %eax
Ltmp684:
	.loc	9 16 21 is_stmt 1
	movb	%al, -88(%rbp)
	movq	%r15, %rdi
	movq	%rbx, %rsi
	callq	__ZN4core3fmt3num52_$LT$impl$u20$core..fmt..UpperHex$u20$for$u20$u8$GT$3fmt17hdec4e64a988d6129E
Ltmp685:
	.loc	9 0 0 is_stmt 0
	movq	%r12, %r14
Ltmp686:
	.loc	9 16 43
	testb	%al, %al
	jne	LBB24_8
Ltmp687:
LBB24_3:
	.loc	7 1136 52 is_stmt 1
	cmpq	$4, %r14
Ltmp688:
	.loc	8 505 9
	je	LBB24_7
Ltmp689:
	.loc	9 13 24
	testq	%r14, %r14
	.loc	9 13 21 is_stmt 0
	je	LBB24_2
Ltmp690:
	.loc	1 328 9 is_stmt 1
	movq	%r13, -88(%rbp)
	movq	$1, -80(%rbp)
	movq	$0, -72(%rbp)
Ltmp691:
	leaq	l___unnamed_4(%rip), %rax
Ltmp692:
	movq	%rax, -56(%rbp)
Ltmp693:
	movq	$0, -48(%rbp)
Ltmp694:
	.loc	9 14 25
	movq	%rbx, %rdi
	movq	%r15, %rsi
	callq	__ZN4core3fmt9Formatter9write_fmt17h742ca6aae87ad23cE
	.loc	9 14 40 is_stmt 0
	testb	%al, %al
	je	LBB24_2
Ltmp695:
LBB24_8:
	.loc	9 0 40
	movb	$1, %cl
	jmp	LBB24_9
Ltmp696:
LBB24_7:
	.loc	1 328 9 is_stmt 1
	leaq	l___unnamed_5(%rip), %rax
Ltmp697:
	movq	%rax, -88(%rbp)
	movq	$1, -80(%rbp)
	movq	$0, -72(%rbp)
Ltmp698:
	leaq	l___unnamed_4(%rip), %rax
Ltmp699:
	movq	%rax, -56(%rbp)
	movq	$0, -48(%rbp)
	leaq	-88(%rbp), %rsi
Ltmp700:
	.loc	9 18 17
	movq	%rbx, %rdi
	callq	__ZN4core3fmt9Formatter9write_fmt17h742ca6aae87ad23cE
Ltmp701:
	movl	%eax, %ecx
Ltmp702:
LBB24_9:
	.loc	9 19 14
	movl	%ecx, %eax
	addq	$104, %rsp
	popq	%rbx
Ltmp703:
	popq	%r12
	popq	%r13
	popq	%r14
	popq	%r15
	popq	%rbp
	retq
Ltmp704:
Lfunc_end24:
	.cfi_endproc

	.globl	__ZN11packed_simd3v3295_$LT$impl$u20$core..fmt..Octal$u20$for$u20$packed_simd..Simd$LT$$u5b$u8$u3b$$u20$4$u5d$$GT$$GT$3fmt17h9cba9b42eda0c592E
	.p2align	4, 0x90
__ZN11packed_simd3v3295_$LT$impl$u20$core..fmt..Octal$u20$for$u20$packed_simd..Simd$LT$$u5b$u8$u3b$$u20$4$u5d$$GT$$GT$3fmt17h9cba9b42eda0c592E:
Lfunc_begin25:
	.loc	10 9 0
	.cfi_startproc
	pushq	%rbp
	.cfi_def_cfa_offset 16
	.cfi_offset %rbp, -16
	movq	%rsp, %rbp
	.cfi_def_cfa_register %rbp
	pushq	%r15
	pushq	%r14
	pushq	%r13
	pushq	%r12
	pushq	%rbx
	subq	$104, %rsp
	.cfi_offset %rbx, -56
	.cfi_offset %r12, -48
	.cfi_offset %r13, -40
	.cfi_offset %r14, -32
	.cfi_offset %r15, -24
	movq	%rsi, %rbx
	movq	%rdi, %r15
Ltmp705:
	.loc	10 11 17 prologue_end
	leaq	l___unnamed_9(%rip), %rax
	movq	%rax, -104(%rbp)
	leaq	__ZN44_$LT$$RF$T$u20$as$u20$core..fmt..Display$GT$3fmt17h189ab73c0bfea6d1E(%rip), %rax
	movq	%rax, -96(%rbp)
Ltmp706:
	.loc	1 328 9
	leaq	l___unnamed_2(%rip), %rax
Ltmp707:
	movq	%rax, -88(%rbp)
	movq	$2, -80(%rbp)
	movq	$0, -72(%rbp)
	leaq	-104(%rbp), %rax
Ltmp708:
	movq	%rax, -56(%rbp)
	movq	$1, -48(%rbp)
	leaq	-88(%rbp), %rsi
Ltmp709:
	.loc	10 11 17
	movq	%rbx, %rdi
	callq	__ZN4core3fmt9Formatter9write_fmt17h742ca6aae87ad23cE
	movb	$1, %cl
	.loc	10 11 50 is_stmt 0
	testb	%al, %al
	jne	LBB25_9
Ltmp710:
	.loc	10 0 0
	movss	(%r15), %xmm0
	movaps	%xmm0, -128(%rbp)
	xorl	%r14d, %r14d
	leaq	-88(%rbp), %r15
Ltmp711:
	leaq	l___unnamed_3(%rip), %r13
	jmp	LBB25_3
Ltmp712:
	.p2align	4, 0x90
LBB25_2:
	movaps	-128(%rbp), %xmm0
Ltmp713:
	.loc	5 63 36 is_stmt 1
	movaps	%xmm0, -144(%rbp)
Ltmp714:
	.loc	10 0 0 is_stmt 0
	leaq	1(%r14), %r12
Ltmp715:
	.loc	5 63 36
	andl	$15, %r14d
Ltmp716:
	movzbl	-144(%rbp,%r14), %eax
Ltmp717:
	.loc	10 16 21 is_stmt 1
	movb	%al, -88(%rbp)
	movq	%r15, %rdi
	movq	%rbx, %rsi
	callq	__ZN4core3fmt3num49_$LT$impl$u20$core..fmt..Octal$u20$for$u20$u8$GT$3fmt17hf7600dd9a4d32e44E
Ltmp718:
	.loc	10 0 0 is_stmt 0
	movq	%r12, %r14
Ltmp719:
	.loc	10 16 43
	testb	%al, %al
	jne	LBB25_8
Ltmp720:
LBB25_3:
	.loc	7 1136 52 is_stmt 1
	cmpq	$4, %r14
Ltmp721:
	.loc	8 505 9
	je	LBB25_7
Ltmp722:
	.loc	10 13 24
	testq	%r14, %r14
	.loc	10 13 21 is_stmt 0
	je	LBB25_2
Ltmp723:
	.loc	1 328 9 is_stmt 1
	movq	%r13, -88(%rbp)
	movq	$1, -80(%rbp)
	movq	$0, -72(%rbp)
Ltmp724:
	leaq	l___unnamed_4(%rip), %rax
Ltmp725:
	movq	%rax, -56(%rbp)
Ltmp726:
	movq	$0, -48(%rbp)
Ltmp727:
	.loc	10 14 25
	movq	%rbx, %rdi
	movq	%r15, %rsi
	callq	__ZN4core3fmt9Formatter9write_fmt17h742ca6aae87ad23cE
	.loc	10 14 40 is_stmt 0
	testb	%al, %al
	je	LBB25_2
Ltmp728:
LBB25_8:
	.loc	10 0 40
	movb	$1, %cl
	jmp	LBB25_9
Ltmp729:
LBB25_7:
	.loc	1 328 9 is_stmt 1
	leaq	l___unnamed_5(%rip), %rax
Ltmp730:
	movq	%rax, -88(%rbp)
	movq	$1, -80(%rbp)
	movq	$0, -72(%rbp)
Ltmp731:
	leaq	l___unnamed_4(%rip), %rax
Ltmp732:
	movq	%rax, -56(%rbp)
	movq	$0, -48(%rbp)
	leaq	-88(%rbp), %rsi
Ltmp733:
	.loc	10 18 17
	movq	%rbx, %rdi
	callq	__ZN4core3fmt9Formatter9write_fmt17h742ca6aae87ad23cE
Ltmp734:
	movl	%eax, %ecx
Ltmp735:
LBB25_9:
	.loc	10 19 14
	movl	%ecx, %eax
	addq	$104, %rsp
	popq	%rbx
Ltmp736:
	popq	%r12
	popq	%r13
	popq	%r14
	popq	%r15
	popq	%rbp
	retq
Ltmp737:
Lfunc_end25:
	.cfi_endproc

	.globl	__ZN11packed_simd3v3296_$LT$impl$u20$core..fmt..Binary$u20$for$u20$packed_simd..Simd$LT$$u5b$u8$u3b$$u20$4$u5d$$GT$$GT$3fmt17h96f37af58029b7eeE
	.p2align	4, 0x90
__ZN11packed_simd3v3296_$LT$impl$u20$core..fmt..Binary$u20$for$u20$packed_simd..Simd$LT$$u5b$u8$u3b$$u20$4$u5d$$GT$$GT$3fmt17h96f37af58029b7eeE:
Lfunc_begin26:
	.loc	11 9 0
	.cfi_startproc
	pushq	%rbp
	.cfi_def_cfa_offset 16
	.cfi_offset %rbp, -16
	movq	%rsp, %rbp
	.cfi_def_cfa_register %rbp
	pushq	%r15
	pushq	%r14
	pushq	%r13
	pushq	%r12
	pushq	%rbx
	subq	$104, %rsp
	.cfi_offset %rbx, -56
	.cfi_offset %r12, -48
	.cfi_offset %r13, -40
	.cfi_offset %r14, -32
	.cfi_offset %r15, -24
	movq	%rsi, %rbx
	movq	%rdi, %r15
Ltmp738:
	.loc	11 11 17 prologue_end
	leaq	l___unnamed_9(%rip), %rax
	movq	%rax, -104(%rbp)
	leaq	__ZN44_$LT$$RF$T$u20$as$u20$core..fmt..Display$GT$3fmt17h189ab73c0bfea6d1E(%rip), %rax
	movq	%rax, -96(%rbp)
Ltmp739:
	.loc	1 328 9
	leaq	l___unnamed_2(%rip), %rax
Ltmp740:
	movq	%rax, -88(%rbp)
	movq	$2, -80(%rbp)
	movq	$0, -72(%rbp)
	leaq	-104(%rbp), %rax
Ltmp741:
	movq	%rax, -56(%rbp)
	movq	$1, -48(%rbp)
	leaq	-88(%rbp), %rsi
Ltmp742:
	.loc	11 11 17
	movq	%rbx, %rdi
	callq	__ZN4core3fmt9Formatter9write_fmt17h742ca6aae87ad23cE
	movb	$1, %cl
	.loc	11 11 50 is_stmt 0
	testb	%al, %al
	jne	LBB26_9
Ltmp743:
	.loc	11 0 0
	movss	(%r15), %xmm0
	movaps	%xmm0, -128(%rbp)
	xorl	%r14d, %r14d
	leaq	-88(%rbp), %r15
Ltmp744:
	leaq	l___unnamed_3(%rip), %r13
	jmp	LBB26_3
Ltmp745:
	.p2align	4, 0x90
LBB26_2:
	movaps	-128(%rbp), %xmm0
Ltmp746:
	.loc	5 63 36 is_stmt 1
	movaps	%xmm0, -144(%rbp)
Ltmp747:
	.loc	11 0 0 is_stmt 0
	leaq	1(%r14), %r12
Ltmp748:
	.loc	5 63 36
	andl	$15, %r14d
Ltmp749:
	movzbl	-144(%rbp,%r14), %eax
Ltmp750:
	.loc	11 16 21 is_stmt 1
	movb	%al, -88(%rbp)
	movq	%r15, %rdi
	movq	%rbx, %rsi
	callq	__ZN4core3fmt3num50_$LT$impl$u20$core..fmt..Binary$u20$for$u20$u8$GT$3fmt17h34ba181458cacf9cE
Ltmp751:
	.loc	11 0 0 is_stmt 0
	movq	%r12, %r14
Ltmp752:
	.loc	11 16 43
	testb	%al, %al
	jne	LBB26_8
Ltmp753:
LBB26_3:
	.loc	7 1136 52 is_stmt 1
	cmpq	$4, %r14
Ltmp754:
	.loc	8 505 9
	je	LBB26_7
Ltmp755:
	.loc	11 13 24
	testq	%r14, %r14
	.loc	11 13 21 is_stmt 0
	je	LBB26_2
Ltmp756:
	.loc	1 328 9 is_stmt 1
	movq	%r13, -88(%rbp)
	movq	$1, -80(%rbp)
	movq	$0, -72(%rbp)
Ltmp757:
	leaq	l___unnamed_4(%rip), %rax
Ltmp758:
	movq	%rax, -56(%rbp)
Ltmp759:
	movq	$0, -48(%rbp)
Ltmp760:
	.loc	11 14 25
	movq	%rbx, %rdi
	movq	%r15, %rsi
	callq	__ZN4core3fmt9Formatter9write_fmt17h742ca6aae87ad23cE
	.loc	11 14 40 is_stmt 0
	testb	%al, %al
	je	LBB26_2
Ltmp761:
LBB26_8:
	.loc	11 0 40
	movb	$1, %cl
	jmp	LBB26_9
Ltmp762:
LBB26_7:
	.loc	1 328 9 is_stmt 1
	leaq	l___unnamed_5(%rip), %rax
Ltmp763:
	movq	%rax, -88(%rbp)
	movq	$1, -80(%rbp)
	movq	$0, -72(%rbp)
Ltmp764:
	leaq	l___unnamed_4(%rip), %rax
Ltmp765:
	movq	%rax, -56(%rbp)
	movq	$0, -48(%rbp)
	leaq	-88(%rbp), %rsi
Ltmp766:
	.loc	11 18 17
	movq	%rbx, %rdi
	callq	__ZN4core3fmt9Formatter9write_fmt17h742ca6aae87ad23cE
Ltmp767:
	movl	%eax, %ecx
Ltmp768:
LBB26_9:
	.loc	11 19 14
	movl	%ecx, %eax
	addq	$104, %rsp
	popq	%rbx
Ltmp769:
	popq	%r12
	popq	%r13
	popq	%r14
	popq	%r15
	popq	%rbp
	retq
Ltmp770:
Lfunc_end26:
	.cfi_endproc

	.globl	__ZN11packed_simd3v32115_$LT$impl$u20$core..fmt..Debug$u20$for$u20$packed_simd..Simd$LT$$u5b$packed_simd..masks..m8$u3b$$u20$4$u5d$$GT$$GT$3fmt17hbdf9eea8433ba8a9E
	.p2align	4, 0x90
__ZN11packed_simd3v32115_$LT$impl$u20$core..fmt..Debug$u20$for$u20$packed_simd..Simd$LT$$u5b$packed_simd..masks..m8$u3b$$u20$4$u5d$$GT$$GT$3fmt17hbdf9eea8433ba8a9E:
Lfunc_begin27:
	.loc	3 49 0
	.cfi_startproc
	pushq	%rbp
	.cfi_def_cfa_offset 16
	.cfi_offset %rbp, -16
	movq	%rsp, %rbp
	.cfi_def_cfa_register %rbp
	pushq	%r15
	pushq	%r14
	pushq	%r13
	pushq	%r12
	pushq	%rbx
	subq	$104, %rsp
	.cfi_offset %rbx, -56
	.cfi_offset %r12, -48
	.cfi_offset %r13, -40
	.cfi_offset %r14, -32
	.cfi_offset %r15, -24
	movq	%rsi, %rbx
	movq	%rdi, %r15
Ltmp771:
	.loc	3 52 17 prologue_end
	leaq	l___unnamed_10(%rip), %rax
	movq	%rax, -104(%rbp)
	leaq	__ZN44_$LT$$RF$T$u20$as$u20$core..fmt..Display$GT$3fmt17h189ab73c0bfea6d1E(%rip), %rax
	movq	%rax, -96(%rbp)
Ltmp772:
	.loc	1 328 9
	leaq	l___unnamed_2(%rip), %rax
Ltmp773:
	movq	%rax, -88(%rbp)
	movq	$2, -80(%rbp)
	movq	$0, -72(%rbp)
	leaq	-104(%rbp), %rax
Ltmp774:
	movq	%rax, -56(%rbp)
	movq	$1, -48(%rbp)
	leaq	-88(%rbp), %rsi
Ltmp775:
	.loc	3 52 17
	movq	%rbx, %rdi
	callq	__ZN4core3fmt9Formatter9write_fmt17h742ca6aae87ad23cE
	movb	$1, %cl
	.loc	3 52 50 is_stmt 0
	testb	%al, %al
	jne	LBB27_9
Ltmp776:
	.loc	3 0 0
	movss	(%r15), %xmm0
	movaps	%xmm0, -128(%rbp)
	xorl	%r14d, %r14d
	leaq	-88(%rbp), %r15
Ltmp777:
	leaq	l___unnamed_3(%rip), %r13
	jmp	LBB27_3
Ltmp778:
	.p2align	4, 0x90
LBB27_2:
	movaps	-128(%rbp), %xmm0
Ltmp779:
	.loc	12 67 36 is_stmt 1
	movaps	%xmm0, -144(%rbp)
Ltmp780:
	.loc	3 0 0 is_stmt 0
	leaq	1(%r14), %r12
Ltmp781:
	.loc	12 67 36
	andl	$15, %r14d
Ltmp782:
	.loc	12 68 17 is_stmt 1
	cmpb	$0, -144(%rbp,%r14)
Ltmp783:
	.loc	3 57 21
	setne	-88(%rbp)
Ltmp784:
	.loc	1 2052 9
	movq	%r15, %rdi
	movq	%rbx, %rsi
	callq	__ZN43_$LT$bool$u20$as$u20$core..fmt..Display$GT$3fmt17hd78396651a24cfbbE
Ltmp785:
	.loc	3 0 0 is_stmt 0
	movq	%r12, %r14
Ltmp786:
	.loc	3 57 43 is_stmt 1
	testb	%al, %al
	jne	LBB27_8
Ltmp787:
LBB27_3:
	.loc	7 1136 52
	cmpq	$4, %r14
Ltmp788:
	.loc	8 505 9
	je	LBB27_7
Ltmp789:
	.loc	3 54 24
	testq	%r14, %r14
	.loc	3 54 21 is_stmt 0
	je	LBB27_2
Ltmp790:
	.loc	1 328 9 is_stmt 1
	movq	%r13, -88(%rbp)
	movq	$1, -80(%rbp)
	movq	$0, -72(%rbp)
Ltmp791:
	leaq	l___unnamed_4(%rip), %rax
Ltmp792:
	movq	%rax, -56(%rbp)
Ltmp793:
	movq	$0, -48(%rbp)
Ltmp794:
	.loc	3 55 25
	movq	%rbx, %rdi
	movq	%r15, %rsi
	callq	__ZN4core3fmt9Formatter9write_fmt17h742ca6aae87ad23cE
	.loc	3 55 40 is_stmt 0
	testb	%al, %al
	je	LBB27_2
Ltmp795:
LBB27_8:
	.loc	3 0 40
	movb	$1, %cl
	jmp	LBB27_9
Ltmp796:
LBB27_7:
	.loc	1 328 9 is_stmt 1
	leaq	l___unnamed_5(%rip), %rax
Ltmp797:
	movq	%rax, -88(%rbp)
	movq	$1, -80(%rbp)
	movq	$0, -72(%rbp)
Ltmp798:
	leaq	l___unnamed_4(%rip), %rax
Ltmp799:
	movq	%rax, -56(%rbp)
	movq	$0, -48(%rbp)
	leaq	-88(%rbp), %rsi
Ltmp800:
	.loc	3 59 17
	movq	%rbx, %rdi
	callq	__ZN4core3fmt9Formatter9write_fmt17h742ca6aae87ad23cE
Ltmp801:
	movl	%eax, %ecx
Ltmp802:
LBB27_9:
	.loc	3 60 14
	movl	%ecx, %eax
	addq	$104, %rsp
	popq	%rbx
Ltmp803:
	popq	%r12
	popq	%r13
	popq	%r14
	popq	%r15
	popq	%rbp
	retq
Ltmp804:
Lfunc_end27:
	.cfi_endproc

	.globl	__ZN11packed_simd3v3296_$LT$impl$u20$core..fmt..Debug$u20$for$u20$packed_simd..Simd$LT$$u5b$i16$u3b$$u20$2$u5d$$GT$$GT$3fmt17hc299d784b220912cE
	.p2align	4, 0x90
__ZN11packed_simd3v3296_$LT$impl$u20$core..fmt..Debug$u20$for$u20$packed_simd..Simd$LT$$u5b$i16$u3b$$u20$2$u5d$$GT$$GT$3fmt17hc299d784b220912cE:
Lfunc_begin28:
	.loc	3 49 0
	.cfi_startproc
	pushq	%rbp
	.cfi_def_cfa_offset 16
	.cfi_offset %rbp, -16
	movq	%rsp, %rbp
	.cfi_def_cfa_register %rbp
	pushq	%r15
	pushq	%r14
	pushq	%r12
	pushq	%rbx
	subq	$64, %rsp
	.cfi_offset %rbx, -48
	.cfi_offset %r12, -40
	.cfi_offset %r14, -32
	.cfi_offset %r15, -24
	movq	%rsi, %r15
	movq	%rdi, %rbx
Ltmp805:
	.loc	3 52 17 prologue_end
	leaq	l___unnamed_11(%rip), %rax
	movq	%rax, -96(%rbp)
	leaq	__ZN44_$LT$$RF$T$u20$as$u20$core..fmt..Display$GT$3fmt17h189ab73c0bfea6d1E(%rip), %rax
	movq	%rax, -88(%rbp)
Ltmp806:
	.loc	1 328 9
	leaq	l___unnamed_2(%rip), %rax
Ltmp807:
	movq	%rax, -80(%rbp)
	movq	$2, -72(%rbp)
	movq	$0, -64(%rbp)
	leaq	-96(%rbp), %rax
Ltmp808:
	movq	%rax, -48(%rbp)
	movq	$1, -40(%rbp)
	leaq	-80(%rbp), %rsi
Ltmp809:
	.loc	3 52 17
	movq	%r15, %rdi
	callq	__ZN4core3fmt9Formatter9write_fmt17h742ca6aae87ad23cE
	movb	$1, %r14b
	.loc	3 52 50 is_stmt 0
	testb	%al, %al
	jne	LBB28_12
Ltmp810:
	.loc	3 0 0
	movl	(%rbx), %ebx
Ltmp811:
	.loc	3 57 21 is_stmt 1
	movw	%bx, -80(%rbp)
Ltmp812:
	.loc	4 149 20
	movq	%r15, %rdi
	callq	__ZN4core3fmt9Formatter15debug_lower_hex17hd07f6fde8d0365dfE
	.loc	4 149 17 is_stmt 0
	testb	%al, %al
	je	LBB28_2
Ltmp813:
	.loc	4 0 17
	leaq	-80(%rbp), %rdi
	.loc	4 150 21 is_stmt 1
	movq	%r15, %rsi
	callq	__ZN4core3fmt3num53_$LT$impl$u20$core..fmt..LowerHex$u20$for$u20$i16$GT$3fmt17h7236122704e16c86E
Ltmp814:
	.loc	3 57 43
	testb	%al, %al
	je	LBB28_6
	jmp	LBB28_12
Ltmp815:
LBB28_2:
	.loc	4 151 27
	movq	%r15, %rdi
	callq	__ZN4core3fmt9Formatter15debug_upper_hex17hf480c256a9c81c1eE
	leaq	-80(%rbp), %rdi
	.loc	4 154 21
	movq	%r15, %rsi
	.loc	4 151 24
	testb	%al, %al
	je	LBB28_4
Ltmp816:
	.loc	4 152 21
	callq	__ZN4core3fmt3num53_$LT$impl$u20$core..fmt..UpperHex$u20$for$u20$i16$GT$3fmt17hf50bc938a2a1e02bE
Ltmp817:
	.loc	3 57 43
	testb	%al, %al
	je	LBB28_6
	jmp	LBB28_12
Ltmp818:
LBB28_4:
	.loc	4 154 21
	callq	__ZN4core3fmt3num3imp52_$LT$impl$u20$core..fmt..Display$u20$for$u20$i16$GT$3fmt17h7c7135e52a8bf68aE
Ltmp819:
	.loc	3 57 43
	testb	%al, %al
	jne	LBB28_12
Ltmp820:
LBB28_6:
	.loc	1 328 9
	leaq	l___unnamed_3(%rip), %rax
Ltmp821:
	movq	%rax, -80(%rbp)
	movq	$1, -72(%rbp)
	movq	$0, -64(%rbp)
	leaq	l___unnamed_4(%rip), %r12
Ltmp822:
	movq	%r12, -48(%rbp)
	movq	$0, -40(%rbp)
	leaq	-80(%rbp), %rsi
Ltmp823:
	.loc	3 55 25
	movq	%r15, %rdi
	callq	__ZN4core3fmt9Formatter9write_fmt17h742ca6aae87ad23cE
Ltmp824:
	.loc	3 55 40 is_stmt 0
	testb	%al, %al
	jne	LBB28_12
Ltmp825:
	.loc	3 0 0
	movd	%ebx, %xmm0
Ltmp826:
	.loc	5 63 36 is_stmt 1
	pextrw	$1, %xmm0, %eax
Ltmp827:
	.loc	3 57 21
	movw	%ax, -80(%rbp)
Ltmp828:
	.loc	4 149 20
	movq	%r15, %rdi
	callq	__ZN4core3fmt9Formatter15debug_lower_hex17hd07f6fde8d0365dfE
	.loc	4 149 17 is_stmt 0
	testb	%al, %al
	je	LBB28_8
Ltmp829:
	.loc	4 0 17
	leaq	-80(%rbp), %rdi
	.loc	4 150 21 is_stmt 1
	movq	%r15, %rsi
	callq	__ZN4core3fmt3num53_$LT$impl$u20$core..fmt..LowerHex$u20$for$u20$i16$GT$3fmt17h7236122704e16c86E
	jmp	LBB28_10
Ltmp830:
LBB28_8:
	.loc	4 151 27
	movq	%r15, %rdi
	callq	__ZN4core3fmt9Formatter15debug_upper_hex17hf480c256a9c81c1eE
	leaq	-80(%rbp), %rdi
	.loc	4 152 21
	movq	%r15, %rsi
	.loc	4 151 24
	testb	%al, %al
	je	LBB28_9
Ltmp831:
	.loc	4 152 21
	callq	__ZN4core3fmt3num53_$LT$impl$u20$core..fmt..UpperHex$u20$for$u20$i16$GT$3fmt17hf50bc938a2a1e02bE
	jmp	LBB28_10
Ltmp832:
LBB28_9:
	.loc	4 154 21
	callq	__ZN4core3fmt3num3imp52_$LT$impl$u20$core..fmt..Display$u20$for$u20$i16$GT$3fmt17h7c7135e52a8bf68aE
Ltmp833:
LBB28_10:
	.loc	3 57 43
	testb	%al, %al
	jne	LBB28_12
Ltmp834:
	.loc	1 328 9
	leaq	l___unnamed_5(%rip), %rax
Ltmp835:
	movq	%rax, -80(%rbp)
	movq	$1, -72(%rbp)
	movq	$0, -64(%rbp)
Ltmp836:
	movq	%r12, -48(%rbp)
	movq	$0, -40(%rbp)
	leaq	-80(%rbp), %rsi
Ltmp837:
	.loc	3 59 17
	movq	%r15, %rdi
	callq	__ZN4core3fmt9Formatter9write_fmt17h742ca6aae87ad23cE
Ltmp838:
	movl	%eax, %r14d
Ltmp839:
LBB28_12:
	.loc	3 60 14
	movl	%r14d, %eax
	addq	$64, %rsp
	popq	%rbx
	popq	%r12
	popq	%r14
	popq	%r15
Ltmp840:
	popq	%rbp
	retq
Ltmp841:
Lfunc_end28:
	.cfi_endproc

	.globl	__ZN11packed_simd3v3299_$LT$impl$u20$core..fmt..LowerHex$u20$for$u20$packed_simd..Simd$LT$$u5b$i16$u3b$$u20$2$u5d$$GT$$GT$3fmt17h689bcd36b7b7ba8cE
	.p2align	4, 0x90
__ZN11packed_simd3v3299_$LT$impl$u20$core..fmt..LowerHex$u20$for$u20$packed_simd..Simd$LT$$u5b$i16$u3b$$u20$2$u5d$$GT$$GT$3fmt17h689bcd36b7b7ba8cE:
Lfunc_begin29:
	.loc	6 9 0
	.cfi_startproc
	pushq	%rbp
	.cfi_def_cfa_offset 16
	.cfi_offset %rbp, -16
	movq	%rsp, %rbp
	.cfi_def_cfa_register %rbp
	pushq	%r15
	pushq	%r14
	pushq	%r13
	pushq	%r12
	pushq	%rbx
	subq	$104, %rsp
	.cfi_offset %rbx, -56
	.cfi_offset %r12, -48
	.cfi_offset %r13, -40
	.cfi_offset %r14, -32
	.cfi_offset %r15, -24
	movq	%rsi, %rbx
	movq	%rdi, %r15
Ltmp842:
	.loc	6 11 17 prologue_end
	leaq	l___unnamed_11(%rip), %rax
	movq	%rax, -104(%rbp)
	leaq	__ZN44_$LT$$RF$T$u20$as$u20$core..fmt..Display$GT$3fmt17h189ab73c0bfea6d1E(%rip), %rax
	movq	%rax, -96(%rbp)
Ltmp843:
	.loc	1 328 9
	leaq	l___unnamed_2(%rip), %rax
Ltmp844:
	movq	%rax, -88(%rbp)
	movq	$2, -80(%rbp)
	movq	$0, -72(%rbp)
	leaq	-104(%rbp), %rax
Ltmp845:
	movq	%rax, -56(%rbp)
	movq	$1, -48(%rbp)
	leaq	-88(%rbp), %rsi
Ltmp846:
	.loc	6 11 17
	movq	%rbx, %rdi
	callq	__ZN4core3fmt9Formatter9write_fmt17h742ca6aae87ad23cE
	movb	$1, %cl
	.loc	6 11 50 is_stmt 0
	testb	%al, %al
	jne	LBB29_9
Ltmp847:
	.loc	6 0 0
	movss	(%r15), %xmm0
	movaps	%xmm0, -128(%rbp)
	xorl	%r14d, %r14d
	leaq	-88(%rbp), %r15
Ltmp848:
	leaq	l___unnamed_3(%rip), %r13
	jmp	LBB29_3
Ltmp849:
	.p2align	4, 0x90
LBB29_2:
	movaps	-128(%rbp), %xmm0
Ltmp850:
	.loc	5 63 36 is_stmt 1
	movaps	%xmm0, -144(%rbp)
Ltmp851:
	.loc	6 0 0 is_stmt 0
	leaq	1(%r14), %r12
Ltmp852:
	.loc	5 63 36
	andl	$7, %r14d
Ltmp853:
	movzwl	-144(%rbp,%r14,2), %eax
Ltmp854:
	.loc	6 16 21 is_stmt 1
	movw	%ax, -88(%rbp)
	movq	%r15, %rdi
	movq	%rbx, %rsi
	callq	__ZN4core3fmt3num53_$LT$impl$u20$core..fmt..LowerHex$u20$for$u20$i16$GT$3fmt17h7236122704e16c86E
Ltmp855:
	.loc	6 0 0 is_stmt 0
	movq	%r12, %r14
Ltmp856:
	.loc	6 16 43
	testb	%al, %al
	jne	LBB29_8
Ltmp857:
LBB29_3:
	.loc	7 1136 52 is_stmt 1
	cmpq	$2, %r14
Ltmp858:
	.loc	8 505 9
	je	LBB29_7
Ltmp859:
	.loc	6 13 24
	testq	%r14, %r14
	.loc	6 13 21 is_stmt 0
	je	LBB29_2
Ltmp860:
	.loc	1 328 9 is_stmt 1
	movq	%r13, -88(%rbp)
	movq	$1, -80(%rbp)
	movq	$0, -72(%rbp)
Ltmp861:
	leaq	l___unnamed_4(%rip), %rax
Ltmp862:
	movq	%rax, -56(%rbp)
Ltmp863:
	movq	$0, -48(%rbp)
Ltmp864:
	.loc	6 14 25
	movq	%rbx, %rdi
	movq	%r15, %rsi
	callq	__ZN4core3fmt9Formatter9write_fmt17h742ca6aae87ad23cE
	.loc	6 14 40 is_stmt 0
	testb	%al, %al
	je	LBB29_2
Ltmp865:
LBB29_8:
	.loc	6 0 40
	movb	$1, %cl
	jmp	LBB29_9
Ltmp866:
LBB29_7:
	.loc	1 328 9 is_stmt 1
	leaq	l___unnamed_5(%rip), %rax
Ltmp867:
	movq	%rax, -88(%rbp)
	movq	$1, -80(%rbp)
	movq	$0, -72(%rbp)
Ltmp868:
	leaq	l___unnamed_4(%rip), %rax
Ltmp869:
	movq	%rax, -56(%rbp)
	movq	$0, -48(%rbp)
	leaq	-88(%rbp), %rsi
Ltmp870:
	.loc	6 18 17
	movq	%rbx, %rdi
	callq	__ZN4core3fmt9Formatter9write_fmt17h742ca6aae87ad23cE
Ltmp871:
	movl	%eax, %ecx
Ltmp872:
LBB29_9:
	.loc	6 19 14
	movl	%ecx, %eax
	addq	$104, %rsp
	popq	%rbx
Ltmp873:
	popq	%r12
	popq	%r13
	popq	%r14
	popq	%r15
	popq	%rbp
	retq
Ltmp874:
Lfunc_end29:
	.cfi_endproc

	.globl	__ZN11packed_simd3v3299_$LT$impl$u20$core..fmt..UpperHex$u20$for$u20$packed_simd..Simd$LT$$u5b$i16$u3b$$u20$2$u5d$$GT$$GT$3fmt17hd6d3d047df99b401E
	.p2align	4, 0x90
__ZN11packed_simd3v3299_$LT$impl$u20$core..fmt..UpperHex$u20$for$u20$packed_simd..Simd$LT$$u5b$i16$u3b$$u20$2$u5d$$GT$$GT$3fmt17hd6d3d047df99b401E:
Lfunc_begin30:
	.loc	9 9 0
	.cfi_startproc
	pushq	%rbp
	.cfi_def_cfa_offset 16
	.cfi_offset %rbp, -16
	movq	%rsp, %rbp
	.cfi_def_cfa_register %rbp
	pushq	%r15
	pushq	%r14
	pushq	%r13
	pushq	%r12
	pushq	%rbx
	subq	$104, %rsp
	.cfi_offset %rbx, -56
	.cfi_offset %r12, -48
	.cfi_offset %r13, -40
	.cfi_offset %r14, -32
	.cfi_offset %r15, -24
	movq	%rsi, %rbx
	movq	%rdi, %r15
Ltmp875:
	.loc	9 11 17 prologue_end
	leaq	l___unnamed_11(%rip), %rax
	movq	%rax, -104(%rbp)
	leaq	__ZN44_$LT$$RF$T$u20$as$u20$core..fmt..Display$GT$3fmt17h189ab73c0bfea6d1E(%rip), %rax
	movq	%rax, -96(%rbp)
Ltmp876:
	.loc	1 328 9
	leaq	l___unnamed_2(%rip), %rax
Ltmp877:
	movq	%rax, -88(%rbp)
	movq	$2, -80(%rbp)
	movq	$0, -72(%rbp)
	leaq	-104(%rbp), %rax
Ltmp878:
	movq	%rax, -56(%rbp)
	movq	$1, -48(%rbp)
	leaq	-88(%rbp), %rsi
Ltmp879:
	.loc	9 11 17
	movq	%rbx, %rdi
	callq	__ZN4core3fmt9Formatter9write_fmt17h742ca6aae87ad23cE
	movb	$1, %cl
	.loc	9 11 50 is_stmt 0
	testb	%al, %al
	jne	LBB30_9
Ltmp880:
	.loc	9 0 0
	movss	(%r15), %xmm0
	movaps	%xmm0, -128(%rbp)
	xorl	%r14d, %r14d
	leaq	-88(%rbp), %r15
Ltmp881:
	leaq	l___unnamed_3(%rip), %r13
	jmp	LBB30_3
Ltmp882:
	.p2align	4, 0x90
LBB30_2:
	movaps	-128(%rbp), %xmm0
Ltmp883:
	.loc	5 63 36 is_stmt 1
	movaps	%xmm0, -144(%rbp)
Ltmp884:
	.loc	9 0 0 is_stmt 0
	leaq	1(%r14), %r12
Ltmp885:
	.loc	5 63 36
	andl	$7, %r14d
Ltmp886:
	movzwl	-144(%rbp,%r14,2), %eax
Ltmp887:
	.loc	9 16 21 is_stmt 1
	movw	%ax, -88(%rbp)
	movq	%r15, %rdi
	movq	%rbx, %rsi
	callq	__ZN4core3fmt3num53_$LT$impl$u20$core..fmt..UpperHex$u20$for$u20$i16$GT$3fmt17hf50bc938a2a1e02bE
Ltmp888:
	.loc	9 0 0 is_stmt 0
	movq	%r12, %r14
Ltmp889:
	.loc	9 16 43
	testb	%al, %al
	jne	LBB30_8
Ltmp890:
LBB30_3:
	.loc	7 1136 52 is_stmt 1
	cmpq	$2, %r14
Ltmp891:
	.loc	8 505 9
	je	LBB30_7
Ltmp892:
	.loc	9 13 24
	testq	%r14, %r14
	.loc	9 13 21 is_stmt 0
	je	LBB30_2
Ltmp893:
	.loc	1 328 9 is_stmt 1
	movq	%r13, -88(%rbp)
	movq	$1, -80(%rbp)
	movq	$0, -72(%rbp)
Ltmp894:
	leaq	l___unnamed_4(%rip), %rax
Ltmp895:
	movq	%rax, -56(%rbp)
Ltmp896:
	movq	$0, -48(%rbp)
Ltmp897:
	.loc	9 14 25
	movq	%rbx, %rdi
	movq	%r15, %rsi
	callq	__ZN4core3fmt9Formatter9write_fmt17h742ca6aae87ad23cE
	.loc	9 14 40 is_stmt 0
	testb	%al, %al
	je	LBB30_2
Ltmp898:
LBB30_8:
	.loc	9 0 40
	movb	$1, %cl
	jmp	LBB30_9
Ltmp899:
LBB30_7:
	.loc	1 328 9 is_stmt 1
	leaq	l___unnamed_5(%rip), %rax
Ltmp900:
	movq	%rax, -88(%rbp)
	movq	$1, -80(%rbp)
	movq	$0, -72(%rbp)
Ltmp901:
	leaq	l___unnamed_4(%rip), %rax
Ltmp902:
	movq	%rax, -56(%rbp)
	movq	$0, -48(%rbp)
	leaq	-88(%rbp), %rsi
Ltmp903:
	.loc	9 18 17
	movq	%rbx, %rdi
	callq	__ZN4core3fmt9Formatter9write_fmt17h742ca6aae87ad23cE
Ltmp904:
	movl	%eax, %ecx
Ltmp905:
LBB30_9:
	.loc	9 19 14
	movl	%ecx, %eax
	addq	$104, %rsp
	popq	%rbx
Ltmp906:
	popq	%r12
	popq	%r13
	popq	%r14
	popq	%r15
	popq	%rbp
	retq
Ltmp907:
Lfunc_end30:
	.cfi_endproc

	.globl	__ZN11packed_simd3v3296_$LT$impl$u20$core..fmt..Octal$u20$for$u20$packed_simd..Simd$LT$$u5b$i16$u3b$$u20$2$u5d$$GT$$GT$3fmt17h65b27a8f4d01c177E
	.p2align	4, 0x90
__ZN11packed_simd3v3296_$LT$impl$u20$core..fmt..Octal$u20$for$u20$packed_simd..Simd$LT$$u5b$i16$u3b$$u20$2$u5d$$GT$$GT$3fmt17h65b27a8f4d01c177E:
Lfunc_begin31:
	.loc	10 9 0
	.cfi_startproc
	pushq	%rbp
	.cfi_def_cfa_offset 16
	.cfi_offset %rbp, -16
	movq	%rsp, %rbp
	.cfi_def_cfa_register %rbp
	pushq	%r15
	pushq	%r14
	pushq	%r13
	pushq	%r12
	pushq	%rbx
	subq	$104, %rsp
	.cfi_offset %rbx, -56
	.cfi_offset %r12, -48
	.cfi_offset %r13, -40
	.cfi_offset %r14, -32
	.cfi_offset %r15, -24
	movq	%rsi, %rbx
	movq	%rdi, %r15
Ltmp908:
	.loc	10 11 17 prologue_end
	leaq	l___unnamed_11(%rip), %rax
	movq	%rax, -104(%rbp)
	leaq	__ZN44_$LT$$RF$T$u20$as$u20$core..fmt..Display$GT$3fmt17h189ab73c0bfea6d1E(%rip), %rax
	movq	%rax, -96(%rbp)
Ltmp909:
	.loc	1 328 9
	leaq	l___unnamed_2(%rip), %rax
Ltmp910:
	movq	%rax, -88(%rbp)
	movq	$2, -80(%rbp)
	movq	$0, -72(%rbp)
	leaq	-104(%rbp), %rax
Ltmp911:
	movq	%rax, -56(%rbp)
	movq	$1, -48(%rbp)
	leaq	-88(%rbp), %rsi
Ltmp912:
	.loc	10 11 17
	movq	%rbx, %rdi
	callq	__ZN4core3fmt9Formatter9write_fmt17h742ca6aae87ad23cE
	movb	$1, %cl
	.loc	10 11 50 is_stmt 0
	testb	%al, %al
	jne	LBB31_9
Ltmp913:
	.loc	10 0 0
	movss	(%r15), %xmm0
	movaps	%xmm0, -128(%rbp)
	xorl	%r14d, %r14d
	leaq	-88(%rbp), %r15
Ltmp914:
	leaq	l___unnamed_3(%rip), %r13
	jmp	LBB31_3
Ltmp915:
	.p2align	4, 0x90
LBB31_2:
	movaps	-128(%rbp), %xmm0
Ltmp916:
	.loc	5 63 36 is_stmt 1
	movaps	%xmm0, -144(%rbp)
Ltmp917:
	.loc	10 0 0 is_stmt 0
	leaq	1(%r14), %r12
Ltmp918:
	.loc	5 63 36
	andl	$7, %r14d
Ltmp919:
	movzwl	-144(%rbp,%r14,2), %eax
Ltmp920:
	.loc	10 16 21 is_stmt 1
	movw	%ax, -88(%rbp)
	movq	%r15, %rdi
	movq	%rbx, %rsi
	callq	__ZN4core3fmt3num50_$LT$impl$u20$core..fmt..Octal$u20$for$u20$i16$GT$3fmt17ha0034911fbd4500eE
Ltmp921:
	.loc	10 0 0 is_stmt 0
	movq	%r12, %r14
Ltmp922:
	.loc	10 16 43
	testb	%al, %al
	jne	LBB31_8
Ltmp923:
LBB31_3:
	.loc	7 1136 52 is_stmt 1
	cmpq	$2, %r14
Ltmp924:
	.loc	8 505 9
	je	LBB31_7
Ltmp925:
	.loc	10 13 24
	testq	%r14, %r14
	.loc	10 13 21 is_stmt 0
	je	LBB31_2
Ltmp926:
	.loc	1 328 9 is_stmt 1
	movq	%r13, -88(%rbp)
	movq	$1, -80(%rbp)
	movq	$0, -72(%rbp)
Ltmp927:
	leaq	l___unnamed_4(%rip), %rax
Ltmp928:
	movq	%rax, -56(%rbp)
Ltmp929:
	movq	$0, -48(%rbp)
Ltmp930:
	.loc	10 14 25
	movq	%rbx, %rdi
	movq	%r15, %rsi
	callq	__ZN4core3fmt9Formatter9write_fmt17h742ca6aae87ad23cE
	.loc	10 14 40 is_stmt 0
	testb	%al, %al
	je	LBB31_2
Ltmp931:
LBB31_8:
	.loc	10 0 40
	movb	$1, %cl
	jmp	LBB31_9
Ltmp932:
LBB31_7:
	.loc	1 328 9 is_stmt 1
	leaq	l___unnamed_5(%rip), %rax
Ltmp933:
	movq	%rax, -88(%rbp)
	movq	$1, -80(%rbp)
	movq	$0, -72(%rbp)
Ltmp934:
	leaq	l___unnamed_4(%rip), %rax
Ltmp935:
	movq	%rax, -56(%rbp)
	movq	$0, -48(%rbp)
	leaq	-88(%rbp), %rsi
Ltmp936:
	.loc	10 18 17
	movq	%rbx, %rdi
	callq	__ZN4core3fmt9Formatter9write_fmt17h742ca6aae87ad23cE
Ltmp937:
	movl	%eax, %ecx
Ltmp938:
LBB31_9:
	.loc	10 19 14
	movl	%ecx, %eax
	addq	$104, %rsp
	popq	%rbx
Ltmp939:
	popq	%r12
	popq	%r13
	popq	%r14
	popq	%r15
	popq	%rbp
	retq
Ltmp940:
Lfunc_end31:
	.cfi_endproc

	.globl	__ZN11packed_simd3v3297_$LT$impl$u20$core..fmt..Binary$u20$for$u20$packed_simd..Simd$LT$$u5b$i16$u3b$$u20$2$u5d$$GT$$GT$3fmt17hfb4046f7a83c2c3eE
	.p2align	4, 0x90
__ZN11packed_simd3v3297_$LT$impl$u20$core..fmt..Binary$u20$for$u20$packed_simd..Simd$LT$$u5b$i16$u3b$$u20$2$u5d$$GT$$GT$3fmt17hfb4046f7a83c2c3eE:
Lfunc_begin32:
	.loc	11 9 0
	.cfi_startproc
	pushq	%rbp
	.cfi_def_cfa_offset 16
	.cfi_offset %rbp, -16
	movq	%rsp, %rbp
	.cfi_def_cfa_register %rbp
	pushq	%r15
	pushq	%r14
	pushq	%r13
	pushq	%r12
	pushq	%rbx
	subq	$104, %rsp
	.cfi_offset %rbx, -56
	.cfi_offset %r12, -48
	.cfi_offset %r13, -40
	.cfi_offset %r14, -32
	.cfi_offset %r15, -24
	movq	%rsi, %rbx
	movq	%rdi, %r15
Ltmp941:
	.loc	11 11 17 prologue_end
	leaq	l___unnamed_11(%rip), %rax
	movq	%rax, -104(%rbp)
	leaq	__ZN44_$LT$$RF$T$u20$as$u20$core..fmt..Display$GT$3fmt17h189ab73c0bfea6d1E(%rip), %rax
	movq	%rax, -96(%rbp)
Ltmp942:
	.loc	1 328 9
	leaq	l___unnamed_2(%rip), %rax
Ltmp943:
	movq	%rax, -88(%rbp)
	movq	$2, -80(%rbp)
	movq	$0, -72(%rbp)
	leaq	-104(%rbp), %rax
Ltmp944:
	movq	%rax, -56(%rbp)
	movq	$1, -48(%rbp)
	leaq	-88(%rbp), %rsi
Ltmp945:
	.loc	11 11 17
	movq	%rbx, %rdi
	callq	__ZN4core3fmt9Formatter9write_fmt17h742ca6aae87ad23cE
	movb	$1, %cl
	.loc	11 11 50 is_stmt 0
	testb	%al, %al
	jne	LBB32_9
Ltmp946:
	.loc	11 0 0
	movss	(%r15), %xmm0
	movaps	%xmm0, -128(%rbp)
	xorl	%r14d, %r14d
	leaq	-88(%rbp), %r15
Ltmp947:
	leaq	l___unnamed_3(%rip), %r13
	jmp	LBB32_3
Ltmp948:
	.p2align	4, 0x90
LBB32_2:
	movaps	-128(%rbp), %xmm0
Ltmp949:
	.loc	5 63 36 is_stmt 1
	movaps	%xmm0, -144(%rbp)
Ltmp950:
	.loc	11 0 0 is_stmt 0
	leaq	1(%r14), %r12
Ltmp951:
	.loc	5 63 36
	andl	$7, %r14d
Ltmp952:
	movzwl	-144(%rbp,%r14,2), %eax
Ltmp953:
	.loc	11 16 21 is_stmt 1
	movw	%ax, -88(%rbp)
	movq	%r15, %rdi
	movq	%rbx, %rsi
	callq	__ZN4core3fmt3num51_$LT$impl$u20$core..fmt..Binary$u20$for$u20$i16$GT$3fmt17hd0d6ed80e6addc96E
Ltmp954:
	.loc	11 0 0 is_stmt 0
	movq	%r12, %r14
Ltmp955:
	.loc	11 16 43
	testb	%al, %al
	jne	LBB32_8
Ltmp956:
LBB32_3:
	.loc	7 1136 52 is_stmt 1
	cmpq	$2, %r14
Ltmp957:
	.loc	8 505 9
	je	LBB32_7
Ltmp958:
	.loc	11 13 24
	testq	%r14, %r14
	.loc	11 13 21 is_stmt 0
	je	LBB32_2
Ltmp959:
	.loc	1 328 9 is_stmt 1
	movq	%r13, -88(%rbp)
	movq	$1, -80(%rbp)
	movq	$0, -72(%rbp)
Ltmp960:
	leaq	l___unnamed_4(%rip), %rax
Ltmp961:
	movq	%rax, -56(%rbp)
Ltmp962:
	movq	$0, -48(%rbp)
Ltmp963:
	.loc	11 14 25
	movq	%rbx, %rdi
	movq	%r15, %rsi
	callq	__ZN4core3fmt9Formatter9write_fmt17h742ca6aae87ad23cE
	.loc	11 14 40 is_stmt 0
	testb	%al, %al
	je	LBB32_2
Ltmp964:
LBB32_8:
	.loc	11 0 40
	movb	$1, %cl
	jmp	LBB32_9
Ltmp965:
LBB32_7:
	.loc	1 328 9 is_stmt 1
	leaq	l___unnamed_5(%rip), %rax
Ltmp966:
	movq	%rax, -88(%rbp)
	movq	$1, -80(%rbp)
	movq	$0, -72(%rbp)
Ltmp967:
	leaq	l___unnamed_4(%rip), %rax
Ltmp968:
	movq	%rax, -56(%rbp)
	movq	$0, -48(%rbp)
	leaq	-88(%rbp), %rsi
Ltmp969:
	.loc	11 18 17
	movq	%rbx, %rdi
	callq	__ZN4core3fmt9Formatter9write_fmt17h742ca6aae87ad23cE
Ltmp970:
	movl	%eax, %ecx
Ltmp971:
LBB32_9:
	.loc	11 19 14
	movl	%ecx, %eax
	addq	$104, %rsp
	popq	%rbx
Ltmp972:
	popq	%r12
	popq	%r13
	popq	%r14
	popq	%r15
	popq	%rbp
	retq
Ltmp973:
Lfunc_end32:
	.cfi_endproc

	.globl	__ZN11packed_simd3v3296_$LT$impl$u20$core..fmt..Debug$u20$for$u20$packed_simd..Simd$LT$$u5b$u16$u3b$$u20$2$u5d$$GT$$GT$3fmt17h72d71c1e640a1091E
	.p2align	4, 0x90
__ZN11packed_simd3v3296_$LT$impl$u20$core..fmt..Debug$u20$for$u20$packed_simd..Simd$LT$$u5b$u16$u3b$$u20$2$u5d$$GT$$GT$3fmt17h72d71c1e640a1091E:
Lfunc_begin33:
	.loc	3 49 0
	.cfi_startproc
	pushq	%rbp
	.cfi_def_cfa_offset 16
	.cfi_offset %rbp, -16
	movq	%rsp, %rbp
	.cfi_def_cfa_register %rbp
	pushq	%r15
	pushq	%r14
	pushq	%r12
	pushq	%rbx
	subq	$64, %rsp
	.cfi_offset %rbx, -48
	.cfi_offset %r12, -40
	.cfi_offset %r14, -32
	.cfi_offset %r15, -24
	movq	%rsi, %r15
	movq	%rdi, %rbx
Ltmp974:
	.loc	3 52 17 prologue_end
	leaq	l___unnamed_12(%rip), %rax
	movq	%rax, -96(%rbp)
	leaq	__ZN44_$LT$$RF$T$u20$as$u20$core..fmt..Display$GT$3fmt17h189ab73c0bfea6d1E(%rip), %rax
	movq	%rax, -88(%rbp)
Ltmp975:
	.loc	1 328 9
	leaq	l___unnamed_2(%rip), %rax
Ltmp976:
	movq	%rax, -80(%rbp)
	movq	$2, -72(%rbp)
	movq	$0, -64(%rbp)
	leaq	-96(%rbp), %rax
Ltmp977:
	movq	%rax, -48(%rbp)
	movq	$1, -40(%rbp)
	leaq	-80(%rbp), %rsi
Ltmp978:
	.loc	3 52 17
	movq	%r15, %rdi
	callq	__ZN4core3fmt9Formatter9write_fmt17h742ca6aae87ad23cE
	movb	$1, %r14b
	.loc	3 52 50 is_stmt 0
	testb	%al, %al
	jne	LBB33_12
Ltmp979:
	.loc	3 0 0
	movl	(%rbx), %ebx
Ltmp980:
	.loc	3 57 21 is_stmt 1
	movw	%bx, -80(%rbp)
Ltmp981:
	.loc	4 149 20
	movq	%r15, %rdi
	callq	__ZN4core3fmt9Formatter15debug_lower_hex17hd07f6fde8d0365dfE
	.loc	4 149 17 is_stmt 0
	testb	%al, %al
	je	LBB33_2
Ltmp982:
	.loc	4 0 17
	leaq	-80(%rbp), %rdi
	.loc	4 150 21 is_stmt 1
	movq	%r15, %rsi
	callq	__ZN4core3fmt3num53_$LT$impl$u20$core..fmt..LowerHex$u20$for$u20$u16$GT$3fmt17h7067c16dc119bdc6E
Ltmp983:
	.loc	3 57 43
	testb	%al, %al
	je	LBB33_6
	jmp	LBB33_12
Ltmp984:
LBB33_2:
	.loc	4 151 27
	movq	%r15, %rdi
	callq	__ZN4core3fmt9Formatter15debug_upper_hex17hf480c256a9c81c1eE
	leaq	-80(%rbp), %rdi
	.loc	4 154 21
	movq	%r15, %rsi
	.loc	4 151 24
	testb	%al, %al
	je	LBB33_4
Ltmp985:
	.loc	4 152 21
	callq	__ZN4core3fmt3num53_$LT$impl$u20$core..fmt..UpperHex$u20$for$u20$u16$GT$3fmt17hb4f6c786d08c2f96E
Ltmp986:
	.loc	3 57 43
	testb	%al, %al
	je	LBB33_6
	jmp	LBB33_12
Ltmp987:
LBB33_4:
	.loc	4 154 21
	callq	__ZN4core3fmt3num3imp52_$LT$impl$u20$core..fmt..Display$u20$for$u20$u16$GT$3fmt17h5ce1a50c193bc52eE
Ltmp988:
	.loc	3 57 43
	testb	%al, %al
	jne	LBB33_12
Ltmp989:
LBB33_6:
	.loc	1 328 9
	leaq	l___unnamed_3(%rip), %rax
Ltmp990:
	movq	%rax, -80(%rbp)
	movq	$1, -72(%rbp)
	movq	$0, -64(%rbp)
	leaq	l___unnamed_4(%rip), %r12
Ltmp991:
	movq	%r12, -48(%rbp)
	movq	$0, -40(%rbp)
	leaq	-80(%rbp), %rsi
Ltmp992:
	.loc	3 55 25
	movq	%r15, %rdi
	callq	__ZN4core3fmt9Formatter9write_fmt17h742ca6aae87ad23cE
Ltmp993:
	.loc	3 55 40 is_stmt 0
	testb	%al, %al
	jne	LBB33_12
Ltmp994:
	.loc	3 0 0
	movd	%ebx, %xmm0
Ltmp995:
	.loc	5 63 36 is_stmt 1
	pextrw	$1, %xmm0, %eax
Ltmp996:
	.loc	3 57 21
	movw	%ax, -80(%rbp)
Ltmp997:
	.loc	4 149 20
	movq	%r15, %rdi
	callq	__ZN4core3fmt9Formatter15debug_lower_hex17hd07f6fde8d0365dfE
	.loc	4 149 17 is_stmt 0
	testb	%al, %al
	je	LBB33_8
Ltmp998:
	.loc	4 0 17
	leaq	-80(%rbp), %rdi
	.loc	4 150 21 is_stmt 1
	movq	%r15, %rsi
	callq	__ZN4core3fmt3num53_$LT$impl$u20$core..fmt..LowerHex$u20$for$u20$u16$GT$3fmt17h7067c16dc119bdc6E
	jmp	LBB33_10
Ltmp999:
LBB33_8:
	.loc	4 151 27
	movq	%r15, %rdi
	callq	__ZN4core3fmt9Formatter15debug_upper_hex17hf480c256a9c81c1eE
	leaq	-80(%rbp), %rdi
	.loc	4 152 21
	movq	%r15, %rsi
	.loc	4 151 24
	testb	%al, %al
	je	LBB33_9
Ltmp1000:
	.loc	4 152 21
	callq	__ZN4core3fmt3num53_$LT$impl$u20$core..fmt..UpperHex$u20$for$u20$u16$GT$3fmt17hb4f6c786d08c2f96E
	jmp	LBB33_10
Ltmp1001:
LBB33_9:
	.loc	4 154 21
	callq	__ZN4core3fmt3num3imp52_$LT$impl$u20$core..fmt..Display$u20$for$u20$u16$GT$3fmt17h5ce1a50c193bc52eE
Ltmp1002:
LBB33_10:
	.loc	3 57 43
	testb	%al, %al
	jne	LBB33_12
Ltmp1003:
	.loc	1 328 9
	leaq	l___unnamed_5(%rip), %rax
Ltmp1004:
	movq	%rax, -80(%rbp)
	movq	$1, -72(%rbp)
	movq	$0, -64(%rbp)
Ltmp1005:
	movq	%r12, -48(%rbp)
	movq	$0, -40(%rbp)
	leaq	-80(%rbp), %rsi
Ltmp1006:
	.loc	3 59 17
	movq	%r15, %rdi
	callq	__ZN4core3fmt9Formatter9write_fmt17h742ca6aae87ad23cE
Ltmp1007:
	movl	%eax, %r14d
Ltmp1008:
LBB33_12:
	.loc	3 60 14
	movl	%r14d, %eax
	addq	$64, %rsp
	popq	%rbx
	popq	%r12
	popq	%r14
	popq	%r15
Ltmp1009:
	popq	%rbp
	retq
Ltmp1010:
Lfunc_end33:
	.cfi_endproc

	.globl	__ZN11packed_simd3v3299_$LT$impl$u20$core..fmt..LowerHex$u20$for$u20$packed_simd..Simd$LT$$u5b$u16$u3b$$u20$2$u5d$$GT$$GT$3fmt17hbe14ab9d1fc83e65E
	.p2align	4, 0x90
__ZN11packed_simd3v3299_$LT$impl$u20$core..fmt..LowerHex$u20$for$u20$packed_simd..Simd$LT$$u5b$u16$u3b$$u20$2$u5d$$GT$$GT$3fmt17hbe14ab9d1fc83e65E:
Lfunc_begin34:
	.loc	6 9 0
	.cfi_startproc
	pushq	%rbp
	.cfi_def_cfa_offset 16
	.cfi_offset %rbp, -16
	movq	%rsp, %rbp
	.cfi_def_cfa_register %rbp
	pushq	%r15
	pushq	%r14
	pushq	%r13
	pushq	%r12
	pushq	%rbx
	subq	$104, %rsp
	.cfi_offset %rbx, -56
	.cfi_offset %r12, -48
	.cfi_offset %r13, -40
	.cfi_offset %r14, -32
	.cfi_offset %r15, -24
	movq	%rsi, %rbx
	movq	%rdi, %r15
Ltmp1011:
	.loc	6 11 17 prologue_end
	leaq	l___unnamed_12(%rip), %rax
	movq	%rax, -104(%rbp)
	leaq	__ZN44_$LT$$RF$T$u20$as$u20$core..fmt..Display$GT$3fmt17h189ab73c0bfea6d1E(%rip), %rax
	movq	%rax, -96(%rbp)
Ltmp1012:
	.loc	1 328 9
	leaq	l___unnamed_2(%rip), %rax
Ltmp1013:
	movq	%rax, -88(%rbp)
	movq	$2, -80(%rbp)
	movq	$0, -72(%rbp)
	leaq	-104(%rbp), %rax
Ltmp1014:
	movq	%rax, -56(%rbp)
	movq	$1, -48(%rbp)
	leaq	-88(%rbp), %rsi
Ltmp1015:
	.loc	6 11 17
	movq	%rbx, %rdi
	callq	__ZN4core3fmt9Formatter9write_fmt17h742ca6aae87ad23cE
	movb	$1, %cl
	.loc	6 11 50 is_stmt 0
	testb	%al, %al
	jne	LBB34_9
Ltmp1016:
	.loc	6 0 0
	movss	(%r15), %xmm0
	movaps	%xmm0, -128(%rbp)
	xorl	%r14d, %r14d
	leaq	-88(%rbp), %r15
Ltmp1017:
	leaq	l___unnamed_3(%rip), %r13
	jmp	LBB34_3
Ltmp1018:
	.p2align	4, 0x90
LBB34_2:
	movaps	-128(%rbp), %xmm0
Ltmp1019:
	.loc	5 63 36 is_stmt 1
	movaps	%xmm0, -144(%rbp)
Ltmp1020:
	.loc	6 0 0 is_stmt 0
	leaq	1(%r14), %r12
Ltmp1021:
	.loc	5 63 36
	andl	$7, %r14d
Ltmp1022:
	movzwl	-144(%rbp,%r14,2), %eax
Ltmp1023:
	.loc	6 16 21 is_stmt 1
	movw	%ax, -88(%rbp)
	movq	%r15, %rdi
	movq	%rbx, %rsi
	callq	__ZN4core3fmt3num53_$LT$impl$u20$core..fmt..LowerHex$u20$for$u20$u16$GT$3fmt17h7067c16dc119bdc6E
Ltmp1024:
	.loc	6 0 0 is_stmt 0
	movq	%r12, %r14
Ltmp1025:
	.loc	6 16 43
	testb	%al, %al
	jne	LBB34_8
Ltmp1026:
LBB34_3:
	.loc	7 1136 52 is_stmt 1
	cmpq	$2, %r14
Ltmp1027:
	.loc	8 505 9
	je	LBB34_7
Ltmp1028:
	.loc	6 13 24
	testq	%r14, %r14
	.loc	6 13 21 is_stmt 0
	je	LBB34_2
Ltmp1029:
	.loc	1 328 9 is_stmt 1
	movq	%r13, -88(%rbp)
	movq	$1, -80(%rbp)
	movq	$0, -72(%rbp)
Ltmp1030:
	leaq	l___unnamed_4(%rip), %rax
Ltmp1031:
	movq	%rax, -56(%rbp)
Ltmp1032:
	movq	$0, -48(%rbp)
Ltmp1033:
	.loc	6 14 25
	movq	%rbx, %rdi
	movq	%r15, %rsi
	callq	__ZN4core3fmt9Formatter9write_fmt17h742ca6aae87ad23cE
	.loc	6 14 40 is_stmt 0
	testb	%al, %al
	je	LBB34_2
Ltmp1034:
LBB34_8:
	.loc	6 0 40
	movb	$1, %cl
	jmp	LBB34_9
Ltmp1035:
LBB34_7:
	.loc	1 328 9 is_stmt 1
	leaq	l___unnamed_5(%rip), %rax
Ltmp1036:
	movq	%rax, -88(%rbp)
	movq	$1, -80(%rbp)
	movq	$0, -72(%rbp)
Ltmp1037:
	leaq	l___unnamed_4(%rip), %rax
Ltmp1038:
	movq	%rax, -56(%rbp)
	movq	$0, -48(%rbp)
	leaq	-88(%rbp), %rsi
Ltmp1039:
	.loc	6 18 17
	movq	%rbx, %rdi
	callq	__ZN4core3fmt9Formatter9write_fmt17h742ca6aae87ad23cE
Ltmp1040:
	movl	%eax, %ecx
Ltmp1041:
LBB34_9:
	.loc	6 19 14
	movl	%ecx, %eax
	addq	$104, %rsp
	popq	%rbx
Ltmp1042:
	popq	%r12
	popq	%r13
	popq	%r14
	popq	%r15
	popq	%rbp
	retq
Ltmp1043:
Lfunc_end34:
	.cfi_endproc

	.globl	__ZN11packed_simd3v3299_$LT$impl$u20$core..fmt..UpperHex$u20$for$u20$packed_simd..Simd$LT$$u5b$u16$u3b$$u20$2$u5d$$GT$$GT$3fmt17h5ec8c84f8c07e03fE
	.p2align	4, 0x90
__ZN11packed_simd3v3299_$LT$impl$u20$core..fmt..UpperHex$u20$for$u20$packed_simd..Simd$LT$$u5b$u16$u3b$$u20$2$u5d$$GT$$GT$3fmt17h5ec8c84f8c07e03fE:
Lfunc_begin35:
	.loc	9 9 0
	.cfi_startproc
	pushq	%rbp
	.cfi_def_cfa_offset 16
	.cfi_offset %rbp, -16
	movq	%rsp, %rbp
	.cfi_def_cfa_register %rbp
	pushq	%r15
	pushq	%r14
	pushq	%r13
	pushq	%r12
	pushq	%rbx
	subq	$104, %rsp
	.cfi_offset %rbx, -56
	.cfi_offset %r12, -48
	.cfi_offset %r13, -40
	.cfi_offset %r14, -32
	.cfi_offset %r15, -24
	movq	%rsi, %rbx
	movq	%rdi, %r15
Ltmp1044:
	.loc	9 11 17 prologue_end
	leaq	l___unnamed_12(%rip), %rax
	movq	%rax, -104(%rbp)
	leaq	__ZN44_$LT$$RF$T$u20$as$u20$core..fmt..Display$GT$3fmt17h189ab73c0bfea6d1E(%rip), %rax
	movq	%rax, -96(%rbp)
Ltmp1045:
	.loc	1 328 9
	leaq	l___unnamed_2(%rip), %rax
Ltmp1046:
	movq	%rax, -88(%rbp)
	movq	$2, -80(%rbp)
	movq	$0, -72(%rbp)
	leaq	-104(%rbp), %rax
Ltmp1047:
	movq	%rax, -56(%rbp)
	movq	$1, -48(%rbp)
	leaq	-88(%rbp), %rsi
Ltmp1048:
	.loc	9 11 17
	movq	%rbx, %rdi
	callq	__ZN4core3fmt9Formatter9write_fmt17h742ca6aae87ad23cE
	movb	$1, %cl
	.loc	9 11 50 is_stmt 0
	testb	%al, %al
	jne	LBB35_9
Ltmp1049:
	.loc	9 0 0
	movss	(%r15), %xmm0
	movaps	%xmm0, -128(%rbp)
	xorl	%r14d, %r14d
	leaq	-88(%rbp), %r15
Ltmp1050:
	leaq	l___unnamed_3(%rip), %r13
	jmp	LBB35_3
Ltmp1051:
	.p2align	4, 0x90
LBB35_2:
	movaps	-128(%rbp), %xmm0
Ltmp1052:
	.loc	5 63 36 is_stmt 1
	movaps	%xmm0, -144(%rbp)
Ltmp1053:
	.loc	9 0 0 is_stmt 0
	leaq	1(%r14), %r12
Ltmp1054:
	.loc	5 63 36
	andl	$7, %r14d
Ltmp1055:
	movzwl	-144(%rbp,%r14,2), %eax
Ltmp1056:
	.loc	9 16 21 is_stmt 1
	movw	%ax, -88(%rbp)
	movq	%r15, %rdi
	movq	%rbx, %rsi
	callq	__ZN4core3fmt3num53_$LT$impl$u20$core..fmt..UpperHex$u20$for$u20$u16$GT$3fmt17hb4f6c786d08c2f96E
Ltmp1057:
	.loc	9 0 0 is_stmt 0
	movq	%r12, %r14
Ltmp1058:
	.loc	9 16 43
	testb	%al, %al
	jne	LBB35_8
Ltmp1059:
LBB35_3:
	.loc	7 1136 52 is_stmt 1
	cmpq	$2, %r14
Ltmp1060:
	.loc	8 505 9
	je	LBB35_7
Ltmp1061:
	.loc	9 13 24
	testq	%r14, %r14
	.loc	9 13 21 is_stmt 0
	je	LBB35_2
Ltmp1062:
	.loc	1 328 9 is_stmt 1
	movq	%r13, -88(%rbp)
	movq	$1, -80(%rbp)
	movq	$0, -72(%rbp)
Ltmp1063:
	leaq	l___unnamed_4(%rip), %rax
Ltmp1064:
	movq	%rax, -56(%rbp)
Ltmp1065:
	movq	$0, -48(%rbp)
Ltmp1066:
	.loc	9 14 25
	movq	%rbx, %rdi
	movq	%r15, %rsi
	callq	__ZN4core3fmt9Formatter9write_fmt17h742ca6aae87ad23cE
	.loc	9 14 40 is_stmt 0
	testb	%al, %al
	je	LBB35_2
Ltmp1067:
LBB35_8:
	.loc	9 0 40
	movb	$1, %cl
	jmp	LBB35_9
Ltmp1068:
LBB35_7:
	.loc	1 328 9 is_stmt 1
	leaq	l___unnamed_5(%rip), %rax
Ltmp1069:
	movq	%rax, -88(%rbp)
	movq	$1, -80(%rbp)
	movq	$0, -72(%rbp)
Ltmp1070:
	leaq	l___unnamed_4(%rip), %rax
Ltmp1071:
	movq	%rax, -56(%rbp)
	movq	$0, -48(%rbp)
	leaq	-88(%rbp), %rsi
Ltmp1072:
	.loc	9 18 17
	movq	%rbx, %rdi
	callq	__ZN4core3fmt9Formatter9write_fmt17h742ca6aae87ad23cE
Ltmp1073:
	movl	%eax, %ecx
Ltmp1074:
LBB35_9:
	.loc	9 19 14
	movl	%ecx, %eax
	addq	$104, %rsp
	popq	%rbx
Ltmp1075:
	popq	%r12
	popq	%r13
	popq	%r14
	popq	%r15
	popq	%rbp
	retq
Ltmp1076:
Lfunc_end35:
	.cfi_endproc

	.globl	__ZN11packed_simd3v3296_$LT$impl$u20$core..fmt..Octal$u20$for$u20$packed_simd..Simd$LT$$u5b$u16$u3b$$u20$2$u5d$$GT$$GT$3fmt17h41afe3709fca6f28E
	.p2align	4, 0x90
__ZN11packed_simd3v3296_$LT$impl$u20$core..fmt..Octal$u20$for$u20$packed_simd..Simd$LT$$u5b$u16$u3b$$u20$2$u5d$$GT$$GT$3fmt17h41afe3709fca6f28E:
Lfunc_begin36:
	.loc	10 9 0
	.cfi_startproc
	pushq	%rbp
	.cfi_def_cfa_offset 16
	.cfi_offset %rbp, -16
	movq	%rsp, %rbp
	.cfi_def_cfa_register %rbp
	pushq	%r15
	pushq	%r14
	pushq	%r13
	pushq	%r12
	pushq	%rbx
	subq	$104, %rsp
	.cfi_offset %rbx, -56
	.cfi_offset %r12, -48
	.cfi_offset %r13, -40
	.cfi_offset %r14, -32
	.cfi_offset %r15, -24
	movq	%rsi, %rbx
	movq	%rdi, %r15
Ltmp1077:
	.loc	10 11 17 prologue_end
	leaq	l___unnamed_12(%rip), %rax
	movq	%rax, -104(%rbp)
	leaq	__ZN44_$LT$$RF$T$u20$as$u20$core..fmt..Display$GT$3fmt17h189ab73c0bfea6d1E(%rip), %rax
	movq	%rax, -96(%rbp)
Ltmp1078:
	.loc	1 328 9
	leaq	l___unnamed_2(%rip), %rax
Ltmp1079:
	movq	%rax, -88(%rbp)
	movq	$2, -80(%rbp)
	movq	$0, -72(%rbp)
	leaq	-104(%rbp), %rax
Ltmp1080:
	movq	%rax, -56(%rbp)
	movq	$1, -48(%rbp)
	leaq	-88(%rbp), %rsi
Ltmp1081:
	.loc	10 11 17
	movq	%rbx, %rdi
	callq	__ZN4core3fmt9Formatter9write_fmt17h742ca6aae87ad23cE
	movb	$1, %cl
	.loc	10 11 50 is_stmt 0
	testb	%al, %al
	jne	LBB36_9
Ltmp1082:
	.loc	10 0 0
	movss	(%r15), %xmm0
	movaps	%xmm0, -128(%rbp)
	xorl	%r14d, %r14d
	leaq	-88(%rbp), %r15
Ltmp1083:
	leaq	l___unnamed_3(%rip), %r13
	jmp	LBB36_3
Ltmp1084:
	.p2align	4, 0x90
LBB36_2:
	movaps	-128(%rbp), %xmm0
Ltmp1085:
	.loc	5 63 36 is_stmt 1
	movaps	%xmm0, -144(%rbp)
Ltmp1086:
	.loc	10 0 0 is_stmt 0
	leaq	1(%r14), %r12
Ltmp1087:
	.loc	5 63 36
	andl	$7, %r14d
Ltmp1088:
	movzwl	-144(%rbp,%r14,2), %eax
Ltmp1089:
	.loc	10 16 21 is_stmt 1
	movw	%ax, -88(%rbp)
	movq	%r15, %rdi
	movq	%rbx, %rsi
	callq	__ZN4core3fmt3num50_$LT$impl$u20$core..fmt..Octal$u20$for$u20$u16$GT$3fmt17hff248c9a64dcd3c7E
Ltmp1090:
	.loc	10 0 0 is_stmt 0
	movq	%r12, %r14
Ltmp1091:
	.loc	10 16 43
	testb	%al, %al
	jne	LBB36_8
Ltmp1092:
LBB36_3:
	.loc	7 1136 52 is_stmt 1
	cmpq	$2, %r14
Ltmp1093:
	.loc	8 505 9
	je	LBB36_7
Ltmp1094:
	.loc	10 13 24
	testq	%r14, %r14
	.loc	10 13 21 is_stmt 0
	je	LBB36_2
Ltmp1095:
	.loc	1 328 9 is_stmt 1
	movq	%r13, -88(%rbp)
	movq	$1, -80(%rbp)
	movq	$0, -72(%rbp)
Ltmp1096:
	leaq	l___unnamed_4(%rip), %rax
Ltmp1097:
	movq	%rax, -56(%rbp)
Ltmp1098:
	movq	$0, -48(%rbp)
Ltmp1099:
	.loc	10 14 25
	movq	%rbx, %rdi
	movq	%r15, %rsi
	callq	__ZN4core3fmt9Formatter9write_fmt17h742ca6aae87ad23cE
	.loc	10 14 40 is_stmt 0
	testb	%al, %al
	je	LBB36_2
Ltmp1100:
LBB36_8:
	.loc	10 0 40
	movb	$1, %cl
	jmp	LBB36_9
Ltmp1101:
LBB36_7:
	.loc	1 328 9 is_stmt 1
	leaq	l___unnamed_5(%rip), %rax
Ltmp1102:
	movq	%rax, -88(%rbp)
	movq	$1, -80(%rbp)
	movq	$0, -72(%rbp)
Ltmp1103:
	leaq	l___unnamed_4(%rip), %rax
Ltmp1104:
	movq	%rax, -56(%rbp)
	movq	$0, -48(%rbp)
	leaq	-88(%rbp), %rsi
Ltmp1105:
	.loc	10 18 17
	movq	%rbx, %rdi
	callq	__ZN4core3fmt9Formatter9write_fmt17h742ca6aae87ad23cE
Ltmp1106:
	movl	%eax, %ecx
Ltmp1107:
LBB36_9:
	.loc	10 19 14
	movl	%ecx, %eax
	addq	$104, %rsp
	popq	%rbx
Ltmp1108:
	popq	%r12
	popq	%r13
	popq	%r14
	popq	%r15
	popq	%rbp
	retq
Ltmp1109:
Lfunc_end36:
	.cfi_endproc

	.globl	__ZN11packed_simd3v3297_$LT$impl$u20$core..fmt..Binary$u20$for$u20$packed_simd..Simd$LT$$u5b$u16$u3b$$u20$2$u5d$$GT$$GT$3fmt17h1c1604fdfe496690E
	.p2align	4, 0x90
__ZN11packed_simd3v3297_$LT$impl$u20$core..fmt..Binary$u20$for$u20$packed_simd..Simd$LT$$u5b$u16$u3b$$u20$2$u5d$$GT$$GT$3fmt17h1c1604fdfe496690E:
Lfunc_begin37:
	.loc	11 9 0
	.cfi_startproc
	pushq	%rbp
	.cfi_def_cfa_offset 16
	.cfi_offset %rbp, -16
	movq	%rsp, %rbp
	.cfi_def_cfa_register %rbp
	pushq	%r15
	pushq	%r14
	pushq	%r13
	pushq	%r12
	pushq	%rbx
	subq	$104, %rsp
	.cfi_offset %rbx, -56
	.cfi_offset %r12, -48
	.cfi_offset %r13, -40
	.cfi_offset %r14, -32
	.cfi_offset %r15, -24
	movq	%rsi, %rbx
	movq	%rdi, %r15
Ltmp1110:
	.loc	11 11 17 prologue_end
	leaq	l___unnamed_12(%rip), %rax
	movq	%rax, -104(%rbp)
	leaq	__ZN44_$LT$$RF$T$u20$as$u20$core..fmt..Display$GT$3fmt17h189ab73c0bfea6d1E(%rip), %rax
	movq	%rax, -96(%rbp)
Ltmp1111:
	.loc	1 328 9
	leaq	l___unnamed_2(%rip), %rax
Ltmp1112:
	movq	%rax, -88(%rbp)
	movq	$2, -80(%rbp)
	movq	$0, -72(%rbp)
	leaq	-104(%rbp), %rax
Ltmp1113:
	movq	%rax, -56(%rbp)
	movq	$1, -48(%rbp)
	leaq	-88(%rbp), %rsi
Ltmp1114:
	.loc	11 11 17
	movq	%rbx, %rdi
	callq	__ZN4core3fmt9Formatter9write_fmt17h742ca6aae87ad23cE
	movb	$1, %cl
	.loc	11 11 50 is_stmt 0
	testb	%al, %al
	jne	LBB37_9
Ltmp1115:
	.loc	11 0 0
	movss	(%r15), %xmm0
	movaps	%xmm0, -128(%rbp)
	xorl	%r14d, %r14d
	leaq	-88(%rbp), %r15
Ltmp1116:
	leaq	l___unnamed_3(%rip), %r13
	jmp	LBB37_3
Ltmp1117:
	.p2align	4, 0x90
LBB37_2:
	movaps	-128(%rbp), %xmm0
Ltmp1118:
	.loc	5 63 36 is_stmt 1
	movaps	%xmm0, -144(%rbp)
Ltmp1119:
	.loc	11 0 0 is_stmt 0
	leaq	1(%r14), %r12
Ltmp1120:
	.loc	5 63 36
	andl	$7, %r14d
Ltmp1121:
	movzwl	-144(%rbp,%r14,2), %eax
Ltmp1122:
	.loc	11 16 21 is_stmt 1
	movw	%ax, -88(%rbp)
	movq	%r15, %rdi
	movq	%rbx, %rsi
	callq	__ZN4core3fmt3num51_$LT$impl$u20$core..fmt..Binary$u20$for$u20$u16$GT$3fmt17h8f2cc3cce809fb58E
Ltmp1123:
	.loc	11 0 0 is_stmt 0
	movq	%r12, %r14
Ltmp1124:
	.loc	11 16 43
	testb	%al, %al
	jne	LBB37_8
Ltmp1125:
LBB37_3:
	.loc	7 1136 52 is_stmt 1
	cmpq	$2, %r14
Ltmp1126:
	.loc	8 505 9
	je	LBB37_7
Ltmp1127:
	.loc	11 13 24
	testq	%r14, %r14
	.loc	11 13 21 is_stmt 0
	je	LBB37_2
Ltmp1128:
	.loc	1 328 9 is_stmt 1
	movq	%r13, -88(%rbp)
	movq	$1, -80(%rbp)
	movq	$0, -72(%rbp)
Ltmp1129:
	leaq	l___unnamed_4(%rip), %rax
Ltmp1130:
	movq	%rax, -56(%rbp)
Ltmp1131:
	movq	$0, -48(%rbp)
Ltmp1132:
	.loc	11 14 25
	movq	%rbx, %rdi
	movq	%r15, %rsi
	callq	__ZN4core3fmt9Formatter9write_fmt17h742ca6aae87ad23cE
	.loc	11 14 40 is_stmt 0
	testb	%al, %al
	je	LBB37_2
Ltmp1133:
LBB37_8:
	.loc	11 0 40
	movb	$1, %cl
	jmp	LBB37_9
Ltmp1134:
LBB37_7:
	.loc	1 328 9 is_stmt 1
	leaq	l___unnamed_5(%rip), %rax
Ltmp1135:
	movq	%rax, -88(%rbp)
	movq	$1, -80(%rbp)
	movq	$0, -72(%rbp)
Ltmp1136:
	leaq	l___unnamed_4(%rip), %rax
Ltmp1137:
	movq	%rax, -56(%rbp)
	movq	$0, -48(%rbp)
	leaq	-88(%rbp), %rsi
Ltmp1138:
	.loc	11 18 17
	movq	%rbx, %rdi
	callq	__ZN4core3fmt9Formatter9write_fmt17h742ca6aae87ad23cE
Ltmp1139:
	movl	%eax, %ecx
Ltmp1140:
LBB37_9:
	.loc	11 19 14
	movl	%ecx, %eax
	addq	$104, %rsp
	popq	%rbx
Ltmp1141:
	popq	%r12
	popq	%r13
	popq	%r14
	popq	%r15
	popq	%rbp
	retq
Ltmp1142:
Lfunc_end37:
	.cfi_endproc

	.globl	__ZN11packed_simd3v32116_$LT$impl$u20$core..fmt..Debug$u20$for$u20$packed_simd..Simd$LT$$u5b$packed_simd..masks..m16$u3b$$u20$2$u5d$$GT$$GT$3fmt17h6ce1f3a8740a3f66E
	.p2align	4, 0x90
__ZN11packed_simd3v32116_$LT$impl$u20$core..fmt..Debug$u20$for$u20$packed_simd..Simd$LT$$u5b$packed_simd..masks..m16$u3b$$u20$2$u5d$$GT$$GT$3fmt17h6ce1f3a8740a3f66E:
Lfunc_begin38:
	.loc	3 49 0
	.cfi_startproc
	pushq	%rbp
	.cfi_def_cfa_offset 16
	.cfi_offset %rbp, -16
	movq	%rsp, %rbp
	.cfi_def_cfa_register %rbp
	pushq	%r15
	pushq	%r14
	pushq	%r13
	pushq	%r12
	pushq	%rbx
	subq	$104, %rsp
	.cfi_offset %rbx, -56
	.cfi_offset %r12, -48
	.cfi_offset %r13, -40
	.cfi_offset %r14, -32
	.cfi_offset %r15, -24
	movq	%rsi, %rbx
	movq	%rdi, %r15
Ltmp1143:
	.loc	3 52 17 prologue_end
	leaq	l___unnamed_13(%rip), %rax
	movq	%rax, -104(%rbp)
	leaq	__ZN44_$LT$$RF$T$u20$as$u20$core..fmt..Display$GT$3fmt17h189ab73c0bfea6d1E(%rip), %rax
	movq	%rax, -96(%rbp)
Ltmp1144:
	.loc	1 328 9
	leaq	l___unnamed_2(%rip), %rax
Ltmp1145:
	movq	%rax, -88(%rbp)
	movq	$2, -80(%rbp)
	movq	$0, -72(%rbp)
	leaq	-104(%rbp), %rax
Ltmp1146:
	movq	%rax, -56(%rbp)
	movq	$1, -48(%rbp)
	leaq	-88(%rbp), %rsi
Ltmp1147:
	.loc	3 52 17
	movq	%rbx, %rdi
	callq	__ZN4core3fmt9Formatter9write_fmt17h742ca6aae87ad23cE
	movb	$1, %cl
	.loc	3 52 50 is_stmt 0
	testb	%al, %al
	jne	LBB38_9
Ltmp1148:
	.loc	3 0 0
	movss	(%r15), %xmm0
	movaps	%xmm0, -128(%rbp)
	xorl	%r14d, %r14d
	leaq	-88(%rbp), %r15
Ltmp1149:
	leaq	l___unnamed_3(%rip), %r13
	jmp	LBB38_3
Ltmp1150:
	.p2align	4, 0x90
LBB38_2:
	movaps	-128(%rbp), %xmm0
Ltmp1151:
	.loc	12 67 36 is_stmt 1
	movaps	%xmm0, -144(%rbp)
Ltmp1152:
	.loc	3 0 0 is_stmt 0
	leaq	1(%r14), %r12
Ltmp1153:
	.loc	12 67 36
	andl	$7, %r14d
Ltmp1154:
	.loc	12 68 17 is_stmt 1
	cmpw	$0, -144(%rbp,%r14,2)
Ltmp1155:
	.loc	3 57 21
	setne	-88(%rbp)
Ltmp1156:
	.loc	1 2052 9
	movq	%r15, %rdi
	movq	%rbx, %rsi
	callq	__ZN43_$LT$bool$u20$as$u20$core..fmt..Display$GT$3fmt17hd78396651a24cfbbE
Ltmp1157:
	.loc	3 0 0 is_stmt 0
	movq	%r12, %r14
Ltmp1158:
	.loc	3 57 43 is_stmt 1
	testb	%al, %al
	jne	LBB38_8
Ltmp1159:
LBB38_3:
	.loc	7 1136 52
	cmpq	$2, %r14
Ltmp1160:
	.loc	8 505 9
	je	LBB38_7
Ltmp1161:
	.loc	3 54 24
	testq	%r14, %r14
	.loc	3 54 21 is_stmt 0
	je	LBB38_2
Ltmp1162:
	.loc	1 328 9 is_stmt 1
	movq	%r13, -88(%rbp)
	movq	$1, -80(%rbp)
	movq	$0, -72(%rbp)
Ltmp1163:
	leaq	l___unnamed_4(%rip), %rax
Ltmp1164:
	movq	%rax, -56(%rbp)
Ltmp1165:
	movq	$0, -48(%rbp)
Ltmp1166:
	.loc	3 55 25
	movq	%rbx, %rdi
	movq	%r15, %rsi
	callq	__ZN4core3fmt9Formatter9write_fmt17h742ca6aae87ad23cE
	.loc	3 55 40 is_stmt 0
	testb	%al, %al
	je	LBB38_2
Ltmp1167:
LBB38_8:
	.loc	3 0 40
	movb	$1, %cl
	jmp	LBB38_9
Ltmp1168:
LBB38_7:
	.loc	1 328 9 is_stmt 1
	leaq	l___unnamed_5(%rip), %rax
Ltmp1169:
	movq	%rax, -88(%rbp)
	movq	$1, -80(%rbp)
	movq	$0, -72(%rbp)
Ltmp1170:
	leaq	l___unnamed_4(%rip), %rax
Ltmp1171:
	movq	%rax, -56(%rbp)
	movq	$0, -48(%rbp)
	leaq	-88(%rbp), %rsi
Ltmp1172:
	.loc	3 59 17
	movq	%rbx, %rdi
	callq	__ZN4core3fmt9Formatter9write_fmt17h742ca6aae87ad23cE
Ltmp1173:
	movl	%eax, %ecx
Ltmp1174:
LBB38_9:
	.loc	3 60 14
	movl	%ecx, %eax
	addq	$104, %rsp
	popq	%rbx
Ltmp1175:
	popq	%r12
	popq	%r13
	popq	%r14
	popq	%r15
	popq	%rbp
	retq
Ltmp1176:
Lfunc_end38:
	.cfi_endproc

	.globl	__ZN11packed_simd3v6495_$LT$impl$u20$core..fmt..Debug$u20$for$u20$packed_simd..Simd$LT$$u5b$i8$u3b$$u20$8$u5d$$GT$$GT$3fmt17hd817bd9e86720ea1E
	.p2align	4, 0x90
__ZN11packed_simd3v6495_$LT$impl$u20$core..fmt..Debug$u20$for$u20$packed_simd..Simd$LT$$u5b$i8$u3b$$u20$8$u5d$$GT$$GT$3fmt17hd817bd9e86720ea1E:
Lfunc_begin39:
	.loc	3 49 0
	.cfi_startproc
	pushq	%rbp
	.cfi_def_cfa_offset 16
	.cfi_offset %rbp, -16
	movq	%rsp, %rbp
	.cfi_def_cfa_register %rbp
	pushq	%r15
	pushq	%r14
	pushq	%r13
	pushq	%r12
	pushq	%rbx
	subq	$104, %rsp
	.cfi_offset %rbx, -56
	.cfi_offset %r12, -48
	.cfi_offset %r13, -40
	.cfi_offset %r14, -32
	.cfi_offset %r15, -24
	movq	%rsi, %r15
	movq	%rdi, %rbx
Ltmp1177:
	.loc	3 52 17 prologue_end
	leaq	l___unnamed_14(%rip), %rax
	movq	%rax, -128(%rbp)
	leaq	__ZN44_$LT$$RF$T$u20$as$u20$core..fmt..Display$GT$3fmt17h189ab73c0bfea6d1E(%rip), %rax
	movq	%rax, -120(%rbp)
Ltmp1178:
	.loc	1 328 9
	leaq	l___unnamed_2(%rip), %rax
Ltmp1179:
	movq	%rax, -88(%rbp)
	movq	$2, -80(%rbp)
	movq	$0, -72(%rbp)
	leaq	-128(%rbp), %rax
Ltmp1180:
	movq	%rax, -56(%rbp)
	movq	$1, -48(%rbp)
	leaq	-88(%rbp), %rsi
Ltmp1181:
	.loc	3 52 17
	movq	%r15, %rdi
	callq	__ZN4core3fmt9Formatter9write_fmt17h742ca6aae87ad23cE
	movb	$1, %r14b
	.loc	3 52 50 is_stmt 0
	testb	%al, %al
	jne	LBB39_42
Ltmp1182:
	.loc	3 0 0
	movq	(%rbx), %xmm0
	movdqa	%xmm0, -112(%rbp)
	movdqa	%xmm0, -144(%rbp)
	movb	-144(%rbp), %al
Ltmp1183:
	.loc	3 57 21 is_stmt 1
	movb	%al, -88(%rbp)
Ltmp1184:
	.loc	4 149 20
	movq	%r15, %rdi
	callq	__ZN4core3fmt9Formatter15debug_lower_hex17hd07f6fde8d0365dfE
	.loc	4 149 17 is_stmt 0
	testb	%al, %al
	je	LBB39_2
Ltmp1185:
	.loc	4 0 17
	leaq	-88(%rbp), %rdi
	.loc	4 150 21 is_stmt 1
	movq	%r15, %rsi
	callq	__ZN4core3fmt3num52_$LT$impl$u20$core..fmt..LowerHex$u20$for$u20$i8$GT$3fmt17h5ba2f2472d1b08b3E
Ltmp1186:
	.loc	3 57 43
	testb	%al, %al
	je	LBB39_6
	jmp	LBB39_42
Ltmp1187:
LBB39_2:
	.loc	4 151 27
	movq	%r15, %rdi
	callq	__ZN4core3fmt9Formatter15debug_upper_hex17hf480c256a9c81c1eE
	leaq	-88(%rbp), %rdi
	.loc	4 154 21
	movq	%r15, %rsi
	.loc	4 151 24
	testb	%al, %al
	je	LBB39_4
Ltmp1188:
	.loc	4 152 21
	callq	__ZN4core3fmt3num52_$LT$impl$u20$core..fmt..UpperHex$u20$for$u20$i8$GT$3fmt17h36a1c2413d99c98eE
Ltmp1189:
	.loc	3 57 43
	testb	%al, %al
	je	LBB39_6
	jmp	LBB39_42
Ltmp1190:
LBB39_4:
	.loc	4 154 21
	callq	__ZN4core3fmt3num3imp51_$LT$impl$u20$core..fmt..Display$u20$for$u20$i8$GT$3fmt17hc9fc67837369c997E
Ltmp1191:
	.loc	3 57 43
	testb	%al, %al
	jne	LBB39_42
Ltmp1192:
LBB39_6:
	.loc	1 328 9
	leaq	l___unnamed_3(%rip), %r13
Ltmp1193:
	movq	%r13, -88(%rbp)
	movq	$1, -80(%rbp)
	movq	$0, -72(%rbp)
	leaq	l___unnamed_4(%rip), %r12
Ltmp1194:
	movq	%r12, -56(%rbp)
	movq	$0, -48(%rbp)
	leaq	-88(%rbp), %rsi
Ltmp1195:
	.loc	3 55 25
	movq	%r15, %rdi
	callq	__ZN4core3fmt9Formatter9write_fmt17h742ca6aae87ad23cE
	.loc	3 55 40 is_stmt 0
	testb	%al, %al
	jne	LBB39_42
Ltmp1196:
	.loc	3 0 40
	movdqa	-112(%rbp), %xmm0
Ltmp1197:
	.loc	5 63 36 is_stmt 1
	movd	%xmm0, %ebx
Ltmp1198:
	.loc	3 57 21
	movb	%bh, -88(%rbp)
Ltmp1199:
	.loc	4 149 20
	movq	%r15, %rdi
	callq	__ZN4core3fmt9Formatter15debug_lower_hex17hd07f6fde8d0365dfE
	.loc	4 149 17 is_stmt 0
	testb	%al, %al
	je	LBB39_8
Ltmp1200:
	.loc	4 0 17
	leaq	-88(%rbp), %rdi
	.loc	4 150 21 is_stmt 1
	movq	%r15, %rsi
	callq	__ZN4core3fmt3num52_$LT$impl$u20$core..fmt..LowerHex$u20$for$u20$i8$GT$3fmt17h5ba2f2472d1b08b3E
	jmp	LBB39_10
Ltmp1201:
LBB39_8:
	.loc	4 151 27
	movq	%r15, %rdi
	callq	__ZN4core3fmt9Formatter15debug_upper_hex17hf480c256a9c81c1eE
	leaq	-88(%rbp), %rdi
	.loc	4 152 21
	movq	%r15, %rsi
	.loc	4 151 24
	testb	%al, %al
	je	LBB39_9
Ltmp1202:
	.loc	4 152 21
	callq	__ZN4core3fmt3num52_$LT$impl$u20$core..fmt..UpperHex$u20$for$u20$i8$GT$3fmt17h36a1c2413d99c98eE
	jmp	LBB39_10
Ltmp1203:
LBB39_9:
	.loc	4 154 21
	callq	__ZN4core3fmt3num3imp51_$LT$impl$u20$core..fmt..Display$u20$for$u20$i8$GT$3fmt17hc9fc67837369c997E
Ltmp1204:
LBB39_10:
	.loc	3 57 43
	testb	%al, %al
	jne	LBB39_42
Ltmp1205:
	.loc	1 328 9
	movq	%r13, -88(%rbp)
	movq	$1, -80(%rbp)
	movq	$0, -72(%rbp)
Ltmp1206:
	movq	%r12, -56(%rbp)
	movq	$0, -48(%rbp)
	leaq	-88(%rbp), %rsi
Ltmp1207:
	.loc	3 55 25
	movq	%r15, %rdi
	callq	__ZN4core3fmt9Formatter9write_fmt17h742ca6aae87ad23cE
	.loc	3 55 40 is_stmt 0
	testb	%al, %al
	jne	LBB39_42
Ltmp1208:
	.loc	5 63 36 is_stmt 1
	movl	%ebx, %eax
	shrl	$16, %eax
Ltmp1209:
	.loc	3 57 21
	movb	%al, -88(%rbp)
Ltmp1210:
	.loc	4 149 20
	movq	%r15, %rdi
	callq	__ZN4core3fmt9Formatter15debug_lower_hex17hd07f6fde8d0365dfE
	.loc	4 149 17 is_stmt 0
	testb	%al, %al
	je	LBB39_13
Ltmp1211:
	.loc	4 0 17
	leaq	-88(%rbp), %rdi
	.loc	4 150 21 is_stmt 1
	movq	%r15, %rsi
	callq	__ZN4core3fmt3num52_$LT$impl$u20$core..fmt..LowerHex$u20$for$u20$i8$GT$3fmt17h5ba2f2472d1b08b3E
	jmp	LBB39_15
Ltmp1212:
LBB39_13:
	.loc	4 151 27
	movq	%r15, %rdi
	callq	__ZN4core3fmt9Formatter15debug_upper_hex17hf480c256a9c81c1eE
	leaq	-88(%rbp), %rdi
	.loc	4 152 21
	movq	%r15, %rsi
	.loc	4 151 24
	testb	%al, %al
	je	LBB39_14
Ltmp1213:
	.loc	4 152 21
	callq	__ZN4core3fmt3num52_$LT$impl$u20$core..fmt..UpperHex$u20$for$u20$i8$GT$3fmt17h36a1c2413d99c98eE
	jmp	LBB39_15
Ltmp1214:
LBB39_14:
	.loc	4 154 21
	callq	__ZN4core3fmt3num3imp51_$LT$impl$u20$core..fmt..Display$u20$for$u20$i8$GT$3fmt17hc9fc67837369c997E
Ltmp1215:
LBB39_15:
	.loc	3 57 43
	testb	%al, %al
	jne	LBB39_42
Ltmp1216:
	.loc	1 328 9
	movq	%r13, -88(%rbp)
	movq	$1, -80(%rbp)
	movq	$0, -72(%rbp)
Ltmp1217:
	movq	%r12, -56(%rbp)
	movq	$0, -48(%rbp)
	leaq	-88(%rbp), %rsi
Ltmp1218:
	.loc	3 55 25
	movq	%r15, %rdi
	callq	__ZN4core3fmt9Formatter9write_fmt17h742ca6aae87ad23cE
	.loc	3 55 40 is_stmt 0
	testb	%al, %al
	jne	LBB39_42
Ltmp1219:
	.loc	5 63 36 is_stmt 1
	shrl	$24, %ebx
Ltmp1220:
	.loc	3 57 21
	movb	%bl, -88(%rbp)
Ltmp1221:
	.loc	4 149 20
	movq	%r15, %rdi
	callq	__ZN4core3fmt9Formatter15debug_lower_hex17hd07f6fde8d0365dfE
	.loc	4 149 17 is_stmt 0
	testb	%al, %al
	je	LBB39_18
Ltmp1222:
	.loc	4 0 17
	leaq	-88(%rbp), %rdi
	.loc	4 150 21 is_stmt 1
	movq	%r15, %rsi
	callq	__ZN4core3fmt3num52_$LT$impl$u20$core..fmt..LowerHex$u20$for$u20$i8$GT$3fmt17h5ba2f2472d1b08b3E
	jmp	LBB39_20
Ltmp1223:
LBB39_18:
	.loc	4 151 27
	movq	%r15, %rdi
	callq	__ZN4core3fmt9Formatter15debug_upper_hex17hf480c256a9c81c1eE
	leaq	-88(%rbp), %rdi
	.loc	4 152 21
	movq	%r15, %rsi
	.loc	4 151 24
	testb	%al, %al
	je	LBB39_19
Ltmp1224:
	.loc	4 152 21
	callq	__ZN4core3fmt3num52_$LT$impl$u20$core..fmt..UpperHex$u20$for$u20$i8$GT$3fmt17h36a1c2413d99c98eE
	jmp	LBB39_20
Ltmp1225:
LBB39_19:
	.loc	4 154 21
	callq	__ZN4core3fmt3num3imp51_$LT$impl$u20$core..fmt..Display$u20$for$u20$i8$GT$3fmt17hc9fc67837369c997E
Ltmp1226:
LBB39_20:
	.loc	3 57 43
	testb	%al, %al
	jne	LBB39_42
Ltmp1227:
	.loc	1 328 9
	movq	%r13, -88(%rbp)
	movq	$1, -80(%rbp)
	movq	$0, -72(%rbp)
Ltmp1228:
	movq	%r12, -56(%rbp)
	movq	$0, -48(%rbp)
	leaq	-88(%rbp), %rsi
Ltmp1229:
	.loc	3 55 25
	movq	%r15, %rdi
	callq	__ZN4core3fmt9Formatter9write_fmt17h742ca6aae87ad23cE
	.loc	3 55 40 is_stmt 0
	testb	%al, %al
	jne	LBB39_42
Ltmp1230:
	.loc	3 0 40
	movdqa	-112(%rbp), %xmm0
Ltmp1231:
	.loc	5 63 36 is_stmt 1
	pextrw	$2, %xmm0, %ebx
Ltmp1232:
	.loc	3 57 21
	movb	%bl, -88(%rbp)
Ltmp1233:
	.loc	4 149 20
	movq	%r15, %rdi
	callq	__ZN4core3fmt9Formatter15debug_lower_hex17hd07f6fde8d0365dfE
	.loc	4 149 17 is_stmt 0
	testb	%al, %al
	je	LBB39_23
Ltmp1234:
	.loc	4 0 17
	leaq	-88(%rbp), %rdi
	.loc	4 150 21 is_stmt 1
	movq	%r15, %rsi
	callq	__ZN4core3fmt3num52_$LT$impl$u20$core..fmt..LowerHex$u20$for$u20$i8$GT$3fmt17h5ba2f2472d1b08b3E
	jmp	LBB39_25
Ltmp1235:
LBB39_23:
	.loc	4 151 27
	movq	%r15, %rdi
	callq	__ZN4core3fmt9Formatter15debug_upper_hex17hf480c256a9c81c1eE
	leaq	-88(%rbp), %rdi
	.loc	4 152 21
	movq	%r15, %rsi
	.loc	4 151 24
	testb	%al, %al
	je	LBB39_24
Ltmp1236:
	.loc	4 152 21
	callq	__ZN4core3fmt3num52_$LT$impl$u20$core..fmt..UpperHex$u20$for$u20$i8$GT$3fmt17h36a1c2413d99c98eE
	jmp	LBB39_25
Ltmp1237:
LBB39_24:
	.loc	4 154 21
	callq	__ZN4core3fmt3num3imp51_$LT$impl$u20$core..fmt..Display$u20$for$u20$i8$GT$3fmt17hc9fc67837369c997E
Ltmp1238:
LBB39_25:
	.loc	3 57 43
	testb	%al, %al
	jne	LBB39_42
Ltmp1239:
	.loc	1 328 9
	movq	%r13, -88(%rbp)
	movq	$1, -80(%rbp)
	movq	$0, -72(%rbp)
Ltmp1240:
	movq	%r12, -56(%rbp)
	movq	$0, -48(%rbp)
	leaq	-88(%rbp), %rsi
Ltmp1241:
	.loc	3 55 25
	movq	%r15, %rdi
	callq	__ZN4core3fmt9Formatter9write_fmt17h742ca6aae87ad23cE
	.loc	3 55 40 is_stmt 0
	testb	%al, %al
	jne	LBB39_42
Ltmp1242:
	.loc	3 57 21 is_stmt 1
	movb	%bh, -88(%rbp)
Ltmp1243:
	.loc	4 149 20
	movq	%r15, %rdi
	callq	__ZN4core3fmt9Formatter15debug_lower_hex17hd07f6fde8d0365dfE
	.loc	4 149 17 is_stmt 0
	testb	%al, %al
	je	LBB39_28
Ltmp1244:
	.loc	4 0 17
	leaq	-88(%rbp), %rdi
	.loc	4 150 21 is_stmt 1
	movq	%r15, %rsi
	callq	__ZN4core3fmt3num52_$LT$impl$u20$core..fmt..LowerHex$u20$for$u20$i8$GT$3fmt17h5ba2f2472d1b08b3E
	jmp	LBB39_30
Ltmp1245:
LBB39_28:
	.loc	4 151 27
	movq	%r15, %rdi
	callq	__ZN4core3fmt9Formatter15debug_upper_hex17hf480c256a9c81c1eE
	leaq	-88(%rbp), %rdi
	.loc	4 152 21
	movq	%r15, %rsi
	.loc	4 151 24
	testb	%al, %al
	je	LBB39_29
Ltmp1246:
	.loc	4 152 21
	callq	__ZN4core3fmt3num52_$LT$impl$u20$core..fmt..UpperHex$u20$for$u20$i8$GT$3fmt17h36a1c2413d99c98eE
	jmp	LBB39_30
Ltmp1247:
LBB39_29:
	.loc	4 154 21
	callq	__ZN4core3fmt3num3imp51_$LT$impl$u20$core..fmt..Display$u20$for$u20$i8$GT$3fmt17hc9fc67837369c997E
Ltmp1248:
LBB39_30:
	.loc	3 57 43
	testb	%al, %al
	jne	LBB39_42
Ltmp1249:
	.loc	1 328 9
	movq	%r13, -88(%rbp)
	movq	$1, -80(%rbp)
	movq	$0, -72(%rbp)
Ltmp1250:
	movq	%r12, -56(%rbp)
	movq	$0, -48(%rbp)
	leaq	-88(%rbp), %rsi
Ltmp1251:
	.loc	3 55 25
	movq	%r15, %rdi
	callq	__ZN4core3fmt9Formatter9write_fmt17h742ca6aae87ad23cE
	.loc	3 55 40 is_stmt 0
	testb	%al, %al
	jne	LBB39_42
Ltmp1252:
	.loc	3 0 40
	movdqa	-112(%rbp), %xmm0
Ltmp1253:
	.loc	5 63 36 is_stmt 1
	pextrw	$3, %xmm0, %ebx
Ltmp1254:
	.loc	3 57 21
	movb	%bl, -88(%rbp)
Ltmp1255:
	.loc	4 149 20
	movq	%r15, %rdi
	callq	__ZN4core3fmt9Formatter15debug_lower_hex17hd07f6fde8d0365dfE
	.loc	4 149 17 is_stmt 0
	testb	%al, %al
	je	LBB39_33
Ltmp1256:
	.loc	4 0 17
	leaq	-88(%rbp), %rdi
	.loc	4 150 21 is_stmt 1
	movq	%r15, %rsi
	callq	__ZN4core3fmt3num52_$LT$impl$u20$core..fmt..LowerHex$u20$for$u20$i8$GT$3fmt17h5ba2f2472d1b08b3E
	jmp	LBB39_35
Ltmp1257:
LBB39_33:
	.loc	4 151 27
	movq	%r15, %rdi
	callq	__ZN4core3fmt9Formatter15debug_upper_hex17hf480c256a9c81c1eE
	leaq	-88(%rbp), %rdi
	.loc	4 152 21
	movq	%r15, %rsi
	.loc	4 151 24
	testb	%al, %al
	je	LBB39_34
Ltmp1258:
	.loc	4 152 21
	callq	__ZN4core3fmt3num52_$LT$impl$u20$core..fmt..UpperHex$u20$for$u20$i8$GT$3fmt17h36a1c2413d99c98eE
	jmp	LBB39_35
Ltmp1259:
LBB39_34:
	.loc	4 154 21
	callq	__ZN4core3fmt3num3imp51_$LT$impl$u20$core..fmt..Display$u20$for$u20$i8$GT$3fmt17hc9fc67837369c997E
Ltmp1260:
LBB39_35:
	.loc	3 57 43
	testb	%al, %al
	jne	LBB39_42
Ltmp1261:
	.loc	1 328 9
	movq	%r13, -88(%rbp)
	movq	$1, -80(%rbp)
	movq	$0, -72(%rbp)
Ltmp1262:
	movq	%r12, -56(%rbp)
	movq	$0, -48(%rbp)
	leaq	-88(%rbp), %rsi
Ltmp1263:
	.loc	3 55 25
	movq	%r15, %rdi
	callq	__ZN4core3fmt9Formatter9write_fmt17h742ca6aae87ad23cE
	.loc	3 55 40 is_stmt 0
	testb	%al, %al
	jne	LBB39_42
Ltmp1264:
	.loc	3 57 21 is_stmt 1
	movb	%bh, -88(%rbp)
Ltmp1265:
	.loc	4 149 20
	movq	%r15, %rdi
	callq	__ZN4core3fmt9Formatter15debug_lower_hex17hd07f6fde8d0365dfE
	.loc	4 149 17 is_stmt 0
	testb	%al, %al
	je	LBB39_38
Ltmp1266:
	.loc	4 0 17
	leaq	-88(%rbp), %rdi
	.loc	4 150 21 is_stmt 1
	movq	%r15, %rsi
	callq	__ZN4core3fmt3num52_$LT$impl$u20$core..fmt..LowerHex$u20$for$u20$i8$GT$3fmt17h5ba2f2472d1b08b3E
	jmp	LBB39_40
Ltmp1267:
LBB39_38:
	.loc	4 151 27
	movq	%r15, %rdi
	callq	__ZN4core3fmt9Formatter15debug_upper_hex17hf480c256a9c81c1eE
	leaq	-88(%rbp), %rdi
	.loc	4 152 21
	movq	%r15, %rsi
	.loc	4 151 24
	testb	%al, %al
	je	LBB39_39
Ltmp1268:
	.loc	4 152 21
	callq	__ZN4core3fmt3num52_$LT$impl$u20$core..fmt..UpperHex$u20$for$u20$i8$GT$3fmt17h36a1c2413d99c98eE
	jmp	LBB39_40
Ltmp1269:
LBB39_39:
	.loc	4 154 21
	callq	__ZN4core3fmt3num3imp51_$LT$impl$u20$core..fmt..Display$u20$for$u20$i8$GT$3fmt17hc9fc67837369c997E
Ltmp1270:
LBB39_40:
	.loc	3 57 43
	testb	%al, %al
	jne	LBB39_42
Ltmp1271:
	.loc	1 328 9
	leaq	l___unnamed_5(%rip), %rax
Ltmp1272:
	movq	%rax, -88(%rbp)
	movq	$1, -80(%rbp)
	movq	$0, -72(%rbp)
Ltmp1273:
	movq	%r12, -56(%rbp)
	movq	$0, -48(%rbp)
	leaq	-88(%rbp), %rsi
Ltmp1274:
	.loc	3 59 17
	movq	%r15, %rdi
	callq	__ZN4core3fmt9Formatter9write_fmt17h742ca6aae87ad23cE
Ltmp1275:
	movl	%eax, %r14d
Ltmp1276:
LBB39_42:
	.loc	3 60 14
	movl	%r14d, %eax
	addq	$104, %rsp
	popq	%rbx
	popq	%r12
	popq	%r13
	popq	%r14
	popq	%r15
Ltmp1277:
	popq	%rbp
	retq
Ltmp1278:
Lfunc_end39:
	.cfi_endproc

	.globl	__ZN11packed_simd3v6498_$LT$impl$u20$core..fmt..LowerHex$u20$for$u20$packed_simd..Simd$LT$$u5b$i8$u3b$$u20$8$u5d$$GT$$GT$3fmt17h9006cd3fc79c9fd7E
	.p2align	4, 0x90
__ZN11packed_simd3v6498_$LT$impl$u20$core..fmt..LowerHex$u20$for$u20$packed_simd..Simd$LT$$u5b$i8$u3b$$u20$8$u5d$$GT$$GT$3fmt17h9006cd3fc79c9fd7E:
Lfunc_begin40:
	.loc	6 9 0
	.cfi_startproc
	pushq	%rbp
	.cfi_def_cfa_offset 16
	.cfi_offset %rbp, -16
	movq	%rsp, %rbp
	.cfi_def_cfa_register %rbp
	pushq	%r15
	pushq	%r14
	pushq	%r13
	pushq	%r12
	pushq	%rbx
	subq	$104, %rsp
	.cfi_offset %rbx, -56
	.cfi_offset %r12, -48
	.cfi_offset %r13, -40
	.cfi_offset %r14, -32
	.cfi_offset %r15, -24
	movq	%rsi, %rbx
	movq	%rdi, %r15
Ltmp1279:
	.loc	6 11 17 prologue_end
	leaq	l___unnamed_14(%rip), %rax
	movq	%rax, -104(%rbp)
	leaq	__ZN44_$LT$$RF$T$u20$as$u20$core..fmt..Display$GT$3fmt17h189ab73c0bfea6d1E(%rip), %rax
	movq	%rax, -96(%rbp)
Ltmp1280:
	.loc	1 328 9
	leaq	l___unnamed_2(%rip), %rax
Ltmp1281:
	movq	%rax, -88(%rbp)
	movq	$2, -80(%rbp)
	movq	$0, -72(%rbp)
	leaq	-104(%rbp), %rax
Ltmp1282:
	movq	%rax, -56(%rbp)
	movq	$1, -48(%rbp)
	leaq	-88(%rbp), %rsi
Ltmp1283:
	.loc	6 11 17
	movq	%rbx, %rdi
	callq	__ZN4core3fmt9Formatter9write_fmt17h742ca6aae87ad23cE
	movb	$1, %cl
	.loc	6 11 50 is_stmt 0
	testb	%al, %al
	jne	LBB40_9
Ltmp1284:
	.loc	6 0 0
	movsd	(%r15), %xmm0
	movaps	%xmm0, -128(%rbp)
	xorl	%r14d, %r14d
	leaq	-88(%rbp), %r15
Ltmp1285:
	leaq	l___unnamed_3(%rip), %r13
	jmp	LBB40_3
Ltmp1286:
	.p2align	4, 0x90
LBB40_2:
	movaps	-128(%rbp), %xmm0
Ltmp1287:
	.loc	5 63 36 is_stmt 1
	movaps	%xmm0, -144(%rbp)
Ltmp1288:
	.loc	6 0 0 is_stmt 0
	leaq	1(%r14), %r12
Ltmp1289:
	.loc	5 63 36
	andl	$15, %r14d
Ltmp1290:
	movzbl	-144(%rbp,%r14), %eax
Ltmp1291:
	.loc	6 16 21 is_stmt 1
	movb	%al, -88(%rbp)
	movq	%r15, %rdi
	movq	%rbx, %rsi
	callq	__ZN4core3fmt3num52_$LT$impl$u20$core..fmt..LowerHex$u20$for$u20$i8$GT$3fmt17h5ba2f2472d1b08b3E
Ltmp1292:
	.loc	6 0 0 is_stmt 0
	movq	%r12, %r14
Ltmp1293:
	.loc	6 16 43
	testb	%al, %al
	jne	LBB40_8
Ltmp1294:
LBB40_3:
	.loc	7 1136 52 is_stmt 1
	cmpq	$8, %r14
Ltmp1295:
	.loc	8 505 9
	je	LBB40_7
Ltmp1296:
	.loc	6 13 24
	testq	%r14, %r14
	.loc	6 13 21 is_stmt 0
	je	LBB40_2
Ltmp1297:
	.loc	1 328 9 is_stmt 1
	movq	%r13, -88(%rbp)
	movq	$1, -80(%rbp)
	movq	$0, -72(%rbp)
Ltmp1298:
	leaq	l___unnamed_4(%rip), %rax
Ltmp1299:
	movq	%rax, -56(%rbp)
Ltmp1300:
	movq	$0, -48(%rbp)
Ltmp1301:
	.loc	6 14 25
	movq	%rbx, %rdi
	movq	%r15, %rsi
	callq	__ZN4core3fmt9Formatter9write_fmt17h742ca6aae87ad23cE
	.loc	6 14 40 is_stmt 0
	testb	%al, %al
	je	LBB40_2
Ltmp1302:
LBB40_8:
	.loc	6 0 40
	movb	$1, %cl
	jmp	LBB40_9
Ltmp1303:
LBB40_7:
	.loc	1 328 9 is_stmt 1
	leaq	l___unnamed_5(%rip), %rax
Ltmp1304:
	movq	%rax, -88(%rbp)
	movq	$1, -80(%rbp)
	movq	$0, -72(%rbp)
Ltmp1305:
	leaq	l___unnamed_4(%rip), %rax
Ltmp1306:
	movq	%rax, -56(%rbp)
	movq	$0, -48(%rbp)
	leaq	-88(%rbp), %rsi
Ltmp1307:
	.loc	6 18 17
	movq	%rbx, %rdi
	callq	__ZN4core3fmt9Formatter9write_fmt17h742ca6aae87ad23cE
Ltmp1308:
	movl	%eax, %ecx
Ltmp1309:
LBB40_9:
	.loc	6 19 14
	movl	%ecx, %eax
	addq	$104, %rsp
	popq	%rbx
Ltmp1310:
	popq	%r12
	popq	%r13
	popq	%r14
	popq	%r15
	popq	%rbp
	retq
Ltmp1311:
Lfunc_end40:
	.cfi_endproc

	.globl	__ZN11packed_simd3v6498_$LT$impl$u20$core..fmt..UpperHex$u20$for$u20$packed_simd..Simd$LT$$u5b$i8$u3b$$u20$8$u5d$$GT$$GT$3fmt17h469ed33dc837c6beE
	.p2align	4, 0x90
__ZN11packed_simd3v6498_$LT$impl$u20$core..fmt..UpperHex$u20$for$u20$packed_simd..Simd$LT$$u5b$i8$u3b$$u20$8$u5d$$GT$$GT$3fmt17h469ed33dc837c6beE:
Lfunc_begin41:
	.loc	9 9 0
	.cfi_startproc
	pushq	%rbp
	.cfi_def_cfa_offset 16
	.cfi_offset %rbp, -16
	movq	%rsp, %rbp
	.cfi_def_cfa_register %rbp
	pushq	%r15
	pushq	%r14
	pushq	%r13
	pushq	%r12
	pushq	%rbx
	subq	$104, %rsp
	.cfi_offset %rbx, -56
	.cfi_offset %r12, -48
	.cfi_offset %r13, -40
	.cfi_offset %r14, -32
	.cfi_offset %r15, -24
	movq	%rsi, %rbx
	movq	%rdi, %r15
Ltmp1312:
	.loc	9 11 17 prologue_end
	leaq	l___unnamed_14(%rip), %rax
	movq	%rax, -104(%rbp)
	leaq	__ZN44_$LT$$RF$T$u20$as$u20$core..fmt..Display$GT$3fmt17h189ab73c0bfea6d1E(%rip), %rax
	movq	%rax, -96(%rbp)
Ltmp1313:
	.loc	1 328 9
	leaq	l___unnamed_2(%rip), %rax
Ltmp1314:
	movq	%rax, -88(%rbp)
	movq	$2, -80(%rbp)
	movq	$0, -72(%rbp)
	leaq	-104(%rbp), %rax
Ltmp1315:
	movq	%rax, -56(%rbp)
	movq	$1, -48(%rbp)
	leaq	-88(%rbp), %rsi
Ltmp1316:
	.loc	9 11 17
	movq	%rbx, %rdi
	callq	__ZN4core3fmt9Formatter9write_fmt17h742ca6aae87ad23cE
	movb	$1, %cl
	.loc	9 11 50 is_stmt 0
	testb	%al, %al
	jne	LBB41_9
Ltmp1317:
	.loc	9 0 0
	movsd	(%r15), %xmm0
	movaps	%xmm0, -128(%rbp)
	xorl	%r14d, %r14d
	leaq	-88(%rbp), %r15
Ltmp1318:
	leaq	l___unnamed_3(%rip), %r13
	jmp	LBB41_3
Ltmp1319:
	.p2align	4, 0x90
LBB41_2:
	movaps	-128(%rbp), %xmm0
Ltmp1320:
	.loc	5 63 36 is_stmt 1
	movaps	%xmm0, -144(%rbp)
Ltmp1321:
	.loc	9 0 0 is_stmt 0
	leaq	1(%r14), %r12
Ltmp1322:
	.loc	5 63 36
	andl	$15, %r14d
Ltmp1323:
	movzbl	-144(%rbp,%r14), %eax
Ltmp1324:
	.loc	9 16 21 is_stmt 1
	movb	%al, -88(%rbp)
	movq	%r15, %rdi
	movq	%rbx, %rsi
	callq	__ZN4core3fmt3num52_$LT$impl$u20$core..fmt..UpperHex$u20$for$u20$i8$GT$3fmt17h36a1c2413d99c98eE
Ltmp1325:
	.loc	9 0 0 is_stmt 0
	movq	%r12, %r14
Ltmp1326:
	.loc	9 16 43
	testb	%al, %al
	jne	LBB41_8
Ltmp1327:
LBB41_3:
	.loc	7 1136 52 is_stmt 1
	cmpq	$8, %r14
Ltmp1328:
	.loc	8 505 9
	je	LBB41_7
Ltmp1329:
	.loc	9 13 24
	testq	%r14, %r14
	.loc	9 13 21 is_stmt 0
	je	LBB41_2
Ltmp1330:
	.loc	1 328 9 is_stmt 1
	movq	%r13, -88(%rbp)
	movq	$1, -80(%rbp)
	movq	$0, -72(%rbp)
Ltmp1331:
	leaq	l___unnamed_4(%rip), %rax
Ltmp1332:
	movq	%rax, -56(%rbp)
Ltmp1333:
	movq	$0, -48(%rbp)
Ltmp1334:
	.loc	9 14 25
	movq	%rbx, %rdi
	movq	%r15, %rsi
	callq	__ZN4core3fmt9Formatter9write_fmt17h742ca6aae87ad23cE
	.loc	9 14 40 is_stmt 0
	testb	%al, %al
	je	LBB41_2
Ltmp1335:
LBB41_8:
	.loc	9 0 40
	movb	$1, %cl
	jmp	LBB41_9
Ltmp1336:
LBB41_7:
	.loc	1 328 9 is_stmt 1
	leaq	l___unnamed_5(%rip), %rax
Ltmp1337:
	movq	%rax, -88(%rbp)
	movq	$1, -80(%rbp)
	movq	$0, -72(%rbp)
Ltmp1338:
	leaq	l___unnamed_4(%rip), %rax
Ltmp1339:
	movq	%rax, -56(%rbp)
	movq	$0, -48(%rbp)
	leaq	-88(%rbp), %rsi
Ltmp1340:
	.loc	9 18 17
	movq	%rbx, %rdi
	callq	__ZN4core3fmt9Formatter9write_fmt17h742ca6aae87ad23cE
Ltmp1341:
	movl	%eax, %ecx
Ltmp1342:
LBB41_9:
	.loc	9 19 14
	movl	%ecx, %eax
	addq	$104, %rsp
	popq	%rbx
Ltmp1343:
	popq	%r12
	popq	%r13
	popq	%r14
	popq	%r15
	popq	%rbp
	retq
Ltmp1344:
Lfunc_end41:
	.cfi_endproc

	.globl	__ZN11packed_simd3v6495_$LT$impl$u20$core..fmt..Octal$u20$for$u20$packed_simd..Simd$LT$$u5b$i8$u3b$$u20$8$u5d$$GT$$GT$3fmt17he6340fc91840ad20E
	.p2align	4, 0x90
__ZN11packed_simd3v6495_$LT$impl$u20$core..fmt..Octal$u20$for$u20$packed_simd..Simd$LT$$u5b$i8$u3b$$u20$8$u5d$$GT$$GT$3fmt17he6340fc91840ad20E:
Lfunc_begin42:
	.loc	10 9 0
	.cfi_startproc
	pushq	%rbp
	.cfi_def_cfa_offset 16
	.cfi_offset %rbp, -16
	movq	%rsp, %rbp
	.cfi_def_cfa_register %rbp
	pushq	%r15
	pushq	%r14
	pushq	%r13
	pushq	%r12
	pushq	%rbx
	subq	$104, %rsp
	.cfi_offset %rbx, -56
	.cfi_offset %r12, -48
	.cfi_offset %r13, -40
	.cfi_offset %r14, -32
	.cfi_offset %r15, -24
	movq	%rsi, %rbx
	movq	%rdi, %r15
Ltmp1345:
	.loc	10 11 17 prologue_end
	leaq	l___unnamed_14(%rip), %rax
	movq	%rax, -104(%rbp)
	leaq	__ZN44_$LT$$RF$T$u20$as$u20$core..fmt..Display$GT$3fmt17h189ab73c0bfea6d1E(%rip), %rax
	movq	%rax, -96(%rbp)
Ltmp1346:
	.loc	1 328 9
	leaq	l___unnamed_2(%rip), %rax
Ltmp1347:
	movq	%rax, -88(%rbp)
	movq	$2, -80(%rbp)
	movq	$0, -72(%rbp)
	leaq	-104(%rbp), %rax
Ltmp1348:
	movq	%rax, -56(%rbp)
	movq	$1, -48(%rbp)
	leaq	-88(%rbp), %rsi
Ltmp1349:
	.loc	10 11 17
	movq	%rbx, %rdi
	callq	__ZN4core3fmt9Formatter9write_fmt17h742ca6aae87ad23cE
	movb	$1, %cl
	.loc	10 11 50 is_stmt 0
	testb	%al, %al
	jne	LBB42_9
Ltmp1350:
	.loc	10 0 0
	movsd	(%r15), %xmm0
	movaps	%xmm0, -128(%rbp)
	xorl	%r14d, %r14d
	leaq	-88(%rbp), %r15
Ltmp1351:
	leaq	l___unnamed_3(%rip), %r13
	jmp	LBB42_3
Ltmp1352:
	.p2align	4, 0x90
LBB42_2:
	movaps	-128(%rbp), %xmm0
Ltmp1353:
	.loc	5 63 36 is_stmt 1
	movaps	%xmm0, -144(%rbp)
Ltmp1354:
	.loc	10 0 0 is_stmt 0
	leaq	1(%r14), %r12
Ltmp1355:
	.loc	5 63 36
	andl	$15, %r14d
Ltmp1356:
	movzbl	-144(%rbp,%r14), %eax
Ltmp1357:
	.loc	10 16 21 is_stmt 1
	movb	%al, -88(%rbp)
	movq	%r15, %rdi
	movq	%rbx, %rsi
	callq	__ZN4core3fmt3num49_$LT$impl$u20$core..fmt..Octal$u20$for$u20$i8$GT$3fmt17h22bc4fdd4bc3127cE
Ltmp1358:
	.loc	10 0 0 is_stmt 0
	movq	%r12, %r14
Ltmp1359:
	.loc	10 16 43
	testb	%al, %al
	jne	LBB42_8
Ltmp1360:
LBB42_3:
	.loc	7 1136 52 is_stmt 1
	cmpq	$8, %r14
Ltmp1361:
	.loc	8 505 9
	je	LBB42_7
Ltmp1362:
	.loc	10 13 24
	testq	%r14, %r14
	.loc	10 13 21 is_stmt 0
	je	LBB42_2
Ltmp1363:
	.loc	1 328 9 is_stmt 1
	movq	%r13, -88(%rbp)
	movq	$1, -80(%rbp)
	movq	$0, -72(%rbp)
Ltmp1364:
	leaq	l___unnamed_4(%rip), %rax
Ltmp1365:
	movq	%rax, -56(%rbp)
Ltmp1366:
	movq	$0, -48(%rbp)
Ltmp1367:
	.loc	10 14 25
	movq	%rbx, %rdi
	movq	%r15, %rsi
	callq	__ZN4core3fmt9Formatter9write_fmt17h742ca6aae87ad23cE
	.loc	10 14 40 is_stmt 0
	testb	%al, %al
	je	LBB42_2
Ltmp1368:
LBB42_8:
	.loc	10 0 40
	movb	$1, %cl
	jmp	LBB42_9
Ltmp1369:
LBB42_7:
	.loc	1 328 9 is_stmt 1
	leaq	l___unnamed_5(%rip), %rax
Ltmp1370:
	movq	%rax, -88(%rbp)
	movq	$1, -80(%rbp)
	movq	$0, -72(%rbp)
Ltmp1371:
	leaq	l___unnamed_4(%rip), %rax
Ltmp1372:
	movq	%rax, -56(%rbp)
	movq	$0, -48(%rbp)
	leaq	-88(%rbp), %rsi
Ltmp1373:
	.loc	10 18 17
	movq	%rbx, %rdi
	callq	__ZN4core3fmt9Formatter9write_fmt17h742ca6aae87ad23cE
Ltmp1374:
	movl	%eax, %ecx
Ltmp1375:
LBB42_9:
	.loc	10 19 14
	movl	%ecx, %eax
	addq	$104, %rsp
	popq	%rbx
Ltmp1376:
	popq	%r12
	popq	%r13
	popq	%r14
	popq	%r15
	popq	%rbp
	retq
Ltmp1377:
Lfunc_end42:
	.cfi_endproc

	.globl	__ZN11packed_simd3v6496_$LT$impl$u20$core..fmt..Binary$u20$for$u20$packed_simd..Simd$LT$$u5b$i8$u3b$$u20$8$u5d$$GT$$GT$3fmt17h712e6c9d0ae3ebe1E
	.p2align	4, 0x90
__ZN11packed_simd3v6496_$LT$impl$u20$core..fmt..Binary$u20$for$u20$packed_simd..Simd$LT$$u5b$i8$u3b$$u20$8$u5d$$GT$$GT$3fmt17h712e6c9d0ae3ebe1E:
Lfunc_begin43:
	.loc	11 9 0
	.cfi_startproc
	pushq	%rbp
	.cfi_def_cfa_offset 16
	.cfi_offset %rbp, -16
	movq	%rsp, %rbp
	.cfi_def_cfa_register %rbp
	pushq	%r15
	pushq	%r14
	pushq	%r13
	pushq	%r12
	pushq	%rbx
	subq	$104, %rsp
	.cfi_offset %rbx, -56
	.cfi_offset %r12, -48
	.cfi_offset %r13, -40
	.cfi_offset %r14, -32
	.cfi_offset %r15, -24
	movq	%rsi, %rbx
	movq	%rdi, %r15
Ltmp1378:
	.loc	11 11 17 prologue_end
	leaq	l___unnamed_14(%rip), %rax
	movq	%rax, -104(%rbp)
	leaq	__ZN44_$LT$$RF$T$u20$as$u20$core..fmt..Display$GT$3fmt17h189ab73c0bfea6d1E(%rip), %rax
	movq	%rax, -96(%rbp)
Ltmp1379:
	.loc	1 328 9
	leaq	l___unnamed_2(%rip), %rax
Ltmp1380:
	movq	%rax, -88(%rbp)
	movq	$2, -80(%rbp)
	movq	$0, -72(%rbp)
	leaq	-104(%rbp), %rax
Ltmp1381:
	movq	%rax, -56(%rbp)
	movq	$1, -48(%rbp)
	leaq	-88(%rbp), %rsi
Ltmp1382:
	.loc	11 11 17
	movq	%rbx, %rdi
	callq	__ZN4core3fmt9Formatter9write_fmt17h742ca6aae87ad23cE
	movb	$1, %cl
	.loc	11 11 50 is_stmt 0
	testb	%al, %al
	jne	LBB43_9
Ltmp1383:
	.loc	11 0 0
	movsd	(%r15), %xmm0
	movaps	%xmm0, -128(%rbp)
	xorl	%r14d, %r14d
	leaq	-88(%rbp), %r15
Ltmp1384:
	leaq	l___unnamed_3(%rip), %r13
	jmp	LBB43_3
Ltmp1385:
	.p2align	4, 0x90
LBB43_2:
	movaps	-128(%rbp), %xmm0
Ltmp1386:
	.loc	5 63 36 is_stmt 1
	movaps	%xmm0, -144(%rbp)
Ltmp1387:
	.loc	11 0 0 is_stmt 0
	leaq	1(%r14), %r12
Ltmp1388:
	.loc	5 63 36
	andl	$15, %r14d
Ltmp1389:
	movzbl	-144(%rbp,%r14), %eax
Ltmp1390:
	.loc	11 16 21 is_stmt 1
	movb	%al, -88(%rbp)
	movq	%r15, %rdi
	movq	%rbx, %rsi
	callq	__ZN4core3fmt3num50_$LT$impl$u20$core..fmt..Binary$u20$for$u20$i8$GT$3fmt17h99e877cd09afbddeE
Ltmp1391:
	.loc	11 0 0 is_stmt 0
	movq	%r12, %r14
Ltmp1392:
	.loc	11 16 43
	testb	%al, %al
	jne	LBB43_8
Ltmp1393:
LBB43_3:
	.loc	7 1136 52 is_stmt 1
	cmpq	$8, %r14
Ltmp1394:
	.loc	8 505 9
	je	LBB43_7
Ltmp1395:
	.loc	11 13 24
	testq	%r14, %r14
	.loc	11 13 21 is_stmt 0
	je	LBB43_2
Ltmp1396:
	.loc	1 328 9 is_stmt 1
	movq	%r13, -88(%rbp)
	movq	$1, -80(%rbp)
	movq	$0, -72(%rbp)
Ltmp1397:
	leaq	l___unnamed_4(%rip), %rax
Ltmp1398:
	movq	%rax, -56(%rbp)
Ltmp1399:
	movq	$0, -48(%rbp)
Ltmp1400:
	.loc	11 14 25
	movq	%rbx, %rdi
	movq	%r15, %rsi
	callq	__ZN4core3fmt9Formatter9write_fmt17h742ca6aae87ad23cE
	.loc	11 14 40 is_stmt 0
	testb	%al, %al
	je	LBB43_2
Ltmp1401:
LBB43_8:
	.loc	11 0 40
	movb	$1, %cl
	jmp	LBB43_9
Ltmp1402:
LBB43_7:
	.loc	1 328 9 is_stmt 1
	leaq	l___unnamed_5(%rip), %rax
Ltmp1403:
	movq	%rax, -88(%rbp)
	movq	$1, -80(%rbp)
	movq	$0, -72(%rbp)
Ltmp1404:
	leaq	l___unnamed_4(%rip), %rax
Ltmp1405:
	movq	%rax, -56(%rbp)
	movq	$0, -48(%rbp)
	leaq	-88(%rbp), %rsi
Ltmp1406:
	.loc	11 18 17
	movq	%rbx, %rdi
	callq	__ZN4core3fmt9Formatter9write_fmt17h742ca6aae87ad23cE
Ltmp1407:
	movl	%eax, %ecx
Ltmp1408:
LBB43_9:
	.loc	11 19 14
	movl	%ecx, %eax
	addq	$104, %rsp
	popq	%rbx
Ltmp1409:
	popq	%r12
	popq	%r13
	popq	%r14
	popq	%r15
	popq	%rbp
	retq
Ltmp1410:
Lfunc_end43:
	.cfi_endproc

	.globl	__ZN11packed_simd3v6495_$LT$impl$u20$core..fmt..Debug$u20$for$u20$packed_simd..Simd$LT$$u5b$u8$u3b$$u20$8$u5d$$GT$$GT$3fmt17h04f9fd72d6dfd55fE
	.p2align	4, 0x90
__ZN11packed_simd3v6495_$LT$impl$u20$core..fmt..Debug$u20$for$u20$packed_simd..Simd$LT$$u5b$u8$u3b$$u20$8$u5d$$GT$$GT$3fmt17h04f9fd72d6dfd55fE:
Lfunc_begin44:
	.loc	3 49 0
	.cfi_startproc
	pushq	%rbp
	.cfi_def_cfa_offset 16
	.cfi_offset %rbp, -16
	movq	%rsp, %rbp
	.cfi_def_cfa_register %rbp
	pushq	%r15
	pushq	%r14
	pushq	%r13
	pushq	%r12
	pushq	%rbx
	subq	$104, %rsp
	.cfi_offset %rbx, -56
	.cfi_offset %r12, -48
	.cfi_offset %r13, -40
	.cfi_offset %r14, -32
	.cfi_offset %r15, -24
	movq	%rsi, %r15
	movq	%rdi, %rbx
Ltmp1411:
	.loc	3 52 17 prologue_end
	leaq	l___unnamed_15(%rip), %rax
	movq	%rax, -128(%rbp)
	leaq	__ZN44_$LT$$RF$T$u20$as$u20$core..fmt..Display$GT$3fmt17h189ab73c0bfea6d1E(%rip), %rax
	movq	%rax, -120(%rbp)
Ltmp1412:
	.loc	1 328 9
	leaq	l___unnamed_2(%rip), %rax
Ltmp1413:
	movq	%rax, -88(%rbp)
	movq	$2, -80(%rbp)
	movq	$0, -72(%rbp)
	leaq	-128(%rbp), %rax
Ltmp1414:
	movq	%rax, -56(%rbp)
	movq	$1, -48(%rbp)
	leaq	-88(%rbp), %rsi
Ltmp1415:
	.loc	3 52 17
	movq	%r15, %rdi
	callq	__ZN4core3fmt9Formatter9write_fmt17h742ca6aae87ad23cE
	movb	$1, %r14b
	.loc	3 52 50 is_stmt 0
	testb	%al, %al
	jne	LBB44_42
Ltmp1416:
	.loc	3 0 0
	movq	(%rbx), %xmm0
	movdqa	%xmm0, -112(%rbp)
	movdqa	%xmm0, -144(%rbp)
	movb	-144(%rbp), %al
Ltmp1417:
	.loc	3 57 21 is_stmt 1
	movb	%al, -88(%rbp)
Ltmp1418:
	.loc	4 149 20
	movq	%r15, %rdi
	callq	__ZN4core3fmt9Formatter15debug_lower_hex17hd07f6fde8d0365dfE
	.loc	4 149 17 is_stmt 0
	testb	%al, %al
	je	LBB44_2
Ltmp1419:
	.loc	4 0 17
	leaq	-88(%rbp), %rdi
	.loc	4 150 21 is_stmt 1
	movq	%r15, %rsi
	callq	__ZN4core3fmt3num52_$LT$impl$u20$core..fmt..LowerHex$u20$for$u20$u8$GT$3fmt17h35609b3cfed2e613E
Ltmp1420:
	.loc	3 57 43
	testb	%al, %al
	je	LBB44_6
	jmp	LBB44_42
Ltmp1421:
LBB44_2:
	.loc	4 151 27
	movq	%r15, %rdi
	callq	__ZN4core3fmt9Formatter15debug_upper_hex17hf480c256a9c81c1eE
	leaq	-88(%rbp), %rdi
	.loc	4 154 21
	movq	%r15, %rsi
	.loc	4 151 24
	testb	%al, %al
	je	LBB44_4
Ltmp1422:
	.loc	4 152 21
	callq	__ZN4core3fmt3num52_$LT$impl$u20$core..fmt..UpperHex$u20$for$u20$u8$GT$3fmt17hdec4e64a988d6129E
Ltmp1423:
	.loc	3 57 43
	testb	%al, %al
	je	LBB44_6
	jmp	LBB44_42
Ltmp1424:
LBB44_4:
	.loc	4 154 21
	callq	__ZN4core3fmt3num3imp51_$LT$impl$u20$core..fmt..Display$u20$for$u20$u8$GT$3fmt17hac49effbf87f075dE
Ltmp1425:
	.loc	3 57 43
	testb	%al, %al
	jne	LBB44_42
Ltmp1426:
LBB44_6:
	.loc	1 328 9
	leaq	l___unnamed_3(%rip), %r13
Ltmp1427:
	movq	%r13, -88(%rbp)
	movq	$1, -80(%rbp)
	movq	$0, -72(%rbp)
	leaq	l___unnamed_4(%rip), %r12
Ltmp1428:
	movq	%r12, -56(%rbp)
	movq	$0, -48(%rbp)
	leaq	-88(%rbp), %rsi
Ltmp1429:
	.loc	3 55 25
	movq	%r15, %rdi
	callq	__ZN4core3fmt9Formatter9write_fmt17h742ca6aae87ad23cE
	.loc	3 55 40 is_stmt 0
	testb	%al, %al
	jne	LBB44_42
Ltmp1430:
	.loc	3 0 40
	movdqa	-112(%rbp), %xmm0
Ltmp1431:
	.loc	5 63 36 is_stmt 1
	movd	%xmm0, %ebx
Ltmp1432:
	.loc	3 57 21
	movb	%bh, -88(%rbp)
Ltmp1433:
	.loc	4 149 20
	movq	%r15, %rdi
	callq	__ZN4core3fmt9Formatter15debug_lower_hex17hd07f6fde8d0365dfE
	.loc	4 149 17 is_stmt 0
	testb	%al, %al
	je	LBB44_8
Ltmp1434:
	.loc	4 0 17
	leaq	-88(%rbp), %rdi
	.loc	4 150 21 is_stmt 1
	movq	%r15, %rsi
	callq	__ZN4core3fmt3num52_$LT$impl$u20$core..fmt..LowerHex$u20$for$u20$u8$GT$3fmt17h35609b3cfed2e613E
	jmp	LBB44_10
Ltmp1435:
LBB44_8:
	.loc	4 151 27
	movq	%r15, %rdi
	callq	__ZN4core3fmt9Formatter15debug_upper_hex17hf480c256a9c81c1eE
	leaq	-88(%rbp), %rdi
	.loc	4 152 21
	movq	%r15, %rsi
	.loc	4 151 24
	testb	%al, %al
	je	LBB44_9
Ltmp1436:
	.loc	4 152 21
	callq	__ZN4core3fmt3num52_$LT$impl$u20$core..fmt..UpperHex$u20$for$u20$u8$GT$3fmt17hdec4e64a988d6129E
	jmp	LBB44_10
Ltmp1437:
LBB44_9:
	.loc	4 154 21
	callq	__ZN4core3fmt3num3imp51_$LT$impl$u20$core..fmt..Display$u20$for$u20$u8$GT$3fmt17hac49effbf87f075dE
Ltmp1438:
LBB44_10:
	.loc	3 57 43
	testb	%al, %al
	jne	LBB44_42
Ltmp1439:
	.loc	1 328 9
	movq	%r13, -88(%rbp)
	movq	$1, -80(%rbp)
	movq	$0, -72(%rbp)
Ltmp1440:
	movq	%r12, -56(%rbp)
	movq	$0, -48(%rbp)
	leaq	-88(%rbp), %rsi
Ltmp1441:
	.loc	3 55 25
	movq	%r15, %rdi
	callq	__ZN4core3fmt9Formatter9write_fmt17h742ca6aae87ad23cE
	.loc	3 55 40 is_stmt 0
	testb	%al, %al
	jne	LBB44_42
Ltmp1442:
	.loc	5 63 36 is_stmt 1
	movl	%ebx, %eax
	shrl	$16, %eax
Ltmp1443:
	.loc	3 57 21
	movb	%al, -88(%rbp)
Ltmp1444:
	.loc	4 149 20
	movq	%r15, %rdi
	callq	__ZN4core3fmt9Formatter15debug_lower_hex17hd07f6fde8d0365dfE
	.loc	4 149 17 is_stmt 0
	testb	%al, %al
	je	LBB44_13
Ltmp1445:
	.loc	4 0 17
	leaq	-88(%rbp), %rdi
	.loc	4 150 21 is_stmt 1
	movq	%r15, %rsi
	callq	__ZN4core3fmt3num52_$LT$impl$u20$core..fmt..LowerHex$u20$for$u20$u8$GT$3fmt17h35609b3cfed2e613E
	jmp	LBB44_15
Ltmp1446:
LBB44_13:
	.loc	4 151 27
	movq	%r15, %rdi
	callq	__ZN4core3fmt9Formatter15debug_upper_hex17hf480c256a9c81c1eE
	leaq	-88(%rbp), %rdi
	.loc	4 152 21
	movq	%r15, %rsi
	.loc	4 151 24
	testb	%al, %al
	je	LBB44_14
Ltmp1447:
	.loc	4 152 21
	callq	__ZN4core3fmt3num52_$LT$impl$u20$core..fmt..UpperHex$u20$for$u20$u8$GT$3fmt17hdec4e64a988d6129E
	jmp	LBB44_15
Ltmp1448:
LBB44_14:
	.loc	4 154 21
	callq	__ZN4core3fmt3num3imp51_$LT$impl$u20$core..fmt..Display$u20$for$u20$u8$GT$3fmt17hac49effbf87f075dE
Ltmp1449:
LBB44_15:
	.loc	3 57 43
	testb	%al, %al
	jne	LBB44_42
Ltmp1450:
	.loc	1 328 9
	movq	%r13, -88(%rbp)
	movq	$1, -80(%rbp)
	movq	$0, -72(%rbp)
Ltmp1451:
	movq	%r12, -56(%rbp)
	movq	$0, -48(%rbp)
	leaq	-88(%rbp), %rsi
Ltmp1452:
	.loc	3 55 25
	movq	%r15, %rdi
	callq	__ZN4core3fmt9Formatter9write_fmt17h742ca6aae87ad23cE
	.loc	3 55 40 is_stmt 0
	testb	%al, %al
	jne	LBB44_42
Ltmp1453:
	.loc	5 63 36 is_stmt 1
	shrl	$24, %ebx
Ltmp1454:
	.loc	3 57 21
	movb	%bl, -88(%rbp)
Ltmp1455:
	.loc	4 149 20
	movq	%r15, %rdi
	callq	__ZN4core3fmt9Formatter15debug_lower_hex17hd07f6fde8d0365dfE
	.loc	4 149 17 is_stmt 0
	testb	%al, %al
	je	LBB44_18
Ltmp1456:
	.loc	4 0 17
	leaq	-88(%rbp), %rdi
	.loc	4 150 21 is_stmt 1
	movq	%r15, %rsi
	callq	__ZN4core3fmt3num52_$LT$impl$u20$core..fmt..LowerHex$u20$for$u20$u8$GT$3fmt17h35609b3cfed2e613E
	jmp	LBB44_20
Ltmp1457:
LBB44_18:
	.loc	4 151 27
	movq	%r15, %rdi
	callq	__ZN4core3fmt9Formatter15debug_upper_hex17hf480c256a9c81c1eE
	leaq	-88(%rbp), %rdi
	.loc	4 152 21
	movq	%r15, %rsi
	.loc	4 151 24
	testb	%al, %al
	je	LBB44_19
Ltmp1458:
	.loc	4 152 21
	callq	__ZN4core3fmt3num52_$LT$impl$u20$core..fmt..UpperHex$u20$for$u20$u8$GT$3fmt17hdec4e64a988d6129E
	jmp	LBB44_20
Ltmp1459:
LBB44_19:
	.loc	4 154 21
	callq	__ZN4core3fmt3num3imp51_$LT$impl$u20$core..fmt..Display$u20$for$u20$u8$GT$3fmt17hac49effbf87f075dE
Ltmp1460:
LBB44_20:
	.loc	3 57 43
	testb	%al, %al
	jne	LBB44_42
Ltmp1461:
	.loc	1 328 9
	movq	%r13, -88(%rbp)
	movq	$1, -80(%rbp)
	movq	$0, -72(%rbp)
Ltmp1462:
	movq	%r12, -56(%rbp)
	movq	$0, -48(%rbp)
	leaq	-88(%rbp), %rsi
Ltmp1463:
	.loc	3 55 25
	movq	%r15, %rdi
	callq	__ZN4core3fmt9Formatter9write_fmt17h742ca6aae87ad23cE
	.loc	3 55 40 is_stmt 0
	testb	%al, %al
	jne	LBB44_42
Ltmp1464:
	.loc	3 0 40
	movdqa	-112(%rbp), %xmm0
Ltmp1465:
	.loc	5 63 36 is_stmt 1
	pextrw	$2, %xmm0, %ebx
Ltmp1466:
	.loc	3 57 21
	movb	%bl, -88(%rbp)
Ltmp1467:
	.loc	4 149 20
	movq	%r15, %rdi
	callq	__ZN4core3fmt9Formatter15debug_lower_hex17hd07f6fde8d0365dfE
	.loc	4 149 17 is_stmt 0
	testb	%al, %al
	je	LBB44_23
Ltmp1468:
	.loc	4 0 17
	leaq	-88(%rbp), %rdi
	.loc	4 150 21 is_stmt 1
	movq	%r15, %rsi
	callq	__ZN4core3fmt3num52_$LT$impl$u20$core..fmt..LowerHex$u20$for$u20$u8$GT$3fmt17h35609b3cfed2e613E
	jmp	LBB44_25
Ltmp1469:
LBB44_23:
	.loc	4 151 27
	movq	%r15, %rdi
	callq	__ZN4core3fmt9Formatter15debug_upper_hex17hf480c256a9c81c1eE
	leaq	-88(%rbp), %rdi
	.loc	4 152 21
	movq	%r15, %rsi
	.loc	4 151 24
	testb	%al, %al
	je	LBB44_24
Ltmp1470:
	.loc	4 152 21
	callq	__ZN4core3fmt3num52_$LT$impl$u20$core..fmt..UpperHex$u20$for$u20$u8$GT$3fmt17hdec4e64a988d6129E
	jmp	LBB44_25
Ltmp1471:
LBB44_24:
	.loc	4 154 21
	callq	__ZN4core3fmt3num3imp51_$LT$impl$u20$core..fmt..Display$u20$for$u20$u8$GT$3fmt17hac49effbf87f075dE
Ltmp1472:
LBB44_25:
	.loc	3 57 43
	testb	%al, %al
	jne	LBB44_42
Ltmp1473:
	.loc	1 328 9
	movq	%r13, -88(%rbp)
	movq	$1, -80(%rbp)
	movq	$0, -72(%rbp)
Ltmp1474:
	movq	%r12, -56(%rbp)
	movq	$0, -48(%rbp)
	leaq	-88(%rbp), %rsi
Ltmp1475:
	.loc	3 55 25
	movq	%r15, %rdi
	callq	__ZN4core3fmt9Formatter9write_fmt17h742ca6aae87ad23cE
	.loc	3 55 40 is_stmt 0
	testb	%al, %al
	jne	LBB44_42
Ltmp1476:
	.loc	3 57 21 is_stmt 1
	movb	%bh, -88(%rbp)
Ltmp1477:
	.loc	4 149 20
	movq	%r15, %rdi
	callq	__ZN4core3fmt9Formatter15debug_lower_hex17hd07f6fde8d0365dfE
	.loc	4 149 17 is_stmt 0
	testb	%al, %al
	je	LBB44_28
Ltmp1478:
	.loc	4 0 17
	leaq	-88(%rbp), %rdi
	.loc	4 150 21 is_stmt 1
	movq	%r15, %rsi
	callq	__ZN4core3fmt3num52_$LT$impl$u20$core..fmt..LowerHex$u20$for$u20$u8$GT$3fmt17h35609b3cfed2e613E
	jmp	LBB44_30
Ltmp1479:
LBB44_28:
	.loc	4 151 27
	movq	%r15, %rdi
	callq	__ZN4core3fmt9Formatter15debug_upper_hex17hf480c256a9c81c1eE
	leaq	-88(%rbp), %rdi
	.loc	4 152 21
	movq	%r15, %rsi
	.loc	4 151 24
	testb	%al, %al
	je	LBB44_29
Ltmp1480:
	.loc	4 152 21
	callq	__ZN4core3fmt3num52_$LT$impl$u20$core..fmt..UpperHex$u20$for$u20$u8$GT$3fmt17hdec4e64a988d6129E
	jmp	LBB44_30
Ltmp1481:
LBB44_29:
	.loc	4 154 21
	callq	__ZN4core3fmt3num3imp51_$LT$impl$u20$core..fmt..Display$u20$for$u20$u8$GT$3fmt17hac49effbf87f075dE
Ltmp1482:
LBB44_30:
	.loc	3 57 43
	testb	%al, %al
	jne	LBB44_42
Ltmp1483:
	.loc	1 328 9
	movq	%r13, -88(%rbp)
	movq	$1, -80(%rbp)
	movq	$0, -72(%rbp)
Ltmp1484:
	movq	%r12, -56(%rbp)
	movq	$0, -48(%rbp)
	leaq	-88(%rbp), %rsi
Ltmp1485:
	.loc	3 55 25
	movq	%r15, %rdi
	callq	__ZN4core3fmt9Formatter9write_fmt17h742ca6aae87ad23cE
	.loc	3 55 40 is_stmt 0
	testb	%al, %al
	jne	LBB44_42
Ltmp1486:
	.loc	3 0 40
	movdqa	-112(%rbp), %xmm0
Ltmp1487:
	.loc	5 63 36 is_stmt 1
	pextrw	$3, %xmm0, %ebx
Ltmp1488:
	.loc	3 57 21
	movb	%bl, -88(%rbp)
Ltmp1489:
	.loc	4 149 20
	movq	%r15, %rdi
	callq	__ZN4core3fmt9Formatter15debug_lower_hex17hd07f6fde8d0365dfE
	.loc	4 149 17 is_stmt 0
	testb	%al, %al
	je	LBB44_33
Ltmp1490:
	.loc	4 0 17
	leaq	-88(%rbp), %rdi
	.loc	4 150 21 is_stmt 1
	movq	%r15, %rsi
	callq	__ZN4core3fmt3num52_$LT$impl$u20$core..fmt..LowerHex$u20$for$u20$u8$GT$3fmt17h35609b3cfed2e613E
	jmp	LBB44_35
Ltmp1491:
LBB44_33:
	.loc	4 151 27
	movq	%r15, %rdi
	callq	__ZN4core3fmt9Formatter15debug_upper_hex17hf480c256a9c81c1eE
	leaq	-88(%rbp), %rdi
	.loc	4 152 21
	movq	%r15, %rsi
	.loc	4 151 24
	testb	%al, %al
	je	LBB44_34
Ltmp1492:
	.loc	4 152 21
	callq	__ZN4core3fmt3num52_$LT$impl$u20$core..fmt..UpperHex$u20$for$u20$u8$GT$3fmt17hdec4e64a988d6129E
	jmp	LBB44_35
Ltmp1493:
LBB44_34:
	.loc	4 154 21
	callq	__ZN4core3fmt3num3imp51_$LT$impl$u20$core..fmt..Display$u20$for$u20$u8$GT$3fmt17hac49effbf87f075dE
Ltmp1494:
LBB44_35:
	.loc	3 57 43
	testb	%al, %al
	jne	LBB44_42
Ltmp1495:
	.loc	1 328 9
	movq	%r13, -88(%rbp)
	movq	$1, -80(%rbp)
	movq	$0, -72(%rbp)
Ltmp1496:
	movq	%r12, -56(%rbp)
	movq	$0, -48(%rbp)
	leaq	-88(%rbp), %rsi
Ltmp1497:
	.loc	3 55 25
	movq	%r15, %rdi
	callq	__ZN4core3fmt9Formatter9write_fmt17h742ca6aae87ad23cE
	.loc	3 55 40 is_stmt 0
	testb	%al, %al
	jne	LBB44_42
Ltmp1498:
	.loc	3 57 21 is_stmt 1
	movb	%bh, -88(%rbp)
Ltmp1499:
	.loc	4 149 20
	movq	%r15, %rdi
	callq	__ZN4core3fmt9Formatter15debug_lower_hex17hd07f6fde8d0365dfE
	.loc	4 149 17 is_stmt 0
	testb	%al, %al
	je	LBB44_38
Ltmp1500:
	.loc	4 0 17
	leaq	-88(%rbp), %rdi
	.loc	4 150 21 is_stmt 1
	movq	%r15, %rsi
	callq	__ZN4core3fmt3num52_$LT$impl$u20$core..fmt..LowerHex$u20$for$u20$u8$GT$3fmt17h35609b3cfed2e613E
	jmp	LBB44_40
Ltmp1501:
LBB44_38:
	.loc	4 151 27
	movq	%r15, %rdi
	callq	__ZN4core3fmt9Formatter15debug_upper_hex17hf480c256a9c81c1eE
	leaq	-88(%rbp), %rdi
	.loc	4 152 21
	movq	%r15, %rsi
	.loc	4 151 24
	testb	%al, %al
	je	LBB44_39
Ltmp1502:
	.loc	4 152 21
	callq	__ZN4core3fmt3num52_$LT$impl$u20$core..fmt..UpperHex$u20$for$u20$u8$GT$3fmt17hdec4e64a988d6129E
	jmp	LBB44_40
Ltmp1503:
LBB44_39:
	.loc	4 154 21
	callq	__ZN4core3fmt3num3imp51_$LT$impl$u20$core..fmt..Display$u20$for$u20$u8$GT$3fmt17hac49effbf87f075dE
Ltmp1504:
LBB44_40:
	.loc	3 57 43
	testb	%al, %al
	jne	LBB44_42
Ltmp1505:
	.loc	1 328 9
	leaq	l___unnamed_5(%rip), %rax
Ltmp1506:
	movq	%rax, -88(%rbp)
	movq	$1, -80(%rbp)
	movq	$0, -72(%rbp)
Ltmp1507:
	movq	%r12, -56(%rbp)
	movq	$0, -48(%rbp)
	leaq	-88(%rbp), %rsi
Ltmp1508:
	.loc	3 59 17
	movq	%r15, %rdi
	callq	__ZN4core3fmt9Formatter9write_fmt17h742ca6aae87ad23cE
Ltmp1509:
	movl	%eax, %r14d
Ltmp1510:
LBB44_42:
	.loc	3 60 14
	movl	%r14d, %eax
	addq	$104, %rsp
	popq	%rbx
	popq	%r12
	popq	%r13
	popq	%r14
	popq	%r15
Ltmp1511:
	popq	%rbp
	retq
Ltmp1512:
Lfunc_end44:
	.cfi_endproc

	.globl	__ZN11packed_simd3v6498_$LT$impl$u20$core..fmt..LowerHex$u20$for$u20$packed_simd..Simd$LT$$u5b$u8$u3b$$u20$8$u5d$$GT$$GT$3fmt17h469e28d8c3ac7e4eE
	.p2align	4, 0x90
__ZN11packed_simd3v6498_$LT$impl$u20$core..fmt..LowerHex$u20$for$u20$packed_simd..Simd$LT$$u5b$u8$u3b$$u20$8$u5d$$GT$$GT$3fmt17h469e28d8c3ac7e4eE:
Lfunc_begin45:
	.loc	6 9 0
	.cfi_startproc
	pushq	%rbp
	.cfi_def_cfa_offset 16
	.cfi_offset %rbp, -16
	movq	%rsp, %rbp
	.cfi_def_cfa_register %rbp
	pushq	%r15
	pushq	%r14
	pushq	%r13
	pushq	%r12
	pushq	%rbx
	subq	$104, %rsp
	.cfi_offset %rbx, -56
	.cfi_offset %r12, -48
	.cfi_offset %r13, -40
	.cfi_offset %r14, -32
	.cfi_offset %r15, -24
	movq	%rsi, %rbx
	movq	%rdi, %r15
Ltmp1513:
	.loc	6 11 17 prologue_end
	leaq	l___unnamed_15(%rip), %rax
	movq	%rax, -104(%rbp)
	leaq	__ZN44_$LT$$RF$T$u20$as$u20$core..fmt..Display$GT$3fmt17h189ab73c0bfea6d1E(%rip), %rax
	movq	%rax, -96(%rbp)
Ltmp1514:
	.loc	1 328 9
	leaq	l___unnamed_2(%rip), %rax
Ltmp1515:
	movq	%rax, -88(%rbp)
	movq	$2, -80(%rbp)
	movq	$0, -72(%rbp)
	leaq	-104(%rbp), %rax
Ltmp1516:
	movq	%rax, -56(%rbp)
	movq	$1, -48(%rbp)
	leaq	-88(%rbp), %rsi
Ltmp1517:
	.loc	6 11 17
	movq	%rbx, %rdi
	callq	__ZN4core3fmt9Formatter9write_fmt17h742ca6aae87ad23cE
	movb	$1, %cl
	.loc	6 11 50 is_stmt 0
	testb	%al, %al
	jne	LBB45_9
Ltmp1518:
	.loc	6 0 0
	movsd	(%r15), %xmm0
	movaps	%xmm0, -128(%rbp)
	xorl	%r14d, %r14d
	leaq	-88(%rbp), %r15
Ltmp1519:
	leaq	l___unnamed_3(%rip), %r13
	jmp	LBB45_3
Ltmp1520:
	.p2align	4, 0x90
LBB45_2:
	movaps	-128(%rbp), %xmm0
Ltmp1521:
	.loc	5 63 36 is_stmt 1
	movaps	%xmm0, -144(%rbp)
Ltmp1522:
	.loc	6 0 0 is_stmt 0
	leaq	1(%r14), %r12
Ltmp1523:
	.loc	5 63 36
	andl	$15, %r14d
Ltmp1524:
	movzbl	-144(%rbp,%r14), %eax
Ltmp1525:
	.loc	6 16 21 is_stmt 1
	movb	%al, -88(%rbp)
	movq	%r15, %rdi
	movq	%rbx, %rsi
	callq	__ZN4core3fmt3num52_$LT$impl$u20$core..fmt..LowerHex$u20$for$u20$u8$GT$3fmt17h35609b3cfed2e613E
Ltmp1526:
	.loc	6 0 0 is_stmt 0
	movq	%r12, %r14
Ltmp1527:
	.loc	6 16 43
	testb	%al, %al
	jne	LBB45_8
Ltmp1528:
LBB45_3:
	.loc	7 1136 52 is_stmt 1
	cmpq	$8, %r14
Ltmp1529:
	.loc	8 505 9
	je	LBB45_7
Ltmp1530:
	.loc	6 13 24
	testq	%r14, %r14
	.loc	6 13 21 is_stmt 0
	je	LBB45_2
Ltmp1531:
	.loc	1 328 9 is_stmt 1
	movq	%r13, -88(%rbp)
	movq	$1, -80(%rbp)
	movq	$0, -72(%rbp)
Ltmp1532:
	leaq	l___unnamed_4(%rip), %rax
Ltmp1533:
	movq	%rax, -56(%rbp)
Ltmp1534:
	movq	$0, -48(%rbp)
Ltmp1535:
	.loc	6 14 25
	movq	%rbx, %rdi
	movq	%r15, %rsi
	callq	__ZN4core3fmt9Formatter9write_fmt17h742ca6aae87ad23cE
	.loc	6 14 40 is_stmt 0
	testb	%al, %al
	je	LBB45_2
Ltmp1536:
LBB45_8:
	.loc	6 0 40
	movb	$1, %cl
	jmp	LBB45_9
Ltmp1537:
LBB45_7:
	.loc	1 328 9 is_stmt 1
	leaq	l___unnamed_5(%rip), %rax
Ltmp1538:
	movq	%rax, -88(%rbp)
	movq	$1, -80(%rbp)
	movq	$0, -72(%rbp)
Ltmp1539:
	leaq	l___unnamed_4(%rip), %rax
Ltmp1540:
	movq	%rax, -56(%rbp)
	movq	$0, -48(%rbp)
	leaq	-88(%rbp), %rsi
Ltmp1541:
	.loc	6 18 17
	movq	%rbx, %rdi
	callq	__ZN4core3fmt9Formatter9write_fmt17h742ca6aae87ad23cE
Ltmp1542:
	movl	%eax, %ecx
Ltmp1543:
LBB45_9:
	.loc	6 19 14
	movl	%ecx, %eax
	addq	$104, %rsp
	popq	%rbx
Ltmp1544:
	popq	%r12
	popq	%r13
	popq	%r14
	popq	%r15
	popq	%rbp
	retq
Ltmp1545:
Lfunc_end45:
	.cfi_endproc

	.globl	__ZN11packed_simd3v6498_$LT$impl$u20$core..fmt..UpperHex$u20$for$u20$packed_simd..Simd$LT$$u5b$u8$u3b$$u20$8$u5d$$GT$$GT$3fmt17h22fb9ed27bb3a616E
	.p2align	4, 0x90
__ZN11packed_simd3v6498_$LT$impl$u20$core..fmt..UpperHex$u20$for$u20$packed_simd..Simd$LT$$u5b$u8$u3b$$u20$8$u5d$$GT$$GT$3fmt17h22fb9ed27bb3a616E:
Lfunc_begin46:
	.loc	9 9 0
	.cfi_startproc
	pushq	%rbp
	.cfi_def_cfa_offset 16
	.cfi_offset %rbp, -16
	movq	%rsp, %rbp
	.cfi_def_cfa_register %rbp
	pushq	%r15
	pushq	%r14
	pushq	%r13
	pushq	%r12
	pushq	%rbx
	subq	$104, %rsp
	.cfi_offset %rbx, -56
	.cfi_offset %r12, -48
	.cfi_offset %r13, -40
	.cfi_offset %r14, -32
	.cfi_offset %r15, -24
	movq	%rsi, %rbx
	movq	%rdi, %r15
Ltmp1546:
	.loc	9 11 17 prologue_end
	leaq	l___unnamed_15(%rip), %rax
	movq	%rax, -104(%rbp)
	leaq	__ZN44_$LT$$RF$T$u20$as$u20$core..fmt..Display$GT$3fmt17h189ab73c0bfea6d1E(%rip), %rax
	movq	%rax, -96(%rbp)
Ltmp1547:
	.loc	1 328 9
	leaq	l___unnamed_2(%rip), %rax
Ltmp1548:
	movq	%rax, -88(%rbp)
	movq	$2, -80(%rbp)
	movq	$0, -72(%rbp)
	leaq	-104(%rbp), %rax
Ltmp1549:
	movq	%rax, -56(%rbp)
	movq	$1, -48(%rbp)
	leaq	-88(%rbp), %rsi
Ltmp1550:
	.loc	9 11 17
	movq	%rbx, %rdi
	callq	__ZN4core3fmt9Formatter9write_fmt17h742ca6aae87ad23cE
	movb	$1, %cl
	.loc	9 11 50 is_stmt 0
	testb	%al, %al
	jne	LBB46_9
Ltmp1551:
	.loc	9 0 0
	movsd	(%r15), %xmm0
	movaps	%xmm0, -128(%rbp)
	xorl	%r14d, %r14d
	leaq	-88(%rbp), %r15
Ltmp1552:
	leaq	l___unnamed_3(%rip), %r13
	jmp	LBB46_3
Ltmp1553:
	.p2align	4, 0x90
LBB46_2:
	movaps	-128(%rbp), %xmm0
Ltmp1554:
	.loc	5 63 36 is_stmt 1
	movaps	%xmm0, -144(%rbp)
Ltmp1555:
	.loc	9 0 0 is_stmt 0
	leaq	1(%r14), %r12
Ltmp1556:
	.loc	5 63 36
	andl	$15, %r14d
Ltmp1557:
	movzbl	-144(%rbp,%r14), %eax
Ltmp1558:
	.loc	9 16 21 is_stmt 1
	movb	%al, -88(%rbp)
	movq	%r15, %rdi
	movq	%rbx, %rsi
	callq	__ZN4core3fmt3num52_$LT$impl$u20$core..fmt..UpperHex$u20$for$u20$u8$GT$3fmt17hdec4e64a988d6129E
Ltmp1559:
	.loc	9 0 0 is_stmt 0
	movq	%r12, %r14
Ltmp1560:
	.loc	9 16 43
	testb	%al, %al
	jne	LBB46_8
Ltmp1561:
LBB46_3:
	.loc	7 1136 52 is_stmt 1
	cmpq	$8, %r14
Ltmp1562:
	.loc	8 505 9
	je	LBB46_7
Ltmp1563:
	.loc	9 13 24
	testq	%r14, %r14
	.loc	9 13 21 is_stmt 0
	je	LBB46_2
Ltmp1564:
	.loc	1 328 9 is_stmt 1
	movq	%r13, -88(%rbp)
	movq	$1, -80(%rbp)
	movq	$0, -72(%rbp)
Ltmp1565:
	leaq	l___unnamed_4(%rip), %rax
Ltmp1566:
	movq	%rax, -56(%rbp)
Ltmp1567:
	movq	$0, -48(%rbp)
Ltmp1568:
	.loc	9 14 25
	movq	%rbx, %rdi
	movq	%r15, %rsi
	callq	__ZN4core3fmt9Formatter9write_fmt17h742ca6aae87ad23cE
	.loc	9 14 40 is_stmt 0
	testb	%al, %al
	je	LBB46_2
Ltmp1569:
LBB46_8:
	.loc	9 0 40
	movb	$1, %cl
	jmp	LBB46_9
Ltmp1570:
LBB46_7:
	.loc	1 328 9 is_stmt 1
	leaq	l___unnamed_5(%rip), %rax
Ltmp1571:
	movq	%rax, -88(%rbp)
	movq	$1, -80(%rbp)
	movq	$0, -72(%rbp)
Ltmp1572:
	leaq	l___unnamed_4(%rip), %rax
Ltmp1573:
	movq	%rax, -56(%rbp)
	movq	$0, -48(%rbp)
	leaq	-88(%rbp), %rsi
Ltmp1574:
	.loc	9 18 17
	movq	%rbx, %rdi
	callq	__ZN4core3fmt9Formatter9write_fmt17h742ca6aae87ad23cE
Ltmp1575:
	movl	%eax, %ecx
Ltmp1576:
LBB46_9:
	.loc	9 19 14
	movl	%ecx, %eax
	addq	$104, %rsp
	popq	%rbx
Ltmp1577:
	popq	%r12
	popq	%r13
	popq	%r14
	popq	%r15
	popq	%rbp
	retq
Ltmp1578:
Lfunc_end46:
	.cfi_endproc

	.globl	__ZN11packed_simd3v6495_$LT$impl$u20$core..fmt..Octal$u20$for$u20$packed_simd..Simd$LT$$u5b$u8$u3b$$u20$8$u5d$$GT$$GT$3fmt17h5a053f292a56ecf2E
	.p2align	4, 0x90
__ZN11packed_simd3v6495_$LT$impl$u20$core..fmt..Octal$u20$for$u20$packed_simd..Simd$LT$$u5b$u8$u3b$$u20$8$u5d$$GT$$GT$3fmt17h5a053f292a56ecf2E:
Lfunc_begin47:
	.loc	10 9 0
	.cfi_startproc
	pushq	%rbp
	.cfi_def_cfa_offset 16
	.cfi_offset %rbp, -16
	movq	%rsp, %rbp
	.cfi_def_cfa_register %rbp
	pushq	%r15
	pushq	%r14
	pushq	%r13
	pushq	%r12
	pushq	%rbx
	subq	$104, %rsp
	.cfi_offset %rbx, -56
	.cfi_offset %r12, -48
	.cfi_offset %r13, -40
	.cfi_offset %r14, -32
	.cfi_offset %r15, -24
	movq	%rsi, %rbx
	movq	%rdi, %r15
Ltmp1579:
	.loc	10 11 17 prologue_end
	leaq	l___unnamed_15(%rip), %rax
	movq	%rax, -104(%rbp)
	leaq	__ZN44_$LT$$RF$T$u20$as$u20$core..fmt..Display$GT$3fmt17h189ab73c0bfea6d1E(%rip), %rax
	movq	%rax, -96(%rbp)
Ltmp1580:
	.loc	1 328 9
	leaq	l___unnamed_2(%rip), %rax
Ltmp1581:
	movq	%rax, -88(%rbp)
	movq	$2, -80(%rbp)
	movq	$0, -72(%rbp)
	leaq	-104(%rbp), %rax
Ltmp1582:
	movq	%rax, -56(%rbp)
	movq	$1, -48(%rbp)
	leaq	-88(%rbp), %rsi
Ltmp1583:
	.loc	10 11 17
	movq	%rbx, %rdi
	callq	__ZN4core3fmt9Formatter9write_fmt17h742ca6aae87ad23cE
	movb	$1, %cl
	.loc	10 11 50 is_stmt 0
	testb	%al, %al
	jne	LBB47_9
Ltmp1584:
	.loc	10 0 0
	movsd	(%r15), %xmm0
	movaps	%xmm0, -128(%rbp)
	xorl	%r14d, %r14d
	leaq	-88(%rbp), %r15
Ltmp1585:
	leaq	l___unnamed_3(%rip), %r13
	jmp	LBB47_3
Ltmp1586:
	.p2align	4, 0x90
LBB47_2:
	movaps	-128(%rbp), %xmm0
Ltmp1587:
	.loc	5 63 36 is_stmt 1
	movaps	%xmm0, -144(%rbp)
Ltmp1588:
	.loc	10 0 0 is_stmt 0
	leaq	1(%r14), %r12
Ltmp1589:
	.loc	5 63 36
	andl	$15, %r14d
Ltmp1590:
	movzbl	-144(%rbp,%r14), %eax
Ltmp1591:
	.loc	10 16 21 is_stmt 1
	movb	%al, -88(%rbp)
	movq	%r15, %rdi
	movq	%rbx, %rsi
	callq	__ZN4core3fmt3num49_$LT$impl$u20$core..fmt..Octal$u20$for$u20$u8$GT$3fmt17hf7600dd9a4d32e44E
Ltmp1592:
	.loc	10 0 0 is_stmt 0
	movq	%r12, %r14
Ltmp1593:
	.loc	10 16 43
	testb	%al, %al
	jne	LBB47_8
Ltmp1594:
LBB47_3:
	.loc	7 1136 52 is_stmt 1
	cmpq	$8, %r14
Ltmp1595:
	.loc	8 505 9
	je	LBB47_7
Ltmp1596:
	.loc	10 13 24
	testq	%r14, %r14
	.loc	10 13 21 is_stmt 0
	je	LBB47_2
Ltmp1597:
	.loc	1 328 9 is_stmt 1
	movq	%r13, -88(%rbp)
	movq	$1, -80(%rbp)
	movq	$0, -72(%rbp)
Ltmp1598:
	leaq	l___unnamed_4(%rip), %rax
Ltmp1599:
	movq	%rax, -56(%rbp)
Ltmp1600:
	movq	$0, -48(%rbp)
Ltmp1601:
	.loc	10 14 25
	movq	%rbx, %rdi
	movq	%r15, %rsi
	callq	__ZN4core3fmt9Formatter9write_fmt17h742ca6aae87ad23cE
	.loc	10 14 40 is_stmt 0
	testb	%al, %al
	je	LBB47_2
Ltmp1602:
LBB47_8:
	.loc	10 0 40
	movb	$1, %cl
	jmp	LBB47_9
Ltmp1603:
LBB47_7:
	.loc	1 328 9 is_stmt 1
	leaq	l___unnamed_5(%rip), %rax
Ltmp1604:
	movq	%rax, -88(%rbp)
	movq	$1, -80(%rbp)
	movq	$0, -72(%rbp)
Ltmp1605:
	leaq	l___unnamed_4(%rip), %rax
Ltmp1606:
	movq	%rax, -56(%rbp)
	movq	$0, -48(%rbp)
	leaq	-88(%rbp), %rsi
Ltmp1607:
	.loc	10 18 17
	movq	%rbx, %rdi
	callq	__ZN4core3fmt9Formatter9write_fmt17h742ca6aae87ad23cE
Ltmp1608:
	movl	%eax, %ecx
Ltmp1609:
LBB47_9:
	.loc	10 19 14
	movl	%ecx, %eax
	addq	$104, %rsp
	popq	%rbx
Ltmp1610:
	popq	%r12
	popq	%r13
	popq	%r14
	popq	%r15
	popq	%rbp
	retq
Ltmp1611:
Lfunc_end47:
	.cfi_endproc

	.globl	__ZN11packed_simd3v6496_$LT$impl$u20$core..fmt..Binary$u20$for$u20$packed_simd..Simd$LT$$u5b$u8$u3b$$u20$8$u5d$$GT$$GT$3fmt17h70c559b911845354E
	.p2align	4, 0x90
__ZN11packed_simd3v6496_$LT$impl$u20$core..fmt..Binary$u20$for$u20$packed_simd..Simd$LT$$u5b$u8$u3b$$u20$8$u5d$$GT$$GT$3fmt17h70c559b911845354E:
Lfunc_begin48:
	.loc	11 9 0
	.cfi_startproc
	pushq	%rbp
	.cfi_def_cfa_offset 16
	.cfi_offset %rbp, -16
	movq	%rsp, %rbp
	.cfi_def_cfa_register %rbp
	pushq	%r15
	pushq	%r14
	pushq	%r13
	pushq	%r12
	pushq	%rbx
	subq	$104, %rsp
	.cfi_offset %rbx, -56
	.cfi_offset %r12, -48
	.cfi_offset %r13, -40
	.cfi_offset %r14, -32
	.cfi_offset %r15, -24
	movq	%rsi, %rbx
	movq	%rdi, %r15
Ltmp1612:
	.loc	11 11 17 prologue_end
	leaq	l___unnamed_15(%rip), %rax
	movq	%rax, -104(%rbp)
	leaq	__ZN44_$LT$$RF$T$u20$as$u20$core..fmt..Display$GT$3fmt17h189ab73c0bfea6d1E(%rip), %rax
	movq	%rax, -96(%rbp)
Ltmp1613:
	.loc	1 328 9
	leaq	l___unnamed_2(%rip), %rax
Ltmp1614:
	movq	%rax, -88(%rbp)
	movq	$2, -80(%rbp)
	movq	$0, -72(%rbp)
	leaq	-104(%rbp), %rax
Ltmp1615:
	movq	%rax, -56(%rbp)
	movq	$1, -48(%rbp)
	leaq	-88(%rbp), %rsi
Ltmp1616:
	.loc	11 11 17
	movq	%rbx, %rdi
	callq	__ZN4core3fmt9Formatter9write_fmt17h742ca6aae87ad23cE
	movb	$1, %cl
	.loc	11 11 50 is_stmt 0
	testb	%al, %al
	jne	LBB48_9
Ltmp1617:
	.loc	11 0 0
	movsd	(%r15), %xmm0
	movaps	%xmm0, -128(%rbp)
	xorl	%r14d, %r14d
	leaq	-88(%rbp), %r15
Ltmp1618:
	leaq	l___unnamed_3(%rip), %r13
	jmp	LBB48_3
Ltmp1619:
	.p2align	4, 0x90
LBB48_2:
	movaps	-128(%rbp), %xmm0
Ltmp1620:
	.loc	5 63 36 is_stmt 1
	movaps	%xmm0, -144(%rbp)
Ltmp1621:
	.loc	11 0 0 is_stmt 0
	leaq	1(%r14), %r12
Ltmp1622:
	.loc	5 63 36
	andl	$15, %r14d
Ltmp1623:
	movzbl	-144(%rbp,%r14), %eax
Ltmp1624:
	.loc	11 16 21 is_stmt 1
	movb	%al, -88(%rbp)
	movq	%r15, %rdi
	movq	%rbx, %rsi
	callq	__ZN4core3fmt3num50_$LT$impl$u20$core..fmt..Binary$u20$for$u20$u8$GT$3fmt17h34ba181458cacf9cE
Ltmp1625:
	.loc	11 0 0 is_stmt 0
	movq	%r12, %r14
Ltmp1626:
	.loc	11 16 43
	testb	%al, %al
	jne	LBB48_8
Ltmp1627:
LBB48_3:
	.loc	7 1136 52 is_stmt 1
	cmpq	$8, %r14
Ltmp1628:
	.loc	8 505 9
	je	LBB48_7
Ltmp1629:
	.loc	11 13 24
	testq	%r14, %r14
	.loc	11 13 21 is_stmt 0
	je	LBB48_2
Ltmp1630:
	.loc	1 328 9 is_stmt 1
	movq	%r13, -88(%rbp)
	movq	$1, -80(%rbp)
	movq	$0, -72(%rbp)
Ltmp1631:
	leaq	l___unnamed_4(%rip), %rax
Ltmp1632:
	movq	%rax, -56(%rbp)
Ltmp1633:
	movq	$0, -48(%rbp)
Ltmp1634:
	.loc	11 14 25
	movq	%rbx, %rdi
	movq	%r15, %rsi
	callq	__ZN4core3fmt9Formatter9write_fmt17h742ca6aae87ad23cE
	.loc	11 14 40 is_stmt 0
	testb	%al, %al
	je	LBB48_2
Ltmp1635:
LBB48_8:
	.loc	11 0 40
	movb	$1, %cl
	jmp	LBB48_9
Ltmp1636:
LBB48_7:
	.loc	1 328 9 is_stmt 1
	leaq	l___unnamed_5(%rip), %rax
Ltmp1637:
	movq	%rax, -88(%rbp)
	movq	$1, -80(%rbp)
	movq	$0, -72(%rbp)
Ltmp1638:
	leaq	l___unnamed_4(%rip), %rax
Ltmp1639:
	movq	%rax, -56(%rbp)
	movq	$0, -48(%rbp)
	leaq	-88(%rbp), %rsi
Ltmp1640:
	.loc	11 18 17
	movq	%rbx, %rdi
	callq	__ZN4core3fmt9Formatter9write_fmt17h742ca6aae87ad23cE
Ltmp1641:
	movl	%eax, %ecx
Ltmp1642:
LBB48_9:
	.loc	11 19 14
	movl	%ecx, %eax
	addq	$104, %rsp
	popq	%rbx
Ltmp1643:
	popq	%r12
	popq	%r13
	popq	%r14
	popq	%r15
	popq	%rbp
	retq
Ltmp1644:
Lfunc_end48:
	.cfi_endproc

	.globl	__ZN11packed_simd3v64115_$LT$impl$u20$core..fmt..Debug$u20$for$u20$packed_simd..Simd$LT$$u5b$packed_simd..masks..m8$u3b$$u20$8$u5d$$GT$$GT$3fmt17haa04202458730fcdE
	.p2align	4, 0x90
__ZN11packed_simd3v64115_$LT$impl$u20$core..fmt..Debug$u20$for$u20$packed_simd..Simd$LT$$u5b$packed_simd..masks..m8$u3b$$u20$8$u5d$$GT$$GT$3fmt17haa04202458730fcdE:
Lfunc_begin49:
	.loc	3 49 0
	.cfi_startproc
	pushq	%rbp
	.cfi_def_cfa_offset 16
	.cfi_offset %rbp, -16
	movq	%rsp, %rbp
	.cfi_def_cfa_register %rbp
	pushq	%r15
	pushq	%r14
	pushq	%r13
	pushq	%r12
	pushq	%rbx
	subq	$104, %rsp
	.cfi_offset %rbx, -56
	.cfi_offset %r12, -48
	.cfi_offset %r13, -40
	.cfi_offset %r14, -32
	.cfi_offset %r15, -24
	movq	%rsi, %rbx
	movq	%rdi, %r15
Ltmp1645:
	.loc	3 52 17 prologue_end
	leaq	l___unnamed_16(%rip), %rax
	movq	%rax, -104(%rbp)
	leaq	__ZN44_$LT$$RF$T$u20$as$u20$core..fmt..Display$GT$3fmt17h189ab73c0bfea6d1E(%rip), %rax
	movq	%rax, -96(%rbp)
Ltmp1646:
	.loc	1 328 9
	leaq	l___unnamed_2(%rip), %rax
Ltmp1647:
	movq	%rax, -88(%rbp)
	movq	$2, -80(%rbp)
	movq	$0, -72(%rbp)
	leaq	-104(%rbp), %rax
Ltmp1648:
	movq	%rax, -56(%rbp)
	movq	$1, -48(%rbp)
	leaq	-88(%rbp), %rsi
Ltmp1649:
	.loc	3 52 17
	movq	%rbx, %rdi
	callq	__ZN4core3fmt9Formatter9write_fmt17h742ca6aae87ad23cE
	movb	$1, %cl
	.loc	3 52 50 is_stmt 0
	testb	%al, %al
	jne	LBB49_9
Ltmp1650:
	.loc	3 0 0
	movsd	(%r15), %xmm0
	movaps	%xmm0, -128(%rbp)
	xorl	%r14d, %r14d
	leaq	-88(%rbp), %r15
Ltmp1651:
	leaq	l___unnamed_3(%rip), %r13
	jmp	LBB49_3
Ltmp1652:
	.p2align	4, 0x90
LBB49_2:
	movaps	-128(%rbp), %xmm0
Ltmp1653:
	.loc	12 67 36 is_stmt 1
	movaps	%xmm0, -144(%rbp)
Ltmp1654:
	.loc	3 0 0 is_stmt 0
	leaq	1(%r14), %r12
Ltmp1655:
	.loc	12 67 36
	andl	$15, %r14d
Ltmp1656:
	.loc	12 68 17 is_stmt 1
	cmpb	$0, -144(%rbp,%r14)
Ltmp1657:
	.loc	3 57 21
	setne	-88(%rbp)
Ltmp1658:
	.loc	1 2052 9
	movq	%r15, %rdi
	movq	%rbx, %rsi
	callq	__ZN43_$LT$bool$u20$as$u20$core..fmt..Display$GT$3fmt17hd78396651a24cfbbE
Ltmp1659:
	.loc	3 0 0 is_stmt 0
	movq	%r12, %r14
Ltmp1660:
	.loc	3 57 43 is_stmt 1
	testb	%al, %al
	jne	LBB49_8
Ltmp1661:
LBB49_3:
	.loc	7 1136 52
	cmpq	$8, %r14
Ltmp1662:
	.loc	8 505 9
	je	LBB49_7
Ltmp1663:
	.loc	3 54 24
	testq	%r14, %r14
	.loc	3 54 21 is_stmt 0
	je	LBB49_2
Ltmp1664:
	.loc	1 328 9 is_stmt 1
	movq	%r13, -88(%rbp)
	movq	$1, -80(%rbp)
	movq	$0, -72(%rbp)
Ltmp1665:
	leaq	l___unnamed_4(%rip), %rax
Ltmp1666:
	movq	%rax, -56(%rbp)
Ltmp1667:
	movq	$0, -48(%rbp)
Ltmp1668:
	.loc	3 55 25
	movq	%rbx, %rdi
	movq	%r15, %rsi
	callq	__ZN4core3fmt9Formatter9write_fmt17h742ca6aae87ad23cE
	.loc	3 55 40 is_stmt 0
	testb	%al, %al
	je	LBB49_2
Ltmp1669:
LBB49_8:
	.loc	3 0 40
	movb	$1, %cl
	jmp	LBB49_9
Ltmp1670:
LBB49_7:
	.loc	1 328 9 is_stmt 1
	leaq	l___unnamed_5(%rip), %rax
Ltmp1671:
	movq	%rax, -88(%rbp)
	movq	$1, -80(%rbp)
	movq	$0, -72(%rbp)
Ltmp1672:
	leaq	l___unnamed_4(%rip), %rax
Ltmp1673:
	movq	%rax, -56(%rbp)
	movq	$0, -48(%rbp)
	leaq	-88(%rbp), %rsi
Ltmp1674:
	.loc	3 59 17
	movq	%rbx, %rdi
	callq	__ZN4core3fmt9Formatter9write_fmt17h742ca6aae87ad23cE
Ltmp1675:
	movl	%eax, %ecx
Ltmp1676:
LBB49_9:
	.loc	3 60 14
	movl	%ecx, %eax
	addq	$104, %rsp
	popq	%rbx
Ltmp1677:
	popq	%r12
	popq	%r13
	popq	%r14
	popq	%r15
	popq	%rbp
	retq
Ltmp1678:
Lfunc_end49:
	.cfi_endproc

	.globl	__ZN11packed_simd3v6496_$LT$impl$u20$core..fmt..Debug$u20$for$u20$packed_simd..Simd$LT$$u5b$i16$u3b$$u20$4$u5d$$GT$$GT$3fmt17hc9ad10f1c408dcfcE
	.p2align	4, 0x90
__ZN11packed_simd3v6496_$LT$impl$u20$core..fmt..Debug$u20$for$u20$packed_simd..Simd$LT$$u5b$i16$u3b$$u20$4$u5d$$GT$$GT$3fmt17hc9ad10f1c408dcfcE:
Lfunc_begin50:
	.loc	3 49 0
	.cfi_startproc
	pushq	%rbp
	.cfi_def_cfa_offset 16
	.cfi_offset %rbp, -16
	movq	%rsp, %rbp
	.cfi_def_cfa_register %rbp
	pushq	%r15
	pushq	%r14
	pushq	%r13
	pushq	%r12
	pushq	%rbx
	subq	$88, %rsp
	.cfi_offset %rbx, -56
	.cfi_offset %r12, -48
	.cfi_offset %r13, -40
	.cfi_offset %r14, -32
	.cfi_offset %r15, -24
	movq	%rsi, %r15
	movq	%rdi, %rbx
Ltmp1679:
	.loc	3 52 17 prologue_end
	leaq	l___unnamed_17(%rip), %rax
	movq	%rax, -128(%rbp)
	leaq	__ZN44_$LT$$RF$T$u20$as$u20$core..fmt..Display$GT$3fmt17h189ab73c0bfea6d1E(%rip), %rax
	movq	%rax, -120(%rbp)
Ltmp1680:
	.loc	1 328 9
	leaq	l___unnamed_2(%rip), %rax
Ltmp1681:
	movq	%rax, -88(%rbp)
	movq	$2, -80(%rbp)
	movq	$0, -72(%rbp)
	leaq	-128(%rbp), %rax
Ltmp1682:
	movq	%rax, -56(%rbp)
	movq	$1, -48(%rbp)
	leaq	-88(%rbp), %rsi
Ltmp1683:
	.loc	3 52 17
	movq	%r15, %rdi
	callq	__ZN4core3fmt9Formatter9write_fmt17h742ca6aae87ad23cE
	movb	$1, %r14b
	.loc	3 52 50 is_stmt 0
	testb	%al, %al
	jne	LBB50_22
Ltmp1684:
	.loc	3 0 0
	movq	(%rbx), %rbx
Ltmp1685:
	.loc	3 57 21 is_stmt 1
	movw	%bx, -88(%rbp)
Ltmp1686:
	.loc	4 149 20
	movq	%r15, %rdi
	callq	__ZN4core3fmt9Formatter15debug_lower_hex17hd07f6fde8d0365dfE
	.loc	4 149 17 is_stmt 0
	testb	%al, %al
	je	LBB50_2
Ltmp1687:
	.loc	4 0 17
	leaq	-88(%rbp), %rdi
	.loc	4 150 21 is_stmt 1
	movq	%r15, %rsi
	callq	__ZN4core3fmt3num53_$LT$impl$u20$core..fmt..LowerHex$u20$for$u20$i16$GT$3fmt17h7236122704e16c86E
Ltmp1688:
	.loc	3 57 43
	testb	%al, %al
	je	LBB50_6
	jmp	LBB50_22
Ltmp1689:
LBB50_2:
	.loc	4 151 27
	movq	%r15, %rdi
	callq	__ZN4core3fmt9Formatter15debug_upper_hex17hf480c256a9c81c1eE
	leaq	-88(%rbp), %rdi
	.loc	4 154 21
	movq	%r15, %rsi
	.loc	4 151 24
	testb	%al, %al
	je	LBB50_4
Ltmp1690:
	.loc	4 152 21
	callq	__ZN4core3fmt3num53_$LT$impl$u20$core..fmt..UpperHex$u20$for$u20$i16$GT$3fmt17hf50bc938a2a1e02bE
Ltmp1691:
	.loc	3 57 43
	testb	%al, %al
	je	LBB50_6
	jmp	LBB50_22
Ltmp1692:
LBB50_4:
	.loc	4 154 21
	callq	__ZN4core3fmt3num3imp52_$LT$impl$u20$core..fmt..Display$u20$for$u20$i16$GT$3fmt17h7c7135e52a8bf68aE
Ltmp1693:
	.loc	3 57 43
	testb	%al, %al
	jne	LBB50_22
Ltmp1694:
LBB50_6:
	.loc	1 328 9
	leaq	l___unnamed_3(%rip), %r13
Ltmp1695:
	movq	%r13, -88(%rbp)
	movq	$1, -80(%rbp)
	movq	$0, -72(%rbp)
	leaq	l___unnamed_4(%rip), %r12
Ltmp1696:
	movq	%r12, -56(%rbp)
	movq	$0, -48(%rbp)
	leaq	-88(%rbp), %rsi
Ltmp1697:
	.loc	3 55 25
	movq	%r15, %rdi
	callq	__ZN4core3fmt9Formatter9write_fmt17h742ca6aae87ad23cE
	.loc	3 55 40 is_stmt 0
	testb	%al, %al
	jne	LBB50_22
Ltmp1698:
	.loc	3 0 0
	movq	%rbx, %xmm0
Ltmp1699:
	movdqa	%xmm0, -112(%rbp)
Ltmp1700:
	.loc	5 63 36 is_stmt 1
	pextrw	$1, %xmm0, %eax
Ltmp1701:
	.loc	3 57 21
	movw	%ax, -88(%rbp)
Ltmp1702:
	.loc	4 149 20
	movq	%r15, %rdi
	callq	__ZN4core3fmt9Formatter15debug_lower_hex17hd07f6fde8d0365dfE
	.loc	4 149 17 is_stmt 0
	testb	%al, %al
	je	LBB50_8
Ltmp1703:
	.loc	4 0 17
	leaq	-88(%rbp), %rdi
	.loc	4 150 21 is_stmt 1
	movq	%r15, %rsi
	callq	__ZN4core3fmt3num53_$LT$impl$u20$core..fmt..LowerHex$u20$for$u20$i16$GT$3fmt17h7236122704e16c86E
	jmp	LBB50_10
Ltmp1704:
LBB50_8:
	.loc	4 151 27
	movq	%r15, %rdi
	callq	__ZN4core3fmt9Formatter15debug_upper_hex17hf480c256a9c81c1eE
	leaq	-88(%rbp), %rdi
	.loc	4 152 21
	movq	%r15, %rsi
	.loc	4 151 24
	testb	%al, %al
	je	LBB50_9
Ltmp1705:
	.loc	4 152 21
	callq	__ZN4core3fmt3num53_$LT$impl$u20$core..fmt..UpperHex$u20$for$u20$i16$GT$3fmt17hf50bc938a2a1e02bE
	jmp	LBB50_10
Ltmp1706:
LBB50_9:
	.loc	4 154 21
	callq	__ZN4core3fmt3num3imp52_$LT$impl$u20$core..fmt..Display$u20$for$u20$i16$GT$3fmt17h7c7135e52a8bf68aE
Ltmp1707:
LBB50_10:
	.loc	3 57 43
	testb	%al, %al
	jne	LBB50_22
Ltmp1708:
	.loc	1 328 9
	movq	%r13, -88(%rbp)
	movq	$1, -80(%rbp)
	movq	$0, -72(%rbp)
Ltmp1709:
	movq	%r12, -56(%rbp)
	movq	$0, -48(%rbp)
	leaq	-88(%rbp), %rsi
Ltmp1710:
	.loc	3 55 25
	movq	%r15, %rdi
	callq	__ZN4core3fmt9Formatter9write_fmt17h742ca6aae87ad23cE
	.loc	3 55 40 is_stmt 0
	testb	%al, %al
	jne	LBB50_22
Ltmp1711:
	.loc	3 0 40
	movdqa	-112(%rbp), %xmm0
Ltmp1712:
	.loc	5 63 36 is_stmt 1
	pextrw	$2, %xmm0, %eax
Ltmp1713:
	.loc	3 57 21
	movw	%ax, -88(%rbp)
Ltmp1714:
	.loc	4 149 20
	movq	%r15, %rdi
	callq	__ZN4core3fmt9Formatter15debug_lower_hex17hd07f6fde8d0365dfE
	.loc	4 149 17 is_stmt 0
	testb	%al, %al
	je	LBB50_13
Ltmp1715:
	.loc	4 0 17
	leaq	-88(%rbp), %rdi
	.loc	4 150 21 is_stmt 1
	movq	%r15, %rsi
	callq	__ZN4core3fmt3num53_$LT$impl$u20$core..fmt..LowerHex$u20$for$u20$i16$GT$3fmt17h7236122704e16c86E
	jmp	LBB50_15
Ltmp1716:
LBB50_13:
	.loc	4 151 27
	movq	%r15, %rdi
	callq	__ZN4core3fmt9Formatter15debug_upper_hex17hf480c256a9c81c1eE
	leaq	-88(%rbp), %rdi
	.loc	4 152 21
	movq	%r15, %rsi
	.loc	4 151 24
	testb	%al, %al
	je	LBB50_14
Ltmp1717:
	.loc	4 152 21
	callq	__ZN4core3fmt3num53_$LT$impl$u20$core..fmt..UpperHex$u20$for$u20$i16$GT$3fmt17hf50bc938a2a1e02bE
	jmp	LBB50_15
Ltmp1718:
LBB50_14:
	.loc	4 154 21
	callq	__ZN4core3fmt3num3imp52_$LT$impl$u20$core..fmt..Display$u20$for$u20$i16$GT$3fmt17h7c7135e52a8bf68aE
Ltmp1719:
LBB50_15:
	.loc	3 57 43
	testb	%al, %al
	jne	LBB50_22
Ltmp1720:
	.loc	1 328 9
	movq	%r13, -88(%rbp)
	movq	$1, -80(%rbp)
	movq	$0, -72(%rbp)
Ltmp1721:
	movq	%r12, -56(%rbp)
	movq	$0, -48(%rbp)
	leaq	-88(%rbp), %rsi
Ltmp1722:
	.loc	3 55 25
	movq	%r15, %rdi
	callq	__ZN4core3fmt9Formatter9write_fmt17h742ca6aae87ad23cE
	.loc	3 55 40 is_stmt 0
	testb	%al, %al
	jne	LBB50_22
Ltmp1723:
	.loc	3 0 40
	movdqa	-112(%rbp), %xmm0
Ltmp1724:
	.loc	5 63 36 is_stmt 1
	pextrw	$3, %xmm0, %eax
Ltmp1725:
	.loc	3 57 21
	movw	%ax, -88(%rbp)
Ltmp1726:
	.loc	4 149 20
	movq	%r15, %rdi
	callq	__ZN4core3fmt9Formatter15debug_lower_hex17hd07f6fde8d0365dfE
	.loc	4 149 17 is_stmt 0
	testb	%al, %al
	je	LBB50_18
Ltmp1727:
	.loc	4 0 17
	leaq	-88(%rbp), %rdi
	.loc	4 150 21 is_stmt 1
	movq	%r15, %rsi
	callq	__ZN4core3fmt3num53_$LT$impl$u20$core..fmt..LowerHex$u20$for$u20$i16$GT$3fmt17h7236122704e16c86E
	jmp	LBB50_20
Ltmp1728:
LBB50_18:
	.loc	4 151 27
	movq	%r15, %rdi
	callq	__ZN4core3fmt9Formatter15debug_upper_hex17hf480c256a9c81c1eE
	leaq	-88(%rbp), %rdi
	.loc	4 152 21
	movq	%r15, %rsi
	.loc	4 151 24
	testb	%al, %al
	je	LBB50_19
Ltmp1729:
	.loc	4 152 21
	callq	__ZN4core3fmt3num53_$LT$impl$u20$core..fmt..UpperHex$u20$for$u20$i16$GT$3fmt17hf50bc938a2a1e02bE
	jmp	LBB50_20
Ltmp1730:
LBB50_19:
	.loc	4 154 21
	callq	__ZN4core3fmt3num3imp52_$LT$impl$u20$core..fmt..Display$u20$for$u20$i16$GT$3fmt17h7c7135e52a8bf68aE
Ltmp1731:
LBB50_20:
	.loc	3 57 43
	testb	%al, %al
	jne	LBB50_22
Ltmp1732:
	.loc	1 328 9
	leaq	l___unnamed_5(%rip), %rax
Ltmp1733:
	movq	%rax, -88(%rbp)
	movq	$1, -80(%rbp)
	movq	$0, -72(%rbp)
Ltmp1734:
	movq	%r12, -56(%rbp)
	movq	$0, -48(%rbp)
	leaq	-88(%rbp), %rsi
Ltmp1735:
	.loc	3 59 17
	movq	%r15, %rdi
	callq	__ZN4core3fmt9Formatter9write_fmt17h742ca6aae87ad23cE
Ltmp1736:
	movl	%eax, %r14d
Ltmp1737:
LBB50_22:
	.loc	3 60 14
	movl	%r14d, %eax
	addq	$88, %rsp
	popq	%rbx
	popq	%r12
	popq	%r13
	popq	%r14
	popq	%r15
Ltmp1738:
	popq	%rbp
	retq
Ltmp1739:
Lfunc_end50:
	.cfi_endproc

	.globl	__ZN11packed_simd3v6499_$LT$impl$u20$core..fmt..LowerHex$u20$for$u20$packed_simd..Simd$LT$$u5b$i16$u3b$$u20$4$u5d$$GT$$GT$3fmt17hbe36621ad48a6ca0E
	.p2align	4, 0x90
__ZN11packed_simd3v6499_$LT$impl$u20$core..fmt..LowerHex$u20$for$u20$packed_simd..Simd$LT$$u5b$i16$u3b$$u20$4$u5d$$GT$$GT$3fmt17hbe36621ad48a6ca0E:
Lfunc_begin51:
	.loc	6 9 0
	.cfi_startproc
	pushq	%rbp
	.cfi_def_cfa_offset 16
	.cfi_offset %rbp, -16
	movq	%rsp, %rbp
	.cfi_def_cfa_register %rbp
	pushq	%r15
	pushq	%r14
	pushq	%r13
	pushq	%r12
	pushq	%rbx
	subq	$104, %rsp
	.cfi_offset %rbx, -56
	.cfi_offset %r12, -48
	.cfi_offset %r13, -40
	.cfi_offset %r14, -32
	.cfi_offset %r15, -24
	movq	%rsi, %rbx
	movq	%rdi, %r15
Ltmp1740:
	.loc	6 11 17 prologue_end
	leaq	l___unnamed_17(%rip), %rax
	movq	%rax, -104(%rbp)
	leaq	__ZN44_$LT$$RF$T$u20$as$u20$core..fmt..Display$GT$3fmt17h189ab73c0bfea6d1E(%rip), %rax
	movq	%rax, -96(%rbp)
Ltmp1741:
	.loc	1 328 9
	leaq	l___unnamed_2(%rip), %rax
Ltmp1742:
	movq	%rax, -88(%rbp)
	movq	$2, -80(%rbp)
	movq	$0, -72(%rbp)
	leaq	-104(%rbp), %rax
Ltmp1743:
	movq	%rax, -56(%rbp)
	movq	$1, -48(%rbp)
	leaq	-88(%rbp), %rsi
Ltmp1744:
	.loc	6 11 17
	movq	%rbx, %rdi
	callq	__ZN4core3fmt9Formatter9write_fmt17h742ca6aae87ad23cE
	movb	$1, %cl
	.loc	6 11 50 is_stmt 0
	testb	%al, %al
	jne	LBB51_9
Ltmp1745:
	.loc	6 0 0
	movsd	(%r15), %xmm0
	movaps	%xmm0, -128(%rbp)
	xorl	%r14d, %r14d
	leaq	-88(%rbp), %r15
Ltmp1746:
	leaq	l___unnamed_3(%rip), %r13
	jmp	LBB51_3
Ltmp1747:
	.p2align	4, 0x90
LBB51_2:
	movaps	-128(%rbp), %xmm0
Ltmp1748:
	.loc	5 63 36 is_stmt 1
	movaps	%xmm0, -144(%rbp)
Ltmp1749:
	.loc	6 0 0 is_stmt 0
	leaq	1(%r14), %r12
Ltmp1750:
	.loc	5 63 36
	andl	$7, %r14d
Ltmp1751:
	movzwl	-144(%rbp,%r14,2), %eax
Ltmp1752:
	.loc	6 16 21 is_stmt 1
	movw	%ax, -88(%rbp)
	movq	%r15, %rdi
	movq	%rbx, %rsi
	callq	__ZN4core3fmt3num53_$LT$impl$u20$core..fmt..LowerHex$u20$for$u20$i16$GT$3fmt17h7236122704e16c86E
Ltmp1753:
	.loc	6 0 0 is_stmt 0
	movq	%r12, %r14
Ltmp1754:
	.loc	6 16 43
	testb	%al, %al
	jne	LBB51_8
Ltmp1755:
LBB51_3:
	.loc	7 1136 52 is_stmt 1
	cmpq	$4, %r14
Ltmp1756:
	.loc	8 505 9
	je	LBB51_7
Ltmp1757:
	.loc	6 13 24
	testq	%r14, %r14
	.loc	6 13 21 is_stmt 0
	je	LBB51_2
Ltmp1758:
	.loc	1 328 9 is_stmt 1
	movq	%r13, -88(%rbp)
	movq	$1, -80(%rbp)
	movq	$0, -72(%rbp)
Ltmp1759:
	leaq	l___unnamed_4(%rip), %rax
Ltmp1760:
	movq	%rax, -56(%rbp)
Ltmp1761:
	movq	$0, -48(%rbp)
Ltmp1762:
	.loc	6 14 25
	movq	%rbx, %rdi
	movq	%r15, %rsi
	callq	__ZN4core3fmt9Formatter9write_fmt17h742ca6aae87ad23cE
	.loc	6 14 40 is_stmt 0
	testb	%al, %al
	je	LBB51_2
Ltmp1763:
LBB51_8:
	.loc	6 0 40
	movb	$1, %cl
	jmp	LBB51_9
Ltmp1764:
LBB51_7:
	.loc	1 328 9 is_stmt 1
	leaq	l___unnamed_5(%rip), %rax
Ltmp1765:
	movq	%rax, -88(%rbp)
	movq	$1, -80(%rbp)
	movq	$0, -72(%rbp)
Ltmp1766:
	leaq	l___unnamed_4(%rip), %rax
Ltmp1767:
	movq	%rax, -56(%rbp)
	movq	$0, -48(%rbp)
	leaq	-88(%rbp), %rsi
Ltmp1768:
	.loc	6 18 17
	movq	%rbx, %rdi
	callq	__ZN4core3fmt9Formatter9write_fmt17h742ca6aae87ad23cE
Ltmp1769:
	movl	%eax, %ecx
Ltmp1770:
LBB51_9:
	.loc	6 19 14
	movl	%ecx, %eax
	addq	$104, %rsp
	popq	%rbx
Ltmp1771:
	popq	%r12
	popq	%r13
	popq	%r14
	popq	%r15
	popq	%rbp
	retq
Ltmp1772:
Lfunc_end51:
	.cfi_endproc

	.globl	__ZN11packed_simd3v6499_$LT$impl$u20$core..fmt..UpperHex$u20$for$u20$packed_simd..Simd$LT$$u5b$i16$u3b$$u20$4$u5d$$GT$$GT$3fmt17h9755ed8e008f7f0bE
	.p2align	4, 0x90
__ZN11packed_simd3v6499_$LT$impl$u20$core..fmt..UpperHex$u20$for$u20$packed_simd..Simd$LT$$u5b$i16$u3b$$u20$4$u5d$$GT$$GT$3fmt17h9755ed8e008f7f0bE:
Lfunc_begin52:
	.loc	9 9 0
	.cfi_startproc
	pushq	%rbp
	.cfi_def_cfa_offset 16
	.cfi_offset %rbp, -16
	movq	%rsp, %rbp
	.cfi_def_cfa_register %rbp
	pushq	%r15
	pushq	%r14
	pushq	%r13
	pushq	%r12
	pushq	%rbx
	subq	$104, %rsp
	.cfi_offset %rbx, -56
	.cfi_offset %r12, -48
	.cfi_offset %r13, -40
	.cfi_offset %r14, -32
	.cfi_offset %r15, -24
	movq	%rsi, %rbx
	movq	%rdi, %r15
Ltmp1773:
	.loc	9 11 17 prologue_end
	leaq	l___unnamed_17(%rip), %rax
	movq	%rax, -104(%rbp)
	leaq	__ZN44_$LT$$RF$T$u20$as$u20$core..fmt..Display$GT$3fmt17h189ab73c0bfea6d1E(%rip), %rax
	movq	%rax, -96(%rbp)
Ltmp1774:
	.loc	1 328 9
	leaq	l___unnamed_2(%rip), %rax
Ltmp1775:
	movq	%rax, -88(%rbp)
	movq	$2, -80(%rbp)
	movq	$0, -72(%rbp)
	leaq	-104(%rbp), %rax
Ltmp1776:
	movq	%rax, -56(%rbp)
	movq	$1, -48(%rbp)
	leaq	-88(%rbp), %rsi
Ltmp1777:
	.loc	9 11 17
	movq	%rbx, %rdi
	callq	__ZN4core3fmt9Formatter9write_fmt17h742ca6aae87ad23cE
	movb	$1, %cl
	.loc	9 11 50 is_stmt 0
	testb	%al, %al
	jne	LBB52_9
Ltmp1778:
	.loc	9 0 0
	movsd	(%r15), %xmm0
	movaps	%xmm0, -128(%rbp)
	xorl	%r14d, %r14d
	leaq	-88(%rbp), %r15
Ltmp1779:
	leaq	l___unnamed_3(%rip), %r13
	jmp	LBB52_3
Ltmp1780:
	.p2align	4, 0x90
LBB52_2:
	movaps	-128(%rbp), %xmm0
Ltmp1781:
	.loc	5 63 36 is_stmt 1
	movaps	%xmm0, -144(%rbp)
Ltmp1782:
	.loc	9 0 0 is_stmt 0
	leaq	1(%r14), %r12
Ltmp1783:
	.loc	5 63 36
	andl	$7, %r14d
Ltmp1784:
	movzwl	-144(%rbp,%r14,2), %eax
Ltmp1785:
	.loc	9 16 21 is_stmt 1
	movw	%ax, -88(%rbp)
	movq	%r15, %rdi
	movq	%rbx, %rsi
	callq	__ZN4core3fmt3num53_$LT$impl$u20$core..fmt..UpperHex$u20$for$u20$i16$GT$3fmt17hf50bc938a2a1e02bE
Ltmp1786:
	.loc	9 0 0 is_stmt 0
	movq	%r12, %r14
Ltmp1787:
	.loc	9 16 43
	testb	%al, %al
	jne	LBB52_8
Ltmp1788:
LBB52_3:
	.loc	7 1136 52 is_stmt 1
	cmpq	$4, %r14
Ltmp1789:
	.loc	8 505 9
	je	LBB52_7
Ltmp1790:
	.loc	9 13 24
	testq	%r14, %r14
	.loc	9 13 21 is_stmt 0
	je	LBB52_2
Ltmp1791:
	.loc	1 328 9 is_stmt 1
	movq	%r13, -88(%rbp)
	movq	$1, -80(%rbp)
	movq	$0, -72(%rbp)
Ltmp1792:
	leaq	l___unnamed_4(%rip), %rax
Ltmp1793:
	movq	%rax, -56(%rbp)
Ltmp1794:
	movq	$0, -48(%rbp)
Ltmp1795:
	.loc	9 14 25
	movq	%rbx, %rdi
	movq	%r15, %rsi
	callq	__ZN4core3fmt9Formatter9write_fmt17h742ca6aae87ad23cE
	.loc	9 14 40 is_stmt 0
	testb	%al, %al
	je	LBB52_2
Ltmp1796:
LBB52_8:
	.loc	9 0 40
	movb	$1, %cl
	jmp	LBB52_9
Ltmp1797:
LBB52_7:
	.loc	1 328 9 is_stmt 1
	leaq	l___unnamed_5(%rip), %rax
Ltmp1798:
	movq	%rax, -88(%rbp)
	movq	$1, -80(%rbp)
	movq	$0, -72(%rbp)
Ltmp1799:
	leaq	l___unnamed_4(%rip), %rax
Ltmp1800:
	movq	%rax, -56(%rbp)
	movq	$0, -48(%rbp)
	leaq	-88(%rbp), %rsi
Ltmp1801:
	.loc	9 18 17
	movq	%rbx, %rdi
	callq	__ZN4core3fmt9Formatter9write_fmt17h742ca6aae87ad23cE
Ltmp1802:
	movl	%eax, %ecx
Ltmp1803:
LBB52_9:
	.loc	9 19 14
	movl	%ecx, %eax
	addq	$104, %rsp
	popq	%rbx
Ltmp1804:
	popq	%r12
	popq	%r13
	popq	%r14
	popq	%r15
	popq	%rbp
	retq
Ltmp1805:
Lfunc_end52:
	.cfi_endproc

	.globl	__ZN11packed_simd3v6496_$LT$impl$u20$core..fmt..Octal$u20$for$u20$packed_simd..Simd$LT$$u5b$i16$u3b$$u20$4$u5d$$GT$$GT$3fmt17h961055aa450769e7E
	.p2align	4, 0x90
__ZN11packed_simd3v6496_$LT$impl$u20$core..fmt..Octal$u20$for$u20$packed_simd..Simd$LT$$u5b$i16$u3b$$u20$4$u5d$$GT$$GT$3fmt17h961055aa450769e7E:
Lfunc_begin53:
	.loc	10 9 0
	.cfi_startproc
	pushq	%rbp
	.cfi_def_cfa_offset 16
	.cfi_offset %rbp, -16
	movq	%rsp, %rbp
	.cfi_def_cfa_register %rbp
	pushq	%r15
	pushq	%r14
	pushq	%r13
	pushq	%r12
	pushq	%rbx
	subq	$104, %rsp
	.cfi_offset %rbx, -56
	.cfi_offset %r12, -48
	.cfi_offset %r13, -40
	.cfi_offset %r14, -32
	.cfi_offset %r15, -24
	movq	%rsi, %rbx
	movq	%rdi, %r15
Ltmp1806:
	.loc	10 11 17 prologue_end
	leaq	l___unnamed_17(%rip), %rax
	movq	%rax, -104(%rbp)
	leaq	__ZN44_$LT$$RF$T$u20$as$u20$core..fmt..Display$GT$3fmt17h189ab73c0bfea6d1E(%rip), %rax
	movq	%rax, -96(%rbp)
Ltmp1807:
	.loc	1 328 9
	leaq	l___unnamed_2(%rip), %rax
Ltmp1808:
	movq	%rax, -88(%rbp)
	movq	$2, -80(%rbp)
	movq	$0, -72(%rbp)
	leaq	-104(%rbp), %rax
Ltmp1809:
	movq	%rax, -56(%rbp)
	movq	$1, -48(%rbp)
	leaq	-88(%rbp), %rsi
Ltmp1810:
	.loc	10 11 17
	movq	%rbx, %rdi
	callq	__ZN4core3fmt9Formatter9write_fmt17h742ca6aae87ad23cE
	movb	$1, %cl
	.loc	10 11 50 is_stmt 0
	testb	%al, %al
	jne	LBB53_9
Ltmp1811:
	.loc	10 0 0
	movsd	(%r15), %xmm0
	movaps	%xmm0, -128(%rbp)
	xorl	%r14d, %r14d
	leaq	-88(%rbp), %r15
Ltmp1812:
	leaq	l___unnamed_3(%rip), %r13
	jmp	LBB53_3
Ltmp1813:
	.p2align	4, 0x90
LBB53_2:
	movaps	-128(%rbp), %xmm0
Ltmp1814:
	.loc	5 63 36 is_stmt 1
	movaps	%xmm0, -144(%rbp)
Ltmp1815:
	.loc	10 0 0 is_stmt 0
	leaq	1(%r14), %r12
Ltmp1816:
	.loc	5 63 36
	andl	$7, %r14d
Ltmp1817:
	movzwl	-144(%rbp,%r14,2), %eax
Ltmp1818:
	.loc	10 16 21 is_stmt 1
	movw	%ax, -88(%rbp)
	movq	%r15, %rdi
	movq	%rbx, %rsi
	callq	__ZN4core3fmt3num50_$LT$impl$u20$core..fmt..Octal$u20$for$u20$i16$GT$3fmt17ha0034911fbd4500eE
Ltmp1819:
	.loc	10 0 0 is_stmt 0
	movq	%r12, %r14
Ltmp1820:
	.loc	10 16 43
	testb	%al, %al
	jne	LBB53_8
Ltmp1821:
LBB53_3:
	.loc	7 1136 52 is_stmt 1
	cmpq	$4, %r14
Ltmp1822:
	.loc	8 505 9
	je	LBB53_7
Ltmp1823:
	.loc	10 13 24
	testq	%r14, %r14
	.loc	10 13 21 is_stmt 0
	je	LBB53_2
Ltmp1824:
	.loc	1 328 9 is_stmt 1
	movq	%r13, -88(%rbp)
	movq	$1, -80(%rbp)
	movq	$0, -72(%rbp)
Ltmp1825:
	leaq	l___unnamed_4(%rip), %rax
Ltmp1826:
	movq	%rax, -56(%rbp)
Ltmp1827:
	movq	$0, -48(%rbp)
Ltmp1828:
	.loc	10 14 25
	movq	%rbx, %rdi
	movq	%r15, %rsi
	callq	__ZN4core3fmt9Formatter9write_fmt17h742ca6aae87ad23cE
	.loc	10 14 40 is_stmt 0
	testb	%al, %al
	je	LBB53_2
Ltmp1829:
LBB53_8:
	.loc	10 0 40
	movb	$1, %cl
	jmp	LBB53_9
Ltmp1830:
LBB53_7:
	.loc	1 328 9 is_stmt 1
	leaq	l___unnamed_5(%rip), %rax
Ltmp1831:
	movq	%rax, -88(%rbp)
	movq	$1, -80(%rbp)
	movq	$0, -72(%rbp)
Ltmp1832:
	leaq	l___unnamed_4(%rip), %rax
Ltmp1833:
	movq	%rax, -56(%rbp)
	movq	$0, -48(%rbp)
	leaq	-88(%rbp), %rsi
Ltmp1834:
	.loc	10 18 17
	movq	%rbx, %rdi
	callq	__ZN4core3fmt9Formatter9write_fmt17h742ca6aae87ad23cE
Ltmp1835:
	movl	%eax, %ecx
Ltmp1836:
LBB53_9:
	.loc	10 19 14
	movl	%ecx, %eax
	addq	$104, %rsp
	popq	%rbx
Ltmp1837:
	popq	%r12
	popq	%r13
	popq	%r14
	popq	%r15
	popq	%rbp
	retq
Ltmp1838:
Lfunc_end53:
	.cfi_endproc

	.globl	__ZN11packed_simd3v6497_$LT$impl$u20$core..fmt..Binary$u20$for$u20$packed_simd..Simd$LT$$u5b$i16$u3b$$u20$4$u5d$$GT$$GT$3fmt17h8556517b63e43800E
	.p2align	4, 0x90
__ZN11packed_simd3v6497_$LT$impl$u20$core..fmt..Binary$u20$for$u20$packed_simd..Simd$LT$$u5b$i16$u3b$$u20$4$u5d$$GT$$GT$3fmt17h8556517b63e43800E:
Lfunc_begin54:
	.loc	11 9 0
	.cfi_startproc
	pushq	%rbp
	.cfi_def_cfa_offset 16
	.cfi_offset %rbp, -16
	movq	%rsp, %rbp
	.cfi_def_cfa_register %rbp
	pushq	%r15
	pushq	%r14
	pushq	%r13
	pushq	%r12
	pushq	%rbx
	subq	$104, %rsp
	.cfi_offset %rbx, -56
	.cfi_offset %r12, -48
	.cfi_offset %r13, -40
	.cfi_offset %r14, -32
	.cfi_offset %r15, -24
	movq	%rsi, %rbx
	movq	%rdi, %r15
Ltmp1839:
	.loc	11 11 17 prologue_end
	leaq	l___unnamed_17(%rip), %rax
	movq	%rax, -104(%rbp)
	leaq	__ZN44_$LT$$RF$T$u20$as$u20$core..fmt..Display$GT$3fmt17h189ab73c0bfea6d1E(%rip), %rax
	movq	%rax, -96(%rbp)
Ltmp1840:
	.loc	1 328 9
	leaq	l___unnamed_2(%rip), %rax
Ltmp1841:
	movq	%rax, -88(%rbp)
	movq	$2, -80(%rbp)
	movq	$0, -72(%rbp)
	leaq	-104(%rbp), %rax
Ltmp1842:
	movq	%rax, -56(%rbp)
	movq	$1, -48(%rbp)
	leaq	-88(%rbp), %rsi
Ltmp1843:
	.loc	11 11 17
	movq	%rbx, %rdi
	callq	__ZN4core3fmt9Formatter9write_fmt17h742ca6aae87ad23cE
	movb	$1, %cl
	.loc	11 11 50 is_stmt 0
	testb	%al, %al
	jne	LBB54_9
Ltmp1844:
	.loc	11 0 0
	movsd	(%r15), %xmm0
	movaps	%xmm0, -128(%rbp)
	xorl	%r14d, %r14d
	leaq	-88(%rbp), %r15
Ltmp1845:
	leaq	l___unnamed_3(%rip), %r13
	jmp	LBB54_3
Ltmp1846:
	.p2align	4, 0x90
LBB54_2:
	movaps	-128(%rbp), %xmm0
Ltmp1847:
	.loc	5 63 36 is_stmt 1
	movaps	%xmm0, -144(%rbp)
Ltmp1848:
	.loc	11 0 0 is_stmt 0
	leaq	1(%r14), %r12
Ltmp1849:
	.loc	5 63 36
	andl	$7, %r14d
Ltmp1850:
	movzwl	-144(%rbp,%r14,2), %eax
Ltmp1851:
	.loc	11 16 21 is_stmt 1
	movw	%ax, -88(%rbp)
	movq	%r15, %rdi
	movq	%rbx, %rsi
	callq	__ZN4core3fmt3num51_$LT$impl$u20$core..fmt..Binary$u20$for$u20$i16$GT$3fmt17hd0d6ed80e6addc96E
Ltmp1852:
	.loc	11 0 0 is_stmt 0
	movq	%r12, %r14
Ltmp1853:
	.loc	11 16 43
	testb	%al, %al
	jne	LBB54_8
Ltmp1854:
LBB54_3:
	.loc	7 1136 52 is_stmt 1
	cmpq	$4, %r14
Ltmp1855:
	.loc	8 505 9
	je	LBB54_7
Ltmp1856:
	.loc	11 13 24
	testq	%r14, %r14
	.loc	11 13 21 is_stmt 0
	je	LBB54_2
Ltmp1857:
	.loc	1 328 9 is_stmt 1
	movq	%r13, -88(%rbp)
	movq	$1, -80(%rbp)
	movq	$0, -72(%rbp)
Ltmp1858:
	leaq	l___unnamed_4(%rip), %rax
Ltmp1859:
	movq	%rax, -56(%rbp)
Ltmp1860:
	movq	$0, -48(%rbp)
Ltmp1861:
	.loc	11 14 25
	movq	%rbx, %rdi
	movq	%r15, %rsi
	callq	__ZN4core3fmt9Formatter9write_fmt17h742ca6aae87ad23cE
	.loc	11 14 40 is_stmt 0
	testb	%al, %al
	je	LBB54_2
Ltmp1862:
LBB54_8:
	.loc	11 0 40
	movb	$1, %cl
	jmp	LBB54_9
Ltmp1863:
LBB54_7:
	.loc	1 328 9 is_stmt 1
	leaq	l___unnamed_5(%rip), %rax
Ltmp1864:
	movq	%rax, -88(%rbp)
	movq	$1, -80(%rbp)
	movq	$0, -72(%rbp)
Ltmp1865:
	leaq	l___unnamed_4(%rip), %rax
Ltmp1866:
	movq	%rax, -56(%rbp)
	movq	$0, -48(%rbp)
	leaq	-88(%rbp), %rsi
Ltmp1867:
	.loc	11 18 17
	movq	%rbx, %rdi
	callq	__ZN4core3fmt9Formatter9write_fmt17h742ca6aae87ad23cE
Ltmp1868:
	movl	%eax, %ecx
Ltmp1869:
LBB54_9:
	.loc	11 19 14
	movl	%ecx, %eax
	addq	$104, %rsp
	popq	%rbx
Ltmp1870:
	popq	%r12
	popq	%r13
	popq	%r14
	popq	%r15
	popq	%rbp
	retq
Ltmp1871:
Lfunc_end54:
	.cfi_endproc

	.globl	__ZN11packed_simd3v6496_$LT$impl$u20$core..fmt..Debug$u20$for$u20$packed_simd..Simd$LT$$u5b$u16$u3b$$u20$4$u5d$$GT$$GT$3fmt17h47929c25b8200470E
	.p2align	4, 0x90
__ZN11packed_simd3v6496_$LT$impl$u20$core..fmt..Debug$u20$for$u20$packed_simd..Simd$LT$$u5b$u16$u3b$$u20$4$u5d$$GT$$GT$3fmt17h47929c25b8200470E:
Lfunc_begin55:
	.loc	3 49 0
	.cfi_startproc
	pushq	%rbp
	.cfi_def_cfa_offset 16
	.cfi_offset %rbp, -16
	movq	%rsp, %rbp
	.cfi_def_cfa_register %rbp
	pushq	%r15
	pushq	%r14
	pushq	%r13
	pushq	%r12
	pushq	%rbx
	subq	$88, %rsp
	.cfi_offset %rbx, -56
	.cfi_offset %r12, -48
	.cfi_offset %r13, -40
	.cfi_offset %r14, -32
	.cfi_offset %r15, -24
	movq	%rsi, %r15
	movq	%rdi, %rbx
Ltmp1872:
	.loc	3 52 17 prologue_end
	leaq	l___unnamed_18(%rip), %rax
	movq	%rax, -128(%rbp)
	leaq	__ZN44_$LT$$RF$T$u20$as$u20$core..fmt..Display$GT$3fmt17h189ab73c0bfea6d1E(%rip), %rax
	movq	%rax, -120(%rbp)
Ltmp1873:
	.loc	1 328 9
	leaq	l___unnamed_2(%rip), %rax
Ltmp1874:
	movq	%rax, -88(%rbp)
	movq	$2, -80(%rbp)
	movq	$0, -72(%rbp)
	leaq	-128(%rbp), %rax
Ltmp1875:
	movq	%rax, -56(%rbp)
	movq	$1, -48(%rbp)
	leaq	-88(%rbp), %rsi
Ltmp1876:
	.loc	3 52 17
	movq	%r15, %rdi
	callq	__ZN4core3fmt9Formatter9write_fmt17h742ca6aae87ad23cE
	movb	$1, %r14b
	.loc	3 52 50 is_stmt 0
	testb	%al, %al
	jne	LBB55_22
Ltmp1877:
	.loc	3 0 0
	movq	(%rbx), %rbx
Ltmp1878:
	.loc	3 57 21 is_stmt 1
	movw	%bx, -88(%rbp)
Ltmp1879:
	.loc	4 149 20
	movq	%r15, %rdi
	callq	__ZN4core3fmt9Formatter15debug_lower_hex17hd07f6fde8d0365dfE
	.loc	4 149 17 is_stmt 0
	testb	%al, %al
	je	LBB55_2
Ltmp1880:
	.loc	4 0 17
	leaq	-88(%rbp), %rdi
	.loc	4 150 21 is_stmt 1
	movq	%r15, %rsi
	callq	__ZN4core3fmt3num53_$LT$impl$u20$core..fmt..LowerHex$u20$for$u20$u16$GT$3fmt17h7067c16dc119bdc6E
Ltmp1881:
	.loc	3 57 43
	testb	%al, %al
	je	LBB55_6
	jmp	LBB55_22
Ltmp1882:
LBB55_2:
	.loc	4 151 27
	movq	%r15, %rdi
	callq	__ZN4core3fmt9Formatter15debug_upper_hex17hf480c256a9c81c1eE
	leaq	-88(%rbp), %rdi
	.loc	4 154 21
	movq	%r15, %rsi
	.loc	4 151 24
	testb	%al, %al
	je	LBB55_4
Ltmp1883:
	.loc	4 152 21
	callq	__ZN4core3fmt3num53_$LT$impl$u20$core..fmt..UpperHex$u20$for$u20$u16$GT$3fmt17hb4f6c786d08c2f96E
Ltmp1884:
	.loc	3 57 43
	testb	%al, %al
	je	LBB55_6
	jmp	LBB55_22
Ltmp1885:
LBB55_4:
	.loc	4 154 21
	callq	__ZN4core3fmt3num3imp52_$LT$impl$u20$core..fmt..Display$u20$for$u20$u16$GT$3fmt17h5ce1a50c193bc52eE
Ltmp1886:
	.loc	3 57 43
	testb	%al, %al
	jne	LBB55_22
Ltmp1887:
LBB55_6:
	.loc	1 328 9
	leaq	l___unnamed_3(%rip), %r13
Ltmp1888:
	movq	%r13, -88(%rbp)
	movq	$1, -80(%rbp)
	movq	$0, -72(%rbp)
	leaq	l___unnamed_4(%rip), %r12
Ltmp1889:
	movq	%r12, -56(%rbp)
	movq	$0, -48(%rbp)
	leaq	-88(%rbp), %rsi
Ltmp1890:
	.loc	3 55 25
	movq	%r15, %rdi
	callq	__ZN4core3fmt9Formatter9write_fmt17h742ca6aae87ad23cE
	.loc	3 55 40 is_stmt 0
	testb	%al, %al
	jne	LBB55_22
Ltmp1891:
	.loc	3 0 0
	movq	%rbx, %xmm0
Ltmp1892:
	movdqa	%xmm0, -112(%rbp)
Ltmp1893:
	.loc	5 63 36 is_stmt 1
	pextrw	$1, %xmm0, %eax
Ltmp1894:
	.loc	3 57 21
	movw	%ax, -88(%rbp)
Ltmp1895:
	.loc	4 149 20
	movq	%r15, %rdi
	callq	__ZN4core3fmt9Formatter15debug_lower_hex17hd07f6fde8d0365dfE
	.loc	4 149 17 is_stmt 0
	testb	%al, %al
	je	LBB55_8
Ltmp1896:
	.loc	4 0 17
	leaq	-88(%rbp), %rdi
	.loc	4 150 21 is_stmt 1
	movq	%r15, %rsi
	callq	__ZN4core3fmt3num53_$LT$impl$u20$core..fmt..LowerHex$u20$for$u20$u16$GT$3fmt17h7067c16dc119bdc6E
	jmp	LBB55_10
Ltmp1897:
LBB55_8:
	.loc	4 151 27
	movq	%r15, %rdi
	callq	__ZN4core3fmt9Formatter15debug_upper_hex17hf480c256a9c81c1eE
	leaq	-88(%rbp), %rdi
	.loc	4 152 21
	movq	%r15, %rsi
	.loc	4 151 24
	testb	%al, %al
	je	LBB55_9
Ltmp1898:
	.loc	4 152 21
	callq	__ZN4core3fmt3num53_$LT$impl$u20$core..fmt..UpperHex$u20$for$u20$u16$GT$3fmt17hb4f6c786d08c2f96E
	jmp	LBB55_10
Ltmp1899:
LBB55_9:
	.loc	4 154 21
	callq	__ZN4core3fmt3num3imp52_$LT$impl$u20$core..fmt..Display$u20$for$u20$u16$GT$3fmt17h5ce1a50c193bc52eE
Ltmp1900:
LBB55_10:
	.loc	3 57 43
	testb	%al, %al
	jne	LBB55_22
Ltmp1901:
	.loc	1 328 9
	movq	%r13, -88(%rbp)
	movq	$1, -80(%rbp)
	movq	$0, -72(%rbp)
Ltmp1902:
	movq	%r12, -56(%rbp)
	movq	$0, -48(%rbp)
	leaq	-88(%rbp), %rsi
Ltmp1903:
	.loc	3 55 25
	movq	%r15, %rdi
	callq	__ZN4core3fmt9Formatter9write_fmt17h742ca6aae87ad23cE
	.loc	3 55 40 is_stmt 0
	testb	%al, %al
	jne	LBB55_22
Ltmp1904:
	.loc	3 0 40
	movdqa	-112(%rbp), %xmm0
Ltmp1905:
	.loc	5 63 36 is_stmt 1
	pextrw	$2, %xmm0, %eax
Ltmp1906:
	.loc	3 57 21
	movw	%ax, -88(%rbp)
Ltmp1907:
	.loc	4 149 20
	movq	%r15, %rdi
	callq	__ZN4core3fmt9Formatter15debug_lower_hex17hd07f6fde8d0365dfE
	.loc	4 149 17 is_stmt 0
	testb	%al, %al
	je	LBB55_13
Ltmp1908:
	.loc	4 0 17
	leaq	-88(%rbp), %rdi
	.loc	4 150 21 is_stmt 1
	movq	%r15, %rsi
	callq	__ZN4core3fmt3num53_$LT$impl$u20$core..fmt..LowerHex$u20$for$u20$u16$GT$3fmt17h7067c16dc119bdc6E
	jmp	LBB55_15
Ltmp1909:
LBB55_13:
	.loc	4 151 27
	movq	%r15, %rdi
	callq	__ZN4core3fmt9Formatter15debug_upper_hex17hf480c256a9c81c1eE
	leaq	-88(%rbp), %rdi
	.loc	4 152 21
	movq	%r15, %rsi
	.loc	4 151 24
	testb	%al, %al
	je	LBB55_14
Ltmp1910:
	.loc	4 152 21
	callq	__ZN4core3fmt3num53_$LT$impl$u20$core..fmt..UpperHex$u20$for$u20$u16$GT$3fmt17hb4f6c786d08c2f96E
	jmp	LBB55_15
Ltmp1911:
LBB55_14:
	.loc	4 154 21
	callq	__ZN4core3fmt3num3imp52_$LT$impl$u20$core..fmt..Display$u20$for$u20$u16$GT$3fmt17h5ce1a50c193bc52eE
Ltmp1912:
LBB55_15:
	.loc	3 57 43
	testb	%al, %al
	jne	LBB55_22
Ltmp1913:
	.loc	1 328 9
	movq	%r13, -88(%rbp)
	movq	$1, -80(%rbp)
	movq	$0, -72(%rbp)
Ltmp1914:
	movq	%r12, -56(%rbp)
	movq	$0, -48(%rbp)
	leaq	-88(%rbp), %rsi
Ltmp1915:
	.loc	3 55 25
	movq	%r15, %rdi
	callq	__ZN4core3fmt9Formatter9write_fmt17h742ca6aae87ad23cE
	.loc	3 55 40 is_stmt 0
	testb	%al, %al
	jne	LBB55_22
Ltmp1916:
	.loc	3 0 40
	movdqa	-112(%rbp), %xmm0
Ltmp1917:
	.loc	5 63 36 is_stmt 1
	pextrw	$3, %xmm0, %eax
Ltmp1918:
	.loc	3 57 21
	movw	%ax, -88(%rbp)
Ltmp1919:
	.loc	4 149 20
	movq	%r15, %rdi
	callq	__ZN4core3fmt9Formatter15debug_lower_hex17hd07f6fde8d0365dfE
	.loc	4 149 17 is_stmt 0
	testb	%al, %al
	je	LBB55_18
Ltmp1920:
	.loc	4 0 17
	leaq	-88(%rbp), %rdi
	.loc	4 150 21 is_stmt 1
	movq	%r15, %rsi
	callq	__ZN4core3fmt3num53_$LT$impl$u20$core..fmt..LowerHex$u20$for$u20$u16$GT$3fmt17h7067c16dc119bdc6E
	jmp	LBB55_20
Ltmp1921:
LBB55_18:
	.loc	4 151 27
	movq	%r15, %rdi
	callq	__ZN4core3fmt9Formatter15debug_upper_hex17hf480c256a9c81c1eE
	leaq	-88(%rbp), %rdi
	.loc	4 152 21
	movq	%r15, %rsi
	.loc	4 151 24
	testb	%al, %al
	je	LBB55_19
Ltmp1922:
	.loc	4 152 21
	callq	__ZN4core3fmt3num53_$LT$impl$u20$core..fmt..UpperHex$u20$for$u20$u16$GT$3fmt17hb4f6c786d08c2f96E
	jmp	LBB55_20
Ltmp1923:
LBB55_19:
	.loc	4 154 21
	callq	__ZN4core3fmt3num3imp52_$LT$impl$u20$core..fmt..Display$u20$for$u20$u16$GT$3fmt17h5ce1a50c193bc52eE
Ltmp1924:
LBB55_20:
	.loc	3 57 43
	testb	%al, %al
	jne	LBB55_22
Ltmp1925:
	.loc	1 328 9
	leaq	l___unnamed_5(%rip), %rax
Ltmp1926:
	movq	%rax, -88(%rbp)
	movq	$1, -80(%rbp)
	movq	$0, -72(%rbp)
Ltmp1927:
	movq	%r12, -56(%rbp)
	movq	$0, -48(%rbp)
	leaq	-88(%rbp), %rsi
Ltmp1928:
	.loc	3 59 17
	movq	%r15, %rdi
	callq	__ZN4core3fmt9Formatter9write_fmt17h742ca6aae87ad23cE
Ltmp1929:
	movl	%eax, %r14d
Ltmp1930:
LBB55_22:
	.loc	3 60 14
	movl	%r14d, %eax
	addq	$88, %rsp
	popq	%rbx
	popq	%r12
	popq	%r13
	popq	%r14
	popq	%r15
Ltmp1931:
	popq	%rbp
	retq
Ltmp1932:
Lfunc_end55:
	.cfi_endproc

	.globl	__ZN11packed_simd3v6499_$LT$impl$u20$core..fmt..LowerHex$u20$for$u20$packed_simd..Simd$LT$$u5b$u16$u3b$$u20$4$u5d$$GT$$GT$3fmt17hca24b60f33f43c4eE
	.p2align	4, 0x90
__ZN11packed_simd3v6499_$LT$impl$u20$core..fmt..LowerHex$u20$for$u20$packed_simd..Simd$LT$$u5b$u16$u3b$$u20$4$u5d$$GT$$GT$3fmt17hca24b60f33f43c4eE:
Lfunc_begin56:
	.loc	6 9 0
	.cfi_startproc
	pushq	%rbp
	.cfi_def_cfa_offset 16
	.cfi_offset %rbp, -16
	movq	%rsp, %rbp
	.cfi_def_cfa_register %rbp
	pushq	%r15
	pushq	%r14
	pushq	%r13
	pushq	%r12
	pushq	%rbx
	subq	$104, %rsp
	.cfi_offset %rbx, -56
	.cfi_offset %r12, -48
	.cfi_offset %r13, -40
	.cfi_offset %r14, -32
	.cfi_offset %r15, -24
	movq	%rsi, %rbx
	movq	%rdi, %r15
Ltmp1933:
	.loc	6 11 17 prologue_end
	leaq	l___unnamed_18(%rip), %rax
	movq	%rax, -104(%rbp)
	leaq	__ZN44_$LT$$RF$T$u20$as$u20$core..fmt..Display$GT$3fmt17h189ab73c0bfea6d1E(%rip), %rax
	movq	%rax, -96(%rbp)
Ltmp1934:
	.loc	1 328 9
	leaq	l___unnamed_2(%rip), %rax
Ltmp1935:
	movq	%rax, -88(%rbp)
	movq	$2, -80(%rbp)
	movq	$0, -72(%rbp)
	leaq	-104(%rbp), %rax
Ltmp1936:
	movq	%rax, -56(%rbp)
	movq	$1, -48(%rbp)
	leaq	-88(%rbp), %rsi
Ltmp1937:
	.loc	6 11 17
	movq	%rbx, %rdi
	callq	__ZN4core3fmt9Formatter9write_fmt17h742ca6aae87ad23cE
	movb	$1, %cl
	.loc	6 11 50 is_stmt 0
	testb	%al, %al
	jne	LBB56_9
Ltmp1938:
	.loc	6 0 0
	movsd	(%r15), %xmm0
	movaps	%xmm0, -128(%rbp)
	xorl	%r14d, %r14d
	leaq	-88(%rbp), %r15
Ltmp1939:
	leaq	l___unnamed_3(%rip), %r13
	jmp	LBB56_3
Ltmp1940:
	.p2align	4, 0x90
LBB56_2:
	movaps	-128(%rbp), %xmm0
Ltmp1941:
	.loc	5 63 36 is_stmt 1
	movaps	%xmm0, -144(%rbp)
Ltmp1942:
	.loc	6 0 0 is_stmt 0
	leaq	1(%r14), %r12
Ltmp1943:
	.loc	5 63 36
	andl	$7, %r14d
Ltmp1944:
	movzwl	-144(%rbp,%r14,2), %eax
Ltmp1945:
	.loc	6 16 21 is_stmt 1
	movw	%ax, -88(%rbp)
	movq	%r15, %rdi
	movq	%rbx, %rsi
	callq	__ZN4core3fmt3num53_$LT$impl$u20$core..fmt..LowerHex$u20$for$u20$u16$GT$3fmt17h7067c16dc119bdc6E
Ltmp1946:
	.loc	6 0 0 is_stmt 0
	movq	%r12, %r14
Ltmp1947:
	.loc	6 16 43
	testb	%al, %al
	jne	LBB56_8
Ltmp1948:
LBB56_3:
	.loc	7 1136 52 is_stmt 1
	cmpq	$4, %r14
Ltmp1949:
	.loc	8 505 9
	je	LBB56_7
Ltmp1950:
	.loc	6 13 24
	testq	%r14, %r14
	.loc	6 13 21 is_stmt 0
	je	LBB56_2
Ltmp1951:
	.loc	1 328 9 is_stmt 1
	movq	%r13, -88(%rbp)
	movq	$1, -80(%rbp)
	movq	$0, -72(%rbp)
Ltmp1952:
	leaq	l___unnamed_4(%rip), %rax
Ltmp1953:
	movq	%rax, -56(%rbp)
Ltmp1954:
	movq	$0, -48(%rbp)
Ltmp1955:
	.loc	6 14 25
	movq	%rbx, %rdi
	movq	%r15, %rsi
	callq	__ZN4core3fmt9Formatter9write_fmt17h742ca6aae87ad23cE
	.loc	6 14 40 is_stmt 0
	testb	%al, %al
	je	LBB56_2
Ltmp1956:
LBB56_8:
	.loc	6 0 40
	movb	$1, %cl
	jmp	LBB56_9
Ltmp1957:
LBB56_7:
	.loc	1 328 9 is_stmt 1
	leaq	l___unnamed_5(%rip), %rax
Ltmp1958:
	movq	%rax, -88(%rbp)
	movq	$1, -80(%rbp)
	movq	$0, -72(%rbp)
Ltmp1959:
	leaq	l___unnamed_4(%rip), %rax
Ltmp1960:
	movq	%rax, -56(%rbp)
	movq	$0, -48(%rbp)
	leaq	-88(%rbp), %rsi
Ltmp1961:
	.loc	6 18 17
	movq	%rbx, %rdi
	callq	__ZN4core3fmt9Formatter9write_fmt17h742ca6aae87ad23cE
Ltmp1962:
	movl	%eax, %ecx
Ltmp1963:
LBB56_9:
	.loc	6 19 14
	movl	%ecx, %eax
	addq	$104, %rsp
	popq	%rbx
Ltmp1964:
	popq	%r12
	popq	%r13
	popq	%r14
	popq	%r15
	popq	%rbp
	retq
Ltmp1965:
Lfunc_end56:
	.cfi_endproc

	.globl	__ZN11packed_simd3v6499_$LT$impl$u20$core..fmt..UpperHex$u20$for$u20$packed_simd..Simd$LT$$u5b$u16$u3b$$u20$4$u5d$$GT$$GT$3fmt17hb7b8623a7bd12772E
	.p2align	4, 0x90
__ZN11packed_simd3v6499_$LT$impl$u20$core..fmt..UpperHex$u20$for$u20$packed_simd..Simd$LT$$u5b$u16$u3b$$u20$4$u5d$$GT$$GT$3fmt17hb7b8623a7bd12772E:
Lfunc_begin57:
	.loc	9 9 0
	.cfi_startproc
	pushq	%rbp
	.cfi_def_cfa_offset 16
	.cfi_offset %rbp, -16
	movq	%rsp, %rbp
	.cfi_def_cfa_register %rbp
	pushq	%r15
	pushq	%r14
	pushq	%r13
	pushq	%r12
	pushq	%rbx
	subq	$104, %rsp
	.cfi_offset %rbx, -56
	.cfi_offset %r12, -48
	.cfi_offset %r13, -40
	.cfi_offset %r14, -32
	.cfi_offset %r15, -24
	movq	%rsi, %rbx
	movq	%rdi, %r15
Ltmp1966:
	.loc	9 11 17 prologue_end
	leaq	l___unnamed_18(%rip), %rax
	movq	%rax, -104(%rbp)
	leaq	__ZN44_$LT$$RF$T$u20$as$u20$core..fmt..Display$GT$3fmt17h189ab73c0bfea6d1E(%rip), %rax
	movq	%rax, -96(%rbp)
Ltmp1967:
	.loc	1 328 9
	leaq	l___unnamed_2(%rip), %rax
Ltmp1968:
	movq	%rax, -88(%rbp)
	movq	$2, -80(%rbp)
	movq	$0, -72(%rbp)
	leaq	-104(%rbp), %rax
Ltmp1969:
	movq	%rax, -56(%rbp)
	movq	$1, -48(%rbp)
	leaq	-88(%rbp), %rsi
Ltmp1970:
	.loc	9 11 17
	movq	%rbx, %rdi
	callq	__ZN4core3fmt9Formatter9write_fmt17h742ca6aae87ad23cE
	movb	$1, %cl
	.loc	9 11 50 is_stmt 0
	testb	%al, %al
	jne	LBB57_9
Ltmp1971:
	.loc	9 0 0
	movsd	(%r15), %xmm0
	movaps	%xmm0, -128(%rbp)
	xorl	%r14d, %r14d
	leaq	-88(%rbp), %r15
Ltmp1972:
	leaq	l___unnamed_3(%rip), %r13
	jmp	LBB57_3
Ltmp1973:
	.p2align	4, 0x90
LBB57_2:
	movaps	-128(%rbp), %xmm0
Ltmp1974:
	.loc	5 63 36 is_stmt 1
	movaps	%xmm0, -144(%rbp)
Ltmp1975:
	.loc	9 0 0 is_stmt 0
	leaq	1(%r14), %r12
Ltmp1976:
	.loc	5 63 36
	andl	$7, %r14d
Ltmp1977:
	movzwl	-144(%rbp,%r14,2), %eax
Ltmp1978:
	.loc	9 16 21 is_stmt 1
	movw	%ax, -88(%rbp)
	movq	%r15, %rdi
	movq	%rbx, %rsi
	callq	__ZN4core3fmt3num53_$LT$impl$u20$core..fmt..UpperHex$u20$for$u20$u16$GT$3fmt17hb4f6c786d08c2f96E
Ltmp1979:
	.loc	9 0 0 is_stmt 0
	movq	%r12, %r14
Ltmp1980:
	.loc	9 16 43
	testb	%al, %al
	jne	LBB57_8
Ltmp1981:
LBB57_3:
	.loc	7 1136 52 is_stmt 1
	cmpq	$4, %r14
Ltmp1982:
	.loc	8 505 9
	je	LBB57_7
Ltmp1983:
	.loc	9 13 24
	testq	%r14, %r14
	.loc	9 13 21 is_stmt 0
	je	LBB57_2
Ltmp1984:
	.loc	1 328 9 is_stmt 1
	movq	%r13, -88(%rbp)
	movq	$1, -80(%rbp)
	movq	$0, -72(%rbp)
Ltmp1985:
	leaq	l___unnamed_4(%rip), %rax
Ltmp1986:
	movq	%rax, -56(%rbp)
Ltmp1987:
	movq	$0, -48(%rbp)
Ltmp1988:
	.loc	9 14 25
	movq	%rbx, %rdi
	movq	%r15, %rsi
	callq	__ZN4core3fmt9Formatter9write_fmt17h742ca6aae87ad23cE
	.loc	9 14 40 is_stmt 0
	testb	%al, %al
	je	LBB57_2
Ltmp1989:
LBB57_8:
	.loc	9 0 40
	movb	$1, %cl
	jmp	LBB57_9
Ltmp1990:
LBB57_7:
	.loc	1 328 9 is_stmt 1
	leaq	l___unnamed_5(%rip), %rax
Ltmp1991:
	movq	%rax, -88(%rbp)
	movq	$1, -80(%rbp)
	movq	$0, -72(%rbp)
Ltmp1992:
	leaq	l___unnamed_4(%rip), %rax
Ltmp1993:
	movq	%rax, -56(%rbp)
	movq	$0, -48(%rbp)
	leaq	-88(%rbp), %rsi
Ltmp1994:
	.loc	9 18 17
	movq	%rbx, %rdi
	callq	__ZN4core3fmt9Formatter9write_fmt17h742ca6aae87ad23cE
Ltmp1995:
	movl	%eax, %ecx
Ltmp1996:
LBB57_9:
	.loc	9 19 14
	movl	%ecx, %eax
	addq	$104, %rsp
	popq	%rbx
Ltmp1997:
	popq	%r12
	popq	%r13
	popq	%r14
	popq	%r15
	popq	%rbp
	retq
Ltmp1998:
Lfunc_end57:
	.cfi_endproc

	.globl	__ZN11packed_simd3v6496_$LT$impl$u20$core..fmt..Octal$u20$for$u20$packed_simd..Simd$LT$$u5b$u16$u3b$$u20$4$u5d$$GT$$GT$3fmt17h27da9a5fc3b80625E
	.p2align	4, 0x90
__ZN11packed_simd3v6496_$LT$impl$u20$core..fmt..Octal$u20$for$u20$packed_simd..Simd$LT$$u5b$u16$u3b$$u20$4$u5d$$GT$$GT$3fmt17h27da9a5fc3b80625E:
Lfunc_begin58:
	.loc	10 9 0
	.cfi_startproc
	pushq	%rbp
	.cfi_def_cfa_offset 16
	.cfi_offset %rbp, -16
	movq	%rsp, %rbp
	.cfi_def_cfa_register %rbp
	pushq	%r15
	pushq	%r14
	pushq	%r13
	pushq	%r12
	pushq	%rbx
	subq	$104, %rsp
	.cfi_offset %rbx, -56
	.cfi_offset %r12, -48
	.cfi_offset %r13, -40
	.cfi_offset %r14, -32
	.cfi_offset %r15, -24
	movq	%rsi, %rbx
	movq	%rdi, %r15
Ltmp1999:
	.loc	10 11 17 prologue_end
	leaq	l___unnamed_18(%rip), %rax
	movq	%rax, -104(%rbp)
	leaq	__ZN44_$LT$$RF$T$u20$as$u20$core..fmt..Display$GT$3fmt17h189ab73c0bfea6d1E(%rip), %rax
	movq	%rax, -96(%rbp)
Ltmp2000:
	.loc	1 328 9
	leaq	l___unnamed_2(%rip), %rax
Ltmp2001:
	movq	%rax, -88(%rbp)
	movq	$2, -80(%rbp)
	movq	$0, -72(%rbp)
	leaq	-104(%rbp), %rax
Ltmp2002:
	movq	%rax, -56(%rbp)
	movq	$1, -48(%rbp)
	leaq	-88(%rbp), %rsi
Ltmp2003:
	.loc	10 11 17
	movq	%rbx, %rdi
	callq	__ZN4core3fmt9Formatter9write_fmt17h742ca6aae87ad23cE
	movb	$1, %cl
	.loc	10 11 50 is_stmt 0
	testb	%al, %al
	jne	LBB58_9
Ltmp2004:
	.loc	10 0 0
	movsd	(%r15), %xmm0
	movaps	%xmm0, -128(%rbp)
	xorl	%r14d, %r14d
	leaq	-88(%rbp), %r15
Ltmp2005:
	leaq	l___unnamed_3(%rip), %r13
	jmp	LBB58_3
Ltmp2006:
	.p2align	4, 0x90
LBB58_2:
	movaps	-128(%rbp), %xmm0
Ltmp2007:
	.loc	5 63 36 is_stmt 1
	movaps	%xmm0, -144(%rbp)
Ltmp2008:
	.loc	10 0 0 is_stmt 0
	leaq	1(%r14), %r12
Ltmp2009:
	.loc	5 63 36
	andl	$7, %r14d
Ltmp2010:
	movzwl	-144(%rbp,%r14,2), %eax
Ltmp2011:
	.loc	10 16 21 is_stmt 1
	movw	%ax, -88(%rbp)
	movq	%r15, %rdi
	movq	%rbx, %rsi
	callq	__ZN4core3fmt3num50_$LT$impl$u20$core..fmt..Octal$u20$for$u20$u16$GT$3fmt17hff248c9a64dcd3c7E
Ltmp2012:
	.loc	10 0 0 is_stmt 0
	movq	%r12, %r14
Ltmp2013:
	.loc	10 16 43
	testb	%al, %al
	jne	LBB58_8
Ltmp2014:
LBB58_3:
	.loc	7 1136 52 is_stmt 1
	cmpq	$4, %r14
Ltmp2015:
	.loc	8 505 9
	je	LBB58_7
Ltmp2016:
	.loc	10 13 24
	testq	%r14, %r14
	.loc	10 13 21 is_stmt 0
	je	LBB58_2
Ltmp2017:
	.loc	1 328 9 is_stmt 1
	movq	%r13, -88(%rbp)
	movq	$1, -80(%rbp)
	movq	$0, -72(%rbp)
Ltmp2018:
	leaq	l___unnamed_4(%rip), %rax
Ltmp2019:
	movq	%rax, -56(%rbp)
Ltmp2020:
	movq	$0, -48(%rbp)
Ltmp2021:
	.loc	10 14 25
	movq	%rbx, %rdi
	movq	%r15, %rsi
	callq	__ZN4core3fmt9Formatter9write_fmt17h742ca6aae87ad23cE
	.loc	10 14 40 is_stmt 0
	testb	%al, %al
	je	LBB58_2
Ltmp2022:
LBB58_8:
	.loc	10 0 40
	movb	$1, %cl
	jmp	LBB58_9
Ltmp2023:
LBB58_7:
	.loc	1 328 9 is_stmt 1
	leaq	l___unnamed_5(%rip), %rax
Ltmp2024:
	movq	%rax, -88(%rbp)
	movq	$1, -80(%rbp)
	movq	$0, -72(%rbp)
Ltmp2025:
	leaq	l___unnamed_4(%rip), %rax
Ltmp2026:
	movq	%rax, -56(%rbp)
	movq	$0, -48(%rbp)
	leaq	-88(%rbp), %rsi
Ltmp2027:
	.loc	10 18 17
	movq	%rbx, %rdi
	callq	__ZN4core3fmt9Formatter9write_fmt17h742ca6aae87ad23cE
Ltmp2028:
	movl	%eax, %ecx
Ltmp2029:
LBB58_9:
	.loc	10 19 14
	movl	%ecx, %eax
	addq	$104, %rsp
	popq	%rbx
Ltmp2030:
	popq	%r12
	popq	%r13
	popq	%r14
	popq	%r15
	popq	%rbp
	retq
Ltmp2031:
Lfunc_end58:
	.cfi_endproc

	.globl	__ZN11packed_simd3v6497_$LT$impl$u20$core..fmt..Binary$u20$for$u20$packed_simd..Simd$LT$$u5b$u16$u3b$$u20$4$u5d$$GT$$GT$3fmt17hddd0e435933f7fb6E
	.p2align	4, 0x90
__ZN11packed_simd3v6497_$LT$impl$u20$core..fmt..Binary$u20$for$u20$packed_simd..Simd$LT$$u5b$u16$u3b$$u20$4$u5d$$GT$$GT$3fmt17hddd0e435933f7fb6E:
Lfunc_begin59:
	.loc	11 9 0
	.cfi_startproc
	pushq	%rbp
	.cfi_def_cfa_offset 16
	.cfi_offset %rbp, -16
	movq	%rsp, %rbp
	.cfi_def_cfa_register %rbp
	pushq	%r15
	pushq	%r14
	pushq	%r13
	pushq	%r12
	pushq	%rbx
	subq	$104, %rsp
	.cfi_offset %rbx, -56
	.cfi_offset %r12, -48
	.cfi_offset %r13, -40
	.cfi_offset %r14, -32
	.cfi_offset %r15, -24
	movq	%rsi, %rbx
	movq	%rdi, %r15
Ltmp2032:
	.loc	11 11 17 prologue_end
	leaq	l___unnamed_18(%rip), %rax
	movq	%rax, -104(%rbp)
	leaq	__ZN44_$LT$$RF$T$u20$as$u20$core..fmt..Display$GT$3fmt17h189ab73c0bfea6d1E(%rip), %rax
	movq	%rax, -96(%rbp)
Ltmp2033:
	.loc	1 328 9
	leaq	l___unnamed_2(%rip), %rax
Ltmp2034:
	movq	%rax, -88(%rbp)
	movq	$2, -80(%rbp)
	movq	$0, -72(%rbp)
	leaq	-104(%rbp), %rax
Ltmp2035:
	movq	%rax, -56(%rbp)
	movq	$1, -48(%rbp)
	leaq	-88(%rbp), %rsi
Ltmp2036:
	.loc	11 11 17
	movq	%rbx, %rdi
	callq	__ZN4core3fmt9Formatter9write_fmt17h742ca6aae87ad23cE
	movb	$1, %cl
	.loc	11 11 50 is_stmt 0
	testb	%al, %al
	jne	LBB59_9
Ltmp2037:
	.loc	11 0 0
	movsd	(%r15), %xmm0
	movaps	%xmm0, -128(%rbp)
	xorl	%r14d, %r14d
	leaq	-88(%rbp), %r15
Ltmp2038:
	leaq	l___unnamed_3(%rip), %r13
	jmp	LBB59_3
Ltmp2039:
	.p2align	4, 0x90
LBB59_2:
	movaps	-128(%rbp), %xmm0
Ltmp2040:
	.loc	5 63 36 is_stmt 1
	movaps	%xmm0, -144(%rbp)
Ltmp2041:
	.loc	11 0 0 is_stmt 0
	leaq	1(%r14), %r12
Ltmp2042:
	.loc	5 63 36
	andl	$7, %r14d
Ltmp2043:
	movzwl	-144(%rbp,%r14,2), %eax
Ltmp2044:
	.loc	11 16 21 is_stmt 1
	movw	%ax, -88(%rbp)
	movq	%r15, %rdi
	movq	%rbx, %rsi
	callq	__ZN4core3fmt3num51_$LT$impl$u20$core..fmt..Binary$u20$for$u20$u16$GT$3fmt17h8f2cc3cce809fb58E
Ltmp2045:
	.loc	11 0 0 is_stmt 0
	movq	%r12, %r14
Ltmp2046:
	.loc	11 16 43
	testb	%al, %al
	jne	LBB59_8
Ltmp2047:
LBB59_3:
	.loc	7 1136 52 is_stmt 1
	cmpq	$4, %r14
Ltmp2048:
	.loc	8 505 9
	je	LBB59_7
Ltmp2049:
	.loc	11 13 24
	testq	%r14, %r14
	.loc	11 13 21 is_stmt 0
	je	LBB59_2
Ltmp2050:
	.loc	1 328 9 is_stmt 1
	movq	%r13, -88(%rbp)
	movq	$1, -80(%rbp)
	movq	$0, -72(%rbp)
Ltmp2051:
	leaq	l___unnamed_4(%rip), %rax
Ltmp2052:
	movq	%rax, -56(%rbp)
Ltmp2053:
	movq	$0, -48(%rbp)
Ltmp2054:
	.loc	11 14 25
	movq	%rbx, %rdi
	movq	%r15, %rsi
	callq	__ZN4core3fmt9Formatter9write_fmt17h742ca6aae87ad23cE
	.loc	11 14 40 is_stmt 0
	testb	%al, %al
	je	LBB59_2
Ltmp2055:
LBB59_8:
	.loc	11 0 40
	movb	$1, %cl
	jmp	LBB59_9
Ltmp2056:
LBB59_7:
	.loc	1 328 9 is_stmt 1
	leaq	l___unnamed_5(%rip), %rax
Ltmp2057:
	movq	%rax, -88(%rbp)
	movq	$1, -80(%rbp)
	movq	$0, -72(%rbp)
Ltmp2058:
	leaq	l___unnamed_4(%rip), %rax
Ltmp2059:
	movq	%rax, -56(%rbp)
	movq	$0, -48(%rbp)
	leaq	-88(%rbp), %rsi
Ltmp2060:
	.loc	11 18 17
	movq	%rbx, %rdi
	callq	__ZN4core3fmt9Formatter9write_fmt17h742ca6aae87ad23cE
Ltmp2061:
	movl	%eax, %ecx
Ltmp2062:
LBB59_9:
	.loc	11 19 14
	movl	%ecx, %eax
	addq	$104, %rsp
	popq	%rbx
Ltmp2063:
	popq	%r12
	popq	%r13
	popq	%r14
	popq	%r15
	popq	%rbp
	retq
Ltmp2064:
Lfunc_end59:
	.cfi_endproc

	.globl	__ZN11packed_simd3v64116_$LT$impl$u20$core..fmt..Debug$u20$for$u20$packed_simd..Simd$LT$$u5b$packed_simd..masks..m16$u3b$$u20$4$u5d$$GT$$GT$3fmt17h943540be9d103dfeE
	.p2align	4, 0x90
__ZN11packed_simd3v64116_$LT$impl$u20$core..fmt..Debug$u20$for$u20$packed_simd..Simd$LT$$u5b$packed_simd..masks..m16$u3b$$u20$4$u5d$$GT$$GT$3fmt17h943540be9d103dfeE:
Lfunc_begin60:
	.loc	3 49 0
	.cfi_startproc
	pushq	%rbp
	.cfi_def_cfa_offset 16
	.cfi_offset %rbp, -16
	movq	%rsp, %rbp
	.cfi_def_cfa_register %rbp
	pushq	%r15
	pushq	%r14
	pushq	%r13
	pushq	%r12
	pushq	%rbx
	subq	$104, %rsp
	.cfi_offset %rbx, -56
	.cfi_offset %r12, -48
	.cfi_offset %r13, -40
	.cfi_offset %r14, -32
	.cfi_offset %r15, -24
	movq	%rsi, %rbx
	movq	%rdi, %r15
Ltmp2065:
	.loc	3 52 17 prologue_end
	leaq	l___unnamed_19(%rip), %rax
	movq	%rax, -104(%rbp)
	leaq	__ZN44_$LT$$RF$T$u20$as$u20$core..fmt..Display$GT$3fmt17h189ab73c0bfea6d1E(%rip), %rax
	movq	%rax, -96(%rbp)
Ltmp2066:
	.loc	1 328 9
	leaq	l___unnamed_2(%rip), %rax
Ltmp2067:
	movq	%rax, -88(%rbp)
	movq	$2, -80(%rbp)
	movq	$0, -72(%rbp)
	leaq	-104(%rbp), %rax
Ltmp2068:
	movq	%rax, -56(%rbp)
	movq	$1, -48(%rbp)
	leaq	-88(%rbp), %rsi
Ltmp2069:
	.loc	3 52 17
	movq	%rbx, %rdi
	callq	__ZN4core3fmt9Formatter9write_fmt17h742ca6aae87ad23cE
	movb	$1, %cl
	.loc	3 52 50 is_stmt 0
	testb	%al, %al
	jne	LBB60_9
Ltmp2070:
	.loc	3 0 0
	movsd	(%r15), %xmm0
	movaps	%xmm0, -128(%rbp)
	xorl	%r14d, %r14d
	leaq	-88(%rbp), %r15
Ltmp2071:
	leaq	l___unnamed_3(%rip), %r13
	jmp	LBB60_3
Ltmp2072:
	.p2align	4, 0x90
LBB60_2:
	movaps	-128(%rbp), %xmm0
Ltmp2073:
	.loc	12 67 36 is_stmt 1
	movaps	%xmm0, -144(%rbp)
Ltmp2074:
	.loc	3 0 0 is_stmt 0
	leaq	1(%r14), %r12
Ltmp2075:
	.loc	12 67 36
	andl	$7, %r14d
Ltmp2076:
	.loc	12 68 17 is_stmt 1
	cmpw	$0, -144(%rbp,%r14,2)
Ltmp2077:
	.loc	3 57 21
	setne	-88(%rbp)
Ltmp2078:
	.loc	1 2052 9
	movq	%r15, %rdi
	movq	%rbx, %rsi
	callq	__ZN43_$LT$bool$u20$as$u20$core..fmt..Display$GT$3fmt17hd78396651a24cfbbE
Ltmp2079:
	.loc	3 0 0 is_stmt 0
	movq	%r12, %r14
Ltmp2080:
	.loc	3 57 43 is_stmt 1
	testb	%al, %al
	jne	LBB60_8
Ltmp2081:
LBB60_3:
	.loc	7 1136 52
	cmpq	$4, %r14
Ltmp2082:
	.loc	8 505 9
	je	LBB60_7
Ltmp2083:
	.loc	3 54 24
	testq	%r14, %r14
	.loc	3 54 21 is_stmt 0
	je	LBB60_2
Ltmp2084:
	.loc	1 328 9 is_stmt 1
	movq	%r13, -88(%rbp)
	movq	$1, -80(%rbp)
	movq	$0, -72(%rbp)
Ltmp2085:
	leaq	l___unnamed_4(%rip), %rax
Ltmp2086:
	movq	%rax, -56(%rbp)
Ltmp2087:
	movq	$0, -48(%rbp)
Ltmp2088:
	.loc	3 55 25
	movq	%rbx, %rdi
	movq	%r15, %rsi
	callq	__ZN4core3fmt9Formatter9write_fmt17h742ca6aae87ad23cE
	.loc	3 55 40 is_stmt 0
	testb	%al, %al
	je	LBB60_2
Ltmp2089:
LBB60_8:
	.loc	3 0 40
	movb	$1, %cl
	jmp	LBB60_9
Ltmp2090:
LBB60_7:
	.loc	1 328 9 is_stmt 1
	leaq	l___unnamed_5(%rip), %rax
Ltmp2091:
	movq	%rax, -88(%rbp)
	movq	$1, -80(%rbp)
	movq	$0, -72(%rbp)
Ltmp2092:
	leaq	l___unnamed_4(%rip), %rax
Ltmp2093:
	movq	%rax, -56(%rbp)
	movq	$0, -48(%rbp)
	leaq	-88(%rbp), %rsi
Ltmp2094:
	.loc	3 59 17
	movq	%rbx, %rdi
	callq	__ZN4core3fmt9Formatter9write_fmt17h742ca6aae87ad23cE
Ltmp2095:
	movl	%eax, %ecx
Ltmp2096:
LBB60_9:
	.loc	3 60 14
	movl	%ecx, %eax
	addq	$104, %rsp
	popq	%rbx
Ltmp2097:
	popq	%r12
	popq	%r13
	popq	%r14
	popq	%r15
	popq	%rbp
	retq
Ltmp2098:
Lfunc_end60:
	.cfi_endproc

	.globl	__ZN11packed_simd3v6496_$LT$impl$u20$core..fmt..Debug$u20$for$u20$packed_simd..Simd$LT$$u5b$i32$u3b$$u20$2$u5d$$GT$$GT$3fmt17hf9087fa27c9ac594E
	.p2align	4, 0x90
__ZN11packed_simd3v6496_$LT$impl$u20$core..fmt..Debug$u20$for$u20$packed_simd..Simd$LT$$u5b$i32$u3b$$u20$2$u5d$$GT$$GT$3fmt17hf9087fa27c9ac594E:
Lfunc_begin61:
	.loc	3 49 0
	.cfi_startproc
	pushq	%rbp
	.cfi_def_cfa_offset 16
	.cfi_offset %rbp, -16
	movq	%rsp, %rbp
	.cfi_def_cfa_register %rbp
	pushq	%r15
	pushq	%r14
	pushq	%rbx
	subq	$88, %rsp
	.cfi_offset %rbx, -40
	.cfi_offset %r14, -32
	.cfi_offset %r15, -24
	movq	%rsi, %r15
	movq	%rdi, %rbx
Ltmp2099:
	.loc	3 52 17 prologue_end
	leaq	l___unnamed_20(%rip), %rax
	movq	%rax, -88(%rbp)
	leaq	__ZN44_$LT$$RF$T$u20$as$u20$core..fmt..Display$GT$3fmt17h189ab73c0bfea6d1E(%rip), %rax
	movq	%rax, -80(%rbp)
Ltmp2100:
	.loc	1 328 9
	leaq	l___unnamed_2(%rip), %rax
Ltmp2101:
	movq	%rax, -72(%rbp)
	movq	$2, -64(%rbp)
	movq	$0, -56(%rbp)
	leaq	-88(%rbp), %rax
Ltmp2102:
	movq	%rax, -40(%rbp)
	movq	$1, -32(%rbp)
	leaq	-72(%rbp), %rsi
Ltmp2103:
	.loc	3 52 17
	movq	%r15, %rdi
	callq	__ZN4core3fmt9Formatter9write_fmt17h742ca6aae87ad23cE
	movb	$1, %r14b
	.loc	3 52 50 is_stmt 0
	testb	%al, %al
	jne	LBB61_12
Ltmp2104:
	.loc	3 0 0
	movq	(%rbx), %xmm0
Ltmp2105:
	movdqa	%xmm0, -112(%rbp)
	.loc	3 57 21 is_stmt 1
	movd	%xmm0, -72(%rbp)
Ltmp2106:
	.loc	4 149 20
	movq	%r15, %rdi
	callq	__ZN4core3fmt9Formatter15debug_lower_hex17hd07f6fde8d0365dfE
	.loc	4 149 17 is_stmt 0
	testb	%al, %al
	je	LBB61_2
Ltmp2107:
	.loc	4 0 17
	leaq	-72(%rbp), %rdi
	.loc	4 150 21 is_stmt 1
	movq	%r15, %rsi
	callq	__ZN4core3fmt3num53_$LT$impl$u20$core..fmt..LowerHex$u20$for$u20$i32$GT$3fmt17hb7ffbd061f7948a2E
Ltmp2108:
	.loc	3 57 43
	testb	%al, %al
	je	LBB61_6
	jmp	LBB61_12
Ltmp2109:
LBB61_2:
	.loc	4 151 27
	movq	%r15, %rdi
	callq	__ZN4core3fmt9Formatter15debug_upper_hex17hf480c256a9c81c1eE
	leaq	-72(%rbp), %rdi
	.loc	4 154 21
	movq	%r15, %rsi
	.loc	4 151 24
	testb	%al, %al
	je	LBB61_4
Ltmp2110:
	.loc	4 152 21
	callq	__ZN4core3fmt3num53_$LT$impl$u20$core..fmt..UpperHex$u20$for$u20$i32$GT$3fmt17hbb8d8cd7e36208d7E
Ltmp2111:
	.loc	3 57 43
	testb	%al, %al
	je	LBB61_6
	jmp	LBB61_12
Ltmp2112:
LBB61_4:
	.loc	4 154 21
	callq	__ZN4core3fmt3num3imp52_$LT$impl$u20$core..fmt..Display$u20$for$u20$i32$GT$3fmt17h00ed7ff77f9da654E
Ltmp2113:
	.loc	3 57 43
	testb	%al, %al
	jne	LBB61_12
Ltmp2114:
LBB61_6:
	.loc	1 328 9
	leaq	l___unnamed_3(%rip), %rax
Ltmp2115:
	movq	%rax, -72(%rbp)
	movq	$1, -64(%rbp)
	movq	$0, -56(%rbp)
	leaq	l___unnamed_4(%rip), %rbx
Ltmp2116:
	movq	%rbx, -40(%rbp)
	movq	$0, -32(%rbp)
	leaq	-72(%rbp), %rsi
Ltmp2117:
	.loc	3 55 25
	movq	%r15, %rdi
	callq	__ZN4core3fmt9Formatter9write_fmt17h742ca6aae87ad23cE
Ltmp2118:
	.loc	3 55 40 is_stmt 0
	testb	%al, %al
	jne	LBB61_12
Ltmp2119:
	.loc	5 63 36 is_stmt 1
	pshufd	$229, -112(%rbp), %xmm0
Ltmp2120:
	.loc	3 57 21
	movd	%xmm0, -72(%rbp)
Ltmp2121:
	.loc	4 149 20
	movq	%r15, %rdi
	callq	__ZN4core3fmt9Formatter15debug_lower_hex17hd07f6fde8d0365dfE
	.loc	4 149 17 is_stmt 0
	testb	%al, %al
	je	LBB61_8
Ltmp2122:
	.loc	4 0 17
	leaq	-72(%rbp), %rdi
	.loc	4 150 21 is_stmt 1
	movq	%r15, %rsi
	callq	__ZN4core3fmt3num53_$LT$impl$u20$core..fmt..LowerHex$u20$for$u20$i32$GT$3fmt17hb7ffbd061f7948a2E
	jmp	LBB61_10
Ltmp2123:
LBB61_8:
	.loc	4 151 27
	movq	%r15, %rdi
	callq	__ZN4core3fmt9Formatter15debug_upper_hex17hf480c256a9c81c1eE
	leaq	-72(%rbp), %rdi
	.loc	4 152 21
	movq	%r15, %rsi
	.loc	4 151 24
	testb	%al, %al
	je	LBB61_9
Ltmp2124:
	.loc	4 152 21
	callq	__ZN4core3fmt3num53_$LT$impl$u20$core..fmt..UpperHex$u20$for$u20$i32$GT$3fmt17hbb8d8cd7e36208d7E
	jmp	LBB61_10
Ltmp2125:
LBB61_9:
	.loc	4 154 21
	callq	__ZN4core3fmt3num3imp52_$LT$impl$u20$core..fmt..Display$u20$for$u20$i32$GT$3fmt17h00ed7ff77f9da654E
Ltmp2126:
LBB61_10:
	.loc	3 57 43
	testb	%al, %al
	jne	LBB61_12
Ltmp2127:
	.loc	1 328 9
	leaq	l___unnamed_5(%rip), %rax
Ltmp2128:
	movq	%rax, -72(%rbp)
	movq	$1, -64(%rbp)
	movq	$0, -56(%rbp)
Ltmp2129:
	movq	%rbx, -40(%rbp)
	movq	$0, -32(%rbp)
	leaq	-72(%rbp), %rsi
Ltmp2130:
	.loc	3 59 17
	movq	%r15, %rdi
	callq	__ZN4core3fmt9Formatter9write_fmt17h742ca6aae87ad23cE
Ltmp2131:
	movl	%eax, %r14d
Ltmp2132:
LBB61_12:
	.loc	3 60 14
	movl	%r14d, %eax
	addq	$88, %rsp
	popq	%rbx
	popq	%r14
	popq	%r15
Ltmp2133:
	popq	%rbp
	retq
Ltmp2134:
Lfunc_end61:
	.cfi_endproc

	.globl	__ZN11packed_simd3v6499_$LT$impl$u20$core..fmt..LowerHex$u20$for$u20$packed_simd..Simd$LT$$u5b$i32$u3b$$u20$2$u5d$$GT$$GT$3fmt17hc0fe0e4c7e14532cE
	.p2align	4, 0x90
__ZN11packed_simd3v6499_$LT$impl$u20$core..fmt..LowerHex$u20$for$u20$packed_simd..Simd$LT$$u5b$i32$u3b$$u20$2$u5d$$GT$$GT$3fmt17hc0fe0e4c7e14532cE:
Lfunc_begin62:
	.loc	6 9 0
	.cfi_startproc
	pushq	%rbp
	.cfi_def_cfa_offset 16
	.cfi_offset %rbp, -16
	movq	%rsp, %rbp
	.cfi_def_cfa_register %rbp
	pushq	%r15
	pushq	%r14
	pushq	%r13
	pushq	%r12
	pushq	%rbx
	subq	$104, %rsp
	.cfi_offset %rbx, -56
	.cfi_offset %r12, -48
	.cfi_offset %r13, -40
	.cfi_offset %r14, -32
	.cfi_offset %r15, -24
	movq	%rsi, %rbx
	movq	%rdi, %r15
Ltmp2135:
	.loc	6 11 17 prologue_end
	leaq	l___unnamed_20(%rip), %rax
	movq	%rax, -104(%rbp)
	leaq	__ZN44_$LT$$RF$T$u20$as$u20$core..fmt..Display$GT$3fmt17h189ab73c0bfea6d1E(%rip), %rax
	movq	%rax, -96(%rbp)
Ltmp2136:
	.loc	1 328 9
	leaq	l___unnamed_2(%rip), %rax
Ltmp2137:
	movq	%rax, -88(%rbp)
	movq	$2, -80(%rbp)
	movq	$0, -72(%rbp)
	leaq	-104(%rbp), %rax
Ltmp2138:
	movq	%rax, -56(%rbp)
	movq	$1, -48(%rbp)
	leaq	-88(%rbp), %rsi
Ltmp2139:
	.loc	6 11 17
	movq	%rbx, %rdi
	callq	__ZN4core3fmt9Formatter9write_fmt17h742ca6aae87ad23cE
	movb	$1, %cl
	.loc	6 11 50 is_stmt 0
	testb	%al, %al
	jne	LBB62_9
Ltmp2140:
	.loc	6 0 0
	movsd	(%r15), %xmm0
	movaps	%xmm0, -128(%rbp)
	xorl	%r14d, %r14d
	leaq	-88(%rbp), %r15
Ltmp2141:
	leaq	l___unnamed_3(%rip), %r13
	jmp	LBB62_3
Ltmp2142:
	.p2align	4, 0x90
LBB62_2:
	movaps	-128(%rbp), %xmm0
Ltmp2143:
	.loc	5 63 36 is_stmt 1
	movaps	%xmm0, -144(%rbp)
Ltmp2144:
	.loc	6 0 0 is_stmt 0
	leaq	1(%r14), %r12
Ltmp2145:
	.loc	5 63 36
	andl	$3, %r14d
Ltmp2146:
	movl	-144(%rbp,%r14,4), %eax
Ltmp2147:
	.loc	6 16 21 is_stmt 1
	movl	%eax, -88(%rbp)
	movq	%r15, %rdi
	movq	%rbx, %rsi
	callq	__ZN4core3fmt3num53_$LT$impl$u20$core..fmt..LowerHex$u20$for$u20$i32$GT$3fmt17hb7ffbd061f7948a2E
Ltmp2148:
	.loc	6 0 0 is_stmt 0
	movq	%r12, %r14
Ltmp2149:
	.loc	6 16 43
	testb	%al, %al
	jne	LBB62_8
Ltmp2150:
LBB62_3:
	.loc	7 1136 52 is_stmt 1
	cmpq	$2, %r14
Ltmp2151:
	.loc	8 505 9
	je	LBB62_7
Ltmp2152:
	.loc	6 13 24
	testq	%r14, %r14
	.loc	6 13 21 is_stmt 0
	je	LBB62_2
Ltmp2153:
	.loc	1 328 9 is_stmt 1
	movq	%r13, -88(%rbp)
	movq	$1, -80(%rbp)
	movq	$0, -72(%rbp)
Ltmp2154:
	leaq	l___unnamed_4(%rip), %rax
Ltmp2155:
	movq	%rax, -56(%rbp)
Ltmp2156:
	movq	$0, -48(%rbp)
Ltmp2157:
	.loc	6 14 25
	movq	%rbx, %rdi
	movq	%r15, %rsi
	callq	__ZN4core3fmt9Formatter9write_fmt17h742ca6aae87ad23cE
	.loc	6 14 40 is_stmt 0
	testb	%al, %al
	je	LBB62_2
Ltmp2158:
LBB62_8:
	.loc	6 0 40
	movb	$1, %cl
	jmp	LBB62_9
Ltmp2159:
LBB62_7:
	.loc	1 328 9 is_stmt 1
	leaq	l___unnamed_5(%rip), %rax
Ltmp2160:
	movq	%rax, -88(%rbp)
	movq	$1, -80(%rbp)
	movq	$0, -72(%rbp)
Ltmp2161:
	leaq	l___unnamed_4(%rip), %rax
Ltmp2162:
	movq	%rax, -56(%rbp)
	movq	$0, -48(%rbp)
	leaq	-88(%rbp), %rsi
Ltmp2163:
	.loc	6 18 17
	movq	%rbx, %rdi
	callq	__ZN4core3fmt9Formatter9write_fmt17h742ca6aae87ad23cE
Ltmp2164:
	movl	%eax, %ecx
Ltmp2165:
LBB62_9:
	.loc	6 19 14
	movl	%ecx, %eax
	addq	$104, %rsp
	popq	%rbx
Ltmp2166:
	popq	%r12
	popq	%r13
	popq	%r14
	popq	%r15
	popq	%rbp
	retq
Ltmp2167:
Lfunc_end62:
	.cfi_endproc

	.globl	__ZN11packed_simd3v6499_$LT$impl$u20$core..fmt..UpperHex$u20$for$u20$packed_simd..Simd$LT$$u5b$i32$u3b$$u20$2$u5d$$GT$$GT$3fmt17h0c6d3c13aaad5dccE
	.p2align	4, 0x90
__ZN11packed_simd3v6499_$LT$impl$u20$core..fmt..UpperHex$u20$for$u20$packed_simd..Simd$LT$$u5b$i32$u3b$$u20$2$u5d$$GT$$GT$3fmt17h0c6d3c13aaad5dccE:
Lfunc_begin63:
	.loc	9 9 0
	.cfi_startproc
	pushq	%rbp
	.cfi_def_cfa_offset 16
	.cfi_offset %rbp, -16
	movq	%rsp, %rbp
	.cfi_def_cfa_register %rbp
	pushq	%r15
	pushq	%r14
	pushq	%r13
	pushq	%r12
	pushq	%rbx
	subq	$104, %rsp
	.cfi_offset %rbx, -56
	.cfi_offset %r12, -48
	.cfi_offset %r13, -40
	.cfi_offset %r14, -32
	.cfi_offset %r15, -24
	movq	%rsi, %rbx
	movq	%rdi, %r15
Ltmp2168:
	.loc	9 11 17 prologue_end
	leaq	l___unnamed_20(%rip), %rax
	movq	%rax, -104(%rbp)
	leaq	__ZN44_$LT$$RF$T$u20$as$u20$core..fmt..Display$GT$3fmt17h189ab73c0bfea6d1E(%rip), %rax
	movq	%rax, -96(%rbp)
Ltmp2169:
	.loc	1 328 9
	leaq	l___unnamed_2(%rip), %rax
Ltmp2170:
	movq	%rax, -88(%rbp)
	movq	$2, -80(%rbp)
	movq	$0, -72(%rbp)
	leaq	-104(%rbp), %rax
Ltmp2171:
	movq	%rax, -56(%rbp)
	movq	$1, -48(%rbp)
	leaq	-88(%rbp), %rsi
Ltmp2172:
	.loc	9 11 17
	movq	%rbx, %rdi
	callq	__ZN4core3fmt9Formatter9write_fmt17h742ca6aae87ad23cE
	movb	$1, %cl
	.loc	9 11 50 is_stmt 0
	testb	%al, %al
	jne	LBB63_9
Ltmp2173:
	.loc	9 0 0
	movsd	(%r15), %xmm0
	movaps	%xmm0, -128(%rbp)
	xorl	%r14d, %r14d
	leaq	-88(%rbp), %r15
Ltmp2174:
	leaq	l___unnamed_3(%rip), %r13
	jmp	LBB63_3
Ltmp2175:
	.p2align	4, 0x90
LBB63_2:
	movaps	-128(%rbp), %xmm0
Ltmp2176:
	.loc	5 63 36 is_stmt 1
	movaps	%xmm0, -144(%rbp)
Ltmp2177:
	.loc	9 0 0 is_stmt 0
	leaq	1(%r14), %r12
Ltmp2178:
	.loc	5 63 36
	andl	$3, %r14d
Ltmp2179:
	movl	-144(%rbp,%r14,4), %eax
Ltmp2180:
	.loc	9 16 21 is_stmt 1
	movl	%eax, -88(%rbp)
	movq	%r15, %rdi
	movq	%rbx, %rsi
	callq	__ZN4core3fmt3num53_$LT$impl$u20$core..fmt..UpperHex$u20$for$u20$i32$GT$3fmt17hbb8d8cd7e36208d7E
Ltmp2181:
	.loc	9 0 0 is_stmt 0
	movq	%r12, %r14
Ltmp2182:
	.loc	9 16 43
	testb	%al, %al
	jne	LBB63_8
Ltmp2183:
LBB63_3:
	.loc	7 1136 52 is_stmt 1
	cmpq	$2, %r14
Ltmp2184:
	.loc	8 505 9
	je	LBB63_7
Ltmp2185:
	.loc	9 13 24
	testq	%r14, %r14
	.loc	9 13 21 is_stmt 0
	je	LBB63_2
Ltmp2186:
	.loc	1 328 9 is_stmt 1
	movq	%r13, -88(%rbp)
	movq	$1, -80(%rbp)
	movq	$0, -72(%rbp)
Ltmp2187:
	leaq	l___unnamed_4(%rip), %rax
Ltmp2188:
	movq	%rax, -56(%rbp)
Ltmp2189:
	movq	$0, -48(%rbp)
Ltmp2190:
	.loc	9 14 25
	movq	%rbx, %rdi
	movq	%r15, %rsi
	callq	__ZN4core3fmt9Formatter9write_fmt17h742ca6aae87ad23cE
	.loc	9 14 40 is_stmt 0
	testb	%al, %al
	je	LBB63_2
Ltmp2191:
LBB63_8:
	.loc	9 0 40
	movb	$1, %cl
	jmp	LBB63_9
Ltmp2192:
LBB63_7:
	.loc	1 328 9 is_stmt 1
	leaq	l___unnamed_5(%rip), %rax
Ltmp2193:
	movq	%rax, -88(%rbp)
	movq	$1, -80(%rbp)
	movq	$0, -72(%rbp)
Ltmp2194:
	leaq	l___unnamed_4(%rip), %rax
Ltmp2195:
	movq	%rax, -56(%rbp)
	movq	$0, -48(%rbp)
	leaq	-88(%rbp), %rsi
Ltmp2196:
	.loc	9 18 17
	movq	%rbx, %rdi
	callq	__ZN4core3fmt9Formatter9write_fmt17h742ca6aae87ad23cE
Ltmp2197:
	movl	%eax, %ecx
Ltmp2198:
LBB63_9:
	.loc	9 19 14
	movl	%ecx, %eax
	addq	$104, %rsp
	popq	%rbx
Ltmp2199:
	popq	%r12
	popq	%r13
	popq	%r14
	popq	%r15
	popq	%rbp
	retq
Ltmp2200:
Lfunc_end63:
	.cfi_endproc

	.globl	__ZN11packed_simd3v6496_$LT$impl$u20$core..fmt..Octal$u20$for$u20$packed_simd..Simd$LT$$u5b$i32$u3b$$u20$2$u5d$$GT$$GT$3fmt17h4c12cdbd1f80f0c8E
	.p2align	4, 0x90
__ZN11packed_simd3v6496_$LT$impl$u20$core..fmt..Octal$u20$for$u20$packed_simd..Simd$LT$$u5b$i32$u3b$$u20$2$u5d$$GT$$GT$3fmt17h4c12cdbd1f80f0c8E:
Lfunc_begin64:
	.loc	10 9 0
	.cfi_startproc
	pushq	%rbp
	.cfi_def_cfa_offset 16
	.cfi_offset %rbp, -16
	movq	%rsp, %rbp
	.cfi_def_cfa_register %rbp
	pushq	%r15
	pushq	%r14
	pushq	%r13
	pushq	%r12
	pushq	%rbx
	subq	$104, %rsp
	.cfi_offset %rbx, -56
	.cfi_offset %r12, -48
	.cfi_offset %r13, -40
	.cfi_offset %r14, -32
	.cfi_offset %r15, -24
	movq	%rsi, %rbx
	movq	%rdi, %r15
Ltmp2201:
	.loc	10 11 17 prologue_end
	leaq	l___unnamed_20(%rip), %rax
	movq	%rax, -104(%rbp)
	leaq	__ZN44_$LT$$RF$T$u20$as$u20$core..fmt..Display$GT$3fmt17h189ab73c0bfea6d1E(%rip), %rax
	movq	%rax, -96(%rbp)
Ltmp2202:
	.loc	1 328 9
	leaq	l___unnamed_2(%rip), %rax
Ltmp2203:
	movq	%rax, -88(%rbp)
	movq	$2, -80(%rbp)
	movq	$0, -72(%rbp)
	leaq	-104(%rbp), %rax
Ltmp2204:
	movq	%rax, -56(%rbp)
	movq	$1, -48(%rbp)
	leaq	-88(%rbp), %rsi
Ltmp2205:
	.loc	10 11 17
	movq	%rbx, %rdi
	callq	__ZN4core3fmt9Formatter9write_fmt17h742ca6aae87ad23cE
	movb	$1, %cl
	.loc	10 11 50 is_stmt 0
	testb	%al, %al
	jne	LBB64_9
Ltmp2206:
	.loc	10 0 0
	movsd	(%r15), %xmm0
	movaps	%xmm0, -128(%rbp)
	xorl	%r14d, %r14d
	leaq	-88(%rbp), %r15
Ltmp2207:
	leaq	l___unnamed_3(%rip), %r13
	jmp	LBB64_3
Ltmp2208:
	.p2align	4, 0x90
LBB64_2:
	movaps	-128(%rbp), %xmm0
Ltmp2209:
	.loc	5 63 36 is_stmt 1
	movaps	%xmm0, -144(%rbp)
Ltmp2210:
	.loc	10 0 0 is_stmt 0
	leaq	1(%r14), %r12
Ltmp2211:
	.loc	5 63 36
	andl	$3, %r14d
Ltmp2212:
	movl	-144(%rbp,%r14,4), %eax
Ltmp2213:
	.loc	10 16 21 is_stmt 1
	movl	%eax, -88(%rbp)
	movq	%r15, %rdi
	movq	%rbx, %rsi
	callq	__ZN4core3fmt3num50_$LT$impl$u20$core..fmt..Octal$u20$for$u20$i32$GT$3fmt17hacb618861fa6ae75E
Ltmp2214:
	.loc	10 0 0 is_stmt 0
	movq	%r12, %r14
Ltmp2215:
	.loc	10 16 43
	testb	%al, %al
	jne	LBB64_8
Ltmp2216:
LBB64_3:
	.loc	7 1136 52 is_stmt 1
	cmpq	$2, %r14
Ltmp2217:
	.loc	8 505 9
	je	LBB64_7
Ltmp2218:
	.loc	10 13 24
	testq	%r14, %r14
	.loc	10 13 21 is_stmt 0
	je	LBB64_2
Ltmp2219:
	.loc	1 328 9 is_stmt 1
	movq	%r13, -88(%rbp)
	movq	$1, -80(%rbp)
	movq	$0, -72(%rbp)
Ltmp2220:
	leaq	l___unnamed_4(%rip), %rax
Ltmp2221:
	movq	%rax, -56(%rbp)
Ltmp2222:
	movq	$0, -48(%rbp)
Ltmp2223:
	.loc	10 14 25
	movq	%rbx, %rdi
	movq	%r15, %rsi
	callq	__ZN4core3fmt9Formatter9write_fmt17h742ca6aae87ad23cE
	.loc	10 14 40 is_stmt 0
	testb	%al, %al
	je	LBB64_2
Ltmp2224:
LBB64_8:
	.loc	10 0 40
	movb	$1, %cl
	jmp	LBB64_9
Ltmp2225:
LBB64_7:
	.loc	1 328 9 is_stmt 1
	leaq	l___unnamed_5(%rip), %rax
Ltmp2226:
	movq	%rax, -88(%rbp)
	movq	$1, -80(%rbp)
	movq	$0, -72(%rbp)
Ltmp2227:
	leaq	l___unnamed_4(%rip), %rax
Ltmp2228:
	movq	%rax, -56(%rbp)
	movq	$0, -48(%rbp)
	leaq	-88(%rbp), %rsi
Ltmp2229:
	.loc	10 18 17
	movq	%rbx, %rdi
	callq	__ZN4core3fmt9Formatter9write_fmt17h742ca6aae87ad23cE
Ltmp2230:
	movl	%eax, %ecx
Ltmp2231:
LBB64_9:
	.loc	10 19 14
	movl	%ecx, %eax
	addq	$104, %rsp
	popq	%rbx
Ltmp2232:
	popq	%r12
	popq	%r13
	popq	%r14
	popq	%r15
	popq	%rbp
	retq
Ltmp2233:
Lfunc_end64:
	.cfi_endproc

	.globl	__ZN11packed_simd3v6497_$LT$impl$u20$core..fmt..Binary$u20$for$u20$packed_simd..Simd$LT$$u5b$i32$u3b$$u20$2$u5d$$GT$$GT$3fmt17hae02f7279bf4a69cE
	.p2align	4, 0x90
__ZN11packed_simd3v6497_$LT$impl$u20$core..fmt..Binary$u20$for$u20$packed_simd..Simd$LT$$u5b$i32$u3b$$u20$2$u5d$$GT$$GT$3fmt17hae02f7279bf4a69cE:
Lfunc_begin65:
	.loc	11 9 0
	.cfi_startproc
	pushq	%rbp
	.cfi_def_cfa_offset 16
	.cfi_offset %rbp, -16
	movq	%rsp, %rbp
	.cfi_def_cfa_register %rbp
	pushq	%r15
	pushq	%r14
	pushq	%r13
	pushq	%r12
	pushq	%rbx
	subq	$104, %rsp
	.cfi_offset %rbx, -56
	.cfi_offset %r12, -48
	.cfi_offset %r13, -40
	.cfi_offset %r14, -32
	.cfi_offset %r15, -24
	movq	%rsi, %rbx
	movq	%rdi, %r15
Ltmp2234:
	.loc	11 11 17 prologue_end
	leaq	l___unnamed_20(%rip), %rax
	movq	%rax, -104(%rbp)
	leaq	__ZN44_$LT$$RF$T$u20$as$u20$core..fmt..Display$GT$3fmt17h189ab73c0bfea6d1E(%rip), %rax
	movq	%rax, -96(%rbp)
Ltmp2235:
	.loc	1 328 9
	leaq	l___unnamed_2(%rip), %rax
Ltmp2236:
	movq	%rax, -88(%rbp)
	movq	$2, -80(%rbp)
	movq	$0, -72(%rbp)
	leaq	-104(%rbp), %rax
Ltmp2237:
	movq	%rax, -56(%rbp)
	movq	$1, -48(%rbp)
	leaq	-88(%rbp), %rsi
Ltmp2238:
	.loc	11 11 17
	movq	%rbx, %rdi
	callq	__ZN4core3fmt9Formatter9write_fmt17h742ca6aae87ad23cE
	movb	$1, %cl
	.loc	11 11 50 is_stmt 0
	testb	%al, %al
	jne	LBB65_9
Ltmp2239:
	.loc	11 0 0
	movsd	(%r15), %xmm0
	movaps	%xmm0, -128(%rbp)
	xorl	%r14d, %r14d
	leaq	-88(%rbp), %r15
Ltmp2240:
	leaq	l___unnamed_3(%rip), %r13
	jmp	LBB65_3
Ltmp2241:
	.p2align	4, 0x90
LBB65_2:
	movaps	-128(%rbp), %xmm0
Ltmp2242:
	.loc	5 63 36 is_stmt 1
	movaps	%xmm0, -144(%rbp)
Ltmp2243:
	.loc	11 0 0 is_stmt 0
	leaq	1(%r14), %r12
Ltmp2244:
	.loc	5 63 36
	andl	$3, %r14d
Ltmp2245:
	movl	-144(%rbp,%r14,4), %eax
Ltmp2246:
	.loc	11 16 21 is_stmt 1
	movl	%eax, -88(%rbp)
	movq	%r15, %rdi
	movq	%rbx, %rsi
	callq	__ZN4core3fmt3num51_$LT$impl$u20$core..fmt..Binary$u20$for$u20$i32$GT$3fmt17h7b899db2942c8b1cE
Ltmp2247:
	.loc	11 0 0 is_stmt 0
	movq	%r12, %r14
Ltmp2248:
	.loc	11 16 43
	testb	%al, %al
	jne	LBB65_8
Ltmp2249:
LBB65_3:
	.loc	7 1136 52 is_stmt 1
	cmpq	$2, %r14
Ltmp2250:
	.loc	8 505 9
	je	LBB65_7
Ltmp2251:
	.loc	11 13 24
	testq	%r14, %r14
	.loc	11 13 21 is_stmt 0
	je	LBB65_2
Ltmp2252:
	.loc	1 328 9 is_stmt 1
	movq	%r13, -88(%rbp)
	movq	$1, -80(%rbp)
	movq	$0, -72(%rbp)
Ltmp2253:
	leaq	l___unnamed_4(%rip), %rax
Ltmp2254:
	movq	%rax, -56(%rbp)
Ltmp2255:
	movq	$0, -48(%rbp)
Ltmp2256:
	.loc	11 14 25
	movq	%rbx, %rdi
	movq	%r15, %rsi
	callq	__ZN4core3fmt9Formatter9write_fmt17h742ca6aae87ad23cE
	.loc	11 14 40 is_stmt 0
	testb	%al, %al
	je	LBB65_2
Ltmp2257:
LBB65_8:
	.loc	11 0 40
	movb	$1, %cl
	jmp	LBB65_9
Ltmp2258:
LBB65_7:
	.loc	1 328 9 is_stmt 1
	leaq	l___unnamed_5(%rip), %rax
Ltmp2259:
	movq	%rax, -88(%rbp)
	movq	$1, -80(%rbp)
	movq	$0, -72(%rbp)
Ltmp2260:
	leaq	l___unnamed_4(%rip), %rax
Ltmp2261:
	movq	%rax, -56(%rbp)
	movq	$0, -48(%rbp)
	leaq	-88(%rbp), %rsi
Ltmp2262:
	.loc	11 18 17
	movq	%rbx, %rdi
	callq	__ZN4core3fmt9Formatter9write_fmt17h742ca6aae87ad23cE
Ltmp2263:
	movl	%eax, %ecx
Ltmp2264:
LBB65_9:
	.loc	11 19 14
	movl	%ecx, %eax
	addq	$104, %rsp
	popq	%rbx
Ltmp2265:
	popq	%r12
	popq	%r13
	popq	%r14
	popq	%r15
	popq	%rbp
	retq
Ltmp2266:
Lfunc_end65:
	.cfi_endproc

	.globl	__ZN11packed_simd3v6496_$LT$impl$u20$core..fmt..Debug$u20$for$u20$packed_simd..Simd$LT$$u5b$u32$u3b$$u20$2$u5d$$GT$$GT$3fmt17h19348b0d7ee3f32aE
	.p2align	4, 0x90
__ZN11packed_simd3v6496_$LT$impl$u20$core..fmt..Debug$u20$for$u20$packed_simd..Simd$LT$$u5b$u32$u3b$$u20$2$u5d$$GT$$GT$3fmt17h19348b0d7ee3f32aE:
Lfunc_begin66:
	.loc	3 49 0
	.cfi_startproc
	pushq	%rbp
	.cfi_def_cfa_offset 16
	.cfi_offset %rbp, -16
	movq	%rsp, %rbp
	.cfi_def_cfa_register %rbp
	pushq	%r15
	pushq	%r14
	pushq	%rbx
	subq	$88, %rsp
	.cfi_offset %rbx, -40
	.cfi_offset %r14, -32
	.cfi_offset %r15, -24
	movq	%rsi, %r15
	movq	%rdi, %rbx
Ltmp2267:
	.loc	3 52 17 prologue_end
	leaq	l___unnamed_21(%rip), %rax
	movq	%rax, -88(%rbp)
	leaq	__ZN44_$LT$$RF$T$u20$as$u20$core..fmt..Display$GT$3fmt17h189ab73c0bfea6d1E(%rip), %rax
	movq	%rax, -80(%rbp)
Ltmp2268:
	.loc	1 328 9
	leaq	l___unnamed_2(%rip), %rax
Ltmp2269:
	movq	%rax, -72(%rbp)
	movq	$2, -64(%rbp)
	movq	$0, -56(%rbp)
	leaq	-88(%rbp), %rax
Ltmp2270:
	movq	%rax, -40(%rbp)
	movq	$1, -32(%rbp)
	leaq	-72(%rbp), %rsi
Ltmp2271:
	.loc	3 52 17
	movq	%r15, %rdi
	callq	__ZN4core3fmt9Formatter9write_fmt17h742ca6aae87ad23cE
	movb	$1, %r14b
	.loc	3 52 50 is_stmt 0
	testb	%al, %al
	jne	LBB66_12
Ltmp2272:
	.loc	3 0 0
	movq	(%rbx), %xmm0
Ltmp2273:
	movdqa	%xmm0, -112(%rbp)
	.loc	3 57 21 is_stmt 1
	movd	%xmm0, -72(%rbp)
Ltmp2274:
	.loc	4 149 20
	movq	%r15, %rdi
	callq	__ZN4core3fmt9Formatter15debug_lower_hex17hd07f6fde8d0365dfE
	.loc	4 149 17 is_stmt 0
	testb	%al, %al
	je	LBB66_2
Ltmp2275:
	.loc	4 0 17
	leaq	-72(%rbp), %rdi
	.loc	4 150 21 is_stmt 1
	movq	%r15, %rsi
	callq	__ZN4core3fmt3num53_$LT$impl$u20$core..fmt..LowerHex$u20$for$u20$u32$GT$3fmt17h019ba2b9dd60d385E
Ltmp2276:
	.loc	3 57 43
	testb	%al, %al
	je	LBB66_6
	jmp	LBB66_12
Ltmp2277:
LBB66_2:
	.loc	4 151 27
	movq	%r15, %rdi
	callq	__ZN4core3fmt9Formatter15debug_upper_hex17hf480c256a9c81c1eE
	leaq	-72(%rbp), %rdi
	.loc	4 154 21
	movq	%r15, %rsi
	.loc	4 151 24
	testb	%al, %al
	je	LBB66_4
Ltmp2278:
	.loc	4 152 21
	callq	__ZN4core3fmt3num53_$LT$impl$u20$core..fmt..UpperHex$u20$for$u20$u32$GT$3fmt17h7bd10b5f3c9584f1E
Ltmp2279:
	.loc	3 57 43
	testb	%al, %al
	je	LBB66_6
	jmp	LBB66_12
Ltmp2280:
LBB66_4:
	.loc	4 154 21
	callq	__ZN4core3fmt3num3imp52_$LT$impl$u20$core..fmt..Display$u20$for$u20$u32$GT$3fmt17hb70882cf65fd1a66E
Ltmp2281:
	.loc	3 57 43
	testb	%al, %al
	jne	LBB66_12
Ltmp2282:
LBB66_6:
	.loc	1 328 9
	leaq	l___unnamed_3(%rip), %rax
Ltmp2283:
	movq	%rax, -72(%rbp)
	movq	$1, -64(%rbp)
	movq	$0, -56(%rbp)
	leaq	l___unnamed_4(%rip), %rbx
Ltmp2284:
	movq	%rbx, -40(%rbp)
	movq	$0, -32(%rbp)
	leaq	-72(%rbp), %rsi
Ltmp2285:
	.loc	3 55 25
	movq	%r15, %rdi
	callq	__ZN4core3fmt9Formatter9write_fmt17h742ca6aae87ad23cE
Ltmp2286:
	.loc	3 55 40 is_stmt 0
	testb	%al, %al
	jne	LBB66_12
Ltmp2287:
	.loc	5 63 36 is_stmt 1
	pshufd	$229, -112(%rbp), %xmm0
Ltmp2288:
	.loc	3 57 21
	movd	%xmm0, -72(%rbp)
Ltmp2289:
	.loc	4 149 20
	movq	%r15, %rdi
	callq	__ZN4core3fmt9Formatter15debug_lower_hex17hd07f6fde8d0365dfE
	.loc	4 149 17 is_stmt 0
	testb	%al, %al
	je	LBB66_8
Ltmp2290:
	.loc	4 0 17
	leaq	-72(%rbp), %rdi
	.loc	4 150 21 is_stmt 1
	movq	%r15, %rsi
	callq	__ZN4core3fmt3num53_$LT$impl$u20$core..fmt..LowerHex$u20$for$u20$u32$GT$3fmt17h019ba2b9dd60d385E
	jmp	LBB66_10
Ltmp2291:
LBB66_8:
	.loc	4 151 27
	movq	%r15, %rdi
	callq	__ZN4core3fmt9Formatter15debug_upper_hex17hf480c256a9c81c1eE
	leaq	-72(%rbp), %rdi
	.loc	4 152 21
	movq	%r15, %rsi
	.loc	4 151 24
	testb	%al, %al
	je	LBB66_9
Ltmp2292:
	.loc	4 152 21
	callq	__ZN4core3fmt3num53_$LT$impl$u20$core..fmt..UpperHex$u20$for$u20$u32$GT$3fmt17h7bd10b5f3c9584f1E
	jmp	LBB66_10
Ltmp2293:
LBB66_9:
	.loc	4 154 21
	callq	__ZN4core3fmt3num3imp52_$LT$impl$u20$core..fmt..Display$u20$for$u20$u32$GT$3fmt17hb70882cf65fd1a66E
Ltmp2294:
LBB66_10:
	.loc	3 57 43
	testb	%al, %al
	jne	LBB66_12
Ltmp2295:
	.loc	1 328 9
	leaq	l___unnamed_5(%rip), %rax
Ltmp2296:
	movq	%rax, -72(%rbp)
	movq	$1, -64(%rbp)
	movq	$0, -56(%rbp)
Ltmp2297:
	movq	%rbx, -40(%rbp)
	movq	$0, -32(%rbp)
	leaq	-72(%rbp), %rsi
Ltmp2298:
	.loc	3 59 17
	movq	%r15, %rdi
	callq	__ZN4core3fmt9Formatter9write_fmt17h742ca6aae87ad23cE
Ltmp2299:
	movl	%eax, %r14d
Ltmp2300:
LBB66_12:
	.loc	3 60 14
	movl	%r14d, %eax
	addq	$88, %rsp
	popq	%rbx
	popq	%r14
	popq	%r15
Ltmp2301:
	popq	%rbp
	retq
Ltmp2302:
Lfunc_end66:
	.cfi_endproc

	.globl	__ZN11packed_simd3v6499_$LT$impl$u20$core..fmt..LowerHex$u20$for$u20$packed_simd..Simd$LT$$u5b$u32$u3b$$u20$2$u5d$$GT$$GT$3fmt17h600f08efa3190c92E
	.p2align	4, 0x90
__ZN11packed_simd3v6499_$LT$impl$u20$core..fmt..LowerHex$u20$for$u20$packed_simd..Simd$LT$$u5b$u32$u3b$$u20$2$u5d$$GT$$GT$3fmt17h600f08efa3190c92E:
Lfunc_begin67:
	.loc	6 9 0
	.cfi_startproc
	pushq	%rbp
	.cfi_def_cfa_offset 16
	.cfi_offset %rbp, -16
	movq	%rsp, %rbp
	.cfi_def_cfa_register %rbp
	pushq	%r15
	pushq	%r14
	pushq	%r13
	pushq	%r12
	pushq	%rbx
	subq	$104, %rsp
	.cfi_offset %rbx, -56
	.cfi_offset %r12, -48
	.cfi_offset %r13, -40
	.cfi_offset %r14, -32
	.cfi_offset %r15, -24
	movq	%rsi, %rbx
	movq	%rdi, %r15
Ltmp2303:
	.loc	6 11 17 prologue_end
	leaq	l___unnamed_21(%rip), %rax
	movq	%rax, -104(%rbp)
	leaq	__ZN44_$LT$$RF$T$u20$as$u20$core..fmt..Display$GT$3fmt17h189ab73c0bfea6d1E(%rip), %rax
	movq	%rax, -96(%rbp)
Ltmp2304:
	.loc	1 328 9
	leaq	l___unnamed_2(%rip), %rax
Ltmp2305:
	movq	%rax, -88(%rbp)
	movq	$2, -80(%rbp)
	movq	$0, -72(%rbp)
	leaq	-104(%rbp), %rax
Ltmp2306:
	movq	%rax, -56(%rbp)
	movq	$1, -48(%rbp)
	leaq	-88(%rbp), %rsi
Ltmp2307:
	.loc	6 11 17
	movq	%rbx, %rdi
	callq	__ZN4core3fmt9Formatter9write_fmt17h742ca6aae87ad23cE
	movb	$1, %cl
	.loc	6 11 50 is_stmt 0
	testb	%al, %al
	jne	LBB67_9
Ltmp2308:
	.loc	6 0 0
	movsd	(%r15), %xmm0
	movaps	%xmm0, -128(%rbp)
	xorl	%r14d, %r14d
	leaq	-88(%rbp), %r15
Ltmp2309:
	leaq	l___unnamed_3(%rip), %r13
	jmp	LBB67_3
Ltmp2310:
	.p2align	4, 0x90
LBB67_2:
	movaps	-128(%rbp), %xmm0
Ltmp2311:
	.loc	5 63 36 is_stmt 1
	movaps	%xmm0, -144(%rbp)
Ltmp2312:
	.loc	6 0 0 is_stmt 0
	leaq	1(%r14), %r12
Ltmp2313:
	.loc	5 63 36
	andl	$3, %r14d
Ltmp2314:
	movl	-144(%rbp,%r14,4), %eax
Ltmp2315:
	.loc	6 16 21 is_stmt 1
	movl	%eax, -88(%rbp)
	movq	%r15, %rdi
	movq	%rbx, %rsi
	callq	__ZN4core3fmt3num53_$LT$impl$u20$core..fmt..LowerHex$u20$for$u20$u32$GT$3fmt17h019ba2b9dd60d385E
Ltmp2316:
	.loc	6 0 0 is_stmt 0
	movq	%r12, %r14
Ltmp2317:
	.loc	6 16 43
	testb	%al, %al
	jne	LBB67_8
Ltmp2318:
LBB67_3:
	.loc	7 1136 52 is_stmt 1
	cmpq	$2, %r14
Ltmp2319:
	.loc	8 505 9
	je	LBB67_7
Ltmp2320:
	.loc	6 13 24
	testq	%r14, %r14
	.loc	6 13 21 is_stmt 0
	je	LBB67_2
Ltmp2321:
	.loc	1 328 9 is_stmt 1
	movq	%r13, -88(%rbp)
	movq	$1, -80(%rbp)
	movq	$0, -72(%rbp)
Ltmp2322:
	leaq	l___unnamed_4(%rip), %rax
Ltmp2323:
	movq	%rax, -56(%rbp)
Ltmp2324:
	movq	$0, -48(%rbp)
Ltmp2325:
	.loc	6 14 25
	movq	%rbx, %rdi
	movq	%r15, %rsi
	callq	__ZN4core3fmt9Formatter9write_fmt17h742ca6aae87ad23cE
	.loc	6 14 40 is_stmt 0
	testb	%al, %al
	je	LBB67_2
Ltmp2326:
LBB67_8:
	.loc	6 0 40
	movb	$1, %cl
	jmp	LBB67_9
Ltmp2327:
LBB67_7:
	.loc	1 328 9 is_stmt 1
	leaq	l___unnamed_5(%rip), %rax
Ltmp2328:
	movq	%rax, -88(%rbp)
	movq	$1, -80(%rbp)
	movq	$0, -72(%rbp)
Ltmp2329:
	leaq	l___unnamed_4(%rip), %rax
Ltmp2330:
	movq	%rax, -56(%rbp)
	movq	$0, -48(%rbp)
	leaq	-88(%rbp), %rsi
Ltmp2331:
	.loc	6 18 17
	movq	%rbx, %rdi
	callq	__ZN4core3fmt9Formatter9write_fmt17h742ca6aae87ad23cE
Ltmp2332:
	movl	%eax, %ecx
Ltmp2333:
LBB67_9:
	.loc	6 19 14
	movl	%ecx, %eax
	addq	$104, %rsp
	popq	%rbx
Ltmp2334:
	popq	%r12
	popq	%r13
	popq	%r14
	popq	%r15
	popq	%rbp
	retq
Ltmp2335:
Lfunc_end67:
	.cfi_endproc

	.globl	__ZN11packed_simd3v6499_$LT$impl$u20$core..fmt..UpperHex$u20$for$u20$packed_simd..Simd$LT$$u5b$u32$u3b$$u20$2$u5d$$GT$$GT$3fmt17ha6b732da292f9accE
	.p2align	4, 0x90
__ZN11packed_simd3v6499_$LT$impl$u20$core..fmt..UpperHex$u20$for$u20$packed_simd..Simd$LT$$u5b$u32$u3b$$u20$2$u5d$$GT$$GT$3fmt17ha6b732da292f9accE:
Lfunc_begin68:
	.loc	9 9 0
	.cfi_startproc
	pushq	%rbp
	.cfi_def_cfa_offset 16
	.cfi_offset %rbp, -16
	movq	%rsp, %rbp
	.cfi_def_cfa_register %rbp
	pushq	%r15
	pushq	%r14
	pushq	%r13
	pushq	%r12
	pushq	%rbx
	subq	$104, %rsp
	.cfi_offset %rbx, -56
	.cfi_offset %r12, -48
	.cfi_offset %r13, -40
	.cfi_offset %r14, -32
	.cfi_offset %r15, -24
	movq	%rsi, %rbx
	movq	%rdi, %r15
Ltmp2336:
	.loc	9 11 17 prologue_end
	leaq	l___unnamed_21(%rip), %rax
	movq	%rax, -104(%rbp)
	leaq	__ZN44_$LT$$RF$T$u20$as$u20$core..fmt..Display$GT$3fmt17h189ab73c0bfea6d1E(%rip), %rax
	movq	%rax, -96(%rbp)
Ltmp2337:
	.loc	1 328 9
	leaq	l___unnamed_2(%rip), %rax
Ltmp2338:
	movq	%rax, -88(%rbp)
	movq	$2, -80(%rbp)
	movq	$0, -72(%rbp)
	leaq	-104(%rbp), %rax
Ltmp2339:
	movq	%rax, -56(%rbp)
	movq	$1, -48(%rbp)
	leaq	-88(%rbp), %rsi
Ltmp2340:
	.loc	9 11 17
	movq	%rbx, %rdi
	callq	__ZN4core3fmt9Formatter9write_fmt17h742ca6aae87ad23cE
	movb	$1, %cl
	.loc	9 11 50 is_stmt 0
	testb	%al, %al
	jne	LBB68_9
Ltmp2341:
	.loc	9 0 0
	movsd	(%r15), %xmm0
	movaps	%xmm0, -128(%rbp)
	xorl	%r14d, %r14d
	leaq	-88(%rbp), %r15
Ltmp2342:
	leaq	l___unnamed_3(%rip), %r13
	jmp	LBB68_3
Ltmp2343:
	.p2align	4, 0x90
LBB68_2:
	movaps	-128(%rbp), %xmm0
Ltmp2344:
	.loc	5 63 36 is_stmt 1
	movaps	%xmm0, -144(%rbp)
Ltmp2345:
	.loc	9 0 0 is_stmt 0
	leaq	1(%r14), %r12
Ltmp2346:
	.loc	5 63 36
	andl	$3, %r14d
Ltmp2347:
	movl	-144(%rbp,%r14,4), %eax
Ltmp2348:
	.loc	9 16 21 is_stmt 1
	movl	%eax, -88(%rbp)
	movq	%r15, %rdi
	movq	%rbx, %rsi
	callq	__ZN4core3fmt3num53_$LT$impl$u20$core..fmt..UpperHex$u20$for$u20$u32$GT$3fmt17h7bd10b5f3c9584f1E
Ltmp2349:
	.loc	9 0 0 is_stmt 0
	movq	%r12, %r14
Ltmp2350:
	.loc	9 16 43
	testb	%al, %al
	jne	LBB68_8
Ltmp2351:
LBB68_3:
	.loc	7 1136 52 is_stmt 1
	cmpq	$2, %r14
Ltmp2352:
	.loc	8 505 9
	je	LBB68_7
Ltmp2353:
	.loc	9 13 24
	testq	%r14, %r14
	.loc	9 13 21 is_stmt 0
	je	LBB68_2
Ltmp2354:
	.loc	1 328 9 is_stmt 1
	movq	%r13, -88(%rbp)
	movq	$1, -80(%rbp)
	movq	$0, -72(%rbp)
Ltmp2355:
	leaq	l___unnamed_4(%rip), %rax
Ltmp2356:
	movq	%rax, -56(%rbp)
Ltmp2357:
	movq	$0, -48(%rbp)
Ltmp2358:
	.loc	9 14 25
	movq	%rbx, %rdi
	movq	%r15, %rsi
	callq	__ZN4core3fmt9Formatter9write_fmt17h742ca6aae87ad23cE
	.loc	9 14 40 is_stmt 0
	testb	%al, %al
	je	LBB68_2
Ltmp2359:
LBB68_8:
	.loc	9 0 40
	movb	$1, %cl
	jmp	LBB68_9
Ltmp2360:
LBB68_7:
	.loc	1 328 9 is_stmt 1
	leaq	l___unnamed_5(%rip), %rax
Ltmp2361:
	movq	%rax, -88(%rbp)
	movq	$1, -80(%rbp)
	movq	$0, -72(%rbp)
Ltmp2362:
	leaq	l___unnamed_4(%rip), %rax
Ltmp2363:
	movq	%rax, -56(%rbp)
	movq	$0, -48(%rbp)
	leaq	-88(%rbp), %rsi
Ltmp2364:
	.loc	9 18 17
	movq	%rbx, %rdi
	callq	__ZN4core3fmt9Formatter9write_fmt17h742ca6aae87ad23cE
Ltmp2365:
	movl	%eax, %ecx
Ltmp2366:
LBB68_9:
	.loc	9 19 14
	movl	%ecx, %eax
	addq	$104, %rsp
	popq	%rbx
Ltmp2367:
	popq	%r12
	popq	%r13
	popq	%r14
	popq	%r15
	popq	%rbp
	retq
Ltmp2368:
Lfunc_end68:
	.cfi_endproc

	.globl	__ZN11packed_simd3v6496_$LT$impl$u20$core..fmt..Octal$u20$for$u20$packed_simd..Simd$LT$$u5b$u32$u3b$$u20$2$u5d$$GT$$GT$3fmt17h49d325b0cc1d7127E
	.p2align	4, 0x90
__ZN11packed_simd3v6496_$LT$impl$u20$core..fmt..Octal$u20$for$u20$packed_simd..Simd$LT$$u5b$u32$u3b$$u20$2$u5d$$GT$$GT$3fmt17h49d325b0cc1d7127E:
Lfunc_begin69:
	.loc	10 9 0
	.cfi_startproc
	pushq	%rbp
	.cfi_def_cfa_offset 16
	.cfi_offset %rbp, -16
	movq	%rsp, %rbp
	.cfi_def_cfa_register %rbp
	pushq	%r15
	pushq	%r14
	pushq	%r13
	pushq	%r12
	pushq	%rbx
	subq	$104, %rsp
	.cfi_offset %rbx, -56
	.cfi_offset %r12, -48
	.cfi_offset %r13, -40
	.cfi_offset %r14, -32
	.cfi_offset %r15, -24
	movq	%rsi, %rbx
	movq	%rdi, %r15
Ltmp2369:
	.loc	10 11 17 prologue_end
	leaq	l___unnamed_21(%rip), %rax
	movq	%rax, -104(%rbp)
	leaq	__ZN44_$LT$$RF$T$u20$as$u20$core..fmt..Display$GT$3fmt17h189ab73c0bfea6d1E(%rip), %rax
	movq	%rax, -96(%rbp)
Ltmp2370:
	.loc	1 328 9
	leaq	l___unnamed_2(%rip), %rax
Ltmp2371:
	movq	%rax, -88(%rbp)
	movq	$2, -80(%rbp)
	movq	$0, -72(%rbp)
	leaq	-104(%rbp), %rax
Ltmp2372:
	movq	%rax, -56(%rbp)
	movq	$1, -48(%rbp)
	leaq	-88(%rbp), %rsi
Ltmp2373:
	.loc	10 11 17
	movq	%rbx, %rdi
	callq	__ZN4core3fmt9Formatter9write_fmt17h742ca6aae87ad23cE
	movb	$1, %cl
	.loc	10 11 50 is_stmt 0
	testb	%al, %al
	jne	LBB69_9
Ltmp2374:
	.loc	10 0 0
	movsd	(%r15), %xmm0
	movaps	%xmm0, -128(%rbp)
	xorl	%r14d, %r14d
	leaq	-88(%rbp), %r15
Ltmp2375:
	leaq	l___unnamed_3(%rip), %r13
	jmp	LBB69_3
Ltmp2376:
	.p2align	4, 0x90
LBB69_2:
	movaps	-128(%rbp), %xmm0
Ltmp2377:
	.loc	5 63 36 is_stmt 1
	movaps	%xmm0, -144(%rbp)
Ltmp2378:
	.loc	10 0 0 is_stmt 0
	leaq	1(%r14), %r12
Ltmp2379:
	.loc	5 63 36
	andl	$3, %r14d
Ltmp2380:
	movl	-144(%rbp,%r14,4), %eax
Ltmp2381:
	.loc	10 16 21 is_stmt 1
	movl	%eax, -88(%rbp)
	movq	%r15, %rdi
	movq	%rbx, %rsi
	callq	__ZN4core3fmt3num50_$LT$impl$u20$core..fmt..Octal$u20$for$u20$u32$GT$3fmt17hd579135e6fb890dfE
Ltmp2382:
	.loc	10 0 0 is_stmt 0
	movq	%r12, %r14
Ltmp2383:
	.loc	10 16 43
	testb	%al, %al
	jne	LBB69_8
Ltmp2384:
LBB69_3:
	.loc	7 1136 52 is_stmt 1
	cmpq	$2, %r14
Ltmp2385:
	.loc	8 505 9
	je	LBB69_7
Ltmp2386:
	.loc	10 13 24
	testq	%r14, %r14
	.loc	10 13 21 is_stmt 0
	je	LBB69_2
Ltmp2387:
	.loc	1 328 9 is_stmt 1
	movq	%r13, -88(%rbp)
	movq	$1, -80(%rbp)
	movq	$0, -72(%rbp)
Ltmp2388:
	leaq	l___unnamed_4(%rip), %rax
Ltmp2389:
	movq	%rax, -56(%rbp)
Ltmp2390:
	movq	$0, -48(%rbp)
Ltmp2391:
	.loc	10 14 25
	movq	%rbx, %rdi
	movq	%r15, %rsi
	callq	__ZN4core3fmt9Formatter9write_fmt17h742ca6aae87ad23cE
	.loc	10 14 40 is_stmt 0
	testb	%al, %al
	je	LBB69_2
Ltmp2392:
LBB69_8:
	.loc	10 0 40
	movb	$1, %cl
	jmp	LBB69_9
Ltmp2393:
LBB69_7:
	.loc	1 328 9 is_stmt 1
	leaq	l___unnamed_5(%rip), %rax
Ltmp2394:
	movq	%rax, -88(%rbp)
	movq	$1, -80(%rbp)
	movq	$0, -72(%rbp)
Ltmp2395:
	leaq	l___unnamed_4(%rip), %rax
Ltmp2396:
	movq	%rax, -56(%rbp)
	movq	$0, -48(%rbp)
	leaq	-88(%rbp), %rsi
Ltmp2397:
	.loc	10 18 17
