	.section	__TEXT,__text,regular,pure_instructions
	.macosx_version_min 10, 7
	.p2align	4, 0x90
__ZN44_$LT$$RF$T$u20$as$u20$core..fmt..Display$GT$3fmt17h0663b18722df5164E:
Lfunc_begin0:
	.file	1 "/rustc/a74d1862d4d87a56244958416fd05976c58ca1a8/src/libcore/fmt/mod.rs"
	.loc	1 1973 0
	.cfi_startproc
	pushq	%rbp
	.cfi_def_cfa_offset 16
	.cfi_offset %rbp, -16
	movq	%rsp, %rbp
	.cfi_def_cfa_register %rbp
	movq	%rsi, %rdx
Ltmp0:
	.loc	1 1973 71 prologue_end
	movq	(%rdi), %rax
	movq	8(%rdi), %rsi
	.loc	1 1973 62 is_stmt 0
	movq	%rax, %rdi
Ltmp1:
	popq	%rbp
	jmp	__ZN42_$LT$str$u20$as$u20$core..fmt..Display$GT$3fmt17hd4dee1c1c4ccf892E
Ltmp2:
Lfunc_end0:
	.cfi_endproc

	.globl	__ZN68_$LT$packed_simd..masks..m8$u20$as$u20$packed_simd..sealed..Mask$GT$4test17he8c4c44b73932d5bE
	.p2align	4, 0x90
__ZN68_$LT$packed_simd..masks..m8$u20$as$u20$packed_simd..sealed..Mask$GT$4test17he8c4c44b73932d5bE:
Lfunc_begin1:
	.file	2 "/Users/yingyuhang/.cargo/registry/src/github.com-1ecc6299db9ec823/packed_simd-0.3.3/src/masks.rs"
	.loc	2 10 0 is_stmt 1
	.cfi_startproc
	pushq	%rbp
	.cfi_def_cfa_offset 16
	.cfi_offset %rbp, -16
	movq	%rsp, %rbp
	.cfi_def_cfa_register %rbp
Ltmp3:
	.loc	2 28 17 prologue_end
	cmpb	$0, (%rdi)
	setne	%al
Ltmp4:
	.loc	2 12 14
	popq	%rbp
	retq
Ltmp5:
Lfunc_end1:
	.cfi_endproc

	.globl	__ZN69_$LT$packed_simd..masks..m16$u20$as$u20$packed_simd..sealed..Mask$GT$4test17hbb75fc5fc89b21b7E
	.p2align	4, 0x90
__ZN69_$LT$packed_simd..masks..m16$u20$as$u20$packed_simd..sealed..Mask$GT$4test17hbb75fc5fc89b21b7E:
Lfunc_begin2:
	.loc	2 10 0
	.cfi_startproc
	pushq	%rbp
	.cfi_def_cfa_offset 16
	.cfi_offset %rbp, -16
	movq	%rsp, %rbp
	.cfi_def_cfa_register %rbp
Ltmp6:
	.loc	2 28 17 prologue_end
	cmpw	$0, (%rdi)
	setne	%al
Ltmp7:
	.loc	2 12 14
	popq	%rbp
	retq
Ltmp8:
Lfunc_end2:
	.cfi_endproc

	.globl	__ZN69_$LT$packed_simd..masks..m32$u20$as$u20$packed_simd..sealed..Mask$GT$4test17hd652447fcc1042d6E
	.p2align	4, 0x90
__ZN69_$LT$packed_simd..masks..m32$u20$as$u20$packed_simd..sealed..Mask$GT$4test17hd652447fcc1042d6E:
Lfunc_begin3:
	.loc	2 10 0
	.cfi_startproc
	pushq	%rbp
	.cfi_def_cfa_offset 16
	.cfi_offset %rbp, -16
	movq	%rsp, %rbp
	.cfi_def_cfa_register %rbp
Ltmp9:
	.loc	2 28 17 prologue_end
	cmpl	$0, (%rdi)
	setne	%al
Ltmp10:
	.loc	2 12 14
	popq	%rbp
	retq
Ltmp11:
Lfunc_end3:
	.cfi_endproc

	.globl	__ZN69_$LT$packed_simd..masks..m64$u20$as$u20$packed_simd..sealed..Mask$GT$4test17ha232b8f3e3880b77E
	.p2align	4, 0x90
__ZN69_$LT$packed_simd..masks..m64$u20$as$u20$packed_simd..sealed..Mask$GT$4test17ha232b8f3e3880b77E:
Lfunc_begin4:
	.loc	2 10 0
	.cfi_startproc
	pushq	%rbp
	.cfi_def_cfa_offset 16
	.cfi_offset %rbp, -16
	movq	%rsp, %rbp
	.cfi_def_cfa_register %rbp
Ltmp12:
	.loc	2 28 17 prologue_end
	cmpq	$0, (%rdi)
	setne	%al
Ltmp13:
	.loc	2 12 14
	popq	%rbp
	retq
Ltmp14:
Lfunc_end4:
	.cfi_endproc

	.globl	__ZN70_$LT$packed_simd..masks..m128$u20$as$u20$packed_simd..sealed..Mask$GT$4test17h7e92b6744ac79ed3E
	.p2align	4, 0x90
__ZN70_$LT$packed_simd..masks..m128$u20$as$u20$packed_simd..sealed..Mask$GT$4test17h7e92b6744ac79ed3E:
Lfunc_begin5:
	.loc	2 10 0
	.cfi_startproc
	pushq	%rbp
	.cfi_def_cfa_offset 16
	.cfi_offset %rbp, -16
	movq	%rsp, %rbp
	.cfi_def_cfa_register %rbp
Ltmp15:
	.loc	2 11 17 prologue_end
	movq	(%rdi), %rax
Ltmp16:
	.loc	2 28 17
	orq	8(%rdi), %rax
	setne	%al
Ltmp17:
	.loc	2 12 14
	popq	%rbp
	retq
Ltmp18:
Lfunc_end5:
	.cfi_endproc

	.section	__TEXT,__literal16,16byte_literals
	.p2align	4
LCPI6_0:
	.byte	0
	.byte	128
	.byte	128
	.byte	128
	.byte	128
	.byte	128
	.byte	128
	.byte	128
	.byte	1
	.byte	128
	.byte	128
	.byte	128
	.byte	128
	.byte	128
	.byte	128
	.byte	128
	.section	__TEXT,__text,regular,pure_instructions
	.globl	__ZN11packed_simd3v1695_$LT$impl$u20$core..fmt..Debug$u20$for$u20$packed_simd..Simd$LT$$u5b$i8$u3b$$u20$2$u5d$$GT$$GT$3fmt17h13091f2972f79f47E
	.p2align	4, 0x90
__ZN11packed_simd3v1695_$LT$impl$u20$core..fmt..Debug$u20$for$u20$packed_simd..Simd$LT$$u5b$i8$u3b$$u20$2$u5d$$GT$$GT$3fmt17h13091f2972f79f47E:
Lfunc_begin6:
	.file	3 "/Users/yingyuhang/.cargo/registry/src/github.com-1ecc6299db9ec823/packed_simd-0.3.3/src/api/fmt/debug.rs"
	.loc	3 49 0
	.cfi_startproc
	pushq	%rbp
	.cfi_def_cfa_offset 16
	.cfi_offset %rbp, -16
	movq	%rsp, %rbp
	.cfi_def_cfa_register %rbp
	pushq	%r15
	pushq	%r14
	pushq	%rbx
	subq	$104, %rsp
	.cfi_offset %rbx, -40
	.cfi_offset %r14, -32
	.cfi_offset %r15, -24
	movq	%rsi, %r15
Ltmp19:
	movq	%rdi, %rbx
Ltmp20:
	.loc	3 52 17 prologue_end
	leaq	__ZN44_$LT$$RF$T$u20$as$u20$core..fmt..Display$GT$3fmt17h0663b18722df5164E(%rip), %rax
	movq	%rax, %xmm0
	leaq	l___unnamed_1(%rip), %rax
	movq	%rax, %xmm1
	punpcklqdq	%xmm0, %xmm1
	movdqa	%xmm1, -128(%rbp)
Ltmp21:
	.loc	1 328 9
	leaq	l___unnamed_2(%rip), %rax
Ltmp22:
	movq	%rax, -72(%rbp)
	movq	$2, -64(%rbp)
	movq	$0, -56(%rbp)
	leaq	-128(%rbp), %rax
Ltmp23:
	movq	%rax, -40(%rbp)
	movq	$1, -32(%rbp)
	leaq	-72(%rbp), %rsi
Ltmp24:
	.loc	3 52 17
	movq	%r15, %rdi
	callq	__ZN4core3fmt9Formatter9write_fmt17h3dc2bf45afed3069E
	movb	$1, %r14b
	.loc	3 52 50 is_stmt 0
	testb	%al, %al
	jne	LBB6_12
Ltmp25:
	.loc	3 0 0
	movzwl	(%rbx), %eax
	movd	%eax, %xmm0
	pshufb	LCPI6_0(%rip), %xmm0
Ltmp26:
	movdqa	%xmm0, -96(%rbp)
Ltmp27:
	.file	4 "/Users/yingyuhang/.cargo/registry/src/github.com-1ecc6299db9ec823/packed_simd-0.3.3/src/api/minimal/iuf.rs"
	.loc	4 63 36 is_stmt 1
	movdqa	%xmm0, -112(%rbp)
	movb	-112(%rbp), %al
Ltmp28:
	.loc	3 57 21
	movb	%al, -72(%rbp)
Ltmp29:
	.file	5 "/rustc/a74d1862d4d87a56244958416fd05976c58ca1a8/src/libcore/fmt/num.rs"
	.loc	5 149 20
	movq	%r15, %rdi
	callq	__ZN4core3fmt9Formatter15debug_lower_hex17h8530fbaeba13f4d9E
	.loc	5 149 17 is_stmt 0
	testb	%al, %al
	je	LBB6_2
Ltmp30:
	.loc	5 0 17
	leaq	-72(%rbp), %rdi
	.loc	5 150 21 is_stmt 1
	movq	%r15, %rsi
	callq	__ZN4core3fmt3num52_$LT$impl$u20$core..fmt..LowerHex$u20$for$u20$i8$GT$3fmt17h7f7e9f270a5d54c2E
Ltmp31:
	.loc	3 57 43
	testb	%al, %al
	je	LBB6_6
	jmp	LBB6_12
Ltmp32:
LBB6_2:
	.loc	5 151 27
	movq	%r15, %rdi
	callq	__ZN4core3fmt9Formatter15debug_upper_hex17hf8fda15ec43a1e68E
	leaq	-72(%rbp), %rdi
	.loc	5 154 21
	movq	%r15, %rsi
	.loc	5 151 24
	testb	%al, %al
	je	LBB6_4
Ltmp33:
	.loc	5 152 21
	callq	__ZN4core3fmt3num52_$LT$impl$u20$core..fmt..UpperHex$u20$for$u20$i8$GT$3fmt17hd41115610f011194E
Ltmp34:
	.loc	3 57 43
	testb	%al, %al
	je	LBB6_6
	jmp	LBB6_12
Ltmp35:
LBB6_4:
	.loc	5 154 21
	callq	__ZN4core3fmt3num3imp51_$LT$impl$u20$core..fmt..Display$u20$for$u20$i8$GT$3fmt17hc80f24a4257c3563E
Ltmp36:
	.loc	3 57 43
	testb	%al, %al
	jne	LBB6_12
Ltmp37:
LBB6_6:
	.loc	1 328 9
	leaq	l___unnamed_3(%rip), %rax
Ltmp38:
	movq	%rax, -72(%rbp)
	movq	$1, -64(%rbp)
	movq	$0, -56(%rbp)
	leaq	l___unnamed_4(%rip), %rbx
Ltmp39:
	movq	%rbx, -40(%rbp)
	movq	$0, -32(%rbp)
	leaq	-72(%rbp), %rsi
Ltmp40:
	.loc	3 55 25
	movq	%r15, %rdi
	callq	__ZN4core3fmt9Formatter9write_fmt17h3dc2bf45afed3069E
Ltmp41:
	.loc	3 55 40 is_stmt 0
	testb	%al, %al
	jne	LBB6_12
Ltmp42:
	.loc	3 0 40
	movdqa	-96(%rbp), %xmm0
Ltmp43:
	.loc	4 63 36 is_stmt 1
	pextrw	$4, %xmm0, %eax
Ltmp44:
	.loc	3 57 21
	movb	%al, -72(%rbp)
Ltmp45:
	.loc	5 149 20
	movq	%r15, %rdi
	callq	__ZN4core3fmt9Formatter15debug_lower_hex17h8530fbaeba13f4d9E
	.loc	5 149 17 is_stmt 0
	testb	%al, %al
	je	LBB6_8
Ltmp46:
	.loc	5 0 17
	leaq	-72(%rbp), %rdi
	.loc	5 150 21 is_stmt 1
	movq	%r15, %rsi
	callq	__ZN4core3fmt3num52_$LT$impl$u20$core..fmt..LowerHex$u20$for$u20$i8$GT$3fmt17h7f7e9f270a5d54c2E
Ltmp47:
	.loc	3 57 43
	testb	%al, %al
	jne	LBB6_12
Ltmp48:
LBB6_11:
	.loc	1 328 9
	leaq	l___unnamed_5(%rip), %rax
Ltmp49:
	movq	%rax, -72(%rbp)
	movq	$1, -64(%rbp)
	movq	$0, -56(%rbp)
Ltmp50:
	movq	%rbx, -40(%rbp)
	movq	$0, -32(%rbp)
	leaq	-72(%rbp), %rsi
Ltmp51:
	.loc	3 59 17
	movq	%r15, %rdi
	callq	__ZN4core3fmt9Formatter9write_fmt17h3dc2bf45afed3069E
Ltmp52:
	movl	%eax, %r14d
Ltmp53:
LBB6_12:
	.loc	3 60 14
	movl	%r14d, %eax
	addq	$104, %rsp
	popq	%rbx
	popq	%r14
	popq	%r15
Ltmp54:
	popq	%rbp
	retq
LBB6_8:
Ltmp55:
	.loc	5 151 27
	movq	%r15, %rdi
	callq	__ZN4core3fmt9Formatter15debug_upper_hex17hf8fda15ec43a1e68E
	leaq	-72(%rbp), %rdi
	.loc	5 152 21
	movq	%r15, %rsi
	.loc	5 151 24
	testb	%al, %al
	je	LBB6_9
Ltmp56:
	.loc	5 152 21
	callq	__ZN4core3fmt3num52_$LT$impl$u20$core..fmt..UpperHex$u20$for$u20$i8$GT$3fmt17hd41115610f011194E
Ltmp57:
	.loc	3 57 43
	testb	%al, %al
	je	LBB6_11
	jmp	LBB6_12
Ltmp58:
LBB6_9:
	.loc	5 154 21
	callq	__ZN4core3fmt3num3imp51_$LT$impl$u20$core..fmt..Display$u20$for$u20$i8$GT$3fmt17hc80f24a4257c3563E
Ltmp59:
	.loc	3 57 43
	testb	%al, %al
	je	LBB6_11
	jmp	LBB6_12
Ltmp60:
Lfunc_end6:
	.cfi_endproc

	.section	__TEXT,__literal16,16byte_literals
	.p2align	4
LCPI7_0:
	.byte	0
	.byte	128
	.byte	128
	.byte	128
	.byte	128
	.byte	128
	.byte	128
	.byte	128
	.byte	1
	.byte	128
	.byte	128
	.byte	128
	.byte	128
	.byte	128
	.byte	128
	.byte	128
	.section	__TEXT,__text,regular,pure_instructions
	.globl	__ZN11packed_simd3v1698_$LT$impl$u20$core..fmt..LowerHex$u20$for$u20$packed_simd..Simd$LT$$u5b$i8$u3b$$u20$2$u5d$$GT$$GT$3fmt17h5d9ee661ff178b3fE
	.p2align	4, 0x90
__ZN11packed_simd3v1698_$LT$impl$u20$core..fmt..LowerHex$u20$for$u20$packed_simd..Simd$LT$$u5b$i8$u3b$$u20$2$u5d$$GT$$GT$3fmt17h5d9ee661ff178b3fE:
Lfunc_begin7:
	.file	6 "/Users/yingyuhang/.cargo/registry/src/github.com-1ecc6299db9ec823/packed_simd-0.3.3/src/api/fmt/lower_hex.rs"
	.loc	6 9 0
	.cfi_startproc
	pushq	%rbp
	.cfi_def_cfa_offset 16
	.cfi_offset %rbp, -16
	movq	%rsp, %rbp
	.cfi_def_cfa_register %rbp
	pushq	%r15
	pushq	%r14
	pushq	%r13
	pushq	%r12
	pushq	%rbx
	subq	$104, %rsp
	.cfi_offset %rbx, -56
	.cfi_offset %r12, -48
	.cfi_offset %r13, -40
	.cfi_offset %r14, -32
	.cfi_offset %r15, -24
	movq	%rsi, %rbx
Ltmp61:
	movq	%rdi, %r15
Ltmp62:
	.loc	6 11 17 prologue_end
	leaq	__ZN44_$LT$$RF$T$u20$as$u20$core..fmt..Display$GT$3fmt17h0663b18722df5164E(%rip), %rax
	movq	%rax, %xmm0
	leaq	l___unnamed_1(%rip), %rax
	movq	%rax, %xmm1
	punpcklqdq	%xmm0, %xmm1
	movdqa	%xmm1, -144(%rbp)
Ltmp63:
	.loc	1 328 9
	leaq	l___unnamed_2(%rip), %rax
Ltmp64:
	movq	%rax, -88(%rbp)
	movq	$2, -80(%rbp)
	movq	$0, -72(%rbp)
	leaq	-144(%rbp), %rax
Ltmp65:
	movq	%rax, -56(%rbp)
	movq	$1, -48(%rbp)
	leaq	-88(%rbp), %rsi
Ltmp66:
	.loc	6 11 17
	movq	%rbx, %rdi
	callq	__ZN4core3fmt9Formatter9write_fmt17h3dc2bf45afed3069E
	movb	$1, %cl
	.loc	6 11 50 is_stmt 0
	testb	%al, %al
	jne	LBB7_8
Ltmp67:
	.loc	6 0 0
	movzwl	(%r15), %eax
	movd	%eax, %xmm0
	pshufb	LCPI7_0(%rip), %xmm0
	movdqa	%xmm0, -112(%rbp)
	xorl	%r14d, %r14d
	leaq	-88(%rbp), %r15
Ltmp68:
	leaq	l___unnamed_3(%rip), %r13
Ltmp69:
	.file	7 "/rustc/a74d1862d4d87a56244958416fd05976c58ca1a8/src/libcore/cmp.rs"
	.loc	7 1137 52 is_stmt 1
	cmpq	$2, %r14
Ltmp70:
	.file	8 "/rustc/a74d1862d4d87a56244958416fd05976c58ca1a8/src/libcore/iter/range.rs"
	.loc	8 211 9
	jne	LBB7_4
	jmp	LBB7_3
Ltmp71:
	.p2align	4, 0x90
LBB7_6:
	.loc	8 0 9 is_stmt 0
	movdqa	-112(%rbp), %xmm0
Ltmp72:
	.loc	4 63 36 is_stmt 1
	movdqa	%xmm0, -128(%rbp)
Ltmp73:
	.loc	6 0 0 is_stmt 0
	leaq	1(%r14), %r12
Ltmp74:
	.loc	4 63 36
	andl	$1, %r14d
Ltmp75:
	movzbl	-128(%rbp,%r14,8), %eax
Ltmp76:
	.loc	6 16 21 is_stmt 1
	movb	%al, -88(%rbp)
	movq	%r15, %rdi
	movq	%rbx, %rsi
	callq	__ZN4core3fmt3num52_$LT$impl$u20$core..fmt..LowerHex$u20$for$u20$i8$GT$3fmt17h7f7e9f270a5d54c2E
Ltmp77:
	.loc	6 0 0 is_stmt 0
	movq	%r12, %r14
Ltmp78:
	.loc	6 16 43
	testb	%al, %al
	jne	LBB7_7
Ltmp79:
	.loc	7 1137 52 is_stmt 1
	cmpq	$2, %r14
Ltmp80:
	.loc	8 211 9
	je	LBB7_3
Ltmp81:
LBB7_4:
	.loc	6 13 24
	testq	%r14, %r14
	.loc	6 13 21 is_stmt 0
	je	LBB7_6
Ltmp82:
	.loc	1 328 9 is_stmt 1
	movq	%r13, -88(%rbp)
	movq	$1, -80(%rbp)
	movq	$0, -72(%rbp)
Ltmp83:
	leaq	l___unnamed_4(%rip), %rax
	movq	%rax, -56(%rbp)
	movq	$0, -48(%rbp)
Ltmp84:
	.loc	6 14 25
	movq	%rbx, %rdi
	movq	%r15, %rsi
	callq	__ZN4core3fmt9Formatter9write_fmt17h3dc2bf45afed3069E
	.loc	6 14 40 is_stmt 0
	testb	%al, %al
	je	LBB7_6
Ltmp85:
LBB7_7:
	.loc	6 0 40
	movb	$1, %cl
	jmp	LBB7_8
Ltmp86:
LBB7_3:
	.loc	1 328 9 is_stmt 1
	leaq	l___unnamed_5(%rip), %rax
Ltmp87:
	movq	%rax, -88(%rbp)
	movq	$1, -80(%rbp)
	movq	$0, -72(%rbp)
Ltmp88:
	leaq	l___unnamed_4(%rip), %rax
Ltmp89:
	movq	%rax, -56(%rbp)
	movq	$0, -48(%rbp)
	leaq	-88(%rbp), %rsi
Ltmp90:
	.loc	6 18 17
	movq	%rbx, %rdi
	callq	__ZN4core3fmt9Formatter9write_fmt17h3dc2bf45afed3069E
	movl	%eax, %ecx
Ltmp91:
LBB7_8:
	.loc	6 19 14
	movl	%ecx, %eax
	addq	$104, %rsp
	popq	%rbx
Ltmp92:
	popq	%r12
	popq	%r13
	popq	%r14
	popq	%r15
	popq	%rbp
	retq
Ltmp93:
Lfunc_end7:
	.cfi_endproc

	.section	__TEXT,__literal16,16byte_literals
	.p2align	4
LCPI8_0:
	.byte	0
	.byte	128
	.byte	128
	.byte	128
	.byte	128
	.byte	128
	.byte	128
	.byte	128
	.byte	1
	.byte	128
	.byte	128
	.byte	128
	.byte	128
	.byte	128
	.byte	128
	.byte	128
	.section	__TEXT,__text,regular,pure_instructions
	.globl	__ZN11packed_simd3v1698_$LT$impl$u20$core..fmt..UpperHex$u20$for$u20$packed_simd..Simd$LT$$u5b$i8$u3b$$u20$2$u5d$$GT$$GT$3fmt17h2bdbe2b4b85bfb7dE
	.p2align	4, 0x90
__ZN11packed_simd3v1698_$LT$impl$u20$core..fmt..UpperHex$u20$for$u20$packed_simd..Simd$LT$$u5b$i8$u3b$$u20$2$u5d$$GT$$GT$3fmt17h2bdbe2b4b85bfb7dE:
Lfunc_begin8:
	.file	9 "/Users/yingyuhang/.cargo/registry/src/github.com-1ecc6299db9ec823/packed_simd-0.3.3/src/api/fmt/upper_hex.rs"
	.loc	9 9 0
	.cfi_startproc
	pushq	%rbp
	.cfi_def_cfa_offset 16
	.cfi_offset %rbp, -16
	movq	%rsp, %rbp
	.cfi_def_cfa_register %rbp
	pushq	%r15
	pushq	%r14
	pushq	%r13
	pushq	%r12
	pushq	%rbx
	subq	$104, %rsp
	.cfi_offset %rbx, -56
	.cfi_offset %r12, -48
	.cfi_offset %r13, -40
	.cfi_offset %r14, -32
	.cfi_offset %r15, -24
	movq	%rsi, %rbx
Ltmp94:
	movq	%rdi, %r15
Ltmp95:
	.loc	9 11 17 prologue_end
	leaq	__ZN44_$LT$$RF$T$u20$as$u20$core..fmt..Display$GT$3fmt17h0663b18722df5164E(%rip), %rax
	movq	%rax, %xmm0
	leaq	l___unnamed_1(%rip), %rax
	movq	%rax, %xmm1
	punpcklqdq	%xmm0, %xmm1
	movdqa	%xmm1, -144(%rbp)
Ltmp96:
	.loc	1 328 9
	leaq	l___unnamed_2(%rip), %rax
Ltmp97:
	movq	%rax, -88(%rbp)
	movq	$2, -80(%rbp)
	movq	$0, -72(%rbp)
	leaq	-144(%rbp), %rax
Ltmp98:
	movq	%rax, -56(%rbp)
	movq	$1, -48(%rbp)
	leaq	-88(%rbp), %rsi
Ltmp99:
	.loc	9 11 17
	movq	%rbx, %rdi
	callq	__ZN4core3fmt9Formatter9write_fmt17h3dc2bf45afed3069E
	movb	$1, %cl
	.loc	9 11 50 is_stmt 0
	testb	%al, %al
	jne	LBB8_8
Ltmp100:
	.loc	9 0 0
	movzwl	(%r15), %eax
	movd	%eax, %xmm0
	pshufb	LCPI8_0(%rip), %xmm0
	movdqa	%xmm0, -112(%rbp)
	xorl	%r14d, %r14d
	leaq	-88(%rbp), %r15
Ltmp101:
	leaq	l___unnamed_3(%rip), %r13
Ltmp102:
	.loc	7 1137 52 is_stmt 1
	cmpq	$2, %r14
Ltmp103:
	.loc	8 211 9
	jne	LBB8_4
	jmp	LBB8_3
Ltmp104:
	.p2align	4, 0x90
LBB8_6:
	.loc	8 0 9 is_stmt 0
	movdqa	-112(%rbp), %xmm0
Ltmp105:
	.loc	4 63 36 is_stmt 1
	movdqa	%xmm0, -128(%rbp)
Ltmp106:
	.loc	9 0 0 is_stmt 0
	leaq	1(%r14), %r12
Ltmp107:
	.loc	4 63 36
	andl	$1, %r14d
Ltmp108:
	movzbl	-128(%rbp,%r14,8), %eax
Ltmp109:
	.loc	9 16 21 is_stmt 1
	movb	%al, -88(%rbp)
	movq	%r15, %rdi
	movq	%rbx, %rsi
	callq	__ZN4core3fmt3num52_$LT$impl$u20$core..fmt..UpperHex$u20$for$u20$i8$GT$3fmt17hd41115610f011194E
Ltmp110:
	.loc	9 0 0 is_stmt 0
	movq	%r12, %r14
Ltmp111:
	.loc	9 16 43
	testb	%al, %al
	jne	LBB8_7
Ltmp112:
	.loc	7 1137 52 is_stmt 1
	cmpq	$2, %r14
Ltmp113:
	.loc	8 211 9
	je	LBB8_3
Ltmp114:
LBB8_4:
	.loc	9 13 24
	testq	%r14, %r14
	.loc	9 13 21 is_stmt 0
	je	LBB8_6
Ltmp115:
	.loc	1 328 9 is_stmt 1
	movq	%r13, -88(%rbp)
	movq	$1, -80(%rbp)
	movq	$0, -72(%rbp)
Ltmp116:
	leaq	l___unnamed_4(%rip), %rax
	movq	%rax, -56(%rbp)
	movq	$0, -48(%rbp)
Ltmp117:
	.loc	9 14 25
	movq	%rbx, %rdi
	movq	%r15, %rsi
	callq	__ZN4core3fmt9Formatter9write_fmt17h3dc2bf45afed3069E
	.loc	9 14 40 is_stmt 0
	testb	%al, %al
	je	LBB8_6
Ltmp118:
LBB8_7:
	.loc	9 0 40
	movb	$1, %cl
	jmp	LBB8_8
Ltmp119:
LBB8_3:
	.loc	1 328 9 is_stmt 1
	leaq	l___unnamed_5(%rip), %rax
Ltmp120:
	movq	%rax, -88(%rbp)
	movq	$1, -80(%rbp)
	movq	$0, -72(%rbp)
Ltmp121:
	leaq	l___unnamed_4(%rip), %rax
Ltmp122:
	movq	%rax, -56(%rbp)
	movq	$0, -48(%rbp)
	leaq	-88(%rbp), %rsi
Ltmp123:
	.loc	9 18 17
	movq	%rbx, %rdi
	callq	__ZN4core3fmt9Formatter9write_fmt17h3dc2bf45afed3069E
	movl	%eax, %ecx
Ltmp124:
LBB8_8:
	.loc	9 19 14
	movl	%ecx, %eax
	addq	$104, %rsp
	popq	%rbx
Ltmp125:
	popq	%r12
	popq	%r13
	popq	%r14
	popq	%r15
	popq	%rbp
	retq
Ltmp126:
Lfunc_end8:
	.cfi_endproc

	.section	__TEXT,__literal16,16byte_literals
	.p2align	4
LCPI9_0:
	.byte	0
	.byte	128
	.byte	128
	.byte	128
	.byte	128
	.byte	128
	.byte	128
	.byte	128
	.byte	1
	.byte	128
	.byte	128
	.byte	128
	.byte	128
	.byte	128
	.byte	128
	.byte	128
	.section	__TEXT,__text,regular,pure_instructions
	.globl	__ZN11packed_simd3v1695_$LT$impl$u20$core..fmt..Octal$u20$for$u20$packed_simd..Simd$LT$$u5b$i8$u3b$$u20$2$u5d$$GT$$GT$3fmt17h7c692330d03fee94E
	.p2align	4, 0x90
__ZN11packed_simd3v1695_$LT$impl$u20$core..fmt..Octal$u20$for$u20$packed_simd..Simd$LT$$u5b$i8$u3b$$u20$2$u5d$$GT$$GT$3fmt17h7c692330d03fee94E:
Lfunc_begin9:
	.file	10 "/Users/yingyuhang/.cargo/registry/src/github.com-1ecc6299db9ec823/packed_simd-0.3.3/src/api/fmt/octal.rs"
	.loc	10 9 0
	.cfi_startproc
	pushq	%rbp
	.cfi_def_cfa_offset 16
	.cfi_offset %rbp, -16
	movq	%rsp, %rbp
	.cfi_def_cfa_register %rbp
	pushq	%r15
	pushq	%r14
	pushq	%r13
	pushq	%r12
	pushq	%rbx
	subq	$104, %rsp
	.cfi_offset %rbx, -56
	.cfi_offset %r12, -48
	.cfi_offset %r13, -40
	.cfi_offset %r14, -32
	.cfi_offset %r15, -24
	movq	%rsi, %rbx
Ltmp127:
	movq	%rdi, %r15
Ltmp128:
	.loc	10 11 17 prologue_end
	leaq	__ZN44_$LT$$RF$T$u20$as$u20$core..fmt..Display$GT$3fmt17h0663b18722df5164E(%rip), %rax
	movq	%rax, %xmm0
	leaq	l___unnamed_1(%rip), %rax
	movq	%rax, %xmm1
	punpcklqdq	%xmm0, %xmm1
	movdqa	%xmm1, -144(%rbp)
Ltmp129:
	.loc	1 328 9
	leaq	l___unnamed_2(%rip), %rax
Ltmp130:
	movq	%rax, -88(%rbp)
	movq	$2, -80(%rbp)
	movq	$0, -72(%rbp)
	leaq	-144(%rbp), %rax
Ltmp131:
	movq	%rax, -56(%rbp)
	movq	$1, -48(%rbp)
	leaq	-88(%rbp), %rsi
Ltmp132:
	.loc	10 11 17
	movq	%rbx, %rdi
	callq	__ZN4core3fmt9Formatter9write_fmt17h3dc2bf45afed3069E
	movb	$1, %cl
	.loc	10 11 50 is_stmt 0
	testb	%al, %al
	jne	LBB9_8
Ltmp133:
	.loc	10 0 0
	movzwl	(%r15), %eax
	movd	%eax, %xmm0
	pshufb	LCPI9_0(%rip), %xmm0
	movdqa	%xmm0, -112(%rbp)
	xorl	%r14d, %r14d
	leaq	-88(%rbp), %r15
Ltmp134:
	leaq	l___unnamed_3(%rip), %r13
Ltmp135:
	.loc	7 1137 52 is_stmt 1
	cmpq	$2, %r14
Ltmp136:
	.loc	8 211 9
	jne	LBB9_4
	jmp	LBB9_3
Ltmp137:
	.p2align	4, 0x90
LBB9_6:
	.loc	8 0 9 is_stmt 0
	movdqa	-112(%rbp), %xmm0
Ltmp138:
	.loc	4 63 36 is_stmt 1
	movdqa	%xmm0, -128(%rbp)
Ltmp139:
	.loc	10 0 0 is_stmt 0
	leaq	1(%r14), %r12
Ltmp140:
	.loc	4 63 36
	andl	$1, %r14d
Ltmp141:
	movzbl	-128(%rbp,%r14,8), %eax
Ltmp142:
	.loc	10 16 21 is_stmt 1
	movb	%al, -88(%rbp)
	movq	%r15, %rdi
	movq	%rbx, %rsi
	callq	__ZN4core3fmt3num49_$LT$impl$u20$core..fmt..Octal$u20$for$u20$i8$GT$3fmt17h29cc81c11127ecd6E
Ltmp143:
	.loc	10 0 0 is_stmt 0
	movq	%r12, %r14
Ltmp144:
	.loc	10 16 43
	testb	%al, %al
	jne	LBB9_7
Ltmp145:
	.loc	7 1137 52 is_stmt 1
	cmpq	$2, %r14
Ltmp146:
	.loc	8 211 9
	je	LBB9_3
Ltmp147:
LBB9_4:
	.loc	10 13 24
	testq	%r14, %r14
	.loc	10 13 21 is_stmt 0
	je	LBB9_6
Ltmp148:
	.loc	1 328 9 is_stmt 1
	movq	%r13, -88(%rbp)
	movq	$1, -80(%rbp)
	movq	$0, -72(%rbp)
Ltmp149:
	leaq	l___unnamed_4(%rip), %rax
	movq	%rax, -56(%rbp)
	movq	$0, -48(%rbp)
Ltmp150:
	.loc	10 14 25
	movq	%rbx, %rdi
	movq	%r15, %rsi
	callq	__ZN4core3fmt9Formatter9write_fmt17h3dc2bf45afed3069E
	.loc	10 14 40 is_stmt 0
	testb	%al, %al
	je	LBB9_6
Ltmp151:
LBB9_7:
	.loc	10 0 40
	movb	$1, %cl
	jmp	LBB9_8
Ltmp152:
LBB9_3:
	.loc	1 328 9 is_stmt 1
	leaq	l___unnamed_5(%rip), %rax
Ltmp153:
	movq	%rax, -88(%rbp)
	movq	$1, -80(%rbp)
	movq	$0, -72(%rbp)
Ltmp154:
	leaq	l___unnamed_4(%rip), %rax
Ltmp155:
	movq	%rax, -56(%rbp)
	movq	$0, -48(%rbp)
	leaq	-88(%rbp), %rsi
Ltmp156:
	.loc	10 18 17
	movq	%rbx, %rdi
	callq	__ZN4core3fmt9Formatter9write_fmt17h3dc2bf45afed3069E
	movl	%eax, %ecx
Ltmp157:
LBB9_8:
	.loc	10 19 14
	movl	%ecx, %eax
	addq	$104, %rsp
	popq	%rbx
Ltmp158:
	popq	%r12
	popq	%r13
	popq	%r14
	popq	%r15
	popq	%rbp
	retq
Ltmp159:
Lfunc_end9:
	.cfi_endproc

	.section	__TEXT,__literal16,16byte_literals
	.p2align	4
LCPI10_0:
	.byte	0
	.byte	128
	.byte	128
	.byte	128
	.byte	128
	.byte	128
	.byte	128
	.byte	128
	.byte	1
	.byte	128
	.byte	128
	.byte	128
	.byte	128
	.byte	128
	.byte	128
	.byte	128
	.section	__TEXT,__text,regular,pure_instructions
	.globl	__ZN11packed_simd3v1696_$LT$impl$u20$core..fmt..Binary$u20$for$u20$packed_simd..Simd$LT$$u5b$i8$u3b$$u20$2$u5d$$GT$$GT$3fmt17h03a659de3bb1189cE
	.p2align	4, 0x90
__ZN11packed_simd3v1696_$LT$impl$u20$core..fmt..Binary$u20$for$u20$packed_simd..Simd$LT$$u5b$i8$u3b$$u20$2$u5d$$GT$$GT$3fmt17h03a659de3bb1189cE:
Lfunc_begin10:
	.file	11 "/Users/yingyuhang/.cargo/registry/src/github.com-1ecc6299db9ec823/packed_simd-0.3.3/src/api/fmt/binary.rs"
	.loc	11 9 0
	.cfi_startproc
	pushq	%rbp
	.cfi_def_cfa_offset 16
	.cfi_offset %rbp, -16
	movq	%rsp, %rbp
	.cfi_def_cfa_register %rbp
	pushq	%r15
	pushq	%r14
	pushq	%r13
	pushq	%r12
	pushq	%rbx
	subq	$104, %rsp
	.cfi_offset %rbx, -56
	.cfi_offset %r12, -48
	.cfi_offset %r13, -40
	.cfi_offset %r14, -32
	.cfi_offset %r15, -24
	movq	%rsi, %rbx
Ltmp160:
	movq	%rdi, %r15
Ltmp161:
	.loc	11 11 17 prologue_end
	leaq	__ZN44_$LT$$RF$T$u20$as$u20$core..fmt..Display$GT$3fmt17h0663b18722df5164E(%rip), %rax
	movq	%rax, %xmm0
	leaq	l___unnamed_1(%rip), %rax
	movq	%rax, %xmm1
	punpcklqdq	%xmm0, %xmm1
	movdqa	%xmm1, -144(%rbp)
Ltmp162:
	.loc	1 328 9
	leaq	l___unnamed_2(%rip), %rax
Ltmp163:
	movq	%rax, -88(%rbp)
	movq	$2, -80(%rbp)
	movq	$0, -72(%rbp)
	leaq	-144(%rbp), %rax
Ltmp164:
	movq	%rax, -56(%rbp)
	movq	$1, -48(%rbp)
	leaq	-88(%rbp), %rsi
Ltmp165:
	.loc	11 11 17
	movq	%rbx, %rdi
	callq	__ZN4core3fmt9Formatter9write_fmt17h3dc2bf45afed3069E
	movb	$1, %cl
	.loc	11 11 50 is_stmt 0
	testb	%al, %al
	jne	LBB10_8
Ltmp166:
	.loc	11 0 0
	movzwl	(%r15), %eax
	movd	%eax, %xmm0
	pshufb	LCPI10_0(%rip), %xmm0
	movdqa	%xmm0, -112(%rbp)
	xorl	%r14d, %r14d
	leaq	-88(%rbp), %r15
Ltmp167:
	leaq	l___unnamed_3(%rip), %r13
Ltmp168:
	.loc	7 1137 52 is_stmt 1
	cmpq	$2, %r14
Ltmp169:
	.loc	8 211 9
	jne	LBB10_4
	jmp	LBB10_3
Ltmp170:
	.p2align	4, 0x90
LBB10_6:
	.loc	8 0 9 is_stmt 0
	movdqa	-112(%rbp), %xmm0
Ltmp171:
	.loc	4 63 36 is_stmt 1
	movdqa	%xmm0, -128(%rbp)
Ltmp172:
	.loc	11 0 0 is_stmt 0
	leaq	1(%r14), %r12
Ltmp173:
	.loc	4 63 36
	andl	$1, %r14d
Ltmp174:
	movzbl	-128(%rbp,%r14,8), %eax
Ltmp175:
	.loc	11 16 21 is_stmt 1
	movb	%al, -88(%rbp)
	movq	%r15, %rdi
	movq	%rbx, %rsi
	callq	__ZN4core3fmt3num50_$LT$impl$u20$core..fmt..Binary$u20$for$u20$i8$GT$3fmt17h6b85acc99cf4b968E
Ltmp176:
	.loc	11 0 0 is_stmt 0
	movq	%r12, %r14
Ltmp177:
	.loc	11 16 43
	testb	%al, %al
	jne	LBB10_7
Ltmp178:
	.loc	7 1137 52 is_stmt 1
	cmpq	$2, %r14
Ltmp179:
	.loc	8 211 9
	je	LBB10_3
Ltmp180:
LBB10_4:
	.loc	11 13 24
	testq	%r14, %r14
	.loc	11 13 21 is_stmt 0
	je	LBB10_6
Ltmp181:
	.loc	1 328 9 is_stmt 1
	movq	%r13, -88(%rbp)
	movq	$1, -80(%rbp)
	movq	$0, -72(%rbp)
Ltmp182:
	leaq	l___unnamed_4(%rip), %rax
	movq	%rax, -56(%rbp)
	movq	$0, -48(%rbp)
Ltmp183:
	.loc	11 14 25
	movq	%rbx, %rdi
	movq	%r15, %rsi
	callq	__ZN4core3fmt9Formatter9write_fmt17h3dc2bf45afed3069E
	.loc	11 14 40 is_stmt 0
	testb	%al, %al
	je	LBB10_6
Ltmp184:
LBB10_7:
	.loc	11 0 40
	movb	$1, %cl
	jmp	LBB10_8
Ltmp185:
LBB10_3:
	.loc	1 328 9 is_stmt 1
	leaq	l___unnamed_5(%rip), %rax
Ltmp186:
	movq	%rax, -88(%rbp)
	movq	$1, -80(%rbp)
	movq	$0, -72(%rbp)
Ltmp187:
	leaq	l___unnamed_4(%rip), %rax
Ltmp188:
	movq	%rax, -56(%rbp)
	movq	$0, -48(%rbp)
	leaq	-88(%rbp), %rsi
Ltmp189:
	.loc	11 18 17
	movq	%rbx, %rdi
	callq	__ZN4core3fmt9Formatter9write_fmt17h3dc2bf45afed3069E
	movl	%eax, %ecx
Ltmp190:
LBB10_8:
	.loc	11 19 14
	movl	%ecx, %eax
	addq	$104, %rsp
	popq	%rbx
Ltmp191:
	popq	%r12
	popq	%r13
	popq	%r14
	popq	%r15
	popq	%rbp
	retq
Ltmp192:
Lfunc_end10:
	.cfi_endproc

	.section	__TEXT,__literal16,16byte_literals
	.p2align	4
LCPI11_0:
	.byte	0
	.byte	128
	.byte	128
	.byte	128
	.byte	128
	.byte	128
	.byte	128
	.byte	128
	.byte	1
	.byte	128
	.byte	128
	.byte	128
	.byte	128
	.byte	128
	.byte	128
	.byte	128
	.section	__TEXT,__text,regular,pure_instructions
	.globl	__ZN11packed_simd3v1695_$LT$impl$u20$core..fmt..Debug$u20$for$u20$packed_simd..Simd$LT$$u5b$u8$u3b$$u20$2$u5d$$GT$$GT$3fmt17hf326dd867041007dE
	.p2align	4, 0x90
__ZN11packed_simd3v1695_$LT$impl$u20$core..fmt..Debug$u20$for$u20$packed_simd..Simd$LT$$u5b$u8$u3b$$u20$2$u5d$$GT$$GT$3fmt17hf326dd867041007dE:
Lfunc_begin11:
	.loc	3 49 0
	.cfi_startproc
	pushq	%rbp
	.cfi_def_cfa_offset 16
	.cfi_offset %rbp, -16
	movq	%rsp, %rbp
	.cfi_def_cfa_register %rbp
	pushq	%r15
	pushq	%r14
	pushq	%rbx
	subq	$104, %rsp
	.cfi_offset %rbx, -40
	.cfi_offset %r14, -32
	.cfi_offset %r15, -24
	movq	%rsi, %r15
Ltmp193:
	movq	%rdi, %rbx
Ltmp194:
	.loc	3 52 17 prologue_end
	leaq	__ZN44_$LT$$RF$T$u20$as$u20$core..fmt..Display$GT$3fmt17h0663b18722df5164E(%rip), %rax
	movq	%rax, %xmm0
	leaq	l___unnamed_6(%rip), %rax
	movq	%rax, %xmm1
	punpcklqdq	%xmm0, %xmm1
	movdqa	%xmm1, -128(%rbp)
Ltmp195:
	.loc	1 328 9
	leaq	l___unnamed_2(%rip), %rax
Ltmp196:
	movq	%rax, -72(%rbp)
	movq	$2, -64(%rbp)
	movq	$0, -56(%rbp)
	leaq	-128(%rbp), %rax
Ltmp197:
	movq	%rax, -40(%rbp)
	movq	$1, -32(%rbp)
	leaq	-72(%rbp), %rsi
Ltmp198:
	.loc	3 52 17
	movq	%r15, %rdi
	callq	__ZN4core3fmt9Formatter9write_fmt17h3dc2bf45afed3069E
	movb	$1, %r14b
	.loc	3 52 50 is_stmt 0
	testb	%al, %al
	jne	LBB11_12
Ltmp199:
	.loc	3 0 0
	movzwl	(%rbx), %eax
	movd	%eax, %xmm0
	pshufb	LCPI11_0(%rip), %xmm0
Ltmp200:
	movdqa	%xmm0, -96(%rbp)
Ltmp201:
	.loc	4 63 36 is_stmt 1
	movdqa	%xmm0, -112(%rbp)
	movb	-112(%rbp), %al
Ltmp202:
	.loc	3 57 21
	movb	%al, -72(%rbp)
Ltmp203:
	.loc	5 149 20
	movq	%r15, %rdi
	callq	__ZN4core3fmt9Formatter15debug_lower_hex17h8530fbaeba13f4d9E
	.loc	5 149 17 is_stmt 0
	testb	%al, %al
	je	LBB11_2
Ltmp204:
	.loc	5 0 17
	leaq	-72(%rbp), %rdi
	.loc	5 150 21 is_stmt 1
	movq	%r15, %rsi
	callq	__ZN4core3fmt3num52_$LT$impl$u20$core..fmt..LowerHex$u20$for$u20$u8$GT$3fmt17h7701faa643a10c55E
Ltmp205:
	.loc	3 57 43
	testb	%al, %al
	je	LBB11_6
	jmp	LBB11_12
Ltmp206:
LBB11_2:
	.loc	5 151 27
	movq	%r15, %rdi
	callq	__ZN4core3fmt9Formatter15debug_upper_hex17hf8fda15ec43a1e68E
	leaq	-72(%rbp), %rdi
	.loc	5 154 21
	movq	%r15, %rsi
	.loc	5 151 24
	testb	%al, %al
	je	LBB11_4
Ltmp207:
	.loc	5 152 21
	callq	__ZN4core3fmt3num52_$LT$impl$u20$core..fmt..UpperHex$u20$for$u20$u8$GT$3fmt17ha797e73a900719d8E
Ltmp208:
	.loc	3 57 43
	testb	%al, %al
	je	LBB11_6
	jmp	LBB11_12
Ltmp209:
LBB11_4:
	.loc	5 154 21
	callq	__ZN4core3fmt3num3imp51_$LT$impl$u20$core..fmt..Display$u20$for$u20$u8$GT$3fmt17h0e89df114e53d66dE
Ltmp210:
	.loc	3 57 43
	testb	%al, %al
	jne	LBB11_12
Ltmp211:
LBB11_6:
	.loc	1 328 9
	leaq	l___unnamed_3(%rip), %rax
Ltmp212:
	movq	%rax, -72(%rbp)
	movq	$1, -64(%rbp)
	movq	$0, -56(%rbp)
	leaq	l___unnamed_4(%rip), %rbx
Ltmp213:
	movq	%rbx, -40(%rbp)
	movq	$0, -32(%rbp)
	leaq	-72(%rbp), %rsi
Ltmp214:
	.loc	3 55 25
	movq	%r15, %rdi
	callq	__ZN4core3fmt9Formatter9write_fmt17h3dc2bf45afed3069E
Ltmp215:
	.loc	3 55 40 is_stmt 0
	testb	%al, %al
	jne	LBB11_12
Ltmp216:
	.loc	3 0 40
	movdqa	-96(%rbp), %xmm0
Ltmp217:
	.loc	4 63 36 is_stmt 1
	pextrw	$4, %xmm0, %eax
Ltmp218:
	.loc	3 57 21
	movb	%al, -72(%rbp)
Ltmp219:
	.loc	5 149 20
	movq	%r15, %rdi
	callq	__ZN4core3fmt9Formatter15debug_lower_hex17h8530fbaeba13f4d9E
	.loc	5 149 17 is_stmt 0
	testb	%al, %al
	je	LBB11_8
Ltmp220:
	.loc	5 0 17
	leaq	-72(%rbp), %rdi
	.loc	5 150 21 is_stmt 1
	movq	%r15, %rsi
	callq	__ZN4core3fmt3num52_$LT$impl$u20$core..fmt..LowerHex$u20$for$u20$u8$GT$3fmt17h7701faa643a10c55E
Ltmp221:
	.loc	3 57 43
	testb	%al, %al
	jne	LBB11_12
Ltmp222:
LBB11_11:
	.loc	1 328 9
	leaq	l___unnamed_5(%rip), %rax
Ltmp223:
	movq	%rax, -72(%rbp)
	movq	$1, -64(%rbp)
	movq	$0, -56(%rbp)
Ltmp224:
	movq	%rbx, -40(%rbp)
	movq	$0, -32(%rbp)
	leaq	-72(%rbp), %rsi
Ltmp225:
	.loc	3 59 17
	movq	%r15, %rdi
	callq	__ZN4core3fmt9Formatter9write_fmt17h3dc2bf45afed3069E
Ltmp226:
	movl	%eax, %r14d
Ltmp227:
LBB11_12:
	.loc	3 60 14
	movl	%r14d, %eax
	addq	$104, %rsp
	popq	%rbx
	popq	%r14
	popq	%r15
Ltmp228:
	popq	%rbp
	retq
LBB11_8:
Ltmp229:
	.loc	5 151 27
	movq	%r15, %rdi
	callq	__ZN4core3fmt9Formatter15debug_upper_hex17hf8fda15ec43a1e68E
	leaq	-72(%rbp), %rdi
	.loc	5 152 21
	movq	%r15, %rsi
	.loc	5 151 24
	testb	%al, %al
	je	LBB11_9
Ltmp230:
	.loc	5 152 21
	callq	__ZN4core3fmt3num52_$LT$impl$u20$core..fmt..UpperHex$u20$for$u20$u8$GT$3fmt17ha797e73a900719d8E
Ltmp231:
	.loc	3 57 43
	testb	%al, %al
	je	LBB11_11
	jmp	LBB11_12
Ltmp232:
LBB11_9:
	.loc	5 154 21
	callq	__ZN4core3fmt3num3imp51_$LT$impl$u20$core..fmt..Display$u20$for$u20$u8$GT$3fmt17h0e89df114e53d66dE
Ltmp233:
	.loc	3 57 43
	testb	%al, %al
	je	LBB11_11
	jmp	LBB11_12
Ltmp234:
Lfunc_end11:
	.cfi_endproc

	.section	__TEXT,__literal16,16byte_literals
	.p2align	4
LCPI12_0:
	.byte	0
	.byte	128
	.byte	128
	.byte	128
	.byte	128
	.byte	128
	.byte	128
	.byte	128
	.byte	1
	.byte	128
	.byte	128
	.byte	128
	.byte	128
	.byte	128
	.byte	128
	.byte	128
	.section	__TEXT,__text,regular,pure_instructions
	.globl	__ZN11packed_simd3v1698_$LT$impl$u20$core..fmt..LowerHex$u20$for$u20$packed_simd..Simd$LT$$u5b$u8$u3b$$u20$2$u5d$$GT$$GT$3fmt17hb4694459cdc24a0eE
	.p2align	4, 0x90
__ZN11packed_simd3v1698_$LT$impl$u20$core..fmt..LowerHex$u20$for$u20$packed_simd..Simd$LT$$u5b$u8$u3b$$u20$2$u5d$$GT$$GT$3fmt17hb4694459cdc24a0eE:
Lfunc_begin12:
	.loc	6 9 0
	.cfi_startproc
	pushq	%rbp
	.cfi_def_cfa_offset 16
	.cfi_offset %rbp, -16
	movq	%rsp, %rbp
	.cfi_def_cfa_register %rbp
	pushq	%r15
	pushq	%r14
	pushq	%r13
	pushq	%r12
	pushq	%rbx
	subq	$104, %rsp
	.cfi_offset %rbx, -56
	.cfi_offset %r12, -48
	.cfi_offset %r13, -40
	.cfi_offset %r14, -32
	.cfi_offset %r15, -24
	movq	%rsi, %rbx
Ltmp235:
	movq	%rdi, %r15
Ltmp236:
	.loc	6 11 17 prologue_end
	leaq	__ZN44_$LT$$RF$T$u20$as$u20$core..fmt..Display$GT$3fmt17h0663b18722df5164E(%rip), %rax
	movq	%rax, %xmm0
	leaq	l___unnamed_6(%rip), %rax
	movq	%rax, %xmm1
	punpcklqdq	%xmm0, %xmm1
	movdqa	%xmm1, -144(%rbp)
Ltmp237:
	.loc	1 328 9
	leaq	l___unnamed_2(%rip), %rax
Ltmp238:
	movq	%rax, -88(%rbp)
	movq	$2, -80(%rbp)
	movq	$0, -72(%rbp)
	leaq	-144(%rbp), %rax
Ltmp239:
	movq	%rax, -56(%rbp)
	movq	$1, -48(%rbp)
	leaq	-88(%rbp), %rsi
Ltmp240:
	.loc	6 11 17
	movq	%rbx, %rdi
	callq	__ZN4core3fmt9Formatter9write_fmt17h3dc2bf45afed3069E
	movb	$1, %cl
	.loc	6 11 50 is_stmt 0
	testb	%al, %al
	jne	LBB12_8
Ltmp241:
	.loc	6 0 0
	movzwl	(%r15), %eax
	movd	%eax, %xmm0
	pshufb	LCPI12_0(%rip), %xmm0
	movdqa	%xmm0, -112(%rbp)
	xorl	%r14d, %r14d
	leaq	-88(%rbp), %r15
Ltmp242:
	leaq	l___unnamed_3(%rip), %r13
Ltmp243:
	.loc	7 1137 52 is_stmt 1
	cmpq	$2, %r14
Ltmp244:
	.loc	8 211 9
	jne	LBB12_4
	jmp	LBB12_3
Ltmp245:
	.p2align	4, 0x90
LBB12_6:
	.loc	8 0 9 is_stmt 0
	movdqa	-112(%rbp), %xmm0
Ltmp246:
	.loc	4 63 36 is_stmt 1
	movdqa	%xmm0, -128(%rbp)
Ltmp247:
	.loc	6 0 0 is_stmt 0
	leaq	1(%r14), %r12
Ltmp248:
	.loc	4 63 36
	andl	$1, %r14d
Ltmp249:
	movzbl	-128(%rbp,%r14,8), %eax
Ltmp250:
	.loc	6 16 21 is_stmt 1
	movb	%al, -88(%rbp)
	movq	%r15, %rdi
	movq	%rbx, %rsi
	callq	__ZN4core3fmt3num52_$LT$impl$u20$core..fmt..LowerHex$u20$for$u20$u8$GT$3fmt17h7701faa643a10c55E
Ltmp251:
	.loc	6 0 0 is_stmt 0
	movq	%r12, %r14
Ltmp252:
	.loc	6 16 43
	testb	%al, %al
	jne	LBB12_7
Ltmp253:
	.loc	7 1137 52 is_stmt 1
	cmpq	$2, %r14
Ltmp254:
	.loc	8 211 9
	je	LBB12_3
Ltmp255:
LBB12_4:
	.loc	6 13 24
	testq	%r14, %r14
	.loc	6 13 21 is_stmt 0
	je	LBB12_6
Ltmp256:
	.loc	1 328 9 is_stmt 1
	movq	%r13, -88(%rbp)
	movq	$1, -80(%rbp)
	movq	$0, -72(%rbp)
Ltmp257:
	leaq	l___unnamed_4(%rip), %rax
	movq	%rax, -56(%rbp)
	movq	$0, -48(%rbp)
Ltmp258:
	.loc	6 14 25
	movq	%rbx, %rdi
	movq	%r15, %rsi
	callq	__ZN4core3fmt9Formatter9write_fmt17h3dc2bf45afed3069E
	.loc	6 14 40 is_stmt 0
	testb	%al, %al
	je	LBB12_6
Ltmp259:
LBB12_7:
	.loc	6 0 40
	movb	$1, %cl
	jmp	LBB12_8
Ltmp260:
LBB12_3:
	.loc	1 328 9 is_stmt 1
	leaq	l___unnamed_5(%rip), %rax
Ltmp261:
	movq	%rax, -88(%rbp)
	movq	$1, -80(%rbp)
	movq	$0, -72(%rbp)
Ltmp262:
	leaq	l___unnamed_4(%rip), %rax
Ltmp263:
	movq	%rax, -56(%rbp)
	movq	$0, -48(%rbp)
	leaq	-88(%rbp), %rsi
Ltmp264:
	.loc	6 18 17
	movq	%rbx, %rdi
	callq	__ZN4core3fmt9Formatter9write_fmt17h3dc2bf45afed3069E
	movl	%eax, %ecx
Ltmp265:
LBB12_8:
	.loc	6 19 14
	movl	%ecx, %eax
	addq	$104, %rsp
	popq	%rbx
Ltmp266:
	popq	%r12
	popq	%r13
	popq	%r14
	popq	%r15
	popq	%rbp
	retq
Ltmp267:
Lfunc_end12:
	.cfi_endproc

	.section	__TEXT,__literal16,16byte_literals
	.p2align	4
LCPI13_0:
	.byte	0
	.byte	128
	.byte	128
	.byte	128
	.byte	128
	.byte	128
	.byte	128
	.byte	128
	.byte	1
	.byte	128
	.byte	128
	.byte	128
	.byte	128
	.byte	128
	.byte	128
	.byte	128
	.section	__TEXT,__text,regular,pure_instructions
	.globl	__ZN11packed_simd3v1698_$LT$impl$u20$core..fmt..UpperHex$u20$for$u20$packed_simd..Simd$LT$$u5b$u8$u3b$$u20$2$u5d$$GT$$GT$3fmt17h7ef0e6b2b60c3fcbE
	.p2align	4, 0x90
__ZN11packed_simd3v1698_$LT$impl$u20$core..fmt..UpperHex$u20$for$u20$packed_simd..Simd$LT$$u5b$u8$u3b$$u20$2$u5d$$GT$$GT$3fmt17h7ef0e6b2b60c3fcbE:
Lfunc_begin13:
	.loc	9 9 0
	.cfi_startproc
	pushq	%rbp
	.cfi_def_cfa_offset 16
	.cfi_offset %rbp, -16
	movq	%rsp, %rbp
	.cfi_def_cfa_register %rbp
	pushq	%r15
	pushq	%r14
	pushq	%r13
	pushq	%r12
	pushq	%rbx
	subq	$104, %rsp
	.cfi_offset %rbx, -56
	.cfi_offset %r12, -48
	.cfi_offset %r13, -40
	.cfi_offset %r14, -32
	.cfi_offset %r15, -24
	movq	%rsi, %rbx
Ltmp268:
	movq	%rdi, %r15
Ltmp269:
	.loc	9 11 17 prologue_end
	leaq	__ZN44_$LT$$RF$T$u20$as$u20$core..fmt..Display$GT$3fmt17h0663b18722df5164E(%rip), %rax
	movq	%rax, %xmm0
	leaq	l___unnamed_6(%rip), %rax
	movq	%rax, %xmm1
	punpcklqdq	%xmm0, %xmm1
	movdqa	%xmm1, -144(%rbp)
Ltmp270:
	.loc	1 328 9
	leaq	l___unnamed_2(%rip), %rax
Ltmp271:
	movq	%rax, -88(%rbp)
	movq	$2, -80(%rbp)
	movq	$0, -72(%rbp)
	leaq	-144(%rbp), %rax
Ltmp272:
	movq	%rax, -56(%rbp)
	movq	$1, -48(%rbp)
	leaq	-88(%rbp), %rsi
Ltmp273:
	.loc	9 11 17
	movq	%rbx, %rdi
	callq	__ZN4core3fmt9Formatter9write_fmt17h3dc2bf45afed3069E
	movb	$1, %cl
	.loc	9 11 50 is_stmt 0
	testb	%al, %al
	jne	LBB13_8
Ltmp274:
	.loc	9 0 0
	movzwl	(%r15), %eax
	movd	%eax, %xmm0
	pshufb	LCPI13_0(%rip), %xmm0
	movdqa	%xmm0, -112(%rbp)
	xorl	%r14d, %r14d
	leaq	-88(%rbp), %r15
Ltmp275:
	leaq	l___unnamed_3(%rip), %r13
Ltmp276:
	.loc	7 1137 52 is_stmt 1
	cmpq	$2, %r14
Ltmp277:
	.loc	8 211 9
	jne	LBB13_4
	jmp	LBB13_3
Ltmp278:
	.p2align	4, 0x90
LBB13_6:
	.loc	8 0 9 is_stmt 0
	movdqa	-112(%rbp), %xmm0
Ltmp279:
	.loc	4 63 36 is_stmt 1
	movdqa	%xmm0, -128(%rbp)
Ltmp280:
	.loc	9 0 0 is_stmt 0
	leaq	1(%r14), %r12
Ltmp281:
	.loc	4 63 36
	andl	$1, %r14d
Ltmp282:
	movzbl	-128(%rbp,%r14,8), %eax
Ltmp283:
	.loc	9 16 21 is_stmt 1
	movb	%al, -88(%rbp)
	movq	%r15, %rdi
	movq	%rbx, %rsi
	callq	__ZN4core3fmt3num52_$LT$impl$u20$core..fmt..UpperHex$u20$for$u20$u8$GT$3fmt17ha797e73a900719d8E
Ltmp284:
	.loc	9 0 0 is_stmt 0
	movq	%r12, %r14
Ltmp285:
	.loc	9 16 43
	testb	%al, %al
	jne	LBB13_7
Ltmp286:
	.loc	7 1137 52 is_stmt 1
	cmpq	$2, %r14
Ltmp287:
	.loc	8 211 9
	je	LBB13_3
Ltmp288:
LBB13_4:
	.loc	9 13 24
	testq	%r14, %r14
	.loc	9 13 21 is_stmt 0
	je	LBB13_6
Ltmp289:
	.loc	1 328 9 is_stmt 1
	movq	%r13, -88(%rbp)
	movq	$1, -80(%rbp)
	movq	$0, -72(%rbp)
Ltmp290:
	leaq	l___unnamed_4(%rip), %rax
	movq	%rax, -56(%rbp)
	movq	$0, -48(%rbp)
Ltmp291:
	.loc	9 14 25
	movq	%rbx, %rdi
	movq	%r15, %rsi
	callq	__ZN4core3fmt9Formatter9write_fmt17h3dc2bf45afed3069E
	.loc	9 14 40 is_stmt 0
	testb	%al, %al
	je	LBB13_6
Ltmp292:
LBB13_7:
	.loc	9 0 40
	movb	$1, %cl
	jmp	LBB13_8
Ltmp293:
LBB13_3:
	.loc	1 328 9 is_stmt 1
	leaq	l___unnamed_5(%rip), %rax
Ltmp294:
	movq	%rax, -88(%rbp)
	movq	$1, -80(%rbp)
	movq	$0, -72(%rbp)
Ltmp295:
	leaq	l___unnamed_4(%rip), %rax
Ltmp296:
	movq	%rax, -56(%rbp)
	movq	$0, -48(%rbp)
	leaq	-88(%rbp), %rsi
Ltmp297:
	.loc	9 18 17
	movq	%rbx, %rdi
	callq	__ZN4core3fmt9Formatter9write_fmt17h3dc2bf45afed3069E
	movl	%eax, %ecx
Ltmp298:
LBB13_8:
	.loc	9 19 14
	movl	%ecx, %eax
	addq	$104, %rsp
	popq	%rbx
Ltmp299:
	popq	%r12
	popq	%r13
	popq	%r14
	popq	%r15
	popq	%rbp
	retq
Ltmp300:
Lfunc_end13:
	.cfi_endproc

	.section	__TEXT,__literal16,16byte_literals
	.p2align	4
LCPI14_0:
	.byte	0
	.byte	128
	.byte	128
	.byte	128
	.byte	128
	.byte	128
	.byte	128
	.byte	128
	.byte	1
	.byte	128
	.byte	128
	.byte	128
	.byte	128
	.byte	128
	.byte	128
	.byte	128
	.section	__TEXT,__text,regular,pure_instructions
	.globl	__ZN11packed_simd3v1695_$LT$impl$u20$core..fmt..Octal$u20$for$u20$packed_simd..Simd$LT$$u5b$u8$u3b$$u20$2$u5d$$GT$$GT$3fmt17hf4e7a3909f22e468E
	.p2align	4, 0x90
__ZN11packed_simd3v1695_$LT$impl$u20$core..fmt..Octal$u20$for$u20$packed_simd..Simd$LT$$u5b$u8$u3b$$u20$2$u5d$$GT$$GT$3fmt17hf4e7a3909f22e468E:
Lfunc_begin14:
	.loc	10 9 0
	.cfi_startproc
	pushq	%rbp
	.cfi_def_cfa_offset 16
	.cfi_offset %rbp, -16
	movq	%rsp, %rbp
	.cfi_def_cfa_register %rbp
	pushq	%r15
	pushq	%r14
	pushq	%r13
	pushq	%r12
	pushq	%rbx
	subq	$104, %rsp
	.cfi_offset %rbx, -56
	.cfi_offset %r12, -48
	.cfi_offset %r13, -40
	.cfi_offset %r14, -32
	.cfi_offset %r15, -24
	movq	%rsi, %rbx
Ltmp301:
	movq	%rdi, %r15
Ltmp302:
	.loc	10 11 17 prologue_end
	leaq	__ZN44_$LT$$RF$T$u20$as$u20$core..fmt..Display$GT$3fmt17h0663b18722df5164E(%rip), %rax
	movq	%rax, %xmm0
	leaq	l___unnamed_6(%rip), %rax
	movq	%rax, %xmm1
	punpcklqdq	%xmm0, %xmm1
	movdqa	%xmm1, -144(%rbp)
Ltmp303:
	.loc	1 328 9
	leaq	l___unnamed_2(%rip), %rax
Ltmp304:
	movq	%rax, -88(%rbp)
	movq	$2, -80(%rbp)
	movq	$0, -72(%rbp)
	leaq	-144(%rbp), %rax
Ltmp305:
	movq	%rax, -56(%rbp)
	movq	$1, -48(%rbp)
	leaq	-88(%rbp), %rsi
Ltmp306:
	.loc	10 11 17
	movq	%rbx, %rdi
	callq	__ZN4core3fmt9Formatter9write_fmt17h3dc2bf45afed3069E
	movb	$1, %cl
	.loc	10 11 50 is_stmt 0
	testb	%al, %al
	jne	LBB14_8
Ltmp307:
	.loc	10 0 0
	movzwl	(%r15), %eax
	movd	%eax, %xmm0
	pshufb	LCPI14_0(%rip), %xmm0
	movdqa	%xmm0, -112(%rbp)
	xorl	%r14d, %r14d
	leaq	-88(%rbp), %r15
Ltmp308:
	leaq	l___unnamed_3(%rip), %r13
Ltmp309:
	.loc	7 1137 52 is_stmt 1
	cmpq	$2, %r14
Ltmp310:
	.loc	8 211 9
	jne	LBB14_4
	jmp	LBB14_3
Ltmp311:
	.p2align	4, 0x90
LBB14_6:
	.loc	8 0 9 is_stmt 0
	movdqa	-112(%rbp), %xmm0
Ltmp312:
	.loc	4 63 36 is_stmt 1
	movdqa	%xmm0, -128(%rbp)
Ltmp313:
	.loc	10 0 0 is_stmt 0
	leaq	1(%r14), %r12
Ltmp314:
	.loc	4 63 36
	andl	$1, %r14d
Ltmp315:
	movzbl	-128(%rbp,%r14,8), %eax
Ltmp316:
	.loc	10 16 21 is_stmt 1
	movb	%al, -88(%rbp)
	movq	%r15, %rdi
	movq	%rbx, %rsi
	callq	__ZN4core3fmt3num49_$LT$impl$u20$core..fmt..Octal$u20$for$u20$u8$GT$3fmt17hc6b20516a790ff98E
Ltmp317:
	.loc	10 0 0 is_stmt 0
	movq	%r12, %r14
Ltmp318:
	.loc	10 16 43
	testb	%al, %al
	jne	LBB14_7
Ltmp319:
	.loc	7 1137 52 is_stmt 1
	cmpq	$2, %r14
Ltmp320:
	.loc	8 211 9
	je	LBB14_3
Ltmp321:
LBB14_4:
	.loc	10 13 24
	testq	%r14, %r14
	.loc	10 13 21 is_stmt 0
	je	LBB14_6
Ltmp322:
	.loc	1 328 9 is_stmt 1
	movq	%r13, -88(%rbp)
	movq	$1, -80(%rbp)
	movq	$0, -72(%rbp)
Ltmp323:
	leaq	l___unnamed_4(%rip), %rax
	movq	%rax, -56(%rbp)
	movq	$0, -48(%rbp)
Ltmp324:
	.loc	10 14 25
	movq	%rbx, %rdi
	movq	%r15, %rsi
	callq	__ZN4core3fmt9Formatter9write_fmt17h3dc2bf45afed3069E
	.loc	10 14 40 is_stmt 0
	testb	%al, %al
	je	LBB14_6
Ltmp325:
LBB14_7:
	.loc	10 0 40
	movb	$1, %cl
	jmp	LBB14_8
Ltmp326:
LBB14_3:
	.loc	1 328 9 is_stmt 1
	leaq	l___unnamed_5(%rip), %rax
Ltmp327:
	movq	%rax, -88(%rbp)
	movq	$1, -80(%rbp)
	movq	$0, -72(%rbp)
Ltmp328:
	leaq	l___unnamed_4(%rip), %rax
Ltmp329:
	movq	%rax, -56(%rbp)
	movq	$0, -48(%rbp)
	leaq	-88(%rbp), %rsi
Ltmp330:
	.loc	10 18 17
	movq	%rbx, %rdi
	callq	__ZN4core3fmt9Formatter9write_fmt17h3dc2bf45afed3069E
	movl	%eax, %ecx
Ltmp331:
LBB14_8:
	.loc	10 19 14
	movl	%ecx, %eax
	addq	$104, %rsp
	popq	%rbx
Ltmp332:
	popq	%r12
	popq	%r13
	popq	%r14
	popq	%r15
	popq	%rbp
	retq
Ltmp333:
Lfunc_end14:
	.cfi_endproc

	.section	__TEXT,__literal16,16byte_literals
	.p2align	4
LCPI15_0:
	.byte	0
	.byte	128
	.byte	128
	.byte	128
	.byte	128
	.byte	128
	.byte	128
	.byte	128
	.byte	1
	.byte	128
	.byte	128
	.byte	128
	.byte	128
	.byte	128
	.byte	128
	.byte	128
	.section	__TEXT,__text,regular,pure_instructions
	.globl	__ZN11packed_simd3v1696_$LT$impl$u20$core..fmt..Binary$u20$for$u20$packed_simd..Simd$LT$$u5b$u8$u3b$$u20$2$u5d$$GT$$GT$3fmt17hff3971cce20f58dcE
	.p2align	4, 0x90
__ZN11packed_simd3v1696_$LT$impl$u20$core..fmt..Binary$u20$for$u20$packed_simd..Simd$LT$$u5b$u8$u3b$$u20$2$u5d$$GT$$GT$3fmt17hff3971cce20f58dcE:
Lfunc_begin15:
	.loc	11 9 0
	.cfi_startproc
	pushq	%rbp
	.cfi_def_cfa_offset 16
	.cfi_offset %rbp, -16
	movq	%rsp, %rbp
	.cfi_def_cfa_register %rbp
	pushq	%r15
	pushq	%r14
	pushq	%r13
	pushq	%r12
	pushq	%rbx
	subq	$104, %rsp
	.cfi_offset %rbx, -56
	.cfi_offset %r12, -48
	.cfi_offset %r13, -40
	.cfi_offset %r14, -32
	.cfi_offset %r15, -24
	movq	%rsi, %rbx
Ltmp334:
	movq	%rdi, %r15
Ltmp335:
	.loc	11 11 17 prologue_end
	leaq	__ZN44_$LT$$RF$T$u20$as$u20$core..fmt..Display$GT$3fmt17h0663b18722df5164E(%rip), %rax
	movq	%rax, %xmm0
	leaq	l___unnamed_6(%rip), %rax
	movq	%rax, %xmm1
	punpcklqdq	%xmm0, %xmm1
	movdqa	%xmm1, -144(%rbp)
Ltmp336:
	.loc	1 328 9
	leaq	l___unnamed_2(%rip), %rax
Ltmp337:
	movq	%rax, -88(%rbp)
	movq	$2, -80(%rbp)
	movq	$0, -72(%rbp)
	leaq	-144(%rbp), %rax
Ltmp338:
	movq	%rax, -56(%rbp)
	movq	$1, -48(%rbp)
	leaq	-88(%rbp), %rsi
Ltmp339:
	.loc	11 11 17
	movq	%rbx, %rdi
	callq	__ZN4core3fmt9Formatter9write_fmt17h3dc2bf45afed3069E
	movb	$1, %cl
	.loc	11 11 50 is_stmt 0
	testb	%al, %al
	jne	LBB15_8
Ltmp340:
	.loc	11 0 0
	movzwl	(%r15), %eax
	movd	%eax, %xmm0
	pshufb	LCPI15_0(%rip), %xmm0
	movdqa	%xmm0, -112(%rbp)
	xorl	%r14d, %r14d
	leaq	-88(%rbp), %r15
Ltmp341:
	leaq	l___unnamed_3(%rip), %r13
Ltmp342:
	.loc	7 1137 52 is_stmt 1
	cmpq	$2, %r14
Ltmp343:
	.loc	8 211 9
	jne	LBB15_4
	jmp	LBB15_3
Ltmp344:
	.p2align	4, 0x90
LBB15_6:
	.loc	8 0 9 is_stmt 0
	movdqa	-112(%rbp), %xmm0
Ltmp345:
	.loc	4 63 36 is_stmt 1
	movdqa	%xmm0, -128(%rbp)
Ltmp346:
	.loc	11 0 0 is_stmt 0
	leaq	1(%r14), %r12
Ltmp347:
	.loc	4 63 36
	andl	$1, %r14d
Ltmp348:
	movzbl	-128(%rbp,%r14,8), %eax
Ltmp349:
	.loc	11 16 21 is_stmt 1
	movb	%al, -88(%rbp)
	movq	%r15, %rdi
	movq	%rbx, %rsi
	callq	__ZN4core3fmt3num50_$LT$impl$u20$core..fmt..Binary$u20$for$u20$u8$GT$3fmt17h27b26a79078c499fE
Ltmp350:
	.loc	11 0 0 is_stmt 0
	movq	%r12, %r14
Ltmp351:
	.loc	11 16 43
	testb	%al, %al
	jne	LBB15_7
Ltmp352:
	.loc	7 1137 52 is_stmt 1
	cmpq	$2, %r14
Ltmp353:
	.loc	8 211 9
	je	LBB15_3
Ltmp354:
LBB15_4:
	.loc	11 13 24
	testq	%r14, %r14
	.loc	11 13 21 is_stmt 0
	je	LBB15_6
Ltmp355:
	.loc	1 328 9 is_stmt 1
	movq	%r13, -88(%rbp)
	movq	$1, -80(%rbp)
	movq	$0, -72(%rbp)
Ltmp356:
	leaq	l___unnamed_4(%rip), %rax
	movq	%rax, -56(%rbp)
	movq	$0, -48(%rbp)
Ltmp357:
	.loc	11 14 25
	movq	%rbx, %rdi
	movq	%r15, %rsi
	callq	__ZN4core3fmt9Formatter9write_fmt17h3dc2bf45afed3069E
	.loc	11 14 40 is_stmt 0
	testb	%al, %al
	je	LBB15_6
Ltmp358:
LBB15_7:
	.loc	11 0 40
	movb	$1, %cl
	jmp	LBB15_8
Ltmp359:
LBB15_3:
	.loc	1 328 9 is_stmt 1
	leaq	l___unnamed_5(%rip), %rax
Ltmp360:
	movq	%rax, -88(%rbp)
	movq	$1, -80(%rbp)
	movq	$0, -72(%rbp)
Ltmp361:
	leaq	l___unnamed_4(%rip), %rax
Ltmp362:
	movq	%rax, -56(%rbp)
	movq	$0, -48(%rbp)
	leaq	-88(%rbp), %rsi
Ltmp363:
	.loc	11 18 17
	movq	%rbx, %rdi
	callq	__ZN4core3fmt9Formatter9write_fmt17h3dc2bf45afed3069E
	movl	%eax, %ecx
Ltmp364:
LBB15_8:
	.loc	11 19 14
	movl	%ecx, %eax
	addq	$104, %rsp
	popq	%rbx
Ltmp365:
	popq	%r12
	popq	%r13
	popq	%r14
	popq	%r15
	popq	%rbp
	retq
Ltmp366:
Lfunc_end15:
	.cfi_endproc

	.section	__TEXT,__literal16,16byte_literals
	.p2align	4
LCPI16_0:
	.byte	0
	.byte	128
	.byte	128
	.byte	128
	.byte	128
	.byte	128
	.byte	128
	.byte	128
	.byte	1
	.byte	128
	.byte	128
	.byte	128
	.byte	128
	.byte	128
	.byte	128
	.byte	128
	.section	__TEXT,__text,regular,pure_instructions
	.globl	__ZN11packed_simd3v16115_$LT$impl$u20$core..fmt..Debug$u20$for$u20$packed_simd..Simd$LT$$u5b$packed_simd..masks..m8$u3b$$u20$2$u5d$$GT$$GT$3fmt17hd71c0c0301a7e499E
	.p2align	4, 0x90
__ZN11packed_simd3v16115_$LT$impl$u20$core..fmt..Debug$u20$for$u20$packed_simd..Simd$LT$$u5b$packed_simd..masks..m8$u3b$$u20$2$u5d$$GT$$GT$3fmt17hd71c0c0301a7e499E:
Lfunc_begin16:
	.loc	3 49 0
	.cfi_startproc
	pushq	%rbp
	.cfi_def_cfa_offset 16
	.cfi_offset %rbp, -16
	movq	%rsp, %rbp
	.cfi_def_cfa_register %rbp
	pushq	%r15
	pushq	%r14
	pushq	%r13
	pushq	%r12
	pushq	%rbx
	subq	$104, %rsp
	.cfi_offset %rbx, -56
	.cfi_offset %r12, -48
	.cfi_offset %r13, -40
	.cfi_offset %r14, -32
	.cfi_offset %r15, -24
	movq	%rsi, %rbx
Ltmp367:
	movq	%rdi, %r15
Ltmp368:
	.loc	3 52 17 prologue_end
	leaq	__ZN44_$LT$$RF$T$u20$as$u20$core..fmt..Display$GT$3fmt17h0663b18722df5164E(%rip), %rax
	movq	%rax, %xmm0
	leaq	l___unnamed_7(%rip), %rax
	movq	%rax, %xmm1
	punpcklqdq	%xmm0, %xmm1
	movdqa	%xmm1, -144(%rbp)
Ltmp369:
	.loc	1 328 9
	leaq	l___unnamed_2(%rip), %rax
Ltmp370:
	movq	%rax, -88(%rbp)
	movq	$2, -80(%rbp)
	movq	$0, -72(%rbp)
	leaq	-144(%rbp), %rax
Ltmp371:
	movq	%rax, -56(%rbp)
	movq	$1, -48(%rbp)
	leaq	-88(%rbp), %rsi
Ltmp372:
	.loc	3 52 17
	movq	%rbx, %rdi
	callq	__ZN4core3fmt9Formatter9write_fmt17h3dc2bf45afed3069E
	movb	$1, %cl
	.loc	3 52 50 is_stmt 0
	testb	%al, %al
	jne	LBB16_8
Ltmp373:
	.loc	3 0 0
	movzwl	(%r15), %eax
	movd	%eax, %xmm0
	pshufb	LCPI16_0(%rip), %xmm0
	movdqa	%xmm0, -112(%rbp)
	xorl	%r14d, %r14d
	leaq	-88(%rbp), %r15
Ltmp374:
	leaq	l___unnamed_3(%rip), %r13
Ltmp375:
	.loc	7 1137 52 is_stmt 1
	cmpq	$2, %r14
Ltmp376:
	.loc	8 211 9
	jne	LBB16_4
	jmp	LBB16_3
Ltmp377:
	.p2align	4, 0x90
LBB16_6:
	.loc	8 0 9 is_stmt 0
	movdqa	-112(%rbp), %xmm0
Ltmp378:
	.file	12 "/Users/yingyuhang/.cargo/registry/src/github.com-1ecc6299db9ec823/packed_simd-0.3.3/src/api/minimal/mask.rs"
	.loc	12 67 36 is_stmt 1
	movdqa	%xmm0, -128(%rbp)
Ltmp379:
	.loc	3 0 0 is_stmt 0
	leaq	1(%r14), %r12
Ltmp380:
	.loc	12 67 36
	andl	$1, %r14d
Ltmp381:
	.loc	12 68 17 is_stmt 1
	cmpb	$0, -128(%rbp,%r14,8)
Ltmp382:
	.loc	3 57 21
	setne	-88(%rbp)
Ltmp383:
	.loc	1 2003 9
	movq	%r15, %rdi
	movq	%rbx, %rsi
	callq	__ZN43_$LT$bool$u20$as$u20$core..fmt..Display$GT$3fmt17hf36463fa8b480ab4E
Ltmp384:
	.loc	3 0 0 is_stmt 0
	movq	%r12, %r14
Ltmp385:
	.loc	3 57 43 is_stmt 1
	testb	%al, %al
	jne	LBB16_7
Ltmp386:
	.loc	7 1137 52
	cmpq	$2, %r14
Ltmp387:
	.loc	8 211 9
	je	LBB16_3
Ltmp388:
LBB16_4:
	.loc	3 54 24
	testq	%r14, %r14
	.loc	3 54 21 is_stmt 0
	je	LBB16_6
Ltmp389:
	.loc	1 328 9 is_stmt 1
	movq	%r13, -88(%rbp)
	movq	$1, -80(%rbp)
	movq	$0, -72(%rbp)
Ltmp390:
	leaq	l___unnamed_4(%rip), %rax
	movq	%rax, -56(%rbp)
	movq	$0, -48(%rbp)
Ltmp391:
	.loc	3 55 25
	movq	%rbx, %rdi
	movq	%r15, %rsi
	callq	__ZN4core3fmt9Formatter9write_fmt17h3dc2bf45afed3069E
	.loc	3 55 40 is_stmt 0
	testb	%al, %al
	je	LBB16_6
Ltmp392:
LBB16_7:
	.loc	3 0 40
	movb	$1, %cl
	jmp	LBB16_8
Ltmp393:
LBB16_3:
	.loc	1 328 9 is_stmt 1
	leaq	l___unnamed_5(%rip), %rax
Ltmp394:
	movq	%rax, -88(%rbp)
	movq	$1, -80(%rbp)
	movq	$0, -72(%rbp)
Ltmp395:
	leaq	l___unnamed_4(%rip), %rax
Ltmp396:
	movq	%rax, -56(%rbp)
	movq	$0, -48(%rbp)
	leaq	-88(%rbp), %rsi
Ltmp397:
	.loc	3 59 17
	movq	%rbx, %rdi
	callq	__ZN4core3fmt9Formatter9write_fmt17h3dc2bf45afed3069E
	movl	%eax, %ecx
Ltmp398:
LBB16_8:
	.loc	3 60 14
	movl	%ecx, %eax
	addq	$104, %rsp
	popq	%rbx
Ltmp399:
	popq	%r12
	popq	%r13
	popq	%r14
	popq	%r15
	popq	%rbp
	retq
Ltmp400:
Lfunc_end16:
	.cfi_endproc

	.globl	__ZN11packed_simd3v3295_$LT$impl$u20$core..fmt..Debug$u20$for$u20$packed_simd..Simd$LT$$u5b$i8$u3b$$u20$4$u5d$$GT$$GT$3fmt17he4ac7c95fbfa6119E
	.p2align	4, 0x90
__ZN11packed_simd3v3295_$LT$impl$u20$core..fmt..Debug$u20$for$u20$packed_simd..Simd$LT$$u5b$i8$u3b$$u20$4$u5d$$GT$$GT$3fmt17he4ac7c95fbfa6119E:
Lfunc_begin17:
	.loc	3 49 0
	.cfi_startproc
	pushq	%rbp
	.cfi_def_cfa_offset 16
	.cfi_offset %rbp, -16
	movq	%rsp, %rbp
	.cfi_def_cfa_register %rbp
	pushq	%r15
	pushq	%r14
	pushq	%r12
	pushq	%rbx
	subq	$96, %rsp
	.cfi_offset %rbx, -48
	.cfi_offset %r12, -40
	.cfi_offset %r14, -32
	.cfi_offset %r15, -24
	movq	%rsi, %r15
Ltmp401:
	movq	%rdi, %rbx
Ltmp402:
	.loc	3 52 17 prologue_end
	leaq	__ZN44_$LT$$RF$T$u20$as$u20$core..fmt..Display$GT$3fmt17h0663b18722df5164E(%rip), %rax
	movq	%rax, %xmm0
	leaq	l___unnamed_8(%rip), %rax
	movq	%rax, %xmm1
	punpcklqdq	%xmm0, %xmm1
	movdqa	%xmm1, -128(%rbp)
Ltmp403:
	.loc	1 328 9
	leaq	l___unnamed_2(%rip), %rax
Ltmp404:
	movq	%rax, -80(%rbp)
	movq	$2, -72(%rbp)
	movq	$0, -64(%rbp)
	leaq	-128(%rbp), %rax
Ltmp405:
	movq	%rax, -48(%rbp)
	movq	$1, -40(%rbp)
	leaq	-80(%rbp), %rsi
Ltmp406:
	.loc	3 52 17
	movq	%r15, %rdi
	callq	__ZN4core3fmt9Formatter9write_fmt17h3dc2bf45afed3069E
	movb	$1, %r14b
	.loc	3 52 50 is_stmt 0
	testb	%al, %al
	jne	LBB17_22
Ltmp407:
	.loc	3 0 0
	movd	(%rbx), %xmm0
	punpcklbw	%xmm0, %xmm0
	punpcklwd	%xmm0, %xmm0
Ltmp408:
	movdqa	%xmm0, -96(%rbp)
Ltmp409:
	.loc	4 63 36 is_stmt 1
	movdqa	%xmm0, -112(%rbp)
	movb	-112(%rbp), %al
Ltmp410:
	.loc	3 57 21
	movb	%al, -80(%rbp)
Ltmp411:
	.loc	5 149 20
	movq	%r15, %rdi
	callq	__ZN4core3fmt9Formatter15debug_lower_hex17h8530fbaeba13f4d9E
	.loc	5 149 17 is_stmt 0
	testb	%al, %al
	je	LBB17_2
Ltmp412:
	.loc	5 0 17
	leaq	-80(%rbp), %rdi
	.loc	5 150 21 is_stmt 1
	movq	%r15, %rsi
	callq	__ZN4core3fmt3num52_$LT$impl$u20$core..fmt..LowerHex$u20$for$u20$i8$GT$3fmt17h7f7e9f270a5d54c2E
Ltmp413:
	.loc	3 57 43
	testb	%al, %al
	je	LBB17_6
	jmp	LBB17_22
Ltmp414:
LBB17_2:
	.loc	5 151 27
	movq	%r15, %rdi
	callq	__ZN4core3fmt9Formatter15debug_upper_hex17hf8fda15ec43a1e68E
	leaq	-80(%rbp), %rdi
	.loc	5 154 21
	movq	%r15, %rsi
	.loc	5 151 24
	testb	%al, %al
	je	LBB17_4
Ltmp415:
	.loc	5 152 21
	callq	__ZN4core3fmt3num52_$LT$impl$u20$core..fmt..UpperHex$u20$for$u20$i8$GT$3fmt17hd41115610f011194E
Ltmp416:
	.loc	3 57 43
	testb	%al, %al
	je	LBB17_6
	jmp	LBB17_22
Ltmp417:
LBB17_4:
	.loc	5 154 21
	callq	__ZN4core3fmt3num3imp51_$LT$impl$u20$core..fmt..Display$u20$for$u20$i8$GT$3fmt17hc80f24a4257c3563E
Ltmp418:
	.loc	3 57 43
	testb	%al, %al
	jne	LBB17_22
Ltmp419:
LBB17_6:
	.loc	1 328 9
	leaq	l___unnamed_3(%rip), %rbx
Ltmp420:
	movq	%rbx, -80(%rbp)
	movq	$1, -72(%rbp)
	movq	$0, -64(%rbp)
	leaq	l___unnamed_4(%rip), %r12
Ltmp421:
	movq	%r12, -48(%rbp)
	movq	$0, -40(%rbp)
	leaq	-80(%rbp), %rsi
Ltmp422:
	.loc	3 55 25
	movq	%r15, %rdi
	callq	__ZN4core3fmt9Formatter9write_fmt17h3dc2bf45afed3069E
	.loc	3 55 40 is_stmt 0
	testb	%al, %al
	jne	LBB17_22
Ltmp423:
	.loc	3 0 40
	movdqa	-96(%rbp), %xmm0
Ltmp424:
	.loc	4 63 36 is_stmt 1
	pextrw	$2, %xmm0, %eax
Ltmp425:
	.loc	3 57 21
	movb	%al, -80(%rbp)
Ltmp426:
	.loc	5 149 20
	movq	%r15, %rdi
	callq	__ZN4core3fmt9Formatter15debug_lower_hex17h8530fbaeba13f4d9E
	.loc	5 149 17 is_stmt 0
	testb	%al, %al
	je	LBB17_8
Ltmp427:
	.loc	5 0 17
	leaq	-80(%rbp), %rdi
	.loc	5 150 21 is_stmt 1
	movq	%r15, %rsi
	callq	__ZN4core3fmt3num52_$LT$impl$u20$core..fmt..LowerHex$u20$for$u20$i8$GT$3fmt17h7f7e9f270a5d54c2E
Ltmp428:
	.loc	3 57 43
	testb	%al, %al
	je	LBB17_11
	jmp	LBB17_22
Ltmp429:
LBB17_8:
	.loc	5 151 27
	movq	%r15, %rdi
	callq	__ZN4core3fmt9Formatter15debug_upper_hex17hf8fda15ec43a1e68E
	leaq	-80(%rbp), %rdi
	.loc	5 152 21
	movq	%r15, %rsi
	.loc	5 151 24
	testb	%al, %al
	je	LBB17_9
Ltmp430:
	.loc	5 152 21
	callq	__ZN4core3fmt3num52_$LT$impl$u20$core..fmt..UpperHex$u20$for$u20$i8$GT$3fmt17hd41115610f011194E
Ltmp431:
	.loc	3 57 43
	testb	%al, %al
	je	LBB17_11
	jmp	LBB17_22
Ltmp432:
LBB17_9:
	.loc	5 154 21
	callq	__ZN4core3fmt3num3imp51_$LT$impl$u20$core..fmt..Display$u20$for$u20$i8$GT$3fmt17hc80f24a4257c3563E
Ltmp433:
	.loc	3 57 43
	testb	%al, %al
	jne	LBB17_22
Ltmp434:
LBB17_11:
	.loc	1 328 9
	movq	%rbx, -80(%rbp)
	movq	$1, -72(%rbp)
	movq	$0, -64(%rbp)
Ltmp435:
	movq	%r12, -48(%rbp)
	movq	$0, -40(%rbp)
	leaq	-80(%rbp), %rsi
Ltmp436:
	.loc	3 55 25
	movq	%r15, %rdi
	callq	__ZN4core3fmt9Formatter9write_fmt17h3dc2bf45afed3069E
	.loc	3 55 40 is_stmt 0
	testb	%al, %al
	jne	LBB17_22
Ltmp437:
	.loc	3 0 40
	movdqa	-96(%rbp), %xmm0
Ltmp438:
	.loc	4 63 36 is_stmt 1
	pextrw	$4, %xmm0, %eax
Ltmp439:
	.loc	3 57 21
	movb	%al, -80(%rbp)
Ltmp440:
	.loc	5 149 20
	movq	%r15, %rdi
	callq	__ZN4core3fmt9Formatter15debug_lower_hex17h8530fbaeba13f4d9E
	.loc	5 149 17 is_stmt 0
	testb	%al, %al
	je	LBB17_13
Ltmp441:
	.loc	5 0 17
	leaq	-80(%rbp), %rdi
	.loc	5 150 21 is_stmt 1
	movq	%r15, %rsi
	callq	__ZN4core3fmt3num52_$LT$impl$u20$core..fmt..LowerHex$u20$for$u20$i8$GT$3fmt17h7f7e9f270a5d54c2E
Ltmp442:
	.loc	3 57 43
	testb	%al, %al
	je	LBB17_16
	jmp	LBB17_22
Ltmp443:
LBB17_13:
	.loc	5 151 27
	movq	%r15, %rdi
	callq	__ZN4core3fmt9Formatter15debug_upper_hex17hf8fda15ec43a1e68E
	leaq	-80(%rbp), %rdi
	.loc	5 152 21
	movq	%r15, %rsi
	.loc	5 151 24
	testb	%al, %al
	je	LBB17_14
Ltmp444:
	.loc	5 152 21
	callq	__ZN4core3fmt3num52_$LT$impl$u20$core..fmt..UpperHex$u20$for$u20$i8$GT$3fmt17hd41115610f011194E
Ltmp445:
	.loc	3 57 43
	testb	%al, %al
	je	LBB17_16
	jmp	LBB17_22
Ltmp446:
LBB17_14:
	.loc	5 154 21
	callq	__ZN4core3fmt3num3imp51_$LT$impl$u20$core..fmt..Display$u20$for$u20$i8$GT$3fmt17hc80f24a4257c3563E
Ltmp447:
	.loc	3 57 43
	testb	%al, %al
	jne	LBB17_22
Ltmp448:
LBB17_16:
	.loc	1 328 9
	movq	%rbx, -80(%rbp)
	movq	$1, -72(%rbp)
	movq	$0, -64(%rbp)
Ltmp449:
	movq	%r12, -48(%rbp)
	movq	$0, -40(%rbp)
	leaq	-80(%rbp), %rsi
Ltmp450:
	.loc	3 55 25
	movq	%r15, %rdi
	callq	__ZN4core3fmt9Formatter9write_fmt17h3dc2bf45afed3069E
	.loc	3 55 40 is_stmt 0
	testb	%al, %al
	jne	LBB17_22
Ltmp451:
	.loc	3 0 40
	movdqa	-96(%rbp), %xmm0
Ltmp452:
	.loc	4 63 36 is_stmt 1
	pextrw	$6, %xmm0, %eax
Ltmp453:
	.loc	3 57 21
	movb	%al, -80(%rbp)
Ltmp454:
	.loc	5 149 20
	movq	%r15, %rdi
	callq	__ZN4core3fmt9Formatter15debug_lower_hex17h8530fbaeba13f4d9E
	.loc	5 149 17 is_stmt 0
	testb	%al, %al
	je	LBB17_18
Ltmp455:
	.loc	5 0 17
	leaq	-80(%rbp), %rdi
	.loc	5 150 21 is_stmt 1
	movq	%r15, %rsi
	callq	__ZN4core3fmt3num52_$LT$impl$u20$core..fmt..LowerHex$u20$for$u20$i8$GT$3fmt17h7f7e9f270a5d54c2E
Ltmp456:
	.loc	3 57 43
	testb	%al, %al
	je	LBB17_21
	jmp	LBB17_22
Ltmp457:
LBB17_18:
	.loc	5 151 27
	movq	%r15, %rdi
	callq	__ZN4core3fmt9Formatter15debug_upper_hex17hf8fda15ec43a1e68E
	leaq	-80(%rbp), %rdi
	.loc	5 152 21
	movq	%r15, %rsi
	.loc	5 151 24
	testb	%al, %al
	je	LBB17_19
Ltmp458:
	.loc	5 152 21
	callq	__ZN4core3fmt3num52_$LT$impl$u20$core..fmt..UpperHex$u20$for$u20$i8$GT$3fmt17hd41115610f011194E
Ltmp459:
	.loc	3 57 43
	testb	%al, %al
	je	LBB17_21
	jmp	LBB17_22
Ltmp460:
LBB17_19:
	.loc	5 154 21
	callq	__ZN4core3fmt3num3imp51_$LT$impl$u20$core..fmt..Display$u20$for$u20$i8$GT$3fmt17hc80f24a4257c3563E
Ltmp461:
	.loc	3 57 43
	testb	%al, %al
	jne	LBB17_22
Ltmp462:
LBB17_21:
	.loc	1 328 9
	leaq	l___unnamed_5(%rip), %rax
Ltmp463:
	movq	%rax, -80(%rbp)
	movq	$1, -72(%rbp)
	movq	$0, -64(%rbp)
Ltmp464:
	movq	%r12, -48(%rbp)
	movq	$0, -40(%rbp)
	leaq	-80(%rbp), %rsi
Ltmp465:
	.loc	3 59 17
	movq	%r15, %rdi
	callq	__ZN4core3fmt9Formatter9write_fmt17h3dc2bf45afed3069E
Ltmp466:
	movl	%eax, %r14d
Ltmp467:
LBB17_22:
	.loc	3 60 14
	movl	%r14d, %eax
	addq	$96, %rsp
	popq	%rbx
	popq	%r12
	popq	%r14
	popq	%r15
Ltmp468:
	popq	%rbp
	retq
Ltmp469:
Lfunc_end17:
	.cfi_endproc

	.globl	__ZN11packed_simd3v3298_$LT$impl$u20$core..fmt..LowerHex$u20$for$u20$packed_simd..Simd$LT$$u5b$i8$u3b$$u20$4$u5d$$GT$$GT$3fmt17h0bf6113d5ad6f677E
	.p2align	4, 0x90
__ZN11packed_simd3v3298_$LT$impl$u20$core..fmt..LowerHex$u20$for$u20$packed_simd..Simd$LT$$u5b$i8$u3b$$u20$4$u5d$$GT$$GT$3fmt17h0bf6113d5ad6f677E:
Lfunc_begin18:
	.loc	6 9 0
	.cfi_startproc
	pushq	%rbp
	.cfi_def_cfa_offset 16
	.cfi_offset %rbp, -16
	movq	%rsp, %rbp
	.cfi_def_cfa_register %rbp
	pushq	%r15
	pushq	%r14
	pushq	%r13
	pushq	%r12
	pushq	%rbx
	subq	$104, %rsp
	.cfi_offset %rbx, -56
	.cfi_offset %r12, -48
	.cfi_offset %r13, -40
	.cfi_offset %r14, -32
	.cfi_offset %r15, -24
	movq	%rsi, %rbx
Ltmp470:
	movq	%rdi, %r15
Ltmp471:
	.loc	6 11 17 prologue_end
	leaq	__ZN44_$LT$$RF$T$u20$as$u20$core..fmt..Display$GT$3fmt17h0663b18722df5164E(%rip), %rax
	movq	%rax, %xmm0
	leaq	l___unnamed_8(%rip), %rax
	movq	%rax, %xmm1
	punpcklqdq	%xmm0, %xmm1
	movdqa	%xmm1, -144(%rbp)
Ltmp472:
	.loc	1 328 9
	leaq	l___unnamed_2(%rip), %rax
Ltmp473:
	movq	%rax, -88(%rbp)
	movq	$2, -80(%rbp)
	movq	$0, -72(%rbp)
	leaq	-144(%rbp), %rax
Ltmp474:
	movq	%rax, -56(%rbp)
	movq	$1, -48(%rbp)
	leaq	-88(%rbp), %rsi
Ltmp475:
	.loc	6 11 17
	movq	%rbx, %rdi
	callq	__ZN4core3fmt9Formatter9write_fmt17h3dc2bf45afed3069E
	movb	$1, %cl
	.loc	6 11 50 is_stmt 0
	testb	%al, %al
	jne	LBB18_8
Ltmp476:
	.loc	6 0 0
	movd	(%r15), %xmm0
	punpcklbw	%xmm0, %xmm0
	punpcklwd	%xmm0, %xmm0
	movdqa	%xmm0, -112(%rbp)
	xorl	%r14d, %r14d
	leaq	-88(%rbp), %r15
Ltmp477:
	leaq	l___unnamed_3(%rip), %r13
Ltmp478:
	.loc	7 1137 52 is_stmt 1
	cmpq	$4, %r14
Ltmp479:
	.loc	8 211 9
	jne	LBB18_4
	jmp	LBB18_3
Ltmp480:
	.p2align	4, 0x90
LBB18_6:
	.loc	8 0 9 is_stmt 0
	movdqa	-112(%rbp), %xmm0
Ltmp481:
	.loc	4 63 36 is_stmt 1
	movdqa	%xmm0, -128(%rbp)
Ltmp482:
	.loc	6 0 0 is_stmt 0
	leaq	1(%r14), %r12
Ltmp483:
	.loc	4 63 36
	andl	$3, %r14d
Ltmp484:
	movzbl	-128(%rbp,%r14,4), %eax
Ltmp485:
	.loc	6 16 21 is_stmt 1
	movb	%al, -88(%rbp)
	movq	%r15, %rdi
	movq	%rbx, %rsi
	callq	__ZN4core3fmt3num52_$LT$impl$u20$core..fmt..LowerHex$u20$for$u20$i8$GT$3fmt17h7f7e9f270a5d54c2E
Ltmp486:
	.loc	6 0 0 is_stmt 0
	movq	%r12, %r14
Ltmp487:
	.loc	6 16 43
	testb	%al, %al
	jne	LBB18_7
Ltmp488:
	.loc	7 1137 52 is_stmt 1
	cmpq	$4, %r14
Ltmp489:
	.loc	8 211 9
	je	LBB18_3
Ltmp490:
LBB18_4:
	.loc	6 13 24
	testq	%r14, %r14
	.loc	6 13 21 is_stmt 0
	je	LBB18_6
Ltmp491:
	.loc	1 328 9 is_stmt 1
	movq	%r13, -88(%rbp)
	movq	$1, -80(%rbp)
	movq	$0, -72(%rbp)
Ltmp492:
	leaq	l___unnamed_4(%rip), %rax
	movq	%rax, -56(%rbp)
	movq	$0, -48(%rbp)
Ltmp493:
	.loc	6 14 25
	movq	%rbx, %rdi
	movq	%r15, %rsi
	callq	__ZN4core3fmt9Formatter9write_fmt17h3dc2bf45afed3069E
	.loc	6 14 40 is_stmt 0
	testb	%al, %al
	je	LBB18_6
Ltmp494:
LBB18_7:
	.loc	6 0 40
	movb	$1, %cl
	jmp	LBB18_8
Ltmp495:
LBB18_3:
	.loc	1 328 9 is_stmt 1
	leaq	l___unnamed_5(%rip), %rax
Ltmp496:
	movq	%rax, -88(%rbp)
	movq	$1, -80(%rbp)
	movq	$0, -72(%rbp)
Ltmp497:
	leaq	l___unnamed_4(%rip), %rax
Ltmp498:
	movq	%rax, -56(%rbp)
	movq	$0, -48(%rbp)
	leaq	-88(%rbp), %rsi
Ltmp499:
	.loc	6 18 17
	movq	%rbx, %rdi
	callq	__ZN4core3fmt9Formatter9write_fmt17h3dc2bf45afed3069E
	movl	%eax, %ecx
Ltmp500:
LBB18_8:
	.loc	6 19 14
	movl	%ecx, %eax
	addq	$104, %rsp
	popq	%rbx
Ltmp501:
	popq	%r12
	popq	%r13
	popq	%r14
	popq	%r15
	popq	%rbp
	retq
Ltmp502:
Lfunc_end18:
	.cfi_endproc

	.globl	__ZN11packed_simd3v3298_$LT$impl$u20$core..fmt..UpperHex$u20$for$u20$packed_simd..Simd$LT$$u5b$i8$u3b$$u20$4$u5d$$GT$$GT$3fmt17h157fb1afe81e3876E
	.p2align	4, 0x90
__ZN11packed_simd3v3298_$LT$impl$u20$core..fmt..UpperHex$u20$for$u20$packed_simd..Simd$LT$$u5b$i8$u3b$$u20$4$u5d$$GT$$GT$3fmt17h157fb1afe81e3876E:
Lfunc_begin19:
	.loc	9 9 0
	.cfi_startproc
	pushq	%rbp
	.cfi_def_cfa_offset 16
	.cfi_offset %rbp, -16
	movq	%rsp, %rbp
	.cfi_def_cfa_register %rbp
	pushq	%r15
	pushq	%r14
	pushq	%r13
	pushq	%r12
	pushq	%rbx
	subq	$104, %rsp
	.cfi_offset %rbx, -56
	.cfi_offset %r12, -48
	.cfi_offset %r13, -40
	.cfi_offset %r14, -32
	.cfi_offset %r15, -24
	movq	%rsi, %rbx
Ltmp503:
	movq	%rdi, %r15
Ltmp504:
	.loc	9 11 17 prologue_end
	leaq	__ZN44_$LT$$RF$T$u20$as$u20$core..fmt..Display$GT$3fmt17h0663b18722df5164E(%rip), %rax
	movq	%rax, %xmm0
	leaq	l___unnamed_8(%rip), %rax
	movq	%rax, %xmm1
	punpcklqdq	%xmm0, %xmm1
	movdqa	%xmm1, -144(%rbp)
Ltmp505:
	.loc	1 328 9
	leaq	l___unnamed_2(%rip), %rax
Ltmp506:
	movq	%rax, -88(%rbp)
	movq	$2, -80(%rbp)
	movq	$0, -72(%rbp)
	leaq	-144(%rbp), %rax
Ltmp507:
	movq	%rax, -56(%rbp)
	movq	$1, -48(%rbp)
	leaq	-88(%rbp), %rsi
Ltmp508:
	.loc	9 11 17
	movq	%rbx, %rdi
	callq	__ZN4core3fmt9Formatter9write_fmt17h3dc2bf45afed3069E
	movb	$1, %cl
	.loc	9 11 50 is_stmt 0
	testb	%al, %al
	jne	LBB19_8
Ltmp509:
	.loc	9 0 0
	movd	(%r15), %xmm0
	punpcklbw	%xmm0, %xmm0
	punpcklwd	%xmm0, %xmm0
	movdqa	%xmm0, -112(%rbp)
	xorl	%r14d, %r14d
	leaq	-88(%rbp), %r15
Ltmp510:
	leaq	l___unnamed_3(%rip), %r13
Ltmp511:
	.loc	7 1137 52 is_stmt 1
	cmpq	$4, %r14
Ltmp512:
	.loc	8 211 9
	jne	LBB19_4
	jmp	LBB19_3
Ltmp513:
	.p2align	4, 0x90
LBB19_6:
	.loc	8 0 9 is_stmt 0
	movdqa	-112(%rbp), %xmm0
Ltmp514:
	.loc	4 63 36 is_stmt 1
	movdqa	%xmm0, -128(%rbp)
Ltmp515:
	.loc	9 0 0 is_stmt 0
	leaq	1(%r14), %r12
Ltmp516:
	.loc	4 63 36
	andl	$3, %r14d
Ltmp517:
	movzbl	-128(%rbp,%r14,4), %eax
Ltmp518:
	.loc	9 16 21 is_stmt 1
	movb	%al, -88(%rbp)
	movq	%r15, %rdi
	movq	%rbx, %rsi
	callq	__ZN4core3fmt3num52_$LT$impl$u20$core..fmt..UpperHex$u20$for$u20$i8$GT$3fmt17hd41115610f011194E
Ltmp519:
	.loc	9 0 0 is_stmt 0
	movq	%r12, %r14
Ltmp520:
	.loc	9 16 43
	testb	%al, %al
	jne	LBB19_7
Ltmp521:
	.loc	7 1137 52 is_stmt 1
	cmpq	$4, %r14
Ltmp522:
	.loc	8 211 9
	je	LBB19_3
Ltmp523:
LBB19_4:
	.loc	9 13 24
	testq	%r14, %r14
	.loc	9 13 21 is_stmt 0
	je	LBB19_6
Ltmp524:
	.loc	1 328 9 is_stmt 1
	movq	%r13, -88(%rbp)
	movq	$1, -80(%rbp)
	movq	$0, -72(%rbp)
Ltmp525:
	leaq	l___unnamed_4(%rip), %rax
	movq	%rax, -56(%rbp)
	movq	$0, -48(%rbp)
Ltmp526:
	.loc	9 14 25
	movq	%rbx, %rdi
	movq	%r15, %rsi
	callq	__ZN4core3fmt9Formatter9write_fmt17h3dc2bf45afed3069E
	.loc	9 14 40 is_stmt 0
	testb	%al, %al
	je	LBB19_6
Ltmp527:
LBB19_7:
	.loc	9 0 40
	movb	$1, %cl
	jmp	LBB19_8
Ltmp528:
LBB19_3:
	.loc	1 328 9 is_stmt 1
	leaq	l___unnamed_5(%rip), %rax
Ltmp529:
	movq	%rax, -88(%rbp)
	movq	$1, -80(%rbp)
	movq	$0, -72(%rbp)
Ltmp530:
	leaq	l___unnamed_4(%rip), %rax
Ltmp531:
	movq	%rax, -56(%rbp)
	movq	$0, -48(%rbp)
	leaq	-88(%rbp), %rsi
Ltmp532:
	.loc	9 18 17
	movq	%rbx, %rdi
	callq	__ZN4core3fmt9Formatter9write_fmt17h3dc2bf45afed3069E
	movl	%eax, %ecx
Ltmp533:
LBB19_8:
	.loc	9 19 14
	movl	%ecx, %eax
	addq	$104, %rsp
	popq	%rbx
Ltmp534:
	popq	%r12
	popq	%r13
	popq	%r14
	popq	%r15
	popq	%rbp
	retq
Ltmp535:
Lfunc_end19:
	.cfi_endproc

	.globl	__ZN11packed_simd3v3295_$LT$impl$u20$core..fmt..Octal$u20$for$u20$packed_simd..Simd$LT$$u5b$i8$u3b$$u20$4$u5d$$GT$$GT$3fmt17habf9c4be7cc78341E
	.p2align	4, 0x90
__ZN11packed_simd3v3295_$LT$impl$u20$core..fmt..Octal$u20$for$u20$packed_simd..Simd$LT$$u5b$i8$u3b$$u20$4$u5d$$GT$$GT$3fmt17habf9c4be7cc78341E:
Lfunc_begin20:
	.loc	10 9 0
	.cfi_startproc
	pushq	%rbp
	.cfi_def_cfa_offset 16
	.cfi_offset %rbp, -16
	movq	%rsp, %rbp
	.cfi_def_cfa_register %rbp
	pushq	%r15
	pushq	%r14
	pushq	%r13
	pushq	%r12
	pushq	%rbx
	subq	$104, %rsp
	.cfi_offset %rbx, -56
	.cfi_offset %r12, -48
	.cfi_offset %r13, -40
	.cfi_offset %r14, -32
	.cfi_offset %r15, -24
	movq	%rsi, %rbx
Ltmp536:
	movq	%rdi, %r15
Ltmp537:
	.loc	10 11 17 prologue_end
	leaq	__ZN44_$LT$$RF$T$u20$as$u20$core..fmt..Display$GT$3fmt17h0663b18722df5164E(%rip), %rax
	movq	%rax, %xmm0
	leaq	l___unnamed_8(%rip), %rax
	movq	%rax, %xmm1
	punpcklqdq	%xmm0, %xmm1
	movdqa	%xmm1, -144(%rbp)
Ltmp538:
	.loc	1 328 9
	leaq	l___unnamed_2(%rip), %rax
Ltmp539:
	movq	%rax, -88(%rbp)
	movq	$2, -80(%rbp)
	movq	$0, -72(%rbp)
	leaq	-144(%rbp), %rax
Ltmp540:
	movq	%rax, -56(%rbp)
	movq	$1, -48(%rbp)
	leaq	-88(%rbp), %rsi
Ltmp541:
	.loc	10 11 17
	movq	%rbx, %rdi
	callq	__ZN4core3fmt9Formatter9write_fmt17h3dc2bf45afed3069E
	movb	$1, %cl
	.loc	10 11 50 is_stmt 0
	testb	%al, %al
	jne	LBB20_8
Ltmp542:
	.loc	10 0 0
	movd	(%r15), %xmm0
	punpcklbw	%xmm0, %xmm0
	punpcklwd	%xmm0, %xmm0
	movdqa	%xmm0, -112(%rbp)
	xorl	%r14d, %r14d
	leaq	-88(%rbp), %r15
Ltmp543:
	leaq	l___unnamed_3(%rip), %r13
Ltmp544:
	.loc	7 1137 52 is_stmt 1
	cmpq	$4, %r14
Ltmp545:
	.loc	8 211 9
	jne	LBB20_4
	jmp	LBB20_3
Ltmp546:
	.p2align	4, 0x90
LBB20_6:
	.loc	8 0 9 is_stmt 0
	movdqa	-112(%rbp), %xmm0
Ltmp547:
	.loc	4 63 36 is_stmt 1
	movdqa	%xmm0, -128(%rbp)
Ltmp548:
	.loc	10 0 0 is_stmt 0
	leaq	1(%r14), %r12
Ltmp549:
	.loc	4 63 36
	andl	$3, %r14d
Ltmp550:
	movzbl	-128(%rbp,%r14,4), %eax
Ltmp551:
	.loc	10 16 21 is_stmt 1
	movb	%al, -88(%rbp)
	movq	%r15, %rdi
	movq	%rbx, %rsi
	callq	__ZN4core3fmt3num49_$LT$impl$u20$core..fmt..Octal$u20$for$u20$i8$GT$3fmt17h29cc81c11127ecd6E
Ltmp552:
	.loc	10 0 0 is_stmt 0
	movq	%r12, %r14
Ltmp553:
	.loc	10 16 43
	testb	%al, %al
	jne	LBB20_7
Ltmp554:
	.loc	7 1137 52 is_stmt 1
	cmpq	$4, %r14
Ltmp555:
	.loc	8 211 9
	je	LBB20_3
Ltmp556:
LBB20_4:
	.loc	10 13 24
	testq	%r14, %r14
	.loc	10 13 21 is_stmt 0
	je	LBB20_6
Ltmp557:
	.loc	1 328 9 is_stmt 1
	movq	%r13, -88(%rbp)
	movq	$1, -80(%rbp)
	movq	$0, -72(%rbp)
Ltmp558:
	leaq	l___unnamed_4(%rip), %rax
	movq	%rax, -56(%rbp)
	movq	$0, -48(%rbp)
Ltmp559:
	.loc	10 14 25
	movq	%rbx, %rdi
	movq	%r15, %rsi
	callq	__ZN4core3fmt9Formatter9write_fmt17h3dc2bf45afed3069E
	.loc	10 14 40 is_stmt 0
	testb	%al, %al
	je	LBB20_6
Ltmp560:
LBB20_7:
	.loc	10 0 40
	movb	$1, %cl
	jmp	LBB20_8
Ltmp561:
LBB20_3:
	.loc	1 328 9 is_stmt 1
	leaq	l___unnamed_5(%rip), %rax
Ltmp562:
	movq	%rax, -88(%rbp)
	movq	$1, -80(%rbp)
	movq	$0, -72(%rbp)
Ltmp563:
	leaq	l___unnamed_4(%rip), %rax
Ltmp564:
	movq	%rax, -56(%rbp)
	movq	$0, -48(%rbp)
	leaq	-88(%rbp), %rsi
Ltmp565:
	.loc	10 18 17
	movq	%rbx, %rdi
	callq	__ZN4core3fmt9Formatter9write_fmt17h3dc2bf45afed3069E
	movl	%eax, %ecx
Ltmp566:
LBB20_8:
	.loc	10 19 14
	movl	%ecx, %eax
	addq	$104, %rsp
	popq	%rbx
Ltmp567:
	popq	%r12
	popq	%r13
	popq	%r14
	popq	%r15
	popq	%rbp
	retq
Ltmp568:
Lfunc_end20:
	.cfi_endproc

	.globl	__ZN11packed_simd3v3296_$LT$impl$u20$core..fmt..Binary$u20$for$u20$packed_simd..Simd$LT$$u5b$i8$u3b$$u20$4$u5d$$GT$$GT$3fmt17hb24cc01279784aa9E
	.p2align	4, 0x90
__ZN11packed_simd3v3296_$LT$impl$u20$core..fmt..Binary$u20$for$u20$packed_simd..Simd$LT$$u5b$i8$u3b$$u20$4$u5d$$GT$$GT$3fmt17hb24cc01279784aa9E:
Lfunc_begin21:
	.loc	11 9 0
	.cfi_startproc
	pushq	%rbp
	.cfi_def_cfa_offset 16
	.cfi_offset %rbp, -16
	movq	%rsp, %rbp
	.cfi_def_cfa_register %rbp
	pushq	%r15
	pushq	%r14
	pushq	%r13
	pushq	%r12
	pushq	%rbx
	subq	$104, %rsp
	.cfi_offset %rbx, -56
	.cfi_offset %r12, -48
	.cfi_offset %r13, -40
	.cfi_offset %r14, -32
	.cfi_offset %r15, -24
	movq	%rsi, %rbx
Ltmp569:
	movq	%rdi, %r15
Ltmp570:
	.loc	11 11 17 prologue_end
	leaq	__ZN44_$LT$$RF$T$u20$as$u20$core..fmt..Display$GT$3fmt17h0663b18722df5164E(%rip), %rax
	movq	%rax, %xmm0
	leaq	l___unnamed_8(%rip), %rax
	movq	%rax, %xmm1
	punpcklqdq	%xmm0, %xmm1
	movdqa	%xmm1, -144(%rbp)
Ltmp571:
	.loc	1 328 9
	leaq	l___unnamed_2(%rip), %rax
Ltmp572:
	movq	%rax, -88(%rbp)
	movq	$2, -80(%rbp)
	movq	$0, -72(%rbp)
	leaq	-144(%rbp), %rax
Ltmp573:
	movq	%rax, -56(%rbp)
	movq	$1, -48(%rbp)
	leaq	-88(%rbp), %rsi
Ltmp574:
	.loc	11 11 17
	movq	%rbx, %rdi
	callq	__ZN4core3fmt9Formatter9write_fmt17h3dc2bf45afed3069E
	movb	$1, %cl
	.loc	11 11 50 is_stmt 0
	testb	%al, %al
	jne	LBB21_8
Ltmp575:
	.loc	11 0 0
	movd	(%r15), %xmm0
	punpcklbw	%xmm0, %xmm0
	punpcklwd	%xmm0, %xmm0
	movdqa	%xmm0, -112(%rbp)
	xorl	%r14d, %r14d
	leaq	-88(%rbp), %r15
Ltmp576:
	leaq	l___unnamed_3(%rip), %r13
Ltmp577:
	.loc	7 1137 52 is_stmt 1
	cmpq	$4, %r14
Ltmp578:
	.loc	8 211 9
	jne	LBB21_4
	jmp	LBB21_3
Ltmp579:
	.p2align	4, 0x90
LBB21_6:
	.loc	8 0 9 is_stmt 0
	movdqa	-112(%rbp), %xmm0
Ltmp580:
	.loc	4 63 36 is_stmt 1
	movdqa	%xmm0, -128(%rbp)
Ltmp581:
	.loc	11 0 0 is_stmt 0
	leaq	1(%r14), %r12
Ltmp582:
	.loc	4 63 36
	andl	$3, %r14d
Ltmp583:
	movzbl	-128(%rbp,%r14,4), %eax
Ltmp584:
	.loc	11 16 21 is_stmt 1
	movb	%al, -88(%rbp)
	movq	%r15, %rdi
	movq	%rbx, %rsi
	callq	__ZN4core3fmt3num50_$LT$impl$u20$core..fmt..Binary$u20$for$u20$i8$GT$3fmt17h6b85acc99cf4b968E
Ltmp585:
	.loc	11 0 0 is_stmt 0
	movq	%r12, %r14
Ltmp586:
	.loc	11 16 43
	testb	%al, %al
	jne	LBB21_7
Ltmp587:
	.loc	7 1137 52 is_stmt 1
	cmpq	$4, %r14
Ltmp588:
	.loc	8 211 9
	je	LBB21_3
Ltmp589:
LBB21_4:
	.loc	11 13 24
	testq	%r14, %r14
	.loc	11 13 21 is_stmt 0
	je	LBB21_6
Ltmp590:
	.loc	1 328 9 is_stmt 1
	movq	%r13, -88(%rbp)
	movq	$1, -80(%rbp)
	movq	$0, -72(%rbp)
Ltmp591:
	leaq	l___unnamed_4(%rip), %rax
	movq	%rax, -56(%rbp)
	movq	$0, -48(%rbp)
Ltmp592:
	.loc	11 14 25
	movq	%rbx, %rdi
	movq	%r15, %rsi
	callq	__ZN4core3fmt9Formatter9write_fmt17h3dc2bf45afed3069E
	.loc	11 14 40 is_stmt 0
	testb	%al, %al
	je	LBB21_6
Ltmp593:
LBB21_7:
	.loc	11 0 40
	movb	$1, %cl
	jmp	LBB21_8
Ltmp594:
LBB21_3:
	.loc	1 328 9 is_stmt 1
	leaq	l___unnamed_5(%rip), %rax
Ltmp595:
	movq	%rax, -88(%rbp)
	movq	$1, -80(%rbp)
	movq	$0, -72(%rbp)
Ltmp596:
	leaq	l___unnamed_4(%rip), %rax
Ltmp597:
	movq	%rax, -56(%rbp)
	movq	$0, -48(%rbp)
	leaq	-88(%rbp), %rsi
Ltmp598:
	.loc	11 18 17
	movq	%rbx, %rdi
	callq	__ZN4core3fmt9Formatter9write_fmt17h3dc2bf45afed3069E
	movl	%eax, %ecx
Ltmp599:
LBB21_8:
	.loc	11 19 14
	movl	%ecx, %eax
	addq	$104, %rsp
	popq	%rbx
Ltmp600:
	popq	%r12
	popq	%r13
	popq	%r14
	popq	%r15
	popq	%rbp
	retq
Ltmp601:
Lfunc_end21:
	.cfi_endproc

	.globl	__ZN11packed_simd3v3295_$LT$impl$u20$core..fmt..Debug$u20$for$u20$packed_simd..Simd$LT$$u5b$u8$u3b$$u20$4$u5d$$GT$$GT$3fmt17h7fa06ec005b62399E
	.p2align	4, 0x90
__ZN11packed_simd3v3295_$LT$impl$u20$core..fmt..Debug$u20$for$u20$packed_simd..Simd$LT$$u5b$u8$u3b$$u20$4$u5d$$GT$$GT$3fmt17h7fa06ec005b62399E:
Lfunc_begin22:
	.loc	3 49 0
	.cfi_startproc
	pushq	%rbp
	.cfi_def_cfa_offset 16
	.cfi_offset %rbp, -16
	movq	%rsp, %rbp
	.cfi_def_cfa_register %rbp
	pushq	%r15
	pushq	%r14
	pushq	%r12
	pushq	%rbx
	subq	$96, %rsp
	.cfi_offset %rbx, -48
	.cfi_offset %r12, -40
	.cfi_offset %r14, -32
	.cfi_offset %r15, -24
	movq	%rsi, %r15
Ltmp602:
	movq	%rdi, %rbx
Ltmp603:
	.loc	3 52 17 prologue_end
	leaq	__ZN44_$LT$$RF$T$u20$as$u20$core..fmt..Display$GT$3fmt17h0663b18722df5164E(%rip), %rax
	movq	%rax, %xmm0
	leaq	l___unnamed_9(%rip), %rax
	movq	%rax, %xmm1
	punpcklqdq	%xmm0, %xmm1
	movdqa	%xmm1, -128(%rbp)
Ltmp604:
	.loc	1 328 9
	leaq	l___unnamed_2(%rip), %rax
Ltmp605:
	movq	%rax, -80(%rbp)
	movq	$2, -72(%rbp)
	movq	$0, -64(%rbp)
	leaq	-128(%rbp), %rax
Ltmp606:
	movq	%rax, -48(%rbp)
	movq	$1, -40(%rbp)
	leaq	-80(%rbp), %rsi
Ltmp607:
	.loc	3 52 17
	movq	%r15, %rdi
	callq	__ZN4core3fmt9Formatter9write_fmt17h3dc2bf45afed3069E
	movb	$1, %r14b
	.loc	3 52 50 is_stmt 0
	testb	%al, %al
	jne	LBB22_22
Ltmp608:
	.loc	3 0 0
	movd	(%rbx), %xmm0
	punpcklbw	%xmm0, %xmm0
	punpcklwd	%xmm0, %xmm0
Ltmp609:
	movdqa	%xmm0, -96(%rbp)
Ltmp610:
	.loc	4 63 36 is_stmt 1
	movdqa	%xmm0, -112(%rbp)
	movb	-112(%rbp), %al
Ltmp611:
	.loc	3 57 21
	movb	%al, -80(%rbp)
Ltmp612:
	.loc	5 149 20
	movq	%r15, %rdi
	callq	__ZN4core3fmt9Formatter15debug_lower_hex17h8530fbaeba13f4d9E
	.loc	5 149 17 is_stmt 0
	testb	%al, %al
	je	LBB22_2
Ltmp613:
	.loc	5 0 17
	leaq	-80(%rbp), %rdi
	.loc	5 150 21 is_stmt 1
	movq	%r15, %rsi
	callq	__ZN4core3fmt3num52_$LT$impl$u20$core..fmt..LowerHex$u20$for$u20$u8$GT$3fmt17h7701faa643a10c55E
Ltmp614:
	.loc	3 57 43
	testb	%al, %al
	je	LBB22_6
	jmp	LBB22_22
Ltmp615:
LBB22_2:
	.loc	5 151 27
	movq	%r15, %rdi
	callq	__ZN4core3fmt9Formatter15debug_upper_hex17hf8fda15ec43a1e68E
	leaq	-80(%rbp), %rdi
	.loc	5 154 21
	movq	%r15, %rsi
	.loc	5 151 24
	testb	%al, %al
	je	LBB22_4
Ltmp616:
	.loc	5 152 21
	callq	__ZN4core3fmt3num52_$LT$impl$u20$core..fmt..UpperHex$u20$for$u20$u8$GT$3fmt17ha797e73a900719d8E
Ltmp617:
	.loc	3 57 43
	testb	%al, %al
	je	LBB22_6
	jmp	LBB22_22
Ltmp618:
LBB22_4:
	.loc	5 154 21
	callq	__ZN4core3fmt3num3imp51_$LT$impl$u20$core..fmt..Display$u20$for$u20$u8$GT$3fmt17h0e89df114e53d66dE
Ltmp619:
	.loc	3 57 43
	testb	%al, %al
	jne	LBB22_22
Ltmp620:
LBB22_6:
	.loc	1 328 9
	leaq	l___unnamed_3(%rip), %rbx
Ltmp621:
	movq	%rbx, -80(%rbp)
	movq	$1, -72(%rbp)
	movq	$0, -64(%rbp)
	leaq	l___unnamed_4(%rip), %r12
Ltmp622:
	movq	%r12, -48(%rbp)
	movq	$0, -40(%rbp)
	leaq	-80(%rbp), %rsi
Ltmp623:
	.loc	3 55 25
	movq	%r15, %rdi
	callq	__ZN4core3fmt9Formatter9write_fmt17h3dc2bf45afed3069E
	.loc	3 55 40 is_stmt 0
	testb	%al, %al
	jne	LBB22_22
Ltmp624:
	.loc	3 0 40
	movdqa	-96(%rbp), %xmm0
Ltmp625:
	.loc	4 63 36 is_stmt 1
	pextrw	$2, %xmm0, %eax
Ltmp626:
	.loc	3 57 21
	movb	%al, -80(%rbp)
Ltmp627:
	.loc	5 149 20
	movq	%r15, %rdi
	callq	__ZN4core3fmt9Formatter15debug_lower_hex17h8530fbaeba13f4d9E
	.loc	5 149 17 is_stmt 0
	testb	%al, %al
	je	LBB22_8
Ltmp628:
	.loc	5 0 17
	leaq	-80(%rbp), %rdi
	.loc	5 150 21 is_stmt 1
	movq	%r15, %rsi
	callq	__ZN4core3fmt3num52_$LT$impl$u20$core..fmt..LowerHex$u20$for$u20$u8$GT$3fmt17h7701faa643a10c55E
Ltmp629:
	.loc	3 57 43
	testb	%al, %al
	je	LBB22_11
	jmp	LBB22_22
Ltmp630:
LBB22_8:
	.loc	5 151 27
	movq	%r15, %rdi
	callq	__ZN4core3fmt9Formatter15debug_upper_hex17hf8fda15ec43a1e68E
	leaq	-80(%rbp), %rdi
	.loc	5 152 21
	movq	%r15, %rsi
	.loc	5 151 24
	testb	%al, %al
	je	LBB22_9
Ltmp631:
	.loc	5 152 21
	callq	__ZN4core3fmt3num52_$LT$impl$u20$core..fmt..UpperHex$u20$for$u20$u8$GT$3fmt17ha797e73a900719d8E
Ltmp632:
	.loc	3 57 43
	testb	%al, %al
	je	LBB22_11
	jmp	LBB22_22
Ltmp633:
LBB22_9:
	.loc	5 154 21
	callq	__ZN4core3fmt3num3imp51_$LT$impl$u20$core..fmt..Display$u20$for$u20$u8$GT$3fmt17h0e89df114e53d66dE
Ltmp634:
	.loc	3 57 43
	testb	%al, %al
	jne	LBB22_22
Ltmp635:
LBB22_11:
	.loc	1 328 9
	movq	%rbx, -80(%rbp)
	movq	$1, -72(%rbp)
	movq	$0, -64(%rbp)
Ltmp636:
	movq	%r12, -48(%rbp)
	movq	$0, -40(%rbp)
	leaq	-80(%rbp), %rsi
Ltmp637:
	.loc	3 55 25
	movq	%r15, %rdi
	callq	__ZN4core3fmt9Formatter9write_fmt17h3dc2bf45afed3069E
	.loc	3 55 40 is_stmt 0
	testb	%al, %al
	jne	LBB22_22
Ltmp638:
	.loc	3 0 40
	movdqa	-96(%rbp), %xmm0
Ltmp639:
	.loc	4 63 36 is_stmt 1
	pextrw	$4, %xmm0, %eax
Ltmp640:
	.loc	3 57 21
	movb	%al, -80(%rbp)
Ltmp641:
	.loc	5 149 20
	movq	%r15, %rdi
	callq	__ZN4core3fmt9Formatter15debug_lower_hex17h8530fbaeba13f4d9E
	.loc	5 149 17 is_stmt 0
	testb	%al, %al
	je	LBB22_13
Ltmp642:
	.loc	5 0 17
	leaq	-80(%rbp), %rdi
	.loc	5 150 21 is_stmt 1
	movq	%r15, %rsi
	callq	__ZN4core3fmt3num52_$LT$impl$u20$core..fmt..LowerHex$u20$for$u20$u8$GT$3fmt17h7701faa643a10c55E
Ltmp643:
	.loc	3 57 43
	testb	%al, %al
	je	LBB22_16
	jmp	LBB22_22
Ltmp644:
LBB22_13:
	.loc	5 151 27
	movq	%r15, %rdi
	callq	__ZN4core3fmt9Formatter15debug_upper_hex17hf8fda15ec43a1e68E
	leaq	-80(%rbp), %rdi
	.loc	5 152 21
	movq	%r15, %rsi
	.loc	5 151 24
	testb	%al, %al
	je	LBB22_14
Ltmp645:
	.loc	5 152 21
	callq	__ZN4core3fmt3num52_$LT$impl$u20$core..fmt..UpperHex$u20$for$u20$u8$GT$3fmt17ha797e73a900719d8E
Ltmp646:
	.loc	3 57 43
	testb	%al, %al
	je	LBB22_16
	jmp	LBB22_22
Ltmp647:
LBB22_14:
	.loc	5 154 21
	callq	__ZN4core3fmt3num3imp51_$LT$impl$u20$core..fmt..Display$u20$for$u20$u8$GT$3fmt17h0e89df114e53d66dE
Ltmp648:
	.loc	3 57 43
	testb	%al, %al
	jne	LBB22_22
Ltmp649:
LBB22_16:
	.loc	1 328 9
	movq	%rbx, -80(%rbp)
	movq	$1, -72(%rbp)
	movq	$0, -64(%rbp)
Ltmp650:
	movq	%r12, -48(%rbp)
	movq	$0, -40(%rbp)
	leaq	-80(%rbp), %rsi
Ltmp651:
	.loc	3 55 25
	movq	%r15, %rdi
	callq	__ZN4core3fmt9Formatter9write_fmt17h3dc2bf45afed3069E
	.loc	3 55 40 is_stmt 0
	testb	%al, %al
	jne	LBB22_22
Ltmp652:
	.loc	3 0 40
	movdqa	-96(%rbp), %xmm0
Ltmp653:
	.loc	4 63 36 is_stmt 1
	pextrw	$6, %xmm0, %eax
Ltmp654:
	.loc	3 57 21
	movb	%al, -80(%rbp)
Ltmp655:
	.loc	5 149 20
	movq	%r15, %rdi
	callq	__ZN4core3fmt9Formatter15debug_lower_hex17h8530fbaeba13f4d9E
	.loc	5 149 17 is_stmt 0
	testb	%al, %al
	je	LBB22_18
Ltmp656:
	.loc	5 0 17
	leaq	-80(%rbp), %rdi
	.loc	5 150 21 is_stmt 1
	movq	%r15, %rsi
	callq	__ZN4core3fmt3num52_$LT$impl$u20$core..fmt..LowerHex$u20$for$u20$u8$GT$3fmt17h7701faa643a10c55E
Ltmp657:
	.loc	3 57 43
	testb	%al, %al
	je	LBB22_21
	jmp	LBB22_22
Ltmp658:
LBB22_18:
	.loc	5 151 27
	movq	%r15, %rdi
	callq	__ZN4core3fmt9Formatter15debug_upper_hex17hf8fda15ec43a1e68E
	leaq	-80(%rbp), %rdi
	.loc	5 152 21
	movq	%r15, %rsi
	.loc	5 151 24
	testb	%al, %al
	je	LBB22_19
Ltmp659:
	.loc	5 152 21
	callq	__ZN4core3fmt3num52_$LT$impl$u20$core..fmt..UpperHex$u20$for$u20$u8$GT$3fmt17ha797e73a900719d8E
Ltmp660:
	.loc	3 57 43
	testb	%al, %al
	je	LBB22_21
	jmp	LBB22_22
Ltmp661:
LBB22_19:
	.loc	5 154 21
	callq	__ZN4core3fmt3num3imp51_$LT$impl$u20$core..fmt..Display$u20$for$u20$u8$GT$3fmt17h0e89df114e53d66dE
Ltmp662:
	.loc	3 57 43
	testb	%al, %al
	jne	LBB22_22
Ltmp663:
LBB22_21:
	.loc	1 328 9
	leaq	l___unnamed_5(%rip), %rax
Ltmp664:
	movq	%rax, -80(%rbp)
	movq	$1, -72(%rbp)
	movq	$0, -64(%rbp)
Ltmp665:
	movq	%r12, -48(%rbp)
	movq	$0, -40(%rbp)
	leaq	-80(%rbp), %rsi
Ltmp666:
	.loc	3 59 17
	movq	%r15, %rdi
	callq	__ZN4core3fmt9Formatter9write_fmt17h3dc2bf45afed3069E
Ltmp667:
	movl	%eax, %r14d
Ltmp668:
LBB22_22:
	.loc	3 60 14
	movl	%r14d, %eax
	addq	$96, %rsp
	popq	%rbx
	popq	%r12
	popq	%r14
	popq	%r15
Ltmp669:
	popq	%rbp
	retq
Ltmp670:
Lfunc_end22:
	.cfi_endproc

	.globl	__ZN11packed_simd3v3298_$LT$impl$u20$core..fmt..LowerHex$u20$for$u20$packed_simd..Simd$LT$$u5b$u8$u3b$$u20$4$u5d$$GT$$GT$3fmt17h2fdb6a50b8a2060fE
	.p2align	4, 0x90
__ZN11packed_simd3v3298_$LT$impl$u20$core..fmt..LowerHex$u20$for$u20$packed_simd..Simd$LT$$u5b$u8$u3b$$u20$4$u5d$$GT$$GT$3fmt17h2fdb6a50b8a2060fE:
Lfunc_begin23:
	.loc	6 9 0
	.cfi_startproc
	pushq	%rbp
	.cfi_def_cfa_offset 16
	.cfi_offset %rbp, -16
	movq	%rsp, %rbp
	.cfi_def_cfa_register %rbp
	pushq	%r15
	pushq	%r14
	pushq	%r13
	pushq	%r12
	pushq	%rbx
	subq	$104, %rsp
	.cfi_offset %rbx, -56
	.cfi_offset %r12, -48
	.cfi_offset %r13, -40
	.cfi_offset %r14, -32
	.cfi_offset %r15, -24
	movq	%rsi, %rbx
Ltmp671:
	movq	%rdi, %r15
Ltmp672:
	.loc	6 11 17 prologue_end
	leaq	__ZN44_$LT$$RF$T$u20$as$u20$core..fmt..Display$GT$3fmt17h0663b18722df5164E(%rip), %rax
	movq	%rax, %xmm0
	leaq	l___unnamed_9(%rip), %rax
	movq	%rax, %xmm1
	punpcklqdq	%xmm0, %xmm1
	movdqa	%xmm1, -144(%rbp)
Ltmp673:
	.loc	1 328 9
	leaq	l___unnamed_2(%rip), %rax
Ltmp674:
	movq	%rax, -88(%rbp)
	movq	$2, -80(%rbp)
	movq	$0, -72(%rbp)
	leaq	-144(%rbp), %rax
Ltmp675:
	movq	%rax, -56(%rbp)
	movq	$1, -48(%rbp)
	leaq	-88(%rbp), %rsi
Ltmp676:
	.loc	6 11 17
	movq	%rbx, %rdi
	callq	__ZN4core3fmt9Formatter9write_fmt17h3dc2bf45afed3069E
	movb	$1, %cl
	.loc	6 11 50 is_stmt 0
	testb	%al, %al
	jne	LBB23_8
Ltmp677:
	.loc	6 0 0
	movd	(%r15), %xmm0
	punpcklbw	%xmm0, %xmm0
	punpcklwd	%xmm0, %xmm0
	movdqa	%xmm0, -112(%rbp)
	xorl	%r14d, %r14d
	leaq	-88(%rbp), %r15
Ltmp678:
	leaq	l___unnamed_3(%rip), %r13
Ltmp679:
	.loc	7 1137 52 is_stmt 1
	cmpq	$4, %r14
Ltmp680:
	.loc	8 211 9
	jne	LBB23_4
	jmp	LBB23_3
Ltmp681:
	.p2align	4, 0x90
LBB23_6:
	.loc	8 0 9 is_stmt 0
	movdqa	-112(%rbp), %xmm0
Ltmp682:
	.loc	4 63 36 is_stmt 1
	movdqa	%xmm0, -128(%rbp)
Ltmp683:
	.loc	6 0 0 is_stmt 0
	leaq	1(%r14), %r12
Ltmp684:
	.loc	4 63 36
	andl	$3, %r14d
Ltmp685:
	movzbl	-128(%rbp,%r14,4), %eax
Ltmp686:
	.loc	6 16 21 is_stmt 1
	movb	%al, -88(%rbp)
	movq	%r15, %rdi
	movq	%rbx, %rsi
	callq	__ZN4core3fmt3num52_$LT$impl$u20$core..fmt..LowerHex$u20$for$u20$u8$GT$3fmt17h7701faa643a10c55E
Ltmp687:
	.loc	6 0 0 is_stmt 0
	movq	%r12, %r14
Ltmp688:
	.loc	6 16 43
	testb	%al, %al
	jne	LBB23_7
Ltmp689:
	.loc	7 1137 52 is_stmt 1
	cmpq	$4, %r14
Ltmp690:
	.loc	8 211 9
	je	LBB23_3
Ltmp691:
LBB23_4:
	.loc	6 13 24
	testq	%r14, %r14
	.loc	6 13 21 is_stmt 0
	je	LBB23_6
Ltmp692:
	.loc	1 328 9 is_stmt 1
	movq	%r13, -88(%rbp)
	movq	$1, -80(%rbp)
	movq	$0, -72(%rbp)
Ltmp693:
	leaq	l___unnamed_4(%rip), %rax
	movq	%rax, -56(%rbp)
	movq	$0, -48(%rbp)
Ltmp694:
	.loc	6 14 25
	movq	%rbx, %rdi
	movq	%r15, %rsi
	callq	__ZN4core3fmt9Formatter9write_fmt17h3dc2bf45afed3069E
	.loc	6 14 40 is_stmt 0
	testb	%al, %al
	je	LBB23_6
Ltmp695:
LBB23_7:
	.loc	6 0 40
	movb	$1, %cl
	jmp	LBB23_8
Ltmp696:
LBB23_3:
	.loc	1 328 9 is_stmt 1
	leaq	l___unnamed_5(%rip), %rax
Ltmp697:
	movq	%rax, -88(%rbp)
	movq	$1, -80(%rbp)
	movq	$0, -72(%rbp)
Ltmp698:
	leaq	l___unnamed_4(%rip), %rax
Ltmp699:
	movq	%rax, -56(%rbp)
	movq	$0, -48(%rbp)
	leaq	-88(%rbp), %rsi
Ltmp700:
	.loc	6 18 17
	movq	%rbx, %rdi
	callq	__ZN4core3fmt9Formatter9write_fmt17h3dc2bf45afed3069E
	movl	%eax, %ecx
Ltmp701:
LBB23_8:
	.loc	6 19 14
	movl	%ecx, %eax
	addq	$104, %rsp
	popq	%rbx
Ltmp702:
	popq	%r12
	popq	%r13
	popq	%r14
	popq	%r15
	popq	%rbp
	retq
Ltmp703:
Lfunc_end23:
	.cfi_endproc

	.globl	__ZN11packed_simd3v3298_$LT$impl$u20$core..fmt..UpperHex$u20$for$u20$packed_simd..Simd$LT$$u5b$u8$u3b$$u20$4$u5d$$GT$$GT$3fmt17hc6fd72c1bbac9879E
	.p2align	4, 0x90
__ZN11packed_simd3v3298_$LT$impl$u20$core..fmt..UpperHex$u20$for$u20$packed_simd..Simd$LT$$u5b$u8$u3b$$u20$4$u5d$$GT$$GT$3fmt17hc6fd72c1bbac9879E:
Lfunc_begin24:
	.loc	9 9 0
	.cfi_startproc
	pushq	%rbp
	.cfi_def_cfa_offset 16
	.cfi_offset %rbp, -16
	movq	%rsp, %rbp
	.cfi_def_cfa_register %rbp
	pushq	%r15
	pushq	%r14
	pushq	%r13
	pushq	%r12
	pushq	%rbx
	subq	$104, %rsp
	.cfi_offset %rbx, -56
	.cfi_offset %r12, -48
	.cfi_offset %r13, -40
	.cfi_offset %r14, -32
	.cfi_offset %r15, -24
	movq	%rsi, %rbx
Ltmp704:
	movq	%rdi, %r15
Ltmp705:
	.loc	9 11 17 prologue_end
	leaq	__ZN44_$LT$$RF$T$u20$as$u20$core..fmt..Display$GT$3fmt17h0663b18722df5164E(%rip), %rax
	movq	%rax, %xmm0
	leaq	l___unnamed_9(%rip), %rax
	movq	%rax, %xmm1
	punpcklqdq	%xmm0, %xmm1
	movdqa	%xmm1, -144(%rbp)
Ltmp706:
	.loc	1 328 9
	leaq	l___unnamed_2(%rip), %rax
Ltmp707:
	movq	%rax, -88(%rbp)
	movq	$2, -80(%rbp)
	movq	$0, -72(%rbp)
	leaq	-144(%rbp), %rax
Ltmp708:
	movq	%rax, -56(%rbp)
	movq	$1, -48(%rbp)
	leaq	-88(%rbp), %rsi
Ltmp709:
	.loc	9 11 17
	movq	%rbx, %rdi
	callq	__ZN4core3fmt9Formatter9write_fmt17h3dc2bf45afed3069E
	movb	$1, %cl
	.loc	9 11 50 is_stmt 0
	testb	%al, %al
	jne	LBB24_8
Ltmp710:
	.loc	9 0 0
	movd	(%r15), %xmm0
	punpcklbw	%xmm0, %xmm0
	punpcklwd	%xmm0, %xmm0
	movdqa	%xmm0, -112(%rbp)
	xorl	%r14d, %r14d
	leaq	-88(%rbp), %r15
Ltmp711:
	leaq	l___unnamed_3(%rip), %r13
Ltmp712:
	.loc	7 1137 52 is_stmt 1
	cmpq	$4, %r14
Ltmp713:
	.loc	8 211 9
	jne	LBB24_4
	jmp	LBB24_3
Ltmp714:
	.p2align	4, 0x90
LBB24_6:
	.loc	8 0 9 is_stmt 0
	movdqa	-112(%rbp), %xmm0
Ltmp715:
	.loc	4 63 36 is_stmt 1
	movdqa	%xmm0, -128(%rbp)
Ltmp716:
	.loc	9 0 0 is_stmt 0
	leaq	1(%r14), %r12
Ltmp717:
	.loc	4 63 36
	andl	$3, %r14d
Ltmp718:
	movzbl	-128(%rbp,%r14,4), %eax
Ltmp719:
	.loc	9 16 21 is_stmt 1
	movb	%al, -88(%rbp)
	movq	%r15, %rdi
	movq	%rbx, %rsi
	callq	__ZN4core3fmt3num52_$LT$impl$u20$core..fmt..UpperHex$u20$for$u20$u8$GT$3fmt17ha797e73a900719d8E
Ltmp720:
	.loc	9 0 0 is_stmt 0
	movq	%r12, %r14
Ltmp721:
	.loc	9 16 43
	testb	%al, %al
	jne	LBB24_7
Ltmp722:
	.loc	7 1137 52 is_stmt 1
	cmpq	$4, %r14
Ltmp723:
	.loc	8 211 9
	je	LBB24_3
Ltmp724:
LBB24_4:
	.loc	9 13 24
	testq	%r14, %r14
	.loc	9 13 21 is_stmt 0
	je	LBB24_6
Ltmp725:
	.loc	1 328 9 is_stmt 1
	movq	%r13, -88(%rbp)
	movq	$1, -80(%rbp)
	movq	$0, -72(%rbp)
Ltmp726:
	leaq	l___unnamed_4(%rip), %rax
	movq	%rax, -56(%rbp)
	movq	$0, -48(%rbp)
Ltmp727:
	.loc	9 14 25
	movq	%rbx, %rdi
	movq	%r15, %rsi
	callq	__ZN4core3fmt9Formatter9write_fmt17h3dc2bf45afed3069E
	.loc	9 14 40 is_stmt 0
	testb	%al, %al
	je	LBB24_6
Ltmp728:
LBB24_7:
	.loc	9 0 40
	movb	$1, %cl
	jmp	LBB24_8
Ltmp729:
LBB24_3:
	.loc	1 328 9 is_stmt 1
	leaq	l___unnamed_5(%rip), %rax
Ltmp730:
	movq	%rax, -88(%rbp)
	movq	$1, -80(%rbp)
	movq	$0, -72(%rbp)
Ltmp731:
	leaq	l___unnamed_4(%rip), %rax
Ltmp732:
	movq	%rax, -56(%rbp)
	movq	$0, -48(%rbp)
	leaq	-88(%rbp), %rsi
Ltmp733:
	.loc	9 18 17
	movq	%rbx, %rdi
	callq	__ZN4core3fmt9Formatter9write_fmt17h3dc2bf45afed3069E
	movl	%eax, %ecx
Ltmp734:
LBB24_8:
	.loc	9 19 14
	movl	%ecx, %eax
	addq	$104, %rsp
	popq	%rbx
Ltmp735:
	popq	%r12
	popq	%r13
	popq	%r14
	popq	%r15
	popq	%rbp
	retq
Ltmp736:
Lfunc_end24:
	.cfi_endproc

	.globl	__ZN11packed_simd3v3295_$LT$impl$u20$core..fmt..Octal$u20$for$u20$packed_simd..Simd$LT$$u5b$u8$u3b$$u20$4$u5d$$GT$$GT$3fmt17h063bfa5beba691f2E
	.p2align	4, 0x90
__ZN11packed_simd3v3295_$LT$impl$u20$core..fmt..Octal$u20$for$u20$packed_simd..Simd$LT$$u5b$u8$u3b$$u20$4$u5d$$GT$$GT$3fmt17h063bfa5beba691f2E:
Lfunc_begin25:
	.loc	10 9 0
	.cfi_startproc
	pushq	%rbp
	.cfi_def_cfa_offset 16
	.cfi_offset %rbp, -16
	movq	%rsp, %rbp
	.cfi_def_cfa_register %rbp
	pushq	%r15
	pushq	%r14
	pushq	%r13
	pushq	%r12
	pushq	%rbx
	subq	$104, %rsp
	.cfi_offset %rbx, -56
	.cfi_offset %r12, -48
	.cfi_offset %r13, -40
	.cfi_offset %r14, -32
	.cfi_offset %r15, -24
	movq	%rsi, %rbx
Ltmp737:
	movq	%rdi, %r15
Ltmp738:
	.loc	10 11 17 prologue_end
	leaq	__ZN44_$LT$$RF$T$u20$as$u20$core..fmt..Display$GT$3fmt17h0663b18722df5164E(%rip), %rax
	movq	%rax, %xmm0
	leaq	l___unnamed_9(%rip), %rax
	movq	%rax, %xmm1
	punpcklqdq	%xmm0, %xmm1
	movdqa	%xmm1, -144(%rbp)
Ltmp739:
	.loc	1 328 9
	leaq	l___unnamed_2(%rip), %rax
Ltmp740:
	movq	%rax, -88(%rbp)
	movq	$2, -80(%rbp)
	movq	$0, -72(%rbp)
	leaq	-144(%rbp), %rax
Ltmp741:
	movq	%rax, -56(%rbp)
	movq	$1, -48(%rbp)
	leaq	-88(%rbp), %rsi
Ltmp742:
	.loc	10 11 17
	movq	%rbx, %rdi
	callq	__ZN4core3fmt9Formatter9write_fmt17h3dc2bf45afed3069E
	movb	$1, %cl
	.loc	10 11 50 is_stmt 0
	testb	%al, %al
	jne	LBB25_8
Ltmp743:
	.loc	10 0 0
	movd	(%r15), %xmm0
	punpcklbw	%xmm0, %xmm0
	punpcklwd	%xmm0, %xmm0
	movdqa	%xmm0, -112(%rbp)
	xorl	%r14d, %r14d
	leaq	-88(%rbp), %r15
Ltmp744:
	leaq	l___unnamed_3(%rip), %r13
Ltmp745:
	.loc	7 1137 52 is_stmt 1
	cmpq	$4, %r14
Ltmp746:
	.loc	8 211 9
	jne	LBB25_4
	jmp	LBB25_3
Ltmp747:
	.p2align	4, 0x90
LBB25_6:
	.loc	8 0 9 is_stmt 0
	movdqa	-112(%rbp), %xmm0
Ltmp748:
	.loc	4 63 36 is_stmt 1
	movdqa	%xmm0, -128(%rbp)
Ltmp749:
	.loc	10 0 0 is_stmt 0
	leaq	1(%r14), %r12
Ltmp750:
	.loc	4 63 36
	andl	$3, %r14d
Ltmp751:
	movzbl	-128(%rbp,%r14,4), %eax
Ltmp752:
	.loc	10 16 21 is_stmt 1
	movb	%al, -88(%rbp)
	movq	%r15, %rdi
	movq	%rbx, %rsi
	callq	__ZN4core3fmt3num49_$LT$impl$u20$core..fmt..Octal$u20$for$u20$u8$GT$3fmt17hc6b20516a790ff98E
Ltmp753:
	.loc	10 0 0 is_stmt 0
	movq	%r12, %r14
Ltmp754:
	.loc	10 16 43
	testb	%al, %al
	jne	LBB25_7
Ltmp755:
	.loc	7 1137 52 is_stmt 1
	cmpq	$4, %r14
Ltmp756:
	.loc	8 211 9
	je	LBB25_3
Ltmp757:
LBB25_4:
	.loc	10 13 24
	testq	%r14, %r14
	.loc	10 13 21 is_stmt 0
	je	LBB25_6
Ltmp758:
	.loc	1 328 9 is_stmt 1
	movq	%r13, -88(%rbp)
	movq	$1, -80(%rbp)
	movq	$0, -72(%rbp)
Ltmp759:
	leaq	l___unnamed_4(%rip), %rax
	movq	%rax, -56(%rbp)
	movq	$0, -48(%rbp)
Ltmp760:
	.loc	10 14 25
	movq	%rbx, %rdi
	movq	%r15, %rsi
	callq	__ZN4core3fmt9Formatter9write_fmt17h3dc2bf45afed3069E
	.loc	10 14 40 is_stmt 0
	testb	%al, %al
	je	LBB25_6
Ltmp761:
LBB25_7:
	.loc	10 0 40
	movb	$1, %cl
	jmp	LBB25_8
Ltmp762:
LBB25_3:
	.loc	1 328 9 is_stmt 1
	leaq	l___unnamed_5(%rip), %rax
Ltmp763:
	movq	%rax, -88(%rbp)
	movq	$1, -80(%rbp)
	movq	$0, -72(%rbp)
Ltmp764:
	leaq	l___unnamed_4(%rip), %rax
Ltmp765:
	movq	%rax, -56(%rbp)
	movq	$0, -48(%rbp)
	leaq	-88(%rbp), %rsi
Ltmp766:
	.loc	10 18 17
	movq	%rbx, %rdi
	callq	__ZN4core3fmt9Formatter9write_fmt17h3dc2bf45afed3069E
	movl	%eax, %ecx
Ltmp767:
LBB25_8:
	.loc	10 19 14
	movl	%ecx, %eax
	addq	$104, %rsp
	popq	%rbx
Ltmp768:
	popq	%r12
	popq	%r13
	popq	%r14
	popq	%r15
	popq	%rbp
	retq
Ltmp769:
Lfunc_end25:
	.cfi_endproc

	.globl	__ZN11packed_simd3v3296_$LT$impl$u20$core..fmt..Binary$u20$for$u20$packed_simd..Simd$LT$$u5b$u8$u3b$$u20$4$u5d$$GT$$GT$3fmt17h0cf1eda4bece17ceE
	.p2align	4, 0x90
__ZN11packed_simd3v3296_$LT$impl$u20$core..fmt..Binary$u20$for$u20$packed_simd..Simd$LT$$u5b$u8$u3b$$u20$4$u5d$$GT$$GT$3fmt17h0cf1eda4bece17ceE:
Lfunc_begin26:
	.loc	11 9 0
	.cfi_startproc
	pushq	%rbp
	.cfi_def_cfa_offset 16
	.cfi_offset %rbp, -16
	movq	%rsp, %rbp
	.cfi_def_cfa_register %rbp
	pushq	%r15
	pushq	%r14
	pushq	%r13
	pushq	%r12
	pushq	%rbx
	subq	$104, %rsp
	.cfi_offset %rbx, -56
	.cfi_offset %r12, -48
	.cfi_offset %r13, -40
	.cfi_offset %r14, -32
	.cfi_offset %r15, -24
	movq	%rsi, %rbx
Ltmp770:
	movq	%rdi, %r15
Ltmp771:
	.loc	11 11 17 prologue_end
	leaq	__ZN44_$LT$$RF$T$u20$as$u20$core..fmt..Display$GT$3fmt17h0663b18722df5164E(%rip), %rax
	movq	%rax, %xmm0
	leaq	l___unnamed_9(%rip), %rax
	movq	%rax, %xmm1
	punpcklqdq	%xmm0, %xmm1
	movdqa	%xmm1, -144(%rbp)
Ltmp772:
	.loc	1 328 9
	leaq	l___unnamed_2(%rip), %rax
Ltmp773:
	movq	%rax, -88(%rbp)
	movq	$2, -80(%rbp)
	movq	$0, -72(%rbp)
	leaq	-144(%rbp), %rax
Ltmp774:
	movq	%rax, -56(%rbp)
	movq	$1, -48(%rbp)
	leaq	-88(%rbp), %rsi
Ltmp775:
	.loc	11 11 17
	movq	%rbx, %rdi
	callq	__ZN4core3fmt9Formatter9write_fmt17h3dc2bf45afed3069E
	movb	$1, %cl
	.loc	11 11 50 is_stmt 0
	testb	%al, %al
	jne	LBB26_8
Ltmp776:
	.loc	11 0 0
	movd	(%r15), %xmm0
	punpcklbw	%xmm0, %xmm0
	punpcklwd	%xmm0, %xmm0
	movdqa	%xmm0, -112(%rbp)
	xorl	%r14d, %r14d
	leaq	-88(%rbp), %r15
Ltmp777:
	leaq	l___unnamed_3(%rip), %r13
Ltmp778:
	.loc	7 1137 52 is_stmt 1
	cmpq	$4, %r14
Ltmp779:
	.loc	8 211 9
	jne	LBB26_4
	jmp	LBB26_3
Ltmp780:
	.p2align	4, 0x90
LBB26_6:
	.loc	8 0 9 is_stmt 0
	movdqa	-112(%rbp), %xmm0
Ltmp781:
	.loc	4 63 36 is_stmt 1
	movdqa	%xmm0, -128(%rbp)
Ltmp782:
	.loc	11 0 0 is_stmt 0
	leaq	1(%r14), %r12
Ltmp783:
	.loc	4 63 36
	andl	$3, %r14d
Ltmp784:
	movzbl	-128(%rbp,%r14,4), %eax
Ltmp785:
	.loc	11 16 21 is_stmt 1
	movb	%al, -88(%rbp)
	movq	%r15, %rdi
	movq	%rbx, %rsi
	callq	__ZN4core3fmt3num50_$LT$impl$u20$core..fmt..Binary$u20$for$u20$u8$GT$3fmt17h27b26a79078c499fE
Ltmp786:
	.loc	11 0 0 is_stmt 0
	movq	%r12, %r14
Ltmp787:
	.loc	11 16 43
	testb	%al, %al
	jne	LBB26_7
Ltmp788:
	.loc	7 1137 52 is_stmt 1
	cmpq	$4, %r14
Ltmp789:
	.loc	8 211 9
	je	LBB26_3
Ltmp790:
LBB26_4:
	.loc	11 13 24
	testq	%r14, %r14
	.loc	11 13 21 is_stmt 0
	je	LBB26_6
Ltmp791:
	.loc	1 328 9 is_stmt 1
	movq	%r13, -88(%rbp)
	movq	$1, -80(%rbp)
	movq	$0, -72(%rbp)
Ltmp792:
	leaq	l___unnamed_4(%rip), %rax
	movq	%rax, -56(%rbp)
	movq	$0, -48(%rbp)
Ltmp793:
	.loc	11 14 25
	movq	%rbx, %rdi
	movq	%r15, %rsi
	callq	__ZN4core3fmt9Formatter9write_fmt17h3dc2bf45afed3069E
	.loc	11 14 40 is_stmt 0
	testb	%al, %al
	je	LBB26_6
Ltmp794:
LBB26_7:
	.loc	11 0 40
	movb	$1, %cl
	jmp	LBB26_8
Ltmp795:
LBB26_3:
	.loc	1 328 9 is_stmt 1
	leaq	l___unnamed_5(%rip), %rax
Ltmp796:
	movq	%rax, -88(%rbp)
	movq	$1, -80(%rbp)
	movq	$0, -72(%rbp)
Ltmp797:
	leaq	l___unnamed_4(%rip), %rax
Ltmp798:
	movq	%rax, -56(%rbp)
	movq	$0, -48(%rbp)
	leaq	-88(%rbp), %rsi
Ltmp799:
	.loc	11 18 17
	movq	%rbx, %rdi
	callq	__ZN4core3fmt9Formatter9write_fmt17h3dc2bf45afed3069E
	movl	%eax, %ecx
Ltmp800:
LBB26_8:
	.loc	11 19 14
	movl	%ecx, %eax
	addq	$104, %rsp
	popq	%rbx
Ltmp801:
	popq	%r12
	popq	%r13
	popq	%r14
	popq	%r15
	popq	%rbp
	retq
Ltmp802:
Lfunc_end26:
	.cfi_endproc

	.globl	__ZN11packed_simd3v32115_$LT$impl$u20$core..fmt..Debug$u20$for$u20$packed_simd..Simd$LT$$u5b$packed_simd..masks..m8$u3b$$u20$4$u5d$$GT$$GT$3fmt17h2b8c4b5c75321b11E
	.p2align	4, 0x90
__ZN11packed_simd3v32115_$LT$impl$u20$core..fmt..Debug$u20$for$u20$packed_simd..Simd$LT$$u5b$packed_simd..masks..m8$u3b$$u20$4$u5d$$GT$$GT$3fmt17h2b8c4b5c75321b11E:
Lfunc_begin27:
	.loc	3 49 0
	.cfi_startproc
	pushq	%rbp
	.cfi_def_cfa_offset 16
	.cfi_offset %rbp, -16
	movq	%rsp, %rbp
	.cfi_def_cfa_register %rbp
	pushq	%r15
	pushq	%r14
	pushq	%r13
	pushq	%r12
	pushq	%rbx
	subq	$104, %rsp
	.cfi_offset %rbx, -56
	.cfi_offset %r12, -48
	.cfi_offset %r13, -40
	.cfi_offset %r14, -32
	.cfi_offset %r15, -24
	movq	%rsi, %rbx
Ltmp803:
	movq	%rdi, %r15
Ltmp804:
	.loc	3 52 17 prologue_end
	leaq	__ZN44_$LT$$RF$T$u20$as$u20$core..fmt..Display$GT$3fmt17h0663b18722df5164E(%rip), %rax
	movq	%rax, %xmm0
	leaq	l___unnamed_10(%rip), %rax
	movq	%rax, %xmm1
	punpcklqdq	%xmm0, %xmm1
	movdqa	%xmm1, -144(%rbp)
Ltmp805:
	.loc	1 328 9
	leaq	l___unnamed_2(%rip), %rax
Ltmp806:
	movq	%rax, -88(%rbp)
	movq	$2, -80(%rbp)
	movq	$0, -72(%rbp)
	leaq	-144(%rbp), %rax
Ltmp807:
	movq	%rax, -56(%rbp)
	movq	$1, -48(%rbp)
	leaq	-88(%rbp), %rsi
Ltmp808:
	.loc	3 52 17
	movq	%rbx, %rdi
	callq	__ZN4core3fmt9Formatter9write_fmt17h3dc2bf45afed3069E
	movb	$1, %cl
	.loc	3 52 50 is_stmt 0
	testb	%al, %al
	jne	LBB27_8
Ltmp809:
	.loc	3 0 0
	movd	(%r15), %xmm0
	punpcklbw	%xmm0, %xmm0
	punpcklwd	%xmm0, %xmm0
	movdqa	%xmm0, -112(%rbp)
	xorl	%r14d, %r14d
	leaq	-88(%rbp), %r15
Ltmp810:
	leaq	l___unnamed_3(%rip), %r13
Ltmp811:
	.loc	7 1137 52 is_stmt 1
	cmpq	$4, %r14
Ltmp812:
	.loc	8 211 9
	jne	LBB27_4
	jmp	LBB27_3
Ltmp813:
	.p2align	4, 0x90
LBB27_6:
	.loc	8 0 9 is_stmt 0
	movdqa	-112(%rbp), %xmm0
Ltmp814:
	.loc	12 67 36 is_stmt 1
	movdqa	%xmm0, -128(%rbp)
Ltmp815:
	.loc	3 0 0 is_stmt 0
	leaq	1(%r14), %r12
Ltmp816:
	.loc	12 67 36
	andl	$3, %r14d
Ltmp817:
	.loc	12 68 17 is_stmt 1
	cmpb	$0, -128(%rbp,%r14,4)
Ltmp818:
	.loc	3 57 21
	setne	-88(%rbp)
Ltmp819:
	.loc	1 2003 9
	movq	%r15, %rdi
	movq	%rbx, %rsi
	callq	__ZN43_$LT$bool$u20$as$u20$core..fmt..Display$GT$3fmt17hf36463fa8b480ab4E
Ltmp820:
	.loc	3 0 0 is_stmt 0
	movq	%r12, %r14
Ltmp821:
	.loc	3 57 43 is_stmt 1
	testb	%al, %al
	jne	LBB27_7
Ltmp822:
	.loc	7 1137 52
	cmpq	$4, %r14
Ltmp823:
	.loc	8 211 9
	je	LBB27_3
Ltmp824:
LBB27_4:
	.loc	3 54 24
	testq	%r14, %r14
	.loc	3 54 21 is_stmt 0
	je	LBB27_6
Ltmp825:
	.loc	1 328 9 is_stmt 1
	movq	%r13, -88(%rbp)
	movq	$1, -80(%rbp)
	movq	$0, -72(%rbp)
Ltmp826:
	leaq	l___unnamed_4(%rip), %rax
	movq	%rax, -56(%rbp)
	movq	$0, -48(%rbp)
Ltmp827:
	.loc	3 55 25
	movq	%rbx, %rdi
	movq	%r15, %rsi
	callq	__ZN4core3fmt9Formatter9write_fmt17h3dc2bf45afed3069E
	.loc	3 55 40 is_stmt 0
	testb	%al, %al
	je	LBB27_6
Ltmp828:
LBB27_7:
	.loc	3 0 40
	movb	$1, %cl
	jmp	LBB27_8
Ltmp829:
LBB27_3:
	.loc	1 328 9 is_stmt 1
	leaq	l___unnamed_5(%rip), %rax
Ltmp830:
	movq	%rax, -88(%rbp)
	movq	$1, -80(%rbp)
	movq	$0, -72(%rbp)
Ltmp831:
	leaq	l___unnamed_4(%rip), %rax
Ltmp832:
	movq	%rax, -56(%rbp)
	movq	$0, -48(%rbp)
	leaq	-88(%rbp), %rsi
Ltmp833:
	.loc	3 59 17
	movq	%rbx, %rdi
	callq	__ZN4core3fmt9Formatter9write_fmt17h3dc2bf45afed3069E
	movl	%eax, %ecx
Ltmp834:
LBB27_8:
	.loc	3 60 14
	movl	%ecx, %eax
	addq	$104, %rsp
	popq	%rbx
Ltmp835:
	popq	%r12
	popq	%r13
	popq	%r14
	popq	%r15
	popq	%rbp
	retq
Ltmp836:
Lfunc_end27:
	.cfi_endproc

	.globl	__ZN11packed_simd3v3296_$LT$impl$u20$core..fmt..Debug$u20$for$u20$packed_simd..Simd$LT$$u5b$i16$u3b$$u20$2$u5d$$GT$$GT$3fmt17h5b22c2b0561d0c63E
	.p2align	4, 0x90
__ZN11packed_simd3v3296_$LT$impl$u20$core..fmt..Debug$u20$for$u20$packed_simd..Simd$LT$$u5b$i16$u3b$$u20$2$u5d$$GT$$GT$3fmt17h5b22c2b0561d0c63E:
Lfunc_begin28:
	.loc	3 49 0
	.cfi_startproc
	pushq	%rbp
	.cfi_def_cfa_offset 16
	.cfi_offset %rbp, -16
	movq	%rsp, %rbp
	.cfi_def_cfa_register %rbp
	pushq	%r15
	pushq	%r14
	pushq	%rbx
	subq	$88, %rsp
	.cfi_offset %rbx, -40
	.cfi_offset %r14, -32
	.cfi_offset %r15, -24
	movq	%rsi, %r15
Ltmp837:
	movq	%rdi, %rbx
Ltmp838:
	.loc	3 52 17 prologue_end
	leaq	__ZN44_$LT$$RF$T$u20$as$u20$core..fmt..Display$GT$3fmt17h0663b18722df5164E(%rip), %rax
	movq	%rax, %xmm0
	leaq	l___unnamed_11(%rip), %rax
	movq	%rax, %xmm1
	punpcklqdq	%xmm0, %xmm1
	movdqa	%xmm1, -112(%rbp)
Ltmp839:
	.loc	1 328 9
	leaq	l___unnamed_2(%rip), %rax
Ltmp840:
	movq	%rax, -72(%rbp)
	movq	$2, -64(%rbp)
	movq	$0, -56(%rbp)
	leaq	-112(%rbp), %rax
Ltmp841:
	movq	%rax, -40(%rbp)
	movq	$1, -32(%rbp)
	leaq	-72(%rbp), %rsi
Ltmp842:
	.loc	3 52 17
	movq	%r15, %rdi
	callq	__ZN4core3fmt9Formatter9write_fmt17h3dc2bf45afed3069E
	movb	$1, %r14b
	.loc	3 52 50 is_stmt 0
	testb	%al, %al
	jne	LBB28_12
Ltmp843:
	.loc	3 0 0
	movd	(%rbx), %xmm0
Ltmp844:
	movdqa	%xmm0, -96(%rbp)
Ltmp845:
	.loc	4 63 36 is_stmt 1
	pextrw	$0, %xmm0, %eax
Ltmp846:
	.loc	3 57 21
	movw	%ax, -72(%rbp)
Ltmp847:
	.loc	5 149 20
	movq	%r15, %rdi
	callq	__ZN4core3fmt9Formatter15debug_lower_hex17h8530fbaeba13f4d9E
	.loc	5 149 17 is_stmt 0
	testb	%al, %al
	je	LBB28_2
Ltmp848:
	.loc	5 0 17
	leaq	-72(%rbp), %rdi
	.loc	5 150 21 is_stmt 1
	movq	%r15, %rsi
	callq	__ZN4core3fmt3num53_$LT$impl$u20$core..fmt..LowerHex$u20$for$u20$i16$GT$3fmt17h3f851141fadcf5dbE
Ltmp849:
	.loc	3 57 43
	testb	%al, %al
	je	LBB28_6
	jmp	LBB28_12
Ltmp850:
LBB28_2:
	.loc	5 151 27
	movq	%r15, %rdi
	callq	__ZN4core3fmt9Formatter15debug_upper_hex17hf8fda15ec43a1e68E
	leaq	-72(%rbp), %rdi
	.loc	5 154 21
	movq	%r15, %rsi
	.loc	5 151 24
	testb	%al, %al
	je	LBB28_4
Ltmp851:
	.loc	5 152 21
	callq	__ZN4core3fmt3num53_$LT$impl$u20$core..fmt..UpperHex$u20$for$u20$i16$GT$3fmt17h68fce712c402f58aE
Ltmp852:
	.loc	3 57 43
	testb	%al, %al
	je	LBB28_6
	jmp	LBB28_12
Ltmp853:
LBB28_4:
	.loc	5 154 21
	callq	__ZN4core3fmt3num3imp52_$LT$impl$u20$core..fmt..Display$u20$for$u20$i16$GT$3fmt17h3a2fa6e453c65d3eE
Ltmp854:
	.loc	3 57 43
	testb	%al, %al
	jne	LBB28_12
Ltmp855:
LBB28_6:
	.loc	1 328 9
	leaq	l___unnamed_3(%rip), %rax
Ltmp856:
	movq	%rax, -72(%rbp)
	movq	$1, -64(%rbp)
	movq	$0, -56(%rbp)
	leaq	l___unnamed_4(%rip), %rbx
Ltmp857:
	movq	%rbx, -40(%rbp)
	movq	$0, -32(%rbp)
	leaq	-72(%rbp), %rsi
Ltmp858:
	.loc	3 55 25
	movq	%r15, %rdi
	callq	__ZN4core3fmt9Formatter9write_fmt17h3dc2bf45afed3069E
Ltmp859:
	.loc	3 55 40 is_stmt 0
	testb	%al, %al
	jne	LBB28_12
Ltmp860:
	.loc	3 0 0
	pshufd	$196, -96(%rbp), %xmm0
	pshufhw	$229, %xmm0, %xmm0
Ltmp861:
	.loc	4 63 36 is_stmt 1
	pextrw	$4, %xmm0, %eax
Ltmp862:
	.loc	3 57 21
	movw	%ax, -72(%rbp)
Ltmp863:
	.loc	5 149 20
	movq	%r15, %rdi
	callq	__ZN4core3fmt9Formatter15debug_lower_hex17h8530fbaeba13f4d9E
	.loc	5 149 17 is_stmt 0
	testb	%al, %al
	je	LBB28_8
Ltmp864:
	.loc	5 0 17
	leaq	-72(%rbp), %rdi
	.loc	5 150 21 is_stmt 1
	movq	%r15, %rsi
	callq	__ZN4core3fmt3num53_$LT$impl$u20$core..fmt..LowerHex$u20$for$u20$i16$GT$3fmt17h3f851141fadcf5dbE
Ltmp865:
	.loc	3 57 43
	testb	%al, %al
	jne	LBB28_12
Ltmp866:
LBB28_11:
	.loc	1 328 9
	leaq	l___unnamed_5(%rip), %rax
Ltmp867:
	movq	%rax, -72(%rbp)
	movq	$1, -64(%rbp)
	movq	$0, -56(%rbp)
Ltmp868:
	movq	%rbx, -40(%rbp)
	movq	$0, -32(%rbp)
	leaq	-72(%rbp), %rsi
Ltmp869:
	.loc	3 59 17
	movq	%r15, %rdi
	callq	__ZN4core3fmt9Formatter9write_fmt17h3dc2bf45afed3069E
Ltmp870:
	movl	%eax, %r14d
Ltmp871:
LBB28_12:
	.loc	3 60 14
	movl	%r14d, %eax
	addq	$88, %rsp
	popq	%rbx
	popq	%r14
	popq	%r15
Ltmp872:
	popq	%rbp
	retq
LBB28_8:
Ltmp873:
	.loc	5 151 27
	movq	%r15, %rdi
	callq	__ZN4core3fmt9Formatter15debug_upper_hex17hf8fda15ec43a1e68E
	leaq	-72(%rbp), %rdi
	.loc	5 152 21
	movq	%r15, %rsi
	.loc	5 151 24
	testb	%al, %al
	je	LBB28_9
Ltmp874:
	.loc	5 152 21
	callq	__ZN4core3fmt3num53_$LT$impl$u20$core..fmt..UpperHex$u20$for$u20$i16$GT$3fmt17h68fce712c402f58aE
Ltmp875:
	.loc	3 57 43
	testb	%al, %al
	je	LBB28_11
	jmp	LBB28_12
Ltmp876:
LBB28_9:
	.loc	5 154 21
	callq	__ZN4core3fmt3num3imp52_$LT$impl$u20$core..fmt..Display$u20$for$u20$i16$GT$3fmt17h3a2fa6e453c65d3eE
Ltmp877:
	.loc	3 57 43
	testb	%al, %al
	je	LBB28_11
	jmp	LBB28_12
Ltmp878:
Lfunc_end28:
	.cfi_endproc

	.globl	__ZN11packed_simd3v3299_$LT$impl$u20$core..fmt..LowerHex$u20$for$u20$packed_simd..Simd$LT$$u5b$i16$u3b$$u20$2$u5d$$GT$$GT$3fmt17h4be50130f93e8bc3E
	.p2align	4, 0x90
__ZN11packed_simd3v3299_$LT$impl$u20$core..fmt..LowerHex$u20$for$u20$packed_simd..Simd$LT$$u5b$i16$u3b$$u20$2$u5d$$GT$$GT$3fmt17h4be50130f93e8bc3E:
Lfunc_begin29:
	.loc	6 9 0
	.cfi_startproc
	pushq	%rbp
	.cfi_def_cfa_offset 16
	.cfi_offset %rbp, -16
	movq	%rsp, %rbp
	.cfi_def_cfa_register %rbp
	pushq	%r15
	pushq	%r14
	pushq	%r13
	pushq	%r12
	pushq	%rbx
	subq	$104, %rsp
	.cfi_offset %rbx, -56
	.cfi_offset %r12, -48
	.cfi_offset %r13, -40
	.cfi_offset %r14, -32
	.cfi_offset %r15, -24
	movq	%rsi, %rbx
Ltmp879:
	movq	%rdi, %r15
Ltmp880:
	.loc	6 11 17 prologue_end
	leaq	__ZN44_$LT$$RF$T$u20$as$u20$core..fmt..Display$GT$3fmt17h0663b18722df5164E(%rip), %rax
	movq	%rax, %xmm0
	leaq	l___unnamed_11(%rip), %rax
	movq	%rax, %xmm1
	punpcklqdq	%xmm0, %xmm1
	movdqa	%xmm1, -144(%rbp)
Ltmp881:
	.loc	1 328 9
	leaq	l___unnamed_2(%rip), %rax
Ltmp882:
	movq	%rax, -88(%rbp)
	movq	$2, -80(%rbp)
	movq	$0, -72(%rbp)
	leaq	-144(%rbp), %rax
Ltmp883:
	movq	%rax, -56(%rbp)
	movq	$1, -48(%rbp)
	leaq	-88(%rbp), %rsi
Ltmp884:
	.loc	6 11 17
	movq	%rbx, %rdi
	callq	__ZN4core3fmt9Formatter9write_fmt17h3dc2bf45afed3069E
	movb	$1, %cl
	.loc	6 11 50 is_stmt 0
	testb	%al, %al
	jne	LBB29_8
Ltmp885:
	.loc	6 0 0
	movd	(%r15), %xmm0
	pshufd	$196, %xmm0, %xmm0
	pshufhw	$229, %xmm0, %xmm0
	movdqa	%xmm0, -112(%rbp)
	xorl	%r14d, %r14d
	leaq	-88(%rbp), %r15
Ltmp886:
	leaq	l___unnamed_3(%rip), %r13
Ltmp887:
	.loc	7 1137 52 is_stmt 1
	cmpq	$2, %r14
Ltmp888:
	.loc	8 211 9
	jne	LBB29_4
	jmp	LBB29_3
Ltmp889:
	.p2align	4, 0x90
LBB29_6:
	.loc	8 0 9 is_stmt 0
	movdqa	-112(%rbp), %xmm0
Ltmp890:
	.loc	4 63 36 is_stmt 1
	movdqa	%xmm0, -128(%rbp)
Ltmp891:
	.loc	6 0 0 is_stmt 0
	leaq	1(%r14), %r12
Ltmp892:
	.loc	4 63 36
	andl	$1, %r14d
Ltmp893:
	movq	-128(%rbp,%r14,8), %rax
Ltmp894:
	.loc	6 16 21 is_stmt 1
	movw	%ax, -88(%rbp)
	movq	%r15, %rdi
	movq	%rbx, %rsi
	callq	__ZN4core3fmt3num53_$LT$impl$u20$core..fmt..LowerHex$u20$for$u20$i16$GT$3fmt17h3f851141fadcf5dbE
Ltmp895:
	.loc	6 0 0 is_stmt 0
	movq	%r12, %r14
Ltmp896:
	.loc	6 16 43
	testb	%al, %al
	jne	LBB29_7
Ltmp897:
	.loc	7 1137 52 is_stmt 1
	cmpq	$2, %r14
Ltmp898:
	.loc	8 211 9
	je	LBB29_3
Ltmp899:
LBB29_4:
	.loc	6 13 24
	testq	%r14, %r14
	.loc	6 13 21 is_stmt 0
	je	LBB29_6
Ltmp900:
	.loc	1 328 9 is_stmt 1
	movq	%r13, -88(%rbp)
	movq	$1, -80(%rbp)
	movq	$0, -72(%rbp)
Ltmp901:
	leaq	l___unnamed_4(%rip), %rax
	movq	%rax, -56(%rbp)
	movq	$0, -48(%rbp)
Ltmp902:
	.loc	6 14 25
	movq	%rbx, %rdi
	movq	%r15, %rsi
	callq	__ZN4core3fmt9Formatter9write_fmt17h3dc2bf45afed3069E
	.loc	6 14 40 is_stmt 0
	testb	%al, %al
	je	LBB29_6
Ltmp903:
LBB29_7:
	.loc	6 0 40
	movb	$1, %cl
	jmp	LBB29_8
Ltmp904:
LBB29_3:
	.loc	1 328 9 is_stmt 1
	leaq	l___unnamed_5(%rip), %rax
Ltmp905:
	movq	%rax, -88(%rbp)
	movq	$1, -80(%rbp)
	movq	$0, -72(%rbp)
Ltmp906:
	leaq	l___unnamed_4(%rip), %rax
Ltmp907:
	movq	%rax, -56(%rbp)
	movq	$0, -48(%rbp)
	leaq	-88(%rbp), %rsi
Ltmp908:
	.loc	6 18 17
	movq	%rbx, %rdi
	callq	__ZN4core3fmt9Formatter9write_fmt17h3dc2bf45afed3069E
	movl	%eax, %ecx
Ltmp909:
LBB29_8:
	.loc	6 19 14
	movl	%ecx, %eax
	addq	$104, %rsp
	popq	%rbx
Ltmp910:
	popq	%r12
	popq	%r13
	popq	%r14
	popq	%r15
	popq	%rbp
	retq
Ltmp911:
Lfunc_end29:
	.cfi_endproc

	.globl	__ZN11packed_simd3v3299_$LT$impl$u20$core..fmt..UpperHex$u20$for$u20$packed_simd..Simd$LT$$u5b$i16$u3b$$u20$2$u5d$$GT$$GT$3fmt17h4b5985aa7b8c811eE
	.p2align	4, 0x90
__ZN11packed_simd3v3299_$LT$impl$u20$core..fmt..UpperHex$u20$for$u20$packed_simd..Simd$LT$$u5b$i16$u3b$$u20$2$u5d$$GT$$GT$3fmt17h4b5985aa7b8c811eE:
Lfunc_begin30:
	.loc	9 9 0
	.cfi_startproc
	pushq	%rbp
	.cfi_def_cfa_offset 16
	.cfi_offset %rbp, -16
	movq	%rsp, %rbp
	.cfi_def_cfa_register %rbp
	pushq	%r15
	pushq	%r14
	pushq	%r13
	pushq	%r12
	pushq	%rbx
	subq	$104, %rsp
	.cfi_offset %rbx, -56
	.cfi_offset %r12, -48
	.cfi_offset %r13, -40
	.cfi_offset %r14, -32
	.cfi_offset %r15, -24
	movq	%rsi, %rbx
Ltmp912:
	movq	%rdi, %r15
Ltmp913:
	.loc	9 11 17 prologue_end
	leaq	__ZN44_$LT$$RF$T$u20$as$u20$core..fmt..Display$GT$3fmt17h0663b18722df5164E(%rip), %rax
	movq	%rax, %xmm0
	leaq	l___unnamed_11(%rip), %rax
	movq	%rax, %xmm1
	punpcklqdq	%xmm0, %xmm1
	movdqa	%xmm1, -144(%rbp)
Ltmp914:
	.loc	1 328 9
	leaq	l___unnamed_2(%rip), %rax
Ltmp915:
	movq	%rax, -88(%rbp)
	movq	$2, -80(%rbp)
	movq	$0, -72(%rbp)
	leaq	-144(%rbp), %rax
Ltmp916:
	movq	%rax, -56(%rbp)
	movq	$1, -48(%rbp)
	leaq	-88(%rbp), %rsi
Ltmp917:
	.loc	9 11 17
	movq	%rbx, %rdi
	callq	__ZN4core3fmt9Formatter9write_fmt17h3dc2bf45afed3069E
	movb	$1, %cl
	.loc	9 11 50 is_stmt 0
	testb	%al, %al
	jne	LBB30_8
Ltmp918:
	.loc	9 0 0
	movd	(%r15), %xmm0
	pshufd	$196, %xmm0, %xmm0
	pshufhw	$229, %xmm0, %xmm0
	movdqa	%xmm0, -112(%rbp)
	xorl	%r14d, %r14d
	leaq	-88(%rbp), %r15
Ltmp919:
	leaq	l___unnamed_3(%rip), %r13
Ltmp920:
	.loc	7 1137 52 is_stmt 1
	cmpq	$2, %r14
Ltmp921:
	.loc	8 211 9
	jne	LBB30_4
	jmp	LBB30_3
Ltmp922:
	.p2align	4, 0x90
LBB30_6:
	.loc	8 0 9 is_stmt 0
	movdqa	-112(%rbp), %xmm0
Ltmp923:
	.loc	4 63 36 is_stmt 1
	movdqa	%xmm0, -128(%rbp)
Ltmp924:
	.loc	9 0 0 is_stmt 0
	leaq	1(%r14), %r12
Ltmp925:
	.loc	4 63 36
	andl	$1, %r14d
Ltmp926:
	movq	-128(%rbp,%r14,8), %rax
Ltmp927:
	.loc	9 16 21 is_stmt 1
	movw	%ax, -88(%rbp)
	movq	%r15, %rdi
	movq	%rbx, %rsi
	callq	__ZN4core3fmt3num53_$LT$impl$u20$core..fmt..UpperHex$u20$for$u20$i16$GT$3fmt17h68fce712c402f58aE
Ltmp928:
	.loc	9 0 0 is_stmt 0
	movq	%r12, %r14
Ltmp929:
	.loc	9 16 43
	testb	%al, %al
	jne	LBB30_7
Ltmp930:
	.loc	7 1137 52 is_stmt 1
	cmpq	$2, %r14
Ltmp931:
	.loc	8 211 9
	je	LBB30_3
Ltmp932:
LBB30_4:
	.loc	9 13 24
	testq	%r14, %r14
	.loc	9 13 21 is_stmt 0
	je	LBB30_6
Ltmp933:
	.loc	1 328 9 is_stmt 1
	movq	%r13, -88(%rbp)
	movq	$1, -80(%rbp)
	movq	$0, -72(%rbp)
Ltmp934:
	leaq	l___unnamed_4(%rip), %rax
	movq	%rax, -56(%rbp)
	movq	$0, -48(%rbp)
Ltmp935:
	.loc	9 14 25
	movq	%rbx, %rdi
	movq	%r15, %rsi
	callq	__ZN4core3fmt9Formatter9write_fmt17h3dc2bf45afed3069E
	.loc	9 14 40 is_stmt 0
	testb	%al, %al
	je	LBB30_6
Ltmp936:
LBB30_7:
	.loc	9 0 40
	movb	$1, %cl
	jmp	LBB30_8
Ltmp937:
LBB30_3:
	.loc	1 328 9 is_stmt 1
	leaq	l___unnamed_5(%rip), %rax
Ltmp938:
	movq	%rax, -88(%rbp)
	movq	$1, -80(%rbp)
	movq	$0, -72(%rbp)
Ltmp939:
	leaq	l___unnamed_4(%rip), %rax
Ltmp940:
	movq	%rax, -56(%rbp)
	movq	$0, -48(%rbp)
	leaq	-88(%rbp), %rsi
Ltmp941:
	.loc	9 18 17
	movq	%rbx, %rdi
	callq	__ZN4core3fmt9Formatter9write_fmt17h3dc2bf45afed3069E
	movl	%eax, %ecx
Ltmp942:
LBB30_8:
	.loc	9 19 14
	movl	%ecx, %eax
	addq	$104, %rsp
	popq	%rbx
Ltmp943:
	popq	%r12
	popq	%r13
	popq	%r14
	popq	%r15
	popq	%rbp
	retq
Ltmp944:
Lfunc_end30:
	.cfi_endproc

	.globl	__ZN11packed_simd3v3296_$LT$impl$u20$core..fmt..Octal$u20$for$u20$packed_simd..Simd$LT$$u5b$i16$u3b$$u20$2$u5d$$GT$$GT$3fmt17h1b6288ec39da5f4eE
	.p2align	4, 0x90
__ZN11packed_simd3v3296_$LT$impl$u20$core..fmt..Octal$u20$for$u20$packed_simd..Simd$LT$$u5b$i16$u3b$$u20$2$u5d$$GT$$GT$3fmt17h1b6288ec39da5f4eE:
Lfunc_begin31:
	.loc	10 9 0
	.cfi_startproc
	pushq	%rbp
	.cfi_def_cfa_offset 16
	.cfi_offset %rbp, -16
	movq	%rsp, %rbp
	.cfi_def_cfa_register %rbp
	pushq	%r15
	pushq	%r14
	pushq	%r13
	pushq	%r12
	pushq	%rbx
	subq	$104, %rsp
	.cfi_offset %rbx, -56
	.cfi_offset %r12, -48
	.cfi_offset %r13, -40
	.cfi_offset %r14, -32
	.cfi_offset %r15, -24
	movq	%rsi, %rbx
Ltmp945:
	movq	%rdi, %r15
Ltmp946:
	.loc	10 11 17 prologue_end
	leaq	__ZN44_$LT$$RF$T$u20$as$u20$core..fmt..Display$GT$3fmt17h0663b18722df5164E(%rip), %rax
	movq	%rax, %xmm0
	leaq	l___unnamed_11(%rip), %rax
	movq	%rax, %xmm1
	punpcklqdq	%xmm0, %xmm1
	movdqa	%xmm1, -144(%rbp)
Ltmp947:
	.loc	1 328 9
	leaq	l___unnamed_2(%rip), %rax
Ltmp948:
	movq	%rax, -88(%rbp)
	movq	$2, -80(%rbp)
	movq	$0, -72(%rbp)
	leaq	-144(%rbp), %rax
Ltmp949:
	movq	%rax, -56(%rbp)
	movq	$1, -48(%rbp)
	leaq	-88(%rbp), %rsi
Ltmp950:
	.loc	10 11 17
	movq	%rbx, %rdi
	callq	__ZN4core3fmt9Formatter9write_fmt17h3dc2bf45afed3069E
	movb	$1, %cl
	.loc	10 11 50 is_stmt 0
	testb	%al, %al
	jne	LBB31_8
Ltmp951:
	.loc	10 0 0
	movd	(%r15), %xmm0
	pshufd	$196, %xmm0, %xmm0
	pshufhw	$229, %xmm0, %xmm0
	movdqa	%xmm0, -112(%rbp)
	xorl	%r14d, %r14d
	leaq	-88(%rbp), %r15
Ltmp952:
	leaq	l___unnamed_3(%rip), %r13
Ltmp953:
	.loc	7 1137 52 is_stmt 1
	cmpq	$2, %r14
Ltmp954:
	.loc	8 211 9
	jne	LBB31_4
	jmp	LBB31_3
Ltmp955:
	.p2align	4, 0x90
LBB31_6:
	.loc	8 0 9 is_stmt 0
	movdqa	-112(%rbp), %xmm0
Ltmp956:
	.loc	4 63 36 is_stmt 1
	movdqa	%xmm0, -128(%rbp)
Ltmp957:
	.loc	10 0 0 is_stmt 0
	leaq	1(%r14), %r12
Ltmp958:
	.loc	4 63 36
	andl	$1, %r14d
Ltmp959:
	movq	-128(%rbp,%r14,8), %rax
Ltmp960:
	.loc	10 16 21 is_stmt 1
	movw	%ax, -88(%rbp)
	movq	%r15, %rdi
	movq	%rbx, %rsi
	callq	__ZN4core3fmt3num50_$LT$impl$u20$core..fmt..Octal$u20$for$u20$i16$GT$3fmt17h1b3cb6f95e755604E
Ltmp961:
	.loc	10 0 0 is_stmt 0
	movq	%r12, %r14
Ltmp962:
	.loc	10 16 43
	testb	%al, %al
	jne	LBB31_7
Ltmp963:
	.loc	7 1137 52 is_stmt 1
	cmpq	$2, %r14
Ltmp964:
	.loc	8 211 9
	je	LBB31_3
Ltmp965:
LBB31_4:
	.loc	10 13 24
	testq	%r14, %r14
	.loc	10 13 21 is_stmt 0
	je	LBB31_6
Ltmp966:
	.loc	1 328 9 is_stmt 1
	movq	%r13, -88(%rbp)
	movq	$1, -80(%rbp)
	movq	$0, -72(%rbp)
Ltmp967:
	leaq	l___unnamed_4(%rip), %rax
	movq	%rax, -56(%rbp)
	movq	$0, -48(%rbp)
Ltmp968:
	.loc	10 14 25
	movq	%rbx, %rdi
	movq	%r15, %rsi
	callq	__ZN4core3fmt9Formatter9write_fmt17h3dc2bf45afed3069E
	.loc	10 14 40 is_stmt 0
	testb	%al, %al
	je	LBB31_6
Ltmp969:
LBB31_7:
	.loc	10 0 40
	movb	$1, %cl
	jmp	LBB31_8
Ltmp970:
LBB31_3:
	.loc	1 328 9 is_stmt 1
	leaq	l___unnamed_5(%rip), %rax
Ltmp971:
	movq	%rax, -88(%rbp)
	movq	$1, -80(%rbp)
	movq	$0, -72(%rbp)
Ltmp972:
	leaq	l___unnamed_4(%rip), %rax
Ltmp973:
	movq	%rax, -56(%rbp)
	movq	$0, -48(%rbp)
	leaq	-88(%rbp), %rsi
Ltmp974:
	.loc	10 18 17
	movq	%rbx, %rdi
	callq	__ZN4core3fmt9Formatter9write_fmt17h3dc2bf45afed3069E
	movl	%eax, %ecx
Ltmp975:
LBB31_8:
	.loc	10 19 14
	movl	%ecx, %eax
	addq	$104, %rsp
	popq	%rbx
Ltmp976:
	popq	%r12
	popq	%r13
	popq	%r14
	popq	%r15
	popq	%rbp
	retq
Ltmp977:
Lfunc_end31:
	.cfi_endproc

	.globl	__ZN11packed_simd3v3297_$LT$impl$u20$core..fmt..Binary$u20$for$u20$packed_simd..Simd$LT$$u5b$i16$u3b$$u20$2$u5d$$GT$$GT$3fmt17h0ded708451974187E
	.p2align	4, 0x90
__ZN11packed_simd3v3297_$LT$impl$u20$core..fmt..Binary$u20$for$u20$packed_simd..Simd$LT$$u5b$i16$u3b$$u20$2$u5d$$GT$$GT$3fmt17h0ded708451974187E:
Lfunc_begin32:
	.loc	11 9 0
	.cfi_startproc
	pushq	%rbp
	.cfi_def_cfa_offset 16
	.cfi_offset %rbp, -16
	movq	%rsp, %rbp
	.cfi_def_cfa_register %rbp
	pushq	%r15
	pushq	%r14
	pushq	%r13
	pushq	%r12
	pushq	%rbx
	subq	$104, %rsp
	.cfi_offset %rbx, -56
	.cfi_offset %r12, -48
	.cfi_offset %r13, -40
	.cfi_offset %r14, -32
	.cfi_offset %r15, -24
	movq	%rsi, %rbx
Ltmp978:
	movq	%rdi, %r15
Ltmp979:
	.loc	11 11 17 prologue_end
	leaq	__ZN44_$LT$$RF$T$u20$as$u20$core..fmt..Display$GT$3fmt17h0663b18722df5164E(%rip), %rax
	movq	%rax, %xmm0
	leaq	l___unnamed_11(%rip), %rax
	movq	%rax, %xmm1
	punpcklqdq	%xmm0, %xmm1
	movdqa	%xmm1, -144(%rbp)
Ltmp980:
	.loc	1 328 9
	leaq	l___unnamed_2(%rip), %rax
Ltmp981:
	movq	%rax, -88(%rbp)
	movq	$2, -80(%rbp)
	movq	$0, -72(%rbp)
	leaq	-144(%rbp), %rax
Ltmp982:
	movq	%rax, -56(%rbp)
	movq	$1, -48(%rbp)
	leaq	-88(%rbp), %rsi
Ltmp983:
	.loc	11 11 17
	movq	%rbx, %rdi
	callq	__ZN4core3fmt9Formatter9write_fmt17h3dc2bf45afed3069E
	movb	$1, %cl
	.loc	11 11 50 is_stmt 0
	testb	%al, %al
	jne	LBB32_8
Ltmp984:
	.loc	11 0 0
	movd	(%r15), %xmm0
	pshufd	$196, %xmm0, %xmm0
	pshufhw	$229, %xmm0, %xmm0
	movdqa	%xmm0, -112(%rbp)
	xorl	%r14d, %r14d
	leaq	-88(%rbp), %r15
Ltmp985:
	leaq	l___unnamed_3(%rip), %r13
Ltmp986:
	.loc	7 1137 52 is_stmt 1
	cmpq	$2, %r14
Ltmp987:
	.loc	8 211 9
	jne	LBB32_4
	jmp	LBB32_3
Ltmp988:
	.p2align	4, 0x90
LBB32_6:
	.loc	8 0 9 is_stmt 0
	movdqa	-112(%rbp), %xmm0
Ltmp989:
	.loc	4 63 36 is_stmt 1
	movdqa	%xmm0, -128(%rbp)
Ltmp990:
	.loc	11 0 0 is_stmt 0
	leaq	1(%r14), %r12
Ltmp991:
	.loc	4 63 36
	andl	$1, %r14d
Ltmp992:
	movq	-128(%rbp,%r14,8), %rax
Ltmp993:
	.loc	11 16 21 is_stmt 1
	movw	%ax, -88(%rbp)
	movq	%r15, %rdi
	movq	%rbx, %rsi
	callq	__ZN4core3fmt3num51_$LT$impl$u20$core..fmt..Binary$u20$for$u20$i16$GT$3fmt17hbda9d5cd00305b44E
Ltmp994:
	.loc	11 0 0 is_stmt 0
	movq	%r12, %r14
Ltmp995:
	.loc	11 16 43
	testb	%al, %al
	jne	LBB32_7
Ltmp996:
	.loc	7 1137 52 is_stmt 1
	cmpq	$2, %r14
Ltmp997:
	.loc	8 211 9
	je	LBB32_3
Ltmp998:
LBB32_4:
	.loc	11 13 24
	testq	%r14, %r14
	.loc	11 13 21 is_stmt 0
	je	LBB32_6
Ltmp999:
	.loc	1 328 9 is_stmt 1
	movq	%r13, -88(%rbp)
	movq	$1, -80(%rbp)
	movq	$0, -72(%rbp)
Ltmp1000:
	leaq	l___unnamed_4(%rip), %rax
	movq	%rax, -56(%rbp)
	movq	$0, -48(%rbp)
Ltmp1001:
	.loc	11 14 25
	movq	%rbx, %rdi
	movq	%r15, %rsi
	callq	__ZN4core3fmt9Formatter9write_fmt17h3dc2bf45afed3069E
	.loc	11 14 40 is_stmt 0
	testb	%al, %al
	je	LBB32_6
Ltmp1002:
LBB32_7:
	.loc	11 0 40
	movb	$1, %cl
	jmp	LBB32_8
Ltmp1003:
LBB32_3:
	.loc	1 328 9 is_stmt 1
	leaq	l___unnamed_5(%rip), %rax
Ltmp1004:
	movq	%rax, -88(%rbp)
	movq	$1, -80(%rbp)
	movq	$0, -72(%rbp)
Ltmp1005:
	leaq	l___unnamed_4(%rip), %rax
Ltmp1006:
	movq	%rax, -56(%rbp)
	movq	$0, -48(%rbp)
	leaq	-88(%rbp), %rsi
Ltmp1007:
	.loc	11 18 17
	movq	%rbx, %rdi
	callq	__ZN4core3fmt9Formatter9write_fmt17h3dc2bf45afed3069E
	movl	%eax, %ecx
Ltmp1008:
LBB32_8:
	.loc	11 19 14
	movl	%ecx, %eax
	addq	$104, %rsp
	popq	%rbx
Ltmp1009:
	popq	%r12
	popq	%r13
	popq	%r14
	popq	%r15
	popq	%rbp
	retq
Ltmp1010:
Lfunc_end32:
	.cfi_endproc

	.globl	__ZN11packed_simd3v3296_$LT$impl$u20$core..fmt..Debug$u20$for$u20$packed_simd..Simd$LT$$u5b$u16$u3b$$u20$2$u5d$$GT$$GT$3fmt17h0843bf58347106abE
	.p2align	4, 0x90
__ZN11packed_simd3v3296_$LT$impl$u20$core..fmt..Debug$u20$for$u20$packed_simd..Simd$LT$$u5b$u16$u3b$$u20$2$u5d$$GT$$GT$3fmt17h0843bf58347106abE:
Lfunc_begin33:
	.loc	3 49 0
	.cfi_startproc
	pushq	%rbp
	.cfi_def_cfa_offset 16
	.cfi_offset %rbp, -16
	movq	%rsp, %rbp
	.cfi_def_cfa_register %rbp
	pushq	%r15
	pushq	%r14
	pushq	%rbx
	subq	$88, %rsp
	.cfi_offset %rbx, -40
	.cfi_offset %r14, -32
	.cfi_offset %r15, -24
	movq	%rsi, %r15
Ltmp1011:
	movq	%rdi, %rbx
Ltmp1012:
	.loc	3 52 17 prologue_end
	leaq	__ZN44_$LT$$RF$T$u20$as$u20$core..fmt..Display$GT$3fmt17h0663b18722df5164E(%rip), %rax
	movq	%rax, %xmm0
	leaq	l___unnamed_12(%rip), %rax
	movq	%rax, %xmm1
	punpcklqdq	%xmm0, %xmm1
	movdqa	%xmm1, -112(%rbp)
Ltmp1013:
	.loc	1 328 9
	leaq	l___unnamed_2(%rip), %rax
Ltmp1014:
	movq	%rax, -72(%rbp)
	movq	$2, -64(%rbp)
	movq	$0, -56(%rbp)
	leaq	-112(%rbp), %rax
Ltmp1015:
	movq	%rax, -40(%rbp)
	movq	$1, -32(%rbp)
	leaq	-72(%rbp), %rsi
Ltmp1016:
	.loc	3 52 17
	movq	%r15, %rdi
	callq	__ZN4core3fmt9Formatter9write_fmt17h3dc2bf45afed3069E
	movb	$1, %r14b
	.loc	3 52 50 is_stmt 0
	testb	%al, %al
	jne	LBB33_12
Ltmp1017:
	.loc	3 0 0
	movd	(%rbx), %xmm0
Ltmp1018:
	movdqa	%xmm0, -96(%rbp)
Ltmp1019:
	.loc	4 63 36 is_stmt 1
	pextrw	$0, %xmm0, %eax
Ltmp1020:
	.loc	3 57 21
	movw	%ax, -72(%rbp)
Ltmp1021:
	.loc	5 149 20
	movq	%r15, %rdi
	callq	__ZN4core3fmt9Formatter15debug_lower_hex17h8530fbaeba13f4d9E
	.loc	5 149 17 is_stmt 0
	testb	%al, %al
	je	LBB33_2
Ltmp1022:
	.loc	5 0 17
	leaq	-72(%rbp), %rdi
	.loc	5 150 21 is_stmt 1
	movq	%r15, %rsi
	callq	__ZN4core3fmt3num53_$LT$impl$u20$core..fmt..LowerHex$u20$for$u20$u16$GT$3fmt17h4a3e59891cc09bc8E
Ltmp1023:
	.loc	3 57 43
	testb	%al, %al
	je	LBB33_6
	jmp	LBB33_12
Ltmp1024:
LBB33_2:
	.loc	5 151 27
	movq	%r15, %rdi
	callq	__ZN4core3fmt9Formatter15debug_upper_hex17hf8fda15ec43a1e68E
	leaq	-72(%rbp), %rdi
	.loc	5 154 21
	movq	%r15, %rsi
	.loc	5 151 24
	testb	%al, %al
	je	LBB33_4
Ltmp1025:
	.loc	5 152 21
	callq	__ZN4core3fmt3num53_$LT$impl$u20$core..fmt..UpperHex$u20$for$u20$u16$GT$3fmt17h80b29e32979d60cdE
Ltmp1026:
	.loc	3 57 43
	testb	%al, %al
	je	LBB33_6
	jmp	LBB33_12
Ltmp1027:
LBB33_4:
	.loc	5 154 21
	callq	__ZN4core3fmt3num3imp52_$LT$impl$u20$core..fmt..Display$u20$for$u20$u16$GT$3fmt17h7d9582ae70d300cbE
Ltmp1028:
	.loc	3 57 43
	testb	%al, %al
	jne	LBB33_12
Ltmp1029:
LBB33_6:
	.loc	1 328 9
	leaq	l___unnamed_3(%rip), %rax
Ltmp1030:
	movq	%rax, -72(%rbp)
	movq	$1, -64(%rbp)
	movq	$0, -56(%rbp)
	leaq	l___unnamed_4(%rip), %rbx
Ltmp1031:
	movq	%rbx, -40(%rbp)
	movq	$0, -32(%rbp)
	leaq	-72(%rbp), %rsi
Ltmp1032:
	.loc	3 55 25
	movq	%r15, %rdi
	callq	__ZN4core3fmt9Formatter9write_fmt17h3dc2bf45afed3069E
Ltmp1033:
	.loc	3 55 40 is_stmt 0
	testb	%al, %al
	jne	LBB33_12
Ltmp1034:
	.loc	3 0 0
	pshufd	$196, -96(%rbp), %xmm0
	pshufhw	$229, %xmm0, %xmm0
Ltmp1035:
	.loc	4 63 36 is_stmt 1
	pextrw	$4, %xmm0, %eax
Ltmp1036:
	.loc	3 57 21
	movw	%ax, -72(%rbp)
Ltmp1037:
	.loc	5 149 20
	movq	%r15, %rdi
	callq	__ZN4core3fmt9Formatter15debug_lower_hex17h8530fbaeba13f4d9E
	.loc	5 149 17 is_stmt 0
	testb	%al, %al
	je	LBB33_8
Ltmp1038:
	.loc	5 0 17
	leaq	-72(%rbp), %rdi
	.loc	5 150 21 is_stmt 1
	movq	%r15, %rsi
	callq	__ZN4core3fmt3num53_$LT$impl$u20$core..fmt..LowerHex$u20$for$u20$u16$GT$3fmt17h4a3e59891cc09bc8E
Ltmp1039:
	.loc	3 57 43
	testb	%al, %al
	jne	LBB33_12
Ltmp1040:
LBB33_11:
	.loc	1 328 9
	leaq	l___unnamed_5(%rip), %rax
Ltmp1041:
	movq	%rax, -72(%rbp)
	movq	$1, -64(%rbp)
	movq	$0, -56(%rbp)
Ltmp1042:
	movq	%rbx, -40(%rbp)
	movq	$0, -32(%rbp)
	leaq	-72(%rbp), %rsi
Ltmp1043:
	.loc	3 59 17
	movq	%r15, %rdi
	callq	__ZN4core3fmt9Formatter9write_fmt17h3dc2bf45afed3069E
Ltmp1044:
	movl	%eax, %r14d
Ltmp1045:
LBB33_12:
	.loc	3 60 14
	movl	%r14d, %eax
	addq	$88, %rsp
	popq	%rbx
	popq	%r14
	popq	%r15
Ltmp1046:
	popq	%rbp
	retq
LBB33_8:
Ltmp1047:
	.loc	5 151 27
	movq	%r15, %rdi
	callq	__ZN4core3fmt9Formatter15debug_upper_hex17hf8fda15ec43a1e68E
	leaq	-72(%rbp), %rdi
	.loc	5 152 21
	movq	%r15, %rsi
	.loc	5 151 24
	testb	%al, %al
	je	LBB33_9
Ltmp1048:
	.loc	5 152 21
	callq	__ZN4core3fmt3num53_$LT$impl$u20$core..fmt..UpperHex$u20$for$u20$u16$GT$3fmt17h80b29e32979d60cdE
Ltmp1049:
	.loc	3 57 43
	testb	%al, %al
	je	LBB33_11
	jmp	LBB33_12
Ltmp1050:
LBB33_9:
	.loc	5 154 21
	callq	__ZN4core3fmt3num3imp52_$LT$impl$u20$core..fmt..Display$u20$for$u20$u16$GT$3fmt17h7d9582ae70d300cbE
Ltmp1051:
	.loc	3 57 43
	testb	%al, %al
	je	LBB33_11
	jmp	LBB33_12
Ltmp1052:
Lfunc_end33:
	.cfi_endproc

	.globl	__ZN11packed_simd3v3299_$LT$impl$u20$core..fmt..LowerHex$u20$for$u20$packed_simd..Simd$LT$$u5b$u16$u3b$$u20$2$u5d$$GT$$GT$3fmt17h1ef882a3a30e5340E
	.p2align	4, 0x90
__ZN11packed_simd3v3299_$LT$impl$u20$core..fmt..LowerHex$u20$for$u20$packed_simd..Simd$LT$$u5b$u16$u3b$$u20$2$u5d$$GT$$GT$3fmt17h1ef882a3a30e5340E:
Lfunc_begin34:
	.loc	6 9 0
	.cfi_startproc
	pushq	%rbp
	.cfi_def_cfa_offset 16
	.cfi_offset %rbp, -16
	movq	%rsp, %rbp
	.cfi_def_cfa_register %rbp
	pushq	%r15
	pushq	%r14
	pushq	%r13
	pushq	%r12
	pushq	%rbx
	subq	$104, %rsp
	.cfi_offset %rbx, -56
	.cfi_offset %r12, -48
	.cfi_offset %r13, -40
	.cfi_offset %r14, -32
	.cfi_offset %r15, -24
	movq	%rsi, %rbx
Ltmp1053:
	movq	%rdi, %r15
Ltmp1054:
	.loc	6 11 17 prologue_end
	leaq	__ZN44_$LT$$RF$T$u20$as$u20$core..fmt..Display$GT$3fmt17h0663b18722df5164E(%rip), %rax
	movq	%rax, %xmm0
	leaq	l___unnamed_12(%rip), %rax
	movq	%rax, %xmm1
	punpcklqdq	%xmm0, %xmm1
	movdqa	%xmm1, -144(%rbp)
Ltmp1055:
	.loc	1 328 9
	leaq	l___unnamed_2(%rip), %rax
Ltmp1056:
	movq	%rax, -88(%rbp)
	movq	$2, -80(%rbp)
	movq	$0, -72(%rbp)
	leaq	-144(%rbp), %rax
Ltmp1057:
	movq	%rax, -56(%rbp)
	movq	$1, -48(%rbp)
	leaq	-88(%rbp), %rsi
Ltmp1058:
	.loc	6 11 17
	movq	%rbx, %rdi
	callq	__ZN4core3fmt9Formatter9write_fmt17h3dc2bf45afed3069E
	movb	$1, %cl
	.loc	6 11 50 is_stmt 0
	testb	%al, %al
	jne	LBB34_8
Ltmp1059:
	.loc	6 0 0
	movd	(%r15), %xmm0
	pshufd	$196, %xmm0, %xmm0
	pshufhw	$229, %xmm0, %xmm0
	movdqa	%xmm0, -112(%rbp)
	xorl	%r14d, %r14d
	leaq	-88(%rbp), %r15
Ltmp1060:
	leaq	l___unnamed_3(%rip), %r13
Ltmp1061:
	.loc	7 1137 52 is_stmt 1
	cmpq	$2, %r14
Ltmp1062:
	.loc	8 211 9
	jne	LBB34_4
	jmp	LBB34_3
Ltmp1063:
	.p2align	4, 0x90
LBB34_6:
	.loc	8 0 9 is_stmt 0
	movdqa	-112(%rbp), %xmm0
Ltmp1064:
	.loc	4 63 36 is_stmt 1
	movdqa	%xmm0, -128(%rbp)
Ltmp1065:
	.loc	6 0 0 is_stmt 0
	leaq	1(%r14), %r12
Ltmp1066:
	.loc	4 63 36
	andl	$1, %r14d
Ltmp1067:
	movq	-128(%rbp,%r14,8), %rax
Ltmp1068:
	.loc	6 16 21 is_stmt 1
	movw	%ax, -88(%rbp)
	movq	%r15, %rdi
	movq	%rbx, %rsi
	callq	__ZN4core3fmt3num53_$LT$impl$u20$core..fmt..LowerHex$u20$for$u20$u16$GT$3fmt17h4a3e59891cc09bc8E
Ltmp1069:
	.loc	6 0 0 is_stmt 0
	movq	%r12, %r14
Ltmp1070:
	.loc	6 16 43
	testb	%al, %al
	jne	LBB34_7
Ltmp1071:
	.loc	7 1137 52 is_stmt 1
	cmpq	$2, %r14
Ltmp1072:
	.loc	8 211 9
	je	LBB34_3
Ltmp1073:
LBB34_4:
	.loc	6 13 24
	testq	%r14, %r14
	.loc	6 13 21 is_stmt 0
	je	LBB34_6
Ltmp1074:
	.loc	1 328 9 is_stmt 1
	movq	%r13, -88(%rbp)
	movq	$1, -80(%rbp)
	movq	$0, -72(%rbp)
Ltmp1075:
	leaq	l___unnamed_4(%rip), %rax
	movq	%rax, -56(%rbp)
	movq	$0, -48(%rbp)
Ltmp1076:
	.loc	6 14 25
	movq	%rbx, %rdi
	movq	%r15, %rsi
	callq	__ZN4core3fmt9Formatter9write_fmt17h3dc2bf45afed3069E
	.loc	6 14 40 is_stmt 0
	testb	%al, %al
	je	LBB34_6
Ltmp1077:
LBB34_7:
	.loc	6 0 40
	movb	$1, %cl
	jmp	LBB34_8
Ltmp1078:
LBB34_3:
	.loc	1 328 9 is_stmt 1
	leaq	l___unnamed_5(%rip), %rax
Ltmp1079:
	movq	%rax, -88(%rbp)
	movq	$1, -80(%rbp)
	movq	$0, -72(%rbp)
Ltmp1080:
	leaq	l___unnamed_4(%rip), %rax
Ltmp1081:
	movq	%rax, -56(%rbp)
	movq	$0, -48(%rbp)
	leaq	-88(%rbp), %rsi
Ltmp1082:
	.loc	6 18 17
	movq	%rbx, %rdi
	callq	__ZN4core3fmt9Formatter9write_fmt17h3dc2bf45afed3069E
	movl	%eax, %ecx
Ltmp1083:
LBB34_8:
	.loc	6 19 14
	movl	%ecx, %eax
	addq	$104, %rsp
	popq	%rbx
Ltmp1084:
	popq	%r12
	popq	%r13
	popq	%r14
	popq	%r15
	popq	%rbp
	retq
Ltmp1085:
Lfunc_end34:
	.cfi_endproc

	.globl	__ZN11packed_simd3v3299_$LT$impl$u20$core..fmt..UpperHex$u20$for$u20$packed_simd..Simd$LT$$u5b$u16$u3b$$u20$2$u5d$$GT$$GT$3fmt17hb98bf278fc134badE
	.p2align	4, 0x90
__ZN11packed_simd3v3299_$LT$impl$u20$core..fmt..UpperHex$u20$for$u20$packed_simd..Simd$LT$$u5b$u16$u3b$$u20$2$u5d$$GT$$GT$3fmt17hb98bf278fc134badE:
Lfunc_begin35:
	.loc	9 9 0
	.cfi_startproc
	pushq	%rbp
	.cfi_def_cfa_offset 16
	.cfi_offset %rbp, -16
	movq	%rsp, %rbp
	.cfi_def_cfa_register %rbp
	pushq	%r15
	pushq	%r14
	pushq	%r13
	pushq	%r12
	pushq	%rbx
	subq	$104, %rsp
	.cfi_offset %rbx, -56
	.cfi_offset %r12, -48
	.cfi_offset %r13, -40
	.cfi_offset %r14, -32
	.cfi_offset %r15, -24
	movq	%rsi, %rbx
Ltmp1086:
	movq	%rdi, %r15
Ltmp1087:
	.loc	9 11 17 prologue_end
	leaq	__ZN44_$LT$$RF$T$u20$as$u20$core..fmt..Display$GT$3fmt17h0663b18722df5164E(%rip), %rax
	movq	%rax, %xmm0
	leaq	l___unnamed_12(%rip), %rax
	movq	%rax, %xmm1
	punpcklqdq	%xmm0, %xmm1
	movdqa	%xmm1, -144(%rbp)
Ltmp1088:
	.loc	1 328 9
	leaq	l___unnamed_2(%rip), %rax
Ltmp1089:
	movq	%rax, -88(%rbp)
	movq	$2, -80(%rbp)
	movq	$0, -72(%rbp)
	leaq	-144(%rbp), %rax
Ltmp1090:
	movq	%rax, -56(%rbp)
	movq	$1, -48(%rbp)
	leaq	-88(%rbp), %rsi
Ltmp1091:
	.loc	9 11 17
	movq	%rbx, %rdi
	callq	__ZN4core3fmt9Formatter9write_fmt17h3dc2bf45afed3069E
	movb	$1, %cl
	.loc	9 11 50 is_stmt 0
	testb	%al, %al
	jne	LBB35_8
Ltmp1092:
	.loc	9 0 0
	movd	(%r15), %xmm0
	pshufd	$196, %xmm0, %xmm0
	pshufhw	$229, %xmm0, %xmm0
	movdqa	%xmm0, -112(%rbp)
	xorl	%r14d, %r14d
	leaq	-88(%rbp), %r15
Ltmp1093:
	leaq	l___unnamed_3(%rip), %r13
Ltmp1094:
	.loc	7 1137 52 is_stmt 1
	cmpq	$2, %r14
Ltmp1095:
	.loc	8 211 9
	jne	LBB35_4
	jmp	LBB35_3
Ltmp1096:
	.p2align	4, 0x90
LBB35_6:
	.loc	8 0 9 is_stmt 0
	movdqa	-112(%rbp), %xmm0
Ltmp1097:
	.loc	4 63 36 is_stmt 1
	movdqa	%xmm0, -128(%rbp)
Ltmp1098:
	.loc	9 0 0 is_stmt 0
	leaq	1(%r14), %r12
Ltmp1099:
	.loc	4 63 36
	andl	$1, %r14d
Ltmp1100:
	movq	-128(%rbp,%r14,8), %rax
Ltmp1101:
	.loc	9 16 21 is_stmt 1
	movw	%ax, -88(%rbp)
	movq	%r15, %rdi
	movq	%rbx, %rsi
	callq	__ZN4core3fmt3num53_$LT$impl$u20$core..fmt..UpperHex$u20$for$u20$u16$GT$3fmt17h80b29e32979d60cdE
Ltmp1102:
	.loc	9 0 0 is_stmt 0
	movq	%r12, %r14
Ltmp1103:
	.loc	9 16 43
	testb	%al, %al
	jne	LBB35_7
Ltmp1104:
	.loc	7 1137 52 is_stmt 1
	cmpq	$2, %r14
Ltmp1105:
	.loc	8 211 9
	je	LBB35_3
Ltmp1106:
LBB35_4:
	.loc	9 13 24
	testq	%r14, %r14
	.loc	9 13 21 is_stmt 0
	je	LBB35_6
Ltmp1107:
	.loc	1 328 9 is_stmt 1
	movq	%r13, -88(%rbp)
	movq	$1, -80(%rbp)
	movq	$0, -72(%rbp)
Ltmp1108:
	leaq	l___unnamed_4(%rip), %rax
	movq	%rax, -56(%rbp)
	movq	$0, -48(%rbp)
Ltmp1109:
	.loc	9 14 25
	movq	%rbx, %rdi
	movq	%r15, %rsi
	callq	__ZN4core3fmt9Formatter9write_fmt17h3dc2bf45afed3069E
	.loc	9 14 40 is_stmt 0
	testb	%al, %al
	je	LBB35_6
Ltmp1110:
LBB35_7:
	.loc	9 0 40
	movb	$1, %cl
	jmp	LBB35_8
Ltmp1111:
LBB35_3:
	.loc	1 328 9 is_stmt 1
	leaq	l___unnamed_5(%rip), %rax
Ltmp1112:
	movq	%rax, -88(%rbp)
	movq	$1, -80(%rbp)
	movq	$0, -72(%rbp)
Ltmp1113:
	leaq	l___unnamed_4(%rip), %rax
Ltmp1114:
	movq	%rax, -56(%rbp)
	movq	$0, -48(%rbp)
	leaq	-88(%rbp), %rsi
Ltmp1115:
	.loc	9 18 17
	movq	%rbx, %rdi
	callq	__ZN4core3fmt9Formatter9write_fmt17h3dc2bf45afed3069E
	movl	%eax, %ecx
Ltmp1116:
LBB35_8:
	.loc	9 19 14
	movl	%ecx, %eax
	addq	$104, %rsp
	popq	%rbx
Ltmp1117:
	popq	%r12
	popq	%r13
	popq	%r14
	popq	%r15
	popq	%rbp
	retq
Ltmp1118:
Lfunc_end35:
	.cfi_endproc

	.globl	__ZN11packed_simd3v3296_$LT$impl$u20$core..fmt..Octal$u20$for$u20$packed_simd..Simd$LT$$u5b$u16$u3b$$u20$2$u5d$$GT$$GT$3fmt17h72b4839827f38238E
	.p2align	4, 0x90
__ZN11packed_simd3v3296_$LT$impl$u20$core..fmt..Octal$u20$for$u20$packed_simd..Simd$LT$$u5b$u16$u3b$$u20$2$u5d$$GT$$GT$3fmt17h72b4839827f38238E:
Lfunc_begin36:
	.loc	10 9 0
	.cfi_startproc
	pushq	%rbp
	.cfi_def_cfa_offset 16
	.cfi_offset %rbp, -16
	movq	%rsp, %rbp
	.cfi_def_cfa_register %rbp
	pushq	%r15
	pushq	%r14
	pushq	%r13
	pushq	%r12
	pushq	%rbx
	subq	$104, %rsp
	.cfi_offset %rbx, -56
	.cfi_offset %r12, -48
	.cfi_offset %r13, -40
	.cfi_offset %r14, -32
	.cfi_offset %r15, -24
	movq	%rsi, %rbx
Ltmp1119:
	movq	%rdi, %r15
Ltmp1120:
	.loc	10 11 17 prologue_end
	leaq	__ZN44_$LT$$RF$T$u20$as$u20$core..fmt..Display$GT$3fmt17h0663b18722df5164E(%rip), %rax
	movq	%rax, %xmm0
	leaq	l___unnamed_12(%rip), %rax
	movq	%rax, %xmm1
	punpcklqdq	%xmm0, %xmm1
	movdqa	%xmm1, -144(%rbp)
Ltmp1121:
	.loc	1 328 9
	leaq	l___unnamed_2(%rip), %rax
Ltmp1122:
	movq	%rax, -88(%rbp)
	movq	$2, -80(%rbp)
	movq	$0, -72(%rbp)
	leaq	-144(%rbp), %rax
Ltmp1123:
	movq	%rax, -56(%rbp)
	movq	$1, -48(%rbp)
	leaq	-88(%rbp), %rsi
Ltmp1124:
	.loc	10 11 17
	movq	%rbx, %rdi
	callq	__ZN4core3fmt9Formatter9write_fmt17h3dc2bf45afed3069E
	movb	$1, %cl
	.loc	10 11 50 is_stmt 0
	testb	%al, %al
	jne	LBB36_8
Ltmp1125:
	.loc	10 0 0
	movd	(%r15), %xmm0
	pshufd	$196, %xmm0, %xmm0
	pshufhw	$229, %xmm0, %xmm0
	movdqa	%xmm0, -112(%rbp)
	xorl	%r14d, %r14d
	leaq	-88(%rbp), %r15
Ltmp1126:
	leaq	l___unnamed_3(%rip), %r13
Ltmp1127:
	.loc	7 1137 52 is_stmt 1
	cmpq	$2, %r14
Ltmp1128:
	.loc	8 211 9
	jne	LBB36_4
	jmp	LBB36_3
Ltmp1129:
	.p2align	4, 0x90
LBB36_6:
	.loc	8 0 9 is_stmt 0
	movdqa	-112(%rbp), %xmm0
Ltmp1130:
	.loc	4 63 36 is_stmt 1
	movdqa	%xmm0, -128(%rbp)
Ltmp1131:
	.loc	10 0 0 is_stmt 0
	leaq	1(%r14), %r12
Ltmp1132:
	.loc	4 63 36
	andl	$1, %r14d
Ltmp1133:
	movq	-128(%rbp,%r14,8), %rax
Ltmp1134:
	.loc	10 16 21 is_stmt 1
	movw	%ax, -88(%rbp)
	movq	%r15, %rdi
	movq	%rbx, %rsi
	callq	__ZN4core3fmt3num50_$LT$impl$u20$core..fmt..Octal$u20$for$u20$u16$GT$3fmt17h2ec0c79ba216a7ebE
Ltmp1135:
	.loc	10 0 0 is_stmt 0
	movq	%r12, %r14
Ltmp1136:
	.loc	10 16 43
	testb	%al, %al
	jne	LBB36_7
Ltmp1137:
	.loc	7 1137 52 is_stmt 1
	cmpq	$2, %r14
Ltmp1138:
	.loc	8 211 9
	je	LBB36_3
Ltmp1139:
LBB36_4:
	.loc	10 13 24
	testq	%r14, %r14
	.loc	10 13 21 is_stmt 0
	je	LBB36_6
Ltmp1140:
	.loc	1 328 9 is_stmt 1
	movq	%r13, -88(%rbp)
	movq	$1, -80(%rbp)
	movq	$0, -72(%rbp)
Ltmp1141:
	leaq	l___unnamed_4(%rip), %rax
	movq	%rax, -56(%rbp)
	movq	$0, -48(%rbp)
Ltmp1142:
	.loc	10 14 25
	movq	%rbx, %rdi
	movq	%r15, %rsi
	callq	__ZN4core3fmt9Formatter9write_fmt17h3dc2bf45afed3069E
	.loc	10 14 40 is_stmt 0
	testb	%al, %al
	je	LBB36_6
Ltmp1143:
LBB36_7:
	.loc	10 0 40
	movb	$1, %cl
	jmp	LBB36_8
Ltmp1144:
LBB36_3:
	.loc	1 328 9 is_stmt 1
	leaq	l___unnamed_5(%rip), %rax
Ltmp1145:
	movq	%rax, -88(%rbp)
	movq	$1, -80(%rbp)
	movq	$0, -72(%rbp)
Ltmp1146:
	leaq	l___unnamed_4(%rip), %rax
Ltmp1147:
	movq	%rax, -56(%rbp)
	movq	$0, -48(%rbp)
	leaq	-88(%rbp), %rsi
Ltmp1148:
	.loc	10 18 17
	movq	%rbx, %rdi
	callq	__ZN4core3fmt9Formatter9write_fmt17h3dc2bf45afed3069E
	movl	%eax, %ecx
Ltmp1149:
LBB36_8:
	.loc	10 19 14
	movl	%ecx, %eax
	addq	$104, %rsp
	popq	%rbx
Ltmp1150:
	popq	%r12
	popq	%r13
	popq	%r14
	popq	%r15
	popq	%rbp
	retq
Ltmp1151:
Lfunc_end36:
	.cfi_endproc

	.globl	__ZN11packed_simd3v3297_$LT$impl$u20$core..fmt..Binary$u20$for$u20$packed_simd..Simd$LT$$u5b$u16$u3b$$u20$2$u5d$$GT$$GT$3fmt17h26cfb0a2fc492a69E
	.p2align	4, 0x90
__ZN11packed_simd3v3297_$LT$impl$u20$core..fmt..Binary$u20$for$u20$packed_simd..Simd$LT$$u5b$u16$u3b$$u20$2$u5d$$GT$$GT$3fmt17h26cfb0a2fc492a69E:
Lfunc_begin37:
	.loc	11 9 0
	.cfi_startproc
	pushq	%rbp
	.cfi_def_cfa_offset 16
	.cfi_offset %rbp, -16
	movq	%rsp, %rbp
	.cfi_def_cfa_register %rbp
	pushq	%r15
	pushq	%r14
	pushq	%r13
	pushq	%r12
	pushq	%rbx
	subq	$104, %rsp
	.cfi_offset %rbx, -56
	.cfi_offset %r12, -48
	.cfi_offset %r13, -40
	.cfi_offset %r14, -32
	.cfi_offset %r15, -24
	movq	%rsi, %rbx
Ltmp1152:
	movq	%rdi, %r15
Ltmp1153:
	.loc	11 11 17 prologue_end
	leaq	__ZN44_$LT$$RF$T$u20$as$u20$core..fmt..Display$GT$3fmt17h0663b18722df5164E(%rip), %rax
	movq	%rax, %xmm0
	leaq	l___unnamed_12(%rip), %rax
	movq	%rax, %xmm1
	punpcklqdq	%xmm0, %xmm1
	movdqa	%xmm1, -144(%rbp)
Ltmp1154:
	.loc	1 328 9
	leaq	l___unnamed_2(%rip), %rax
Ltmp1155:
	movq	%rax, -88(%rbp)
	movq	$2, -80(%rbp)
	movq	$0, -72(%rbp)
	leaq	-144(%rbp), %rax
Ltmp1156:
	movq	%rax, -56(%rbp)
	movq	$1, -48(%rbp)
	leaq	-88(%rbp), %rsi
Ltmp1157:
	.loc	11 11 17
	movq	%rbx, %rdi
	callq	__ZN4core3fmt9Formatter9write_fmt17h3dc2bf45afed3069E
	movb	$1, %cl
	.loc	11 11 50 is_stmt 0
	testb	%al, %al
	jne	LBB37_8
Ltmp1158:
	.loc	11 0 0
	movd	(%r15), %xmm0
	pshufd	$196, %xmm0, %xmm0
	pshufhw	$229, %xmm0, %xmm0
	movdqa	%xmm0, -112(%rbp)
	xorl	%r14d, %r14d
	leaq	-88(%rbp), %r15
Ltmp1159:
	leaq	l___unnamed_3(%rip), %r13
Ltmp1160:
	.loc	7 1137 52 is_stmt 1
	cmpq	$2, %r14
Ltmp1161:
	.loc	8 211 9
	jne	LBB37_4
	jmp	LBB37_3
Ltmp1162:
	.p2align	4, 0x90
LBB37_6:
	.loc	8 0 9 is_stmt 0
	movdqa	-112(%rbp), %xmm0
Ltmp1163:
	.loc	4 63 36 is_stmt 1
	movdqa	%xmm0, -128(%rbp)
Ltmp1164:
	.loc	11 0 0 is_stmt 0
	leaq	1(%r14), %r12
Ltmp1165:
	.loc	4 63 36
	andl	$1, %r14d
Ltmp1166:
	movq	-128(%rbp,%r14,8), %rax
Ltmp1167:
	.loc	11 16 21 is_stmt 1
	movw	%ax, -88(%rbp)
	movq	%r15, %rdi
	movq	%rbx, %rsi
	callq	__ZN4core3fmt3num51_$LT$impl$u20$core..fmt..Binary$u20$for$u20$u16$GT$3fmt17hc8b19066ea81d36bE
Ltmp1168:
	.loc	11 0 0 is_stmt 0
	movq	%r12, %r14
Ltmp1169:
	.loc	11 16 43
	testb	%al, %al
	jne	LBB37_7
Ltmp1170:
	.loc	7 1137 52 is_stmt 1
	cmpq	$2, %r14
Ltmp1171:
	.loc	8 211 9
	je	LBB37_3
Ltmp1172:
LBB37_4:
	.loc	11 13 24
	testq	%r14, %r14
	.loc	11 13 21 is_stmt 0
	je	LBB37_6
Ltmp1173:
	.loc	1 328 9 is_stmt 1
	movq	%r13, -88(%rbp)
	movq	$1, -80(%rbp)
	movq	$0, -72(%rbp)
Ltmp1174:
	leaq	l___unnamed_4(%rip), %rax
	movq	%rax, -56(%rbp)
	movq	$0, -48(%rbp)
Ltmp1175:
	.loc	11 14 25
	movq	%rbx, %rdi
	movq	%r15, %rsi
	callq	__ZN4core3fmt9Formatter9write_fmt17h3dc2bf45afed3069E
	.loc	11 14 40 is_stmt 0
	testb	%al, %al
	je	LBB37_6
Ltmp1176:
LBB37_7:
	.loc	11 0 40
	movb	$1, %cl
	jmp	LBB37_8
Ltmp1177:
LBB37_3:
	.loc	1 328 9 is_stmt 1
	leaq	l___unnamed_5(%rip), %rax
Ltmp1178:
	movq	%rax, -88(%rbp)
	movq	$1, -80(%rbp)
	movq	$0, -72(%rbp)
Ltmp1179:
	leaq	l___unnamed_4(%rip), %rax
Ltmp1180:
	movq	%rax, -56(%rbp)
	movq	$0, -48(%rbp)
	leaq	-88(%rbp), %rsi
Ltmp1181:
	.loc	11 18 17
	movq	%rbx, %rdi
	callq	__ZN4core3fmt9Formatter9write_fmt17h3dc2bf45afed3069E
	movl	%eax, %ecx
Ltmp1182:
LBB37_8:
	.loc	11 19 14
	movl	%ecx, %eax
	addq	$104, %rsp
	popq	%rbx
Ltmp1183:
	popq	%r12
	popq	%r13
	popq	%r14
	popq	%r15
	popq	%rbp
	retq
Ltmp1184:
Lfunc_end37:
	.cfi_endproc

	.globl	__ZN11packed_simd3v32116_$LT$impl$u20$core..fmt..Debug$u20$for$u20$packed_simd..Simd$LT$$u5b$packed_simd..masks..m16$u3b$$u20$2$u5d$$GT$$GT$3fmt17haabbcc4ec3af9e2bE
	.p2align	4, 0x90
__ZN11packed_simd3v32116_$LT$impl$u20$core..fmt..Debug$u20$for$u20$packed_simd..Simd$LT$$u5b$packed_simd..masks..m16$u3b$$u20$2$u5d$$GT$$GT$3fmt17haabbcc4ec3af9e2bE:
Lfunc_begin38:
	.loc	3 49 0
	.cfi_startproc
	pushq	%rbp
	.cfi_def_cfa_offset 16
	.cfi_offset %rbp, -16
	movq	%rsp, %rbp
	.cfi_def_cfa_register %rbp
	pushq	%r15
	pushq	%r14
	pushq	%r13
	pushq	%r12
	pushq	%rbx
	subq	$104, %rsp
	.cfi_offset %rbx, -56
	.cfi_offset %r12, -48
	.cfi_offset %r13, -40
	.cfi_offset %r14, -32
	.cfi_offset %r15, -24
	movq	%rsi, %rbx
Ltmp1185:
	movq	%rdi, %r15
Ltmp1186:
	.loc	3 52 17 prologue_end
	leaq	__ZN44_$LT$$RF$T$u20$as$u20$core..fmt..Display$GT$3fmt17h0663b18722df5164E(%rip), %rax
	movq	%rax, %xmm0
	leaq	l___unnamed_13(%rip), %rax
	movq	%rax, %xmm1
	punpcklqdq	%xmm0, %xmm1
	movdqa	%xmm1, -144(%rbp)
Ltmp1187:
	.loc	1 328 9
	leaq	l___unnamed_2(%rip), %rax
Ltmp1188:
	movq	%rax, -88(%rbp)
	movq	$2, -80(%rbp)
	movq	$0, -72(%rbp)
	leaq	-144(%rbp), %rax
Ltmp1189:
	movq	%rax, -56(%rbp)
	movq	$1, -48(%rbp)
	leaq	-88(%rbp), %rsi
Ltmp1190:
	.loc	3 52 17
	movq	%rbx, %rdi
	callq	__ZN4core3fmt9Formatter9write_fmt17h3dc2bf45afed3069E
	movb	$1, %cl
	.loc	3 52 50 is_stmt 0
	testb	%al, %al
	jne	LBB38_8
Ltmp1191:
	.loc	3 0 0
	movd	(%r15), %xmm0
	pshufd	$196, %xmm0, %xmm0
	pshufhw	$229, %xmm0, %xmm0
	movdqa	%xmm0, -112(%rbp)
	xorl	%r14d, %r14d
	leaq	-88(%rbp), %r15
Ltmp1192:
	leaq	l___unnamed_3(%rip), %r13
Ltmp1193:
	.loc	7 1137 52 is_stmt 1
	cmpq	$2, %r14
Ltmp1194:
	.loc	8 211 9
	jne	LBB38_4
	jmp	LBB38_3
Ltmp1195:
	.p2align	4, 0x90
LBB38_6:
	.loc	8 0 9 is_stmt 0
	movdqa	-112(%rbp), %xmm0
Ltmp1196:
	.loc	12 67 36 is_stmt 1
	movdqa	%xmm0, -128(%rbp)
Ltmp1197:
	.loc	3 0 0 is_stmt 0
	leaq	1(%r14), %r12
Ltmp1198:
	.loc	12 67 36
	andl	$1, %r14d
Ltmp1199:
	movq	-128(%rbp,%r14,8), %rax
Ltmp1200:
	.loc	12 68 17 is_stmt 1
	testw	%ax, %ax
Ltmp1201:
	.loc	3 57 21
	setne	-88(%rbp)
Ltmp1202:
	.loc	1 2003 9
	movq	%r15, %rdi
	movq	%rbx, %rsi
	callq	__ZN43_$LT$bool$u20$as$u20$core..fmt..Display$GT$3fmt17hf36463fa8b480ab4E
Ltmp1203:
	.loc	3 0 0 is_stmt 0
	movq	%r12, %r14
Ltmp1204:
	.loc	3 57 43 is_stmt 1
	testb	%al, %al
	jne	LBB38_7
Ltmp1205:
	.loc	7 1137 52
	cmpq	$2, %r14
Ltmp1206:
	.loc	8 211 9
	je	LBB38_3
Ltmp1207:
LBB38_4:
	.loc	3 54 24
	testq	%r14, %r14
	.loc	3 54 21 is_stmt 0
	je	LBB38_6
Ltmp1208:
	.loc	1 328 9 is_stmt 1
	movq	%r13, -88(%rbp)
	movq	$1, -80(%rbp)
	movq	$0, -72(%rbp)
Ltmp1209:
	leaq	l___unnamed_4(%rip), %rax
	movq	%rax, -56(%rbp)
	movq	$0, -48(%rbp)
Ltmp1210:
	.loc	3 55 25
	movq	%rbx, %rdi
	movq	%r15, %rsi
	callq	__ZN4core3fmt9Formatter9write_fmt17h3dc2bf45afed3069E
	.loc	3 55 40 is_stmt 0
	testb	%al, %al
	je	LBB38_6
Ltmp1211:
LBB38_7:
	.loc	3 0 40
	movb	$1, %cl
	jmp	LBB38_8
Ltmp1212:
LBB38_3:
	.loc	1 328 9 is_stmt 1
	leaq	l___unnamed_5(%rip), %rax
Ltmp1213:
	movq	%rax, -88(%rbp)
	movq	$1, -80(%rbp)
	movq	$0, -72(%rbp)
Ltmp1214:
	leaq	l___unnamed_4(%rip), %rax
Ltmp1215:
	movq	%rax, -56(%rbp)
	movq	$0, -48(%rbp)
	leaq	-88(%rbp), %rsi
Ltmp1216:
	.loc	3 59 17
	movq	%rbx, %rdi
	callq	__ZN4core3fmt9Formatter9write_fmt17h3dc2bf45afed3069E
	movl	%eax, %ecx
Ltmp1217:
LBB38_8:
	.loc	3 60 14
	movl	%ecx, %eax
	addq	$104, %rsp
	popq	%rbx
Ltmp1218:
	popq	%r12
	popq	%r13
	popq	%r14
	popq	%r15
	popq	%rbp
	retq
Ltmp1219:
Lfunc_end38:
	.cfi_endproc

	.globl	__ZN11packed_simd3v6495_$LT$impl$u20$core..fmt..Debug$u20$for$u20$packed_simd..Simd$LT$$u5b$i8$u3b$$u20$8$u5d$$GT$$GT$3fmt17hb89051da7bf467b1E
	.p2align	4, 0x90
__ZN11packed_simd3v6495_$LT$impl$u20$core..fmt..Debug$u20$for$u20$packed_simd..Simd$LT$$u5b$i8$u3b$$u20$8$u5d$$GT$$GT$3fmt17hb89051da7bf467b1E:
Lfunc_begin39:
	.loc	3 49 0
	.cfi_startproc
	pushq	%rbp
	.cfi_def_cfa_offset 16
	.cfi_offset %rbp, -16
	movq	%rsp, %rbp
	.cfi_def_cfa_register %rbp
	pushq	%r15
	pushq	%r14
	pushq	%r12
	pushq	%rbx
	subq	$96, %rsp
	.cfi_offset %rbx, -48
	.cfi_offset %r12, -40
	.cfi_offset %r14, -32
	.cfi_offset %r15, -24
	movq	%rsi, %r15
Ltmp1220:
	movq	%rdi, %rbx
Ltmp1221:
	.loc	3 52 17 prologue_end
	leaq	__ZN44_$LT$$RF$T$u20$as$u20$core..fmt..Display$GT$3fmt17h0663b18722df5164E(%rip), %rax
	movq	%rax, %xmm0
	leaq	l___unnamed_14(%rip), %rax
	movq	%rax, %xmm1
	punpcklqdq	%xmm0, %xmm1
	movdqa	%xmm1, -128(%rbp)
Ltmp1222:
	.loc	1 328 9
	leaq	l___unnamed_2(%rip), %rax
Ltmp1223:
	movq	%rax, -80(%rbp)
	movq	$2, -72(%rbp)
	movq	$0, -64(%rbp)
	leaq	-128(%rbp), %rax
Ltmp1224:
	movq	%rax, -48(%rbp)
	movq	$1, -40(%rbp)
	leaq	-80(%rbp), %rsi
Ltmp1225:
	.loc	3 52 17
	movq	%r15, %rdi
	callq	__ZN4core3fmt9Formatter9write_fmt17h3dc2bf45afed3069E
	movb	$1, %r14b
	.loc	3 52 50 is_stmt 0
	testb	%al, %al
	jne	LBB39_42
Ltmp1226:
	.loc	3 0 0
	movq	(%rbx), %xmm0
	punpcklbw	%xmm0, %xmm0
Ltmp1227:
	movdqa	%xmm0, -96(%rbp)
Ltmp1228:
	.loc	4 63 36 is_stmt 1
	movdqa	%xmm0, -112(%rbp)
	movb	-112(%rbp), %al
Ltmp1229:
	.loc	3 57 21
	movb	%al, -80(%rbp)
Ltmp1230:
	.loc	5 149 20
	movq	%r15, %rdi
	callq	__ZN4core3fmt9Formatter15debug_lower_hex17h8530fbaeba13f4d9E
	.loc	5 149 17 is_stmt 0
	testb	%al, %al
	je	LBB39_2
Ltmp1231:
	.loc	5 0 17
	leaq	-80(%rbp), %rdi
	.loc	5 150 21 is_stmt 1
	movq	%r15, %rsi
	callq	__ZN4core3fmt3num52_$LT$impl$u20$core..fmt..LowerHex$u20$for$u20$i8$GT$3fmt17h7f7e9f270a5d54c2E
Ltmp1232:
	.loc	3 57 43
	testb	%al, %al
	je	LBB39_6
	jmp	LBB39_42
Ltmp1233:
LBB39_2:
	.loc	5 151 27
	movq	%r15, %rdi
	callq	__ZN4core3fmt9Formatter15debug_upper_hex17hf8fda15ec43a1e68E
	leaq	-80(%rbp), %rdi
	.loc	5 154 21
	movq	%r15, %rsi
	.loc	5 151 24
	testb	%al, %al
	je	LBB39_4
Ltmp1234:
	.loc	5 152 21
	callq	__ZN4core3fmt3num52_$LT$impl$u20$core..fmt..UpperHex$u20$for$u20$i8$GT$3fmt17hd41115610f011194E
Ltmp1235:
	.loc	3 57 43
	testb	%al, %al
	je	LBB39_6
	jmp	LBB39_42
Ltmp1236:
LBB39_4:
	.loc	5 154 21
	callq	__ZN4core3fmt3num3imp51_$LT$impl$u20$core..fmt..Display$u20$for$u20$i8$GT$3fmt17hc80f24a4257c3563E
Ltmp1237:
	.loc	3 57 43
	testb	%al, %al
	jne	LBB39_42
Ltmp1238:
LBB39_6:
	.loc	1 328 9
	leaq	l___unnamed_3(%rip), %rbx
Ltmp1239:
	movq	%rbx, -80(%rbp)
	movq	$1, -72(%rbp)
	movq	$0, -64(%rbp)
	leaq	l___unnamed_4(%rip), %r12
Ltmp1240:
	movq	%r12, -48(%rbp)
	movq	$0, -40(%rbp)
	leaq	-80(%rbp), %rsi
Ltmp1241:
	.loc	3 55 25
	movq	%r15, %rdi
	callq	__ZN4core3fmt9Formatter9write_fmt17h3dc2bf45afed3069E
	.loc	3 55 40 is_stmt 0
	testb	%al, %al
	jne	LBB39_42
Ltmp1242:
	.loc	3 0 40
	movdqa	-96(%rbp), %xmm0
Ltmp1243:
	.loc	4 63 36 is_stmt 1
	movd	%xmm0, %eax
	shrl	$16, %eax
Ltmp1244:
	.loc	3 57 21
	movb	%al, -80(%rbp)
Ltmp1245:
	.loc	5 149 20
	movq	%r15, %rdi
	callq	__ZN4core3fmt9Formatter15debug_lower_hex17h8530fbaeba13f4d9E
	.loc	5 149 17 is_stmt 0
	testb	%al, %al
	je	LBB39_8
Ltmp1246:
	.loc	5 0 17
	leaq	-80(%rbp), %rdi
	.loc	5 150 21 is_stmt 1
	movq	%r15, %rsi
	callq	__ZN4core3fmt3num52_$LT$impl$u20$core..fmt..LowerHex$u20$for$u20$i8$GT$3fmt17h7f7e9f270a5d54c2E
Ltmp1247:
	.loc	3 57 43
	testb	%al, %al
	je	LBB39_11
	jmp	LBB39_42
Ltmp1248:
LBB39_8:
	.loc	5 151 27
	movq	%r15, %rdi
	callq	__ZN4core3fmt9Formatter15debug_upper_hex17hf8fda15ec43a1e68E
	leaq	-80(%rbp), %rdi
	.loc	5 152 21
	movq	%r15, %rsi
	.loc	5 151 24
	testb	%al, %al
	je	LBB39_9
Ltmp1249:
	.loc	5 152 21
	callq	__ZN4core3fmt3num52_$LT$impl$u20$core..fmt..UpperHex$u20$for$u20$i8$GT$3fmt17hd41115610f011194E
Ltmp1250:
	.loc	3 57 43
	testb	%al, %al
	je	LBB39_11
	jmp	LBB39_42
Ltmp1251:
LBB39_9:
	.loc	5 154 21
	callq	__ZN4core3fmt3num3imp51_$LT$impl$u20$core..fmt..Display$u20$for$u20$i8$GT$3fmt17hc80f24a4257c3563E
Ltmp1252:
	.loc	3 57 43
	testb	%al, %al
	jne	LBB39_42
Ltmp1253:
LBB39_11:
	.loc	1 328 9
	movq	%rbx, -80(%rbp)
	movq	$1, -72(%rbp)
	movq	$0, -64(%rbp)
Ltmp1254:
	movq	%r12, -48(%rbp)
	movq	$0, -40(%rbp)
	leaq	-80(%rbp), %rsi
Ltmp1255:
	.loc	3 55 25
	movq	%r15, %rdi
	callq	__ZN4core3fmt9Formatter9write_fmt17h3dc2bf45afed3069E
	.loc	3 55 40 is_stmt 0
	testb	%al, %al
	jne	LBB39_42
Ltmp1256:
	.loc	3 0 40
	movdqa	-96(%rbp), %xmm0
Ltmp1257:
	.loc	4 63 36 is_stmt 1
	pextrw	$2, %xmm0, %eax
Ltmp1258:
	.loc	3 57 21
	movb	%al, -80(%rbp)
Ltmp1259:
	.loc	5 149 20
	movq	%r15, %rdi
	callq	__ZN4core3fmt9Formatter15debug_lower_hex17h8530fbaeba13f4d9E
	.loc	5 149 17 is_stmt 0
	testb	%al, %al
	je	LBB39_13
Ltmp1260:
	.loc	5 0 17
	leaq	-80(%rbp), %rdi
	.loc	5 150 21 is_stmt 1
	movq	%r15, %rsi
	callq	__ZN4core3fmt3num52_$LT$impl$u20$core..fmt..LowerHex$u20$for$u20$i8$GT$3fmt17h7f7e9f270a5d54c2E
Ltmp1261:
	.loc	3 57 43
	testb	%al, %al
	je	LBB39_16
	jmp	LBB39_42
Ltmp1262:
LBB39_13:
	.loc	5 151 27
	movq	%r15, %rdi
	callq	__ZN4core3fmt9Formatter15debug_upper_hex17hf8fda15ec43a1e68E
	leaq	-80(%rbp), %rdi
	.loc	5 152 21
	movq	%r15, %rsi
	.loc	5 151 24
	testb	%al, %al
	je	LBB39_14
Ltmp1263:
	.loc	5 152 21
	callq	__ZN4core3fmt3num52_$LT$impl$u20$core..fmt..UpperHex$u20$for$u20$i8$GT$3fmt17hd41115610f011194E
Ltmp1264:
	.loc	3 57 43
	testb	%al, %al
	je	LBB39_16
	jmp	LBB39_42
Ltmp1265:
LBB39_14:
	.loc	5 154 21
	callq	__ZN4core3fmt3num3imp51_$LT$impl$u20$core..fmt..Display$u20$for$u20$i8$GT$3fmt17hc80f24a4257c3563E
Ltmp1266:
	.loc	3 57 43
	testb	%al, %al
	jne	LBB39_42
Ltmp1267:
LBB39_16:
	.loc	1 328 9
	movq	%rbx, -80(%rbp)
	movq	$1, -72(%rbp)
	movq	$0, -64(%rbp)
Ltmp1268:
	movq	%r12, -48(%rbp)
	movq	$0, -40(%rbp)
	leaq	-80(%rbp), %rsi
Ltmp1269:
	.loc	3 55 25
	movq	%r15, %rdi
	callq	__ZN4core3fmt9Formatter9write_fmt17h3dc2bf45afed3069E
	.loc	3 55 40 is_stmt 0
	testb	%al, %al
	jne	LBB39_42
Ltmp1270:
	.loc	3 0 40
	movdqa	-96(%rbp), %xmm0
Ltmp1271:
	.loc	4 63 36 is_stmt 1
	pextrw	$3, %xmm0, %eax
Ltmp1272:
	.loc	3 57 21
	movb	%al, -80(%rbp)
Ltmp1273:
	.loc	5 149 20
	movq	%r15, %rdi
	callq	__ZN4core3fmt9Formatter15debug_lower_hex17h8530fbaeba13f4d9E
	.loc	5 149 17 is_stmt 0
	testb	%al, %al
	je	LBB39_18
Ltmp1274:
	.loc	5 0 17
	leaq	-80(%rbp), %rdi
	.loc	5 150 21 is_stmt 1
	movq	%r15, %rsi
	callq	__ZN4core3fmt3num52_$LT$impl$u20$core..fmt..LowerHex$u20$for$u20$i8$GT$3fmt17h7f7e9f270a5d54c2E
Ltmp1275:
	.loc	3 57 43
	testb	%al, %al
	je	LBB39_21
	jmp	LBB39_42
Ltmp1276:
LBB39_18:
	.loc	5 151 27
	movq	%r15, %rdi
	callq	__ZN4core3fmt9Formatter15debug_upper_hex17hf8fda15ec43a1e68E
	leaq	-80(%rbp), %rdi
	.loc	5 152 21
	movq	%r15, %rsi
	.loc	5 151 24
	testb	%al, %al
	je	LBB39_19
Ltmp1277:
	.loc	5 152 21
	callq	__ZN4core3fmt3num52_$LT$impl$u20$core..fmt..UpperHex$u20$for$u20$i8$GT$3fmt17hd41115610f011194E
Ltmp1278:
	.loc	3 57 43
	testb	%al, %al
	je	LBB39_21
	jmp	LBB39_42
Ltmp1279:
LBB39_19:
	.loc	5 154 21
	callq	__ZN4core3fmt3num3imp51_$LT$impl$u20$core..fmt..Display$u20$for$u20$i8$GT$3fmt17hc80f24a4257c3563E
Ltmp1280:
	.loc	3 57 43
	testb	%al, %al
	jne	LBB39_42
Ltmp1281:
LBB39_21:
	.loc	1 328 9
	movq	%rbx, -80(%rbp)
	movq	$1, -72(%rbp)
	movq	$0, -64(%rbp)
Ltmp1282:
	movq	%r12, -48(%rbp)
	movq	$0, -40(%rbp)
	leaq	-80(%rbp), %rsi
Ltmp1283:
	.loc	3 55 25
	movq	%r15, %rdi
	callq	__ZN4core3fmt9Formatter9write_fmt17h3dc2bf45afed3069E
	.loc	3 55 40 is_stmt 0
	testb	%al, %al
	jne	LBB39_42
Ltmp1284:
	.loc	3 0 40
	movdqa	-96(%rbp), %xmm0
Ltmp1285:
	.loc	4 63 36 is_stmt 1
	pextrw	$4, %xmm0, %eax
Ltmp1286:
	.loc	3 57 21
	movb	%al, -80(%rbp)
Ltmp1287:
	.loc	5 149 20
	movq	%r15, %rdi
	callq	__ZN4core3fmt9Formatter15debug_lower_hex17h8530fbaeba13f4d9E
	.loc	5 149 17 is_stmt 0
	testb	%al, %al
	je	LBB39_23
Ltmp1288:
	.loc	5 0 17
	leaq	-80(%rbp), %rdi
	.loc	5 150 21 is_stmt 1
	movq	%r15, %rsi
	callq	__ZN4core3fmt3num52_$LT$impl$u20$core..fmt..LowerHex$u20$for$u20$i8$GT$3fmt17h7f7e9f270a5d54c2E
Ltmp1289:
	.loc	3 57 43
	testb	%al, %al
	je	LBB39_26
	jmp	LBB39_42
Ltmp1290:
LBB39_23:
	.loc	5 151 27
	movq	%r15, %rdi
	callq	__ZN4core3fmt9Formatter15debug_upper_hex17hf8fda15ec43a1e68E
	leaq	-80(%rbp), %rdi
	.loc	5 152 21
	movq	%r15, %rsi
	.loc	5 151 24
	testb	%al, %al
	je	LBB39_24
Ltmp1291:
	.loc	5 152 21
	callq	__ZN4core3fmt3num52_$LT$impl$u20$core..fmt..UpperHex$u20$for$u20$i8$GT$3fmt17hd41115610f011194E
Ltmp1292:
	.loc	3 57 43
	testb	%al, %al
	je	LBB39_26
	jmp	LBB39_42
Ltmp1293:
LBB39_24:
	.loc	5 154 21
	callq	__ZN4core3fmt3num3imp51_$LT$impl$u20$core..fmt..Display$u20$for$u20$i8$GT$3fmt17hc80f24a4257c3563E
Ltmp1294:
	.loc	3 57 43
	testb	%al, %al
	jne	LBB39_42
Ltmp1295:
LBB39_26:
	.loc	1 328 9
	movq	%rbx, -80(%rbp)
	movq	$1, -72(%rbp)
	movq	$0, -64(%rbp)
Ltmp1296:
	movq	%r12, -48(%rbp)
	movq	$0, -40(%rbp)
	leaq	-80(%rbp), %rsi
Ltmp1297:
	.loc	3 55 25
	movq	%r15, %rdi
	callq	__ZN4core3fmt9Formatter9write_fmt17h3dc2bf45afed3069E
	.loc	3 55 40 is_stmt 0
	testb	%al, %al
	jne	LBB39_42
Ltmp1298:
	.loc	3 0 40
	movdqa	-96(%rbp), %xmm0
Ltmp1299:
	.loc	4 63 36 is_stmt 1
	pextrw	$5, %xmm0, %eax
Ltmp1300:
	.loc	3 57 21
	movb	%al, -80(%rbp)
Ltmp1301:
	.loc	5 149 20
	movq	%r15, %rdi
	callq	__ZN4core3fmt9Formatter15debug_lower_hex17h8530fbaeba13f4d9E
	.loc	5 149 17 is_stmt 0
	testb	%al, %al
	je	LBB39_28
Ltmp1302:
	.loc	5 0 17
	leaq	-80(%rbp), %rdi
	.loc	5 150 21 is_stmt 1
	movq	%r15, %rsi
	callq	__ZN4core3fmt3num52_$LT$impl$u20$core..fmt..LowerHex$u20$for$u20$i8$GT$3fmt17h7f7e9f270a5d54c2E
Ltmp1303:
	.loc	3 57 43
	testb	%al, %al
	je	LBB39_31
	jmp	LBB39_42
Ltmp1304:
LBB39_28:
	.loc	5 151 27
	movq	%r15, %rdi
	callq	__ZN4core3fmt9Formatter15debug_upper_hex17hf8fda15ec43a1e68E
	leaq	-80(%rbp), %rdi
	.loc	5 152 21
	movq	%r15, %rsi
	.loc	5 151 24
	testb	%al, %al
	je	LBB39_29
Ltmp1305:
	.loc	5 152 21
	callq	__ZN4core3fmt3num52_$LT$impl$u20$core..fmt..UpperHex$u20$for$u20$i8$GT$3fmt17hd41115610f011194E
Ltmp1306:
	.loc	3 57 43
	testb	%al, %al
	je	LBB39_31
	jmp	LBB39_42
Ltmp1307:
LBB39_29:
	.loc	5 154 21
	callq	__ZN4core3fmt3num3imp51_$LT$impl$u20$core..fmt..Display$u20$for$u20$i8$GT$3fmt17hc80f24a4257c3563E
Ltmp1308:
	.loc	3 57 43
	testb	%al, %al
	jne	LBB39_42
Ltmp1309:
LBB39_31:
	.loc	1 328 9
	movq	%rbx, -80(%rbp)
	movq	$1, -72(%rbp)
	movq	$0, -64(%rbp)
Ltmp1310:
	movq	%r12, -48(%rbp)
	movq	$0, -40(%rbp)
	leaq	-80(%rbp), %rsi
Ltmp1311:
	.loc	3 55 25
	movq	%r15, %rdi
	callq	__ZN4core3fmt9Formatter9write_fmt17h3dc2bf45afed3069E
	.loc	3 55 40 is_stmt 0
	testb	%al, %al
	jne	LBB39_42
Ltmp1312:
	.loc	3 0 40
	movdqa	-96(%rbp), %xmm0
Ltmp1313:
	.loc	4 63 36 is_stmt 1
	pextrw	$6, %xmm0, %eax
Ltmp1314:
	.loc	3 57 21
	movb	%al, -80(%rbp)
Ltmp1315:
	.loc	5 149 20
	movq	%r15, %rdi
	callq	__ZN4core3fmt9Formatter15debug_lower_hex17h8530fbaeba13f4d9E
	.loc	5 149 17 is_stmt 0
	testb	%al, %al
	je	LBB39_33
Ltmp1316:
	.loc	5 0 17
	leaq	-80(%rbp), %rdi
	.loc	5 150 21 is_stmt 1
	movq	%r15, %rsi
	callq	__ZN4core3fmt3num52_$LT$impl$u20$core..fmt..LowerHex$u20$for$u20$i8$GT$3fmt17h7f7e9f270a5d54c2E
Ltmp1317:
	.loc	3 57 43
	testb	%al, %al
	je	LBB39_36
	jmp	LBB39_42
Ltmp1318:
LBB39_33:
	.loc	5 151 27
	movq	%r15, %rdi
	callq	__ZN4core3fmt9Formatter15debug_upper_hex17hf8fda15ec43a1e68E
	leaq	-80(%rbp), %rdi
	.loc	5 152 21
	movq	%r15, %rsi
	.loc	5 151 24
	testb	%al, %al
	je	LBB39_34
Ltmp1319:
	.loc	5 152 21
	callq	__ZN4core3fmt3num52_$LT$impl$u20$core..fmt..UpperHex$u20$for$u20$i8$GT$3fmt17hd41115610f011194E
Ltmp1320:
	.loc	3 57 43
	testb	%al, %al
	je	LBB39_36
	jmp	LBB39_42
Ltmp1321:
LBB39_34:
	.loc	5 154 21
	callq	__ZN4core3fmt3num3imp51_$LT$impl$u20$core..fmt..Display$u20$for$u20$i8$GT$3fmt17hc80f24a4257c3563E
Ltmp1322:
	.loc	3 57 43
	testb	%al, %al
	jne	LBB39_42
Ltmp1323:
LBB39_36:
	.loc	1 328 9
	movq	%rbx, -80(%rbp)
	movq	$1, -72(%rbp)
	movq	$0, -64(%rbp)
Ltmp1324:
	movq	%r12, -48(%rbp)
	movq	$0, -40(%rbp)
	leaq	-80(%rbp), %rsi
Ltmp1325:
	.loc	3 55 25
	movq	%r15, %rdi
	callq	__ZN4core3fmt9Formatter9write_fmt17h3dc2bf45afed3069E
	.loc	3 55 40 is_stmt 0
	testb	%al, %al
	jne	LBB39_42
Ltmp1326:
	.loc	3 0 40
	movdqa	-96(%rbp), %xmm0
Ltmp1327:
	.loc	4 63 36 is_stmt 1
	pextrw	$7, %xmm0, %eax
Ltmp1328:
	.loc	3 57 21
	movb	%al, -80(%rbp)
Ltmp1329:
	.loc	5 149 20
	movq	%r15, %rdi
	callq	__ZN4core3fmt9Formatter15debug_lower_hex17h8530fbaeba13f4d9E
	.loc	5 149 17 is_stmt 0
	testb	%al, %al
	je	LBB39_38
Ltmp1330:
	.loc	5 0 17
	leaq	-80(%rbp), %rdi
	.loc	5 150 21 is_stmt 1
	movq	%r15, %rsi
	callq	__ZN4core3fmt3num52_$LT$impl$u20$core..fmt..LowerHex$u20$for$u20$i8$GT$3fmt17h7f7e9f270a5d54c2E
Ltmp1331:
	.loc	3 57 43
	testb	%al, %al
	je	LBB39_41
	jmp	LBB39_42
Ltmp1332:
LBB39_38:
	.loc	5 151 27
	movq	%r15, %rdi
	callq	__ZN4core3fmt9Formatter15debug_upper_hex17hf8fda15ec43a1e68E
	leaq	-80(%rbp), %rdi
	.loc	5 152 21
	movq	%r15, %rsi
	.loc	5 151 24
	testb	%al, %al
	je	LBB39_39
Ltmp1333:
	.loc	5 152 21
	callq	__ZN4core3fmt3num52_$LT$impl$u20$core..fmt..UpperHex$u20$for$u20$i8$GT$3fmt17hd41115610f011194E
Ltmp1334:
	.loc	3 57 43
	testb	%al, %al
	je	LBB39_41
	jmp	LBB39_42
Ltmp1335:
LBB39_39:
	.loc	5 154 21
	callq	__ZN4core3fmt3num3imp51_$LT$impl$u20$core..fmt..Display$u20$for$u20$i8$GT$3fmt17hc80f24a4257c3563E
Ltmp1336:
	.loc	3 57 43
	testb	%al, %al
	jne	LBB39_42
Ltmp1337:
LBB39_41:
	.loc	1 328 9
	leaq	l___unnamed_5(%rip), %rax
Ltmp1338:
	movq	%rax, -80(%rbp)
	movq	$1, -72(%rbp)
	movq	$0, -64(%rbp)
Ltmp1339:
	movq	%r12, -48(%rbp)
	movq	$0, -40(%rbp)
	leaq	-80(%rbp), %rsi
Ltmp1340:
	.loc	3 59 17
	movq	%r15, %rdi
	callq	__ZN4core3fmt9Formatter9write_fmt17h3dc2bf45afed3069E
Ltmp1341:
	movl	%eax, %r14d
Ltmp1342:
LBB39_42:
	.loc	3 60 14
	movl	%r14d, %eax
	addq	$96, %rsp
	popq	%rbx
	popq	%r12
	popq	%r14
	popq	%r15
Ltmp1343:
	popq	%rbp
	retq
Ltmp1344:
Lfunc_end39:
	.cfi_endproc

	.globl	__ZN11packed_simd3v6498_$LT$impl$u20$core..fmt..LowerHex$u20$for$u20$packed_simd..Simd$LT$$u5b$i8$u3b$$u20$8$u5d$$GT$$GT$3fmt17hf2df33d2bbeb0d03E
	.p2align	4, 0x90
__ZN11packed_simd3v6498_$LT$impl$u20$core..fmt..LowerHex$u20$for$u20$packed_simd..Simd$LT$$u5b$i8$u3b$$u20$8$u5d$$GT$$GT$3fmt17hf2df33d2bbeb0d03E:
Lfunc_begin40:
	.loc	6 9 0
	.cfi_startproc
	pushq	%rbp
	.cfi_def_cfa_offset 16
	.cfi_offset %rbp, -16
	movq	%rsp, %rbp
	.cfi_def_cfa_register %rbp
	pushq	%r15
	pushq	%r14
	pushq	%r13
	pushq	%r12
	pushq	%rbx
	subq	$104, %rsp
	.cfi_offset %rbx, -56
	.cfi_offset %r12, -48
	.cfi_offset %r13, -40
	.cfi_offset %r14, -32
	.cfi_offset %r15, -24
	movq	%rsi, %rbx
Ltmp1345:
	movq	%rdi, %r15
Ltmp1346:
	.loc	6 11 17 prologue_end
	leaq	__ZN44_$LT$$RF$T$u20$as$u20$core..fmt..Display$GT$3fmt17h0663b18722df5164E(%rip), %rax
	movq	%rax, %xmm0
	leaq	l___unnamed_14(%rip), %rax
	movq	%rax, %xmm1
	punpcklqdq	%xmm0, %xmm1
	movdqa	%xmm1, -144(%rbp)
Ltmp1347:
	.loc	1 328 9
	leaq	l___unnamed_2(%rip), %rax
Ltmp1348:
	movq	%rax, -88(%rbp)
	movq	$2, -80(%rbp)
	movq	$0, -72(%rbp)
	leaq	-144(%rbp), %rax
Ltmp1349:
	movq	%rax, -56(%rbp)
	movq	$1, -48(%rbp)
	leaq	-88(%rbp), %rsi
Ltmp1350:
	.loc	6 11 17
	movq	%rbx, %rdi
	callq	__ZN4core3fmt9Formatter9write_fmt17h3dc2bf45afed3069E
	movb	$1, %cl
	.loc	6 11 50 is_stmt 0
	testb	%al, %al
	jne	LBB40_8
Ltmp1351:
	.loc	6 0 0
	movq	(%r15), %xmm0
	punpcklbw	%xmm0, %xmm0
	movdqa	%xmm0, -112(%rbp)
	xorl	%r14d, %r14d
	leaq	-88(%rbp), %r15
Ltmp1352:
	leaq	l___unnamed_3(%rip), %r13
Ltmp1353:
	.loc	7 1137 52 is_stmt 1
	cmpq	$8, %r14
Ltmp1354:
	.loc	8 211 9
	jne	LBB40_4
	jmp	LBB40_3
Ltmp1355:
	.p2align	4, 0x90
LBB40_6:
	.loc	8 0 9 is_stmt 0
	movdqa	-112(%rbp), %xmm0
Ltmp1356:
	.loc	4 63 36 is_stmt 1
	movdqa	%xmm0, -128(%rbp)
Ltmp1357:
	.loc	6 0 0 is_stmt 0
	leaq	1(%r14), %r12
Ltmp1358:
	.loc	4 63 36
	andl	$7, %r14d
Ltmp1359:
	movzbl	-128(%rbp,%r14,2), %eax
Ltmp1360:
	.loc	6 16 21 is_stmt 1
	movb	%al, -88(%rbp)
	movq	%r15, %rdi
	movq	%rbx, %rsi
	callq	__ZN4core3fmt3num52_$LT$impl$u20$core..fmt..LowerHex$u20$for$u20$i8$GT$3fmt17h7f7e9f270a5d54c2E
Ltmp1361:
	.loc	6 0 0 is_stmt 0
	movq	%r12, %r14
Ltmp1362:
	.loc	6 16 43
	testb	%al, %al
	jne	LBB40_7
Ltmp1363:
	.loc	7 1137 52 is_stmt 1
	cmpq	$8, %r14
Ltmp1364:
	.loc	8 211 9
	je	LBB40_3
Ltmp1365:
LBB40_4:
	.loc	6 13 24
	testq	%r14, %r14
	.loc	6 13 21 is_stmt 0
	je	LBB40_6
Ltmp1366:
	.loc	1 328 9 is_stmt 1
	movq	%r13, -88(%rbp)
	movq	$1, -80(%rbp)
	movq	$0, -72(%rbp)
Ltmp1367:
	leaq	l___unnamed_4(%rip), %rax
	movq	%rax, -56(%rbp)
	movq	$0, -48(%rbp)
Ltmp1368:
	.loc	6 14 25
	movq	%rbx, %rdi
	movq	%r15, %rsi
	callq	__ZN4core3fmt9Formatter9write_fmt17h3dc2bf45afed3069E
	.loc	6 14 40 is_stmt 0
	testb	%al, %al
	je	LBB40_6
Ltmp1369:
LBB40_7:
	.loc	6 0 40
	movb	$1, %cl
	jmp	LBB40_8
Ltmp1370:
LBB40_3:
	.loc	1 328 9 is_stmt 1
	leaq	l___unnamed_5(%rip), %rax
Ltmp1371:
	movq	%rax, -88(%rbp)
	movq	$1, -80(%rbp)
	movq	$0, -72(%rbp)
Ltmp1372:
	leaq	l___unnamed_4(%rip), %rax
Ltmp1373:
	movq	%rax, -56(%rbp)
	movq	$0, -48(%rbp)
	leaq	-88(%rbp), %rsi
Ltmp1374:
	.loc	6 18 17
	movq	%rbx, %rdi
	callq	__ZN4core3fmt9Formatter9write_fmt17h3dc2bf45afed3069E
	movl	%eax, %ecx
Ltmp1375:
LBB40_8:
	.loc	6 19 14
	movl	%ecx, %eax
	addq	$104, %rsp
	popq	%rbx
Ltmp1376:
	popq	%r12
	popq	%r13
	popq	%r14
	popq	%r15
	popq	%rbp
	retq
Ltmp1377:
Lfunc_end40:
	.cfi_endproc

	.globl	__ZN11packed_simd3v6498_$LT$impl$u20$core..fmt..UpperHex$u20$for$u20$packed_simd..Simd$LT$$u5b$i8$u3b$$u20$8$u5d$$GT$$GT$3fmt17hb7adc2733ff19492E
	.p2align	4, 0x90
__ZN11packed_simd3v6498_$LT$impl$u20$core..fmt..UpperHex$u20$for$u20$packed_simd..Simd$LT$$u5b$i8$u3b$$u20$8$u5d$$GT$$GT$3fmt17hb7adc2733ff19492E:
Lfunc_begin41:
	.loc	9 9 0
	.cfi_startproc
	pushq	%rbp
	.cfi_def_cfa_offset 16
	.cfi_offset %rbp, -16
	movq	%rsp, %rbp
	.cfi_def_cfa_register %rbp
	pushq	%r15
	pushq	%r14
	pushq	%r13
	pushq	%r12
	pushq	%rbx
	subq	$104, %rsp
	.cfi_offset %rbx, -56
	.cfi_offset %r12, -48
	.cfi_offset %r13, -40
	.cfi_offset %r14, -32
	.cfi_offset %r15, -24
	movq	%rsi, %rbx
Ltmp1378:
	movq	%rdi, %r15
Ltmp1379:
	.loc	9 11 17 prologue_end
	leaq	__ZN44_$LT$$RF$T$u20$as$u20$core..fmt..Display$GT$3fmt17h0663b18722df5164E(%rip), %rax
	movq	%rax, %xmm0
	leaq	l___unnamed_14(%rip), %rax
	movq	%rax, %xmm1
	punpcklqdq	%xmm0, %xmm1
	movdqa	%xmm1, -144(%rbp)
Ltmp1380:
	.loc	1 328 9
	leaq	l___unnamed_2(%rip), %rax
Ltmp1381:
	movq	%rax, -88(%rbp)
	movq	$2, -80(%rbp)
	movq	$0, -72(%rbp)
	leaq	-144(%rbp), %rax
Ltmp1382:
	movq	%rax, -56(%rbp)
	movq	$1, -48(%rbp)
	leaq	-88(%rbp), %rsi
Ltmp1383:
	.loc	9 11 17
	movq	%rbx, %rdi
	callq	__ZN4core3fmt9Formatter9write_fmt17h3dc2bf45afed3069E
	movb	$1, %cl
	.loc	9 11 50 is_stmt 0
	testb	%al, %al
	jne	LBB41_8
Ltmp1384:
	.loc	9 0 0
	movq	(%r15), %xmm0
	punpcklbw	%xmm0, %xmm0
	movdqa	%xmm0, -112(%rbp)
	xorl	%r14d, %r14d
	leaq	-88(%rbp), %r15
Ltmp1385:
	leaq	l___unnamed_3(%rip), %r13
Ltmp1386:
	.loc	7 1137 52 is_stmt 1
	cmpq	$8, %r14
Ltmp1387:
	.loc	8 211 9
	jne	LBB41_4
	jmp	LBB41_3
Ltmp1388:
	.p2align	4, 0x90
LBB41_6:
	.loc	8 0 9 is_stmt 0
	movdqa	-112(%rbp), %xmm0
Ltmp1389:
	.loc	4 63 36 is_stmt 1
	movdqa	%xmm0, -128(%rbp)
Ltmp1390:
	.loc	9 0 0 is_stmt 0
	leaq	1(%r14), %r12
Ltmp1391:
	.loc	4 63 36
	andl	$7, %r14d
Ltmp1392:
	movzbl	-128(%rbp,%r14,2), %eax
Ltmp1393:
	.loc	9 16 21 is_stmt 1
	movb	%al, -88(%rbp)
	movq	%r15, %rdi
	movq	%rbx, %rsi
	callq	__ZN4core3fmt3num52_$LT$impl$u20$core..fmt..UpperHex$u20$for$u20$i8$GT$3fmt17hd41115610f011194E
Ltmp1394:
	.loc	9 0 0 is_stmt 0
	movq	%r12, %r14
Ltmp1395:
	.loc	9 16 43
	testb	%al, %al
	jne	LBB41_7
Ltmp1396:
	.loc	7 1137 52 is_stmt 1
	cmpq	$8, %r14
Ltmp1397:
	.loc	8 211 9
	je	LBB41_3
Ltmp1398:
LBB41_4:
	.loc	9 13 24
	testq	%r14, %r14
	.loc	9 13 21 is_stmt 0
	je	LBB41_6
Ltmp1399:
	.loc	1 328 9 is_stmt 1
	movq	%r13, -88(%rbp)
	movq	$1, -80(%rbp)
	movq	$0, -72(%rbp)
Ltmp1400:
	leaq	l___unnamed_4(%rip), %rax
	movq	%rax, -56(%rbp)
	movq	$0, -48(%rbp)
Ltmp1401:
	.loc	9 14 25
	movq	%rbx, %rdi
	movq	%r15, %rsi
	callq	__ZN4core3fmt9Formatter9write_fmt17h3dc2bf45afed3069E
	.loc	9 14 40 is_stmt 0
	testb	%al, %al
	je	LBB41_6
Ltmp1402:
LBB41_7:
	.loc	9 0 40
	movb	$1, %cl
	jmp	LBB41_8
Ltmp1403:
LBB41_3:
	.loc	1 328 9 is_stmt 1
	leaq	l___unnamed_5(%rip), %rax
Ltmp1404:
	movq	%rax, -88(%rbp)
	movq	$1, -80(%rbp)
	movq	$0, -72(%rbp)
Ltmp1405:
	leaq	l___unnamed_4(%rip), %rax
Ltmp1406:
	movq	%rax, -56(%rbp)
	movq	$0, -48(%rbp)
	leaq	-88(%rbp), %rsi
Ltmp1407:
	.loc	9 18 17
	movq	%rbx, %rdi
	callq	__ZN4core3fmt9Formatter9write_fmt17h3dc2bf45afed3069E
	movl	%eax, %ecx
Ltmp1408:
LBB41_8:
	.loc	9 19 14
	movl	%ecx, %eax
	addq	$104, %rsp
	popq	%rbx
Ltmp1409:
	popq	%r12
	popq	%r13
	popq	%r14
	popq	%r15
	popq	%rbp
	retq
Ltmp1410:
Lfunc_end41:
	.cfi_endproc

	.globl	__ZN11packed_simd3v6495_$LT$impl$u20$core..fmt..Octal$u20$for$u20$packed_simd..Simd$LT$$u5b$i8$u3b$$u20$8$u5d$$GT$$GT$3fmt17h4426933791c6b351E
	.p2align	4, 0x90
__ZN11packed_simd3v6495_$LT$impl$u20$core..fmt..Octal$u20$for$u20$packed_simd..Simd$LT$$u5b$i8$u3b$$u20$8$u5d$$GT$$GT$3fmt17h4426933791c6b351E:
Lfunc_begin42:
	.loc	10 9 0
	.cfi_startproc
	pushq	%rbp
	.cfi_def_cfa_offset 16
	.cfi_offset %rbp, -16
	movq	%rsp, %rbp
	.cfi_def_cfa_register %rbp
	pushq	%r15
	pushq	%r14
	pushq	%r13
	pushq	%r12
	pushq	%rbx
	subq	$104, %rsp
	.cfi_offset %rbx, -56
	.cfi_offset %r12, -48
	.cfi_offset %r13, -40
	.cfi_offset %r14, -32
	.cfi_offset %r15, -24
	movq	%rsi, %rbx
Ltmp1411:
	movq	%rdi, %r15
Ltmp1412:
	.loc	10 11 17 prologue_end
	leaq	__ZN44_$LT$$RF$T$u20$as$u20$core..fmt..Display$GT$3fmt17h0663b18722df5164E(%rip), %rax
	movq	%rax, %xmm0
	leaq	l___unnamed_14(%rip), %rax
	movq	%rax, %xmm1
	punpcklqdq	%xmm0, %xmm1
	movdqa	%xmm1, -144(%rbp)
Ltmp1413:
	.loc	1 328 9
	leaq	l___unnamed_2(%rip), %rax
Ltmp1414:
	movq	%rax, -88(%rbp)
	movq	$2, -80(%rbp)
	movq	$0, -72(%rbp)
	leaq	-144(%rbp), %rax
Ltmp1415:
	movq	%rax, -56(%rbp)
	movq	$1, -48(%rbp)
	leaq	-88(%rbp), %rsi
Ltmp1416:
	.loc	10 11 17
	movq	%rbx, %rdi
	callq	__ZN4core3fmt9Formatter9write_fmt17h3dc2bf45afed3069E
	movb	$1, %cl
	.loc	10 11 50 is_stmt 0
	testb	%al, %al
	jne	LBB42_8
Ltmp1417:
	.loc	10 0 0
	movq	(%r15), %xmm0
	punpcklbw	%xmm0, %xmm0
	movdqa	%xmm0, -112(%rbp)
	xorl	%r14d, %r14d
	leaq	-88(%rbp), %r15
Ltmp1418:
	leaq	l___unnamed_3(%rip), %r13
Ltmp1419:
	.loc	7 1137 52 is_stmt 1
	cmpq	$8, %r14
Ltmp1420:
	.loc	8 211 9
	jne	LBB42_4
	jmp	LBB42_3
Ltmp1421:
	.p2align	4, 0x90
LBB42_6:
	.loc	8 0 9 is_stmt 0
	movdqa	-112(%rbp), %xmm0
Ltmp1422:
	.loc	4 63 36 is_stmt 1
	movdqa	%xmm0, -128(%rbp)
Ltmp1423:
	.loc	10 0 0 is_stmt 0
	leaq	1(%r14), %r12
Ltmp1424:
	.loc	4 63 36
	andl	$7, %r14d
Ltmp1425:
	movzbl	-128(%rbp,%r14,2), %eax
Ltmp1426:
	.loc	10 16 21 is_stmt 1
	movb	%al, -88(%rbp)
	movq	%r15, %rdi
	movq	%rbx, %rsi
	callq	__ZN4core3fmt3num49_$LT$impl$u20$core..fmt..Octal$u20$for$u20$i8$GT$3fmt17h29cc81c11127ecd6E
Ltmp1427:
	.loc	10 0 0 is_stmt 0
	movq	%r12, %r14
Ltmp1428:
	.loc	10 16 43
	testb	%al, %al
	jne	LBB42_7
Ltmp1429:
	.loc	7 1137 52 is_stmt 1
	cmpq	$8, %r14
Ltmp1430:
	.loc	8 211 9
	je	LBB42_3
Ltmp1431:
LBB42_4:
	.loc	10 13 24
	testq	%r14, %r14
	.loc	10 13 21 is_stmt 0
	je	LBB42_6
Ltmp1432:
	.loc	1 328 9 is_stmt 1
	movq	%r13, -88(%rbp)
	movq	$1, -80(%rbp)
	movq	$0, -72(%rbp)
Ltmp1433:
	leaq	l___unnamed_4(%rip), %rax
	movq	%rax, -56(%rbp)
	movq	$0, -48(%rbp)
Ltmp1434:
	.loc	10 14 25
	movq	%rbx, %rdi
	movq	%r15, %rsi
	callq	__ZN4core3fmt9Formatter9write_fmt17h3dc2bf45afed3069E
	.loc	10 14 40 is_stmt 0
	testb	%al, %al
	je	LBB42_6
Ltmp1435:
LBB42_7:
	.loc	10 0 40
	movb	$1, %cl
	jmp	LBB42_8
Ltmp1436:
LBB42_3:
	.loc	1 328 9 is_stmt 1
	leaq	l___unnamed_5(%rip), %rax
Ltmp1437:
	movq	%rax, -88(%rbp)
	movq	$1, -80(%rbp)
	movq	$0, -72(%rbp)
Ltmp1438:
	leaq	l___unnamed_4(%rip), %rax
Ltmp1439:
	movq	%rax, -56(%rbp)
	movq	$0, -48(%rbp)
	leaq	-88(%rbp), %rsi
Ltmp1440:
	.loc	10 18 17
	movq	%rbx, %rdi
	callq	__ZN4core3fmt9Formatter9write_fmt17h3dc2bf45afed3069E
	movl	%eax, %ecx
Ltmp1441:
LBB42_8:
	.loc	10 19 14
	movl	%ecx, %eax
	addq	$104, %rsp
	popq	%rbx
Ltmp1442:
	popq	%r12
	popq	%r13
	popq	%r14
	popq	%r15
	popq	%rbp
	retq
Ltmp1443:
Lfunc_end42:
	.cfi_endproc

	.globl	__ZN11packed_simd3v6496_$LT$impl$u20$core..fmt..Binary$u20$for$u20$packed_simd..Simd$LT$$u5b$i8$u3b$$u20$8$u5d$$GT$$GT$3fmt17h28cf96bc88992169E
	.p2align	4, 0x90
__ZN11packed_simd3v6496_$LT$impl$u20$core..fmt..Binary$u20$for$u20$packed_simd..Simd$LT$$u5b$i8$u3b$$u20$8$u5d$$GT$$GT$3fmt17h28cf96bc88992169E:
Lfunc_begin43:
	.loc	11 9 0
	.cfi_startproc
	pushq	%rbp
	.cfi_def_cfa_offset 16
	.cfi_offset %rbp, -16
	movq	%rsp, %rbp
	.cfi_def_cfa_register %rbp
	pushq	%r15
	pushq	%r14
	pushq	%r13
	pushq	%r12
	pushq	%rbx
	subq	$104, %rsp
	.cfi_offset %rbx, -56
	.cfi_offset %r12, -48
	.cfi_offset %r13, -40
	.cfi_offset %r14, -32
	.cfi_offset %r15, -24
	movq	%rsi, %rbx
Ltmp1444:
	movq	%rdi, %r15
Ltmp1445:
	.loc	11 11 17 prologue_end
	leaq	__ZN44_$LT$$RF$T$u20$as$u20$core..fmt..Display$GT$3fmt17h0663b18722df5164E(%rip), %rax
	movq	%rax, %xmm0
	leaq	l___unnamed_14(%rip), %rax
	movq	%rax, %xmm1
	punpcklqdq	%xmm0, %xmm1
	movdqa	%xmm1, -144(%rbp)
Ltmp1446:
	.loc	1 328 9
	leaq	l___unnamed_2(%rip), %rax
Ltmp1447:
	movq	%rax, -88(%rbp)
	movq	$2, -80(%rbp)
	movq	$0, -72(%rbp)
	leaq	-144(%rbp), %rax
Ltmp1448:
	movq	%rax, -56(%rbp)
	movq	$1, -48(%rbp)
	leaq	-88(%rbp), %rsi
Ltmp1449:
	.loc	11 11 17
	movq	%rbx, %rdi
	callq	__ZN4core3fmt9Formatter9write_fmt17h3dc2bf45afed3069E
	movb	$1, %cl
	.loc	11 11 50 is_stmt 0
	testb	%al, %al
	jne	LBB43_8
Ltmp1450:
	.loc	11 0 0
	movq	(%r15), %xmm0
	punpcklbw	%xmm0, %xmm0
	movdqa	%xmm0, -112(%rbp)
	xorl	%r14d, %r14d
	leaq	-88(%rbp), %r15
Ltmp1451:
	leaq	l___unnamed_3(%rip), %r13
Ltmp1452:
	.loc	7 1137 52 is_stmt 1
	cmpq	$8, %r14
Ltmp1453:
	.loc	8 211 9
	jne	LBB43_4
	jmp	LBB43_3
Ltmp1454:
	.p2align	4, 0x90
LBB43_6:
	.loc	8 0 9 is_stmt 0
	movdqa	-112(%rbp), %xmm0
Ltmp1455:
	.loc	4 63 36 is_stmt 1
	movdqa	%xmm0, -128(%rbp)
Ltmp1456:
	.loc	11 0 0 is_stmt 0
	leaq	1(%r14), %r12
Ltmp1457:
	.loc	4 63 36
	andl	$7, %r14d
Ltmp1458:
	movzbl	-128(%rbp,%r14,2), %eax
Ltmp1459:
	.loc	11 16 21 is_stmt 1
	movb	%al, -88(%rbp)
	movq	%r15, %rdi
	movq	%rbx, %rsi
	callq	__ZN4core3fmt3num50_$LT$impl$u20$core..fmt..Binary$u20$for$u20$i8$GT$3fmt17h6b85acc99cf4b968E
Ltmp1460:
	.loc	11 0 0 is_stmt 0
	movq	%r12, %r14
Ltmp1461:
	.loc	11 16 43
	testb	%al, %al
	jne	LBB43_7
Ltmp1462:
	.loc	7 1137 52 is_stmt 1
	cmpq	$8, %r14
Ltmp1463:
	.loc	8 211 9
	je	LBB43_3
Ltmp1464:
LBB43_4:
	.loc	11 13 24
	testq	%r14, %r14
	.loc	11 13 21 is_stmt 0
	je	LBB43_6
Ltmp1465:
	.loc	1 328 9 is_stmt 1
	movq	%r13, -88(%rbp)
	movq	$1, -80(%rbp)
	movq	$0, -72(%rbp)
Ltmp1466:
	leaq	l___unnamed_4(%rip), %rax
	movq	%rax, -56(%rbp)
	movq	$0, -48(%rbp)
Ltmp1467:
	.loc	11 14 25
	movq	%rbx, %rdi
	movq	%r15, %rsi
	callq	__ZN4core3fmt9Formatter9write_fmt17h3dc2bf45afed3069E
	.loc	11 14 40 is_stmt 0
	testb	%al, %al
	je	LBB43_6
Ltmp1468:
LBB43_7:
	.loc	11 0 40
	movb	$1, %cl
	jmp	LBB43_8
Ltmp1469:
LBB43_3:
	.loc	1 328 9 is_stmt 1
	leaq	l___unnamed_5(%rip), %rax
Ltmp1470:
	movq	%rax, -88(%rbp)
	movq	$1, -80(%rbp)
	movq	$0, -72(%rbp)
Ltmp1471:
	leaq	l___unnamed_4(%rip), %rax
Ltmp1472:
	movq	%rax, -56(%rbp)
	movq	$0, -48(%rbp)
	leaq	-88(%rbp), %rsi
Ltmp1473:
	.loc	11 18 17
	movq	%rbx, %rdi
	callq	__ZN4core3fmt9Formatter9write_fmt17h3dc2bf45afed3069E
	movl	%eax, %ecx
Ltmp1474:
LBB43_8:
	.loc	11 19 14
	movl	%ecx, %eax
	addq	$104, %rsp
	popq	%rbx
Ltmp1475:
	popq	%r12
	popq	%r13
	popq	%r14
	popq	%r15
	popq	%rbp
	retq
Ltmp1476:
Lfunc_end43:
	.cfi_endproc

	.globl	__ZN11packed_simd3v6495_$LT$impl$u20$core..fmt..Debug$u20$for$u20$packed_simd..Simd$LT$$u5b$u8$u3b$$u20$8$u5d$$GT$$GT$3fmt17h4209d6c7788f476fE
	.p2align	4, 0x90
__ZN11packed_simd3v6495_$LT$impl$u20$core..fmt..Debug$u20$for$u20$packed_simd..Simd$LT$$u5b$u8$u3b$$u20$8$u5d$$GT$$GT$3fmt17h4209d6c7788f476fE:
Lfunc_begin44:
	.loc	3 49 0
	.cfi_startproc
	pushq	%rbp
	.cfi_def_cfa_offset 16
	.cfi_offset %rbp, -16
	movq	%rsp, %rbp
	.cfi_def_cfa_register %rbp
	pushq	%r15
	pushq	%r14
	pushq	%r12
	pushq	%rbx
	subq	$96, %rsp
	.cfi_offset %rbx, -48
	.cfi_offset %r12, -40
	.cfi_offset %r14, -32
	.cfi_offset %r15, -24
	movq	%rsi, %r15
Ltmp1477:
	movq	%rdi, %rbx
Ltmp1478:
	.loc	3 52 17 prologue_end
	leaq	__ZN44_$LT$$RF$T$u20$as$u20$core..fmt..Display$GT$3fmt17h0663b18722df5164E(%rip), %rax
	movq	%rax, %xmm0
	leaq	l___unnamed_15(%rip), %rax
	movq	%rax, %xmm1
	punpcklqdq	%xmm0, %xmm1
	movdqa	%xmm1, -128(%rbp)
Ltmp1479:
	.loc	1 328 9
	leaq	l___unnamed_2(%rip), %rax
Ltmp1480:
	movq	%rax, -80(%rbp)
	movq	$2, -72(%rbp)
	movq	$0, -64(%rbp)
	leaq	-128(%rbp), %rax
Ltmp1481:
	movq	%rax, -48(%rbp)
	movq	$1, -40(%rbp)
	leaq	-80(%rbp), %rsi
Ltmp1482:
	.loc	3 52 17
	movq	%r15, %rdi
	callq	__ZN4core3fmt9Formatter9write_fmt17h3dc2bf45afed3069E
	movb	$1, %r14b
	.loc	3 52 50 is_stmt 0
	testb	%al, %al
	jne	LBB44_42
Ltmp1483:
	.loc	3 0 0
	movq	(%rbx), %xmm0
	punpcklbw	%xmm0, %xmm0
Ltmp1484:
	movdqa	%xmm0, -96(%rbp)
Ltmp1485:
	.loc	4 63 36 is_stmt 1
	movdqa	%xmm0, -112(%rbp)
	movb	-112(%rbp), %al
Ltmp1486:
	.loc	3 57 21
	movb	%al, -80(%rbp)
Ltmp1487:
	.loc	5 149 20
	movq	%r15, %rdi
	callq	__ZN4core3fmt9Formatter15debug_lower_hex17h8530fbaeba13f4d9E
	.loc	5 149 17 is_stmt 0
	testb	%al, %al
	je	LBB44_2
Ltmp1488:
	.loc	5 0 17
	leaq	-80(%rbp), %rdi
	.loc	5 150 21 is_stmt 1
	movq	%r15, %rsi
	callq	__ZN4core3fmt3num52_$LT$impl$u20$core..fmt..LowerHex$u20$for$u20$u8$GT$3fmt17h7701faa643a10c55E
Ltmp1489:
	.loc	3 57 43
	testb	%al, %al
	je	LBB44_6
	jmp	LBB44_42
Ltmp1490:
LBB44_2:
	.loc	5 151 27
	movq	%r15, %rdi
	callq	__ZN4core3fmt9Formatter15debug_upper_hex17hf8fda15ec43a1e68E
	leaq	-80(%rbp), %rdi
	.loc	5 154 21
	movq	%r15, %rsi
	.loc	5 151 24
	testb	%al, %al
	je	LBB44_4
Ltmp1491:
	.loc	5 152 21
	callq	__ZN4core3fmt3num52_$LT$impl$u20$core..fmt..UpperHex$u20$for$u20$u8$GT$3fmt17ha797e73a900719d8E
Ltmp1492:
	.loc	3 57 43
	testb	%al, %al
	je	LBB44_6
	jmp	LBB44_42
Ltmp1493:
LBB44_4:
	.loc	5 154 21
	callq	__ZN4core3fmt3num3imp51_$LT$impl$u20$core..fmt..Display$u20$for$u20$u8$GT$3fmt17h0e89df114e53d66dE
Ltmp1494:
	.loc	3 57 43
	testb	%al, %al
	jne	LBB44_42
Ltmp1495:
LBB44_6:
	.loc	1 328 9
	leaq	l___unnamed_3(%rip), %rbx
Ltmp1496:
	movq	%rbx, -80(%rbp)
	movq	$1, -72(%rbp)
	movq	$0, -64(%rbp)
	leaq	l___unnamed_4(%rip), %r12
Ltmp1497:
	movq	%r12, -48(%rbp)
	movq	$0, -40(%rbp)
	leaq	-80(%rbp), %rsi
Ltmp1498:
	.loc	3 55 25
	movq	%r15, %rdi
	callq	__ZN4core3fmt9Formatter9write_fmt17h3dc2bf45afed3069E
	.loc	3 55 40 is_stmt 0
	testb	%al, %al
	jne	LBB44_42
Ltmp1499:
	.loc	3 0 40
	movdqa	-96(%rbp), %xmm0
Ltmp1500:
	.loc	4 63 36 is_stmt 1
	movd	%xmm0, %eax
	shrl	$16, %eax
Ltmp1501:
	.loc	3 57 21
	movb	%al, -80(%rbp)
Ltmp1502:
	.loc	5 149 20
	movq	%r15, %rdi
	callq	__ZN4core3fmt9Formatter15debug_lower_hex17h8530fbaeba13f4d9E
	.loc	5 149 17 is_stmt 0
	testb	%al, %al
	je	LBB44_8
Ltmp1503:
	.loc	5 0 17
	leaq	-80(%rbp), %rdi
	.loc	5 150 21 is_stmt 1
	movq	%r15, %rsi
	callq	__ZN4core3fmt3num52_$LT$impl$u20$core..fmt..LowerHex$u20$for$u20$u8$GT$3fmt17h7701faa643a10c55E
Ltmp1504:
	.loc	3 57 43
	testb	%al, %al
	je	LBB44_11
	jmp	LBB44_42
Ltmp1505:
LBB44_8:
	.loc	5 151 27
	movq	%r15, %rdi
	callq	__ZN4core3fmt9Formatter15debug_upper_hex17hf8fda15ec43a1e68E
	leaq	-80(%rbp), %rdi
	.loc	5 152 21
	movq	%r15, %rsi
	.loc	5 151 24
	testb	%al, %al
	je	LBB44_9
Ltmp1506:
	.loc	5 152 21
	callq	__ZN4core3fmt3num52_$LT$impl$u20$core..fmt..UpperHex$u20$for$u20$u8$GT$3fmt17ha797e73a900719d8E
Ltmp1507:
	.loc	3 57 43
	testb	%al, %al
	je	LBB44_11
	jmp	LBB44_42
Ltmp1508:
LBB44_9:
	.loc	5 154 21
	callq	__ZN4core3fmt3num3imp51_$LT$impl$u20$core..fmt..Display$u20$for$u20$u8$GT$3fmt17h0e89df114e53d66dE
Ltmp1509:
	.loc	3 57 43
	testb	%al, %al
	jne	LBB44_42
Ltmp1510:
LBB44_11:
	.loc	1 328 9
	movq	%rbx, -80(%rbp)
	movq	$1, -72(%rbp)
	movq	$0, -64(%rbp)
Ltmp1511:
	movq	%r12, -48(%rbp)
	movq	$0, -40(%rbp)
	leaq	-80(%rbp), %rsi
Ltmp1512:
	.loc	3 55 25
	movq	%r15, %rdi
	callq	__ZN4core3fmt9Formatter9write_fmt17h3dc2bf45afed3069E
	.loc	3 55 40 is_stmt 0
	testb	%al, %al
	jne	LBB44_42
Ltmp1513:
	.loc	3 0 40
	movdqa	-96(%rbp), %xmm0
Ltmp1514:
	.loc	4 63 36 is_stmt 1
	pextrw	$2, %xmm0, %eax
Ltmp1515:
	.loc	3 57 21
	movb	%al, -80(%rbp)
Ltmp1516:
	.loc	5 149 20
	movq	%r15, %rdi
	callq	__ZN4core3fmt9Formatter15debug_lower_hex17h8530fbaeba13f4d9E
	.loc	5 149 17 is_stmt 0
	testb	%al, %al
	je	LBB44_13
Ltmp1517:
	.loc	5 0 17
	leaq	-80(%rbp), %rdi
	.loc	5 150 21 is_stmt 1
	movq	%r15, %rsi
	callq	__ZN4core3fmt3num52_$LT$impl$u20$core..fmt..LowerHex$u20$for$u20$u8$GT$3fmt17h7701faa643a10c55E
Ltmp1518:
	.loc	3 57 43
	testb	%al, %al
	je	LBB44_16
	jmp	LBB44_42
Ltmp1519:
LBB44_13:
	.loc	5 151 27
	movq	%r15, %rdi
	callq	__ZN4core3fmt9Formatter15debug_upper_hex17hf8fda15ec43a1e68E
	leaq	-80(%rbp), %rdi
	.loc	5 152 21
	movq	%r15, %rsi
	.loc	5 151 24
	testb	%al, %al
	je	LBB44_14
Ltmp1520:
	.loc	5 152 21
	callq	__ZN4core3fmt3num52_$LT$impl$u20$core..fmt..UpperHex$u20$for$u20$u8$GT$3fmt17ha797e73a900719d8E
Ltmp1521:
	.loc	3 57 43
	testb	%al, %al
	je	LBB44_16
	jmp	LBB44_42
Ltmp1522:
LBB44_14:
	.loc	5 154 21
	callq	__ZN4core3fmt3num3imp51_$LT$impl$u20$core..fmt..Display$u20$for$u20$u8$GT$3fmt17h0e89df114e53d66dE
Ltmp1523:
	.loc	3 57 43
	testb	%al, %al
	jne	LBB44_42
Ltmp1524:
LBB44_16:
	.loc	1 328 9
	movq	%rbx, -80(%rbp)
	movq	$1, -72(%rbp)
	movq	$0, -64(%rbp)
Ltmp1525:
	movq	%r12, -48(%rbp)
	movq	$0, -40(%rbp)
	leaq	-80(%rbp), %rsi
Ltmp1526:
	.loc	3 55 25
	movq	%r15, %rdi
	callq	__ZN4core3fmt9Formatter9write_fmt17h3dc2bf45afed3069E
	.loc	3 55 40 is_stmt 0
	testb	%al, %al
	jne	LBB44_42
Ltmp1527:
	.loc	3 0 40
	movdqa	-96(%rbp), %xmm0
Ltmp1528:
	.loc	4 63 36 is_stmt 1
	pextrw	$3, %xmm0, %eax
Ltmp1529:
	.loc	3 57 21
	movb	%al, -80(%rbp)
Ltmp1530:
	.loc	5 149 20
	movq	%r15, %rdi
	callq	__ZN4core3fmt9Formatter15debug_lower_hex17h8530fbaeba13f4d9E
	.loc	5 149 17 is_stmt 0
	testb	%al, %al
	je	LBB44_18
Ltmp1531:
	.loc	5 0 17
	leaq	-80(%rbp), %rdi
	.loc	5 150 21 is_stmt 1
	movq	%r15, %rsi
	callq	__ZN4core3fmt3num52_$LT$impl$u20$core..fmt..LowerHex$u20$for$u20$u8$GT$3fmt17h7701faa643a10c55E
Ltmp1532:
	.loc	3 57 43
	testb	%al, %al
	je	LBB44_21
	jmp	LBB44_42
Ltmp1533:
LBB44_18:
	.loc	5 151 27
	movq	%r15, %rdi
	callq	__ZN4core3fmt9Formatter15debug_upper_hex17hf8fda15ec43a1e68E
	leaq	-80(%rbp), %rdi
	.loc	5 152 21
	movq	%r15, %rsi
	.loc	5 151 24
	testb	%al, %al
	je	LBB44_19
Ltmp1534:
	.loc	5 152 21
	callq	__ZN4core3fmt3num52_$LT$impl$u20$core..fmt..UpperHex$u20$for$u20$u8$GT$3fmt17ha797e73a900719d8E
Ltmp1535:
	.loc	3 57 43
	testb	%al, %al
	je	LBB44_21
	jmp	LBB44_42
Ltmp1536:
LBB44_19:
	.loc	5 154 21
	callq	__ZN4core3fmt3num3imp51_$LT$impl$u20$core..fmt..Display$u20$for$u20$u8$GT$3fmt17h0e89df114e53d66dE
Ltmp1537:
	.loc	3 57 43
	testb	%al, %al
	jne	LBB44_42
Ltmp1538:
LBB44_21:
	.loc	1 328 9
	movq	%rbx, -80(%rbp)
	movq	$1, -72(%rbp)
	movq	$0, -64(%rbp)
Ltmp1539:
	movq	%r12, -48(%rbp)
	movq	$0, -40(%rbp)
	leaq	-80(%rbp), %rsi
Ltmp1540:
	.loc	3 55 25
	movq	%r15, %rdi
	callq	__ZN4core3fmt9Formatter9write_fmt17h3dc2bf45afed3069E
	.loc	3 55 40 is_stmt 0
	testb	%al, %al
	jne	LBB44_42
Ltmp1541:
	.loc	3 0 40
	movdqa	-96(%rbp), %xmm0
Ltmp1542:
	.loc	4 63 36 is_stmt 1
	pextrw	$4, %xmm0, %eax
Ltmp1543:
	.loc	3 57 21
	movb	%al, -80(%rbp)
Ltmp1544:
	.loc	5 149 20
	movq	%r15, %rdi
	callq	__ZN4core3fmt9Formatter15debug_lower_hex17h8530fbaeba13f4d9E
	.loc	5 149 17 is_stmt 0
	testb	%al, %al
	je	LBB44_23
Ltmp1545:
	.loc	5 0 17
	leaq	-80(%rbp), %rdi
	.loc	5 150 21 is_stmt 1
	movq	%r15, %rsi
	callq	__ZN4core3fmt3num52_$LT$impl$u20$core..fmt..LowerHex$u20$for$u20$u8$GT$3fmt17h7701faa643a10c55E
Ltmp1546:
	.loc	3 57 43
	testb	%al, %al
	je	LBB44_26
	jmp	LBB44_42
Ltmp1547:
LBB44_23:
	.loc	5 151 27
	movq	%r15, %rdi
	callq	__ZN4core3fmt9Formatter15debug_upper_hex17hf8fda15ec43a1e68E
	leaq	-80(%rbp), %rdi
	.loc	5 152 21
	movq	%r15, %rsi
	.loc	5 151 24
	testb	%al, %al
	je	LBB44_24
Ltmp1548:
	.loc	5 152 21
	callq	__ZN4core3fmt3num52_$LT$impl$u20$core..fmt..UpperHex$u20$for$u20$u8$GT$3fmt17ha797e73a900719d8E
Ltmp1549:
	.loc	3 57 43
	testb	%al, %al
	je	LBB44_26
	jmp	LBB44_42
Ltmp1550:
LBB44_24:
	.loc	5 154 21
	callq	__ZN4core3fmt3num3imp51_$LT$impl$u20$core..fmt..Display$u20$for$u20$u8$GT$3fmt17h0e89df114e53d66dE
Ltmp1551:
	.loc	3 57 43
	testb	%al, %al
	jne	LBB44_42
Ltmp1552:
LBB44_26:
	.loc	1 328 9
	movq	%rbx, -80(%rbp)
	movq	$1, -72(%rbp)
	movq	$0, -64(%rbp)
Ltmp1553:
	movq	%r12, -48(%rbp)
	movq	$0, -40(%rbp)
	leaq	-80(%rbp), %rsi
Ltmp1554:
	.loc	3 55 25
	movq	%r15, %rdi
	callq	__ZN4core3fmt9Formatter9write_fmt17h3dc2bf45afed3069E
	.loc	3 55 40 is_stmt 0
	testb	%al, %al
	jne	LBB44_42
Ltmp1555:
	.loc	3 0 40
	movdqa	-96(%rbp), %xmm0
Ltmp1556:
	.loc	4 63 36 is_stmt 1
	pextrw	$5, %xmm0, %eax
Ltmp1557:
	.loc	3 57 21
	movb	%al, -80(%rbp)
Ltmp1558:
	.loc	5 149 20
	movq	%r15, %rdi
	callq	__ZN4core3fmt9Formatter15debug_lower_hex17h8530fbaeba13f4d9E
	.loc	5 149 17 is_stmt 0
	testb	%al, %al
	je	LBB44_28
Ltmp1559:
	.loc	5 0 17
	leaq	-80(%rbp), %rdi
	.loc	5 150 21 is_stmt 1
	movq	%r15, %rsi
	callq	__ZN4core3fmt3num52_$LT$impl$u20$core..fmt..LowerHex$u20$for$u20$u8$GT$3fmt17h7701faa643a10c55E
Ltmp1560:
	.loc	3 57 43
	testb	%al, %al
	je	LBB44_31
	jmp	LBB44_42
Ltmp1561:
LBB44_28:
	.loc	5 151 27
	movq	%r15, %rdi
	callq	__ZN4core3fmt9Formatter15debug_upper_hex17hf8fda15ec43a1e68E
	leaq	-80(%rbp), %rdi
	.loc	5 152 21
	movq	%r15, %rsi
	.loc	5 151 24
	testb	%al, %al
	je	LBB44_29
Ltmp1562:
	.loc	5 152 21
	callq	__ZN4core3fmt3num52_$LT$impl$u20$core..fmt..UpperHex$u20$for$u20$u8$GT$3fmt17ha797e73a900719d8E
Ltmp1563:
	.loc	3 57 43
	testb	%al, %al
	je	LBB44_31
	jmp	LBB44_42
Ltmp1564:
LBB44_29:
	.loc	5 154 21
	callq	__ZN4core3fmt3num3imp51_$LT$impl$u20$core..fmt..Display$u20$for$u20$u8$GT$3fmt17h0e89df114e53d66dE
Ltmp1565:
	.loc	3 57 43
	testb	%al, %al
	jne	LBB44_42
Ltmp1566:
LBB44_31:
	.loc	1 328 9
	movq	%rbx, -80(%rbp)
	movq	$1, -72(%rbp)
	movq	$0, -64(%rbp)
Ltmp1567:
	movq	%r12, -48(%rbp)
	movq	$0, -40(%rbp)
	leaq	-80(%rbp), %rsi
Ltmp1568:
	.loc	3 55 25
	movq	%r15, %rdi
	callq	__ZN4core3fmt9Formatter9write_fmt17h3dc2bf45afed3069E
	.loc	3 55 40 is_stmt 0
	testb	%al, %al
	jne	LBB44_42
Ltmp1569:
	.loc	3 0 40
	movdqa	-96(%rbp), %xmm0
Ltmp1570:
	.loc	4 63 36 is_stmt 1
	pextrw	$6, %xmm0, %eax
Ltmp1571:
	.loc	3 57 21
	movb	%al, -80(%rbp)
Ltmp1572:
	.loc	5 149 20
	movq	%r15, %rdi
	callq	__ZN4core3fmt9Formatter15debug_lower_hex17h8530fbaeba13f4d9E
	.loc	5 149 17 is_stmt 0
	testb	%al, %al
	je	LBB44_33
Ltmp1573:
	.loc	5 0 17
	leaq	-80(%rbp), %rdi
	.loc	5 150 21 is_stmt 1
	movq	%r15, %rsi
	callq	__ZN4core3fmt3num52_$LT$impl$u20$core..fmt..LowerHex$u20$for$u20$u8$GT$3fmt17h7701faa643a10c55E
Ltmp1574:
	.loc	3 57 43
	testb	%al, %al
	je	LBB44_36
	jmp	LBB44_42
Ltmp1575:
LBB44_33:
	.loc	5 151 27
	movq	%r15, %rdi
	callq	__ZN4core3fmt9Formatter15debug_upper_hex17hf8fda15ec43a1e68E
	leaq	-80(%rbp), %rdi
	.loc	5 152 21
	movq	%r15, %rsi
	.loc	5 151 24
	testb	%al, %al
	je	LBB44_34
Ltmp1576:
	.loc	5 152 21
	callq	__ZN4core3fmt3num52_$LT$impl$u20$core..fmt..UpperHex$u20$for$u20$u8$GT$3fmt17ha797e73a900719d8E
Ltmp1577:
	.loc	3 57 43
	testb	%al, %al
	je	LBB44_36
	jmp	LBB44_42
Ltmp1578:
LBB44_34:
	.loc	5 154 21
	callq	__ZN4core3fmt3num3imp51_$LT$impl$u20$core..fmt..Display$u20$for$u20$u8$GT$3fmt17h0e89df114e53d66dE
Ltmp1579:
	.loc	3 57 43
	testb	%al, %al
	jne	LBB44_42
Ltmp1580:
LBB44_36:
	.loc	1 328 9
	movq	%rbx, -80(%rbp)
	movq	$1, -72(%rbp)
	movq	$0, -64(%rbp)
Ltmp1581:
	movq	%r12, -48(%rbp)
	movq	$0, -40(%rbp)
	leaq	-80(%rbp), %rsi
Ltmp1582:
	.loc	3 55 25
	movq	%r15, %rdi
	callq	__ZN4core3fmt9Formatter9write_fmt17h3dc2bf45afed3069E
	.loc	3 55 40 is_stmt 0
	testb	%al, %al
	jne	LBB44_42
Ltmp1583:
	.loc	3 0 40
	movdqa	-96(%rbp), %xmm0
Ltmp1584:
	.loc	4 63 36 is_stmt 1
	pextrw	$7, %xmm0, %eax
Ltmp1585:
	.loc	3 57 21
	movb	%al, -80(%rbp)
Ltmp1586:
	.loc	5 149 20
	movq	%r15, %rdi
	callq	__ZN4core3fmt9Formatter15debug_lower_hex17h8530fbaeba13f4d9E
	.loc	5 149 17 is_stmt 0
	testb	%al, %al
	je	LBB44_38
Ltmp1587:
	.loc	5 0 17
	leaq	-80(%rbp), %rdi
	.loc	5 150 21 is_stmt 1
	movq	%r15, %rsi
	callq	__ZN4core3fmt3num52_$LT$impl$u20$core..fmt..LowerHex$u20$for$u20$u8$GT$3fmt17h7701faa643a10c55E
Ltmp1588:
	.loc	3 57 43
	testb	%al, %al
	je	LBB44_41
	jmp	LBB44_42
Ltmp1589:
LBB44_38:
	.loc	5 151 27
	movq	%r15, %rdi
	callq	__ZN4core3fmt9Formatter15debug_upper_hex17hf8fda15ec43a1e68E
	leaq	-80(%rbp), %rdi
	.loc	5 152 21
	movq	%r15, %rsi
	.loc	5 151 24
	testb	%al, %al
	je	LBB44_39
Ltmp1590:
	.loc	5 152 21
	callq	__ZN4core3fmt3num52_$LT$impl$u20$core..fmt..UpperHex$u20$for$u20$u8$GT$3fmt17ha797e73a900719d8E
Ltmp1591:
	.loc	3 57 43
	testb	%al, %al
	je	LBB44_41
	jmp	LBB44_42
Ltmp1592:
LBB44_39:
	.loc	5 154 21
	callq	__ZN4core3fmt3num3imp51_$LT$impl$u20$core..fmt..Display$u20$for$u20$u8$GT$3fmt17h0e89df114e53d66dE
Ltmp1593:
	.loc	3 57 43
	testb	%al, %al
	jne	LBB44_42
Ltmp1594:
LBB44_41:
	.loc	1 328 9
	leaq	l___unnamed_5(%rip), %rax
Ltmp1595:
	movq	%rax, -80(%rbp)
	movq	$1, -72(%rbp)
	movq	$0, -64(%rbp)
Ltmp1596:
	movq	%r12, -48(%rbp)
	movq	$0, -40(%rbp)
	leaq	-80(%rbp), %rsi
Ltmp1597:
	.loc	3 59 17
	movq	%r15, %rdi
	callq	__ZN4core3fmt9Formatter9write_fmt17h3dc2bf45afed3069E
Ltmp1598:
	movl	%eax, %r14d
Ltmp1599:
LBB44_42:
	.loc	3 60 14
	movl	%r14d, %eax
	addq	$96, %rsp
	popq	%rbx
	popq	%r12
	popq	%r14
	popq	%r15
Ltmp1600:
	popq	%rbp
	retq
Ltmp1601:
Lfunc_end44:
	.cfi_endproc

	.globl	__ZN11packed_simd3v6498_$LT$impl$u20$core..fmt..LowerHex$u20$for$u20$packed_simd..Simd$LT$$u5b$u8$u3b$$u20$8$u5d$$GT$$GT$3fmt17hacda99a04dd57715E
	.p2align	4, 0x90
__ZN11packed_simd3v6498_$LT$impl$u20$core..fmt..LowerHex$u20$for$u20$packed_simd..Simd$LT$$u5b$u8$u3b$$u20$8$u5d$$GT$$GT$3fmt17hacda99a04dd57715E:
Lfunc_begin45:
	.loc	6 9 0
	.cfi_startproc
	pushq	%rbp
	.cfi_def_cfa_offset 16
	.cfi_offset %rbp, -16
	movq	%rsp, %rbp
	.cfi_def_cfa_register %rbp
	pushq	%r15
	pushq	%r14
	pushq	%r13
	pushq	%r12
	pushq	%rbx
	subq	$104, %rsp
	.cfi_offset %rbx, -56
	.cfi_offset %r12, -48
	.cfi_offset %r13, -40
	.cfi_offset %r14, -32
	.cfi_offset %r15, -24
	movq	%rsi, %rbx
Ltmp1602:
	movq	%rdi, %r15
Ltmp1603:
	.loc	6 11 17 prologue_end
	leaq	__ZN44_$LT$$RF$T$u20$as$u20$core..fmt..Display$GT$3fmt17h0663b18722df5164E(%rip), %rax
	movq	%rax, %xmm0
	leaq	l___unnamed_15(%rip), %rax
	movq	%rax, %xmm1
	punpcklqdq	%xmm0, %xmm1
	movdqa	%xmm1, -144(%rbp)
Ltmp1604:
	.loc	1 328 9
	leaq	l___unnamed_2(%rip), %rax
Ltmp1605:
	movq	%rax, -88(%rbp)
	movq	$2, -80(%rbp)
	movq	$0, -72(%rbp)
	leaq	-144(%rbp), %rax
Ltmp1606:
	movq	%rax, -56(%rbp)
	movq	$1, -48(%rbp)
	leaq	-88(%rbp), %rsi
Ltmp1607:
	.loc	6 11 17
	movq	%rbx, %rdi
	callq	__ZN4core3fmt9Formatter9write_fmt17h3dc2bf45afed3069E
	movb	$1, %cl
	.loc	6 11 50 is_stmt 0
	testb	%al, %al
	jne	LBB45_8
Ltmp1608:
	.loc	6 0 0
	movq	(%r15), %xmm0
	punpcklbw	%xmm0, %xmm0
	movdqa	%xmm0, -112(%rbp)
	xorl	%r14d, %r14d
	leaq	-88(%rbp), %r15
Ltmp1609:
	leaq	l___unnamed_3(%rip), %r13
Ltmp1610:
	.loc	7 1137 52 is_stmt 1
	cmpq	$8, %r14
Ltmp1611:
	.loc	8 211 9
	jne	LBB45_4
	jmp	LBB45_3
Ltmp1612:
	.p2align	4, 0x90
LBB45_6:
	.loc	8 0 9 is_stmt 0
	movdqa	-112(%rbp), %xmm0
Ltmp1613:
	.loc	4 63 36 is_stmt 1
	movdqa	%xmm0, -128(%rbp)
Ltmp1614:
	.loc	6 0 0 is_stmt 0
	leaq	1(%r14), %r12
Ltmp1615:
	.loc	4 63 36
	andl	$7, %r14d
Ltmp1616:
	movzbl	-128(%rbp,%r14,2), %eax
Ltmp1617:
	.loc	6 16 21 is_stmt 1
	movb	%al, -88(%rbp)
	movq	%r15, %rdi
	movq	%rbx, %rsi
	callq	__ZN4core3fmt3num52_$LT$impl$u20$core..fmt..LowerHex$u20$for$u20$u8$GT$3fmt17h7701faa643a10c55E
Ltmp1618:
	.loc	6 0 0 is_stmt 0
	movq	%r12, %r14
Ltmp1619:
	.loc	6 16 43
	testb	%al, %al
	jne	LBB45_7
Ltmp1620:
	.loc	7 1137 52 is_stmt 1
	cmpq	$8, %r14
Ltmp1621:
	.loc	8 211 9
	je	LBB45_3
Ltmp1622:
LBB45_4:
	.loc	6 13 24
	testq	%r14, %r14
	.loc	6 13 21 is_stmt 0
	je	LBB45_6
Ltmp1623:
	.loc	1 328 9 is_stmt 1
	movq	%r13, -88(%rbp)
	movq	$1, -80(%rbp)
	movq	$0, -72(%rbp)
Ltmp1624:
	leaq	l___unnamed_4(%rip), %rax
	movq	%rax, -56(%rbp)
	movq	$0, -48(%rbp)
Ltmp1625:
	.loc	6 14 25
	movq	%rbx, %rdi
	movq	%r15, %rsi
	callq	__ZN4core3fmt9Formatter9write_fmt17h3dc2bf45afed3069E
	.loc	6 14 40 is_stmt 0
	testb	%al, %al
	je	LBB45_6
Ltmp1626:
LBB45_7:
	.loc	6 0 40
	movb	$1, %cl
	jmp	LBB45_8
Ltmp1627:
LBB45_3:
	.loc	1 328 9 is_stmt 1
	leaq	l___unnamed_5(%rip), %rax
Ltmp1628:
	movq	%rax, -88(%rbp)
	movq	$1, -80(%rbp)
	movq	$0, -72(%rbp)
Ltmp1629:
	leaq	l___unnamed_4(%rip), %rax
Ltmp1630:
	movq	%rax, -56(%rbp)
	movq	$0, -48(%rbp)
	leaq	-88(%rbp), %rsi
Ltmp1631:
	.loc	6 18 17
	movq	%rbx, %rdi
	callq	__ZN4core3fmt9Formatter9write_fmt17h3dc2bf45afed3069E
	movl	%eax, %ecx
Ltmp1632:
LBB45_8:
	.loc	6 19 14
	movl	%ecx, %eax
	addq	$104, %rsp
	popq	%rbx
Ltmp1633:
	popq	%r12
	popq	%r13
	popq	%r14
	popq	%r15
	popq	%rbp
	retq
Ltmp1634:
Lfunc_end45:
	.cfi_endproc

	.globl	__ZN11packed_simd3v6498_$LT$impl$u20$core..fmt..UpperHex$u20$for$u20$packed_simd..Simd$LT$$u5b$u8$u3b$$u20$8$u5d$$GT$$GT$3fmt17h1ec287995daa25fcE
	.p2align	4, 0x90
__ZN11packed_simd3v6498_$LT$impl$u20$core..fmt..UpperHex$u20$for$u20$packed_simd..Simd$LT$$u5b$u8$u3b$$u20$8$u5d$$GT$$GT$3fmt17h1ec287995daa25fcE:
Lfunc_begin46:
	.loc	9 9 0
	.cfi_startproc
	pushq	%rbp
	.cfi_def_cfa_offset 16
	.cfi_offset %rbp, -16
	movq	%rsp, %rbp
	.cfi_def_cfa_register %rbp
	pushq	%r15
	pushq	%r14
	pushq	%r13
	pushq	%r12
	pushq	%rbx
	subq	$104, %rsp
	.cfi_offset %rbx, -56
	.cfi_offset %r12, -48
	.cfi_offset %r13, -40
	.cfi_offset %r14, -32
	.cfi_offset %r15, -24
	movq	%rsi, %rbx
Ltmp1635:
	movq	%rdi, %r15
Ltmp1636:
	.loc	9 11 17 prologue_end
	leaq	__ZN44_$LT$$RF$T$u20$as$u20$core..fmt..Display$GT$3fmt17h0663b18722df5164E(%rip), %rax
	movq	%rax, %xmm0
	leaq	l___unnamed_15(%rip), %rax
	movq	%rax, %xmm1
	punpcklqdq	%xmm0, %xmm1
	movdqa	%xmm1, -144(%rbp)
Ltmp1637:
	.loc	1 328 9
	leaq	l___unnamed_2(%rip), %rax
Ltmp1638:
	movq	%rax, -88(%rbp)
	movq	$2, -80(%rbp)
	movq	$0, -72(%rbp)
	leaq	-144(%rbp), %rax
Ltmp1639:
	movq	%rax, -56(%rbp)
	movq	$1, -48(%rbp)
	leaq	-88(%rbp), %rsi
Ltmp1640:
	.loc	9 11 17
	movq	%rbx, %rdi
	callq	__ZN4core3fmt9Formatter9write_fmt17h3dc2bf45afed3069E
	movb	$1, %cl
	.loc	9 11 50 is_stmt 0
	testb	%al, %al
	jne	LBB46_8
Ltmp1641:
	.loc	9 0 0
	movq	(%r15), %xmm0
	punpcklbw	%xmm0, %xmm0
	movdqa	%xmm0, -112(%rbp)
	xorl	%r14d, %r14d
	leaq	-88(%rbp), %r15
Ltmp1642:
	leaq	l___unnamed_3(%rip), %r13
Ltmp1643:
	.loc	7 1137 52 is_stmt 1
	cmpq	$8, %r14
Ltmp1644:
	.loc	8 211 9
	jne	LBB46_4
	jmp	LBB46_3
Ltmp1645:
	.p2align	4, 0x90
LBB46_6:
	.loc	8 0 9 is_stmt 0
	movdqa	-112(%rbp), %xmm0
Ltmp1646:
	.loc	4 63 36 is_stmt 1
	movdqa	%xmm0, -128(%rbp)
Ltmp1647:
	.loc	9 0 0 is_stmt 0
	leaq	1(%r14), %r12
Ltmp1648:
	.loc	4 63 36
	andl	$7, %r14d
Ltmp1649:
	movzbl	-128(%rbp,%r14,2), %eax
Ltmp1650:
	.loc	9 16 21 is_stmt 1
	movb	%al, -88(%rbp)
	movq	%r15, %rdi
	movq	%rbx, %rsi
	callq	__ZN4core3fmt3num52_$LT$impl$u20$core..fmt..UpperHex$u20$for$u20$u8$GT$3fmt17ha797e73a900719d8E
Ltmp1651:
	.loc	9 0 0 is_stmt 0
	movq	%r12, %r14
Ltmp1652:
	.loc	9 16 43
	testb	%al, %al
	jne	LBB46_7
Ltmp1653:
	.loc	7 1137 52 is_stmt 1
	cmpq	$8, %r14
Ltmp1654:
	.loc	8 211 9
	je	LBB46_3
Ltmp1655:
LBB46_4:
	.loc	9 13 24
	testq	%r14, %r14
	.loc	9 13 21 is_stmt 0
	je	LBB46_6
Ltmp1656:
	.loc	1 328 9 is_stmt 1
	movq	%r13, -88(%rbp)
	movq	$1, -80(%rbp)
	movq	$0, -72(%rbp)
Ltmp1657:
	leaq	l___unnamed_4(%rip), %rax
	movq	%rax, -56(%rbp)
	movq	$0, -48(%rbp)
Ltmp1658:
	.loc	9 14 25
	movq	%rbx, %rdi
	movq	%r15, %rsi
	callq	__ZN4core3fmt9Formatter9write_fmt17h3dc2bf45afed3069E
	.loc	9 14 40 is_stmt 0
	testb	%al, %al
	je	LBB46_6
Ltmp1659:
LBB46_7:
	.loc	9 0 40
	movb	$1, %cl
	jmp	LBB46_8
Ltmp1660:
LBB46_3:
	.loc	1 328 9 is_stmt 1
	leaq	l___unnamed_5(%rip), %rax
Ltmp1661:
	movq	%rax, -88(%rbp)
	movq	$1, -80(%rbp)
	movq	$0, -72(%rbp)
Ltmp1662:
	leaq	l___unnamed_4(%rip), %rax
Ltmp1663:
	movq	%rax, -56(%rbp)
	movq	$0, -48(%rbp)
	leaq	-88(%rbp), %rsi
Ltmp1664:
	.loc	9 18 17
	movq	%rbx, %rdi
	callq	__ZN4core3fmt9Formatter9write_fmt17h3dc2bf45afed3069E
	movl	%eax, %ecx
Ltmp1665:
LBB46_8:
	.loc	9 19 14
	movl	%ecx, %eax
	addq	$104, %rsp
	popq	%rbx
Ltmp1666:
	popq	%r12
	popq	%r13
	popq	%r14
	popq	%r15
	popq	%rbp
	retq
Ltmp1667:
Lfunc_end46:
	.cfi_endproc

	.globl	__ZN11packed_simd3v6495_$LT$impl$u20$core..fmt..Octal$u20$for$u20$packed_simd..Simd$LT$$u5b$u8$u3b$$u20$8$u5d$$GT$$GT$3fmt17h9e1b9d4e95569e41E
	.p2align	4, 0x90
__ZN11packed_simd3v6495_$LT$impl$u20$core..fmt..Octal$u20$for$u20$packed_simd..Simd$LT$$u5b$u8$u3b$$u20$8$u5d$$GT$$GT$3fmt17h9e1b9d4e95569e41E:
Lfunc_begin47:
	.loc	10 9 0
	.cfi_startproc
	pushq	%rbp
	.cfi_def_cfa_offset 16
	.cfi_offset %rbp, -16
	movq	%rsp, %rbp
	.cfi_def_cfa_register %rbp
	pushq	%r15
	pushq	%r14
	pushq	%r13
	pushq	%r12
	pushq	%rbx
	subq	$104, %rsp
	.cfi_offset %rbx, -56
	.cfi_offset %r12, -48
	.cfi_offset %r13, -40
	.cfi_offset %r14, -32
	.cfi_offset %r15, -24
	movq	%rsi, %rbx
Ltmp1668:
	movq	%rdi, %r15
Ltmp1669:
	.loc	10 11 17 prologue_end
	leaq	__ZN44_$LT$$RF$T$u20$as$u20$core..fmt..Display$GT$3fmt17h0663b18722df5164E(%rip), %rax
	movq	%rax, %xmm0
	leaq	l___unnamed_15(%rip), %rax
	movq	%rax, %xmm1
	punpcklqdq	%xmm0, %xmm1
	movdqa	%xmm1, -144(%rbp)
Ltmp1670:
	.loc	1 328 9
	leaq	l___unnamed_2(%rip), %rax
Ltmp1671:
	movq	%rax, -88(%rbp)
	movq	$2, -80(%rbp)
	movq	$0, -72(%rbp)
	leaq	-144(%rbp), %rax
Ltmp1672:
	movq	%rax, -56(%rbp)
	movq	$1, -48(%rbp)
	leaq	-88(%rbp), %rsi
Ltmp1673:
	.loc	10 11 17
	movq	%rbx, %rdi
	callq	__ZN4core3fmt9Formatter9write_fmt17h3dc2bf45afed3069E
	movb	$1, %cl
	.loc	10 11 50 is_stmt 0
	testb	%al, %al
	jne	LBB47_8
Ltmp1674:
	.loc	10 0 0
	movq	(%r15), %xmm0
	punpcklbw	%xmm0, %xmm0
	movdqa	%xmm0, -112(%rbp)
	xorl	%r14d, %r14d
	leaq	-88(%rbp), %r15
Ltmp1675:
	leaq	l___unnamed_3(%rip), %r13
Ltmp1676:
	.loc	7 1137 52 is_stmt 1
	cmpq	$8, %r14
Ltmp1677:
	.loc	8 211 9
	jne	LBB47_4
	jmp	LBB47_3
Ltmp1678:
	.p2align	4, 0x90
LBB47_6:
	.loc	8 0 9 is_stmt 0
	movdqa	-112(%rbp), %xmm0
Ltmp1679:
	.loc	4 63 36 is_stmt 1
	movdqa	%xmm0, -128(%rbp)
Ltmp1680:
	.loc	10 0 0 is_stmt 0
	leaq	1(%r14), %r12
Ltmp1681:
	.loc	4 63 36
	andl	$7, %r14d
Ltmp1682:
	movzbl	-128(%rbp,%r14,2), %eax
Ltmp1683:
	.loc	10 16 21 is_stmt 1
	movb	%al, -88(%rbp)
	movq	%r15, %rdi
	movq	%rbx, %rsi
	callq	__ZN4core3fmt3num49_$LT$impl$u20$core..fmt..Octal$u20$for$u20$u8$GT$3fmt17hc6b20516a790ff98E
Ltmp1684:
	.loc	10 0 0 is_stmt 0
	movq	%r12, %r14
Ltmp1685:
	.loc	10 16 43
	testb	%al, %al
	jne	LBB47_7
Ltmp1686:
	.loc	7 1137 52 is_stmt 1
	cmpq	$8, %r14
Ltmp1687:
	.loc	8 211 9
	je	LBB47_3
Ltmp1688:
LBB47_4:
	.loc	10 13 24
	testq	%r14, %r14
	.loc	10 13 21 is_stmt 0
	je	LBB47_6
Ltmp1689:
	.loc	1 328 9 is_stmt 1
	movq	%r13, -88(%rbp)
	movq	$1, -80(%rbp)
	movq	$0, -72(%rbp)
Ltmp1690:
	leaq	l___unnamed_4(%rip), %rax
	movq	%rax, -56(%rbp)
	movq	$0, -48(%rbp)
Ltmp1691:
	.loc	10 14 25
	movq	%rbx, %rdi
	movq	%r15, %rsi
	callq	__ZN4core3fmt9Formatter9write_fmt17h3dc2bf45afed3069E
	.loc	10 14 40 is_stmt 0
	testb	%al, %al
	je	LBB47_6
Ltmp1692:
LBB47_7:
	.loc	10 0 40
	movb	$1, %cl
	jmp	LBB47_8
Ltmp1693:
LBB47_3:
	.loc	1 328 9 is_stmt 1
	leaq	l___unnamed_5(%rip), %rax
Ltmp1694:
	movq	%rax, -88(%rbp)
	movq	$1, -80(%rbp)
	movq	$0, -72(%rbp)
Ltmp1695:
	leaq	l___unnamed_4(%rip), %rax
Ltmp1696:
	movq	%rax, -56(%rbp)
	movq	$0, -48(%rbp)
	leaq	-88(%rbp), %rsi
Ltmp1697:
	.loc	10 18 17
	movq	%rbx, %rdi
	callq	__ZN4core3fmt9Formatter9write_fmt17h3dc2bf45afed3069E
	movl	%eax, %ecx
Ltmp1698:
LBB47_8:
	.loc	10 19 14
	movl	%ecx, %eax
	addq	$104, %rsp
	popq	%rbx
Ltmp1699:
	popq	%r12
	popq	%r13
	popq	%r14
	popq	%r15
	popq	%rbp
	retq
Ltmp1700:
Lfunc_end47:
	.cfi_endproc

	.globl	__ZN11packed_simd3v6496_$LT$impl$u20$core..fmt..Binary$u20$for$u20$packed_simd..Simd$LT$$u5b$u8$u3b$$u20$8$u5d$$GT$$GT$3fmt17hcf9cdb70066fff39E
	.p2align	4, 0x90
__ZN11packed_simd3v6496_$LT$impl$u20$core..fmt..Binary$u20$for$u20$packed_simd..Simd$LT$$u5b$u8$u3b$$u20$8$u5d$$GT$$GT$3fmt17hcf9cdb70066fff39E:
Lfunc_begin48:
	.loc	11 9 0
	.cfi_startproc
	pushq	%rbp
	.cfi_def_cfa_offset 16
	.cfi_offset %rbp, -16
	movq	%rsp, %rbp
	.cfi_def_cfa_register %rbp
	pushq	%r15
	pushq	%r14
	pushq	%r13
	pushq	%r12
	pushq	%rbx
	subq	$104, %rsp
	.cfi_offset %rbx, -56
	.cfi_offset %r12, -48
	.cfi_offset %r13, -40
	.cfi_offset %r14, -32
	.cfi_offset %r15, -24
	movq	%rsi, %rbx
Ltmp1701:
	movq	%rdi, %r15
Ltmp1702:
	.loc	11 11 17 prologue_end
	leaq	__ZN44_$LT$$RF$T$u20$as$u20$core..fmt..Display$GT$3fmt17h0663b18722df5164E(%rip), %rax
	movq	%rax, %xmm0
	leaq	l___unnamed_15(%rip), %rax
	movq	%rax, %xmm1
	punpcklqdq	%xmm0, %xmm1
	movdqa	%xmm1, -144(%rbp)
Ltmp1703:
	.loc	1 328 9
	leaq	l___unnamed_2(%rip), %rax
Ltmp1704:
	movq	%rax, -88(%rbp)
	movq	$2, -80(%rbp)
	movq	$0, -72(%rbp)
	leaq	-144(%rbp), %rax
Ltmp1705:
	movq	%rax, -56(%rbp)
	movq	$1, -48(%rbp)
	leaq	-88(%rbp), %rsi
Ltmp1706:
	.loc	11 11 17
	movq	%rbx, %rdi
	callq	__ZN4core3fmt9Formatter9write_fmt17h3dc2bf45afed3069E
	movb	$1, %cl
	.loc	11 11 50 is_stmt 0
	testb	%al, %al
	jne	LBB48_8
Ltmp1707:
	.loc	11 0 0
	movq	(%r15), %xmm0
	punpcklbw	%xmm0, %xmm0
	movdqa	%xmm0, -112(%rbp)
	xorl	%r14d, %r14d
	leaq	-88(%rbp), %r15
Ltmp1708:
	leaq	l___unnamed_3(%rip), %r13
Ltmp1709:
	.loc	7 1137 52 is_stmt 1
	cmpq	$8, %r14
Ltmp1710:
	.loc	8 211 9
	jne	LBB48_4
	jmp	LBB48_3
Ltmp1711:
	.p2align	4, 0x90
LBB48_6:
	.loc	8 0 9 is_stmt 0
	movdqa	-112(%rbp), %xmm0
Ltmp1712:
	.loc	4 63 36 is_stmt 1
	movdqa	%xmm0, -128(%rbp)
Ltmp1713:
	.loc	11 0 0 is_stmt 0
	leaq	1(%r14), %r12
Ltmp1714:
	.loc	4 63 36
	andl	$7, %r14d
Ltmp1715:
	movzbl	-128(%rbp,%r14,2), %eax
Ltmp1716:
	.loc	11 16 21 is_stmt 1
	movb	%al, -88(%rbp)
	movq	%r15, %rdi
	movq	%rbx, %rsi
	callq	__ZN4core3fmt3num50_$LT$impl$u20$core..fmt..Binary$u20$for$u20$u8$GT$3fmt17h27b26a79078c499fE
Ltmp1717:
	.loc	11 0 0 is_stmt 0
	movq	%r12, %r14
Ltmp1718:
	.loc	11 16 43
	testb	%al, %al
	jne	LBB48_7
Ltmp1719:
	.loc	7 1137 52 is_stmt 1
	cmpq	$8, %r14
Ltmp1720:
	.loc	8 211 9
	je	LBB48_3
Ltmp1721:
LBB48_4:
	.loc	11 13 24
	testq	%r14, %r14
	.loc	11 13 21 is_stmt 0
	je	LBB48_6
Ltmp1722:
	.loc	1 328 9 is_stmt 1
	movq	%r13, -88(%rbp)
	movq	$1, -80(%rbp)
	movq	$0, -72(%rbp)
Ltmp1723:
	leaq	l___unnamed_4(%rip), %rax
	movq	%rax, -56(%rbp)
	movq	$0, -48(%rbp)
Ltmp1724:
	.loc	11 14 25
	movq	%rbx, %rdi
	movq	%r15, %rsi
	callq	__ZN4core3fmt9Formatter9write_fmt17h3dc2bf45afed3069E
	.loc	11 14 40 is_stmt 0
	testb	%al, %al
	je	LBB48_6
Ltmp1725:
LBB48_7:
	.loc	11 0 40
	movb	$1, %cl
	jmp	LBB48_8
Ltmp1726:
LBB48_3:
	.loc	1 328 9 is_stmt 1
	leaq	l___unnamed_5(%rip), %rax
Ltmp1727:
	movq	%rax, -88(%rbp)
	movq	$1, -80(%rbp)
	movq	$0, -72(%rbp)
Ltmp1728:
	leaq	l___unnamed_4(%rip), %rax
Ltmp1729:
	movq	%rax, -56(%rbp)
	movq	$0, -48(%rbp)
	leaq	-88(%rbp), %rsi
Ltmp1730:
	.loc	11 18 17
	movq	%rbx, %rdi
	callq	__ZN4core3fmt9Formatter9write_fmt17h3dc2bf45afed3069E
	movl	%eax, %ecx
Ltmp1731:
LBB48_8:
	.loc	11 19 14
	movl	%ecx, %eax
	addq	$104, %rsp
	popq	%rbx
Ltmp1732:
	popq	%r12
	popq	%r13
	popq	%r14
	popq	%r15
	popq	%rbp
	retq
Ltmp1733:
Lfunc_end48:
	.cfi_endproc

	.globl	__ZN11packed_simd3v64115_$LT$impl$u20$core..fmt..Debug$u20$for$u20$packed_simd..Simd$LT$$u5b$packed_simd..masks..m8$u3b$$u20$8$u5d$$GT$$GT$3fmt17h9ddb2e49f13b13d5E
	.p2align	4, 0x90
__ZN11packed_simd3v64115_$LT$impl$u20$core..fmt..Debug$u20$for$u20$packed_simd..Simd$LT$$u5b$packed_simd..masks..m8$u3b$$u20$8$u5d$$GT$$GT$3fmt17h9ddb2e49f13b13d5E:
Lfunc_begin49:
	.loc	3 49 0
	.cfi_startproc
	pushq	%rbp
	.cfi_def_cfa_offset 16
	.cfi_offset %rbp, -16
	movq	%rsp, %rbp
	.cfi_def_cfa_register %rbp
	pushq	%r15
	pushq	%r14
	pushq	%r13
	pushq	%r12
	pushq	%rbx
	subq	$104, %rsp
	.cfi_offset %rbx, -56
	.cfi_offset %r12, -48
	.cfi_offset %r13, -40
	.cfi_offset %r14, -32
	.cfi_offset %r15, -24
	movq	%rsi, %rbx
Ltmp1734:
	movq	%rdi, %r15
Ltmp1735:
	.loc	3 52 17 prologue_end
	leaq	__ZN44_$LT$$RF$T$u20$as$u20$core..fmt..Display$GT$3fmt17h0663b18722df5164E(%rip), %rax
	movq	%rax, %xmm0
	leaq	l___unnamed_16(%rip), %rax
	movq	%rax, %xmm1
	punpcklqdq	%xmm0, %xmm1
	movdqa	%xmm1, -144(%rbp)
Ltmp1736:
	.loc	1 328 9
	leaq	l___unnamed_2(%rip), %rax
Ltmp1737:
	movq	%rax, -88(%rbp)
	movq	$2, -80(%rbp)
	movq	$0, -72(%rbp)
	leaq	-144(%rbp), %rax
Ltmp1738:
	movq	%rax, -56(%rbp)
	movq	$1, -48(%rbp)
	leaq	-88(%rbp), %rsi
Ltmp1739:
	.loc	3 52 17
	movq	%rbx, %rdi
	callq	__ZN4core3fmt9Formatter9write_fmt17h3dc2bf45afed3069E
	movb	$1, %cl
	.loc	3 52 50 is_stmt 0
	testb	%al, %al
	jne	LBB49_8
Ltmp1740:
	.loc	3 0 0
	movq	(%r15), %xmm0
	punpcklbw	%xmm0, %xmm0
	movdqa	%xmm0, -112(%rbp)
	xorl	%r14d, %r14d
	leaq	-88(%rbp), %r15
Ltmp1741:
	leaq	l___unnamed_3(%rip), %r13
Ltmp1742:
	.loc	7 1137 52 is_stmt 1
	cmpq	$8, %r14
Ltmp1743:
	.loc	8 211 9
	jne	LBB49_4
	jmp	LBB49_3
Ltmp1744:
	.p2align	4, 0x90
LBB49_6:
	.loc	8 0 9 is_stmt 0
	movdqa	-112(%rbp), %xmm0
Ltmp1745:
	.loc	12 67 36 is_stmt 1
	movdqa	%xmm0, -128(%rbp)
Ltmp1746:
	.loc	3 0 0 is_stmt 0
	leaq	1(%r14), %r12
Ltmp1747:
	.loc	12 67 36
	andl	$7, %r14d
Ltmp1748:
	.loc	12 68 17 is_stmt 1
	cmpb	$0, -128(%rbp,%r14,2)
Ltmp1749:
	.loc	3 57 21
	setne	-88(%rbp)
Ltmp1750:
	.loc	1 2003 9
	movq	%r15, %rdi
	movq	%rbx, %rsi
	callq	__ZN43_$LT$bool$u20$as$u20$core..fmt..Display$GT$3fmt17hf36463fa8b480ab4E
Ltmp1751:
	.loc	3 0 0 is_stmt 0
	movq	%r12, %r14
Ltmp1752:
	.loc	3 57 43 is_stmt 1
	testb	%al, %al
	jne	LBB49_7
Ltmp1753:
	.loc	7 1137 52
	cmpq	$8, %r14
Ltmp1754:
	.loc	8 211 9
	je	LBB49_3
Ltmp1755:
LBB49_4:
	.loc	3 54 24
	testq	%r14, %r14
	.loc	3 54 21 is_stmt 0
	je	LBB49_6
Ltmp1756:
	.loc	1 328 9 is_stmt 1
	movq	%r13, -88(%rbp)
	movq	$1, -80(%rbp)
	movq	$0, -72(%rbp)
Ltmp1757:
	leaq	l___unnamed_4(%rip), %rax
	movq	%rax, -56(%rbp)
	movq	$0, -48(%rbp)
Ltmp1758:
	.loc	3 55 25
	movq	%rbx, %rdi
	movq	%r15, %rsi
	callq	__ZN4core3fmt9Formatter9write_fmt17h3dc2bf45afed3069E
	.loc	3 55 40 is_stmt 0
	testb	%al, %al
	je	LBB49_6
Ltmp1759:
LBB49_7:
	.loc	3 0 40
	movb	$1, %cl
	jmp	LBB49_8
Ltmp1760:
LBB49_3:
	.loc	1 328 9 is_stmt 1
	leaq	l___unnamed_5(%rip), %rax
Ltmp1761:
	movq	%rax, -88(%rbp)
	movq	$1, -80(%rbp)
	movq	$0, -72(%rbp)
Ltmp1762:
	leaq	l___unnamed_4(%rip), %rax
Ltmp1763:
	movq	%rax, -56(%rbp)
	movq	$0, -48(%rbp)
	leaq	-88(%rbp), %rsi
Ltmp1764:
	.loc	3 59 17
	movq	%rbx, %rdi
	callq	__ZN4core3fmt9Formatter9write_fmt17h3dc2bf45afed3069E
	movl	%eax, %ecx
Ltmp1765:
LBB49_8:
	.loc	3 60 14
	movl	%ecx, %eax
	addq	$104, %rsp
	popq	%rbx
Ltmp1766:
	popq	%r12
	popq	%r13
	popq	%r14
	popq	%r15
	popq	%rbp
	retq
Ltmp1767:
Lfunc_end49:
	.cfi_endproc

	.globl	__ZN11packed_simd3v6496_$LT$impl$u20$core..fmt..Debug$u20$for$u20$packed_simd..Simd$LT$$u5b$i16$u3b$$u20$4$u5d$$GT$$GT$3fmt17h31db8f2abffb117bE
	.p2align	4, 0x90
__ZN11packed_simd3v6496_$LT$impl$u20$core..fmt..Debug$u20$for$u20$packed_simd..Simd$LT$$u5b$i16$u3b$$u20$4$u5d$$GT$$GT$3fmt17h31db8f2abffb117bE:
Lfunc_begin50:
	.loc	3 49 0
	.cfi_startproc
	pushq	%rbp
	.cfi_def_cfa_offset 16
	.cfi_offset %rbp, -16
	movq	%rsp, %rbp
	.cfi_def_cfa_register %rbp
	pushq	%r15
	pushq	%r14
	pushq	%r12
	pushq	%rbx
	subq	$80, %rsp
	.cfi_offset %rbx, -48
	.cfi_offset %r12, -40
	.cfi_offset %r14, -32
	.cfi_offset %r15, -24
	movq	%rsi, %r15
Ltmp1768:
	movq	%rdi, %rbx
Ltmp1769:
	.loc	3 52 17 prologue_end
	leaq	__ZN44_$LT$$RF$T$u20$as$u20$core..fmt..Display$GT$3fmt17h0663b18722df5164E(%rip), %rax
	movq	%rax, %xmm0
	leaq	l___unnamed_17(%rip), %rax
	movq	%rax, %xmm1
	punpcklqdq	%xmm0, %xmm1
	movdqa	%xmm1, -112(%rbp)
Ltmp1770:
	.loc	1 328 9
	leaq	l___unnamed_2(%rip), %rax
Ltmp1771:
	movq	%rax, -80(%rbp)
	movq	$2, -72(%rbp)
	movq	$0, -64(%rbp)
	leaq	-112(%rbp), %rax
Ltmp1772:
	movq	%rax, -48(%rbp)
	movq	$1, -40(%rbp)
	leaq	-80(%rbp), %rsi
Ltmp1773:
	.loc	3 52 17
	movq	%r15, %rdi
	callq	__ZN4core3fmt9Formatter9write_fmt17h3dc2bf45afed3069E
	movb	$1, %r14b
	.loc	3 52 50 is_stmt 0
	testb	%al, %al
	jne	LBB50_22
Ltmp1774:
	.loc	3 0 0
	movq	(%rbx), %xmm0
Ltmp1775:
	movdqa	%xmm0, -96(%rbp)
Ltmp1776:
	.loc	4 63 36 is_stmt 1
	pextrw	$0, %xmm0, %eax
Ltmp1777:
	.loc	3 57 21
	movw	%ax, -80(%rbp)
Ltmp1778:
	.loc	5 149 20
	movq	%r15, %rdi
	callq	__ZN4core3fmt9Formatter15debug_lower_hex17h8530fbaeba13f4d9E
	.loc	5 149 17 is_stmt 0
	testb	%al, %al
	je	LBB50_2
Ltmp1779:
	.loc	5 0 17
	leaq	-80(%rbp), %rdi
	.loc	5 150 21 is_stmt 1
	movq	%r15, %rsi
	callq	__ZN4core3fmt3num53_$LT$impl$u20$core..fmt..LowerHex$u20$for$u20$i16$GT$3fmt17h3f851141fadcf5dbE
Ltmp1780:
	.loc	3 57 43
	testb	%al, %al
	je	LBB50_6
	jmp	LBB50_22
Ltmp1781:
LBB50_2:
	.loc	5 151 27
	movq	%r15, %rdi
	callq	__ZN4core3fmt9Formatter15debug_upper_hex17hf8fda15ec43a1e68E
	leaq	-80(%rbp), %rdi
	.loc	5 154 21
	movq	%r15, %rsi
	.loc	5 151 24
	testb	%al, %al
	je	LBB50_4
Ltmp1782:
	.loc	5 152 21
	callq	__ZN4core3fmt3num53_$LT$impl$u20$core..fmt..UpperHex$u20$for$u20$i16$GT$3fmt17h68fce712c402f58aE
Ltmp1783:
	.loc	3 57 43
	testb	%al, %al
	je	LBB50_6
	jmp	LBB50_22
Ltmp1784:
LBB50_4:
	.loc	5 154 21
	callq	__ZN4core3fmt3num3imp52_$LT$impl$u20$core..fmt..Display$u20$for$u20$i16$GT$3fmt17h3a2fa6e453c65d3eE
Ltmp1785:
	.loc	3 57 43
	testb	%al, %al
	jne	LBB50_22
Ltmp1786:
LBB50_6:
	.loc	1 328 9
	leaq	l___unnamed_3(%rip), %rbx
Ltmp1787:
	movq	%rbx, -80(%rbp)
	movq	$1, -72(%rbp)
	movq	$0, -64(%rbp)
	leaq	l___unnamed_4(%rip), %r12
Ltmp1788:
	movq	%r12, -48(%rbp)
	movq	$0, -40(%rbp)
	leaq	-80(%rbp), %rsi
Ltmp1789:
	.loc	3 55 25
	movq	%r15, %rdi
	callq	__ZN4core3fmt9Formatter9write_fmt17h3dc2bf45afed3069E
	.loc	3 55 40 is_stmt 0
	testb	%al, %al
	jne	LBB50_22
Ltmp1790:
	.loc	3 0 40
	movdqa	-96(%rbp), %xmm0
	punpcklwd	%xmm0, %xmm0
Ltmp1791:
	movdqa	%xmm0, -96(%rbp)
Ltmp1792:
	.loc	4 63 36 is_stmt 1
	pextrw	$2, %xmm0, %eax
Ltmp1793:
	.loc	3 57 21
	movw	%ax, -80(%rbp)
Ltmp1794:
	.loc	5 149 20
	movq	%r15, %rdi
	callq	__ZN4core3fmt9Formatter15debug_lower_hex17h8530fbaeba13f4d9E
	.loc	5 149 17 is_stmt 0
	testb	%al, %al
	je	LBB50_8
Ltmp1795:
	.loc	5 0 17
	leaq	-80(%rbp), %rdi
	.loc	5 150 21 is_stmt 1
	movq	%r15, %rsi
	callq	__ZN4core3fmt3num53_$LT$impl$u20$core..fmt..LowerHex$u20$for$u20$i16$GT$3fmt17h3f851141fadcf5dbE
Ltmp1796:
	.loc	3 57 43
	testb	%al, %al
	je	LBB50_11
	jmp	LBB50_22
Ltmp1797:
LBB50_8:
	.loc	5 151 27
	movq	%r15, %rdi
	callq	__ZN4core3fmt9Formatter15debug_upper_hex17hf8fda15ec43a1e68E
	leaq	-80(%rbp), %rdi
	.loc	5 152 21
	movq	%r15, %rsi
	.loc	5 151 24
	testb	%al, %al
	je	LBB50_9
Ltmp1798:
	.loc	5 152 21
	callq	__ZN4core3fmt3num53_$LT$impl$u20$core..fmt..UpperHex$u20$for$u20$i16$GT$3fmt17h68fce712c402f58aE
Ltmp1799:
	.loc	3 57 43
	testb	%al, %al
	je	LBB50_11
	jmp	LBB50_22
Ltmp1800:
LBB50_9:
	.loc	5 154 21
	callq	__ZN4core3fmt3num3imp52_$LT$impl$u20$core..fmt..Display$u20$for$u20$i16$GT$3fmt17h3a2fa6e453c65d3eE
Ltmp1801:
	.loc	3 57 43
	testb	%al, %al
	jne	LBB50_22
Ltmp1802:
LBB50_11:
	.loc	1 328 9
	movq	%rbx, -80(%rbp)
	movq	$1, -72(%rbp)
	movq	$0, -64(%rbp)
Ltmp1803:
	movq	%r12, -48(%rbp)
	movq	$0, -40(%rbp)
	leaq	-80(%rbp), %rsi
Ltmp1804:
	.loc	3 55 25
	movq	%r15, %rdi
	callq	__ZN4core3fmt9Formatter9write_fmt17h3dc2bf45afed3069E
	.loc	3 55 40 is_stmt 0
	testb	%al, %al
	jne	LBB50_22
Ltmp1805:
	.loc	3 0 40
	movdqa	-96(%rbp), %xmm0
Ltmp1806:
	.loc	4 63 36 is_stmt 1
	pextrw	$4, %xmm0, %eax
Ltmp1807:
	.loc	3 57 21
	movw	%ax, -80(%rbp)
Ltmp1808:
	.loc	5 149 20
	movq	%r15, %rdi
	callq	__ZN4core3fmt9Formatter15debug_lower_hex17h8530fbaeba13f4d9E
	.loc	5 149 17 is_stmt 0
	testb	%al, %al
	je	LBB50_13
Ltmp1809:
	.loc	5 0 17
	leaq	-80(%rbp), %rdi
	.loc	5 150 21 is_stmt 1
	movq	%r15, %rsi
	callq	__ZN4core3fmt3num53_$LT$impl$u20$core..fmt..LowerHex$u20$for$u20$i16$GT$3fmt17h3f851141fadcf5dbE
Ltmp1810:
	.loc	3 57 43
	testb	%al, %al
	je	LBB50_16
	jmp	LBB50_22
Ltmp1811:
LBB50_13:
	.loc	5 151 27
	movq	%r15, %rdi
	callq	__ZN4core3fmt9Formatter15debug_upper_hex17hf8fda15ec43a1e68E
	leaq	-80(%rbp), %rdi
	.loc	5 152 21
	movq	%r15, %rsi
	.loc	5 151 24
	testb	%al, %al
	je	LBB50_14
Ltmp1812:
	.loc	5 152 21
	callq	__ZN4core3fmt3num53_$LT$impl$u20$core..fmt..UpperHex$u20$for$u20$i16$GT$3fmt17h68fce712c402f58aE
Ltmp1813:
	.loc	3 57 43
	testb	%al, %al
	je	LBB50_16
	jmp	LBB50_22
Ltmp1814:
LBB50_14:
	.loc	5 154 21
	callq	__ZN4core3fmt3num3imp52_$LT$impl$u20$core..fmt..Display$u20$for$u20$i16$GT$3fmt17h3a2fa6e453c65d3eE
Ltmp1815:
	.loc	3 57 43
	testb	%al, %al
	jne	LBB50_22
Ltmp1816:
LBB50_16:
	.loc	1 328 9
	movq	%rbx, -80(%rbp)
	movq	$1, -72(%rbp)
	movq	$0, -64(%rbp)
Ltmp1817:
	movq	%r12, -48(%rbp)
	movq	$0, -40(%rbp)
	leaq	-80(%rbp), %rsi
Ltmp1818:
	.loc	3 55 25
	movq	%r15, %rdi
	callq	__ZN4core3fmt9Formatter9write_fmt17h3dc2bf45afed3069E
	.loc	3 55 40 is_stmt 0
	testb	%al, %al
	jne	LBB50_22
Ltmp1819:
	.loc	3 0 40
	movdqa	-96(%rbp), %xmm0
Ltmp1820:
	.loc	4 63 36 is_stmt 1
	pextrw	$6, %xmm0, %eax
Ltmp1821:
	.loc	3 57 21
	movw	%ax, -80(%rbp)
Ltmp1822:
	.loc	5 149 20
	movq	%r15, %rdi
	callq	__ZN4core3fmt9Formatter15debug_lower_hex17h8530fbaeba13f4d9E
	.loc	5 149 17 is_stmt 0
	testb	%al, %al
	je	LBB50_18
Ltmp1823:
	.loc	5 0 17
	leaq	-80(%rbp), %rdi
	.loc	5 150 21 is_stmt 1
	movq	%r15, %rsi
	callq	__ZN4core3fmt3num53_$LT$impl$u20$core..fmt..LowerHex$u20$for$u20$i16$GT$3fmt17h3f851141fadcf5dbE
Ltmp1824:
	.loc	3 57 43
	testb	%al, %al
	je	LBB50_21
	jmp	LBB50_22
Ltmp1825:
LBB50_18:
	.loc	5 151 27
	movq	%r15, %rdi
	callq	__ZN4core3fmt9Formatter15debug_upper_hex17hf8fda15ec43a1e68E
	leaq	-80(%rbp), %rdi
	.loc	5 152 21
	movq	%r15, %rsi
	.loc	5 151 24
	testb	%al, %al
	je	LBB50_19
Ltmp1826:
	.loc	5 152 21
	callq	__ZN4core3fmt3num53_$LT$impl$u20$core..fmt..UpperHex$u20$for$u20$i16$GT$3fmt17h68fce712c402f58aE
Ltmp1827:
	.loc	3 57 43
	testb	%al, %al
	je	LBB50_21
	jmp	LBB50_22
Ltmp1828:
LBB50_19:
	.loc	5 154 21
	callq	__ZN4core3fmt3num3imp52_$LT$impl$u20$core..fmt..Display$u20$for$u20$i16$GT$3fmt17h3a2fa6e453c65d3eE
Ltmp1829:
	.loc	3 57 43
	testb	%al, %al
	jne	LBB50_22
Ltmp1830:
LBB50_21:
	.loc	1 328 9
	leaq	l___unnamed_5(%rip), %rax
Ltmp1831:
	movq	%rax, -80(%rbp)
	movq	$1, -72(%rbp)
	movq	$0, -64(%rbp)
Ltmp1832:
	movq	%r12, -48(%rbp)
	movq	$0, -40(%rbp)
	leaq	-80(%rbp), %rsi
Ltmp1833:
	.loc	3 59 17
	movq	%r15, %rdi
	callq	__ZN4core3fmt9Formatter9write_fmt17h3dc2bf45afed3069E
Ltmp1834:
	movl	%eax, %r14d
Ltmp1835:
LBB50_22:
	.loc	3 60 14
	movl	%r14d, %eax
	addq	$80, %rsp
	popq	%rbx
	popq	%r12
	popq	%r14
	popq	%r15
Ltmp1836:
	popq	%rbp
	retq
Ltmp1837:
Lfunc_end50:
	.cfi_endproc

	.globl	__ZN11packed_simd3v6499_$LT$impl$u20$core..fmt..LowerHex$u20$for$u20$packed_simd..Simd$LT$$u5b$i16$u3b$$u20$4$u5d$$GT$$GT$3fmt17h5700f04bf46b6f91E
	.p2align	4, 0x90
__ZN11packed_simd3v6499_$LT$impl$u20$core..fmt..LowerHex$u20$for$u20$packed_simd..Simd$LT$$u5b$i16$u3b$$u20$4$u5d$$GT$$GT$3fmt17h5700f04bf46b6f91E:
Lfunc_begin51:
	.loc	6 9 0
	.cfi_startproc
	pushq	%rbp
	.cfi_def_cfa_offset 16
	.cfi_offset %rbp, -16
	movq	%rsp, %rbp
	.cfi_def_cfa_register %rbp
	pushq	%r15
	pushq	%r14
	pushq	%r13
	pushq	%r12
	pushq	%rbx
	subq	$104, %rsp
	.cfi_offset %rbx, -56
	.cfi_offset %r12, -48
	.cfi_offset %r13, -40
	.cfi_offset %r14, -32
	.cfi_offset %r15, -24
	movq	%rsi, %rbx
Ltmp1838:
	movq	%rdi, %r15
Ltmp1839:
	.loc	6 11 17 prologue_end
	leaq	__ZN44_$LT$$RF$T$u20$as$u20$core..fmt..Display$GT$3fmt17h0663b18722df5164E(%rip), %rax
	movq	%rax, %xmm0
	leaq	l___unnamed_17(%rip), %rax
	movq	%rax, %xmm1
	punpcklqdq	%xmm0, %xmm1
	movdqa	%xmm1, -144(%rbp)
Ltmp1840:
	.loc	1 328 9
	leaq	l___unnamed_2(%rip), %rax
Ltmp1841:
	movq	%rax, -88(%rbp)
	movq	$2, -80(%rbp)
	movq	$0, -72(%rbp)
	leaq	-144(%rbp), %rax
Ltmp1842:
	movq	%rax, -56(%rbp)
	movq	$1, -48(%rbp)
	leaq	-88(%rbp), %rsi
Ltmp1843:
	.loc	6 11 17
	movq	%rbx, %rdi
	callq	__ZN4core3fmt9Formatter9write_fmt17h3dc2bf45afed3069E
	movb	$1, %cl
	.loc	6 11 50 is_stmt 0
	testb	%al, %al
	jne	LBB51_8
Ltmp1844:
	.loc	6 0 0
	movq	(%r15), %xmm0
	punpcklwd	%xmm0, %xmm0
	movdqa	%xmm0, -112(%rbp)
	xorl	%r14d, %r14d
	leaq	-88(%rbp), %r15
Ltmp1845:
	leaq	l___unnamed_3(%rip), %r13
Ltmp1846:
	.loc	7 1137 52 is_stmt 1
	cmpq	$4, %r14
Ltmp1847:
	.loc	8 211 9
	jne	LBB51_4
	jmp	LBB51_3
Ltmp1848:
	.p2align	4, 0x90
LBB51_6:
	.loc	8 0 9 is_stmt 0
	movdqa	-112(%rbp), %xmm0
Ltmp1849:
	.loc	4 63 36 is_stmt 1
	movdqa	%xmm0, -128(%rbp)
Ltmp1850:
	.loc	6 0 0 is_stmt 0
	leaq	1(%r14), %r12
Ltmp1851:
	.loc	4 63 36
	andl	$3, %r14d
Ltmp1852:
	movl	-128(%rbp,%r14,4), %eax
Ltmp1853:
	.loc	6 16 21 is_stmt 1
	movw	%ax, -88(%rbp)
	movq	%r15, %rdi
	movq	%rbx, %rsi
	callq	__ZN4core3fmt3num53_$LT$impl$u20$core..fmt..LowerHex$u20$for$u20$i16$GT$3fmt17h3f851141fadcf5dbE
Ltmp1854:
	.loc	6 0 0 is_stmt 0
	movq	%r12, %r14
Ltmp1855:
	.loc	6 16 43
	testb	%al, %al
	jne	LBB51_7
Ltmp1856:
	.loc	7 1137 52 is_stmt 1
	cmpq	$4, %r14
Ltmp1857:
	.loc	8 211 9
	je	LBB51_3
Ltmp1858:
LBB51_4:
	.loc	6 13 24
	testq	%r14, %r14
	.loc	6 13 21 is_stmt 0
	je	LBB51_6
Ltmp1859:
	.loc	1 328 9 is_stmt 1
	movq	%r13, -88(%rbp)
	movq	$1, -80(%rbp)
	movq	$0, -72(%rbp)
Ltmp1860:
	leaq	l___unnamed_4(%rip), %rax
	movq	%rax, -56(%rbp)
	movq	$0, -48(%rbp)
Ltmp1861:
	.loc	6 14 25
	movq	%rbx, %rdi
	movq	%r15, %rsi
	callq	__ZN4core3fmt9Formatter9write_fmt17h3dc2bf45afed3069E
	.loc	6 14 40 is_stmt 0
	testb	%al, %al
	je	LBB51_6
Ltmp1862:
LBB51_7:
	.loc	6 0 40
	movb	$1, %cl
	jmp	LBB51_8
Ltmp1863:
LBB51_3:
	.loc	1 328 9 is_stmt 1
	leaq	l___unnamed_5(%rip), %rax
Ltmp1864:
	movq	%rax, -88(%rbp)
	movq	$1, -80(%rbp)
	movq	$0, -72(%rbp)
Ltmp1865:
	leaq	l___unnamed_4(%rip), %rax
Ltmp1866:
	movq	%rax, -56(%rbp)
	movq	$0, -48(%rbp)
	leaq	-88(%rbp), %rsi
Ltmp1867:
	.loc	6 18 17
	movq	%rbx, %rdi
	callq	__ZN4core3fmt9Formatter9write_fmt17h3dc2bf45afed3069E
	movl	%eax, %ecx
Ltmp1868:
LBB51_8:
	.loc	6 19 14
	movl	%ecx, %eax
	addq	$104, %rsp
	popq	%rbx
Ltmp1869:
	popq	%r12
	popq	%r13
	popq	%r14
	popq	%r15
	popq	%rbp
	retq
Ltmp1870:
Lfunc_end51:
	.cfi_endproc

	.globl	__ZN11packed_simd3v6499_$LT$impl$u20$core..fmt..UpperHex$u20$for$u20$packed_simd..Simd$LT$$u5b$i16$u3b$$u20$4$u5d$$GT$$GT$3fmt17ha08d240fadeccb58E
	.p2align	4, 0x90
__ZN11packed_simd3v6499_$LT$impl$u20$core..fmt..UpperHex$u20$for$u20$packed_simd..Simd$LT$$u5b$i16$u3b$$u20$4$u5d$$GT$$GT$3fmt17ha08d240fadeccb58E:
Lfunc_begin52:
	.loc	9 9 0
	.cfi_startproc
	pushq	%rbp
	.cfi_def_cfa_offset 16
	.cfi_offset %rbp, -16
	movq	%rsp, %rbp
	.cfi_def_cfa_register %rbp
	pushq	%r15
	pushq	%r14
	pushq	%r13
	pushq	%r12
	pushq	%rbx
	subq	$104, %rsp
	.cfi_offset %rbx, -56
	.cfi_offset %r12, -48
	.cfi_offset %r13, -40
	.cfi_offset %r14, -32
	.cfi_offset %r15, -24
	movq	%rsi, %rbx
Ltmp1871:
	movq	%rdi, %r15
Ltmp1872:
	.loc	9 11 17 prologue_end
	leaq	__ZN44_$LT$$RF$T$u20$as$u20$core..fmt..Display$GT$3fmt17h0663b18722df5164E(%rip), %rax
	movq	%rax, %xmm0
	leaq	l___unnamed_17(%rip), %rax
	movq	%rax, %xmm1
	punpcklqdq	%xmm0, %xmm1
	movdqa	%xmm1, -144(%rbp)
Ltmp1873:
	.loc	1 328 9
	leaq	l___unnamed_2(%rip), %rax
Ltmp1874:
	movq	%rax, -88(%rbp)
	movq	$2, -80(%rbp)
	movq	$0, -72(%rbp)
	leaq	-144(%rbp), %rax
Ltmp1875:
	movq	%rax, -56(%rbp)
	movq	$1, -48(%rbp)
	leaq	-88(%rbp), %rsi
Ltmp1876:
	.loc	9 11 17
	movq	%rbx, %rdi
	callq	__ZN4core3fmt9Formatter9write_fmt17h3dc2bf45afed3069E
	movb	$1, %cl
	.loc	9 11 50 is_stmt 0
	testb	%al, %al
	jne	LBB52_8
Ltmp1877:
	.loc	9 0 0
	movq	(%r15), %xmm0
	punpcklwd	%xmm0, %xmm0
	movdqa	%xmm0, -112(%rbp)
	xorl	%r14d, %r14d
	leaq	-88(%rbp), %r15
Ltmp1878:
	leaq	l___unnamed_3(%rip), %r13
Ltmp1879:
	.loc	7 1137 52 is_stmt 1
	cmpq	$4, %r14
Ltmp1880:
	.loc	8 211 9
	jne	LBB52_4
	jmp	LBB52_3
Ltmp1881:
	.p2align	4, 0x90
LBB52_6:
	.loc	8 0 9 is_stmt 0
	movdqa	-112(%rbp), %xmm0
Ltmp1882:
	.loc	4 63 36 is_stmt 1
	movdqa	%xmm0, -128(%rbp)
Ltmp1883:
	.loc	9 0 0 is_stmt 0
	leaq	1(%r14), %r12
Ltmp1884:
	.loc	4 63 36
	andl	$3, %r14d
Ltmp1885:
	movl	-128(%rbp,%r14,4), %eax
Ltmp1886:
	.loc	9 16 21 is_stmt 1
	movw	%ax, -88(%rbp)
	movq	%r15, %rdi
	movq	%rbx, %rsi
	callq	__ZN4core3fmt3num53_$LT$impl$u20$core..fmt..UpperHex$u20$for$u20$i16$GT$3fmt17h68fce712c402f58aE
Ltmp1887:
	.loc	9 0 0 is_stmt 0
	movq	%r12, %r14
Ltmp1888:
	.loc	9 16 43
	testb	%al, %al
	jne	LBB52_7
Ltmp1889:
	.loc	7 1137 52 is_stmt 1
	cmpq	$4, %r14
Ltmp1890:
	.loc	8 211 9
	je	LBB52_3
Ltmp1891:
LBB52_4:
	.loc	9 13 24
	testq	%r14, %r14
	.loc	9 13 21 is_stmt 0
	je	LBB52_6
Ltmp1892:
	.loc	1 328 9 is_stmt 1
	movq	%r13, -88(%rbp)
	movq	$1, -80(%rbp)
	movq	$0, -72(%rbp)
Ltmp1893:
	leaq	l___unnamed_4(%rip), %rax
	movq	%rax, -56(%rbp)
	movq	$0, -48(%rbp)
Ltmp1894:
	.loc	9 14 25
	movq	%rbx, %rdi
	movq	%r15, %rsi
	callq	__ZN4core3fmt9Formatter9write_fmt17h3dc2bf45afed3069E
	.loc	9 14 40 is_stmt 0
	testb	%al, %al
	je	LBB52_6
Ltmp1895:
LBB52_7:
	.loc	9 0 40
	movb	$1, %cl
	jmp	LBB52_8
Ltmp1896:
LBB52_3:
	.loc	1 328 9 is_stmt 1
	leaq	l___unnamed_5(%rip), %rax
Ltmp1897:
	movq	%rax, -88(%rbp)
	movq	$1, -80(%rbp)
	movq	$0, -72(%rbp)
Ltmp1898:
	leaq	l___unnamed_4(%rip), %rax
Ltmp1899:
	movq	%rax, -56(%rbp)
	movq	$0, -48(%rbp)
	leaq	-88(%rbp), %rsi
Ltmp1900:
	.loc	9 18 17
	movq	%rbx, %rdi
	callq	__ZN4core3fmt9Formatter9write_fmt17h3dc2bf45afed3069E
	movl	%eax, %ecx
Ltmp1901:
LBB52_8:
	.loc	9 19 14
	movl	%ecx, %eax
	addq	$104, %rsp
	popq	%rbx
Ltmp1902:
	popq	%r12
	popq	%r13
	popq	%r14
	popq	%r15
	popq	%rbp
	retq
Ltmp1903:
Lfunc_end52:
	.cfi_endproc

	.globl	__ZN11packed_simd3v6496_$LT$impl$u20$core..fmt..Octal$u20$for$u20$packed_simd..Simd$LT$$u5b$i16$u3b$$u20$4$u5d$$GT$$GT$3fmt17ha2d3a2c8a1816ea3E
	.p2align	4, 0x90
__ZN11packed_simd3v6496_$LT$impl$u20$core..fmt..Octal$u20$for$u20$packed_simd..Simd$LT$$u5b$i16$u3b$$u20$4$u5d$$GT$$GT$3fmt17ha2d3a2c8a1816ea3E:
Lfunc_begin53:
	.loc	10 9 0
	.cfi_startproc
	pushq	%rbp
	.cfi_def_cfa_offset 16
	.cfi_offset %rbp, -16
	movq	%rsp, %rbp
	.cfi_def_cfa_register %rbp
	pushq	%r15
	pushq	%r14
	pushq	%r13
	pushq	%r12
	pushq	%rbx
	subq	$104, %rsp
	.cfi_offset %rbx, -56
	.cfi_offset %r12, -48
	.cfi_offset %r13, -40
	.cfi_offset %r14, -32
	.cfi_offset %r15, -24
	movq	%rsi, %rbx
Ltmp1904:
	movq	%rdi, %r15
Ltmp1905:
	.loc	10 11 17 prologue_end
	leaq	__ZN44_$LT$$RF$T$u20$as$u20$core..fmt..Display$GT$3fmt17h0663b18722df5164E(%rip), %rax
	movq	%rax, %xmm0
	leaq	l___unnamed_17(%rip), %rax
	movq	%rax, %xmm1
	punpcklqdq	%xmm0, %xmm1
	movdqa	%xmm1, -144(%rbp)
Ltmp1906:
	.loc	1 328 9
	leaq	l___unnamed_2(%rip), %rax
Ltmp1907:
	movq	%rax, -88(%rbp)
	movq	$2, -80(%rbp)
	movq	$0, -72(%rbp)
	leaq	-144(%rbp), %rax
Ltmp1908:
	movq	%rax, -56(%rbp)
	movq	$1, -48(%rbp)
	leaq	-88(%rbp), %rsi
Ltmp1909:
	.loc	10 11 17
	movq	%rbx, %rdi
	callq	__ZN4core3fmt9Formatter9write_fmt17h3dc2bf45afed3069E
	movb	$1, %cl
	.loc	10 11 50 is_stmt 0
	testb	%al, %al
	jne	LBB53_8
Ltmp1910:
	.loc	10 0 0
	movq	(%r15), %xmm0
	punpcklwd	%xmm0, %xmm0
	movdqa	%xmm0, -112(%rbp)
	xorl	%r14d, %r14d
	leaq	-88(%rbp), %r15
Ltmp1911:
	leaq	l___unnamed_3(%rip), %r13
Ltmp1912:
	.loc	7 1137 52 is_stmt 1
	cmpq	$4, %r14
Ltmp1913:
	.loc	8 211 9
	jne	LBB53_4
	jmp	LBB53_3
Ltmp1914:
	.p2align	4, 0x90
LBB53_6:
	.loc	8 0 9 is_stmt 0
	movdqa	-112(%rbp), %xmm0
Ltmp1915:
	.loc	4 63 36 is_stmt 1
	movdqa	%xmm0, -128(%rbp)
Ltmp1916:
	.loc	10 0 0 is_stmt 0
	leaq	1(%r14), %r12
Ltmp1917:
	.loc	4 63 36
	andl	$3, %r14d
Ltmp1918:
	movl	-128(%rbp,%r14,4), %eax
Ltmp1919:
	.loc	10 16 21 is_stmt 1
	movw	%ax, -88(%rbp)
	movq	%r15, %rdi
	movq	%rbx, %rsi
	callq	__ZN4core3fmt3num50_$LT$impl$u20$core..fmt..Octal$u20$for$u20$i16$GT$3fmt17h1b3cb6f95e755604E
Ltmp1920:
	.loc	10 0 0 is_stmt 0
	movq	%r12, %r14
Ltmp1921:
	.loc	10 16 43
	testb	%al, %al
	jne	LBB53_7
Ltmp1922:
	.loc	7 1137 52 is_stmt 1
	cmpq	$4, %r14
Ltmp1923:
	.loc	8 211 9
	je	LBB53_3
Ltmp1924:
LBB53_4:
	.loc	10 13 24
	testq	%r14, %r14
	.loc	10 13 21 is_stmt 0
	je	LBB53_6
Ltmp1925:
	.loc	1 328 9 is_stmt 1
	movq	%r13, -88(%rbp)
	movq	$1, -80(%rbp)
	movq	$0, -72(%rbp)
Ltmp1926:
	leaq	l___unnamed_4(%rip), %rax
	movq	%rax, -56(%rbp)
	movq	$0, -48(%rbp)
Ltmp1927:
	.loc	10 14 25
	movq	%rbx, %rdi
	movq	%r15, %rsi
	callq	__ZN4core3fmt9Formatter9write_fmt17h3dc2bf45afed3069E
	.loc	10 14 40 is_stmt 0
	testb	%al, %al
	je	LBB53_6
Ltmp1928:
LBB53_7:
	.loc	10 0 40
	movb	$1, %cl
	jmp	LBB53_8
Ltmp1929:
LBB53_3:
	.loc	1 328 9 is_stmt 1
	leaq	l___unnamed_5(%rip), %rax
Ltmp1930:
	movq	%rax, -88(%rbp)
	movq	$1, -80(%rbp)
	movq	$0, -72(%rbp)
Ltmp1931:
	leaq	l___unnamed_4(%rip), %rax
Ltmp1932:
	movq	%rax, -56(%rbp)
	movq	$0, -48(%rbp)
	leaq	-88(%rbp), %rsi
Ltmp1933:
	.loc	10 18 17
	movq	%rbx, %rdi
	callq	__ZN4core3fmt9Formatter9write_fmt17h3dc2bf45afed3069E
	movl	%eax, %ecx
Ltmp1934:
LBB53_8:
	.loc	10 19 14
	movl	%ecx, %eax
	addq	$104, %rsp
	popq	%rbx
Ltmp1935:
	popq	%r12
	popq	%r13
	popq	%r14
	popq	%r15
	popq	%rbp
	retq
Ltmp1936:
Lfunc_end53:
	.cfi_endproc

	.globl	__ZN11packed_simd3v6497_$LT$impl$u20$core..fmt..Binary$u20$for$u20$packed_simd..Simd$LT$$u5b$i16$u3b$$u20$4$u5d$$GT$$GT$3fmt17hdda64eb417741461E
	.p2align	4, 0x90
__ZN11packed_simd3v6497_$LT$impl$u20$core..fmt..Binary$u20$for$u20$packed_simd..Simd$LT$$u5b$i16$u3b$$u20$4$u5d$$GT$$GT$3fmt17hdda64eb417741461E:
Lfunc_begin54:
	.loc	11 9 0
	.cfi_startproc
	pushq	%rbp
	.cfi_def_cfa_offset 16
	.cfi_offset %rbp, -16
	movq	%rsp, %rbp
	.cfi_def_cfa_register %rbp
	pushq	%r15
	pushq	%r14
	pushq	%r13
	pushq	%r12
	pushq	%rbx
	subq	$104, %rsp
	.cfi_offset %rbx, -56
	.cfi_offset %r12, -48
	.cfi_offset %r13, -40
	.cfi_offset %r14, -32
	.cfi_offset %r15, -24
	movq	%rsi, %rbx
Ltmp1937:
	movq	%rdi, %r15
Ltmp1938:
	.loc	11 11 17 prologue_end
	leaq	__ZN44_$LT$$RF$T$u20$as$u20$core..fmt..Display$GT$3fmt17h0663b18722df5164E(%rip), %rax
	movq	%rax, %xmm0
	leaq	l___unnamed_17(%rip), %rax
	movq	%rax, %xmm1
	punpcklqdq	%xmm0, %xmm1
	movdqa	%xmm1, -144(%rbp)
Ltmp1939:
	.loc	1 328 9
	leaq	l___unnamed_2(%rip), %rax
Ltmp1940:
	movq	%rax, -88(%rbp)
	movq	$2, -80(%rbp)
	movq	$0, -72(%rbp)
	leaq	-144(%rbp), %rax
Ltmp1941:
	movq	%rax, -56(%rbp)
	movq	$1, -48(%rbp)
	leaq	-88(%rbp), %rsi
Ltmp1942:
	.loc	11 11 17
	movq	%rbx, %rdi
	callq	__ZN4core3fmt9Formatter9write_fmt17h3dc2bf45afed3069E
	movb	$1, %cl
	.loc	11 11 50 is_stmt 0
	testb	%al, %al
	jne	LBB54_8
Ltmp1943:
	.loc	11 0 0
	movq	(%r15), %xmm0
	punpcklwd	%xmm0, %xmm0
	movdqa	%xmm0, -112(%rbp)
	xorl	%r14d, %r14d
	leaq	-88(%rbp), %r15
Ltmp1944:
	leaq	l___unnamed_3(%rip), %r13
Ltmp1945:
	.loc	7 1137 52 is_stmt 1
	cmpq	$4, %r14
Ltmp1946:
	.loc	8 211 9
	jne	LBB54_4
	jmp	LBB54_3
Ltmp1947:
	.p2align	4, 0x90
LBB54_6:
	.loc	8 0 9 is_stmt 0
	movdqa	-112(%rbp), %xmm0
Ltmp1948:
	.loc	4 63 36 is_stmt 1
	movdqa	%xmm0, -128(%rbp)
Ltmp1949:
	.loc	11 0 0 is_stmt 0
	leaq	1(%r14), %r12
Ltmp1950:
	.loc	4 63 36
	andl	$3, %r14d
Ltmp1951:
	movl	-128(%rbp,%r14,4), %eax
Ltmp1952:
	.loc	11 16 21 is_stmt 1
	movw	%ax, -88(%rbp)
	movq	%r15, %rdi
	movq	%rbx, %rsi
	callq	__ZN4core3fmt3num51_$LT$impl$u20$core..fmt..Binary$u20$for$u20$i16$GT$3fmt17hbda9d5cd00305b44E
Ltmp1953:
	.loc	11 0 0 is_stmt 0
	movq	%r12, %r14
Ltmp1954:
	.loc	11 16 43
	testb	%al, %al
	jne	LBB54_7
Ltmp1955:
	.loc	7 1137 52 is_stmt 1
	cmpq	$4, %r14
Ltmp1956:
	.loc	8 211 9
	je	LBB54_3
Ltmp1957:
LBB54_4:
	.loc	11 13 24
	testq	%r14, %r14
	.loc	11 13 21 is_stmt 0
	je	LBB54_6
Ltmp1958:
	.loc	1 328 9 is_stmt 1
	movq	%r13, -88(%rbp)
	movq	$1, -80(%rbp)
	movq	$0, -72(%rbp)
Ltmp1959:
	leaq	l___unnamed_4(%rip), %rax
	movq	%rax, -56(%rbp)
	movq	$0, -48(%rbp)
Ltmp1960:
	.loc	11 14 25
	movq	%rbx, %rdi
	movq	%r15, %rsi
	callq	__ZN4core3fmt9Formatter9write_fmt17h3dc2bf45afed3069E
	.loc	11 14 40 is_stmt 0
	testb	%al, %al
	je	LBB54_6
Ltmp1961:
LBB54_7:
	.loc	11 0 40
	movb	$1, %cl
	jmp	LBB54_8
Ltmp1962:
LBB54_3:
	.loc	1 328 9 is_stmt 1
	leaq	l___unnamed_5(%rip), %rax
Ltmp1963:
	movq	%rax, -88(%rbp)
	movq	$1, -80(%rbp)
	movq	$0, -72(%rbp)
Ltmp1964:
	leaq	l___unnamed_4(%rip), %rax
Ltmp1965:
	movq	%rax, -56(%rbp)
	movq	$0, -48(%rbp)
	leaq	-88(%rbp), %rsi
Ltmp1966:
	.loc	11 18 17
	movq	%rbx, %rdi
	callq	__ZN4core3fmt9Formatter9write_fmt17h3dc2bf45afed3069E
	movl	%eax, %ecx
Ltmp1967:
LBB54_8:
	.loc	11 19 14
	movl	%ecx, %eax
	addq	$104, %rsp
	popq	%rbx
Ltmp1968:
	popq	%r12
	popq	%r13
	popq	%r14
	popq	%r15
	popq	%rbp
	retq
Ltmp1969:
Lfunc_end54:
	.cfi_endproc

	.globl	__ZN11packed_simd3v6496_$LT$impl$u20$core..fmt..Debug$u20$for$u20$packed_simd..Simd$LT$$u5b$u16$u3b$$u20$4$u5d$$GT$$GT$3fmt17h57ae0f0038cbcc95E
	.p2align	4, 0x90
__ZN11packed_simd3v6496_$LT$impl$u20$core..fmt..Debug$u20$for$u20$packed_simd..Simd$LT$$u5b$u16$u3b$$u20$4$u5d$$GT$$GT$3fmt17h57ae0f0038cbcc95E:
Lfunc_begin55:
	.loc	3 49 0
	.cfi_startproc
	pushq	%rbp
	.cfi_def_cfa_offset 16
	.cfi_offset %rbp, -16
	movq	%rsp, %rbp
	.cfi_def_cfa_register %rbp
	pushq	%r15
	pushq	%r14
	pushq	%r12
	pushq	%rbx
	subq	$80, %rsp
	.cfi_offset %rbx, -48
	.cfi_offset %r12, -40
	.cfi_offset %r14, -32
	.cfi_offset %r15, -24
	movq	%rsi, %r15
Ltmp1970:
	movq	%rdi, %rbx
Ltmp1971:
	.loc	3 52 17 prologue_end
	leaq	__ZN44_$LT$$RF$T$u20$as$u20$core..fmt..Display$GT$3fmt17h0663b18722df5164E(%rip), %rax
	movq	%rax, %xmm0
	leaq	l___unnamed_18(%rip), %rax
	movq	%rax, %xmm1
	punpcklqdq	%xmm0, %xmm1
	movdqa	%xmm1, -112(%rbp)
Ltmp1972:
	.loc	1 328 9
	leaq	l___unnamed_2(%rip), %rax
Ltmp1973:
	movq	%rax, -80(%rbp)
	movq	$2, -72(%rbp)
	movq	$0, -64(%rbp)
	leaq	-112(%rbp), %rax
Ltmp1974:
	movq	%rax, -48(%rbp)
	movq	$1, -40(%rbp)
	leaq	-80(%rbp), %rsi
Ltmp1975:
	.loc	3 52 17
	movq	%r15, %rdi
	callq	__ZN4core3fmt9Formatter9write_fmt17h3dc2bf45afed3069E
	movb	$1, %r14b
	.loc	3 52 50 is_stmt 0
	testb	%al, %al
	jne	LBB55_22
Ltmp1976:
	.loc	3 0 0
	movq	(%rbx), %xmm0
Ltmp1977:
	movdqa	%xmm0, -96(%rbp)
Ltmp1978:
	.loc	4 63 36 is_stmt 1
	pextrw	$0, %xmm0, %eax
Ltmp1979:
	.loc	3 57 21
	movw	%ax, -80(%rbp)
Ltmp1980:
	.loc	5 149 20
	movq	%r15, %rdi
	callq	__ZN4core3fmt9Formatter15debug_lower_hex17h8530fbaeba13f4d9E
	.loc	5 149 17 is_stmt 0
	testb	%al, %al
	je	LBB55_2
Ltmp1981:
	.loc	5 0 17
	leaq	-80(%rbp), %rdi
	.loc	5 150 21 is_stmt 1
	movq	%r15, %rsi
	callq	__ZN4core3fmt3num53_$LT$impl$u20$core..fmt..LowerHex$u20$for$u20$u16$GT$3fmt17h4a3e59891cc09bc8E
Ltmp1982:
	.loc	3 57 43
	testb	%al, %al
	je	LBB55_6
	jmp	LBB55_22
Ltmp1983:
LBB55_2:
	.loc	5 151 27
	movq	%r15, %rdi
	callq	__ZN4core3fmt9Formatter15debug_upper_hex17hf8fda15ec43a1e68E
	leaq	-80(%rbp), %rdi
	.loc	5 154 21
	movq	%r15, %rsi
	.loc	5 151 24
	testb	%al, %al
	je	LBB55_4
Ltmp1984:
	.loc	5 152 21
	callq	__ZN4core3fmt3num53_$LT$impl$u20$core..fmt..UpperHex$u20$for$u20$u16$GT$3fmt17h80b29e32979d60cdE
Ltmp1985:
	.loc	3 57 43
	testb	%al, %al
	je	LBB55_6
	jmp	LBB55_22
Ltmp1986:
LBB55_4:
	.loc	5 154 21
	callq	__ZN4core3fmt3num3imp52_$LT$impl$u20$core..fmt..Display$u20$for$u20$u16$GT$3fmt17h7d9582ae70d300cbE
Ltmp1987:
	.loc	3 57 43
	testb	%al, %al
	jne	LBB55_22
Ltmp1988:
LBB55_6:
	.loc	1 328 9
	leaq	l___unnamed_3(%rip), %rbx
Ltmp1989:
	movq	%rbx, -80(%rbp)
	movq	$1, -72(%rbp)
	movq	$0, -64(%rbp)
	leaq	l___unnamed_4(%rip), %r12
Ltmp1990:
	movq	%r12, -48(%rbp)
	movq	$0, -40(%rbp)
	leaq	-80(%rbp), %rsi
Ltmp1991:
	.loc	3 55 25
	movq	%r15, %rdi
	callq	__ZN4core3fmt9Formatter9write_fmt17h3dc2bf45afed3069E
	.loc	3 55 40 is_stmt 0
	testb	%al, %al
	jne	LBB55_22
Ltmp1992:
	.loc	3 0 40
	movdqa	-96(%rbp), %xmm0
	punpcklwd	%xmm0, %xmm0
Ltmp1993:
	movdqa	%xmm0, -96(%rbp)
Ltmp1994:
	.loc	4 63 36 is_stmt 1
	pextrw	$2, %xmm0, %eax
Ltmp1995:
	.loc	3 57 21
	movw	%ax, -80(%rbp)
Ltmp1996:
	.loc	5 149 20
	movq	%r15, %rdi
	callq	__ZN4core3fmt9Formatter15debug_lower_hex17h8530fbaeba13f4d9E
	.loc	5 149 17 is_stmt 0
	testb	%al, %al
	je	LBB55_8
Ltmp1997:
	.loc	5 0 17
	leaq	-80(%rbp), %rdi
	.loc	5 150 21 is_stmt 1
	movq	%r15, %rsi
	callq	__ZN4core3fmt3num53_$LT$impl$u20$core..fmt..LowerHex$u20$for$u20$u16$GT$3fmt17h4a3e59891cc09bc8E
Ltmp1998:
	.loc	3 57 43
	testb	%al, %al
	je	LBB55_11
	jmp	LBB55_22
Ltmp1999:
LBB55_8:
	.loc	5 151 27
	movq	%r15, %rdi
	callq	__ZN4core3fmt9Formatter15debug_upper_hex17hf8fda15ec43a1e68E
	leaq	-80(%rbp), %rdi
	.loc	5 152 21
	movq	%r15, %rsi
	.loc	5 151 24
	testb	%al, %al
	je	LBB55_9
Ltmp2000:
	.loc	5 152 21
	callq	__ZN4core3fmt3num53_$LT$impl$u20$core..fmt..UpperHex$u20$for$u20$u16$GT$3fmt17h80b29e32979d60cdE
Ltmp2001:
	.loc	3 57 43
	testb	%al, %al
	je	LBB55_11
	jmp	LBB55_22
Ltmp2002:
LBB55_9:
	.loc	5 154 21
	callq	__ZN4core3fmt3num3imp52_$LT$impl$u20$core..fmt..Display$u20$for$u20$u16$GT$3fmt17h7d9582ae70d300cbE
Ltmp2003:
	.loc	3 57 43
	testb	%al, %al
	jne	LBB55_22
Ltmp2004:
LBB55_11:
	.loc	1 328 9
	movq	%rbx, -80(%rbp)
	movq	$1, -72(%rbp)
	movq	$0, -64(%rbp)
Ltmp2005:
	movq	%r12, -48(%rbp)
	movq	$0, -40(%rbp)
	leaq	-80(%rbp), %rsi
Ltmp2006:
	.loc	3 55 25
	movq	%r15, %rdi
	callq	__ZN4core3fmt9Formatter9write_fmt17h3dc2bf45afed3069E
	.loc	3 55 40 is_stmt 0
	testb	%al, %al
	jne	LBB55_22
Ltmp2007:
	.loc	3 0 40
	movdqa	-96(%rbp), %xmm0
Ltmp2008:
	.loc	4 63 36 is_stmt 1
	pextrw	$4, %xmm0, %eax
Ltmp2009:
	.loc	3 57 21
	movw	%ax, -80(%rbp)
Ltmp2010:
	.loc	5 149 20
	movq	%r15, %rdi
	callq	__ZN4core3fmt9Formatter15debug_lower_hex17h8530fbaeba13f4d9E
	.loc	5 149 17 is_stmt 0
	testb	%al, %al
	je	LBB55_13
Ltmp2011:
	.loc	5 0 17
	leaq	-80(%rbp), %rdi
	.loc	5 150 21 is_stmt 1
	movq	%r15, %rsi
	callq	__ZN4core3fmt3num53_$LT$impl$u20$core..fmt..LowerHex$u20$for$u20$u16$GT$3fmt17h4a3e59891cc09bc8E
Ltmp2012:
	.loc	3 57 43
	testb	%al, %al
	je	LBB55_16
	jmp	LBB55_22
Ltmp2013:
LBB55_13:
	.loc	5 151 27
	movq	%r15, %rdi
	callq	__ZN4core3fmt9Formatter15debug_upper_hex17hf8fda15ec43a1e68E
	leaq	-80(%rbp), %rdi
	.loc	5 152 21
	movq	%r15, %rsi
	.loc	5 151 24
	testb	%al, %al
	je	LBB55_14
Ltmp2014:
	.loc	5 152 21
	callq	__ZN4core3fmt3num53_$LT$impl$u20$core..fmt..UpperHex$u20$for$u20$u16$GT$3fmt17h80b29e32979d60cdE
Ltmp2015:
	.loc	3 57 43
	testb	%al, %al
	je	LBB55_16
	jmp	LBB55_22
Ltmp2016:
LBB55_14:
	.loc	5 154 21
	callq	__ZN4core3fmt3num3imp52_$LT$impl$u20$core..fmt..Display$u20$for$u20$u16$GT$3fmt17h7d9582ae70d300cbE
Ltmp2017:
	.loc	3 57 43
	testb	%al, %al
	jne	LBB55_22
Ltmp2018:
LBB55_16:
	.loc	1 328 9
	movq	%rbx, -80(%rbp)
	movq	$1, -72(%rbp)
	movq	$0, -64(%rbp)
Ltmp2019:
	movq	%r12, -48(%rbp)
	movq	$0, -40(%rbp)
	leaq	-80(%rbp), %rsi
Ltmp2020:
	.loc	3 55 25
	movq	%r15, %rdi
	callq	__ZN4core3fmt9Formatter9write_fmt17h3dc2bf45afed3069E
	.loc	3 55 40 is_stmt 0
	testb	%al, %al
	jne	LBB55_22
Ltmp2021:
	.loc	3 0 40
	movdqa	-96(%rbp), %xmm0
Ltmp2022:
	.loc	4 63 36 is_stmt 1
	pextrw	$6, %xmm0, %eax
Ltmp2023:
	.loc	3 57 21
	movw	%ax, -80(%rbp)
Ltmp2024:
	.loc	5 149 20
	movq	%r15, %rdi
	callq	__ZN4core3fmt9Formatter15debug_lower_hex17h8530fbaeba13f4d9E
	.loc	5 149 17 is_stmt 0
	testb	%al, %al
	je	LBB55_18
Ltmp2025:
	.loc	5 0 17
	leaq	-80(%rbp), %rdi
	.loc	5 150 21 is_stmt 1
	movq	%r15, %rsi
	callq	__ZN4core3fmt3num53_$LT$impl$u20$core..fmt..LowerHex$u20$for$u20$u16$GT$3fmt17h4a3e59891cc09bc8E
Ltmp2026:
	.loc	3 57 43
	testb	%al, %al
	je	LBB55_21
	jmp	LBB55_22
Ltmp2027:
LBB55_18:
	.loc	5 151 27
	movq	%r15, %rdi
	callq	__ZN4core3fmt9Formatter15debug_upper_hex17hf8fda15ec43a1e68E
	leaq	-80(%rbp), %rdi
	.loc	5 152 21
	movq	%r15, %rsi
	.loc	5 151 24
	testb	%al, %al
	je	LBB55_19
Ltmp2028:
	.loc	5 152 21
	callq	__ZN4core3fmt3num53_$LT$impl$u20$core..fmt..UpperHex$u20$for$u20$u16$GT$3fmt17h80b29e32979d60cdE
Ltmp2029:
	.loc	3 57 43
	testb	%al, %al
	je	LBB55_21
	jmp	LBB55_22
Ltmp2030:
LBB55_19:
	.loc	5 154 21
	callq	__ZN4core3fmt3num3imp52_$LT$impl$u20$core..fmt..Display$u20$for$u20$u16$GT$3fmt17h7d9582ae70d300cbE
Ltmp2031:
	.loc	3 57 43
	testb	%al, %al
	jne	LBB55_22
Ltmp2032:
LBB55_21:
	.loc	1 328 9
	leaq	l___unnamed_5(%rip), %rax
Ltmp2033:
	movq	%rax, -80(%rbp)
	movq	$1, -72(%rbp)
	movq	$0, -64(%rbp)
Ltmp2034:
	movq	%r12, -48(%rbp)
	movq	$0, -40(%rbp)
	leaq	-80(%rbp), %rsi
Ltmp2035:
	.loc	3 59 17
	movq	%r15, %rdi
	callq	__ZN4core3fmt9Formatter9write_fmt17h3dc2bf45afed3069E
Ltmp2036:
	movl	%eax, %r14d
Ltmp2037:
LBB55_22:
	.loc	3 60 14
	movl	%r14d, %eax
	addq	$80, %rsp
	popq	%rbx
	popq	%r12
	popq	%r14
	popq	%r15
Ltmp2038:
	popq	%rbp
	retq
Ltmp2039:
Lfunc_end55:
	.cfi_endproc

	.globl	__ZN11packed_simd3v6499_$LT$impl$u20$core..fmt..LowerHex$u20$for$u20$packed_simd..Simd$LT$$u5b$u16$u3b$$u20$4$u5d$$GT$$GT$3fmt17ha56d8a20d258d9acE
	.p2align	4, 0x90
__ZN11packed_simd3v6499_$LT$impl$u20$core..fmt..LowerHex$u20$for$u20$packed_simd..Simd$LT$$u5b$u16$u3b$$u20$4$u5d$$GT$$GT$3fmt17ha56d8a20d258d9acE:
Lfunc_begin56:
	.loc	6 9 0
	.cfi_startproc
	pushq	%rbp
	.cfi_def_cfa_offset 16
	.cfi_offset %rbp, -16
	movq	%rsp, %rbp
	.cfi_def_cfa_register %rbp
	pushq	%r15
	pushq	%r14
	pushq	%r13
	pushq	%r12
	pushq	%rbx
	subq	$104, %rsp
	.cfi_offset %rbx, -56
	.cfi_offset %r12, -48
	.cfi_offset %r13, -40
	.cfi_offset %r14, -32
	.cfi_offset %r15, -24
	movq	%rsi, %rbx
Ltmp2040:
	movq	%rdi, %r15
Ltmp2041:
	.loc	6 11 17 prologue_end
	leaq	__ZN44_$LT$$RF$T$u20$as$u20$core..fmt..Display$GT$3fmt17h0663b18722df5164E(%rip), %rax
	movq	%rax, %xmm0
	leaq	l___unnamed_18(%rip), %rax
	movq	%rax, %xmm1
	punpcklqdq	%xmm0, %xmm1
	movdqa	%xmm1, -144(%rbp)
Ltmp2042:
	.loc	1 328 9
	leaq	l___unnamed_2(%rip), %rax
Ltmp2043:
	movq	%rax, -88(%rbp)
	movq	$2, -80(%rbp)
	movq	$0, -72(%rbp)
	leaq	-144(%rbp), %rax
Ltmp2044:
	movq	%rax, -56(%rbp)
	movq	$1, -48(%rbp)
	leaq	-88(%rbp), %rsi
Ltmp2045:
	.loc	6 11 17
	movq	%rbx, %rdi
	callq	__ZN4core3fmt9Formatter9write_fmt17h3dc2bf45afed3069E
	movb	$1, %cl
	.loc	6 11 50 is_stmt 0
	testb	%al, %al
	jne	LBB56_8
Ltmp2046:
	.loc	6 0 0
	movq	(%r15), %xmm0
	punpcklwd	%xmm0, %xmm0
	movdqa	%xmm0, -112(%rbp)
	xorl	%r14d, %r14d
	leaq	-88(%rbp), %r15
Ltmp2047:
	leaq	l___unnamed_3(%rip), %r13
Ltmp2048:
	.loc	7 1137 52 is_stmt 1
	cmpq	$4, %r14
Ltmp2049:
	.loc	8 211 9
	jne	LBB56_4
	jmp	LBB56_3
Ltmp2050:
	.p2align	4, 0x90
LBB56_6:
	.loc	8 0 9 is_stmt 0
	movdqa	-112(%rbp), %xmm0
Ltmp2051:
	.loc	4 63 36 is_stmt 1
	movdqa	%xmm0, -128(%rbp)
Ltmp2052:
	.loc	6 0 0 is_stmt 0
	leaq	1(%r14), %r12
Ltmp2053:
	.loc	4 63 36
	andl	$3, %r14d
Ltmp2054:
	movl	-128(%rbp,%r14,4), %eax
Ltmp2055:
	.loc	6 16 21 is_stmt 1
	movw	%ax, -88(%rbp)
	movq	%r15, %rdi
	movq	%rbx, %rsi
	callq	__ZN4core3fmt3num53_$LT$impl$u20$core..fmt..LowerHex$u20$for$u20$u16$GT$3fmt17h4a3e59891cc09bc8E
Ltmp2056:
	.loc	6 0 0 is_stmt 0
	movq	%r12, %r14
Ltmp2057:
	.loc	6 16 43
	testb	%al, %al
	jne	LBB56_7
Ltmp2058:
	.loc	7 1137 52 is_stmt 1
	cmpq	$4, %r14
Ltmp2059:
	.loc	8 211 9
	je	LBB56_3
Ltmp2060:
LBB56_4:
	.loc	6 13 24
	testq	%r14, %r14
	.loc	6 13 21 is_stmt 0
	je	LBB56_6
Ltmp2061:
	.loc	1 328 9 is_stmt 1
	movq	%r13, -88(%rbp)
	movq	$1, -80(%rbp)
	movq	$0, -72(%rbp)
Ltmp2062:
	leaq	l___unnamed_4(%rip), %rax
	movq	%rax, -56(%rbp)
	movq	$0, -48(%rbp)
Ltmp2063:
	.loc	6 14 25
	movq	%rbx, %rdi
	movq	%r15, %rsi
	callq	__ZN4core3fmt9Formatter9write_fmt17h3dc2bf45afed3069E
	.loc	6 14 40 is_stmt 0
	testb	%al, %al
	je	LBB56_6
Ltmp2064:
LBB56_7:
	.loc	6 0 40
	movb	$1, %cl
	jmp	LBB56_8
Ltmp2065:
LBB56_3:
	.loc	1 328 9 is_stmt 1
	leaq	l___unnamed_5(%rip), %rax
Ltmp2066:
	movq	%rax, -88(%rbp)
	movq	$1, -80(%rbp)
	movq	$0, -72(%rbp)
Ltmp2067:
	leaq	l___unnamed_4(%rip), %rax
Ltmp2068:
	movq	%rax, -56(%rbp)
	movq	$0, -48(%rbp)
	leaq	-88(%rbp), %rsi
Ltmp2069:
	.loc	6 18 17
	movq	%rbx, %rdi
	callq	__ZN4core3fmt9Formatter9write_fmt17h3dc2bf45afed3069E
	movl	%eax, %ecx
Ltmp2070:
LBB56_8:
	.loc	6 19 14
	movl	%ecx, %eax
	addq	$104, %rsp
	popq	%rbx
Ltmp2071:
	popq	%r12
	popq	%r13
	popq	%r14
	popq	%r15
	popq	%rbp
	retq
Ltmp2072:
Lfunc_end56:
	.cfi_endproc

	.globl	__ZN11packed_simd3v6499_$LT$impl$u20$core..fmt..UpperHex$u20$for$u20$packed_simd..Simd$LT$$u5b$u16$u3b$$u20$4$u5d$$GT$$GT$3fmt17hce23579ab41dc96eE
	.p2align	4, 0x90
__ZN11packed_simd3v6499_$LT$impl$u20$core..fmt..UpperHex$u20$for$u20$packed_simd..Simd$LT$$u5b$u16$u3b$$u20$4$u5d$$GT$$GT$3fmt17hce23579ab41dc96eE:
Lfunc_begin57:
	.loc	9 9 0
	.cfi_startproc
	pushq	%rbp
	.cfi_def_cfa_offset 16
	.cfi_offset %rbp, -16
	movq	%rsp, %rbp
	.cfi_def_cfa_register %rbp
	pushq	%r15
	pushq	%r14
	pushq	%r13
	pushq	%r12
	pushq	%rbx
	subq	$104, %rsp
	.cfi_offset %rbx, -56
	.cfi_offset %r12, -48
	.cfi_offset %r13, -40
	.cfi_offset %r14, -32
	.cfi_offset %r15, -24
	movq	%rsi, %rbx
Ltmp2073:
	movq	%rdi, %r15
Ltmp2074:
	.loc	9 11 17 prologue_end
	leaq	__ZN44_$LT$$RF$T$u20$as$u20$core..fmt..Display$GT$3fmt17h0663b18722df5164E(%rip), %rax
	movq	%rax, %xmm0
	leaq	l___unnamed_18(%rip), %rax
	movq	%rax, %xmm1
	punpcklqdq	%xmm0, %xmm1
	movdqa	%xmm1, -144(%rbp)
Ltmp2075:
	.loc	1 328 9
	leaq	l___unnamed_2(%rip), %rax
Ltmp2076:
	movq	%rax, -88(%rbp)
	movq	$2, -80(%rbp)
	movq	$0, -72(%rbp)
	leaq	-144(%rbp), %rax
Ltmp2077:
	movq	%rax, -56(%rbp)
	movq	$1, -48(%rbp)
	leaq	-88(%rbp), %rsi
Ltmp2078:
	.loc	9 11 17
	movq	%rbx, %rdi
	callq	__ZN4core3fmt9Formatter9write_fmt17h3dc2bf45afed3069E
	movb	$1, %cl
	.loc	9 11 50 is_stmt 0
	testb	%al, %al
	jne	LBB57_8
Ltmp2079:
	.loc	9 0 0
	movq	(%r15), %xmm0
	punpcklwd	%xmm0, %xmm0
	movdqa	%xmm0, -112(%rbp)
	xorl	%r14d, %r14d
	leaq	-88(%rbp), %r15
Ltmp2080:
	leaq	l___unnamed_3(%rip), %r13
Ltmp2081:
	.loc	7 1137 52 is_stmt 1
	cmpq	$4, %r14
Ltmp2082:
	.loc	8 211 9
	jne	LBB57_4
	jmp	LBB57_3
Ltmp2083:
	.p2align	4, 0x90
LBB57_6:
	.loc	8 0 9 is_stmt 0
	movdqa	-112(%rbp), %xmm0
Ltmp2084:
	.loc	4 63 36 is_stmt 1
	movdqa	%xmm0, -128(%rbp)
Ltmp2085:
	.loc	9 0 0 is_stmt 0
	leaq	1(%r14), %r12
Ltmp2086:
	.loc	4 63 36
	andl	$3, %r14d
Ltmp2087:
	movl	-128(%rbp,%r14,4), %eax
Ltmp2088:
	.loc	9 16 21 is_stmt 1
	movw	%ax, -88(%rbp)
	movq	%r15, %rdi
	movq	%rbx, %rsi
	callq	__ZN4core3fmt3num53_$LT$impl$u20$core..fmt..UpperHex$u20$for$u20$u16$GT$3fmt17h80b29e32979d60cdE
Ltmp2089:
	.loc	9 0 0 is_stmt 0
	movq	%r12, %r14
Ltmp2090:
	.loc	9 16 43
	testb	%al, %al
	jne	LBB57_7
Ltmp2091:
	.loc	7 1137 52 is_stmt 1
	cmpq	$4, %r14
Ltmp2092:
	.loc	8 211 9
	je	LBB57_3
Ltmp2093:
LBB57_4:
	.loc	9 13 24
	testq	%r14, %r14
	.loc	9 13 21 is_stmt 0
	je	LBB57_6
Ltmp2094:
	.loc	1 328 9 is_stmt 1
	movq	%r13, -88(%rbp)
	movq	$1, -80(%rbp)
	movq	$0, -72(%rbp)
Ltmp2095:
	leaq	l___unnamed_4(%rip), %rax
	movq	%rax, -56(%rbp)
	movq	$0, -48(%rbp)
Ltmp2096:
	.loc	9 14 25
	movq	%rbx, %rdi
	movq	%r15, %rsi
	callq	__ZN4core3fmt9Formatter9write_fmt17h3dc2bf45afed3069E
	.loc	9 14 40 is_stmt 0
	testb	%al, %al
	je	LBB57_6
Ltmp2097:
LBB57_7:
	.loc	9 0 40
	movb	$1, %cl
	jmp	LBB57_8
Ltmp2098:
LBB57_3:
	.loc	1 328 9 is_stmt 1
	leaq	l___unnamed_5(%rip), %rax
Ltmp2099:
	movq	%rax, -88(%rbp)
	movq	$1, -80(%rbp)
	movq	$0, -72(%rbp)
Ltmp2100:
	leaq	l___unnamed_4(%rip), %rax
Ltmp2101:
	movq	%rax, -56(%rbp)
	movq	$0, -48(%rbp)
	leaq	-88(%rbp), %rsi
Ltmp2102:
	.loc	9 18 17
	movq	%rbx, %rdi
	callq	__ZN4core3fmt9Formatter9write_fmt17h3dc2bf45afed3069E
	movl	%eax, %ecx
Ltmp2103:
LBB57_8:
	.loc	9 19 14
	movl	%ecx, %eax
	addq	$104, %rsp
	popq	%rbx
Ltmp2104:
	popq	%r12
	popq	%r13
	popq	%r14
	popq	%r15
	popq	%rbp
	retq
Ltmp2105:
Lfunc_end57:
	.cfi_endproc

	.globl	__ZN11packed_simd3v6496_$LT$impl$u20$core..fmt..Octal$u20$for$u20$packed_simd..Simd$LT$$u5b$u16$u3b$$u20$4$u5d$$GT$$GT$3fmt17h96b5319a29c4b438E
	.p2align	4, 0x90
__ZN11packed_simd3v6496_$LT$impl$u20$core..fmt..Octal$u20$for$u20$packed_simd..Simd$LT$$u5b$u16$u3b$$u20$4$u5d$$GT$$GT$3fmt17h96b5319a29c4b438E:
Lfunc_begin58:
	.loc	10 9 0
	.cfi_startproc
	pushq	%rbp
	.cfi_def_cfa_offset 16
	.cfi_offset %rbp, -16
	movq	%rsp, %rbp
	.cfi_def_cfa_register %rbp
	pushq	%r15
	pushq	%r14
	pushq	%r13
	pushq	%r12
	pushq	%rbx
	subq	$104, %rsp
	.cfi_offset %rbx, -56
	.cfi_offset %r12, -48
	.cfi_offset %r13, -40
	.cfi_offset %r14, -32
	.cfi_offset %r15, -24
	movq	%rsi, %rbx
Ltmp2106:
	movq	%rdi, %r15
Ltmp2107:
	.loc	10 11 17 prologue_end
	leaq	__ZN44_$LT$$RF$T$u20$as$u20$core..fmt..Display$GT$3fmt17h0663b18722df5164E(%rip), %rax
	movq	%rax, %xmm0
	leaq	l___unnamed_18(%rip), %rax
	movq	%rax, %xmm1
	punpcklqdq	%xmm0, %xmm1
	movdqa	%xmm1, -144(%rbp)
Ltmp2108:
	.loc	1 328 9
	leaq	l___unnamed_2(%rip), %rax
Ltmp2109:
	movq	%rax, -88(%rbp)
	movq	$2, -80(%rbp)
	movq	$0, -72(%rbp)
	leaq	-144(%rbp), %rax
Ltmp2110:
	movq	%rax, -56(%rbp)
	movq	$1, -48(%rbp)
	leaq	-88(%rbp), %rsi
Ltmp2111:
	.loc	10 11 17
	movq	%rbx, %rdi
	callq	__ZN4core3fmt9Formatter9write_fmt17h3dc2bf45afed3069E
	movb	$1, %cl
	.loc	10 11 50 is_stmt 0
	testb	%al, %al
	jne	LBB58_8
Ltmp2112:
	.loc	10 0 0
	movq	(%r15), %xmm0
	punpcklwd	%xmm0, %xmm0
	movdqa	%xmm0, -112(%rbp)
	xorl	%r14d, %r14d
	leaq	-88(%rbp), %r15
Ltmp2113:
	leaq	l___unnamed_3(%rip), %r13
Ltmp2114:
	.loc	7 1137 52 is_stmt 1
	cmpq	$4, %r14
Ltmp2115:
	.loc	8 211 9
	jne	LBB58_4
	jmp	LBB58_3
Ltmp2116:
	.p2align	4, 0x90
LBB58_6:
	.loc	8 0 9 is_stmt 0
	movdqa	-112(%rbp), %xmm0
Ltmp2117:
	.loc	4 63 36 is_stmt 1
	movdqa	%xmm0, -128(%rbp)
Ltmp2118:
	.loc	10 0 0 is_stmt 0
	leaq	1(%r14), %r12
Ltmp2119:
	.loc	4 63 36
	andl	$3, %r14d
Ltmp2120:
	movl	-128(%rbp,%r14,4), %eax
Ltmp2121:
	.loc	10 16 21 is_stmt 1
	movw	%ax, -88(%rbp)
	movq	%r15, %rdi
	movq	%rbx, %rsi
	callq	__ZN4core3fmt3num50_$LT$impl$u20$core..fmt..Octal$u20$for$u20$u16$GT$3fmt17h2ec0c79ba216a7ebE
Ltmp2122:
	.loc	10 0 0 is_stmt 0
	movq	%r12, %r14
Ltmp2123:
	.loc	10 16 43
	testb	%al, %al
	jne	LBB58_7
Ltmp2124:
	.loc	7 1137 52 is_stmt 1
	cmpq	$4, %r14
Ltmp2125:
	.loc	8 211 9
	je	LBB58_3
Ltmp2126:
LBB58_4:
	.loc	10 13 24
	testq	%r14, %r14
	.loc	10 13 21 is_stmt 0
	je	LBB58_6
Ltmp2127:
	.loc	1 328 9 is_stmt 1
	movq	%r13, -88(%rbp)
	movq	$1, -80(%rbp)
	movq	$0, -72(%rbp)
Ltmp2128:
	leaq	l___unnamed_4(%rip), %rax
	movq	%rax, -56(%rbp)
	movq	$0, -48(%rbp)
Ltmp2129:
	.loc	10 14 25
	movq	%rbx, %rdi
	movq	%r15, %rsi
	callq	__ZN4core3fmt9Formatter9write_fmt17h3dc2bf45afed3069E
	.loc	10 14 40 is_stmt 0
	testb	%al, %al
	je	LBB58_6
Ltmp2130:
LBB58_7:
	.loc	10 0 40
	movb	$1, %cl
	jmp	LBB58_8
Ltmp2131:
LBB58_3:
	.loc	1 328 9 is_stmt 1
	leaq	l___unnamed_5(%rip), %rax
Ltmp2132:
	movq	%rax, -88(%rbp)
	movq	$1, -80(%rbp)
	movq	$0, -72(%rbp)
Ltmp2133:
	leaq	l___unnamed_4(%rip), %rax
Ltmp2134:
	movq	%rax, -56(%rbp)
	movq	$0, -48(%rbp)
	leaq	-88(%rbp), %rsi
Ltmp2135:
	.loc	10 18 17
	movq	%rbx, %rdi
	callq	__ZN4core3fmt9Formatter9write_fmt17h3dc2bf45afed3069E
	movl	%eax, %ecx
Ltmp2136:
LBB58_8:
	.loc	10 19 14
	movl	%ecx, %eax
	addq	$104, %rsp
	popq	%rbx
Ltmp2137:
	popq	%r12
	popq	%r13
	popq	%r14
	popq	%r15
	popq	%rbp
	retq
Ltmp2138:
Lfunc_end58:
	.cfi_endproc

	.globl	__ZN11packed_simd3v6497_$LT$impl$u20$core..fmt..Binary$u20$for$u20$packed_simd..Simd$LT$$u5b$u16$u3b$$u20$4$u5d$$GT$$GT$3fmt17h506af6721e874412E
	.p2align	4, 0x90
__ZN11packed_simd3v6497_$LT$impl$u20$core..fmt..Binary$u20$for$u20$packed_simd..Simd$LT$$u5b$u16$u3b$$u20$4$u5d$$GT$$GT$3fmt17h506af6721e874412E:
Lfunc_begin59:
	.loc	11 9 0
	.cfi_startproc
	pushq	%rbp
	.cfi_def_cfa_offset 16
	.cfi_offset %rbp, -16
	movq	%rsp, %rbp
	.cfi_def_cfa_register %rbp
	pushq	%r15
	pushq	%r14
	pushq	%r13
	pushq	%r12
	pushq	%rbx
	subq	$104, %rsp
	.cfi_offset %rbx, -56
	.cfi_offset %r12, -48
	.cfi_offset %r13, -40
	.cfi_offset %r14, -32
	.cfi_offset %r15, -24
	movq	%rsi, %rbx
Ltmp2139:
	movq	%rdi, %r15
Ltmp2140:
	.loc	11 11 17 prologue_end
	leaq	__ZN44_$LT$$RF$T$u20$as$u20$core..fmt..Display$GT$3fmt17h0663b18722df5164E(%rip), %rax
	movq	%rax, %xmm0
	leaq	l___unnamed_18(%rip), %rax
	movq	%rax, %xmm1
	punpcklqdq	%xmm0, %xmm1
	movdqa	%xmm1, -144(%rbp)
Ltmp2141:
	.loc	1 328 9
	leaq	l___unnamed_2(%rip), %rax
Ltmp2142:
	movq	%rax, -88(%rbp)
	movq	$2, -80(%rbp)
	movq	$0, -72(%rbp)
	leaq	-144(%rbp), %rax
Ltmp2143:
	movq	%rax, -56(%rbp)
	movq	$1, -48(%rbp)
	leaq	-88(%rbp), %rsi
Ltmp2144:
	.loc	11 11 17
	movq	%rbx, %rdi
	callq	__ZN4core3fmt9Formatter9write_fmt17h3dc2bf45afed3069E
	movb	$1, %cl
	.loc	11 11 50 is_stmt 0
	testb	%al, %al
	jne	LBB59_8
Ltmp2145:
	.loc	11 0 0
	movq	(%r15), %xmm0
	punpcklwd	%xmm0, %xmm0
	movdqa	%xmm0, -112(%rbp)
	xorl	%r14d, %r14d
	leaq	-88(%rbp), %r15
Ltmp2146:
	leaq	l___unnamed_3(%rip), %r13
Ltmp2147:
	.loc	7 1137 52 is_stmt 1
	cmpq	$4, %r14
Ltmp2148:
	.loc	8 211 9
	jne	LBB59_4
	jmp	LBB59_3
Ltmp2149:
	.p2align	4, 0x90
LBB59_6:
	.loc	8 0 9 is_stmt 0
	movdqa	-112(%rbp), %xmm0
Ltmp2150:
	.loc	4 63 36 is_stmt 1
	movdqa	%xmm0, -128(%rbp)
Ltmp2151:
	.loc	11 0 0 is_stmt 0
	leaq	1(%r14), %r12
Ltmp2152:
	.loc	4 63 36
	andl	$3, %r14d
Ltmp2153:
	movl	-128(%rbp,%r14,4), %eax
Ltmp2154:
	.loc	11 16 21 is_stmt 1
	movw	%ax, -88(%rbp)
	movq	%r15, %rdi
	movq	%rbx, %rsi
	callq	__ZN4core3fmt3num51_$LT$impl$u20$core..fmt..Binary$u20$for$u20$u16$GT$3fmt17hc8b19066ea81d36bE
Ltmp2155:
	.loc	11 0 0 is_stmt 0
	movq	%r12, %r14
Ltmp2156:
	.loc	11 16 43
	testb	%al, %al
	jne	LBB59_7
Ltmp2157:
	.loc	7 1137 52 is_stmt 1
	cmpq	$4, %r14
Ltmp2158:
	.loc	8 211 9
	je	LBB59_3
Ltmp2159:
LBB59_4:
	.loc	11 13 24
	testq	%r14, %r14
	.loc	11 13 21 is_stmt 0
	je	LBB59_6
Ltmp2160:
	.loc	1 328 9 is_stmt 1
	movq	%r13, -88(%rbp)
	movq	$1, -80(%rbp)
	movq	$0, -72(%rbp)
Ltmp2161:
	leaq	l___unnamed_4(%rip), %rax
	movq	%rax, -56(%rbp)
	movq	$0, -48(%rbp)
Ltmp2162:
	.loc	11 14 25
	movq	%rbx, %rdi
	movq	%r15, %rsi
	callq	__ZN4core3fmt9Formatter9write_fmt17h3dc2bf45afed3069E
	.loc	11 14 40 is_stmt 0
	testb	%al, %al
	je	LBB59_6
Ltmp2163:
LBB59_7:
	.loc	11 0 40
	movb	$1, %cl
	jmp	LBB59_8
Ltmp2164:
LBB59_3:
	.loc	1 328 9 is_stmt 1
	leaq	l___unnamed_5(%rip), %rax
Ltmp2165:
	movq	%rax, -88(%rbp)
	movq	$1, -80(%rbp)
	movq	$0, -72(%rbp)
Ltmp2166:
	leaq	l___unnamed_4(%rip), %rax
Ltmp2167:
	movq	%rax, -56(%rbp)
	movq	$0, -48(%rbp)
	leaq	-88(%rbp), %rsi
Ltmp2168:
	.loc	11 18 17
	movq	%rbx, %rdi
	callq	__ZN4core3fmt9Formatter9write_fmt17h3dc2bf45afed3069E
	movl	%eax, %ecx
Ltmp2169:
LBB59_8:
	.loc	11 19 14
	movl	%ecx, %eax
	addq	$104, %rsp
	popq	%rbx
Ltmp2170:
	popq	%r12
	popq	%r13
	popq	%r14
	popq	%r15
	popq	%rbp
	retq
Ltmp2171:
Lfunc_end59:
	.cfi_endproc

	.globl	__ZN11packed_simd3v64116_$LT$impl$u20$core..fmt..Debug$u20$for$u20$packed_simd..Simd$LT$$u5b$packed_simd..masks..m16$u3b$$u20$4$u5d$$GT$$GT$3fmt17h2f83252c307d504dE
	.p2align	4, 0x90
__ZN11packed_simd3v64116_$LT$impl$u20$core..fmt..Debug$u20$for$u20$packed_simd..Simd$LT$$u5b$packed_simd..masks..m16$u3b$$u20$4$u5d$$GT$$GT$3fmt17h2f83252c307d504dE:
Lfunc_begin60:
	.loc	3 49 0
	.cfi_startproc
	pushq	%rbp
	.cfi_def_cfa_offset 16
	.cfi_offset %rbp, -16
	movq	%rsp, %rbp
	.cfi_def_cfa_register %rbp
	pushq	%r15
	pushq	%r14
	pushq	%r13
	pushq	%r12
	pushq	%rbx
	subq	$104, %rsp
	.cfi_offset %rbx, -56
	.cfi_offset %r12, -48
	.cfi_offset %r13, -40
	.cfi_offset %r14, -32
	.cfi_offset %r15, -24
	movq	%rsi, %rbx
Ltmp2172:
	movq	%rdi, %r15
Ltmp2173:
	.loc	3 52 17 prologue_end
	leaq	__ZN44_$LT$$RF$T$u20$as$u20$core..fmt..Display$GT$3fmt17h0663b18722df5164E(%rip), %rax
	movq	%rax, %xmm0
	leaq	l___unnamed_19(%rip), %rax
	movq	%rax, %xmm1
	punpcklqdq	%xmm0, %xmm1
	movdqa	%xmm1, -144(%rbp)
Ltmp2174:
	.loc	1 328 9
	leaq	l___unnamed_2(%rip), %rax
Ltmp2175:
	movq	%rax, -88(%rbp)
	movq	$2, -80(%rbp)
	movq	$0, -72(%rbp)
	leaq	-144(%rbp), %rax
Ltmp2176:
	movq	%rax, -56(%rbp)
	movq	$1, -48(%rbp)
	leaq	-88(%rbp), %rsi
Ltmp2177:
	.loc	3 52 17
	movq	%rbx, %rdi
	callq	__ZN4core3fmt9Formatter9write_fmt17h3dc2bf45afed3069E
	movb	$1, %cl
	.loc	3 52 50 is_stmt 0
	testb	%al, %al
	jne	LBB60_8
Ltmp2178:
	.loc	3 0 0
	movq	(%r15), %xmm0
	punpcklwd	%xmm0, %xmm0
	movdqa	%xmm0, -112(%rbp)
	xorl	%r14d, %r14d
	leaq	-88(%rbp), %r15
Ltmp2179:
	leaq	l___unnamed_3(%rip), %r13
Ltmp2180:
	.loc	7 1137 52 is_stmt 1
	cmpq	$4, %r14
Ltmp2181:
	.loc	8 211 9
	jne	LBB60_4
	jmp	LBB60_3
Ltmp2182:
	.p2align	4, 0x90
LBB60_6:
	.loc	8 0 9 is_stmt 0
	movdqa	-112(%rbp), %xmm0
Ltmp2183:
	.loc	12 67 36 is_stmt 1
	movdqa	%xmm0, -128(%rbp)
Ltmp2184:
	.loc	3 0 0 is_stmt 0
	leaq	1(%r14), %r12
Ltmp2185:
	.loc	12 67 36
	andl	$3, %r14d
Ltmp2186:
	movl	-128(%rbp,%r14,4), %eax
Ltmp2187:
	.loc	12 68 17 is_stmt 1
	testw	%ax, %ax
Ltmp2188:
	.loc	3 57 21
	setne	-88(%rbp)
Ltmp2189:
	.loc	1 2003 9
	movq	%r15, %rdi
	movq	%rbx, %rsi
	callq	__ZN43_$LT$bool$u20$as$u20$core..fmt..Display$GT$3fmt17hf36463fa8b480ab4E
Ltmp2190:
	.loc	3 0 0 is_stmt 0
	movq	%r12, %r14
Ltmp2191:
	.loc	3 57 43 is_stmt 1
	testb	%al, %al
	jne	LBB60_7
Ltmp2192:
	.loc	7 1137 52
	cmpq	$4, %r14
Ltmp2193:
	.loc	8 211 9
	je	LBB60_3
Ltmp2194:
LBB60_4:
	.loc	3 54 24
	testq	%r14, %r14
	.loc	3 54 21 is_stmt 0
	je	LBB60_6
Ltmp2195:
	.loc	1 328 9 is_stmt 1
	movq	%r13, -88(%rbp)
	movq	$1, -80(%rbp)
	movq	$0, -72(%rbp)
Ltmp2196:
	leaq	l___unnamed_4(%rip), %rax
	movq	%rax, -56(%rbp)
	movq	$0, -48(%rbp)
Ltmp2197:
	.loc	3 55 25
	movq	%rbx, %rdi
	movq	%r15, %rsi
	callq	__ZN4core3fmt9Formatter9write_fmt17h3dc2bf45afed3069E
	.loc	3 55 40 is_stmt 0
	testb	%al, %al
	je	LBB60_6
Ltmp2198:
LBB60_7:
	.loc	3 0 40
	movb	$1, %cl
	jmp	LBB60_8
Ltmp2199:
LBB60_3:
	.loc	1 328 9 is_stmt 1
	leaq	l___unnamed_5(%rip), %rax
Ltmp2200:
	movq	%rax, -88(%rbp)
	movq	$1, -80(%rbp)
	movq	$0, -72(%rbp)
Ltmp2201:
	leaq	l___unnamed_4(%rip), %rax
Ltmp2202:
	movq	%rax, -56(%rbp)
	movq	$0, -48(%rbp)
	leaq	-88(%rbp), %rsi
Ltmp2203:
	.loc	3 59 17
	movq	%rbx, %rdi
	callq	__ZN4core3fmt9Formatter9write_fmt17h3dc2bf45afed3069E
	movl	%eax, %ecx
Ltmp2204:
LBB60_8:
	.loc	3 60 14
	movl	%ecx, %eax
	addq	$104, %rsp
	popq	%rbx
Ltmp2205:
	popq	%r12
	popq	%r13
	popq	%r14
	popq	%r15
	popq	%rbp
	retq
Ltmp2206:
Lfunc_end60:
	.cfi_endproc

	.globl	__ZN11packed_simd3v6496_$LT$impl$u20$core..fmt..Debug$u20$for$u20$packed_simd..Simd$LT$$u5b$i32$u3b$$u20$2$u5d$$GT$$GT$3fmt17h5d8f8a2c9447f87cE
	.p2align	4, 0x90
__ZN11packed_simd3v6496_$LT$impl$u20$core..fmt..Debug$u20$for$u20$packed_simd..Simd$LT$$u5b$i32$u3b$$u20$2$u5d$$GT$$GT$3fmt17h5d8f8a2c9447f87cE:
Lfunc_begin61:
	.loc	3 49 0
	.cfi_startproc
	pushq	%rbp
	.cfi_def_cfa_offset 16
	.cfi_offset %rbp, -16
	movq	%rsp, %rbp
	.cfi_def_cfa_register %rbp
	pushq	%r15
	pushq	%r14
	pushq	%rbx
	subq	$88, %rsp
	.cfi_offset %rbx, -40
	.cfi_offset %r14, -32
	.cfi_offset %r15, -24
	movq	%rsi, %r15
Ltmp2207:
	movq	%rdi, %rbx
Ltmp2208:
	.loc	3 52 17 prologue_end
	leaq	__ZN44_$LT$$RF$T$u20$as$u20$core..fmt..Display$GT$3fmt17h0663b18722df5164E(%rip), %rax
	movq	%rax, %xmm0
	leaq	l___unnamed_20(%rip), %rax
	movq	%rax, %xmm1
	punpcklqdq	%xmm0, %xmm1
	movdqa	%xmm1, -112(%rbp)
Ltmp2209:
	.loc	1 328 9
	leaq	l___unnamed_2(%rip), %rax
Ltmp2210:
	movq	%rax, -72(%rbp)
	movq	$2, -64(%rbp)
	movq	$0, -56(%rbp)
	leaq	-112(%rbp), %rax
Ltmp2211:
	movq	%rax, -40(%rbp)
	movq	$1, -32(%rbp)
	leaq	-72(%rbp), %rsi
Ltmp2212:
	.loc	3 52 17
	movq	%r15, %rdi
	callq	__ZN4core3fmt9Formatter9write_fmt17h3dc2bf45afed3069E
	movb	$1, %r14b
	.loc	3 52 50 is_stmt 0
	testb	%al, %al
	jne	LBB61_12
Ltmp2213:
	.loc	3 0 0
	movq	(%rbx), %xmm0
Ltmp2214:
	movdqa	%xmm0, -96(%rbp)
	.loc	3 57 21 is_stmt 1
	movd	%xmm0, -72(%rbp)
Ltmp2215:
	.loc	5 149 20
	movq	%r15, %rdi
	callq	__ZN4core3fmt9Formatter15debug_lower_hex17h8530fbaeba13f4d9E
	.loc	5 149 17 is_stmt 0
	testb	%al, %al
	je	LBB61_2
Ltmp2216:
	.loc	5 0 17
	leaq	-72(%rbp), %rdi
	.loc	5 150 21 is_stmt 1
	movq	%r15, %rsi
	callq	__ZN4core3fmt3num53_$LT$impl$u20$core..fmt..LowerHex$u20$for$u20$i32$GT$3fmt17h45ae8797392b15d4E
Ltmp2217:
	.loc	3 57 43
	testb	%al, %al
	je	LBB61_6
	jmp	LBB61_12
Ltmp2218:
LBB61_2:
	.loc	5 151 27
	movq	%r15, %rdi
	callq	__ZN4core3fmt9Formatter15debug_upper_hex17hf8fda15ec43a1e68E
	leaq	-72(%rbp), %rdi
	.loc	5 154 21
	movq	%r15, %rsi
	.loc	5 151 24
	testb	%al, %al
	je	LBB61_4
Ltmp2219:
	.loc	5 152 21
	callq	__ZN4core3fmt3num53_$LT$impl$u20$core..fmt..UpperHex$u20$for$u20$i32$GT$3fmt17h7218a38926162563E
Ltmp2220:
	.loc	3 57 43
	testb	%al, %al
	je	LBB61_6
	jmp	LBB61_12
Ltmp2221:
LBB61_4:
	.loc	5 154 21
	callq	__ZN4core3fmt3num3imp52_$LT$impl$u20$core..fmt..Display$u20$for$u20$i32$GT$3fmt17he2ccc2060d52a2ceE
Ltmp2222:
	.loc	3 57 43
	testb	%al, %al
	jne	LBB61_12
Ltmp2223:
LBB61_6:
	.loc	1 328 9
	leaq	l___unnamed_3(%rip), %rax
Ltmp2224:
	movq	%rax, -72(%rbp)
	movq	$1, -64(%rbp)
	movq	$0, -56(%rbp)
	leaq	l___unnamed_4(%rip), %rbx
Ltmp2225:
	movq	%rbx, -40(%rbp)
	movq	$0, -32(%rbp)
	leaq	-72(%rbp), %rsi
Ltmp2226:
	.loc	3 55 25
	movq	%r15, %rdi
	callq	__ZN4core3fmt9Formatter9write_fmt17h3dc2bf45afed3069E
Ltmp2227:
	.loc	3 55 40 is_stmt 0
	testb	%al, %al
	jne	LBB61_12
Ltmp2228:
	.loc	3 0 0
	pshufd	$212, -96(%rbp), %xmm0
Ltmp2229:
	.loc	4 63 36 is_stmt 1
	pshufd	$78, %xmm0, %xmm0
Ltmp2230:
	.loc	3 57 21
	movd	%xmm0, -72(%rbp)
Ltmp2231:
	.loc	5 149 20
	movq	%r15, %rdi
	callq	__ZN4core3fmt9Formatter15debug_lower_hex17h8530fbaeba13f4d9E
	.loc	5 149 17 is_stmt 0
	testb	%al, %al
	je	LBB61_8
Ltmp2232:
	.loc	5 0 17
	leaq	-72(%rbp), %rdi
	.loc	5 150 21 is_stmt 1
	movq	%r15, %rsi
	callq	__ZN4core3fmt3num53_$LT$impl$u20$core..fmt..LowerHex$u20$for$u20$i32$GT$3fmt17h45ae8797392b15d4E
Ltmp2233:
	.loc	3 57 43
	testb	%al, %al
	jne	LBB61_12
Ltmp2234:
LBB61_11:
	.loc	1 328 9
	leaq	l___unnamed_5(%rip), %rax
Ltmp2235:
	movq	%rax, -72(%rbp)
	movq	$1, -64(%rbp)
	movq	$0, -56(%rbp)
Ltmp2236:
	movq	%rbx, -40(%rbp)
	movq	$0, -32(%rbp)
	leaq	-72(%rbp), %rsi
Ltmp2237:
	.loc	3 59 17
	movq	%r15, %rdi
	callq	__ZN4core3fmt9Formatter9write_fmt17h3dc2bf45afed3069E
Ltmp2238:
	movl	%eax, %r14d
Ltmp2239:
LBB61_12:
	.loc	3 60 14
	movl	%r14d, %eax
	addq	$88, %rsp
	popq	%rbx
	popq	%r14
	popq	%r15
Ltmp2240:
	popq	%rbp
	retq
LBB61_8:
Ltmp2241:
	.loc	5 151 27
	movq	%r15, %rdi
	callq	__ZN4core3fmt9Formatter15debug_upper_hex17hf8fda15ec43a1e68E
	leaq	-72(%rbp), %rdi
	.loc	5 152 21
	movq	%r15, %rsi
	.loc	5 151 24
	testb	%al, %al
	je	LBB61_9
Ltmp2242:
	.loc	5 152 21
	callq	__ZN4core3fmt3num53_$LT$impl$u20$core..fmt..UpperHex$u20$for$u20$i32$GT$3fmt17h7218a38926162563E
Ltmp2243:
	.loc	3 57 43
	testb	%al, %al
	je	LBB61_11
	jmp	LBB61_12
Ltmp2244:
LBB61_9:
	.loc	5 154 21
	callq	__ZN4core3fmt3num3imp52_$LT$impl$u20$core..fmt..Display$u20$for$u20$i32$GT$3fmt17he2ccc2060d52a2ceE
Ltmp2245:
	.loc	3 57 43
	testb	%al, %al
	je	LBB61_11
	jmp	LBB61_12
Ltmp2246:
Lfunc_end61:
	.cfi_endproc

	.globl	__ZN11packed_simd3v6499_$LT$impl$u20$core..fmt..LowerHex$u20$for$u20$packed_simd..Simd$LT$$u5b$i32$u3b$$u20$2$u5d$$GT$$GT$3fmt17h8ea0044ea01d83f1E
	.p2align	4, 0x90
__ZN11packed_simd3v6499_$LT$impl$u20$core..fmt..LowerHex$u20$for$u20$packed_simd..Simd$LT$$u5b$i32$u3b$$u20$2$u5d$$GT$$GT$3fmt17h8ea0044ea01d83f1E:
Lfunc_begin62:
	.loc	6 9 0
	.cfi_startproc
	pushq	%rbp
	.cfi_def_cfa_offset 16
	.cfi_offset %rbp, -16
	movq	%rsp, %rbp
	.cfi_def_cfa_register %rbp
	pushq	%r15
	pushq	%r14
	pushq	%r13
	pushq	%r12
	pushq	%rbx
	subq	$104, %rsp
	.cfi_offset %rbx, -56
	.cfi_offset %r12, -48
	.cfi_offset %r13, -40
	.cfi_offset %r14, -32
	.cfi_offset %r15, -24
	movq	%rsi, %rbx
Ltmp2247:
	movq	%rdi, %r15
Ltmp2248:
	.loc	6 11 17 prologue_end
	leaq	__ZN44_$LT$$RF$T$u20$as$u20$core..fmt..Display$GT$3fmt17h0663b18722df5164E(%rip), %rax
	movq	%rax, %xmm0
	leaq	l___unnamed_20(%rip), %rax
	movq	%rax, %xmm1
	punpcklqdq	%xmm0, %xmm1
	movdqa	%xmm1, -144(%rbp)
Ltmp2249:
	.loc	1 328 9
	leaq	l___unnamed_2(%rip), %rax
Ltmp2250:
	movq	%rax, -88(%rbp)
	movq	$2, -80(%rbp)
	movq	$0, -72(%rbp)
	leaq	-144(%rbp), %rax
Ltmp2251:
	movq	%rax, -56(%rbp)
	movq	$1, -48(%rbp)
	leaq	-88(%rbp), %rsi
Ltmp2252:
	.loc	6 11 17
	movq	%rbx, %rdi
	callq	__ZN4core3fmt9Formatter9write_fmt17h3dc2bf45afed3069E
	movb	$1, %cl
	.loc	6 11 50 is_stmt 0
	testb	%al, %al
	jne	LBB62_8
Ltmp2253:
	.loc	6 0 0
	movq	(%r15), %xmm0
	pshufd	$212, %xmm0, %xmm0
	movdqa	%xmm0, -112(%rbp)
	xorl	%r14d, %r14d
	leaq	-88(%rbp), %r15
Ltmp2254:
	leaq	l___unnamed_3(%rip), %r13
Ltmp2255:
	.loc	7 1137 52 is_stmt 1
	cmpq	$2, %r14
Ltmp2256:
	.loc	8 211 9
	jne	LBB62_4
	jmp	LBB62_3
Ltmp2257:
	.p2align	4, 0x90
LBB62_6:
	.loc	8 0 9 is_stmt 0
	movdqa	-112(%rbp), %xmm0
Ltmp2258:
	.loc	4 63 36 is_stmt 1
	movdqa	%xmm0, -128(%rbp)
Ltmp2259:
	.loc	6 0 0 is_stmt 0
	leaq	1(%r14), %r12
Ltmp2260:
	.loc	4 63 36
	andl	$1, %r14d
Ltmp2261:
	movl	-128(%rbp,%r14,8), %eax
Ltmp2262:
	.loc	6 16 21 is_stmt 1
	movl	%eax, -88(%rbp)
	movq	%r15, %rdi
	movq	%rbx, %rsi
	callq	__ZN4core3fmt3num53_$LT$impl$u20$core..fmt..LowerHex$u20$for$u20$i32$GT$3fmt17h45ae8797392b15d4E
Ltmp2263:
	.loc	6 0 0 is_stmt 0
	movq	%r12, %r14
Ltmp2264:
	.loc	6 16 43
	testb	%al, %al
	jne	LBB62_7
Ltmp2265:
	.loc	7 1137 52 is_stmt 1
	cmpq	$2, %r14
Ltmp2266:
	.loc	8 211 9
	je	LBB62_3
Ltmp2267:
LBB62_4:
	.loc	6 13 24
	testq	%r14, %r14
	.loc	6 13 21 is_stmt 0
	je	LBB62_6
Ltmp2268:
	.loc	1 328 9 is_stmt 1
	movq	%r13, -88(%rbp)
	movq	$1, -80(%rbp)
	movq	$0, -72(%rbp)
Ltmp2269:
	leaq	l___unnamed_4(%rip), %rax
	movq	%rax, -56(%rbp)
	movq	$0, -48(%rbp)
Ltmp2270:
	.loc	6 14 25
	movq	%rbx, %rdi
	movq	%r15, %rsi
	callq	__ZN4core3fmt9Formatter9write_fmt17h3dc2bf45afed3069E
	.loc	6 14 40 is_stmt 0
	testb	%al, %al
	je	LBB62_6
Ltmp2271:
LBB62_7:
	.loc	6 0 40
	movb	$1, %cl
	jmp	LBB62_8
Ltmp2272:
LBB62_3:
	.loc	1 328 9 is_stmt 1
	leaq	l___unnamed_5(%rip), %rax
Ltmp2273:
	movq	%rax, -88(%rbp)
	movq	$1, -80(%rbp)
	movq	$0, -72(%rbp)
Ltmp2274:
	leaq	l___unnamed_4(%rip), %rax
Ltmp2275:
	movq	%rax, -56(%rbp)
	movq	$0, -48(%rbp)
	leaq	-88(%rbp), %rsi
Ltmp2276:
	.loc	6 18 17
	movq	%rbx, %rdi
	callq	__ZN4core3fmt9Formatter9write_fmt17h3dc2bf45afed3069E
	movl	%eax, %ecx
Ltmp2277:
LBB62_8:
	.loc	6 19 14
	movl	%ecx, %eax
	addq	$104, %rsp
	popq	%rbx
Ltmp2278:
	popq	%r12
	popq	%r13
	popq	%r14
	popq	%r15
	popq	%rbp
	retq
Ltmp2279:
Lfunc_end62:
	.cfi_endproc

	.globl	__ZN11packed_simd3v6499_$LT$impl$u20$core..fmt..UpperHex$u20$for$u20$packed_simd..Simd$LT$$u5b$i32$u3b$$u20$2$u5d$$GT$$GT$3fmt17hfc757367ed7be5bfE
	.p2align	4, 0x90
__ZN11packed_simd3v6499_$LT$impl$u20$core..fmt..UpperHex$u20$for$u20$packed_simd..Simd$LT$$u5b$i32$u3b$$u20$2$u5d$$GT$$GT$3fmt17hfc757367ed7be5bfE:
Lfunc_begin63:
	.loc	9 9 0
	.cfi_startproc
	pushq	%rbp
	.cfi_def_cfa_offset 16
	.cfi_offset %rbp, -16
	movq	%rsp, %rbp
	.cfi_def_cfa_register %rbp
	pushq	%r15
	pushq	%r14
	pushq	%r13
	pushq	%r12
	pushq	%rbx
	subq	$104, %rsp
	.cfi_offset %rbx, -56
	.cfi_offset %r12, -48
	.cfi_offset %r13, -40
	.cfi_offset %r14, -32
	.cfi_offset %r15, -24
	movq	%rsi, %rbx
Ltmp2280:
	movq	%rdi, %r15
Ltmp2281:
	.loc	9 11 17 prologue_end
	leaq	__ZN44_$LT$$RF$T$u20$as$u20$core..fmt..Display$GT$3fmt17h0663b18722df5164E(%rip), %rax
	movq	%rax, %xmm0
	leaq	l___unnamed_20(%rip), %rax
	movq	%rax, %xmm1
	punpcklqdq	%xmm0, %xmm1
	movdqa	%xmm1, -144(%rbp)
Ltmp2282:
	.loc	1 328 9
	leaq	l___unnamed_2(%rip), %rax
Ltmp2283:
	movq	%rax, -88(%rbp)
	movq	$2, -80(%rbp)
	movq	$0, -72(%rbp)
	leaq	-144(%rbp), %rax
Ltmp2284:
	movq	%rax, -56(%rbp)
	movq	$1, -48(%rbp)
	leaq	-88(%rbp), %rsi
Ltmp2285:
	.loc	9 11 17
	movq	%rbx, %rdi
	callq	__ZN4core3fmt9Formatter9write_fmt17h3dc2bf45afed3069E
	movb	$1, %cl
	.loc	9 11 50 is_stmt 0
	testb	%al, %al
	jne	LBB63_8
Ltmp2286:
	.loc	9 0 0
	movq	(%r15), %xmm0
	pshufd	$212, %xmm0, %xmm0
	movdqa	%xmm0, -112(%rbp)
	xorl	%r14d, %r14d
	leaq	-88(%rbp), %r15
Ltmp2287:
	leaq	l___unnamed_3(%rip), %r13
Ltmp2288:
	.loc	7 1137 52 is_stmt 1
	cmpq	$2, %r14
Ltmp2289:
	.loc	8 211 9
	jne	LBB63_4
	jmp	LBB63_3
Ltmp2290:
	.p2align	4, 0x90
LBB63_6:
	.loc	8 0 9 is_stmt 0
	movdqa	-112(%rbp), %xmm0
Ltmp2291:
	.loc	4 63 36 is_stmt 1
	movdqa	%xmm0, -128(%rbp)
Ltmp2292:
	.loc	9 0 0 is_stmt 0
	leaq	1(%r14), %r12
Ltmp2293:
	.loc	4 63 36
	andl	$1, %r14d
Ltmp2294:
	movl	-128(%rbp,%r14,8), %eax
Ltmp2295:
	.loc	9 16 21 is_stmt 1
	movl	%eax, -88(%rbp)
	movq	%r15, %rdi
	movq	%rbx, %rsi
	callq	__ZN4core3fmt3num53_$LT$impl$u20$core..fmt..UpperHex$u20$for$u20$i32$GT$3fmt17h7218a38926162563E
Ltmp2296:
	.loc	9 0 0 is_stmt 0
	movq	%r12, %r14
Ltmp2297:
	.loc	9 16 43
	testb	%al, %al
	jne	LBB63_7
Ltmp2298:
	.loc	7 1137 52 is_stmt 1
	cmpq	$2, %r14
Ltmp2299:
	.loc	8 211 9
	je	LBB63_3
Ltmp2300:
LBB63_4:
	.loc	9 13 24
	testq	%r14, %r14
	.loc	9 13 21 is_stmt 0
	je	LBB63_6
Ltmp2301:
	.loc	1 328 9 is_stmt 1
	movq	%r13, -88(%rbp)
	movq	$1, -80(%rbp)
	movq	$0, -72(%rbp)
Ltmp2302:
	leaq	l___unnamed_4(%rip), %rax
	movq	%rax, -56(%rbp)
	movq	$0, -48(%rbp)
Ltmp2303:
	.loc	9 14 25
	movq	%rbx, %rdi
	movq	%r15, %rsi
	callq	__ZN4core3fmt9Formatter9write_fmt17h3dc2bf45afed3069E
	.loc	9 14 40 is_stmt 0
	testb	%al, %al
	je	LBB63_6
Ltmp2304:
LBB63_7:
	.loc	9 0 40
	movb	$1, %cl
	jmp	LBB63_8
Ltmp2305:
LBB63_3:
	.loc	1 328 9 is_stmt 1
	leaq	l___unnamed_5(%rip), %rax
Ltmp2306:
	movq	%rax, -88(%rbp)
	movq	$1, -80(%rbp)
	movq	$0, -72(%rbp)
Ltmp2307:
	leaq	l___unnamed_4(%rip), %rax
Ltmp2308:
	movq	%rax, -56(%rbp)
	movq	$0, -48(%rbp)
	leaq	-88(%rbp), %rsi
Ltmp2309:
	.loc	9 18 17
	movq	%rbx, %rdi
	callq	__ZN4core3fmt9Formatter9write_fmt17h3dc2bf45afed3069E
	movl	%eax, %ecx
Ltmp2310:
LBB63_8:
	.loc	9 19 14
	movl	%ecx, %eax
	addq	$104, %rsp
	popq	%rbx
Ltmp2311:
	popq	%r12
	popq	%r13
	popq	%r14
	popq	%r15
	popq	%rbp
	retq
Ltmp2312:
Lfunc_end63:
	.cfi_endproc

	.globl	__ZN11packed_simd3v6496_$LT$impl$u20$core..fmt..Octal$u20$for$u20$packed_simd..Simd$LT$$u5b$i32$u3b$$u20$2$u5d$$GT$$GT$3fmt17h3a229470c4990b5cE
	.p2align	4, 0x90
__ZN11packed_simd3v6496_$LT$impl$u20$core..fmt..Octal$u20$for$u20$packed_simd..Simd$LT$$u5b$i32$u3b$$u20$2$u5d$$GT$$GT$3fmt17h3a229470c4990b5cE:
Lfunc_begin64:
	.loc	10 9 0
	.cfi_startproc
	pushq	%rbp
	.cfi_def_cfa_offset 16
	.cfi_offset %rbp, -16
	movq	%rsp, %rbp
	.cfi_def_cfa_register %rbp
	pushq	%r15
	pushq	%r14
	pushq	%r13
	pushq	%r12
	pushq	%rbx
	subq	$104, %rsp
	.cfi_offset %rbx, -56
	.cfi_offset %r12, -48
	.cfi_offset %r13, -40
	.cfi_offset %r14, -32
	.cfi_offset %r15, -24
	movq	%rsi, %rbx
Ltmp2313:
	movq	%rdi, %r15
Ltmp2314:
	.loc	10 11 17 prologue_end
	leaq	__ZN44_$LT$$RF$T$u20$as$u20$core..fmt..Display$GT$3fmt17h0663b18722df5164E(%rip), %rax
	movq	%rax, %xmm0
	leaq	l___unnamed_20(%rip), %rax
	movq	%rax, %xmm1
	punpcklqdq	%xmm0, %xmm1
	movdqa	%xmm1, -144(%rbp)
Ltmp2315:
	.loc	1 328 9
	leaq	l___unnamed_2(%rip), %rax
Ltmp2316:
	movq	%rax, -88(%rbp)
	movq	$2, -80(%rbp)
	movq	$0, -72(%rbp)
	leaq	-144(%rbp), %rax
Ltmp2317:
	movq	%rax, -56(%rbp)
	movq	$1, -48(%rbp)
	leaq	-88(%rbp), %rsi
Ltmp2318:
	.loc	10 11 17
	movq	%rbx, %rdi
	callq	__ZN4core3fmt9Formatter9write_fmt17h3dc2bf45afed3069E
	movb	$1, %cl
	.loc	10 11 50 is_stmt 0
	testb	%al, %al
	jne	LBB64_8
Ltmp2319:
	.loc	10 0 0
	movq	(%r15), %xmm0
	pshufd	$212, %xmm0, %xmm0
	movdqa	%xmm0, -112(%rbp)
	xorl	%r14d, %r14d
	leaq	-88(%rbp), %r15
Ltmp2320:
	leaq	l___unnamed_3(%rip), %r13
Ltmp2321:
	.loc	7 1137 52 is_stmt 1
	cmpq	$2, %r14
Ltmp2322:
	.loc	8 211 9
	jne	LBB64_4
	jmp	LBB64_3
Ltmp2323:
	.p2align	4, 0x90
LBB64_6:
	.loc	8 0 9 is_stmt 0
	movdqa	-112(%rbp), %xmm0
Ltmp2324:
	.loc	4 63 36 is_stmt 1
	movdqa	%xmm0, -128(%rbp)
Ltmp2325:
	.loc	10 0 0 is_stmt 0
	leaq	1(%r14), %r12
Ltmp2326:
	.loc	4 63 36
	andl	$1, %r14d
Ltmp2327:
	movl	-128(%rbp,%r14,8), %eax
Ltmp2328:
	.loc	10 16 21 is_stmt 1
	movl	%eax, -88(%rbp)
	movq	%r15, %rdi
	movq	%rbx, %rsi
	callq	__ZN4core3fmt3num50_$LT$impl$u20$core..fmt..Octal$u20$for$u20$i32$GT$3fmt17hb51310b4177e3f85E
Ltmp2329:
	.loc	10 0 0 is_stmt 0
	movq	%r12, %r14
Ltmp2330:
	.loc	10 16 43
	testb	%al, %al
	jne	LBB64_7
Ltmp2331:
	.loc	7 1137 52 is_stmt 1
	cmpq	$2, %r14
Ltmp2332:
	.loc	8 211 9
	je	LBB64_3
Ltmp2333:
LBB64_4:
	.loc	10 13 24
	testq	%r14, %r14
	.loc	10 13 21 is_stmt 0
	je	LBB64_6
Ltmp2334:
	.loc	1 328 9 is_stmt 1
	movq	%r13, -88(%rbp)
	movq	$1, -80(%rbp)
	movq	$0, -72(%rbp)
Ltmp2335:
	leaq	l___unnamed_4(%rip), %rax
	movq	%rax, -56(%rbp)
	movq	$0, -48(%rbp)
Ltmp2336:
	.loc	10 14 25
	movq	%rbx, %rdi
	movq	%r15, %rsi
	callq	__ZN4core3fmt9Formatter9write_fmt17h3dc2bf45afed3069E
	.loc	10 14 40 is_stmt 0
	testb	%al, %al
	je	LBB64_6
Ltmp2337:
LBB64_7:
	.loc	10 0 40
	movb	$1, %cl
	jmp	LBB64_8
Ltmp2338:
LBB64_3:
	.loc	1 328 9 is_stmt 1
	leaq	l___unnamed_5(%rip), %rax
Ltmp2339:
	movq	%rax, -88(%rbp)
	movq	$1, -80(%rbp)
	movq	$0, -72(%rbp)
Ltmp2340:
	leaq	l___unnamed_4(%rip), %rax
Ltmp2341:
	movq	%rax, -56(%rbp)
	movq	$0, -48(%rbp)
	leaq	-88(%rbp), %rsi
Ltmp2342:
	.loc	10 18 17
	movq	%rbx, %rdi
	callq	__ZN4core3fmt9Formatter9write_fmt17h3dc2bf45afed3069E
	movl	%eax, %ecx
Ltmp2343:
LBB64_8:
	.loc	10 19 14
	movl	%ecx, %eax
	addq	$104, %rsp
	popq	%rbx
Ltmp2344:
	popq	%r12
	popq	%r13
	popq	%r14
	popq	%r15
	popq	%rbp
	retq
Ltmp2345:
Lfunc_end64:
	.cfi_endproc

	.globl	__ZN11packed_simd3v6497_$LT$impl$u20$core..fmt..Binary$u20$for$u20$packed_simd..Simd$LT$$u5b$i32$u3b$$u20$2$u5d$$GT$$GT$3fmt17h9aa5bdb88967c9efE
	.p2align	4, 0x90
__ZN11packed_simd3v6497_$LT$impl$u20$core..fmt..Binary$u20$for$u20$packed_simd..Simd$LT$$u5b$i32$u3b$$u20$2$u5d$$GT$$GT$3fmt17h9aa5bdb88967c9efE:
Lfunc_begin65:
	.loc	11 9 0
	.cfi_startproc
	pushq	%rbp
