	.section	__TEXT,__text,regular,pure_instructions
	.macosx_version_min 10, 7
	.p2align	4, 0x90
__ZN42_$LT$$RF$T$u20$as$u20$core..fmt..Debug$GT$3fmt17h210aa246cdabac09E:
Lfunc_begin0:
	.file	1 "/rustc/6c8927b0cf80ceee19386026cf9d7fd4fd9d486f/src/libcore/fmt/mod.rs"
	.loc	1 2022 0
	.cfi_startproc
	pushq	%rbp
	.cfi_def_cfa_offset 16
	.cfi_offset %rbp, -16
	movq	%rsp, %rbp
	.cfi_def_cfa_register %rbp
Ltmp0:
	pushq	%r15
	pushq	%r14
	pushq	%r13
	pushq	%r12
	pushq	%rbx
	subq	$24, %rsp
	.cfi_offset %rbx, -56
	.cfi_offset %r12, -48
	.cfi_offset %r13, -40
	.cfi_offset %r14, -32
	.cfi_offset %r15, -24
	.loc	1 2022 71 prologue_end
	movq	(%rdi), %rbx
Ltmp1:
	.loc	1 0 71 is_stmt 0
	leaq	-64(%rbp), %r12
Ltmp2:
	.loc	1 2211 9 is_stmt 1
	movq	%r12, %rdi
Ltmp3:
	callq	__ZN4core3fmt9Formatter10debug_list17h113a4e31f24f00d7E
Ltmp4:
	.file	2 "/rustc/6c8927b0cf80ceee19386026cf9d7fd4fd9d486f/src/libcore/ptr/mut_ptr.rs"
	.loc	2 165 18
	leaq	4(%rbx), %r13
Ltmp5:
	.file	3 "/rustc/6c8927b0cf80ceee19386026cf9d7fd4fd9d486f/src/libcore/fmt/builders.rs"
	.loc	3 661 22
	movq	%rbx, -48(%rbp)
Ltmp6:
	.loc	3 662 13
	leaq	l___unnamed_3(%rip), %r14
	leaq	-48(%rbp), %r15
	movq	%r12, %rdi
	movq	%r15, %rsi
	movq	%r14, %rdx
	callq	__ZN4core3fmt8builders9DebugList5entry17h2dea26f6c644471aE
Ltmp7:
	.loc	3 661 22
	movq	%r13, -48(%rbp)
Ltmp8:
	.loc	3 662 13
	movq	%r12, %rdi
	movq	%r15, %rsi
	movq	%r14, %rdx
	callq	__ZN4core3fmt8builders9DebugList5entry17h2dea26f6c644471aE
Ltmp9:
	.loc	2 165 18
	leaq	8(%rbx), %rax
Ltmp10:
	addq	$12, %rbx
Ltmp11:
	.loc	3 661 22
	movq	%rax, -48(%rbp)
Ltmp12:
	.loc	3 662 13
	movq	%r12, %rdi
	movq	%r15, %rsi
	movq	%r14, %rdx
	callq	__ZN4core3fmt8builders9DebugList5entry17h2dea26f6c644471aE
Ltmp13:
	.loc	3 661 22
	movq	%rbx, -48(%rbp)
Ltmp14:
	.loc	3 662 13
	movq	%r12, %rdi
	movq	%r15, %rsi
	movq	%r14, %rdx
	callq	__ZN4core3fmt8builders9DebugList5entry17h2dea26f6c644471aE
Ltmp15:
	.loc	1 2211 9
	movq	%r12, %rdi
	callq	__ZN4core3fmt8builders9DebugList6finish17h1537bc92ee1acb1cE
Ltmp16:
	.loc	1 2022 84
	addq	$24, %rsp
	popq	%rbx
Ltmp17:
	popq	%r12
	popq	%r13
	popq	%r14
	popq	%r15
	popq	%rbp
	retq
Ltmp18:
Lfunc_end0:
	.cfi_endproc
	.file	4 "/rustc/6c8927b0cf80ceee19386026cf9d7fd4fd9d486f/src/libcore/array/mod.rs"
	.file	5 "/rustc/6c8927b0cf80ceee19386026cf9d7fd4fd9d486f/src/libcore/slice/mod.rs"

	.p2align	4, 0x90
__ZN42_$LT$$RF$T$u20$as$u20$core..fmt..Debug$GT$3fmt17h5154aadd1a21694fE:
Lfunc_begin1:
	.loc	1 2022 0
	.cfi_startproc
	pushq	%rbp
	.cfi_def_cfa_offset 16
	.cfi_offset %rbp, -16
	movq	%rsp, %rbp
	.cfi_def_cfa_register %rbp
Ltmp19:
	pushq	%r14
	pushq	%rbx
	subq	$32, %rsp
	.cfi_offset %rbx, -32
	.cfi_offset %r14, -24
	.loc	1 2022 71 prologue_end
	movq	(%rdi), %rbx
Ltmp20:
	.loc	1 0 71 is_stmt 0
	leaq	-40(%rbp), %r14
Ltmp21:
	.loc	1 2211 9 is_stmt 1
	movq	%r14, %rdi
Ltmp22:
	callq	__ZN4core3fmt9Formatter10debug_list17h113a4e31f24f00d7E
Ltmp23:
	.loc	3 661 22
	movq	%rbx, -24(%rbp)
Ltmp24:
	.loc	3 662 13
	leaq	l___unnamed_1(%rip), %rdx
	leaq	-24(%rbp), %rsi
	movq	%r14, %rdi
	callq	__ZN4core3fmt8builders9DebugList5entry17h2dea26f6c644471aE
Ltmp25:
	.loc	1 2211 9
	movq	%r14, %rdi
	callq	__ZN4core3fmt8builders9DebugList6finish17h1537bc92ee1acb1cE
Ltmp26:
	.loc	1 2022 84
	addq	$32, %rsp
	popq	%rbx
	popq	%r14
	popq	%rbp
	retq
Ltmp27:
Lfunc_end1:
	.cfi_endproc

	.p2align	4, 0x90
__ZN42_$LT$$RF$T$u20$as$u20$core..fmt..Debug$GT$3fmt17h84179fce5bdfe738E:
Lfunc_begin2:
	.loc	1 2022 0
	.cfi_startproc
	pushq	%rbp
	.cfi_def_cfa_offset 16
	.cfi_offset %rbp, -16
	movq	%rsp, %rbp
	.cfi_def_cfa_register %rbp
	pushq	%r14
	pushq	%rbx
	.cfi_offset %rbx, -32
	.cfi_offset %r14, -24
	movq	%rsi, %rbx
Ltmp28:
	.loc	1 2022 71 prologue_end
	movq	(%rdi), %r14
Ltmp29:
	.file	6 "/rustc/6c8927b0cf80ceee19386026cf9d7fd4fd9d486f/src/libcore/fmt/num.rs"
	.loc	6 149 20
	movq	%rsi, %rdi
Ltmp30:
	callq	__ZN4core3fmt9Formatter15debug_lower_hex17hd07f6fde8d0365dfE
	.loc	6 149 17 is_stmt 0
	testb	%al, %al
	je	LBB2_1
Ltmp31:
	.loc	6 150 21 is_stmt 1
	movq	%r14, %rdi
	movq	%rbx, %rsi
	popq	%rbx
Ltmp32:
	popq	%r14
Ltmp33:
	popq	%rbp
	jmp	__ZN4core3fmt3num53_$LT$impl$u20$core..fmt..LowerHex$u20$for$u20$u32$GT$3fmt17h019ba2b9dd60d385E
LBB2_1:
Ltmp34:
	.loc	6 151 27
	movq	%rbx, %rdi
	callq	__ZN4core3fmt9Formatter15debug_upper_hex17hf480c256a9c81c1eE
	.loc	6 154 21
	movq	%r14, %rdi
	movq	%rbx, %rsi
	.loc	6 151 24
	testb	%al, %al
	je	LBB2_4
Ltmp35:
	.loc	6 152 21
	popq	%rbx
Ltmp36:
	popq	%r14
Ltmp37:
	popq	%rbp
	jmp	__ZN4core3fmt3num53_$LT$impl$u20$core..fmt..UpperHex$u20$for$u20$u32$GT$3fmt17h7bd10b5f3c9584f1E
LBB2_4:
Ltmp38:
	.loc	6 154 21
	popq	%rbx
Ltmp39:
	popq	%r14
Ltmp40:
	popq	%rbp
	jmp	__ZN4core3fmt3num3imp52_$LT$impl$u20$core..fmt..Display$u20$for$u20$u32$GT$3fmt17hb70882cf65fd1a66E
Ltmp41:
Lfunc_end2:
	.cfi_endproc

	.p2align	4, 0x90
__ZN42_$LT$$RF$T$u20$as$u20$core..fmt..Debug$GT$3fmt17hd5a30b9dc08d66ceE:
Lfunc_begin3:
	.loc	1 2022 0
	.cfi_startproc
	pushq	%rbp
	.cfi_def_cfa_offset 16
	.cfi_offset %rbp, -16
	movq	%rsp, %rbp
	.cfi_def_cfa_register %rbp
Ltmp42:
	pushq	%r15
	pushq	%r14
	pushq	%r12
	pushq	%rbx
	subq	$32, %rsp
	.cfi_offset %rbx, -48
	.cfi_offset %r12, -40
	.cfi_offset %r14, -32
	.cfi_offset %r15, -24
	.loc	1 2022 71 prologue_end
	movq	(%rdi), %rbx
Ltmp43:
	.loc	1 0 71 is_stmt 0
	leaq	-56(%rbp), %r12
Ltmp44:
	.loc	1 2211 9 is_stmt 1
	movq	%r12, %rdi
Ltmp45:
	callq	__ZN4core3fmt9Formatter10debug_list17h113a4e31f24f00d7E
Ltmp46:
	.loc	3 661 22
	movq	%rbx, -40(%rbp)
Ltmp47:
	.loc	2 165 18
	addq	$8, %rbx
Ltmp48:
	.loc	3 662 13
	leaq	l___unnamed_2(%rip), %r14
	leaq	-40(%rbp), %r15
	movq	%r12, %rdi
	movq	%r15, %rsi
	movq	%r14, %rdx
	callq	__ZN4core3fmt8builders9DebugList5entry17h2dea26f6c644471aE
Ltmp49:
	.loc	3 661 22
	movq	%rbx, -40(%rbp)
Ltmp50:
	.loc	3 662 13
	movq	%r12, %rdi
	movq	%r15, %rsi
	movq	%r14, %rdx
	callq	__ZN4core3fmt8builders9DebugList5entry17h2dea26f6c644471aE
Ltmp51:
	.loc	1 2211 9
	movq	%r12, %rdi
	callq	__ZN4core3fmt8builders9DebugList6finish17h1537bc92ee1acb1cE
Ltmp52:
	.loc	1 2022 84
	addq	$32, %rsp
	popq	%rbx
Ltmp53:
	popq	%r12
	popq	%r14
	popq	%r15
	popq	%rbp
	retq
Ltmp54:
Lfunc_end3:
	.cfi_endproc

	.p2align	4, 0x90
__ZN42_$LT$$RF$T$u20$as$u20$core..fmt..Debug$GT$3fmt17hde3308c006d697e9E:
Lfunc_begin4:
	.loc	1 2022 0
	.cfi_startproc
	pushq	%rbp
	.cfi_def_cfa_offset 16
	.cfi_offset %rbp, -16
	movq	%rsp, %rbp
	.cfi_def_cfa_register %rbp
	pushq	%r14
	pushq	%rbx
	.cfi_offset %rbx, -32
	.cfi_offset %r14, -24
	movq	%rsi, %rbx
Ltmp55:
	.loc	1 2022 71 prologue_end
	movq	(%rdi), %r14
Ltmp56:
	.loc	6 149 20
	movq	%rsi, %rdi
Ltmp57:
	callq	__ZN4core3fmt9Formatter15debug_lower_hex17hd07f6fde8d0365dfE
	.loc	6 149 17 is_stmt 0
	testb	%al, %al
	je	LBB4_1
Ltmp58:
	.loc	6 150 21 is_stmt 1
	movq	%r14, %rdi
	movq	%rbx, %rsi
	popq	%rbx
Ltmp59:
	popq	%r14
Ltmp60:
	popq	%rbp
	jmp	__ZN4core3fmt3num54_$LT$impl$u20$core..fmt..LowerHex$u20$for$u20$u128$GT$3fmt17h84f117995f1e5668E
LBB4_1:
Ltmp61:
	.loc	6 151 27
	movq	%rbx, %rdi
	callq	__ZN4core3fmt9Formatter15debug_upper_hex17hf480c256a9c81c1eE
	.loc	6 154 21
	movq	%r14, %rdi
	movq	%rbx, %rsi
	.loc	6 151 24
	testb	%al, %al
	je	LBB4_4
Ltmp62:
	.loc	6 152 21
	popq	%rbx
Ltmp63:
	popq	%r14
Ltmp64:
	popq	%rbp
	jmp	__ZN4core3fmt3num54_$LT$impl$u20$core..fmt..UpperHex$u20$for$u20$u128$GT$3fmt17h8dde6d7b2c12fcdfE
LBB4_4:
Ltmp65:
	.loc	6 154 21
	popq	%rbx
Ltmp66:
	popq	%r14
Ltmp67:
	popq	%rbp
	jmp	__ZN4core3fmt3num53_$LT$impl$u20$core..fmt..Display$u20$for$u20$u128$GT$3fmt17h24a40e99587872eaE
Ltmp68:
Lfunc_end4:
	.cfi_endproc

	.p2align	4, 0x90
__ZN42_$LT$$RF$T$u20$as$u20$core..fmt..Debug$GT$3fmt17heee3a423ff2c15dfE:
Lfunc_begin5:
	.loc	1 2022 0
	.cfi_startproc
	pushq	%rbp
	.cfi_def_cfa_offset 16
	.cfi_offset %rbp, -16
	movq	%rsp, %rbp
	.cfi_def_cfa_register %rbp
	pushq	%r14
	pushq	%rbx
	.cfi_offset %rbx, -32
	.cfi_offset %r14, -24
	movq	%rsi, %rbx
Ltmp69:
	.loc	1 2022 71 prologue_end
	movq	(%rdi), %r14
Ltmp70:
	.loc	6 149 20
	movq	%rsi, %rdi
Ltmp71:
	callq	__ZN4core3fmt9Formatter15debug_lower_hex17hd07f6fde8d0365dfE
	.loc	6 149 17 is_stmt 0
	testb	%al, %al
	je	LBB5_1
Ltmp72:
	.loc	6 150 21 is_stmt 1
	movq	%r14, %rdi
	movq	%rbx, %rsi
	popq	%rbx
Ltmp73:
	popq	%r14
Ltmp74:
	popq	%rbp
	jmp	__ZN4core3fmt3num53_$LT$impl$u20$core..fmt..LowerHex$u20$for$u20$u64$GT$3fmt17hb1b2554e6a6ce90cE
LBB5_1:
Ltmp75:
	.loc	6 151 27
	movq	%rbx, %rdi
	callq	__ZN4core3fmt9Formatter15debug_upper_hex17hf480c256a9c81c1eE
	.loc	6 154 21
	movq	%r14, %rdi
	movq	%rbx, %rsi
	.loc	6 151 24
	testb	%al, %al
	je	LBB5_4
Ltmp76:
	.loc	6 152 21
	popq	%rbx
Ltmp77:
	popq	%r14
Ltmp78:
	popq	%rbp
	jmp	__ZN4core3fmt3num53_$LT$impl$u20$core..fmt..UpperHex$u20$for$u20$u64$GT$3fmt17h67a4ddf8c7fd5f2bE
LBB5_4:
Ltmp79:
	.loc	6 154 21
	popq	%rbx
Ltmp80:
	popq	%r14
Ltmp81:
	popq	%rbp
	jmp	__ZN4core3fmt3num3imp52_$LT$impl$u20$core..fmt..Display$u20$for$u20$u64$GT$3fmt17h3230c9bc78e30ed1E
Ltmp82:
Lfunc_end5:
	.cfi_endproc

	.p2align	4, 0x90
__ZN4core3ptr13drop_in_place17h03250a8a65fe8678E:
Lfunc_begin6:
	.file	7 "/rustc/6c8927b0cf80ceee19386026cf9d7fd4fd9d486f/src/libcore/ptr/mod.rs"
	.loc	7 184 0
	.cfi_startproc
	pushq	%rbp
	.cfi_def_cfa_offset 16
	.cfi_offset %rbp, -16
	movq	%rsp, %rbp
	.cfi_def_cfa_register %rbp
Ltmp83:
	.loc	7 184 1 prologue_end
	popq	%rbp
	retq
Ltmp84:
Lfunc_end6:
	.cfi_endproc

	.globl	__ZN10ppv_lite867generic17rotate_u128_right17h8f1b9b465451f8d8E
	.p2align	4, 0x90
__ZN10ppv_lite867generic17rotate_u128_right17h8f1b9b465451f8d8E:
Lfunc_begin7:
	.file	8 "/Users/yingyuhang/.cargo/registry/src/github.com-1ecc6299db9ec823/ppv-lite86-0.2.8/src/generic.rs"
	.loc	8 368 0
	.cfi_startproc
	pushq	%rbp
	.cfi_def_cfa_offset 16
	.cfi_offset %rbp, -16
	movq	%rsp, %rbp
	.cfi_def_cfa_register %rbp
	movl	%edx, %ecx
Ltmp85:
	.loc	8 369 5 prologue_end
	movq	%rdi, %rax
	shrdq	%cl, %rsi, %rax
	movq	%rsi, %r8
	shrq	%cl, %r8
	xorl	%edx, %edx
	testb	$64, %cl
	cmovneq	%r8, %rax
	cmoveq	%r8, %rdx
	cmpl	$127, %ecx
	ja	LBB7_3
Ltmp86:
	.loc	8 369 16 is_stmt 0
	testl	%ecx, %ecx
	je	LBB7_4
Ltmp87:
	.loc	8 0 16
	movb	$-128, %r8b
	.loc	8 369 16
	subb	%cl, %r8b
	movl	%r8d, %ecx
Ltmp88:
	shldq	%cl, %rdi, %rsi
Ltmp89:
	shlq	%cl, %rdi
Ltmp90:
	.loc	8 0 16
	xorl	%ecx, %ecx
	.loc	8 369 16
	testb	$64, %r8b
	cmovneq	%rdi, %rsi
	cmoveq	%rdi, %rcx
	.loc	8 369 5
	orq	%rsi, %rdx
	orq	%rcx, %rax
	.loc	8 370 2 is_stmt 1
	popq	%rbp
	retq
LBB7_3:
Ltmp91:
	.loc	8 369 5
	leaq	_str.0(%rip), %rdi
Ltmp92:
	leaq	l___unnamed_7(%rip), %rdx
	movl	$36, %esi
Ltmp93:
	callq	__ZN4core9panicking5panic17h383a6b80ea7021aaE
Ltmp94:
LBB7_4:
	.loc	8 369 16 is_stmt 0
	leaq	_str.2(%rip), %rdi
Ltmp95:
	leaq	l___unnamed_8(%rip), %rdx
	movl	$35, %esi
Ltmp96:
	callq	__ZN4core9panicking5panic17h383a6b80ea7021aaE
Ltmp97:
Lfunc_end7:
	.cfi_endproc

	.globl	__ZN71_$LT$ppv_lite86..generic..u32x4_generic$u20$as$u20$core..fmt..Debug$GT$3fmt17h44ba8d59ac53d180E
	.p2align	4, 0x90
__ZN71_$LT$ppv_lite86..generic..u32x4_generic$u20$as$u20$core..fmt..Debug$GT$3fmt17h44ba8d59ac53d180E:
Lfunc_begin8:
	.loc	8 437 0 is_stmt 1
	.cfi_startproc
	pushq	%rbp
	.cfi_def_cfa_offset 16
	.cfi_offset %rbp, -16
	movq	%rsp, %rbp
	.cfi_def_cfa_register %rbp
	pushq	%r14
	pushq	%rbx
	subq	$32, %rsp
	.cfi_offset %rbx, -32
	.cfi_offset %r14, -24
	movq	%rdi, %rbx
Ltmp98:
	.loc	8 437 23 prologue_end
	leaq	l___unnamed_9(%rip), %rdx
	leaq	-48(%rbp), %r14
	movl	$13, %ecx
	movq	%r14, %rdi
	callq	__ZN4core3fmt9Formatter11debug_tuple17h6c448643801d07e8E
Ltmp99:
	.loc	8 438 26
	movq	%rbx, -24(%rbp)
	.loc	8 437 23
	leaq	l___unnamed_4(%rip), %rdx
	leaq	-24(%rbp), %rsi
	movq	%r14, %rdi
	callq	__ZN4core3fmt8builders10DebugTuple5field17hc7b676d0e36b51d9E
	movq	%r14, %rdi
	callq	__ZN4core3fmt8builders10DebugTuple6finish17h9f206806f7096c33E
Ltmp100:
	.loc	8 437 28 is_stmt 0
	addq	$32, %rsp
	popq	%rbx
Ltmp101:
	popq	%r14
	popq	%rbp
	retq
Ltmp102:
Lfunc_end8:
	.cfi_endproc

	.globl	__ZN71_$LT$ppv_lite86..generic..u64x2_generic$u20$as$u20$core..fmt..Debug$GT$3fmt17h7f1c80889cb67b94E
	.p2align	4, 0x90
__ZN71_$LT$ppv_lite86..generic..u64x2_generic$u20$as$u20$core..fmt..Debug$GT$3fmt17h7f1c80889cb67b94E:
Lfunc_begin9:
	.loc	8 439 0 is_stmt 1
	.cfi_startproc
	pushq	%rbp
	.cfi_def_cfa_offset 16
	.cfi_offset %rbp, -16
	movq	%rsp, %rbp
	.cfi_def_cfa_register %rbp
	pushq	%r14
	pushq	%rbx
	subq	$32, %rsp
	.cfi_offset %rbx, -32
	.cfi_offset %r14, -24
	movq	%rdi, %rbx
Ltmp103:
	.loc	8 439 23 prologue_end
	leaq	l___unnamed_10(%rip), %rdx
	leaq	-48(%rbp), %r14
	movl	$13, %ecx
	movq	%r14, %rdi
	callq	__ZN4core3fmt9Formatter11debug_tuple17h6c448643801d07e8E
Ltmp104:
	.loc	8 440 26
	movq	%rbx, -24(%rbp)
	.loc	8 439 23
	leaq	l___unnamed_5(%rip), %rdx
	leaq	-24(%rbp), %rsi
	movq	%r14, %rdi
	callq	__ZN4core3fmt8builders10DebugTuple5field17hc7b676d0e36b51d9E
	movq	%r14, %rdi
	callq	__ZN4core3fmt8builders10DebugTuple6finish17h9f206806f7096c33E
Ltmp105:
	.loc	8 439 28 is_stmt 0
	addq	$32, %rsp
	popq	%rbx
Ltmp106:
	popq	%r14
	popq	%rbp
	retq
Ltmp107:
Lfunc_end9:
	.cfi_endproc

	.globl	__ZN72_$LT$ppv_lite86..generic..u128x1_generic$u20$as$u20$core..fmt..Debug$GT$3fmt17h49307955ff234c7eE
	.p2align	4, 0x90
__ZN72_$LT$ppv_lite86..generic..u128x1_generic$u20$as$u20$core..fmt..Debug$GT$3fmt17h49307955ff234c7eE:
Lfunc_begin10:
	.loc	8 441 0 is_stmt 1
	.cfi_startproc
	pushq	%rbp
	.cfi_def_cfa_offset 16
	.cfi_offset %rbp, -16
	movq	%rsp, %rbp
	.cfi_def_cfa_register %rbp
	pushq	%r14
	pushq	%rbx
	subq	$32, %rsp
	.cfi_offset %rbx, -32
	.cfi_offset %r14, -24
	movq	%rdi, %rbx
Ltmp108:
	.loc	8 441 23 prologue_end
	leaq	l___unnamed_11(%rip), %rdx
	leaq	-48(%rbp), %r14
	movl	$14, %ecx
	movq	%r14, %rdi
	callq	__ZN4core3fmt9Formatter11debug_tuple17h6c448643801d07e8E
Ltmp109:
	.loc	8 442 27
	movq	%rbx, -24(%rbp)
	.loc	8 441 23
	leaq	l___unnamed_6(%rip), %rdx
	leaq	-24(%rbp), %rsi
	movq	%r14, %rdi
	callq	__ZN4core3fmt8builders10DebugTuple5field17hc7b676d0e36b51d9E
	movq	%r14, %rdi
	callq	__ZN4core3fmt8builders10DebugTuple6finish17h9f206806f7096c33E
Ltmp110:
	.loc	8 441 28 is_stmt 0
	addq	$32, %rsp
	popq	%rbx
Ltmp111:
	popq	%r14
	popq	%rbp
	retq
Ltmp112:
Lfunc_end10:
	.cfi_endproc

	.section	__DATA,__const
	.p2align	3
l___unnamed_1:
	.quad	__ZN4core3ptr13drop_in_place17h03250a8a65fe8678E
	.quad	8
	.quad	8
	.quad	__ZN42_$LT$$RF$T$u20$as$u20$core..fmt..Debug$GT$3fmt17hde3308c006d697e9E

	.p2align	3
l___unnamed_2:
	.quad	__ZN4core3ptr13drop_in_place17h03250a8a65fe8678E
	.quad	8
	.quad	8
	.quad	__ZN42_$LT$$RF$T$u20$as$u20$core..fmt..Debug$GT$3fmt17heee3a423ff2c15dfE

	.p2align	3
l___unnamed_3:
	.quad	__ZN4core3ptr13drop_in_place17h03250a8a65fe8678E
	.quad	8
	.quad	8
	.quad	__ZN42_$LT$$RF$T$u20$as$u20$core..fmt..Debug$GT$3fmt17h84179fce5bdfe738E

	.section	__TEXT,__const
l___unnamed_12:
	.ascii	"/Users/yingyuhang/.cargo/registry/src/github.com-1ecc6299db9ec823/ppv-lite86-0.2.8/src/generic.rs"

	.section	__DATA,__const
	.p2align	3
l___unnamed_7:
	.quad	l___unnamed_12
	.asciz	"a\000\000\000\000\000\000\000q\001\000\000\005\000\000"

	.section	__TEXT,__const
	.p2align	4
_str.0:
	.ascii	"attempt to shift right with overflow"

	.section	__DATA,__const
	.p2align	3
l___unnamed_8:
	.quad	l___unnamed_12
	.asciz	"a\000\000\000\000\000\000\000q\001\000\000\020\000\000"

	.section	__TEXT,__const
	.p2align	4
_str.2:
	.ascii	"attempt to shift left with overflow"

l___unnamed_9:
	.ascii	"u32x4_generic"

	.section	__DATA,__const
	.p2align	3
l___unnamed_4:
	.quad	__ZN4core3ptr13drop_in_place17h03250a8a65fe8678E
	.quad	8
	.quad	8
	.quad	__ZN42_$LT$$RF$T$u20$as$u20$core..fmt..Debug$GT$3fmt17h210aa246cdabac09E

	.section	__TEXT,__const
l___unnamed_10:
	.ascii	"u64x2_generic"

	.section	__DATA,__const
	.p2align	3
l___unnamed_5:
	.quad	__ZN4core3ptr13drop_in_place17h03250a8a65fe8678E
	.quad	8
	.quad	8
	.quad	__ZN42_$LT$$RF$T$u20$as$u20$core..fmt..Debug$GT$3fmt17hd5a30b9dc08d66ceE

	.section	__TEXT,__const
l___unnamed_11:
	.ascii	"u128x1_generic"

	.section	__DATA,__const
	.p2align	3
l___unnamed_6:
	.quad	__ZN4core3ptr13drop_in_place17h03250a8a65fe8678E
	.quad	8
	.quad	8
	.quad	__ZN42_$LT$$RF$T$u20$as$u20$core..fmt..Debug$GT$3fmt17h5154aadd1a21694fE

	.section	__DATA,__const
Lsec_end0:
	.section	__TEXT,__text,regular,pure_instructions
Lsec_end1: