	.section	__TEXT,__text,regular,pure_instructions
	.macosx_version_min 10, 7
	.file	1 "/Users/yingyuhang/.cargo/registry/src/github.com-1ecc6299db9ec823/proc-macro2-1.0.18/src/detection.rs"
	.p2align	4, 0x90
__ZN100_$LT$alloc..string..String$u20$as$u20$core..ops..index..Index$LT$core..ops..range..RangeFull$GT$$GT$5index17hac52c41f90c64a6dE:
Lfunc_begin0:
	.file	2 "/rustc/6c8927b0cf80ceee19386026cf9d7fd4fd9d486f/src/liballoc/string.rs"
	.loc	2 2063 0
	.cfi_startproc
	pushq	%rbp
	.cfi_def_cfa_offset 16
	.cfi_offset %rbp, -16
	movq	%rsp, %rbp
	.cfi_def_cfa_register %rbp
	subq	$64, %rsp
	movq	%rdi, -16(%rbp)
	movq	%rsi, -24(%rbp)
Ltmp0:
	.loc	2 2064 43 prologue_end
	callq	__ZN68_$LT$alloc..vec..Vec$LT$T$GT$$u20$as$u20$core..ops..deref..Deref$GT$5deref17h1d1c6b86233583ebE
	movq	%rax, -32(%rbp)
	movq	%rdx, -40(%rbp)
	.loc	2 0 43 is_stmt 0
	movq	-32(%rbp), %rdi
	movq	-40(%rbp), %rsi
	.loc	2 2064 18
	callq	__ZN4core3str19from_utf8_unchecked17h94b85b8b05acd286E
	movq	%rax, -48(%rbp)
	movq	%rdx, -56(%rbp)
	.loc	2 0 18
	movq	-48(%rbp), %rax
	movq	-56(%rbp), %rdx
	.loc	2 2065 6 is_stmt 1
	addq	$64, %rsp
	popq	%rbp
	retq
Ltmp1:
Lfunc_end0:
	.cfi_endproc

	.globl	__ZN101_$LT$core..ops..range..RangeTo$LT$usize$GT$$u20$as$u20$core..slice..SliceIndex$LT$$u5b$T$u5d$$GT$$GT$5index17h5629a9c21e4598f4E
	.p2align	4, 0x90
__ZN101_$LT$core..ops..range..RangeTo$LT$usize$GT$$u20$as$u20$core..slice..SliceIndex$LT$$u5b$T$u5d$$GT$$GT$5index17h5629a9c21e4598f4E:
Lfunc_begin1:
	.file	3 "/rustc/6c8927b0cf80ceee19386026cf9d7fd4fd9d486f/src/libcore/slice/mod.rs"
	.loc	3 3213 0
	.cfi_startproc
	pushq	%rbp
	.cfi_def_cfa_offset 16
	.cfi_offset %rbp, -16
	movq	%rsp, %rbp
	.cfi_def_cfa_register %rbp
	subq	$80, %rsp
	movq	%rdi, -24(%rbp)
	movq	%rsi, -16(%rbp)
	movq	%rdx, -8(%rbp)
Ltmp2:
	.loc	3 3214 9 prologue_end
	movq	$0, -40(%rbp)
	movq	%rdi, -32(%rbp)
	movq	-40(%rbp), %rdi
	movq	-32(%rbp), %rax
	movq	%rsi, -48(%rbp)
	movq	%rax, %rsi
	movq	-48(%rbp), %rax
	movq	%rdx, -56(%rbp)
	movq	%rax, %rdx
	movq	-56(%rbp), %r8
	movq	%rcx, -64(%rbp)
	movq	%r8, %rcx
	movq	-64(%rbp), %r8
	callq	__ZN99_$LT$core..ops..range..Range$LT$usize$GT$$u20$as$u20$core..slice..SliceIndex$LT$$u5b$T$u5d$$GT$$GT$5index17h780ea4bcc2d80ed4E
	movq	%rax, -72(%rbp)
	movq	%rdx, -80(%rbp)
	.loc	3 0 9 is_stmt 0
	movq	-72(%rbp), %rax
	movq	-80(%rbp), %rdx
	.loc	3 3215 6 is_stmt 1
	addq	$80, %rsp
	popq	%rbp
	retq
Ltmp3:
Lfunc_end1:
	.cfi_endproc

	.globl	__ZN101_$LT$core..ops..range..RangeTo$LT$usize$GT$$u20$as$u20$core..slice..SliceIndex$LT$$u5b$T$u5d$$GT$$GT$9index_mut17h9ff22ba6128ac403E
	.p2align	4, 0x90
__ZN101_$LT$core..ops..range..RangeTo$LT$usize$GT$$u20$as$u20$core..slice..SliceIndex$LT$$u5b$T$u5d$$GT$$GT$9index_mut17h9ff22ba6128ac403E:
Lfunc_begin2:
	.loc	3 3218 0
	.cfi_startproc
	pushq	%rbp
	.cfi_def_cfa_offset 16
	.cfi_offset %rbp, -16
	movq	%rsp, %rbp
	.cfi_def_cfa_register %rbp
	subq	$80, %rsp
	movq	%rdi, -24(%rbp)
	movq	%rsi, -16(%rbp)
	movq	%rdx, -8(%rbp)
Ltmp4:
	.loc	3 3219 9 prologue_end
	movq	$0, -40(%rbp)
	movq	%rdi, -32(%rbp)
	movq	-40(%rbp), %rdi
	movq	-32(%rbp), %rax
	movq	%rsi, -48(%rbp)
	movq	%rax, %rsi
	movq	-48(%rbp), %rax
	movq	%rdx, -56(%rbp)
	movq	%rax, %rdx
	movq	-56(%rbp), %r8
	movq	%rcx, -64(%rbp)
	movq	%r8, %rcx
	movq	-64(%rbp), %r8
	callq	__ZN99_$LT$core..ops..range..Range$LT$usize$GT$$u20$as$u20$core..slice..SliceIndex$LT$$u5b$T$u5d$$GT$$GT$9index_mut17he1d01a28636fbc58E
	movq	%rax, -72(%rbp)
	movq	%rdx, -80(%rbp)
	.loc	3 0 9 is_stmt 0
	movq	-72(%rbp), %rax
	movq	-80(%rbp), %rdx
	.loc	3 3220 6 is_stmt 1
	addq	$80, %rsp
	popq	%rbp
	retq
Ltmp5:
Lfunc_end2:
	.cfi_endproc

	.globl	__ZN106_$LT$core..iter..adapters..chain..Chain$LT$A$C$B$GT$$u20$as$u20$core..iter..traits..iterator..Iterator$GT$4fold17h35a92e468de05704E
	.p2align	4, 0x90
__ZN106_$LT$core..iter..adapters..chain..Chain$LT$A$C$B$GT$$u20$as$u20$core..iter..traits..iterator..Iterator$GT$4fold17h35a92e468de05704E:
Lfunc_begin3:
	.file	4 "/rustc/6c8927b0cf80ceee19386026cf9d7fd4fd9d486f/src/libcore/iter/adapters/chain.rs"
	.loc	4 107 0
	.cfi_startproc
	.cfi_personality 155, _rust_eh_personality
	.cfi_lsda 16, Lexception0
	pushq	%rbp
	.cfi_def_cfa_offset 16
	.cfi_offset %rbp, -16
	movq	%rsp, %rbp
	.cfi_def_cfa_register %rbp
	subq	$144, %rsp
	movq	%rsi, -128(%rbp)
Ltmp14:
	.loc	4 111 9 prologue_end
	movb	$0, -18(%rbp)
	movb	$0, -17(%rbp)
	movb	$0, -19(%rbp)
	movb	$1, -19(%rbp)
	movb	$1, -18(%rbp)
	movb	$1, -17(%rbp)
	.loc	4 111 16 is_stmt 0
	movl	40(%rdi), %eax
	movl	%eax, %ecx
	cmpq	$1, %rcx
	movq	%rdi, -144(%rbp)
Ltmp15:
	je	LBB3_3
	jmp	LBB3_2
Ltmp16:
LBB3_1:
	.loc	4 107 5 is_stmt 1
	movq	-16(%rbp), %rdi
	callq	__Unwind_Resume
	ud2
Ltmp17:
LBB3_2:
	.loc	4 111 9
	jmp	LBB3_6
Ltmp18:
LBB3_3:
	.loc	4 111 21 is_stmt 0
	movb	$0, -18(%rbp)
	movq	-144(%rbp), %rax
	movl	44(%rax), %ecx
	movl	%ecx, -120(%rbp)
Ltmp19:
	.loc	4 112 19 is_stmt 1
	movl	-120(%rbp), %ecx
	movl	%ecx, -112(%rbp)
	movl	-112(%rbp), %edi
Ltmp6:
	leaq	-128(%rbp), %rsi
	callq	__ZN4core4iter6traits8iterator8Iterator4fold17h156c1fa5d2851e51E
Ltmp7:
	jmp	LBB3_4
Ltmp20:
LBB3_4:
	.loc	4 111 9
	jmp	LBB3_6
Ltmp21:
LBB3_5:
	.loc	4 0 9 is_stmt 0
	movq	-144(%rbp), %rax
	.loc	4 118 5 is_stmt 1
	movl	40(%rax), %ecx
	movl	%ecx, %edx
	cmpq	$1, %rdx
	je	LBB3_15
	jmp	LBB3_14
Ltmp22:
LBB3_6:
	.loc	4 0 5 is_stmt 0
	xorl	%eax, %eax
	movl	%eax, %ecx
	movq	-144(%rbp), %rdx
	.loc	4 114 16 is_stmt 1
	cmpq	$0, 16(%rdx)
	movl	$1, %esi
	cmovbeq	%rcx, %rsi
	cmpq	$1, %rsi
	je	LBB3_8
Ltmp23:
	.loc	4 114 9 is_stmt 0
	jmp	LBB3_10
Ltmp24:
LBB3_8:
	.loc	4 114 21
	movb	$0, -19(%rbp)
	movq	-144(%rbp), %rax
	movq	32(%rax), %rcx
	movq	%rcx, -72(%rbp)
	movq	24(%rax), %rcx
	movq	%rcx, -80(%rbp)
	movq	16(%rax), %rcx
	movq	%rcx, -88(%rbp)
	movq	(%rax), %rcx
	movq	8(%rax), %rdx
	movq	%rdx, -96(%rbp)
	movq	%rcx, -104(%rbp)
Ltmp25:
	.loc	4 115 19 is_stmt 1
	movq	-72(%rbp), %rcx
	movq	%rcx, -32(%rbp)
	movq	-80(%rbp), %rcx
	movq	%rcx, -40(%rbp)
	movq	-88(%rbp), %rcx
	movq	%rcx, -48(%rbp)
	movq	-104(%rbp), %rcx
	movq	-96(%rbp), %rdx
	movq	%rdx, -56(%rbp)
	movq	%rcx, -64(%rbp)
	.loc	4 115 31 is_stmt 0
	movb	$0, -17(%rbp)
	movq	-128(%rbp), %rsi
Ltmp8:
	leaq	-64(%rbp), %rdi
	.loc	4 115 19
	callq	__ZN97_$LT$core..iter..adapters..Map$LT$I$C$F$GT$$u20$as$u20$core..iter..traits..iterator..Iterator$GT$4fold17hc62df73b164d9d78E
Ltmp9:
	jmp	LBB3_9
Ltmp26:
LBB3_9:
	.loc	4 114 9 is_stmt 1
	jmp	LBB3_10
Ltmp27:
LBB3_10:
	.loc	4 118 5
	testb	$1, -17(%rbp)
	jne	LBB3_19
Ltmp28:
LBB3_11:
	.loc	4 0 5 is_stmt 0
	movq	-144(%rbp), %rax
	.loc	4 118 5
	movl	40(%rax), %ecx
	movl	%ecx, %edx
	cmpq	$1, %rdx
	je	LBB3_27
	jmp	LBB3_25
Ltmp29:
LBB3_12:
	testb	$1, -19(%rbp)
	je	LBB3_1
Ltmp30:
	movb	$0, -19(%rbp)
	movq	-144(%rbp), %rax
	movq	%rax, %rdi
	callq	__ZN4core3ptr13drop_in_place17h1361f351e4ba93a0E
	jmp	LBB3_1
Ltmp31:
LBB3_14:
	.loc	4 0 5
	xorl	%eax, %eax
	movl	%eax, %ecx
	movq	-144(%rbp), %rdx
	.loc	4 118 5
	cmpq	$0, 16(%rdx)
	movl	$1, %esi
	cmovbeq	%rcx, %rsi
	cmpq	$1, %rsi
	je	LBB3_12
	jmp	LBB3_1
Ltmp32:
LBB3_15:
	testb	$1, -18(%rbp)
	je	LBB3_14
Ltmp33:
	movb	$0, -18(%rbp)
	movq	-144(%rbp), %rax
	addq	$40, %rax
	addq	$4, %rax
	movq	%rax, %rdi
	callq	__ZN4core3ptr13drop_in_place17hd07edd9179718de5E
	jmp	LBB3_14
Ltmp34:
LBB3_17:
	movb	$0, -17(%rbp)
	jmp	LBB3_5
Ltmp35:
LBB3_18:
	testb	$1, -17(%rbp)
	jne	LBB3_17
	jmp	LBB3_5
Ltmp36:
LBB3_19:
	movb	$0, -17(%rbp)
	jmp	LBB3_11
Ltmp37:
LBB3_20:
	testb	$1, -19(%rbp)
	je	LBB3_1
Ltmp38:
	movb	$0, -19(%rbp)
	movq	-144(%rbp), %rax
	movq	%rax, %rdi
	callq	__ZN4core3ptr13drop_in_place17h1361f351e4ba93a0E
	jmp	LBB3_1
Ltmp39:
LBB3_22:
	.loc	4 118 6
	addq	$144, %rsp
	popq	%rbp
	retq
Ltmp40:
LBB3_23:
	.loc	4 118 5
	testb	$1, -19(%rbp)
	je	LBB3_22
Ltmp41:
	movb	$0, -19(%rbp)
	movq	-144(%rbp), %rax
	movq	%rax, %rdi
	callq	__ZN4core3ptr13drop_in_place17h1361f351e4ba93a0E
	jmp	LBB3_22
Ltmp42:
LBB3_25:
	.loc	4 0 5
	xorl	%eax, %eax
	movl	%eax, %ecx
	movq	-144(%rbp), %rdx
	.loc	4 118 5
	cmpq	$0, 16(%rdx)
	movl	$1, %esi
	cmovbeq	%rcx, %rsi
	cmpq	$1, %rsi
	je	LBB3_23
	jmp	LBB3_22
Ltmp43:
LBB3_26:
	.loc	4 0 5
	xorl	%eax, %eax
	movl	%eax, %ecx
	movq	-144(%rbp), %rdx
	.loc	4 118 5
	cmpq	$0, 16(%rdx)
	movl	$1, %esi
	cmovbeq	%rcx, %rsi
	cmpq	$1, %rsi
	je	LBB3_20
	jmp	LBB3_1
Ltmp44:
LBB3_27:
	testb	$1, -18(%rbp)
	je	LBB3_25
Ltmp45:
	movb	$0, -18(%rbp)
	movq	-144(%rbp), %rax
	addq	$44, %rax
Ltmp11:
	movq	%rax, %rdi
	callq	__ZN4core3ptr13drop_in_place17hd07edd9179718de5E
Ltmp12:
	jmp	LBB3_25
Ltmp46:
LBB3_29:
Ltmp10:
	.loc	4 0 5
	movq	%rax, -16(%rbp)
	movl	%edx, -8(%rbp)
	jmp	LBB3_18
Ltmp47:
LBB3_30:
Ltmp13:
	movq	%rax, -16(%rbp)
	movl	%edx, -8(%rbp)
	jmp	LBB3_26
Lfunc_end3:
	.cfi_endproc
	.section	__TEXT,__gcc_except_tab
	.p2align	2
GCC_except_table3:
Lexception0:
	.byte	255
	.byte	255
	.byte	1
	.uleb128 Lcst_end0-Lcst_begin0
Lcst_begin0:
	.uleb128 Lfunc_begin3-Lfunc_begin3
	.uleb128 Ltmp6-Lfunc_begin3
	.byte	0
	.byte	0
	.uleb128 Ltmp6-Lfunc_begin3
	.uleb128 Ltmp9-Ltmp6
	.uleb128 Ltmp10-Lfunc_begin3
	.byte	0
	.uleb128 Ltmp9-Lfunc_begin3
	.uleb128 Ltmp11-Ltmp9
	.byte	0
	.byte	0
	.uleb128 Ltmp11-Lfunc_begin3
	.uleb128 Ltmp12-Ltmp11
	.uleb128 Ltmp13-Lfunc_begin3
	.byte	0
Lcst_end0:
	.p2align	2

	.section	__TEXT,__text,regular,pure_instructions
	.globl	__ZN108_$LT$alloc..vec..Vec$LT$T$GT$$u20$as$u20$alloc..vec..SpecExtend$LT$T$C$alloc..vec..IntoIter$LT$T$GT$$GT$$GT$11spec_extend17hf70e050e924c0292E
	.p2align	4, 0x90
__ZN108_$LT$alloc..vec..Vec$LT$T$GT$$u20$as$u20$alloc..vec..SpecExtend$LT$T$C$alloc..vec..IntoIter$LT$T$GT$$GT$$GT$11spec_extend17hf70e050e924c0292E:
Lfunc_begin4:
	.file	5 "/rustc/6c8927b0cf80ceee19386026cf9d7fd4fd9d486f/src/liballoc/vec.rs"
	.loc	5 2168 0 is_stmt 1
	.cfi_startproc
	.cfi_personality 155, _rust_eh_personality
	.cfi_lsda 16, Lexception1
	pushq	%rbp
	.cfi_def_cfa_offset 16
	.cfi_offset %rbp, -16
	movq	%rsp, %rbp
	.cfi_def_cfa_register %rbp
	subq	$64, %rsp
	movq	%rdi, -24(%rbp)
Ltmp48:
	movq	%rdi, -32(%rbp)
Ltmp53:
	.loc	5 2170 34 prologue_end
	movq	%rsi, %rdi
	movq	%rsi, -40(%rbp)
Ltmp54:
	callq	__ZN5alloc3vec17IntoIter$LT$T$GT$8as_slice17he48067fb189afe6cE
Ltmp49:
	movq	%rdx, -48(%rbp)
	movq	%rax, -56(%rbp)
	jmp	LBB4_2
Ltmp55:
LBB4_1:
	.loc	5 2168 5
	movq	-16(%rbp), %rdi
	callq	__Unwind_Resume
	ud2
Ltmp56:
LBB4_2:
Ltmp50:
	.loc	5 0 5 is_stmt 0
	movq	-32(%rbp), %rdi
	movq	-56(%rbp), %rsi
	movq	-48(%rbp), %rdx
	.loc	5 2170 13 is_stmt 1
	callq	__ZN5alloc3vec12Vec$LT$T$GT$15append_elements17h83fa870530e4dc65E
Ltmp51:
	jmp	LBB4_4
Ltmp57:
LBB4_3:
	.loc	5 0 13 is_stmt 0
	movq	-40(%rbp), %rdi
	.loc	5 2173 5 is_stmt 1
	callq	__ZN4core3ptr13drop_in_place17h708987e038b747dbE
	jmp	LBB4_1
Ltmp58:
LBB4_4:
	.loc	5 0 5 is_stmt 0
	movq	-40(%rbp), %rax
	.loc	5 2172 24 is_stmt 1
	movq	24(%rax), %rcx
	.loc	5 2172 9 is_stmt 0
	movq	%rcx, 16(%rax)
	.loc	5 2173 5 is_stmt 1
	movq	%rax, %rdi
	callq	__ZN4core3ptr13drop_in_place17h708987e038b747dbE
Ltmp59:
	.loc	5 2173 6 is_stmt 0
	addq	$64, %rsp
	popq	%rbp
	retq
Ltmp60:
LBB4_6:
Ltmp52:
	.loc	5 0 6
	movq	%rax, -16(%rbp)
	movl	%edx, -8(%rbp)
	jmp	LBB4_3
Lfunc_end4:
	.cfi_endproc
	.section	__TEXT,__gcc_except_tab
	.p2align	2
GCC_except_table4:
Lexception1:
	.byte	255
	.byte	255
	.byte	1
	.uleb128 Lcst_end1-Lcst_begin1
Lcst_begin1:
	.uleb128 Ltmp48-Lfunc_begin4
	.uleb128 Ltmp49-Ltmp48
	.uleb128 Ltmp52-Lfunc_begin4
	.byte	0
	.uleb128 Ltmp49-Lfunc_begin4
	.uleb128 Ltmp50-Ltmp49
	.byte	0
	.byte	0
	.uleb128 Ltmp50-Lfunc_begin4
	.uleb128 Ltmp51-Ltmp50
	.uleb128 Ltmp52-Lfunc_begin4
	.byte	0
	.uleb128 Ltmp51-Lfunc_begin4
	.uleb128 Lfunc_end4-Ltmp51
	.byte	0
	.byte	0
Lcst_end1:
	.p2align	2

	.section	__TEXT,__text,regular,pure_instructions
	.globl	__ZN108_$LT$proc_macro..TokenStream$u20$as$u20$core..iter..traits..collect..Extend$LT$proc_macro..TokenTree$GT$$GT$6extend17h930c5aa31b38ddb8E
	.p2align	4, 0x90
__ZN108_$LT$proc_macro..TokenStream$u20$as$u20$core..iter..traits..collect..Extend$LT$proc_macro..TokenTree$GT$$GT$6extend17h930c5aa31b38ddb8E:
Lfunc_begin5:
	.file	6 "/rustc/6c8927b0cf80ceee19386026cf9d7fd4fd9d486f/src/libproc_macro/lib.rs"
	.loc	6 207 0 is_stmt 1
	.cfi_startproc
	pushq	%rbp
	.cfi_def_cfa_offset 16
	.cfi_offset %rbp, -16
	movq	%rsp, %rbp
	.cfi_def_cfa_register %rbp
	subq	$144, %rsp
	movq	%rdi, -8(%rbp)
Ltmp61:
	.loc	6 208 21 prologue_end
	leaq	-48(%rbp), %rax
	movq	%rax, %rcx
	movq	%rdi, -136(%rbp)
	movq	%rcx, %rdi
	movl	$40, %edx
	movq	%rax, -144(%rbp)
	callq	_memcpy
Ltmp62:
	leaq	-88(%rbp), %rdi
	movq	-144(%rbp), %rsi
	callq	__ZN63_$LT$I$u20$as$u20$core..iter..traits..collect..IntoIterator$GT$9into_iter17h12e547a1493712edE
	leaq	-128(%rbp), %rdi
	leaq	-88(%rbp), %rsi
	callq	__ZN4core4iter6traits8iterator8Iterator3map17hda868fbec79c2237E
	.loc	6 0 21 is_stmt 0
	movq	-136(%rbp), %rdi
	.loc	6 208 9
	leaq	-128(%rbp), %rsi
	callq	__ZN110_$LT$proc_macro..TokenStream$u20$as$u20$core..iter..traits..collect..Extend$LT$proc_macro..TokenStream$GT$$GT$6extend17h80b023383ba75d19E
	.loc	6 209 6 is_stmt 1
	addq	$144, %rsp
	popq	%rbp
	retq
Ltmp63:
Lfunc_end5:
	.cfi_endproc

	.globl	__ZN109_$LT$alloc..vec..Vec$LT$T$GT$$u20$as$u20$alloc..vec..SpecExtend$LT$$RF$T$C$core..slice..Iter$LT$T$GT$$GT$$GT$11spec_extend17h8f0f02e7c11fe988E
	.p2align	4, 0x90
__ZN109_$LT$alloc..vec..Vec$LT$T$GT$$u20$as$u20$alloc..vec..SpecExtend$LT$$RF$T$C$core..slice..Iter$LT$T$GT$$GT$$GT$11spec_extend17h8f0f02e7c11fe988E:
Lfunc_begin6:
	.loc	5 2194 0
	.cfi_startproc
	pushq	%rbp
	.cfi_def_cfa_offset 16
	.cfi_offset %rbp, -16
	movq	%rsp, %rbp
	.cfi_def_cfa_register %rbp
	subq	$160, %rsp
	movq	%rsi, -64(%rbp)
	movq	%rdx, -56(%rbp)
	movq	%rdi, -48(%rbp)
Ltmp64:
	.loc	5 2195 21 prologue_end
	leaq	-64(%rbp), %rax
Ltmp65:
	.loc	5 0 21 is_stmt 0
	movq	%rdi, -72(%rbp)
	.loc	5 2195 21
	movq	%rax, %rdi
	callq	__ZN4core5slice13Iter$LT$T$GT$8as_slice17h907b45161b921954E
Ltmp66:
	movq	%rax, -40(%rbp)
	movq	%rdx, -32(%rbp)
	movq	%rax, -80(%rbp)
	movq	%rdx, -88(%rbp)
	.loc	5 0 21
	movq	-80(%rbp), %rdi
	movq	-88(%rbp), %rsi
Ltmp67:
	.loc	5 2196 22 is_stmt 1
	callq	__ZN4core5slice29_$LT$impl$u20$$u5b$T$u5d$$GT$3len17h486ca3fc336839a0E
	movq	%rax, -96(%rbp)
	.loc	5 0 22 is_stmt 0
	movq	-72(%rbp), %rdi
	movq	-96(%rbp), %rsi
	.loc	5 2196 9
	callq	__ZN5alloc3vec12Vec$LT$T$GT$7reserve17hea22f0405884bd11E
	.loc	5 0 9
	movq	-72(%rbp), %rdi
	.loc	5 2198 23 is_stmt 1
	callq	__ZN5alloc3vec12Vec$LT$T$GT$3len17h9eeb63deae19d7a6E
	movq	%rax, -24(%rbp)
	movq	%rax, -104(%rbp)
	.loc	5 0 23 is_stmt 0
	movq	-72(%rbp), %rdi
Ltmp68:
	.loc	5 2199 55 is_stmt 1
	callq	__ZN5alloc3vec12Vec$LT$T$GT$10as_mut_ptr17h4de8ebe4d11ca2ecE
	movq	%rax, -112(%rbp)
	.loc	5 0 55 is_stmt 0
	movq	-112(%rbp), %rdi
	movq	-104(%rbp), %rsi
	.loc	5 2199 55
	callq	__ZN4core3ptr7mut_ptr31_$LT$impl$u20$$BP$mut$u20$T$GT$3add17hd2e8369661e2d844E
	movq	%rax, -120(%rbp)
	.loc	5 0 55
	movq	-80(%rbp), %rdi
	movq	-88(%rbp), %rsi
	.loc	5 2199 83
	callq	__ZN4core5slice29_$LT$impl$u20$$u5b$T$u5d$$GT$3len17h486ca3fc336839a0E
	movq	%rax, -128(%rbp)
	.loc	5 0 83
	movq	-120(%rbp), %rdi
	movq	-128(%rbp), %rsi
	.loc	5 2199 29
	callq	__ZN4core5slice18from_raw_parts_mut17he08e3fda61bb4039E
	movq	%rax, -16(%rbp)
	movq	%rdx, -8(%rbp)
	movq	%rax, -136(%rbp)
	movq	%rdx, -144(%rbp)
	.loc	5 0 29
	movq	-136(%rbp), %rdi
	movq	-144(%rbp), %rsi
	movq	-80(%rbp), %rdx
	movq	-88(%rbp), %rcx
Ltmp69:
	.loc	5 2200 13 is_stmt 1
	callq	__ZN4core5slice29_$LT$impl$u20$$u5b$T$u5d$$GT$15copy_from_slice17ha56709902ba3b505E
	.loc	5 0 13 is_stmt 0
	movq	-80(%rbp), %rdi
	movq	-88(%rbp), %rsi
	.loc	5 2201 32 is_stmt 1
	callq	__ZN4core5slice29_$LT$impl$u20$$u5b$T$u5d$$GT$3len17h486ca3fc336839a0E
	movq	%rax, -152(%rbp)
	.loc	5 0 32 is_stmt 0
	movq	-104(%rbp), %rax
	movq	-152(%rbp), %rcx
	.loc	5 2201 26
	addq	%rcx, %rax
	movq	-72(%rbp), %rdi
	.loc	5 2201 13
	movq	%rax, %rsi
	callq	__ZN5alloc3vec12Vec$LT$T$GT$7set_len17h4e8149f85ed70312E
Ltmp70:
	.loc	5 2203 6 is_stmt 1
	addq	$160, %rsp
	popq	%rbp
	retq
Ltmp71:
Lfunc_end6:
	.cfi_endproc

	.globl	__ZN110_$LT$proc_macro..TokenStream$u20$as$u20$core..iter..traits..collect..Extend$LT$proc_macro..TokenStream$GT$$GT$6extend17h80b023383ba75d19E
	.p2align	4, 0x90
__ZN110_$LT$proc_macro..TokenStream$u20$as$u20$core..iter..traits..collect..Extend$LT$proc_macro..TokenStream$GT$$GT$6extend17h80b023383ba75d19E:
Lfunc_begin7:
	.loc	6 214 0
	.cfi_startproc
	.cfi_personality 155, _rust_eh_personality
	.cfi_lsda 16, Lexception2
	pushq	%rbp
	.cfi_def_cfa_offset 16
	.cfi_offset %rbp, -16
	movq	%rsp, %rbp
	.cfi_def_cfa_register %rbp
	subq	$208, %rsp
	movq	%rdi, -40(%rbp)
Ltmp86:
	.loc	6 216 17 prologue_end
	movb	$0, -41(%rbp)
	movb	$1, -41(%rbp)
Ltmp72:
	movq	%rdi, -176(%rbp)
	movq	%rsi, -184(%rbp)
Ltmp87:
	.loc	6 216 47 is_stmt 0
	callq	__ZN10proc_macro11TokenStream3new17h5639692116516cb4E
Ltmp73:
	movl	%eax, -188(%rbp)
	jmp	LBB7_2
Ltmp88:
LBB7_1:
	.loc	6 214 5 is_stmt 1
	movq	-32(%rbp), %rdi
	callq	__Unwind_Resume
	ud2
Ltmp89:
LBB7_2:
	.loc	6 0 5 is_stmt 0
	movl	-188(%rbp), %eax
	.loc	6 216 47 is_stmt 1
	movl	%eax, -16(%rbp)
	movl	-16(%rbp), %ecx
	movl	%ecx, -96(%rbp)
	.loc	6 216 28 is_stmt 0
	movl	-96(%rbp), %esi
Ltmp74:
	movq	-176(%rbp), %rdi
	callq	__ZN4core3mem7replace17hb4e2acb5338f7514E
Ltmp75:
	movl	%eax, -192(%rbp)
	jmp	LBB7_3
Ltmp90:
LBB7_3:
	.loc	6 0 28
	movl	-192(%rbp), %eax
	.loc	6 216 28
	movl	%eax, -12(%rbp)
	movl	-12(%rbp), %ecx
	movl	%ecx, -104(%rbp)
	.loc	6 216 17
	movl	-104(%rbp), %edi
Ltmp76:
	callq	__ZN4core4iter7sources4once17h4f8fb34b75dbac7bE
Ltmp77:
	movl	%eax, -196(%rbp)
	jmp	LBB7_4
Ltmp91:
LBB7_4:
	.loc	6 0 17
	movl	-196(%rbp), %eax
	.loc	6 216 17
	movl	%eax, -8(%rbp)
	movl	-8(%rbp), %ecx
	movl	%ecx, -112(%rbp)
	.loc	6 216 67
	movb	$0, -41(%rbp)
	movq	-184(%rbp), %rdx
	movq	32(%rdx), %rsi
	movq	%rsi, -56(%rbp)
	movq	24(%rdx), %rsi
	movq	%rsi, -64(%rbp)
	movq	16(%rdx), %rsi
	movq	%rsi, -72(%rbp)
	movq	(%rdx), %rsi
	movq	8(%rdx), %rdi
	movq	%rdi, -80(%rbp)
	movq	%rsi, -88(%rbp)
	.loc	6 216 17
	movl	-112(%rbp), %esi
Ltmp78:
	leaq	-160(%rbp), %rdi
	leaq	-88(%rbp), %rdx
	callq	__ZN4core4iter6traits8iterator8Iterator5chain17h9b14b27d4d8a4a9aE
Ltmp79:
	jmp	LBB7_5
Ltmp92:
LBB7_5:
Ltmp80:
	.loc	6 0 17
	leaq	-160(%rbp), %rdi
	.loc	6 216 17
	callq	__ZN4core4iter6traits8iterator8Iterator7collect17h54ce2cedeaa37bf6E
Ltmp81:
	movl	%eax, -200(%rbp)
	jmp	LBB7_6
Ltmp93:
LBB7_6:
	.loc	6 0 17
	movl	-200(%rbp), %eax
	.loc	6 216 17
	movl	%eax, -4(%rbp)
	movl	-4(%rbp), %ecx
	movl	%ecx, -168(%rbp)
Ltmp83:
	movq	-176(%rbp), %rdi
	.loc	6 216 9
	callq	__ZN4core3ptr13drop_in_place17had009a0e6ed3f2eeE
Ltmp84:
	jmp	LBB7_10
Ltmp94:
LBB7_7:
	.loc	6 217 5 is_stmt 1
	movb	$0, -41(%rbp)
	movq	-184(%rbp), %rdi
	callq	__ZN4core3ptr13drop_in_place17h1361f351e4ba93a0E
	jmp	LBB7_1
Ltmp95:
LBB7_8:
	testb	$1, -41(%rbp)
	jne	LBB7_7
	jmp	LBB7_1
Ltmp96:
LBB7_9:
	.loc	6 216 9
	movl	-168(%rbp), %eax
	movq	-176(%rbp), %rcx
	movl	%eax, (%rcx)
	jmp	LBB7_8
Ltmp97:
LBB7_10:
	movl	-168(%rbp), %eax
	movq	-176(%rbp), %rcx
	movl	%eax, (%rcx)
	.loc	6 217 6
	addq	$208, %rsp
	popq	%rbp
	retq
Ltmp98:
LBB7_11:
Ltmp82:
	.loc	6 0 6 is_stmt 0
	movq	%rax, -32(%rbp)
	movl	%edx, -24(%rbp)
	jmp	LBB7_8
Ltmp99:
LBB7_12:
Ltmp85:
	movq	%rax, -32(%rbp)
	movl	%edx, -24(%rbp)
	jmp	LBB7_9
Lfunc_end7:
	.cfi_endproc
	.section	__TEXT,__gcc_except_tab
	.p2align	2
GCC_except_table7:
Lexception2:
	.byte	255
	.byte	255
	.byte	1
	.uleb128 Lcst_end2-Lcst_begin2
Lcst_begin2:
	.uleb128 Ltmp72-Lfunc_begin7
	.uleb128 Ltmp73-Ltmp72
	.uleb128 Ltmp82-Lfunc_begin7
	.byte	0
	.uleb128 Ltmp73-Lfunc_begin7
	.uleb128 Ltmp74-Ltmp73
	.byte	0
	.byte	0
	.uleb128 Ltmp74-Lfunc_begin7
	.uleb128 Ltmp81-Ltmp74
	.uleb128 Ltmp82-Lfunc_begin7
	.byte	0
	.uleb128 Ltmp83-Lfunc_begin7
	.uleb128 Ltmp84-Ltmp83
	.uleb128 Ltmp85-Lfunc_begin7
	.byte	0
	.uleb128 Ltmp84-Lfunc_begin7
	.uleb128 Lfunc_end7-Ltmp84
	.byte	0
	.byte	0
Lcst_end2:
	.p2align	2

	.section	__TEXT,__text,regular,pure_instructions
	.p2align	4, 0x90
__ZN113_$LT$alloc..string..String$u20$as$u20$core..ops..index..Index$LT$core..ops..range..RangeFrom$LT$usize$GT$$GT$$GT$5index17h20825e389cf73ae7E:
Lfunc_begin8:
	.loc	2 2054 0 is_stmt 1
	.cfi_startproc
	pushq	%rbp
	.cfi_def_cfa_offset 16
	.cfi_offset %rbp, -16
	movq	%rsp, %rbp
	.cfi_def_cfa_register %rbp
	subq	$64, %rsp
	movq	%rdi, -16(%rbp)
	movq	%rsi, -8(%rbp)
	movq	%rsi, -24(%rbp)
Ltmp100:
	.loc	2 2055 10 prologue_end
	movq	%rdx, %rsi
	movq	%rdx, -32(%rbp)
	callq	__ZN100_$LT$alloc..string..String$u20$as$u20$core..ops..index..Index$LT$core..ops..range..RangeFull$GT$$GT$5index17hac52c41f90c64a6dE
	movq	%rax, -40(%rbp)
	movq	%rdx, -48(%rbp)
	.loc	2 0 10 is_stmt 0
	movq	-40(%rbp), %rdi
	movq	-48(%rbp), %rsi
	movq	-24(%rbp), %rdx
	movq	-32(%rbp), %rcx
	.loc	2 2055 10
	callq	__ZN4core3str6traits66_$LT$impl$u20$core..ops..index..Index$LT$I$GT$$u20$for$u20$str$GT$5index17hb4e5d2663708b7daE
	movq	%rax, -56(%rbp)
	movq	%rdx, -64(%rbp)
	.loc	2 0 10
	movq	-56(%rbp), %rax
	movq	-64(%rbp), %rdx
	.loc	2 2056 6 is_stmt 1
	addq	$64, %rsp
	popq	%rbp
	retq
Ltmp101:
Lfunc_end8:
	.cfi_endproc

	.globl	__ZN116_$LT$proc_macro..TokenStream$u20$as$u20$core..iter..traits..collect..FromIterator$LT$proc_macro..TokenStream$GT$$GT$9from_iter17hca8d005bb8638ee3E
	.p2align	4, 0x90
__ZN116_$LT$proc_macro..TokenStream$u20$as$u20$core..iter..traits..collect..FromIterator$LT$proc_macro..TokenStream$GT$$GT$9from_iter17hca8d005bb8638ee3E:
Lfunc_begin9:
	.loc	6 198 0
	.cfi_startproc
	.cfi_personality 155, _rust_eh_personality
	.cfi_lsda 16, Lexception3
	pushq	%rbp
	.cfi_def_cfa_offset 16
	.cfi_offset %rbp, -16
	movq	%rsp, %rbp
	.cfi_def_cfa_register %rbp
	subq	$176, %rsp
Ltmp112:
	.loc	6 199 13 prologue_end
	movb	$0, -26(%rbp)
	movb	$0, -25(%rbp)
	movb	$1, -26(%rbp)
Ltmp102:
	movq	%rdi, -168(%rbp)
Ltmp113:
	.loc	6 199 27 is_stmt 0
	callq	__ZN10proc_macro6bridge6client18TokenStreamBuilder3new17h2996254515710a72E
Ltmp103:
	movl	%eax, -172(%rbp)
	jmp	LBB9_2
Ltmp114:
LBB9_1:
	.loc	6 198 5 is_stmt 1
	movq	-24(%rbp), %rdi
	callq	__Unwind_Resume
	ud2
Ltmp115:
LBB9_2:
	.loc	6 0 5 is_stmt 0
	movl	-172(%rbp), %eax
	.loc	6 199 27 is_stmt 1
	movl	%eax, -8(%rbp)
	movl	-8(%rbp), %ecx
	movl	%ecx, -152(%rbp)
Ltmp116:
	.loc	6 200 9
	movb	$1, -25(%rbp)
	movb	$0, -26(%rbp)
	movq	-168(%rbp), %rdx
	movq	40(%rdx), %rsi
	movq	%rsi, -56(%rbp)
	movq	32(%rdx), %rsi
	movq	%rsi, -64(%rbp)
	movq	24(%rdx), %rsi
	movq	%rsi, -72(%rbp)
	movq	16(%rdx), %rsi
	movq	%rsi, -80(%rbp)
	movq	(%rdx), %rsi
	movq	8(%rdx), %rdi
	movq	%rdi, -88(%rbp)
	movq	%rsi, -96(%rbp)
Ltmp105:
	leaq	-144(%rbp), %rdi
	leaq	-96(%rbp), %rsi
	callq	__ZN63_$LT$I$u20$as$u20$core..iter..traits..collect..IntoIterator$GT$9into_iter17h66f35b799685616cE
Ltmp106:
	jmp	LBB9_3
Ltmp117:
LBB9_3:
	.loc	6 0 9 is_stmt 0
	leaq	-152(%rbp), %rax
	.loc	6 200 38
	movq	%rax, -48(%rbp)
	.loc	6 200 9
	movq	-48(%rbp), %rsi
Ltmp107:
	leaq	-144(%rbp), %rdi
	callq	__ZN4core4iter6traits8iterator8Iterator8for_each17hfb45c6dd100eab86E
Ltmp108:
	jmp	LBB9_4
Ltmp118:
LBB9_4:
	.loc	6 201 21 is_stmt 1
	movb	$0, -25(%rbp)
	movl	-152(%rbp), %eax
	movl	%eax, -32(%rbp)
	movl	-32(%rbp), %edi
Ltmp109:
	callq	__ZN10proc_macro6bridge6client18TokenStreamBuilder5build17h64da876c4c46937bE
Ltmp110:
	movl	%eax, -176(%rbp)
	jmp	LBB9_5
Ltmp119:
LBB9_5:
	.loc	6 0 21 is_stmt 0
	movl	-176(%rbp), %eax
	.loc	6 201 21
	movl	%eax, -4(%rbp)
	movl	-4(%rbp), %ecx
	movl	%ecx, -40(%rbp)
	.loc	6 201 9
	movl	-40(%rbp), %ecx
	movl	%ecx, -160(%rbp)
Ltmp120:
	.loc	6 202 5 is_stmt 1
	movb	$0, -25(%rbp)
	.loc	6 202 6 is_stmt 0
	movl	-160(%rbp), %eax
	addq	$176, %rsp
	popq	%rbp
	retq
Ltmp121:
LBB9_6:
	.loc	6 202 5
	movb	$0, -26(%rbp)
	movq	-168(%rbp), %rdi
	callq	__ZN4core3ptr13drop_in_place17hec8770de50c03e4cE
	jmp	LBB9_1
Ltmp122:
LBB9_7:
	testb	$1, -26(%rbp)
	jne	LBB9_6
	jmp	LBB9_1
Ltmp123:
LBB9_8:
	movb	$0, -25(%rbp)
	leaq	-152(%rbp), %rdi
	callq	__ZN4core3ptr13drop_in_place17h8d00fe7a37158dddE
	jmp	LBB9_7
Ltmp124:
LBB9_9:
	testb	$1, -25(%rbp)
	jne	LBB9_8
	jmp	LBB9_7
Ltmp125:
LBB9_10:
Ltmp104:
	.loc	6 0 5
	movq	%rax, -24(%rbp)
	movl	%edx, -16(%rbp)
	jmp	LBB9_7
Ltmp126:
LBB9_11:
Ltmp111:
	movq	%rax, -24(%rbp)
	movl	%edx, -16(%rbp)
	jmp	LBB9_9
Lfunc_end9:
	.cfi_endproc
	.section	__TEXT,__gcc_except_tab
	.p2align	2
GCC_except_table9:
Lexception3:
	.byte	255
	.byte	255
	.byte	1
	.uleb128 Lcst_end3-Lcst_begin3
Lcst_begin3:
	.uleb128 Ltmp102-Lfunc_begin9
	.uleb128 Ltmp103-Ltmp102
	.uleb128 Ltmp104-Lfunc_begin9
	.byte	0
	.uleb128 Ltmp103-Lfunc_begin9
	.uleb128 Ltmp105-Ltmp103
	.byte	0
	.byte	0
	.uleb128 Ltmp105-Lfunc_begin9
	.uleb128 Ltmp110-Ltmp105
	.uleb128 Ltmp111-Lfunc_begin9
	.byte	0
	.uleb128 Ltmp110-Lfunc_begin9
	.uleb128 Lfunc_end9-Ltmp110
	.byte	0
	.byte	0
Lcst_end3:
	.p2align	2

	.section	__TEXT,__text,regular,pure_instructions
	.globl	__ZN116_$LT$proc_macro..TokenStream$u20$as$u20$core..iter..traits..collect..FromIterator$LT$proc_macro..TokenStream$GT$$GT$9from_iter28_$u7b$$u7b$closure$u7d$$u7d$17ha63e3f8f286d04e1E
	.p2align	4, 0x90
__ZN116_$LT$proc_macro..TokenStream$u20$as$u20$core..iter..traits..collect..FromIterator$LT$proc_macro..TokenStream$GT$$GT$9from_iter28_$u7b$$u7b$closure$u7d$$u7d$17ha63e3f8f286d04e1E:
Lfunc_begin10:
	.loc	6 200 0 is_stmt 1
	.cfi_startproc
	pushq	%rbp
	.cfi_def_cfa_offset 16
	.cfi_offset %rbp, -16
	movq	%rsp, %rbp
	.cfi_def_cfa_register %rbp
	subq	$32, %rsp
	movl	%esi, -20(%rbp)
	movl	-20(%rbp), %eax
	movl	%eax, -24(%rbp)
	movq	%rdi, -8(%rbp)
Ltmp127:
	.loc	6 200 47 prologue_end
	movq	(%rdi), %rdi
	.loc	6 200 60 is_stmt 0
	movl	-24(%rbp), %eax
	movl	%eax, -16(%rbp)
	.loc	6 200 47
	movl	-16(%rbp), %esi
	callq	__ZN10proc_macro6bridge6client18TokenStreamBuilder4push17hf0bec3eacbbe7ebeE
	.loc	6 200 69
	addq	$32, %rsp
	popq	%rbp
	retq
Ltmp128:
Lfunc_end10:
	.cfi_endproc

	.globl	__ZN119_$LT$core..ptr..non_null..NonNull$LT$T$GT$$u20$as$u20$core..convert..From$LT$core..ptr..unique..Unique$LT$T$GT$$GT$$GT$4from17hdae20b1f4cfd54d8E
	.p2align	4, 0x90
__ZN119_$LT$core..ptr..non_null..NonNull$LT$T$GT$$u20$as$u20$core..convert..From$LT$core..ptr..unique..Unique$LT$T$GT$$GT$$GT$4from17hdae20b1f4cfd54d8E:
Lfunc_begin11:
	.file	7 "/rustc/6c8927b0cf80ceee19386026cf9d7fd4fd9d486f/src/libcore/ptr/non_null.rs"
	.loc	7 329 0 is_stmt 1
	.cfi_startproc
	pushq	%rbp
	.cfi_def_cfa_offset 16
	.cfi_offset %rbp, -16
	movq	%rsp, %rbp
	.cfi_def_cfa_register %rbp
	subq	$32, %rsp
	movq	%rdi, -8(%rbp)
Ltmp129:
	.loc	7 332 41 prologue_end
	callq	__ZN4core3ptr6unique15Unique$LT$T$GT$6as_ptr17h5644b1d44b523a31E
	movq	%rax, -16(%rbp)
	.loc	7 0 41 is_stmt 0
	movq	-16(%rbp), %rdi
	.loc	7 332 18
	callq	__ZN4core3ptr8non_null16NonNull$LT$T$GT$13new_unchecked17ha980c3a0289693c6E
	movq	%rax, -24(%rbp)
	.loc	7 0 18
	movq	-24(%rbp), %rax
	.loc	7 333 6 is_stmt 1
	addq	$32, %rsp
	popq	%rbp
	retq
Ltmp130:
Lfunc_end11:
	.cfi_endproc

	.globl	__ZN135_$LT$$LT$alloc..vec..Drain$LT$T$GT$$u20$as$u20$core..ops..drop..Drop$GT$..drop..DropGuard$LT$T$GT$$u20$as$u20$core..ops..drop..Drop$GT$4drop17h500a317a804842f1E
	.p2align	4, 0x90
__ZN135_$LT$$LT$alloc..vec..Drain$LT$T$GT$$u20$as$u20$core..ops..drop..Drop$GT$..drop..DropGuard$LT$T$GT$$u20$as$u20$core..ops..drop..Drop$GT$4drop17h500a317a804842f1E:
Lfunc_begin12:
	.loc	5 2848 0
	.cfi_startproc
	pushq	%rbp
	.cfi_def_cfa_offset 16
	.cfi_offset %rbp, -16
	movq	%rsp, %rbp
	.cfi_def_cfa_register %rbp
	subq	$128, %rsp
	movq	%rdi, -48(%rbp)
Ltmp131:
	.loc	5 2851 17 prologue_end
	movq	(%rdi), %rax
	movq	%rdi, -64(%rbp)
	movq	%rax, %rdi
	callq	__ZN4core4iter6traits8iterator8Iterator8for_each17h8c12e9a06f0cfdf1E
	.loc	5 0 17 is_stmt 0
	movq	-64(%rbp), %rax
	.loc	5 2853 20 is_stmt 1
	movq	(%rax), %rcx
	cmpq	$0, 8(%rcx)
	.loc	5 2853 17 is_stmt 0
	ja	LBB12_3
	jmp	LBB12_15
LBB12_3:
	.loc	5 0 17
	movq	-64(%rbp), %rax
	.loc	5 2855 42 is_stmt 1
	movq	(%rax), %rcx
	addq	$32, %rcx
	movq	%rcx, %rdi
	callq	__ZN4core3ptr8non_null16NonNull$LT$T$GT$6as_mut17h5359338cc48bb476E
	movq	%rax, -40(%rbp)
	movq	%rax, -72(%rbp)
	.loc	5 0 42 is_stmt 0
	movq	-72(%rbp), %rdi
Ltmp132:
	.loc	5 2857 37 is_stmt 1
	callq	__ZN5alloc3vec12Vec$LT$T$GT$3len17h38c991db87c12248E
	movq	%rax, -32(%rbp)
	movq	%rax, -80(%rbp)
	.loc	5 0 37 is_stmt 0
	movq	-64(%rbp), %rax
Ltmp133:
	.loc	5 2858 36 is_stmt 1
	movq	(%rax), %rcx
	movq	(%rcx), %rcx
	movq	%rcx, -24(%rbp)
	movq	-80(%rbp), %rdx
Ltmp134:
	.loc	5 2859 28
	cmpq	%rdx, %rcx
	movq	%rcx, -88(%rbp)
	.loc	5 2859 25 is_stmt 0
	jne	LBB12_7
	jmp	LBB12_13
LBB12_7:
	.loc	5 0 25
	movq	-72(%rbp), %rdi
	.loc	5 2860 39 is_stmt 1
	callq	__ZN5alloc3vec12Vec$LT$T$GT$6as_ptr17h353ee9b40021e839E
	movq	%rax, -96(%rbp)
	.loc	5 0 39 is_stmt 0
	movq	-96(%rbp), %rdi
	movq	-88(%rbp), %rsi
	.loc	5 2860 39
	callq	__ZN4core3ptr9const_ptr33_$LT$impl$u20$$BP$const$u20$T$GT$3add17h7bb7c7d73ee21162E
	movq	%rax, -16(%rbp)
	movq	%rax, -104(%rbp)
	.loc	5 0 39
	movq	-72(%rbp), %rdi
Ltmp135:
	.loc	5 2861 39 is_stmt 1
	callq	__ZN5alloc3vec12Vec$LT$T$GT$10as_mut_ptr17h1563baeb4874dd2dE
	movq	%rax, -112(%rbp)
	.loc	5 0 39 is_stmt 0
	movq	-112(%rbp), %rdi
	movq	-80(%rbp), %rsi
	.loc	5 2861 39
	callq	__ZN4core3ptr7mut_ptr31_$LT$impl$u20$$BP$mut$u20$T$GT$3add17hd21af6a09d8439e0E
	movq	%rax, -8(%rbp)
	movq	%rax, -120(%rbp)
	.loc	5 0 39
	movq	-64(%rbp), %rax
Ltmp136:
	.loc	5 2862 49 is_stmt 1
	movq	(%rax), %rcx
	movq	8(%rcx), %rdx
	movq	-104(%rbp), %rdi
	movq	-120(%rbp), %rsi
	.loc	5 2862 29 is_stmt 0
	callq	__ZN4core10intrinsics4copy17hf9df05d3454da219E
Ltmp137:
	.loc	5 2859 25 is_stmt 1
	jmp	LBB12_13
LBB12_13:
	.loc	5 0 25 is_stmt 0
	movq	-64(%rbp), %rax
	.loc	5 2864 52 is_stmt 1
	movq	(%rax), %rcx
	movq	-80(%rbp), %rdx
	.loc	5 2864 44 is_stmt 0
	addq	8(%rcx), %rdx
	movq	-72(%rbp), %rdi
	.loc	5 2864 25
	movq	%rdx, %rsi
	callq	__ZN5alloc3vec12Vec$LT$T$GT$7set_len17h09a8c27dc17b6810E
Ltmp138:
	.loc	5 2853 17 is_stmt 1
	jmp	LBB12_15
LBB12_15:
	.loc	5 2867 14
	addq	$128, %rsp
	popq	%rbp
	retq
Ltmp139:
Lfunc_end12:
	.cfi_endproc

	.globl	__ZN138_$LT$$LT$alloc..vec..IntoIter$LT$T$GT$$u20$as$u20$core..ops..drop..Drop$GT$..drop..DropGuard$LT$T$GT$$u20$as$u20$core..ops..drop..Drop$GT$4drop17h55f6f7ed7710e29aE
	.p2align	4, 0x90
__ZN138_$LT$$LT$alloc..vec..IntoIter$LT$T$GT$$u20$as$u20$core..ops..drop..Drop$GT$..drop..DropGuard$LT$T$GT$$u20$as$u20$core..ops..drop..Drop$GT$4drop17h55f6f7ed7710e29aE:
Lfunc_begin13:
	.loc	5 2749 0
	.cfi_startproc
	pushq	%rbp
	.cfi_def_cfa_offset 16
	.cfi_offset %rbp, -16
	movq	%rsp, %rbp
	.cfi_def_cfa_register %rbp
	subq	$48, %rsp
	movq	%rdi, -8(%rbp)
Ltmp140:
	.loc	5 2751 57 prologue_end
	movq	(%rdi), %rax
	movq	(%rax), %rax
	movq	%rdi, -32(%rbp)
	movq	%rax, %rdi
	callq	__ZN4core3ptr8non_null16NonNull$LT$T$GT$6as_ptr17h64dc60e6bff3ff30E
	movq	%rax, -40(%rbp)
	.loc	5 0 57 is_stmt 0
	movq	-32(%rbp), %rax
	.loc	5 2751 78
	movq	(%rax), %rcx
	movq	8(%rcx), %rsi
	movq	-40(%rbp), %rdi
	.loc	5 2751 34
	callq	__ZN5alloc7raw_vec15RawVec$LT$T$GT$14from_raw_parts17h884a85f0d398ab1aE
	movq	%rdx, -16(%rbp)
	movq	%rax, -24(%rbp)
	.loc	5 2751 91
	leaq	-24(%rbp), %rdi
	callq	__ZN4core3ptr13drop_in_place17hb89d8a0fbf4ffde4E
	.loc	5 2752 14 is_stmt 1
	addq	$48, %rsp
	popq	%rbp
	retq
Ltmp141:
Lfunc_end13:
	.cfi_endproc

	.globl	__ZN36_$LT$T$u20$as$u20$core..any..Any$GT$7type_id17h9dc03674b10606f3E
	.p2align	4, 0x90
__ZN36_$LT$T$u20$as$u20$core..any..Any$GT$7type_id17h9dc03674b10606f3E:
Lfunc_begin14:
	.file	8 "/rustc/6c8927b0cf80ceee19386026cf9d7fd4fd9d486f/src/libcore/any.rs"
	.loc	8 109 0
	.cfi_startproc
	pushq	%rbp
	.cfi_def_cfa_offset 16
	.cfi_offset %rbp, -16
	movq	%rsp, %rbp
	.cfi_def_cfa_register %rbp
	subq	$16, %rsp
	movq	%rdi, -8(%rbp)
Ltmp142:
	.loc	8 110 9 prologue_end
	callq	__ZN4core3any6TypeId2of17haef6a50482b9954cE
	movq	%rax, -16(%rbp)
	.loc	8 0 9 is_stmt 0
	movq	-16(%rbp), %rax
	.loc	8 111 6 is_stmt 1
	addq	$16, %rsp
	popq	%rbp
	retq
Ltmp143:
Lfunc_end14:
	.cfi_endproc

	.p2align	4, 0x90
__ZN3std4sync4once4Once12is_completed17hed38f54ba202dd48E:
Lfunc_begin15:
	.file	9 "/rustc/6c8927b0cf80ceee19386026cf9d7fd4fd9d486f/src/libstd/sync/once.rs"
	.loc	9 369 0
	.cfi_startproc
	pushq	%rbp
	.cfi_def_cfa_offset 16
	.cfi_offset %rbp, -16
	movq	%rsp, %rbp
	.cfi_def_cfa_register %rbp
	subq	$16, %rsp
	movq	%rdi, -8(%rbp)
Ltmp144:
	.loc	9 374 9 prologue_end
	movl	$2, %esi
	callq	__ZN4core4sync6atomic11AtomicUsize4load17h5ec46afb706ef541E
	movq	%rax, -16(%rbp)
	.loc	9 0 9 is_stmt 0
	movq	-16(%rbp), %rax
	.loc	9 374 9
	cmpq	$3, %rax
	sete	%cl
	.loc	9 375 6 is_stmt 1
	andb	$1, %cl
	movzbl	%cl, %edx
	movl	%edx, %eax
	addq	$16, %rsp
	popq	%rbp
	retq
Ltmp145:
Lfunc_end15:
	.cfi_endproc

	.globl	__ZN3std4sync4once4Once9call_once17he5152fb483a6d7e2E
	.p2align	4, 0x90
__ZN3std4sync4once4Once9call_once17he5152fb483a6d7e2E:
Lfunc_begin16:
	.loc	9 255 0
	.cfi_startproc
	.cfi_personality 155, _rust_eh_personality
	.cfi_lsda 16, Lexception4
	pushq	%rbp
	.cfi_def_cfa_offset 16
	.cfi_offset %rbp, -16
	movq	%rsp, %rbp
	.cfi_def_cfa_register %rbp
	subq	$80, %rsp
	movq	%rdi, -32(%rbp)
Ltmp152:
	.loc	9 260 9 prologue_end
	movb	$0, -33(%rbp)
	movb	$1, -33(%rbp)
Ltmp146:
	movq	%rdi, -64(%rbp)
	.loc	9 260 12 is_stmt 0
	callq	__ZN3std4sync4once4Once12is_completed17hed38f54ba202dd48E
Ltmp147:
	movb	%al, -65(%rbp)
	jmp	LBB16_2
LBB16_1:
	.loc	9 255 5 is_stmt 1
	movq	-16(%rbp), %rdi
	callq	__Unwind_Resume
	ud2
LBB16_2:
	.loc	9 0 5 is_stmt 0
	movb	-65(%rbp), %al
	.loc	9 260 9 is_stmt 1
	testb	$1, %al
	jne	LBB16_4
	jmp	LBB16_3
LBB16_3:
	.loc	9 264 26
	movb	$0, -33(%rbp)
	.loc	9 264 21 is_stmt 0
	movb	$1, -49(%rbp)
	leaq	-49(%rbp), %rax
Ltmp153:
	.loc	9 265 37 is_stmt 1
	movq	%rax, -48(%rbp)
Ltmp149:
	.loc	9 265 9 is_stmt 0
	leaq	l___unnamed_1(%rip), %rcx
	xorl	%esi, %esi
	leaq	-48(%rbp), %rdx
	movq	-64(%rbp), %rdi
	callq	__ZN3std4sync4once4Once10call_inner17hfcd38045e50af9d3E
Ltmp150:
	jmp	LBB16_6
Ltmp154:
LBB16_4:
	.loc	9 266 5 is_stmt 1
	movb	$0, -33(%rbp)
LBB16_5:
	.loc	9 266 6 is_stmt 0
	addq	$80, %rsp
	popq	%rbp
	retq
LBB16_6:
	.loc	9 266 5
	jmp	LBB16_8
LBB16_7:
	jmp	LBB16_10
LBB16_8:
	jmp	LBB16_5
LBB16_9:
	movb	$0, -33(%rbp)
	jmp	LBB16_1
LBB16_10:
	testb	$1, -33(%rbp)
	jne	LBB16_9
	jmp	LBB16_1
Ltmp155:
LBB16_11:
Ltmp148:
	.loc	9 0 5
	movq	%rax, -16(%rbp)
	movl	%edx, -8(%rbp)
	jmp	LBB16_10
LBB16_12:
Ltmp151:
	movq	%rax, -16(%rbp)
	movl	%edx, -8(%rbp)
	jmp	LBB16_7
Lfunc_end16:
	.cfi_endproc
	.section	__TEXT,__gcc_except_tab
	.p2align	2
GCC_except_table16:
Lexception4:
	.byte	255
	.byte	255
	.byte	1
	.uleb128 Lcst_end4-Lcst_begin4
Lcst_begin4:
	.uleb128 Ltmp146-Lfunc_begin16
	.uleb128 Ltmp147-Ltmp146
	.uleb128 Ltmp148-Lfunc_begin16
	.byte	0
	.uleb128 Ltmp147-Lfunc_begin16
	.uleb128 Ltmp149-Ltmp147
	.byte	0
	.byte	0
	.uleb128 Ltmp149-Lfunc_begin16
	.uleb128 Ltmp150-Ltmp149
	.uleb128 Ltmp151-Lfunc_begin16
	.byte	0
Lcst_end4:
	.p2align	2

	.section	__TEXT,__text,regular,pure_instructions
	.globl	__ZN3std4sync4once4Once9call_once28_$u7b$$u7b$closure$u7d$$u7d$17h646c8bc81a758b6fE
	.p2align	4, 0x90
__ZN3std4sync4once4Once9call_once28_$u7b$$u7b$closure$u7d$$u7d$17h646c8bc81a758b6fE:
Lfunc_begin17:
	.loc	9 265 0 is_stmt 1
	.cfi_startproc
	pushq	%rbp
	.cfi_def_cfa_offset 16
	.cfi_offset %rbp, -16
	movq	%rsp, %rbp
	.cfi_def_cfa_register %rbp
	subq	$32, %rsp
	movq	%rdi, -16(%rbp)
	movq	%rsi, -8(%rbp)
Ltmp156:
	.loc	9 265 41 prologue_end
	movq	(%rdi), %rdi
	callq	__ZN4core6option15Option$LT$T$GT$4take17h988322ba264bbec4E
	movb	%al, -17(%rbp)
	.loc	9 0 41 is_stmt 0
	movb	-17(%rbp), %al
	.loc	9 265 41
	movzbl	%al, %ecx
	andl	$1, %ecx
	leaq	l___unnamed_20(%rip), %rsi
	movl	%ecx, %edi
	callq	__ZN4core6option15Option$LT$T$GT$6unwrap17h98ebd9cf4c21953eE
	callq	__ZN4core3ops8function6FnOnce9call_once17h776fe3df3fbbdf14E
	.loc	9 265 60
	addq	$32, %rsp
	popq	%rbp
	retq
Ltmp157:
Lfunc_end17:
	.cfi_endproc

	.globl	__ZN3std5panic12catch_unwind17h4fc7b92d38a0f67aE
	.p2align	4, 0x90
__ZN3std5panic12catch_unwind17h4fc7b92d38a0f67aE:
Lfunc_begin18:
	.file	10 "/rustc/6c8927b0cf80ceee19386026cf9d7fd4fd9d486f/src/libstd/panic.rs"
	.loc	10 393 0 is_stmt 1
	.cfi_startproc
	pushq	%rbp
	.cfi_def_cfa_offset 16
	.cfi_offset %rbp, -16
	movq	%rsp, %rbp
	.cfi_def_cfa_register %rbp
	subq	$16, %rsp
	movq	%rdi, %rax
	movq	%rsi, -8(%rbp)
	movq	%rax, -16(%rbp)
Ltmp158:
	.loc	10 394 14 prologue_end
	callq	__ZN3std9panicking3try17h3e9d03990c071bc6E
	.loc	10 0 14 is_stmt 0
	movq	-16(%rbp), %rax
	.loc	10 395 2 is_stmt 1
	addq	$16, %rsp
	popq	%rbp
	retq
Ltmp159:
Lfunc_end18:
	.cfi_endproc

	.globl	__ZN3std5panic12catch_unwind17hbda0492384afb0a3E
	.p2align	4, 0x90
__ZN3std5panic12catch_unwind17hbda0492384afb0a3E:
Lfunc_begin19:
	.loc	10 393 0
	.cfi_startproc
	pushq	%rbp
	.cfi_def_cfa_offset 16
	.cfi_offset %rbp, -16
	movq	%rsp, %rbp
	.cfi_def_cfa_register %rbp
	subq	$16, %rsp
	movq	%rdi, %rax
	movq	%rax, -16(%rbp)
Ltmp160:
	.loc	10 394 14 prologue_end
	callq	__ZN3std9panicking3try17h9de14074d23670eeE
	.loc	10 0 14 is_stmt 0
	movq	-16(%rbp), %rax
	.loc	10 395 2 is_stmt 1
	addq	$16, %rsp
	popq	%rbp
	retq
Ltmp161:
Lfunc_end19:
	.cfi_endproc

	.globl	__ZN3std9panicking11begin_panic17h84d2766b158585edE
	.p2align	4, 0x90
__ZN3std9panicking11begin_panic17h84d2766b158585edE:
Lfunc_begin20:
	.file	11 "/rustc/6c8927b0cf80ceee19386026cf9d7fd4fd9d486f/src/libstd/panicking.rs"
	.loc	11 451 0
	.cfi_startproc
	.cfi_personality 155, _rust_eh_personality
	.cfi_lsda 16, Lexception5
	pushq	%rbp
	.cfi_def_cfa_offset 16
	.cfi_offset %rbp, -16
	movq	%rsp, %rbp
	.cfi_def_cfa_register %rbp
	subq	$96, %rsp
	movq	%rdi, -32(%rbp)
	movq	%rsi, -24(%rbp)
Ltmp170:
	.loc	11 452 5 prologue_end
	movb	$0, -33(%rbp)
	movb	$1, -33(%rbp)
	.loc	11 456 49
	movb	$0, -33(%rbp)
Ltmp162:
	movq	%rdx, -64(%rbp)
	.loc	11 456 31 is_stmt 0
	callq	__ZN3std9panicking11begin_panic21PanicPayload$LT$A$GT$3new17h34ad000151e4d937E
Ltmp163:
	movq	%rdx, -72(%rbp)
	movq	%rax, -80(%rbp)
	jmp	LBB20_2
LBB20_1:
	.loc	11 451 1 is_stmt 1
	movq	-16(%rbp), %rdi
	callq	__Unwind_Resume
	ud2
LBB20_2:
	.loc	11 0 1 is_stmt 0
	movq	-80(%rbp), %rax
	.loc	11 456 31 is_stmt 1
	movq	%rax, -56(%rbp)
	movq	-72(%rbp), %rcx
	movq	%rcx, -48(%rbp)
	leaq	-56(%rbp), %rdi
Ltmp165:
	movq	-64(%rbp), %rdx
	movq	%rdi, -88(%rbp)
	.loc	11 456 61 is_stmt 0
	movq	%rdx, %rdi
	callq	__ZN4core5panic8Location6caller17hb284bf0993c43fcaE
Ltmp166:
	movq	%rax, -96(%rbp)
	jmp	LBB20_4
LBB20_3:
	.loc	11 456 80
	jmp	LBB20_6
LBB20_4:
Ltmp167:
	.loc	11 456 5
	leaq	l___unnamed_2(%rip), %rsi
	xorl	%eax, %eax
	movl	%eax, %edx
	movq	-88(%rbp), %rdi
	movq	-96(%rbp), %rcx
	callq	__ZN3std9panicking20rust_panic_with_hook17h720143ee15fc80baE
Ltmp168:
	jmp	LBB20_9
LBB20_5:
	.loc	11 489 1 is_stmt 1
	movb	$0, -33(%rbp)
	jmp	LBB20_1
LBB20_6:
	testb	$1, -33(%rbp)
	jne	LBB20_5
	jmp	LBB20_1
Ltmp171:
LBB20_7:
Ltmp164:
	.loc	11 0 1 is_stmt 0
	movq	%rax, -16(%rbp)
	movl	%edx, -8(%rbp)
	jmp	LBB20_6
LBB20_8:
Ltmp169:
	movq	%rax, -16(%rbp)
	movl	%edx, -8(%rbp)
	jmp	LBB20_3
LBB20_9:
	ud2
Lfunc_end20:
	.cfi_endproc
	.section	__TEXT,__gcc_except_tab
	.p2align	2
GCC_except_table20:
Lexception5:
	.byte	255
	.byte	255
	.byte	1
	.uleb128 Lcst_end5-Lcst_begin5
Lcst_begin5:
	.uleb128 Ltmp162-Lfunc_begin20
	.uleb128 Ltmp163-Ltmp162
	.uleb128 Ltmp164-Lfunc_begin20
	.byte	0
	.uleb128 Ltmp163-Lfunc_begin20
	.uleb128 Ltmp165-Ltmp163
	.byte	0
	.byte	0
	.uleb128 Ltmp165-Lfunc_begin20
	.uleb128 Ltmp168-Ltmp165
	.uleb128 Ltmp169-Lfunc_begin20
	.byte	0
Lcst_end5:
	.p2align	2

	.section	__TEXT,__text,regular,pure_instructions
	.globl	__ZN3std9panicking11begin_panic21PanicPayload$LT$A$GT$3new17h34ad000151e4d937E
	.p2align	4, 0x90
__ZN3std9panicking11begin_panic21PanicPayload$LT$A$GT$3new17h34ad000151e4d937E:
Lfunc_begin21:
	.loc	11 463 0 is_stmt 1
	.cfi_startproc
	pushq	%rbp
	.cfi_def_cfa_offset 16
	.cfi_offset %rbp, -16
	movq	%rsp, %rbp
	.cfi_def_cfa_register %rbp
	subq	$48, %rsp
	movq	%rdi, -16(%rbp)
	movq	%rsi, -8(%rbp)
Ltmp172:
	.loc	11 464 35 prologue_end
	movq	%rdi, -32(%rbp)
	movq	%rsi, -24(%rbp)
	.loc	11 464 13 is_stmt 0
	movq	-32(%rbp), %rax
	movq	-24(%rbp), %rcx
	movq	%rax, -48(%rbp)
	movq	%rcx, -40(%rbp)
	.loc	11 465 10 is_stmt 1
	movq	-48(%rbp), %rax
	movq	-40(%rbp), %rdx
	addq	$48, %rsp
	popq	%rbp
	retq
Ltmp173:
Lfunc_end21:
	.cfi_endproc

	.globl	__ZN3std9panicking3try17h3e9d03990c071bc6E
	.p2align	4, 0x90
__ZN3std9panicking3try17h3e9d03990c071bc6E:
Lfunc_begin22:
	.loc	11 291 0
	.cfi_startproc
	pushq	%rbp
	.cfi_def_cfa_offset 16
	.cfi_offset %rbp, -16
	movq	%rsp, %rbp
	.cfi_def_cfa_register %rbp
	subq	$176, %rsp
	movq	%rdi, %rax
	movq	%rsi, -88(%rbp)
	movq	%rsi, -48(%rbp)
Ltmp174:
	.file	12 "/rustc/6c8927b0cf80ceee19386026cf9d7fd4fd9d486f/src/libcore/mem/manually_drop.rs"
	.loc	12 83 9 prologue_end
	movq	%rsi, -56(%rbp)
	.loc	12 84 6
	movq	-56(%rbp), %rcx
	movq	%rdi, -128(%rbp)
	movq	%rax, -136(%rbp)
	movq	%rcx, -144(%rbp)
Ltmp175:
	.loc	12 0 6 is_stmt 0
	movq	-144(%rbp), %rax
	.loc	11 322 20 is_stmt 1
	movq	%rax, -120(%rbp)
Ltmp176:
	.loc	11 324 20
	leaq	-120(%rbp), %rcx
	movq	%rcx, -80(%rbp)
Ltmp177:
	.loc	11 325 15
	leaq	__ZN3std9panicking3try7do_call17h09b3d2f6cb3b833fE(%rip), %rdi
	movq	%rcx, %rsi
	leaq	__ZN3std9panicking3try8do_catch17hf4b3d5ac9c484138E(%rip), %rdx
	callq	___rust_try
	movl	%eax, -68(%rbp)
	movl	-68(%rbp), %eax
	movl	%eax, -148(%rbp)
	.loc	11 0 15 is_stmt 0
	movl	-148(%rbp), %eax
	.loc	11 325 15
	cmpl	$0, %eax
	.loc	11 325 12
	je	LBB22_4
	.loc	11 328 38 is_stmt 1
	movq	-120(%rbp), %rax
	movq	-112(%rbp), %rcx
	movq	%rax, -16(%rbp)
	movq	%rcx, -8(%rbp)
	movq	%rax, -160(%rbp)
	movq	%rcx, -168(%rbp)
	.loc	11 328 13 is_stmt 0
	jmp	LBB22_6
LBB22_4:
	.loc	11 326 37 is_stmt 1
	movq	-120(%rbp), %rax
	movq	%rax, -96(%rbp)
	.loc	11 326 12 is_stmt 0
	movq	-96(%rbp), %rax
	movq	%rax, -32(%rbp)
	movq	-32(%rbp), %rax
	movq	%rax, -40(%rbp)
Ltmp178:
	.loc	12 101 9 is_stmt 1
	movq	-40(%rbp), %rax
	movq	%rax, -24(%rbp)
	.loc	12 102 6
	movq	-24(%rbp), %rax
Ltmp179:
	.loc	11 326 12
	movq	%rax, -64(%rbp)
	movq	-64(%rbp), %rax
	movq	%rax, -104(%rbp)
	.loc	11 326 9 is_stmt 0
	movq	-104(%rbp), %rax
	movq	-128(%rbp), %rcx
	movq	%rax, 4(%rcx)
	movl	$0, (%rcx)
	.loc	11 325 12 is_stmt 1
	jmp	LBB22_7
LBB22_6:
	.loc	11 0 12 is_stmt 0
	movq	-128(%rbp), %rax
	movq	-160(%rbp), %rcx
	.loc	11 328 9 is_stmt 1
	movq	%rcx, 8(%rax)
	movq	-168(%rbp), %rdx
	movq	%rdx, 16(%rax)
	movl	$1, (%rax)
Ltmp180:
LBB22_7:
	.loc	11 0 9 is_stmt 0
	movq	-136(%rbp), %rax
	.loc	11 364 2 is_stmt 1
	addq	$176, %rsp
	popq	%rbp
	retq
Ltmp181:
Lfunc_end22:
	.cfi_endproc

	.globl	__ZN3std9panicking3try17h9de14074d23670eeE
	.p2align	4, 0x90
__ZN3std9panicking3try17h9de14074d23670eeE:
Lfunc_begin23:
	.loc	11 291 0
	.cfi_startproc
	pushq	%rbp
	.cfi_def_cfa_offset 16
	.cfi_offset %rbp, -16
	movq	%rsp, %rbp
	.cfi_def_cfa_register %rbp
	subq	$144, %rsp
	movq	%rdi, %rax
	movq	%rdi, -104(%rbp)
	movq	%rax, -112(%rbp)
Ltmp182:
	.loc	11 324 20 prologue_end
	leaq	-96(%rbp), %rax
	movq	%rax, -56(%rbp)
Ltmp183:
	.loc	11 325 15
	leaq	__ZN3std9panicking3try7do_call17h91c50471607f0967E(%rip), %rdi
	movq	%rax, %rsi
	leaq	__ZN3std9panicking3try8do_catch17h6be0860f79ed9029E(%rip), %rdx
	callq	___rust_try
	movl	%eax, -48(%rbp)
	movl	-48(%rbp), %eax
	movl	%eax, -116(%rbp)
	.loc	11 0 15 is_stmt 0
	movl	-116(%rbp), %eax
	.loc	11 325 15
	cmpl	$0, %eax
	.loc	11 325 12
	je	LBB23_4
	.loc	11 328 38 is_stmt 1
	movq	-96(%rbp), %rax
	movq	-88(%rbp), %rcx
	movq	%rax, -16(%rbp)
	movq	%rcx, -8(%rbp)
	movq	%rax, -128(%rbp)
	movq	%rcx, -136(%rbp)
	.loc	11 328 13 is_stmt 0
	jmp	LBB23_6
LBB23_4:
	.loc	11 326 37 is_stmt 1
	movl	-96(%rbp), %eax
	movl	%eax, -72(%rbp)
	.loc	11 326 12 is_stmt 0
	movl	-72(%rbp), %eax
	movl	%eax, -28(%rbp)
	movl	-28(%rbp), %eax
	movl	%eax, -32(%rbp)
Ltmp184:
	.loc	12 101 9 is_stmt 1
	movl	-32(%rbp), %eax
	movl	%eax, -24(%rbp)
	.loc	12 102 6
	movl	-24(%rbp), %eax
Ltmp185:
	.loc	11 326 12
	movl	%eax, -44(%rbp)
	movl	-44(%rbp), %eax
	movl	%eax, -80(%rbp)
	.loc	11 326 9 is_stmt 0
	movl	-80(%rbp), %eax
	movq	-104(%rbp), %rcx
	movl	%eax, 4(%rcx)
	movl	$0, (%rcx)
	.loc	11 325 12 is_stmt 1
	jmp	LBB23_7
LBB23_6:
	.loc	11 0 12 is_stmt 0
	movq	-104(%rbp), %rax
	movq	-128(%rbp), %rcx
	.loc	11 328 9 is_stmt 1
	movq	%rcx, 8(%rax)
	movq	-136(%rbp), %rdx
	movq	%rdx, 16(%rax)
	movl	$1, (%rax)
Ltmp186:
LBB23_7:
	.loc	11 0 9 is_stmt 0
	movq	-112(%rbp), %rax
	.loc	11 364 2 is_stmt 1
	addq	$144, %rsp
	popq	%rbp
	retq
Ltmp187:
Lfunc_end23:
	.cfi_endproc

	.globl	__ZN3std9panicking3try7do_call17h09b3d2f6cb3b833fE
	.p2align	4, 0x90
__ZN3std9panicking3try7do_call17h09b3d2f6cb3b833fE:
Lfunc_begin24:
	.loc	11 343 0
	.cfi_startproc
	pushq	%rbp
	.cfi_def_cfa_offset 16
	.cfi_offset %rbp, -16
	movq	%rsp, %rbp
	.cfi_def_cfa_register %rbp
	subq	$112, %rsp
	movq	%rdi, -80(%rbp)
Ltmp188:
	.loc	11 345 24 prologue_end
	movq	%rdi, -72(%rbp)
Ltmp189:
	.loc	11 346 24
	movq	%rdi, -64(%rbp)
Ltmp190:
	.loc	11 347 40
	movq	%rdi, %rax
	movq	%rdi, -104(%rbp)
	.loc	11 347 21 is_stmt 0
	movq	%rax, %rdi
	callq	__ZN4core3mem13manually_drop21ManuallyDrop$LT$T$GT$4take17h13439e8866e80f5eE
	movq	%rax, -56(%rbp)
	movq	%rax, -112(%rbp)
	.loc	11 0 21
	movq	-112(%rbp), %rdi
Ltmp191:
	.loc	11 348 40 is_stmt 1
	callq	__ZN11proc_macro23imp16proc_macro_parse28_$u7b$$u7b$closure$u7d$$u7d$17h4becda11a5ba5cc4E
	movq	%rax, -48(%rbp)
	movq	-48(%rbp), %rax
	movq	%rax, -88(%rbp)
	.loc	11 348 22 is_stmt 0
	movq	-88(%rbp), %rax
	movq	%rax, -24(%rbp)
	movq	-24(%rbp), %rax
	movq	%rax, -32(%rbp)
Ltmp192:
	.loc	12 83 24 is_stmt 1
	movq	-32(%rbp), %rax
	movq	%rax, -8(%rbp)
	.loc	12 83 9 is_stmt 0
	movq	-8(%rbp), %rax
	movq	%rax, -16(%rbp)
	.loc	12 84 6 is_stmt 1
	movq	-16(%rbp), %rax
Ltmp193:
	.loc	11 348 22
	movq	%rax, -40(%rbp)
	movq	-40(%rbp), %rax
	movq	%rax, -96(%rbp)
	.loc	11 348 13 is_stmt 0
	movq	-96(%rbp), %rax
	movq	-104(%rbp), %rcx
	movq	%rax, (%rcx)
Ltmp194:
	.loc	11 350 6 is_stmt 1
	addq	$112, %rsp
	popq	%rbp
	retq
Ltmp195:
Lfunc_end24:
	.cfi_endproc

	.globl	__ZN3std9panicking3try7do_call17h91c50471607f0967E
	.p2align	4, 0x90
__ZN3std9panicking3try7do_call17h91c50471607f0967E:
Lfunc_begin25:
	.loc	11 343 0
	.cfi_startproc
	pushq	%rbp
	.cfi_def_cfa_offset 16
	.cfi_offset %rbp, -16
	movq	%rsp, %rbp
	.cfi_def_cfa_register %rbp
	subq	$96, %rsp
	movq	%rdi, -64(%rbp)
Ltmp196:
	.loc	11 345 24 prologue_end
	movq	%rdi, -48(%rbp)
Ltmp197:
	.loc	11 346 24
	movq	%rdi, -40(%rbp)
Ltmp198:
	.loc	11 347 40
	movq	%rdi, %rax
	movq	%rdi, -88(%rbp)
	.loc	11 347 21 is_stmt 0
	movq	%rax, %rdi
	callq	__ZN4core3mem13manually_drop21ManuallyDrop$LT$T$GT$4take17h784d269a4a7f3809E
Ltmp199:
	.loc	11 348 40 is_stmt 1
	callq	__ZN4core3ops8function6FnOnce9call_once17h040768ca7c7a1e9eE
	movl	%eax, -32(%rbp)
	movl	-32(%rbp), %eax
	movl	%eax, -72(%rbp)
	.loc	11 348 22 is_stmt 0
	movl	-72(%rbp), %eax
	movl	%eax, -20(%rbp)
	movl	-20(%rbp), %eax
	movl	%eax, -24(%rbp)
Ltmp200:
	.loc	12 83 24 is_stmt 1
	movl	-24(%rbp), %eax
	movl	%eax, -8(%rbp)
	.loc	12 83 9 is_stmt 0
	movl	-8(%rbp), %eax
	movl	%eax, -16(%rbp)
	.loc	12 84 6 is_stmt 1
	movl	-16(%rbp), %eax
Ltmp201:
	.loc	11 348 22
	movl	%eax, -28(%rbp)
	movl	-28(%rbp), %eax
	movl	%eax, -80(%rbp)
	.loc	11 348 13 is_stmt 0
	movl	-80(%rbp), %eax
	movq	-88(%rbp), %rcx
	movl	%eax, (%rcx)
Ltmp202:
	.loc	11 350 6 is_stmt 1
	addq	$96, %rsp
	popq	%rbp
	retq
Ltmp203:
Lfunc_end25:
	.cfi_endproc

	.globl	__ZN3std9panicking3try8do_catch17h6be0860f79ed9029E
	.p2align	4, 0x90
__ZN3std9panicking3try8do_catch17h6be0860f79ed9029E:
Lfunc_begin26:
	.loc	11 356 0
	.cfi_startproc
	pushq	%rbp
	.cfi_def_cfa_offset 16
	.cfi_offset %rbp, -16
	movq	%rsp, %rbp
	.cfi_def_cfa_register %rbp
	subq	$128, %rsp
	movq	%rdi, -80(%rbp)
	movq	%rsi, -72(%rbp)
Ltmp204:
	.loc	11 358 24 prologue_end
	movq	%rdi, -64(%rbp)
Ltmp205:
	.loc	11 359 24
	movq	%rdi, -56(%rbp)
	movq	%rdi, -88(%rbp)
Ltmp206:
	.loc	11 360 23
	movq	%rsi, %rdi
	callq	__ZN3std9panicking3try7cleanup17hd630ddf77975344aE
	movq	%rax, -48(%rbp)
	movq	%rdx, -40(%rbp)
	movq	%rax, -96(%rbp)
	movq	%rdx, -104(%rbp)
	.loc	11 0 23 is_stmt 0
	movq	-96(%rbp), %rax
	movq	%rax, -16(%rbp)
	movq	-104(%rbp), %rcx
	movq	%rcx, -8(%rbp)
Ltmp207:
	.loc	12 83 9 is_stmt 1
	movq	%rax, -32(%rbp)
	movq	%rcx, -24(%rbp)
	.loc	12 84 6
	movq	-32(%rbp), %rdx
	movq	-24(%rbp), %rsi
	movq	%rdx, -112(%rbp)
	movq	%rsi, -120(%rbp)
Ltmp208:
	.loc	12 0 6 is_stmt 0
	movq	-88(%rbp), %rax
	movq	-112(%rbp), %rcx
	.loc	11 361 13 is_stmt 1
	movq	%rcx, (%rax)
	movq	-120(%rbp), %rdx
	movq	%rdx, 8(%rax)
Ltmp209:
	.loc	11 363 6
	addq	$128, %rsp
	popq	%rbp
	retq
Ltmp210:
Lfunc_end26:
	.cfi_endproc

	.globl	__ZN3std9panicking3try8do_catch17hf4b3d5ac9c484138E
	.p2align	4, 0x90
__ZN3std9panicking3try8do_catch17hf4b3d5ac9c484138E:
Lfunc_begin27:
	.loc	11 356 0
	.cfi_startproc
	pushq	%rbp
	.cfi_def_cfa_offset 16
	.cfi_offset %rbp, -16
	movq	%rsp, %rbp
	.cfi_def_cfa_register %rbp
	subq	$128, %rsp
	movq	%rdi, -80(%rbp)
	movq	%rsi, -72(%rbp)
Ltmp211:
	.loc	11 358 24 prologue_end
	movq	%rdi, -64(%rbp)
Ltmp212:
	.loc	11 359 24
	movq	%rdi, -56(%rbp)
	movq	%rdi, -88(%rbp)
Ltmp213:
	.loc	11 360 23
	movq	%rsi, %rdi
	callq	__ZN3std9panicking3try7cleanup17hd630ddf77975344aE
	movq	%rax, -48(%rbp)
	movq	%rdx, -40(%rbp)
	movq	%rax, -96(%rbp)
	movq	%rdx, -104(%rbp)
	.loc	11 0 23 is_stmt 0
	movq	-96(%rbp), %rax
	movq	%rax, -16(%rbp)
	movq	-104(%rbp), %rcx
	movq	%rcx, -8(%rbp)
Ltmp214:
	.loc	12 83 9 is_stmt 1
	movq	%rax, -32(%rbp)
	movq	%rcx, -24(%rbp)
	.loc	12 84 6
	movq	-32(%rbp), %rdx
	movq	-24(%rbp), %rsi
	movq	%rdx, -112(%rbp)
	movq	%rsi, -120(%rbp)
Ltmp215:
	.loc	12 0 6 is_stmt 0
	movq	-88(%rbp), %rax
	movq	-112(%rbp), %rcx
	.loc	11 361 13 is_stmt 1
	movq	%rcx, (%rax)
	movq	-120(%rbp), %rdx
	movq	%rdx, 8(%rax)
Ltmp216:
	.loc	11 363 6
	addq	$128, %rsp
	popq	%rbp
	retq
Ltmp217:
Lfunc_end27:
	.cfi_endproc

	.p2align	4, 0x90
__ZN41_$LT$bool$u20$as$u20$core..fmt..Debug$GT$3fmt17hf86df468bdeebcedE:
Lfunc_begin28:
	.file	13 "/rustc/6c8927b0cf80ceee19386026cf9d7fd4fd9d486f/src/libcore/fmt/mod.rs"
	.loc	13 2051 0
	.cfi_startproc
	pushq	%rbp
	.cfi_def_cfa_offset 16
	.cfi_offset %rbp, -16
	movq	%rsp, %rbp
	.cfi_def_cfa_register %rbp
	subq	$32, %rsp
	movq	%rdi, -16(%rbp)
	movq	%rsi, -8(%rbp)
Ltmp218:
	.loc	13 2052 9 prologue_end
	callq	__ZN43_$LT$bool$u20$as$u20$core..fmt..Display$GT$3fmt17hd78396651a24cfbbE
	movb	%al, -17(%rbp)
	.loc	13 0 9 is_stmt 0
	movb	-17(%rbp), %al
	.loc	13 2053 6 is_stmt 1
	andb	$1, %al
	movzbl	%al, %eax
	addq	$32, %rsp
	popq	%rbp
	retq
Ltmp219:
Lfunc_end28:
	.cfi_endproc

	.globl	__ZN42_$LT$$RF$T$u20$as$u20$core..fmt..Debug$GT$3fmt17h3bcc56a0b9f4d126E
	.p2align	4, 0x90
__ZN42_$LT$$RF$T$u20$as$u20$core..fmt..Debug$GT$3fmt17h3bcc56a0b9f4d126E:
Lfunc_begin29:
	.loc	13 2022 0
	.cfi_startproc
	pushq	%rbp
	.cfi_def_cfa_offset 16
	.cfi_offset %rbp, -16
	movq	%rsp, %rbp
	.cfi_def_cfa_register %rbp
	subq	$32, %rsp
	movq	%rdi, -16(%rbp)
	movq	%rsi, -8(%rbp)
Ltmp220:
	.loc	13 2022 71 prologue_end
	movq	(%rdi), %rdi
	.loc	13 2022 62 is_stmt 0
	callq	__ZN66_$LT$core..option..Option$LT$T$GT$$u20$as$u20$core..fmt..Debug$GT$3fmt17h4e8179c9b128ccf5E
	movb	%al, -17(%rbp)
	.loc	13 0 62
	movb	-17(%rbp), %al
	.loc	13 2022 84
	andb	$1, %al
	movzbl	%al, %eax
	addq	$32, %rsp
	popq	%rbp
	retq
Ltmp221:
Lfunc_end29:
	.cfi_endproc

	.globl	__ZN42_$LT$$RF$T$u20$as$u20$core..fmt..Debug$GT$3fmt17hbc9d3038b78effafE
	.p2align	4, 0x90
__ZN42_$LT$$RF$T$u20$as$u20$core..fmt..Debug$GT$3fmt17hbc9d3038b78effafE:
Lfunc_begin30:
	.loc	13 2022 0 is_stmt 1
	.cfi_startproc
	pushq	%rbp
	.cfi_def_cfa_offset 16
	.cfi_offset %rbp, -16
	movq	%rsp, %rbp
	.cfi_def_cfa_register %rbp
	subq	$32, %rsp
	movq	%rdi, -16(%rbp)
	movq	%rsi, -8(%rbp)
Ltmp222:
	.loc	13 2022 71 prologue_end
	movq	(%rdi), %rax
	movq	8(%rdi), %rcx
	.loc	13 2022 62 is_stmt 0
	movq	%rax, %rdi
	movq	%rsi, -24(%rbp)
	movq	%rcx, %rsi
	movq	-24(%rbp), %rdx
	callq	__ZN40_$LT$str$u20$as$u20$core..fmt..Debug$GT$3fmt17h5b42b6f497bd434cE
	movb	%al, -25(%rbp)
	.loc	13 0 62
	movb	-25(%rbp), %al
	.loc	13 2022 84
	andb	$1, %al
	movzbl	%al, %eax
	addq	$32, %rsp
	popq	%rbp
	retq
Ltmp223:
Lfunc_end30:
	.cfi_endproc

	.globl	__ZN42_$LT$$RF$T$u20$as$u20$core..fmt..Debug$GT$3fmt17hc862f7a24a6d575cE
	.p2align	4, 0x90
__ZN42_$LT$$RF$T$u20$as$u20$core..fmt..Debug$GT$3fmt17hc862f7a24a6d575cE:
Lfunc_begin31:
	.loc	13 2022 0 is_stmt 1
	.cfi_startproc
	pushq	%rbp
	.cfi_def_cfa_offset 16
	.cfi_offset %rbp, -16
	movq	%rsp, %rbp
	.cfi_def_cfa_register %rbp
	subq	$32, %rsp
	movq	%rdi, -16(%rbp)
	movq	%rsi, -8(%rbp)
Ltmp224:
	.loc	13 2022 71 prologue_end
	movq	(%rdi), %rdi
	.loc	13 2022 62 is_stmt 0
	callq	__ZN4core3fmt3num52_$LT$impl$u20$core..fmt..Debug$u20$for$u20$usize$GT$3fmt17h2a1f0fbcdf7b6d48E
	movb	%al, -17(%rbp)
	.loc	13 0 62
	movb	-17(%rbp), %al
	.loc	13 2022 84
	andb	$1, %al
	movzbl	%al, %eax
	addq	$32, %rsp
	popq	%rbp
	retq
Ltmp225:
Lfunc_end31:
	.cfi_endproc

	.globl	__ZN44_$LT$$RF$T$u20$as$u20$core..fmt..Display$GT$3fmt17h0cdabdf6613755f8E
	.p2align	4, 0x90
__ZN44_$LT$$RF$T$u20$as$u20$core..fmt..Display$GT$3fmt17h0cdabdf6613755f8E:
Lfunc_begin32:
	.loc	13 2022 0 is_stmt 1
	.cfi_startproc
	pushq	%rbp
	.cfi_def_cfa_offset 16
	.cfi_offset %rbp, -16
	movq	%rsp, %rbp
	.cfi_def_cfa_register %rbp
	subq	$32, %rsp
	movq	%rdi, -16(%rbp)
	movq	%rsi, -8(%rbp)
Ltmp226:
	.loc	13 2022 71 prologue_end
	movq	(%rdi), %rdi
	.loc	13 2022 62 is_stmt 0
	callq	__ZN4core3fmt3num3imp51_$LT$impl$u20$core..fmt..Display$u20$for$u20$i8$GT$3fmt17hc9fc67837369c997E
	movb	%al, -17(%rbp)
	.loc	13 0 62
	movb	-17(%rbp), %al
	.loc	13 2022 84
	andb	$1, %al
	movzbl	%al, %eax
	addq	$32, %rsp
	popq	%rbp
	retq
Ltmp227:
Lfunc_end32:
	.cfi_endproc

	.globl	__ZN44_$LT$$RF$T$u20$as$u20$core..fmt..Display$GT$3fmt17h0f7c3b874cfd471dE
	.p2align	4, 0x90
__ZN44_$LT$$RF$T$u20$as$u20$core..fmt..Display$GT$3fmt17h0f7c3b874cfd471dE:
Lfunc_begin33:
	.loc	13 2022 0 is_stmt 1
	.cfi_startproc
	pushq	%rbp
	.cfi_def_cfa_offset 16
	.cfi_offset %rbp, -16
	movq	%rsp, %rbp
	.cfi_def_cfa_register %rbp
	subq	$32, %rsp
	movq	%rdi, -16(%rbp)
	movq	%rsi, -8(%rbp)
Ltmp228:
	.loc	13 2022 71 prologue_end
	movq	(%rdi), %rdi
	.loc	13 2022 62 is_stmt 0
	callq	__ZN4core3fmt3num53_$LT$impl$u20$core..fmt..Display$u20$for$u20$u128$GT$3fmt17h24a40e99587872eaE
	movb	%al, -17(%rbp)
	.loc	13 0 62
	movb	-17(%rbp), %al
	.loc	13 2022 84
	andb	$1, %al
	movzbl	%al, %eax
	addq	$32, %rsp
	popq	%rbp
	retq
Ltmp229:
Lfunc_end33:
	.cfi_endproc

	.globl	__ZN44_$LT$$RF$T$u20$as$u20$core..fmt..Display$GT$3fmt17h1eb6e433be0c0d14E
	.p2align	4, 0x90
__ZN44_$LT$$RF$T$u20$as$u20$core..fmt..Display$GT$3fmt17h1eb6e433be0c0d14E:
Lfunc_begin34:
	.loc	13 2022 0 is_stmt 1
	.cfi_startproc
	pushq	%rbp
	.cfi_def_cfa_offset 16
	.cfi_offset %rbp, -16
	movq	%rsp, %rbp
	.cfi_def_cfa_register %rbp
	subq	$32, %rsp
	movq	%rdi, -16(%rbp)
	movq	%rsi, -8(%rbp)
Ltmp230:
	.loc	13 2022 71 prologue_end
	movq	(%rdi), %rdi
	.loc	13 2022 62 is_stmt 0
	callq	__ZN57_$LT$proc_macro2..Ident$u20$as$u20$core..fmt..Display$GT$3fmt17h0de376a985f8d1d3E
	movb	%al, -17(%rbp)
	.loc	13 0 62
	movb	-17(%rbp), %al
	.loc	13 2022 84
	andb	$1, %al
	movzbl	%al, %eax
	addq	$32, %rsp
	popq	%rbp
	retq
Ltmp231:
Lfunc_end34:
	.cfi_endproc

	.globl	__ZN44_$LT$$RF$T$u20$as$u20$core..fmt..Display$GT$3fmt17h29a3d28f3a5bd6fbE
	.p2align	4, 0x90
__ZN44_$LT$$RF$T$u20$as$u20$core..fmt..Display$GT$3fmt17h29a3d28f3a5bd6fbE:
Lfunc_begin35:
	.loc	13 2022 0 is_stmt 1
	.cfi_startproc
	pushq	%rbp
	.cfi_def_cfa_offset 16
	.cfi_offset %rbp, -16
	movq	%rsp, %rbp
	.cfi_def_cfa_register %rbp
	subq	$32, %rsp
	movq	%rdi, -16(%rbp)
	movq	%rsi, -8(%rbp)
Ltmp232:
	.loc	13 2022 71 prologue_end
	movq	(%rdi), %rax
	movq	8(%rdi), %rcx
	.loc	13 2022 62 is_stmt 0
	movq	%rax, %rdi
	movq	%rsi, -24(%rbp)
	movq	%rcx, %rsi
	movq	-24(%rbp), %rdx
	callq	__ZN42_$LT$str$u20$as$u20$core..fmt..Display$GT$3fmt17h6768afae62e94f93E
	movb	%al, -25(%rbp)
	.loc	13 0 62
	movb	-25(%rbp), %al
	.loc	13 2022 84
	andb	$1, %al
	movzbl	%al, %eax
	addq	$32, %rsp
	popq	%rbp
	retq
Ltmp233:
Lfunc_end35:
	.cfi_endproc

	.globl	__ZN44_$LT$$RF$T$u20$as$u20$core..fmt..Display$GT$3fmt17h2ace56d34b473260E
	.p2align	4, 0x90
__ZN44_$LT$$RF$T$u20$as$u20$core..fmt..Display$GT$3fmt17h2ace56d34b473260E:
Lfunc_begin36:
	.loc	13 2022 0 is_stmt 1
	.cfi_startproc
	pushq	%rbp
	.cfi_def_cfa_offset 16
	.cfi_offset %rbp, -16
	movq	%rsp, %rbp
	.cfi_def_cfa_register %rbp
	subq	$32, %rsp
	movq	%rdi, -16(%rbp)
	movq	%rsi, -8(%rbp)
Ltmp234:
	.loc	13 2022 71 prologue_end
	movq	(%rdi), %rdi
	.loc	13 2022 62 is_stmt 0
	callq	__ZN4core3fmt5float52_$LT$impl$u20$core..fmt..Display$u20$for$u20$f64$GT$3fmt17h6661f4669fdcb1d1E
	movb	%al, -17(%rbp)
	.loc	13 0 62
	movb	-17(%rbp), %al
	.loc	13 2022 84
	andb	$1, %al
	movzbl	%al, %eax
	addq	$32, %rsp
	popq	%rbp
	retq
Ltmp235:
Lfunc_end36:
	.cfi_endproc

	.globl	__ZN44_$LT$$RF$T$u20$as$u20$core..fmt..Display$GT$3fmt17h2bbfb41fb55703b7E
	.p2align	4, 0x90
__ZN44_$LT$$RF$T$u20$as$u20$core..fmt..Display$GT$3fmt17h2bbfb41fb55703b7E:
Lfunc_begin37:
	.loc	13 2022 0 is_stmt 1
	.cfi_startproc
	pushq	%rbp
	.cfi_def_cfa_offset 16
	.cfi_offset %rbp, -16
	movq	%rsp, %rbp
	.cfi_def_cfa_register %rbp
	subq	$32, %rsp
	movq	%rdi, -16(%rbp)
	movq	%rsi, -8(%rbp)
Ltmp236:
	.loc	13 2022 71 prologue_end
	movq	(%rdi), %rdi
	.loc	13 2022 62 is_stmt 0
	callq	__ZN4core3fmt5float52_$LT$impl$u20$core..fmt..Display$u20$for$u20$f32$GT$3fmt17h2c999d2555a315baE
	movb	%al, -17(%rbp)
	.loc	13 0 62
	movb	-17(%rbp), %al
	.loc	13 2022 84
	andb	$1, %al
	movzbl	%al, %eax
	addq	$32, %rsp
	popq	%rbp
	retq
Ltmp237:
Lfunc_end37:
	.cfi_endproc

	.globl	__ZN44_$LT$$RF$T$u20$as$u20$core..fmt..Display$GT$3fmt17h46f9f75da702b4bbE
	.p2align	4, 0x90
__ZN44_$LT$$RF$T$u20$as$u20$core..fmt..Display$GT$3fmt17h46f9f75da702b4bbE:
Lfunc_begin38:
	.loc	13 2022 0 is_stmt 1
	.cfi_startproc
	pushq	%rbp
	.cfi_def_cfa_offset 16
	.cfi_offset %rbp, -16
	movq	%rsp, %rbp
	.cfi_def_cfa_register %rbp
	subq	$32, %rsp
	movq	%rdi, -16(%rbp)
	movq	%rsi, -8(%rbp)
Ltmp238:
	.loc	13 2022 71 prologue_end
	movq	(%rdi), %rdi
	.loc	13 2022 62 is_stmt 0
	callq	__ZN4core3fmt3num53_$LT$impl$u20$core..fmt..Display$u20$for$u20$i128$GT$3fmt17hc0ccce97b0b9069fE
	movb	%al, -17(%rbp)
	.loc	13 0 62
	movb	-17(%rbp), %al
	.loc	13 2022 84
	andb	$1, %al
	movzbl	%al, %eax
	addq	$32, %rsp
	popq	%rbp
	retq
Ltmp239:
Lfunc_end38:
	.cfi_endproc

	.globl	__ZN44_$LT$$RF$T$u20$as$u20$core..fmt..Display$GT$3fmt17h4e51ce75ef906185E
	.p2align	4, 0x90
__ZN44_$LT$$RF$T$u20$as$u20$core..fmt..Display$GT$3fmt17h4e51ce75ef906185E:
Lfunc_begin39:
	.loc	13 2022 0 is_stmt 1
	.cfi_startproc
	pushq	%rbp
	.cfi_def_cfa_offset 16
	.cfi_offset %rbp, -16
	movq	%rsp, %rbp
	.cfi_def_cfa_register %rbp
	subq	$32, %rsp
	movq	%rdi, -16(%rbp)
	movq	%rsi, -8(%rbp)
Ltmp240:
	.loc	13 2022 71 prologue_end
	movq	(%rdi), %rdi
	.loc	13 2022 62 is_stmt 0
	callq	__ZN4core3fmt3num3imp54_$LT$impl$u20$core..fmt..Display$u20$for$u20$usize$GT$3fmt17h12ea2856299c9b06E
	movb	%al, -17(%rbp)
	.loc	13 0 62
	movb	-17(%rbp), %al
	.loc	13 2022 84
	andb	$1, %al
	movzbl	%al, %eax
	addq	$32, %rsp
	popq	%rbp
	retq
Ltmp241:
Lfunc_end39:
	.cfi_endproc

	.globl	__ZN44_$LT$$RF$T$u20$as$u20$core..fmt..Display$GT$3fmt17h55c15f5da4bbc2c8E
	.p2align	4, 0x90
__ZN44_$LT$$RF$T$u20$as$u20$core..fmt..Display$GT$3fmt17h55c15f5da4bbc2c8E:
Lfunc_begin40:
	.loc	13 2022 0 is_stmt 1
	.cfi_startproc
	pushq	%rbp
	.cfi_def_cfa_offset 16
	.cfi_offset %rbp, -16
	movq	%rsp, %rbp
	.cfi_def_cfa_register %rbp
	subq	$32, %rsp
	movq	%rdi, -16(%rbp)
	movq	%rsi, -8(%rbp)
Ltmp242:
	.loc	13 2022 71 prologue_end
	movq	(%rdi), %rdi
	.loc	13 2022 62 is_stmt 0
	callq	__ZN59_$LT$proc_macro2..Literal$u20$as$u20$core..fmt..Display$GT$3fmt17h488f0c4834bead5dE
	movb	%al, -17(%rbp)
	.loc	13 0 62
	movb	-17(%rbp), %al
	.loc	13 2022 84
	andb	$1, %al
	movzbl	%al, %eax
	addq	$32, %rsp
	popq	%rbp
	retq
Ltmp243:
Lfunc_end40:
	.cfi_endproc

	.globl	__ZN44_$LT$$RF$T$u20$as$u20$core..fmt..Display$GT$3fmt17h6a9689032029fc46E
	.p2align	4, 0x90
__ZN44_$LT$$RF$T$u20$as$u20$core..fmt..Display$GT$3fmt17h6a9689032029fc46E:
Lfunc_begin41:
	.loc	13 2022 0 is_stmt 1
	.cfi_startproc
	pushq	%rbp
	.cfi_def_cfa_offset 16
	.cfi_offset %rbp, -16
	movq	%rsp, %rbp
	.cfi_def_cfa_register %rbp
	subq	$32, %rsp
	movq	%rdi, -16(%rbp)
	movq	%rsi, -8(%rbp)
Ltmp244:
	.loc	13 2022 71 prologue_end
	movq	(%rdi), %rdi
	.loc	13 2022 62 is_stmt 0
	callq	__ZN73_$LT$proc_macro2..fallback..TokenStream$u20$as$u20$core..fmt..Display$GT$3fmt17hd66667b192a234f6E
	movb	%al, -17(%rbp)
	.loc	13 0 62
	movb	-17(%rbp), %al
	.loc	13 2022 84
	andb	$1, %al
	movzbl	%al, %eax
	addq	$32, %rsp
	popq	%rbp
	retq
Ltmp245:
Lfunc_end41:
	.cfi_endproc

	.globl	__ZN44_$LT$$RF$T$u20$as$u20$core..fmt..Display$GT$3fmt17h6d83759b41ab0999E
	.p2align	4, 0x90
__ZN44_$LT$$RF$T$u20$as$u20$core..fmt..Display$GT$3fmt17h6d83759b41ab0999E:
Lfunc_begin42:
	.loc	13 2022 0 is_stmt 1
	.cfi_startproc
	pushq	%rbp
	.cfi_def_cfa_offset 16
	.cfi_offset %rbp, -16
	movq	%rsp, %rbp
	.cfi_def_cfa_register %rbp
	subq	$32, %rsp
	movq	%rdi, -16(%rbp)
	movq	%rsi, -8(%rbp)
Ltmp246:
	.loc	13 2022 71 prologue_end
	movq	(%rdi), %rdi
	.loc	13 2022 62 is_stmt 0
	callq	__ZN4core3fmt3num3imp52_$LT$impl$u20$core..fmt..Display$u20$for$u20$i64$GT$3fmt17h310ed6661e8c983fE
	movb	%al, -17(%rbp)
	.loc	13 0 62
	movb	-17(%rbp), %al
	.loc	13 2022 84
	andb	$1, %al
	movzbl	%al, %eax
	addq	$32, %rsp
	popq	%rbp
	retq
Ltmp247:
Lfunc_end42:
	.cfi_endproc

	.globl	__ZN44_$LT$$RF$T$u20$as$u20$core..fmt..Display$GT$3fmt17h726b0d3f1eb6044cE
	.p2align	4, 0x90
__ZN44_$LT$$RF$T$u20$as$u20$core..fmt..Display$GT$3fmt17h726b0d3f1eb6044cE:
Lfunc_begin43:
	.loc	13 2022 0 is_stmt 1
	.cfi_startproc
	pushq	%rbp
	.cfi_def_cfa_offset 16
	.cfi_offset %rbp, -16
	movq	%rsp, %rbp
	.cfi_def_cfa_register %rbp
	subq	$32, %rsp
	movq	%rdi, -16(%rbp)
	movq	%rsi, -8(%rbp)
Ltmp248:
	.loc	13 2022 71 prologue_end
	movq	(%rdi), %rdi
	.loc	13 2022 62 is_stmt 0
	callq	__ZN4core3fmt3num3imp52_$LT$impl$u20$core..fmt..Display$u20$for$u20$i32$GT$3fmt17h00ed7ff77f9da654E
	movb	%al, -17(%rbp)
	.loc	13 0 62
	movb	-17(%rbp), %al
	.loc	13 2022 84
	andb	$1, %al
	movzbl	%al, %eax
	addq	$32, %rsp
	popq	%rbp
	retq
Ltmp249:
Lfunc_end43:
	.cfi_endproc

	.globl	__ZN44_$LT$$RF$T$u20$as$u20$core..fmt..Display$GT$3fmt17h9d1bf4a62f3b809cE
	.p2align	4, 0x90
__ZN44_$LT$$RF$T$u20$as$u20$core..fmt..Display$GT$3fmt17h9d1bf4a62f3b809cE:
Lfunc_begin44:
	.loc	13 2022 0 is_stmt 1
	.cfi_startproc
	pushq	%rbp
	.cfi_def_cfa_offset 16
	.cfi_offset %rbp, -16
	movq	%rsp, %rbp
	.cfi_def_cfa_register %rbp
	subq	$32, %rsp
	movq	%rdi, -16(%rbp)
	movq	%rsi, -8(%rbp)
Ltmp250:
	.loc	13 2022 71 prologue_end
	movq	(%rdi), %rdi
	.loc	13 2022 62 is_stmt 0
	callq	__ZN67_$LT$proc_macro2..fallback..Ident$u20$as$u20$core..fmt..Display$GT$3fmt17h7c4c51dbac9c9b76E
	movb	%al, -17(%rbp)
	.loc	13 0 62
	movb	-17(%rbp), %al
	.loc	13 2022 84
	andb	$1, %al
	movzbl	%al, %eax
	addq	$32, %rsp
	popq	%rbp
	retq
Ltmp251:
Lfunc_end44:
	.cfi_endproc

	.globl	__ZN44_$LT$$RF$T$u20$as$u20$core..fmt..Display$GT$3fmt17ha5969ed394b5c879E
	.p2align	4, 0x90
__ZN44_$LT$$RF$T$u20$as$u20$core..fmt..Display$GT$3fmt17ha5969ed394b5c879E:
Lfunc_begin45:
	.loc	13 2022 0 is_stmt 1
	.cfi_startproc
	pushq	%rbp
	.cfi_def_cfa_offset 16
	.cfi_offset %rbp, -16
	movq	%rsp, %rbp
	.cfi_def_cfa_register %rbp
	subq	$32, %rsp
	movq	%rdi, -16(%rbp)
	movq	%rsi, -8(%rbp)
Ltmp252:
	.loc	13 2022 71 prologue_end
	movq	(%rdi), %rdi
	.loc	13 2022 62 is_stmt 0
	callq	__ZN4core3fmt3num3imp52_$LT$impl$u20$core..fmt..Display$u20$for$u20$u64$GT$3fmt17h3230c9bc78e30ed1E
	movb	%al, -17(%rbp)
	.loc	13 0 62
	movb	-17(%rbp), %al
	.loc	13 2022 84
	andb	$1, %al
	movzbl	%al, %eax
	addq	$32, %rsp
	popq	%rbp
	retq
Ltmp253:
Lfunc_end45:
	.cfi_endproc

	.globl	__ZN44_$LT$$RF$T$u20$as$u20$core..fmt..Display$GT$3fmt17had9d02d2d046aab8E
	.p2align	4, 0x90
__ZN44_$LT$$RF$T$u20$as$u20$core..fmt..Display$GT$3fmt17had9d02d2d046aab8E:
Lfunc_begin46:
	.loc	13 2022 0 is_stmt 1
	.cfi_startproc
	pushq	%rbp
	.cfi_def_cfa_offset 16
	.cfi_offset %rbp, -16
	movq	%rsp, %rbp
	.cfi_def_cfa_register %rbp
	subq	$32, %rsp
	movq	%rdi, -16(%rbp)
	movq	%rsi, -8(%rbp)
Ltmp254:
	.loc	13 2022 71 prologue_end
	movq	(%rdi), %rdi
	.loc	13 2022 62 is_stmt 0
	callq	__ZN4core3fmt3num3imp51_$LT$impl$u20$core..fmt..Display$u20$for$u20$u8$GT$3fmt17hac49effbf87f075dE
	movb	%al, -17(%rbp)
	.loc	13 0 62
	movb	-17(%rbp), %al
	.loc	13 2022 84
	andb	$1, %al
	movzbl	%al, %eax
	addq	$32, %rsp
	popq	%rbp
	retq
Ltmp255:
Lfunc_end46:
	.cfi_endproc

	.globl	__ZN44_$LT$$RF$T$u20$as$u20$core..fmt..Display$GT$3fmt17hbbdeefb982f068ecE
	.p2align	4, 0x90
__ZN44_$LT$$RF$T$u20$as$u20$core..fmt..Display$GT$3fmt17hbbdeefb982f068ecE:
Lfunc_begin47:
	.loc	13 2022 0 is_stmt 1
	.cfi_startproc
	pushq	%rbp
	.cfi_def_cfa_offset 16
	.cfi_offset %rbp, -16
	movq	%rsp, %rbp
	.cfi_def_cfa_register %rbp
	subq	$32, %rsp
	movq	%rdi, -16(%rbp)
	movq	%rsi, -8(%rbp)
Ltmp256:
	.loc	13 2022 71 prologue_end
	movq	(%rdi), %rdi
	.loc	13 2022 62 is_stmt 0
	callq	__ZN4core3fmt3num3imp54_$LT$impl$u20$core..fmt..Display$u20$for$u20$isize$GT$3fmt17h236bd2501b52340bE
	movb	%al, -17(%rbp)
	.loc	13 0 62
	movb	-17(%rbp), %al
	.loc	13 2022 84
	andb	$1, %al
	movzbl	%al, %eax
	addq	$32, %rsp
	popq	%rbp
	retq
Ltmp257:
Lfunc_end47:
	.cfi_endproc

	.globl	__ZN44_$LT$$RF$T$u20$as$u20$core..fmt..Display$GT$3fmt17hc71cd1eb79760cf7E
	.p2align	4, 0x90
__ZN44_$LT$$RF$T$u20$as$u20$core..fmt..Display$GT$3fmt17hc71cd1eb79760cf7E:
Lfunc_begin48:
	.loc	13 2022 0 is_stmt 1
	.cfi_startproc
	pushq	%rbp
	.cfi_def_cfa_offset 16
	.cfi_offset %rbp, -16
	movq	%rsp, %rbp
	.cfi_def_cfa_register %rbp
	subq	$32, %rsp
	movq	%rdi, -16(%rbp)
	movq	%rsi, -8(%rbp)
Ltmp258:
	.loc	13 2022 71 prologue_end
	movq	(%rdi), %rdi
	.loc	13 2022 62 is_stmt 0
	callq	__ZN4core3fmt3num3imp52_$LT$impl$u20$core..fmt..Display$u20$for$u20$u32$GT$3fmt17hb70882cf65fd1a66E
	movb	%al, -17(%rbp)
	.loc	13 0 62
	movb	-17(%rbp), %al
	.loc	13 2022 84
	andb	$1, %al
	movzbl	%al, %eax
	addq	$32, %rsp
	popq	%rbp
	retq
Ltmp259:
Lfunc_end48:
	.cfi_endproc

	.globl	__ZN44_$LT$$RF$T$u20$as$u20$core..fmt..Display$GT$3fmt17hd13008ca21e15c99E
	.p2align	4, 0x90
__ZN44_$LT$$RF$T$u20$as$u20$core..fmt..Display$GT$3fmt17hd13008ca21e15c99E:
Lfunc_begin49:
	.loc	13 2022 0 is_stmt 1
	.cfi_startproc
	pushq	%rbp
	.cfi_def_cfa_offset 16
	.cfi_offset %rbp, -16
	movq	%rsp, %rbp
	.cfi_def_cfa_register %rbp
	subq	$32, %rsp
	movq	%rdi, -16(%rbp)
	movq	%rsi, -8(%rbp)
Ltmp260:
	.loc	13 2022 71 prologue_end
	movq	(%rdi), %rdi
	.loc	13 2022 62 is_stmt 0
	callq	__ZN4core3fmt3num3imp52_$LT$impl$u20$core..fmt..Display$u20$for$u20$i16$GT$3fmt17h7c7135e52a8bf68aE
	movb	%al, -17(%rbp)
	.loc	13 0 62
	movb	-17(%rbp), %al
	.loc	13 2022 84
	andb	$1, %al
	movzbl	%al, %eax
	addq	$32, %rsp
	popq	%rbp
	retq
Ltmp261:
Lfunc_end49:
	.cfi_endproc

	.globl	__ZN44_$LT$$RF$T$u20$as$u20$core..fmt..Display$GT$3fmt17hd58ea114d10999f9E
	.p2align	4, 0x90
__ZN44_$LT$$RF$T$u20$as$u20$core..fmt..Display$GT$3fmt17hd58ea114d10999f9E:
Lfunc_begin50:
	.loc	13 2022 0 is_stmt 1
	.cfi_startproc
	pushq	%rbp
	.cfi_def_cfa_offset 16
	.cfi_offset %rbp, -16
	movq	%rsp, %rbp
	.cfi_def_cfa_register %rbp
	subq	$32, %rsp
	movq	%rdi, -16(%rbp)
	movq	%rsi, -8(%rbp)
Ltmp262:
	.loc	13 2022 71 prologue_end
	movq	(%rdi), %rdi
	.loc	13 2022 62 is_stmt 0
	callq	__ZN4core3fmt3num3imp52_$LT$impl$u20$core..fmt..Display$u20$for$u20$u16$GT$3fmt17h5ce1a50c193bc52eE
	movb	%al, -17(%rbp)
	.loc	13 0 62
	movb	-17(%rbp), %al
	.loc	13 2022 84
	andb	$1, %al
	movzbl	%al, %eax
	addq	$32, %rsp
	popq	%rbp
	retq
Ltmp263:
Lfunc_end50:
	.cfi_endproc

	.p2align	4, 0x90
__ZN44_$LT$u8$u20$as$u20$core..slice..SliceOrd$GT$7compare17hb4472a3c776791afE:
Lfunc_begin51:
	.loc	3 6374 0 is_stmt 1
	.cfi_startproc
	pushq	%rbp
	.cfi_def_cfa_offset 16
	.cfi_offset %rbp, -16
	movq	%rsp, %rbp
	.cfi_def_cfa_register %rbp
	subq	$144, %rsp
	movq	%rdi, -40(%rbp)
	movq	%rsi, -32(%rbp)
	movq	%rdx, -24(%rbp)
	movq	%rcx, -16(%rbp)
	movq	%rdi, -72(%rbp)
	movq	%rsi, -80(%rbp)
	movq	%rdx, -88(%rbp)
	movq	%rcx, -96(%rbp)
Ltmp264:
	.loc	3 6376 29 prologue_end
	callq	__ZN4core5slice29_$LT$impl$u20$$u5b$T$u5d$$GT$6as_ptr17hc19036946d039267E
	movq	%rax, -104(%rbp)
	.loc	3 0 29 is_stmt 0
	movq	-88(%rbp), %rdi
	movq	-96(%rbp), %rsi
	.loc	3 6376 44
	callq	__ZN4core5slice29_$LT$impl$u20$$u5b$T$u5d$$GT$6as_ptr17hc19036946d039267E
	movq	%rax, -112(%rbp)
	.loc	3 0 44
	movq	-72(%rbp), %rdi
	movq	-80(%rbp), %rsi
	.loc	3 6376 69
	callq	__ZN4core5slice29_$LT$impl$u20$$u5b$T$u5d$$GT$3len17h486ca3fc336839a0E
	movq	%rax, -120(%rbp)
	.loc	3 0 69
	movq	-88(%rbp), %rdi
	movq	-96(%rbp), %rsi
	.loc	3 6376 81
	callq	__ZN4core5slice29_$LT$impl$u20$$u5b$T$u5d$$GT$3len17h486ca3fc336839a0E
	movq	%rax, -128(%rbp)
	.loc	3 0 81
	movq	-120(%rbp), %rdi
	movq	-128(%rbp), %rsi
	.loc	3 6376 60
	callq	__ZN4core3cmp3min17h58d1458537d9a87cE
	movq	%rax, -136(%rbp)
	.loc	3 0 60
	movq	-104(%rbp), %rdi
	movq	-112(%rbp), %rsi
	movq	-136(%rbp), %rdx
	.loc	3 6376 22
	callq	_memcmp
	movl	%eax, -4(%rbp)
	movl	%eax, -140(%rbp)
	.loc	3 0 22
	movl	-140(%rbp), %eax
Ltmp265:
	.loc	3 6377 12 is_stmt 1
	cmpl	$0, %eax
	.loc	3 6377 9 is_stmt 0
	je	LBB51_8
	.loc	3 0 9
	movl	-140(%rbp), %eax
	.loc	3 6379 19 is_stmt 1
	cmpl	$0, %eax
	.loc	3 6379 16 is_stmt 0
	jl	LBB51_13
	jmp	LBB51_12
LBB51_8:
	.loc	3 0 16
	movq	-72(%rbp), %rdi
	movq	-80(%rbp), %rsi
	.loc	3 6378 13 is_stmt 1
	callq	__ZN4core5slice29_$LT$impl$u20$$u5b$T$u5d$$GT$3len17h486ca3fc336839a0E
	movq	%rax, -56(%rbp)
	.loc	3 0 13 is_stmt 0
	movq	-88(%rbp), %rdi
	movq	-96(%rbp), %rsi
	.loc	3 6378 29
	callq	__ZN4core5slice29_$LT$impl$u20$$u5b$T$u5d$$GT$3len17h486ca3fc336839a0E
	movq	%rax, -48(%rbp)
	.loc	3 6378 13
	leaq	-56(%rbp), %rdi
	leaq	-48(%rbp), %rsi
	callq	__ZN4core3cmp5impls50_$LT$impl$u20$core..cmp..Ord$u20$for$u20$usize$GT$3cmp17h2691ae7e1cf7b8e8E
	movb	%al, -57(%rbp)
	.loc	3 6377 9 is_stmt 1
	jmp	LBB51_15
LBB51_12:
	.loc	3 6382 13
	movb	$1, -57(%rbp)
	.loc	3 6379 16
	jmp	LBB51_14
LBB51_13:
	.loc	3 6380 13
	movb	$-1, -57(%rbp)
LBB51_14:
	.loc	3 6377 9
	jmp	LBB51_15
Ltmp266:
LBB51_15:
	.loc	3 6384 6
	movb	-57(%rbp), %al
	addq	$144, %rsp
	popq	%rbp
	retq
Ltmp267:
Lfunc_end51:
	.cfi_endproc

	.globl	__ZN45_$LT$$RF$T$u20$as$u20$core..fmt..UpperHex$GT$3fmt17h2f7e66a132a4ecbfE
	.p2align	4, 0x90
__ZN45_$LT$$RF$T$u20$as$u20$core..fmt..UpperHex$GT$3fmt17h2f7e66a132a4ecbfE:
Lfunc_begin52:
	.loc	13 2022 0
	.cfi_startproc
	pushq	%rbp
	.cfi_def_cfa_offset 16
	.cfi_offset %rbp, -16
	movq	%rsp, %rbp
	.cfi_def_cfa_register %rbp
	subq	$32, %rsp
	movq	%rdi, -16(%rbp)
	movq	%rsi, -8(%rbp)
Ltmp268:
	.loc	13 2022 71 prologue_end
	movq	(%rdi), %rdi
	.loc	13 2022 62 is_stmt 0
	callq	__ZN4core3fmt3num52_$LT$impl$u20$core..fmt..UpperHex$u20$for$u20$u8$GT$3fmt17hdec4e64a988d6129E
	movb	%al, -17(%rbp)
	.loc	13 0 62
	movb	-17(%rbp), %al
	.loc	13 2022 84
	andb	$1, %al
	movzbl	%al, %eax
	addq	$32, %rsp
	popq	%rbp
	retq
Ltmp269:
Lfunc_end52:
	.cfi_endproc

	.globl	__ZN45_$LT$T$u20$as$u20$alloc..string..ToString$GT$9to_string17h189753a6955ddb41E
	.p2align	4, 0x90
__ZN45_$LT$T$u20$as$u20$alloc..string..ToString$GT$9to_string17h189753a6955ddb41E:
Lfunc_begin53:
	.loc	2 2200 0 is_stmt 1
	.cfi_startproc
	.cfi_personality 155, _rust_eh_personality
	.cfi_lsda 16, Lexception6
	pushq	%rbp
	.cfi_def_cfa_offset 16
	.cfi_offset %rbp, -16
	movq	%rsp, %rbp
	.cfi_def_cfa_register %rbp
	subq	$176, %rsp
	movq	%rdi, %rax
	movq	%rsi, -104(%rbp)
Ltmp281:
	movq	%rdi, -112(%rbp)
Ltmp282:
	movq	%rax, -120(%rbp)
Ltmp283:
	.loc	2 2202 23 prologue_end
	callq	__ZN5alloc6string6String3new17h7fe5a4fdd9fe8d1fE
	jmp	LBB53_2
Ltmp284:
LBB53_1:
	.loc	2 2200 5
	movq	-16(%rbp), %rdi
	callq	__Unwind_Resume
	ud2
LBB53_2:
Ltmp285:
	.loc	2 2203 36
	movq	l___unnamed_21(%rip), %rsi
	leaq	-104(%rbp), %rax
	.loc	2 2203 23 is_stmt 0
	movq	%rax, -32(%rbp)
	.loc	2 2203 42
	movq	-32(%rbp), %rax
	movq	%rax, -24(%rbp)
Ltmp270:
Ltmp286:
	.loc	2 2203 23
	leaq	__ZN44_$LT$$RF$T$u20$as$u20$core..fmt..Display$GT$3fmt17h0f7c3b874cfd471dE(%rip), %rcx
	movq	%rax, %rdi
	movq	%rsi, -128(%rbp)
	movq	%rcx, %rsi
	callq	__ZN4core3fmt10ArgumentV13new17ha052feb85258210dE
Ltmp271:
	movq	%rdx, -136(%rbp)
	movq	%rax, -144(%rbp)
	jmp	LBB53_3
Ltmp287:
LBB53_3:
	.loc	2 0 23
	movq	-144(%rbp), %rax
	.loc	2 2203 23
	movq	%rax, -48(%rbp)
	movq	-136(%rbp), %rcx
	movq	%rcx, -40(%rbp)
Ltmp272:
	leaq	-96(%rbp), %rdi
	leaq	-48(%rbp), %rcx
	movl	$1, %edx
	movq	-128(%rbp), %rsi
	movq	%rdx, -152(%rbp)
	movq	-152(%rbp), %r8
Ltmp288:
	.loc	2 2203 23
	callq	__ZN4core3fmt9Arguments6new_v117h7e04578d4a7b2a9fE
Ltmp273:
	jmp	LBB53_5
Ltmp289:
LBB53_4:
	.loc	2 0 23
	movq	-112(%rbp), %rdi
	.loc	2 2207 5 is_stmt 1
	callq	__ZN4core3ptr13drop_in_place17hddc2ddb5a516c59bE
	jmp	LBB53_1
LBB53_5:
Ltmp290:
Ltmp274:
	.loc	2 0 5 is_stmt 0
	leaq	-96(%rbp), %rsi
	movq	-112(%rbp), %rdi
Ltmp291:
	.loc	2 2203 9 is_stmt 1
	callq	__ZN4core3fmt5Write9write_fmt17h944bf95f141f8360E
Ltmp275:
	movb	%al, -153(%rbp)
	jmp	LBB53_6
Ltmp292:
LBB53_6:
Ltmp276:
	.loc	2 0 9 is_stmt 0
	movb	-153(%rbp), %al
	.loc	2 2203 9
	movzbl	%al, %ecx
	andl	$1, %ecx
	leaq	l___unnamed_22(%rip), %rsi
	leaq	l___unnamed_23(%rip), %rdx
	movl	$55, %edi
	movq	%rdi, -168(%rbp)
	movl	%ecx, %edi
	movq	-168(%rbp), %r8
	movq	%rdx, -176(%rbp)
	movq	%r8, %rdx
	movq	-176(%rbp), %rcx
	callq	__ZN4core6result19Result$LT$T$C$E$GT$6expect17h5006d59a6e486344E
Ltmp277:
	jmp	LBB53_7
Ltmp293:
LBB53_7:
Ltmp278:
	.loc	2 0 9
	movq	-112(%rbp), %rdi
	.loc	2 2205 9 is_stmt 1
	callq	__ZN5alloc6string6String13shrink_to_fit17h946efa66aea93fbbE
Ltmp279:
	jmp	LBB53_8
Ltmp294:
LBB53_8:
	.loc	2 0 9 is_stmt 0
	movq	-120(%rbp), %rax
	.loc	2 2207 6 is_stmt 1
	addq	$176, %rsp
	popq	%rbp
	retq
Ltmp295:
LBB53_9:
Ltmp280:
	.loc	2 0 6 is_stmt 0
	movq	%rax, -16(%rbp)
	movl	%edx, -8(%rbp)
	jmp	LBB53_4
Lfunc_end53:
	.cfi_endproc
	.section	__TEXT,__gcc_except_tab
	.p2align	2
GCC_except_table53:
Lexception6:
	.byte	255
	.byte	255
	.byte	1
	.uleb128 Lcst_end6-Lcst_begin6
Lcst_begin6:
	.uleb128 Lfunc_begin53-Lfunc_begin53
	.uleb128 Ltmp270-Lfunc_begin53
	.byte	0
	.byte	0
	.uleb128 Ltmp270-Lfunc_begin53
	.uleb128 Ltmp273-Ltmp270
	.uleb128 Ltmp280-Lfunc_begin53
	.byte	0
	.uleb128 Ltmp273-Lfunc_begin53
	.uleb128 Ltmp274-Ltmp273
	.byte	0
	.byte	0
	.uleb128 Ltmp274-Lfunc_begin53
	.uleb128 Ltmp279-Ltmp274
	.uleb128 Ltmp280-Lfunc_begin53
	.byte	0
Lcst_end6:
	.p2align	2

	.section	__TEXT,__text,regular,pure_instructions
	.globl	__ZN45_$LT$T$u20$as$u20$alloc..string..ToString$GT$9to_string17h1bb278ca030a4764E
	.p2align	4, 0x90
__ZN45_$LT$T$u20$as$u20$alloc..string..ToString$GT$9to_string17h1bb278ca030a4764E:
Lfunc_begin54:
	.loc	2 2200 0 is_stmt 1
	.cfi_startproc
	.cfi_personality 155, _rust_eh_personality
	.cfi_lsda 16, Lexception7
	pushq	%rbp
	.cfi_def_cfa_offset 16
	.cfi_offset %rbp, -16
	movq	%rsp, %rbp
	.cfi_def_cfa_register %rbp
	subq	$176, %rsp
	movq	%rdi, %rax
	movq	%rsi, -104(%rbp)
Ltmp307:
	movq	%rdi, -112(%rbp)
Ltmp308:
	movq	%rax, -120(%rbp)
Ltmp309:
	.loc	2 2202 23 prologue_end
	callq	__ZN5alloc6string6String3new17h7fe5a4fdd9fe8d1fE
	jmp	LBB54_2
Ltmp310:
LBB54_1:
	.loc	2 2200 5
	movq	-16(%rbp), %rdi
	callq	__Unwind_Resume
	ud2
LBB54_2:
Ltmp311:
	.loc	2 2203 36
	movq	l___unnamed_21(%rip), %rsi
	leaq	-104(%rbp), %rax
	.loc	2 2203 23 is_stmt 0
	movq	%rax, -32(%rbp)
	.loc	2 2203 42
	movq	-32(%rbp), %rax
	movq	%rax, -24(%rbp)
Ltmp296:
Ltmp312:
	.loc	2 2203 23
	leaq	__ZN44_$LT$$RF$T$u20$as$u20$core..fmt..Display$GT$3fmt17h1eb6e433be0c0d14E(%rip), %rcx
	movq	%rax, %rdi
	movq	%rsi, -128(%rbp)
	movq	%rcx, %rsi
	callq	__ZN4core3fmt10ArgumentV13new17h1af56f51994e83d2E
Ltmp297:
	movq	%rdx, -136(%rbp)
	movq	%rax, -144(%rbp)
	jmp	LBB54_3
Ltmp313:
LBB54_3:
	.loc	2 0 23
	movq	-144(%rbp), %rax
	.loc	2 2203 23
	movq	%rax, -48(%rbp)
	movq	-136(%rbp), %rcx
	movq	%rcx, -40(%rbp)
Ltmp298:
	leaq	-96(%rbp), %rdi
	leaq	-48(%rbp), %rcx
	movl	$1, %edx
	movq	-128(%rbp), %rsi
	movq	%rdx, -152(%rbp)
	movq	-152(%rbp), %r8
Ltmp314:
	.loc	2 2203 23
	callq	__ZN4core3fmt9Arguments6new_v117h7e04578d4a7b2a9fE
Ltmp299:
	jmp	LBB54_5
Ltmp315:
LBB54_4:
	.loc	2 0 23
	movq	-112(%rbp), %rdi
	.loc	2 2207 5 is_stmt 1
	callq	__ZN4core3ptr13drop_in_place17hddc2ddb5a516c59bE
	jmp	LBB54_1
LBB54_5:
Ltmp316:
Ltmp300:
	.loc	2 0 5 is_stmt 0
	leaq	-96(%rbp), %rsi
	movq	-112(%rbp), %rdi
Ltmp317:
	.loc	2 2203 9 is_stmt 1
	callq	__ZN4core3fmt5Write9write_fmt17h944bf95f141f8360E
Ltmp301:
	movb	%al, -153(%rbp)
	jmp	LBB54_6
Ltmp318:
LBB54_6:
Ltmp302:
	.loc	2 0 9 is_stmt 0
	movb	-153(%rbp), %al
	.loc	2 2203 9
	movzbl	%al, %ecx
	andl	$1, %ecx
	leaq	l___unnamed_22(%rip), %rsi
	leaq	l___unnamed_23(%rip), %rdx
	movl	$55, %edi
	movq	%rdi, -168(%rbp)
	movl	%ecx, %edi
	movq	-168(%rbp), %r8
	movq	%rdx, -176(%rbp)
	movq	%r8, %rdx
	movq	-176(%rbp), %rcx
	callq	__ZN4core6result19Result$LT$T$C$E$GT$6expect17h5006d59a6e486344E
Ltmp303:
	jmp	LBB54_7
Ltmp319:
LBB54_7:
Ltmp304:
	.loc	2 0 9
	movq	-112(%rbp), %rdi
	.loc	2 2205 9 is_stmt 1
	callq	__ZN5alloc6string6String13shrink_to_fit17h946efa66aea93fbbE
Ltmp305:
	jmp	LBB54_8
Ltmp320:
LBB54_8:
	.loc	2 0 9 is_stmt 0
	movq	-120(%rbp), %rax
	.loc	2 2207 6 is_stmt 1
	addq	$176, %rsp
	popq	%rbp
	retq
Ltmp321:
LBB54_9:
Ltmp306:
	.loc	2 0 6 is_stmt 0
	movq	%rax, -16(%rbp)
	movl	%edx, -8(%rbp)
	jmp	LBB54_4
Lfunc_end54:
	.cfi_endproc
	.section	__TEXT,__gcc_except_tab
	.p2align	2
GCC_except_table54:
Lexception7:
	.byte	255
	.byte	255
	.byte	1
	.uleb128 Lcst_end7-Lcst_begin7
Lcst_begin7:
	.uleb128 Lfunc_begin54-Lfunc_begin54
	.uleb128 Ltmp296-Lfunc_begin54
	.byte	0
	.byte	0
	.uleb128 Ltmp296-Lfunc_begin54
	.uleb128 Ltmp299-Ltmp296
	.uleb128 Ltmp306-Lfunc_begin54
	.byte	0
	.uleb128 Ltmp299-Lfunc_begin54
	.uleb128 Ltmp300-Ltmp299
	.byte	0
	.byte	0
	.uleb128 Ltmp300-Lfunc_begin54
	.uleb128 Ltmp305-Ltmp300
	.uleb128 Ltmp306-Lfunc_begin54
	.byte	0
Lcst_end7:
	.p2align	2

	.section	__TEXT,__text,regular,pure_instructions
	.globl	__ZN45_$LT$T$u20$as$u20$alloc..string..ToString$GT$9to_string17h256bcc908da80970E
	.p2align	4, 0x90
__ZN45_$LT$T$u20$as$u20$alloc..string..ToString$GT$9to_string17h256bcc908da80970E:
Lfunc_begin55:
	.loc	2 2200 0 is_stmt 1
	.cfi_startproc
	.cfi_personality 155, _rust_eh_personality
	.cfi_lsda 16, Lexception8
	pushq	%rbp
	.cfi_def_cfa_offset 16
	.cfi_offset %rbp, -16
	movq	%rsp, %rbp
	.cfi_def_cfa_register %rbp
	subq	$176, %rsp
	movq	%rdi, %rax
	movq	%rsi, -104(%rbp)
Ltmp333:
	movq	%rdi, -112(%rbp)
Ltmp334:
	movq	%rax, -120(%rbp)
Ltmp335:
	.loc	2 2202 23 prologue_end
	callq	__ZN5alloc6string6String3new17h7fe5a4fdd9fe8d1fE
	jmp	LBB55_2
Ltmp336:
LBB55_1:
	.loc	2 2200 5
	movq	-16(%rbp), %rdi
	callq	__Unwind_Resume
	ud2
LBB55_2:
Ltmp337:
	.loc	2 2203 36
	movq	l___unnamed_21(%rip), %rsi
	leaq	-104(%rbp), %rax
	.loc	2 2203 23 is_stmt 0
	movq	%rax, -32(%rbp)
	.loc	2 2203 42
	movq	-32(%rbp), %rax
	movq	%rax, -24(%rbp)
Ltmp322:
Ltmp338:
	.loc	2 2203 23
	leaq	__ZN44_$LT$$RF$T$u20$as$u20$core..fmt..Display$GT$3fmt17had9d02d2d046aab8E(%rip), %rcx
	movq	%rax, %rdi
	movq	%rsi, -128(%rbp)
	movq	%rcx, %rsi
	callq	__ZN4core3fmt10ArgumentV13new17hc3702b1cd06871fcE
Ltmp323:
	movq	%rdx, -136(%rbp)
	movq	%rax, -144(%rbp)
	jmp	LBB55_3
Ltmp339:
LBB55_3:
	.loc	2 0 23
	movq	-144(%rbp), %rax
	.loc	2 2203 23
	movq	%rax, -48(%rbp)
	movq	-136(%rbp), %rcx
	movq	%rcx, -40(%rbp)
Ltmp324:
	leaq	-96(%rbp), %rdi
	leaq	-48(%rbp), %rcx
	movl	$1, %edx
	movq	-128(%rbp), %rsi
	movq	%rdx, -152(%rbp)
	movq	-152(%rbp), %r8
Ltmp340:
	.loc	2 2203 23
	callq	__ZN4core3fmt9Arguments6new_v117h7e04578d4a7b2a9fE
Ltmp325:
	jmp	LBB55_5
Ltmp341:
LBB55_4:
	.loc	2 0 23
	movq	-112(%rbp), %rdi
	.loc	2 2207 5 is_stmt 1
	callq	__ZN4core3ptr13drop_in_place17hddc2ddb5a516c59bE
	jmp	LBB55_1
LBB55_5:
Ltmp342:
Ltmp326:
	.loc	2 0 5 is_stmt 0
	leaq	-96(%rbp), %rsi
	movq	-112(%rbp), %rdi
Ltmp343:
	.loc	2 2203 9 is_stmt 1
	callq	__ZN4core3fmt5Write9write_fmt17h944bf95f141f8360E
Ltmp327:
	movb	%al, -153(%rbp)
	jmp	LBB55_6
Ltmp344:
LBB55_6:
Ltmp328:
	.loc	2 0 9 is_stmt 0
	movb	-153(%rbp), %al
	.loc	2 2203 9
	movzbl	%al, %ecx
	andl	$1, %ecx
	leaq	l___unnamed_22(%rip), %rsi
	leaq	l___unnamed_23(%rip), %rdx
	movl	$55, %edi
	movq	%rdi, -168(%rbp)
	movl	%ecx, %edi
	movq	-168(%rbp), %r8
	movq	%rdx, -176(%rbp)
	movq	%r8, %rdx
	movq	-176(%rbp), %rcx
	callq	__ZN4core6result19Result$LT$T$C$E$GT$6expect17h5006d59a6e486344E
Ltmp329:
	jmp	LBB55_7
Ltmp345:
LBB55_7:
Ltmp330:
	.loc	2 0 9
	movq	-112(%rbp), %rdi
	.loc	2 2205 9 is_stmt 1
	callq	__ZN5alloc6string6String13shrink_to_fit17h946efa66aea93fbbE
Ltmp331:
	jmp	LBB55_8
Ltmp346:
LBB55_8:
	.loc	2 0 9 is_stmt 0
	movq	-120(%rbp), %rax
	.loc	2 2207 6 is_stmt 1
	addq	$176, %rsp
	popq	%rbp
	retq
Ltmp347:
LBB55_9:
Ltmp332:
	.loc	2 0 6 is_stmt 0
	movq	%rax, -16(%rbp)
	movl	%edx, -8(%rbp)
	jmp	LBB55_4
Lfunc_end55:
	.cfi_endproc
	.section	__TEXT,__gcc_except_tab
	.p2align	2
GCC_except_table55:
Lexception8:
	.byte	255
	.byte	255
	.byte	1
	.uleb128 Lcst_end8-Lcst_begin8
Lcst_begin8:
	.uleb128 Lfunc_begin55-Lfunc_begin55
	.uleb128 Ltmp322-Lfunc_begin55
	.byte	0
	.byte	0
	.uleb128 Ltmp322-Lfunc_begin55
	.uleb128 Ltmp325-Ltmp322
	.uleb128 Ltmp332-Lfunc_begin55
	.byte	0
	.uleb128 Ltmp325-Lfunc_begin55
	.uleb128 Ltmp326-Ltmp325
	.byte	0
	.byte	0
	.uleb128 Ltmp326-Lfunc_begin55
	.uleb128 Ltmp331-Ltmp326
	.uleb128 Ltmp332-Lfunc_begin55
	.byte	0
Lcst_end8:
	.p2align	2

	.section	__TEXT,__text,regular,pure_instructions
	.globl	__ZN45_$LT$T$u20$as$u20$alloc..string..ToString$GT$9to_string17h4bf15a1d0d8fd74aE
	.p2align	4, 0x90
__ZN45_$LT$T$u20$as$u20$alloc..string..ToString$GT$9to_string17h4bf15a1d0d8fd74aE:
Lfunc_begin56:
	.loc	2 2200 0 is_stmt 1
	.cfi_startproc
	.cfi_personality 155, _rust_eh_personality
	.cfi_lsda 16, Lexception9
	pushq	%rbp
	.cfi_def_cfa_offset 16
	.cfi_offset %rbp, -16
	movq	%rsp, %rbp
	.cfi_def_cfa_register %rbp
	subq	$176, %rsp
	movq	%rdi, %rax
	movq	%rsi, -104(%rbp)
Ltmp359:
	movq	%rdi, -112(%rbp)
Ltmp360:
	movq	%rax, -120(%rbp)
Ltmp361:
	.loc	2 2202 23 prologue_end
	callq	__ZN5alloc6string6String3new17h7fe5a4fdd9fe8d1fE
	jmp	LBB56_2
Ltmp362:
LBB56_1:
	.loc	2 2200 5
	movq	-16(%rbp), %rdi
	callq	__Unwind_Resume
	ud2
LBB56_2:
Ltmp363:
	.loc	2 2203 36
	movq	l___unnamed_21(%rip), %rsi
	leaq	-104(%rbp), %rax
	.loc	2 2203 23 is_stmt 0
	movq	%rax, -32(%rbp)
	.loc	2 2203 42
	movq	-32(%rbp), %rax
	movq	%rax, -24(%rbp)
Ltmp348:
Ltmp364:
	.loc	2 2203 23
	leaq	__ZN44_$LT$$RF$T$u20$as$u20$core..fmt..Display$GT$3fmt17h6a9689032029fc46E(%rip), %rcx
	movq	%rax, %rdi
	movq	%rsi, -128(%rbp)
	movq	%rcx, %rsi
	callq	__ZN4core3fmt10ArgumentV13new17h1873bca9aef3a0ccE
Ltmp349:
	movq	%rdx, -136(%rbp)
	movq	%rax, -144(%rbp)
	jmp	LBB56_3
Ltmp365:
LBB56_3:
	.loc	2 0 23
	movq	-144(%rbp), %rax
	.loc	2 2203 23
	movq	%rax, -48(%rbp)
	movq	-136(%rbp), %rcx
	movq	%rcx, -40(%rbp)
Ltmp350:
	leaq	-96(%rbp), %rdi
	leaq	-48(%rbp), %rcx
	movl	$1, %edx
	movq	-128(%rbp), %rsi
	movq	%rdx, -152(%rbp)
	movq	-152(%rbp), %r8
Ltmp366:
	.loc	2 2203 23
	callq	__ZN4core3fmt9Arguments6new_v117h7e04578d4a7b2a9fE
Ltmp351:
	jmp	LBB56_5
Ltmp367:
LBB56_4:
	.loc	2 0 23
	movq	-112(%rbp), %rdi
	.loc	2 2207 5 is_stmt 1
	callq	__ZN4core3ptr13drop_in_place17hddc2ddb5a516c59bE
	jmp	LBB56_1
LBB56_5:
Ltmp368:
Ltmp352:
	.loc	2 0 5 is_stmt 0
	leaq	-96(%rbp), %rsi
	movq	-112(%rbp), %rdi
Ltmp369:
	.loc	2 2203 9 is_stmt 1
	callq	__ZN4core3fmt5Write9write_fmt17h944bf95f141f8360E
Ltmp353:
	movb	%al, -153(%rbp)
	jmp	LBB56_6
Ltmp370:
LBB56_6:
Ltmp354:
	.loc	2 0 9 is_stmt 0
	movb	-153(%rbp), %al
	.loc	2 2203 9
	movzbl	%al, %ecx
	andl	$1, %ecx
	leaq	l___unnamed_22(%rip), %rsi
	leaq	l___unnamed_23(%rip), %rdx
	movl	$55, %edi
	movq	%rdi, -168(%rbp)
	movl	%ecx, %edi
	movq	-168(%rbp), %r8
	movq	%rdx, -176(%rbp)
	movq	%r8, %rdx
	movq	-176(%rbp), %rcx
	callq	__ZN4core6result19Result$LT$T$C$E$GT$6expect17h5006d59a6e486344E
Ltmp355:
	jmp	LBB56_7
Ltmp371:
LBB56_7:
Ltmp356:
	.loc	2 0 9
	movq	-112(%rbp), %rdi
	.loc	2 2205 9 is_stmt 1
	callq	__ZN5alloc6string6String13shrink_to_fit17h946efa66aea93fbbE
Ltmp357:
	jmp	LBB56_8
Ltmp372:
LBB56_8:
	.loc	2 0 9 is_stmt 0
	movq	-120(%rbp), %rax
	.loc	2 2207 6 is_stmt 1
	addq	$176, %rsp
	popq	%rbp
	retq
Ltmp373:
LBB56_9:
Ltmp358:
	.loc	2 0 6 is_stmt 0
	movq	%rax, -16(%rbp)
	movl	%edx, -8(%rbp)
	jmp	LBB56_4
Lfunc_end56:
	.cfi_endproc
	.section	__TEXT,__gcc_except_tab
	.p2align	2
GCC_except_table56:
Lexception9:
	.byte	255
	.byte	255
	.byte	1
	.uleb128 Lcst_end9-Lcst_begin9
Lcst_begin9:
	.uleb128 Lfunc_begin56-Lfunc_begin56
	.uleb128 Ltmp348-Lfunc_begin56
	.byte	0
	.byte	0
	.uleb128 Ltmp348-Lfunc_begin56
	.uleb128 Ltmp351-Ltmp348
	.uleb128 Ltmp358-Lfunc_begin56
	.byte	0
	.uleb128 Ltmp351-Lfunc_begin56
	.uleb128 Ltmp352-Ltmp351
	.byte	0
	.byte	0
	.uleb128 Ltmp352-Lfunc_begin56
	.uleb128 Ltmp357-Ltmp352
	.uleb128 Ltmp358-Lfunc_begin56
	.byte	0
Lcst_end9:
	.p2align	2

	.section	__TEXT,__text,regular,pure_instructions
	.globl	__ZN45_$LT$T$u20$as$u20$alloc..string..ToString$GT$9to_string17h5079e52233e282c1E
	.p2align	4, 0x90
__ZN45_$LT$T$u20$as$u20$alloc..string..ToString$GT$9to_string17h5079e52233e282c1E:
Lfunc_begin57:
	.loc	2 2200 0 is_stmt 1
	.cfi_startproc
	.cfi_personality 155, _rust_eh_personality
	.cfi_lsda 16, Lexception10
	pushq	%rbp
	.cfi_def_cfa_offset 16
	.cfi_offset %rbp, -16
	movq	%rsp, %rbp
	.cfi_def_cfa_register %rbp
	subq	$176, %rsp
	movq	%rdi, %rax
	movq	%rsi, -104(%rbp)
Ltmp385:
	movq	%rdi, -112(%rbp)
Ltmp386:
	movq	%rax, -120(%rbp)
Ltmp387:
	.loc	2 2202 23 prologue_end
	callq	__ZN5alloc6string6String3new17h7fe5a4fdd9fe8d1fE
	jmp	LBB57_2
Ltmp388:
LBB57_1:
	.loc	2 2200 5
	movq	-16(%rbp), %rdi
	callq	__Unwind_Resume
	ud2
LBB57_2:
Ltmp389:
	.loc	2 2203 36
	movq	l___unnamed_21(%rip), %rsi
	leaq	-104(%rbp), %rax
	.loc	2 2203 23 is_stmt 0
	movq	%rax, -32(%rbp)
	.loc	2 2203 42
	movq	-32(%rbp), %rax
	movq	%rax, -24(%rbp)
Ltmp374:
Ltmp390:
	.loc	2 2203 23
	leaq	__ZN44_$LT$$RF$T$u20$as$u20$core..fmt..Display$GT$3fmt17hd13008ca21e15c99E(%rip), %rcx
	movq	%rax, %rdi
	movq	%rsi, -128(%rbp)
	movq	%rcx, %rsi
	callq	__ZN4core3fmt10ArgumentV13new17h1641eac5f9a24cdcE
Ltmp375:
	movq	%rdx, -136(%rbp)
	movq	%rax, -144(%rbp)
	jmp	LBB57_3
Ltmp391:
LBB57_3:
	.loc	2 0 23
	movq	-144(%rbp), %rax
	.loc	2 2203 23
	movq	%rax, -48(%rbp)
	movq	-136(%rbp), %rcx
	movq	%rcx, -40(%rbp)
Ltmp376:
	leaq	-96(%rbp), %rdi
	leaq	-48(%rbp), %rcx
	movl	$1, %edx
	movq	-128(%rbp), %rsi
	movq	%rdx, -152(%rbp)
	movq	-152(%rbp), %r8
Ltmp392:
	.loc	2 2203 23
	callq	__ZN4core3fmt9Arguments6new_v117h7e04578d4a7b2a9fE
Ltmp377:
	jmp	LBB57_5
Ltmp393:
LBB57_4:
	.loc	2 0 23
	movq	-112(%rbp), %rdi
	.loc	2 2207 5 is_stmt 1
	callq	__ZN4core3ptr13drop_in_place17hddc2ddb5a516c59bE
	jmp	LBB57_1
LBB57_5:
Ltmp394:
Ltmp378:
	.loc	2 0 5 is_stmt 0
	leaq	-96(%rbp), %rsi
	movq	-112(%rbp), %rdi
Ltmp395:
	.loc	2 2203 9 is_stmt 1
	callq	__ZN4core3fmt5Write9write_fmt17h944bf95f141f8360E
Ltmp379:
	movb	%al, -153(%rbp)
	jmp	LBB57_6
Ltmp396:
LBB57_6:
Ltmp380:
	.loc	2 0 9 is_stmt 0
	movb	-153(%rbp), %al
	.loc	2 2203 9
	movzbl	%al, %ecx
	andl	$1, %ecx
	leaq	l___unnamed_22(%rip), %rsi
	leaq	l___unnamed_23(%rip), %rdx
	movl	$55, %edi
	movq	%rdi, -168(%rbp)
	movl	%ecx, %edi
	movq	-168(%rbp), %r8
	movq	%rdx, -176(%rbp)
	movq	%r8, %rdx
	movq	-176(%rbp), %rcx
	callq	__ZN4core6result19Result$LT$T$C$E$GT$6expect17h5006d59a6e486344E
Ltmp381:
	jmp	LBB57_7
Ltmp397:
LBB57_7:
Ltmp382:
	.loc	2 0 9
	movq	-112(%rbp), %rdi
	.loc	2 2205 9 is_stmt 1
	callq	__ZN5alloc6string6String13shrink_to_fit17h946efa66aea93fbbE
Ltmp383:
	jmp	LBB57_8
Ltmp398:
LBB57_8:
	.loc	2 0 9 is_stmt 0
	movq	-120(%rbp), %rax
	.loc	2 2207 6 is_stmt 1
	addq	$176, %rsp
	popq	%rbp
	retq
Ltmp399:
LBB57_9:
Ltmp384:
	.loc	2 0 6 is_stmt 0
	movq	%rax, -16(%rbp)
	movl	%edx, -8(%rbp)
	jmp	LBB57_4
Lfunc_end57:
	.cfi_endproc
	.section	__TEXT,__gcc_except_tab
	.p2align	2
GCC_except_table57:
Lexception10:
	.byte	255
	.byte	255
	.byte	1
	.uleb128 Lcst_end10-Lcst_begin10
Lcst_begin10:
	.uleb128 Lfunc_begin57-Lfunc_begin57
	.uleb128 Ltmp374-Lfunc_begin57
	.byte	0
	.byte	0
	.uleb128 Ltmp374-Lfunc_begin57
	.uleb128 Ltmp377-Ltmp374
	.uleb128 Ltmp384-Lfunc_begin57
	.byte	0
	.uleb128 Ltmp377-Lfunc_begin57
	.uleb128 Ltmp378-Ltmp377
	.byte	0
	.byte	0
	.uleb128 Ltmp378-Lfunc_begin57
	.uleb128 Ltmp383-Ltmp378
	.uleb128 Ltmp384-Lfunc_begin57
	.byte	0
Lcst_end10:
	.p2align	2

	.section	__TEXT,__text,regular,pure_instructions
	.globl	__ZN45_$LT$T$u20$as$u20$alloc..string..ToString$GT$9to_string17h5970027a362cb5c0E
	.p2align	4, 0x90
__ZN45_$LT$T$u20$as$u20$alloc..string..ToString$GT$9to_string17h5970027a362cb5c0E:
Lfunc_begin58:
	.loc	2 2200 0 is_stmt 1
	.cfi_startproc
	.cfi_personality 155, _rust_eh_personality
	.cfi_lsda 16, Lexception11
	pushq	%rbp
	.cfi_def_cfa_offset 16
	.cfi_offset %rbp, -16
	movq	%rsp, %rbp
	.cfi_def_cfa_register %rbp
	subq	$176, %rsp
	movq	%rdi, %rax
	movq	%rsi, -104(%rbp)
Ltmp411:
	movq	%rdi, -112(%rbp)
Ltmp412:
	movq	%rax, -120(%rbp)
Ltmp413:
	.loc	2 2202 23 prologue_end
	callq	__ZN5alloc6string6String3new17h7fe5a4fdd9fe8d1fE
	jmp	LBB58_2
Ltmp414:
LBB58_1:
	.loc	2 2200 5
	movq	-16(%rbp), %rdi
	callq	__Unwind_Resume
	ud2
LBB58_2:
Ltmp415:
	.loc	2 2203 36
	movq	l___unnamed_21(%rip), %rsi
	leaq	-104(%rbp), %rax
	.loc	2 2203 23 is_stmt 0
	movq	%rax, -32(%rbp)
	.loc	2 2203 42
	movq	-32(%rbp), %rax
	movq	%rax, -24(%rbp)
Ltmp400:
Ltmp416:
	.loc	2 2203 23
	leaq	__ZN44_$LT$$RF$T$u20$as$u20$core..fmt..Display$GT$3fmt17h46f9f75da702b4bbE(%rip), %rcx
	movq	%rax, %rdi
	movq	%rsi, -128(%rbp)
	movq	%rcx, %rsi
	callq	__ZN4core3fmt10ArgumentV13new17ha82dfb1190432a65E
Ltmp401:
	movq	%rdx, -136(%rbp)
	movq	%rax, -144(%rbp)
	jmp	LBB58_3
Ltmp417:
LBB58_3:
	.loc	2 0 23
	movq	-144(%rbp), %rax
	.loc	2 2203 23
	movq	%rax, -48(%rbp)
	movq	-136(%rbp), %rcx
	movq	%rcx, -40(%rbp)
Ltmp402:
	leaq	-96(%rbp), %rdi
	leaq	-48(%rbp), %rcx
	movl	$1, %edx
	movq	-128(%rbp), %rsi
	movq	%rdx, -152(%rbp)
	movq	-152(%rbp), %r8
Ltmp418:
	.loc	2 2203 23
	callq	__ZN4core3fmt9Arguments6new_v117h7e04578d4a7b2a9fE
Ltmp403:
	jmp	LBB58_5
Ltmp419:
LBB58_4:
	.loc	2 0 23
	movq	-112(%rbp), %rdi
	.loc	2 2207 5 is_stmt 1
	callq	__ZN4core3ptr13drop_in_place17hddc2ddb5a516c59bE
	jmp	LBB58_1
LBB58_5:
Ltmp420:
Ltmp404:
	.loc	2 0 5 is_stmt 0
	leaq	-96(%rbp), %rsi
	movq	-112(%rbp), %rdi
Ltmp421:
	.loc	2 2203 9 is_stmt 1
	callq	__ZN4core3fmt5Write9write_fmt17h944bf95f141f8360E
Ltmp405:
	movb	%al, -153(%rbp)
	jmp	LBB58_6
Ltmp422:
LBB58_6:
Ltmp406:
	.loc	2 0 9 is_stmt 0
	movb	-153(%rbp), %al
	.loc	2 2203 9
	movzbl	%al, %ecx
	andl	$1, %ecx
	leaq	l___unnamed_22(%rip), %rsi
	leaq	l___unnamed_23(%rip), %rdx
	movl	$55, %edi
	movq	%rdi, -168(%rbp)
	movl	%ecx, %edi
	movq	-168(%rbp), %r8
	movq	%rdx, -176(%rbp)
	movq	%r8, %rdx
	movq	-176(%rbp), %rcx
	callq	__ZN4core6result19Result$LT$T$C$E$GT$6expect17h5006d59a6e486344E
Ltmp407:
	jmp	LBB58_7
Ltmp423:
LBB58_7:
Ltmp408:
	.loc	2 0 9
	movq	-112(%rbp), %rdi
	.loc	2 2205 9 is_stmt 1
	callq	__ZN5alloc6string6String13shrink_to_fit17h946efa66aea93fbbE
Ltmp409:
	jmp	LBB58_8
Ltmp424:
LBB58_8:
	.loc	2 0 9 is_stmt 0
	movq	-120(%rbp), %rax
	.loc	2 2207 6 is_stmt 1
	addq	$176, %rsp
	popq	%rbp
	retq
Ltmp425:
LBB58_9:
Ltmp410:
	.loc	2 0 6 is_stmt 0
	movq	%rax, -16(%rbp)
	movl	%edx, -8(%rbp)
	jmp	LBB58_4
Lfunc_end58:
	.cfi_endproc
	.section	__TEXT,__gcc_except_tab
	.p2align	2
GCC_except_table58:
Lexception11:
	.byte	255
	.byte	255
	.byte	1
	.uleb128 Lcst_end11-Lcst_begin11
Lcst_begin11:
	.uleb128 Lfunc_begin58-Lfunc_begin58
	.uleb128 Ltmp400-Lfunc_begin58
	.byte	0
	.byte	0
	.uleb128 Ltmp400-Lfunc_begin58
	.uleb128 Ltmp403-Ltmp400
	.uleb128 Ltmp410-Lfunc_begin58
	.byte	0
	.uleb128 Ltmp403-Lfunc_begin58
	.uleb128 Ltmp404-Ltmp403
	.byte	0
	.byte	0
	.uleb128 Ltmp404-Lfunc_begin58
	.uleb128 Ltmp409-Ltmp404
	.uleb128 Ltmp410-Lfunc_begin58
	.byte	0
Lcst_end11:
	.p2align	2

	.section	__TEXT,__text,regular,pure_instructions
	.globl	__ZN45_$LT$T$u20$as$u20$alloc..string..ToString$GT$9to_string17h5f9a1d5369f00e39E
	.p2align	4, 0x90
__ZN45_$LT$T$u20$as$u20$alloc..string..ToString$GT$9to_string17h5f9a1d5369f00e39E:
Lfunc_begin59:
	.loc	2 2200 0 is_stmt 1
	.cfi_startproc
	.cfi_personality 155, _rust_eh_personality
	.cfi_lsda 16, Lexception12
	pushq	%rbp
	.cfi_def_cfa_offset 16
	.cfi_offset %rbp, -16
	movq	%rsp, %rbp
	.cfi_def_cfa_register %rbp
	subq	$176, %rsp
	movq	%rdi, %rax
	movq	%rsi, -104(%rbp)
Ltmp437:
	movq	%rdi, -112(%rbp)
Ltmp438:
	movq	%rax, -120(%rbp)
Ltmp439:
	.loc	2 2202 23 prologue_end
	callq	__ZN5alloc6string6String3new17h7fe5a4fdd9fe8d1fE
	jmp	LBB59_2
Ltmp440:
LBB59_1:
	.loc	2 2200 5
	movq	-16(%rbp), %rdi
	callq	__Unwind_Resume
	ud2
LBB59_2:
Ltmp441:
	.loc	2 2203 36
	movq	l___unnamed_21(%rip), %rsi
	leaq	-104(%rbp), %rax
	.loc	2 2203 23 is_stmt 0
	movq	%rax, -32(%rbp)
	.loc	2 2203 42
	movq	-32(%rbp), %rax
	movq	%rax, -24(%rbp)
Ltmp426:
Ltmp442:
	.loc	2 2203 23
	leaq	__ZN44_$LT$$RF$T$u20$as$u20$core..fmt..Display$GT$3fmt17h2bbfb41fb55703b7E(%rip), %rcx
	movq	%rax, %rdi
	movq	%rsi, -128(%rbp)
	movq	%rcx, %rsi
	callq	__ZN4core3fmt10ArgumentV13new17h7c7130e618e47ba8E
Ltmp427:
	movq	%rdx, -136(%rbp)
	movq	%rax, -144(%rbp)
	jmp	LBB59_3
Ltmp443:
LBB59_3:
	.loc	2 0 23
	movq	-144(%rbp), %rax
	.loc	2 2203 23
	movq	%rax, -48(%rbp)
	movq	-136(%rbp), %rcx
	movq	%rcx, -40(%rbp)
Ltmp428:
	leaq	-96(%rbp), %rdi
	leaq	-48(%rbp), %rcx
	movl	$1, %edx
	movq	-128(%rbp), %rsi
	movq	%rdx, -152(%rbp)
	movq	-152(%rbp), %r8
Ltmp444:
	.loc	2 2203 23
	callq	__ZN4core3fmt9Arguments6new_v117h7e04578d4a7b2a9fE
Ltmp429:
	jmp	LBB59_5
Ltmp445:
LBB59_4:
	.loc	2 0 23
	movq	-112(%rbp), %rdi
	.loc	2 2207 5 is_stmt 1
	callq	__ZN4core3ptr13drop_in_place17hddc2ddb5a516c59bE
	jmp	LBB59_1
LBB59_5:
Ltmp446:
Ltmp430:
	.loc	2 0 5 is_stmt 0
	leaq	-96(%rbp), %rsi
	movq	-112(%rbp), %rdi
Ltmp447:
	.loc	2 2203 9 is_stmt 1
	callq	__ZN4core3fmt5Write9write_fmt17h944bf95f141f8360E
Ltmp431:
	movb	%al, -153(%rbp)
	jmp	LBB59_6
Ltmp448:
LBB59_6:
Ltmp432:
	.loc	2 0 9 is_stmt 0
	movb	-153(%rbp), %al
	.loc	2 2203 9
	movzbl	%al, %ecx
	andl	$1, %ecx
	leaq	l___unnamed_22(%rip), %rsi
	leaq	l___unnamed_23(%rip), %rdx
	movl	$55, %edi
	movq	%rdi, -168(%rbp)
	movl	%ecx, %edi
	movq	-168(%rbp), %r8
	movq	%rdx, -176(%rbp)
	movq	%r8, %rdx
	movq	-176(%rbp), %rcx
	callq	__ZN4core6result19Result$LT$T$C$E$GT$6expect17h5006d59a6e486344E
Ltmp433:
	jmp	LBB59_7
Ltmp449:
LBB59_7:
Ltmp434:
	.loc	2 0 9
	movq	-112(%rbp), %rdi
	.loc	2 2205 9 is_stmt 1
	callq	__ZN5alloc6string6String13shrink_to_fit17h946efa66aea93fbbE
Ltmp435:
	jmp	LBB59_8
Ltmp450:
LBB59_8:
	.loc	2 0 9 is_stmt 0
	movq	-120(%rbp), %rax
	.loc	2 2207 6 is_stmt 1
	addq	$176, %rsp
	popq	%rbp
	retq
Ltmp451:
LBB59_9:
Ltmp436:
	.loc	2 0 6 is_stmt 0
	movq	%rax, -16(%rbp)
	movl	%edx, -8(%rbp)
	jmp	LBB59_4
Lfunc_end59:
	.cfi_endproc
	.section	__TEXT,__gcc_except_tab
	.p2align	2
GCC_except_table59:
Lexception12:
	.byte	255
	.byte	255
	.byte	1
	.uleb128 Lcst_end12-Lcst_begin12
Lcst_begin12:
	.uleb128 Lfunc_begin59-Lfunc_begin59
	.uleb128 Ltmp426-Lfunc_begin59
	.byte	0
	.byte	0
	.uleb128 Ltmp426-Lfunc_begin59
	.uleb128 Ltmp429-Ltmp426
	.uleb128 Ltmp436-Lfunc_begin59
	.byte	0
	.uleb128 Ltmp429-Lfunc_begin59
	.uleb128 Ltmp430-Ltmp429
	.byte	0
	.byte	0
	.uleb128 Ltmp430-Lfunc_begin59
	.uleb128 Ltmp435-Ltmp430
	.uleb128 Ltmp436-Lfunc_begin59
	.byte	0
Lcst_end12:
	.p2align	2

	.section	__TEXT,__text,regular,pure_instructions
	.globl	__ZN45_$LT$T$u20$as$u20$alloc..string..ToString$GT$9to_string17h6032d7db6c16da05E
	.p2align	4, 0x90
__ZN45_$LT$T$u20$as$u20$alloc..string..ToString$GT$9to_string17h6032d7db6c16da05E:
Lfunc_begin60:
	.loc	2 2200 0 is_stmt 1
	.cfi_startproc
	.cfi_personality 155, _rust_eh_personality
	.cfi_lsda 16, Lexception13
	pushq	%rbp
	.cfi_def_cfa_offset 16
	.cfi_offset %rbp, -16
	movq	%rsp, %rbp
	.cfi_def_cfa_register %rbp
	subq	$176, %rsp
	movq	%rdi, %rax
	movq	%rsi, -104(%rbp)
Ltmp463:
	movq	%rdi, -112(%rbp)
Ltmp464:
	movq	%rax, -120(%rbp)
Ltmp465:
	.loc	2 2202 23 prologue_end
	callq	__ZN5alloc6string6String3new17h7fe5a4fdd9fe8d1fE
	jmp	LBB60_2
Ltmp466:
LBB60_1:
	.loc	2 2200 5
	movq	-16(%rbp), %rdi
	callq	__Unwind_Resume
	ud2
LBB60_2:
Ltmp467:
	.loc	2 2203 36
	movq	l___unnamed_21(%rip), %rsi
	leaq	-104(%rbp), %rax
	.loc	2 2203 23 is_stmt 0
	movq	%rax, -32(%rbp)
	.loc	2 2203 42
	movq	-32(%rbp), %rax
	movq	%rax, -24(%rbp)
Ltmp452:
Ltmp468:
	.loc	2 2203 23
	leaq	__ZN44_$LT$$RF$T$u20$as$u20$core..fmt..Display$GT$3fmt17hc71cd1eb79760cf7E(%rip), %rcx
	movq	%rax, %rdi
	movq	%rsi, -128(%rbp)
	movq	%rcx, %rsi
	callq	__ZN4core3fmt10ArgumentV13new17h2fbcef147e2c762bE
Ltmp453:
	movq	%rdx, -136(%rbp)
	movq	%rax, -144(%rbp)
	jmp	LBB60_3
Ltmp469:
LBB60_3:
	.loc	2 0 23
	movq	-144(%rbp), %rax
	.loc	2 2203 23
	movq	%rax, -48(%rbp)
	movq	-136(%rbp), %rcx
	movq	%rcx, -40(%rbp)
Ltmp454:
	leaq	-96(%rbp), %rdi
	leaq	-48(%rbp), %rcx
	movl	$1, %edx
	movq	-128(%rbp), %rsi
	movq	%rdx, -152(%rbp)
	movq	-152(%rbp), %r8
Ltmp470:
	.loc	2 2203 23
	callq	__ZN4core3fmt9Arguments6new_v117h7e04578d4a7b2a9fE
Ltmp455:
	jmp	LBB60_5
Ltmp471:
LBB60_4:
	.loc	2 0 23
	movq	-112(%rbp), %rdi
	.loc	2 2207 5 is_stmt 1
	callq	__ZN4core3ptr13drop_in_place17hddc2ddb5a516c59bE
	jmp	LBB60_1
LBB60_5:
Ltmp472:
Ltmp456:
	.loc	2 0 5 is_stmt 0
	leaq	-96(%rbp), %rsi
	movq	-112(%rbp), %rdi
Ltmp473:
	.loc	2 2203 9 is_stmt 1
	callq	__ZN4core3fmt5Write9write_fmt17h944bf95f141f8360E
Ltmp457:
	movb	%al, -153(%rbp)
	jmp	LBB60_6
Ltmp474:
LBB60_6:
Ltmp458:
	.loc	2 0 9 is_stmt 0
	movb	-153(%rbp), %al
	.loc	2 2203 9
	movzbl	%al, %ecx
	andl	$1, %ecx
	leaq	l___unnamed_22(%rip), %rsi
	leaq	l___unnamed_23(%rip), %rdx
	movl	$55, %edi
	movq	%rdi, -168(%rbp)
	movl	%ecx, %edi
	movq	-168(%rbp), %r8
	movq	%rdx, -176(%rbp)
	movq	%r8, %rdx
	movq	-176(%rbp), %rcx
	callq	__ZN4core6result19Result$LT$T$C$E$GT$6expect17h5006d59a6e486344E
Ltmp459:
	jmp	LBB60_7
Ltmp475:
LBB60_7:
Ltmp460:
	.loc	2 0 9
	movq	-112(%rbp), %rdi
	.loc	2 2205 9 is_stmt 1
	callq	__ZN5alloc6string6String13shrink_to_fit17h946efa66aea93fbbE
Ltmp461:
	jmp	LBB60_8
Ltmp476:
LBB60_8:
	.loc	2 0 9 is_stmt 0
	movq	-120(%rbp), %rax
	.loc	2 2207 6 is_stmt 1
	addq	$176, %rsp
	popq	%rbp
	retq
Ltmp477:
LBB60_9:
Ltmp462:
	.loc	2 0 6 is_stmt 0
	movq	%rax, -16(%rbp)
	movl	%edx, -8(%rbp)
	jmp	LBB60_4
Lfunc_end60:
	.cfi_endproc
	.section	__TEXT,__gcc_except_tab
	.p2align	2
GCC_except_table60:
Lexception13:
	.byte	255
	.byte	255
	.byte	1
	.uleb128 Lcst_end13-Lcst_begin13
Lcst_begin13:
	.uleb128 Lfunc_begin60-Lfunc_begin60
	.uleb128 Ltmp452-Lfunc_begin60
	.byte	0
	.byte	0
	.uleb128 Ltmp452-Lfunc_begin60
	.uleb128 Ltmp455-Ltmp452
	.uleb128 Ltmp462-Lfunc_begin60
	.byte	0
	.uleb128 Ltmp455-Lfunc_begin60
	.uleb128 Ltmp456-Ltmp455
	.byte	0
	.byte	0
	.uleb128 Ltmp456-Lfunc_begin60
	.uleb128 Ltmp461-Ltmp456
	.uleb128 Ltmp462-Lfunc_begin60
	.byte	0
Lcst_end13:
	.p2align	2

	.section	__TEXT,__text,regular,pure_instructions
	.globl	__ZN45_$LT$T$u20$as$u20$alloc..string..ToString$GT$9to_string17h8c9d75cd90d57ec6E
	.p2align	4, 0x90
__ZN45_$LT$T$u20$as$u20$alloc..string..ToString$GT$9to_string17h8c9d75cd90d57ec6E:
Lfunc_begin61:
	.loc	2 2200 0 is_stmt 1
	.cfi_startproc
	.cfi_personality 155, _rust_eh_personality
	.cfi_lsda 16, Lexception14
	pushq	%rbp
	.cfi_def_cfa_offset 16
	.cfi_offset %rbp, -16
	movq	%rsp, %rbp
	.cfi_def_cfa_register %rbp
	subq	$176, %rsp
	movq	%rdi, %rax
	movq	%rsi, -104(%rbp)
Ltmp489:
	movq	%rdi, -112(%rbp)
Ltmp490:
	movq	%rax, -120(%rbp)
Ltmp491:
	.loc	2 2202 23 prologue_end
	callq	__ZN5alloc6string6String3new17h7fe5a4fdd9fe8d1fE
	jmp	LBB61_2
Ltmp492:
LBB61_1:
	.loc	2 2200 5
	movq	-16(%rbp), %rdi
	callq	__Unwind_Resume
	ud2
LBB61_2:
Ltmp493:
	.loc	2 2203 36
	movq	l___unnamed_21(%rip), %rsi
	leaq	-104(%rbp), %rax
	.loc	2 2203 23 is_stmt 0
	movq	%rax, -32(%rbp)
	.loc	2 2203 42
	movq	-32(%rbp), %rax
	movq	%rax, -24(%rbp)
Ltmp478:
Ltmp494:
	.loc	2 2203 23
	leaq	__ZN44_$LT$$RF$T$u20$as$u20$core..fmt..Display$GT$3fmt17h726b0d3f1eb6044cE(%rip), %rcx
	movq	%rax, %rdi
	movq	%rsi, -128(%rbp)
	movq	%rcx, %rsi
	callq	__ZN4core3fmt10ArgumentV13new17he9d004e8fdbf6293E
Ltmp479:
	movq	%rdx, -136(%rbp)
	movq	%rax, -144(%rbp)
	jmp	LBB61_3
Ltmp495:
LBB61_3:
	.loc	2 0 23
	movq	-144(%rbp), %rax
	.loc	2 2203 23
	movq	%rax, -48(%rbp)
	movq	-136(%rbp), %rcx
	movq	%rcx, -40(%rbp)
Ltmp480:
	leaq	-96(%rbp), %rdi
	leaq	-48(%rbp), %rcx
	movl	$1, %edx
	movq	-128(%rbp), %rsi
	movq	%rdx, -152(%rbp)
	movq	-152(%rbp), %r8
Ltmp496:
	.loc	2 2203 23
	callq	__ZN4core3fmt9Arguments6new_v117h7e04578d4a7b2a9fE
Ltmp481:
	jmp	LBB61_5
Ltmp497:
LBB61_4:
	.loc	2 0 23
	movq	-112(%rbp), %rdi
	.loc	2 2207 5 is_stmt 1
	callq	__ZN4core3ptr13drop_in_place17hddc2ddb5a516c59bE
	jmp	LBB61_1
LBB61_5:
Ltmp498:
Ltmp482:
	.loc	2 0 5 is_stmt 0
	leaq	-96(%rbp), %rsi
	movq	-112(%rbp), %rdi
Ltmp499:
	.loc	2 2203 9 is_stmt 1
	callq	__ZN4core3fmt5Write9write_fmt17h944bf95f141f8360E
Ltmp483:
	movb	%al, -153(%rbp)
	jmp	LBB61_6
Ltmp500:
LBB61_6:
Ltmp484:
	.loc	2 0 9 is_stmt 0
	movb	-153(%rbp), %al
	.loc	2 2203 9
	movzbl	%al, %ecx
	andl	$1, %ecx
	leaq	l___unnamed_22(%rip), %rsi
	leaq	l___unnamed_23(%rip), %rdx
	movl	$55, %edi
	movq	%rdi, -168(%rbp)
	movl	%ecx, %edi
	movq	-168(%rbp), %r8
	movq	%rdx, -176(%rbp)
	movq	%r8, %rdx
	movq	-176(%rbp), %rcx
	callq	__ZN4core6result19Result$LT$T$C$E$GT$6expect17h5006d59a6e486344E
Ltmp485:
	jmp	LBB61_7
Ltmp501:
LBB61_7:
Ltmp486:
	.loc	2 0 9
	movq	-112(%rbp), %rdi
	.loc	2 2205 9 is_stmt 1
	callq	__ZN5alloc6string6String13shrink_to_fit17h946efa66aea93fbbE
Ltmp487:
	jmp	LBB61_8
Ltmp502:
LBB61_8:
	.loc	2 0 9 is_stmt 0
	movq	-120(%rbp), %rax
	.loc	2 2207 6 is_stmt 1
	addq	$176, %rsp
	popq	%rbp
	retq
Ltmp503:
LBB61_9:
Ltmp488:
	.loc	2 0 6 is_stmt 0
	movq	%rax, -16(%rbp)
	movl	%edx, -8(%rbp)
	jmp	LBB61_4
Lfunc_end61:
	.cfi_endproc
	.section	__TEXT,__gcc_except_tab
	.p2align	2
GCC_except_table61:
Lexception14:
	.byte	255
	.byte	255
	.byte	1
	.uleb128 Lcst_end14-Lcst_begin14
Lcst_begin14:
	.uleb128 Lfunc_begin61-Lfunc_begin61
	.uleb128 Ltmp478-Lfunc_begin61
	.byte	0
	.byte	0
	.uleb128 Ltmp478-Lfunc_begin61
	.uleb128 Ltmp481-Ltmp478
	.uleb128 Ltmp488-Lfunc_begin61
	.byte	0
	.uleb128 Ltmp481-Lfunc_begin61
	.uleb128 Ltmp482-Ltmp481
	.byte	0
	.byte	0
	.uleb128 Ltmp482-Lfunc_begin61
	.uleb128 Ltmp487-Ltmp482
	.uleb128 Ltmp488-Lfunc_begin61
	.byte	0
Lcst_end14:
	.p2align	2

	.section	__TEXT,__text,regular,pure_instructions
	.globl	__ZN45_$LT$T$u20$as$u20$alloc..string..ToString$GT$9to_string17h9070fa210aa82099E
	.p2align	4, 0x90
__ZN45_$LT$T$u20$as$u20$alloc..string..ToString$GT$9to_string17h9070fa210aa82099E:
Lfunc_begin62:
	.loc	2 2200 0 is_stmt 1
	.cfi_startproc
	.cfi_personality 155, _rust_eh_personality
	.cfi_lsda 16, Lexception15
	pushq	%rbp
	.cfi_def_cfa_offset 16
	.cfi_offset %rbp, -16
	movq	%rsp, %rbp
	.cfi_def_cfa_register %rbp
	subq	$176, %rsp
	movq	%rdi, %rax
	movq	%rsi, -104(%rbp)
Ltmp515:
	movq	%rdi, -112(%rbp)
Ltmp516:
	movq	%rax, -120(%rbp)
Ltmp517:
	.loc	2 2202 23 prologue_end
	callq	__ZN5alloc6string6String3new17h7fe5a4fdd9fe8d1fE
	jmp	LBB62_2
Ltmp518:
LBB62_1:
	.loc	2 2200 5
	movq	-16(%rbp), %rdi
	callq	__Unwind_Resume
	ud2
LBB62_2:
Ltmp519:
	.loc	2 2203 36
	movq	l___unnamed_21(%rip), %rsi
	leaq	-104(%rbp), %rax
	.loc	2 2203 23 is_stmt 0
	movq	%rax, -32(%rbp)
	.loc	2 2203 42
	movq	-32(%rbp), %rax
	movq	%rax, -24(%rbp)
Ltmp504:
Ltmp520:
	.loc	2 2203 23
	leaq	__ZN44_$LT$$RF$T$u20$as$u20$core..fmt..Display$GT$3fmt17h4e51ce75ef906185E(%rip), %rcx
	movq	%rax, %rdi
	movq	%rsi, -128(%rbp)
	movq	%rcx, %rsi
	callq	__ZN4core3fmt10ArgumentV13new17h6870df16a0d69f6fE
Ltmp505:
	movq	%rdx, -136(%rbp)
	movq	%rax, -144(%rbp)
	jmp	LBB62_3
Ltmp521:
LBB62_3:
	.loc	2 0 23
	movq	-144(%rbp), %rax
	.loc	2 2203 23
	movq	%rax, -48(%rbp)
	movq	-136(%rbp), %rcx
	movq	%rcx, -40(%rbp)
Ltmp506:
	leaq	-96(%rbp), %rdi
	leaq	-48(%rbp), %rcx
	movl	$1, %edx
	movq	-128(%rbp), %rsi
	movq	%rdx, -152(%rbp)
	movq	-152(%rbp), %r8
Ltmp522:
	.loc	2 2203 23
	callq	__ZN4core3fmt9Arguments6new_v117h7e04578d4a7b2a9fE
Ltmp507:
	jmp	LBB62_5
Ltmp523:
LBB62_4:
	.loc	2 0 23
	movq	-112(%rbp), %rdi
	.loc	2 2207 5 is_stmt 1
	callq	__ZN4core3ptr13drop_in_place17hddc2ddb5a516c59bE
	jmp	LBB62_1
LBB62_5:
Ltmp524:
Ltmp508:
	.loc	2 0 5 is_stmt 0
	leaq	-96(%rbp), %rsi
	movq	-112(%rbp), %rdi
Ltmp525:
	.loc	2 2203 9 is_stmt 1
	callq	__ZN4core3fmt5Write9write_fmt17h944bf95f141f8360E
Ltmp509:
	movb	%al, -153(%rbp)
	jmp	LBB62_6
Ltmp526:
LBB62_6:
Ltmp510:
	.loc	2 0 9 is_stmt 0
	movb	-153(%rbp), %al
	.loc	2 2203 9
	movzbl	%al, %ecx
	andl	$1, %ecx
	leaq	l___unnamed_22(%rip), %rsi
	leaq	l___unnamed_23(%rip), %rdx
	movl	$55, %edi
	movq	%rdi, -168(%rbp)
	movl	%ecx, %edi
	movq	-168(%rbp), %r8
	movq	%rdx, -176(%rbp)
	movq	%r8, %rdx
	movq	-176(%rbp), %rcx
	callq	__ZN4core6result19Result$LT$T$C$E$GT$6expect17h5006d59a6e486344E
Ltmp511:
	jmp	LBB62_7
Ltmp527:
LBB62_7:
Ltmp512:
	.loc	2 0 9
	movq	-112(%rbp), %rdi
	.loc	2 2205 9 is_stmt 1
	callq	__ZN5alloc6string6String13shrink_to_fit17h946efa66aea93fbbE
Ltmp513:
	jmp	LBB62_8
Ltmp528:
LBB62_8:
	.loc	2 0 9 is_stmt 0
	movq	-120(%rbp), %rax
	.loc	2 2207 6 is_stmt 1
	addq	$176, %rsp
	popq	%rbp
	retq
Ltmp529:
LBB62_9:
Ltmp514:
	.loc	2 0 6 is_stmt 0
	movq	%rax, -16(%rbp)
	movl	%edx, -8(%rbp)
	jmp	LBB62_4
Lfunc_end62:
	.cfi_endproc
	.section	__TEXT,__gcc_except_tab
	.p2align	2
GCC_except_table62:
Lexception15:
	.byte	255
	.byte	255
	.byte	1
	.uleb128 Lcst_end15-Lcst_begin15
Lcst_begin15:
	.uleb128 Lfunc_begin62-Lfunc_begin62
	.uleb128 Ltmp504-Lfunc_begin62
	.byte	0
	.byte	0
	.uleb128 Ltmp504-Lfunc_begin62
	.uleb128 Ltmp507-Ltmp504
	.uleb128 Ltmp514-Lfunc_begin62
	.byte	0
	.uleb128 Ltmp507-Lfunc_begin62
	.uleb128 Ltmp508-Ltmp507
	.byte	0
	.byte	0
	.uleb128 Ltmp508-Lfunc_begin62
	.uleb128 Ltmp513-Ltmp508
	.uleb128 Ltmp514-Lfunc_begin62
	.byte	0
Lcst_end15:
	.p2align	2

	.section	__TEXT,__text,regular,pure_instructions
	.globl	__ZN45_$LT$T$u20$as$u20$alloc..string..ToString$GT$9to_string17ha3f92dc6848d069aE
	.p2align	4, 0x90
__ZN45_$LT$T$u20$as$u20$alloc..string..ToString$GT$9to_string17ha3f92dc6848d069aE:
Lfunc_begin63:
	.loc	2 2200 0 is_stmt 1
	.cfi_startproc
	.cfi_personality 155, _rust_eh_personality
	.cfi_lsda 16, Lexception16
	pushq	%rbp
	.cfi_def_cfa_offset 16
	.cfi_offset %rbp, -16
	movq	%rsp, %rbp
	.cfi_def_cfa_register %rbp
	subq	$176, %rsp
	movq	%rdi, %rax
	movq	%rsi, -104(%rbp)
Ltmp541:
	movq	%rdi, -112(%rbp)
Ltmp542:
	movq	%rax, -120(%rbp)
Ltmp543:
	.loc	2 2202 23 prologue_end
	callq	__ZN5alloc6string6String3new17h7fe5a4fdd9fe8d1fE
	jmp	LBB63_2
Ltmp544:
LBB63_1:
	.loc	2 2200 5
	movq	-16(%rbp), %rdi
	callq	__Unwind_Resume
	ud2
LBB63_2:
Ltmp545:
	.loc	2 2203 36
	movq	l___unnamed_21(%rip), %rsi
	leaq	-104(%rbp), %rax
	.loc	2 2203 23 is_stmt 0
	movq	%rax, -32(%rbp)
	.loc	2 2203 42
	movq	-32(%rbp), %rax
	movq	%rax, -24(%rbp)
Ltmp530:
Ltmp546:
	.loc	2 2203 23
	leaq	__ZN44_$LT$$RF$T$u20$as$u20$core..fmt..Display$GT$3fmt17hbbdeefb982f068ecE(%rip), %rcx
	movq	%rax, %rdi
	movq	%rsi, -128(%rbp)
	movq	%rcx, %rsi
	callq	__ZN4core3fmt10ArgumentV13new17he608ac18b942422fE
Ltmp531:
	movq	%rdx, -136(%rbp)
	movq	%rax, -144(%rbp)
	jmp	LBB63_3
Ltmp547:
LBB63_3:
	.loc	2 0 23
	movq	-144(%rbp), %rax
	.loc	2 2203 23
	movq	%rax, -48(%rbp)
	movq	-136(%rbp), %rcx
	movq	%rcx, -40(%rbp)
Ltmp532:
	leaq	-96(%rbp), %rdi
	leaq	-48(%rbp), %rcx
	movl	$1, %edx
	movq	-128(%rbp), %rsi
	movq	%rdx, -152(%rbp)
	movq	-152(%rbp), %r8
Ltmp548:
	.loc	2 2203 23
	callq	__ZN4core3fmt9Arguments6new_v117h7e04578d4a7b2a9fE
Ltmp533:
	jmp	LBB63_5
Ltmp549:
LBB63_4:
	.loc	2 0 23
	movq	-112(%rbp), %rdi
	.loc	2 2207 5 is_stmt 1
	callq	__ZN4core3ptr13drop_in_place17hddc2ddb5a516c59bE
	jmp	LBB63_1
LBB63_5:
Ltmp550:
Ltmp534:
	.loc	2 0 5 is_stmt 0
	leaq	-96(%rbp), %rsi
	movq	-112(%rbp), %rdi
Ltmp551:
	.loc	2 2203 9 is_stmt 1
	callq	__ZN4core3fmt5Write9write_fmt17h944bf95f141f8360E
Ltmp535:
	movb	%al, -153(%rbp)
	jmp	LBB63_6
Ltmp552:
LBB63_6:
Ltmp536:
	.loc	2 0 9 is_stmt 0
	movb	-153(%rbp), %al
	.loc	2 2203 9
	movzbl	%al, %ecx
	andl	$1, %ecx
	leaq	l___unnamed_22(%rip), %rsi
	leaq	l___unnamed_23(%rip), %rdx
	movl	$55, %edi
	movq	%rdi, -168(%rbp)
	movl	%ecx, %edi
	movq	-168(%rbp), %r8
	movq	%rdx, -176(%rbp)
	movq	%r8, %rdx
	movq	-176(%rbp), %rcx
	callq	__ZN4core6result19Result$LT$T$C$E$GT$6expect17h5006d59a6e486344E
Ltmp537:
	jmp	LBB63_7
Ltmp553:
LBB63_7:
Ltmp538:
	.loc	2 0 9
	movq	-112(%rbp), %rdi
	.loc	2 2205 9 is_stmt 1
	callq	__ZN5alloc6string6String13shrink_to_fit17h946efa66aea93fbbE
Ltmp539:
	jmp	LBB63_8
Ltmp554:
LBB63_8:
	.loc	2 0 9 is_stmt 0
	movq	-120(%rbp), %rax
	.loc	2 2207 6 is_stmt 1
	addq	$176, %rsp
	popq	%rbp
	retq
Ltmp555:
LBB63_9:
Ltmp540:
	.loc	2 0 6 is_stmt 0
	movq	%rax, -16(%rbp)
	movl	%edx, -8(%rbp)
	jmp	LBB63_4
Lfunc_end63:
	.cfi_endproc
	.section	__TEXT,__gcc_except_tab
	.p2align	2
GCC_except_table63:
Lexception16:
	.byte	255
	.byte	255
	.byte	1
	.uleb128 Lcst_end16-Lcst_begin16
Lcst_begin16:
	.uleb128 Lfunc_begin63-Lfunc_begin63
	.uleb128 Ltmp530-Lfunc_begin63
	.byte	0
	.byte	0
	.uleb128 Ltmp530-Lfunc_begin63
	.uleb128 Ltmp533-Ltmp530
	.uleb128 Ltmp540-Lfunc_begin63
	.byte	0
	.uleb128 Ltmp533-Lfunc_begin63
	.uleb128 Ltmp534-Ltmp533
	.byte	0
	.byte	0
	.uleb128 Ltmp534-Lfunc_begin63
	.uleb128 Ltmp539-Ltmp534
	.uleb128 Ltmp540-Lfunc_begin63
	.byte	0
Lcst_end16:
	.p2align	2

	.section	__TEXT,__text,regular,pure_instructions
	.globl	__ZN45_$LT$T$u20$as$u20$alloc..string..ToString$GT$9to_string17ha5a455f52edb7eddE
	.p2align	4, 0x90
__ZN45_$LT$T$u20$as$u20$alloc..string..ToString$GT$9to_string17ha5a455f52edb7eddE:
Lfunc_begin64:
	.loc	2 2200 0 is_stmt 1
	.cfi_startproc
	.cfi_personality 155, _rust_eh_personality
	.cfi_lsda 16, Lexception17
	pushq	%rbp
	.cfi_def_cfa_offset 16
	.cfi_offset %rbp, -16
	movq	%rsp, %rbp
	.cfi_def_cfa_register %rbp
	subq	$176, %rsp
	movq	%rdi, %rax
	movq	%rsi, -104(%rbp)
Ltmp567:
	movq	%rdi, -112(%rbp)
Ltmp568:
	movq	%rax, -120(%rbp)
Ltmp569:
	.loc	2 2202 23 prologue_end
	callq	__ZN5alloc6string6String3new17h7fe5a4fdd9fe8d1fE
	jmp	LBB64_2
Ltmp570:
LBB64_1:
	.loc	2 2200 5
	movq	-16(%rbp), %rdi
	callq	__Unwind_Resume
	ud2
LBB64_2:
Ltmp571:
	.loc	2 2203 36
	movq	l___unnamed_21(%rip), %rsi
	leaq	-104(%rbp), %rax
	.loc	2 2203 23 is_stmt 0
	movq	%rax, -32(%rbp)
	.loc	2 2203 42
	movq	-32(%rbp), %rax
	movq	%rax, -24(%rbp)
Ltmp556:
Ltmp572:
	.loc	2 2203 23
	leaq	__ZN44_$LT$$RF$T$u20$as$u20$core..fmt..Display$GT$3fmt17h0cdabdf6613755f8E(%rip), %rcx
	movq	%rax, %rdi
	movq	%rsi, -128(%rbp)
	movq	%rcx, %rsi
	callq	__ZN4core3fmt10ArgumentV13new17h72633a160db7fa98E
Ltmp557:
	movq	%rdx, -136(%rbp)
	movq	%rax, -144(%rbp)
	jmp	LBB64_3
Ltmp573:
LBB64_3:
	.loc	2 0 23
	movq	-144(%rbp), %rax
	.loc	2 2203 23
	movq	%rax, -48(%rbp)
	movq	-136(%rbp), %rcx
	movq	%rcx, -40(%rbp)
Ltmp558:
	leaq	-96(%rbp), %rdi
	leaq	-48(%rbp), %rcx
	movl	$1, %edx
	movq	-128(%rbp), %rsi
	movq	%rdx, -152(%rbp)
	movq	-152(%rbp), %r8
Ltmp574:
	.loc	2 2203 23
	callq	__ZN4core3fmt9Arguments6new_v117h7e04578d4a7b2a9fE
Ltmp559:
	jmp	LBB64_5
Ltmp575:
LBB64_4:
	.loc	2 0 23
	movq	-112(%rbp), %rdi
	.loc	2 2207 5 is_stmt 1
	callq	__ZN4core3ptr13drop_in_place17hddc2ddb5a516c59bE
	jmp	LBB64_1
LBB64_5:
Ltmp576:
Ltmp560:
	.loc	2 0 5 is_stmt 0
	leaq	-96(%rbp), %rsi
	movq	-112(%rbp), %rdi
Ltmp577:
	.loc	2 2203 9 is_stmt 1
	callq	__ZN4core3fmt5Write9write_fmt17h944bf95f141f8360E
Ltmp561:
	movb	%al, -153(%rbp)
	jmp	LBB64_6
Ltmp578:
LBB64_6:
Ltmp562:
	.loc	2 0 9 is_stmt 0
	movb	-153(%rbp), %al
	.loc	2 2203 9
	movzbl	%al, %ecx
	andl	$1, %ecx
	leaq	l___unnamed_22(%rip), %rsi
	leaq	l___unnamed_23(%rip), %rdx
	movl	$55, %edi
	movq	%rdi, -168(%rbp)
	movl	%ecx, %edi
	movq	-168(%rbp), %r8
	movq	%rdx, -176(%rbp)
	movq	%r8, %rdx
	movq	-176(%rbp), %rcx
	callq	__ZN4core6result19Result$LT$T$C$E$GT$6expect17h5006d59a6e486344E
Ltmp563:
	jmp	LBB64_7
Ltmp579:
LBB64_7:
Ltmp564:
	.loc	2 0 9
	movq	-112(%rbp), %rdi
	.loc	2 2205 9 is_stmt 1
	callq	__ZN5alloc6string6String13shrink_to_fit17h946efa66aea93fbbE
Ltmp565:
	jmp	LBB64_8
Ltmp580:
LBB64_8:
	.loc	2 0 9 is_stmt 0
	movq	-120(%rbp), %rax
	.loc	2 2207 6 is_stmt 1
	addq	$176, %rsp
	popq	%rbp
	retq
Ltmp581:
LBB64_9:
Ltmp566:
	.loc	2 0 6 is_stmt 0
	movq	%rax, -16(%rbp)
	movl	%edx, -8(%rbp)
	jmp	LBB64_4
Lfunc_end64:
	.cfi_endproc
	.section	__TEXT,__gcc_except_tab
	.p2align	2
GCC_except_table64:
Lexception17:
	.byte	255
	.byte	255
	.byte	1
	.uleb128 Lcst_end17-Lcst_begin17
Lcst_begin17:
	.uleb128 Lfunc_begin64-Lfunc_begin64
	.uleb128 Ltmp556-Lfunc_begin64
	.byte	0
	.byte	0
	.uleb128 Ltmp556-Lfunc_begin64
	.uleb128 Ltmp559-Ltmp556
	.uleb128 Ltmp566-Lfunc_begin64
	.byte	0
	.uleb128 Ltmp559-Lfunc_begin64
	.uleb128 Ltmp560-Ltmp559
	.byte	0
	.byte	0
	.uleb128 Ltmp560-Lfunc_begin64
	.uleb128 Ltmp565-Ltmp560
	.uleb128 Ltmp566-Lfunc_begin64
	.byte	0
Lcst_end17:
	.p2align	2

	.section	__TEXT,__text,regular,pure_instructions
	.globl	__ZN45_$LT$T$u20$as$u20$alloc..string..ToString$GT$9to_string17haaaf37a0dabae04cE
	.p2align	4, 0x90
__ZN45_$LT$T$u20$as$u20$alloc..string..ToString$GT$9to_string17haaaf37a0dabae04cE:
Lfunc_begin65:
	.loc	2 2200 0 is_stmt 1
	.cfi_startproc
	.cfi_personality 155, _rust_eh_personality
	.cfi_lsda 16, Lexception18
	pushq	%rbp
	.cfi_def_cfa_offset 16
	.cfi_offset %rbp, -16
	movq	%rsp, %rbp
	.cfi_def_cfa_register %rbp
	subq	$176, %rsp
	movq	%rdi, %rax
	movq	%rsi, -104(%rbp)
Ltmp593:
	movq	%rdi, -112(%rbp)
Ltmp594:
	movq	%rax, -120(%rbp)
Ltmp595:
	.loc	2 2202 23 prologue_end
	callq	__ZN5alloc6string6String3new17h7fe5a4fdd9fe8d1fE
	jmp	LBB65_2
Ltmp596:
LBB65_1:
	.loc	2 2200 5
	movq	-16(%rbp), %rdi
	callq	__Unwind_Resume
	ud2
LBB65_2:
Ltmp597:
	.loc	2 2203 36
	movq	l___unnamed_21(%rip), %rsi
	leaq	-104(%rbp), %rax
	.loc	2 2203 23 is_stmt 0
	movq	%rax, -32(%rbp)
	.loc	2 2203 42
	movq	-32(%rbp), %rax
	movq	%rax, -24(%rbp)
Ltmp582:
Ltmp598:
	.loc	2 2203 23
	leaq	__ZN44_$LT$$RF$T$u20$as$u20$core..fmt..Display$GT$3fmt17h2ace56d34b473260E(%rip), %rcx
	movq	%rax, %rdi
	movq	%rsi, -128(%rbp)
	movq	%rcx, %rsi
	callq	__ZN4core3fmt10ArgumentV13new17hc174b199f0bf2e75E
Ltmp583:
	movq	%rdx, -136(%rbp)
	movq	%rax, -144(%rbp)
	jmp	LBB65_3
Ltmp599:
LBB65_3:
	.loc	2 0 23
	movq	-144(%rbp), %rax
	.loc	2 2203 23
	movq	%rax, -48(%rbp)
	movq	-136(%rbp), %rcx
	movq	%rcx, -40(%rbp)
Ltmp584:
	leaq	-96(%rbp), %rdi
	leaq	-48(%rbp), %rcx
	movl	$1, %edx
	movq	-128(%rbp), %rsi
	movq	%rdx, -152(%rbp)
	movq	-152(%rbp), %r8
Ltmp600:
	.loc	2 2203 23
	callq	__ZN4core3fmt9Arguments6new_v117h7e04578d4a7b2a9fE
Ltmp585:
	jmp	LBB65_5
Ltmp601:
LBB65_4:
	.loc	2 0 23
	movq	-112(%rbp), %rdi
	.loc	2 2207 5 is_stmt 1
	callq	__ZN4core3ptr13drop_in_place17hddc2ddb5a516c59bE
	jmp	LBB65_1
LBB65_5:
Ltmp602:
Ltmp586:
	.loc	2 0 5 is_stmt 0
	leaq	-96(%rbp), %rsi
	movq	-112(%rbp), %rdi
Ltmp603:
	.loc	2 2203 9 is_stmt 1
	callq	__ZN4core3fmt5Write9write_fmt17h944bf95f141f8360E
Ltmp587:
	movb	%al, -153(%rbp)
	jmp	LBB65_6
Ltmp604:
LBB65_6:
Ltmp588:
	.loc	2 0 9 is_stmt 0
	movb	-153(%rbp), %al
	.loc	2 2203 9
	movzbl	%al, %ecx
	andl	$1, %ecx
	leaq	l___unnamed_22(%rip), %rsi
	leaq	l___unnamed_23(%rip), %rdx
	movl	$55, %edi
	movq	%rdi, -168(%rbp)
	movl	%ecx, %edi
	movq	-168(%rbp), %r8
	movq	%rdx, -176(%rbp)
	movq	%r8, %rdx
	movq	-176(%rbp), %rcx
	callq	__ZN4core6result19Result$LT$T$C$E$GT$6expect17h5006d59a6e486344E
Ltmp589:
	jmp	LBB65_7
Ltmp605:
LBB65_7:
Ltmp590:
	.loc	2 0 9
	movq	-112(%rbp), %rdi
	.loc	2 2205 9 is_stmt 1
	callq	__ZN5alloc6string6String13shrink_to_fit17h946efa66aea93fbbE
Ltmp591:
	jmp	LBB65_8
Ltmp606:
LBB65_8:
	.loc	2 0 9 is_stmt 0
	movq	-120(%rbp), %rax
	.loc	2 2207 6 is_stmt 1
	addq	$176, %rsp
	popq	%rbp
	retq
Ltmp607:
LBB65_9:
Ltmp592:
	.loc	2 0 6 is_stmt 0
	movq	%rax, -16(%rbp)
	movl	%edx, -8(%rbp)
	jmp	LBB65_4
Lfunc_end65:
	.cfi_endproc
	.section	__TEXT,__gcc_except_tab
	.p2align	2
GCC_except_table65:
Lexception18:
	.byte	255
	.byte	255
	.byte	1
	.uleb128 Lcst_end18-Lcst_begin18
Lcst_begin18:
	.uleb128 Lfunc_begin65-Lfunc_begin65
	.uleb128 Ltmp582-Lfunc_begin65
	.byte	0
	.byte	0
	.uleb128 Ltmp582-Lfunc_begin65
	.uleb128 Ltmp585-Ltmp582
	.uleb128 Ltmp592-Lfunc_begin65
	.byte	0
	.uleb128 Ltmp585-Lfunc_begin65
	.uleb128 Ltmp586-Ltmp585
	.byte	0
	.byte	0
	.uleb128 Ltmp586-Lfunc_begin65
	.uleb128 Ltmp591-Ltmp586
	.uleb128 Ltmp592-Lfunc_begin65
	.byte	0
Lcst_end18:
	.p2align	2

	.section	__TEXT,__text,regular,pure_instructions
	.globl	__ZN45_$LT$T$u20$as$u20$alloc..string..ToString$GT$9to_string17hb00e22e47c196d07E
	.p2align	4, 0x90
__ZN45_$LT$T$u20$as$u20$alloc..string..ToString$GT$9to_string17hb00e22e47c196d07E:
Lfunc_begin66:
	.loc	2 2200 0 is_stmt 1
	.cfi_startproc
	.cfi_personality 155, _rust_eh_personality
	.cfi_lsda 16, Lexception19
	pushq	%rbp
	.cfi_def_cfa_offset 16
	.cfi_offset %rbp, -16
	movq	%rsp, %rbp
	.cfi_def_cfa_register %rbp
	subq	$176, %rsp
	movq	%rdi, %rax
	movq	%rsi, -104(%rbp)
Ltmp619:
	movq	%rdi, -112(%rbp)
Ltmp620:
	movq	%rax, -120(%rbp)
Ltmp621:
	.loc	2 2202 23 prologue_end
	callq	__ZN5alloc6string6String3new17h7fe5a4fdd9fe8d1fE
	jmp	LBB66_2
Ltmp622:
LBB66_1:
	.loc	2 2200 5
	movq	-16(%rbp), %rdi
	callq	__Unwind_Resume
	ud2
LBB66_2:
Ltmp623:
	.loc	2 2203 36
	movq	l___unnamed_21(%rip), %rsi
	leaq	-104(%rbp), %rax
	.loc	2 2203 23 is_stmt 0
	movq	%rax, -32(%rbp)
	.loc	2 2203 42
	movq	-32(%rbp), %rax
	movq	%rax, -24(%rbp)
Ltmp608:
Ltmp624:
	.loc	2 2203 23
	leaq	__ZN44_$LT$$RF$T$u20$as$u20$core..fmt..Display$GT$3fmt17h6d83759b41ab0999E(%rip), %rcx
	movq	%rax, %rdi
	movq	%rsi, -128(%rbp)
	movq	%rcx, %rsi
	callq	__ZN4core3fmt10ArgumentV13new17h3e909e84d3475446E
Ltmp609:
	movq	%rdx, -136(%rbp)
	movq	%rax, -144(%rbp)
	jmp	LBB66_3
Ltmp625:
LBB66_3:
	.loc	2 0 23
	movq	-144(%rbp), %rax
	.loc	2 2203 23
	movq	%rax, -48(%rbp)
	movq	-136(%rbp), %rcx
	movq	%rcx, -40(%rbp)
Ltmp610:
	leaq	-96(%rbp), %rdi
	leaq	-48(%rbp), %rcx
	movl	$1, %edx
	movq	-128(%rbp), %rsi
	movq	%rdx, -152(%rbp)
	movq	-152(%rbp), %r8
Ltmp626:
	.loc	2 2203 23
	callq	__ZN4core3fmt9Arguments6new_v117h7e04578d4a7b2a9fE
Ltmp611:
	jmp	LBB66_5
Ltmp627:
LBB66_4:
	.loc	2 0 23
	movq	-112(%rbp), %rdi
	.loc	2 2207 5 is_stmt 1
	callq	__ZN4core3ptr13drop_in_place17hddc2ddb5a516c59bE
	jmp	LBB66_1
LBB66_5:
Ltmp628:
Ltmp612:
	.loc	2 0 5 is_stmt 0
	leaq	-96(%rbp), %rsi
	movq	-112(%rbp), %rdi
Ltmp629:
	.loc	2 2203 9 is_stmt 1
	callq	__ZN4core3fmt5Write9write_fmt17h944bf95f141f8360E
Ltmp613:
	movb	%al, -153(%rbp)
	jmp	LBB66_6
Ltmp630:
LBB66_6:
Ltmp614:
	.loc	2 0 9 is_stmt 0
	movb	-153(%rbp), %al
	.loc	2 2203 9
	movzbl	%al, %ecx
	andl	$1, %ecx
	leaq	l___unnamed_22(%rip), %rsi
	leaq	l___unnamed_23(%rip), %rdx
	movl	$55, %edi
	movq	%rdi, -168(%rbp)
	movl	%ecx, %edi
	movq	-168(%rbp), %r8
	movq	%rdx, -176(%rbp)
	movq	%r8, %rdx
	movq	-176(%rbp), %rcx
	callq	__ZN4core6result19Result$LT$T$C$E$GT$6expect17h5006d59a6e486344E
Ltmp615:
	jmp	LBB66_7
Ltmp631:
LBB66_7:
Ltmp616:
	.loc	2 0 9
	movq	-112(%rbp), %rdi
	.loc	2 2205 9 is_stmt 1
	callq	__ZN5alloc6string6String13shrink_to_fit17h946efa66aea93fbbE
Ltmp617:
	jmp	LBB66_8
Ltmp632:
LBB66_8:
	.loc	2 0 9 is_stmt 0
	movq	-120(%rbp), %rax
	.loc	2 2207 6 is_stmt 1
	addq	$176, %rsp
	popq	%rbp
	retq
Ltmp633:
LBB66_9:
Ltmp618:
	.loc	2 0 6 is_stmt 0
	movq	%rax, -16(%rbp)
	movl	%edx, -8(%rbp)
	jmp	LBB66_4
Lfunc_end66:
	.cfi_endproc
	.section	__TEXT,__gcc_except_tab
	.p2align	2
GCC_except_table66:
Lexception19:
	.byte	255
	.byte	255
	.byte	1
	.uleb128 Lcst_end19-Lcst_begin19
Lcst_begin19:
	.uleb128 Lfunc_begin66-Lfunc_begin66
	.uleb128 Ltmp608-Lfunc_begin66
	.byte	0
	.byte	0
	.uleb128 Ltmp608-Lfunc_begin66
	.uleb128 Ltmp611-Ltmp608
	.uleb128 Ltmp618-Lfunc_begin66
	.byte	0
	.uleb128 Ltmp611-Lfunc_begin66
	.uleb128 Ltmp612-Ltmp611
	.byte	0
	.byte	0
	.uleb128 Ltmp612-Lfunc_begin66
	.uleb128 Ltmp617-Ltmp612
	.uleb128 Ltmp618-Lfunc_begin66
	.byte	0
Lcst_end19:
	.p2align	2

	.section	__TEXT,__text,regular,pure_instructions
	.globl	__ZN45_$LT$T$u20$as$u20$alloc..string..ToString$GT$9to_string17hc77c56f0c67c6f37E
	.p2align	4, 0x90
__ZN45_$LT$T$u20$as$u20$alloc..string..ToString$GT$9to_string17hc77c56f0c67c6f37E:
Lfunc_begin67:
	.loc	2 2200 0 is_stmt 1
	.cfi_startproc
	.cfi_personality 155, _rust_eh_personality
	.cfi_lsda 16, Lexception20
	pushq	%rbp
	.cfi_def_cfa_offset 16
	.cfi_offset %rbp, -16
	movq	%rsp, %rbp
	.cfi_def_cfa_register %rbp
	subq	$176, %rsp
	movq	%rdi, %rax
	movq	%rsi, -104(%rbp)
Ltmp645:
	movq	%rdi, -112(%rbp)
Ltmp646:
	movq	%rax, -120(%rbp)
Ltmp647:
	.loc	2 2202 23 prologue_end
	callq	__ZN5alloc6string6String3new17h7fe5a4fdd9fe8d1fE
	jmp	LBB67_2
Ltmp648:
LBB67_1:
	.loc	2 2200 5
	movq	-16(%rbp), %rdi
	callq	__Unwind_Resume
	ud2
LBB67_2:
Ltmp649:
	.loc	2 2203 36
	movq	l___unnamed_21(%rip), %rsi
	leaq	-104(%rbp), %rax
	.loc	2 2203 23 is_stmt 0
	movq	%rax, -32(%rbp)
	.loc	2 2203 42
	movq	-32(%rbp), %rax
	movq	%rax, -24(%rbp)
Ltmp634:
Ltmp650:
	.loc	2 2203 23
	leaq	__ZN44_$LT$$RF$T$u20$as$u20$core..fmt..Display$GT$3fmt17hd58ea114d10999f9E(%rip), %rcx
	movq	%rax, %rdi
	movq	%rsi, -128(%rbp)
	movq	%rcx, %rsi
	callq	__ZN4core3fmt10ArgumentV13new17h7a211c3cb625457bE
Ltmp635:
	movq	%rdx, -136(%rbp)
	movq	%rax, -144(%rbp)
	jmp	LBB67_3
Ltmp651:
LBB67_3:
	.loc	2 0 23
	movq	-144(%rbp), %rax
	.loc	2 2203 23
	movq	%rax, -48(%rbp)
	movq	-136(%rbp), %rcx
	movq	%rcx, -40(%rbp)
Ltmp636:
	leaq	-96(%rbp), %rdi
	leaq	-48(%rbp), %rcx
	movl	$1, %edx
	movq	-128(%rbp), %rsi
	movq	%rdx, -152(%rbp)
	movq	-152(%rbp), %r8
Ltmp652:
	.loc	2 2203 23
	callq	__ZN4core3fmt9Arguments6new_v117h7e04578d4a7b2a9fE
Ltmp637:
	jmp	LBB67_5
Ltmp653:
LBB67_4:
	.loc	2 0 23
	movq	-112(%rbp), %rdi
	.loc	2 2207 5 is_stmt 1
	callq	__ZN4core3ptr13drop_in_place17hddc2ddb5a516c59bE
	jmp	LBB67_1
LBB67_5:
Ltmp654:
Ltmp638:
	.loc	2 0 5 is_stmt 0
	leaq	-96(%rbp), %rsi
	movq	-112(%rbp), %rdi
Ltmp655:
	.loc	2 2203 9 is_stmt 1
	callq	__ZN4core3fmt5Write9write_fmt17h944bf95f141f8360E
Ltmp639:
	movb	%al, -153(%rbp)
	jmp	LBB67_6
Ltmp656:
LBB67_6:
Ltmp640:
	.loc	2 0 9 is_stmt 0
	movb	-153(%rbp), %al
	.loc	2 2203 9
	movzbl	%al, %ecx
	andl	$1, %ecx
	leaq	l___unnamed_22(%rip), %rsi
	leaq	l___unnamed_23(%rip), %rdx
	movl	$55, %edi
	movq	%rdi, -168(%rbp)
	movl	%ecx, %edi
	movq	-168(%rbp), %r8
	movq	%rdx, -176(%rbp)
	movq	%r8, %rdx
	movq	-176(%rbp), %rcx
	callq	__ZN4core6result19Result$LT$T$C$E$GT$6expect17h5006d59a6e486344E
Ltmp641:
	jmp	LBB67_7
Ltmp657:
LBB67_7:
Ltmp642:
	.loc	2 0 9
	movq	-112(%rbp), %rdi
	.loc	2 2205 9 is_stmt 1
	callq	__ZN5alloc6string6String13shrink_to_fit17h946efa66aea93fbbE
Ltmp643:
	jmp	LBB67_8
Ltmp658:
LBB67_8:
	.loc	2 0 9 is_stmt 0
	movq	-120(%rbp), %rax
	.loc	2 2207 6 is_stmt 1
	addq	$176, %rsp
	popq	%rbp
	retq
Ltmp659:
LBB67_9:
Ltmp644:
	.loc	2 0 6 is_stmt 0
	movq	%rax, -16(%rbp)
	movl	%edx, -8(%rbp)
	jmp	LBB67_4
Lfunc_end67:
	.cfi_endproc
	.section	__TEXT,__gcc_except_tab
	.p2align	2
GCC_except_table67:
Lexception20:
	.byte	255
	.byte	255
	.byte	1
	.uleb128 Lcst_end20-Lcst_begin20
Lcst_begin20:
	.uleb128 Lfunc_begin67-Lfunc_begin67
	.uleb128 Ltmp634-Lfunc_begin67
	.byte	0
	.byte	0
	.uleb128 Ltmp634-Lfunc_begin67
	.uleb128 Ltmp637-Ltmp634
	.uleb128 Ltmp644-Lfunc_begin67
	.byte	0
	.uleb128 Ltmp637-Lfunc_begin67
	.uleb128 Ltmp638-Ltmp637
	.byte	0
	.byte	0
	.uleb128 Ltmp638-Lfunc_begin67
	.uleb128 Ltmp643-Ltmp638
	.uleb128 Ltmp644-Lfunc_begin67
	.byte	0
Lcst_end20:
	.p2align	2

	.section	__TEXT,__text,regular,pure_instructions
	.globl	__ZN45_$LT$T$u20$as$u20$alloc..string..ToString$GT$9to_string17hcfc715efbac99696E
	.p2align	4, 0x90
__ZN45_$LT$T$u20$as$u20$alloc..string..ToString$GT$9to_string17hcfc715efbac99696E:
Lfunc_begin68:
	.loc	2 2200 0 is_stmt 1
	.cfi_startproc
	.cfi_personality 155, _rust_eh_personality
	.cfi_lsda 16, Lexception21
	pushq	%rbp
	.cfi_def_cfa_offset 16
	.cfi_offset %rbp, -16
	movq	%rsp, %rbp
	.cfi_def_cfa_register %rbp
	subq	$176, %rsp
	movq	%rdi, %rax
	movq	%rsi, -104(%rbp)
Ltmp671:
	movq	%rdi, -112(%rbp)
Ltmp672:
	movq	%rax, -120(%rbp)
Ltmp673:
	.loc	2 2202 23 prologue_end
	callq	__ZN5alloc6string6String3new17h7fe5a4fdd9fe8d1fE
	jmp	LBB68_2
Ltmp674:
LBB68_1:
	.loc	2 2200 5
	movq	-16(%rbp), %rdi
	callq	__Unwind_Resume
	ud2
LBB68_2:
Ltmp675:
	.loc	2 2203 36
	movq	l___unnamed_21(%rip), %rsi
	leaq	-104(%rbp), %rax
	.loc	2 2203 23 is_stmt 0
	movq	%rax, -32(%rbp)
	.loc	2 2203 42
	movq	-32(%rbp), %rax
	movq	%rax, -24(%rbp)
Ltmp660:
Ltmp676:
	.loc	2 2203 23
	leaq	__ZN44_$LT$$RF$T$u20$as$u20$core..fmt..Display$GT$3fmt17ha5969ed394b5c879E(%rip), %rcx
	movq	%rax, %rdi
	movq	%rsi, -128(%rbp)
	movq	%rcx, %rsi
	callq	__ZN4core3fmt10ArgumentV13new17hbabea82536efc6afE
Ltmp661:
	movq	%rdx, -136(%rbp)
	movq	%rax, -144(%rbp)
	jmp	LBB68_3
Ltmp677:
LBB68_3:
	.loc	2 0 23
	movq	-144(%rbp), %rax
	.loc	2 2203 23
	movq	%rax, -48(%rbp)
	movq	-136(%rbp), %rcx
	movq	%rcx, -40(%rbp)
Ltmp662:
	leaq	-96(%rbp), %rdi
	leaq	-48(%rbp), %rcx
	movl	$1, %edx
	movq	-128(%rbp), %rsi
	movq	%rdx, -152(%rbp)
	movq	-152(%rbp), %r8
Ltmp678:
	.loc	2 2203 23
	callq	__ZN4core3fmt9Arguments6new_v117h7e04578d4a7b2a9fE
Ltmp663:
	jmp	LBB68_5
Ltmp679:
LBB68_4:
	.loc	2 0 23
	movq	-112(%rbp), %rdi
	.loc	2 2207 5 is_stmt 1
	callq	__ZN4core3ptr13drop_in_place17hddc2ddb5a516c59bE
	jmp	LBB68_1
LBB68_5:
Ltmp680:
Ltmp664:
	.loc	2 0 5 is_stmt 0
	leaq	-96(%rbp), %rsi
	movq	-112(%rbp), %rdi
Ltmp681:
	.loc	2 2203 9 is_stmt 1
	callq	__ZN4core3fmt5Write9write_fmt17h944bf95f141f8360E
Ltmp665:
	movb	%al, -153(%rbp)
	jmp	LBB68_6
Ltmp682:
LBB68_6:
Ltmp666:
	.loc	2 0 9 is_stmt 0
	movb	-153(%rbp), %al
	.loc	2 2203 9
	movzbl	%al, %ecx
	andl	$1, %ecx
	leaq	l___unnamed_22(%rip), %rsi
	leaq	l___unnamed_23(%rip), %rdx
	movl	$55, %edi
	movq	%rdi, -168(%rbp)
	movl	%ecx, %edi
	movq	-168(%rbp), %r8
	movq	%rdx, -176(%rbp)
	movq	%r8, %rdx
	movq	-176(%rbp), %rcx
	callq	__ZN4core6result19Result$LT$T$C$E$GT$6expect17h5006d59a6e486344E
Ltmp667:
	jmp	LBB68_7
Ltmp683:
LBB68_7:
Ltmp668:
	.loc	2 0 9
	movq	-112(%rbp), %rdi
	.loc	2 2205 9 is_stmt 1
	callq	__ZN5alloc6string6String13shrink_to_fit17h946efa66aea93fbbE
Ltmp669:
	jmp	LBB68_8
Ltmp684:
LBB68_8:
	.loc	2 0 9 is_stmt 0
	movq	-120(%rbp), %rax
	.loc	2 2207 6 is_stmt 1
	addq	$176, %rsp
	popq	%rbp
	retq
Ltmp685:
LBB68_9:
Ltmp670:
	.loc	2 0 6 is_stmt 0
	movq	%rax, -16(%rbp)
	movl	%edx, -8(%rbp)
	jmp	LBB68_4
Lfunc_end68:
	.cfi_endproc
	.section	__TEXT,__gcc_except_tab
	.p2align	2
GCC_except_table68:
Lexception21:
	.byte	255
	.byte	255
	.byte	1
	.uleb128 Lcst_end21-Lcst_begin21
Lcst_begin21:
	.uleb128 Lfunc_begin68-Lfunc_begin68
	.uleb128 Ltmp660-Lfunc_begin68
	.byte	0
	.byte	0
	.uleb128 Ltmp660-Lfunc_begin68
	.uleb128 Ltmp663-Ltmp660
	.uleb128 Ltmp670-Lfunc_begin68
	.byte	0
	.uleb128 Ltmp663-Lfunc_begin68
	.uleb128 Ltmp664-Ltmp663
	.byte	0
	.byte	0
	.uleb128 Ltmp664-Lfunc_begin68
	.uleb128 Ltmp669-Ltmp664
	.uleb128 Ltmp670-Lfunc_begin68
	.byte	0
Lcst_end21:
	.p2align	2

	.section	__TEXT,__text,regular,pure_instructions
	.p2align	4, 0x90
__ZN47_$LT$str$u20$as$u20$alloc..string..ToString$GT$9to_string17h407b0e939372a355E:
Lfunc_begin69:
	.loc	2 2221 0 is_stmt 1
	.cfi_startproc
	pushq	%rbp
	.cfi_def_cfa_offset 16
	.cfi_offset %rbp, -16
	movq	%rsp, %rbp
	.cfi_def_cfa_register %rbp
	subq	$32, %rsp
	movq	%rdi, %rax
	movq	%rsi, -16(%rbp)
	movq	%rdx, -8(%rbp)
	movq	%rax, -24(%rbp)
Ltmp686:
	.loc	2 2222 9 prologue_end
	callq	__ZN76_$LT$alloc..string..String$u20$as$u20$core..convert..From$LT$$RF$str$GT$$GT$4from17h28a86258431b3421E
	.loc	2 0 9 is_stmt 0
	movq	-24(%rbp), %rax
	.loc	2 2223 6 is_stmt 1
	addq	$32, %rsp
	popq	%rbp
	retq
Ltmp687:
Lfunc_end69:
	.cfi_endproc

	.p2align	4, 0x90
__ZN48_$LT$char$u20$as$u20$unicode_xid..UnicodeXID$GT$12is_xid_start17h55febf0488fa0715E:
Lfunc_begin70:
	.file	14 "/Users/yingyuhang/.cargo/registry/src/github.com-1ecc6299db9ec823/unicode-xid-0.2.1/src/lib.rs"
	.loc	14 76 0
	.cfi_startproc
	pushq	%rbp
	.cfi_def_cfa_offset 16
	.cfi_offset %rbp, -16
	movq	%rsp, %rbp
	.cfi_def_cfa_register %rbp
	subq	$16, %rsp
	movl	%edi, -4(%rbp)
Ltmp688:
	.loc	14 77 9 prologue_end
	callq	__ZN11unicode_xid6tables16derived_property9XID_Start17hdc4d138bd2ae5579E
	movb	%al, -5(%rbp)
	.loc	14 0 9 is_stmt 0
	movb	-5(%rbp), %al
	.loc	14 78 6 is_stmt 1
	andb	$1, %al
	movzbl	%al, %eax
	addq	$16, %rsp
	popq	%rbp
	retq
Ltmp689:
Lfunc_end70:
	.cfi_endproc

	.p2align	4, 0x90
__ZN48_$LT$char$u20$as$u20$unicode_xid..UnicodeXID$GT$15is_xid_continue17h93fb06653d557d49E:
Lfunc_begin71:
	.loc	14 81 0
	.cfi_startproc
	pushq	%rbp
	.cfi_def_cfa_offset 16
	.cfi_offset %rbp, -16
	movq	%rsp, %rbp
	.cfi_def_cfa_register %rbp
	subq	$16, %rsp
	movl	%edi, -4(%rbp)
Ltmp690:
	.loc	14 82 9 prologue_end
	callq	__ZN11unicode_xid6tables16derived_property12XID_Continue17hbf3e66f19fcfad7dE
	movb	%al, -5(%rbp)
	.loc	14 0 9 is_stmt 0
	movb	-5(%rbp), %al
	.loc	14 83 6 is_stmt 1
	andb	$1, %al
	movzbl	%al, %eax
	addq	$16, %rsp
	popq	%rbp
	retq
Ltmp691:
Lfunc_end71:
	.cfi_endproc

	.p2align	4, 0x90
__ZN49_$LT$usize$u20$as$u20$core..iter..range..Step$GT$17forward_unchecked17hd3de4e46ff3c0939E:
Lfunc_begin72:
	.file	15 "/rustc/6c8927b0cf80ceee19386026cf9d7fd4fd9d486f/src/libcore/iter/range.rs"
	.loc	15 191 0
	.cfi_startproc
	pushq	%rbp
	.cfi_def_cfa_offset 16
	.cfi_offset %rbp, -16
	movq	%rsp, %rbp
	.cfi_def_cfa_register %rbp
	subq	$32, %rsp
	movq	%rdi, -16(%rbp)
	movq	%rsi, -8(%rbp)
Ltmp692:
	.loc	15 193 22 prologue_end
	callq	__ZN4core3num23_$LT$impl$u20$usize$GT$13unchecked_add17hf91afcfeaa51b25fE
	movq	%rax, -24(%rbp)
	.loc	15 0 22 is_stmt 0
	movq	-24(%rbp), %rax
	.loc	15 194 10 is_stmt 1
	addq	$32, %rsp
	popq	%rbp
	retq
Ltmp693:
Lfunc_end72:
	.cfi_endproc

	.p2align	4, 0x90
__ZN49_$LT$usize$u20$as$u20$core..iter..range..Step$GT$18backward_unchecked17h38c2268ef31dc306E:
Lfunc_begin73:
	.loc	15 197 0
	.cfi_startproc
	pushq	%rbp
	.cfi_def_cfa_offset 16
	.cfi_offset %rbp, -16
	movq	%rsp, %rbp
	.cfi_def_cfa_register %rbp
	subq	$32, %rsp
	movq	%rdi, -16(%rbp)
	movq	%rsi, -8(%rbp)
Ltmp694:
	.loc	15 199 22 prologue_end
	callq	__ZN4core3num23_$LT$impl$u20$usize$GT$13unchecked_sub17hb5cefbe4443b748cE
	movq	%rax, -24(%rbp)
	.loc	15 0 22 is_stmt 0
	movq	-24(%rbp), %rax
	.loc	15 200 10 is_stmt 1
	addq	$32, %rsp
	popq	%rbp
	retq
Ltmp695:
Lfunc_end73:
	.cfi_endproc

	.globl	__ZN4core10intrinsics11write_bytes17h0b14fa9f29d02126E
	.p2align	4, 0x90
__ZN4core10intrinsics11write_bytes17h0b14fa9f29d02126E:
Lfunc_begin74:
	.file	16 "/rustc/6c8927b0cf80ceee19386026cf9d7fd4fd9d486f/src/libcore/intrinsics.rs"
	.loc	16 2275 0
	.cfi_startproc
	pushq	%rbp
	.cfi_def_cfa_offset 16
	.cfi_offset %rbp, -16
	movq	%rsp, %rbp
	.cfi_def_cfa_register %rbp
	subq	$32, %rsp
	movq	%rdi, -24(%rbp)
	movb	%sil, -9(%rbp)
	movq	%rdx, -8(%rbp)
Ltmp696:
	.loc	16 2283 14 prologue_end
	imulq	$48, %rdx, %rdx
	movzbl	%sil, %esi
	callq	_memset
	.loc	16 2284 2
	addq	$32, %rsp
	popq	%rbp
	retq
Ltmp697:
Lfunc_end74:
	.cfi_endproc

	.globl	__ZN4core10intrinsics11write_bytes17hccb399da0e906dcbE
	.p2align	4, 0x90
__ZN4core10intrinsics11write_bytes17hccb399da0e906dcbE:
Lfunc_begin75:
	.loc	16 2275 0
	.cfi_startproc
	pushq	%rbp
	.cfi_def_cfa_offset 16
	.cfi_offset %rbp, -16
	movq	%rsp, %rbp
	.cfi_def_cfa_register %rbp
	subq	$32, %rsp
	movq	%rdi, -24(%rbp)
	movb	%sil, -9(%rbp)
	movq	%rdx, -8(%rbp)
Ltmp698:
	.loc	16 2283 14 prologue_end
	shlq	$0, %rdx
	movzbl	%sil, %esi
	callq	_memset
	.loc	16 2284 2
	addq	$32, %rsp
	popq	%rbp
	retq
Ltmp699:
Lfunc_end75:
	.cfi_endproc

	.globl	__ZN4core10intrinsics19copy_nonoverlapping17h07d2cfc322c8c9ceE
	.p2align	4, 0x90
__ZN4core10intrinsics19copy_nonoverlapping17h07d2cfc322c8c9ceE:
Lfunc_begin76:
	.loc	16 2114 0
	.cfi_startproc
	pushq	%rbp
	.cfi_def_cfa_offset 16
	.cfi_offset %rbp, -16
	movq	%rsp, %rbp
	.cfi_def_cfa_register %rbp
	subq	$32, %rsp
	movq	%rdi, -24(%rbp)
	movq	%rsi, -16(%rbp)
	movq	%rdx, -8(%rbp)
Ltmp700:
	.loc	16 2130 14 prologue_end
	shlq	$3, %rdx
	movq	%rdi, -32(%rbp)
	movq	%rsi, %rdi
	movq	-32(%rbp), %rsi
	callq	_memcpy
	.loc	16 2131 2
	addq	$32, %rsp
	popq	%rbp
	retq
Ltmp701:
Lfunc_end76:
	.cfi_endproc

	.globl	__ZN4core10intrinsics19copy_nonoverlapping17h2c8dd878ad65e56eE
	.p2align	4, 0x90
__ZN4core10intrinsics19copy_nonoverlapping17h2c8dd878ad65e56eE:
Lfunc_begin77:
	.loc	16 2114 0
	.cfi_startproc
	pushq	%rbp
	.cfi_def_cfa_offset 16
	.cfi_offset %rbp, -16
	movq	%rsp, %rbp
	.cfi_def_cfa_register %rbp
	subq	$32, %rsp
	movq	%rdi, -24(%rbp)
	movq	%rsi, -16(%rbp)
	movq	%rdx, -8(%rbp)
Ltmp702:
	.loc	16 2130 14 prologue_end
	shlq	$2, %rdx
	movq	%rdi, -32(%rbp)
	movq	%rsi, %rdi
	movq	-32(%rbp), %rsi
	callq	_memcpy
	.loc	16 2131 2
	addq	$32, %rsp
	popq	%rbp
	retq
Ltmp703:
Lfunc_end77:
	.cfi_endproc

	.globl	__ZN4core10intrinsics19copy_nonoverlapping17h47a0949e16df0cccE
	.p2align	4, 0x90
__ZN4core10intrinsics19copy_nonoverlapping17h47a0949e16df0cccE:
Lfunc_begin78:
	.loc	16 2114 0
	.cfi_startproc
	pushq	%rbp
	.cfi_def_cfa_offset 16
	.cfi_offset %rbp, -16
	movq	%rsp, %rbp
	.cfi_def_cfa_register %rbp
	subq	$32, %rsp
	movq	%rdi, -24(%rbp)
	movq	%rsi, -16(%rbp)
	movq	%rdx, -8(%rbp)
Ltmp704:
	.loc	16 2130 14 prologue_end
	shlq	$2, %rdx
	movq	%rdi, -32(%rbp)
	movq	%rsi, %rdi
	movq	-32(%rbp), %rsi
	callq	_memcpy
	.loc	16 2131 2
	addq	$32, %rsp
	popq	%rbp
	retq
Ltmp705:
Lfunc_end78:
	.cfi_endproc

	.globl	__ZN4core10intrinsics19copy_nonoverlapping17h4a1b75c0619641e8E
	.p2align	4, 0x90
__ZN4core10intrinsics19copy_nonoverlapping17h4a1b75c0619641e8E:
Lfunc_begin79:
	.loc	16 2114 0
	.cfi_startproc
	pushq	%rbp
	.cfi_def_cfa_offset 16
	.cfi_offset %rbp, -16
	movq	%rsp, %rbp
	.cfi_def_cfa_register %rbp
	subq	$32, %rsp
	movq	%rdi, -24(%rbp)
	movq	%rsi, -16(%rbp)
	movq	%rdx, -8(%rbp)
Ltmp706:
	.loc	16 2130 14 prologue_end
	shlq	$5, %rdx
	movq	%rdi, -32(%rbp)
	movq	%rsi, %rdi
	movq	-32(%rbp), %rsi
	callq	_memcpy
	.loc	16 2131 2
	addq	$32, %rsp
	popq	%rbp
	retq
Ltmp707:
Lfunc_end79:
	.cfi_endproc

	.globl	__ZN4core10intrinsics19copy_nonoverlapping17h4ebaf52b9bd07cf5E
	.p2align	4, 0x90
__ZN4core10intrinsics19copy_nonoverlapping17h4ebaf52b9bd07cf5E:
Lfunc_begin80:
	.loc	16 2114 0
	.cfi_startproc
	pushq	%rbp
	.cfi_def_cfa_offset 16
	.cfi_offset %rbp, -16
	movq	%rsp, %rbp
	.cfi_def_cfa_register %rbp
	subq	$32, %rsp
	movq	%rdi, -24(%rbp)
	movq	%rsi, -16(%rbp)
	movq	%rdx, -8(%rbp)
Ltmp708:
	.loc	16 2130 14 prologue_end
	shlq	$2, %rdx
	movq	%rdi, -32(%rbp)
	movq	%rsi, %rdi
	movq	-32(%rbp), %rsi
	callq	_memcpy
	.loc	16 2131 2
	addq	$32, %rsp
	popq	%rbp
	retq
Ltmp709:
Lfunc_end80:
	.cfi_endproc

	.globl	__ZN4core10intrinsics19copy_nonoverlapping17h515fea1cef930e21E
	.p2align	4, 0x90
__ZN4core10intrinsics19copy_nonoverlapping17h515fea1cef930e21E:
Lfunc_begin81:
	.loc	16 2114 0
	.cfi_startproc
	pushq	%rbp
	.cfi_def_cfa_offset 16
	.cfi_offset %rbp, -16
	movq	%rsp, %rbp
	.cfi_def_cfa_register %rbp
	subq	$32, %rsp
	movq	%rdi, -24(%rbp)
	movq	%rsi, -16(%rbp)
	movq	%rdx, -8(%rbp)
Ltmp710:
	.loc	16 2130 14 prologue_end
	imulq	$0, %rdx, %rdx
	movq	%rdi, -32(%rbp)
	movq	%rsi, %rdi
	movq	-32(%rbp), %rsi
	callq	_memcpy
	.loc	16 2131 2
	addq	$32, %rsp
	popq	%rbp
	retq
Ltmp711:
Lfunc_end81:
	.cfi_endproc

	.globl	__ZN4core10intrinsics19copy_nonoverlapping17h69cdff3f3c9b750aE
	.p2align	4, 0x90
__ZN4core10intrinsics19copy_nonoverlapping17h69cdff3f3c9b750aE:
Lfunc_begin82:
	.loc	16 2114 0
	.cfi_startproc
	pushq	%rbp
	.cfi_def_cfa_offset 16
	.cfi_offset %rbp, -16
	movq	%rsp, %rbp
	.cfi_def_cfa_register %rbp
	subq	$32, %rsp
	movq	%rdi, -24(%rbp)
	movq	%rsi, -16(%rbp)
	movq	%rdx, -8(%rbp)
Ltmp712:
	.loc	16 2130 14 prologue_end
	shlq	$3, %rdx
	movq	%rdi, -32(%rbp)
	movq	%rsi, %rdi
	movq	-32(%rbp), %rsi
	callq	_memcpy
	.loc	16 2131 2
	addq	$32, %rsp
	popq	%rbp
	retq
Ltmp713:
Lfunc_end82:
	.cfi_endproc

	.globl	__ZN4core10intrinsics19copy_nonoverlapping17h82d95e74b329a648E
	.p2align	4, 0x90
__ZN4core10intrinsics19copy_nonoverlapping17h82d95e74b329a648E:
Lfunc_begin83:
	.loc	16 2114 0
	.cfi_startproc
	pushq	%rbp
	.cfi_def_cfa_offset 16
	.cfi_offset %rbp, -16
	movq	%rsp, %rbp
	.cfi_def_cfa_register %rbp
	subq	$32, %rsp
	movq	%rdi, -24(%rbp)
	movq	%rsi, -16(%rbp)
	movq	%rdx, -8(%rbp)
Ltmp714:
	.loc	16 2130 14 prologue_end
	shlq	$0, %rdx
	movq	%rdi, -32(%rbp)
	movq	%rsi, %rdi
	movq	-32(%rbp), %rsi
	callq	_memcpy
	.loc	16 2131 2
	addq	$32, %rsp
	popq	%rbp
	retq
Ltmp715:
Lfunc_end83:
	.cfi_endproc

	.globl	__ZN4core10intrinsics19copy_nonoverlapping17h92e64a2e07965055E
	.p2align	4, 0x90
__ZN4core10intrinsics19copy_nonoverlapping17h92e64a2e07965055E:
Lfunc_begin84:
	.loc	16 2114 0
	.cfi_startproc
	pushq	%rbp
	.cfi_def_cfa_offset 16
	.cfi_offset %rbp, -16
	movq	%rsp, %rbp
	.cfi_def_cfa_register %rbp
	subq	$32, %rsp
	movq	%rdi, -24(%rbp)
	movq	%rsi, -16(%rbp)
	movq	%rdx, -8(%rbp)
Ltmp716:
	.loc	16 2130 14 prologue_end
	shlq	$0, %rdx
	movq	%rdi, -32(%rbp)
	movq	%rsi, %rdi
	movq	-32(%rbp), %rsi
	callq	_memcpy
	.loc	16 2131 2
	addq	$32, %rsp
	popq	%rbp
	retq
Ltmp717:
Lfunc_end84:
	.cfi_endproc

	.globl	__ZN4core10intrinsics19copy_nonoverlapping17ha980b5e1fe16692bE
	.p2align	4, 0x90
__ZN4core10intrinsics19copy_nonoverlapping17ha980b5e1fe16692bE:
Lfunc_begin85:
	.loc	16 2114 0
	.cfi_startproc
	pushq	%rbp
	.cfi_def_cfa_offset 16
	.cfi_offset %rbp, -16
	movq	%rsp, %rbp
	.cfi_def_cfa_register %rbp
	subq	$32, %rsp
	movq	%rdi, -24(%rbp)
	movq	%rsi, -16(%rbp)
	movq	%rdx, -8(%rbp)
Ltmp718:
	.loc	16 2130 14 prologue_end
	shlq	$4, %rdx
	movq	%rdi, -32(%rbp)
	movq	%rsi, %rdi
	movq	-32(%rbp), %rsi
	callq	_memcpy
	.loc	16 2131 2
	addq	$32, %rsp
	popq	%rbp
	retq
Ltmp719:
Lfunc_end85:
	.cfi_endproc

	.globl	__ZN4core10intrinsics19copy_nonoverlapping17hb71634ef038076f5E
	.p2align	4, 0x90
__ZN4core10intrinsics19copy_nonoverlapping17hb71634ef038076f5E:
Lfunc_begin86:
	.loc	16 2114 0
	.cfi_startproc
	pushq	%rbp
	.cfi_def_cfa_offset 16
	.cfi_offset %rbp, -16
	movq	%rsp, %rbp
	.cfi_def_cfa_register %rbp
	subq	$32, %rsp
	movq	%rdi, -24(%rbp)
	movq	%rsi, -16(%rbp)
	movq	%rdx, -8(%rbp)
Ltmp720:
	.loc	16 2130 14 prologue_end
	shlq	$4, %rdx
	movq	%rdi, -32(%rbp)
	movq	%rsi, %rdi
	movq	-32(%rbp), %rsi
	callq	_memcpy
	.loc	16 2131 2
	addq	$32, %rsp
	popq	%rbp
	retq
Ltmp721:
Lfunc_end86:
	.cfi_endproc

	.globl	__ZN4core10intrinsics19copy_nonoverlapping17hbe9f31ed95d1ca25E
	.p2align	4, 0x90
__ZN4core10intrinsics19copy_nonoverlapping17hbe9f31ed95d1ca25E:
Lfunc_begin87:
	.loc	16 2114 0
	.cfi_startproc
	pushq	%rbp
	.cfi_def_cfa_offset 16
	.cfi_offset %rbp, -16
	movq	%rsp, %rbp
	.cfi_def_cfa_register %rbp
	subq	$32, %rsp
	movq	%rdi, -24(%rbp)
	movq	%rsi, -16(%rbp)
	movq	%rdx, -8(%rbp)
Ltmp722:
	.loc	16 2130 14 prologue_end
	shlq	$3, %rdx
	movq	%rdi, -32(%rbp)
	movq	%rsi, %rdi
	movq	-32(%rbp), %rsi
	callq	_memcpy
	.loc	16 2131 2
	addq	$32, %rsp
	popq	%rbp
	retq
Ltmp723:
Lfunc_end87:
	.cfi_endproc

	.globl	__ZN4core10intrinsics19copy_nonoverlapping17hdfafeda6f4384048E
	.p2align	4, 0x90
__ZN4core10intrinsics19copy_nonoverlapping17hdfafeda6f4384048E:
Lfunc_begin88:
	.loc	16 2114 0
	.cfi_startproc
	pushq	%rbp
	.cfi_def_cfa_offset 16
	.cfi_offset %rbp, -16
	movq	%rsp, %rbp
	.cfi_def_cfa_register %rbp
	subq	$32, %rsp
	movq	%rdi, -24(%rbp)
	movq	%rsi, -16(%rbp)
	movq	%rdx, -8(%rbp)
Ltmp724:
	.loc	16 2130 14 prologue_end
	imulq	$48, %rdx, %rdx
	movq	%rdi, -32(%rbp)
	movq	%rsi, %rdi
	movq	-32(%rbp), %rsi
	callq	_memcpy
	.loc	16 2131 2
	addq	$32, %rsp
	popq	%rbp
	retq
Ltmp725:
Lfunc_end88:
	.cfi_endproc

	.globl	__ZN4core10intrinsics19copy_nonoverlapping17hf0b45885a9ded240E
	.p2align	4, 0x90
__ZN4core10intrinsics19copy_nonoverlapping17hf0b45885a9ded240E:
Lfunc_begin89:
	.loc	16 2114 0
	.cfi_startproc
	pushq	%rbp
	.cfi_def_cfa_offset 16
	.cfi_offset %rbp, -16
	movq	%rsp, %rbp
	.cfi_def_cfa_register %rbp
	subq	$32, %rsp
	movq	%rdi, -24(%rbp)
	movq	%rsi, -16(%rbp)
	movq	%rdx, -8(%rbp)
Ltmp726:
	.loc	16 2130 14 prologue_end
	imulq	$24, %rdx, %rdx
	movq	%rdi, -32(%rbp)
	movq	%rsi, %rdi
	movq	-32(%rbp), %rsi
	callq	_memcpy
	.loc	16 2131 2
	addq	$32, %rsp
	popq	%rbp
	retq
Ltmp727:
Lfunc_end89:
	.cfi_endproc

	.globl	__ZN4core10intrinsics4copy17h77efdb5d9c8cddcbE
	.p2align	4, 0x90
__ZN4core10intrinsics4copy17h77efdb5d9c8cddcbE:
Lfunc_begin90:
	.loc	16 2187 0
	.cfi_startproc
	pushq	%rbp
	.cfi_def_cfa_offset 16
	.cfi_offset %rbp, -16
	movq	%rsp, %rbp
	.cfi_def_cfa_register %rbp
	subq	$32, %rsp
	movq	%rdi, -24(%rbp)
	movq	%rsi, -16(%rbp)
	movq	%rdx, -8(%rbp)
Ltmp728:
	.loc	16 2198 14 prologue_end
	shlq	$0, %rdx
	movq	%rdi, -32(%rbp)
	movq	%rsi, %rdi
	movq	-32(%rbp), %rsi
	callq	_memmove
	.loc	16 2199 2
	addq	$32, %rsp
	popq	%rbp
	retq
Ltmp729:
Lfunc_end90:
	.cfi_endproc

	.globl	__ZN4core10intrinsics4copy17hf9df05d3454da219E
	.p2align	4, 0x90
__ZN4core10intrinsics4copy17hf9df05d3454da219E:
Lfunc_begin91:
	.loc	16 2187 0
	.cfi_startproc
	pushq	%rbp
	.cfi_def_cfa_offset 16
	.cfi_offset %rbp, -16
	movq	%rsp, %rbp
	.cfi_def_cfa_register %rbp
	subq	$32, %rsp
	movq	%rdi, -24(%rbp)
	movq	%rsi, -16(%rbp)
	movq	%rdx, -8(%rbp)
Ltmp730:
	.loc	16 2198 14 prologue_end
	shlq	$3, %rdx
	movq	%rdi, -32(%rbp)
	movq	%rsi, %rdi
	movq	-32(%rbp), %rsi
	callq	_memmove
	.loc	16 2199 2
	addq	$32, %rsp
	popq	%rbp
	retq
Ltmp731:
Lfunc_end91:
	.cfi_endproc

	.globl	__ZN4core3any6TypeId2of17haef6a50482b9954cE
	.p2align	4, 0x90
__ZN4core3any6TypeId2of17haef6a50482b9954cE:
Lfunc_begin92:
	.loc	8 439 0
	.cfi_startproc
	pushq	%rbp
	.cfi_def_cfa_offset 16
	.cfi_offset %rbp, -16
	movq	%rsp, %rbp
	.cfi_def_cfa_register %rbp
	subq	$24, %rsp
Ltmp732:
	.loc	8 440 21 prologue_end
	movabsq	$9147559743429524724, %rax
	movq	%rax, -8(%rbp)
	movq	-8(%rbp), %rax
	movq	%rax, -24(%rbp)
	.loc	8 0 21 is_stmt 0
	movq	-24(%rbp), %rax
	.loc	8 440 9
	movq	%rax, -16(%rbp)
	.loc	8 441 6 is_stmt 1
	movq	-16(%rbp), %rax
	addq	$24, %rsp
	popq	%rbp
	retq
Ltmp733:
Lfunc_end92:
	.cfi_endproc

	.globl	__ZN4core3cmp3Ord3max17h6b0afe5e52e48eadE
	.p2align	4, 0x90
__ZN4core3cmp3Ord3max17h6b0afe5e52e48eadE:
Lfunc_begin93:
	.file	17 "/rustc/6c8927b0cf80ceee19386026cf9d7fd4fd9d486f/src/libcore/cmp.rs"
	.loc	17 599 0
	.cfi_startproc
	pushq	%rbp
	.cfi_def_cfa_offset 16
	.cfi_offset %rbp, -16
	movq	%rsp, %rbp
	.cfi_def_cfa_register %rbp
	subq	$32, %rsp
	movq	%rdi, -16(%rbp)
	movq	%rsi, -8(%rbp)
Ltmp734:
	.loc	17 603 9 prologue_end
	callq	__ZN4core3cmp6max_by17h9eb54b941524fb58E
	movq	%rax, -24(%rbp)
	.loc	17 0 9 is_stmt 0
	movq	-24(%rbp), %rax
	.loc	17 604 6 is_stmt 1
	addq	$32, %rsp
	popq	%rbp
	retq
Ltmp735:
Lfunc_end93:
	.cfi_endproc

	.globl	__ZN4core3cmp3Ord3min17hac44e009f10795a3E
	.p2align	4, 0x90
__ZN4core3cmp3Ord3min17hac44e009f10795a3E:
Lfunc_begin94:
	.loc	17 619 0
	.cfi_startproc
	pushq	%rbp
	.cfi_def_cfa_offset 16
	.cfi_offset %rbp, -16
	movq	%rsp, %rbp
	.cfi_def_cfa_register %rbp
	subq	$32, %rsp
	movq	%rdi, -16(%rbp)
	movq	%rsi, -8(%rbp)
Ltmp736:
	.loc	17 623 9 prologue_end
	callq	__ZN4core3cmp6min_by17h72db36851ce9a676E
	movq	%rax, -24(%rbp)
	.loc	17 0 9 is_stmt 0
	movq	-24(%rbp), %rax
	.loc	17 624 6 is_stmt 1
	addq	$32, %rsp
	popq	%rbp
	retq
Ltmp737:
Lfunc_end94:
	.cfi_endproc

	.globl	__ZN4core3cmp3max17h622167f1ab33c576E
	.p2align	4, 0x90
__ZN4core3cmp3max17h622167f1ab33c576E:
Lfunc_begin95:
	.loc	17 993 0
	.cfi_startproc
	pushq	%rbp
	.cfi_def_cfa_offset 16
	.cfi_offset %rbp, -16
	movq	%rsp, %rbp
	.cfi_def_cfa_register %rbp
	subq	$32, %rsp
	movq	%rdi, -16(%rbp)
	movq	%rsi, -8(%rbp)
Ltmp738:
	.loc	17 994 5 prologue_end
	callq	__ZN4core3cmp3Ord3max17h6b0afe5e52e48eadE
	movq	%rax, -24(%rbp)
	.loc	17 0 5 is_stmt 0
	movq	-24(%rbp), %rax
	.loc	17 995 2 is_stmt 1
	addq	$32, %rsp
	popq	%rbp
	retq
Ltmp739:
Lfunc_end95:
	.cfi_endproc

	.globl	__ZN4core3cmp3min17h58d1458537d9a87cE
	.p2align	4, 0x90
__ZN4core3cmp3min17h58d1458537d9a87cE:
Lfunc_begin96:
	.loc	17 927 0
	.cfi_startproc
	pushq	%rbp
	.cfi_def_cfa_offset 16
	.cfi_offset %rbp, -16
	movq	%rsp, %rbp
	.cfi_def_cfa_register %rbp
	subq	$32, %rsp
	movq	%rdi, -16(%rbp)
	movq	%rsi, -8(%rbp)
Ltmp740:
	.loc	17 928 5 prologue_end
	callq	__ZN4core3cmp3Ord3min17hac44e009f10795a3E
	movq	%rax, -24(%rbp)
	.loc	17 0 5 is_stmt 0
	movq	-24(%rbp), %rax
	.loc	17 929 2 is_stmt 1
	addq	$32, %rsp
	popq	%rbp
	retq
Ltmp741:
Lfunc_end96:
	.cfi_endproc

	.p2align	4, 0x90
__ZN4core3cmp5impls50_$LT$impl$u20$core..cmp..Ord$u20$for$u20$usize$GT$3cmp17h2691ae7e1cf7b8e8E:
Lfunc_begin97:
	.loc	17 1148 0
	.cfi_startproc
	pushq	%rbp
	.cfi_def_cfa_offset 16
	.cfi_offset %rbp, -16
	movq	%rsp, %rbp
	.cfi_def_cfa_register %rbp
	subq	$40, %rsp
	movq	%rdi, -16(%rbp)
	movq	%rsi, -8(%rbp)
Ltmp742:
	.loc	17 1151 24 prologue_end
	movq	(%rdi), %rax
	cmpq	(%rsi), %rax
	movq	%rdi, -32(%rbp)
	movq	%rsi, -40(%rbp)
	.loc	17 1151 21 is_stmt 0
	jb	LBB97_2
	.loc	17 0 21
	movq	-32(%rbp), %rax
	.loc	17 1152 29 is_stmt 1
	movq	(%rax), %rcx
	movq	-40(%rbp), %rdx
	cmpq	(%rdx), %rcx
	.loc	17 1152 26 is_stmt 0
	je	LBB97_4
	jmp	LBB97_3
LBB97_2:
	.loc	17 1151 41 is_stmt 1
	movb	$-1, -17(%rbp)
	.loc	17 1151 21 is_stmt 0
	jmp	LBB97_6
LBB97_3:
	.loc	17 1153 28 is_stmt 1
	movb	$1, -17(%rbp)
	.loc	17 1152 26
	jmp	LBB97_5
LBB97_4:
	.loc	17 1152 47 is_stmt 0
	movb	$0, -17(%rbp)
LBB97_5:
	.loc	17 1151 21 is_stmt 1
	jmp	LBB97_6
LBB97_6:
	.loc	17 1154 18
	movb	-17(%rbp), %al
	addq	$40, %rsp
	popq	%rbp
	retq
Ltmp743:
Lfunc_end97:
	.cfi_endproc

	.p2align	4, 0x90
__ZN4core3cmp5impls56_$LT$impl$u20$core..cmp..PartialEq$u20$for$u20$usize$GT$2eq17h290ebe3f7cf9d3f1E:
Lfunc_begin98:
	.loc	17 1052 0
	.cfi_startproc
	pushq	%rbp
	.cfi_def_cfa_offset 16
	.cfi_offset %rbp, -16
	movq	%rsp, %rbp
	.cfi_def_cfa_register %rbp
	subq	$16, %rsp
	movq	%rdi, -16(%rbp)
	movq	%rsi, -8(%rbp)
Ltmp744:
	.loc	17 1052 52 prologue_end
	movq	(%rdi), %rax
	cmpq	(%rsi), %rax
	sete	%cl
	.loc	17 1052 73 is_stmt 0
	andb	$1, %cl
	movzbl	%cl, %eax
	addq	$16, %rsp
	popq	%rbp
	retq
Ltmp745:
Lfunc_end98:
	.cfi_endproc

	.p2align	4, 0x90
__ZN4core3cmp5impls57_$LT$impl$u20$core..cmp..PartialOrd$u20$for$u20$usize$GT$2lt17hc6dbd88425aa66e2E:
Lfunc_begin99:
	.loc	17 1136 0 is_stmt 1
	.cfi_startproc
	pushq	%rbp
	.cfi_def_cfa_offset 16
	.cfi_offset %rbp, -16
	movq	%rsp, %rbp
	.cfi_def_cfa_register %rbp
	subq	$16, %rsp
	movq	%rdi, -16(%rbp)
	movq	%rsi, -8(%rbp)
Ltmp746:
	.loc	17 1136 52 prologue_end
	movq	(%rdi), %rax
	cmpq	(%rsi), %rax
	setb	%cl
	.loc	17 1136 72 is_stmt 0
	andb	$1, %cl
	movzbl	%cl, %eax
	addq	$16, %rsp
	popq	%rbp
	retq
Ltmp747:
Lfunc_end99:
	.cfi_endproc

	.p2align	4, 0x90
__ZN4core3cmp5impls59_$LT$impl$u20$core..cmp..PartialEq$u20$for$u20$$LP$$RP$$GT$2eq17hb37ab4056333ddabE:
Lfunc_begin100:
	.loc	17 1062 0 is_stmt 1
	.cfi_startproc
	pushq	%rbp
	.cfi_def_cfa_offset 16
	.cfi_offset %rbp, -16
	movq	%rsp, %rbp
	.cfi_def_cfa_register %rbp
	subq	$16, %rsp
	movq	%rdi, -16(%rbp)
	movq	%rsi, -8(%rbp)
Ltmp748:
	.loc	17 1064 10 prologue_end
	movb	$1, %al
	andb	$1, %al
	movzbl	%al, %eax
	addq	$16, %rsp
	popq	%rbp
	retq
Ltmp749:
Lfunc_end100:
	.cfi_endproc

	.globl	__ZN4core3cmp5impls69_$LT$impl$u20$core..cmp..PartialEq$LT$$RF$B$GT$$u20$for$u20$$RF$A$GT$2eq17h1118fa75c1680dafE
	.p2align	4, 0x90
__ZN4core3cmp5impls69_$LT$impl$u20$core..cmp..PartialEq$LT$$RF$B$GT$$u20$for$u20$$RF$A$GT$2eq17h1118fa75c1680dafE:
Lfunc_begin101:
	.loc	17 1218 0
	.cfi_startproc
	pushq	%rbp
	.cfi_def_cfa_offset 16
	.cfi_offset %rbp, -16
	movq	%rsp, %rbp
	.cfi_def_cfa_register %rbp
	subq	$32, %rsp
	movq	%rdi, -16(%rbp)
	movq	%rsi, -8(%rbp)
Ltmp750:
	.loc	17 1219 27 prologue_end
	movq	(%rdi), %rdi
	.loc	17 1219 34 is_stmt 0
	movq	(%rsi), %rsi
	.loc	17 1219 13
	callq	__ZN69_$LT$proc_macro2..fallback..Ident$u20$as$u20$core..cmp..PartialEq$GT$2eq17h03050f62b52ae83dE
	movb	%al, -17(%rbp)
	.loc	17 0 13
	movb	-17(%rbp), %al
	.loc	17 1220 10 is_stmt 1
	andb	$1, %al
	movzbl	%al, %eax
	addq	$32, %rsp
	popq	%rbp
	retq
Ltmp751:
Lfunc_end101:
	.cfi_endproc

	.globl	__ZN4core3cmp5impls69_$LT$impl$u20$core..cmp..PartialEq$LT$$RF$B$GT$$u20$for$u20$$RF$A$GT$2eq17h5ea144ee32de60daE
	.p2align	4, 0x90
__ZN4core3cmp5impls69_$LT$impl$u20$core..cmp..PartialEq$LT$$RF$B$GT$$u20$for$u20$$RF$A$GT$2eq17h5ea144ee32de60daE:
Lfunc_begin102:
	.loc	17 1218 0
	.cfi_startproc
	pushq	%rbp
	.cfi_def_cfa_offset 16
	.cfi_offset %rbp, -16
	movq	%rsp, %rbp
	.cfi_def_cfa_register %rbp
	subq	$32, %rsp
	movq	%rdi, -16(%rbp)
	movq	%rsi, -8(%rbp)
Ltmp752:
	.loc	17 1219 27 prologue_end
	movq	(%rdi), %rax
	movq	8(%rdi), %rcx
	.loc	17 1219 34 is_stmt 0
	movq	(%rsi), %rdx
	movq	8(%rsi), %rsi
	.loc	17 1219 13
	movq	%rax, %rdi
	movq	%rsi, -24(%rbp)
	movq	%rcx, %rsi
	movq	-24(%rbp), %rcx
	callq	__ZN4core3str6traits54_$LT$impl$u20$core..cmp..PartialEq$u20$for$u20$str$GT$2eq17h7ce575d4a39e532aE
	movb	%al, -25(%rbp)
	.loc	17 0 13
	movb	-25(%rbp), %al
	.loc	17 1220 10 is_stmt 1
	andb	$1, %al
	movzbl	%al, %eax
	addq	$32, %rsp
	popq	%rbp
	retq
Ltmp753:
Lfunc_end102:
	.cfi_endproc

	.globl	__ZN4core3cmp5impls69_$LT$impl$u20$core..cmp..PartialEq$LT$$RF$B$GT$$u20$for$u20$$RF$A$GT$2eq17hbcb548e96a41b4d8E
	.p2align	4, 0x90
__ZN4core3cmp5impls69_$LT$impl$u20$core..cmp..PartialEq$LT$$RF$B$GT$$u20$for$u20$$RF$A$GT$2eq17hbcb548e96a41b4d8E:
Lfunc_begin103:
	.loc	17 1218 0
	.cfi_startproc
	pushq	%rbp
	.cfi_def_cfa_offset 16
	.cfi_offset %rbp, -16
	movq	%rsp, %rbp
	.cfi_def_cfa_register %rbp
	subq	$32, %rsp
	movq	%rdi, -16(%rbp)
	movq	%rsi, -8(%rbp)
Ltmp754:
	.loc	17 1219 27 prologue_end
	movq	(%rdi), %rax
	movq	8(%rdi), %rcx
	.loc	17 1219 34 is_stmt 0
	movq	(%rsi), %rdx
	movq	8(%rsi), %rsi
	.loc	17 1219 13
	movq	%rax, %rdi
	movq	%rsi, -24(%rbp)
	movq	%rcx, %rsi
	movq	-24(%rbp), %rcx
	callq	__ZN4core5slice81_$LT$impl$u20$core..cmp..PartialEq$LT$$u5b$B$u5d$$GT$$u20$for$u20$$u5b$A$u5d$$GT$2eq17hf2348a856f70d37fE
	movb	%al, -25(%rbp)
	.loc	17 0 13
	movb	-25(%rbp), %al
	.loc	17 1220 10 is_stmt 1
	andb	$1, %al
	movzbl	%al, %eax
	addq	$32, %rsp
	popq	%rbp
	retq
Ltmp755:
Lfunc_end103:
	.cfi_endproc

	.globl	__ZN4core3cmp6max_by17h9eb54b941524fb58E
	.p2align	4, 0x90
__ZN4core3cmp6max_by17h9eb54b941524fb58E:
Lfunc_begin104:
	.loc	17 1014 0
	.cfi_startproc
	.cfi_personality 155, _rust_eh_personality
	.cfi_lsda 16, Lexception22
	pushq	%rbp
	.cfi_def_cfa_offset 16
	.cfi_offset %rbp, -16
	movq	%rsp, %rbp
	.cfi_def_cfa_register %rbp
	subq	$96, %rsp
	movq	%rdi, -80(%rbp)
	movq	%rsi, -72(%rbp)
Ltmp759:
	.loc	17 1015 11 prologue_end
	movb	$0, -26(%rbp)
	movb	$0, -25(%rbp)
	movb	$1, -26(%rbp)
	movb	$1, -25(%rbp)
	leaq	-80(%rbp), %rax
	movq	%rax, -48(%rbp)
	leaq	-72(%rbp), %rax
	movq	%rax, -40(%rbp)
	movq	-48(%rbp), %rdi
	movq	-40(%rbp), %rsi
Ltmp756:
	callq	__ZN4core3ops8function6FnOnce9call_once17hc28c9ffad261fb18E
Ltmp757:
	movb	%al, -81(%rbp)
	jmp	LBB104_2
LBB104_1:
	.loc	17 1014 1
	movq	-16(%rbp), %rdi
	callq	__Unwind_Resume
	ud2
LBB104_2:
	.loc	17 0 1 is_stmt 0
	movb	-81(%rbp), %al
	.loc	17 1015 11 is_stmt 1
	movb	%al, -49(%rbp)
	.loc	17 1016 9
	movsbq	-49(%rbp), %rcx
	incq	%rcx
	subq	$2, %rcx
	jb	LBB104_7
	jmp	LBB104_15
LBB104_15:
	jmp	LBB104_5
LBB104_3:
	.loc	17 1019 1
	testb	$1, -26(%rbp)
	jne	LBB104_11
	jmp	LBB104_1
LBB104_4:
	movb	$0, -25(%rbp)
	jmp	LBB104_3
LBB104_5:
	.loc	17 1017 30
	movb	$0, -26(%rbp)
	movq	-80(%rbp), %rax
	movq	%rax, -64(%rbp)
	.loc	17 1015 5
	jmp	LBB104_8
	.loc	17 1015 11 is_stmt 0
	ud2
LBB104_7:
	.loc	17 1016 45 is_stmt 1
	movb	$0, -25(%rbp)
	movq	-72(%rbp), %rax
	movq	%rax, -64(%rbp)
LBB104_8:
	.loc	17 1019 1
	testb	$1, -25(%rbp)
	jne	LBB104_12
LBB104_9:
	testb	$1, -26(%rbp)
	jne	LBB104_13
LBB104_10:
	.loc	17 1019 2 is_stmt 0
	movq	-64(%rbp), %rax
	addq	$96, %rsp
	popq	%rbp
	retq
LBB104_11:
	.loc	17 1019 1
	movb	$0, -26(%rbp)
	jmp	LBB104_1
LBB104_12:
	movb	$0, -25(%rbp)
	jmp	LBB104_9
LBB104_13:
	movb	$0, -26(%rbp)
	jmp	LBB104_10
Ltmp760:
LBB104_14:
Ltmp758:
	.loc	17 0 1
	movq	%rax, -16(%rbp)
	movl	%edx, -8(%rbp)
	jmp	LBB104_4
Lfunc_end104:
	.cfi_endproc
	.section	__TEXT,__gcc_except_tab
	.p2align	2
GCC_except_table104:
Lexception22:
	.byte	255
	.byte	255
	.byte	1
	.uleb128 Lcst_end22-Lcst_begin22
Lcst_begin22:
	.uleb128 Ltmp756-Lfunc_begin104
	.uleb128 Ltmp757-Ltmp756
	.uleb128 Ltmp758-Lfunc_begin104
	.byte	0
	.uleb128 Ltmp757-Lfunc_begin104
	.uleb128 Lfunc_end104-Ltmp757
	.byte	0
	.byte	0
Lcst_end22:
	.p2align	2

	.section	__TEXT,__text,regular,pure_instructions
	.globl	__ZN4core3cmp6min_by17h72db36851ce9a676E
	.p2align	4, 0x90
__ZN4core3cmp6min_by17h72db36851ce9a676E:
Lfunc_begin105:
	.loc	17 948 0 is_stmt 1
	.cfi_startproc
	.cfi_personality 155, _rust_eh_personality
	.cfi_lsda 16, Lexception23
	pushq	%rbp
	.cfi_def_cfa_offset 16
	.cfi_offset %rbp, -16
	movq	%rsp, %rbp
	.cfi_def_cfa_register %rbp
	subq	$96, %rsp
	movq	%rdi, -80(%rbp)
	movq	%rsi, -72(%rbp)
Ltmp764:
	.loc	17 949 11 prologue_end
	movb	$0, -26(%rbp)
	movb	$0, -25(%rbp)
	movb	$1, -26(%rbp)
	movb	$1, -25(%rbp)
	leaq	-80(%rbp), %rax
	movq	%rax, -48(%rbp)
	leaq	-72(%rbp), %rax
	movq	%rax, -40(%rbp)
	movq	-48(%rbp), %rdi
	movq	-40(%rbp), %rsi
Ltmp761:
	callq	__ZN4core3ops8function6FnOnce9call_once17hc28c9ffad261fb18E
Ltmp762:
	movb	%al, -81(%rbp)
	jmp	LBB105_2
LBB105_1:
	.loc	17 948 1
	movq	-16(%rbp), %rdi
	callq	__Unwind_Resume
	ud2
LBB105_2:
	.loc	17 0 1 is_stmt 0
	movb	-81(%rbp), %al
	.loc	17 949 11 is_stmt 1
	movb	%al, -49(%rbp)
	.loc	17 950 9
	movsbq	-49(%rbp), %rcx
	incq	%rcx
	subq	$2, %rcx
	jb	LBB105_7
	jmp	LBB105_15
LBB105_15:
	jmp	LBB105_5
LBB105_3:
	.loc	17 953 1
	testb	$1, -26(%rbp)
	jne	LBB105_11
	jmp	LBB105_1
LBB105_4:
	movb	$0, -25(%rbp)
	jmp	LBB105_3
LBB105_5:
	.loc	17 951 30
	movb	$0, -25(%rbp)
	movq	-72(%rbp), %rax
	movq	%rax, -64(%rbp)
	.loc	17 949 5
	jmp	LBB105_8
	.loc	17 949 11 is_stmt 0
	ud2
LBB105_7:
	.loc	17 950 45 is_stmt 1
	movb	$0, -26(%rbp)
	movq	-80(%rbp), %rax
	movq	%rax, -64(%rbp)
LBB105_8:
	.loc	17 953 1
	testb	$1, -25(%rbp)
	jne	LBB105_12
LBB105_9:
	testb	$1, -26(%rbp)
	jne	LBB105_13
LBB105_10:
	.loc	17 953 2 is_stmt 0
	movq	-64(%rbp), %rax
	addq	$96, %rsp
	popq	%rbp
	retq
LBB105_11:
	.loc	17 953 1
	movb	$0, -26(%rbp)
	jmp	LBB105_1
LBB105_12:
	movb	$0, -25(%rbp)
	jmp	LBB105_9
LBB105_13:
	movb	$0, -26(%rbp)
	jmp	LBB105_10
Ltmp765:
LBB105_14:
Ltmp763:
	.loc	17 0 1
	movq	%rax, -16(%rbp)
	movl	%edx, -8(%rbp)
	jmp	LBB105_4
Lfunc_end105:
	.cfi_endproc
	.section	__TEXT,__gcc_except_tab
	.p2align	2
GCC_except_table105:
Lexception23:
	.byte	255
	.byte	255
	.byte	1
	.uleb128 Lcst_end23-Lcst_begin23
Lcst_begin23:
	.uleb128 Ltmp761-Lfunc_begin105
	.uleb128 Ltmp762-Ltmp761
	.uleb128 Ltmp763-Lfunc_begin105
	.byte	0
	.uleb128 Ltmp762-Lfunc_begin105
	.uleb128 Lfunc_end105-Ltmp762
	.byte	0
	.byte	0
Lcst_end23:
	.p2align	2

	.section	__TEXT,__text,regular,pure_instructions
	.globl	__ZN4core3cmp9PartialEq2ne17h6237f90ec64da9caE
	.p2align	4, 0x90
__ZN4core3cmp9PartialEq2ne17h6237f90ec64da9caE:
Lfunc_begin106:
	.loc	17 215 0 is_stmt 1
	.cfi_startproc
	pushq	%rbp
	.cfi_def_cfa_offset 16
	.cfi_offset %rbp, -16
	movq	%rsp, %rbp
	.cfi_def_cfa_register %rbp
	subq	$32, %rsp
	movq	%rdi, -16(%rbp)
	movq	%rsi, -8(%rbp)
Ltmp766:
	.loc	17 216 10 prologue_end
	callq	__ZN4core3ptr9const_ptr66_$LT$impl$u20$core..cmp..PartialEq$u20$for$u20$$BP$const$u20$T$GT$2eq17hc0f684746489b3dcE
	movb	%al, -17(%rbp)
	.loc	17 0 10 is_stmt 0
	movb	-17(%rbp), %al
	.loc	17 216 9
	xorb	$-1, %al
	.loc	17 217 6 is_stmt 1
	andb	$1, %al
	movzbl	%al, %eax
	addq	$32, %rsp
	popq	%rbp
	retq
Ltmp767:
Lfunc_end106:
	.cfi_endproc

	.globl	__ZN4core3cmp9PartialEq2ne17h8551ff8b02510ebbE
	.p2align	4, 0x90
__ZN4core3cmp9PartialEq2ne17h8551ff8b02510ebbE:
Lfunc_begin107:
	.loc	17 215 0
	.cfi_startproc
	pushq	%rbp
	.cfi_def_cfa_offset 16
	.cfi_offset %rbp, -16
	movq	%rsp, %rbp
	.cfi_def_cfa_register %rbp
	subq	$32, %rsp
	movq	%rdi, -16(%rbp)
	movq	%rsi, -8(%rbp)
Ltmp768:
	.loc	17 216 10 prologue_end
	callq	__ZN63_$LT$proc_macro2..Delimiter$u20$as$u20$core..cmp..PartialEq$GT$2eq17habae0a982e774b92E
	movb	%al, -17(%rbp)
	.loc	17 0 10 is_stmt 0
	movb	-17(%rbp), %al
	.loc	17 216 9
	xorb	$-1, %al
	.loc	17 217 6 is_stmt 1
	andb	$1, %al
	movzbl	%al, %eax
	addq	$32, %rsp
	popq	%rbp
	retq
Ltmp769:
Lfunc_end107:
	.cfi_endproc

	.p2align	4, 0x90
__ZN4core3f3221_$LT$impl$u20$f32$GT$11abs_private17hc84c0a35d9d8d818E:
Lfunc_begin108:
	.file	18 "/rustc/6c8927b0cf80ceee19386026cf9d7fd4fd9d486f/src/libcore/num/f32.rs"
	.loc	18 393 0
	.cfi_startproc
	pushq	%rbp
	.cfi_def_cfa_offset 16
	.cfi_offset %rbp, -16
	movq	%rsp, %rbp
	.cfi_def_cfa_register %rbp
	subq	$16, %rsp
	movss	%xmm0, -4(%rbp)
Ltmp770:
	.loc	18 394 24 prologue_end
	callq	__ZN4core3f3221_$LT$impl$u20$f32$GT$7to_bits17h314b0e1f8e45da50E
	movl	%eax, -8(%rbp)
	.loc	18 0 24 is_stmt 0
	movl	-8(%rbp), %eax
	.loc	18 394 24
	andl	$2147483647, %eax
	.loc	18 394 9
	movl	%eax, %edi
	callq	__ZN4core3f3221_$LT$impl$u20$f32$GT$9from_bits17ha5cc165a7aab37ecE
	movss	%xmm0, -12(%rbp)
	.loc	18 0 9
	movss	-12(%rbp), %xmm0
	.loc	18 395 6 is_stmt 1
	addq	$16, %rsp
	popq	%rbp
	retq
Ltmp771:
Lfunc_end108:
	.cfi_endproc

	.p2align	4, 0x90
__ZN4core3f3221_$LT$impl$u20$f32$GT$7to_bits17h314b0e1f8e45da50E:
Lfunc_begin109:
	.loc	18 656 0
	.cfi_startproc
	pushq	%rbp
	.cfi_def_cfa_offset 16
	.cfi_offset %rbp, -16
	movq	%rsp, %rbp
	.cfi_def_cfa_register %rbp
	subq	$12, %rsp
	movss	%xmm0, -8(%rbp)
Ltmp772:
	.loc	18 658 18 prologue_end
	movss	%xmm0, -4(%rbp)
	movl	-4(%rbp), %eax
	movl	%eax, -12(%rbp)
	.loc	18 0 18 is_stmt 0
	movl	-12(%rbp), %eax
	.loc	18 659 6 is_stmt 1
	addq	$12, %rsp
	popq	%rbp
	retq
Ltmp773:
Lfunc_end109:
	.cfi_endproc

	.p2align	4, 0x90
__ZN4core3f3221_$LT$impl$u20$f32$GT$9from_bits17ha5cc165a7aab37ecE:
Lfunc_begin110:
	.loc	18 699 0
	.cfi_startproc
	pushq	%rbp
	.cfi_def_cfa_offset 16
	.cfi_offset %rbp, -16
	movq	%rsp, %rbp
	.cfi_def_cfa_register %rbp
	subq	$12, %rsp
	movl	%edi, -8(%rbp)
Ltmp774:
	.loc	18 702 18 prologue_end
	movl	%edi, -4(%rbp)
	movss	-4(%rbp), %xmm0
	movss	%xmm0, -12(%rbp)
	.loc	18 0 18 is_stmt 0
	movss	-12(%rbp), %xmm0
	.loc	18 703 6 is_stmt 1
	addq	$12, %rsp
	popq	%rbp
	retq
Ltmp775:
Lfunc_end110:
	.cfi_endproc

	.section	__TEXT,__literal4,4byte_literals
	.p2align	2
LCPI111_0:
	.long	2139095040
	.section	__TEXT,__text,regular,pure_instructions
	.p2align	4, 0x90
__ZN4core3f3221_$LT$impl$u20$f32$GT$9is_finite17hb50956dce650a207E:
Lfunc_begin111:
	.loc	18 434 0
	.cfi_startproc
	pushq	%rbp
	.cfi_def_cfa_offset 16
	.cfi_offset %rbp, -16
	movq	%rsp, %rbp
	.cfi_def_cfa_register %rbp
	subq	$16, %rsp
	movss	%xmm0, -4(%rbp)
Ltmp776:
	.loc	18 437 9 prologue_end
	callq	__ZN4core3f3221_$LT$impl$u20$f32$GT$11abs_private17hc84c0a35d9d8d818E
	movss	%xmm0, -8(%rbp)
	.loc	18 0 9 is_stmt 0
	movss	LCPI111_0(%rip), %xmm0
	movss	-8(%rbp), %xmm1
	.loc	18 437 9
	ucomiss	%xmm1, %xmm0
	seta	%al
	.loc	18 438 6 is_stmt 1
	andb	$1, %al
	movzbl	%al, %eax
	addq	$16, %rsp
	popq	%rbp
	retq
Ltmp777:
Lfunc_end111:
	.cfi_endproc

	.p2align	4, 0x90
__ZN4core3f6421_$LT$impl$u20$f64$GT$11abs_private17h07b972d21ab5e7f2E:
Lfunc_begin112:
	.file	19 "/rustc/6c8927b0cf80ceee19386026cf9d7fd4fd9d486f/src/libcore/num/f64.rs"
	.loc	19 392 0
	.cfi_startproc
	pushq	%rbp
	.cfi_def_cfa_offset 16
	.cfi_offset %rbp, -16
	movq	%rsp, %rbp
	.cfi_def_cfa_register %rbp
	subq	$32, %rsp
	movsd	%xmm0, -8(%rbp)
Ltmp778:
	.loc	19 393 24 prologue_end
	callq	__ZN4core3f6421_$LT$impl$u20$f64$GT$7to_bits17h954a705c7521139cE
	movq	%rax, -16(%rbp)
	movabsq	$9223372036854775807, %rax
	movq	-16(%rbp), %rcx
	andq	%rax, %rcx
	.loc	19 393 9 is_stmt 0
	movq	%rcx, %rdi
	callq	__ZN4core3f6421_$LT$impl$u20$f64$GT$9from_bits17hb4e6111304fd044cE
	movsd	%xmm0, -24(%rbp)
	.loc	19 0 9
	movsd	-24(%rbp), %xmm0
	.loc	19 394 6 is_stmt 1
	addq	$32, %rsp
	popq	%rbp
	retq
Ltmp779:
Lfunc_end112:
	.cfi_endproc

	.p2align	4, 0x90
__ZN4core3f6421_$LT$impl$u20$f64$GT$7to_bits17h954a705c7521139cE:
Lfunc_begin113:
	.loc	19 670 0
	.cfi_startproc
	pushq	%rbp
	.cfi_def_cfa_offset 16
	.cfi_offset %rbp, -16
	movq	%rsp, %rbp
	.cfi_def_cfa_register %rbp
	subq	$24, %rsp
	movsd	%xmm0, -16(%rbp)
Ltmp780:
	.loc	19 672 18 prologue_end
	movsd	%xmm0, -8(%rbp)
	movq	-8(%rbp), %rax
	movq	%rax, -24(%rbp)
	.loc	19 0 18 is_stmt 0
	movq	-24(%rbp), %rax
	.loc	19 673 6 is_stmt 1
	addq	$24, %rsp
	popq	%rbp
	retq
Ltmp781:
Lfunc_end113:
	.cfi_endproc

	.p2align	4, 0x90
__ZN4core3f6421_$LT$impl$u20$f64$GT$9from_bits17hb4e6111304fd044cE:
Lfunc_begin114:
	.loc	19 713 0
	.cfi_startproc
	pushq	%rbp
	.cfi_def_cfa_offset 16
	.cfi_offset %rbp, -16
	movq	%rsp, %rbp
	.cfi_def_cfa_register %rbp
	subq	$24, %rsp
	movq	%rdi, -16(%rbp)
Ltmp782:
	.loc	19 716 18 prologue_end
	movq	%rdi, -8(%rbp)
	movsd	-8(%rbp), %xmm0
	movsd	%xmm0, -24(%rbp)
	.loc	19 0 18 is_stmt 0
	movsd	-24(%rbp), %xmm0
	.loc	19 717 6 is_stmt 1
	addq	$24, %rsp
	popq	%rbp
	retq
Ltmp783:
Lfunc_end114:
	.cfi_endproc

	.section	__TEXT,__literal8,8byte_literals
	.p2align	3
LCPI115_0:
	.quad	9218868437227405312
	.section	__TEXT,__text,regular,pure_instructions
	.p2align	4, 0x90
__ZN4core3f6421_$LT$impl$u20$f64$GT$9is_finite17h647c7b0a437ad86fE:
Lfunc_begin115:
	.loc	19 433 0
	.cfi_startproc
	pushq	%rbp
	.cfi_def_cfa_offset 16
	.cfi_offset %rbp, -16
	movq	%rsp, %rbp
	.cfi_def_cfa_register %rbp
	subq	$16, %rsp
	movsd	%xmm0, -8(%rbp)
Ltmp784:
	.loc	19 436 9 prologue_end
	callq	__ZN4core3f6421_$LT$impl$u20$f64$GT$11abs_private17h07b972d21ab5e7f2E
	movsd	%xmm0, -16(%rbp)
	.loc	19 0 9 is_stmt 0
	movsd	LCPI115_0(%rip), %xmm0
	movsd	-16(%rbp), %xmm1
	.loc	19 436 9
	ucomisd	%xmm1, %xmm0
	seta	%al
	.loc	19 437 6 is_stmt 1
	andb	$1, %al
	movzbl	%al, %eax
	addq	$16, %rsp
	popq	%rbp
	retq
Ltmp785:
Lfunc_end115:
	.cfi_endproc

	.globl	__ZN4core3fmt10ArgumentV13new17h1238524a7456dc48E
	.p2align	4, 0x90
__ZN4core3fmt10ArgumentV13new17h1238524a7456dc48E:
Lfunc_begin116:
	.loc	13 281 0
	.cfi_startproc
	pushq	%rbp
	.cfi_def_cfa_offset 16
	.cfi_offset %rbp, -16
	movq	%rsp, %rbp
	.cfi_def_cfa_register %rbp
	subq	$72, %rsp
	movq	%rdi, -32(%rbp)
	movq	%rsi, -24(%rbp)
Ltmp786:
	.loc	13 290 42 prologue_end
	movq	%rsi, -16(%rbp)
	movq	-16(%rbp), %rax
	movq	%rdi, -56(%rbp)
	movq	%rax, -64(%rbp)
	.loc	13 0 42 is_stmt 0
	movq	-56(%rbp), %rax
	.loc	13 290 68
	movq	%rax, -8(%rbp)
	movq	-8(%rbp), %rcx
	movq	%rcx, -72(%rbp)
	.loc	13 0 68
	movq	-72(%rbp), %rax
	.loc	13 290 18
	movq	%rax, -48(%rbp)
	movq	-64(%rbp), %rcx
	movq	%rcx, -40(%rbp)
	.loc	13 291 6 is_stmt 1
	movq	-48(%rbp), %rax
	movq	-40(%rbp), %rdx
	addq	$72, %rsp
	popq	%rbp
	retq
Ltmp787:
Lfunc_end116:
	.cfi_endproc

	.globl	__ZN4core3fmt10ArgumentV13new17h1641eac5f9a24cdcE
	.p2align	4, 0x90
__ZN4core3fmt10ArgumentV13new17h1641eac5f9a24cdcE:
Lfunc_begin117:
	.loc	13 281 0
	.cfi_startproc
	pushq	%rbp
	.cfi_def_cfa_offset 16
	.cfi_offset %rbp, -16
	movq	%rsp, %rbp
	.cfi_def_cfa_register %rbp
	subq	$72, %rsp
	movq	%rdi, -32(%rbp)
	movq	%rsi, -24(%rbp)
Ltmp788:
	.loc	13 290 42 prologue_end
	movq	%rsi, -16(%rbp)
	movq	-16(%rbp), %rax
	movq	%rdi, -56(%rbp)
	movq	%rax, -64(%rbp)
	.loc	13 0 42 is_stmt 0
	movq	-56(%rbp), %rax
	.loc	13 290 68
	movq	%rax, -8(%rbp)
	movq	-8(%rbp), %rcx
	movq	%rcx, -72(%rbp)
	.loc	13 0 68
	movq	-72(%rbp), %rax
	.loc	13 290 18
	movq	%rax, -48(%rbp)
	movq	-64(%rbp), %rcx
	movq	%rcx, -40(%rbp)
	.loc	13 291 6 is_stmt 1
	movq	-48(%rbp), %rax
	movq	-40(%rbp), %rdx
	addq	$72, %rsp
	popq	%rbp
	retq
Ltmp789:
Lfunc_end117:
	.cfi_endproc

	.globl	__ZN4core3fmt10ArgumentV13new17h1773504cc2b5527dE
	.p2align	4, 0x90
__ZN4core3fmt10ArgumentV13new17h1773504cc2b5527dE:
Lfunc_begin118:
	.loc	13 281 0
	.cfi_startproc
	pushq	%rbp
	.cfi_def_cfa_offset 16
	.cfi_offset %rbp, -16
	movq	%rsp, %rbp
	.cfi_def_cfa_register %rbp
	subq	$72, %rsp
	movq	%rdi, -32(%rbp)
	movq	%rsi, -24(%rbp)
Ltmp790:
	.loc	13 290 42 prologue_end
	movq	%rsi, -16(%rbp)
	movq	-16(%rbp), %rax
	movq	%rdi, -56(%rbp)
	movq	%rax, -64(%rbp)
	.loc	13 0 42 is_stmt 0
	movq	-56(%rbp), %rax
	.loc	13 290 68
	movq	%rax, -8(%rbp)
	movq	-8(%rbp), %rcx
	movq	%rcx, -72(%rbp)
	.loc	13 0 68
	movq	-72(%rbp), %rax
	.loc	13 290 18
	movq	%rax, -48(%rbp)
	movq	-64(%rbp), %rcx
	movq	%rcx, -40(%rbp)
	.loc	13 291 6 is_stmt 1
	movq	-48(%rbp), %rax
	movq	-40(%rbp), %rdx
	addq	$72, %rsp
	popq	%rbp
	retq
Ltmp791:
Lfunc_end118:
	.cfi_endproc

	.globl	__ZN4core3fmt10ArgumentV13new17h1873bca9aef3a0ccE
	.p2align	4, 0x90
__ZN4core3fmt10ArgumentV13new17h1873bca9aef3a0ccE:
Lfunc_begin119:
	.loc	13 281 0
	.cfi_startproc
	pushq	%rbp
	.cfi_def_cfa_offset 16
	.cfi_offset %rbp, -16
	movq	%rsp, %rbp
	.cfi_def_cfa_register %rbp
	subq	$72, %rsp
	movq	%rdi, -32(%rbp)
	movq	%rsi, -24(%rbp)
Ltmp792:
	.loc	13 290 42 prologue_end
	movq	%rsi, -16(%rbp)
	movq	-16(%rbp), %rax
	movq	%rdi, -56(%rbp)
	movq	%rax, -64(%rbp)
	.loc	13 0 42 is_stmt 0
	movq	-56(%rbp), %rax
	.loc	13 290 68
	movq	%rax, -8(%rbp)
	movq	-8(%rbp), %rcx
	movq	%rcx, -72(%rbp)
	.loc	13 0 68
	movq	-72(%rbp), %rax
	.loc	13 290 18
	movq	%rax, -48(%rbp)
	movq	-64(%rbp), %rcx
	movq	%rcx, -40(%rbp)
	.loc	13 291 6 is_stmt 1
	movq	-48(%rbp), %rax
	movq	-40(%rbp), %rdx
	addq	$72, %rsp
	popq	%rbp
	retq
Ltmp793:
Lfunc_end119:
	.cfi_endproc

	.globl	__ZN4core3fmt10ArgumentV13new17h1aa8e77fb36fd1e7E
	.p2align	4, 0x90
__ZN4core3fmt10ArgumentV13new17h1aa8e77fb36fd1e7E:
Lfunc_begin120:
	.loc	13 281 0
	.cfi_startproc
	pushq	%rbp
	.cfi_def_cfa_offset 16
	.cfi_offset %rbp, -16
	movq	%rsp, %rbp
	.cfi_def_cfa_register %rbp
	subq	$72, %rsp
	movq	%rdi, -32(%rbp)
	movq	%rsi, -24(%rbp)
Ltmp794:
	.loc	13 290 42 prologue_end
	movq	%rsi, -16(%rbp)
	movq	-16(%rbp), %rax
	movq	%rdi, -56(%rbp)
	movq	%rax, -64(%rbp)
	.loc	13 0 42 is_stmt 0
	movq	-56(%rbp), %rax
	.loc	13 290 68
	movq	%rax, -8(%rbp)
	movq	-8(%rbp), %rcx
	movq	%rcx, -72(%rbp)
	.loc	13 0 68
	movq	-72(%rbp), %rax
	.loc	13 290 18
	movq	%rax, -48(%rbp)
	movq	-64(%rbp), %rcx
	movq	%rcx, -40(%rbp)
	.loc	13 291 6 is_stmt 1
	movq	-48(%rbp), %rax
	movq	-40(%rbp), %rdx
	addq	$72, %rsp
	popq	%rbp
	retq
Ltmp795:
Lfunc_end120:
	.cfi_endproc

	.globl	__ZN4core3fmt10ArgumentV13new17h1af56f51994e83d2E
	.p2align	4, 0x90
__ZN4core3fmt10ArgumentV13new17h1af56f51994e83d2E:
Lfunc_begin121:
	.loc	13 281 0
	.cfi_startproc
	pushq	%rbp
	.cfi_def_cfa_offset 16
	.cfi_offset %rbp, -16
	movq	%rsp, %rbp
	.cfi_def_cfa_register %rbp
	subq	$72, %rsp
	movq	%rdi, -32(%rbp)
	movq	%rsi, -24(%rbp)
Ltmp796:
	.loc	13 290 42 prologue_end
	movq	%rsi, -16(%rbp)
	movq	-16(%rbp), %rax
	movq	%rdi, -56(%rbp)
	movq	%rax, -64(%rbp)
	.loc	13 0 42 is_stmt 0
	movq	-56(%rbp), %rax
	.loc	13 290 68
	movq	%rax, -8(%rbp)
	movq	-8(%rbp), %rcx
	movq	%rcx, -72(%rbp)
	.loc	13 0 68
	movq	-72(%rbp), %rax
	.loc	13 290 18
	movq	%rax, -48(%rbp)
	movq	-64(%rbp), %rcx
	movq	%rcx, -40(%rbp)
	.loc	13 291 6 is_stmt 1
	movq	-48(%rbp), %rax
	movq	-40(%rbp), %rdx
	addq	$72, %rsp
	popq	%rbp
	retq
Ltmp797:
Lfunc_end121:
	.cfi_endproc

	.globl	__ZN4core3fmt10ArgumentV13new17h20be39ac5c96bba0E
	.p2align	4, 0x90
__ZN4core3fmt10ArgumentV13new17h20be39ac5c96bba0E:
Lfunc_begin122:
	.loc	13 281 0
	.cfi_startproc
	pushq	%rbp
	.cfi_def_cfa_offset 16
	.cfi_offset %rbp, -16
	movq	%rsp, %rbp
	.cfi_def_cfa_register %rbp
	subq	$72, %rsp
	movq	%rdi, -32(%rbp)
	movq	%rsi, -24(%rbp)
Ltmp798:
	.loc	13 290 42 prologue_end
	movq	%rsi, -16(%rbp)
	movq	-16(%rbp), %rax
	movq	%rdi, -56(%rbp)
	movq	%rax, -64(%rbp)
	.loc	13 0 42 is_stmt 0
	movq	-56(%rbp), %rax
	.loc	13 290 68
	movq	%rax, -8(%rbp)
	movq	-8(%rbp), %rcx
	movq	%rcx, -72(%rbp)
	.loc	13 0 68
	movq	-72(%rbp), %rax
	.loc	13 290 18
	movq	%rax, -48(%rbp)
	movq	-64(%rbp), %rcx
	movq	%rcx, -40(%rbp)
	.loc	13 291 6 is_stmt 1
	movq	-48(%rbp), %rax
	movq	-40(%rbp), %rdx
	addq	$72, %rsp
	popq	%rbp
	retq
Ltmp799:
Lfunc_end122:
	.cfi_endproc

	.globl	__ZN4core3fmt10ArgumentV13new17h28c70f3aee7d33f4E
	.p2align	4, 0x90
__ZN4core3fmt10ArgumentV13new17h28c70f3aee7d33f4E:
Lfunc_begin123:
	.loc	13 281 0
	.cfi_startproc
	pushq	%rbp
	.cfi_def_cfa_offset 16
	.cfi_offset %rbp, -16
	movq	%rsp, %rbp
	.cfi_def_cfa_register %rbp
	subq	$72, %rsp
	movq	%rdi, -32(%rbp)
	movq	%rsi, -24(%rbp)
Ltmp800:
	.loc	13 290 42 prologue_end
	movq	%rsi, -16(%rbp)
	movq	-16(%rbp), %rax
	movq	%rdi, -56(%rbp)
	movq	%rax, -64(%rbp)
	.loc	13 0 42 is_stmt 0
	movq	-56(%rbp), %rax
	.loc	13 290 68
	movq	%rax, -8(%rbp)
	movq	-8(%rbp), %rcx
	movq	%rcx, -72(%rbp)
	.loc	13 0 68
	movq	-72(%rbp), %rax
	.loc	13 290 18
	movq	%rax, -48(%rbp)
	movq	-64(%rbp), %rcx
	movq	%rcx, -40(%rbp)
	.loc	13 291 6 is_stmt 1
	movq	-48(%rbp), %rax
	movq	-40(%rbp), %rdx
	addq	$72, %rsp
	popq	%rbp
	retq
Ltmp801:
Lfunc_end123:
	.cfi_endproc

	.globl	__ZN4core3fmt10ArgumentV13new17h2fbcef147e2c762bE
	.p2align	4, 0x90
__ZN4core3fmt10ArgumentV13new17h2fbcef147e2c762bE:
Lfunc_begin124:
	.loc	13 281 0
	.cfi_startproc
	pushq	%rbp
	.cfi_def_cfa_offset 16
	.cfi_offset %rbp, -16
	movq	%rsp, %rbp
	.cfi_def_cfa_register %rbp
	subq	$72, %rsp
	movq	%rdi, -32(%rbp)
	movq	%rsi, -24(%rbp)
Ltmp802:
	.loc	13 290 42 prologue_end
	movq	%rsi, -16(%rbp)
	movq	-16(%rbp), %rax
	movq	%rdi, -56(%rbp)
	movq	%rax, -64(%rbp)
	.loc	13 0 42 is_stmt 0
	movq	-56(%rbp), %rax
	.loc	13 290 68
	movq	%rax, -8(%rbp)
	movq	-8(%rbp), %rcx
	movq	%rcx, -72(%rbp)
	.loc	13 0 68
	movq	-72(%rbp), %rax
	.loc	13 290 18
	movq	%rax, -48(%rbp)
	movq	-64(%rbp), %rcx
	movq	%rcx, -40(%rbp)
	.loc	13 291 6 is_stmt 1
	movq	-48(%rbp), %rax
	movq	-40(%rbp), %rdx
	addq	$72, %rsp
	popq	%rbp
	retq
Ltmp803:
Lfunc_end124:
	.cfi_endproc

	.globl	__ZN4core3fmt10ArgumentV13new17h30a2d5bacda738e3E
	.p2align	4, 0x90
__ZN4core3fmt10ArgumentV13new17h30a2d5bacda738e3E:
Lfunc_begin125:
	.loc	13 281 0
	.cfi_startproc
	pushq	%rbp
	.cfi_def_cfa_offset 16
	.cfi_offset %rbp, -16
	movq	%rsp, %rbp
	.cfi_def_cfa_register %rbp
	subq	$72, %rsp
	movq	%rdi, -32(%rbp)
	movq	%rsi, -24(%rbp)
Ltmp804:
	.loc	13 290 42 prologue_end
	movq	%rsi, -16(%rbp)
	movq	-16(%rbp), %rax
	movq	%rdi, -56(%rbp)
	movq	%rax, -64(%rbp)
	.loc	13 0 42 is_stmt 0
	movq	-56(%rbp), %rax
	.loc	13 290 68
	movq	%rax, -8(%rbp)
	movq	-8(%rbp), %rcx
	movq	%rcx, -72(%rbp)
	.loc	13 0 68
	movq	-72(%rbp), %rax
	.loc	13 290 18
	movq	%rax, -48(%rbp)
	movq	-64(%rbp), %rcx
	movq	%rcx, -40(%rbp)
	.loc	13 291 6 is_stmt 1
	movq	-48(%rbp), %rax
	movq	-40(%rbp), %rdx
	addq	$72, %rsp
	popq	%rbp
	retq
Ltmp805:
Lfunc_end125:
	.cfi_endproc

	.globl	__ZN4core3fmt10ArgumentV13new17h30fab3cf43a196c2E
	.p2align	4, 0x90
__ZN4core3fmt10ArgumentV13new17h30fab3cf43a196c2E:
Lfunc_begin126:
	.loc	13 281 0
	.cfi_startproc
	pushq	%rbp
	.cfi_def_cfa_offset 16
	.cfi_offset %rbp, -16
	movq	%rsp, %rbp
	.cfi_def_cfa_register %rbp
	subq	$72, %rsp
	movq	%rdi, -32(%rbp)
	movq	%rsi, -24(%rbp)
Ltmp806:
	.loc	13 290 42 prologue_end
	movq	%rsi, -16(%rbp)
	movq	-16(%rbp), %rax
	movq	%rdi, -56(%rbp)
	movq	%rax, -64(%rbp)
	.loc	13 0 42 is_stmt 0
	movq	-56(%rbp), %rax
	.loc	13 290 68
	movq	%rax, -8(%rbp)
	movq	-8(%rbp), %rcx
	movq	%rcx, -72(%rbp)
	.loc	13 0 68
	movq	-72(%rbp), %rax
	.loc	13 290 18
	movq	%rax, -48(%rbp)
	movq	-64(%rbp), %rcx
	movq	%rcx, -40(%rbp)
	.loc	13 291 6 is_stmt 1
	movq	-48(%rbp), %rax
	movq	-40(%rbp), %rdx
	addq	$72, %rsp
	popq	%rbp
	retq
Ltmp807:
Lfunc_end126:
	.cfi_endproc

	.globl	__ZN4core3fmt10ArgumentV13new17h3545445956e3ec16E
	.p2align	4, 0x90
__ZN4core3fmt10ArgumentV13new17h3545445956e3ec16E:
Lfunc_begin127:
	.loc	13 281 0
	.cfi_startproc
	pushq	%rbp
	.cfi_def_cfa_offset 16
	.cfi_offset %rbp, -16
	movq	%rsp, %rbp
	.cfi_def_cfa_register %rbp
	subq	$72, %rsp
	movq	%rdi, -32(%rbp)
	movq	%rsi, -24(%rbp)
Ltmp808:
	.loc	13 290 42 prologue_end
	movq	%rsi, -16(%rbp)
	movq	-16(%rbp), %rax
	movq	%rdi, -56(%rbp)
	movq	%rax, -64(%rbp)
	.loc	13 0 42 is_stmt 0
	movq	-56(%rbp), %rax
	.loc	13 290 68
	movq	%rax, -8(%rbp)
	movq	-8(%rbp), %rcx
	movq	%rcx, -72(%rbp)
	.loc	13 0 68
	movq	-72(%rbp), %rax
	.loc	13 290 18
	movq	%rax, -48(%rbp)
	movq	-64(%rbp), %rcx
	movq	%rcx, -40(%rbp)
	.loc	13 291 6 is_stmt 1
	movq	-48(%rbp), %rax
	movq	-40(%rbp), %rdx
	addq	$72, %rsp
	popq	%rbp
	retq
Ltmp809:
Lfunc_end127:
	.cfi_endproc

	.globl	__ZN4core3fmt10ArgumentV13new17h3e909e84d3475446E
	.p2align	4, 0x90
__ZN4core3fmt10ArgumentV13new17h3e909e84d3475446E:
Lfunc_begin128:
	.loc	13 281 0
	.cfi_startproc
	pushq	%rbp
	.cfi_def_cfa_offset 16
	.cfi_offset %rbp, -16
	movq	%rsp, %rbp
	.cfi_def_cfa_register %rbp
	subq	$72, %rsp
	movq	%rdi, -32(%rbp)
	movq	%rsi, -24(%rbp)
Ltmp810:
	.loc	13 290 42 prologue_end
	movq	%rsi, -16(%rbp)
	movq	-16(%rbp), %rax
	movq	%rdi, -56(%rbp)
	movq	%rax, -64(%rbp)
	.loc	13 0 42 is_stmt 0
	movq	-56(%rbp), %rax
	.loc	13 290 68
	movq	%rax, -8(%rbp)
	movq	-8(%rbp), %rcx
	movq	%rcx, -72(%rbp)
	.loc	13 0 68
	movq	-72(%rbp), %rax
	.loc	13 290 18
	movq	%rax, -48(%rbp)
	movq	-64(%rbp), %rcx
	movq	%rcx, -40(%rbp)
	.loc	13 291 6 is_stmt 1
	movq	-48(%rbp), %rax
	movq	-40(%rbp), %rdx
	addq	$72, %rsp
	popq	%rbp
	retq
Ltmp811:
Lfunc_end128:
	.cfi_endproc

	.globl	__ZN4core3fmt10ArgumentV13new17h459f46144e58ababE
	.p2align	4, 0x90
__ZN4core3fmt10ArgumentV13new17h459f46144e58ababE:
Lfunc_begin129:
	.loc	13 281 0
	.cfi_startproc
	pushq	%rbp
	.cfi_def_cfa_offset 16
	.cfi_offset %rbp, -16
	movq	%rsp, %rbp
	.cfi_def_cfa_register %rbp
	subq	$72, %rsp
	movq	%rdi, -32(%rbp)
	movq	%rsi, -24(%rbp)
Ltmp812:
	.loc	13 290 42 prologue_end
	movq	%rsi, -16(%rbp)
	movq	-16(%rbp), %rax
	movq	%rdi, -56(%rbp)
	movq	%rax, -64(%rbp)
	.loc	13 0 42 is_stmt 0
	movq	-56(%rbp), %rax
	.loc	13 290 68
	movq	%rax, -8(%rbp)
	movq	-8(%rbp), %rcx
	movq	%rcx, -72(%rbp)
	.loc	13 0 68
	movq	-72(%rbp), %rax
	.loc	13 290 18
	movq	%rax, -48(%rbp)
	movq	-64(%rbp), %rcx
	movq	%rcx, -40(%rbp)
	.loc	13 291 6 is_stmt 1
	movq	-48(%rbp), %rax
	movq	-40(%rbp), %rdx
	addq	$72, %rsp
	popq	%rbp
	retq
Ltmp813:
Lfunc_end129:
	.cfi_endproc

	.globl	__ZN4core3fmt10ArgumentV13new17h4c320213990c1d5aE
	.p2align	4, 0x90
__ZN4core3fmt10ArgumentV13new17h4c320213990c1d5aE:
Lfunc_begin130:
	.loc	13 281 0
	.cfi_startproc
	pushq	%rbp
	.cfi_def_cfa_offset 16
	.cfi_offset %rbp, -16
	movq	%rsp, %rbp
	.cfi_def_cfa_register %rbp
	subq	$72, %rsp
	movq	%rdi, -32(%rbp)
	movq	%rsi, -24(%rbp)
Ltmp814:
	.loc	13 290 42 prologue_end
	movq	%rsi, -16(%rbp)
	movq	-16(%rbp), %rax
	movq	%rdi, -56(%rbp)
	movq	%rax, -64(%rbp)
	.loc	13 0 42 is_stmt 0
	movq	-56(%rbp), %rax
	.loc	13 290 68
	movq	%rax, -8(%rbp)
	movq	-8(%rbp), %rcx
	movq	%rcx, -72(%rbp)
	.loc	13 0 68
	movq	-72(%rbp), %rax
	.loc	13 290 18
	movq	%rax, -48(%rbp)
	movq	-64(%rbp), %rcx
	movq	%rcx, -40(%rbp)
	.loc	13 291 6 is_stmt 1
	movq	-48(%rbp), %rax
	movq	-40(%rbp), %rdx
	addq	$72, %rsp
	popq	%rbp
	retq
Ltmp815:
Lfunc_end130:
	.cfi_endproc

	.globl	__ZN4core3fmt10ArgumentV13new17h56aa6d1719b54541E
	.p2align	4, 0x90
__ZN4core3fmt10ArgumentV13new17h56aa6d1719b54541E:
Lfunc_begin131:
	.loc	13 281 0
	.cfi_startproc
	pushq	%rbp
	.cfi_def_cfa_offset 16
	.cfi_offset %rbp, -16
	movq	%rsp, %rbp
	.cfi_def_cfa_register %rbp
	subq	$72, %rsp
	movq	%rdi, -32(%rbp)
	movq	%rsi, -24(%rbp)
Ltmp816:
	.loc	13 290 42 prologue_end
	movq	%rsi, -16(%rbp)
	movq	-16(%rbp), %rax
	movq	%rdi, -56(%rbp)
	movq	%rax, -64(%rbp)
	.loc	13 0 42 is_stmt 0
	movq	-56(%rbp), %rax
	.loc	13 290 68
	movq	%rax, -8(%rbp)
	movq	-8(%rbp), %rcx
	movq	%rcx, -72(%rbp)
	.loc	13 0 68
	movq	-72(%rbp), %rax
	.loc	13 290 18
	movq	%rax, -48(%rbp)
	movq	-64(%rbp), %rcx
	movq	%rcx, -40(%rbp)
	.loc	13 291 6 is_stmt 1
	movq	-48(%rbp), %rax
	movq	-40(%rbp), %rdx
	addq	$72, %rsp
	popq	%rbp
	retq
Ltmp817:
Lfunc_end131:
	.cfi_endproc

	.globl	__ZN4core3fmt10ArgumentV13new17h660b91f4b500388cE
	.p2align	4, 0x90
__ZN4core3fmt10ArgumentV13new17h660b91f4b500388cE:
Lfunc_begin132:
	.loc	13 281 0
	.cfi_startproc
	pushq	%rbp
	.cfi_def_cfa_offset 16
	.cfi_offset %rbp, -16
	movq	%rsp, %rbp
	.cfi_def_cfa_register %rbp
	subq	$72, %rsp
	movq	%rdi, -32(%rbp)
	movq	%rsi, -24(%rbp)
Ltmp818:
	.loc	13 290 42 prologue_end
	movq	%rsi, -16(%rbp)
	movq	-16(%rbp), %rax
	movq	%rdi, -56(%rbp)
	movq	%rax, -64(%rbp)
	.loc	13 0 42 is_stmt 0
	movq	-56(%rbp), %rax
	.loc	13 290 68
	movq	%rax, -8(%rbp)
	movq	-8(%rbp), %rcx
	movq	%rcx, -72(%rbp)
	.loc	13 0 68
	movq	-72(%rbp), %rax
	.loc	13 290 18
	movq	%rax, -48(%rbp)
	movq	-64(%rbp), %rcx
	movq	%rcx, -40(%rbp)
	.loc	13 291 6 is_stmt 1
	movq	-48(%rbp), %rax
	movq	-40(%rbp), %rdx
	addq	$72, %rsp
	popq	%rbp
	retq
Ltmp819:
Lfunc_end132:
	.cfi_endproc

	.globl	__ZN4core3fmt10ArgumentV13new17h6870df16a0d69f6fE
	.p2align	4, 0x90
__ZN4core3fmt10ArgumentV13new17h6870df16a0d69f6fE:
Lfunc_begin133:
	.loc	13 281 0
	.cfi_startproc
	pushq	%rbp
	.cfi_def_cfa_offset 16
	.cfi_offset %rbp, -16
	movq	%rsp, %rbp
	.cfi_def_cfa_register %rbp
	subq	$72, %rsp
	movq	%rdi, -32(%rbp)
	movq	%rsi, -24(%rbp)
Ltmp820:
	.loc	13 290 42 prologue_end
	movq	%rsi, -16(%rbp)
	movq	-16(%rbp), %rax
	movq	%rdi, -56(%rbp)
	movq	%rax, -64(%rbp)
	.loc	13 0 42 is_stmt 0
	movq	-56(%rbp), %rax
	.loc	13 290 68
	movq	%rax, -8(%rbp)
	movq	-8(%rbp), %rcx
	movq	%rcx, -72(%rbp)
	.loc	13 0 68
	movq	-72(%rbp), %rax
	.loc	13 290 18
	movq	%rax, -48(%rbp)
	movq	-64(%rbp), %rcx
	movq	%rcx, -40(%rbp)
	.loc	13 291 6 is_stmt 1
	movq	-48(%rbp), %rax
	movq	-40(%rbp), %rdx
	addq	$72, %rsp
	popq	%rbp
	retq
Ltmp821:
Lfunc_end133:
	.cfi_endproc

	.globl	__ZN4core3fmt10ArgumentV13new17h72633a160db7fa98E
	.p2align	4, 0x90
__ZN4core3fmt10ArgumentV13new17h72633a160db7fa98E:
Lfunc_begin134:
	.loc	13 281 0
	.cfi_startproc
	pushq	%rbp
	.cfi_def_cfa_offset 16
	.cfi_offset %rbp, -16
	movq	%rsp, %rbp
	.cfi_def_cfa_register %rbp
	subq	$72, %rsp
	movq	%rdi, -32(%rbp)
	movq	%rsi, -24(%rbp)
Ltmp822:
	.loc	13 290 42 prologue_end
	movq	%rsi, -16(%rbp)
	movq	-16(%rbp), %rax
	movq	%rdi, -56(%rbp)
	movq	%rax, -64(%rbp)
	.loc	13 0 42 is_stmt 0
	movq	-56(%rbp), %rax
	.loc	13 290 68
	movq	%rax, -8(%rbp)
	movq	-8(%rbp), %rcx
	movq	%rcx, -72(%rbp)
	.loc	13 0 68
	movq	-72(%rbp), %rax
	.loc	13 290 18
	movq	%rax, -48(%rbp)
	movq	-64(%rbp), %rcx
	movq	%rcx, -40(%rbp)
	.loc	13 291 6 is_stmt 1
	movq	-48(%rbp), %rax
	movq	-40(%rbp), %rdx
	addq	$72, %rsp
	popq	%rbp
	retq
Ltmp823:
Lfunc_end134:
	.cfi_endproc

	.globl	__ZN4core3fmt10ArgumentV13new17h7a211c3cb625457bE
	.p2align	4, 0x90
__ZN4core3fmt10ArgumentV13new17h7a211c3cb625457bE:
Lfunc_begin135:
	.loc	13 281 0
	.cfi_startproc
	pushq	%rbp
	.cfi_def_cfa_offset 16
	.cfi_offset %rbp, -16
	movq	%rsp, %rbp
	.cfi_def_cfa_register %rbp
	subq	$72, %rsp
	movq	%rdi, -32(%rbp)
	movq	%rsi, -24(%rbp)
Ltmp824:
	.loc	13 290 42 prologue_end
	movq	%rsi, -16(%rbp)
	movq	-16(%rbp), %rax
	movq	%rdi, -56(%rbp)
	movq	%rax, -64(%rbp)
	.loc	13 0 42 is_stmt 0
	movq	-56(%rbp), %rax
	.loc	13 290 68
	movq	%rax, -8(%rbp)
	movq	-8(%rbp), %rcx
	movq	%rcx, -72(%rbp)
	.loc	13 0 68
	movq	-72(%rbp), %rax
	.loc	13 290 18
	movq	%rax, -48(%rbp)
	movq	-64(%rbp), %rcx
	movq	%rcx, -40(%rbp)
	.loc	13 291 6 is_stmt 1
	movq	-48(%rbp), %rax
	movq	-40(%rbp), %rdx
	addq	$72, %rsp
	popq	%rbp
	retq
Ltmp825:
Lfunc_end135:
	.cfi_endproc

	.globl	__ZN4core3fmt10ArgumentV13new17h7c7130e618e47ba8E
	.p2align	4, 0x90
__ZN4core3fmt10ArgumentV13new17h7c7130e618e47ba8E:
Lfunc_begin136:
	.loc	13 281 0
	.cfi_startproc
	pushq	%rbp
	.cfi_def_cfa_offset 16
	.cfi_offset %rbp, -16
	movq	%rsp, %rbp
	.cfi_def_cfa_register %rbp
	subq	$72, %rsp
	movq	%rdi, -32(%rbp)
	movq	%rsi, -24(%rbp)
Ltmp826:
	.loc	13 290 42 prologue_end
	movq	%rsi, -16(%rbp)
	movq	-16(%rbp), %rax
	movq	%rdi, -56(%rbp)
	movq	%rax, -64(%rbp)
	.loc	13 0 42 is_stmt 0
	movq	-56(%rbp), %rax
	.loc	13 290 68
	movq	%rax, -8(%rbp)
	movq	-8(%rbp), %rcx
	movq	%rcx, -72(%rbp)
	.loc	13 0 68
	movq	-72(%rbp), %rax
	.loc	13 290 18
	movq	%rax, -48(%rbp)
	movq	-64(%rbp), %rcx
	movq	%rcx, -40(%rbp)
	.loc	13 291 6 is_stmt 1
	movq	-48(%rbp), %rax
	movq	-40(%rbp), %rdx
	addq	$72, %rsp
	popq	%rbp
	retq
Ltmp827:
Lfunc_end136:
	.cfi_endproc

	.globl	__ZN4core3fmt10ArgumentV13new17h7debac3081c894e3E
	.p2align	4, 0x90
__ZN4core3fmt10ArgumentV13new17h7debac3081c894e3E:
Lfunc_begin137:
	.loc	13 281 0
	.cfi_startproc
	pushq	%rbp
	.cfi_def_cfa_offset 16
	.cfi_offset %rbp, -16
	movq	%rsp, %rbp
	.cfi_def_cfa_register %rbp
	subq	$72, %rsp
	movq	%rdi, -32(%rbp)
	movq	%rsi, -24(%rbp)
Ltmp828:
	.loc	13 290 42 prologue_end
	movq	%rsi, -16(%rbp)
	movq	-16(%rbp), %rax
	movq	%rdi, -56(%rbp)
	movq	%rax, -64(%rbp)
	.loc	13 0 42 is_stmt 0
	movq	-56(%rbp), %rax
	.loc	13 290 68
	movq	%rax, -8(%rbp)
	movq	-8(%rbp), %rcx
	movq	%rcx, -72(%rbp)
	.loc	13 0 68
	movq	-72(%rbp), %rax
	.loc	13 290 18
	movq	%rax, -48(%rbp)
	movq	-64(%rbp), %rcx
	movq	%rcx, -40(%rbp)
	.loc	13 291 6 is_stmt 1
	movq	-48(%rbp), %rax
	movq	-40(%rbp), %rdx
	addq	$72, %rsp
	popq	%rbp
	retq
Ltmp829:
Lfunc_end137:
	.cfi_endproc

	.globl	__ZN4core3fmt10ArgumentV13new17h805e4a3cfb2104d9E
	.p2align	4, 0x90
__ZN4core3fmt10ArgumentV13new17h805e4a3cfb2104d9E:
Lfunc_begin138:
	.loc	13 281 0
	.cfi_startproc
	pushq	%rbp
	.cfi_def_cfa_offset 16
	.cfi_offset %rbp, -16
	movq	%rsp, %rbp
	.cfi_def_cfa_register %rbp
	subq	$72, %rsp
	movq	%rdi, -32(%rbp)
	movq	%rsi, -24(%rbp)
Ltmp830:
	.loc	13 290 42 prologue_end
	movq	%rsi, -16(%rbp)
	movq	-16(%rbp), %rax
	movq	%rdi, -56(%rbp)
	movq	%rax, -64(%rbp)
	.loc	13 0 42 is_stmt 0
	movq	-56(%rbp), %rax
	.loc	13 290 68
	movq	%rax, -8(%rbp)
	movq	-8(%rbp), %rcx
	movq	%rcx, -72(%rbp)
	.loc	13 0 68
	movq	-72(%rbp), %rax
	.loc	13 290 18
	movq	%rax, -48(%rbp)
	movq	-64(%rbp), %rcx
	movq	%rcx, -40(%rbp)
	.loc	13 291 6 is_stmt 1
	movq	-48(%rbp), %rax
	movq	-40(%rbp), %rdx
	addq	$72, %rsp
	popq	%rbp
	retq
Ltmp831:
Lfunc_end138:
	.cfi_endproc

	.globl	__ZN4core3fmt10ArgumentV13new17h8ced71ab2e8651ccE
	.p2align	4, 0x90
__ZN4core3fmt10ArgumentV13new17h8ced71ab2e8651ccE:
Lfunc_begin139:
	.loc	13 281 0
	.cfi_startproc
	pushq	%rbp
	.cfi_def_cfa_offset 16
	.cfi_offset %rbp, -16
	movq	%rsp, %rbp
	.cfi_def_cfa_register %rbp
	subq	$72, %rsp
	movq	%rdi, -32(%rbp)
	movq	%rsi, -24(%rbp)
Ltmp832:
	.loc	13 290 42 prologue_end
	movq	%rsi, -16(%rbp)
	movq	-16(%rbp), %rax
	movq	%rdi, -56(%rbp)
	movq	%rax, -64(%rbp)
	.loc	13 0 42 is_stmt 0
	movq	-56(%rbp), %rax
	.loc	13 290 68
	movq	%rax, -8(%rbp)
	movq	-8(%rbp), %rcx
	movq	%rcx, -72(%rbp)
	.loc	13 0 68
	movq	-72(%rbp), %rax
	.loc	13 290 18
	movq	%rax, -48(%rbp)
	movq	-64(%rbp), %rcx
	movq	%rcx, -40(%rbp)
	.loc	13 291 6 is_stmt 1
	movq	-48(%rbp), %rax
	movq	-40(%rbp), %rdx
	addq	$72, %rsp
	popq	%rbp
	retq
Ltmp833:
Lfunc_end139:
	.cfi_endproc

	.globl	__ZN4core3fmt10ArgumentV13new17h9c39067a77e18f84E
	.p2align	4, 0x90
__ZN4core3fmt10ArgumentV13new17h9c39067a77e18f84E:
Lfunc_begin140:
	.loc	13 281 0
	.cfi_startproc
	pushq	%rbp
	.cfi_def_cfa_offset 16
	.cfi_offset %rbp, -16
	movq	%rsp, %rbp
	.cfi_def_cfa_register %rbp
	subq	$72, %rsp
	movq	%rdi, -32(%rbp)
	movq	%rsi, -24(%rbp)
Ltmp834:
	.loc	13 290 42 prologue_end
	movq	%rsi, -16(%rbp)
	movq	-16(%rbp), %rax
	movq	%rdi, -56(%rbp)
	movq	%rax, -64(%rbp)
	.loc	13 0 42 is_stmt 0
	movq	-56(%rbp), %rax
	.loc	13 290 68
	movq	%rax, -8(%rbp)
	movq	-8(%rbp), %rcx
	movq	%rcx, -72(%rbp)
	.loc	13 0 68
	movq	-72(%rbp), %rax
	.loc	13 290 18
	movq	%rax, -48(%rbp)
	movq	-64(%rbp), %rcx
	movq	%rcx, -40(%rbp)
	.loc	13 291 6 is_stmt 1
	movq	-48(%rbp), %rax
	movq	-40(%rbp), %rdx
	addq	$72, %rsp
	popq	%rbp
	retq
Ltmp835:
Lfunc_end140:
	.cfi_endproc

	.globl	__ZN4core3fmt10ArgumentV13new17ha052feb85258210dE
	.p2align	4, 0x90
__ZN4core3fmt10ArgumentV13new17ha052feb85258210dE:
Lfunc_begin141:
	.loc	13 281 0
	.cfi_startproc
	pushq	%rbp
	.cfi_def_cfa_offset 16
	.cfi_offset %rbp, -16
	movq	%rsp, %rbp
	.cfi_def_cfa_register %rbp
	subq	$72, %rsp
	movq	%rdi, -32(%rbp)
	movq	%rsi, -24(%rbp)
Ltmp836:
	.loc	13 290 42 prologue_end
	movq	%rsi, -16(%rbp)
	movq	-16(%rbp), %rax
	movq	%rdi, -56(%rbp)
	movq	%rax, -64(%rbp)
	.loc	13 0 42 is_stmt 0
	movq	-56(%rbp), %rax
	.loc	13 290 68
	movq	%rax, -8(%rbp)
	movq	-8(%rbp), %rcx
	movq	%rcx, -72(%rbp)
	.loc	13 0 68
	movq	-72(%rbp), %rax
	.loc	13 290 18
	movq	%rax, -48(%rbp)
	movq	-64(%rbp), %rcx
	movq	%rcx, -40(%rbp)
	.loc	13 291 6 is_stmt 1
	movq	-48(%rbp), %rax
	movq	-40(%rbp), %rdx
	addq	$72, %rsp
	popq	%rbp
	retq
Ltmp837:
Lfunc_end141:
	.cfi_endproc

	.globl	__ZN4core3fmt10ArgumentV13new17ha82dfb1190432a65E
	.p2align	4, 0x90
__ZN4core3fmt10ArgumentV13new17ha82dfb1190432a65E:
Lfunc_begin142:
	.loc	13 281 0
	.cfi_startproc
	pushq	%rbp
	.cfi_def_cfa_offset 16
	.cfi_offset %rbp, -16
	movq	%rsp, %rbp
	.cfi_def_cfa_register %rbp
	subq	$72, %rsp
	movq	%rdi, -32(%rbp)
	movq	%rsi, -24(%rbp)
Ltmp838:
	.loc	13 290 42 prologue_end
	movq	%rsi, -16(%rbp)
	movq	-16(%rbp), %rax
	movq	%rdi, -56(%rbp)
	movq	%rax, -64(%rbp)
	.loc	13 0 42 is_stmt 0
	movq	-56(%rbp), %rax
	.loc	13 290 68
	movq	%rax, -8(%rbp)
	movq	-8(%rbp), %rcx
	movq	%rcx, -72(%rbp)
	.loc	13 0 68
	movq	-72(%rbp), %rax
	.loc	13 290 18
	movq	%rax, -48(%rbp)
	movq	-64(%rbp), %rcx
	movq	%rcx, -40(%rbp)
	.loc	13 291 6 is_stmt 1
	movq	-48(%rbp), %rax
	movq	-40(%rbp), %rdx
	addq	$72, %rsp
	popq	%rbp
	retq
Ltmp839:
Lfunc_end142:
	.cfi_endproc

	.globl	__ZN4core3fmt10ArgumentV13new17hbabea82536efc6afE
	.p2align	4, 0x90
__ZN4core3fmt10ArgumentV13new17hbabea82536efc6afE:
Lfunc_begin143:
	.loc	13 281 0
	.cfi_startproc
	pushq	%rbp
	.cfi_def_cfa_offset 16
	.cfi_offset %rbp, -16
	movq	%rsp, %rbp
	.cfi_def_cfa_register %rbp
	subq	$72, %rsp
	movq	%rdi, -32(%rbp)
	movq	%rsi, -24(%rbp)
Ltmp840:
	.loc	13 290 42 prologue_end
	movq	%rsi, -16(%rbp)
	movq	-16(%rbp), %rax
	movq	%rdi, -56(%rbp)
	movq	%rax, -64(%rbp)
	.loc	13 0 42 is_stmt 0
	movq	-56(%rbp), %rax
	.loc	13 290 68
	movq	%rax, -8(%rbp)
	movq	-8(%rbp), %rcx
	movq	%rcx, -72(%rbp)
	.loc	13 0 68
	movq	-72(%rbp), %rax
	.loc	13 290 18
	movq	%rax, -48(%rbp)
	movq	-64(%rbp), %rcx
	movq	%rcx, -40(%rbp)
	.loc	13 291 6 is_stmt 1
	movq	-48(%rbp), %rax
	movq	-40(%rbp), %rdx
	addq	$72, %rsp
	popq	%rbp
	retq
Ltmp841:
Lfunc_end143:
	.cfi_endproc

	.globl	__ZN4core3fmt10ArgumentV13new17hc174b199f0bf2e75E
	.p2align	4, 0x90
__ZN4core3fmt10ArgumentV13new17hc174b199f0bf2e75E:
Lfunc_begin144:
	.loc	13 281 0
	.cfi_startproc
	pushq	%rbp
	.cfi_def_cfa_offset 16
	.cfi_offset %rbp, -16
	movq	%rsp, %rbp
	.cfi_def_cfa_register %rbp
	subq	$72, %rsp
	movq	%rdi, -32(%rbp)
	movq	%rsi, -24(%rbp)
Ltmp842:
	.loc	13 290 42 prologue_end
	movq	%rsi, -16(%rbp)
	movq	-16(%rbp), %rax
	movq	%rdi, -56(%rbp)
	movq	%rax, -64(%rbp)
	.loc	13 0 42 is_stmt 0
	movq	-56(%rbp), %rax
	.loc	13 290 68
	movq	%rax, -8(%rbp)
	movq	-8(%rbp), %rcx
	movq	%rcx, -72(%rbp)
	.loc	13 0 68
	movq	-72(%rbp), %rax
	.loc	13 290 18
	movq	%rax, -48(%rbp)
	movq	-64(%rbp), %rcx
	movq	%rcx, -40(%rbp)
	.loc	13 291 6 is_stmt 1
	movq	-48(%rbp), %rax
	movq	-40(%rbp), %rdx
	addq	$72, %rsp
	popq	%rbp
	retq
Ltmp843:
Lfunc_end144:
	.cfi_endproc

	.globl	__ZN4core3fmt10ArgumentV13new17hc3702b1cd06871fcE
	.p2align	4, 0x90
__ZN4core3fmt10ArgumentV13new17hc3702b1cd06871fcE:
Lfunc_begin145:
	.loc	13 281 0
	.cfi_startproc
	pushq	%rbp
	.cfi_def_cfa_offset 16
	.cfi_offset %rbp, -16
	movq	%rsp, %rbp
	.cfi_def_cfa_register %rbp
	subq	$72, %rsp
	movq	%rdi, -32(%rbp)
	movq	%rsi, -24(%rbp)
Ltmp844:
	.loc	13 290 42 prologue_end
	movq	%rsi, -16(%rbp)
	movq	-16(%rbp), %rax
	movq	%rdi, -56(%rbp)
	movq	%rax, -64(%rbp)
	.loc	13 0 42 is_stmt 0
	movq	-56(%rbp), %rax
	.loc	13 290 68
	movq	%rax, -8(%rbp)
	movq	-8(%rbp), %rcx
	movq	%rcx, -72(%rbp)
	.loc	13 0 68
	movq	-72(%rbp), %rax
	.loc	13 290 18
	movq	%rax, -48(%rbp)
	movq	-64(%rbp), %rcx
	movq	%rcx, -40(%rbp)
	.loc	13 291 6 is_stmt 1
	movq	-48(%rbp), %rax
	movq	-40(%rbp), %rdx
	addq	$72, %rsp
	popq	%rbp
	retq
Ltmp845:
Lfunc_end145:
	.cfi_endproc

	.globl	__ZN4core3fmt10ArgumentV13new17hc79bbc4e53445bfcE
	.p2align	4, 0x90
__ZN4core3fmt10ArgumentV13new17hc79bbc4e53445bfcE:
Lfunc_begin146:
	.loc	13 281 0
	.cfi_startproc
	pushq	%rbp
	.cfi_def_cfa_offset 16
	.cfi_offset %rbp, -16
	movq	%rsp, %rbp
	.cfi_def_cfa_register %rbp
	subq	$72, %rsp
	movq	%rdi, -32(%rbp)
	movq	%rsi, -24(%rbp)
Ltmp846:
	.loc	13 290 42 prologue_end
	movq	%rsi, -16(%rbp)
	movq	-16(%rbp), %rax
	movq	%rdi, -56(%rbp)
	movq	%rax, -64(%rbp)
	.loc	13 0 42 is_stmt 0
	movq	-56(%rbp), %rax
	.loc	13 290 68
	movq	%rax, -8(%rbp)
	movq	-8(%rbp), %rcx
	movq	%rcx, -72(%rbp)
	.loc	13 0 68
	movq	-72(%rbp), %rax
	.loc	13 290 18
	movq	%rax, -48(%rbp)
	movq	-64(%rbp), %rcx
	movq	%rcx, -40(%rbp)
	.loc	13 291 6 is_stmt 1
	movq	-48(%rbp), %rax
	movq	-40(%rbp), %rdx
	addq	$72, %rsp
	popq	%rbp
	retq
Ltmp847:
Lfunc_end146:
	.cfi_endproc

	.globl	__ZN4core3fmt10ArgumentV13new17hc8195d27bee6f25bE
	.p2align	4, 0x90
__ZN4core3fmt10ArgumentV13new17hc8195d27bee6f25bE:
Lfunc_begin147:
	.loc	13 281 0
	.cfi_startproc
	pushq	%rbp
	.cfi_def_cfa_offset 16
	.cfi_offset %rbp, -16
	movq	%rsp, %rbp
	.cfi_def_cfa_register %rbp
	subq	$72, %rsp
	movq	%rdi, -32(%rbp)
	movq	%rsi, -24(%rbp)
Ltmp848:
	.loc	13 290 42 prologue_end
	movq	%rsi, -16(%rbp)
	movq	-16(%rbp), %rax
	movq	%rdi, -56(%rbp)
	movq	%rax, -64(%rbp)
	.loc	13 0 42 is_stmt 0
	movq	-56(%rbp), %rax
	.loc	13 290 68
	movq	%rax, -8(%rbp)
	movq	-8(%rbp), %rcx
	movq	%rcx, -72(%rbp)
	.loc	13 0 68
	movq	-72(%rbp), %rax
	.loc	13 290 18
	movq	%rax, -48(%rbp)
	movq	-64(%rbp), %rcx
	movq	%rcx, -40(%rbp)
	.loc	13 291 6 is_stmt 1
	movq	-48(%rbp), %rax
	movq	-40(%rbp), %rdx
	addq	$72, %rsp
	popq	%rbp
	retq
Ltmp849:
Lfunc_end147:
	.cfi_endproc

	.globl	__ZN4core3fmt10ArgumentV13new17hd0549765d102c911E
	.p2align	4, 0x90
__ZN4core3fmt10ArgumentV13new17hd0549765d102c911E:
Lfunc_begin148:
	.loc	13 281 0
	.cfi_startproc
	pushq	%rbp
	.cfi_def_cfa_offset 16
	.cfi_offset %rbp, -16
	movq	%rsp, %rbp
	.cfi_def_cfa_register %rbp
	subq	$72, %rsp
	movq	%rdi, -32(%rbp)
	movq	%rsi, -24(%rbp)
Ltmp850:
	.loc	13 290 42 prologue_end
	movq	%rsi, -16(%rbp)
	movq	-16(%rbp), %rax
	movq	%rdi, -56(%rbp)
	movq	%rax, -64(%rbp)
	.loc	13 0 42 is_stmt 0
	movq	-56(%rbp), %rax
	.loc	13 290 68
	movq	%rax, -8(%rbp)
	movq	-8(%rbp), %rcx
	movq	%rcx, -72(%rbp)
	.loc	13 0 68
	movq	-72(%rbp), %rax
	.loc	13 290 18
	movq	%rax, -48(%rbp)
	movq	-64(%rbp), %rcx
	movq	%rcx, -40(%rbp)
	.loc	13 291 6 is_stmt 1
	movq	-48(%rbp), %rax
	movq	-40(%rbp), %rdx
	addq	$72, %rsp
	popq	%rbp
	retq
Ltmp851:
Lfunc_end148:
	.cfi_endproc

	.globl	__ZN4core3fmt10ArgumentV13new17hd8f2189181183980E
	.p2align	4, 0x90
__ZN4core3fmt10ArgumentV13new17hd8f2189181183980E:
Lfunc_begin149:
	.loc	13 281 0
	.cfi_startproc
	pushq	%rbp
	.cfi_def_cfa_offset 16
	.cfi_offset %rbp, -16
	movq	%rsp, %rbp
	.cfi_def_cfa_register %rbp
	subq	$72, %rsp
	movq	%rdi, -32(%rbp)
	movq	%rsi, -24(%rbp)
Ltmp852:
	.loc	13 290 42 prologue_end
	movq	%rsi, -16(%rbp)
	movq	-16(%rbp), %rax
	movq	%rdi, -56(%rbp)
	movq	%rax, -64(%rbp)
	.loc	13 0 42 is_stmt 0
	movq	-56(%rbp), %rax
	.loc	13 290 68
	movq	%rax, -8(%rbp)
	movq	-8(%rbp), %rcx
	movq	%rcx, -72(%rbp)
	.loc	13 0 68
	movq	-72(%rbp), %rax
	.loc	13 290 18
	movq	%rax, -48(%rbp)
	movq	-64(%rbp), %rcx
	movq	%rcx, -40(%rbp)
	.loc	13 291 6 is_stmt 1
	movq	-48(%rbp), %rax
	movq	-40(%rbp), %rdx
	addq	$72, %rsp
	popq	%rbp
	retq
Ltmp853:
Lfunc_end149:
	.cfi_endproc

	.globl	__ZN4core3fmt10ArgumentV13new17he608ac18b942422fE
	.p2align	4, 0x90
__ZN4core3fmt10ArgumentV13new17he608ac18b942422fE:
Lfunc_begin150:
	.loc	13 281 0
	.cfi_startproc
	pushq	%rbp
	.cfi_def_cfa_offset 16
	.cfi_offset %rbp, -16
	movq	%rsp, %rbp
	.cfi_def_cfa_register %rbp
	subq	$72, %rsp
	movq	%rdi, -32(%rbp)
	movq	%rsi, -24(%rbp)
Ltmp854:
	.loc	13 290 42 prologue_end
	movq	%rsi, -16(%rbp)
	movq	-16(%rbp), %rax
	movq	%rdi, -56(%rbp)
	movq	%rax, -64(%rbp)
	.loc	13 0 42 is_stmt 0
	movq	-56(%rbp), %rax
	.loc	13 290 68
	movq	%rax, -8(%rbp)
	movq	-8(%rbp), %rcx
	movq	%rcx, -72(%rbp)
	.loc	13 0 68
	movq	-72(%rbp), %rax
	.loc	13 290 18
	movq	%rax, -48(%rbp)
	movq	-64(%rbp), %rcx
	movq	%rcx, -40(%rbp)
	.loc	13 291 6 is_stmt 1
	movq	-48(%rbp), %rax
	movq	-40(%rbp), %rdx
	addq	$72, %rsp
	popq	%rbp
	retq
Ltmp855:
Lfunc_end150:
	.cfi_endproc

	.globl	__ZN4core3fmt10ArgumentV13new17he9d004e8fdbf6293E
	.p2align	4, 0x90
__ZN4core3fmt10ArgumentV13new17he9d004e8fdbf6293E:
Lfunc_begin151:
	.loc	13 281 0
	.cfi_startproc
	pushq	%rbp
	.cfi_def_cfa_offset 16
	.cfi_offset %rbp, -16
	movq	%rsp, %rbp
	.cfi_def_cfa_register %rbp
	subq	$72, %rsp
	movq	%rdi, -32(%rbp)
	movq	%rsi, -24(%rbp)
Ltmp856:
	.loc	13 290 42 prologue_end
	movq	%rsi, -16(%rbp)
	movq	-16(%rbp), %rax
	movq	%rdi, -56(%rbp)
	movq	%rax, -64(%rbp)
	.loc	13 0 42 is_stmt 0
	movq	-56(%rbp), %rax
	.loc	13 290 68
	movq	%rax, -8(%rbp)
	movq	-8(%rbp), %rcx
	movq	%rcx, -72(%rbp)
	.loc	13 0 68
	movq	-72(%rbp), %rax
	.loc	13 290 18
	movq	%rax, -48(%rbp)
	movq	-64(%rbp), %rcx
	movq	%rcx, -40(%rbp)
	.loc	13 291 6 is_stmt 1
	movq	-48(%rbp), %rax
	movq	-40(%rbp), %rdx
	addq	$72, %rsp
	popq	%rbp
	retq
Ltmp857:
Lfunc_end151:
	.cfi_endproc

	.globl	__ZN4core3fmt10ArgumentV13new17hed58bfd300fbc20bE
	.p2align	4, 0x90
__ZN4core3fmt10ArgumentV13new17hed58bfd300fbc20bE:
Lfunc_begin152:
	.loc	13 281 0
	.cfi_startproc
	pushq	%rbp
	.cfi_def_cfa_offset 16
	.cfi_offset %rbp, -16
	movq	%rsp, %rbp
	.cfi_def_cfa_register %rbp
	subq	$72, %rsp
	movq	%rdi, -32(%rbp)
	movq	%rsi, -24(%rbp)
Ltmp858:
	.loc	13 290 42 prologue_end
	movq	%rsi, -16(%rbp)
	movq	-16(%rbp), %rax
	movq	%rdi, -56(%rbp)
	movq	%rax, -64(%rbp)
	.loc	13 0 42 is_stmt 0
	movq	-56(%rbp), %rax
	.loc	13 290 68
	movq	%rax, -8(%rbp)
	movq	-8(%rbp), %rcx
	movq	%rcx, -72(%rbp)
	.loc	13 0 68
	movq	-72(%rbp), %rax
	.loc	13 290 18
	movq	%rax, -48(%rbp)
	movq	-64(%rbp), %rcx
	movq	%rcx, -40(%rbp)
	.loc	13 291 6 is_stmt 1
	movq	-48(%rbp), %rax
	movq	-40(%rbp), %rdx
	addq	$72, %rsp
	popq	%rbp
	retq
Ltmp859:
Lfunc_end152:
	.cfi_endproc

	.globl	__ZN4core3fmt10ArgumentV13new17hfa0acf6a8db23b8cE
	.p2align	4, 0x90
__ZN4core3fmt10ArgumentV13new17hfa0acf6a8db23b8cE:
Lfunc_begin153:
	.loc	13 281 0
	.cfi_startproc
	pushq	%rbp
	.cfi_def_cfa_offset 16
	.cfi_offset %rbp, -16
	movq	%rsp, %rbp
	.cfi_def_cfa_register %rbp
	subq	$72, %rsp
	movq	%rdi, -32(%rbp)
	movq	%rsi, -24(%rbp)
Ltmp860:
	.loc	13 290 42 prologue_end
	movq	%rsi, -16(%rbp)
	movq	-16(%rbp), %rax
	movq	%rdi, -56(%rbp)
	movq	%rax, -64(%rbp)
	.loc	13 0 42 is_stmt 0
	movq	-56(%rbp), %rax
	.loc	13 290 68
	movq	%rax, -8(%rbp)
	movq	-8(%rbp), %rcx
	movq	%rcx, -72(%rbp)
	.loc	13 0 68
	movq	-72(%rbp), %rax
	.loc	13 290 18
	movq	%rax, -48(%rbp)
	movq	-64(%rbp), %rcx
	movq	%rcx, -40(%rbp)
	.loc	13 291 6 is_stmt 1
	movq	-48(%rbp), %rax
	movq	-40(%rbp), %rdx
	addq	$72, %rsp
	popq	%rbp
	retq
Ltmp861:
Lfunc_end153:
	.cfi_endproc

	.p2align	4, 0x90
__ZN4core3fmt3num52_$LT$impl$u20$core..fmt..Debug$u20$for$u20$usize$GT$3fmt17h2a1f0fbcdf7b6d48E:
Lfunc_begin154:
	.file	20 "/rustc/6c8927b0cf80ceee19386026cf9d7fd4fd9d486f/src/libcore/fmt/num.rs"
	.loc	20 148 0
	.cfi_startproc
	pushq	%rbp
	.cfi_def_cfa_offset 16
	.cfi_offset %rbp, -16
	movq	%rsp, %rbp
	.cfi_def_cfa_register %rbp
	subq	$48, %rsp
	movq	%rdi, -16(%rbp)
	movq	%rsi, -8(%rbp)
	movq	%rdi, -32(%rbp)
Ltmp862:
	.loc	20 149 20 prologue_end
	movq	%rsi, %rdi
	movq	%rsi, -40(%rbp)
	callq	__ZN4core3fmt9Formatter15debug_lower_hex17hd07f6fde8d0365dfE
	movb	%al, -41(%rbp)
	.loc	20 0 20 is_stmt 0
	movb	-41(%rbp), %al
	.loc	20 149 17
	testb	$1, %al
	jne	LBB154_3
	jmp	LBB154_2
LBB154_2:
	.loc	20 0 17
	movq	-40(%rbp), %rdi
	.loc	20 151 27 is_stmt 1
	callq	__ZN4core3fmt9Formatter15debug_upper_hex17hf480c256a9c81c1eE
	movb	%al, -42(%rbp)
	jmp	LBB154_5
LBB154_3:
	.loc	20 0 27 is_stmt 0
	movq	-32(%rbp), %rdi
	movq	-40(%rbp), %rsi
	.loc	20 150 21 is_stmt 1
	callq	__ZN4core3fmt3num55_$LT$impl$u20$core..fmt..LowerHex$u20$for$u20$usize$GT$3fmt17hc47c170655f2f8b1E
	andb	$1, %al
	movb	%al, -17(%rbp)
	.loc	20 149 17
	jmp	LBB154_11
LBB154_5:
	.loc	20 0 17 is_stmt 0
	movb	-42(%rbp), %al
	.loc	20 151 24 is_stmt 1
	testb	$1, %al
	jne	LBB154_7
	jmp	LBB154_6
LBB154_6:
	.loc	20 0 24 is_stmt 0
	movq	-32(%rbp), %rdi
	movq	-40(%rbp), %rsi
	.loc	20 154 21 is_stmt 1
	callq	__ZN4core3fmt3num3imp54_$LT$impl$u20$core..fmt..Display$u20$for$u20$usize$GT$3fmt17h12ea2856299c9b06E
	andb	$1, %al
	movb	%al, -17(%rbp)
	jmp	LBB154_9
LBB154_7:
	.loc	20 0 21 is_stmt 0
	movq	-32(%rbp), %rdi
	movq	-40(%rbp), %rsi
	.loc	20 152 21 is_stmt 1
	callq	__ZN4core3fmt3num55_$LT$impl$u20$core..fmt..UpperHex$u20$for$u20$usize$GT$3fmt17he5a77a1ce12f6c22E
	andb	$1, %al
	movb	%al, -17(%rbp)
	.loc	20 151 24
	jmp	LBB154_10
LBB154_9:
	jmp	LBB154_10
LBB154_10:
	.loc	20 149 17
	jmp	LBB154_11
LBB154_11:
	.loc	20 156 14
	movb	-17(%rbp), %al
	andb	$1, %al
	movzbl	%al, %eax
	addq	$48, %rsp
	popq	%rbp
	retq
Ltmp863:
Lfunc_end154:
	.cfi_endproc

	.globl	__ZN4core3fmt5Write9write_fmt17h944bf95f141f8360E
	.p2align	4, 0x90
__ZN4core3fmt5Write9write_fmt17h944bf95f141f8360E:
Lfunc_begin155:
	.loc	13 192 0
	.cfi_startproc
	pushq	%rbp
	.cfi_def_cfa_offset 16
	.cfi_offset %rbp, -16
	movq	%rsp, %rbp
	.cfi_def_cfa_register %rbp
	subq	$96, %rsp
	leaq	l___unnamed_3(%rip), %rax
	movq	%rdi, -56(%rbp)
Ltmp864:
	.loc	13 193 15 prologue_end
	leaq	-56(%rbp), %rcx
Ltmp865:
	.loc	13 193 26 is_stmt 0
	leaq	-48(%rbp), %rdx
	movq	%rdx, %rdi
	movl	$48, %r8d
	movq	%rdx, -64(%rbp)
	movq	%r8, %rdx
	movq	%rax, -72(%rbp)
	movq	%rcx, -80(%rbp)
Ltmp866:
	callq	_memcpy
Ltmp867:
	.loc	13 0 26
	movq	-80(%rbp), %rdi
Ltmp868:
	movq	-72(%rbp), %rsi
	movq	-64(%rbp), %rdx
	.loc	13 193 9
	callq	__ZN4core3fmt5write17h0f2c225c157771c1E
Ltmp869:
	.loc	13 0 9
	movb	%al, -81(%rbp)
	movb	-81(%rbp), %al
	.loc	13 194 6 is_stmt 1
	andb	$1, %al
	movzbl	%al, %eax
	addq	$96, %rsp
	popq	%rbp
	retq
Ltmp870:
Lfunc_end155:
	.cfi_endproc

	.globl	__ZN4core3fmt8builders9DebugList7entries17h04a451ca4871b4b0E
	.p2align	4, 0x90
__ZN4core3fmt8builders9DebugList7entries17h04a451ca4871b4b0E:
Lfunc_begin156:
	.file	21 "/rustc/6c8927b0cf80ceee19386026cf9d7fd4fd9d486f/src/libcore/fmt/builders.rs"
	.loc	21 656 0
	.cfi_startproc
	.cfi_personality 155, _rust_eh_personality
	.cfi_lsda 16, Lexception24
	pushq	%rbp
	.cfi_def_cfa_offset 16
	.cfi_offset %rbp, -16
	movq	%rsp, %rbp
	.cfi_def_cfa_register %rbp
	subq	$368, %rsp
	movq	%rdi, -24(%rbp)
Ltmp879:
	.loc	21 664 9 prologue_end
	movb	$0, -25(%rbp)
	.loc	21 661 22
	movq	(%rsi), %rax
	movq	%rax, -328(%rbp)
	movq	8(%rsi), %rax
	movq	%rax, -320(%rbp)
	movq	16(%rsi), %rax
	movq	%rax, -312(%rbp)
	leaq	-360(%rbp), %rax
	movq	%rdi, -368(%rbp)
	movq	%rax, %rdi
	leaq	-328(%rbp), %rsi
Ltmp880:
	callq	__ZN96_$LT$proc_macro2..fallback..TokenStream$u20$as$u20$core..iter..traits..collect..IntoIterator$GT$9into_iter17h9a0f48d917dd23a4E
	jmp	LBB156_2
LBB156_1:
	.loc	21 656 5
	movq	-16(%rbp), %rdi
	callq	__Unwind_Resume
	ud2
LBB156_2:
	.loc	21 661 22
	movq	-360(%rbp), %rax
	movq	%rax, -304(%rbp)
	movq	-352(%rbp), %rax
	movq	%rax, -296(%rbp)
	movq	-344(%rbp), %rax
	movq	%rax, -288(%rbp)
	movq	-336(%rbp), %rax
	movq	%rax, -280(%rbp)
LBB156_3:
Ltmp871:
	.loc	21 0 22 is_stmt 0
	leaq	-224(%rbp), %rdi
	leaq	-304(%rbp), %rsi
Ltmp881:
	.loc	21 661 22
	callq	__ZN88_$LT$alloc..vec..IntoIter$LT$T$GT$$u20$as$u20$core..iter..traits..iterator..Iterator$GT$4next17hb9bea414dfb5ff29E
Ltmp872:
	jmp	LBB156_5
Ltmp882:
LBB156_4:
	.loc	21 663 9 is_stmt 1
	leaq	-304(%rbp), %rdi
	callq	__ZN4core3ptr13drop_in_place17h708987e038b747dbE
	jmp	LBB156_1
LBB156_5:
Ltmp883:
	.loc	21 661 13
	movl	-224(%rbp), %eax
	addl	$-4, %eax
	setne	%cl
	movzbl	%cl, %edx
	movl	%edx, %esi
	je	LBB156_6
	jmp	LBB156_17
LBB156_17:
	jmp	LBB156_8
Ltmp884:
LBB156_6:
	.loc	21 663 9
	movb	$0, -25(%rbp)
Ltmp885:
	.loc	21 663 9 is_stmt 0
	leaq	-304(%rbp), %rdi
	callq	__ZN4core3ptr13drop_in_place17h708987e038b747dbE
	jmp	LBB156_12
Ltmp886:
	.loc	21 661 22 is_stmt 1
	ud2
LBB156_8:
	.loc	21 661 13 is_stmt 0
	movq	-184(%rbp), %rax
	movq	%rax, -136(%rbp)
	movq	-192(%rbp), %rax
	movq	%rax, -144(%rbp)
	movq	-200(%rbp), %rax
	movq	%rax, -152(%rbp)
	movq	-208(%rbp), %rax
	movq	%rax, -160(%rbp)
	movq	-224(%rbp), %rax
	movq	-216(%rbp), %rcx
	movq	%rcx, -168(%rbp)
	movq	%rax, -176(%rbp)
Ltmp887:
	.loc	21 661 13
	movq	-136(%rbp), %rax
	movq	%rax, -88(%rbp)
	movq	-144(%rbp), %rax
	movq	%rax, -96(%rbp)
	movq	-152(%rbp), %rax
	movq	%rax, -104(%rbp)
	movq	-160(%rbp), %rax
	movq	%rax, -112(%rbp)
	movq	-176(%rbp), %rax
	movq	-168(%rbp), %rcx
	movq	%rcx, -120(%rbp)
	movq	%rax, -128(%rbp)
	movb	$1, -25(%rbp)
	movq	-88(%rbp), %rax
	movq	%rax, -232(%rbp)
	movq	-96(%rbp), %rax
	movq	%rax, -240(%rbp)
	movq	-104(%rbp), %rax
	movq	%rax, -248(%rbp)
	movq	-112(%rbp), %rax
	movq	%rax, -256(%rbp)
	movq	-128(%rbp), %rax
	movq	-120(%rbp), %rcx
	movq	%rcx, -264(%rbp)
	movq	%rax, -272(%rbp)
Ltmp888:
	.loc	21 661 22
	movb	$0, -25(%rbp)
	movq	-232(%rbp), %rax
	movq	%rax, -40(%rbp)
	movq	-240(%rbp), %rax
	movq	%rax, -48(%rbp)
	movq	-248(%rbp), %rax
	movq	%rax, -56(%rbp)
	movq	-256(%rbp), %rax
	movq	%rax, -64(%rbp)
	movq	-272(%rbp), %rax
	movq	-264(%rbp), %rcx
	movq	%rcx, -72(%rbp)
	movq	%rax, -80(%rbp)
Ltmp873:
Ltmp889:
	.loc	21 662 13 is_stmt 1
	leaq	l___unnamed_4(%rip), %rdx
	leaq	-80(%rbp), %rsi
	movq	-368(%rbp), %rdi
	callq	__ZN4core3fmt8builders9DebugList5entry17h2dea26f6c644471aE
Ltmp874:
	jmp	LBB156_9
Ltmp890:
LBB156_9:
Ltmp876:
	.loc	21 0 13 is_stmt 0
	leaq	-80(%rbp), %rdi
	.loc	21 663 9 is_stmt 1
	callq	__ZN4core3ptr13drop_in_place17hcf7bad3fbc855889E
Ltmp877:
	jmp	LBB156_11
LBB156_10:
	leaq	-80(%rbp), %rdi
	callq	__ZN4core3ptr13drop_in_place17hcf7bad3fbc855889E
	jmp	LBB156_14
Ltmp891:
LBB156_11:
	.loc	21 663 9 is_stmt 0
	movb	$0, -25(%rbp)
	.loc	21 661 9 is_stmt 1
	jmp	LBB156_3
Ltmp892:
LBB156_12:
	.loc	21 0 9 is_stmt 0
	movq	-368(%rbp), %rax
	.loc	21 665 6 is_stmt 1
	addq	$368, %rsp
	popq	%rbp
	retq
LBB156_13:
Ltmp893:
	.loc	21 663 9
	movb	$0, -25(%rbp)
	leaq	-272(%rbp), %rdi
	callq	__ZN4core3ptr13drop_in_place17hcf7bad3fbc855889E
	jmp	LBB156_4
LBB156_14:
	testb	$1, -25(%rbp)
	jne	LBB156_13
	jmp	LBB156_4
Ltmp894:
LBB156_15:
Ltmp878:
	.loc	21 0 9 is_stmt 0
	movq	%rax, -16(%rbp)
	movl	%edx, -8(%rbp)
	jmp	LBB156_14
LBB156_16:
Ltmp875:
	movq	%rax, -16(%rbp)
	movl	%edx, -8(%rbp)
	jmp	LBB156_10
Lfunc_end156:
	.cfi_endproc
	.section	__TEXT,__gcc_except_tab
	.p2align	2
GCC_except_table156:
Lexception24:
	.byte	255
	.byte	255
	.byte	1
	.uleb128 Lcst_end24-Lcst_begin24
Lcst_begin24:
	.uleb128 Lfunc_begin156-Lfunc_begin156
	.uleb128 Ltmp871-Lfunc_begin156
	.byte	0
	.byte	0
	.uleb128 Ltmp871-Lfunc_begin156
	.uleb128 Ltmp872-Ltmp871
	.uleb128 Ltmp878-Lfunc_begin156
	.byte	0
	.uleb128 Ltmp872-Lfunc_begin156
	.uleb128 Ltmp873-Ltmp872
	.byte	0
	.byte	0
	.uleb128 Ltmp873-Lfunc_begin156
	.uleb128 Ltmp874-Ltmp873
	.uleb128 Ltmp875-Lfunc_begin156
	.byte	0
	.uleb128 Ltmp876-Lfunc_begin156
	.uleb128 Ltmp877-Ltmp876
	.uleb128 Ltmp878-Lfunc_begin156
	.byte	0
	.uleb128 Ltmp877-Lfunc_begin156
	.uleb128 Lfunc_end156-Ltmp877
	.byte	0
	.byte	0
Lcst_end24:
	.p2align	2

	.section	__TEXT,__text,regular,pure_instructions
	.p2align	4, 0x90
__ZN4core3fmt9Arguments16new_v1_formatted17h4ae8afad4bfe81aeE:
Lfunc_begin157:
	.loc	13 340 0 is_stmt 1
	.cfi_startproc
	pushq	%rbp
	.cfi_def_cfa_offset 16
	.cfi_offset %rbp, -16
	movq	%rsp, %rbp
	.cfi_def_cfa_register %rbp
	subq	$64, %rsp
	movq	%rdi, %rax
	movq	16(%rbp), %r10
	movq	%rsi, -48(%rbp)
	movq	%rdx, -40(%rbp)
	movq	%rcx, -32(%rbp)
	movq	%r8, -24(%rbp)
	movq	%r9, -16(%rbp)
	movq	%r10, -8(%rbp)
Ltmp895:
	.loc	13 345 34 prologue_end
	movq	%r9, -64(%rbp)
	movq	%r10, -56(%rbp)
	.loc	13 345 9 is_stmt 0
	movq	%rsi, (%rdi)
	movq	%rdx, 8(%rdi)
	movq	-64(%rbp), %rdx
	movq	-56(%rbp), %rsi
	movq	%rdx, 16(%rdi)
	movq	%rsi, 24(%rdi)
	movq	%rcx, 32(%rdi)
	movq	%r8, 40(%rdi)
	.loc	13 346 6 is_stmt 1
	addq	$64, %rsp
	popq	%rbp
	retq
Ltmp896:
Lfunc_end157:
	.cfi_endproc

	.p2align	4, 0x90
__ZN4core3fmt9Arguments6new_v117h7e04578d4a7b2a9fE:
Lfunc_begin158:
	.loc	13 327 0
	.cfi_startproc
	pushq	%rbp
	.cfi_def_cfa_offset 16
	.cfi_offset %rbp, -16
	movq	%rsp, %rbp
	.cfi_def_cfa_register %rbp
	subq	$48, %rsp
	movq	%rdi, %rax
	movq	%rsi, -32(%rbp)
	movq	%rdx, -24(%rbp)
	movq	%rcx, -16(%rbp)
	movq	%r8, -8(%rbp)
Ltmp897:
	.loc	13 328 34 prologue_end
	movq	$0, -48(%rbp)
	.loc	13 328 9 is_stmt 0
	movq	%rsi, (%rdi)
	movq	%rdx, 8(%rdi)
	movq	-48(%rbp), %rdx
	movq	-40(%rbp), %rsi
	movq	%rdx, 16(%rdi)
	movq	%rsi, 24(%rdi)
	movq	%rcx, 32(%rdi)
	movq	%r8, 40(%rdi)
	.loc	13 329 6 is_stmt 1
	addq	$48, %rsp
	popq	%rbp
	retq
Ltmp898:
Lfunc_end158:
	.cfi_endproc

	.globl	__ZN4core3mem11size_of_val17h507137f5355d0216E
	.p2align	4, 0x90
__ZN4core3mem11size_of_val17h507137f5355d0216E:
Lfunc_begin159:
	.file	22 "/rustc/6c8927b0cf80ceee19386026cf9d7fd4fd9d486f/src/libcore/mem/mod.rs"
	.loc	22 335 0
	.cfi_startproc
	pushq	%rbp
	.cfi_def_cfa_offset 16
	.cfi_offset %rbp, -16
	movq	%rsp, %rbp
	.cfi_def_cfa_register %rbp
	subq	$32, %rsp
	movq	%rdi, -24(%rbp)
	movq	%rsi, -16(%rbp)
Ltmp899:
	.loc	22 336 5 prologue_end
	shlq	$0, %rsi
	movq	%rsi, -8(%rbp)
	movq	-8(%rbp), %rax
	movq	%rax, -32(%rbp)
	.loc	22 0 5 is_stmt 0
	movq	-32(%rbp), %rax
	.loc	22 337 2 is_stmt 1
	addq	$32, %rsp
	popq	%rbp
	retq
Ltmp900:
Lfunc_end159:
	.cfi_endproc

	.globl	__ZN4core3mem12maybe_uninit20MaybeUninit$LT$T$GT$6zeroed17h0aabdcf26ac3e609E
	.p2align	4, 0x90
__ZN4core3mem12maybe_uninit20MaybeUninit$LT$T$GT$6zeroed17h0aabdcf26ac3e609E:
Lfunc_begin160:
	.file	23 "/rustc/6c8927b0cf80ceee19386026cf9d7fd4fd9d486f/src/libcore/mem/maybe_uninit.rs"
	.loc	23 355 0
	.cfi_startproc
	pushq	%rbp
	.cfi_def_cfa_offset 16
	.cfi_offset %rbp, -16
	movq	%rsp, %rbp
	.cfi_def_cfa_register %rbp
	subq	$48, %rsp
	movq	%rdi, %rax
Ltmp901:
	movq	%rdi, -24(%rbp)
Ltmp902:
	movq	%rax, -32(%rbp)
Ltmp903:
	movq	-24(%rbp), %rax
	movq	%rax, -16(%rbp)
	movq	%rax, -8(%rbp)
	movq	%rax, -40(%rbp)
Ltmp904:
	xorl	%esi, %esi
	movq	-40(%rbp), %rdi
Ltmp905:
	.loc	23 358 13 prologue_end
	movl	$1, %edx
	callq	__ZN4core3ptr7mut_ptr31_$LT$impl$u20$$BP$mut$u20$T$GT$11write_bytes17hc570a1a11725b574E
Ltmp906:
	.loc	23 0 13 is_stmt 0
	movq	-32(%rbp), %rax
	.loc	23 361 6 is_stmt 1
	addq	$48, %rsp
	popq	%rbp
	retq
Ltmp907:
Lfunc_end160:
	.cfi_endproc

	.globl	__ZN4core3mem13manually_drop21ManuallyDrop$LT$T$GT$4take17h13439e8866e80f5eE
	.p2align	4, 0x90
__ZN4core3mem13manually_drop21ManuallyDrop$LT$T$GT$4take17h13439e8866e80f5eE:
Lfunc_begin161:
	.loc	12 124 0
	.cfi_startproc
	pushq	%rbp
	.cfi_def_cfa_offset 16
	.cfi_offset %rbp, -16
	movq	%rsp, %rbp
	.cfi_def_cfa_register %rbp
	subq	$16, %rsp
	movq	%rdi, -8(%rbp)
Ltmp908:
	.loc	12 127 18 prologue_end
	callq	__ZN4core3ptr4read17hed2a3189fe44961fE
	movq	%rax, -16(%rbp)
	.loc	12 0 18 is_stmt 0
	movq	-16(%rbp), %rax
	.loc	12 128 6 is_stmt 1
	addq	$16, %rsp
	popq	%rbp
	retq
Ltmp909:
Lfunc_end161:
	.cfi_endproc

	.globl	__ZN4core3mem13manually_drop21ManuallyDrop$LT$T$GT$4take17h784d269a4a7f3809E
	.p2align	4, 0x90
__ZN4core3mem13manually_drop21ManuallyDrop$LT$T$GT$4take17h784d269a4a7f3809E:
Lfunc_begin162:
	.loc	12 124 0
	.cfi_startproc
	pushq	%rbp
	.cfi_def_cfa_offset 16
	.cfi_offset %rbp, -16
	movq	%rsp, %rbp
	.cfi_def_cfa_register %rbp
	subq	$16, %rsp
	movq	%rdi, -8(%rbp)
Ltmp910:
	.loc	12 127 18 prologue_end
	callq	__ZN4core3ptr4read17h220d17cc0b73610eE
	.loc	12 128 6
	addq	$16, %rsp
	popq	%rbp
	retq
Ltmp911:
Lfunc_end162:
	.cfi_endproc

	.globl	__ZN4core3mem4drop17hbf1c0b0d87784ee1E
	.p2align	4, 0x90
__ZN4core3mem4drop17hbf1c0b0d87784ee1E:
Lfunc_begin163:
	.loc	22 883 0
	.cfi_startproc
	pushq	%rbp
	.cfi_def_cfa_offset 16
	.cfi_offset %rbp, -16
	movq	%rsp, %rbp
	.cfi_def_cfa_register %rbp
	subq	$16, %rsp
	movq	%rdi, -8(%rbp)
	movq	-8(%rbp), %rax
	movq	%rax, -16(%rbp)
Ltmp912:
	.loc	22 883 24 prologue_end
	leaq	-16(%rbp), %rdi
Ltmp913:
	callq	__ZN4core3ptr13drop_in_place17hdc8342d895375eecE
Ltmp914:
	.loc	22 883 25 is_stmt 0
	addq	$16, %rsp
	popq	%rbp
	retq
Ltmp915:
Lfunc_end163:
	.cfi_endproc

	.globl	__ZN4core3mem4swap17h086e365a0f166685E
	.p2align	4, 0x90
__ZN4core3mem4swap17h086e365a0f166685E:
Lfunc_begin164:
	.loc	22 686 0 is_stmt 1
	.cfi_startproc
	pushq	%rbp
	.cfi_def_cfa_offset 16
	.cfi_offset %rbp, -16
	movq	%rsp, %rbp
	.cfi_def_cfa_register %rbp
	subq	$16, %rsp
	movq	%rdi, -16(%rbp)
	movq	%rsi, -8(%rbp)
Ltmp916:
	.loc	22 690 9 prologue_end
	callq	__ZN4core3ptr23swap_nonoverlapping_one17h53cef7b49230d0adE
	.loc	22 692 2
	addq	$16, %rsp
	popq	%rbp
	retq
Ltmp917:
Lfunc_end164:
	.cfi_endproc

	.globl	__ZN4core3mem4swap17h1f576eacd45a6a07E
	.p2align	4, 0x90
__ZN4core3mem4swap17h1f576eacd45a6a07E:
Lfunc_begin165:
	.loc	22 686 0
	.cfi_startproc
	pushq	%rbp
	.cfi_def_cfa_offset 16
	.cfi_offset %rbp, -16
	movq	%rsp, %rbp
	.cfi_def_cfa_register %rbp
	subq	$16, %rsp
	movq	%rdi, -16(%rbp)
	movq	%rsi, -8(%rbp)
Ltmp918:
	.loc	22 690 9 prologue_end
	callq	__ZN4core3ptr23swap_nonoverlapping_one17h30eec06682e2150fE
	.loc	22 692 2
	addq	$16, %rsp
	popq	%rbp
	retq
Ltmp919:
Lfunc_end165:
	.cfi_endproc

	.globl	__ZN4core3mem4swap17h2c73b874547048bdE
	.p2align	4, 0x90
__ZN4core3mem4swap17h2c73b874547048bdE:
Lfunc_begin166:
	.loc	22 686 0
	.cfi_startproc
	pushq	%rbp
	.cfi_def_cfa_offset 16
	.cfi_offset %rbp, -16
	movq	%rsp, %rbp
	.cfi_def_cfa_register %rbp
	subq	$16, %rsp
	movq	%rdi, -16(%rbp)
	movq	%rsi, -8(%rbp)
Ltmp920:
	.loc	22 690 9 prologue_end
	callq	__ZN4core3ptr23swap_nonoverlapping_one17hceb328db9c829302E
	.loc	22 692 2
	addq	$16, %rsp
	popq	%rbp
	retq
Ltmp921:
Lfunc_end166:
	.cfi_endproc

	.globl	__ZN4core3mem4swap17h2f03f0f2aebd9891E
	.p2align	4, 0x90
__ZN4core3mem4swap17h2f03f0f2aebd9891E:
Lfunc_begin167:
	.loc	22 686 0
	.cfi_startproc
	pushq	%rbp
	.cfi_def_cfa_offset 16
	.cfi_offset %rbp, -16
	movq	%rsp, %rbp
	.cfi_def_cfa_register %rbp
	subq	$16, %rsp
	movq	%rdi, -16(%rbp)
	movq	%rsi, -8(%rbp)
Ltmp922:
	.loc	22 690 9 prologue_end
	callq	__ZN4core3ptr23swap_nonoverlapping_one17h98dc60a3c78cf0ccE
	.loc	22 692 2
	addq	$16, %rsp
	popq	%rbp
	retq
Ltmp923:
Lfunc_end167:
	.cfi_endproc

	.globl	__ZN4core3mem4swap17h39df511470d34b03E
	.p2align	4, 0x90
__ZN4core3mem4swap17h39df511470d34b03E:
Lfunc_begin168:
	.loc	22 686 0
	.cfi_startproc
	pushq	%rbp
	.cfi_def_cfa_offset 16
	.cfi_offset %rbp, -16
	movq	%rsp, %rbp
	.cfi_def_cfa_register %rbp
	subq	$16, %rsp
	movq	%rdi, -16(%rbp)
	movq	%rsi, -8(%rbp)
Ltmp924:
	.loc	22 690 9 prologue_end
	callq	__ZN4core3ptr23swap_nonoverlapping_one17h3cae8c23283fdc26E
	.loc	22 692 2
	addq	$16, %rsp
	popq	%rbp
	retq
Ltmp925:
Lfunc_end168:
	.cfi_endproc

	.globl	__ZN4core3mem4swap17hda05c1ffacd55518E
	.p2align	4, 0x90
__ZN4core3mem4swap17hda05c1ffacd55518E:
Lfunc_begin169:
	.loc	22 686 0
	.cfi_startproc
	pushq	%rbp
	.cfi_def_cfa_offset 16
	.cfi_offset %rbp, -16
	movq	%rsp, %rbp
	.cfi_def_cfa_register %rbp
	subq	$16, %rsp
	movq	%rdi, -16(%rbp)
	movq	%rsi, -8(%rbp)
Ltmp926:
	.loc	22 690 9 prologue_end
	callq	__ZN4core3ptr23swap_nonoverlapping_one17h5591eb68782cf391E
	.loc	22 692 2
	addq	$16, %rsp
	popq	%rbp
	retq
Ltmp927:
Lfunc_end169:
	.cfi_endproc

	.globl	__ZN4core3mem4swap17hf5ac18e6df21889cE
	.p2align	4, 0x90
__ZN4core3mem4swap17hf5ac18e6df21889cE:
Lfunc_begin170:
	.loc	22 686 0
	.cfi_startproc
	pushq	%rbp
	.cfi_def_cfa_offset 16
	.cfi_offset %rbp, -16
	movq	%rsp, %rbp
	.cfi_def_cfa_register %rbp
	subq	$16, %rsp
	movq	%rdi, -16(%rbp)
	movq	%rsi, -8(%rbp)
Ltmp928:
	.loc	22 690 9 prologue_end
	callq	__ZN4core3ptr23swap_nonoverlapping_one17h63a697396dc2f684E
	.loc	22 692 2
	addq	$16, %rsp
	popq	%rbp
	retq
Ltmp929:
Lfunc_end170:
	.cfi_endproc

	.globl	__ZN4core3mem4swap17hfd0c31ac4b7625ecE
	.p2align	4, 0x90
__ZN4core3mem4swap17hfd0c31ac4b7625ecE:
Lfunc_begin171:
	.loc	22 686 0
	.cfi_startproc
	pushq	%rbp
	.cfi_def_cfa_offset 16
	.cfi_offset %rbp, -16
	movq	%rsp, %rbp
	.cfi_def_cfa_register %rbp
	subq	$16, %rsp
	movq	%rdi, -16(%rbp)
	movq	%rsi, -8(%rbp)
Ltmp930:
	.loc	22 690 9 prologue_end
	callq	__ZN4core3ptr23swap_nonoverlapping_one17hfd2e4f093f5da57dE
	.loc	22 692 2
	addq	$16, %rsp
	popq	%rbp
	retq
Ltmp931:
Lfunc_end171:
	.cfi_endproc

	.globl	__ZN4core3mem4take17h06651aa33c3a7cb6E
	.p2align	4, 0x90
__ZN4core3mem4take17h06651aa33c3a7cb6E:
Lfunc_begin172:
	.loc	22 750 0
	.cfi_startproc
	pushq	%rbp
	.cfi_def_cfa_offset 16
	.cfi_offset %rbp, -16
	movq	%rsp, %rbp
	.cfi_def_cfa_register %rbp
	subq	$48, %rsp
	movq	%rdi, -8(%rbp)
	movq	%rdi, -16(%rbp)
Ltmp932:
	.loc	22 751 19 prologue_end
	callq	__ZN72_$LT$core..option..Option$LT$T$GT$$u20$as$u20$core..default..Default$GT$7default17hfca7222f2b6b02e0E
	movq	%rax, -24(%rbp)
	movq	%rdx, -32(%rbp)
	.loc	22 0 19 is_stmt 0
	movq	-16(%rbp), %rdi
	movq	-24(%rbp), %rsi
	movq	-32(%rbp), %rdx
	.loc	22 751 5
	callq	__ZN4core3mem7replace17h452c47c51eabbe5aE
	movq	%rax, -40(%rbp)
	movq	%rdx, -48(%rbp)
	.loc	22 0 5
	movq	-40(%rbp), %rax
	movq	-48(%rbp), %rdx
	.loc	22 752 2 is_stmt 1
	addq	$48, %rsp
	popq	%rbp
	retq
Ltmp933:
Lfunc_end172:
	.cfi_endproc

	.globl	__ZN4core3mem4take17h1120448e0a9f7a4cE
	.p2align	4, 0x90
__ZN4core3mem4take17h1120448e0a9f7a4cE:
Lfunc_begin173:
	.loc	22 750 0
	.cfi_startproc
	pushq	%rbp
	.cfi_def_cfa_offset 16
	.cfi_offset %rbp, -16
	movq	%rsp, %rbp
	.cfi_def_cfa_register %rbp
	subq	$32, %rsp
	movq	%rdi, -8(%rbp)
	movq	%rdi, -16(%rbp)
Ltmp934:
	.loc	22 751 19 prologue_end
	callq	__ZN72_$LT$core..option..Option$LT$T$GT$$u20$as$u20$core..default..Default$GT$7default17hd6cff650f5be53a8E
	movb	%al, -17(%rbp)
	.loc	22 0 19 is_stmt 0
	movb	-17(%rbp), %al
	.loc	22 751 5
	movzbl	%al, %ecx
	andl	$1, %ecx
	movq	-16(%rbp), %rdi
	movl	%ecx, %esi
	callq	__ZN4core3mem7replace17h53412a75a0aa08a3E
	movb	%al, -18(%rbp)
	.loc	22 0 5
	movb	-18(%rbp), %al
	.loc	22 752 2 is_stmt 1
	andb	$1, %al
	movzbl	%al, %eax
	addq	$32, %rsp
	popq	%rbp
	retq
Ltmp935:
Lfunc_end173:
	.cfi_endproc

	.globl	__ZN4core3mem4take17h54bd92c7f0ed7b6aE
	.p2align	4, 0x90
__ZN4core3mem4take17h54bd92c7f0ed7b6aE:
Lfunc_begin174:
	.loc	22 750 0
	.cfi_startproc
	pushq	%rbp
	.cfi_def_cfa_offset 16
	.cfi_offset %rbp, -16
	movq	%rsp, %rbp
	.cfi_def_cfa_register %rbp
	subq	$48, %rsp
	movq	%rdi, -8(%rbp)
	movq	%rdi, -16(%rbp)
Ltmp936:
	.loc	22 751 19 prologue_end
	callq	__ZN72_$LT$core..option..Option$LT$T$GT$$u20$as$u20$core..default..Default$GT$7default17h89400ccc05b65b05E
	movq	%rax, -24(%rbp)
	movl	%edx, -28(%rbp)
	.loc	22 0 19 is_stmt 0
	movq	-16(%rbp), %rdi
	movq	-24(%rbp), %rsi
	movl	-28(%rbp), %edx
	.loc	22 751 5
	callq	__ZN4core3mem7replace17hcebf1cbc4e28768dE
	movq	%rax, -40(%rbp)
	movl	%edx, -44(%rbp)
	.loc	22 0 5
	movq	-40(%rbp), %rax
	movl	-44(%rbp), %edx
	.loc	22 752 2 is_stmt 1
	addq	$48, %rsp
	popq	%rbp
	retq
Ltmp937:
Lfunc_end174:
	.cfi_endproc

	.globl	__ZN4core3mem4take17hbd5bf2772ee17e01E
	.p2align	4, 0x90
__ZN4core3mem4take17hbd5bf2772ee17e01E:
Lfunc_begin175:
	.loc	22 750 0
	.cfi_startproc
	pushq	%rbp
	.cfi_def_cfa_offset 16
	.cfi_offset %rbp, -16
	movq	%rsp, %rbp
	.cfi_def_cfa_register %rbp
	subq	$48, %rsp
	movq	%rdi, -16(%rbp)
	movq	%rdi, -40(%rbp)
Ltmp938:
	.loc	22 751 19 prologue_end
	callq	__ZN72_$LT$core..option..Option$LT$T$GT$$u20$as$u20$core..default..Default$GT$7default17hdaa504b014009d21E
	movl	%eax, -8(%rbp)
	movl	-8(%rbp), %eax
	movl	%eax, -24(%rbp)
	.loc	22 751 5 is_stmt 0
	movl	-24(%rbp), %esi
	movq	-40(%rbp), %rdi
	callq	__ZN4core3mem7replace17h430186f5e7cd3ed9E
	movl	%eax, -4(%rbp)
	movl	-4(%rbp), %eax
	movl	%eax, -32(%rbp)
	.loc	22 752 2 is_stmt 1
	movl	-32(%rbp), %eax
	addq	$48, %rsp
	popq	%rbp
	retq
Ltmp939:
Lfunc_end175:
	.cfi_endproc

	.globl	__ZN4core3mem4take17hf8b7320ad98b92f1E
	.p2align	4, 0x90
__ZN4core3mem4take17hf8b7320ad98b92f1E:
Lfunc_begin176:
	.loc	22 750 0
	.cfi_startproc
	pushq	%rbp
	.cfi_def_cfa_offset 16
	.cfi_offset %rbp, -16
	movq	%rsp, %rbp
	.cfi_def_cfa_register %rbp
	subq	$32, %rsp
	movq	%rdi, -8(%rbp)
	movq	%rdi, -16(%rbp)
Ltmp940:
	.loc	22 751 19 prologue_end
	callq	__ZN72_$LT$core..option..Option$LT$T$GT$$u20$as$u20$core..default..Default$GT$7default17h95d79c89f55e0cc2E
	movl	%eax, -20(%rbp)
	.loc	22 0 19 is_stmt 0
	movq	-16(%rbp), %rdi
	movl	-20(%rbp), %esi
	.loc	22 751 5
	callq	__ZN4core3mem7replace17h333efb86ba3ad142E
	movl	%eax, -24(%rbp)
	.loc	22 0 5
	movl	-24(%rbp), %eax
	.loc	22 752 2 is_stmt 1
	addq	$32, %rsp
	popq	%rbp
	retq
Ltmp941:
Lfunc_end176:
	.cfi_endproc

	.globl	__ZN4core3mem6forget17hecc473b2857b9532E
	.p2align	4, 0x90
__ZN4core3mem6forget17hecc473b2857b9532E:
Lfunc_begin177:
	.loc	22 147 0
	.cfi_startproc
	pushq	%rbp
	.cfi_def_cfa_offset 16
	.cfi_offset %rbp, -16
	movq	%rsp, %rbp
	.cfi_def_cfa_register %rbp
	subq	$24, %rsp
	movq	%rdi, -24(%rbp)
	movq	%rdi, -8(%rbp)
Ltmp942:
	.loc	12 83 9 prologue_end
	movq	%rdi, -16(%rbp)
Ltmp943:
	.loc	22 149 2
	addq	$24, %rsp
	popq	%rbp
	retq
Ltmp944:
Lfunc_end177:
	.cfi_endproc

	.globl	__ZN4core3mem7replace17h06bbcd48de9d6066E
	.p2align	4, 0x90
__ZN4core3mem7replace17h06bbcd48de9d6066E:
Lfunc_begin178:
	.loc	22 814 0
	.cfi_startproc
	.cfi_personality 155, _rust_eh_personality
	.cfi_lsda 16, Lexception25
	pushq	%rbp
	.cfi_def_cfa_offset 16
	.cfi_offset %rbp, -16
	movq	%rsp, %rbp
	.cfi_def_cfa_register %rbp
	subq	$48, %rsp
	movq	%rdi, %rax
	movq	%rsi, -24(%rbp)
Ltmp945:
	movq	%rdi, -32(%rbp)
Ltmp948:
	.loc	22 815 5 prologue_end
	movq	%rsi, %rdi
	movq	%rdx, %rsi
	movq	%rdx, -40(%rbp)
Ltmp949:
	.loc	22 0 5 is_stmt 0
	movq	%rax, -48(%rbp)
	.loc	22 815 5
	callq	__ZN4core3mem4swap17h086e365a0f166685E
Ltmp946:
	jmp	LBB178_2
Ltmp950:
LBB178_1:
	.loc	22 814 1 is_stmt 1
	movq	-16(%rbp), %rdi
	callq	__Unwind_Resume
	ud2
Ltmp951:
LBB178_2:
	.loc	22 0 1 is_stmt 0
	movq	-40(%rbp), %rax
	.loc	22 816 5 is_stmt 1
	movq	(%rax), %rcx
	movq	-32(%rbp), %rdx
	movq	%rcx, (%rdx)
	movq	8(%rax), %rcx
	movq	%rcx, 8(%rdx)
	movq	16(%rax), %rcx
	movq	%rcx, 16(%rdx)
	movq	-48(%rbp), %rax
	.loc	22 817 2
	addq	$48, %rsp
	popq	%rbp
	retq
Ltmp952:
LBB178_3:
	.loc	22 0 2 is_stmt 0
	movq	-40(%rbp), %rdi
	.loc	22 817 1
	callq	__ZN4core3ptr13drop_in_place17h42b486c3cc742411E
	jmp	LBB178_1
Ltmp953:
LBB178_4:
Ltmp947:
	.loc	22 0 1
	movq	%rax, -16(%rbp)
	movl	%edx, -8(%rbp)
	jmp	LBB178_3
Lfunc_end178:
	.cfi_endproc
	.section	__TEXT,__gcc_except_tab
	.p2align	2
GCC_except_table178:
Lexception25:
	.byte	255
	.byte	255
	.byte	1
	.uleb128 Lcst_end25-Lcst_begin25
Lcst_begin25:
	.uleb128 Ltmp945-Lfunc_begin178
	.uleb128 Ltmp946-Ltmp945
	.uleb128 Ltmp947-Lfunc_begin178
	.byte	0
	.uleb128 Ltmp946-Lfunc_begin178
	.uleb128 Lfunc_end178-Ltmp946
	.byte	0
	.byte	0
Lcst_end25:
	.p2align	2

	.section	__TEXT,__text,regular,pure_instructions
	.globl	__ZN4core3mem7replace17h333efb86ba3ad142E
	.p2align	4, 0x90
__ZN4core3mem7replace17h333efb86ba3ad142E:
Lfunc_begin179:
	.loc	22 814 0 is_stmt 1
	.cfi_startproc
	.cfi_personality 155, _rust_eh_personality
	.cfi_lsda 16, Lexception26
	pushq	%rbp
	.cfi_def_cfa_offset 16
	.cfi_offset %rbp, -16
	movq	%rsp, %rbp
	.cfi_def_cfa_register %rbp
	subq	$32, %rsp
	movl	%esi, -28(%rbp)
	movq	%rdi, -24(%rbp)
Ltmp954:
	leaq	-28(%rbp), %rsi
Ltmp957:
	.loc	22 815 5 prologue_end
	callq	__ZN4core3mem4swap17hda05c1ffacd55518E
Ltmp955:
	jmp	LBB179_2
LBB179_1:
	.loc	22 814 1
	movq	-16(%rbp), %rdi
	callq	__Unwind_Resume
	ud2
LBB179_2:
	.loc	22 816 5
	movl	-28(%rbp), %eax
	.loc	22 817 2
	addq	$32, %rsp
	popq	%rbp
	retq
LBB179_3:
	.loc	22 817 1 is_stmt 0
	jmp	LBB179_1
Ltmp958:
LBB179_4:
Ltmp956:
	.loc	22 0 1
	movq	%rax, -16(%rbp)
	movl	%edx, -8(%rbp)
	jmp	LBB179_3
Lfunc_end179:
	.cfi_endproc
	.section	__TEXT,__gcc_except_tab
	.p2align	2
GCC_except_table179:
Lexception26:
	.byte	255
	.byte	255
	.byte	1
	.uleb128 Lcst_end26-Lcst_begin26
Lcst_begin26:
	.uleb128 Ltmp954-Lfunc_begin179
	.uleb128 Ltmp955-Ltmp954
	.uleb128 Ltmp956-Lfunc_begin179
	.byte	0
	.uleb128 Ltmp955-Lfunc_begin179
	.uleb128 Lfunc_end179-Ltmp955
	.byte	0
	.byte	0
Lcst_end26:
	.p2align	2

	.section	__TEXT,__text,regular,pure_instructions
	.globl	__ZN4core3mem7replace17h430186f5e7cd3ed9E
	.p2align	4, 0x90
__ZN4core3mem7replace17h430186f5e7cd3ed9E:
Lfunc_begin180:
	.loc	22 814 0 is_stmt 1
	.cfi_startproc
	.cfi_personality 155, _rust_eh_personality
	.cfi_lsda 16, Lexception27
	pushq	%rbp
	.cfi_def_cfa_offset 16
	.cfi_offset %rbp, -16
	movq	%rsp, %rbp
	.cfi_def_cfa_register %rbp
	subq	$48, %rsp
	movl	%esi, -36(%rbp)
	movl	-36(%rbp), %eax
	movl	%eax, -40(%rbp)
	movq	%rdi, -24(%rbp)
Ltmp959:
	leaq	-40(%rbp), %rsi
Ltmp962:
	.loc	22 815 5 prologue_end
	callq	__ZN4core3mem4swap17h1f576eacd45a6a07E
Ltmp960:
	jmp	LBB180_2
LBB180_1:
	.loc	22 814 1
	movq	-16(%rbp), %rdi
	callq	__Unwind_Resume
	ud2
LBB180_2:
	.loc	22 816 5
	movl	-40(%rbp), %eax
	movl	%eax, -32(%rbp)
	.loc	22 817 2
	movl	-32(%rbp), %eax
	addq	$48, %rsp
	popq	%rbp
	retq
LBB180_3:
	.loc	22 817 1 is_stmt 0
	leaq	-40(%rbp), %rdi
	callq	__ZN4core3ptr13drop_in_place17h9cc55ad69e96dfb6E
	jmp	LBB180_1
Ltmp963:
LBB180_4:
Ltmp961:
	.loc	22 0 1
	movq	%rax, -16(%rbp)
	movl	%edx, -8(%rbp)
	jmp	LBB180_3
Lfunc_end180:
	.cfi_endproc
	.section	__TEXT,__gcc_except_tab
	.p2align	2
GCC_except_table180:
Lexception27:
	.byte	255
	.byte	255
	.byte	1
	.uleb128 Lcst_end27-Lcst_begin27
Lcst_begin27:
	.uleb128 Ltmp959-Lfunc_begin180
	.uleb128 Ltmp960-Ltmp959
	.uleb128 Ltmp961-Lfunc_begin180
	.byte	0
	.uleb128 Ltmp960-Lfunc_begin180
	.uleb128 Lfunc_end180-Ltmp960
	.byte	0
	.byte	0
Lcst_end27:
	.p2align	2

	.section	__TEXT,__text,regular,pure_instructions
	.globl	__ZN4core3mem7replace17h452c47c51eabbe5aE
	.p2align	4, 0x90
__ZN4core3mem7replace17h452c47c51eabbe5aE:
Lfunc_begin181:
	.loc	22 814 0 is_stmt 1
	.cfi_startproc
	.cfi_personality 155, _rust_eh_personality
	.cfi_lsda 16, Lexception28
	pushq	%rbp
	.cfi_def_cfa_offset 16
	.cfi_offset %rbp, -16
	movq	%rsp, %rbp
	.cfi_def_cfa_register %rbp
	subq	$48, %rsp
	movq	%rsi, -40(%rbp)
	movq	%rdx, -32(%rbp)
	movq	%rdi, -24(%rbp)
Ltmp964:
	leaq	-40(%rbp), %rsi
Ltmp967:
	.loc	22 815 5 prologue_end
	callq	__ZN4core3mem4swap17h2f03f0f2aebd9891E
Ltmp965:
	jmp	LBB181_2
LBB181_1:
	.loc	22 814 1
	movq	-16(%rbp), %rdi
	callq	__Unwind_Resume
	ud2
LBB181_2:
	.loc	22 816 5
	movq	-40(%rbp), %rax
	movq	-32(%rbp), %rdx
	.loc	22 817 2
	addq	$48, %rsp
	popq	%rbp
	retq
LBB181_3:
	.loc	22 817 1 is_stmt 0
	jmp	LBB181_1
Ltmp968:
LBB181_4:
Ltmp966:
	.loc	22 0 1
	movq	%rax, -16(%rbp)
	movl	%edx, -8(%rbp)
	jmp	LBB181_3
Lfunc_end181:
	.cfi_endproc
	.section	__TEXT,__gcc_except_tab
	.p2align	2
GCC_except_table181:
Lexception28:
	.byte	255
	.byte	255
	.byte	1
	.uleb128 Lcst_end28-Lcst_begin28
Lcst_begin28:
	.uleb128 Ltmp964-Lfunc_begin181
	.uleb128 Ltmp965-Ltmp964
	.uleb128 Ltmp966-Lfunc_begin181
	.byte	0
	.uleb128 Ltmp965-Lfunc_begin181
	.uleb128 Lfunc_end181-Ltmp965
	.byte	0
	.byte	0
Lcst_end28:
	.p2align	2

	.section	__TEXT,__text,regular,pure_instructions
	.globl	__ZN4core3mem7replace17h53412a75a0aa08a3E
	.p2align	4, 0x90
__ZN4core3mem7replace17h53412a75a0aa08a3E:
Lfunc_begin182:
	.loc	22 814 0 is_stmt 1
	.cfi_startproc
	.cfi_personality 155, _rust_eh_personality
	.cfi_lsda 16, Lexception29
	pushq	%rbp
	.cfi_def_cfa_offset 16
	.cfi_offset %rbp, -16
	movq	%rsp, %rbp
	.cfi_def_cfa_register %rbp
	subq	$32, %rsp
	andb	$1, %sil
	movb	%sil, -25(%rbp)
	movq	%rdi, -24(%rbp)
Ltmp969:
	leaq	-25(%rbp), %rsi
Ltmp972:
	.loc	22 815 5 prologue_end
	callq	__ZN4core3mem4swap17h39df511470d34b03E
Ltmp970:
	jmp	LBB182_2
LBB182_1:
	.loc	22 814 1
	movq	-16(%rbp), %rdi
	callq	__Unwind_Resume
	ud2
LBB182_2:
	.loc	22 816 5
	movb	-25(%rbp), %al
	.loc	22 817 2
	andb	$1, %al
	movzbl	%al, %eax
	addq	$32, %rsp
	popq	%rbp
	retq
LBB182_3:
	.loc	22 817 1 is_stmt 0
	jmp	LBB182_1
Ltmp973:
LBB182_4:
Ltmp971:
	.loc	22 0 1
	movq	%rax, -16(%rbp)
	movl	%edx, -8(%rbp)
	jmp	LBB182_3
Lfunc_end182:
	.cfi_endproc
	.section	__TEXT,__gcc_except_tab
	.p2align	2
GCC_except_table182:
Lexception29:
	.byte	255
	.byte	255
	.byte	1
	.uleb128 Lcst_end29-Lcst_begin29
Lcst_begin29:
	.uleb128 Ltmp969-Lfunc_begin182
	.uleb128 Ltmp970-Ltmp969
	.uleb128 Ltmp971-Lfunc_begin182
	.byte	0
	.uleb128 Ltmp970-Lfunc_begin182
	.uleb128 Lfunc_end182-Ltmp970
	.byte	0
	.byte	0
Lcst_end29:
	.p2align	2

	.section	__TEXT,__text,regular,pure_instructions
	.globl	__ZN4core3mem7replace17h5d5ae1c9d9f60dd7E
	.p2align	4, 0x90
__ZN4core3mem7replace17h5d5ae1c9d9f60dd7E:
Lfunc_begin183:
	.loc	22 814 0 is_stmt 1
	.cfi_startproc
	.cfi_personality 155, _rust_eh_personality
	.cfi_lsda 16, Lexception30
	pushq	%rbp
	.cfi_def_cfa_offset 16
	.cfi_offset %rbp, -16
	movq	%rsp, %rbp
	.cfi_def_cfa_register %rbp
	subq	$32, %rsp
	movq	%rsi, -32(%rbp)
	movq	%rdi, -24(%rbp)
Ltmp974:
	leaq	-32(%rbp), %rsi
Ltmp977:
	.loc	22 815 5 prologue_end
	callq	__ZN4core3mem4swap17hf5ac18e6df21889cE
Ltmp975:
	jmp	LBB183_2
LBB183_1:
	.loc	22 814 1
	movq	-16(%rbp), %rdi
	callq	__Unwind_Resume
	ud2
LBB183_2:
	.loc	22 816 5
	movq	-32(%rbp), %rax
	.loc	22 817 2
	addq	$32, %rsp
	popq	%rbp
	retq
LBB183_3:
	.loc	22 817 1 is_stmt 0
	jmp	LBB183_1
Ltmp978:
LBB183_4:
Ltmp976:
	.loc	22 0 1
	movq	%rax, -16(%rbp)
	movl	%edx, -8(%rbp)
	jmp	LBB183_3
Lfunc_end183:
	.cfi_endproc
	.section	__TEXT,__gcc_except_tab
	.p2align	2
GCC_except_table183:
Lexception30:
	.byte	255
	.byte	255
	.byte	1
	.uleb128 Lcst_end30-Lcst_begin30
Lcst_begin30:
	.uleb128 Ltmp974-Lfunc_begin183
	.uleb128 Ltmp975-Ltmp974
	.uleb128 Ltmp976-Lfunc_begin183
	.byte	0
	.uleb128 Ltmp975-Lfunc_begin183
	.uleb128 Lfunc_end183-Ltmp975
	.byte	0
	.byte	0
Lcst_end30:
	.p2align	2

	.section	__TEXT,__text,regular,pure_instructions
	.globl	__ZN4core3mem7replace17hb4e2acb5338f7514E
	.p2align	4, 0x90
__ZN4core3mem7replace17hb4e2acb5338f7514E:
Lfunc_begin184:
	.loc	22 814 0 is_stmt 1
	.cfi_startproc
	.cfi_personality 155, _rust_eh_personality
	.cfi_lsda 16, Lexception31
	pushq	%rbp
	.cfi_def_cfa_offset 16
	.cfi_offset %rbp, -16
	movq	%rsp, %rbp
	.cfi_def_cfa_register %rbp
	subq	$48, %rsp
	movl	%esi, -36(%rbp)
	movl	-36(%rbp), %eax
	movl	%eax, -40(%rbp)
	movq	%rdi, -24(%rbp)
Ltmp979:
	leaq	-40(%rbp), %rsi
Ltmp982:
	.loc	22 815 5 prologue_end
	callq	__ZN4core3mem4swap17hfd0c31ac4b7625ecE
Ltmp980:
	jmp	LBB184_2
LBB184_1:
	.loc	22 814 1
	movq	-16(%rbp), %rdi
	callq	__Unwind_Resume
	ud2
LBB184_2:
	.loc	22 816 5
	movl	-40(%rbp), %eax
	movl	%eax, -32(%rbp)
	.loc	22 817 2
	movl	-32(%rbp), %eax
	addq	$48, %rsp
	popq	%rbp
	retq
LBB184_3:
	.loc	22 817 1 is_stmt 0
	leaq	-40(%rbp), %rdi
	callq	__ZN4core3ptr13drop_in_place17had009a0e6ed3f2eeE
	jmp	LBB184_1
Ltmp983:
LBB184_4:
Ltmp981:
	.loc	22 0 1
	movq	%rax, -16(%rbp)
	movl	%edx, -8(%rbp)
	jmp	LBB184_3
Lfunc_end184:
	.cfi_endproc
	.section	__TEXT,__gcc_except_tab
	.p2align	2
GCC_except_table184:
Lexception31:
	.byte	255
	.byte	255
	.byte	1
	.uleb128 Lcst_end31-Lcst_begin31
Lcst_begin31:
	.uleb128 Ltmp979-Lfunc_begin184
	.uleb128 Ltmp980-Ltmp979
	.uleb128 Ltmp981-Lfunc_begin184
	.byte	0
	.uleb128 Ltmp980-Lfunc_begin184
	.uleb128 Lfunc_end184-Ltmp980
	.byte	0
	.byte	0
Lcst_end31:
	.p2align	2

	.section	__TEXT,__text,regular,pure_instructions
	.globl	__ZN4core3mem7replace17hcebf1cbc4e28768dE
	.p2align	4, 0x90
__ZN4core3mem7replace17hcebf1cbc4e28768dE:
Lfunc_begin185:
	.loc	22 814 0 is_stmt 1
	.cfi_startproc
	.cfi_personality 155, _rust_eh_personality
	.cfi_lsda 16, Lexception32
	pushq	%rbp
	.cfi_def_cfa_offset 16
	.cfi_offset %rbp, -16
	movq	%rsp, %rbp
	.cfi_def_cfa_register %rbp
	subq	$48, %rsp
	movq	%rsi, -40(%rbp)
	movl	%edx, -32(%rbp)
	movq	%rdi, -24(%rbp)
Ltmp984:
	leaq	-40(%rbp), %rsi
Ltmp987:
	.loc	22 815 5 prologue_end
	callq	__ZN4core3mem4swap17h2c73b874547048bdE
Ltmp985:
	jmp	LBB185_2
LBB185_1:
	.loc	22 814 1
	movq	-16(%rbp), %rdi
	callq	__Unwind_Resume
	ud2
LBB185_2:
	.loc	22 816 5
	movq	-40(%rbp), %rax
	movl	-32(%rbp), %edx
	.loc	22 817 2
	addq	$48, %rsp
	popq	%rbp
	retq
LBB185_3:
	.loc	22 817 1 is_stmt 0
	jmp	LBB185_1
Ltmp988:
LBB185_4:
Ltmp986:
	.loc	22 0 1
	movq	%rax, -16(%rbp)
	movl	%edx, -8(%rbp)
	jmp	LBB185_3
Lfunc_end185:
	.cfi_endproc
	.section	__TEXT,__gcc_except_tab
	.p2align	2
GCC_except_table185:
Lexception32:
	.byte	255
	.byte	255
	.byte	1
	.uleb128 Lcst_end32-Lcst_begin32
Lcst_begin32:
	.uleb128 Ltmp984-Lfunc_begin185
	.uleb128 Ltmp985-Ltmp984
	.uleb128 Ltmp986-Lfunc_begin185
	.byte	0
	.uleb128 Ltmp985-Lfunc_begin185
	.uleb128 Lfunc_end185-Ltmp985
	.byte	0
	.byte	0
Lcst_end32:
	.p2align	2

	.section	__TEXT,__text,regular,pure_instructions
	.p2align	4, 0x90
__ZN4core3num12NonZeroUsize13new_unchecked17h0bdd92cc16aaa066E:
Lfunc_begin186:
	.file	24 "/rustc/6c8927b0cf80ceee19386026cf9d7fd4fd9d486f/src/libcore/num/mod.rs"
	.loc	24 83 0 is_stmt 1
	.cfi_startproc
	pushq	%rbp
	.cfi_def_cfa_offset 16
	.cfi_offset %rbp, -16
	movq	%rsp, %rbp
	.cfi_def_cfa_register %rbp
	subq	$16, %rsp
	movq	%rdi, -8(%rbp)
Ltmp989:
	.loc	24 85 30 prologue_end
	movq	%rdi, -16(%rbp)
	.loc	24 86 18
	movq	-16(%rbp), %rax
	addq	$16, %rsp
	popq	%rbp
	retq
Ltmp990:
Lfunc_end186:
	.cfi_endproc

	.p2align	4, 0x90
__ZN4core3num12NonZeroUsize3get17hfc2a55642cba87cdE:
Lfunc_begin187:
	.loc	24 105 0
	.cfi_startproc
	pushq	%rbp
	.cfi_def_cfa_offset 16
	.cfi_offset %rbp, -16
	movq	%rsp, %rbp
	.cfi_def_cfa_register %rbp
	pushq	%rax
	movq	%rdi, -8(%rbp)
Ltmp991:
	.loc	24 107 18 prologue_end
	movq	%rdi, %rax
	addq	$8, %rsp
	popq	%rbp
	retq
Ltmp992:
Lfunc_end187:
	.cfi_endproc

	.p2align	4, 0x90
__ZN4core3num21_$LT$impl$u20$u32$GT$13leading_zeros17h8adfb811eac448a2E:
Lfunc_begin188:
	.loc	24 2674 0
	.cfi_startproc
	pushq	%rbp
	.cfi_def_cfa_offset 16
	.cfi_offset %rbp, -16
	movq	%rsp, %rbp
	.cfi_def_cfa_register %rbp
	subq	$12, %rsp
	movl	%edi, -8(%rbp)
Ltmp993:
	.loc	24 2675 17 prologue_end
	bsrl	%edi, %eax
	movl	$63, %ecx
	cmovel	%ecx, %eax
	xorl	$31, %eax
	movl	%eax, -4(%rbp)
	movl	-4(%rbp), %eax
	movl	%eax, -12(%rbp)
	.loc	24 0 17 is_stmt 0
	movl	-12(%rbp), %eax
	.loc	24 2676 14 is_stmt 1
	addq	$12, %rsp
	popq	%rbp
	retq
Ltmp994:
Lfunc_end188:
	.cfi_endproc

	.p2align	4, 0x90
__ZN4core3num23_$LT$impl$u20$usize$GT$10count_ones17h12a0acf5ee2083f6E:
Lfunc_begin189:
	.loc	24 2636 0
	.cfi_startproc
	pushq	%rbp
	.cfi_def_cfa_offset 16
	.cfi_offset %rbp, -16
	movq	%rsp, %rbp
	.cfi_def_cfa_register %rbp
	subq	$24, %rsp
	movq	%rdi, -16(%rbp)
Ltmp995:
	.loc	24 2637 17 prologue_end
	movq	%rdi, %rax
	shrq	%rax
	movabsq	$6148914691236517205, %rcx
	andq	%rcx, %rax
	subq	%rax, %rdi
	movabsq	$3689348814741910323, %rax
	movq	%rdi, %rcx
	andq	%rax, %rcx
	shrq	$2, %rdi
	andq	%rax, %rdi
	addq	%rdi, %rcx
	movq	%rcx, %rax
	shrq	$4, %rax
	addq	%rax, %rcx
	movabsq	$1085102592571150095, %rax
	andq	%rax, %rcx
	movabsq	$72340172838076673, %rax
	imulq	%rax, %rcx
	shrq	$56, %rcx
	movq	%rcx, -8(%rbp)
	movq	-8(%rbp), %rax
	movq	%rax, -24(%rbp)
	.loc	24 0 17 is_stmt 0
	movq	-24(%rbp), %rax
	.loc	24 2637 17
	movl	%eax, %ecx
	.loc	24 2638 14 is_stmt 1
	movl	%ecx, %eax
	addq	$24, %rsp
	popq	%rbp
	retq
Ltmp996:
Lfunc_end189:
	.cfi_endproc

	.p2align	4, 0x90
__ZN4core3num23_$LT$impl$u20$usize$GT$11checked_add17h24d271e38d9b33b7E:
Lfunc_begin190:
	.loc	24 2992 0
	.cfi_startproc
	pushq	%rbp
	.cfi_def_cfa_offset 16
	.cfi_offset %rbp, -16
	movq	%rsp, %rbp
	.cfi_def_cfa_register %rbp
	subq	$64, %rsp
	movq	%rdi, -32(%rbp)
	movq	%rsi, -24(%rbp)
Ltmp997:
	.loc	24 2993 30 prologue_end
	callq	__ZN4core3num23_$LT$impl$u20$usize$GT$15overflowing_add17hf5d7de2e5f959353E
	movq	%rax, -56(%rbp)
	movb	%dl, -57(%rbp)
	.loc	24 0 30 is_stmt 0
	movq	-56(%rbp), %rax
	.loc	24 2993 22
	movq	%rax, -16(%rbp)
	movb	-57(%rbp), %cl
	.loc	24 2993 25
	andb	$1, %cl
	movb	%cl, -2(%rbp)
	movb	-57(%rbp), %cl
Ltmp998:
	.loc	24 27 9 is_stmt 1
	andb	$1, %cl
	movb	%cl, -1(%rbp)
	movb	-1(%rbp), %cl
	movb	%cl, -58(%rbp)
	.loc	24 0 9 is_stmt 0
	movb	-58(%rbp), %al
	.loc	24 2994 17 is_stmt 1
	testb	$1, %al
	jne	LBB190_4
	jmp	LBB190_3
LBB190_3:
	.loc	24 0 17 is_stmt 0
	movq	-56(%rbp), %rax
	.loc	24 2994 46
	movq	%rax, -40(%rbp)
	movq	$1, -48(%rbp)
	.loc	24 2994 17
	jmp	LBB190_5
LBB190_4:
	.loc	24 2994 34
	movq	$0, -48(%rbp)
Ltmp999:
LBB190_5:
	.loc	24 2995 14 is_stmt 1
	movq	-48(%rbp), %rax
	movq	-40(%rbp), %rdx
	addq	$64, %rsp
	popq	%rbp
	retq
Ltmp1000:
Lfunc_end190:
	.cfi_endproc

	.p2align	4, 0x90
__ZN4core3num23_$LT$impl$u20$usize$GT$11checked_mul17h332939e891a17394E:
Lfunc_begin191:
	.loc	24 3076 0
	.cfi_startproc
	pushq	%rbp
	.cfi_def_cfa_offset 16
	.cfi_offset %rbp, -16
	movq	%rsp, %rbp
	.cfi_def_cfa_register %rbp
	subq	$64, %rsp
	movq	%rdi, -32(%rbp)
	movq	%rsi, -24(%rbp)
Ltmp1001:
	.loc	24 3077 30 prologue_end
	callq	__ZN4core3num23_$LT$impl$u20$usize$GT$15overflowing_mul17h0716134d55eb7472E
	movq	%rax, -56(%rbp)
	movb	%dl, -57(%rbp)
	.loc	24 0 30 is_stmt 0
	movq	-56(%rbp), %rax
	.loc	24 3077 22
	movq	%rax, -16(%rbp)
	movb	-57(%rbp), %cl
	.loc	24 3077 25
	andb	$1, %cl
	movb	%cl, -2(%rbp)
	movb	-57(%rbp), %cl
Ltmp1002:
	.loc	24 27 9 is_stmt 1
	andb	$1, %cl
	movb	%cl, -1(%rbp)
	movb	-1(%rbp), %cl
	movb	%cl, -58(%rbp)
	.loc	24 0 9 is_stmt 0
	movb	-58(%rbp), %al
	.loc	24 3078 17 is_stmt 1
	testb	$1, %al
	jne	LBB191_4
	jmp	LBB191_3
LBB191_3:
	.loc	24 0 17 is_stmt 0
	movq	-56(%rbp), %rax
	.loc	24 3078 46
	movq	%rax, -40(%rbp)
	movq	$1, -48(%rbp)
	.loc	24 3078 17
	jmp	LBB191_5
LBB191_4:
	.loc	24 3078 34
	movq	$0, -48(%rbp)
Ltmp1003:
LBB191_5:
	.loc	24 3079 14 is_stmt 1
	movq	-48(%rbp), %rax
	movq	-40(%rbp), %rdx
	addq	$64, %rsp
	popq	%rbp
	retq
Ltmp1004:
Lfunc_end191:
	.cfi_endproc

	.p2align	4, 0x90
__ZN4core3num23_$LT$impl$u20$usize$GT$12wrapping_add17had5a62059a74ecfeE:
Lfunc_begin192:
	.loc	24 3438 0
	.cfi_startproc
	pushq	%rbp
	.cfi_def_cfa_offset 16
	.cfi_offset %rbp, -16
	movq	%rsp, %rbp
	.cfi_def_cfa_register %rbp
	subq	$32, %rsp
	movq	%rdi, -24(%rbp)
	movq	%rsi, -16(%rbp)
Ltmp1005:
	.loc	24 3439 17 prologue_end
	addq	%rsi, %rdi
	movq	%rdi, -8(%rbp)
	movq	-8(%rbp), %rax
	movq	%rax, -32(%rbp)
	.loc	24 0 17 is_stmt 0
	movq	-32(%rbp), %rax
	.loc	24 3440 14 is_stmt 1
	addq	$32, %rsp
	popq	%rbp
	retq
Ltmp1006:
Lfunc_end192:
	.cfi_endproc

	.p2align	4, 0x90
__ZN4core3num23_$LT$impl$u20$usize$GT$12wrapping_sub17hbd7ad0e6690ec5c9E:
Lfunc_begin193:
	.loc	24 3461 0
	.cfi_startproc
	pushq	%rbp
	.cfi_def_cfa_offset 16
	.cfi_offset %rbp, -16
	movq	%rsp, %rbp
	.cfi_def_cfa_register %rbp
	subq	$32, %rsp
	movq	%rdi, -24(%rbp)
	movq	%rsi, -16(%rbp)
Ltmp1007:
	.loc	24 3462 17 prologue_end
	subq	%rsi, %rdi
	movq	%rdi, -8(%rbp)
	movq	-8(%rbp), %rax
	movq	%rax, -32(%rbp)
	.loc	24 0 17 is_stmt 0
	movq	-32(%rbp), %rax
	.loc	24 3463 14 is_stmt 1
	addq	$32, %rsp
	popq	%rbp
	retq
Ltmp1008:
Lfunc_end193:
	.cfi_endproc

	.p2align	4, 0x90
__ZN4core3num23_$LT$impl$u20$usize$GT$13unchecked_add17hf91afcfeaa51b25fE:
Lfunc_begin194:
	.loc	24 3010 0
	.cfi_startproc
	pushq	%rbp
	.cfi_def_cfa_offset 16
	.cfi_offset %rbp, -16
	movq	%rsp, %rbp
	.cfi_def_cfa_register %rbp
	subq	$32, %rsp
	movq	%rdi, -24(%rbp)
	movq	%rsi, -16(%rbp)
Ltmp1009:
	.loc	24 3013 26 prologue_end
	addq	%rsi, %rdi
	movq	%rdi, -8(%rbp)
	movq	-8(%rbp), %rax
	movq	%rax, -32(%rbp)
	.loc	24 0 26 is_stmt 0
	movq	-32(%rbp), %rax
	.loc	24 3014 14 is_stmt 1
	addq	$32, %rsp
	popq	%rbp
	retq
Ltmp1010:
Lfunc_end194:
	.cfi_endproc

	.p2align	4, 0x90
__ZN4core3num23_$LT$impl$u20$usize$GT$13unchecked_sub17hb5cefbe4443b748cE:
Lfunc_begin195:
	.loc	24 3052 0
	.cfi_startproc
	pushq	%rbp
	.cfi_def_cfa_offset 16
	.cfi_offset %rbp, -16
	movq	%rsp, %rbp
	.cfi_def_cfa_register %rbp
	subq	$32, %rsp
	movq	%rdi, -24(%rbp)
	movq	%rsi, -16(%rbp)
Ltmp1011:
	.loc	24 3055 26 prologue_end
	subq	%rsi, %rdi
	movq	%rdi, -8(%rbp)
	movq	-8(%rbp), %rax
	movq	%rax, -32(%rbp)
	.loc	24 0 26 is_stmt 0
	movq	-32(%rbp), %rax
	.loc	24 3056 14 is_stmt 1
	addq	$32, %rsp
	popq	%rbp
	retq
Ltmp1012:
Lfunc_end195:
	.cfi_endproc

	.p2align	4, 0x90
__ZN4core3num23_$LT$impl$u20$usize$GT$14saturating_add17hc887ad4b404c528aE:
Lfunc_begin196:
	.loc	24 3339 0
	.cfi_startproc
	pushq	%rbp
	.cfi_def_cfa_offset 16
	.cfi_offset %rbp, -16
	movq	%rsp, %rbp
	.cfi_def_cfa_register %rbp
	subq	$32, %rsp
	movq	%rdi, -24(%rbp)
	movq	%rsi, -16(%rbp)
Ltmp1013:
	.loc	24 3340 17 prologue_end
	addq	%rsi, %rdi
	movq	$-1, %rax
	cmovbq	%rax, %rdi
	movq	%rdi, -8(%rbp)
	movq	-8(%rbp), %rax
	movq	%rax, -32(%rbp)
	.loc	24 0 17 is_stmt 0
	movq	-32(%rbp), %rax
	.loc	24 3341 14 is_stmt 1
	addq	$32, %rsp
	popq	%rbp
	retq
Ltmp1014:
Lfunc_end196:
	.cfi_endproc

	.p2align	4, 0x90
__ZN4core3num23_$LT$impl$u20$usize$GT$15is_power_of_two17hc6c96e147d555b21E:
Lfunc_begin197:
	.loc	24 4176 0
	.cfi_startproc
	pushq	%rbp
	.cfi_def_cfa_offset 16
	.cfi_offset %rbp, -16
	movq	%rsp, %rbp
	.cfi_def_cfa_register %rbp
	subq	$16, %rsp
	movq	%rdi, -8(%rbp)
Ltmp1015:
	.loc	24 4177 17 prologue_end
	callq	__ZN4core3num23_$LT$impl$u20$usize$GT$10count_ones17h12a0acf5ee2083f6E
	movl	%eax, -12(%rbp)
	.loc	24 0 17 is_stmt 0
	movl	-12(%rbp), %eax
	.loc	24 4177 17
	cmpl	$1, %eax
	sete	%cl
	.loc	24 4178 14 is_stmt 1
	andb	$1, %cl
	movzbl	%cl, %eax
	addq	$16, %rsp
	popq	%rbp
	retq
Ltmp1016:
Lfunc_end197:
	.cfi_endproc

	.p2align	4, 0x90
__ZN4core3num23_$LT$impl$u20$usize$GT$15overflowing_add17hf5d7de2e5f959353E:
Lfunc_begin198:
	.loc	24 3750 0
	.cfi_startproc
	pushq	%rbp
	.cfi_def_cfa_offset 16
	.cfi_offset %rbp, -16
	movq	%rsp, %rbp
	.cfi_def_cfa_register %rbp
	subq	$80, %rsp
	movq	%rdi, -48(%rbp)
	movq	%rsi, -40(%rbp)
Ltmp1017:
	.loc	24 3751 30 prologue_end
	addq	%rsi, %rdi
	setb	%al
	andb	$1, %al
	movq	%rdi, -32(%rbp)
	movb	%al, -24(%rbp)
	movq	-32(%rbp), %rcx
	movb	-24(%rbp), %al
	movq	%rcx, -72(%rbp)
	movb	%al, -73(%rbp)
	.loc	24 0 30 is_stmt 0
	movq	-72(%rbp), %rax
	.loc	24 3751 22
	movq	%rax, -16(%rbp)
	movb	-73(%rbp), %cl
	.loc	24 3751 25
	andb	$1, %cl
	movb	%cl, -1(%rbp)
Ltmp1018:
	.loc	24 3752 17 is_stmt 1
	movq	%rax, -64(%rbp)
	movb	%cl, -56(%rbp)
Ltmp1019:
	.loc	24 3753 14
	movq	-64(%rbp), %rax
	movb	-56(%rbp), %dl
	addq	$80, %rsp
	popq	%rbp
	retq
Ltmp1020:
Lfunc_end198:
	.cfi_endproc

	.p2align	4, 0x90
__ZN4core3num23_$LT$impl$u20$usize$GT$15overflowing_mul17h0716134d55eb7472E:
Lfunc_begin199:
	.loc	24 3806 0
	.cfi_startproc
	pushq	%rbp
	.cfi_def_cfa_offset 16
	.cfi_offset %rbp, -16
	movq	%rsp, %rbp
	.cfi_def_cfa_register %rbp
	subq	$80, %rsp
	movq	%rdi, -48(%rbp)
	movq	%rsi, -40(%rbp)
Ltmp1021:
	.loc	24 3807 26 prologue_end
	movq	%rdi, %rax
	mulq	%rsi
	seto	%cl
	andb	$1, %cl
	movq	%rax, -32(%rbp)
	movb	%cl, -24(%rbp)
	movq	-32(%rbp), %rax
	movb	-24(%rbp), %cl
	movq	%rax, -72(%rbp)
	movb	%cl, -73(%rbp)
	.loc	24 0 26 is_stmt 0
	movq	-72(%rbp), %rax
	.loc	24 3807 18
	movq	%rax, -16(%rbp)
	movb	-73(%rbp), %cl
	.loc	24 3807 21
	andb	$1, %cl
	movb	%cl, -1(%rbp)
Ltmp1022:
	.loc	24 3808 13 is_stmt 1
	movq	%rax, -64(%rbp)
	movb	%cl, -56(%rbp)
Ltmp1023:
	.loc	24 3809 10
	movq	-64(%rbp), %rax
	movb	-56(%rbp), %dl
	addq	$80, %rsp
	popq	%rbp
	retq
Ltmp1024:
Lfunc_end199:
	.cfi_endproc

	.p2align	4, 0x90
__ZN4core3ops8function5FnMut8call_mut17h13702744384b5bb7E:
Lfunc_begin200:
	.file	25 "/rustc/6c8927b0cf80ceee19386026cf9d7fd4fd9d486f/src/libcore/ops/function.rs"
	.loc	25 154 0
	.cfi_startproc
	pushq	%rbp
	.cfi_def_cfa_offset 16
	.cfi_offset %rbp, -16
	movq	%rsp, %rbp
	.cfi_def_cfa_register %rbp
	subq	$32, %rsp
	movq	%rdi, %rax
	movq	%rdx, -16(%rbp)
	movq	%rsi, -8(%rbp)
Ltmp1025:
	.loc	25 154 5 prologue_end
	movq	-16(%rbp), %rsi
	movq	%rax, -24(%rbp)
	callq	__ZN61_$LT$proc_macro2..TokenTree$u20$as$u20$core..clone..Clone$GT$5clone17hfb0ec312b3375322E
	.loc	25 0 5 is_stmt 0
	movq	-24(%rbp), %rax
	.loc	25 154 5
	addq	$32, %rsp
	popq	%rbp
	retq
Ltmp1026:
Lfunc_end200:
	.cfi_endproc

	.p2align	4, 0x90
__ZN4core3ops8function5FnMut8call_mut17h4d32010d58c36767E:
Lfunc_begin201:
	.loc	25 154 0 is_stmt 1
	.cfi_startproc
	pushq	%rbp
	.cfi_def_cfa_offset 16
	.cfi_offset %rbp, -16
	movq	%rsp, %rbp
	.cfi_def_cfa_register %rbp
	subq	$32, %rsp
	movq	%rsi, -32(%rbp)
	movq	%rdi, -16(%rbp)
Ltmp1027:
	.loc	25 154 5 prologue_end
	movq	-32(%rbp), %rdi
	callq	__ZN60_$LT$proc_macro..TokenTree$u20$as$u20$core..clone..Clone$GT$5clone17h114d295d119c42b8E
	movq	%rax, -8(%rbp)
	movq	-8(%rbp), %rax
	movq	%rax, -24(%rbp)
	movq	-24(%rbp), %rax
	addq	$32, %rsp
	popq	%rbp
	retq
Ltmp1028:
Lfunc_end201:
	.cfi_endproc

	.p2align	4, 0x90
__ZN4core3ops8function5FnMut8call_mut17h5250608fbd65b205E:
Lfunc_begin202:
	.loc	25 154 0
	.cfi_startproc
	pushq	%rbp
	.cfi_def_cfa_offset 16
	.cfi_offset %rbp, -16
	movq	%rsp, %rbp
	.cfi_def_cfa_register %rbp
	subq	$48, %rsp
	movq	%rsi, -32(%rbp)
	movq	-32(%rbp), %rax
	movq	%rax, -40(%rbp)
	movq	%rdi, -16(%rbp)
Ltmp1029:
	.loc	25 154 5 prologue_end
	movq	-40(%rbp), %rdi
	callq	__ZN92_$LT$proc_macro..TokenStream$u20$as$u20$core..convert..From$LT$proc_macro..TokenTree$GT$$GT$4from17hbcfe88a73ebe5ff6E
	movl	%eax, -4(%rbp)
	movl	-4(%rbp), %eax
	movl	%eax, -24(%rbp)
	movl	-24(%rbp), %eax
	addq	$48, %rsp
	popq	%rbp
	retq
Ltmp1030:
Lfunc_end202:
	.cfi_endproc

	.p2align	4, 0x90
__ZN4core3ops8function5FnMut8call_mut17h6bbc23c4a8ba14a4E:
Lfunc_begin203:
	.loc	25 154 0
	.cfi_startproc
	pushq	%rbp
	.cfi_def_cfa_offset 16
	.cfi_offset %rbp, -16
	movq	%rsp, %rbp
	.cfi_def_cfa_register %rbp
	subq	$32, %rsp
	movq	%rsi, -16(%rbp)
	movq	-16(%rbp), %rax
	movq	%rax, -24(%rbp)
	movq	%rdi, -8(%rbp)
Ltmp1031:
	.loc	25 154 5 prologue_end
	movq	-24(%rbp), %rdi
	callq	__ZN4core3mem4drop17hbf1c0b0d87784ee1E
	addq	$32, %rsp
	popq	%rbp
	retq
Ltmp1032:
Lfunc_end203:
	.cfi_endproc

	.globl	__ZN4core3ops8function5impls79_$LT$impl$u20$core..ops..function..FnMut$LT$A$GT$$u20$for$u20$$RF$mut$u20$F$GT$8call_mut17h68208028ee21d678E
	.p2align	4, 0x90
__ZN4core3ops8function5impls79_$LT$impl$u20$core..ops..function..FnMut$LT$A$GT$$u20$for$u20$$RF$mut$u20$F$GT$8call_mut17h68208028ee21d678E:
Lfunc_begin204:
	.loc	25 274 0
	.cfi_startproc
	pushq	%rbp
	.cfi_def_cfa_offset 16
	.cfi_offset %rbp, -16
	movq	%rsp, %rbp
	.cfi_def_cfa_register %rbp
	subq	$32, %rsp
	movl	%esi, -20(%rbp)
	movl	-20(%rbp), %eax
	movl	%eax, -24(%rbp)
	movq	%rdi, -8(%rbp)
Ltmp1033:
	.loc	25 275 13 prologue_end
	movq	(%rdi), %rdi
	.loc	25 275 30 is_stmt 0
	movl	-24(%rbp), %eax
	movl	%eax, -16(%rbp)
	.loc	25 275 13
	movl	-16(%rbp), %esi
	callq	__ZN4core4iter6traits8iterator8Iterator8for_each4call28_$u7b$$u7b$closure$u7d$$u7d$17hdc70df6410c9e9b7E
	.loc	25 276 10 is_stmt 1
	addq	$32, %rsp
	popq	%rbp
	retq
Ltmp1034:
Lfunc_end204:
	.cfi_endproc

	.p2align	4, 0x90
__ZN4core3ops8function6FnOnce40call_once$u7b$$u7b$vtable.shim$u7d$$u7d$17h2a231933a0710d4aE:
Lfunc_begin205:
	.loc	25 233 0
	.cfi_startproc
	pushq	%rbp
	.cfi_def_cfa_offset 16
	.cfi_offset %rbp, -16
	movq	%rsp, %rbp
	.cfi_def_cfa_register %rbp
	subq	$16, %rsp
	movq	%rsi, -16(%rbp)
	movq	%rdi, -8(%rbp)
Ltmp1035:
	.loc	25 233 5 prologue_end
	movq	-16(%rbp), %rax
	movq	%rax, %rdi
	callq	__ZN4core3ops8function6FnOnce9call_once17h0232d706d4a9c03dE
	addq	$16, %rsp
	popq	%rbp
	retq
Ltmp1036:
Lfunc_end205:
	.cfi_endproc

	.p2align	4, 0x90
__ZN4core3ops8function6FnOnce40call_once$u7b$$u7b$vtable.shim$u7d$$u7d$17he5184a20d1a4d467E:
Lfunc_begin206:
	.loc	25 233 0
	.cfi_startproc
	pushq	%rbp
	.cfi_def_cfa_offset 16
	.cfi_offset %rbp, -16
	movq	%rsp, %rbp
	.cfi_def_cfa_register %rbp
	subq	$16, %rsp
	movq	%rsi, -16(%rbp)
	movq	%rdi, -8(%rbp)
Ltmp1037:
	.loc	25 233 5 prologue_end
	movq	(%rdi), %rdi
	movq	-16(%rbp), %rax
	movq	%rax, %rsi
	callq	__ZN4core3ops8function6FnOnce9call_once17hb27c2d408085118eE
	addq	$16, %rsp
	popq	%rbp
	retq
Ltmp1038:
Lfunc_end206:
	.cfi_endproc

	.p2align	4, 0x90
__ZN4core3ops8function6FnOnce9call_once17h0232d706d4a9c03dE:
Lfunc_begin207:
	.loc	25 233 0
	.cfi_startproc
	.cfi_personality 155, _rust_eh_personality
	.cfi_lsda 16, Lexception33
	pushq	%rbp
	.cfi_def_cfa_offset 16
	.cfi_offset %rbp, -16
	movq	%rsp, %rbp
	.cfi_def_cfa_register %rbp
	subq	$32, %rsp
	movq	%rdi, -24(%rbp)
Ltmp1042:
	.loc	25 233 5 prologue_end
	movq	-24(%rbp), %rsi
Ltmp1039:
	leaq	-32(%rbp), %rdi
	callq	__ZN11proc_macro29detection10initialize28_$u7b$$u7b$closure$u7d$$u7d$17hc57fc542cf8554caE
Ltmp1040:
	jmp	LBB207_1
LBB207_1:
	jmp	LBB207_2
LBB207_2:
	addq	$32, %rsp
	popq	%rbp
	retq
LBB207_3:
	jmp	LBB207_4
LBB207_4:
	movq	-16(%rbp), %rdi
	callq	__Unwind_Resume
	ud2
Ltmp1043:
LBB207_5:
Ltmp1041:
	.loc	25 0 5 is_stmt 0
	movq	%rax, -16(%rbp)
	movl	%edx, -8(%rbp)
	jmp	LBB207_3
Lfunc_end207:
	.cfi_endproc
	.section	__TEXT,__gcc_except_tab
	.p2align	2
GCC_except_table207:
Lexception33:
	.byte	255
	.byte	255
	.byte	1
	.uleb128 Lcst_end33-Lcst_begin33
Lcst_begin33:
	.uleb128 Ltmp1039-Lfunc_begin207
	.uleb128 Ltmp1040-Ltmp1039
	.uleb128 Ltmp1041-Lfunc_begin207
	.byte	0
	.uleb128 Ltmp1040-Lfunc_begin207
	.uleb128 Lfunc_end207-Ltmp1040
	.byte	0
	.byte	0
Lcst_end33:
	.p2align	2

	.section	__TEXT,__text,regular,pure_instructions
	.p2align	4, 0x90
__ZN4core3ops8function6FnOnce9call_once17h040768ca7c7a1e9eE:
Lfunc_begin208:
	.loc	25 233 0 is_stmt 1
	.cfi_startproc
	pushq	%rbp
	.cfi_def_cfa_offset 16
	.cfi_offset %rbp, -16
	movq	%rsp, %rbp
	.cfi_def_cfa_register %rbp
	subq	$32, %rsp
Ltmp1044:
	.loc	25 233 5 prologue_end
	callq	__ZN10proc_macro4Span9call_site17he8e389cb3094b270E
	movl	%eax, -4(%rbp)
	movl	-4(%rbp), %eax
	movl	%eax, -16(%rbp)
	movl	-16(%rbp), %eax
	addq	$32, %rsp
	popq	%rbp
	retq
Ltmp1045:
Lfunc_end208:
	.cfi_endproc

	.p2align	4, 0x90
__ZN4core3ops8function6FnOnce9call_once17h0b9d429c52c6f698E:
Lfunc_begin209:
	.loc	25 233 0
	.cfi_startproc
	pushq	%rbp
	.cfi_def_cfa_offset 16
	.cfi_offset %rbp, -16
	movq	%rsp, %rbp
	.cfi_def_cfa_register %rbp
	subq	$32, %rsp
Ltmp1046:
	.loc	25 233 5 prologue_end
	callq	__ZN11proc_macro23imp8LexError8Compiler17h24a9676d838d1606E
	movb	%al, -17(%rbp)
	.loc	25 0 5 is_stmt 0
	movb	-17(%rbp), %al
	.loc	25 233 5
	andb	$1, %al
	movzbl	%al, %eax
	addq	$32, %rsp
	popq	%rbp
	retq
Ltmp1047:
Lfunc_end209:
	.cfi_endproc

	.p2align	4, 0x90
__ZN4core3ops8function6FnOnce9call_once17h172674c1e0eaf56cE:
Lfunc_begin210:
	.loc	25 233 0 is_stmt 1
	.cfi_startproc
	pushq	%rbp
	.cfi_def_cfa_offset 16
	.cfi_offset %rbp, -16
	movq	%rsp, %rbp
	.cfi_def_cfa_register %rbp
	subq	$32, %rsp
	movl	%edi, -20(%rbp)
	movl	-20(%rbp), %eax
	movl	%eax, -24(%rbp)
Ltmp1048:
	.loc	25 233 5 prologue_end
	movl	-24(%rbp), %edi
	callq	__ZN11proc_macro24Span4_new17h77340cc0d3b01bd0E
	movl	%eax, -4(%rbp)
	movl	-4(%rbp), %eax
	movl	%eax, -16(%rbp)
	movl	-16(%rbp), %eax
	addq	$32, %rsp
	popq	%rbp
	retq
Ltmp1049:
Lfunc_end210:
	.cfi_endproc

	.p2align	4, 0x90
__ZN4core3ops8function6FnOnce9call_once17h776fe3df3fbbdf14E:
Lfunc_begin211:
	.loc	25 233 0
	.cfi_startproc
	pushq	%rbp
	.cfi_def_cfa_offset 16
	.cfi_offset %rbp, -16
	movq	%rsp, %rbp
	.cfi_def_cfa_register %rbp
	subq	$16, %rsp
Ltmp1050:
	.loc	25 233 5 prologue_end
	callq	__ZN11proc_macro29detection10initialize17hd644b313f3ca1501E
	addq	$16, %rsp
	popq	%rbp
	retq
Ltmp1051:
Lfunc_end211:
	.cfi_endproc

	.p2align	4, 0x90
__ZN4core3ops8function6FnOnce9call_once17hb27c2d408085118eE:
Lfunc_begin212:
	.loc	25 233 0
	.cfi_startproc
	.cfi_personality 155, _rust_eh_personality
	.cfi_lsda 16, Lexception34
	pushq	%rbp
	.cfi_def_cfa_offset 16
	.cfi_offset %rbp, -16
	movq	%rsp, %rbp
	.cfi_def_cfa_register %rbp
	subq	$32, %rsp
	movq	%rdi, -32(%rbp)
	movq	%rsi, -24(%rbp)
Ltmp1055:
	.loc	25 233 5 prologue_end
	movq	-24(%rbp), %rsi
Ltmp1052:
	leaq	-32(%rbp), %rdi
	callq	__ZN3std4sync4once4Once9call_once28_$u7b$$u7b$closure$u7d$$u7d$17h646c8bc81a758b6fE
Ltmp1053:
	jmp	LBB212_1
LBB212_1:
	jmp	LBB212_2
LBB212_2:
	addq	$32, %rsp
	popq	%rbp
	retq
LBB212_3:
	jmp	LBB212_4
LBB212_4:
	movq	-16(%rbp), %rdi
	callq	__Unwind_Resume
	ud2
Ltmp1056:
LBB212_5:
Ltmp1054:
	.loc	25 0 5 is_stmt 0
	movq	%rax, -16(%rbp)
	movl	%edx, -8(%rbp)
	jmp	LBB212_3
Lfunc_end212:
	.cfi_endproc
	.section	__TEXT,__gcc_except_tab
	.p2align	2
GCC_except_table212:
Lexception34:
	.byte	255
	.byte	255
	.byte	1
	.uleb128 Lcst_end34-Lcst_begin34
Lcst_begin34:
	.uleb128 Ltmp1052-Lfunc_begin212
	.uleb128 Ltmp1053-Ltmp1052
	.uleb128 Ltmp1054-Lfunc_begin212
	.byte	0
	.uleb128 Ltmp1053-Lfunc_begin212
	.uleb128 Lfunc_end212-Ltmp1053
	.byte	0
	.byte	0
Lcst_end34:
	.p2align	2

	.section	__TEXT,__text,regular,pure_instructions
	.p2align	4, 0x90
__ZN4core3ops8function6FnOnce9call_once17hc28c9ffad261fb18E:
Lfunc_begin213:
	.loc	25 233 0 is_stmt 1
	.cfi_startproc
	pushq	%rbp
	.cfi_def_cfa_offset 16
	.cfi_offset %rbp, -16
	movq	%rsp, %rbp
	.cfi_def_cfa_register %rbp
	subq	$32, %rsp
	movq	%rdi, -24(%rbp)
	movq	%rsi, -16(%rbp)
Ltmp1057:
	.loc	25 233 5 prologue_end
	movq	-24(%rbp), %rdi
	movq	-16(%rbp), %rsi
	callq	__ZN4core3cmp5impls50_$LT$impl$u20$core..cmp..Ord$u20$for$u20$usize$GT$3cmp17h2691ae7e1cf7b8e8E
	movb	%al, -25(%rbp)
	.loc	25 0 5 is_stmt 0
	movb	-25(%rbp), %al
	.loc	25 233 5
	addq	$32, %rsp
	popq	%rbp
	retq
Ltmp1058:
Lfunc_end213:
	.cfi_endproc

	.globl	__ZN4core3ptr13drop_in_place17h014a5c82f17e2690E
	.p2align	4, 0x90
__ZN4core3ptr13drop_in_place17h014a5c82f17e2690E:
Lfunc_begin214:
	.file	26 "/rustc/6c8927b0cf80ceee19386026cf9d7fd4fd9d486f/src/libcore/ptr/mod.rs"
	.loc	26 184 0 is_stmt 1
	.cfi_startproc
	pushq	%rbp
	.cfi_def_cfa_offset 16
	.cfi_offset %rbp, -16
	movq	%rsp, %rbp
	.cfi_def_cfa_register %rbp
	subq	$16, %rsp
	movq	%rdi, -8(%rbp)
Ltmp1059:
	.loc	26 184 1 prologue_end
	addq	$8, %rdi
	callq	__ZN4core3ptr13drop_in_place17h2d5486ea1cd92a2cE
	addq	$16, %rsp
	popq	%rbp
	retq
Ltmp1060:
Lfunc_end214:
	.cfi_endproc

	.p2align	4, 0x90
__ZN4core3ptr13drop_in_place17h03a3d6e5b77ff1fbE:
Lfunc_begin215:
	.loc	26 184 0
	.cfi_startproc
	pushq	%rbp
	.cfi_def_cfa_offset 16
	.cfi_offset %rbp, -16
	movq	%rsp, %rbp
	.cfi_def_cfa_register %rbp
	subq	$16, %rsp
	movq	%rdi, -8(%rbp)
Ltmp1061:
	.loc	26 184 1 prologue_end
	addq	$16, %rsp
	popq	%rbp
	retq
Ltmp1062:
Lfunc_end215:
	.cfi_endproc

	.globl	__ZN4core3ptr13drop_in_place17h07641e5e6a0ccb1cE
	.p2align	4, 0x90
__ZN4core3ptr13drop_in_place17h07641e5e6a0ccb1cE:
Lfunc_begin216:
	.loc	26 184 0
	.cfi_startproc
	pushq	%rbp
	.cfi_def_cfa_offset 16
	.cfi_offset %rbp, -16
	movq	%rsp, %rbp
	.cfi_def_cfa_register %rbp
	subq	$32, %rsp
	movq	%rdi, -8(%rbp)
Ltmp1063:
	.loc	26 184 1 prologue_end
	movl	(%rdi), %eax
	movl	%eax, %ecx
	cmpq	$0, %rcx
	movq	%rdi, -24(%rbp)
	je	LBB216_2
	jmp	LBB216_3
LBB216_1:
	addq	$32, %rsp
	popq	%rbp
	retq
LBB216_2:
	.loc	26 0 1 is_stmt 0
	movq	-24(%rbp), %rax
	.loc	26 184 1
	addq	$4, %rax
	movq	%rax, %rdi
	callq	__ZN4core3ptr13drop_in_place17hf1df7b28fb518b20E
	jmp	LBB216_1
LBB216_3:
	.loc	26 0 1
	movq	-24(%rbp), %rax
	.loc	26 184 1
	addq	$8, %rax
	movq	%rax, %rdi
	callq	__ZN4core3ptr13drop_in_place17h748ae07b86c9ce6dE
	jmp	LBB216_1
Ltmp1064:
Lfunc_end216:
	.cfi_endproc

	.globl	__ZN4core3ptr13drop_in_place17h07b674bbcb7b5e2bE
	.p2align	4, 0x90
__ZN4core3ptr13drop_in_place17h07b674bbcb7b5e2bE:
Lfunc_begin217:
	.loc	26 184 0 is_stmt 1
	.cfi_startproc
	pushq	%rbp
	.cfi_def_cfa_offset 16
	.cfi_offset %rbp, -16
	movq	%rsp, %rbp
	.cfi_def_cfa_register %rbp
	subq	$16, %rsp
	movq	%rdi, -8(%rbp)
Ltmp1065:
	.loc	26 184 1 prologue_end
	callq	__ZN4core3ptr13drop_in_place17hddc2ddb5a516c59bE
	addq	$16, %rsp
	popq	%rbp
	retq
Ltmp1066:
Lfunc_end217:
	.cfi_endproc

	.globl	__ZN4core3ptr13drop_in_place17h07dfbd62df8dbfdbE
	.p2align	4, 0x90
__ZN4core3ptr13drop_in_place17h07dfbd62df8dbfdbE:
Lfunc_begin218:
	.loc	26 184 0
	.cfi_startproc
	pushq	%rbp
	.cfi_def_cfa_offset 16
	.cfi_offset %rbp, -16
	movq	%rsp, %rbp
	.cfi_def_cfa_register %rbp
	subq	$16, %rsp
	movq	%rdi, -8(%rbp)
Ltmp1067:
	.loc	26 184 1 prologue_end
	callq	__ZN4core3ptr13drop_in_place17he73815017128bcd5E
	addq	$16, %rsp
	popq	%rbp
	retq
Ltmp1068:
Lfunc_end218:
	.cfi_endproc

	.globl	__ZN4core3ptr13drop_in_place17h094199eb7fabdd8dE
	.p2align	4, 0x90
__ZN4core3ptr13drop_in_place17h094199eb7fabdd8dE:
Lfunc_begin219:
	.loc	26 184 0
	.cfi_startproc
	pushq	%rbp
	.cfi_def_cfa_offset 16
	.cfi_offset %rbp, -16
	movq	%rsp, %rbp
	.cfi_def_cfa_register %rbp
	subq	$16, %rsp
	movq	%rdi, -8(%rbp)
Ltmp1069:
	.loc	26 184 1 prologue_end
	callq	__ZN81_$LT$proc_macro..bridge..client..TokenStream$u20$as$u20$core..ops..drop..Drop$GT$4drop17h294a054ec621ad3aE
	addq	$16, %rsp
	popq	%rbp
	retq
Ltmp1070:
Lfunc_end219:
	.cfi_endproc

	.globl	__ZN4core3ptr13drop_in_place17h0a003a0a2e093b4eE
	.p2align	4, 0x90
__ZN4core3ptr13drop_in_place17h0a003a0a2e093b4eE:
Lfunc_begin220:
	.loc	26 184 0
	.cfi_startproc
	pushq	%rbp
	.cfi_def_cfa_offset 16
	.cfi_offset %rbp, -16
	movq	%rsp, %rbp
	.cfi_def_cfa_register %rbp
	subq	$16, %rsp
	movq	%rdi, -8(%rbp)
Ltmp1071:
	.loc	26 184 1 prologue_end
	callq	__ZN4core3ptr13drop_in_place17hc194376ff456a361E
	addq	$16, %rsp
	popq	%rbp
	retq
Ltmp1072:
Lfunc_end220:
	.cfi_endproc

	.globl	__ZN4core3ptr13drop_in_place17h0bd2d009a79399a2E
	.p2align	4, 0x90
__ZN4core3ptr13drop_in_place17h0bd2d009a79399a2E:
Lfunc_begin221:
	.loc	26 184 0
	.cfi_startproc
	pushq	%rbp
	.cfi_def_cfa_offset 16
	.cfi_offset %rbp, -16
	movq	%rsp, %rbp
	.cfi_def_cfa_register %rbp
	subq	$16, %rsp
	movq	%rdi, -8(%rbp)
Ltmp1073:
	.loc	26 184 1 prologue_end
	addq	$16, %rdi
	callq	__ZN4core3ptr13drop_in_place17hdf2c8464bb7004b0E
	addq	$16, %rsp
	popq	%rbp
	retq
Ltmp1074:
Lfunc_end221:
	.cfi_endproc

	.globl	__ZN4core3ptr13drop_in_place17h0d38cbca580fafe2E
	.p2align	4, 0x90
__ZN4core3ptr13drop_in_place17h0d38cbca580fafe2E:
Lfunc_begin222:
	.loc	26 184 0
	.cfi_startproc
	pushq	%rbp
	.cfi_def_cfa_offset 16
	.cfi_offset %rbp, -16
	movq	%rsp, %rbp
	.cfi_def_cfa_register %rbp
	subq	$16, %rsp
	movq	%rdi, -8(%rbp)
Ltmp1075:
	.loc	26 184 1 prologue_end
	callq	__ZN4core3ptr13drop_in_place17h7db0202f1dbb6aacE
	addq	$16, %rsp
	popq	%rbp
	retq
Ltmp1076:
Lfunc_end222:
	.cfi_endproc

	.globl	__ZN4core3ptr13drop_in_place17h0ea118e1ac561badE
	.p2align	4, 0x90
__ZN4core3ptr13drop_in_place17h0ea118e1ac561badE:
Lfunc_begin223:
	.loc	26 184 0
	.cfi_startproc
	pushq	%rbp
	.cfi_def_cfa_offset 16
	.cfi_offset %rbp, -16
	movq	%rsp, %rbp
	.cfi_def_cfa_register %rbp
	subq	$16, %rsp
	movq	%rdi, -8(%rbp)
Ltmp1077:
	.loc	26 184 1 prologue_end
	callq	__ZN4core3ptr13drop_in_place17hb2946fe562534ba4E
	addq	$16, %rsp
	popq	%rbp
	retq
Ltmp1078:
Lfunc_end223:
	.cfi_endproc

	.globl	__ZN4core3ptr13drop_in_place17h1361f351e4ba93a0E
	.p2align	4, 0x90
__ZN4core3ptr13drop_in_place17h1361f351e4ba93a0E:
Lfunc_begin224:
	.loc	26 184 0
	.cfi_startproc
	pushq	%rbp
	.cfi_def_cfa_offset 16
	.cfi_offset %rbp, -16
	movq	%rsp, %rbp
	.cfi_def_cfa_register %rbp
	subq	$16, %rsp
	movq	%rdi, -8(%rbp)
Ltmp1079:
	.loc	26 184 1 prologue_end
	callq	__ZN4core3ptr13drop_in_place17h2ec7553f17470d8aE
	addq	$16, %rsp
	popq	%rbp
	retq
Ltmp1080:
Lfunc_end224:
	.cfi_endproc

	.p2align	4, 0x90
