	.section	__TEXT,__text,regular,pure_instructions
	.macosx_version_min 10, 7
	.p2align	4, 0x90
__ZN100_$LT$alloc..string..String$u20$as$u20$core..ops..index..Index$LT$core..ops..range..RangeFull$GT$$GT$5index17h2d262b002e1435a0E:
Lfunc_begin0:
	.file	1 "/rustc/6c8927b0cf80ceee19386026cf9d7fd4fd9d486f/src/liballoc/string.rs"
	.loc	1 2063 0
	.cfi_startproc
	pushq	%rbp
	.cfi_def_cfa_offset 16
	.cfi_offset %rbp, -16
	movq	%rsp, %rbp
	.cfi_def_cfa_register %rbp
	subq	$64, %rsp
	movq	%rdi, -16(%rbp)
	movq	%rsi, -24(%rbp)
Ltmp0:
	.loc	1 2064 43 prologue_end
	callq	__ZN68_$LT$alloc..vec..Vec$LT$T$GT$$u20$as$u20$core..ops..deref..Deref$GT$5deref17h1d1c6b86233583ebE
	movq	%rax, -32(%rbp)
	movq	%rdx, -40(%rbp)
	.loc	1 0 43 is_stmt 0
	movq	-32(%rbp), %rdi
	movq	-40(%rbp), %rsi
	.loc	1 2064 18
	callq	__ZN4core3str19from_utf8_unchecked17h6a4c0d4f0b652a47E
	movq	%rax, -48(%rbp)
	movq	%rdx, -56(%rbp)
	.loc	1 0 18
	movq	-48(%rbp), %rax
	movq	-56(%rbp), %rdx
	.loc	1 2065 6 is_stmt 1
	addq	$64, %rsp
	popq	%rbp
	retq
Ltmp1:
Lfunc_end0:
	.cfi_endproc

	.globl	__ZN100_$LT$core..iter..adapters..fuse..Fuse$LT$I$GT$$u20$as$u20$core..iter..traits..iterator..Iterator$GT$4next17h698e92fb50e236f6E
	.p2align	4, 0x90
__ZN100_$LT$core..iter..adapters..fuse..Fuse$LT$I$GT$$u20$as$u20$core..iter..traits..iterator..Iterator$GT$4next17h698e92fb50e236f6E:
Lfunc_begin1:
	.file	2 "/rustc/6c8927b0cf80ceee19386026cf9d7fd4fd9d486f/src/libcore/iter/adapters/fuse.rs"
	.loc	2 68 0
	.cfi_startproc
	pushq	%rbp
	.cfi_def_cfa_offset 16
	.cfi_offset %rbp, -16
	movq	%rsp, %rbp
	.cfi_def_cfa_register %rbp
	subq	$16, %rsp
	movq	%rdi, %rax
	movq	%rsi, -8(%rbp)
	movq	%rax, -16(%rbp)
Ltmp2:
	.loc	2 69 9 prologue_end
	callq	__ZN107_$LT$core..iter..adapters..fuse..Fuse$LT$I$GT$$u20$as$u20$core..iter..adapters..fuse..FuseImpl$LT$I$GT$$GT$4next17ha46e08143ed1ea85E
	.loc	2 0 9 is_stmt 0
	movq	-16(%rbp), %rax
	.loc	2 70 6 is_stmt 1
	addq	$16, %rsp
	popq	%rbp
	retq
Ltmp3:
Lfunc_end1:
	.cfi_endproc

	.globl	__ZN100_$LT$core..iter..adapters..fuse..Fuse$LT$I$GT$$u20$as$u20$core..iter..traits..iterator..Iterator$GT$9size_hint17hf736779e7c0bcfe7E
	.p2align	4, 0x90
__ZN100_$LT$core..iter..adapters..fuse..Fuse$LT$I$GT$$u20$as$u20$core..iter..traits..iterator..Iterator$GT$9size_hint17hf736779e7c0bcfe7E:
Lfunc_begin2:
	.loc	2 88 0
	.cfi_startproc
	pushq	%rbp
	.cfi_def_cfa_offset 16
	.cfi_offset %rbp, -16
	movq	%rsp, %rbp
	.cfi_def_cfa_register %rbp
	subq	$16, %rsp
	movq	%rdi, %rax
	movq	%rsi, -8(%rbp)
	movq	%rax, -16(%rbp)
Ltmp4:
	.loc	2 89 9 prologue_end
	callq	__ZN107_$LT$core..iter..adapters..fuse..Fuse$LT$I$GT$$u20$as$u20$core..iter..adapters..fuse..FuseImpl$LT$I$GT$$GT$9size_hint17h5a3e7b0567be010fE
	.loc	2 0 9 is_stmt 0
	movq	-16(%rbp), %rax
	.loc	2 90 6 is_stmt 1
	addq	$16, %rsp
	popq	%rbp
	retq
Ltmp5:
Lfunc_end2:
	.cfi_endproc

	.globl	__ZN103_$LT$core..iter..adapters..FilterMap$LT$I$C$F$GT$$u20$as$u20$core..iter..traits..iterator..Iterator$GT$4fold17h1c621466a3503b9fE
	.p2align	4, 0x90
__ZN103_$LT$core..iter..adapters..FilterMap$LT$I$C$F$GT$$u20$as$u20$core..iter..traits..iterator..Iterator$GT$4fold17h1c621466a3503b9fE:
Lfunc_begin3:
	.file	3 "/rustc/6c8927b0cf80ceee19386026cf9d7fd4fd9d486f/src/libcore/iter/adapters/mod.rs"
	.loc	3 1152 0
	.cfi_startproc
	.cfi_personality 155, _rust_eh_personality
	.cfi_lsda 16, Lexception0
	pushq	%rbp
	.cfi_def_cfa_offset 16
	.cfi_offset %rbp, -16
	movq	%rsp, %rbp
	.cfi_def_cfa_register %rbp
	subq	$128, %rsp
	movq	%rsi, -104(%rbp)
	movq	-104(%rbp), %rax
	movq	%rax, -112(%rbp)
Ltmp11:
	.loc	3 1156 9 prologue_end
	movb	$0, -34(%rbp)
	movb	$0, -33(%rbp)
	movb	$1, -34(%rbp)
	movq	32(%rdi), %rax
	movq	%rax, -56(%rbp)
	movq	24(%rdi), %rax
	movq	%rax, -64(%rbp)
	movq	16(%rdi), %rax
	movq	%rax, -72(%rbp)
	movq	(%rdi), %rax
	movq	8(%rdi), %rcx
	movq	%rcx, -80(%rbp)
	movq	%rax, -88(%rbp)
	.loc	3 1156 24 is_stmt 0
	movb	$1, -33(%rbp)
	movq	-112(%rbp), %rax
	movq	%rax, -48(%rbp)
Ltmp6:
	.loc	3 1156 30
	callq	__ZN4core4iter8adapters15filter_map_fold17h4f60928931ef7a61E
Ltmp12:
Ltmp7:
	jmp	LBB3_1
LBB3_1:
	.loc	3 1156 9
	movb	$0, -34(%rbp)
	movb	$0, -33(%rbp)
	movq	-48(%rbp), %rsi
Ltmp8:
	leaq	-88(%rbp), %rdi
	callq	__ZN4core4iter6traits8iterator8Iterator4fold17hab79578d8dd28e3bE
Ltmp9:
	movq	%rax, -120(%rbp)
	jmp	LBB3_4
LBB3_2:
	.loc	3 1152 5 is_stmt 1
	movq	-24(%rbp), %rdi
	callq	__Unwind_Resume
	ud2
LBB3_3:
	.loc	3 1156 59
	testb	$1, -34(%rbp)
	jne	LBB3_5
	jmp	LBB3_2
LBB3_4:
	.loc	3 0 59 is_stmt 0
	movq	-120(%rbp), %rax
	.loc	3 1156 9
	movq	%rax, -8(%rbp)
	movq	-8(%rbp), %rcx
	movq	%rcx, -96(%rbp)
	.loc	3 1156 59
	movb	$0, -33(%rbp)
	movb	$0, -34(%rbp)
	.loc	3 1157 6 is_stmt 1
	movq	-96(%rbp), %rax
	addq	$128, %rsp
	popq	%rbp
	retq
LBB3_5:
	.loc	3 1156 59
	movb	$0, -34(%rbp)
	leaq	-88(%rbp), %rdi
	callq	__ZN4core3ptr13drop_in_place17h0ea118e1ac561badE
	jmp	LBB3_2
LBB3_6:
	movb	$0, -33(%rbp)
	jmp	LBB3_3
LBB3_7:
	testb	$1, -33(%rbp)
	jne	LBB3_6
	jmp	LBB3_3
Ltmp13:
LBB3_8:
Ltmp10:
	.loc	3 0 59 is_stmt 0
	movq	%rax, -24(%rbp)
	movl	%edx, -16(%rbp)
	jmp	LBB3_7
Lfunc_end3:
	.cfi_endproc
	.section	__TEXT,__gcc_except_tab
	.p2align	2
GCC_except_table3:
Lexception0:
	.byte	255
	.byte	255
	.byte	1
	.uleb128 Lcst_end0-Lcst_begin0
Lcst_begin0:
	.uleb128 Ltmp6-Lfunc_begin3
	.uleb128 Ltmp9-Ltmp6
	.uleb128 Ltmp10-Lfunc_begin3
	.byte	0
	.uleb128 Ltmp9-Lfunc_begin3
	.uleb128 Lfunc_end3-Ltmp9
	.byte	0
	.byte	0
Lcst_end0:
	.p2align	2

	.section	__TEXT,__text,regular,pure_instructions
	.globl	__ZN103_$LT$core..iter..adapters..FilterMap$LT$I$C$F$GT$$u20$as$u20$core..iter..traits..iterator..Iterator$GT$4next17he507abd758e448e7E
	.p2align	4, 0x90
__ZN103_$LT$core..iter..adapters..FilterMap$LT$I$C$F$GT$$u20$as$u20$core..iter..traits..iterator..Iterator$GT$4next17he507abd758e448e7E:
Lfunc_begin4:
	.loc	3 1131 0 is_stmt 1
	.cfi_startproc
	pushq	%rbp
	.cfi_def_cfa_offset 16
	.cfi_offset %rbp, -16
	movq	%rsp, %rbp
	.cfi_def_cfa_register %rbp
	subq	$32, %rsp
	movq	%rdi, -16(%rbp)
Ltmp14:
	.loc	3 1132 9 prologue_end
	movq	%rdi, %rax
	movq	%rdi, -32(%rbp)
	movq	%rax, %rdi
	movq	-32(%rbp), %rsi
	callq	__ZN4core4iter6traits8iterator8Iterator8find_map17h544bb60287b565b9E
	movq	%rax, -8(%rbp)
	movq	-8(%rbp), %rax
	movq	%rax, -24(%rbp)
	.loc	3 1133 6
	movq	-24(%rbp), %rax
	addq	$32, %rsp
	popq	%rbp
	retq
Ltmp15:
Lfunc_end4:
	.cfi_endproc

	.globl	__ZN103_$LT$core..ops..range..RangeFrom$LT$usize$GT$$u20$as$u20$core..slice..SliceIndex$LT$$u5b$T$u5d$$GT$$GT$13get_unchecked17h719b1819df1be563E
	.p2align	4, 0x90
__ZN103_$LT$core..ops..range..RangeFrom$LT$usize$GT$$u20$as$u20$core..slice..SliceIndex$LT$$u5b$T$u5d$$GT$$GT$13get_unchecked17h719b1819df1be563E:
Lfunc_begin5:
	.file	4 "/rustc/6c8927b0cf80ceee19386026cf9d7fd4fd9d486f/src/libcore/slice/mod.rs"
	.loc	4 3238 0
	.cfi_startproc
	pushq	%rbp
	.cfi_def_cfa_offset 16
	.cfi_offset %rbp, -16
	movq	%rsp, %rbp
	.cfi_def_cfa_register %rbp
	subq	$96, %rsp
	movq	%rdi, -24(%rbp)
	movq	%rsi, -16(%rbp)
	movq	%rdx, -8(%rbp)
	movq	%rdi, -48(%rbp)
Ltmp16:
	.loc	4 3240 31 prologue_end
	movq	%rsi, %rdi
	movq	%rsi, -56(%rbp)
	movq	%rdx, %rsi
	movq	%rdx, -64(%rbp)
	callq	__ZN4core3ptr9const_ptr43_$LT$impl$u20$$BP$const$u20$$u5b$T$u5d$$GT$3len17h6568ce4be9e040d8E
	movq	%rax, -72(%rbp)
	.loc	4 0 31 is_stmt 0
	movq	-48(%rbp), %rax
	.loc	4 3240 18
	movq	%rax, -40(%rbp)
	movq	-72(%rbp), %rcx
	movq	%rcx, -32(%rbp)
	movq	-40(%rbp), %rdi
	movq	-32(%rbp), %rsi
	movq	-56(%rbp), %rdx
	movq	-64(%rbp), %rcx
	callq	__ZN99_$LT$core..ops..range..Range$LT$usize$GT$$u20$as$u20$core..slice..SliceIndex$LT$$u5b$T$u5d$$GT$$GT$13get_unchecked17hca2ec2c5355d8464E
	movq	%rax, -80(%rbp)
	movq	%rdx, -88(%rbp)
	.loc	4 0 18
	movq	-80(%rbp), %rax
	movq	-88(%rbp), %rdx
	.loc	4 3241 6 is_stmt 1
	addq	$96, %rsp
	popq	%rbp
	retq
Ltmp17:
Lfunc_end5:
	.cfi_endproc

	.globl	__ZN103_$LT$core..ops..range..RangeFrom$LT$usize$GT$$u20$as$u20$core..slice..SliceIndex$LT$$u5b$T$u5d$$GT$$GT$5index17h70b2e73045e4db38E
	.p2align	4, 0x90
__ZN103_$LT$core..ops..range..RangeFrom$LT$usize$GT$$u20$as$u20$core..slice..SliceIndex$LT$$u5b$T$u5d$$GT$$GT$5index17h70b2e73045e4db38E:
Lfunc_begin6:
	.loc	4 3250 0
	.cfi_startproc
	pushq	%rbp
	.cfi_def_cfa_offset 16
	.cfi_offset %rbp, -16
	movq	%rsp, %rbp
	.cfi_def_cfa_register %rbp
	subq	$96, %rsp
	movq	%rdi, -24(%rbp)
	movq	%rsi, -16(%rbp)
	movq	%rdx, -8(%rbp)
	movq	%rdi, -32(%rbp)
Ltmp18:
	.loc	4 3251 25 prologue_end
	movq	%rsi, %rdi
	movq	%rsi, -40(%rbp)
	movq	%rdx, %rsi
	movq	%rdx, -48(%rbp)
	movq	%rcx, -56(%rbp)
	callq	__ZN4core5slice29_$LT$impl$u20$$u5b$T$u5d$$GT$3len17h486ca3fc336839a0E
	movq	%rax, -64(%rbp)
	.loc	4 0 25 is_stmt 0
	movq	-32(%rbp), %rax
	movq	-64(%rbp), %rcx
	.loc	4 3251 12
	cmpq	%rcx, %rax
	.loc	4 3251 9
	ja	LBB6_3
	.loc	4 0 9
	movq	-32(%rbp), %rdi
	movq	-40(%rbp), %rsi
	movq	-48(%rbp), %rdx
	.loc	4 3254 20 is_stmt 1
	callq	__ZN103_$LT$core..ops..range..RangeFrom$LT$usize$GT$$u20$as$u20$core..slice..SliceIndex$LT$$u5b$T$u5d$$GT$$GT$13get_unchecked17h719b1819df1be563E
	movq	%rax, -72(%rbp)
	movq	%rdx, -80(%rbp)
	jmp	LBB6_5
LBB6_3:
	.loc	4 0 20 is_stmt 0
	movq	-40(%rbp), %rdi
	movq	-48(%rbp), %rsi
	.loc	4 3252 52 is_stmt 1
	callq	__ZN4core5slice29_$LT$impl$u20$$u5b$T$u5d$$GT$3len17h486ca3fc336839a0E
	movq	%rax, -88(%rbp)
	.loc	4 0 52 is_stmt 0
	movq	-32(%rbp), %rdi
	movq	-88(%rbp), %rsi
	movq	-56(%rbp), %rdx
	.loc	4 3252 13
	callq	__ZN4core5slice26slice_start_index_len_fail17h787e2f1bbfc1d2f3E
LBB6_5:
	.loc	4 0 13
	movq	-72(%rbp), %rax
	movq	-80(%rbp), %rdx
	.loc	4 3255 6 is_stmt 1
	addq	$96, %rsp
	popq	%rbp
	retq
Ltmp19:
Lfunc_end6:
	.cfi_endproc

	.globl	__ZN106_$LT$core..iter..adapters..chain..Chain$LT$A$C$B$GT$$u20$as$u20$core..iter..traits..iterator..Iterator$GT$4fold17h6a91eaeb60863451E
	.p2align	4, 0x90
__ZN106_$LT$core..iter..adapters..chain..Chain$LT$A$C$B$GT$$u20$as$u20$core..iter..traits..iterator..Iterator$GT$4fold17h6a91eaeb60863451E:
Lfunc_begin7:
	.file	5 "/rustc/6c8927b0cf80ceee19386026cf9d7fd4fd9d486f/src/libcore/iter/adapters/chain.rs"
	.loc	5 107 0
	.cfi_startproc
	.cfi_personality 155, _rust_eh_personality
	.cfi_lsda 16, Lexception1
	pushq	%rbp
	.cfi_def_cfa_offset 16
	.cfi_offset %rbp, -16
	movq	%rsp, %rbp
	.cfi_def_cfa_register %rbp
	subq	$144, %rsp
	movq	%rsi, -128(%rbp)
Ltmp28:
	.loc	5 111 9 prologue_end
	movb	$0, -18(%rbp)
	movb	$0, -17(%rbp)
	movb	$0, -19(%rbp)
	movb	$1, -19(%rbp)
	movb	$1, -18(%rbp)
	movb	$1, -17(%rbp)
	.loc	5 111 16 is_stmt 0
	movl	40(%rdi), %eax
	movl	%eax, %ecx
	cmpq	$1, %rcx
	movq	%rdi, -144(%rbp)
Ltmp29:
	je	LBB7_3
	jmp	LBB7_2
Ltmp30:
LBB7_1:
	.loc	5 107 5 is_stmt 1
	movq	-16(%rbp), %rdi
	callq	__Unwind_Resume
	ud2
Ltmp31:
LBB7_2:
	.loc	5 111 9
	jmp	LBB7_6
Ltmp32:
LBB7_3:
	.loc	5 111 21 is_stmt 0
	movb	$0, -18(%rbp)
	movq	-144(%rbp), %rax
	movl	44(%rax), %ecx
	movl	%ecx, -120(%rbp)
Ltmp33:
	.loc	5 112 19 is_stmt 1
	movl	-120(%rbp), %ecx
	movl	%ecx, -112(%rbp)
	movl	-112(%rbp), %edi
Ltmp20:
	leaq	-128(%rbp), %rsi
	callq	__ZN4core4iter6traits8iterator8Iterator4fold17he5e70a940339ef29E
Ltmp21:
	jmp	LBB7_4
Ltmp34:
LBB7_4:
	.loc	5 111 9
	jmp	LBB7_6
Ltmp35:
LBB7_5:
	.loc	5 0 9 is_stmt 0
	movq	-144(%rbp), %rax
	.loc	5 118 5 is_stmt 1
	movl	40(%rax), %ecx
	movl	%ecx, %edx
	cmpq	$1, %rdx
	je	LBB7_15
	jmp	LBB7_14
Ltmp36:
LBB7_6:
	.loc	5 0 5 is_stmt 0
	xorl	%eax, %eax
	movl	%eax, %ecx
	movq	-144(%rbp), %rdx
	.loc	5 114 16 is_stmt 1
	movq	(%rdx), %rsi
	subq	$3, %rsi
	cmpq	$0, %rsi
	movl	$1, %esi
	cmovbeq	%rcx, %rsi
	cmpq	$1, %rsi
	je	LBB7_8
Ltmp37:
	.loc	5 114 9 is_stmt 0
	jmp	LBB7_10
Ltmp38:
LBB7_8:
	.loc	5 114 21
	movb	$0, -19(%rbp)
	movq	-144(%rbp), %rax
	movq	32(%rax), %rcx
	movq	%rcx, -72(%rbp)
	movq	24(%rax), %rcx
	movq	%rcx, -80(%rbp)
	movq	16(%rax), %rcx
	movq	%rcx, -88(%rbp)
	movq	(%rax), %rcx
	movq	8(%rax), %rdx
	movq	%rdx, -96(%rbp)
	movq	%rcx, -104(%rbp)
Ltmp39:
	.loc	5 115 19 is_stmt 1
	movq	-72(%rbp), %rcx
	movq	%rcx, -32(%rbp)
	movq	-80(%rbp), %rcx
	movq	%rcx, -40(%rbp)
	movq	-88(%rbp), %rcx
	movq	%rcx, -48(%rbp)
	movq	-104(%rbp), %rcx
	movq	-96(%rbp), %rdx
	movq	%rdx, -56(%rbp)
	movq	%rcx, -64(%rbp)
	.loc	5 115 31 is_stmt 0
	movb	$0, -17(%rbp)
	movq	-128(%rbp), %rsi
Ltmp22:
	leaq	-64(%rbp), %rdi
	.loc	5 115 19
	callq	__ZN97_$LT$core..iter..adapters..Map$LT$I$C$F$GT$$u20$as$u20$core..iter..traits..iterator..Iterator$GT$4fold17hd73a8d173b8e7026E
Ltmp23:
	jmp	LBB7_9
Ltmp40:
LBB7_9:
	.loc	5 114 9 is_stmt 1
	jmp	LBB7_10
Ltmp41:
LBB7_10:
	.loc	5 118 5
	testb	$1, -17(%rbp)
	jne	LBB7_19
Ltmp42:
LBB7_11:
	.loc	5 0 5 is_stmt 0
	movq	-144(%rbp), %rax
	.loc	5 118 5
	movl	40(%rax), %ecx
	movl	%ecx, %edx
	cmpq	$1, %rdx
	je	LBB7_27
	jmp	LBB7_25
Ltmp43:
LBB7_12:
	testb	$1, -19(%rbp)
	je	LBB7_1
Ltmp44:
	movb	$0, -19(%rbp)
	movq	-144(%rbp), %rax
	movq	%rax, %rdi
	callq	__ZN4core3ptr13drop_in_place17h5a88319fa26caebeE
	jmp	LBB7_1
Ltmp45:
LBB7_14:
	.loc	5 0 5
	xorl	%eax, %eax
	movl	%eax, %ecx
	movq	-144(%rbp), %rdx
	.loc	5 118 5
	movq	(%rdx), %rsi
	subq	$3, %rsi
	cmpq	$0, %rsi
	movl	$1, %esi
	cmovbeq	%rcx, %rsi
	cmpq	$1, %rsi
	je	LBB7_12
	jmp	LBB7_1
Ltmp46:
LBB7_15:
	testb	$1, -18(%rbp)
	je	LBB7_14
Ltmp47:
	movb	$0, -18(%rbp)
	movq	-144(%rbp), %rax
	addq	$40, %rax
	addq	$4, %rax
	movq	%rax, %rdi
	callq	__ZN4core3ptr13drop_in_place17hd07edd9179718de5E
	jmp	LBB7_14
Ltmp48:
LBB7_17:
	movb	$0, -17(%rbp)
	jmp	LBB7_5
Ltmp49:
LBB7_18:
	testb	$1, -17(%rbp)
	jne	LBB7_17
	jmp	LBB7_5
Ltmp50:
LBB7_19:
	movb	$0, -17(%rbp)
	jmp	LBB7_11
Ltmp51:
LBB7_20:
	testb	$1, -19(%rbp)
	je	LBB7_1
Ltmp52:
	movb	$0, -19(%rbp)
	movq	-144(%rbp), %rax
	movq	%rax, %rdi
	callq	__ZN4core3ptr13drop_in_place17h5a88319fa26caebeE
	jmp	LBB7_1
Ltmp53:
LBB7_22:
	.loc	5 118 6
	addq	$144, %rsp
	popq	%rbp
	retq
Ltmp54:
LBB7_23:
	.loc	5 118 5
	testb	$1, -19(%rbp)
	je	LBB7_22
Ltmp55:
	movb	$0, -19(%rbp)
	movq	-144(%rbp), %rax
	movq	%rax, %rdi
	callq	__ZN4core3ptr13drop_in_place17h5a88319fa26caebeE
	jmp	LBB7_22
Ltmp56:
LBB7_25:
	.loc	5 0 5
	xorl	%eax, %eax
	movl	%eax, %ecx
	movq	-144(%rbp), %rdx
	.loc	5 118 5
	movq	(%rdx), %rsi
	subq	$3, %rsi
	cmpq	$0, %rsi
	movl	$1, %esi
	cmovbeq	%rcx, %rsi
	cmpq	$1, %rsi
	je	LBB7_23
	jmp	LBB7_22
Ltmp57:
LBB7_26:
	.loc	5 0 5
	xorl	%eax, %eax
	movl	%eax, %ecx
	movq	-144(%rbp), %rdx
	.loc	5 118 5
	movq	(%rdx), %rsi
	subq	$3, %rsi
	cmpq	$0, %rsi
	movl	$1, %esi
	cmovbeq	%rcx, %rsi
	cmpq	$1, %rsi
	je	LBB7_20
	jmp	LBB7_1
Ltmp58:
LBB7_27:
	testb	$1, -18(%rbp)
	je	LBB7_25
Ltmp59:
	movb	$0, -18(%rbp)
	movq	-144(%rbp), %rax
	addq	$44, %rax
Ltmp25:
	movq	%rax, %rdi
	callq	__ZN4core3ptr13drop_in_place17hd07edd9179718de5E
Ltmp26:
	jmp	LBB7_25
Ltmp60:
LBB7_29:
Ltmp24:
	.loc	5 0 5
	movq	%rax, -16(%rbp)
	movl	%edx, -8(%rbp)
	jmp	LBB7_18
Ltmp61:
LBB7_30:
Ltmp27:
	movq	%rax, -16(%rbp)
	movl	%edx, -8(%rbp)
	jmp	LBB7_26
Lfunc_end7:
	.cfi_endproc
	.section	__TEXT,__gcc_except_tab
	.p2align	2
GCC_except_table7:
Lexception1:
	.byte	255
	.byte	255
	.byte	1
	.uleb128 Lcst_end1-Lcst_begin1
Lcst_begin1:
	.uleb128 Lfunc_begin7-Lfunc_begin7
	.uleb128 Ltmp20-Lfunc_begin7
	.byte	0
	.byte	0
	.uleb128 Ltmp20-Lfunc_begin7
	.uleb128 Ltmp23-Ltmp20
	.uleb128 Ltmp24-Lfunc_begin7
	.byte	0
	.uleb128 Ltmp23-Lfunc_begin7
	.uleb128 Ltmp25-Ltmp23
	.byte	0
	.byte	0
	.uleb128 Ltmp25-Lfunc_begin7
	.uleb128 Ltmp26-Ltmp25
	.uleb128 Ltmp27-Lfunc_begin7
	.byte	0
Lcst_end1:
	.p2align	2

	.section	__TEXT,__text,regular,pure_instructions
	.globl	__ZN106_$LT$core..iter..adapters..flatten..Flatten$LT$I$GT$$u20$as$u20$core..iter..traits..iterator..Iterator$GT$4next17hfeecc1fe0d739855E
	.p2align	4, 0x90
__ZN106_$LT$core..iter..adapters..flatten..Flatten$LT$I$GT$$u20$as$u20$core..iter..traits..iterator..Iterator$GT$4next17hfeecc1fe0d739855E:
Lfunc_begin8:
	.file	6 "/rustc/6c8927b0cf80ceee19386026cf9d7fd4fd9d486f/src/libcore/iter/adapters/flatten.rs"
	.loc	6 172 0 is_stmt 1
	.cfi_startproc
	pushq	%rbp
	.cfi_def_cfa_offset 16
	.cfi_offset %rbp, -16
	movq	%rsp, %rbp
	.cfi_def_cfa_register %rbp
	subq	$16, %rsp
	movq	%rdi, %rax
	movq	%rsi, -8(%rbp)
	movq	%rax, -16(%rbp)
Ltmp62:
	.loc	6 173 9 prologue_end
	callq	__ZN116_$LT$core..iter..adapters..flatten..FlattenCompat$LT$I$C$U$GT$$u20$as$u20$core..iter..traits..iterator..Iterator$GT$4next17h2fbc7efe4297a05cE
	.loc	6 0 9 is_stmt 0
	movq	-16(%rbp), %rax
	.loc	6 174 6 is_stmt 1
	addq	$16, %rsp
	popq	%rbp
	retq
Ltmp63:
Lfunc_end8:
	.cfi_endproc

	.globl	__ZN106_$LT$core..iter..adapters..flatten..Flatten$LT$I$GT$$u20$as$u20$core..iter..traits..iterator..Iterator$GT$9size_hint17h254d33e230580034E
	.p2align	4, 0x90
__ZN106_$LT$core..iter..adapters..flatten..Flatten$LT$I$GT$$u20$as$u20$core..iter..traits..iterator..Iterator$GT$9size_hint17h254d33e230580034E:
Lfunc_begin9:
	.loc	6 177 0
	.cfi_startproc
	pushq	%rbp
	.cfi_def_cfa_offset 16
	.cfi_offset %rbp, -16
	movq	%rsp, %rbp
	.cfi_def_cfa_register %rbp
	subq	$16, %rsp
	movq	%rdi, %rax
	movq	%rsi, -8(%rbp)
	movq	%rax, -16(%rbp)
Ltmp64:
	.loc	6 178 9 prologue_end
	callq	__ZN116_$LT$core..iter..adapters..flatten..FlattenCompat$LT$I$C$U$GT$$u20$as$u20$core..iter..traits..iterator..Iterator$GT$9size_hint17h195ca024206c4291E
	.loc	6 0 9 is_stmt 0
	movq	-16(%rbp), %rax
	.loc	6 179 6 is_stmt 1
	addq	$16, %rsp
	popq	%rbp
	retq
Ltmp65:
Lfunc_end9:
	.cfi_endproc

	.globl	__ZN107_$LT$core..iter..adapters..fuse..Fuse$LT$I$GT$$u20$as$u20$core..iter..adapters..fuse..FuseImpl$LT$I$GT$$GT$4next17ha46e08143ed1ea85E
	.p2align	4, 0x90
__ZN107_$LT$core..iter..adapters..fuse..Fuse$LT$I$GT$$u20$as$u20$core..iter..adapters..fuse..FuseImpl$LT$I$GT$$GT$4next17ha46e08143ed1ea85E:
Lfunc_begin10:
	.loc	2 403 0
	.cfi_startproc
	pushq	%rbp
	.cfi_def_cfa_offset 16
	.cfi_offset %rbp, -16
	movq	%rsp, %rbp
	.cfi_def_cfa_register %rbp
	subq	$48, %rsp
	movq	%rdi, %rax
	movq	%rsi, -16(%rbp)
Ltmp66:
	.loc	2 52 26 prologue_end
	movq	(%rsi), %rcx
	addq	$-3, %rcx
	setne	%dl
	movzbl	%dl, %r8d
	movl	%r8d, %r9d
	movq	%rsi, -24(%rbp)
	movq	%rdi, -32(%rbp)
	movq	%rax, -40(%rbp)
	je	LBB10_1
	jmp	LBB10_5
LBB10_5:
	jmp	LBB10_3
LBB10_1:
	.loc	2 54 45
	ud2
	.loc	2 51 15
	ud2
LBB10_3:
	.loc	2 0 15 is_stmt 0
	movq	-24(%rbp), %rax
	.loc	2 52 31 is_stmt 1
	movq	%rax, -8(%rbp)
	movq	-32(%rbp), %rdi
	.loc	2 404 9
	movq	%rax, %rsi
	callq	__ZN97_$LT$core..iter..adapters..Map$LT$I$C$F$GT$$u20$as$u20$core..iter..traits..iterator..Iterator$GT$4next17hacdc18095e2211b7E
	.loc	2 0 9 is_stmt 0
	movq	-40(%rbp), %rax
	.loc	2 405 6 is_stmt 1
	addq	$48, %rsp
	popq	%rbp
	retq
Ltmp67:
Lfunc_end10:
	.cfi_endproc

	.globl	__ZN107_$LT$core..iter..adapters..fuse..Fuse$LT$I$GT$$u20$as$u20$core..iter..adapters..fuse..FuseImpl$LT$I$GT$$GT$9size_hint17h5a3e7b0567be010fE
	.p2align	4, 0x90
__ZN107_$LT$core..iter..adapters..fuse..Fuse$LT$I$GT$$u20$as$u20$core..iter..adapters..fuse..FuseImpl$LT$I$GT$$GT$9size_hint17h5a3e7b0567be010fE:
Lfunc_begin11:
	.loc	2 423 0
	.cfi_startproc
	pushq	%rbp
	.cfi_def_cfa_offset 16
	.cfi_offset %rbp, -16
	movq	%rsp, %rbp
	.cfi_def_cfa_register %rbp
	subq	$48, %rsp
	movq	%rdi, %rax
	movq	%rsi, -16(%rbp)
Ltmp68:
	.loc	2 52 26 prologue_end
	movq	(%rsi), %rcx
	addq	$-3, %rcx
	setne	%dl
	movzbl	%dl, %r8d
	movl	%r8d, %r9d
	movq	%rsi, -24(%rbp)
	movq	%rdi, -32(%rbp)
	movq	%rax, -40(%rbp)
	je	LBB11_1
	jmp	LBB11_5
LBB11_5:
	jmp	LBB11_3
LBB11_1:
	.loc	2 54 45
	ud2
	.loc	2 51 15
	ud2
LBB11_3:
	.loc	2 0 15 is_stmt 0
	movq	-24(%rbp), %rax
	.loc	2 52 31 is_stmt 1
	movq	%rax, -8(%rbp)
	movq	-32(%rbp), %rdi
	.loc	2 424 9
	movq	%rax, %rsi
	callq	__ZN97_$LT$core..iter..adapters..Map$LT$I$C$F$GT$$u20$as$u20$core..iter..traits..iterator..Iterator$GT$9size_hint17h29414b2dc4c06747E
	.loc	2 0 9 is_stmt 0
	movq	-40(%rbp), %rax
	.loc	2 425 6 is_stmt 1
	addq	$48, %rsp
	popq	%rbp
	retq
Ltmp69:
Lfunc_end11:
	.cfi_endproc

	.globl	__ZN110_$LT$proc_macro..TokenStream$u20$as$u20$core..iter..traits..collect..Extend$LT$proc_macro..TokenStream$GT$$GT$6extend17h34bc44646319598aE
	.p2align	4, 0x90
__ZN110_$LT$proc_macro..TokenStream$u20$as$u20$core..iter..traits..collect..Extend$LT$proc_macro..TokenStream$GT$$GT$6extend17h34bc44646319598aE:
Lfunc_begin12:
	.file	7 "/rustc/6c8927b0cf80ceee19386026cf9d7fd4fd9d486f/src/libproc_macro/lib.rs"
	.loc	7 214 0
	.cfi_startproc
	.cfi_personality 155, _rust_eh_personality
	.cfi_lsda 16, Lexception2
	pushq	%rbp
	.cfi_def_cfa_offset 16
	.cfi_offset %rbp, -16
	movq	%rsp, %rbp
	.cfi_def_cfa_register %rbp
	subq	$208, %rsp
	movq	%rdi, -40(%rbp)
Ltmp84:
	.loc	7 216 17 prologue_end
	movb	$0, -41(%rbp)
	movb	$1, -41(%rbp)
Ltmp70:
	movq	%rdi, -176(%rbp)
	movq	%rsi, -184(%rbp)
Ltmp85:
	.loc	7 216 47 is_stmt 0
	callq	__ZN10proc_macro11TokenStream3new17h5639692116516cb4E
Ltmp71:
	movl	%eax, -188(%rbp)
	jmp	LBB12_2
Ltmp86:
LBB12_1:
	.loc	7 214 5 is_stmt 1
	movq	-32(%rbp), %rdi
	callq	__Unwind_Resume
	ud2
Ltmp87:
LBB12_2:
	.loc	7 0 5 is_stmt 0
	movl	-188(%rbp), %eax
	.loc	7 216 47 is_stmt 1
	movl	%eax, -16(%rbp)
	movl	-16(%rbp), %ecx
	movl	%ecx, -96(%rbp)
	.loc	7 216 28 is_stmt 0
	movl	-96(%rbp), %esi
Ltmp72:
	movq	-176(%rbp), %rdi
	callq	__ZN4core3mem7replace17hb4e2acb5338f7514E
Ltmp73:
	movl	%eax, -192(%rbp)
	jmp	LBB12_3
Ltmp88:
LBB12_3:
	.loc	7 0 28
	movl	-192(%rbp), %eax
	.loc	7 216 28
	movl	%eax, -12(%rbp)
	movl	-12(%rbp), %ecx
	movl	%ecx, -104(%rbp)
	.loc	7 216 17
	movl	-104(%rbp), %edi
Ltmp74:
	callq	__ZN4core4iter7sources4once17h4f8fb34b75dbac7bE
Ltmp75:
	movl	%eax, -196(%rbp)
	jmp	LBB12_4
Ltmp89:
LBB12_4:
	.loc	7 0 17
	movl	-196(%rbp), %eax
	.loc	7 216 17
	movl	%eax, -8(%rbp)
	movl	-8(%rbp), %ecx
	movl	%ecx, -112(%rbp)
	.loc	7 216 67
	movb	$0, -41(%rbp)
	movq	-184(%rbp), %rdx
	movq	32(%rdx), %rsi
	movq	%rsi, -56(%rbp)
	movq	24(%rdx), %rsi
	movq	%rsi, -64(%rbp)
	movq	16(%rdx), %rsi
	movq	%rsi, -72(%rbp)
	movq	(%rdx), %rsi
	movq	8(%rdx), %rdi
	movq	%rdi, -80(%rbp)
	movq	%rsi, -88(%rbp)
	.loc	7 216 17
	movl	-112(%rbp), %esi
Ltmp76:
	leaq	-160(%rbp), %rdi
	leaq	-88(%rbp), %rdx
	callq	__ZN4core4iter6traits8iterator8Iterator5chain17he260cbddf4b25baaE
Ltmp77:
	jmp	LBB12_5
Ltmp90:
LBB12_5:
Ltmp78:
	.loc	7 0 17
	leaq	-160(%rbp), %rdi
	.loc	7 216 17
	callq	__ZN4core4iter6traits8iterator8Iterator7collect17hb980d4603ebfbda5E
Ltmp79:
	movl	%eax, -200(%rbp)
	jmp	LBB12_6
Ltmp91:
LBB12_6:
	.loc	7 0 17
	movl	-200(%rbp), %eax
	.loc	7 216 17
	movl	%eax, -4(%rbp)
	movl	-4(%rbp), %ecx
	movl	%ecx, -168(%rbp)
Ltmp81:
	movq	-176(%rbp), %rdi
	.loc	7 216 9
	callq	__ZN4core3ptr13drop_in_place17had009a0e6ed3f2eeE
Ltmp82:
	jmp	LBB12_10
Ltmp92:
LBB12_7:
	.loc	7 217 5 is_stmt 1
	movb	$0, -41(%rbp)
	movq	-184(%rbp), %rdi
	callq	__ZN4core3ptr13drop_in_place17h5a88319fa26caebeE
	jmp	LBB12_1
Ltmp93:
LBB12_8:
	testb	$1, -41(%rbp)
	jne	LBB12_7
	jmp	LBB12_1
Ltmp94:
LBB12_9:
	.loc	7 216 9
	movl	-168(%rbp), %eax
	movq	-176(%rbp), %rcx
	movl	%eax, (%rcx)
	jmp	LBB12_8
Ltmp95:
LBB12_10:
	movl	-168(%rbp), %eax
	movq	-176(%rbp), %rcx
	movl	%eax, (%rcx)
	.loc	7 217 6
	addq	$208, %rsp
	popq	%rbp
	retq
Ltmp96:
LBB12_11:
Ltmp80:
	.loc	7 0 6 is_stmt 0
	movq	%rax, -32(%rbp)
	movl	%edx, -24(%rbp)
	jmp	LBB12_8
Ltmp97:
LBB12_12:
Ltmp83:
	movq	%rax, -32(%rbp)
	movl	%edx, -24(%rbp)
	jmp	LBB12_9
Lfunc_end12:
	.cfi_endproc
	.section	__TEXT,__gcc_except_tab
	.p2align	2
GCC_except_table12:
Lexception2:
	.byte	255
	.byte	255
	.byte	1
	.uleb128 Lcst_end2-Lcst_begin2
Lcst_begin2:
	.uleb128 Ltmp70-Lfunc_begin12
	.uleb128 Ltmp71-Ltmp70
	.uleb128 Ltmp80-Lfunc_begin12
	.byte	0
	.uleb128 Ltmp71-Lfunc_begin12
	.uleb128 Ltmp72-Ltmp71
	.byte	0
	.byte	0
	.uleb128 Ltmp72-Lfunc_begin12
	.uleb128 Ltmp79-Ltmp72
	.uleb128 Ltmp80-Lfunc_begin12
	.byte	0
	.uleb128 Ltmp81-Lfunc_begin12
	.uleb128 Ltmp82-Ltmp81
	.uleb128 Ltmp83-Lfunc_begin12
	.byte	0
	.uleb128 Ltmp82-Lfunc_begin12
	.uleb128 Lfunc_end12-Ltmp82
	.byte	0
	.byte	0
Lcst_end2:
	.p2align	2

	.section	__TEXT,__text,regular,pure_instructions
	.globl	__ZN110_$LT$proc_macro2..TokenStream$u20$as$u20$core..iter..traits..collect..Extend$LT$proc_macro2..TokenTree$GT$$GT$6extend17h328ea85857d752faE
	.p2align	4, 0x90
__ZN110_$LT$proc_macro2..TokenStream$u20$as$u20$core..iter..traits..collect..Extend$LT$proc_macro2..TokenTree$GT$$GT$6extend17h328ea85857d752faE:
Lfunc_begin13:
	.file	8 "/Users/yingyuhang/.cargo/registry/src/github.com-1ecc6299db9ec823/proc-macro2-1.0.18/src/lib.rs"
	.loc	8 210 0 is_stmt 1
	.cfi_startproc
	pushq	%rbp
	.cfi_def_cfa_offset 16
	.cfi_offset %rbp, -16
	movq	%rsp, %rbp
	.cfi_def_cfa_register %rbp
	subq	$64, %rsp
	movq	%rdi, -8(%rbp)
Ltmp98:
	.loc	8 211 27 prologue_end
	leaq	-48(%rbp), %rax
	movq	%rax, %rcx
	movq	%rdi, -56(%rbp)
	movq	%rcx, %rdi
	movl	$40, %edx
	movq	%rax, -64(%rbp)
	callq	_memcpy
Ltmp99:
	.loc	8 0 27 is_stmt 0
	movq	-56(%rbp), %rdi
	movq	-64(%rbp), %rsi
	.loc	8 211 9
	callq	__ZN115_$LT$proc_macro2..imp..TokenStream$u20$as$u20$core..iter..traits..collect..Extend$LT$proc_macro2..TokenTree$GT$$GT$6extend17h0d3694d1d6392943E
	.loc	8 212 6 is_stmt 1
	addq	$64, %rsp
	popq	%rbp
	retq
Ltmp100:
Lfunc_end13:
	.cfi_endproc

	.globl	__ZN110_$LT$proc_macro2..TokenStream$u20$as$u20$core..iter..traits..collect..Extend$LT$proc_macro2..TokenTree$GT$$GT$6extend17hb7141243afa1ff81E
	.p2align	4, 0x90
__ZN110_$LT$proc_macro2..TokenStream$u20$as$u20$core..iter..traits..collect..Extend$LT$proc_macro2..TokenTree$GT$$GT$6extend17hb7141243afa1ff81E:
Lfunc_begin14:
	.loc	8 210 0
	.cfi_startproc
	pushq	%rbp
	.cfi_def_cfa_offset 16
	.cfi_offset %rbp, -16
	movq	%rsp, %rbp
	.cfi_def_cfa_register %rbp
	subq	$80, %rsp
	movq	%rdi, -8(%rbp)
Ltmp101:
	.loc	8 211 27 prologue_end
	leaq	-56(%rbp), %rax
	movq	%rax, %rcx
	movq	%rdi, -64(%rbp)
	movq	%rcx, %rdi
	movl	$48, %edx
	movq	%rax, -72(%rbp)
	callq	_memcpy
Ltmp102:
	.loc	8 0 27 is_stmt 0
	movq	-64(%rbp), %rdi
	movq	-72(%rbp), %rsi
	.loc	8 211 9
	callq	__ZN115_$LT$proc_macro2..imp..TokenStream$u20$as$u20$core..iter..traits..collect..Extend$LT$proc_macro2..TokenTree$GT$$GT$6extend17he4f473b7cd89b6b1E
	.loc	8 212 6 is_stmt 1
	addq	$80, %rsp
	popq	%rbp
	retq
Ltmp103:
Lfunc_end14:
	.cfi_endproc

	.globl	__ZN110_$LT$proc_macro2..TokenStream$u20$as$u20$core..iter..traits..collect..Extend$LT$proc_macro2..TokenTree$GT$$GT$6extend17he2564652bf1e8c6bE
	.p2align	4, 0x90
__ZN110_$LT$proc_macro2..TokenStream$u20$as$u20$core..iter..traits..collect..Extend$LT$proc_macro2..TokenTree$GT$$GT$6extend17he2564652bf1e8c6bE:
Lfunc_begin15:
	.loc	8 210 0
	.cfi_startproc
	pushq	%rbp
	.cfi_def_cfa_offset 16
	.cfi_offset %rbp, -16
	movq	%rsp, %rbp
	.cfi_def_cfa_register %rbp
	subq	$80, %rsp
	movq	%rdi, -8(%rbp)
Ltmp104:
	.loc	8 211 27 prologue_end
	leaq	-56(%rbp), %rax
	movq	%rax, %rcx
	movq	%rdi, -64(%rbp)
	movq	%rcx, %rdi
	movl	$48, %edx
	movq	%rax, -72(%rbp)
	callq	_memcpy
Ltmp105:
	.loc	8 0 27 is_stmt 0
	movq	-64(%rbp), %rdi
	movq	-72(%rbp), %rsi
	.loc	8 211 9
	callq	__ZN115_$LT$proc_macro2..imp..TokenStream$u20$as$u20$core..iter..traits..collect..Extend$LT$proc_macro2..TokenTree$GT$$GT$6extend17h798eba54a4ce9205E
	.loc	8 212 6 is_stmt 1
	addq	$80, %rsp
	popq	%rbp
	retq
Ltmp106:
Lfunc_end15:
	.cfi_endproc

	.globl	__ZN112_$LT$proc_macro2..TokenStream$u20$as$u20$core..iter..traits..collect..Extend$LT$proc_macro2..TokenStream$GT$$GT$6extend17h224996109b43b310E
	.p2align	4, 0x90
__ZN112_$LT$proc_macro2..TokenStream$u20$as$u20$core..iter..traits..collect..Extend$LT$proc_macro2..TokenStream$GT$$GT$6extend17h224996109b43b310E:
Lfunc_begin16:
	.loc	8 216 0
	.cfi_startproc
	pushq	%rbp
	.cfi_def_cfa_offset 16
	.cfi_offset %rbp, -16
	movq	%rsp, %rbp
	.cfi_def_cfa_register %rbp
	subq	$160, %rsp
	movq	%rdi, -8(%rbp)
Ltmp107:
	.loc	8 218 21 prologue_end
	leaq	-56(%rbp), %rax
	movq	%rax, %rcx
	movq	%rdi, -144(%rbp)
	movq	%rcx, %rdi
	movl	$40, %edx
	movq	%rax, -152(%rbp)
	callq	_memcpy
Ltmp108:
	leaq	-96(%rbp), %rdi
	movq	-152(%rbp), %rsi
	callq	__ZN63_$LT$I$u20$as$u20$core..iter..traits..collect..IntoIterator$GT$9into_iter17h75c583f5444b80afE
	leaq	-136(%rbp), %rdi
	leaq	-96(%rbp), %rsi
	callq	__ZN4core4iter6traits8iterator8Iterator3map17haaf9553c33fc59a1E
	.loc	8 0 21 is_stmt 0
	movq	-144(%rbp), %rdi
	.loc	8 217 9 is_stmt 1
	leaq	-136(%rbp), %rsi
	callq	__ZN122_$LT$proc_macro2..imp..TokenStream$u20$as$u20$core..iter..traits..collect..Extend$LT$proc_macro2..imp..TokenStream$GT$$GT$6extend17h461dbb02ab4dcb75E
	.loc	8 219 6
	addq	$160, %rsp
	popq	%rbp
	retq
Ltmp109:
Lfunc_end16:
	.cfi_endproc

	.globl	__ZN112_$LT$proc_macro2..TokenStream$u20$as$u20$core..iter..traits..collect..Extend$LT$proc_macro2..TokenStream$GT$$GT$6extend28_$u7b$$u7b$closure$u7d$$u7d$17hef7510ee4ccd0cf5E
	.p2align	4, 0x90
__ZN112_$LT$proc_macro2..TokenStream$u20$as$u20$core..iter..traits..collect..Extend$LT$proc_macro2..TokenStream$GT$$GT$6extend28_$u7b$$u7b$closure$u7d$$u7d$17hef7510ee4ccd0cf5E:
Lfunc_begin17:
	.loc	8 218 0
	.cfi_startproc
	pushq	%rbp
	.cfi_def_cfa_offset 16
	.cfi_offset %rbp, -16
	movq	%rsp, %rbp
	.cfi_def_cfa_register %rbp
	subq	$16, %rsp
	movq	%rdi, %rax
	movq	%rsi, -8(%rbp)
Ltmp110:
	.loc	8 218 54 prologue_end
	movq	%rdx, %rsi
	movl	$40, %edx
Ltmp111:
	.loc	8 0 54 is_stmt 0
	movq	%rax, -16(%rbp)
	.loc	8 218 54
	callq	_memcpy
	movq	-16(%rbp), %rax
	.loc	8 218 66
	addq	$16, %rsp
	popq	%rbp
	retq
Ltmp112:
Lfunc_end17:
	.cfi_endproc

	.p2align	4, 0x90
__ZN113_$LT$alloc..string..String$u20$as$u20$core..ops..index..Index$LT$core..ops..range..RangeFrom$LT$usize$GT$$GT$$GT$5index17hcf10c4b8cfda5e6eE:
Lfunc_begin18:
	.loc	1 2054 0 is_stmt 1
	.cfi_startproc
	pushq	%rbp
	.cfi_def_cfa_offset 16
	.cfi_offset %rbp, -16
	movq	%rsp, %rbp
	.cfi_def_cfa_register %rbp
	subq	$64, %rsp
	movq	%rdi, -16(%rbp)
	movq	%rsi, -8(%rbp)
	movq	%rsi, -24(%rbp)
Ltmp113:
	.loc	1 2055 10 prologue_end
	movq	%rdx, %rsi
	movq	%rdx, -32(%rbp)
	callq	__ZN100_$LT$alloc..string..String$u20$as$u20$core..ops..index..Index$LT$core..ops..range..RangeFull$GT$$GT$5index17h2d262b002e1435a0E
	movq	%rax, -40(%rbp)
	movq	%rdx, -48(%rbp)
	.loc	1 0 10 is_stmt 0
	movq	-40(%rbp), %rdi
	movq	-48(%rbp), %rsi
	movq	-24(%rbp), %rdx
	movq	-32(%rbp), %rcx
	.loc	1 2055 10
	callq	__ZN4core3str6traits66_$LT$impl$u20$core..ops..index..Index$LT$I$GT$$u20$for$u20$str$GT$5index17hb4e5d2663708b7daE
	movq	%rax, -56(%rbp)
	movq	%rdx, -64(%rbp)
	.loc	1 0 10
	movq	-56(%rbp), %rax
	movq	-64(%rbp), %rdx
	.loc	1 2056 6 is_stmt 1
	addq	$64, %rsp
	popq	%rbp
	retq
Ltmp114:
Lfunc_end18:
	.cfi_endproc

	.globl	__ZN115_$LT$proc_macro2..imp..TokenStream$u20$as$u20$core..iter..traits..collect..Extend$LT$proc_macro2..TokenTree$GT$$GT$6extend17h0d3694d1d6392943E
	.p2align	4, 0x90
__ZN115_$LT$proc_macro2..imp..TokenStream$u20$as$u20$core..iter..traits..collect..Extend$LT$proc_macro2..TokenTree$GT$$GT$6extend17h0d3694d1d6392943E:
Lfunc_begin19:
	.file	9 "/Users/yingyuhang/.cargo/registry/src/github.com-1ecc6299db9ec823/proc-macro2-1.0.18/src/wrapper.rs"
	.loc	9 204 0
	.cfi_startproc
	pushq	%rbp
	.cfi_def_cfa_offset 16
	.cfi_offset %rbp, -16
	movq	%rsp, %rbp
	.cfi_def_cfa_register %rbp
	subq	$240, %rsp
	movq	%rdi, -24(%rbp)
Ltmp115:
	.loc	9 206 13 prologue_end
	movq	(%rdi), %rax
	testq	%rax, %rax
	movq	%rdi, -200(%rbp)
	movq	%rsi, -208(%rbp)
Ltmp116:
	je	LBB19_3
	jmp	LBB19_9
Ltmp117:
LBB19_9:
	.loc	9 0 13 is_stmt 0
	movq	-200(%rbp), %rax
	.loc	9 211 35 is_stmt 1
	addq	$8, %rax
	movq	%rax, -16(%rbp)
Ltmp118:
	.loc	9 211 54 is_stmt 0
	leaq	-64(%rbp), %rcx
	movq	%rcx, %rdx
	movq	-208(%rbp), %rsi
	movq	%rdx, %rdi
	movl	$40, %edx
	movq	%rax, -216(%rbp)
	movq	%rcx, -224(%rbp)
	callq	_memcpy
	movq	-216(%rbp), %rdi
	movq	-224(%rbp), %rsi
	.loc	9 211 43
	callq	__ZN120_$LT$proc_macro2..fallback..TokenStream$u20$as$u20$core..iter..traits..collect..Extend$LT$proc_macro2..TokenTree$GT$$GT$6extend17hba2fc4405435d799E
	jmp	LBB19_7
Ltmp119:
	.loc	9 205 15 is_stmt 1
	ud2
LBB19_3:
Ltmp120:
	.loc	9 0 15 is_stmt 0
	movq	-200(%rbp), %rax
	.loc	9 206 35 is_stmt 1
	addq	$8, %rax
	movq	%rax, -8(%rbp)
Ltmp121:
	.loc	9 209 29
	leaq	-104(%rbp), %rcx
	movq	%rcx, %rdx
	movq	-208(%rbp), %rsi
	movq	%rdx, %rdi
	movl	$40, %edx
	movq	%rax, -232(%rbp)
	movq	%rcx, -240(%rbp)
	callq	_memcpy
	leaq	-144(%rbp), %rdi
	movq	-240(%rbp), %rsi
	callq	__ZN11proc_macro212token_stream96_$LT$impl$u20$core..iter..traits..collect..IntoIterator$u20$for$u20$proc_macro2..TokenStream$GT$9into_iter17h8ac8df0c7f6c8753E
Ltmp122:
	leaq	-184(%rbp), %rdi
	leaq	-144(%rbp), %rsi
	callq	__ZN4core4iter6traits8iterator8Iterator3map17hf20f9130d0639ec5E
Ltmp123:
	.loc	9 0 29 is_stmt 0
	movq	-232(%rbp), %rdi
	.loc	9 208 17 is_stmt 1
	leaq	-184(%rbp), %rsi
	callq	__ZN89_$LT$alloc..vec..Vec$LT$T$GT$$u20$as$u20$core..iter..traits..collect..Extend$LT$T$GT$$GT$6extend17h08a8f78fc74548aeE
Ltmp124:
	.loc	9 205 9
	jmp	LBB19_8
Ltmp125:
LBB19_7:
	jmp	LBB19_8
Ltmp126:
LBB19_8:
	.loc	9 213 6
	addq	$240, %rsp
	popq	%rbp
	retq
Ltmp127:
Lfunc_end19:
	.cfi_endproc

	.globl	__ZN115_$LT$proc_macro2..imp..TokenStream$u20$as$u20$core..iter..traits..collect..Extend$LT$proc_macro2..TokenTree$GT$$GT$6extend17h798eba54a4ce9205E
	.p2align	4, 0x90
__ZN115_$LT$proc_macro2..imp..TokenStream$u20$as$u20$core..iter..traits..collect..Extend$LT$proc_macro2..TokenTree$GT$$GT$6extend17h798eba54a4ce9205E:
Lfunc_begin20:
	.loc	9 204 0
	.cfi_startproc
	pushq	%rbp
	.cfi_def_cfa_offset 16
	.cfi_offset %rbp, -16
	movq	%rsp, %rbp
	.cfi_def_cfa_register %rbp
	subq	$272, %rsp
	movq	%rdi, -24(%rbp)
Ltmp128:
	.loc	9 206 13 prologue_end
	movq	(%rdi), %rax
	testq	%rax, %rax
	movq	%rdi, -232(%rbp)
	movq	%rsi, -240(%rbp)
Ltmp129:
	je	LBB20_3
	jmp	LBB20_9
Ltmp130:
LBB20_9:
	.loc	9 0 13 is_stmt 0
	movq	-232(%rbp), %rax
	.loc	9 211 35 is_stmt 1
	addq	$8, %rax
	movq	%rax, -16(%rbp)
Ltmp131:
	.loc	9 211 54 is_stmt 0
	leaq	-72(%rbp), %rcx
	movq	%rcx, %rdx
	movq	-240(%rbp), %rsi
	movq	%rdx, %rdi
	movl	$48, %edx
	movq	%rax, -248(%rbp)
	movq	%rcx, -256(%rbp)
	callq	_memcpy
	movq	-248(%rbp), %rdi
	movq	-256(%rbp), %rsi
	.loc	9 211 43
	callq	__ZN120_$LT$proc_macro2..fallback..TokenStream$u20$as$u20$core..iter..traits..collect..Extend$LT$proc_macro2..TokenTree$GT$$GT$6extend17h87c6c4ed72822fe1E
	jmp	LBB20_7
Ltmp132:
	.loc	9 205 15 is_stmt 1
	ud2
LBB20_3:
Ltmp133:
	.loc	9 0 15 is_stmt 0
	movq	-232(%rbp), %rax
	.loc	9 206 35 is_stmt 1
	addq	$8, %rax
	movq	%rax, -8(%rbp)
Ltmp134:
	.loc	9 209 29
	leaq	-120(%rbp), %rcx
	movq	%rcx, %rdx
	movq	-240(%rbp), %rsi
	movq	%rdx, %rdi
	movl	$48, %edx
	movq	%rax, -264(%rbp)
	movq	%rcx, -272(%rbp)
	callq	_memcpy
	leaq	-168(%rbp), %rdi
	movq	-272(%rbp), %rsi
	callq	__ZN63_$LT$I$u20$as$u20$core..iter..traits..collect..IntoIterator$GT$9into_iter17h028a686d29e5a494E
Ltmp135:
	leaq	-216(%rbp), %rdi
	leaq	-168(%rbp), %rsi
	callq	__ZN4core4iter6traits8iterator8Iterator3map17hf646d101500dd201E
Ltmp136:
	.loc	9 0 29 is_stmt 0
	movq	-264(%rbp), %rdi
	.loc	9 208 17 is_stmt 1
	leaq	-216(%rbp), %rsi
	callq	__ZN89_$LT$alloc..vec..Vec$LT$T$GT$$u20$as$u20$core..iter..traits..collect..Extend$LT$T$GT$$GT$6extend17hbd2d5f1c49078ffdE
Ltmp137:
	.loc	9 205 9
	jmp	LBB20_8
Ltmp138:
LBB20_7:
	jmp	LBB20_8
Ltmp139:
LBB20_8:
	.loc	9 213 6
	addq	$272, %rsp
	popq	%rbp
	retq
Ltmp140:
Lfunc_end20:
	.cfi_endproc

	.globl	__ZN115_$LT$proc_macro2..imp..TokenStream$u20$as$u20$core..iter..traits..collect..Extend$LT$proc_macro2..TokenTree$GT$$GT$6extend17he4f473b7cd89b6b1E
	.p2align	4, 0x90
__ZN115_$LT$proc_macro2..imp..TokenStream$u20$as$u20$core..iter..traits..collect..Extend$LT$proc_macro2..TokenTree$GT$$GT$6extend17he4f473b7cd89b6b1E:
Lfunc_begin21:
	.loc	9 204 0
	.cfi_startproc
	pushq	%rbp
	.cfi_def_cfa_offset 16
	.cfi_offset %rbp, -16
	movq	%rsp, %rbp
	.cfi_def_cfa_register %rbp
	subq	$272, %rsp
	movq	%rdi, -24(%rbp)
Ltmp141:
	.loc	9 206 13 prologue_end
	movq	(%rdi), %rax
	testq	%rax, %rax
	movq	%rdi, -232(%rbp)
	movq	%rsi, -240(%rbp)
Ltmp142:
	je	LBB21_3
	jmp	LBB21_9
Ltmp143:
LBB21_9:
	.loc	9 0 13 is_stmt 0
	movq	-232(%rbp), %rax
	.loc	9 211 35 is_stmt 1
	addq	$8, %rax
	movq	%rax, -16(%rbp)
Ltmp144:
	.loc	9 211 54 is_stmt 0
	leaq	-72(%rbp), %rcx
	movq	%rcx, %rdx
	movq	-240(%rbp), %rsi
	movq	%rdx, %rdi
	movl	$48, %edx
	movq	%rax, -248(%rbp)
	movq	%rcx, -256(%rbp)
	callq	_memcpy
	movq	-248(%rbp), %rdi
	movq	-256(%rbp), %rsi
	.loc	9 211 43
	callq	__ZN120_$LT$proc_macro2..fallback..TokenStream$u20$as$u20$core..iter..traits..collect..Extend$LT$proc_macro2..TokenTree$GT$$GT$6extend17h9fb58177c4251585E
	jmp	LBB21_7
Ltmp145:
	.loc	9 205 15 is_stmt 1
	ud2
LBB21_3:
Ltmp146:
	.loc	9 0 15 is_stmt 0
	movq	-232(%rbp), %rax
	.loc	9 206 35 is_stmt 1
	addq	$8, %rax
	movq	%rax, -8(%rbp)
Ltmp147:
	.loc	9 209 29
	leaq	-120(%rbp), %rcx
	movq	%rcx, %rdx
	movq	-240(%rbp), %rsi
	movq	%rdx, %rdi
	movl	$48, %edx
	movq	%rax, -264(%rbp)
	movq	%rcx, -272(%rbp)
	callq	_memcpy
	leaq	-168(%rbp), %rdi
	movq	-272(%rbp), %rsi
	callq	__ZN63_$LT$I$u20$as$u20$core..iter..traits..collect..IntoIterator$GT$9into_iter17hd714be21dd1f6821E
Ltmp148:
	leaq	-216(%rbp), %rdi
	leaq	-168(%rbp), %rsi
	callq	__ZN4core4iter6traits8iterator8Iterator3map17hca7dc850fdb2ab20E
Ltmp149:
	.loc	9 0 29 is_stmt 0
	movq	-264(%rbp), %rdi
	.loc	9 208 17 is_stmt 1
	leaq	-216(%rbp), %rsi
	callq	__ZN89_$LT$alloc..vec..Vec$LT$T$GT$$u20$as$u20$core..iter..traits..collect..Extend$LT$T$GT$$GT$6extend17h0cf7aabd92baeff7E
Ltmp150:
	.loc	9 205 9
	jmp	LBB21_8
Ltmp151:
LBB21_7:
	jmp	LBB21_8
Ltmp152:
LBB21_8:
	.loc	9 213 6
	addq	$272, %rsp
	popq	%rbp
	retq
Ltmp153:
Lfunc_end21:
	.cfi_endproc

	.globl	__ZN116_$LT$core..iter..adapters..flatten..FlattenCompat$LT$I$C$U$GT$$u20$as$u20$core..iter..traits..iterator..Iterator$GT$4next17h2fbc7efe4297a05cE
	.p2align	4, 0x90
__ZN116_$LT$core..iter..adapters..flatten..FlattenCompat$LT$I$C$U$GT$$u20$as$u20$core..iter..traits..iterator..Iterator$GT$4next17h2fbc7efe4297a05cE:
Lfunc_begin22:
	.loc	6 264 0
	.cfi_startproc
	.cfi_personality 155, _rust_eh_personality
	.cfi_lsda 16, Lexception3
	pushq	%rbp
	.cfi_def_cfa_offset 16
	.cfi_offset %rbp, -16
	movq	%rsp, %rbp
	.cfi_def_cfa_register %rbp
	subq	$384, %rsp
	movq	%rdi, %rax
	movq	%rsi, -48(%rbp)
	movq	%rsi, -328(%rbp)
	movq	%rdi, -336(%rbp)
	movq	%rax, -344(%rbp)
LBB22_1:
	xorl	%eax, %eax
	movl	%eax, %ecx
	movq	-328(%rbp), %rdx
Ltmp173:
	.loc	6 266 20 prologue_end
	cmpq	$0, 40(%rdx)
	movl	$1, %esi
	cmovbeq	%rcx, %rsi
	cmpq	$1, %rsi
	je	LBB22_4
	jmp	LBB22_3
LBB22_2:
	.loc	6 264 5
	movq	-24(%rbp), %rdi
	callq	__Unwind_Resume
	ud2
LBB22_3:
	.loc	6 266 13
	jmp	LBB22_11
LBB22_4:
	.loc	6 0 13 is_stmt 0
	movq	-328(%rbp), %rax
	.loc	6 266 25
	addq	$40, %rax
	movq	%rax, -32(%rbp)
Ltmp174:
	.loc	6 267 23 is_stmt 1
	leaq	-320(%rbp), %rdi
	movq	%rax, %rsi
	callq	__ZN88_$LT$alloc..vec..IntoIter$LT$T$GT$$u20$as$u20$core..iter..traits..iterator..Iterator$GT$4next17hb9bea414dfb5ff29E
	.loc	6 268 21
	movl	-320(%rbp), %eax
	addl	$-4, %eax
	setne	%cl
	movzbl	%cl, %edx
	movl	%edx, %esi
	je	LBB22_8
	jmp	LBB22_34
LBB22_34:
	.loc	6 269 21
	leaq	-240(%rbp), %rax
	movq	%rax, %rcx
	leaq	-320(%rbp), %rdx
	movq	%rcx, %rdi
	movq	%rdx, %rsi
	movl	$48, %ecx
	movq	%rcx, %rdx
	movq	%rax, -352(%rbp)
	movq	%rcx, -360(%rbp)
	callq	_memcpy
	movq	-336(%rbp), %rax
	movq	-352(%rbp), %rcx
Ltmp175:
	.loc	6 269 45 is_stmt 0
	movq	%rax, %rdi
	movq	%rcx, %rsi
	movq	-360(%rbp), %rdx
	callq	_memcpy
Ltmp176:
	.loc	6 269 38
	jmp	LBB22_9
Ltmp177:
	.loc	6 267 23 is_stmt 1
	ud2
LBB22_8:
	.loc	6 268 46
	movq	$0, -272(%rbp)
	movq	-328(%rbp), %rax
	.loc	6 268 29 is_stmt 0
	addq	$40, %rax
Ltmp154:
	movq	%rax, %rdi
	callq	__ZN4core3ptr13drop_in_place17h4808e45223a68d66E
Ltmp155:
	jmp	LBB22_27
Ltmp178:
LBB22_9:
	.loc	6 0 29
	movq	-344(%rbp), %rax
	.loc	6 277 6 is_stmt 1
	addq	$384, %rsp
	popq	%rbp
	retq
LBB22_10:
	.loc	6 266 13
	jmp	LBB22_11
LBB22_11:
	.loc	6 0 13 is_stmt 0
	movq	-328(%rbp), %rax
	.loc	6 272 19 is_stmt 1
	leaq	-192(%rbp), %rdi
	movq	%rax, %rsi
	callq	__ZN100_$LT$core..iter..adapters..fuse..Fuse$LT$I$GT$$u20$as$u20$core..iter..traits..iterator..Iterator$GT$4next17h698e92fb50e236f6E
	.loc	6 273 17
	movq	-192(%rbp), %rax
	testq	%rax, %rax
	setne	%cl
	movzbl	%cl, %edx
	movl	%edx, %eax
	je	LBB22_15
	jmp	LBB22_35
LBB22_35:
	.loc	6 274 22
	movq	-176(%rbp), %rax
	movq	%rax, -144(%rbp)
	movq	-192(%rbp), %rax
	movq	-184(%rbp), %rcx
	movq	%rcx, -152(%rbp)
	movq	%rax, -160(%rbp)
Ltmp179:
	.loc	6 274 54 is_stmt 0
	movq	-144(%rbp), %rax
	movq	%rax, -56(%rbp)
	movq	-160(%rbp), %rax
	movq	-152(%rbp), %rcx
	movq	%rcx, -64(%rbp)
	movq	%rax, -72(%rbp)
Ltmp157:
	leaq	-104(%rbp), %rdi
	leaq	-72(%rbp), %rsi
	callq	__ZN96_$LT$proc_macro2..fallback..TokenStream$u20$as$u20$core..iter..traits..collect..IntoIterator$GT$9into_iter17h9a0f48d917dd23a4E
Ltmp158:
	jmp	LBB22_25
Ltmp180:
	.loc	6 272 19 is_stmt 1
	ud2
LBB22_15:
	.loc	6 0 19 is_stmt 0
	movq	-328(%rbp), %rax
	.loc	6 273 32 is_stmt 1
	addq	$72, %rax
Ltmp162:
	movq	%rax, %rdi
	callq	__ZN4core6option15Option$LT$T$GT$6as_mut17hba1429353813594bE
Ltmp163:
	movq	%rax, -368(%rbp)
	jmp	LBB22_16
LBB22_16:
Ltmp164:
	.loc	6 0 32 is_stmt 0
	movq	-368(%rbp), %rdi
	.loc	6 273 32
	callq	__ZN69_$LT$core..option..Option$LT$T$GT$$u20$as$u20$core..ops..try..Try$GT$11into_result17h8d89229ed77e768bE
Ltmp165:
	movq	%rax, -376(%rbp)
	jmp	LBB22_17
LBB22_17:
	.loc	6 0 32
	movq	-376(%rbp), %rax
	.loc	6 273 32
	movq	%rax, -168(%rbp)
	.loc	6 273 54
	movq	-168(%rbp), %rcx
	testq	%rcx, %rcx
	sete	%dl
	movzbl	%dl, %esi
	movl	%esi, %ecx
	jne	LBB22_18
	jmp	LBB22_36
LBB22_36:
	jmp	LBB22_20
LBB22_18:
	.loc	6 273 32
	movq	-168(%rbp), %rax
	movq	%rax, -8(%rbp)
Ltmp170:
	movq	-336(%rbp), %rdi
	movq	%rax, %rsi
	callq	__ZN88_$LT$alloc..vec..IntoIter$LT$T$GT$$u20$as$u20$core..iter..traits..iterator..Iterator$GT$4next17hb9bea414dfb5ff29E
Ltmp171:
	jmp	LBB22_24
	ud2
LBB22_20:
Ltmp166:
Ltmp181:
	.loc	6 273 54
	callq	__ZN50_$LT$T$u20$as$u20$core..convert..From$LT$T$GT$$GT$4from17h6145e83592c34f69E
Ltmp167:
	jmp	LBB22_21
LBB22_21:
Ltmp168:
	.loc	6 0 54
	movq	-336(%rbp), %rdi
	.loc	6 273 54
	callq	__ZN69_$LT$core..option..Option$LT$T$GT$$u20$as$u20$core..ops..try..Try$GT$10from_error17hbce08873c58bf6d3E
Ltmp169:
	jmp	LBB22_22
Ltmp182:
LBB22_22:
	.loc	6 273 54
	jmp	LBB22_23
LBB22_23:
	jmp	LBB22_9
LBB22_24:
	.loc	6 273 25
	jmp	LBB22_23
LBB22_25:
Ltmp183:
	.loc	6 274 49 is_stmt 1
	movq	-80(%rbp), %rax
	movq	%rax, -112(%rbp)
	movq	-88(%rbp), %rax
	movq	%rax, -120(%rbp)
	movq	-104(%rbp), %rax
	movq	-96(%rbp), %rcx
	movq	%rcx, -128(%rbp)
	movq	%rax, -136(%rbp)
	movq	-328(%rbp), %rax
	.loc	6 274 32 is_stmt 0
	addq	$40, %rax
Ltmp159:
	movq	%rax, %rdi
	callq	__ZN4core3ptr13drop_in_place17h4808e45223a68d66E
Ltmp160:
	jmp	LBB22_30
Ltmp184:
LBB22_26:
	.loc	6 268 29 is_stmt 1
	movq	-272(%rbp), %rax
	movq	-328(%rbp), %rcx
	movq	%rax, 40(%rcx)
	movq	-264(%rbp), %rax
	movq	%rax, 48(%rcx)
	movq	-256(%rbp), %rax
	movq	%rax, 56(%rcx)
	movq	-248(%rbp), %rax
	movq	%rax, 64(%rcx)
	.loc	6 271 13
	leaq	-320(%rbp), %rdi
	callq	__ZN4core3ptr13drop_in_place17h94dcce221d0dc1cfE
	jmp	LBB22_2
LBB22_27:
	.loc	6 268 29
	movq	-272(%rbp), %rax
	movq	-328(%rbp), %rcx
	movq	%rax, 40(%rcx)
	movq	-264(%rbp), %rax
	movq	%rax, 48(%rcx)
	movq	-256(%rbp), %rax
	movq	%rax, 56(%rcx)
	movq	-248(%rbp), %rax
	movq	%rax, 64(%rcx)
	.loc	6 271 13
	leaq	-320(%rbp), %rdi
	callq	__ZN4core3ptr13drop_in_place17h94dcce221d0dc1cfE
	jmp	LBB22_10
Ltmp185:
LBB22_28:
	.loc	6 276 9
	jmp	LBB22_2
LBB22_29:
Ltmp186:
	.loc	6 274 32
	movq	-136(%rbp), %rax
	movq	-328(%rbp), %rcx
	movq	%rax, 40(%rcx)
	movq	-128(%rbp), %rax
	movq	%rax, 48(%rcx)
	movq	-120(%rbp), %rax
	movq	%rax, 56(%rcx)
	movq	-112(%rbp), %rax
	movq	%rax, 64(%rcx)
	jmp	LBB22_28
LBB22_30:
	movq	-136(%rbp), %rax
	movq	-328(%rbp), %rcx
	movq	%rax, 40(%rcx)
	movq	-128(%rbp), %rax
	movq	%rax, 48(%rcx)
	movq	-120(%rbp), %rax
	movq	%rax, 56(%rcx)
	movq	-112(%rbp), %rax
	movq	%rax, 64(%rcx)
Ltmp187:
	.loc	6 265 9
	jmp	LBB22_1
Ltmp188:
LBB22_31:
Ltmp156:
	.loc	6 0 9 is_stmt 0
	movq	%rax, -24(%rbp)
	movl	%edx, -16(%rbp)
	jmp	LBB22_26
LBB22_32:
Ltmp172:
	movq	%rax, -24(%rbp)
	movl	%edx, -16(%rbp)
	jmp	LBB22_28
LBB22_33:
Ltmp161:
	movq	%rax, -24(%rbp)
	movl	%edx, -16(%rbp)
	jmp	LBB22_29
Lfunc_end22:
	.cfi_endproc
	.section	__TEXT,__gcc_except_tab
	.p2align	2
GCC_except_table22:
Lexception3:
	.byte	255
	.byte	255
	.byte	1
	.uleb128 Lcst_end3-Lcst_begin3
Lcst_begin3:
	.uleb128 Lfunc_begin22-Lfunc_begin22
	.uleb128 Ltmp154-Lfunc_begin22
	.byte	0
	.byte	0
	.uleb128 Ltmp154-Lfunc_begin22
	.uleb128 Ltmp155-Ltmp154
	.uleb128 Ltmp156-Lfunc_begin22
	.byte	0
	.uleb128 Ltmp155-Lfunc_begin22
	.uleb128 Ltmp157-Ltmp155
	.byte	0
	.byte	0
	.uleb128 Ltmp157-Lfunc_begin22
	.uleb128 Ltmp169-Ltmp157
	.uleb128 Ltmp172-Lfunc_begin22
	.byte	0
	.uleb128 Ltmp159-Lfunc_begin22
	.uleb128 Ltmp160-Ltmp159
	.uleb128 Ltmp161-Lfunc_begin22
	.byte	0
	.uleb128 Ltmp160-Lfunc_begin22
	.uleb128 Lfunc_end22-Ltmp160
	.byte	0
	.byte	0
Lcst_end3:
	.p2align	2

	.section	__TEXT,__text,regular,pure_instructions
	.globl	__ZN116_$LT$core..iter..adapters..flatten..FlattenCompat$LT$I$C$U$GT$$u20$as$u20$core..iter..traits..iterator..Iterator$GT$9size_hint17h195ca024206c4291E
	.p2align	4, 0x90
__ZN116_$LT$core..iter..adapters..flatten..FlattenCompat$LT$I$C$U$GT$$u20$as$u20$core..iter..traits..iterator..Iterator$GT$9size_hint17h195ca024206c4291E:
Lfunc_begin23:
	.loc	6 280 0 is_stmt 1
	.cfi_startproc
	pushq	%rbp
	.cfi_def_cfa_offset 16
	.cfi_offset %rbp, -16
	movq	%rsp, %rbp
	.cfi_def_cfa_register %rbp
	subq	$416, %rsp
	movq	%rdi, %rax
	movq	%rsi, -80(%rbp)
Ltmp189:
	.loc	6 281 26 prologue_end
	movq	%rsi, %rcx
	addq	$40, %rcx
	movq	%rdi, -312(%rbp)
	movq	%rcx, %rdi
	movq	%rsi, -320(%rbp)
	movq	%rax, -328(%rbp)
	callq	__ZN4core6option15Option$LT$T$GT$6as_ref17he686f1950925a785E
	movq	%rax, -336(%rbp)
	.loc	6 281 61 is_stmt 0
	movq	$0, -248(%rbp)
	movq	$1, -256(%rbp)
	.loc	6 281 57
	movq	$0, -280(%rbp)
	movq	-256(%rbp), %rax
	movq	-248(%rbp), %rcx
	movq	%rax, -272(%rbp)
	movq	%rcx, -264(%rbp)
	.loc	6 281 26
	leaq	-304(%rbp), %rdi
	movq	-336(%rbp), %rsi
	leaq	-280(%rbp), %rdx
	callq	__ZN4core6option15Option$LT$T$GT$6map_or17hd0754bedfcea0bd2E
	.loc	6 281 14
	movq	-304(%rbp), %rax
	movq	%rax, -72(%rbp)
	.loc	6 281 19
	movq	-296(%rbp), %rcx
	movq	-288(%rbp), %rdx
	movq	%rcx, -64(%rbp)
	movq	%rdx, -56(%rbp)
	movq	-320(%rbp), %rsi
Ltmp190:
	.loc	6 282 26 is_stmt 1
	addq	$72, %rsi
	movq	%rsi, %rdi
	movq	%rax, -344(%rbp)
	movq	%rcx, -352(%rbp)
	movq	%rdx, -360(%rbp)
	callq	__ZN4core6option15Option$LT$T$GT$6as_ref17he686f1950925a785E
	movq	%rax, -368(%rbp)
	.loc	6 282 60 is_stmt 0
	movq	$0, -184(%rbp)
	movq	$1, -192(%rbp)
	.loc	6 282 56
	movq	$0, -216(%rbp)
	movq	-192(%rbp), %rax
	movq	-184(%rbp), %rcx
	movq	%rax, -208(%rbp)
	movq	%rcx, -200(%rbp)
	.loc	6 282 26
	leaq	-240(%rbp), %rdi
	movq	-368(%rbp), %rsi
	leaq	-216(%rbp), %rdx
	callq	__ZN4core6option15Option$LT$T$GT$6map_or17hd0754bedfcea0bd2E
	.loc	6 282 14
	movq	-240(%rbp), %rax
	movq	%rax, -48(%rbp)
	.loc	6 282 19
	movq	-232(%rbp), %rcx
	movq	-224(%rbp), %rdx
	movq	%rcx, -40(%rbp)
	movq	%rdx, -32(%rbp)
	movq	-344(%rbp), %rdi
Ltmp191:
	.loc	6 283 18 is_stmt 1
	movq	%rax, %rsi
	movq	%rcx, -376(%rbp)
	movq	%rdx, -384(%rbp)
	callq	__ZN4core3num23_$LT$impl$u20$usize$GT$14saturating_add17h33897914083f9b86E
	movq	%rax, -24(%rbp)
	movq	%rax, -392(%rbp)
	.loc	6 0 18 is_stmt 0
	movq	-320(%rbp), %rax
Ltmp192:
	.loc	6 284 16 is_stmt 1
	leaq	-120(%rbp), %rdi
	movq	%rax, %rsi
	callq	__ZN100_$LT$core..iter..adapters..fuse..Fuse$LT$I$GT$$u20$as$u20$core..iter..traits..iterator..Iterator$GT$9size_hint17hf736779e7c0bcfe7E
	.loc	6 284 15 is_stmt 0
	movq	-120(%rbp), %rax
	movq	%rax, -176(%rbp)
	movq	-112(%rbp), %rax
	movq	%rax, -168(%rbp)
	movq	-104(%rbp), %rax
	movq	%rax, -160(%rbp)
	movq	-352(%rbp), %rax
	movq	%rax, -152(%rbp)
	movq	-360(%rbp), %rcx
	movq	%rcx, -144(%rbp)
	movq	-376(%rbp), %rdx
	movq	%rdx, -136(%rbp)
	movq	-384(%rbp), %rsi
	movq	%rsi, -128(%rbp)
	.loc	6 285 15 is_stmt 1
	cmpq	$0, -176(%rbp)
	jne	LBB23_8
	.loc	6 285 18 is_stmt 0
	cmpq	$1, -168(%rbp)
	je	LBB23_9
LBB23_8:
	.loc	6 286 23 is_stmt 1
	movq	$0, -96(%rbp)
	movq	-312(%rbp), %rax
	movq	-392(%rbp), %rcx
	.loc	6 286 18 is_stmt 0
	movq	%rcx, (%rax)
	movq	-96(%rbp), %rdx
	movq	-88(%rbp), %rsi
	movq	%rdx, 8(%rax)
	movq	%rsi, 16(%rax)
	.loc	6 284 9 is_stmt 1
	jmp	LBB23_14
LBB23_9:
	.loc	6 285 28
	cmpq	$1, -152(%rbp)
	jne	LBB23_8
	.loc	6 285 37 is_stmt 0
	cmpq	$1, -136(%rbp)
	jne	LBB23_8
	.loc	6 285 23
	cmpq	$0, -160(%rbp)
	jne	LBB23_8
	.loc	6 285 33
	movq	-144(%rbp), %rax
	movq	%rax, -16(%rbp)
	.loc	6 285 42
	movq	-128(%rbp), %rcx
	movq	%rcx, -8(%rbp)
Ltmp193:
	.loc	6 285 54
	movq	%rax, %rdi
	movq	%rcx, %rsi
	callq	__ZN4core3num23_$LT$impl$u20$usize$GT$11checked_add17h46fa12bf740feff3E
	movq	%rax, -400(%rbp)
	movq	%rdx, -408(%rbp)
	.loc	6 0 54
	movq	-312(%rbp), %rax
	movq	-392(%rbp), %rcx
	.loc	6 285 49
	movq	%rcx, (%rax)
	movq	-400(%rbp), %rdx
	movq	%rdx, 8(%rax)
	movq	-408(%rbp), %rsi
	movq	%rsi, 16(%rax)
Ltmp194:
LBB23_14:
	.loc	6 0 49
	movq	-328(%rbp), %rax
	.loc	6 288 6 is_stmt 1
	addq	$416, %rsp
	popq	%rbp
	retq
Ltmp195:
Lfunc_end23:
	.cfi_endproc

	.globl	__ZN116_$LT$proc_macro..TokenStream$u20$as$u20$core..iter..traits..collect..FromIterator$LT$proc_macro..TokenStream$GT$$GT$9from_iter17ha2c924c0eeaaa42eE
	.p2align	4, 0x90
__ZN116_$LT$proc_macro..TokenStream$u20$as$u20$core..iter..traits..collect..FromIterator$LT$proc_macro..TokenStream$GT$$GT$9from_iter17ha2c924c0eeaaa42eE:
Lfunc_begin24:
	.loc	7 198 0
	.cfi_startproc
	.cfi_personality 155, _rust_eh_personality
	.cfi_lsda 16, Lexception4
	pushq	%rbp
	.cfi_def_cfa_offset 16
	.cfi_offset %rbp, -16
	movq	%rsp, %rbp
	.cfi_def_cfa_register %rbp
	subq	$176, %rsp
Ltmp206:
	.loc	7 199 13 prologue_end
	movb	$0, -26(%rbp)
	movb	$0, -25(%rbp)
	movb	$1, -26(%rbp)
Ltmp196:
	movq	%rdi, -168(%rbp)
Ltmp207:
	.loc	7 199 27 is_stmt 0
	callq	__ZN10proc_macro6bridge6client18TokenStreamBuilder3new17h2996254515710a72E
Ltmp197:
	movl	%eax, -172(%rbp)
	jmp	LBB24_2
Ltmp208:
LBB24_1:
	.loc	7 198 5 is_stmt 1
	movq	-24(%rbp), %rdi
	callq	__Unwind_Resume
	ud2
Ltmp209:
LBB24_2:
	.loc	7 0 5 is_stmt 0
	movl	-172(%rbp), %eax
	.loc	7 199 27 is_stmt 1
	movl	%eax, -8(%rbp)
	movl	-8(%rbp), %ecx
	movl	%ecx, -152(%rbp)
Ltmp210:
	.loc	7 200 9
	movb	$1, -25(%rbp)
	movb	$0, -26(%rbp)
	movq	-168(%rbp), %rdx
	movq	40(%rdx), %rsi
	movq	%rsi, -56(%rbp)
	movq	32(%rdx), %rsi
	movq	%rsi, -64(%rbp)
	movq	24(%rdx), %rsi
	movq	%rsi, -72(%rbp)
	movq	16(%rdx), %rsi
	movq	%rsi, -80(%rbp)
	movq	(%rdx), %rsi
	movq	8(%rdx), %rdi
	movq	%rdi, -88(%rbp)
	movq	%rsi, -96(%rbp)
Ltmp199:
	leaq	-144(%rbp), %rdi
	leaq	-96(%rbp), %rsi
	callq	__ZN63_$LT$I$u20$as$u20$core..iter..traits..collect..IntoIterator$GT$9into_iter17hf884e4528d61fb5aE
Ltmp200:
	jmp	LBB24_3
Ltmp211:
LBB24_3:
	.loc	7 0 9 is_stmt 0
	leaq	-152(%rbp), %rax
	.loc	7 200 38
	movq	%rax, -48(%rbp)
	.loc	7 200 9
	movq	-48(%rbp), %rsi
Ltmp201:
	leaq	-144(%rbp), %rdi
	callq	__ZN4core4iter6traits8iterator8Iterator8for_each17ha13ec9b9eb865e01E
Ltmp202:
	jmp	LBB24_4
Ltmp212:
LBB24_4:
	.loc	7 201 21 is_stmt 1
	movb	$0, -25(%rbp)
	movl	-152(%rbp), %eax
	movl	%eax, -32(%rbp)
	movl	-32(%rbp), %edi
Ltmp203:
	callq	__ZN10proc_macro6bridge6client18TokenStreamBuilder5build17h64da876c4c46937bE
Ltmp204:
	movl	%eax, -176(%rbp)
	jmp	LBB24_5
Ltmp213:
LBB24_5:
	.loc	7 0 21 is_stmt 0
	movl	-176(%rbp), %eax
	.loc	7 201 21
	movl	%eax, -4(%rbp)
	movl	-4(%rbp), %ecx
	movl	%ecx, -40(%rbp)
	.loc	7 201 9
	movl	-40(%rbp), %ecx
	movl	%ecx, -160(%rbp)
Ltmp214:
	.loc	7 202 5 is_stmt 1
	movb	$0, -25(%rbp)
	.loc	7 202 6 is_stmt 0
	movl	-160(%rbp), %eax
	addq	$176, %rsp
	popq	%rbp
	retq
Ltmp215:
LBB24_6:
	.loc	7 202 5
	movb	$0, -26(%rbp)
	movq	-168(%rbp), %rdi
	callq	__ZN4core3ptr13drop_in_place17hef5523228b75be7fE
	jmp	LBB24_1
Ltmp216:
LBB24_7:
	testb	$1, -26(%rbp)
	jne	LBB24_6
	jmp	LBB24_1
Ltmp217:
LBB24_8:
	movb	$0, -25(%rbp)
	leaq	-152(%rbp), %rdi
	callq	__ZN4core3ptr13drop_in_place17h8d00fe7a37158dddE
	jmp	LBB24_7
Ltmp218:
LBB24_9:
	testb	$1, -25(%rbp)
	jne	LBB24_8
	jmp	LBB24_7
Ltmp219:
LBB24_10:
Ltmp198:
	.loc	7 0 5
	movq	%rax, -24(%rbp)
	movl	%edx, -16(%rbp)
	jmp	LBB24_7
Ltmp220:
LBB24_11:
Ltmp205:
	movq	%rax, -24(%rbp)
	movl	%edx, -16(%rbp)
	jmp	LBB24_9
Lfunc_end24:
	.cfi_endproc
	.section	__TEXT,__gcc_except_tab
	.p2align	2
GCC_except_table24:
Lexception4:
	.byte	255
	.byte	255
	.byte	1
	.uleb128 Lcst_end4-Lcst_begin4
Lcst_begin4:
	.uleb128 Ltmp196-Lfunc_begin24
	.uleb128 Ltmp197-Ltmp196
	.uleb128 Ltmp198-Lfunc_begin24
	.byte	0
	.uleb128 Ltmp197-Lfunc_begin24
	.uleb128 Ltmp199-Ltmp197
	.byte	0
	.byte	0
	.uleb128 Ltmp199-Lfunc_begin24
	.uleb128 Ltmp204-Ltmp199
	.uleb128 Ltmp205-Lfunc_begin24
	.byte	0
	.uleb128 Ltmp204-Lfunc_begin24
	.uleb128 Lfunc_end24-Ltmp204
	.byte	0
	.byte	0
Lcst_end4:
	.p2align	2

	.section	__TEXT,__text,regular,pure_instructions
	.globl	__ZN116_$LT$proc_macro..TokenStream$u20$as$u20$core..iter..traits..collect..FromIterator$LT$proc_macro..TokenStream$GT$$GT$9from_iter28_$u7b$$u7b$closure$u7d$$u7d$17h1d67d6769f08341aE
	.p2align	4, 0x90
__ZN116_$LT$proc_macro..TokenStream$u20$as$u20$core..iter..traits..collect..FromIterator$LT$proc_macro..TokenStream$GT$$GT$9from_iter28_$u7b$$u7b$closure$u7d$$u7d$17h1d67d6769f08341aE:
Lfunc_begin25:
	.loc	7 200 0 is_stmt 1
	.cfi_startproc
	pushq	%rbp
	.cfi_def_cfa_offset 16
	.cfi_offset %rbp, -16
	movq	%rsp, %rbp
	.cfi_def_cfa_register %rbp
	subq	$32, %rsp
	movl	%esi, -20(%rbp)
	movl	-20(%rbp), %eax
	movl	%eax, -24(%rbp)
	movq	%rdi, -8(%rbp)
Ltmp221:
	.loc	7 200 47 prologue_end
	movq	(%rdi), %rdi
	.loc	7 200 60 is_stmt 0
	movl	-24(%rbp), %eax
	movl	%eax, -16(%rbp)
	.loc	7 200 47
	movl	-16(%rbp), %esi
	callq	__ZN10proc_macro6bridge6client18TokenStreamBuilder4push17hf0bec3eacbbe7ebeE
	.loc	7 200 69
	addq	$32, %rsp
	popq	%rbp
	retq
Ltmp222:
Lfunc_end25:
	.cfi_endproc

	.globl	__ZN120_$LT$proc_macro2..fallback..TokenStream$u20$as$u20$core..iter..traits..collect..Extend$LT$proc_macro2..TokenTree$GT$$GT$6extend17h87c6c4ed72822fe1E
	.p2align	4, 0x90
__ZN120_$LT$proc_macro2..fallback..TokenStream$u20$as$u20$core..iter..traits..collect..Extend$LT$proc_macro2..TokenTree$GT$$GT$6extend17h87c6c4ed72822fe1E:
Lfunc_begin26:
	.file	10 "/Users/yingyuhang/.cargo/registry/src/github.com-1ecc6299db9ec823/proc-macro2-1.0.18/src/fallback.rs"
	.loc	10 245 0 is_stmt 1
	.cfi_startproc
	pushq	%rbp
	.cfi_def_cfa_offset 16
	.cfi_offset %rbp, -16
	movq	%rsp, %rbp
	.cfi_def_cfa_register %rbp
	subq	$128, %rsp
	movq	%rdi, -112(%rbp)
Ltmp223:
	.loc	10 246 9 prologue_end
	leaq	-56(%rbp), %rax
	movq	%rax, %rcx
	movq	%rcx, %rdi
	movl	$48, %edx
	movq	%rax, -120(%rbp)
	callq	_memcpy
Ltmp224:
	leaq	-104(%rbp), %rdi
	movq	-120(%rbp), %rsi
	callq	__ZN63_$LT$I$u20$as$u20$core..iter..traits..collect..IntoIterator$GT$9into_iter17h028a686d29e5a494E
	.loc	10 246 37 is_stmt 0
	leaq	-112(%rbp), %rax
	movq	%rax, -8(%rbp)
	.loc	10 246 9
	movq	-8(%rbp), %rsi
	leaq	-104(%rbp), %rdi
	callq	__ZN4core4iter6traits8iterator8Iterator8for_each17he0ba2eb3ddae136aE
	.loc	10 247 6 is_stmt 1
	addq	$128, %rsp
	popq	%rbp
	retq
Ltmp225:
Lfunc_end26:
	.cfi_endproc

	.globl	__ZN120_$LT$proc_macro2..fallback..TokenStream$u20$as$u20$core..iter..traits..collect..Extend$LT$proc_macro2..TokenTree$GT$$GT$6extend17h9fb58177c4251585E
	.p2align	4, 0x90
__ZN120_$LT$proc_macro2..fallback..TokenStream$u20$as$u20$core..iter..traits..collect..Extend$LT$proc_macro2..TokenTree$GT$$GT$6extend17h9fb58177c4251585E:
Lfunc_begin27:
	.loc	10 245 0
	.cfi_startproc
	pushq	%rbp
	.cfi_def_cfa_offset 16
	.cfi_offset %rbp, -16
	movq	%rsp, %rbp
	.cfi_def_cfa_register %rbp
	subq	$128, %rsp
	movq	%rdi, -112(%rbp)
Ltmp226:
	.loc	10 246 9 prologue_end
	leaq	-56(%rbp), %rax
	movq	%rax, %rcx
	movq	%rcx, %rdi
	movl	$48, %edx
	movq	%rax, -120(%rbp)
	callq	_memcpy
Ltmp227:
	leaq	-104(%rbp), %rdi
	movq	-120(%rbp), %rsi
	callq	__ZN63_$LT$I$u20$as$u20$core..iter..traits..collect..IntoIterator$GT$9into_iter17hd714be21dd1f6821E
	.loc	10 246 37 is_stmt 0
	leaq	-112(%rbp), %rax
	movq	%rax, -8(%rbp)
	.loc	10 246 9
	movq	-8(%rbp), %rsi
	leaq	-104(%rbp), %rdi
	callq	__ZN4core4iter6traits8iterator8Iterator8for_each17h9554b2c18a97c045E
	.loc	10 247 6 is_stmt 1
	addq	$128, %rsp
	popq	%rbp
	retq
Ltmp228:
Lfunc_end27:
	.cfi_endproc

	.globl	__ZN120_$LT$proc_macro2..fallback..TokenStream$u20$as$u20$core..iter..traits..collect..Extend$LT$proc_macro2..TokenTree$GT$$GT$6extend17hba2fc4405435d799E
	.p2align	4, 0x90
__ZN120_$LT$proc_macro2..fallback..TokenStream$u20$as$u20$core..iter..traits..collect..Extend$LT$proc_macro2..TokenTree$GT$$GT$6extend17hba2fc4405435d799E:
Lfunc_begin28:
	.loc	10 245 0
	.cfi_startproc
	pushq	%rbp
	.cfi_def_cfa_offset 16
	.cfi_offset %rbp, -16
	movq	%rsp, %rbp
	.cfi_def_cfa_register %rbp
	subq	$112, %rsp
	movq	%rdi, -96(%rbp)
Ltmp229:
	.loc	10 246 9 prologue_end
	leaq	-48(%rbp), %rax
	movq	%rax, %rcx
	movq	%rcx, %rdi
	movl	$40, %edx
	movq	%rax, -104(%rbp)
	callq	_memcpy
Ltmp230:
	leaq	-88(%rbp), %rdi
	movq	-104(%rbp), %rsi
	callq	__ZN11proc_macro212token_stream96_$LT$impl$u20$core..iter..traits..collect..IntoIterator$u20$for$u20$proc_macro2..TokenStream$GT$9into_iter17h8ac8df0c7f6c8753E
	.loc	10 246 37 is_stmt 0
	leaq	-96(%rbp), %rax
	movq	%rax, -8(%rbp)
	.loc	10 246 9
	movq	-8(%rbp), %rsi
	leaq	-88(%rbp), %rdi
	callq	__ZN4core4iter6traits8iterator8Iterator8for_each17hb78d3d7b169e6879E
	.loc	10 247 6 is_stmt 1
	addq	$112, %rsp
	popq	%rbp
	retq
Ltmp231:
Lfunc_end28:
	.cfi_endproc

	.globl	__ZN120_$LT$proc_macro2..fallback..TokenStream$u20$as$u20$core..iter..traits..collect..Extend$LT$proc_macro2..TokenTree$GT$$GT$6extend28_$u7b$$u7b$closure$u7d$$u7d$17h992d3793f47d23adE
	.p2align	4, 0x90
__ZN120_$LT$proc_macro2..fallback..TokenStream$u20$as$u20$core..iter..traits..collect..Extend$LT$proc_macro2..TokenTree$GT$$GT$6extend28_$u7b$$u7b$closure$u7d$$u7d$17h992d3793f47d23adE:
Lfunc_begin29:
	.loc	10 246 0
	.cfi_startproc
	pushq	%rbp
	.cfi_def_cfa_offset 16
	.cfi_offset %rbp, -16
	movq	%rsp, %rbp
	.cfi_def_cfa_register %rbp
	subq	$80, %rsp
	movq	%rdi, -8(%rbp)
Ltmp232:
	.loc	10 246 45 prologue_end
	movq	(%rdi), %rax
	movq	(%rax), %rdi
	.loc	10 246 61 is_stmt 0
	leaq	-56(%rbp), %rax
	movq	%rax, %rcx
	movq	%rdi, -64(%rbp)
	movq	%rcx, %rdi
	movl	$48, %edx
	movq	%rax, -72(%rbp)
	callq	_memcpy
Ltmp233:
	.loc	10 0 61
	movq	-64(%rbp), %rdi
	movq	-72(%rbp), %rsi
	.loc	10 246 45
	callq	__ZN11proc_macro28fallback11TokenStream10push_token17h47fd4cab072506b7E
	.loc	10 246 67
	addq	$80, %rsp
	popq	%rbp
	retq
Ltmp234:
Lfunc_end29:
	.cfi_endproc

	.globl	__ZN120_$LT$proc_macro2..fallback..TokenStream$u20$as$u20$core..iter..traits..collect..Extend$LT$proc_macro2..TokenTree$GT$$GT$6extend28_$u7b$$u7b$closure$u7d$$u7d$17ha7e912dacfa831c8E
	.p2align	4, 0x90
__ZN120_$LT$proc_macro2..fallback..TokenStream$u20$as$u20$core..iter..traits..collect..Extend$LT$proc_macro2..TokenTree$GT$$GT$6extend28_$u7b$$u7b$closure$u7d$$u7d$17ha7e912dacfa831c8E:
Lfunc_begin30:
	.loc	10 246 0 is_stmt 1
	.cfi_startproc
	pushq	%rbp
	.cfi_def_cfa_offset 16
	.cfi_offset %rbp, -16
	movq	%rsp, %rbp
	.cfi_def_cfa_register %rbp
	subq	$80, %rsp
	movq	%rdi, -8(%rbp)
Ltmp235:
	.loc	10 246 45 prologue_end
	movq	(%rdi), %rax
	movq	(%rax), %rdi
	.loc	10 246 61 is_stmt 0
	leaq	-56(%rbp), %rax
	movq	%rax, %rcx
	movq	%rdi, -64(%rbp)
	movq	%rcx, %rdi
	movl	$48, %edx
	movq	%rax, -72(%rbp)
	callq	_memcpy
Ltmp236:
	.loc	10 0 61
	movq	-64(%rbp), %rdi
	movq	-72(%rbp), %rsi
	.loc	10 246 45
	callq	__ZN11proc_macro28fallback11TokenStream10push_token17h47fd4cab072506b7E
	.loc	10 246 67
	addq	$80, %rsp
	popq	%rbp
	retq
Ltmp237:
Lfunc_end30:
	.cfi_endproc

	.globl	__ZN120_$LT$proc_macro2..fallback..TokenStream$u20$as$u20$core..iter..traits..collect..Extend$LT$proc_macro2..TokenTree$GT$$GT$6extend28_$u7b$$u7b$closure$u7d$$u7d$17hbb8017f809c8ef0eE
	.p2align	4, 0x90
__ZN120_$LT$proc_macro2..fallback..TokenStream$u20$as$u20$core..iter..traits..collect..Extend$LT$proc_macro2..TokenTree$GT$$GT$6extend28_$u7b$$u7b$closure$u7d$$u7d$17hbb8017f809c8ef0eE:
Lfunc_begin31:
	.loc	10 246 0 is_stmt 1
	.cfi_startproc
	pushq	%rbp
	.cfi_def_cfa_offset 16
	.cfi_offset %rbp, -16
	movq	%rsp, %rbp
	.cfi_def_cfa_register %rbp
	subq	$80, %rsp
	movq	%rdi, -8(%rbp)
Ltmp238:
	.loc	10 246 45 prologue_end
	movq	(%rdi), %rax
	movq	(%rax), %rdi
	.loc	10 246 61 is_stmt 0
	leaq	-56(%rbp), %rax
	movq	%rax, %rcx
	movq	%rdi, -64(%rbp)
	movq	%rcx, %rdi
	movl	$48, %edx
	movq	%rax, -72(%rbp)
	callq	_memcpy
Ltmp239:
	.loc	10 0 61
	movq	-64(%rbp), %rdi
	movq	-72(%rbp), %rsi
	.loc	10 246 45
	callq	__ZN11proc_macro28fallback11TokenStream10push_token17h47fd4cab072506b7E
	.loc	10 246 67
	addq	$80, %rsp
	popq	%rbp
	retq
Ltmp240:
Lfunc_end31:
	.cfi_endproc

	.globl	__ZN122_$LT$proc_macro2..imp..TokenStream$u20$as$u20$core..iter..traits..collect..Extend$LT$proc_macro2..imp..TokenStream$GT$$GT$6extend17h461dbb02ab4dcb75E
	.p2align	4, 0x90
__ZN122_$LT$proc_macro2..imp..TokenStream$u20$as$u20$core..iter..traits..collect..Extend$LT$proc_macro2..imp..TokenStream$GT$$GT$6extend17h461dbb02ab4dcb75E:
Lfunc_begin32:
	.loc	9 217 0 is_stmt 1
	.cfi_startproc
	.cfi_personality 155, _rust_eh_personality
	.cfi_lsda 16, Lexception5
	pushq	%rbp
	.cfi_def_cfa_offset 16
	.cfi_offset %rbp, -16
	movq	%rsp, %rbp
	.cfi_def_cfa_register %rbp
	subq	$352, %rsp
	movq	%rdi, -40(%rbp)
Ltmp256:
	.loc	9 219 13 prologue_end
	movb	$0, -41(%rbp)
	movb	$1, -41(%rbp)
	movq	(%rdi), %rax
	testq	%rax, %rax
	movq	%rdi, -312(%rbp)
	movq	%rsi, -320(%rbp)
Ltmp257:
	je	LBB32_4
	jmp	LBB32_16
Ltmp258:
LBB32_16:
	jmp	LBB32_2
Ltmp259:
LBB32_1:
	.loc	9 217 5
	movq	-24(%rbp), %rdi
	callq	__Unwind_Resume
	ud2
Ltmp260:
LBB32_2:
	.loc	9 0 5 is_stmt 0
	movq	-312(%rbp), %rax
	.loc	9 224 35 is_stmt 1
	addq	$8, %rax
	movq	%rax, -32(%rbp)
Ltmp261:
	.loc	9 225 28
	movb	$0, -41(%rbp)
	movq	-320(%rbp), %rcx
	movq	32(%rcx), %rdx
	movq	%rdx, -56(%rbp)
	movq	24(%rcx), %rdx
	movq	%rdx, -64(%rbp)
	movq	16(%rcx), %rdx
	movq	%rdx, -72(%rbp)
	movq	(%rcx), %rdx
	movq	8(%rcx), %rsi
	movq	%rsi, -80(%rbp)
	movq	%rdx, -88(%rbp)
Ltmp241:
	leaq	-128(%rbp), %rdi
	leaq	-88(%rbp), %rsi
	movq	%rax, -328(%rbp)
	callq	__ZN63_$LT$I$u20$as$u20$core..iter..traits..collect..IntoIterator$GT$9into_iter17h8d53522ec2387f8bE
Ltmp242:
	jmp	LBB32_9
Ltmp262:
	.loc	9 218 15
	ud2
LBB32_4:
Ltmp263:
	.loc	9 0 15 is_stmt 0
	movq	-312(%rbp), %rax
	.loc	9 219 35 is_stmt 1
	addq	$8, %rax
	movq	%rax, -8(%rbp)
Ltmp247:
Ltmp264:
	.loc	9 220 17
	movq	%rax, %rdi
	movq	%rax, -336(%rbp)
	callq	__ZN11proc_macro23imp19DeferredTokenStream12evaluate_now17hc7890bf49e1adf55E
Ltmp248:
	jmp	LBB32_5
Ltmp265:
LBB32_5:
	.loc	9 0 17 is_stmt 0
	movq	-336(%rbp), %rax
	.loc	9 221 17 is_stmt 1
	addq	$24, %rax
	.loc	9 222 29
	movb	$0, -41(%rbp)
	movq	-320(%rbp), %rcx
	movq	32(%rcx), %rdx
	movq	%rdx, -184(%rbp)
	movq	24(%rcx), %rdx
	movq	%rdx, -192(%rbp)
	movq	16(%rcx), %rdx
	movq	%rdx, -200(%rbp)
	movq	(%rcx), %rdx
	movq	8(%rcx), %rsi
	movq	%rsi, -208(%rbp)
	movq	%rdx, -216(%rbp)
Ltmp249:
	leaq	-256(%rbp), %rdi
	leaq	-216(%rbp), %rsi
	movq	%rax, -344(%rbp)
	callq	__ZN63_$LT$I$u20$as$u20$core..iter..traits..collect..IntoIterator$GT$9into_iter17h8d53522ec2387f8bE
Ltmp250:
	jmp	LBB32_6
Ltmp266:
LBB32_6:
Ltmp251:
	.loc	9 0 29 is_stmt 0
	leaq	-296(%rbp), %rdi
	leaq	-256(%rbp), %rsi
	.loc	9 222 29
	callq	__ZN4core4iter6traits8iterator8Iterator3map17ha20e0616f776e43fE
Ltmp252:
	jmp	LBB32_7
Ltmp267:
LBB32_7:
Ltmp253:
	.loc	9 0 29
	leaq	-296(%rbp), %rsi
	movq	-344(%rbp), %rdi
	.loc	9 221 17 is_stmt 1
	callq	__ZN110_$LT$proc_macro..TokenStream$u20$as$u20$core..iter..traits..collect..Extend$LT$proc_macro..TokenStream$GT$$GT$6extend17h34bc44646319598aE
Ltmp254:
	jmp	LBB32_8
Ltmp268:
LBB32_8:
	.loc	9 218 9
	jmp	LBB32_12
Ltmp269:
LBB32_9:
Ltmp243:
	.loc	9 0 9 is_stmt 0
	leaq	-168(%rbp), %rdi
	leaq	-128(%rbp), %rsi
Ltmp270:
	.loc	9 225 28 is_stmt 1
	callq	__ZN4core4iter6traits8iterator8Iterator3map17h3c61a193b05bd8a1E
Ltmp244:
	jmp	LBB32_10
Ltmp271:
LBB32_10:
Ltmp245:
	.loc	9 0 28 is_stmt 0
	leaq	-168(%rbp), %rsi
	movq	-328(%rbp), %rdi
	.loc	9 225 17
	callq	__ZN132_$LT$proc_macro2..fallback..TokenStream$u20$as$u20$core..iter..traits..collect..Extend$LT$proc_macro2..fallback..TokenStream$GT$$GT$6extend17he9ddfbe108bd7c2dE
Ltmp246:
	jmp	LBB32_11
Ltmp272:
LBB32_11:
	.loc	9 218 9 is_stmt 1
	jmp	LBB32_12
Ltmp273:
LBB32_12:
	.loc	9 228 6
	addq	$352, %rsp
	popq	%rbp
	retq
Ltmp274:
LBB32_13:
	.loc	9 228 5 is_stmt 0
	movb	$0, -41(%rbp)
	movq	-320(%rbp), %rdi
	callq	__ZN4core3ptr13drop_in_place17ha8e2bc2314ac5a55E
	jmp	LBB32_1
Ltmp275:
LBB32_14:
	testb	$1, -41(%rbp)
	jne	LBB32_13
	jmp	LBB32_1
Ltmp276:
LBB32_15:
Ltmp255:
	.loc	9 0 5
	movq	%rax, -24(%rbp)
	movl	%edx, -16(%rbp)
	jmp	LBB32_14
Lfunc_end32:
	.cfi_endproc
	.section	__TEXT,__gcc_except_tab
	.p2align	2
GCC_except_table32:
Lexception5:
	.byte	255
	.byte	255
	.byte	1
	.uleb128 Lcst_end5-Lcst_begin5
Lcst_begin5:
	.uleb128 Lfunc_begin32-Lfunc_begin32
	.uleb128 Ltmp241-Lfunc_begin32
	.byte	0
	.byte	0
	.uleb128 Ltmp241-Lfunc_begin32
	.uleb128 Ltmp246-Ltmp241
	.uleb128 Ltmp255-Lfunc_begin32
	.byte	0
	.uleb128 Ltmp246-Lfunc_begin32
	.uleb128 Lfunc_end32-Ltmp246
	.byte	0
	.byte	0
Lcst_end5:
	.p2align	2

	.section	__TEXT,__text,regular,pure_instructions
	.globl	__ZN122_$LT$proc_macro2..imp..TokenStream$u20$as$u20$core..iter..traits..collect..Extend$LT$proc_macro2..imp..TokenStream$GT$$GT$6extend28_$u7b$$u7b$closure$u7d$$u7d$17hd05ef0a635528127E
	.p2align	4, 0x90
__ZN122_$LT$proc_macro2..imp..TokenStream$u20$as$u20$core..iter..traits..collect..Extend$LT$proc_macro2..imp..TokenStream$GT$$GT$6extend28_$u7b$$u7b$closure$u7d$$u7d$17hd05ef0a635528127E:
Lfunc_begin33:
	.loc	9 222 0 is_stmt 1
	.cfi_startproc
	pushq	%rbp
	.cfi_def_cfa_offset 16
	.cfi_offset %rbp, -16
	movq	%rsp, %rbp
	.cfi_def_cfa_register %rbp
	subq	$80, %rsp
	movq	%rdi, -16(%rbp)
Ltmp277:
	.loc	9 222 62 prologue_end
	leaq	-56(%rbp), %rax
	movq	%rax, %rcx
	movq	%rcx, %rdi
	movl	$40, %edx
	movq	%rax, -72(%rbp)
	callq	_memcpy
Ltmp278:
	.loc	9 0 62 is_stmt 0
	movq	-72(%rbp), %rdi
	.loc	9 222 62
	callq	__ZN11proc_macro23imp11TokenStream14unwrap_nightly17he6eca92ea3a05225E
	movl	%eax, -4(%rbp)
	movl	-4(%rbp), %eax
	movl	%eax, -64(%rbp)
	.loc	9 222 85
	movl	-64(%rbp), %eax
	addq	$80, %rsp
	popq	%rbp
	retq
Ltmp279:
Lfunc_end33:
	.cfi_endproc

	.globl	__ZN122_$LT$proc_macro2..imp..TokenStream$u20$as$u20$core..iter..traits..collect..Extend$LT$proc_macro2..imp..TokenStream$GT$$GT$6extend28_$u7b$$u7b$closure$u7d$$u7d$17hfcb4480ff56d13deE
	.p2align	4, 0x90
__ZN122_$LT$proc_macro2..imp..TokenStream$u20$as$u20$core..iter..traits..collect..Extend$LT$proc_macro2..imp..TokenStream$GT$$GT$6extend28_$u7b$$u7b$closure$u7d$$u7d$17hfcb4480ff56d13deE:
Lfunc_begin34:
	.loc	9 225 0 is_stmt 1
	.cfi_startproc
	pushq	%rbp
	.cfi_def_cfa_offset 16
	.cfi_offset %rbp, -16
	movq	%rsp, %rbp
	.cfi_def_cfa_register %rbp
	subq	$80, %rsp
	movq	%rdi, %rax
	movq	%rsi, -8(%rbp)
Ltmp280:
	.loc	9 225 61 prologue_end
	leaq	-48(%rbp), %rcx
	movq	%rcx, %rsi
	movq	%rdi, -56(%rbp)
	movq	%rsi, %rdi
	movq	%rdx, %rsi
	movl	$40, %edx
Ltmp281:
	.loc	9 0 61 is_stmt 0
	movq	%rax, -64(%rbp)
	movq	%rcx, -72(%rbp)
	.loc	9 225 61
	callq	_memcpy
	movq	-56(%rbp), %rdi
	movq	-72(%rbp), %rsi
	callq	__ZN11proc_macro23imp11TokenStream13unwrap_stable17h7ef3bec9c65ee533E
	.loc	9 0 61
	movq	-64(%rbp), %rax
	.loc	9 225 83
	addq	$80, %rsp
	popq	%rbp
	retq
Ltmp282:
Lfunc_end34:
	.cfi_endproc

	.globl	__ZN132_$LT$proc_macro2..fallback..TokenStream$u20$as$u20$core..iter..traits..collect..Extend$LT$proc_macro2..fallback..TokenStream$GT$$GT$6extend17he9ddfbe108bd7c2dE
	.p2align	4, 0x90
__ZN132_$LT$proc_macro2..fallback..TokenStream$u20$as$u20$core..iter..traits..collect..Extend$LT$proc_macro2..fallback..TokenStream$GT$$GT$6extend17he9ddfbe108bd7c2dE:
Lfunc_begin35:
	.loc	10 251 0 is_stmt 1
	.cfi_startproc
	pushq	%rbp
	.cfi_def_cfa_offset 16
	.cfi_offset %rbp, -16
	movq	%rsp, %rbp
	.cfi_def_cfa_register %rbp
	subq	$208, %rsp
	movq	%rdi, -8(%rbp)
Ltmp283:
	.loc	10 252 27 prologue_end
	leaq	-48(%rbp), %rax
	movq	%rax, %rcx
	movq	%rdi, -200(%rbp)
	movq	%rcx, %rdi
	movl	$40, %edx
	movq	%rax, -208(%rbp)
	callq	_memcpy
Ltmp284:
	leaq	-88(%rbp), %rdi
	movq	-208(%rbp), %rsi
	callq	__ZN63_$LT$I$u20$as$u20$core..iter..traits..collect..IntoIterator$GT$9into_iter17h286410ea62793383E
	leaq	-192(%rbp), %rdi
	leaq	-88(%rbp), %rsi
	callq	__ZN4core4iter6traits8iterator8Iterator7flatten17h316b44238f6eeef7E
	.loc	10 0 27 is_stmt 0
	movq	-200(%rbp), %rdi
	.loc	10 252 9
	leaq	-192(%rbp), %rsi
	callq	__ZN89_$LT$alloc..vec..Vec$LT$T$GT$$u20$as$u20$core..iter..traits..collect..Extend$LT$T$GT$$GT$6extend17hda1744e739067862E
	.loc	10 253 6 is_stmt 1
	addq	$208, %rsp
	popq	%rbp
	retq
Ltmp285:
Lfunc_end35:
	.cfi_endproc

	.globl	__ZN4core10intrinsics19copy_nonoverlapping17h6a40d2a47de9a48dE
	.p2align	4, 0x90
__ZN4core10intrinsics19copy_nonoverlapping17h6a40d2a47de9a48dE:
Lfunc_begin36:
	.file	11 "/rustc/6c8927b0cf80ceee19386026cf9d7fd4fd9d486f/src/libcore/intrinsics.rs"
	.loc	11 2114 0
	.cfi_startproc
	pushq	%rbp
	.cfi_def_cfa_offset 16
	.cfi_offset %rbp, -16
	movq	%rsp, %rbp
	.cfi_def_cfa_register %rbp
	subq	$32, %rsp
	movq	%rdi, -24(%rbp)
	movq	%rsi, -16(%rbp)
	movq	%rdx, -8(%rbp)
Ltmp286:
	.loc	11 2130 14 prologue_end
	imulq	$48, %rdx, %rdx
	movq	%rdi, -32(%rbp)
	movq	%rsi, %rdi
	movq	-32(%rbp), %rsi
	callq	_memcpy
	.loc	11 2131 2
	addq	$32, %rsp
	popq	%rbp
	retq
Ltmp287:
Lfunc_end36:
	.cfi_endproc

	.globl	__ZN4core10intrinsics19copy_nonoverlapping17h8b59aefd40da2568E
	.p2align	4, 0x90
__ZN4core10intrinsics19copy_nonoverlapping17h8b59aefd40da2568E:
Lfunc_begin37:
	.loc	11 2114 0
	.cfi_startproc
	pushq	%rbp
	.cfi_def_cfa_offset 16
	.cfi_offset %rbp, -16
	movq	%rsp, %rbp
	.cfi_def_cfa_register %rbp
	subq	$32, %rsp
	movq	%rdi, -24(%rbp)
	movq	%rsi, -16(%rbp)
	movq	%rdx, -8(%rbp)
Ltmp288:
	.loc	11 2130 14 prologue_end
	imulq	$40, %rdx, %rdx
	movq	%rdi, -32(%rbp)
	movq	%rsi, %rdi
	movq	-32(%rbp), %rsi
	callq	_memcpy
	.loc	11 2131 2
	addq	$32, %rsp
	popq	%rbp
	retq
Ltmp289:
Lfunc_end37:
	.cfi_endproc

	.globl	__ZN4core3fmt10ArgumentV13new17h6a796155dfa6fc67E
	.p2align	4, 0x90
__ZN4core3fmt10ArgumentV13new17h6a796155dfa6fc67E:
Lfunc_begin38:
	.file	12 "/rustc/6c8927b0cf80ceee19386026cf9d7fd4fd9d486f/src/libcore/fmt/mod.rs"
	.loc	12 281 0
	.cfi_startproc
	pushq	%rbp
	.cfi_def_cfa_offset 16
	.cfi_offset %rbp, -16
	movq	%rsp, %rbp
	.cfi_def_cfa_register %rbp
	subq	$72, %rsp
	movq	%rdi, -32(%rbp)
	movq	%rsi, -24(%rbp)
Ltmp290:
	.loc	12 290 42 prologue_end
	movq	%rsi, -16(%rbp)
	movq	-16(%rbp), %rax
	movq	%rdi, -56(%rbp)
	movq	%rax, -64(%rbp)
	.loc	12 0 42 is_stmt 0
	movq	-56(%rbp), %rax
	.loc	12 290 68
	movq	%rax, -8(%rbp)
	movq	-8(%rbp), %rcx
	movq	%rcx, -72(%rbp)
	.loc	12 0 68
	movq	-72(%rbp), %rax
	.loc	12 290 18
	movq	%rax, -48(%rbp)
	movq	-64(%rbp), %rcx
	movq	%rcx, -40(%rbp)
	.loc	12 291 6 is_stmt 1
	movq	-48(%rbp), %rax
	movq	-40(%rbp), %rdx
	addq	$72, %rsp
	popq	%rbp
	retq
Ltmp291:
Lfunc_end38:
	.cfi_endproc

	.p2align	4, 0x90
__ZN4core3fmt9Arguments6new_v117hb5ee640ba6d5bf4bE:
Lfunc_begin39:
	.loc	12 327 0
	.cfi_startproc
	pushq	%rbp
	.cfi_def_cfa_offset 16
	.cfi_offset %rbp, -16
	movq	%rsp, %rbp
	.cfi_def_cfa_register %rbp
	subq	$48, %rsp
	movq	%rdi, %rax
	movq	%rsi, -32(%rbp)
	movq	%rdx, -24(%rbp)
	movq	%rcx, -16(%rbp)
	movq	%r8, -8(%rbp)
Ltmp292:
	.loc	12 328 34 prologue_end
	movq	$0, -48(%rbp)
	.loc	12 328 9 is_stmt 0
	movq	%rsi, (%rdi)
	movq	%rdx, 8(%rdi)
	movq	-48(%rbp), %rdx
	movq	-40(%rbp), %rsi
	movq	%rdx, 16(%rdi)
	movq	%rsi, 24(%rdi)
	movq	%rcx, 32(%rdi)
	movq	%r8, 40(%rdi)
	.loc	12 329 6 is_stmt 1
	addq	$48, %rsp
	popq	%rbp
	retq
Ltmp293:
Lfunc_end39:
	.cfi_endproc

	.globl	__ZN4core3mem4swap17h991d91d7022e6432E
	.p2align	4, 0x90
__ZN4core3mem4swap17h991d91d7022e6432E:
Lfunc_begin40:
	.file	13 "/rustc/6c8927b0cf80ceee19386026cf9d7fd4fd9d486f/src/libcore/mem/mod.rs"
	.loc	13 686 0
	.cfi_startproc
	pushq	%rbp
	.cfi_def_cfa_offset 16
	.cfi_offset %rbp, -16
	movq	%rsp, %rbp
	.cfi_def_cfa_register %rbp
	subq	$16, %rsp
	movq	%rdi, -16(%rbp)
	movq	%rsi, -8(%rbp)
Ltmp294:
	.loc	13 690 9 prologue_end
	callq	__ZN4core3ptr23swap_nonoverlapping_one17h8f4d0dc7c5d54be1E
	.loc	13 692 2
	addq	$16, %rsp
	popq	%rbp
	retq
Ltmp295:
Lfunc_end40:
	.cfi_endproc

	.globl	__ZN4core3mem4swap17hc5943c8d8ba66ec9E
	.p2align	4, 0x90
__ZN4core3mem4swap17hc5943c8d8ba66ec9E:
Lfunc_begin41:
	.loc	13 686 0
	.cfi_startproc
	pushq	%rbp
	.cfi_def_cfa_offset 16
	.cfi_offset %rbp, -16
	movq	%rsp, %rbp
	.cfi_def_cfa_register %rbp
	subq	$16, %rsp
	movq	%rdi, -16(%rbp)
	movq	%rsi, -8(%rbp)
Ltmp296:
	.loc	13 690 9 prologue_end
	callq	__ZN4core3ptr23swap_nonoverlapping_one17hb519005d4af17ea0E
	.loc	13 692 2
	addq	$16, %rsp
	popq	%rbp
	retq
Ltmp297:
Lfunc_end41:
	.cfi_endproc

	.globl	__ZN4core3mem4take17h2d0ebb80c9e89cb2E
	.p2align	4, 0x90
__ZN4core3mem4take17h2d0ebb80c9e89cb2E:
Lfunc_begin42:
	.loc	13 750 0
	.cfi_startproc
	pushq	%rbp
	.cfi_def_cfa_offset 16
	.cfi_offset %rbp, -16
	movq	%rsp, %rbp
	.cfi_def_cfa_register %rbp
	subq	$80, %rsp
	movq	%rdi, %rax
	movq	%rsi, -8(%rbp)
Ltmp298:
	.loc	13 751 19 prologue_end
	leaq	-56(%rbp), %rcx
	movq	%rdi, -64(%rbp)
	movq	%rcx, %rdi
	movq	%rsi, -72(%rbp)
	movq	%rax, -80(%rbp)
	callq	__ZN72_$LT$core..option..Option$LT$T$GT$$u20$as$u20$core..default..Default$GT$7default17hbf4846a0a7a0a1e8E
	.loc	13 0 19 is_stmt 0
	movq	-64(%rbp), %rdi
	movq	-72(%rbp), %rsi
	.loc	13 751 5
	leaq	-56(%rbp), %rdx
	callq	__ZN4core3mem7replace17hc72b52c856cb0aeeE
	.loc	13 0 5
	movq	-80(%rbp), %rax
	.loc	13 752 2 is_stmt 1
	addq	$80, %rsp
	popq	%rbp
	retq
Ltmp299:
Lfunc_end42:
	.cfi_endproc

	.globl	__ZN4core3mem4take17h898df11fa83ea438E
	.p2align	4, 0x90
__ZN4core3mem4take17h898df11fa83ea438E:
Lfunc_begin43:
	.loc	13 750 0
	.cfi_startproc
	pushq	%rbp
	.cfi_def_cfa_offset 16
	.cfi_offset %rbp, -16
	movq	%rsp, %rbp
	.cfi_def_cfa_register %rbp
	subq	$80, %rsp
	movq	%rdi, %rax
	movq	%rsi, -8(%rbp)
Ltmp300:
	.loc	13 751 19 prologue_end
	leaq	-48(%rbp), %rcx
	movq	%rdi, -56(%rbp)
	movq	%rcx, %rdi
	movq	%rsi, -64(%rbp)
	movq	%rax, -72(%rbp)
	callq	__ZN72_$LT$core..option..Option$LT$T$GT$$u20$as$u20$core..default..Default$GT$7default17hfa0935e3c6195c4aE
	.loc	13 0 19 is_stmt 0
	movq	-56(%rbp), %rdi
	movq	-64(%rbp), %rsi
	.loc	13 751 5
	leaq	-48(%rbp), %rdx
	callq	__ZN4core3mem7replace17h9264b39d42e13e69E
	.loc	13 0 5
	movq	-72(%rbp), %rax
	.loc	13 752 2 is_stmt 1
	addq	$80, %rsp
	popq	%rbp
	retq
Ltmp301:
Lfunc_end43:
	.cfi_endproc

	.globl	__ZN4core3mem7replace17h9264b39d42e13e69E
	.p2align	4, 0x90
__ZN4core3mem7replace17h9264b39d42e13e69E:
Lfunc_begin44:
	.loc	13 814 0
	.cfi_startproc
	.cfi_personality 155, _rust_eh_personality
	.cfi_lsda 16, Lexception6
	pushq	%rbp
	.cfi_def_cfa_offset 16
	.cfi_offset %rbp, -16
	movq	%rsp, %rbp
	.cfi_def_cfa_register %rbp
	subq	$48, %rsp
	movq	%rdi, %rax
	movq	%rsi, -24(%rbp)
Ltmp302:
	movq	%rdi, -32(%rbp)
Ltmp305:
	.loc	13 815 5 prologue_end
	movq	%rsi, %rdi
	movq	%rdx, %rsi
	movq	%rdx, -40(%rbp)
Ltmp306:
	.loc	13 0 5 is_stmt 0
	movq	%rax, -48(%rbp)
	.loc	13 815 5
	callq	__ZN4core3mem4swap17hc5943c8d8ba66ec9E
Ltmp303:
	jmp	LBB44_2
Ltmp307:
LBB44_1:
	.loc	13 814 1 is_stmt 1
	movq	-16(%rbp), %rdi
	callq	__Unwind_Resume
	ud2
Ltmp308:
LBB44_2:
	.loc	13 0 1 is_stmt 0
	movq	-32(%rbp), %rax
	movq	-40(%rbp), %rcx
	.loc	13 816 5 is_stmt 1
	movq	%rax, %rdi
	movq	%rcx, %rsi
	movl	$40, %edx
	callq	_memcpy
	movq	-48(%rbp), %rax
	.loc	13 817 2
	addq	$48, %rsp
	popq	%rbp
	retq
Ltmp309:
LBB44_3:
	.loc	13 0 2 is_stmt 0
	movq	-40(%rbp), %rdi
	.loc	13 817 1
	callq	__ZN4core3ptr13drop_in_place17h06a5b1a3af6a730aE
	jmp	LBB44_1
Ltmp310:
LBB44_4:
Ltmp304:
	.loc	13 0 1
	movq	%rax, -16(%rbp)
	movl	%edx, -8(%rbp)
	jmp	LBB44_3
Lfunc_end44:
	.cfi_endproc
	.section	__TEXT,__gcc_except_tab
	.p2align	2
GCC_except_table44:
Lexception6:
	.byte	255
	.byte	255
	.byte	1
	.uleb128 Lcst_end6-Lcst_begin6
Lcst_begin6:
	.uleb128 Ltmp302-Lfunc_begin44
	.uleb128 Ltmp303-Ltmp302
	.uleb128 Ltmp304-Lfunc_begin44
	.byte	0
	.uleb128 Ltmp303-Lfunc_begin44
	.uleb128 Lfunc_end44-Ltmp303
	.byte	0
	.byte	0
Lcst_end6:
	.p2align	2

	.section	__TEXT,__text,regular,pure_instructions
	.globl	__ZN4core3mem7replace17hc72b52c856cb0aeeE
	.p2align	4, 0x90
__ZN4core3mem7replace17hc72b52c856cb0aeeE:
Lfunc_begin45:
	.loc	13 814 0 is_stmt 1
	.cfi_startproc
	.cfi_personality 155, _rust_eh_personality
	.cfi_lsda 16, Lexception7
	pushq	%rbp
	.cfi_def_cfa_offset 16
	.cfi_offset %rbp, -16
	movq	%rsp, %rbp
	.cfi_def_cfa_register %rbp
	subq	$48, %rsp
	movq	%rdi, %rax
	movq	%rsi, -24(%rbp)
Ltmp311:
	movq	%rdi, -32(%rbp)
Ltmp314:
	.loc	13 815 5 prologue_end
	movq	%rsi, %rdi
	movq	%rdx, %rsi
	movq	%rdx, -40(%rbp)
Ltmp315:
	.loc	13 0 5 is_stmt 0
	movq	%rax, -48(%rbp)
	.loc	13 815 5
	callq	__ZN4core3mem4swap17h991d91d7022e6432E
Ltmp312:
	jmp	LBB45_2
Ltmp316:
LBB45_1:
	.loc	13 814 1 is_stmt 1
	movq	-16(%rbp), %rdi
	callq	__Unwind_Resume
	ud2
Ltmp317:
LBB45_2:
	.loc	13 0 1 is_stmt 0
	movq	-32(%rbp), %rax
	movq	-40(%rbp), %rcx
	.loc	13 816 5 is_stmt 1
	movq	%rax, %rdi
	movq	%rcx, %rsi
	movl	$48, %edx
	callq	_memcpy
	movq	-48(%rbp), %rax
	.loc	13 817 2
	addq	$48, %rsp
	popq	%rbp
	retq
Ltmp318:
LBB45_3:
	.loc	13 0 2 is_stmt 0
	movq	-40(%rbp), %rdi
	.loc	13 817 1
	callq	__ZN4core3ptr13drop_in_place17h94dcce221d0dc1cfE
	jmp	LBB45_1
Ltmp319:
LBB45_4:
Ltmp313:
	.loc	13 0 1
	movq	%rax, -16(%rbp)
	movl	%edx, -8(%rbp)
	jmp	LBB45_3
Lfunc_end45:
	.cfi_endproc
	.section	__TEXT,__gcc_except_tab
	.p2align	2
GCC_except_table45:
Lexception7:
	.byte	255
	.byte	255
	.byte	1
	.uleb128 Lcst_end7-Lcst_begin7
Lcst_begin7:
	.uleb128 Ltmp311-Lfunc_begin45
	.uleb128 Ltmp312-Ltmp311
	.uleb128 Ltmp313-Lfunc_begin45
	.byte	0
	.uleb128 Ltmp312-Lfunc_begin45
	.uleb128 Lfunc_end45-Ltmp312
	.byte	0
	.byte	0
Lcst_end7:
	.p2align	2

	.section	__TEXT,__text,regular,pure_instructions
	.p2align	4, 0x90
__ZN4core3num23_$LT$impl$u20$usize$GT$11checked_add17h46fa12bf740feff3E:
Lfunc_begin46:
	.file	14 "/rustc/6c8927b0cf80ceee19386026cf9d7fd4fd9d486f/src/libcore/num/mod.rs"
	.loc	14 2992 0 is_stmt 1
	.cfi_startproc
	pushq	%rbp
	.cfi_def_cfa_offset 16
	.cfi_offset %rbp, -16
	movq	%rsp, %rbp
	.cfi_def_cfa_register %rbp
	subq	$64, %rsp
	movq	%rdi, -32(%rbp)
	movq	%rsi, -24(%rbp)
Ltmp320:
	.loc	14 2993 30 prologue_end
	callq	__ZN4core3num23_$LT$impl$u20$usize$GT$15overflowing_add17h55c6ebefa29c6827E
	movq	%rax, -56(%rbp)
	movb	%dl, -57(%rbp)
	.loc	14 0 30 is_stmt 0
	movq	-56(%rbp), %rax
	.loc	14 2993 22
	movq	%rax, -16(%rbp)
	movb	-57(%rbp), %cl
	.loc	14 2993 25
	andb	$1, %cl
	movb	%cl, -2(%rbp)
	movb	-57(%rbp), %cl
Ltmp321:
	.loc	14 27 9 is_stmt 1
	andb	$1, %cl
	movb	%cl, -1(%rbp)
	movb	-1(%rbp), %cl
	movb	%cl, -58(%rbp)
	.loc	14 0 9 is_stmt 0
	movb	-58(%rbp), %al
	.loc	14 2994 17 is_stmt 1
	testb	$1, %al
	jne	LBB46_4
	jmp	LBB46_3
LBB46_3:
	.loc	14 0 17 is_stmt 0
	movq	-56(%rbp), %rax
	.loc	14 2994 46
	movq	%rax, -40(%rbp)
	movq	$1, -48(%rbp)
	.loc	14 2994 17
	jmp	LBB46_5
LBB46_4:
	.loc	14 2994 34
	movq	$0, -48(%rbp)
Ltmp322:
LBB46_5:
	.loc	14 2995 14 is_stmt 1
	movq	-48(%rbp), %rax
	movq	-40(%rbp), %rdx
	addq	$64, %rsp
	popq	%rbp
	retq
Ltmp323:
Lfunc_end46:
	.cfi_endproc

	.p2align	4, 0x90
__ZN4core3num23_$LT$impl$u20$usize$GT$14saturating_add17h33897914083f9b86E:
Lfunc_begin47:
	.loc	14 3339 0
	.cfi_startproc
	pushq	%rbp
	.cfi_def_cfa_offset 16
	.cfi_offset %rbp, -16
	movq	%rsp, %rbp
	.cfi_def_cfa_register %rbp
	subq	$32, %rsp
	movq	%rdi, -24(%rbp)
	movq	%rsi, -16(%rbp)
Ltmp324:
	.loc	14 3340 17 prologue_end
	addq	%rsi, %rdi
	movq	$-1, %rax
	cmovbq	%rax, %rdi
	movq	%rdi, -8(%rbp)
	movq	-8(%rbp), %rax
	movq	%rax, -32(%rbp)
	.loc	14 0 17 is_stmt 0
	movq	-32(%rbp), %rax
	.loc	14 3341 14 is_stmt 1
	addq	$32, %rsp
	popq	%rbp
	retq
Ltmp325:
Lfunc_end47:
	.cfi_endproc

	.p2align	4, 0x90
__ZN4core3num23_$LT$impl$u20$usize$GT$15overflowing_add17h55c6ebefa29c6827E:
Lfunc_begin48:
	.loc	14 3750 0
	.cfi_startproc
	pushq	%rbp
	.cfi_def_cfa_offset 16
	.cfi_offset %rbp, -16
	movq	%rsp, %rbp
	.cfi_def_cfa_register %rbp
	subq	$80, %rsp
	movq	%rdi, -48(%rbp)
	movq	%rsi, -40(%rbp)
Ltmp326:
	.loc	14 3751 30 prologue_end
	addq	%rsi, %rdi
	setb	%al
	andb	$1, %al
	movq	%rdi, -32(%rbp)
	movb	%al, -24(%rbp)
	movq	-32(%rbp), %rcx
	movb	-24(%rbp), %al
	movq	%rcx, -72(%rbp)
	movb	%al, -73(%rbp)
	.loc	14 0 30 is_stmt 0
	movq	-72(%rbp), %rax
	.loc	14 3751 22
	movq	%rax, -16(%rbp)
	movb	-73(%rbp), %cl
	.loc	14 3751 25
	andb	$1, %cl
	movb	%cl, -1(%rbp)
Ltmp327:
	.loc	14 3752 17 is_stmt 1
	movq	%rax, -64(%rbp)
	movb	%cl, -56(%rbp)
Ltmp328:
	.loc	14 3753 14
	movq	-64(%rbp), %rax
	movb	-56(%rbp), %dl
	addq	$80, %rsp
	popq	%rbp
	retq
Ltmp329:
Lfunc_end48:
	.cfi_endproc

	.p2align	4, 0x90
__ZN4core3ops8function5FnMut8call_mut17hb9f3cc9635fb7643E:
Lfunc_begin49:
	.file	15 "/rustc/6c8927b0cf80ceee19386026cf9d7fd4fd9d486f/src/libcore/ops/function.rs"
	.loc	15 154 0
	.cfi_startproc
	pushq	%rbp
	.cfi_def_cfa_offset 16
	.cfi_offset %rbp, -16
	movq	%rsp, %rbp
	.cfi_def_cfa_register %rbp
	subq	$96, %rsp
	leaq	-72(%rbp), %rax
	movq	%rax, %rcx
	movq	%rdi, -80(%rbp)
	movq	%rcx, %rdi
	movl	$48, %edx
	movq	%rax, -88(%rbp)
	callq	_memcpy
	movq	-80(%rbp), %rax
	movq	%rax, -16(%rbp)
Ltmp330:
	movq	-88(%rbp), %rcx
Ltmp331:
	.loc	15 154 5 prologue_end
	movq	%rcx, %rdi
	callq	__ZN11proc_macro23imp19into_compiler_token17h3e53d7e25ad82063E
	movq	%rax, -8(%rbp)
	movq	-8(%rbp), %rax
	movq	%rax, -24(%rbp)
Ltmp332:
	movq	-24(%rbp), %rax
	addq	$96, %rsp
	popq	%rbp
	retq
Ltmp333:
Lfunc_end49:
	.cfi_endproc

	.globl	__ZN4core3ops8function5impls79_$LT$impl$u20$core..ops..function..FnMut$LT$A$GT$$u20$for$u20$$RF$mut$u20$F$GT$8call_mut17h15ae85637ef79488E
	.p2align	4, 0x90
__ZN4core3ops8function5impls79_$LT$impl$u20$core..ops..function..FnMut$LT$A$GT$$u20$for$u20$$RF$mut$u20$F$GT$8call_mut17h15ae85637ef79488E:
Lfunc_begin50:
	.loc	15 274 0
	.cfi_startproc
	pushq	%rbp
	.cfi_def_cfa_offset 16
	.cfi_offset %rbp, -16
	movq	%rsp, %rbp
	.cfi_def_cfa_register %rbp
	subq	$32, %rsp
	movl	%esi, -20(%rbp)
	movl	-20(%rbp), %eax
	movl	%eax, -24(%rbp)
	movq	%rdi, -8(%rbp)
Ltmp334:
	.loc	15 275 13 prologue_end
	movq	(%rdi), %rdi
	.loc	15 275 30 is_stmt 0
	movl	-24(%rbp), %eax
	movl	%eax, -16(%rbp)
	.loc	15 275 13
	movl	-16(%rbp), %esi
	callq	__ZN4core4iter6traits8iterator8Iterator8for_each4call28_$u7b$$u7b$closure$u7d$$u7d$17hf192f5f2c09a95fbE
	.loc	15 276 10 is_stmt 1
	addq	$32, %rsp
	popq	%rbp
	retq
Ltmp335:
Lfunc_end50:
	.cfi_endproc

	.globl	__ZN4core3ops8function5impls79_$LT$impl$u20$core..ops..function..FnMut$LT$A$GT$$u20$for$u20$$RF$mut$u20$F$GT$8call_mut17h54d35092249f0df2E
	.p2align	4, 0x90
__ZN4core3ops8function5impls79_$LT$impl$u20$core..ops..function..FnMut$LT$A$GT$$u20$for$u20$$RF$mut$u20$F$GT$8call_mut17h54d35092249f0df2E:
Lfunc_begin51:
	.loc	15 274 0
	.cfi_startproc
	pushq	%rbp
	.cfi_def_cfa_offset 16
	.cfi_offset %rbp, -16
	movq	%rsp, %rbp
	.cfi_def_cfa_register %rbp
	subq	$160, %rsp
	leaq	-120(%rbp), %rax
	movq	%rax, %rcx
	movq	%rdi, -128(%rbp)
	movq	%rcx, %rdi
	movl	$48, %ecx
	movq	%rcx, %rdx
	movq	%rax, -136(%rbp)
	movq	%rcx, -144(%rbp)
	callq	_memcpy
	movq	-128(%rbp), %rax
	movq	%rax, -16(%rbp)
Ltmp336:
	.loc	15 275 13 prologue_end
	movq	(%rax), %rdi
	.loc	15 275 30 is_stmt 0
	leaq	-64(%rbp), %rcx
	movq	%rcx, %rdx
	movq	-136(%rbp), %rsi
	movq	%rdi, -152(%rbp)
	movq	%rdx, %rdi
	movq	-144(%rbp), %rdx
	movq	%rcx, -160(%rbp)
	callq	_memcpy
	movq	-160(%rbp), %rax
	movq	-152(%rbp), %rdi
	.loc	15 275 13
	movq	%rax, %rsi
	callq	__ZN5quote7spanned10join_spans28_$u7b$$u7b$closure$u7d$$u7d$17h351959aa1fe258cbE
	movq	%rax, -8(%rbp)
	movq	-8(%rbp), %rax
	movq	%rax, -72(%rbp)
Ltmp337:
	.loc	15 276 10 is_stmt 1
	movq	-72(%rbp), %rax
	addq	$160, %rsp
	popq	%rbp
	retq
Ltmp338:
Lfunc_end51:
	.cfi_endproc

	.globl	__ZN4core3ops8function5impls80_$LT$impl$u20$core..ops..function..FnOnce$LT$A$GT$$u20$for$u20$$RF$mut$u20$F$GT$9call_once17h294ccbc8ba9afef9E
	.p2align	4, 0x90
__ZN4core3ops8function5impls80_$LT$impl$u20$core..ops..function..FnOnce$LT$A$GT$$u20$for$u20$$RF$mut$u20$F$GT$9call_once17h294ccbc8ba9afef9E:
Lfunc_begin52:
	.loc	15 285 0
	.cfi_startproc
	pushq	%rbp
	.cfi_def_cfa_offset 16
	.cfi_offset %rbp, -16
	movq	%rsp, %rbp
	.cfi_def_cfa_register %rbp
	subq	$144, %rsp
	movq	%rdi, %rax
	leaq	-88(%rbp), %rcx
	movq	%rcx, %r8
	movq	%rdi, -96(%rbp)
	movq	%r8, %rdi
	movq	%rsi, -104(%rbp)
	movq	%rdx, %rsi
	movl	$40, %edx
	movq	%rdx, -112(%rbp)
	movq	%rax, -120(%rbp)
	movq	%rcx, -128(%rbp)
	callq	_memcpy
	movq	-104(%rbp), %rax
	movq	%rax, -8(%rbp)
Ltmp339:
	.loc	15 286 30 prologue_end
	leaq	-48(%rbp), %rcx
	movq	%rcx, %rdx
	movq	-128(%rbp), %rsi
	movq	%rdx, %rdi
	movq	-112(%rbp), %rdx
	movq	%rcx, -136(%rbp)
	callq	_memcpy
	movq	-136(%rbp), %rax
	movq	-96(%rbp), %rdi
	movq	-104(%rbp), %rsi
	.loc	15 286 13 is_stmt 0
	movq	%rax, %rdx
	callq	__ZN112_$LT$proc_macro2..TokenStream$u20$as$u20$core..iter..traits..collect..Extend$LT$proc_macro2..TokenStream$GT$$GT$6extend28_$u7b$$u7b$closure$u7d$$u7d$17hef7510ee4ccd0cf5E
Ltmp340:
	.loc	15 0 13
	movq	-120(%rbp), %rax
	.loc	15 287 10 is_stmt 1
	addq	$144, %rsp
	popq	%rbp
	retq
Ltmp341:
Lfunc_end52:
	.cfi_endproc

	.globl	__ZN4core3ops8function5impls80_$LT$impl$u20$core..ops..function..FnOnce$LT$A$GT$$u20$for$u20$$RF$mut$u20$F$GT$9call_once17h31b1ec9822face86E
	.p2align	4, 0x90
__ZN4core3ops8function5impls80_$LT$impl$u20$core..ops..function..FnOnce$LT$A$GT$$u20$for$u20$$RF$mut$u20$F$GT$9call_once17h31b1ec9822face86E:
Lfunc_begin53:
	.loc	15 285 0
	.cfi_startproc
	pushq	%rbp
	.cfi_def_cfa_offset 16
	.cfi_offset %rbp, -16
	movq	%rsp, %rbp
	.cfi_def_cfa_register %rbp
	subq	$160, %rsp
	leaq	-120(%rbp), %rax
	movq	%rax, %rcx
	movq	%rdi, -128(%rbp)
	movq	%rcx, %rdi
	movl	$48, %ecx
	movq	%rcx, %rdx
	movq	%rax, -136(%rbp)
	movq	%rcx, -144(%rbp)
	callq	_memcpy
	movq	-128(%rbp), %rax
	movq	%rax, -16(%rbp)
Ltmp342:
	.loc	15 286 30 prologue_end
	leaq	-64(%rbp), %rcx
	movq	%rcx, %rdx
	movq	-136(%rbp), %rsi
	movq	%rdx, %rdi
	movq	-144(%rbp), %rdx
	movq	%rcx, -152(%rbp)
	callq	_memcpy
	movq	-152(%rbp), %rax
	movq	-128(%rbp), %rdi
	.loc	15 286 13 is_stmt 0
	movq	%rax, %rsi
	callq	__ZN4core3ops8function5FnMut8call_mut17hb9f3cc9635fb7643E
	movq	%rax, -8(%rbp)
	movq	-8(%rbp), %rax
	movq	%rax, -72(%rbp)
Ltmp343:
	.loc	15 287 10 is_stmt 1
	movq	-72(%rbp), %rax
	addq	$160, %rsp
	popq	%rbp
	retq
Ltmp344:
Lfunc_end53:
	.cfi_endproc

	.globl	__ZN4core3ops8function5impls80_$LT$impl$u20$core..ops..function..FnOnce$LT$A$GT$$u20$for$u20$$RF$mut$u20$F$GT$9call_once17hbfb9039823cce08aE
	.p2align	4, 0x90
__ZN4core3ops8function5impls80_$LT$impl$u20$core..ops..function..FnOnce$LT$A$GT$$u20$for$u20$$RF$mut$u20$F$GT$9call_once17hbfb9039823cce08aE:
Lfunc_begin54:
	.loc	15 285 0
	.cfi_startproc
	pushq	%rbp
	.cfi_def_cfa_offset 16
	.cfi_offset %rbp, -16
	movq	%rsp, %rbp
	.cfi_def_cfa_register %rbp
	subq	$160, %rsp
	movq	%rdi, %rax
	leaq	-104(%rbp), %rcx
	movq	%rcx, %r8
	movq	%rdi, -112(%rbp)
	movq	%r8, %rdi
	movq	%rsi, -120(%rbp)
	movq	%rdx, %rsi
	movl	$48, %edx
	movq	%rdx, -128(%rbp)
	movq	%rax, -136(%rbp)
	movq	%rcx, -144(%rbp)
	callq	_memcpy
	movq	-120(%rbp), %rax
	movq	%rax, -8(%rbp)
Ltmp345:
	.loc	15 286 30 prologue_end
	leaq	-56(%rbp), %rcx
	movq	%rcx, %rdx
	movq	-144(%rbp), %rsi
	movq	%rdx, %rdi
	movq	-128(%rbp), %rdx
	movq	%rcx, -152(%rbp)
	callq	_memcpy
	movq	-152(%rbp), %rax
	movq	-112(%rbp), %rdi
	movq	-120(%rbp), %rsi
	.loc	15 286 13 is_stmt 0
	movq	%rax, %rdx
	callq	__ZN5quote9__private13parse_spanned28_$u7b$$u7b$closure$u7d$$u7d$17h1594c84de275813eE
Ltmp346:
	.loc	15 0 13
	movq	-136(%rbp), %rax
	.loc	15 287 10 is_stmt 1
	addq	$160, %rsp
	popq	%rbp
	retq
Ltmp347:
Lfunc_end54:
	.cfi_endproc

	.globl	__ZN4core3ops8function5impls80_$LT$impl$u20$core..ops..function..FnOnce$LT$A$GT$$u20$for$u20$$RF$mut$u20$F$GT$9call_once17hfbb570fb535b42aaE
	.p2align	4, 0x90
__ZN4core3ops8function5impls80_$LT$impl$u20$core..ops..function..FnOnce$LT$A$GT$$u20$for$u20$$RF$mut$u20$F$GT$9call_once17hfbb570fb535b42aaE:
Lfunc_begin55:
	.loc	15 285 0
	.cfi_startproc
	pushq	%rbp
	.cfi_def_cfa_offset 16
	.cfi_offset %rbp, -16
	movq	%rsp, %rbp
	.cfi_def_cfa_register %rbp
	subq	$144, %rsp
	movq	%rdi, %rax
	leaq	-88(%rbp), %rcx
	movq	%rcx, %r8
	movq	%rdi, -96(%rbp)
	movq	%r8, %rdi
	movq	%rsi, -104(%rbp)
	movq	%rdx, %rsi
	movl	$40, %edx
	movq	%rdx, -112(%rbp)
	movq	%rax, -120(%rbp)
	movq	%rcx, -128(%rbp)
	callq	_memcpy
	movq	-104(%rbp), %rax
	movq	%rax, -8(%rbp)
Ltmp348:
	.loc	15 286 30 prologue_end
	leaq	-48(%rbp), %rcx
	movq	%rcx, %rdx
	movq	-128(%rbp), %rsi
	movq	%rdx, %rdi
	movq	-112(%rbp), %rdx
	movq	%rcx, -136(%rbp)
	callq	_memcpy
	movq	-136(%rbp), %rax
	movq	-96(%rbp), %rdi
	movq	-104(%rbp), %rsi
	.loc	15 286 13 is_stmt 0
	movq	%rax, %rdx
	callq	__ZN122_$LT$proc_macro2..imp..TokenStream$u20$as$u20$core..iter..traits..collect..Extend$LT$proc_macro2..imp..TokenStream$GT$$GT$6extend28_$u7b$$u7b$closure$u7d$$u7d$17hfcb4480ff56d13deE
Ltmp349:
	.loc	15 0 13
	movq	-120(%rbp), %rax
	.loc	15 287 10 is_stmt 1
	addq	$144, %rsp
	popq	%rbp
	retq
Ltmp350:
Lfunc_end55:
	.cfi_endproc

	.p2align	4, 0x90
__ZN4core3ops8function6FnOnce9call_once17h8cdbf2dea07e8a32E:
Lfunc_begin56:
	.loc	15 233 0
	.cfi_startproc
	pushq	%rbp
	.cfi_def_cfa_offset 16
	.cfi_offset %rbp, -16
	movq	%rsp, %rbp
	.cfi_def_cfa_register %rbp
	subq	$32, %rsp
Ltmp351:
	.loc	15 233 5 prologue_end
	callq	__ZN11proc_macro24Span9call_site17hba928273f00f4ddbE
	movl	%eax, -4(%rbp)
	movl	-4(%rbp), %eax
	movl	%eax, -16(%rbp)
	movl	-16(%rbp), %eax
	addq	$32, %rsp
	popq	%rbp
	retq
Ltmp352:
Lfunc_end56:
	.cfi_endproc

	.p2align	4, 0x90
__ZN4core3ops8function6FnOnce9call_once17ha215c6a117aa19a5E:
Lfunc_begin57:
	.loc	15 233 0
	.cfi_startproc
	pushq	%rbp
	.cfi_def_cfa_offset 16
	.cfi_offset %rbp, -16
	movq	%rsp, %rbp
	.cfi_def_cfa_register %rbp
	subq	$32, %rsp
	movq	%rdi, %rax
	movq	%rsi, -16(%rbp)
Ltmp353:
	.loc	15 233 5 prologue_end
	movq	-16(%rbp), %rsi
	movq	%rax, -24(%rbp)
	callq	__ZN88_$LT$alloc..vec..IntoIter$LT$T$GT$$u20$as$u20$core..iter..traits..iterator..Iterator$GT$9size_hint17h2ff1e1ac612a9013E
	.loc	15 0 5 is_stmt 0
	movq	-24(%rbp), %rax
	.loc	15 233 5
	addq	$32, %rsp
	popq	%rbp
	retq
Ltmp354:
Lfunc_end57:
	.cfi_endproc

	.globl	__ZN4core3ptr13drop_in_place17h06a5b1a3af6a730aE
	.p2align	4, 0x90
__ZN4core3ptr13drop_in_place17h06a5b1a3af6a730aE:
Lfunc_begin58:
	.file	16 "/rustc/6c8927b0cf80ceee19386026cf9d7fd4fd9d486f/src/libcore/ptr/mod.rs"
	.loc	16 184 0 is_stmt 1
	.cfi_startproc
	pushq	%rbp
	.cfi_def_cfa_offset 16
	.cfi_offset %rbp, -16
	movq	%rsp, %rbp
	.cfi_def_cfa_register %rbp
	subq	$32, %rsp
	xorl	%eax, %eax
	movl	%eax, %ecx
	movq	%rdi, -8(%rbp)
Ltmp355:
	.loc	16 184 1 prologue_end
	movq	(%rdi), %rdx
	subq	$2, %rdx
	cmpq	$0, %rdx
	movl	$1, %edx
	cmovbeq	%rcx, %rdx
	cmpq	$0, %rdx
	movq	%rdi, -24(%rbp)
	jne	LBB58_2
LBB58_1:
	addq	$32, %rsp
	popq	%rbp
	retq
LBB58_2:
	.loc	16 0 1 is_stmt 0
	movq	-24(%rbp), %rax
	.loc	16 184 1
	movq	%rax, %rdi
	callq	__ZN4core3ptr13drop_in_place17ha5f80ac0ff1c5a65E
	jmp	LBB58_1
Ltmp356:
Lfunc_end58:
	.cfi_endproc

	.globl	__ZN4core3ptr13drop_in_place17h17269962f72ca2a1E
	.p2align	4, 0x90
__ZN4core3ptr13drop_in_place17h17269962f72ca2a1E:
Lfunc_begin59:
	.loc	16 184 0 is_stmt 1
	.cfi_startproc
	pushq	%rbp
	.cfi_def_cfa_offset 16
	.cfi_offset %rbp, -16
	movq	%rsp, %rbp
	.cfi_def_cfa_register %rbp
	subq	$16, %rsp
	movq	%rdi, -8(%rbp)
Ltmp357:
	.loc	16 184 1 prologue_end
	callq	__ZN4core3ptr13drop_in_place17h0ea118e1ac561badE
	addq	$16, %rsp
	popq	%rbp
	retq
Ltmp358:
Lfunc_end59:
	.cfi_endproc

	.globl	__ZN4core3ptr13drop_in_place17h1cdf08ea3e6718fbE
	.p2align	4, 0x90
__ZN4core3ptr13drop_in_place17h1cdf08ea3e6718fbE:
Lfunc_begin60:
	.loc	16 184 0
	.cfi_startproc
	pushq	%rbp
	.cfi_def_cfa_offset 16
	.cfi_offset %rbp, -16
	movq	%rsp, %rbp
	.cfi_def_cfa_register %rbp
	subq	$16, %rsp
	movq	%rdi, -8(%rbp)
Ltmp359:
	.loc	16 184 1 prologue_end
	callq	__ZN4core3ptr13drop_in_place17h8eb4e8b594fc861eE
	addq	$16, %rsp
	popq	%rbp
	retq
Ltmp360:
Lfunc_end60:
	.cfi_endproc

	.globl	__ZN4core3ptr13drop_in_place17h2540f3214bd5c2a9E
	.p2align	4, 0x90
__ZN4core3ptr13drop_in_place17h2540f3214bd5c2a9E:
Lfunc_begin61:
	.loc	16 184 0
	.cfi_startproc
	pushq	%rbp
	.cfi_def_cfa_offset 16
	.cfi_offset %rbp, -16
	movq	%rsp, %rbp
	.cfi_def_cfa_register %rbp
	subq	$16, %rsp
	movq	%rdi, -8(%rbp)
Ltmp361:
	.loc	16 184 1 prologue_end
	callq	__ZN4core3ptr13drop_in_place17ha1e3024a85020c52E
	addq	$16, %rsp
	popq	%rbp
	retq
Ltmp362:
Lfunc_end61:
	.cfi_endproc

	.globl	__ZN4core3ptr13drop_in_place17h34c4fa5a8804d1d3E
	.p2align	4, 0x90
__ZN4core3ptr13drop_in_place17h34c4fa5a8804d1d3E:
Lfunc_begin62:
	.loc	16 184 0
	.cfi_startproc
	pushq	%rbp
	.cfi_def_cfa_offset 16
	.cfi_offset %rbp, -16
	movq	%rsp, %rbp
	.cfi_def_cfa_register %rbp
	subq	$16, %rsp
	movq	%rdi, -8(%rbp)
Ltmp363:
	.loc	16 184 1 prologue_end
	addq	$8, %rdi
	callq	__ZN4core3ptr13drop_in_place17h2d5486ea1cd92a2cE
	addq	$16, %rsp
	popq	%rbp
	retq
Ltmp364:
Lfunc_end62:
	.cfi_endproc

	.globl	__ZN4core3ptr13drop_in_place17h400dc81ada8d91d2E
	.p2align	4, 0x90
__ZN4core3ptr13drop_in_place17h400dc81ada8d91d2E:
Lfunc_begin63:
	.loc	16 184 0
	.cfi_startproc
	pushq	%rbp
	.cfi_def_cfa_offset 16
	.cfi_offset %rbp, -16
	movq	%rsp, %rbp
	.cfi_def_cfa_register %rbp
	subq	$16, %rsp
	movq	%rdi, -8(%rbp)
Ltmp365:
	.loc	16 184 1 prologue_end
	callq	__ZN4core3ptr13drop_in_place17hf0b7de61c309dcbeE
	addq	$16, %rsp
	popq	%rbp
	retq
Ltmp366:
Lfunc_end63:
	.cfi_endproc

	.globl	__ZN4core3ptr13drop_in_place17h4808e45223a68d66E
	.p2align	4, 0x90
__ZN4core3ptr13drop_in_place17h4808e45223a68d66E:
Lfunc_begin64:
	.loc	16 184 0
	.cfi_startproc
	pushq	%rbp
	.cfi_def_cfa_offset 16
	.cfi_offset %rbp, -16
	movq	%rsp, %rbp
	.cfi_def_cfa_register %rbp
	subq	$32, %rsp
	xorl	%eax, %eax
	movl	%eax, %ecx
	movq	%rdi, -8(%rbp)
Ltmp367:
	.loc	16 184 1 prologue_end
	cmpq	$0, (%rdi)
	movl	$1, %edx
	cmovbeq	%rcx, %rdx
	cmpq	$0, %rdx
	movq	%rdi, -24(%rbp)
	jne	LBB64_2
LBB64_1:
	addq	$32, %rsp
	popq	%rbp
	retq
LBB64_2:
	.loc	16 0 1 is_stmt 0
	movq	-24(%rbp), %rax
	.loc	16 184 1
	movq	%rax, %rdi
	callq	__ZN4core3ptr13drop_in_place17h708987e038b747dbE
	jmp	LBB64_1
Ltmp368:
Lfunc_end64:
	.cfi_endproc

	.globl	__ZN4core3ptr13drop_in_place17h50810f702c203687E
	.p2align	4, 0x90
__ZN4core3ptr13drop_in_place17h50810f702c203687E:
Lfunc_begin65:
	.loc	16 184 0 is_stmt 1
	.cfi_startproc
	pushq	%rbp
	.cfi_def_cfa_offset 16
	.cfi_offset %rbp, -16
	movq	%rsp, %rbp
	.cfi_def_cfa_register %rbp
	subq	$32, %rsp
	xorl	%eax, %eax
	movl	%eax, %ecx
	movq	%rdi, -8(%rbp)
Ltmp369:
	.loc	16 184 1 prologue_end
	movq	(%rdi), %rdx
	subq	$3, %rdx
	cmpq	$0, %rdx
	movl	$1, %edx
	cmovbeq	%rcx, %rdx
	cmpq	$0, %rdx
	movq	%rdi, -24(%rbp)
	jne	LBB65_2
LBB65_1:
	addq	$32, %rsp
	popq	%rbp
	retq
LBB65_2:
	.loc	16 0 1 is_stmt 0
	movq	-24(%rbp), %rax
	.loc	16 184 1
	movq	%rax, %rdi
	callq	__ZN4core3ptr13drop_in_place17h5a88319fa26caebeE
	jmp	LBB65_1
Ltmp370:
Lfunc_end65:
	.cfi_endproc

	.globl	__ZN4core3ptr13drop_in_place17h5a88319fa26caebeE
	.p2align	4, 0x90
__ZN4core3ptr13drop_in_place17h5a88319fa26caebeE:
Lfunc_begin66:
	.loc	16 184 0 is_stmt 1
	.cfi_startproc
	pushq	%rbp
	.cfi_def_cfa_offset 16
	.cfi_offset %rbp, -16
	movq	%rsp, %rbp
	.cfi_def_cfa_register %rbp
	subq	$16, %rsp
	movq	%rdi, -8(%rbp)
Ltmp371:
	.loc	16 184 1 prologue_end
	callq	__ZN4core3ptr13drop_in_place17ha8e2bc2314ac5a55E
	addq	$16, %rsp
	popq	%rbp
	retq
Ltmp372:
Lfunc_end66:
	.cfi_endproc

	.globl	__ZN4core3ptr13drop_in_place17h5aca85d4be65dfd3E
	.p2align	4, 0x90
__ZN4core3ptr13drop_in_place17h5aca85d4be65dfd3E:
Lfunc_begin67:
	.loc	16 184 0
	.cfi_startproc
	pushq	%rbp
	.cfi_def_cfa_offset 16
	.cfi_offset %rbp, -16
	movq	%rsp, %rbp
	.cfi_def_cfa_register %rbp
	subq	$16, %rsp
	movq	%rdi, -8(%rbp)
Ltmp373:
	.loc	16 184 1 prologue_end
	callq	__ZN4core3ptr13drop_in_place17h06a5b1a3af6a730aE
	addq	$16, %rsp
	popq	%rbp
	retq
Ltmp374:
Lfunc_end67:
	.cfi_endproc

	.globl	__ZN4core3ptr13drop_in_place17h6cd21a1aa2692f7cE
	.p2align	4, 0x90
__ZN4core3ptr13drop_in_place17h6cd21a1aa2692f7cE:
Lfunc_begin68:
	.loc	16 184 0
	.cfi_startproc
	pushq	%rbp
	.cfi_def_cfa_offset 16
	.cfi_offset %rbp, -16
	movq	%rsp, %rbp
	.cfi_def_cfa_register %rbp
	subq	$16, %rsp
	movq	%rdi, -8(%rbp)
Ltmp375:
	.loc	16 184 1 prologue_end
	callq	__ZN4core3ptr13drop_in_place17h71cf302d482b025cE
	addq	$16, %rsp
	popq	%rbp
	retq
Ltmp376:
Lfunc_end68:
	.cfi_endproc

	.globl	__ZN4core3ptr13drop_in_place17h71cf302d482b025cE
	.p2align	4, 0x90
__ZN4core3ptr13drop_in_place17h71cf302d482b025cE:
Lfunc_begin69:
	.loc	16 184 0
	.cfi_startproc
	pushq	%rbp
	.cfi_def_cfa_offset 16
	.cfi_offset %rbp, -16
	movq	%rsp, %rbp
	.cfi_def_cfa_register %rbp
	subq	$16, %rsp
	movq	%rdi, -8(%rbp)
Ltmp377:
	.loc	16 184 1 prologue_end
	callq	__ZN4core3ptr13drop_in_place17h0ea118e1ac561badE
	addq	$16, %rsp
	popq	%rbp
	retq
Ltmp378:
Lfunc_end69:
	.cfi_endproc

	.globl	__ZN4core3ptr13drop_in_place17h73388c1a270928cbE
	.p2align	4, 0x90
__ZN4core3ptr13drop_in_place17h73388c1a270928cbE:
Lfunc_begin70:
	.loc	16 184 0
	.cfi_startproc
	pushq	%rbp
	.cfi_def_cfa_offset 16
	.cfi_offset %rbp, -16
	movq	%rsp, %rbp
	.cfi_def_cfa_register %rbp
	subq	$16, %rsp
	movq	%rdi, -8(%rbp)
Ltmp379:
	.loc	16 184 1 prologue_end
	callq	__ZN4core3ptr13drop_in_place17ha9d44070f9cc864bE
	addq	$16, %rsp
	popq	%rbp
	retq
Ltmp380:
Lfunc_end70:
	.cfi_endproc

	.globl	__ZN4core3ptr13drop_in_place17h7cc545e48cd422fdE
	.p2align	4, 0x90
__ZN4core3ptr13drop_in_place17h7cc545e48cd422fdE:
Lfunc_begin71:
	.loc	16 184 0
	.cfi_startproc
	.cfi_personality 155, _rust_eh_personality
	.cfi_lsda 16, Lexception8
	pushq	%rbp
	.cfi_def_cfa_offset 16
	.cfi_offset %rbp, -16
	movq	%rsp, %rbp
	.cfi_def_cfa_register %rbp
	subq	$48, %rsp
	movq	%rdi, -24(%rbp)
Ltmp381:
	movq	%rdi, -40(%rbp)
Ltmp387:
	.loc	16 184 1 prologue_end
	callq	__ZN4core3ptr13drop_in_place17h2540f3214bd5c2a9E
Ltmp382:
	jmp	LBB71_6
LBB71_1:
	movq	-16(%rbp), %rdi
	callq	__Unwind_Resume
	ud2
LBB71_2:
	addq	$48, %rsp
	popq	%rbp
	retq
LBB71_3:
	.loc	16 0 1 is_stmt 0
	movq	-40(%rbp), %rax
	.loc	16 184 1
	addq	$72, %rax
	movq	%rax, %rdi
	callq	__ZN4core3ptr13drop_in_place17h4808e45223a68d66E
	jmp	LBB71_1
LBB71_4:
	.loc	16 0 1
	movq	-40(%rbp), %rax
	.loc	16 184 1
	addq	$40, %rax
	movq	%rax, %rdi
	callq	__ZN4core3ptr13drop_in_place17h4808e45223a68d66E
	jmp	LBB71_3
LBB71_5:
	.loc	16 0 1
	movq	-40(%rbp), %rax
	.loc	16 184 1
	addq	$72, %rax
	movq	%rax, %rdi
	callq	__ZN4core3ptr13drop_in_place17h4808e45223a68d66E
	jmp	LBB71_2
LBB71_6:
	.loc	16 0 1
	movq	-40(%rbp), %rax
	.loc	16 184 1
	addq	$40, %rax
Ltmp384:
	movq	%rax, %rdi
	callq	__ZN4core3ptr13drop_in_place17h4808e45223a68d66E
Ltmp385:
	jmp	LBB71_5
Ltmp388:
LBB71_7:
Ltmp383:
	.loc	16 0 1
	movq	%rax, -16(%rbp)
	movl	%edx, -8(%rbp)
	jmp	LBB71_4
LBB71_8:
Ltmp386:
	movq	%rax, -16(%rbp)
	movl	%edx, -8(%rbp)
	jmp	LBB71_3
Lfunc_end71:
	.cfi_endproc
	.section	__TEXT,__gcc_except_tab
	.p2align	2
GCC_except_table71:
Lexception8:
	.byte	255
	.byte	255
	.byte	1
	.uleb128 Lcst_end8-Lcst_begin8
Lcst_begin8:
	.uleb128 Ltmp381-Lfunc_begin71
	.uleb128 Ltmp382-Ltmp381
	.uleb128 Ltmp383-Lfunc_begin71
	.byte	0
	.uleb128 Ltmp382-Lfunc_begin71
	.uleb128 Ltmp384-Ltmp382
	.byte	0
	.byte	0
	.uleb128 Ltmp384-Lfunc_begin71
	.uleb128 Ltmp385-Ltmp384
	.uleb128 Ltmp386-Lfunc_begin71
	.byte	0
Lcst_end8:
	.p2align	2

	.section	__TEXT,__text,regular,pure_instructions
	.globl	__ZN4core3ptr13drop_in_place17h8eb4e8b594fc861eE
	.p2align	4, 0x90
__ZN4core3ptr13drop_in_place17h8eb4e8b594fc861eE:
Lfunc_begin72:
	.loc	16 184 0 is_stmt 1
	.cfi_startproc
	pushq	%rbp
	.cfi_def_cfa_offset 16
	.cfi_offset %rbp, -16
	movq	%rsp, %rbp
	.cfi_def_cfa_register %rbp
	subq	$16, %rsp
	movq	%rdi, -8(%rbp)
Ltmp389:
	.loc	16 184 1 prologue_end
	callq	__ZN4core3ptr13drop_in_place17h94dcce221d0dc1cfE
	addq	$16, %rsp
	popq	%rbp
	retq
Ltmp390:
Lfunc_end72:
	.cfi_endproc

	.globl	__ZN4core3ptr13drop_in_place17ha1e3024a85020c52E
	.p2align	4, 0x90
__ZN4core3ptr13drop_in_place17ha1e3024a85020c52E:
Lfunc_begin73:
	.loc	16 184 0
	.cfi_startproc
	pushq	%rbp
	.cfi_def_cfa_offset 16
	.cfi_offset %rbp, -16
	movq	%rsp, %rbp
	.cfi_def_cfa_register %rbp
	subq	$32, %rsp
	xorl	%eax, %eax
	movl	%eax, %ecx
	movq	%rdi, -8(%rbp)
Ltmp391:
	.loc	16 184 1 prologue_end
	movq	(%rdi), %rdx
	subq	$3, %rdx
	cmpq	$0, %rdx
	movl	$1, %edx
	cmovbeq	%rcx, %rdx
	cmpq	$0, %rdx
	movq	%rdi, -24(%rbp)
	jne	LBB73_2
LBB73_1:
	addq	$32, %rsp
	popq	%rbp
	retq
LBB73_2:
	.loc	16 0 1 is_stmt 0
	movq	-24(%rbp), %rax
	.loc	16 184 1
	movq	%rax, %rdi
	callq	__ZN4core3ptr13drop_in_place17hb7a1fd7b61d03ad5E
	jmp	LBB73_1
Ltmp392:
Lfunc_end73:
	.cfi_endproc

	.globl	__ZN4core3ptr13drop_in_place17ha8e2bc2314ac5a55E
	.p2align	4, 0x90
__ZN4core3ptr13drop_in_place17ha8e2bc2314ac5a55E:
Lfunc_begin74:
	.loc	16 184 0 is_stmt 1
	.cfi_startproc
	pushq	%rbp
	.cfi_def_cfa_offset 16
	.cfi_offset %rbp, -16
	movq	%rsp, %rbp
	.cfi_def_cfa_register %rbp
	subq	$16, %rsp
	movq	%rdi, -8(%rbp)
Ltmp393:
	.loc	16 184 1 prologue_end
	callq	__ZN4core3ptr13drop_in_place17h73388c1a270928cbE
	addq	$16, %rsp
	popq	%rbp
	retq
Ltmp394:
Lfunc_end74:
	.cfi_endproc

	.globl	__ZN4core3ptr13drop_in_place17ha9d44070f9cc864bE
	.p2align	4, 0x90
__ZN4core3ptr13drop_in_place17ha9d44070f9cc864bE:
Lfunc_begin75:
	.loc	16 184 0
	.cfi_startproc
	pushq	%rbp
	.cfi_def_cfa_offset 16
	.cfi_offset %rbp, -16
	movq	%rsp, %rbp
	.cfi_def_cfa_register %rbp
	subq	$16, %rsp
	movq	%rdi, -8(%rbp)
Ltmp395:
	.loc	16 184 1 prologue_end
	callq	__ZN4core3ptr13drop_in_place17h5aca85d4be65dfd3E
	addq	$16, %rsp
	popq	%rbp
	retq
Ltmp396:
Lfunc_end75:
	.cfi_endproc

	.globl	__ZN4core3ptr13drop_in_place17had68a94e709b5adbE
	.p2align	4, 0x90
__ZN4core3ptr13drop_in_place17had68a94e709b5adbE:
Lfunc_begin76:
	.loc	16 184 0
	.cfi_startproc
	pushq	%rbp
	.cfi_def_cfa_offset 16
	.cfi_offset %rbp, -16
	movq	%rsp, %rbp
	.cfi_def_cfa_register %rbp
	subq	$16, %rsp
	movq	%rdi, -8(%rbp)
Ltmp397:
	.loc	16 184 1 prologue_end
	callq	__ZN4core3ptr13drop_in_place17heddd33818f1da180E
	addq	$16, %rsp
	popq	%rbp
	retq
Ltmp398:
Lfunc_end76:
	.cfi_endproc

	.globl	__ZN4core3ptr13drop_in_place17hb7a1fd7b61d03ad5E
	.p2align	4, 0x90
__ZN4core3ptr13drop_in_place17hb7a1fd7b61d03ad5E:
Lfunc_begin77:
	.loc	16 184 0
	.cfi_startproc
	pushq	%rbp
	.cfi_def_cfa_offset 16
	.cfi_offset %rbp, -16
	movq	%rsp, %rbp
	.cfi_def_cfa_register %rbp
	subq	$16, %rsp
	movq	%rdi, -8(%rbp)
Ltmp399:
	.loc	16 184 1 prologue_end
	callq	__ZN4core3ptr13drop_in_place17ha8e2bc2314ac5a55E
	addq	$16, %rsp
	popq	%rbp
	retq
Ltmp400:
Lfunc_end77:
	.cfi_endproc

	.p2align	4, 0x90
__ZN4core3ptr13drop_in_place17hc093ccc48f868339E:
Lfunc_begin78:
	.loc	16 184 0
	.cfi_startproc
	pushq	%rbp
	.cfi_def_cfa_offset 16
	.cfi_offset %rbp, -16
	movq	%rsp, %rbp
	.cfi_def_cfa_register %rbp
	subq	$16, %rsp
	movq	%rdi, -8(%rbp)
Ltmp401:
	.loc	16 184 1 prologue_end
	addq	$16, %rsp
	popq	%rbp
	retq
Ltmp402:
Lfunc_end78:
	.cfi_endproc

	.globl	__ZN4core3ptr13drop_in_place17hcbecca3be1b2432bE
	.p2align	4, 0x90
__ZN4core3ptr13drop_in_place17hcbecca3be1b2432bE:
Lfunc_begin79:
	.loc	16 184 0
	.cfi_startproc
	pushq	%rbp
	.cfi_def_cfa_offset 16
	.cfi_offset %rbp, -16
	movq	%rsp, %rbp
	.cfi_def_cfa_register %rbp
	subq	$16, %rsp
	movq	%rdi, -8(%rbp)
Ltmp403:
	.loc	16 184 1 prologue_end
	callq	__ZN4core3ptr13drop_in_place17h0ea118e1ac561badE
	addq	$16, %rsp
	popq	%rbp
	retq
Ltmp404:
Lfunc_end79:
	.cfi_endproc

	.globl	__ZN4core3ptr13drop_in_place17hd74eca888a48510aE
	.p2align	4, 0x90
__ZN4core3ptr13drop_in_place17hd74eca888a48510aE:
Lfunc_begin80:
	.loc	16 184 0
	.cfi_startproc
	pushq	%rbp
	.cfi_def_cfa_offset 16
	.cfi_offset %rbp, -16
	movq	%rsp, %rbp
	.cfi_def_cfa_register %rbp
	subq	$16, %rsp
	movq	%rdi, -8(%rbp)
Ltmp405:
	.loc	16 184 1 prologue_end
	callq	__ZN4core3ptr13drop_in_place17h7cc545e48cd422fdE
	addq	$16, %rsp
	popq	%rbp
	retq
Ltmp406:
Lfunc_end80:
	.cfi_endproc

	.globl	__ZN4core3ptr13drop_in_place17heddd33818f1da180E
	.p2align	4, 0x90
__ZN4core3ptr13drop_in_place17heddd33818f1da180E:
Lfunc_begin81:
	.loc	16 184 0
	.cfi_startproc
	pushq	%rbp
	.cfi_def_cfa_offset 16
	.cfi_offset %rbp, -16
	movq	%rsp, %rbp
	.cfi_def_cfa_register %rbp
	subq	$16, %rsp
	movq	%rdi, -8(%rbp)
Ltmp407:
	.loc	16 184 1 prologue_end
	callq	__ZN4core3ptr13drop_in_place17h1cdf08ea3e6718fbE
	addq	$16, %rsp
	popq	%rbp
	retq
Ltmp408:
Lfunc_end81:
	.cfi_endproc

	.globl	__ZN4core3ptr13drop_in_place17hef5523228b75be7fE
	.p2align	4, 0x90
__ZN4core3ptr13drop_in_place17hef5523228b75be7fE:
Lfunc_begin82:
	.loc	16 184 0
	.cfi_startproc
	.cfi_personality 155, _rust_eh_personality
	.cfi_lsda 16, Lexception9
	pushq	%rbp
	.cfi_def_cfa_offset 16
	.cfi_offset %rbp, -16
	movq	%rsp, %rbp
	.cfi_def_cfa_register %rbp
	subq	$48, %rsp
	movq	%rdi, -24(%rbp)
Ltmp412:
	.loc	16 184 1 prologue_end
	movq	%rdi, %rax
	addq	$40, %rax
Ltmp409:
	movq	%rdi, -40(%rbp)
	movq	%rax, %rdi
	callq	__ZN4core3ptr13drop_in_place17hcb01a0ad8f66a022E
Ltmp410:
	jmp	LBB82_4
LBB82_1:
	movq	-16(%rbp), %rdi
	callq	__Unwind_Resume
	ud2
LBB82_2:
	addq	$48, %rsp
	popq	%rbp
	retq
LBB82_3:
	.loc	16 0 1 is_stmt 0
	movq	-40(%rbp), %rax
	.loc	16 184 1
	movq	%rax, %rdi
	callq	__ZN4core3ptr13drop_in_place17h50810f702c203687E
	jmp	LBB82_1
LBB82_4:
	.loc	16 0 1
	movq	-40(%rbp), %rax
	.loc	16 184 1
	movq	%rax, %rdi
	callq	__ZN4core3ptr13drop_in_place17h50810f702c203687E
	jmp	LBB82_2
Ltmp413:
LBB82_5:
Ltmp411:
	.loc	16 0 1
	movq	%rax, -16(%rbp)
	movl	%edx, -8(%rbp)
	jmp	LBB82_3
Lfunc_end82:
	.cfi_endproc
	.section	__TEXT,__gcc_except_tab
	.p2align	2
GCC_except_table82:
Lexception9:
	.byte	255
	.byte	255
	.byte	1
	.uleb128 Lcst_end9-Lcst_begin9
Lcst_begin9:
	.uleb128 Ltmp409-Lfunc_begin82
	.uleb128 Ltmp410-Ltmp409
	.uleb128 Ltmp411-Lfunc_begin82
	.byte	0
	.uleb128 Ltmp410-Lfunc_begin82
	.uleb128 Lfunc_end82-Ltmp410
	.byte	0
	.byte	0
Lcst_end9:
	.p2align	2

	.section	__TEXT,__text,regular,pure_instructions
	.globl	__ZN4core3ptr13drop_in_place17hf0b7de61c309dcbeE
	.p2align	4, 0x90
__ZN4core3ptr13drop_in_place17hf0b7de61c309dcbeE:
Lfunc_begin83:
	.loc	16 184 0 is_stmt 1
	.cfi_startproc
	pushq	%rbp
	.cfi_def_cfa_offset 16
	.cfi_offset %rbp, -16
	movq	%rsp, %rbp
	.cfi_def_cfa_register %rbp
	subq	$16, %rsp
	movq	%rdi, -8(%rbp)
Ltmp414:
	.loc	16 184 1 prologue_end
	callq	__ZN4core3ptr13drop_in_place17h34c4fa5a8804d1d3E
	addq	$16, %rsp
	popq	%rbp
	retq
Ltmp415:
Lfunc_end83:
	.cfi_endproc

	.globl	__ZN4core3ptr19swap_nonoverlapping17h48624302207ac420E
	.p2align	4, 0x90
__ZN4core3ptr19swap_nonoverlapping17h48624302207ac420E:
Lfunc_begin84:
	.loc	16 430 0
	.cfi_startproc
	pushq	%rbp
	.cfi_def_cfa_offset 16
	.cfi_offset %rbp, -16
	movq	%rsp, %rbp
	.cfi_def_cfa_register %rbp
	subq	$96, %rsp
	movq	%rdi, -56(%rbp)
	movq	%rsi, -48(%rbp)
	movq	%rdx, -40(%rbp)
Ltmp416:
	.loc	16 440 13 prologue_end
	movq	%rdi, -32(%rbp)
Ltmp417:
	.loc	16 441 13
	movq	%rsi, -24(%rbp)
Ltmp418:
	.loc	13 310 5
	movq	$48, -8(%rbp)
	movq	-8(%rbp), %rax
	movq	%rdx, -64(%rbp)
	movq	%rdi, -72(%rbp)
	movq	%rsi, -80(%rbp)
	movq	%rax, -88(%rbp)
Ltmp419:
	.loc	13 0 5 is_stmt 0
	movq	-88(%rbp), %rax
	movq	-64(%rbp), %rcx
	.loc	16 442 15 is_stmt 1
	imulq	%rcx, %rax
	movq	%rax, -16(%rbp)
	movq	-72(%rbp), %rdi
	movq	-80(%rbp), %rsi
Ltmp420:
	.loc	16 445 14
	movq	%rax, %rdx
	callq	__ZN4core3ptr25swap_nonoverlapping_bytes17h9e438550cf51e064E
Ltmp421:
	.loc	16 446 2
	addq	$96, %rsp
	popq	%rbp
	retq
Ltmp422:
Lfunc_end84:
	.cfi_endproc

	.globl	__ZN4core3ptr19swap_nonoverlapping17h99b09c7e4d8e18fcE
	.p2align	4, 0x90
__ZN4core3ptr19swap_nonoverlapping17h99b09c7e4d8e18fcE:
Lfunc_begin85:
	.loc	16 430 0
	.cfi_startproc
	pushq	%rbp
	.cfi_def_cfa_offset 16
	.cfi_offset %rbp, -16
	movq	%rsp, %rbp
	.cfi_def_cfa_register %rbp
	subq	$96, %rsp
	movq	%rdi, -56(%rbp)
	movq	%rsi, -48(%rbp)
	movq	%rdx, -40(%rbp)
Ltmp423:
	.loc	16 440 13 prologue_end
	movq	%rdi, -32(%rbp)
Ltmp424:
	.loc	16 441 13
	movq	%rsi, -24(%rbp)
Ltmp425:
	.loc	13 310 5
	movq	$40, -8(%rbp)
	movq	-8(%rbp), %rax
	movq	%rdx, -64(%rbp)
	movq	%rdi, -72(%rbp)
	movq	%rsi, -80(%rbp)
	movq	%rax, -88(%rbp)
Ltmp426:
	.loc	13 0 5 is_stmt 0
	movq	-88(%rbp), %rax
	movq	-64(%rbp), %rcx
	.loc	16 442 15 is_stmt 1
	imulq	%rcx, %rax
	movq	%rax, -16(%rbp)
	movq	-72(%rbp), %rdi
	movq	-80(%rbp), %rsi
Ltmp427:
	.loc	16 445 14
	movq	%rax, %rdx
	callq	__ZN4core3ptr25swap_nonoverlapping_bytes17h9e438550cf51e064E
Ltmp428:
	.loc	16 446 2
	addq	$96, %rsp
	popq	%rbp
	retq
Ltmp429:
Lfunc_end85:
	.cfi_endproc

	.globl	__ZN4core3ptr23swap_nonoverlapping_one17h8f4d0dc7c5d54be1E
	.p2align	4, 0x90
__ZN4core3ptr23swap_nonoverlapping_one17h8f4d0dc7c5d54be1E:
Lfunc_begin86:
	.loc	16 449 0
	.cfi_startproc
	.cfi_personality 155, _rust_eh_personality
	.cfi_lsda 16, Lexception10
	pushq	%rbp
	.cfi_def_cfa_offset 16
	.cfi_offset %rbp, -16
	movq	%rsp, %rbp
	.cfi_def_cfa_register %rbp
	subq	$176, %rsp
	movq	%rdi, -40(%rbp)
	movq	%rsi, -32(%rbp)
Ltmp435:
	.loc	16 452 8 prologue_end
	movb	$0, -41(%rbp)
Ltmp436:
	.loc	13 310 5
	movq	$48, -8(%rbp)
	movq	-8(%rbp), %rax
	movq	%rdi, -160(%rbp)
	movq	%rsi, -168(%rbp)
	movq	%rax, -176(%rbp)
Ltmp437:
	.loc	16 452 8
	jmp	LBB86_2
LBB86_1:
	.loc	16 449 1
	movq	-24(%rbp), %rdi
	callq	__Unwind_Resume
	ud2
LBB86_2:
	.loc	16 0 1 is_stmt 0
	movq	-176(%rbp), %rax
	.loc	16 452 8 is_stmt 1
	cmpq	$32, %rax
	.loc	16 452 5 is_stmt 0
	jb	LBB86_4
	.loc	16 0 5
	movq	-160(%rbp), %rdi
	movq	-168(%rbp), %rsi
	.loc	16 462 18 is_stmt 1
	movl	$1, %edx
	callq	__ZN4core3ptr19swap_nonoverlapping17h48624302207ac420E
	jmp	LBB86_8
LBB86_4:
	.loc	16 456 21
	movb	$1, -41(%rbp)
	leaq	-144(%rbp), %rdi
	movq	-160(%rbp), %rsi
	callq	__ZN4core3ptr4read17h16f20cde78f1edc6E
Ltmp430:
	.loc	16 0 21 is_stmt 0
	movl	$1, %edx
	movq	-168(%rbp), %rdi
	movq	-160(%rbp), %rsi
Ltmp438:
	.loc	16 457 13 is_stmt 1
	callq	__ZN4core10intrinsics19copy_nonoverlapping17h6a40d2a47de9a48dE
Ltmp431:
	jmp	LBB86_6
LBB86_6:
	.loc	16 458 22
	movb	$0, -41(%rbp)
	movq	-104(%rbp), %rax
	movq	%rax, -56(%rbp)
	movq	-112(%rbp), %rax
	movq	%rax, -64(%rbp)
	movq	-120(%rbp), %rax
	movq	%rax, -72(%rbp)
	movq	-128(%rbp), %rax
	movq	%rax, -80(%rbp)
	movq	-144(%rbp), %rax
	movq	-136(%rbp), %rcx
	movq	%rcx, -88(%rbp)
	movq	%rax, -96(%rbp)
Ltmp432:
	leaq	-96(%rbp), %rsi
	movq	-168(%rbp), %rdi
	.loc	16 458 13 is_stmt 0
	callq	__ZN4core3ptr5write17h410e498e16df8a9eE
Ltmp433:
	jmp	LBB86_7
Ltmp439:
LBB86_7:
	.loc	16 459 9 is_stmt 1
	movb	$0, -41(%rbp)
	.loc	16 452 5
	jmp	LBB86_9
LBB86_8:
	jmp	LBB86_9
LBB86_9:
	.loc	16 464 2
	addq	$176, %rsp
	popq	%rbp
	retq
LBB86_10:
	.loc	16 459 9
	movb	$0, -41(%rbp)
	leaq	-144(%rbp), %rdi
	callq	__ZN4core3ptr13drop_in_place17h94dcce221d0dc1cfE
	jmp	LBB86_1
LBB86_11:
	testb	$1, -41(%rbp)
	jne	LBB86_10
	jmp	LBB86_1
Ltmp440:
LBB86_12:
Ltmp434:
	.loc	16 0 9 is_stmt 0
	movq	%rax, -24(%rbp)
	movl	%edx, -16(%rbp)
	jmp	LBB86_11
Lfunc_end86:
	.cfi_endproc
	.section	__TEXT,__gcc_except_tab
	.p2align	2
GCC_except_table86:
Lexception10:
	.byte	255
	.byte	255
	.byte	1
	.uleb128 Lcst_end10-Lcst_begin10
Lcst_begin10:
	.uleb128 Lfunc_begin86-Lfunc_begin86
	.uleb128 Ltmp430-Lfunc_begin86
	.byte	0
	.byte	0
	.uleb128 Ltmp430-Lfunc_begin86
	.uleb128 Ltmp433-Ltmp430
	.uleb128 Ltmp434-Lfunc_begin86
	.byte	0
	.uleb128 Ltmp433-Lfunc_begin86
	.uleb128 Lfunc_end86-Ltmp433
	.byte	0
	.byte	0
Lcst_end10:
	.p2align	2

	.section	__TEXT,__text,regular,pure_instructions
	.globl	__ZN4core3ptr23swap_nonoverlapping_one17hb519005d4af17ea0E
	.p2align	4, 0x90
__ZN4core3ptr23swap_nonoverlapping_one17hb519005d4af17ea0E:
Lfunc_begin87:
	.loc	16 449 0 is_stmt 1
	.cfi_startproc
	.cfi_personality 155, _rust_eh_personality
	.cfi_lsda 16, Lexception11
	pushq	%rbp
	.cfi_def_cfa_offset 16
	.cfi_offset %rbp, -16
	movq	%rsp, %rbp
	.cfi_def_cfa_register %rbp
	subq	$160, %rsp
	movq	%rdi, -40(%rbp)
	movq	%rsi, -32(%rbp)
Ltmp446:
	.loc	16 452 8 prologue_end
	movb	$0, -41(%rbp)
Ltmp447:
	.loc	13 310 5
	movq	$40, -8(%rbp)
	movq	-8(%rbp), %rax
	movq	%rdi, -144(%rbp)
	movq	%rsi, -152(%rbp)
	movq	%rax, -160(%rbp)
Ltmp448:
	.loc	16 452 8
	jmp	LBB87_2
LBB87_1:
	.loc	16 449 1
	movq	-24(%rbp), %rdi
	callq	__Unwind_Resume
	ud2
LBB87_2:
	.loc	16 0 1 is_stmt 0
	movq	-160(%rbp), %rax
	.loc	16 452 8 is_stmt 1
	cmpq	$32, %rax
	.loc	16 452 5 is_stmt 0
	jb	LBB87_4
	.loc	16 0 5
	movq	-144(%rbp), %rdi
	movq	-152(%rbp), %rsi
	.loc	16 462 18 is_stmt 1
	movl	$1, %edx
	callq	__ZN4core3ptr19swap_nonoverlapping17h99b09c7e4d8e18fcE
	jmp	LBB87_8
LBB87_4:
	.loc	16 456 21
	movb	$1, -41(%rbp)
	leaq	-128(%rbp), %rdi
	movq	-144(%rbp), %rsi
	callq	__ZN4core3ptr4read17hfd9a53263867a197E
Ltmp441:
	.loc	16 0 21 is_stmt 0
	movl	$1, %edx
	movq	-152(%rbp), %rdi
	movq	-144(%rbp), %rsi
Ltmp449:
	.loc	16 457 13 is_stmt 1
	callq	__ZN4core10intrinsics19copy_nonoverlapping17h8b59aefd40da2568E
Ltmp442:
	jmp	LBB87_6
LBB87_6:
	.loc	16 458 22
	movb	$0, -41(%rbp)
	movq	-96(%rbp), %rax
	movq	%rax, -56(%rbp)
	movq	-104(%rbp), %rax
	movq	%rax, -64(%rbp)
	movq	-112(%rbp), %rax
	movq	%rax, -72(%rbp)
	movq	-128(%rbp), %rax
	movq	-120(%rbp), %rcx
	movq	%rcx, -80(%rbp)
	movq	%rax, -88(%rbp)
Ltmp443:
	leaq	-88(%rbp), %rsi
	movq	-152(%rbp), %rdi
	.loc	16 458 13 is_stmt 0
	callq	__ZN4core3ptr5write17h71e5ceac60c76a48E
Ltmp444:
	jmp	LBB87_7
Ltmp450:
LBB87_7:
	.loc	16 459 9 is_stmt 1
	movb	$0, -41(%rbp)
	.loc	16 452 5
	jmp	LBB87_9
LBB87_8:
	jmp	LBB87_9
LBB87_9:
	.loc	16 464 2
	addq	$160, %rsp
	popq	%rbp
	retq
LBB87_10:
	.loc	16 459 9
	movb	$0, -41(%rbp)
	leaq	-128(%rbp), %rdi
	callq	__ZN4core3ptr13drop_in_place17h06a5b1a3af6a730aE
	jmp	LBB87_1
LBB87_11:
	testb	$1, -41(%rbp)
	jne	LBB87_10
	jmp	LBB87_1
Ltmp451:
LBB87_12:
Ltmp445:
	.loc	16 0 9 is_stmt 0
	movq	%rax, -24(%rbp)
	movl	%edx, -16(%rbp)
	jmp	LBB87_11
Lfunc_end87:
	.cfi_endproc
	.section	__TEXT,__gcc_except_tab
	.p2align	2
GCC_except_table87:
Lexception11:
	.byte	255
	.byte	255
	.byte	1
	.uleb128 Lcst_end11-Lcst_begin11
Lcst_begin11:
	.uleb128 Lfunc_begin87-Lfunc_begin87
	.uleb128 Ltmp441-Lfunc_begin87
	.byte	0
	.byte	0
	.uleb128 Ltmp441-Lfunc_begin87
	.uleb128 Ltmp444-Ltmp441
	.uleb128 Ltmp445-Lfunc_begin87
	.byte	0
	.uleb128 Ltmp444-Lfunc_begin87
	.uleb128 Lfunc_end87-Ltmp444
	.byte	0
	.byte	0
Lcst_end11:
	.p2align	2

	.section	__TEXT,__text,regular,pure_instructions
	.p2align	4, 0x90
__ZN4core3ptr25swap_nonoverlapping_bytes17h9e438550cf51e064E:
Lfunc_begin88:
	.loc	16 467 0 is_stmt 1
	.cfi_startproc
	pushq	%rbp
	.cfi_def_cfa_offset 16
	.cfi_offset %rbp, -16
	movq	%rsp, %rbp
	.cfi_def_cfa_register %rbp
	andq	$-32, %rsp
	subq	$352, %rsp
	movq	%rdi, 208(%rsp)
	movq	%rsi, 216(%rsp)
	movq	%rdx, 224(%rsp)
Ltmp452:
	.loc	13 310 5 prologue_end
	movq	$32, 296(%rsp)
	movq	296(%rsp), %rax
Ltmp453:
	.loc	16 478 22
	movq	%rax, 232(%rsp)
	movq	%rdi, 104(%rsp)
	movq	%rsi, 96(%rsp)
	movq	%rdx, 88(%rsp)
	movq	%rax, 80(%rsp)
Ltmp454:
	.loc	16 483 17
	movq	$0, 120(%rsp)
LBB88_2:
	.loc	16 0 17 is_stmt 0
	movq	80(%rsp), %rax
Ltmp455:
	.loc	16 484 11 is_stmt 1
	addq	120(%rsp), %rax
	movq	88(%rsp), %rcx
	cmpq	%rcx, %rax
	.loc	16 484 5 is_stmt 0
	jbe	LBB88_4
	.loc	16 0 5
	movq	88(%rsp), %rax
	.loc	16 509 8 is_stmt 1
	cmpq	%rax, 120(%rsp)
	.loc	16 509 5 is_stmt 0
	jb	LBB88_13
	jmp	LBB88_12
LBB88_4:
	.loc	16 0 5
	leaq	128(%rsp), %rax
	movq	%rax, 320(%rsp)
	movq	%rax, 328(%rsp)
Ltmp456:
	.loc	16 488 17 is_stmt 1
	leaq	128(%rsp), %rax
	movq	%rax, 240(%rsp)
Ltmp457:
	.loc	16 497 27
	movq	120(%rsp), %rsi
	movq	104(%rsp), %rdi
	movq	%rax, 72(%rsp)
	.loc	16 497 21 is_stmt 0
	callq	__ZN4core3ptr7mut_ptr31_$LT$impl$u20$$BP$mut$u20$T$GT$3add17hd2e8369661e2d844E
	movq	%rax, 248(%rsp)
	movq	%rax, 64(%rsp)
Ltmp458:
	.loc	16 498 27 is_stmt 1
	movq	120(%rsp), %rsi
	movq	96(%rsp), %rdi
	.loc	16 498 21 is_stmt 0
	callq	__ZN4core3ptr7mut_ptr31_$LT$impl$u20$$BP$mut$u20$T$GT$3add17hd2e8369661e2d844E
	movq	%rax, 256(%rsp)
	movq	%rax, 56(%rsp)
	.loc	16 0 21
	movq	64(%rsp), %rdi
	movq	72(%rsp), %rsi
	movq	80(%rsp), %rdx
Ltmp459:
	.loc	16 502 13 is_stmt 1
	callq	__ZN4core10intrinsics19copy_nonoverlapping17h92e64a2e07965055E
	.loc	16 0 13 is_stmt 0
	movq	56(%rsp), %rdi
	movq	64(%rsp), %rsi
	movq	80(%rsp), %rdx
	.loc	16 503 13 is_stmt 1
	callq	__ZN4core10intrinsics19copy_nonoverlapping17h92e64a2e07965055E
	.loc	16 0 13 is_stmt 0
	movq	72(%rsp), %rdi
	movq	56(%rsp), %rsi
	movq	80(%rsp), %rdx
	.loc	16 504 13 is_stmt 1
	callq	__ZN4core10intrinsics19copy_nonoverlapping17h92e64a2e07965055E
Ltmp460:
	.loc	16 0 13 is_stmt 0
	movq	80(%rsp), %rax
	.loc	16 506 9 is_stmt 1
	addq	120(%rsp), %rax
	movq	%rax, 120(%rsp)
Ltmp461:
	.loc	16 484 5
	jmp	LBB88_2
LBB88_12:
	.loc	16 509 5
	jmp	LBB88_21
LBB88_13:
	.loc	16 0 5 is_stmt 0
	movq	88(%rsp), %rax
Ltmp462:
	.loc	16 512 19 is_stmt 1
	subq	120(%rsp), %rax
	movq	%rax, 264(%rsp)
	leaq	176(%rsp), %rcx
	movq	%rcx, 304(%rsp)
	movq	%rcx, 312(%rsp)
	movq	%rax, 48(%rsp)
	movq	%rcx, 40(%rsp)
	.loc	16 0 19 is_stmt 0
	movq	40(%rsp), %rax
Ltmp463:
	.loc	16 514 17 is_stmt 1
	movq	%rax, 272(%rsp)
Ltmp464:
	.loc	16 518 27
	movq	120(%rsp), %rsi
	movq	104(%rsp), %rdi
	movq	%rax, 32(%rsp)
	.loc	16 518 21 is_stmt 0
	callq	__ZN4core3ptr7mut_ptr31_$LT$impl$u20$$BP$mut$u20$T$GT$3add17hd2e8369661e2d844E
	movq	%rax, 280(%rsp)
	movq	%rax, 24(%rsp)
Ltmp465:
	.loc	16 519 27 is_stmt 1
	movq	120(%rsp), %rsi
	movq	96(%rsp), %rdi
	.loc	16 519 21 is_stmt 0
	callq	__ZN4core3ptr7mut_ptr31_$LT$impl$u20$$BP$mut$u20$T$GT$3add17hd2e8369661e2d844E
	movq	%rax, 288(%rsp)
	movq	%rax, 16(%rsp)
	.loc	16 0 21
	movq	24(%rsp), %rdi
	movq	32(%rsp), %rsi
	movq	48(%rsp), %rdx
Ltmp466:
	.loc	16 521 13 is_stmt 1
	callq	__ZN4core10intrinsics19copy_nonoverlapping17h92e64a2e07965055E
	.loc	16 0 13 is_stmt 0
	movq	16(%rsp), %rdi
	movq	24(%rsp), %rsi
	movq	48(%rsp), %rdx
	.loc	16 522 13 is_stmt 1
	callq	__ZN4core10intrinsics19copy_nonoverlapping17h92e64a2e07965055E
	.loc	16 0 13 is_stmt 0
	movq	32(%rsp), %rdi
	movq	16(%rsp), %rsi
	movq	48(%rsp), %rdx
	.loc	16 523 13 is_stmt 1
	callq	__ZN4core10intrinsics19copy_nonoverlapping17h92e64a2e07965055E
Ltmp467:
	.loc	16 509 5
	jmp	LBB88_21
Ltmp468:
LBB88_21:
	.loc	16 526 2
	movq	%rbp, %rsp
	popq	%rbp
	retq
Ltmp469:
Lfunc_end88:
	.cfi_endproc

	.globl	__ZN4core3ptr4read17h16f20cde78f1edc6E
	.p2align	4, 0x90
__ZN4core3ptr4read17h16f20cde78f1edc6E:
Lfunc_begin89:
	.loc	16 692 0
	.cfi_startproc
	pushq	%rbp
	.cfi_def_cfa_offset 16
	.cfi_offset %rbp, -16
	movq	%rsp, %rbp
	.cfi_def_cfa_register %rbp
	subq	$224, %rsp
	movq	%rdi, %rax
	movq	%rsi, -72(%rbp)
	movq	%rsi, -176(%rbp)
	movq	%rdi, -184(%rbp)
	movq	%rax, -192(%rbp)
	leaq	-168(%rbp), %rax
	movq	%rax, -16(%rbp)
	movq	%rax, -8(%rbp)
	movq	%rax, -200(%rbp)
	movq	-176(%rbp), %rdi
	movq	-200(%rbp), %rsi
Ltmp470:
	.loc	16 702 9 prologue_end
	movl	$1, %edx
	callq	__ZN4core10intrinsics19copy_nonoverlapping17h6a40d2a47de9a48dE
	.loc	16 703 9
	leaq	-120(%rbp), %rax
	movq	%rax, %rcx
	leaq	-168(%rbp), %rdx
	movq	%rcx, %rdi
	movq	%rdx, %rsi
	movl	$48, %ecx
	movq	%rcx, %rdx
	movq	%rax, -208(%rbp)
	movq	%rcx, -216(%rbp)
	callq	_memcpy
Ltmp471:
	.loc	16 0 9 is_stmt 0
	movq	-208(%rbp), %rax
Ltmp472:
	.file	17 "/rustc/6c8927b0cf80ceee19386026cf9d7fd4fd9d486f/src/libcore/mem/maybe_uninit.rs"
	.loc	17 501 38 is_stmt 1
	leaq	-64(%rbp), %rcx
	movq	%rcx, %rdx
	movq	%rdx, %rdi
	movq	%rax, %rsi
	movq	-216(%rbp), %rdx
	movq	%rcx, -224(%rbp)
	callq	_memcpy
	movq	-224(%rbp), %rax
	movq	-184(%rbp), %rcx
Ltmp473:
	.file	18 "/rustc/6c8927b0cf80ceee19386026cf9d7fd4fd9d486f/src/libcore/mem/manually_drop.rs"
	.loc	18 101 9
	movq	%rcx, %rdi
	movq	%rax, %rsi
	movq	-216(%rbp), %rdx
	callq	_memcpy
Ltmp474:
	.loc	18 0 9 is_stmt 0
	movq	-192(%rbp), %rax
	.loc	16 705 2 is_stmt 1
	addq	$224, %rsp
	popq	%rbp
	retq
Ltmp475:
Lfunc_end89:
	.cfi_endproc

	.globl	__ZN4core3ptr4read17hfd9a53263867a197E
	.p2align	4, 0x90
__ZN4core3ptr4read17hfd9a53263867a197E:
Lfunc_begin90:
	.loc	16 692 0
	.cfi_startproc
	pushq	%rbp
	.cfi_def_cfa_offset 16
	.cfi_offset %rbp, -16
	movq	%rsp, %rbp
	.cfi_def_cfa_register %rbp
	subq	$208, %rsp
	movq	%rdi, %rax
	movq	%rsi, -64(%rbp)
	movq	%rsi, -152(%rbp)
	movq	%rdi, -160(%rbp)
	movq	%rax, -168(%rbp)
	leaq	-144(%rbp), %rax
	movq	%rax, -16(%rbp)
	movq	%rax, -8(%rbp)
	movq	%rax, -176(%rbp)
	movq	-152(%rbp), %rdi
	movq	-176(%rbp), %rsi
Ltmp476:
	.loc	16 702 9 prologue_end
	movl	$1, %edx
	callq	__ZN4core10intrinsics19copy_nonoverlapping17h8b59aefd40da2568E
	.loc	16 703 9
	leaq	-104(%rbp), %rax
	movq	%rax, %rcx
	leaq	-144(%rbp), %rdx
	movq	%rcx, %rdi
	movq	%rdx, %rsi
	movl	$40, %ecx
	movq	%rcx, %rdx
	movq	%rax, -184(%rbp)
	movq	%rcx, -192(%rbp)
	callq	_memcpy
Ltmp477:
	.loc	16 0 9 is_stmt 0
	movq	-184(%rbp), %rax
Ltmp478:
	.loc	17 501 38 is_stmt 1
	leaq	-56(%rbp), %rcx
	movq	%rcx, %rdx
	movq	%rdx, %rdi
	movq	%rax, %rsi
	movq	-192(%rbp), %rdx
	movq	%rcx, -200(%rbp)
	callq	_memcpy
	movq	-200(%rbp), %rax
	movq	-160(%rbp), %rcx
Ltmp479:
	.loc	18 101 9
	movq	%rcx, %rdi
	movq	%rax, %rsi
	movq	-192(%rbp), %rdx
	callq	_memcpy
Ltmp480:
	.loc	18 0 9 is_stmt 0
	movq	-168(%rbp), %rax
	.loc	16 705 2 is_stmt 1
	addq	$208, %rsp
	popq	%rbp
	retq
Ltmp481:
Lfunc_end90:
	.cfi_endproc

	.globl	__ZN4core3ptr5write17h410e498e16df8a9eE
	.p2align	4, 0x90
__ZN4core3ptr5write17h410e498e16df8a9eE:
Lfunc_begin91:
	.loc	16 895 0
	.cfi_startproc
	pushq	%rbp
	.cfi_def_cfa_offset 16
	.cfi_offset %rbp, -16
	movq	%rsp, %rbp
	.cfi_def_cfa_register %rbp
	subq	$16, %rsp
	movq	%rdi, -8(%rbp)
Ltmp482:
	.loc	16 901 51 prologue_end
	movl	$48, %edx
	callq	_memcpy
Ltmp483:
	.loc	16 902 2
	addq	$16, %rsp
	popq	%rbp
	retq
Ltmp484:
Lfunc_end91:
	.cfi_endproc

	.globl	__ZN4core3ptr5write17h71e5ceac60c76a48E
	.p2align	4, 0x90
__ZN4core3ptr5write17h71e5ceac60c76a48E:
Lfunc_begin92:
	.loc	16 895 0
	.cfi_startproc
	pushq	%rbp
	.cfi_def_cfa_offset 16
	.cfi_offset %rbp, -16
	movq	%rsp, %rbp
	.cfi_def_cfa_register %rbp
	subq	$16, %rsp
	movq	%rdi, -8(%rbp)
Ltmp485:
	.loc	16 901 51 prologue_end
	movl	$40, %edx
	callq	_memcpy
Ltmp486:
	.loc	16 902 2
	addq	$16, %rsp
	popq	%rbp
	retq
Ltmp487:
Lfunc_end92:
	.cfi_endproc

	.p2align	4, 0x90
__ZN4core3str19from_utf8_unchecked17h6a4c0d4f0b652a47E:
Lfunc_begin93:
	.file	19 "/rustc/6c8927b0cf80ceee19386026cf9d7fd4fd9d486f/src/libcore/str/mod.rs"
	.loc	19 417 0
	.cfi_startproc
	pushq	%rbp
	.cfi_def_cfa_offset 16
	.cfi_offset %rbp, -16
	movq	%rsp, %rbp
	.cfi_def_cfa_register %rbp
	subq	$16, %rsp
	movq	%rdi, -16(%rbp)
	movq	%rsi, -8(%rbp)
Ltmp488:
	.loc	19 423 2 prologue_end
	movq	%rdi, %rax
	movq	%rsi, %rdx
	addq	$16, %rsp
	popq	%rbp
	retq
Ltmp489:
Lfunc_end93:
	.cfi_endproc

	.globl	__ZN4core3str21_$LT$impl$u20$str$GT$5parse17hfbe890f19c23bf01E
	.p2align	4, 0x90
__ZN4core3str21_$LT$impl$u20$str$GT$5parse17hfbe890f19c23bf01E:
Lfunc_begin94:
	.loc	19 4268 0
	.cfi_startproc
	pushq	%rbp
	.cfi_def_cfa_offset 16
	.cfi_offset %rbp, -16
	movq	%rsp, %rbp
	.cfi_def_cfa_register %rbp
	subq	$32, %rsp
	movq	%rdi, %rax
	movq	%rsi, -16(%rbp)
	movq	%rdx, -8(%rbp)
	movq	%rax, -24(%rbp)
Ltmp490:
	.loc	19 4269 9 prologue_end
	callq	__ZN63_$LT$proc_macro2..TokenStream$u20$as$u20$core..str..FromStr$GT$8from_str17hd255ca8a72c348c4E
	.loc	19 0 9 is_stmt 0
	movq	-24(%rbp), %rax
	.loc	19 4270 6 is_stmt 1
	addq	$32, %rsp
	popq	%rbp
	retq
Ltmp491:
Lfunc_end94:
	.cfi_endproc

	.globl	__ZN4core3str21_$LT$impl$u20$str$GT$9ends_with17ha1f1249e157780c0E
	.p2align	4, 0x90
__ZN4core3str21_$LT$impl$u20$str$GT$9ends_with17ha1f1249e157780c0E:
Lfunc_begin95:
	.loc	19 3111 0
	.cfi_startproc
	pushq	%rbp
	.cfi_def_cfa_offset 16
	.cfi_offset %rbp, -16
	movq	%rsp, %rbp
	.cfi_def_cfa_register %rbp
	subq	$64, %rsp
	movq	%rdi, -32(%rbp)
	movq	%rsi, -24(%rbp)
	movq	%rdx, -16(%rbp)
	movq	%rcx, -8(%rbp)
	movq	%rdi, -40(%rbp)
Ltmp492:
	.loc	19 3115 9 prologue_end
	movq	%rdx, %rdi
	movq	%rsi, -48(%rbp)
	movq	%rcx, %rsi
	movq	-40(%rbp), %rdx
	movq	-48(%rbp), %rcx
	callq	__ZN55_$LT$$RF$str$u20$as$u20$core..str..pattern..Pattern$GT$12is_suffix_of17h3a2aec8a7c281afeE
	movb	%al, -49(%rbp)
	.loc	19 0 9 is_stmt 0
	movb	-49(%rbp), %al
	.loc	19 3116 6 is_stmt 1
	andb	$1, %al
	movzbl	%al, %eax
	addq	$64, %rsp
	popq	%rbp
	retq
Ltmp493:
Lfunc_end95:
	.cfi_endproc

	.globl	__ZN4core4iter22LoopState$LT$C$C$B$GT$11break_value17h3d10603641e2afe8E
	.p2align	4, 0x90
__ZN4core4iter22LoopState$LT$C$C$B$GT$11break_value17h3d10603641e2afe8E:
Lfunc_begin96:
	.file	20 "/rustc/6c8927b0cf80ceee19386026cf9d7fd4fd9d486f/src/libcore/iter/mod.rs"
	.loc	20 402 0
	.cfi_startproc
	pushq	%rbp
	.cfi_def_cfa_offset 16
	.cfi_offset %rbp, -16
	movq	%rsp, %rbp
	.cfi_def_cfa_register %rbp
	subq	$40, %rsp
	movq	%rdi, -32(%rbp)
	movq	-32(%rbp), %rax
	movq	%rax, -40(%rbp)
Ltmp494:
	.loc	20 404 13 prologue_end
	movl	-40(%rbp), %ecx
	movl	%ecx, %eax
	testq	%rax, %rax
	je	LBB96_3
	jmp	LBB96_7
LBB96_7:
	.loc	20 405 30
	movl	-36(%rbp), %eax
	movl	%eax, -16(%rbp)
Ltmp495:
	.loc	20 405 41 is_stmt 0
	movl	-16(%rbp), %eax
	movl	%eax, -8(%rbp)
	.loc	20 405 36
	movl	-8(%rbp), %eax
	movl	%eax, -20(%rbp)
	movl	$1, -24(%rbp)
Ltmp496:
	.loc	20 403 9 is_stmt 1
	jmp	LBB96_6
	.loc	20 403 15 is_stmt 0
	ud2
LBB96_3:
	.loc	20 404 40 is_stmt 1
	movl	$0, -24(%rbp)
	.loc	20 403 9
	jmp	LBB96_6
LBB96_4:
	.loc	20 407 6
	movq	-24(%rbp), %rax
	addq	$40, %rsp
	popq	%rbp
	retq
LBB96_5:
	.loc	20 407 5 is_stmt 0
	jmp	LBB96_4
LBB96_6:
	movl	-40(%rbp), %eax
	movl	%eax, %ecx
	cmpq	$1, %rcx
	je	LBB96_4
	jmp	LBB96_5
Ltmp497:
Lfunc_end96:
	.cfi_endproc

	.globl	__ZN4core4iter6traits8iterator8Iterator10filter_map17h47b6d6cd16673bd4E
	.p2align	4, 0x90
__ZN4core4iter6traits8iterator8Iterator10filter_map17h47b6d6cd16673bd4E:
Lfunc_begin97:
	.file	21 "/rustc/6c8927b0cf80ceee19386026cf9d7fd4fd9d486f/src/libcore/iter/traits/iterator.rs"
	.loc	21 771 0 is_stmt 1
	.cfi_startproc
	pushq	%rbp
	.cfi_def_cfa_offset 16
	.cfi_offset %rbp, -16
	movq	%rsp, %rbp
	.cfi_def_cfa_register %rbp
	subq	$80, %rsp
	movq	%rdi, %rax
Ltmp498:
	.loc	21 776 24 prologue_end
	leaq	-48(%rbp), %rcx
	movq	%rcx, %rdx
	movq	%rdi, -56(%rbp)
	movq	%rdx, %rdi
	movl	$40, %edx
	movq	%rax, -64(%rbp)
	movq	%rcx, -72(%rbp)
	callq	_memcpy
Ltmp499:
	.loc	21 0 24 is_stmt 0
	movq	-56(%rbp), %rdi
	movq	-72(%rbp), %rsi
	.loc	21 776 9
	callq	__ZN4core4iter8adapters22FilterMap$LT$I$C$F$GT$3new17h724f4a71184a3863E
	.loc	21 0 9
	movq	-64(%rbp), %rax
	.loc	21 777 6 is_stmt 1
	addq	$80, %rsp
	popq	%rbp
	retq
Ltmp500:
Lfunc_end97:
	.cfi_endproc

	.globl	__ZN4core4iter6traits8iterator8Iterator3map17h087e14c320060a6bE
	.p2align	4, 0x90
__ZN4core4iter6traits8iterator8Iterator3map17h087e14c320060a6bE:
Lfunc_begin98:
	.loc	21 594 0
	.cfi_startproc
	pushq	%rbp
	.cfi_def_cfa_offset 16
	.cfi_offset %rbp, -16
	movq	%rsp, %rbp
	.cfi_def_cfa_register %rbp
	subq	$80, %rsp
	movq	%rdi, %rax
Ltmp501:
	movq	%rdx, -8(%rbp)
Ltmp502:
	.loc	21 599 18 prologue_end
	leaq	-48(%rbp), %rcx
	movq	%rcx, %r8
	movq	%rdi, -56(%rbp)
	movq	%r8, %rdi
	movl	$40, %r8d
	movq	%rdx, -64(%rbp)
	movq	%r8, %rdx
	movq	%rax, -72(%rbp)
	movq	%rcx, -80(%rbp)
	callq	_memcpy
Ltmp503:
	.loc	21 0 18 is_stmt 0
	movq	-56(%rbp), %rdi
	movq	-80(%rbp), %rsi
	movq	-64(%rbp), %rdx
	.loc	21 599 9
	callq	__ZN4core4iter8adapters16Map$LT$I$C$F$GT$3new17h84fc2f61fe237772E
	.loc	21 0 9
	movq	-72(%rbp), %rax
	.loc	21 600 6 is_stmt 1
	addq	$80, %rsp
	popq	%rbp
	retq
Ltmp504:
Lfunc_end98:
	.cfi_endproc

	.globl	__ZN4core4iter6traits8iterator8Iterator3map17h3c61a193b05bd8a1E
	.p2align	4, 0x90
__ZN4core4iter6traits8iterator8Iterator3map17h3c61a193b05bd8a1E:
Lfunc_begin99:
	.loc	21 594 0
	.cfi_startproc
	pushq	%rbp
	.cfi_def_cfa_offset 16
	.cfi_offset %rbp, -16
	movq	%rsp, %rbp
	.cfi_def_cfa_register %rbp
	subq	$80, %rsp
	movq	%rdi, %rax
Ltmp505:
	.loc	21 599 18 prologue_end
	leaq	-48(%rbp), %rcx
	movq	%rcx, %rdx
	movq	%rdi, -56(%rbp)
	movq	%rdx, %rdi
	movl	$40, %edx
	movq	%rax, -64(%rbp)
	movq	%rcx, -72(%rbp)
	callq	_memcpy
Ltmp506:
	.loc	21 0 18 is_stmt 0
	movq	-56(%rbp), %rdi
	movq	-72(%rbp), %rsi
	.loc	21 599 9
	callq	__ZN4core4iter8adapters16Map$LT$I$C$F$GT$3new17haf0532d6fdc8ca0eE
	.loc	21 0 9
	movq	-64(%rbp), %rax
	.loc	21 600 6 is_stmt 1
	addq	$80, %rsp
	popq	%rbp
	retq
Ltmp507:
Lfunc_end99:
	.cfi_endproc

	.globl	__ZN4core4iter6traits8iterator8Iterator3map17ha20e0616f776e43fE
	.p2align	4, 0x90
__ZN4core4iter6traits8iterator8Iterator3map17ha20e0616f776e43fE:
Lfunc_begin100:
	.loc	21 594 0
	.cfi_startproc
	pushq	%rbp
	.cfi_def_cfa_offset 16
	.cfi_offset %rbp, -16
	movq	%rsp, %rbp
	.cfi_def_cfa_register %rbp
	subq	$80, %rsp
	movq	%rdi, %rax
Ltmp508:
	.loc	21 599 18 prologue_end
	leaq	-48(%rbp), %rcx
	movq	%rcx, %rdx
	movq	%rdi, -56(%rbp)
	movq	%rdx, %rdi
	movl	$40, %edx
	movq	%rax, -64(%rbp)
	movq	%rcx, -72(%rbp)
	callq	_memcpy
Ltmp509:
	.loc	21 0 18 is_stmt 0
	movq	-56(%rbp), %rdi
	movq	-72(%rbp), %rsi
	.loc	21 599 9
	callq	__ZN4core4iter8adapters16Map$LT$I$C$F$GT$3new17h71346228ae9723d1E
	.loc	21 0 9
	movq	-64(%rbp), %rax
	.loc	21 600 6 is_stmt 1
	addq	$80, %rsp
	popq	%rbp
	retq
Ltmp510:
Lfunc_end100:
	.cfi_endproc

	.globl	__ZN4core4iter6traits8iterator8Iterator3map17haaf9553c33fc59a1E
	.p2align	4, 0x90
__ZN4core4iter6traits8iterator8Iterator3map17haaf9553c33fc59a1E:
Lfunc_begin101:
	.loc	21 594 0
	.cfi_startproc
	pushq	%rbp
	.cfi_def_cfa_offset 16
	.cfi_offset %rbp, -16
	movq	%rsp, %rbp
	.cfi_def_cfa_register %rbp
	subq	$80, %rsp
	movq	%rdi, %rax
Ltmp511:
	.loc	21 599 18 prologue_end
	leaq	-48(%rbp), %rcx
	movq	%rcx, %rdx
	movq	%rdi, -56(%rbp)
	movq	%rdx, %rdi
	movl	$40, %edx
	movq	%rax, -64(%rbp)
	movq	%rcx, -72(%rbp)
	callq	_memcpy
Ltmp512:
	.loc	21 0 18 is_stmt 0
	movq	-56(%rbp), %rdi
	movq	-72(%rbp), %rsi
	.loc	21 599 9
	callq	__ZN4core4iter8adapters16Map$LT$I$C$F$GT$3new17h9b27dfaf1ba331e5E
	.loc	21 0 9
	movq	-64(%rbp), %rax
	.loc	21 600 6 is_stmt 1
	addq	$80, %rsp
	popq	%rbp
	retq
Ltmp513:
Lfunc_end101:
	.cfi_endproc

	.globl	__ZN4core4iter6traits8iterator8Iterator3map17hca7dc850fdb2ab20E
	.p2align	4, 0x90
__ZN4core4iter6traits8iterator8Iterator3map17hca7dc850fdb2ab20E:
Lfunc_begin102:
	.loc	21 594 0
	.cfi_startproc
	pushq	%rbp
	.cfi_def_cfa_offset 16
	.cfi_offset %rbp, -16
	movq	%rsp, %rbp
	.cfi_def_cfa_register %rbp
	subq	$80, %rsp
	movq	%rdi, %rax
Ltmp514:
	.loc	21 599 18 prologue_end
	leaq	-56(%rbp), %rcx
	movq	%rcx, %rdx
	movq	%rdi, -64(%rbp)
	movq	%rdx, %rdi
	movl	$48, %edx
	movq	%rax, -72(%rbp)
	movq	%rcx, -80(%rbp)
	callq	_memcpy
Ltmp515:
	.loc	21 0 18 is_stmt 0
	movq	-64(%rbp), %rdi
	movq	-80(%rbp), %rsi
	.loc	21 599 9
	callq	__ZN4core4iter8adapters16Map$LT$I$C$F$GT$3new17h2e602bda7dc17f0eE
	.loc	21 0 9
	movq	-72(%rbp), %rax
	.loc	21 600 6 is_stmt 1
	addq	$80, %rsp
	popq	%rbp
	retq
Ltmp516:
Lfunc_end102:
	.cfi_endproc

	.globl	__ZN4core4iter6traits8iterator8Iterator3map17hf20f9130d0639ec5E
	.p2align	4, 0x90
__ZN4core4iter6traits8iterator8Iterator3map17hf20f9130d0639ec5E:
Lfunc_begin103:
	.loc	21 594 0
	.cfi_startproc
	pushq	%rbp
	.cfi_def_cfa_offset 16
	.cfi_offset %rbp, -16
	movq	%rsp, %rbp
	.cfi_def_cfa_register %rbp
	subq	$80, %rsp
	movq	%rdi, %rax
Ltmp517:
	.loc	21 599 18 prologue_end
	leaq	-48(%rbp), %rcx
	movq	%rcx, %rdx
	movq	%rdi, -56(%rbp)
	movq	%rdx, %rdi
	movl	$40, %edx
	movq	%rax, -64(%rbp)
	movq	%rcx, -72(%rbp)
	callq	_memcpy
Ltmp518:
	.loc	21 0 18 is_stmt 0
	movq	-56(%rbp), %rdi
	movq	-72(%rbp), %rsi
	.loc	21 599 9
	callq	__ZN4core4iter8adapters16Map$LT$I$C$F$GT$3new17hddb5c0bb1d0026c7E
	.loc	21 0 9
	movq	-64(%rbp), %rax
	.loc	21 600 6 is_stmt 1
	addq	$80, %rsp
	popq	%rbp
	retq
Ltmp519:
Lfunc_end103:
	.cfi_endproc

	.globl	__ZN4core4iter6traits8iterator8Iterator3map17hf646d101500dd201E
	.p2align	4, 0x90
__ZN4core4iter6traits8iterator8Iterator3map17hf646d101500dd201E:
Lfunc_begin104:
	.loc	21 594 0
	.cfi_startproc
	pushq	%rbp
	.cfi_def_cfa_offset 16
	.cfi_offset %rbp, -16
	movq	%rsp, %rbp
	.cfi_def_cfa_register %rbp
	subq	$80, %rsp
	movq	%rdi, %rax
Ltmp520:
	.loc	21 599 18 prologue_end
	leaq	-56(%rbp), %rcx
	movq	%rcx, %rdx
	movq	%rdi, -64(%rbp)
	movq	%rdx, %rdi
	movl	$48, %edx
	movq	%rax, -72(%rbp)
	movq	%rcx, -80(%rbp)
	callq	_memcpy
Ltmp521:
	.loc	21 0 18 is_stmt 0
	movq	-64(%rbp), %rdi
	movq	-80(%rbp), %rsi
	.loc	21 599 9
	callq	__ZN4core4iter8adapters16Map$LT$I$C$F$GT$3new17he9f06adec4ab0dbeE
	.loc	21 0 9
	movq	-72(%rbp), %rax
	.loc	21 600 6 is_stmt 1
	addq	$80, %rsp
	popq	%rbp
	retq
Ltmp522:
Lfunc_end104:
	.cfi_endproc

	.globl	__ZN4core4iter6traits8iterator8Iterator4fold17h045357f87374b9a6E
	.p2align	4, 0x90
__ZN4core4iter6traits8iterator8Iterator4fold17h045357f87374b9a6E:
Lfunc_begin105:
	.loc	21 1996 0
	.cfi_startproc
	.cfi_personality 155, _rust_eh_personality
	.cfi_lsda 16, Lexception12
	pushq	%rbp
	.cfi_def_cfa_offset 16
	.cfi_offset %rbp, -16
	movq	%rsp, %rbp
	.cfi_def_cfa_register %rbp
	subq	$256, %rsp
	movq	%rsi, -240(%rbp)
Ltmp531:
	.loc	21 2001 13 prologue_end
	movb	$0, -25(%rbp)
	.loc	21 2001 25 is_stmt 0
	movb	$1, -25(%rbp)
	movq	%rdi, -248(%rbp)
Ltmp532:
	.loc	21 2002 9 is_stmt 1
	jmp	LBB105_2
Ltmp533:
LBB105_1:
	.loc	21 1996 5
	movq	-16(%rbp), %rdi
	callq	__Unwind_Resume
	ud2
Ltmp534:
LBB105_2:
Ltmp523:
	.loc	21 0 5 is_stmt 0
	leaq	-224(%rbp), %rdi
	movq	-248(%rbp), %rsi
Ltmp535:
	.loc	21 2002 29 is_stmt 1
	callq	__ZN93_$LT$core..iter..sources..Once$LT$T$GT$$u20$as$u20$core..iter..traits..iterator..Iterator$GT$4next17h0a83356f1d80af7dE
Ltmp524:
	jmp	LBB105_5
Ltmp536:
LBB105_3:
	.loc	21 0 29 is_stmt 0
	movq	-248(%rbp), %rdi
	.loc	21 2006 5 is_stmt 1
	callq	__ZN4core3ptr13drop_in_place17heddd33818f1da180E
	jmp	LBB105_1
Ltmp537:
LBB105_4:
	jmp	LBB105_3
Ltmp538:
LBB105_5:
	.loc	21 0 5 is_stmt 0
	xorl	%eax, %eax
	movl	%eax, %ecx
Ltmp539:
	.loc	21 2002 19 is_stmt 1
	movl	-224(%rbp), %eax
	subl	$4, %eax
	cmpl	$0, %eax
	movl	$1, %edx
	cmovbeq	%rcx, %rdx
	cmpq	$1, %rdx
	je	LBB105_7
Ltmp540:
Ltmp525:
	.loc	21 0 19 is_stmt 0
	leaq	-224(%rbp), %rdi
	.loc	21 2004 9 is_stmt 1
	callq	__ZN4core3ptr13drop_in_place17h94dcce221d0dc1cfE
Ltmp526:
	jmp	LBB105_9
Ltmp541:
LBB105_7:
	.loc	21 2002 24
	movq	-184(%rbp), %rax
	movq	%rax, -136(%rbp)
	movq	-192(%rbp), %rax
	movq	%rax, -144(%rbp)
	movq	-200(%rbp), %rax
	movq	%rax, -152(%rbp)
	movq	-208(%rbp), %rax
	movq	%rax, -160(%rbp)
	movq	-224(%rbp), %rax
	movq	-216(%rbp), %rcx
	movq	%rcx, -168(%rbp)
	movq	%rax, -176(%rbp)
Ltmp542:
	.loc	21 2003 23
	movb	$0, -25(%rbp)
	.loc	21 2003 30 is_stmt 0
	movq	-136(%rbp), %rax
	movq	%rax, -40(%rbp)
	movq	-144(%rbp), %rax
	movq	%rax, -48(%rbp)
	movq	-152(%rbp), %rax
	movq	%rax, -56(%rbp)
	movq	-160(%rbp), %rax
	movq	%rax, -64(%rbp)
	movq	-176(%rbp), %rax
	movq	-168(%rbp), %rcx
	movq	%rcx, -72(%rbp)
	movq	%rax, -80(%rbp)
	.loc	21 2003 21
	movq	-40(%rbp), %rax
	movq	%rax, -88(%rbp)
	movq	-48(%rbp), %rax
	movq	%rax, -96(%rbp)
	movq	-56(%rbp), %rax
	movq	%rax, -104(%rbp)
	movq	-64(%rbp), %rax
	movq	%rax, -112(%rbp)
	movq	-80(%rbp), %rax
	movq	-72(%rbp), %rcx
	movq	%rcx, -120(%rbp)
	movq	%rax, -128(%rbp)
Ltmp528:
	leaq	-240(%rbp), %rdi
	leaq	-128(%rbp), %rsi
	callq	__ZN4core4iter6traits8iterator8Iterator8for_each4call28_$u7b$$u7b$closure$u7d$$u7d$17h09ab4b75f6e66296E
Ltmp529:
	jmp	LBB105_8
Ltmp543:
LBB105_8:
	.loc	21 2003 13
	movb	$1, -25(%rbp)
Ltmp544:
	.loc	21 2002 9 is_stmt 1
	jmp	LBB105_2
Ltmp545:
LBB105_9:
	.loc	21 2005 9
	movb	$0, -25(%rbp)
Ltmp546:
	.loc	21 2006 5
	movb	$0, -25(%rbp)
Ltmp547:
	.loc	21 0 5 is_stmt 0
	movq	-248(%rbp), %rdi
	.loc	21 2006 5
	callq	__ZN4core3ptr13drop_in_place17heddd33818f1da180E
Ltmp548:
	.loc	21 2006 6
	addq	$256, %rsp
	popq	%rbp
	retq
Ltmp549:
LBB105_12:
	.loc	21 2006 5
	movb	$0, -25(%rbp)
	jmp	LBB105_4
Ltmp550:
LBB105_13:
	testb	$1, -25(%rbp)
	jne	LBB105_12
	jmp	LBB105_4
Ltmp551:
LBB105_14:
	.loc	21 2004 9 is_stmt 1
	jmp	LBB105_13
Ltmp552:
LBB105_15:
Ltmp527:
	.loc	21 0 9 is_stmt 0
	movq	%rax, -16(%rbp)
	movl	%edx, -8(%rbp)
	jmp	LBB105_13
Ltmp553:
LBB105_16:
Ltmp530:
	movq	%rax, -16(%rbp)
	movl	%edx, -8(%rbp)
	jmp	LBB105_14
Lfunc_end105:
	.cfi_endproc
	.section	__TEXT,__gcc_except_tab
	.p2align	2
GCC_except_table105:
Lexception12:
	.byte	255
	.byte	255
	.byte	1
	.uleb128 Lcst_end12-Lcst_begin12
Lcst_begin12:
	.uleb128 Lfunc_begin105-Lfunc_begin105
	.uleb128 Ltmp523-Lfunc_begin105
	.byte	0
	.byte	0
	.uleb128 Ltmp523-Lfunc_begin105
	.uleb128 Ltmp524-Ltmp523
	.uleb128 Ltmp527-Lfunc_begin105
	.byte	0
	.uleb128 Ltmp524-Lfunc_begin105
	.uleb128 Ltmp525-Ltmp524
	.byte	0
	.byte	0
	.uleb128 Ltmp525-Lfunc_begin105
	.uleb128 Ltmp526-Ltmp525
	.uleb128 Ltmp527-Lfunc_begin105
	.byte	0
	.uleb128 Ltmp528-Lfunc_begin105
	.uleb128 Ltmp529-Ltmp528
	.uleb128 Ltmp530-Lfunc_begin105
	.byte	0
	.uleb128 Ltmp529-Lfunc_begin105
	.uleb128 Lfunc_end105-Ltmp529
	.byte	0
	.byte	0
Lcst_end12:
	.p2align	2

	.section	__TEXT,__text,regular,pure_instructions
	.globl	__ZN4core4iter6traits8iterator8Iterator4fold17h486196880e276775E
	.p2align	4, 0x90
__ZN4core4iter6traits8iterator8Iterator4fold17h486196880e276775E:
Lfunc_begin106:
	.loc	21 1996 0 is_stmt 1
	.cfi_startproc
	.cfi_personality 155, _rust_eh_personality
	.cfi_lsda 16, Lexception13
	pushq	%rbp
	.cfi_def_cfa_offset 16
	.cfi_offset %rbp, -16
	movq	%rsp, %rbp
	.cfi_def_cfa_register %rbp
	subq	$256, %rsp
	movq	%rsi, -240(%rbp)
Ltmp562:
	.loc	21 2001 13 prologue_end
	movb	$0, -25(%rbp)
	.loc	21 2001 25 is_stmt 0
	movb	$1, -25(%rbp)
	movq	%rdi, -248(%rbp)
Ltmp563:
	.loc	21 2002 9 is_stmt 1
	jmp	LBB106_2
Ltmp564:
LBB106_1:
	.loc	21 1996 5
	movq	-16(%rbp), %rdi
	callq	__Unwind_Resume
	ud2
Ltmp565:
LBB106_2:
Ltmp554:
	.loc	21 0 5 is_stmt 0
	leaq	-224(%rbp), %rdi
	movq	-248(%rbp), %rsi
Ltmp566:
	.loc	21 2002 29 is_stmt 1
	callq	__ZN94_$LT$proc_macro2..token_stream..IntoIter$u20$as$u20$core..iter..traits..iterator..Iterator$GT$4next17h6b851ed9ff6eaa14E
Ltmp555:
	jmp	LBB106_5
Ltmp567:
LBB106_3:
	.loc	21 0 29 is_stmt 0
	movq	-248(%rbp), %rdi
	.loc	21 2006 5 is_stmt 1
	callq	__ZN4core3ptr13drop_in_place17h0ea118e1ac561badE
	jmp	LBB106_1
Ltmp568:
LBB106_4:
	jmp	LBB106_3
Ltmp569:
LBB106_5:
	.loc	21 0 5 is_stmt 0
	xorl	%eax, %eax
	movl	%eax, %ecx
Ltmp570:
	.loc	21 2002 19 is_stmt 1
	movl	-224(%rbp), %eax
	subl	$4, %eax
	cmpl	$0, %eax
	movl	$1, %edx
	cmovbeq	%rcx, %rdx
	cmpq	$1, %rdx
	je	LBB106_7
Ltmp571:
Ltmp556:
	.loc	21 0 19 is_stmt 0
	leaq	-224(%rbp), %rdi
	.loc	21 2004 9 is_stmt 1
	callq	__ZN4core3ptr13drop_in_place17h94dcce221d0dc1cfE
Ltmp557:
	jmp	LBB106_9
Ltmp572:
LBB106_7:
	.loc	21 2002 24
	movq	-184(%rbp), %rax
	movq	%rax, -136(%rbp)
	movq	-192(%rbp), %rax
	movq	%rax, -144(%rbp)
	movq	-200(%rbp), %rax
	movq	%rax, -152(%rbp)
	movq	-208(%rbp), %rax
	movq	%rax, -160(%rbp)
	movq	-224(%rbp), %rax
	movq	-216(%rbp), %rcx
	movq	%rcx, -168(%rbp)
	movq	%rax, -176(%rbp)
Ltmp573:
	.loc	21 2003 23
	movb	$0, -25(%rbp)
	.loc	21 2003 30 is_stmt 0
	movq	-136(%rbp), %rax
	movq	%rax, -40(%rbp)
	movq	-144(%rbp), %rax
	movq	%rax, -48(%rbp)
	movq	-152(%rbp), %rax
	movq	%rax, -56(%rbp)
	movq	-160(%rbp), %rax
	movq	%rax, -64(%rbp)
	movq	-176(%rbp), %rax
	movq	-168(%rbp), %rcx
	movq	%rcx, -72(%rbp)
	movq	%rax, -80(%rbp)
	.loc	21 2003 21
	movq	-40(%rbp), %rax
	movq	%rax, -88(%rbp)
	movq	-48(%rbp), %rax
	movq	%rax, -96(%rbp)
	movq	-56(%rbp), %rax
	movq	%rax, -104(%rbp)
	movq	-64(%rbp), %rax
	movq	%rax, -112(%rbp)
	movq	-80(%rbp), %rax
	movq	-72(%rbp), %rcx
	movq	%rcx, -120(%rbp)
	movq	%rax, -128(%rbp)
Ltmp559:
	leaq	-240(%rbp), %rdi
	leaq	-128(%rbp), %rsi
	callq	__ZN4core4iter6traits8iterator8Iterator8for_each4call28_$u7b$$u7b$closure$u7d$$u7d$17h8a839ece3f8f4964E
Ltmp560:
	jmp	LBB106_8
Ltmp574:
LBB106_8:
	.loc	21 2003 13
	movb	$1, -25(%rbp)
Ltmp575:
	.loc	21 2002 9 is_stmt 1
	jmp	LBB106_2
Ltmp576:
LBB106_9:
	.loc	21 2005 9
	movb	$0, -25(%rbp)
Ltmp577:
	.loc	21 2006 5
	movb	$0, -25(%rbp)
Ltmp578:
	.loc	21 0 5 is_stmt 0
	movq	-248(%rbp), %rdi
	.loc	21 2006 5
	callq	__ZN4core3ptr13drop_in_place17h0ea118e1ac561badE
Ltmp579:
	.loc	21 2006 6
	addq	$256, %rsp
	popq	%rbp
	retq
Ltmp580:
LBB106_12:
	.loc	21 2006 5
	movb	$0, -25(%rbp)
	jmp	LBB106_4
Ltmp581:
LBB106_13:
	testb	$1, -25(%rbp)
	jne	LBB106_12
	jmp	LBB106_4
Ltmp582:
LBB106_14:
	.loc	21 2004 9 is_stmt 1
	jmp	LBB106_13
Ltmp583:
LBB106_15:
Ltmp558:
	.loc	21 0 9 is_stmt 0
	movq	%rax, -16(%rbp)
	movl	%edx, -8(%rbp)
	jmp	LBB106_13
Ltmp584:
LBB106_16:
Ltmp561:
	movq	%rax, -16(%rbp)
	movl	%edx, -8(%rbp)
	jmp	LBB106_14
Lfunc_end106:
	.cfi_endproc
	.section	__TEXT,__gcc_except_tab
	.p2align	2
GCC_except_table106:
Lexception13:
	.byte	255
	.byte	255
	.byte	1
	.uleb128 Lcst_end13-Lcst_begin13
Lcst_begin13:
	.uleb128 Lfunc_begin106-Lfunc_begin106
	.uleb128 Ltmp554-Lfunc_begin106
	.byte	0
	.byte	0
	.uleb128 Ltmp554-Lfunc_begin106
	.uleb128 Ltmp555-Ltmp554
	.uleb128 Ltmp558-Lfunc_begin106
	.byte	0
	.uleb128 Ltmp555-Lfunc_begin106
	.uleb128 Ltmp556-Ltmp555
	.byte	0
	.byte	0
	.uleb128 Ltmp556-Lfunc_begin106
	.uleb128 Ltmp557-Ltmp556
	.uleb128 Ltmp558-Lfunc_begin106
	.byte	0
	.uleb128 Ltmp559-Lfunc_begin106
	.uleb128 Ltmp560-Ltmp559
	.uleb128 Ltmp561-Lfunc_begin106
	.byte	0
	.uleb128 Ltmp560-Lfunc_begin106
	.uleb128 Lfunc_end106-Ltmp560
	.byte	0
	.byte	0
Lcst_end13:
	.p2align	2

	.section	__TEXT,__text,regular,pure_instructions
	.globl	__ZN4core4iter6traits8iterator8Iterator4fold17h8a0d463d96a8e66cE
	.p2align	4, 0x90
__ZN4core4iter6traits8iterator8Iterator4fold17h8a0d463d96a8e66cE:
Lfunc_begin107:
	.loc	21 1996 0 is_stmt 1
	.cfi_startproc
	.cfi_personality 155, _rust_eh_personality
	.cfi_lsda 16, Lexception14
	pushq	%rbp
	.cfi_def_cfa_offset 16
	.cfi_offset %rbp, -16
	movq	%rsp, %rbp
	.cfi_def_cfa_register %rbp
	subq	$224, %rsp
	movq	%rsi, -208(%rbp)
Ltmp593:
	.loc	21 2001 13 prologue_end
	movb	$0, -25(%rbp)
	.loc	21 2001 25 is_stmt 0
	movb	$1, -25(%rbp)
	movq	%rdi, -216(%rbp)
Ltmp594:
	.loc	21 2002 9 is_stmt 1
	jmp	LBB107_2
Ltmp595:
LBB107_1:
	.loc	21 1996 5
	movq	-16(%rbp), %rdi
	callq	__Unwind_Resume
	ud2
Ltmp596:
LBB107_2:
Ltmp585:
	.loc	21 0 5 is_stmt 0
	leaq	-192(%rbp), %rdi
	movq	-216(%rbp), %rsi
Ltmp597:
	.loc	21 2002 29 is_stmt 1
	callq	__ZN93_$LT$core..iter..sources..Once$LT$T$GT$$u20$as$u20$core..iter..traits..iterator..Iterator$GT$4next17h8ecfcf1aa536f80fE
Ltmp586:
	jmp	LBB107_5
Ltmp598:
LBB107_3:
	.loc	21 0 29 is_stmt 0
	movq	-216(%rbp), %rdi
	.loc	21 2006 5 is_stmt 1
	callq	__ZN4core3ptr13drop_in_place17h73388c1a270928cbE
	jmp	LBB107_1
Ltmp599:
LBB107_4:
	jmp	LBB107_3
Ltmp600:
LBB107_5:
	.loc	21 0 5 is_stmt 0
	xorl	%eax, %eax
	movl	%eax, %ecx
Ltmp601:
	.loc	21 2002 19 is_stmt 1
	movq	-192(%rbp), %rdx
	subq	$2, %rdx
	cmpq	$0, %rdx
	movl	$1, %edx
	cmovbeq	%rcx, %rdx
	cmpq	$1, %rdx
	je	LBB107_7
Ltmp602:
Ltmp587:
	.loc	21 0 19 is_stmt 0
	leaq	-192(%rbp), %rdi
	.loc	21 2004 9 is_stmt 1
	callq	__ZN4core3ptr13drop_in_place17h06a5b1a3af6a730aE
Ltmp588:
	jmp	LBB107_9
Ltmp603:
LBB107_7:
	.loc	21 2002 24
	movq	-160(%rbp), %rax
	movq	%rax, -120(%rbp)
	movq	-168(%rbp), %rax
	movq	%rax, -128(%rbp)
	movq	-176(%rbp), %rax
	movq	%rax, -136(%rbp)
	movq	-192(%rbp), %rax
	movq	-184(%rbp), %rcx
	movq	%rcx, -144(%rbp)
	movq	%rax, -152(%rbp)
Ltmp604:
	.loc	21 2003 23
	movb	$0, -25(%rbp)
	.loc	21 2003 30 is_stmt 0
	movq	-120(%rbp), %rax
	movq	%rax, -40(%rbp)
	movq	-128(%rbp), %rax
	movq	%rax, -48(%rbp)
	movq	-136(%rbp), %rax
	movq	%rax, -56(%rbp)
	movq	-152(%rbp), %rax
	movq	-144(%rbp), %rcx
	movq	%rcx, -64(%rbp)
	movq	%rax, -72(%rbp)
	.loc	21 2003 21
	movq	-40(%rbp), %rax
	movq	%rax, -80(%rbp)
	movq	-48(%rbp), %rax
	movq	%rax, -88(%rbp)
	movq	-56(%rbp), %rax
	movq	%rax, -96(%rbp)
	movq	-72(%rbp), %rax
	movq	-64(%rbp), %rcx
	movq	%rcx, -104(%rbp)
	movq	%rax, -112(%rbp)
Ltmp590:
	leaq	-208(%rbp), %rdi
	leaq	-112(%rbp), %rsi
	callq	__ZN4core4iter8adapters8map_fold28_$u7b$$u7b$closure$u7d$$u7d$17hd9a13e2681efd01dE
Ltmp591:
	jmp	LBB107_8
Ltmp605:
LBB107_8:
	.loc	21 2003 13
	movb	$1, -25(%rbp)
Ltmp606:
	.loc	21 2002 9 is_stmt 1
	jmp	LBB107_2
Ltmp607:
LBB107_9:
	.loc	21 2005 9
	movb	$0, -25(%rbp)
Ltmp608:
	.loc	21 2006 5
	movb	$0, -25(%rbp)
Ltmp609:
	.loc	21 0 5 is_stmt 0
	movq	-216(%rbp), %rdi
	.loc	21 2006 5
	callq	__ZN4core3ptr13drop_in_place17h73388c1a270928cbE
Ltmp610:
	.loc	21 2006 6
	addq	$224, %rsp
	popq	%rbp
	retq
Ltmp611:
LBB107_12:
	.loc	21 2006 5
	movb	$0, -25(%rbp)
	jmp	LBB107_4
Ltmp612:
LBB107_13:
	testb	$1, -25(%rbp)
	jne	LBB107_12
	jmp	LBB107_4
Ltmp613:
LBB107_14:
	.loc	21 2004 9 is_stmt 1
	jmp	LBB107_13
Ltmp614:
LBB107_15:
Ltmp589:
	.loc	21 0 9 is_stmt 0
	movq	%rax, -16(%rbp)
	movl	%edx, -8(%rbp)
	jmp	LBB107_13
Ltmp615:
LBB107_16:
Ltmp592:
	movq	%rax, -16(%rbp)
	movl	%edx, -8(%rbp)
	jmp	LBB107_14
Lfunc_end107:
	.cfi_endproc
	.section	__TEXT,__gcc_except_tab
	.p2align	2
GCC_except_table107:
Lexception14:
	.byte	255
	.byte	255
	.byte	1
	.uleb128 Lcst_end14-Lcst_begin14
Lcst_begin14:
	.uleb128 Lfunc_begin107-Lfunc_begin107
	.uleb128 Ltmp585-Lfunc_begin107
	.byte	0
	.byte	0
	.uleb128 Ltmp585-Lfunc_begin107
	.uleb128 Ltmp586-Ltmp585
	.uleb128 Ltmp589-Lfunc_begin107
	.byte	0
	.uleb128 Ltmp586-Lfunc_begin107
	.uleb128 Ltmp587-Ltmp586
	.byte	0
	.byte	0
	.uleb128 Ltmp587-Lfunc_begin107
	.uleb128 Ltmp588-Ltmp587
	.uleb128 Ltmp589-Lfunc_begin107
	.byte	0
	.uleb128 Ltmp590-Lfunc_begin107
	.uleb128 Ltmp591-Ltmp590
	.uleb128 Ltmp592-Lfunc_begin107
	.byte	0
	.uleb128 Ltmp591-Lfunc_begin107
	.uleb128 Lfunc_end107-Ltmp591
	.byte	0
	.byte	0
Lcst_end14:
	.p2align	2

	.section	__TEXT,__text,regular,pure_instructions
	.globl	__ZN4core4iter6traits8iterator8Iterator4fold17ha22d09f4795e6792E
	.p2align	4, 0x90
__ZN4core4iter6traits8iterator8Iterator4fold17ha22d09f4795e6792E:
Lfunc_begin108:
	.loc	21 1996 0 is_stmt 1
	.cfi_startproc
	.cfi_personality 155, _rust_eh_personality
	.cfi_lsda 16, Lexception15
	pushq	%rbp
	.cfi_def_cfa_offset 16
	.cfi_offset %rbp, -16
	movq	%rsp, %rbp
	.cfi_def_cfa_register %rbp
	subq	$256, %rsp
	movq	%rsi, -248(%rbp)
	movq	%rdx, -240(%rbp)
Ltmp624:
	.loc	21 2001 13 prologue_end
	movb	$0, -25(%rbp)
	.loc	21 2001 25 is_stmt 0
	movb	$1, -25(%rbp)
	movq	%rdi, -256(%rbp)
Ltmp625:
	.loc	21 2002 9 is_stmt 1
	jmp	LBB108_2
Ltmp626:
LBB108_1:
	.loc	21 1996 5
	movq	-16(%rbp), %rdi
	callq	__Unwind_Resume
	ud2
Ltmp627:
LBB108_2:
Ltmp616:
	.loc	21 0 5 is_stmt 0
	leaq	-224(%rbp), %rdi
	movq	-256(%rbp), %rsi
Ltmp628:
	.loc	21 2002 29 is_stmt 1
	callq	__ZN94_$LT$proc_macro2..token_stream..IntoIter$u20$as$u20$core..iter..traits..iterator..Iterator$GT$4next17h6b851ed9ff6eaa14E
Ltmp617:
	jmp	LBB108_5
Ltmp629:
LBB108_3:
	.loc	21 0 29 is_stmt 0
	movq	-256(%rbp), %rdi
	.loc	21 2006 5 is_stmt 1
	callq	__ZN4core3ptr13drop_in_place17h0ea118e1ac561badE
	jmp	LBB108_1
Ltmp630:
LBB108_4:
	jmp	LBB108_3
Ltmp631:
LBB108_5:
	.loc	21 0 5 is_stmt 0
	xorl	%eax, %eax
	movl	%eax, %ecx
Ltmp632:
	.loc	21 2002 19 is_stmt 1
	movl	-224(%rbp), %eax
	subl	$4, %eax
	cmpl	$0, %eax
	movl	$1, %edx
	cmovbeq	%rcx, %rdx
	cmpq	$1, %rdx
	je	LBB108_7
Ltmp633:
Ltmp618:
	.loc	21 0 19 is_stmt 0
	leaq	-224(%rbp), %rdi
	.loc	21 2004 9 is_stmt 1
	callq	__ZN4core3ptr13drop_in_place17h94dcce221d0dc1cfE
Ltmp619:
	jmp	LBB108_9
Ltmp634:
LBB108_7:
	.loc	21 2002 24
	movq	-184(%rbp), %rax
	movq	%rax, -136(%rbp)
	movq	-192(%rbp), %rax
	movq	%rax, -144(%rbp)
	movq	-200(%rbp), %rax
	movq	%rax, -152(%rbp)
	movq	-208(%rbp), %rax
	movq	%rax, -160(%rbp)
	movq	-224(%rbp), %rax
	movq	-216(%rbp), %rcx
	movq	%rcx, -168(%rbp)
	movq	%rax, -176(%rbp)
Ltmp635:
	.loc	21 2003 23
	movb	$0, -25(%rbp)
	.loc	21 2003 30 is_stmt 0
	movq	-136(%rbp), %rax
	movq	%rax, -40(%rbp)
	movq	-144(%rbp), %rax
	movq	%rax, -48(%rbp)
	movq	-152(%rbp), %rax
	movq	%rax, -56(%rbp)
	movq	-160(%rbp), %rax
	movq	%rax, -64(%rbp)
	movq	-176(%rbp), %rax
	movq	-168(%rbp), %rcx
	movq	%rcx, -72(%rbp)
	movq	%rax, -80(%rbp)
	.loc	21 2003 21
	movq	-40(%rbp), %rax
	movq	%rax, -88(%rbp)
	movq	-48(%rbp), %rax
	movq	%rax, -96(%rbp)
	movq	-56(%rbp), %rax
	movq	%rax, -104(%rbp)
	movq	-64(%rbp), %rax
	movq	%rax, -112(%rbp)
	movq	-80(%rbp), %rax
	movq	-72(%rbp), %rcx
	movq	%rcx, -120(%rbp)
	movq	%rax, -128(%rbp)
Ltmp621:
	leaq	-248(%rbp), %rdi
	leaq	-128(%rbp), %rsi
	callq	__ZN4core4iter8adapters8map_fold28_$u7b$$u7b$closure$u7d$$u7d$17haeed428af1a84dcaE
Ltmp622:
	jmp	LBB108_8
Ltmp636:
LBB108_8:
	.loc	21 2003 13
	movb	$1, -25(%rbp)
Ltmp637:
	.loc	21 2002 9 is_stmt 1
	jmp	LBB108_2
Ltmp638:
LBB108_9:
	.loc	21 2005 9
	movb	$0, -25(%rbp)
Ltmp639:
	.loc	21 2006 5
	movb	$0, -25(%rbp)
Ltmp640:
	.loc	21 0 5 is_stmt 0
	movq	-256(%rbp), %rdi
	.loc	21 2006 5
	callq	__ZN4core3ptr13drop_in_place17h0ea118e1ac561badE
Ltmp641:
	.loc	21 2006 6
	addq	$256, %rsp
	popq	%rbp
	retq
Ltmp642:
LBB108_12:
	.loc	21 2006 5
	movb	$0, -25(%rbp)
	jmp	LBB108_4
Ltmp643:
LBB108_13:
	testb	$1, -25(%rbp)
	jne	LBB108_12
	jmp	LBB108_4
Ltmp644:
LBB108_14:
	.loc	21 2004 9 is_stmt 1
	jmp	LBB108_13
Ltmp645:
LBB108_15:
Ltmp620:
	.loc	21 0 9 is_stmt 0
	movq	%rax, -16(%rbp)
	movl	%edx, -8(%rbp)
	jmp	LBB108_13
Ltmp646:
LBB108_16:
Ltmp623:
	movq	%rax, -16(%rbp)
	movl	%edx, -8(%rbp)
	jmp	LBB108_14
Lfunc_end108:
	.cfi_endproc
	.section	__TEXT,__gcc_except_tab
	.p2align	2
GCC_except_table108:
Lexception15:
	.byte	255
	.byte	255
	.byte	1
	.uleb128 Lcst_end15-Lcst_begin15
Lcst_begin15:
	.uleb128 Lfunc_begin108-Lfunc_begin108
	.uleb128 Ltmp616-Lfunc_begin108
	.byte	0
	.byte	0
	.uleb128 Ltmp616-Lfunc_begin108
	.uleb128 Ltmp617-Ltmp616
	.uleb128 Ltmp620-Lfunc_begin108
	.byte	0
	.uleb128 Ltmp617-Lfunc_begin108
	.uleb128 Ltmp618-Ltmp617
	.byte	0
	.byte	0
	.uleb128 Ltmp618-Lfunc_begin108
	.uleb128 Ltmp619-Ltmp618
	.uleb128 Ltmp620-Lfunc_begin108
	.byte	0
	.uleb128 Ltmp621-Lfunc_begin108
	.uleb128 Ltmp622-Ltmp621
	.uleb128 Ltmp623-Lfunc_begin108
	.byte	0
	.uleb128 Ltmp622-Lfunc_begin108
	.uleb128 Lfunc_end108-Ltmp622
	.byte	0
	.byte	0
Lcst_end15:
	.p2align	2

	.section	__TEXT,__text,regular,pure_instructions
	.globl	__ZN4core4iter6traits8iterator8Iterator4fold17hab79578d8dd28e3bE
	.p2align	4, 0x90
__ZN4core4iter6traits8iterator8Iterator4fold17hab79578d8dd28e3bE:
Lfunc_begin109:
	.loc	21 1996 0 is_stmt 1
	.cfi_startproc
	.cfi_personality 155, _rust_eh_personality
	.cfi_lsda 16, Lexception16
	pushq	%rbp
	.cfi_def_cfa_offset 16
	.cfi_offset %rbp, -16
	movq	%rsp, %rbp
	.cfi_def_cfa_register %rbp
	subq	$304, %rsp
	movq	%rsi, -272(%rbp)
	movq	-272(%rbp), %rax
	movq	%rax, -280(%rbp)
Ltmp655:
	.loc	21 2001 13 prologue_end
	movb	$0, -25(%rbp)
	.loc	21 2001 25 is_stmt 0
	movb	$1, -25(%rbp)
	movq	-280(%rbp), %rax
	movq	%rax, -256(%rbp)
	movq	%rdi, -288(%rbp)
Ltmp656:
	.loc	21 2002 9 is_stmt 1
	jmp	LBB109_2
Ltmp657:
LBB109_1:
	.loc	21 1996 5
	movq	-24(%rbp), %rdi
	callq	__Unwind_Resume
	ud2
Ltmp658:
LBB109_2:
Ltmp647:
	.loc	21 0 5 is_stmt 0
	leaq	-248(%rbp), %rdi
	movq	-288(%rbp), %rsi
Ltmp659:
	.loc	21 2002 29 is_stmt 1
	callq	__ZN94_$LT$proc_macro2..token_stream..IntoIter$u20$as$u20$core..iter..traits..iterator..Iterator$GT$4next17h6b851ed9ff6eaa14E
Ltmp648:
	jmp	LBB109_5
Ltmp660:
LBB109_3:
	.loc	21 0 29 is_stmt 0
	movq	-288(%rbp), %rdi
	.loc	21 2006 5 is_stmt 1
	callq	__ZN4core3ptr13drop_in_place17h0ea118e1ac561badE
	jmp	LBB109_1
Ltmp661:
LBB109_4:
	jmp	LBB109_3
Ltmp662:
LBB109_5:
	.loc	21 0 5 is_stmt 0
	xorl	%eax, %eax
	movl	%eax, %ecx
Ltmp663:
	.loc	21 2002 19 is_stmt 1
	movl	-248(%rbp), %eax
	subl	$4, %eax
	cmpl	$0, %eax
	movl	$1, %edx
	cmovbeq	%rcx, %rdx
	cmpq	$1, %rdx
	je	LBB109_7
Ltmp664:
Ltmp649:
	.loc	21 0 19 is_stmt 0
	leaq	-248(%rbp), %rdi
	.loc	21 2004 9 is_stmt 1
	callq	__ZN4core3ptr13drop_in_place17h94dcce221d0dc1cfE
Ltmp650:
	jmp	LBB109_9
Ltmp665:
LBB109_7:
	.loc	21 2002 24
	movq	-208(%rbp), %rax
	movq	%rax, -160(%rbp)
	movq	-216(%rbp), %rax
	movq	%rax, -168(%rbp)
	movq	-224(%rbp), %rax
	movq	%rax, -176(%rbp)
	movq	-232(%rbp), %rax
	movq	%rax, -184(%rbp)
	movq	-248(%rbp), %rax
	movq	-240(%rbp), %rcx
	movq	%rcx, -192(%rbp)
	movq	%rax, -200(%rbp)
Ltmp666:
	.loc	21 2003 23
	movb	$0, -25(%rbp)
	movq	-256(%rbp), %rax
	movq	%rax, -88(%rbp)
	.loc	21 2003 30 is_stmt 0
	movq	-160(%rbp), %rax
	movq	%rax, -40(%rbp)
	movq	-168(%rbp), %rax
	movq	%rax, -48(%rbp)
	movq	-176(%rbp), %rax
	movq	%rax, -56(%rbp)
	movq	-184(%rbp), %rax
	movq	%rax, -64(%rbp)
	movq	-200(%rbp), %rax
	movq	-192(%rbp), %rcx
	movq	%rcx, -72(%rbp)
	movq	%rax, -80(%rbp)
	.loc	21 2003 21
	movq	-88(%rbp), %rax
	movq	%rax, -144(%rbp)
	leaq	-136(%rbp), %rdx
	movq	-40(%rbp), %rax
	movq	%rax, -96(%rbp)
	movq	-48(%rbp), %rax
	movq	%rax, -104(%rbp)
	movq	-56(%rbp), %rax
	movq	%rax, -112(%rbp)
	movq	-64(%rbp), %rax
	movq	%rax, -120(%rbp)
	movq	-80(%rbp), %rax
	movq	-72(%rbp), %rcx
	movq	%rcx, -128(%rbp)
	movq	%rax, -136(%rbp)
	movq	-144(%rbp), %rsi
Ltmp652:
	leaq	-264(%rbp), %rdi
	callq	__ZN4core4iter8adapters15filter_map_fold28_$u7b$$u7b$closure$u7d$$u7d$17hf395490e581df04eE
Ltmp653:
	movq	%rax, -296(%rbp)
	jmp	LBB109_8
Ltmp667:
LBB109_8:
	.loc	21 0 21
	movq	-296(%rbp), %rax
	.loc	21 2003 21
	movq	%rax, -8(%rbp)
	movq	-8(%rbp), %rcx
	movq	%rcx, -152(%rbp)
	.loc	21 2003 13
	movb	$1, -25(%rbp)
	movq	-152(%rbp), %rcx
	movq	%rcx, -256(%rbp)
Ltmp668:
	.loc	21 2002 9 is_stmt 1
	jmp	LBB109_2
Ltmp669:
LBB109_9:
	.loc	21 2005 9
	movb	$0, -25(%rbp)
Ltmp670:
	.loc	21 2006 5
	movb	$0, -25(%rbp)
Ltmp671:
	.loc	21 0 5 is_stmt 0
	movq	-288(%rbp), %rdi
	.loc	21 2006 5
	callq	__ZN4core3ptr13drop_in_place17h0ea118e1ac561badE
Ltmp672:
	.loc	21 2006 6
	movq	-256(%rbp), %rax
	addq	$304, %rsp
	popq	%rbp
	retq
Ltmp673:
LBB109_12:
	.loc	21 2006 5
	movb	$0, -25(%rbp)
	jmp	LBB109_4
Ltmp674:
LBB109_13:
	testb	$1, -25(%rbp)
	jne	LBB109_12
	jmp	LBB109_4
Ltmp675:
LBB109_14:
	.loc	21 2004 9 is_stmt 1
	jmp	LBB109_13
Ltmp676:
LBB109_15:
Ltmp651:
	.loc	21 0 9 is_stmt 0
	movq	%rax, -24(%rbp)
	movl	%edx, -16(%rbp)
	jmp	LBB109_13
Ltmp677:
LBB109_16:
Ltmp654:
	movq	%rax, -24(%rbp)
	movl	%edx, -16(%rbp)
	jmp	LBB109_14
Lfunc_end109:
	.cfi_endproc
	.section	__TEXT,__gcc_except_tab
	.p2align	2
GCC_except_table109:
Lexception16:
	.byte	255
	.byte	255
	.byte	1
	.uleb128 Lcst_end16-Lcst_begin16
Lcst_begin16:
	.uleb128 Lfunc_begin109-Lfunc_begin109
	.uleb128 Ltmp647-Lfunc_begin109
	.byte	0
	.byte	0
	.uleb128 Ltmp647-Lfunc_begin109
	.uleb128 Ltmp648-Ltmp647
	.uleb128 Ltmp651-Lfunc_begin109
	.byte	0
	.uleb128 Ltmp648-Lfunc_begin109
	.uleb128 Ltmp649-Ltmp648
	.byte	0
	.byte	0
	.uleb128 Ltmp649-Lfunc_begin109
	.uleb128 Ltmp650-Ltmp649
	.uleb128 Ltmp651-Lfunc_begin109
	.byte	0
	.uleb128 Ltmp652-Lfunc_begin109
	.uleb128 Ltmp653-Ltmp652
	.uleb128 Ltmp654-Lfunc_begin109
	.byte	0
	.uleb128 Ltmp653-Lfunc_begin109
	.uleb128 Lfunc_end109-Ltmp653
	.byte	0
	.byte	0
Lcst_end16:
	.p2align	2

	.section	__TEXT,__text,regular,pure_instructions
	.globl	__ZN4core4iter6traits8iterator8Iterator4fold17hd87f6eaef738da6fE
	.p2align	4, 0x90
__ZN4core4iter6traits8iterator8Iterator4fold17hd87f6eaef738da6fE:
Lfunc_begin110:
	.loc	21 1996 0 is_stmt 1
	.cfi_startproc
	.cfi_personality 155, _rust_eh_personality
	.cfi_lsda 16, Lexception17
	pushq	%rbp
	.cfi_def_cfa_offset 16
	.cfi_offset %rbp, -16
	movq	%rsp, %rbp
	.cfi_def_cfa_register %rbp
	subq	$256, %rsp
Ltmp689:
	.loc	21 2001 13 prologue_end
	movb	$0, -25(%rbp)
	.loc	21 2001 25 is_stmt 0
	movb	$1, -25(%rbp)
	movq	%rdi, -240(%rbp)
Ltmp690:
	.loc	21 0 25
	movq	%rsi, -248(%rbp)
Ltmp691:
	.loc	21 2002 9 is_stmt 1
	jmp	LBB110_2
Ltmp692:
LBB110_1:
	.loc	21 1996 5
	movq	-16(%rbp), %rdi
	callq	__Unwind_Resume
	ud2
Ltmp693:
LBB110_2:
Ltmp678:
	.loc	21 0 5 is_stmt 0
	leaq	-224(%rbp), %rdi
	movq	-240(%rbp), %rsi
Ltmp694:
	.loc	21 2002 29 is_stmt 1
	callq	__ZN93_$LT$core..iter..sources..Once$LT$T$GT$$u20$as$u20$core..iter..traits..iterator..Iterator$GT$4next17h0a83356f1d80af7dE
Ltmp679:
	jmp	LBB110_5
Ltmp695:
LBB110_3:
	.loc	21 0 29 is_stmt 0
	movq	-240(%rbp), %rdi
	.loc	21 2006 5 is_stmt 1
	callq	__ZN4core3ptr13drop_in_place17heddd33818f1da180E
	jmp	LBB110_1
Ltmp696:
LBB110_4:
	.loc	21 0 5 is_stmt 0
	movq	-248(%rbp), %rdi
	.loc	21 2006 5
	callq	__ZN4core3ptr13drop_in_place17h400dc81ada8d91d2E
	jmp	LBB110_3
Ltmp697:
LBB110_5:
	.loc	21 0 5
	xorl	%eax, %eax
	movl	%eax, %ecx
Ltmp698:
	.loc	21 2002 19 is_stmt 1
	movl	-224(%rbp), %eax
	subl	$4, %eax
	cmpl	$0, %eax
	movl	$1, %edx
	cmovbeq	%rcx, %rdx
	cmpq	$1, %rdx
	je	LBB110_7
Ltmp699:
Ltmp680:
	.loc	21 0 19 is_stmt 0
	leaq	-224(%rbp), %rdi
	.loc	21 2004 9 is_stmt 1
	callq	__ZN4core3ptr13drop_in_place17h94dcce221d0dc1cfE
Ltmp681:
	jmp	LBB110_9
Ltmp700:
LBB110_7:
	.loc	21 2002 24
	movq	-184(%rbp), %rax
	movq	%rax, -136(%rbp)
	movq	-192(%rbp), %rax
	movq	%rax, -144(%rbp)
	movq	-200(%rbp), %rax
	movq	%rax, -152(%rbp)
	movq	-208(%rbp), %rax
	movq	%rax, -160(%rbp)
	movq	-224(%rbp), %rax
	movq	-216(%rbp), %rcx
	movq	%rcx, -168(%rbp)
	movq	%rax, -176(%rbp)
Ltmp701:
	.loc	21 2003 23
	movb	$0, -25(%rbp)
	.loc	21 2003 30 is_stmt 0
	movq	-136(%rbp), %rax
	movq	%rax, -40(%rbp)
	movq	-144(%rbp), %rax
	movq	%rax, -48(%rbp)
	movq	-152(%rbp), %rax
	movq	%rax, -56(%rbp)
	movq	-160(%rbp), %rax
	movq	%rax, -64(%rbp)
	movq	-176(%rbp), %rax
	movq	-168(%rbp), %rcx
	movq	%rcx, -72(%rbp)
	movq	%rax, -80(%rbp)
	.loc	21 2003 21
	movq	-40(%rbp), %rax
	movq	%rax, -88(%rbp)
	movq	-48(%rbp), %rax
	movq	%rax, -96(%rbp)
	movq	-56(%rbp), %rax
	movq	%rax, -104(%rbp)
	movq	-64(%rbp), %rax
	movq	%rax, -112(%rbp)
	movq	-80(%rbp), %rax
	movq	-72(%rbp), %rcx
	movq	%rcx, -120(%rbp)
	movq	%rax, -128(%rbp)
Ltmp686:
	leaq	-128(%rbp), %rsi
	movq	-248(%rbp), %rdi
	callq	__ZN4core4iter8adapters8map_fold28_$u7b$$u7b$closure$u7d$$u7d$17h18858cb811d21288E
Ltmp687:
	jmp	LBB110_8
Ltmp702:
LBB110_8:
	.loc	21 2003 13
	movb	$1, -25(%rbp)
Ltmp703:
	.loc	21 2002 9 is_stmt 1
	jmp	LBB110_2
Ltmp704:
LBB110_9:
	.loc	21 2005 9
	movb	$0, -25(%rbp)
Ltmp683:
	movq	-248(%rbp), %rdi
Ltmp705:
	.loc	21 2006 5
	callq	__ZN4core3ptr13drop_in_place17h400dc81ada8d91d2E
Ltmp684:
	jmp	LBB110_10
Ltmp706:
LBB110_10:
	.loc	21 0 5 is_stmt 0
	movq	-240(%rbp), %rdi
	.loc	21 2006 5
	callq	__ZN4core3ptr13drop_in_place17heddd33818f1da180E
Ltmp707:
	.loc	21 2006 6
	addq	$256, %rsp
	popq	%rbp
	retq
Ltmp708:
LBB110_12:
	.loc	21 2006 5
	movb	$0, -25(%rbp)
	jmp	LBB110_4
Ltmp709:
LBB110_13:
	testb	$1, -25(%rbp)
	jne	LBB110_12
	jmp	LBB110_4
Ltmp710:
LBB110_14:
	.loc	21 2004 9 is_stmt 1
	jmp	LBB110_13
Ltmp711:
LBB110_15:
Ltmp682:
	.loc	21 0 9 is_stmt 0
	movq	%rax, -16(%rbp)
	movl	%edx, -8(%rbp)
	jmp	LBB110_13
Ltmp712:
LBB110_16:
Ltmp685:
	movq	%rax, -16(%rbp)
	movl	%edx, -8(%rbp)
	jmp	LBB110_3
Ltmp713:
LBB110_17:
Ltmp688:
	movq	%rax, -16(%rbp)
	movl	%edx, -8(%rbp)
	jmp	LBB110_14
Lfunc_end110:
	.cfi_endproc
	.section	__TEXT,__gcc_except_tab
	.p2align	2
GCC_except_table110:
Lexception17:
	.byte	255
	.byte	255
	.byte	1
	.uleb128 Lcst_end17-Lcst_begin17
Lcst_begin17:
	.uleb128 Lfunc_begin110-Lfunc_begin110
	.uleb128 Ltmp678-Lfunc_begin110
	.byte	0
	.byte	0
	.uleb128 Ltmp678-Lfunc_begin110
	.uleb128 Ltmp679-Ltmp678
	.uleb128 Ltmp682-Lfunc_begin110
	.byte	0
	.uleb128 Ltmp679-Lfunc_begin110
	.uleb128 Ltmp680-Ltmp679
	.byte	0
	.byte	0
	.uleb128 Ltmp680-Lfunc_begin110
	.uleb128 Ltmp681-Ltmp680
	.uleb128 Ltmp682-Lfunc_begin110
	.byte	0
	.uleb128 Ltmp686-Lfunc_begin110
	.uleb128 Ltmp687-Ltmp686
	.uleb128 Ltmp688-Lfunc_begin110
	.byte	0
	.uleb128 Ltmp683-Lfunc_begin110
	.uleb128 Ltmp684-Ltmp683
	.uleb128 Ltmp685-Lfunc_begin110
	.byte	0
	.uleb128 Ltmp684-Lfunc_begin110
	.uleb128 Lfunc_end110-Ltmp684
	.byte	0
	.byte	0
Lcst_end17:
	.p2align	2

	.section	__TEXT,__text,regular,pure_instructions
	.globl	__ZN4core4iter6traits8iterator8Iterator4fold17he5e70a940339ef29E
	.p2align	4, 0x90
__ZN4core4iter6traits8iterator8Iterator4fold17he5e70a940339ef29E:
Lfunc_begin111:
	.loc	21 1996 0 is_stmt 1
	.cfi_startproc
	.cfi_personality 155, _rust_eh_personality
	.cfi_lsda 16, Lexception18
	pushq	%rbp
	.cfi_def_cfa_offset 16
	.cfi_offset %rbp, -16
	movq	%rsp, %rbp
	.cfi_def_cfa_register %rbp
	subq	$96, %rsp
	movl	%edi, -84(%rbp)
	movl	-84(%rbp), %eax
	movl	%eax, -88(%rbp)
	movq	%rsi, -80(%rbp)
Ltmp722:
	.loc	21 2001 13 prologue_end
	movb	$0, -33(%rbp)
	.loc	21 2001 25 is_stmt 0
	movb	$1, -33(%rbp)
Ltmp723:
	.loc	21 2002 9 is_stmt 1
	jmp	LBB111_2
Ltmp724:
LBB111_1:
	.loc	21 1996 5
	movq	-24(%rbp), %rdi
	callq	__Unwind_Resume
	ud2
LBB111_2:
Ltmp714:
	.loc	21 0 5 is_stmt 0
	leaq	-88(%rbp), %rdi
Ltmp725:
	.loc	21 2002 29 is_stmt 1
	callq	__ZN93_$LT$core..iter..sources..Once$LT$T$GT$$u20$as$u20$core..iter..traits..iterator..Iterator$GT$4next17hb48d4bbfe162229fE
Ltmp715:
	movl	%eax, -92(%rbp)
	jmp	LBB111_5
Ltmp726:
LBB111_3:
	.loc	21 2006 5
	leaq	-88(%rbp), %rdi
	callq	__ZN4core3ptr13drop_in_place17hd07edd9179718de5E
	jmp	LBB111_1
LBB111_4:
	jmp	LBB111_3
LBB111_5:
	.loc	21 0 5 is_stmt 0
	xorl	%eax, %eax
	movl	%eax, %ecx
	movl	-92(%rbp), %eax
Ltmp727:
	.loc	21 2002 29 is_stmt 1
	movl	%eax, -4(%rbp)
	movl	-4(%rbp), %edx
	movl	%edx, -64(%rbp)
	.loc	21 2002 19 is_stmt 0
	cmpl	$0, -64(%rbp)
	movl	$1, %esi
	cmovbeq	%rcx, %rsi
	cmpq	$1, %rsi
	je	LBB111_7
Ltmp716:
	.loc	21 0 19
	leaq	-64(%rbp), %rdi
	.loc	21 2004 9 is_stmt 1
	callq	__ZN4core3ptr13drop_in_place17h9cc55ad69e96dfb6E
Ltmp717:
	jmp	LBB111_9
LBB111_7:
	.loc	21 2002 24
	movl	-64(%rbp), %eax
	movl	%eax, -56(%rbp)
Ltmp728:
	.loc	21 2003 23
	movb	$0, -33(%rbp)
	.loc	21 2003 30 is_stmt 0
	movl	-56(%rbp), %eax
	movl	%eax, -40(%rbp)
	.loc	21 2003 21
	movl	-40(%rbp), %eax
	movl	%eax, -48(%rbp)
	movl	-48(%rbp), %esi
Ltmp719:
	leaq	-80(%rbp), %rdi
	callq	__ZN4core3ops8function5impls79_$LT$impl$u20$core..ops..function..FnMut$LT$A$GT$$u20$for$u20$$RF$mut$u20$F$GT$8call_mut17h15ae85637ef79488E
Ltmp720:
	jmp	LBB111_8
LBB111_8:
	.loc	21 2003 13
	movb	$1, -33(%rbp)
Ltmp729:
	.loc	21 2002 9 is_stmt 1
	jmp	LBB111_2
LBB111_9:
	.loc	21 2005 9
	movb	$0, -33(%rbp)
Ltmp730:
	.loc	21 2006 5
	movb	$0, -33(%rbp)
	leaq	-88(%rbp), %rdi
	callq	__ZN4core3ptr13drop_in_place17hd07edd9179718de5E
	.loc	21 2006 6 is_stmt 0
	addq	$96, %rsp
	popq	%rbp
	retq
LBB111_12:
	.loc	21 2006 5
	movb	$0, -33(%rbp)
	jmp	LBB111_4
LBB111_13:
	testb	$1, -33(%rbp)
	jne	LBB111_12
	jmp	LBB111_4
LBB111_14:
Ltmp731:
	.loc	21 2004 9 is_stmt 1
	jmp	LBB111_13
Ltmp732:
LBB111_15:
Ltmp718:
	.loc	21 0 9 is_stmt 0
	movq	%rax, -24(%rbp)
	movl	%edx, -16(%rbp)
	jmp	LBB111_13
LBB111_16:
Ltmp721:
	movq	%rax, -24(%rbp)
	movl	%edx, -16(%rbp)
	jmp	LBB111_14
Lfunc_end111:
	.cfi_endproc
	.section	__TEXT,__gcc_except_tab
	.p2align	2
GCC_except_table111:
Lexception18:
	.byte	255
	.byte	255
	.byte	1
	.uleb128 Lcst_end18-Lcst_begin18
Lcst_begin18:
	.uleb128 Lfunc_begin111-Lfunc_begin111
	.uleb128 Ltmp714-Lfunc_begin111
	.byte	0
	.byte	0
	.uleb128 Ltmp714-Lfunc_begin111
	.uleb128 Ltmp715-Ltmp714
	.uleb128 Ltmp718-Lfunc_begin111
	.byte	0
	.uleb128 Ltmp715-Lfunc_begin111
	.uleb128 Ltmp716-Ltmp715
	.byte	0
	.byte	0
	.uleb128 Ltmp716-Lfunc_begin111
	.uleb128 Ltmp717-Ltmp716
	.uleb128 Ltmp718-Lfunc_begin111
	.byte	0
	.uleb128 Ltmp719-Lfunc_begin111
	.uleb128 Ltmp720-Ltmp719
	.uleb128 Ltmp721-Lfunc_begin111
	.byte	0
	.uleb128 Ltmp720-Lfunc_begin111
	.uleb128 Lfunc_end111-Ltmp720
	.byte	0
	.byte	0
Lcst_end18:
	.p2align	2

	.section	__TEXT,__text,regular,pure_instructions
	.globl	__ZN4core4iter6traits8iterator8Iterator4fuse17h7bf8b8d616f0968fE
	.p2align	4, 0x90
__ZN4core4iter6traits8iterator8Iterator4fuse17h7bf8b8d616f0968fE:
Lfunc_begin112:
	.loc	21 1400 0 is_stmt 1
	.cfi_startproc
	pushq	%rbp
	.cfi_def_cfa_offset 16
	.cfi_offset %rbp, -16
	movq	%rsp, %rbp
	.cfi_def_cfa_register %rbp
	subq	$64, %rsp
	movq	%rdi, %rax
Ltmp733:
	.loc	21 1404 19 prologue_end
	leaq	-40(%rbp), %rcx
	movq	%rcx, %rdx
	movq	%rdi, -48(%rbp)
	movq	%rdx, %rdi
	movl	$40, %edx
	movq	%rax, -56(%rbp)
	movq	%rcx, -64(%rbp)
	callq	_memcpy
Ltmp734:
	.loc	21 0 19 is_stmt 0
	movq	-48(%rbp), %rdi
	movq	-64(%rbp), %rsi
	.loc	21 1404 9
	callq	__ZN4core4iter8adapters4fuse13Fuse$LT$I$GT$3new17h0f61b172dc88c56bE
	.loc	21 0 9
	movq	-56(%rbp), %rax
	.loc	21 1405 6 is_stmt 1
	addq	$64, %rsp
	popq	%rbp
	retq
Ltmp735:
Lfunc_end112:
	.cfi_endproc

	.globl	__ZN4core4iter6traits8iterator8Iterator5chain17he260cbddf4b25baaE
	.p2align	4, 0x90
__ZN4core4iter6traits8iterator8Iterator5chain17he260cbddf4b25baaE:
Lfunc_begin113:
	.loc	21 456 0
	.cfi_startproc
	.cfi_personality 155, _rust_eh_personality
	.cfi_lsda 16, Lexception19
	pushq	%rbp
	.cfi_def_cfa_offset 16
	.cfi_offset %rbp, -16
	movq	%rsp, %rbp
	.cfi_def_cfa_register %rbp
	subq	$144, %rsp
	movq	%rdi, %rax
	movl	%esi, -116(%rbp)
	movl	-116(%rbp), %ecx
	movl	%ecx, -120(%rbp)
Ltmp741:
	.loc	21 461 20 prologue_end
	movb	$0, -17(%rbp)
	movb	$1, -17(%rbp)
	movl	-120(%rbp), %ecx
	movl	%ecx, -112(%rbp)
	.loc	21 461 26 is_stmt 0
	movq	32(%rdx), %r8
	movq	%r8, -32(%rbp)
	movq	24(%rdx), %r8
	movq	%r8, -40(%rbp)
	movq	16(%rdx), %r8
	movq	%r8, -48(%rbp)
	movq	(%rdx), %r8
	movq	8(%rdx), %rdx
Ltmp742:
	movq	%rdx, -56(%rbp)
	movq	%r8, -64(%rbp)
Ltmp736:
	leaq	-104(%rbp), %rdx
	leaq	-64(%rbp), %rsi
	movq	%rdi, -128(%rbp)
	movq	%rdx, %rdi
	movq	%rax, -136(%rbp)
	callq	__ZN63_$LT$I$u20$as$u20$core..iter..traits..collect..IntoIterator$GT$9into_iter17h24255d90f887d64fE
Ltmp737:
	jmp	LBB113_1
LBB113_1:
	.loc	21 461 9
	movb	$0, -17(%rbp)
	movl	-112(%rbp), %esi
Ltmp738:
	leaq	-104(%rbp), %rdx
	movq	-128(%rbp), %rdi
	callq	__ZN4core4iter8adapters5chain18Chain$LT$A$C$B$GT$3new17h515409e23204523bE
Ltmp739:
	jmp	LBB113_3
LBB113_2:
	.loc	21 456 5 is_stmt 1
	movq	-16(%rbp), %rdi
	callq	__Unwind_Resume
	ud2
LBB113_3:
	.loc	21 461 43
	movb	$0, -17(%rbp)
	movq	-136(%rbp), %rax
	.loc	21 462 6
	addq	$144, %rsp
	popq	%rbp
	retq
LBB113_4:
	.loc	21 461 43
	movb	$0, -17(%rbp)
	leaq	-112(%rbp), %rdi
	callq	__ZN4core3ptr13drop_in_place17hd07edd9179718de5E
	jmp	LBB113_2
LBB113_5:
	testb	$1, -17(%rbp)
	jne	LBB113_4
	jmp	LBB113_2
Ltmp743:
LBB113_6:
Ltmp740:
	.loc	21 0 43 is_stmt 0
	movq	%rax, -16(%rbp)
	movl	%edx, -8(%rbp)
	jmp	LBB113_5
Lfunc_end113:
	.cfi_endproc
	.section	__TEXT,__gcc_except_tab
	.p2align	2
GCC_except_table113:
Lexception19:
	.byte	255
	.byte	255
	.byte	1
	.uleb128 Lcst_end19-Lcst_begin19
Lcst_begin19:
	.uleb128 Ltmp736-Lfunc_begin113
	.uleb128 Ltmp739-Ltmp736
	.uleb128 Ltmp740-Lfunc_begin113
	.byte	0
	.uleb128 Ltmp739-Lfunc_begin113
	.uleb128 Lfunc_end113-Ltmp739
	.byte	0
	.byte	0
Lcst_end19:
	.p2align	2

	.section	__TEXT,__text,regular,pure_instructions
	.globl	__ZN4core4iter6traits8iterator8Iterator7collect17hb980d4603ebfbda5E
	.p2align	4, 0x90
__ZN4core4iter6traits8iterator8Iterator7collect17hb980d4603ebfbda5E:
Lfunc_begin114:
	.loc	21 1648 0 is_stmt 1
	.cfi_startproc
	pushq	%rbp
	.cfi_def_cfa_offset 16
	.cfi_offset %rbp, -16
	movq	%rsp, %rbp
	.cfi_def_cfa_register %rbp
	subq	$80, %rsp
Ltmp744:
	.loc	21 1652 33 prologue_end
	leaq	-56(%rbp), %rax
	movq	%rax, %rcx
	movq	%rdi, -72(%rbp)
Ltmp745:
	movq	%rcx, %rdi
	movq	-72(%rbp), %rsi
Ltmp746:
	movl	$48, %edx
	movq	%rax, -80(%rbp)
	callq	_memcpy
Ltmp747:
	.loc	21 0 33 is_stmt 0
	movq	-80(%rbp), %rdi
	.loc	21 1652 9
	callq	__ZN116_$LT$proc_macro..TokenStream$u20$as$u20$core..iter..traits..collect..FromIterator$LT$proc_macro..TokenStream$GT$$GT$9from_iter17ha2c924c0eeaaa42eE
	movl	%eax, -4(%rbp)
	movl	-4(%rbp), %eax
	movl	%eax, -64(%rbp)
	.loc	21 1653 6 is_stmt 1
	movl	-64(%rbp), %eax
	addq	$80, %rsp
	popq	%rbp
	retq
Ltmp748:
Lfunc_end114:
	.cfi_endproc

	.globl	__ZN4core4iter6traits8iterator8Iterator7flatten17h316b44238f6eeef7E
	.p2align	4, 0x90
__ZN4core4iter6traits8iterator8Iterator7flatten17h316b44238f6eeef7E:
Lfunc_begin115:
	.loc	21 1337 0
	.cfi_startproc
	pushq	%rbp
	.cfi_def_cfa_offset 16
	.cfi_offset %rbp, -16
	movq	%rsp, %rbp
	.cfi_def_cfa_register %rbp
	subq	$64, %rsp
	movq	%rdi, %rax
Ltmp749:
	.loc	21 1342 22 prologue_end
	leaq	-40(%rbp), %rcx
	movq	%rcx, %rdx
	movq	%rdi, -48(%rbp)
	movq	%rdx, %rdi
	movl	$40, %edx
	movq	%rax, -56(%rbp)
	movq	%rcx, -64(%rbp)
	callq	_memcpy
Ltmp750:
	.loc	21 0 22 is_stmt 0
	movq	-48(%rbp), %rdi
	movq	-64(%rbp), %rsi
	.loc	21 1342 9
	callq	__ZN4core4iter8adapters7flatten16Flatten$LT$I$GT$3new17hecc3b076bd5b3600E
	.loc	21 0 9
	movq	-56(%rbp), %rax
	.loc	21 1343 6 is_stmt 1
	addq	$64, %rsp
	popq	%rbp
	retq
Ltmp751:
Lfunc_end115:
	.cfi_endproc

	.globl	__ZN4core4iter6traits8iterator8Iterator8find_map17h544bb60287b565b9E
	.p2align	4, 0x90
__ZN4core4iter6traits8iterator8Iterator8find_map17h544bb60287b565b9E:
Lfunc_begin116:
	.loc	21 2231 0
	.cfi_startproc
	pushq	%rbp
	.cfi_def_cfa_offset 16
	.cfi_offset %rbp, -16
	movq	%rsp, %rbp
	.cfi_def_cfa_register %rbp
	subq	$64, %rsp
	movq	%rdi, -32(%rbp)
	movq	%rsi, -24(%rbp)
	movq	%rdi, -56(%rbp)
Ltmp752:
	.loc	21 2244 27 prologue_end
	movq	%rsi, %rdi
	callq	__ZN4core4iter6traits8iterator8Iterator8find_map5check17ha87bf0a1561a4278E
	movq	%rax, -64(%rbp)
	.loc	21 0 27 is_stmt 0
	movq	-56(%rbp), %rdi
	movq	-64(%rbp), %rsi
	.loc	21 2244 9
	callq	__ZN4core4iter6traits8iterator8Iterator8try_fold17h558fdf692125480dE
	movq	%rax, -16(%rbp)
	movq	-16(%rbp), %rax
	movq	%rax, -40(%rbp)
	movq	-40(%rbp), %rdi
	callq	__ZN4core4iter22LoopState$LT$C$C$B$GT$11break_value17h3d10603641e2afe8E
	movq	%rax, -8(%rbp)
	movq	-8(%rbp), %rax
	movq	%rax, -48(%rbp)
	.loc	21 2245 6 is_stmt 1
	movq	-48(%rbp), %rax
	addq	$64, %rsp
	popq	%rbp
	retq
Ltmp753:
Lfunc_end116:
	.cfi_endproc

	.globl	__ZN4core4iter6traits8iterator8Iterator8find_map5check17ha87bf0a1561a4278E
	.p2align	4, 0x90
__ZN4core4iter6traits8iterator8Iterator8find_map5check17ha87bf0a1561a4278E:
Lfunc_begin117:
	.loc	21 2237 0
	.cfi_startproc
	pushq	%rbp
	.cfi_def_cfa_offset 16
	.cfi_offset %rbp, -16
	movq	%rsp, %rbp
	.cfi_def_cfa_register %rbp
	subq	$16, %rsp
	movq	%rdi, -8(%rbp)
Ltmp754:
	.loc	21 2238 13 prologue_end
	movq	%rdi, -16(%rbp)
	.loc	21 2242 10
	movq	-16(%rbp), %rax
	addq	$16, %rsp
	popq	%rbp
	retq
Ltmp755:
Lfunc_end117:
	.cfi_endproc

	.globl	__ZN4core4iter6traits8iterator8Iterator8find_map5check28_$u7b$$u7b$closure$u7d$$u7d$17h5fa1072d3031239cE
	.p2align	4, 0x90
__ZN4core4iter6traits8iterator8Iterator8find_map5check28_$u7b$$u7b$closure$u7d$$u7d$17h5fa1072d3031239cE:
Lfunc_begin118:
	.loc	21 2238 0
	.cfi_startproc
	pushq	%rbp
	.cfi_def_cfa_offset 16
	.cfi_offset %rbp, -16
	movq	%rsp, %rbp
	.cfi_def_cfa_register %rbp
	subq	$192, %rsp
	movq	%rdi, -24(%rbp)
Ltmp756:
	.loc	21 2238 34 prologue_end
	leaq	-88(%rbp), %rax
	movq	%rax, %rcx
	movq	%rdi, -160(%rbp)
	movq	%rcx, %rdi
	movl	$48, %ecx
	movq	%rcx, %rdx
	movq	%rax, -168(%rbp)
	movq	%rcx, -176(%rbp)
	callq	_memcpy
Ltmp757:
	.loc	21 2238 32 is_stmt 0
	leaq	-136(%rbp), %rax
	movq	%rax, %rcx
	movq	-168(%rbp), %rdx
	movq	%rcx, %rdi
	movq	%rdx, %rsi
	movq	-176(%rbp), %rdx
	movq	%rax, -184(%rbp)
	callq	_memcpy
	movq	-184(%rbp), %rax
	movq	-160(%rbp), %rdi
	movq	%rax, %rsi
	callq	__ZN4core3ops8function5impls79_$LT$impl$u20$core..ops..function..FnMut$LT$A$GT$$u20$for$u20$$RF$mut$u20$F$GT$8call_mut17h54d35092249f0df2E
	movq	%rax, -8(%rbp)
	movq	-8(%rbp), %rax
	movq	%rax, -144(%rbp)
	.loc	21 2239 17 is_stmt 1
	movl	-144(%rbp), %eax
	movl	%eax, %ecx
	testq	%rcx, %rcx
	je	LBB118_2
	jmp	LBB118_6
LBB118_6:
	jmp	LBB118_4
LBB118_2:
	.loc	21 2240 25
	movl	$0, -152(%rbp)
	.loc	21 2238 26
	jmp	LBB118_5
	.loc	21 2238 32 is_stmt 0
	ud2
LBB118_4:
	.loc	21 2239 22 is_stmt 1
	movl	-140(%rbp), %eax
	movl	%eax, -40(%rbp)
Ltmp758:
	.loc	21 2239 45 is_stmt 0
	movl	-40(%rbp), %eax
	movl	%eax, -32(%rbp)
	.loc	21 2239 28
	movl	-32(%rbp), %eax
	movl	%eax, -148(%rbp)
	movl	$1, -152(%rbp)
Ltmp759:
LBB118_5:
	.loc	21 2241 14 is_stmt 1
	movq	-152(%rbp), %rax
	addq	$192, %rsp
	popq	%rbp
	retq
Ltmp760:
Lfunc_end118:
	.cfi_endproc

	.globl	__ZN4core4iter6traits8iterator8Iterator8for_each17h9554b2c18a97c045E
	.p2align	4, 0x90
__ZN4core4iter6traits8iterator8Iterator8for_each17h9554b2c18a97c045E:
Lfunc_begin119:
	.loc	21 639 0
	.cfi_startproc
	.cfi_personality 155, _rust_eh_personality
	.cfi_lsda 16, Lexception20
	pushq	%rbp
	.cfi_def_cfa_offset 16
	.cfi_offset %rbp, -16
	movq	%rsp, %rbp
	.cfi_def_cfa_register %rbp
	subq	$96, %rsp
	movq	%rsi, -24(%rbp)
Ltmp766:
	.loc	21 649 9 prologue_end
	movb	$0, -25(%rbp)
	movb	$1, -25(%rbp)
	movq	40(%rdi), %rax
	movq	%rax, -40(%rbp)
	movq	32(%rdi), %rax
	movq	%rax, -48(%rbp)
	movq	24(%rdi), %rax
	movq	%rax, -56(%rbp)
	movq	16(%rdi), %rax
	movq	%rax, -64(%rbp)
	movq	(%rdi), %rax
	movq	8(%rdi), %rcx
	movq	%rcx, -72(%rbp)
	movq	%rax, -80(%rbp)
Ltmp761:
	.loc	21 649 23 is_stmt 0
	movq	%rsi, %rdi
Ltmp767:
	callq	__ZN4core4iter6traits8iterator8Iterator8for_each4call17ha36049b04bc3e03cE
Ltmp762:
	movq	%rax, -88(%rbp)
	jmp	LBB119_1
LBB119_1:
	.loc	21 649 9
	movb	$0, -25(%rbp)
Ltmp763:
	leaq	-80(%rbp), %rdi
	movq	-88(%rbp), %rsi
	callq	__ZN4core4iter6traits8iterator8Iterator4fold17h045357f87374b9a6E
Ltmp764:
	jmp	LBB119_3
LBB119_2:
	.loc	21 639 5 is_stmt 1
	movq	-16(%rbp), %rdi
	callq	__Unwind_Resume
	ud2
LBB119_3:
	.loc	21 649 30
	movb	$0, -25(%rbp)
	.loc	21 650 6
	addq	$96, %rsp
	popq	%rbp
	retq
LBB119_4:
	.loc	21 649 30
	movb	$0, -25(%rbp)
	leaq	-80(%rbp), %rdi
	callq	__ZN4core3ptr13drop_in_place17heddd33818f1da180E
	jmp	LBB119_2
LBB119_5:
	testb	$1, -25(%rbp)
	jne	LBB119_4
	jmp	LBB119_2
Ltmp768:
LBB119_6:
Ltmp765:
	.loc	21 0 30 is_stmt 0
	movq	%rax, -16(%rbp)
	movl	%edx, -8(%rbp)
	jmp	LBB119_5
Lfunc_end119:
	.cfi_endproc
	.section	__TEXT,__gcc_except_tab
	.p2align	2
GCC_except_table119:
Lexception20:
	.byte	255
	.byte	255
	.byte	1
	.uleb128 Lcst_end20-Lcst_begin20
Lcst_begin20:
	.uleb128 Ltmp761-Lfunc_begin119
	.uleb128 Ltmp764-Ltmp761
	.uleb128 Ltmp765-Lfunc_begin119
	.byte	0
	.uleb128 Ltmp764-Lfunc_begin119
	.uleb128 Lfunc_end119-Ltmp764
	.byte	0
	.byte	0
Lcst_end20:
	.p2align	2

	.section	__TEXT,__text,regular,pure_instructions
	.globl	__ZN4core4iter6traits8iterator8Iterator8for_each17ha13ec9b9eb865e01E
	.p2align	4, 0x90
__ZN4core4iter6traits8iterator8Iterator8for_each17ha13ec9b9eb865e01E:
Lfunc_begin120:
	.loc	21 639 0 is_stmt 1
	.cfi_startproc
	.cfi_personality 155, _rust_eh_personality
	.cfi_lsda 16, Lexception21
	pushq	%rbp
	.cfi_def_cfa_offset 16
	.cfi_offset %rbp, -16
	movq	%rsp, %rbp
	.cfi_def_cfa_register %rbp
	subq	$96, %rsp
	movq	%rsi, -24(%rbp)
Ltmp774:
	.loc	21 649 9 prologue_end
	movb	$0, -25(%rbp)
	movb	$1, -25(%rbp)
	movq	40(%rdi), %rax
	movq	%rax, -40(%rbp)
	movq	32(%rdi), %rax
	movq	%rax, -48(%rbp)
	movq	24(%rdi), %rax
	movq	%rax, -56(%rbp)
	movq	16(%rdi), %rax
	movq	%rax, -64(%rbp)
	movq	(%rdi), %rax
	movq	8(%rdi), %rcx
	movq	%rcx, -72(%rbp)
	movq	%rax, -80(%rbp)
Ltmp769:
	.loc	21 649 23 is_stmt 0
	movq	%rsi, %rdi
Ltmp775:
	callq	__ZN4core4iter6traits8iterator8Iterator8for_each4call17hde97ae9381c175d5E
Ltmp770:
	movq	%rax, -88(%rbp)
	jmp	LBB120_1
LBB120_1:
	.loc	21 649 9
	movb	$0, -25(%rbp)
Ltmp771:
	leaq	-80(%rbp), %rdi
	movq	-88(%rbp), %rsi
	callq	__ZN106_$LT$core..iter..adapters..chain..Chain$LT$A$C$B$GT$$u20$as$u20$core..iter..traits..iterator..Iterator$GT$4fold17h6a91eaeb60863451E
Ltmp772:
	jmp	LBB120_3
LBB120_2:
	.loc	21 639 5 is_stmt 1
	movq	-16(%rbp), %rdi
	callq	__Unwind_Resume
	ud2
LBB120_3:
	.loc	21 649 30
	movb	$0, -25(%rbp)
	.loc	21 650 6
	addq	$96, %rsp
	popq	%rbp
	retq
LBB120_4:
	.loc	21 649 30
	movb	$0, -25(%rbp)
	leaq	-80(%rbp), %rdi
	callq	__ZN4core3ptr13drop_in_place17hef5523228b75be7fE
	jmp	LBB120_2
LBB120_5:
	testb	$1, -25(%rbp)
	jne	LBB120_4
	jmp	LBB120_2
Ltmp776:
LBB120_6:
Ltmp773:
	.loc	21 0 30 is_stmt 0
	movq	%rax, -16(%rbp)
	movl	%edx, -8(%rbp)
	jmp	LBB120_5
Lfunc_end120:
	.cfi_endproc
	.section	__TEXT,__gcc_except_tab
	.p2align	2
GCC_except_table120:
Lexception21:
	.byte	255
	.byte	255
	.byte	1
	.uleb128 Lcst_end21-Lcst_begin21
Lcst_begin21:
	.uleb128 Ltmp769-Lfunc_begin120
	.uleb128 Ltmp772-Ltmp769
	.uleb128 Ltmp773-Lfunc_begin120
	.byte	0
	.uleb128 Ltmp772-Lfunc_begin120
	.uleb128 Lfunc_end120-Ltmp772
	.byte	0
	.byte	0
Lcst_end21:
	.p2align	2

	.section	__TEXT,__text,regular,pure_instructions
	.globl	__ZN4core4iter6traits8iterator8Iterator8for_each17hb78d3d7b169e6879E
	.p2align	4, 0x90
__ZN4core4iter6traits8iterator8Iterator8for_each17hb78d3d7b169e6879E:
Lfunc_begin121:
	.loc	21 639 0 is_stmt 1
	.cfi_startproc
	.cfi_personality 155, _rust_eh_personality
	.cfi_lsda 16, Lexception22
	pushq	%rbp
	.cfi_def_cfa_offset 16
	.cfi_offset %rbp, -16
	movq	%rsp, %rbp
	.cfi_def_cfa_register %rbp
	subq	$80, %rsp
	movq	%rsi, -24(%rbp)
Ltmp782:
	.loc	21 649 9 prologue_end
	movb	$0, -25(%rbp)
	movb	$1, -25(%rbp)
	movq	32(%rdi), %rax
	movq	%rax, -40(%rbp)
	movq	24(%rdi), %rax
	movq	%rax, -48(%rbp)
	movq	16(%rdi), %rax
	movq	%rax, -56(%rbp)
	movq	(%rdi), %rax
	movq	8(%rdi), %rcx
	movq	%rcx, -64(%rbp)
	movq	%rax, -72(%rbp)
Ltmp777:
	.loc	21 649 23 is_stmt 0
	movq	%rsi, %rdi
Ltmp783:
	callq	__ZN4core4iter6traits8iterator8Iterator8for_each4call17hc499a51a06200f1eE
Ltmp778:
	movq	%rax, -80(%rbp)
	jmp	LBB121_1
LBB121_1:
	.loc	21 649 9
	movb	$0, -25(%rbp)
Ltmp779:
	leaq	-72(%rbp), %rdi
	movq	-80(%rbp), %rsi
	callq	__ZN4core4iter6traits8iterator8Iterator4fold17h486196880e276775E
Ltmp780:
	jmp	LBB121_3
LBB121_2:
	.loc	21 639 5 is_stmt 1
	movq	-16(%rbp), %rdi
	callq	__Unwind_Resume
	ud2
LBB121_3:
	.loc	21 649 30
	movb	$0, -25(%rbp)
	.loc	21 650 6
	addq	$80, %rsp
	popq	%rbp
	retq
LBB121_4:
	.loc	21 649 30
	movb	$0, -25(%rbp)
	leaq	-72(%rbp), %rdi
	callq	__ZN4core3ptr13drop_in_place17h0ea118e1ac561badE
	jmp	LBB121_2
LBB121_5:
	testb	$1, -25(%rbp)
	jne	LBB121_4
	jmp	LBB121_2
Ltmp784:
LBB121_6:
Ltmp781:
	.loc	21 0 30 is_stmt 0
	movq	%rax, -16(%rbp)
	movl	%edx, -8(%rbp)
	jmp	LBB121_5
Lfunc_end121:
	.cfi_endproc
	.section	__TEXT,__gcc_except_tab
	.p2align	2
GCC_except_table121:
Lexception22:
	.byte	255
	.byte	255
	.byte	1
	.uleb128 Lcst_end22-Lcst_begin22
Lcst_begin22:
	.uleb128 Ltmp777-Lfunc_begin121
	.uleb128 Ltmp780-Ltmp777
	.uleb128 Ltmp781-Lfunc_begin121
	.byte	0
	.uleb128 Ltmp780-Lfunc_begin121
	.uleb128 Lfunc_end121-Ltmp780
	.byte	0
	.byte	0
Lcst_end22:
	.p2align	2

	.section	__TEXT,__text,regular,pure_instructions
	.globl	__ZN4core4iter6traits8iterator8Iterator8for_each17he0ba2eb3ddae136aE
	.p2align	4, 0x90
__ZN4core4iter6traits8iterator8Iterator8for_each17he0ba2eb3ddae136aE:
Lfunc_begin122:
	.loc	21 639 0 is_stmt 1
	.cfi_startproc
	.cfi_personality 155, _rust_eh_personality
	.cfi_lsda 16, Lexception23
	pushq	%rbp
	.cfi_def_cfa_offset 16
	.cfi_offset %rbp, -16
	movq	%rsp, %rbp
	.cfi_def_cfa_register %rbp
	subq	$96, %rsp
	movq	%rsi, -24(%rbp)
Ltmp790:
	.loc	21 649 9 prologue_end
	movb	$0, -25(%rbp)
	movb	$1, -25(%rbp)
	movq	40(%rdi), %rax
	movq	%rax, -40(%rbp)
	movq	32(%rdi), %rax
	movq	%rax, -48(%rbp)
	movq	24(%rdi), %rax
	movq	%rax, -56(%rbp)
	movq	16(%rdi), %rax
	movq	%rax, -64(%rbp)
	movq	(%rdi), %rax
	movq	8(%rdi), %rcx
	movq	%rcx, -72(%rbp)
	movq	%rax, -80(%rbp)
Ltmp785:
	.loc	21 649 23 is_stmt 0
	movq	%rsi, %rdi
Ltmp791:
	callq	__ZN4core4iter6traits8iterator8Iterator8for_each4call17h93f3ac1a5adecafeE
Ltmp786:
	movq	%rax, -88(%rbp)
	jmp	LBB122_1
LBB122_1:
	.loc	21 649 9
	movb	$0, -25(%rbp)
Ltmp787:
	leaq	-80(%rbp), %rdi
	movq	-88(%rbp), %rsi
	callq	__ZN97_$LT$core..iter..adapters..Map$LT$I$C$F$GT$$u20$as$u20$core..iter..traits..iterator..Iterator$GT$4fold17hfaf7622b0c24450aE
Ltmp788:
	jmp	LBB122_3
LBB122_2:
	.loc	21 639 5 is_stmt 1
	movq	-16(%rbp), %rdi
	callq	__Unwind_Resume
	ud2
LBB122_3:
	.loc	21 649 30
	movb	$0, -25(%rbp)
	.loc	21 650 6
	addq	$96, %rsp
	popq	%rbp
	retq
LBB122_4:
	.loc	21 649 30
	movb	$0, -25(%rbp)
	leaq	-80(%rbp), %rdi
	callq	__ZN4core3ptr13drop_in_place17h71cf302d482b025cE
	jmp	LBB122_2
LBB122_5:
	testb	$1, -25(%rbp)
	jne	LBB122_4
	jmp	LBB122_2
Ltmp792:
LBB122_6:
Ltmp789:
	.loc	21 0 30 is_stmt 0
	movq	%rax, -16(%rbp)
	movl	%edx, -8(%rbp)
	jmp	LBB122_5
Lfunc_end122:
	.cfi_endproc
	.section	__TEXT,__gcc_except_tab
	.p2align	2
GCC_except_table122:
Lexception23:
	.byte	255
	.byte	255
	.byte	1
	.uleb128 Lcst_end23-Lcst_begin23
Lcst_begin23:
	.uleb128 Ltmp785-Lfunc_begin122
	.uleb128 Ltmp788-Ltmp785
	.uleb128 Ltmp789-Lfunc_begin122
	.byte	0
	.uleb128 Ltmp788-Lfunc_begin122
	.uleb128 Lfunc_end122-Ltmp788
	.byte	0
	.byte	0
Lcst_end23:
	.p2align	2

	.section	__TEXT,__text,regular,pure_instructions
	.globl	__ZN4core4iter6traits8iterator8Iterator8for_each17hf002f299a07aaf6dE
	.p2align	4, 0x90
__ZN4core4iter6traits8iterator8Iterator8for_each17hf002f299a07aaf6dE:
Lfunc_begin123:
	.loc	21 639 0 is_stmt 1
	.cfi_startproc
	.cfi_personality 155, _rust_eh_personality
	.cfi_lsda 16, Lexception24
	pushq	%rbp
	.cfi_def_cfa_offset 16
	.cfi_offset %rbp, -16
	movq	%rsp, %rbp
	.cfi_def_cfa_register %rbp
	subq	$128, %rsp
Ltmp798:
	.loc	21 649 9 prologue_end
	movb	$0, -17(%rbp)
	movb	$1, -17(%rbp)
	movq	40(%rdi), %rax
	movq	%rax, -80(%rbp)
	movq	32(%rdi), %rax
	movq	%rax, -88(%rbp)
	movq	24(%rdi), %rax
	movq	%rax, -96(%rbp)
	movq	16(%rdi), %rax
	movq	%rax, -104(%rbp)
	movq	(%rdi), %rax
	movq	8(%rdi), %rcx
	movq	%rcx, -112(%rbp)
	movq	%rax, -120(%rbp)
	.loc	21 649 28 is_stmt 0
	movq	16(%rsi), %rax
	movq	%rax, -32(%rbp)
	movq	(%rsi), %rax
	movq	8(%rsi), %rcx
	movq	%rcx, -40(%rbp)
	movq	%rax, -48(%rbp)
Ltmp793:
	leaq	-72(%rbp), %rdi
Ltmp799:
	.loc	21 0 28
	leaq	-48(%rbp), %rsi
Ltmp800:
	.loc	21 649 23
	callq	__ZN4core4iter6traits8iterator8Iterator8for_each4call17h72e069a6353aaf08E
Ltmp794:
	jmp	LBB123_1
LBB123_1:
	.loc	21 649 9
	movb	$0, -17(%rbp)
Ltmp795:
	leaq	-120(%rbp), %rdi
	leaq	-72(%rbp), %rsi
	callq	__ZN97_$LT$core..iter..adapters..Map$LT$I$C$F$GT$$u20$as$u20$core..iter..traits..iterator..Iterator$GT$4fold17h00e8895dae553614E
Ltmp796:
	jmp	LBB123_3
LBB123_2:
	.loc	21 639 5 is_stmt 1
	movq	-16(%rbp), %rdi
	callq	__Unwind_Resume
	ud2
LBB123_3:
	.loc	21 649 30
	movb	$0, -17(%rbp)
	.loc	21 650 6
	addq	$128, %rsp
	popq	%rbp
	retq
LBB123_4:
	.loc	21 649 30
	movb	$0, -17(%rbp)
	leaq	-120(%rbp), %rdi
	callq	__ZN4core3ptr13drop_in_place17had68a94e709b5adbE
	jmp	LBB123_2
LBB123_5:
	testb	$1, -17(%rbp)
	jne	LBB123_4
	jmp	LBB123_2
Ltmp801:
LBB123_6:
Ltmp797:
	.loc	21 0 30 is_stmt 0
	movq	%rax, -16(%rbp)
	movl	%edx, -8(%rbp)
	jmp	LBB123_5
Lfunc_end123:
	.cfi_endproc
	.section	__TEXT,__gcc_except_tab
	.p2align	2
GCC_except_table123:
Lexception24:
	.byte	255
	.byte	255
	.byte	1
	.uleb128 Lcst_end24-Lcst_begin24
Lcst_begin24:
	.uleb128 Ltmp793-Lfunc_begin123
	.uleb128 Ltmp796-Ltmp793
	.uleb128 Ltmp797-Lfunc_begin123
	.byte	0
	.uleb128 Ltmp796-Lfunc_begin123
	.uleb128 Lfunc_end123-Ltmp796
	.byte	0
	.byte	0
Lcst_end24:
	.p2align	2

	.section	__TEXT,__text,regular,pure_instructions
	.globl	__ZN4core4iter6traits8iterator8Iterator8for_each4call17h72e069a6353aaf08E
	.p2align	4, 0x90
__ZN4core4iter6traits8iterator8Iterator8for_each4call17h72e069a6353aaf08E:
Lfunc_begin124:
	.loc	21 645 0 is_stmt 1
	.cfi_startproc
	pushq	%rbp
	.cfi_def_cfa_offset 16
	.cfi_offset %rbp, -16
	movq	%rsp, %rbp
	.cfi_def_cfa_register %rbp
	movq	%rdi, %rax
Ltmp802:
	.loc	21 646 13 prologue_end
	movq	(%rsi), %rcx
	movq	%rcx, (%rdi)
	movq	8(%rsi), %rcx
	movq	%rcx, 8(%rdi)
	movq	16(%rsi), %rcx
	movq	%rcx, 16(%rdi)
	.loc	21 647 10
	popq	%rbp
	retq
Ltmp803:
Lfunc_end124:
	.cfi_endproc

	.globl	__ZN4core4iter6traits8iterator8Iterator8for_each4call17h93f3ac1a5adecafeE
	.p2align	4, 0x90
__ZN4core4iter6traits8iterator8Iterator8for_each4call17h93f3ac1a5adecafeE:
Lfunc_begin125:
	.loc	21 645 0
	.cfi_startproc
	pushq	%rbp
	.cfi_def_cfa_offset 16
	.cfi_offset %rbp, -16
	movq	%rsp, %rbp
	.cfi_def_cfa_register %rbp
	subq	$16, %rsp
	movq	%rdi, -8(%rbp)
Ltmp804:
	.loc	21 646 13 prologue_end
	movq	%rdi, -16(%rbp)
	.loc	21 647 10
	movq	-16(%rbp), %rax
	addq	$16, %rsp
	popq	%rbp
	retq
Ltmp805:
Lfunc_end125:
	.cfi_endproc

	.globl	__ZN4core4iter6traits8iterator8Iterator8for_each4call17ha36049b04bc3e03cE
	.p2align	4, 0x90
__ZN4core4iter6traits8iterator8Iterator8for_each4call17ha36049b04bc3e03cE:
Lfunc_begin126:
	.loc	21 645 0
	.cfi_startproc
	pushq	%rbp
	.cfi_def_cfa_offset 16
	.cfi_offset %rbp, -16
	movq	%rsp, %rbp
	.cfi_def_cfa_register %rbp
	subq	$16, %rsp
	movq	%rdi, -8(%rbp)
Ltmp806:
	.loc	21 646 13 prologue_end
	movq	%rdi, -16(%rbp)
	.loc	21 647 10
	movq	-16(%rbp), %rax
	addq	$16, %rsp
	popq	%rbp
	retq
Ltmp807:
Lfunc_end126:
	.cfi_endproc

	.globl	__ZN4core4iter6traits8iterator8Iterator8for_each4call17hc499a51a06200f1eE
	.p2align	4, 0x90
__ZN4core4iter6traits8iterator8Iterator8for_each4call17hc499a51a06200f1eE:
Lfunc_begin127:
	.loc	21 645 0
	.cfi_startproc
	pushq	%rbp
	.cfi_def_cfa_offset 16
	.cfi_offset %rbp, -16
	movq	%rsp, %rbp
	.cfi_def_cfa_register %rbp
	subq	$16, %rsp
	movq	%rdi, -8(%rbp)
Ltmp808:
	.loc	21 646 13 prologue_end
	movq	%rdi, -16(%rbp)
	.loc	21 647 10
	movq	-16(%rbp), %rax
	addq	$16, %rsp
	popq	%rbp
	retq
Ltmp809:
Lfunc_end127:
	.cfi_endproc

	.globl	__ZN4core4iter6traits8iterator8Iterator8for_each4call17hde97ae9381c175d5E
	.p2align	4, 0x90
__ZN4core4iter6traits8iterator8Iterator8for_each4call17hde97ae9381c175d5E:
Lfunc_begin128:
	.loc	21 645 0
	.cfi_startproc
	pushq	%rbp
	.cfi_def_cfa_offset 16
	.cfi_offset %rbp, -16
	movq	%rsp, %rbp
	.cfi_def_cfa_register %rbp
	subq	$16, %rsp
	movq	%rdi, -8(%rbp)
Ltmp810:
	.loc	21 646 13 prologue_end
	movq	%rdi, -16(%rbp)
	.loc	21 647 10
	movq	-16(%rbp), %rax
	addq	$16, %rsp
	popq	%rbp
	retq
Ltmp811:
Lfunc_end128:
	.cfi_endproc

	.globl	__ZN4core4iter6traits8iterator8Iterator8for_each4call28_$u7b$$u7b$closure$u7d$$u7d$17h09ab4b75f6e66296E
	.p2align	4, 0x90
__ZN4core4iter6traits8iterator8Iterator8for_each4call28_$u7b$$u7b$closure$u7d$$u7d$17h09ab4b75f6e66296E:
Lfunc_begin129:
	.loc	21 646 0
	.cfi_startproc
	pushq	%rbp
	.cfi_def_cfa_offset 16
	.cfi_offset %rbp, -16
	movq	%rsp, %rbp
	.cfi_def_cfa_register %rbp
	subq	$144, %rsp
	movq	%rdi, -16(%rbp)
Ltmp812:
	.loc	21 646 31 prologue_end
	leaq	-64(%rbp), %rax
	movq	%rax, %rcx
	movq	%rdi, -120(%rbp)
	movq	%rcx, %rdi
	movl	$48, %ecx
	movq	%rcx, %rdx
	movq	%rax, -128(%rbp)
	movq	%rcx, -136(%rbp)
	callq	_memcpy
Ltmp813:
	.loc	21 646 29 is_stmt 0
	leaq	-112(%rbp), %rax
	movq	%rax, %rcx
	movq	-128(%rbp), %rdx
	movq	%rcx, %rdi
	movq	%rdx, %rsi
	movq	-136(%rbp), %rdx
	movq	%rax, -144(%rbp)
	callq	_memcpy
	movq	-144(%rbp), %rax
	movq	-120(%rbp), %rdi
	movq	%rax, %rsi
	callq	__ZN120_$LT$proc_macro2..fallback..TokenStream$u20$as$u20$core..iter..traits..collect..Extend$LT$proc_macro2..TokenTree$GT$$GT$6extend28_$u7b$$u7b$closure$u7d$$u7d$17hbb8017f809c8ef0eE
	.loc	21 646 36
	addq	$144, %rsp
	popq	%rbp
	retq
Ltmp814:
Lfunc_end129:
	.cfi_endproc

	.globl	__ZN4core4iter6traits8iterator8Iterator8for_each4call28_$u7b$$u7b$closure$u7d$$u7d$17h8a839ece3f8f4964E
	.p2align	4, 0x90
__ZN4core4iter6traits8iterator8Iterator8for_each4call28_$u7b$$u7b$closure$u7d$$u7d$17h8a839ece3f8f4964E:
Lfunc_begin130:
	.loc	21 646 0 is_stmt 1
	.cfi_startproc
	pushq	%rbp
	.cfi_def_cfa_offset 16
	.cfi_offset %rbp, -16
	movq	%rsp, %rbp
	.cfi_def_cfa_register %rbp
	subq	$144, %rsp
	movq	%rdi, -16(%rbp)
Ltmp815:
	.loc	21 646 31 prologue_end
	leaq	-64(%rbp), %rax
	movq	%rax, %rcx
	movq	%rdi, -120(%rbp)
	movq	%rcx, %rdi
	movl	$48, %ecx
	movq	%rcx, %rdx
	movq	%rax, -128(%rbp)
	movq	%rcx, -136(%rbp)
	callq	_memcpy
Ltmp816:
	.loc	21 646 29 is_stmt 0
	leaq	-112(%rbp), %rax
	movq	%rax, %rcx
	movq	-128(%rbp), %rdx
	movq	%rcx, %rdi
	movq	%rdx, %rsi
	movq	-136(%rbp), %rdx
	movq	%rax, -144(%rbp)
	callq	_memcpy
	movq	-144(%rbp), %rax
	movq	-120(%rbp), %rdi
	movq	%rax, %rsi
	callq	__ZN120_$LT$proc_macro2..fallback..TokenStream$u20$as$u20$core..iter..traits..collect..Extend$LT$proc_macro2..TokenTree$GT$$GT$6extend28_$u7b$$u7b$closure$u7d$$u7d$17h992d3793f47d23adE
	.loc	21 646 36
	addq	$144, %rsp
	popq	%rbp
	retq
Ltmp817:
Lfunc_end130:
	.cfi_endproc

	.globl	__ZN4core4iter6traits8iterator8Iterator8for_each4call28_$u7b$$u7b$closure$u7d$$u7d$17h9d32927ec139e132E
	.p2align	4, 0x90
__ZN4core4iter6traits8iterator8Iterator8for_each4call28_$u7b$$u7b$closure$u7d$$u7d$17h9d32927ec139e132E:
Lfunc_begin131:
	.loc	21 646 0 is_stmt 1
	.cfi_startproc
	pushq	%rbp
	.cfi_def_cfa_offset 16
	.cfi_offset %rbp, -16
	movq	%rsp, %rbp
	.cfi_def_cfa_register %rbp
	subq	$48, %rsp
	movq	%rsi, -40(%rbp)
	movq	-40(%rbp), %rax
	movq	%rax, -48(%rbp)
	movq	%rdi, -16(%rbp)
Ltmp818:
	.loc	21 646 31 prologue_end
	movq	-48(%rbp), %rax
	movq	%rax, -24(%rbp)
	.loc	21 646 29 is_stmt 0
	movq	-24(%rbp), %rax
	movq	%rax, -32(%rbp)
	movq	-32(%rbp), %rsi
	callq	__ZN80_$LT$alloc..vec..Vec$LT$T$GT$$u20$as$u20$alloc..vec..SpecExtend$LT$T$C$I$GT$$GT$11spec_extend28_$u7b$$u7b$closure$u7d$$u7d$17h9adbe8e8adf2b7a0E
	.loc	21 646 36
	addq	$48, %rsp
	popq	%rbp
	retq
Ltmp819:
Lfunc_end131:
	.cfi_endproc

	.globl	__ZN4core4iter6traits8iterator8Iterator8for_each4call28_$u7b$$u7b$closure$u7d$$u7d$17hf192f5f2c09a95fbE
	.p2align	4, 0x90
__ZN4core4iter6traits8iterator8Iterator8for_each4call28_$u7b$$u7b$closure$u7d$$u7d$17hf192f5f2c09a95fbE:
Lfunc_begin132:
	.loc	21 646 0 is_stmt 1
	.cfi_startproc
	pushq	%rbp
	.cfi_def_cfa_offset 16
	.cfi_offset %rbp, -16
	movq	%rsp, %rbp
	.cfi_def_cfa_register %rbp
	subq	$48, %rsp
	movl	%esi, -36(%rbp)
	movl	-36(%rbp), %eax
	movl	%eax, -40(%rbp)
	movq	%rdi, -16(%rbp)
Ltmp820:
	.loc	21 646 31 prologue_end
	movl	-40(%rbp), %eax
	movl	%eax, -24(%rbp)
	.loc	21 646 29 is_stmt 0
	movl	-24(%rbp), %eax
	movl	%eax, -32(%rbp)
	movl	-32(%rbp), %esi
	callq	__ZN116_$LT$proc_macro..TokenStream$u20$as$u20$core..iter..traits..collect..FromIterator$LT$proc_macro..TokenStream$GT$$GT$9from_iter28_$u7b$$u7b$closure$u7d$$u7d$17h1d67d6769f08341aE
	.loc	21 646 36
	addq	$48, %rsp
	popq	%rbp
	retq
Ltmp821:
Lfunc_end132:
	.cfi_endproc

	.globl	__ZN4core4iter6traits8iterator8Iterator8for_each4call28_$u7b$$u7b$closure$u7d$$u7d$17hfa9f7a7c343de842E
	.p2align	4, 0x90
__ZN4core4iter6traits8iterator8Iterator8for_each4call28_$u7b$$u7b$closure$u7d$$u7d$17hfa9f7a7c343de842E:
Lfunc_begin133:
	.loc	21 646 0 is_stmt 1
	.cfi_startproc
	pushq	%rbp
	.cfi_def_cfa_offset 16
	.cfi_offset %rbp, -16
	movq	%rsp, %rbp
	.cfi_def_cfa_register %rbp
	subq	$144, %rsp
	movq	%rdi, -16(%rbp)
Ltmp822:
	.loc	21 646 31 prologue_end
	leaq	-64(%rbp), %rax
	movq	%rax, %rcx
	movq	%rdi, -120(%rbp)
	movq	%rcx, %rdi
	movl	$48, %ecx
	movq	%rcx, %rdx
	movq	%rax, -128(%rbp)
	movq	%rcx, -136(%rbp)
	callq	_memcpy
Ltmp823:
	.loc	21 646 29 is_stmt 0
	leaq	-112(%rbp), %rax
	movq	%rax, %rcx
	movq	-128(%rbp), %rdx
	movq	%rcx, %rdi
	movq	%rdx, %rsi
	movq	-136(%rbp), %rdx
	movq	%rax, -144(%rbp)
	callq	_memcpy
	movq	-144(%rbp), %rax
	movq	-120(%rbp), %rdi
	movq	%rax, %rsi
	callq	__ZN120_$LT$proc_macro2..fallback..TokenStream$u20$as$u20$core..iter..traits..collect..Extend$LT$proc_macro2..TokenTree$GT$$GT$6extend28_$u7b$$u7b$closure$u7d$$u7d$17ha7e912dacfa831c8E
	.loc	21 646 36
	addq	$144, %rsp
	popq	%rbp
	retq
Ltmp824:
Lfunc_end133:
	.cfi_endproc

	.globl	__ZN4core4iter6traits8iterator8Iterator8try_fold17h558fdf692125480dE
	.p2align	4, 0x90
__ZN4core4iter6traits8iterator8Iterator8try_fold17h558fdf692125480dE:
Lfunc_begin134:
	.loc	21 1862 0 is_stmt 1
	.cfi_startproc
	.cfi_personality 155, _rust_eh_personality
	.cfi_lsda 16, Lexception25
	pushq	%rbp
	.cfi_def_cfa_offset 16
	.cfi_offset %rbp, -16
	movq	%rsp, %rbp
	.cfi_def_cfa_register %rbp
	subq	$384, %rsp
	movq	%rsi, -336(%rbp)
	movq	%rdi, -80(%rbp)
Ltmp842:
	.loc	21 1868 13 prologue_end
	movb	$0, -81(%rbp)
	.loc	21 1868 25 is_stmt 0
	movb	$1, -81(%rbp)
	movq	%rdi, -344(%rbp)
LBB134_1:
Ltmp825:
	.loc	21 0 25
	leaq	-312(%rbp), %rdi
	movq	-344(%rbp), %rsi
Ltmp843:
	.loc	21 1869 29 is_stmt 1
	callq	__ZN94_$LT$proc_macro2..token_stream..IntoIter$u20$as$u20$core..iter..traits..iterator..Iterator$GT$4next17h6b851ed9ff6eaa14E
Ltmp826:
	jmp	LBB134_4
Ltmp844:
LBB134_2:
	.loc	21 1862 5
	movq	-56(%rbp), %rdi
	callq	__Unwind_Resume
	ud2
LBB134_3:
	.loc	21 1873 5
	jmp	LBB134_2
LBB134_4:
	.loc	21 0 5 is_stmt 0
	xorl	%eax, %eax
	movl	%eax, %ecx
Ltmp845:
	.loc	21 1869 19 is_stmt 1
	movl	-312(%rbp), %eax
	subl	$4, %eax
	cmpl	$0, %eax
	movl	$1, %edx
	cmovbeq	%rcx, %rdx
	cmpq	$1, %rdx
	je	LBB134_6
Ltmp827:
	.loc	21 0 19 is_stmt 0
	leaq	-312(%rbp), %rdi
	.loc	21 1871 9 is_stmt 1
	callq	__ZN4core3ptr13drop_in_place17h94dcce221d0dc1cfE
Ltmp828:
	jmp	LBB134_16
LBB134_6:
	.loc	21 1869 24
	movq	-272(%rbp), %rax
	movq	%rax, -224(%rbp)
	movq	-280(%rbp), %rax
	movq	%rax, -232(%rbp)
	movq	-288(%rbp), %rax
	movq	%rax, -240(%rbp)
	movq	-296(%rbp), %rax
	movq	%rax, -248(%rbp)
	movq	-312(%rbp), %rax
	movq	-304(%rbp), %rcx
	movq	%rcx, -256(%rbp)
	movq	%rax, -264(%rbp)
Ltmp846:
	.loc	21 1870 23
	movb	$0, -81(%rbp)
	.loc	21 1870 30 is_stmt 0
	movq	-224(%rbp), %rax
	movq	%rax, -112(%rbp)
	movq	-232(%rbp), %rax
	movq	%rax, -120(%rbp)
	movq	-240(%rbp), %rax
	movq	%rax, -128(%rbp)
	movq	-248(%rbp), %rax
	movq	%rax, -136(%rbp)
	movq	-264(%rbp), %rax
	movq	-256(%rbp), %rcx
	movq	%rcx, -144(%rbp)
	movq	%rax, -152(%rbp)
	.loc	21 1870 21
	movq	-112(%rbp), %rax
	movq	%rax, -160(%rbp)
	movq	-120(%rbp), %rax
	movq	%rax, -168(%rbp)
	movq	-128(%rbp), %rax
	movq	%rax, -176(%rbp)
	movq	-136(%rbp), %rax
	movq	%rax, -184(%rbp)
	movq	-152(%rbp), %rax
	movq	-144(%rbp), %rcx
	movq	%rcx, -192(%rbp)
	movq	%rax, -200(%rbp)
Ltmp832:
	leaq	-336(%rbp), %rdi
	leaq	-200(%rbp), %rsi
	callq	__ZN4core4iter6traits8iterator8Iterator8find_map5check28_$u7b$$u7b$closure$u7d$$u7d$17h5fa1072d3031239cE
Ltmp833:
	movq	%rax, -352(%rbp)
	jmp	LBB134_7
LBB134_7:
	.loc	21 0 21
	movq	-352(%rbp), %rax
	.loc	21 1870 21
	movq	%rax, -32(%rbp)
	movq	-32(%rbp), %rcx
	movq	%rcx, -208(%rbp)
	movq	-208(%rbp), %rdi
Ltmp834:
	callq	__ZN74_$LT$core..iter..LoopState$LT$C$C$B$GT$$u20$as$u20$core..ops..try..Try$GT$11into_result17he8f441e62b27c30cE
Ltmp835:
	movq	%rax, -360(%rbp)
	jmp	LBB134_8
LBB134_8:
	.loc	21 0 21
	movq	-360(%rbp), %rax
	.loc	21 1870 21
	movq	%rax, -24(%rbp)
	movq	-24(%rbp), %rcx
	movq	%rcx, -216(%rbp)
	.loc	21 1870 32
	movl	-216(%rbp), %edx
	movl	%edx, %ecx
	testq	%rcx, %rcx
	je	LBB134_10
	jmp	LBB134_24
LBB134_24:
	jmp	LBB134_12
LBB134_9:
	.loc	21 1870 33
	jmp	LBB134_20
LBB134_10:
	.loc	21 1870 13
	movb	$1, -81(%rbp)
Ltmp847:
	.loc	21 1869 9 is_stmt 1
	jmp	LBB134_1
Ltmp848:
	.loc	21 1870 21
	ud2
LBB134_12:
	.loc	21 1870 32 is_stmt 0
	movl	-212(%rbp), %eax
	movl	%eax, -104(%rbp)
Ltmp849:
	.loc	21 1870 32
	movl	-104(%rbp), %eax
	movl	%eax, -88(%rbp)
	movl	-88(%rbp), %edi
Ltmp837:
	callq	__ZN50_$LT$T$u20$as$u20$core..convert..From$LT$T$GT$$GT$4from17hef89d8b13610b53eE
Ltmp838:
	movl	%eax, -364(%rbp)
	jmp	LBB134_14
Ltmp850:
LBB134_13:
	.loc	21 1873 6 is_stmt 1
	movq	-328(%rbp), %rax
	addq	$384, %rsp
	popq	%rbp
	retq
LBB134_14:
	.loc	21 0 6 is_stmt 0
	movl	-364(%rbp), %eax
Ltmp851:
	.loc	21 1870 32 is_stmt 1
	movl	%eax, -12(%rbp)
	movl	-12(%rbp), %ecx
	movl	%ecx, -96(%rbp)
	movl	-96(%rbp), %edi
Ltmp839:
	callq	__ZN74_$LT$core..iter..LoopState$LT$C$C$B$GT$$u20$as$u20$core..ops..try..Try$GT$10from_error17hfbbade69f76bcb92E
Ltmp840:
	movq	%rax, -376(%rbp)
	jmp	LBB134_15
LBB134_15:
	.loc	21 0 32 is_stmt 0
	movq	-376(%rbp), %rax
	.loc	21 1870 32
	movq	%rax, -8(%rbp)
	movq	-8(%rbp), %rcx
	movq	%rcx, -328(%rbp)
Ltmp852:
	.loc	21 1873 5 is_stmt 1
	movb	$0, -81(%rbp)
	jmp	LBB134_13
LBB134_16:
Ltmp853:
	.loc	21 1872 22
	movb	$0, -81(%rbp)
Ltmp829:
	.loc	21 1872 9 is_stmt 0
	callq	__ZN74_$LT$core..iter..LoopState$LT$C$C$B$GT$$u20$as$u20$core..ops..try..Try$GT$7from_ok17hbaf2f0a9d3968784E
Ltmp830:
	movq	%rax, -384(%rbp)
	jmp	LBB134_17
LBB134_17:
	.loc	21 0 9
	movq	-384(%rbp), %rax
	.loc	21 1872 9
	movq	%rax, -40(%rbp)
	movq	-40(%rbp), %rcx
	movq	%rcx, -328(%rbp)
Ltmp854:
	.loc	21 1873 5 is_stmt 1
	movb	$0, -81(%rbp)
	jmp	LBB134_13
LBB134_18:
	movb	$0, -81(%rbp)
	jmp	LBB134_3
LBB134_19:
	testb	$1, -81(%rbp)
	jne	LBB134_18
	jmp	LBB134_3
LBB134_20:
Ltmp855:
	.loc	21 1871 9
	jmp	LBB134_19
Ltmp856:
LBB134_21:
Ltmp831:
	.loc	21 0 9 is_stmt 0
	movq	%rax, -56(%rbp)
	movl	%edx, -48(%rbp)
	jmp	LBB134_19
LBB134_22:
Ltmp836:
	movq	%rax, -56(%rbp)
	movl	%edx, -48(%rbp)
	jmp	LBB134_20
LBB134_23:
Ltmp841:
	movq	%rax, -56(%rbp)
	movl	%edx, -48(%rbp)
	jmp	LBB134_9
Lfunc_end134:
	.cfi_endproc
	.section	__TEXT,__gcc_except_tab
	.p2align	2
GCC_except_table134:
Lexception25:
	.byte	255
	.byte	255
	.byte	1
	.uleb128 Lcst_end25-Lcst_begin25
Lcst_begin25:
	.uleb128 Ltmp825-Lfunc_begin134
	.uleb128 Ltmp826-Ltmp825
	.uleb128 Ltmp831-Lfunc_begin134
	.byte	0
	.uleb128 Ltmp826-Lfunc_begin134
	.uleb128 Ltmp827-Ltmp826
	.byte	0
	.byte	0
	.uleb128 Ltmp827-Lfunc_begin134
	.uleb128 Ltmp828-Ltmp827
	.uleb128 Ltmp831-Lfunc_begin134
	.byte	0
	.uleb128 Ltmp832-Lfunc_begin134
	.uleb128 Ltmp835-Ltmp832
	.uleb128 Ltmp836-Lfunc_begin134
	.byte	0
	.uleb128 Ltmp837-Lfunc_begin134
	.uleb128 Ltmp840-Ltmp837
	.uleb128 Ltmp841-Lfunc_begin134
	.byte	0
	.uleb128 Ltmp829-Lfunc_begin134
	.uleb128 Ltmp830-Ltmp829
	.uleb128 Ltmp831-Lfunc_begin134
	.byte	0
Lcst_end25:
	.p2align	2

	.section	__TEXT,__text,regular,pure_instructions
	.globl	__ZN4core4iter6traits8iterator8Iterator9size_hint17h387267c7d008853eE
	.p2align	4, 0x90
__ZN4core4iter6traits8iterator8Iterator9size_hint17h387267c7d008853eE:
Lfunc_begin135:
	.loc	21 203 0 is_stmt 1
	.cfi_startproc
	pushq	%rbp
	.cfi_def_cfa_offset 16
	.cfi_offset %rbp, -16
	movq	%rsp, %rbp
	.cfi_def_cfa_register %rbp
	subq	$24, %rsp
	movq	%rdi, %rax
	movq	%rsi, -8(%rbp)
Ltmp857:
	.loc	21 204 13 prologue_end
	movq	$0, -24(%rbp)
	.loc	21 204 9 is_stmt 0
	movq	$0, (%rdi)
	movq	-24(%rbp), %rcx
	movq	-16(%rbp), %rdx
	movq	%rcx, 8(%rdi)
	movq	%rdx, 16(%rdi)
	.loc	21 205 6 is_stmt 1
	addq	$24, %rsp
	popq	%rbp
	retq
Ltmp858:
Lfunc_end135:
	.cfi_endproc

	.globl	__ZN4core4iter7sources4once17h6b71ed35d7c83006E
	.p2align	4, 0x90
__ZN4core4iter7sources4once17h6b71ed35d7c83006E:
Lfunc_begin136:
	.file	22 "/rustc/6c8927b0cf80ceee19386026cf9d7fd4fd9d486f/src/libcore/iter/sources.rs"
	.loc	22 389 0
	.cfi_startproc
	pushq	%rbp
	.cfi_def_cfa_offset 16
	.cfi_offset %rbp, -16
	movq	%rsp, %rbp
	.cfi_def_cfa_register %rbp
	subq	$160, %rsp
	movq	%rdi, %rax
Ltmp859:
	.loc	22 390 24 prologue_end
	leaq	-40(%rbp), %rcx
	movq	%rcx, %rdx
	movq	%rdi, -128(%rbp)
	movq	%rdx, %rdi
	movl	$40, %edx
	movq	%rdx, -136(%rbp)
	movq	%rax, -144(%rbp)
	movq	%rcx, -152(%rbp)
	callq	_memcpy
Ltmp860:
	.loc	22 390 19 is_stmt 0
	leaq	-80(%rbp), %rax
	movq	%rax, %rcx
	movq	-152(%rbp), %rdx
	movq	%rcx, %rdi
	movq	%rdx, %rsi
	movq	-136(%rbp), %rdx
	movq	%rax, -160(%rbp)
	callq	_memcpy
	leaq	-120(%rbp), %rdi
	movq	-160(%rbp), %rsi
	callq	__ZN91_$LT$core..option..Option$LT$T$GT$$u20$as$u20$core..iter..traits..collect..IntoIterator$GT$9into_iter17h3ea15ab71da69493E
	.loc	22 0 19
	movq	-128(%rbp), %rax
	.loc	22 390 5
	leaq	-120(%rbp), %rcx
	movq	%rax, %rdi
	movq	%rcx, %rsi
	movl	$40, %edx
	callq	_memcpy
	movq	-144(%rbp), %rax
	.loc	22 391 2 is_stmt 1
	addq	$160, %rsp
	popq	%rbp
	retq
Ltmp861:
Lfunc_end136:
	.cfi_endproc

	.globl	__ZN4core4iter7sources4once17hd0ede02b4f6787b2E
	.p2align	4, 0x90
__ZN4core4iter7sources4once17hd0ede02b4f6787b2E:
Lfunc_begin137:
	.loc	22 389 0
	.cfi_startproc
	pushq	%rbp
	.cfi_def_cfa_offset 16
	.cfi_offset %rbp, -16
	movq	%rsp, %rbp
	.cfi_def_cfa_register %rbp
	subq	$192, %rsp
	movq	%rdi, %rax
Ltmp862:
	.loc	22 390 24 prologue_end
	leaq	-48(%rbp), %rcx
	movq	%rcx, %rdx
	movq	%rdi, -152(%rbp)
	movq	%rdx, %rdi
	movl	$48, %edx
	movq	%rdx, -160(%rbp)
	movq	%rax, -168(%rbp)
	movq	%rcx, -176(%rbp)
	callq	_memcpy
Ltmp863:
	.loc	22 390 19 is_stmt 0
	leaq	-96(%rbp), %rax
	movq	%rax, %rcx
	movq	-176(%rbp), %rdx
	movq	%rcx, %rdi
	movq	%rdx, %rsi
	movq	-160(%rbp), %rdx
	movq	%rax, -184(%rbp)
	callq	_memcpy
	leaq	-144(%rbp), %rdi
	movq	-184(%rbp), %rsi
	callq	__ZN91_$LT$core..option..Option$LT$T$GT$$u20$as$u20$core..iter..traits..collect..IntoIterator$GT$9into_iter17hd376a94fda9815ffE
	.loc	22 0 19
	movq	-152(%rbp), %rax
	.loc	22 390 5
	leaq	-144(%rbp), %rcx
	movq	%rax, %rdi
	movq	%rcx, %rsi
	movl	$48, %edx
	callq	_memcpy
	movq	-168(%rbp), %rax
	.loc	22 391 2 is_stmt 1
	addq	$192, %rsp
	popq	%rbp
	retq
Ltmp864:
Lfunc_end137:
	.cfi_endproc

	.globl	__ZN4core4iter8adapters15filter_map_fold17h4f60928931ef7a61E
	.p2align	4, 0x90
__ZN4core4iter8adapters15filter_map_fold17h4f60928931ef7a61E:
Lfunc_begin138:
	.loc	3 1103 0
	.cfi_startproc
	pushq	%rbp
	.cfi_def_cfa_offset 16
	.cfi_offset %rbp, -16
	movq	%rsp, %rbp
	.cfi_def_cfa_register %rbp
Ltmp865:
	.loc	3 1111 2 prologue_end
	popq	%rbp
	retq
Ltmp866:
Lfunc_end138:
	.cfi_endproc

	.globl	__ZN4core4iter8adapters15filter_map_fold28_$u7b$$u7b$closure$u7d$$u7d$17hf395490e581df04eE
	.p2align	4, 0x90
__ZN4core4iter8adapters15filter_map_fold28_$u7b$$u7b$closure$u7d$$u7d$17hf395490e581df04eE:
Lfunc_begin139:
	.loc	3 1107 0
	.cfi_startproc
	.cfi_personality 155, _rust_eh_personality
	.cfi_lsda 16, Lexception26
	pushq	%rbp
	.cfi_def_cfa_offset 16
	.cfi_offset %rbp, -16
	movq	%rsp, %rbp
	.cfi_def_cfa_register %rbp
	subq	$240, %rsp
	movq	%rsi, -200(%rbp)
	movq	-200(%rbp), %rax
	movq	%rax, -208(%rbp)
	movq	%rdi, -40(%rbp)
Ltmp873:
	.loc	3 1107 28 prologue_end
	movb	$0, -41(%rbp)
	movb	$1, -41(%rbp)
	.loc	3 1107 30 is_stmt 0
	movq	40(%rdx), %rax
	movq	%rax, -88(%rbp)
	movq	32(%rdx), %rax
	movq	%rax, -96(%rbp)
	movq	24(%rdx), %rax
	movq	%rax, -104(%rbp)
	movq	16(%rdx), %rax
	movq	%rax, -112(%rbp)
	movq	(%rdx), %rax
	movq	8(%rdx), %rcx
	movq	%rcx, -120(%rbp)
	movq	%rax, -128(%rbp)
	.loc	3 1107 28
	movq	-88(%rbp), %rax
	movq	%rax, -136(%rbp)
	movq	-96(%rbp), %rax
	movq	%rax, -144(%rbp)
	movq	-104(%rbp), %rax
	movq	%rax, -152(%rbp)
	movq	-112(%rbp), %rax
	movq	%rax, -160(%rbp)
	movq	-128(%rbp), %rax
	movq	-120(%rbp), %rcx
	movq	%rcx, -168(%rbp)
	movq	%rax, -176(%rbp)
Ltmp867:
	leaq	-176(%rbp), %rsi
	movq	%rdi, -216(%rbp)
	callq	__ZN5quote7spanned10join_spans28_$u7b$$u7b$closure$u7d$$u7d$17h351959aa1fe258cbE
Ltmp874:
Ltmp868:
	.loc	3 0 28
	movq	%rax, -224(%rbp)
	.loc	3 1107 28
	jmp	LBB139_2
LBB139_1:
	.loc	3 1107 5
	movq	-32(%rbp), %rdi
	callq	__Unwind_Resume
	ud2
LBB139_2:
	.loc	3 0 5
	movq	-224(%rbp), %rax
	.loc	3 1107 28
	movq	%rax, -16(%rbp)
	movq	-16(%rbp), %rcx
	movq	%rcx, -184(%rbp)
	.loc	3 1108 9 is_stmt 1
	movl	-184(%rbp), %edx
	movl	%edx, %ecx
	testq	%rcx, %rcx
	je	LBB139_4
	jmp	LBB139_13
LBB139_13:
	jmp	LBB139_6
LBB139_3:
	.loc	3 1110 5
	jmp	LBB139_9
LBB139_4:
	.loc	3 1109 17
	movb	$0, -41(%rbp)
	movq	-208(%rbp), %rax
	movq	%rax, -192(%rbp)
	.loc	3 1107 22
	jmp	LBB139_10
	.loc	3 1107 28 is_stmt 0
	ud2
LBB139_6:
	.loc	3 1108 14 is_stmt 1
	movl	-180(%rbp), %eax
	movl	%eax, -80(%rbp)
Ltmp875:
	.loc	3 1108 25 is_stmt 0
	movb	$0, -41(%rbp)
	movq	-208(%rbp), %rcx
	movq	%rcx, -56(%rbp)
	.loc	3 1108 30
	movl	-80(%rbp), %eax
	movl	%eax, -48(%rbp)
	.loc	3 1108 20
	movq	-56(%rbp), %rcx
	movq	%rcx, -72(%rbp)
	movl	-48(%rbp), %eax
	movl	%eax, -64(%rbp)
	movq	-72(%rbp), %rsi
	movl	-64(%rbp), %edx
Ltmp870:
	movq	-216(%rbp), %rdi
	callq	__ZN5quote7spanned10join_spans28_$u7b$$u7b$closure$u7d$$u7d$17h4f3e776cffcfbfabE
Ltmp871:
	movq	%rax, -232(%rbp)
	jmp	LBB139_7
LBB139_7:
	.loc	3 0 20
	movq	-232(%rbp), %rax
	.loc	3 1108 20
	movq	%rax, -8(%rbp)
	movq	-8(%rbp), %rcx
	movq	%rcx, -192(%rbp)
Ltmp876:
	.loc	3 1110 5 is_stmt 1
	jmp	LBB139_10
LBB139_8:
	movb	$0, -41(%rbp)
	jmp	LBB139_1
LBB139_9:
	testb	$1, -41(%rbp)
	jne	LBB139_8
	jmp	LBB139_1
LBB139_10:
	.loc	3 1110 6 is_stmt 0
	movq	-192(%rbp), %rax
	addq	$240, %rsp
	popq	%rbp
	retq
Ltmp877:
LBB139_11:
Ltmp869:
	.loc	3 0 6
	movq	%rax, -32(%rbp)
	movl	%edx, -24(%rbp)
	jmp	LBB139_9
LBB139_12:
Ltmp872:
	movq	%rax, -32(%rbp)
	movl	%edx, -24(%rbp)
	jmp	LBB139_3
Lfunc_end139:
	.cfi_endproc
	.section	__TEXT,__gcc_except_tab
	.p2align	2
GCC_except_table139:
Lexception26:
	.byte	255
	.byte	255
	.byte	1
	.uleb128 Lcst_end26-Lcst_begin26
Lcst_begin26:
	.uleb128 Ltmp867-Lfunc_begin139
	.uleb128 Ltmp868-Ltmp867
	.uleb128 Ltmp869-Lfunc_begin139
	.byte	0
	.uleb128 Ltmp868-Lfunc_begin139
	.uleb128 Ltmp870-Ltmp868
	.byte	0
	.byte	0
	.uleb128 Ltmp870-Lfunc_begin139
	.uleb128 Ltmp871-Ltmp870
	.uleb128 Ltmp872-Lfunc_begin139
	.byte	0
Lcst_end26:
	.p2align	2

	.section	__TEXT,__text,regular,pure_instructions
	.globl	__ZN4core4iter8adapters16Map$LT$I$C$F$GT$3new17h2e602bda7dc17f0eE
	.p2align	4, 0x90
__ZN4core4iter8adapters16Map$LT$I$C$F$GT$3new17h2e602bda7dc17f0eE:
Lfunc_begin140:
	.loc	3 817 0 is_stmt 1
	.cfi_startproc
	pushq	%rbp
	.cfi_def_cfa_offset 16
	.cfi_offset %rbp, -16
	movq	%rsp, %rbp
	.cfi_def_cfa_register %rbp
	subq	$96, %rsp
	movq	%rdi, %rax
Ltmp878:
	.loc	3 818 15 prologue_end
	leaq	-56(%rbp), %rcx
	movq	%rcx, %rdx
	movq	%rdi, -64(%rbp)
	movq	%rdx, %rdi
	movl	$48, %edx
	movq	%rdx, -72(%rbp)
	movq	%rax, -80(%rbp)
	movq	%rcx, -88(%rbp)
	callq	_memcpy
Ltmp879:
	.loc	3 0 15 is_stmt 0
	movq	-64(%rbp), %rax
	movq	-88(%rbp), %rcx
	.loc	3 818 9
	movq	%rax, %rdi
	movq	%rcx, %rsi
	movq	-72(%rbp), %rdx
	callq	_memcpy
	movq	-80(%rbp), %rax
	.loc	3 819 6 is_stmt 1
	addq	$96, %rsp
	popq	%rbp
	retq
Ltmp880:
Lfunc_end140:
	.cfi_endproc

	.globl	__ZN4core4iter8adapters16Map$LT$I$C$F$GT$3new17h71346228ae9723d1E
	.p2align	4, 0x90
__ZN4core4iter8adapters16Map$LT$I$C$F$GT$3new17h71346228ae9723d1E:
Lfunc_begin141:
	.loc	3 817 0
	.cfi_startproc
	pushq	%rbp
	.cfi_def_cfa_offset 16
	.cfi_offset %rbp, -16
	movq	%rsp, %rbp
	.cfi_def_cfa_register %rbp
	subq	$80, %rsp
	movq	%rdi, %rax
Ltmp881:
	.loc	3 818 15 prologue_end
	leaq	-48(%rbp), %rcx
	movq	%rcx, %rdx
	movq	%rdi, -56(%rbp)
	movq	%rdx, %rdi
	movl	$40, %edx
	movq	%rdx, -64(%rbp)
	movq	%rax, -72(%rbp)
	movq	%rcx, -80(%rbp)
	callq	_memcpy
Ltmp882:
	.loc	3 0 15 is_stmt 0
	movq	-56(%rbp), %rax
	movq	-80(%rbp), %rcx
	.loc	3 818 9
	movq	%rax, %rdi
	movq	%rcx, %rsi
	movq	-64(%rbp), %rdx
	callq	_memcpy
	movq	-72(%rbp), %rax
	.loc	3 819 6 is_stmt 1
	addq	$80, %rsp
	popq	%rbp
	retq
Ltmp883:
Lfunc_end141:
	.cfi_endproc

	.globl	__ZN4core4iter8adapters16Map$LT$I$C$F$GT$3new17h84fc2f61fe237772E
	.p2align	4, 0x90
__ZN4core4iter8adapters16Map$LT$I$C$F$GT$3new17h84fc2f61fe237772E:
Lfunc_begin142:
	.loc	3 817 0
	.cfi_startproc
	pushq	%rbp
	.cfi_def_cfa_offset 16
	.cfi_offset %rbp, -16
	movq	%rsp, %rbp
	.cfi_def_cfa_register %rbp
	subq	$96, %rsp
	movq	%rdi, %rax
Ltmp884:
	movq	%rdx, -8(%rbp)
Ltmp885:
	.loc	3 818 15 prologue_end
	leaq	-48(%rbp), %rcx
	movq	%rcx, %r8
	movq	%rdi, -56(%rbp)
	movq	%r8, %rdi
	movl	$40, %r8d
	movq	%rdx, -64(%rbp)
	movq	%r8, %rdx
	movq	%rax, -72(%rbp)
	movq	%rcx, -80(%rbp)
	movq	%r8, -88(%rbp)
	callq	_memcpy
Ltmp886:
	.loc	3 0 15 is_stmt 0
	movq	-56(%rbp), %rax
	movq	-80(%rbp), %rcx
	.loc	3 818 9
	movq	%rax, %rdi
	movq	%rcx, %rsi
	movq	-88(%rbp), %rdx
	callq	_memcpy
	movq	-56(%rbp), %rax
	movq	-64(%rbp), %rcx
	movq	%rcx, 40(%rax)
	movq	-72(%rbp), %rax
	.loc	3 819 6 is_stmt 1
	addq	$96, %rsp
	popq	%rbp
	retq
Ltmp887:
Lfunc_end142:
	.cfi_endproc

	.globl	__ZN4core4iter8adapters16Map$LT$I$C$F$GT$3new17h9b27dfaf1ba331e5E
	.p2align	4, 0x90
__ZN4core4iter8adapters16Map$LT$I$C$F$GT$3new17h9b27dfaf1ba331e5E:
Lfunc_begin143:
	.loc	3 817 0
	.cfi_startproc
	pushq	%rbp
	.cfi_def_cfa_offset 16
	.cfi_offset %rbp, -16
	movq	%rsp, %rbp
	.cfi_def_cfa_register %rbp
	subq	$80, %rsp
	movq	%rdi, %rax
Ltmp888:
	.loc	3 818 15 prologue_end
	leaq	-48(%rbp), %rcx
	movq	%rcx, %rdx
	movq	%rdi, -56(%rbp)
	movq	%rdx, %rdi
	movl	$40, %edx
	movq	%rdx, -64(%rbp)
	movq	%rax, -72(%rbp)
	movq	%rcx, -80(%rbp)
	callq	_memcpy
Ltmp889:
	.loc	3 0 15 is_stmt 0
	movq	-56(%rbp), %rax
	movq	-80(%rbp), %rcx
	.loc	3 818 9
	movq	%rax, %rdi
	movq	%rcx, %rsi
	movq	-64(%rbp), %rdx
	callq	_memcpy
	movq	-72(%rbp), %rax
	.loc	3 819 6 is_stmt 1
	addq	$80, %rsp
	popq	%rbp
	retq
Ltmp890:
Lfunc_end143:
	.cfi_endproc

	.globl	__ZN4core4iter8adapters16Map$LT$I$C$F$GT$3new17haf0532d6fdc8ca0eE
	.p2align	4, 0x90
__ZN4core4iter8adapters16Map$LT$I$C$F$GT$3new17haf0532d6fdc8ca0eE:
Lfunc_begin144:
	.loc	3 817 0
	.cfi_startproc
	pushq	%rbp
	.cfi_def_cfa_offset 16
	.cfi_offset %rbp, -16
	movq	%rsp, %rbp
	.cfi_def_cfa_register %rbp
	subq	$80, %rsp
	movq	%rdi, %rax
Ltmp891:
	.loc	3 818 15 prologue_end
	leaq	-48(%rbp), %rcx
	movq	%rcx, %rdx
	movq	%rdi, -56(%rbp)
	movq	%rdx, %rdi
	movl	$40, %edx
	movq	%rdx, -64(%rbp)
	movq	%rax, -72(%rbp)
	movq	%rcx, -80(%rbp)
	callq	_memcpy
Ltmp892:
	.loc	3 0 15 is_stmt 0
	movq	-56(%rbp), %rax
	movq	-80(%rbp), %rcx
	.loc	3 818 9
	movq	%rax, %rdi
	movq	%rcx, %rsi
	movq	-64(%rbp), %rdx
	callq	_memcpy
	movq	-72(%rbp), %rax
	.loc	3 819 6 is_stmt 1
	addq	$80, %rsp
	popq	%rbp
	retq
Ltmp893:
Lfunc_end144:
	.cfi_endproc

	.globl	__ZN4core4iter8adapters16Map$LT$I$C$F$GT$3new17hddb5c0bb1d0026c7E
	.p2align	4, 0x90
__ZN4core4iter8adapters16Map$LT$I$C$F$GT$3new17hddb5c0bb1d0026c7E:
Lfunc_begin145:
	.loc	3 817 0
	.cfi_startproc
	pushq	%rbp
	.cfi_def_cfa_offset 16
	.cfi_offset %rbp, -16
	movq	%rsp, %rbp
	.cfi_def_cfa_register %rbp
	subq	$80, %rsp
	movq	%rdi, %rax
Ltmp894:
	.loc	3 818 15 prologue_end
	leaq	-48(%rbp), %rcx
	movq	%rcx, %rdx
	movq	%rdi, -56(%rbp)
	movq	%rdx, %rdi
	movl	$40, %edx
	movq	%rdx, -64(%rbp)
	movq	%rax, -72(%rbp)
	movq	%rcx, -80(%rbp)
	callq	_memcpy
Ltmp895:
	.loc	3 0 15 is_stmt 0
	movq	-56(%rbp), %rax
	movq	-80(%rbp), %rcx
	.loc	3 818 9
	movq	%rax, %rdi
	movq	%rcx, %rsi
	movq	-64(%rbp), %rdx
	callq	_memcpy
	movq	-72(%rbp), %rax
	.loc	3 819 6 is_stmt 1
	addq	$80, %rsp
	popq	%rbp
	retq
Ltmp896:
Lfunc_end145:
	.cfi_endproc

	.globl	__ZN4core4iter8adapters16Map$LT$I$C$F$GT$3new17he9f06adec4ab0dbeE
	.p2align	4, 0x90
__ZN4core4iter8adapters16Map$LT$I$C$F$GT$3new17he9f06adec4ab0dbeE:
Lfunc_begin146:
	.loc	3 817 0
	.cfi_startproc
	pushq	%rbp
	.cfi_def_cfa_offset 16
	.cfi_offset %rbp, -16
	movq	%rsp, %rbp
	.cfi_def_cfa_register %rbp
	subq	$96, %rsp
	movq	%rdi, %rax
Ltmp897:
	.loc	3 818 15 prologue_end
	leaq	-56(%rbp), %rcx
	movq	%rcx, %rdx
	movq	%rdi, -64(%rbp)
	movq	%rdx, %rdi
	movl	$48, %edx
	movq	%rdx, -72(%rbp)
	movq	%rax, -80(%rbp)
	movq	%rcx, -88(%rbp)
	callq	_memcpy
Ltmp898:
	.loc	3 0 15 is_stmt 0
	movq	-64(%rbp), %rax
	movq	-88(%rbp), %rcx
	.loc	3 818 9
	movq	%rax, %rdi
	movq	%rcx, %rsi
	movq	-72(%rbp), %rdx
	callq	_memcpy
	movq	-80(%rbp), %rax
	.loc	3 819 6 is_stmt 1
	addq	$96, %rsp
	popq	%rbp
	retq
Ltmp899:
Lfunc_end146:
	.cfi_endproc

	.globl	__ZN4core4iter8adapters22FilterMap$LT$I$C$F$GT$3new17h724f4a71184a3863E
	.p2align	4, 0x90
__ZN4core4iter8adapters22FilterMap$LT$I$C$F$GT$3new17h724f4a71184a3863E:
Lfunc_begin147:
	.loc	3 1091 0
	.cfi_startproc
	pushq	%rbp
	.cfi_def_cfa_offset 16
	.cfi_offset %rbp, -16
	movq	%rsp, %rbp
	.cfi_def_cfa_register %rbp
	subq	$80, %rsp
	movq	%rdi, %rax
Ltmp900:
	.loc	3 1092 21 prologue_end
	leaq	-48(%rbp), %rcx
	movq	%rcx, %rdx
	movq	%rdi, -56(%rbp)
	movq	%rdx, %rdi
	movl	$40, %edx
	movq	%rdx, -64(%rbp)
	movq	%rax, -72(%rbp)
	movq	%rcx, -80(%rbp)
	callq	_memcpy
Ltmp901:
	.loc	3 0 21 is_stmt 0
	movq	-56(%rbp), %rax
	movq	-80(%rbp), %rcx
	.loc	3 1092 9
	movq	%rax, %rdi
	movq	%rcx, %rsi
	movq	-64(%rbp), %rdx
	callq	_memcpy
	movq	-72(%rbp), %rax
	.loc	3 1093 6 is_stmt 1
	addq	$80, %rsp
	popq	%rbp
	retq
Ltmp902:
Lfunc_end147:
	.cfi_endproc

	.globl	__ZN4core4iter8adapters4fuse13Fuse$LT$I$GT$3new17h0f61b172dc88c56bE
	.p2align	4, 0x90
__ZN4core4iter8adapters4fuse13Fuse$LT$I$GT$3new17h0f61b172dc88c56bE:
Lfunc_begin148:
	.loc	2 23 0
	.cfi_startproc
	pushq	%rbp
	.cfi_def_cfa_offset 16
	.cfi_offset %rbp, -16
	movq	%rsp, %rbp
	.cfi_def_cfa_register %rbp
	subq	$128, %rsp
	movq	%rdi, %rax
Ltmp903:
	.loc	2 24 27 prologue_end
	leaq	-40(%rbp), %rcx
	movq	%rcx, %rdx
	movq	%rdi, -88(%rbp)
	movq	%rdx, %rdi
	movl	$40, %edx
	movq	%rdx, -96(%rbp)
	movq	%rax, -104(%rbp)
	movq	%rcx, -112(%rbp)
	callq	_memcpy
Ltmp904:
	.loc	2 24 22 is_stmt 0
	leaq	-80(%rbp), %rax
	movq	%rax, %rcx
	movq	-112(%rbp), %rdx
	movq	%rcx, %rdi
	movq	%rdx, %rsi
	movq	-96(%rbp), %rdx
	movq	%rax, -120(%rbp)
	callq	_memcpy
	movq	-88(%rbp), %rax
	movq	-120(%rbp), %rcx
	.loc	2 24 9
	movq	%rax, %rdi
	movq	%rcx, %rsi
	movq	-96(%rbp), %rdx
	callq	_memcpy
	movq	-104(%rbp), %rax
	.loc	2 25 6 is_stmt 1
	addq	$128, %rsp
	popq	%rbp
	retq
Ltmp905:
Lfunc_end148:
	.cfi_endproc

	.globl	__ZN4core4iter8adapters5chain18Chain$LT$A$C$B$GT$3new17h515409e23204523bE
	.p2align	4, 0x90
__ZN4core4iter8adapters5chain18Chain$LT$A$C$B$GT$3new17h515409e23204523bE:
Lfunc_begin149:
	.loc	5 28 0
	.cfi_startproc
	pushq	%rbp
	.cfi_def_cfa_offset 16
	.cfi_offset %rbp, -16
	movq	%rsp, %rbp
	.cfi_def_cfa_register %rbp
	subq	$144, %rsp
	movq	%rdi, %rax
	movl	%esi, -100(%rbp)
	movl	-100(%rbp), %ecx
	movl	%ecx, -104(%rbp)
Ltmp906:
	.loc	5 29 25 prologue_end
	movl	-104(%rbp), %ecx
	movl	%ecx, -88(%rbp)
	.loc	5 29 20 is_stmt 0
	movl	-88(%rbp), %ecx
	movl	%ecx, -92(%rbp)
	movl	$1, -96(%rbp)
	.loc	5 29 37
	leaq	-40(%rbp), %r8
	movq	%r8, %r9
	movq	%rdi, -112(%rbp)
	movq	%r9, %rdi
	movq	%rdx, %rsi
	movl	$40, %edx
Ltmp907:
	.loc	5 0 37
	movq	%rdx, -120(%rbp)
	movq	%rax, -128(%rbp)
	movq	%r8, -136(%rbp)
	.loc	5 29 37
	callq	_memcpy
	.loc	5 29 32
	leaq	-80(%rbp), %rax
	movq	%rax, %rdx
	movq	-136(%rbp), %rsi
	movq	%rdx, %rdi
	movq	-120(%rbp), %rdx
	movq	%rax, -144(%rbp)
	callq	_memcpy
	.loc	5 29 9
	movq	-96(%rbp), %rax
	movq	-112(%rbp), %rdx
	movq	%rax, 40(%rdx)
	movq	-144(%rbp), %rax
	movq	%rdx, %rdi
	movq	%rax, %rsi
	movq	-120(%rbp), %rdx
	callq	_memcpy
	movq	-128(%rbp), %rax
	.loc	5 30 6 is_stmt 1
	addq	$144, %rsp
	popq	%rbp
	retq
Ltmp908:
Lfunc_end149:
	.cfi_endproc

	.globl	__ZN4core4iter8adapters7flatten16Flatten$LT$I$GT$3new17hecc3b076bd5b3600E
	.p2align	4, 0x90
__ZN4core4iter8adapters7flatten16Flatten$LT$I$GT$3new17hecc3b076bd5b3600E:
Lfunc_begin150:
	.loc	6 136 0
	.cfi_startproc
	pushq	%rbp
	.cfi_def_cfa_offset 16
	.cfi_offset %rbp, -16
	movq	%rsp, %rbp
	.cfi_def_cfa_register %rbp
	subq	$176, %rsp
	movq	%rdi, %rax
Ltmp909:
	.loc	6 137 45 prologue_end
	leaq	-40(%rbp), %rcx
	movq	%rcx, %rdx
	movq	%rdi, -152(%rbp)
	movq	%rdx, %rdi
	movl	$40, %edx
	movq	%rax, -160(%rbp)
	movq	%rcx, -168(%rbp)
	callq	_memcpy
Ltmp910:
	.loc	6 137 26 is_stmt 0
	leaq	-144(%rbp), %rdi
	movq	-168(%rbp), %rsi
	callq	__ZN4core4iter8adapters7flatten26FlattenCompat$LT$I$C$U$GT$3new17h6b42f87e2d7a900dE
	.loc	6 0 26
	movq	-152(%rbp), %rax
	.loc	6 137 9
	leaq	-144(%rbp), %rcx
	movq	%rax, %rdi
	movq	%rcx, %rsi
	movl	$104, %edx
	callq	_memcpy
	movq	-160(%rbp), %rax
	.loc	6 138 6 is_stmt 1
	addq	$176, %rsp
	popq	%rbp
	retq
Ltmp911:
Lfunc_end150:
	.cfi_endproc

	.globl	__ZN4core4iter8adapters7flatten26FlattenCompat$LT$I$C$U$GT$3new17h6b42f87e2d7a900dE
	.p2align	4, 0x90
__ZN4core4iter8adapters7flatten26FlattenCompat$LT$I$C$U$GT$3new17h6b42f87e2d7a900dE:
Lfunc_begin151:
	.loc	6 251 0
	.cfi_startproc
	pushq	%rbp
	.cfi_def_cfa_offset 16
	.cfi_offset %rbp, -16
	movq	%rsp, %rbp
	.cfi_def_cfa_register %rbp
	subq	$176, %rsp
	movq	%rdi, %rax
Ltmp912:
	.loc	6 252 31 prologue_end
	leaq	-104(%rbp), %rcx
	movq	%rcx, %rdx
	movq	%rdi, -152(%rbp)
	movq	%rdx, %rdi
	movl	$40, %edx
	movq	%rax, -160(%rbp)
	movq	%rcx, -168(%rbp)
	callq	_memcpy
Ltmp913:
	leaq	-144(%rbp), %rdi
	movq	-168(%rbp), %rsi
	callq	__ZN4core4iter6traits8iterator8Iterator4fuse17h7bf8b8d616f0968fE
	.loc	6 252 55 is_stmt 0
	movq	$0, -64(%rbp)
	.loc	6 252 71
	movq	$0, -32(%rbp)
	movq	-152(%rbp), %rax
	.loc	6 252 9
	leaq	-144(%rbp), %rcx
	movq	%rax, %rdi
	movq	%rcx, %rsi
	movl	$40, %edx
	callq	_memcpy
	movq	-64(%rbp), %rax
	movq	-152(%rbp), %rcx
	movq	%rax, 40(%rcx)
	movq	-56(%rbp), %rax
	movq	%rax, 48(%rcx)
	movq	-48(%rbp), %rax
	movq	%rax, 56(%rcx)
	movq	-40(%rbp), %rax
	movq	%rax, 64(%rcx)
	movq	-32(%rbp), %rax
	movq	%rax, 72(%rcx)
	movq	-24(%rbp), %rax
	movq	%rax, 80(%rcx)
	movq	-16(%rbp), %rax
	movq	%rax, 88(%rcx)
	movq	-8(%rbp), %rax
	movq	%rax, 96(%rcx)
	movq	-160(%rbp), %rax
	.loc	6 253 6 is_stmt 1
	addq	$176, %rsp
	popq	%rbp
	retq
Ltmp914:
Lfunc_end151:
	.cfi_endproc

	.globl	__ZN4core4iter8adapters8map_fold17h19f30c5f8dae61f2E
	.p2align	4, 0x90
__ZN4core4iter8adapters8map_fold17h19f30c5f8dae61f2E:
Lfunc_begin152:
	.loc	3 829 0
	.cfi_startproc
	pushq	%rbp
	.cfi_def_cfa_offset 16
	.cfi_offset %rbp, -16
	movq	%rsp, %rbp
	.cfi_def_cfa_register %rbp
	subq	$24, %rsp
	movq	%rdi, -8(%rbp)
Ltmp915:
	.loc	3 833 5 prologue_end
	movq	%rdi, -24(%rbp)
	.loc	3 834 2
	movq	-24(%rbp), %rax
	addq	$24, %rsp
	popq	%rbp
	retq
Ltmp916:
Lfunc_end152:
	.cfi_endproc

	.globl	__ZN4core4iter8adapters8map_fold17h30f3f131a8431a0cE
	.p2align	4, 0x90
__ZN4core4iter8adapters8map_fold17h30f3f131a8431a0cE:
Lfunc_begin153:
	.loc	3 829 0
	.cfi_startproc
	pushq	%rbp
	.cfi_def_cfa_offset 16
	.cfi_offset %rbp, -16
	movq	%rsp, %rbp
	.cfi_def_cfa_register %rbp
	subq	$32, %rsp
	movq	%rdi, -16(%rbp)
	movq	%rsi, -8(%rbp)
Ltmp917:
	.loc	3 833 5 prologue_end
	movq	%rsi, -32(%rbp)
	movq	%rdi, -24(%rbp)
	.loc	3 834 2
	movq	-32(%rbp), %rax
	movq	-24(%rbp), %rdx
	addq	$32, %rsp
	popq	%rbp
	retq
Ltmp918:
Lfunc_end153:
	.cfi_endproc

	.globl	__ZN4core4iter8adapters8map_fold17h90cc77b6ab46f228E
	.p2align	4, 0x90
__ZN4core4iter8adapters8map_fold17h90cc77b6ab46f228E:
Lfunc_begin154:
	.loc	3 829 0
	.cfi_startproc
	pushq	%rbp
	.cfi_def_cfa_offset 16
	.cfi_offset %rbp, -16
	movq	%rsp, %rbp
	.cfi_def_cfa_register %rbp
	pushq	%rax
	movq	%rdi, %rax
Ltmp919:
	.loc	3 833 5 prologue_end
	movq	(%rsi), %rcx
	movq	%rcx, (%rdi)
	movq	8(%rsi), %rcx
	movq	%rcx, 8(%rdi)
	movq	16(%rsi), %rcx
	movq	%rcx, 16(%rdi)
	.loc	3 834 2
	addq	$8, %rsp
	popq	%rbp
	retq
Ltmp920:
Lfunc_end154:
	.cfi_endproc

	.globl	__ZN4core4iter8adapters8map_fold17he3882a207086543aE
	.p2align	4, 0x90
__ZN4core4iter8adapters8map_fold17he3882a207086543aE:
Lfunc_begin155:
	.loc	3 829 0
	.cfi_startproc
	pushq	%rbp
	.cfi_def_cfa_offset 16
	.cfi_offset %rbp, -16
	movq	%rsp, %rbp
	.cfi_def_cfa_register %rbp
	subq	$24, %rsp
	movq	%rdi, -8(%rbp)
Ltmp921:
	.loc	3 833 5 prologue_end
	movq	%rdi, -24(%rbp)
	.loc	3 834 2
	movq	-24(%rbp), %rax
	addq	$24, %rsp
	popq	%rbp
	retq
Ltmp922:
Lfunc_end155:
	.cfi_endproc

	.globl	__ZN4core4iter8adapters8map_fold28_$u7b$$u7b$closure$u7d$$u7d$17h18858cb811d21288E
	.p2align	4, 0x90
__ZN4core4iter8adapters8map_fold28_$u7b$$u7b$closure$u7d$$u7d$17h18858cb811d21288E:
Lfunc_begin156:
	.loc	3 833 0
	.cfi_startproc
	.cfi_personality 155, _rust_eh_personality
	.cfi_lsda 16, Lexception27
	pushq	%rbp
	.cfi_def_cfa_offset 16
	.cfi_offset %rbp, -16
	movq	%rsp, %rbp
	.cfi_def_cfa_register %rbp
	subq	$176, %rsp
	movq	%rdi, -40(%rbp)
Ltmp928:
	.loc	3 833 21 prologue_end
	movb	$0, -41(%rbp)
	movq	%rdi, %rax
	.loc	3 833 23 is_stmt 0
	movb	$1, -41(%rbp)
	.loc	3 833 30
	movq	40(%rsi), %rcx
	movq	%rcx, -56(%rbp)
	movq	32(%rsi), %rcx
	movq	%rcx, -64(%rbp)
	movq	24(%rsi), %rcx
	movq	%rcx, -72(%rbp)
	movq	16(%rsi), %rcx
	movq	%rcx, -80(%rbp)
	movq	(%rsi), %rcx
	movq	8(%rsi), %rdx
	movq	%rdx, -88(%rbp)
	movq	%rcx, -96(%rbp)
	.loc	3 833 28
	movq	-56(%rbp), %rcx
	movq	%rcx, -104(%rbp)
	movq	-64(%rbp), %rcx
	movq	%rcx, -112(%rbp)
	movq	-72(%rbp), %rcx
	movq	%rcx, -120(%rbp)
	movq	-80(%rbp), %rcx
	movq	%rcx, -128(%rbp)
	movq	-96(%rbp), %rcx
	movq	-88(%rbp), %rdx
	movq	%rdx, -136(%rbp)
	movq	%rcx, -144(%rbp)
Ltmp923:
	leaq	-144(%rbp), %rsi
Ltmp929:
	.loc	3 0 28
	movq	%rax, -168(%rbp)
	.loc	3 833 28
	callq	__ZN4core3ops8function5FnMut8call_mut17hb9f3cc9635fb7643E
Ltmp924:
	movq	%rax, -176(%rbp)
	jmp	LBB156_2
LBB156_1:
	.loc	3 833 5
	movq	-24(%rbp), %rdi
	callq	__Unwind_Resume
	ud2
LBB156_2:
	.loc	3 0 5
	movq	-176(%rbp), %rax
	.loc	3 833 28
	movq	%rax, -8(%rbp)
	movq	-8(%rbp), %rcx
	movq	%rcx, -152(%rbp)
	.loc	3 833 21
	movb	$0, -41(%rbp)
	movq	-152(%rbp), %rcx
	movq	%rcx, -160(%rbp)
	movq	-160(%rbp), %rsi
Ltmp925:
	movq	-168(%rbp), %rdi
	callq	__ZN4core4iter6traits8iterator8Iterator8for_each4call28_$u7b$$u7b$closure$u7d$$u7d$17h9d32927ec139e132E
Ltmp926:
	jmp	LBB156_3
LBB156_3:
	.loc	3 833 34
	movb	$0, -41(%rbp)
	.loc	3 833 35
	addq	$176, %rsp
	popq	%rbp
	retq
LBB156_4:
	.loc	3 833 34
	movb	$0, -41(%rbp)
	jmp	LBB156_1
LBB156_5:
	testb	$1, -41(%rbp)
	jne	LBB156_4
	jmp	LBB156_1
Ltmp930:
LBB156_6:
Ltmp927:
	.loc	3 0 34
	movq	%rax, -24(%rbp)
	movl	%edx, -16(%rbp)
	jmp	LBB156_5
Lfunc_end156:
	.cfi_endproc
	.section	__TEXT,__gcc_except_tab
	.p2align	2
GCC_except_table156:
Lexception27:
	.byte	255
	.byte	255
	.byte	1
	.uleb128 Lcst_end27-Lcst_begin27
Lcst_begin27:
	.uleb128 Ltmp923-Lfunc_begin156
	.uleb128 Ltmp924-Ltmp923
	.uleb128 Ltmp927-Lfunc_begin156
	.byte	0
	.uleb128 Ltmp924-Lfunc_begin156
	.uleb128 Ltmp925-Ltmp924
	.byte	0
	.byte	0
	.uleb128 Ltmp925-Lfunc_begin156
	.uleb128 Ltmp926-Ltmp925
	.uleb128 Ltmp927-Lfunc_begin156
	.byte	0
Lcst_end27:
	.p2align	2

	.section	__TEXT,__text,regular,pure_instructions
	.globl	__ZN4core4iter8adapters8map_fold28_$u7b$$u7b$closure$u7d$$u7d$17h9b33147ef8d7cfd3E
	.p2align	4, 0x90
__ZN4core4iter8adapters8map_fold28_$u7b$$u7b$closure$u7d$$u7d$17h9b33147ef8d7cfd3E:
Lfunc_begin157:
	.loc	3 833 0 is_stmt 1
	.cfi_startproc
	.cfi_personality 155, _rust_eh_personality
	.cfi_lsda 16, Lexception28
	pushq	%rbp
	.cfi_def_cfa_offset 16
	.cfi_offset %rbp, -16
	movq	%rsp, %rbp
	.cfi_def_cfa_register %rbp
	subq	$160, %rsp
	movq	%rdi, -40(%rbp)
Ltmp936:
	.loc	3 833 21 prologue_end
	movb	$0, -41(%rbp)
	.loc	3 833 23 is_stmt 0
	movb	$1, -41(%rbp)
	.loc	3 833 30
	movq	32(%rsi), %rax
	movq	%rax, -56(%rbp)
	movq	24(%rsi), %rax
	movq	%rax, -64(%rbp)
	movq	16(%rsi), %rax
	movq	%rax, -72(%rbp)
	movq	(%rsi), %rax
	movq	8(%rsi), %rcx
	movq	%rcx, -80(%rbp)
	movq	%rax, -88(%rbp)
	.loc	3 833 28
	movq	-56(%rbp), %rax
	movq	%rax, -96(%rbp)
	movq	-64(%rbp), %rax
	movq	%rax, -104(%rbp)
	movq	-72(%rbp), %rax
	movq	%rax, -112(%rbp)
	movq	-88(%rbp), %rax
	movq	-80(%rbp), %rcx
	movq	%rcx, -120(%rbp)
	movq	%rax, -128(%rbp)
Ltmp931:
	leaq	-128(%rbp), %rsi
Ltmp937:
	.loc	3 0 28
	movq	%rdi, -152(%rbp)
	.loc	3 833 28
	callq	__ZN122_$LT$proc_macro2..imp..TokenStream$u20$as$u20$core..iter..traits..collect..Extend$LT$proc_macro2..imp..TokenStream$GT$$GT$6extend28_$u7b$$u7b$closure$u7d$$u7d$17hd05ef0a635528127E
Ltmp932:
	movl	%eax, -156(%rbp)
	jmp	LBB157_2
LBB157_1:
	.loc	3 833 5
	movq	-24(%rbp), %rdi
	callq	__Unwind_Resume
	ud2
LBB157_2:
	.loc	3 0 5
	movl	-156(%rbp), %eax
	.loc	3 833 28
	movl	%eax, -4(%rbp)
	movl	-4(%rbp), %ecx
	movl	%ecx, -136(%rbp)
	.loc	3 833 21
	movb	$0, -41(%rbp)
	movl	-136(%rbp), %ecx
	movl	%ecx, -144(%rbp)
	movl	-144(%rbp), %esi
Ltmp933:
	movq	-152(%rbp), %rdi
	callq	__ZN4core4iter6traits8iterator8Iterator8for_each4call28_$u7b$$u7b$closure$u7d$$u7d$17hf192f5f2c09a95fbE
Ltmp934:
	jmp	LBB157_3
LBB157_3:
	.loc	3 833 34
	movb	$0, -41(%rbp)
	.loc	3 833 35
	addq	$160, %rsp
	popq	%rbp
	retq
LBB157_4:
	.loc	3 833 34
	movb	$0, -41(%rbp)
	jmp	LBB157_1
LBB157_5:
	testb	$1, -41(%rbp)
	jne	LBB157_4
	jmp	LBB157_1
Ltmp938:
LBB157_6:
Ltmp935:
	.loc	3 0 34
	movq	%rax, -24(%rbp)
	movl	%edx, -16(%rbp)
	jmp	LBB157_5
Lfunc_end157:
	.cfi_endproc
	.section	__TEXT,__gcc_except_tab
	.p2align	2
GCC_except_table157:
Lexception28:
	.byte	255
	.byte	255
	.byte	1
	.uleb128 Lcst_end28-Lcst_begin28
Lcst_begin28:
	.uleb128 Ltmp931-Lfunc_begin157
	.uleb128 Ltmp932-Ltmp931
	.uleb128 Ltmp935-Lfunc_begin157
	.byte	0
	.uleb128 Ltmp932-Lfunc_begin157
	.uleb128 Ltmp933-Ltmp932
	.byte	0
	.byte	0
	.uleb128 Ltmp933-Lfunc_begin157
	.uleb128 Ltmp934-Ltmp933
	.uleb128 Ltmp935-Lfunc_begin157
	.byte	0
Lcst_end28:
	.p2align	2

	.section	__TEXT,__text,regular,pure_instructions
	.globl	__ZN4core4iter8adapters8map_fold28_$u7b$$u7b$closure$u7d$$u7d$17haeed428af1a84dcaE
	.p2align	4, 0x90
__ZN4core4iter8adapters8map_fold28_$u7b$$u7b$closure$u7d$$u7d$17haeed428af1a84dcaE:
Lfunc_begin158:
	.loc	3 833 0 is_stmt 1
	.cfi_startproc
	.cfi_personality 155, _rust_eh_personality
	.cfi_lsda 16, Lexception29
	pushq	%rbp
	.cfi_def_cfa_offset 16
	.cfi_offset %rbp, -16
	movq	%rsp, %rbp
	.cfi_def_cfa_register %rbp
	subq	$256, %rsp
	movq	%rdi, -32(%rbp)
Ltmp944:
	.loc	3 833 21 prologue_end
	movb	$0, -33(%rbp)
	movq	%rdi, %rax
	.loc	3 833 23 is_stmt 0
	movb	$1, -33(%rbp)
	.loc	3 833 28
	addq	$8, %rdi
	.loc	3 833 30
	movq	40(%rsi), %rcx
	movq	%rcx, -48(%rbp)
	movq	32(%rsi), %rcx
	movq	%rcx, -56(%rbp)
	movq	24(%rsi), %rcx
	movq	%rcx, -64(%rbp)
	movq	16(%rsi), %rcx
	movq	%rcx, -72(%rbp)
	movq	(%rsi), %rcx
	movq	8(%rsi), %rdx
	movq	%rdx, -80(%rbp)
	movq	%rcx, -88(%rbp)
	.loc	3 833 28
	movq	-48(%rbp), %rcx
	movq	%rcx, -96(%rbp)
	movq	-56(%rbp), %rcx
	movq	%rcx, -104(%rbp)
	movq	-64(%rbp), %rcx
	movq	%rcx, -112(%rbp)
	movq	-72(%rbp), %rcx
	movq	%rcx, -120(%rbp)
	movq	-88(%rbp), %rcx
	movq	-80(%rbp), %rdx
	movq	%rdx, -128(%rbp)
	movq	%rcx, -136(%rbp)
Ltmp939:
	leaq	-184(%rbp), %rcx
	leaq	-136(%rbp), %rdx
	movq	%rdi, -240(%rbp)
	movq	%rcx, %rdi
	movq	-240(%rbp), %rsi
Ltmp945:
	.loc	3 0 28
	movq	%rax, -248(%rbp)
	.loc	3 833 28
	callq	__ZN5quote9__private13parse_spanned28_$u7b$$u7b$closure$u7d$$u7d$17h1594c84de275813eE
Ltmp940:
	jmp	LBB158_2
LBB158_1:
	.loc	3 833 5
	movq	-16(%rbp), %rdi
	callq	__Unwind_Resume
	ud2
LBB158_2:
	.loc	3 833 21
	movb	$0, -33(%rbp)
	movq	-144(%rbp), %rax
	movq	%rax, -192(%rbp)
	movq	-152(%rbp), %rax
	movq	%rax, -200(%rbp)
	movq	-160(%rbp), %rax
	movq	%rax, -208(%rbp)
	movq	-168(%rbp), %rax
	movq	%rax, -216(%rbp)
	movq	-184(%rbp), %rax
	movq	-176(%rbp), %rcx
	movq	%rcx, -224(%rbp)
	movq	%rax, -232(%rbp)
Ltmp941:
	leaq	-232(%rbp), %rsi
	movq	-248(%rbp), %rdi
	callq	__ZN4core4iter6traits8iterator8Iterator8for_each4call28_$u7b$$u7b$closure$u7d$$u7d$17hfa9f7a7c343de842E
Ltmp942:
	jmp	LBB158_3
LBB158_3:
	.loc	3 833 34
	movb	$0, -33(%rbp)
	.loc	3 833 35
	addq	$256, %rsp
	popq	%rbp
	retq
LBB158_4:
	.loc	3 833 34
	movb	$0, -33(%rbp)
	jmp	LBB158_1
LBB158_5:
	testb	$1, -33(%rbp)
	jne	LBB158_4
	jmp	LBB158_1
Ltmp946:
LBB158_6:
Ltmp943:
	.loc	3 0 34
	movq	%rax, -16(%rbp)
	movl	%edx, -8(%rbp)
	jmp	LBB158_5
Lfunc_end158:
	.cfi_endproc
	.section	__TEXT,__gcc_except_tab
	.p2align	2
GCC_except_table158:
Lexception29:
	.byte	255
	.byte	255
	.byte	1
	.uleb128 Lcst_end29-Lcst_begin29
Lcst_begin29:
	.uleb128 Ltmp939-Lfunc_begin158
	.uleb128 Ltmp940-Ltmp939
	.uleb128 Ltmp943-Lfunc_begin158
	.byte	0
	.uleb128 Ltmp940-Lfunc_begin158
	.uleb128 Ltmp941-Ltmp940
	.byte	0
	.byte	0
	.uleb128 Ltmp941-Lfunc_begin158
	.uleb128 Ltmp942-Ltmp941
	.uleb128 Ltmp943-Lfunc_begin158
	.byte	0
Lcst_end29:
	.p2align	2

	.section	__TEXT,__text,regular,pure_instructions
	.globl	__ZN4core4iter8adapters8map_fold28_$u7b$$u7b$closure$u7d$$u7d$17hd9a13e2681efd01dE
	.p2align	4, 0x90
__ZN4core4iter8adapters8map_fold28_$u7b$$u7b$closure$u7d$$u7d$17hd9a13e2681efd01dE:
Lfunc_begin159:
	.loc	3 833 0 is_stmt 1
	.cfi_startproc
	.cfi_personality 155, _rust_eh_personality
	.cfi_lsda 16, Lexception30
	pushq	%rbp
	.cfi_def_cfa_offset 16
	.cfi_offset %rbp, -16
	movq	%rsp, %rbp
	.cfi_def_cfa_register %rbp
	subq	$208, %rsp
	movq	%rdi, -32(%rbp)
Ltmp952:
	.loc	3 833 21 prologue_end
	movb	$0, -33(%rbp)
	.loc	3 833 23 is_stmt 0
	movb	$1, -33(%rbp)
	.loc	3 833 30
	movq	32(%rsi), %rax
	movq	%rax, -48(%rbp)
	movq	24(%rsi), %rax
	movq	%rax, -56(%rbp)
	movq	16(%rsi), %rax
	movq	%rax, -64(%rbp)
	movq	(%rsi), %rax
	movq	8(%rsi), %rcx
	movq	%rcx, -72(%rbp)
	movq	%rax, -80(%rbp)
	.loc	3 833 28
	movq	-48(%rbp), %rax
	movq	%rax, -88(%rbp)
	movq	-56(%rbp), %rax
	movq	%rax, -96(%rbp)
	movq	-64(%rbp), %rax
	movq	%rax, -104(%rbp)
	movq	-80(%rbp), %rax
	movq	-72(%rbp), %rcx
	movq	%rcx, -112(%rbp)
	movq	%rax, -120(%rbp)
Ltmp947:
	leaq	-160(%rbp), %rax
	leaq	-120(%rbp), %rdx
	movq	%rdi, -208(%rbp)
	movq	%rax, %rdi
	movq	-208(%rbp), %rsi
Ltmp953:
	callq	__ZN112_$LT$proc_macro2..TokenStream$u20$as$u20$core..iter..traits..collect..Extend$LT$proc_macro2..TokenStream$GT$$GT$6extend28_$u7b$$u7b$closure$u7d$$u7d$17hef7510ee4ccd0cf5E
Ltmp948:
	jmp	LBB159_2
LBB159_1:
	.loc	3 833 5
	movq	-16(%rbp), %rdi
	callq	__Unwind_Resume
	ud2
LBB159_2:
	.loc	3 833 21
	movb	$0, -33(%rbp)
	movq	-128(%rbp), %rax
	movq	%rax, -168(%rbp)
	movq	-136(%rbp), %rax
	movq	%rax, -176(%rbp)
	movq	-144(%rbp), %rax
	movq	%rax, -184(%rbp)
	movq	-160(%rbp), %rax
	movq	-152(%rbp), %rcx
	movq	%rcx, -192(%rbp)
	movq	%rax, -200(%rbp)
Ltmp949:
	leaq	-200(%rbp), %rsi
	movq	-208(%rbp), %rdi
	callq	__ZN4core4iter8adapters8map_fold28_$u7b$$u7b$closure$u7d$$u7d$17h9b33147ef8d7cfd3E
Ltmp950:
	jmp	LBB159_3
LBB159_3:
	.loc	3 833 34
	movb	$0, -33(%rbp)
	.loc	3 833 35
	addq	$208, %rsp
	popq	%rbp
	retq
LBB159_4:
	.loc	3 833 34
	movb	$0, -33(%rbp)
	jmp	LBB159_1
LBB159_5:
	testb	$1, -33(%rbp)
	jne	LBB159_4
	jmp	LBB159_1
Ltmp954:
LBB159_6:
Ltmp951:
	.loc	3 0 34
	movq	%rax, -16(%rbp)
	movl	%edx, -8(%rbp)
	jmp	LBB159_5
Lfunc_end159:
	.cfi_endproc
	.section	__TEXT,__gcc_except_tab
	.p2align	2
GCC_except_table159:
Lexception30:
	.byte	255
	.byte	255
	.byte	1
	.uleb128 Lcst_end30-Lcst_begin30
Lcst_begin30:
	.uleb128 Ltmp947-Lfunc_begin159
	.uleb128 Ltmp948-Ltmp947
	.uleb128 Ltmp951-Lfunc_begin159
	.byte	0
	.uleb128 Ltmp948-Lfunc_begin159
	.uleb128 Ltmp949-Ltmp948
	.byte	0
	.byte	0
	.uleb128 Ltmp949-Lfunc_begin159
	.uleb128 Ltmp950-Ltmp949
	.uleb128 Ltmp951-Lfunc_begin159
	.byte	0
Lcst_end30:
	.p2align	2

	.section	__TEXT,__text,regular,pure_instructions
	.p2align	4, 0x90
__ZN4core5clone5impls53_$LT$impl$u20$core..clone..Clone$u20$for$u20$bool$GT$5clone17hd61fdf68f16b0817E:
Lfunc_begin160:
	.file	23 "/rustc/6c8927b0cf80ceee19386026cf9d7fd4fd9d486f/src/libcore/clone.rs"
	.loc	23 184 0 is_stmt 1
	.cfi_startproc
	pushq	%rbp
	.cfi_def_cfa_offset 16
	.cfi_offset %rbp, -16
	movq	%rsp, %rbp
	.cfi_def_cfa_register %rbp
	pushq	%rax
	movq	%rdi, -8(%rbp)
Ltmp955:
	.loc	23 185 25 prologue_end
	movb	(%rdi), %al
	.loc	23 186 22
	andb	$1, %al
	movzbl	%al, %eax
	addq	$8, %rsp
	popq	%rbp
	retq
Ltmp956:
Lfunc_end160:
	.cfi_endproc

	.p2align	4, 0x90
__ZN4core5clone5impls53_$LT$impl$u20$core..clone..Clone$u20$for$u20$char$GT$5clone17hb1c58c31e1211abcE:
Lfunc_begin161:
	.loc	23 184 0
	.cfi_startproc
	pushq	%rbp
	.cfi_def_cfa_offset 16
	.cfi_offset %rbp, -16
	movq	%rsp, %rbp
	.cfi_def_cfa_register %rbp
	pushq	%rax
	movq	%rdi, -8(%rbp)
Ltmp957:
	.loc	23 185 25 prologue_end
	movl	(%rdi), %eax
	.loc	23 186 22
	addq	$8, %rsp
	popq	%rbp
	retq
Ltmp958:
Lfunc_end161:
	.cfi_endproc

	.globl	__ZN4core5slice29_$LT$impl$u20$$u5b$T$u5d$$GT$9ends_with17hcfedf24e8369b1acE
	.p2align	4, 0x90
__ZN4core5slice29_$LT$impl$u20$$u5b$T$u5d$$GT$9ends_with17hcfedf24e8369b1acE:
Lfunc_begin162:
	.loc	4 1460 0
	.cfi_startproc
	pushq	%rbp
	.cfi_def_cfa_offset 16
	.cfi_offset %rbp, -16
	movq	%rsp, %rbp
	.cfi_def_cfa_register %rbp
	subq	$176, %rsp
	movq	%rdx, -96(%rbp)
	movq	%rcx, -88(%rbp)
	movq	%rdi, -32(%rbp)
	movq	%rsi, -24(%rbp)
	movq	%rdi, -104(%rbp)
	movq	%rsi, -112(%rbp)
Ltmp959:
	.loc	4 1464 23 prologue_end
	callq	__ZN4core5slice29_$LT$impl$u20$$u5b$T$u5d$$GT$3len17h486ca3fc336839a0E
	movq	%rax, -120(%rbp)
	.loc	4 1464 35 is_stmt 0
	movq	-96(%rbp), %rdi
	movq	-88(%rbp), %rsi
	callq	__ZN4core5slice29_$LT$impl$u20$$u5b$T$u5d$$GT$3len17h486ca3fc336839a0E
	movq	%rax, -128(%rbp)
	.loc	4 0 35
	movq	-120(%rbp), %rax
	.loc	4 1464 22
	movq	%rax, -72(%rbp)
	movq	-128(%rbp), %rcx
	movq	%rcx, -64(%rbp)
	.loc	4 1464 14
	movq	-72(%rbp), %rdx
	movq	%rdx, -16(%rbp)
	.loc	4 1464 17
	movq	-64(%rbp), %rsi
	movq	%rsi, -8(%rbp)
Ltmp960:
	.loc	4 1465 9 is_stmt 1
	cmpq	%rsi, %rdx
	movq	%rdx, -136(%rbp)
	movq	%rsi, -144(%rbp)
	jae	LBB162_5
	jmp	LBB162_4
LBB162_3:
	movb	$1, -73(%rbp)
	jmp	LBB162_6
LBB162_4:
	movb	$0, -73(%rbp)
	jmp	LBB162_6
LBB162_5:
	.loc	4 0 9 is_stmt 0
	leaq	l___unnamed_2(%rip), %rax
	movq	-136(%rbp), %rcx
	movq	-144(%rbp), %rdx
	.loc	4 1465 35
	subq	%rdx, %rcx
	movq	%rcx, -40(%rbp)
	.loc	4 1465 30
	movq	-40(%rbp), %rdx
	movq	-104(%rbp), %rdi
	movq	-112(%rbp), %rsi
	movq	%rax, %rcx
	callq	__ZN4core5slice74_$LT$impl$u20$core..ops..index..Index$LT$I$GT$$u20$for$u20$$u5b$T$u5d$$GT$5index17hc56fcf1c036b0f20E
	movq	%rax, -152(%rbp)
	movq	%rdx, -160(%rbp)
	jmp	LBB162_7
Ltmp961:
LBB162_6:
	.loc	4 1466 6 is_stmt 1
	movb	-73(%rbp), %al
	andb	$1, %al
	movzbl	%al, %eax
	addq	$176, %rsp
	popq	%rbp
	retq
LBB162_7:
	.loc	4 0 6 is_stmt 0
	movq	-152(%rbp), %rax
Ltmp962:
	.loc	4 1465 29 is_stmt 1
	movq	%rax, -56(%rbp)
	movq	-160(%rbp), %rcx
	movq	%rcx, -48(%rbp)
	.loc	4 1465 19 is_stmt 0
	leaq	-96(%rbp), %rdi
	leaq	-56(%rbp), %rsi
	callq	__ZN4core3cmp5impls69_$LT$impl$u20$core..cmp..PartialEq$LT$$RF$B$GT$$u20$for$u20$$RF$A$GT$2eq17hbcb548e96a41b4d8E
	movb	%al, -161(%rbp)
	.loc	4 0 19
	movb	-161(%rbp), %al
	.loc	4 1465 9
	testb	$1, %al
	jne	LBB162_3
	jmp	LBB162_4
Ltmp963:
Lfunc_end162:
	.cfi_endproc

	.globl	__ZN4core5slice74_$LT$impl$u20$core..ops..index..Index$LT$I$GT$$u20$for$u20$$u5b$T$u5d$$GT$5index17hc56fcf1c036b0f20E
	.p2align	4, 0x90
__ZN4core5slice74_$LT$impl$u20$core..ops..index..Index$LT$I$GT$$u20$for$u20$$u5b$T$u5d$$GT$5index17hc56fcf1c036b0f20E:
Lfunc_begin163:
	.loc	4 2958 0 is_stmt 1
	.cfi_startproc
	pushq	%rbp
	.cfi_def_cfa_offset 16
	.cfi_offset %rbp, -16
	movq	%rsp, %rbp
	.cfi_def_cfa_register %rbp
	subq	$64, %rsp
	movq	%rdi, -24(%rbp)
	movq	%rsi, -16(%rbp)
	movq	%rdx, -8(%rbp)
	movq	%rdi, -32(%rbp)
Ltmp964:
	.loc	4 2959 9 prologue_end
	movq	%rdx, %rdi
	movq	-32(%rbp), %rax
	movq	%rsi, -40(%rbp)
	movq	%rax, %rsi
	movq	-40(%rbp), %rdx
	callq	__ZN103_$LT$core..ops..range..RangeFrom$LT$usize$GT$$u20$as$u20$core..slice..SliceIndex$LT$$u5b$T$u5d$$GT$$GT$5index17h70b2e73045e4db38E
	movq	%rax, -48(%rbp)
	movq	%rdx, -56(%rbp)
	.loc	4 0 9 is_stmt 0
	movq	-48(%rbp), %rax
	movq	-56(%rbp), %rdx
	.loc	4 2960 6 is_stmt 1
	addq	$64, %rsp
	popq	%rbp
	retq
Ltmp965:
Lfunc_end163:
	.cfi_endproc

	.globl	__ZN4core6option15Option$LT$T$GT$14unwrap_or_else17hd217f9d61d587667E
	.p2align	4, 0x90
__ZN4core6option15Option$LT$T$GT$14unwrap_or_else17hd217f9d61d587667E:
Lfunc_begin164:
	.file	24 "/rustc/6c8927b0cf80ceee19386026cf9d7fd4fd9d486f/src/libcore/option.rs"
	.loc	24 425 0
	.cfi_startproc
	.cfi_personality 155, _rust_eh_personality
	.cfi_lsda 16, Lexception31
	pushq	%rbp
	.cfi_def_cfa_offset 16
	.cfi_offset %rbp, -16
	movq	%rsp, %rbp
	.cfi_def_cfa_register %rbp
	subq	$80, %rsp
	movq	%rdi, -56(%rbp)
	movq	-56(%rbp), %rax
	movq	%rax, -64(%rbp)
Ltmp969:
	.loc	24 427 13 prologue_end
	movb	$0, -33(%rbp)
	movb	$1, -33(%rbp)
	movl	-64(%rbp), %ecx
	movl	%ecx, %eax
	testq	%rax, %rax
	je	LBB164_1
	jmp	LBB164_10
LBB164_10:
	jmp	LBB164_3
LBB164_1:
	.loc	24 428 21
	movb	$0, -33(%rbp)
Ltmp966:
	callq	__ZN4core3ops8function6FnOnce9call_once17h8cdbf2dea07e8a32E
Ltmp967:
	movl	%eax, -68(%rbp)
	jmp	LBB164_4
	.loc	24 426 15
	ud2
LBB164_3:
	.loc	24 427 18
	movl	-60(%rbp), %eax
	movl	%eax, -40(%rbp)
Ltmp970:
	.loc	24 427 24 is_stmt 0
	movl	-40(%rbp), %eax
	movl	%eax, -48(%rbp)
Ltmp971:
	.loc	24 426 9 is_stmt 1
	jmp	LBB164_8
LBB164_4:
	.loc	24 0 9 is_stmt 0
	movl	-68(%rbp), %eax
	.loc	24 428 21 is_stmt 1
	movl	%eax, -4(%rbp)
	movl	-4(%rbp), %ecx
	movl	%ecx, -48(%rbp)
	.loc	24 426 9
	jmp	LBB164_8
LBB164_5:
	.loc	24 430 6
	movl	-48(%rbp), %eax
	addq	$80, %rsp
	popq	%rbp
	retq
LBB164_6:
	.loc	24 425 5
	movq	-24(%rbp), %rdi
	callq	__Unwind_Resume
	ud2
LBB164_7:
	.loc	24 430 5
	movb	$0, -33(%rbp)
	jmp	LBB164_5
LBB164_8:
	testb	$1, -33(%rbp)
	jne	LBB164_7
	jmp	LBB164_5
Ltmp972:
LBB164_9:
Ltmp968:
	.loc	24 0 5 is_stmt 0
	movq	%rax, -24(%rbp)
	movl	%edx, -16(%rbp)
	jmp	LBB164_6
Lfunc_end164:
	.cfi_endproc
	.section	__TEXT,__gcc_except_tab
	.p2align	2
GCC_except_table164:
Lexception31:
	.byte	255
	.byte	255
	.byte	1
	.uleb128 Lcst_end31-Lcst_begin31
Lcst_begin31:
	.uleb128 Ltmp966-Lfunc_begin164
	.uleb128 Ltmp967-Ltmp966
	.uleb128 Ltmp968-Lfunc_begin164
	.byte	0
	.uleb128 Ltmp967-Lfunc_begin164
	.uleb128 Lfunc_end164-Ltmp967
	.byte	0
	.byte	0
Lcst_end31:
	.p2align	2

	.section	__TEXT,__text,regular,pure_instructions
	.globl	__ZN4core6option15Option$LT$T$GT$3map17h3e5faaa713072632E
	.p2align	4, 0x90
__ZN4core6option15Option$LT$T$GT$3map17h3e5faaa713072632E:
Lfunc_begin165:
	.loc	24 454 0 is_stmt 1
	.cfi_startproc
	.cfi_personality 155, _rust_eh_personality
	.cfi_lsda 16, Lexception32
	pushq	%rbp
	.cfi_def_cfa_offset 16
	.cfi_offset %rbp, -16
	movq	%rsp, %rbp
	.cfi_def_cfa_register %rbp
	subq	$224, %rsp
	movq	%rsi, -32(%rbp)
Ltmp976:
	.loc	24 456 13 prologue_end
	movb	$0, -33(%rbp)
	movb	$1, -33(%rbp)
	movl	(%rdi), %eax
	addl	$-4, %eax
	setne	%cl
	movzbl	%cl, %edx
	movl	%edx, %r8d
	movq	%rdi, -208(%rbp)
Ltmp977:
	.loc	24 0 13 is_stmt 0
	movq	%rsi, -216(%rbp)
	.loc	24 456 13
	je	LBB165_1
	jmp	LBB165_10
Ltmp978:
LBB165_10:
	jmp	LBB165_3
Ltmp979:
LBB165_1:
	.loc	24 457 21 is_stmt 1
	movl	$4, -200(%rbp)
	.loc	24 455 9
	jmp	LBB165_8
Ltmp980:
	.loc	24 455 15 is_stmt 0
	ud2
LBB165_3:
Ltmp981:
	.loc	24 0 15
	movq	-208(%rbp), %rax
	.loc	24 456 18 is_stmt 1
	movq	40(%rax), %rcx
	movq	%rcx, -152(%rbp)
	movq	32(%rax), %rcx
	movq	%rcx, -160(%rbp)
	movq	24(%rax), %rcx
	movq	%rcx, -168(%rbp)
	movq	16(%rax), %rcx
	movq	%rcx, -176(%rbp)
	movq	(%rax), %rcx
	movq	8(%rax), %rdx
	movq	%rdx, -184(%rbp)
	movq	%rcx, -192(%rbp)
Ltmp982:
	.loc	24 456 29 is_stmt 0
	movb	$0, -33(%rbp)
	.loc	24 456 31
	movq	-152(%rbp), %rcx
	movq	%rcx, -48(%rbp)
	movq	-160(%rbp), %rcx
	movq	%rcx, -56(%rbp)
	movq	-168(%rbp), %rcx
	movq	%rcx, -64(%rbp)
	movq	-176(%rbp), %rcx
	movq	%rcx, -72(%rbp)
	movq	-192(%rbp), %rcx
	movq	-184(%rbp), %rdx
	movq	%rdx, -80(%rbp)
	movq	%rcx, -88(%rbp)
	.loc	24 456 29
	movq	-48(%rbp), %rcx
	movq	%rcx, -96(%rbp)
	movq	-56(%rbp), %rcx
	movq	%rcx, -104(%rbp)
	movq	-64(%rbp), %rcx
	movq	%rcx, -112(%rbp)
	movq	-72(%rbp), %rcx
	movq	%rcx, -120(%rbp)
	movq	-88(%rbp), %rcx
	movq	-80(%rbp), %rdx
	movq	%rdx, -128(%rbp)
	movq	%rcx, -136(%rbp)
Ltmp973:
	leaq	-136(%rbp), %rsi
	movq	-216(%rbp), %rdi
	callq	__ZN4core3ops8function5impls80_$LT$impl$u20$core..ops..function..FnOnce$LT$A$GT$$u20$for$u20$$RF$mut$u20$F$GT$9call_once17h31b1ec9822face86E
Ltmp974:
	movq	%rax, -224(%rbp)
	jmp	LBB165_4
Ltmp983:
LBB165_4:
	.loc	24 0 29
	movq	-224(%rbp), %rax
	.loc	24 456 29
	movq	%rax, -8(%rbp)
	movq	-8(%rbp), %rcx
	movq	%rcx, -144(%rbp)
	.loc	24 456 24
	movq	-144(%rbp), %rcx
	movq	%rcx, -200(%rbp)
Ltmp984:
	.loc	24 459 5 is_stmt 1
	jmp	LBB165_8
Ltmp985:
LBB165_5:
	.loc	24 459 6 is_stmt 0
	movq	-200(%rbp), %rax
	addq	$224, %rsp
	popq	%rbp
	retq
Ltmp986:
LBB165_6:
	.loc	24 454 5 is_stmt 1
	movq	-24(%rbp), %rdi
	callq	__Unwind_Resume
	ud2
Ltmp987:
LBB165_7:
	.loc	24 459 5
	movb	$0, -33(%rbp)
	jmp	LBB165_5
Ltmp988:
LBB165_8:
	testb	$1, -33(%rbp)
	jne	LBB165_7
	jmp	LBB165_5
Ltmp989:
LBB165_9:
Ltmp975:
	.loc	24 0 5 is_stmt 0
	movq	%rax, -24(%rbp)
	movl	%edx, -16(%rbp)
	jmp	LBB165_6
Lfunc_end165:
	.cfi_endproc
	.section	__TEXT,__gcc_except_tab
	.p2align	2
GCC_except_table165:
Lexception32:
	.byte	255
	.byte	255
	.byte	1
	.uleb128 Lcst_end32-Lcst_begin32
Lcst_begin32:
	.uleb128 Ltmp973-Lfunc_begin165
	.uleb128 Ltmp974-Ltmp973
	.uleb128 Ltmp975-Lfunc_begin165
	.byte	0
	.uleb128 Ltmp974-Lfunc_begin165
	.uleb128 Lfunc_end165-Ltmp974
	.byte	0
	.byte	0
Lcst_end32:
	.p2align	2

	.section	__TEXT,__text,regular,pure_instructions
	.globl	__ZN4core6option15Option$LT$T$GT$3map17h863949d8aa76af9fE
	.p2align	4, 0x90
__ZN4core6option15Option$LT$T$GT$3map17h863949d8aa76af9fE:
Lfunc_begin166:
	.loc	24 454 0 is_stmt 1
	.cfi_startproc
	.cfi_personality 155, _rust_eh_personality
	.cfi_lsda 16, Lexception33
	pushq	%rbp
	.cfi_def_cfa_offset 16
	.cfi_offset %rbp, -16
	movq	%rsp, %rbp
	.cfi_def_cfa_register %rbp
	subq	$256, %rsp
	movq	%rdi, %rax
	movq	%rdx, -24(%rbp)
Ltmp993:
	.loc	24 456 13 prologue_end
	movb	$0, -25(%rbp)
	movb	$1, -25(%rbp)
	movl	(%rsi), %ecx
	addl	$-4, %ecx
	setne	%r8b
	movzbl	%r8b, %r9d
	movl	%r9d, %r10d
	movq	%rdx, -232(%rbp)
	movq	%rsi, -240(%rbp)
Ltmp994:
	.loc	24 0 13 is_stmt 0
	movq	%rdi, -248(%rbp)
	movq	%rax, -256(%rbp)
	.loc	24 456 13
	je	LBB166_1
	jmp	LBB166_10
Ltmp995:
LBB166_10:
	jmp	LBB166_3
Ltmp996:
LBB166_1:
	.loc	24 0 13
	movq	-248(%rbp), %rax
	.loc	24 457 21 is_stmt 1
	movl	$4, (%rax)
	.loc	24 455 9
	jmp	LBB166_8
Ltmp997:
	.loc	24 455 15 is_stmt 0
	ud2
LBB166_3:
Ltmp998:
	.loc	24 0 15
	movq	-240(%rbp), %rax
	.loc	24 456 18 is_stmt 1
	movq	40(%rax), %rcx
	movq	%rcx, -184(%rbp)
	movq	32(%rax), %rcx
	movq	%rcx, -192(%rbp)
	movq	24(%rax), %rcx
	movq	%rcx, -200(%rbp)
	movq	16(%rax), %rcx
	movq	%rcx, -208(%rbp)
	movq	(%rax), %rcx
	movq	8(%rax), %rdx
	movq	%rdx, -216(%rbp)
	movq	%rcx, -224(%rbp)
Ltmp999:
	.loc	24 456 29 is_stmt 0
	movb	$0, -25(%rbp)
	.loc	24 456 31
	movq	-184(%rbp), %rcx
	movq	%rcx, -40(%rbp)
	movq	-192(%rbp), %rcx
	movq	%rcx, -48(%rbp)
	movq	-200(%rbp), %rcx
	movq	%rcx, -56(%rbp)
	movq	-208(%rbp), %rcx
	movq	%rcx, -64(%rbp)
	movq	-224(%rbp), %rcx
	movq	-216(%rbp), %rdx
	movq	%rdx, -72(%rbp)
	movq	%rcx, -80(%rbp)
	.loc	24 456 29
	movq	-40(%rbp), %rcx
	movq	%rcx, -88(%rbp)
	movq	-48(%rbp), %rcx
	movq	%rcx, -96(%rbp)
	movq	-56(%rbp), %rcx
	movq	%rcx, -104(%rbp)
	movq	-64(%rbp), %rcx
	movq	%rcx, -112(%rbp)
	movq	-80(%rbp), %rcx
	movq	-72(%rbp), %rdx
	movq	%rdx, -120(%rbp)
	movq	%rcx, -128(%rbp)
Ltmp990:
	leaq	-176(%rbp), %rdi
	leaq	-128(%rbp), %rdx
	movq	-232(%rbp), %rsi
	callq	__ZN4core3ops8function5impls80_$LT$impl$u20$core..ops..function..FnOnce$LT$A$GT$$u20$for$u20$$RF$mut$u20$F$GT$9call_once17hbfb9039823cce08aE
Ltmp991:
	jmp	LBB166_4
Ltmp1000:
LBB166_4:
	.loc	24 0 29
	movq	-248(%rbp), %rax
	.loc	24 456 24
	leaq	-176(%rbp), %rcx
	movq	%rax, %rdi
	movq	%rcx, %rsi
	movl	$48, %edx
	callq	_memcpy
Ltmp1001:
	.loc	24 459 5 is_stmt 1
	jmp	LBB166_8
Ltmp1002:
LBB166_5:
	.loc	24 0 5 is_stmt 0
	movq	-256(%rbp), %rax
	.loc	24 459 6
	addq	$256, %rsp
	popq	%rbp
	retq
Ltmp1003:
LBB166_6:
	.loc	24 454 5 is_stmt 1
	movq	-16(%rbp), %rdi
	callq	__Unwind_Resume
	ud2
Ltmp1004:
LBB166_7:
	.loc	24 459 5
	movb	$0, -25(%rbp)
	jmp	LBB166_5
Ltmp1005:
LBB166_8:
	testb	$1, -25(%rbp)
	jne	LBB166_7
	jmp	LBB166_5
Ltmp1006:
LBB166_9:
Ltmp992:
	.loc	24 0 5 is_stmt 0
	movq	%rax, -16(%rbp)
	movl	%edx, -8(%rbp)
	jmp	LBB166_6
Lfunc_end166:
	.cfi_endproc
	.section	__TEXT,__gcc_except_tab
	.p2align	2
GCC_except_table166:
Lexception33:
	.byte	255
	.byte	255
	.byte	1
	.uleb128 Lcst_end33-Lcst_begin33
Lcst_begin33:
	.uleb128 Ltmp990-Lfunc_begin166
	.uleb128 Ltmp991-Ltmp990
	.uleb128 Ltmp992-Lfunc_begin166
	.byte	0
	.uleb128 Ltmp991-Lfunc_begin166
	.uleb128 Lfunc_end166-Ltmp991
	.byte	0
	.byte	0
Lcst_end33:
	.p2align	2

	.section	__TEXT,__text,regular,pure_instructions
	.globl	__ZN4core6option15Option$LT$T$GT$3map17hef378d172aebbb7bE
	.p2align	4, 0x90
__ZN4core6option15Option$LT$T$GT$3map17hef378d172aebbb7bE:
Lfunc_begin167:
	.loc	24 454 0 is_stmt 1
	.cfi_startproc
	.cfi_personality 155, _rust_eh_personality
	.cfi_lsda 16, Lexception34
	pushq	%rbp
	.cfi_def_cfa_offset 16
	.cfi_offset %rbp, -16
	movq	%rsp, %rbp
	.cfi_def_cfa_register %rbp
	subq	$208, %rsp
	movq	%rdi, %rax
	movq	%rdx, -24(%rbp)
Ltmp1010:
	.loc	24 456 13 prologue_end
	movb	$0, -25(%rbp)
	movb	$1, -25(%rbp)
	movq	(%rsi), %rcx
	addq	$-2, %rcx
	setne	%r8b
	movzbl	%r8b, %r9d
	movl	%r9d, %r10d
	movq	%rdx, -184(%rbp)
	movq	%rsi, -192(%rbp)
Ltmp1011:
	.loc	24 0 13 is_stmt 0
	movq	%rdi, -200(%rbp)
	movq	%rax, -208(%rbp)
	.loc	24 456 13
	je	LBB167_1
	jmp	LBB167_10
Ltmp1012:
LBB167_10:
	jmp	LBB167_3
Ltmp1013:
LBB167_1:
	.loc	24 0 13
	movq	-200(%rbp), %rax
	.loc	24 457 21 is_stmt 1
	movq	$0, (%rax)
	.loc	24 455 9
	jmp	LBB167_8
Ltmp1014:
	.loc	24 455 15 is_stmt 0
	ud2
LBB167_3:
Ltmp1015:
	.loc	24 0 15
	movq	-192(%rbp), %rax
	.loc	24 456 18 is_stmt 1
	movq	32(%rax), %rcx
	movq	%rcx, -144(%rbp)
	movq	24(%rax), %rcx
	movq	%rcx, -152(%rbp)
	movq	16(%rax), %rcx
	movq	%rcx, -160(%rbp)
	movq	(%rax), %rcx
	movq	8(%rax), %rdx
	movq	%rdx, -168(%rbp)
	movq	%rcx, -176(%rbp)
Ltmp1016:
	.loc	24 456 29 is_stmt 0
	movb	$0, -25(%rbp)
	.loc	24 456 31
	movq	-144(%rbp), %rcx
	movq	%rcx, -40(%rbp)
	movq	-152(%rbp), %rcx
	movq	%rcx, -48(%rbp)
	movq	-160(%rbp), %rcx
	movq	%rcx, -56(%rbp)
	movq	-176(%rbp), %rcx
	movq	-168(%rbp), %rdx
	movq	%rdx, -64(%rbp)
	movq	%rcx, -72(%rbp)
	.loc	24 456 29
	movq	-40(%rbp), %rcx
	movq	%rcx, -80(%rbp)
	movq	-48(%rbp), %rcx
	movq	%rcx, -88(%rbp)
	movq	-56(%rbp), %rcx
	movq	%rcx, -96(%rbp)
	movq	-72(%rbp), %rcx
	movq	-64(%rbp), %rdx
	movq	%rdx, -104(%rbp)
	movq	%rcx, -112(%rbp)
Ltmp1007:
	leaq	-136(%rbp), %rdi
	leaq	-112(%rbp), %rdx
	movq	-184(%rbp), %rsi
	callq	__ZN4core3ops8function5impls80_$LT$impl$u20$core..ops..function..FnOnce$LT$A$GT$$u20$for$u20$$RF$mut$u20$F$GT$9call_once17hfbb570fb535b42aaE
Ltmp1008:
	jmp	LBB167_4
Ltmp1017:
LBB167_4:
	.loc	24 456 24
	movq	-136(%rbp), %rax
	movq	-200(%rbp), %rcx
	movq	%rax, (%rcx)
	movq	-128(%rbp), %rax
	movq	%rax, 8(%rcx)
	movq	-120(%rbp), %rax
	movq	%rax, 16(%rcx)
Ltmp1018:
	.loc	24 459 5 is_stmt 1
	jmp	LBB167_8
Ltmp1019:
LBB167_5:
	.loc	24 0 5 is_stmt 0
	movq	-208(%rbp), %rax
	.loc	24 459 6
	addq	$208, %rsp
	popq	%rbp
	retq
Ltmp1020:
LBB167_6:
	.loc	24 454 5 is_stmt 1
	movq	-16(%rbp), %rdi
	callq	__Unwind_Resume
	ud2
Ltmp1021:
LBB167_7:
	.loc	24 459 5
	movb	$0, -25(%rbp)
	jmp	LBB167_5
Ltmp1022:
LBB167_8:
	testb	$1, -25(%rbp)
	jne	LBB167_7
	jmp	LBB167_5
Ltmp1023:
LBB167_9:
Ltmp1009:
	.loc	24 0 5 is_stmt 0
	movq	%rax, -16(%rbp)
	movl	%edx, -8(%rbp)
	jmp	LBB167_6
Lfunc_end167:
	.cfi_endproc
	.section	__TEXT,__gcc_except_tab
	.p2align	2
GCC_except_table167:
Lexception34:
	.byte	255
	.byte	255
	.byte	1
	.uleb128 Lcst_end34-Lcst_begin34
Lcst_begin34:
	.uleb128 Ltmp1007-Lfunc_begin167
	.uleb128 Ltmp1008-Ltmp1007
	.uleb128 Ltmp1009-Lfunc_begin167
	.byte	0
	.uleb128 Ltmp1008-Lfunc_begin167
	.uleb128 Lfunc_end167-Ltmp1008
	.byte	0
	.byte	0
Lcst_end34:
	.p2align	2

	.section	__TEXT,__text,regular,pure_instructions
	.globl	__ZN4core6option15Option$LT$T$GT$3map17hfecc817681468714E
	.p2align	4, 0x90
__ZN4core6option15Option$LT$T$GT$3map17hfecc817681468714E:
Lfunc_begin168:
	.loc	24 454 0 is_stmt 1
	.cfi_startproc
	.cfi_personality 155, _rust_eh_personality
	.cfi_lsda 16, Lexception35
	pushq	%rbp
	.cfi_def_cfa_offset 16
	.cfi_offset %rbp, -16
	movq	%rsp, %rbp
	.cfi_def_cfa_register %rbp
	subq	$224, %rsp
	movq	%rdi, %rax
	movq	%rdx, -24(%rbp)
Ltmp1027:
	.loc	24 456 13 prologue_end
	movb	$0, -25(%rbp)
	movb	$1, -25(%rbp)
	movq	(%rsi), %rcx
	addq	$-2, %rcx
	setne	%r8b
	movzbl	%r8b, %r9d
	movl	%r9d, %r10d
	movq	%rdx, -200(%rbp)
	movq	%rsi, -208(%rbp)
Ltmp1028:
	.loc	24 0 13 is_stmt 0
	movq	%rdi, -216(%rbp)
	movq	%rax, -224(%rbp)
	.loc	24 456 13
	je	LBB168_1
	jmp	LBB168_10
Ltmp1029:
LBB168_10:
	jmp	LBB168_3
Ltmp1030:
LBB168_1:
	.loc	24 0 13
	movq	-216(%rbp), %rax
	.loc	24 457 21 is_stmt 1
	movq	$2, (%rax)
	.loc	24 455 9
	jmp	LBB168_8
Ltmp1031:
	.loc	24 455 15 is_stmt 0
	ud2
LBB168_3:
Ltmp1032:
	.loc	24 0 15
	movq	-208(%rbp), %rax
	.loc	24 456 18 is_stmt 1
	movq	32(%rax), %rcx
	movq	%rcx, -160(%rbp)
	movq	24(%rax), %rcx
	movq	%rcx, -168(%rbp)
	movq	16(%rax), %rcx
	movq	%rcx, -176(%rbp)
	movq	(%rax), %rcx
	movq	8(%rax), %rdx
	movq	%rdx, -184(%rbp)
	movq	%rcx, -192(%rbp)
Ltmp1033:
	.loc	24 456 29 is_stmt 0
	movb	$0, -25(%rbp)
	.loc	24 456 31
	movq	-160(%rbp), %rcx
	movq	%rcx, -40(%rbp)
	movq	-168(%rbp), %rcx
	movq	%rcx, -48(%rbp)
	movq	-176(%rbp), %rcx
	movq	%rcx, -56(%rbp)
	movq	-192(%rbp), %rcx
	movq	-184(%rbp), %rdx
	movq	%rdx, -64(%rbp)
	movq	%rcx, -72(%rbp)
	.loc	24 456 29
	movq	-40(%rbp), %rcx
	movq	%rcx, -80(%rbp)
	movq	-48(%rbp), %rcx
	movq	%rcx, -88(%rbp)
	movq	-56(%rbp), %rcx
	movq	%rcx, -96(%rbp)
	movq	-72(%rbp), %rcx
	movq	-64(%rbp), %rdx
	movq	%rdx, -104(%rbp)
	movq	%rcx, -112(%rbp)
Ltmp1024:
	leaq	-152(%rbp), %rdi
	leaq	-112(%rbp), %rdx
	movq	-200(%rbp), %rsi
	callq	__ZN4core3ops8function5impls80_$LT$impl$u20$core..ops..function..FnOnce$LT$A$GT$$u20$for$u20$$RF$mut$u20$F$GT$9call_once17h294ccbc8ba9afef9E
Ltmp1025:
	jmp	LBB168_4
Ltmp1034:
LBB168_4:
	.loc	24 0 29
	movq	-216(%rbp), %rax
	.loc	24 456 24
	leaq	-152(%rbp), %rcx
	movq	%rax, %rdi
	movq	%rcx, %rsi
	movl	$40, %edx
	callq	_memcpy
Ltmp1035:
	.loc	24 459 5 is_stmt 1
	jmp	LBB168_8
Ltmp1036:
LBB168_5:
	.loc	24 0 5 is_stmt 0
	movq	-224(%rbp), %rax
	.loc	24 459 6
	addq	$224, %rsp
	popq	%rbp
	retq
Ltmp1037:
LBB168_6:
	.loc	24 454 5 is_stmt 1
	movq	-16(%rbp), %rdi
	callq	__Unwind_Resume
	ud2
Ltmp1038:
LBB168_7:
	.loc	24 459 5
	movb	$0, -25(%rbp)
	jmp	LBB168_5
Ltmp1039:
LBB168_8:
	testb	$1, -25(%rbp)
	jne	LBB168_7
	jmp	LBB168_5
Ltmp1040:
LBB168_9:
Ltmp1026:
	.loc	24 0 5 is_stmt 0
	movq	%rax, -16(%rbp)
	movl	%edx, -8(%rbp)
	jmp	LBB168_6
Lfunc_end168:
	.cfi_endproc
	.section	__TEXT,__gcc_except_tab
	.p2align	2
GCC_except_table168:
Lexception35:
	.byte	255
	.byte	255
	.byte	1
	.uleb128 Lcst_end35-Lcst_begin35
Lcst_begin35:
	.uleb128 Ltmp1024-Lfunc_begin168
	.uleb128 Ltmp1025-Ltmp1024
	.uleb128 Ltmp1026-Lfunc_begin168
	.byte	0
	.uleb128 Ltmp1025-Lfunc_begin168
	.uleb128 Lfunc_end168-Ltmp1025
	.byte	0
	.byte	0
Lcst_end35:
	.p2align	2

	.section	__TEXT,__text,regular,pure_instructions
	.globl	__ZN4core6option15Option$LT$T$GT$4take17h6800c64e9f384512E
	.p2align	4, 0x90
__ZN4core6option15Option$LT$T$GT$4take17h6800c64e9f384512E:
Lfunc_begin169:
	.loc	24 891 0 is_stmt 1
	.cfi_startproc
	pushq	%rbp
	.cfi_def_cfa_offset 16
	.cfi_offset %rbp, -16
	movq	%rsp, %rbp
	.cfi_def_cfa_register %rbp
	subq	$16, %rsp
	movq	%rdi, %rax
	movq	%rsi, -8(%rbp)
	movq	%rax, -16(%rbp)
Ltmp1041:
	.loc	24 892 9 prologue_end
	callq	__ZN4core3mem4take17h2d0ebb80c9e89cb2E
	.loc	24 0 9 is_stmt 0
	movq	-16(%rbp), %rax
	.loc	24 893 6 is_stmt 1
	addq	$16, %rsp
	popq	%rbp
	retq
Ltmp1042:
Lfunc_end169:
	.cfi_endproc

	.globl	__ZN4core6option15Option$LT$T$GT$4take17h9f46385f8be2a2f6E
	.p2align	4, 0x90
__ZN4core6option15Option$LT$T$GT$4take17h9f46385f8be2a2f6E:
Lfunc_begin170:
	.loc	24 891 0
	.cfi_startproc
	pushq	%rbp
	.cfi_def_cfa_offset 16
	.cfi_offset %rbp, -16
	movq	%rsp, %rbp
	.cfi_def_cfa_register %rbp
	subq	$16, %rsp
	movq	%rdi, %rax
	movq	%rsi, -8(%rbp)
	movq	%rax, -16(%rbp)
Ltmp1043:
	.loc	24 892 9 prologue_end
	callq	__ZN4core3mem4take17h898df11fa83ea438E
	.loc	24 0 9 is_stmt 0
	movq	-16(%rbp), %rax
	.loc	24 893 6 is_stmt 1
	addq	$16, %rsp
	popq	%rbp
	retq
Ltmp1044:
Lfunc_end170:
	.cfi_endproc

	.globl	__ZN4core6option15Option$LT$T$GT$5ok_or17hafc46e34f23bf53dE
	.p2align	4, 0x90
__ZN4core6option15Option$LT$T$GT$5ok_or17hafc46e34f23bf53dE:
Lfunc_begin171:
	.loc	24 536 0
	.cfi_startproc
	pushq	%rbp
	.cfi_def_cfa_offset 16
	.cfi_offset %rbp, -16
	movq	%rsp, %rbp
	.cfi_def_cfa_register %rbp
	subq	$56, %rsp
	movq	%rdi, -56(%rbp)
Ltmp1045:
	.loc	24 538 13 prologue_end
	movb	$0, -33(%rbp)
	movb	$1, -33(%rbp)
	movq	-56(%rbp), %rax
	testq	%rax, %rax
	setne	%cl
	movzbl	%cl, %edx
	movl	%edx, %eax
	je	LBB171_1
	jmp	LBB171_7
LBB171_7:
	jmp	LBB171_3
LBB171_1:
	.loc	24 539 25
	movb	$0, -33(%rbp)
	.loc	24 539 21 is_stmt 0
	movq	$0, -48(%rbp)
	.loc	24 537 9 is_stmt 1
	jmp	LBB171_4
	.loc	24 537 15 is_stmt 0
	ud2
LBB171_3:
	.loc	24 538 18 is_stmt 1
	movq	-56(%rbp), %rax
	movq	%rax, -24(%rbp)
Ltmp1046:
	.loc	24 538 24 is_stmt 0
	movq	%rax, -48(%rbp)
Ltmp1047:
LBB171_4:
	.loc	24 541 5 is_stmt 1
	testb	$1, -33(%rbp)
	jne	LBB171_6
LBB171_5:
	.loc	24 541 6 is_stmt 0
	movq	-48(%rbp), %rax
	addq	$56, %rsp
	popq	%rbp
	retq
LBB171_6:
	.loc	24 541 5
	movb	$0, -33(%rbp)
	jmp	LBB171_5
Ltmp1048:
Lfunc_end171:
	.cfi_endproc

	.globl	__ZN4core6option15Option$LT$T$GT$6as_mut17hba1429353813594bE
	.p2align	4, 0x90
__ZN4core6option15Option$LT$T$GT$6as_mut17hba1429353813594bE:
Lfunc_begin172:
	.loc	24 287 0 is_stmt 1
	.cfi_startproc
	pushq	%rbp
	.cfi_def_cfa_offset 16
	.cfi_offset %rbp, -16
	movq	%rsp, %rbp
	.cfi_def_cfa_register %rbp
	subq	$32, %rsp
	movq	%rdi, -16(%rbp)
Ltmp1049:
	.loc	24 289 13 prologue_end
	movq	(%rdi), %rax
	testq	%rax, %rax
	setne	%cl
	movzbl	%cl, %edx
	movl	%edx, %eax
	movq	%rdi, -32(%rbp)
	je	LBB172_1
	jmp	LBB172_5
LBB172_5:
	jmp	LBB172_3
LBB172_1:
	.loc	24 290 21
	movq	$0, -24(%rbp)
	.loc	24 288 9
	jmp	LBB172_4
	.loc	24 288 15 is_stmt 0
	ud2
LBB172_3:
	.loc	24 0 15
	movq	-32(%rbp), %rax
	.loc	24 289 18 is_stmt 1
	movq	%rax, -8(%rbp)
Ltmp1050:
	.loc	24 289 32 is_stmt 0
	movq	%rax, -24(%rbp)
Ltmp1051:
LBB172_4:
	.loc	24 292 6 is_stmt 1
	movq	-24(%rbp), %rax
	addq	$32, %rsp
	popq	%rbp
	retq
Ltmp1052:
Lfunc_end172:
	.cfi_endproc

	.globl	__ZN4core6option15Option$LT$T$GT$6as_ref17he686f1950925a785E
	.p2align	4, 0x90
__ZN4core6option15Option$LT$T$GT$6as_ref17he686f1950925a785E:
Lfunc_begin173:
	.loc	24 266 0
	.cfi_startproc
	pushq	%rbp
	.cfi_def_cfa_offset 16
	.cfi_offset %rbp, -16
	movq	%rsp, %rbp
	.cfi_def_cfa_register %rbp
	subq	$32, %rsp
	movq	%rdi, -16(%rbp)
Ltmp1053:
	.loc	24 268 13 prologue_end
	movq	(%rdi), %rax
	testq	%rax, %rax
	setne	%cl
	movzbl	%cl, %edx
	movl	%edx, %eax
	movq	%rdi, -32(%rbp)
	je	LBB173_1
	jmp	LBB173_5
LBB173_5:
	jmp	LBB173_3
LBB173_1:
	.loc	24 269 21
	movq	$0, -24(%rbp)
	.loc	24 267 9
	jmp	LBB173_4
	.loc	24 267 15 is_stmt 0
	ud2
LBB173_3:
	.loc	24 0 15
	movq	-32(%rbp), %rax
	.loc	24 268 18 is_stmt 1
	movq	%rax, -8(%rbp)
Ltmp1054:
	.loc	24 268 28 is_stmt 0
	movq	%rax, -24(%rbp)
Ltmp1055:
LBB173_4:
	.loc	24 271 6 is_stmt 1
	movq	-24(%rbp), %rax
	addq	$32, %rsp
	popq	%rbp
	retq
Ltmp1056:
Lfunc_end173:
	.cfi_endproc

	.globl	__ZN4core6option15Option$LT$T$GT$6map_or17hd0754bedfcea0bd2E
	.p2align	4, 0x90
__ZN4core6option15Option$LT$T$GT$6map_or17hd0754bedfcea0bd2E:
Lfunc_begin174:
	.loc	24 481 0
	.cfi_startproc
	.cfi_personality 155, _rust_eh_personality
	.cfi_lsda 16, Lexception36
	pushq	%rbp
	.cfi_def_cfa_offset 16
	.cfi_offset %rbp, -16
	movq	%rsp, %rbp
	.cfi_def_cfa_register %rbp
	subq	$80, %rsp
	movq	%rdi, %rax
	movq	%rsi, -56(%rbp)
Ltmp1060:
	.loc	24 483 13 prologue_end
	movb	$0, -34(%rbp)
	movb	$0, -33(%rbp)
	movb	$1, -34(%rbp)
	movb	$1, -33(%rbp)
	movq	-56(%rbp), %rcx
	testq	%rcx, %rcx
	setne	%r8b
	movzbl	%r8b, %r9d
	movl	%r9d, %ecx
	movq	%rdx, -64(%rbp)
Ltmp1061:
	.loc	24 0 13 is_stmt 0
	movq	%rdi, -72(%rbp)
	movq	%rax, -80(%rbp)
	.loc	24 483 13
	je	LBB174_1
	jmp	LBB174_14
Ltmp1062:
LBB174_14:
	jmp	LBB174_3
Ltmp1063:
LBB174_1:
	.loc	24 484 21 is_stmt 1
	movb	$0, -34(%rbp)
	movq	-64(%rbp), %rax
	movq	(%rax), %rcx
	movq	-72(%rbp), %rdx
	movq	%rcx, (%rdx)
	movq	8(%rax), %rcx
	movq	%rcx, 8(%rdx)
	movq	16(%rax), %rcx
	movq	%rcx, 16(%rdx)
	.loc	24 482 9
	jmp	LBB174_11
Ltmp1064:
	.loc	24 482 15 is_stmt 0
	ud2
LBB174_3:
Ltmp1065:
	.loc	24 483 18 is_stmt 1
	movq	-56(%rbp), %rax
