	.section	__TEXT,__text,regular,pure_instructions
	.macosx_version_min 10, 7
	.p2align	4, 0x90
__ZN110_$LT$proc_macro2..TokenStream$u20$as$u20$core..iter..traits..collect..Extend$LT$proc_macro2..TokenTree$GT$$GT$6extend17h525ee41798119d70E:
Lfunc_begin0:
	.file	1 "/Users/yingyuhang/.cargo/registry/src/github.com-1ecc6299db9ec823/proc-macro2-1.0.18/src/lib.rs"
	.loc	1 210 0
	.cfi_startproc
	.cfi_personality 155, _rust_eh_personality
	.cfi_lsda 16, Lexception0
	pushq	%rbp
	.cfi_def_cfa_offset 16
	.cfi_offset %rbp, -16
	movq	%rsp, %rbp
	.cfi_def_cfa_register %rbp
Ltmp9:
	pushq	%r15
	pushq	%r14
	pushq	%r13
	pushq	%r12
	pushq	%rbx
	andq	$-32, %rsp
	subq	$288, %rsp
	.cfi_offset %rbx, -56
	.cfi_offset %r12, -48
	.cfi_offset %r13, -40
	.cfi_offset %r14, -32
	.cfi_offset %r15, -24
	.loc	1 211 27 prologue_end
	movq	40(%rsi), %rax
	movq	%rax, 176(%rsp)
	movq	32(%rsi), %rax
	movq	%rax, 168(%rsp)
	movq	24(%rsi), %rax
	movq	%rax, 160(%rsp)
	movq	16(%rsi), %rax
	movq	%rax, 152(%rsp)
	movq	(%rsi), %rax
	movq	8(%rsi), %rcx
	movq	%rcx, 144(%rsp)
	movq	%rax, 136(%rsp)
Ltmp10:
	.file	2 "/Users/yingyuhang/.cargo/registry/src/github.com-1ecc6299db9ec823/proc-macro2-1.0.18/src/wrapper.rs"
	.loc	2 0 0 is_stmt 0
	leaq	8(%rdi), %r15
Ltmp11:
	.loc	2 206 13 is_stmt 1
	cmpq	$1, (%rdi)
	jne	LBB0_17
Ltmp12:
	.file	3 "/rustc/a74d1862d4d87a56244958416fd05976c58ca1a8/src/libcore/iter/traits/iterator.rs"
	.loc	3 658 9
	movq	176(%rsp), %rax
	movq	%rax, 40(%rsp)
	movq	168(%rsp), %rcx
	movq	%rcx, 32(%rsp)
	movq	160(%rsp), %rdx
	movq	%rdx, 24(%rsp)
	movq	152(%rsp), %rdx
	movq	%rdx, 16(%rsp)
	movq	136(%rsp), %rdx
	movq	144(%rsp), %rsi
Ltmp13:
	movq	%rsi, 8(%rsp)
	movq	%rdx, (%rsp)
Ltmp14:
	.file	4 "/rustc/a74d1862d4d87a56244958416fd05976c58ca1a8/src/libcore/option.rs"
	.loc	4 1310 9
	movl	$4, 64(%rsp)
Ltmp15:
	.file	5 "/rustc/a74d1862d4d87a56244958416fd05976c58ca1a8/src/libcore/intrinsics.rs"
	.loc	5 2058 5
	movups	16(%rsp), %xmm0
	movups	(%rsp), %xmm1
Ltmp16:
	.loc	5 2058 5 is_stmt 0
	movdqa	64(%rsp), %xmm3
	movdqa	80(%rsp), %xmm2
	movdqu	%xmm2, 16(%rsp)
	movdqu	%xmm3, (%rsp)
Ltmp17:
	.file	6 "/rustc/a74d1862d4d87a56244958416fd05976c58ca1a8/src/libcore/mem/mod.rs"
	.loc	6 806 5 is_stmt 1
	movq	%rcx, 48(%rsp)
	movq	%rax, 56(%rsp)
Ltmp18:
	.loc	3 1877 19
	cmpl	$4, %edx
	jne	LBB0_3
Ltmp19:
	.loc	3 0 19 is_stmt 0
	movd	%xmm3, %ecx
	pshufd	$78, %xmm3, %xmm0
	movd	%xmm0, %eax
	movq	%xmm2, %rdi
Ltmp20:
	pshufd	$78, %xmm2, %xmm0
	movq	%xmm0, %rsi
Ltmp21:
	.file	7 "/rustc/a74d1862d4d87a56244958416fd05976c58ca1a8/src/libcore/ptr/mod.rs"
	.loc	7 178 1 is_stmt 1
	cmpl	$4, %ecx
	jbe	LBB0_8
	jmp	LBB0_15
Ltmp22:
LBB0_17:
	.loc	7 0 1 is_stmt 0
	movq	%rdi, %r14
Ltmp23:
	.file	8 "/rustc/a74d1862d4d87a56244958416fd05976c58ca1a8/src/liballoc/vec.rs"
	.loc	8 2049 65 is_stmt 1
	movq	176(%rsp), %rax
	movq	%rax, 248(%rsp)
	movq	168(%rsp), %rax
	movq	%rax, 240(%rsp)
	movq	160(%rsp), %rax
	movq	%rax, 232(%rsp)
	movq	152(%rsp), %rax
	movq	%rax, 224(%rsp)
	movq	136(%rsp), %rax
	movq	144(%rsp), %rcx
	movq	%rcx, 216(%rsp)
	movq	%rax, 208(%rsp)
Ltmp24:
	.loc	4 1444 13
	xorl	%esi, %esi
Ltmp25:
	cmpl	$4, %eax
	setne	%sil
Ltmp26:
Ltmp0:
	.loc	8 2112 13
	movq	%r15, %rdi
	callq	__ZN5alloc3vec12Vec$LT$T$GT$7reserve17hda3fe561e747e7fdE
Ltmp27:
Ltmp1:
	.loc	8 2114 53
	movq	24(%r14), %r12
Ltmp28:
	.file	9 "/rustc/a74d1862d4d87a56244958416fd05976c58ca1a8/src/libcore/ptr/mut_ptr.rs"
	.loc	9 152 9
	leaq	(,%r12,8), %rbx
	addq	8(%r14), %rbx
Ltmp29:
	.loc	8 2114 53
	leaq	24(%r14), %r8
Ltmp30:
	.file	10 "/rustc/a74d1862d4d87a56244958416fd05976c58ca1a8/src/libcore/iter/adapters/mod.rs"
	.loc	10 825 9
	movq	248(%rsp), %rax
	movq	%rax, 40(%rsp)
	movq	240(%rsp), %rax
	movq	%rax, 32(%rsp)
	movq	232(%rsp), %rax
	movq	%rax, 24(%rsp)
	movq	224(%rsp), %rax
	movq	%rax, 16(%rsp)
	movq	208(%rsp), %rax
	movq	216(%rsp), %rcx
	movq	%rcx, 8(%rsp)
	movq	%rax, (%rsp)
Ltmp31:
	.loc	3 2005 32
	movq	%rbx, 184(%rsp)
	movq	%r8, 192(%rsp)
	movq	%r12, 200(%rsp)
Ltmp32:
	.loc	4 1310 9
	movl	$4, 64(%rsp)
Ltmp33:
	.loc	5 2058 5
	movups	16(%rsp), %xmm0
	movups	(%rsp), %xmm1
Ltmp34:
	.loc	5 2058 5 is_stmt 0
	movdqa	64(%rsp), %xmm3
	movdqa	80(%rsp), %xmm2
	movdqu	%xmm2, 16(%rsp)
	movdqu	%xmm3, (%rsp)
Ltmp35:
	.loc	6 806 5 is_stmt 1
	movq	32(%rsp), %rcx
	movq	40(%rsp), %rdx
	movq	%rcx, 48(%rsp)
	movq	%rdx, 56(%rsp)
Ltmp36:
	.loc	3 1877 19
	cmpl	$4, %eax
	jne	LBB0_20
Ltmp37:
	.loc	3 0 19 is_stmt 0
	movd	%xmm3, %ecx
	pshufd	$78, %xmm3, %xmm0
	movd	%xmm0, %eax
	movq	%xmm2, %rdi
	pshufd	$78, %xmm2, %xmm0
	movq	%xmm0, %rsi
Ltmp38:
	.loc	8 1729 9 is_stmt 1
	movq	%r12, (%r8)
Ltmp39:
	.loc	7 178 1
	cmpl	$4, %ecx
	jbe	LBB0_25
	jmp	LBB0_15
Ltmp40:
LBB0_3:
	.loc	3 0 0 is_stmt 0
	leaq	32(%rsp), %r12
Ltmp41:
	leaq	96(%rsp), %rbx
	leaq	64(%rsp), %r14
Ltmp42:
	.p2align	4, 0x90
LBB0_4:
	.file	11 "/Users/yingyuhang/.cargo/registry/src/github.com-1ecc6299db9ec823/proc-macro2-1.0.18/src/fallback.rs"
	.loc	11 246 61 is_stmt 1
	movups	%xmm1, 64(%rsp)
	movups	%xmm0, 80(%rsp)
	movq	48(%rsp), %rax
	movq	56(%rsp), %rcx
	movq	%rcx, 8(%rbx)
	movq	%rax, (%rbx)
Ltmp6:
	.loc	11 246 45 is_stmt 0
	movq	%r15, %rdi
Ltmp43:
	movq	%r14, %rsi
	callq	__ZN11proc_macro28fallback11TokenStream10push_token17h39757acab137ed17E
Ltmp7:
Ltmp44:
	.loc	4 1310 9 is_stmt 1
	movl	$4, 64(%rsp)
Ltmp45:
	.loc	5 2058 5
	movups	(%rsp), %xmm1
	movups	16(%rsp), %xmm0
Ltmp46:
	.loc	5 2058 5 is_stmt 0
	movdqa	80(%rsp), %xmm3
	movdqa	64(%rsp), %xmm2
	movdqu	%xmm3, 16(%rsp)
Ltmp47:
	.loc	3 1877 19 is_stmt 1
	movl	(%rsp), %eax
Ltmp48:
	.loc	5 2058 5
	movdqu	%xmm2, (%rsp)
Ltmp49:
	.loc	6 806 5
	movq	(%r12), %rcx
	movq	8(%r12), %rdx
	movq	%rcx, 48(%rsp)
	movq	%rdx, 56(%rsp)
Ltmp50:
	.loc	3 1877 19
	cmpl	$4, %eax
	jne	LBB0_4
Ltmp51:
	pshufd	$78, %xmm2, %xmm0
	movd	%xmm0, %eax
	movq	%xmm3, %rdi
	pshufd	$78, %xmm3, %xmm0
	movq	%xmm0, %rsi
	movd	%xmm2, %ecx
Ltmp52:
	.loc	7 178 1
	cmpl	$4, %ecx
	ja	LBB0_15
Ltmp53:
LBB0_8:
	.loc	7 0 1 is_stmt 0
	movl	%ecx, %ecx
	leaq	LJTI0_1(%rip), %rdx
	movslq	(%rdx,%rcx,4), %rcx
	addq	%rdx, %rcx
	jmpq	*%rcx
Ltmp54:
LBB0_11:
	testl	%eax, %eax
	jne	LBB0_12
	jmp	LBB0_27
Ltmp55:
LBB0_20:
	movq	%r8, 256(%rsp)
Ltmp56:
	leaq	32(%rsp), %r13
	leaq	96(%rsp), %r15
Ltmp57:
	leaq	64(%rsp), %r14
Ltmp58:
	.p2align	4, 0x90
LBB0_21:
	movups	%xmm1, 64(%rsp)
	movups	%xmm0, 80(%rsp)
	movq	48(%rsp), %rax
	movq	56(%rsp), %rcx
	movq	%rcx, 8(%r15)
	movq	%rax, (%r15)
Ltmp59:
Ltmp3:
	.file	12 "/rustc/a74d1862d4d87a56244958416fd05976c58ca1a8/src/libcore/ops/function.rs"
	.loc	12 154 5 is_stmt 1
	movq	%r14, %rdi
	callq	__ZN11proc_macro23imp19into_compiler_token17hbf6b848651e6d9ceE
Ltmp4:
Ltmp60:
	.loc	7 836 42
	movq	%rax, (%rbx)
Ltmp61:
	.loc	9 152 9
	addq	$8, %rbx
Ltmp62:
	.loc	8 1722 9
	incq	%r12
Ltmp63:
	.loc	4 1310 9
	movl	$4, 64(%rsp)
Ltmp64:
	.loc	5 2058 5
	movups	(%rsp), %xmm1
	movups	16(%rsp), %xmm0
Ltmp65:
	.loc	5 2058 5 is_stmt 0
	movdqa	80(%rsp), %xmm3
	movdqa	64(%rsp), %xmm2
	movdqu	%xmm3, 16(%rsp)
Ltmp66:
	.loc	3 1877 19 is_stmt 1
	movl	(%rsp), %eax
Ltmp67:
	.loc	5 2058 5
	movdqu	%xmm2, (%rsp)
Ltmp68:
	.loc	6 806 5
	movq	(%r13), %rcx
	movq	8(%r13), %rdx
	movq	%rcx, 48(%rsp)
	movq	%rdx, 56(%rsp)
Ltmp69:
	.loc	3 1877 19
	cmpl	$4, %eax
	jne	LBB0_21
Ltmp70:
	pshufd	$78, %xmm2, %xmm0
	movd	%xmm0, %eax
	movq	%xmm3, %rdi
	pshufd	$78, %xmm3, %xmm0
	movq	%xmm0, %rsi
	movd	%xmm2, %ecx
Ltmp71:
	.loc	8 2118 21
	movq	%rbx, 184(%rsp)
Ltmp72:
	.loc	8 1722 9
	movq	%r12, 200(%rsp)
	movq	256(%rsp), %r8
Ltmp73:
	.loc	8 1729 9
	movq	%r12, (%r8)
Ltmp74:
	.loc	7 178 1
	cmpl	$4, %ecx
	ja	LBB0_15
Ltmp75:
LBB0_25:
	.loc	7 0 1 is_stmt 0
	movl	%ecx, %ecx
	leaq	LJTI0_0(%rip), %rdx
	movslq	(%rdx,%rcx,4), %rcx
	addq	%rdx, %rcx
	jmpq	*%rcx
Ltmp76:
LBB0_26:
	leaq	8(%rsp), %rdi
	callq	__ZN4core3ptr13drop_in_place17hf67d0a0d9909d0e0E
	jmp	LBB0_27
LBB0_15:
Ltmp77:
	testl	%eax, %eax
	je	LBB0_16
Ltmp78:
LBB0_12:
	testq	%rsi, %rsi
	je	LBB0_27
Ltmp79:
	testq	%rdi, %rdi
	je	LBB0_27
Ltmp80:
	movl	$1, %edx
	callq	___rust_dealloc
	jmp	LBB0_27
Ltmp81:
LBB0_16:
	leaq	12(%rsp), %rdi
Ltmp82:
	callq	__ZN77_$LT$proc_macro..bridge..client..Literal$u20$as$u20$core..ops..drop..Drop$GT$4drop17he2aea19d6a82f53dE
Ltmp83:
LBB0_27:
	.loc	1 212 6 is_stmt 1
	leaq	-40(%rbp), %rsp
	popq	%rbx
	popq	%r12
	popq	%r13
	popq	%r14
	popq	%r15
	popq	%rbp
	retq
LBB0_28:
Ltmp84:
Ltmp2:
	.loc	1 0 6 is_stmt 0
	movq	%rax, %r14
Ltmp85:
	leaq	208(%rsp), %rdi
Ltmp86:
	.loc	8 2126 5 is_stmt 1
	callq	__ZN4core3ptr13drop_in_place17h6478af34d7301a60E
	movq	%r14, %rdi
	callq	__Unwind_Resume
	ud2
Ltmp87:
LBB0_30:
Ltmp5:
	.loc	8 0 5 is_stmt 0
	movq	%rax, %r14
Ltmp88:
	.loc	8 2118 21 is_stmt 1
	movq	%rbx, 184(%rsp)
Ltmp89:
	.loc	8 1722 9
	movq	%r12, 200(%rsp)
Ltmp90:
	.loc	8 0 9 is_stmt 0
	leaq	184(%rsp), %rdi
Ltmp91:
	.loc	3 1881 5 is_stmt 1
	callq	__ZN4core3ptr13drop_in_place17h766e8280c69ef9b7E
	jmp	LBB0_10
Ltmp92:
LBB0_9:
Ltmp8:
	.loc	3 0 5 is_stmt 0
	movq	%rax, %r14
Ltmp93:
LBB0_10:
	movq	%rsp, %rdi
	callq	__ZN4core3ptr13drop_in_place17h1668419923a154ecE
	movq	%r14, %rdi
	callq	__Unwind_Resume
	ud2
Ltmp94:
Lfunc_end0:
	.cfi_endproc
	.p2align	2, 0x90
	.data_region jt32
.set L0_0_set_26, LBB0_26-LJTI0_0
.set L0_0_set_11, LBB0_11-LJTI0_0
.set L0_0_set_27, LBB0_27-LJTI0_0
.set L0_0_set_15, LBB0_15-LJTI0_0
LJTI0_0:
	.long	L0_0_set_26
	.long	L0_0_set_11
	.long	L0_0_set_27
	.long	L0_0_set_15
	.long	L0_0_set_27
.set L0_1_set_26, LBB0_26-LJTI0_1
.set L0_1_set_11, LBB0_11-LJTI0_1
.set L0_1_set_27, LBB0_27-LJTI0_1
.set L0_1_set_15, LBB0_15-LJTI0_1
LJTI0_1:
	.long	L0_1_set_26
	.long	L0_1_set_11
	.long	L0_1_set_27
	.long	L0_1_set_15
	.long	L0_1_set_27
	.end_data_region
	.file	13 "/rustc/a74d1862d4d87a56244958416fd05976c58ca1a8/src/libcore/iter/sources.rs"
	.file	14 "/rustc/a74d1862d4d87a56244958416fd05976c58ca1a8/src/libcore/macros/mod.rs"
	.section	__TEXT,__gcc_except_tab
	.p2align	2
GCC_except_table0:
Lexception0:
	.byte	255
	.byte	255
	.byte	1
	.uleb128 Lcst_end0-Lcst_begin0
Lcst_begin0:
	.uleb128 Ltmp0-Lfunc_begin0
	.uleb128 Ltmp1-Ltmp0
	.uleb128 Ltmp2-Lfunc_begin0
	.byte	0
	.uleb128 Ltmp6-Lfunc_begin0
	.uleb128 Ltmp7-Ltmp6
	.uleb128 Ltmp8-Lfunc_begin0
	.byte	0
	.uleb128 Ltmp3-Lfunc_begin0
	.uleb128 Ltmp4-Ltmp3
	.uleb128 Ltmp5-Lfunc_begin0
	.byte	0
	.uleb128 Ltmp4-Lfunc_begin0
	.uleb128 Lfunc_end0-Ltmp4
	.byte	0
	.byte	0
Lcst_end0:
	.p2align	2

	.section	__TEXT,__text,regular,pure_instructions
	.p2align	4, 0x90
__ZN44_$LT$$RF$T$u20$as$u20$core..fmt..Display$GT$3fmt17h1f40e842b818fd3cE:
Lfunc_begin1:
	.file	15 "/rustc/a74d1862d4d87a56244958416fd05976c58ca1a8/src/libcore/fmt/mod.rs"
	.loc	15 1973 0 is_stmt 1
	.cfi_startproc
	pushq	%rbp
	.cfi_def_cfa_offset 16
	.cfi_offset %rbp, -16
	movq	%rsp, %rbp
	.cfi_def_cfa_register %rbp
Ltmp95:
	.loc	15 1973 71 prologue_end
	movq	(%rdi), %rdi
Ltmp96:
	.loc	15 1973 62 is_stmt 0
	popq	%rbp
	jmp	__ZN57_$LT$proc_macro2..Ident$u20$as$u20$core..fmt..Display$GT$3fmt17h5126cf470200c32cE
Ltmp97:
Lfunc_end1:
	.cfi_endproc

	.p2align	4, 0x90
__ZN44_$LT$$RF$T$u20$as$u20$core..fmt..Display$GT$3fmt17h4298077c84063d54E:
Lfunc_begin2:
	.loc	15 1973 0 is_stmt 1
	.cfi_startproc
	pushq	%rbp
	.cfi_def_cfa_offset 16
	.cfi_offset %rbp, -16
	movq	%rsp, %rbp
	.cfi_def_cfa_register %rbp
	movq	%rsi, %rdx
Ltmp98:
	.loc	15 1973 71 prologue_end
	movq	(%rdi), %rax
	movq	8(%rdi), %rsi
	.loc	15 1973 62 is_stmt 0
	movq	%rax, %rdi
Ltmp99:
	popq	%rbp
	jmp	__ZN42_$LT$str$u20$as$u20$core..fmt..Display$GT$3fmt17hd4dee1c1c4ccf892E
Ltmp100:
Lfunc_end2:
	.cfi_endproc

	.p2align	4, 0x90
__ZN4core3ops8function5FnMut8call_mut17h57832be45974b8bcE:
Lfunc_begin3:
	.loc	12 154 0 is_stmt 1
	.cfi_startproc
	pushq	%rbp
	.cfi_def_cfa_offset 16
	.cfi_offset %rbp, -16
	movq	%rsp, %rbp
	.cfi_def_cfa_register %rbp
	pushq	%r15
	pushq	%r14
	pushq	%rbx
	subq	$72, %rsp
	.cfi_offset %rbx, -40
	.cfi_offset %r14, -32
	.cfi_offset %r15, -24
	movq	%rsi, %rbx
Ltmp101:
	movq	%rdi, %r14
Ltmp102:
	.loc	1 479 10 prologue_end
	movl	(%rsi), %eax
	leaq	LJTI3_0(%rip), %rcx
	movslq	(%rcx,%rax,4), %rax
	addq	%rcx, %rax
	jmpq	*%rax
Ltmp103:
LBB3_5:
	.loc	2 534 10
	cmpl	$1, 8(%rbx)
	jne	LBB3_7
Ltmp104:
	.loc	11 554 5
	movb	40(%rbx), %r15b
Ltmp105:
	.loc	2 537 14
	addq	$16, %rbx
Ltmp106:
	.loc	2 0 14 is_stmt 0
	leaq	-88(%rbp), %rdi
Ltmp107:
	.loc	11 555 5 is_stmt 1
	movq	%rbx, %rsi
	callq	__ZN73_$LT$proc_macro2..fallback..TokenStream$u20$as$u20$core..clone..Clone$GT$5clone17h80a5327c7a5a46b6E
	movl	$1, %ecx
	jmp	LBB3_8
Ltmp108:
LBB3_13:
	.loc	1 702 5
	movq	4(%rbx), %rax
Ltmp109:
	.loc	1 709 16
	cmpb	$0, 12(%rbx)
Ltmp110:
	.loc	1 479 10
	movq	%rax, 4(%r14)
	setne	12(%r14)
	movl	$2, (%r14)
	jmp	LBB3_14
Ltmp111:
LBB3_1:
	.loc	2 739 10
	cmpl	$1, 8(%rbx)
	jne	LBB3_3
Ltmp112:
	.loc	2 742 14
	addq	$16, %rbx
Ltmp113:
	.loc	2 0 14 is_stmt 0
	leaq	-88(%rbp), %rdi
Ltmp114:
	.loc	11 752 5 is_stmt 1
	movq	%rbx, %rsi
	callq	__ZN60_$LT$alloc..string..String$u20$as$u20$core..clone..Clone$GT$5clone17h58f2d97d6470fc46E
	movl	$1, %ecx
	jmp	LBB3_4
Ltmp115:
LBB3_9:
	.loc	2 644 10
	cmpl	$1, 8(%rbx)
	jne	LBB3_11
Ltmp116:
	.loc	2 647 14
	leaq	16(%rbx), %rsi
Ltmp117:
	.loc	2 0 14 is_stmt 0
	leaq	-88(%rbp), %rdi
Ltmp118:
	.loc	11 622 5 is_stmt 1
	callq	__ZN60_$LT$alloc..string..String$u20$as$u20$core..clone..Clone$GT$5clone17h58f2d97d6470fc46E
Ltmp119:
	.file	16 "/rustc/a74d1862d4d87a56244958416fd05976c58ca1a8/src/libcore/clone.rs"
	.loc	16 185 25
	cmpb	$0, 40(%rbx)
	setne	%al
	movl	$1, %edx
	jmp	LBB3_12
Ltmp120:
LBB3_3:
	.loc	2 741 14
	addq	$12, %rbx
Ltmp121:
	.file	17 "/rustc/a74d1862d4d87a56244958416fd05976c58ca1a8/src/libproc_macro/lib.rs"
	.loc	17 903 20
	movq	%rbx, %rdi
	callq	__ZN74_$LT$proc_macro..bridge..client..Literal$u20$as$u20$core..clone..Clone$GT$5clone17h201bd64f1d55f19fE
	xorl	%ecx, %ecx
Ltmp122:
LBB3_4:
	.loc	1 971 10
	movq	-72(%rbp), %rdx
	movq	%rdx, -40(%rbp)
	movq	-88(%rbp), %rdx
	movq	-80(%rbp), %rsi
	movq	%rsi, -48(%rbp)
	movq	%rdx, -56(%rbp)
Ltmp123:
	.loc	1 479 10
	movl	%ecx, 8(%r14)
	movl	%eax, 12(%r14)
	movq	-56(%rbp), %rax
	movq	-48(%rbp), %rcx
	movq	%rax, 16(%r14)
	movq	%rcx, 24(%r14)
	movq	-40(%rbp), %rax
	movq	%rax, 32(%r14)
	movl	$3, (%r14)
	jmp	LBB3_14
Ltmp124:
LBB3_7:
	.loc	2 536 14
	addq	$12, %rbx
Ltmp125:
	.loc	17 592 18
	movq	%rbx, %rdi
	callq	__ZN72_$LT$proc_macro..bridge..client..Group$u20$as$u20$core..clone..Clone$GT$5clone17h5085063e736a3ec3E
	xorl	%ecx, %ecx
Ltmp126:
LBB3_8:
	.loc	1 580 10
	movq	-72(%rbp), %rdx
	movq	%rdx, -40(%rbp)
	movq	-88(%rbp), %rdx
	movq	-80(%rbp), %rsi
	movq	%rsi, -48(%rbp)
	movq	%rdx, -56(%rbp)
	movl	-63(%rbp), %edx
	movl	-60(%rbp), %esi
	movl	%edx, -32(%rbp)
	movl	%esi, -29(%rbp)
Ltmp127:
	.loc	1 479 10
	movl	%ecx, 8(%r14)
	movl	%eax, 12(%r14)
	movq	-56(%rbp), %rax
	movq	-48(%rbp), %rcx
	movq	%rax, 16(%r14)
	movq	%rcx, 24(%r14)
	movq	-40(%rbp), %rax
	movq	%rax, 32(%r14)
	movb	%r15b, 40(%r14)
	movl	-32(%rbp), %eax
	movl	-29(%rbp), %ecx
	movl	%eax, 41(%r14)
	movl	%ecx, 44(%r14)
	movl	$0, (%r14)
	jmp	LBB3_14
Ltmp128:
LBB3_11:
	.loc	17 822 18
	movl	12(%rbx), %ecx
	xorl	%edx, %edx
Ltmp129:
LBB3_12:
	.loc	1 843 10
	movq	-72(%rbp), %rsi
	movq	%rsi, -40(%rbp)
	movq	-88(%rbp), %rsi
	movq	-80(%rbp), %rdi
	movq	%rdi, -48(%rbp)
	movq	%rsi, -56(%rbp)
	movl	-63(%rbp), %esi
	movl	-60(%rbp), %edi
	movl	%esi, -32(%rbp)
	movl	%edi, -29(%rbp)
Ltmp130:
	.loc	1 479 10
	movl	%edx, 8(%r14)
	movl	%ecx, 12(%r14)
	movq	-56(%rbp), %rcx
	movq	-48(%rbp), %rdx
	movq	%rcx, 16(%r14)
	movq	%rdx, 24(%r14)
	movq	-40(%rbp), %rcx
	movq	%rcx, 32(%r14)
	movb	%al, 40(%r14)
	movl	-32(%rbp), %eax
	movl	-29(%rbp), %ecx
	movl	%eax, 41(%r14)
	movl	%ecx, 44(%r14)
	movl	$1, (%r14)
Ltmp131:
LBB3_14:
	.loc	12 154 5
	addq	$72, %rsp
	popq	%rbx
	popq	%r14
	popq	%r15
	popq	%rbp
	retq
Ltmp132:
Lfunc_end3:
	.cfi_endproc
	.p2align	2, 0x90
	.data_region jt32
.set L3_0_set_5, LBB3_5-LJTI3_0
.set L3_0_set_9, LBB3_9-LJTI3_0
.set L3_0_set_13, LBB3_13-LJTI3_0
.set L3_0_set_1, LBB3_1-LJTI3_0
LJTI3_0:
	.long	L3_0_set_5
	.long	L3_0_set_9
	.long	L3_0_set_13
	.long	L3_0_set_1
	.end_data_region

	.p2align	4, 0x90
__ZN4core3ptr13drop_in_place17h0cdd00a573ede400E:
Lfunc_begin4:
	.loc	7 178 0
	.cfi_startproc
	pushq	%rbp
	.cfi_def_cfa_offset 16
	.cfi_offset %rbp, -16
	movq	%rsp, %rbp
	.cfi_def_cfa_register %rbp
Ltmp133:
	.file	18 "/rustc/a74d1862d4d87a56244958416fd05976c58ca1a8/src/liballoc/raw_vec.rs"
	.loc	18 200 40 prologue_end
	testq	%rsi, %rsi
	.loc	18 200 9 is_stmt 0
	je	LBB4_3
Ltmp134:
	.loc	18 532 16 is_stmt 1
	testq	%rdi, %rdi
Ltmp135:
	je	LBB4_3
Ltmp136:
	.loc	18 0 0 is_stmt 0
	shlq	$4, %rsi
	leaq	(%rsi,%rsi,2), %rsi
Ltmp137:
	.loc	18 532 16
	testq	%rsi, %rsi
	je	LBB4_3
Ltmp138:
	.file	19 "/rustc/a74d1862d4d87a56244958416fd05976c58ca1a8/src/liballoc/alloc.rs"
	.loc	19 102 5 is_stmt 1
	movl	$8, %edx
	popq	%rbp
	jmp	___rust_dealloc
Ltmp139:
LBB4_3:
	.loc	7 178 1
	popq	%rbp
	retq
Ltmp140:
Lfunc_end4:
	.cfi_endproc

	.p2align	4, 0x90
__ZN4core3ptr13drop_in_place17h1668419923a154ecE:
Lfunc_begin5:
	.loc	7 178 0
	.cfi_startproc
	pushq	%rbp
	.cfi_def_cfa_offset 16
	.cfi_offset %rbp, -16
	movq	%rsp, %rbp
	.cfi_def_cfa_register %rbp
Ltmp141:
	.loc	7 178 1 prologue_end
	movl	(%rdi), %eax
	cmpq	$4, %rax
	jne	LBB5_1
Ltmp142:
LBB5_11:
	.loc	7 178 1 is_stmt 0
	popq	%rbp
	retq
Ltmp143:
LBB5_1:
	.loc	7 178 1
	cmpq	$2, %rax
	je	LBB5_11
Ltmp144:
	cmpq	$1, %rax
	je	LBB5_5
Ltmp145:
	testq	%rax, %rax
	jne	LBB5_9
Ltmp146:
	addq	$8, %rdi
Ltmp147:
	popq	%rbp
	jmp	__ZN4core3ptr13drop_in_place17hf67d0a0d9909d0e0E
LBB5_5:
Ltmp148:
	.loc	7 178 1
	cmpl	$0, 8(%rdi)
	jne	LBB5_6
	jmp	LBB5_11
Ltmp149:
LBB5_9:
	.loc	7 178 1
	cmpl	$0, 8(%rdi)
	je	LBB5_10
Ltmp150:
LBB5_6:
	.loc	7 0 0
	movq	16(%rdi), %rax
Ltmp151:
	testq	%rax, %rax
	je	LBB5_11
Ltmp152:
	movq	24(%rdi), %rsi
Ltmp153:
	testq	%rsi, %rsi
	je	LBB5_11
Ltmp154:
	movl	$1, %edx
	movq	%rax, %rdi
Ltmp155:
	popq	%rbp
	jmp	___rust_dealloc
Ltmp156:
LBB5_10:
	.loc	7 178 1
	addq	$12, %rdi
Ltmp157:
	.loc	7 178 1
	popq	%rbp
	jmp	__ZN77_$LT$proc_macro..bridge..client..Literal$u20$as$u20$core..ops..drop..Drop$GT$4drop17he2aea19d6a82f53dE
Ltmp158:
Lfunc_end5:
	.cfi_endproc

	.p2align	4, 0x90
__ZN4core3ptr13drop_in_place17h1a277091ab7e9509E:
Lfunc_begin6:
	.loc	7 178 0 is_stmt 1
	.cfi_startproc
	.cfi_personality 155, _rust_eh_personality
	.cfi_lsda 16, Lexception1
	pushq	%rbp
	.cfi_def_cfa_offset 16
	.cfi_offset %rbp, -16
	movq	%rsp, %rbp
	.cfi_def_cfa_register %rbp
Ltmp162:
	pushq	%r14
	pushq	%rbx
	.cfi_offset %rbx, -32
	.cfi_offset %r14, -24
	.loc	7 178 1 prologue_end
	movq	(%rdi), %rax
	cmpq	$2, %rax
	jne	LBB6_1
Ltmp163:
	.loc	7 178 1 is_stmt 0
	popq	%rbx
	popq	%r14
	popq	%rbp
	retq
Ltmp164:
LBB6_1:
	.loc	7 178 1
	leaq	8(%rdi), %rbx
Ltmp165:
	testq	%rax, %rax
	je	LBB6_2
Ltmp166:
	movq	%rbx, %rdi
Ltmp167:
	popq	%rbx
	popq	%r14
	popq	%rbp
	jmp	__ZN4core3ptr13drop_in_place17h2329d01dc6426f81E
LBB6_2:
Ltmp168:
	.loc	7 178 1
	addq	$32, %rdi
Ltmp169:
Ltmp159:
	.loc	7 178 1
	callq	__ZN81_$LT$proc_macro..bridge..client..TokenStream$u20$as$u20$core..ops..drop..Drop$GT$4drop17h41a2e5513f89cb12E
Ltmp170:
Ltmp160:
	.loc	7 178 1
	movq	%rbx, %rdi
	popq	%rbx
Ltmp171:
	popq	%r14
	popq	%rbp
	jmp	__ZN4core3ptr13drop_in_place17h516b08566a705e3dE
LBB6_6:
Ltmp172:
Ltmp161:
	.loc	7 0 1
	movq	%rax, %r14
	.loc	7 178 1
	movq	%rbx, %rdi
	callq	__ZN4core3ptr13drop_in_place17h516b08566a705e3dE
	movq	%r14, %rdi
	callq	__Unwind_Resume
	ud2
Ltmp173:
Lfunc_end6:
	.cfi_endproc
	.section	__TEXT,__gcc_except_tab
	.p2align	2
GCC_except_table6:
Lexception1:
	.byte	255
	.byte	255
	.byte	1
	.uleb128 Lcst_end1-Lcst_begin1
Lcst_begin1:
	.uleb128 Lfunc_begin6-Lfunc_begin6
	.uleb128 Ltmp159-Lfunc_begin6
	.byte	0
	.byte	0
	.uleb128 Ltmp159-Lfunc_begin6
	.uleb128 Ltmp160-Ltmp159
	.uleb128 Ltmp161-Lfunc_begin6
	.byte	0
	.uleb128 Ltmp160-Lfunc_begin6
	.uleb128 Lfunc_end6-Ltmp160
	.byte	0
	.byte	0
Lcst_end1:
	.p2align	2

	.section	__TEXT,__text,regular,pure_instructions
	.p2align	4, 0x90
__ZN4core3ptr13drop_in_place17h2329d01dc6426f81E:
Lfunc_begin7:
	.loc	7 178 0 is_stmt 1
	.cfi_startproc
	.cfi_personality 155, _rust_eh_personality
	.cfi_lsda 16, Lexception2
	pushq	%rbp
	.cfi_def_cfa_offset 16
	.cfi_offset %rbp, -16
	movq	%rsp, %rbp
	.cfi_def_cfa_register %rbp
	pushq	%r15
	pushq	%r14
	pushq	%r13
	pushq	%r12
	pushq	%rbx
	pushq	%rax
	.cfi_offset %rbx, -56
	.cfi_offset %r12, -48
	.cfi_offset %r13, -40
	.cfi_offset %r14, -32
	.cfi_offset %r15, -24
	movq	%rdi, %r14
Ltmp185:
Ltmp174:
	.loc	7 178 1 prologue_end
	callq	__ZN76_$LT$proc_macro2..fallback..TokenStream$u20$as$u20$core..ops..drop..Drop$GT$4drop17hd4619f149adc73ddE
Ltmp175:
Ltmp186:
	.loc	8 850 19
	movq	(%r14), %r13
Ltmp187:
	.loc	8 2384 81
	movq	16(%r14), %rax
Ltmp188:
	.loc	7 178 1
	testq	%rax, %rax
	je	LBB7_17
Ltmp189:
	.loc	7 178 1 is_stmt 0
	shlq	$4, %rax
Ltmp190:
	leaq	(%rax,%rax,2), %r12
	xorl	%ebx, %ebx
Ltmp191:
	movl	(%r13,%rbx), %eax
	cmpq	$2, %rax
	jne	LBB7_4
	jmp	LBB7_15
Ltmp192:
	.p2align	4, 0x90
LBB7_6:
	leaq	8(%r13,%rbx), %rdi
Ltmp177:
	callq	__ZN4core3ptr13drop_in_place17hf67d0a0d9909d0e0E
Ltmp178:
Ltmp193:
LBB7_15:
	.loc	7 178 1
	addq	$48, %rbx
	cmpq	%rbx, %r12
	je	LBB7_16
Ltmp194:
LBB7_3:
	.loc	7 178 1
	movl	(%r13,%rbx), %eax
	cmpq	$2, %rax
	je	LBB7_15
Ltmp195:
LBB7_4:
	cmpq	$1, %rax
	je	LBB7_9
Ltmp196:
	testq	%rax, %rax
	je	LBB7_6
Ltmp197:
	.loc	7 178 1
	cmpl	$0, 8(%r13,%rbx)
	jne	LBB7_10
Ltmp198:
	.loc	7 178 1
	leaq	12(%r13,%rbx), %rdi
Ltmp179:
	callq	__ZN77_$LT$proc_macro..bridge..client..Literal$u20$as$u20$core..ops..drop..Drop$GT$4drop17he2aea19d6a82f53dE
Ltmp180:
	jmp	LBB7_15
Ltmp199:
	.p2align	4, 0x90
LBB7_9:
	.loc	7 178 1
	cmpl	$0, 8(%r13,%rbx)
	je	LBB7_15
Ltmp200:
LBB7_10:
	.loc	7 0 0
	movq	16(%r13,%rbx), %rdi
Ltmp201:
	testq	%rdi, %rdi
	je	LBB7_15
Ltmp202:
	movq	24(%r13,%rbx), %rsi
Ltmp203:
	testq	%rsi, %rsi
	je	LBB7_15
Ltmp204:
	movl	$1, %edx
	callq	___rust_dealloc
Ltmp205:
	.loc	7 178 1
	addq	$48, %rbx
	cmpq	%rbx, %r12
	jne	LBB7_3
Ltmp206:
LBB7_16:
	.loc	7 178 1
	movq	(%r14), %r13
Ltmp207:
LBB7_17:
	movq	8(%r14), %rax
Ltmp208:
	.loc	18 200 40 is_stmt 1
	testq	%rax, %rax
	.loc	18 200 9 is_stmt 0
	je	LBB7_23
Ltmp209:
	.loc	18 532 16 is_stmt 1
	testq	%r13, %r13
Ltmp210:
	je	LBB7_23
Ltmp211:
	.loc	18 0 0 is_stmt 0
	shlq	$4, %rax
	leaq	(%rax,%rax,2), %rsi
Ltmp212:
	.loc	18 532 16
	testq	%rsi, %rsi
	je	LBB7_23
Ltmp213:
	.loc	19 102 5 is_stmt 1
	movl	$8, %edx
	movq	%r13, %rdi
	addq	$8, %rsp
	popq	%rbx
	popq	%r12
	popq	%r13
Ltmp214:
	popq	%r14
Ltmp215:
	popq	%r15
	popq	%rbp
	jmp	___rust_dealloc
Ltmp216:
LBB7_23:
	.loc	7 178 1
	addq	$8, %rsp
	popq	%rbx
	popq	%r12
	popq	%r13
	popq	%r14
Ltmp217:
	popq	%r15
	popq	%rbp
	retq
LBB7_24:
Ltmp218:
Ltmp176:
	.loc	7 0 1 is_stmt 0
	movq	%rax, %r15
	.loc	7 178 1
	movq	%r14, %rdi
	callq	__ZN4core3ptr13drop_in_place17h68631bfdf8c72eedE
	movq	%r15, %rdi
	callq	__Unwind_Resume
	ud2
Ltmp219:
LBB7_26:
Ltmp181:
	.loc	7 0 1
	movq	%rax, %r15
	subq	%rbx, %r12
	addq	$-48, %r12
	leaq	48(%r13,%rbx), %rbx
Ltmp220:
	.p2align	4, 0x90
LBB7_8:
	.loc	7 178 1
	testq	%r12, %r12
	je	LBB7_22
Ltmp221:
	addq	$-48, %r12
Ltmp182:
	movq	%rbx, %rdi
	addq	$48, %rbx
	callq	__ZN4core3ptr13drop_in_place17hafd39e94c924e549E
Ltmp183:
	jmp	LBB7_8
Ltmp222:
LBB7_21:
Ltmp184:
	.loc	7 0 1
	movq	%rax, %r15
Ltmp223:
LBB7_22:
	.loc	7 178 1
	movq	(%r14), %rdi
	movq	8(%r14), %rsi
	callq	__ZN4core3ptr13drop_in_place17h0cdd00a573ede400E
	movq	%r15, %rdi
	callq	__Unwind_Resume
	ud2
Ltmp224:
Lfunc_end7:
	.cfi_endproc
	.section	__TEXT,__gcc_except_tab
	.p2align	2
GCC_except_table7:
Lexception2:
	.byte	255
	.byte	255
	.byte	1
	.uleb128 Lcst_end2-Lcst_begin2
Lcst_begin2:
	.uleb128 Ltmp174-Lfunc_begin7
	.uleb128 Ltmp175-Ltmp174
	.uleb128 Ltmp176-Lfunc_begin7
	.byte	0
	.uleb128 Ltmp177-Lfunc_begin7
	.uleb128 Ltmp180-Ltmp177
	.uleb128 Ltmp181-Lfunc_begin7
	.byte	0
	.uleb128 Ltmp180-Lfunc_begin7
	.uleb128 Ltmp182-Ltmp180
	.byte	0
	.byte	0
	.uleb128 Ltmp182-Lfunc_begin7
	.uleb128 Ltmp183-Ltmp182
	.uleb128 Ltmp184-Lfunc_begin7
	.byte	0
	.uleb128 Ltmp183-Lfunc_begin7
	.uleb128 Lfunc_end7-Ltmp183
	.byte	0
	.byte	0
Lcst_end2:
	.p2align	2

	.section	__TEXT,__text,regular,pure_instructions
	.p2align	4, 0x90
__ZN4core3ptr13drop_in_place17h2cef5f9e75b4d18eE:
Lfunc_begin8:
	.loc	7 178 0 is_stmt 1
	.cfi_startproc
	pushq	%rbp
	.cfi_def_cfa_offset 16
	.cfi_offset %rbp, -16
	movq	%rsp, %rbp
	.cfi_def_cfa_register %rbp
Ltmp225:
	.loc	8 2710 57 prologue_end
	movq	(%rdi), %rax
	.loc	8 2710 78 is_stmt 0
	movq	8(%rax), %rcx
Ltmp226:
	.loc	18 200 40 is_stmt 1
	testq	%rcx, %rcx
	.loc	18 200 9 is_stmt 0
	je	LBB8_2
Ltmp227:
	.loc	18 207 28 is_stmt 1
	shlq	$4, %rcx
	leaq	(%rcx,%rcx,2), %rsi
Ltmp228:
	.loc	19 185 12
	testq	%rsi, %rsi
Ltmp229:
	.loc	18 532 16
	je	LBB8_2
Ltmp230:
	.loc	8 0 0 is_stmt 0
	movq	(%rax), %rdi
Ltmp231:
	.loc	19 102 5 is_stmt 1
	movl	$8, %edx
	popq	%rbp
	jmp	___rust_dealloc
Ltmp232:
LBB8_2:
	.loc	7 178 1
	popq	%rbp
	retq
Ltmp233:
Lfunc_end8:
	.cfi_endproc

	.p2align	4, 0x90
__ZN4core3ptr13drop_in_place17h2f04a96fab01abfcE:
Lfunc_begin9:
	.loc	7 178 0
	.cfi_startproc
	pushq	%rbp
	.cfi_def_cfa_offset 16
	.cfi_offset %rbp, -16
	movq	%rsp, %rbp
	.cfi_def_cfa_register %rbp
Ltmp234:
	.loc	7 178 1 prologue_end
	popq	%rbp
	retq
Ltmp235:
Lfunc_end9:
	.cfi_endproc

	.p2align	4, 0x90
__ZN4core3ptr13drop_in_place17h32bb52e3ac14e507E:
Lfunc_begin10:
	.loc	7 178 0
	.cfi_startproc
	pushq	%rbp
	.cfi_def_cfa_offset 16
	.cfi_offset %rbp, -16
	movq	%rsp, %rbp
	.cfi_def_cfa_register %rbp
Ltmp236:
	.loc	18 200 40 prologue_end
	testq	%rsi, %rsi
	.loc	18 200 9 is_stmt 0
	je	LBB10_3
Ltmp237:
	.loc	18 532 16 is_stmt 1
	testq	%rdi, %rdi
Ltmp238:
	je	LBB10_3
Ltmp239:
	.loc	18 0 0 is_stmt 0
	shlq	$3, %rsi
Ltmp240:
	.loc	18 532 16
	testq	%rsi, %rsi
	je	LBB10_3
Ltmp241:
	.loc	19 102 5 is_stmt 1
	movl	$4, %edx
	popq	%rbp
	jmp	___rust_dealloc
Ltmp242:
LBB10_3:
	.loc	7 178 1
	popq	%rbp
	retq
Ltmp243:
Lfunc_end10:
	.cfi_endproc

	.p2align	4, 0x90
__ZN4core3ptr13drop_in_place17h3cae5a1e6101b032E:
Lfunc_begin11:
	.loc	7 178 0
	.cfi_startproc
	pushq	%rbp
	.cfi_def_cfa_offset 16
	.cfi_offset %rbp, -16
	movq	%rsp, %rbp
	.cfi_def_cfa_register %rbp
Ltmp244:
	.loc	7 178 1 prologue_end
	cmpl	$0, (%rdi)
	je	LBB11_1
Ltmp245:
	addq	$8, %rdi
Ltmp246:
	popq	%rbp
	jmp	__ZN4core3ptr13drop_in_place17h87f3f478f0fd1cb1E
LBB11_1:
Ltmp247:
	addq	$4, %rdi
Ltmp248:
	.loc	7 178 1 is_stmt 0
	popq	%rbp
	jmp	__ZN85_$LT$proc_macro..bridge..client..TokenStreamIter$u20$as$u20$core..ops..drop..Drop$GT$4drop17h895c7a3fc27312aaE
Ltmp249:
Lfunc_end11:
	.cfi_endproc

	.p2align	4, 0x90
__ZN4core3ptr13drop_in_place17h44186800a4f87dbbE:
Lfunc_begin12:
	.loc	7 178 0 is_stmt 1
	.cfi_startproc
	.cfi_personality 155, _rust_eh_personality
	.cfi_lsda 16, Lexception3
	pushq	%rbp
	.cfi_def_cfa_offset 16
	.cfi_offset %rbp, -16
	movq	%rsp, %rbp
	.cfi_def_cfa_register %rbp
Ltmp253:
	pushq	%r14
	pushq	%rbx
	.cfi_offset %rbx, -32
	.cfi_offset %r14, -24
	.loc	7 178 1 prologue_end
	movq	(%rdi), %rax
	cmpq	$2, %rax
	jne	LBB12_1
Ltmp254:
	.loc	7 178 1 is_stmt 0
	popq	%rbx
	popq	%r14
	popq	%rbp
	retq
Ltmp255:
LBB12_1:
	.loc	7 178 1
	leaq	8(%rdi), %rbx
Ltmp256:
	testq	%rax, %rax
	je	LBB12_2
Ltmp257:
	movq	%rbx, %rdi
Ltmp258:
	popq	%rbx
	popq	%r14
	popq	%rbp
	jmp	__ZN4core3ptr13drop_in_place17h2329d01dc6426f81E
LBB12_2:
Ltmp259:
	.loc	7 178 1
	addq	$32, %rdi
Ltmp260:
Ltmp250:
	.loc	7 178 1
	callq	__ZN81_$LT$proc_macro..bridge..client..TokenStream$u20$as$u20$core..ops..drop..Drop$GT$4drop17h41a2e5513f89cb12E
Ltmp261:
Ltmp251:
	.loc	7 178 1
	movq	%rbx, %rdi
	popq	%rbx
Ltmp262:
	popq	%r14
	popq	%rbp
	jmp	__ZN4core3ptr13drop_in_place17h516b08566a705e3dE
LBB12_6:
Ltmp263:
Ltmp252:
	.loc	7 0 1
	movq	%rax, %r14
	.loc	7 178 1
	movq	%rbx, %rdi
	callq	__ZN4core3ptr13drop_in_place17h516b08566a705e3dE
	movq	%r14, %rdi
	callq	__Unwind_Resume
	ud2
Ltmp264:
Lfunc_end12:
	.cfi_endproc
	.section	__TEXT,__gcc_except_tab
	.p2align	2
GCC_except_table12:
Lexception3:
	.byte	255
	.byte	255
	.byte	1
	.uleb128 Lcst_end3-Lcst_begin3
Lcst_begin3:
	.uleb128 Lfunc_begin12-Lfunc_begin12
	.uleb128 Ltmp250-Lfunc_begin12
	.byte	0
	.byte	0
	.uleb128 Ltmp250-Lfunc_begin12
	.uleb128 Ltmp251-Ltmp250
	.uleb128 Ltmp252-Lfunc_begin12
	.byte	0
	.uleb128 Ltmp251-Lfunc_begin12
	.uleb128 Lfunc_end12-Ltmp251
	.byte	0
	.byte	0
Lcst_end3:
	.p2align	2

	.section	__TEXT,__text,regular,pure_instructions
	.p2align	4, 0x90
__ZN4core3ptr13drop_in_place17h445a45255b1e6c44E:
Lfunc_begin13:
	.loc	7 178 0 is_stmt 1
	.cfi_startproc
	pushq	%rbp
	.cfi_def_cfa_offset 16
	.cfi_offset %rbp, -16
	movq	%rsp, %rbp
	.cfi_def_cfa_register %rbp
Ltmp265:
	.loc	7 178 1 prologue_end
	movl	(%rdi), %eax
	cmpq	$4, %rax
	jne	LBB13_1
Ltmp266:
LBB13_11:
	popq	%rbp
	retq
Ltmp267:
LBB13_1:
	.loc	7 178 1 is_stmt 0
	cmpq	$2, %rax
	je	LBB13_11
Ltmp268:
	cmpq	$1, %rax
	je	LBB13_5
Ltmp269:
	testq	%rax, %rax
	jne	LBB13_9
Ltmp270:
	addq	$8, %rdi
Ltmp271:
	popq	%rbp
	jmp	__ZN4core3ptr13drop_in_place17hf67d0a0d9909d0e0E
LBB13_5:
Ltmp272:
	.loc	7 178 1
	cmpl	$0, 8(%rdi)
	jne	LBB13_6
	jmp	LBB13_11
Ltmp273:
LBB13_9:
	.loc	7 178 1
	cmpl	$0, 8(%rdi)
	je	LBB13_10
Ltmp274:
LBB13_6:
	.loc	7 0 0
	movq	16(%rdi), %rax
Ltmp275:
	testq	%rax, %rax
	je	LBB13_11
Ltmp276:
	movq	24(%rdi), %rsi
Ltmp277:
	testq	%rsi, %rsi
	je	LBB13_11
Ltmp278:
	movl	$1, %edx
	movq	%rax, %rdi
Ltmp279:
	popq	%rbp
	jmp	___rust_dealloc
Ltmp280:
LBB13_10:
	.loc	7 178 1
	addq	$12, %rdi
Ltmp281:
	.loc	7 178 1
	popq	%rbp
	jmp	__ZN77_$LT$proc_macro..bridge..client..Literal$u20$as$u20$core..ops..drop..Drop$GT$4drop17he2aea19d6a82f53dE
Ltmp282:
Lfunc_end13:
	.cfi_endproc

	.p2align	4, 0x90
__ZN4core3ptr13drop_in_place17h45e08299bf90f0f1E:
Lfunc_begin14:
	.loc	7 178 0 is_stmt 1
	.cfi_startproc
	pushq	%rbp
	.cfi_def_cfa_offset 16
	.cfi_offset %rbp, -16
	movq	%rsp, %rbp
	.cfi_def_cfa_register %rbp
Ltmp283:
	.loc	7 178 1 prologue_end
	popq	%rbp
	jmp	__ZN88_$LT$proc_macro..bridge..client..TokenStreamBuilder$u20$as$u20$core..ops..drop..Drop$GT$4drop17h118039a45e507d80E
Ltmp284:
Lfunc_end14:
	.cfi_endproc

	.p2align	4, 0x90
__ZN4core3ptr13drop_in_place17h49a3f52860805f0dE:
Lfunc_begin15:
	.loc	7 178 0
	.cfi_startproc
	pushq	%rbp
	.cfi_def_cfa_offset 16
	.cfi_offset %rbp, -16
	movq	%rsp, %rbp
	.cfi_def_cfa_register %rbp
	movq	%rdi, %rax
Ltmp285:
	.loc	7 178 1 prologue_end
	movq	(%rdi), %rdi
Ltmp286:
	.loc	18 532 16
	testq	%rdi, %rdi
Ltmp287:
	.loc	18 200 9
	je	LBB15_2
Ltmp288:
	.loc	7 0 0 is_stmt 0
	movq	8(%rax), %rsi
Ltmp289:
	.loc	18 200 9
	testq	%rsi, %rsi
	je	LBB15_2
Ltmp290:
	.loc	19 102 5 is_stmt 1
	movl	$1, %edx
	popq	%rbp
	jmp	___rust_dealloc
Ltmp291:
LBB15_2:
	.loc	7 178 1
	popq	%rbp
	retq
Ltmp292:
Lfunc_end15:
	.cfi_endproc

	.p2align	4, 0x90
__ZN4core3ptr13drop_in_place17h516b08566a705e3dE:
Lfunc_begin16:
	.loc	7 178 0
	.cfi_startproc
	.cfi_personality 155, _rust_eh_personality
	.cfi_lsda 16, Lexception4
	pushq	%rbp
	.cfi_def_cfa_offset 16
	.cfi_offset %rbp, -16
	movq	%rsp, %rbp
	.cfi_def_cfa_register %rbp
	pushq	%r15
	pushq	%r14
	pushq	%r13
	pushq	%r12
	pushq	%rbx
	pushq	%rax
	.cfi_offset %rbx, -56
	.cfi_offset %r12, -48
	.cfi_offset %r13, -40
	.cfi_offset %r14, -32
	.cfi_offset %r15, -24
	movq	%rdi, %r14
Ltmp301:
	.loc	8 850 19 prologue_end
	movq	(%rdi), %r13
Ltmp302:
	.loc	8 2384 81
	movq	16(%rdi), %r12
Ltmp303:
	.loc	7 178 1
	testq	%r12, %r12
	je	LBB16_10
Ltmp304:
	.loc	7 178 1 is_stmt 0
	shlq	$3, %r12
Ltmp305:
	.loc	7 0 1
	xorl	%ebx, %ebx
Ltmp306:
	.loc	7 178 1
	movl	(%r13,%rbx), %eax
	leaq	-1(%rax), %rcx
	cmpq	$2, %rcx
	jb	LBB16_8
	jmp	LBB16_3
Ltmp307:
	.p2align	4, 0x90
LBB16_7:
Ltmp295:
	.loc	7 178 1
	callq	__ZN77_$LT$proc_macro..bridge..client..Literal$u20$as$u20$core..ops..drop..Drop$GT$4drop17he2aea19d6a82f53dE
Ltmp296:
Ltmp308:
LBB16_8:
	.loc	7 178 1
	addq	$8, %rbx
	cmpq	%rbx, %r12
	je	LBB16_9
Ltmp309:
	.loc	7 178 1
	movl	(%r13,%rbx), %eax
	leaq	-1(%rax), %rcx
	cmpq	$2, %rcx
	jb	LBB16_8
Ltmp310:
LBB16_3:
	.loc	7 178 1
	leaq	4(%r13,%rbx), %rdi
Ltmp311:
	.loc	7 178 1
	testq	%rax, %rax
	jne	LBB16_7
Ltmp312:
Ltmp293:
	.loc	7 178 1
	callq	__ZN75_$LT$proc_macro..bridge..client..Group$u20$as$u20$core..ops..drop..Drop$GT$4drop17he3c88ef672dde681E
Ltmp294:
	jmp	LBB16_8
Ltmp313:
LBB16_9:
	.loc	7 178 1
	movq	(%r14), %r13
Ltmp314:
LBB16_10:
	movq	8(%r14), %rsi
Ltmp315:
	.loc	18 200 40 is_stmt 1
	testq	%rsi, %rsi
	.loc	18 200 9 is_stmt 0
	je	LBB16_16
Ltmp316:
	.loc	18 532 16 is_stmt 1
	testq	%r13, %r13
Ltmp317:
	je	LBB16_16
Ltmp318:
	.loc	18 0 0 is_stmt 0
	shlq	$3, %rsi
Ltmp319:
	.loc	18 532 16
	testq	%rsi, %rsi
	je	LBB16_16
Ltmp320:
	.loc	19 102 5 is_stmt 1
	movl	$4, %edx
	movq	%r13, %rdi
	addq	$8, %rsp
	popq	%rbx
	popq	%r12
	popq	%r13
Ltmp321:
	popq	%r14
Ltmp322:
	popq	%r15
	popq	%rbp
	jmp	___rust_dealloc
Ltmp323:
LBB16_16:
	.loc	7 178 1
	addq	$8, %rsp
	popq	%rbx
	popq	%r12
	popq	%r13
	popq	%r14
Ltmp324:
	popq	%r15
	popq	%rbp
	retq
LBB16_14:
Ltmp325:
Ltmp297:
	.loc	7 0 1 is_stmt 0
	movq	%rax, %r15
Ltmp326:
	.loc	7 178 1
	leaq	-8(%r12), %rax
	cmpq	%rbx, %rax
	je	LBB16_18
Ltmp327:
	.loc	7 0 1
	subq	%rbx, %r12
	addq	$-8, %r12
	leaq	8(%r13,%rbx), %rbx
Ltmp328:
	.p2align	4, 0x90
LBB16_5:
Ltmp298:
	.loc	7 178 1
	movq	%rbx, %rdi
	callq	__ZN4core3ptr13drop_in_place17h66ac00b3d76ec549E
Ltmp299:
Ltmp329:
	addq	$8, %rbx
	addq	$-8, %r12
	jne	LBB16_5
	jmp	LBB16_18
Ltmp330:
LBB16_17:
Ltmp300:
	.loc	7 0 1
	movq	%rax, %r15
Ltmp331:
LBB16_18:
	.loc	7 178 1
	movq	(%r14), %rdi
	movq	8(%r14), %rsi
	callq	__ZN4core3ptr13drop_in_place17h32bb52e3ac14e507E
	movq	%r15, %rdi
	callq	__Unwind_Resume
	ud2
Ltmp332:
Lfunc_end16:
	.cfi_endproc
	.section	__TEXT,__gcc_except_tab
	.p2align	2
GCC_except_table16:
Lexception4:
	.byte	255
	.byte	255
	.byte	1
	.uleb128 Lcst_end4-Lcst_begin4
Lcst_begin4:
	.uleb128 Ltmp295-Lfunc_begin16
	.uleb128 Ltmp294-Ltmp295
	.uleb128 Ltmp297-Lfunc_begin16
	.byte	0
	.uleb128 Ltmp298-Lfunc_begin16
	.uleb128 Ltmp299-Ltmp298
	.uleb128 Ltmp300-Lfunc_begin16
	.byte	0
	.uleb128 Ltmp299-Lfunc_begin16
	.uleb128 Lfunc_end16-Ltmp299
	.byte	0
	.byte	0
Lcst_end4:
	.p2align	2

	.section	__TEXT,__text,regular,pure_instructions
	.p2align	4, 0x90
__ZN4core3ptr13drop_in_place17h6327ebafbc41fe4bE:
Lfunc_begin17:
	.loc	7 178 0 is_stmt 1
	.cfi_startproc
	.cfi_personality 155, _rust_eh_personality
	.cfi_lsda 16, Lexception5
	pushq	%rbp
	.cfi_def_cfa_offset 16
	.cfi_offset %rbp, -16
	movq	%rsp, %rbp
	.cfi_def_cfa_register %rbp
Ltmp336:
	pushq	%r14
	pushq	%rbx
	.cfi_offset %rbx, -32
	.cfi_offset %r14, -24
	.loc	7 178 1 prologue_end
	movq	(%rdi), %rax
	testb	$2, %al
	jne	LBB17_5
Ltmp337:
	.loc	7 178 1 is_stmt 0
	leaq	8(%rdi), %rbx
Ltmp338:
	testq	%rax, %rax
	je	LBB17_2
Ltmp339:
	movq	%rbx, %rdi
Ltmp340:
	popq	%rbx
	popq	%r14
	popq	%rbp
	jmp	__ZN4core3ptr13drop_in_place17h2329d01dc6426f81E
Ltmp341:
LBB17_5:
	.loc	7 178 1
	popq	%rbx
	popq	%r14
	popq	%rbp
	retq
Ltmp342:
LBB17_2:
	.loc	7 178 1
	addq	$32, %rdi
Ltmp343:
Ltmp333:
	.loc	7 178 1
	callq	__ZN81_$LT$proc_macro..bridge..client..TokenStream$u20$as$u20$core..ops..drop..Drop$GT$4drop17h41a2e5513f89cb12E
Ltmp344:
Ltmp334:
	.loc	7 178 1
	movq	%rbx, %rdi
	popq	%rbx
Ltmp345:
	popq	%r14
	popq	%rbp
	jmp	__ZN4core3ptr13drop_in_place17h516b08566a705e3dE
LBB17_6:
Ltmp346:
Ltmp335:
	.loc	7 0 1
	movq	%rax, %r14
	.loc	7 178 1
	movq	%rbx, %rdi
	callq	__ZN4core3ptr13drop_in_place17h516b08566a705e3dE
	movq	%r14, %rdi
	callq	__Unwind_Resume
	ud2
Ltmp347:
Lfunc_end17:
	.cfi_endproc
	.section	__TEXT,__gcc_except_tab
	.p2align	2
GCC_except_table17:
Lexception5:
	.byte	255
	.byte	255
	.byte	1
	.uleb128 Lcst_end5-Lcst_begin5
Lcst_begin5:
	.uleb128 Lfunc_begin17-Lfunc_begin17
	.uleb128 Ltmp333-Lfunc_begin17
	.byte	0
	.byte	0
	.uleb128 Ltmp333-Lfunc_begin17
	.uleb128 Ltmp334-Ltmp333
	.uleb128 Ltmp335-Lfunc_begin17
	.byte	0
	.uleb128 Ltmp334-Lfunc_begin17
	.uleb128 Lfunc_end17-Ltmp334
	.byte	0
	.byte	0
Lcst_end5:
	.p2align	2

	.section	__TEXT,__text,regular,pure_instructions
	.p2align	4, 0x90
__ZN4core3ptr13drop_in_place17h6478af34d7301a60E:
Lfunc_begin18:
	.loc	7 178 0 is_stmt 1
	.cfi_startproc
	pushq	%rbp
	.cfi_def_cfa_offset 16
	.cfi_offset %rbp, -16
	movq	%rsp, %rbp
	.cfi_def_cfa_register %rbp
Ltmp348:
	.loc	7 178 1 prologue_end
	movl	(%rdi), %eax
	cmpq	$4, %rax
	jne	LBB18_1
Ltmp349:
LBB18_11:
	.loc	7 178 1 is_stmt 0
	popq	%rbp
	retq
Ltmp350:
LBB18_1:
	.loc	7 178 1
	cmpq	$2, %rax
	je	LBB18_11
Ltmp351:
	cmpq	$1, %rax
	je	LBB18_5
Ltmp352:
	testq	%rax, %rax
	jne	LBB18_9
Ltmp353:
	addq	$8, %rdi
Ltmp354:
	popq	%rbp
	jmp	__ZN4core3ptr13drop_in_place17hf67d0a0d9909d0e0E
LBB18_5:
Ltmp355:
	.loc	7 178 1
	cmpl	$0, 8(%rdi)
	jne	LBB18_6
	jmp	LBB18_11
Ltmp356:
LBB18_9:
	.loc	7 178 1
	cmpl	$0, 8(%rdi)
	je	LBB18_10
Ltmp357:
LBB18_6:
	.loc	7 0 0
	movq	16(%rdi), %rax
Ltmp358:
	testq	%rax, %rax
	je	LBB18_11
Ltmp359:
	movq	24(%rdi), %rsi
Ltmp360:
	testq	%rsi, %rsi
	je	LBB18_11
Ltmp361:
	movl	$1, %edx
	movq	%rax, %rdi
Ltmp362:
	popq	%rbp
	jmp	___rust_dealloc
Ltmp363:
LBB18_10:
	.loc	7 178 1
	addq	$12, %rdi
Ltmp364:
	.loc	7 178 1
	popq	%rbp
	jmp	__ZN77_$LT$proc_macro..bridge..client..Literal$u20$as$u20$core..ops..drop..Drop$GT$4drop17he2aea19d6a82f53dE
Ltmp365:
Lfunc_end18:
	.cfi_endproc

	.p2align	4, 0x90
__ZN4core3ptr13drop_in_place17h66ac00b3d76ec549E:
Lfunc_begin19:
	.loc	7 178 0 is_stmt 1
	.cfi_startproc
	pushq	%rbp
	.cfi_def_cfa_offset 16
	.cfi_offset %rbp, -16
	movq	%rsp, %rbp
	.cfi_def_cfa_register %rbp
Ltmp366:
	.loc	7 178 1 prologue_end
	movl	(%rdi), %eax
	leaq	-1(%rax), %rcx
	cmpq	$2, %rcx
	jae	LBB19_1
Ltmp367:
	popq	%rbp
	retq
Ltmp368:
LBB19_1:
	addq	$4, %rdi
Ltmp369:
	testq	%rax, %rax
	jne	LBB19_2
Ltmp370:
	.loc	7 178 1 is_stmt 0
	popq	%rbp
	jmp	__ZN75_$LT$proc_macro..bridge..client..Group$u20$as$u20$core..ops..drop..Drop$GT$4drop17he3c88ef672dde681E
Ltmp371:
LBB19_2:
	.loc	7 178 1
	popq	%rbp
	jmp	__ZN77_$LT$proc_macro..bridge..client..Literal$u20$as$u20$core..ops..drop..Drop$GT$4drop17he2aea19d6a82f53dE
Ltmp372:
Lfunc_end19:
	.cfi_endproc

	.p2align	4, 0x90
__ZN4core3ptr13drop_in_place17h68631bfdf8c72eedE:
Lfunc_begin20:
	.loc	7 178 0 is_stmt 1
	.cfi_startproc
	.cfi_personality 155, _rust_eh_personality
	.cfi_lsda 16, Lexception6
	pushq	%rbp
	.cfi_def_cfa_offset 16
	.cfi_offset %rbp, -16
	movq	%rsp, %rbp
	.cfi_def_cfa_register %rbp
	pushq	%r15
	pushq	%r14
	pushq	%r13
	pushq	%r12
	pushq	%rbx
	pushq	%rax
	.cfi_offset %rbx, -56
	.cfi_offset %r12, -48
	.cfi_offset %r13, -40
	.cfi_offset %r14, -32
	.cfi_offset %r15, -24
	movq	%rdi, %r14
Ltmp381:
	.loc	8 850 19 prologue_end
	movq	(%rdi), %r13
Ltmp382:
	.loc	8 2384 81
	movq	16(%rdi), %rax
Ltmp383:
	.loc	7 178 1
	testq	%rax, %rax
	je	LBB20_16
Ltmp384:
	.loc	7 178 1 is_stmt 0
	shlq	$4, %rax
Ltmp385:
	leaq	(%rax,%rax,2), %r12
	xorl	%ebx, %ebx
Ltmp386:
	movl	(%r13,%rbx), %eax
	cmpq	$2, %rax
	jne	LBB20_3
	jmp	LBB20_14
Ltmp387:
	.p2align	4, 0x90
LBB20_5:
	leaq	8(%r13,%rbx), %rdi
Ltmp373:
	callq	__ZN4core3ptr13drop_in_place17hf67d0a0d9909d0e0E
Ltmp374:
Ltmp388:
LBB20_14:
	.loc	7 178 1
	addq	$48, %rbx
	cmpq	%rbx, %r12
	je	LBB20_15
Ltmp389:
LBB20_2:
	.loc	7 178 1
	movl	(%r13,%rbx), %eax
	cmpq	$2, %rax
	je	LBB20_14
Ltmp390:
LBB20_3:
	cmpq	$1, %rax
	je	LBB20_8
Ltmp391:
	testq	%rax, %rax
	je	LBB20_5
Ltmp392:
	.loc	7 178 1
	cmpl	$0, 8(%r13,%rbx)
	jne	LBB20_9
Ltmp393:
	.loc	7 178 1
	leaq	12(%r13,%rbx), %rdi
Ltmp375:
	callq	__ZN77_$LT$proc_macro..bridge..client..Literal$u20$as$u20$core..ops..drop..Drop$GT$4drop17he2aea19d6a82f53dE
Ltmp376:
	jmp	LBB20_14
Ltmp394:
	.p2align	4, 0x90
LBB20_8:
	.loc	7 178 1
	cmpl	$0, 8(%r13,%rbx)
	je	LBB20_14
Ltmp395:
LBB20_9:
	.loc	7 0 0
	movq	16(%r13,%rbx), %rdi
Ltmp396:
	testq	%rdi, %rdi
	je	LBB20_14
Ltmp397:
	movq	24(%r13,%rbx), %rsi
Ltmp398:
	testq	%rsi, %rsi
	je	LBB20_14
Ltmp399:
	movl	$1, %edx
	callq	___rust_dealloc
Ltmp400:
	.loc	7 178 1
	addq	$48, %rbx
	cmpq	%rbx, %r12
	jne	LBB20_2
Ltmp401:
LBB20_15:
	.loc	7 178 1
	movq	(%r14), %r13
Ltmp402:
LBB20_16:
	movq	8(%r14), %rax
Ltmp403:
	.loc	18 200 40 is_stmt 1
	testq	%rax, %rax
	.loc	18 200 9 is_stmt 0
	je	LBB20_19
Ltmp404:
	.loc	18 532 16 is_stmt 1
	testq	%r13, %r13
Ltmp405:
	je	LBB20_19
Ltmp406:
	.loc	18 0 0 is_stmt 0
	shlq	$4, %rax
	leaq	(%rax,%rax,2), %rsi
Ltmp407:
	.loc	18 532 16
	testq	%rsi, %rsi
	je	LBB20_19
Ltmp408:
	.loc	19 102 5 is_stmt 1
	movl	$8, %edx
	movq	%r13, %rdi
	addq	$8, %rsp
	popq	%rbx
	popq	%r12
	popq	%r13
Ltmp409:
	popq	%r14
Ltmp410:
	popq	%r15
	popq	%rbp
	jmp	___rust_dealloc
Ltmp411:
LBB20_19:
	.loc	7 178 1
	addq	$8, %rsp
	popq	%rbx
	popq	%r12
	popq	%r13
	popq	%r14
Ltmp412:
	popq	%r15
	popq	%rbp
	retq
LBB20_22:
Ltmp413:
Ltmp377:
	.loc	7 0 1 is_stmt 0
	movq	%rax, %r15
	subq	%rbx, %r12
	addq	$-48, %r12
	leaq	48(%r13,%rbx), %rbx
Ltmp414:
	.p2align	4, 0x90
LBB20_7:
	.loc	7 178 1
	testq	%r12, %r12
	je	LBB20_21
Ltmp415:
	addq	$-48, %r12
Ltmp378:
	movq	%rbx, %rdi
	addq	$48, %rbx
	callq	__ZN4core3ptr13drop_in_place17hafd39e94c924e549E
Ltmp379:
	jmp	LBB20_7
Ltmp416:
LBB20_20:
Ltmp380:
	.loc	7 0 1
	movq	%rax, %r15
Ltmp417:
LBB20_21:
	.loc	7 178 1
	movq	(%r14), %rdi
	movq	8(%r14), %rsi
	callq	__ZN4core3ptr13drop_in_place17h0cdd00a573ede400E
	movq	%r15, %rdi
	callq	__Unwind_Resume
	ud2
Ltmp418:
Lfunc_end20:
	.cfi_endproc
	.section	__TEXT,__gcc_except_tab
	.p2align	2
GCC_except_table20:
Lexception6:
	.byte	255
	.byte	255
	.byte	1
	.uleb128 Lcst_end6-Lcst_begin6
Lcst_begin6:
	.uleb128 Ltmp373-Lfunc_begin20
	.uleb128 Ltmp376-Ltmp373
	.uleb128 Ltmp377-Lfunc_begin20
	.byte	0
	.uleb128 Ltmp378-Lfunc_begin20
	.uleb128 Ltmp379-Ltmp378
	.uleb128 Ltmp380-Lfunc_begin20
	.byte	0
	.uleb128 Ltmp379-Lfunc_begin20
	.uleb128 Lfunc_end20-Ltmp379
	.byte	0
	.byte	0
Lcst_end6:
	.p2align	2

	.section	__TEXT,__text,regular,pure_instructions
	.p2align	4, 0x90
__ZN4core3ptr13drop_in_place17h766e8280c69ef9b7E:
Lfunc_begin21:
	.loc	7 178 0 is_stmt 1
	.cfi_startproc
	pushq	%rbp
	.cfi_def_cfa_offset 16
	.cfi_offset %rbp, -16
	movq	%rsp, %rbp
	.cfi_def_cfa_register %rbp
Ltmp419:
	.loc	7 178 1 prologue_end
	movq	8(%rdi), %rax
	movq	16(%rdi), %rcx
Ltmp420:
	.loc	8 1729 9
	movq	%rcx, (%rax)
Ltmp421:
	.loc	7 178 1
	popq	%rbp
	retq
Ltmp422:
Lfunc_end21:
	.cfi_endproc

	.p2align	4, 0x90
__ZN4core3ptr13drop_in_place17h778b6eb1653668eeE:
Lfunc_begin22:
	.loc	7 178 0
	.cfi_startproc
	pushq	%rbp
	.cfi_def_cfa_offset 16
	.cfi_offset %rbp, -16
	movq	%rsp, %rbp
	.cfi_def_cfa_register %rbp
Ltmp423:
	.loc	7 178 1 prologue_end
	cmpl	$0, (%rdi)
	je	LBB22_1
Ltmp424:
	addq	$8, %rdi
Ltmp425:
	popq	%rbp
	jmp	__ZN4core3ptr13drop_in_place17h87f3f478f0fd1cb1E
LBB22_1:
Ltmp426:
	addq	$4, %rdi
Ltmp427:
	.loc	7 178 1 is_stmt 0
	popq	%rbp
	jmp	__ZN85_$LT$proc_macro..bridge..client..TokenStreamIter$u20$as$u20$core..ops..drop..Drop$GT$4drop17h895c7a3fc27312aaE
Ltmp428:
Lfunc_end22:
	.cfi_endproc

	.p2align	4, 0x90
__ZN4core3ptr13drop_in_place17h85b09d84c30cf8f2E:
Lfunc_begin23:
	.loc	7 178 0 is_stmt 1
	.cfi_startproc
	pushq	%rbp
	.cfi_def_cfa_offset 16
	.cfi_offset %rbp, -16
	movq	%rsp, %rbp
	.cfi_def_cfa_register %rbp
Ltmp429:
	.loc	7 178 1 prologue_end
	cmpq	$0, (%rdi)
	je	LBB23_1
Ltmp430:
	popq	%rbp
	jmp	__ZN4core3ptr13drop_in_place17h87f3f478f0fd1cb1E
Ltmp431:
LBB23_1:
	popq	%rbp
	retq
Ltmp432:
Lfunc_end23:
	.cfi_endproc

	.p2align	4, 0x90
__ZN4core3ptr13drop_in_place17h87f3f478f0fd1cb1E:
Lfunc_begin24:
	.loc	7 178 0
	.cfi_startproc
	.cfi_personality 155, _rust_eh_personality
	.cfi_lsda 16, Lexception7
	pushq	%rbp
	.cfi_def_cfa_offset 16
	.cfi_offset %rbp, -16
	movq	%rsp, %rbp
	.cfi_def_cfa_register %rbp
	pushq	%r15
	pushq	%r14
	pushq	%r12
	pushq	%rbx
	subq	$16, %rsp
	.cfi_offset %rbx, -48
	.cfi_offset %r12, -40
	.cfi_offset %r14, -32
	.cfi_offset %r15, -24
	movq	%rdi, %r14
Ltmp441:
	.loc	8 2714 21 prologue_end
	movq	%rdi, -40(%rbp)
Ltmp442:
	.loc	8 2605 39
	movq	16(%rdi), %r12
Ltmp443:
	.loc	8 2605 59 is_stmt 0
	movq	24(%rdi), %rax
Ltmp444:
	.file	20 "/rustc/a74d1862d4d87a56244958416fd05976c58ca1a8/src/libcore/ptr/const_ptr.rs"
	.loc	20 291 9 is_stmt 1
	subq	%r12, %rax
Ltmp445:
	.loc	7 178 1
	je	LBB24_15
Ltmp446:
	.loc	7 0 1 is_stmt 0
	sarq	$4, %rax
	movabsq	$-6148914691236517205, %rcx
	imulq	%rax, %rcx
Ltmp447:
	.loc	7 178 1
	shlq	$4, %rcx
Ltmp448:
	leaq	(%rcx,%rcx,2), %r15
	xorl	%ebx, %ebx
Ltmp449:
	movl	(%r12,%rbx), %eax
	cmpq	$2, %rax
	jne	LBB24_3
	jmp	LBB24_14
Ltmp450:
	.p2align	4, 0x90
LBB24_5:
	leaq	8(%r12,%rbx), %rdi
Ltmp433:
	callq	__ZN4core3ptr13drop_in_place17hf67d0a0d9909d0e0E
Ltmp434:
Ltmp451:
LBB24_14:
	.loc	7 178 1
	addq	$48, %rbx
	cmpq	%rbx, %r15
	je	LBB24_15
Ltmp452:
LBB24_2:
	.loc	7 178 1
	movl	(%r12,%rbx), %eax
	cmpq	$2, %rax
	je	LBB24_14
Ltmp453:
LBB24_3:
	cmpq	$1, %rax
	je	LBB24_8
Ltmp454:
	testq	%rax, %rax
	je	LBB24_5
Ltmp455:
	.loc	7 178 1
	cmpl	$0, 8(%r12,%rbx)
	jne	LBB24_9
Ltmp456:
	.loc	7 178 1
	leaq	12(%r12,%rbx), %rdi
Ltmp435:
	callq	__ZN77_$LT$proc_macro..bridge..client..Literal$u20$as$u20$core..ops..drop..Drop$GT$4drop17he2aea19d6a82f53dE
Ltmp436:
	jmp	LBB24_14
Ltmp457:
	.p2align	4, 0x90
LBB24_8:
	.loc	7 178 1
	cmpl	$0, 8(%r12,%rbx)
	je	LBB24_14
Ltmp458:
LBB24_9:
	.loc	7 0 0
	movq	16(%r12,%rbx), %rdi
Ltmp459:
	testq	%rdi, %rdi
	je	LBB24_14
Ltmp460:
	movq	24(%r12,%rbx), %rsi
Ltmp461:
	testq	%rsi, %rsi
	je	LBB24_14
Ltmp462:
	movl	$1, %edx
	callq	___rust_dealloc
Ltmp463:
	.loc	7 178 1
	addq	$48, %rbx
	cmpq	%rbx, %r15
	jne	LBB24_2
Ltmp464:
LBB24_15:
	.loc	8 2710 78 is_stmt 1
	movq	8(%r14), %rax
Ltmp465:
	.loc	18 200 40
	testq	%rax, %rax
	.loc	18 200 9 is_stmt 0
	je	LBB24_18
Ltmp466:
	.loc	18 207 28 is_stmt 1
	shlq	$4, %rax
	leaq	(%rax,%rax,2), %rsi
Ltmp467:
	.loc	19 185 12
	testq	%rsi, %rsi
Ltmp468:
	.loc	18 532 16
	je	LBB24_18
Ltmp469:
	.loc	8 0 0 is_stmt 0
	movq	(%r14), %rdi
Ltmp470:
	.loc	19 102 5 is_stmt 1
	movl	$8, %edx
	callq	___rust_dealloc
Ltmp471:
LBB24_18:
	.loc	7 178 1
	addq	$16, %rsp
	popq	%rbx
	popq	%r12
	popq	%r14
Ltmp472:
	popq	%r15
	popq	%rbp
	retq
LBB24_19:
Ltmp473:
Ltmp437:
	.loc	7 0 1 is_stmt 0
	movq	%rax, %r14
Ltmp474:
	.loc	7 178 1
	leaq	-48(%r15), %rax
	cmpq	%rbx, %rax
	je	LBB24_22
Ltmp475:
	.loc	7 0 1
	subq	%rbx, %r15
	addq	$-48, %r15
	leaq	48(%r12,%rbx), %rbx
Ltmp476:
	.p2align	4, 0x90
LBB24_6:
Ltmp438:
	.loc	7 178 1
	movq	%rbx, %rdi
	callq	__ZN4core3ptr13drop_in_place17hafd39e94c924e549E
Ltmp439:
Ltmp477:
	addq	$48, %rbx
	addq	$-48, %r15
	jne	LBB24_6
	jmp	LBB24_22
Ltmp478:
LBB24_21:
Ltmp440:
	.loc	7 0 1
	movq	%rax, %r14
Ltmp479:
LBB24_22:
	leaq	-40(%rbp), %rdi
	.loc	8 2720 5 is_stmt 1
	callq	__ZN4core3ptr13drop_in_place17h2cef5f9e75b4d18eE
	movq	%r14, %rdi
	callq	__Unwind_Resume
	ud2
Ltmp480:
Lfunc_end24:
	.cfi_endproc
	.file	21 "/rustc/a74d1862d4d87a56244958416fd05976c58ca1a8/src/libcore/iter/traits/exact_size.rs"
	.section	__TEXT,__gcc_except_tab
	.p2align	2
GCC_except_table24:
Lexception7:
	.byte	255
	.byte	255
	.byte	1
	.uleb128 Lcst_end7-Lcst_begin7
Lcst_begin7:
	.uleb128 Ltmp433-Lfunc_begin24
	.uleb128 Ltmp436-Ltmp433
	.uleb128 Ltmp437-Lfunc_begin24
	.byte	0
	.uleb128 Ltmp438-Lfunc_begin24
	.uleb128 Ltmp439-Ltmp438
	.uleb128 Ltmp440-Lfunc_begin24
	.byte	0
	.uleb128 Ltmp439-Lfunc_begin24
	.uleb128 Lfunc_end24-Ltmp439
	.byte	0
	.byte	0
Lcst_end7:
	.p2align	2

	.section	__TEXT,__text,regular,pure_instructions
	.p2align	4, 0x90
__ZN4core3ptr13drop_in_place17h8e8f9efa4ccbe4d4E:
Lfunc_begin25:
	.loc	7 178 0
	.cfi_startproc
	.cfi_personality 155, _rust_eh_personality
	.cfi_lsda 16, Lexception8
	pushq	%rbp
	.cfi_def_cfa_offset 16
	.cfi_offset %rbp, -16
	movq	%rsp, %rbp
	.cfi_def_cfa_register %rbp
Ltmp484:
	pushq	%r14
	pushq	%rbx
	.cfi_offset %rbx, -32
	.cfi_offset %r14, -24
	.loc	7 178 1 prologue_end
	movq	(%rdi), %rax
	cmpq	$2, %rax
	jne	LBB25_1
Ltmp485:
	.loc	7 178 1 is_stmt 0
	popq	%rbx
	popq	%r14
	popq	%rbp
	retq
Ltmp486:
LBB25_1:
	.loc	7 178 1
	leaq	8(%rdi), %rbx
Ltmp487:
	testq	%rax, %rax
	je	LBB25_2
Ltmp488:
	movq	%rbx, %rdi
Ltmp489:
	popq	%rbx
	popq	%r14
	popq	%rbp
	jmp	__ZN4core3ptr13drop_in_place17h2329d01dc6426f81E
LBB25_2:
Ltmp490:
	.loc	7 178 1
	addq	$32, %rdi
Ltmp491:
Ltmp481:
	.loc	7 178 1
	callq	__ZN81_$LT$proc_macro..bridge..client..TokenStream$u20$as$u20$core..ops..drop..Drop$GT$4drop17h41a2e5513f89cb12E
Ltmp492:
Ltmp482:
	.loc	7 178 1
	movq	%rbx, %rdi
	popq	%rbx
Ltmp493:
	popq	%r14
	popq	%rbp
	jmp	__ZN4core3ptr13drop_in_place17h516b08566a705e3dE
LBB25_6:
Ltmp494:
Ltmp483:
	.loc	7 0 1
	movq	%rax, %r14
	.loc	7 178 1
	movq	%rbx, %rdi
	callq	__ZN4core3ptr13drop_in_place17h516b08566a705e3dE
	movq	%r14, %rdi
	callq	__Unwind_Resume
	ud2
Ltmp495:
Lfunc_end25:
	.cfi_endproc
	.section	__TEXT,__gcc_except_tab
	.p2align	2
GCC_except_table25:
Lexception8:
	.byte	255
	.byte	255
	.byte	1
	.uleb128 Lcst_end8-Lcst_begin8
Lcst_begin8:
	.uleb128 Lfunc_begin25-Lfunc_begin25
	.uleb128 Ltmp481-Lfunc_begin25
	.byte	0
	.byte	0
	.uleb128 Ltmp481-Lfunc_begin25
	.uleb128 Ltmp482-Ltmp481
	.uleb128 Ltmp483-Lfunc_begin25
	.byte	0
	.uleb128 Ltmp482-Lfunc_begin25
	.uleb128 Lfunc_end25-Ltmp482
	.byte	0
	.byte	0
Lcst_end8:
	.p2align	2

	.section	__TEXT,__text,regular,pure_instructions
	.p2align	4, 0x90
__ZN4core3ptr13drop_in_place17h958aae50d7c7e628E:
Lfunc_begin26:
	.loc	7 178 0 is_stmt 1
	.cfi_startproc
	.cfi_personality 155, _rust_eh_personality
	.cfi_lsda 16, Lexception9
	pushq	%rbp
	.cfi_def_cfa_offset 16
	.cfi_offset %rbp, -16
	movq	%rsp, %rbp
	.cfi_def_cfa_register %rbp
	pushq	%r15
	pushq	%r14
	pushq	%rbx
	pushq	%rax
	.cfi_offset %rbx, -40
	.cfi_offset %r14, -32
	.cfi_offset %r15, -24
	movq	%rdi, %rbx
Ltmp502:
	.loc	7 178 1 prologue_end
	cmpl	$0, 40(%rdi)
	je	LBB26_3
Ltmp503:
	.loc	7 178 1 is_stmt 0
	cmpl	$0, 44(%rbx)
	je	LBB26_3
Ltmp504:
	.loc	7 0 0
	leaq	44(%rbx), %rdi
Ltmp505:
Ltmp496:
	.loc	7 178 1
	callq	__ZN81_$LT$proc_macro..bridge..client..TokenStream$u20$as$u20$core..ops..drop..Drop$GT$4drop17h41a2e5513f89cb12E
Ltmp506:
Ltmp497:
LBB26_3:
	.loc	7 178 1
	movq	(%rbx), %rax
	testb	$2, %al
	jne	LBB26_8
Ltmp507:
	.loc	7 178 1
	leaq	8(%rbx), %r14
Ltmp508:
	testq	%rax, %rax
	je	LBB26_5
Ltmp509:
	movq	%r14, %rdi
	addq	$8, %rsp
	popq	%rbx
Ltmp510:
	popq	%r14
	popq	%r15
	popq	%rbp
	jmp	__ZN4core3ptr13drop_in_place17h2329d01dc6426f81E
Ltmp511:
LBB26_8:
	.loc	7 178 1
	addq	$8, %rsp
	popq	%rbx
Ltmp512:
	popq	%r14
	popq	%r15
	popq	%rbp
	retq
LBB26_5:
Ltmp513:
	.loc	7 178 1
	addq	$32, %rbx
Ltmp514:
Ltmp499:
	.loc	7 178 1
	movq	%rbx, %rdi
	callq	__ZN81_$LT$proc_macro..bridge..client..TokenStream$u20$as$u20$core..ops..drop..Drop$GT$4drop17h41a2e5513f89cb12E
Ltmp500:
Ltmp515:
	.loc	7 178 1
	movq	%r14, %rdi
	addq	$8, %rsp
	popq	%rbx
	popq	%r14
Ltmp516:
	popq	%r15
	popq	%rbp
	jmp	__ZN4core3ptr13drop_in_place17h516b08566a705e3dE
LBB26_11:
Ltmp517:
Ltmp501:
	.loc	7 0 1
	movq	%rax, %r15
	.loc	7 178 1
	movq	%r14, %rdi
	callq	__ZN4core3ptr13drop_in_place17h516b08566a705e3dE
	movq	%r15, %rdi
	callq	__Unwind_Resume
	ud2
Ltmp518:
LBB26_9:
Ltmp498:
	.loc	7 0 1
	movq	%rax, %r15
	.loc	7 178 1
	movq	%rbx, %rdi
	callq	__ZN4core3ptr13drop_in_place17h6327ebafbc41fe4bE
	movq	%r15, %rdi
	callq	__Unwind_Resume
	ud2
Ltmp519:
Lfunc_end26:
	.cfi_endproc
	.section	__TEXT,__gcc_except_tab
	.p2align	2
GCC_except_table26:
Lexception9:
	.byte	255
	.byte	255
	.byte	1
	.uleb128 Lcst_end9-Lcst_begin9
Lcst_begin9:
	.uleb128 Ltmp496-Lfunc_begin26
	.uleb128 Ltmp497-Ltmp496
	.uleb128 Ltmp498-Lfunc_begin26
	.byte	0
	.uleb128 Ltmp497-Lfunc_begin26
	.uleb128 Ltmp499-Ltmp497
	.byte	0
	.byte	0
	.uleb128 Ltmp499-Lfunc_begin26
	.uleb128 Ltmp500-Ltmp499
	.uleb128 Ltmp501-Lfunc_begin26
	.byte	0
	.uleb128 Ltmp500-Lfunc_begin26
	.uleb128 Lfunc_end26-Ltmp500
	.byte	0
	.byte	0
Lcst_end9:
	.p2align	2

	.section	__TEXT,__text,regular,pure_instructions
	.p2align	4, 0x90
__ZN4core3ptr13drop_in_place17h9abfa900301d59b5E:
Lfunc_begin27:
	.loc	7 178 0 is_stmt 1
	.cfi_startproc
	pushq	%rbp
	.cfi_def_cfa_offset 16
	.cfi_offset %rbp, -16
	movq	%rsp, %rbp
	.cfi_def_cfa_register %rbp
Ltmp520:
	.loc	7 178 1 prologue_end
	cmpl	$0, (%rdi)
	je	LBB27_1
Ltmp521:
	addq	$8, %rdi
Ltmp522:
	popq	%rbp
	jmp	__ZN4core3ptr13drop_in_place17h87f3f478f0fd1cb1E
LBB27_1:
Ltmp523:
	addq	$4, %rdi
Ltmp524:
	.loc	7 178 1 is_stmt 0
	popq	%rbp
	jmp	__ZN85_$LT$proc_macro..bridge..client..TokenStreamIter$u20$as$u20$core..ops..drop..Drop$GT$4drop17h895c7a3fc27312aaE
Ltmp525:
Lfunc_end27:
	.cfi_endproc

	.p2align	4, 0x90
__ZN4core3ptr13drop_in_place17hafd39e94c924e549E:
Lfunc_begin28:
	.loc	7 178 0 is_stmt 1
	.cfi_startproc
	pushq	%rbp
	.cfi_def_cfa_offset 16
	.cfi_offset %rbp, -16
	movq	%rsp, %rbp
	.cfi_def_cfa_register %rbp
Ltmp526:
	.loc	7 178 1 prologue_end
	movl	(%rdi), %eax
	testq	%rax, %rax
	je	LBB28_4
Ltmp527:
	cmpq	$1, %rax
	je	LBB28_5
Ltmp528:
	cmpq	$2, %rax
	je	LBB28_3
Ltmp529:
	.loc	7 178 1 is_stmt 0
	cmpl	$0, 8(%rdi)
	jne	LBB28_6
Ltmp530:
	addq	$12, %rdi
Ltmp531:
	.loc	7 178 1
	popq	%rbp
	jmp	__ZN77_$LT$proc_macro..bridge..client..Literal$u20$as$u20$core..ops..drop..Drop$GT$4drop17he2aea19d6a82f53dE
Ltmp532:
LBB28_4:
	.loc	7 178 1
	addq	$8, %rdi
Ltmp533:
	popq	%rbp
	jmp	__ZN4core3ptr13drop_in_place17hf67d0a0d9909d0e0E
LBB28_5:
Ltmp534:
	.loc	7 178 1
	cmpl	$0, 8(%rdi)
	je	LBB28_3
Ltmp535:
LBB28_6:
	.loc	7 0 0
	movq	16(%rdi), %rax
Ltmp536:
	testq	%rax, %rax
	je	LBB28_3
Ltmp537:
	movq	24(%rdi), %rsi
Ltmp538:
	testq	%rsi, %rsi
	je	LBB28_3
Ltmp539:
	movl	$1, %edx
	movq	%rax, %rdi
Ltmp540:
	popq	%rbp
	jmp	___rust_dealloc
Ltmp541:
LBB28_3:
	.loc	7 178 1
	popq	%rbp
	retq
Ltmp542:
Lfunc_end28:
	.cfi_endproc

	.p2align	4, 0x90
__ZN4core3ptr13drop_in_place17hda50b65b2e24ad47E:
Lfunc_begin29:
	.loc	7 178 0 is_stmt 1
	.cfi_startproc
	pushq	%rbp
	.cfi_def_cfa_offset 16
	.cfi_offset %rbp, -16
	movq	%rsp, %rbp
	.cfi_def_cfa_register %rbp
Ltmp543:
	.loc	7 178 1 prologue_end
	cmpl	$0, (%rdi)
	je	LBB29_1
Ltmp544:
	.loc	7 178 1 is_stmt 0
	popq	%rbp
	jmp	__ZN81_$LT$proc_macro..bridge..client..TokenStream$u20$as$u20$core..ops..drop..Drop$GT$4drop17h41a2e5513f89cb12E
Ltmp545:
LBB29_1:
	.loc	7 178 1
	popq	%rbp
	retq
Ltmp546:
Lfunc_end29:
	.cfi_endproc

	.p2align	4, 0x90
__ZN4core3ptr13drop_in_place17he8a11e4a760420e6E:
Lfunc_begin30:
	.loc	7 178 0 is_stmt 1
	.cfi_startproc
	.cfi_personality 155, _rust_eh_personality
	.cfi_lsda 16, Lexception10
	pushq	%rbp
	.cfi_def_cfa_offset 16
	.cfi_offset %rbp, -16
	movq	%rsp, %rbp
	.cfi_def_cfa_register %rbp
	pushq	%r15
	pushq	%r14
	pushq	%rbx
	pushq	%rax
	.cfi_offset %rbx, -40
	.cfi_offset %r14, -32
	.cfi_offset %r15, -24
	movq	%rdi, %rbx
Ltmp560:
	.loc	7 178 1 prologue_end
	movq	(%rdi), %rax
	testb	$2, %al
	jne	LBB30_8
Ltmp561:
	.loc	7 178 1 is_stmt 0
	leaq	8(%rbx), %r15
Ltmp562:
	testq	%rax, %rax
	je	LBB30_2
Ltmp563:
Ltmp547:
	movq	%r15, %rdi
	callq	__ZN4core3ptr13drop_in_place17h2329d01dc6426f81E
Ltmp548:
Ltmp564:
LBB30_8:
	.loc	7 178 1
	cmpq	$0, 40(%rbx)
	je	LBB30_5
Ltmp565:
	.loc	7 0 0
	leaq	40(%rbx), %rdi
Ltmp566:
Ltmp557:
	.loc	7 178 1
	callq	__ZN4core3ptr13drop_in_place17h87f3f478f0fd1cb1E
Ltmp567:
Ltmp558:
LBB30_5:
	.loc	7 178 1
	cmpq	$0, 72(%rbx)
	je	LBB30_14
Ltmp568:
	.loc	7 0 0
	addq	$72, %rbx
Ltmp569:
	.loc	7 178 1
	movq	%rbx, %rdi
	addq	$8, %rsp
	popq	%rbx
Ltmp570:
	popq	%r14
	popq	%r15
	popq	%rbp
	jmp	__ZN4core3ptr13drop_in_place17h87f3f478f0fd1cb1E
Ltmp571:
LBB30_14:
	.loc	7 178 1
	addq	$8, %rsp
	popq	%rbx
Ltmp572:
	popq	%r14
	popq	%r15
	popq	%rbp
	retq
LBB30_2:
Ltmp573:
	.loc	7 178 1
	leaq	32(%rbx), %rdi
Ltmp574:
Ltmp549:
	.loc	7 178 1
	callq	__ZN81_$LT$proc_macro..bridge..client..TokenStream$u20$as$u20$core..ops..drop..Drop$GT$4drop17h41a2e5513f89cb12E
Ltmp575:
Ltmp550:
Ltmp554:
	.loc	7 178 1
	movq	%r15, %rdi
	callq	__ZN4core3ptr13drop_in_place17h516b08566a705e3dE
Ltmp555:
	jmp	LBB30_8
Ltmp576:
LBB30_4:
Ltmp551:
	.loc	7 0 1
	movq	%rax, %r14
Ltmp552:
	.loc	7 178 1
	movq	%r15, %rdi
	callq	__ZN4core3ptr13drop_in_place17h516b08566a705e3dE
Ltmp553:
	jmp	LBB30_11
Ltmp577:
LBB30_10:
Ltmp556:
	.loc	7 0 1
	movq	%rax, %r14
Ltmp578:
LBB30_11:
	.loc	7 178 1
	leaq	40(%rbx), %rdi
	callq	__ZN4core3ptr13drop_in_place17h85b09d84c30cf8f2E
	jmp	LBB30_12
Ltmp579:
LBB30_13:
Ltmp559:
	.loc	7 0 1
	movq	%rax, %r14
Ltmp580:
LBB30_12:
	.loc	7 178 1
	addq	$72, %rbx
Ltmp581:
	movq	%rbx, %rdi
	callq	__ZN4core3ptr13drop_in_place17h85b09d84c30cf8f2E
	movq	%r14, %rdi
	callq	__Unwind_Resume
	ud2
Ltmp582:
Lfunc_end30:
	.cfi_endproc
	.section	__TEXT,__gcc_except_tab
	.p2align	2
GCC_except_table30:
Lexception10:
	.byte	255
	.byte	255
	.byte	1
	.uleb128 Lcst_end10-Lcst_begin10
Lcst_begin10:
	.uleb128 Ltmp547-Lfunc_begin30
	.uleb128 Ltmp548-Ltmp547
	.uleb128 Ltmp556-Lfunc_begin30
	.byte	0
	.uleb128 Ltmp557-Lfunc_begin30
	.uleb128 Ltmp558-Ltmp557
	.uleb128 Ltmp559-Lfunc_begin30
	.byte	0
	.uleb128 Ltmp558-Lfunc_begin30
	.uleb128 Ltmp549-Ltmp558
	.byte	0
	.byte	0
	.uleb128 Ltmp549-Lfunc_begin30
	.uleb128 Ltmp550-Ltmp549
	.uleb128 Ltmp551-Lfunc_begin30
	.byte	0
	.uleb128 Ltmp554-Lfunc_begin30
	.uleb128 Ltmp553-Ltmp554
	.uleb128 Ltmp556-Lfunc_begin30
	.byte	0
	.uleb128 Ltmp553-Lfunc_begin30
	.uleb128 Lfunc_end30-Ltmp553
	.byte	0
	.byte	0
Lcst_end10:
	.p2align	2

	.section	__TEXT,__text,regular,pure_instructions
	.p2align	4, 0x90
__ZN4core3ptr13drop_in_place17he929b40c9f446708E:
Lfunc_begin31:
	.loc	7 178 0 is_stmt 1
	.cfi_startproc
	pushq	%rbp
	.cfi_def_cfa_offset 16
	.cfi_offset %rbp, -16
	movq	%rsp, %rbp
	.cfi_def_cfa_register %rbp
Ltmp583:
	.loc	7 178 1 prologue_end
	popq	%rbp
	jmp	__ZN81_$LT$proc_macro..bridge..client..TokenStream$u20$as$u20$core..ops..drop..Drop$GT$4drop17h41a2e5513f89cb12E
Ltmp584:
Lfunc_end31:
	.cfi_endproc

	.p2align	4, 0x90
__ZN4core3ptr13drop_in_place17hf07c7e48a8298f97E:
Lfunc_begin32:
	.loc	7 178 0
	.cfi_startproc
	pushq	%rbp
	.cfi_def_cfa_offset 16
	.cfi_offset %rbp, -16
	movq	%rsp, %rbp
	.cfi_def_cfa_register %rbp
Ltmp585:
	.loc	7 178 1 prologue_end
	cmpl	$0, (%rdi)
	je	LBB32_3
Ltmp586:
	.loc	7 0 1 is_stmt 0
	movq	%rdi, %rax
Ltmp587:
	.loc	7 178 1
	movq	8(%rdi), %rdi
Ltmp588:
	.loc	18 532 16 is_stmt 1
	testq	%rdi, %rdi
Ltmp589:
	.loc	18 200 9
	je	LBB32_3
Ltmp590:
	.loc	7 0 0 is_stmt 0
	movq	16(%rax), %rsi
Ltmp591:
	.loc	18 200 9
	testq	%rsi, %rsi
	je	LBB32_3
Ltmp592:
	.loc	19 102 5 is_stmt 1
	movl	$1, %edx
	popq	%rbp
	jmp	___rust_dealloc
Ltmp593:
LBB32_3:
	.loc	7 178 1
	popq	%rbp
	retq
Ltmp594:
Lfunc_end32:
	.cfi_endproc

	.p2align	4, 0x90
__ZN4core3ptr13drop_in_place17hf67d0a0d9909d0e0E:
Lfunc_begin33:
	.loc	7 178 0
	.cfi_startproc
	.cfi_personality 155, _rust_eh_personality
	.cfi_lsda 16, Lexception11
	pushq	%rbp
	.cfi_def_cfa_offset 16
	.cfi_offset %rbp, -16
	movq	%rsp, %rbp
	.cfi_def_cfa_register %rbp
	pushq	%r15
	pushq	%r14
	pushq	%r13
	pushq	%r12
	pushq	%rbx
	pushq	%rax
	.cfi_offset %rbx, -56
	.cfi_offset %r12, -48
	.cfi_offset %r13, -40
	.cfi_offset %r14, -32
	.cfi_offset %r15, -24
	movq	%rdi, %r14
Ltmp606:
	.loc	7 178 1 prologue_end
	cmpl	$0, (%rdi)
	je	LBB33_27
Ltmp607:
	leaq	8(%r14), %r15
Ltmp608:
Ltmp595:
	.loc	7 178 1 is_stmt 0
	movq	%r15, %rdi
	callq	__ZN76_$LT$proc_macro2..fallback..TokenStream$u20$as$u20$core..ops..drop..Drop$GT$4drop17hd4619f149adc73ddE
Ltmp596:
Ltmp609:
	.loc	8 850 19 is_stmt 1
	movq	8(%r14), %rbx
Ltmp610:
	.loc	8 2384 81
	movq	24(%r14), %rax
Ltmp611:
	.loc	7 178 1
	testq	%rax, %rax
	je	LBB33_18
Ltmp612:
	.loc	7 178 1 is_stmt 0
	shlq	$4, %rax
Ltmp613:
	leaq	(%rax,%rax,2), %r13
	xorl	%r12d, %r12d
Ltmp614:
	movl	(%rbx,%r12), %eax
	cmpq	$2, %rax
	jne	LBB33_5
	jmp	LBB33_16
Ltmp615:
	.p2align	4, 0x90
LBB33_7:
	leaq	8(%rbx,%r12), %rdi
Ltmp598:
	callq	__ZN4core3ptr13drop_in_place17hf67d0a0d9909d0e0E
Ltmp599:
Ltmp616:
LBB33_16:
	.loc	7 178 1
	addq	$48, %r12
	cmpq	%r12, %r13
	je	LBB33_17
Ltmp617:
LBB33_4:
	.loc	7 178 1
	movl	(%rbx,%r12), %eax
	cmpq	$2, %rax
	je	LBB33_16
Ltmp618:
LBB33_5:
	cmpq	$1, %rax
	je	LBB33_10
Ltmp619:
	testq	%rax, %rax
	je	LBB33_7
Ltmp620:
	.loc	7 178 1
	cmpl	$0, 8(%rbx,%r12)
	jne	LBB33_11
Ltmp621:
	.loc	7 178 1
	leaq	12(%rbx,%r12), %rdi
Ltmp600:
	callq	__ZN77_$LT$proc_macro..bridge..client..Literal$u20$as$u20$core..ops..drop..Drop$GT$4drop17he2aea19d6a82f53dE
Ltmp601:
	jmp	LBB33_16
Ltmp622:
	.p2align	4, 0x90
LBB33_10:
	.loc	7 178 1
	cmpl	$0, 8(%rbx,%r12)
	je	LBB33_16
Ltmp623:
LBB33_11:
	.loc	7 0 0
	movq	16(%rbx,%r12), %rdi
Ltmp624:
	testq	%rdi, %rdi
	je	LBB33_16
Ltmp625:
	movq	24(%rbx,%r12), %rsi
Ltmp626:
	testq	%rsi, %rsi
	je	LBB33_16
Ltmp627:
	movl	$1, %edx
	callq	___rust_dealloc
Ltmp628:
	.loc	7 178 1
	addq	$48, %r12
	cmpq	%r12, %r13
	jne	LBB33_4
Ltmp629:
LBB33_17:
	.loc	7 178 1
	movq	(%r15), %rbx
Ltmp630:
LBB33_18:
	movq	16(%r14), %rax
Ltmp631:
	.loc	18 200 40 is_stmt 1
	testq	%rax, %rax
	.loc	18 200 9 is_stmt 0
	je	LBB33_24
Ltmp632:
	.loc	18 532 16 is_stmt 1
	testq	%rbx, %rbx
Ltmp633:
	je	LBB33_24
Ltmp634:
	.loc	18 0 0 is_stmt 0
	shlq	$4, %rax
	leaq	(%rax,%rax,2), %rsi
Ltmp635:
	.loc	18 532 16
	testq	%rsi, %rsi
	je	LBB33_24
Ltmp636:
	.loc	19 102 5 is_stmt 1
	movl	$8, %edx
	movq	%rbx, %rdi
	addq	$8, %rsp
	popq	%rbx
Ltmp637:
	popq	%r12
	popq	%r13
	popq	%r14
Ltmp638:
	popq	%r15
Ltmp639:
	popq	%rbp
	jmp	___rust_dealloc
Ltmp640:
LBB33_24:
	.loc	7 178 1
	addq	$8, %rsp
	popq	%rbx
	popq	%r12
	popq	%r13
	popq	%r14
Ltmp641:
	popq	%r15
	popq	%rbp
	retq
LBB33_27:
Ltmp642:
	.loc	7 178 1 is_stmt 0
	addq	$4, %r14
Ltmp643:
	.loc	7 178 1
	movq	%r14, %rdi
	addq	$8, %rsp
	popq	%rbx
	popq	%r12
	popq	%r13
	popq	%r14
Ltmp644:
	popq	%r15
	popq	%rbp
	jmp	__ZN75_$LT$proc_macro..bridge..client..Group$u20$as$u20$core..ops..drop..Drop$GT$4drop17he3c88ef672dde681E
Ltmp645:
LBB33_25:
Ltmp597:
	.loc	7 0 1
	movq	%rax, -48(%rbp)
Ltmp646:
	.loc	7 178 1
	movq	%r15, %rdi
	callq	__ZN4core3ptr13drop_in_place17h68631bfdf8c72eedE
	movq	-48(%rbp), %rdi
	callq	__Unwind_Resume
	ud2
Ltmp647:
LBB33_28:
Ltmp602:
	.loc	7 0 1
	movq	%rax, -48(%rbp)
	subq	%r12, %r13
	addq	$-48, %r13
	leaq	48(%rbx,%r12), %rbx
Ltmp648:
	.p2align	4, 0x90
LBB33_9:
	.loc	7 178 1
	testq	%r13, %r13
	je	LBB33_23
Ltmp649:
	addq	$-48, %r13
Ltmp603:
	movq	%rbx, %rdi
	addq	$48, %rbx
	callq	__ZN4core3ptr13drop_in_place17hafd39e94c924e549E
Ltmp604:
	jmp	LBB33_9
Ltmp650:
LBB33_22:
Ltmp605:
	.loc	7 0 1
	movq	%rax, -48(%rbp)
Ltmp651:
LBB33_23:
	.loc	7 178 1
	movq	8(%r14), %rdi
	movq	16(%r14), %rsi
	callq	__ZN4core3ptr13drop_in_place17h0cdd00a573ede400E
	movq	-48(%rbp), %rdi
	callq	__Unwind_Resume
	ud2
Ltmp652:
Lfunc_end33:
	.cfi_endproc
	.section	__TEXT,__gcc_except_tab
	.p2align	2
GCC_except_table33:
Lexception11:
	.byte	255
	.byte	255
	.byte	1
	.uleb128 Lcst_end11-Lcst_begin11
Lcst_begin11:
	.uleb128 Ltmp595-Lfunc_begin33
	.uleb128 Ltmp596-Ltmp595
	.uleb128 Ltmp597-Lfunc_begin33
	.byte	0
	.uleb128 Ltmp598-Lfunc_begin33
	.uleb128 Ltmp601-Ltmp598
	.uleb128 Ltmp602-Lfunc_begin33
	.byte	0
	.uleb128 Ltmp601-Lfunc_begin33
	.uleb128 Ltmp603-Ltmp601
	.byte	0
	.byte	0
	.uleb128 Ltmp603-Lfunc_begin33
	.uleb128 Ltmp604-Ltmp603
	.uleb128 Ltmp605-Lfunc_begin33
	.byte	0
	.uleb128 Ltmp604-Lfunc_begin33
	.uleb128 Lfunc_end33-Ltmp604
	.byte	0
	.byte	0
Lcst_end11:
	.p2align	2

	.section	__TEXT,__text,regular,pure_instructions
	.p2align	4, 0x90
__ZN4core3str6traits105_$LT$impl$u20$core..slice..SliceIndex$LT$str$GT$$u20$for$u20$core..ops..range..RangeFrom$LT$usize$GT$$GT$5index28_$u7b$$u7b$closure$u7d$$u7d$17h248fbbad5db82c78E:
Lfunc_begin34:
	.file	22 "/rustc/a74d1862d4d87a56244958416fd05976c58ca1a8/src/libcore/str/mod.rs"
	.loc	22 2052 0 is_stmt 1
	.cfi_startproc
	pushq	%rbp
	.cfi_def_cfa_offset 16
	.cfi_offset %rbp, -16
	movq	%rsp, %rbp
	.cfi_def_cfa_register %rbp
Ltmp653:
	.loc	22 2052 71 prologue_end
	movq	(%rdi), %rcx
	.loc	22 2052 78 is_stmt 0
	movq	8(%rdi), %rdx
	.loc	22 2052 71
	movq	(%rcx), %rax
	movq	8(%rcx), %rsi
	.loc	22 2052 78
	movq	(%rdx), %rdx
	.loc	22 2052 85
	movq	16(%rdi), %rcx
	movq	(%rcx), %rcx
	.loc	22 2052 47
	leaq	l___unnamed_4(%rip), %r8
	movq	%rax, %rdi
Ltmp654:
	callq	__ZN4core3str16slice_error_fail17h6b29707aec812690E
Ltmp655:
Lfunc_end34:
	.cfi_endproc

	.p2align	4, 0x90
__ZN50_$LT$$RF$mut$u20$W$u20$as$u20$core..fmt..Write$GT$10write_char17hc2b0e7ec4ff19597E:
Lfunc_begin35:
	.loc	15 203 0 is_stmt 1
	.cfi_startproc
	pushq	%rbp
	.cfi_def_cfa_offset 16
	.cfi_offset %rbp, -16
	movq	%rsp, %rbp
	.cfi_def_cfa_register %rbp
	pushq	%r15
	pushq	%r14
	pushq	%r12
	pushq	%rbx
	subq	$16, %rsp
	.cfi_offset %rbx, -48
	.cfi_offset %r12, -40
	.cfi_offset %r14, -32
	.cfi_offset %r15, -24
	movl	%esi, %ebx
Ltmp656:
	.loc	15 204 9 prologue_end
	movq	(%rdi), %r15
Ltmp657:
	.file	23 "/rustc/a74d1862d4d87a56244958416fd05976c58ca1a8/src/libcore/char/methods.rs"
	.loc	23 360 12
	cmpl	$128, %esi
	.loc	23 360 9 is_stmt 0
	jae	LBB35_1
Ltmp658:
	.loc	8 1200 12 is_stmt 1
	movq	16(%r15), %rsi
Ltmp659:
	cmpq	8(%r15), %rsi
	.loc	8 1200 9 is_stmt 0
	jne	LBB35_22
Ltmp660:
	.file	24 "/rustc/a74d1862d4d87a56244958416fd05976c58ca1a8/src/libcore/num/mod.rs"
	.loc	24 3632 30 is_stmt 1
	movq	%rsi, %r14
	incq	%r14
Ltmp661:
	.loc	4 540 13
	je	LBB35_35
Ltmp662:
	.loc	18 414 26
	leaq	(%rsi,%rsi), %rax
Ltmp663:
	.file	25 "/rustc/a74d1862d4d87a56244958416fd05976c58ca1a8/src/libcore/cmp.rs"
	.loc	25 1017 9
	cmpq	%r14, %rax
	.loc	25 0 0 is_stmt 0
	cmovaq	%rax, %r14
Ltmp664:
	.loc	18 200 40 is_stmt 1
	testq	%rsi, %rsi
	.loc	18 200 9 is_stmt 0
	je	LBB35_29
Ltmp665:
	.loc	18 420 57 is_stmt 1
	movq	(%r15), %rax
Ltmp666:
	.loc	18 489 25
	testq	%rax, %rax
	je	LBB35_29
Ltmp667:
	.loc	19 205 12
	cmpq	%r14, %rsi
	.loc	19 205 9 is_stmt 0
	je	LBB35_32
Ltmp668:
	.loc	19 124 5 is_stmt 1
	movl	$1, %edx
	movq	%rax, %rdi
Ltmp669:
	movq	%r14, %rcx
	callq	___rust_realloc
Ltmp670:
	.file	26 "/rustc/a74d1862d4d87a56244958416fd05976c58ca1a8/src/libcore/result.rs"
	.loc	26 611 13
	testq	%rax, %rax
	jne	LBB35_33
	jmp	LBB35_36
Ltmp671:
LBB35_1:
	.file	27 "/rustc/a74d1862d4d87a56244958416fd05976c58ca1a8/src/liballoc/string.rs"
	.loc	27 1099 65
	movl	$0, -36(%rbp)
Ltmp672:
	.loc	23 443 23
	movl	%ebx, %eax
Ltmp673:
	.loc	23 362 19
	cmpl	$2048, %ebx
	.loc	23 362 16 is_stmt 0
	jae	LBB35_2
Ltmp674:
	.loc	23 443 23 is_stmt 1
	shrl	$6, %eax
	.loc	23 443 22 is_stmt 0
	andb	$31, %al
	.loc	23 443 17
	orb	$-64, %al
	movb	%al, -36(%rbp)
	.loc	23 444 22 is_stmt 1
	andb	$63, %bl
Ltmp675:
	.loc	23 444 17 is_stmt 0
	orb	$-128, %bl
	movb	%bl, -35(%rbp)
	movl	$2, %r14d
	jmp	LBB35_5
Ltmp676:
LBB35_22:
	.loc	8 850 19 is_stmt 1
	movq	(%r15), %rax
	jmp	LBB35_23
Ltmp677:
LBB35_2:
	.loc	23 364 19
	cmpl	$65536, %ebx
	jae	LBB35_4
Ltmp678:
	.loc	23 447 23
	shrl	$12, %eax
	.loc	23 447 22 is_stmt 0
	andb	$15, %al
	.loc	23 447 17
	orb	$-32, %al
	movb	%al, -36(%rbp)
	.loc	23 448 23 is_stmt 1
	movl	%ebx, %eax
	shrl	$6, %eax
	.loc	23 448 22 is_stmt 0
	andb	$63, %al
	.loc	23 448 17
	orb	$-128, %al
	movb	%al, -35(%rbp)
	.loc	23 449 22 is_stmt 1
	andb	$63, %bl
Ltmp679:
	.loc	23 449 17 is_stmt 0
	orb	$-128, %bl
	movb	%bl, -34(%rbp)
	movl	$3, %r14d
	jmp	LBB35_5
Ltmp680:
LBB35_29:
	.loc	19 170 16 is_stmt 1
	testq	%r14, %r14
	.loc	19 170 13 is_stmt 0
	je	LBB35_30
Ltmp681:
	.loc	19 80 5 is_stmt 1
	movl	$1, %esi
Ltmp682:
	movq	%r14, %rdi
Ltmp683:
	callq	___rust_alloc
Ltmp684:
LBB35_32:
	.loc	26 611 13
	testq	%rax, %rax
	je	LBB35_36
Ltmp685:
LBB35_33:
	.loc	8 1204 45
	movq	16(%r15), %rsi
	jmp	LBB35_34
Ltmp686:
LBB35_4:
	.loc	23 452 23
	shrl	$18, %eax
	.loc	23 452 17 is_stmt 0
	orb	$-16, %al
	movb	%al, -36(%rbp)
	.loc	23 453 23 is_stmt 1
	movl	%ebx, %eax
	shrl	$12, %eax
	.loc	23 453 22 is_stmt 0
	andb	$63, %al
	.loc	23 453 17
	orb	$-128, %al
	movb	%al, -35(%rbp)
	.loc	23 454 23 is_stmt 1
	movl	%ebx, %eax
	shrl	$6, %eax
	.loc	23 454 22 is_stmt 0
	andb	$63, %al
	.loc	23 454 17
	orb	$-128, %al
	movb	%al, -34(%rbp)
	.loc	23 455 22 is_stmt 1
	andb	$63, %bl
Ltmp687:
	.loc	23 455 17 is_stmt 0
	orb	$-128, %bl
	movb	%bl, -33(%rbp)
	movl	$4, %r14d
Ltmp688:
LBB35_5:
	.loc	18 280 12 is_stmt 1
	movq	8(%r15), %rsi
Ltmp689:
	.loc	8 500 26
	movq	16(%r15), %rbx
Ltmp690:
	.loc	24 3343 17
	movq	%rsi, %rax
	subq	%rbx, %rax
Ltmp691:
	.loc	18 378 9
	cmpq	%r14, %rax
Ltmp692:
	.loc	18 280 9
	jae	LBB35_6
Ltmp693:
	.loc	24 3632 30
	movq	%rbx, %r12
	addq	%r14, %r12
Ltmp694:
	.loc	4 540 13
	jb	LBB35_35
Ltmp695:
	.loc	18 414 26
	leaq	(%rsi,%rsi), %rax
Ltmp696:
	.loc	25 1017 9
	cmpq	%r12, %rax
	.loc	25 0 0 is_stmt 0
	cmovaq	%rax, %r12
Ltmp697:
	.loc	18 200 40 is_stmt 1
	testq	%rsi, %rsi
	.loc	18 200 9 is_stmt 0
	je	LBB35_12
Ltmp698:
	.loc	18 420 57 is_stmt 1
	movq	(%r15), %rdi
Ltmp699:
	.loc	18 489 25
	testq	%rdi, %rdi
	je	LBB35_12
Ltmp700:
	.loc	19 205 12
	cmpq	%r12, %rsi
	.loc	19 205 9 is_stmt 0
	je	LBB35_16
Ltmp701:
	.loc	19 124 5 is_stmt 1
	movl	$1, %edx
	movq	%r12, %rcx
	callq	___rust_realloc
Ltmp702:
	.loc	19 0 5 is_stmt 0
	jmp	LBB35_15
Ltmp703:
LBB35_6:
	.loc	8 850 19 is_stmt 1
	movq	(%r15), %rdi
Ltmp704:
	.loc	8 0 19 is_stmt 0
	jmp	LBB35_19
Ltmp705:
LBB35_12:
	.loc	19 170 16 is_stmt 1
	testq	%r12, %r12
	.loc	19 170 13 is_stmt 0
	je	LBB35_13
Ltmp706:
	.loc	19 80 5 is_stmt 1
	movl	$1, %esi
	movq	%r12, %rdi
	callq	___rust_alloc
Ltmp707:
LBB35_15:
	.loc	18 0 0 is_stmt 0
	movq	%rax, %rdi
Ltmp708:
LBB35_16:
	.loc	26 611 13 is_stmt 1
	testq	%rdi, %rdi
	je	LBB35_38
Ltmp709:
	.loc	8 2176 23
	movq	16(%r15), %rbx
	jmp	LBB35_18
Ltmp710:
LBB35_30:
	.loc	8 0 23 is_stmt 0
	movl	$1, %eax
Ltmp711:
LBB35_34:
	.loc	18 387 9 is_stmt 1
	movq	%rax, (%r15)
	.loc	18 388 9
	movq	%r14, 8(%r15)
Ltmp712:
LBB35_23:
	.loc	7 836 42
	movb	%bl, (%rax,%rsi)
Ltmp713:
	.loc	8 1206 13
	incq	16(%r15)
	jmp	LBB35_20
Ltmp714:
LBB35_13:
	.loc	8 0 13 is_stmt 0
	movl	$1, %edi
Ltmp715:
LBB35_18:
	.loc	18 387 9 is_stmt 1
	movq	%rdi, (%r15)
	.loc	18 388 9
	movq	%r12, 8(%r15)
Ltmp716:
LBB35_19:
	.loc	9 152 9
	addq	%rbx, %rdi
Ltmp717:
	.loc	9 0 9 is_stmt 0
	leaq	-36(%rbp), %rsi
Ltmp718:
	.loc	5 2058 5 is_stmt 1
	movq	%r14, %rdx
	callq	_memcpy
Ltmp719:
	.loc	8 2179 26
	addq	%r14, %rbx
Ltmp720:
	.loc	8 940 9
	movq	%rbx, 16(%r15)
Ltmp721:
LBB35_20:
	.loc	15 205 6
	xorl	%eax, %eax
	addq	$16, %rsp
	popq	%rbx
	popq	%r12
	popq	%r14
	popq	%r15
	popq	%rbp
	retq
LBB35_35:
Ltmp722:
	.loc	27 0 0 is_stmt 0
	callq	__ZN5alloc7raw_vec17capacity_overflow17h023f34f5bc34c61fE
Ltmp723:
LBB35_36:
	.loc	18 269 47 is_stmt 1
	movl	$1, %esi
	movq	%r14, %rdi
	callq	__ZN5alloc5alloc18handle_alloc_error17hbc0ab0ed90816c07E
Ltmp724:
LBB35_38:
	.loc	18 269 47 is_stmt 0
	movl	$1, %esi
	movq	%r12, %rdi
	callq	__ZN5alloc5alloc18handle_alloc_error17hbc0ab0ed90816c07E
Ltmp725:
Lfunc_end35:
	.cfi_endproc
	.file	28 "/rustc/a74d1862d4d87a56244958416fd05976c58ca1a8/src/libcore/slice/mod.rs"

	.p2align	4, 0x90
__ZN50_$LT$$RF$mut$u20$W$u20$as$u20$core..fmt..Write$GT$9write_fmt17hd8f0542b0784f860E:
Lfunc_begin36:
	.loc	15 207 0 is_stmt 1
	.cfi_startproc
	pushq	%rbp
	.cfi_def_cfa_offset 16
	.cfi_offset %rbp, -16
	movq	%rsp, %rbp
	.cfi_def_cfa_register %rbp
	subq	$64, %rsp
Ltmp726:
	.loc	15 208 9 prologue_end
	movq	(%rdi), %rax
	movq	%rax, -8(%rbp)
Ltmp727:
	.loc	15 193 26
	movq	40(%rsi), %rax
	movq	%rax, -16(%rbp)
	movq	32(%rsi), %rax
	movq	%rax, -24(%rbp)
	movq	24(%rsi), %rax
	movq	%rax, -32(%rbp)
	movq	16(%rsi), %rax
	movq	%rax, -40(%rbp)
	movq	(%rsi), %rax
	movq	8(%rsi), %rcx
	movq	%rcx, -48(%rbp)
	movq	%rax, -56(%rbp)
	.loc	15 193 9 is_stmt 0
	leaq	l___unnamed_1(%rip), %rsi
Ltmp728:
	.loc	15 0 9
	leaq	-8(%rbp), %rdi
Ltmp729:
	leaq	-56(%rbp), %rdx
	.loc	15 193 9
	callq	__ZN4core3fmt5write17h26bd57c1fd6e9c98E
Ltmp730:
	.loc	15 209 6 is_stmt 1
	addq	$64, %rsp
	popq	%rbp
	retq
Ltmp731:
Lfunc_end36:
	.cfi_endproc

	.p2align	4, 0x90
__ZN50_$LT$$RF$mut$u20$W$u20$as$u20$core..fmt..Write$GT$9write_str17h33ab657502bf6810E:
Lfunc_begin37:
	.loc	15 199 0
	.cfi_startproc
	pushq	%rbp
	.cfi_def_cfa_offset 16
	.cfi_offset %rbp, -16
	movq	%rsp, %rbp
	.cfi_def_cfa_register %rbp
	pushq	%r15
	pushq	%r14
	pushq	%r13
	pushq	%r12
	pushq	%rbx
	pushq	%rax
	.cfi_offset %rbx, -56
	.cfi_offset %r12, -48
	.cfi_offset %r13, -40
	.cfi_offset %r14, -32
	.cfi_offset %r15, -24
	movq	%rdx, %r15
Ltmp732:
	movq	%rsi, %r14
Ltmp733:
	.loc	15 200 9 prologue_end
	movq	(%rdi), %r13
Ltmp734:
	.loc	18 280 12
	movq	8(%r13), %rsi
Ltmp735:
	.loc	8 500 26
	movq	16(%r13), %rbx
Ltmp736:
	.loc	24 3343 17
	movq	%rsi, %rax
	subq	%rbx, %rax
Ltmp737:
	.loc	18 378 9
	cmpq	%rdx, %rax
Ltmp738:
	.loc	18 280 9
	jae	LBB37_1
Ltmp739:
	.loc	24 3632 30
	movq	%rbx, %r12
	addq	%r15, %r12
Ltmp740:
	.loc	4 540 13
	jb	LBB37_15
Ltmp741:
	.loc	18 414 26
	leaq	(%rsi,%rsi), %rax
Ltmp742:
	.loc	25 1017 9
	cmpq	%r12, %rax
	.loc	25 0 0 is_stmt 0
	cmovaq	%rax, %r12
Ltmp743:
	.loc	18 200 40 is_stmt 1
	testq	%rsi, %rsi
	.loc	18 200 9 is_stmt 0
	je	LBB37_8
Ltmp744:
	.loc	18 420 57 is_stmt 1
	movq	(%r13), %rdi
Ltmp745:
	.loc	18 489 25
	testq	%rdi, %rdi
	je	LBB37_8
Ltmp746:
	.loc	19 205 12
	cmpq	%r12, %rsi
	.loc	19 205 9 is_stmt 0
	je	LBB37_12
Ltmp747:
	.loc	19 124 5 is_stmt 1
	movl	$1, %edx
	movq	%r12, %rcx
	callq	___rust_realloc
Ltmp748:
	.loc	19 0 5 is_stmt 0
	jmp	LBB37_11
Ltmp749:
LBB37_1:
	.loc	8 850 19 is_stmt 1
	movq	(%r13), %rdi
Ltmp750:
	.loc	8 0 19 is_stmt 0
	jmp	LBB37_2
Ltmp751:
LBB37_8:
	.loc	19 170 16 is_stmt 1
	testq	%r12, %r12
	.loc	19 170 13 is_stmt 0
	je	LBB37_9
Ltmp752:
	.loc	19 80 5 is_stmt 1
	movl	$1, %esi
	movq	%r12, %rdi
	callq	___rust_alloc
Ltmp753:
LBB37_11:
	.loc	18 0 0 is_stmt 0
	movq	%rax, %rdi
Ltmp754:
LBB37_12:
	.loc	26 611 13 is_stmt 1
	testq	%rdi, %rdi
	je	LBB37_16
Ltmp755:
	.loc	8 2176 23
	movq	16(%r13), %rbx
	jmp	LBB37_14
Ltmp756:
LBB37_9:
	.loc	8 0 23 is_stmt 0
	movl	$1, %edi
Ltmp757:
LBB37_14:
	.loc	18 387 9 is_stmt 1
	movq	%rdi, (%r13)
	.loc	18 388 9
	movq	%r12, 8(%r13)
Ltmp758:
LBB37_2:
	.loc	9 152 9
	addq	%rbx, %rdi
Ltmp759:
	.loc	5 2058 5
	movq	%r14, %rsi
	movq	%r15, %rdx
	callq	_memcpy
Ltmp760:
	.loc	8 2179 26
	addq	%r15, %rbx
Ltmp761:
	.loc	8 940 9
	movq	%rbx, 16(%r13)
Ltmp762:
	.loc	15 201 6
	xorl	%eax, %eax
	addq	$8, %rsp
	popq	%rbx
Ltmp763:
	popq	%r12
	popq	%r13
Ltmp764:
	popq	%r14
Ltmp765:
	popq	%r15
Ltmp766:
	popq	%rbp
	retq
LBB37_15:
Ltmp767:
	.loc	18 268 38
	callq	__ZN5alloc7raw_vec17capacity_overflow17h023f34f5bc34c61fE
Ltmp768:
LBB37_16:
	.loc	18 269 47
	movl	$1, %esi
	movq	%r12, %rdi
	callq	__ZN5alloc5alloc18handle_alloc_error17hbc0ab0ed90816c07E
Ltmp769:
Lfunc_end37:
	.cfi_endproc

	.p2align	4, 0x90
__ZN5alloc3vec12Vec$LT$T$GT$7reserve17h4391498f119e97a7E:
Lfunc_begin38:
	.loc	8 499 0
	.cfi_startproc
	pushq	%rbp
	.cfi_def_cfa_offset 16
	.cfi_offset %rbp, -16
	movq	%rsp, %rbp
	.cfi_def_cfa_register %rbp
Ltmp770:
	pushq	%r14
	pushq	%rbx
	.cfi_offset %rbx, -32
	.cfi_offset %r14, -24
	.loc	18 280 12 prologue_end
	movq	8(%rdi), %rcx
Ltmp771:
	.loc	8 500 26
	movq	16(%rdi), %rax
Ltmp772:
	.loc	24 3343 17
	movq	%rcx, %rdx
	subq	%rax, %rdx
Ltmp773:
	.loc	18 378 9
	cmpq	%rsi, %rdx
Ltmp774:
	.loc	18 280 9
	jae	LBB38_17
Ltmp775:
	.loc	24 3632 30
	addq	%rsi, %rax
Ltmp776:
	.loc	4 540 13
	jb	LBB38_18
Ltmp777:
	.loc	4 0 13 is_stmt 0
	movq	%rdi, %rbx
Ltmp778:
	.loc	18 414 26 is_stmt 1
	leaq	(%rcx,%rcx), %rdx
Ltmp779:
	.loc	25 1017 9
	cmpq	%rax, %rdx
	.loc	25 0 0 is_stmt 0
	cmovaq	%rdx, %rax
Ltmp780:
	movl	$48, %edx
Ltmp781:
	.file	29 "/rustc/a74d1862d4d87a56244958416fd05976c58ca1a8/src/libcore/alloc/layout.rs"
	.loc	29 250 85 is_stmt 1
	xorl	%esi, %esi
Ltmp782:
	.loc	24 3688 26
	mulq	%rdx
Ltmp783:
	movq	%rax, %r14
Ltmp784:
	.loc	24 0 26 is_stmt 0
	seto	%dl
Ltmp785:
	.loc	29 250 85 is_stmt 1
	setno	%dil
Ltmp786:
	.loc	18 200 9
	movq	%rcx, %rax
	.loc	18 200 40 is_stmt 0
	testq	%rcx, %rcx
	.loc	18 200 9
	je	LBB38_4
Ltmp787:
	.loc	18 0 9
	movq	(%rbx), %rax
Ltmp788:
LBB38_4:
	.loc	26 611 13 is_stmt 1
	testb	%dl, %dl
	jne	LBB38_18
Ltmp789:
	.loc	18 489 25
	testq	%rax, %rax
	je	LBB38_11
Ltmp790:
	.loc	18 0 0 is_stmt 0
	shlq	$4, %rcx
Ltmp791:
	leaq	(%rcx,%rcx,2), %rsi
Ltmp792:
	.loc	19 205 12 is_stmt 1
	cmpq	%r14, %rsi
	.loc	19 205 9 is_stmt 0
	je	LBB38_15
Ltmp793:
	.loc	19 211 42 is_stmt 1
	testq	%rsi, %rsi
	je	LBB38_8
Ltmp794:
	.loc	19 124 5
	movl	$8, %edx
	movq	%rax, %rdi
	movq	%r14, %rcx
	callq	___rust_realloc
Ltmp795:
	.loc	26 611 13
	testq	%rax, %rax
	jne	LBB38_16
	jmp	LBB38_19
Ltmp796:
LBB38_11:
	.loc	18 0 0 is_stmt 0
	movb	%dil, %sil
	shlq	$3, %rsi
Ltmp797:
	.loc	19 170 16 is_stmt 1
	testq	%r14, %r14
	.loc	19 170 13 is_stmt 0
	jne	LBB38_14
Ltmp798:
	.loc	18 0 0
	movq	%rsi, %rax
Ltmp799:
	.loc	26 611 13 is_stmt 1
	testq	%rax, %rax
	jne	LBB38_16
	jmp	LBB38_19
Ltmp800:
LBB38_8:
	.loc	19 170 16
	testq	%r14, %r14
	.loc	19 170 13 is_stmt 0
	je	LBB38_9
Ltmp801:
	.loc	19 80 5 is_stmt 1
	movl	$8, %esi
Ltmp802:
LBB38_14:
	.loc	18 0 0 is_stmt 0
	movq	%r14, %rdi
	callq	___rust_alloc
Ltmp803:
LBB38_15:
	.loc	26 611 13 is_stmt 1
	testq	%rax, %rax
	je	LBB38_19
Ltmp804:
LBB38_16:
	.loc	18 387 9
	movq	%rax, (%rbx)
	movabsq	$-6148914691236517205, %rcx
Ltmp805:
	.loc	18 383 9
	movq	%r14, %rax
Ltmp806:
	mulq	%rcx
	shrq	$5, %rdx
Ltmp807:
	.loc	18 388 9
	movq	%rdx, 8(%rbx)
Ltmp808:
LBB38_17:
	.loc	8 501 6
	popq	%rbx
	popq	%r14
	popq	%rbp
	retq
LBB38_9:
Ltmp809:
	.loc	8 0 6 is_stmt 0
	movl	$8, %eax
Ltmp810:
	jmp	LBB38_16
Ltmp811:
LBB38_18:
	.loc	18 268 38 is_stmt 1
	callq	__ZN5alloc7raw_vec17capacity_overflow17h023f34f5bc34c61fE
LBB38_19:
Ltmp812:
	.loc	18 269 47
	movl	$8, %esi
	movq	%r14, %rdi
	callq	__ZN5alloc5alloc18handle_alloc_error17hbc0ab0ed90816c07E
Ltmp813:
Lfunc_end38:
	.cfi_endproc

	.p2align	4, 0x90
__ZN5alloc3vec12Vec$LT$T$GT$7reserve17hda3fe561e747e7fdE:
Lfunc_begin39:
	.loc	8 499 0
	.cfi_startproc
	pushq	%rbp
	.cfi_def_cfa_offset 16
	.cfi_offset %rbp, -16
	movq	%rsp, %rbp
	.cfi_def_cfa_register %rbp
	pushq	%r14
	pushq	%rbx
	.cfi_offset %rbx, -32
	.cfi_offset %r14, -24
	movq	%rsi, %rcx
Ltmp814:
	.loc	18 280 12 prologue_end
	movq	8(%rdi), %rsi
Ltmp815:
	.loc	8 500 26
	movq	16(%rdi), %rax
Ltmp816:
	.loc	24 3343 17
	movq	%rsi, %rdx
	subq	%rax, %rdx
Ltmp817:
	.loc	18 378 9
	cmpq	%rcx, %rdx
Ltmp818:
	.loc	18 280 9
	jae	LBB39_18
Ltmp819:
	.loc	24 3632 30
	addq	%rcx, %rax
Ltmp820:
	.loc	4 540 13
	jb	LBB39_19
Ltmp821:
	.loc	4 0 13 is_stmt 0
	movq	%rdi, %rbx
Ltmp822:
	.loc	18 414 26 is_stmt 1
	leaq	(%rsi,%rsi), %rcx
Ltmp823:
	.loc	25 1017 9
	cmpq	%rax, %rcx
	.loc	25 0 0 is_stmt 0
	cmovaq	%rcx, %rax
Ltmp824:
	movl	$8, %edx
Ltmp825:
	.loc	29 250 85 is_stmt 1
	xorl	%ecx, %ecx
Ltmp826:
	.loc	24 3688 26
	mulq	%rdx
Ltmp827:
	movq	%rax, %r14
Ltmp828:
	.loc	24 0 26 is_stmt 0
	seto	%dl
Ltmp829:
	.loc	29 250 85 is_stmt 1
	setno	%dil
Ltmp830:
	.loc	18 200 9
	movq	%rsi, %rax
	.loc	18 200 40 is_stmt 0
	testq	%rsi, %rsi
	.loc	18 200 9
	je	LBB39_4
Ltmp831:
	.loc	18 0 9
	movq	(%rbx), %rax
Ltmp832:
LBB39_4:
	.loc	26 611 13 is_stmt 1
	testb	%dl, %dl
	jne	LBB39_19
Ltmp833:
	.loc	18 489 25
	testq	%rax, %rax
	je	LBB39_12
Ltmp834:
	.loc	18 0 0 is_stmt 0
	shlq	$3, %rsi
Ltmp835:
	.loc	19 205 12 is_stmt 1
	cmpq	%r14, %rsi
	.loc	19 205 9 is_stmt 0
	je	LBB39_16
Ltmp836:
	.loc	19 211 42 is_stmt 1
	testq	%rsi, %rsi
	je	LBB39_8
Ltmp837:
	.loc	19 124 5
	movl	$4, %edx
	movq	%rax, %rdi
	movq	%r14, %rcx
	callq	___rust_realloc
Ltmp838:
	.loc	26 611 13
	testq	%rax, %rax
	jne	LBB39_17
	jmp	LBB39_20
Ltmp839:
LBB39_12:
	.loc	18 0 0 is_stmt 0
	movb	%dil, %cl
	shlq	$2, %rcx
Ltmp840:
	.loc	19 170 16 is_stmt 1
	testq	%r14, %r14
	.loc	19 170 13 is_stmt 0
	je	LBB39_13
Ltmp841:
	.loc	19 80 5 is_stmt 1
	movq	%r14, %rdi
	movq	%rcx, %rsi
	jmp	LBB39_15
Ltmp842:
LBB39_13:
	.loc	18 0 0 is_stmt 0
	movq	%rcx, %rax
Ltmp843:
	.loc	26 611 13 is_stmt 1
	testq	%rax, %rax
	jne	LBB39_17
	jmp	LBB39_20
Ltmp844:
LBB39_8:
	.loc	19 170 16
	testq	%r14, %r14
	.loc	19 170 13 is_stmt 0
	je	LBB39_9
Ltmp845:
	.loc	19 80 5 is_stmt 1
	movl	$4, %esi
Ltmp846:
	movq	%r14, %rdi
Ltmp847:
LBB39_15:
	.loc	18 0 0 is_stmt 0
	callq	___rust_alloc
Ltmp848:
LBB39_16:
	.loc	26 611 13 is_stmt 1
	testq	%rax, %rax
	je	LBB39_20
Ltmp849:
LBB39_17:
	.loc	18 387 9
	movq	%rax, (%rbx)
Ltmp850:
	.loc	18 383 9
	shrq	$3, %r14
Ltmp851:
	.loc	18 388 9
	movq	%r14, 8(%rbx)
Ltmp852:
LBB39_18:
	.loc	8 501 6
	popq	%rbx
	popq	%r14
	popq	%rbp
	retq
LBB39_9:
Ltmp853:
	.loc	8 0 6 is_stmt 0
	movl	$4, %eax
Ltmp854:
	jmp	LBB39_17
Ltmp855:
LBB39_19:
	.loc	18 268 38 is_stmt 1
	callq	__ZN5alloc7raw_vec17capacity_overflow17h023f34f5bc34c61fE
LBB39_20:
Ltmp856:
	.loc	18 269 47
	movl	$4, %esi
	movq	%r14, %rdi
	callq	__ZN5alloc5alloc18handle_alloc_error17hbc0ab0ed90816c07E
Ltmp857:
Lfunc_end39:
	.cfi_endproc

	.p2align	4, 0x90
__ZN5alloc7raw_vec19RawVec$LT$T$C$A$GT$11allocate_in28_$u7b$$u7b$closure$u7d$$u7d$17h0e0e27b7e48779bcE:
Lfunc_begin40:
	.loc	18 149 0
	.cfi_startproc
	pushq	%rbp
	.cfi_def_cfa_offset 16
	.cfi_offset %rbp, -16
	movq	%rsp, %rbp
	.cfi_def_cfa_register %rbp
Ltmp858:
	.loc	18 149 74 prologue_end
	callq	__ZN5alloc7raw_vec17capacity_overflow17h023f34f5bc34c61fE
Ltmp859:
Lfunc_end40:
	.cfi_endproc

	.p2align	4, 0x90
__ZN5alloc7raw_vec19RawVec$LT$T$C$A$GT$11allocate_in28_$u7b$$u7b$closure$u7d$$u7d$17h92d2ab54817f11b5E:
Lfunc_begin41:
	.loc	18 152 0
	.cfi_startproc
	pushq	%rbp
	.cfi_def_cfa_offset 16
	.cfi_offset %rbp, -16
	movq	%rsp, %rbp
	.cfi_def_cfa_register %rbp
Ltmp860:
	.loc	18 152 71 prologue_end
	callq	__ZN5alloc5alloc18handle_alloc_error17hbc0ab0ed90816c07E
Ltmp861:
Lfunc_end41:
	.cfi_endproc

	.p2align	4, 0x90
__ZN73_$LT$proc_macro2..fallback..TokenStream$u20$as$u20$core..clone..Clone$GT$5clone17h80a5327c7a5a46b6E:
Lfunc_begin42:
	.loc	11 32 0
	.cfi_startproc
	.cfi_personality 155, _rust_eh_personality
	.cfi_lsda 16, Lexception12
	pushq	%rbp
	.cfi_def_cfa_offset 16
	.cfi_offset %rbp, -16
	movq	%rsp, %rbp
	.cfi_def_cfa_register %rbp
Ltmp868:
	pushq	%r15
	pushq	%r14
	pushq	%r13
	pushq	%r12
	pushq	%rbx
	subq	$104, %rsp
	.cfi_offset %rbx, -56
	.cfi_offset %r12, -48
	.cfi_offset %r13, -40
	.cfi_offset %r14, -32
	.cfi_offset %r15, -24
Ltmp869:
	.loc	8 1966 55 prologue_end
	movq	16(%rsi), %r15
Ltmp870:
	.loc	8 0 55 is_stmt 0
	movl	$48, %ecx
Ltmp871:
	.loc	29 250 85 is_stmt 1
	xorl	%r12d, %r12d
Ltmp872:
	.loc	24 3688 26
	movq	%r15, %rax
	mulq	%rcx
	movq	%rax, %r13
Ltmp873:
	.loc	29 250 85
	setno	%al
Ltmp874:
	.loc	26 852 13
	jo	LBB42_14
Ltmp875:
	.loc	26 0 13 is_stmt 0
	movq	%rdi, %rbx
	movq	(%rsi), %r14
Ltmp876:
	movb	%al, %r12b
	shlq	$3, %r12
Ltmp877:
	.loc	19 170 16 is_stmt 1
	testq	%r13, %r13
	.loc	19 170 13 is_stmt 0
	je	LBB42_2
Ltmp878:
	.loc	19 80 5 is_stmt 1
	movq	%r13, %rdi
	movq	%r12, %rsi
Ltmp879:
	callq	___rust_alloc
	movq	%rax, %rcx
Ltmp880:
	.loc	26 852 13
	testq	%rcx, %rcx
	je	LBB42_15
Ltmp881:
LBB42_5:
	.loc	26 0 13 is_stmt 0
	movq	%rbx, -96(%rbp)
	movabsq	$-6148914691236517205, %rdx
Ltmp882:
	.loc	18 383 9 is_stmt 1
	movq	%r13, %rax
	mulq	%rdx
	shrq	$5, %rdx
Ltmp883:
	.loc	8 358 9
	movq	%rcx, -64(%rbp)
	movq	%rdx, -56(%rbp)
	movq	$0, -48(%rbp)
Ltmp884:
Ltmp862:
	.loc	8 0 9 is_stmt 0
	leaq	-64(%rbp), %rdi
Ltmp885:
	.loc	8 2112 13 is_stmt 1
	movq	%r15, %rsi
	callq	__ZN5alloc3vec12Vec$LT$T$GT$7reserve17h4391498f119e97a7E
Ltmp886:
Ltmp863:
	.file	30 "/rustc/a74d1862d4d87a56244958416fd05976c58ca1a8/src/liballoc/slice.rs"
	.loc	30 0 0 is_stmt 0
	leaq	-48(%rbp), %rax
Ltmp887:
	.loc	8 2114 53 is_stmt 1
	movq	-48(%rbp), %r12
Ltmp888:
	.loc	9 152 9
	leaq	(%r12,%r12,2), %rbx
	shlq	$4, %rbx
	addq	-64(%rbp), %rbx
Ltmp889:
	.loc	3 2002 13
	movq	%rbx, -88(%rbp)
	movq	%rax, -80(%rbp)
	movq	%r12, -72(%rbp)
Ltmp890:
	.loc	28 3179 9
	testq	%r15, %r15
	.loc	28 3303 21
	je	LBB42_11
Ltmp891:
	shlq	$4, %r15
Ltmp892:
	leaq	(%r15,%r15,2), %r13
	leaq	-144(%rbp), %r15
Ltmp893:
	.p2align	4, 0x90
LBB42_8:
Ltmp865:
	.loc	10 785 28
	movq	%r15, %rdi
	movq	%r14, %rsi
	callq	__ZN4core3ops8function5FnMut8call_mut17h57832be45974b8bcE
Ltmp894:
Ltmp866:
	.loc	9 152 9
	addq	$48, %r14
Ltmp895:
	.loc	7 836 42
	movq	-104(%rbp), %rax
	movq	%rax, 40(%rbx)
	movq	-112(%rbp), %rax
	movq	%rax, 32(%rbx)
	movq	-120(%rbp), %rax
	movq	%rax, 24(%rbx)
	movq	-128(%rbp), %rax
	movq	%rax, 16(%rbx)
	movq	-144(%rbp), %rax
	movq	-136(%rbp), %rcx
	movq	%rcx, 8(%rbx)
	movq	%rax, (%rbx)
Ltmp896:
	.loc	9 152 9
	addq	$48, %rbx
Ltmp897:
	.loc	8 1722 9
	incq	%r12
Ltmp898:
	.loc	28 3179 9
	addq	$-48, %r13
	.loc	28 3303 21
	jne	LBB42_8
Ltmp899:
	.loc	8 2117 32
	movq	%rbx, -88(%rbp)
Ltmp900:
	.loc	8 1722 9
	movq	%r12, -72(%rbp)
Ltmp901:
LBB42_11:
	.loc	8 1729 9
	movq	%r12, -48(%rbp)
	movq	-96(%rbp), %rdx
Ltmp902:
	.loc	30 161 9
	movq	%r12, 16(%rdx)
	movq	-64(%rbp), %rax
	movq	-56(%rbp), %rcx
	movq	%rcx, 8(%rdx)
	movq	%rax, (%rdx)
Ltmp903:
	.loc	11 32 15
	addq	$104, %rsp
	popq	%rbx
	popq	%r12
	popq	%r13
	popq	%r14
	popq	%r15
	popq	%rbp
	retq
Ltmp904:
LBB42_2:
	.loc	19 0 0 is_stmt 0
	movq	%r12, %rcx
Ltmp905:
	.loc	26 852 13 is_stmt 1
	testq	%rcx, %rcx
	jne	LBB42_5
Ltmp906:
LBB42_15:
	.loc	26 853 23
	movq	%r13, %rdi
	movq	%r12, %rsi
	callq	__ZN5alloc7raw_vec19RawVec$LT$T$C$A$GT$11allocate_in28_$u7b$$u7b$closure$u7d$$u7d$17h92d2ab54817f11b5E
Ltmp907:
LBB42_14:
	.loc	26 853 23 is_stmt 0
	callq	__ZN5alloc7raw_vec19RawVec$LT$T$C$A$GT$11allocate_in28_$u7b$$u7b$closure$u7d$$u7d$17h0e0e27b7e48779bcE
Ltmp908:
LBB42_12:
Ltmp864:
	.loc	26 0 23
	movq	%rax, %r14
Ltmp909:
	jmp	LBB42_13
Ltmp910:
LBB42_16:
Ltmp867:
	movq	%rax, %r14
Ltmp911:
	.loc	8 2117 32 is_stmt 1
	movq	%rbx, -88(%rbp)
Ltmp912:
	.loc	8 1722 9
	movq	%r12, -72(%rbp)
Ltmp913:
	.loc	8 0 9 is_stmt 0
	leaq	-88(%rbp), %rdi
Ltmp914:
	.loc	3 1881 5 is_stmt 1
	callq	__ZN4core3ptr13drop_in_place17h766e8280c69ef9b7E
Ltmp915:
LBB42_13:
	.loc	3 0 5 is_stmt 0
	leaq	-64(%rbp), %rdi
	.loc	30 162 5 is_stmt 1
	callq	__ZN4core3ptr13drop_in_place17h68631bfdf8c72eedE
	movq	%r14, %rdi
	callq	__Unwind_Resume
	ud2
Ltmp916:
Lfunc_end42:
	.cfi_endproc
	.section	__TEXT,__gcc_except_tab
	.p2align	2
GCC_except_table42:
Lexception12:
	.byte	255
	.byte	255
	.byte	1
	.uleb128 Lcst_end12-Lcst_begin12
Lcst_begin12:
	.uleb128 Ltmp862-Lfunc_begin42
	.uleb128 Ltmp863-Ltmp862
	.uleb128 Ltmp864-Lfunc_begin42
	.byte	0
	.uleb128 Ltmp865-Lfunc_begin42
	.uleb128 Ltmp866-Ltmp865
	.uleb128 Ltmp867-Lfunc_begin42
	.byte	0
	.uleb128 Ltmp866-Lfunc_begin42
	.uleb128 Lfunc_end42-Ltmp866
	.byte	0
	.byte	0
Lcst_end12:
	.p2align	2

	.section	__TEXT,__text,regular,pure_instructions
	.globl	__ZN75_$LT$proc_macro2..Ident$u20$as$u20$quote..ident_fragment..IdentFragment$GT$4span17hab44f7d8d5e8aeaeE
	.p2align	4, 0x90
__ZN75_$LT$proc_macro2..Ident$u20$as$u20$quote..ident_fragment..IdentFragment$GT$4span17hab44f7d8d5e8aeaeE:
Lfunc_begin43:
	.file	31 "/Users/yingyuhang/.cargo/registry/src/github.com-1ecc6299db9ec823/quote-1.0.7/src/ident_fragment.rs"
	.loc	31 44 0
	.cfi_startproc
	pushq	%rbp
	.cfi_def_cfa_offset 16
	.cfi_offset %rbp, -16
	movq	%rsp, %rbp
	.cfi_def_cfa_register %rbp
Ltmp917:
	.loc	31 45 14 prologue_end
	callq	__ZN11proc_macro25Ident4span17h51899f14fd7c835cE
Ltmp918:
	.loc	31 46 6
	shlq	$32, %rax
	orq	$1, %rax
	popq	%rbp
	retq
Ltmp919:
Lfunc_end43:
	.cfi_endproc

	.globl	__ZN75_$LT$proc_macro2..Ident$u20$as$u20$quote..ident_fragment..IdentFragment$GT$3fmt17h9fa26d2d8df73b57E
	.p2align	4, 0x90
__ZN75_$LT$proc_macro2..Ident$u20$as$u20$quote..ident_fragment..IdentFragment$GT$3fmt17h9fa26d2d8df73b57E:
Lfunc_begin44:
	.loc	31 48 0
	.cfi_startproc
	.cfi_personality 155, _rust_eh_personality
	.cfi_lsda 16, Lexception13
	pushq	%rbp
	.cfi_def_cfa_offset 16
	.cfi_offset %rbp, -16
	movq	%rsp, %rbp
	.cfi_def_cfa_register %rbp
	pushq	%r15
	pushq	%r14
	pushq	%r13
	pushq	%r12
	pushq	%rbx
	subq	$120, %rsp
	.cfi_offset %rbx, -56
	.cfi_offset %r12, -48
	.cfi_offset %r13, -40
	.cfi_offset %r14, -32
	.cfi_offset %r15, -24
	movq	%rsi, %r15
Ltmp934:
	movq	%rdi, -72(%rbp)
Ltmp935:
	.loc	27 374 9 prologue_end
	movq	$1, -64(%rbp)
	movq	$0, -56(%rbp)
	movq	$0, -48(%rbp)
	leaq	-72(%rbp), %r12
Ltmp936:
	.loc	27 2189 23
	movq	%r12, -104(%rbp)
	leaq	__ZN44_$LT$$RF$T$u20$as$u20$core..fmt..Display$GT$3fmt17h1f40e842b818fd3cE(%rip), %rax
	movq	%rax, -96(%rbp)
Ltmp937:
	.loc	27 0 23 is_stmt 0
	leaq	-64(%rbp), %r13
Ltmp938:
	movq	%r13, -80(%rbp)
Ltmp939:
	.loc	15 193 26 is_stmt 1
	leaq	l___unnamed_5(%rip), %rax
Ltmp940:
	movq	%rax, -152(%rbp)
	movq	$1, -144(%rbp)
	movq	$0, -136(%rbp)
	leaq	-104(%rbp), %rax
Ltmp941:
	movq	%rax, -120(%rbp)
	movq	$1, -112(%rbp)
Ltmp920:
	.loc	15 193 9 is_stmt 0
	leaq	l___unnamed_1(%rip), %rsi
	leaq	-80(%rbp), %r14
	leaq	-152(%rbp), %rdx
	movq	%r14, %rdi
Ltmp942:
	callq	__ZN4core3fmt5write17h26bd57c1fd6e9c98E
Ltmp921:
Ltmp943:
	.loc	26 962 13 is_stmt 1
	testb	%al, %al
Ltmp944:
	jne	LBB44_2
Ltmp945:
	.loc	8 478 9
	movq	-56(%rbp), %rsi
Ltmp946:
	.loc	8 621 31
	movq	-48(%rbp), %rbx
Ltmp947:
	.loc	8 621 12 is_stmt 0
	cmpq	%rbx, %rsi
	.loc	8 621 9
	je	LBB44_13
Ltmp948:
	.loc	18 453 9 is_stmt 1
	jb	LBB44_10
Ltmp949:
	.loc	18 200 40
	testq	%rsi, %rsi
	.loc	18 200 9 is_stmt 0
	je	LBB44_13
Ltmp950:
	.loc	18 455 48 is_stmt 1
	movq	-64(%rbp), %rdi
Ltmp951:
	.loc	18 455 36 is_stmt 0
	testq	%rdi, %rdi
	je	LBB44_13
Ltmp952:
	.loc	19 247 42 is_stmt 1
	testq	%rbx, %rbx
	je	LBB44_9
Ltmp953:
	.loc	19 124 5
	movl	$1, %edx
	movq	%rbx, %rcx
	callq	___rust_realloc
Ltmp954:
	movq	%rax, %r12
Ltmp955:
	.loc	26 611 13
	testq	%rax, %rax
	jne	LBB44_12
Ltmp956:
	.loc	18 368 47
	movl	$1, %esi
	movq	%rbx, %rdi
	callq	__ZN5alloc5alloc18handle_alloc_error17hbc0ab0ed90816c07E
Ltmp957:
LBB44_9:
	.loc	18 0 47 is_stmt 0
	movl	$1, %r12d
Ltmp958:
	.loc	19 102 5 is_stmt 1
	movl	$1, %edx
	callq	___rust_dealloc
Ltmp959:
LBB44_12:
	.loc	18 387 9
	movq	%r12, -64(%rbp)
	.loc	18 388 9
	movq	%rbx, -56(%rbp)
	leaq	-72(%rbp), %r12
Ltmp960:
LBB44_13:
	.loc	27 2192 9
	movq	-48(%rbp), %rsi
	movq	%rsi, -88(%rbp)
	movq	-64(%rbp), %rbx
Ltmp961:
	movq	-56(%rbp), %rax
	movq	%rax, -96(%rbp)
	movq	%rbx, -104(%rbp)
Ltmp962:
	.loc	28 1430 9
	cmpq	$2, %rsi
Ltmp963:
	jb	LBB44_22
Ltmp964:
	.loc	28 5863 12
	leaq	l___unnamed_6(%rip), %rax
Ltmp965:
	cmpq	%rax, %rbx
	.loc	28 5863 9 is_stmt 0
	je	LBB44_16
Ltmp966:
	.loc	28 5868 13 is_stmt 1
	movzwl	(%rbx), %eax
Ltmp967:
	cmpl	$9074, %eax
Ltmp968:
	.loc	28 1430 9
	je	LBB44_16
Ltmp969:
LBB44_22:
Ltmp928:
	.loc	31 53 13
	movq	%rbx, %rdi
	movq	%r15, %rdx
	callq	__ZN42_$LT$str$u20$as$u20$core..fmt..Display$GT$3fmt17hd4dee1c1c4ccf892E
Ltmp929:
Ltmp970:
LBB44_23:
	.loc	31 0 13 is_stmt 0
	movl	%eax, %r14d
Ltmp971:
	.loc	7 178 1 is_stmt 1
	movq	-96(%rbp), %rsi
Ltmp972:
	.loc	18 200 40
	testq	%rsi, %rsi
	.loc	18 200 9 is_stmt 0
	je	LBB44_25
Ltmp973:
	.loc	19 102 5 is_stmt 1
	movl	$1, %edx
	movq	%rbx, %rdi
	callq	___rust_dealloc
Ltmp974:
LBB44_25:
	.loc	31 55 6
	movl	%r14d, %eax
	addq	$120, %rsp
	popq	%rbx
	popq	%r12
	popq	%r13
	popq	%r14
	popq	%r15
Ltmp975:
	popq	%rbp
	retq
LBB44_16:
Ltmp976:
	.loc	31 0 6 is_stmt 0
	movq	%rbx, -64(%rbp)
	movq	%rsi, -56(%rbp)
Ltmp977:
	.loc	22 2051 18 is_stmt 1
	movq	$2, -72(%rbp)
	.loc	22 2051 25 is_stmt 0
	movq	%rsi, -80(%rbp)
Ltmp978:
	.loc	22 2303 26 is_stmt 1
	cmpq	$2, %rsi
	.loc	22 2303 9 is_stmt 0
	je	LBB44_21
Ltmp979:
	.loc	22 2309 25 is_stmt 1
	cmpb	$-65, 2(%rbx)
Ltmp980:
	.loc	22 2021 13
	jle	LBB44_18
Ltmp981:
LBB44_21:
	.loc	20 158 9
	leaq	2(%rbx), %rdi
Ltmp982:
	.loc	22 2040 23
	addq	$-2, %rsi
Ltmp983:
Ltmp926:
	.loc	31 51 13
	movq	%r15, %rdx
	callq	__ZN42_$LT$str$u20$as$u20$core..fmt..Display$GT$3fmt17hd4dee1c1c4ccf892E
Ltmp984:
Ltmp927:
	.loc	31 0 13 is_stmt 0
	jmp	LBB44_23
Ltmp985:
LBB44_2:
Ltmp931:
	.loc	26 963 23 is_stmt 1
	leaq	l___unnamed_7(%rip), %rdi
	leaq	l___unnamed_3(%rip), %rcx
	leaq	l___unnamed_8(%rip), %r8
	leaq	-152(%rbp), %rdx
	movl	$55, %esi
	callq	__ZN4core6result13unwrap_failed17hb5a510096a5fc85fE
Ltmp932:
	jmp	LBB44_3
Ltmp986:
LBB44_10:
Ltmp922:
	.loc	14 10 9
	leaq	l___unnamed_9(%rip), %rdi
	leaq	l___unnamed_10(%rip), %rdx
	movl	$36, %esi
	callq	__ZN4core9panicking5panic17h736ee47a631475c0E
Ltmp923:
	jmp	LBB44_3
Ltmp987:
LBB44_18:
	.loc	4 430 21
	movq	%r13, -152(%rbp)
	movq	%r12, -144(%rbp)
	movq	%r14, -136(%rbp)
Ltmp924:
	leaq	-152(%rbp), %rdi
	callq	__ZN4core3str6traits105_$LT$impl$u20$core..slice..SliceIndex$LT$str$GT$$u20$for$u20$core..ops..range..RangeFrom$LT$usize$GT$$GT$5index28_$u7b$$u7b$closure$u7d$$u7d$17h248fbbad5db82c78E
Ltmp925:
Ltmp988:
LBB44_3:
	.loc	4 0 21 is_stmt 0
	ud2
Ltmp989:
LBB44_26:
Ltmp930:
	movq	%rax, %rbx
	leaq	-104(%rbp), %rdi
	callq	__ZN4core3ptr13drop_in_place17h49a3f52860805f0dE
	movq	%rbx, %rdi
	callq	__Unwind_Resume
	ud2
Ltmp990:
LBB44_20:
Ltmp933:
	movq	%rax, %rbx
	leaq	-64(%rbp), %rdi
	callq	__ZN4core3ptr13drop_in_place17h49a3f52860805f0dE
	movq	%rbx, %rdi
	callq	__Unwind_Resume
	ud2
Ltmp991:
Lfunc_end44:
	.cfi_endproc
	.file	32 "/rustc/a74d1862d4d87a56244958416fd05976c58ca1a8/src/libcore/str/pattern.rs"
	.section	__TEXT,__gcc_except_tab
	.p2align	2
GCC_except_table44:
Lexception13:
	.byte	255
	.byte	255
	.byte	1
	.uleb128 Lcst_end13-Lcst_begin13
Lcst_begin13:
	.uleb128 Ltmp920-Lfunc_begin44
	.uleb128 Ltmp921-Ltmp920
	.uleb128 Ltmp933-Lfunc_begin44
	.byte	0
	.uleb128 Ltmp928-Lfunc_begin44
	.uleb128 Ltmp927-Ltmp928
	.uleb128 Ltmp930-Lfunc_begin44
	.byte	0
	.uleb128 Ltmp931-Lfunc_begin44
	.uleb128 Ltmp923-Ltmp931
	.uleb128 Ltmp933-Lfunc_begin44
	.byte	0
	.uleb128 Ltmp924-Lfunc_begin44
	.uleb128 Ltmp925-Ltmp924
	.uleb128 Ltmp930-Lfunc_begin44
	.byte	0
	.uleb128 Ltmp925-Lfunc_begin44
	.uleb128 Lfunc_end44-Ltmp925
	.byte	0
	.byte	0
Lcst_end13:
	.p2align	2

	.section	__TEXT,__text,regular,pure_instructions
	.globl	__ZN50_$LT$str$u20$as$u20$quote..to_tokens..ToTokens$GT$9to_tokens17hf4b6f6f73e1629c9E
	.p2align	4, 0x90
__ZN50_$LT$str$u20$as$u20$quote..to_tokens..ToTokens$GT$9to_tokens17hf4b6f6f73e1629c9E:
Lfunc_begin45:
	.file	33 "/Users/yingyuhang/.cargo/registry/src/github.com-1ecc6299db9ec823/quote-1.0.7/src/to_tokens.rs"
	.loc	33 118 0 is_stmt 1
	.cfi_startproc
	pushq	%rbp
	.cfi_def_cfa_offset 16
	.cfi_offset %rbp, -16
	movq	%rsp, %rbp
	.cfi_def_cfa_register %rbp
	pushq	%r14
	pushq	%rbx
	subq	$112, %rsp
	.cfi_offset %rbx, -32
	.cfi_offset %r14, -24
	movq	%rdx, %r14
Ltmp992:
	movq	%rsi, %rdx
Ltmp993:
	movq	%rdi, %rsi
Ltmp994:
	leaq	-48(%rbp), %rdi
Ltmp995:
	.loc	33 119 23 prologue_end
	callq	__ZN11proc_macro27Literal6string17hbf011931d29811faE
Ltmp996:
	.file	34 "/rustc/a74d1862d4d87a56244958416fd05976c58ca1a8/src/libcore/convert/mod.rs"
	.loc	34 559 17
	movq	-24(%rbp), %rax
	movq	%rax, -56(%rbp)
	movq	-32(%rbp), %rax
	movq	%rax, -64(%rbp)
	movq	-48(%rbp), %rax
	movq	-40(%rbp), %rcx
	movq	%rcx, -72(%rbp)
	movq	%rax, -80(%rbp)
	leaq	-128(%rbp), %rbx
	leaq	-80(%rbp), %rsi
	.loc	34 559 9 is_stmt 0
	movq	%rbx, %rdi
	callq	__ZN90_$LT$proc_macro2..TokenTree$u20$as$u20$core..convert..From$LT$proc_macro2..Literal$GT$$GT$4from17h412e858586913a94E
Ltmp997:
	.file	35 "/Users/yingyuhang/.cargo/registry/src/github.com-1ecc6299db9ec823/quote-1.0.7/src/ext.rs"
	.loc	35 66 9 is_stmt 1
	movq	%r14, %rdi
Ltmp998:
	movq	%rbx, %rsi
	callq	__ZN110_$LT$proc_macro2..TokenStream$u20$as$u20$core..iter..traits..collect..Extend$LT$proc_macro2..TokenTree$GT$$GT$6extend17h525ee41798119d70E
Ltmp999:
	.loc	33 120 6
	addq	$112, %rsp
	popq	%rbx
	popq	%r14
Ltmp1000:
	popq	%rbp
	retq
Ltmp1001:
Lfunc_end45:
	.cfi_endproc

	.globl	__ZN68_$LT$alloc..string..String$u20$as$u20$quote..to_tokens..ToTokens$GT$9to_tokens17h64650ffe24f36222E
	.p2align	4, 0x90
__ZN68_$LT$alloc..string..String$u20$as$u20$quote..to_tokens..ToTokens$GT$9to_tokens17h64650ffe24f36222E:
Lfunc_begin46:
	.loc	33 124 0
	.cfi_startproc
	pushq	%rbp
	.cfi_def_cfa_offset 16
	.cfi_offset %rbp, -16
	movq	%rsp, %rbp
	.cfi_def_cfa_register %rbp
	pushq	%r14
	pushq	%rbx
	subq	$112, %rsp
	.cfi_offset %rbx, -32
	.cfi_offset %r14, -24
	movq	%rsi, %r14
Ltmp1002:
	.loc	8 814 19 prologue_end
	movq	(%rdi), %rsi
Ltmp1003:
	.loc	8 1966 55
	movq	16(%rdi), %rdx
Ltmp1004:
	.loc	8 0 55 is_stmt 0
	leaq	-48(%rbp), %rdi
Ltmp1005:
	.loc	33 119 23 is_stmt 1
	callq	__ZN11proc_macro27Literal6string17hbf011931d29811faE
Ltmp1006:
	.loc	34 559 17
	movq	-24(%rbp), %rax
	movq	%rax, -56(%rbp)
	movq	-32(%rbp), %rax
	movq	%rax, -64(%rbp)
	movq	-48(%rbp), %rax
	movq	-40(%rbp), %rcx
	movq	%rcx, -72(%rbp)
	movq	%rax, -80(%rbp)
	leaq	-128(%rbp), %rbx
	leaq	-80(%rbp), %rsi
	.loc	34 559 9 is_stmt 0
	movq	%rbx, %rdi
	callq	__ZN90_$LT$proc_macro2..TokenTree$u20$as$u20$core..convert..From$LT$proc_macro2..Literal$GT$$GT$4from17h412e858586913a94E
Ltmp1007:
	.loc	35 66 9 is_stmt 1
	movq	%r14, %rdi
Ltmp1008:
	movq	%rbx, %rsi
	callq	__ZN110_$LT$proc_macro2..TokenStream$u20$as$u20$core..iter..traits..collect..Extend$LT$proc_macro2..TokenTree$GT$$GT$6extend17h525ee41798119d70E
Ltmp1009:
	.loc	33 126 6
	addq	$112, %rsp
	popq	%rbx
	popq	%r14
Ltmp1010:
	popq	%rbp
	retq
Ltmp1011:
Lfunc_end46:
	.cfi_endproc

	.globl	__ZN51_$LT$char$u20$as$u20$quote..to_tokens..ToTokens$GT$9to_tokens17h933f414657ef79c6E
	.p2align	4, 0x90
__ZN51_$LT$char$u20$as$u20$quote..to_tokens..ToTokens$GT$9to_tokens17h933f414657ef79c6E:
Lfunc_begin47:
	.loc	33 159 0
	.cfi_startproc
	pushq	%rbp
	.cfi_def_cfa_offset 16
	.cfi_offset %rbp, -16
	movq	%rsp, %rbp
	.cfi_def_cfa_register %rbp
	pushq	%r14
	pushq	%rbx
	subq	$112, %rsp
	.cfi_offset %rbx, -32
	.cfi_offset %r14, -24
	movq	%rsi, %r14
Ltmp1012:
	.loc	33 160 42 prologue_end
	movl	(%rdi), %esi
Ltmp1013:
	.loc	33 0 42 is_stmt 0
	leaq	-48(%rbp), %rdi
Ltmp1014:
	.loc	33 160 23
	callq	__ZN11proc_macro27Literal9character17hc9d415b3a0d1f005E
Ltmp1015:
	.loc	34 559 17 is_stmt 1
	movq	-24(%rbp), %rax
	movq	%rax, -56(%rbp)
	movq	-32(%rbp), %rax
	movq	%rax, -64(%rbp)
	movq	-48(%rbp), %rax
	movq	-40(%rbp), %rcx
	movq	%rcx, -72(%rbp)
	movq	%rax, -80(%rbp)
	leaq	-128(%rbp), %rbx
	leaq	-80(%rbp), %rsi
	.loc	34 559 9 is_stmt 0
	movq	%rbx, %rdi
	callq	__ZN90_$LT$proc_macro2..TokenTree$u20$as$u20$core..convert..From$LT$proc_macro2..Literal$GT$$GT$4from17h412e858586913a94E
Ltmp1016:
	.loc	35 66 9 is_stmt 1
	movq	%r14, %rdi
Ltmp1017:
	movq	%rbx, %rsi
	callq	__ZN110_$LT$proc_macro2..TokenStream$u20$as$u20$core..iter..traits..collect..Extend$LT$proc_macro2..TokenTree$GT$$GT$6extend17h525ee41798119d70E
Ltmp1018:
	.loc	33 161 6
	addq	$112, %rsp
	popq	%rbx
	popq	%r14
Ltmp1019:
	popq	%rbp
	retq
Ltmp1020:
Lfunc_end47:
	.cfi_endproc

	.globl	__ZN51_$LT$bool$u20$as$u20$quote..to_tokens..ToTokens$GT$9to_tokens17h8eddbce5e01e6e8eE
	.p2align	4, 0x90
__ZN51_$LT$bool$u20$as$u20$quote..to_tokens..ToTokens$GT$9to_tokens17h8eddbce5e01e6e8eE:
Lfunc_begin48:
	.loc	33 165 0
	.cfi_startproc
	pushq	%rbp
	.cfi_def_cfa_offset 16
	.cfi_offset %rbp, -16
	movq	%rsp, %rbp
	.cfi_def_cfa_register %rbp
	pushq	%r15
	pushq	%r14
	pushq	%rbx
	subq	$136, %rsp
	.cfi_offset %rbx, -40
	.cfi_offset %r14, -32
	.cfi_offset %r15, -24
	movq	%rsi, %r14
Ltmp1021:
	.loc	33 166 23 prologue_end
	xorl	%ebx, %ebx
	cmpb	$0, (%rdi)
	sete	%bl
	.loc	33 166 20 is_stmt 0
	leaq	l___unnamed_11(%rip), %rax
	leaq	L___unnamed_12(%rip), %r15
	cmoveq	%rax, %r15
Ltmp1022:
	orq	$4, %rbx
Ltmp1023:
	.loc	33 167 40 is_stmt 1
	callq	__ZN11proc_macro24Span9call_site17h3202e3fbf4b552d9E
Ltmp1024:
	.loc	33 0 40 is_stmt 0
	leaq	-64(%rbp), %rdi
	.loc	33 167 23
	movq	%r15, %rsi
	movq	%rbx, %rdx
	movl	%eax, %ecx
	callq	__ZN11proc_macro25Ident3new17h07294457c5ee078bE
Ltmp1025:
	.loc	34 559 17 is_stmt 1
	movq	-32(%rbp), %rax
	movq	%rax, -72(%rbp)
	movq	-40(%rbp), %rax
	movq	%rax, -80(%rbp)
	movq	-48(%rbp), %rax
	movq	%rax, -88(%rbp)
	movq	-64(%rbp), %rax
	movq	-56(%rbp), %rcx
	movq	%rcx, -96(%rbp)
	movq	%rax, -104(%rbp)
	leaq	-152(%rbp), %rbx
Ltmp1026:
	.loc	34 0 17 is_stmt 0
	leaq	-104(%rbp), %rsi
	.loc	34 559 9
	movq	%rbx, %rdi
	callq	__ZN88_$LT$proc_macro2..TokenTree$u20$as$u20$core..convert..From$LT$proc_macro2..Ident$GT$$GT$4from17h7c49be5e7ad84e28E
Ltmp1027:
	.loc	35 66 9 is_stmt 1
	movq	%r14, %rdi
Ltmp1028:
	movq	%rbx, %rsi
	callq	__ZN110_$LT$proc_macro2..TokenStream$u20$as$u20$core..iter..traits..collect..Extend$LT$proc_macro2..TokenTree$GT$$GT$6extend17h525ee41798119d70E
Ltmp1029:
	.loc	33 168 6
	addq	$136, %rsp
	popq	%rbx
	popq	%r14
Ltmp1030:
	popq	%r15
Ltmp1031:
	popq	%rbp
	retq
Ltmp1032:
Lfunc_end48:
	.cfi_endproc

	.globl	__ZN65_$LT$proc_macro2..Group$u20$as$u20$quote..to_tokens..ToTokens$GT$9to_tokens17h1c54bda4d8da384cE
	.p2align	4, 0x90
__ZN65_$LT$proc_macro2..Group$u20$as$u20$quote..to_tokens..ToTokens$GT$9to_tokens17h1c54bda4d8da384cE:
Lfunc_begin49:
	.loc	33 172 0
	.cfi_startproc
	pushq	%rbp
	.cfi_def_cfa_offset 16
	.cfi_offset %rbp, -16
	movq	%rsp, %rbp
	.cfi_def_cfa_register %rbp
	pushq	%r15
	pushq	%r14
	pushq	%rbx
	subq	$120, %rsp
	.cfi_offset %rbx, -40
	.cfi_offset %r14, -32
	.cfi_offset %r15, -24
	movq	%rsi, %r14
Ltmp1033:
	movq	%rdi, %rsi
Ltmp1034:
	.loc	2 534 10 prologue_end
	cmpl	$1, (%rdi)
	jne	LBB49_2
Ltmp1035:
	.loc	11 554 5
	movb	32(%rsi), %r15b
Ltmp1036:
	.loc	2 537 14
	addq	$8, %rsi
Ltmp1037:
	.loc	2 0 14 is_stmt 0
	leaq	-144(%rbp), %rdi
Ltmp1038:
	.loc	11 555 5 is_stmt 1
	callq	__ZN73_$LT$proc_macro2..fallback..TokenStream$u20$as$u20$core..clone..Clone$GT$5clone17h80a5327c7a5a46b6E
Ltmp1039:
	.loc	11 0 5 is_stmt 0
	movl	$1, %r8d
	jmp	LBB49_3
Ltmp1040:
LBB49_2:
	.loc	2 536 14 is_stmt 1
	addq	$4, %rsi
Ltmp1041:
	.loc	17 592 18
	movq	%rsi, %rdi
	callq	__ZN72_$LT$proc_macro..bridge..client..Group$u20$as$u20$core..clone..Clone$GT$5clone17h5085063e736a3ec3E
Ltmp1042:
	.loc	17 0 18 is_stmt 0
	xorl	%r8d, %r8d
Ltmp1043:
LBB49_3:
	.loc	1 580 10 is_stmt 1
	movq	-128(%rbp), %rdx
	movq	%rdx, -80(%rbp)
	movq	-144(%rbp), %rsi
	movq	-136(%rbp), %rdi
	movq	%rdi, -88(%rbp)
	movq	%rsi, -96(%rbp)
	movl	-72(%rbp), %ebx
	movl	-69(%rbp), %ecx
	movl	%ebx, -32(%rbp)
	movl	%ecx, -29(%rbp)
Ltmp1044:
	.loc	34 559 17
	movl	%r8d, -72(%rbp)
	movl	%eax, -68(%rbp)
	movq	%rsi, -64(%rbp)
	movq	%rdi, -56(%rbp)
	movq	%rdx, -48(%rbp)
	movb	%r15b, -40(%rbp)
	movl	-32(%rbp), %eax
Ltmp1045:
	movl	-29(%rbp), %ecx
	movl	%eax, -39(%rbp)
	movl	%ecx, -36(%rbp)
	leaq	-144(%rbp), %rbx
	leaq	-72(%rbp), %rsi
	.loc	34 559 9 is_stmt 0
	movq	%rbx, %rdi
	callq	__ZN88_$LT$proc_macro2..TokenTree$u20$as$u20$core..convert..From$LT$proc_macro2..Group$GT$$GT$4from17h3b815a37987b51b7E
Ltmp1046:
	.loc	35 66 9 is_stmt 1
	movq	%r14, %rdi
	movq	%rbx, %rsi
	callq	__ZN110_$LT$proc_macro2..TokenStream$u20$as$u20$core..iter..traits..collect..Extend$LT$proc_macro2..TokenTree$GT$$GT$6extend17h525ee41798119d70E
Ltmp1047:
	.loc	33 174 6
	addq	$120, %rsp
	popq	%rbx
	popq	%r14
Ltmp1048:
	popq	%r15
Ltmp1049:
	popq	%rbp
	retq
Ltmp1050:
Lfunc_end49:
	.cfi_endproc

	.globl	__ZN65_$LT$proc_macro2..Ident$u20$as$u20$quote..to_tokens..ToTokens$GT$9to_tokens17h9cc2db5ec809b7d9E
	.p2align	4, 0x90
__ZN65_$LT$proc_macro2..Ident$u20$as$u20$quote..to_tokens..ToTokens$GT$9to_tokens17h9cc2db5ec809b7d9E:
Lfunc_begin50:
	.loc	33 178 0
	.cfi_startproc
	pushq	%rbp
	.cfi_def_cfa_offset 16
	.cfi_offset %rbp, -16
	movq	%rsp, %rbp
	.cfi_def_cfa_register %rbp
	pushq	%r14
	pushq	%rbx
	subq	$128, %rsp
	.cfi_offset %rbx, -32
	.cfi_offset %r14, -24
	movq	%rsi, %r14
Ltmp1051:
	movq	%rdi, %rbx
Ltmp1052:
	.loc	2 644 10 prologue_end
	cmpl	$1, (%rdi)
	jne	LBB50_2
Ltmp1053:
	.loc	2 647 14
	leaq	8(%rbx), %rsi
Ltmp1054:
	.loc	2 0 14 is_stmt 0
	leaq	-136(%rbp), %rdi
Ltmp1055:
	.loc	11 622 5 is_stmt 1
	callq	__ZN60_$LT$alloc..string..String$u20$as$u20$core..clone..Clone$GT$5clone17h58f2d97d6470fc46E
Ltmp1056:
	.loc	16 185 25
	cmpb	$0, 32(%rbx)
	setne	%r8b
	movl	$1, %edx
	jmp	LBB50_3
Ltmp1057:
LBB50_2:
	.loc	17 822 18
	movl	4(%rbx), %r9d
	xorl	%edx, %edx
Ltmp1058:
LBB50_3:
	.loc	1 843 10
	movq	-120(%rbp), %rsi
	movq	%rsi, -72(%rbp)
	movq	-136(%rbp), %rdi
	movq	-128(%rbp), %rbx
Ltmp1059:
	movq	%rbx, -80(%rbp)
	movq	%rdi, -88(%rbp)
	movl	-64(%rbp), %eax
	movl	-61(%rbp), %ecx
	movl	%eax, -24(%rbp)
	movl	%ecx, -21(%rbp)
Ltmp1060:
	.loc	34 559 17
	movl	%edx, -64(%rbp)
	movl	%r9d, -60(%rbp)
	movq	%rdi, -56(%rbp)
	movq	%rbx, -48(%rbp)
	movq	%rsi, -40(%rbp)
	movb	%r8b, -32(%rbp)
	movl	-24(%rbp), %eax
	movl	-21(%rbp), %ecx
	movl	%eax, -31(%rbp)
	movl	%ecx, -28(%rbp)
	leaq	-136(%rbp), %rbx
	leaq	-64(%rbp), %rsi
	.loc	34 559 9 is_stmt 0
	movq	%rbx, %rdi
	callq	__ZN88_$LT$proc_macro2..TokenTree$u20$as$u20$core..convert..From$LT$proc_macro2..Ident$GT$$GT$4from17h7c49be5e7ad84e28E
Ltmp1061:
	.loc	35 66 9 is_stmt 1
	movq	%r14, %rdi
	movq	%rbx, %rsi
	callq	__ZN110_$LT$proc_macro2..TokenStream$u20$as$u20$core..iter..traits..collect..Extend$LT$proc_macro2..TokenTree$GT$$GT$6extend17h525ee41798119d70E
Ltmp1062:
	.loc	33 180 6
	addq	$128, %rsp
	popq	%rbx
	popq	%r14
Ltmp1063:
	popq	%rbp
	retq
Ltmp1064:
Lfunc_end50:
	.cfi_endproc

	.globl	__ZN65_$LT$proc_macro2..Punct$u20$as$u20$quote..to_tokens..ToTokens$GT$9to_tokens17h6f83096342de438bE
	.p2align	4, 0x90
__ZN65_$LT$proc_macro2..Punct$u20$as$u20$quote..to_tokens..ToTokens$GT$9to_tokens17h6f83096342de438bE:
Lfunc_begin51:
	.loc	33 184 0
	.cfi_startproc
	pushq	%rbp
	.cfi_def_cfa_offset 16
	.cfi_offset %rbp, -16
	movq	%rsp, %rbp
	.cfi_def_cfa_register %rbp
	pushq	%r14
	pushq	%rbx
	subq	$64, %rsp
	.cfi_offset %rbx, -32
	.cfi_offset %r14, -24
	movq	%rsi, %rbx
Ltmp1065:
	.loc	1 702 5 prologue_end
	movq	(%rdi), %rax
Ltmp1066:
	.loc	1 709 16
	cmpb	$0, 8(%rdi)
Ltmp1067:
	.loc	34 559 17
	movq	%rax, -32(%rbp)
	setne	-24(%rbp)
	leaq	-80(%rbp), %r14
	leaq	-32(%rbp), %rsi
	.loc	34 559 9 is_stmt 0
	movq	%r14, %rdi
Ltmp1068:
	callq	__ZN88_$LT$proc_macro2..TokenTree$u20$as$u20$core..convert..From$LT$proc_macro2..Punct$GT$$GT$4from17hfdd065e460bceb1cE
Ltmp1069:
	.loc	35 66 9 is_stmt 1
	movq	%rbx, %rdi
Ltmp1070:
	movq	%r14, %rsi
	callq	__ZN110_$LT$proc_macro2..TokenStream$u20$as$u20$core..iter..traits..collect..Extend$LT$proc_macro2..TokenTree$GT$$GT$6extend17h525ee41798119d70E
Ltmp1071:
	.loc	33 186 6
	addq	$64, %rsp
	popq	%rbx
Ltmp1072:
	popq	%r14
	popq	%rbp
	retq
Ltmp1073:
Lfunc_end51:
	.cfi_endproc

	.globl	__ZN67_$LT$proc_macro2..Literal$u20$as$u20$quote..to_tokens..ToTokens$GT$9to_tokens17h3c2869823709bba1E
	.p2align	4, 0x90
__ZN67_$LT$proc_macro2..Literal$u20$as$u20$quote..to_tokens..ToTokens$GT$9to_tokens17h3c2869823709bba1E:
Lfunc_begin52:
	.loc	33 190 0
	.cfi_startproc
	pushq	%rbp
	.cfi_def_cfa_offset 16
	.cfi_offset %rbp, -16
	movq	%rsp, %rbp
	.cfi_def_cfa_register %rbp
	pushq	%r14
	pushq	%rbx
	subq	$112, %rsp
	.cfi_offset %rbx, -32
	.cfi_offset %r14, -24
	movq	%rsi, %r14
Ltmp1074:
	movq	%rdi, %rsi
Ltmp1075:
	.loc	2 739 10 prologue_end
	cmpl	$1, (%rdi)
	jne	LBB52_2
Ltmp1076:
	.loc	2 742 14
	addq	$8, %rsi
Ltmp1077:
	.loc	2 0 14 is_stmt 0
	leaq	-120(%rbp), %rdi
Ltmp1078:
	.loc	11 752 5 is_stmt 1
	callq	__ZN60_$LT$alloc..string..String$u20$as$u20$core..clone..Clone$GT$5clone17h58f2d97d6470fc46E
Ltmp1079:
	.loc	11 0 5 is_stmt 0
	movl	$1, %ecx
	jmp	LBB52_3
Ltmp1080:
LBB52_2:
	.loc	2 741 14 is_stmt 1
	addq	$4, %rsi
Ltmp1081:
	.loc	17 903 20
	movq	%rsi, %rdi
	callq	__ZN74_$LT$proc_macro..bridge..client..Literal$u20$as$u20$core..clone..Clone$GT$5clone17h201bd64f1d55f19fE
Ltmp1082:
	.loc	17 0 20 is_stmt 0
	xorl	%ecx, %ecx
Ltmp1083:
LBB52_3:
	.loc	1 971 10 is_stmt 1
	movq	-104(%rbp), %rdx
	movq	%rdx, -56(%rbp)
	movq	-120(%rbp), %rsi
	movq	-112(%rbp), %rdi
	movq	%rdi, -64(%rbp)
	movq	%rsi, -72(%rbp)
Ltmp1084:
	.loc	34 559 17
	movl	%ecx, -48(%rbp)
	movl	%eax, -44(%rbp)
	movq	%rsi, -40(%rbp)
	movq	%rdi, -32(%rbp)
	movq	%rdx, -24(%rbp)
	leaq	-120(%rbp), %rbx
	leaq	-48(%rbp), %rsi
	.loc	34 559 9 is_stmt 0
	movq	%rbx, %rdi
	callq	__ZN90_$LT$proc_macro2..TokenTree$u20$as$u20$core..convert..From$LT$proc_macro2..Literal$GT$$GT$4from17h412e858586913a94E
Ltmp1085:
	.loc	35 66 9 is_stmt 1
	movq	%r14, %rdi
	movq	%rbx, %rsi
	callq	__ZN110_$LT$proc_macro2..TokenStream$u20$as$u20$core..iter..traits..collect..Extend$LT$proc_macro2..TokenTree$GT$$GT$6extend17h525ee41798119d70E
Ltmp1086:
	.loc	33 192 6
	addq	$112, %rsp
	popq	%rbx
	popq	%r14
Ltmp1087:
	popq	%rbp
	retq
Ltmp1088:
Lfunc_end52:
	.cfi_endproc

	.globl	__ZN69_$LT$proc_macro2..TokenTree$u20$as$u20$quote..to_tokens..ToTokens$GT$9to_tokens17hc4cc730dd785fb81E
	.p2align	4, 0x90
__ZN69_$LT$proc_macro2..TokenTree$u20$as$u20$quote..to_tokens..ToTokens$GT$9to_tokens17hc4cc730dd785fb81E:
Lfunc_begin53:
	.loc	33 196 0
	.cfi_startproc
	pushq	%rbp
	.cfi_def_cfa_offset 16
	.cfi_offset %rbp, -16
	movq	%rsp, %rbp
	.cfi_def_cfa_register %rbp
	pushq	%r15
	pushq	%r14
	pushq	%rbx
	subq	$88, %rsp
	.cfi_offset %rbx, -40
	.cfi_offset %r14, -32
	.cfi_offset %r15, -24
	movq	%rsi, %r14
Ltmp1089:
	movq	%rdi, %rbx
Ltmp1090:
	.loc	1 479 10 prologue_end
	movl	(%rdi), %eax
	leaq	LJTI53_0(%rip), %rcx
	movslq	(%rcx,%rax,4), %rax
	addq	%rcx, %rax
	jmpq	*%rax
Ltmp1091:
LBB53_1:
	.loc	2 534 10
	cmpl	$1, 8(%rbx)
	jne	LBB53_10
Ltmp1092:
	.loc	11 554 5
	movb	40(%rbx), %r15b
Ltmp1093:
	.loc	2 537 14
	addq	$16, %rbx
Ltmp1094:
	.loc	2 0 14 is_stmt 0
	leaq	-112(%rbp), %rdi
Ltmp1095:
	.loc	11 555 5 is_stmt 1
	movq	%rbx, %rsi
	callq	__ZN73_$LT$proc_macro2..fallback..TokenStream$u20$as$u20$core..clone..Clone$GT$5clone17h80a5327c7a5a46b6E
	movl	$1, %ecx
	jmp	LBB53_11
Ltmp1096:
LBB53_3:
	.loc	1 702 5
	movl	4(%rbx), %edi
Ltmp1097:
	.loc	1 709 16
	xorl	%eax, %eax
	cmpb	$0, 12(%rbx)
Ltmp1098:
	.loc	1 338 16
	movl	8(%rbx), %ecx
Ltmp1099:
	.loc	1 709 16
	setne	%al
Ltmp1100:
	.loc	1 0 16 is_stmt 0
	movl	$2, %esi
	xorl	%edx, %edx
Ltmp1101:
	jmp	LBB53_15
Ltmp1102:
LBB53_4:
	.loc	2 739 10 is_stmt 1
	cmpl	$1, 8(%rbx)
	jne	LBB53_8
Ltmp1103:
	.loc	2 742 14
	addq	$16, %rbx
Ltmp1104:
	.loc	2 0 14 is_stmt 0
	leaq	-112(%rbp), %rdi
Ltmp1105:
	.loc	11 752 5 is_stmt 1
	movq	%rbx, %rsi
	callq	__ZN60_$LT$alloc..string..String$u20$as$u20$core..clone..Clone$GT$5clone17h58f2d97d6470fc46E
	movl	$1, %ecx
	jmp	LBB53_9
Ltmp1106:
LBB53_6:
	.loc	2 644 10
	cmpl	$1, 8(%rbx)
	jne	LBB53_12
Ltmp1107:
	.loc	2 647 14
	leaq	16(%rbx), %rsi
Ltmp1108:
	.loc	2 0 14 is_stmt 0
	leaq	-112(%rbp), %rdi
Ltmp1109:
	.loc	11 622 5 is_stmt 1
	callq	__ZN60_$LT$alloc..string..String$u20$as$u20$core..clone..Clone$GT$5clone17h58f2d97d6470fc46E
Ltmp1110:
	.loc	16 185 25
	cmpb	$0, 40(%rbx)
	setne	%r15b
	movl	$1, %ecx
	jmp	LBB53_13
Ltmp1111:
LBB53_8:
	.loc	2 741 14
	addq	$12, %rbx
Ltmp1112:
	.loc	17 903 20
	movq	%rbx, %rdi
	callq	__ZN74_$LT$proc_macro..bridge..client..Literal$u20$as$u20$core..clone..Clone$GT$5clone17h201bd64f1d55f19fE
	xorl	%ecx, %ecx
Ltmp1113:
LBB53_9:
	.loc	1 971 10
	movq	-96(%rbp), %rdx
	movq	%rdx, -48(%rbp)
	movq	-112(%rbp), %rdx
	movq	-104(%rbp), %rsi
	movq	%rsi, -56(%rbp)
	movq	%rdx, -64(%rbp)
Ltmp1114:
	.loc	35 66 32
	movl	%eax, %edx
	andl	$-256, %edx
	movl	$3, %esi
Ltmp1115:
	.loc	35 0 32 is_stmt 0
	jmp	LBB53_14
Ltmp1116:
LBB53_10:
	.loc	2 536 14 is_stmt 1
	addq	$12, %rbx
Ltmp1117:
	.loc	17 592 18
	movq	%rbx, %rdi
	callq	__ZN72_$LT$proc_macro..bridge..client..Group$u20$as$u20$core..clone..Clone$GT$5clone17h5085063e736a3ec3E
	xorl	%ecx, %ecx
Ltmp1118:
LBB53_11:
	.loc	1 580 10
	movq	-96(%rbp), %rdx
	movq	%rdx, -48(%rbp)
	movq	-112(%rbp), %rdx
	movq	-104(%rbp), %rsi
	movq	%rsi, -56(%rbp)
	movq	%rdx, -64(%rbp)
	movl	-39(%rbp), %edx
	movl	-36(%rbp), %esi
	movl	%edx, -32(%rbp)
	movl	%esi, -29(%rbp)
Ltmp1119:
	.loc	35 66 32
	movl	%eax, %edx
	andl	$-256, %edx
	xorl	%esi, %esi
	jmp	LBB53_14
Ltmp1120:
LBB53_12:
	.loc	17 822 18
	movl	12(%rbx), %eax
	xorl	%ecx, %ecx
Ltmp1121:
LBB53_13:
	.loc	1 843 10
	movq	-96(%rbp), %rdx
	movq	%rdx, -48(%rbp)
	movq	-112(%rbp), %rdx
	movq	-104(%rbp), %rsi
	movq	%rsi, -56(%rbp)
	movq	%rdx, -64(%rbp)
	movl	-39(%rbp), %edx
	movl	-36(%rbp), %esi
	movl	%edx, -32(%rbp)
	movl	%esi, -29(%rbp)
Ltmp1122:
	.loc	35 66 32
	movl	%eax, %edx
	andl	$-256, %edx
	movl	$1, %esi
Ltmp1123:
LBB53_14:
LBB53_15:
	movl	%esi, -112(%rbp)
	movl	%edi, -108(%rbp)
	movl	%ecx, -104(%rbp)
	movzbl	%al, %eax
	orl	%edx, %eax
	movl	%eax, -100(%rbp)
	movq	-64(%rbp), %rax
	movq	-56(%rbp), %rcx
Ltmp1124:
	movq	%rax, -96(%rbp)
	movq	%rcx, -88(%rbp)
	movq	-48(%rbp), %rax
	movq	%rax, -80(%rbp)
	movb	%r15b, -72(%rbp)
	movl	-32(%rbp), %eax
	movl	-29(%rbp), %ecx
	movl	%eax, -71(%rbp)
	movl	%ecx, -68(%rbp)
	leaq	-112(%rbp), %rsi
Ltmp1125:
	.loc	35 66 9 is_stmt 0
	movq	%r14, %rdi
Ltmp1126:
	callq	__ZN110_$LT$proc_macro2..TokenStream$u20$as$u20$core..iter..traits..collect..Extend$LT$proc_macro2..TokenTree$GT$$GT$6extend17h525ee41798119d70E
Ltmp1127:
	.loc	33 198 6 is_stmt 1
	addq	$88, %rsp
	popq	%rbx
	popq	%r14
Ltmp1128:
	popq	%r15
Ltmp1129:
	popq	%rbp
	retq
Ltmp1130:
Lfunc_end53:
	.cfi_endproc
	.p2align	2, 0x90
	.data_region jt32
.set L53_0_set_1, LBB53_1-LJTI53_0
.set L53_0_set_6, LBB53_6-LJTI53_0
.set L53_0_set_3, LBB53_3-LJTI53_0
.set L53_0_set_4, LBB53_4-LJTI53_0
LJTI53_0:
	.long	L53_0_set_1
	.long	L53_0_set_6
	.long	L53_0_set_3
	.long	L53_0_set_4
	.end_data_region

	.globl	__ZN71_$LT$proc_macro2..TokenStream$u20$as$u20$quote..to_tokens..ToTokens$GT$9to_tokens17hf9ef50442efc123fE
	.p2align	4, 0x90
__ZN71_$LT$proc_macro2..TokenStream$u20$as$u20$quote..to_tokens..ToTokens$GT$9to_tokens17hf9ef50442efc123fE:
Lfunc_begin54:
	.loc	33 202 0
	.cfi_startproc
	.cfi_personality 155, _rust_eh_personality
	.cfi_lsda 16, Lexception14
	pushq	%rbp
	.cfi_def_cfa_offset 16
	.cfi_offset %rbp, -16
	movq	%rsp, %rbp
	.cfi_def_cfa_register %rbp
	pushq	%r15
	pushq	%r14
	pushq	%r13
	pushq	%r12
	pushq	%rbx
	subq	$376, %rsp
	.cfi_offset %rbx, -56
	.cfi_offset %r12, -48
	.cfi_offset %r13, -40
	.cfi_offset %r14, -32
	.cfi_offset %r15, -24
	movq	%rsi, %r12
Ltmp1218:
	movq	%rdi, %rbx
Ltmp1219:
	.loc	2 11 10 prologue_end
	cmpq	$1, (%rdi)
	jne	LBB54_2
Ltmp1220:
	.loc	2 0 0 is_stmt 0
	addq	$8, %rbx
Ltmp1221:
	leaq	-136(%rbp), %rdi
Ltmp1222:
	.loc	2 14 14 is_stmt 1
	movq	%rbx, %rsi
	callq	__ZN73_$LT$proc_macro2..fallback..TokenStream$u20$as$u20$core..clone..Clone$GT$5clone17h80a5327c7a5a46b6E
	movl	$1, %ecx
	jmp	LBB54_22
Ltmp1223:
LBB54_2:
	.loc	2 0 14 is_stmt 0
	movq	%r12, -384(%rbp)
Ltmp1224:
	.loc	2 23 5 is_stmt 1
	leaq	32(%rbx), %rdi
Ltmp1225:
	.loc	17 74 24
	callq	__ZN78_$LT$proc_macro..bridge..client..TokenStream$u20$as$u20$core..clone..Clone$GT$5clone17he9fd9a5da7480ca5E
Ltmp1226:
	.loc	2 23 5
	movl	%eax, -184(%rbp)
Ltmp1227:
	.loc	8 1966 55
	movq	24(%rbx), %r14
Ltmp1228:
	.loc	8 0 55 is_stmt 0
	movl	$8, %ecx
Ltmp1229:
	.loc	29 250 85 is_stmt 1
	xorl	%r12d, %r12d
Ltmp1230:
	.loc	24 3688 26
	movq	%r14, %rax
	mulq	%rcx
	movq	%rax, %r15
Ltmp1231:
	.loc	29 250 85
	setno	%al
Ltmp1232:
	.loc	26 852 13
	jo	LBB54_3
Ltmp1233:
	.loc	8 0 0 is_stmt 0
	movq	8(%rbx), %r13
Ltmp1234:
	movb	%al, %r12b
	shlq	$2, %r12
Ltmp1235:
	.loc	19 170 16 is_stmt 1
	testq	%r15, %r15
	.loc	19 170 13 is_stmt 0
	je	LBB54_6
Ltmp1236:
	.loc	19 80 5 is_stmt 1
	movq	%r15, %rdi
	movq	%r12, %rsi
	callq	___rust_alloc
Ltmp1237:
	.loc	26 852 13
	testq	%rax, %rax
	je	LBB54_126
Ltmp1238:
LBB54_9:
	.loc	18 383 9
	shrq	$3, %r15
Ltmp1239:
	.loc	8 358 9
	movq	%rax, -96(%rbp)
	movq	%r15, -88(%rbp)
	movq	$0, -80(%rbp)
Ltmp1240:
Ltmp1131:
	.loc	8 0 9 is_stmt 0
	leaq	-96(%rbp), %rdi
Ltmp1241:
	.loc	8 2112 13 is_stmt 1
	movq	%r14, %rsi
	callq	__ZN5alloc3vec12Vec$LT$T$GT$7reserve17hda3fe561e747e7fdE
Ltmp1242:
Ltmp1132:
	.loc	30 0 0 is_stmt 0
	leaq	-80(%rbp), %rax
Ltmp1243:
	.loc	8 2114 53 is_stmt 1
	movq	-80(%rbp), %r15
Ltmp1244:
	.loc	9 152 9
	leaq	(,%r15,8), %rbx
Ltmp1245:
	addq	-96(%rbp), %rbx
Ltmp1246:
	.loc	3 2005 32
	movq	%rbx, -288(%rbp)
	movq	%rax, -280(%rbp)
	movq	%r15, -272(%rbp)
Ltmp1247:
	.loc	28 3179 9
	testq	%r14, %r14
	.loc	28 3303 21
	je	LBB54_21
Ltmp1248:
	addq	$4, %r13
Ltmp1249:
	shlq	$3, %r14
Ltmp1250:
	.loc	28 0 21 is_stmt 0
	leaq	LJTI54_0(%rip), %r12
Ltmp1251:
	.loc	17 470 10 is_stmt 1
	movl	-4(%r13), %eax
Ltmp1252:
	.loc	17 0 10 is_stmt 0
	movslq	(%r12,%rax,4), %rax
	addq	%r12, %rax
	jmpq	*%rax
Ltmp1253:
	.p2align	4, 0x90
LBB54_18:
	.loc	17 729 18 is_stmt 1
	movl	(%r13), %eax
	movl	$2, %ecx
Ltmp1254:
LBB54_19:
	.loc	17 470 15
	shlq	$32, %rax
	orq	%rcx, %rax
Ltmp1255:
	.loc	7 836 42
	movq	%rax, (%rbx)
Ltmp1256:
	.loc	9 152 9
	addq	$8, %rbx
Ltmp1257:
	.loc	8 1722 9
	incq	%r15
Ltmp1258:
	.loc	28 3179 9
	addq	$8, %r13
	addq	$-8, %r14
	.loc	28 3303 21
	je	LBB54_20
Ltmp1259:
	.loc	17 470 10
	movl	-4(%r13), %eax
Ltmp1260:
	.loc	17 0 10 is_stmt 0
	movslq	(%r12,%rax,4), %rax
	addq	%r12, %rax
	jmpq	*%rax
Ltmp1261:
LBB54_15:
Ltmp1136:
	.loc	17 592 18 is_stmt 1
	movq	%r13, %rdi
	callq	__ZN72_$LT$proc_macro..bridge..client..Group$u20$as$u20$core..clone..Clone$GT$5clone17h5085063e736a3ec3E
Ltmp1137:
Ltmp1262:
	.loc	17 0 18 is_stmt 0
	xorl	%ecx, %ecx
	jmp	LBB54_19
Ltmp1263:
	.p2align	4, 0x90
LBB54_13:
Ltmp1134:
	.loc	17 903 20 is_stmt 1
	movq	%r13, %rdi
	callq	__ZN74_$LT$proc_macro..bridge..client..Literal$u20$as$u20$core..clone..Clone$GT$5clone17h201bd64f1d55f19fE
Ltmp1135:
Ltmp1264:
	.loc	17 0 20 is_stmt 0
	movl	$3, %ecx
	jmp	LBB54_19
Ltmp1265:
	.p2align	4, 0x90
LBB54_17:
	.loc	17 822 18 is_stmt 1
	movl	(%r13), %eax
	movl	$1, %ecx
	jmp	LBB54_19
Ltmp1266:
LBB54_20:
	.loc	8 2118 21
	movq	%rbx, -288(%rbp)
Ltmp1267:
	.loc	8 1722 9
	movq	%r15, -272(%rbp)
Ltmp1268:
LBB54_21:
	.loc	30 161 9
	movq	-96(%rbp), %rax
	movq	-88(%rbp), %rcx
	movq	%rax, -136(%rbp)
	movq	%rcx, -128(%rbp)
	movq	%r15, -120(%rbp)
Ltmp1269:
	.loc	2 21 10
	movl	-184(%rbp), %eax
	xorl	%ecx, %ecx
	movq	-384(%rbp), %r12
Ltmp1270:
LBB54_22:
	.loc	1 123 10
	movq	-120(%rbp), %rdx
	movq	%rdx, -400(%rbp)
	movq	-136(%rbp), %rsi
	movq	-128(%rbp), %rdi
	movq	%rdi, -408(%rbp)
	movq	%rsi, -416(%rbp)
Ltmp1271:
	.loc	1 218 21
	movq	%rcx, -368(%rbp)
	movq	%rdx, -344(%rbp)
	movq	%rdi, -352(%rbp)
	movq	%rsi, -360(%rbp)
	movl	%eax, -336(%rbp)
Ltmp1272:
	.loc	2 0 0 is_stmt 0
	leaq	8(%r12), %rdi
Ltmp1273:
	.loc	2 219 13 is_stmt 1
	cmpq	$1, (%r12)
	jne	LBB54_23
Ltmp1274:
	.loc	2 0 13 is_stmt 0
	movq	%rdi, -392(%rbp)
Ltmp1275:
	.loc	8 2086 31 is_stmt 1
	movq	-336(%rbp), %rax
Ltmp1276:
	movq	%rax, -256(%rbp)
	movq	-344(%rbp), %rax
	movq	%rax, -264(%rbp)
	movq	-352(%rbp), %rax
	movq	%rax, -272(%rbp)
	movq	-368(%rbp), %rax
	movq	-360(%rbp), %rcx
Ltmp1277:
	movq	%rcx, -280(%rbp)
	movq	%rax, -288(%rbp)
	leaq	-248(%rbp), %rbx
Ltmp1278:
	movq	$0, -248(%rbp)
Ltmp1279:
	movq	$0, -216(%rbp)
Ltmp1280:
	.loc	7 0 0 is_stmt 0
	leaq	-88(%rbp), %r14
Ltmp1281:
	movl	$2, %eax
	movq	%rax, %xmm0
	movdqa	%xmm0, -384(%rbp)
	leaq	-328(%rbp), %r13
	leaq	-96(%rbp), %r15
Ltmp1282:
	.file	36 "/rustc/a74d1862d4d87a56244958416fd05976c58ca1a8/src/libcore/iter/adapters/flatten.rs"
	.loc	36 266 20 is_stmt 1
	cmpq	$0, -248(%rbp)
	jne	LBB54_76
	jmp	LBB54_84
Ltmp1283:
	.p2align	4, 0x90
LBB54_102:
	.loc	36 274 32
	movq	-112(%rbp), %rax
	movq	%rax, 24(%rbx)
	movq	-120(%rbp), %rax
	movq	%rax, 16(%rbx)
	movq	-136(%rbp), %rax
	movq	-128(%rbp), %rcx
	movq	%rcx, 8(%rbx)
	movq	%rax, (%rbx)
Ltmp1284:
	.loc	36 266 20
	cmpq	$0, -248(%rbp)
	je	LBB54_84
Ltmp1285:
LBB54_76:
	.loc	8 2621 16
	movq	-232(%rbp), %rcx
Ltmp1286:
	cmpq	-224(%rbp), %rcx
	.loc	8 2621 13 is_stmt 0
	je	LBB54_77
Ltmp1287:
	.loc	20 158 9 is_stmt 1
	leaq	48(%rcx), %rax
Ltmp1288:
	.loc	8 2634 21
	movq	%rax, -232(%rbp)
Ltmp1289:
	.loc	7 651 5
	movq	(%rcx), %rax
	movq	8(%rcx), %rdx
	movq	%rax, -96(%rbp)
	movq	%rdx, -88(%rbp)
	movq	16(%rcx), %rdx
	movq	%rdx, -80(%rbp)
	movq	24(%rcx), %rdx
	movq	%rdx, -72(%rbp)
	movq	32(%rcx), %rdx
	movq	%rdx, -64(%rbp)
	movq	40(%rcx), %rcx
Ltmp1290:
	movq	%rcx, -56(%rbp)
Ltmp1291:
	.loc	36 268 21
	cmpl	$4, %eax
	je	LBB54_78
Ltmp1292:
	.loc	36 269 21
	movl	36(%r14), %ecx
	movl	%ecx, -144(%rbp)
	movq	28(%r14), %rcx
	movq	%rcx, -152(%rbp)
	movq	20(%r14), %rcx
	movq	%rcx, -160(%rbp)
	movq	12(%r14), %rcx
	movq	%rcx, -168(%rbp)
	movq	-4(%r14), %rcx
	movq	4(%r14), %rdx
	movq	%rdx, -176(%rbp)
	movq	%rcx, -184(%rbp)
	jmp	LBB54_94
Ltmp1293:
	.p2align	4, 0x90
LBB54_77:
	.loc	8 2622 17
	movl	$4, -96(%rbp)
Ltmp1294:
LBB54_78:
Ltmp1196:
	.loc	7 178 1
	movq	%rbx, %rdi
	callq	__ZN4core3ptr13drop_in_place17h87f3f478f0fd1cb1E
Ltmp1197:
Ltmp1295:
	.loc	36 268 29
	movq	$0, -248(%rbp)
	movq	-120(%rbp), %rax
	movq	%rax, 24(%rbx)
	movq	-136(%rbp), %rax
	movq	-128(%rbp), %rcx
	movq	%rcx, 16(%rbx)
	movq	%rax, 8(%rbx)
Ltmp1296:
	.loc	7 178 1
	movl	-96(%rbp), %eax
	cmpq	$4, %rax
	jne	LBB54_80
Ltmp1297:
LBB54_84:
	.loc	5 2058 5
	movdqu	-288(%rbp), %xmm2
	movdqu	-272(%rbp), %xmm0
Ltmp1298:
	.loc	5 0 5 is_stmt 0
	movdqa	-384(%rbp), %xmm1
Ltmp1299:
	.loc	5 2058 5
	movdqu	%xmm1, -288(%rbp)
Ltmp1300:
	.loc	4 458 13 is_stmt 1
	movq	%xmm2, %rax
	cmpq	$2, %rax
	je	LBB54_86
Ltmp1301:
	movdqa	%xmm2, %xmm1
Ltmp1302:
LBB54_86:
	.loc	4 458 13 is_stmt 0
	movq	%xmm1, %rax
	cmpq	$2, %rax
	je	LBB54_87
Ltmp1303:
	.loc	4 458 13
	movq	-256(%rbp), %rax
Ltmp1304:
	.loc	2 225 61 is_stmt 1
	movdqu	%xmm0, -80(%rbp)
	movdqu	%xmm1, -96(%rbp)
	movq	%rax, -64(%rbp)
Ltmp1206:
	movq	%r13, %rdi
Ltmp1305:
	movq	%r15, %rsi
	callq	__ZN11proc_macro23imp11TokenStream13unwrap_stable17h6144c5bab7b8f7e4E
Ltmp1306:
Ltmp1207:
	.loc	36 273 17
	cmpq	$0, -328(%rbp)
	je	LBB54_88
Ltmp1307:
	.loc	36 274 54
	movq	-312(%rbp), %rax
	movq	%rax, -120(%rbp)
	movq	-328(%rbp), %rax
	movq	-320(%rbp), %rcx
	movq	%rcx, -128(%rbp)
	movq	%rax, -136(%rbp)
Ltmp1209:
	movq	%r15, %rdi
	leaq	-136(%rbp), %rsi
	callq	__ZN96_$LT$proc_macro2..fallback..TokenStream$u20$as$u20$core..iter..traits..collect..IntoIterator$GT$9into_iter17hd4e250478a5e46c2E
Ltmp1210:
Ltmp1308:
	.loc	36 274 49 is_stmt 0
	movq	-96(%rbp), %rax
	movq	-88(%rbp), %rcx
	movq	%rax, -136(%rbp)
	movq	%rcx, -128(%rbp)
	movq	-80(%rbp), %rax
	movq	%rax, -120(%rbp)
	movq	-72(%rbp), %rax
	movq	%rax, -112(%rbp)
Ltmp1309:
	.loc	7 178 1 is_stmt 1
	cmpq	$0, -248(%rbp)
	je	LBB54_102
Ltmp1310:
Ltmp1212:
	movq	%rbx, %rdi
	callq	__ZN4core3ptr13drop_in_place17h87f3f478f0fd1cb1E
Ltmp1213:
	jmp	LBB54_102
Ltmp1311:
	.p2align	4, 0x90
LBB54_80:
	.loc	7 178 1 is_stmt 0
	cmpq	$2, %rax
	je	LBB54_84
Ltmp1312:
	cmpq	$1, %rax
	je	LBB54_103
Ltmp1313:
	testq	%rax, %rax
	jne	LBB54_107
Ltmp1314:
Ltmp1202:
	movq	%r14, %rdi
	callq	__ZN4core3ptr13drop_in_place17hf67d0a0d9909d0e0E
Ltmp1203:
	jmp	LBB54_84
Ltmp1315:
LBB54_103:
	.loc	7 178 1
	cmpl	$0, -88(%rbp)
	jne	LBB54_104
	jmp	LBB54_84
Ltmp1316:
LBB54_107:
	.loc	7 178 1
	cmpl	$0, -88(%rbp)
	je	LBB54_108
Ltmp1317:
LBB54_104:
	.loc	7 0 0
	movq	-80(%rbp), %rdi
Ltmp1318:
	testq	%rdi, %rdi
	je	LBB54_84
Ltmp1319:
	movq	-72(%rbp), %rsi
Ltmp1320:
	testq	%rsi, %rsi
	je	LBB54_84
Ltmp1321:
	movl	$1, %edx
	callq	___rust_dealloc
Ltmp1322:
	jmp	LBB54_84
Ltmp1323:
LBB54_87:
	.loc	4 459 21 is_stmt 1
	movq	$0, -328(%rbp)
Ltmp1324:
LBB54_88:
	.loc	4 291 13
	cmpq	$0, -216(%rbp)
Ltmp1325:
	.loc	36 273 54
	je	LBB54_91
Ltmp1326:
	.loc	8 2621 16
	movq	-200(%rbp), %rcx
Ltmp1327:
	cmpq	-192(%rbp), %rcx
	.loc	8 2621 13 is_stmt 0
	je	LBB54_91
Ltmp1328:
	.loc	20 158 9 is_stmt 1
	leaq	48(%rcx), %rax
Ltmp1329:
	.loc	8 2634 21
	movq	%rax, -200(%rbp)
Ltmp1330:
	.loc	7 651 5
	movl	(%rcx), %eax
	movl	44(%rcx), %edx
	movl	%edx, -144(%rbp)
	movq	36(%rcx), %rdx
	movq	%rdx, -152(%rbp)
	movq	28(%rcx), %rdx
	movq	%rdx, -160(%rbp)
	movq	20(%rcx), %rdx
	movq	%rdx, -168(%rbp)
	movq	12(%rcx), %rdx
	movq	%rdx, -176(%rbp)
	movq	4(%rcx), %rcx
Ltmp1331:
	movq	%rcx, -184(%rbp)
Ltmp1332:
	.loc	8 2193 19
	cmpl	$4, %eax
	je	LBB54_91
Ltmp1333:
LBB54_94:
	.loc	8 2193 24 is_stmt 0
	movl	%eax, -96(%rbp)
	movl	-144(%rbp), %eax
	movl	%eax, 36(%r14)
	movq	-152(%rbp), %rax
	movq	%rax, 28(%r14)
	movq	-160(%rbp), %rax
	movq	%rax, 20(%r14)
	movq	-168(%rbp), %rax
	movq	%rax, 12(%r14)
	movq	-184(%rbp), %rax
	movq	-176(%rbp), %rcx
	movq	%rcx, 4(%r14)
	movq	%rax, -4(%r14)
	movq	%r12, %rax
Ltmp1334:
	.loc	8 2194 23 is_stmt 1
	movq	24(%r12), %r12
Ltmp1335:
	.loc	8 0 23 is_stmt 0
	movq	%rax, %r14
Ltmp1336:
	.loc	8 2195 16 is_stmt 1
	cmpq	16(%rax), %r12
	.loc	8 2195 13 is_stmt 0
	jne	LBB54_117
Ltmp1337:
	.loc	4 270 13 is_stmt 1
	movq	-248(%rbp), %rax
	testq	%rax, %rax
	cmovneq	%rbx, %rax
Ltmp1338:
	.loc	4 485 13
	je	LBB54_96
Ltmp1339:
	.loc	4 485 24 is_stmt 0
	movq	24(%rax), %rsi
Ltmp1340:
	.loc	20 291 9 is_stmt 1
	subq	16(%rax), %rsi
	sarq	$4, %rsi
	movabsq	$-6148914691236517205, %rax
Ltmp1341:
	imulq	%rax, %rsi
	jmp	LBB54_113
Ltmp1342:
LBB54_108:
Ltmp1204:
	.loc	7 178 1
	leaq	-84(%rbp), %rdi
	callq	__ZN77_$LT$proc_macro..bridge..client..Literal$u20$as$u20$core..ops..drop..Drop$GT$4drop17he2aea19d6a82f53dE
Ltmp1205:
	jmp	LBB54_84
Ltmp1343:
LBB54_96:
	.loc	4 0 0 is_stmt 0
	xorl	%esi, %esi
Ltmp1344:
LBB54_113:
	.loc	4 270 13 is_stmt 1
	movq	-216(%rbp), %rcx
	testq	%rcx, %rcx
	leaq	-216(%rbp), %rax
	cmovneq	%rax, %rcx
Ltmp1345:
	.loc	4 485 13
	je	LBB54_114
Ltmp1346:
	.loc	4 485 24 is_stmt 0
	movq	24(%rcx), %rax
Ltmp1347:
	.loc	20 291 9 is_stmt 1
	subq	16(%rcx), %rax
	sarq	$4, %rax
	movabsq	$-6148914691236517205, %rcx
Ltmp1348:
	imulq	%rcx, %rax
	jmp	LBB54_116
Ltmp1349:
LBB54_114:
	.loc	4 0 0 is_stmt 0
	xorl	%eax, %eax
Ltmp1350:
LBB54_116:
	.loc	24 3221 17 is_stmt 1
	addq	%rax, %rsi
Ltmp1351:
	.loc	24 0 17 is_stmt 0
	movq	$-1, %rax
Ltmp1352:
	.loc	24 3221 17
	cmovbq	%rax, %rsi
Ltmp1353:
	.loc	24 3221 17
	incq	%rsi
Ltmp1354:
	cmoveq	%rax, %rsi
Ltmp1215:
	movq	-392(%rbp), %rdi
Ltmp1355:
	.loc	8 2197 17 is_stmt 1
	callq	__ZN5alloc3vec12Vec$LT$T$GT$7reserve17h4391498f119e97a7E
Ltmp1216:
Ltmp1356:
LBB54_117:
	.loc	8 850 19
	movq	8(%r14), %rax
Ltmp1357:
	.loc	9 152 9
	leaq	(%r12,%r12,2), %rcx
	shlq	$4, %rcx
Ltmp1358:
	.loc	7 836 42
	movq	-96(%rbp), %r8
	movq	-88(%rbp), %r9
	movq	-80(%rbp), %r10
	movq	-72(%rbp), %rdx
	movq	-64(%rbp), %rsi
	movq	-56(%rbp), %rdi
	movq	%rdi, 40(%rax,%rcx)
	movq	%rsi, 32(%rax,%rcx)
	movq	%rdx, 24(%rax,%rcx)
	movq	%r10, 16(%rax,%rcx)
	movq	%r9, 8(%rax,%rcx)
	movq	%r8, (%rax,%rcx)
Ltmp1359:
	.loc	8 2202 30
	incq	%r12
Ltmp1360:
	.loc	8 940 9
	movq	%r12, 24(%r14)
	movq	%r14, %r12
Ltmp1361:
	.loc	8 0 9 is_stmt 0
	leaq	-88(%rbp), %r14
Ltmp1362:
	.loc	36 266 20 is_stmt 1
	cmpq	$0, -248(%rbp)
	jne	LBB54_76
	jmp	LBB54_84
Ltmp1363:
LBB54_23:
Ltmp1144:
	.loc	2 220 17
	callq	__ZN11proc_macro23imp19DeferredTokenStream12evaluate_now17h6a70619e199b9e33E
Ltmp1364:
Ltmp1145:
	.loc	2 222 29
	movq	-336(%rbp), %rax
	movq	%rax, -296(%rbp)
	movq	-344(%rbp), %rax
	movq	%rax, -304(%rbp)
	movq	-352(%rbp), %rax
	movq	%rax, -312(%rbp)
	movq	-368(%rbp), %rax
	movq	-360(%rbp), %rcx
	movq	%rcx, -320(%rbp)
	movq	%rax, -328(%rbp)
Ltmp1147:
Ltmp1365:
	.loc	17 207 47
	callq	__ZN10proc_macro11TokenStream3new17hecbef91a27dd7551E
Ltmp1148:
Ltmp1366:
	.loc	2 0 0 is_stmt 0
	addq	$32, %r12
Ltmp1367:
	.loc	7 432 17 is_stmt 1
	movl	(%r12), %ecx
Ltmp1368:
	.loc	5 2058 5
	movl	%eax, (%r12)
Ltmp1369:
	.loc	3 1660 33
	movq	-296(%rbp), %rax
	movq	%rax, -64(%rbp)
	movq	-304(%rbp), %rax
	movq	%rax, -72(%rbp)
	movq	-312(%rbp), %rax
	movq	%rax, -80(%rbp)
	movq	-328(%rbp), %rax
	movq	-320(%rbp), %rdx
	movq	%rdx, -88(%rbp)
	movq	%rax, -96(%rbp)
	movl	$1, -56(%rbp)
	movl	%ecx, -52(%rbp)
Ltmp1150:
Ltmp1370:
	.loc	17 190 27
	callq	__ZN10proc_macro6bridge6client18TokenStreamBuilder3new17h02b67eb42da8552eE
Ltmp1371:
Ltmp1151:
	movl	%eax, -48(%rbp)
Ltmp1372:
	.loc	3 658 9
	movq	-56(%rbp), %rax
	movq	%rax, -248(%rbp)
	movq	-64(%rbp), %rcx
	movq	%rcx, -256(%rbp)
	movq	-72(%rbp), %rcx
	movq	%rcx, -264(%rbp)
	movq	-80(%rbp), %rcx
	movq	%rcx, -272(%rbp)
	movq	-96(%rbp), %rcx
	movq	-88(%rbp), %rdx
	movq	%rdx, -280(%rbp)
	movq	%rcx, -288(%rbp)
	movb	$1, %r15b
Ltmp1373:
	.file	37 "/rustc/a74d1862d4d87a56244958416fd05976c58ca1a8/src/libcore/iter/adapters/chain.rs"
	.loc	37 111 16
	cmpl	$1, %eax
	jne	LBB54_32
Ltmp1374:
	.loc	37 111 21 is_stmt 0
	movl	-244(%rbp), %esi
Ltmp1375:
	.loc	5 2058 5 is_stmt 1
	movl	$0, -184(%rbp)
Ltmp1376:
	.loc	3 1877 19
	testl	%esi, %esi
	je	LBB54_31
Ltmp1377:
	.loc	3 0 19 is_stmt 0
	leaq	-48(%rbp), %rbx
Ltmp1378:
	.p2align	4, 0x90
LBB54_29:
Ltmp1155:
	.loc	17 191 47 is_stmt 1
	movq	%rbx, %rdi
	callq	__ZN10proc_macro6bridge6client18TokenStreamBuilder4push17h5b6b030661b9a56aE
Ltmp1379:
Ltmp1156:
	.loc	7 432 17
	movl	-184(%rbp), %esi
Ltmp1380:
	.loc	5 2058 5
	movl	$0, -184(%rbp)
Ltmp1381:
	.loc	3 1877 19
	testl	%esi, %esi
	jne	LBB54_29
Ltmp1382:
LBB54_31:
	.loc	3 0 19 is_stmt 0
	xorl	%r15d, %r15d
Ltmp1383:
LBB54_32:
	.loc	37 114 16 is_stmt 1
	cmpq	$3, -288(%rbp)
	jne	LBB54_39
Ltmp1384:
	.loc	37 0 16 is_stmt 0
	xorl	%ebx, %ebx
	.loc	37 118 5 is_stmt 1
	testb	%r15b, %r15b
	je	LBB54_47
Ltmp1385:
LBB54_46:
	cmpl	$0, -248(%rbp)
	je	LBB54_47
Ltmp1386:
	.loc	7 178 1
	cmpl	$0, -244(%rbp)
	je	LBB54_47
Ltmp1387:
	.loc	37 0 0 is_stmt 0
	leaq	-244(%rbp), %rdi
Ltmp1388:
Ltmp1172:
	.loc	7 178 1
	callq	__ZN81_$LT$proc_macro..bridge..client..TokenStream$u20$as$u20$core..ops..drop..Drop$GT$4drop17h41a2e5513f89cb12E
Ltmp1389:
Ltmp1173:
	jmp	LBB54_47
Ltmp1390:
LBB54_91:
	.loc	7 0 1
	leaq	-288(%rbp), %rdi
Ltmp1391:
	.loc	8 2205 5 is_stmt 1
	callq	__ZN4core3ptr13drop_in_place17he8a11e4a760420e6E
	jmp	LBB54_65
Ltmp1392:
LBB54_39:
	.loc	10 825 9
	movq	-264(%rbp), %rax
	movq	%rax, -112(%rbp)
	movq	-272(%rbp), %rax
	movq	%rax, -120(%rbp)
	movq	-288(%rbp), %rax
	movq	-280(%rbp), %rcx
	movq	%rcx, -128(%rbp)
	movq	%rax, -136(%rbp)
	movq	-256(%rbp), %rax
	movq	%rax, -104(%rbp)
Ltmp1393:
	.loc	5 2058 5
	movdqu	-120(%rbp), %xmm1
	movdqu	-136(%rbp), %xmm0
	movl	$2, %eax
Ltmp1394:
	.loc	5 2058 5 is_stmt 0
	movq	%rax, %xmm2
	movdqa	%xmm2, -384(%rbp)
	movdqu	%xmm2, -136(%rbp)
Ltmp1395:
	.loc	3 1877 19 is_stmt 1
	movq	%xmm0, %rax
	cmpq	$2, %rax
	je	LBB54_44
Ltmp1396:
	.loc	3 0 19 is_stmt 0
	leaq	-184(%rbp), %r14
	leaq	-48(%rbp), %rbx
Ltmp1397:
	.p2align	4, 0x90
LBB54_41:
	.loc	6 806 5 is_stmt 1
	movq	-104(%rbp), %rax
Ltmp1398:
	.loc	2 222 62
	movdqu	%xmm1, -168(%rbp)
	movdqu	%xmm0, -184(%rbp)
	movq	%rax, -152(%rbp)
Ltmp1160:
	movq	%r14, %rdi
	callq	__ZN11proc_macro23imp11TokenStream14unwrap_nightly17hd2d41dafc4d00dc5E
Ltmp1161:
Ltmp1399:
Ltmp1162:
	.loc	17 191 47
	movq	%rbx, %rdi
	movl	%eax, %esi
	callq	__ZN10proc_macro6bridge6client18TokenStreamBuilder4push17h5b6b030661b9a56aE
Ltmp1400:
Ltmp1163:
	.loc	5 2058 5
	movdqu	-136(%rbp), %xmm0
	movdqu	-120(%rbp), %xmm1
Ltmp1401:
	.loc	5 0 5 is_stmt 0
	movdqa	-384(%rbp), %xmm2
Ltmp1402:
	.loc	5 2058 5
	movdqu	%xmm2, -136(%rbp)
Ltmp1403:
	.loc	3 1877 19 is_stmt 1
	movq	%xmm0, %rax
	cmpq	$2, %rax
	jne	LBB54_41
Ltmp1404:
LBB54_44:
	.loc	3 0 19 is_stmt 0
	movb	$1, %bl
	.loc	37 118 5 is_stmt 1
	testb	%r15b, %r15b
	jne	LBB54_46
Ltmp1405:
LBB54_47:
	movq	-288(%rbp), %rax
Ltmp1406:
	movq	%rax, %rcx
	shrq	%rcx
	orb	%cl, %bl
	jne	LBB54_62
Ltmp1407:
	.loc	7 178 1
	leaq	-280(%rbp), %rbx
Ltmp1408:
	testq	%rax, %rax
	je	LBB54_49
Ltmp1409:
Ltmp1177:
	movq	%rbx, %rdi
	callq	__ZN4core3ptr13drop_in_place17h2329d01dc6426f81E
Ltmp1178:
	jmp	LBB54_62
Ltmp1410:
LBB54_6:
	.loc	19 0 0 is_stmt 0
	movq	%r12, %rax
Ltmp1411:
	.loc	26 852 13 is_stmt 1
	testq	%rax, %rax
	jne	LBB54_9
Ltmp1412:
LBB54_126:
	.loc	26 853 23
	movq	%r15, %rdi
	movq	%r12, %rsi
	callq	__ZN5alloc7raw_vec19RawVec$LT$T$C$A$GT$11allocate_in28_$u7b$$u7b$closure$u7d$$u7d$17h92d2ab54817f11b5E
Ltmp1413:
LBB54_49:
	.loc	7 178 1
	leaq	-256(%rbp), %rdi
Ltmp1414:
Ltmp1179:
	.loc	7 178 1 is_stmt 0
	callq	__ZN81_$LT$proc_macro..bridge..client..TokenStream$u20$as$u20$core..ops..drop..Drop$GT$4drop17h41a2e5513f89cb12E
Ltmp1415:
Ltmp1180:
Ltmp1184:
	.loc	7 178 1
	movq	%rbx, %rdi
	callq	__ZN4core3ptr13drop_in_place17h516b08566a705e3dE
Ltmp1185:
Ltmp1416:
LBB54_62:
	.loc	17 192 21 is_stmt 1
	movl	-48(%rbp), %edi
Ltmp1190:
	callq	__ZN10proc_macro6bridge6client18TokenStreamBuilder5build17hb496e6e7275824d7E
Ltmp1191:
Ltmp1417:
	.loc	17 0 0 is_stmt 0
	movl	%eax, %ebx
Ltmp1193:
Ltmp1418:
	.loc	7 178 1 is_stmt 1
	movq	%r12, %rdi
	callq	__ZN81_$LT$proc_macro..bridge..client..TokenStream$u20$as$u20$core..ops..drop..Drop$GT$4drop17h41a2e5513f89cb12E
Ltmp1194:
Ltmp1419:
	.loc	17 207 9
	movl	%ebx, (%r12)
Ltmp1420:
LBB54_65:
	.loc	33 204 6
	addq	$376, %rsp
	popq	%rbx
	popq	%r12
	popq	%r13
	popq	%r14
	popq	%r15
	popq	%rbp
	retq
LBB54_3:
Ltmp1421:
Ltmp1141:
	.loc	26 853 23
	callq	__ZN5alloc7raw_vec19RawVec$LT$T$C$A$GT$11allocate_in28_$u7b$$u7b$closure$u7d$$u7d$17h0e0e27b7e48779bcE
Ltmp1142:
Ltmp1422:
	.loc	26 0 23 is_stmt 0
	ud2
Ltmp1423:
LBB54_51:
Ltmp1181:
	movq	%rax, %r14
Ltmp1182:
Ltmp1424:
	.loc	7 178 1 is_stmt 1
	movq	%rbx, %rdi
	callq	__ZN4core3ptr13drop_in_place17h516b08566a705e3dE
Ltmp1183:
	jmp	LBB54_68
Ltmp1425:
LBB54_66:
Ltmp1174:
	.loc	7 0 1 is_stmt 0
	movq	%rax, %r14
	.loc	37 118 5 is_stmt 1
	cmpq	$3, -288(%rbp)
	sete	%al
	orb	%al, %bl
	jne	LBB54_68
Ltmp1426:
Ltmp1175:
	.loc	37 0 5 is_stmt 0
	leaq	-288(%rbp), %rdi
	.loc	37 118 5
	callq	__ZN4core3ptr13drop_in_place17h8e8f9efa4ccbe4d4E
Ltmp1176:
	jmp	LBB54_68
Ltmp1427:
LBB54_73:
Ltmp1195:
	.loc	37 0 5
	movq	%rax, %r14
	.loc	17 207 9 is_stmt 1
	movl	%ebx, (%r12)
	movq	%r14, %rdi
	callq	__Unwind_Resume
	ud2
Ltmp1428:
LBB54_71:
Ltmp1192:
	.loc	17 0 9 is_stmt 0
	movq	%rax, %r14
	movq	%r14, %rdi
	callq	__Unwind_Resume
	ud2
Ltmp1429:
LBB54_69:
Ltmp1152:
	movq	%rax, %r14
Ltmp1430:
Ltmp1153:
	leaq	-96(%rbp), %rdi
Ltmp1431:
	.loc	17 193 5 is_stmt 1
	callq	__ZN4core3ptr13drop_in_place17h958aae50d7c7e628E
Ltmp1154:
	jmp	LBB54_125
Ltmp1432:
LBB54_124:
Ltmp1149:
	.loc	17 0 5 is_stmt 0
	movq	%rax, %r14
Ltmp1433:
	leaq	-328(%rbp), %rdi
	.loc	17 208 5 is_stmt 1
	callq	__ZN4core3ptr13drop_in_place17h8e8f9efa4ccbe4d4E
	movq	%r14, %rdi
	callq	__Unwind_Resume
	ud2
Ltmp1434:
LBB54_123:
Ltmp1146:
	.loc	17 0 5 is_stmt 0
	movq	%rax, %r14
Ltmp1435:
	leaq	-368(%rbp), %rdi
	.loc	2 228 5 is_stmt 1
	callq	__ZN4core3ptr13drop_in_place17h1a277091ab7e9509E
	movq	%r14, %rdi
	callq	__Unwind_Resume
	ud2
Ltmp1436:
LBB54_34:
Ltmp1133:
	.loc	2 0 5 is_stmt 0
	movq	%rax, %r14
Ltmp1437:
	jmp	LBB54_35
Ltmp1438:
LBB54_118:
Ltmp1217:
	movq	%rax, %r14
Ltmp1439:
	leaq	-96(%rbp), %rdi
Ltmp1440:
	.loc	8 2204 9 is_stmt 1
	callq	__ZN4core3ptr13drop_in_place17hafd39e94c924e549E
	jmp	LBB54_122
Ltmp1441:
LBB54_38:
Ltmp1157:
	.loc	8 0 9 is_stmt 0
	movq	%rax, %r14
	movb	$1, %bl
	xorl	%r15d, %r15d
Ltmp1442:
Ltmp1158:
	leaq	-184(%rbp), %rdi
Ltmp1443:
	.loc	3 2006 5 is_stmt 1
	callq	__ZN4core3ptr13drop_in_place17hda50b65b2e24ad47E
Ltmp1159:
	jmp	LBB54_58
Ltmp1444:
LBB54_127:
Ltmp1138:
	.loc	3 0 5 is_stmt 0
	movq	%rax, %r14
Ltmp1445:
	.loc	8 2118 21 is_stmt 1
	movq	%rbx, -288(%rbp)
Ltmp1446:
	.loc	8 1722 9
	movq	%r15, -272(%rbp)
Ltmp1447:
	.loc	8 0 9 is_stmt 0
	leaq	-288(%rbp), %rdi
Ltmp1448:
	.loc	3 1881 5 is_stmt 1
	callq	__ZN4core3ptr13drop_in_place17h766e8280c69ef9b7E
Ltmp1449:
LBB54_35:
Ltmp1139:
	.loc	3 0 5 is_stmt 0
	leaq	-96(%rbp), %rdi
	.loc	30 162 5 is_stmt 1
	callq	__ZN4core3ptr13drop_in_place17h516b08566a705e3dE
Ltmp1140:
Ltmp1450:
LBB54_37:
	.loc	30 0 5 is_stmt 0
	leaq	-184(%rbp), %rdi
	.loc	2 21 14 is_stmt 1
	callq	__ZN4core3ptr13drop_in_place17he929b40c9f446708E
	movq	%r14, %rdi
	callq	__Unwind_Resume
	ud2
Ltmp1451:
LBB54_36:
Ltmp1143:
	.loc	2 0 14 is_stmt 0
	movq	%rax, %r14
	jmp	LBB54_37
Ltmp1452:
LBB54_128:
Ltmp1164:
	movq	%rax, %r14
	xorl	%ebx, %ebx
Ltmp1453:
Ltmp1165:
	leaq	-136(%rbp), %rdi
Ltmp1454:
	.loc	3 2006 5 is_stmt 1
	callq	__ZN4core3ptr13drop_in_place17h44186800a4f87dbbE
Ltmp1166:
Ltmp1455:
LBB54_58:
	.loc	37 118 5
	testb	%r15b, %r15b
	je	LBB54_54
Ltmp1456:
LBB54_59:
	cmpl	$0, -248(%rbp)
	je	LBB54_54
Ltmp1457:
	leaq	-244(%rbp), %rdi
Ltmp1168:
	callq	__ZN4core3ptr13drop_in_place17hda50b65b2e24ad47E
Ltmp1169:
Ltmp1458:
LBB54_54:
	cmpq	$3, -288(%rbp)
	je	LBB54_68
Ltmp1459:
	xorb	$1, %bl
	jne	LBB54_68
Ltmp1460:
Ltmp1170:
	.loc	37 0 5 is_stmt 0
	leaq	-288(%rbp), %rdi
	.loc	37 118 5
	callq	__ZN4core3ptr13drop_in_place17h8e8f9efa4ccbe4d4E
Ltmp1171:
Ltmp1461:
LBB54_68:
Ltmp1187:
	.loc	37 0 5
	leaq	-48(%rbp), %rdi
	.loc	17 193 5 is_stmt 1
	callq	__ZN4core3ptr13drop_in_place17h45e08299bf90f0f1E
Ltmp1188:
	jmp	LBB54_125
Ltmp1462:
LBB54_57:
Ltmp1167:
	.loc	17 0 5 is_stmt 0
	movq	%rax, %r14
Ltmp1463:
	.loc	37 118 5 is_stmt 1
	testb	%r15b, %r15b
	jne	LBB54_59
	jmp	LBB54_54
Ltmp1464:
LBB54_72:
Ltmp1189:
	.loc	37 0 5 is_stmt 0
	movq	%rax, %r14
	movq	%r14, %rdi
	callq	__Unwind_Resume
	ud2
Ltmp1465:
LBB54_70:
Ltmp1186:
	movq	%rax, %r14
	jmp	LBB54_68
Ltmp1466:
LBB54_111:
Ltmp1214:
	movq	%rax, %r14
Ltmp1467:
	.loc	36 274 32 is_stmt 1
	movq	-112(%rbp), %rax
	movq	%rax, 24(%rbx)
	movq	-120(%rbp), %rax
	movq	%rax, 16(%rbx)
	movq	-136(%rbp), %rax
	movq	-128(%rbp), %rcx
	movq	%rcx, 8(%rbx)
	movq	%rax, (%rbx)
	jmp	LBB54_122
Ltmp1468:
LBB54_109:
Ltmp1198:
	.loc	36 0 32 is_stmt 0
	movq	%rax, %r14
Ltmp1469:
	.loc	36 268 29 is_stmt 1
	movq	$0, -248(%rbp)
	movq	-120(%rbp), %rax
	movq	%rax, 24(%rbx)
	movq	-136(%rbp), %rax
	movq	-128(%rbp), %rcx
	movq	%rcx, 16(%rbx)
	movq	%rax, 8(%rbx)
Ltmp1199:
	leaq	-96(%rbp), %rdi
	.loc	36 271 13
	callq	__ZN4core3ptr13drop_in_place17h445a45255b1e6c44E
Ltmp1200:
	jmp	LBB54_122
Ltmp1470:
LBB54_120:
Ltmp1201:
	.loc	36 0 13 is_stmt 0
	jmp	LBB54_121
Ltmp1471:
LBB54_110:
Ltmp1211:
	movq	%rax, %r14
	jmp	LBB54_122
Ltmp1472:
LBB54_119:
Ltmp1208:
LBB54_121:
	movq	%rax, %r14
Ltmp1473:
LBB54_122:
	leaq	-288(%rbp), %rdi
	.loc	8 2205 5 is_stmt 1
	callq	__ZN4core3ptr13drop_in_place17he8a11e4a760420e6E
Ltmp1474:
LBB54_125:
	.loc	8 0 5 is_stmt 0
	movq	%r14, %rdi
	callq	__Unwind_Resume
	ud2
Lfunc_end54:
	.cfi_endproc
	.p2align	2, 0x90
	.data_region jt32
.set L54_0_set_15, LBB54_15-LJTI54_0
.set L54_0_set_17, LBB54_17-LJTI54_0
.set L54_0_set_18, LBB54_18-LJTI54_0
.set L54_0_set_13, LBB54_13-LJTI54_0
LJTI54_0:
	.long	L54_0_set_15
	.long	L54_0_set_17
	.long	L54_0_set_18
	.long	L54_0_set_13
	.end_data_region
	.file	38 "/rustc/a74d1862d4d87a56244958416fd05976c58ca1a8/src/libcore/iter/adapters/fuse.rs"
	.section	__TEXT,__gcc_except_tab
	.p2align	2
GCC_except_table54:
Lexception14:
	.byte	255
	.byte	255
	.byte	1
	.uleb128 Lcst_end14-Lcst_begin14
Lcst_begin14:
	.uleb128 Lfunc_begin54-Lfunc_begin54
	.uleb128 Ltmp1131-Lfunc_begin54
	.byte	0
	.byte	0
	.uleb128 Ltmp1131-Lfunc_begin54
	.uleb128 Ltmp1132-Ltmp1131
	.uleb128 Ltmp1133-Lfunc_begin54
	.byte	0
	.uleb128 Ltmp1136-Lfunc_begin54
	.uleb128 Ltmp1135-Ltmp1136
	.uleb128 Ltmp1138-Lfunc_begin54
	.byte	0
	.uleb128 Ltmp1196-Lfunc_begin54
	.uleb128 Ltmp1197-Ltmp1196
	.uleb128 Ltmp1198-Lfunc_begin54
	.byte	0
	.uleb128 Ltmp1206-Lfunc_begin54
	.uleb128 Ltmp1207-Ltmp1206
	.uleb128 Ltmp1208-Lfunc_begin54
	.byte	0
	.uleb128 Ltmp1209-Lfunc_begin54
	.uleb128 Ltmp1210-Ltmp1209
	.uleb128 Ltmp1211-Lfunc_begin54
	.byte	0
	.uleb128 Ltmp1212-Lfunc_begin54
	.uleb128 Ltmp1213-Ltmp1212
	.uleb128 Ltmp1214-Lfunc_begin54
	.byte	0
	.uleb128 Ltmp1202-Lfunc_begin54
	.uleb128 Ltmp1205-Ltmp1202
	.uleb128 Ltmp1208-Lfunc_begin54
	.byte	0
	.uleb128 Ltmp1215-Lfunc_begin54
	.uleb128 Ltmp1216-Ltmp1215
	.uleb128 Ltmp1217-Lfunc_begin54
	.byte	0
	.uleb128 Ltmp1144-Lfunc_begin54
	.uleb128 Ltmp1145-Ltmp1144
	.uleb128 Ltmp1146-Lfunc_begin54
	.byte	0
	.uleb128 Ltmp1147-Lfunc_begin54
	.uleb128 Ltmp1148-Ltmp1147
	.uleb128 Ltmp1149-Lfunc_begin54
	.byte	0
	.uleb128 Ltmp1150-Lfunc_begin54
	.uleb128 Ltmp1151-Ltmp1150
	.uleb128 Ltmp1152-Lfunc_begin54
	.byte	0
	.uleb128 Ltmp1155-Lfunc_begin54
	.uleb128 Ltmp1156-Ltmp1155
	.uleb128 Ltmp1157-Lfunc_begin54
	.byte	0
	.uleb128 Ltmp1172-Lfunc_begin54
	.uleb128 Ltmp1173-Ltmp1172
	.uleb128 Ltmp1174-Lfunc_begin54
	.byte	0
	.uleb128 Ltmp1173-Lfunc_begin54
	.uleb128 Ltmp1160-Ltmp1173
	.byte	0
	.byte	0
	.uleb128 Ltmp1160-Lfunc_begin54
	.uleb128 Ltmp1163-Ltmp1160
	.uleb128 Ltmp1164-Lfunc_begin54
	.byte	0
	.uleb128 Ltmp1177-Lfunc_begin54
	.uleb128 Ltmp1178-Ltmp1177
	.uleb128 Ltmp1186-Lfunc_begin54
	.byte	0
	.uleb128 Ltmp1179-Lfunc_begin54
	.uleb128 Ltmp1180-Ltmp1179
	.uleb128 Ltmp1181-Lfunc_begin54
	.byte	0
	.uleb128 Ltmp1184-Lfunc_begin54
	.uleb128 Ltmp1185-Ltmp1184
	.uleb128 Ltmp1186-Lfunc_begin54
	.byte	0
	.uleb128 Ltmp1190-Lfunc_begin54
	.uleb128 Ltmp1191-Ltmp1190
	.uleb128 Ltmp1192-Lfunc_begin54
	.byte	0
	.uleb128 Ltmp1193-Lfunc_begin54
	.uleb128 Ltmp1194-Ltmp1193
	.uleb128 Ltmp1195-Lfunc_begin54
	.byte	0
	.uleb128 Ltmp1141-Lfunc_begin54
	.uleb128 Ltmp1142-Ltmp1141
	.uleb128 Ltmp1143-Lfunc_begin54
	.byte	0
	.uleb128 Ltmp1182-Lfunc_begin54
	.uleb128 Ltmp1176-Ltmp1182
	.uleb128 Ltmp1186-Lfunc_begin54
	.byte	0
	.uleb128 Ltmp1176-Lfunc_begin54
	.uleb128 Ltmp1153-Ltmp1176
	.byte	0
	.byte	0
	.uleb128 Ltmp1153-Lfunc_begin54
	.uleb128 Ltmp1154-Ltmp1153
	.uleb128 Ltmp1189-Lfunc_begin54
	.byte	0
	.uleb128 Ltmp1154-Lfunc_begin54
	.uleb128 Ltmp1158-Ltmp1154
	.byte	0
	.byte	0
	.uleb128 Ltmp1158-Lfunc_begin54
	.uleb128 Ltmp1159-Ltmp1158
	.uleb128 Ltmp1167-Lfunc_begin54
	.byte	0
	.uleb128 Ltmp1139-Lfunc_begin54
	.uleb128 Ltmp1140-Ltmp1139
	.uleb128 Ltmp1143-Lfunc_begin54
	.byte	0
	.uleb128 Ltmp1140-Lfunc_begin54
	.uleb128 Ltmp1165-Ltmp1140
	.byte	0
	.byte	0
	.uleb128 Ltmp1165-Lfunc_begin54
	.uleb128 Ltmp1166-Ltmp1165
	.uleb128 Ltmp1167-Lfunc_begin54
	.byte	0
	.uleb128 Ltmp1168-Lfunc_begin54
	.uleb128 Ltmp1171-Ltmp1168
	.uleb128 Ltmp1186-Lfunc_begin54
	.byte	0
	.uleb128 Ltmp1187-Lfunc_begin54
	.uleb128 Ltmp1188-Ltmp1187
	.uleb128 Ltmp1189-Lfunc_begin54
	.byte	0
	.uleb128 Ltmp1188-Lfunc_begin54
	.uleb128 Ltmp1199-Ltmp1188
	.byte	0
	.byte	0
	.uleb128 Ltmp1199-Lfunc_begin54
	.uleb128 Ltmp1200-Ltmp1199
	.uleb128 Ltmp1201-Lfunc_begin54
	.byte	0
	.uleb128 Ltmp1200-Lfunc_begin54
	.uleb128 Lfunc_end54-Ltmp1200
	.byte	0
	.byte	0
Lcst_end14:
	.p2align	2

	.section	__TEXT,__text,regular,pure_instructions
	.globl	__ZN71_$LT$proc_macro2..TokenStream$u20$as$u20$quote..to_tokens..ToTokens$GT$17into_token_stream17h76465aa703522d93E
	.p2align	4, 0x90
__ZN71_$LT$proc_macro2..TokenStream$u20$as$u20$quote..to_tokens..ToTokens$GT$17into_token_stream17h76465aa703522d93E:
Lfunc_begin55:
	.loc	33 206 0 is_stmt 1
	.cfi_startproc
	pushq	%rbp
	.cfi_def_cfa_offset 16
	.cfi_offset %rbp, -16
	movq	%rsp, %rbp
	.cfi_def_cfa_register %rbp
	movq	%rdi, %rax
Ltmp1475:
	.loc	33 207 9 prologue_end
	movq	32(%rsi), %rcx
	movq	%rcx, 32(%rdi)
	movq	24(%rsi), %rcx
	movq	%rcx, 24(%rdi)
	movq	16(%rsi), %rcx
	movq	%rcx, 16(%rdi)
	movq	(%rsi), %rcx
	movq	8(%rsi), %rdx
	movq	%rdx, 8(%rdi)
	movq	%rcx, (%rdi)
	.loc	33 208 6
	popq	%rbp
	retq
Ltmp1476:
Lfunc_end55:
	.cfi_endproc

	.globl	__ZN126_$LT$quote..__private..HasIterator$u20$as$u20$core..ops..bit..BitOr$LT$quote..__private..ThereIsNoIteratorInRepetition$GT$$GT$5bitor17ha8b5cdcf2875575fE
	.p2align	4, 0x90
__ZN126_$LT$quote..__private..HasIterator$u20$as$u20$core..ops..bit..BitOr$LT$quote..__private..ThereIsNoIteratorInRepetition$GT$$GT$5bitor17ha8b5cdcf2875575fE:
Lfunc_begin56:
	.file	39 "/Users/yingyuhang/.cargo/registry/src/github.com-1ecc6299db9ec823/quote-1.0.7/src/runtime.rs"
	.loc	39 19 0
	.cfi_startproc
	pushq	%rbp
	.cfi_def_cfa_offset 16
	.cfi_offset %rbp, -16
	movq	%rsp, %rbp
	.cfi_def_cfa_register %rbp
Ltmp1477:
	.loc	39 21 6 prologue_end
	popq	%rbp
	retq
Ltmp1478:
Lfunc_end56:
	.cfi_endproc

	.globl	__ZN5quote9__private10push_group17heed05eb5e3099fa5E
	.p2align	4, 0x90
__ZN5quote9__private10push_group17heed05eb5e3099fa5E:
Lfunc_begin57:
	.loc	39 183 0
	.cfi_startproc
	pushq	%rbp
	.cfi_def_cfa_offset 16
	.cfi_offset %rbp, -16
	movq	%rsp, %rbp
	.cfi_def_cfa_register %rbp
	pushq	%r14
	pushq	%rbx
	subq	$128, %rsp
	.cfi_offset %rbx, -32
	.cfi_offset %r14, -24
	movq	%rdi, %r14
Ltmp1479:
	.loc	39 184 41 prologue_end
	movq	32(%rdx), %rax
	movq	%rax, -112(%rbp)
	movq	24(%rdx), %rax
	movq	%rax, -120(%rbp)
	movq	16(%rdx), %rax
	movq	%rax, -128(%rbp)
	movq	(%rdx), %rax
	movq	8(%rdx), %rcx
	movq	%rcx, -136(%rbp)
	movq	%rax, -144(%rbp)
Ltmp1480:
	.loc	39 0 41 is_stmt 0
	leaq	-56(%rbp), %rdi
	leaq	-144(%rbp), %rdx
Ltmp1481:
	.loc	39 184 19
	callq	__ZN11proc_macro25Group3new17hc47da7b2e938cc46E
Ltmp1482:
	.loc	34 559 17 is_stmt 1
	movq	-24(%rbp), %rax
	movq	%rax, -64(%rbp)
	movq	-32(%rbp), %rax
	movq	%rax, -72(%rbp)
	movq	-40(%rbp), %rax
	movq	%rax, -80(%rbp)
	movq	-56(%rbp), %rax
	movq	-48(%rbp), %rcx
	movq	%rcx, -88(%rbp)
	movq	%rax, -96(%rbp)
	leaq	-144(%rbp), %rbx
	leaq	-96(%rbp), %rsi
	.loc	34 559 9 is_stmt 0
	movq	%rbx, %rdi
	callq	__ZN88_$LT$proc_macro2..TokenTree$u20$as$u20$core..convert..From$LT$proc_macro2..Group$GT$$GT$4from17h3b815a37987b51b7E
Ltmp1483:
	.loc	35 66 9 is_stmt 1
	movq	%r14, %rdi
Ltmp1484:
	movq	%rbx, %rsi
	callq	__ZN110_$LT$proc_macro2..TokenStream$u20$as$u20$core..iter..traits..collect..Extend$LT$proc_macro2..TokenTree$GT$$GT$6extend17h525ee41798119d70E
Ltmp1485:
	.loc	39 185 2
	addq	$128, %rsp
	popq	%rbx
	popq	%r14
Ltmp1486:
	popq	%rbp
	retq
Ltmp1487:
Lfunc_end57:
	.cfi_endproc

	.globl	__ZN5quote9__private18push_group_spanned17haaef203c0185764dE
	.p2align	4, 0x90
__ZN5quote9__private18push_group_spanned17haaef203c0185764dE:
Lfunc_begin58:
	.loc	39 187 0
	.cfi_startproc
	.cfi_personality 155, _rust_eh_personality
	.cfi_lsda 16, Lexception15
	pushq	%rbp
	.cfi_def_cfa_offset 16
	.cfi_offset %rbp, -16
	movq	%rsp, %rbp
	.cfi_def_cfa_register %rbp
	pushq	%r15
	pushq	%r14
	pushq	%rbx
	subq	$136, %rsp
	.cfi_offset %rbx, -40
	.cfi_offset %r14, -32
	.cfi_offset %r15, -24
	movl	%esi, %r15d
Ltmp1491:
	movq	%rdi, %r14
Ltmp1492:
	.loc	39 193 39 prologue_end
	movq	32(%rcx), %rax
	movq	%rax, -120(%rbp)
	movq	24(%rcx), %rax
	movq	%rax, -128(%rbp)
	movq	16(%rcx), %rax
	movq	%rax, -136(%rbp)
	movq	(%rcx), %rax
	movq	8(%rcx), %rcx
Ltmp1493:
	movq	%rcx, -144(%rbp)
	movq	%rax, -152(%rbp)
Ltmp1494:
	.loc	39 0 39 is_stmt 0
	leaq	-64(%rbp), %rbx
	leaq	-152(%rbp), %rax
	.loc	39 193 17
	movq	%rbx, %rdi
	movl	%edx, %esi
Ltmp1495:
	movq	%rax, %rdx
	callq	__ZN11proc_macro25Group3new17hc47da7b2e938cc46E
Ltmp1496:
Ltmp1488:
	.loc	39 194 5 is_stmt 1
	movq	%rbx, %rdi
	movl	%r15d, %esi
Ltmp1497:
	callq	__ZN11proc_macro25Group8set_span17h348a64d8db7c2185E
Ltmp1498:
Ltmp1489:
	.loc	34 559 17
	movq	-32(%rbp), %rax
	movq	%rax, -72(%rbp)
	movq	-40(%rbp), %rax
	movq	%rax, -80(%rbp)
	movq	-48(%rbp), %rax
	movq	%rax, -88(%rbp)
	movq	-64(%rbp), %rax
	movq	-56(%rbp), %rcx
	movq	%rcx, -96(%rbp)
	movq	%rax, -104(%rbp)
	leaq	-152(%rbp), %rbx
	leaq	-104(%rbp), %rsi
	.loc	34 559 9 is_stmt 0
	movq	%rbx, %rdi
	callq	__ZN88_$LT$proc_macro2..TokenTree$u20$as$u20$core..convert..From$LT$proc_macro2..Group$GT$$GT$4from17h3b815a37987b51b7E
Ltmp1499:
	.loc	35 66 9 is_stmt 1
	movq	%r14, %rdi
	movq	%rbx, %rsi
	callq	__ZN110_$LT$proc_macro2..TokenStream$u20$as$u20$core..iter..traits..collect..Extend$LT$proc_macro2..TokenTree$GT$$GT$6extend17h525ee41798119d70E
Ltmp1500:
	.loc	39 196 2
	addq	$136, %rsp
	popq	%rbx
	popq	%r14
Ltmp1501:
	popq	%r15
	popq	%rbp
	retq
Ltmp1502:
LBB58_2:
Ltmp1490:
	.loc	39 0 2 is_stmt 0
	movq	%rax, %rbx
	leaq	-64(%rbp), %rdi
	.loc	39 196 1
	callq	__ZN4core3ptr13drop_in_place17hf67d0a0d9909d0e0E
	movq	%rbx, %rdi
	callq	__Unwind_Resume
	ud2
Ltmp1503:
Lfunc_end58:
	.cfi_endproc
	.section	__TEXT,__gcc_except_tab
	.p2align	2
GCC_except_table58:
Lexception15:
	.byte	255
	.byte	255
	.byte	1
	.uleb128 Lcst_end15-Lcst_begin15
Lcst_begin15:
	.uleb128 Lfunc_begin58-Lfunc_begin58
	.uleb128 Ltmp1488-Lfunc_begin58
	.byte	0
	.byte	0
	.uleb128 Ltmp1488-Lfunc_begin58
	.uleb128 Ltmp1489-Ltmp1488
	.uleb128 Ltmp1490-Lfunc_begin58
	.byte	0
	.uleb128 Ltmp1489-Lfunc_begin58
	.uleb128 Lfunc_end58-Ltmp1489
	.byte	0
	.byte	0
Lcst_end15:
	.p2align	2

	.section	__TEXT,__text,regular,pure_instructions
	.globl	__ZN5quote9__private5parse17h9c3b7bc8946e1838E
	.p2align	4, 0x90
__ZN5quote9__private5parse17h9c3b7bc8946e1838E:
Lfunc_begin59:
	.loc	39 198 0 is_stmt 1
	.cfi_startproc
	.cfi_personality 155, _rust_eh_personality
	.cfi_lsda 16, Lexception16
	pushq	%rbp
	.cfi_def_cfa_offset 16
	.cfi_offset %rbp, -16
	movq	%rsp, %rbp
	.cfi_def_cfa_register %rbp
	pushq	%r15
	pushq	%r14
	pushq	%r13
	pushq	%r12
	pushq	%rbx
	subq	$264, %rsp
	.cfi_offset %rbx, -56
	.cfi_offset %r12, -48
	.cfi_offset %r13, -40
	.cfi_offset %r14, -32
	.cfi_offset %r15, -24
	movq	%rdi, %rbx
Ltmp1518:
	leaq	-88(%rbp), %rdi
Ltmp1519:
	.loc	22 4280 9 prologue_end
	callq	__ZN63_$LT$proc_macro2..TokenStream$u20$as$u20$core..str..FromStr$GT$8from_str17h5bd24017fd43259cE
Ltmp1520:
	.loc	26 962 13
	cmpb	$1, -88(%rbp)
Ltmp1521:
	je	LBB59_26
Ltmp1522:
	.loc	26 962 16 is_stmt 0
	movq	-48(%rbp), %rax
	movq	%rax, -264(%rbp)
	movq	-56(%rbp), %rcx
	movq	%rcx, -272(%rbp)
	movq	-64(%rbp), %rdx
	movq	%rdx, -280(%rbp)
	movq	-80(%rbp), %rsi
	movq	-72(%rbp), %rdi
	movq	%rdi, -288(%rbp)
	movq	%rsi, -296(%rbp)
Ltmp1523:
	.loc	1 211 27 is_stmt 1
	movq	%rax, -136(%rbp)
	movq	%rcx, -144(%rbp)
	movq	%rdx, -152(%rbp)
	movq	%rdi, -160(%rbp)
	movq	%rsi, -168(%rbp)
Ltmp1524:
	.loc	2 0 0 is_stmt 0
	leaq	8(%rbx), %r14
Ltmp1525:
	.loc	2 206 13 is_stmt 1
	cmpq	$1, (%rbx)
	jne	LBB59_11
Ltmp1526:
	.loc	11 246 9
	movq	-136(%rbp), %rax
	movq	%rax, -56(%rbp)
	movq	-144(%rbp), %rax
	movq	%rax, -64(%rbp)
	movq	-152(%rbp), %rax
	movq	%rax, -72(%rbp)
	movq	-168(%rbp), %rax
	movq	-160(%rbp), %rcx
	movq	%rcx, -80(%rbp)
	movq	%rax, -88(%rbp)
Ltmp1527:
	.loc	11 0 9 is_stmt 0
	leaq	-256(%rbp), %rdi
	leaq	-88(%rbp), %r15
	.loc	11 246 9
	movq	%r15, %rsi
	callq	__ZN11proc_macro212token_stream96_$LT$impl$u20$core..iter..traits..collect..IntoIterator$u20$for$u20$proc_macro2..TokenStream$GT$9into_iter17h39edc99fa73d976fE
Ltmp1528:
	.loc	3 658 9 is_stmt 1
	movq	-224(%rbp), %rax
	movq	%rax, -96(%rbp)
	movq	-232(%rbp), %rax
	movq	%rax, -104(%rbp)
	movq	-240(%rbp), %rax
	movq	%rax, -112(%rbp)
	movq	-256(%rbp), %rax
	movq	-248(%rbp), %rcx
	movq	%rcx, -120(%rbp)
	movq	%rax, -128(%rbp)
Ltmp1529:
	.loc	3 0 9 is_stmt 0
	leaq	-216(%rbp), %r12
	leaq	-128(%rbp), %rbx
Ltmp1530:
	.p2align	4, 0x90
LBB59_3:
Ltmp1512:
	.loc	3 1877 29 is_stmt 1
	movq	%r12, %rdi
	movq	%rbx, %rsi
	callq	__ZN94_$LT$proc_macro2..token_stream..IntoIter$u20$as$u20$core..iter..traits..iterator..Iterator$GT$4next17h172cabbd9f84ec1eE
Ltmp1513:
Ltmp1531:
	.loc	3 1877 19 is_stmt 0
	cmpl	$4, -216(%rbp)
	je	LBB59_9
Ltmp1532:
	.loc	11 246 61 is_stmt 1
	movq	-176(%rbp), %rax
	movq	%rax, -48(%rbp)
	movq	-184(%rbp), %rax
	movq	%rax, -56(%rbp)
	movq	-192(%rbp), %rax
	movq	%rax, -64(%rbp)
	movq	-200(%rbp), %rax
	movq	%rax, -72(%rbp)
	movq	-216(%rbp), %rax
	movq	-208(%rbp), %rcx
	movq	%rcx, -80(%rbp)
	movq	%rax, -88(%rbp)
Ltmp1515:
	.loc	11 246 45 is_stmt 0
	movq	%r14, %rdi
	movq	%r15, %rsi
	callq	__ZN11proc_macro28fallback11TokenStream10push_token17h39757acab137ed17E
Ltmp1516:
	jmp	LBB59_3
Ltmp1533:
LBB59_11:
	.loc	2 209 29 is_stmt 1
	movq	-136(%rbp), %rax
	movq	%rax, -56(%rbp)
	movq	-144(%rbp), %rax
	movq	%rax, -64(%rbp)
	movq	-152(%rbp), %rax
	movq	%rax, -72(%rbp)
	movq	-168(%rbp), %rax
	movq	-160(%rbp), %rcx
	movq	%rcx, -80(%rbp)
	movq	%rax, -88(%rbp)
	leaq	-256(%rbp), %rdi
	leaq	-88(%rbp), %rsi
	callq	__ZN11proc_macro212token_stream96_$LT$impl$u20$core..iter..traits..collect..IntoIterator$u20$for$u20$proc_macro2..TokenStream$GT$9into_iter17h39edc99fa73d976fE
Ltmp1534:
	.loc	8 2086 31
	movq	-224(%rbp), %rax
	movq	%rax, -96(%rbp)
	movq	-232(%rbp), %rax
	movq	%rax, -104(%rbp)
	movq	-240(%rbp), %rax
	movq	%rax, -112(%rbp)
	movq	-256(%rbp), %rax
	movq	-248(%rbp), %rcx
	movq	%rcx, -120(%rbp)
	movq	%rax, -128(%rbp)
	leaq	-216(%rbp), %r12
	leaq	-128(%rbp), %r13
	jmp	LBB59_12
Ltmp1535:
	.p2align	4, 0x90
LBB59_18:
	.loc	8 2200 56
	movq	-88(%rbp), %rax
Ltmp1536:
LBB59_19:
	.loc	8 850 19
	movq	8(%rbx), %rcx
Ltmp1537:
	.loc	7 836 42
	movq	%rax, (%rcx,%r15,8)
Ltmp1538:
	.loc	8 2202 30
	incq	%r15
Ltmp1539:
	.loc	8 940 9
	movq	%r15, 24(%rbx)
Ltmp1540:
LBB59_12:
Ltmp1504:
	.loc	10 804 9
	movq	%r12, %rdi
	movq	%r13, %rsi
	callq	__ZN94_$LT$proc_macro2..token_stream..IntoIter$u20$as$u20$core..iter..traits..iterator..Iterator$GT$4next17h172cabbd9f84ec1eE
Ltmp1505:
Ltmp1541:
	.loc	4 458 13
	cmpl	$4, -216(%rbp)
	je	LBB59_9
Ltmp1542:
	.loc	4 0 13 is_stmt 0
	movq	-176(%rbp), %rax
	movq	%rax, -48(%rbp)
	movq	-184(%rbp), %rax
	movq	%rax, -56(%rbp)
	movq	-192(%rbp), %rax
	movq	%rax, -64(%rbp)
	movq	-200(%rbp), %rax
	movq	%rax, -72(%rbp)
	movq	-216(%rbp), %rax
	movq	-208(%rbp), %rcx
	movq	%rcx, -80(%rbp)
	movq	%rax, -88(%rbp)
Ltmp1543:
Ltmp1506:
	.loc	12 154 5 is_stmt 1
	leaq	-88(%rbp), %rdi
	callq	__ZN11proc_macro23imp19into_compiler_token17hbf6b848651e6d9ceE
Ltmp1507:
Ltmp1544:
	.loc	8 2193 19
	cmpl	$4, %eax
	je	LBB59_9
Ltmp1545:
	.loc	8 2193 24 is_stmt 0
	movq	%rax, -88(%rbp)
Ltmp1546:
	.loc	8 2194 23 is_stmt 1
	movq	24(%rbx), %r15
Ltmp1547:
	.loc	8 2195 16
	cmpq	16(%rbx), %r15
	.loc	8 2195 13 is_stmt 0
	jne	LBB59_19
Ltmp1548:
Ltmp1509:
	.loc	8 2197 17 is_stmt 1
	movl	$1, %esi
	movq	%r14, %rdi
	callq	__ZN5alloc3vec12Vec$LT$T$GT$7reserve17hda3fe561e747e7fdE
Ltmp1510:
	jmp	LBB59_18
Ltmp1549:
LBB59_9:
	.loc	2 0 0 is_stmt 0
	cmpl	$0, -128(%rbp)
	je	LBB59_10
Ltmp1550:
	leaq	-120(%rbp), %rdi
	callq	__ZN4core3ptr13drop_in_place17h87f3f478f0fd1cb1E
	jmp	LBB59_21
Ltmp1551:
LBB59_10:
	leaq	-124(%rbp), %rdi
Ltmp1552:
	callq	__ZN85_$LT$proc_macro..bridge..client..TokenStreamIter$u20$as$u20$core..ops..drop..Drop$GT$4drop17h895c7a3fc27312aaE
Ltmp1553:
LBB59_21:
	.loc	39 201 2 is_stmt 1
	addq	$264, %rsp
	popq	%rbx
	popq	%r12
	popq	%r13
	popq	%r14
	popq	%r15
	popq	%rbp
	retq
LBB59_26:
Ltmp1554:
	.loc	26 963 17
	movb	-87(%rbp), %al
Ltmp1555:
	movb	%al, -216(%rbp)
Ltmp1556:
	.loc	26 963 23 is_stmt 0
	leaq	l___unnamed_13(%rip), %rdi
	leaq	l___unnamed_2(%rip), %rcx
	leaq	l___unnamed_14(%rip), %r8
	leaq	-216(%rbp), %rdx
	movl	$20, %esi
	callq	__ZN4core6result13unwrap_failed17hb5a510096a5fc85fE
Ltmp1557:
LBB59_22:
Ltmp1511:
	.loc	26 0 23
	movq	%rax, %rbx
Ltmp1558:
	leaq	-88(%rbp), %rdi
Ltmp1559:
	.loc	8 2204 9 is_stmt 1
	callq	__ZN4core3ptr13drop_in_place17h66ac00b3d76ec549E
	jmp	LBB59_24
Ltmp1560:
LBB59_8:
Ltmp1517:
	.loc	8 0 9 is_stmt 0
	jmp	LBB59_7
Ltmp1561:
LBB59_6:
Ltmp1514:
LBB59_7:
	movq	%rax, %rbx
Ltmp1562:
	leaq	-128(%rbp), %rdi
Ltmp1563:
	.loc	3 2006 5 is_stmt 1
	callq	__ZN4core3ptr13drop_in_place17h9abfa900301d59b5E
	movq	%rbx, %rdi
	callq	__Unwind_Resume
	ud2
Ltmp1564:
LBB59_23:
Ltmp1508:
	.loc	3 0 5 is_stmt 0
	movq	%rax, %rbx
Ltmp1565:
LBB59_24:
	leaq	-128(%rbp), %rdi
Ltmp1566:
	.loc	8 2205 5 is_stmt 1
	callq	__ZN4core3ptr13drop_in_place17h778b6eb1653668eeE
	movq	%rbx, %rdi
	callq	__Unwind_Resume
	ud2
Ltmp1567:
Lfunc_end59:
	.cfi_endproc
	.section	__TEXT,__gcc_except_tab
	.p2align	2
GCC_except_table59:
Lexception16:
	.byte	255
	.byte	255
	.byte	1
	.uleb128 Lcst_end16-Lcst_begin16
Lcst_begin16:
	.uleb128 Lfunc_begin59-Lfunc_begin59
	.uleb128 Ltmp1512-Lfunc_begin59
	.byte	0
	.byte	0
	.uleb128 Ltmp1512-Lfunc_begin59
	.uleb128 Ltmp1513-Ltmp1512
	.uleb128 Ltmp1514-Lfunc_begin59
	.byte	0
	.uleb128 Ltmp1515-Lfunc_begin59
	.uleb128 Ltmp1516-Ltmp1515
	.uleb128 Ltmp1517-Lfunc_begin59
	.byte	0
	.uleb128 Ltmp1516-Lfunc_begin59
	.uleb128 Ltmp1504-Ltmp1516
	.byte	0
	.byte	0
	.uleb128 Ltmp1504-Lfunc_begin59
	.uleb128 Ltmp1507-Ltmp1504
	.uleb128 Ltmp1508-Lfunc_begin59
	.byte	0
	.uleb128 Ltmp1509-Lfunc_begin59
	.uleb128 Ltmp1510-Ltmp1509
	.uleb128 Ltmp1511-Lfunc_begin59
	.byte	0
	.uleb128 Ltmp1510-Lfunc_begin59
	.uleb128 Lfunc_end59-Ltmp1510
	.byte	0
	.byte	0
Lcst_end16:
	.p2align	2

	.section	__TEXT,__text,regular,pure_instructions
	.globl	__ZN5quote9__private13parse_spanned17h6fd201b5db6cd656E
	.p2align	4, 0x90
__ZN5quote9__private13parse_spanned17h6fd201b5db6cd656E:
Lfunc_begin60:
	.loc	39 203 0
	.cfi_startproc
	.cfi_personality 155, _rust_eh_personality
	.cfi_lsda 16, Lexception17
	pushq	%rbp
	.cfi_def_cfa_offset 16
	.cfi_offset %rbp, -16
	movq	%rsp, %rbp
	.cfi_def_cfa_register %rbp
	pushq	%r15
	pushq	%r14
	pushq	%r13
	pushq	%r12
	pushq	%rbx
	subq	$328, %rsp
	.cfi_offset %rbx, -56
	.cfi_offset %r12, -48
	.cfi_offset %r13, -40
	.cfi_offset %r14, -32
	.cfi_offset %r15, -24
	movl	%esi, %r13d
	movq	%rdi, %r15
Ltmp1594:
	movl	%esi, -140(%rbp)
Ltmp1595:
	leaq	-88(%rbp), %rdi
Ltmp1596:
	.loc	22 4280 9 prologue_end
	movq	%rdx, %rsi
Ltmp1597:
	movq	%rcx, %rdx
Ltmp1598:
	callq	__ZN63_$LT$proc_macro2..TokenStream$u20$as$u20$core..str..FromStr$GT$8from_str17h5bd24017fd43259cE
Ltmp1599:
	.loc	26 962 13
	cmpb	$1, -88(%rbp)
Ltmp1600:
	je	LBB60_27
Ltmp1601:
	.loc	26 962 16 is_stmt 0
	movq	-48(%rbp), %rax
	movq	%rax, -336(%rbp)
	movq	-56(%rbp), %rcx
	movq	%rcx, -344(%rbp)
	movq	-64(%rbp), %rdx
	movq	%rdx, -352(%rbp)
	movq	-80(%rbp), %rsi
	movq	-72(%rbp), %rdi
	movq	%rdi, -360(%rbp)
	movq	%rsi, -368(%rbp)
Ltmp1602:
	.loc	39 205 19 is_stmt 1
	movq	%rax, -56(%rbp)
	movq	%rcx, -64(%rbp)
	movq	%rdx, -72(%rbp)
	movq	%rdi, -80(%rbp)
	movq	%rsi, -88(%rbp)
	leaq	-328(%rbp), %rdi
	leaq	-88(%rbp), %rsi
	callq	__ZN11proc_macro212token_stream96_$LT$impl$u20$core..iter..traits..collect..IntoIterator$u20$for$u20$proc_macro2..TokenStream$GT$9into_iter17h39edc99fa73d976fE
Ltmp1603:
	.loc	1 211 27
	movq	-296(%rbp), %rax
	movq	%rax, -208(%rbp)
	movq	-304(%rbp), %rax
	movq	%rax, -216(%rbp)
	movq	-312(%rbp), %rax
	movq	%rax, -224(%rbp)
	movq	-328(%rbp), %rax
	movq	-320(%rbp), %rcx
	movq	%rcx, -232(%rbp)
	movq	%rax, -240(%rbp)
Ltmp1604:
	.loc	2 0 0 is_stmt 0
	leaq	8(%r15), %rax
Ltmp1605:
	movq	%rax, -200(%rbp)
	.loc	2 206 13 is_stmt 1
	cmpq	$1, (%r15)
	jne	LBB60_7
Ltmp1606:
	.loc	10 825 9
	movq	-208(%rbp), %rax
	movq	%rax, -104(%rbp)
	movq	-216(%rbp), %rax
	movq	%rax, -112(%rbp)
	movq	-224(%rbp), %rax
	movq	%rax, -120(%rbp)
	movq	-240(%rbp), %rax
	movq	-232(%rbp), %rcx
	movq	%rcx, -128(%rbp)
	movq	%rax, -136(%rbp)
Ltmp1607:
	.loc	10 0 9 is_stmt 0
	leaq	-192(%rbp), %r15
Ltmp1608:
	leaq	-136(%rbp), %r12
	leaq	-88(%rbp), %r14
Ltmp1609:
	.p2align	4, 0x90
LBB60_3:
Ltmp1582:
	.loc	3 1877 29 is_stmt 1
	movq	%r15, %rdi
	movq	%r12, %rsi
	callq	__ZN94_$LT$proc_macro2..token_stream..IntoIter$u20$as$u20$core..iter..traits..iterator..Iterator$GT$4next17h172cabbd9f84ec1eE
Ltmp1583:
Ltmp1610:
	.loc	3 1877 19 is_stmt 0
	cmpl	$4, -192(%rbp)
	je	LBB60_20
Ltmp1611:
	.loc	10 785 30 is_stmt 1
	movq	-152(%rbp), %rax
	movq	%rax, -48(%rbp)
	movq	-160(%rbp), %rax
	movq	%rax, -56(%rbp)
	movq	-168(%rbp), %rax
	movq	%rax, -64(%rbp)
	movq	-176(%rbp), %rax
	movq	%rax, -72(%rbp)
	movq	-192(%rbp), %rax
	movq	-184(%rbp), %rcx
	movq	%rcx, -80(%rbp)
	movq	%rax, -88(%rbp)
Ltmp1585:
Ltmp1612:
	.loc	39 206 9
	movq	%r14, %rdi
	movl	%r13d, %esi
	callq	__ZN11proc_macro29TokenTree8set_span17h6e8ccfe87f4f3e8cE
Ltmp1586:
Ltmp1613:
	.loc	39 207 9
	movq	-48(%rbp), %rax
	movq	%rax, -248(%rbp)
	movq	-56(%rbp), %rcx
	movq	%rcx, -256(%rbp)
	movq	-64(%rbp), %rdx
	movq	%rdx, -264(%rbp)
	movq	-72(%rbp), %rsi
	movq	%rsi, -272(%rbp)
	movq	-88(%rbp), %rdi
	movq	-80(%rbp), %rbx
	movq	%rbx, -280(%rbp)
	movq	%rdi, -288(%rbp)
Ltmp1614:
	.loc	11 246 61
	movq	%rax, -48(%rbp)
	movq	%rcx, -56(%rbp)
	movq	%rdx, -64(%rbp)
	movq	%rsi, -72(%rbp)
	movq	%rbx, -80(%rbp)
	movq	%rdi, -88(%rbp)
Ltmp1591:
	movq	-200(%rbp), %rdi
	.loc	11 246 45 is_stmt 0
	movq	%r14, %rsi
	callq	__ZN11proc_macro28fallback11TokenStream10push_token17h39757acab137ed17E
Ltmp1592:
	jmp	LBB60_3
Ltmp1615:
LBB60_7:
	.loc	8 2086 31 is_stmt 1
	movq	-208(%rbp), %rax
	movq	%rax, -160(%rbp)
	movq	-216(%rbp), %rax
	movq	%rax, -168(%rbp)
	movq	-224(%rbp), %rax
	movq	%rax, -176(%rbp)
	movq	-240(%rbp), %rax
	movq	-232(%rbp), %rcx
	movq	%rcx, -184(%rbp)
	movq	%rax, -192(%rbp)
	leaq	-140(%rbp), %rax
	movq	%rax, -152(%rbp)
Ltmp1616:
	.loc	39 0 0 is_stmt 0
	leaq	-84(%rbp), %r12
	leaq	-288(%rbp), %r14
	leaq	-88(%rbp), %rbx
	jmp	LBB60_9
Ltmp1617:
	.p2align	4, 0x90
LBB60_8:
	.loc	8 850 19 is_stmt 1
	movq	8(%r15), %rcx
Ltmp1618:
	.loc	7 836 42
	movq	%rax, (%rcx,%r13,8)
Ltmp1619:
	.loc	8 2202 30
	incq	%r13
Ltmp1620:
	.loc	8 940 9
	movq	%r13, 24(%r15)
Ltmp1621:
LBB60_9:
Ltmp1568:
	.loc	10 804 9
	movq	%r14, %rdi
	leaq	-192(%rbp), %rsi
	callq	__ZN94_$LT$proc_macro2..token_stream..IntoIter$u20$as$u20$core..iter..traits..iterator..Iterator$GT$4next17h172cabbd9f84ec1eE
Ltmp1569:
Ltmp1622:
	.loc	4 458 13
	cmpl	$4, -288(%rbp)
	je	LBB60_18
Ltmp1623:
	.loc	10 804 9
	movq	-152(%rbp), %rax
Ltmp1624:
	.loc	4 458 29
	movl	(%rax), %esi
Ltmp1625:
	.loc	12 285 30
	movq	-248(%rbp), %rax
	movq	%rax, -48(%rbp)
	movq	-256(%rbp), %rax
	movq	%rax, -56(%rbp)
	movq	-264(%rbp), %rax
	movq	%rax, -64(%rbp)
	movq	-272(%rbp), %rax
	movq	%rax, -72(%rbp)
	movq	-288(%rbp), %rax
	movq	-280(%rbp), %rcx
	movq	%rcx, -80(%rbp)
	movq	%rax, -88(%rbp)
Ltmp1570:
Ltmp1626:
	.loc	39 206 9
	movq	%rbx, %rdi
	callq	__ZN11proc_macro29TokenTree8set_span17h6e8ccfe87f4f3e8cE
Ltmp1571:
Ltmp1627:
	.loc	39 207 9
	movl	-88(%rbp), %eax
Ltmp1628:
	movq	(%r12), %rcx
	movq	8(%r12), %rdx
	movq	%rcx, -136(%rbp)
	movq	%rdx, -128(%rbp)
	movq	16(%r12), %rcx
	movq	%rcx, -120(%rbp)
	movq	24(%r12), %rcx
	movq	%rcx, -112(%rbp)
	movq	32(%r12), %rcx
	movq	%rcx, -104(%rbp)
	movl	40(%r12), %ecx
	movl	%ecx, -96(%rbp)
Ltmp1629:
	.loc	4 458 13
	cmpl	$4, %eax
	je	LBB60_18
Ltmp1630:
	.loc	4 0 13 is_stmt 0
	movl	%eax, -88(%rbp)
	movl	-96(%rbp), %eax
Ltmp1631:
	movl	%eax, 40(%r12)
	movq	-104(%rbp), %rax
	movq	%rax, 32(%r12)
	movq	-112(%rbp), %rax
	movq	%rax, 24(%r12)
	movq	-120(%rbp), %rax
	movq	%rax, 16(%r12)
	movq	-136(%rbp), %rax
	movq	-128(%rbp), %rcx
	movq	%rcx, 8(%r12)
	movq	%rax, (%r12)
Ltmp1632:
Ltmp1576:
	.loc	12 154 5 is_stmt 1
	movq	%rbx, %rdi
	callq	__ZN11proc_macro23imp19into_compiler_token17hbf6b848651e6d9ceE
Ltmp1577:
Ltmp1633:
	.loc	8 2193 19
	cmpl	$4, %eax
	je	LBB60_18
Ltmp1634:
	.loc	8 2193 24 is_stmt 0
	movq	%rax, -88(%rbp)
Ltmp1635:
	.loc	8 2194 23 is_stmt 1
	movq	24(%r15), %r13
Ltmp1636:
	.loc	8 2195 16
	cmpq	16(%r15), %r13
	.loc	8 2195 13 is_stmt 0
	jne	LBB60_8
Ltmp1637:
Ltmp1579:
	.loc	8 2197 17 is_stmt 1
	movl	$1, %esi
	movq	-200(%rbp), %rdi
	callq	__ZN5alloc3vec12Vec$LT$T$GT$7reserve17hda3fe561e747e7fdE
Ltmp1580:
Ltmp1638:
	.loc	8 2200 56
	movq	-88(%rbp), %rax
	jmp	LBB60_8
Ltmp1639:
LBB60_18:
	.loc	7 178 1
	cmpl	$0, -192(%rbp)
	je	LBB60_23
Ltmp1640:
	leaq	-184(%rbp), %rdi
	jmp	LBB60_22
Ltmp1641:
LBB60_20:
	.loc	7 178 1 is_stmt 0
	cmpl	$0, -136(%rbp)
	je	LBB60_24
Ltmp1642:
	leaq	-128(%rbp), %rdi
Ltmp1643:
LBB60_22:
	.loc	2 0 0
	callq	__ZN4core3ptr13drop_in_place17h87f3f478f0fd1cb1E
	jmp	LBB60_26
Ltmp1644:
LBB60_23:
	.loc	7 178 1
	leaq	-188(%rbp), %rdi
	jmp	LBB60_25
Ltmp1645:
LBB60_24:
	.loc	7 178 1
	leaq	-132(%rbp), %rdi
Ltmp1646:
LBB60_25:
	.loc	2 0 0
	callq	__ZN85_$LT$proc_macro..bridge..client..TokenStreamIter$u20$as$u20$core..ops..drop..Drop$GT$4drop17h895c7a3fc27312aaE
Ltmp1647:
LBB60_26:
	.loc	39 209 2 is_stmt 1
	addq	$328, %rsp
	popq	%rbx
	popq	%r12
	popq	%r13
	popq	%r14
	popq	%r15
	popq	%rbp
	retq
LBB60_27:
Ltmp1648:
	.loc	26 963 17
	movb	-87(%rbp), %al
Ltmp1649:
	movb	%al, -288(%rbp)
Ltmp1650:
	.loc	26 963 23 is_stmt 0
	leaq	l___unnamed_13(%rip), %rdi
	leaq	l___unnamed_2(%rip), %rcx
	leaq	l___unnamed_15(%rip), %r8
	leaq	-288(%rbp), %rdx
	movl	$20, %esi
	callq	__ZN4core6result13unwrap_failed17hb5a510096a5fc85fE
Ltmp1651:
LBB60_28:
Ltmp1581:
	.loc	26 0 23
	movq	%rax, %rbx
Ltmp1652:
	leaq	-88(%rbp), %rdi
Ltmp1653:
	.loc	8 2204 9 is_stmt 1
	callq	__ZN4core3ptr13drop_in_place17h66ac00b3d76ec549E
	jmp	LBB60_33
Ltmp1654:
LBB60_29:
Ltmp1572:
	.loc	8 0 9 is_stmt 0
	movq	%rax, %rbx
Ltmp1573:
	leaq	-88(%rbp), %rdi
Ltmp1655:
	.loc	39 208 5 is_stmt 1
	callq	__ZN4core3ptr13drop_in_place17hafd39e94c924e549E
Ltmp1574:
	jmp	LBB60_33
Ltmp1656:
LBB60_30:
Ltmp1575:
	.loc	39 0 5 is_stmt 0
	jmp	LBB60_32
Ltmp1657:
LBB60_31:
Ltmp1578:
LBB60_32:
	movq	%rax, %rbx
Ltmp1658:
LBB60_33:
	leaq	-192(%rbp), %rdi
	.loc	8 2205 5 is_stmt 1
	callq	__ZN4core3ptr13drop_in_place17h3cae5a1e6101b032E
	movq	%rbx, %rdi
	callq	__Unwind_Resume
	ud2
Ltmp1659:
LBB60_34:
Ltmp1587:
	.loc	8 0 5 is_stmt 0
	movq	%rax, %rbx
Ltmp1588:
	leaq	-88(%rbp), %rdi
Ltmp1660:
	.loc	39 208 5 is_stmt 1
	callq	__ZN4core3ptr13drop_in_place17hafd39e94c924e549E
Ltmp1589:
	jmp	LBB60_39
Ltmp1661:
LBB60_35:
Ltmp1590:
	.loc	39 0 5 is_stmt 0
	jmp	LBB60_38
Ltmp1662:
LBB60_36:
Ltmp1593:
	jmp	LBB60_38
Ltmp1663:
LBB60_37:
Ltmp1584:
LBB60_38:
	movq	%rax, %rbx
Ltmp1664:
LBB60_39:
	leaq	-136(%rbp), %rdi
	.loc	3 2006 5 is_stmt 1
	callq	__ZN4core3ptr13drop_in_place17h9abfa900301d59b5E
	movq	%rbx, %rdi
	callq	__Unwind_Resume
	ud2
Ltmp1665:
Lfunc_end60:
	.cfi_endproc
	.section	__TEXT,__gcc_except_tab
	.p2align	2
GCC_except_table60:
Lexception17:
	.byte	255
	.byte	255
	.byte	1
	.uleb128 Lcst_end17-Lcst_begin17
Lcst_begin17:
	.uleb128 Lfunc_begin60-Lfunc_begin60
	.uleb128 Ltmp1582-Lfunc_begin60
	.byte	0
	.byte	0
	.uleb128 Ltmp1582-Lfunc_begin60
	.uleb128 Ltmp1583-Ltmp1582
	.uleb128 Ltmp1584-Lfunc_begin60
	.byte	0
	.uleb128 Ltmp1585-Lfunc_begin60
	.uleb128 Ltmp1586-Ltmp1585
	.uleb128 Ltmp1587-Lfunc_begin60
	.byte	0
	.uleb128 Ltmp1591-Lfunc_begin60
	.uleb128 Ltmp1592-Ltmp1591
	.uleb128 Ltmp1593-Lfunc_begin60
	.byte	0
	.uleb128 Ltmp1568-Lfunc_begin60
	.uleb128 Ltmp1569-Ltmp1568
	.uleb128 Ltmp1578-Lfunc_begin60
	.byte	0
	.uleb128 Ltmp1570-Lfunc_begin60
	.uleb128 Ltmp1571-Ltmp1570
	.uleb128 Ltmp1572-Lfunc_begin60
	.byte	0
	.uleb128 Ltmp1576-Lfunc_begin60
	.uleb128 Ltmp1577-Ltmp1576
	.uleb128 Ltmp1578-Lfunc_begin60
	.byte	0
	.uleb128 Ltmp1579-Lfunc_begin60
	.uleb128 Ltmp1580-Ltmp1579
	.uleb128 Ltmp1581-Lfunc_begin60
	.byte	0
	.uleb128 Ltmp1580-Lfunc_begin60
	.uleb128 Ltmp1573-Ltmp1580
	.byte	0
	.byte	0
	.uleb128 Ltmp1573-Lfunc_begin60
	.uleb128 Ltmp1574-Ltmp1573
	.uleb128 Ltmp1575-Lfunc_begin60
	.byte	0
	.uleb128 Ltmp1574-Lfunc_begin60
	.uleb128 Ltmp1588-Ltmp1574
	.byte	0
	.byte	0
	.uleb128 Ltmp1588-Lfunc_begin60
	.uleb128 Ltmp1589-Ltmp1588
	.uleb128 Ltmp1590-Lfunc_begin60
	.byte	0
	.uleb128 Ltmp1589-Lfunc_begin60
	.uleb128 Lfunc_end60-Ltmp1589
	.byte	0
	.byte	0
Lcst_end17:
	.p2align	2

	.section	__TEXT,__text,regular,pure_instructions
	.globl	__ZN5quote9__private10push_ident17h273f374860e09eb6E
	.p2align	4, 0x90
__ZN5quote9__private10push_ident17h273f374860e09eb6E:
Lfunc_begin61:
	.loc	39 211 0
	.cfi_startproc
	pushq	%rbp
	.cfi_def_cfa_offset 16
	.cfi_offset %rbp, -16
	movq	%rsp, %rbp
	.cfi_def_cfa_register %rbp
	pushq	%r15
	pushq	%r14
	pushq	%rbx
	subq	$136, %rsp
	.cfi_offset %rbx, -40
	.cfi_offset %r14, -32
	.cfi_offset %r15, -24
	movq	%rdx, %rbx
Ltmp1666:
	movq	%rsi, %r15
Ltmp1667:
	movq	%rdi, %r14
Ltmp1668:
	.loc	28 1430 9 prologue_end
	cmpq	$2, %rdx
Ltmp1669:
	jb	LBB61_3
Ltmp1670:
	.loc	28 5863 12
	leaq	l___unnamed_6(%rip), %rax
Ltmp1671:
	cmpq	%rax, %r15
	.loc	28 5863 9 is_stmt 0
	je	LBB61_4
Ltmp1672:
	.loc	28 5868 13 is_stmt 1
	movzwl	(%r15), %eax
Ltmp1673:
	cmpl	$9074, %eax
Ltmp1674:
	.loc	28 1430 9
	je	LBB61_4
Ltmp1675:
LBB61_3:
	.loc	39 219 37
	callq	__ZN11proc_macro24Span9call_site17h3202e3fbf4b552d9E
Ltmp1676:
	.loc	39 0 37 is_stmt 0
	leaq	-64(%rbp), %rdi
	.loc	39 219 23
	movq	%r15, %rsi
	movq	%rbx, %rdx
	movl	%eax, %ecx
	callq	__ZN11proc_macro25Ident3new17h07294457c5ee078bE
Ltmp1677:
	.loc	34 559 17 is_stmt 1
	movq	-32(%rbp), %rax
	movq	%rax, -72(%rbp)
	movq	-40(%rbp), %rax
	movq	%rax, -80(%rbp)
	movq	-48(%rbp), %rax
	movq	%rax, -88(%rbp)
	movq	-64(%rbp), %rax
	movq	-56(%rbp), %rcx
	movq	%rcx, -96(%rbp)
	movq	%rax, -104(%rbp)
	leaq	-152(%rbp), %rbx
Ltmp1678:
	.loc	34 0 17 is_stmt 0
	leaq	-104(%rbp), %rsi
	.loc	34 559 9
	movq	%rbx, %rdi
	callq	__ZN88_$LT$proc_macro2..TokenTree$u20$as$u20$core..convert..From$LT$proc_macro2..Ident$GT$$GT$4from17h7c49be5e7ad84e28E
Ltmp1679:
	.loc	35 66 9 is_stmt 1
	movq	%r14, %rdi
	movq	%rbx, %rsi
	callq	__ZN110_$LT$proc_macro2..TokenStream$u20$as$u20$core..iter..traits..collect..Extend$LT$proc_macro2..TokenTree$GT$$GT$6extend17h525ee41798119d70E
Ltmp1680:
	.loc	39 221 2
	addq	$136, %rsp
	popq	%rbx
	popq	%r14
Ltmp1681:
	popq	%r15
Ltmp1682:
	popq	%rbp
	retq
Ltmp1683:
LBB61_4:
	.loc	39 217 9
	movq	%r14, %rdi
	movq	%r15, %rsi
	movq	%rbx, %rdx
	addq	$136, %rsp
	popq	%rbx
Ltmp1684:
	popq	%r14
Ltmp1685:
	popq	%r15
Ltmp1686:
	popq	%rbp
	jmp	__ZN5quote9__private5parse17h9c3b7bc8946e1838E
Ltmp1687:
Lfunc_end61:
	.cfi_endproc

	.globl	__ZN5quote9__private18push_ident_spanned17hbc6840a5797a03d5E
	.p2align	4, 0x90
__ZN5quote9__private18push_ident_spanned17hbc6840a5797a03d5E:
Lfunc_begin62:
	.loc	39 223 0
	.cfi_startproc
	pushq	%rbp
	.cfi_def_cfa_offset 16
	.cfi_offset %rbp, -16
	movq	%rsp, %rbp
	.cfi_def_cfa_register %rbp
	pushq	%r14
	pushq	%rbx
	subq	$128, %rsp
	.cfi_offset %rbx, -32
	.cfi_offset %r14, -24
	movl	%esi, %eax
Ltmp1688:
	movq	%rdi, %r14
Ltmp1689:
	.loc	28 1430 9 prologue_end
	cmpq	$2, %rcx
Ltmp1690:
	jb	LBB62_3
Ltmp1691:
	.loc	28 5863 12
	leaq	l___unnamed_6(%rip), %rsi
Ltmp1692:
	cmpq	%rsi, %rdx
	.loc	28 5863 9 is_stmt 0
	je	LBB62_4
Ltmp1693:
	.loc	28 5868 13 is_stmt 1
	movzwl	(%rdx), %esi
Ltmp1694:
	cmpl	$9074, %esi
Ltmp1695:
	.loc	28 1430 9
	je	LBB62_4
Ltmp1696:
LBB62_3:
	.loc	28 0 9 is_stmt 0
	leaq	-56(%rbp), %rdi
	.loc	39 231 23 is_stmt 1
	movq	%rdx, %rsi
	movq	%rcx, %rdx
Ltmp1697:
	movl	%eax, %ecx
Ltmp1698:
	callq	__ZN11proc_macro25Ident3new17h07294457c5ee078bE
Ltmp1699:
	.loc	34 559 17
	movq	-24(%rbp), %rax
	movq	%rax, -64(%rbp)
	movq	-32(%rbp), %rax
	movq	%rax, -72(%rbp)
	movq	-40(%rbp), %rax
	movq	%rax, -80(%rbp)
	movq	-56(%rbp), %rax
	movq	-48(%rbp), %rcx
	movq	%rcx, -88(%rbp)
	movq	%rax, -96(%rbp)
	leaq	-144(%rbp), %rbx
	leaq	-96(%rbp), %rsi
	.loc	34 559 9 is_stmt 0
	movq	%rbx, %rdi
	callq	__ZN88_$LT$proc_macro2..TokenTree$u20$as$u20$core..convert..From$LT$proc_macro2..Ident$GT$$GT$4from17h7c49be5e7ad84e28E
Ltmp1700:
	.loc	35 66 9 is_stmt 1
	movq	%r14, %rdi
	movq	%rbx, %rsi
	callq	__ZN110_$LT$proc_macro2..TokenStream$u20$as$u20$core..iter..traits..collect..Extend$LT$proc_macro2..TokenTree$GT$$GT$6extend17h525ee41798119d70E
Ltmp1701:
	.loc	39 233 2
	addq	$128, %rsp
	popq	%rbx
	popq	%r14
Ltmp1702:
	popq	%rbp
	retq
Ltmp1703:
LBB62_4:
	.loc	39 229 9
	movq	%r14, %rdi
	movl	%eax, %esi
	addq	$128, %rsp
	popq	%rbx
	popq	%r14
Ltmp1704:
	popq	%rbp
	jmp	__ZN5quote9__private13parse_spanned17h6fd201b5db6cd656E
Ltmp1705:
Lfunc_end62:
	.cfi_endproc

	.globl	__ZN5quote9__private8mk_ident17h9689c76b3879bf0fE
	.p2align	4, 0x90
__ZN5quote9__private8mk_ident17h9689c76b3879bf0fE:
Lfunc_begin63:
	.loc	39 332 0
	.cfi_startproc
	.cfi_personality 155, _rust_eh_personality
	.cfi_lsda 16, Lexception18
	pushq	%rbp
	.cfi_def_cfa_offset 16
	.cfi_offset %rbp, -16
	movq	%rsp, %rbp
	.cfi_def_cfa_register %rbp
	pushq	%r15
	pushq	%r14
	pushq	%r13
	pushq	%r12
	pushq	%rbx
	subq	$344, %rsp
	.cfi_offset %rbx, -56
	.cfi_offset %r12, -48
	.cfi_offset %r13, -40
	.cfi_offset %r14, -32
	.cfi_offset %r15, -24
	movq	%rcx, %r13
Ltmp1740:
	movq	%rdx, %rbx
Ltmp1741:
	movq	%rsi, %r14
Ltmp1742:
	movq	%rdi, %r15
Ltmp1743:
	.loc	4 429 13 prologue_end
	testl	%r13d, %r13d
	je	LBB63_24
Ltmp1744:
	.loc	4 0 13 is_stmt 0
	shrq	$32, %r13
Ltmp1745:
	.loc	28 1430 9 is_stmt 1
	cmpq	$2, %rbx
Ltmp1746:
	jb	LBB63_25
Ltmp1747:
LBB63_2:
	.loc	28 5863 12
	leaq	l___unnamed_6(%rip), %rax
Ltmp1748:
	cmpq	%rax, %r14
	.loc	28 5863 9 is_stmt 0
	je	LBB63_4
Ltmp1749:
	.loc	28 5868 13 is_stmt 1
	movzwl	(%r14), %eax
Ltmp1750:
	cmpl	$9074, %eax
Ltmp1751:
	.loc	28 1430 9
	jne	LBB63_25
Ltmp1752:
LBB63_4:
	.loc	28 0 9 is_stmt 0
	movq	%r14, -96(%rbp)
	movq	%rbx, -88(%rbp)
Ltmp1753:
	.loc	22 2051 18 is_stmt 1
	movq	$2, -376(%rbp)
Ltmp1754:
	.loc	22 2051 25 is_stmt 0
	movq	%rbx, -288(%rbp)
Ltmp1755:
	.loc	22 2303 26 is_stmt 1
	cmpq	$2, %rbx
	.loc	22 2303 9 is_stmt 0
	je	LBB63_6
Ltmp1756:
	.loc	22 2309 25 is_stmt 1
	cmpb	$-65, 2(%r14)
Ltmp1757:
	.loc	22 2021 13
	jle	LBB63_51
Ltmp1758:
LBB63_6:
	.loc	20 158 9
	leaq	2(%r14), %rsi
Ltmp1759:
	.loc	22 2040 23
	leaq	-2(%rbx), %rdx
Ltmp1760:
	.loc	22 0 23 is_stmt 0
	leaq	-232(%rbp), %rdi
Ltmp1761:
	.loc	39 336 17 is_stmt 1
	movl	%r13d, %ecx
	callq	__ZN11proc_macro25Ident3new17h07294457c5ee078bE
Ltmp1762:
Ltmp1706:
	.loc	39 0 17 is_stmt 0
	leaq	-376(%rbp), %rdi
Ltmp1763:
	.loc	22 4280 9 is_stmt 1
	movq	%r14, %rsi
	movq	%rbx, %rdx
	callq	__ZN63_$LT$proc_macro2..TokenStream$u20$as$u20$core..str..FromStr$GT$8from_str17h5bd24017fd43259cE
Ltmp1707:
Ltmp1764:
	.loc	39 349 9
	cmpb	$1, -376(%rbp)
	je	LBB63_49
Ltmp1765:
	.loc	39 350 28
	movq	-336(%rbp), %rax
	movq	%rax, -160(%rbp)
	movq	-344(%rbp), %rax
	movq	%rax, -168(%rbp)
	movq	-352(%rbp), %rax
	movq	%rax, -176(%rbp)
	movq	-368(%rbp), %rax
	movq	-360(%rbp), %rcx
	movq	%rcx, -184(%rbp)
	movq	%rax, -192(%rbp)
Ltmp1709:
	leaq	-328(%rbp), %rdi
	leaq	-192(%rbp), %rsi
	callq	__ZN11proc_macro212token_stream96_$LT$impl$u20$core..iter..traits..collect..IntoIterator$u20$for$u20$proc_macro2..TokenStream$GT$9into_iter17h39edc99fa73d976fE
Ltmp1710:
Ltmp1766:
Ltmp1711:
	.loc	39 0 28 is_stmt 0
	leaq	-288(%rbp), %r12
	leaq	-328(%rbp), %rsi
Ltmp1767:
	.loc	39 351 20 is_stmt 1
	movq	%r12, %rdi
	callq	__ZN94_$LT$proc_macro2..token_stream..IntoIter$u20$as$u20$core..iter..traits..iterator..Iterator$GT$4next17h172cabbd9f84ec1eE
Ltmp1712:
Ltmp1768:
Ltmp1714:
	.loc	39 0 20 is_stmt 0
	leaq	-96(%rbp), %rdi
	leaq	-328(%rbp), %rsi
	.loc	39 351 33
	callq	__ZN94_$LT$proc_macro2..token_stream..IntoIter$u20$as$u20$core..iter..traits..iterator..Iterator$GT$4next17h172cabbd9f84ec1eE
Ltmp1715:
Ltmp1769:
	.loc	39 351 19
	movq	-248(%rbp), %rax
	movq	%rax, -152(%rbp)
	movq	-256(%rbp), %rax
	movq	%rax, -160(%rbp)
	movq	-264(%rbp), %rax
	movq	%rax, -168(%rbp)
	movq	-272(%rbp), %rax
	movq	%rax, -176(%rbp)
	movq	-288(%rbp), %rax
	movq	-280(%rbp), %rcx
	movq	%rcx, -184(%rbp)
	movq	%rax, -192(%rbp)
	leaq	-144(%rbp), %r14
Ltmp1770:
	movq	-96(%rbp), %rax
	movq	-88(%rbp), %rcx
	movq	%rax, -144(%rbp)
	movq	%rcx, -136(%rbp)
	movq	-80(%rbp), %rax
	movq	%rax, -128(%rbp)
	movq	-72(%rbp), %rax
	movq	%rax, -120(%rbp)
	movq	-64(%rbp), %rax
	movq	%rax, -112(%rbp)
	movq	-56(%rbp), %rax
	movq	%rax, -104(%rbp)
	.loc	39 352 18 is_stmt 1
	movl	-192(%rbp), %eax
	cmpl	$4, %eax
	je	LBB63_48
Ltmp1771:
	.loc	39 352 23 is_stmt 0
	cmpl	$1, %eax
	.loc	39 352 50
	jne	LBB63_48
Ltmp1772:
	cmpl	$4, -144(%rbp)
	jne	LBB63_48
Ltmp1773:
	.loc	39 352 40
	movq	-152(%rbp), %rax
	movq	%rax, -64(%rbp)
	movq	-160(%rbp), %rax
	movq	%rax, -72(%rbp)
	movq	-168(%rbp), %rax
	movq	%rax, -80(%rbp)
	movq	-184(%rbp), %rax
	movq	-176(%rbp), %rcx
	movq	%rcx, -88(%rbp)
	movq	%rax, -96(%rbp)
Ltmp1717:
	leaq	-96(%rbp), %rdi
Ltmp1774:
	.loc	39 353 21 is_stmt 1
	movl	%r13d, %esi
	callq	__ZN11proc_macro25Ident8set_span17h46cb371cf8d60f0aE
Ltmp1718:
Ltmp1775:
	.loc	39 354 21
	movq	-64(%rbp), %rax
	movq	%rax, 32(%r15)
	movq	-72(%rbp), %rax
	movq	%rax, 24(%r15)
	movq	-80(%rbp), %rax
	movq	%rax, 16(%r15)
	movq	-96(%rbp), %rax
	movq	-88(%rbp), %rcx
	movq	%rcx, 8(%r15)
	movq	%rax, (%r15)
Ltmp1776:
	.loc	7 178 1
	cmpl	$0, -328(%rbp)
	je	LBB63_27
Ltmp1777:
	leaq	-320(%rbp), %rdi
Ltmp1720:
	callq	__ZN4core3ptr13drop_in_place17h87f3f478f0fd1cb1E
Ltmp1721:
Ltmp1778:
LBB63_17:
	.loc	39 358 9
	movl	-192(%rbp), %eax
	cmpq	$1, %rax
	je	LBB63_19
Ltmp1779:
	cmpl	$4, %eax
	jne	LBB63_28
Ltmp1780:
LBB63_19:
	.loc	7 178 1
	movl	-144(%rbp), %eax
	cmpq	$4, %rax
	jne	LBB63_37
Ltmp1781:
LBB63_20:
	.loc	7 178 1 is_stmt 0
	cmpl	$0, -232(%rbp)
	je	LBB63_26
Ltmp1782:
LBB63_21:
	.loc	7 178 1
	movq	-224(%rbp), %rdi
Ltmp1783:
	.loc	18 532 16 is_stmt 1
	testq	%rdi, %rdi
Ltmp1784:
	.loc	18 200 9
	je	LBB63_26
Ltmp1785:
	.loc	7 0 0 is_stmt 0
	movq	-216(%rbp), %rsi
Ltmp1786:
	.loc	18 200 9
	testq	%rsi, %rsi
	je	LBB63_26
Ltmp1787:
	.loc	19 102 5 is_stmt 1
	movl	$1, %edx
	callq	___rust_dealloc
Ltmp1788:
	.loc	19 0 5 is_stmt 0
	jmp	LBB63_26
Ltmp1789:
LBB63_24:
	.loc	12 232 5 is_stmt 1
	callq	__ZN11proc_macro24Span9call_site17h3202e3fbf4b552d9E
	movl	%eax, %r13d
Ltmp1790:
	.loc	28 1430 9
	cmpq	$2, %rbx
Ltmp1791:
	jae	LBB63_2
Ltmp1792:
LBB63_25:
	.loc	28 0 9 is_stmt 0
	leaq	-232(%rbp), %rdi
Ltmp1793:
	.loc	39 336 17 is_stmt 1
	movq	%r14, %rsi
	movq	%rbx, %rdx
	movl	%r13d, %ecx
	callq	__ZN11proc_macro25Ident3new17h07294457c5ee078bE
Ltmp1794:
	.loc	39 338 16
	movq	-200(%rbp), %rax
Ltmp1795:
	movq	%rax, 32(%r15)
	movq	-208(%rbp), %rax
	movq	%rax, 24(%r15)
	movq	-216(%rbp), %rax
	movq	%rax, 16(%r15)
	movq	-232(%rbp), %rax
	movq	-224(%rbp), %rcx
	movq	%rcx, 8(%r15)
	movq	%rax, (%r15)
Ltmp1796:
LBB63_26:
	.loc	39 361 2
	movq	%r15, %rax
	addq	$344, %rsp
	popq	%rbx
Ltmp1797:
	popq	%r12
	popq	%r13
	popq	%r14
	popq	%r15
	popq	%rbp
	retq
LBB63_27:
Ltmp1798:
	.loc	7 178 1
	leaq	-324(%rbp), %rdi
Ltmp1799:
Ltmp1722:
	.loc	7 178 1 is_stmt 0
	callq	__ZN85_$LT$proc_macro..bridge..client..TokenStreamIter$u20$as$u20$core..ops..drop..Drop$GT$4drop17h895c7a3fc27312aaE
Ltmp1800:
Ltmp1723:
	jmp	LBB63_17
Ltmp1801:
LBB63_28:
	.loc	7 178 1
	cmpq	$2, %rax
	je	LBB63_19
Ltmp1802:
	cmpq	$1, %rax
	je	LBB63_32
Ltmp1803:
	testq	%rax, %rax
	jne	LBB63_33
Ltmp1804:
	.loc	39 0 0
	leaq	-184(%rbp), %rdi
Ltmp1805:
Ltmp1725:
	.loc	7 178 1
	callq	__ZN4core3ptr13drop_in_place17hf67d0a0d9909d0e0E
Ltmp1806:
Ltmp1726:
	jmp	LBB63_19
Ltmp1807:
LBB63_32:
	.loc	7 178 1
	cmpl	$0, -184(%rbp)
	jne	LBB63_34
	jmp	LBB63_19
Ltmp1808:
LBB63_33:
	.loc	7 178 1
	cmpl	$0, -184(%rbp)
	je	LBB63_47
Ltmp1809:
LBB63_34:
	.loc	7 0 0
	movq	-176(%rbp), %rdi
Ltmp1810:
	testq	%rdi, %rdi
	je	LBB63_19
Ltmp1811:
	movq	-168(%rbp), %rsi
Ltmp1812:
	testq	%rsi, %rsi
	je	LBB63_19
Ltmp1813:
	movl	$1, %edx
	callq	___rust_dealloc
Ltmp1814:
	.loc	7 178 1
	movl	-144(%rbp), %eax
	cmpq	$4, %rax
	je	LBB63_20
Ltmp1815:
LBB63_37:
	.loc	7 178 1
	cmpq	$2, %rax
	je	LBB63_20
Ltmp1816:
	cmpq	$1, %rax
	je	LBB63_41
Ltmp1817:
	testq	%rax, %rax
	jne	LBB63_42
Ltmp1818:
	leaq	-136(%rbp), %rdi
Ltmp1730:
	callq	__ZN4core3ptr13drop_in_place17hf67d0a0d9909d0e0E
Ltmp1731:
	jmp	LBB63_20
Ltmp1819:
LBB63_41:
	.loc	7 178 1
	cmpl	$0, -136(%rbp)
	jne	LBB63_43
	jmp	LBB63_20
Ltmp1820:
LBB63_42:
	.loc	7 178 1
	cmpl	$0, -136(%rbp)
	je	LBB63_46
Ltmp1821:
LBB63_43:
	.loc	7 0 0
	movq	-128(%rbp), %rdi
Ltmp1822:
	testq	%rdi, %rdi
	je	LBB63_20
Ltmp1823:
	movq	-120(%rbp), %rsi
Ltmp1824:
	testq	%rsi, %rsi
	je	LBB63_20
Ltmp1825:
	movl	$1, %edx
	callq	___rust_dealloc
Ltmp1826:
	.loc	7 178 1
	cmpl	$0, -232(%rbp)
	jne	LBB63_21
	jmp	LBB63_26
Ltmp1827:
LBB63_46:
	.loc	7 178 1
	leaq	-132(%rbp), %rdi
Ltmp1828:
Ltmp1732:
	.loc	7 178 1
	callq	__ZN77_$LT$proc_macro..bridge..client..Literal$u20$as$u20$core..ops..drop..Drop$GT$4drop17he2aea19d6a82f53dE
Ltmp1829:
Ltmp1733:
	jmp	LBB63_20
Ltmp1830:
LBB63_47:
	.loc	7 178 1
	leaq	-180(%rbp), %rdi
Ltmp1831:
Ltmp1727:
	.loc	7 178 1
	callq	__ZN77_$LT$proc_macro..bridge..client..Literal$u20$as$u20$core..ops..drop..Drop$GT$4drop17he2aea19d6a82f53dE
Ltmp1832:
Ltmp1728:
	jmp	LBB63_19
Ltmp1833:
LBB63_48:
	.loc	39 356 22 is_stmt 1
	leaq	__ZN44_$LT$$RF$T$u20$as$u20$core..fmt..Display$GT$3fmt17h4298077c84063d54E(%rip), %rax
	movq	%rax, %xmm0
	leaq	l___unnamed_16(%rip), %rax
	movq	%rax, %xmm1
	punpcklqdq	%xmm0, %xmm1
	movdqa	%xmm1, -288(%rbp)
Ltmp1834:
	.loc	15 328 9
	leaq	l___unnamed_17(%rip), %rax
Ltmp1835:
	movq	%rax, -96(%rbp)
	movq	$1, -88(%rbp)
	movq	$0, -80(%rbp)
	movq	%r12, -64(%rbp)
	movq	$1, -56(%rbp)
Ltmp1836:
Ltmp1734:
	.loc	39 356 22
	leaq	l___unnamed_18(%rip), %rsi
	leaq	-96(%rbp), %rdi
	callq	__ZN3std9panicking15begin_panic_fmt17h2e6dba6f5c07d155E
Ltmp1837:
Ltmp1735:
	.loc	39 0 22 is_stmt 0
	jmp	LBB63_50
Ltmp1838:
LBB63_49:
	.loc	39 359 19 is_stmt 1
	leaq	__ZN44_$LT$$RF$T$u20$as$u20$core..fmt..Display$GT$3fmt17h4298077c84063d54E(%rip), %rax
	movq	%rax, %xmm0
	leaq	l___unnamed_16(%rip), %rax
	movq	%rax, %xmm1
	punpcklqdq	%xmm0, %xmm1
	movdqa	%xmm1, -96(%rbp)
Ltmp1839:
	.loc	15 328 9
	leaq	l___unnamed_17(%rip), %rax
Ltmp1840:
	movq	%rax, -192(%rbp)
	movq	$1, -184(%rbp)
	movq	$0, -176(%rbp)
	leaq	-96(%rbp), %rax
Ltmp1841:
	movq	%rax, -160(%rbp)
	movq	$1, -152(%rbp)
Ltmp1842:
Ltmp1737:
	.loc	39 359 19
	leaq	l___unnamed_19(%rip), %rsi
	leaq	-192(%rbp), %rdi
	callq	__ZN3std9panicking15begin_panic_fmt17h2e6dba6f5c07d155E
Ltmp1738:
Ltmp1843:
LBB63_50:
	.loc	39 0 19 is_stmt 0
	ud2
Ltmp1844:
LBB63_51:
	leaq	-96(%rbp), %rax
Ltmp1845:
	.loc	4 430 21 is_stmt 1
	movq	%rax, -192(%rbp)
	leaq	-376(%rbp), %rax
	movq	%rax, -184(%rbp)
	leaq	-288(%rbp), %rax
	movq	%rax, -176(%rbp)
	leaq	-192(%rbp), %rdi
	callq	__ZN4core3str6traits105_$LT$impl$u20$core..slice..SliceIndex$LT$str$GT$$u20$for$u20$core..ops..range..RangeFrom$LT$usize$GT$$GT$5index28_$u7b$$u7b$closure$u7d$$u7d$17h248fbbad5db82c78E
Ltmp1846:
LBB63_52:
Ltmp1736:
	.loc	4 0 21 is_stmt 0
	movq	%rax, %rbx
Ltmp1847:
	movb	$1, %r15b
	jmp	LBB63_56
Ltmp1848:
LBB63_53:
Ltmp1729:
	movq	%rax, %rbx
Ltmp1849:
	jmp	LBB63_61
Ltmp1850:
LBB63_54:
Ltmp1724:
	movq	%rax, %rbx
Ltmp1851:
	xorl	%r15d, %r15d
Ltmp1852:
	.loc	39 358 9 is_stmt 1
	movl	-192(%rbp), %eax
	cmpl	$1, %eax
	jne	LBB63_57
Ltmp1853:
LBB63_59:
	testb	%r15b, %r15b
	je	LBB63_61
Ltmp1854:
	leaq	-184(%rbp), %rdi
	callq	__ZN4core3ptr13drop_in_place17hf07c7e48a8298f97E
	jmp	LBB63_61
Ltmp1855:
LBB63_55:
Ltmp1719:
	.loc	39 0 9 is_stmt 0
	movq	%rax, %rbx
Ltmp1856:
	leaq	-96(%rbp), %rdi
Ltmp1857:
	.loc	39 356 17 is_stmt 1
	callq	__ZN4core3ptr13drop_in_place17hf07c7e48a8298f97E
	xorl	%r15d, %r15d
Ltmp1858:
LBB63_56:
	.loc	39 0 17 is_stmt 0
	leaq	-328(%rbp), %rdi
	.loc	39 358 9 is_stmt 1
	callq	__ZN4core3ptr13drop_in_place17h9abfa900301d59b5E
	movl	-192(%rbp), %eax
	cmpl	$1, %eax
	je	LBB63_59
Ltmp1859:
LBB63_57:
	cmpl	$4, %eax
	je	LBB63_61
Ltmp1860:
	.loc	39 0 9 is_stmt 0
	leaq	-192(%rbp), %rdi
	.loc	39 358 9
	callq	__ZN4core3ptr13drop_in_place17hafd39e94c924e549E
Ltmp1861:
LBB63_61:
	movq	%r14, %rdi
	callq	__ZN4core3ptr13drop_in_place17h445a45255b1e6c44E
	jmp	LBB63_68
Ltmp1862:
LBB63_62:
Ltmp1716:
	.loc	39 0 9
	movq	%rax, %rbx
Ltmp1863:
	leaq	-288(%rbp), %rdi
Ltmp1864:
	.loc	39 351 44 is_stmt 1
	callq	__ZN4core3ptr13drop_in_place17h445a45255b1e6c44E
	jmp	LBB63_64
Ltmp1865:
LBB63_63:
Ltmp1713:
	.loc	39 0 44 is_stmt 0
	movq	%rax, %rbx
Ltmp1866:
LBB63_64:
	leaq	-328(%rbp), %rdi
	.loc	39 358 9 is_stmt 1
	callq	__ZN4core3ptr13drop_in_place17h9abfa900301d59b5E
	jmp	LBB63_68
Ltmp1867:
LBB63_65:
Ltmp1708:
	.loc	39 0 9 is_stmt 0
	jmp	LBB63_67
Ltmp1868:
LBB63_66:
Ltmp1739:
LBB63_67:
	movq	%rax, %rbx
Ltmp1869:
LBB63_68:
	leaq	-232(%rbp), %rdi
	.loc	39 361 1 is_stmt 1
	callq	__ZN4core3ptr13drop_in_place17hf07c7e48a8298f97E
	movq	%rbx, %rdi
	callq	__Unwind_Resume
	ud2
Ltmp1870:
Lfunc_end63:
	.cfi_endproc
	.section	__TEXT,__gcc_except_tab
	.p2align	2
GCC_except_table63:
Lexception18:
	.byte	255
	.byte	255
	.byte	1
	.uleb128 Lcst_end18-Lcst_begin18
Lcst_begin18:
	.uleb128 Lfunc_begin63-Lfunc_begin63
	.uleb128 Ltmp1706-Lfunc_begin63
	.byte	0
	.byte	0
	.uleb128 Ltmp1706-Lfunc_begin63
	.uleb128 Ltmp1707-Ltmp1706
	.uleb128 Ltmp1708-Lfunc_begin63
	.byte	0
	.uleb128 Ltmp1709-Lfunc_begin63
	.uleb128 Ltmp1710-Ltmp1709
	.uleb128 Ltmp1739-Lfunc_begin63
	.byte	0
	.uleb128 Ltmp1711-Lfunc_begin63
	.uleb128 Ltmp1712-Ltmp1711
	.uleb128 Ltmp1713-Lfunc_begin63
	.byte	0
	.uleb128 Ltmp1714-Lfunc_begin63
	.uleb128 Ltmp1715-Ltmp1714
	.uleb128 Ltmp1716-Lfunc_begin63
	.byte	0
	.uleb128 Ltmp1717-Lfunc_begin63
	.uleb128 Ltmp1718-Ltmp1717
	.uleb128 Ltmp1719-Lfunc_begin63
	.byte	0
	.uleb128 Ltmp1720-Lfunc_begin63
	.uleb128 Ltmp1721-Ltmp1720
	.uleb128 Ltmp1724-Lfunc_begin63
	.byte	0
	.uleb128 Ltmp1721-Lfunc_begin63
	.uleb128 Ltmp1722-Ltmp1721
	.byte	0
	.byte	0
	.uleb128 Ltmp1722-Lfunc_begin63
	.uleb128 Ltmp1723-Ltmp1722
	.uleb128 Ltmp1724-Lfunc_begin63
	.byte	0
	.uleb128 Ltmp1725-Lfunc_begin63
	.uleb128 Ltmp1726-Ltmp1725
	.uleb128 Ltmp1729-Lfunc_begin63
	.byte	0
	.uleb128 Ltmp1730-Lfunc_begin63
	.uleb128 Ltmp1733-Ltmp1730
	.uleb128 Ltmp1739-Lfunc_begin63
	.byte	0
	.uleb128 Ltmp1727-Lfunc_begin63
	.uleb128 Ltmp1728-Ltmp1727
	.uleb128 Ltmp1729-Lfunc_begin63
	.byte	0
	.uleb128 Ltmp1734-Lfunc_begin63
	.uleb128 Ltmp1735-Ltmp1734
	.uleb128 Ltmp1736-Lfunc_begin63
	.byte	0
	.uleb128 Ltmp1737-Lfunc_begin63
	.uleb128 Ltmp1738-Ltmp1737
	.uleb128 Ltmp1739-Lfunc_begin63
	.byte	0
	.uleb128 Ltmp1738-Lfunc_begin63
	.uleb128 Lfunc_end63-Ltmp1738
	.byte	0
	.byte	0
Lcst_end18:
	.p2align	2

	.section	__TEXT,__text,regular,pure_instructions
	.globl	__ZN61_$LT$proc_macro2..Span$u20$as$u20$quote..spanned..Spanned$GT$6__span17h6dc8eaaf578371c0E
	.p2align	4, 0x90
__ZN61_$LT$proc_macro2..Span$u20$as$u20$quote..spanned..Spanned$GT$6__span17h6dc8eaaf578371c0E:
Lfunc_begin64:
	.file	40 "/Users/yingyuhang/.cargo/registry/src/github.com-1ecc6299db9ec823/quote-1.0.7/src/spanned.rs"
	.loc	40 9 0
	.cfi_startproc
	pushq	%rbp
	.cfi_def_cfa_offset 16
	.cfi_offset %rbp, -16
	movq	%rsp, %rbp
	.cfi_def_cfa_register %rbp
Ltmp1871:
	.loc	40 10 9 prologue_end
	movl	(%rdi), %eax
	.loc	40 11 6
	popq	%rbp
	retq
Ltmp1872:
Lfunc_end64:
	.cfi_endproc

	.globl	__ZN5quote7spanned10join_spans17h23ad6a7cee49a53cE
	.p2align	4, 0x90
__ZN5quote7spanned10join_spans17h23ad6a7cee49a53cE:
Lfunc_begin65:
	.loc	40 20 0
	.cfi_startproc
	.cfi_personality 155, _rust_eh_personality
	.cfi_lsda 16, Lexception19
	pushq	%rbp
	.cfi_def_cfa_offset 16
	.cfi_offset %rbp, -16
	movq	%rsp, %rbp
	.cfi_def_cfa_register %rbp
Ltmp1888:
	pushq	%r15
	pushq	%r14
	pushq	%r13
	pushq	%r12
	pushq	%rbx
	subq	$184, %rsp
	.cfi_offset %rbx, -56
	.cfi_offset %r12, -48
	.cfi_offset %r13, -40
	.cfi_offset %r14, -32
	.cfi_offset %r15, -24
	.loc	40 21 20 prologue_end
	movq	32(%rdi), %rax
	movq	%rax, -64(%rbp)
	movq	24(%rdi), %rax
	movq	%rax, -72(%rbp)
	movq	16(%rdi), %rax
	movq	%rax, -80(%rbp)
	movq	(%rdi), %rax
	movq	8(%rdi), %rcx
	movq	%rcx, -88(%rbp)
	movq	%rax, -96(%rbp)
	leaq	-184(%rbp), %r15
	leaq	-96(%rbp), %r14
	movq	%r15, %rdi
Ltmp1889:
	movq	%r14, %rsi
	callq	__ZN11proc_macro212token_stream96_$LT$impl$u20$core..iter..traits..collect..IntoIterator$u20$for$u20$proc_macro2..TokenStream$GT$9into_iter17h39edc99fa73d976fE
Ltmp1890:
	.loc	40 0 20 is_stmt 0
	leaq	-144(%rbp), %rbx
Ltmp1891:
	.p2align	4, 0x90
LBB65_1:
Ltmp1873:
	.loc	3 1877 29 is_stmt 1
	movq	%rbx, %rdi
	movq	%r15, %rsi
	callq	__ZN94_$LT$proc_macro2..token_stream..IntoIter$u20$as$u20$core..iter..traits..iterator..Iterator$GT$4next17h172cabbd9f84ec1eE
Ltmp1874:
Ltmp1892:
	.loc	3 1877 19 is_stmt 0
	cmpl	$4, -144(%rbp)
	je	LBB65_21
Ltmp1893:
	.loc	12 274 30 is_stmt 1
	movq	-104(%rbp), %rax
	movq	%rax, -56(%rbp)
	movq	-112(%rbp), %rax
	movq	%rax, -64(%rbp)
	movq	-120(%rbp), %rax
	movq	%rax, -72(%rbp)
	movq	-128(%rbp), %rax
	movq	%rax, -80(%rbp)
	movq	-144(%rbp), %rax
	movq	-136(%rbp), %rcx
	movq	%rcx, -88(%rbp)
	movq	%rax, -96(%rbp)
Ltmp1876:
	.loc	12 274 13 is_stmt 0
	movq	%r14, %rdi
	callq	__ZN5quote7spanned10join_spans28_$u7b$$u7b$closure$u7d$$u7d$17hd16e8a392d391910E
Ltmp1877:
Ltmp1894:
	.loc	3 2240 17 is_stmt 1
	testl	%eax, %eax
Ltmp1895:
	.loc	3 1878 32
	je	LBB65_1
Ltmp1896:
	.loc	40 34 23
	shrq	$32, %rax
Ltmp1897:
	.loc	40 35 23
	movl	%eax, -48(%rbp)
Ltmp1898:
	.loc	10 1107 9
	movq	-152(%rbp), %rax
Ltmp1899:
	movq	%rax, -192(%rbp)
	movq	-160(%rbp), %rax
	movq	%rax, -200(%rbp)
	movq	-168(%rbp), %rax
	movq	%rax, -208(%rbp)
	movq	-184(%rbp), %rax
	movq	-176(%rbp), %rcx
	movq	%rcx, -216(%rbp)
	movq	%rax, -224(%rbp)
	xorl	%ebx, %ebx
Ltmp1900:
	.loc	10 0 9 is_stmt 0
	leaq	-144(%rbp), %r14
	leaq	-224(%rbp), %r15
	leaq	-96(%rbp), %r12
	movabsq	$-4294967296, %r13
Ltmp1901:
	.p2align	4, 0x90
LBB65_6:
Ltmp1879:
	.loc	3 1877 29 is_stmt 1
	movq	%r14, %rdi
	movq	%r15, %rsi
	callq	__ZN94_$LT$proc_macro2..token_stream..IntoIter$u20$as$u20$core..iter..traits..iterator..Iterator$GT$4next17h172cabbd9f84ec1eE
Ltmp1880:
Ltmp1902:
	.loc	3 1877 19 is_stmt 0
	cmpl	$4, -144(%rbp)
	je	LBB65_14
Ltmp1903:
	.loc	10 1058 30 is_stmt 1
	movq	-104(%rbp), %rax
	movq	%rax, -56(%rbp)
	movq	-112(%rbp), %rax
	movq	%rax, -64(%rbp)
	movq	-120(%rbp), %rax
	movq	%rax, -72(%rbp)
	movq	-128(%rbp), %rax
	movq	%rax, -80(%rbp)
	movq	-144(%rbp), %rax
	movq	-136(%rbp), %rcx
	movq	%rcx, -88(%rbp)
	movq	%rax, -96(%rbp)
Ltmp1882:
	.loc	10 1058 28 is_stmt 0
	movq	%r12, %rdi
	callq	__ZN5quote7spanned10join_spans28_$u7b$$u7b$closure$u7d$$u7d$17hd16e8a392d391910E
Ltmp1883:
Ltmp1904:
	.loc	10 1059 9 is_stmt 1
	movq	%rax, %rcx
	andq	%r13, %rcx
	orq	$1, %rcx
	testl	%eax, %eax
	cmovneq	%rcx, %rbx
Ltmp1905:
	.loc	10 0 9 is_stmt 0
	jmp	LBB65_6
Ltmp1906:
LBB65_21:
Ltmp1885:
	.loc	40 36 24 is_stmt 1
	callq	__ZN11proc_macro24Span9call_site17h3202e3fbf4b552d9E
Ltmp1886:
Ltmp1907:
	.loc	40 0 0 is_stmt 0
	movl	%eax, %ebx
Ltmp1908:
	.loc	7 178 1 is_stmt 1
	cmpl	$0, -184(%rbp)
	je	LBB65_23
Ltmp1909:
	leaq	-176(%rbp), %rdi
	callq	__ZN4core3ptr13drop_in_place17h87f3f478f0fd1cb1E
	jmp	LBB65_25
Ltmp1910:
LBB65_14:
	.loc	7 178 1 is_stmt 0
	cmpl	$0, -224(%rbp)
	je	LBB65_15
Ltmp1911:
	leaq	-216(%rbp), %rdi
	callq	__ZN4core3ptr13drop_in_place17h87f3f478f0fd1cb1E
Ltmp1912:
	.loc	4 672 13 is_stmt 1
	testl	%ebx, %ebx
	jne	LBB65_18
	jmp	LBB65_20
Ltmp1913:
LBB65_23:
	.loc	7 178 1
	leaq	-180(%rbp), %rdi
Ltmp1914:
	.loc	7 178 1 is_stmt 0
	callq	__ZN85_$LT$proc_macro..bridge..client..TokenStreamIter$u20$as$u20$core..ops..drop..Drop$GT$4drop17h895c7a3fc27312aaE
Ltmp1915:
	.loc	7 0 1
	jmp	LBB65_25
Ltmp1916:
LBB65_15:
	.loc	7 178 1
	leaq	-220(%rbp), %rdi
Ltmp1917:
	.loc	7 178 1
	callq	__ZN85_$LT$proc_macro..bridge..client..TokenStreamIter$u20$as$u20$core..ops..drop..Drop$GT$4drop17h895c7a3fc27312aaE
Ltmp1918:
	.loc	4 672 13 is_stmt 1
	testl	%ebx, %ebx
	je	LBB65_20
Ltmp1919:
LBB65_18:
	.loc	4 0 13 is_stmt 0
	shrq	$32, %rbx
Ltmp1920:
	leaq	-48(%rbp), %rdi
Ltmp1921:
	.loc	40 40 26 is_stmt 1
	movl	%ebx, %esi
	callq	__ZN11proc_macro24Span4join17h8b13e9bba1e2bbf8E
	movq	%rax, %rbx
Ltmp1922:
	.loc	4 675 5
	testl	%ebx, %ebx
Ltmp1923:
	.loc	4 411 13
	je	LBB65_20
Ltmp1924:
	.loc	4 0 13 is_stmt 0
	shrq	$32, %rbx
	jmp	LBB65_25
Ltmp1925:
LBB65_20:
	.loc	40 41 20 is_stmt 1
	movl	-48(%rbp), %ebx
Ltmp1926:
LBB65_25:
	.loc	40 42 2
	movl	%ebx, %eax
	addq	$184, %rsp
	popq	%rbx
	popq	%r12
	popq	%r13
	popq	%r14
	popq	%r15
	popq	%rbp
	retq
LBB65_28:
Ltmp1927:
Ltmp1887:
	.loc	40 0 2 is_stmt 0
	jmp	LBB65_27
Ltmp1928:
LBB65_13:
Ltmp1884:
	jmp	LBB65_11
Ltmp1929:
LBB65_10:
Ltmp1881:
LBB65_11:
	movq	%rax, %rbx
Ltmp1930:
	leaq	-224(%rbp), %rdi
Ltmp1931:
	.loc	3 2006 5 is_stmt 1
	callq	__ZN4core3ptr13drop_in_place17h9abfa900301d59b5E
	movq	%rbx, %rdi
	callq	__Unwind_Resume
	ud2
Ltmp1932:
LBB65_29:
Ltmp1878:
	.loc	3 0 5 is_stmt 0
	jmp	LBB65_27
Ltmp1933:
LBB65_26:
Ltmp1875:
LBB65_27:
	movq	%rax, %rbx
	leaq	-184(%rbp), %rdi
	.loc	40 42 1 is_stmt 1
	callq	__ZN4core3ptr13drop_in_place17h778b6eb1653668eeE
	movq	%rbx, %rdi
	callq	__Unwind_Resume
	ud2
Ltmp1934:
Lfunc_end65:
	.cfi_endproc
	.section	__TEXT,__gcc_except_tab
	.p2align	2
GCC_except_table65:
Lexception19:
	.byte	255
	.byte	255
	.byte	1
	.uleb128 Lcst_end19-Lcst_begin19
Lcst_begin19:
	.uleb128 Lfunc_begin65-Lfunc_begin65
	.uleb128 Ltmp1873-Lfunc_begin65
	.byte	0
	.byte	0
	.uleb128 Ltmp1873-Lfunc_begin65
	.uleb128 Ltmp1874-Ltmp1873
	.uleb128 Ltmp1875-Lfunc_begin65
	.byte	0
	.uleb128 Ltmp1876-Lfunc_begin65
	.uleb128 Ltmp1877-Ltmp1876
	.uleb128 Ltmp1878-Lfunc_begin65
	.byte	0
	.uleb128 Ltmp1879-Lfunc_begin65
	.uleb128 Ltmp1880-Ltmp1879
	.uleb128 Ltmp1881-Lfunc_begin65
	.byte	0
	.uleb128 Ltmp1882-Lfunc_begin65
	.uleb128 Ltmp1883-Ltmp1882
	.uleb128 Ltmp1884-Lfunc_begin65
	.byte	0
	.uleb128 Ltmp1885-Lfunc_begin65
	.uleb128 Ltmp1886-Ltmp1885
	.uleb128 Ltmp1887-Lfunc_begin65
	.byte	0
	.uleb128 Ltmp1886-Lfunc_begin65
	.uleb128 Lfunc_end65-Ltmp1886
	.byte	0
	.byte	0
Lcst_end19:
	.p2align	2

	.section	__TEXT,__text,regular,pure_instructions
	.p2align	4, 0x90
__ZN5quote7spanned10join_spans28_$u7b$$u7b$closure$u7d$$u7d$17hd16e8a392d391910E:
Lfunc_begin66:
	.loc	40 21 0
	.cfi_startproc
	.cfi_personality 155, _rust_eh_personality
	.cfi_lsda 16, Lexception20
	pushq	%rbp
	.cfi_def_cfa_offset 16
	.cfi_offset %rbp, -16
	movq	%rsp, %rbp
	.cfi_def_cfa_register %rbp
	pushq	%r15
	pushq	%r14
	pushq	%rbx
	subq	$104, %rsp
	.cfi_offset %rbx, -40
	.cfi_offset %r14, -32
	.cfi_offset %r15, -24
	movq	%rdi, %r14
Ltmp1940:
Ltmp1935:
	.loc	40 25 20 prologue_end
	callq	__ZN11proc_macro29TokenTree4span17h47a9f2199680ae8bE
Ltmp1936:
Ltmp1941:
	movl	%eax, -32(%rbp)
	leaq	-32(%rbp), %rax
Ltmp1942:
	.loc	40 26 21
	movq	%rax, -48(%rbp)
	movq	__ZN54_$LT$proc_macro2..Span$u20$as$u20$core..fmt..Debug$GT$3fmt17h842d8d0e78453af7E@GOTPCREL(%rip), %rax
	movq	%rax, -40(%rbp)
Ltmp1943:
	.loc	15 328 9
	leaq	l___unnamed_5(%rip), %rax
Ltmp1944:
	movq	%rax, -120(%rbp)
	movq	$1, -112(%rbp)
	movq	$0, -104(%rbp)
	leaq	-48(%rbp), %rax
Ltmp1945:
	movq	%rax, -88(%rbp)
	movq	$1, -80(%rbp)
Ltmp1937:
	leaq	-72(%rbp), %rdi
	leaq	-120(%rbp), %rsi
Ltmp1946:
	.loc	40 26 21
	callq	__ZN5alloc3fmt6format17hef4b691705b449e4E
Ltmp1938:
Ltmp1947:
	.loc	40 26 21 is_stmt 0
	movq	-72(%rbp), %rdi
Ltmp1948:
	movq	-64(%rbp), %rsi
Ltmp1949:
	movq	-56(%rbp), %rax
Ltmp1950:
	.loc	28 1459 9 is_stmt 1
	cmpq	$11, %rax
	jb	LBB66_6
Ltmp1951:
	.loc	20 158 9
	leaq	-11(%rax,%rdi), %rax
Ltmp1952:
	.loc	28 5863 12
	leaq	l___unnamed_20(%rip), %rcx
	cmpq	%rcx, %rax
	.loc	28 5863 9 is_stmt 0
	je	LBB66_4
Ltmp1953:
	.loc	28 0 9
	movabsq	$3328204600715278690, %rcx
Ltmp1954:
	.loc	28 5868 13 is_stmt 1
	xorq	(%rax), %rcx
	movabsq	$2967922930348487525, %rdx
	xorq	3(%rax), %rdx
	orq	%rcx, %rdx
Ltmp1955:
	.loc	28 1459 9
	je	LBB66_4
Ltmp1956:
LBB66_6:
	.loc	40 27 9
	movl	-32(%rbp), %r15d
	shlq	$32, %r15
	movl	$1, %ebx
Ltmp1957:
	.loc	18 200 40
	testq	%rsi, %rsi
	.loc	18 200 9 is_stmt 0
	je	LBB66_9
Ltmp1958:
LBB66_8:
	.loc	19 102 5 is_stmt 1
	movl	$1, %edx
	callq	___rust_dealloc
Ltmp1959:
LBB66_9:
	.loc	7 178 1
	movl	(%r14), %eax
	cmpq	$2, %rax
	je	LBB66_19
Ltmp1960:
	cmpq	$1, %rax
	je	LBB66_13
Ltmp1961:
	testq	%rax, %rax
	jne	LBB66_17
Ltmp1962:
	addq	$8, %r14
Ltmp1963:
	movq	%r14, %rdi
	callq	__ZN4core3ptr13drop_in_place17hf67d0a0d9909d0e0E
	jmp	LBB66_19
Ltmp1964:
LBB66_4:
	.loc	7 0 1 is_stmt 0
	xorl	%r15d, %r15d
	xorl	%ebx, %ebx
Ltmp1965:
	.loc	18 200 40 is_stmt 1
	testq	%rsi, %rsi
	.loc	18 200 9 is_stmt 0
	jne	LBB66_8
	jmp	LBB66_9
Ltmp1966:
LBB66_13:
	.loc	7 178 1 is_stmt 1
	cmpl	$0, 8(%r14)
	jne	LBB66_14
	jmp	LBB66_19
Ltmp1967:
LBB66_17:
	.loc	7 178 1 is_stmt 0
	cmpl	$0, 8(%r14)
	je	LBB66_18
Ltmp1968:
LBB66_14:
	.loc	7 0 0
	movq	16(%r14), %rdi
Ltmp1969:
	testq	%rdi, %rdi
	je	LBB66_19
Ltmp1970:
	movq	24(%r14), %rsi
Ltmp1971:
	testq	%rsi, %rsi
	je	LBB66_19
Ltmp1972:
	movl	$1, %edx
	callq	___rust_dealloc
Ltmp1973:
	jmp	LBB66_19
Ltmp1974:
LBB66_18:
	.loc	7 178 1
	addq	$12, %r14
Ltmp1975:
	.loc	7 178 1
	movq	%r14, %rdi
	callq	__ZN77_$LT$proc_macro..bridge..client..Literal$u20$as$u20$core..ops..drop..Drop$GT$4drop17he2aea19d6a82f53dE
Ltmp1976:
LBB66_19:
	.loc	40 32 6 is_stmt 1
	orq	%r15, %rbx
	movq	%rbx, %rax
	addq	$104, %rsp
	popq	%rbx
	popq	%r14
	popq	%r15
	popq	%rbp
	retq
LBB66_20:
Ltmp1977:
Ltmp1939:
	.loc	40 0 6 is_stmt 0
	movq	%rax, %rbx
	.loc	40 32 5
	movq	%r14, %rdi
	callq	__ZN4core3ptr13drop_in_place17hafd39e94c924e549E
	movq	%rbx, %rdi
	callq	__Unwind_Resume
	ud2
Ltmp1978:
Lfunc_end66:
	.cfi_endproc
	.section	__TEXT,__gcc_except_tab
	.p2align	2
GCC_except_table66:
Lexception20:
	.byte	255
	.byte	255
	.byte	1
	.uleb128 Lcst_end20-Lcst_begin20
Lcst_begin20:
	.uleb128 Ltmp1935-Lfunc_begin66
	.uleb128 Ltmp1938-Ltmp1935
	.uleb128 Ltmp1939-Lfunc_begin66
	.byte	0
	.uleb128 Ltmp1938-Lfunc_begin66
	.uleb128 Lfunc_end66-Ltmp1938
	.byte	0
	.byte	0
Lcst_end20:
	.p2align	2

	.section	__TEXT,__text,regular,pure_instructions
	.globl	__ZN61_$LT$bool$u20$as$u20$quote..ident_fragment..IdentFragment$GT$3fmt17hc30e67c6f3eb1584E
	.p2align	4, 0x90
__ZN61_$LT$bool$u20$as$u20$quote..ident_fragment..IdentFragment$GT$3fmt17hc30e67c6f3eb1584E:
Lfunc_begin67:
	.loc	31 77 0 is_stmt 1
	.cfi_startproc
	pushq	%rbp
	.cfi_def_cfa_offset 16
	.cfi_offset %rbp, -16
	movq	%rsp, %rbp
	.cfi_def_cfa_register %rbp
Ltmp1979:
	.loc	31 78 21 prologue_end
	popq	%rbp
	jmp	__ZN43_$LT$bool$u20$as$u20$core..fmt..Display$GT$3fmt17hf36463fa8b480ab4E
Ltmp1980:
Lfunc_end67:
	.cfi_endproc

	.globl	__ZN60_$LT$str$u20$as$u20$quote..ident_fragment..IdentFragment$GT$3fmt17h706f1bdba99760ffE
	.p2align	4, 0x90
__ZN60_$LT$str$u20$as$u20$quote..ident_fragment..IdentFragment$GT$3fmt17h706f1bdba99760ffE:
Lfunc_begin68:
	.loc	31 77 0
	.cfi_startproc
	pushq	%rbp
	.cfi_def_cfa_offset 16
	.cfi_offset %rbp, -16
	movq	%rsp, %rbp
	.cfi_def_cfa_register %rbp
Ltmp1981:
	.loc	31 78 21 prologue_end
	popq	%rbp
	jmp	__ZN42_$LT$str$u20$as$u20$core..fmt..Display$GT$3fmt17hd4dee1c1c4ccf892E
Ltmp1982:
Lfunc_end68:
	.cfi_endproc

	.globl	__ZN78_$LT$alloc..string..String$u20$as$u20$quote..ident_fragment..IdentFragment$GT$3fmt17h2b788ecd6df4f8bdE
	.p2align	4, 0x90
__ZN78_$LT$alloc..string..String$u20$as$u20$quote..ident_fragment..IdentFragment$GT$3fmt17h2b788ecd6df4f8bdE:
Lfunc_begin69:
	.loc	31 77 0
	.cfi_startproc
	pushq	%rbp
	.cfi_def_cfa_offset 16
	.cfi_offset %rbp, -16
	movq	%rsp, %rbp
	.cfi_def_cfa_register %rbp
	movq	%rsi, %rdx
Ltmp1983:
	.loc	8 814 19 prologue_end
	movq	(%rdi), %rax
Ltmp1984:
	.loc	8 1966 55
	movq	16(%rdi), %rsi
Ltmp1985:
	.loc	27 1938 9
	movq	%rax, %rdi
Ltmp1986:
	popq	%rbp
	jmp	__ZN42_$LT$str$u20$as$u20$core..fmt..Display$GT$3fmt17hd4dee1c1c4ccf892E
Ltmp1987:
Lfunc_end69:
	.cfi_endproc

	.globl	__ZN61_$LT$char$u20$as$u20$quote..ident_fragment..IdentFragment$GT$3fmt17hd742637d768fa260E
	.p2align	4, 0x90
__ZN61_$LT$char$u20$as$u20$quote..ident_fragment..IdentFragment$GT$3fmt17hd742637d768fa260E:
Lfunc_begin70:
	.loc	31 77 0
	.cfi_startproc
	pushq	%rbp
	.cfi_def_cfa_offset 16
	.cfi_offset %rbp, -16
	movq	%rsp, %rbp
	.cfi_def_cfa_register %rbp
Ltmp1988:
	.loc	31 78 21 prologue_end
	popq	%rbp
	jmp	__ZN43_$LT$char$u20$as$u20$core..fmt..Display$GT$3fmt17h6751376c1412eca9E
Ltmp1989:
Lfunc_end70:
	.cfi_endproc

	.globl	__ZN59_$LT$u8$u20$as$u20$quote..ident_fragment..IdentFragment$GT$3fmt17h827806c0d4766025E
	.p2align	4, 0x90
__ZN59_$LT$u8$u20$as$u20$quote..ident_fragment..IdentFragment$GT$3fmt17h827806c0d4766025E:
Lfunc_begin71:
	.loc	31 77 0
	.cfi_startproc
	pushq	%rbp
	.cfi_def_cfa_offset 16
	.cfi_offset %rbp, -16
	movq	%rsp, %rbp
	.cfi_def_cfa_register %rbp
Ltmp1990:
	.loc	31 78 21 prologue_end
	popq	%rbp
	jmp	__ZN4core3fmt3num3imp51_$LT$impl$u20$core..fmt..Display$u20$for$u20$u8$GT$3fmt17h0e89df114e53d66dE
Ltmp1991:
Lfunc_end71:
	.cfi_endproc

	.globl	__ZN60_$LT$u16$u20$as$u20$quote..ident_fragment..IdentFragment$GT$3fmt17h61ac38ec55650e9aE
	.p2align	4, 0x90
__ZN60_$LT$u16$u20$as$u20$quote..ident_fragment..IdentFragment$GT$3fmt17h61ac38ec55650e9aE:
Lfunc_begin72:
	.loc	31 77 0
	.cfi_startproc
	pushq	%rbp
	.cfi_def_cfa_offset 16
	.cfi_offset %rbp, -16
	movq	%rsp, %rbp
	.cfi_def_cfa_register %rbp
Ltmp1992:
	.loc	31 78 21 prologue_end
	popq	%rbp
	jmp	__ZN4core3fmt3num3imp52_$LT$impl$u20$core..fmt..Display$u20$for$u20$u16$GT$3fmt17h7d9582ae70d300cbE
Ltmp1993:
Lfunc_end72:
	.cfi_endproc

	.globl	__ZN60_$LT$u32$u20$as$u20$quote..ident_fragment..IdentFragment$GT$3fmt17h642beec183e0ad36E
	.p2align	4, 0x90
__ZN60_$LT$u32$u20$as$u20$quote..ident_fragment..IdentFragment$GT$3fmt17h642beec183e0ad36E:
Lfunc_begin73:
	.loc	31 77 0
	.cfi_startproc
	pushq	%rbp
	.cfi_def_cfa_offset 16
	.cfi_offset %rbp, -16
	movq	%rsp, %rbp
	.cfi_def_cfa_register %rbp
Ltmp1994:
	.loc	31 78 21 prologue_end
	popq	%rbp
	jmp	__ZN4core3fmt3num3imp52_$LT$impl$u20$core..fmt..Display$u20$for$u20$u32$GT$3fmt17h8cb3163b2d7e102aE
Ltmp1995:
Lfunc_end73:
	.cfi_endproc

	.globl	__ZN60_$LT$u64$u20$as$u20$quote..ident_fragment..IdentFragment$GT$3fmt17hf0420df024751950E
	.p2align	4, 0x90
__ZN60_$LT$u64$u20$as$u20$quote..ident_fragment..IdentFragment$GT$3fmt17hf0420df024751950E:
Lfunc_begin74:
	.loc	31 77 0
	.cfi_startproc
	pushq	%rbp
	.cfi_def_cfa_offset 16
	.cfi_offset %rbp, -16
	movq	%rsp, %rbp
	.cfi_def_cfa_register %rbp
Ltmp1996:
	.loc	31 78 21 prologue_end
	popq	%rbp
	jmp	__ZN4core3fmt3num3imp52_$LT$impl$u20$core..fmt..Display$u20$for$u20$u64$GT$3fmt17hb00db9d5e1e54df6E
Ltmp1997:
Lfunc_end74:
	.cfi_endproc

	.globl	__ZN61_$LT$u128$u20$as$u20$quote..ident_fragment..IdentFragment$GT$3fmt17h5b1797331ab254f2E
	.p2align	4, 0x90
__ZN61_$LT$u128$u20$as$u20$quote..ident_fragment..IdentFragment$GT$3fmt17h5b1797331ab254f2E:
Lfunc_begin75:
	.loc	31 77 0
	.cfi_startproc
	pushq	%rbp
	.cfi_def_cfa_offset 16
	.cfi_offset %rbp, -16
	movq	%rsp, %rbp
	.cfi_def_cfa_register %rbp
Ltmp1998:
	.loc	31 78 21 prologue_end
	popq	%rbp
	jmp	__ZN4core3fmt3num53_$LT$impl$u20$core..fmt..Display$u20$for$u20$u128$GT$3fmt17h26a18cfc770edd4cE
Ltmp1999:
Lfunc_end75:
	.cfi_endproc

	.globl	__ZN62_$LT$usize$u20$as$u20$quote..ident_fragment..IdentFragment$GT$3fmt17hd74cb0e2d1cb7368E
	.p2align	4, 0x90
__ZN62_$LT$usize$u20$as$u20$quote..ident_fragment..IdentFragment$GT$3fmt17hd74cb0e2d1cb7368E:
Lfunc_begin76:
	.loc	31 77 0
	.cfi_startproc
	pushq	%rbp
	.cfi_def_cfa_offset 16
	.cfi_offset %rbp, -16
	movq	%rsp, %rbp
	.cfi_def_cfa_register %rbp
Ltmp2000:
	.loc	31 78 21 prologue_end
	popq	%rbp
	jmp	__ZN4core3fmt3num3imp54_$LT$impl$u20$core..fmt..Display$u20$for$u20$usize$GT$3fmt17h89ce3155a90f2edfE
Ltmp2001:
Lfunc_end76:
	.cfi_endproc

	.globl	__ZN49_$LT$i8$u20$as$u20$quote..to_tokens..ToTokens$GT$9to_tokens17hf1682829f329f59aE
	.p2align	4, 0x90
__ZN49_$LT$i8$u20$as$u20$quote..to_tokens..ToTokens$GT$9to_tokens17hf1682829f329f59aE:
Lfunc_begin77:
	.loc	33 132 0
	.cfi_startproc
	pushq	%rbp
	.cfi_def_cfa_offset 16
	.cfi_offset %rbp, -16
	movq	%rsp, %rbp
	.cfi_def_cfa_register %rbp
	pushq	%r14
	pushq	%rbx
	subq	$112, %rsp
	.cfi_offset %rbx, -32
	.cfi_offset %r14, -24
	movq	%rsi, %r14
Ltmp2002:
	.loc	33 133 40 prologue_end
	movzbl	(%rdi), %esi
	leaq	-48(%rbp), %rdi
Ltmp2003:
	callq	__ZN11proc_macro27Literal11i8_suffixed17h50a157969def4f4aE
Ltmp2004:
	.loc	34 559 17
	movq	-24(%rbp), %rax
	movq	%rax, -56(%rbp)
	movq	-32(%rbp), %rax
	movq	%rax, -64(%rbp)
	movq	-48(%rbp), %rax
	movq	-40(%rbp), %rcx
	movq	%rcx, -72(%rbp)
	movq	%rax, -80(%rbp)
	leaq	-128(%rbp), %rbx
	leaq	-80(%rbp), %rsi
	.loc	34 559 9 is_stmt 0
	movq	%rbx, %rdi
	callq	__ZN90_$LT$proc_macro2..TokenTree$u20$as$u20$core..convert..From$LT$proc_macro2..Literal$GT$$GT$4from17h412e858586913a94E
Ltmp2005:
	.loc	35 66 9 is_stmt 1
	movq	%r14, %rdi
Ltmp2006:
	movq	%rbx, %rsi
	callq	__ZN110_$LT$proc_macro2..TokenStream$u20$as$u20$core..iter..traits..collect..Extend$LT$proc_macro2..TokenTree$GT$$GT$6extend17h525ee41798119d70E
Ltmp2007:
	.loc	33 134 14
	addq	$112, %rsp
	popq	%rbx
	popq	%r14
Ltmp2008:
	popq	%rbp
	retq
Ltmp2009:
Lfunc_end77:
	.cfi_endproc

	.globl	__ZN50_$LT$i16$u20$as$u20$quote..to_tokens..ToTokens$GT$9to_tokens17he0db1f18db3d947dE
	.p2align	4, 0x90
__ZN50_$LT$i16$u20$as$u20$quote..to_tokens..ToTokens$GT$9to_tokens17he0db1f18db3d947dE:
Lfunc_begin78:
	.loc	33 132 0
	.cfi_startproc
	pushq	%rbp
	.cfi_def_cfa_offset 16
	.cfi_offset %rbp, -16
	movq	%rsp, %rbp
	.cfi_def_cfa_register %rbp
	pushq	%r14
	pushq	%rbx
	subq	$112, %rsp
	.cfi_offset %rbx, -32
	.cfi_offset %r14, -24
	movq	%rsi, %r14
Ltmp2010:
	.loc	33 133 40 prologue_end
	movzwl	(%rdi), %esi
	leaq	-48(%rbp), %rdi
Ltmp2011:
	callq	__ZN11proc_macro27Literal12i16_suffixed17h94c2b4d3470c87e8E
Ltmp2012:
	.loc	34 559 17
	movq	-24(%rbp), %rax
	movq	%rax, -56(%rbp)
	movq	-32(%rbp), %rax
	movq	%rax, -64(%rbp)
	movq	-48(%rbp), %rax
	movq	-40(%rbp), %rcx
	movq	%rcx, -72(%rbp)
	movq	%rax, -80(%rbp)
	leaq	-128(%rbp), %rbx
	leaq	-80(%rbp), %rsi
	.loc	34 559 9 is_stmt 0
	movq	%rbx, %rdi
	callq	__ZN90_$LT$proc_macro2..TokenTree$u20$as$u20$core..convert..From$LT$proc_macro2..Literal$GT$$GT$4from17h412e858586913a94E
Ltmp2013:
	.loc	35 66 9 is_stmt 1
	movq	%r14, %rdi
Ltmp2014:
	movq	%rbx, %rsi
	callq	__ZN110_$LT$proc_macro2..TokenStream$u20$as$u20$core..iter..traits..collect..Extend$LT$proc_macro2..TokenTree$GT$$GT$6extend17h525ee41798119d70E
Ltmp2015:
	.loc	33 134 14
	addq	$112, %rsp
	popq	%rbx
	popq	%r14
Ltmp2016:
	popq	%rbp
	retq
Ltmp2017:
Lfunc_end78:
	.cfi_endproc

	.globl	__ZN50_$LT$i32$u20$as$u20$quote..to_tokens..ToTokens$GT$9to_tokens17hac5ab37f88bfe2aeE
	.p2align	4, 0x90
__ZN50_$LT$i32$u20$as$u20$quote..to_tokens..ToTokens$GT$9to_tokens17hac5ab37f88bfe2aeE:
Lfunc_begin79:
	.loc	33 132 0
	.cfi_startproc
	pushq	%rbp
	.cfi_def_cfa_offset 16
	.cfi_offset %rbp, -16
	movq	%rsp, %rbp
	.cfi_def_cfa_register %rbp
	pushq	%r14
	pushq	%rbx
	subq	$112, %rsp
	.cfi_offset %rbx, -32
	.cfi_offset %r14, -24
	movq	%rsi, %r14
Ltmp2018:
	.loc	33 133 46 prologue_end
	movl	(%rdi), %esi
Ltmp2019:
	.loc	33 0 46 is_stmt 0
	leaq	-48(%rbp), %rdi
Ltmp2020:
	.loc	33 133 40
	callq	__ZN11proc_macro27Literal12i32_suffixed17h7a87b6cf6abd3101E
Ltmp2021:
	.loc	34 559 17 is_stmt 1
	movq	-24(%rbp), %rax
	movq	%rax, -56(%rbp)
	movq	-32(%rbp), %rax
	movq	%rax, -64(%rbp)
	movq	-48(%rbp), %rax
	movq	-40(%rbp), %rcx
	movq	%rcx, -72(%rbp)
	movq	%rax, -80(%rbp)
	leaq	-128(%rbp), %rbx
	leaq	-80(%rbp), %rsi
	.loc	34 559 9 is_stmt 0
	movq	%rbx, %rdi
	callq	__ZN90_$LT$proc_macro2..TokenTree$u20$as$u20$core..convert..From$LT$proc_macro2..Literal$GT$$GT$4from17h412e858586913a94E
Ltmp2022:
	.loc	35 66 9 is_stmt 1
	movq	%r14, %rdi
Ltmp2023:
	movq	%rbx, %rsi
	callq	__ZN110_$LT$proc_macro2..TokenStream$u20$as$u20$core..iter..traits..collect..Extend$LT$proc_macro2..TokenTree$GT$$GT$6extend17h525ee41798119d70E
Ltmp2024:
	.loc	33 134 14
	addq	$112, %rsp
	popq	%rbx
	popq	%r14
Ltmp2025:
	popq	%rbp
	retq
Ltmp2026:
Lfunc_end79:
	.cfi_endproc

	.globl	__ZN50_$LT$i64$u20$as$u20$quote..to_tokens..ToTokens$GT$9to_tokens17h7d7bc90b7b20d06fE
	.p2align	4, 0x90
__ZN50_$LT$i64$u20$as$u20$quote..to_tokens..ToTokens$GT$9to_tokens17h7d7bc90b7b20d06fE:
Lfunc_begin80:
	.loc	33 132 0
	.cfi_startproc
	pushq	%rbp
	.cfi_def_cfa_offset 16
	.cfi_offset %rbp, -16
	movq	%rsp, %rbp
	.cfi_def_cfa_register %rbp
	pushq	%r14
	pushq	%rbx
	subq	$112, %rsp
	.cfi_offset %rbx, -32
	.cfi_offset %r14, -24
	movq	%rsi, %r14
Ltmp2027:
	.loc	33 133 46 prologue_end
	movq	(%rdi), %rsi
Ltmp2028:
	.loc	33 0 46 is_stmt 0
	leaq	-48(%rbp), %rdi
Ltmp2029:
	.loc	33 133 40
	callq	__ZN11proc_macro27Literal12i64_suffixed17hcc6db45b26320b12E
Ltmp2030:
	.loc	34 559 17 is_stmt 1
	movq	-24(%rbp), %rax
	movq	%rax, -56(%rbp)
	movq	-32(%rbp), %rax
	movq	%rax, -64(%rbp)
	movq	-48(%rbp), %rax
	movq	-40(%rbp), %rcx
	movq	%rcx, -72(%rbp)
	movq	%rax, -80(%rbp)
	leaq	-128(%rbp), %rbx
	leaq	-80(%rbp), %rsi
	.loc	34 559 9 is_stmt 0
	movq	%rbx, %rdi
	callq	__ZN90_$LT$proc_macro2..TokenTree$u20$as$u20$core..convert..From$LT$proc_macro2..Literal$GT$$GT$4from17h412e858586913a94E
Ltmp2031:
	.loc	35 66 9 is_stmt 1
	movq	%r14, %rdi
Ltmp2032:
	movq	%rbx, %rsi
	callq	__ZN110_$LT$proc_macro2..TokenStream$u20$as$u20$core..iter..traits..collect..Extend$LT$proc_macro2..TokenTree$GT$$GT$6extend17h525ee41798119d70E
Ltmp2033:
	.loc	33 134 14
	addq	$112, %rsp
	popq	%rbx
	popq	%r14
Ltmp2034:
	popq	%rbp
	retq
Ltmp2035:
Lfunc_end80:
	.cfi_endproc

	.globl	__ZN51_$LT$i128$u20$as$u20$quote..to_tokens..ToTokens$GT$9to_tokens17h769c036c26ada45eE
	.p2align	4, 0x90
__ZN51_$LT$i128$u20$as$u20$quote..to_tokens..ToTokens$GT$9to_tokens17h769c036c26ada45eE:
Lfunc_begin81:
	.loc	33 132 0
	.cfi_startproc
	pushq	%rbp
	.cfi_def_cfa_offset 16
	.cfi_offset %rbp, -16
	movq	%rsp, %rbp
	.cfi_def_cfa_register %rbp
	pushq	%r14
	pushq	%rbx
	subq	$112, %rsp
	.cfi_offset %rbx, -32
	.cfi_offset %r14, -24
	movq	%rsi, %r14
Ltmp2036:
	.loc	33 133 46 prologue_end
	movq	(%rdi), %rsi
	movq	8(%rdi), %rdx
Ltmp2037:
	.loc	33 0 46 is_stmt 0
	leaq	-48(%rbp), %rdi
Ltmp2038:
	.loc	33 133 40
	callq	__ZN11proc_macro27Literal13i128_suffixed17h0812a4106101363cE
Ltmp2039:
	.loc	34 559 17 is_stmt 1
	movq	-24(%rbp), %rax
	movq	%rax, -56(%rbp)
	movq	-32(%rbp), %rax
	movq	%rax, -64(%rbp)
	movq	-48(%rbp), %rax
	movq	-40(%rbp), %rcx
	movq	%rcx, -72(%rbp)
	movq	%rax, -80(%rbp)
	leaq	-128(%rbp), %rbx
	leaq	-80(%rbp), %rsi
	.loc	34 559 9 is_stmt 0
	movq	%rbx, %rdi
	callq	__ZN90_$LT$proc_macro2..TokenTree$u20$as$u20$core..convert..From$LT$proc_macro2..Literal$GT$$GT$4from17h412e858586913a94E
Ltmp2040:
	.loc	35 66 9 is_stmt 1
	movq	%r14, %rdi
Ltmp2041:
	movq	%rbx, %rsi
	callq	__ZN110_$LT$proc_macro2..TokenStream$u20$as$u20$core..iter..traits..collect..Extend$LT$proc_macro2..TokenTree$GT$$GT$6extend17h525ee41798119d70E
Ltmp2042:
	.loc	33 134 14
	addq	$112, %rsp
	popq	%rbx
	popq	%r14
Ltmp2043:
	popq	%rbp
	retq
Ltmp2044:
Lfunc_end81:
	.cfi_endproc

	.globl	__ZN52_$LT$isize$u20$as$u20$quote..to_tokens..ToTokens$GT$9to_tokens17h380689162f29c595E
	.p2align	4, 0x90
__ZN52_$LT$isize$u20$as$u20$quote..to_tokens..ToTokens$GT$9to_tokens17h380689162f29c595E:
Lfunc_begin82:
	.loc	33 132 0
	.cfi_startproc
	pushq	%rbp
	.cfi_def_cfa_offset 16
	.cfi_offset %rbp, -16
	movq	%rsp, %rbp
	.cfi_def_cfa_register %rbp
	pushq	%r14
	pushq	%rbx
	subq	$112, %rsp
	.cfi_offset %rbx, -32
	.cfi_offset %r14, -24
	movq	%rsi, %r14
Ltmp2045:
	.loc	33 133 46 prologue_end
	movq	(%rdi), %rsi
Ltmp2046:
	.loc	33 0 46 is_stmt 0
	leaq	-48(%rbp), %rdi
Ltmp2047:
	.loc	33 133 40
	callq	__ZN11proc_macro27Literal14isize_suffixed17hc7ae6e13577f6b13E
Ltmp2048:
	.loc	34 559 17 is_stmt 1
	movq	-24(%rbp), %rax
	movq	%rax, -56(%rbp)
	movq	-32(%rbp), %rax
	movq	%rax, -64(%rbp)
	movq	-48(%rbp), %rax
	movq	-40(%rbp), %rcx
	movq	%rcx, -72(%rbp)
	movq	%rax, -80(%rbp)
	leaq	-128(%rbp), %rbx
	leaq	-80(%rbp), %rsi
	.loc	34 559 9 is_stmt 0
	movq	%rbx, %rdi
	callq	__ZN90_$LT$proc_macro2..TokenTree$u20$as$u20$core..convert..From$LT$proc_macro2..Literal$GT$$GT$4from17h412e858586913a94E
Ltmp2049:
	.loc	35 66 9 is_stmt 1
	movq	%r14, %rdi
Ltmp2050:
	movq	%rbx, %rsi
	callq	__ZN110_$LT$proc_macro2..TokenStream$u20$as$u20$core..iter..traits..collect..Extend$LT$proc_macro2..TokenTree$GT$$GT$6extend17h525ee41798119d70E
Ltmp2051:
	.loc	33 134 14
	addq	$112, %rsp
	popq	%rbx
	popq	%r14
Ltmp2052:
	popq	%rbp
	retq
Ltmp2053:
Lfunc_end82:
	.cfi_endproc

	.globl	__ZN49_$LT$u8$u20$as$u20$quote..to_tokens..ToTokens$GT$9to_tokens17h103a9815b95095f7E
	.p2align	4, 0x90
__ZN49_$LT$u8$u20$as$u20$quote..to_tokens..ToTokens$GT$9to_tokens17h103a9815b95095f7E:
Lfunc_begin83:
	.loc	33 132 0
	.cfi_startproc
	pushq	%rbp
	.cfi_def_cfa_offset 16
	.cfi_offset %rbp, -16
	movq	%rsp, %rbp
	.cfi_def_cfa_register %rbp
	pushq	%r14
	pushq	%rbx
	subq	$112, %rsp
	.cfi_offset %rbx, -32
	.cfi_offset %r14, -24
	movq	%rsi, %r14
Ltmp2054:
	.loc	33 133 40 prologue_end
	movzbl	(%rdi), %esi
	leaq	-48(%rbp), %rdi
Ltmp2055:
	callq	__ZN11proc_macro27Literal11u8_suffixed17hb70048ecd230ad1fE
Ltmp2056:
	.loc	34 559 17
	movq	-24(%rbp), %rax
	movq	%rax, -56(%rbp)
	movq	-32(%rbp), %rax
	movq	%rax, -64(%rbp)
	movq	-48(%rbp), %rax
	movq	-40(%rbp), %rcx
	movq	%rcx, -72(%rbp)
	movq	%rax, -80(%rbp)
	leaq	-128(%rbp), %rbx
	leaq	-80(%rbp), %rsi
	.loc	34 559 9 is_stmt 0
	movq	%rbx, %rdi
	callq	__ZN90_$LT$proc_macro2..TokenTree$u20$as$u20$core..convert..From$LT$proc_macro2..Literal$GT$$GT$4from17h412e858586913a94E
Ltmp2057:
	.loc	35 66 9 is_stmt 1
	movq	%r14, %rdi
Ltmp2058:
	movq	%rbx, %rsi
	callq	__ZN110_$LT$proc_macro2..TokenStream$u20$as$u20$core..iter..traits..collect..Extend$LT$proc_macro2..TokenTree$GT$$GT$6extend17h525ee41798119d70E
Ltmp2059:
	.loc	33 134 14
	addq	$112, %rsp
	popq	%rbx
	popq	%r14
Ltmp2060:
	popq	%rbp
	retq
Ltmp2061:
Lfunc_end83:
	.cfi_endproc

	.globl	__ZN50_$LT$u16$u20$as$u20$quote..to_tokens..ToTokens$GT$9to_tokens17h0096ee7028e9f4fcE
	.p2align	4, 0x90
__ZN50_$LT$u16$u20$as$u20$quote..to_tokens..ToTokens$GT$9to_tokens17h0096ee7028e9f4fcE:
Lfunc_begin84:
	.loc	33 132 0
	.cfi_startproc
	pushq	%rbp
	.cfi_def_cfa_offset 16
	.cfi_offset %rbp, -16
	movq	%rsp, %rbp
	.cfi_def_cfa_register %rbp
	pushq	%r14
	pushq	%rbx
	subq	$112, %rsp
	.cfi_offset %rbx, -32
	.cfi_offset %r14, -24
	movq	%rsi, %r14
Ltmp2062:
	.loc	33 133 40 prologue_end
	movzwl	(%rdi), %esi
	leaq	-48(%rbp), %rdi
Ltmp2063:
	callq	__ZN11proc_macro27Literal12u16_suffixed17hcefe24c44c01d346E
Ltmp2064:
	.loc	34 559 17
	movq	-24(%rbp), %rax
	movq	%rax, -56(%rbp)
	movq	-32(%rbp), %rax
	movq	%rax, -64(%rbp)
	movq	-48(%rbp), %rax
	movq	-40(%rbp), %rcx
	movq	%rcx, -72(%rbp)
	movq	%rax, -80(%rbp)
	leaq	-128(%rbp), %rbx
	leaq	-80(%rbp), %rsi
	.loc	34 559 9 is_stmt 0
	movq	%rbx, %rdi
	callq	__ZN90_$LT$proc_macro2..TokenTree$u20$as$u20$core..convert..From$LT$proc_macro2..Literal$GT$$GT$4from17h412e858586913a94E
Ltmp2065:
	.loc	35 66 9 is_stmt 1
	movq	%r14, %rdi
Ltmp2066:
	movq	%rbx, %rsi
	callq	__ZN110_$LT$proc_macro2..TokenStream$u20$as$u20$core..iter..traits..collect..Extend$LT$proc_macro2..TokenTree$GT$$GT$6extend17h525ee41798119d70E
Ltmp2067:
	.loc	33 134 14
	addq	$112, %rsp
	popq	%rbx
	popq	%r14
Ltmp2068:
	popq	%rbp
	retq
Ltmp2069:
Lfunc_end84:
	.cfi_endproc

	.globl	__ZN50_$LT$u32$u20$as$u20$quote..to_tokens..ToTokens$GT$9to_tokens17h6d08e0d76b4db21cE
	.p2align	4, 0x90
__ZN50_$LT$u32$u20$as$u20$quote..to_tokens..ToTokens$GT$9to_tokens17h6d08e0d76b4db21cE:
Lfunc_begin85:
	.loc	33 132 0
	.cfi_startproc
	pushq	%rbp
	.cfi_def_cfa_offset 16
	.cfi_offset %rbp, -16
	movq	%rsp, %rbp
	.cfi_def_cfa_register %rbp
	pushq	%r14
	pushq	%rbx
	subq	$112, %rsp
	.cfi_offset %rbx, -32
	.cfi_offset %r14, -24
	movq	%rsi, %r14
Ltmp2070:
	.loc	33 133 46 prologue_end
	movl	(%rdi), %esi
Ltmp2071:
	.loc	33 0 46 is_stmt 0
	leaq	-48(%rbp), %rdi
Ltmp2072:
	.loc	33 133 40
	callq	__ZN11proc_macro27Literal12u32_suffixed17hfb28eb7c4a536d52E
Ltmp2073:
	.loc	34 559 17 is_stmt 1
	movq	-24(%rbp), %rax
	movq	%rax, -56(%rbp)
	movq	-32(%rbp), %rax
	movq	%rax, -64(%rbp)
	movq	-48(%rbp), %rax
	movq	-40(%rbp), %rcx
	movq	%rcx, -72(%rbp)
	movq	%rax, -80(%rbp)
	leaq	-128(%rbp), %rbx
	leaq	-80(%rbp), %rsi
	.loc	34 559 9 is_stmt 0
	movq	%rbx, %rdi
	callq	__ZN90_$LT$proc_macro2..TokenTree$u20$as$u20$core..convert..From$LT$proc_macro2..Literal$GT$$GT$4from17h412e858586913a94E
Ltmp2074:
	.loc	35 66 9 is_stmt 1
	movq	%r14, %rdi
Ltmp2075:
	movq	%rbx, %rsi
	callq	__ZN110_$LT$proc_macro2..TokenStream$u20$as$u20$core..iter..traits..collect..Extend$LT$proc_macro2..TokenTree$GT$$GT$6extend17h525ee41798119d70E
Ltmp2076:
	.loc	33 134 14
	addq	$112, %rsp
	popq	%rbx
	popq	%r14
Ltmp2077:
	popq	%rbp
	retq
Ltmp2078:
Lfunc_end85:
	.cfi_endproc

	.globl	__ZN50_$LT$u64$u20$as$u20$quote..to_tokens..ToTokens$GT$9to_tokens17h192873b035c092c3E
	.p2align	4, 0x90
__ZN50_$LT$u64$u20$as$u20$quote..to_tokens..ToTokens$GT$9to_tokens17h192873b035c092c3E:
Lfunc_begin86:
	.loc	33 132 0
	.cfi_startproc
	pushq	%rbp
	.cfi_def_cfa_offset 16
	.cfi_offset %rbp, -16
	movq	%rsp, %rbp
	.cfi_def_cfa_register %rbp
	pushq	%r14
	pushq	%rbx
	subq	$112, %rsp
	.cfi_offset %rbx, -32
	.cfi_offset %r14, -24
	movq	%rsi, %r14
Ltmp2079:
	.loc	33 133 46 prologue_end
	movq	(%rdi), %rsi
Ltmp2080:
	.loc	33 0 46 is_stmt 0
	leaq	-48(%rbp), %rdi
Ltmp2081:
	.loc	33 133 40
	callq	__ZN11proc_macro27Literal12u64_suffixed17hff50275a14b1d119E
Ltmp2082:
	.loc	34 559 17 is_stmt 1
	movq	-24(%rbp), %rax
	movq	%rax, -56(%rbp)
	movq	-32(%rbp), %rax
	movq	%rax, -64(%rbp)
	movq	-48(%rbp), %rax
	movq	-40(%rbp), %rcx
	movq	%rcx, -72(%rbp)
	movq	%rax, -80(%rbp)
	leaq	-128(%rbp), %rbx
	leaq	-80(%rbp), %rsi
	.loc	34 559 9 is_stmt 0
	movq	%rbx, %rdi
	callq	__ZN90_$LT$proc_macro2..TokenTree$u20$as$u20$core..convert..From$LT$proc_macro2..Literal$GT$$GT$4from17h412e858586913a94E
Ltmp2083:
	.loc	35 66 9 is_stmt 1
	movq	%r14, %rdi
Ltmp2084:
	movq	%rbx, %rsi
	callq	__ZN110_$LT$proc_macro2..TokenStream$u20$as$u20$core..iter..traits..collect..Extend$LT$proc_macro2..TokenTree$GT$$GT$6extend17h525ee41798119d70E
Ltmp2085:
	.loc	33 134 14
	addq	$112, %rsp
	popq	%rbx
	popq	%r14
Ltmp2086:
	popq	%rbp
	retq
Ltmp2087:
Lfunc_end86:
	.cfi_endproc

	.globl	__ZN51_$LT$u128$u20$as$u20$quote..to_tokens..ToTokens$GT$9to_tokens17h04ee7b01150d9e9cE
	.p2align	4, 0x90
__ZN51_$LT$u128$u20$as$u20$quote..to_tokens..ToTokens$GT$9to_tokens17h04ee7b01150d9e9cE:
Lfunc_begin87:
	.loc	33 132 0
	.cfi_startproc
	pushq	%rbp
	.cfi_def_cfa_offset 16
	.cfi_offset %rbp, -16
	movq	%rsp, %rbp
	.cfi_def_cfa_register %rbp
	pushq	%r14
	pushq	%rbx
	subq	$112, %rsp
	.cfi_offset %rbx, -32
	.cfi_offset %r14, -24
	movq	%rsi, %r14
Ltmp2088:
	.loc	33 133 46 prologue_end
	movq	(%rdi), %rsi
	movq	8(%rdi), %rdx
Ltmp2089:
	.loc	33 0 46 is_stmt 0
	leaq	-48(%rbp), %rdi
Ltmp2090:
	.loc	33 133 40
	callq	__ZN11proc_macro27Literal13u128_suffixed17h51e1867a34f8a275E
Ltmp2091:
	.loc	34 559 17 is_stmt 1
	movq	-24(%rbp), %rax
	movq	%rax, -56(%rbp)
	movq	-32(%rbp), %rax
	movq	%rax, -64(%rbp)
	movq	-48(%rbp), %rax
	movq	-40(%rbp), %rcx
	movq	%rcx, -72(%rbp)
	movq	%rax, -80(%rbp)
	leaq	-128(%rbp), %rbx
	leaq	-80(%rbp), %rsi
	.loc	34 559 9 is_stmt 0
	movq	%rbx, %rdi
	callq	__ZN90_$LT$proc_macro2..TokenTree$u20$as$u20$core..convert..From$LT$proc_macro2..Literal$GT$$GT$4from17h412e858586913a94E
Ltmp2092:
	.loc	35 66 9 is_stmt 1
	movq	%r14, %rdi
Ltmp2093:
	movq	%rbx, %rsi
	callq	__ZN110_$LT$proc_macro2..TokenStream$u20$as$u20$core..iter..traits..collect..Extend$LT$proc_macro2..TokenTree$GT$$GT$6extend17h525ee41798119d70E
Ltmp2094:
	.loc	33 134 14
	addq	$112, %rsp
	popq	%rbx
	popq	%r14
Ltmp2095:
	popq	%rbp
	retq
Ltmp2096:
Lfunc_end87:
	.cfi_endproc

	.globl	__ZN52_$LT$usize$u20$as$u20$quote..to_tokens..ToTokens$GT$9to_tokens17h165bb97ea3491030E
	.p2align	4, 0x90
__ZN52_$LT$usize$u20$as$u20$quote..to_tokens..ToTokens$GT$9to_tokens17h165bb97ea3491030E:
Lfunc_begin88:
	.loc	33 132 0
	.cfi_startproc
	pushq	%rbp
	.cfi_def_cfa_offset 16
	.cfi_offset %rbp, -16
	movq	%rsp, %rbp
	.cfi_def_cfa_register %rbp
	pushq	%r14
	pushq	%rbx
	subq	$112, %rsp
	.cfi_offset %rbx, -32
	.cfi_offset %r14, -24
	movq	%rsi, %r14
Ltmp2097:
	.loc	33 133 46 prologue_end
	movq	(%rdi), %rsi
Ltmp2098:
	.loc	33 0 46 is_stmt 0
	leaq	-48(%rbp), %rdi
Ltmp2099:
	.loc	33 133 40
	callq	__ZN11proc_macro27Literal14usize_suffixed17hd3072ebca2f16500E
Ltmp2100:
	.loc	34 559 17 is_stmt 1
	movq	-24(%rbp), %rax
	movq	%rax, -56(%rbp)
	movq	-32(%rbp), %rax
	movq	%rax, -64(%rbp)
	movq	-48(%rbp), %rax
	movq	-40(%rbp), %rcx
	movq	%rcx, -72(%rbp)
	movq	%rax, -80(%rbp)
	leaq	-128(%rbp), %rbx
	leaq	-80(%rbp), %rsi
	.loc	34 559 9 is_stmt 0
	movq	%rbx, %rdi
	callq	__ZN90_$LT$proc_macro2..TokenTree$u20$as$u20$core..convert..From$LT$proc_macro2..Literal$GT$$GT$4from17h412e858586913a94E
Ltmp2101:
	.loc	35 66 9 is_stmt 1
	movq	%r14, %rdi
Ltmp2102:
	movq	%rbx, %rsi
	callq	__ZN110_$LT$proc_macro2..TokenStream$u20$as$u20$core..iter..traits..collect..Extend$LT$proc_macro2..TokenTree$GT$$GT$6extend17h525ee41798119d70E
Ltmp2103:
	.loc	33 134 14
	addq	$112, %rsp
	popq	%rbx
	popq	%r14
Ltmp2104:
	popq	%rbp
	retq
Ltmp2105:
Lfunc_end88:
	.cfi_endproc

	.globl	__ZN50_$LT$f32$u20$as$u20$quote..to_tokens..ToTokens$GT$9to_tokens17h7a6173c5345524cfE
	.p2align	4, 0x90
__ZN50_$LT$f32$u20$as$u20$quote..to_tokens..ToTokens$GT$9to_tokens17h7a6173c5345524cfE:
Lfunc_begin89:
	.loc	33 132 0
	.cfi_startproc
	pushq	%rbp
	.cfi_def_cfa_offset 16
	.cfi_offset %rbp, -16
	movq	%rsp, %rbp
	.cfi_def_cfa_register %rbp
	pushq	%r14
	pushq	%rbx
	subq	$112, %rsp
	.cfi_offset %rbx, -32
	.cfi_offset %r14, -24
	movq	%rsi, %r14
Ltmp2106:
	.loc	33 133 46 prologue_end
	movss	(%rdi), %xmm0
Ltmp2107:
	.loc	33 0 46 is_stmt 0
	leaq	-48(%rbp), %rdi
Ltmp2108:
	.loc	33 133 40
	callq	__ZN11proc_macro27Literal12f32_suffixed17h60918f45d37accf8E
Ltmp2109:
	.loc	34 559 17 is_stmt 1
	movq	-24(%rbp), %rax
	movq	%rax, -56(%rbp)
	movq	-32(%rbp), %rax
	movq	%rax, -64(%rbp)
	movq	-48(%rbp), %rax
	movq	-40(%rbp), %rcx
	movq	%rcx, -72(%rbp)
	movq	%rax, -80(%rbp)
	leaq	-128(%rbp), %rbx
	leaq	-80(%rbp), %rsi
	.loc	34 559 9 is_stmt 0
	movq	%rbx, %rdi
	callq	__ZN90_$LT$proc_macro2..TokenTree$u20$as$u20$core..convert..From$LT$proc_macro2..Literal$GT$$GT$4from17h412e858586913a94E
Ltmp2110:
	.loc	35 66 9 is_stmt 1
	movq	%r14, %rdi
Ltmp2111:
	movq	%rbx, %rsi
	callq	__ZN110_$LT$proc_macro2..TokenStream$u20$as$u20$core..iter..traits..collect..Extend$LT$proc_macro2..TokenTree$GT$$GT$6extend17h525ee41798119d70E
Ltmp2112:
	.loc	33 134 14
	addq	$112, %rsp
	popq	%rbx
	popq	%r14
Ltmp2113:
	popq	%rbp
	retq
Ltmp2114:
Lfunc_end89:
	.cfi_endproc

	.globl	__ZN50_$LT$f64$u20$as$u20$quote..to_tokens..ToTokens$GT$9to_tokens17h398eb1ce7d823093E
	.p2align	4, 0x90
__ZN50_$LT$f64$u20$as$u20$quote..to_tokens..ToTokens$GT$9to_tokens17h398eb1ce7d823093E:
Lfunc_begin90:
	.loc	33 132 0
	.cfi_startproc
	pushq	%rbp
	.cfi_def_cfa_offset 16
	.cfi_offset %rbp, -16
	movq	%rsp, %rbp
	.cfi_def_cfa_register %rbp
	pushq	%r14
	pushq	%rbx
	subq	$112, %rsp
	.cfi_offset %rbx, -32
	.cfi_offset %r14, -24
	movq	%rsi, %r14
Ltmp2115:
	.loc	33 133 46 prologue_end
	movsd	(%rdi), %xmm0
Ltmp2116:
	.loc	33 0 46 is_stmt 0
	leaq	-48(%rbp), %rdi
Ltmp2117:
	.loc	33 133 40
	callq	__ZN11proc_macro27Literal12f64_suffixed17h28d8bc2d0a19a8d0E
Ltmp2118:
	.loc	34 559 17 is_stmt 1
	movq	-24(%rbp), %rax
	movq	%rax, -56(%rbp)
	movq	-32(%rbp), %rax
	movq	%rax, -64(%rbp)
	movq	-48(%rbp), %rax
	movq	-40(%rbp), %rcx
	movq	%rcx, -72(%rbp)
	movq	%rax, -80(%rbp)
	leaq	-128(%rbp), %rbx
	leaq	-80(%rbp), %rsi
	.loc	34 559 9 is_stmt 0
	movq	%rbx, %rdi
	callq	__ZN90_$LT$proc_macro2..TokenTree$u20$as$u20$core..convert..From$LT$proc_macro2..Literal$GT$$GT$4from17h412e858586913a94E
Ltmp2119:
	.loc	35 66 9 is_stmt 1
	movq	%r14, %rdi
Ltmp2120:
	movq	%rbx, %rsi
	callq	__ZN110_$LT$proc_macro2..TokenStream$u20$as$u20$core..iter..traits..collect..Extend$LT$proc_macro2..TokenTree$GT$$GT$6extend17h525ee41798119d70E
Ltmp2121:
	.loc	33 134 14
	addq	$112, %rsp
	popq	%rbx
	popq	%r14
Ltmp2122:
	popq	%rbp
	retq
Ltmp2123:
Lfunc_end90:
	.cfi_endproc

	.globl	__ZN5quote9__private8push_add17h64934b5b3cab5f5dE
	.p2align	4, 0x90
__ZN5quote9__private8push_add17h64934b5b3cab5f5dE:
Lfunc_begin91:
	.loc	39 237 0
	.cfi_startproc
	pushq	%rbp
	.cfi_def_cfa_offset 16
	.cfi_offset %rbp, -16
	movq	%rsp, %rbp
	.cfi_def_cfa_register %rbp
	pushq	%r14
	pushq	%rbx
	subq	$80, %rsp
	.cfi_offset %rbx, -32
	.cfi_offset %r14, -24
	movq	%rdi, %r14
Ltmp2124:
	leaq	-32(%rbp), %rdi
Ltmp2125:
	.loc	39 238 27 prologue_end
	movl	$43, %esi
	xorl	%edx, %edx
	callq	__ZN11proc_macro25Punct3new17haa1ef7839e8e6033E
Ltmp2126:
	.loc	34 559 17
	movl	-24(%rbp), %eax
	movl	%eax, -40(%rbp)
	movq	-32(%rbp), %rax
	movq	%rax, -48(%rbp)
	leaq	-96(%rbp), %rbx
	leaq	-48(%rbp), %rsi
	.loc	34 559 9 is_stmt 0
	movq	%rbx, %rdi
	callq	__ZN88_$LT$proc_macro2..TokenTree$u20$as$u20$core..convert..From$LT$proc_macro2..Punct$GT$$GT$4from17hfdd065e460bceb1cE
Ltmp2127:
	.loc	35 66 9 is_stmt 1
	movq	%r14, %rdi
Ltmp2128:
	movq	%rbx, %rsi
	callq	__ZN110_$LT$proc_macro2..TokenStream$u20$as$u20$core..iter..traits..collect..Extend$LT$proc_macro2..TokenTree$GT$$GT$6extend17h525ee41798119d70E
Ltmp2129:
	.loc	39 239 10
	addq	$80, %rsp
	popq	%rbx
	popq	%r14
Ltmp2130:
	popq	%rbp
	retq
Ltmp2131:
Lfunc_end91:
	.cfi_endproc

	.globl	__ZN5quote9__private16push_add_spanned17h8195f6fe5bf092ffE
	.p2align	4, 0x90
__ZN5quote9__private16push_add_spanned17h8195f6fe5bf092ffE:
Lfunc_begin92:
	.loc	39 240 0
	.cfi_startproc
	pushq	%rbp
	.cfi_def_cfa_offset 16
	.cfi_offset %rbp, -16
	movq	%rsp, %rbp
	.cfi_def_cfa_register %rbp
	pushq	%r15
	pushq	%r14
	pushq	%rbx
	subq	$88, %rsp
	.cfi_offset %rbx, -40
	.cfi_offset %r14, -32
	.cfi_offset %r15, -24
	movl	%esi, %ebx
Ltmp2132:
	movq	%rdi, %r14
Ltmp2133:
	leaq	-40(%rbp), %r15
Ltmp2134:
	.loc	39 241 29 prologue_end
	movq	%r15, %rdi
	movl	$43, %esi
	xorl	%edx, %edx
	callq	__ZN11proc_macro25Punct3new17haa1ef7839e8e6033E
Ltmp2135:
	.loc	39 242 13
	movq	%r15, %rdi
	movl	%ebx, %esi
Ltmp2136:
	callq	__ZN11proc_macro25Punct8set_span17hdef1d6c18ea76287E
Ltmp2137:
	.loc	34 559 17
	movl	-32(%rbp), %eax
	movl	%eax, -48(%rbp)
	movq	-40(%rbp), %rax
	movq	%rax, -56(%rbp)
	leaq	-104(%rbp), %rbx
	leaq	-56(%rbp), %rsi
	.loc	34 559 9 is_stmt 0
	movq	%rbx, %rdi
	callq	__ZN88_$LT$proc_macro2..TokenTree$u20$as$u20$core..convert..From$LT$proc_macro2..Punct$GT$$GT$4from17hfdd065e460bceb1cE
Ltmp2138:
	.loc	35 66 9 is_stmt 1
	movq	%r14, %rdi
Ltmp2139:
	movq	%rbx, %rsi
	callq	__ZN110_$LT$proc_macro2..TokenStream$u20$as$u20$core..iter..traits..collect..Extend$LT$proc_macro2..TokenTree$GT$$GT$6extend17h525ee41798119d70E
Ltmp2140:
	.loc	39 244 10
	addq	$88, %rsp
	popq	%rbx
	popq	%r14
Ltmp2141:
	popq	%r15
	popq	%rbp
	retq
Ltmp2142:
Lfunc_end92:
	.cfi_endproc

	.globl	__ZN5quote9__private11push_add_eq17hcb48858fd723a90dE
	.p2align	4, 0x90
__ZN5quote9__private11push_add_eq17hcb48858fd723a90dE:
Lfunc_begin93:
	.loc	39 247 0
	.cfi_startproc
	pushq	%rbp
	.cfi_def_cfa_offset 16
	.cfi_offset %rbp, -16
	movq	%rsp, %rbp
	.cfi_def_cfa_register %rbp
	pushq	%r14
	pushq	%rbx
	subq	$80, %rsp
	.cfi_offset %rbx, -32
	.cfi_offset %r14, -24
	movq	%rdi, %r14
Ltmp2143:
	leaq	-32(%rbp), %rdi
Ltmp2144:
	.loc	39 248 27 prologue_end
	movl	$43, %esi
	movl	$1, %edx
	callq	__ZN11proc_macro25Punct3new17haa1ef7839e8e6033E
Ltmp2145:
	.loc	34 559 17
	movl	-24(%rbp), %eax
	movl	%eax, -40(%rbp)
	movq	-32(%rbp), %rax
	movq	%rax, -48(%rbp)
	leaq	-96(%rbp), %rbx
	leaq	-48(%rbp), %rsi
	.loc	34 559 9 is_stmt 0
	movq	%rbx, %rdi
	callq	__ZN88_$LT$proc_macro2..TokenTree$u20$as$u20$core..convert..From$LT$proc_macro2..Punct$GT$$GT$4from17hfdd065e460bceb1cE
Ltmp2146:
	.loc	35 66 9 is_stmt 1
	movq	%r14, %rdi
	movq	%rbx, %rsi
	callq	__ZN110_$LT$proc_macro2..TokenStream$u20$as$u20$core..iter..traits..collect..Extend$LT$proc_macro2..TokenTree$GT$$GT$6extend17h525ee41798119d70E
Ltmp2147:
	.loc	35 0 9 is_stmt 0
	leaq	-32(%rbp), %rdi
Ltmp2148:
	.loc	39 249 27 is_stmt 1
	movl	$61, %esi
	xorl	%edx, %edx
	callq	__ZN11proc_macro25Punct3new17haa1ef7839e8e6033E
Ltmp2149:
	.loc	34 559 17
	movl	-24(%rbp), %eax
	movl	%eax, -40(%rbp)
	movq	-32(%rbp), %rax
	movq	%rax, -48(%rbp)
	leaq	-96(%rbp), %rbx
	leaq	-48(%rbp), %rsi
	.loc	34 559 9 is_stmt 0
	movq	%rbx, %rdi
	callq	__ZN88_$LT$proc_macro2..TokenTree$u20$as$u20$core..convert..From$LT$proc_macro2..Punct$GT$$GT$4from17hfdd065e460bceb1cE
Ltmp2150:
	.loc	35 66 9 is_stmt 1
	movq	%r14, %rdi
	movq	%rbx, %rsi
	callq	__ZN110_$LT$proc_macro2..TokenStream$u20$as$u20$core..iter..traits..collect..Extend$LT$proc_macro2..TokenTree$GT$$GT$6extend17h525ee41798119d70E
Ltmp2151:
	.loc	39 250 10
	addq	$80, %rsp
	popq	%rbx
	popq	%r14
Ltmp2152:
	popq	%rbp
	retq
Ltmp2153:
Lfunc_end93:
	.cfi_endproc

	.globl	__ZN5quote9__private19push_add_eq_spanned17hc13893ee6be055acE
	.p2align	4, 0x90
__ZN5quote9__private19push_add_eq_spanned17hc13893ee6be055acE:
Lfunc_begin94:
	.loc	39 251 0
	.cfi_startproc
	pushq	%rbp
	.cfi_def_cfa_offset 16
	.cfi_offset %rbp, -16
	movq	%rsp, %rbp
	.cfi_def_cfa_register %rbp
	pushq	%r15
	pushq	%r14
	pushq	%r12
	pushq	%rbx
	subq	$96, %rsp
	.cfi_offset %rbx, -48
	.cfi_offset %r12, -40
	.cfi_offset %r14, -32
	.cfi_offset %r15, -24
	movl	%esi, %r12d
Ltmp2154:
	movq	%rdi, %r14
Ltmp2155:
	leaq	-64(%rbp), %r15
Ltmp2156:
	.loc	39 252 29 prologue_end
	movq	%r15, %rdi
	movl	$43, %esi
	movl	$1, %edx
	callq	__ZN11proc_macro25Punct3new17haa1ef7839e8e6033E
Ltmp2157:
	.loc	39 253 13
	movq	%r15, %rdi
	movl	%r12d, %esi
	callq	__ZN11proc_macro25Punct8set_span17hdef1d6c18ea76287E
Ltmp2158:
	.loc	34 559 17
	movl	-56(%rbp), %eax
	movl	%eax, -40(%rbp)
	movq	-64(%rbp), %rax
	movq	%rax, -48(%rbp)
	leaq	-128(%rbp), %rbx
	leaq	-48(%rbp), %rsi
	.loc	34 559 9 is_stmt 0
	movq	%rbx, %rdi
	callq	__ZN88_$LT$proc_macro2..TokenTree$u20$as$u20$core..convert..From$LT$proc_macro2..Punct$GT$$GT$4from17hfdd065e460bceb1cE
Ltmp2159:
	.loc	35 66 9 is_stmt 1
	movq	%r14, %rdi
	movq	%rbx, %rsi
	callq	__ZN110_$LT$proc_macro2..TokenStream$u20$as$u20$core..iter..traits..collect..Extend$LT$proc_macro2..TokenTree$GT$$GT$6extend17h525ee41798119d70E
Ltmp2160:
	.loc	35 0 9 is_stmt 0
	leaq	-80(%rbp), %rbx
Ltmp2161:
	.loc	39 255 29 is_stmt 1
	movq	%rbx, %rdi
	movl	$61, %esi
	xorl	%edx, %edx
	callq	__ZN11proc_macro25Punct3new17haa1ef7839e8e6033E
Ltmp2162:
	.loc	39 256 13
	movq	%rbx, %rdi
	movl	%r12d, %esi
	callq	__ZN11proc_macro25Punct8set_span17hdef1d6c18ea76287E
Ltmp2163:
	.loc	34 559 17
	movl	-72(%rbp), %eax
	movl	%eax, -40(%rbp)
	movq	-80(%rbp), %rax
	movq	%rax, -48(%rbp)
	leaq	-128(%rbp), %rbx
	leaq	-48(%rbp), %rsi
	.loc	34 559 9 is_stmt 0
	movq	%rbx, %rdi
	callq	__ZN88_$LT$proc_macro2..TokenTree$u20$as$u20$core..convert..From$LT$proc_macro2..Punct$GT$$GT$4from17hfdd065e460bceb1cE
Ltmp2164:
	.loc	35 66 9 is_stmt 1
	movq	%r14, %rdi
	movq	%rbx, %rsi
	callq	__ZN110_$LT$proc_macro2..TokenStream$u20$as$u20$core..iter..traits..collect..Extend$LT$proc_macro2..TokenTree$GT$$GT$6extend17h525ee41798119d70E
Ltmp2165:
	.loc	39 258 10
	addq	$96, %rsp
	popq	%rbx
	popq	%r12
Ltmp2166:
	popq	%r14
Ltmp2167:
	popq	%r15
	popq	%rbp
	retq
Ltmp2168:
Lfunc_end94:
	.cfi_endproc

	.globl	__ZN5quote9__private8push_and17h02b7ce6b781187ebE
	.p2align	4, 0x90
__ZN5quote9__private8push_and17h02b7ce6b781187ebE:
Lfunc_begin95:
	.loc	39 237 0
	.cfi_startproc
	pushq	%rbp
	.cfi_def_cfa_offset 16
	.cfi_offset %rbp, -16
	movq	%rsp, %rbp
	.cfi_def_cfa_register %rbp
	pushq	%r14
	pushq	%rbx
	subq	$80, %rsp
	.cfi_offset %rbx, -32
	.cfi_offset %r14, -24
	movq	%rdi, %r14
Ltmp2169:
	leaq	-32(%rbp), %rdi
Ltmp2170:
	.loc	39 238 27 prologue_end
	movl	$38, %esi
	xorl	%edx, %edx
	callq	__ZN11proc_macro25Punct3new17haa1ef7839e8e6033E
Ltmp2171:
	.loc	34 559 17
	movl	-24(%rbp), %eax
	movl	%eax, -40(%rbp)
	movq	-32(%rbp), %rax
	movq	%rax, -48(%rbp)
	leaq	-96(%rbp), %rbx
	leaq	-48(%rbp), %rsi
	.loc	34 559 9 is_stmt 0
	movq	%rbx, %rdi
	callq	__ZN88_$LT$proc_macro2..TokenTree$u20$as$u20$core..convert..From$LT$proc_macro2..Punct$GT$$GT$4from17hfdd065e460bceb1cE
Ltmp2172:
	.loc	35 66 9 is_stmt 1
	movq	%r14, %rdi
Ltmp2173:
	movq	%rbx, %rsi
	callq	__ZN110_$LT$proc_macro2..TokenStream$u20$as$u20$core..iter..traits..collect..Extend$LT$proc_macro2..TokenTree$GT$$GT$6extend17h525ee41798119d70E
Ltmp2174:
	.loc	39 239 10
	addq	$80, %rsp
	popq	%rbx
	popq	%r14
Ltmp2175:
	popq	%rbp
	retq
Ltmp2176:
Lfunc_end95:
	.cfi_endproc

	.globl	__ZN5quote9__private16push_and_spanned17h2a7d0890e3abee25E
	.p2align	4, 0x90
__ZN5quote9__private16push_and_spanned17h2a7d0890e3abee25E:
Lfunc_begin96:
	.loc	39 240 0
	.cfi_startproc
	pushq	%rbp
	.cfi_def_cfa_offset 16
	.cfi_offset %rbp, -16
	movq	%rsp, %rbp
	.cfi_def_cfa_register %rbp
	pushq	%r15
	pushq	%r14
	pushq	%rbx
	subq	$88, %rsp
	.cfi_offset %rbx, -40
	.cfi_offset %r14, -32
	.cfi_offset %r15, -24
	movl	%esi, %ebx
Ltmp2177:
	movq	%rdi, %r14
Ltmp2178:
	leaq	-40(%rbp), %r15
Ltmp2179:
	.loc	39 241 29 prologue_end
	movq	%r15, %rdi
	movl	$38, %esi
	xorl	%edx, %edx
	callq	__ZN11proc_macro25Punct3new17haa1ef7839e8e6033E
Ltmp2180:
	.loc	39 242 13
	movq	%r15, %rdi
	movl	%ebx, %esi
Ltmp2181:
	callq	__ZN11proc_macro25Punct8set_span17hdef1d6c18ea76287E
Ltmp2182:
	.loc	34 559 17
	movl	-32(%rbp), %eax
	movl	%eax, -48(%rbp)
	movq	-40(%rbp), %rax
	movq	%rax, -56(%rbp)
	leaq	-104(%rbp), %rbx
	leaq	-56(%rbp), %rsi
	.loc	34 559 9 is_stmt 0
	movq	%rbx, %rdi
	callq	__ZN88_$LT$proc_macro2..TokenTree$u20$as$u20$core..convert..From$LT$proc_macro2..Punct$GT$$GT$4from17hfdd065e460bceb1cE
Ltmp2183:
	.loc	35 66 9 is_stmt 1
	movq	%r14, %rdi
Ltmp2184:
	movq	%rbx, %rsi
	callq	__ZN110_$LT$proc_macro2..TokenStream$u20$as$u20$core..iter..traits..collect..Extend$LT$proc_macro2..TokenTree$GT$$GT$6extend17h525ee41798119d70E
Ltmp2185:
	.loc	39 244 10
	addq	$88, %rsp
	popq	%rbx
	popq	%r14
Ltmp2186:
	popq	%r15
	popq	%rbp
	retq
Ltmp2187:
Lfunc_end96:
	.cfi_endproc

	.globl	__ZN5quote9__private12push_and_and17habfc414128ab38d9E
	.p2align	4, 0x90
__ZN5quote9__private12push_and_and17habfc414128ab38d9E:
Lfunc_begin97:
	.loc	39 247 0
	.cfi_startproc
	pushq	%rbp
	.cfi_def_cfa_offset 16
	.cfi_offset %rbp, -16
	movq	%rsp, %rbp
	.cfi_def_cfa_register %rbp
	pushq	%r14
	pushq	%rbx
	subq	$80, %rsp
	.cfi_offset %rbx, -32
	.cfi_offset %r14, -24
	movq	%rdi, %r14
Ltmp2188:
	leaq	-32(%rbp), %rdi
Ltmp2189:
	.loc	39 248 27 prologue_end
	movl	$38, %esi
	movl	$1, %edx
	callq	__ZN11proc_macro25Punct3new17haa1ef7839e8e6033E
Ltmp2190:
	.loc	34 559 17
	movl	-24(%rbp), %eax
	movl	%eax, -40(%rbp)
	movq	-32(%rbp), %rax
	movq	%rax, -48(%rbp)
	leaq	-96(%rbp), %rbx
	leaq	-48(%rbp), %rsi
	.loc	34 559 9 is_stmt 0
	movq	%rbx, %rdi
	callq	__ZN88_$LT$proc_macro2..TokenTree$u20$as$u20$core..convert..From$LT$proc_macro2..Punct$GT$$GT$4from17hfdd065e460bceb1cE
Ltmp2191:
	.loc	35 66 9 is_stmt 1
	movq	%r14, %rdi
	movq	%rbx, %rsi
	callq	__ZN110_$LT$proc_macro2..TokenStream$u20$as$u20$core..iter..traits..collect..Extend$LT$proc_macro2..TokenTree$GT$$GT$6extend17h525ee41798119d70E
Ltmp2192:
	.loc	35 0 9 is_stmt 0
	leaq	-32(%rbp), %rdi
Ltmp2193:
	.loc	39 249 27 is_stmt 1
	movl	$38, %esi
	xorl	%edx, %edx
	callq	__ZN11proc_macro25Punct3new17haa1ef7839e8e6033E
Ltmp2194:
	.loc	34 559 17
	movl	-24(%rbp), %eax
	movl	%eax, -40(%rbp)
	movq	-32(%rbp), %rax
	movq	%rax, -48(%rbp)
	leaq	-96(%rbp), %rbx
	leaq	-48(%rbp), %rsi
	.loc	34 559 9 is_stmt 0
	movq	%rbx, %rdi
	callq	__ZN88_$LT$proc_macro2..TokenTree$u20$as$u20$core..convert..From$LT$proc_macro2..Punct$GT$$GT$4from17hfdd065e460bceb1cE
Ltmp2195:
	.loc	35 66 9 is_stmt 1
	movq	%r14, %rdi
	movq	%rbx, %rsi
	callq	__ZN110_$LT$proc_macro2..TokenStream$u20$as$u20$core..iter..traits..collect..Extend$LT$proc_macro2..TokenTree$GT$$GT$6extend17h525ee41798119d70E
Ltmp2196:
	.loc	39 250 10
	addq	$80, %rsp
	popq	%rbx
	popq	%r14
Ltmp2197:
	popq	%rbp
	retq
Ltmp2198:
Lfunc_end97:
	.cfi_endproc

	.globl	__ZN5quote9__private20push_and_and_spanned17h0d7f595b1046c11cE
	.p2align	4, 0x90
__ZN5quote9__private20push_and_and_spanned17h0d7f595b1046c11cE:
Lfunc_begin98:
	.loc	39 251 0
	.cfi_startproc
	pushq	%rbp
	.cfi_def_cfa_offset 16
	.cfi_offset %rbp, -16
	movq	%rsp, %rbp
	.cfi_def_cfa_register %rbp
	pushq	%r15
	pushq	%r14
	pushq	%r12
	pushq	%rbx
	subq	$96, %rsp
	.cfi_offset %rbx, -48
	.cfi_offset %r12, -40
	.cfi_offset %r14, -32
	.cfi_offset %r15, -24
	movl	%esi, %r12d
Ltmp2199:
	movq	%rdi, %r14
Ltmp2200:
	leaq	-64(%rbp), %r15
Ltmp2201:
	.loc	39 252 29 prologue_end
	movq	%r15, %rdi
	movl	$38, %esi
	movl	$1, %edx
	callq	__ZN11proc_macro25Punct3new17haa1ef7839e8e6033E
Ltmp2202:
	.loc	39 253 13
	movq	%r15, %rdi
	movl	%r12d, %esi
	callq	__ZN11proc_macro25Punct8set_span17hdef1d6c18ea76287E
Ltmp2203:
	.loc	34 559 17
	movl	-56(%rbp), %eax
	movl	%eax, -40(%rbp)
	movq	-64(%rbp), %rax
	movq	%rax, -48(%rbp)
	leaq	-128(%rbp), %rbx
	leaq	-48(%rbp), %rsi
	.loc	34 559 9 is_stmt 0
	movq	%rbx, %rdi
	callq	__ZN88_$LT$proc_macro2..TokenTree$u20$as$u20$core..convert..From$LT$proc_macro2..Punct$GT$$GT$4from17hfdd065e460bceb1cE
Ltmp2204:
	.loc	35 66 9 is_stmt 1
	movq	%r14, %rdi
	movq	%rbx, %rsi
	callq	__ZN110_$LT$proc_macro2..TokenStream$u20$as$u20$core..iter..traits..collect..Extend$LT$proc_macro2..TokenTree$GT$$GT$6extend17h525ee41798119d70E
Ltmp2205:
	.loc	35 0 9 is_stmt 0
	leaq	-80(%rbp), %rbx
Ltmp2206:
	.loc	39 255 29 is_stmt 1
	movq	%rbx, %rdi
	movl	$38, %esi
	xorl	%edx, %edx
	callq	__ZN11proc_macro25Punct3new17haa1ef7839e8e6033E
Ltmp2207:
	.loc	39 256 13
	movq	%rbx, %rdi
	movl	%r12d, %esi
	callq	__ZN11proc_macro25Punct8set_span17hdef1d6c18ea76287E
Ltmp2208:
	.loc	34 559 17
	movl	-72(%rbp), %eax
	movl	%eax, -40(%rbp)
	movq	-80(%rbp), %rax
	movq	%rax, -48(%rbp)
	leaq	-128(%rbp), %rbx
	leaq	-48(%rbp), %rsi
	.loc	34 559 9 is_stmt 0
	movq	%rbx, %rdi
	callq	__ZN88_$LT$proc_macro2..TokenTree$u20$as$u20$core..convert..From$LT$proc_macro2..Punct$GT$$GT$4from17hfdd065e460bceb1cE
Ltmp2209:
	.loc	35 66 9 is_stmt 1
	movq	%r14, %rdi
	movq	%rbx, %rsi
	callq	__ZN110_$LT$proc_macro2..TokenStream$u20$as$u20$core..iter..traits..collect..Extend$LT$proc_macro2..TokenTree$GT$$GT$6extend17h525ee41798119d70E
Ltmp2210:
	.loc	39 258 10
	addq	$96, %rsp
	popq	%rbx
	popq	%r12
Ltmp2211:
	popq	%r14
Ltmp2212:
	popq	%r15
	popq	%rbp
	retq
Ltmp2213:
Lfunc_end98:
	.cfi_endproc

	.globl	__ZN5quote9__private11push_and_eq17h77abd599441757f4E
	.p2align	4, 0x90
__ZN5quote9__private11push_and_eq17h77abd599441757f4E:
Lfunc_begin99:
	.loc	39 247 0
	.cfi_startproc
	pushq	%rbp
	.cfi_def_cfa_offset 16
	.cfi_offset %rbp, -16
	movq	%rsp, %rbp
	.cfi_def_cfa_register %rbp
	pushq	%r14
	pushq	%rbx
	subq	$80, %rsp
	.cfi_offset %rbx, -32
	.cfi_offset %r14, -24
	movq	%rdi, %r14
Ltmp2214:
	leaq	-32(%rbp), %rdi
Ltmp2215:
	.loc	39 248 27 prologue_end
	movl	$38, %esi
	movl	$1, %edx
	callq	__ZN11proc_macro25Punct3new17haa1ef7839e8e6033E
Ltmp2216:
	.loc	34 559 17
	movl	-24(%rbp), %eax
	movl	%eax, -40(%rbp)
	movq	-32(%rbp), %rax
	movq	%rax, -48(%rbp)
	leaq	-96(%rbp), %rbx
	leaq	-48(%rbp), %rsi
	.loc	34 559 9 is_stmt 0
	movq	%rbx, %rdi
	callq	__ZN88_$LT$proc_macro2..TokenTree$u20$as$u20$core..convert..From$LT$proc_macro2..Punct$GT$$GT$4from17hfdd065e460bceb1cE
Ltmp2217:
	.loc	35 66 9 is_stmt 1
	movq	%r14, %rdi
	movq	%rbx, %rsi
	callq	__ZN110_$LT$proc_macro2..TokenStream$u20$as$u20$core..iter..traits..collect..Extend$LT$proc_macro2..TokenTree$GT$$GT$6extend17h525ee41798119d70E
Ltmp2218:
	.loc	35 0 9 is_stmt 0
	leaq	-32(%rbp), %rdi
Ltmp2219:
	.loc	39 249 27 is_stmt 1
	movl	$61, %esi
	xorl	%edx, %edx
	callq	__ZN11proc_macro25Punct3new17haa1ef7839e8e6033E
Ltmp2220:
	.loc	34 559 17
	movl	-24(%rbp), %eax
	movl	%eax, -40(%rbp)
	movq	-32(%rbp), %rax
	movq	%rax, -48(%rbp)
	leaq	-96(%rbp), %rbx
	leaq	-48(%rbp), %rsi
	.loc	34 559 9 is_stmt 0
	movq	%rbx, %rdi
	callq	__ZN88_$LT$proc_macro2..TokenTree$u20$as$u20$core..convert..From$LT$proc_macro2..Punct$GT$$GT$4from17hfdd065e460bceb1cE
Ltmp2221:
	.loc	35 66 9 is_stmt 1
	movq	%r14, %rdi
	movq	%rbx, %rsi
	callq	__ZN110_$LT$proc_macro2..TokenStream$u20$as$u20$core..iter..traits..collect..Extend$LT$proc_macro2..TokenTree$GT$$GT$6extend17h525ee41798119d70E
Ltmp2222:
	.loc	39 250 10
	addq	$80, %rsp
	popq	%rbx
	popq	%r14
Ltmp2223:
	popq	%rbp
	retq
Ltmp2224:
Lfunc_end99:
	.cfi_endproc

	.globl	__ZN5quote9__private19push_and_eq_spanned17h998a076e577bd978E
	.p2align	4, 0x90
__ZN5quote9__private19push_and_eq_spanned17h998a076e577bd978E:
Lfunc_begin100:
	.loc	39 251 0
	.cfi_startproc
	pushq	%rbp
	.cfi_def_cfa_offset 16
	.cfi_offset %rbp, -16
	movq	%rsp, %rbp
	.cfi_def_cfa_register %rbp
	pushq	%r15
	pushq	%r14
	pushq	%r12
	pushq	%rbx
	subq	$96, %rsp
	.cfi_offset %rbx, -48
	.cfi_offset %r12, -40
	.cfi_offset %r14, -32
	.cfi_offset %r15, -24
	movl	%esi, %r12d
Ltmp2225:
	movq	%rdi, %r14
Ltmp2226:
	leaq	-64(%rbp), %r15
Ltmp2227:
	.loc	39 252 29 prologue_end
	movq	%r15, %rdi
	movl	$38, %esi
	movl	$1, %edx
	callq	__ZN11proc_macro25Punct3new17haa1ef7839e8e6033E
Ltmp2228:
	.loc	39 253 13
	movq	%r15, %rdi
	movl	%r12d, %esi
	callq	__ZN11proc_macro25Punct8set_span17hdef1d6c18ea76287E
Ltmp2229:
	.loc	34 559 17
	movl	-56(%rbp), %eax
	movl	%eax, -40(%rbp)
	movq	-64(%rbp), %rax
	movq	%rax, -48(%rbp)
	leaq	-128(%rbp), %rbx
	leaq	-48(%rbp), %rsi
	.loc	34 559 9 is_stmt 0
	movq	%rbx, %rdi
	callq	__ZN88_$LT$proc_macro2..TokenTree$u20$as$u20$core..convert..From$LT$proc_macro2..Punct$GT$$GT$4from17hfdd065e460bceb1cE
Ltmp2230:
	.loc	35 66 9 is_stmt 1
	movq	%r14, %rdi
	movq	%rbx, %rsi
	callq	__ZN110_$LT$proc_macro2..TokenStream$u20$as$u20$core..iter..traits..collect..Extend$LT$proc_macro2..TokenTree$GT$$GT$6extend17h525ee41798119d70E
Ltmp2231:
	.loc	35 0 9 is_stmt 0
	leaq	-80(%rbp), %rbx
Ltmp2232:
	.loc	39 255 29 is_stmt 1
	movq	%rbx, %rdi
	movl	$61, %esi
	xorl	%edx, %edx
	callq	__ZN11proc_macro25Punct3new17haa1ef7839e8e6033E
Ltmp2233:
	.loc	39 256 13
	movq	%rbx, %rdi
	movl	%r12d, %esi
	callq	__ZN11proc_macro25Punct8set_span17hdef1d6c18ea76287E
Ltmp2234:
	.loc	34 559 17
	movl	-72(%rbp), %eax
	movl	%eax, -40(%rbp)
	movq	-80(%rbp), %rax
	movq	%rax, -48(%rbp)
	leaq	-128(%rbp), %rbx
	leaq	-48(%rbp), %rsi
	.loc	34 559 9 is_stmt 0
	movq	%rbx, %rdi
	callq	__ZN88_$LT$proc_macro2..TokenTree$u20$as$u20$core..convert..From$LT$proc_macro2..Punct$GT$$GT$4from17hfdd065e460bceb1cE
Ltmp2235:
	.loc	35 66 9 is_stmt 1
	movq	%r14, %rdi
	movq	%rbx, %rsi
	callq	__ZN110_$LT$proc_macro2..TokenStream$u20$as$u20$core..iter..traits..collect..Extend$LT$proc_macro2..TokenTree$GT$$GT$6extend17h525ee41798119d70E
Ltmp2236:
	.loc	39 258 10
	addq	$96, %rsp
	popq	%rbx
	popq	%r12
Ltmp2237:
	popq	%r14
Ltmp2238:
	popq	%r15
	popq	%rbp
	retq
Ltmp2239:
Lfunc_end100:
	.cfi_endproc

	.globl	__ZN5quote9__private7push_at17h4caf3a65ff3c9272E
	.p2align	4, 0x90
__ZN5quote9__private7push_at17h4caf3a65ff3c9272E:
Lfunc_begin101:
	.loc	39 237 0
	.cfi_startproc
	pushq	%rbp
	.cfi_def_cfa_offset 16
	.cfi_offset %rbp, -16
	movq	%rsp, %rbp
	.cfi_def_cfa_register %rbp
	pushq	%r14
	pushq	%rbx
	subq	$80, %rsp
	.cfi_offset %rbx, -32
	.cfi_offset %r14, -24
	movq	%rdi, %r14
Ltmp2240:
	leaq	-32(%rbp), %rdi
Ltmp2241:
	.loc	39 238 27 prologue_end
	movl	$64, %esi
	xorl	%edx, %edx
	callq	__ZN11proc_macro25Punct3new17haa1ef7839e8e6033E
Ltmp2242:
	.loc	34 559 17
	movl	-24(%rbp), %eax
	movl	%eax, -40(%rbp)
	movq	-32(%rbp), %rax
	movq	%rax, -48(%rbp)
	leaq	-96(%rbp), %rbx
	leaq	-48(%rbp), %rsi
	.loc	34 559 9 is_stmt 0
	movq	%rbx, %rdi
	callq	__ZN88_$LT$proc_macro2..TokenTree$u20$as$u20$core..convert..From$LT$proc_macro2..Punct$GT$$GT$4from17hfdd065e460bceb1cE
Ltmp2243:
	.loc	35 66 9 is_stmt 1
	movq	%r14, %rdi
Ltmp2244:
	movq	%rbx, %rsi
	callq	__ZN110_$LT$proc_macro2..TokenStream$u20$as$u20$core..iter..traits..collect..Extend$LT$proc_macro2..TokenTree$GT$$GT$6extend17h525ee41798119d70E
Ltmp2245:
	.loc	39 239 10
	addq	$80, %rsp
	popq	%rbx
	popq	%r14
Ltmp2246:
	popq	%rbp
	retq
Ltmp2247:
Lfunc_end101:
	.cfi_endproc

	.globl	__ZN5quote9__private15push_at_spanned17h045bd8f27a0ce639E
	.p2align	4, 0x90
__ZN5quote9__private15push_at_spanned17h045bd8f27a0ce639E:
Lfunc_begin102:
	.loc	39 240 0
	.cfi_startproc
	pushq	%rbp
	.cfi_def_cfa_offset 16
	.cfi_offset %rbp, -16
	movq	%rsp, %rbp
	.cfi_def_cfa_register %rbp
	pushq	%r15
	pushq	%r14
	pushq	%rbx
	subq	$88, %rsp
	.cfi_offset %rbx, -40
	.cfi_offset %r14, -32
	.cfi_offset %r15, -24
	movl	%esi, %ebx
Ltmp2248:
	movq	%rdi, %r14
Ltmp2249:
	leaq	-40(%rbp), %r15
Ltmp2250:
	.loc	39 241 29 prologue_end
	movq	%r15, %rdi
	movl	$64, %esi
	xorl	%edx, %edx
	callq	__ZN11proc_macro25Punct3new17haa1ef7839e8e6033E
Ltmp2251:
	.loc	39 242 13
	movq	%r15, %rdi
	movl	%ebx, %esi
Ltmp2252:
	callq	__ZN11proc_macro25Punct8set_span17hdef1d6c18ea76287E
Ltmp2253:
	.loc	34 559 17
	movl	-32(%rbp), %eax
	movl	%eax, -48(%rbp)
	movq	-40(%rbp), %rax
	movq	%rax, -56(%rbp)
	leaq	-104(%rbp), %rbx
	leaq	-56(%rbp), %rsi
	.loc	34 559 9 is_stmt 0
	movq	%rbx, %rdi
	callq	__ZN88_$LT$proc_macro2..TokenTree$u20$as$u20$core..convert..From$LT$proc_macro2..Punct$GT$$GT$4from17hfdd065e460bceb1cE
Ltmp2254:
	.loc	35 66 9 is_stmt 1
	movq	%r14, %rdi
Ltmp2255:
	movq	%rbx, %rsi
	callq	__ZN110_$LT$proc_macro2..TokenStream$u20$as$u20$core..iter..traits..collect..Extend$LT$proc_macro2..TokenTree$GT$$GT$6extend17h525ee41798119d70E
Ltmp2256:
	.loc	39 244 10
	addq	$88, %rsp
	popq	%rbx
	popq	%r14
Ltmp2257:
	popq	%r15
	popq	%rbp
	retq
Ltmp2258:
Lfunc_end102:
	.cfi_endproc

	.globl	__ZN5quote9__private9push_bang17hca8df8ee78fb6acfE
	.p2align	4, 0x90
__ZN5quote9__private9push_bang17hca8df8ee78fb6acfE:
Lfunc_begin103:
	.loc	39 237 0
	.cfi_startproc
	pushq	%rbp
	.cfi_def_cfa_offset 16
	.cfi_offset %rbp, -16
	movq	%rsp, %rbp
	.cfi_def_cfa_register %rbp
	pushq	%r14
	pushq	%rbx
	subq	$80, %rsp
	.cfi_offset %rbx, -32
	.cfi_offset %r14, -24
	movq	%rdi, %r14
Ltmp2259:
	leaq	-32(%rbp), %rdi
Ltmp2260:
	.loc	39 238 27 prologue_end
	movl	$33, %esi
	xorl	%edx, %edx
	callq	__ZN11proc_macro25Punct3new17haa1ef7839e8e6033E
Ltmp2261:
	.loc	34 559 17
	movl	-24(%rbp), %eax
	movl	%eax, -40(%rbp)
	movq	-32(%rbp), %rax
	movq	%rax, -48(%rbp)
	leaq	-96(%rbp), %rbx
	leaq	-48(%rbp), %rsi
	.loc	34 559 9 is_stmt 0
	movq	%rbx, %rdi
	callq	__ZN88_$LT$proc_macro2..TokenTree$u20$as$u20$core..convert..From$LT$proc_macro2..Punct$GT$$GT$4from17hfdd065e460bceb1cE
Ltmp2262:
	.loc	35 66 9 is_stmt 1
	movq	%r14, %rdi
Ltmp2263:
	movq	%rbx, %rsi
	callq	__ZN110_$LT$proc_macro2..TokenStream$u20$as$u20$core..iter..traits..collect..Extend$LT$proc_macro2..TokenTree$GT$$GT$6extend17h525ee41798119d70E
Ltmp2264:
	.loc	39 239 10
	addq	$80, %rsp
	popq	%rbx
	popq	%r14
Ltmp2265:
	popq	%rbp
	retq
Ltmp2266:
Lfunc_end103:
	.cfi_endproc

	.globl	__ZN5quote9__private17push_bang_spanned17h97ba0e3d0bd545c4E
	.p2align	4, 0x90
__ZN5quote9__private17push_bang_spanned17h97ba0e3d0bd545c4E:
Lfunc_begin104:
	.loc	39 240 0
	.cfi_startproc
	pushq	%rbp
	.cfi_def_cfa_offset 16
	.cfi_offset %rbp, -16
	movq	%rsp, %rbp
	.cfi_def_cfa_register %rbp
	pushq	%r15
	pushq	%r14
	pushq	%rbx
	subq	$88, %rsp
	.cfi_offset %rbx, -40
	.cfi_offset %r14, -32
	.cfi_offset %r15, -24
	movl	%esi, %ebx
Ltmp2267:
	movq	%rdi, %r14
Ltmp2268:
	leaq	-40(%rbp), %r15
Ltmp2269:
	.loc	39 241 29 prologue_end
	movq	%r15, %rdi
	movl	$33, %esi
	xorl	%edx, %edx
	callq	__ZN11proc_macro25Punct3new17haa1ef7839e8e6033E
Ltmp2270:
	.loc	39 242 13
	movq	%r15, %rdi
	movl	%ebx, %esi
Ltmp2271:
	callq	__ZN11proc_macro25Punct8set_span17hdef1d6c18ea76287E
Ltmp2272:
	.loc	34 559 17
	movl	-32(%rbp), %eax
	movl	%eax, -48(%rbp)
	movq	-40(%rbp), %rax
	movq	%rax, -56(%rbp)
	leaq	-104(%rbp), %rbx
	leaq	-56(%rbp), %rsi
	.loc	34 559 9 is_stmt 0
	movq	%rbx, %rdi
	callq	__ZN88_$LT$proc_macro2..TokenTree$u20$as$u20$core..convert..From$LT$proc_macro2..Punct$GT$$GT$4from17hfdd065e460bceb1cE
Ltmp2273:
	.loc	35 66 9 is_stmt 1
	movq	%r14, %rdi
Ltmp2274:
	movq	%rbx, %rsi
	callq	__ZN110_$LT$proc_macro2..TokenStream$u20$as$u20$core..iter..traits..collect..Extend$LT$proc_macro2..TokenTree$GT$$GT$6extend17h525ee41798119d70E
Ltmp2275:
	.loc	39 244 10
	addq	$88, %rsp
	popq	%rbx
	popq	%r14
Ltmp2276:
	popq	%r15
	popq	%rbp
	retq
Ltmp2277:
Lfunc_end104:
	.cfi_endproc

	.globl	__ZN5quote9__private10push_caret17hfd1f95ad39748c75E
	.p2align	4, 0x90
__ZN5quote9__private10push_caret17hfd1f95ad39748c75E:
Lfunc_begin105:
	.loc	39 237 0
	.cfi_startproc
	pushq	%rbp
	.cfi_def_cfa_offset 16
	.cfi_offset %rbp, -16
	movq	%rsp, %rbp
	.cfi_def_cfa_register %rbp
	pushq	%r14
	pushq	%rbx
	subq	$80, %rsp
	.cfi_offset %rbx, -32
	.cfi_offset %r14, -24
	movq	%rdi, %r14
Ltmp2278:
	leaq	-32(%rbp), %rdi
Ltmp2279:
	.loc	39 238 27 prologue_end
	movl	$94, %esi
	xorl	%edx, %edx
	callq	__ZN11proc_macro25Punct3new17haa1ef7839e8e6033E
Ltmp2280:
	.loc	34 559 17
	movl	-24(%rbp), %eax
	movl	%eax, -40(%rbp)
	movq	-32(%rbp), %rax
	movq	%rax, -48(%rbp)
	leaq	-96(%rbp), %rbx
	leaq	-48(%rbp), %rsi
	.loc	34 559 9 is_stmt 0
	movq	%rbx, %rdi
	callq	__ZN88_$LT$proc_macro2..TokenTree$u20$as$u20$core..convert..From$LT$proc_macro2..Punct$GT$$GT$4from17hfdd065e460bceb1cE
Ltmp2281:
	.loc	35 66 9 is_stmt 1
	movq	%r14, %rdi
Ltmp2282:
	movq	%rbx, %rsi
	callq	__ZN110_$LT$proc_macro2..TokenStream$u20$as$u20$core..iter..traits..collect..Extend$LT$proc_macro2..TokenTree$GT$$GT$6extend17h525ee41798119d70E
Ltmp2283:
	.loc	39 239 10
	addq	$80, %rsp
	popq	%rbx
	popq	%r14
Ltmp2284:
	popq	%rbp
	retq
Ltmp2285:
Lfunc_end105:
	.cfi_endproc

	.globl	__ZN5quote9__private18push_caret_spanned17hbf9a91b3e376e9bdE
	.p2align	4, 0x90
__ZN5quote9__private18push_caret_spanned17hbf9a91b3e376e9bdE:
Lfunc_begin106:
	.loc	39 240 0
	.cfi_startproc
	pushq	%rbp
	.cfi_def_cfa_offset 16
	.cfi_offset %rbp, -16
	movq	%rsp, %rbp
	.cfi_def_cfa_register %rbp
	pushq	%r15
	pushq	%r14
	pushq	%rbx
	subq	$88, %rsp
	.cfi_offset %rbx, -40
	.cfi_offset %r14, -32
	.cfi_offset %r15, -24
	movl	%esi, %ebx
Ltmp2286:
	movq	%rdi, %r14
Ltmp2287:
	leaq	-40(%rbp), %r15
Ltmp2288:
	.loc	39 241 29 prologue_end
	movq	%r15, %rdi
	movl	$94, %esi
	xorl	%edx, %edx
	callq	__ZN11proc_macro25Punct3new17haa1ef7839e8e6033E
Ltmp2289:
	.loc	39 242 13
	movq	%r15, %rdi
	movl	%ebx, %esi
Ltmp2290:
	callq	__ZN11proc_macro25Punct8set_span17hdef1d6c18ea76287E
Ltmp2291:
	.loc	34 559 17
	movl	-32(%rbp), %eax
	movl	%eax, -48(%rbp)
	movq	-40(%rbp), %rax
	movq	%rax, -56(%rbp)
	leaq	-104(%rbp), %rbx
	leaq	-56(%rbp), %rsi
	.loc	34 559 9 is_stmt 0
	movq	%rbx, %rdi
	callq	__ZN88_$LT$proc_macro2..TokenTree$u20$as$u20$core..convert..From$LT$proc_macro2..Punct$GT$$GT$4from17hfdd065e460bceb1cE
Ltmp2292:
	.loc	35 66 9 is_stmt 1
	movq	%r14, %rdi
Ltmp2293:
	movq	%rbx, %rsi
	callq	__ZN110_$LT$proc_macro2..TokenStream$u20$as$u20$core..iter..traits..collect..Extend$LT$proc_macro2..TokenTree$GT$$GT$6extend17h525ee41798119d70E
Ltmp2294:
	.loc	39 244 10
	addq	$88, %rsp
	popq	%rbx
	popq	%r14
Ltmp2295:
	popq	%r15
	popq	%rbp
	retq
Ltmp2296:
Lfunc_end106:
	.cfi_endproc

	.globl	__ZN5quote9__private13push_caret_eq17h6796481a28ab2c0bE
	.p2align	4, 0x90
__ZN5quote9__private13push_caret_eq17h6796481a28ab2c0bE:
Lfunc_begin107:
	.loc	39 247 0
	.cfi_startproc
	pushq	%rbp
	.cfi_def_cfa_offset 16
	.cfi_offset %rbp, -16
	movq	%rsp, %rbp
	.cfi_def_cfa_register %rbp
	pushq	%r14
	pushq	%rbx
	subq	$80, %rsp
	.cfi_offset %rbx, -32
	.cfi_offset %r14, -24
	movq	%rdi, %r14
Ltmp2297:
	leaq	-32(%rbp), %rdi
Ltmp2298:
	.loc	39 248 27 prologue_end
	movl	$94, %esi
	movl	$1, %edx
	callq	__ZN11proc_macro25Punct3new17haa1ef7839e8e6033E
Ltmp2299:
	.loc	34 559 17
	movl	-24(%rbp), %eax
	movl	%eax, -40(%rbp)
	movq	-32(%rbp), %rax
	movq	%rax, -48(%rbp)
	leaq	-96(%rbp), %rbx
	leaq	-48(%rbp), %rsi
	.loc	34 559 9 is_stmt 0
	movq	%rbx, %rdi
	callq	__ZN88_$LT$proc_macro2..TokenTree$u20$as$u20$core..convert..From$LT$proc_macro2..Punct$GT$$GT$4from17hfdd065e460bceb1cE
Ltmp2300:
	.loc	35 66 9 is_stmt 1
	movq	%r14, %rdi
	movq	%rbx, %rsi
	callq	__ZN110_$LT$proc_macro2..TokenStream$u20$as$u20$core..iter..traits..collect..Extend$LT$proc_macro2..TokenTree$GT$$GT$6extend17h525ee41798119d70E
Ltmp2301:
	.loc	35 0 9 is_stmt 0
	leaq	-32(%rbp), %rdi
Ltmp2302:
	.loc	39 249 27 is_stmt 1
	movl	$61, %esi
	xorl	%edx, %edx
	callq	__ZN11proc_macro25Punct3new17haa1ef7839e8e6033E
Ltmp2303:
	.loc	34 559 17
	movl	-24(%rbp), %eax
	movl	%eax, -40(%rbp)
	movq	-32(%rbp), %rax
	movq	%rax, -48(%rbp)
	leaq	-96(%rbp), %rbx
	leaq	-48(%rbp), %rsi
	.loc	34 559 9 is_stmt 0
	movq	%rbx, %rdi
	callq	__ZN88_$LT$proc_macro2..TokenTree$u20$as$u20$core..convert..From$LT$proc_macro2..Punct$GT$$GT$4from17hfdd065e460bceb1cE
Ltmp2304:
	.loc	35 66 9 is_stmt 1
	movq	%r14, %rdi
	movq	%rbx, %rsi
	callq	__ZN110_$LT$proc_macro2..TokenStream$u20$as$u20$core..iter..traits..collect..Extend$LT$proc_macro2..TokenTree$GT$$GT$6extend17h525ee41798119d70E
Ltmp2305:
	.loc	39 250 10
	addq	$80, %rsp
	popq	%rbx
	popq	%r14
Ltmp2306:
	popq	%rbp
	retq
Ltmp2307:
Lfunc_end107:
	.cfi_endproc

	.globl	__ZN5quote9__private21push_caret_eq_spanned17hf9b910fb71ecf6f7E
	.p2align	4, 0x90
__ZN5quote9__private21push_caret_eq_spanned17hf9b910fb71ecf6f7E:
Lfunc_begin108:
	.loc	39 251 0
	.cfi_startproc
	pushq	%rbp
	.cfi_def_cfa_offset 16
	.cfi_offset %rbp, -16
	movq	%rsp, %rbp
	.cfi_def_cfa_register %rbp
	pushq	%r15
	pushq	%r14
	pushq	%r12
	pushq	%rbx
	subq	$96, %rsp
	.cfi_offset %rbx, -48
	.cfi_offset %r12, -40
	.cfi_offset %r14, -32
	.cfi_offset %r15, -24
	movl	%esi, %r12d
Ltmp2308:
	movq	%rdi, %r14
Ltmp2309:
	leaq	-64(%rbp), %r15
Ltmp2310:
	.loc	39 252 29 prologue_end
	movq	%r15, %rdi
	movl	$94, %esi
	movl	$1, %edx
	callq	__ZN11proc_macro25Punct3new17haa1ef7839e8e6033E
Ltmp2311:
	.loc	39 253 13
	movq	%r15, %rdi
	movl	%r12d, %esi
	callq	__ZN11proc_macro25Punct8set_span17hdef1d6c18ea76287E
Ltmp2312:
	.loc	34 559 17
	movl	-56(%rbp), %eax
	movl	%eax, -40(%rbp)
	movq	-64(%rbp), %rax
	movq	%rax, -48(%rbp)
	leaq	-128(%rbp), %rbx
	leaq	-48(%rbp), %rsi
	.loc	34 559 9 is_stmt 0
	movq	%rbx, %rdi
	callq	__ZN88_$LT$proc_macro2..TokenTree$u20$as$u20$core..convert..From$LT$proc_macro2..Punct$GT$$GT$4from17hfdd065e460bceb1cE
Ltmp2313:
	.loc	35 66 9 is_stmt 1
	movq	%r14, %rdi
	movq	%rbx, %rsi
	callq	__ZN110_$LT$proc_macro2..TokenStream$u20$as$u20$core..iter..traits..collect..Extend$LT$proc_macro2..TokenTree$GT$$GT$6extend17h525ee41798119d70E
Ltmp2314:
	.loc	35 0 9 is_stmt 0
	leaq	-80(%rbp), %rbx
Ltmp2315:
	.loc	39 255 29 is_stmt 1
	movq	%rbx, %rdi
	movl	$61, %esi
	xorl	%edx, %edx
	callq	__ZN11proc_macro25Punct3new17haa1ef7839e8e6033E
Ltmp2316:
	.loc	39 256 13
	movq	%rbx, %rdi
	movl	%r12d, %esi
	callq	__ZN11proc_macro25Punct8set_span17hdef1d6c18ea76287E
Ltmp2317:
	.loc	34 559 17
	movl	-72(%rbp), %eax
	movl	%eax, -40(%rbp)
	movq	-80(%rbp), %rax
	movq	%rax, -48(%rbp)
	leaq	-128(%rbp), %rbx
	leaq	-48(%rbp), %rsi
	.loc	34 559 9 is_stmt 0
	movq	%rbx, %rdi
	callq	__ZN88_$LT$proc_macro2..TokenTree$u20$as$u20$core..convert..From$LT$proc_macro2..Punct$GT$$GT$4from17hfdd065e460bceb1cE
Ltmp2318:
	.loc	35 66 9 is_stmt 1
	movq	%r14, %rdi
	movq	%rbx, %rsi
	callq	__ZN110_$LT$proc_macro2..TokenStream$u20$as$u20$core..iter..traits..collect..Extend$LT$proc_macro2..TokenTree$GT$$GT$6extend17h525ee41798119d70E
Ltmp2319:
	.loc	39 258 10
	addq	$96, %rsp
	popq	%rbx
	popq	%r12
Ltmp2320:
	popq	%r14
Ltmp2321:
	popq	%r15
	popq	%rbp
	retq
Ltmp2322:
Lfunc_end108:
	.cfi_endproc

	.globl	__ZN5quote9__private10push_colon17h43ed82e54dc0d8eeE
	.p2align	4, 0x90
__ZN5quote9__private10push_colon17h43ed82e54dc0d8eeE:
Lfunc_begin109:
	.loc	39 237 0
	.cfi_startproc
	pushq	%rbp
	.cfi_def_cfa_offset 16
	.cfi_offset %rbp, -16
	movq	%rsp, %rbp
	.cfi_def_cfa_register %rbp
	pushq	%r14
	pushq	%rbx
	subq	$80, %rsp
	.cfi_offset %rbx, -32
	.cfi_offset %r14, -24
	movq	%rdi, %r14
Ltmp2323:
	leaq	-32(%rbp), %rdi
Ltmp2324:
	.loc	39 238 27 prologue_end
	movl	$58, %esi
	xorl	%edx, %edx
	callq	__ZN11proc_macro25Punct3new17haa1ef7839e8e6033E
Ltmp2325:
	.loc	34 559 17
	movl	-24(%rbp), %eax
	movl	%eax, -40(%rbp)
	movq	-32(%rbp), %rax
	movq	%rax, -48(%rbp)
	leaq	-96(%rbp), %rbx
	leaq	-48(%rbp), %rsi
	.loc	34 559 9 is_stmt 0
	movq	%rbx, %rdi
	callq	__ZN88_$LT$proc_macro2..TokenTree$u20$as$u20$core..convert..From$LT$proc_macro2..Punct$GT$$GT$4from17hfdd065e460bceb1cE
Ltmp2326:
	.loc	35 66 9 is_stmt 1
	movq	%r14, %rdi
Ltmp2327:
	movq	%rbx, %rsi
	callq	__ZN110_$LT$proc_macro2..TokenStream$u20$as$u20$core..iter..traits..collect..Extend$LT$proc_macro2..TokenTree$GT$$GT$6extend17h525ee41798119d70E
Ltmp2328:
	.loc	39 239 10
	addq	$80, %rsp
	popq	%rbx
	popq	%r14
Ltmp2329:
	popq	%rbp
	retq
Ltmp2330:
Lfunc_end109:
	.cfi_endproc

	.globl	__ZN5quote9__private18push_colon_spanned17hbfe2dffcb4f507ccE
	.p2align	4, 0x90
__ZN5quote9__private18push_colon_spanned17hbfe2dffcb4f507ccE:
Lfunc_begin110:
	.loc	39 240 0
	.cfi_startproc
	pushq	%rbp
	.cfi_def_cfa_offset 16
	.cfi_offset %rbp, -16
	movq	%rsp, %rbp
	.cfi_def_cfa_register %rbp
	pushq	%r15
	pushq	%r14
	pushq	%rbx
	subq	$88, %rsp
	.cfi_offset %rbx, -40
	.cfi_offset %r14, -32
	.cfi_offset %r15, -24
	movl	%esi, %ebx
Ltmp2331:
	movq	%rdi, %r14
Ltmp2332:
	leaq	-40(%rbp), %r15
Ltmp2333:
	.loc	39 241 29 prologue_end
	movq	%r15, %rdi
	movl	$58, %esi
	xorl	%edx, %edx
	callq	__ZN11proc_macro25Punct3new17haa1ef7839e8e6033E
Ltmp2334:
	.loc	39 242 13
	movq	%r15, %rdi
	movl	%ebx, %esi
Ltmp2335:
	callq	__ZN11proc_macro25Punct8set_span17hdef1d6c18ea76287E
Ltmp2336:
	.loc	34 559 17
	movl	-32(%rbp), %eax
	movl	%eax, -48(%rbp)
	movq	-40(%rbp), %rax
	movq	%rax, -56(%rbp)
	leaq	-104(%rbp), %rbx
	leaq	-56(%rbp), %rsi
	.loc	34 559 9 is_stmt 0
	movq	%rbx, %rdi
