	.section	__TEXT,__text,regular,pure_instructions
	.macosx_version_min 10, 7
	.file	1 "/Users/yingyuhang/.cargo/git/checkouts/rand-cc8f5b7ec2d3b6d9/dca9cb5/src/rngs/adapter/reseeding.rs"
	.file	2 "/rustc/6c8927b0cf80ceee19386026cf9d7fd4fd9d486f/src/libstd/thread/local.rs"
	.p2align	4, 0x90
__ZN3std4sync4once4Once9call_once28_$u7b$$u7b$closure$u7d$$u7d$17h4a15133d055c2b34E:
Lfunc_begin0:
	.file	3 "/rustc/6c8927b0cf80ceee19386026cf9d7fd4fd9d486f/src/libstd/sync/once.rs"
	.loc	3 265 0
	.cfi_startproc
	pushq	%rbp
	.cfi_def_cfa_offset 16
	.cfi_offset %rbp, -16
	movq	%rsp, %rbp
	.cfi_def_cfa_register %rbp
Ltmp0:
	.loc	3 265 41 prologue_end
	movq	(%rdi), %rax
Ltmp1:
	.file	4 "/rustc/6c8927b0cf80ceee19386026cf9d7fd4fd9d486f/src/libcore/option.rs"
	.loc	4 385 13
	testb	$1, (%rax)
Ltmp2:
	.file	5 "/rustc/6c8927b0cf80ceee19386026cf9d7fd4fd9d486f/src/libcore/intrinsics.rs"
	.loc	5 2130 14
	movb	$0, (%rax)
Ltmp3:
	.loc	4 385 13
	je	LBB0_1
Ltmp4:
	.loc	1 314 13
	leaq	__ZN4rand4rngs7adapter9reseeding4fork12fork_handler17h1994d23496c74710E(%rip), %rdx
	xorl	%edi, %edi
Ltmp5:
	xorl	%esi, %esi
Ltmp6:
	popq	%rbp
	jmp	_pthread_atfork
Ltmp7:
LBB0_1:
	.file	6 "/rustc/6c8927b0cf80ceee19386026cf9d7fd4fd9d486f/src/libcore/macros/mod.rs"
	.loc	6 10 9
	leaq	l___unnamed_23(%rip), %rdi
Ltmp8:
	leaq	l___unnamed_24(%rip), %rdx
	movl	$43, %esi
Ltmp9:
	callq	__ZN4core9panicking5panic17h383a6b80ea7021aaE
Ltmp10:
Lfunc_end0:
	.cfi_endproc
	.file	7 "/rustc/6c8927b0cf80ceee19386026cf9d7fd4fd9d486f/src/libcore/ptr/mod.rs"
	.file	8 "/rustc/6c8927b0cf80ceee19386026cf9d7fd4fd9d486f/src/libcore/mem/mod.rs"

	.p2align	4, 0x90
__ZN3std5error5Error7type_id17he9fc8e193455c591E:
Lfunc_begin1:
	.file	9 "/rustc/6c8927b0cf80ceee19386026cf9d7fd4fd9d486f/src/libstd/error.rs"
	.loc	9 111 0
	.cfi_startproc
	pushq	%rbp
	.cfi_def_cfa_offset 16
	.cfi_offset %rbp, -16
	movq	%rsp, %rbp
	.cfi_def_cfa_register %rbp
	movabsq	$7508826005076360610, %rax
Ltmp11:
	.loc	9 116 6 prologue_end
	popq	%rbp
	retq
Ltmp12:
Lfunc_end1:
	.cfi_endproc

	.p2align	4, 0x90
__ZN3std5error5Error9backtrace17h8767d39a8a83466eE:
Lfunc_begin2:
	.loc	9 128 0
	.cfi_startproc
	pushq	%rbp
	.cfi_def_cfa_offset 16
	.cfi_offset %rbp, -16
	movq	%rsp, %rbp
	.cfi_def_cfa_register %rbp
Ltmp13:
	.loc	9 130 6 prologue_end
	xorl	%eax, %eax
	popq	%rbp
	retq
Ltmp14:
Lfunc_end2:
	.cfi_endproc

	.section	__TEXT,__literal16,16byte_literals
	.p2align	4
LCPI3_0:
	.quad	1
	.quad	64
LCPI3_1:
	.quad	65536
	.quad	65536
LCPI3_2:
	.space	16
	.section	__TEXT,__text,regular,pure_instructions
	.p2align	4, 0x90
__ZN3std6thread5local4fast12Key$LT$T$GT$14try_initialize17h0696ded78977b7eaE:
Lfunc_begin3:
	.file	10 "/rustc/6c8927b0cf80ceee19386026cf9d7fd4fd9d486f/src/libstd/thread/local.rs"
	.loc	10 423 0
	.cfi_startproc
	pushq	%rbp
	.cfi_def_cfa_offset 16
	.cfi_offset %rbp, -16
	movq	%rsp, %rbp
	.cfi_def_cfa_register %rbp
Ltmp15:
	pushq	%r15
	pushq	%r14
	pushq	%r13
	pushq	%r12
	pushq	%rbx
	andq	$-32, %rsp
	subq	$128, %rsp
	.cfi_offset %rbx, -56
	.cfi_offset %r12, -48
	.cfi_offset %r13, -40
	.cfi_offset %r14, -32
	.cfi_offset %r15, -24
	.file	11 "/rustc/6c8927b0cf80ceee19386026cf9d7fd4fd9d486f/src/libcore/array/mod.rs"
	.loc	11 353 17 prologue_end
	xorps	%xmm0, %xmm0
	movaps	%xmm0, 48(%rsp)
	movaps	%xmm0, 32(%rsp)
Ltmp16:
	.loc	11 0 17 is_stmt 0
	leaq	24(%rsp), %r14
	leaq	32(%rsp), %rsi
Ltmp17:
	.file	12 "/Users/yingyuhang/.cargo/git/checkouts/rand-cc8f5b7ec2d3b6d9/dca9cb5/rand_core/src/lib.rs"
	.loc	12 348 9 is_stmt 1
	movl	$32, %edx
	movq	%r14, %rdi
	callq	__ZN59_$LT$rand_core..os..OsRng$u20$as$u20$rand_core..RngCore$GT$14try_fill_bytes17h53035dcb5a91a77dE
	.loc	12 348 42 is_stmt 0
	testq	%rax, %rax
	jne	LBB3_4
Ltmp18:
	.loc	12 349 28 is_stmt 1
	movaps	48(%rsp), %xmm0
Ltmp19:
	.loc	12 0 28 is_stmt 0
	movaps	%xmm0, 64(%rsp)
	.loc	12 349 9
	movq	32(%rsp), %r12
Ltmp20:
	.file	13 "/rustc/6c8927b0cf80ceee19386026cf9d7fd4fd9d486f/src/libcore/result.rs"
	.loc	13 852 16 is_stmt 1
	movq	40(%rsp), %r13
Ltmp21:
	.file	14 "/Users/yingyuhang/.cargo/git/checkouts/rand-cc8f5b7ec2d3b6d9/dca9cb5/rand_chacha/src/guts.rs"
	.loc	14 221 13
	leaq	L___unnamed_25(%rip), %rdi
Ltmp22:
	movl	$4, %esi
	callq	__ZN11rand_chacha4guts10read_u32le17hd86f813c661891a5E
Ltmp23:
	movl	%eax, %r15d
Ltmp24:
	.loc	14 222 13
	leaq	L___unnamed_25+4(%rip), %rdi
	movl	$4, %esi
	callq	__ZN11rand_chacha4guts10read_u32le17hd86f813c661891a5E
	movl	%eax, %ebx
Ltmp25:
	.file	15 "/rustc/6c8927b0cf80ceee19386026cf9d7fd4fd9d486f/src/libcore/sync/atomic.rs"
	.loc	15 2355 24
	movq	__ZN4rand4rngs7adapter9reseeding4fork21register_fork_handler8REGISTER17ha747af42642fc444E(%rip), %rax
Ltmp26:
	.loc	3 374 9
	cmpq	$3, %rax
Ltmp27:
	.loc	3 260 9
	jne	LBB3_2
Ltmp28:
LBB3_3:
	.loc	10 304 50
	movq	%r13, %xmm0
	movq	%r12, %xmm1
	punpcklqdq	%xmm0, %xmm1
	movdqa	%xmm1, 80(%rsp)
	movaps	64(%rsp), %xmm0
	movaps	%xmm0, 32(%rsp)
	movq	$0, 48(%rsp)
	movl	%r15d, 56(%rsp)
	movl	%ebx, 60(%rsp)
Ltmp29:
	.loc	10 304 45 is_stmt 0
	movaps	32(%rsp), %xmm0
	movaps	%xmm0, 64(%rsp)
	movq	48(%rsp), %r14
	movl	56(%rsp), %r15d
Ltmp30:
	movl	60(%rsp), %r12d
Ltmp31:
	.loc	5 2130 14 is_stmt 1
	movq	__ZN4rand4rngs6thread14THREAD_RNG_KEY7__getit5__KEY17hcc6d051e5ae6bdebE@TLVP(%rip), %rdi
Ltmp32:
	callq	*(%rdi)
	movq	%rax, %rbx
Ltmp33:
	xorps	%xmm0, %xmm0
	movups	%xmm0, 16(%rax)
	movaps	LCPI3_0(%rip), %xmm0
	movups	%xmm0, (%rax)
Ltmp34:
	leaq	32(%rax), %rdi
	movl	$224, %esi
	callq	___bzero
	movaps	80(%rsp), %xmm0
	movups	%xmm0, 272(%rbx)
	xorps	%xmm0, %xmm0
	movups	%xmm0, 256(%rbx)
	movq	%r14, 304(%rbx)
	movl	%r15d, 312(%rbx)
	movl	%r12d, 316(%rbx)
	movaps	64(%rsp), %xmm0
	movups	%xmm0, 288(%rbx)
Ltmp35:
	.loc	5 2130 14 is_stmt 0
	movaps	LCPI3_1(%rip), %xmm0
	movups	%xmm0, 320(%rbx)
	movq	$0, 336(%rbx)
Ltmp36:
	.loc	10 429 10 is_stmt 1
	addq	$8, %rbx
Ltmp37:
	movq	%rbx, %rax
Ltmp38:
	leaq	-40(%rbp), %rsp
	popq	%rbx
	popq	%r12
	popq	%r13
Ltmp39:
	popq	%r14
	popq	%r15
	popq	%rbp
	retq
Ltmp40:
LBB3_2:
	.loc	3 264 21
	movb	$1, 24(%rsp)
Ltmp41:
	.loc	3 265 37
	movq	%r14, 32(%rsp)
	.loc	3 265 9 is_stmt 0
	leaq	__ZN4rand4rngs7adapter9reseeding4fork21register_fork_handler8REGISTER17ha747af42642fc444E(%rip), %rdi
	leaq	l___unnamed_1(%rip), %rcx
	leaq	32(%rsp), %rdx
	xorl	%esi, %esi
	callq	__ZN3std4sync4once4Once10call_inner17hfcd38045e50af9d3E
	jmp	LBB3_3
Ltmp42:
LBB3_4:
	.loc	13 853 23 is_stmt 1
	movq	%rax, %rdi
	movq	%rdx, %rsi
	callq	__ZN4rand4rngs6thread14THREAD_RNG_KEY6__init28_$u7b$$u7b$closure$u7d$$u7d$17h6fc87e8e5d7769fdE
Ltmp43:
Lfunc_end3:
	.cfi_endproc
	.file	16 "/Users/yingyuhang/.cargo/git/checkouts/rand-cc8f5b7ec2d3b6d9/dca9cb5/src/rngs/thread.rs"
	.file	17 "/rustc/6c8927b0cf80ceee19386026cf9d7fd4fd9d486f/src/libcore/ops/function.rs"
	.file	18 "/Users/yingyuhang/.cargo/registry/src/github.com-1ecc6299db9ec823/ppv-lite86-0.2.8/src/generic.rs"
	.file	19 "/Users/yingyuhang/.cargo/git/checkouts/rand-cc8f5b7ec2d3b6d9/dca9cb5/rand_chacha/src/chacha.rs"

	.p2align	4, 0x90
__ZN42_$LT$$RF$T$u20$as$u20$core..fmt..Debug$GT$3fmt17h28321f8b334ec0cfE:
Lfunc_begin4:
	.file	20 "/rustc/6c8927b0cf80ceee19386026cf9d7fd4fd9d486f/src/libcore/fmt/mod.rs"
	.loc	20 2022 0
	.cfi_startproc
	pushq	%rbp
	.cfi_def_cfa_offset 16
	.cfi_offset %rbp, -16
	movq	%rsp, %rbp
	.cfi_def_cfa_register %rbp
Ltmp44:
	pushq	%r15
	pushq	%r14
	pushq	%r13
	pushq	%r12
	pushq	%rbx
	subq	$24, %rsp
	.cfi_offset %rbx, -56
	.cfi_offset %r12, -48
	.cfi_offset %r13, -40
	.cfi_offset %r14, -32
	.cfi_offset %r15, -24
	.loc	20 2022 71 prologue_end
	movq	(%rdi), %rax
Ltmp45:
	.file	21 "/rustc/6c8927b0cf80ceee19386026cf9d7fd4fd9d486f/src/liballoc/vec.rs"
	.loc	21 818 19
	movq	(%rax), %rbx
Ltmp46:
	.loc	21 1923 55
	movq	16(%rax), %r13
Ltmp47:
	.loc	21 0 55 is_stmt 0
	leaq	-64(%rbp), %rdi
Ltmp48:
	.loc	20 2211 9 is_stmt 1
	callq	__ZN4core3fmt9Formatter10debug_list17h113a4e31f24f00d7E
Ltmp49:
	.file	22 "/rustc/6c8927b0cf80ceee19386026cf9d7fd4fd9d486f/src/libcore/slice/mod.rs"
	.loc	22 3440 9
	testq	%r13, %r13
	.loc	22 3570 21
	je	LBB4_3
Ltmp50:
	shlq	$2, %r13
Ltmp51:
	.loc	22 0 21 is_stmt 0
	leaq	l___unnamed_2(%rip), %r14
	leaq	-64(%rbp), %r15
	leaq	-48(%rbp), %r12
Ltmp52:
	.p2align	4, 0x90
LBB4_2:
	.file	23 "/rustc/6c8927b0cf80ceee19386026cf9d7fd4fd9d486f/src/libcore/fmt/builders.rs"
	.loc	23 661 22 is_stmt 1
	movq	%rbx, -48(%rbp)
Ltmp53:
	.file	24 "/rustc/6c8927b0cf80ceee19386026cf9d7fd4fd9d486f/src/libcore/ptr/mut_ptr.rs"
	.loc	24 165 18
	addq	$4, %rbx
Ltmp54:
	.loc	23 662 13
	movq	%r15, %rdi
	movq	%r12, %rsi
	movq	%r14, %rdx
	callq	__ZN4core3fmt8builders9DebugList5entry17h2dea26f6c644471aE
Ltmp55:
	.loc	22 3440 9
	addq	$-4, %r13
	.loc	22 3570 21
	jne	LBB4_2
Ltmp56:
LBB4_3:
	.loc	22 0 21 is_stmt 0
	leaq	-64(%rbp), %rdi
	.loc	20 2211 9 is_stmt 1
	callq	__ZN4core3fmt8builders9DebugList6finish17h1537bc92ee1acb1cE
Ltmp57:
	.loc	20 2022 84
	addq	$24, %rsp
	popq	%rbx
	popq	%r12
	popq	%r13
	popq	%r14
	popq	%r15
	popq	%rbp
	retq
Ltmp58:
Lfunc_end4:
	.cfi_endproc

	.p2align	4, 0x90
__ZN42_$LT$$RF$T$u20$as$u20$core..fmt..Debug$GT$3fmt17h285824563ed0cf4fE:
Lfunc_begin5:
	.loc	20 2022 0
	.cfi_startproc
	pushq	%rbp
	.cfi_def_cfa_offset 16
	.cfi_offset %rbp, -16
	movq	%rsp, %rbp
	.cfi_def_cfa_register %rbp
	pushq	%r14
	pushq	%rbx
	.cfi_offset %rbx, -32
	.cfi_offset %r14, -24
	movq	%rsi, %rbx
Ltmp59:
	.loc	20 2022 71 prologue_end
	movq	(%rdi), %r14
Ltmp60:
	.file	25 "/rustc/6c8927b0cf80ceee19386026cf9d7fd4fd9d486f/src/libcore/fmt/num.rs"
	.loc	25 149 20
	movq	%rsi, %rdi
Ltmp61:
	callq	__ZN4core3fmt9Formatter15debug_lower_hex17hd07f6fde8d0365dfE
	.loc	25 149 17 is_stmt 0
	testb	%al, %al
	je	LBB5_1
Ltmp62:
	.loc	25 150 21 is_stmt 1
	movq	%r14, %rdi
	movq	%rbx, %rsi
	popq	%rbx
Ltmp63:
	popq	%r14
Ltmp64:
	popq	%rbp
	jmp	__ZN4core3fmt3num53_$LT$impl$u20$core..fmt..LowerHex$u20$for$u20$u32$GT$3fmt17h019ba2b9dd60d385E
LBB5_1:
Ltmp65:
	.loc	25 151 27
	movq	%rbx, %rdi
	callq	__ZN4core3fmt9Formatter15debug_upper_hex17hf480c256a9c81c1eE
	.loc	25 154 21
	movq	%r14, %rdi
	movq	%rbx, %rsi
	.loc	25 151 24
	testb	%al, %al
	je	LBB5_4
Ltmp66:
	.loc	25 152 21
	popq	%rbx
Ltmp67:
	popq	%r14
Ltmp68:
	popq	%rbp
	jmp	__ZN4core3fmt3num53_$LT$impl$u20$core..fmt..UpperHex$u20$for$u20$u32$GT$3fmt17h7bd10b5f3c9584f1E
LBB5_4:
Ltmp69:
	.loc	25 154 21
	popq	%rbx
Ltmp70:
	popq	%r14
Ltmp71:
	popq	%rbp
	jmp	__ZN4core3fmt3num3imp52_$LT$impl$u20$core..fmt..Display$u20$for$u20$u32$GT$3fmt17hb70882cf65fd1a66E
Ltmp72:
Lfunc_end5:
	.cfi_endproc

	.p2align	4, 0x90
__ZN42_$LT$$RF$T$u20$as$u20$core..fmt..Debug$GT$3fmt17h4133ef25479f3694E:
Lfunc_begin6:
	.loc	20 2022 0
	.cfi_startproc
	pushq	%rbp
	.cfi_def_cfa_offset 16
	.cfi_offset %rbp, -16
	movq	%rsp, %rbp
	.cfi_def_cfa_register %rbp
Ltmp73:
	pushq	%r15
	pushq	%r14
	pushq	%r12
	pushq	%rbx
	subq	$32, %rsp
	.cfi_offset %rbx, -48
	.cfi_offset %r12, -40
	.cfi_offset %r14, -32
	.cfi_offset %r15, -24
	.loc	20 2022 71 prologue_end
	movq	(%rdi), %rbx
Ltmp74:
	.file	26 "/Users/yingyuhang/.cargo/git/checkouts/rand-cc8f5b7ec2d3b6d9/dca9cb5/src/distributions/uniform.rs"
	.loc	26 417 23
	leaq	l___unnamed_26(%rip), %rdx
	leaq	-56(%rbp), %r15
	movl	$10, %ecx
	movq	%r15, %rdi
Ltmp75:
	callq	__ZN4core3fmt9Formatter12debug_struct17ha1a64e91d2a98458E
Ltmp76:
	.loc	26 420 5
	movq	%rbx, -40(%rbp)
Ltmp77:
	.loc	26 421 5
	leaq	4(%rbx), %r12
	.loc	26 422 5
	addq	$8, %rbx
Ltmp78:
	.loc	26 417 23
	leaq	l___unnamed_27(%rip), %rsi
	leaq	l___unnamed_2(%rip), %r14
	leaq	-40(%rbp), %rcx
	movl	$3, %edx
	movq	%r15, %rdi
	movq	%r14, %r8
	callq	__ZN4core3fmt8builders11DebugStruct5field17h6c54d35ac41bb1e6E
	.loc	26 421 5
	movq	%r12, -40(%rbp)
	.loc	26 417 23
	leaq	l___unnamed_28(%rip), %rsi
	leaq	-40(%rbp), %rcx
	movl	$5, %edx
	movq	%r15, %rdi
	movq	%r14, %r8
	callq	__ZN4core3fmt8builders11DebugStruct5field17h6c54d35ac41bb1e6E
	.loc	26 422 5
	movq	%rbx, -40(%rbp)
	.loc	26 417 23
	leaq	l___unnamed_29(%rip), %rsi
	leaq	-40(%rbp), %rcx
	movl	$1, %edx
	movq	%r15, %rdi
	movq	%r14, %r8
	callq	__ZN4core3fmt8builders11DebugStruct5field17h6c54d35ac41bb1e6E
	movq	%r15, %rdi
	callq	__ZN4core3fmt8builders11DebugStruct6finish17h67ed49fd5e81bb24E
Ltmp79:
	.loc	20 2022 84
	addq	$32, %rsp
	popq	%rbx
	popq	%r12
	popq	%r14
	popq	%r15
	popq	%rbp
	retq
Ltmp80:
Lfunc_end6:
	.cfi_endproc
	.file	27 "/Users/yingyuhang/.cargo/git/checkouts/rand-cc8f5b7ec2d3b6d9/dca9cb5/src/lib.rs"

	.p2align	4, 0x90
__ZN42_$LT$$RF$T$u20$as$u20$core..fmt..Debug$GT$3fmt17h4c929420f9cc94c3E:
Lfunc_begin7:
	.loc	20 2022 0
	.cfi_startproc
	pushq	%rbp
	.cfi_def_cfa_offset 16
	.cfi_offset %rbp, -16
	movq	%rsp, %rbp
	.cfi_def_cfa_register %rbp
Ltmp81:
	pushq	%r15
	pushq	%r14
	pushq	%rbx
	subq	$40, %rsp
	.cfi_offset %rbx, -40
	.cfi_offset %r14, -32
	.cfi_offset %r15, -24
	.loc	20 2022 71 prologue_end
	movq	(%rdi), %rax
	.loc	20 2022 62 is_stmt 0
	movq	16(%rax), %r15
	movq	24(%rax), %rbx
Ltmp82:
	.loc	21 2599 9 is_stmt 1
	leaq	L___unnamed_30(%rip), %rdx
	leaq	-64(%rbp), %r14
	movl	$8, %ecx
	movq	%r14, %rdi
Ltmp83:
	callq	__ZN4core3fmt9Formatter11debug_tuple17h6c448643801d07e8E
Ltmp84:
	.file	28 "/rustc/6c8927b0cf80ceee19386026cf9d7fd4fd9d486f/src/libcore/ptr/const_ptr.rs"
	.loc	28 300 18
	subq	%r15, %rbx
	sarq	$3, %rbx
Ltmp85:
	.loc	21 2599 42
	movq	%r15, -40(%rbp)
	movq	%rbx, -32(%rbp)
	.loc	21 2599 9 is_stmt 0
	leaq	l___unnamed_5(%rip), %rdx
	leaq	-40(%rbp), %rsi
	movq	%r14, %rdi
	callq	__ZN4core3fmt8builders10DebugTuple5field17hc7b676d0e36b51d9E
	movq	%rax, %rdi
	callq	__ZN4core3fmt8builders10DebugTuple6finish17h9f206806f7096c33E
Ltmp86:
	.loc	20 2022 84 is_stmt 1
	addq	$40, %rsp
	popq	%rbx
	popq	%r14
	popq	%r15
Ltmp87:
	popq	%rbp
	retq
Ltmp88:
Lfunc_end7:
	.cfi_endproc
	.file	29 "/rustc/6c8927b0cf80ceee19386026cf9d7fd4fd9d486f/src/libcore/iter/traits/exact_size.rs"

	.p2align	4, 0x90
__ZN42_$LT$$RF$T$u20$as$u20$core..fmt..Debug$GT$3fmt17h5b28c4f911f71dc1E:
Lfunc_begin8:
	.loc	20 2022 0
	.cfi_startproc
	pushq	%rbp
	.cfi_def_cfa_offset 16
	.cfi_offset %rbp, -16
	movq	%rsp, %rbp
	.cfi_def_cfa_register %rbp
	pushq	%r14
	pushq	%rbx
	.cfi_offset %rbx, -32
	.cfi_offset %r14, -24
	movq	%rsi, %rbx
Ltmp89:
	.loc	20 2022 71 prologue_end
	movq	(%rdi), %r14
Ltmp90:
	.loc	25 149 20
	movq	%rsi, %rdi
Ltmp91:
	callq	__ZN4core3fmt9Formatter15debug_lower_hex17hd07f6fde8d0365dfE
	.loc	25 149 17 is_stmt 0
	testb	%al, %al
	je	LBB8_1
Ltmp92:
	.loc	25 150 21 is_stmt 1
	movq	%r14, %rdi
	movq	%rbx, %rsi
	popq	%rbx
Ltmp93:
	popq	%r14
Ltmp94:
	popq	%rbp
	jmp	__ZN4core3fmt3num53_$LT$impl$u20$core..fmt..LowerHex$u20$for$u20$u64$GT$3fmt17hb1b2554e6a6ce90cE
LBB8_1:
Ltmp95:
	.loc	25 151 27
	movq	%rbx, %rdi
	callq	__ZN4core3fmt9Formatter15debug_upper_hex17hf480c256a9c81c1eE
	.loc	25 154 21
	movq	%r14, %rdi
	movq	%rbx, %rsi
	.loc	25 151 24
	testb	%al, %al
	je	LBB8_4
Ltmp96:
	.loc	25 152 21
	popq	%rbx
Ltmp97:
	popq	%r14
Ltmp98:
	popq	%rbp
	jmp	__ZN4core3fmt3num53_$LT$impl$u20$core..fmt..UpperHex$u20$for$u20$u64$GT$3fmt17h67a4ddf8c7fd5f2bE
LBB8_4:
Ltmp99:
	.loc	25 154 21
	popq	%rbx
Ltmp100:
	popq	%r14
Ltmp101:
	popq	%rbp
	jmp	__ZN4core3fmt3num3imp52_$LT$impl$u20$core..fmt..Display$u20$for$u20$u64$GT$3fmt17h3230c9bc78e30ed1E
Ltmp102:
Lfunc_end8:
	.cfi_endproc

	.p2align	4, 0x90
__ZN42_$LT$$RF$T$u20$as$u20$core..fmt..Debug$GT$3fmt17h6069bfc937400ca1E:
Lfunc_begin9:
	.loc	20 2022 0
	.cfi_startproc
	pushq	%rbp
	.cfi_def_cfa_offset 16
	.cfi_offset %rbp, -16
	movq	%rsp, %rbp
	.cfi_def_cfa_register %rbp
Ltmp103:
	pushq	%r15
	pushq	%r14
	pushq	%r12
	pushq	%rbx
	subq	$32, %rsp
	.cfi_offset %rbx, -48
	.cfi_offset %r12, -40
	.cfi_offset %r14, -32
	.cfi_offset %r15, -24
	.loc	20 2022 71 prologue_end
	movq	(%rdi), %rbx
Ltmp104:
	.loc	26 417 23
	leaq	l___unnamed_26(%rip), %rdx
	leaq	-56(%rbp), %r15
	movl	$10, %ecx
	movq	%r15, %rdi
Ltmp105:
	callq	__ZN4core3fmt9Formatter12debug_struct17ha1a64e91d2a98458E
Ltmp106:
	.loc	26 420 5
	movq	%rbx, -40(%rbp)
Ltmp107:
	.loc	26 421 5
	leaq	8(%rbx), %r12
	.loc	26 422 5
	addq	$16, %rbx
Ltmp108:
	.loc	26 417 23
	leaq	l___unnamed_27(%rip), %rsi
	leaq	l___unnamed_8(%rip), %r14
	leaq	-40(%rbp), %rcx
	movl	$3, %edx
	movq	%r15, %rdi
	movq	%r14, %r8
	callq	__ZN4core3fmt8builders11DebugStruct5field17h6c54d35ac41bb1e6E
	.loc	26 421 5
	movq	%r12, -40(%rbp)
	.loc	26 417 23
	leaq	l___unnamed_28(%rip), %rsi
	leaq	-40(%rbp), %rcx
	movl	$5, %edx
	movq	%r15, %rdi
	movq	%r14, %r8
	callq	__ZN4core3fmt8builders11DebugStruct5field17h6c54d35ac41bb1e6E
	.loc	26 422 5
	movq	%rbx, -40(%rbp)
	.loc	26 417 23
	leaq	l___unnamed_29(%rip), %rsi
	leaq	-40(%rbp), %rcx
	movl	$1, %edx
	movq	%r15, %rdi
	movq	%r14, %r8
	callq	__ZN4core3fmt8builders11DebugStruct5field17h6c54d35ac41bb1e6E
	movq	%r15, %rdi
	callq	__ZN4core3fmt8builders11DebugStruct6finish17h67ed49fd5e81bb24E
Ltmp109:
	.loc	20 2022 84
	addq	$32, %rsp
	popq	%rbx
	popq	%r12
	popq	%r14
	popq	%r15
	popq	%rbp
	retq
Ltmp110:
Lfunc_end9:
	.cfi_endproc

	.p2align	4, 0x90
__ZN42_$LT$$RF$T$u20$as$u20$core..fmt..Debug$GT$3fmt17h7345f2b58f698cecE:
Lfunc_begin10:
	.loc	20 2022 0
	.cfi_startproc
	pushq	%rbp
	.cfi_def_cfa_offset 16
	.cfi_offset %rbp, -16
	movq	%rsp, %rbp
	.cfi_def_cfa_register %rbp
Ltmp111:
	pushq	%r15
	pushq	%r14
	pushq	%r13
	pushq	%r12
	pushq	%rbx
	subq	$24, %rsp
	.cfi_offset %rbx, -56
	.cfi_offset %r12, -48
	.cfi_offset %r13, -40
	.cfi_offset %r14, -32
	.cfi_offset %r15, -24
	.loc	20 2022 71 prologue_end
	movq	(%rdi), %rbx
	movq	8(%rdi), %r13
Ltmp112:
	.loc	20 0 71 is_stmt 0
	leaq	-64(%rbp), %rdi
Ltmp113:
	.loc	20 2211 9 is_stmt 1
	callq	__ZN4core3fmt9Formatter10debug_list17h113a4e31f24f00d7E
Ltmp114:
	.loc	22 3440 9
	testq	%r13, %r13
	.loc	22 3570 21
	je	LBB10_3
Ltmp115:
	shlq	$3, %r13
Ltmp116:
	.loc	22 0 21 is_stmt 0
	leaq	l___unnamed_3(%rip), %r14
	leaq	-64(%rbp), %r15
	leaq	-48(%rbp), %r12
Ltmp117:
	.p2align	4, 0x90
LBB10_2:
	.loc	23 661 22 is_stmt 1
	movq	%rbx, -48(%rbp)
Ltmp118:
	.loc	24 165 18
	addq	$8, %rbx
Ltmp119:
	.loc	23 662 13
	movq	%r15, %rdi
	movq	%r12, %rsi
	movq	%r14, %rdx
	callq	__ZN4core3fmt8builders9DebugList5entry17h2dea26f6c644471aE
Ltmp120:
	.loc	22 3440 9
	addq	$-8, %r13
	.loc	22 3570 21
	jne	LBB10_2
Ltmp121:
LBB10_3:
	.loc	22 0 21 is_stmt 0
	leaq	-64(%rbp), %rdi
	.loc	20 2211 9 is_stmt 1
	callq	__ZN4core3fmt8builders9DebugList6finish17h1537bc92ee1acb1cE
Ltmp122:
	.loc	20 2022 84
	addq	$24, %rsp
	popq	%rbx
	popq	%r12
	popq	%r13
	popq	%r14
	popq	%r15
	popq	%rbp
	retq
Ltmp123:
Lfunc_end10:
	.cfi_endproc

	.p2align	4, 0x90
__ZN42_$LT$$RF$T$u20$as$u20$core..fmt..Debug$GT$3fmt17h770a7b3744f0446bE:
Lfunc_begin11:
	.loc	20 2022 0
	.cfi_startproc
	pushq	%rbp
	.cfi_def_cfa_offset 16
	.cfi_offset %rbp, -16
	movq	%rsp, %rbp
	.cfi_def_cfa_register %rbp
Ltmp124:
	pushq	%r14
	pushq	%rbx
	subq	$48, %rsp
	.cfi_offset %rbx, -32
	.cfi_offset %r14, -24
	.loc	20 2022 71 prologue_end
	movq	(%rdi), %rbx
Ltmp125:
	.loc	22 3816 9
	leaq	L___unnamed_31(%rip), %rdx
	leaq	-56(%rbp), %r14
	movl	$4, %ecx
	movq	%r14, %rdi
Ltmp126:
	callq	__ZN4core3fmt9Formatter11debug_tuple17h6c448643801d07e8E
Ltmp127:
	.loc	22 3507 41
	movq	(%rbx), %rax
Ltmp128:
	.loc	22 0 0 is_stmt 0
	movq	8(%rbx), %rcx
Ltmp129:
	.loc	22 3461 33 is_stmt 1
	subq	%rax, %rcx
Ltmp130:
	.loc	22 3467 22
	shrq	$3, %rcx
Ltmp131:
	.loc	22 3816 38
	movq	%rax, -32(%rbp)
	movq	%rcx, -24(%rbp)
	.loc	22 3816 9 is_stmt 0
	leaq	l___unnamed_5(%rip), %rdx
	leaq	-32(%rbp), %rsi
	movq	%r14, %rdi
	callq	__ZN4core3fmt8builders10DebugTuple5field17hc7b676d0e36b51d9E
Ltmp132:
	movq	%rax, %rdi
	callq	__ZN4core3fmt8builders10DebugTuple6finish17h9f206806f7096c33E
Ltmp133:
	.loc	20 2022 84 is_stmt 1
	addq	$48, %rsp
	popq	%rbx
Ltmp134:
	popq	%r14
	popq	%rbp
	retq
Ltmp135:
Lfunc_end11:
	.cfi_endproc

	.p2align	4, 0x90
__ZN42_$LT$$RF$T$u20$as$u20$core..fmt..Debug$GT$3fmt17h85fadc9bf84bdc35E:
Lfunc_begin12:
	.loc	20 2022 0
	.cfi_startproc
	pushq	%rbp
	.cfi_def_cfa_offset 16
	.cfi_offset %rbp, -16
	movq	%rsp, %rbp
	.cfi_def_cfa_register %rbp
Ltmp136:
	pushq	%r15
	pushq	%r14
	pushq	%r13
	pushq	%r12
	pushq	%rbx
	subq	$24, %rsp
	.cfi_offset %rbx, -56
	.cfi_offset %r12, -48
	.cfi_offset %r13, -40
	.cfi_offset %r14, -32
	.cfi_offset %r15, -24
	.loc	20 2022 71 prologue_end
	movq	(%rdi), %rbx
	movq	8(%rdi), %r13
Ltmp137:
	.loc	20 0 71 is_stmt 0
	leaq	-64(%rbp), %rdi
Ltmp138:
	.loc	20 2211 9 is_stmt 1
	callq	__ZN4core3fmt9Formatter10debug_list17h113a4e31f24f00d7E
Ltmp139:
	.loc	22 3440 9
	testq	%r13, %r13
	.loc	22 3570 21
	je	LBB12_3
Ltmp140:
	shlq	$2, %r13
Ltmp141:
	.loc	22 0 21 is_stmt 0
	leaq	l___unnamed_2(%rip), %r14
	leaq	-64(%rbp), %r15
	leaq	-48(%rbp), %r12
Ltmp142:
	.p2align	4, 0x90
LBB12_2:
	.loc	23 661 22 is_stmt 1
	movq	%rbx, -48(%rbp)
Ltmp143:
	.loc	24 165 18
	addq	$4, %rbx
Ltmp144:
	.loc	23 662 13
	movq	%r15, %rdi
	movq	%r12, %rsi
	movq	%r14, %rdx
	callq	__ZN4core3fmt8builders9DebugList5entry17h2dea26f6c644471aE
Ltmp145:
	.loc	22 3440 9
	addq	$-4, %r13
	.loc	22 3570 21
	jne	LBB12_2
Ltmp146:
LBB12_3:
	.loc	22 0 21 is_stmt 0
	leaq	-64(%rbp), %rdi
	.loc	20 2211 9 is_stmt 1
	callq	__ZN4core3fmt8builders9DebugList6finish17h1537bc92ee1acb1cE
Ltmp147:
	.loc	20 2022 84
	addq	$24, %rsp
	popq	%rbx
	popq	%r12
	popq	%r13
	popq	%r14
	popq	%r15
	popq	%rbp
	retq
Ltmp148:
Lfunc_end12:
	.cfi_endproc

	.p2align	4, 0x90
__ZN42_$LT$$RF$T$u20$as$u20$core..fmt..Debug$GT$3fmt17h96b18ffe68f7ad8eE:
Lfunc_begin13:
	.loc	20 2022 0
	.cfi_startproc
	pushq	%rbp
	.cfi_def_cfa_offset 16
	.cfi_offset %rbp, -16
	movq	%rsp, %rbp
	.cfi_def_cfa_register %rbp
Ltmp149:
	.loc	20 2022 71 prologue_end
	movq	(%rdi), %rdi
Ltmp150:
	.loc	20 2022 62 is_stmt 0
	popq	%rbp
	jmp	__ZN58_$LT$std..io..error..Error$u20$as$u20$core..fmt..Debug$GT$3fmt17hd2ddac42b4f82396E
Ltmp151:
Lfunc_end13:
	.cfi_endproc

	.p2align	4, 0x90
__ZN42_$LT$$RF$T$u20$as$u20$core..fmt..Debug$GT$3fmt17hab766ae7beb46d5bE:
Lfunc_begin14:
	.loc	20 2022 0 is_stmt 1
	.cfi_startproc
	pushq	%rbp
	.cfi_def_cfa_offset 16
	.cfi_offset %rbp, -16
	movq	%rsp, %rbp
	.cfi_def_cfa_register %rbp
	pushq	%r14
	pushq	%rbx
	.cfi_offset %rbx, -32
	.cfi_offset %r14, -24
	movq	%rsi, %rbx
Ltmp152:
	.loc	20 2022 71 prologue_end
	movq	(%rdi), %r14
Ltmp153:
	.loc	25 149 20
	movq	%rsi, %rdi
Ltmp154:
	callq	__ZN4core3fmt9Formatter15debug_lower_hex17hd07f6fde8d0365dfE
	.loc	25 149 17 is_stmt 0
	testb	%al, %al
	je	LBB14_1
Ltmp155:
	.loc	25 150 21 is_stmt 1
	movq	%r14, %rdi
	movq	%rbx, %rsi
	popq	%rbx
Ltmp156:
	popq	%r14
Ltmp157:
	popq	%rbp
	jmp	__ZN4core3fmt3num55_$LT$impl$u20$core..fmt..LowerHex$u20$for$u20$usize$GT$3fmt17hc47c170655f2f8b1E
LBB14_1:
Ltmp158:
	.loc	25 151 27
	movq	%rbx, %rdi
	callq	__ZN4core3fmt9Formatter15debug_upper_hex17hf480c256a9c81c1eE
	.loc	25 154 21
	movq	%r14, %rdi
	movq	%rbx, %rsi
	.loc	25 151 24
	testb	%al, %al
	je	LBB14_4
Ltmp159:
	.loc	25 152 21
	popq	%rbx
Ltmp160:
	popq	%r14
Ltmp161:
	popq	%rbp
	jmp	__ZN4core3fmt3num55_$LT$impl$u20$core..fmt..UpperHex$u20$for$u20$usize$GT$3fmt17he5a77a1ce12f6c22E
LBB14_4:
Ltmp162:
	.loc	25 154 21
	popq	%rbx
Ltmp163:
	popq	%r14
Ltmp164:
	popq	%rbp
	jmp	__ZN4core3fmt3num3imp54_$LT$impl$u20$core..fmt..Display$u20$for$u20$usize$GT$3fmt17h12ea2856299c9b06E
Ltmp165:
Lfunc_end14:
	.cfi_endproc

	.p2align	4, 0x90
__ZN42_$LT$$RF$T$u20$as$u20$core..fmt..Debug$GT$3fmt17hacfa4a3bba1738c0E:
Lfunc_begin15:
	.loc	20 2022 0
	.cfi_startproc
	pushq	%rbp
	.cfi_def_cfa_offset 16
	.cfi_offset %rbp, -16
	movq	%rsp, %rbp
	.cfi_def_cfa_register %rbp
Ltmp166:
	pushq	%r14
	pushq	%rbx
	subq	$32, %rsp
	.cfi_offset %rbx, -32
	.cfi_offset %r14, -24
	.loc	20 2022 71 prologue_end
	movq	(%rdi), %rbx
Ltmp167:
	.loc	26 173 23
	leaq	l___unnamed_32(%rip), %rdx
	leaq	-48(%rbp), %r14
	movl	$7, %ecx
	movq	%r14, %rdi
Ltmp168:
	callq	__ZN4core3fmt9Formatter11debug_tuple17h6c448643801d07e8E
Ltmp169:
	.loc	26 175 38
	movq	%rbx, -24(%rbp)
	.loc	26 173 23
	leaq	l___unnamed_10(%rip), %rdx
	leaq	-24(%rbp), %rsi
	movq	%r14, %rdi
	callq	__ZN4core3fmt8builders10DebugTuple5field17hc7b676d0e36b51d9E
	movq	%r14, %rdi
	callq	__ZN4core3fmt8builders10DebugTuple6finish17h9f206806f7096c33E
Ltmp170:
	.loc	20 2022 84
	addq	$32, %rsp
	popq	%rbx
	popq	%r14
	popq	%rbp
	retq
Ltmp171:
Lfunc_end15:
	.cfi_endproc

	.p2align	4, 0x90
__ZN42_$LT$$RF$T$u20$as$u20$core..fmt..Debug$GT$3fmt17had36e67650ee7be4E:
Lfunc_begin16:
	.loc	20 2022 0
	.cfi_startproc
	pushq	%rbp
	.cfi_def_cfa_offset 16
	.cfi_offset %rbp, -16
	movq	%rsp, %rbp
	.cfi_def_cfa_register %rbp
Ltmp172:
	pushq	%r14
	pushq	%rbx
	subq	$48, %rsp
	.cfi_offset %rbx, -32
	.cfi_offset %r14, -24
	.loc	20 2022 71 prologue_end
	movq	(%rdi), %rbx
Ltmp173:
	.loc	22 3816 9
	leaq	L___unnamed_31(%rip), %rdx
	leaq	-56(%rbp), %r14
	movl	$4, %ecx
	movq	%r14, %rdi
Ltmp174:
	callq	__ZN4core3fmt9Formatter11debug_tuple17h6c448643801d07e8E
Ltmp175:
	.loc	22 3507 41
	movq	(%rbx), %rax
Ltmp176:
	.loc	22 0 0 is_stmt 0
	movq	8(%rbx), %rcx
Ltmp177:
	.loc	22 3461 33 is_stmt 1
	subq	%rax, %rcx
Ltmp178:
	.loc	22 3467 22
	shrq	$2, %rcx
Ltmp179:
	.loc	22 3816 38
	movq	%rax, -32(%rbp)
	movq	%rcx, -24(%rbp)
	.loc	22 3816 9 is_stmt 0
	leaq	l___unnamed_6(%rip), %rdx
	leaq	-32(%rbp), %rsi
	movq	%r14, %rdi
	callq	__ZN4core3fmt8builders10DebugTuple5field17hc7b676d0e36b51d9E
Ltmp180:
	movq	%rax, %rdi
	callq	__ZN4core3fmt8builders10DebugTuple6finish17h9f206806f7096c33E
Ltmp181:
	.loc	20 2022 84 is_stmt 1
	addq	$48, %rsp
	popq	%rbx
Ltmp182:
	popq	%r14
	popq	%rbp
	retq
Ltmp183:
Lfunc_end16:
	.cfi_endproc

	.section	__TEXT,__literal16,16byte_literals
	.p2align	4
LCPI17_0:
	.quad	1
	.quad	18
	.section	__TEXT,__text,regular,pure_instructions
	.p2align	4, 0x90
__ZN42_$LT$$RF$T$u20$as$u20$core..fmt..Debug$GT$3fmt17hbf4f6a4b324fdb4dE:
Lfunc_begin17:
	.loc	20 2022 0
	.cfi_startproc
	pushq	%rbp
	.cfi_def_cfa_offset 16
	.cfi_offset %rbp, -16
	movq	%rsp, %rbp
	.cfi_def_cfa_register %rbp
	pushq	%r15
	pushq	%r14
	pushq	%rbx
	subq	$24, %rsp
	.cfi_offset %rbx, -40
	.cfi_offset %r14, -32
	.cfi_offset %r15, -24
	movq	%rsi, %rbx
Ltmp184:
	.loc	20 2022 71 prologue_end
	movq	(%rdi), %rax
	.loc	20 2022 62 is_stmt 0
	movq	(%rax), %r15
Ltmp185:
	.loc	20 2116 25 is_stmt 1
	movups	(%rsi), %xmm0
	movaps	%xmm0, -48(%rbp)
Ltmp186:
	.loc	20 2117 25
	movl	48(%rsi), %r14d
Ltmp187:
	.loc	20 2123 12
	movq	%rsi, %rdi
Ltmp188:
	callq	__ZN4core3fmt9Formatter9alternate17hd77eec28e879e5edE
	.loc	20 0 0 is_stmt 0
	movl	48(%rbx), %ecx
	.loc	20 2123 9
	testb	%al, %al
	je	LBB17_3
Ltmp189:
	.loc	20 2124 13 is_stmt 1
	orl	$8, %ecx
	movl	%ecx, 48(%rbx)
Ltmp190:
	.loc	4 185 25
	cmpq	$1, (%rbx)
Ltmp191:
	.loc	20 2126 13
	je	LBB17_3
Ltmp192:
	.loc	20 2127 17
	movaps	LCPI17_0(%rip), %xmm0
	movups	%xmm0, (%rbx)
Ltmp193:
LBB17_3:
	.loc	20 2130 9
	orl	$4, %ecx
	movl	%ecx, 48(%rbx)
	.loc	20 2132 34
	movq	%r15, -32(%rbp)
	leaq	-32(%rbp), %rdi
	.loc	20 2132 19 is_stmt 0
	movq	%rbx, %rsi
	callq	__ZN4core3fmt3num55_$LT$impl$u20$core..fmt..LowerHex$u20$for$u20$usize$GT$3fmt17hc47c170655f2f8b1E
Ltmp194:
	.loc	20 0 19
	movaps	-48(%rbp), %xmm0
Ltmp195:
	.loc	20 2134 9 is_stmt 1
	movups	%xmm0, (%rbx)
	.loc	20 2135 9
	movl	%r14d, 48(%rbx)
Ltmp196:
	.loc	20 2022 84
	addq	$24, %rsp
	popq	%rbx
Ltmp197:
	popq	%r14
Ltmp198:
	popq	%r15
	popq	%rbp
	retq
Ltmp199:
Lfunc_end17:
	.cfi_endproc
	.file	30 "/rustc/6c8927b0cf80ceee19386026cf9d7fd4fd9d486f/src/libcore/ptr/non_null.rs"

	.p2align	4, 0x90
__ZN42_$LT$$RF$T$u20$as$u20$core..fmt..Debug$GT$3fmt17hc39c42f39d9381d4E:
Lfunc_begin18:
	.loc	20 2022 0
	.cfi_startproc
	pushq	%rbp
	.cfi_def_cfa_offset 16
	.cfi_offset %rbp, -16
	movq	%rsp, %rbp
	.cfi_def_cfa_register %rbp
Ltmp200:
	pushq	%r15
	pushq	%r14
	pushq	%r13
	pushq	%r12
	pushq	%rbx
	subq	$24, %rsp
	.cfi_offset %rbx, -56
	.cfi_offset %r12, -48
	.cfi_offset %r13, -40
	.cfi_offset %r14, -32
	.cfi_offset %r15, -24
	.loc	20 2022 71 prologue_end
	movq	(%rdi), %rax
Ltmp201:
	.loc	21 818 19
	movq	(%rax), %rbx
Ltmp202:
	.loc	21 1923 55
	movq	16(%rax), %r13
Ltmp203:
	.loc	21 0 55 is_stmt 0
	leaq	-64(%rbp), %rdi
Ltmp204:
	.loc	20 2211 9 is_stmt 1
	callq	__ZN4core3fmt9Formatter10debug_list17h113a4e31f24f00d7E
Ltmp205:
	.loc	22 3440 9
	testq	%r13, %r13
	.loc	22 3570 21
	je	LBB18_3
Ltmp206:
	shlq	$3, %r13
Ltmp207:
	.loc	22 0 21 is_stmt 0
	leaq	l___unnamed_3(%rip), %r14
	leaq	-64(%rbp), %r15
	leaq	-48(%rbp), %r12
Ltmp208:
	.p2align	4, 0x90
LBB18_2:
	.loc	23 661 22 is_stmt 1
	movq	%rbx, -48(%rbp)
Ltmp209:
	.loc	24 165 18
	addq	$8, %rbx
Ltmp210:
	.loc	23 662 13
	movq	%r15, %rdi
	movq	%r12, %rsi
	movq	%r14, %rdx
	callq	__ZN4core3fmt8builders9DebugList5entry17h2dea26f6c644471aE
Ltmp211:
	.loc	22 3440 9
	addq	$-8, %r13
	.loc	22 3570 21
	jne	LBB18_2
Ltmp212:
LBB18_3:
	.loc	22 0 21 is_stmt 0
	leaq	-64(%rbp), %rdi
	.loc	20 2211 9 is_stmt 1
	callq	__ZN4core3fmt8builders9DebugList6finish17h1537bc92ee1acb1cE
Ltmp213:
	.loc	20 2022 84
	addq	$24, %rsp
	popq	%rbx
	popq	%r12
	popq	%r13
	popq	%r14
	popq	%r15
	popq	%rbp
	retq
Ltmp214:
Lfunc_end18:
	.cfi_endproc

	.p2align	4, 0x90
__ZN42_$LT$$RF$T$u20$as$u20$core..fmt..Debug$GT$3fmt17hd71099b5d0b1ee72E:
Lfunc_begin19:
	.loc	20 2022 0
	.cfi_startproc
	pushq	%rbp
	.cfi_def_cfa_offset 16
	.cfi_offset %rbp, -16
	movq	%rsp, %rbp
	.cfi_def_cfa_register %rbp
Ltmp215:
	.loc	20 2022 71 prologue_end
	movq	(%rdi), %rdi
Ltmp216:
	.loc	20 2022 62 is_stmt 0
	popq	%rbp
	jmp	__ZN86_$LT$rand..distributions..uniform..UniformDurationMode$u20$as$u20$core..fmt..Debug$GT$3fmt17hb4e21feb32a5874dE
Ltmp217:
Lfunc_end19:
	.cfi_endproc

	.p2align	4, 0x90
__ZN42_$LT$$RF$T$u20$as$u20$core..fmt..Debug$GT$3fmt17hdb649319f17c956fE:
Lfunc_begin20:
	.loc	20 2022 0 is_stmt 1
	.cfi_startproc
	pushq	%rbp
	.cfi_def_cfa_offset 16
	.cfi_offset %rbp, -16
	movq	%rsp, %rbp
	.cfi_def_cfa_register %rbp
Ltmp218:
	.loc	20 2022 71 prologue_end
	movq	(%rdi), %rdi
Ltmp219:
	.loc	20 2022 62 is_stmt 0
	popq	%rbp
	jmp	__ZN69_$LT$rand_chacha..chacha..ChaCha20Rng$u20$as$u20$core..fmt..Debug$GT$3fmt17hc42464a91d72e4d7E
Ltmp220:
Lfunc_end20:
	.cfi_endproc

	.p2align	4, 0x90
__ZN42_$LT$$RF$T$u20$as$u20$core..fmt..Debug$GT$3fmt17heb5c233cda8f3e32E:
Lfunc_begin21:
	.loc	20 2022 0 is_stmt 1
	.cfi_startproc
	pushq	%rbp
	.cfi_def_cfa_offset 16
	.cfi_offset %rbp, -16
	movq	%rsp, %rbp
	.cfi_def_cfa_register %rbp
Ltmp221:
	pushq	%r14
	pushq	%rbx
	subq	$32, %rsp
	.cfi_offset %rbx, -32
	.cfi_offset %r14, -24
	.loc	20 2022 71 prologue_end
	movq	(%rdi), %rbx
Ltmp222:
	.loc	26 173 23
	leaq	l___unnamed_32(%rip), %rdx
	leaq	-48(%rbp), %r14
	movl	$7, %ecx
	movq	%r14, %rdi
Ltmp223:
	callq	__ZN4core3fmt9Formatter11debug_tuple17h6c448643801d07e8E
Ltmp224:
	.loc	26 175 38
	movq	%rbx, -24(%rbp)
	.loc	26 173 23
	leaq	l___unnamed_9(%rip), %rdx
	leaq	-24(%rbp), %rsi
	movq	%r14, %rdi
	callq	__ZN4core3fmt8builders10DebugTuple5field17hc7b676d0e36b51d9E
	movq	%r14, %rdi
	callq	__ZN4core3fmt8builders10DebugTuple6finish17h9f206806f7096c33E
Ltmp225:
	.loc	20 2022 84
	addq	$32, %rsp
	popq	%rbx
	popq	%r14
	popq	%rbp
	retq
Ltmp226:
Lfunc_end21:
	.cfi_endproc

	.p2align	4, 0x90
__ZN42_$LT$$RF$T$u20$as$u20$core..fmt..Debug$GT$3fmt17hf924788559a8f7d4E:
Lfunc_begin22:
	.loc	20 2022 0
	.cfi_startproc
	pushq	%rbp
	.cfi_def_cfa_offset 16
	.cfi_offset %rbp, -16
	movq	%rsp, %rbp
	.cfi_def_cfa_register %rbp
Ltmp227:
	pushq	%r15
	pushq	%r14
	pushq	%rbx
	subq	$40, %rsp
	.cfi_offset %rbx, -40
	.cfi_offset %r14, -32
	.cfi_offset %r15, -24
	.loc	20 2022 71 prologue_end
	movq	(%rdi), %rax
	.loc	20 2022 62 is_stmt 0
	movq	16(%rax), %r15
	movq	24(%rax), %rbx
Ltmp228:
	.loc	21 2599 9 is_stmt 1
	leaq	L___unnamed_30(%rip), %rdx
	leaq	-64(%rbp), %r14
	movl	$8, %ecx
	movq	%r14, %rdi
Ltmp229:
	callq	__ZN4core3fmt9Formatter11debug_tuple17h6c448643801d07e8E
Ltmp230:
	.loc	28 300 18
	subq	%r15, %rbx
	sarq	$2, %rbx
Ltmp231:
	.loc	21 2599 42
	movq	%r15, -40(%rbp)
	movq	%rbx, -32(%rbp)
	.loc	21 2599 9 is_stmt 0
	leaq	l___unnamed_6(%rip), %rdx
	leaq	-40(%rbp), %rsi
	movq	%r14, %rdi
	callq	__ZN4core3fmt8builders10DebugTuple5field17hc7b676d0e36b51d9E
	movq	%rax, %rdi
	callq	__ZN4core3fmt8builders10DebugTuple6finish17h9f206806f7096c33E
Ltmp232:
	.loc	20 2022 84 is_stmt 1
	addq	$40, %rsp
	popq	%rbx
	popq	%r14
	popq	%r15
Ltmp233:
	popq	%rbp
	retq
Ltmp234:
Lfunc_end22:
	.cfi_endproc

	.p2align	4, 0x90
__ZN4core3ops8function6FnOnce40call_once$u7b$$u7b$vtable.shim$u7d$$u7d$17hef9acb25178c7f08E:
Lfunc_begin23:
	.loc	17 233 0
	.cfi_startproc
	pushq	%rbp
	.cfi_def_cfa_offset 16
	.cfi_offset %rbp, -16
	movq	%rsp, %rbp
	.cfi_def_cfa_register %rbp
Ltmp235:
	.loc	17 233 5 prologue_end
	movq	(%rdi), %rax
Ltmp236:
	.loc	4 385 13
	testb	$1, (%rax)
Ltmp237:
	.loc	5 2130 14
	movb	$0, (%rax)
Ltmp238:
	.loc	4 385 13
	je	LBB23_1
Ltmp239:
	.loc	1 314 13
	leaq	__ZN4rand4rngs7adapter9reseeding4fork12fork_handler17h1994d23496c74710E(%rip), %rdx
	xorl	%edi, %edi
Ltmp240:
	xorl	%esi, %esi
Ltmp241:
	popq	%rbp
	jmp	_pthread_atfork
Ltmp242:
LBB23_1:
	.loc	6 10 9
	leaq	l___unnamed_23(%rip), %rdi
Ltmp243:
	leaq	l___unnamed_24(%rip), %rdx
	movl	$43, %esi
Ltmp244:
	callq	__ZN4core9panicking5panic17h383a6b80ea7021aaE
Ltmp245:
Lfunc_end23:
	.cfi_endproc

	.p2align	4, 0x90
__ZN4core3ptr13drop_in_place17h0c1f0d63fc0a43ffE:
Lfunc_begin24:
	.loc	7 184 0
	.cfi_startproc
	pushq	%rbp
	.cfi_def_cfa_offset 16
	.cfi_offset %rbp, -16
	movq	%rsp, %rbp
	.cfi_def_cfa_register %rbp
Ltmp246:
	.loc	7 184 1 prologue_end
	popq	%rbp
	retq
Ltmp247:
Lfunc_end24:
	.cfi_endproc

	.p2align	4, 0x90
__ZN4core3ptr13drop_in_place17h1d4dd758508f4e77E:
Lfunc_begin25:
	.loc	7 184 0
	.cfi_startproc
	.cfi_personality 155, _rust_eh_personality
	.cfi_lsda 16, Lexception0
	pushq	%rbp
	.cfi_def_cfa_offset 16
	.cfi_offset %rbp, -16
	movq	%rsp, %rbp
	.cfi_def_cfa_register %rbp
	pushq	%r14
	pushq	%rbx
	.cfi_offset %rbx, -32
	.cfi_offset %r14, -24
	movq	%rdi, %rbx
Ltmp251:
	.loc	7 184 1 prologue_end
	movq	(%rdi), %rdi
	movq	8(%rbx), %rax
Ltmp248:
	callq	*(%rax)
Ltmp249:
Ltmp252:
	movq	8(%rbx), %rax
Ltmp253:
	.file	31 "/rustc/6c8927b0cf80ceee19386026cf9d7fd4fd9d486f/src/liballoc/alloc.rs"
	.loc	31 292 20
	movq	8(%rax), %rsi
Ltmp254:
	.loc	31 185 12
	testq	%rsi, %rsi
	.loc	31 185 9 is_stmt 0
	je	LBB25_4
Ltmp255:
	.loc	7 184 1 is_stmt 1
	movq	(%rbx), %rdi
Ltmp256:
	.loc	31 293 21
	movq	16(%rax), %rdx
Ltmp257:
	.loc	31 102 14
	popq	%rbx
Ltmp258:
	popq	%r14
	popq	%rbp
	jmp	___rust_dealloc
Ltmp259:
LBB25_4:
	.loc	7 184 1
	popq	%rbx
Ltmp260:
	popq	%r14
	popq	%rbp
	retq
LBB25_3:
Ltmp261:
Ltmp250:
	.loc	7 0 1 is_stmt 0
	movq	%rax, %r14
Ltmp262:
	.loc	7 184 1
	movq	(%rbx), %rdi
	movq	8(%rbx), %rsi
	callq	__ZN5alloc5alloc8box_free17hc24cc63cd7393a5bE
	movq	%r14, %rdi
	callq	__Unwind_Resume
	ud2
Ltmp263:
Lfunc_end25:
	.cfi_endproc
	.section	__TEXT,__gcc_except_tab
	.p2align	2
GCC_except_table25:
Lexception0:
	.byte	255
	.byte	255
	.byte	1
	.uleb128 Lcst_end0-Lcst_begin0
Lcst_begin0:
	.uleb128 Ltmp248-Lfunc_begin25
	.uleb128 Ltmp249-Ltmp248
	.uleb128 Ltmp250-Lfunc_begin25
	.byte	0
	.uleb128 Ltmp249-Lfunc_begin25
	.uleb128 Lfunc_end25-Ltmp249
	.byte	0
	.byte	0
Lcst_end0:
	.p2align	2

	.section	__TEXT,__text,regular,pure_instructions
	.p2align	4, 0x90
__ZN4core3ptr13drop_in_place17h5c927dfa7f567e81E:
Lfunc_begin26:
	.loc	7 184 0 is_stmt 1
	.cfi_startproc
	.cfi_personality 155, _rust_eh_personality
	.cfi_lsda 16, Lexception1
	pushq	%rbp
	.cfi_def_cfa_offset 16
	.cfi_offset %rbp, -16
	movq	%rsp, %rbp
	.cfi_def_cfa_register %rbp
Ltmp267:
	pushq	%r15
	pushq	%r14
	pushq	%rbx
	pushq	%rax
	.cfi_offset %rbx, -40
	.cfi_offset %r14, -32
	.cfi_offset %r15, -24
	.loc	7 184 1 prologue_end
	cmpb	$2, (%rdi)
	jae	LBB26_1
Ltmp268:
	.loc	7 184 1 is_stmt 0
	addq	$8, %rsp
	popq	%rbx
	popq	%r14
	popq	%r15
	popq	%rbp
	retq
Ltmp269:
LBB26_1:
	.loc	7 0 1
	movq	%rdi, %r15
Ltmp270:
	.loc	7 184 1
	movq	8(%rdi), %rbx
Ltmp271:
	.loc	7 184 1
	movq	(%rbx), %rdi
	movq	8(%rbx), %rax
Ltmp264:
	callq	*(%rax)
Ltmp265:
Ltmp272:
	movq	8(%rbx), %rax
Ltmp273:
	.loc	31 292 20 is_stmt 1
	movq	8(%rax), %rsi
Ltmp274:
	.loc	31 185 12
	testq	%rsi, %rsi
	.loc	31 185 9 is_stmt 0
	je	LBB26_4
Ltmp275:
	.loc	7 184 1 is_stmt 1
	movq	(%rbx), %rdi
Ltmp276:
	.loc	31 293 21
	movq	16(%rax), %rdx
Ltmp277:
	.loc	31 102 14
	callq	___rust_dealloc
Ltmp278:
LBB26_4:
	.loc	7 184 1
	movq	8(%r15), %rdi
Ltmp279:
	.loc	31 102 14
	movl	$24, %esi
	movl	$8, %edx
	addq	$8, %rsp
	popq	%rbx
	popq	%r14
	popq	%r15
Ltmp280:
	popq	%rbp
	jmp	___rust_dealloc
Ltmp281:
LBB26_6:
Ltmp266:
	.loc	31 0 14 is_stmt 0
	movq	%rax, %r14
Ltmp282:
	.loc	7 184 1 is_stmt 1
	movq	(%rbx), %rdi
	movq	8(%rbx), %rsi
	callq	__ZN5alloc5alloc8box_free17hc24cc63cd7393a5bE
Ltmp283:
	.loc	7 184 1 is_stmt 0
	movq	8(%r15), %rdi
	callq	__ZN5alloc5alloc8box_free17h27a23647d99daafbE
	movq	%r14, %rdi
	callq	__Unwind_Resume
	ud2
Ltmp284:
Lfunc_end26:
	.cfi_endproc
	.section	__TEXT,__gcc_except_tab
	.p2align	2
GCC_except_table26:
Lexception1:
	.byte	255
	.byte	255
	.byte	1
	.uleb128 Lcst_end1-Lcst_begin1
Lcst_begin1:
	.uleb128 Ltmp264-Lfunc_begin26
	.uleb128 Ltmp265-Ltmp264
	.uleb128 Ltmp266-Lfunc_begin26
	.byte	0
	.uleb128 Ltmp265-Lfunc_begin26
	.uleb128 Lfunc_end26-Ltmp265
	.byte	0
	.byte	0
Lcst_end1:
	.p2align	2

	.section	__TEXT,__text,regular,pure_instructions
	.p2align	4, 0x90
__ZN5alloc5alloc8box_free17h27a23647d99daafbE:
Lfunc_begin27:
	.loc	31 290 0 is_stmt 1
	.cfi_startproc
	pushq	%rbp
	.cfi_def_cfa_offset 16
	.cfi_offset %rbp, -16
	movq	%rsp, %rbp
	.cfi_def_cfa_register %rbp
Ltmp285:
	.loc	31 102 14 prologue_end
	movl	$24, %esi
	movl	$8, %edx
	popq	%rbp
	jmp	___rust_dealloc
Ltmp286:
Lfunc_end27:
	.cfi_endproc

	.p2align	4, 0x90
__ZN5alloc5alloc8box_free17hc24cc63cd7393a5bE:
Lfunc_begin28:
	.loc	31 290 0
	.cfi_startproc
	pushq	%rbp
	.cfi_def_cfa_offset 16
	.cfi_offset %rbp, -16
	movq	%rsp, %rbp
	.cfi_def_cfa_register %rbp
	movq	%rsi, %rax
Ltmp287:
	.loc	31 292 20 prologue_end
	movq	8(%rsi), %rsi
Ltmp288:
	.loc	31 185 12
	testq	%rsi, %rsi
	.loc	31 185 9 is_stmt 0
	je	LBB28_1
Ltmp289:
	.loc	31 293 21 is_stmt 1
	movq	16(%rax), %rdx
Ltmp290:
	.loc	31 102 14
	popq	%rbp
	jmp	___rust_dealloc
Ltmp291:
LBB28_1:
	.loc	31 297 2
	popq	%rbp
	retq
Ltmp292:
Lfunc_end28:
	.cfi_endproc

	.p2align	4, 0x90
__ZN74_$LT$rand_core..block..BlockRng$LT$R$GT$$u20$as$u20$rand_core..RngCore$GT$10fill_bytes17hcde979197ca1c4e4E:
Lfunc_begin29:
	.file	32 "/Users/yingyuhang/.cargo/git/checkouts/rand-cc8f5b7ec2d3b6d9/dca9cb5/rand_core/src/block.rs"
	.loc	32 212 0
	.cfi_startproc
	pushq	%rbp
	.cfi_def_cfa_offset 16
	.cfi_offset %rbp, -16
	movq	%rsp, %rbp
	.cfi_def_cfa_register %rbp
Ltmp293:
	pushq	%r15
	pushq	%r14
	pushq	%r13
	pushq	%r12
	pushq	%rbx
	pushq	%rax
	.cfi_offset %rbx, -56
	.cfi_offset %r12, -48
	.cfi_offset %r13, -40
	.cfi_offset %r14, -32
	.cfi_offset %r15, -24
Ltmp294:
	.loc	32 214 15 prologue_end
	testq	%rdx, %rdx
	.loc	32 214 9 is_stmt 0
	je	LBB29_12
Ltmp295:
	.loc	32 0 9
	movq	%rdx, %r15
Ltmp296:
	movq	%rsi, %r14
Ltmp297:
	movq	%rdi, %r12
Ltmp298:
	leaq	8(%rdi), %rax
	movq	%rax, -48(%rbp)
Ltmp299:
	leaq	264(%rdi), %r13
Ltmp300:
	.loc	32 215 16 is_stmt 1
	movq	(%rdi), %rax
	xorl	%ebx, %ebx
Ltmp301:
	.p2align	4, 0x90
LBB29_2:
	cmpq	$64, %rax
	.loc	32 215 13 is_stmt 0
	jb	LBB29_8
Ltmp302:
	.loc	15 2356 24 is_stmt 1
	movq	__ZN4rand4rngs7adapter9reseeding4fork26RESEEDING_RNG_FORK_COUNTER17h8ec4996c534257ffE(%rip), %rdx
Ltmp303:
	.loc	1 169 12
	movq	320(%r12), %rax
	testq	%rax, %rax
	jle	LBB29_5
Ltmp304:
	.loc	1 231 9
	cmpq	%rdx, 328(%r12)
Ltmp305:
	.loc	1 169 9
	js	LBB29_5
Ltmp306:
	.loc	1 176 9
	addq	$-256, %rax
	movq	%rax, 320(%r12)
	.loc	1 177 9
	movq	%r13, %rdi
	movq	-48(%rbp), %rsi
	callq	__ZN84_$LT$rand_chacha..chacha..ChaCha20Core$u20$as$u20$rand_core..block..BlockRngCore$GT$8generate17h43439e5d58445085E
Ltmp307:
	.loc	1 0 9 is_stmt 0
	jmp	LBB29_7
Ltmp308:
	.p2align	4, 0x90
LBB29_5:
	.loc	1 173 20 is_stmt 1
	movq	%r13, %rdi
	movq	-48(%rbp), %rsi
	callq	__ZN4rand4rngs7adapter9reseeding29ReseedingCore$LT$R$C$Rsdr$GT$19reseed_and_generate17h3b64d7d4e6dc5961E
Ltmp309:
LBB29_7:
	.loc	32 168 9
	movq	$0, (%r12)
Ltmp310:
	.loc	32 219 60
	xorl	%eax, %eax
Ltmp311:
LBB29_8:
	.loc	22 3259 12
	cmpq	%r15, %rbx
	.loc	22 3259 9 is_stmt 0
	ja	LBB29_15
Ltmp312:
	.loc	28 164 18 is_stmt 1
	leaq	8(%r12,%rax,4), %rdi
Ltmp313:
	.loc	22 3154 76
	movl	$64, %esi
	subq	%rax, %rsi
Ltmp314:
	.loc	24 165 18
	leaq	(%r14,%rbx), %rdx
Ltmp315:
	.loc	22 3161 79
	movq	%r15, %rcx
	subq	%rbx, %rcx
Ltmp316:
	.loc	32 219 17
	callq	__ZN9rand_core5impls19fill_via_u32_chunks17h9a529dc9c0b948d1E
Ltmp317:
	.loc	32 221 13
	addq	(%r12), %rax
Ltmp318:
	jb	LBB29_13
Ltmp319:
	movq	%rax, (%r12)
	.loc	32 222 13
	addq	%rdx, %rbx
Ltmp320:
	jb	LBB29_14
Ltmp321:
	.loc	32 214 15
	cmpq	%r15, %rbx
	.loc	32 214 9 is_stmt 0
	jb	LBB29_2
Ltmp322:
LBB29_12:
	.loc	32 224 6 is_stmt 1
	addq	$8, %rsp
	popq	%rbx
	popq	%r12
	popq	%r13
	popq	%r14
	popq	%r15
	popq	%rbp
	retq
LBB29_15:
Ltmp323:
	.loc	22 3260 13
	leaq	l___unnamed_33(%rip), %rdx
	movq	%rbx, %rdi
	movq	%r15, %rsi
	callq	__ZN4core5slice26slice_start_index_len_fail17h787e2f1bbfc1d2f3E
Ltmp324:
LBB29_13:
	.loc	32 221 13
	leaq	_str.2(%rip), %rdi
	leaq	l___unnamed_34(%rip), %rdx
	movl	$28, %esi
	callq	__ZN4core9panicking5panic17h383a6b80ea7021aaE
Ltmp325:
LBB29_14:
	.loc	32 222 13
	leaq	_str.2(%rip), %rdi
	leaq	l___unnamed_35(%rip), %rdx
Ltmp326:
	movl	$28, %esi
	callq	__ZN4core9panicking5panic17h383a6b80ea7021aaE
Ltmp327:
Lfunc_end29:
	.cfi_endproc

	.p2align	4, 0x90
__ZN84_$LT$rand_chacha..chacha..ChaCha20Core$u20$as$u20$rand_core..block..BlockRngCore$GT$8generate17h43439e5d58445085E:
Lfunc_begin30:
	.loc	19 89 0
	.cfi_startproc
	pushq	%rbp
	.cfi_def_cfa_offset 16
	.cfi_offset %rbp, -16
	movq	%rsp, %rbp
	.cfi_def_cfa_register %rbp
	pushq	%r15
	pushq	%r14
	pushq	%r13
	pushq	%r12
	pushq	%rbx
	subq	$512, %rsp
	.cfi_offset %rbx, -56
	.cfi_offset %r12, -48
	.cfi_offset %r13, -40
	.cfi_offset %r14, -32
	.cfi_offset %r15, -24
	movq	%rsi, -552(%rbp)
Ltmp328:
	.loc	14 75 36 prologue_end
	movl	32(%rdi), %ecx
Ltmp329:
	movl	36(%rdi), %eax
Ltmp330:
	.loc	14 0 36 is_stmt 0
	movq	%rax, -504(%rbp)
Ltmp331:
	.file	33 "/Users/yingyuhang/.cargo/registry/src/github.com-1ecc6299db9ec823/ppv-lite86-0.2.8/src/soft.rs"
	.loc	33 312 9 is_stmt 1
	shlq	$32, %rax
	leaq	(%rax,%rcx), %rbx
Ltmp332:
	.file	34 "/rustc/6c8927b0cf80ceee19386026cf9d7fd4fd9d486f/src/libcore/convert/mod.rs"
	.loc	34 563 17
	movq	40(%rdi), %r10
Ltmp333:
	.file	35 "/rustc/6c8927b0cf80ceee19386026cf9d7fd4fd9d486f/src/libcore/num/mod.rs"
	.loc	35 3439 17
	leaq	1(%rax,%rcx), %r13
Ltmp334:
	.loc	35 3439 17 is_stmt 0
	leaq	2(%rax,%rcx), %r12
Ltmp335:
	.loc	35 0 17
	movq	%rcx, -512(%rbp)
Ltmp336:
	.loc	35 3439 17
	leaq	3(%rax,%rcx), %r14
Ltmp337:
	.loc	14 119 22 is_stmt 1
	movq	24(%rdi), %rax
	movq	16(%rdi), %r9
Ltmp338:
	.file	36 "/rustc/6c8927b0cf80ceee19386026cf9d7fd4fd9d486f/src/libcore/iter/range.rs"
	.loc	36 505 9
	movq	%rax, %r15
	shrq	$32, %r15
	movq	%r9, %rsi
	shrq	$32, %rsi
Ltmp339:
	.loc	14 118 22
	movq	(%rdi), %rdx
Ltmp340:
	.loc	14 0 22 is_stmt 0
	movq	%rdi, -496(%rbp)
Ltmp341:
	.loc	14 118 22
	movq	8(%rdi), %rcx
Ltmp342:
	.loc	14 0 22
	movq	%rax, %r11
	movl	$1634760805, %eax
Ltmp343:
	movq	%rax, -384(%rbp)
	movl	$857760878, %eax
	movq	%rax, -144(%rbp)
	movl	$2036477234, %eax
	movq	%rax, -200(%rbp)
	movl	$1797285236, %eax
	movq	%rax, -256(%rbp)
	movl	$10, -476(%rbp)
	movq	%rdx, -112(%rbp)
	movq	%rcx, -104(%rbp)
	movq	%rdx, -48(%rbp)
	movq	%rcx, -64(%rbp)
	movq	%rdx, -168(%rbp)
Ltmp344:
	movq	%rdx, %rdi
Ltmp345:
	movq	%rcx, -88(%rbp)
Ltmp346:
	movq	%rcx, -56(%rbp)
	movl	%r9d, %eax
	movq	%rax, -376(%rbp)
	movl	%esi, %eax
	movq	%rax, -360(%rbp)
	movl	%r11d, %eax
	movq	%rax, -368(%rbp)
	movl	%r15d, %eax
	movq	%rax, -352(%rbp)
	movl	%r9d, %eax
	movq	%rax, -336(%rbp)
	movl	%esi, %eax
	movq	%rax, -320(%rbp)
	movl	%r11d, %eax
	movq	%rax, -328(%rbp)
	movl	%r15d, %eax
	movq	%rax, -312(%rbp)
	movq	%r9, %rax
	movq	%r9, -136(%rbp)
	movq	%r9, -304(%rbp)
	movq	%rsi, %rax
	movq	%rsi, -128(%rbp)
	movq	%rsi, -288(%rbp)
	movq	%r11, %rax
	movq	%r11, -120(%rbp)
	movq	%r11, -296(%rbp)
	movq	%r15, %rax
	movq	%r15, -216(%rbp)
	movq	%r15, -280(%rbp)
	movq	%r14, -536(%rbp)
Ltmp347:
	movq	%r10, %r9
Ltmp348:
	movq	%r12, -528(%rbp)
Ltmp349:
	movq	%r12, %rax
	movq	%r10, %rcx
	movq	%r13, -520(%rbp)
Ltmp350:
	movq	%r13, %r12
Ltmp351:
	movq	%r10, -416(%rbp)
	movq	%rbx, -488(%rbp)
Ltmp352:
	movq	%rbx, %r13
Ltmp353:
	movq	%r10, -544(%rbp)
Ltmp354:
	movq	%r10, -464(%rbp)
Ltmp355:
	movl	$1797285236, %edx
	movq	%rdx, -408(%rbp)
	movl	$2036477234, %edx
	movq	%rdx, -192(%rbp)
	movl	$857760878, %edx
	movq	%rdx, -248(%rbp)
	movl	$1634760805, %edx
	movq	%rdx, -344(%rbp)
	movl	$1797285236, %edx
	movq	%rdx, -456(%rbp)
	movl	$2036477234, %edx
	movq	%rdx, -184(%rbp)
	movl	$857760878, %edx
	movq	%rdx, -240(%rbp)
	movl	$1634760805, %edx
	movq	%rdx, -272(%rbp)
	movl	$1797285236, %edx
	movq	%rdx, -400(%rbp)
	movl	$2036477234, %edx
	movq	%rdx, -176(%rbp)
	movl	$857760878, %edx
	movq	%rdx, -208(%rbp)
	movl	$1634760805, %edx
	movq	%rdx, -264(%rbp)
	movq	%rdi, %rdx
Ltmp356:
	.p2align	4, 0x90
LBB30_1:
	movq	%rcx, -80(%rbp)
Ltmp357:
	movq	%rdx, -160(%rbp)
Ltmp358:
	.loc	14 127 19 is_stmt 1
	shrq	$32, %rdx
Ltmp359:
	.loc	35 3439 17
	addl	-208(%rbp), %edx
Ltmp360:
	.loc	35 0 17 is_stmt 0
	movq	%rdx, %r11
	movq	%rdx, -392(%rbp)
Ltmp361:
	movq	-56(%rbp), %rcx
Ltmp362:
	.loc	14 127 19 is_stmt 1
	movq	%rcx, %r8
	movq	%rcx, %r10
Ltmp363:
	.loc	14 0 19 is_stmt 0
	movq	%rcx, -56(%rbp)
	.loc	14 127 19
	shrq	$32, %r8
Ltmp364:
	.loc	35 3439 17 is_stmt 1
	addl	-400(%rbp), %r8d
Ltmp365:
	.loc	35 0 17 is_stmt 0
	movq	%r8, -152(%rbp)
Ltmp366:
	movq	-48(%rbp), %rcx
Ltmp367:
	.loc	14 127 19 is_stmt 1
	shrq	$32, %rcx
Ltmp368:
	.loc	35 3439 17
	addl	-240(%rbp), %ecx
Ltmp369:
	.loc	35 0 17 is_stmt 0
	movq	%rcx, -240(%rbp)
	movq	-64(%rbp), %rcx
Ltmp370:
	.loc	14 127 19 is_stmt 1
	movq	%rcx, %rsi
	movq	%rcx, -64(%rbp)
	shrq	$32, %rsi
Ltmp371:
	.loc	35 3439 17
	addl	-456(%rbp), %esi
Ltmp372:
	.loc	35 0 17 is_stmt 0
	movq	%rsi, -224(%rbp)
Ltmp373:
	movq	-112(%rbp), %rdx
Ltmp374:
	.loc	14 127 19 is_stmt 1
	shrq	$32, %rdx
Ltmp375:
	.loc	35 3439 17
	addl	-248(%rbp), %edx
Ltmp376:
	.loc	35 0 17 is_stmt 0
	movq	%rdx, -248(%rbp)
	movq	-104(%rbp), %rdi
Ltmp377:
	.loc	14 127 19 is_stmt 1
	movq	%rdi, %rdx
	movq	%rdi, -104(%rbp)
	shrq	$32, %rdx
Ltmp378:
	.loc	35 3439 17
	addl	-408(%rbp), %edx
Ltmp379:
	.loc	35 0 17 is_stmt 0
	movq	%rdx, %rbx
Ltmp380:
	movq	%rdx, -232(%rbp)
Ltmp381:
	movq	-168(%rbp), %rdx
Ltmp382:
	.loc	14 127 19 is_stmt 1
	shrq	$32, %rdx
Ltmp383:
	.loc	35 3439 17
	addl	-144(%rbp), %edx
Ltmp384:
	.loc	35 0 17 is_stmt 0
	movq	%rdx, -96(%rbp)
Ltmp385:
	movq	-88(%rbp), %r15
Ltmp386:
	.loc	14 127 19 is_stmt 1
	shrq	$32, %r15
Ltmp387:
	.loc	35 3439 17
	addl	-256(%rbp), %r15d
Ltmp388:
	.loc	35 0 17 is_stmt 0
	movq	%r15, -256(%rbp)
	movq	-176(%rbp), %rdx
Ltmp389:
	.loc	35 3439 17
	addl	%r10d, %edx
Ltmp390:
	.loc	35 0 17
	movq	%rdx, -176(%rbp)
Ltmp391:
	movq	%r8, %r10
Ltmp392:
	shlq	$32, %r10
	orq	%rdx, %r10
Ltmp393:
	.loc	18 218 41 is_stmt 1
	xorq	-464(%rbp), %r10
	movq	-264(%rbp), %rdx
Ltmp394:
	.loc	18 0 41 is_stmt 0
	movq	-160(%rbp), %r8
Ltmp395:
	.loc	35 3439 17 is_stmt 1
	addl	%r8d, %edx
Ltmp396:
	.loc	35 0 17 is_stmt 0
	movq	%rdx, -264(%rbp)
Ltmp397:
	shlq	$32, %r11
Ltmp398:
	orq	%rdx, %r11
Ltmp399:
	.loc	18 218 41 is_stmt 1
	xorq	%r13, %r11
Ltmp400:
	.loc	18 0 41 is_stmt 0
	movq	%r11, -208(%rbp)
	movq	-184(%rbp), %rdx
Ltmp401:
	.loc	35 3439 17 is_stmt 1
	addl	%ecx, %edx
Ltmp402:
	.loc	35 0 17 is_stmt 0
	movq	%rdx, -184(%rbp)
Ltmp403:
	shlq	$32, %rsi
Ltmp404:
	orq	%rdx, %rsi
Ltmp405:
	.loc	18 218 41 is_stmt 1
	xorq	-416(%rbp), %rsi
	movq	%rsi, -144(%rbp)
	movq	-272(%rbp), %rdx
Ltmp406:
	.loc	18 0 41 is_stmt 0
	movq	-48(%rbp), %rsi
Ltmp407:
	.loc	35 3439 17 is_stmt 1
	addl	%esi, %edx
Ltmp408:
	.loc	35 0 17 is_stmt 0
	movq	%rdx, -272(%rbp)
	movq	-240(%rbp), %r13
Ltmp409:
	shlq	$32, %r13
	orq	%rdx, %r13
Ltmp410:
	.loc	18 218 41 is_stmt 1
	xorq	%r12, %r13
Ltmp411:
	.loc	18 0 41 is_stmt 0
	movq	-192(%rbp), %rdx
Ltmp412:
	.loc	35 3439 17 is_stmt 1
	addl	%edi, %edx
Ltmp413:
	.loc	35 0 17 is_stmt 0
	movq	%rdx, -192(%rbp)
Ltmp414:
	movq	%rbx, %r12
Ltmp415:
	shlq	$32, %r12
	orq	%rdx, %r12
Ltmp416:
	.loc	18 218 41 is_stmt 1
	xorq	-80(%rbp), %r12
	movq	-344(%rbp), %rdx
Ltmp417:
	.loc	18 0 41 is_stmt 0
	movq	-112(%rbp), %rsi
Ltmp418:
	.loc	35 3439 17 is_stmt 1
	addl	%esi, %edx
Ltmp419:
	.loc	35 0 17 is_stmt 0
	movq	%rdx, -344(%rbp)
	movq	-248(%rbp), %r11
Ltmp420:
	shlq	$32, %r11
	orq	%rdx, %r11
Ltmp421:
	.loc	18 218 41 is_stmt 1
	xorq	%rax, %r11
Ltmp422:
	.loc	18 0 41 is_stmt 0
	movq	-200(%rbp), %rax
Ltmp423:
	movq	-88(%rbp), %rdx
Ltmp424:
	.loc	35 3439 17 is_stmt 1
	addl	%edx, %eax
Ltmp425:
	.loc	35 0 17 is_stmt 0
	movq	%rax, -200(%rbp)
Ltmp426:
	shlq	$32, %r15
	orq	%rax, %r15
Ltmp427:
	.loc	18 218 41 is_stmt 1
	xorq	%r9, %r15
	movq	-384(%rbp), %rdx
Ltmp428:
	.loc	18 0 41 is_stmt 0
	movq	-168(%rbp), %rax
Ltmp429:
	.loc	35 3439 17 is_stmt 1
	addl	%eax, %edx
Ltmp430:
	.loc	35 0 17 is_stmt 0
	movq	%rdx, -384(%rbp)
	movq	-96(%rbp), %rax
Ltmp431:
	shlq	$32, %rax
	orq	%rdx, %rax
Ltmp432:
	.loc	18 218 41 is_stmt 1
	xorq	%r14, %rax
Ltmp433:
	.loc	33 241 68
	movq	%rax, %rcx
	shrq	$32, %rcx
Ltmp434:
	.loc	35 2790 17
	roll	$16, %eax
Ltmp435:
	.loc	35 2790 17 is_stmt 0
	roll	$16, %ecx
Ltmp436:
	.loc	14 42 5 is_stmt 1
	movq	%rcx, %rdx
Ltmp437:
	shlq	$32, %rdx
	orq	%rax, %rdx
Ltmp438:
	.loc	14 0 5 is_stmt 0
	movq	%rdx, -408(%rbp)
Ltmp439:
	.loc	35 3439 17 is_stmt 1
	addl	-136(%rbp), %eax
Ltmp440:
	.loc	35 0 17 is_stmt 0
	movq	%rax, -136(%rbp)
Ltmp441:
	.loc	33 241 68 is_stmt 1
	movq	%r15, %r14
Ltmp442:
	shrq	$32, %r14
Ltmp443:
	.loc	35 2790 17
	roll	$16, %r15d
Ltmp444:
	.loc	35 2790 17 is_stmt 0
	roll	$16, %r14d
Ltmp445:
	.loc	35 3439 17 is_stmt 1
	addl	-128(%rbp), %ecx
Ltmp446:
	.loc	35 0 17 is_stmt 0
	movq	%rcx, -80(%rbp)
Ltmp447:
	.loc	14 42 5 is_stmt 1
	movq	%r14, %rcx
	shlq	$32, %rcx
	orq	%r15, %rcx
Ltmp448:
	.loc	14 0 5 is_stmt 0
	movq	%rcx, -400(%rbp)
Ltmp449:
	.loc	35 3439 17 is_stmt 1
	addl	-120(%rbp), %r15d
Ltmp450:
	.loc	35 0 17 is_stmt 0
	movq	%r15, -72(%rbp)
Ltmp451:
	.loc	35 3439 17
	addl	-216(%rbp), %r14d
Ltmp452:
	.loc	35 0 17
	movq	%r14, -216(%rbp)
Ltmp453:
	.loc	33 214 17 is_stmt 1
	movq	%r10, %r9
Ltmp454:
	shrq	$32, %r9
Ltmp455:
	.loc	35 2790 17
	roll	$16, %r10d
Ltmp456:
	.loc	35 2790 17 is_stmt 0
	roll	$16, %r9d
Ltmp457:
	.loc	35 0 17
	movq	-296(%rbp), %rax
Ltmp458:
	.loc	35 3439 17 is_stmt 1
	addl	%r10d, %eax
Ltmp459:
	.loc	35 0 17 is_stmt 0
	movq	%r10, %r8
Ltmp460:
	movq	%rax, -296(%rbp)
	movq	-280(%rbp), %r10
Ltmp461:
	.loc	35 3439 17
	addl	%r9d, %r10d
Ltmp462:
	.loc	35 0 17
	movq	%r10, -280(%rbp)
Ltmp463:
	shlq	$32, %r10
	orq	%rax, %r10
Ltmp464:
	.loc	18 218 41 is_stmt 1
	xorq	-56(%rbp), %r10
	movq	-208(%rbp), %rcx
Ltmp465:
	.loc	33 214 17
	movq	%rcx, %rsi
Ltmp466:
	shrq	$32, %rsi
Ltmp467:
	.loc	35 2790 17
	roll	$16, %ecx
Ltmp468:
	.loc	35 0 17 is_stmt 0
	movq	%rcx, -208(%rbp)
Ltmp469:
	.loc	35 2790 17
	roll	$16, %esi
Ltmp470:
	.loc	35 0 17
	movq	-304(%rbp), %rax
Ltmp471:
	.loc	35 3439 17 is_stmt 1
	addl	%ecx, %eax
Ltmp472:
	.loc	35 0 17 is_stmt 0
	movq	%rax, -304(%rbp)
	movq	-288(%rbp), %rcx
Ltmp473:
	.loc	35 3439 17
	addl	%esi, %ecx
Ltmp474:
	.loc	35 0 17
	movq	%rcx, -288(%rbp)
Ltmp475:
	shlq	$32, %rcx
	orq	%rax, %rcx
Ltmp476:
	.loc	18 218 41 is_stmt 1
	xorq	-160(%rbp), %rcx
Ltmp477:
	.loc	18 0 41 is_stmt 0
	movq	%rcx, -128(%rbp)
	movq	-144(%rbp), %rdx
Ltmp478:
	.loc	33 214 17 is_stmt 1
	movq	%rdx, %rcx
	shrq	$32, %rcx
Ltmp479:
	.loc	35 2790 17
	roll	$16, %edx
Ltmp480:
	.loc	35 0 17 is_stmt 0
	movq	%rdx, -144(%rbp)
Ltmp481:
	.loc	35 2790 17
	roll	$16, %ecx
Ltmp482:
	.loc	35 0 17
	movq	-328(%rbp), %rax
Ltmp483:
	.loc	35 3439 17 is_stmt 1
	addl	%edx, %eax
Ltmp484:
	.loc	35 0 17 is_stmt 0
	movq	%rax, -328(%rbp)
	movq	-312(%rbp), %r15
Ltmp485:
	.loc	35 3439 17
	addl	%ecx, %r15d
Ltmp486:
	.loc	35 0 17
	movq	%r15, -312(%rbp)
Ltmp487:
	shlq	$32, %r15
	orq	%rax, %r15
Ltmp488:
	.loc	18 218 41 is_stmt 1
	xorq	-64(%rbp), %r15
Ltmp489:
	.loc	33 214 17
	movq	%r13, %rdx
	shrq	$32, %rdx
Ltmp490:
	.loc	35 2790 17
	roll	$16, %r13d
Ltmp491:
	.loc	35 0 17 is_stmt 0
	movq	%r13, -64(%rbp)
Ltmp492:
	.loc	35 2790 17
	roll	$16, %edx
Ltmp493:
	.loc	35 0 17
	movq	-336(%rbp), %rax
Ltmp494:
	.loc	35 3439 17 is_stmt 1
	addl	%r13d, %eax
Ltmp495:
	.loc	35 0 17 is_stmt 0
	movq	%rax, -336(%rbp)
	movq	-320(%rbp), %rdi
Ltmp496:
	.loc	35 3439 17
	addl	%edx, %edi
Ltmp497:
	.loc	35 0 17
	movq	%rdi, -320(%rbp)
Ltmp498:
	shlq	$32, %rdi
	orq	%rax, %rdi
Ltmp499:
	.loc	18 218 41 is_stmt 1
	xorq	-48(%rbp), %rdi
Ltmp500:
	.loc	18 0 41 is_stmt 0
	movq	%rdi, -120(%rbp)
Ltmp501:
	.loc	33 214 17 is_stmt 1
	movq	%r12, %rax
Ltmp502:
	shrq	$32, %rax
Ltmp503:
	.loc	35 2790 17
	roll	$16, %r12d
Ltmp504:
	.loc	35 0 17 is_stmt 0
	movq	%r12, -56(%rbp)
Ltmp505:
	.loc	35 2790 17
	roll	$16, %eax
Ltmp506:
	.loc	35 0 17
	movq	-368(%rbp), %rdi
Ltmp507:
	.loc	35 3439 17 is_stmt 1
	addl	%r12d, %edi
Ltmp508:
	.loc	35 0 17 is_stmt 0
	movq	%rdi, -368(%rbp)
	movq	-352(%rbp), %r12
Ltmp509:
	.loc	35 3439 17
	addl	%eax, %r12d
Ltmp510:
	.loc	35 0 17
	movq	%r12, -352(%rbp)
Ltmp511:
	shlq	$32, %r12
	orq	%rdi, %r12
Ltmp512:
	.loc	18 218 41 is_stmt 1
	xorq	-104(%rbp), %r12
Ltmp513:
	.loc	33 214 17
	movq	%r11, %r13
Ltmp514:
	shrq	$32, %r13
Ltmp515:
	.loc	35 2790 17
	roll	$16, %r11d
Ltmp516:
	.loc	35 0 17 is_stmt 0
	movq	%r11, -48(%rbp)
Ltmp517:
	.loc	35 2790 17
	roll	$16, %r13d
Ltmp518:
	.loc	35 0 17
	movq	-376(%rbp), %rdi
Ltmp519:
	.loc	35 3439 17 is_stmt 1
	addl	%r11d, %edi
Ltmp520:
	.loc	35 0 17 is_stmt 0
	movq	%rdi, -376(%rbp)
	movq	-360(%rbp), %rbx
Ltmp521:
	.loc	35 3439 17
	addl	%r13d, %ebx
Ltmp522:
	.loc	35 0 17
	movq	%rbx, -360(%rbp)
Ltmp523:
	movq	%rbx, %r11
Ltmp524:
	shlq	$32, %r11
	orq	%rdi, %r11
Ltmp525:
	.loc	18 218 41 is_stmt 1
	xorq	-112(%rbp), %r11
Ltmp526:
	.loc	18 0 41 is_stmt 0
	movq	%r11, -112(%rbp)
Ltmp527:
	movq	%r14, %rbx
Ltmp528:
	shlq	$32, %rbx
Ltmp529:
	addq	-72(%rbp), %rbx
Ltmp530:
	.loc	18 218 41
	xorq	-88(%rbp), %rbx
	movq	-80(%rbp), %rdi
Ltmp531:
	.loc	33 0 0
	shlq	$32, %rdi
	addq	-136(%rbp), %rdi
Ltmp532:
	.loc	18 218 41
	xorq	-168(%rbp), %rdi
Ltmp533:
	.loc	18 0 41
	movq	%rdi, -104(%rbp)
Ltmp534:
	shlq	$32, %r9
Ltmp535:
	orq	%r9, %r8
Ltmp536:
	shlq	$32, %rsi
Ltmp537:
	movq	-208(%rbp), %r11
Ltmp538:
	orq	%rsi, %r11
Ltmp539:
	shlq	$32, %rcx
Ltmp540:
	addq	%rcx, -144(%rbp)
	shlq	$32, %rdx
Ltmp541:
	movq	-64(%rbp), %r14
	orq	%rdx, %r14
Ltmp542:
	shlq	$32, %rax
Ltmp543:
	addq	%rax, -56(%rbp)
	shlq	$32, %r13
Ltmp544:
	addq	%r13, -48(%rbp)
Ltmp545:
	.loc	33 214 17 is_stmt 1
	movq	%r10, %rdi
Ltmp546:
	shrq	$32, %rdi
Ltmp547:
	.loc	35 2790 17
	roll	$12, %r10d
Ltmp548:
	.loc	35 2790 17 is_stmt 0
	roll	$12, %edi
Ltmp549:
	.loc	35 0 17
	movq	-176(%rbp), %rcx
Ltmp550:
	.loc	35 3439 17 is_stmt 1
	addl	%r10d, %ecx
Ltmp551:
	.loc	35 0 17 is_stmt 0
	movq	%rcx, -176(%rbp)
	movq	-152(%rbp), %rax
Ltmp552:
	.loc	35 3439 17
	addl	%edi, %eax
Ltmp553:
	.loc	35 0 17
	movq	%rax, -152(%rbp)
Ltmp554:
	movq	%rax, %rdx
Ltmp555:
	shlq	$32, %rdx
	orq	%rcx, %rdx
Ltmp556:
	.loc	18 218 41 is_stmt 1
	xorq	%r8, %rdx
Ltmp557:
	.loc	33 0 0 is_stmt 0
	shlq	$32, %rdi
Ltmp558:
	orq	%rdi, %r10
Ltmp559:
	.loc	33 214 17 is_stmt 1
	movq	%rdx, %rdi
Ltmp560:
	shrq	$32, %rdi
Ltmp561:
	.loc	35 2790 17
	roll	$8, %edx
Ltmp562:
	.loc	35 0 17 is_stmt 0
	movq	%rdx, -168(%rbp)
Ltmp563:
	.loc	35 2790 17
	roll	$8, %edi
Ltmp564:
	.loc	35 0 17
	movq	%rdi, -160(%rbp)
	movq	-296(%rbp), %rcx
Ltmp565:
	.loc	35 3439 17 is_stmt 1
	addl	%edx, %ecx
Ltmp566:
	.loc	35 0 17 is_stmt 0
	movq	%rcx, -296(%rbp)
	movq	-280(%rbp), %rax
Ltmp567:
	.loc	35 3439 17
	addl	%edi, %eax
Ltmp568:
	.loc	35 0 17
	movq	%rax, -280(%rbp)
Ltmp569:
	shlq	$32, %rax
	orq	%rcx, %rax
Ltmp570:
	.loc	18 218 41 is_stmt 1
	xorq	%r10, %rax
	movq	%rax, %rdx
	movq	-128(%rbp), %rcx
Ltmp571:
	.loc	33 214 17
	movq	%rcx, %rsi
Ltmp572:
	shrq	$32, %rsi
Ltmp573:
	.loc	35 2790 17
	roll	$12, %ecx
Ltmp574:
	.loc	35 0 17 is_stmt 0
	movq	%rcx, -128(%rbp)
Ltmp575:
	.loc	35 2790 17
	roll	$12, %esi
Ltmp576:
	.loc	35 0 17
	movq	%rsi, -88(%rbp)
	movq	-264(%rbp), %rax
Ltmp577:
	.loc	35 3439 17 is_stmt 1
	addl	%ecx, %eax
Ltmp578:
	.loc	35 0 17 is_stmt 0
	movq	%rax, -264(%rbp)
	movq	-392(%rbp), %r13
Ltmp579:
	.loc	35 3439 17
	addl	%esi, %r13d
Ltmp580:
	.loc	35 0 17
	movq	%rdx, -448(%rbp)
Ltmp581:
	.loc	35 2790 17 is_stmt 1
	roll	$7, %edx
Ltmp582:
	.loc	35 0 17 is_stmt 0
	movq	%rdx, %rcx
Ltmp583:
	movq	%rdx, -456(%rbp)
Ltmp584:
	.loc	35 3439 17 is_stmt 1
	addl	%r13d, %ecx
Ltmp585:
	.loc	35 0 17 is_stmt 0
	movq	%rcx, -208(%rbp)
Ltmp586:
	shlq	$32, %r13
	orq	%rax, %r13
Ltmp587:
	.loc	18 218 41 is_stmt 1
	xorq	%r11, %r13
Ltmp588:
	.loc	18 0 41 is_stmt 0
	movq	%r13, -64(%rbp)
Ltmp589:
	.loc	33 214 17 is_stmt 1
	movq	%r15, %rax
Ltmp590:
	.loc	35 2790 17
	roll	$12, %r15d
Ltmp591:
	.loc	33 214 17
	shrq	$32, %rax
Ltmp592:
	.loc	35 2790 17
	roll	$12, %eax
Ltmp593:
	.loc	35 0 17 is_stmt 0
	movq	-184(%rbp), %rdx
Ltmp594:
	.loc	35 3439 17 is_stmt 1
	addl	%r15d, %edx
Ltmp595:
	.loc	35 0 17 is_stmt 0
	movq	%rdx, -184(%rbp)
	movq	-224(%rbp), %rcx
Ltmp596:
	.loc	35 3439 17
	addl	%eax, %ecx
Ltmp597:
	.loc	35 0 17
	movq	%rcx, -224(%rbp)
Ltmp598:
	movq	%rcx, %rdi
Ltmp599:
	shlq	$32, %rdi
	orq	%rdx, %rdi
Ltmp600:
	.loc	18 218 41 is_stmt 1
	xorq	-144(%rbp), %rdi
Ltmp601:
	.loc	33 0 0 is_stmt 0
	shlq	$32, %rax
Ltmp602:
	orq	%rax, %r15
	movq	-120(%rbp), %r9
Ltmp603:
	.loc	33 214 17 is_stmt 1
	movq	%r9, %r10
Ltmp604:
	.loc	35 2790 17
	roll	$12, %r9d
Ltmp605:
	.loc	33 214 17
	shrq	$32, %r10
Ltmp606:
	.loc	35 2790 17
	roll	$12, %r10d
Ltmp607:
	.loc	33 214 17
	movq	%rdi, %rsi
Ltmp608:
	shrq	$32, %rsi
Ltmp609:
	.loc	35 2790 17
	roll	$8, %edi
Ltmp610:
	.loc	35 0 17 is_stmt 0
	movq	%rdi, -120(%rbp)
Ltmp611:
	.loc	35 2790 17
	roll	$8, %esi
Ltmp612:
	.loc	35 0 17
	movq	%rsi, -424(%rbp)
	movq	-328(%rbp), %rcx
Ltmp613:
	.loc	35 3439 17 is_stmt 1
	addl	%edi, %ecx
Ltmp614:
	.loc	35 0 17 is_stmt 0
	movq	%rcx, -328(%rbp)
	movq	-312(%rbp), %rax
Ltmp615:
	.loc	35 3439 17
	addl	%esi, %eax
Ltmp616:
	.loc	35 0 17
	movq	%rax, -312(%rbp)
Ltmp617:
	movq	%rax, %rdi
Ltmp618:
	shlq	$32, %rdi
	orq	%rcx, %rdi
Ltmp619:
	.loc	18 218 41 is_stmt 1
	xorq	%r15, %rdi
	movq	-272(%rbp), %rax
Ltmp620:
	.loc	35 3439 17
	addl	%r9d, %eax
Ltmp621:
	.loc	35 0 17 is_stmt 0
	movq	%rax, -272(%rbp)
	movq	%rdi, -432(%rbp)
Ltmp622:
	.loc	35 2790 17 is_stmt 1
	roll	$7, %edi
Ltmp623:
	.loc	35 0 17 is_stmt 0
	movq	%rdi, -392(%rbp)
	movq	-240(%rbp), %r11
Ltmp624:
	.loc	35 3439 17 is_stmt 1
	addl	%r10d, %r11d
Ltmp625:
	.loc	35 3439 17 is_stmt 0
	movl	%edi, %ecx
	addl	%r11d, %ecx
Ltmp626:
	.loc	35 0 17
	movq	%rcx, -240(%rbp)
Ltmp627:
	shlq	$32, %r11
Ltmp628:
	orq	%rax, %r11
Ltmp629:
	.loc	18 218 41 is_stmt 1
	xorq	%r14, %r11
Ltmp630:
	.loc	18 0 41 is_stmt 0
	movq	%r11, %r13
Ltmp631:
	.loc	33 214 17 is_stmt 1
	movq	%r12, %rax
Ltmp632:
	shrq	$32, %rax
Ltmp633:
	.loc	35 2790 17
	roll	$12, %r12d
Ltmp634:
	.loc	35 2790 17 is_stmt 0
	roll	$12, %eax
Ltmp635:
	.loc	35 0 17
	movq	-192(%rbp), %rdx
Ltmp636:
	.loc	35 3439 17 is_stmt 1
	addl	%r12d, %edx
Ltmp637:
	.loc	35 0 17 is_stmt 0
	movq	%rdx, -192(%rbp)
	movq	-232(%rbp), %rcx
Ltmp638:
	.loc	35 3439 17
	addl	%eax, %ecx
Ltmp639:
	.loc	35 0 17
	movq	%rcx, -232(%rbp)
Ltmp640:
	movq	%rcx, %rdi
Ltmp641:
	shlq	$32, %rdi
	orq	%rdx, %rdi
Ltmp642:
	.loc	18 218 41 is_stmt 1
	xorq	-56(%rbp), %rdi
Ltmp643:
	.loc	33 0 0 is_stmt 0
	shlq	$32, %rax
Ltmp644:
	orq	%rax, %r12
	movq	-112(%rbp), %r8
Ltmp645:
	.loc	33 214 17 is_stmt 1
	movq	%r8, %r15
Ltmp646:
	shrq	$32, %r15
Ltmp647:
	.loc	35 2790 17
	roll	$12, %r8d
Ltmp648:
	.loc	35 2790 17 is_stmt 0
	roll	$12, %r15d
Ltmp649:
	.loc	33 241 68 is_stmt 1
	movq	%rbx, %rax
Ltmp650:
	.loc	35 2790 17
	roll	$12, %ebx
Ltmp651:
	.loc	33 241 68
	shrq	$32, %rax
Ltmp652:
	.loc	35 2790 17
	roll	$12, %eax
Ltmp653:
	.loc	33 214 17
	movq	%rdi, %rsi
Ltmp654:
	shrq	$32, %rsi
Ltmp655:
	.loc	35 2790 17
	roll	$8, %edi
Ltmp656:
	.loc	35 0 17 is_stmt 0
	movq	%rdi, -56(%rbp)
Ltmp657:
	.loc	35 2790 17
	roll	$8, %esi
Ltmp658:
	.loc	35 0 17
	movq	%rsi, -464(%rbp)
	movq	-368(%rbp), %rdx
Ltmp659:
	.loc	35 3439 17 is_stmt 1
	addl	%edi, %edx
Ltmp660:
	.loc	35 0 17 is_stmt 0
	movq	%rdx, -368(%rbp)
	movq	-352(%rbp), %rcx
Ltmp661:
	.loc	35 3439 17
	addl	%esi, %ecx
Ltmp662:
	.loc	35 0 17
	movq	%rcx, -352(%rbp)
Ltmp663:
	movq	%rcx, %rsi
Ltmp664:
	shlq	$32, %rsi
	orq	%rdx, %rsi
Ltmp665:
	.loc	18 218 41 is_stmt 1
	xorq	%r12, %rsi
	movq	-344(%rbp), %rcx
Ltmp666:
	.loc	35 3439 17
	addl	%r8d, %ecx
Ltmp667:
	.loc	35 0 17 is_stmt 0
	movq	%rcx, -344(%rbp)
	movq	%rsi, -440(%rbp)
Ltmp668:
	.loc	35 2790 17 is_stmt 1
	roll	$7, %esi
Ltmp669:
	.loc	35 0 17 is_stmt 0
	movq	%rsi, %rdx
	movq	%rsi, -112(%rbp)
	movq	-248(%rbp), %r14
Ltmp670:
	.loc	35 3439 17 is_stmt 1
	addl	%r15d, %r14d
Ltmp671:
	.loc	35 3439 17 is_stmt 0
	addl	%r14d, %edx
Ltmp672:
	.loc	35 0 17
	movq	%rdx, -248(%rbp)
Ltmp673:
	shlq	$32, %r14
Ltmp674:
	orq	%rcx, %r14
Ltmp675:
	.loc	18 218 41 is_stmt 1
	xorq	-48(%rbp), %r14
Ltmp676:
	.loc	18 0 41 is_stmt 0
	movq	%r14, -48(%rbp)
	movq	-200(%rbp), %rdx
Ltmp677:
	.loc	35 3439 17 is_stmt 1
	addl	%ebx, %edx
Ltmp678:
	.loc	35 0 17 is_stmt 0
	movq	%rdx, -200(%rbp)
	movq	-256(%rbp), %r14
Ltmp679:
	.loc	35 3439 17
	addl	%eax, %r14d
Ltmp680:
	.loc	35 0 17
	movq	%r14, -256(%rbp)
Ltmp681:
	shlq	$32, %r14
	orq	%rdx, %r14
Ltmp682:
	.loc	18 218 41 is_stmt 1
	xorq	-400(%rbp), %r14
Ltmp683:
	.loc	33 241 68
	movq	%r14, %rcx
Ltmp684:
	.loc	35 2790 17
	roll	$8, %r14d
Ltmp685:
	.loc	35 3439 17
	movl	%r14d, %edx
	addl	-72(%rbp), %edx
Ltmp686:
	.loc	35 0 17 is_stmt 0
	movq	%rdx, -416(%rbp)
Ltmp687:
	shlq	$32, %rax
Ltmp688:
	orq	%rax, %rbx
Ltmp689:
	.loc	33 241 68 is_stmt 1
	shrq	$32, %rcx
Ltmp690:
	.loc	35 2790 17
	roll	$8, %ecx
Ltmp691:
	.loc	35 0 17 is_stmt 0
	movq	-216(%rbp), %rax
Ltmp692:
	.loc	35 3439 17 is_stmt 1
	addl	%ecx, %eax
Ltmp693:
	.loc	35 0 17 is_stmt 0
	movq	%rax, -216(%rbp)
Ltmp694:
	shlq	$32, %rax
Ltmp695:
	orq	%rdx, %rax
Ltmp696:
	.loc	18 218 41 is_stmt 1
	xorq	%rbx, %rax
	movq	-104(%rbp), %rbx
Ltmp697:
	.loc	33 241 68
	movq	%rbx, %rdx
Ltmp698:
	.loc	35 2790 17
	roll	$12, %ebx
Ltmp699:
	.loc	33 241 68
	shrq	$32, %rdx
Ltmp700:
	.loc	35 2790 17
	roll	$12, %edx
Ltmp701:
	.loc	35 0 17 is_stmt 0
	movq	-384(%rbp), %rdi
Ltmp702:
	.loc	35 3439 17 is_stmt 1
	addl	%ebx, %edi
Ltmp703:
	.loc	35 0 17 is_stmt 0
	movq	%rdi, -384(%rbp)
	movq	%rbx, %r12
Ltmp704:
	movq	-96(%rbp), %rbx
Ltmp705:
	.loc	35 3439 17
	addl	%edx, %ebx
Ltmp706:
	.loc	35 0 17
	movq	%rax, -104(%rbp)
Ltmp707:
	.loc	35 2790 17 is_stmt 1
	roll	$7, %eax
Ltmp708:
	.loc	35 0 17 is_stmt 0
	movq	%rax, -400(%rbp)
Ltmp709:
	.loc	35 3439 17 is_stmt 1
	movl	%eax, %esi
	addl	%ebx, %esi
Ltmp710:
	.loc	35 0 17 is_stmt 0
	movq	%rsi, -144(%rbp)
Ltmp711:
	shlq	$32, %rbx
	orq	%rdi, %rbx
Ltmp712:
	.loc	18 218 41 is_stmt 1
	xorq	-408(%rbp), %rbx
Ltmp713:
	.loc	33 241 68
	movq	%rbx, %rdi
Ltmp714:
	shrq	$32, %rdi
Ltmp715:
	.loc	35 2790 17
	roll	$8, %edi
Ltmp716:
	.loc	14 56 5
	shlq	$32, %r14
Ltmp717:
	orq	%rdi, %r14
Ltmp718:
	.loc	14 0 5 is_stmt 0
	movq	%r14, -472(%rbp)
Ltmp719:
	.loc	35 3439 17 is_stmt 1
	movl	%edi, %r11d
Ltmp720:
	addl	-80(%rbp), %r11d
Ltmp721:
	.loc	35 0 17 is_stmt 0
	movq	%r11, -408(%rbp)
	movq	-88(%rbp), %rax
Ltmp722:
	shlq	$32, %rax
Ltmp723:
	movq	-128(%rbp), %rsi
Ltmp724:
	orq	%rax, %rsi
Ltmp725:
	shlq	$32, %r10
Ltmp726:
	movq	%r9, %rdi
Ltmp727:
	orq	%r10, %rdi
Ltmp728:
	shlq	$32, %r15
Ltmp729:
	orq	%r15, %r8
Ltmp730:
	shlq	$32, %rdx
Ltmp731:
	orq	%rdx, %r12
Ltmp732:
	movq	-64(%rbp), %r9
Ltmp733:
	.loc	33 214 17 is_stmt 1
	movq	%r9, %rdx
	shrq	$32, %rdx
Ltmp734:
	.loc	35 2790 17
	roll	$8, %r9d
Ltmp735:
	.loc	35 0 17 is_stmt 0
	movq	%r9, -64(%rbp)
Ltmp736:
	.loc	35 2790 17
	roll	$8, %edx
Ltmp737:
	.loc	35 0 17
	movq	%rdx, -128(%rbp)
	movq	-304(%rbp), %rax
Ltmp738:
	.loc	35 3439 17 is_stmt 1
	addl	%r9d, %eax
Ltmp739:
	.loc	35 0 17 is_stmt 0
	movq	%rax, -304(%rbp)
	movq	-288(%rbp), %r15
Ltmp740:
	.loc	35 3439 17
	addl	%edx, %r15d
Ltmp741:
	.loc	35 0 17
	movq	%r15, -288(%rbp)
Ltmp742:
	shlq	$32, %r15
	orq	%rax, %r15
Ltmp743:
	.loc	18 218 41 is_stmt 1
	xorq	%rsi, %r15
Ltmp744:
	.loc	33 214 17
	movq	%r13, %rdx
	shrq	$32, %rdx
Ltmp745:
	.loc	35 2790 17
	roll	$8, %r13d
Ltmp746:
	.loc	35 2790 17 is_stmt 0
	roll	$8, %edx
Ltmp747:
	.loc	35 0 17
	movq	%rdx, -80(%rbp)
	movq	-336(%rbp), %rax
Ltmp748:
	.loc	35 3439 17 is_stmt 1
	addl	%r13d, %eax
Ltmp749:
	.loc	35 0 17 is_stmt 0
	movq	%r13, %rsi
Ltmp750:
	movq	%rax, -336(%rbp)
	movq	-320(%rbp), %r13
Ltmp751:
	.loc	35 3439 17
	addl	%edx, %r13d
Ltmp752:
	.loc	35 0 17
	movq	%r13, -320(%rbp)
Ltmp753:
	shlq	$32, %r13
	orq	%rax, %r13
Ltmp754:
	.loc	18 218 41 is_stmt 1
	xorq	%rdi, %r13
Ltmp755:
	.loc	18 0 41 is_stmt 0
	movq	-48(%rbp), %rax
Ltmp756:
	.loc	33 214 17 is_stmt 1
	movq	%rax, %rdi
Ltmp757:
	shrq	$32, %rdi
Ltmp758:
	.loc	35 2790 17
	roll	$8, %eax
Ltmp759:
	.loc	35 0 17 is_stmt 0
	movq	%rax, -48(%rbp)
Ltmp760:
	.loc	35 2790 17
	roll	$8, %edi
Ltmp761:
	.loc	35 0 17
	movq	%rdi, -72(%rbp)
Ltmp762:
	.loc	35 2790 17
	roll	$8, %ebx
Ltmp763:
	.loc	35 0 17
	movq	-376(%rbp), %rdx
Ltmp764:
	.loc	35 3439 17 is_stmt 1
	addl	%eax, %edx
Ltmp765:
	.loc	35 0 17 is_stmt 0
	movq	%rdx, -376(%rbp)
	movq	-360(%rbp), %rax
Ltmp766:
	.loc	35 3439 17
	addl	%edi, %eax
Ltmp767:
	.loc	35 0 17
	movq	%rax, -360(%rbp)
Ltmp768:
	movq	%rax, %rdi
Ltmp769:
	shlq	$32, %rdi
	orq	%rdx, %rdi
Ltmp770:
	.loc	18 218 41 is_stmt 1
	xorq	%r8, %rdi
Ltmp771:
	.loc	18 0 41 is_stmt 0
	movq	-136(%rbp), %rax
Ltmp772:
	.loc	35 3439 17 is_stmt 1
	addl	%ebx, %eax
Ltmp773:
	.loc	35 0 17 is_stmt 0
	movq	%rax, -136(%rbp)
Ltmp774:
	movq	%r11, %r9
Ltmp775:
	shlq	$32, %r9
	orq	%rax, %r9
Ltmp776:
	.loc	18 218 41 is_stmt 1
	xorq	%r12, %r9
Ltmp777:
	.loc	18 0 41 is_stmt 0
	movq	-448(%rbp), %rax
Ltmp778:
	.loc	33 214 17 is_stmt 1
	shrq	$32, %rax
Ltmp779:
	.loc	33 0 17 is_stmt 0
	movq	%r15, -88(%rbp)
Ltmp780:
	.loc	35 2790 17 is_stmt 1
	roll	$7, %r15d
Ltmp781:
	.loc	35 2790 17 is_stmt 0
	roll	$7, %eax
Ltmp782:
	.loc	35 0 17
	movq	%r13, -96(%rbp)
Ltmp783:
	.loc	35 2790 17
	roll	$7, %r13d
Ltmp784:
	.loc	35 0 17
	movq	-432(%rbp), %rdx
Ltmp785:
	.loc	33 214 17 is_stmt 1
	shrq	$32, %rdx
Ltmp786:
	.loc	35 2790 17
	roll	$7, %edx
Ltmp787:
	.loc	14 56 5
	shlq	$32, %rbx
Ltmp788:
	orq	%rcx, %rbx
Ltmp789:
	.loc	14 0 5 is_stmt 0
	movq	-152(%rbp), %rcx
Ltmp790:
	.loc	35 3439 17 is_stmt 1
	addl	%r15d, %ecx
Ltmp791:
	.loc	35 0 17 is_stmt 0
	movq	%rcx, -152(%rbp)
Ltmp792:
	shlq	$32, %r15
	orq	%rax, %r15
Ltmp793:
	.loc	35 3439 17
	addl	-176(%rbp), %eax
Ltmp794:
	.loc	35 0 17
	movq	%rax, -176(%rbp)
	movq	-224(%rbp), %r8
Ltmp795:
	.loc	35 3439 17
	addl	%r13d, %r8d
Ltmp796:
	.loc	35 0 17
	movq	%r8, -224(%rbp)
Ltmp797:
	shlq	$32, %r13
Ltmp798:
	orq	%rdx, %r13
	movq	%r13, -432(%rbp)
Ltmp799:
	.loc	35 3439 17
	movl	%edx, %eax
Ltmp800:
	addl	-184(%rbp), %eax
Ltmp801:
	.loc	35 0 17
	movq	%rax, -184(%rbp)
	movq	-440(%rbp), %rcx
Ltmp802:
	.loc	33 214 17 is_stmt 1
	shrq	$32, %rcx
Ltmp803:
	.loc	33 0 17 is_stmt 0
	movq	%rdi, %rax
Ltmp804:
	.loc	33 214 17
	movq	%rdi, %r11
Ltmp805:
	.loc	35 2790 17 is_stmt 1
	roll	$7, %eax
Ltmp806:
	.loc	35 2790 17 is_stmt 0
	roll	$7, %ecx
	movq	-232(%rbp), %r10
Ltmp807:
	.loc	35 3439 17 is_stmt 1
	addl	%eax, %r10d
Ltmp808:
	.loc	35 0 17 is_stmt 0
	movq	%r10, -232(%rbp)
Ltmp809:
	shlq	$32, %rax
	orq	%rcx, %rax
	movq	%rax, -440(%rbp)
Ltmp810:
	.loc	35 3439 17
	movl	%ecx, %eax
Ltmp811:
	addl	-192(%rbp), %eax
Ltmp812:
	.loc	35 0 17
	movq	%rax, -192(%rbp)
	movq	%r9, %rax
Ltmp813:
	.loc	33 241 68 is_stmt 1
	movq	%r9, %r12
Ltmp814:
	.loc	35 2790 17
	roll	$7, %eax
Ltmp815:
	.loc	35 0 17 is_stmt 0
	movq	-104(%rbp), %rcx
Ltmp816:
	.loc	33 241 68 is_stmt 1
	shrq	$32, %rcx
Ltmp817:
	.loc	35 2790 17
	roll	$7, %ecx
Ltmp818:
	.loc	35 0 17 is_stmt 0
	movq	-256(%rbp), %r9
Ltmp819:
	.loc	35 3439 17 is_stmt 1
	addl	%eax, %r9d
Ltmp820:
	.loc	35 0 17 is_stmt 0
	movq	%r9, -256(%rbp)
Ltmp821:
	shlq	$32, %rax
Ltmp822:
	orq	%rcx, %rax
	movq	%rax, -448(%rbp)
Ltmp823:
	.loc	35 3439 17
	movl	%ecx, %eax
Ltmp824:
	addl	-200(%rbp), %eax
Ltmp825:
	.loc	35 0 17
	movq	%rax, -200(%rbp)
	movq	-168(%rbp), %r14
Ltmp826:
	shlq	$32, %r14
Ltmp827:
	addq	-128(%rbp), %r14
Ltmp828:
	movq	-64(%rbp), %rcx
Ltmp829:
	shlq	$32, %rcx
Ltmp830:
	movq	-160(%rbp), %rax
Ltmp831:
	orq	%rcx, %rax
Ltmp832:
	movq	-120(%rbp), %rcx
Ltmp833:
	shlq	$32, %rcx
Ltmp834:
	addq	-80(%rbp), %rcx
Ltmp835:
	movq	%rcx, -120(%rbp)
Ltmp836:
	shlq	$32, %rsi
Ltmp837:
	movq	-424(%rbp), %rdx
Ltmp838:
	orq	%rsi, %rdx
Ltmp839:
	movq	-56(%rbp), %rcx
Ltmp840:
	shlq	$32, %rcx
Ltmp841:
	addq	-72(%rbp), %rcx
Ltmp842:
	movq	%rcx, -56(%rbp)
Ltmp843:
	movq	-48(%rbp), %rcx
Ltmp844:
	shlq	$32, %rcx
Ltmp845:
	movq	-464(%rbp), %rdi
Ltmp846:
	orq	%rcx, %rdi
Ltmp847:
	movq	-88(%rbp), %rsi
Ltmp848:
	.loc	33 214 17 is_stmt 1
	shrq	$32, %rsi
Ltmp849:
	.loc	35 2790 17
	roll	$7, %esi
Ltmp850:
	.loc	35 0 17 is_stmt 0
	movq	%rsi, -88(%rbp)
	movq	-152(%rbp), %rcx
Ltmp851:
	shlq	$32, %rcx
	movq	-176(%rbp), %r13
	addq	%rcx, %r13
Ltmp852:
	.loc	18 218 41 is_stmt 1
	xorq	%r14, %r13
	movq	-264(%rbp), %rcx
Ltmp853:
	.loc	35 3439 17
	addl	%esi, %ecx
Ltmp854:
	.loc	35 0 17 is_stmt 0
	movq	%rcx, -264(%rbp)
	movq	-208(%rbp), %rsi
Ltmp855:
	shlq	$32, %rsi
	orq	%rcx, %rsi
Ltmp856:
	.loc	18 218 41 is_stmt 1
	xorq	%rax, %rsi
Ltmp857:
	.loc	18 0 41 is_stmt 0
	movq	%rsi, %r14
Ltmp858:
	movq	%r8, %rcx
Ltmp859:
	shlq	$32, %rcx
	movq	-184(%rbp), %rax
Ltmp860:
	addq	%rcx, %rax
Ltmp861:
	.loc	18 218 41
	xorq	-120(%rbp), %rax
	movq	%rax, -80(%rbp)
	movq	-96(%rbp), %rax
Ltmp862:
	.loc	33 214 17 is_stmt 1
	shrq	$32, %rax
Ltmp863:
	.loc	35 2790 17
	roll	$7, %eax
Ltmp864:
	.loc	35 0 17 is_stmt 0
	movq	%rax, -96(%rbp)
	movq	-272(%rbp), %rcx
Ltmp865:
	.loc	35 3439 17 is_stmt 1
	addl	%eax, %ecx
Ltmp866:
	.loc	35 0 17 is_stmt 0
	movq	%rcx, -272(%rbp)
	movq	-240(%rbp), %rax
Ltmp867:
	shlq	$32, %rax
	orq	%rcx, %rax
Ltmp868:
	.loc	18 218 41 is_stmt 1
	xorq	%rdx, %rax
Ltmp869:
	.loc	18 0 41 is_stmt 0
	movq	%rax, -72(%rbp)
Ltmp870:
	.loc	33 214 17 is_stmt 1
	shrq	$32, %r11
Ltmp871:
	.loc	35 2790 17
	roll	$7, %r11d
Ltmp872:
	.loc	33 0 0 is_stmt 0
	shlq	$32, %r10
Ltmp873:
	movq	-192(%rbp), %rax
	leaq	(%rax,%r10), %r8
Ltmp874:
	.loc	18 218 41 is_stmt 1
	xorq	-56(%rbp), %r8
	movq	-344(%rbp), %rcx
Ltmp875:
	.loc	35 3439 17
	addl	%r11d, %ecx
Ltmp876:
	.loc	35 0 17 is_stmt 0
	movq	%rcx, -344(%rbp)
	movq	-248(%rbp), %rax
Ltmp877:
	shlq	$32, %rax
	orq	%rcx, %rax
Ltmp878:
	.loc	18 218 41 is_stmt 1
	xorq	%rdi, %rax
Ltmp879:
	.loc	18 0 41 is_stmt 0
	movq	%rax, -104(%rbp)
Ltmp880:
	shlq	$32, %r9
	movq	-200(%rbp), %rax
	leaq	(%rax,%r9), %rdx
Ltmp881:
	.loc	18 218 41
	xorq	-472(%rbp), %rdx
Ltmp882:
	.loc	33 241 68 is_stmt 1
	shrq	$32, %r12
Ltmp883:
	.loc	35 2790 17
	roll	$7, %r12d
Ltmp884:
	.loc	35 0 17 is_stmt 0
	movq	-384(%rbp), %rcx
Ltmp885:
	.loc	35 3439 17 is_stmt 1
	addl	%r12d, %ecx
Ltmp886:
	.loc	35 0 17 is_stmt 0
	movq	%rcx, -384(%rbp)
	movq	-144(%rbp), %rax
Ltmp887:
	shlq	$32, %rax
	orq	%rcx, %rax
Ltmp888:
	.loc	18 218 41 is_stmt 1
	xorq	%rbx, %rax
Ltmp889:
	.loc	33 241 68
	movq	%rax, %rcx
Ltmp890:
	shrq	$32, %rcx
Ltmp891:
	.loc	35 2790 17
	roll	$16, %eax
Ltmp892:
	.loc	35 2790 17 is_stmt 0
	roll	$16, %ecx
Ltmp893:
	.loc	14 42 5 is_stmt 1
	movq	%rcx, %rsi
	shlq	$32, %rsi
	orq	%rax, %rsi
Ltmp894:
	.loc	14 0 5 is_stmt 0
	movq	%rsi, -424(%rbp)
Ltmp895:
	.loc	35 3439 17 is_stmt 1
	addl	-416(%rbp), %eax
Ltmp896:
	.loc	35 0 17 is_stmt 0
	movq	%rax, -120(%rbp)
	movq	%rdx, %rax
Ltmp897:
	.loc	33 241 68 is_stmt 1
	movq	%rdx, %rsi
Ltmp898:
	shrq	$32, %rsi
Ltmp899:
	.loc	35 2790 17
	roll	$16, %eax
Ltmp900:
	.loc	35 2790 17 is_stmt 0
	roll	$16, %esi
Ltmp901:
	.loc	35 3439 17 is_stmt 1
	addl	-216(%rbp), %ecx
Ltmp902:
	.loc	35 0 17 is_stmt 0
	movq	%rcx, -216(%rbp)
Ltmp903:
	.loc	14 42 5 is_stmt 1
	movq	%rsi, %rcx
	shlq	$32, %rcx
	orq	%rax, %rcx
Ltmp904:
	.loc	14 0 5 is_stmt 0
	movq	%rcx, -416(%rbp)
Ltmp905:
	.loc	35 3439 17 is_stmt 1
	addl	-136(%rbp), %eax
Ltmp906:
	.loc	35 0 17 is_stmt 0
	movq	%rax, -136(%rbp)
Ltmp907:
	.loc	35 3439 17
	addl	-408(%rbp), %esi
Ltmp908:
	.loc	35 0 17
	movq	%rsi, -128(%rbp)
Ltmp909:
	movq	-456(%rbp), %rax
Ltmp910:
	shlq	$32, %rax
Ltmp911:
	movq	-88(%rbp), %rsi
Ltmp912:
	orq	%rax, %rsi
Ltmp913:
	movq	-392(%rbp), %rax
Ltmp914:
	shlq	$32, %rax
Ltmp915:
	movq	-96(%rbp), %r9
	orq	%rax, %r9
Ltmp916:
	movq	-112(%rbp), %rax
Ltmp917:
	shlq	$32, %rax
Ltmp918:
	orq	%rax, %r11
Ltmp919:
	movq	-400(%rbp), %rax
Ltmp920:
	shlq	$32, %rax
Ltmp921:
	orq	%rax, %r12
Ltmp922:
	.loc	33 214 17 is_stmt 1
	movq	%r13, %rdx
	shrq	$32, %rdx
Ltmp923:
	.loc	35 2790 17
	roll	$16, %r13d
Ltmp924:
	.loc	35 0 17 is_stmt 0
	movq	%r13, -96(%rbp)
Ltmp925:
	.loc	35 2790 17
	roll	$16, %edx
Ltmp926:
	.loc	35 0 17
	movq	-304(%rbp), %rax
Ltmp927:
	.loc	35 3439 17 is_stmt 1
	addl	%r13d, %eax
Ltmp928:
	.loc	35 0 17 is_stmt 0
	movq	%rax, -304(%rbp)
	movq	-288(%rbp), %rcx
Ltmp929:
	.loc	35 3439 17
	addl	%edx, %ecx
Ltmp930:
	.loc	35 0 17
	movq	%rcx, -288(%rbp)
Ltmp931:
	shlq	$32, %rcx
	orq	%rax, %rcx
Ltmp932:
	.loc	18 218 41 is_stmt 1
	xorq	%r15, %rcx
	movq	%rcx, -88(%rbp)
Ltmp933:
	.loc	33 214 17
	movq	%r14, %r15
Ltmp934:
	shrq	$32, %r15
Ltmp935:
	.loc	35 2790 17
	roll	$16, %r14d
Ltmp936:
	.loc	35 2790 17 is_stmt 0
	roll	$16, %r15d
Ltmp937:
	.loc	35 0 17
	movq	-296(%rbp), %rcx
Ltmp938:
	.loc	35 3439 17 is_stmt 1
	addl	%r14d, %ecx
Ltmp939:
	.loc	35 0 17 is_stmt 0
	movq	%r14, %rbx
Ltmp940:
	movq	%rcx, -296(%rbp)
	movq	-280(%rbp), %rax
Ltmp941:
	.loc	35 3439 17
	addl	%r15d, %eax
Ltmp942:
	.loc	35 0 17
	movq	%rax, -280(%rbp)
Ltmp943:
	shlq	$32, %rax
	orq	%rcx, %rax
Ltmp944:
	.loc	18 218 41 is_stmt 1
	xorq	%rsi, %rax
Ltmp945:
	.loc	18 0 41 is_stmt 0
	movq	%rax, -112(%rbp)
	movq	-80(%rbp), %rax
Ltmp946:
	.loc	33 214 17 is_stmt 1
	movq	%rax, %rdi
Ltmp947:
	shrq	$32, %rdi
Ltmp948:
	.loc	35 2790 17
	roll	$16, %eax
Ltmp949:
	.loc	35 0 17 is_stmt 0
	movq	%rax, -80(%rbp)
Ltmp950:
	.loc	35 2790 17
	roll	$16, %edi
Ltmp951:
	.loc	35 0 17
	movq	-336(%rbp), %rcx
Ltmp952:
	.loc	35 3439 17 is_stmt 1
	addl	%eax, %ecx
Ltmp953:
	.loc	35 0 17 is_stmt 0
	movq	%rcx, -336(%rbp)
	movq	-320(%rbp), %rax
Ltmp954:
	.loc	35 3439 17
	addl	%edi, %eax
Ltmp955:
	.loc	35 0 17
	movq	%rax, -320(%rbp)
Ltmp956:
	shlq	$32, %rax
	orq	%rcx, %rax
Ltmp957:
	.loc	18 218 41 is_stmt 1
	xorq	-432(%rbp), %rax
	movq	%rax, -48(%rbp)
	movq	-72(%rbp), %rax
Ltmp958:
	.loc	33 214 17
	movq	%rax, %rsi
Ltmp959:
	shrq	$32, %rsi
Ltmp960:
	.loc	35 2790 17
	roll	$16, %eax
Ltmp961:
	.loc	35 0 17 is_stmt 0
	movq	%rax, -72(%rbp)
Ltmp962:
	.loc	35 2790 17
	roll	$16, %esi
Ltmp963:
	.loc	35 0 17
	movq	-328(%rbp), %rcx
Ltmp964:
	.loc	35 3439 17 is_stmt 1
	addl	%eax, %ecx
Ltmp965:
	.loc	35 0 17 is_stmt 0
	movq	%rcx, -328(%rbp)
	movq	-312(%rbp), %r14
Ltmp966:
	.loc	35 3439 17
	addl	%esi, %r14d
Ltmp967:
	.loc	35 0 17
	movq	%r14, -312(%rbp)
Ltmp968:
	shlq	$32, %r14
	orq	%rcx, %r14
Ltmp969:
	.loc	18 218 41 is_stmt 1
	xorq	%r9, %r14
Ltmp970:
	.loc	18 0 41 is_stmt 0
	movq	%r8, %rax
Ltmp971:
	.loc	33 214 17 is_stmt 1
	movq	%r8, %rcx
Ltmp972:
	shrq	$32, %rcx
Ltmp973:
	.loc	35 2790 17
	roll	$16, %eax
Ltmp974:
	.loc	35 0 17 is_stmt 0
	movq	%rax, -160(%rbp)
Ltmp975:
	.loc	35 2790 17
	roll	$16, %ecx
Ltmp976:
	.loc	35 0 17
	movq	-376(%rbp), %r8
Ltmp977:
	.loc	35 3439 17 is_stmt 1
	addl	%eax, %r8d
Ltmp978:
	.loc	35 0 17 is_stmt 0
	movq	%r8, -376(%rbp)
	movq	-360(%rbp), %r13
Ltmp979:
	.loc	35 3439 17
	addl	%ecx, %r13d
Ltmp980:
	.loc	35 0 17
	movq	%r13, -360(%rbp)
Ltmp981:
	shlq	$32, %r13
	orq	%r8, %r13
Ltmp982:
	.loc	18 218 41 is_stmt 1
	xorq	-440(%rbp), %r13
	movq	-104(%rbp), %rax
Ltmp983:
	.loc	33 214 17
	movq	%rax, %r8
	shrq	$32, %r8
Ltmp984:
	.loc	35 2790 17
	roll	$16, %eax
Ltmp985:
	.loc	35 0 17 is_stmt 0
	movq	%rax, -104(%rbp)
Ltmp986:
	.loc	35 2790 17
	roll	$16, %r8d
Ltmp987:
	.loc	35 0 17
	movq	-368(%rbp), %r9
Ltmp988:
	.loc	35 3439 17 is_stmt 1
	addl	%eax, %r9d
Ltmp989:
	.loc	35 0 17 is_stmt 0
	movq	%r9, -368(%rbp)
	movq	-352(%rbp), %rax
Ltmp990:
	.loc	35 3439 17
	addl	%r8d, %eax
Ltmp991:
	.loc	35 0 17
	movq	%rax, -352(%rbp)
Ltmp992:
	shlq	$32, %rax
	orq	%r9, %rax
Ltmp993:
	.loc	18 218 41 is_stmt 1
	xorq	%r11, %rax
Ltmp994:
	.loc	18 0 41 is_stmt 0
	movq	%rax, -168(%rbp)
	movq	-128(%rbp), %rax
Ltmp995:
	shlq	$32, %rax
	addq	-136(%rbp), %rax
Ltmp996:
	.loc	18 218 41
	xorq	-448(%rbp), %rax
	movq	%rax, -56(%rbp)
	movq	-216(%rbp), %rax
Ltmp997:
	.loc	33 0 0
	shlq	$32, %rax
	addq	-120(%rbp), %rax
Ltmp998:
	.loc	18 218 41
	xorq	%r12, %rax
Ltmp999:
	.loc	18 0 41
	movq	%rax, -64(%rbp)
Ltmp1000:
	shlq	$32, %rdx
Ltmp1001:
	movq	-96(%rbp), %r9
Ltmp1002:
	orq	%rdx, %r9
Ltmp1003:
	shlq	$32, %r15
Ltmp1004:
	orq	%r15, %rbx
Ltmp1005:
	shlq	$32, %rdi
Ltmp1006:
	movq	-80(%rbp), %r10
Ltmp1007:
	orq	%rdi, %r10
Ltmp1008:
	shlq	$32, %rsi
Ltmp1009:
	movq	-72(%rbp), %rdi
	orq	%rsi, %rdi
Ltmp1010:
	shlq	$32, %rcx
Ltmp1011:
	addq	%rcx, -160(%rbp)
	shlq	$32, %r8
Ltmp1012:
	addq	%r8, -104(%rbp)
Ltmp1013:
	movq	-152(%rbp), %r15
Ltmp1014:
	movq	-88(%rbp), %rax
Ltmp1015:
	.loc	33 214 17 is_stmt 1
	movq	%rax, %r12
Ltmp1016:
	shrq	$32, %r12
Ltmp1017:
	.loc	35 2790 17
	roll	$12, %eax
Ltmp1018:
	.loc	35 0 17 is_stmt 0
	movq	%rax, -88(%rbp)
Ltmp1019:
	.loc	35 2790 17
	roll	$12, %r12d
Ltmp1020:
	.loc	35 0 17
	movq	-176(%rbp), %rcx
Ltmp1021:
	.loc	35 3439 17 is_stmt 1
	addl	%eax, %ecx
Ltmp1022:
	.loc	35 3439 17 is_stmt 0
	addl	%r12d, %r15d
Ltmp1023:
	.loc	35 0 17
	movq	%r15, -400(%rbp)
Ltmp1024:
	shlq	$32, %r15
	movq	%rcx, %rax
Ltmp1025:
	movq	%rcx, -176(%rbp)
Ltmp1026:
	orq	%rcx, %r15
Ltmp1027:
	.loc	18 218 41 is_stmt 1
	xorq	%r9, %r15
	movq	-112(%rbp), %rax
Ltmp1028:
	.loc	33 214 17
	movq	%rax, %r9
Ltmp1029:
	shrq	$32, %r9
Ltmp1030:
	.loc	35 2790 17
	roll	$12, %eax
Ltmp1031:
	.loc	35 0 17 is_stmt 0
	movq	%rax, -112(%rbp)
Ltmp1032:
	.loc	35 2790 17
	roll	$12, %r9d
Ltmp1033:
	.loc	35 0 17
	movq	-264(%rbp), %rcx
Ltmp1034:
	.loc	35 3439 17 is_stmt 1
	addl	%eax, %ecx
Ltmp1035:
	.loc	35 0 17 is_stmt 0
	movq	-208(%rbp), %r8
Ltmp1036:
	.loc	35 3439 17
	addl	%r9d, %r8d
Ltmp1037:
	.loc	35 0 17
	movq	%r8, -208(%rbp)
Ltmp1038:
	shlq	$32, %r8
	movq	%rcx, -264(%rbp)
	orq	%rcx, %r8
Ltmp1039:
	.loc	18 218 41 is_stmt 1
	xorq	%rbx, %r8
Ltmp1040:
	.loc	18 0 41 is_stmt 0
	movq	-224(%rbp), %rsi
Ltmp1041:
	movq	-48(%rbp), %rdx
Ltmp1042:
	.loc	33 214 17 is_stmt 1
	movq	%rdx, %rcx
	shrq	$32, %rcx
Ltmp1043:
	.loc	35 2790 17
	roll	$12, %edx
Ltmp1044:
	.loc	35 0 17 is_stmt 0
	movq	%rdx, -48(%rbp)
Ltmp1045:
	.loc	35 2790 17
	roll	$12, %ecx
Ltmp1046:
	.loc	35 0 17
	movq	-184(%rbp), %rbx
Ltmp1047:
	.loc	35 3439 17 is_stmt 1
	addl	%edx, %ebx
Ltmp1048:
	.loc	35 3439 17 is_stmt 0
	addl	%ecx, %esi
Ltmp1049:
	.loc	35 0 17
	movq	%rsi, -456(%rbp)
Ltmp1050:
	shlq	$32, %rsi
Ltmp1051:
	movq	%rbx, %rdx
Ltmp1052:
	movq	%rbx, -184(%rbp)
Ltmp1053:
	orq	%rbx, %rsi
Ltmp1054:
	.loc	18 218 41 is_stmt 1
	xorq	%r10, %rsi
Ltmp1055:
	.loc	18 0 41 is_stmt 0
	movq	%rsi, -80(%rbp)
Ltmp1056:
	.loc	33 214 17 is_stmt 1
	movq	%r14, %rax
Ltmp1057:
	shrq	$32, %rax
Ltmp1058:
	.loc	35 2790 17
	roll	$12, %r14d
Ltmp1059:
	.loc	35 0 17 is_stmt 0
	movq	%r14, -72(%rbp)
Ltmp1060:
	.loc	35 2790 17
	roll	$12, %eax
Ltmp1061:
	.loc	35 0 17
	movq	-272(%rbp), %rsi
Ltmp1062:
	.loc	35 3439 17 is_stmt 1
	addl	%r14d, %esi
Ltmp1063:
	.loc	35 0 17 is_stmt 0
	movq	-240(%rbp), %rdx
Ltmp1064:
	.loc	35 3439 17
	addl	%eax, %edx
Ltmp1065:
	.loc	35 0 17
	movq	%rdx, -240(%rbp)
Ltmp1066:
	shlq	$32, %rdx
	movq	%rsi, -272(%rbp)
	orq	%rsi, %rdx
Ltmp1067:
	.loc	18 218 41 is_stmt 1
	xorq	%rdi, %rdx
Ltmp1068:
	.loc	18 0 41 is_stmt 0
	movq	%rdx, -96(%rbp)
	movq	-232(%rbp), %rdx
Ltmp1069:
	.loc	33 214 17 is_stmt 1
	movq	%r13, %r11
Ltmp1070:
	shrq	$32, %r11
Ltmp1071:
	.loc	35 2790 17
	roll	$12, %r13d
Ltmp1072:
	.loc	35 0 17 is_stmt 0
	movq	%r13, -392(%rbp)
Ltmp1073:
	.loc	35 2790 17
	roll	$12, %r11d
Ltmp1074:
	.loc	35 0 17
	movq	-192(%rbp), %rbx
Ltmp1075:
	.loc	35 3439 17 is_stmt 1
	addl	%r13d, %ebx
Ltmp1076:
	.loc	35 3439 17 is_stmt 0
	addl	%r11d, %edx
Ltmp1077:
	.loc	35 0 17
	movq	%rdx, -408(%rbp)
Ltmp1078:
	movq	%rdx, %rsi
Ltmp1079:
	shlq	$32, %rsi
Ltmp1080:
	movq	%rbx, %rdx
Ltmp1081:
	movq	%rbx, -192(%rbp)
Ltmp1082:
	orq	%rbx, %rsi
Ltmp1083:
	.loc	18 218 41 is_stmt 1
	xorq	-160(%rbp), %rsi
Ltmp1084:
	.loc	18 0 41 is_stmt 0
	movq	%rsi, -224(%rbp)
	movq	-168(%rbp), %rdx
Ltmp1085:
	.loc	33 214 17 is_stmt 1
	movq	%rdx, %r14
Ltmp1086:
	shrq	$32, %r14
Ltmp1087:
	.loc	35 2790 17
	roll	$12, %edx
Ltmp1088:
	.loc	35 0 17 is_stmt 0
	movq	%rdx, -168(%rbp)
Ltmp1089:
	.loc	35 2790 17
	roll	$12, %r14d
Ltmp1090:
	.loc	35 0 17
	movq	-344(%rbp), %rdi
Ltmp1091:
	.loc	35 3439 17 is_stmt 1
	addl	%edx, %edi
Ltmp1092:
	.loc	35 0 17 is_stmt 0
	movq	-248(%rbp), %rdx
Ltmp1093:
	.loc	35 3439 17
	addl	%r14d, %edx
Ltmp1094:
	.loc	35 0 17
	movq	%rdx, -248(%rbp)
Ltmp1095:
	shlq	$32, %rdx
	movq	%rdi, -344(%rbp)
	orq	%rdi, %rdx
Ltmp1096:
	.loc	18 218 41 is_stmt 1
	xorq	-104(%rbp), %rdx
Ltmp1097:
	.loc	18 0 41 is_stmt 0
	movq	%rdx, -232(%rbp)
	movq	-256(%rbp), %r10
Ltmp1098:
	movq	-56(%rbp), %r13
Ltmp1099:
	.loc	33 241 68 is_stmt 1
	movq	%r13, %rbx
Ltmp1100:
	shrq	$32, %rbx
Ltmp1101:
	.loc	35 2790 17
	roll	$12, %r13d
Ltmp1102:
	.loc	35 0 17 is_stmt 0
	movq	%r13, -56(%rbp)
Ltmp1103:
	.loc	35 2790 17
	roll	$12, %ebx
Ltmp1104:
	.loc	35 0 17
	movq	-200(%rbp), %rdi
Ltmp1105:
	.loc	35 3439 17 is_stmt 1
	addl	%r13d, %edi
Ltmp1106:
	.loc	35 3439 17 is_stmt 0
	addl	%ebx, %r10d
Ltmp1107:
	.loc	35 0 17
	movq	%r10, -256(%rbp)
Ltmp1108:
	shlq	$32, %r10
	movq	%rdi, %rdx
Ltmp1109:
	movq	%rdi, -200(%rbp)
Ltmp1110:
	orq	%rdi, %r10
Ltmp1111:
	.loc	18 218 41 is_stmt 1
	xorq	-416(%rbp), %r10
	movq	%r10, -152(%rbp)
	movq	-64(%rbp), %rsi
Ltmp1112:
	.loc	33 241 68
	movq	%rsi, %r10
Ltmp1113:
	shrq	$32, %r10
Ltmp1114:
	.loc	35 2790 17
	roll	$12, %esi
Ltmp1115:
	.loc	35 0 17 is_stmt 0
	movq	%rsi, -64(%rbp)
Ltmp1116:
	.loc	35 2790 17
	roll	$12, %r10d
Ltmp1117:
	.loc	35 0 17
	movq	-384(%rbp), %rdx
Ltmp1118:
	.loc	35 3439 17 is_stmt 1
	addl	%esi, %edx
Ltmp1119:
	.loc	35 0 17 is_stmt 0
	movq	-144(%rbp), %r13
Ltmp1120:
	.loc	35 3439 17
	addl	%r10d, %r13d
Ltmp1121:
	.loc	35 0 17
	movq	%r13, -144(%rbp)
Ltmp1122:
	shlq	$32, %r13
	movq	%rdx, -384(%rbp)
	orq	%rdx, %r13
Ltmp1123:
	.loc	18 218 41 is_stmt 1
	xorq	-424(%rbp), %r13
Ltmp1124:
	.loc	33 0 0 is_stmt 0
	shlq	$32, %r12
Ltmp1125:
	movq	-88(%rbp), %rsi
Ltmp1126:
	orq	%r12, %rsi
Ltmp1127:
	shlq	$32, %r9
Ltmp1128:
	movq	-112(%rbp), %rdi
Ltmp1129:
	orq	%r9, %rdi
Ltmp1130:
	shlq	$32, %rcx
Ltmp1131:
	addq	%rcx, -48(%rbp)
	shlq	$32, %rax
Ltmp1132:
	addq	%rax, -72(%rbp)
Ltmp1133:
	shlq	$32, %r11
Ltmp1134:
	movq	-392(%rbp), %r9
Ltmp1135:
	orq	%r11, %r9
Ltmp1136:
	shlq	$32, %r14
Ltmp1137:
	movq	-168(%rbp), %r12
Ltmp1138:
	orq	%r14, %r12
Ltmp1139:
	shlq	$32, %rbx
Ltmp1140:
	addq	%rbx, -56(%rbp)
	shlq	$32, %r10
Ltmp1141:
	addq	%r10, -64(%rbp)
Ltmp1142:
	.loc	33 214 17 is_stmt 1
	movq	%r15, %rdx
Ltmp1143:
	shrq	$32, %rdx
Ltmp1144:
	.loc	35 2790 17
	roll	$8, %r15d
Ltmp1145:
	.loc	35 2790 17 is_stmt 0
	roll	$8, %edx
Ltmp1146:
	.loc	35 0 17
	movq	%rdx, -448(%rbp)
	movq	-304(%rbp), %rax
Ltmp1147:
	.loc	35 3439 17 is_stmt 1
	addl	%r15d, %eax
Ltmp1148:
	.loc	35 0 17 is_stmt 0
	movq	-288(%rbp), %rcx
Ltmp1149:
	.loc	35 3439 17
	addl	%edx, %ecx
Ltmp1150:
	.loc	35 0 17
	movq	%rcx, -288(%rbp)
Ltmp1151:
	shlq	$32, %rcx
	movq	%rax, -304(%rbp)
Ltmp1152:
	orq	%rax, %rcx
Ltmp1153:
	.loc	18 218 41 is_stmt 1
	xorq	%rsi, %rcx
Ltmp1154:
	.loc	33 214 17
	movq	%r8, %r10
	shrq	$32, %r10
Ltmp1155:
	.loc	35 2790 17
	roll	$8, %r8d
Ltmp1156:
	.loc	35 2790 17 is_stmt 0
	roll	$8, %r10d
Ltmp1157:
	.loc	35 0 17
	movq	-296(%rbp), %rdx
Ltmp1158:
	.loc	35 3439 17 is_stmt 1
	addl	%r8d, %edx
Ltmp1159:
	.loc	35 0 17 is_stmt 0
	movq	-280(%rbp), %rax
Ltmp1160:
	.loc	35 3439 17
	addl	%r10d, %eax
Ltmp1161:
	.loc	35 0 17
	movq	%rax, -280(%rbp)
Ltmp1162:
	shlq	$32, %rax
	movq	%rdx, -296(%rbp)
	addq	%rax, %rdx
Ltmp1163:
	.loc	18 218 41 is_stmt 1
	xorq	%rdi, %rdx
Ltmp1164:
	.loc	18 0 41 is_stmt 0
	movq	-80(%rbp), %rsi
Ltmp1165:
	.loc	33 214 17 is_stmt 1
	movq	%rsi, %rdi
Ltmp1166:
	shrq	$32, %rdi
Ltmp1167:
	.loc	35 2790 17
	roll	$8, %esi
Ltmp1168:
	.loc	35 0 17 is_stmt 0
	movq	%rsi, -80(%rbp)
Ltmp1169:
	.loc	35 2790 17
	roll	$8, %edi
Ltmp1170:
	.loc	35 0 17
	movq	%rdi, -424(%rbp)
	movq	-336(%rbp), %rax
Ltmp1171:
	.loc	35 3439 17 is_stmt 1
	addl	%esi, %eax
Ltmp1172:
	.loc	35 0 17 is_stmt 0
	movq	-320(%rbp), %rsi
Ltmp1173:
	.loc	35 3439 17
	addl	%edi, %esi
Ltmp1174:
	.loc	35 0 17
	movq	%rsi, -320(%rbp)
Ltmp1175:
	shlq	$32, %rsi
Ltmp1176:
	movq	%rax, -336(%rbp)
Ltmp1177:
	orq	%rax, %rsi
Ltmp1178:
	.loc	18 218 41 is_stmt 1
	xorq	-48(%rbp), %rsi
Ltmp1179:
	.loc	18 0 41 is_stmt 0
	movq	-96(%rbp), %rax
Ltmp1180:
	.loc	33 214 17 is_stmt 1
	movq	%rax, %rbx
	shrq	$32, %rbx
Ltmp1181:
	.loc	35 2790 17
	roll	$8, %eax
Ltmp1182:
	.loc	35 0 17 is_stmt 0
	movq	%rax, -96(%rbp)
Ltmp1183:
	.loc	35 2790 17
	roll	$8, %ebx
Ltmp1184:
	.loc	35 0 17
	movq	%rbx, -440(%rbp)
	movq	-328(%rbp), %rdi
Ltmp1185:
	.loc	35 3439 17 is_stmt 1
	addl	%eax, %edi
Ltmp1186:
	.loc	35 0 17 is_stmt 0
	movq	-312(%rbp), %rax
Ltmp1187:
	.loc	35 3439 17
	addl	%ebx, %eax
Ltmp1188:
	.loc	35 0 17
	movq	%rax, -312(%rbp)
Ltmp1189:
	shlq	$32, %rax
	movq	%rdi, -328(%rbp)
	leaq	(%rdi,%rax), %r14
Ltmp1190:
	.loc	18 218 41 is_stmt 1
	xorq	-72(%rbp), %r14
Ltmp1191:
	.loc	18 0 41 is_stmt 0
	movq	-224(%rbp), %rbx
Ltmp1192:
	.loc	33 214 17 is_stmt 1
	movq	%rbx, %rdi
Ltmp1193:
	shrq	$32, %rdi
Ltmp1194:
	.loc	35 2790 17
	roll	$8, %ebx
Ltmp1195:
	.loc	35 0 17 is_stmt 0
	movq	%rbx, -224(%rbp)
Ltmp1196:
	.loc	35 2790 17
	roll	$8, %edi
Ltmp1197:
	.loc	35 0 17
	movq	%rdi, -160(%rbp)
	movq	-376(%rbp), %rax
Ltmp1198:
	.loc	35 3439 17 is_stmt 1
	addl	%ebx, %eax
Ltmp1199:
	.loc	35 0 17 is_stmt 0
	movq	-360(%rbp), %rbx
Ltmp1200:
	.loc	35 3439 17
	addl	%edi, %ebx
Ltmp1201:
	.loc	35 0 17
	movq	%rbx, -360(%rbp)
Ltmp1202:
	shlq	$32, %rbx
	movq	%rax, -376(%rbp)
Ltmp1203:
	orq	%rax, %rbx
Ltmp1204:
	.loc	18 218 41 is_stmt 1
	xorq	%r9, %rbx
Ltmp1205:
	.loc	18 0 41 is_stmt 0
	movq	-232(%rbp), %rax
Ltmp1206:
	.loc	33 214 17 is_stmt 1
	movq	%rax, %rdi
	shrq	$32, %rdi
Ltmp1207:
	.loc	35 2790 17
	roll	$8, %eax
Ltmp1208:
	.loc	35 0 17 is_stmt 0
	movq	%rax, -232(%rbp)
Ltmp1209:
	.loc	35 2790 17
	roll	$8, %edi
Ltmp1210:
	.loc	35 0 17
	movq	%rdi, -392(%rbp)
	movq	-368(%rbp), %r9
Ltmp1211:
	.loc	35 3439 17 is_stmt 1
	addl	%eax, %r9d
Ltmp1212:
	.loc	35 0 17 is_stmt 0
	movq	-352(%rbp), %rax
Ltmp1213:
	.loc	35 3439 17
	addl	%edi, %eax
Ltmp1214:
	.loc	35 0 17
	movq	%rax, -352(%rbp)
Ltmp1215:
	shlq	$32, %rax
	movq	%r9, -368(%rbp)
	leaq	(%r9,%rax), %r11
Ltmp1216:
	.loc	18 218 41 is_stmt 1
	xorq	%r12, %r11
Ltmp1217:
	.loc	18 0 41 is_stmt 0
	movq	-152(%rbp), %rax
Ltmp1218:
	.loc	33 241 68 is_stmt 1
	movq	%rax, %r12
Ltmp1219:
	shrq	$32, %r12
Ltmp1220:
	.loc	35 2790 17
	roll	$8, %eax
Ltmp1221:
	.loc	35 0 17 is_stmt 0
	movq	%rax, -152(%rbp)
Ltmp1222:
	.loc	35 2790 17
	roll	$8, %r12d
Ltmp1223:
	.loc	35 0 17
	movq	-136(%rbp), %rdi
Ltmp1224:
	.loc	35 3439 17 is_stmt 1
	addl	%eax, %edi
Ltmp1225:
	.loc	35 0 17 is_stmt 0
	movq	-128(%rbp), %rax
Ltmp1226:
	.loc	35 3439 17
	addl	%r12d, %eax
Ltmp1227:
	.loc	35 0 17
	movq	%rax, -128(%rbp)
Ltmp1228:
	shlq	$32, %rax
	movq	%rdi, -136(%rbp)
Ltmp1229:
	orq	%rdi, %rax
Ltmp1230:
	.loc	18 218 41 is_stmt 1
	xorq	-56(%rbp), %rax
Ltmp1231:
	.loc	18 0 41 is_stmt 0
	movq	%r13, %rdi
Ltmp1232:
	.loc	33 241 68 is_stmt 1
	shrq	$32, %r13
Ltmp1233:
	.loc	35 2790 17
	roll	$8, %edi
Ltmp1234:
	.loc	35 0 17 is_stmt 0
	movq	%rdi, -72(%rbp)
Ltmp1235:
	.loc	35 2790 17
	roll	$8, %r13d
Ltmp1236:
	.loc	35 0 17
	movq	-120(%rbp), %r9
Ltmp1237:
	.loc	35 3439 17 is_stmt 1
	addl	%edi, %r9d
Ltmp1238:
	.loc	35 0 17 is_stmt 0
	movq	%r9, -120(%rbp)
	movq	-216(%rbp), %rdi
Ltmp1239:
	.loc	35 3439 17
	addl	%r13d, %edi
Ltmp1240:
	.loc	35 0 17
	movq	%rdi, -216(%rbp)
Ltmp1241:
	shlq	$32, %rdi
	addq	%rdi, %r9
Ltmp1242:
	.loc	18 218 41 is_stmt 1
	xorq	-64(%rbp), %r9
Ltmp1243:
	.loc	33 214 17
	movd	%edx, %xmm14
	shrq	$32, %rdx
	movd	%edx, %xmm7
	movd	%ecx, %xmm15
	shrq	$32, %rcx
	movd	%ecx, %xmm3
	movd	%r14d, %xmm8
	shrq	$32, %r14
	movd	%r14d, %xmm5
	movd	%esi, %xmm9
	shrq	$32, %rsi
Ltmp1244:
	movd	%esi, %xmm2
Ltmp1245:
	movd	%r11d, %xmm10
	shrq	$32, %r11
	movd	%r11d, %xmm4
	movd	%ebx, %xmm11
	shrq	$32, %rbx
	movd	%ebx, %xmm1
Ltmp1246:
	.loc	33 241 68
	movd	%r9d, %xmm12
	shrq	$32, %r9
	movd	%r9d, %xmm6
	movd	%eax, %xmm13
	shrq	$32, %rax
Ltmp1247:
	movd	%eax, %xmm0
Ltmp1248:
	.loc	33 214 17
	punpckldq	%xmm15, %xmm7
	punpckldq	%xmm14, %xmm3
	punpcklqdq	%xmm7, %xmm3
Ltmp1249:
	.loc	35 2790 17
	movdqa	%xmm3, %xmm7
	psrld	$25, %xmm7
	pslld	$7, %xmm3
	por	%xmm7, %xmm3
Ltmp1250:
	.loc	14 49 5
	pshufd	$231, %xmm3, %xmm7
	pshufd	$78, %xmm3, %xmm14
	movd	%xmm7, %ecx
Ltmp1251:
	.loc	14 64 5
	shlq	$32, %rcx
Ltmp1252:
	.loc	14 49 5
	movd	%xmm14, %eax
Ltmp1253:
	.loc	14 64 5
	orq	%rax, %rcx
	movq	%rcx, -56(%rbp)
	pshufd	$229, %xmm3, %xmm7
	movd	%xmm7, %eax
	shlq	$32, %rax
	movd	%xmm3, %edx
	orq	%rax, %rdx
Ltmp1254:
	.loc	33 214 17
	punpckldq	%xmm9, %xmm5
Ltmp1255:
	punpckldq	%xmm8, %xmm2
	punpcklqdq	%xmm5, %xmm2
Ltmp1256:
	.loc	35 2790 17
	movdqa	%xmm2, %xmm5
	psrld	$25, %xmm5
	pslld	$7, %xmm2
	por	%xmm5, %xmm2
Ltmp1257:
	.loc	14 49 5
	pshufd	$231, %xmm2, %xmm5
	pshufd	$78, %xmm2, %xmm7
	movd	%xmm5, %ecx
Ltmp1258:
	.loc	14 64 5
	shlq	$32, %rcx
Ltmp1259:
	.loc	14 49 5
	movd	%xmm7, %eax
Ltmp1260:
	.loc	14 64 5
	orq	%rax, %rcx
	movq	%rcx, -64(%rbp)
	pshufd	$229, %xmm2, %xmm5
	movd	%xmm5, %eax
	shlq	$32, %rax
	movd	%xmm2, %ecx
	orq	%rax, %rcx
	movq	%rcx, -48(%rbp)
Ltmp1261:
	.loc	33 214 17
	punpckldq	%xmm11, %xmm4
Ltmp1262:
	punpckldq	%xmm10, %xmm1
	punpcklqdq	%xmm4, %xmm1
Ltmp1263:
	.loc	35 2790 17
	movdqa	%xmm1, %xmm4
	psrld	$25, %xmm4
	pslld	$7, %xmm1
	por	%xmm4, %xmm1
Ltmp1264:
	.loc	14 49 5
	pshufd	$231, %xmm1, %xmm4
	pshufd	$78, %xmm1, %xmm5
	movd	%xmm4, %ecx
Ltmp1265:
	.loc	14 64 5
	shlq	$32, %rcx
Ltmp1266:
	.loc	14 49 5
	movd	%xmm5, %eax
Ltmp1267:
	.loc	14 64 5
	orq	%rax, %rcx
	movq	%rcx, -104(%rbp)
	pshufd	$229, %xmm1, %xmm4
	movd	%xmm4, %eax
	shlq	$32, %rax
	movd	%xmm1, %ecx
	orq	%rax, %rcx
	movq	%rcx, -112(%rbp)
Ltmp1268:
	.loc	33 241 68
	punpckldq	%xmm13, %xmm6
Ltmp1269:
	punpckldq	%xmm12, %xmm0
	punpcklqdq	%xmm6, %xmm0
Ltmp1270:
	.loc	35 2790 17
	movdqa	%xmm0, %xmm4
	psrld	$25, %xmm4
	pslld	$7, %xmm0
	por	%xmm4, %xmm0
Ltmp1271:
	.loc	14 49 5
	pshufd	$231, %xmm0, %xmm4
	pshufd	$78, %xmm0, %xmm5
	movd	%xmm4, %ecx
Ltmp1272:
	.loc	14 64 5
	shlq	$32, %rcx
Ltmp1273:
	.loc	14 49 5
	movd	%xmm5, %eax
Ltmp1274:
	.loc	14 64 5
	orq	%rax, %rcx
Ltmp1275:
	.loc	14 0 5 is_stmt 0
	movq	%rcx, -88(%rbp)
	.loc	14 64 5
	pshufd	$229, %xmm0, %xmm4
	movd	%xmm4, %eax
	shlq	$32, %rax
	movd	%xmm0, %ecx
	orq	%rax, %rcx
	movq	%rcx, -168(%rbp)
Ltmp1276:
	.loc	14 0 5
	movq	-152(%rbp), %r14
	.loc	14 63 5 is_stmt 1
	shlq	$32, %r14
	movq	%r13, -472(%rbp)
	orq	%r13, %r14
Ltmp1277:
	.loc	14 0 5 is_stmt 0
	movq	-72(%rbp), %r9
	.loc	14 63 5
	shlq	$32, %r9
	movq	%r12, -432(%rbp)
	orq	%r12, %r9
Ltmp1278:
	.loc	14 64 5 is_stmt 1
	movq	%r8, %rax
	shlq	$32, %rax
	movq	-448(%rbp), %rcx
Ltmp1279:
	.loc	14 0 5 is_stmt 0
	movq	%rcx, %rdi
Ltmp1280:
	.loc	14 64 5
	addq	%rcx, %rax
	movq	%rax, -464(%rbp)
Ltmp1281:
	movq	%r15, %r13
Ltmp1282:
	shlq	$32, %r13
	orq	%r10, %r13
Ltmp1283:
	.loc	14 0 5
	movq	-96(%rbp), %rax
	.loc	14 64 5
	shlq	$32, %rax
Ltmp1284:
	.loc	14 0 5
	movq	-424(%rbp), %rcx
Ltmp1285:
	.loc	14 64 5
	addq	%rcx, %rax
Ltmp1286:
	.loc	14 0 5
	movq	%rax, -416(%rbp)
	movq	-80(%rbp), %r12
Ltmp1287:
	movq	%r12, %rsi
Ltmp1288:
	.loc	14 64 5
	shlq	$32, %r12
	movq	-440(%rbp), %rax
	movq	%rax, %r11
	orq	%rax, %r12
Ltmp1289:
	.loc	14 0 5
	movq	-232(%rbp), %rax
	.loc	14 64 5
	shlq	$32, %rax
Ltmp1290:
	.loc	14 0 5
	movq	-160(%rbp), %rcx
	.loc	14 64 5
	addq	%rax, %rcx
Ltmp1291:
	.loc	14 0 5
	movq	-224(%rbp), %rax
	.loc	14 64 5
	shlq	$32, %rax
	addq	-392(%rbp), %rax
Ltmp1292:
	.file	37 "/rustc/6c8927b0cf80ceee19386026cf9d7fd4fd9d486f/src/libcore/cmp.rs"
	.loc	37 1136 52 is_stmt 1
	decl	-476(%rbp)
Ltmp1293:
	.loc	36 505 9
	jne	LBB30_1
Ltmp1294:
	.loc	36 0 9 is_stmt 0
	movq	%r15, %rbx
Ltmp1295:
	movq	-488(%rbp), %rdx
Ltmp1296:
	.loc	35 3439 17 is_stmt 1
	addq	$4, %rdx
Ltmp1297:
	.loc	35 0 17 is_stmt 0
	movq	-496(%rbp), %rcx
Ltmp1298:
	.loc	14 147 23 is_stmt 1
	movdqu	(%rcx), %xmm4
Ltmp1299:
	.loc	14 148 23
	movl	16(%rcx), %r15d
Ltmp1300:
	movl	20(%rcx), %r12d
Ltmp1301:
	movl	24(%rcx), %r13d
Ltmp1302:
	movl	28(%rcx), %eax
Ltmp1303:
	.loc	14 150 5
	movl	%edx, 32(%rcx)
Ltmp1304:
	.loc	14 139 24
	shrq	$32, %rdx
Ltmp1305:
	.loc	14 150 5
	movl	%edx, 36(%rcx)
Ltmp1306:
	.loc	35 3439 17
	addl	44(%rcx), %r8d
Ltmp1307:
	.loc	35 3439 17 is_stmt 0
	addl	40(%rcx), %edi
Ltmp1308:
	.loc	35 0 17
	movq	-264(%rbp), %rcx
Ltmp1309:
	.loc	35 3439 17
	addl	$1634760805, %ecx
Ltmp1310:
	.loc	35 0 17
	movq	-552(%rbp), %r9
Ltmp1311:
	.loc	7 901 51 is_stmt 1
	movl	%ecx, (%r9)
	movq	-208(%rbp), %rcx
Ltmp1312:
	.loc	35 3439 17
	addl	$857760878, %ecx
Ltmp1313:
	.loc	7 901 51
	movl	%ecx, 4(%r9)
Ltmp1314:
	.loc	7 0 51 is_stmt 0
	movq	-176(%rbp), %rcx
Ltmp1315:
	.loc	35 3439 17 is_stmt 1
	addl	$2036477234, %ecx
Ltmp1316:
	.loc	7 901 51
	movl	%ecx, 8(%r9)
Ltmp1317:
	.loc	7 0 51 is_stmt 0
	movq	-400(%rbp), %rcx
Ltmp1318:
	.loc	35 3439 17 is_stmt 1
	addl	$1797285236, %ecx
Ltmp1319:
	.loc	7 901 51
	movl	%ecx, 12(%r9)
Ltmp1320:
	.loc	35 3439 17
	paddd	%xmm4, %xmm3
Ltmp1321:
	.loc	7 901 51
	movdqu	%xmm3, 16(%r9)
Ltmp1322:
	.loc	7 0 51 is_stmt 0
	movq	-304(%rbp), %rcx
Ltmp1323:
	.loc	35 3439 17 is_stmt 1
	addl	%r15d, %ecx
Ltmp1324:
	.loc	7 901 51
	movl	%ecx, 32(%r9)
	movq	-288(%rbp), %rcx
Ltmp1325:
	.loc	35 3439 17
	addl	%r12d, %ecx
Ltmp1326:
	.loc	7 901 51
	movl	%ecx, 36(%r9)
Ltmp1327:
	.loc	7 0 51 is_stmt 0
	movq	-296(%rbp), %rcx
Ltmp1328:
	.loc	35 3439 17 is_stmt 1
	addl	%r13d, %ecx
Ltmp1329:
	.loc	7 901 51
	movl	%ecx, 40(%r9)
Ltmp1330:
	.loc	7 0 51 is_stmt 0
	movq	-280(%rbp), %rcx
Ltmp1331:
	.loc	35 3439 17 is_stmt 1
	addl	%eax, %ecx
Ltmp1332:
	.loc	7 901 51
	movl	%ecx, 44(%r9)
Ltmp1333:
	.loc	35 3439 17
	addl	-504(%rbp), %ebx
Ltmp1334:
	.loc	35 3439 17 is_stmt 0
	addl	-512(%rbp), %r10d
Ltmp1335:
	.loc	7 901 51 is_stmt 1
	movl	%r10d, 48(%r9)
	movl	%ebx, 52(%r9)
	movl	%edi, 56(%r9)
	movl	%r8d, 60(%r9)
Ltmp1336:
	.loc	7 0 51 is_stmt 0
	movq	-272(%rbp), %rcx
Ltmp1337:
	.loc	35 3439 17 is_stmt 1
	addl	$1634760805, %ecx
Ltmp1338:
	.loc	7 901 51
	movl	%ecx, 64(%r9)
Ltmp1339:
	.loc	7 0 51 is_stmt 0
	movq	-240(%rbp), %rcx
Ltmp1340:
	.loc	35 3439 17 is_stmt 1
	addl	$857760878, %ecx
Ltmp1341:
	.loc	7 901 51
	movl	%ecx, 68(%r9)
Ltmp1342:
	.loc	7 0 51 is_stmt 0
	movq	-184(%rbp), %rcx
Ltmp1343:
	.loc	35 3439 17 is_stmt 1
	addl	$2036477234, %ecx
Ltmp1344:
	.loc	7 901 51
	movl	%ecx, 72(%r9)
Ltmp1345:
	.loc	7 0 51 is_stmt 0
	movq	-456(%rbp), %rcx
Ltmp1346:
	.loc	35 3439 17 is_stmt 1
	addl	$1797285236, %ecx
Ltmp1347:
	.loc	7 901 51
	movl	%ecx, 76(%r9)
Ltmp1348:
	.loc	35 3439 17
	paddd	%xmm4, %xmm2
Ltmp1349:
	.loc	7 901 51
	movdqu	%xmm2, 80(%r9)
Ltmp1350:
	.loc	7 0 51 is_stmt 0
	movq	-336(%rbp), %rcx
Ltmp1351:
	.loc	35 3439 17 is_stmt 1
	addl	%r15d, %ecx
Ltmp1352:
	.loc	7 901 51
	movl	%ecx, 96(%r9)
Ltmp1353:
	.loc	7 0 51 is_stmt 0
	movq	-320(%rbp), %rcx
Ltmp1354:
	.loc	35 3439 17 is_stmt 1
	addl	%r12d, %ecx
Ltmp1355:
	.loc	7 901 51
	movl	%ecx, 100(%r9)
Ltmp1356:
	.loc	7 0 51 is_stmt 0
	movq	-328(%rbp), %rcx
Ltmp1357:
	.loc	35 3439 17 is_stmt 1
	addl	%r13d, %ecx
Ltmp1358:
	.loc	7 901 51
	movl	%ecx, 104(%r9)
Ltmp1359:
	.loc	7 0 51 is_stmt 0
	movq	-312(%rbp), %rcx
Ltmp1360:
	.loc	35 3439 17 is_stmt 1
	addl	%eax, %ecx
Ltmp1361:
	.loc	7 901 51
	movl	%ecx, 108(%r9)
Ltmp1362:
	.loc	7 0 51 is_stmt 0
	movq	-520(%rbp), %rcx
Ltmp1363:
	.loc	14 112 24 is_stmt 1
	movq	%rcx, %rdx
Ltmp1364:
	shrq	$32, %rdx
Ltmp1365:
	.loc	35 3439 17
	addl	%edx, %esi
Ltmp1366:
	.loc	35 3439 17 is_stmt 0
	addl	%ecx, %r11d
Ltmp1367:
	.loc	7 901 51 is_stmt 1
	movl	%r11d, 112(%r9)
Ltmp1368:
	movl	%esi, 116(%r9)
	movq	-544(%rbp), %r8
Ltmp1369:
	.loc	7 0 51 is_stmt 0
	movq	-424(%rbp), %r11
Ltmp1370:
	.loc	35 3439 17 is_stmt 1
	addl	%r8d, %r11d
Ltmp1371:
	.loc	7 901 51
	movl	%r11d, 120(%r9)
Ltmp1372:
	.loc	14 149 14
	movq	%r8, %rdx
	shrq	$32, %rdx
Ltmp1373:
	.loc	14 0 14 is_stmt 0
	movq	-96(%rbp), %r11
Ltmp1374:
	.loc	35 3439 17 is_stmt 1
	addl	%edx, %r11d
Ltmp1375:
	.loc	7 901 51
	movl	%r11d, 124(%r9)
Ltmp1376:
	.loc	7 0 51 is_stmt 0
	movq	-344(%rbp), %rsi
Ltmp1377:
	.loc	35 3439 17 is_stmt 1
	addl	$1634760805, %esi
Ltmp1378:
	.loc	7 901 51
	movl	%esi, 128(%r9)
Ltmp1379:
	.loc	7 0 51 is_stmt 0
	movq	-248(%rbp), %rcx
Ltmp1380:
	.loc	35 3439 17 is_stmt 1
	addl	$857760878, %ecx
Ltmp1381:
	.loc	7 901 51
	movl	%ecx, 132(%r9)
Ltmp1382:
	.loc	7 0 51 is_stmt 0
	movq	-192(%rbp), %rsi
Ltmp1383:
	.loc	35 3439 17 is_stmt 1
	addl	$2036477234, %esi
Ltmp1384:
	.loc	7 901 51
	movl	%esi, 136(%r9)
Ltmp1385:
	.loc	7 0 51 is_stmt 0
	movq	-408(%rbp), %rsi
Ltmp1386:
	.loc	35 3439 17 is_stmt 1
	addl	$1797285236, %esi
Ltmp1387:
	.loc	7 901 51
	movl	%esi, 140(%r9)
Ltmp1388:
	.loc	35 3439 17
	paddd	%xmm4, %xmm1
Ltmp1389:
	.loc	7 901 51
	movdqu	%xmm1, 144(%r9)
Ltmp1390:
	.loc	7 0 51 is_stmt 0
	movq	-376(%rbp), %rsi
Ltmp1391:
	.loc	35 3439 17 is_stmt 1
	addl	%r15d, %esi
Ltmp1392:
	.loc	7 901 51
	movl	%esi, 160(%r9)
Ltmp1393:
	.loc	7 0 51 is_stmt 0
	movq	-360(%rbp), %rsi
Ltmp1394:
	.loc	35 3439 17 is_stmt 1
	addl	%r12d, %esi
Ltmp1395:
	.loc	7 901 51
	movl	%esi, 164(%r9)
Ltmp1396:
	.loc	7 0 51 is_stmt 0
	movq	-368(%rbp), %rsi
Ltmp1397:
	.loc	35 3439 17 is_stmt 1
	addl	%r13d, %esi
Ltmp1398:
	.loc	7 901 51
	movl	%esi, 168(%r9)
Ltmp1399:
	.loc	7 0 51 is_stmt 0
	movq	-352(%rbp), %rsi
Ltmp1400:
	.loc	35 3439 17 is_stmt 1
	addl	%eax, %esi
Ltmp1401:
	.loc	7 901 51
	movl	%esi, 172(%r9)
Ltmp1402:
	.loc	7 0 51 is_stmt 0
	movq	-528(%rbp), %rcx
Ltmp1403:
	.loc	14 114 24 is_stmt 1
	movq	%rcx, %rsi
Ltmp1404:
	shrq	$32, %rsi
	movq	-224(%rbp), %r14
Ltmp1405:
	.loc	35 3439 17
	addl	%esi, %r14d
Ltmp1406:
	.loc	35 0 17 is_stmt 0
	movq	-392(%rbp), %rsi
Ltmp1407:
	.loc	35 3439 17
	addl	%ecx, %esi
Ltmp1408:
	.loc	7 901 51 is_stmt 1
	movl	%esi, 176(%r9)
Ltmp1409:
	movl	%r14d, 180(%r9)
	movq	-160(%rbp), %rcx
Ltmp1410:
	.loc	35 3439 17
	addl	%r8d, %ecx
Ltmp1411:
	.loc	7 901 51
	movl	%ecx, 184(%r9)
Ltmp1412:
	.loc	7 0 51 is_stmt 0
	movq	-232(%rbp), %rdi
Ltmp1413:
	.loc	35 3439 17 is_stmt 1
	addl	%edx, %edi
Ltmp1414:
	.loc	7 901 51
	movl	%edi, 188(%r9)
Ltmp1415:
	.loc	7 0 51 is_stmt 0
	movq	-384(%rbp), %rsi
Ltmp1416:
	.loc	35 3439 17 is_stmt 1
	addl	$1634760805, %esi
Ltmp1417:
	.loc	7 901 51
	movl	%esi, 192(%r9)
Ltmp1418:
	.loc	7 0 51 is_stmt 0
	movq	-144(%rbp), %rsi
Ltmp1419:
	.loc	35 3439 17 is_stmt 1
	addl	$857760878, %esi
Ltmp1420:
	.loc	7 901 51
	movl	%esi, 196(%r9)
Ltmp1421:
	.loc	7 0 51 is_stmt 0
	movq	-200(%rbp), %rsi
Ltmp1422:
	.loc	35 3439 17 is_stmt 1
	addl	$2036477234, %esi
Ltmp1423:
	.loc	7 901 51
	movl	%esi, 200(%r9)
Ltmp1424:
	.loc	7 0 51 is_stmt 0
	movq	-256(%rbp), %rsi
Ltmp1425:
	.loc	35 3439 17 is_stmt 1
	addl	$1797285236, %esi
Ltmp1426:
	.loc	7 901 51
	movl	%esi, 204(%r9)
Ltmp1427:
	.loc	7 0 51 is_stmt 0
	movq	-216(%rbp), %rsi
Ltmp1428:
	.loc	35 3439 17 is_stmt 1
	addl	%eax, %esi
Ltmp1429:
	.loc	35 0 17 is_stmt 0
	movq	-120(%rbp), %rdi
Ltmp1430:
	.loc	35 3439 17
	addl	%r13d, %edi
Ltmp1431:
	.loc	35 0 17
	movq	-128(%rbp), %rcx
Ltmp1432:
	.loc	35 3439 17
	addl	%r12d, %ecx
Ltmp1433:
	.loc	35 0 17
	movq	-136(%rbp), %rax
Ltmp1434:
	.loc	35 3439 17
	addl	%r15d, %eax
Ltmp1435:
	.loc	35 3439 17
	paddd	%xmm4, %xmm0
Ltmp1436:
	.loc	7 901 51 is_stmt 1
	movdqu	%xmm0, 208(%r9)
Ltmp1437:
	.loc	7 901 51 is_stmt 0
	movl	%eax, 224(%r9)
Ltmp1438:
	movl	%ecx, 228(%r9)
	movl	%edi, 232(%r9)
	movl	%esi, 236(%r9)
Ltmp1439:
	.loc	7 0 51
	movq	-72(%rbp), %rbx
Ltmp1440:
	.loc	35 3439 17 is_stmt 1
	addl	%edx, %ebx
Ltmp1441:
	.loc	35 0 17 is_stmt 0
	movq	-432(%rbp), %rdx
Ltmp1442:
	.loc	35 3439 17
	addl	%r8d, %edx
Ltmp1443:
	.loc	35 0 17
	movq	-536(%rbp), %rcx
Ltmp1444:
	.loc	14 116 24 is_stmt 1
	movq	%rcx, %rax
Ltmp1445:
	shrq	$32, %rax
Ltmp1446:
	.loc	14 0 24 is_stmt 0
	movq	-152(%rbp), %r11
Ltmp1447:
	.loc	35 3439 17 is_stmt 1
	addl	%eax, %r11d
Ltmp1448:
	.loc	35 0 17 is_stmt 0
	movq	-472(%rbp), %rax
Ltmp1449:
	.loc	35 3439 17
	addl	%ecx, %eax
Ltmp1450:
	.loc	7 901 51 is_stmt 1
	movl	%eax, 240(%r9)
Ltmp1451:
	movl	%r11d, 244(%r9)
	movl	%edx, 248(%r9)
	movl	%ebx, 252(%r9)
Ltmp1452:
	.loc	19 97 14
	addq	$512, %rsp
	popq	%rbx
Ltmp1453:
	popq	%r12
Ltmp1454:
	popq	%r13
Ltmp1455:
	popq	%r14
Ltmp1456:
	popq	%r15
Ltmp1457:
	popq	%rbp
	retq
Ltmp1458:
Lfunc_end30:
	.cfi_endproc
	.file	38 "/Users/yingyuhang/.cargo/registry/src/github.com-1ecc6299db9ec823/ppv-lite86-0.2.8/src/types.rs"

	.globl	__ZN85_$LT$rand..distributions..bernoulli..BernoulliError$u20$as$u20$core..fmt..Display$GT$3fmt17h58bac4ab2d6899dbE
	.p2align	4, 0x90
__ZN85_$LT$rand..distributions..bernoulli..BernoulliError$u20$as$u20$core..fmt..Display$GT$3fmt17h58bac4ab2d6899dbE:
Lfunc_begin31:
	.file	39 "/Users/yingyuhang/.cargo/git/checkouts/rand-cc8f5b7ec2d3b6d9/dca9cb5/src/distributions/bernoulli.rs"
	.loc	39 76 0
	.cfi_startproc
	pushq	%rbp
	.cfi_def_cfa_offset 16
	.cfi_offset %rbp, -16
	movq	%rsp, %rbp
	.cfi_def_cfa_register %rbp
	movq	%rsi, %rdi
Ltmp1459:
	.loc	39 77 9 prologue_end
	leaq	l___unnamed_36(%rip), %rsi
	movl	$45, %edx
	popq	%rbp
	jmp	__ZN4core3fmt9Formatter9write_str17h98e119ad25a8903eE
Ltmp1460:
Lfunc_end31:
	.cfi_endproc

	.globl	__ZN89_$LT$rand..distributions..weighted_index..WeightedError$u20$as$u20$core..fmt..Display$GT$3fmt17h2b5fc1657ebf1c4dE
	.p2align	4, 0x90
__ZN89_$LT$rand..distributions..weighted_index..WeightedError$u20$as$u20$core..fmt..Display$GT$3fmt17h2b5fc1657ebf1c4dE:
Lfunc_begin32:
	.file	40 "/Users/yingyuhang/.cargo/git/checkouts/rand-cc8f5b7ec2d3b6d9/dca9cb5/src/distributions/weighted_index.rs"
	.loc	40 443 0
	.cfi_startproc
	pushq	%rbp
	.cfi_def_cfa_offset 16
	.cfi_offset %rbp, -16
	movq	%rsp, %rbp
	.cfi_def_cfa_register %rbp
	subq	$48, %rsp
Ltmp1461:
	.loc	40 445 13 prologue_end
	movzbl	(%rdi), %eax
	leaq	LJTI32_0(%rip), %rcx
	movslq	(%rcx,%rax,4), %rax
	addq	%rcx, %rax
	jmpq	*%rax
Ltmp1462:
LBB32_2:
	.loc	20 328 9
	leaq	l___unnamed_37(%rip), %rax
Ltmp1463:
	.loc	20 0 9 is_stmt 0
	jmp	LBB32_5
Ltmp1464:
LBB32_4:
	.loc	20 328 9
	leaq	l___unnamed_38(%rip), %rax
Ltmp1465:
	.loc	20 0 9
	jmp	LBB32_5
Ltmp1466:
LBB32_1:
	.loc	20 328 9
	leaq	l___unnamed_39(%rip), %rax
Ltmp1467:
	.loc	20 0 9
	jmp	LBB32_5
Ltmp1468:
LBB32_3:
	.loc	20 328 9
	leaq	l___unnamed_40(%rip), %rax
Ltmp1469:
LBB32_5:
	.loc	40 0 0
	movq	%rax, -48(%rbp)
	movq	$1, -40(%rbp)
	movq	$0, -32(%rbp)
	leaq	l___unnamed_41(%rip), %rax
Ltmp1470:
	movq	%rax, -16(%rbp)
	movq	$0, -8(%rbp)
	leaq	-48(%rbp), %rax
Ltmp1471:
	movq	%rsi, %rdi
Ltmp1472:
	movq	%rax, %rsi
Ltmp1473:
	callq	__ZN4core3fmt9Formatter9write_fmt17h742ca6aae87ad23cE
	.loc	40 450 6 is_stmt 1
	addq	$48, %rsp
	popq	%rbp
	retq
Ltmp1474:
Lfunc_end32:
	.cfi_endproc
	.p2align	2, 0x90
	.data_region jt32
.set L32_0_set_2, LBB32_2-LJTI32_0
.set L32_0_set_3, LBB32_3-LJTI32_0
.set L32_0_set_4, LBB32_4-LJTI32_0
.set L32_0_set_1, LBB32_1-LJTI32_0
LJTI32_0:
	.long	L32_0_set_2
	.long	L32_0_set_3
	.long	L32_0_set_4
	.long	L32_0_set_1
	.end_data_region

	.globl	__ZN75_$LT$rand..rngs..adapter..read..ReadError$u20$as$u20$core..fmt..Display$GT$3fmt17hf37e3cde972d1e45E
	.p2align	4, 0x90
__ZN75_$LT$rand..rngs..adapter..read..ReadError$u20$as$u20$core..fmt..Display$GT$3fmt17hf37e3cde972d1e45E:
Lfunc_begin33:
	.file	41 "/Users/yingyuhang/.cargo/git/checkouts/rand-cc8f5b7ec2d3b6d9/dca9cb5/src/rngs/adapter/read.rs"
	.loc	41 92 0
	.cfi_startproc
	pushq	%rbp
	.cfi_def_cfa_offset 16
	.cfi_offset %rbp, -16
	movq	%rsp, %rbp
	.cfi_def_cfa_register %rbp
	subq	$64, %rsp
	movq	%rsi, %rax
Ltmp1475:
	.loc	41 93 9 prologue_end
	movq	%rdi, -16(%rbp)
	movq	__ZN60_$LT$std..io..error..Error$u20$as$u20$core..fmt..Display$GT$3fmt17h3716551a80b2cfe9E@GOTPCREL(%rip), %rcx
	movq	%rcx, -8(%rbp)
Ltmp1476:
	.loc	20 328 9
	leaq	l___unnamed_42(%rip), %rcx
Ltmp1477:
	movq	%rcx, -64(%rbp)
	movq	$1, -56(%rbp)
	movq	$0, -48(%rbp)
	leaq	-16(%rbp), %rcx
Ltmp1478:
	movq	%rcx, -32(%rbp)
	movq	$1, -24(%rbp)
	leaq	-64(%rbp), %rsi
Ltmp1479:
	.loc	41 93 9
	movq	%rax, %rdi
Ltmp1480:
	callq	__ZN4core3fmt9Formatter9write_fmt17h742ca6aae87ad23cE
Ltmp1481:
	.loc	41 94 6
	addq	$64, %rsp
	popq	%rbp
	retq
Ltmp1482:
Lfunc_end33:
	.cfi_endproc

	.globl	__ZN74_$LT$rand..rngs..adapter..read..ReadError$u20$as$u20$std..error..Error$GT$6source17h563a921319791777E
	.p2align	4, 0x90
__ZN74_$LT$rand..rngs..adapter..read..ReadError$u20$as$u20$std..error..Error$GT$6source17h563a921319791777E:
Lfunc_begin34:
	.loc	41 98 0
	.cfi_startproc
	pushq	%rbp
	.cfi_def_cfa_offset 16
	.cfi_offset %rbp, -16
	movq	%rsp, %rbp
	.cfi_def_cfa_register %rbp
	movq	%rdi, %rax
Ltmp1483:
	.loc	41 100 6 prologue_end
	leaq	l___unnamed_7(%rip), %rdx
	popq	%rbp
	retq
Ltmp1484:
Lfunc_end34:
	.cfi_endproc

	.p2align	4, 0x90
__ZN4rand4rngs7adapter9reseeding29ReseedingCore$LT$R$C$Rsdr$GT$19reseed_and_generate17h3b64d7d4e6dc5961E:
Lfunc_begin35:
	.loc	1 235 0
	.cfi_startproc
	.cfi_personality 155, _rust_eh_personality
	.cfi_lsda 16, Lexception2
	pushq	%rbp
	.cfi_def_cfa_offset 16
	.cfi_offset %rbp, -16
	movq	%rsp, %rbp
	.cfi_def_cfa_register %rbp
	pushq	%r15
	pushq	%r14
	pushq	%r13
	pushq	%r12
	pushq	%rbx
	subq	$56, %rsp
	.cfi_offset %rbx, -56
	.cfi_offset %r12, -48
	.cfi_offset %r13, -40
	.cfi_offset %r14, -32
	.cfi_offset %r15, -24
	movq	%rdx, %r15
	movq	%rsi, %r14
	movq	%rdi, %rbx
Ltmp1488:
	.loc	11 353 17 prologue_end
	xorps	%xmm0, %xmm0
	movaps	%xmm0, -80(%rbp)
	movaps	%xmm0, -96(%rbp)
Ltmp1489:
	.loc	11 0 17 is_stmt 0
	leaq	-96(%rbp), %rsi
Ltmp1490:
	.loc	12 397 9 is_stmt 1
	movl	$32, %edx
	callq	__ZN59_$LT$rand_core..os..OsRng$u20$as$u20$rand_core..RngCore$GT$14try_fill_bytes17h53035dcb5a91a77dE
Ltmp1491:
	.loc	12 348 42
	testq	%rax, %rax
	je	LBB35_1
Ltmp1492:
	.loc	1 0 0 is_stmt 0
	movq	%rax, %r12
	movq	%rdx, %r13
Ltmp1485:
Ltmp1493:
	.loc	7 184 1 is_stmt 1
	movq	%rax, %rdi
	callq	*(%rdx)
Ltmp1486:
Ltmp1494:
	.loc	31 292 20
	movq	8(%r13), %rsi
Ltmp1495:
	.loc	31 185 12
	testq	%rsi, %rsi
	.loc	31 185 9 is_stmt 0
	je	LBB35_5
Ltmp1496:
	.loc	31 293 21 is_stmt 1
	movq	16(%r13), %rdx
Ltmp1497:
	.loc	31 102 14
	movq	%r12, %rdi
	callq	___rust_dealloc
Ltmp1498:
	.loc	31 0 14 is_stmt 0
	jmp	LBB35_5
Ltmp1499:
LBB35_1:
	.loc	12 349 28 is_stmt 1
	movq	-80(%rbp), %rax
Ltmp1500:
	.loc	12 0 28 is_stmt 0
	movq	%rax, -64(%rbp)
	.loc	12 349 28
	movq	-72(%rbp), %rax
Ltmp1501:
	.loc	12 0 28
	movq	%rax, -56(%rbp)
	.loc	12 349 9
	movq	-96(%rbp), %r13
Ltmp1502:
	movq	-88(%rbp), %rax
Ltmp1503:
	.loc	12 0 9
	movq	%rax, -48(%rbp)
Ltmp1504:
	.loc	14 221 13 is_stmt 1
	leaq	L___unnamed_25(%rip), %rdi
Ltmp1505:
	movl	$4, %esi
	callq	__ZN11rand_chacha4guts10read_u32le17hd86f813c661891a5E
Ltmp1506:
	movl	%eax, %r12d
Ltmp1507:
	.loc	14 222 13
	leaq	L___unnamed_25+4(%rip), %rdi
	movl	$4, %esi
	callq	__ZN11rand_chacha4guts10read_u32le17hd86f813c661891a5E
Ltmp1508:
	.loc	1 215 39
	movq	48(%rbx), %rcx
	.loc	1 215 13 is_stmt 0
	movq	%rcx, 56(%rbx)
	.loc	1 216 13 is_stmt 1
	movq	%r13, (%rbx)
	movq	-48(%rbp), %rcx
Ltmp1509:
	movq	%rcx, 8(%rbx)
	movq	-64(%rbp), %rcx
Ltmp1510:
	movq	%rcx, 16(%rbx)
	movq	-56(%rbp), %rcx
	movq	%rcx, 24(%rbx)
	movq	$0, 32(%rbx)
	movl	%r12d, 40(%rbx)
	movl	%eax, 44(%rbx)
Ltmp1511:
LBB35_5:
	.loc	1 251 9
	movq	%r15, 64(%rbx)
	movq	$-256, %rax
	.loc	1 253 35
	addq	48(%rbx), %rax
	jo	LBB35_6
Ltmp1512:
	.loc	1 253 9 is_stmt 0
	movq	%rax, 56(%rbx)
	.loc	1 254 9 is_stmt 1
	movq	%rbx, %rdi
	movq	%r14, %rsi
	callq	__ZN84_$LT$rand_chacha..chacha..ChaCha20Core$u20$as$u20$rand_core..block..BlockRngCore$GT$8generate17h43439e5d58445085E
Ltmp1513:
	.loc	1 255 6
	addq	$56, %rsp
	popq	%rbx
Ltmp1514:
	popq	%r12
	popq	%r13
	popq	%r14
Ltmp1515:
	popq	%r15
Ltmp1516:
	popq	%rbp
	retq
Ltmp1517:
LBB35_6:
	.loc	1 253 35
	leaq	_str.0(%rip), %rdi
	leaq	l___unnamed_43(%rip), %rdx
	movl	$33, %esi
	callq	__ZN4core9panicking5panic17h383a6b80ea7021aaE
Ltmp1518:
LBB35_7:
Ltmp1487:
	.loc	1 0 35 is_stmt 0
	movq	%rax, %rbx
Ltmp1519:
	.loc	7 184 1 is_stmt 1
	movq	%r12, %rdi
	movq	%r13, %rsi
	callq	__ZN5alloc5alloc8box_free17hc24cc63cd7393a5bE
	movq	%rbx, %rdi
	callq	__Unwind_Resume
	ud2
Ltmp1520:
Lfunc_end35:
	.cfi_endproc
	.section	__TEXT,__gcc_except_tab
	.p2align	2
GCC_except_table35:
Lexception2:
	.byte	255
	.byte	255
	.byte	1
	.uleb128 Lcst_end2-Lcst_begin2
Lcst_begin2:
	.uleb128 Lfunc_begin35-Lfunc_begin35
	.uleb128 Ltmp1485-Lfunc_begin35
	.byte	0
	.byte	0
	.uleb128 Ltmp1485-Lfunc_begin35
	.uleb128 Ltmp1486-Ltmp1485
	.uleb128 Ltmp1487-Lfunc_begin35
	.byte	0
	.uleb128 Ltmp1486-Lfunc_begin35
	.uleb128 Lfunc_end35-Ltmp1486
	.byte	0
	.byte	0
Lcst_end2:
	.p2align	2

	.section	__TEXT,__text,regular,pure_instructions
	.globl	__ZN4rand4rngs7adapter9reseeding4fork16get_fork_counter17hce25d1661abcafb4E
	.p2align	4, 0x90
__ZN4rand4rngs7adapter9reseeding4fork16get_fork_counter17hce25d1661abcafb4E:
Lfunc_begin36:
	.loc	1 301 0
	.cfi_startproc
	pushq	%rbp
	.cfi_def_cfa_offset 16
	.cfi_offset %rbp, -16
	movq	%rsp, %rbp
	.cfi_def_cfa_register %rbp
Ltmp1521:
	.loc	15 2356 24 prologue_end
	movq	__ZN4rand4rngs7adapter9reseeding4fork26RESEEDING_RNG_FORK_COUNTER17h8ec4996c534257ffE(%rip), %rax
Ltmp1522:
	.loc	1 303 6
	popq	%rbp
	retq
Ltmp1523:
Lfunc_end36:
	.cfi_endproc

	.p2align	4, 0x90
__ZN4rand4rngs7adapter9reseeding4fork12fork_handler17h1994d23496c74710E:
Lfunc_begin37:
	.loc	1 305 0
	.cfi_startproc
	pushq	%rbp
	.cfi_def_cfa_offset 16
	.cfi_offset %rbp, -16
	movq	%rsp, %rbp
	.cfi_def_cfa_register %rbp
Ltmp1524:
	.loc	15 2389 24 prologue_end
	lock		incq	__ZN4rand4rngs7adapter9reseeding4fork26RESEEDING_RNG_FORK_COUNTER17h8ec4996c534257ffE(%rip)
Ltmp1525:
	.loc	1 309 6
	popq	%rbp
	retq
Ltmp1526:
Lfunc_end37:
	.cfi_endproc

	.globl	__ZN4rand4rngs7adapter9reseeding4fork21register_fork_handler17hbb69a58cc1330839E
	.p2align	4, 0x90
__ZN4rand4rngs7adapter9reseeding4fork21register_fork_handler17hbb69a58cc1330839E:
Lfunc_begin38:
	.loc	1 311 0
	.cfi_startproc
	pushq	%rbp
	.cfi_def_cfa_offset 16
	.cfi_offset %rbp, -16
	movq	%rsp, %rbp
	.cfi_def_cfa_register %rbp
	subq	$16, %rsp
Ltmp1527:
	.loc	15 2355 24 prologue_end
	movq	__ZN4rand4rngs7adapter9reseeding4fork21register_fork_handler8REGISTER17ha747af42642fc444E(%rip), %rax
Ltmp1528:
	.loc	3 374 9
	cmpq	$3, %rax
Ltmp1529:
	.loc	3 260 9
	jne	LBB38_1
Ltmp1530:
	.loc	1 316 6
	addq	$16, %rsp
	popq	%rbp
	retq
LBB38_1:
Ltmp1531:
	.loc	3 264 21
	movb	$1, -1(%rbp)
	leaq	-1(%rbp), %rax
Ltmp1532:
	.loc	3 265 37
	movq	%rax, -16(%rbp)
	.loc	3 265 9 is_stmt 0
	leaq	__ZN4rand4rngs7adapter9reseeding4fork21register_fork_handler8REGISTER17ha747af42642fc444E(%rip), %rdi
	leaq	l___unnamed_1(%rip), %rcx
	leaq	-16(%rbp), %rdx
	xorl	%esi, %esi
	callq	__ZN3std4sync4once4Once10call_inner17hfcd38045e50af9d3E
Ltmp1533:
	.loc	1 316 6 is_stmt 1
	addq	$16, %rsp
	popq	%rbp
	retq
Ltmp1534:
Lfunc_end38:
	.cfi_endproc

	.globl	__ZN4rand4rngs4mock7StepRng3new17h43923fe7a0564b93E
	.p2align	4, 0x90
__ZN4rand4rngs4mock7StepRng3new17h43923fe7a0564b93E:
Lfunc_begin39:
	.file	42 "/Users/yingyuhang/.cargo/git/checkouts/rand-cc8f5b7ec2d3b6d9/dca9cb5/src/rngs/mock.rs"
	.loc	42 40 0
	.cfi_startproc
	pushq	%rbp
	.cfi_def_cfa_offset 16
	.cfi_offset %rbp, -16
	movq	%rsp, %rbp
	.cfi_def_cfa_register %rbp
	movq	%rsi, %rdx
	movq	%rdi, %rax
Ltmp1535:
	.loc	42 45 6 prologue_end
	popq	%rbp
	retq
Ltmp1536:
Lfunc_end39:
	.cfi_endproc

	.globl	__ZN4rand4rngs6thread10thread_rng17he109cf6e6ea9e5d5E
	.p2align	4, 0x90
__ZN4rand4rngs6thread10thread_rng17he109cf6e6ea9e5d5E:
Lfunc_begin40:
	.loc	16 80 0
	.cfi_startproc
	pushq	%rbp
	.cfi_def_cfa_offset 16
	.cfi_offset %rbp, -16
	movq	%rsp, %rbp
	.cfi_def_cfa_register %rbp
	subq	$16, %rsp
Ltmp1537:
	.loc	4 268 13 prologue_end
	movq	__ZN4rand4rngs6thread14THREAD_RNG_KEY7__getit5__KEY17hcc6d051e5ae6bdebE@TLVP(%rip), %rdi
	callq	*(%rdi)
	cmpl	$1, (%rax)
Ltmp1538:
	.loc	10 409 17
	jne	LBB40_2
Ltmp1539:
	.loc	10 0 17 is_stmt 0
	addq	$8, %rax
LBB40_3:
Ltmp1540:
	.loc	16 84 2 is_stmt 1
	addq	$16, %rsp
	popq	%rbp
	retq
Ltmp1541:
LBB40_2:
	.loc	10 410 25
	callq	__ZN3std6thread5local4fast12Key$LT$T$GT$14try_initialize17h0696ded78977b7eaE
Ltmp1542:
	.loc	10 262 82
	testq	%rax, %rax
	jne	LBB40_3
Ltmp1543:
	.loc	13 963 23
	leaq	l___unnamed_44(%rip), %rdi
Ltmp1544:
	leaq	l___unnamed_4(%rip), %rcx
	leaq	l___unnamed_45(%rip), %r8
	leaq	-8(%rbp), %rdx
	movl	$70, %esi
	callq	__ZN4core6result13unwrap_failed17hc193898ef513e81fE
Ltmp1545:
Lfunc_end40:
	.cfi_endproc

	.globl	__ZN68_$LT$rand..rngs..thread..ThreadRng$u20$as$u20$rand_core..RngCore$GT$10fill_bytes17hb78786e987297363E
	.p2align	4, 0x90
__ZN68_$LT$rand..rngs..thread..ThreadRng$u20$as$u20$rand_core..RngCore$GT$10fill_bytes17hb78786e987297363E:
Lfunc_begin41:
	.loc	16 103 0
	.cfi_startproc
	pushq	%rbp
	.cfi_def_cfa_offset 16
	.cfi_offset %rbp, -16
	movq	%rsp, %rbp
	.cfi_def_cfa_register %rbp
Ltmp1546:
	.loc	16 104 18 prologue_end
	movq	(%rdi), %rdi
Ltmp1547:
	.loc	1 123 9
	popq	%rbp
	jmp	__ZN74_$LT$rand_core..block..BlockRng$LT$R$GT$$u20$as$u20$rand_core..RngCore$GT$10fill_bytes17hcde979197ca1c4e4E
Ltmp1548:
Lfunc_end41:
	.cfi_endproc

	.globl	__ZN68_$LT$rand..rngs..thread..ThreadRng$u20$as$u20$rand_core..RngCore$GT$14try_fill_bytes17h65b404f1f2c4abecE
	.p2align	4, 0x90
__ZN68_$LT$rand..rngs..thread..ThreadRng$u20$as$u20$rand_core..RngCore$GT$14try_fill_bytes17h65b404f1f2c4abecE:
Lfunc_begin42:
	.loc	16 107 0
	.cfi_startproc
	pushq	%rbp
	.cfi_def_cfa_offset 16
	.cfi_offset %rbp, -16
	movq	%rsp, %rbp
	.cfi_def_cfa_register %rbp
Ltmp1549:
	.loc	16 108 18 prologue_end
	movq	(%rdi), %rdi
Ltmp1550:
	.loc	32 228 9
	callq	__ZN74_$LT$rand_core..block..BlockRng$LT$R$GT$$u20$as$u20$rand_core..RngCore$GT$10fill_bytes17hcde979197ca1c4e4E
Ltmp1551:
	.loc	16 109 6
	xorl	%eax, %eax
	popq	%rbp
	retq
Ltmp1552:
Lfunc_end42:
	.cfi_endproc

	.globl	__ZN67_$LT$rand..seq..index..IndexVec$u20$as$u20$core..cmp..PartialEq$GT$2eq17hbd04b0f8e6698cffE
	.p2align	4, 0x90
__ZN67_$LT$rand..seq..index..IndexVec$u20$as$u20$core..cmp..PartialEq$GT$2eq17hbd04b0f8e6698cffE:
Lfunc_begin43:
	.file	43 "/Users/yingyuhang/.cargo/git/checkouts/rand-cc8f5b7ec2d3b6d9/dca9cb5/src/seq/index.rs"
	.loc	43 105 0
	.cfi_startproc
	pushq	%rbp
	.cfi_def_cfa_offset 16
	.cfi_offset %rbp, -16
	movq	%rsp, %rbp
	.cfi_def_cfa_register %rbp
Ltmp1553:
	.loc	43 108 15 prologue_end
	cmpl	$1, (%rdi)
	.loc	43 0 0 is_stmt 0
	movq	(%rsi), %rax
	.loc	43 108 15
	jne	LBB43_6
Ltmp1554:
	.loc	43 0 0
	testq	%rax, %rax
	.loc	43 109 31 is_stmt 1
	jne	LBB43_10
Ltmp1555:
	.loc	43 114 18
	movq	24(%rdi), %rax
	.loc	43 114 17 is_stmt 0
	cmpq	24(%rsi), %rax
	jne	LBB43_18
Ltmp1556:
	.loc	21 818 19 is_stmt 1
	movq	8(%rdi), %rcx
Ltmp1557:
	.loc	21 818 19 is_stmt 0
	movq	8(%rsi), %rdx
	xorl	%esi, %esi
Ltmp1558:
	.p2align	4, 0x90
LBB43_4:
	.file	44 "/rustc/6c8927b0cf80ceee19386026cf9d7fd4fd9d486f/src/libcore/iter/adapters/zip.rs"
	.loc	44 174 12 is_stmt 1
	cmpq	%rsi, %rax
	.loc	44 174 9 is_stmt 0
	je	LBB43_21
Ltmp1559:
	.file	45 "/rustc/6c8927b0cf80ceee19386026cf9d7fd4fd9d486f/src/libcore/iter/traits/iterator.rs"
	.loc	45 1870 21 is_stmt 1
	movl	(%rdx,%rsi,4), %edi
Ltmp1560:
	.loc	43 114 82
	cmpq	%rdi, (%rcx,%rsi,8)
Ltmp1561:
	.loc	44 176 13
	leaq	1(%rsi), %rsi
Ltmp1562:
	.loc	45 1870 32
	je	LBB43_4
	jmp	LBB43_18
Ltmp1563:
LBB43_6:
	.loc	43 0 0 is_stmt 0
	testq	%rax, %rax
	.loc	43 108 29 is_stmt 1
	jne	LBB43_14
Ltmp1564:
	.loc	21 1923 55
	movq	24(%rdi), %rdx
Ltmp1565:
	.loc	22 6265 12
	cmpq	24(%rsi), %rdx
	.loc	22 6265 9 is_stmt 0
	jne	LBB43_18
Ltmp1566:
	.loc	21 0 0
	movq	8(%rdi), %rdi
Ltmp1567:
	movq	8(%rsi), %rsi
Ltmp1568:
	.loc	28 331 9 is_stmt 1
	cmpq	%rsi, %rdi
Ltmp1569:
	.loc	22 6271 9
	je	LBB43_21
Ltmp1570:
	.loc	8 336 5
	shlq	$2, %rdx
Ltmp1571:
	.loc	8 0 5 is_stmt 0
	jmp	LBB43_13
Ltmp1572:
LBB43_10:
	.loc	21 1923 55 is_stmt 1
	movq	24(%rdi), %rdx
Ltmp1573:
	.loc	22 6265 12
	cmpq	24(%rsi), %rdx
	.loc	22 6265 9 is_stmt 0
	jne	LBB43_18
Ltmp1574:
	.loc	21 0 0
	movq	8(%rdi), %rdi
Ltmp1575:
	movq	8(%rsi), %rsi
Ltmp1576:
	.loc	28 331 9 is_stmt 1
	cmpq	%rsi, %rdi
Ltmp1577:
	.loc	22 6271 9
	je	LBB43_21
Ltmp1578:
	.loc	8 336 5
	shlq	$3, %rdx
Ltmp1579:
LBB43_13:
	.loc	43 0 0 is_stmt 0
	callq	_memcmp
	testl	%eax, %eax
	sete	%al
	.loc	43 117 6 is_stmt 1
	popq	%rbp
	retq
LBB43_14:
Ltmp1580:
	.loc	43 111 18
	movq	24(%rdi), %rax
	.loc	43 111 17 is_stmt 0
	cmpq	24(%rsi), %rax
	jne	LBB43_18
Ltmp1581:
	.loc	21 818 19 is_stmt 1
	movq	8(%rdi), %rcx
Ltmp1582:
	.loc	21 818 19 is_stmt 0
	movq	8(%rsi), %rdx
	xorl	%esi, %esi
Ltmp1583:
	.p2align	4, 0x90
LBB43_16:
	.loc	44 174 12 is_stmt 1
	cmpq	%rsi, %rax
	.loc	44 174 9 is_stmt 0
	je	LBB43_21
Ltmp1584:
	.loc	45 1870 21 is_stmt 1
	movl	(%rcx,%rsi,4), %edi
Ltmp1585:
	.loc	43 111 82
	cmpq	%rdi, (%rdx,%rsi,8)
Ltmp1586:
	.loc	44 176 13
	leaq	1(%rsi), %rsi
Ltmp1587:
	.loc	45 1870 32
	je	LBB43_16
Ltmp1588:
LBB43_18:
	.loc	45 0 32 is_stmt 0
	xorl	%eax, %eax
	.loc	43 117 6 is_stmt 1
	popq	%rbp
	retq
LBB43_21:
	.loc	43 0 6 is_stmt 0
	movb	$1, %al
	.loc	43 117 6
	popq	%rbp
	retq
Ltmp1589:
Lfunc_end43:
	.cfi_endproc

	.globl	__ZN78_$LT$rand..distributions..bernoulli..Bernoulli$u20$as$u20$core..fmt..Debug$GT$3fmt17h854f2dba50492defE
	.p2align	4, 0x90
__ZN78_$LT$rand..distributions..bernoulli..Bernoulli$u20$as$u20$core..fmt..Debug$GT$3fmt17h854f2dba50492defE:
Lfunc_begin44:
	.loc	39 36 0 is_stmt 1
	.cfi_startproc
	pushq	%rbp
	.cfi_def_cfa_offset 16
	.cfi_offset %rbp, -16
	movq	%rsp, %rbp
	.cfi_def_cfa_register %rbp
	pushq	%r14
	pushq	%rbx
	subq	$32, %rsp
	.cfi_offset %rbx, -32
	.cfi_offset %r14, -24
	movq	%rdi, %rbx
Ltmp1590:
	.loc	39 36 23 prologue_end
	leaq	l___unnamed_46(%rip), %rdx
	leaq	-40(%rbp), %r14
	movl	$9, %ecx
	movq	%r14, %rdi
	callq	__ZN4core3fmt9Formatter12debug_struct17ha1a64e91d2a98458E
Ltmp1591:
	.loc	39 40 5
	movq	%rbx, -24(%rbp)
	.loc	39 36 23
	leaq	l___unnamed_47(%rip), %rsi
	leaq	l___unnamed_8(%rip), %r8
	leaq	-24(%rbp), %rcx
	movl	$5, %edx
	movq	%r14, %rdi
	callq	__ZN4core3fmt8builders11DebugStruct5field17h6c54d35ac41bb1e6E
	movq	%r14, %rdi
	callq	__ZN4core3fmt8builders11DebugStruct6finish17h67ed49fd5e81bb24E
Ltmp1592:
	.loc	39 36 28 is_stmt 0
	addq	$32, %rsp
	popq	%rbx
Ltmp1593:
	popq	%r14
	popq	%rbp
	retq
Ltmp1594:
Lfunc_end44:
	.cfi_endproc

	.globl	__ZN83_$LT$rand..distributions..bernoulli..BernoulliError$u20$as$u20$core..fmt..Debug$GT$3fmt17ha511fa24ab1a68a1E
	.p2align	4, 0x90
__ZN83_$LT$rand..distributions..bernoulli..BernoulliError$u20$as$u20$core..fmt..Debug$GT$3fmt17ha511fa24ab1a68a1E:
Lfunc_begin45:
	.loc	39 69 0 is_stmt 1
	.cfi_startproc
	pushq	%rbp
	.cfi_def_cfa_offset 16
	.cfi_offset %rbp, -16
	movq	%rsp, %rbp
	.cfi_def_cfa_register %rbp
Ltmp1595:
	pushq	%rbx
	subq	$24, %rsp
	.cfi_offset %rbx, -24
	.loc	39 69 23 prologue_end
	leaq	l___unnamed_48(%rip), %rdx
	leaq	-32(%rbp), %rbx
	movl	$18, %ecx
	movq	%rbx, %rdi
Ltmp1596:
	callq	__ZN4core3fmt9Formatter11debug_tuple17h6c448643801d07e8E
Ltmp1597:
	.loc	39 69 23 is_stmt 0
	movq	%rbx, %rdi
	callq	__ZN4core3fmt8builders10DebugTuple6finish17h9f206806f7096c33E
Ltmp1598:
	.loc	39 69 28
	addq	$24, %rsp
	popq	%rbx
	popq	%rbp
	retq
Ltmp1599:
Lfunc_end45:
	.cfi_endproc

	.globl	__ZN82_$LT$rand..distributions..uniform..UniformDuration$u20$as$u20$core..fmt..Debug$GT$3fmt17h3bf5ef5e895e6cd6E
	.p2align	4, 0x90
__ZN82_$LT$rand..distributions..uniform..UniformDuration$u20$as$u20$core..fmt..Debug$GT$3fmt17h3bf5ef5e895e6cd6E:
Lfunc_begin46:
	.loc	26 923 0 is_stmt 1
	.cfi_startproc
	pushq	%rbp
	.cfi_def_cfa_offset 16
	.cfi_offset %rbp, -16
	movq	%rsp, %rbp
	.cfi_def_cfa_register %rbp
	pushq	%r14
	pushq	%rbx
	subq	$32, %rsp
	.cfi_offset %rbx, -32
	.cfi_offset %r14, -24
	movq	%rdi, %rbx
Ltmp1600:
	.loc	26 923 23 prologue_end
	leaq	l___unnamed_49(%rip), %rdx
	leaq	-40(%rbp), %r14
	movl	$15, %ecx
	movq	%r14, %rdi
	callq	__ZN4core3fmt9Formatter12debug_struct17ha1a64e91d2a98458E
Ltmp1601:
	.loc	26 926 5
	movq	%rbx, -24(%rbp)
Ltmp1602:
	.loc	26 927 5
	addq	$40, %rbx
Ltmp1603:
	.loc	26 923 23
	leaq	L___unnamed_50(%rip), %rsi
	leaq	l___unnamed_11(%rip), %r8
	leaq	-24(%rbp), %rcx
	movl	$4, %edx
	movq	%r14, %rdi
	callq	__ZN4core3fmt8builders11DebugStruct5field17h6c54d35ac41bb1e6E
	.loc	26 927 5
	movq	%rbx, -24(%rbp)
	.loc	26 923 23
	leaq	l___unnamed_51(%rip), %rsi
	leaq	l___unnamed_2(%rip), %r8
	leaq	-24(%rbp), %rcx
	movl	$6, %edx
	movq	%r14, %rdi
	callq	__ZN4core3fmt8builders11DebugStruct5field17h6c54d35ac41bb1e6E
	movq	%r14, %rdi
	callq	__ZN4core3fmt8builders11DebugStruct6finish17h67ed49fd5e81bb24E
Ltmp1604:
	.loc	26 923 28 is_stmt 0
	addq	$32, %rsp
	popq	%rbx
	popq	%r14
	popq	%rbp
	retq
Ltmp1605:
Lfunc_end46:
	.cfi_endproc

	.globl	__ZN86_$LT$rand..distributions..uniform..UniformDurationMode$u20$as$u20$core..fmt..Debug$GT$3fmt17hb4e21feb32a5874dE
	.p2align	4, 0x90
__ZN86_$LT$rand..distributions..uniform..UniformDurationMode$u20$as$u20$core..fmt..Debug$GT$3fmt17hb4e21feb32a5874dE:
Lfunc_begin47:
	.loc	26 930 0 is_stmt 1
	.cfi_startproc
	pushq	%rbp
	.cfi_def_cfa_offset 16
	.cfi_offset %rbp, -16
	movq	%rsp, %rbp
	.cfi_def_cfa_register %rbp
	pushq	%r15
	pushq	%r14
	pushq	%r12
	pushq	%rbx
	subq	$32, %rsp
	.cfi_offset %rbx, -48
	.cfi_offset %r12, -40
	.cfi_offset %r14, -32
	.cfi_offset %r15, -24
	movq	%rdi, %rbx
Ltmp1606:
	.loc	26 930 10 prologue_end
	movl	(%rdi), %eax
	testq	%rax, %rax
	je	LBB47_3
Ltmp1607:
	cmpl	$1, %eax
	je	LBB47_4
Ltmp1608:
	.loc	26 941 9
	leaq	8(%rbx), %r15
	leaq	4(%rbx), %r12
	.loc	26 943 9
	addq	$16, %rbx
Ltmp1609:
	.loc	26 930 10
	leaq	l___unnamed_52(%rip), %rdx
	leaq	-56(%rbp), %r14
	movl	$5, %ecx
	movq	%r14, %rdi
	callq	__ZN4core3fmt9Formatter12debug_struct17ha1a64e91d2a98458E
Ltmp1610:
	.loc	26 941 9
	movq	%r15, -40(%rbp)
	.loc	26 930 10
	leaq	L___unnamed_53(%rip), %rsi
	leaq	l___unnamed_8(%rip), %r8
	leaq	-40(%rbp), %rcx
	movl	$8, %edx
	movq	%r14, %rdi
	callq	__ZN4core3fmt8builders11DebugStruct5field17h6c54d35ac41bb1e6E
	.loc	26 942 9
	movq	%r12, -40(%rbp)
	.loc	26 930 10
	leaq	l___unnamed_54(%rip), %rsi
	leaq	l___unnamed_2(%rip), %r8
	leaq	-40(%rbp), %rcx
	movl	$9, %edx
	movq	%r14, %rdi
	callq	__ZN4core3fmt8builders11DebugStruct5field17h6c54d35ac41bb1e6E
	.loc	26 943 9
	movq	%rbx, -40(%rbp)
	.loc	26 930 10
	leaq	L___unnamed_55(%rip), %rsi
	leaq	l___unnamed_12(%rip), %r8
	leaq	-40(%rbp), %rcx
	movl	$4, %edx
	jmp	LBB47_6
Ltmp1611:
LBB47_3:
	.loc	26 934 9
	leaq	4(%rbx), %r15
	addq	$16, %rbx
Ltmp1612:
	.loc	26 930 10
	leaq	l___unnamed_56(%rip), %rdx
	leaq	-56(%rbp), %r14
	movl	$5, %ecx
	movq	%r14, %rdi
	callq	__ZN4core3fmt9Formatter12debug_struct17ha1a64e91d2a98458E
Ltmp1613:
	.loc	26 934 9
	movq	%rbx, -40(%rbp)
	.loc	26 930 10
	leaq	L___unnamed_55(%rip), %rsi
	leaq	l___unnamed_8(%rip), %r8
	leaq	-40(%rbp), %rcx
	movl	$4, %edx
	movq	%r14, %rdi
	callq	__ZN4core3fmt8builders11DebugStruct5field17h6c54d35ac41bb1e6E
	.loc	26 935 9
	movq	%r15, -40(%rbp)
	.loc	26 930 10
	leaq	l___unnamed_57(%rip), %rsi
	leaq	l___unnamed_13(%rip), %r8
	jmp	LBB47_5
Ltmp1614:
LBB47_4:
	.loc	26 938 9
	addq	$8, %rbx
Ltmp1615:
	.loc	26 930 10
	leaq	l___unnamed_58(%rip), %rdx
	leaq	-56(%rbp), %r14
	movl	$6, %ecx
	movq	%r14, %rdi
	callq	__ZN4core3fmt9Formatter12debug_struct17ha1a64e91d2a98458E
Ltmp1616:
	.loc	26 938 9
	movq	%rbx, -40(%rbp)
	.loc	26 930 10
	leaq	l___unnamed_57(%rip), %rsi
	leaq	l___unnamed_12(%rip), %r8
Ltmp1617:
LBB47_5:
	.loc	26 0 10 is_stmt 0
	leaq	-40(%rbp), %rcx
	movl	$5, %edx
LBB47_6:
	movq	%r14, %rdi
	callq	__ZN4core3fmt8builders11DebugStruct5field17h6c54d35ac41bb1e6E
	movq	%r14, %rdi
	callq	__ZN4core3fmt8builders11DebugStruct6finish17h67ed49fd5e81bb24E
	.loc	26 930 15
	addq	$32, %rsp
	popq	%rbx
	popq	%r12
	popq	%r14
	popq	%r15
	popq	%rbp
	retq
Ltmp1618:
Lfunc_end47:
	.cfi_endproc

	.globl	__ZN87_$LT$rand..distributions..weighted_index..WeightedError$u20$as$u20$core..fmt..Debug$GT$3fmt17h43bd6c36e5ead650E
	.p2align	4, 0x90
__ZN87_$LT$rand..distributions..weighted_index..WeightedError$u20$as$u20$core..fmt..Debug$GT$3fmt17h43bd6c36e5ead650E:
Lfunc_begin48:
	.loc	40 423 0 is_stmt 1
	.cfi_startproc
	pushq	%rbp
	.cfi_def_cfa_offset 16
	.cfi_offset %rbp, -16
	movq	%rsp, %rbp
	.cfi_def_cfa_register %rbp
Ltmp1619:
	pushq	%rbx
	subq	$24, %rsp
	.cfi_offset %rbx, -24
	.loc	40 423 10 prologue_end
	movzbl	(%rdi), %eax
	leaq	LJTI48_0(%rip), %rcx
	movslq	(%rcx,%rax,4), %rax
	addq	%rcx, %rax
	jmpq	*%rax
Ltmp1620:
LBB48_2:
	leaq	l___unnamed_59(%rip), %rdx
	leaq	-32(%rbp), %rbx
	movl	$6, %ecx
	jmp	LBB48_5
Ltmp1621:
LBB48_4:
	leaq	l___unnamed_60(%rip), %rdx
	leaq	-32(%rbp), %rbx
	movl	$14, %ecx
	jmp	LBB48_5
Ltmp1622:
LBB48_1:
	leaq	l___unnamed_61(%rip), %rdx
	leaq	-32(%rbp), %rbx
	movl	$7, %ecx
	jmp	LBB48_5
Ltmp1623:
LBB48_3:
	leaq	l___unnamed_62(%rip), %rdx
	leaq	-32(%rbp), %rbx
	movl	$13, %ecx
Ltmp1624:
LBB48_5:
	movq	%rbx, %rdi
Ltmp1625:
	callq	__ZN4core3fmt9Formatter11debug_tuple17h6c448643801d07e8E
Ltmp1626:
	.loc	40 0 0 is_stmt 0
	movq	%rbx, %rdi
	callq	__ZN4core3fmt8builders10DebugTuple6finish17h9f206806f7096c33E
	.loc	40 423 15
	addq	$24, %rsp
	popq	%rbx
	popq	%rbp
	retq
Ltmp1627:
Lfunc_end48:
	.cfi_endproc
	.p2align	2, 0x90
	.data_region jt32
.set L48_0_set_2, LBB48_2-LJTI48_0
.set L48_0_set_3, LBB48_3-LJTI48_0
.set L48_0_set_4, LBB48_4-LJTI48_0
.set L48_0_set_1, LBB48_1-LJTI48_0
LJTI48_0:
	.long	L48_0_set_2
	.long	L48_0_set_3
	.long	L48_0_set_4
	.long	L48_0_set_1
	.end_data_region

	.globl	__ZN77_$LT$rand..distributions..float..OpenClosed01$u20$as$u20$core..fmt..Debug$GT$3fmt17h6042ec25e1158051E
	.p2align	4, 0x90
__ZN77_$LT$rand..distributions..float..OpenClosed01$u20$as$u20$core..fmt..Debug$GT$3fmt17h6042ec25e1158051E:
Lfunc_begin49:
	.file	46 "/Users/yingyuhang/.cargo/git/checkouts/rand-cc8f5b7ec2d3b6d9/dca9cb5/src/distributions/float.rs"
	.loc	46 44 0 is_stmt 1
	.cfi_startproc
	pushq	%rbp
	.cfi_def_cfa_offset 16
	.cfi_offset %rbp, -16
	movq	%rsp, %rbp
	.cfi_def_cfa_register %rbp
Ltmp1628:
	pushq	%rbx
	subq	$24, %rsp
	.cfi_offset %rbx, -24
	.loc	46 44 23 prologue_end
	leaq	l___unnamed_63(%rip), %rdx
	leaq	-32(%rbp), %rbx
	movl	$12, %ecx
	movq	%rbx, %rdi
Ltmp1629:
	callq	__ZN4core3fmt9Formatter11debug_tuple17h6c448643801d07e8E
Ltmp1630:
	.loc	46 44 23 is_stmt 0
	movq	%rbx, %rdi
	callq	__ZN4core3fmt8builders10DebugTuple6finish17h9f206806f7096c33E
Ltmp1631:
	.loc	46 44 28
	addq	$24, %rsp
	popq	%rbx
	popq	%rbp
	retq
Ltmp1632:
Lfunc_end49:
	.cfi_endproc

	.globl	__ZN71_$LT$rand..distributions..float..Open01$u20$as$u20$core..fmt..Debug$GT$3fmt17h983f3e58f155b2bbE
	.p2align	4, 0x90
__ZN71_$LT$rand..distributions..float..Open01$u20$as$u20$core..fmt..Debug$GT$3fmt17h983f3e58f155b2bbE:
Lfunc_begin50:
	.loc	46 71 0 is_stmt 1
	.cfi_startproc
	pushq	%rbp
	.cfi_def_cfa_offset 16
	.cfi_offset %rbp, -16
	movq	%rsp, %rbp
	.cfi_def_cfa_register %rbp
Ltmp1633:
	pushq	%rbx
	subq	$24, %rsp
	.cfi_offset %rbx, -24
	.loc	46 71 23 prologue_end
	leaq	l___unnamed_64(%rip), %rdx
	leaq	-32(%rbp), %rbx
	movl	$6, %ecx
	movq	%rbx, %rdi
Ltmp1634:
	callq	__ZN4core3fmt9Formatter11debug_tuple17h6c448643801d07e8E
Ltmp1635:
	.loc	46 71 23 is_stmt 0
	movq	%rbx, %rdi
	callq	__ZN4core3fmt8builders10DebugTuple6finish17h9f206806f7096c33E
Ltmp1636:
	.loc	46 71 28
	addq	$24, %rsp
	popq	%rbx
	popq	%rbp
	retq
Ltmp1637:
Lfunc_end50:
	.cfi_endproc

	.globl	__ZN77_$LT$rand..distributions..other..Alphanumeric$u20$as$u20$core..fmt..Debug$GT$3fmt17hc0ba0f5e3ec41570E
	.p2align	4, 0x90
__ZN77_$LT$rand..distributions..other..Alphanumeric$u20$as$u20$core..fmt..Debug$GT$3fmt17hc0ba0f5e3ec41570E:
Lfunc_begin51:
	.file	47 "/Users/yingyuhang/.cargo/git/checkouts/rand-cc8f5b7ec2d3b6d9/dca9cb5/src/distributions/other.rs"
	.loc	47 56 0 is_stmt 1
	.cfi_startproc
	pushq	%rbp
	.cfi_def_cfa_offset 16
	.cfi_offset %rbp, -16
	movq	%rsp, %rbp
	.cfi_def_cfa_register %rbp
Ltmp1638:
	pushq	%rbx
	subq	$24, %rsp
	.cfi_offset %rbx, -24
	.loc	47 56 10 prologue_end
	leaq	l___unnamed_65(%rip), %rdx
	leaq	-32(%rbp), %rbx
	movl	$12, %ecx
	movq	%rbx, %rdi
Ltmp1639:
	callq	__ZN4core3fmt9Formatter11debug_tuple17h6c448643801d07e8E
Ltmp1640:
	.loc	47 56 10 is_stmt 0
	movq	%rbx, %rdi
	callq	__ZN4core3fmt8builders10DebugTuple6finish17h9f206806f7096c33E
Ltmp1641:
	.loc	47 56 15
	addq	$24, %rsp
	popq	%rbx
	popq	%rbp
	retq
Ltmp1642:
Lfunc_end51:
	.cfi_endproc

	.globl	__ZN66_$LT$rand..distributions..Standard$u20$as$u20$core..fmt..Debug$GT$3fmt17h4875ccc5be351240E
	.p2align	4, 0x90
__ZN66_$LT$rand..distributions..Standard$u20$as$u20$core..fmt..Debug$GT$3fmt17h4875ccc5be351240E:
Lfunc_begin52:
	.file	48 "/Users/yingyuhang/.cargo/git/checkouts/rand-cc8f5b7ec2d3b6d9/dca9cb5/src/distributions/mod.rs"
	.loc	48 324 0 is_stmt 1
	.cfi_startproc
	pushq	%rbp
	.cfi_def_cfa_offset 16
	.cfi_offset %rbp, -16
	movq	%rsp, %rbp
	.cfi_def_cfa_register %rbp
Ltmp1643:
	pushq	%rbx
	subq	$24, %rsp
	.cfi_offset %rbx, -24
	.loc	48 324 23 prologue_end
	leaq	L___unnamed_66(%rip), %rdx
	leaq	-32(%rbp), %rbx
	movl	$8, %ecx
	movq	%rbx, %rdi
Ltmp1644:
	callq	__ZN4core3fmt9Formatter11debug_tuple17h6c448643801d07e8E
Ltmp1645:
	.loc	48 324 23 is_stmt 0
	movq	%rbx, %rdi
	callq	__ZN4core3fmt8builders10DebugTuple6finish17h9f206806f7096c33E
Ltmp1646:
	.loc	48 324 28
	addq	$24, %rsp
	popq	%rbx
	popq	%rbp
	retq
Ltmp1647:
Lfunc_end52:
	.cfi_endproc

	.globl	__ZN73_$LT$rand..rngs..adapter..read..ReadError$u20$as$u20$core..fmt..Debug$GT$3fmt17h0357ef142341a009E
	.p2align	4, 0x90
__ZN73_$LT$rand..rngs..adapter..read..ReadError$u20$as$u20$core..fmt..Debug$GT$3fmt17h0357ef142341a009E:
Lfunc_begin53:
	.loc	41 88 0 is_stmt 1
	.cfi_startproc
	pushq	%rbp
	.cfi_def_cfa_offset 16
	.cfi_offset %rbp, -16
	movq	%rsp, %rbp
	.cfi_def_cfa_register %rbp
	pushq	%r14
	pushq	%rbx
	subq	$32, %rsp
	.cfi_offset %rbx, -32
	.cfi_offset %r14, -24
	movq	%rdi, %rbx
Ltmp1648:
	.loc	41 88 10 prologue_end
	leaq	l___unnamed_67(%rip), %rdx
	leaq	-48(%rbp), %r14
	movl	$9, %ecx
	movq	%r14, %rdi
	callq	__ZN4core3fmt9Formatter11debug_tuple17h6c448643801d07e8E
Ltmp1649:
	.loc	41 89 22
	movq	%rbx, -24(%rbp)
	.loc	41 88 10
	leaq	l___unnamed_14(%rip), %rdx
	leaq	-24(%rbp), %rsi
	movq	%r14, %rdi
	callq	__ZN4core3fmt8builders10DebugTuple5field17hc7b676d0e36b51d9E
	movq	%r14, %rdi
	callq	__ZN4core3fmt8builders10DebugTuple6finish17h9f206806f7096c33E
Ltmp1650:
	.loc	41 88 15 is_stmt 0
	addq	$32, %rsp
	popq	%rbx
Ltmp1651:
	popq	%r14
	popq	%rbp
	retq
Ltmp1652:
Lfunc_end53:
	.cfi_endproc

	.globl	__ZN62_$LT$rand..rngs..mock..StepRng$u20$as$u20$core..fmt..Debug$GT$3fmt17h44398d8b10e7a1fbE
	.p2align	4, 0x90
__ZN62_$LT$rand..rngs..mock..StepRng$u20$as$u20$core..fmt..Debug$GT$3fmt17h44398d8b10e7a1fbE:
Lfunc_begin54:
	.loc	42 30 0 is_stmt 1
	.cfi_startproc
	pushq	%rbp
	.cfi_def_cfa_offset 16
	.cfi_offset %rbp, -16
	movq	%rsp, %rbp
	.cfi_def_cfa_register %rbp
	pushq	%r15
	pushq	%r14
	pushq	%rbx
	subq	$24, %rsp
	.cfi_offset %rbx, -40
	.cfi_offset %r14, -32
	.cfi_offset %r15, -24
	movq	%rdi, %rbx
Ltmp1653:
	.loc	42 30 10 prologue_end
	leaq	l___unnamed_68(%rip), %rdx
	leaq	-48(%rbp), %r14
	movl	$7, %ecx
	movq	%r14, %rdi
	callq	__ZN4core3fmt9Formatter12debug_struct17ha1a64e91d2a98458E
Ltmp1654:
	.loc	42 33 5
	movq	%rbx, -32(%rbp)
Ltmp1655:
	.loc	42 34 5
	addq	$8, %rbx
Ltmp1656:
	.loc	42 30 10
	leaq	l___unnamed_69(%rip), %rsi
	leaq	l___unnamed_8(%rip), %r15
	leaq	-32(%rbp), %rcx
	movl	$1, %edx
	movq	%r14, %rdi
	movq	%r15, %r8
	callq	__ZN4core3fmt8builders11DebugStruct5field17h6c54d35ac41bb1e6E
	.loc	42 34 5
	movq	%rbx, -32(%rbp)
	.loc	42 30 10
	leaq	l___unnamed_70(%rip), %rsi
	leaq	-32(%rbp), %rcx
	movl	$1, %edx
	movq	%r14, %rdi
	movq	%r15, %r8
	callq	__ZN4core3fmt8builders11DebugStruct5field17h6c54d35ac41bb1e6E
	movq	%r14, %rdi
	callq	__ZN4core3fmt8builders11DebugStruct6finish17h67ed49fd5e81bb24E
Ltmp1657:
	.loc	42 30 15 is_stmt 0
	addq	$24, %rsp
	popq	%rbx
	popq	%r14
	popq	%r15
	popq	%rbp
	retq
Ltmp1658:
Lfunc_end54:
	.cfi_endproc

	.globl	__ZN60_$LT$rand..rngs..std..StdRng$u20$as$u20$core..fmt..Debug$GT$3fmt17hb4223a31876af5deE
	.p2align	4, 0x90
__ZN60_$LT$rand..rngs..std..StdRng$u20$as$u20$core..fmt..Debug$GT$3fmt17hb4223a31876af5deE:
Lfunc_begin55:
	.file	49 "/Users/yingyuhang/.cargo/git/checkouts/rand-cc8f5b7ec2d3b6d9/dca9cb5/src/rngs/std.rs"
	.loc	49 35 0 is_stmt 1
	.cfi_startproc
	pushq	%rbp
	.cfi_def_cfa_offset 16
	.cfi_offset %rbp, -16
	movq	%rsp, %rbp
	.cfi_def_cfa_register %rbp
	pushq	%r14
	pushq	%rbx
	subq	$32, %rsp
	.cfi_offset %rbx, -32
	.cfi_offset %r14, -24
	movq	%rdi, %rbx
Ltmp1659:
	.loc	49 35 17 prologue_end
	leaq	l___unnamed_71(%rip), %rdx
	leaq	-48(%rbp), %r14
	movl	$6, %ecx
	movq	%r14, %rdi
	callq	__ZN4core3fmt9Formatter11debug_tuple17h6c448643801d07e8E
Ltmp1660:
	.loc	49 36 19
	movq	%rbx, -24(%rbp)
	.loc	49 35 17
	leaq	l___unnamed_15(%rip), %rdx
	leaq	-24(%rbp), %rsi
	movq	%r14, %rdi
	callq	__ZN4core3fmt8builders10DebugTuple5field17hc7b676d0e36b51d9E
	movq	%r14, %rdi
	callq	__ZN4core3fmt8builders10DebugTuple6finish17h9f206806f7096c33E
Ltmp1661:
	.loc	49 35 22 is_stmt 0
	addq	$32, %rsp
	popq	%rbx
Ltmp1662:
	popq	%r14
	popq	%rbp
	retq
Ltmp1663:
Lfunc_end55:
	.cfi_endproc

	.globl	__ZN66_$LT$rand..rngs..thread..ThreadRng$u20$as$u20$core..fmt..Debug$GT$3fmt17h66d251bc6169385cE
	.p2align	4, 0x90
__ZN66_$LT$rand..rngs..thread..ThreadRng$u20$as$u20$core..fmt..Debug$GT$3fmt17h66d251bc6169385cE:
Lfunc_begin56:
	.loc	16 56 0 is_stmt 1
	.cfi_startproc
	pushq	%rbp
	.cfi_def_cfa_offset 16
	.cfi_offset %rbp, -16
	movq	%rsp, %rbp
	.cfi_def_cfa_register %rbp
	pushq	%r14
	pushq	%rbx
	subq	$32, %rsp
	.cfi_offset %rbx, -32
	.cfi_offset %r14, -24
	movq	%rdi, %rbx
Ltmp1664:
	.loc	16 56 23 prologue_end
	leaq	l___unnamed_72(%rip), %rdx
	leaq	-40(%rbp), %r14
	movl	$9, %ecx
	movq	%r14, %rdi
	callq	__ZN4core3fmt9Formatter12debug_struct17ha1a64e91d2a98458E
Ltmp1665:
	.loc	16 59 5
	movq	%rbx, -24(%rbp)
	.loc	16 56 23
	leaq	l___unnamed_73(%rip), %rsi
	leaq	l___unnamed_16(%rip), %r8
	leaq	-24(%rbp), %rcx
	movl	$3, %edx
	movq	%r14, %rdi
	callq	__ZN4core3fmt8builders11DebugStruct5field17h6c54d35ac41bb1e6E
	movq	%r14, %rdi
	callq	__ZN4core3fmt8builders11DebugStruct6finish17h67ed49fd5e81bb24E
Ltmp1666:
	.loc	16 56 28 is_stmt 0
	addq	$32, %rsp
	popq	%rbx
Ltmp1667:
	popq	%r14
	popq	%rbp
	retq
Ltmp1668:
Lfunc_end56:
	.cfi_endproc

	.p2align	4, 0x90
__ZN4rand4rngs6thread14THREAD_RNG_KEY6__init28_$u7b$$u7b$closure$u7d$$u7d$17h6fc87e8e5d7769fdE:
Lfunc_begin57:
	.loc	16 64 0 is_stmt 1
	.cfi_startproc
	.cfi_personality 155, _rust_eh_personality
	.cfi_lsda 16, Lexception3
	pushq	%rbp
	.cfi_def_cfa_offset 16
	.cfi_offset %rbp, -16
	movq	%rsp, %rbp
	.cfi_def_cfa_register %rbp
	pushq	%rbx
	subq	$88, %rsp
	.cfi_offset %rbx, -24
	movq	%rdi, -24(%rbp)
	movq	%rsi, -16(%rbp)
	leaq	-24(%rbp), %rax
Ltmp1672:
	.loc	16 65 17 prologue_end
	movq	%rax, -40(%rbp)
	movq	__ZN62_$LT$rand_core..error..Error$u20$as$u20$core..fmt..Display$GT$3fmt17h720e39228d432130E@GOTPCREL(%rip), %rax
	movq	%rax, -32(%rbp)
Ltmp1673:
	.loc	20 328 9
	leaq	l___unnamed_74(%rip), %rax
Ltmp1674:
	movq	%rax, -88(%rbp)
	movq	$1, -80(%rbp)
	movq	$0, -72(%rbp)
	leaq	-40(%rbp), %rax
Ltmp1675:
	movq	%rax, -56(%rbp)
	movq	$1, -48(%rbp)
Ltmp1676:
Ltmp1669:
	.loc	16 65 17
	leaq	l___unnamed_75(%rip), %rsi
	leaq	-88(%rbp), %rdi
	callq	__ZN3std9panicking15begin_panic_fmt17h8712912d987f10a1E
Ltmp1670:
Ltmp1677:
	.loc	16 0 17 is_stmt 0
	ud2
Ltmp1678:
LBB57_1:
Ltmp1671:
	movq	%rax, %rbx
	leaq	-24(%rbp), %rdi
	.loc	16 65 17
	callq	__ZN4core3ptr13drop_in_place17h1d4dd758508f4e77E
	movq	%rbx, %rdi
	callq	__Unwind_Resume
	ud2
Ltmp1679:
Lfunc_end57:
	.cfi_endproc
	.section	__TEXT,__gcc_except_tab
	.p2align	2
GCC_except_table57:
Lexception3:
	.byte	255
	.byte	255
	.byte	1
	.uleb128 Lcst_end3-Lcst_begin3
Lcst_begin3:
	.uleb128 Ltmp1669-Lfunc_begin57
	.uleb128 Ltmp1670-Ltmp1669
	.uleb128 Ltmp1671-Lfunc_begin57
	.byte	0
	.uleb128 Ltmp1670-Lfunc_begin57
	.uleb128 Lfunc_end57-Ltmp1670
	.byte	0
	.byte	0
Lcst_end3:
	.p2align	2

	.section	__TEXT,__text,regular,pure_instructions
	.globl	__ZN63_$LT$rand..seq..index..IndexVec$u20$as$u20$core..fmt..Debug$GT$3fmt17h6de9d9a7379e4305E
	.p2align	4, 0x90
__ZN63_$LT$rand..seq..index..IndexVec$u20$as$u20$core..fmt..Debug$GT$3fmt17h6de9d9a7379e4305E:
Lfunc_begin58:
	.loc	43 31 0 is_stmt 1
	.cfi_startproc
	pushq	%rbp
	.cfi_def_cfa_offset 16
	.cfi_offset %rbp, -16
	movq	%rsp, %rbp
	.cfi_def_cfa_register %rbp
Ltmp1680:
	pushq	%r14
	pushq	%rbx
	subq	$32, %rsp
	.cfi_offset %rbx, -32
	.cfi_offset %r14, -24
	.loc	43 31 17 prologue_end
	cmpl	$1, (%rdi)
	.loc	43 0 0 is_stmt 0
	leaq	8(%rdi), %rbx
	.loc	43 31 17
	jne	LBB58_2
Ltmp1681:
	.loc	43 31 17
	leaq	l___unnamed_76(%rip), %rdx
	leaq	-48(%rbp), %r14
	movl	$5, %ecx
	movq	%r14, %rdi
Ltmp1682:
	callq	__ZN4core3fmt9Formatter11debug_tuple17h6c448643801d07e8E
Ltmp1683:
	.loc	43 37 11 is_stmt 1
	movq	%rbx, -24(%rbp)
	.loc	43 31 17
	leaq	l___unnamed_17(%rip), %rdx
	jmp	LBB58_3
Ltmp1684:
LBB58_2:
	.loc	43 31 17 is_stmt 0
	leaq	l___unnamed_77(%rip), %rdx
	leaq	-48(%rbp), %r14
	movl	$3, %ecx
	movq	%r14, %rdi
Ltmp1685:
	callq	__ZN4core3fmt9Formatter11debug_tuple17h6c448643801d07e8E
Ltmp1686:
	.loc	43 35 9 is_stmt 1
	movq	%rbx, -24(%rbp)
	.loc	43 31 17
	leaq	l___unnamed_18(%rip), %rdx
Ltmp1687:
LBB58_3:
	.loc	43 0 17 is_stmt 0
	leaq	-24(%rbp), %rsi
	movq	%r14, %rdi
	callq	__ZN4core3fmt8builders10DebugTuple5field17hc7b676d0e36b51d9E
	movq	%r14, %rdi
	callq	__ZN4core3fmt8builders10DebugTuple6finish17h9f206806f7096c33E
	.loc	43 31 22
	addq	$32, %rsp
	popq	%rbx
	popq	%r14
	popq	%rbp
	retq
Ltmp1688:
Lfunc_end58:
	.cfi_endproc

	.globl	__ZN67_$LT$rand..seq..index..IndexVecIter$u20$as$u20$core..fmt..Debug$GT$3fmt17h7e56fab1cef5d420E
	.p2align	4, 0x90
__ZN67_$LT$rand..seq..index..IndexVecIter$u20$as$u20$core..fmt..Debug$GT$3fmt17h7e56fab1cef5d420E:
Lfunc_begin59:
	.loc	43 135 0 is_stmt 1
	.cfi_startproc
	pushq	%rbp
	.cfi_def_cfa_offset 16
	.cfi_offset %rbp, -16
	movq	%rsp, %rbp
	.cfi_def_cfa_register %rbp
Ltmp1689:
	pushq	%r14
	pushq	%rbx
	subq	$32, %rsp
	.cfi_offset %rbx, -32
	.cfi_offset %r14, -24
	.loc	43 135 10 prologue_end
	cmpl	$1, (%rdi)
	.loc	43 0 0 is_stmt 0
	leaq	8(%rdi), %rbx
	.loc	43 135 10
	jne	LBB59_2
Ltmp1690:
	.loc	43 135 10
	leaq	l___unnamed_76(%rip), %rdx
	leaq	-48(%rbp), %r14
	movl	$5, %ecx
	movq	%r14, %rdi
Ltmp1691:
	callq	__ZN4core3fmt9Formatter11debug_tuple17h6c448643801d07e8E
Ltmp1692:
	.loc	43 140 11 is_stmt 1
	movq	%rbx, -24(%rbp)
	.loc	43 135 10
	leaq	l___unnamed_19(%rip), %rdx
	jmp	LBB59_3
Ltmp1693:
LBB59_2:
	.loc	43 135 10 is_stmt 0
	leaq	l___unnamed_77(%rip), %rdx
	leaq	-48(%rbp), %r14
	movl	$3, %ecx
	movq	%r14, %rdi
Ltmp1694:
	callq	__ZN4core3fmt9Formatter11debug_tuple17h6c448643801d07e8E
Ltmp1695:
	.loc	43 138 9 is_stmt 1
	movq	%rbx, -24(%rbp)
	.loc	43 135 10
	leaq	l___unnamed_20(%rip), %rdx
Ltmp1696:
LBB59_3:
	.loc	43 0 10 is_stmt 0
	leaq	-24(%rbp), %rsi
	movq	%r14, %rdi
	callq	__ZN4core3fmt8builders10DebugTuple5field17hc7b676d0e36b51d9E
	movq	%r14, %rdi
	callq	__ZN4core3fmt8builders10DebugTuple6finish17h9f206806f7096c33E
	.loc	43 135 15
	addq	$32, %rsp
	popq	%rbx
	popq	%r14
	popq	%rbp
	retq
Ltmp1697:
Lfunc_end59:
	.cfi_endproc

	.globl	__ZN71_$LT$rand..seq..index..IndexVecIntoIter$u20$as$u20$core..fmt..Debug$GT$3fmt17h0d7ed085d32e7f43E
	.p2align	4, 0x90
__ZN71_$LT$rand..seq..index..IndexVecIntoIter$u20$as$u20$core..fmt..Debug$GT$3fmt17h0d7ed085d32e7f43E:
Lfunc_begin60:
	.loc	43 167 0 is_stmt 1
	.cfi_startproc
	pushq	%rbp
	.cfi_def_cfa_offset 16
	.cfi_offset %rbp, -16
	movq	%rsp, %rbp
	.cfi_def_cfa_register %rbp
Ltmp1698:
	pushq	%r14
	pushq	%rbx
	subq	$32, %rsp
	.cfi_offset %rbx, -32
	.cfi_offset %r14, -24
	.loc	43 167 17 prologue_end
	cmpl	$1, (%rdi)
	.loc	43 0 0 is_stmt 0
	leaq	8(%rdi), %rbx
	.loc	43 167 17
	jne	LBB60_2
Ltmp1699:
	.loc	43 167 17
	leaq	l___unnamed_76(%rip), %rdx
	leaq	-48(%rbp), %r14
	movl	$5, %ecx
	movq	%r14, %rdi
Ltmp1700:
	callq	__ZN4core3fmt9Formatter11debug_tuple17h6c448643801d07e8E
Ltmp1701:
	.loc	43 172 11 is_stmt 1
	movq	%rbx, -24(%rbp)
	.loc	43 167 17
	leaq	l___unnamed_21(%rip), %rdx
	jmp	LBB60_3
Ltmp1702:
LBB60_2:
	.loc	43 167 17 is_stmt 0
	leaq	l___unnamed_77(%rip), %rdx
	leaq	-48(%rbp), %r14
	movl	$3, %ecx
	movq	%r14, %rdi
Ltmp1703:
	callq	__ZN4core3fmt9Formatter11debug_tuple17h6c448643801d07e8E
Ltmp1704:
	.loc	43 170 9 is_stmt 1
	movq	%rbx, -24(%rbp)
	.loc	43 167 17
	leaq	l___unnamed_22(%rip), %rdx
Ltmp1705:
LBB60_3:
	.loc	43 0 17 is_stmt 0
	leaq	-24(%rbp), %rsi
	movq	%r14, %rdi
	callq	__ZN4core3fmt8builders10DebugTuple5field17hc7b676d0e36b51d9E
	movq	%r14, %rdi
	callq	__ZN4core3fmt8builders10DebugTuple6finish17h9f206806f7096c33E
	.loc	43 167 22
	addq	$32, %rsp
	popq	%rbx
	popq	%r14
	popq	%rbp
	retq
Ltmp1706:
Lfunc_end60:
	.cfi_endproc

	.section	__TEXT,__const
	.p2align	4
_str.0:
	.ascii	"attempt to subtract with overflow"

	.section	__DATA,__const
	.p2align	3
l___unnamed_1:
	.quad	__ZN4core3ptr13drop_in_place17h0c1f0d63fc0a43ffE
	.quad	8
	.quad	8
	.quad	__ZN3std4sync4once4Once9call_once28_$u7b$$u7b$closure$u7d$$u7d$17h4a15133d055c2b34E
	.quad	__ZN4core3ops8function6FnOnce40call_once$u7b$$u7b$vtable.shim$u7d$$u7d$17hef9acb25178c7f08E

	.section	__TEXT,__const
l___unnamed_78:
	.ascii	"/rustc/6c8927b0cf80ceee19386026cf9d7fd4fd9d486f/src/libstd/sync/once.rs"

	.section	__DATA,__const
	.p2align	3
l___unnamed_24:
	.quad	l___unnamed_78
	.asciz	"G\000\000\000\000\000\000\000\t\001\000\0002\000\000"

	.section	__TEXT,__const
l___unnamed_44:
	.ascii	"cannot access a Thread Local Storage value during or after destruction"

l___unnamed_79:
	.ascii	"/rustc/6c8927b0cf80ceee19386026cf9d7fd4fd9d486f/src/libstd/thread/local.rs"

	.section	__DATA,__const
	.p2align	3
l___unnamed_45:
	.quad	l___unnamed_79
	.asciz	"J\000\000\000\000\000\000\000\357\000\000\000\032\000\000"

	.p2align	3
l___unnamed_2:
	.quad	__ZN4core3ptr13drop_in_place17h0c1f0d63fc0a43ffE
	.quad	8
	.quad	8
	.quad	__ZN42_$LT$$RF$T$u20$as$u20$core..fmt..Debug$GT$3fmt17h285824563ed0cf4fE

	.p2align	3
l___unnamed_3:
	.quad	__ZN4core3ptr13drop_in_place17h0c1f0d63fc0a43ffE
	.quad	8
	.quad	8
	.quad	__ZN42_$LT$$RF$T$u20$as$u20$core..fmt..Debug$GT$3fmt17hab766ae7beb46d5bE

	.section	__TEXT,__const
l___unnamed_23:
	.ascii	"called `Option::unwrap()` on a `None` value"

	.section	__DATA,__const
	.p2align	3
l___unnamed_4:
	.quad	__ZN4core3ptr13drop_in_place17h0c1f0d63fc0a43ffE
	.quad	0
	.quad	1
	.quad	__ZN68_$LT$std..thread..local..AccessError$u20$as$u20$core..fmt..Debug$GT$3fmt17h8c4e39f2d8a29d30E

	.section	__TEXT,__literal4,4byte_literals
L___unnamed_31:
	.ascii	"Iter"

	.section	__DATA,__const
	.p2align	3
l___unnamed_5:
	.quad	__ZN4core3ptr13drop_in_place17h0c1f0d63fc0a43ffE
	.quad	16
	.quad	8
	.quad	__ZN42_$LT$$RF$T$u20$as$u20$core..fmt..Debug$GT$3fmt17h7345f2b58f698cecE

	.p2align	3
l___unnamed_6:
	.quad	__ZN4core3ptr13drop_in_place17h0c1f0d63fc0a43ffE
	.quad	16
	.quad	8
	.quad	__ZN42_$LT$$RF$T$u20$as$u20$core..fmt..Debug$GT$3fmt17h85fadc9bf84bdc35E

	.section	__TEXT,__literal8,8byte_literals
L___unnamed_30:
	.ascii	"IntoIter"

	.section	__TEXT,__const
l___unnamed_80:
	.ascii	"/Users/yingyuhang/.cargo/git/checkouts/rand-cc8f5b7ec2d3b6d9/dca9cb5/rand_core/src/block.rs"

	.section	__DATA,__const
	.p2align	3
l___unnamed_33:
	.quad	l___unnamed_80
	.asciz	"[\000\000\000\000\000\000\000\333\000\000\000P\000\000"

	.p2align	3
l___unnamed_34:
	.quad	l___unnamed_80
	.asciz	"[\000\000\000\000\000\000\000\335\000\000\000\r\000\000"

	.section	__TEXT,__const
	.p2align	4
_str.2:
	.ascii	"attempt to add with overflow"

	.section	__DATA,__const
	.p2align	3
l___unnamed_35:
	.quad	l___unnamed_80
	.asciz	"[\000\000\000\000\000\000\000\336\000\000\000\r\000\000"

	.section	__TEXT,__literal8,8byte_literals
L___unnamed_25:
	.space	8

	.section	__TEXT,__const
	.p2align	3
l___unnamed_41:
	.byte	0

l___unnamed_36:
	.ascii	"p is outside [0, 1] in Bernoulli distribution"

l___unnamed_81:
	.ascii	"Too many weights (hit u32::MAX)"

	.section	__DATA,__const
	.p2align	3
l___unnamed_39:
	.quad	l___unnamed_81
	.asciz	"\037\000\000\000\000\000\000"

	.section	__TEXT,__const
l___unnamed_82:
	.ascii	"All weights are zero."

	.section	__DATA,__const
	.p2align	3
l___unnamed_38:
	.quad	l___unnamed_82
	.asciz	"\025\000\000\000\000\000\000"

	.section	__TEXT,__const
l___unnamed_83:
	.ascii	"A weight is invalid."

	.section	__DATA,__const
	.p2align	3
l___unnamed_40:
	.quad	l___unnamed_83
	.asciz	"\024\000\000\000\000\000\000"

	.section	__TEXT,__const
l___unnamed_84:
	.ascii	"No weights provided."

	.section	__DATA,__const
	.p2align	3
l___unnamed_37:
	.quad	l___unnamed_84
	.asciz	"\024\000\000\000\000\000\000"

	.section	__TEXT,__const
l___unnamed_85:
	.ascii	"ReadError: "

	.section	__DATA,__const
	.p2align	3
l___unnamed_42:
	.quad	l___unnamed_85
	.asciz	"\013\000\000\000\000\000\000"

	.p2align	3
l___unnamed_7:
	.quad	__ZN4core3ptr13drop_in_place17h5c927dfa7f567e81E
	.quad	16
	.quad	8
	.quad	__ZN59_$LT$std..io..error..Error$u20$as$u20$std..error..Error$GT$6source17h96c6ca63c4014596E
	.quad	__ZN3std5error5Error7type_id17he9fc8e193455c591E
	.quad	__ZN3std5error5Error9backtrace17h8767d39a8a83466eE
	.quad	__ZN59_$LT$std..io..error..Error$u20$as$u20$std..error..Error$GT$11description17h90c800805e89b460E
	.quad	__ZN59_$LT$std..io..error..Error$u20$as$u20$std..error..Error$GT$5cause17h0a9cdc58fd02181cE
	.quad	__ZN60_$LT$std..io..error..Error$u20$as$u20$core..fmt..Display$GT$3fmt17h3716551a80b2cfe9E
	.quad	__ZN58_$LT$std..io..error..Error$u20$as$u20$core..fmt..Debug$GT$3fmt17hd2ddac42b4f82396E

	.section	__TEXT,__const
l___unnamed_86:
	.ascii	"/Users/yingyuhang/.cargo/git/checkouts/rand-cc8f5b7ec2d3b6d9/dca9cb5/src/rngs/adapter/reseeding.rs"

	.section	__DATA,__const
	.p2align	3
l___unnamed_43:
	.quad	l___unnamed_86
	.asciz	"b\000\000\000\000\000\000\000\375\000\000\000#\000\000"

.zerofill __DATA,__bss,__ZN4rand4rngs7adapter9reseeding4fork26RESEEDING_RNG_FORK_COUNTER17h8ec4996c534257ffE,8,3
.zerofill __DATA,__bss,__ZN4rand4rngs7adapter9reseeding4fork21register_fork_handler8REGISTER17ha747af42642fc444E,8,3
	.section	__TEXT,__const
l___unnamed_87:
	.ascii	"/Users/yingyuhang/.cargo/git/checkouts/rand-cc8f5b7ec2d3b6d9/dca9cb5/src/rngs/thread.rs"

l___unnamed_46:
	.ascii	"Bernoulli"

l___unnamed_47:
	.ascii	"p_int"

	.section	__DATA,__const
	.p2align	3
l___unnamed_8:
	.quad	__ZN4core3ptr13drop_in_place17h0c1f0d63fc0a43ffE
	.quad	8
	.quad	8
	.quad	__ZN42_$LT$$RF$T$u20$as$u20$core..fmt..Debug$GT$3fmt17h5b28c4f911f71dc1E

	.section	__TEXT,__const
l___unnamed_48:
	.ascii	"InvalidProbability"

l___unnamed_32:
	.ascii	"Uniform"

	.section	__DATA,__const
	.p2align	3
l___unnamed_9:
	.quad	__ZN4core3ptr13drop_in_place17h0c1f0d63fc0a43ffE
	.quad	8
	.quad	8
	.quad	__ZN42_$LT$$RF$T$u20$as$u20$core..fmt..Debug$GT$3fmt17h4133ef25479f3694E

	.p2align	3
l___unnamed_10:
	.quad	__ZN4core3ptr13drop_in_place17h0c1f0d63fc0a43ffE
	.quad	8
	.quad	8
	.quad	__ZN42_$LT$$RF$T$u20$as$u20$core..fmt..Debug$GT$3fmt17h6069bfc937400ca1E

	.section	__TEXT,__const
l___unnamed_26:
	.ascii	"UniformInt"

l___unnamed_27:
	.ascii	"low"

l___unnamed_28:
	.ascii	"range"

l___unnamed_29:
	.byte	122

l___unnamed_49:
	.ascii	"UniformDuration"

	.section	__TEXT,__literal4,4byte_literals
L___unnamed_50:
	.ascii	"mode"

	.section	__DATA,__const
	.p2align	3
l___unnamed_11:
	.quad	__ZN4core3ptr13drop_in_place17h0c1f0d63fc0a43ffE
	.quad	8
	.quad	8
	.quad	__ZN42_$LT$$RF$T$u20$as$u20$core..fmt..Debug$GT$3fmt17hd71099b5d0b1ee72E

	.section	__TEXT,__const
l___unnamed_51:
	.ascii	"offset"

l___unnamed_52:
	.ascii	"Large"

	.section	__TEXT,__literal8,8byte_literals
L___unnamed_53:
	.ascii	"max_secs"

	.section	__TEXT,__const
l___unnamed_54:
	.ascii	"max_nanos"

	.section	__TEXT,__literal4,4byte_literals
L___unnamed_55:
	.ascii	"secs"

	.section	__DATA,__const
	.p2align	3
l___unnamed_12:
	.quad	__ZN4core3ptr13drop_in_place17h0c1f0d63fc0a43ffE
	.quad	8
	.quad	8
	.quad	__ZN42_$LT$$RF$T$u20$as$u20$core..fmt..Debug$GT$3fmt17hacfa4a3bba1738c0E

	.section	__TEXT,__const
l___unnamed_58:
	.ascii	"Medium"

l___unnamed_57:
	.ascii	"nanos"

l___unnamed_56:
	.ascii	"Small"

	.section	__DATA,__const
	.p2align	3
l___unnamed_13:
	.quad	__ZN4core3ptr13drop_in_place17h0c1f0d63fc0a43ffE
	.quad	8
	.quad	8
	.quad	__ZN42_$LT$$RF$T$u20$as$u20$core..fmt..Debug$GT$3fmt17heb5c233cda8f3e32E

	.section	__TEXT,__const
l___unnamed_61:
	.ascii	"TooMany"

l___unnamed_60:
	.ascii	"AllWeightsZero"

l___unnamed_62:
	.ascii	"InvalidWeight"

l___unnamed_59:
	.ascii	"NoItem"

l___unnamed_63:
	.ascii	"OpenClosed01"

l___unnamed_64:
	.ascii	"Open01"

l___unnamed_65:
	.ascii	"Alphanumeric"

	.section	__TEXT,__literal8,8byte_literals
L___unnamed_66:
	.ascii	"Standard"

	.section	__TEXT,__const
l___unnamed_67:
	.ascii	"ReadError"

	.section	__DATA,__const
	.p2align	3
l___unnamed_14:
	.quad	__ZN4core3ptr13drop_in_place17h0c1f0d63fc0a43ffE
	.quad	8
	.quad	8
	.quad	__ZN42_$LT$$RF$T$u20$as$u20$core..fmt..Debug$GT$3fmt17h96b18ffe68f7ad8eE

	.section	__TEXT,__const
l___unnamed_68:
	.ascii	"StepRng"

l___unnamed_69:
	.byte	118

l___unnamed_70:
	.byte	97

l___unnamed_71:
	.ascii	"StdRng"

	.section	__DATA,__const
	.p2align	3
l___unnamed_15:
	.quad	__ZN4core3ptr13drop_in_place17h0c1f0d63fc0a43ffE
	.quad	8
	.quad	8
	.quad	__ZN42_$LT$$RF$T$u20$as$u20$core..fmt..Debug$GT$3fmt17hdb649319f17c956fE

	.section	__TEXT,__const
l___unnamed_72:
	.ascii	"ThreadRng"

l___unnamed_73:
	.ascii	"rng"

	.section	__DATA,__const
	.p2align	3
l___unnamed_16:
	.quad	__ZN4core3ptr13drop_in_place17h0c1f0d63fc0a43ffE
	.quad	8
	.quad	8
	.quad	__ZN42_$LT$$RF$T$u20$as$u20$core..fmt..Debug$GT$3fmt17hbf4f6a4b324fdb4dE

	.section	__TEXT,__const
l___unnamed_88:
	.ascii	"could not initialize thread_rng: "

	.section	__DATA,__const
	.p2align	3
l___unnamed_74:
	.quad	l___unnamed_88
	.asciz	"!\000\000\000\000\000\000"

	.p2align	3
l___unnamed_75:
	.quad	l___unnamed_87
	.asciz	"W\000\000\000\000\000\000\000A\000\000\000\021\000\000"

	.section	__DATA,__thread_bss,thread_local_zerofill
	.p2align	3
__ZN4rand4rngs6thread14THREAD_RNG_KEY7__getit5__KEY17hcc6d051e5ae6bdebE$tlv$init:
	.space	352

	.section	__DATA,__thread_vars,thread_local_variables
__ZN4rand4rngs6thread14THREAD_RNG_KEY7__getit5__KEY17hcc6d051e5ae6bdebE:
	.quad	__tlv_bootstrap
	.quad	0
	.quad	__ZN4rand4rngs6thread14THREAD_RNG_KEY7__getit5__KEY17hcc6d051e5ae6bdebE$tlv$init

	.section	__TEXT,__const
l___unnamed_76:
	.ascii	"USize"

	.section	__DATA,__const
	.p2align	3
l___unnamed_17:
	.quad	__ZN4core3ptr13drop_in_place17h0c1f0d63fc0a43ffE
	.quad	8
	.quad	8
	.quad	__ZN42_$LT$$RF$T$u20$as$u20$core..fmt..Debug$GT$3fmt17hc39c42f39d9381d4E

	.section	__TEXT,__const
l___unnamed_77:
	.ascii	"U32"

	.section	__DATA,__const
	.p2align	3
l___unnamed_18:
	.quad	__ZN4core3ptr13drop_in_place17h0c1f0d63fc0a43ffE
	.quad	8
	.quad	8
	.quad	__ZN42_$LT$$RF$T$u20$as$u20$core..fmt..Debug$GT$3fmt17h28321f8b334ec0cfE

	.p2align	3
l___unnamed_19:
	.quad	__ZN4core3ptr13drop_in_place17h0c1f0d63fc0a43ffE
	.quad	8
	.quad	8
	.quad	__ZN42_$LT$$RF$T$u20$as$u20$core..fmt..Debug$GT$3fmt17h770a7b3744f0446bE

	.p2align	3
l___unnamed_20:
	.quad	__ZN4core3ptr13drop_in_place17h0c1f0d63fc0a43ffE
	.quad	8
	.quad	8
	.quad	__ZN42_$LT$$RF$T$u20$as$u20$core..fmt..Debug$GT$3fmt17had36e67650ee7be4E

	.p2align	3
l___unnamed_21:
	.quad	__ZN4core3ptr13drop_in_place17h0c1f0d63fc0a43ffE
	.quad	8
	.quad	8
	.quad	__ZN42_$LT$$RF$T$u20$as$u20$core..fmt..Debug$GT$3fmt17h4c929420f9cc94c3E

	.p2align	3
l___unnamed_22:
	.quad	__ZN4core3ptr13drop_in_place17h0c1f0d63fc0a43ffE
	.quad	8
	.quad	8
	.quad	__ZN42_$LT$$RF$T$u20$as$u20$core..fmt..Debug$GT$3fmt17hf924788559a8f7d4E
