	.section	__TEXT,__text,regular,pure_instructions
	.macosx_version_min 10, 7
	.file	1 "/Users/yingyuhang/.cargo/registry/src/github.com-1ecc6299db9ec823/rand-0.4.6/src/distributions/ziggurat_tables.rs"
	.file	2 "/Users/yingyuhang/.cargo/registry/src/github.com-1ecc6299db9ec823/rand-0.4.6/src/jitter.rs"
	.file	3 "/Users/yingyuhang/.cargo/registry/src/github.com-1ecc6299db9ec823/rand-0.4.6/src/prng/chacha.rs"
	.file	4 "/Users/yingyuhang/.cargo/registry/src/github.com-1ecc6299db9ec823/rand-0.4.6/src/prng/isaac.rs"
	.file	5 "/Users/yingyuhang/.cargo/registry/src/github.com-1ecc6299db9ec823/rand-0.4.6/src/prng/isaac64.rs"
	.file	6 "/rustc/a74d1862d4d87a56244958416fd05976c58ca1a8/src/libstd/thread/local.rs"
	.p2align	4, 0x90
__ZN36_$LT$T$u20$as$u20$core..any..Any$GT$7type_id17he70ab8ffc3c480a3E:
Lfunc_begin0:
	.file	7 "/rustc/a74d1862d4d87a56244958416fd05976c58ca1a8/src/libcore/any.rs"
	.loc	7 109 0
	.cfi_startproc
	pushq	%rbp
	.cfi_def_cfa_offset 16
	.cfi_offset %rbp, -16
	movq	%rsp, %rbp
	.cfi_def_cfa_register %rbp
	movabsq	$1229646359891580772, %rax
Ltmp0:
	.loc	7 111 6 prologue_end
	popq	%rbp
	retq
Ltmp1:
Lfunc_end0:
	.cfi_endproc

	.p2align	4, 0x90
__ZN3std2io5error5Error3new17he2e841112fc1cee5E:
Lfunc_begin1:
	.file	8 "/rustc/a74d1862d4d87a56244958416fd05976c58ca1a8/src/libstd/io/error.rs"
	.loc	8 247 0
	.cfi_startproc
	pushq	%rbp
	.cfi_def_cfa_offset 16
	.cfi_offset %rbp, -16
	movq	%rsp, %rbp
	.cfi_def_cfa_register %rbp
	pushq	%r15
	pushq	%r14
	pushq	%r13
	pushq	%r12
	pushq	%rbx
	subq	$24, %rsp
	.cfi_offset %rbx, -56
	.cfi_offset %r12, -48
	.cfi_offset %r13, -40
	.cfi_offset %r14, -32
	.cfi_offset %r15, -24
Ltmp2:
	movq	%rcx, %r14
Ltmp3:
	movq	%rdx, %r12
Ltmp4:
	movq	%rdi, %r15
Ltmp5:
	.file	9 "/rustc/a74d1862d4d87a56244958416fd05976c58ca1a8/src/liballoc/alloc.rs"
	.loc	9 170 16 prologue_end
	testq	%rcx, %rcx
	movl	%esi, -44(%rbp)
	.loc	9 170 13 is_stmt 0
	je	LBB1_1
Ltmp6:
	.loc	9 80 5 is_stmt 1
	movl	$1, %esi
Ltmp7:
	movq	%r14, %rdi
	callq	___rust_alloc
Ltmp8:
	.file	10 "/rustc/a74d1862d4d87a56244958416fd05976c58ca1a8/src/libcore/result.rs"
	.loc	10 852 13
	testq	%rax, %rax
	je	LBB1_15
Ltmp9:
	.loc	10 0 13 is_stmt 0
	movq	%rax, %r13
Ltmp10:
	movq	%r14, %rbx
Ltmp11:
	.file	11 "/rustc/a74d1862d4d87a56244958416fd05976c58ca1a8/src/liballoc/raw_vec.rs"
	.loc	11 378 9 is_stmt 1
	cmpq	%r14, %rbx
Ltmp12:
	.loc	11 280 9
	jb	LBB1_5
	jmp	LBB1_13
Ltmp13:
LBB1_1:
	.loc	11 0 9 is_stmt 0
	movl	$1, %r13d
	xorl	%ebx, %ebx
Ltmp14:
	.loc	11 378 9 is_stmt 1
	cmpq	%r14, %rbx
Ltmp15:
	.loc	11 280 9
	jae	LBB1_13
Ltmp16:
LBB1_5:
	.loc	11 0 9 is_stmt 0
	movq	%r15, -56(%rbp)
Ltmp17:
	.loc	11 414 26 is_stmt 1
	leaq	(%rbx,%rbx), %r15
Ltmp18:
	.file	12 "/rustc/a74d1862d4d87a56244958416fd05976c58ca1a8/src/libcore/cmp.rs"
	.loc	12 1017 9
	cmpq	%r14, %r15
	.loc	12 0 0 is_stmt 0
	cmovbeq	%r14, %r15
Ltmp19:
	.loc	11 200 40 is_stmt 1
	testq	%rbx, %rbx
Ltmp20:
	.loc	11 200 9 is_stmt 0
	je	LBB1_9
Ltmp21:
	testq	%r13, %r13
	je	LBB1_9
Ltmp22:
	.loc	9 205 12 is_stmt 1
	cmpq	%r15, %rbx
	.loc	9 205 9 is_stmt 0
	je	LBB1_12
Ltmp23:
	.loc	9 124 5 is_stmt 1
	movl	$1, %edx
	movq	%r13, %rdi
	movq	%rbx, %rsi
	movq	%r15, %rcx
	callq	___rust_realloc
Ltmp24:
	.loc	11 0 0 is_stmt 0
	movq	%rax, %r13
Ltmp25:
	.loc	10 611 13 is_stmt 1
	testq	%rax, %rax
	jne	LBB1_11
	jmp	LBB1_16
Ltmp26:
LBB1_9:
	.loc	9 80 5
	movl	$1, %esi
	movq	%r15, %rdi
	callq	___rust_alloc
Ltmp27:
	.loc	11 0 0 is_stmt 0
	movq	%rax, %r13
Ltmp28:
	.loc	10 611 13 is_stmt 1
	testq	%rax, %rax
	je	LBB1_16
Ltmp29:
LBB1_11:
	.file	13 "/rustc/a74d1862d4d87a56244958416fd05976c58ca1a8/src/liballoc/slice.rs"
	.loc	13 0 0 is_stmt 0
	movq	%r15, %rbx
Ltmp30:
LBB1_12:
	movq	-56(%rbp), %r15
Ltmp31:
LBB1_13:
	.file	14 "/rustc/a74d1862d4d87a56244958416fd05976c58ca1a8/src/libcore/intrinsics.rs"
	.loc	14 2058 5 is_stmt 1
	movq	%r13, %rdi
	movq	%r12, %rsi
	movq	%r14, %rdx
	callq	_memcpy
Ltmp32:
	.loc	9 80 5
	movl	$24, %edi
	movl	$8, %esi
	callq	___rust_alloc
Ltmp33:
	.loc	9 269 9
	testq	%rax, %rax
	je	LBB1_17
Ltmp34:
	.file	15 "/rustc/a74d1862d4d87a56244958416fd05976c58ca1a8/src/liballoc/boxed.rs"
	.loc	15 174 13
	movq	%r13, (%rax)
	movq	%rbx, 8(%rax)
	movq	%r14, 16(%rax)
Ltmp35:
	.loc	8 251 9
	movzbl	-44(%rbp), %esi
	leaq	l___unnamed_1(%rip), %rcx
	movq	%r15, %rdi
	movq	%rax, %rdx
	callq	__ZN3std2io5error5Error4_new17h7c6c803135aa1561E
	.loc	8 252 6
	addq	$24, %rsp
	popq	%rbx
Ltmp36:
	popq	%r12
Ltmp37:
	popq	%r13
Ltmp38:
	popq	%r14
Ltmp39:
	popq	%r15
	popq	%rbp
	retq
Ltmp40:
LBB1_17:
	.loc	9 270 19
	movl	$24, %edi
	movl	$8, %esi
	callq	__ZN5alloc5alloc18handle_alloc_error17hbc0ab0ed90816c07E
Ltmp41:
LBB1_15:
	.loc	10 853 23
	movl	$1, %esi
	movq	%r14, %rdi
	callq	__ZN5alloc7raw_vec19RawVec$LT$T$C$A$GT$11allocate_in28_$u7b$$u7b$closure$u7d$$u7d$17h1b56f2b7001a7670E
Ltmp42:
LBB1_16:
	.loc	11 269 47
	movl	$1, %esi
	movq	%r15, %rdi
	callq	__ZN5alloc5alloc18handle_alloc_error17hbc0ab0ed90816c07E
Ltmp43:
Lfunc_end1:
	.cfi_endproc
	.file	16 "/rustc/a74d1862d4d87a56244958416fd05976c58ca1a8/src/liballoc/vec.rs"
	.file	17 "/rustc/a74d1862d4d87a56244958416fd05976c58ca1a8/src/liballoc/str.rs"
	.file	18 "/rustc/a74d1862d4d87a56244958416fd05976c58ca1a8/src/liballoc/string.rs"
	.file	19 "/rustc/a74d1862d4d87a56244958416fd05976c58ca1a8/src/libstd/error.rs"
	.file	20 "/rustc/a74d1862d4d87a56244958416fd05976c58ca1a8/src/libcore/convert/mod.rs"
	.file	21 "/rustc/a74d1862d4d87a56244958416fd05976c58ca1a8/src/libcore/macros/mod.rs"
	.file	22 "/rustc/a74d1862d4d87a56244958416fd05976c58ca1a8/src/libcore/slice/mod.rs"

	.p2align	4, 0x90
__ZN3std5error5Error5cause17h7cf4795066a7cc6dE:
Lfunc_begin2:
	.loc	19 149 0
	.cfi_startproc
	pushq	%rbp
	.cfi_def_cfa_offset 16
	.cfi_offset %rbp, -16
	movq	%rsp, %rbp
	.cfi_def_cfa_register %rbp
Ltmp44:
	.loc	19 151 6 prologue_end
	xorl	%eax, %eax
	popq	%rbp
	retq
Ltmp45:
Lfunc_end2:
	.cfi_endproc

	.p2align	4, 0x90
__ZN3std5error5Error7type_id17h20abfda94fb97ff6E:
Lfunc_begin3:
	.loc	19 110 0
	.cfi_startproc
	pushq	%rbp
	.cfi_def_cfa_offset 16
	.cfi_offset %rbp, -16
	movq	%rsp, %rbp
	.cfi_def_cfa_register %rbp
	movabsq	$2636681851839236296, %rax
Ltmp46:
	.loc	19 115 6 prologue_end
	popq	%rbp
	retq
Ltmp47:
Lfunc_end3:
	.cfi_endproc

	.p2align	4, 0x90
__ZN3std5error5Error9backtrace17hbf20eb4cec596450E:
Lfunc_begin4:
	.loc	19 127 0
	.cfi_startproc
	pushq	%rbp
	.cfi_def_cfa_offset 16
	.cfi_offset %rbp, -16
	movq	%rsp, %rbp
	.cfi_def_cfa_register %rbp
Ltmp48:
	.loc	19 129 6 prologue_end
	xorl	%eax, %eax
	popq	%rbp
	retq
Ltmp49:
Lfunc_end4:
	.cfi_endproc

	.section	__TEXT,__literal16,16byte_literals
	.p2align	4
LCPI5_0:
	.quad	1
	.quad	1
	.section	__TEXT,__text,regular,pure_instructions
	.p2align	4, 0x90
__ZN3std6thread5local4fast12Key$LT$T$GT$14try_initialize17h6691b61cb68b2ed0E:
Lfunc_begin5:
	.file	23 "/rustc/a74d1862d4d87a56244958416fd05976c58ca1a8/src/libstd/thread/local.rs"
	.loc	23 423 0
	.cfi_startproc
	.cfi_personality 155, _rust_eh_personality
	.cfi_lsda 16, Lexception0
	pushq	%rbp
	.cfi_def_cfa_offset 16
	.cfi_offset %rbp, -16
	movq	%rsp, %rbp
	.cfi_def_cfa_register %rbp
Ltmp53:
	pushq	%rbx
	movl	$8296, %eax
	callq	___rust_probestack
	subq	%rax, %rsp
	.cfi_offset %rbx, -24
	.file	24 "/rustc/a74d1862d4d87a56244958416fd05976c58ca1a8/src/libcore/cell.rs"
	.loc	24 432 18 prologue_end
	movq	__ZN4rand10thread_rng14THREAD_RNG_KEY7__getit5__KEY17hae53d4b0d4d6586cE@TLVP(%rip), %rdi
	callq	*(%rdi)
	movb	8(%rax), %al
Ltmp54:
	.loc	23 436 17
	testb	%al, %al
	je	LBB5_3
	cmpb	$1, %al
	je	LBB5_4
Ltmp55:
	.loc	23 0 17 is_stmt 0
	xorl	%eax, %eax
	.loc	23 429 10 is_stmt 1
	addq	$8296, %rsp
	popq	%rbx
	popq	%rbp
	retq
LBB5_3:
Ltmp56:
	.loc	23 438 21
	movq	__ZN4rand10thread_rng14THREAD_RNG_KEY7__getit5__KEY17hae53d4b0d4d6586cE@TLVP(%rip), %rdi
	callq	*(%rdi)
	movq	%rax, %rbx
Ltmp57:
	leaq	__ZN3std6thread5local4fast13destroy_value17hcf92e91fae80c738E(%rip), %rsi
	movq	%rax, %rdi
	callq	__ZN3std3sys4unix17fast_thread_local13register_dtor17h1042734db6d0a9bdE
Ltmp58:
	.loc	14 2058 5
	movb	$1, 8(%rbx)
Ltmp59:
LBB5_4:
	.loc	14 0 5 is_stmt 0
	leaq	-8304(%rbp), %rdi
Ltmp60:
	.file	25 "/Users/yingyuhang/.cargo/registry/src/github.com-1ecc6299db9ec823/rand-0.4.6/src/lib.rs"
	.loc	25 888 23 is_stmt 1
	callq	__ZN4rand6StdRng3new17hdaa9742f8e3eafbbE
	.loc	25 889 13
	cmpq	$1, -8304(%rbp)
Ltmp61:
	je	LBB5_7
Ltmp62:
	.loc	25 889 16 is_stmt 0
	leaq	-8296(%rbp), %rsi
	leaq	-4168(%rbp), %rbx
	movl	$4128, %edx
	movq	%rbx, %rdi
	callq	_memcpy
Ltmp63:
	.loc	25 0 16
	leaq	-8304(%rbp), %rdi
Ltmp64:
	.loc	25 895 30 is_stmt 1
	movl	$4128, %edx
	movq	%rbx, %rsi
	callq	_memcpy
Ltmp65:
	.loc	9 80 5
	movl	$4168, %edi
	movl	$8, %esi
	callq	___rust_alloc
Ltmp66:
	.loc	9 269 9
	testq	%rax, %rax
	je	LBB5_6
Ltmp67:
	.loc	23 0 0 is_stmt 0
	movq	%rax, %rbx
Ltmp68:
	.file	26 "/rustc/a74d1862d4d87a56244958416fd05976c58ca1a8/src/liballoc/rc.rs"
	.loc	26 327 27 is_stmt 1
	movaps	LCPI5_0(%rip), %xmm0
	movups	%xmm0, (%rax)
	movq	$0, 16(%rax)
	movq	%rax, %rdi
	addq	$24, %rdi
	leaq	-8304(%rbp), %rsi
	movl	$4128, %edx
	callq	_memcpy
	movl	$32768, %eax
	movq	%rax, %xmm0
	movdqu	%xmm0, 4152(%rbx)
Ltmp69:
	.loc	14 2058 5
	movq	__ZN4rand10thread_rng14THREAD_RNG_KEY7__getit5__KEY17hae53d4b0d4d6586cE@TLVP(%rip), %rdi
	callq	*(%rdi)
Ltmp70:
	movq	(%rax), %rdi
Ltmp71:
	.loc	14 2058 5 is_stmt 0
	movq	%rbx, (%rax)
Ltmp72:
	.file	27 "/rustc/a74d1862d4d87a56244958416fd05976c58ca1a8/src/libcore/ptr/mod.rs"
	.loc	27 178 1 is_stmt 1
	testq	%rdi, %rdi
	je	LBB5_15
Ltmp73:
	.loc	14 2058 5
	decq	(%rdi)
Ltmp74:
	.loc	26 1148 13
	jne	LBB5_14
Ltmp75:
	.loc	14 2058 5
	decq	8(%rdi)
Ltmp76:
	.loc	26 1156 17
	jne	LBB5_14
Ltmp77:
	.loc	9 102 5
	movl	$4168, %esi
	movl	$8, %edx
	callq	___rust_dealloc
Ltmp78:
LBB5_14:
	.loc	23 312 17
	movq	__ZN4rand10thread_rng14THREAD_RNG_KEY7__getit5__KEY17hae53d4b0d4d6586cE@TLVP(%rip), %rdi
	callq	*(%rdi)
Ltmp79:
LBB5_15:
	.loc	23 0 17 is_stmt 0
	movq	__ZN4rand10thread_rng14THREAD_RNG_KEY7__getit5__KEY17hae53d4b0d4d6586cE@TLVP(%rip), %rdi
	callq	*(%rdi)
	.loc	23 429 10 is_stmt 1
	addq	$8296, %rsp
	popq	%rbx
	popq	%rbp
	retq
LBB5_7:
Ltmp80:
	.loc	25 890 17
	movq	-8296(%rbp), %rax
	movq	-8288(%rbp), %rcx
	movq	%rcx, -16(%rbp)
	movq	%rax, -24(%rbp)
	leaq	-24(%rbp), %rax
Ltmp81:
	.loc	25 890 23 is_stmt 0
	movq	%rax, -40(%rbp)
	movq	__ZN60_$LT$std..io..error..Error$u20$as$u20$core..fmt..Display$GT$3fmt17hd5a23906ccc4fffdE@GOTPCREL(%rip), %rax
	movq	%rax, -32(%rbp)
Ltmp82:
	.file	28 "/rustc/a74d1862d4d87a56244958416fd05976c58ca1a8/src/libcore/fmt/mod.rs"
	.loc	28 328 9 is_stmt 1
	leaq	l___unnamed_26(%rip), %rax
Ltmp83:
	movq	%rax, -4168(%rbp)
	movq	$1, -4160(%rbp)
	movq	$0, -4152(%rbp)
	leaq	-40(%rbp), %rax
Ltmp84:
	movq	%rax, -4136(%rbp)
	movq	$1, -4128(%rbp)
Ltmp85:
Ltmp50:
	.loc	25 890 23
	leaq	l___unnamed_27(%rip), %rsi
	leaq	-4168(%rbp), %rdi
	callq	__ZN3std9panicking15begin_panic_fmt17h2e6dba6f5c07d155E
Ltmp51:
Ltmp86:
	.loc	25 0 23 is_stmt 0
	ud2
Ltmp87:
LBB5_6:
	.loc	9 270 19 is_stmt 1
	movl	$4168, %edi
	movl	$8, %esi
	callq	__ZN5alloc5alloc18handle_alloc_error17hbc0ab0ed90816c07E
Ltmp88:
LBB5_8:
Ltmp52:
	.loc	9 0 19 is_stmt 0
	movq	%rax, %rbx
	leaq	-24(%rbp), %rdi
	.loc	25 890 60 is_stmt 1
	callq	__ZN4core3ptr13drop_in_place17hb68b0ab62809349bE
	movq	%rbx, %rdi
	callq	__Unwind_Resume
	ud2
Ltmp89:
Lfunc_end5:
	.cfi_endproc
	.file	29 "/rustc/a74d1862d4d87a56244958416fd05976c58ca1a8/src/libcore/mem/mod.rs"
	.file	30 "/rustc/a74d1862d4d87a56244958416fd05976c58ca1a8/src/libcore/ops/function.rs"
	.section	__TEXT,__gcc_except_tab
	.p2align	2
GCC_except_table5:
Lexception0:
	.byte	255
	.byte	255
	.byte	1
	.uleb128 Lcst_end0-Lcst_begin0
Lcst_begin0:
	.uleb128 Lfunc_begin5-Lfunc_begin5
	.uleb128 Ltmp50-Lfunc_begin5
	.byte	0
	.byte	0
	.uleb128 Ltmp50-Lfunc_begin5
	.uleb128 Ltmp51-Ltmp50
	.uleb128 Ltmp52-Lfunc_begin5
	.byte	0
	.uleb128 Ltmp51-Lfunc_begin5
	.uleb128 Lfunc_end5-Ltmp51
	.byte	0
	.byte	0
Lcst_end0:
	.p2align	2

	.section	__TEXT,__text,regular,pure_instructions
	.p2align	4, 0x90
__ZN3std6thread5local4fast13destroy_value17hcf92e91fae80c738E:
Lfunc_begin6:
	.loc	23 451 0
	.cfi_startproc
	pushq	%rbp
	.cfi_def_cfa_offset 16
	.cfi_offset %rbp, -16
	movq	%rsp, %rbp
	.cfi_def_cfa_register %rbp
Ltmp90:
	movq	%rdi, %rax
Ltmp91:
	.loc	14 2058 5 prologue_end
	movq	(%rdi), %rdi
Ltmp92:
	.loc	14 2058 5 is_stmt 0
	movq	$0, (%rax)
Ltmp93:
	.loc	14 2058 5
	movb	$2, 8(%rax)
Ltmp94:
	.loc	27 178 1 is_stmt 1
	testq	%rdi, %rdi
	je	LBB6_3
Ltmp95:
	.loc	14 2058 5
	decq	(%rdi)
Ltmp96:
	.loc	26 1148 13
	jne	LBB6_3
Ltmp97:
	.loc	14 2058 5
	decq	8(%rdi)
Ltmp98:
	.loc	26 1156 17
	je	LBB6_4
Ltmp99:
LBB6_3:
	.loc	23 461 6
	popq	%rbp
	retq
Ltmp100:
LBB6_4:
	.loc	9 102 5
	movl	$4168, %esi
	movl	$8, %edx
	popq	%rbp
	jmp	___rust_dealloc
Ltmp101:
Lfunc_end6:
	.cfi_endproc
	.file	31 "/rustc/a74d1862d4d87a56244958416fd05976c58ca1a8/src/libcore/option.rs"

	.p2align	4, 0x90
__ZN3std9panicking11begin_panic17hd4d4c819dff90bc2E:
Lfunc_begin7:
	.file	32 "/rustc/a74d1862d4d87a56244958416fd05976c58ca1a8/src/libstd/panicking.rs"
	.loc	32 399 0
	.cfi_startproc
	pushq	%rbp
	.cfi_def_cfa_offset 16
	.cfi_offset %rbp, -16
	movq	%rsp, %rbp
	.cfi_def_cfa_register %rbp
	subq	$16, %rsp
Ltmp102:
	.loc	32 404 31 prologue_end
	movq	%rdi, -16(%rbp)
	movq	%rsi, -8(%rbp)
	.loc	32 404 61 is_stmt 0
	movq	%rdx, %rdi
Ltmp103:
	callq	__ZN4core5panic8Location6caller17hf55c9a52d6249cfcE
Ltmp104:
	.loc	32 404 5
	leaq	l___unnamed_2(%rip), %rsi
	leaq	-16(%rbp), %rdi
	xorl	%edx, %edx
	movq	%rax, %rcx
	callq	__ZN3std9panicking20rust_panic_with_hook17hf8b9378dd2e7986aE
Ltmp105:
Lfunc_end7:
	.cfi_endproc

	.p2align	4, 0x90
__ZN42_$LT$$RF$T$u20$as$u20$core..fmt..Debug$GT$3fmt17h0462d90dd5547a91E:
Lfunc_begin8:
	.loc	28 1973 0 is_stmt 1
	.cfi_startproc
	pushq	%rbp
	.cfi_def_cfa_offset 16
	.cfi_offset %rbp, -16
	movq	%rsp, %rbp
	.cfi_def_cfa_register %rbp
Ltmp106:
	pushq	%r14
	pushq	%rbx
	subq	$32, %rsp
	.cfi_offset %rbx, -32
	.cfi_offset %r14, -24
	.loc	28 1973 71 prologue_end
	movq	(%rdi), %rbx
Ltmp107:
	.file	33 "/Users/yingyuhang/.cargo/registry/src/github.com-1ecc6299db9ec823/rand-0.4.6/src/distributions/gamma.rs"
	.loc	33 205 23
	cmpq	$3, (%rbx)
	jne	LBB8_1
Ltmp108:
	.loc	33 0 23 is_stmt 0
	leaq	-48(%rbp), %r14
Ltmp109:
	.loc	33 205 23
	leaq	l___unnamed_28(%rip), %rdx
	movl	$13, %ecx
	movq	%r14, %rdi
Ltmp110:
	callq	__ZN4core3fmt9Formatter11debug_tuple17h15ca25ad759edd1cE
Ltmp111:
	.loc	33 0 23
	jmp	LBB8_3
Ltmp112:
LBB8_1:
	leaq	-48(%rbp), %r14
Ltmp113:
	.loc	33 205 23
	leaq	l___unnamed_29(%rip), %rdx
	movl	$15, %ecx
	movq	%r14, %rdi
Ltmp114:
	callq	__ZN4core3fmt9Formatter11debug_tuple17h15ca25ad759edd1cE
Ltmp115:
	.loc	33 211 21 is_stmt 1
	movq	%rbx, -24(%rbp)
	.loc	33 205 23
	leaq	l___unnamed_16(%rip), %rdx
	leaq	-24(%rbp), %rsi
	movq	%r14, %rdi
	callq	__ZN4core3fmt8builders10DebugTuple5field17hf36121153a94f236E
Ltmp116:
LBB8_3:
	.loc	33 0 0 is_stmt 0
	movq	%r14, %rdi
	callq	__ZN4core3fmt8builders10DebugTuple6finish17h68acf09c6f6593f2E
Ltmp117:
	.loc	28 1973 84 is_stmt 1
	addq	$32, %rsp
	popq	%rbx
Ltmp118:
	popq	%r14
	popq	%rbp
	retq
Ltmp119:
Lfunc_end8:
	.cfi_endproc

	.p2align	4, 0x90
__ZN42_$LT$$RF$T$u20$as$u20$core..fmt..Debug$GT$3fmt17h176d5bbf12a1753aE:
Lfunc_begin9:
	.loc	28 1973 0
	.cfi_startproc
	pushq	%rbp
	.cfi_def_cfa_offset 16
	.cfi_offset %rbp, -16
	movq	%rsp, %rbp
	.cfi_def_cfa_register %rbp
	pushq	%r14
	pushq	%rbx
	.cfi_offset %rbx, -32
	.cfi_offset %r14, -24
	movq	%rsi, %rbx
Ltmp120:
	.loc	28 1973 71 prologue_end
	movq	(%rdi), %r14
Ltmp121:
	.file	34 "/rustc/a74d1862d4d87a56244958416fd05976c58ca1a8/src/libcore/fmt/num.rs"
	.loc	34 149 20
	movq	%rsi, %rdi
Ltmp122:
	callq	__ZN4core3fmt9Formatter15debug_lower_hex17h8530fbaeba13f4d9E
	.loc	34 149 17 is_stmt 0
	testb	%al, %al
	je	LBB9_1
Ltmp123:
	.loc	34 150 21 is_stmt 1
	movq	%r14, %rdi
	movq	%rbx, %rsi
	popq	%rbx
Ltmp124:
	popq	%r14
Ltmp125:
	popq	%rbp
	jmp	__ZN4core3fmt3num53_$LT$impl$u20$core..fmt..LowerHex$u20$for$u20$u64$GT$3fmt17h45355469eb7ddf8bE
LBB9_1:
Ltmp126:
	.loc	34 151 27
	movq	%rbx, %rdi
	callq	__ZN4core3fmt9Formatter15debug_upper_hex17hf8fda15ec43a1e68E
	.loc	34 154 21
	movq	%r14, %rdi
	movq	%rbx, %rsi
	.loc	34 151 24
	testb	%al, %al
	je	LBB9_4
Ltmp127:
	.loc	34 152 21
	popq	%rbx
Ltmp128:
	popq	%r14
Ltmp129:
	popq	%rbp
	jmp	__ZN4core3fmt3num53_$LT$impl$u20$core..fmt..UpperHex$u20$for$u20$u64$GT$3fmt17ha26765e3e26c1816E
LBB9_4:
Ltmp130:
	.loc	34 154 21
	popq	%rbx
Ltmp131:
	popq	%r14
Ltmp132:
	popq	%rbp
	jmp	__ZN4core3fmt3num3imp52_$LT$impl$u20$core..fmt..Display$u20$for$u20$u64$GT$3fmt17hb00db9d5e1e54df6E
Ltmp133:
Lfunc_end9:
	.cfi_endproc

	.p2align	4, 0x90
__ZN42_$LT$$RF$T$u20$as$u20$core..fmt..Debug$GT$3fmt17h29e949cf8f167d95E:
Lfunc_begin10:
	.loc	28 1973 0
	.cfi_startproc
	pushq	%rbp
	.cfi_def_cfa_offset 16
	.cfi_offset %rbp, -16
	movq	%rsp, %rbp
	.cfi_def_cfa_register %rbp
Ltmp134:
	.loc	28 1973 71 prologue_end
	movq	(%rdi), %rdi
Ltmp135:
	.loc	28 1973 62 is_stmt 0
	popq	%rbp
	jmp	__ZN4core3fmt5float50_$LT$impl$u20$core..fmt..Debug$u20$for$u20$f64$GT$3fmt17h45f97cf93875c48bE
Ltmp136:
Lfunc_end10:
	.cfi_endproc

	.p2align	4, 0x90
__ZN42_$LT$$RF$T$u20$as$u20$core..fmt..Debug$GT$3fmt17h34da9882a4aab05eE:
Lfunc_begin11:
	.loc	28 1973 0 is_stmt 1
	.cfi_startproc
	pushq	%rbp
	.cfi_def_cfa_offset 16
	.cfi_offset %rbp, -16
	movq	%rsp, %rbp
	.cfi_def_cfa_register %rbp
Ltmp137:
	pushq	%r14
	pushq	%rbx
	subq	$32, %rsp
	.cfi_offset %rbx, -32
	.cfi_offset %r14, -24
	.loc	28 1973 71 prologue_end
	movq	(%rdi), %rbx
Ltmp138:
	.loc	33 78 23
	leaq	l___unnamed_30(%rip), %rdx
	leaq	-40(%rbp), %r14
	movl	$15, %ecx
	movq	%r14, %rdi
Ltmp139:
	callq	__ZN4core3fmt9Formatter12debug_struct17h985c0158d1fc7193E
Ltmp140:
	.loc	33 80 5
	movq	%rbx, -24(%rbp)
Ltmp141:
	.loc	33 81 5
	addq	$8, %rbx
Ltmp142:
	.loc	33 78 23
	leaq	l___unnamed_31(%rip), %rsi
	leaq	l___unnamed_14(%rip), %r8
	leaq	-24(%rbp), %rcx
	movl	$9, %edx
	movq	%r14, %rdi
	callq	__ZN4core3fmt8builders11DebugStruct5field17h9c15dc155278eed2E
	.loc	33 81 5
	movq	%rbx, -24(%rbp)
	.loc	33 78 23
	leaq	l___unnamed_32(%rip), %rsi
	leaq	l___unnamed_13(%rip), %r8
	leaq	-24(%rbp), %rcx
	movl	$11, %edx
	movq	%r14, %rdi
	callq	__ZN4core3fmt8builders11DebugStruct5field17h9c15dc155278eed2E
	movq	%r14, %rdi
	callq	__ZN4core3fmt8builders11DebugStruct6finish17h26808393f3fed630E
Ltmp143:
	.loc	28 1973 84
	addq	$32, %rsp
	popq	%rbx
	popq	%r14
	popq	%rbp
	retq
Ltmp144:
Lfunc_end11:
	.cfi_endproc

	.p2align	4, 0x90
__ZN42_$LT$$RF$T$u20$as$u20$core..fmt..Debug$GT$3fmt17h36f7ee9eafe4dff6E:
Lfunc_begin12:
	.loc	28 1973 0
	.cfi_startproc
	pushq	%rbp
	.cfi_def_cfa_offset 16
	.cfi_offset %rbp, -16
	movq	%rsp, %rbp
	.cfi_def_cfa_register %rbp
Ltmp145:
	pushq	%r15
	pushq	%r14
	pushq	%r12
	pushq	%rbx
	subq	$32, %rsp
	.cfi_offset %rbx, -48
	.cfi_offset %r12, -40
	.cfi_offset %r14, -32
	.cfi_offset %r15, -24
	.loc	28 1973 71 prologue_end
	movq	(%rdi), %rbx
Ltmp146:
	.loc	33 88 23
	leaq	l___unnamed_33(%rip), %rdx
	leaq	-56(%rbp), %r15
	movl	$15, %ecx
	movq	%r15, %rdi
Ltmp147:
	callq	__ZN4core3fmt9Formatter12debug_struct17h985c0158d1fc7193E
Ltmp148:
	.loc	33 90 5
	movq	%rbx, -40(%rbp)
Ltmp149:
	.loc	33 91 5
	leaq	8(%rbx), %r12
	.loc	33 92 5
	addq	$16, %rbx
Ltmp150:
	.loc	33 88 23
	leaq	l___unnamed_34(%rip), %rsi
	leaq	l___unnamed_14(%rip), %r14
	leaq	-40(%rbp), %rcx
	movl	$5, %edx
	movq	%r15, %rdi
	movq	%r14, %r8
	callq	__ZN4core3fmt8builders11DebugStruct5field17h9c15dc155278eed2E
	.loc	33 91 5
	movq	%r12, -40(%rbp)
	.loc	33 88 23
	leaq	l___unnamed_35(%rip), %rsi
	leaq	-40(%rbp), %rcx
	movl	$1, %edx
	movq	%r15, %rdi
	movq	%r14, %r8
	callq	__ZN4core3fmt8builders11DebugStruct5field17h9c15dc155278eed2E
	.loc	33 92 5
	movq	%rbx, -40(%rbp)
	.loc	33 88 23
	leaq	l___unnamed_36(%rip), %rsi
	leaq	-40(%rbp), %rcx
	movl	$1, %edx
	movq	%r15, %rdi
	movq	%r14, %r8
	callq	__ZN4core3fmt8builders11DebugStruct5field17h9c15dc155278eed2E
	movq	%r15, %rdi
	callq	__ZN4core3fmt8builders11DebugStruct6finish17h26808393f3fed630E
Ltmp151:
	.loc	28 1973 84
	addq	$32, %rsp
	popq	%rbx
	popq	%r12
	popq	%r14
	popq	%r15
	popq	%rbp
	retq
Ltmp152:
Lfunc_end12:
	.cfi_endproc

	.p2align	4, 0x90
__ZN42_$LT$$RF$T$u20$as$u20$core..fmt..Debug$GT$3fmt17h3be8736cead3bae4E:
Lfunc_begin13:
	.loc	28 1973 0
	.cfi_startproc
	pushq	%rbp
	.cfi_def_cfa_offset 16
	.cfi_offset %rbp, -16
	movq	%rsp, %rbp
	.cfi_def_cfa_register %rbp
Ltmp153:
	.loc	28 1973 71 prologue_end
	movq	(%rdi), %rdi
Ltmp154:
	.loc	28 1973 62 is_stmt 0
	popq	%rbp
	jmp	__ZN74_$LT$rand..distributions..gamma..GammaRepr$u20$as$u20$core..fmt..Debug$GT$3fmt17h82b080e6be8bc08bE
Ltmp155:
Lfunc_end13:
	.cfi_endproc

	.p2align	4, 0x90
__ZN42_$LT$$RF$T$u20$as$u20$core..fmt..Debug$GT$3fmt17h5f468ef8826929deE:
Lfunc_begin14:
	.loc	28 1973 0 is_stmt 1
	.cfi_startproc
	pushq	%rbp
	.cfi_def_cfa_offset 16
	.cfi_offset %rbp, -16
	movq	%rsp, %rbp
	.cfi_def_cfa_register %rbp
Ltmp156:
	pushq	%r14
	pushq	%rbx
	subq	$32, %rsp
	.cfi_offset %rbx, -32
	.cfi_offset %r14, -24
	.loc	28 1973 71 prologue_end
	movq	(%rdi), %rbx
Ltmp157:
	.loc	33 52 23
	leaq	l___unnamed_37(%rip), %rdx
	leaq	-40(%rbp), %r14
	movl	$5, %ecx
	movq	%r14, %rdi
Ltmp158:
	callq	__ZN4core3fmt9Formatter12debug_struct17h985c0158d1fc7193E
Ltmp159:
	.loc	33 54 5
	movq	%rbx, -24(%rbp)
	.loc	33 52 23
	leaq	L___unnamed_38(%rip), %rsi
	leaq	l___unnamed_10(%rip), %r8
	leaq	-24(%rbp), %rcx
	movl	$4, %edx
	movq	%r14, %rdi
	callq	__ZN4core3fmt8builders11DebugStruct5field17h9c15dc155278eed2E
	movq	%r14, %rdi
	callq	__ZN4core3fmt8builders11DebugStruct6finish17h26808393f3fed630E
Ltmp160:
	.loc	28 1973 84
	addq	$32, %rsp
	popq	%rbx
	popq	%r14
	popq	%rbp
	retq
Ltmp161:
Lfunc_end14:
	.cfi_endproc

	.p2align	4, 0x90
__ZN42_$LT$$RF$T$u20$as$u20$core..fmt..Debug$GT$3fmt17h64d11ce2d34537c6E:
Lfunc_begin15:
	.loc	28 1973 0
	.cfi_startproc
	pushq	%rbp
	.cfi_def_cfa_offset 16
	.cfi_offset %rbp, -16
	movq	%rsp, %rbp
	.cfi_def_cfa_register %rbp
	pushq	%r14
	pushq	%rbx
	.cfi_offset %rbx, -32
	.cfi_offset %r14, -24
	movq	%rsi, %rbx
Ltmp162:
	.loc	28 1973 71 prologue_end
	movq	(%rdi), %r14
Ltmp163:
	.loc	34 149 20
	movq	%rsi, %rdi
Ltmp164:
	callq	__ZN4core3fmt9Formatter15debug_lower_hex17h8530fbaeba13f4d9E
	.loc	34 149 17 is_stmt 0
	testb	%al, %al
	je	LBB15_1
Ltmp165:
	.loc	34 150 21 is_stmt 1
	movq	%r14, %rdi
	movq	%rbx, %rsi
	popq	%rbx
Ltmp166:
	popq	%r14
Ltmp167:
	popq	%rbp
	jmp	__ZN4core3fmt3num53_$LT$impl$u20$core..fmt..LowerHex$u20$for$u20$u32$GT$3fmt17h6f8627d2574097eeE
LBB15_1:
Ltmp168:
	.loc	34 151 27
	movq	%rbx, %rdi
	callq	__ZN4core3fmt9Formatter15debug_upper_hex17hf8fda15ec43a1e68E
	.loc	34 154 21
	movq	%r14, %rdi
	movq	%rbx, %rsi
	.loc	34 151 24
	testb	%al, %al
	je	LBB15_4
Ltmp169:
	.loc	34 152 21
	popq	%rbx
Ltmp170:
	popq	%r14
Ltmp171:
	popq	%rbp
	jmp	__ZN4core3fmt3num53_$LT$impl$u20$core..fmt..UpperHex$u20$for$u20$u32$GT$3fmt17hfea5795b8018329eE
LBB15_4:
Ltmp172:
	.loc	34 154 21
	popq	%rbx
Ltmp173:
	popq	%r14
Ltmp174:
	popq	%rbp
	jmp	__ZN4core3fmt3num3imp52_$LT$impl$u20$core..fmt..Display$u20$for$u20$u32$GT$3fmt17h8cb3163b2d7e102aE
Ltmp175:
Lfunc_end15:
	.cfi_endproc
	.file	35 "/rustc/a74d1862d4d87a56244958416fd05976c58ca1a8/src/libcore/num/mod.rs"

	.p2align	4, 0x90
__ZN42_$LT$$RF$T$u20$as$u20$core..fmt..Debug$GT$3fmt17h87bb586b30a9072fE:
Lfunc_begin16:
	.loc	28 1973 0
	.cfi_startproc
	pushq	%rbp
	.cfi_def_cfa_offset 16
	.cfi_offset %rbp, -16
	movq	%rsp, %rbp
	.cfi_def_cfa_register %rbp
Ltmp176:
	pushq	%r14
	pushq	%rbx
	subq	$32, %rsp
	.cfi_offset %rbx, -32
	.cfi_offset %r14, -24
	.loc	28 1973 71 prologue_end
	movq	(%rdi), %rbx
Ltmp177:
	.loc	33 200 23
	leaq	l___unnamed_39(%rip), %rdx
	leaq	-40(%rbp), %r14
	movl	$10, %ecx
	movq	%r14, %rdi
Ltmp178:
	callq	__ZN4core3fmt9Formatter12debug_struct17h985c0158d1fc7193E
Ltmp179:
	.loc	33 202 5
	movq	%rbx, -24(%rbp)
	.loc	33 200 23
	leaq	L___unnamed_38(%rip), %rsi
	leaq	l___unnamed_15(%rip), %r8
	leaq	-24(%rbp), %rcx
	movl	$4, %edx
	movq	%r14, %rdi
	callq	__ZN4core3fmt8builders11DebugStruct5field17h9c15dc155278eed2E
	movq	%r14, %rdi
	callq	__ZN4core3fmt8builders11DebugStruct6finish17h26808393f3fed630E
Ltmp180:
	.loc	28 1973 84
	addq	$32, %rsp
	popq	%rbx
	popq	%r14
	popq	%rbp
	retq
Ltmp181:
Lfunc_end16:
	.cfi_endproc

	.p2align	4, 0x90
__ZN42_$LT$$RF$T$u20$as$u20$core..fmt..Debug$GT$3fmt17h89b81ddbbc34e3b1E:
Lfunc_begin17:
	.loc	28 1973 0
	.cfi_startproc
	pushq	%rbp
	.cfi_def_cfa_offset 16
	.cfi_offset %rbp, -16
	movq	%rsp, %rbp
	.cfi_def_cfa_register %rbp
	pushq	%r14
	pushq	%rbx
	.cfi_offset %rbx, -32
	.cfi_offset %r14, -24
	movq	%rsi, %rbx
Ltmp182:
	.loc	28 1973 71 prologue_end
	movq	(%rdi), %r14
Ltmp183:
	.loc	34 149 20
	movq	%rsi, %rdi
Ltmp184:
	callq	__ZN4core3fmt9Formatter15debug_lower_hex17h8530fbaeba13f4d9E
	.loc	34 149 17 is_stmt 0
	testb	%al, %al
	je	LBB17_1
Ltmp185:
	.loc	34 150 21 is_stmt 1
	movq	%r14, %rdi
	movq	%rbx, %rsi
	popq	%rbx
Ltmp186:
	popq	%r14
Ltmp187:
	popq	%rbp
	jmp	__ZN4core3fmt3num55_$LT$impl$u20$core..fmt..LowerHex$u20$for$u20$usize$GT$3fmt17hbf7dc8c1d7fa021dE
LBB17_1:
Ltmp188:
	.loc	34 151 27
	movq	%rbx, %rdi
	callq	__ZN4core3fmt9Formatter15debug_upper_hex17hf8fda15ec43a1e68E
	.loc	34 154 21
	movq	%r14, %rdi
	movq	%rbx, %rsi
	.loc	34 151 24
	testb	%al, %al
	je	LBB17_4
Ltmp189:
	.loc	34 152 21
	popq	%rbx
Ltmp190:
	popq	%r14
Ltmp191:
	popq	%rbp
	jmp	__ZN4core3fmt3num55_$LT$impl$u20$core..fmt..UpperHex$u20$for$u20$usize$GT$3fmt17hf20a4f369caf234bE
LBB17_4:
Ltmp192:
	.loc	34 154 21
	popq	%rbx
Ltmp193:
	popq	%r14
Ltmp194:
	popq	%rbp
	jmp	__ZN4core3fmt3num3imp54_$LT$impl$u20$core..fmt..Display$u20$for$u20$usize$GT$3fmt17h89ce3155a90f2edfE
Ltmp195:
Lfunc_end17:
	.cfi_endproc

	.p2align	4, 0x90
__ZN42_$LT$$RF$T$u20$as$u20$core..fmt..Debug$GT$3fmt17h948a1d2d0bd33fc1E:
Lfunc_begin18:
	.loc	28 1973 0
	.cfi_startproc
	pushq	%rbp
	.cfi_def_cfa_offset 16
	.cfi_offset %rbp, -16
	movq	%rsp, %rbp
	.cfi_def_cfa_register %rbp
Ltmp196:
	pushq	%r14
	pushq	%rbx
	subq	$32, %rsp
	.cfi_offset %rbx, -32
	.cfi_offset %r14, -24
	.loc	28 1973 71 prologue_end
	movq	(%rdi), %rbx
Ltmp197:
	.loc	25 776 23
	leaq	l___unnamed_40(%rip), %rdx
	leaq	-40(%rbp), %r14
	movl	$6, %ecx
	movq	%r14, %rdi
Ltmp198:
	callq	__ZN4core3fmt9Formatter12debug_struct17h985c0158d1fc7193E
Ltmp199:
	.loc	25 778 5
	movq	%rbx, -24(%rbp)
	.loc	25 776 23
	leaq	l___unnamed_41(%rip), %rsi
	leaq	l___unnamed_24(%rip), %r8
	leaq	-24(%rbp), %rcx
	movl	$3, %edx
	movq	%r14, %rdi
	callq	__ZN4core3fmt8builders11DebugStruct5field17h9c15dc155278eed2E
	movq	%r14, %rdi
	callq	__ZN4core3fmt8builders11DebugStruct6finish17h26808393f3fed630E
Ltmp200:
	.loc	28 1973 84
	addq	$32, %rsp
	popq	%rbx
	popq	%r14
	popq	%rbp
	retq
Ltmp201:
Lfunc_end18:
	.cfi_endproc

	.p2align	4, 0x90
__ZN42_$LT$$RF$T$u20$as$u20$core..fmt..Debug$GT$3fmt17hb102dc2e367e21ecE:
Lfunc_begin19:
	.loc	28 1973 0
	.cfi_startproc
	pushq	%rbp
	.cfi_def_cfa_offset 16
	.cfi_offset %rbp, -16
	movq	%rsp, %rbp
	.cfi_def_cfa_register %rbp
Ltmp202:
	pushq	%r15
	pushq	%r14
	pushq	%rbx
	subq	$24, %rsp
	.cfi_offset %rbx, -40
	.cfi_offset %r14, -32
	.cfi_offset %r15, -24
	.loc	28 1973 71 prologue_end
	movq	(%rdi), %rbx
Ltmp203:
	.file	36 "/Users/yingyuhang/.cargo/registry/src/github.com-1ecc6299db9ec823/rand-0.4.6/src/distributions/normal.rs"
	.loc	36 91 23
	leaq	l___unnamed_42(%rip), %rdx
	leaq	-48(%rbp), %r15
	movl	$6, %ecx
	movq	%r15, %rdi
Ltmp204:
	callq	__ZN4core3fmt9Formatter12debug_struct17h985c0158d1fc7193E
Ltmp205:
	.loc	36 93 5
	movq	%rbx, -32(%rbp)
Ltmp206:
	.loc	36 94 5
	addq	$8, %rbx
Ltmp207:
	.loc	36 91 23
	leaq	L___unnamed_43(%rip), %rsi
	leaq	l___unnamed_14(%rip), %r14
	leaq	-32(%rbp), %rcx
	movl	$4, %edx
	movq	%r15, %rdi
	movq	%r14, %r8
	callq	__ZN4core3fmt8builders11DebugStruct5field17h9c15dc155278eed2E
	.loc	36 94 5
	movq	%rbx, -32(%rbp)
	.loc	36 91 23
	leaq	l___unnamed_44(%rip), %rsi
	leaq	-32(%rbp), %rcx
	movl	$7, %edx
	movq	%r15, %rdi
	movq	%r14, %r8
	callq	__ZN4core3fmt8builders11DebugStruct5field17h9c15dc155278eed2E
	movq	%r15, %rdi
	callq	__ZN4core3fmt8builders11DebugStruct6finish17h26808393f3fed630E
Ltmp208:
	.loc	28 1973 84
	addq	$24, %rsp
	popq	%rbx
	popq	%r14
	popq	%r15
	popq	%rbp
	retq
Ltmp209:
Lfunc_end19:
	.cfi_endproc

	.p2align	4, 0x90
__ZN42_$LT$$RF$T$u20$as$u20$core..fmt..Debug$GT$3fmt17hbf91644de913a9d5E:
Lfunc_begin20:
	.loc	28 1973 0
	.cfi_startproc
	pushq	%rbp
	.cfi_def_cfa_offset 16
	.cfi_offset %rbp, -16
	movq	%rsp, %rbp
	.cfi_def_cfa_register %rbp
	subq	$48, %rsp
	movq	%rsi, %rdi
Ltmp210:
	.loc	28 328 9 prologue_end
	leaq	l___unnamed_45(%rip), %rax
Ltmp211:
	movq	%rax, -48(%rbp)
	movq	$1, -40(%rbp)
	movq	$0, -32(%rbp)
	leaq	l___unnamed_46(%rip), %rax
Ltmp212:
	movq	%rax, -16(%rbp)
	movq	$0, -8(%rbp)
	leaq	-48(%rbp), %rsi
Ltmp213:
	.loc	5 267 9
	callq	__ZN4core3fmt9Formatter9write_fmt17h3dc2bf45afed3069E
Ltmp214:
	.loc	28 1973 84
	addq	$48, %rsp
	popq	%rbp
	retq
Ltmp215:
Lfunc_end20:
	.cfi_endproc

	.p2align	4, 0x90
__ZN42_$LT$$RF$T$u20$as$u20$core..fmt..Debug$GT$3fmt17hd48a7f0f1c3048ffE:
Lfunc_begin21:
	.loc	28 1973 0
	.cfi_startproc
	pushq	%rbp
	.cfi_def_cfa_offset 16
	.cfi_offset %rbp, -16
	movq	%rsp, %rbp
	.cfi_def_cfa_register %rbp
Ltmp216:
	pushq	%r15
	pushq	%r14
	pushq	%r12
	pushq	%rbx
	subq	$32, %rsp
	.cfi_offset %rbx, -48
	.cfi_offset %r12, -40
	.cfi_offset %r14, -32
	.cfi_offset %r15, -24
	.loc	28 1973 71 prologue_end
	movq	(%rdi), %rbx
Ltmp217:
	.loc	28 0 71 is_stmt 0
	leaq	-56(%rbp), %r12
Ltmp218:
	.loc	28 2162 9 is_stmt 1
	movq	%r12, %rdi
Ltmp219:
	callq	__ZN4core3fmt9Formatter10debug_list17hd054f0986422feb9E
Ltmp220:
	.file	37 "/rustc/a74d1862d4d87a56244958416fd05976c58ca1a8/src/libcore/fmt/builders.rs"
	.loc	37 661 22
	movq	%rbx, -40(%rbp)
Ltmp221:
	.loc	37 662 13
	leaq	l___unnamed_3(%rip), %r14
	leaq	-40(%rbp), %r15
	movq	%r12, %rdi
	movq	%r15, %rsi
	movq	%r14, %rdx
	callq	__ZN4core3fmt8builders9DebugList5entry17h5c0dec54538196dfE
Ltmp222:
	.file	38 "/rustc/a74d1862d4d87a56244958416fd05976c58ca1a8/src/libcore/ptr/mut_ptr.rs"
	.loc	38 152 9
	leaq	4(%rbx), %rax
Ltmp223:
	.loc	37 661 22
	movq	%rax, -40(%rbp)
Ltmp224:
	.loc	37 662 13
	movq	%r12, %rdi
	movq	%r15, %rsi
	movq	%r14, %rdx
	callq	__ZN4core3fmt8builders9DebugList5entry17h5c0dec54538196dfE
Ltmp225:
	.loc	38 152 9
	leaq	8(%rbx), %rax
Ltmp226:
	.loc	37 661 22
	movq	%rax, -40(%rbp)
Ltmp227:
	.loc	37 662 13
	movq	%r12, %rdi
	movq	%r15, %rsi
	movq	%r14, %rdx
	callq	__ZN4core3fmt8builders9DebugList5entry17h5c0dec54538196dfE
Ltmp228:
	.loc	38 152 9
	leaq	12(%rbx), %rax
Ltmp229:
	.loc	37 661 22
	movq	%rax, -40(%rbp)
Ltmp230:
	.loc	37 662 13
	movq	%r12, %rdi
	movq	%r15, %rsi
	movq	%r14, %rdx
	callq	__ZN4core3fmt8builders9DebugList5entry17h5c0dec54538196dfE
Ltmp231:
	.loc	38 152 9
	leaq	16(%rbx), %rax
Ltmp232:
	.loc	37 661 22
	movq	%rax, -40(%rbp)
Ltmp233:
	.loc	37 662 13
	movq	%r12, %rdi
	movq	%r15, %rsi
	movq	%r14, %rdx
	callq	__ZN4core3fmt8builders9DebugList5entry17h5c0dec54538196dfE
Ltmp234:
	.loc	38 152 9
	leaq	20(%rbx), %rax
Ltmp235:
	.loc	37 661 22
	movq	%rax, -40(%rbp)
Ltmp236:
	.loc	37 662 13
	movq	%r12, %rdi
	movq	%r15, %rsi
	movq	%r14, %rdx
	callq	__ZN4core3fmt8builders9DebugList5entry17h5c0dec54538196dfE
Ltmp237:
	.loc	38 152 9
	leaq	24(%rbx), %rax
Ltmp238:
	.loc	37 661 22
	movq	%rax, -40(%rbp)
Ltmp239:
	.loc	37 662 13
	movq	%r12, %rdi
	movq	%r15, %rsi
	movq	%r14, %rdx
	callq	__ZN4core3fmt8builders9DebugList5entry17h5c0dec54538196dfE
Ltmp240:
	.loc	38 152 9
	leaq	28(%rbx), %rax
Ltmp241:
	.loc	37 661 22
	movq	%rax, -40(%rbp)
Ltmp242:
	.loc	37 662 13
	movq	%r12, %rdi
	movq	%r15, %rsi
	movq	%r14, %rdx
	callq	__ZN4core3fmt8builders9DebugList5entry17h5c0dec54538196dfE
Ltmp243:
	.loc	38 152 9
	leaq	32(%rbx), %rax
Ltmp244:
	.loc	37 661 22
	movq	%rax, -40(%rbp)
Ltmp245:
	.loc	37 662 13
	movq	%r12, %rdi
	movq	%r15, %rsi
	movq	%r14, %rdx
	callq	__ZN4core3fmt8builders9DebugList5entry17h5c0dec54538196dfE
Ltmp246:
	.loc	38 152 9
	leaq	36(%rbx), %rax
Ltmp247:
	.loc	37 661 22
	movq	%rax, -40(%rbp)
Ltmp248:
	.loc	37 662 13
	movq	%r12, %rdi
	movq	%r15, %rsi
	movq	%r14, %rdx
	callq	__ZN4core3fmt8builders9DebugList5entry17h5c0dec54538196dfE
Ltmp249:
	.loc	38 152 9
	leaq	40(%rbx), %rax
Ltmp250:
	.loc	37 661 22
	movq	%rax, -40(%rbp)
Ltmp251:
	.loc	37 662 13
	movq	%r12, %rdi
	movq	%r15, %rsi
	movq	%r14, %rdx
	callq	__ZN4core3fmt8builders9DebugList5entry17h5c0dec54538196dfE
Ltmp252:
	.loc	38 152 9
	leaq	44(%rbx), %rax
Ltmp253:
	.loc	37 661 22
	movq	%rax, -40(%rbp)
Ltmp254:
	.loc	37 662 13
	movq	%r12, %rdi
	movq	%r15, %rsi
	movq	%r14, %rdx
	callq	__ZN4core3fmt8builders9DebugList5entry17h5c0dec54538196dfE
Ltmp255:
	.loc	38 152 9
	leaq	48(%rbx), %rax
Ltmp256:
	.loc	37 661 22
	movq	%rax, -40(%rbp)
Ltmp257:
	.loc	37 662 13
	movq	%r12, %rdi
	movq	%r15, %rsi
	movq	%r14, %rdx
	callq	__ZN4core3fmt8builders9DebugList5entry17h5c0dec54538196dfE
Ltmp258:
	.loc	38 152 9
	leaq	52(%rbx), %rax
Ltmp259:
	.loc	37 661 22
	movq	%rax, -40(%rbp)
Ltmp260:
	.loc	37 662 13
	movq	%r12, %rdi
	movq	%r15, %rsi
	movq	%r14, %rdx
	callq	__ZN4core3fmt8builders9DebugList5entry17h5c0dec54538196dfE
Ltmp261:
	.loc	38 152 9
	leaq	56(%rbx), %rax
Ltmp262:
	.loc	37 661 22
	movq	%rax, -40(%rbp)
Ltmp263:
	.loc	37 662 13
	movq	%r12, %rdi
	movq	%r15, %rsi
	movq	%r14, %rdx
	callq	__ZN4core3fmt8builders9DebugList5entry17h5c0dec54538196dfE
Ltmp264:
	.loc	38 152 9
	addq	$60, %rbx
Ltmp265:
	.loc	37 661 22
	movq	%rbx, -40(%rbp)
Ltmp266:
	.loc	37 662 13
	movq	%r12, %rdi
	movq	%r15, %rsi
	movq	%r14, %rdx
	callq	__ZN4core3fmt8builders9DebugList5entry17h5c0dec54538196dfE
Ltmp267:
	.loc	28 2162 9
	movq	%r12, %rdi
	callq	__ZN4core3fmt8builders9DebugList6finish17h3635bd6af9b1c5a6E
Ltmp268:
	.loc	28 1973 84
	addq	$32, %rsp
	popq	%rbx
Ltmp269:
	popq	%r12
	popq	%r14
	popq	%r15
	popq	%rbp
	retq
Ltmp270:
Lfunc_end21:
	.cfi_endproc
	.file	39 "/rustc/a74d1862d4d87a56244958416fd05976c58ca1a8/src/libcore/array/mod.rs"

	.p2align	4, 0x90
__ZN42_$LT$$RF$T$u20$as$u20$core..fmt..Debug$GT$3fmt17hda2dc0a1726ab1baE:
Lfunc_begin22:
	.loc	28 1973 0
	.cfi_startproc
	pushq	%rbp
	.cfi_def_cfa_offset 16
	.cfi_offset %rbp, -16
	movq	%rsp, %rbp
	.cfi_def_cfa_register %rbp
Ltmp271:
	pushq	%r14
	pushq	%rbx
	subq	$32, %rsp
	.cfi_offset %rbx, -32
	.cfi_offset %r14, -24
	.loc	28 1973 71 prologue_end
	movq	(%rdi), %rbx
Ltmp272:
	.file	40 "/Users/yingyuhang/.cargo/registry/src/github.com-1ecc6299db9ec823/rand-0.4.6/src/distributions/exponential.rs"
	.loc	40 74 23
	leaq	l___unnamed_47(%rip), %rdx
	leaq	-40(%rbp), %r14
	movl	$3, %ecx
	movq	%r14, %rdi
Ltmp273:
	callq	__ZN4core3fmt9Formatter12debug_struct17h985c0158d1fc7193E
Ltmp274:
	.loc	40 77 5
	movq	%rbx, -24(%rbp)
	.loc	40 74 23
	leaq	l___unnamed_48(%rip), %rsi
	leaq	l___unnamed_14(%rip), %r8
	leaq	-24(%rbp), %rcx
	movl	$14, %edx
	movq	%r14, %rdi
	callq	__ZN4core3fmt8builders11DebugStruct5field17h9c15dc155278eed2E
	movq	%r14, %rdi
	callq	__ZN4core3fmt8builders11DebugStruct6finish17h26808393f3fed630E
Ltmp275:
	.loc	28 1973 84
	addq	$32, %rsp
	popq	%rbx
	popq	%r14
	popq	%rbp
	retq
Ltmp276:
Lfunc_end22:
	.cfi_endproc

	.p2align	4, 0x90
__ZN42_$LT$$RF$T$u20$as$u20$core..fmt..Debug$GT$3fmt17hfa0f3adb468e5dd0E:
Lfunc_begin23:
	.loc	28 1973 0
	.cfi_startproc
	.cfi_personality 155, _rust_eh_personality
	.cfi_lsda 16, Lexception1
	pushq	%rbp
	.cfi_def_cfa_offset 16
	.cfi_offset %rbp, -16
	movq	%rsp, %rbp
	.cfi_def_cfa_register %rbp
Ltmp291:
	pushq	%rbx
	subq	$40, %rsp
	.cfi_offset %rbx, -24
	.loc	28 1973 71 prologue_end
	movq	(%rdi), %rax
	.loc	28 1973 62 is_stmt 0
	movq	(%rax), %rax
Ltmp292:
	.loc	24 1162 17 is_stmt 1
	movq	16(%rax), %rcx
Ltmp293:
	.loc	35 1247 17
	incq	%rcx
Ltmp294:
	.loc	24 643 5
	testq	%rcx, %rcx
Ltmp295:
	.loc	24 1163 9
	jle	LBB23_1
Ltmp296:
	.loc	14 2058 5
	movq	%rcx, 16(%rax)
Ltmp297:
	.loc	26 0 0 is_stmt 0
	leaq	16(%rax), %rcx
Ltmp298:
	.loc	24 832 27 is_stmt 1
	addq	$24, %rax
Ltmp299:
	.loc	28 2191 16
	movq	%rax, -24(%rbp)
	movq	%rcx, -16(%rbp)
Ltmp284:
Ltmp300:
	.loc	28 2191 27 is_stmt 0
	leaq	l___unnamed_49(%rip), %rdx
	leaq	-40(%rbp), %rdi
Ltmp301:
	movl	$7, %ecx
	callq	__ZN4core3fmt9Formatter12debug_struct17h985c0158d1fc7193E
Ltmp302:
Ltmp285:
Ltmp286:
	leaq	l___unnamed_50(%rip), %rsi
	leaq	l___unnamed_8(%rip), %r8
	leaq	-40(%rbp), %rdi
	leaq	-24(%rbp), %rcx
	movl	$5, %edx
	callq	__ZN4core3fmt8builders11DebugStruct5field17h9c15dc155278eed2E
Ltmp287:
Ltmp288:
	movq	%rax, %rdi
	callq	__ZN4core3fmt8builders11DebugStruct6finish17h26808393f3fed630E
Ltmp289:
Ltmp303:
	.loc	27 178 1 is_stmt 1
	movq	-16(%rbp), %rcx
Ltmp304:
	.loc	14 2058 5
	decq	(%rcx)
Ltmp305:
	.loc	28 1973 84
	addq	$40, %rsp
	popq	%rbx
	popq	%rbp
	retq
Ltmp306:
LBB23_1:
Ltmp277:
	.loc	28 2203 17
	leaq	l___unnamed_49(%rip), %rdx
	leaq	-40(%rbp), %rdi
Ltmp307:
	movl	$7, %ecx
	callq	__ZN4core3fmt9Formatter12debug_struct17h985c0158d1fc7193E
Ltmp308:
Ltmp278:
Ltmp279:
	leaq	l___unnamed_50(%rip), %rsi
	leaq	l___unnamed_46(%rip), %rcx
	leaq	l___unnamed_7(%rip), %r8
	leaq	-40(%rbp), %rdi
	movl	$5, %edx
	callq	__ZN4core3fmt8builders11DebugStruct5field17h9c15dc155278eed2E
Ltmp280:
Ltmp281:
	movq	%rax, %rdi
	callq	__ZN4core3fmt8builders11DebugStruct6finish17h26808393f3fed630E
Ltmp282:
Ltmp309:
	.loc	28 1973 84
	addq	$40, %rsp
	popq	%rbx
	popq	%rbp
	retq
LBB23_9:
Ltmp283:
	.loc	28 0 84 is_stmt 0
	movq	%rax, %rbx
	movq	%rbx, %rdi
	callq	__Unwind_Resume
	ud2
LBB23_11:
Ltmp290:
	movq	%rax, %rbx
Ltmp310:
	leaq	-24(%rbp), %rdi
Ltmp311:
	.loc	28 2191 85 is_stmt 1
	callq	__ZN4core3ptr13drop_in_place17h310ee1bd5f1a201fE
	movq	%rbx, %rdi
	callq	__Unwind_Resume
	ud2
Ltmp312:
Lfunc_end23:
	.cfi_endproc
	.section	__TEXT,__gcc_except_tab
	.p2align	2
GCC_except_table23:
Lexception1:
	.byte	255
	.byte	255
	.byte	1
	.uleb128 Lcst_end1-Lcst_begin1
Lcst_begin1:
	.uleb128 Ltmp284-Lfunc_begin23
	.uleb128 Ltmp289-Ltmp284
	.uleb128 Ltmp290-Lfunc_begin23
	.byte	0
	.uleb128 Ltmp277-Lfunc_begin23
	.uleb128 Ltmp282-Ltmp277
	.uleb128 Ltmp283-Lfunc_begin23
	.byte	0
	.uleb128 Ltmp282-Lfunc_begin23
	.uleb128 Lfunc_end23-Ltmp282
	.byte	0
	.byte	0
Lcst_end1:
	.p2align	2

	.section	__TEXT,__text,regular,pure_instructions
	.p2align	4, 0x90
__ZN42_$LT$$RF$T$u20$as$u20$core..fmt..Debug$GT$3fmt17hfd1aaf64bc1da2ecE:
Lfunc_begin24:
	.loc	28 1973 0
	.cfi_startproc
	pushq	%rbp
	.cfi_def_cfa_offset 16
	.cfi_offset %rbp, -16
	movq	%rsp, %rbp
	.cfi_def_cfa_register %rbp
Ltmp313:
	pushq	%rbx
	subq	$24, %rsp
	.cfi_offset %rbx, -24
Ltmp314:
	.loc	25 848 10 prologue_end
	leaq	l___unnamed_51(%rip), %rdx
	leaq	-32(%rbp), %rbx
	movl	$17, %ecx
	movq	%rbx, %rdi
Ltmp315:
	callq	__ZN4core3fmt9Formatter11debug_tuple17h15ca25ad759edd1cE
Ltmp316:
	.loc	25 848 10 is_stmt 0
	movq	%rbx, %rdi
	callq	__ZN4core3fmt8builders10DebugTuple6finish17h68acf09c6f6593f2E
Ltmp317:
	.loc	28 1973 84 is_stmt 1
	addq	$24, %rsp
	popq	%rbx
	popq	%rbp
	retq
Ltmp318:
Lfunc_end24:
	.cfi_endproc

	.p2align	4, 0x90
__ZN44_$LT$$RF$T$u20$as$u20$core..fmt..Display$GT$3fmt17h722677d7fe50df2aE:
Lfunc_begin25:
	.loc	28 1973 0
	.cfi_startproc
	pushq	%rbp
	.cfi_def_cfa_offset 16
	.cfi_offset %rbp, -16
	movq	%rsp, %rbp
	.cfi_def_cfa_register %rbp
	movq	%rsi, %rdx
Ltmp319:
	.loc	28 1973 71 prologue_end
	movq	(%rdi), %rax
	movq	8(%rdi), %rsi
	.loc	28 1973 62 is_stmt 0
	movq	%rax, %rdi
Ltmp320:
	popq	%rbp
	jmp	__ZN42_$LT$str$u20$as$u20$core..fmt..Display$GT$3fmt17hd4dee1c1c4ccf892E
Ltmp321:
Lfunc_end25:
	.cfi_endproc

	.p2align	4, 0x90
__ZN4core3ptr13drop_in_place17h033f595503de6f52E:
Lfunc_begin26:
	.loc	27 178 0 is_stmt 1
	.cfi_startproc
	pushq	%rbp
	.cfi_def_cfa_offset 16
	.cfi_offset %rbp, -16
	movq	%rsp, %rbp
	.cfi_def_cfa_register %rbp
Ltmp322:
	.loc	27 178 1 prologue_end
	popq	%rbp
	retq
Ltmp323:
Lfunc_end26:
	.cfi_endproc

	.p2align	4, 0x90
__ZN4core3ptr13drop_in_place17h310ee1bd5f1a201fE:
Lfunc_begin27:
	.loc	27 178 0
	.cfi_startproc
	pushq	%rbp
	.cfi_def_cfa_offset 16
	.cfi_offset %rbp, -16
	movq	%rsp, %rbp
	.cfi_def_cfa_register %rbp
Ltmp324:
	.loc	27 178 1 prologue_end
	movq	8(%rdi), %rax
Ltmp325:
	.loc	14 2058 5
	decq	(%rax)
Ltmp326:
	.loc	27 178 1
	popq	%rbp
	retq
Ltmp327:
Lfunc_end27:
	.cfi_endproc

	.p2align	4, 0x90
__ZN4core3ptr13drop_in_place17ha43a8d7586c5679aE:
Lfunc_begin28:
	.loc	27 178 0
	.cfi_startproc
	pushq	%rbp
	.cfi_def_cfa_offset 16
	.cfi_offset %rbp, -16
	movq	%rsp, %rbp
	.cfi_def_cfa_register %rbp
Ltmp328:
	.loc	26 1147 13 prologue_end
	movq	(%rdi), %rax
Ltmp329:
	.loc	14 2058 5
	decq	(%rax)
Ltmp330:
	.loc	26 1148 16
	movq	(%rdi), %rax
Ltmp331:
	cmpq	$0, (%rax)
	.loc	26 1148 13 is_stmt 0
	jne	LBB28_2
Ltmp332:
	.loc	14 2058 5 is_stmt 1
	decq	8(%rax)
Ltmp333:
	.loc	26 1156 20
	movq	(%rdi), %rdi
Ltmp334:
	cmpq	$0, 8(%rdi)
	.loc	26 1156 17 is_stmt 0
	je	LBB28_3
Ltmp335:
LBB28_2:
	.loc	27 178 1 is_stmt 1
	popq	%rbp
	retq
LBB28_3:
Ltmp336:
	.loc	9 102 5
	movl	$4168, %esi
	movl	$8, %edx
	popq	%rbp
	jmp	___rust_dealloc
Ltmp337:
Lfunc_end28:
	.cfi_endproc

	.p2align	4, 0x90
__ZN4core3ptr13drop_in_place17hb68b0ab62809349bE:
Lfunc_begin29:
	.loc	27 178 0
	.cfi_startproc
	.cfi_personality 155, _rust_eh_personality
	.cfi_lsda 16, Lexception2
	pushq	%rbp
	.cfi_def_cfa_offset 16
	.cfi_offset %rbp, -16
	movq	%rsp, %rbp
	.cfi_def_cfa_register %rbp
Ltmp341:
	pushq	%r15
	pushq	%r14
	pushq	%rbx
	pushq	%rax
	.cfi_offset %rbx, -40
	.cfi_offset %r14, -32
	.cfi_offset %r15, -24
	.loc	27 178 1 prologue_end
	cmpb	$2, (%rdi)
	jae	LBB29_1
Ltmp342:
	.loc	27 178 1 is_stmt 0
	addq	$8, %rsp
	popq	%rbx
	popq	%r14
	popq	%r15
	popq	%rbp
	retq
Ltmp343:
LBB29_1:
	.loc	27 0 1
	movq	%rdi, %r15
Ltmp344:
	.loc	27 178 1
	movq	8(%rdi), %rbx
Ltmp345:
	.loc	27 178 1
	movq	(%rbx), %rdi
	movq	8(%rbx), %rax
Ltmp338:
	callq	*(%rax)
Ltmp339:
Ltmp346:
	movq	8(%rbx), %rax
Ltmp347:
	.loc	9 282 16 is_stmt 1
	movq	8(%rax), %rsi
Ltmp348:
	.loc	9 185 12
	testq	%rsi, %rsi
	.loc	9 185 9 is_stmt 0
	je	LBB29_4
Ltmp349:
	.loc	27 178 1 is_stmt 1
	movq	(%rbx), %rdi
Ltmp350:
	.loc	9 283 17
	movq	16(%rax), %rdx
Ltmp351:
	.loc	9 102 5
	callq	___rust_dealloc
Ltmp352:
LBB29_4:
	.loc	27 178 1
	movq	8(%r15), %rdi
Ltmp353:
	.loc	9 102 5
	movl	$24, %esi
	movl	$8, %edx
	addq	$8, %rsp
	popq	%rbx
	popq	%r14
	popq	%r15
Ltmp354:
	popq	%rbp
	jmp	___rust_dealloc
Ltmp355:
LBB29_6:
Ltmp340:
	.loc	9 0 5 is_stmt 0
	movq	%rax, %r14
Ltmp356:
	.loc	27 178 1 is_stmt 1
	movq	(%rbx), %rdi
	movq	8(%rbx), %rsi
	callq	__ZN5alloc5alloc8box_free17h7283f357bdeafe6fE
Ltmp357:
	.loc	27 178 1 is_stmt 0
	movq	8(%r15), %rdi
	callq	__ZN5alloc5alloc8box_free17h04b093cd7f262af6E
	movq	%r14, %rdi
	callq	__Unwind_Resume
	ud2
Ltmp358:
Lfunc_end29:
	.cfi_endproc
	.section	__TEXT,__gcc_except_tab
	.p2align	2
GCC_except_table29:
Lexception2:
	.byte	255
	.byte	255
	.byte	1
	.uleb128 Lcst_end2-Lcst_begin2
Lcst_begin2:
	.uleb128 Ltmp338-Lfunc_begin29
	.uleb128 Ltmp339-Ltmp338
	.uleb128 Ltmp340-Lfunc_begin29
	.byte	0
	.uleb128 Ltmp339-Lfunc_begin29
	.uleb128 Lfunc_end29-Ltmp339
	.byte	0
	.byte	0
Lcst_end2:
	.p2align	2

	.section	__TEXT,__text,regular,pure_instructions
	.p2align	4, 0x90
__ZN4core3ptr13drop_in_place17hcb9929e0d9d23674E:
Lfunc_begin30:
	.loc	27 178 0 is_stmt 1
	.cfi_startproc
	pushq	%rbp
	.cfi_def_cfa_offset 16
	.cfi_offset %rbp, -16
	movq	%rsp, %rbp
	.cfi_def_cfa_register %rbp
Ltmp359:
	.loc	27 178 1 prologue_end
	cmpl	$0, (%rdi)
	je	LBB30_1
Ltmp360:
	addq	$4, %rdi
Ltmp361:
	.loc	27 178 1 is_stmt 0
	popq	%rbp
	jmp	__ZN70_$LT$std..sys..unix..fd..FileDesc$u20$as$u20$core..ops..drop..Drop$GT$4drop17hf5fce2bf4d9f8deaE
Ltmp362:
LBB30_1:
	.loc	27 178 1
	popq	%rbp
	retq
Ltmp363:
Lfunc_end30:
	.cfi_endproc

	.p2align	4, 0x90
__ZN4core3ptr13drop_in_place17hcc7d513641292a43E:
Lfunc_begin31:
	.loc	27 178 0 is_stmt 1
	.cfi_startproc
	pushq	%rbp
	.cfi_def_cfa_offset 16
	.cfi_offset %rbp, -16
	movq	%rsp, %rbp
	.cfi_def_cfa_register %rbp
Ltmp364:
	.loc	14 2058 5 prologue_end
	incq	(%rdi)
Ltmp365:
	.loc	27 178 1
	popq	%rbp
	retq
Ltmp366:
Lfunc_end31:
	.cfi_endproc

	.p2align	4, 0x90
__ZN4core3ptr13drop_in_place17he1c5cfe1141284c3E:
Lfunc_begin32:
	.loc	27 178 0
	.cfi_startproc
	pushq	%rbp
	.cfi_def_cfa_offset 16
	.cfi_offset %rbp, -16
	movq	%rsp, %rbp
	.cfi_def_cfa_register %rbp
	movq	%rdi, %rax
Ltmp367:
	.loc	27 178 1 prologue_end
	movq	(%rdi), %rdi
Ltmp368:
	.loc	11 532 16
	testq	%rdi, %rdi
Ltmp369:
	.loc	11 200 9
	je	LBB32_2
Ltmp370:
	.loc	27 0 0 is_stmt 0
	movq	8(%rax), %rsi
Ltmp371:
	.loc	11 200 9
	testq	%rsi, %rsi
	je	LBB32_2
Ltmp372:
	.loc	9 102 5 is_stmt 1
	movl	$1, %edx
	popq	%rbp
	jmp	___rust_dealloc
Ltmp373:
LBB32_2:
	.loc	27 178 1
	popq	%rbp
	retq
Ltmp374:
Lfunc_end32:
	.cfi_endproc

	.p2align	4, 0x90
__ZN5alloc5alloc8box_free17h04b093cd7f262af6E:
Lfunc_begin33:
	.loc	9 281 0
	.cfi_startproc
	pushq	%rbp
	.cfi_def_cfa_offset 16
	.cfi_offset %rbp, -16
	movq	%rsp, %rbp
	.cfi_def_cfa_register %rbp
Ltmp375:
	.loc	9 102 5 prologue_end
	movl	$24, %esi
	movl	$8, %edx
	popq	%rbp
	jmp	___rust_dealloc
Ltmp376:
Lfunc_end33:
	.cfi_endproc

	.p2align	4, 0x90
__ZN5alloc5alloc8box_free17h7283f357bdeafe6fE:
Lfunc_begin34:
	.loc	9 281 0
	.cfi_startproc
	pushq	%rbp
	.cfi_def_cfa_offset 16
	.cfi_offset %rbp, -16
	movq	%rsp, %rbp
	.cfi_def_cfa_register %rbp
	movq	%rsi, %rax
Ltmp377:
	.loc	9 282 16 prologue_end
	movq	8(%rsi), %rsi
Ltmp378:
	.loc	9 185 12
	testq	%rsi, %rsi
	.loc	9 185 9 is_stmt 0
	je	LBB34_1
Ltmp379:
	.loc	9 283 17 is_stmt 1
	movq	16(%rax), %rdx
Ltmp380:
	.loc	9 102 5
	popq	%rbp
	jmp	___rust_dealloc
Ltmp381:
LBB34_1:
	.loc	9 286 2
	popq	%rbp
	retq
Ltmp382:
Lfunc_end34:
	.cfi_endproc

	.p2align	4, 0x90
__ZN5alloc7raw_vec19RawVec$LT$T$C$A$GT$11allocate_in28_$u7b$$u7b$closure$u7d$$u7d$17h1b56f2b7001a7670E:
Lfunc_begin35:
	.loc	11 152 0
	.cfi_startproc
	pushq	%rbp
	.cfi_def_cfa_offset 16
	.cfi_offset %rbp, -16
	movq	%rsp, %rbp
	.cfi_def_cfa_register %rbp
Ltmp383:
	.loc	11 152 71 prologue_end
	callq	__ZN5alloc5alloc18handle_alloc_error17hbc0ab0ed90816c07E
Ltmp384:
Lfunc_end35:
	.cfi_endproc

	.p2align	4, 0x90
__ZN61_$LT$core..cell..Ref$LT$T$GT$$u20$as$u20$core..fmt..Debug$GT$3fmt17h8178499e2fa4b191E:
Lfunc_begin36:
	.loc	28 2211 0
	.cfi_startproc
	pushq	%rbp
	.cfi_def_cfa_offset 16
	.cfi_offset %rbp, -16
	movq	%rsp, %rbp
	.cfi_def_cfa_register %rbp
Ltmp385:
	pushq	%r15
	pushq	%r14
	pushq	%r12
	pushq	%rbx
	subq	$32, %rsp
	.cfi_offset %rbx, -48
	.cfi_offset %r12, -40
	.cfi_offset %r14, -32
	.cfi_offset %r15, -24
	.loc	24 1224 9 prologue_end
	movq	(%rdi), %rbx
Ltmp386:
	.file	41 "/Users/yingyuhang/.cargo/registry/src/github.com-1ecc6299db9ec823/rand-0.4.6/src/reseeding.rs"
	.loc	41 27 5
	leaq	4128(%rbx), %r14
Ltmp387:
	.loc	41 28 5
	leaq	4136(%rbx), %r12
Ltmp388:
	.loc	41 24 10
	leaq	l___unnamed_52(%rip), %rdx
	leaq	-56(%rbp), %r15
	movl	$12, %ecx
	movq	%r15, %rdi
Ltmp389:
	callq	__ZN4core3fmt9Formatter12debug_struct17h985c0158d1fc7193E
Ltmp390:
	.loc	41 26 5
	movq	%rbx, -40(%rbp)
	.loc	41 24 10
	leaq	l___unnamed_41(%rip), %rsi
	leaq	l___unnamed_19(%rip), %r8
	leaq	-40(%rbp), %rcx
	movl	$3, %edx
	movq	%r15, %rdi
	callq	__ZN4core3fmt8builders11DebugStruct5field17h9c15dc155278eed2E
	.loc	41 27 5
	movq	%r14, -40(%rbp)
	.loc	41 24 10
	leaq	l___unnamed_53(%rip), %rsi
	leaq	l___unnamed_20(%rip), %r14
Ltmp391:
	.loc	41 0 10 is_stmt 0
	leaq	-40(%rbp), %rcx
	.loc	41 24 10
	movl	$20, %edx
	movq	%r15, %rdi
	movq	%r14, %r8
	callq	__ZN4core3fmt8builders11DebugStruct5field17h9c15dc155278eed2E
	.loc	41 28 5 is_stmt 1
	movq	%r12, -40(%rbp)
	.loc	41 24 10
	leaq	l___unnamed_54(%rip), %rsi
	leaq	-40(%rbp), %rcx
	movl	$15, %edx
	movq	%r15, %rdi
	movq	%r14, %r8
	callq	__ZN4core3fmt8builders11DebugStruct5field17h9c15dc155278eed2E
	.loc	41 30 5
	movq	%rbx, -40(%rbp)
	.loc	41 24 10
	leaq	L___unnamed_55(%rip), %rsi
	leaq	l___unnamed_21(%rip), %r8
	leaq	-40(%rbp), %rcx
	movl	$8, %edx
	movq	%r15, %rdi
	callq	__ZN4core3fmt8builders11DebugStruct5field17h9c15dc155278eed2E
	movq	%r15, %rdi
	callq	__ZN4core3fmt8builders11DebugStruct6finish17h26808393f3fed630E
Ltmp392:
	.loc	28 2213 6
	addq	$32, %rsp
	popq	%rbx
Ltmp393:
	popq	%r12
Ltmp394:
	popq	%r14
	popq	%r15
	popq	%rbp
	retq
Ltmp395:
Lfunc_end36:
	.cfi_endproc

	.p2align	4, 0x90
__ZN91_$LT$std..panicking..begin_panic..PanicPayload$LT$A$GT$$u20$as$u20$core..panic..BoxMeUp$GT$3get17hc1e65b3b1113fbf9E:
Lfunc_begin37:
	.loc	32 430 0
	.cfi_startproc
	pushq	%rbp
	.cfi_def_cfa_offset 16
	.cfi_offset %rbp, -16
	movq	%rsp, %rbp
	.cfi_def_cfa_register %rbp
Ltmp396:
	.loc	32 432 17 prologue_end
	cmpq	$0, (%rdi)
	je	LBB37_2
Ltmp397:
	.loc	32 0 17 is_stmt 0
	movq	%rdi, %rax
Ltmp398:
	.loc	32 435 10 is_stmt 1
	leaq	l___unnamed_9(%rip), %rdx
	popq	%rbp
	retq
Ltmp399:
LBB37_2:
	.loc	32 433 25
	callq	__ZN3std7process5abort17h4dccaf05298ce780E
Ltmp400:
Lfunc_end37:
	.cfi_endproc

	.p2align	4, 0x90
__ZN91_$LT$std..panicking..begin_panic..PanicPayload$LT$A$GT$$u20$as$u20$core..panic..BoxMeUp$GT$8take_box17h53cd7c880e568805E:
Lfunc_begin38:
	.loc	32 417 0
	.cfi_startproc
	pushq	%rbp
	.cfi_def_cfa_offset 16
	.cfi_offset %rbp, -16
	movq	%rsp, %rbp
	.cfi_def_cfa_register %rbp
Ltmp401:
	pushq	%r14
	pushq	%rbx
	.cfi_offset %rbx, -32
	.cfi_offset %r14, -24
Ltmp402:
	.loc	14 2058 5 prologue_end
	movq	(%rdi), %rbx
Ltmp403:
	movq	8(%rdi), %r14
Ltmp404:
	.loc	14 2058 5 is_stmt 0
	movq	$0, (%rdi)
Ltmp405:
	.loc	32 424 17 is_stmt 1
	testq	%rbx, %rbx
	je	LBB38_3
Ltmp406:
	.loc	9 80 5
	movl	$16, %edi
Ltmp407:
	movl	$8, %esi
	callq	___rust_alloc
Ltmp408:
	.loc	9 269 9
	testq	%rax, %rax
	je	LBB38_4
Ltmp409:
	.loc	15 174 13
	movq	%rbx, (%rax)
	movq	%r14, 8(%rax)
Ltmp410:
	.file	42 "/rustc/a74d1862d4d87a56244958416fd05976c58ca1a8/src/libcore/ptr/unique.rs"
	.loc	42 108 6
	leaq	l___unnamed_9(%rip), %rdx
Ltmp411:
	.loc	32 428 10
	popq	%rbx
Ltmp412:
	popq	%r14
Ltmp413:
	popq	%rbp
	retq
Ltmp414:
LBB38_3:
	.loc	32 425 25
	callq	__ZN3std7process5abort17h4dccaf05298ce780E
Ltmp415:
LBB38_4:
	.loc	9 270 19
	movl	$16, %edi
	movl	$8, %esi
	callq	__ZN5alloc5alloc18handle_alloc_error17hbc0ab0ed90816c07E
Ltmp416:
Lfunc_end38:
	.cfi_endproc

	.section	__TEXT,__literal8,8byte_literals
	.p2align	3
LCPI39_0:
	.quad	4607182418800017408
LCPI39_1:
	.quad	-4623695617433709227
LCPI39_2:
	.quad	4621256167635550208
	.section	__TEXT,__text,regular,pure_instructions
	.globl	__ZN4rand13distributions5gamma15GammaSmallShape7new_raw17h73a5c7972ae82d1cE
	.p2align	4, 0x90
__ZN4rand13distributions5gamma15GammaSmallShape7new_raw17h73a5c7972ae82d1cE:
Lfunc_begin39:
	.loc	33 117 0
	.cfi_startproc
	pushq	%rbp
	.cfi_def_cfa_offset 16
	.cfi_offset %rbp, -16
	movq	%rsp, %rbp
	.cfi_def_cfa_register %rbp
	movq	%rdi, %rax
Ltmp417:
	movsd	LCPI39_0(%rip), %xmm2
Ltmp418:
	.loc	33 119 24 prologue_end
	movapd	%xmm2, %xmm3
	divsd	%xmm0, %xmm3
	.loc	33 120 51
	addsd	%xmm2, %xmm0
Ltmp419:
	.loc	33 127 17
	addsd	LCPI39_1(%rip), %xmm0
Ltmp420:
	.loc	33 0 17 is_stmt 0
	movsd	LCPI39_2(%rip), %xmm4
Ltmp421:
	.loc	33 130 21 is_stmt 1
	mulsd	%xmm0, %xmm4
Ltmp422:
	.file	43 "/rustc/a74d1862d4d87a56244958416fd05976c58ca1a8/src/libstd/f64.rs"
	.loc	43 342 18
	sqrtsd	%xmm4, %xmm4
Ltmp423:
	.loc	33 130 16
	divsd	%xmm4, %xmm2
Ltmp424:
	.loc	33 118 9
	movsd	%xmm3, (%rdi)
	movsd	%xmm1, 8(%rdi)
	movsd	%xmm2, 16(%rdi)
	movsd	%xmm0, 24(%rdi)
	.loc	33 122 6
	popq	%rbp
	retq
Ltmp425:
Lfunc_end39:
	.cfi_endproc

	.section	__TEXT,__literal8,8byte_literals
	.p2align	3
LCPI40_0:
	.quad	-4623695617433709227
LCPI40_1:
	.quad	4621256167635550208
LCPI40_2:
	.quad	4607182418800017408
	.section	__TEXT,__text,regular,pure_instructions
	.globl	__ZN4rand13distributions5gamma15GammaLargeShape7new_raw17he1bedcbb0d99d939E
	.p2align	4, 0x90
__ZN4rand13distributions5gamma15GammaLargeShape7new_raw17he1bedcbb0d99d939E:
Lfunc_begin40:
	.loc	33 126 0
	.cfi_startproc
	pushq	%rbp
	.cfi_def_cfa_offset 16
	.cfi_offset %rbp, -16
	movq	%rsp, %rbp
	.cfi_def_cfa_register %rbp
	movq	%rdi, %rax
Ltmp426:
	.loc	33 127 17 prologue_end
	addsd	LCPI40_0(%rip), %xmm0
Ltmp427:
	.loc	33 0 17 is_stmt 0
	movsd	LCPI40_1(%rip), %xmm2
Ltmp428:
	.loc	33 130 21 is_stmt 1
	mulsd	%xmm0, %xmm2
Ltmp429:
	.loc	43 342 18
	sqrtsd	%xmm2, %xmm2
Ltmp430:
	.loc	43 0 18 is_stmt 0
	movsd	LCPI40_2(%rip), %xmm3
Ltmp431:
	.loc	33 130 16 is_stmt 1
	divsd	%xmm2, %xmm3
	.loc	33 128 9
	movsd	%xmm1, (%rdi)
	movsd	%xmm3, 8(%rdi)
	movsd	%xmm0, 16(%rdi)
Ltmp432:
	.loc	33 133 6
	popq	%rbp
	retq
Ltmp433:
Lfunc_end40:
	.cfi_endproc

	.section	__TEXT,__literal8,8byte_literals
	.p2align	3
LCPI41_0:
	.quad	4607182418800017408
LCPI41_1:
	.quad	4602678819172646912
LCPI41_2:
	.quad	4611686018427387904
LCPI41_3:
	.quad	-4623695617433709227
LCPI41_4:
	.quad	4621256167635550208
	.section	__TEXT,__text,regular,pure_instructions
	.globl	__ZN4rand13distributions5gamma10ChiSquared3new17hfdd8c53ad1dac15fE
	.p2align	4, 0x90
__ZN4rand13distributions5gamma10ChiSquared3new17hfdd8c53ad1dac15fE:
Lfunc_begin41:
	.loc	33 217 0
	.cfi_startproc
	pushq	%rbp
	.cfi_def_cfa_offset 16
	.cfi_offset %rbp, -16
	movq	%rsp, %rbp
	.cfi_def_cfa_register %rbp
	movq	%rdi, %rax
Ltmp434:
	.loc	33 218 20 prologue_end
	ucomisd	LCPI41_0(%rip), %xmm0
	jne	LBB41_2
	jp	LBB41_2
Ltmp435:
	.loc	33 0 20 is_stmt 0
	movl	$3, %ecx
Ltmp436:
	jmp	LBB41_9
LBB41_2:
Ltmp437:
	xorps	%xmm1, %xmm1
	.loc	33 221 21 is_stmt 1
	ucomisd	%xmm1, %xmm0
	.loc	33 221 13 is_stmt 0
	jbe	LBB41_11
Ltmp438:
	.loc	33 222 40 is_stmt 1
	mulsd	LCPI41_1(%rip), %xmm0
Ltmp439:
	.loc	33 102 17
	ucomisd	%xmm1, %xmm0
	.loc	33 102 9 is_stmt 0
	jbe	LBB41_12
Ltmp440:
	.loc	33 0 9
	movsd	LCPI41_2(%rip), %xmm1
	.loc	33 105 20 is_stmt 1
	ucomisd	LCPI41_0(%rip), %xmm0
	jne	LBB41_6
	jp	LBB41_6
Ltmp441:
	.loc	33 0 20 is_stmt 0
	movl	$1, %ecx
Ltmp442:
	jmp	LBB41_9
Ltmp443:
LBB41_6:
	movsd	LCPI41_0(%rip), %xmm2
	.loc	33 107 19 is_stmt 1
	ucomisd	%xmm0, %xmm2
	.loc	33 107 16 is_stmt 0
	jbe	LBB41_8
Ltmp444:
	.loc	33 119 24 is_stmt 1
	movapd	%xmm2, %xmm1
	divsd	%xmm0, %xmm1
	.loc	33 120 51
	addsd	%xmm2, %xmm0
Ltmp445:
	.loc	33 127 17
	movapd	%xmm0, %xmm3
Ltmp446:
	addsd	LCPI41_3(%rip), %xmm3
Ltmp447:
	.loc	33 0 17 is_stmt 0
	movsd	LCPI41_4(%rip), %xmm0
Ltmp448:
	.loc	33 130 21 is_stmt 1
	mulsd	%xmm3, %xmm0
Ltmp449:
	.loc	43 342 18
	sqrtsd	%xmm0, %xmm4
Ltmp450:
	.loc	33 130 16
	movapd	%xmm2, %xmm0
Ltmp451:
	divsd	%xmm4, %xmm0
	movl	$2, %ecx
	movsd	LCPI41_2(%rip), %xmm2
	jmp	LBB41_10
Ltmp452:
LBB41_8:
	.loc	33 127 17
	addsd	LCPI41_3(%rip), %xmm0
Ltmp453:
	.loc	33 0 17 is_stmt 0
	movsd	LCPI41_4(%rip), %xmm3
Ltmp454:
	.loc	33 130 21 is_stmt 1
	mulsd	%xmm0, %xmm3
Ltmp455:
	.loc	43 342 18
	sqrtsd	%xmm3, %xmm3
Ltmp456:
	.loc	33 130 16
	divsd	%xmm3, %xmm2
	xorl	%ecx, %ecx
Ltmp457:
LBB41_9:
LBB41_10:
	.loc	33 224 9
	movq	%rcx, (%rax)
	movsd	%xmm1, 8(%rax)
	movsd	%xmm2, 16(%rax)
	movsd	%xmm0, 24(%rax)
	movsd	%xmm3, 32(%rax)
Ltmp458:
	.loc	33 225 6
	popq	%rbp
	retq
Ltmp459:
LBB41_11:
	.loc	33 221 13
	leaq	l___unnamed_56(%rip), %rdi
	leaq	l___unnamed_57(%rip), %rdx
	movl	$35, %esi
	callq	__ZN3std9panicking11begin_panic17hd4d4c819dff90bc2E
Ltmp460:
LBB41_12:
	.loc	33 102 9
	leaq	l___unnamed_58(%rip), %rdi
	leaq	l___unnamed_59(%rip), %rdx
	movl	$33, %esi
	callq	__ZN3std9panicking11begin_panic17hd4d4c819dff90bc2E
Ltmp461:
Lfunc_end41:
	.cfi_endproc

	.section	__TEXT,__literal8,8byte_literals
	.p2align	3
LCPI42_0:
	.quad	4607182418800017408
LCPI42_1:
	.quad	4602678819172646912
LCPI42_2:
	.quad	4611686018427387904
LCPI42_3:
	.quad	-4623695617433709227
LCPI42_4:
	.quad	4621256167635550208
	.section	__TEXT,__text,regular,pure_instructions
	.globl	__ZN4rand13distributions5gamma7FisherF3new17h365111e5263806a6E
	.p2align	4, 0x90
__ZN4rand13distributions5gamma7FisherF3new17h365111e5263806a6E:
Lfunc_begin42:
	.loc	33 270 0
	.cfi_startproc
	pushq	%rbp
	.cfi_def_cfa_offset 16
	.cfi_offset %rbp, -16
	movq	%rsp, %rbp
	.cfi_def_cfa_register %rbp
	xorpd	%xmm2, %xmm2
Ltmp462:
	.loc	33 271 17 prologue_end
	ucomisd	%xmm2, %xmm0
	.loc	33 271 9 is_stmt 0
	jbe	LBB42_19
Ltmp463:
	.loc	33 272 17 is_stmt 1
	ucomisd	%xmm2, %xmm1
	.loc	33 272 9 is_stmt 0
	jbe	LBB42_20
Ltmp464:
	.loc	33 0 9
	movq	%rdi, %rax
Ltmp465:
	movl	$3, %ecx
Ltmp466:
	.loc	33 218 20 is_stmt 1
	ucomisd	LCPI42_0(%rip), %xmm0
	.loc	33 0 0 is_stmt 0
	movl	$3, %edx
	.loc	33 218 20
	jne	LBB42_7
	jp	LBB42_7
Ltmp467:
	.loc	33 218 20
	ucomisd	LCPI42_0(%rip), %xmm1
	jne	LBB42_4
	jnp	LBB42_18
Ltmp468:
LBB42_4:
	.loc	33 0 20
	movsd	LCPI42_1(%rip), %xmm7
	.loc	33 222 40 is_stmt 1
	mulsd	%xmm1, %xmm7
Ltmp469:
	.loc	33 0 40 is_stmt 0
	xorpd	%xmm2, %xmm2
Ltmp470:
	.loc	33 102 17 is_stmt 1
	ucomisd	%xmm2, %xmm7
	.loc	33 102 9 is_stmt 0
	jbe	LBB42_21
Ltmp471:
	.loc	33 0 9
	movsd	LCPI42_2(%rip), %xmm5
	.loc	33 105 20 is_stmt 1
	ucomisd	LCPI42_0(%rip), %xmm7
	jne	LBB42_13
	jp	LBB42_13
Ltmp472:
	.loc	33 0 20 is_stmt 0
	movl	$1, %ecx
Ltmp473:
	jmp	LBB42_17
Ltmp474:
LBB42_7:
	movsd	LCPI42_1(%rip), %xmm3
Ltmp475:
	.loc	33 222 40 is_stmt 1
	mulsd	%xmm0, %xmm3
Ltmp476:
	.loc	33 0 40 is_stmt 0
	xorpd	%xmm2, %xmm2
Ltmp477:
	.loc	33 102 17 is_stmt 1
	ucomisd	%xmm2, %xmm3
	.loc	33 102 9 is_stmt 0
	jbe	LBB42_21
Ltmp478:
	.loc	33 0 9
	movsd	LCPI42_2(%rip), %xmm9
	.loc	33 105 20 is_stmt 1
	ucomisd	LCPI42_0(%rip), %xmm3
	jne	LBB42_11
	jp	LBB42_11
Ltmp479:
	.loc	33 0 20 is_stmt 0
	movl	$1, %edx
Ltmp480:
	.loc	33 218 20 is_stmt 1
	ucomisd	LCPI42_0(%rip), %xmm1
	jne	LBB42_4
	jnp	LBB42_18
	jmp	LBB42_4
Ltmp481:
LBB42_11:
	.loc	33 0 20 is_stmt 0
	movsd	LCPI42_0(%rip), %xmm4
Ltmp482:
	.loc	33 107 19 is_stmt 1
	ucomisd	%xmm3, %xmm4
	.loc	33 107 16 is_stmt 0
	jbe	LBB42_15
Ltmp483:
	.loc	33 119 24 is_stmt 1
	movapd	%xmm4, %xmm9
	divsd	%xmm3, %xmm9
	.loc	33 120 51
	addsd	%xmm4, %xmm3
Ltmp484:
	.loc	33 127 17
	movapd	%xmm3, %xmm8
Ltmp485:
	addsd	LCPI42_3(%rip), %xmm8
Ltmp486:
	.loc	33 0 17 is_stmt 0
	movsd	LCPI42_4(%rip), %xmm2
Ltmp487:
	.loc	33 130 21 is_stmt 1
	mulsd	%xmm8, %xmm2
Ltmp488:
	.loc	43 342 18
	sqrtsd	%xmm2, %xmm2
Ltmp489:
	.loc	33 130 16
	movapd	%xmm4, %xmm3
	divsd	%xmm2, %xmm3
	movl	$2, %edx
	movsd	LCPI42_2(%rip), %xmm4
Ltmp490:
	.loc	33 218 20
	ucomisd	LCPI42_0(%rip), %xmm1
	jne	LBB42_4
	jnp	LBB42_18
	jmp	LBB42_4
Ltmp491:
LBB42_13:
	.loc	33 0 20 is_stmt 0
	movsd	LCPI42_0(%rip), %xmm6
Ltmp492:
	.loc	33 107 19 is_stmt 1
	ucomisd	%xmm7, %xmm6
	.loc	33 107 16 is_stmt 0
	jbe	LBB42_16
Ltmp493:
	.loc	33 119 24 is_stmt 1
	movapd	%xmm6, %xmm5
	divsd	%xmm7, %xmm5
	.loc	33 120 51
	addsd	%xmm6, %xmm7
Ltmp494:
	.loc	33 127 17
	movapd	%xmm7, %xmm2
Ltmp495:
	addsd	LCPI42_3(%rip), %xmm2
Ltmp496:
	.loc	33 0 17 is_stmt 0
	movsd	LCPI42_4(%rip), %xmm7
Ltmp497:
	.loc	33 130 21 is_stmt 1
	mulsd	%xmm2, %xmm7
Ltmp498:
	.loc	43 342 18
	sqrtsd	%xmm7, %xmm10
Ltmp499:
	.loc	33 130 16
	movapd	%xmm6, %xmm7
Ltmp500:
	divsd	%xmm10, %xmm7
	movl	$2, %ecx
	movsd	LCPI42_2(%rip), %xmm6
	jmp	LBB42_18
Ltmp501:
LBB42_15:
	.loc	33 127 17
	addsd	LCPI42_3(%rip), %xmm3
Ltmp502:
	.loc	33 0 17 is_stmt 0
	movsd	LCPI42_4(%rip), %xmm2
Ltmp503:
	.loc	33 130 21 is_stmt 1
	mulsd	%xmm3, %xmm2
Ltmp504:
	.loc	43 342 18
	sqrtsd	%xmm2, %xmm2
Ltmp505:
	.loc	33 130 16
	divsd	%xmm2, %xmm4
	xorl	%edx, %edx
Ltmp506:
	.loc	33 218 20
	ucomisd	LCPI42_0(%rip), %xmm1
	jne	LBB42_4
	jnp	LBB42_18
	jmp	LBB42_4
Ltmp507:
LBB42_16:
	.loc	33 127 17
	addsd	LCPI42_3(%rip), %xmm7
Ltmp508:
	.loc	33 0 17 is_stmt 0
	movsd	LCPI42_4(%rip), %xmm2
Ltmp509:
	.loc	33 130 21 is_stmt 1
	mulsd	%xmm7, %xmm2
Ltmp510:
	.loc	43 342 18
	sqrtsd	%xmm2, %xmm2
Ltmp511:
	.loc	33 130 16
	divsd	%xmm2, %xmm6
	xorl	%ecx, %ecx
Ltmp512:
LBB42_17:
LBB42_18:
	.loc	33 277 24
	divsd	%xmm0, %xmm1
Ltmp513:
	.loc	33 274 9
	movq	%rdx, (%rax)
	movsd	%xmm9, 8(%rax)
	movsd	%xmm4, 16(%rax)
	movsd	%xmm3, 24(%rax)
	movsd	%xmm8, 32(%rax)
	movq	%rcx, 40(%rax)
	movsd	%xmm5, 48(%rax)
	movsd	%xmm6, 56(%rax)
	movsd	%xmm7, 64(%rax)
	movsd	%xmm2, 72(%rax)
	movsd	%xmm1, 80(%rax)
	.loc	33 279 6
	popq	%rbp
	retq
Ltmp514:
LBB42_19:
	.loc	33 271 9
	leaq	l___unnamed_60(%rip), %rdi
	leaq	l___unnamed_61(%rip), %rdx
	movl	$32, %esi
	callq	__ZN3std9panicking11begin_panic17hd4d4c819dff90bc2E
Ltmp515:
LBB42_20:
	.loc	33 272 9
	leaq	l___unnamed_62(%rip), %rdi
	leaq	l___unnamed_63(%rip), %rdx
	movl	$32, %esi
	callq	__ZN3std9panicking11begin_panic17hd4d4c819dff90bc2E
Ltmp516:
LBB42_21:
	.loc	33 0 0 is_stmt 0
	leaq	l___unnamed_58(%rip), %rdi
	leaq	l___unnamed_59(%rip), %rdx
	movl	$33, %esi
	callq	__ZN3std9panicking11begin_panic17hd4d4c819dff90bc2E
Ltmp517:
Lfunc_end42:
	.cfi_endproc

	.section	__TEXT,__literal8,8byte_literals
	.p2align	3
LCPI43_0:
	.quad	4607182418800017408
LCPI43_1:
	.quad	4602678819172646912
LCPI43_2:
	.quad	4611686018427387904
LCPI43_3:
	.quad	-4623695617433709227
LCPI43_4:
	.quad	4621256167635550208
	.section	__TEXT,__text,regular,pure_instructions
	.globl	__ZN4rand13distributions5gamma8StudentT3new17h57179fea5e31bf40E
	.p2align	4, 0x90
__ZN4rand13distributions5gamma8StudentT3new17h57179fea5e31bf40E:
Lfunc_begin43:
	.loc	33 311 0 is_stmt 1
	.cfi_startproc
	pushq	%rbp
	.cfi_def_cfa_offset 16
	.cfi_offset %rbp, -16
	movq	%rsp, %rbp
	.cfi_def_cfa_register %rbp
	xorps	%xmm1, %xmm1
Ltmp518:
	.loc	33 312 17 prologue_end
	ucomisd	%xmm1, %xmm0
	.loc	33 312 9 is_stmt 0
	jbe	LBB43_11
Ltmp519:
	.loc	33 0 9
	movq	%rdi, %rax
Ltmp520:
	.loc	33 218 20 is_stmt 1
	ucomisd	LCPI43_0(%rip), %xmm0
	jne	LBB43_3
	jp	LBB43_3
Ltmp521:
	.loc	33 0 20 is_stmt 0
	movl	$3, %ecx
	jmp	LBB43_9
Ltmp522:
LBB43_3:
	movsd	LCPI43_1(%rip), %xmm2
	.loc	33 222 40 is_stmt 1
	mulsd	%xmm0, %xmm2
Ltmp523:
	.loc	33 0 40 is_stmt 0
	xorps	%xmm1, %xmm1
Ltmp524:
	.loc	33 102 17 is_stmt 1
	ucomisd	%xmm1, %xmm2
	.loc	33 102 9 is_stmt 0
	jbe	LBB43_12
Ltmp525:
	.loc	33 0 9
	movsd	LCPI43_2(%rip), %xmm1
	.loc	33 105 20 is_stmt 1
	ucomisd	LCPI43_0(%rip), %xmm2
	jne	LBB43_6
	jp	LBB43_6
Ltmp526:
	.loc	33 0 20 is_stmt 0
	movl	$1, %ecx
Ltmp527:
	jmp	LBB43_9
Ltmp528:
LBB43_6:
	movsd	LCPI43_0(%rip), %xmm3
	.loc	33 107 19 is_stmt 1
	ucomisd	%xmm2, %xmm3
	.loc	33 107 16 is_stmt 0
	jbe	LBB43_8
Ltmp529:
	.loc	33 119 24 is_stmt 1
	movapd	%xmm3, %xmm1
	divsd	%xmm2, %xmm1
	.loc	33 120 51
	addsd	%xmm3, %xmm2
Ltmp530:
	.loc	33 127 17
	movapd	%xmm2, %xmm4
Ltmp531:
	addsd	LCPI43_3(%rip), %xmm4
Ltmp532:
	.loc	33 0 17 is_stmt 0
	movsd	LCPI43_4(%rip), %xmm2
Ltmp533:
	.loc	33 130 21 is_stmt 1
	mulsd	%xmm4, %xmm2
Ltmp534:
	.loc	43 342 18
	sqrtsd	%xmm2, %xmm5
Ltmp535:
	.loc	33 130 16
	movapd	%xmm3, %xmm2
Ltmp536:
	divsd	%xmm5, %xmm2
	movl	$2, %ecx
	movsd	LCPI43_2(%rip), %xmm3
	jmp	LBB43_10
Ltmp537:
LBB43_8:
	.loc	33 127 17
	addsd	LCPI43_3(%rip), %xmm2
Ltmp538:
	.loc	33 0 17 is_stmt 0
	movsd	LCPI43_4(%rip), %xmm4
Ltmp539:
	.loc	33 130 21 is_stmt 1
	mulsd	%xmm2, %xmm4
Ltmp540:
	.loc	43 342 18
	sqrtsd	%xmm4, %xmm4
Ltmp541:
	.loc	33 130 16
	divsd	%xmm4, %xmm3
	xorl	%ecx, %ecx
Ltmp542:
LBB43_9:
LBB43_10:
	.loc	33 313 9
	movq	%rcx, (%rax)
	movsd	%xmm1, 8(%rax)
	movsd	%xmm3, 16(%rax)
	movsd	%xmm2, 24(%rax)
	movsd	%xmm4, 32(%rax)
	movsd	%xmm0, 40(%rax)
	.loc	33 317 6
	popq	%rbp
	retq
Ltmp543:
LBB43_11:
	.loc	33 312 9
	leaq	l___unnamed_64(%rip), %rdi
	leaq	l___unnamed_65(%rip), %rdx
	movl	$34, %esi
	callq	__ZN3std9panicking11begin_panic17hd4d4c819dff90bc2E
Ltmp544:
LBB43_12:
	.loc	33 102 9
	leaq	l___unnamed_58(%rip), %rdi
	leaq	l___unnamed_59(%rip), %rdx
	movl	$33, %esi
	callq	__ZN3std9panicking11begin_panic17hd4d4c819dff90bc2E
Ltmp545:
Lfunc_end43:
	.cfi_endproc

	.globl	__ZN60_$LT$rand..jitter..JitterRng$u20$as$u20$core..fmt..Debug$GT$3fmt17h9f51c568d974b95bE
	.p2align	4, 0x90
__ZN60_$LT$rand..jitter..JitterRng$u20$as$u20$core..fmt..Debug$GT$3fmt17h9f51c568d974b95bE:
Lfunc_begin44:
	.loc	2 70 0
	.cfi_startproc
	pushq	%rbp
	.cfi_def_cfa_offset 16
	.cfi_offset %rbp, -16
	movq	%rsp, %rbp
	.cfi_def_cfa_register %rbp
	subq	$48, %rsp
	movq	%rsi, %rdi
Ltmp546:
	.loc	28 328 9 prologue_end
	leaq	l___unnamed_66(%rip), %rax
Ltmp547:
	movq	%rax, -48(%rbp)
	movq	$1, -40(%rbp)
	movq	$0, -32(%rbp)
	leaq	l___unnamed_46(%rip), %rax
Ltmp548:
	movq	%rax, -16(%rbp)
	movq	$0, -8(%rbp)
	leaq	-48(%rbp), %rsi
Ltmp549:
	.loc	2 71 9
	callq	__ZN4core3fmt9Formatter9write_fmt17h3dc2bf45afed3069E
Ltmp550:
	.loc	2 72 6
	addq	$48, %rsp
	popq	%rbp
	retq
Ltmp551:
Lfunc_end44:
	.cfi_endproc

	.globl	__ZN63_$LT$rand..jitter..TimerError$u20$as$u20$core..fmt..Display$GT$3fmt17hb7b691d82f8cbf74E
	.p2align	4, 0x90
__ZN63_$LT$rand..jitter..TimerError$u20$as$u20$core..fmt..Display$GT$3fmt17hb7b691d82f8cbf74E:
Lfunc_begin45:
	.loc	2 106 0
	.cfi_startproc
	pushq	%rbp
	.cfi_def_cfa_offset 16
	.cfi_offset %rbp, -16
	movq	%rsp, %rbp
	.cfi_def_cfa_register %rbp
	subq	$80, %rsp
	movq	%rsi, %rax
Ltmp552:
	.loc	2 107 25 prologue_end
	movzbl	(%rdi), %esi
	leaq	l___unnamed_67(%rip), %rcx
	movl	$18, %edx
	leaq	LJTI45_0(%rip), %rdi
Ltmp553:
	.loc	2 0 25 is_stmt 0
	movslq	(%rdi,%rsi,4), %rsi
	addq	%rdi, %rsi
	jmpq	*%rsi
Ltmp554:
LBB45_2:
	leaq	l___unnamed_68(%rip), %rcx
	movl	$12, %edx
	jmp	LBB45_6
Ltmp555:
LBB45_5:
	leaq	l___unnamed_69(%rip), %rcx
	movl	$22, %edx
	jmp	LBB45_6
Ltmp556:
LBB45_3:
	leaq	l___unnamed_70(%rip), %rcx
	movl	$19, %edx
	jmp	LBB45_6
Ltmp557:
LBB45_4:
	leaq	l___unnamed_71(%rip), %rcx
	movl	$31, %edx
Ltmp558:
LBB45_6:
	.loc	2 107 25
	movq	%rcx, -32(%rbp)
	movq	%rdx, -24(%rbp)
	leaq	-32(%rbp), %rcx
Ltmp559:
	.loc	2 107 9
	movq	%rcx, -16(%rbp)
	leaq	__ZN44_$LT$$RF$T$u20$as$u20$core..fmt..Display$GT$3fmt17h722677d7fe50df2aE(%rip), %rcx
	movq	%rcx, -8(%rbp)
Ltmp560:
	.loc	28 328 9 is_stmt 1
	leaq	l___unnamed_72(%rip), %rcx
Ltmp561:
	movq	%rcx, -80(%rbp)
	movq	$1, -72(%rbp)
	movq	$0, -64(%rbp)
	leaq	-16(%rbp), %rcx
Ltmp562:
	movq	%rcx, -48(%rbp)
	movq	$1, -40(%rbp)
	leaq	-80(%rbp), %rsi
Ltmp563:
	.loc	2 107 9
	movq	%rax, %rdi
	callq	__ZN4core3fmt9Formatter9write_fmt17h3dc2bf45afed3069E
Ltmp564:
	.loc	2 108 6
	addq	$80, %rsp
	popq	%rbp
	retq
Ltmp565:
LBB45_1:
	.loc	2 100 44
	leaq	l___unnamed_73(%rip), %rdi
	leaq	l___unnamed_74(%rip), %rdx
	movl	$40, %esi
	callq	__ZN3std9panicking11begin_panic17hd4d4c819dff90bc2E
Ltmp566:
Lfunc_end45:
	.cfi_endproc
	.p2align	2, 0x90
	.data_region jt32
.set L45_0_set_6, LBB45_6-LJTI45_0
.set L45_0_set_2, LBB45_2-LJTI45_0
.set L45_0_set_3, LBB45_3-LJTI45_0
.set L45_0_set_4, LBB45_4-LJTI45_0
.set L45_0_set_5, LBB45_5-LJTI45_0
.set L45_0_set_1, LBB45_1-LJTI45_0
LJTI45_0:
	.long	L45_0_set_6
	.long	L45_0_set_2
	.long	L45_0_set_3
	.long	L45_0_set_4
	.long	L45_0_set_5
	.long	L45_0_set_1
	.end_data_region

	.globl	__ZN62_$LT$rand..jitter..TimerError$u20$as$u20$std..error..Error$GT$11description17hf9192962248ed4ecE
	.p2align	4, 0x90
__ZN62_$LT$rand..jitter..TimerError$u20$as$u20$std..error..Error$GT$11description17hf9192962248ed4ecE:
Lfunc_begin46:
	.loc	2 113 0
	.cfi_startproc
	pushq	%rbp
	.cfi_def_cfa_offset 16
	.cfi_offset %rbp, -16
	movq	%rsp, %rbp
	.cfi_def_cfa_register %rbp
Ltmp567:
	.loc	2 114 9 prologue_end
	movzbl	(%rdi), %ecx
	leaq	l___unnamed_67(%rip), %rax
	movl	$18, %edx
	leaq	LJTI46_0(%rip), %rsi
	movslq	(%rsi,%rcx,4), %rcx
	addq	%rsi, %rcx
	jmpq	*%rcx
Ltmp568:
LBB46_2:
	.loc	2 0 9 is_stmt 0
	leaq	l___unnamed_68(%rip), %rax
	movl	$12, %edx
	.loc	2 115 6 is_stmt 1
	popq	%rbp
	retq
Ltmp569:
LBB46_5:
	.loc	2 0 6 is_stmt 0
	leaq	l___unnamed_69(%rip), %rax
	movl	$22, %edx
Ltmp570:
LBB46_6:
	.loc	2 115 6
	popq	%rbp
	retq
Ltmp571:
LBB46_3:
	.loc	2 0 6
	leaq	l___unnamed_70(%rip), %rax
	movl	$19, %edx
	.loc	2 115 6
	popq	%rbp
	retq
Ltmp572:
LBB46_4:
	.loc	2 0 6
	leaq	l___unnamed_71(%rip), %rax
	movl	$31, %edx
	.loc	2 115 6
	popq	%rbp
	retq
Ltmp573:
LBB46_1:
	.loc	2 100 44 is_stmt 1
	leaq	l___unnamed_73(%rip), %rdi
Ltmp574:
	leaq	l___unnamed_74(%rip), %rdx
	movl	$40, %esi
	callq	__ZN3std9panicking11begin_panic17hd4d4c819dff90bc2E
Ltmp575:
Lfunc_end46:
	.cfi_endproc
	.p2align	2, 0x90
	.data_region jt32
.set L46_0_set_6, LBB46_6-LJTI46_0
.set L46_0_set_2, LBB46_2-LJTI46_0
.set L46_0_set_3, LBB46_3-LJTI46_0
.set L46_0_set_4, LBB46_4-LJTI46_0
.set L46_0_set_5, LBB46_5-LJTI46_0
.set L46_0_set_1, LBB46_1-LJTI46_0
LJTI46_0:
	.long	L46_0_set_6
	.long	L46_0_set_2
	.long	L46_0_set_3
	.long	L46_0_set_4
	.long	L46_0_set_5
	.long	L46_0_set_1
	.end_data_region

	.globl	__ZN4rand6jitter9JitterRng3new17ha4fe7eec6f379c54E
	.p2align	4, 0x90
__ZN4rand6jitter9JitterRng3new17ha4fe7eec6f379c54E:
Lfunc_begin47:
	.loc	2 130 0
	.cfi_startproc
	pushq	%rbp
	.cfi_def_cfa_offset 16
	.cfi_offset %rbp, -16
	movq	%rsp, %rbp
	.cfi_def_cfa_register %rbp
	pushq	%rbx
	subq	$2120, %rsp
	.cfi_offset %rbx, -24
	movq	%rdi, %rbx
Ltmp576:
	.loc	2 131 22 prologue_end
	leaq	__ZN4rand6jitter8platform10get_nstime17h38a14371de558779E(%rip), %rsi
	leaq	-2120(%rbp), %rdi
	callq	__ZN4rand6jitter9JitterRng14new_with_timer17h2e81c4afe5d5f858E
Ltmp577:
	.file	44 "/rustc/a74d1862d4d87a56244958416fd05976c58ca1a8/src/libcore/sync/atomic.rs"
	.loc	44 2276 20
	movq	__ZN4rand6jitter13JITTER_ROUNDS17hcb889dd2d8335846E(%rip), %rax
Ltmp578:
	.loc	2 133 12
	testl	%eax, %eax
	.loc	2 133 9 is_stmt 0
	jne	LBB47_4
Ltmp579:
	.loc	2 0 9
	leaq	-2120(%rbp), %rdi
	.loc	2 136 22 is_stmt 1
	callq	__ZN4rand6jitter9JitterRng10test_timer17hc19a158f51957c9aE
Ltmp580:
	.loc	2 136 37 is_stmt 0
	testb	$1, %al
	jne	LBB47_2
Ltmp581:
	.loc	2 136 22
	shrq	$32, %rax
Ltmp582:
	.loc	44 2265 20 is_stmt 1
	movq	%rax, __ZN4rand6jitter13JITTER_ROUNDS17hcb889dd2d8335846E(%rip)
Ltmp583:
	.loc	2 188 17
	testl	%eax, %eax
	.loc	2 188 9 is_stmt 0
	je	LBB47_6
Ltmp584:
LBB47_4:
	.loc	2 189 9 is_stmt 1
	movl	%eax, -2072(%rbp)
Ltmp585:
	.loc	2 140 9
	leaq	8(%rbx), %rdi
	leaq	-2120(%rbp), %rsi
	movl	$2112, %edx
	callq	_memcpy
Ltmp586:
	.loc	2 0 9 is_stmt 0
	xorl	%eax, %eax
Ltmp587:
LBB47_5:
	movb	%al, (%rbx)
Ltmp588:
	.loc	2 141 6 is_stmt 1
	movq	%rbx, %rax
	addq	$2120, %rsp
	popq	%rbx
	popq	%rbp
	retq
Ltmp589:
LBB47_2:
	.loc	10 1558 9
	movb	%ah, 1(%rbx)
	movb	$1, %al
	jmp	LBB47_5
Ltmp590:
LBB47_6:
	.loc	2 188 9
	leaq	l___unnamed_75(%rip), %rdi
	leaq	l___unnamed_76(%rip), %rdx
	movl	$28, %esi
	callq	__ZN3std9panicking11begin_panic17hd4d4c819dff90bc2E
Ltmp591:
Lfunc_end47:
	.cfi_endproc

	.globl	__ZN4rand6jitter9JitterRng14new_with_timer17h2e81c4afe5d5f858E
	.p2align	4, 0x90
__ZN4rand6jitter9JitterRng14new_with_timer17h2e81c4afe5d5f858E:
Lfunc_begin48:
	.loc	2 152 0
	.cfi_startproc
	pushq	%rbp
	.cfi_def_cfa_offset 16
	.cfi_offset %rbp, -16
	movq	%rsp, %rbp
	.cfi_def_cfa_register %rbp
	pushq	%r15
	pushq	%r14
	pushq	%r13
	pushq	%r12
	pushq	%rbx
	subq	$2120, %rsp
	.cfi_offset %rbx, -56
	.cfi_offset %r12, -48
	.cfi_offset %r13, -40
	.cfi_offset %r14, -32
	.cfi_offset %r15, -24
	movq	%rsi, %rbx
Ltmp592:
	movq	%rdi, %r14
Ltmp593:
	.loc	2 153 22 prologue_end
	movq	$0, -2160(%rbp)
	movl	$64, -2112(%rbp)
	movq	%rsi, -2152(%rbp)
	leaq	-2100(%rbp), %rdi
	movq	$0, -2136(%rbp)
	movq	$0, -2128(%rbp)
	movq	$0, -2120(%rbp)
	movl	$2048, %esi
	callq	___bzero
	movl	$0, -2108(%rbp)
Ltmp594:
	.loc	2 167 24
	callq	*%rbx
	.loc	2 167 9 is_stmt 0
	movq	%rax, -2144(%rbp)
Ltmp595:
	.loc	2 0 9
	leaq	-2160(%rbp), %r15
Ltmp596:
	.loc	2 340 9 is_stmt 1
	movq	%r15, %rdi
	movl	$1, %esi
	callq	__ZN4rand6jitter9JitterRng9memaccess17hee949579ff237e78E
	.loc	2 344 20
	callq	*-2152(%rbp)
Ltmp597:
	.loc	35 3343 17
	movq	%rax, %rbx
Ltmp598:
	subq	-2144(%rbp), %rbx
Ltmp599:
	.loc	2 349 9
	movq	%rax, -2144(%rbp)
	.loc	2 352 9
	movq	%r15, %rdi
	movq	%rbx, %rsi
	movl	$1, %edx
	callq	__ZN4rand6jitter9JitterRng9lfsr_time17h06bd85fa907873f2E
Ltmp600:
	.loc	2 322 22
	movq	-2136(%rbp), %rax
	subq	%rbx, %rax
Ltmp601:
	jo	LBB48_16
Ltmp602:
	.loc	2 323 22
	movq	%rax, %rcx
	subq	-2128(%rbp), %rcx
	jo	LBB48_15
Ltmp603:
	.loc	2 325 9
	movq	%rbx, -2136(%rbp)
	.loc	2 326 9
	movq	%rax, -2128(%rbp)
	.loc	2 328 9
	testq	%rbx, %rbx
Ltmp604:
	.loc	2 356 9
	je	LBB48_6
Ltmp605:
	testq	%rax, %rax
	je	LBB48_6
Ltmp606:
	testq	%rcx, %rcx
	je	LBB48_6
Ltmp607:
	.loc	2 365 9
	rolq	$7, -2160(%rbp)
Ltmp608:
LBB48_6:
	.loc	2 422 21
	movl	-2112(%rbp), %r12d
Ltmp609:
	.loc	12 1137 52
	testl	%r12d, %r12d
Ltmp610:
	.file	45 "/rustc/a74d1862d4d87a56244958416fd05976c58ca1a8/src/libcore/iter/range.rs"
	.loc	45 211 9
	je	LBB48_14
Ltmp611:
	.loc	45 0 9 is_stmt 0
	xorl	%r13d, %r13d
	leaq	-2160(%rbp), %r15
Ltmp612:
	.p2align	4, 0x90
LBB48_9:
	.loc	2 340 9 is_stmt 1
	movq	%r15, %rdi
	movl	$1, %esi
	callq	__ZN4rand6jitter9JitterRng9memaccess17hee949579ff237e78E
	.loc	2 344 20
	callq	*-2152(%rbp)
Ltmp613:
	.loc	35 3343 17
	movq	%rax, %rbx
	subq	-2144(%rbp), %rbx
Ltmp614:
	.loc	2 349 9
	movq	%rax, -2144(%rbp)
	.loc	2 352 9
	movq	%r15, %rdi
	movq	%rbx, %rsi
	movl	$1, %edx
	callq	__ZN4rand6jitter9JitterRng9lfsr_time17h06bd85fa907873f2E
Ltmp615:
	.loc	2 322 22
	movq	-2136(%rbp), %rax
	subq	%rbx, %rax
Ltmp616:
	jo	LBB48_16
Ltmp617:
	.loc	2 323 22
	movq	%rax, %rcx
	subq	-2128(%rbp), %rcx
	jo	LBB48_15
Ltmp618:
	.loc	2 325 9
	movq	%rbx, -2136(%rbp)
	.loc	2 326 9
	movq	%rax, -2128(%rbp)
	.loc	2 328 9
	testq	%rbx, %rbx
Ltmp619:
	.loc	2 356 9
	je	LBB48_9
Ltmp620:
	testq	%rax, %rax
	je	LBB48_9
Ltmp621:
	testq	%rcx, %rcx
	je	LBB48_9
Ltmp622:
	.loc	2 365 9
	rolq	$7, -2160(%rbp)
Ltmp623:
	.loc	35 3632 30
	incl	%r13d
Ltmp624:
	.loc	12 1137 52
	cmpl	%r12d, %r13d
Ltmp625:
	.loc	45 211 9
	jne	LBB48_9
Ltmp626:
LBB48_14:
	.loc	45 0 9 is_stmt 0
	leaq	-2160(%rbp), %rbx
	.loc	2 429 9 is_stmt 1
	movq	%rbx, %rdi
	callq	__ZN4rand6jitter9JitterRng9stir_pool17h03cd17e515a1b6b2E
Ltmp627:
	.loc	2 174 19
	movb	-2100(%rbp), %al
Ltmp628:
	.loc	2 0 19 is_stmt 0
	movb	%al, -41(%rbp)
Ltmp629:
	.loc	27 1001 5 is_stmt 1
	movb	-41(%rbp), %al
Ltmp630:
	.loc	2 176 9
	movl	$2112, %edx
	movq	%r14, %rdi
	movq	%rbx, %rsi
	callq	_memcpy
Ltmp631:
	.loc	2 177 6
	movq	%r14, %rax
	addq	$2120, %rsp
	popq	%rbx
	popq	%r12
	popq	%r13
	popq	%r14
	popq	%r15
	popq	%rbp
	retq
Ltmp632:
LBB48_16:
	.loc	2 0 0 is_stmt 0
	leaq	_str.4(%rip), %rdi
	leaq	l___unnamed_77(%rip), %rdx
	movl	$33, %esi
	callq	__ZN4core9panicking5panic17h736ee47a631475c0E
Ltmp633:
LBB48_15:
	leaq	_str.4(%rip), %rdi
	leaq	l___unnamed_78(%rip), %rdx
	movl	$33, %esi
	callq	__ZN4core9panicking5panic17h736ee47a631475c0E
Ltmp634:
Lfunc_end48:
	.cfi_endproc

	.globl	__ZN4rand6jitter9JitterRng10set_rounds17h4165d654e3ff522cE
	.p2align	4, 0x90
__ZN4rand6jitter9JitterRng10set_rounds17h4165d654e3ff522cE:
Lfunc_begin49:
	.loc	2 187 0 is_stmt 1
	.cfi_startproc
	pushq	%rbp
	.cfi_def_cfa_offset 16
	.cfi_offset %rbp, -16
	movq	%rsp, %rbp
	.cfi_def_cfa_register %rbp
Ltmp635:
	.loc	2 188 17 prologue_end
	testl	%esi, %esi
	.loc	2 188 9 is_stmt 0
	je	LBB49_2
Ltmp636:
	.loc	2 189 9 is_stmt 1
	movl	%esi, 48(%rdi)
	.loc	2 190 6
	popq	%rbp
	retq
Ltmp637:
LBB49_2:
	.loc	2 188 9
	leaq	l___unnamed_75(%rip), %rdi
Ltmp638:
	leaq	l___unnamed_76(%rip), %rdx
	movl	$28, %esi
Ltmp639:
	callq	__ZN3std9panicking11begin_panic17hd4d4c819dff90bc2E
Ltmp640:
Lfunc_end49:
	.cfi_endproc

	.p2align	4, 0x90
__ZN4rand6jitter9JitterRng15random_loop_cnt17h22eda131176b9002E:
Lfunc_begin50:
	.loc	2 201 0
	.cfi_startproc
	pushq	%rbp
	.cfi_def_cfa_offset 16
	.cfi_offset %rbp, -16
	movq	%rsp, %rbp
	.cfi_def_cfa_register %rbp
	pushq	%rbx
	pushq	%rax
	.cfi_offset %rbx, -24
	movq	%rdi, %rbx
Ltmp641:
	.loc	2 204 24 prologue_end
	callq	*8(%rdi)
Ltmp642:
	.loc	2 207 9
	xorq	(%rbx), %rax
Ltmp643:
	.loc	2 215 20
	movq	%rax, %rcx
	shrq	$4, %rcx
Ltmp644:
	movq	%rax, %rdx
	shrq	$8, %rdx
Ltmp645:
	.loc	2 214 13
	xorl	%eax, %ecx
Ltmp646:
	.loc	2 215 20
	movq	%rax, %rsi
	shrq	$12, %rsi
Ltmp647:
	movq	%rax, %rdi
	shrq	$16, %rdi
Ltmp648:
	.loc	2 214 13
	xorl	%edx, %esi
	xorl	%ecx, %esi
Ltmp649:
	.loc	2 215 20
	movq	%rax, %rcx
	shrq	$20, %rcx
Ltmp650:
	movq	%rax, %rdx
	shrq	$24, %rdx
Ltmp651:
	.loc	2 214 13
	xorl	%edi, %ecx
Ltmp652:
	.loc	2 215 20
	movq	%rax, %rdi
	shrq	$28, %rdi
Ltmp653:
	.loc	2 214 13
	xorl	%ecx, %edx
	xorl	%esi, %edx
Ltmp654:
	.loc	2 215 20
	movq	%rax, %rcx
	shrq	$32, %rcx
Ltmp655:
	movq	%rax, %rsi
	shrq	$36, %rsi
Ltmp656:
	.loc	2 214 13
	xorl	%edi, %ecx
Ltmp657:
	.loc	2 215 20
	movq	%rax, %rdi
	shrq	$40, %rdi
Ltmp658:
	.loc	2 214 13
	xorl	%ecx, %esi
Ltmp659:
	.loc	2 215 20
	movq	%rax, %rcx
	shrq	$44, %rcx
Ltmp660:
	.loc	2 214 13
	xorl	%esi, %edi
	xorl	%edx, %edi
Ltmp661:
	.loc	2 215 20
	movq	%rax, %rdx
	shrq	$48, %rdx
Ltmp662:
	movq	%rax, %rsi
	shrq	$52, %rsi
Ltmp663:
	.loc	2 214 13
	xorl	%ecx, %edx
Ltmp664:
	.loc	2 215 20
	movq	%rax, %rcx
	shrq	$56, %rcx
Ltmp665:
	.loc	2 214 13
	xorl	%edx, %esi
Ltmp666:
	.loc	2 215 20
	shrq	$60, %rax
Ltmp667:
	.loc	2 214 13
	xorl	%esi, %ecx
	xorl	%edi, %ecx
	andl	$15, %ecx
	xorl	%ecx, %eax
Ltmp668:
	.loc	2 219 6
	addq	$8, %rsp
	popq	%rbx
Ltmp669:
	popq	%rbp
	retq
Ltmp670:
Lfunc_end50:
	.cfi_endproc

	.p2align	4, 0x90
__ZN4rand6jitter9JitterRng9lfsr_time17h06bd85fa907873f2E:
Lfunc_begin51:
	.loc	2 232 0
	.cfi_startproc
	pushq	%rbp
	.cfi_def_cfa_offset 16
	.cfi_offset %rbp, -16
	movq	%rsp, %rbp
	.cfi_def_cfa_register %rbp
	pushq	%r15
	pushq	%r14
	pushq	%rbx
	pushq	%rax
	.cfi_offset %rbx, -40
	.cfi_offset %r14, -32
	.cfi_offset %r15, -24
	movq	%rsi, %r15
Ltmp671:
	movq	%rdi, %r14
Ltmp672:
	.loc	2 263 9 prologue_end
	testb	%dl, %dl
	je	LBB51_1
Ltmp673:
	.loc	2 263 41 is_stmt 0
	movq	%r14, %rdi
	callq	__ZN4rand6jitter9JitterRng15random_loop_cnt17h22eda131176b9002E
Ltmp674:
	.loc	2 0 41
	xorl	%r8d, %r8d
Ltmp675:
	xorl	%edx, %edx
Ltmp676:
	.loc	12 1137 52 is_stmt 1
	testl	%eax, %eax
Ltmp677:
	.loc	45 211 9
	je	LBB51_6
Ltmp678:
	.p2align	4, 0x90
LBB51_3:
	.loc	45 0 9 is_stmt 0
	movl	$63, %ecx
Ltmp679:
	.p2align	4, 0x90
LBB51_4:
	.loc	2 235 31 is_stmt 1
	movq	%r15, %r9
	shlq	%cl, %r9
Ltmp680:
	.loc	2 0 31 is_stmt 0
	movq	%rdx, %r11
Ltmp681:
	.loc	2 236 23 is_stmt 1
	shrq	$63, %r9
Ltmp682:
	.loc	2 247 25
	shrq	$63, %rdx
Ltmp683:
	.loc	2 248 25
	movq	%r11, %r10
	shrq	$60, %r10
	andl	$1, %r10d
	.loc	2 249 25
	movq	%r11, %rdi
	shrq	$55, %rdi
	andl	$1, %edi
	.loc	2 250 25
	movl	%r11d, %esi
	shrl	$30, %esi
	andl	$1, %esi
	.loc	2 248 17
	xorq	%rdi, %rsi
	.loc	2 251 25
	movl	%r11d, %edi
	shrl	$27, %edi
	andl	$1, %edi
	.loc	2 252 25
	movl	%r11d, %ebx
	shrl	$22, %ebx
	andl	$1, %ebx
	.loc	2 250 17
	xorq	%rdi, %rbx
	.loc	2 246 17
	xorq	%r11, %rdx
	.loc	2 247 17
	xorq	%r10, %rdx
	.loc	2 249 17
	xorq	%rsi, %rdx
	.loc	2 251 17
	xorq	%rbx, %rdx
	.loc	2 252 17
	xorq	%r9, %rdx
Ltmp684:
	.loc	35 2704 17
	shldq	$1, %r11, %rdx
Ltmp685:
	.loc	12 1137 52
	decq	%rcx
	cmpq	$-1, %rcx
Ltmp686:
	.loc	45 211 9
	jne	LBB51_4
Ltmp687:
	.loc	35 3632 30
	incl	%r8d
Ltmp688:
	.loc	12 1137 52
	cmpl	%eax, %r8d
Ltmp689:
	.loc	45 211 9
	jne	LBB51_3
	jmp	LBB51_6
Ltmp690:
LBB51_1:
	.loc	45 0 9 is_stmt 0
	xorl	%edx, %edx
Ltmp691:
LBB51_6:
	movq	%rdx, -32(%rbp)
Ltmp692:
	.loc	27 1001 5 is_stmt 1
	movq	-32(%rbp), %rax
Ltmp693:
	.loc	2 271 26
	movq	(%r14), %rax
Ltmp694:
	.loc	2 0 26 is_stmt 0
	movl	$63, %ecx
Ltmp695:
	.p2align	4, 0x90
LBB51_7:
	.loc	2 235 31 is_stmt 1
	movq	%r15, %r8
	shlq	%cl, %r8
Ltmp696:
	.loc	2 0 31 is_stmt 0
	movq	%rax, %rsi
Ltmp697:
	.loc	2 236 23 is_stmt 1
	shrq	$63, %r8
Ltmp698:
	.loc	2 247 25
	shrq	$63, %rax
	.loc	2 248 25
	movq	%rsi, %r9
	shrq	$60, %r9
	andl	$1, %r9d
	.loc	2 249 25
	movq	%rsi, %rdx
Ltmp699:
	shrq	$55, %rdx
	andl	$1, %edx
	.loc	2 250 25
	movl	%esi, %edi
	shrl	$30, %edi
	andl	$1, %edi
	.loc	2 248 17
	xorq	%rdx, %rdi
	.loc	2 251 25
	movl	%esi, %edx
	shrl	$27, %edx
	andl	$1, %edx
	.loc	2 252 25
	movl	%esi, %ebx
	shrl	$22, %ebx
	andl	$1, %ebx
	.loc	2 250 17
	xorq	%rdx, %rbx
	.loc	2 246 17
	xorq	%rsi, %rax
	.loc	2 247 17
	xorq	%r9, %rax
	.loc	2 249 17
	xorq	%rdi, %rax
	.loc	2 251 17
	xorq	%rbx, %rax
	.loc	2 252 17
	xorq	%r8, %rax
Ltmp700:
	.loc	35 2704 17
	shldq	$1, %rsi, %rax
Ltmp701:
	.loc	12 1137 52
	decq	%rcx
	cmpq	$-1, %rcx
Ltmp702:
	.loc	45 211 9
	jne	LBB51_7
Ltmp703:
	.loc	2 271 9
	movq	%rax, (%r14)
Ltmp704:
	.loc	2 272 6
	addq	$8, %rsp
	popq	%rbx
	popq	%r14
Ltmp705:
	popq	%r15
Ltmp706:
	popq	%rbp
	retq
Ltmp707:
Lfunc_end51:
	.cfi_endproc

	.p2align	4, 0x90
__ZN4rand6jitter9JitterRng9memaccess17hee949579ff237e78E:
Lfunc_begin52:
	.loc	2 291 0
	.cfi_startproc
	pushq	%rbp
	.cfi_def_cfa_offset 16
	.cfi_offset %rbp, -16
	movq	%rsp, %rbp
	.cfi_def_cfa_register %rbp
	pushq	%rbx
	pushq	%rax
	.cfi_offset %rbx, -24
	movq	%rdi, %rbx
Ltmp708:
	movl	$128, %eax
Ltmp709:
	.loc	2 293 9 prologue_end
	testb	%sil, %sil
	je	LBB52_2
Ltmp710:
	.loc	2 293 41 is_stmt 0
	movq	%rbx, %rdi
	callq	__ZN4rand6jitter9JitterRng15random_loop_cnt17h22eda131176b9002E
Ltmp711:
	.loc	2 293 25
	addl	$128, %eax
	jb	LBB52_6
Ltmp712:
LBB52_2:
	.loc	2 295 25 is_stmt 1
	movq	40(%rbx), %rcx
Ltmp713:
	.p2align	4, 0x90
LBB52_3:
	.loc	2 301 22
	addq	$32, %rcx
Ltmp714:
	jb	LBB52_7
Ltmp715:
	.loc	2 301 21 is_stmt 0
	decl	%ecx
	.loc	2 301 13
	andl	$2047, %ecx
Ltmp716:
	.loc	2 306 13 is_stmt 1
	incb	60(%rbx,%rcx)
Ltmp717:
	.loc	12 1137 52
	decl	%eax
Ltmp718:
	.loc	45 211 9
	jne	LBB52_3
Ltmp719:
	.loc	2 308 9
	movq	%rcx, 40(%rbx)
Ltmp720:
	.loc	2 309 6
	addq	$8, %rsp
	popq	%rbx
Ltmp721:
	popq	%rbp
	retq
Ltmp722:
LBB52_7:
	.loc	2 301 22
	leaq	_str.3(%rip), %rdi
	leaq	l___unnamed_79(%rip), %rdx
	movl	$28, %esi
	callq	__ZN4core9panicking5panic17h736ee47a631475c0E
Ltmp723:
LBB52_6:
	.loc	2 293 25
	leaq	_str.3(%rip), %rdi
	leaq	l___unnamed_80(%rip), %rdx
	movl	$28, %esi
	callq	__ZN4core9panicking5panic17h736ee47a631475c0E
Ltmp724:
Lfunc_end52:
	.cfi_endproc

	.p2align	4, 0x90
__ZN4rand6jitter9JitterRng9stir_pool17h03cd17e515a1b6b2E:
Lfunc_begin53:
	.loc	2 384 0
	.cfi_startproc
	pushq	%rbp
	.cfi_def_cfa_offset 16
	.cfi_offset %rbp, -16
	movq	%rsp, %rbp
	.cfi_def_cfa_register %rbp
Ltmp725:
	movabsq	$9223372036854775807, %r8
	movabsq	$7441392450524785545, %r9
Ltmp726:
	.loc	2 0 0 prologue_end
	movq	(%rdi), %r10
	movabsq	$-7441392450524785546, %rsi
	xorl	%r11d, %r11d
Ltmp727:
	.p2align	4, 0x90
LBB53_1:
	.loc	2 408 25
	movq	%r10, %rdx
	movl	%r11d, %ecx
	shrq	%cl, %rdx
	andl	$1, %edx
Ltmp728:
	.loc	35 3343 17
	addq	%r8, %rdx
Ltmp729:
	.loc	2 410 22
	andq	%r9, %rdx
Ltmp730:
	movq	%rsi, %rax
	xorq	%r9, %rax
	.loc	2 410 13 is_stmt 0
	xorq	%rdx, %rax
Ltmp731:
	.loc	35 2704 17 is_stmt 1
	shldq	$1, %rsi, %rax
Ltmp732:
	.loc	2 408 25
	leal	1(%r11), %ecx
	movq	%r10, %rdx
	shrq	%cl, %rdx
	andl	$1, %edx
Ltmp733:
	.loc	35 3343 17
	addq	%r8, %rdx
Ltmp734:
	.loc	2 410 22
	andq	%r9, %rdx
Ltmp735:
	movq	%rax, %rsi
	xorq	%r9, %rsi
	.loc	2 410 13 is_stmt 0
	xorq	%rdx, %rsi
Ltmp736:
	.loc	35 2704 17 is_stmt 1
	shldq	$1, %rax, %rsi
Ltmp737:
	.loc	12 1137 52
	addq	$2, %r11
Ltmp738:
	cmpq	$64, %r11
Ltmp739:
	.loc	45 211 9
	jne	LBB53_1
Ltmp740:
	.loc	2 414 9
	xorq	%rsi, %r10
	movq	%r10, (%rdi)
Ltmp741:
	.loc	2 415 6
	popq	%rbp
	retq
Ltmp742:
Lfunc_end53:
	.cfi_endproc

	.globl	__ZN4rand6jitter9JitterRng10test_timer17hc19a158f51957c9aE
	.p2align	4, 0x90
__ZN4rand6jitter9JitterRng10test_timer17hc19a158f51957c9aE:
Lfunc_begin54:
	.loc	2 439 0
	.cfi_startproc
	pushq	%rbp
	.cfi_def_cfa_offset 16
	.cfi_offset %rbp, -16
	movq	%rsp, %rbp
	.cfi_def_cfa_register %rbp
	pushq	%r15
	pushq	%r14
	pushq	%r13
	pushq	%r12
	pushq	%rbx
	subq	$40, %rsp
	.cfi_offset %rbx, -56
	.cfi_offset %r12, -48
	.cfi_offset %r13, -40
	.cfi_offset %r14, -32
	.cfi_offset %r15, -24
	movq	%rdi, %r12
Ltmp743:
	xorl	%r15d, %r15d
Ltmp744:
	xorl	%r13d, %r13d
	xorl	%eax, %eax
	movq	%rax, -56(%rbp)
	xorl	%eax, %eax
	movq	%rax, -64(%rbp)
	movl	$0, -44(%rbp)
	xorl	%eax, %eax
	movq	%rax, -72(%rbp)
	xorl	%r14d, %r14d
Ltmp745:
	.p2align	4, 0x90
LBB54_1:
	.loc	12 1137 52 prologue_end
	cmpq	$400, %r13
Ltmp746:
	.loc	45 211 9
	jae	LBB54_21
Ltmp747:
LBB54_2:
	.loc	2 461 24
	callq	*8(%r12)
	movq	%rax, %rbx
Ltmp748:
	.loc	2 462 13
	movq	%r12, %rdi
	movl	$1, %esi
	callq	__ZN4rand6jitter9JitterRng9memaccess17hee949579ff237e78E
	.loc	2 463 13
	movq	%r12, %rdi
	movq	%rbx, %rsi
	movl	$1, %edx
	callq	__ZN4rand6jitter9JitterRng9lfsr_time17h06bd85fa907873f2E
	.loc	2 464 25
	callq	*8(%r12)
Ltmp749:
	.loc	2 0 25 is_stmt 0
	movl	$1, %edx
Ltmp750:
	.loc	2 467 16 is_stmt 1
	testq	%rbx, %rbx
	.loc	2 467 13 is_stmt 0
	je	LBB54_27
Ltmp751:
	testq	%rax, %rax
	je	LBB54_27
Ltmp752:
	.loc	2 475 16 is_stmt 1
	movq	%rax, %rcx
	subq	%rbx, %rcx
	.loc	2 475 13 is_stmt 0
	je	LBB54_23
Ltmp753:
	.loc	2 0 0
	incq	%r13
Ltmp754:
	.loc	2 484 16 is_stmt 1
	leaq	-1(%r13), %rdx
	cmpq	$100, %rdx
	.loc	2 484 13 is_stmt 0
	jb	LBB54_1
Ltmp755:
	.loc	2 322 22 is_stmt 1
	movq	24(%r12), %rdx
	subq	%rcx, %rdx
Ltmp756:
	jo	LBB54_41
Ltmp757:
	.loc	2 323 22
	movq	%rdx, %rsi
	subq	32(%r12), %rsi
	jo	LBB54_42
Ltmp758:
	.loc	2 325 9
	movq	%rcx, 24(%r12)
	.loc	2 326 9
	movq	%rdx, 32(%r12)
	.loc	2 328 31
	testq	%rdx, %rdx
Ltmp759:
	.loc	2 486 13
	je	LBB54_10
Ltmp760:
	testq	%rsi, %rsi
	jne	LBB54_11
Ltmp761:
LBB54_10:
	.loc	2 486 36 is_stmt 0
	incq	-56(%rbp)
	je	LBB54_43
Ltmp762:
LBB54_11:
	.loc	2 489 17 is_stmt 1
	cmpq	%rbx, %rax
	.loc	2 489 13 is_stmt 0
	ja	LBB54_13
Ltmp763:
	.loc	2 489 34
	incl	-44(%rbp)
	jo	LBB54_44
Ltmp764:
LBB54_13:
	.loc	2 493 16 is_stmt 1
	movq	%rcx, %rax
Ltmp765:
	movabsq	$-6640827866535438581, %rdx
	imulq	%rdx
	addq	%rcx, %rdx
	movq	%rdx, %rax
	shrq	$63, %rax
	sarq	$6, %rdx
	addq	%rax, %rdx
	imulq	$100, %rdx, %rax
	cmpq	%rax, %rcx
	.loc	2 493 13 is_stmt 0
	jne	LBB54_15
Ltmp766:
	.loc	2 493 37
	incq	-64(%rbp)
	je	LBB54_45
Ltmp767:
LBB54_15:
	.loc	2 498 26 is_stmt 1
	movq	%rcx, %rax
	subq	-72(%rbp), %rax
	jo	LBB54_46
Ltmp768:
	.loc	35 2193 54
	testq	%rax, %rax
Ltmp769:
	.loc	35 2121 17
	jns	LBB54_19
Ltmp770:
	.loc	35 2122 21
	movabsq	$-9223372036854775808, %rdx
	cmpq	%rdx, %rax
	je	LBB54_47
Ltmp771:
	negq	%rax
Ltmp772:
LBB54_19:
	.loc	2 498 13
	addq	%rax, %r14
Ltmp773:
	jb	LBB54_48
Ltmp774:
	.loc	2 0 13 is_stmt 0
	movq	%rcx, -72(%rbp)
Ltmp775:
	.loc	12 1137 52 is_stmt 1
	cmpq	$400, %r13
Ltmp776:
	.loc	45 211 9
	jb	LBB54_2
Ltmp777:
LBB54_21:
	.loc	45 0 9 is_stmt 0
	movl	$1, %edx
	.loc	2 507 12 is_stmt 1
	cmpl	$3, -44(%rbp)
	.loc	2 507 9 is_stmt 0
	jle	LBB54_24
Ltmp778:
	.loc	2 0 9
	movl	$512, %eax
	xorl	%r15d, %r15d
	jmp	LBB54_40
Ltmp779:
LBB54_27:
	xorl	%eax, %eax
Ltmp780:
	jmp	LBB54_40
Ltmp781:
LBB54_23:
	movl	$256, %eax
Ltmp782:
	jmp	LBB54_40
Ltmp783:
LBB54_24:
	.loc	2 518 12 is_stmt 1
	cmpq	$300, %r14
	.loc	2 518 9 is_stmt 0
	jae	LBB54_28
Ltmp784:
	.loc	2 0 9
	movl	$768, %eax
	xorl	%r15d, %r15d
	jmp	LBB54_40
Ltmp785:
LBB54_28:
	.loc	2 525 12 is_stmt 1
	cmpq	$270, -64(%rbp)
	.loc	2 525 9 is_stmt 0
	jbe	LBB54_30
Ltmp786:
	.loc	2 0 9
	movl	$256, %eax
	xorl	%r15d, %r15d
	jmp	LBB54_40
Ltmp787:
LBB54_30:
	.loc	2 531 12 is_stmt 1
	cmpq	$270, -56(%rbp)
	.loc	2 531 9 is_stmt 0
	jbe	LBB54_32
Ltmp788:
	.loc	2 0 9
	movl	$1024, %eax
	xorl	%r15d, %r15d
	jmp	LBB54_40
Ltmp789:
LBB54_32:
	movabsq	$7870610804782742023, %rcx
	.loc	2 554 29 is_stmt 1
	movq	%r14, %rax
	mulq	%rcx
	movq	%rdx, %rcx
	shrq	$7, %rcx
Ltmp790:
	.loc	35 3969 24
	movq	%rcx, %rax
	mulq	%rcx
	jo	LBB54_49
Ltmp791:
	.loc	35 0 0 is_stmt 0
	movq	%rax, %rdx
Ltmp792:
	.loc	35 3976 23 is_stmt 1
	movq	%rcx, %rax
	mulq	%rdx
	jo	LBB54_50
Ltmp793:
	.loc	35 2616 17
	testq	%rax, %rax
	je	LBB54_36
Ltmp794:
	bsrq	%rax, %rax
Ltmp795:
	xorq	$63, %rax
	movl	$64, %ecx
Ltmp796:
	.loc	2 558 34
	subl	%eax, %ecx
	jb	LBB54_51
Ltmp797:
LBB54_37:
	.loc	2 561 30
	incl	%ecx
	je	LBB54_52
Ltmp798:
	.loc	2 561 12 is_stmt 0
	testl	%ecx, %ecx
	je	LBB54_53
Ltmp799:
	movl	$384, %eax
	xorl	%edx, %edx
	divl	%ecx
	movl	%eax, %r15d
Ltmp800:
	.loc	2 562 6 is_stmt 1
	shlq	$32, %r15
	xorl	%eax, %eax
	xorl	%edx, %edx
Ltmp801:
LBB54_40:
	orq	%rdx, %r15
	orq	%rax, %r15
	movq	%r15, %rax
	addq	$40, %rsp
	popq	%rbx
	popq	%r12
Ltmp802:
	popq	%r13
	popq	%r14
	popq	%r15
	popq	%rbp
	retq
LBB54_36:
Ltmp803:
	.loc	2 0 6 is_stmt 0
	movl	$64, %eax
	movl	$64, %ecx
Ltmp804:
	.loc	2 558 34 is_stmt 1
	subl	%eax, %ecx
	jae	LBB54_37
Ltmp805:
LBB54_51:
	leaq	_str.4(%rip), %rdi
	leaq	l___unnamed_81(%rip), %rdx
	movl	$33, %esi
	callq	__ZN4core9panicking5panic17h736ee47a631475c0E
Ltmp806:
LBB54_41:
	.loc	2 322 22
	leaq	_str.4(%rip), %rdi
	leaq	l___unnamed_77(%rip), %rdx
	movl	$33, %esi
	callq	__ZN4core9panicking5panic17h736ee47a631475c0E
Ltmp807:
LBB54_42:
	.loc	2 323 22
	leaq	_str.4(%rip), %rdi
	leaq	l___unnamed_78(%rip), %rdx
Ltmp808:
	movl	$33, %esi
	callq	__ZN4core9panicking5panic17h736ee47a631475c0E
Ltmp809:
LBB54_43:
	.loc	2 486 36
	leaq	_str.3(%rip), %rdi
	leaq	l___unnamed_82(%rip), %rdx
	movl	$28, %esi
	callq	__ZN4core9panicking5panic17h736ee47a631475c0E
Ltmp810:
LBB54_44:
	.loc	2 489 34
	leaq	_str.3(%rip), %rdi
	leaq	l___unnamed_83(%rip), %rdx
	movl	$28, %esi
	callq	__ZN4core9panicking5panic17h736ee47a631475c0E
Ltmp811:
LBB54_45:
	.loc	2 493 37
	leaq	_str.3(%rip), %rdi
	leaq	l___unnamed_84(%rip), %rdx
	movl	$28, %esi
	callq	__ZN4core9panicking5panic17h736ee47a631475c0E
Ltmp812:
LBB54_46:
	.loc	2 498 26
	leaq	_str.4(%rip), %rdi
	leaq	l___unnamed_85(%rip), %rdx
	movl	$33, %esi
	callq	__ZN4core9panicking5panic17h736ee47a631475c0E
Ltmp813:
LBB54_47:
	.loc	35 2122 21
	leaq	_str.0(%rip), %rdi
	leaq	l___unnamed_86(%rip), %rdx
	movl	$31, %esi
	callq	__ZN4core9panicking5panic17h736ee47a631475c0E
Ltmp814:
LBB54_48:
	.loc	2 498 13
	leaq	_str.3(%rip), %rdi
	leaq	l___unnamed_87(%rip), %rdx
	movl	$28, %esi
	callq	__ZN4core9panicking5panic17h736ee47a631475c0E
Ltmp815:
LBB54_49:
	.loc	35 3969 24
	leaq	_str.1(%rip), %rdi
	leaq	l___unnamed_88(%rip), %rdx
	movl	$33, %esi
	callq	__ZN4core9panicking5panic17h736ee47a631475c0E
Ltmp816:
LBB54_50:
	.loc	35 3976 23
	leaq	_str.1(%rip), %rdi
	leaq	l___unnamed_89(%rip), %rdx
	movl	$33, %esi
	callq	__ZN4core9panicking5panic17h736ee47a631475c0E
Ltmp817:
LBB54_52:
	.loc	2 561 30
	leaq	_str.3(%rip), %rdi
	leaq	l___unnamed_90(%rip), %rdx
	movl	$28, %esi
	callq	__ZN4core9panicking5panic17h736ee47a631475c0E
Ltmp818:
LBB54_53:
	.loc	2 561 12 is_stmt 0
	leaq	_str.2(%rip), %rdi
	leaq	l___unnamed_91(%rip), %rdx
	movl	$25, %esi
	callq	__ZN4core9panicking5panic17h736ee47a631475c0E
Ltmp819:
Lfunc_end54:
	.cfi_endproc

	.globl	__ZN4rand6jitter9JitterRng11timer_stats17h7f9e6b3047862a16E
	.p2align	4, 0x90
__ZN4rand6jitter9JitterRng11timer_stats17h7f9e6b3047862a16E:
Lfunc_begin55:
	.loc	2 656 0 is_stmt 1
	.cfi_startproc
	pushq	%rbp
	.cfi_def_cfa_offset 16
	.cfi_offset %rbp, -16
	movq	%rsp, %rbp
	.cfi_def_cfa_register %rbp
	pushq	%r15
	pushq	%r14
	pushq	%rbx
	pushq	%rax
	.cfi_offset %rbx, -40
	.cfi_offset %r14, -32
	.cfi_offset %r15, -24
	movl	%esi, %r14d
Ltmp820:
	movq	%rdi, %rbx
Ltmp821:
	.loc	2 688 18 prologue_end
	callq	_mach_absolute_time
	movq	%rax, %r15
Ltmp822:
	.loc	2 658 9
	movq	%rbx, %rdi
	movl	%r14d, %esi
	callq	__ZN4rand6jitter9JitterRng9memaccess17hee949579ff237e78E
	.loc	2 659 9
	movq	%rbx, %rdi
	movq	%r15, %rsi
	movl	%r14d, %edx
	callq	__ZN4rand6jitter9JitterRng9lfsr_time17h06bd85fa907873f2E
Ltmp823:
	.loc	2 688 18
	callq	_mach_absolute_time
Ltmp824:
	.loc	35 3343 17
	subq	%r15, %rax
Ltmp825:
	.loc	2 662 6
	addq	$8, %rsp
	popq	%rbx
Ltmp826:
	popq	%r14
Ltmp827:
	popq	%r15
Ltmp828:
	popq	%rbp
	retq
Ltmp829:
Lfunc_end55:
	.cfi_endproc

	.p2align	4, 0x90
__ZN4rand6jitter8platform10get_nstime17h38a14371de558779E:
Lfunc_begin56:
	.loc	2 680 0
	.cfi_startproc
	pushq	%rbp
	.cfi_def_cfa_offset 16
	.cfi_offset %rbp, -16
	movq	%rsp, %rbp
	.cfi_def_cfa_register %rbp
Ltmp830:
	.loc	2 688 18 prologue_end
	popq	%rbp
	jmp	_mach_absolute_time
Ltmp831:
Lfunc_end56:
	.cfi_endproc

	.globl	__ZN53_$LT$rand..jitter..JitterRng$u20$as$u20$rand..Rng$GT$8next_u3217h4593e1fb95e9a509E
	.p2align	4, 0x90
__ZN53_$LT$rand..jitter..JitterRng$u20$as$u20$rand..Rng$GT$8next_u3217h4593e1fb95e9a509E:
Lfunc_begin57:
	.loc	2 718 0
	.cfi_startproc
	pushq	%rbp
	.cfi_def_cfa_offset 16
	.cfi_offset %rbp, -16
	movq	%rsp, %rbp
	.cfi_def_cfa_register %rbp
Ltmp832:
	pushq	%rbx
	pushq	%rax
	.cfi_offset %rbx, -24
Ltmp833:
	.loc	14 2058 5 prologue_end
	movq	52(%rdi), %rax
Ltmp834:
	.loc	14 2058 5 is_stmt 0
	movq	$0, 52(%rdi)
Ltmp835:
	.loc	2 720 16 is_stmt 1
	cmpl	$1, %eax
	jne	LBB57_2
Ltmp836:
	.loc	2 0 16 is_stmt 0
	shrq	$32, %rax
	.loc	2 727 6 is_stmt 1
	addq	$8, %rsp
	popq	%rbx
	popq	%rbp
	retq
Ltmp837:
LBB57_2:
	.loc	2 0 6 is_stmt 0
	movq	%rdi, %rbx
Ltmp838:
	.loc	2 723 24 is_stmt 1
	callq	__ZN53_$LT$rand..jitter..JitterRng$u20$as$u20$rand..Rng$GT$8next_u6417h4e1503284b53c1b3E
Ltmp839:
	.loc	2 724 40
	movq	%rax, %rcx
	shrq	$32, %rcx
	.loc	2 724 13 is_stmt 0
	movl	$1, 52(%rbx)
	movl	%ecx, 56(%rbx)
Ltmp840:
	.loc	2 727 6 is_stmt 1
	addq	$8, %rsp
	popq	%rbx
Ltmp841:
	popq	%rbp
	retq
Ltmp842:
Lfunc_end57:
	.cfi_endproc

	.globl	__ZN53_$LT$rand..jitter..JitterRng$u20$as$u20$rand..Rng$GT$8next_u6417h4e1503284b53c1b3E
	.p2align	4, 0x90
__ZN53_$LT$rand..jitter..JitterRng$u20$as$u20$rand..Rng$GT$8next_u6417h4e1503284b53c1b3E:
Lfunc_begin58:
	.loc	2 729 0
	.cfi_startproc
	pushq	%rbp
	.cfi_def_cfa_offset 16
	.cfi_offset %rbp, -16
	movq	%rsp, %rbp
	.cfi_def_cfa_register %rbp
	pushq	%r15
	pushq	%r14
	pushq	%r12
	pushq	%rbx
	.cfi_offset %rbx, -48
	.cfi_offset %r12, -40
	.cfi_offset %r14, -32
	.cfi_offset %r15, -24
	movq	%rdi, %r15
Ltmp843:
	.loc	2 340 9 prologue_end
	movl	$1, %esi
	callq	__ZN4rand6jitter9JitterRng9memaccess17hee949579ff237e78E
	.loc	2 344 20
	callq	*8(%r15)
Ltmp844:
	.loc	35 3343 17
	movq	%rax, %r14
	subq	16(%r15), %r14
Ltmp845:
	.loc	2 349 9
	movq	%rax, 16(%r15)
	.loc	2 352 9
	movq	%r15, %rdi
	movq	%r14, %rsi
	movl	$1, %edx
	callq	__ZN4rand6jitter9JitterRng9lfsr_time17h06bd85fa907873f2E
Ltmp846:
	.loc	2 322 22
	movq	24(%r15), %rax
	subq	%r14, %rax
Ltmp847:
	jo	LBB58_16
Ltmp848:
	.loc	2 323 22
	movq	%rax, %rcx
	subq	32(%r15), %rcx
	jo	LBB58_15
Ltmp849:
	.loc	2 325 9
	movq	%r14, 24(%r15)
	.loc	2 326 9
	movq	%rax, 32(%r15)
	.loc	2 328 9
	testq	%r14, %r14
Ltmp850:
	.loc	2 356 9
	je	LBB58_6
Ltmp851:
	testq	%rax, %rax
	je	LBB58_6
Ltmp852:
	testq	%rcx, %rcx
	je	LBB58_6
Ltmp853:
	.loc	2 365 9
	rolq	$7, (%r15)
Ltmp854:
LBB58_6:
	.loc	2 422 21
	movl	48(%r15), %r14d
Ltmp855:
	.loc	12 1137 52
	testl	%r14d, %r14d
Ltmp856:
	.loc	45 211 9
	je	LBB58_14
Ltmp857:
	.loc	45 0 9 is_stmt 0
	xorl	%r12d, %r12d
Ltmp858:
	.p2align	4, 0x90
LBB58_9:
	.loc	2 340 9 is_stmt 1
	movq	%r15, %rdi
	movl	$1, %esi
	callq	__ZN4rand6jitter9JitterRng9memaccess17hee949579ff237e78E
	.loc	2 344 20
	callq	*8(%r15)
Ltmp859:
	.loc	35 3343 17
	movq	%rax, %rbx
	subq	16(%r15), %rbx
Ltmp860:
	.loc	2 349 9
	movq	%rax, 16(%r15)
	.loc	2 352 9
	movq	%r15, %rdi
	movq	%rbx, %rsi
	movl	$1, %edx
	callq	__ZN4rand6jitter9JitterRng9lfsr_time17h06bd85fa907873f2E
Ltmp861:
	.loc	2 322 22
	movq	24(%r15), %rax
	subq	%rbx, %rax
Ltmp862:
	jo	LBB58_16
Ltmp863:
	.loc	2 323 22
	movq	%rax, %rcx
	subq	32(%r15), %rcx
	jo	LBB58_15
Ltmp864:
	.loc	2 325 9
	movq	%rbx, 24(%r15)
	.loc	2 326 9
	movq	%rax, 32(%r15)
	.loc	2 328 9
	testq	%rbx, %rbx
Ltmp865:
	.loc	2 356 9
	je	LBB58_9
Ltmp866:
	testq	%rax, %rax
	je	LBB58_9
Ltmp867:
	testq	%rcx, %rcx
	je	LBB58_9
Ltmp868:
	.loc	2 365 9
	rolq	$7, (%r15)
Ltmp869:
	.loc	35 3632 30
	incl	%r12d
Ltmp870:
	.loc	12 1137 52
	cmpl	%r14d, %r12d
Ltmp871:
	.loc	45 211 9
	jne	LBB58_9
Ltmp872:
LBB58_14:
	.loc	2 429 9
	movq	%r15, %rdi
	callq	__ZN4rand6jitter9JitterRng9stir_pool17h03cd17e515a1b6b2E
	.loc	2 430 9
	movq	(%r15), %rax
Ltmp873:
	.loc	2 731 6
	popq	%rbx
	popq	%r12
	popq	%r14
	popq	%r15
Ltmp874:
	popq	%rbp
	retq
LBB58_16:
Ltmp875:
	.loc	2 0 0 is_stmt 0
	leaq	_str.4(%rip), %rdi
	leaq	l___unnamed_77(%rip), %rdx
	movl	$33, %esi
	callq	__ZN4core9panicking5panic17h736ee47a631475c0E
Ltmp876:
LBB58_15:
	leaq	_str.4(%rip), %rdi
	leaq	l___unnamed_78(%rip), %rdx
	movl	$33, %esi
	callq	__ZN4core9panicking5panic17h736ee47a631475c0E
Ltmp877:
Lfunc_end58:
	.cfi_endproc

	.globl	__ZN53_$LT$rand..jitter..JitterRng$u20$as$u20$rand..Rng$GT$10fill_bytes17hb4edf22a7510b44eE
	.p2align	4, 0x90
__ZN53_$LT$rand..jitter..JitterRng$u20$as$u20$rand..Rng$GT$10fill_bytes17hb4edf22a7510b44eE:
Lfunc_begin59:
	.loc	2 733 0 is_stmt 1
	.cfi_startproc
	pushq	%rbp
	.cfi_def_cfa_offset 16
	.cfi_offset %rbp, -16
	movq	%rsp, %rbp
	.cfi_def_cfa_register %rbp
	pushq	%r15
	pushq	%r14
	pushq	%r12
	pushq	%rbx
	subq	$16, %rsp
	.cfi_offset %rbx, -48
	.cfi_offset %r12, -40
	.cfi_offset %r14, -32
	.cfi_offset %r15, -24
	movq	%rdx, %r14
Ltmp878:
	movq	%rsi, %r12
Ltmp879:
	movq	%rdi, %r15
Ltmp880:
	.loc	2 735 15 prologue_end
	cmpq	$8, %rdx
	.loc	2 735 9 is_stmt 0
	jb	LBB59_4
Ltmp881:
	.loc	2 0 9
	movq	%r14, %rbx
Ltmp882:
	.p2align	4, 0x90
LBB59_2:
	.loc	22 1068 77 is_stmt 1
	addq	$-8, %rbx
Ltmp883:
	.loc	2 739 32
	movq	%r15, %rdi
	callq	__ZN53_$LT$rand..jitter..JitterRng$u20$as$u20$rand..Rng$GT$8next_u6417h4e1503284b53c1b3E
Ltmp884:
	.loc	14 2058 5
	movq	%rax, (%r12)
Ltmp885:
	.loc	38 152 9
	addq	$8, %r12
Ltmp886:
	.loc	2 735 15
	cmpq	$7, %rbx
	.loc	2 735 9 is_stmt 0
	ja	LBB59_2
Ltmp887:
	andl	$7, %r14d
Ltmp888:
LBB59_4:
	.loc	2 744 12 is_stmt 1
	testq	%r14, %r14
	.loc	2 744 9 is_stmt 0
	je	LBB59_6
Ltmp889:
	.loc	2 746 32 is_stmt 1
	movq	%r15, %rdi
	callq	__ZN53_$LT$rand..jitter..JitterRng$u20$as$u20$rand..Rng$GT$8next_u6417h4e1503284b53c1b3E
Ltmp890:
	.loc	2 746 17 is_stmt 0
	movq	%rax, -40(%rbp)
Ltmp891:
	.loc	2 0 17
	leaq	-40(%rbp), %rsi
Ltmp892:
	.loc	14 2058 5 is_stmt 1
	movq	%r12, %rdi
	movq	%r14, %rdx
	callq	_memcpy
Ltmp893:
LBB59_6:
	.loc	2 750 6
	addq	$16, %rsp
	popq	%rbx
	popq	%r12
	popq	%r14
	popq	%r15
Ltmp894:
	popq	%rbp
	retq
Ltmp895:
Lfunc_end59:
	.cfi_endproc

	.globl	__ZN4rand2os5OsRng3new17hf813135374a86435E
	.p2align	4, 0x90
__ZN4rand2os5OsRng3new17hf813135374a86435E:
Lfunc_begin60:
	.file	46 "/Users/yingyuhang/.cargo/registry/src/github.com-1ecc6299db9ec823/rand-0.4.6/src/os.rs"
	.loc	46 43 0
	.cfi_startproc
	pushq	%rbp
	.cfi_def_cfa_offset 16
	.cfi_offset %rbp, -16
	movq	%rsp, %rbp
	.cfi_def_cfa_register %rbp
	pushq	%r15
	pushq	%r14
	pushq	%rbx
	subq	$40, %rsp
	.cfi_offset %rbx, -40
	.cfi_offset %r14, -32
	.cfi_offset %r15, -24
	movq	%rdi, %rbx
	leaq	-40(%rbp), %r14
Ltmp896:
	.file	47 "/rustc/a74d1862d4d87a56244958416fd05976c58ca1a8/src/libstd/fs.rs"
	.loc	47 375 9 prologue_end
	movq	%r14, %rdi
	callq	__ZN3std2fs11OpenOptions3new17hf0940b7caeb96880E
	movl	$1, %r15d
	movq	%r14, %rdi
	movl	$1, %esi
	callq	__ZN3std2fs11OpenOptions4read17hb48ec3bff1fb6e12E
	movq	%rax, %r14
Ltmp897:
	.loc	20 510 9
	leaq	l___unnamed_92(%rip), %rdi
	movl	$12, %esi
	callq	__ZN79_$LT$std..path..Path$u20$as$u20$core..convert..AsRef$LT$std..path..Path$GT$$GT$6as_ref17hac3cfd740319a069E
	movq	%rdx, %rcx
	leaq	-64(%rbp), %rdi
Ltmp898:
	.loc	47 966 9
	movq	%r14, %rsi
	movq	%rax, %rdx
	callq	__ZN3std2fs11OpenOptions5_open17h7ec5bd91c21db415E
Ltmp899:
	.loc	46 195 26
	cmpl	$1, -64(%rbp)
	jne	LBB60_2
Ltmp900:
	.loc	46 195 26 is_stmt 0
	movl	-56(%rbp), %eax
Ltmp901:
	movq	-52(%rbp), %rcx
	movq	%rcx, -40(%rbp)
	movl	-44(%rbp), %ecx
	movl	%ecx, -32(%rbp)
Ltmp902:
	.loc	10 520 23 is_stmt 1
	movl	%eax, 8(%rbx)
	movq	-40(%rbp), %rax
Ltmp903:
	movq	%rax, 12(%rbx)
	movl	-32(%rbp), %eax
	movl	%eax, 20(%rbx)
	jmp	LBB60_3
Ltmp904:
LBB60_2:
	.loc	46 195 26
	movl	-60(%rbp), %eax
Ltmp905:
	.loc	10 519 22
	movl	$1, 4(%rbx)
	movl	%eax, 8(%rbx)
	xorl	%r15d, %r15d
Ltmp906:
LBB60_3:
	.loc	10 520 23
	movl	%r15d, (%rbx)
Ltmp907:
	.loc	46 45 6
	movq	%rbx, %rax
	addq	$40, %rsp
	popq	%rbx
	popq	%r14
	popq	%r15
	popq	%rbp
	retq
Ltmp908:
Lfunc_end60:
	.cfi_endproc

	.globl	__ZN45_$LT$rand..os..OsRng$u20$as$u20$rand..Rng$GT$8next_u3217h770226c409076a6dE
	.p2align	4, 0x90
__ZN45_$LT$rand..os..OsRng$u20$as$u20$rand..Rng$GT$8next_u3217h770226c409076a6dE:
Lfunc_begin61:
	.loc	46 49 0
	.cfi_startproc
	pushq	%rbp
	.cfi_def_cfa_offset 16
	.cfi_offset %rbp, -16
	movq	%rsp, %rbp
	.cfi_def_cfa_register %rbp
Ltmp909:
	.loc	46 49 37 prologue_end
	popq	%rbp
	jmp	__ZN50_$LT$rand..os..imp..OsRng$u20$as$u20$rand..Rng$GT$8next_u3217hb14b9d6612797d56E
Ltmp910:
Lfunc_end61:
	.cfi_endproc

	.globl	__ZN45_$LT$rand..os..OsRng$u20$as$u20$rand..Rng$GT$8next_u6417he74bba2c6c58307dE
	.p2align	4, 0x90
__ZN45_$LT$rand..os..OsRng$u20$as$u20$rand..Rng$GT$8next_u6417he74bba2c6c58307dE:
Lfunc_begin62:
	.loc	46 50 0
	.cfi_startproc
	pushq	%rbp
	.cfi_def_cfa_offset 16
	.cfi_offset %rbp, -16
	movq	%rsp, %rbp
	.cfi_def_cfa_register %rbp
Ltmp911:
	.loc	46 50 37 prologue_end
	popq	%rbp
	jmp	__ZN50_$LT$rand..os..imp..OsRng$u20$as$u20$rand..Rng$GT$8next_u6417h063647d9bdee29e8E
Ltmp912:
Lfunc_end62:
	.cfi_endproc

	.globl	__ZN45_$LT$rand..os..OsRng$u20$as$u20$rand..Rng$GT$10fill_bytes17hc396fc69e7c13756E
	.p2align	4, 0x90
__ZN45_$LT$rand..os..OsRng$u20$as$u20$rand..Rng$GT$10fill_bytes17hc396fc69e7c13756E:
Lfunc_begin63:
	.loc	46 51 0
	.cfi_startproc
	pushq	%rbp
	.cfi_def_cfa_offset 16
	.cfi_offset %rbp, -16
	movq	%rsp, %rbp
	.cfi_def_cfa_register %rbp
Ltmp913:
	.loc	46 51 46 prologue_end
	popq	%rbp
	jmp	__ZN50_$LT$rand..os..imp..OsRng$u20$as$u20$rand..Rng$GT$10fill_bytes17he3db0fae04f1cd6eE
Ltmp914:
Lfunc_end63:
	.cfi_endproc

	.globl	__ZN52_$LT$rand..os..OsRng$u20$as$u20$core..fmt..Debug$GT$3fmt17h5afb4f85c5f93bfaE
	.p2align	4, 0x90
__ZN52_$LT$rand..os..OsRng$u20$as$u20$core..fmt..Debug$GT$3fmt17h5afb4f85c5f93bfaE:
Lfunc_begin64:
	.loc	46 55 0
	.cfi_startproc
	pushq	%rbp
	.cfi_def_cfa_offset 16
	.cfi_offset %rbp, -16
	movq	%rsp, %rbp
	.cfi_def_cfa_register %rbp
	subq	$48, %rsp
	movq	%rsi, %rdi
Ltmp915:
	.loc	28 328 9 prologue_end
	leaq	l___unnamed_93(%rip), %rax
Ltmp916:
	movq	%rax, -48(%rbp)
	movq	$1, -40(%rbp)
	movq	$0, -32(%rbp)
	leaq	l___unnamed_46(%rip), %rax
Ltmp917:
	movq	%rax, -16(%rbp)
	movq	$0, -8(%rbp)
	leaq	-48(%rbp), %rsi
Ltmp918:
	.loc	46 56 9
	callq	__ZN4core3fmt9Formatter9write_fmt17h3dc2bf45afed3069E
Ltmp919:
	.loc	46 57 6
	addq	$48, %rsp
	popq	%rbp
	retq
Ltmp920:
Lfunc_end64:
	.cfi_endproc

	.p2align	4, 0x90
__ZN4rand2os3imp20getrandom_fill_bytes17haf4df0e6cadedc58E:
Lfunc_begin65:
	.loc	46 126 0
	.cfi_startproc
	.cfi_personality 155, _rust_eh_personality
	.cfi_lsda 16, Lexception3
	pushq	%rbp
	.cfi_def_cfa_offset 16
	.cfi_offset %rbp, -16
	movq	%rsp, %rbp
	.cfi_def_cfa_register %rbp
Ltmp930:
	pushq	%r14
	pushq	%rbx
	subq	$80, %rsp
	.cfi_offset %rbx, -32
	.cfi_offset %r14, -24
Ltmp931:
	.loc	46 129 15 prologue_end
	testq	%rsi, %rsi
	.loc	46 129 9 is_stmt 0
	je	LBB65_16
Ltmp932:
	.loc	46 0 9
	leaq	-32(%rbp), %r14
	jmp	LBB65_2
Ltmp933:
	.p2align	4, 0x90
LBB65_10:
	.loc	27 178 1 is_stmt 1
	movq	-24(%rbp), %rdi
Ltmp934:
	.loc	9 102 5
	movl	$24, %esi
	movl	$8, %edx
	callq	___rust_dealloc
Ltmp935:
LBB65_2:
	.loc	46 132 27
	movq	%r14, %rdi
Ltmp936:
	callq	__ZN3std2io5error5Error13last_os_error17h5c14d716e3637a11E
Ltmp937:
Ltmp921:
	.loc	46 133 20
	movq	%r14, %rdi
	callq	__ZN3std2io5error5Error4kind17ha6420639421e330eE
Ltmp922:
Ltmp938:
	.loc	8 87 45
	cmpb	$15, %al
Ltmp939:
	.loc	46 133 17
	jne	LBB65_4
Ltmp940:
	.loc	27 178 1
	cmpb	$2, -32(%rbp)
	jb	LBB65_2
Ltmp941:
	.loc	27 178 1 is_stmt 0
	movq	-24(%rbp), %rbx
Ltmp942:
	.loc	27 178 1
	movq	(%rbx), %rdi
	movq	8(%rbx), %rax
Ltmp927:
	callq	*(%rax)
Ltmp928:
Ltmp943:
	movq	8(%rbx), %rax
Ltmp944:
	.loc	9 282 16 is_stmt 1
	movq	8(%rax), %rsi
Ltmp945:
	.loc	9 185 12
	testq	%rsi, %rsi
	.loc	9 185 9 is_stmt 0
	je	LBB65_10
Ltmp946:
	.loc	27 178 1 is_stmt 1
	movq	(%rbx), %rdi
Ltmp947:
	.loc	9 283 17
	movq	16(%rax), %rdx
Ltmp948:
	.loc	9 102 5
	callq	___rust_dealloc
Ltmp949:
	.loc	9 0 5 is_stmt 0
	jmp	LBB65_10
Ltmp950:
LBB65_16:
	.loc	46 142 6 is_stmt 1
	addq	$80, %rsp
	popq	%rbx
	popq	%r14
	popq	%rbp
	retq
Ltmp951:
LBB65_4:
	.loc	46 136 21
	movq	%r14, -48(%rbp)
	movq	__ZN60_$LT$std..io..error..Error$u20$as$u20$core..fmt..Display$GT$3fmt17hd5a23906ccc4fffdE@GOTPCREL(%rip), %rax
	movq	%rax, -40(%rbp)
Ltmp952:
	.loc	28 328 9
	leaq	l___unnamed_94(%rip), %rax
Ltmp953:
	movq	%rax, -96(%rbp)
	movq	$1, -88(%rbp)
	movq	$0, -80(%rbp)
	leaq	-48(%rbp), %rax
Ltmp954:
	movq	%rax, -64(%rbp)
	movq	$1, -56(%rbp)
Ltmp955:
Ltmp924:
	.loc	46 136 21
	leaq	l___unnamed_95(%rip), %rsi
	leaq	-96(%rbp), %rdi
	callq	__ZN3std9panicking15begin_panic_fmt17h2e6dba6f5c07d155E
Ltmp925:
Ltmp956:
	.loc	46 0 21 is_stmt 0
	ud2
Ltmp957:
LBB65_12:
Ltmp926:
	jmp	LBB65_13
Ltmp958:
LBB65_14:
Ltmp929:
	movq	%rax, %r14
Ltmp959:
	.loc	27 178 1 is_stmt 1
	movq	(%rbx), %rdi
	movq	8(%rbx), %rsi
	callq	__ZN5alloc5alloc8box_free17h7283f357bdeafe6fE
Ltmp960:
	.loc	27 178 1 is_stmt 0
	movq	-24(%rbp), %rdi
	callq	__ZN5alloc5alloc8box_free17h04b093cd7f262af6E
	movq	%r14, %rdi
	callq	__Unwind_Resume
	ud2
Ltmp961:
LBB65_11:
Ltmp923:
LBB65_13:
	.loc	27 0 1
	movq	%rax, %r14
	leaq	-32(%rbp), %rdi
	.loc	46 138 13 is_stmt 1
	callq	__ZN4core3ptr13drop_in_place17hb68b0ab62809349bE
	movq	%r14, %rdi
	callq	__Unwind_Resume
	ud2
Ltmp962:
Lfunc_end65:
	.cfi_endproc
	.section	__TEXT,__gcc_except_tab
	.p2align	2
GCC_except_table65:
Lexception3:
	.byte	255
	.byte	255
	.byte	1
	.uleb128 Lcst_end3-Lcst_begin3
Lcst_begin3:
	.uleb128 Lfunc_begin65-Lfunc_begin65
	.uleb128 Ltmp921-Lfunc_begin65
	.byte	0
	.byte	0
	.uleb128 Ltmp921-Lfunc_begin65
	.uleb128 Ltmp922-Ltmp921
	.uleb128 Ltmp923-Lfunc_begin65
	.byte	0
	.uleb128 Ltmp927-Lfunc_begin65
	.uleb128 Ltmp928-Ltmp927
	.uleb128 Ltmp929-Lfunc_begin65
	.byte	0
	.uleb128 Ltmp924-Lfunc_begin65
	.uleb128 Ltmp925-Ltmp924
	.uleb128 Ltmp926-Lfunc_begin65
	.byte	0
	.uleb128 Ltmp925-Lfunc_begin65
	.uleb128 Lfunc_end65-Ltmp925
	.byte	0
	.byte	0
Lcst_end3:
	.p2align	2

	.section	__TEXT,__text,regular,pure_instructions
	.globl	__ZN50_$LT$rand..os..imp..OsRng$u20$as$u20$rand..Rng$GT$8next_u3217hb14b9d6612797d56E
	.p2align	4, 0x90
__ZN50_$LT$rand..os..imp..OsRng$u20$as$u20$rand..Rng$GT$8next_u3217hb14b9d6612797d56E:
Lfunc_begin66:
	.loc	46 203 0
	.cfi_startproc
	.cfi_personality 155, _rust_eh_personality
	.cfi_lsda 16, Lexception4
	pushq	%rbp
	.cfi_def_cfa_offset 16
	.cfi_offset %rbp, -16
	movq	%rsp, %rbp
	.cfi_def_cfa_register %rbp
Ltmp966:
	pushq	%r15
	pushq	%r14
	pushq	%r12
	pushq	%rbx
	subq	$64, %rsp
	.cfi_offset %rbx, -48
	.cfi_offset %r12, -40
	.cfi_offset %r14, -32
	.cfi_offset %r15, -24
	.loc	46 205 17 prologue_end
	cmpl	$1, (%rdi)
	jne	LBB66_13
Ltmp967:
	.loc	46 0 17 is_stmt 0
	movq	%rdi, %r14
Ltmp968:
	.loc	46 206 27 is_stmt 1
	addq	$4, %r14
Ltmp969:
	.file	48 "/Users/yingyuhang/.cargo/registry/src/github.com-1ecc6299db9ec823/rand-0.4.6/src/read.rs"
	.loc	48 52 23
	movl	$0, -36(%rbp)
	movl	$4, %ebx
	leaq	-36(%rbp), %r15
	leaq	-64(%rbp), %r12
Ltmp970:
	.p2align	4, 0x90
LBB66_2:
	.loc	48 70 20
	movq	%r12, %rdi
	movq	%r14, %rsi
	movq	%r15, %rdx
	movq	%rbx, %rcx
	callq	__ZN47_$LT$std..fs..File$u20$as$u20$std..io..Read$GT$4read17hf45bbc943dac46a2E
	.loc	48 70 15 is_stmt 0
	cmpq	$1, -64(%rbp)
	je	LBB66_3
Ltmp971:
	movq	-56(%rbp), %rdi
Ltmp972:
	.loc	48 71 13 is_stmt 1
	testq	%rdi, %rdi
	je	LBB66_8
Ltmp973:
	.loc	22 2926 12
	cmpq	%rdi, %rbx
	.loc	22 2926 9 is_stmt 0
	jb	LBB66_15
Ltmp974:
	.loc	38 152 9 is_stmt 1
	addq	%rdi, %r15
Ltmp975:
	.loc	48 69 11
	subq	%rdi, %rbx
Ltmp976:
	.loc	48 69 5 is_stmt 0
	jne	LBB66_2
	jmp	LBB66_7
Ltmp977:
LBB66_13:
	.loc	48 0 5
	leaq	-64(%rbp), %rbx
Ltmp978:
	.loc	46 62 28 is_stmt 1
	movl	$0, -64(%rbp)
Ltmp979:
	.loc	30 154 5
	movl	$4, %esi
	movq	%rbx, %rdi
Ltmp980:
	callq	__ZN4rand2os3imp20getrandom_fill_bytes17haf4df0e6cadedc58E
	jmp	LBB66_14
Ltmp981:
LBB66_3:
	.loc	48 70 15
	movb	-56(%rbp), %al
Ltmp982:
	movq	-55(%rbp), %rcx
	movq	%rcx, -80(%rbp)
	movq	-48(%rbp), %rcx
Ltmp983:
	.loc	48 0 0 is_stmt 0
	movq	%rcx, -73(%rbp)
Ltmp984:
	.loc	10 1004 13 is_stmt 1
	cmpb	$3, %al
	je	LBB66_7
	jmp	LBB66_10
Ltmp985:
LBB66_8:
	.loc	48 71 29
	leaq	l___unnamed_96(%rip), %rdx
	leaq	-96(%rbp), %rdi
	movl	$19, %ecx
	movl	$16, %esi
	callq	__ZN3std2io5error5Error3new17he2e841112fc1cee5E
	.loc	48 71 25 is_stmt 0
	movb	-96(%rbp), %al
Ltmp986:
	movq	-95(%rbp), %rcx
	movq	%rcx, -80(%rbp)
	movq	-88(%rbp), %rcx
	.loc	48 0 0
	movq	%rcx, -73(%rbp)
Ltmp987:
	.loc	10 1004 13 is_stmt 1
	cmpb	$3, %al
	jne	LBB66_10
Ltmp988:
LBB66_7:
	.loc	10 0 13 is_stmt 0
	leaq	-36(%rbp), %rbx
Ltmp989:
LBB66_14:
	movl	(%rbx), %eax
	.loc	46 208 10 is_stmt 1
	addq	$64, %rsp
	popq	%rbx
	popq	%r12
	popq	%r14
	popq	%r15
	popq	%rbp
	retq
LBB66_15:
Ltmp990:
	.loc	22 2927 13
	leaq	l___unnamed_97(%rip), %rdx
	movq	%rbx, %rsi
	callq	__ZN4core5slice22slice_index_order_fail17h85b430a3a039f0a8E
Ltmp991:
LBB66_10:
	.loc	10 1005 17
	movb	%al, -64(%rbp)
	movq	-80(%rbp), %rax
Ltmp992:
	movq	-73(%rbp), %rcx
	movq	%rax, -63(%rbp)
	movq	%rcx, -56(%rbp)
Ltmp963:
Ltmp993:
	.loc	10 1005 23 is_stmt 0
	leaq	l___unnamed_98(%rip), %rdi
	leaq	l___unnamed_6(%rip), %rcx
	leaq	l___unnamed_99(%rip), %r8
	leaq	-64(%rbp), %rdx
	movl	$43, %esi
	callq	__ZN4core6result13unwrap_failed17hb5a510096a5fc85fE
Ltmp964:
Ltmp994:
	.loc	10 0 23
	ud2
Ltmp995:
LBB66_12:
Ltmp965:
	movq	%rax, %rbx
	leaq	-64(%rbp), %rdi
	.loc	10 1005 87
	callq	__ZN4core3ptr13drop_in_place17hb68b0ab62809349bE
	movq	%rbx, %rdi
	callq	__Unwind_Resume
	ud2
Ltmp996:
Lfunc_end66:
	.cfi_endproc
	.section	__TEXT,__gcc_except_tab
	.p2align	2
GCC_except_table66:
Lexception4:
	.byte	255
	.byte	255
	.byte	1
	.uleb128 Lcst_end4-Lcst_begin4
Lcst_begin4:
	.uleb128 Lfunc_begin66-Lfunc_begin66
	.uleb128 Ltmp963-Lfunc_begin66
	.byte	0
	.byte	0
	.uleb128 Ltmp963-Lfunc_begin66
	.uleb128 Ltmp964-Ltmp963
	.uleb128 Ltmp965-Lfunc_begin66
	.byte	0
	.uleb128 Ltmp964-Lfunc_begin66
	.uleb128 Lfunc_end66-Ltmp964
	.byte	0
	.byte	0
Lcst_end4:
	.p2align	2

	.section	__TEXT,__text,regular,pure_instructions
	.globl	__ZN50_$LT$rand..os..imp..OsRng$u20$as$u20$rand..Rng$GT$8next_u6417h063647d9bdee29e8E
	.p2align	4, 0x90
__ZN50_$LT$rand..os..imp..OsRng$u20$as$u20$rand..Rng$GT$8next_u6417h063647d9bdee29e8E:
Lfunc_begin67:
	.loc	46 209 0 is_stmt 1
	.cfi_startproc
	.cfi_personality 155, _rust_eh_personality
	.cfi_lsda 16, Lexception5
	pushq	%rbp
	.cfi_def_cfa_offset 16
	.cfi_offset %rbp, -16
	movq	%rsp, %rbp
	.cfi_def_cfa_register %rbp
Ltmp1000:
	pushq	%r15
	pushq	%r14
	pushq	%r12
	pushq	%rbx
	subq	$64, %rsp
	.cfi_offset %rbx, -48
	.cfi_offset %r12, -40
	.cfi_offset %r14, -32
	.cfi_offset %r15, -24
	.loc	46 211 17 prologue_end
	cmpl	$1, (%rdi)
	jne	LBB67_13
Ltmp1001:
	.loc	46 0 17 is_stmt 0
	movq	%rdi, %r14
Ltmp1002:
	.loc	46 212 27 is_stmt 1
	addq	$4, %r14
Ltmp1003:
	.loc	48 58 23
	movq	$0, -80(%rbp)
	movl	$8, %ebx
	leaq	-80(%rbp), %r15
	leaq	-56(%rbp), %r12
Ltmp1004:
	.p2align	4, 0x90
LBB67_2:
	.loc	48 70 20
	movq	%r12, %rdi
	movq	%r14, %rsi
	movq	%r15, %rdx
	movq	%rbx, %rcx
	callq	__ZN47_$LT$std..fs..File$u20$as$u20$std..io..Read$GT$4read17hf45bbc943dac46a2E
	.loc	48 70 15 is_stmt 0
	cmpq	$1, -56(%rbp)
	je	LBB67_3
Ltmp1005:
	movq	-48(%rbp), %rdi
Ltmp1006:
	.loc	48 71 13 is_stmt 1
	testq	%rdi, %rdi
	je	LBB67_8
Ltmp1007:
	.loc	22 2926 12
	cmpq	%rdi, %rbx
	.loc	22 2926 9 is_stmt 0
	jb	LBB67_15
Ltmp1008:
	.loc	38 152 9 is_stmt 1
	addq	%rdi, %r15
Ltmp1009:
	.loc	48 69 11
	subq	%rdi, %rbx
Ltmp1010:
	.loc	48 69 5 is_stmt 0
	jne	LBB67_2
	jmp	LBB67_7
Ltmp1011:
LBB67_13:
	.loc	48 0 5
	leaq	-56(%rbp), %rbx
Ltmp1012:
	.loc	46 69 28
	movq	$0, -56(%rbp)
Ltmp1013:
	.loc	30 154 5 is_stmt 1
	movl	$8, %esi
	movq	%rbx, %rdi
Ltmp1014:
	callq	__ZN4rand2os3imp20getrandom_fill_bytes17haf4df0e6cadedc58E
	jmp	LBB67_14
Ltmp1015:
LBB67_3:
	.loc	48 70 15
	movb	-48(%rbp), %al
Ltmp1016:
	movq	-47(%rbp), %rcx
	movq	%rcx, -72(%rbp)
	movq	-40(%rbp), %rcx
Ltmp1017:
	.loc	48 0 0 is_stmt 0
	movq	%rcx, -65(%rbp)
Ltmp1018:
	.loc	10 1004 13 is_stmt 1
	cmpb	$3, %al
	je	LBB67_7
	jmp	LBB67_10
Ltmp1019:
LBB67_8:
	.loc	48 71 29
	leaq	l___unnamed_96(%rip), %rdx
	leaq	-96(%rbp), %rdi
	movl	$19, %ecx
	movl	$16, %esi
	callq	__ZN3std2io5error5Error3new17he2e841112fc1cee5E
	.loc	48 71 25 is_stmt 0
	movb	-96(%rbp), %al
Ltmp1020:
	movq	-95(%rbp), %rcx
	movq	%rcx, -72(%rbp)
	movq	-88(%rbp), %rcx
	.loc	48 0 0
	movq	%rcx, -65(%rbp)
Ltmp1021:
	.loc	10 1004 13 is_stmt 1
	cmpb	$3, %al
	jne	LBB67_10
Ltmp1022:
LBB67_7:
	.loc	10 0 13 is_stmt 0
	leaq	-80(%rbp), %rbx
Ltmp1023:
LBB67_14:
	movq	(%rbx), %rax
	.loc	46 214 10 is_stmt 1
	addq	$64, %rsp
	popq	%rbx
	popq	%r12
	popq	%r14
	popq	%r15
	popq	%rbp
	retq
LBB67_15:
Ltmp1024:
	.loc	22 2927 13
	leaq	l___unnamed_97(%rip), %rdx
	movq	%rbx, %rsi
	callq	__ZN4core5slice22slice_index_order_fail17h85b430a3a039f0a8E
Ltmp1025:
LBB67_10:
	.loc	10 1005 17
	movb	%al, -56(%rbp)
	movq	-72(%rbp), %rax
Ltmp1026:
	movq	-65(%rbp), %rcx
	movq	%rax, -55(%rbp)
	movq	%rcx, -48(%rbp)
Ltmp997:
Ltmp1027:
	.loc	10 1005 23 is_stmt 0
	leaq	l___unnamed_98(%rip), %rdi
	leaq	l___unnamed_6(%rip), %rcx
	leaq	l___unnamed_100(%rip), %r8
	leaq	-56(%rbp), %rdx
	movl	$43, %esi
	callq	__ZN4core6result13unwrap_failed17hb5a510096a5fc85fE
Ltmp998:
Ltmp1028:
	.loc	10 0 23
	ud2
Ltmp1029:
LBB67_12:
Ltmp999:
	movq	%rax, %rbx
	leaq	-56(%rbp), %rdi
	.loc	10 1005 87
	callq	__ZN4core3ptr13drop_in_place17hb68b0ab62809349bE
	movq	%rbx, %rdi
	callq	__Unwind_Resume
	ud2
Ltmp1030:
Lfunc_end67:
	.cfi_endproc
	.section	__TEXT,__gcc_except_tab
	.p2align	2
GCC_except_table67:
Lexception5:
	.byte	255
	.byte	255
	.byte	1
	.uleb128 Lcst_end5-Lcst_begin5
Lcst_begin5:
	.uleb128 Lfunc_begin67-Lfunc_begin67
	.uleb128 Ltmp997-Lfunc_begin67
	.byte	0
	.byte	0
	.uleb128 Ltmp997-Lfunc_begin67
	.uleb128 Ltmp998-Ltmp997
	.uleb128 Ltmp999-Lfunc_begin67
	.byte	0
	.uleb128 Ltmp998-Lfunc_begin67
	.uleb128 Lfunc_end67-Ltmp998
	.byte	0
	.byte	0
Lcst_end5:
	.p2align	2

	.section	__TEXT,__text,regular,pure_instructions
	.globl	__ZN50_$LT$rand..os..imp..OsRng$u20$as$u20$rand..Rng$GT$10fill_bytes17he3db0fae04f1cd6eE
	.p2align	4, 0x90
__ZN50_$LT$rand..os..imp..OsRng$u20$as$u20$rand..Rng$GT$10fill_bytes17he3db0fae04f1cd6eE:
Lfunc_begin68:
	.loc	46 215 0 is_stmt 1
	.cfi_startproc
	.cfi_personality 155, _rust_eh_personality
	.cfi_lsda 16, Lexception6
	pushq	%rbp
	.cfi_def_cfa_offset 16
	.cfi_offset %rbp, -16
	movq	%rsp, %rbp
	.cfi_def_cfa_register %rbp
	pushq	%r15
	pushq	%r14
	pushq	%r12
	pushq	%rbx
	subq	$64, %rsp
	.cfi_offset %rbx, -48
	.cfi_offset %r12, -40
	.cfi_offset %r14, -32
	.cfi_offset %r15, -24
	movq	%rdx, %rbx
Ltmp1034:
	movq	%rsi, %r14
Ltmp1035:
	.loc	46 217 17 prologue_end
	cmpl	$1, (%rdi)
	jne	LBB68_14
Ltmp1036:
	.loc	48 63 12
	testq	%rbx, %rbx
	.loc	48 63 9 is_stmt 0
	je	LBB68_8
Ltmp1037:
	.loc	48 0 9
	movq	%rdi, %r15
Ltmp1038:
	addq	$4, %r15
Ltmp1039:
	leaq	-56(%rbp), %r12
Ltmp1040:
	.p2align	4, 0x90
LBB68_3:
	.loc	48 70 20 is_stmt 1
	movq	%r12, %rdi
	movq	%r15, %rsi
	movq	%r14, %rdx
	movq	%rbx, %rcx
	callq	__ZN47_$LT$std..fs..File$u20$as$u20$std..io..Read$GT$4read17hf45bbc943dac46a2E
	.loc	48 70 15 is_stmt 0
	cmpq	$1, -56(%rbp)
	je	LBB68_4
Ltmp1041:
	movq	-48(%rbp), %rdi
Ltmp1042:
	.loc	48 71 13 is_stmt 1
	testq	%rdi, %rdi
	je	LBB68_9
Ltmp1043:
	.loc	22 2926 12
	cmpq	%rdi, %rbx
	.loc	22 2926 9 is_stmt 0
	jb	LBB68_15
Ltmp1044:
	.loc	38 152 9 is_stmt 1
	addq	%rdi, %r14
Ltmp1045:
	.loc	48 69 11
	subq	%rdi, %rbx
Ltmp1046:
	.loc	48 69 5 is_stmt 0
	jne	LBB68_3
	jmp	LBB68_8
Ltmp1047:
LBB68_14:
	.loc	46 217 35 is_stmt 1
	movq	%r14, %rdi
Ltmp1048:
	movq	%rbx, %rsi
	addq	$64, %rsp
	popq	%rbx
Ltmp1049:
	popq	%r12
	popq	%r14
Ltmp1050:
	popq	%r15
	popq	%rbp
	jmp	__ZN4rand2os3imp20getrandom_fill_bytes17haf4df0e6cadedc58E
LBB68_4:
Ltmp1051:
	.loc	48 70 15
	movb	-48(%rbp), %al
Ltmp1052:
	movq	-47(%rbp), %rcx
	movq	%rcx, -72(%rbp)
	movq	-40(%rbp), %rcx
Ltmp1053:
	.loc	48 0 0 is_stmt 0
	movq	%rcx, -65(%rbp)
Ltmp1054:
	.loc	10 1004 13 is_stmt 1
	cmpb	$3, %al
	je	LBB68_8
	jmp	LBB68_11
Ltmp1055:
LBB68_9:
	.loc	48 71 29
	leaq	l___unnamed_96(%rip), %rdx
	leaq	-88(%rbp), %rdi
	movl	$19, %ecx
	movl	$16, %esi
	callq	__ZN3std2io5error5Error3new17he2e841112fc1cee5E
	.loc	48 71 25 is_stmt 0
	movb	-88(%rbp), %al
Ltmp1056:
	movq	-87(%rbp), %rcx
	movq	%rcx, -72(%rbp)
	movq	-80(%rbp), %rcx
	.loc	48 0 0
	movq	%rcx, -65(%rbp)
Ltmp1057:
	.loc	10 1004 13 is_stmt 1
	cmpb	$3, %al
	jne	LBB68_11
Ltmp1058:
LBB68_8:
	.loc	46 220 10
	addq	$64, %rsp
	popq	%rbx
	popq	%r12
	popq	%r14
	popq	%r15
	popq	%rbp
	retq
LBB68_15:
Ltmp1059:
	.loc	22 2927 13
	leaq	l___unnamed_97(%rip), %rdx
	movq	%rbx, %rsi
	callq	__ZN4core5slice22slice_index_order_fail17h85b430a3a039f0a8E
Ltmp1060:
LBB68_11:
	.loc	10 1005 17
	movb	%al, -56(%rbp)
	movq	-72(%rbp), %rax
Ltmp1061:
	movq	-65(%rbp), %rcx
	movq	%rax, -55(%rbp)
	movq	%rcx, -48(%rbp)
Ltmp1031:
Ltmp1062:
	.loc	10 1005 23 is_stmt 0
	leaq	l___unnamed_98(%rip), %rdi
	leaq	l___unnamed_6(%rip), %rcx
	leaq	l___unnamed_101(%rip), %r8
	leaq	-56(%rbp), %rdx
	movl	$43, %esi
	callq	__ZN4core6result13unwrap_failed17hb5a510096a5fc85fE
Ltmp1032:
Ltmp1063:
	.loc	10 0 23
	ud2
Ltmp1064:
LBB68_13:
Ltmp1033:
	movq	%rax, %rbx
Ltmp1065:
	leaq	-56(%rbp), %rdi
	.loc	10 1005 87
	callq	__ZN4core3ptr13drop_in_place17hb68b0ab62809349bE
	movq	%rbx, %rdi
	callq	__Unwind_Resume
	ud2
Ltmp1066:
Lfunc_end68:
	.cfi_endproc
	.section	__TEXT,__gcc_except_tab
	.p2align	2
GCC_except_table68:
Lexception6:
	.byte	255
	.byte	255
	.byte	1
	.uleb128 Lcst_end6-Lcst_begin6
Lcst_begin6:
	.uleb128 Lfunc_begin68-Lfunc_begin68
	.uleb128 Ltmp1031-Lfunc_begin68
	.byte	0
	.byte	0
	.uleb128 Ltmp1031-Lfunc_begin68
	.uleb128 Ltmp1032-Ltmp1031
	.uleb128 Ltmp1033-Lfunc_begin68
	.byte	0
	.uleb128 Ltmp1032-Lfunc_begin68
	.uleb128 Lfunc_end68-Ltmp1032
	.byte	0
	.byte	0
Lcst_end6:
	.p2align	2

	.section	__TEXT,__text,regular,pure_instructions
	.globl	__ZN4rand4read4fill17h1e5082624337b623E
	.p2align	4, 0x90
__ZN4rand4read4fill17h1e5082624337b623E:
Lfunc_begin69:
	.loc	48 68 0 is_stmt 1
	.cfi_startproc
	pushq	%rbp
	.cfi_def_cfa_offset 16
	.cfi_offset %rbp, -16
	movq	%rsp, %rbp
	.cfi_def_cfa_register %rbp
	pushq	%r15
	pushq	%r14
	pushq	%r13
	pushq	%r12
	pushq	%rbx
	subq	$56, %rsp
	.cfi_offset %rbx, -56
	.cfi_offset %r12, -48
	.cfi_offset %r13, -40
	.cfi_offset %r14, -32
	.cfi_offset %r15, -24
	movq	%rdi, -48(%rbp)
Ltmp1067:
	.loc	48 69 11 prologue_end
	testq	%r8, %r8
	.loc	48 69 5 is_stmt 0
	je	LBB69_7
Ltmp1068:
	.loc	48 0 5
	movq	%r8, %rbx
	movq	%rcx, %r15
	movq	%rsi, %r12
Ltmp1069:
	movq	24(%rdx), %r14
	leaq	-72(%rbp), %r13
Ltmp1070:
	.p2align	4, 0x90
LBB69_2:
	.loc	48 70 20 is_stmt 1
	movq	%r13, %rdi
	movq	%r12, %rsi
	movq	%r15, %rdx
Ltmp1071:
	movq	%rbx, %rcx
	callq	*%r14
	.loc	48 70 15 is_stmt 0
	cmpq	$1, -72(%rbp)
	je	LBB69_3
Ltmp1072:
	movq	-64(%rbp), %rdi
Ltmp1073:
	.loc	48 71 13 is_stmt 1
	testq	%rdi, %rdi
	je	LBB69_8
Ltmp1074:
	.loc	22 2926 12
	cmpq	%rdi, %rbx
	.loc	22 2926 9 is_stmt 0
	jb	LBB69_11
Ltmp1075:
	.loc	38 152 9 is_stmt 1
	addq	%rdi, %r15
Ltmp1076:
	.loc	48 69 11
	subq	%rdi, %rbx
Ltmp1077:
	.loc	48 69 5 is_stmt 0
	jne	LBB69_2
Ltmp1078:
LBB69_7:
	.loc	48 0 5
	movq	-48(%rbp), %rax
	.loc	48 76 5 is_stmt 1
	movb	$3, (%rax)
	jmp	LBB69_10
LBB69_3:
Ltmp1079:
	.loc	48 70 15
	movq	-64(%rbp), %rdx
	movq	-56(%rbp), %rcx
	jmp	LBB69_9
Ltmp1080:
LBB69_8:
	.loc	48 71 29
	leaq	l___unnamed_96(%rip), %rdx
	leaq	-88(%rbp), %rdi
	movl	$19, %ecx
	movl	$16, %esi
	callq	__ZN3std2io5error5Error3new17he2e841112fc1cee5E
	.loc	48 71 25 is_stmt 0
	movq	-88(%rbp), %rdx
	movq	-80(%rbp), %rcx
Ltmp1081:
LBB69_9:
	.loc	48 0 25
	movq	-48(%rbp), %rax
	movq	%rcx, 8(%rax)
	movq	%rdx, (%rax)
Ltmp1082:
LBB69_10:
	.loc	48 77 2 is_stmt 1
	addq	$56, %rsp
	popq	%rbx
	popq	%r12
	popq	%r13
	popq	%r14
	popq	%r15
	popq	%rbp
	retq
LBB69_11:
Ltmp1083:
	.loc	22 2927 13
	leaq	l___unnamed_97(%rip), %rdx
	movq	%rbx, %rsi
	callq	__ZN4core5slice22slice_index_order_fail17h85b430a3a039f0a8E
Ltmp1084:
Lfunc_end69:
	.cfi_endproc

	.globl	__ZN77_$LT$rand..reseeding..ReseedWithDefault$u20$as$u20$core..default..Default$GT$7default17hd5bb38bc84edc6c3E
	.p2align	4, 0x90
__ZN77_$LT$rand..reseeding..ReseedWithDefault$u20$as$u20$core..default..Default$GT$7default17hd5bb38bc84edc6c3E:
Lfunc_begin70:
	.loc	41 145 0
	.cfi_startproc
	pushq	%rbp
	.cfi_def_cfa_offset 16
	.cfi_offset %rbp, -16
	movq	%rsp, %rbp
	.cfi_def_cfa_register %rbp
Ltmp1085:
	.loc	41 145 60 prologue_end
	popq	%rbp
	retq
Ltmp1086:
Lfunc_end70:
	.cfi_endproc

	.section	__TEXT,__literal16,16byte_literals
	.p2align	4
LCPI71_0:
	.long	1634760805
	.long	857760878
	.long	2036477234
	.long	1797285236
	.section	__TEXT,__text,regular,pure_instructions
	.globl	__ZN4rand4prng6chacha9ChaChaRng12new_unseeded17h784687fa90fbae98E
	.p2align	4, 0x90
__ZN4rand4prng6chacha9ChaChaRng12new_unseeded17h784687fa90fbae98E:
Lfunc_begin71:
	.loc	3 104 0
	.cfi_startproc
	pushq	%rbp
	.cfi_def_cfa_offset 16
	.cfi_offset %rbp, -16
	movq	%rsp, %rbp
	.cfi_def_cfa_register %rbp
	movq	%rdi, %rax
Ltmp1087:
	.loc	3 107 9 prologue_end
	movq	$16, (%rdi)
	movq	__ZN4rand4prng6chacha5EMPTY17hc491c190d799ad22E+8(%rip), %rcx
	movq	%rcx, 8(%rdi)
	movq	__ZN4rand4prng6chacha5EMPTY17hc491c190d799ad22E+16(%rip), %rcx
	movq	%rcx, 16(%rdi)
	movq	__ZN4rand4prng6chacha5EMPTY17hc491c190d799ad22E+24(%rip), %rcx
	movq	%rcx, 24(%rdi)
	movq	__ZN4rand4prng6chacha5EMPTY17hc491c190d799ad22E+32(%rip), %rcx
	movq	%rcx, 32(%rdi)
	movq	__ZN4rand4prng6chacha5EMPTY17hc491c190d799ad22E+40(%rip), %rcx
	movq	%rcx, 40(%rdi)
	movq	__ZN4rand4prng6chacha5EMPTY17hc491c190d799ad22E+48(%rip), %rcx
	movq	%rcx, 48(%rdi)
	movq	__ZN4rand4prng6chacha5EMPTY17hc491c190d799ad22E+56(%rip), %rcx
	movq	%rcx, 56(%rdi)
	movq	__ZN4rand4prng6chacha5EMPTY17hc491c190d799ad22E+64(%rip), %rcx
	movq	%rcx, 64(%rdi)
	movaps	LCPI71_0(%rip), %xmm0
	movups	%xmm0, 72(%rdi)
	movq	$0, 88(%rdi)
	movq	$0, 96(%rdi)
	movq	$0, 104(%rdi)
	movq	$0, 112(%rdi)
	movq	$0, 120(%rdi)
	movq	$0, 128(%rdi)
Ltmp1088:
	.loc	3 108 6
	popq	%rbp
	retq
Ltmp1089:
Lfunc_end71:
	.cfi_endproc

	.globl	__ZN4rand4prng6chacha9ChaChaRng11set_counter17h343f4660a5eb5ef8E
	.p2align	4, 0x90
__ZN4rand4prng6chacha9ChaChaRng11set_counter17h343f4660a5eb5ef8E:
Lfunc_begin72:
	.loc	3 129 0
	.cfi_startproc
	pushq	%rbp
	.cfi_def_cfa_offset 16
	.cfi_offset %rbp, -16
	movq	%rsp, %rbp
	.cfi_def_cfa_register %rbp
Ltmp1090:
	.loc	3 130 9 prologue_end
	movl	%esi, 120(%rdi)
	.loc	3 131 28
	shrq	$32, %rsi
Ltmp1091:
	.loc	3 131 9 is_stmt 0
	movl	%esi, 124(%rdi)
	.loc	3 132 9 is_stmt 1
	movl	%edx, 128(%rdi)
	.loc	3 133 28
	shrq	$32, %rdx
Ltmp1092:
	.loc	3 133 9 is_stmt 0
	movl	%edx, 132(%rdi)
	.loc	3 134 9 is_stmt 1
	movq	$16, (%rdi)
	.loc	3 135 6
	popq	%rbp
	retq
Ltmp1093:
Lfunc_end72:
	.cfi_endproc

	.globl	__ZN4rand4prng6chacha9ChaChaRng6update17h96460fda37d4fb8bE
	.p2align	4, 0x90
__ZN4rand4prng6chacha9ChaChaRng6update17h96460fda37d4fb8bE:
Lfunc_begin73:
	.loc	3 174 0
	.cfi_startproc
	pushq	%rbp
	.cfi_def_cfa_offset 16
	.cfi_offset %rbp, -16
	movq	%rsp, %rbp
	.cfi_def_cfa_register %rbp
Ltmp1094:
	pushq	%r15
	pushq	%r14
	pushq	%r13
	pushq	%r12
	pushq	%rbx
	subq	$48, %rsp
	.cfi_offset %rbx, -56
	.cfi_offset %r12, -48
	.cfi_offset %r13, -40
	.cfi_offset %r14, -32
	.cfi_offset %r15, -24
	.loc	3 72 15 prologue_end
	movq	72(%rdi), %rax
	movq	80(%rdi), %rsi
	movq	%rax, -64(%rbp)
	movq	%rax, 8(%rdi)
	movq	88(%rdi), %rcx
	movq	%rcx, 24(%rdi)
	movq	120(%rdi), %r13
	movq	%r13, 56(%rdi)
	movq	104(%rdi), %rbx
	movq	%rbx, %rax
	movq	%rbx, -56(%rbp)
	movq	%rbx, 40(%rdi)
	movq	%rsi, %rax
	movq	%rsi, -72(%rbp)
	movq	%rsi, 16(%rdi)
	movq	96(%rdi), %rax
	movq	%rax, 32(%rdi)
	movq	128(%rdi), %r10
	movq	%r10, 64(%rdi)
	movq	112(%rdi), %r12
	movq	%r12, 48(%rdi)
Ltmp1095:
	.loc	3 75 9
	movl	12(%rdi), %edx
	movl	%edx, -48(%rbp)
	movl	28(%rdi), %ebx
	movl	60(%rdi), %r15d
	movl	44(%rdi), %esi
	movl	%esi, -44(%rbp)
	movl	20(%rdi), %esi
	movl	36(%rdi), %r8d
	movl	68(%rdi), %r9d
	movq	%rdi, -88(%rbp)
Ltmp1096:
	movl	52(%rdi), %edi
	movl	$10, -76(%rbp)
Ltmp1097:
	.p2align	4, 0x90
LBB73_1:
	.loc	3 0 9 is_stmt 0
	movq	-64(%rbp), %r11
Ltmp1098:
	.loc	35 3320 17 is_stmt 1
	addl	%ecx, %r11d
Ltmp1099:
	.file	49 "/rustc/a74d1862d4d87a56244958416fd05976c58ca1a8/src/libcore/num/wrapping.rs"
	.loc	49 253 26
	xorl	%r11d, %r13d
Ltmp1100:
	.loc	35 2704 17
	roll	$16, %r13d
Ltmp1101:
	.loc	35 0 17 is_stmt 0
	movq	-56(%rbp), %rdx
Ltmp1102:
	.loc	35 3320 17 is_stmt 1
	addl	%r13d, %edx
Ltmp1103:
	.loc	49 253 26
	xorl	%edx, %ecx
Ltmp1104:
	.loc	35 2704 17
	roll	$12, %ecx
Ltmp1105:
	.loc	35 3320 17
	addl	%ecx, %r11d
Ltmp1106:
	.loc	49 253 26
	xorl	%r11d, %r13d
Ltmp1107:
	.loc	35 2704 17
	roll	$8, %r13d
Ltmp1108:
	.loc	35 3320 17
	addl	%r13d, %edx
Ltmp1109:
	.loc	35 0 17 is_stmt 0
	movq	%rdx, -56(%rbp)
Ltmp1110:
	.loc	49 253 26 is_stmt 1
	xorl	%edx, %ecx
Ltmp1111:
	.loc	35 2704 17
	roll	$7, %ecx
Ltmp1112:
	.loc	35 0 17 is_stmt 0
	movl	-48(%rbp), %edx
Ltmp1113:
	.loc	35 3320 17 is_stmt 1
	addl	%ebx, %edx
Ltmp1114:
	.loc	49 253 26
	xorl	%edx, %r15d
Ltmp1115:
	.loc	35 2704 17
	roll	$16, %r15d
Ltmp1116:
	.loc	35 0 17 is_stmt 0
	movl	%esi, %r14d
Ltmp1117:
	movl	-44(%rbp), %esi
Ltmp1118:
	.loc	35 3320 17 is_stmt 1
	addl	%r15d, %esi
Ltmp1119:
	.loc	49 253 26
	xorl	%esi, %ebx
Ltmp1120:
	.loc	35 2704 17
	roll	$12, %ebx
Ltmp1121:
	.loc	35 3320 17
	addl	%ebx, %edx
Ltmp1122:
	.loc	49 253 26
	xorl	%edx, %r15d
Ltmp1123:
	.loc	35 2704 17
	roll	$8, %r15d
Ltmp1124:
	.loc	35 3320 17
	addl	%r15d, %esi
Ltmp1125:
	.loc	35 0 17 is_stmt 0
	movl	%esi, -44(%rbp)
Ltmp1126:
	.loc	49 253 26 is_stmt 1
	xorl	%esi, %ebx
Ltmp1127:
	.loc	49 0 26 is_stmt 0
	movl	%r14d, %esi
Ltmp1128:
	.loc	35 2704 17 is_stmt 1
	roll	$7, %ebx
Ltmp1129:
	.loc	35 0 17 is_stmt 0
	movq	-72(%rbp), %r14
Ltmp1130:
	.loc	35 3320 17 is_stmt 1
	addl	%eax, %r14d
Ltmp1131:
	.loc	49 253 26
	xorl	%r14d, %r10d
Ltmp1132:
	.loc	35 2704 17
	roll	$16, %r10d
Ltmp1133:
	.loc	35 3320 17
	addl	%r10d, %r12d
Ltmp1134:
	.loc	49 253 26
	xorl	%r12d, %eax
Ltmp1135:
	.loc	35 2704 17
	roll	$12, %eax
Ltmp1136:
	.loc	35 3320 17
	addl	%eax, %r14d
Ltmp1137:
	.loc	49 253 26
	xorl	%r14d, %r10d
Ltmp1138:
	.loc	35 2704 17
	roll	$8, %r10d
Ltmp1139:
	.loc	35 3320 17
	addl	%r10d, %r12d
Ltmp1140:
	.loc	49 253 26
	xorl	%r12d, %eax
Ltmp1141:
	.loc	35 2704 17
	roll	$7, %eax
Ltmp1142:
	.loc	35 3320 17
	addl	%r8d, %esi
Ltmp1143:
	.loc	49 253 26
	xorl	%esi, %r9d
Ltmp1144:
	.loc	35 2704 17
	roll	$16, %r9d
Ltmp1145:
	.loc	35 3320 17
	addl	%r9d, %edi
Ltmp1146:
	.loc	49 253 26
	xorl	%edi, %r8d
Ltmp1147:
	.loc	35 2704 17
	roll	$12, %r8d
Ltmp1148:
	.loc	35 3320 17
	addl	%r8d, %esi
Ltmp1149:
	.loc	49 253 26
	xorl	%esi, %r9d
Ltmp1150:
	.loc	35 2704 17
	roll	$8, %r9d
Ltmp1151:
	.loc	35 3320 17
	addl	%r9d, %edi
Ltmp1152:
	.loc	49 253 26
	xorl	%edi, %r8d
Ltmp1153:
	.loc	35 2704 17
	roll	$7, %r8d
Ltmp1154:
	.loc	35 3320 17
	addl	%ebx, %r11d
Ltmp1155:
	.loc	49 253 26
	xorl	%r11d, %r9d
Ltmp1156:
	.loc	35 2704 17
	roll	$16, %r9d
Ltmp1157:
	.loc	35 3320 17
	addl	%r9d, %r12d
Ltmp1158:
	.loc	49 253 26
	xorl	%r12d, %ebx
Ltmp1159:
	.loc	35 2704 17
	roll	$12, %ebx
Ltmp1160:
	.loc	35 3320 17
	addl	%ebx, %r11d
Ltmp1161:
	.loc	35 0 17 is_stmt 0
	movq	%r11, -64(%rbp)
Ltmp1162:
	.loc	49 253 26 is_stmt 1
	xorl	%r11d, %r9d
Ltmp1163:
	.loc	35 2704 17
	roll	$8, %r9d
Ltmp1164:
	.loc	35 3320 17
	addl	%r9d, %r12d
Ltmp1165:
	.loc	49 253 26
	xorl	%r12d, %ebx
Ltmp1166:
	.loc	35 2704 17
	roll	$7, %ebx
Ltmp1167:
	.loc	35 3320 17
	addl	%eax, %edx
Ltmp1168:
	.loc	49 253 26
	xorl	%edx, %r13d
Ltmp1169:
	.loc	35 2704 17
	roll	$16, %r13d
Ltmp1170:
	.loc	35 3320 17
	addl	%r13d, %edi
Ltmp1171:
	.loc	49 253 26
	xorl	%edi, %eax
Ltmp1172:
	.loc	35 2704 17
	roll	$12, %eax
Ltmp1173:
	.loc	35 3320 17
	addl	%eax, %edx
Ltmp1174:
	.loc	35 0 17 is_stmt 0
	movl	%edx, -48(%rbp)
Ltmp1175:
	.loc	49 253 26 is_stmt 1
	xorl	%edx, %r13d
Ltmp1176:
	.loc	35 2704 17
	roll	$8, %r13d
Ltmp1177:
	.loc	35 3320 17
	addl	%r13d, %edi
Ltmp1178:
	.loc	49 253 26
	xorl	%edi, %eax
Ltmp1179:
	.loc	35 2704 17
	roll	$7, %eax
Ltmp1180:
	.loc	35 3320 17
	addl	%r8d, %r14d
Ltmp1181:
	.loc	49 253 26
	xorl	%r14d, %r15d
Ltmp1182:
	.loc	35 2704 17
	roll	$16, %r15d
Ltmp1183:
	.loc	35 0 17 is_stmt 0
	movq	-56(%rbp), %rdx
Ltmp1184:
	.loc	35 3320 17 is_stmt 1
	addl	%r15d, %edx
Ltmp1185:
	.loc	49 253 26
	xorl	%edx, %r8d
Ltmp1186:
	.loc	35 2704 17
	roll	$12, %r8d
Ltmp1187:
	.loc	35 3320 17
	addl	%r8d, %r14d
Ltmp1188:
	.loc	35 0 17 is_stmt 0
	movq	%r14, -72(%rbp)
Ltmp1189:
	.loc	49 253 26 is_stmt 1
	xorl	%r14d, %r15d
Ltmp1190:
	.loc	35 2704 17
	roll	$8, %r15d
Ltmp1191:
	.loc	35 3320 17
	addl	%r15d, %edx
Ltmp1192:
	.loc	35 0 17 is_stmt 0
	movq	%rdx, -56(%rbp)
Ltmp1193:
	.loc	49 253 26 is_stmt 1
	xorl	%edx, %r8d
Ltmp1194:
	.loc	35 2704 17
	roll	$7, %r8d
Ltmp1195:
	.loc	35 3320 17
	addl	%ecx, %esi
Ltmp1196:
	.loc	49 253 26
	xorl	%esi, %r10d
Ltmp1197:
	.loc	35 2704 17
	roll	$16, %r10d
Ltmp1198:
	.loc	35 0 17 is_stmt 0
	movl	-44(%rbp), %r14d
Ltmp1199:
	.loc	35 3320 17 is_stmt 1
	addl	%r10d, %r14d
Ltmp1200:
	.loc	49 253 26
	xorl	%r14d, %ecx
Ltmp1201:
	.loc	35 2704 17
	roll	$12, %ecx
Ltmp1202:
	.loc	35 3320 17
	addl	%ecx, %esi
Ltmp1203:
	.loc	49 253 26
	xorl	%esi, %r10d
Ltmp1204:
	.loc	35 2704 17
	roll	$8, %r10d
Ltmp1205:
	.loc	35 3320 17
	addl	%r10d, %r14d
Ltmp1206:
	.loc	35 0 17 is_stmt 0
	movl	%r14d, -44(%rbp)
Ltmp1207:
	.loc	49 253 26 is_stmt 1
	xorl	%r14d, %ecx
Ltmp1208:
	.loc	35 2704 17
	roll	$7, %ecx
Ltmp1209:
	.loc	12 1137 52
	decl	-76(%rbp)
Ltmp1210:
	.loc	45 211 9
	jne	LBB73_1
Ltmp1211:
	.loc	45 0 9 is_stmt 0
	movq	-88(%rbp), %r14
	movq	-64(%rbp), %rdx
Ltmp1212:
	.loc	35 3320 17 is_stmt 1
	addl	72(%r14), %edx
Ltmp1213:
	.loc	3 79 9
	movl	%edx, 8(%r14)
Ltmp1214:
	.loc	35 3320 17
	movd	%ecx, %xmm8
	movd	%esi, %xmm1
	movd	-72(%rbp), %xmm9
	movd	-48(%rbp), %xmm3
	movd	-56(%rbp), %xmm10
	movd	%r8d, %xmm5
	movd	%eax, %xmm11
	movd	%ebx, %xmm7
	movd	%r13d, %xmm0
	movd	%edi, %xmm2
	movd	%r12d, %xmm4
	punpckldq	%xmm8, %xmm1
	punpckldq	%xmm9, %xmm3
	punpcklqdq	%xmm1, %xmm3
Ltmp1215:
	.loc	3 79 33
	movdqu	76(%r14), %xmm1
Ltmp1216:
	.loc	35 3320 17
	paddd	%xmm3, %xmm1
Ltmp1217:
	.loc	3 79 33
	movdqu	92(%r14), %xmm3
Ltmp1218:
	movdqu	108(%r14), %xmm6
	.loc	3 79 9 is_stmt 0
	movdqu	%xmm1, 12(%r14)
Ltmp1219:
	.loc	35 3320 17 is_stmt 1
	punpckldq	%xmm10, %xmm5
	punpckldq	%xmm11, %xmm7
	punpcklqdq	%xmm5, %xmm7
	paddd	%xmm3, %xmm7
Ltmp1220:
	.loc	3 79 9
	movdqu	%xmm7, 28(%r14)
Ltmp1221:
	.loc	35 3320 17
	punpckldq	%xmm0, %xmm2
	movd	-44(%rbp), %xmm0
	punpckldq	%xmm4, %xmm0
	punpcklqdq	%xmm2, %xmm0
	paddd	%xmm6, %xmm0
Ltmp1222:
	.loc	3 79 9
	movdqu	%xmm0, 44(%r14)
Ltmp1223:
	.loc	3 79 33 is_stmt 0
	movl	124(%r14), %ebx
Ltmp1224:
	.loc	35 3320 17 is_stmt 1
	addl	%ebx, %r15d
Ltmp1225:
	.loc	3 79 9
	movl	%r15d, 60(%r14)
Ltmp1226:
	.loc	3 79 33 is_stmt 0
	movl	128(%r14), %ecx
Ltmp1227:
	.loc	35 3320 17 is_stmt 1
	addl	%ecx, %r10d
Ltmp1228:
	.loc	3 79 9
	movl	%r10d, 64(%r14)
Ltmp1229:
	.loc	3 79 33 is_stmt 0
	movl	132(%r14), %eax
Ltmp1230:
	.loc	35 3320 17 is_stmt 1
	addl	%eax, %r9d
Ltmp1231:
	.loc	3 79 9
	movl	%r9d, 68(%r14)
Ltmp1232:
	.loc	3 176 9
	movq	$0, (%r14)
Ltmp1233:
	.loc	35 3320 17
	pshufd	$231, %xmm6, %xmm0
	movd	%xmm0, %edx
	incl	%edx
Ltmp1234:
	.loc	3 178 9
	movl	%edx, 120(%r14)
	.loc	3 179 9
	jne	LBB73_6
Ltmp1235:
	.loc	35 3320 17
	incl	%ebx
Ltmp1236:
	.loc	3 180 9
	movl	%ebx, 124(%r14)
	.loc	3 181 9
	jne	LBB73_6
Ltmp1237:
	.loc	35 3320 17
	incl	%ecx
Ltmp1238:
	.loc	3 182 9
	movl	%ecx, 128(%r14)
	.loc	3 183 9
	jne	LBB73_6
Ltmp1239:
	.loc	35 3320 17
	incl	%eax
Ltmp1240:
	.loc	3 184 9
	movl	%eax, 132(%r14)
Ltmp1241:
LBB73_6:
	.loc	3 185 6
	addq	$48, %rsp
	popq	%rbx
	popq	%r12
	popq	%r13
	popq	%r14
	popq	%r15
	popq	%rbp
	retq
Ltmp1242:
Lfunc_end73:
	.cfi_endproc

	.section	__TEXT,__literal16,16byte_literals
	.p2align	4
LCPI74_0:
	.long	1634760805
	.long	857760878
	.long	2036477234
	.long	1797285236
	.section	__TEXT,__text,regular,pure_instructions
	.globl	__ZN92_$LT$rand..prng..chacha..ChaChaRng$u20$as$u20$rand..SeedableRng$LT$$RF$$u5b$u32$u5d$$GT$$GT$6reseed17h3e655bd3a32082dcE
	.p2align	4, 0x90
__ZN92_$LT$rand..prng..chacha..ChaChaRng$u20$as$u20$rand..SeedableRng$LT$$RF$$u5b$u32$u5d$$GT$$GT$6reseed17h3e655bd3a32082dcE:
Lfunc_begin74:
	.loc	3 203 0
	.cfi_startproc
	pushq	%rbp
	.cfi_def_cfa_offset 16
	.cfi_offset %rbp, -16
	movq	%rsp, %rbp
	.cfi_def_cfa_register %rbp
	movq	%rdx, %rax
Ltmp1243:
	.loc	3 156 9 prologue_end
	movaps	LCPI74_0(%rip), %xmm0
	movups	%xmm0, 72(%rdi)
Ltmp1244:
	.loc	3 165 9
	movq	$0, 88(%rdi)
	movq	$0, 96(%rdi)
	movq	$0, 104(%rdi)
	movq	$0, 112(%rdi)
	movq	$0, 120(%rdi)
	movq	$0, 128(%rdi)
	.loc	3 170 9
	movq	$16, (%rdi)
Ltmp1245:
	.loc	12 951 9
	cmpq	$8, %rdx
	movl	$8, %edx
	.loc	12 0 0 is_stmt 0
	cmovbq	%rax, %rdx
Ltmp1246:
	.file	50 "/rustc/a74d1862d4d87a56244958416fd05976c58ca1a8/src/libcore/iter/adapters/zip.rs"
	.loc	50 174 12 is_stmt 1
	testq	%rdx, %rdx
	.loc	50 174 9 is_stmt 0
	je	LBB74_2
Ltmp1247:
	.loc	3 0 0
	addq	$88, %rdi
Ltmp1248:
	.loc	50 174 9
	shlq	$2, %rdx
Ltmp1249:
	.loc	3 209 13 is_stmt 1
	callq	_memcpy
Ltmp1250:
LBB74_2:
	.loc	3 211 6
	popq	%rbp
	retq
Ltmp1251:
Lfunc_end74:
	.cfi_endproc
	.file	51 "/rustc/a74d1862d4d87a56244958416fd05976c58ca1a8/src/libcore/iter/traits/iterator.rs"

	.section	__TEXT,__literal16,16byte_literals
	.p2align	4
LCPI75_0:
	.long	1634760805
	.long	857760878
	.long	2036477234
	.long	1797285236
	.section	__TEXT,__text,regular,pure_instructions
	.globl	__ZN92_$LT$rand..prng..chacha..ChaChaRng$u20$as$u20$rand..SeedableRng$LT$$RF$$u5b$u32$u5d$$GT$$GT$9from_seed17h60adffc044c6e34bE
	.p2align	4, 0x90
__ZN92_$LT$rand..prng..chacha..ChaChaRng$u20$as$u20$rand..SeedableRng$LT$$RF$$u5b$u32$u5d$$GT$$GT$9from_seed17h60adffc044c6e34bE:
Lfunc_begin75:
	.loc	3 217 0
	.cfi_startproc
	pushq	%rbp
	.cfi_def_cfa_offset 16
	.cfi_offset %rbp, -16
	movq	%rsp, %rbp
	.cfi_def_cfa_register %rbp
	pushq	%rbx
	subq	$56, %rsp
	.cfi_offset %rbx, -24
	movq	%rdx, %rax
Ltmp1252:
	movq	%rdi, %rbx
Ltmp1253:
	.loc	3 165 9 prologue_end
	xorps	%xmm0, %xmm0
	movaps	%xmm0, -32(%rbp)
	movaps	%xmm0, -48(%rbp)
	movaps	%xmm0, -64(%rbp)
Ltmp1254:
	.loc	12 951 9
	cmpq	$8, %rdx
	movl	$8, %edx
	.loc	12 0 0 is_stmt 0
	cmovbq	%rax, %rdx
Ltmp1255:
	.loc	50 174 12 is_stmt 1
	testq	%rdx, %rdx
	.loc	50 174 9 is_stmt 0
	je	LBB75_2
Ltmp1256:
	shlq	$2, %rdx
	leaq	-64(%rbp), %rdi
Ltmp1257:
	.loc	3 209 13 is_stmt 1
	callq	_memcpy
Ltmp1258:
LBB75_2:
	.loc	3 220 9
	movq	$16, (%rbx)
	movq	__ZN4rand4prng6chacha5EMPTY17hc491c190d799ad22E+8(%rip), %rax
	movq	%rax, 8(%rbx)
	movq	__ZN4rand4prng6chacha5EMPTY17hc491c190d799ad22E+16(%rip), %rax
	movq	%rax, 16(%rbx)
	movq	__ZN4rand4prng6chacha5EMPTY17hc491c190d799ad22E+24(%rip), %rax
	movq	%rax, 24(%rbx)
	movq	__ZN4rand4prng6chacha5EMPTY17hc491c190d799ad22E+32(%rip), %rax
	movq	%rax, 32(%rbx)
	movq	__ZN4rand4prng6chacha5EMPTY17hc491c190d799ad22E+40(%rip), %rax
	movq	%rax, 40(%rbx)
	movq	__ZN4rand4prng6chacha5EMPTY17hc491c190d799ad22E+48(%rip), %rax
	movq	%rax, 48(%rbx)
	movq	__ZN4rand4prng6chacha5EMPTY17hc491c190d799ad22E+56(%rip), %rax
	movq	%rax, 56(%rbx)
	movq	__ZN4rand4prng6chacha5EMPTY17hc491c190d799ad22E+64(%rip), %rax
	movq	%rax, 64(%rbx)
	movaps	LCPI75_0(%rip), %xmm0
	movups	%xmm0, 72(%rbx)
	movq	-64(%rbp), %rax
	movq	-56(%rbp), %rcx
	movq	%rax, 88(%rbx)
	movq	%rcx, 96(%rbx)
	movq	-48(%rbp), %rax
	movq	%rax, 104(%rbx)
	movq	-40(%rbp), %rax
	movq	%rax, 112(%rbx)
	movq	-32(%rbp), %rax
	movq	%rax, 120(%rbx)
	movq	-24(%rbp), %rax
	movq	%rax, 128(%rbx)
Ltmp1259:
	.loc	3 221 6
	movq	%rbx, %rax
	addq	$56, %rsp
	popq	%rbx
	popq	%rbp
	retq
Ltmp1260:
Lfunc_end75:
	.cfi_endproc

	.globl	__ZN4rand4prng5isaac8IsaacRng12new_unseeded17h6099ee7c46395898E
	.p2align	4, 0x90
__ZN4rand4prng5isaac8IsaacRng12new_unseeded17h6099ee7c46395898E:
Lfunc_begin76:
	.loc	4 59 0
	.cfi_startproc
	pushq	%rbp
	.cfi_def_cfa_offset 16
	.cfi_offset %rbp, -16
	movq	%rsp, %rbp
	.cfi_def_cfa_register %rbp
	pushq	%r14
	pushq	%rbx
	subq	$2064, %rsp
	.cfi_offset %rbx, -32
	.cfi_offset %r14, -24
	movq	%rdi, %rbx
	leaq	-2080(%rbp), %r14
Ltmp1261:
	.loc	4 60 23 prologue_end
	movl	$2064, %esi
	movq	%r14, %rdi
	callq	___bzero
Ltmp1262:
	.loc	4 61 9
	movq	%r14, %rdi
	xorl	%esi, %esi
	callq	__ZN4rand4prng5isaac8IsaacRng4init17h1829f20b96d8fba8E
	.loc	4 62 9
	movl	$2064, %edx
	movq	%rbx, %rdi
	movq	%r14, %rsi
	callq	_memcpy
Ltmp1263:
	.loc	4 63 6
	movq	%rbx, %rax
	addq	$2064, %rsp
	popq	%rbx
	popq	%r14
	popq	%rbp
	retq
Ltmp1264:
Lfunc_end76:
	.cfi_endproc

	.globl	__ZN4rand4prng5isaac8IsaacRng4init17h1829f20b96d8fba8E
	.p2align	4, 0x90
__ZN4rand4prng5isaac8IsaacRng4init17h1829f20b96d8fba8E:
Lfunc_begin77:
	.loc	4 68 0
	.cfi_startproc
	pushq	%rbp
	.cfi_def_cfa_offset 16
	.cfi_offset %rbp, -16
	movq	%rsp, %rbp
	.cfi_def_cfa_register %rbp
Ltmp1265:
	pushq	%r15
	pushq	%r14
	pushq	%r12
	pushq	%rbx
	.cfi_offset %rbx, -48
	.cfi_offset %r12, -40
	.cfi_offset %r14, -32
	.cfi_offset %r15, -24
Ltmp1266:
	movl	$811634969, %r8d
	.loc	4 95 9 prologue_end
	testl	%esi, %esi
	je	LBB77_1
Ltmp1267:
	.loc	4 0 9 is_stmt 0
	movl	$-990909925, %r9d
	movl	$-1525007287, %r10d
	movl	$-651539848, %edx
	movl	$255990488, %esi
Ltmp1268:
	movl	$-1021952437, %ecx
	movl	$-1780940711, %eax
	movl	$325574490, %r14d
	movq	$-1024, %r12
Ltmp1269:
	.p2align	4, 0x90
LBB77_4:
	.loc	35 3320 17 is_stmt 1
	addl	1028(%rdi,%r12), %r14d
Ltmp1270:
	.loc	35 3320 17 is_stmt 0
	addl	1032(%rdi,%r12), %eax
Ltmp1271:
	.loc	35 3320 17
	addl	1036(%rdi,%r12), %ecx
Ltmp1272:
	.loc	35 3320 17
	addl	1040(%rdi,%r12), %esi
Ltmp1273:
	.loc	35 3320 17
	addl	1044(%rdi,%r12), %edx
Ltmp1274:
	.loc	35 3320 17
	addl	1048(%rdi,%r12), %r10d
Ltmp1275:
	.loc	35 3320 17
	addl	1052(%rdi,%r12), %r9d
Ltmp1276:
	.loc	35 3320 17
	addl	1056(%rdi,%r12), %r8d
Ltmp1277:
	.loc	35 3320 17
	leal	(%rcx,%rax), %r15d
Ltmp1278:
	.loc	35 3531 21 is_stmt 1
	shll	$11, %eax
Ltmp1279:
	.loc	49 253 26
	xorl	%r14d, %eax
Ltmp1280:
	.loc	35 3320 17
	addl	%eax, %esi
Ltmp1281:
	.loc	35 3320 17 is_stmt 0
	leal	(%rsi,%rcx), %r11d
Ltmp1282:
	.loc	35 3565 21 is_stmt 1
	shrl	$2, %ecx
Ltmp1283:
	.loc	49 253 26
	xorl	%r15d, %ecx
Ltmp1284:
	.loc	35 3320 17
	addl	%ecx, %edx
Ltmp1285:
	.loc	35 3320 17 is_stmt 0
	leal	(%rdx,%rsi), %r14d
Ltmp1286:
	.loc	35 3531 21 is_stmt 1
	shll	$8, %esi
Ltmp1287:
	.loc	35 3320 17
	movl	%eax, %ebx
Ltmp1288:
	.loc	35 3320 17 is_stmt 0
	movl	%ecx, %eax
Ltmp1289:
	.loc	49 253 26 is_stmt 1
	movl	%esi, %ecx
Ltmp1290:
	xorl	%r11d, %ecx
Ltmp1291:
	.loc	35 3320 17
	addl	%ecx, %r10d
Ltmp1292:
	.loc	35 3320 17 is_stmt 0
	leal	(%r10,%rdx), %r11d
Ltmp1293:
	.loc	35 3565 21 is_stmt 1
	shrl	$16, %edx
Ltmp1294:
	.loc	49 253 26
	movl	%edx, %esi
Ltmp1295:
	xorl	%r14d, %esi
Ltmp1296:
	.loc	35 3320 17
	addl	%esi, %r9d
Ltmp1297:
	.loc	35 3320 17 is_stmt 0
	leal	(%r9,%r10), %r14d
Ltmp1298:
	.loc	35 3531 21 is_stmt 1
	shll	$10, %r10d
Ltmp1299:
	.loc	49 253 26
	movl	%r10d, %edx
Ltmp1300:
	xorl	%r11d, %edx
Ltmp1301:
	.loc	35 3320 17
	addl	%edx, %r8d
Ltmp1302:
	.loc	35 3320 17 is_stmt 0
	leal	(%r8,%r9), %r11d
Ltmp1303:
	.loc	35 3565 21 is_stmt 1
	shrl	$4, %r9d
Ltmp1304:
	.loc	49 253 26
	movl	%r9d, %r10d
Ltmp1305:
	xorl	%r14d, %r10d
Ltmp1306:
	.loc	35 3320 17
	addl	%r10d, %ebx
Ltmp1307:
	.loc	35 3320 17 is_stmt 0
	leal	(%rbx,%r8), %r15d
Ltmp1308:
	.loc	35 3531 21 is_stmt 1
	shll	$8, %r8d
Ltmp1309:
	.loc	49 253 26
	movl	%r8d, %r9d
Ltmp1310:
	xorl	%r11d, %r9d
Ltmp1311:
	.loc	35 3320 17
	addl	%r9d, %eax
Ltmp1312:
	.loc	35 3320 17 is_stmt 0
	leal	(%rax,%rbx), %r14d
Ltmp1313:
	.loc	35 3565 21 is_stmt 1
	shrl	$9, %ebx
Ltmp1314:
	.loc	49 253 26
	movl	%ebx, %r8d
Ltmp1315:
	xorl	%r15d, %r8d
Ltmp1316:
	.loc	35 3320 17
	addl	%r8d, %ecx
Ltmp1317:
	.loc	4 112 13
	movl	%r14d, 2052(%rdi,%r12)
	movl	%eax, 2056(%rdi,%r12)
	movl	%ecx, 2060(%rdi,%r12)
	movl	%esi, 2064(%rdi,%r12)
	movl	%edx, 2068(%rdi,%r12)
	movl	%r10d, 2072(%rdi,%r12)
	movl	%r9d, 2076(%rdi,%r12)
	movl	%r8d, 2080(%rdi,%r12)
Ltmp1318:
	.loc	12 1137 52
	addq	$32, %r12
Ltmp1319:
	.loc	45 211 9
	jne	LBB77_4
Ltmp1320:
	.loc	45 0 9 is_stmt 0
	xorl	%r11d, %r11d
Ltmp1321:
	.p2align	4, 0x90
LBB77_6:
	.loc	35 3320 17 is_stmt 1
	addl	1028(%rdi,%r11), %r14d
Ltmp1322:
	.loc	35 3320 17 is_stmt 0
	addl	1032(%rdi,%r11), %eax
Ltmp1323:
	.loc	35 3320 17
	addl	1036(%rdi,%r11), %ecx
Ltmp1324:
	.loc	35 3320 17
	addl	1040(%rdi,%r11), %esi
Ltmp1325:
	.loc	35 3320 17
	addl	1044(%rdi,%r11), %edx
Ltmp1326:
	.loc	35 3320 17
	addl	1048(%rdi,%r11), %r10d
Ltmp1327:
	.loc	35 3320 17
	addl	1052(%rdi,%r11), %r9d
Ltmp1328:
	.loc	35 3320 17
	addl	1056(%rdi,%r11), %r8d
Ltmp1329:
	.loc	35 3320 17
	leal	(%rcx,%rax), %ebx
Ltmp1330:
	.loc	35 3531 21 is_stmt 1
	shll	$11, %eax
Ltmp1331:
	.loc	49 253 26
	xorl	%r14d, %eax
Ltmp1332:
	.loc	35 3320 17
	addl	%eax, %esi
Ltmp1333:
	.loc	35 3320 17 is_stmt 0
	leal	(%rsi,%rcx), %r14d
Ltmp1334:
	.loc	35 3565 21 is_stmt 1
	shrl	$2, %ecx
Ltmp1335:
	.loc	49 253 26
	xorl	%ebx, %ecx
Ltmp1336:
	.loc	35 3320 17
	addl	%ecx, %edx
Ltmp1337:
	.loc	35 3320 17 is_stmt 0
	leal	(%rdx,%rsi), %ebx
Ltmp1338:
	.loc	35 3531 21 is_stmt 1
	shll	$8, %esi
Ltmp1339:
	.loc	49 253 26
	xorl	%r14d, %esi
Ltmp1340:
	.loc	35 3320 17
	addl	%esi, %r10d
Ltmp1341:
	.loc	35 3320 17 is_stmt 0
	leal	(%r10,%rdx), %r14d
Ltmp1342:
	.loc	35 3565 21 is_stmt 1
	shrl	$16, %edx
Ltmp1343:
	.loc	49 253 26
	xorl	%ebx, %edx
Ltmp1344:
	.loc	35 3320 17
	addl	%edx, %r9d
Ltmp1345:
	.loc	35 3320 17 is_stmt 0
	leal	(%r9,%r10), %ebx
Ltmp1346:
	.loc	35 3531 21 is_stmt 1
	shll	$10, %r10d
Ltmp1347:
	.loc	49 253 26
	xorl	%r14d, %r10d
Ltmp1348:
	.loc	35 3320 17
	addl	%r10d, %r8d
Ltmp1349:
	.loc	35 3320 17 is_stmt 0
	leal	(%r8,%r9), %r14d
Ltmp1350:
	.loc	35 3565 21 is_stmt 1
	shrl	$4, %r9d
Ltmp1351:
	.loc	49 253 26
	xorl	%ebx, %r9d
Ltmp1352:
	.loc	35 3320 17
	addl	%r9d, %eax
Ltmp1353:
	.loc	35 3320 17 is_stmt 0
	leal	(%rax,%r8), %r15d
Ltmp1354:
	.loc	35 3531 21 is_stmt 1
	shll	$8, %r8d
Ltmp1355:
	.loc	49 253 26
	xorl	%r14d, %r8d
Ltmp1356:
	.loc	35 3320 17
	addl	%r8d, %ecx
Ltmp1357:
	.loc	35 3320 17 is_stmt 0
	leal	(%rcx,%rax), %r14d
Ltmp1358:
	.loc	35 3565 21 is_stmt 1
	shrl	$9, %eax
Ltmp1359:
	.loc	49 253 26
	movl	%eax, %ebx
Ltmp1360:
	xorl	%r15d, %ebx
Ltmp1361:
	.loc	35 3320 17
	addl	%ebx, %esi
Ltmp1362:
	.loc	4 113 13
	movl	%r14d, 1028(%rdi,%r11)
	movl	%ecx, 1032(%rdi,%r11)
	movl	%esi, 1036(%rdi,%r11)
	movl	%edx, 1040(%rdi,%r11)
	movl	%r10d, 1044(%rdi,%r11)
	movl	%r9d, 1048(%rdi,%r11)
	movl	%r8d, 1052(%rdi,%r11)
	movl	%ebx, 1056(%rdi,%r11)
Ltmp1363:
	.loc	12 1137 52
	addq	$32, %r11
	movl	%ecx, %eax
Ltmp1364:
	.loc	12 0 52 is_stmt 0
	movl	%esi, %ecx
	movl	%edx, %esi
	movl	%r10d, %edx
Ltmp1365:
	movl	%r9d, %r10d
Ltmp1366:
	movl	%r8d, %r9d
Ltmp1367:
	movl	%ebx, %r8d
Ltmp1368:
	.loc	12 1137 52
	cmpq	$1024, %r11
Ltmp1369:
	.loc	45 211 9 is_stmt 1
	jne	LBB77_6
	jmp	LBB77_7
Ltmp1370:
LBB77_1:
	.loc	45 0 9 is_stmt 0
	movl	$-990909925, %eax
	movl	$-1525007287, %ecx
	movl	$-651539848, %edx
	movl	$255990488, %esi
Ltmp1371:
	movl	$-1021952437, %ebx
	movl	$-1780940711, %r14d
	movl	$325574490, %r11d
	xorl	%r9d, %r9d
Ltmp1372:
	.p2align	4, 0x90
LBB77_2:
	.loc	35 3531 21 is_stmt 1
	movl	%r14d, %r10d
	shll	$11, %r10d
Ltmp1373:
	.loc	49 253 26
	xorl	%r11d, %r10d
Ltmp1374:
	.loc	35 3320 17
	addl	%r10d, %esi
Ltmp1375:
	.loc	35 3320 17 is_stmt 0
	addl	%ebx, %r14d
Ltmp1376:
	.loc	35 3320 17
	leal	(%rsi,%rbx), %r11d
Ltmp1377:
	.loc	35 3565 21 is_stmt 1
	shrl	$2, %ebx
Ltmp1378:
	.loc	49 253 26
	xorl	%r14d, %ebx
Ltmp1379:
	.loc	35 3320 17
	addl	%ebx, %edx
Ltmp1380:
	.loc	35 3320 17 is_stmt 0
	leal	(%rdx,%rsi), %r14d
Ltmp1381:
	.loc	35 3531 21 is_stmt 1
	shll	$8, %esi
Ltmp1382:
	.loc	49 253 26
	xorl	%r11d, %esi
Ltmp1383:
	.loc	35 3320 17
	addl	%esi, %ecx
Ltmp1384:
	.loc	35 3320 17 is_stmt 0
	leal	(%rcx,%rdx), %r11d
Ltmp1385:
	.loc	35 3565 21 is_stmt 1
	shrl	$16, %edx
Ltmp1386:
	.loc	49 253 26
	xorl	%r14d, %edx
Ltmp1387:
	.loc	35 3320 17
	addl	%edx, %eax
Ltmp1388:
	.loc	35 3320 17 is_stmt 0
	leal	(%rax,%rcx), %r14d
Ltmp1389:
	.loc	35 3531 21 is_stmt 1
	shll	$10, %ecx
Ltmp1390:
	.loc	49 253 26
	xorl	%r11d, %ecx
Ltmp1391:
	.loc	35 3320 17
	addl	%ecx, %r8d
Ltmp1392:
	.loc	35 3320 17 is_stmt 0
	leal	(%r8,%rax), %r11d
Ltmp1393:
	.loc	35 3565 21 is_stmt 1
	shrl	$4, %eax
Ltmp1394:
	.loc	49 253 26
	xorl	%r14d, %eax
Ltmp1395:
	.loc	35 3320 17
	addl	%eax, %r10d
Ltmp1396:
	.loc	35 3320 17 is_stmt 0
	leal	(%r10,%r8), %r14d
Ltmp1397:
	.loc	35 3531 21 is_stmt 1
	shll	$8, %r8d
Ltmp1398:
	.loc	49 253 26
	xorl	%r11d, %r8d
Ltmp1399:
	.loc	35 3320 17
	addl	%r8d, %ebx
Ltmp1400:
	.loc	35 3320 17 is_stmt 0
	leal	(%rbx,%r10), %r11d
Ltmp1401:
	.loc	35 3565 21 is_stmt 1
	shrl	$9, %r10d
Ltmp1402:
	.loc	49 253 26
	xorl	%r14d, %r10d
Ltmp1403:
	.loc	35 3320 17
	addl	%r10d, %esi
Ltmp1404:
	.loc	4 117 17
	movl	%r11d, 1028(%rdi,%r9)
	.loc	4 117 34 is_stmt 0
	movl	%ebx, 1032(%rdi,%r9)
	.loc	4 118 17 is_stmt 1
	movl	%esi, 1036(%rdi,%r9)
	.loc	4 118 34 is_stmt 0
	movl	%edx, 1040(%rdi,%r9)
	.loc	4 119 17 is_stmt 1
	movl	%ecx, 1044(%rdi,%r9)
	.loc	4 119 34 is_stmt 0
	movl	%eax, 1048(%rdi,%r9)
	.loc	4 120 17 is_stmt 1
	movl	%r8d, 1052(%rdi,%r9)
	.loc	4 120 34 is_stmt 0
	movl	%r10d, 1056(%rdi,%r9)
Ltmp1405:
	.loc	12 1137 52 is_stmt 1
	addq	$32, %r9
	movl	%ebx, %r14d
Ltmp1406:
	.loc	12 0 52 is_stmt 0
	movl	%esi, %ebx
	movl	%edx, %esi
	movl	%ecx, %edx
Ltmp1407:
	movl	%eax, %ecx
Ltmp1408:
	movl	%r8d, %eax
Ltmp1409:
	movl	%r10d, %r8d
Ltmp1410:
	.loc	12 1137 52
	cmpq	$1024, %r9
	jne	LBB77_2
Ltmp1411:
LBB77_7:
	.loc	4 132 21 is_stmt 1
	movl	2052(%rdi), %edx
Ltmp1412:
	.loc	4 130 18
	movl	2060(%rdi), %eax
Ltmp1413:
	.loc	35 3320 17
	incl	%eax
Ltmp1414:
	.loc	4 130 9
	movl	%eax, 2060(%rdi)
Ltmp1415:
	.loc	35 3320 17
	addl	2056(%rdi), %eax
Ltmp1416:
	.loc	35 0 17 is_stmt 0
	movq	$-512, %r8
Ltmp1417:
	.p2align	4, 0x90
LBB77_8:
	.loc	35 3531 21 is_stmt 1
	movl	%edx, %ebx
	shll	$13, %ebx
Ltmp1418:
	.loc	49 253 26
	xorl	%edx, %ebx
Ltmp1419:
	.loc	35 3320 17
	addl	2052(%rdi,%r8), %ebx
Ltmp1420:
	.loc	4 175 17
	movl	1540(%rdi,%r8), %esi
Ltmp1421:
	.loc	4 175 17 is_stmt 0
	movl	%esi, %edx
Ltmp1422:
	andl	$1020, %edx
Ltmp1423:
	.loc	35 3320 17 is_stmt 1
	addl	1028(%rdi,%rdx), %eax
Ltmp1424:
	.loc	4 176 17
	movl	1544(%rdi,%r8), %ecx
Ltmp1425:
	.loc	35 3320 17
	addl	%ebx, %eax
Ltmp1426:
	.loc	4 175 17
	movl	%eax, 1540(%rdi,%r8)
Ltmp1427:
	.loc	35 3565 21
	shrl	$10, %eax
Ltmp1428:
	.loc	4 175 17
	movzbl	%al, %eax
Ltmp1429:
	.loc	35 3320 17
	addl	1028(%rdi,%rax,4), %esi
Ltmp1430:
	.loc	4 175 17
	movl	%esi, 516(%rdi,%r8)
Ltmp1431:
	.loc	35 3565 21
	movl	%ebx, %eax
	shrl	$6, %eax
Ltmp1432:
	.loc	49 253 26
	xorl	%ebx, %eax
Ltmp1433:
	.loc	35 3320 17
	addl	2056(%rdi,%r8), %eax
Ltmp1434:
	.loc	4 176 17
	movl	%ecx, %edx
	andl	$1020, %edx
Ltmp1435:
	.loc	35 3320 17
	addl	1028(%rdi,%rdx), %esi
Ltmp1436:
	.loc	35 3320 17 is_stmt 0
	addl	%eax, %esi
Ltmp1437:
	.loc	4 176 17 is_stmt 1
	movl	%esi, 1544(%rdi,%r8)
Ltmp1438:
	.loc	35 3565 21
	shrl	$10, %esi
Ltmp1439:
	.loc	4 176 17
	movzbl	%sil, %edx
Ltmp1440:
	.loc	35 3320 17
	addl	1028(%rdi,%rdx,4), %ecx
Ltmp1441:
	.loc	4 176 17
	movl	%ecx, 520(%rdi,%r8)
Ltmp1442:
	.loc	35 3531 21
	leal	(,%rax,4), %ebx
Ltmp1443:
	.loc	49 253 26
	xorl	%eax, %ebx
Ltmp1444:
	.loc	35 3320 17
	addl	2060(%rdi,%r8), %ebx
Ltmp1445:
	.loc	4 177 17
	movl	1548(%rdi,%r8), %esi
Ltmp1446:
	.loc	4 177 17 is_stmt 0
	movl	%esi, %eax
Ltmp1447:
	andl	$1020, %eax
Ltmp1448:
	.loc	35 3320 17 is_stmt 1
	addl	1028(%rdi,%rax), %ecx
Ltmp1449:
	.loc	35 3320 17 is_stmt 0
	addl	%ebx, %ecx
Ltmp1450:
	.loc	4 177 17 is_stmt 1
	movl	%ecx, 1548(%rdi,%r8)
Ltmp1451:
	.loc	35 3565 21
	shrl	$10, %ecx
Ltmp1452:
	.loc	4 177 17
	movzbl	%cl, %eax
Ltmp1453:
	.loc	35 3320 17
	addl	1028(%rdi,%rax,4), %esi
Ltmp1454:
	.loc	4 177 17
	movl	%esi, 524(%rdi,%r8)
Ltmp1455:
	.loc	35 3565 21
	movl	%ebx, %edx
	shrl	$16, %edx
Ltmp1456:
	.loc	49 253 26
	xorl	%ebx, %edx
Ltmp1457:
	.loc	35 3320 17
	addl	2064(%rdi,%r8), %edx
Ltmp1458:
	.loc	4 178 17
	movl	1552(%rdi,%r8), %eax
Ltmp1459:
	.loc	4 178 17 is_stmt 0
	movl	%eax, %ecx
Ltmp1460:
	andl	$1020, %ecx
Ltmp1461:
	.loc	35 3320 17 is_stmt 1
	addl	1028(%rdi,%rcx), %esi
Ltmp1462:
	.loc	35 3320 17 is_stmt 0
	addl	%edx, %esi
Ltmp1463:
	.loc	4 178 17 is_stmt 1
	movl	%esi, 1552(%rdi,%r8)
Ltmp1464:
	.loc	35 3565 21
	shrl	$10, %esi
Ltmp1465:
	.loc	4 178 17
	movzbl	%sil, %ecx
Ltmp1466:
	.loc	35 3320 17
	addl	1028(%rdi,%rcx,4), %eax
Ltmp1467:
	.loc	4 178 17
	movl	%eax, 528(%rdi,%r8)
Ltmp1468:
	.loc	12 1137 52
	addq	$16, %r8
Ltmp1469:
	.loc	45 211 9
	jne	LBB77_8
Ltmp1470:
	.loc	45 0 9 is_stmt 0
	xorl	%r8d, %r8d
Ltmp1471:
	.p2align	4, 0x90
LBB77_10:
	.loc	4 175 17 is_stmt 1
	movl	1540(%rdi,%r8), %ecx
Ltmp1472:
	.loc	35 3531 21
	movl	%edx, %ebx
Ltmp1473:
	shll	$13, %ebx
Ltmp1474:
	.loc	49 253 26
	xorl	%edx, %ebx
Ltmp1475:
	.loc	35 3320 17
	addl	1028(%rdi,%r8), %ebx
Ltmp1476:
	.loc	4 176 17
	movl	1544(%rdi,%r8), %edx
Ltmp1477:
	.loc	4 175 17
	movl	%ecx, %esi
Ltmp1478:
	andl	$1020, %esi
Ltmp1479:
	.loc	35 3320 17
	addl	1028(%rdi,%rsi), %eax
Ltmp1480:
	.loc	35 3320 17 is_stmt 0
	addl	%ebx, %eax
Ltmp1481:
	.loc	4 175 17 is_stmt 1
	movl	%eax, 1540(%rdi,%r8)
Ltmp1482:
	.loc	35 3565 21
	shrl	$10, %eax
Ltmp1483:
	.loc	4 175 17
	movzbl	%al, %eax
Ltmp1484:
	.loc	35 3320 17
	addl	1028(%rdi,%rax,4), %ecx
Ltmp1485:
	.loc	4 175 17
	movl	%ecx, 516(%rdi,%r8)
Ltmp1486:
	.loc	35 3565 21
	movl	%ebx, %eax
	shrl	$6, %eax
Ltmp1487:
	.loc	49 253 26
	xorl	%ebx, %eax
Ltmp1488:
	.loc	35 3320 17
	addl	1032(%rdi,%r8), %eax
Ltmp1489:
	.loc	4 176 17
	movl	%edx, %esi
	andl	$1020, %esi
Ltmp1490:
	.loc	35 3320 17
	addl	1028(%rdi,%rsi), %ecx
Ltmp1491:
	.loc	35 3320 17 is_stmt 0
	addl	%eax, %ecx
Ltmp1492:
	.loc	4 176 17 is_stmt 1
	movl	%ecx, 1544(%rdi,%r8)
Ltmp1493:
	.loc	35 3565 21
	shrl	$10, %ecx
Ltmp1494:
	.loc	4 176 17
	movzbl	%cl, %ecx
Ltmp1495:
	.loc	35 3320 17
	addl	1028(%rdi,%rcx,4), %edx
Ltmp1496:
	.loc	4 176 17
	movl	%edx, 520(%rdi,%r8)
Ltmp1497:
	.loc	35 3531 21
	leal	(,%rax,4), %ecx
Ltmp1498:
	.loc	4 177 17
	movl	1548(%rdi,%r8), %esi
Ltmp1499:
	.loc	49 253 26
	xorl	%eax, %ecx
Ltmp1500:
	.loc	35 3320 17
	addl	1036(%rdi,%r8), %ecx
Ltmp1501:
	.loc	4 177 17
	movl	%esi, %eax
Ltmp1502:
	andl	$1020, %eax
Ltmp1503:
	.loc	35 3320 17
	addl	1028(%rdi,%rax), %edx
Ltmp1504:
	.loc	35 3320 17 is_stmt 0
	addl	%ecx, %edx
Ltmp1505:
	.loc	4 177 17 is_stmt 1
	movl	%edx, 1548(%rdi,%r8)
Ltmp1506:
	.loc	35 3565 21
	shrl	$10, %edx
Ltmp1507:
	.loc	4 177 17
	movzbl	%dl, %eax
Ltmp1508:
	.loc	35 3320 17
	addl	1028(%rdi,%rax,4), %esi
Ltmp1509:
	.loc	4 177 17
	movl	%esi, 524(%rdi,%r8)
Ltmp1510:
	.loc	35 3565 21
	movl	%ecx, %edx
Ltmp1511:
	shrl	$16, %edx
Ltmp1512:
	.loc	4 178 17
	movl	1552(%rdi,%r8), %eax
Ltmp1513:
	.loc	49 253 26
	xorl	%ecx, %edx
Ltmp1514:
	.loc	35 3320 17
	addl	1040(%rdi,%r8), %edx
Ltmp1515:
	.loc	4 178 17
	movl	%eax, %ecx
Ltmp1516:
	andl	$1020, %ecx
Ltmp1517:
	.loc	35 3320 17
	addl	1028(%rdi,%rcx), %esi
Ltmp1518:
	.loc	35 3320 17 is_stmt 0
	addl	%edx, %esi
Ltmp1519:
	.loc	4 178 17 is_stmt 1
	movl	%esi, 1552(%rdi,%r8)
Ltmp1520:
	.loc	35 3565 21
	shrl	$10, %esi
Ltmp1521:
	.loc	4 178 17
	movzbl	%sil, %ecx
Ltmp1522:
	.loc	35 3320 17
	addl	1028(%rdi,%rcx,4), %eax
Ltmp1523:
	.loc	4 178 17
	movl	%eax, 528(%rdi,%r8)
Ltmp1524:
	.loc	12 1137 52
	addq	$16, %r8
	cmpq	$512, %r8
Ltmp1525:
	.loc	45 211 9
	jne	LBB77_10
Ltmp1526:
	.loc	4 182 9
	movl	%edx, 2052(%rdi)
	.loc	4 183 9
	movl	%eax, 2056(%rdi)
	.loc	4 184 9
	movl	$256, (%rdi)
Ltmp1527:
	.loc	4 125 6
	popq	%rbx
	popq	%r12
	popq	%r14
	popq	%r15
	popq	%rbp
	retq
Ltmp1528:
Lfunc_end77:
	.cfi_endproc
	.file	52 "/rustc/a74d1862d4d87a56244958416fd05976c58ca1a8/src/libcore/iter/adapters/mod.rs"

	.globl	__ZN66_$LT$rand..prng..isaac..IsaacRng$u20$as$u20$core..clone..Clone$GT$5clone17h4bf6e111b95cb6bdE
	.p2align	4, 0x90
__ZN66_$LT$rand..prng..isaac..IsaacRng$u20$as$u20$core..clone..Clone$GT$5clone17h4bf6e111b95cb6bdE:
Lfunc_begin78:
	.loc	4 190 0
	.cfi_startproc
	pushq	%rbp
	.cfi_def_cfa_offset 16
	.cfi_offset %rbp, -16
	movq	%rsp, %rbp
	.cfi_def_cfa_register %rbp
	pushq	%rbx
	pushq	%rax
	.cfi_offset %rbx, -24
	movq	%rdi, %rbx
Ltmp1529:
	.loc	4 191 9 prologue_end
	movl	$2064, %edx
	callq	_memcpy
Ltmp1530:
	.loc	4 192 6
	movq	%rbx, %rax
	addq	$8, %rsp
	popq	%rbx
	popq	%rbp
	retq
Ltmp1531:
Lfunc_end78:
	.cfi_endproc

	.globl	__ZN90_$LT$rand..prng..isaac..IsaacRng$u20$as$u20$rand..SeedableRng$LT$$RF$$u5b$u32$u5d$$GT$$GT$6reseed17h707077efde2472a1E
	.p2align	4, 0x90
__ZN90_$LT$rand..prng..isaac..IsaacRng$u20$as$u20$rand..SeedableRng$LT$$RF$$u5b$u32$u5d$$GT$$GT$6reseed17h707077efde2472a1E:
Lfunc_begin79:
	.loc	4 220 0
	.cfi_startproc
	pushq	%rbp
	.cfi_def_cfa_offset 16
	.cfi_offset %rbp, -16
	movq	%rsp, %rbp
	.cfi_def_cfa_register %rbp
Ltmp1532:
	.file	53 "/rustc/a74d1862d4d87a56244958416fd05976c58ca1a8/src/libcore/ptr/const_ptr.rs"
	.loc	53 158 9 prologue_end
	leaq	(%rsi,%rdx,4), %r9
Ltmp1533:
	.loc	22 404 9
	leaq	4(%rdi), %rcx
Ltmp1534:
	.loc	38 152 9
	leaq	1028(%rdi), %r8
Ltmp1535:
	.loc	38 0 9 is_stmt 0
	xorl	%r10d, %r10d
Ltmp1536:
	.file	54 "/rustc/a74d1862d4d87a56244958416fd05976c58ca1a8/src/libcore/iter/adapters/chain.rs"
	.loc	54 37 13 is_stmt 1
	testq	%rsi, %rsi
Ltmp1537:
	jne	LBB79_3
	jmp	LBB79_2
Ltmp1538:
	.p2align	4, 0x90
LBB79_6:
	.loc	54 0 13 is_stmt 0
	xorl	%eax, %eax
Ltmp1539:
LBB79_9:
	.loc	4 226 13 is_stmt 1
	movl	%eax, 4(%rcx)
Ltmp1540:
	.loc	22 3179 9
	addq	$8, %rcx
	movq	%r10, %rsi
Ltmp1541:
	cmpq	%r8, %rcx
	.loc	22 3303 21
	je	LBB79_10
Ltmp1542:
	.loc	22 0 21 is_stmt 0
	xorl	%r10d, %r10d
Ltmp1543:
	.loc	54 37 13 is_stmt 1
	testq	%rsi, %rsi
Ltmp1544:
	je	LBB79_2
Ltmp1545:
LBB79_3:
	.loc	54 0 13 is_stmt 0
	movl	$0, %edx
	movl	$0, %eax
	.loc	54 37 13
	cmpq	%rsi, %r9
	je	LBB79_5
Ltmp1546:
	.loc	31 458 29 is_stmt 1
	movl	(%rsi), %eax
Ltmp1547:
	.loc	38 152 9
	addq	$4, %rsi
Ltmp1548:
	.loc	38 0 9 is_stmt 0
	movq	%rsi, %rdx
Ltmp1549:
LBB79_5:
	.loc	4 226 13 is_stmt 1
	movl	%eax, (%rcx)
Ltmp1550:
	.loc	54 37 13
	testq	%rdx, %rdx
Ltmp1551:
	je	LBB79_6
Ltmp1552:
LBB79_7:
	.loc	54 0 13 is_stmt 0
	movl	$0, %eax
	.loc	54 37 13
	cmpq	%rdx, %r9
	je	LBB79_9
Ltmp1553:
	.loc	31 458 29 is_stmt 1
	movl	(%rdx), %eax
Ltmp1554:
	.loc	38 152 9
	addq	$4, %rdx
Ltmp1555:
	.loc	38 0 9 is_stmt 0
	movq	%rdx, %r10
	jmp	LBB79_9
Ltmp1556:
	.p2align	4, 0x90
LBB79_2:
	xorl	%edx, %edx
Ltmp1557:
	xorl	%eax, %eax
Ltmp1558:
	.loc	4 226 13 is_stmt 1
	movl	%eax, (%rcx)
Ltmp1559:
	.loc	54 37 13
	testq	%rdx, %rdx
Ltmp1560:
	.loc	54 0 13 is_stmt 0
	jne	LBB79_7
	jmp	LBB79_6
Ltmp1561:
LBB79_10:
	.loc	4 228 9 is_stmt 1
	movl	$0, (%rdi)
	.loc	4 229 9
	movq	$0, 2052(%rdi)
	.loc	4 231 9
	movl	$0, 2060(%rdi)
	.loc	4 233 9
	movl	$1, %esi
	popq	%rbp
	jmp	__ZN4rand4prng5isaac8IsaacRng4init17h1829f20b96d8fba8E
Ltmp1562:
Lfunc_end79:
	.cfi_endproc

	.globl	__ZN90_$LT$rand..prng..isaac..IsaacRng$u20$as$u20$rand..SeedableRng$LT$$RF$$u5b$u32$u5d$$GT$$GT$9from_seed17h6721d3d9fb0e2dd2E
	.p2align	4, 0x90
__ZN90_$LT$rand..prng..isaac..IsaacRng$u20$as$u20$rand..SeedableRng$LT$$RF$$u5b$u32$u5d$$GT$$GT$9from_seed17h6721d3d9fb0e2dd2E:
Lfunc_begin80:
	.loc	4 241 0
	.cfi_startproc
	pushq	%rbp
	.cfi_def_cfa_offset 16
	.cfi_offset %rbp, -16
	movq	%rsp, %rbp
	.cfi_def_cfa_register %rbp
	pushq	%r15
	pushq	%r14
	pushq	%rbx
	subq	$2072, %rsp
	.cfi_offset %rbx, -40
	.cfi_offset %r14, -32
	.cfi_offset %r15, -24
	movq	%rdx, %r15
Ltmp1563:
	movq	%rsi, %rbx
Ltmp1564:
	movq	%rdi, %r14
Ltmp1565:
	leaq	-2088(%rbp), %rdi
Ltmp1566:
	.loc	4 242 23 prologue_end
	movl	$2064, %esi
	callq	___bzero
Ltmp1567:
	.loc	53 158 9
	leaq	(%rbx,%r15,4), %rax
Ltmp1568:
	.loc	22 404 9
	leaq	-2084(%rbp), %rcx
Ltmp1569:
	.loc	38 152 9
	leaq	-1060(%rbp), %r8
Ltmp1570:
	.loc	38 0 9 is_stmt 0
	xorl	%esi, %esi
Ltmp1571:
	.loc	54 37 13 is_stmt 1
	testq	%rbx, %rbx
Ltmp1572:
	jne	LBB80_3
	jmp	LBB80_2
Ltmp1573:
	.p2align	4, 0x90
LBB80_6:
	.loc	54 0 13 is_stmt 0
	xorl	%edx, %edx
Ltmp1574:
LBB80_9:
	.loc	4 226 13 is_stmt 1
	movl	%edx, 4(%rcx)
Ltmp1575:
	.loc	22 3179 9
	addq	$8, %rcx
	movq	%rsi, %rbx
Ltmp1576:
	cmpq	%r8, %rcx
	.loc	22 3303 21
	je	LBB80_10
Ltmp1577:
	.loc	22 0 21 is_stmt 0
	xorl	%esi, %esi
Ltmp1578:
	.loc	54 37 13 is_stmt 1
	testq	%rbx, %rbx
Ltmp1579:
	je	LBB80_2
Ltmp1580:
LBB80_3:
	.loc	54 0 13 is_stmt 0
	movl	$0, %edi
	movl	$0, %edx
	.loc	54 37 13
	cmpq	%rbx, %rax
	je	LBB80_5
Ltmp1581:
	.loc	31 458 29 is_stmt 1
	movl	(%rbx), %edx
Ltmp1582:
	.loc	38 152 9
	addq	$4, %rbx
Ltmp1583:
	.loc	38 0 9 is_stmt 0
	movq	%rbx, %rdi
Ltmp1584:
LBB80_5:
	.loc	4 226 13 is_stmt 1
	movl	%edx, (%rcx)
Ltmp1585:
	.loc	54 37 13
	testq	%rdi, %rdi
Ltmp1586:
	je	LBB80_6
Ltmp1587:
LBB80_7:
	.loc	54 0 13 is_stmt 0
	movl	$0, %edx
	.loc	54 37 13
	cmpq	%rdi, %rax
	je	LBB80_9
Ltmp1588:
	.loc	31 458 29 is_stmt 1
	movl	(%rdi), %edx
Ltmp1589:
	.loc	38 152 9
	addq	$4, %rdi
Ltmp1590:
	.loc	38 0 9 is_stmt 0
	movq	%rdi, %rsi
	jmp	LBB80_9
Ltmp1591:
	.p2align	4, 0x90
LBB80_2:
	xorl	%edi, %edi
	xorl	%edx, %edx
Ltmp1592:
	.loc	4 226 13 is_stmt 1
	movl	%edx, (%rcx)
Ltmp1593:
	.loc	54 37 13
	testq	%rdi, %rdi
Ltmp1594:
	.loc	54 0 13 is_stmt 0
	jne	LBB80_7
	jmp	LBB80_6
Ltmp1595:
LBB80_10:
	.loc	4 228 9 is_stmt 1
	movl	$0, -2088(%rbp)
	.loc	4 229 9
	movq	$0, -36(%rbp)
	.loc	4 231 9
	movl	$0, -28(%rbp)
	leaq	-2088(%rbp), %rbx
	.loc	4 233 9
	movq	%rbx, %rdi
	movl	$1, %esi
	callq	__ZN4rand4prng5isaac8IsaacRng4init17h1829f20b96d8fba8E
Ltmp1596:
	.loc	4 244 9
	movl	$2064, %edx
	movq	%r14, %rdi
	movq	%rbx, %rsi
	callq	_memcpy
Ltmp1597:
	.loc	4 245 6
	movq	%r14, %rax
	addq	$2072, %rsp
	popq	%rbx
	popq	%r14
	popq	%r15
Ltmp1598:
	popq	%rbp
	retq
Ltmp1599:
Lfunc_end80:
	.cfi_endproc

	.globl	__ZN64_$LT$rand..prng..isaac..IsaacRng$u20$as$u20$core..fmt..Debug$GT$3fmt17h24c8846df11b729dE
	.p2align	4, 0x90
__ZN64_$LT$rand..prng..isaac..IsaacRng$u20$as$u20$core..fmt..Debug$GT$3fmt17h24c8846df11b729dE:
Lfunc_begin81:
	.loc	4 268 0
	.cfi_startproc
	pushq	%rbp
	.cfi_def_cfa_offset 16
	.cfi_offset %rbp, -16
	movq	%rsp, %rbp
	.cfi_def_cfa_register %rbp
	subq	$48, %rsp
	movq	%rsi, %rdi
Ltmp1600:
	.loc	28 328 9 prologue_end
	leaq	l___unnamed_102(%rip), %rax
Ltmp1601:
	movq	%rax, -48(%rbp)
	movq	$1, -40(%rbp)
	movq	$0, -32(%rbp)
	leaq	l___unnamed_46(%rip), %rax
Ltmp1602:
	movq	%rax, -16(%rbp)
	movq	$0, -8(%rbp)
	leaq	-48(%rbp), %rsi
Ltmp1603:
	.loc	4 269 9
	callq	__ZN4core3fmt9Formatter9write_fmt17h3dc2bf45afed3069E
Ltmp1604:
	.loc	4 270 6
	addq	$48, %rsp
	popq	%rbp
	retq
Ltmp1605:
Lfunc_end81:
	.cfi_endproc

	.globl	__ZN4rand4prng7isaac6410Isaac64Rng12new_unseeded17h06dd6400e632e325E
	.p2align	4, 0x90
__ZN4rand4prng7isaac6410Isaac64Rng12new_unseeded17h06dd6400e632e325E:
Lfunc_begin82:
	.loc	5 56 0
	.cfi_startproc
	pushq	%rbp
	.cfi_def_cfa_offset 16
	.cfi_offset %rbp, -16
	movq	%rsp, %rbp
	.cfi_def_cfa_register %rbp
	pushq	%r15
	pushq	%r14
	pushq	%rbx
	movl	$4136, %eax
	callq	___rust_probestack
	subq	%rax, %rsp
	.cfi_offset %rbx, -40
	.cfi_offset %r14, -32
	.cfi_offset %r15, -24
	movq	%rdi, %r14
	leaq	-4152(%rbp), %rdi
Ltmp1606:
	.loc	5 57 23 prologue_end
	movl	$4128, %esi
	callq	___bzero
	movabsq	$-7424904924229222229, %r15
	movabsq	$-5865837416287532563, %r8
	movabsq	$5259722845879046933, %r10
	movabsq	$-9011610652101975858, %rax
	movabsq	$-5576812576440232668, %rbx
	movabsq	$-8354558816804203872, %rdx
	movabsq	$-5046086420515862430, %rcx
	movabsq	$7240739780546808700, %rdi
	movl	$2112, %r9d
Ltmp1607:
	.p2align	4, 0x90
LBB82_1:
	.loc	35 3343 17
	subq	%rax, %rdi
Ltmp1608:
	.loc	35 3565 21
	movq	%r15, %rsi
	shrq	$9, %rsi
Ltmp1609:
	.loc	49 253 26
	xorq	%r10, %rsi
Ltmp1610:
	.loc	35 3320 17
	addq	%rdi, %r15
Ltmp1611:
	.loc	35 3343 17
	subq	%rsi, %rcx
Ltmp1612:
	.loc	35 3320 17
	leaq	(%rcx,%rdi), %r10
Ltmp1613:
	.loc	35 3531 21
	shlq	$9, %rdi
Ltmp1614:
	.loc	49 253 26
	xorq	%r8, %rdi
Ltmp1615:
	.loc	35 3343 17
	subq	%rdi, %rdx
Ltmp1616:
	.loc	35 3565 21
	movq	%rcx, %r11
	shrq	$23, %r11
Ltmp1617:
	.loc	49 253 26
	xorq	%r15, %r11
Ltmp1618:
	.loc	35 3320 17
	addq	%rdx, %rcx
Ltmp1619:
	.loc	35 3343 17
	subq	%r11, %rbx
Ltmp1620:
	.loc	35 3320 17
	leaq	(%rbx,%rdx), %r8
Ltmp1621:
	.loc	35 3531 21
	shlq	$15, %rdx
Ltmp1622:
	.loc	49 253 26
	xorq	%r10, %rdx
Ltmp1623:
	.loc	35 3343 17
	subq	%rdx, %rax
Ltmp1624:
	.loc	35 3320 17
	leaq	(%rax,%rbx), %r15
Ltmp1625:
	.loc	35 3565 21
	shrq	$14, %rbx
Ltmp1626:
	.loc	49 253 26
	xorq	%rbx, %rcx
Ltmp1627:
	.loc	35 3343 17
	subq	%rcx, %rsi
Ltmp1628:
	.loc	35 3320 17
	leaq	(%rsi,%rax), %rbx
Ltmp1629:
	.loc	35 3531 21
	shlq	$20, %rax
Ltmp1630:
	.loc	49 253 26
	xorq	%r8, %rax
Ltmp1631:
	.loc	35 3343 17
	subq	%rax, %rdi
Ltmp1632:
	.loc	35 3320 17
	leaq	(%rdi,%rsi), %r10
Ltmp1633:
	.loc	35 3565 21
	shrq	$17, %rsi
Ltmp1634:
	.loc	49 253 26
	xorq	%r15, %rsi
Ltmp1635:
	.loc	35 3343 17
	subq	%rsi, %r11
Ltmp1636:
	.loc	35 3320 17
	leaq	(%r11,%rdi), %r8
Ltmp1637:
	.loc	35 3531 21
	shlq	$14, %rdi
Ltmp1638:
	.loc	49 253 26
	movq	%rdi, %r15
Ltmp1639:
	xorq	%rbx, %r15
Ltmp1640:
	.loc	5 113 17
	movq	%rdx, -4208(%rbp,%r9)
	.loc	5 113 34 is_stmt 0
	movq	%rcx, -4200(%rbp,%r9)
	.loc	5 114 17 is_stmt 1
	movq	%rax, -4192(%rbp,%r9)
	.loc	5 114 34 is_stmt 0
	movq	%rsi, -4184(%rbp,%r9)
	.loc	5 115 17 is_stmt 1
	movq	%r15, -4176(%rbp,%r9)
	.loc	5 115 34 is_stmt 0
	movq	%r10, -4168(%rbp,%r9)
	.loc	5 116 17 is_stmt 1
	movq	%r8, -4160(%rbp,%r9)
	.loc	5 116 34 is_stmt 0
	movq	%r11, -4152(%rbp,%r9)
Ltmp1641:
	.loc	12 1137 52 is_stmt 1
	addq	$64, %r9
	movq	%rdx, %rdi
	movq	%rax, %rdx
	movq	%rsi, %rbx
Ltmp1642:
	.loc	12 0 52 is_stmt 0
	movq	%r15, %rax
	movq	%r11, %r15
Ltmp1643:
	.loc	12 1137 52
	cmpq	$4160, %r9
Ltmp1644:
	.loc	45 211 9 is_stmt 1
	jne	LBB82_1
Ltmp1645:
	.loc	45 0 9 is_stmt 0
	leaq	-4152(%rbp), %rbx
	.loc	5 120 9 is_stmt 1
	movq	%rbx, %rdi
	callq	__ZN4rand4prng7isaac6410Isaac64Rng7isaac6417h031b9767eba83f18E
Ltmp1646:
	.loc	5 59 9
	movl	$4128, %edx
	movq	%r14, %rdi
	movq	%rbx, %rsi
	callq	_memcpy
Ltmp1647:
	.loc	5 60 6
	movq	%r14, %rax
	addq	$4136, %rsp
	popq	%rbx
	popq	%r14
	popq	%r15
Ltmp1648:
	popq	%rbp
	retq
Ltmp1649:
Lfunc_end82:
	.cfi_endproc

	.globl	__ZN4rand4prng7isaac6410Isaac64Rng4init17hb3b5c6646d2380cfE
	.p2align	4, 0x90
__ZN4rand4prng7isaac6410Isaac64Rng4init17hb3b5c6646d2380cfE:
Lfunc_begin83:
	.loc	5 65 0
	.cfi_startproc
	pushq	%rbp
	.cfi_def_cfa_offset 16
	.cfi_offset %rbp, -16
	movq	%rsp, %rbp
	.cfi_def_cfa_register %rbp
	pushq	%r15
	pushq	%r14
	pushq	%r13
	pushq	%r12
	pushq	%rbx
	pushq	%rax
	.cfi_offset %rbx, -56
	.cfi_offset %r12, -48
	.cfi_offset %r13, -40
	.cfi_offset %r14, -32
	.cfi_offset %r15, -24
Ltmp1650:
	movabsq	$-5046086420515862430, %r8
	movabsq	$-5576812576440232668, %r9
	movabsq	$-5865837416287532563, %r11
	movabsq	$-7424904924229222229, %rcx
	movabsq	$-8354558816804203872, %rax
	movabsq	$-9011610652101975858, %r10
	movabsq	$7240739780546808700, %rdx
	movabsq	$5259722845879046933, %r14
Ltmp1651:
	.loc	5 91 9 prologue_end
	testl	%esi, %esi
	je	LBB83_1
Ltmp1652:
	.loc	5 0 9 is_stmt 0
	movq	$-2048, %r15
Ltmp1653:
	.p2align	4, 0x90
LBB83_4:
	.loc	35 3320 17 is_stmt 1
	addq	2056(%rdi,%r15), %rdx
Ltmp1654:
	.loc	35 3320 17 is_stmt 0
	addq	2064(%rdi,%r15), %r8
Ltmp1655:
	.loc	35 3320 17
	addq	2072(%rdi,%r15), %rax
Ltmp1656:
	.loc	35 3320 17
	addq	2080(%rdi,%r15), %r9
Ltmp1657:
	.loc	35 3320 17
	addq	2088(%rdi,%r15), %r10
Ltmp1658:
	.loc	35 3320 17
	addq	2096(%rdi,%r15), %r14
Ltmp1659:
	.loc	35 3320 17
	addq	2104(%rdi,%r15), %r11
Ltmp1660:
	.loc	35 3320 17
	addq	2112(%rdi,%r15), %rcx
Ltmp1661:
	.loc	35 3343 17 is_stmt 1
	subq	%r10, %rdx
Ltmp1662:
	.loc	35 3565 21
	movq	%rcx, %rbx
	shrq	$9, %rbx
Ltmp1663:
	.loc	49 253 26
	xorq	%r14, %rbx
Ltmp1664:
	.loc	35 3320 17
	addq	%rdx, %rcx
Ltmp1665:
	.loc	35 3343 17
	subq	%rbx, %r8
Ltmp1666:
	.loc	35 3320 17
	leaq	(%r8,%rdx), %r14
Ltmp1667:
	.loc	35 3531 21
	shlq	$9, %rdx
Ltmp1668:
	.loc	49 253 26
	movq	%rdx, %rsi
Ltmp1669:
	xorq	%r11, %rsi
Ltmp1670:
	.loc	35 3343 17
	subq	%rsi, %rax
Ltmp1671:
	.loc	35 3320 17
	movq	%r8, %r11
Ltmp1672:
	.loc	35 3565 21
	shrq	$23, %r8
Ltmp1673:
	.loc	49 253 26
	xorq	%r8, %rcx
Ltmp1674:
	.loc	35 3320 17
	addq	%rax, %r11
Ltmp1675:
	.loc	35 3343 17
	subq	%rcx, %r9
Ltmp1676:
	.loc	35 3320 17
	leaq	(%r9,%rax), %r12
Ltmp1677:
	.loc	35 3531 21
	shlq	$15, %rax
Ltmp1678:
	.loc	49 253 26
	movq	%rax, %rdx
Ltmp1679:
	xorq	%r14, %rdx
Ltmp1680:
	.loc	35 3343 17
	subq	%rdx, %r10
Ltmp1681:
	.loc	35 3320 17
	leaq	(%r10,%r9), %r13
Ltmp1682:
	.loc	35 3565 21
	shrq	$14, %r9
Ltmp1683:
	.loc	49 253 26
	movq	%r9, %r8
Ltmp1684:
	xorq	%r11, %r8
Ltmp1685:
	.loc	35 3343 17
	subq	%r8, %rbx
Ltmp1686:
	.loc	35 3320 17
	leaq	(%rbx,%r10), %rax
Ltmp1687:
	.loc	35 0 17 is_stmt 0
	movq	%rax, -48(%rbp)
Ltmp1688:
	.loc	35 3531 21 is_stmt 1
	shlq	$20, %r10
Ltmp1689:
	.loc	49 253 26
	movq	%r10, %rax
Ltmp1690:
	xorq	%r12, %rax
Ltmp1691:
	.loc	35 3343 17
	subq	%rax, %rsi
Ltmp1692:
	.loc	35 3320 17
	leaq	(%rsi,%rbx), %r14
Ltmp1693:
	.loc	35 3565 21
	shrq	$17, %rbx
Ltmp1694:
	.loc	49 253 26
	movq	%rbx, %r9
Ltmp1695:
	xorq	%r13, %r9
Ltmp1696:
	.loc	35 3343 17
	subq	%r9, %rcx
Ltmp1697:
	.loc	35 3320 17
	leaq	(%rcx,%rsi), %r11
Ltmp1698:
	.loc	35 3531 21
	shlq	$14, %rsi
Ltmp1699:
	.loc	49 253 26
	movq	%rsi, %r10
Ltmp1700:
	xorq	-48(%rbp), %r10
Ltmp1701:
	.loc	5 108 13
	movq	%rdx, 4104(%rdi,%r15)
	movq	%r8, 4112(%rdi,%r15)
	movq	%rax, 4120(%rdi,%r15)
	movq	%r9, 4128(%rdi,%r15)
	movq	%r10, 4136(%rdi,%r15)
	movq	%r14, 4144(%rdi,%r15)
	movq	%r11, 4152(%rdi,%r15)
	movq	%rcx, 4160(%rdi,%r15)
Ltmp1702:
	.loc	12 1137 52
	addq	$64, %r15
Ltmp1703:
	.loc	45 211 9
	jne	LBB83_4
Ltmp1704:
	.loc	45 0 9 is_stmt 0
	xorl	%esi, %esi
Ltmp1705:
	.p2align	4, 0x90
LBB83_6:
	.loc	35 3320 17 is_stmt 1
	addq	2056(%rdi,%rsi), %rdx
Ltmp1706:
	.loc	35 3320 17 is_stmt 0
	addq	2064(%rdi,%rsi), %r8
Ltmp1707:
	.loc	35 3320 17
	addq	2072(%rdi,%rsi), %rax
Ltmp1708:
	.loc	35 3320 17
	addq	2080(%rdi,%rsi), %r9
Ltmp1709:
	.loc	35 3320 17
	addq	2088(%rdi,%rsi), %r10
Ltmp1710:
	.loc	35 3320 17
	addq	2096(%rdi,%rsi), %r14
Ltmp1711:
	.loc	35 3320 17
	addq	2104(%rdi,%rsi), %r11
Ltmp1712:
	.loc	35 3320 17
	addq	2112(%rdi,%rsi), %rcx
Ltmp1713:
	.loc	35 3343 17 is_stmt 1
	subq	%r10, %rdx
Ltmp1714:
	.loc	35 3565 21
	movq	%rcx, %rbx
	shrq	$9, %rbx
Ltmp1715:
	.loc	49 253 26
	xorq	%r14, %rbx
Ltmp1716:
	.loc	35 3320 17
	addq	%rdx, %rcx
Ltmp1717:
	.loc	35 3343 17
	subq	%rbx, %r8
Ltmp1718:
	.loc	35 3320 17
	leaq	(%r8,%rdx), %r14
Ltmp1719:
	.loc	35 3531 21
	shlq	$9, %rdx
Ltmp1720:
	.loc	49 253 26
	xorq	%r11, %rdx
Ltmp1721:
	.loc	35 3343 17
	subq	%rdx, %rax
Ltmp1722:
	.loc	35 3565 21
	movq	%r8, %r15
	shrq	$23, %r15
Ltmp1723:
	.loc	49 253 26
	xorq	%rcx, %r15
Ltmp1724:
	.loc	35 3320 17
	addq	%rax, %r8
Ltmp1725:
	.loc	35 3343 17
	subq	%r15, %r9
Ltmp1726:
	.loc	35 3320 17
	leaq	(%r9,%rax), %rcx
Ltmp1727:
	.loc	35 3531 21
	shlq	$15, %rax
Ltmp1728:
	.loc	49 253 26
	xorq	%r14, %rax
Ltmp1729:
	.loc	35 3343 17
	subq	%rax, %r10
Ltmp1730:
	.loc	35 3320 17
	leaq	(%r10,%r9), %r11
Ltmp1731:
	.loc	35 3565 21
	shrq	$14, %r9
Ltmp1732:
	.loc	49 253 26
	xorq	%r9, %r8
Ltmp1733:
	.loc	35 3343 17
	subq	%r8, %rbx
Ltmp1734:
	.loc	35 3320 17
	leaq	(%rbx,%r10), %r9
Ltmp1735:
	.loc	35 3531 21
	shlq	$20, %r10
Ltmp1736:
	.loc	49 253 26
	xorq	%rcx, %r10
Ltmp1737:
	.loc	35 3343 17
	subq	%r10, %rdx
Ltmp1738:
	.loc	35 3320 17
	leaq	(%rdx,%rbx), %r14
Ltmp1739:
	.loc	35 3565 21
	shrq	$17, %rbx
Ltmp1740:
	.loc	49 253 26
	xorq	%r11, %rbx
Ltmp1741:
	.loc	35 3343 17
	subq	%rbx, %r15
Ltmp1742:
	.loc	35 3320 17
	leaq	(%r15,%rdx), %r11
Ltmp1743:
	.loc	35 3531 21
	shlq	$14, %rdx
Ltmp1744:
	.loc	49 253 26
	movq	%rdx, %rcx
Ltmp1745:
	xorq	%r9, %rcx
Ltmp1746:
	.loc	5 109 13
	movq	%rax, 2056(%rdi,%rsi)
	movq	%r8, 2064(%rdi,%rsi)
	movq	%r10, 2072(%rdi,%rsi)
	movq	%rbx, 2080(%rdi,%rsi)
	movq	%rcx, 2088(%rdi,%rsi)
	movq	%r14, 2096(%rdi,%rsi)
	movq	%r11, 2104(%rdi,%rsi)
	movq	%r15, 2112(%rdi,%rsi)
Ltmp1747:
	.loc	12 1137 52
	addq	$64, %rsi
	movq	%rax, %rdx
	movq	%r10, %rax
	movq	%rbx, %r9
Ltmp1748:
	.loc	12 0 52 is_stmt 0
	movq	%rcx, %r10
	movq	%r15, %rcx
Ltmp1749:
	.loc	12 1137 52
	cmpq	$2048, %rsi
Ltmp1750:
	.loc	45 211 9 is_stmt 1
	jne	LBB83_6
	jmp	LBB83_7
Ltmp1751:
LBB83_1:
	.loc	45 0 9 is_stmt 0
	xorl	%esi, %esi
Ltmp1752:
	.p2align	4, 0x90
LBB83_2:
	.loc	35 3343 17 is_stmt 1
	subq	%r10, %rdx
Ltmp1753:
	.loc	35 3320 17
	leaq	(%rdx,%rcx), %r15
Ltmp1754:
	.loc	35 3565 21
	shrq	$9, %rcx
Ltmp1755:
	.loc	49 253 26
	xorq	%r14, %rcx
Ltmp1756:
	.loc	35 3343 17
	subq	%rcx, %r8
Ltmp1757:
	.loc	35 3531 21
	movq	%rdx, %rbx
	shlq	$9, %rbx
Ltmp1758:
	.loc	49 253 26
	xorq	%r11, %rbx
Ltmp1759:
	.loc	35 3320 17
	addq	%r8, %rdx
Ltmp1760:
	.loc	35 3343 17
	subq	%rbx, %rax
Ltmp1761:
	.loc	35 3320 17
	leaq	(%rax,%r8), %r11
Ltmp1762:
	.loc	35 3565 21
	shrq	$23, %r8
Ltmp1763:
	.loc	49 253 26
	xorq	%r15, %r8
Ltmp1764:
	.loc	35 3343 17
	subq	%r8, %r9
Ltmp1765:
	.loc	35 3320 17
	leaq	(%r9,%rax), %r14
Ltmp1766:
	.loc	35 3531 21
	shlq	$15, %rax
Ltmp1767:
	.loc	49 253 26
	xorq	%rax, %rdx
Ltmp1768:
	.loc	35 3343 17
	subq	%rdx, %r10
Ltmp1769:
	.loc	35 3320 17
	leaq	(%r10,%r9), %rax
Ltmp1770:
	.loc	35 3565 21
	shrq	$14, %r9
Ltmp1771:
	.loc	49 253 26
	xorq	%r11, %r9
Ltmp1772:
	.loc	35 3343 17
	subq	%r9, %rcx
Ltmp1773:
	.loc	35 3320 17
	leaq	(%rcx,%r10), %r15
Ltmp1774:
	.loc	35 3531 21
	shlq	$20, %r10
Ltmp1775:
	.loc	49 253 26
	xorq	%r14, %r10
Ltmp1776:
	.loc	35 3343 17
	subq	%r10, %rbx
Ltmp1777:
	.loc	35 3320 17
	leaq	(%rbx,%rcx), %r14
Ltmp1778:
	.loc	35 3565 21
	shrq	$17, %rcx
Ltmp1779:
	.loc	49 253 26
	xorq	%rax, %rcx
Ltmp1780:
	.loc	35 3343 17
	movq	%r8, %r12
	subq	%rcx, %r12
Ltmp1781:
	.loc	35 3320 17
	leaq	(%r12,%rbx), %r11
Ltmp1782:
	.loc	35 3531 21
	shlq	$14, %rbx
Ltmp1783:
	.loc	49 253 26
	xorq	%r15, %rbx
Ltmp1784:
	.loc	5 113 17
	movq	%rdx, 2056(%rdi,%rsi)
	.loc	5 113 34 is_stmt 0
	movq	%r9, 2064(%rdi,%rsi)
	.loc	5 114 17 is_stmt 1
	movq	%r10, 2072(%rdi,%rsi)
	.loc	5 114 34 is_stmt 0
	movq	%rcx, 2080(%rdi,%rsi)
	.loc	5 115 17 is_stmt 1
	movq	%rbx, 2088(%rdi,%rsi)
	.loc	5 115 34 is_stmt 0
	movq	%r14, 2096(%rdi,%rsi)
	.loc	5 116 17 is_stmt 1
	movq	%r11, 2104(%rdi,%rsi)
	.loc	5 116 34 is_stmt 0
	movq	%r12, 2112(%rdi,%rsi)
Ltmp1785:
	.loc	12 1137 52 is_stmt 1
	addq	$64, %rsi
	movq	%r9, %r8
	movq	%r10, %rax
Ltmp1786:
	.loc	12 0 52 is_stmt 0
	movq	%rcx, %r9
	movq	%rbx, %r10
	movq	%r12, %rcx
Ltmp1787:
	.loc	12 1137 52
	cmpq	$2048, %rsi
	jne	LBB83_2
Ltmp1788:
LBB83_7:
	.loc	5 120 9 is_stmt 1
	addq	$8, %rsp
	popq	%rbx
	popq	%r12
	popq	%r13
	popq	%r14
Ltmp1789:
	popq	%r15
	popq	%rbp
	jmp	__ZN4rand4prng7isaac6410Isaac64Rng7isaac6417h031b9767eba83f18E
Ltmp1790:
Lfunc_end83:
	.cfi_endproc

	.globl	__ZN4rand4prng7isaac6410Isaac64Rng7isaac6417h031b9767eba83f18E
	.p2align	4, 0x90
__ZN4rand4prng7isaac6410Isaac64Rng7isaac6417h031b9767eba83f18E:
Lfunc_begin84:
	.loc	5 124 0
	.cfi_startproc
	pushq	%rbp
	.cfi_def_cfa_offset 16
	.cfi_offset %rbp, -16
	movq	%rsp, %rbp
	.cfi_def_cfa_register %rbp
Ltmp1791:
	.loc	5 127 21 prologue_end
	movq	4104(%rdi), %rcx
Ltmp1792:
	.loc	5 125 18
	movq	4120(%rdi), %r10
Ltmp1793:
	.loc	35 3320 17
	incq	%r10
Ltmp1794:
	.loc	5 125 9
	movq	%r10, 4120(%rdi)
Ltmp1795:
	.loc	35 3320 17
	addq	4112(%rdi), %r10
Ltmp1796:
	.loc	35 0 17 is_stmt 0
	xorl	%r8d, %r8d
Ltmp1797:
	.p2align	4, 0x90
LBB84_1:
	.loc	5 176 17 is_stmt 1
	movq	%r8, %rax
	addq	$128, %rax
	jb	LBB84_8
Ltmp1798:
	.loc	5 0 0 is_stmt 0
	movq	2056(%rdi,%r8,8), %r9
Ltmp1799:
	.loc	35 3531 21 is_stmt 1
	movq	%rcx, %rdx
	shlq	$21, %rdx
Ltmp1800:
	.loc	49 253 26
	xorq	%rcx, %rdx
Ltmp1801:
	.loc	49 241 26
	notq	%rdx
Ltmp1802:
	.loc	35 3320 17
	addq	2056(%rdi,%rax,8), %rdx
Ltmp1803:
	.loc	53 158 9
	movl	%r9d, %eax
Ltmp1804:
	andl	$2040, %eax
Ltmp1805:
	.loc	35 3320 17
	addq	2056(%rdi,%rax), %r10
Ltmp1806:
	.loc	35 3320 17 is_stmt 0
	addq	%rdx, %r10
Ltmp1807:
	.loc	5 176 17 is_stmt 1
	movq	%r10, 2056(%rdi,%r8,8)
Ltmp1808:
	.loc	35 3565 21
	shrq	$8, %r10
Ltmp1809:
	.loc	53 158 9
	andl	$2040, %r10d
Ltmp1810:
	.loc	35 3320 17
	addq	2056(%rdi,%r10), %r9
Ltmp1811:
	.loc	5 176 17
	movq	%r9, 8(%rdi,%r8,8)
Ltmp1812:
	.loc	53 158 9
	leaq	1(%r8), %rsi
Ltmp1813:
	.loc	5 177 17
	addq	$128, %rsi
	jb	LBB84_9
Ltmp1814:
	.loc	5 0 0 is_stmt 0
	movq	2064(%rdi,%r8,8), %r10
Ltmp1815:
	.loc	35 3565 21 is_stmt 1
	movq	%rdx, %rcx
	shrq	$5, %rcx
Ltmp1816:
	.loc	49 253 26
	xorq	%rdx, %rcx
Ltmp1817:
	.loc	35 3320 17
	addq	2056(%rdi,%rsi,8), %rcx
Ltmp1818:
	.loc	53 158 9
	movl	%r10d, %eax
	andl	$2040, %eax
Ltmp1819:
	.loc	35 3320 17
	addq	2056(%rdi,%rax), %r9
Ltmp1820:
	.loc	35 3320 17 is_stmt 0
	addq	%rcx, %r9
Ltmp1821:
	.loc	5 177 17 is_stmt 1
	movq	%r9, 2064(%rdi,%r8,8)
Ltmp1822:
	.loc	35 3565 21
	shrq	$8, %r9
Ltmp1823:
	.loc	53 158 9
	andl	$2040, %r9d
Ltmp1824:
	.loc	35 3320 17
	addq	2056(%rdi,%r9), %r10
Ltmp1825:
	.loc	5 177 17
	movq	%r10, 16(%rdi,%r8,8)
Ltmp1826:
	.loc	53 158 9
	leaq	2(%r8), %rax
Ltmp1827:
	.loc	5 178 17
	addq	$128, %rax
	jb	LBB84_10
Ltmp1828:
	.loc	5 0 0 is_stmt 0
	movq	2072(%rdi,%r8,8), %rsi
Ltmp1829:
	.loc	35 3531 21 is_stmt 1
	movq	%rcx, %rdx
	shlq	$12, %rdx
Ltmp1830:
	.loc	49 253 26
	xorq	%rcx, %rdx
Ltmp1831:
	.loc	35 3320 17
	addq	2056(%rdi,%rax,8), %rdx
Ltmp1832:
	.loc	53 158 9
	movl	%esi, %eax
Ltmp1833:
	andl	$2040, %eax
Ltmp1834:
	.loc	35 3320 17
	addq	2056(%rdi,%rax), %r10
Ltmp1835:
	.loc	35 3320 17 is_stmt 0
	addq	%rdx, %r10
Ltmp1836:
	.loc	5 178 17 is_stmt 1
	movq	%r10, 2072(%rdi,%r8,8)
Ltmp1837:
	.loc	35 3565 21
	shrq	$8, %r10
Ltmp1838:
	.loc	53 158 9
	andl	$2040, %r10d
Ltmp1839:
	.loc	35 3320 17
	addq	2056(%rdi,%r10), %rsi
Ltmp1840:
	.loc	5 178 17
	movq	%rsi, 24(%rdi,%r8,8)
Ltmp1841:
	.loc	53 158 9
	leaq	3(%r8), %rax
Ltmp1842:
	.loc	5 179 17
	addq	$128, %rax
	jb	LBB84_11
Ltmp1843:
	.loc	5 0 0 is_stmt 0
	movq	2080(%rdi,%r8,8), %r10
Ltmp1844:
	.loc	35 3565 21 is_stmt 1
	movq	%rdx, %rcx
	shrq	$33, %rcx
Ltmp1845:
	.loc	49 253 26
	xorq	%rdx, %rcx
Ltmp1846:
	.loc	35 3320 17
	addq	2056(%rdi,%rax,8), %rcx
Ltmp1847:
	.loc	53 158 9
	movl	%r10d, %eax
Ltmp1848:
	andl	$2040, %eax
Ltmp1849:
	.loc	35 3320 17
	addq	2056(%rdi,%rax), %rsi
Ltmp1850:
	.loc	35 3320 17 is_stmt 0
	addq	%rcx, %rsi
Ltmp1851:
	.loc	5 179 17 is_stmt 1
	movq	%rsi, 2080(%rdi,%r8,8)
Ltmp1852:
	.loc	35 3565 21
	shrq	$8, %rsi
Ltmp1853:
	.loc	53 158 9
	andl	$2040, %esi
Ltmp1854:
	.loc	35 3320 17
	addq	2056(%rdi,%rsi), %r10
Ltmp1855:
	.loc	5 179 17
	movq	%r10, 32(%rdi,%r8,8)
Ltmp1856:
	.loc	12 1137 52
	addq	$4, %r8
	cmpq	$128, %r8
Ltmp1857:
	.loc	45 211 9
	jne	LBB84_1
Ltmp1858:
	.loc	45 0 9 is_stmt 0
	xorl	%r8d, %r8d
Ltmp1859:
	.p2align	4, 0x90
LBB84_7:
	.loc	5 176 17 is_stmt 1
	movq	%r8, %r9
	addq	$128, %r9
Ltmp1860:
	jb	LBB84_8
Ltmp1861:
	.loc	35 3531 21
	movq	%rcx, %rsi
	shlq	$21, %rsi
Ltmp1862:
	.loc	49 253 26
	xorq	%rcx, %rsi
Ltmp1863:
	.loc	49 241 26
	notq	%rsi
Ltmp1864:
	.loc	5 176 17
	movq	2056(%rdi,%r9,8), %rdx
Ltmp1865:
	.loc	35 3320 17
	addq	2056(%rdi,%r8,8), %rsi
Ltmp1866:
	.loc	53 158 9
	movl	%edx, %eax
	andl	$2040, %eax
Ltmp1867:
	.loc	35 3320 17
	addq	2056(%rdi,%rax), %r10
Ltmp1868:
	.loc	35 3320 17 is_stmt 0
	addq	%rsi, %r10
Ltmp1869:
	.loc	5 176 17 is_stmt 1
	movq	%r10, 2056(%rdi,%r9,8)
Ltmp1870:
	.loc	35 3565 21
	shrq	$8, %r10
Ltmp1871:
	.loc	53 158 9
	andl	$2040, %r10d
Ltmp1872:
	.loc	35 3320 17
	addq	2056(%rdi,%r10), %rdx
Ltmp1873:
	.loc	5 176 17
	movq	%rdx, 8(%rdi,%r9,8)
Ltmp1874:
	.loc	5 177 17
	leaq	1(%r8), %r9
Ltmp1875:
	addq	$128, %r9
Ltmp1876:
	jb	LBB84_9
Ltmp1877:
	.loc	35 3565 21
	movq	%rsi, %rcx
	shrq	$5, %rcx
Ltmp1878:
	.loc	49 253 26
	xorq	%rsi, %rcx
Ltmp1879:
	.loc	5 177 17
	movq	2056(%rdi,%r9,8), %rax
Ltmp1880:
	.loc	35 3320 17
	addq	2064(%rdi,%r8,8), %rcx
Ltmp1881:
	.loc	53 158 9
	movl	%eax, %esi
Ltmp1882:
	andl	$2040, %esi
Ltmp1883:
	.loc	35 3320 17
	addq	2056(%rdi,%rsi), %rdx
Ltmp1884:
	.loc	35 3320 17 is_stmt 0
	addq	%rcx, %rdx
Ltmp1885:
	.loc	5 177 17 is_stmt 1
	movq	%rdx, 2056(%rdi,%r9,8)
Ltmp1886:
	.loc	35 3565 21
	shrq	$8, %rdx
Ltmp1887:
	.loc	53 158 9
	andl	$2040, %edx
Ltmp1888:
	.loc	35 3320 17
	addq	2056(%rdi,%rdx), %rax
Ltmp1889:
	.loc	5 177 17
	movq	%rax, 8(%rdi,%r9,8)
Ltmp1890:
	.loc	5 178 17
	leaq	2(%r8), %r9
Ltmp1891:
	addq	$128, %r9
Ltmp1892:
	jb	LBB84_10
Ltmp1893:
	.loc	35 3531 21
	movq	%rcx, %rdx
	shlq	$12, %rdx
Ltmp1894:
	.loc	49 253 26
	xorq	%rcx, %rdx
Ltmp1895:
	.loc	5 178 17
	movq	2056(%rdi,%r9,8), %rsi
Ltmp1896:
	.loc	35 3320 17
	addq	2072(%rdi,%r8,8), %rdx
Ltmp1897:
	.loc	53 158 9
	movl	%esi, %ecx
Ltmp1898:
	andl	$2040, %ecx
Ltmp1899:
	.loc	35 3320 17
	addq	2056(%rdi,%rcx), %rax
Ltmp1900:
	.loc	35 3320 17 is_stmt 0
	addq	%rdx, %rax
Ltmp1901:
	.loc	5 178 17 is_stmt 1
	movq	%rax, 2056(%rdi,%r9,8)
Ltmp1902:
	.loc	35 3565 21
	shrq	$8, %rax
Ltmp1903:
	.loc	53 158 9
	andl	$2040, %eax
Ltmp1904:
	.loc	35 3320 17
	addq	2056(%rdi,%rax), %rsi
Ltmp1905:
	.loc	5 178 17
	movq	%rsi, 8(%rdi,%r9,8)
Ltmp1906:
	.loc	5 179 17
	leaq	3(%r8), %r9
Ltmp1907:
	addq	$128, %r9
Ltmp1908:
	jb	LBB84_11
Ltmp1909:
	.loc	35 3565 21
	movq	%rdx, %rcx
	shrq	$33, %rcx
Ltmp1910:
	.loc	49 253 26
	xorq	%rdx, %rcx
Ltmp1911:
	.loc	5 179 17
	movq	2056(%rdi,%r9,8), %r10
Ltmp1912:
	.loc	35 3320 17
	addq	2080(%rdi,%r8,8), %rcx
Ltmp1913:
	.loc	53 158 9
	movl	%r10d, %eax
	andl	$2040, %eax
Ltmp1914:
	.loc	35 3320 17
	addq	2056(%rdi,%rax), %rsi
Ltmp1915:
	.loc	35 3320 17 is_stmt 0
	addq	%rcx, %rsi
Ltmp1916:
	.loc	5 179 17 is_stmt 1
	movq	%rsi, 2056(%rdi,%r9,8)
Ltmp1917:
	.loc	35 3565 21
	shrq	$8, %rsi
Ltmp1918:
	.loc	53 158 9
	andl	$2040, %esi
Ltmp1919:
	.loc	35 3320 17
	addq	2056(%rdi,%rsi), %r10
Ltmp1920:
	.loc	5 179 17
	movq	%r10, 8(%rdi,%r9,8)
Ltmp1921:
	.loc	12 1137 52
	addq	$4, %r8
	cmpq	$128, %r8
Ltmp1922:
	.loc	45 211 9
	jne	LBB84_7
Ltmp1923:
	.loc	5 183 9
	movq	%rcx, 4104(%rdi)
	.loc	5 184 9
	movq	%r10, 4112(%rdi)
	.loc	5 185 9
	movq	$256, (%rdi)
Ltmp1924:
	.loc	5 186 6
	popq	%rbp
	retq
Ltmp1925:
LBB84_8:
	.loc	5 0 0 is_stmt 0
	leaq	_str.3(%rip), %rdi
Ltmp1926:
	leaq	l___unnamed_103(%rip), %rdx
	movl	$28, %esi
	callq	__ZN4core9panicking5panic17h736ee47a631475c0E
Ltmp1927:
LBB84_10:
	leaq	_str.3(%rip), %rdi
Ltmp1928:
	leaq	l___unnamed_104(%rip), %rdx
	movl	$28, %esi
	callq	__ZN4core9panicking5panic17h736ee47a631475c0E
Ltmp1929:
LBB84_11:
	leaq	_str.3(%rip), %rdi
Ltmp1930:
	leaq	l___unnamed_105(%rip), %rdx
Ltmp1931:
	movl	$28, %esi
Ltmp1932:
	callq	__ZN4core9panicking5panic17h736ee47a631475c0E
Ltmp1933:
LBB84_9:
	leaq	_str.3(%rip), %rdi
Ltmp1934:
	leaq	l___unnamed_106(%rip), %rdx
	movl	$28, %esi
	callq	__ZN4core9panicking5panic17h736ee47a631475c0E
Ltmp1935:
Lfunc_end84:
	.cfi_endproc

	.globl	__ZN70_$LT$rand..prng..isaac64..Isaac64Rng$u20$as$u20$core..clone..Clone$GT$5clone17hefedc4c24f7cc3ceE
	.p2align	4, 0x90
__ZN70_$LT$rand..prng..isaac64..Isaac64Rng$u20$as$u20$core..clone..Clone$GT$5clone17hefedc4c24f7cc3ceE:
Lfunc_begin85:
	.loc	5 191 0 is_stmt 1
	.cfi_startproc
	pushq	%rbp
	.cfi_def_cfa_offset 16
	.cfi_offset %rbp, -16
	movq	%rsp, %rbp
	.cfi_def_cfa_register %rbp
	pushq	%rbx
	pushq	%rax
	.cfi_offset %rbx, -24
	movq	%rdi, %rbx
Ltmp1936:
	.loc	5 192 9 prologue_end
	movl	$4128, %edx
	callq	_memcpy
Ltmp1937:
	.loc	5 193 6
	movq	%rbx, %rax
	addq	$8, %rsp
	popq	%rbx
	popq	%rbp
	retq
Ltmp1938:
Lfunc_end85:
	.cfi_endproc

	.globl	__ZN94_$LT$rand..prng..isaac64..Isaac64Rng$u20$as$u20$rand..SeedableRng$LT$$RF$$u5b$u64$u5d$$GT$$GT$6reseed17h1b915044ad957cb7E
	.p2align	4, 0x90
__ZN94_$LT$rand..prng..isaac64..Isaac64Rng$u20$as$u20$rand..SeedableRng$LT$$RF$$u5b$u64$u5d$$GT$$GT$6reseed17h1b915044ad957cb7E:
Lfunc_begin86:
	.loc	5 218 0
	.cfi_startproc
	pushq	%rbp
	.cfi_def_cfa_offset 16
	.cfi_offset %rbp, -16
	movq	%rsp, %rbp
	.cfi_def_cfa_register %rbp
Ltmp1939:
	.loc	53 158 9 prologue_end
	leaq	(%rsi,%rdx,8), %r9
Ltmp1940:
	.loc	22 404 9
	leaq	8(%rdi), %rcx
Ltmp1941:
	.loc	38 152 9
	leaq	2056(%rdi), %r8
Ltmp1942:
	.loc	54 37 13
	testq	%rsi, %rsi
Ltmp1943:
	jne	LBB86_3
	jmp	LBB86_2
Ltmp1944:
	.p2align	4, 0x90
LBB86_6:
	.loc	54 0 13 is_stmt 0
	xorl	%esi, %esi
Ltmp1945:
	xorl	%eax, %eax
Ltmp1946:
LBB86_9:
	.loc	5 224 13 is_stmt 1
	movq	%rax, 8(%rcx)
Ltmp1947:
	.loc	22 3179 9
	addq	$16, %rcx
	cmpq	%r8, %rcx
	.loc	22 3303 21
	je	LBB86_10
Ltmp1948:
LBB86_1:
	.loc	54 37 13
	testq	%rsi, %rsi
Ltmp1949:
	je	LBB86_2
Ltmp1950:
LBB86_3:
	.loc	54 0 13 is_stmt 0
	movl	$0, %edx
	movl	$0, %eax
	.loc	54 37 13
	cmpq	%rsi, %r9
	je	LBB86_5
Ltmp1951:
	.loc	31 458 29 is_stmt 1
	movq	(%rsi), %rax
Ltmp1952:
	.loc	38 152 9
	addq	$8, %rsi
Ltmp1953:
	.loc	38 0 9 is_stmt 0
	movq	%rsi, %rdx
Ltmp1954:
LBB86_5:
	.loc	5 224 13 is_stmt 1
	movq	%rax, (%rcx)
Ltmp1955:
	.loc	54 37 13
	testq	%rdx, %rdx
Ltmp1956:
	je	LBB86_6
Ltmp1957:
LBB86_7:
	.loc	54 0 13 is_stmt 0
	movl	$0, %esi
	movl	$0, %eax
	.loc	54 37 13
	cmpq	%rdx, %r9
	je	LBB86_9
Ltmp1958:
	.loc	31 458 29 is_stmt 1
	movq	(%rdx), %rax
Ltmp1959:
	.loc	38 152 9
	addq	$8, %rdx
Ltmp1960:
	.loc	38 0 9 is_stmt 0
	movq	%rdx, %rsi
Ltmp1961:
	.loc	5 224 13 is_stmt 1
	movq	%rax, 8(%rcx)
Ltmp1962:
	.loc	22 3179 9
	addq	$16, %rcx
Ltmp1963:
	cmpq	%r8, %rcx
	.loc	22 3303 21
	jne	LBB86_1
	jmp	LBB86_10
Ltmp1964:
	.p2align	4, 0x90
LBB86_2:
	.loc	22 0 21 is_stmt 0
	xorl	%edx, %edx
Ltmp1965:
	xorl	%eax, %eax
Ltmp1966:
	.loc	5 224 13 is_stmt 1
	movq	%rax, (%rcx)
Ltmp1967:
	.loc	54 37 13
	testq	%rdx, %rdx
Ltmp1968:
	.loc	54 0 13 is_stmt 0
	jne	LBB86_7
	jmp	LBB86_6
Ltmp1969:
LBB86_10:
	.loc	5 226 9 is_stmt 1
	movq	$0, (%rdi)
	.loc	5 227 9
	movq	$0, 4104(%rdi)
	movq	$0, 4112(%rdi)
	movq	$0, 4120(%rdi)
	.loc	5 231 9
	movl	$1, %esi
	popq	%rbp
	jmp	__ZN4rand4prng7isaac6410Isaac64Rng4init17hb3b5c6646d2380cfE
Ltmp1970:
Lfunc_end86:
	.cfi_endproc

	.globl	__ZN94_$LT$rand..prng..isaac64..Isaac64Rng$u20$as$u20$rand..SeedableRng$LT$$RF$$u5b$u64$u5d$$GT$$GT$9from_seed17h470d264a57fb662fE
	.p2align	4, 0x90
__ZN94_$LT$rand..prng..isaac64..Isaac64Rng$u20$as$u20$rand..SeedableRng$LT$$RF$$u5b$u64$u5d$$GT$$GT$9from_seed17h470d264a57fb662fE:
Lfunc_begin87:
	.loc	5 239 0
	.cfi_startproc
	pushq	%rbp
	.cfi_def_cfa_offset 16
	.cfi_offset %rbp, -16
	movq	%rsp, %rbp
	.cfi_def_cfa_register %rbp
	pushq	%r15
	pushq	%r14
	pushq	%rbx
	movl	$4136, %eax
	callq	___rust_probestack
	subq	%rax, %rsp
	.cfi_offset %rbx, -40
	.cfi_offset %r14, -32
	.cfi_offset %r15, -24
	movq	%rdx, %r15
Ltmp1971:
	movq	%rsi, %rbx
Ltmp1972:
	movq	%rdi, %r14
Ltmp1973:
	leaq	-4152(%rbp), %rdi
Ltmp1974:
	.loc	5 240 23 prologue_end
	movl	$4128, %esi
	callq	___bzero
Ltmp1975:
	.loc	53 158 9
	leaq	(%rbx,%r15,8), %rax
Ltmp1976:
	.loc	22 404 9
	leaq	-4144(%rbp), %rcx
Ltmp1977:
	.loc	38 152 9
	leaq	-2096(%rbp), %rdx
Ltmp1978:
	.loc	54 37 13
	testq	%rbx, %rbx
Ltmp1979:
	jne	LBB87_3
	jmp	LBB87_2
Ltmp1980:
	.p2align	4, 0x90
LBB87_6:
	.loc	54 0 13 is_stmt 0
	xorl	%ebx, %ebx
Ltmp1981:
	xorl	%edi, %edi
Ltmp1982:
LBB87_9:
	.loc	5 224 13 is_stmt 1
	movq	%rdi, 8(%rcx)
Ltmp1983:
	.loc	22 3179 9
	addq	$16, %rcx
	cmpq	%rdx, %rcx
	.loc	22 3303 21
	je	LBB87_10
Ltmp1984:
LBB87_1:
	.loc	54 37 13
	testq	%rbx, %rbx
Ltmp1985:
	je	LBB87_2
Ltmp1986:
LBB87_3:
	.loc	54 0 13 is_stmt 0
	movl	$0, %esi
	movl	$0, %edi
	.loc	54 37 13
	cmpq	%rbx, %rax
	je	LBB87_5
Ltmp1987:
	.loc	31 458 29 is_stmt 1
	movq	(%rbx), %rdi
Ltmp1988:
	.loc	38 152 9
	addq	$8, %rbx
Ltmp1989:
	.loc	38 0 9 is_stmt 0
	movq	%rbx, %rsi
Ltmp1990:
LBB87_5:
	.loc	5 224 13 is_stmt 1
	movq	%rdi, (%rcx)
Ltmp1991:
	.loc	54 37 13
	testq	%rsi, %rsi
Ltmp1992:
	je	LBB87_6
Ltmp1993:
LBB87_7:
	.loc	54 0 13 is_stmt 0
	movl	$0, %ebx
	movl	$0, %edi
	.loc	54 37 13
	cmpq	%rsi, %rax
	je	LBB87_9
Ltmp1994:
	.loc	31 458 29 is_stmt 1
	movq	(%rsi), %rdi
Ltmp1995:
	.loc	38 152 9
	addq	$8, %rsi
Ltmp1996:
	.loc	38 0 9 is_stmt 0
	movq	%rsi, %rbx
Ltmp1997:
	.loc	5 224 13 is_stmt 1
	movq	%rdi, 8(%rcx)
Ltmp1998:
	.loc	22 3179 9
	addq	$16, %rcx
Ltmp1999:
	cmpq	%rdx, %rcx
	.loc	22 3303 21
	jne	LBB87_1
	jmp	LBB87_10
Ltmp2000:
	.p2align	4, 0x90
LBB87_2:
	.loc	22 0 21 is_stmt 0
	xorl	%esi, %esi
	xorl	%edi, %edi
Ltmp2001:
	.loc	5 224 13 is_stmt 1
	movq	%rdi, (%rcx)
Ltmp2002:
	.loc	54 37 13
	testq	%rsi, %rsi
Ltmp2003:
	.loc	54 0 13 is_stmt 0
	jne	LBB87_7
	jmp	LBB87_6
Ltmp2004:
LBB87_10:
	.loc	5 226 9 is_stmt 1
	movq	$0, -4152(%rbp)
	.loc	5 227 9
	movq	$0, -48(%rbp)
	movq	$0, -40(%rbp)
	movq	$0, -32(%rbp)
	leaq	-4152(%rbp), %rbx
	.loc	5 231 9
	movq	%rbx, %rdi
	movl	$1, %esi
	callq	__ZN4rand4prng7isaac6410Isaac64Rng4init17hb3b5c6646d2380cfE
Ltmp2005:
	.loc	5 242 9
	movl	$4128, %edx
	movq	%r14, %rdi
	movq	%rbx, %rsi
	callq	_memcpy
Ltmp2006:
	.loc	5 243 6
	movq	%r14, %rax
	addq	$4136, %rsp
	popq	%rbx
	popq	%r14
	popq	%r15
Ltmp2007:
	popq	%rbp
	retq
Ltmp2008:
Lfunc_end87:
	.cfi_endproc

	.globl	__ZN68_$LT$rand..prng..isaac64..Isaac64Rng$u20$as$u20$core..fmt..Debug$GT$3fmt17h4c8f33596f1b0a66E
	.p2align	4, 0x90
__ZN68_$LT$rand..prng..isaac64..Isaac64Rng$u20$as$u20$core..fmt..Debug$GT$3fmt17h4c8f33596f1b0a66E:
Lfunc_begin88:
	.loc	5 266 0
	.cfi_startproc
	pushq	%rbp
	.cfi_def_cfa_offset 16
	.cfi_offset %rbp, -16
	movq	%rsp, %rbp
	.cfi_def_cfa_register %rbp
	subq	$48, %rsp
	movq	%rsi, %rdi
Ltmp2009:
	.loc	28 328 9 prologue_end
	leaq	l___unnamed_45(%rip), %rax
Ltmp2010:
	movq	%rax, -48(%rbp)
	movq	$1, -40(%rbp)
	movq	$0, -32(%rbp)
	leaq	l___unnamed_46(%rip), %rax
Ltmp2011:
	movq	%rax, -16(%rbp)
	movq	$0, -8(%rbp)
	leaq	-48(%rbp), %rsi
Ltmp2012:
	.loc	5 267 9
	callq	__ZN4core3fmt9Formatter9write_fmt17h3dc2bf45afed3069E
Ltmp2013:
	.loc	5 268 6
	addq	$48, %rsp
	popq	%rbp
	retq
Ltmp2014:
Lfunc_end88:
	.cfi_endproc

	.section	__TEXT,__literal16,16byte_literals
	.p2align	4
LCPI89_0:
	.long	423257940
	.long	2829571177
	.long	2541948421
	.long	289122235
	.section	__TEXT,__text,regular,pure_instructions
	.globl	__ZN4rand4prng8xorshift11XorShiftRng12new_unseeded17h6a233ee7d0b92045E
	.p2align	4, 0x90
__ZN4rand4prng8xorshift11XorShiftRng12new_unseeded17h6a233ee7d0b92045E:
Lfunc_begin89:
	.file	55 "/Users/yingyuhang/.cargo/registry/src/github.com-1ecc6299db9ec823/rand-0.4.6/src/prng/xorshift.rs"
	.loc	55 42 0
	.cfi_startproc
	pushq	%rbp
	.cfi_def_cfa_offset 16
	.cfi_offset %rbp, -16
	movq	%rsp, %rbp
	.cfi_def_cfa_register %rbp
	movq	%rdi, %rax
Ltmp2015:
	.loc	55 43 9 prologue_end
	movaps	LCPI89_0(%rip), %xmm0
	movups	%xmm0, (%rdi)
	.loc	55 49 6
	popq	%rbp
	retq
Ltmp2016:
Lfunc_end89:
	.cfi_endproc

	.globl	__ZN103_$LT$rand..prng..xorshift..XorShiftRng$u20$as$u20$rand..SeedableRng$LT$$u5b$u32$u3b$$u20$4$u5d$$GT$$GT$6reseed17h6d18b46e62772529E
	.p2align	4, 0x90
__ZN103_$LT$rand..prng..xorshift..XorShiftRng$u20$as$u20$rand..SeedableRng$LT$$u5b$u32$u3b$$u20$4$u5d$$GT$$GT$6reseed17h6d18b46e62772529E:
Lfunc_begin90:
	.loc	55 68 0
	.cfi_startproc
	pushq	%rbp
	.cfi_def_cfa_offset 16
	.cfi_offset %rbp, -16
	movq	%rsp, %rbp
	.cfi_def_cfa_register %rbp
Ltmp2017:
	.loc	55 69 39 prologue_end
	cmpl	$0, (%rsi)
Ltmp2018:
	.loc	51 1878 32
	jne	LBB90_3
Ltmp2019:
	.loc	55 69 39
	cmpl	$0, 4(%rsi)
Ltmp2020:
	.loc	51 1878 32
	jne	LBB90_3
Ltmp2021:
	.loc	51 1878 21 is_stmt 0
	movl	8(%rsi), %eax
Ltmp2022:
	.loc	51 1878 32
	orl	12(%rsi), %eax
Ltmp2023:
	je	LBB90_4
Ltmp2024:
LBB90_3:
	.loc	55 72 20 is_stmt 1
	movups	(%rsi), %xmm0
	.loc	55 72 9 is_stmt 0
	movups	%xmm0, (%rdi)
	.loc	55 76 6 is_stmt 1
	popq	%rbp
	retq
Ltmp2025:
LBB90_4:
	.loc	55 69 9
	leaq	l___unnamed_107(%rip), %rdi
Ltmp2026:
	leaq	l___unnamed_108(%rip), %rdx
	movl	$48, %esi
Ltmp2027:
	callq	__ZN3std9panicking11begin_panic17hd4d4c819dff90bc2E
Ltmp2028:
Lfunc_end90:
	.cfi_endproc

	.globl	__ZN103_$LT$rand..prng..xorshift..XorShiftRng$u20$as$u20$rand..SeedableRng$LT$$u5b$u32$u3b$$u20$4$u5d$$GT$$GT$9from_seed17h29f6255d92bb1258E
	.p2align	4, 0x90
__ZN103_$LT$rand..prng..xorshift..XorShiftRng$u20$as$u20$rand..SeedableRng$LT$$u5b$u32$u3b$$u20$4$u5d$$GT$$GT$9from_seed17h29f6255d92bb1258E:
Lfunc_begin91:
	.loc	55 79 0
	.cfi_startproc
	pushq	%rbp
	.cfi_def_cfa_offset 16
	.cfi_offset %rbp, -16
	movq	%rsp, %rbp
	.cfi_def_cfa_register %rbp
	movq	%rdi, %rax
Ltmp2029:
	.loc	55 80 39 prologue_end
	cmpl	$0, (%rsi)
Ltmp2030:
	.loc	51 1878 32
	jne	LBB91_3
Ltmp2031:
	.loc	55 80 39
	cmpl	$0, 4(%rsi)
Ltmp2032:
	.loc	51 1878 32
	jne	LBB91_3
Ltmp2033:
	.loc	51 1878 21 is_stmt 0
	movl	8(%rsi), %ecx
Ltmp2034:
	.loc	51 1878 32
	orl	12(%rsi), %ecx
Ltmp2035:
	je	LBB91_4
Ltmp2036:
LBB91_3:
	.loc	55 84 18 is_stmt 1
	movups	(%rsi), %xmm0
	.loc	55 83 9
	movups	%xmm0, (%rax)
	.loc	55 89 6
	popq	%rbp
	retq
Ltmp2037:
LBB91_4:
	.loc	55 80 9
	leaq	l___unnamed_109(%rip), %rdi
	leaq	l___unnamed_110(%rip), %rdx
	movl	$52, %esi
Ltmp2038:
	callq	__ZN3std9panicking11begin_panic17hd4d4c819dff90bc2E
Ltmp2039:
Lfunc_end91:
	.cfi_endproc

	.globl	__ZN4rand6StdRng3new17hdaa9742f8e3eafbbE
	.p2align	4, 0x90
__ZN4rand6StdRng3new17hdaa9742f8e3eafbbE:
Lfunc_begin92:
	.loc	25 794 0
	.cfi_startproc
	.cfi_personality 155, _rust_eh_personality
	.cfi_lsda 16, Lexception7
	pushq	%rbp
	.cfi_def_cfa_offset 16
	.cfi_offset %rbp, -16
	movq	%rsp, %rbp
	.cfi_def_cfa_register %rbp
	pushq	%r15
	pushq	%r14
	pushq	%r13
	pushq	%r12
	pushq	%rbx
	movl	$12520, %eax
	callq	___rust_probestack
	subq	%rax, %rsp
	.cfi_offset %rbx, -56
	.cfi_offset %r12, -48
	.cfi_offset %r13, -40
	.cfi_offset %r14, -32
	.cfi_offset %r15, -24
	movq	%rdi, %r14
	leaq	-10448(%rbp), %rbx
Ltmp2063:
	.loc	47 375 9 prologue_end
	movq	%rbx, %rdi
	callq	__ZN3std2fs11OpenOptions3new17hf0940b7caeb96880E
	movq	%rbx, %rdi
	movl	$1, %esi
	callq	__ZN3std2fs11OpenOptions4read17hb48ec3bff1fb6e12E
	movq	%rax, %rbx
Ltmp2064:
	.loc	20 510 9
	leaq	l___unnamed_92(%rip), %rdi
	movl	$12, %esi
	callq	__ZN79_$LT$std..path..Path$u20$as$u20$core..convert..AsRef$LT$std..path..Path$GT$$GT$6as_ref17hac3cfd740319a069E
	movq	%rdx, %rcx
	leaq	-4200(%rbp), %rdi
Ltmp2065:
	.loc	47 966 9
	movq	%rbx, %rsi
	movq	%rax, %rdx
	callq	__ZN3std2fs11OpenOptions5_open17h7ec5bd91c21db415E
Ltmp2066:
	.loc	46 195 26
	cmpl	$1, -4200(%rbp)
	jne	LBB92_8
Ltmp2067:
	.loc	46 195 26 is_stmt 0
	movl	-4192(%rbp), %r12d
	movq	-4188(%rbp), %rax
	movq	%rax, -72(%rbp)
	movl	-4180(%rbp), %ecx
	movl	%ecx, -64(%rbp)
Ltmp2068:
	.loc	25 797 17 is_stmt 1
	movl	%r12d, -56(%rbp)
	movq	%rax, -52(%rbp)
	movl	%ecx, -44(%rbp)
Ltmp2069:
Ltmp2048:
	.loc	2 131 22
	leaq	__ZN4rand6jitter8platform10get_nstime17h38a14371de558779E(%rip), %rsi
	leaq	-4200(%rbp), %rdi
	callq	__ZN4rand6jitter9JitterRng14new_with_timer17h2e81c4afe5d5f858E
Ltmp2049:
Ltmp2070:
	.loc	44 2276 20
	movq	__ZN4rand6jitter13JITTER_ROUNDS17hcb889dd2d8335846E(%rip), %rax
Ltmp2071:
	.loc	2 133 12
	testl	%eax, %eax
	.loc	2 133 9 is_stmt 0
	jne	LBB92_13
Ltmp2072:
Ltmp2050:
	.loc	2 0 9
	leaq	-4200(%rbp), %rdi
	.loc	2 136 22 is_stmt 1
	callq	__ZN4rand6jitter9JitterRng10test_timer17hc19a158f51957c9aE
Ltmp2073:
Ltmp2051:
	.loc	2 136 37 is_stmt 0
	testb	$1, %al
	jne	LBB92_12
Ltmp2074:
	.loc	2 136 22
	shrq	$32, %rax
Ltmp2075:
	.loc	44 2265 20 is_stmt 1
	movq	%rax, __ZN4rand6jitter13JITTER_ROUNDS17hcb889dd2d8335846E(%rip)
Ltmp2076:
	.loc	2 188 17
	testl	%eax, %eax
	.loc	2 188 9 is_stmt 0
	je	LBB92_6
Ltmp2077:
LBB92_13:
	.loc	2 189 9 is_stmt 1
	movl	%eax, -4152(%rbp)
Ltmp2078:
	.loc	2 140 9
	leaq	-6314(%rbp), %r15
	leaq	-4200(%rbp), %rsi
	movl	$2112, %edx
	movq	%r15, %rdi
	callq	_memcpy
Ltmp2079:
	.loc	2 0 9 is_stmt 0
	leaq	-12560(%rbp), %r13
Ltmp2080:
	.loc	25 799 24 is_stmt 1
	movl	$2112, %edx
	movq	%r13, %rdi
	movq	%r15, %rsi
	callq	_memcpy
Ltmp2081:
	.loc	25 0 24 is_stmt 0
	leaq	-4200(%rbp), %rdi
Ltmp2082:
	.loc	5 248 23 is_stmt 1
	movl	$4128, %esi
	callq	___bzero
	movl	$8, %ebx
Ltmp2083:
	.p2align	4, 0x90
LBB92_14:
Ltmp2052:
	.loc	2 739 32
	movq	%r13, %rdi
	callq	__ZN53_$LT$rand..jitter..JitterRng$u20$as$u20$rand..Rng$GT$8next_u6417h4e1503284b53c1b3E
Ltmp2053:
Ltmp2084:
	.loc	14 2058 5
	movq	%rax, -4200(%rbp,%rbx)
Ltmp2085:
	.loc	2 735 15
	addq	$8, %rbx
	cmpq	$2056, %rbx
	.loc	2 735 9 is_stmt 0
	jne	LBB92_14
Ltmp2086:
	.loc	5 255 9 is_stmt 1
	movq	$0, -4200(%rbp)
Ltmp2087:
	.loc	5 256 9
	movq	$0, -96(%rbp)
	movq	$0, -88(%rbp)
	movq	$0, -80(%rbp)
Ltmp2055:
	leaq	-4200(%rbp), %rdi
	.loc	5 260 9
	movl	$1, %esi
	callq	__ZN4rand4prng7isaac6410Isaac64Rng4init17hb3b5c6646d2380cfE
Ltmp2056:
Ltmp2088:
	.loc	5 0 9 is_stmt 0
	leaq	-10448(%rbp), %rbx
	leaq	-4200(%rbp), %rsi
	.loc	5 261 16 is_stmt 1
	movl	$4128, %edx
	movq	%rbx, %rdi
	callq	_memcpy
Ltmp2089:
	.loc	25 799 34
	leaq	8(%r14), %rdi
	movl	$4128, %edx
	movq	%rbx, %rsi
	callq	_memcpy
	movq	$0, (%r14)
Ltmp2090:
	.loc	27 178 1
	cmpb	$2, %r12b
	jb	LBB92_22
Ltmp2091:
	.loc	27 178 1 is_stmt 0
	movq	-48(%rbp), %rbx
Ltmp2092:
	.loc	27 178 1
	movq	(%rbx), %rdi
	movq	8(%rbx), %rax
Ltmp2057:
	callq	*(%rax)
Ltmp2058:
Ltmp2093:
	movq	8(%rbx), %rax
Ltmp2094:
	.loc	9 282 16 is_stmt 1
	movq	8(%rax), %rsi
Ltmp2095:
	.loc	9 185 12
	testq	%rsi, %rsi
	.loc	9 185 9 is_stmt 0
	je	LBB92_21
Ltmp2096:
	.loc	27 178 1 is_stmt 1
	movq	(%rbx), %rdi
Ltmp2097:
	.loc	9 283 17
	movq	16(%rax), %rdx
Ltmp2098:
	.loc	9 102 5
	callq	___rust_dealloc
Ltmp2099:
LBB92_21:
	.loc	9 102 5 is_stmt 0
	movl	$24, %esi
	movl	$8, %edx
	movq	%rbx, %rdi
	callq	___rust_dealloc
	jmp	LBB92_22
Ltmp2100:
LBB92_8:
	.loc	46 195 26 is_stmt 1
	movl	-4196(%rbp), %eax
Ltmp2101:
	.loc	25 796 16
	movl	$1, -6320(%rbp)
	movl	%eax, -6316(%rbp)
Ltmp2102:
	.loc	25 0 16 is_stmt 0
	leaq	-4200(%rbp), %rdi
Ltmp2103:
	.loc	5 248 23 is_stmt 1
	movl	$4128, %esi
	callq	___bzero
Ltmp2104:
	.loc	5 250 23
	leaq	-4192(%rbp), %rsi
Ltmp2105:
Ltmp2040:
	.loc	5 0 23 is_stmt 0
	leaq	-6320(%rbp), %rdi
Ltmp2106:
	.loc	46 51 46 is_stmt 1
	movl	$2048, %edx
	callq	__ZN50_$LT$rand..os..imp..OsRng$u20$as$u20$rand..Rng$GT$10fill_bytes17he3db0fae04f1cd6eE
Ltmp2107:
Ltmp2041:
	.loc	5 255 9
	movq	$0, -4200(%rbp)
Ltmp2108:
	.loc	5 256 9
	movq	$0, -96(%rbp)
	movq	$0, -88(%rbp)
	movq	$0, -80(%rbp)
Ltmp2042:
	leaq	-4200(%rbp), %rdi
	.loc	5 260 9
	movl	$1, %esi
	callq	__ZN4rand4prng7isaac6410Isaac64Rng4init17hb3b5c6646d2380cfE
Ltmp2043:
Ltmp2109:
	.loc	5 0 9 is_stmt 0
	leaq	-10448(%rbp), %rbx
	leaq	-4200(%rbp), %rsi
	.loc	5 261 16 is_stmt 1
	movl	$4128, %edx
	movq	%rbx, %rdi
	callq	_memcpy
Ltmp2110:
	.loc	25 796 26
	leaq	8(%r14), %rdi
	movl	$4128, %edx
	movq	%rbx, %rsi
	callq	_memcpy
	movq	$0, (%r14)
Ltmp2111:
	.loc	27 178 1
	cmpl	$0, -6320(%rbp)
	je	LBB92_22
Ltmp2112:
	.loc	25 0 0 is_stmt 0
	leaq	-6316(%rbp), %rdi
Ltmp2113:
Ltmp2045:
	.loc	27 178 1
	callq	__ZN70_$LT$std..sys..unix..fd..FileDesc$u20$as$u20$core..ops..drop..Drop$GT$4drop17hf5fce2bf4d9f8deaE
Ltmp2114:
Ltmp2046:
	.loc	27 0 1
	jmp	LBB92_22
Ltmp2115:
LBB92_12:
	.loc	25 801 25 is_stmt 1
	movq	-56(%rbp), %rax
	movq	-48(%rbp), %rcx
	movq	%rcx, 16(%r14)
	movq	%rax, 8(%r14)
	movq	$1, (%r14)
Ltmp2116:
LBB92_22:
	.loc	25 806 6
	movq	%r14, %rax
	addq	$12520, %rsp
	popq	%rbx
	popq	%r12
	popq	%r13
	popq	%r14
	popq	%r15
	popq	%rbp
	retq
LBB92_6:
Ltmp2117:
Ltmp2060:
	.loc	2 188 9
	leaq	l___unnamed_75(%rip), %rdi
	leaq	l___unnamed_76(%rip), %rdx
	movl	$28, %esi
	callq	__ZN3std9panicking11begin_panic17hd4d4c819dff90bc2E
Ltmp2118:
Ltmp2061:
	ud2
Ltmp2119:
LBB92_29:
Ltmp2059:
	.loc	2 0 9 is_stmt 0
	movq	%rax, %r14
Ltmp2120:
	.loc	27 178 1 is_stmt 1
	movq	(%rbx), %rdi
	movq	8(%rbx), %rsi
	callq	__ZN5alloc5alloc8box_free17h7283f357bdeafe6fE
Ltmp2121:
	.loc	27 178 1 is_stmt 0
	movq	%rbx, %rdi
	callq	__ZN5alloc5alloc8box_free17h04b093cd7f262af6E
	movq	%r14, %rdi
	callq	__Unwind_Resume
	ud2
Ltmp2122:
LBB92_26:
Ltmp2047:
	.loc	27 0 1
	movq	%rax, %r14
	movq	%r14, %rdi
	callq	__Unwind_Resume
	ud2
Ltmp2123:
LBB92_27:
Ltmp2044:
	movq	%rax, %r14
Ltmp2124:
	leaq	-6320(%rbp), %rdi
	.loc	25 796 53 is_stmt 1
	callq	__ZN4core3ptr13drop_in_place17hcb9929e0d9d23674E
	movq	%r14, %rdi
	callq	__Unwind_Resume
	ud2
Ltmp2125:
LBB92_24:
Ltmp2062:
	.loc	25 0 53 is_stmt 0
	jmp	LBB92_25
LBB92_23:
Ltmp2126:
Ltmp2054:
LBB92_25:
	movq	%rax, %r14
Ltmp2127:
	leaq	-56(%rbp), %rdi
	.loc	25 805 9 is_stmt 1
	callq	__ZN4core3ptr13drop_in_place17hb68b0ab62809349bE
	movq	%r14, %rdi
	callq	__Unwind_Resume
	ud2
Ltmp2128:
Lfunc_end92:
	.cfi_endproc
	.section	__TEXT,__gcc_except_tab
	.p2align	2
GCC_except_table92:
Lexception7:
	.byte	255
	.byte	255
	.byte	1
	.uleb128 Lcst_end7-Lcst_begin7
Lcst_begin7:
	.uleb128 Lfunc_begin92-Lfunc_begin92
	.uleb128 Ltmp2048-Lfunc_begin92
	.byte	0
	.byte	0
	.uleb128 Ltmp2048-Lfunc_begin92
	.uleb128 Ltmp2051-Ltmp2048
	.uleb128 Ltmp2062-Lfunc_begin92
	.byte	0
	.uleb128 Ltmp2051-Lfunc_begin92
	.uleb128 Ltmp2052-Ltmp2051
	.byte	0
	.byte	0
	.uleb128 Ltmp2052-Lfunc_begin92
	.uleb128 Ltmp2053-Ltmp2052
	.uleb128 Ltmp2054-Lfunc_begin92
	.byte	0
	.uleb128 Ltmp2055-Lfunc_begin92
	.uleb128 Ltmp2056-Ltmp2055
	.uleb128 Ltmp2062-Lfunc_begin92
	.byte	0
	.uleb128 Ltmp2056-Lfunc_begin92
	.uleb128 Ltmp2057-Ltmp2056
	.byte	0
	.byte	0
	.uleb128 Ltmp2057-Lfunc_begin92
	.uleb128 Ltmp2058-Ltmp2057
	.uleb128 Ltmp2059-Lfunc_begin92
	.byte	0
	.uleb128 Ltmp2058-Lfunc_begin92
	.uleb128 Ltmp2040-Ltmp2058
	.byte	0
	.byte	0
	.uleb128 Ltmp2040-Lfunc_begin92
	.uleb128 Ltmp2043-Ltmp2040
	.uleb128 Ltmp2044-Lfunc_begin92
	.byte	0
	.uleb128 Ltmp2043-Lfunc_begin92
	.uleb128 Ltmp2045-Ltmp2043
	.byte	0
	.byte	0
	.uleb128 Ltmp2045-Lfunc_begin92
	.uleb128 Ltmp2046-Ltmp2045
	.uleb128 Ltmp2047-Lfunc_begin92
	.byte	0
	.uleb128 Ltmp2060-Lfunc_begin92
	.uleb128 Ltmp2061-Ltmp2060
	.uleb128 Ltmp2062-Lfunc_begin92
	.byte	0
	.uleb128 Ltmp2061-Lfunc_begin92
	.uleb128 Lfunc_end92-Ltmp2061
	.byte	0
	.byte	0
Lcst_end7:
	.p2align	2

	.section	__TEXT,__text,regular,pure_instructions
	.globl	__ZN77_$LT$rand..StdRng$u20$as$u20$rand..SeedableRng$LT$$RF$$u5b$usize$u5d$$GT$$GT$6reseed17h3dc5e68797cbe885E
	.p2align	4, 0x90
__ZN77_$LT$rand..StdRng$u20$as$u20$rand..SeedableRng$LT$$RF$$u5b$usize$u5d$$GT$$GT$6reseed17h3dc5e68797cbe885E:
Lfunc_begin93:
	.loc	25 822 0
	.cfi_startproc
	pushq	%rbp
	.cfi_def_cfa_offset 16
	.cfi_offset %rbp, -16
	movq	%rsp, %rbp
	.cfi_def_cfa_register %rbp
Ltmp2129:
	.loc	53 158 9 prologue_end
	leaq	(%rsi,%rdx,8), %r9
Ltmp2130:
	.loc	22 404 9
	leaq	8(%rdi), %rcx
Ltmp2131:
	.loc	38 152 9
	leaq	2056(%rdi), %r8
Ltmp2132:
	.loc	54 37 13
	testq	%rsi, %rsi
Ltmp2133:
	jne	LBB93_3
	jmp	LBB93_2
Ltmp2134:
	.p2align	4, 0x90
LBB93_6:
	.loc	54 0 13 is_stmt 0
	xorl	%esi, %esi
Ltmp2135:
	xorl	%eax, %eax
Ltmp2136:
LBB93_9:
	.loc	5 224 13 is_stmt 1
	movq	%rax, 8(%rcx)
Ltmp2137:
	.loc	22 3179 9
	addq	$16, %rcx
	cmpq	%r8, %rcx
	.loc	22 3303 21
	je	LBB93_10
Ltmp2138:
LBB93_1:
	.loc	54 37 13
	testq	%rsi, %rsi
Ltmp2139:
	je	LBB93_2
Ltmp2140:
LBB93_3:
	.loc	54 0 13 is_stmt 0
	movl	$0, %edx
	movl	$0, %eax
	.loc	54 37 13
	cmpq	%rsi, %r9
	je	LBB93_5
Ltmp2141:
	.loc	31 458 29 is_stmt 1
	movq	(%rsi), %rax
Ltmp2142:
	.loc	38 152 9
	addq	$8, %rsi
Ltmp2143:
	.loc	38 0 9 is_stmt 0
	movq	%rsi, %rdx
Ltmp2144:
LBB93_5:
	.loc	5 224 13 is_stmt 1
	movq	%rax, (%rcx)
Ltmp2145:
	.loc	54 37 13
	testq	%rdx, %rdx
Ltmp2146:
	je	LBB93_6
Ltmp2147:
LBB93_7:
	.loc	54 0 13 is_stmt 0
	movl	$0, %esi
	movl	$0, %eax
	.loc	54 37 13
	cmpq	%rdx, %r9
	je	LBB93_9
Ltmp2148:
	.loc	31 458 29 is_stmt 1
	movq	(%rdx), %rax
Ltmp2149:
	.loc	38 152 9
	addq	$8, %rdx
Ltmp2150:
	.loc	38 0 9 is_stmt 0
	movq	%rdx, %rsi
Ltmp2151:
	.loc	5 224 13 is_stmt 1
	movq	%rax, 8(%rcx)
Ltmp2152:
	.loc	22 3179 9
	addq	$16, %rcx
Ltmp2153:
	cmpq	%r8, %rcx
	.loc	22 3303 21
	jne	LBB93_1
	jmp	LBB93_10
Ltmp2154:
	.p2align	4, 0x90
LBB93_2:
	.loc	22 0 21 is_stmt 0
	xorl	%edx, %edx
Ltmp2155:
	xorl	%eax, %eax
Ltmp2156:
	.loc	5 224 13 is_stmt 1
	movq	%rax, (%rcx)
Ltmp2157:
	.loc	54 37 13
	testq	%rdx, %rdx
Ltmp2158:
	.loc	54 0 13 is_stmt 0
	jne	LBB93_7
	jmp	LBB93_6
Ltmp2159:
LBB93_10:
	.loc	5 226 9 is_stmt 1
	movq	$0, (%rdi)
	.loc	5 227 9
	movq	$0, 4104(%rdi)
	movq	$0, 4112(%rdi)
	movq	$0, 4120(%rdi)
	.loc	5 231 9
	movl	$1, %esi
	popq	%rbp
	jmp	__ZN4rand4prng7isaac6410Isaac64Rng4init17hb3b5c6646d2380cfE
Ltmp2160:
Lfunc_end93:
	.cfi_endproc

	.globl	__ZN77_$LT$rand..StdRng$u20$as$u20$rand..SeedableRng$LT$$RF$$u5b$usize$u5d$$GT$$GT$9from_seed17h9491780ec6643b11E
	.p2align	4, 0x90
__ZN77_$LT$rand..StdRng$u20$as$u20$rand..SeedableRng$LT$$RF$$u5b$usize$u5d$$GT$$GT$9from_seed17h9491780ec6643b11E:
Lfunc_begin94:
	.loc	25 828 0
	.cfi_startproc
	pushq	%rbp
	.cfi_def_cfa_offset 16
	.cfi_offset %rbp, -16
	movq	%rsp, %rbp
	.cfi_def_cfa_register %rbp
	pushq	%r15
	pushq	%r14
	pushq	%rbx
	movl	$4136, %eax
	callq	___rust_probestack
	subq	%rax, %rsp
	.cfi_offset %rbx, -40
	.cfi_offset %r14, -32
	.cfi_offset %r15, -24
	movq	%rdx, %r15
Ltmp2161:
	movq	%rsi, %rbx
Ltmp2162:
	movq	%rdi, %r14
Ltmp2163:
	leaq	-4152(%rbp), %rdi
Ltmp2164:
	.loc	5 240 23 prologue_end
	movl	$4128, %esi
	callq	___bzero
Ltmp2165:
	.loc	53 158 9
	leaq	(%rbx,%r15,8), %rax
Ltmp2166:
	.loc	22 404 9
	leaq	-4144(%rbp), %rcx
Ltmp2167:
	.loc	38 152 9
	leaq	-2096(%rbp), %rdx
Ltmp2168:
	.loc	54 37 13
	testq	%rbx, %rbx
Ltmp2169:
	jne	LBB94_3
	jmp	LBB94_2
Ltmp2170:
	.p2align	4, 0x90
LBB94_6:
	.loc	54 0 13 is_stmt 0
	xorl	%ebx, %ebx
Ltmp2171:
	xorl	%edi, %edi
Ltmp2172:
LBB94_9:
	.loc	5 224 13 is_stmt 1
	movq	%rdi, 8(%rcx)
Ltmp2173:
	.loc	22 3179 9
	addq	$16, %rcx
	cmpq	%rdx, %rcx
	.loc	22 3303 21
	je	LBB94_10
Ltmp2174:
LBB94_1:
	.loc	54 37 13
	testq	%rbx, %rbx
Ltmp2175:
	je	LBB94_2
Ltmp2176:
LBB94_3:
	.loc	54 0 13 is_stmt 0
	movl	$0, %esi
	movl	$0, %edi
	.loc	54 37 13
	cmpq	%rbx, %rax
	je	LBB94_5
Ltmp2177:
	.loc	31 458 29 is_stmt 1
	movq	(%rbx), %rdi
Ltmp2178:
	.loc	38 152 9
	addq	$8, %rbx
Ltmp2179:
	.loc	38 0 9 is_stmt 0
	movq	%rbx, %rsi
Ltmp2180:
LBB94_5:
	.loc	5 224 13 is_stmt 1
	movq	%rdi, (%rcx)
Ltmp2181:
	.loc	54 37 13
	testq	%rsi, %rsi
Ltmp2182:
	je	LBB94_6
Ltmp2183:
LBB94_7:
	.loc	54 0 13 is_stmt 0
	movl	$0, %ebx
	movl	$0, %edi
	.loc	54 37 13
	cmpq	%rsi, %rax
	je	LBB94_9
Ltmp2184:
	.loc	31 458 29 is_stmt 1
	movq	(%rsi), %rdi
Ltmp2185:
	.loc	38 152 9
	addq	$8, %rsi
Ltmp2186:
	.loc	38 0 9 is_stmt 0
	movq	%rsi, %rbx
Ltmp2187:
	.loc	5 224 13 is_stmt 1
	movq	%rdi, 8(%rcx)
Ltmp2188:
	.loc	22 3179 9
	addq	$16, %rcx
Ltmp2189:
	cmpq	%rdx, %rcx
	.loc	22 3303 21
	jne	LBB94_1
	jmp	LBB94_10
Ltmp2190:
	.p2align	4, 0x90
LBB94_2:
	.loc	22 0 21 is_stmt 0
	xorl	%esi, %esi
	xorl	%edi, %edi
Ltmp2191:
	.loc	5 224 13 is_stmt 1
	movq	%rdi, (%rcx)
Ltmp2192:
	.loc	54 37 13
	testq	%rsi, %rsi
Ltmp2193:
	.loc	54 0 13 is_stmt 0
	jne	LBB94_7
	jmp	LBB94_6
Ltmp2194:
LBB94_10:
	.loc	5 226 9 is_stmt 1
	movq	$0, -4152(%rbp)
	.loc	5 227 9
	movq	$0, -48(%rbp)
	movq	$0, -40(%rbp)
	movq	$0, -32(%rbp)
	leaq	-4152(%rbp), %rbx
	.loc	5 231 9
	movq	%rbx, %rdi
	movl	$1, %esi
	callq	__ZN4rand4prng7isaac6410Isaac64Rng4init17hb3b5c6646d2380cfE
Ltmp2195:
	.loc	5 242 9
	movl	$4128, %edx
	movq	%r14, %rdi
	movq	%rbx, %rsi
	callq	_memcpy
Ltmp2196:
	.loc	25 830 6
	movq	%r14, %rax
	addq	$4136, %rsp
	popq	%rbx
	popq	%r14
	popq	%r15
Ltmp2197:
	popq	%rbp
	retq
Ltmp2198:
Lfunc_end94:
	.cfi_endproc

	.globl	__ZN4rand8weak_rng17hd25156367dad84f9E
	.p2align	4, 0x90
__ZN4rand8weak_rng17hd25156367dad84f9E:
Lfunc_begin95:
	.loc	25 842 0
	.cfi_startproc
	.cfi_personality 155, _rust_eh_personality
	.cfi_lsda 16, Lexception8
	pushq	%rbp
	.cfi_def_cfa_offset 16
	.cfi_offset %rbp, -16
	movq	%rsp, %rbp
	.cfi_def_cfa_register %rbp
	pushq	%r15
	pushq	%r14
	pushq	%r13
	pushq	%r12
	pushq	%rbx
	subq	$24, %rsp
	.cfi_offset %rbx, -56
	.cfi_offset %r12, -48
	.cfi_offset %r13, -40
	.cfi_offset %r14, -32
	.cfi_offset %r15, -24
	movq	%rdi, %rbx
Ltmp2223:
	.loc	31 270 13 prologue_end
	movq	__ZN4rand10thread_rng14THREAD_RNG_KEY7__getit5__KEY17hae53d4b0d4d6586cE@TLVP(%rip), %rdi
	callq	*(%rdi)
	movq	(%rax), %r15
	testq	%r15, %r15
Ltmp2224:
	.loc	23 409 17
	je	LBB95_1
Ltmp2225:
	.loc	26 2026 9
	movq	(%r15), %rax
Ltmp2226:
	.loc	26 2037 12
	incq	%rax
Ltmp2227:
	cmpq	$1, %rax
	jbe	LBB95_28
Ltmp2228:
LBB95_4:
	.loc	26 0 12 is_stmt 0
	movq	%rbx, -64(%rbp)
Ltmp2229:
	.loc	14 2058 5 is_stmt 1
	movq	%rax, (%r15)
Ltmp2230:
	.loc	10 962 13
	testq	%r15, %r15
Ltmp2231:
	je	LBB95_29
Ltmp2232:
	.loc	25 843 5
	movq	%r15, -56(%rbp)
Ltmp2233:
Ltmp2199:
	.loc	25 0 5 is_stmt 0
	leaq	-56(%rbp), %rdi
Ltmp2234:
	.file	56 "/Users/yingyuhang/.cargo/registry/src/github.com-1ecc6299db9ec823/rand-0.4.6/src/rand_impls.rs"
	.loc	56 92 9 is_stmt 1
	callq	__ZN45_$LT$rand..ThreadRng$u20$as$u20$rand..Rng$GT$8next_u3217h50018d27e8f41ac3E
Ltmp2200:
Ltmp2235:
	.loc	56 0 0 is_stmt 0
	movl	%eax, %r12d
Ltmp2202:
Ltmp2236:
	leaq	-56(%rbp), %rdi
Ltmp2237:
	.loc	56 92 9
	callq	__ZN45_$LT$rand..ThreadRng$u20$as$u20$rand..Rng$GT$8next_u3217h50018d27e8f41ac3E
Ltmp2203:
Ltmp2238:
	.loc	56 0 0
	movl	%eax, %ebx
Ltmp2205:
Ltmp2239:
	leaq	-56(%rbp), %rdi
Ltmp2240:
	.loc	56 92 9
	callq	__ZN45_$LT$rand..ThreadRng$u20$as$u20$rand..Rng$GT$8next_u3217h50018d27e8f41ac3E
Ltmp2206:
Ltmp2241:
	.loc	56 0 0
	movl	%eax, %r14d
Ltmp2208:
Ltmp2242:
	leaq	-56(%rbp), %rdi
Ltmp2243:
	.loc	56 92 9
	callq	__ZN45_$LT$rand..ThreadRng$u20$as$u20$rand..Rng$GT$8next_u3217h50018d27e8f41ac3E
Ltmp2209:
Ltmp2244:
	.loc	56 0 9
	leaq	-56(%rbp), %r13
Ltmp2245:
	.p2align	4, 0x90
LBB95_10:
	.file	57 "/rustc/a74d1862d4d87a56244958416fd05976c58ca1a8/src/libcore/tuple.rs"
	.loc	57 18 23 is_stmt 1
	movl	%r14d, %ecx
	orl	%eax, %ecx
	orl	%ebx, %ecx
	orl	%r12d, %ecx
	jne	LBB95_21
Ltmp2246:
Ltmp2211:
	.loc	56 92 9
	movq	%r13, %rdi
	callq	__ZN45_$LT$rand..ThreadRng$u20$as$u20$rand..Rng$GT$8next_u3217h50018d27e8f41ac3E
Ltmp2212:
Ltmp2247:
	.loc	56 0 0 is_stmt 0
	movl	%eax, %r12d
Ltmp2214:
Ltmp2248:
	.loc	56 92 9
	movq	%r13, %rdi
	callq	__ZN45_$LT$rand..ThreadRng$u20$as$u20$rand..Rng$GT$8next_u3217h50018d27e8f41ac3E
Ltmp2215:
Ltmp2249:
	.loc	56 0 0
	movl	%eax, %ebx
Ltmp2217:
Ltmp2250:
	.loc	56 92 9
	movq	%r13, %rdi
	callq	__ZN45_$LT$rand..ThreadRng$u20$as$u20$rand..Rng$GT$8next_u3217h50018d27e8f41ac3E
Ltmp2218:
Ltmp2251:
	.loc	56 0 0
	movl	%eax, %r14d
Ltmp2220:
Ltmp2252:
	.loc	56 92 9
	movq	%r13, %rdi
	callq	__ZN45_$LT$rand..ThreadRng$u20$as$u20$rand..Rng$GT$8next_u3217h50018d27e8f41ac3E
Ltmp2221:
	jmp	LBB95_10
Ltmp2253:
LBB95_21:
	.loc	56 0 9
	movq	-64(%rbp), %rcx
Ltmp2254:
	.loc	55 99 9 is_stmt 1
	movl	%r12d, (%rcx)
	movq	%rcx, %r12
Ltmp2255:
	movl	%ebx, 4(%rcx)
	movl	%r14d, 8(%rcx)
	movl	%eax, 12(%rcx)
Ltmp2256:
	.loc	14 2058 5
	decq	(%r15)
Ltmp2257:
	.loc	26 1148 13
	jne	LBB95_24
Ltmp2258:
	.loc	14 2058 5
	decq	8(%r15)
Ltmp2259:
	.loc	26 1156 17
	jne	LBB95_24
Ltmp2260:
	.loc	9 102 5
	movl	$4168, %esi
	movl	$8, %edx
	movq	%r15, %rdi
	callq	___rust_dealloc
Ltmp2261:
LBB95_24:
	.loc	25 844 2
	movq	%r12, %rax
	addq	$24, %rsp
	popq	%rbx
	popq	%r12
	popq	%r13
	popq	%r14
	popq	%r15
	popq	%rbp
	retq
LBB95_1:
Ltmp2262:
	.loc	23 410 25
	callq	__ZN3std6thread5local4fast12Key$LT$T$GT$14try_initialize17h6691b61cb68b2ed0E
Ltmp2263:
	.loc	23 262 82
	testq	%rax, %rax
	je	LBB95_29
Ltmp2264:
	.loc	23 263 16
	movq	(%rax), %r15
Ltmp2265:
	.loc	26 2026 9
	movq	(%r15), %rax
Ltmp2266:
	.loc	26 2037 12
	incq	%rax
Ltmp2267:
	cmpq	$1, %rax
	ja	LBB95_4
	jmp	LBB95_28
Ltmp2268:
LBB95_29:
	.loc	10 963 23
	leaq	l___unnamed_111(%rip), %rdi
	leaq	l___unnamed_4(%rip), %rcx
	leaq	l___unnamed_112(%rip), %r8
	leaq	-48(%rbp), %rdx
	movl	$70, %esi
	callq	__ZN4core6result13unwrap_failed17hb5a510096a5fc85fE
Ltmp2269:
LBB95_17:
Ltmp2210:
	.loc	10 0 23 is_stmt 0
	jmp	LBB95_27
Ltmp2270:
LBB95_16:
Ltmp2207:
	jmp	LBB95_27
Ltmp2271:
LBB95_15:
Ltmp2204:
	jmp	LBB95_27
Ltmp2272:
LBB95_26:
Ltmp2201:
	jmp	LBB95_27
Ltmp2273:
LBB95_20:
Ltmp2222:
	jmp	LBB95_27
Ltmp2274:
LBB95_19:
Ltmp2219:
	jmp	LBB95_27
Ltmp2275:
LBB95_18:
Ltmp2216:
	jmp	LBB95_27
Ltmp2276:
LBB95_25:
Ltmp2213:
LBB95_27:
	movq	%rax, %rbx
	leaq	-56(%rbp), %rdi
	.loc	25 844 1 is_stmt 1
	callq	__ZN4core3ptr13drop_in_place17ha43a8d7586c5679aE
	movq	%rbx, %rdi
	callq	__Unwind_Resume
Ltmp2277:
LBB95_28:
	.loc	25 0 1 is_stmt 0
	ud2
Lfunc_end95:
	.cfi_endproc
	.section	__TEXT,__gcc_except_tab
	.p2align	2
GCC_except_table95:
Lexception8:
	.byte	255
	.byte	255
	.byte	1
	.uleb128 Lcst_end8-Lcst_begin8
Lcst_begin8:
	.uleb128 Lfunc_begin95-Lfunc_begin95
	.uleb128 Ltmp2199-Lfunc_begin95
	.byte	0
	.byte	0
	.uleb128 Ltmp2199-Lfunc_begin95
	.uleb128 Ltmp2200-Ltmp2199
	.uleb128 Ltmp2201-Lfunc_begin95
	.byte	0
	.uleb128 Ltmp2202-Lfunc_begin95
	.uleb128 Ltmp2203-Ltmp2202
	.uleb128 Ltmp2204-Lfunc_begin95
	.byte	0
	.uleb128 Ltmp2205-Lfunc_begin95
	.uleb128 Ltmp2206-Ltmp2205
	.uleb128 Ltmp2207-Lfunc_begin95
	.byte	0
	.uleb128 Ltmp2208-Lfunc_begin95
	.uleb128 Ltmp2209-Ltmp2208
	.uleb128 Ltmp2210-Lfunc_begin95
	.byte	0
	.uleb128 Ltmp2211-Lfunc_begin95
	.uleb128 Ltmp2212-Ltmp2211
	.uleb128 Ltmp2213-Lfunc_begin95
	.byte	0
	.uleb128 Ltmp2214-Lfunc_begin95
	.uleb128 Ltmp2215-Ltmp2214
	.uleb128 Ltmp2216-Lfunc_begin95
	.byte	0
	.uleb128 Ltmp2217-Lfunc_begin95
	.uleb128 Ltmp2218-Ltmp2217
	.uleb128 Ltmp2219-Lfunc_begin95
	.byte	0
	.uleb128 Ltmp2220-Lfunc_begin95
	.uleb128 Ltmp2221-Ltmp2220
	.uleb128 Ltmp2222-Lfunc_begin95
	.byte	0
	.uleb128 Ltmp2221-Lfunc_begin95
	.uleb128 Lfunc_end95-Ltmp2221
	.byte	0
	.byte	0
Lcst_end8:
	.p2align	2

	.section	__TEXT,__text,regular,pure_instructions
	.globl	__ZN89_$LT$rand..ThreadRngReseeder$u20$as$u20$rand..reseeding..Reseeder$LT$rand..StdRng$GT$$GT$6reseed17h0df33dabcfe57de7E
	.p2align	4, 0x90
__ZN89_$LT$rand..ThreadRngReseeder$u20$as$u20$rand..reseeding..Reseeder$LT$rand..StdRng$GT$$GT$6reseed17h0df33dabcfe57de7E:
Lfunc_begin96:
	.loc	25 853 0 is_stmt 1
	.cfi_startproc
	.cfi_personality 155, _rust_eh_personality
	.cfi_lsda 16, Lexception9
	pushq	%rbp
	.cfi_def_cfa_offset 16
	.cfi_offset %rbp, -16
	movq	%rsp, %rbp
	.cfi_def_cfa_register %rbp
	pushq	%rbx
	movl	$4216, %eax
	callq	___rust_probestack
	subq	%rax, %rsp
	.cfi_offset %rbx, -24
	movq	%rsi, %rbx
Ltmp2281:
	leaq	-4224(%rbp), %rdi
Ltmp2282:
	.loc	25 854 15 prologue_end
	callq	__ZN4rand6StdRng3new17hdaa9742f8e3eafbbE
	.loc	25 855 13
	cmpq	$1, -4224(%rbp)
	je	LBB96_1
Ltmp2283:
	.loc	25 855 16 is_stmt 0
	leaq	-4216(%rbp), %rsi
Ltmp2284:
	.loc	25 855 29
	movl	$4128, %edx
	movq	%rbx, %rdi
	callq	_memcpy
Ltmp2285:
	.loc	25 858 6 is_stmt 1
	addq	$4216, %rsp
	popq	%rbx
Ltmp2286:
	popq	%rbp
	retq
LBB96_1:
Ltmp2287:
	.loc	25 856 17
	movq	-4216(%rbp), %rax
	movq	-4208(%rbp), %rcx
	movq	%rcx, -16(%rbp)
	movq	%rax, -24(%rbp)
	leaq	-24(%rbp), %rax
Ltmp2288:
	.loc	25 856 23 is_stmt 0
	movq	%rax, -40(%rbp)
	movq	__ZN60_$LT$std..io..error..Error$u20$as$u20$core..fmt..Display$GT$3fmt17hd5a23906ccc4fffdE@GOTPCREL(%rip), %rax
	movq	%rax, -32(%rbp)
Ltmp2289:
	.loc	28 328 9 is_stmt 1
	leaq	l___unnamed_26(%rip), %rax
Ltmp2290:
	movq	%rax, -88(%rbp)
	movq	$1, -80(%rbp)
	movq	$0, -72(%rbp)
	leaq	-40(%rbp), %rax
Ltmp2291:
	movq	%rax, -56(%rbp)
	movq	$1, -48(%rbp)
Ltmp2292:
Ltmp2278:
	.loc	25 856 23
	leaq	l___unnamed_113(%rip), %rsi
	leaq	-88(%rbp), %rdi
	callq	__ZN3std9panicking15begin_panic_fmt17h2e6dba6f5c07d155E
Ltmp2279:
Ltmp2293:
	.loc	25 0 23 is_stmt 0
	ud2
Ltmp2294:
LBB96_2:
Ltmp2280:
	movq	%rax, %rbx
Ltmp2295:
	leaq	-24(%rbp), %rdi
	.loc	25 856 60
	callq	__ZN4core3ptr13drop_in_place17hb68b0ab62809349bE
	movq	%rbx, %rdi
	callq	__Unwind_Resume
	ud2
Ltmp2296:
Lfunc_end96:
	.cfi_endproc
	.section	__TEXT,__gcc_except_tab
	.p2align	2
GCC_except_table96:
Lexception9:
	.byte	255
	.byte	255
	.byte	1
	.uleb128 Lcst_end9-Lcst_begin9
Lcst_begin9:
	.uleb128 Lfunc_begin96-Lfunc_begin96
	.uleb128 Ltmp2278-Lfunc_begin96
	.byte	0
	.byte	0
	.uleb128 Ltmp2278-Lfunc_begin96
	.uleb128 Ltmp2279-Ltmp2278
	.uleb128 Ltmp2280-Lfunc_begin96
	.byte	0
	.uleb128 Ltmp2279-Lfunc_begin96
	.uleb128 Lfunc_end96-Ltmp2279
	.byte	0
	.byte	0
Lcst_end9:
	.p2align	2

	.section	__TEXT,__text,regular,pure_instructions
	.globl	__ZN4rand10thread_rng17h3144534d83829094E
	.p2align	4, 0x90
__ZN4rand10thread_rng17h3144534d83829094E:
Lfunc_begin97:
	.loc	25 885 0 is_stmt 1
	.cfi_startproc
	pushq	%rbp
	.cfi_def_cfa_offset 16
	.cfi_offset %rbp, -16
	movq	%rsp, %rbp
	.cfi_def_cfa_register %rbp
	subq	$16, %rsp
Ltmp2297:
	.loc	31 270 13 prologue_end
	movq	__ZN4rand10thread_rng14THREAD_RNG_KEY7__getit5__KEY17hae53d4b0d4d6586cE@TLVP(%rip), %rdi
	callq	*(%rdi)
	movq	(%rax), %rax
	testq	%rax, %rax
Ltmp2298:
	.loc	23 409 17
	je	LBB97_1
Ltmp2299:
	.loc	26 2026 9
	movq	(%rax), %rcx
Ltmp2300:
	.loc	26 2037 12
	incq	%rcx
Ltmp2301:
	cmpq	$1, %rcx
	jbe	LBB97_6
Ltmp2302:
LBB97_4:
	.loc	14 2058 5
	movq	%rcx, (%rax)
Ltmp2303:
	.loc	10 962 13
	testq	%rax, %rax
Ltmp2304:
	je	LBB97_7
Ltmp2305:
	.loc	25 899 2
	addq	$16, %rsp
	popq	%rbp
	retq
LBB97_1:
Ltmp2306:
	.loc	23 410 25
	callq	__ZN3std6thread5local4fast12Key$LT$T$GT$14try_initialize17h6691b61cb68b2ed0E
Ltmp2307:
	.loc	23 262 82
	testq	%rax, %rax
	je	LBB97_7
Ltmp2308:
	.loc	23 263 16
	movq	(%rax), %rax
Ltmp2309:
	.loc	26 2026 9
	movq	(%rax), %rcx
Ltmp2310:
	.loc	26 2037 12
	incq	%rcx
Ltmp2311:
	cmpq	$1, %rcx
	ja	LBB97_4
Ltmp2312:
LBB97_6:
	.loc	26 2039 17
	ud2
Ltmp2313:
LBB97_7:
	.loc	10 963 23
	leaq	l___unnamed_111(%rip), %rdi
	leaq	l___unnamed_4(%rip), %rcx
	leaq	l___unnamed_112(%rip), %r8
	leaq	-8(%rbp), %rdx
	movl	$70, %esi
	callq	__ZN4core6result13unwrap_failed17hb5a510096a5fc85fE
Ltmp2314:
Lfunc_end97:
	.cfi_endproc

	.globl	__ZN45_$LT$rand..ThreadRng$u20$as$u20$rand..Rng$GT$8next_u3217h50018d27e8f41ac3E
	.p2align	4, 0x90
__ZN45_$LT$rand..ThreadRng$u20$as$u20$rand..Rng$GT$8next_u3217h50018d27e8f41ac3E:
Lfunc_begin98:
	.loc	25 903 0
	.cfi_startproc
	.cfi_personality 155, _rust_eh_personality
	.cfi_lsda 16, Lexception10
	pushq	%rbp
	.cfi_def_cfa_offset 16
	.cfi_offset %rbp, -16
	movq	%rsp, %rbp
	.cfi_def_cfa_register %rbp
Ltmp2331:
	pushq	%r15
	pushq	%r14
	pushq	%rbx
	movl	$4216, %eax
	callq	___rust_probestack
	subq	%rax, %rsp
	.cfi_offset %rbx, -40
	.cfi_offset %r14, -32
	.cfi_offset %r15, -24
	.loc	25 904 9 prologue_end
	movq	(%rdi), %rbx
Ltmp2332:
	.loc	24 1475 13
	cmpq	$0, 16(%rbx)
	jne	LBB98_20
Ltmp2333:
	.loc	25 0 0 is_stmt 0
	leaq	16(%rbx), %r14
Ltmp2334:
	.loc	14 2058 5 is_stmt 1
	movq	$-1, 16(%rbx)
Ltmp2335:
	.loc	24 908 27
	leaq	24(%rbx), %r15
Ltmp2336:
	.loc	41 53 12
	movq	4160(%rbx), %rax
	cmpq	4152(%rbx), %rax
Ltmp2337:
	.loc	41 53 9 is_stmt 0
	jb	LBB98_8
Ltmp2338:
Ltmp2315:
	.loc	41 0 9
	leaq	-4240(%rbp), %rdi
Ltmp2339:
	.loc	25 854 15 is_stmt 1
	callq	__ZN4rand6StdRng3new17hdaa9742f8e3eafbbE
Ltmp2316:
Ltmp2340:
	.loc	25 855 13
	cmpq	$1, -4240(%rbp)
	je	LBB98_4
Ltmp2341:
	.loc	25 855 16 is_stmt 0
	leaq	-4232(%rbp), %rsi
Ltmp2342:
	.loc	25 855 29
	movl	$4128, %edx
	movq	%r15, %rdi
	callq	_memcpy
Ltmp2343:
	.loc	41 55 13 is_stmt 1
	movq	$0, 4160(%rbx)
	xorl	%eax, %eax
Ltmp2344:
LBB98_8:
	.loc	41 64 9
	addq	$4, %rax
	jb	LBB98_16
Ltmp2345:
	movq	%rax, 4160(%rbx)
Ltmp2346:
	.loc	5 204 12
	movq	24(%rbx), %rax
	testq	%rax, %rax
	.loc	5 204 9 is_stmt 0
	jne	LBB98_12
Ltmp2347:
Ltmp2322:
	.loc	5 206 13 is_stmt 1
	movq	%r15, %rdi
	callq	__ZN4rand4prng7isaac6410Isaac64Rng7isaac6417h031b9767eba83f18E
Ltmp2323:
Ltmp2348:
	.loc	5 208 9
	movq	(%r15), %rax
Ltmp2349:
LBB98_12:
	subq	$1, %rax
	jb	LBB98_15
Ltmp2350:
	movq	%rax, (%r15)
	.loc	5 212 23
	cmpq	$256, %rax
	.loc	5 212 9 is_stmt 0
	jae	LBB98_14
Ltmp2351:
	.loc	5 213 18 is_stmt 1
	movzbl	%al, %eax
	.loc	5 213 9 is_stmt 0
	movl	8(%r15,%rax,8), %eax
Ltmp2352:
	.loc	14 2058 5 is_stmt 1
	incq	(%r14)
Ltmp2353:
	.loc	25 905 6
	addq	$4216, %rsp
	popq	%rbx
	popq	%r14
	popq	%r15
Ltmp2354:
	popq	%rbp
	retq
Ltmp2355:
LBB98_20:
	.loc	10 963 23
	leaq	L___unnamed_114(%rip), %rdi
Ltmp2356:
	leaq	l___unnamed_5(%rip), %rcx
	leaq	l___unnamed_115(%rip), %r8
	leaq	-4240(%rbp), %rdx
	movl	$16, %esi
	callq	__ZN4core6result13unwrap_failed17hb5a510096a5fc85fE
Ltmp2357:
LBB98_16:
Ltmp2328:
	.loc	41 64 9
	leaq	_str.3(%rip), %rdi
	leaq	l___unnamed_116(%rip), %rdx
	movl	$28, %esi
	callq	__ZN4core9panicking5panic17h736ee47a631475c0E
Ltmp2329:
	jmp	LBB98_5
Ltmp2358:
LBB98_15:
Ltmp2326:
	.loc	5 208 9
	leaq	_str.4(%rip), %rdi
	leaq	l___unnamed_117(%rip), %rdx
	movl	$33, %esi
	callq	__ZN4core9panicking5panic17h736ee47a631475c0E
Ltmp2327:
	jmp	LBB98_5
Ltmp2359:
LBB98_14:
Ltmp2324:
	.loc	5 212 9
	leaq	l___unnamed_118(%rip), %rdi
	leaq	l___unnamed_119(%rip), %rdx
	movl	$41, %esi
	callq	__ZN3std9panicking11begin_panic17hd4d4c819dff90bc2E
Ltmp2325:
	jmp	LBB98_5
Ltmp2360:
LBB98_4:
	.loc	25 856 17
	movq	-4232(%rbp), %rax
	movq	-4224(%rbp), %rcx
	movq	%rcx, -32(%rbp)
	movq	%rax, -40(%rbp)
	leaq	-40(%rbp), %rax
Ltmp2361:
	.loc	25 856 23 is_stmt 0
	movq	%rax, -56(%rbp)
	movq	__ZN60_$LT$std..io..error..Error$u20$as$u20$core..fmt..Display$GT$3fmt17hd5a23906ccc4fffdE@GOTPCREL(%rip), %rax
	movq	%rax, -48(%rbp)
Ltmp2362:
	.loc	28 328 9 is_stmt 1
	leaq	l___unnamed_26(%rip), %rax
Ltmp2363:
	movq	%rax, -104(%rbp)
	movq	$1, -96(%rbp)
	movq	$0, -88(%rbp)
	leaq	-56(%rbp), %rax
Ltmp2364:
	movq	%rax, -72(%rbp)
	movq	$1, -64(%rbp)
Ltmp2365:
Ltmp2317:
	.loc	25 856 23
	leaq	l___unnamed_113(%rip), %rsi
	leaq	-104(%rbp), %rdi
	callq	__ZN3std9panicking15begin_panic_fmt17h2e6dba6f5c07d155E
Ltmp2318:
Ltmp2366:
LBB98_5:
	.loc	25 0 23 is_stmt 0
	ud2
Ltmp2367:
LBB98_6:
Ltmp2319:
	movq	%rax, %rbx
Ltmp2368:
Ltmp2320:
	leaq	-40(%rbp), %rdi
	.loc	25 856 60
	callq	__ZN4core3ptr13drop_in_place17hb68b0ab62809349bE
Ltmp2321:
	jmp	LBB98_19
Ltmp2369:
LBB98_18:
Ltmp2330:
	.loc	25 0 60
	movq	%rax, %rbx
Ltmp2370:
LBB98_19:
	.loc	25 905 5 is_stmt 1
	movq	%r14, %rdi
	callq	__ZN4core3ptr13drop_in_place17hcc7d513641292a43E
	movq	%rbx, %rdi
	callq	__Unwind_Resume
	ud2
Ltmp2371:
Lfunc_end98:
	.cfi_endproc
	.section	__TEXT,__gcc_except_tab
	.p2align	2
GCC_except_table98:
Lexception10:
	.byte	255
	.byte	255
	.byte	1
	.uleb128 Lcst_end10-Lcst_begin10
Lcst_begin10:
	.uleb128 Lfunc_begin98-Lfunc_begin98
	.uleb128 Ltmp2315-Lfunc_begin98
	.byte	0
	.byte	0
	.uleb128 Ltmp2315-Lfunc_begin98
	.uleb128 Ltmp2316-Ltmp2315
	.uleb128 Ltmp2330-Lfunc_begin98
	.byte	0
	.uleb128 Ltmp2316-Lfunc_begin98
	.uleb128 Ltmp2322-Ltmp2316
	.byte	0
	.byte	0
	.uleb128 Ltmp2322-Lfunc_begin98
	.uleb128 Ltmp2323-Ltmp2322
	.uleb128 Ltmp2330-Lfunc_begin98
	.byte	0
	.uleb128 Ltmp2323-Lfunc_begin98
	.uleb128 Ltmp2328-Ltmp2323
	.byte	0
	.byte	0
	.uleb128 Ltmp2328-Lfunc_begin98
	.uleb128 Ltmp2325-Ltmp2328
	.uleb128 Ltmp2330-Lfunc_begin98
	.byte	0
	.uleb128 Ltmp2317-Lfunc_begin98
	.uleb128 Ltmp2318-Ltmp2317
	.uleb128 Ltmp2319-Lfunc_begin98
	.byte	0
	.uleb128 Ltmp2320-Lfunc_begin98
	.uleb128 Ltmp2321-Ltmp2320
	.uleb128 Ltmp2330-Lfunc_begin98
	.byte	0
	.uleb128 Ltmp2321-Lfunc_begin98
	.uleb128 Lfunc_end98-Ltmp2321
	.byte	0
	.byte	0
Lcst_end10:
	.p2align	2

	.section	__TEXT,__text,regular,pure_instructions
	.globl	__ZN45_$LT$rand..ThreadRng$u20$as$u20$rand..Rng$GT$8next_u6417hf3c27216452be981E
	.p2align	4, 0x90
__ZN45_$LT$rand..ThreadRng$u20$as$u20$rand..Rng$GT$8next_u6417hf3c27216452be981E:
Lfunc_begin99:
	.loc	25 907 0
	.cfi_startproc
	.cfi_personality 155, _rust_eh_personality
	.cfi_lsda 16, Lexception11
	pushq	%rbp
	.cfi_def_cfa_offset 16
	.cfi_offset %rbp, -16
	movq	%rsp, %rbp
	.cfi_def_cfa_register %rbp
Ltmp2388:
	pushq	%r15
	pushq	%r14
	pushq	%rbx
	movl	$4216, %eax
	callq	___rust_probestack
	subq	%rax, %rsp
	.cfi_offset %rbx, -40
	.cfi_offset %r14, -32
	.cfi_offset %r15, -24
	.loc	25 908 9 prologue_end
	movq	(%rdi), %rbx
Ltmp2389:
	.loc	24 1475 13
	cmpq	$0, 16(%rbx)
	jne	LBB99_20
Ltmp2390:
	.loc	25 0 0 is_stmt 0
	leaq	16(%rbx), %r14
Ltmp2391:
	.loc	14 2058 5 is_stmt 1
	movq	$-1, 16(%rbx)
Ltmp2392:
	.loc	24 908 27
	leaq	24(%rbx), %r15
Ltmp2393:
	.loc	41 53 12
	movq	4160(%rbx), %rax
	cmpq	4152(%rbx), %rax
Ltmp2394:
	.loc	41 53 9 is_stmt 0
	jb	LBB99_8
Ltmp2395:
Ltmp2372:
	.loc	41 0 9
	leaq	-4240(%rbp), %rdi
Ltmp2396:
	.loc	25 854 15 is_stmt 1
	callq	__ZN4rand6StdRng3new17hdaa9742f8e3eafbbE
Ltmp2373:
Ltmp2397:
	.loc	25 855 13
	cmpq	$1, -4240(%rbp)
	je	LBB99_4
Ltmp2398:
	.loc	25 855 16 is_stmt 0
	leaq	-4232(%rbp), %rsi
Ltmp2399:
	.loc	25 855 29
	movl	$4128, %edx
	movq	%r15, %rdi
	callq	_memcpy
Ltmp2400:
	.loc	41 55 13 is_stmt 1
	movq	$0, 4160(%rbx)
	xorl	%eax, %eax
Ltmp2401:
LBB99_8:
	.loc	41 70 9
	addq	$8, %rax
	jb	LBB99_16
Ltmp2402:
	movq	%rax, 4160(%rbx)
Ltmp2403:
	.loc	5 204 12
	movq	24(%rbx), %rax
	testq	%rax, %rax
	.loc	5 204 9 is_stmt 0
	jne	LBB99_12
Ltmp2404:
Ltmp2379:
	.loc	5 206 13 is_stmt 1
	movq	%r15, %rdi
	callq	__ZN4rand4prng7isaac6410Isaac64Rng7isaac6417h031b9767eba83f18E
Ltmp2380:
Ltmp2405:
	.loc	5 208 9
	movq	(%r15), %rax
Ltmp2406:
LBB99_12:
	subq	$1, %rax
	jb	LBB99_15
Ltmp2407:
	movq	%rax, (%r15)
	.loc	5 212 23
	cmpq	$256, %rax
	.loc	5 212 9 is_stmt 0
	jae	LBB99_14
Ltmp2408:
	.loc	5 213 18 is_stmt 1
	movzbl	%al, %eax
	.loc	5 213 9 is_stmt 0
	movq	8(%r15,%rax,8), %rax
Ltmp2409:
	.loc	14 2058 5 is_stmt 1
	incq	(%r14)
Ltmp2410:
	.loc	25 909 6
	addq	$4216, %rsp
	popq	%rbx
	popq	%r14
	popq	%r15
Ltmp2411:
	popq	%rbp
	retq
Ltmp2412:
LBB99_20:
	.loc	10 963 23
	leaq	L___unnamed_114(%rip), %rdi
Ltmp2413:
	leaq	l___unnamed_5(%rip), %rcx
	leaq	l___unnamed_115(%rip), %r8
	leaq	-4240(%rbp), %rdx
	movl	$16, %esi
	callq	__ZN4core6result13unwrap_failed17hb5a510096a5fc85fE
Ltmp2414:
LBB99_16:
Ltmp2385:
	.loc	41 70 9
	leaq	_str.3(%rip), %rdi
	leaq	l___unnamed_120(%rip), %rdx
	movl	$28, %esi
	callq	__ZN4core9panicking5panic17h736ee47a631475c0E
Ltmp2386:
	jmp	LBB99_5
Ltmp2415:
LBB99_15:
Ltmp2383:
	.loc	5 208 9
	leaq	_str.4(%rip), %rdi
	leaq	l___unnamed_117(%rip), %rdx
	movl	$33, %esi
	callq	__ZN4core9panicking5panic17h736ee47a631475c0E
Ltmp2384:
	jmp	LBB99_5
Ltmp2416:
LBB99_14:
Ltmp2381:
	.loc	5 212 9
	leaq	l___unnamed_118(%rip), %rdi
	leaq	l___unnamed_119(%rip), %rdx
	movl	$41, %esi
	callq	__ZN3std9panicking11begin_panic17hd4d4c819dff90bc2E
Ltmp2382:
	jmp	LBB99_5
Ltmp2417:
LBB99_4:
	.loc	25 856 17
	movq	-4232(%rbp), %rax
	movq	-4224(%rbp), %rcx
	movq	%rcx, -32(%rbp)
	movq	%rax, -40(%rbp)
	leaq	-40(%rbp), %rax
Ltmp2418:
	.loc	25 856 23 is_stmt 0
	movq	%rax, -56(%rbp)
	movq	__ZN60_$LT$std..io..error..Error$u20$as$u20$core..fmt..Display$GT$3fmt17hd5a23906ccc4fffdE@GOTPCREL(%rip), %rax
	movq	%rax, -48(%rbp)
Ltmp2419:
	.loc	28 328 9 is_stmt 1
	leaq	l___unnamed_26(%rip), %rax
Ltmp2420:
	movq	%rax, -104(%rbp)
	movq	$1, -96(%rbp)
	movq	$0, -88(%rbp)
	leaq	-56(%rbp), %rax
Ltmp2421:
	movq	%rax, -72(%rbp)
	movq	$1, -64(%rbp)
Ltmp2422:
Ltmp2374:
	.loc	25 856 23
	leaq	l___unnamed_113(%rip), %rsi
	leaq	-104(%rbp), %rdi
	callq	__ZN3std9panicking15begin_panic_fmt17h2e6dba6f5c07d155E
Ltmp2375:
Ltmp2423:
LBB99_5:
	.loc	25 0 23 is_stmt 0
	ud2
Ltmp2424:
LBB99_6:
Ltmp2376:
	movq	%rax, %rbx
Ltmp2425:
Ltmp2377:
	leaq	-40(%rbp), %rdi
	.loc	25 856 60
	callq	__ZN4core3ptr13drop_in_place17hb68b0ab62809349bE
Ltmp2378:
	jmp	LBB99_19
Ltmp2426:
LBB99_18:
Ltmp2387:
	.loc	25 0 60
	movq	%rax, %rbx
Ltmp2427:
LBB99_19:
	.loc	25 909 5 is_stmt 1
	movq	%r14, %rdi
	callq	__ZN4core3ptr13drop_in_place17hcc7d513641292a43E
	movq	%rbx, %rdi
	callq	__Unwind_Resume
	ud2
Ltmp2428:
Lfunc_end99:
	.cfi_endproc
	.section	__TEXT,__gcc_except_tab
	.p2align	2
GCC_except_table99:
Lexception11:
	.byte	255
	.byte	255
	.byte	1
	.uleb128 Lcst_end11-Lcst_begin11
Lcst_begin11:
	.uleb128 Lfunc_begin99-Lfunc_begin99
	.uleb128 Ltmp2372-Lfunc_begin99
	.byte	0
	.byte	0
	.uleb128 Ltmp2372-Lfunc_begin99
	.uleb128 Ltmp2373-Ltmp2372
	.uleb128 Ltmp2387-Lfunc_begin99
	.byte	0
	.uleb128 Ltmp2373-Lfunc_begin99
	.uleb128 Ltmp2379-Ltmp2373
	.byte	0
	.byte	0
	.uleb128 Ltmp2379-Lfunc_begin99
	.uleb128 Ltmp2380-Ltmp2379
	.uleb128 Ltmp2387-Lfunc_begin99
	.byte	0
	.uleb128 Ltmp2380-Lfunc_begin99
	.uleb128 Ltmp2385-Ltmp2380
	.byte	0
	.byte	0
	.uleb128 Ltmp2385-Lfunc_begin99
	.uleb128 Ltmp2382-Ltmp2385
	.uleb128 Ltmp2387-Lfunc_begin99
	.byte	0
	.uleb128 Ltmp2374-Lfunc_begin99
	.uleb128 Ltmp2375-Ltmp2374
	.uleb128 Ltmp2376-Lfunc_begin99
	.byte	0
	.uleb128 Ltmp2377-Lfunc_begin99
	.uleb128 Ltmp2378-Ltmp2377
	.uleb128 Ltmp2387-Lfunc_begin99
	.byte	0
	.uleb128 Ltmp2378-Lfunc_begin99
	.uleb128 Lfunc_end99-Ltmp2378
	.byte	0
	.byte	0
Lcst_end11:
	.p2align	2

	.section	__TEXT,__text,regular,pure_instructions
	.globl	__ZN63_$LT$f32$u20$as$u20$rand..distributions..range..SampleRange$GT$15construct_range17hd947d01cea582584E
	.p2align	4, 0x90
__ZN63_$LT$f32$u20$as$u20$rand..distributions..range..SampleRange$GT$15construct_range17hd947d01cea582584E:
Lfunc_begin100:
	.file	58 "/Users/yingyuhang/.cargo/registry/src/github.com-1ecc6299db9ec823/rand-0.4.6/src/distributions/range.rs"
	.loc	58 153 0
	.cfi_startproc
	pushq	%rbp
	.cfi_def_cfa_offset 16
	.cfi_offset %rbp, -16
	movq	%rsp, %rbp
	.cfi_def_cfa_register %rbp
	movq	%rdi, %rax
Ltmp2429:
	.loc	58 156 28 prologue_end
	subss	%xmm0, %xmm1
Ltmp2430:
	.loc	58 154 17
	movss	%xmm0, (%rdi)
	movss	%xmm1, 4(%rdi)
	movl	$0, 8(%rdi)
	.loc	58 159 14
	popq	%rbp
	retq
Ltmp2431:
Lfunc_end100:
	.cfi_endproc

	.globl	__ZN63_$LT$f64$u20$as$u20$rand..distributions..range..SampleRange$GT$15construct_range17h39a8aba9b15e6c2bE
	.p2align	4, 0x90
__ZN63_$LT$f64$u20$as$u20$rand..distributions..range..SampleRange$GT$15construct_range17h39a8aba9b15e6c2bE:
Lfunc_begin101:
	.loc	58 153 0
	.cfi_startproc
	pushq	%rbp
	.cfi_def_cfa_offset 16
	.cfi_offset %rbp, -16
	movq	%rsp, %rbp
	.cfi_def_cfa_register %rbp
	movq	%rdi, %rax
Ltmp2432:
	.loc	58 156 28 prologue_end
	subsd	%xmm0, %xmm1
Ltmp2433:
	.loc	58 154 17
	movsd	%xmm0, (%rdi)
	movsd	%xmm1, 8(%rdi)
	movq	$0, 16(%rdi)
	.loc	58 159 14
	popq	%rbp
	retq
Ltmp2434:
Lfunc_end101:
	.cfi_endproc

	.globl	__ZN70_$LT$rand..distributions..gamma..Gamma$u20$as$u20$core..fmt..Debug$GT$3fmt17hc7bf6c02a6073a8eE
	.p2align	4, 0x90
__ZN70_$LT$rand..distributions..gamma..Gamma$u20$as$u20$core..fmt..Debug$GT$3fmt17hc7bf6c02a6073a8eE:
Lfunc_begin102:
	.loc	33 52 0
	.cfi_startproc
	pushq	%rbp
	.cfi_def_cfa_offset 16
	.cfi_offset %rbp, -16
	movq	%rsp, %rbp
	.cfi_def_cfa_register %rbp
	pushq	%r14
	pushq	%rbx
	subq	$32, %rsp
	.cfi_offset %rbx, -32
	.cfi_offset %r14, -24
	movq	%rdi, %rbx
Ltmp2435:
	.loc	33 52 23 prologue_end
	leaq	l___unnamed_37(%rip), %rdx
	leaq	-40(%rbp), %r14
	movl	$5, %ecx
	movq	%r14, %rdi
	callq	__ZN4core3fmt9Formatter12debug_struct17h985c0158d1fc7193E
Ltmp2436:
	.loc	33 54 5
	movq	%rbx, -24(%rbp)
	.loc	33 52 23
	leaq	L___unnamed_38(%rip), %rsi
	leaq	l___unnamed_10(%rip), %r8
	leaq	-24(%rbp), %rcx
	movl	$4, %edx
	movq	%r14, %rdi
	callq	__ZN4core3fmt8builders11DebugStruct5field17h9c15dc155278eed2E
	movq	%r14, %rdi
	callq	__ZN4core3fmt8builders11DebugStruct6finish17h26808393f3fed630E
Ltmp2437:
	.loc	33 52 28 is_stmt 0
	addq	$32, %rsp
	popq	%rbx
Ltmp2438:
	popq	%r14
	popq	%rbp
	retq
Ltmp2439:
Lfunc_end102:
	.cfi_endproc

	.globl	__ZN74_$LT$rand..distributions..gamma..GammaRepr$u20$as$u20$core..fmt..Debug$GT$3fmt17h82b080e6be8bc08bE
	.p2align	4, 0x90
__ZN74_$LT$rand..distributions..gamma..GammaRepr$u20$as$u20$core..fmt..Debug$GT$3fmt17h82b080e6be8bc08bE:
Lfunc_begin103:
	.loc	33 57 0 is_stmt 1
	.cfi_startproc
	pushq	%rbp
	.cfi_def_cfa_offset 16
	.cfi_offset %rbp, -16
	movq	%rsp, %rbp
	.cfi_def_cfa_register %rbp
	pushq	%r14
	pushq	%rbx
	subq	$32, %rsp
	.cfi_offset %rbx, -32
	.cfi_offset %r14, -24
	movq	%rdi, %rbx
Ltmp2440:
	.loc	33 57 23 prologue_end
	movq	(%rdi), %rax
	.loc	33 59 11
	addq	$8, %rbx
Ltmp2441:
	.loc	33 0 11 is_stmt 0
	leaq	-48(%rbp), %r14
Ltmp2442:
	.loc	33 57 23 is_stmt 1
	testq	%rax, %rax
	je	LBB103_3
Ltmp2443:
	cmpq	$1, %rax
	je	LBB103_4
Ltmp2444:
	.loc	33 57 23 is_stmt 0
	leaq	l___unnamed_121(%rip), %rdx
	movl	$5, %ecx
	movq	%r14, %rdi
	callq	__ZN4core3fmt9Formatter11debug_tuple17h15ca25ad759edd1cE
Ltmp2445:
	.loc	33 0 23
	leaq	-24(%rbp), %rsi
Ltmp2446:
	.loc	33 61 11 is_stmt 1
	movq	%rbx, -24(%rbp)
	.loc	33 57 23
	leaq	l___unnamed_11(%rip), %rdx
	jmp	LBB103_5
Ltmp2447:
LBB103_3:
	.loc	33 57 23 is_stmt 0
	leaq	l___unnamed_122(%rip), %rdx
	movl	$5, %ecx
	movq	%r14, %rdi
	callq	__ZN4core3fmt9Formatter11debug_tuple17h15ca25ad759edd1cE
Ltmp2448:
	.loc	33 0 23
	leaq	-24(%rbp), %rsi
Ltmp2449:
	.loc	33 59 11 is_stmt 1
	movq	%rbx, -24(%rbp)
	.loc	33 57 23
	leaq	l___unnamed_13(%rip), %rdx
	jmp	LBB103_5
Ltmp2450:
LBB103_4:
	.loc	33 57 23 is_stmt 0
	leaq	l___unnamed_123(%rip), %rdx
	movl	$3, %ecx
	movq	%r14, %rdi
	callq	__ZN4core3fmt9Formatter11debug_tuple17h15ca25ad759edd1cE
Ltmp2451:
	.loc	33 0 23
	leaq	-24(%rbp), %rsi
Ltmp2452:
	.loc	33 60 9 is_stmt 1
	movq	%rbx, -24(%rbp)
	.loc	33 57 23
	leaq	l___unnamed_12(%rip), %rdx
Ltmp2453:
LBB103_5:
	.loc	33 0 0 is_stmt 0
	movq	%r14, %rdi
	callq	__ZN4core3fmt8builders10DebugTuple5field17hf36121153a94f236E
	movq	%r14, %rdi
	callq	__ZN4core3fmt8builders10DebugTuple6finish17h68acf09c6f6593f2E
	.loc	33 57 28
	addq	$32, %rsp
	popq	%rbx
	popq	%r14
	popq	%rbp
	retq
Ltmp2454:
Lfunc_end103:
	.cfi_endproc

	.globl	__ZN80_$LT$rand..distributions..gamma..GammaSmallShape$u20$as$u20$core..fmt..Debug$GT$3fmt17hdcc2ae0ad1151269E
	.p2align	4, 0x90
__ZN80_$LT$rand..distributions..gamma..GammaSmallShape$u20$as$u20$core..fmt..Debug$GT$3fmt17hdcc2ae0ad1151269E:
Lfunc_begin104:
	.loc	33 78 0 is_stmt 1
	.cfi_startproc
	pushq	%rbp
	.cfi_def_cfa_offset 16
	.cfi_offset %rbp, -16
	movq	%rsp, %rbp
	.cfi_def_cfa_register %rbp
	pushq	%r14
	pushq	%rbx
	subq	$32, %rsp
	.cfi_offset %rbx, -32
	.cfi_offset %r14, -24
	movq	%rdi, %rbx
Ltmp2455:
	.loc	33 78 23 prologue_end
	leaq	l___unnamed_30(%rip), %rdx
	leaq	-40(%rbp), %r14
	movl	$15, %ecx
	movq	%r14, %rdi
	callq	__ZN4core3fmt9Formatter12debug_struct17h985c0158d1fc7193E
Ltmp2456:
	.loc	33 80 5
	movq	%rbx, -24(%rbp)
Ltmp2457:
	.loc	33 81 5
	addq	$8, %rbx
Ltmp2458:
	.loc	33 78 23
	leaq	l___unnamed_31(%rip), %rsi
	leaq	l___unnamed_14(%rip), %r8
	leaq	-24(%rbp), %rcx
	movl	$9, %edx
	movq	%r14, %rdi
	callq	__ZN4core3fmt8builders11DebugStruct5field17h9c15dc155278eed2E
	.loc	33 81 5
	movq	%rbx, -24(%rbp)
	.loc	33 78 23
	leaq	l___unnamed_32(%rip), %rsi
	leaq	l___unnamed_13(%rip), %r8
	leaq	-24(%rbp), %rcx
	movl	$11, %edx
	movq	%r14, %rdi
	callq	__ZN4core3fmt8builders11DebugStruct5field17h9c15dc155278eed2E
	movq	%r14, %rdi
	callq	__ZN4core3fmt8builders11DebugStruct6finish17h26808393f3fed630E
Ltmp2459:
	.loc	33 78 28 is_stmt 0
	addq	$32, %rsp
	popq	%rbx
	popq	%r14
	popq	%rbp
	retq
Ltmp2460:
Lfunc_end104:
	.cfi_endproc

	.globl	__ZN80_$LT$rand..distributions..gamma..GammaLargeShape$u20$as$u20$core..fmt..Debug$GT$3fmt17h245fde8d2aec22b5E
	.p2align	4, 0x90
__ZN80_$LT$rand..distributions..gamma..GammaLargeShape$u20$as$u20$core..fmt..Debug$GT$3fmt17h245fde8d2aec22b5E:
Lfunc_begin105:
	.loc	33 88 0 is_stmt 1
	.cfi_startproc
	pushq	%rbp
	.cfi_def_cfa_offset 16
	.cfi_offset %rbp, -16
	movq	%rsp, %rbp
	.cfi_def_cfa_register %rbp
	pushq	%r15
	pushq	%r14
	pushq	%r12
	pushq	%rbx
	subq	$32, %rsp
	.cfi_offset %rbx, -48
	.cfi_offset %r12, -40
	.cfi_offset %r14, -32
	.cfi_offset %r15, -24
	movq	%rdi, %rbx
Ltmp2461:
	.loc	33 88 23 prologue_end
	leaq	l___unnamed_33(%rip), %rdx
	leaq	-56(%rbp), %r14
	movl	$15, %ecx
	movq	%r14, %rdi
	callq	__ZN4core3fmt9Formatter12debug_struct17h985c0158d1fc7193E
Ltmp2462:
	.loc	33 90 5
	movq	%rbx, -40(%rbp)
Ltmp2463:
	.loc	33 91 5
	leaq	8(%rbx), %r15
	.loc	33 92 5
	addq	$16, %rbx
Ltmp2464:
	.loc	33 88 23
	leaq	l___unnamed_34(%rip), %rsi
	leaq	l___unnamed_14(%rip), %r12
	leaq	-40(%rbp), %rcx
	movl	$5, %edx
	movq	%r14, %rdi
	movq	%r12, %r8
	callq	__ZN4core3fmt8builders11DebugStruct5field17h9c15dc155278eed2E
	.loc	33 91 5
	movq	%r15, -40(%rbp)
	.loc	33 88 23
	leaq	l___unnamed_35(%rip), %rsi
	leaq	-40(%rbp), %rcx
	movl	$1, %edx
	movq	%r14, %rdi
	movq	%r12, %r8
	callq	__ZN4core3fmt8builders11DebugStruct5field17h9c15dc155278eed2E
	.loc	33 92 5
	movq	%rbx, -40(%rbp)
	.loc	33 88 23
	leaq	l___unnamed_36(%rip), %rsi
	leaq	-40(%rbp), %rcx
	movl	$1, %edx
	movq	%r14, %rdi
	movq	%r12, %r8
	callq	__ZN4core3fmt8builders11DebugStruct5field17h9c15dc155278eed2E
	movq	%r14, %rdi
	callq	__ZN4core3fmt8builders11DebugStruct6finish17h26808393f3fed630E
Ltmp2465:
	.loc	33 88 28 is_stmt 0
	addq	$32, %rsp
	popq	%rbx
	popq	%r12
	popq	%r14
	popq	%r15
	popq	%rbp
	retq
Ltmp2466:
Lfunc_end105:
	.cfi_endproc

	.globl	__ZN75_$LT$rand..distributions..gamma..ChiSquared$u20$as$u20$core..fmt..Debug$GT$3fmt17h97491246ee608d38E
	.p2align	4, 0x90
__ZN75_$LT$rand..distributions..gamma..ChiSquared$u20$as$u20$core..fmt..Debug$GT$3fmt17h97491246ee608d38E:
Lfunc_begin106:
	.loc	33 200 0 is_stmt 1
	.cfi_startproc
	pushq	%rbp
	.cfi_def_cfa_offset 16
	.cfi_offset %rbp, -16
	movq	%rsp, %rbp
	.cfi_def_cfa_register %rbp
	pushq	%r14
	pushq	%rbx
	subq	$32, %rsp
	.cfi_offset %rbx, -32
	.cfi_offset %r14, -24
	movq	%rdi, %rbx
Ltmp2467:
	.loc	33 200 23 prologue_end
	leaq	l___unnamed_39(%rip), %rdx
	leaq	-40(%rbp), %r14
	movl	$10, %ecx
	movq	%r14, %rdi
	callq	__ZN4core3fmt9Formatter12debug_struct17h985c0158d1fc7193E
Ltmp2468:
	.loc	33 202 5
	movq	%rbx, -24(%rbp)
	.loc	33 200 23
	leaq	L___unnamed_38(%rip), %rsi
	leaq	l___unnamed_15(%rip), %r8
	leaq	-24(%rbp), %rcx
	movl	$4, %edx
	movq	%r14, %rdi
	callq	__ZN4core3fmt8builders11DebugStruct5field17h9c15dc155278eed2E
	movq	%r14, %rdi
	callq	__ZN4core3fmt8builders11DebugStruct6finish17h26808393f3fed630E
Ltmp2469:
	.loc	33 200 28 is_stmt 0
	addq	$32, %rsp
	popq	%rbx
Ltmp2470:
	popq	%r14
	popq	%rbp
	retq
Ltmp2471:
Lfunc_end106:
	.cfi_endproc

	.globl	__ZN79_$LT$rand..distributions..gamma..ChiSquaredRepr$u20$as$u20$core..fmt..Debug$GT$3fmt17h8567e3e1ee971cb9E
	.p2align	4, 0x90
__ZN79_$LT$rand..distributions..gamma..ChiSquaredRepr$u20$as$u20$core..fmt..Debug$GT$3fmt17h8567e3e1ee971cb9E:
Lfunc_begin107:
	.loc	33 205 0 is_stmt 1
	.cfi_startproc
	pushq	%rbp
	.cfi_def_cfa_offset 16
	.cfi_offset %rbp, -16
	movq	%rsp, %rbp
	.cfi_def_cfa_register %rbp
Ltmp2472:
	pushq	%r14
	pushq	%rbx
	subq	$32, %rsp
	.cfi_offset %rbx, -32
	.cfi_offset %r14, -24
	.loc	33 205 23 prologue_end
	cmpq	$3, (%rdi)
	jne	LBB107_1
Ltmp2473:
	.loc	33 0 23 is_stmt 0
	leaq	-48(%rbp), %r14
Ltmp2474:
	.loc	33 205 23
	leaq	l___unnamed_28(%rip), %rdx
	movl	$13, %ecx
	movq	%r14, %rdi
Ltmp2475:
	callq	__ZN4core3fmt9Formatter11debug_tuple17h15ca25ad759edd1cE
Ltmp2476:
	.loc	33 0 23
	jmp	LBB107_3
Ltmp2477:
LBB107_1:
	movq	%rdi, %rbx
Ltmp2478:
	leaq	-48(%rbp), %r14
Ltmp2479:
	.loc	33 205 23
	leaq	l___unnamed_29(%rip), %rdx
	movl	$15, %ecx
	movq	%r14, %rdi
	callq	__ZN4core3fmt9Formatter11debug_tuple17h15ca25ad759edd1cE
Ltmp2480:
	.loc	33 211 21 is_stmt 1
	movq	%rbx, -24(%rbp)
	.loc	33 205 23
	leaq	l___unnamed_16(%rip), %rdx
	leaq	-24(%rbp), %rsi
	movq	%r14, %rdi
	callq	__ZN4core3fmt8builders10DebugTuple5field17hf36121153a94f236E
Ltmp2481:
LBB107_3:
	.loc	33 0 0 is_stmt 0
	movq	%r14, %rdi
	callq	__ZN4core3fmt8builders10DebugTuple6finish17h68acf09c6f6593f2E
	.loc	33 205 28
	addq	$32, %rsp
	popq	%rbx
	popq	%r14
	popq	%rbp
	retq
Ltmp2482:
Lfunc_end107:
	.cfi_endproc

	.globl	__ZN72_$LT$rand..distributions..gamma..FisherF$u20$as$u20$core..fmt..Debug$GT$3fmt17h3d27d83abb27cc3dE
	.p2align	4, 0x90
__ZN72_$LT$rand..distributions..gamma..FisherF$u20$as$u20$core..fmt..Debug$GT$3fmt17h3d27d83abb27cc3dE:
Lfunc_begin108:
	.loc	33 258 0 is_stmt 1
	.cfi_startproc
	pushq	%rbp
	.cfi_def_cfa_offset 16
	.cfi_offset %rbp, -16
	movq	%rsp, %rbp
	.cfi_def_cfa_register %rbp
	pushq	%r15
	pushq	%r14
	pushq	%r12
	pushq	%rbx
	subq	$32, %rsp
	.cfi_offset %rbx, -48
	.cfi_offset %r12, -40
	.cfi_offset %r14, -32
	.cfi_offset %r15, -24
	movq	%rdi, %rbx
Ltmp2483:
	.loc	33 258 23 prologue_end
	leaq	l___unnamed_124(%rip), %rdx
	leaq	-56(%rbp), %r14
	movl	$7, %ecx
	movq	%r14, %rdi
	callq	__ZN4core3fmt9Formatter12debug_struct17h985c0158d1fc7193E
Ltmp2484:
	.loc	33 260 5
	movq	%rbx, -40(%rbp)
Ltmp2485:
	.loc	33 261 5
	leaq	40(%rbx), %r15
	.loc	33 264 5
	addq	$80, %rbx
Ltmp2486:
	.loc	33 258 23
	leaq	l___unnamed_125(%rip), %rsi
	leaq	l___unnamed_17(%rip), %r12
	leaq	-40(%rbp), %rcx
	movl	$5, %edx
	movq	%r14, %rdi
	movq	%r12, %r8
	callq	__ZN4core3fmt8builders11DebugStruct5field17h9c15dc155278eed2E
	.loc	33 261 5
	movq	%r15, -40(%rbp)
	.loc	33 258 23
	leaq	l___unnamed_126(%rip), %rsi
	leaq	-40(%rbp), %rcx
	movl	$5, %edx
	movq	%r14, %rdi
	movq	%r12, %r8
	callq	__ZN4core3fmt8builders11DebugStruct5field17h9c15dc155278eed2E
	.loc	33 264 5
	movq	%rbx, -40(%rbp)
	.loc	33 258 23
	leaq	l___unnamed_127(%rip), %rsi
	leaq	l___unnamed_14(%rip), %r8
	leaq	-40(%rbp), %rcx
	movl	$9, %edx
	movq	%r14, %rdi
	callq	__ZN4core3fmt8builders11DebugStruct5field17h9c15dc155278eed2E
	movq	%r14, %rdi
	callq	__ZN4core3fmt8builders11DebugStruct6finish17h26808393f3fed630E
Ltmp2487:
	.loc	33 258 28 is_stmt 0
	addq	$32, %rsp
	popq	%rbx
	popq	%r12
	popq	%r14
	popq	%r15
	popq	%rbp
	retq
Ltmp2488:
Lfunc_end108:
	.cfi_endproc

	.globl	__ZN73_$LT$rand..distributions..gamma..StudentT$u20$as$u20$core..fmt..Debug$GT$3fmt17h1006b88716c0c111E
	.p2align	4, 0x90
__ZN73_$LT$rand..distributions..gamma..StudentT$u20$as$u20$core..fmt..Debug$GT$3fmt17h1006b88716c0c111E:
Lfunc_begin109:
	.loc	33 302 0 is_stmt 1
	.cfi_startproc
	pushq	%rbp
	.cfi_def_cfa_offset 16
	.cfi_offset %rbp, -16
	movq	%rsp, %rbp
	.cfi_def_cfa_register %rbp
	pushq	%r14
	pushq	%rbx
	subq	$32, %rsp
	.cfi_offset %rbx, -32
	.cfi_offset %r14, -24
	movq	%rdi, %rbx
Ltmp2489:
	.loc	33 302 23 prologue_end
	leaq	L___unnamed_128(%rip), %rdx
	leaq	-40(%rbp), %r14
	movl	$8, %ecx
	movq	%r14, %rdi
	callq	__ZN4core3fmt9Formatter12debug_struct17h985c0158d1fc7193E
Ltmp2490:
	.loc	33 304 5
	movq	%rbx, -24(%rbp)
Ltmp2491:
	.loc	33 305 5
	addq	$40, %rbx
Ltmp2492:
	.loc	33 302 23
	leaq	l___unnamed_129(%rip), %rsi
	leaq	l___unnamed_17(%rip), %r8
	leaq	-24(%rbp), %rcx
	movl	$3, %edx
	movq	%r14, %rdi
	callq	__ZN4core3fmt8builders11DebugStruct5field17h9c15dc155278eed2E
	.loc	33 305 5
	movq	%rbx, -24(%rbp)
	.loc	33 302 23
	leaq	l___unnamed_130(%rip), %rsi
	leaq	l___unnamed_14(%rip), %r8
	leaq	-24(%rbp), %rcx
	movl	$3, %edx
	movq	%r14, %rdi
	callq	__ZN4core3fmt8builders11DebugStruct5field17h9c15dc155278eed2E
	movq	%r14, %rdi
	callq	__ZN4core3fmt8builders11DebugStruct6finish17h26808393f3fed630E
Ltmp2493:
	.loc	33 302 28 is_stmt 0
	addq	$32, %rsp
	popq	%rbx
	popq	%r14
	popq	%rbp
	retq
Ltmp2494:
Lfunc_end109:
	.cfi_endproc

	.globl	__ZN80_$LT$rand..distributions..normal..StandardNormal$u20$as$u20$core..fmt..Debug$GT$3fmt17h3677a285261e7938E
	.p2align	4, 0x90
__ZN80_$LT$rand..distributions..normal..StandardNormal$u20$as$u20$core..fmt..Debug$GT$3fmt17h3677a285261e7938E:
Lfunc_begin110:
	.loc	36 36 0 is_stmt 1
	.cfi_startproc
	pushq	%rbp
	.cfi_def_cfa_offset 16
	.cfi_offset %rbp, -16
	movq	%rsp, %rbp
	.cfi_def_cfa_register %rbp
	pushq	%r14
	pushq	%rbx
	subq	$32, %rsp
	.cfi_offset %rbx, -32
	.cfi_offset %r14, -24
	movq	%rdi, %rbx
Ltmp2495:
	.loc	36 36 23 prologue_end
	leaq	l___unnamed_131(%rip), %rdx
	leaq	-48(%rbp), %r14
	movl	$14, %ecx
	movq	%r14, %rdi
	callq	__ZN4core3fmt9Formatter11debug_tuple17h15ca25ad759edd1cE
Ltmp2496:
	.loc	36 37 27
	movq	%rbx, -24(%rbp)
	.loc	36 36 23
	leaq	l___unnamed_14(%rip), %rdx
	leaq	-24(%rbp), %rsi
	movq	%r14, %rdi
	callq	__ZN4core3fmt8builders10DebugTuple5field17hf36121153a94f236E
	movq	%r14, %rdi
	callq	__ZN4core3fmt8builders10DebugTuple6finish17h68acf09c6f6593f2E
Ltmp2497:
	.loc	36 36 28 is_stmt 0
	addq	$32, %rsp
	popq	%rbx
Ltmp2498:
	popq	%r14
	popq	%rbp
	retq
Ltmp2499:
Lfunc_end110:
	.cfi_endproc

	.globl	__ZN72_$LT$rand..distributions..normal..Normal$u20$as$u20$core..fmt..Debug$GT$3fmt17haab8383a2c3e2772E
	.p2align	4, 0x90
__ZN72_$LT$rand..distributions..normal..Normal$u20$as$u20$core..fmt..Debug$GT$3fmt17haab8383a2c3e2772E:
Lfunc_begin111:
	.loc	36 91 0 is_stmt 1
	.cfi_startproc
	pushq	%rbp
	.cfi_def_cfa_offset 16
	.cfi_offset %rbp, -16
	movq	%rsp, %rbp
	.cfi_def_cfa_register %rbp
	pushq	%r15
	pushq	%r14
	pushq	%rbx
	subq	$24, %rsp
	.cfi_offset %rbx, -40
	.cfi_offset %r14, -32
	.cfi_offset %r15, -24
	movq	%rdi, %rbx
Ltmp2500:
	.loc	36 91 23 prologue_end
	leaq	l___unnamed_42(%rip), %rdx
	leaq	-48(%rbp), %r14
	movl	$6, %ecx
	movq	%r14, %rdi
	callq	__ZN4core3fmt9Formatter12debug_struct17h985c0158d1fc7193E
Ltmp2501:
	.loc	36 93 5
	movq	%rbx, -32(%rbp)
Ltmp2502:
	.loc	36 94 5
	addq	$8, %rbx
Ltmp2503:
	.loc	36 91 23
	leaq	L___unnamed_43(%rip), %rsi
	leaq	l___unnamed_14(%rip), %r15
	leaq	-32(%rbp), %rcx
	movl	$4, %edx
	movq	%r14, %rdi
	movq	%r15, %r8
	callq	__ZN4core3fmt8builders11DebugStruct5field17h9c15dc155278eed2E
	.loc	36 94 5
	movq	%rbx, -32(%rbp)
	.loc	36 91 23
	leaq	l___unnamed_44(%rip), %rsi
	leaq	-32(%rbp), %rcx
	movl	$7, %edx
	movq	%r14, %rdi
	movq	%r15, %r8
	callq	__ZN4core3fmt8builders11DebugStruct5field17h9c15dc155278eed2E
	movq	%r14, %rdi
	callq	__ZN4core3fmt8builders11DebugStruct6finish17h26808393f3fed630E
Ltmp2504:
	.loc	36 91 28 is_stmt 0
	addq	$24, %rsp
	popq	%rbx
	popq	%r14
	popq	%r15
	popq	%rbp
	retq
Ltmp2505:
Lfunc_end111:
	.cfi_endproc

	.globl	__ZN75_$LT$rand..distributions..normal..LogNormal$u20$as$u20$core..fmt..Debug$GT$3fmt17h00fe7a6d14179708E
	.p2align	4, 0x90
__ZN75_$LT$rand..distributions..normal..LogNormal$u20$as$u20$core..fmt..Debug$GT$3fmt17h00fe7a6d14179708E:
Lfunc_begin112:
	.loc	36 139 0 is_stmt 1
	.cfi_startproc
	pushq	%rbp
	.cfi_def_cfa_offset 16
	.cfi_offset %rbp, -16
	movq	%rsp, %rbp
	.cfi_def_cfa_register %rbp
	pushq	%r14
	pushq	%rbx
	subq	$32, %rsp
	.cfi_offset %rbx, -32
	.cfi_offset %r14, -24
	movq	%rdi, %rbx
Ltmp2506:
	.loc	36 139 23 prologue_end
	leaq	l___unnamed_132(%rip), %rdx
	leaq	-40(%rbp), %r14
	movl	$9, %ecx
	movq	%r14, %rdi
	callq	__ZN4core3fmt9Formatter12debug_struct17h985c0158d1fc7193E
Ltmp2507:
	.loc	36 141 5
	movq	%rbx, -24(%rbp)
	.loc	36 139 23
	leaq	L___unnamed_133(%rip), %rsi
	leaq	l___unnamed_18(%rip), %r8
	leaq	-24(%rbp), %rcx
	movl	$4, %edx
	movq	%r14, %rdi
	callq	__ZN4core3fmt8builders11DebugStruct5field17h9c15dc155278eed2E
	movq	%r14, %rdi
	callq	__ZN4core3fmt8builders11DebugStruct6finish17h26808393f3fed630E
Ltmp2508:
	.loc	36 139 28 is_stmt 0
	addq	$32, %rsp
	popq	%rbx
Ltmp2509:
	popq	%r14
	popq	%rbp
	retq
Ltmp2510:
Lfunc_end112:
	.cfi_endproc

	.globl	__ZN75_$LT$rand..distributions..exponential..Exp1$u20$as$u20$core..fmt..Debug$GT$3fmt17hcbbcf0d1bd11f9eeE
	.p2align	4, 0x90
__ZN75_$LT$rand..distributions..exponential..Exp1$u20$as$u20$core..fmt..Debug$GT$3fmt17hcbbcf0d1bd11f9eeE:
Lfunc_begin113:
	.loc	40 37 0 is_stmt 1
	.cfi_startproc
	pushq	%rbp
	.cfi_def_cfa_offset 16
	.cfi_offset %rbp, -16
	movq	%rsp, %rbp
	.cfi_def_cfa_register %rbp
	pushq	%r14
	pushq	%rbx
	subq	$32, %rsp
	.cfi_offset %rbx, -32
	.cfi_offset %r14, -24
	movq	%rdi, %rbx
Ltmp2511:
	.loc	40 37 23 prologue_end
	leaq	L___unnamed_134(%rip), %rdx
	leaq	-48(%rbp), %r14
	movl	$4, %ecx
	movq	%r14, %rdi
	callq	__ZN4core3fmt9Formatter11debug_tuple17h15ca25ad759edd1cE
Ltmp2512:
	.loc	40 38 17
	movq	%rbx, -24(%rbp)
	.loc	40 37 23
	leaq	l___unnamed_14(%rip), %rdx
	leaq	-24(%rbp), %rsi
	movq	%r14, %rdi
	callq	__ZN4core3fmt8builders10DebugTuple5field17hf36121153a94f236E
	movq	%r14, %rdi
	callq	__ZN4core3fmt8builders10DebugTuple6finish17h68acf09c6f6593f2E
Ltmp2513:
	.loc	40 37 28 is_stmt 0
	addq	$32, %rsp
	popq	%rbx
Ltmp2514:
	popq	%r14
	popq	%rbp
	retq
Ltmp2515:
Lfunc_end113:
	.cfi_endproc

	.globl	__ZN74_$LT$rand..distributions..exponential..Exp$u20$as$u20$core..fmt..Debug$GT$3fmt17h34d357cca8544d72E
	.p2align	4, 0x90
__ZN74_$LT$rand..distributions..exponential..Exp$u20$as$u20$core..fmt..Debug$GT$3fmt17h34d357cca8544d72E:
Lfunc_begin114:
	.loc	40 74 0 is_stmt 1
	.cfi_startproc
	pushq	%rbp
	.cfi_def_cfa_offset 16
	.cfi_offset %rbp, -16
	movq	%rsp, %rbp
	.cfi_def_cfa_register %rbp
	pushq	%r14
	pushq	%rbx
	subq	$32, %rsp
	.cfi_offset %rbx, -32
	.cfi_offset %r14, -24
	movq	%rdi, %rbx
Ltmp2516:
	.loc	40 74 23 prologue_end
	leaq	l___unnamed_47(%rip), %rdx
	leaq	-40(%rbp), %r14
	movl	$3, %ecx
	movq	%r14, %rdi
	callq	__ZN4core3fmt9Formatter12debug_struct17h985c0158d1fc7193E
Ltmp2517:
	.loc	40 77 5
	movq	%rbx, -24(%rbp)
	.loc	40 74 23
	leaq	l___unnamed_48(%rip), %rsi
	leaq	l___unnamed_14(%rip), %r8
	leaq	-24(%rbp), %rcx
	movl	$14, %edx
	movq	%r14, %rdi
	callq	__ZN4core3fmt8builders11DebugStruct5field17h9c15dc155278eed2E
	movq	%r14, %rdi
	callq	__ZN4core3fmt8builders11DebugStruct6finish17h26808393f3fed630E
Ltmp2518:
	.loc	40 74 28 is_stmt 0
	addq	$32, %rsp
	popq	%rbx
Ltmp2519:
	popq	%r14
	popq	%rbp
	retq
Ltmp2520:
Lfunc_end114:
	.cfi_endproc

	.globl	__ZN61_$LT$rand..jitter..TimerError$u20$as$u20$core..fmt..Debug$GT$3fmt17h5c2d741315fb7e15E
	.p2align	4, 0x90
__ZN61_$LT$rand..jitter..TimerError$u20$as$u20$core..fmt..Debug$GT$3fmt17h5c2d741315fb7e15E:
Lfunc_begin115:
	.loc	2 76 0 is_stmt 1
	.cfi_startproc
	pushq	%rbp
	.cfi_def_cfa_offset 16
	.cfi_offset %rbp, -16
	movq	%rsp, %rbp
	.cfi_def_cfa_register %rbp
Ltmp2521:
	pushq	%rbx
	subq	$24, %rsp
	.cfi_offset %rbx, -24
	.loc	2 76 10 prologue_end
	movzbl	(%rdi), %eax
	leaq	LJTI115_0(%rip), %rcx
	movslq	(%rcx,%rax,4), %rax
	addq	%rcx, %rax
	jmpq	*%rax
Ltmp2522:
LBB115_1:
	.loc	2 0 10 is_stmt 0
	leaq	-32(%rbp), %rbx
Ltmp2523:
	.loc	2 76 10
	leaq	l___unnamed_135(%rip), %rdx
	movl	$7, %ecx
	jmp	LBB115_9
Ltmp2524:
LBB115_2:
	.loc	2 0 10
	leaq	-32(%rbp), %rbx
Ltmp2525:
	.loc	2 76 10
	leaq	l___unnamed_136(%rip), %rdx
	movl	$11, %ecx
	jmp	LBB115_9
Ltmp2526:
LBB115_3:
	.loc	2 0 10
	leaq	-32(%rbp), %rbx
Ltmp2527:
	.loc	2 76 10
	leaq	l___unnamed_137(%rip), %rdx
	jmp	LBB115_6
Ltmp2528:
LBB115_4:
	.loc	2 0 10
	leaq	-32(%rbp), %rbx
Ltmp2529:
	.loc	2 76 10
	leaq	l___unnamed_138(%rip), %rdx
	jmp	LBB115_8
Ltmp2530:
LBB115_5:
	.loc	2 0 10
	leaq	-32(%rbp), %rbx
Ltmp2531:
	.loc	2 76 10
	leaq	l___unnamed_139(%rip), %rdx
Ltmp2532:
LBB115_6:
	movl	$12, %ecx
	jmp	LBB115_9
Ltmp2533:
LBB115_7:
	.loc	2 0 10
	leaq	-32(%rbp), %rbx
Ltmp2534:
	.loc	2 76 10
	leaq	l___unnamed_140(%rip), %rdx
Ltmp2535:
LBB115_8:
	movl	$15, %ecx
Ltmp2536:
LBB115_9:
	movq	%rbx, %rdi
Ltmp2537:
	callq	__ZN4core3fmt9Formatter11debug_tuple17h15ca25ad759edd1cE
Ltmp2538:
	.loc	2 0 0
	movq	%rbx, %rdi
	callq	__ZN4core3fmt8builders10DebugTuple6finish17h68acf09c6f6593f2E
	.loc	2 76 15
	addq	$24, %rsp
	popq	%rbx
	popq	%rbp
	retq
Ltmp2539:
Lfunc_end115:
	.cfi_endproc
	.p2align	2, 0x90
	.data_region jt32
.set L115_0_set_1, LBB115_1-LJTI115_0
.set L115_0_set_2, LBB115_2-LJTI115_0
.set L115_0_set_3, LBB115_3-LJTI115_0
.set L115_0_set_4, LBB115_4-LJTI115_0
.set L115_0_set_5, LBB115_5-LJTI115_0
.set L115_0_set_7, LBB115_7-LJTI115_0
LJTI115_0:
	.long	L115_0_set_1
	.long	L115_0_set_2
	.long	L115_0_set_3
	.long	L115_0_set_4
	.long	L115_0_set_5
	.long	L115_0_set_7
	.end_data_region

	.globl	__ZN71_$LT$rand..reseeding..ReseedWithDefault$u20$as$u20$core..fmt..Debug$GT$3fmt17h7cf3311ffe180b4aE
	.p2align	4, 0x90
__ZN71_$LT$rand..reseeding..ReseedWithDefault$u20$as$u20$core..fmt..Debug$GT$3fmt17h7cf3311ffe180b4aE:
Lfunc_begin116:
	.loc	41 136 0 is_stmt 1
	.cfi_startproc
	pushq	%rbp
	.cfi_def_cfa_offset 16
	.cfi_offset %rbp, -16
	movq	%rsp, %rbp
	.cfi_def_cfa_register %rbp
Ltmp2540:
	pushq	%rbx
	subq	$24, %rsp
	.cfi_offset %rbx, -24
Ltmp2541:
	.loc	41 136 23 prologue_end
	leaq	l___unnamed_141(%rip), %rdx
	leaq	-32(%rbp), %rbx
	movl	$17, %ecx
	movq	%rbx, %rdi
Ltmp2542:
	callq	__ZN4core3fmt9Formatter11debug_tuple17h15ca25ad759edd1cE
Ltmp2543:
	.loc	41 136 23 is_stmt 0
	movq	%rbx, %rdi
	callq	__ZN4core3fmt8builders10DebugTuple6finish17h68acf09c6f6593f2E
Ltmp2544:
	.loc	41 136 28
	addq	$24, %rsp
	popq	%rbx
	popq	%rbp
	retq
Ltmp2545:
Lfunc_end116:
	.cfi_endproc

	.globl	__ZN66_$LT$rand..prng..chacha..ChaChaRng$u20$as$u20$core..fmt..Debug$GT$3fmt17h5d715d86d516d2faE
	.p2align	4, 0x90
__ZN66_$LT$rand..prng..chacha..ChaChaRng$u20$as$u20$core..fmt..Debug$GT$3fmt17h5d715d86d516d2faE:
Lfunc_begin117:
	.loc	3 32 0 is_stmt 1
	.cfi_startproc
	pushq	%rbp
	.cfi_def_cfa_offset 16
	.cfi_offset %rbp, -16
	movq	%rsp, %rbp
	.cfi_def_cfa_register %rbp
	pushq	%r15
	pushq	%r14
	pushq	%r12
	pushq	%rbx
	subq	$32, %rsp
	.cfi_offset %rbx, -48
	.cfi_offset %r12, -40
	.cfi_offset %r14, -32
	.cfi_offset %r15, -24
	movq	%rdi, %rbx
Ltmp2546:
	.loc	3 34 5 prologue_end
	leaq	8(%rdi), %r15
Ltmp2547:
	.loc	3 35 5
	leaq	72(%rdi), %r12
Ltmp2548:
	.loc	3 32 23
	leaq	l___unnamed_142(%rip), %rdx
	leaq	-56(%rbp), %r14
	movl	$9, %ecx
	movq	%r14, %rdi
	callq	__ZN4core3fmt9Formatter12debug_struct17h985c0158d1fc7193E
Ltmp2549:
	.loc	3 34 5
	movq	%r15, -40(%rbp)
	.loc	3 32 23
	leaq	l___unnamed_143(%rip), %rsi
	leaq	l___unnamed_22(%rip), %r15
Ltmp2550:
	.loc	3 0 23 is_stmt 0
	leaq	-40(%rbp), %rcx
	.loc	3 32 23
	movl	$6, %edx
	movq	%r14, %rdi
	movq	%r15, %r8
	callq	__ZN4core3fmt8builders11DebugStruct5field17h9c15dc155278eed2E
	.loc	3 35 5 is_stmt 1
	movq	%r12, -40(%rbp)
	.loc	3 32 23
	leaq	l___unnamed_144(%rip), %rsi
	leaq	-40(%rbp), %rcx
	movl	$5, %edx
	movq	%r14, %rdi
	movq	%r15, %r8
	callq	__ZN4core3fmt8builders11DebugStruct5field17h9c15dc155278eed2E
	.loc	3 36 5
	movq	%rbx, -40(%rbp)
	.loc	3 32 23
	leaq	l___unnamed_145(%rip), %rsi
	leaq	l___unnamed_23(%rip), %r8
	leaq	-40(%rbp), %rcx
	movl	$5, %edx
	movq	%r14, %rdi
	callq	__ZN4core3fmt8builders11DebugStruct5field17h9c15dc155278eed2E
	movq	%r14, %rdi
	callq	__ZN4core3fmt8builders11DebugStruct6finish17h26808393f3fed630E
Ltmp2551:
	.loc	3 32 28 is_stmt 0
	addq	$32, %rsp
	popq	%rbx
Ltmp2552:
	popq	%r12
Ltmp2553:
	popq	%r14
	popq	%r15
	popq	%rbp
	retq
Ltmp2554:
Lfunc_end117:
	.cfi_endproc

	.globl	__ZN70_$LT$rand..prng..xorshift..XorShiftRng$u20$as$u20$core..fmt..Debug$GT$3fmt17hd5e2065729b59949E
	.p2align	4, 0x90
__ZN70_$LT$rand..prng..xorshift..XorShiftRng$u20$as$u20$core..fmt..Debug$GT$3fmt17hd5e2065729b59949E:
Lfunc_begin118:
	.loc	55 27 0 is_stmt 1
	.cfi_startproc
	pushq	%rbp
	.cfi_def_cfa_offset 16
	.cfi_offset %rbp, -16
	movq	%rsp, %rbp
	.cfi_def_cfa_register %rbp
	pushq	%r15
	pushq	%r14
	pushq	%r13
	pushq	%r12
	pushq	%rbx
	subq	$24, %rsp
	.cfi_offset %rbx, -56
	.cfi_offset %r12, -48
	.cfi_offset %r13, -40
	.cfi_offset %r14, -32
	.cfi_offset %r15, -24
	movq	%rdi, %rbx
Ltmp2555:
	.loc	55 27 17 prologue_end
	leaq	l___unnamed_146(%rip), %rdx
	leaq	-64(%rbp), %r15
	movl	$11, %ecx
	movq	%r15, %rdi
	callq	__ZN4core3fmt9Formatter12debug_struct17h985c0158d1fc7193E
Ltmp2556:
	.loc	55 29 5
	movq	%rbx, -48(%rbp)
Ltmp2557:
	.loc	55 30 5
	leaq	4(%rbx), %r12
	.loc	55 31 5
	leaq	8(%rbx), %r13
	.loc	55 32 5
	addq	$12, %rbx
Ltmp2558:
	.loc	55 27 17
	leaq	l___unnamed_147(%rip), %rsi
	leaq	l___unnamed_3(%rip), %r14
	leaq	-48(%rbp), %rcx
	movl	$1, %edx
	movq	%r15, %rdi
	movq	%r14, %r8
	callq	__ZN4core3fmt8builders11DebugStruct5field17h9c15dc155278eed2E
	.loc	55 30 5
	movq	%r12, -48(%rbp)
	.loc	55 27 17
	leaq	l___unnamed_148(%rip), %rsi
	leaq	-48(%rbp), %rcx
	movl	$1, %edx
	movq	%r15, %rdi
	movq	%r14, %r8
	callq	__ZN4core3fmt8builders11DebugStruct5field17h9c15dc155278eed2E
	.loc	55 31 5
	movq	%r13, -48(%rbp)
	.loc	55 27 17
	leaq	l___unnamed_149(%rip), %rsi
	leaq	-48(%rbp), %rcx
	movl	$1, %edx
	movq	%r15, %rdi
	movq	%r14, %r8
	callq	__ZN4core3fmt8builders11DebugStruct5field17h9c15dc155278eed2E
	.loc	55 32 5
	movq	%rbx, -48(%rbp)
	.loc	55 27 17
	leaq	l___unnamed_150(%rip), %rsi
	leaq	-48(%rbp), %rcx
	movl	$1, %edx
	movq	%r15, %rdi
	movq	%r14, %r8
	callq	__ZN4core3fmt8builders11DebugStruct5field17h9c15dc155278eed2E
	movq	%r15, %rdi
	callq	__ZN4core3fmt8builders11DebugStruct6finish17h26808393f3fed630E
Ltmp2559:
	.loc	55 27 22 is_stmt 0
	addq	$24, %rsp
	popq	%rbx
	popq	%r12
	popq	%r13
	popq	%r14
	popq	%r15
	popq	%rbp
	retq
Ltmp2560:
Lfunc_end118:
	.cfi_endproc

	.globl	__ZN49_$LT$rand..StdRng$u20$as$u20$core..fmt..Debug$GT$3fmt17h3bced9f9cea52d6cE
	.p2align	4, 0x90
__ZN49_$LT$rand..StdRng$u20$as$u20$core..fmt..Debug$GT$3fmt17h3bced9f9cea52d6cE:
Lfunc_begin119:
	.loc	25 776 0 is_stmt 1
	.cfi_startproc
	pushq	%rbp
	.cfi_def_cfa_offset 16
	.cfi_offset %rbp, -16
	movq	%rsp, %rbp
	.cfi_def_cfa_register %rbp
	pushq	%r14
	pushq	%rbx
	subq	$32, %rsp
	.cfi_offset %rbx, -32
	.cfi_offset %r14, -24
	movq	%rdi, %rbx
Ltmp2561:
	.loc	25 776 23 prologue_end
	leaq	l___unnamed_40(%rip), %rdx
	leaq	-40(%rbp), %r14
	movl	$6, %ecx
	movq	%r14, %rdi
	callq	__ZN4core3fmt9Formatter12debug_struct17h985c0158d1fc7193E
Ltmp2562:
	.loc	25 778 5
	movq	%rbx, -24(%rbp)
	.loc	25 776 23
	leaq	l___unnamed_41(%rip), %rsi
	leaq	l___unnamed_24(%rip), %r8
	leaq	-24(%rbp), %rcx
	movl	$3, %edx
	movq	%r14, %rdi
	callq	__ZN4core3fmt8builders11DebugStruct5field17h9c15dc155278eed2E
	movq	%r14, %rdi
	callq	__ZN4core3fmt8builders11DebugStruct6finish17h26808393f3fed630E
Ltmp2563:
	.loc	25 776 28 is_stmt 0
	addq	$32, %rsp
	popq	%rbx
Ltmp2564:
	popq	%r14
	popq	%rbp
	retq
Ltmp2565:
Lfunc_end119:
	.cfi_endproc

	.globl	__ZN60_$LT$rand..ThreadRngReseeder$u20$as$u20$core..fmt..Debug$GT$3fmt17h6c218786b03a1d1fE
	.p2align	4, 0x90
__ZN60_$LT$rand..ThreadRngReseeder$u20$as$u20$core..fmt..Debug$GT$3fmt17h6c218786b03a1d1fE:
Lfunc_begin120:
	.loc	25 848 0 is_stmt 1
	.cfi_startproc
	pushq	%rbp
	.cfi_def_cfa_offset 16
	.cfi_offset %rbp, -16
	movq	%rsp, %rbp
	.cfi_def_cfa_register %rbp
Ltmp2566:
	pushq	%rbx
	subq	$24, %rsp
	.cfi_offset %rbx, -24
Ltmp2567:
	.loc	25 848 10 prologue_end
	leaq	l___unnamed_51(%rip), %rdx
	leaq	-32(%rbp), %rbx
	movl	$17, %ecx
	movq	%rbx, %rdi
	callq	__ZN4core3fmt9Formatter11debug_tuple17h15ca25ad759edd1cE
Ltmp2568:
	.loc	25 848 10 is_stmt 0
	movq	%rbx, %rdi
	callq	__ZN4core3fmt8builders10DebugTuple6finish17h68acf09c6f6593f2E
Ltmp2569:
	.loc	25 848 15
	addq	$24, %rsp
	popq	%rbx
	popq	%rbp
	retq
Ltmp2570:
Lfunc_end120:
	.cfi_endproc

	.globl	__ZN52_$LT$rand..ThreadRng$u20$as$u20$core..fmt..Debug$GT$3fmt17h201aa4e018939e2aE
	.p2align	4, 0x90
__ZN52_$LT$rand..ThreadRng$u20$as$u20$core..fmt..Debug$GT$3fmt17h201aa4e018939e2aE:
Lfunc_begin121:
	.loc	25 867 0 is_stmt 1
	.cfi_startproc
	pushq	%rbp
	.cfi_def_cfa_offset 16
	.cfi_offset %rbp, -16
	movq	%rsp, %rbp
	.cfi_def_cfa_register %rbp
	pushq	%r14
	pushq	%rbx
	subq	$32, %rsp
	.cfi_offset %rbx, -32
	.cfi_offset %r14, -24
	movq	%rdi, %rbx
Ltmp2571:
	.loc	25 867 17 prologue_end
	leaq	l___unnamed_151(%rip), %rdx
	leaq	-40(%rbp), %r14
	movl	$9, %ecx
	movq	%r14, %rdi
	callq	__ZN4core3fmt9Formatter12debug_struct17h985c0158d1fc7193E
Ltmp2572:
	.loc	25 869 5
	movq	%rbx, -24(%rbp)
	.loc	25 867 17
	leaq	l___unnamed_41(%rip), %rsi
	leaq	l___unnamed_25(%rip), %r8
	leaq	-24(%rbp), %rcx
	movl	$3, %edx
	movq	%r14, %rdi
	callq	__ZN4core3fmt8builders11DebugStruct5field17h9c15dc155278eed2E
	movq	%r14, %rdi
	callq	__ZN4core3fmt8builders11DebugStruct6finish17h26808393f3fed630E
Ltmp2573:
	.loc	25 867 22 is_stmt 0
	addq	$32, %rsp
	popq	%rbx
Ltmp2574:
	popq	%r14
	popq	%rbp
	retq
Ltmp2575:
Lfunc_end121:
	.cfi_endproc

	.section	__DATA,__const
	.p2align	3
l___unnamed_1:
	.quad	__ZN4core3ptr13drop_in_place17he1c5cfe1141284c3E
	.quad	24
	.quad	8
	.quad	__ZN3std5error5Error5cause17h7cf4795066a7cc6dE
	.quad	__ZN3std5error5Error7type_id17h20abfda94fb97ff6E
	.quad	__ZN3std5error5Error9backtrace17hbf20eb4cec596450E
	.quad	__ZN243_$LT$std..error..$LT$impl$u20$core..convert..From$LT$alloc..string..String$GT$$u20$for$u20$alloc..boxed..Box$LT$dyn$u20$std..error..Error$u2b$core..marker..Sync$u2b$core..marker..Send$GT$$GT$..from..StringError$u20$as$u20$std..error..Error$GT$11description17h532dfd63416e1aedE
	.quad	__ZN3std5error5Error5cause17h7cf4795066a7cc6dE
