	.section	__TEXT,__text,regular,pure_instructions
	.macosx_version_min 10, 7
	.p2align	4, 0x90
__ZN42_$LT$$RF$T$u20$as$u20$core..fmt..Debug$GT$3fmt17h0cc47ca81b0305bfE:
Lfunc_begin0:
	.file	1 "/rustc/6c8927b0cf80ceee19386026cf9d7fd4fd9d486f/src/libcore/fmt/mod.rs"
	.loc	1 2022 0
	.cfi_startproc
	pushq	%rbp
	.cfi_def_cfa_offset 16
	.cfi_offset %rbp, -16
	movq	%rsp, %rbp
	.cfi_def_cfa_register %rbp
Ltmp0:
	pushq	%r14
	pushq	%rbx
	subq	$32, %rsp
	.cfi_offset %rbx, -32
	.cfi_offset %r14, -24
	.loc	1 2022 71 prologue_end
	movq	(%rdi), %rbx
Ltmp1:
	.file	2 "/Users/yingyuhang/.cargo/git/checkouts/rand-cc8f5b7ec2d3b6d9/dca9cb5/rand_core/src/block.rs"
	.loc	2 124 9
	leaq	L___unnamed_8(%rip), %rdx
	leaq	-40(%rbp), %r14
	movl	$8, %ecx
	movq	%r14, %rdi
Ltmp2:
	callq	__ZN4core3fmt9Formatter12debug_struct17ha1a64e91d2a98458E
Ltmp3:
	.loc	2 125 28
	leaq	264(%rbx), %rcx
	.loc	2 124 9
	leaq	L___unnamed_9(%rip), %rsi
	leaq	l___unnamed_1(%rip), %r8
	movl	$4, %edx
	movq	%r14, %rdi
	callq	__ZN4core3fmt8builders11DebugStruct5field17h6c54d35ac41bb1e6E
	.loc	2 126 35
	movq	$64, -24(%rbp)
	.loc	2 124 9
	leaq	l___unnamed_10(%rip), %rsi
	leaq	l___unnamed_2(%rip), %r14
	leaq	-24(%rbp), %rcx
	movl	$10, %edx
	movq	%rax, %rdi
	movq	%r14, %r8
	callq	__ZN4core3fmt8builders11DebugStruct5field17h6c54d35ac41bb1e6E
	leaq	l___unnamed_11(%rip), %rsi
	movl	$5, %edx
	movq	%rax, %rdi
	movq	%rbx, %rcx
	movq	%r14, %r8
	callq	__ZN4core3fmt8builders11DebugStruct5field17h6c54d35ac41bb1e6E
	movq	%rax, %rdi
	callq	__ZN4core3fmt8builders11DebugStruct6finish17h67ed49fd5e81bb24E
Ltmp4:
	.loc	1 2022 84
	addq	$32, %rsp
	popq	%rbx
Ltmp5:
	popq	%r14
	popq	%rbp
	retq
Ltmp6:
Lfunc_end0:
	.cfi_endproc

	.p2align	4, 0x90
__ZN42_$LT$$RF$T$u20$as$u20$core..fmt..Debug$GT$3fmt17h5b6cc552ceb7e69aE:
Lfunc_begin1:
	.loc	1 2022 0
	.cfi_startproc
	pushq	%rbp
	.cfi_def_cfa_offset 16
	.cfi_offset %rbp, -16
	movq	%rsp, %rbp
	.cfi_def_cfa_register %rbp
Ltmp7:
	pushq	%r14
	pushq	%rbx
	subq	$32, %rsp
	.cfi_offset %rbx, -32
	.cfi_offset %r14, -24
	.loc	1 2022 71 prologue_end
	movq	(%rdi), %rbx
Ltmp8:
	.loc	2 124 9
	leaq	L___unnamed_8(%rip), %rdx
	leaq	-40(%rbp), %r14
	movl	$8, %ecx
	movq	%r14, %rdi
Ltmp9:
	callq	__ZN4core3fmt9Formatter12debug_struct17ha1a64e91d2a98458E
Ltmp10:
	.loc	2 125 28
	leaq	264(%rbx), %rcx
	.loc	2 124 9
	leaq	L___unnamed_9(%rip), %rsi
	leaq	l___unnamed_4(%rip), %r8
	movl	$4, %edx
	movq	%r14, %rdi
	callq	__ZN4core3fmt8builders11DebugStruct5field17h6c54d35ac41bb1e6E
	.loc	2 126 35
	movq	$64, -24(%rbp)
	.loc	2 124 9
	leaq	l___unnamed_10(%rip), %rsi
	leaq	l___unnamed_2(%rip), %r14
	leaq	-24(%rbp), %rcx
	movl	$10, %edx
	movq	%rax, %rdi
	movq	%r14, %r8
	callq	__ZN4core3fmt8builders11DebugStruct5field17h6c54d35ac41bb1e6E
	leaq	l___unnamed_11(%rip), %rsi
	movl	$5, %edx
	movq	%rax, %rdi
	movq	%rbx, %rcx
	movq	%r14, %r8
	callq	__ZN4core3fmt8builders11DebugStruct5field17h6c54d35ac41bb1e6E
	movq	%rax, %rdi
	callq	__ZN4core3fmt8builders11DebugStruct6finish17h67ed49fd5e81bb24E
Ltmp11:
	.loc	1 2022 84
	addq	$32, %rsp
	popq	%rbx
Ltmp12:
	popq	%r14
	popq	%rbp
	retq
Ltmp13:
Lfunc_end1:
	.cfi_endproc

	.p2align	4, 0x90
__ZN42_$LT$$RF$T$u20$as$u20$core..fmt..Debug$GT$3fmt17h712e16e98767038cE:
Lfunc_begin2:
	.loc	1 2022 0
	.cfi_startproc
	pushq	%rbp
	.cfi_def_cfa_offset 16
	.cfi_offset %rbp, -16
	movq	%rsp, %rbp
	.cfi_def_cfa_register %rbp
	pushq	%r14
	pushq	%rbx
	.cfi_offset %rbx, -32
	.cfi_offset %r14, -24
	movq	%rsi, %rbx
Ltmp14:
	.loc	1 2022 71 prologue_end
	movq	(%rdi), %r14
Ltmp15:
	.file	3 "/rustc/6c8927b0cf80ceee19386026cf9d7fd4fd9d486f/src/libcore/fmt/num.rs"
	.loc	3 149 20
	movq	%rsi, %rdi
Ltmp16:
	callq	__ZN4core3fmt9Formatter15debug_lower_hex17hd07f6fde8d0365dfE
	.loc	3 149 17 is_stmt 0
	testb	%al, %al
	je	LBB2_1
Ltmp17:
	.loc	3 150 21 is_stmt 1
	movq	%r14, %rdi
	movq	%rbx, %rsi
	popq	%rbx
Ltmp18:
	popq	%r14
Ltmp19:
	popq	%rbp
	jmp	__ZN4core3fmt3num55_$LT$impl$u20$core..fmt..LowerHex$u20$for$u20$usize$GT$3fmt17hc47c170655f2f8b1E
LBB2_1:
Ltmp20:
	.loc	3 151 27
	movq	%rbx, %rdi
	callq	__ZN4core3fmt9Formatter15debug_upper_hex17hf480c256a9c81c1eE
	.loc	3 154 21
	movq	%r14, %rdi
	movq	%rbx, %rsi
	.loc	3 151 24
	testb	%al, %al
	je	LBB2_4
Ltmp21:
	.loc	3 152 21
	popq	%rbx
Ltmp22:
	popq	%r14
Ltmp23:
	popq	%rbp
	jmp	__ZN4core3fmt3num55_$LT$impl$u20$core..fmt..UpperHex$u20$for$u20$usize$GT$3fmt17he5a77a1ce12f6c22E
LBB2_4:
Ltmp24:
	.loc	3 154 21
	popq	%rbx
Ltmp25:
	popq	%r14
Ltmp26:
	popq	%rbp
	jmp	__ZN4core3fmt3num3imp54_$LT$impl$u20$core..fmt..Display$u20$for$u20$usize$GT$3fmt17h12ea2856299c9b06E
Ltmp27:
Lfunc_end2:
	.cfi_endproc

	.p2align	4, 0x90
__ZN42_$LT$$RF$T$u20$as$u20$core..fmt..Debug$GT$3fmt17hefc923bd42223e00E:
Lfunc_begin3:
	.loc	1 2022 0
	.cfi_startproc
	pushq	%rbp
	.cfi_def_cfa_offset 16
	.cfi_offset %rbp, -16
	movq	%rsp, %rbp
	.cfi_def_cfa_register %rbp
Ltmp28:
	pushq	%r14
	pushq	%rbx
	subq	$32, %rsp
	.cfi_offset %rbx, -32
	.cfi_offset %r14, -24
	.loc	1 2022 71 prologue_end
	movq	(%rdi), %rbx
Ltmp29:
	.loc	2 124 9
	leaq	L___unnamed_8(%rip), %rdx
	leaq	-40(%rbp), %r14
	movl	$8, %ecx
	movq	%r14, %rdi
Ltmp30:
	callq	__ZN4core3fmt9Formatter12debug_struct17ha1a64e91d2a98458E
Ltmp31:
	.loc	2 125 28
	leaq	264(%rbx), %rcx
	.loc	2 124 9
	leaq	L___unnamed_9(%rip), %rsi
	leaq	l___unnamed_3(%rip), %r8
	movl	$4, %edx
	movq	%r14, %rdi
	callq	__ZN4core3fmt8builders11DebugStruct5field17h6c54d35ac41bb1e6E
	.loc	2 126 35
	movq	$64, -24(%rbp)
	.loc	2 124 9
	leaq	l___unnamed_10(%rip), %rsi
	leaq	l___unnamed_2(%rip), %r14
	leaq	-24(%rbp), %rcx
	movl	$10, %edx
	movq	%rax, %rdi
	movq	%r14, %r8
	callq	__ZN4core3fmt8builders11DebugStruct5field17h6c54d35ac41bb1e6E
	leaq	l___unnamed_11(%rip), %rsi
	movl	$5, %edx
	movq	%rax, %rdi
	movq	%rbx, %rcx
	movq	%r14, %r8
	callq	__ZN4core3fmt8builders11DebugStruct5field17h6c54d35ac41bb1e6E
	movq	%rax, %rdi
	callq	__ZN4core3fmt8builders11DebugStruct6finish17h67ed49fd5e81bb24E
Ltmp32:
	.loc	1 2022 84
	addq	$32, %rsp
	popq	%rbx
Ltmp33:
	popq	%r14
	popq	%rbp
	retq
Ltmp34:
Lfunc_end3:
	.cfi_endproc

	.p2align	4, 0x90
__ZN4core3fmt3num52_$LT$impl$u20$core..fmt..Debug$u20$for$u20$usize$GT$3fmt17h3ce1e8eb3a3c5c0bE:
Lfunc_begin4:
	.loc	3 148 0
	.cfi_startproc
	pushq	%rbp
	.cfi_def_cfa_offset 16
	.cfi_offset %rbp, -16
	movq	%rsp, %rbp
	.cfi_def_cfa_register %rbp
	pushq	%r14
	pushq	%rbx
	.cfi_offset %rbx, -32
	.cfi_offset %r14, -24
	movq	%rsi, %rbx
	movq	%rdi, %r14
Ltmp35:
	.loc	3 149 20 prologue_end
	movq	%rsi, %rdi
	callq	__ZN4core3fmt9Formatter15debug_lower_hex17hd07f6fde8d0365dfE
	.loc	3 149 17 is_stmt 0
	testb	%al, %al
	je	LBB4_1
Ltmp36:
	.loc	3 150 21 is_stmt 1
	movq	%r14, %rdi
	movq	%rbx, %rsi
	popq	%rbx
Ltmp37:
	popq	%r14
Ltmp38:
	popq	%rbp
	jmp	__ZN4core3fmt3num55_$LT$impl$u20$core..fmt..LowerHex$u20$for$u20$usize$GT$3fmt17hc47c170655f2f8b1E
LBB4_1:
Ltmp39:
	.loc	3 151 27
	movq	%rbx, %rdi
	callq	__ZN4core3fmt9Formatter15debug_upper_hex17hf480c256a9c81c1eE
	.loc	3 154 21
	movq	%r14, %rdi
	movq	%rbx, %rsi
	.loc	3 151 24
	testb	%al, %al
	je	LBB4_4
Ltmp40:
	.loc	3 152 21
	popq	%rbx
Ltmp41:
	popq	%r14
Ltmp42:
	popq	%rbp
	jmp	__ZN4core3fmt3num55_$LT$impl$u20$core..fmt..UpperHex$u20$for$u20$usize$GT$3fmt17he5a77a1ce12f6c22E
LBB4_4:
Ltmp43:
	.loc	3 154 21
	popq	%rbx
Ltmp44:
	popq	%r14
Ltmp45:
	popq	%rbp
	jmp	__ZN4core3fmt3num3imp54_$LT$impl$u20$core..fmt..Display$u20$for$u20$usize$GT$3fmt17h12ea2856299c9b06E
Ltmp46:
Lfunc_end4:
	.cfi_endproc

	.p2align	4, 0x90
__ZN4core3ptr13drop_in_place17h00d81caf04024757E:
Lfunc_begin5:
	.file	4 "/rustc/6c8927b0cf80ceee19386026cf9d7fd4fd9d486f/src/libcore/ptr/mod.rs"
	.loc	4 184 0
	.cfi_startproc
	pushq	%rbp
	.cfi_def_cfa_offset 16
	.cfi_offset %rbp, -16
	movq	%rsp, %rbp
	.cfi_def_cfa_register %rbp
Ltmp47:
	.loc	4 184 1 prologue_end
	popq	%rbp
	retq
Ltmp48:
Lfunc_end5:
	.cfi_endproc

	.globl	__ZN11rand_chacha4guts10read_u32le17hd86f813c661891a5E
	.p2align	4, 0x90
__ZN11rand_chacha4guts10read_u32le17hd86f813c661891a5E:
Lfunc_begin6:
	.file	5 "/Users/yingyuhang/.cargo/git/checkouts/rand-cc8f5b7ec2d3b6d9/dca9cb5/rand_chacha/src/guts.rs"
	.loc	5 207 0
	.cfi_startproc
	pushq	%rbp
	.cfi_def_cfa_offset 16
	.cfi_offset %rbp, -16
	movq	%rsp, %rbp
	.cfi_def_cfa_register %rbp
	subq	$112, %rsp
Ltmp49:
	.loc	5 208 16 prologue_end
	movq	%rsi, -8(%rbp)
Ltmp50:
	.loc	5 208 5 is_stmt 0
	cmpq	$4, %rsi
Ltmp51:
	jne	LBB6_2
Ltmp52:
	.loc	5 209 5 is_stmt 1
	movl	(%rdi), %eax
	.loc	5 210 2
	addq	$112, %rsp
	popq	%rbp
	retq
Ltmp53:
LBB6_2:
	.loc	5 0 2 is_stmt 0
	leaq	-8(%rbp), %rax
Ltmp54:
	.loc	5 208 5 is_stmt 1
	movq	%rax, -16(%rbp)
	leaq	L___unnamed_12(%rip), %rax
	movq	%rax, -24(%rbp)
	leaq	-16(%rbp), %rax
Ltmp55:
	.loc	5 208 5 is_stmt 0
	movq	%rax, -56(%rbp)
	leaq	__ZN42_$LT$$RF$T$u20$as$u20$core..fmt..Debug$GT$3fmt17h712e16e98767038cE(%rip), %rax
	movq	%rax, -48(%rbp)
	leaq	-24(%rbp), %rcx
	movq	%rcx, -40(%rbp)
	movq	%rax, -32(%rbp)
Ltmp56:
	.loc	1 328 9 is_stmt 1
	leaq	l___unnamed_13(%rip), %rax
Ltmp57:
	movq	%rax, -104(%rbp)
	movq	$3, -96(%rbp)
	movq	$0, -88(%rbp)
	leaq	-56(%rbp), %rax
Ltmp58:
	movq	%rax, -72(%rbp)
	movq	$2, -64(%rbp)
Ltmp59:
	.loc	5 208 5
	leaq	l___unnamed_14(%rip), %rsi
Ltmp60:
	.loc	5 0 5 is_stmt 0
	leaq	-104(%rbp), %rdi
Ltmp61:
	.loc	5 208 5
	callq	__ZN3std9panicking15begin_panic_fmt17h8712912d987f10a1E
Ltmp62:
Lfunc_end6:
	.cfi_endproc

	.globl	__ZN69_$LT$rand_chacha..chacha..ChaCha20Rng$u20$as$u20$core..fmt..Debug$GT$3fmt17hc42464a91d72e4d7E
	.p2align	4, 0x90
__ZN69_$LT$rand_chacha..chacha..ChaCha20Rng$u20$as$u20$core..fmt..Debug$GT$3fmt17hc42464a91d72e4d7E:
Lfunc_begin7:
	.file	6 "/Users/yingyuhang/.cargo/git/checkouts/rand-cc8f5b7ec2d3b6d9/dca9cb5/rand_chacha/src/chacha.rs"
	.loc	6 148 0 is_stmt 1
	.cfi_startproc
	pushq	%rbp
	.cfi_def_cfa_offset 16
	.cfi_offset %rbp, -16
	movq	%rsp, %rbp
	.cfi_def_cfa_register %rbp
	pushq	%r14
	pushq	%rbx
	subq	$32, %rsp
	.cfi_offset %rbx, -32
	.cfi_offset %r14, -24
	movq	%rdi, %rbx
Ltmp63:
	.loc	6 148 25 prologue_end
	leaq	l___unnamed_15(%rip), %rdx
	leaq	-40(%rbp), %r14
	movl	$11, %ecx
	movq	%r14, %rdi
	callq	__ZN4core3fmt9Formatter12debug_struct17ha1a64e91d2a98458E
Ltmp64:
	.loc	6 150 13
	movq	%rbx, -24(%rbp)
	.loc	6 148 25
	leaq	l___unnamed_16(%rip), %rsi
	leaq	l___unnamed_5(%rip), %r8
	leaq	-24(%rbp), %rcx
	movl	$3, %edx
	movq	%r14, %rdi
	callq	__ZN4core3fmt8builders11DebugStruct5field17h6c54d35ac41bb1e6E
	movq	%r14, %rdi
	callq	__ZN4core3fmt8builders11DebugStruct6finish17h67ed49fd5e81bb24E
Ltmp65:
	.loc	6 148 30 is_stmt 0
	addq	$32, %rsp
	popq	%rbx
Ltmp66:
	popq	%r14
	popq	%rbp
	retq
Ltmp67:
Lfunc_end7:
	.cfi_endproc

	.globl	__ZN69_$LT$rand_chacha..chacha..ChaCha12Rng$u20$as$u20$core..fmt..Debug$GT$3fmt17hb0fec56c6d717874E
	.p2align	4, 0x90
__ZN69_$LT$rand_chacha..chacha..ChaCha12Rng$u20$as$u20$core..fmt..Debug$GT$3fmt17hb0fec56c6d717874E:
Lfunc_begin8:
	.loc	6 148 0 is_stmt 1
	.cfi_startproc
	pushq	%rbp
	.cfi_def_cfa_offset 16
	.cfi_offset %rbp, -16
	movq	%rsp, %rbp
	.cfi_def_cfa_register %rbp
	pushq	%r14
	pushq	%rbx
	subq	$32, %rsp
	.cfi_offset %rbx, -32
	.cfi_offset %r14, -24
	movq	%rdi, %rbx
Ltmp68:
	.loc	6 148 25 prologue_end
	leaq	l___unnamed_17(%rip), %rdx
	leaq	-40(%rbp), %r14
	movl	$11, %ecx
	movq	%r14, %rdi
	callq	__ZN4core3fmt9Formatter12debug_struct17ha1a64e91d2a98458E
Ltmp69:
	.loc	6 150 13
	movq	%rbx, -24(%rbp)
	.loc	6 148 25
	leaq	l___unnamed_16(%rip), %rsi
	leaq	l___unnamed_6(%rip), %r8
	leaq	-24(%rbp), %rcx
	movl	$3, %edx
	movq	%r14, %rdi
	callq	__ZN4core3fmt8builders11DebugStruct5field17h6c54d35ac41bb1e6E
	movq	%r14, %rdi
	callq	__ZN4core3fmt8builders11DebugStruct6finish17h67ed49fd5e81bb24E
Ltmp70:
	.loc	6 148 30 is_stmt 0
	addq	$32, %rsp
	popq	%rbx
Ltmp71:
	popq	%r14
	popq	%rbp
	retq
Ltmp72:
Lfunc_end8:
	.cfi_endproc

	.globl	__ZN69_$LT$rand_chacha..chacha..ChaCha8Core$u20$as$u20$core..fmt..Debug$GT$3fmt17h0066c529f3c005b6E
	.p2align	4, 0x90
__ZN69_$LT$rand_chacha..chacha..ChaCha8Core$u20$as$u20$core..fmt..Debug$GT$3fmt17h0066c529f3c005b6E:
Lfunc_begin9:
	.loc	6 80 0 is_stmt 1
	.cfi_startproc
	pushq	%rbp
	.cfi_def_cfa_offset 16
	.cfi_offset %rbp, -16
	movq	%rsp, %rbp
	.cfi_def_cfa_register %rbp
	subq	$48, %rsp
	movq	%rsi, %rdi
Ltmp73:
	.loc	1 328 9 prologue_end
	leaq	l___unnamed_18(%rip), %rax
Ltmp74:
	movq	%rax, -48(%rbp)
	movq	$1, -40(%rbp)
	movq	$0, -32(%rbp)
	leaq	l___unnamed_19(%rip), %rax
Ltmp75:
	movq	%rax, -16(%rbp)
	movq	$0, -8(%rbp)
	leaq	-48(%rbp), %rsi
Ltmp76:
	.loc	6 81 17
	callq	__ZN4core3fmt9Formatter9write_fmt17h742ca6aae87ad23cE
Ltmp77:
	.loc	6 82 14
	addq	$48, %rsp
	popq	%rbp
	retq
Ltmp78:
Lfunc_end9:
	.cfi_endproc

	.globl	__ZN111_$LT$rand_chacha..chacha..ChaCha8Rng$u20$as$u20$core..convert..From$LT$rand_chacha..chacha..ChaCha8Core$GT$$GT$4from17he78f543e5cfccc79E
	.p2align	4, 0x90
__ZN111_$LT$rand_chacha..chacha..ChaCha8Rng$u20$as$u20$core..convert..From$LT$rand_chacha..chacha..ChaCha8Core$GT$$GT$4from17he78f543e5cfccc79E:
Lfunc_begin10:
	.loc	6 252 0
	.cfi_startproc
	pushq	%rbp
	.cfi_def_cfa_offset 16
	.cfi_offset %rbp, -16
	movq	%rsp, %rbp
	.cfi_def_cfa_register %rbp
	pushq	%r14
	pushq	%rbx
	.cfi_offset %rbx, -32
	.cfi_offset %r14, -24
	movq	%rsi, %r14
	movq	%rdi, %rbx
Ltmp79:
	.loc	6 253 17 prologue_end
	movq	$64, (%rdi)
	addq	$8, %rdi
	movl	$256, %esi
	callq	___bzero
	movq	40(%r14), %rax
	movq	%rax, 304(%rbx)
	movq	32(%r14), %rax
	movq	%rax, 296(%rbx)
	movq	24(%r14), %rax
	movq	%rax, 288(%rbx)
	movq	16(%r14), %rax
	movq	%rax, 280(%rbx)
	movq	(%r14), %rax
	movq	8(%r14), %rcx
	movq	%rcx, 272(%rbx)
	movq	%rax, 264(%rbx)
	.loc	6 256 14
	movq	%rbx, %rax
	popq	%rbx
	popq	%r14
Ltmp80:
	popq	%rbp
	retq
Ltmp81:
Lfunc_end10:
	.cfi_endproc

	.globl	__ZN72_$LT$rand_chacha..chacha..ChaCha8Rng$u20$as$u20$core..cmp..PartialEq$GT$2eq17h90f9d877eb0157fdE
	.p2align	4, 0x90
__ZN72_$LT$rand_chacha..chacha..ChaCha8Rng$u20$as$u20$core..cmp..PartialEq$GT$2eq17h90f9d877eb0157fdE:
Lfunc_begin11:
	.loc	6 260 0
	.cfi_startproc
	pushq	%rbp
	.cfi_def_cfa_offset 16
	.cfi_offset %rbp, -16
	movq	%rsp, %rbp
	.cfi_def_cfa_register %rbp
Ltmp82:
	.loc	5 98 32 prologue_end
	movq	304(%rdi), %xmm0
Ltmp83:
	.loc	5 99 31
	movq	304(%rsi), %xmm1
Ltmp84:
	.file	7 "/rustc/6c8927b0cf80ceee19386026cf9d7fd4fd9d486f/src/libcore/ptr/const_ptr.rs"
	.loc	7 331 9
	cmpq	%rsi, %rdi
Ltmp85:
	.file	8 "/rustc/6c8927b0cf80ceee19386026cf9d7fd4fd9d486f/src/libcore/slice/mod.rs"
	.loc	8 6271 9
	je	LBB11_3
Ltmp86:
	.loc	8 6276 13
	movdqu	264(%rdi), %xmm2
	movdqu	264(%rsi), %xmm3
	pcmpeqb	%xmm2, %xmm3
	pmovmskb	%xmm3, %eax
	cmpl	$65535, %eax
Ltmp87:
	.loc	5 100 9
	jne	LBB11_5
Ltmp88:
	.loc	8 6276 13
	movdqu	280(%rdi), %xmm2
	movdqu	280(%rsi), %xmm3
	pcmpeqb	%xmm2, %xmm3
	pmovmskb	%xmm3, %eax
	cmpl	$65535, %eax
Ltmp89:
	.loc	5 100 9
	jne	LBB11_5
Ltmp90:
LBB11_3:
	.loc	5 100 72 is_stmt 0
	pcmpeqd	%xmm1, %xmm0
	pshufd	$80, %xmm0, %xmm0
	movmskpd	%xmm0, %eax
	.loc	5 100 9
	testb	$1, %al
	je	LBB11_5
Ltmp91:
	.loc	5 0 0
	shrb	%al
	.loc	5 100 9
	je	LBB11_5
Ltmp92:
	.loc	6 200 44 is_stmt 1
	movq	(%rdi), %rax
Ltmp93:
	.loc	5 203 9
	movq	296(%rdi), %rcx
Ltmp94:
	.loc	6 201 39
	movq	%rax, %rdx
	shrq	$4, %rdx
Ltmp95:
	.file	9 "/rustc/6c8927b0cf80ceee19386026cf9d7fd4fd9d486f/src/libcore/num/mod.rs"
	.loc	9 3439 17
	leaq	-4(%rdx,%rcx), %rcx
Ltmp96:
	.loc	6 206 39
	movq	%rcx, %rdx
Ltmp97:
	shlq	$4, %rdx
Ltmp98:
	.loc	6 202 38
	andl	$15, %eax
Ltmp99:
	.loc	6 207 17
	orq	%rdx, %rax
Ltmp100:
	.loc	6 200 44
	movq	(%rsi), %rdx
Ltmp101:
	.loc	5 203 9
	movq	296(%rsi), %rsi
Ltmp102:
	.loc	6 201 39
	movq	%rdx, %rdi
Ltmp103:
	shrq	$4, %rdi
Ltmp104:
	.loc	9 3439 17
	leaq	-4(%rdi,%rsi), %rsi
Ltmp105:
	.loc	6 262 24
	xorq	%rsi, %rcx
Ltmp106:
	.loc	6 206 39
	shlq	$4, %rsi
Ltmp107:
	.loc	6 202 38
	andl	$15, %edx
Ltmp108:
	.loc	6 207 17
	orq	%rsi, %rdx
Ltmp109:
	.loc	6 262 24
	xorq	%rax, %rdx
	shrq	$60, %rcx
	movb	$1, %al
	orq	%rdx, %rcx
	.loc	6 261 17
	jne	LBB11_5
Ltmp110:
	.loc	6 263 14
	popq	%rbp
	retq
LBB11_5:
	.loc	6 0 14 is_stmt 0
	xorl	%eax, %eax
	.loc	6 263 14
	popq	%rbp
	retq
Ltmp111:
Lfunc_end11:
	.cfi_endproc
	.file	10 "/rustc/6c8927b0cf80ceee19386026cf9d7fd4fd9d486f/src/libcore/array/mod.rs"
	.file	11 "/Users/yingyuhang/.cargo/registry/src/github.com-1ecc6299db9ec823/ppv-lite86-0.2.8/src/generic.rs"
	.file	12 "/Users/yingyuhang/.cargo/registry/src/github.com-1ecc6299db9ec823/ppv-lite86-0.2.8/src/generic.rs"

	.globl	__ZN68_$LT$rand_chacha..chacha..ChaCha8Rng$u20$as$u20$core..fmt..Debug$GT$3fmt17h0f56257049c850fbE
	.p2align	4, 0x90
__ZN68_$LT$rand_chacha..chacha..ChaCha8Rng$u20$as$u20$core..fmt..Debug$GT$3fmt17h0f56257049c850fbE:
Lfunc_begin12:
	.loc	6 148 0 is_stmt 1
	.cfi_startproc
	pushq	%rbp
	.cfi_def_cfa_offset 16
	.cfi_offset %rbp, -16
	movq	%rsp, %rbp
	.cfi_def_cfa_register %rbp
	pushq	%r14
	pushq	%rbx
	subq	$32, %rsp
	.cfi_offset %rbx, -32
	.cfi_offset %r14, -24
	movq	%rdi, %rbx
Ltmp112:
	.loc	6 148 25 prologue_end
	leaq	l___unnamed_20(%rip), %rdx
	leaq	-40(%rbp), %r14
	movl	$10, %ecx
	movq	%r14, %rdi
	callq	__ZN4core3fmt9Formatter12debug_struct17ha1a64e91d2a98458E
Ltmp113:
	.loc	6 150 13
	movq	%rbx, -24(%rbp)
	.loc	6 148 25
	leaq	l___unnamed_16(%rip), %rsi
	leaq	l___unnamed_7(%rip), %r8
	leaq	-24(%rbp), %rcx
	movl	$3, %edx
	movq	%r14, %rdi
	callq	__ZN4core3fmt8builders11DebugStruct5field17h6c54d35ac41bb1e6E
	movq	%r14, %rdi
	callq	__ZN4core3fmt8builders11DebugStruct6finish17h67ed49fd5e81bb24E
Ltmp114:
	.loc	6 148 30 is_stmt 0
	addq	$32, %rsp
	popq	%rbx
Ltmp115:
	popq	%r14
	popq	%rbp
	retq
Ltmp116:
Lfunc_end12:
	.cfi_endproc

	.section	__TEXT,__literal8,8byte_literals
L___unnamed_8:
	.ascii	"BlockRng"

	.section	__TEXT,__literal4,4byte_literals
L___unnamed_9:
	.ascii	"core"

	.section	__DATA,__const
	.p2align	3
l___unnamed_1:
	.quad	__ZN4core3ptr13drop_in_place17h00d81caf04024757E
	.quad	48
	.quad	8
	.quad	__ZN69_$LT$rand_chacha..chacha..ChaCha8Core$u20$as$u20$core..fmt..Debug$GT$3fmt17h0066c529f3c005b6E

	.section	__TEXT,__const
l___unnamed_10:
	.ascii	"result_len"

	.section	__DATA,__const
	.p2align	3
l___unnamed_2:
	.quad	__ZN4core3ptr13drop_in_place17h00d81caf04024757E
	.quad	8
	.quad	8
	.quad	__ZN4core3fmt3num52_$LT$impl$u20$core..fmt..Debug$u20$for$u20$usize$GT$3fmt17h3ce1e8eb3a3c5c0bE

	.section	__TEXT,__const
l___unnamed_11:
	.ascii	"index"

	.section	__DATA,__const
	.p2align	3
l___unnamed_3:
	.quad	__ZN4core3ptr13drop_in_place17h00d81caf04024757E
	.quad	48
	.quad	8
	.quad	__ZN69_$LT$rand_chacha..chacha..ChaCha8Core$u20$as$u20$core..fmt..Debug$GT$3fmt17h0066c529f3c005b6E

	.p2align	3
l___unnamed_4:
	.quad	__ZN4core3ptr13drop_in_place17h00d81caf04024757E
	.quad	48
	.quad	8
	.quad	__ZN69_$LT$rand_chacha..chacha..ChaCha8Core$u20$as$u20$core..fmt..Debug$GT$3fmt17h0066c529f3c005b6E

	.section	__TEXT,__literal8,8byte_literals
	.p2align	3
L___unnamed_12:
	.asciz	"\004\000\000\000\000\000\000"

	.section	__TEXT,__const
l___unnamed_21:
	.ascii	"assertion failed: `(left == right)`\n  left: `"

l___unnamed_22:
	.ascii	"`,\n right: `"

l___unnamed_23:
	.byte	96

	.section	__DATA,__const
	.p2align	3
l___unnamed_13:
	.quad	l___unnamed_21
	.asciz	"-\000\000\000\000\000\000"
	.quad	l___unnamed_22
	.asciz	"\f\000\000\000\000\000\000"
	.quad	l___unnamed_23
	.asciz	"\001\000\000\000\000\000\000"

	.section	__TEXT,__const
l___unnamed_24:
	.ascii	"/Users/yingyuhang/.cargo/git/checkouts/rand-cc8f5b7ec2d3b6d9/dca9cb5/rand_chacha/src/guts.rs"

	.section	__DATA,__const
	.p2align	3
l___unnamed_14:
	.quad	l___unnamed_24
	.asciz	"\\\000\000\000\000\000\000\000\320\000\000\000\005\000\000"

	.section	__TEXT,__const
l___unnamed_25:
	.ascii	"ChaChaXCore {}"

	.section	__DATA,__const
	.p2align	3
l___unnamed_18:
	.quad	l___unnamed_25
	.asciz	"\016\000\000\000\000\000\000"

	.section	__TEXT,__const
	.p2align	3
l___unnamed_19:
	.byte	0

l___unnamed_15:
	.ascii	"ChaCha20Rng"

l___unnamed_16:
	.ascii	"rng"

	.section	__DATA,__const
	.p2align	3
l___unnamed_5:
	.quad	__ZN4core3ptr13drop_in_place17h00d81caf04024757E
	.quad	8
	.quad	8
	.quad	__ZN42_$LT$$RF$T$u20$as$u20$core..fmt..Debug$GT$3fmt17h0cc47ca81b0305bfE

	.section	__TEXT,__const
l___unnamed_17:
	.ascii	"ChaCha12Rng"

	.section	__DATA,__const
	.p2align	3
l___unnamed_6:
	.quad	__ZN4core3ptr13drop_in_place17h00d81caf04024757E
	.quad	8
	.quad	8
	.quad	__ZN42_$LT$$RF$T$u20$as$u20$core..fmt..Debug$GT$3fmt17h5b6cc552ceb7e69aE

	.section	__TEXT,__const
l___unnamed_20:
	.ascii	"ChaCha8Rng"

	.section	__DATA,__const
	.p2align	3
l___unnamed_7:
	.quad	__ZN4core3ptr13drop_in_place17h00d81caf04024757E
	.quad	8
	.quad	8
	.quad	__ZN42_$LT$$RF$T$u20$as$u20$core..fmt..Debug$GT$3fmt17hefc923bd42223e00E

	.section	__DATA,__const
Lsec_end0:
	.section	__TEXT,__text,regular,pure_instructions
Lsec_end1: