	.section	__TEXT,__text,regular,pure_instructions
	.macosx_version_min 10, 7
	.p2align	4, 0x90
__ZN3std5error5Error11description17h2bfad5a06ad2e419E:
Lfunc_begin0:
	.file	1 "/rustc/6c8927b0cf80ceee19386026cf9d7fd4fd9d486f/src/libstd/error.rs"
	.loc	1 140 0
	.cfi_startproc
	pushq	%rbp
	.cfi_def_cfa_offset 16
	.cfi_offset %rbp, -16
	movq	%rsp, %rbp
	.cfi_def_cfa_register %rbp
Ltmp0:
	.loc	1 142 6 prologue_end
	leaq	l___unnamed_4(%rip), %rax
	movl	$40, %edx
	popq	%rbp
	retq
Ltmp1:
Lfunc_end0:
	.cfi_endproc

	.p2align	4, 0x90
__ZN3std5error5Error11description17h9b5e8c47f19cdf8cE:
Lfunc_begin1:
	.loc	1 140 0
	.cfi_startproc
	pushq	%rbp
	.cfi_def_cfa_offset 16
	.cfi_offset %rbp, -16
	movq	%rsp, %rbp
	.cfi_def_cfa_register %rbp
Ltmp2:
	.loc	1 142 6 prologue_end
	leaq	l___unnamed_4(%rip), %rax
	movl	$40, %edx
	popq	%rbp
	retq
Ltmp3:
Lfunc_end1:
	.cfi_endproc

	.p2align	4, 0x90
__ZN3std5error5Error5cause17h0045f9ee44180f61E:
Lfunc_begin2:
	.loc	1 150 0
	.cfi_startproc
	pushq	%rbp
	.cfi_def_cfa_offset 16
	.cfi_offset %rbp, -16
	movq	%rsp, %rbp
	.cfi_def_cfa_register %rbp
Ltmp4:
	.loc	1 152 6 prologue_end
	xorl	%eax, %eax
	popq	%rbp
	retq
Ltmp5:
Lfunc_end2:
	.cfi_endproc

	.p2align	4, 0x90
__ZN3std5error5Error5cause17h6bdb6012dbce3fc2E:
Lfunc_begin3:
	.loc	1 150 0
	.cfi_startproc
	pushq	%rbp
	.cfi_def_cfa_offset 16
	.cfi_offset %rbp, -16
	movq	%rsp, %rbp
	.cfi_def_cfa_register %rbp
Ltmp6:
	.file	2 "/Users/yingyuhang/.cargo/git/checkouts/rand-cc8f5b7ec2d3b6d9/dca9cb5/rand_core/src/error.rs"
	.loc	2 176 9 prologue_end
	movq	(%rdi), %rax
	movq	8(%rdi), %rcx
	movq	%rax, %rdi
Ltmp7:
	popq	%rbp
	jmpq	*24(%rcx)
Ltmp8:
Lfunc_end3:
	.cfi_endproc

	.p2align	4, 0x90
__ZN3std5error5Error7type_id17h5f48b84d33fe04a4E:
Lfunc_begin4:
	.loc	1 111 0
	.cfi_startproc
	pushq	%rbp
	.cfi_def_cfa_offset 16
	.cfi_offset %rbp, -16
	movq	%rsp, %rbp
	.cfi_def_cfa_register %rbp
	movabsq	$2219189025166995018, %rax
Ltmp9:
	.loc	1 116 6 prologue_end
	popq	%rbp
	retq
Ltmp10:
Lfunc_end4:
	.cfi_endproc

	.p2align	4, 0x90
__ZN3std5error5Error7type_id17hf66fd6e369b6562bE:
Lfunc_begin5:
	.loc	1 111 0
	.cfi_startproc
	pushq	%rbp
	.cfi_def_cfa_offset 16
	.cfi_offset %rbp, -16
	movq	%rsp, %rbp
	.cfi_def_cfa_register %rbp
	movabsq	$4202187128726426037, %rax
Ltmp11:
	.loc	1 116 6 prologue_end
	popq	%rbp
	retq
Ltmp12:
Lfunc_end5:
	.cfi_endproc

	.p2align	4, 0x90
__ZN3std5error5Error9backtrace17hc49bb3fadec15a41E:
Lfunc_begin6:
	.loc	1 128 0
	.cfi_startproc
	pushq	%rbp
	.cfi_def_cfa_offset 16
	.cfi_offset %rbp, -16
	movq	%rsp, %rbp
	.cfi_def_cfa_register %rbp
Ltmp13:
	.loc	1 130 6 prologue_end
	xorl	%eax, %eax
	popq	%rbp
	retq
Ltmp14:
Lfunc_end6:
	.cfi_endproc

	.p2align	4, 0x90
__ZN3std5error5Error9backtrace17he14d3d702c457c6aE:
Lfunc_begin7:
	.loc	1 128 0
	.cfi_startproc
	pushq	%rbp
	.cfi_def_cfa_offset 16
	.cfi_offset %rbp, -16
	movq	%rsp, %rbp
	.cfi_def_cfa_register %rbp
Ltmp15:
	.loc	1 130 6 prologue_end
	xorl	%eax, %eax
	popq	%rbp
	retq
Ltmp16:
Lfunc_end7:
	.cfi_endproc

	.p2align	4, 0x90
__ZN42_$LT$$RF$T$u20$as$u20$core..fmt..Debug$GT$3fmt17h63e1f17ad89eb533E:
Lfunc_begin8:
	.file	3 "/rustc/6c8927b0cf80ceee19386026cf9d7fd4fd9d486f/src/libcore/fmt/mod.rs"
	.loc	3 2022 0
	.cfi_startproc
	pushq	%rbp
	.cfi_def_cfa_offset 16
	.cfi_offset %rbp, -16
	movq	%rsp, %rbp
	.cfi_def_cfa_register %rbp
	pushq	%rbx
	pushq	%rax
	.cfi_offset %rbx, -24
	movq	%rsi, %rbx
Ltmp17:
	.loc	3 2022 71 prologue_end
	movq	(%rdi), %rax
	.loc	3 2022 62 is_stmt 0
	movl	(%rax), %eax
Ltmp18:
	.file	4 "/rustc/6c8927b0cf80ceee19386026cf9d7fd4fd9d486f/src/libcore/num/mod.rs"
	.loc	4 38 21 is_stmt 1
	movl	%eax, -12(%rbp)
Ltmp19:
	.file	5 "/rustc/6c8927b0cf80ceee19386026cf9d7fd4fd9d486f/src/libcore/fmt/num.rs"
	.loc	5 149 20
	movq	%rsi, %rdi
Ltmp20:
	callq	__ZN4core3fmt9Formatter15debug_lower_hex17hd07f6fde8d0365dfE
	.loc	5 149 17 is_stmt 0
	testb	%al, %al
	je	LBB8_1
Ltmp21:
	.loc	5 0 17
	leaq	-12(%rbp), %rdi
	.loc	5 150 21 is_stmt 1
	movq	%rbx, %rsi
	callq	__ZN4core3fmt3num53_$LT$impl$u20$core..fmt..LowerHex$u20$for$u20$u32$GT$3fmt17h019ba2b9dd60d385E
Ltmp22:
	.loc	3 2022 84
	addq	$8, %rsp
	popq	%rbx
Ltmp23:
	popq	%rbp
	retq
Ltmp24:
LBB8_1:
	.loc	5 151 27
	movq	%rbx, %rdi
	callq	__ZN4core3fmt9Formatter15debug_upper_hex17hf480c256a9c81c1eE
	leaq	-12(%rbp), %rdi
	.loc	5 152 21
	movq	%rbx, %rsi
	.loc	5 151 24
	testb	%al, %al
	je	LBB8_2
Ltmp25:
	.loc	5 152 21
	callq	__ZN4core3fmt3num53_$LT$impl$u20$core..fmt..UpperHex$u20$for$u20$u32$GT$3fmt17h7bd10b5f3c9584f1E
Ltmp26:
	.loc	3 2022 84
	addq	$8, %rsp
	popq	%rbx
Ltmp27:
	popq	%rbp
	retq
Ltmp28:
LBB8_2:
	.loc	5 154 21
	callq	__ZN4core3fmt3num3imp52_$LT$impl$u20$core..fmt..Display$u20$for$u20$u32$GT$3fmt17hb70882cf65fd1a66E
Ltmp29:
	.loc	3 2022 84
	addq	$8, %rsp
	popq	%rbx
Ltmp30:
	popq	%rbp
	retq
Ltmp31:
Lfunc_end8:
	.cfi_endproc

	.p2align	4, 0x90
__ZN4core3ptr13drop_in_place17h6a8a24d334e44810E:
Lfunc_begin9:
	.file	6 "/rustc/6c8927b0cf80ceee19386026cf9d7fd4fd9d486f/src/libcore/ptr/mod.rs"
	.loc	6 184 0
	.cfi_startproc
	pushq	%rbp
	.cfi_def_cfa_offset 16
	.cfi_offset %rbp, -16
	movq	%rsp, %rbp
	.cfi_def_cfa_register %rbp
Ltmp32:
	.loc	6 184 1 prologue_end
	popq	%rbp
	retq
Ltmp33:
Lfunc_end9:
	.cfi_endproc

	.p2align	4, 0x90
__ZN4core3ptr13drop_in_place17hfaf45f95324defd7E:
Lfunc_begin10:
	.loc	6 184 0
	.cfi_startproc
	.cfi_personality 155, _rust_eh_personality
	.cfi_lsda 16, Lexception0
	pushq	%rbp
	.cfi_def_cfa_offset 16
	.cfi_offset %rbp, -16
	movq	%rsp, %rbp
	.cfi_def_cfa_register %rbp
	pushq	%r14
	pushq	%rbx
	.cfi_offset %rbx, -32
	.cfi_offset %r14, -24
	movq	%rdi, %rbx
Ltmp37:
	.loc	6 184 1 prologue_end
	movq	(%rdi), %rdi
	movq	8(%rbx), %rax
Ltmp34:
	callq	*(%rax)
Ltmp35:
Ltmp38:
	movq	8(%rbx), %rax
Ltmp39:
	.file	7 "/rustc/6c8927b0cf80ceee19386026cf9d7fd4fd9d486f/src/liballoc/alloc.rs"
	.loc	7 292 20
	movq	8(%rax), %rsi
Ltmp40:
	.loc	7 185 12
	testq	%rsi, %rsi
	.loc	7 185 9 is_stmt 0
	je	LBB10_4
Ltmp41:
	.loc	6 184 1 is_stmt 1
	movq	(%rbx), %rdi
Ltmp42:
	.loc	7 293 21
	movq	16(%rax), %rdx
Ltmp43:
	.loc	7 102 14
	popq	%rbx
Ltmp44:
	popq	%r14
	popq	%rbp
	jmp	___rust_dealloc
Ltmp45:
LBB10_4:
	.loc	6 184 1
	popq	%rbx
Ltmp46:
	popq	%r14
	popq	%rbp
	retq
LBB10_3:
Ltmp47:
Ltmp36:
	.loc	6 0 1 is_stmt 0
	movq	%rax, %r14
Ltmp48:
	.loc	6 184 1
	movq	(%rbx), %rdi
	movq	8(%rbx), %rsi
	callq	__ZN5alloc5alloc8box_free17h0812ce50537e580fE
	movq	%r14, %rdi
	callq	__Unwind_Resume
	ud2
Ltmp49:
Lfunc_end10:
	.cfi_endproc
	.section	__TEXT,__gcc_except_tab
	.p2align	2
GCC_except_table10:
Lexception0:
	.byte	255
	.byte	255
	.byte	1
	.uleb128 Lcst_end0-Lcst_begin0
Lcst_begin0:
	.uleb128 Ltmp34-Lfunc_begin10
	.uleb128 Ltmp35-Ltmp34
	.uleb128 Ltmp36-Lfunc_begin10
	.byte	0
	.uleb128 Ltmp35-Lfunc_begin10
	.uleb128 Lfunc_end10-Ltmp35
	.byte	0
	.byte	0
Lcst_end0:
	.p2align	2

	.section	__TEXT,__text,regular,pure_instructions
	.p2align	4, 0x90
__ZN5alloc5alloc8box_free17h0812ce50537e580fE:
Lfunc_begin11:
	.loc	7 290 0 is_stmt 1
	.cfi_startproc
	pushq	%rbp
	.cfi_def_cfa_offset 16
	.cfi_offset %rbp, -16
	movq	%rsp, %rbp
	.cfi_def_cfa_register %rbp
	movq	%rsi, %rax
Ltmp50:
	.loc	7 292 20 prologue_end
	movq	8(%rsi), %rsi
Ltmp51:
	.loc	7 185 12
	testq	%rsi, %rsi
	.loc	7 185 9 is_stmt 0
	je	LBB11_1
Ltmp52:
	.loc	7 293 21 is_stmt 1
	movq	16(%rax), %rdx
Ltmp53:
	.loc	7 102 14
	popq	%rbp
	jmp	___rust_dealloc
Ltmp54:
LBB11_1:
	.loc	7 297 2
	popq	%rbp
	retq
Ltmp55:
Lfunc_end11:
	.cfi_endproc

	.p2align	4, 0x90
__ZN60_$LT$core..num..NonZeroU32$u20$as$u20$core..fmt..Display$GT$3fmt17h951640a9ff7b9b6eE:
Lfunc_begin12:
	.loc	4 37 0
	.cfi_startproc
	pushq	%rbp
	.cfi_def_cfa_offset 16
	.cfi_offset %rbp, -16
	movq	%rsp, %rbp
	.cfi_def_cfa_register %rbp
	subq	$16, %rsp
Ltmp56:
	.loc	4 38 21 prologue_end
	movl	(%rdi), %eax
	movl	%eax, -4(%rbp)
	leaq	-4(%rbp), %rdi
Ltmp57:
	callq	__ZN4core3fmt3num3imp52_$LT$impl$u20$core..fmt..Display$u20$for$u20$u32$GT$3fmt17hb70882cf65fd1a66E
Ltmp58:
	.loc	4 39 18
	addq	$16, %rsp
	popq	%rbp
	retq
Ltmp59:
Lfunc_end12:
	.cfi_endproc

	.p2align	4, 0x90
__ZN63_$LT$alloc..boxed..Box$LT$T$GT$$u20$as$u20$core..fmt..Debug$GT$3fmt17h8c8f5d06a6e1170cE:
Lfunc_begin13:
	.file	8 "/rustc/6c8927b0cf80ceee19386026cf9d7fd4fd9d486f/src/liballoc/boxed.rs"
	.loc	8 970 0
	.cfi_startproc
	pushq	%rbp
	.cfi_def_cfa_offset 16
	.cfi_offset %rbp, -16
	movq	%rsp, %rbp
	.cfi_def_cfa_register %rbp
Ltmp60:
	.loc	8 971 25 prologue_end
	movq	(%rdi), %rax
	movq	8(%rdi), %rcx
	.loc	8 971 9 is_stmt 0
	movq	72(%rcx), %rcx
	movq	%rax, %rdi
Ltmp61:
	popq	%rbp
	jmpq	*%rcx
Ltmp62:
Lfunc_end13:
	.cfi_endproc

	.p2align	4, 0x90
__ZN65_$LT$alloc..boxed..Box$LT$T$GT$$u20$as$u20$core..fmt..Display$GT$3fmt17hc93487b4b0d6030fE:
Lfunc_begin14:
	.loc	8 963 0 is_stmt 1
	.cfi_startproc
	pushq	%rbp
	.cfi_def_cfa_offset 16
	.cfi_offset %rbp, -16
	movq	%rsp, %rbp
	.cfi_def_cfa_register %rbp
Ltmp63:
	.loc	8 964 27 prologue_end
	movq	(%rdi), %rax
	movq	8(%rdi), %rcx
	.loc	8 964 9 is_stmt 0
	movq	64(%rcx), %rcx
	movq	%rax, %rdi
Ltmp64:
	popq	%rbp
	jmpq	*%rcx
Ltmp65:
Lfunc_end14:
	.cfi_endproc

	.globl	__ZN60_$LT$rand_core..error..Error$u20$as$u20$core..fmt..Debug$GT$3fmt17h8b2387ade57f192fE
	.p2align	4, 0x90
__ZN60_$LT$rand_core..error..Error$u20$as$u20$core..fmt..Debug$GT$3fmt17h8b2387ade57f192fE:
Lfunc_begin15:
	.loc	2 106 0 is_stmt 1
	.cfi_startproc
	pushq	%rbp
	.cfi_def_cfa_offset 16
	.cfi_offset %rbp, -16
	movq	%rsp, %rbp
	.cfi_def_cfa_register %rbp
	subq	$64, %rsp
	movq	%rsi, %rax
Ltmp66:
	.loc	2 109 13 prologue_end
	movq	%rdi, -16(%rbp)
	leaq	__ZN63_$LT$alloc..boxed..Box$LT$T$GT$$u20$as$u20$core..fmt..Debug$GT$3fmt17h8c8f5d06a6e1170cE(%rip), %rcx
	movq	%rcx, -8(%rbp)
Ltmp67:
	.loc	3 328 9
	leaq	l___unnamed_5(%rip), %rcx
Ltmp68:
	movq	%rcx, -64(%rbp)
	movq	$2, -56(%rbp)
	movq	$0, -48(%rbp)
	leaq	-16(%rbp), %rcx
Ltmp69:
	movq	%rcx, -32(%rbp)
	movq	$1, -24(%rbp)
	leaq	-64(%rbp), %rsi
Ltmp70:
	.loc	2 109 13
	movq	%rax, %rdi
Ltmp71:
	callq	__ZN4core3fmt9Formatter9write_fmt17h742ca6aae87ad23cE
Ltmp72:
	.loc	2 119 6
	addq	$64, %rsp
	popq	%rbp
	retq
Ltmp73:
Lfunc_end15:
	.cfi_endproc

	.globl	__ZN62_$LT$rand_core..error..Error$u20$as$u20$core..fmt..Display$GT$3fmt17h720e39228d432130E
	.p2align	4, 0x90
__ZN62_$LT$rand_core..error..Error$u20$as$u20$core..fmt..Display$GT$3fmt17h720e39228d432130E:
Lfunc_begin16:
	.loc	2 123 0
	.cfi_startproc
	pushq	%rbp
	.cfi_def_cfa_offset 16
	.cfi_offset %rbp, -16
	movq	%rsp, %rbp
	.cfi_def_cfa_register %rbp
	subq	$64, %rsp
	movq	%rsi, %rax
Ltmp74:
	.loc	2 126 13 prologue_end
	movq	%rdi, -16(%rbp)
	leaq	__ZN65_$LT$alloc..boxed..Box$LT$T$GT$$u20$as$u20$core..fmt..Display$GT$3fmt17hc93487b4b0d6030fE(%rip), %rcx
	movq	%rcx, -8(%rbp)
Ltmp75:
	.loc	3 328 9
	leaq	l___unnamed_6(%rip), %rcx
Ltmp76:
	movq	%rcx, -64(%rbp)
	movq	$1, -56(%rbp)
	movq	$0, -48(%rbp)
	leaq	-16(%rbp), %rcx
Ltmp77:
	movq	%rcx, -32(%rbp)
	movq	$1, -24(%rbp)
	leaq	-64(%rbp), %rsi
Ltmp78:
	.loc	2 126 13
	movq	%rax, %rdi
Ltmp79:
	callq	__ZN4core3fmt9Formatter9write_fmt17h742ca6aae87ad23cE
Ltmp80:
	.loc	2 136 6
	addq	$64, %rsp
	popq	%rbp
	retq
Ltmp81:
Lfunc_end16:
	.cfi_endproc

	.p2align	4, 0x90
__ZN61_$LT$rand_core..error..Error$u20$as$u20$std..error..Error$GT$6source17hf322e1f295228471E:
Lfunc_begin17:
	.loc	2 175 0
	.cfi_startproc
	pushq	%rbp
	.cfi_def_cfa_offset 16
	.cfi_offset %rbp, -16
	movq	%rsp, %rbp
	.cfi_def_cfa_register %rbp
Ltmp82:
	.loc	2 176 9 prologue_end
	movq	(%rdi), %rax
	movq	8(%rdi), %rcx
	movq	%rax, %rdi
Ltmp83:
	popq	%rbp
	jmpq	*24(%rcx)
Ltmp84:
Lfunc_end17:
	.cfi_endproc

	.globl	__ZN66_$LT$rand_core..error..ErrorCode$u20$as$u20$core..fmt..Display$GT$3fmt17h5d9c144bfe631d9bE
	.p2align	4, 0x90
__ZN66_$LT$rand_core..error..ErrorCode$u20$as$u20$core..fmt..Display$GT$3fmt17h5d9c144bfe631d9bE:
Lfunc_begin18:
	.loc	2 198 0
	.cfi_startproc
	pushq	%rbp
	.cfi_def_cfa_offset 16
	.cfi_offset %rbp, -16
	movq	%rsp, %rbp
	.cfi_def_cfa_register %rbp
	subq	$64, %rsp
	movq	%rsi, %rax
Ltmp85:
	.loc	2 199 9 prologue_end
	movq	%rdi, -16(%rbp)
	leaq	__ZN60_$LT$core..num..NonZeroU32$u20$as$u20$core..fmt..Display$GT$3fmt17h951640a9ff7b9b6eE(%rip), %rcx
	movq	%rcx, -8(%rbp)
Ltmp86:
	.loc	3 328 9
	leaq	l___unnamed_7(%rip), %rcx
Ltmp87:
	movq	%rcx, -64(%rbp)
	movq	$1, -56(%rbp)
	movq	$0, -48(%rbp)
	leaq	-16(%rbp), %rcx
Ltmp88:
	movq	%rcx, -32(%rbp)
	movq	$1, -24(%rbp)
	leaq	-64(%rbp), %rsi
Ltmp89:
	.loc	2 199 9
	movq	%rax, %rdi
Ltmp90:
	callq	__ZN4core3fmt9Formatter9write_fmt17h742ca6aae87ad23cE
Ltmp91:
	.loc	2 200 6
	addq	$64, %rsp
	popq	%rbp
	retq
Ltmp92:
Lfunc_end18:
	.cfi_endproc

	.globl	__ZN9rand_core5impls19fill_via_u32_chunks17h9a529dc9c0b948d1E
	.p2align	4, 0x90
__ZN9rand_core5impls19fill_via_u32_chunks17h9a529dc9c0b948d1E:
Lfunc_begin19:
	.file	9 "/Users/yingyuhang/.cargo/git/checkouts/rand-cc8f5b7ec2d3b6d9/dca9cb5/rand_core/src/impls.rs"
	.loc	9 130 0
	.cfi_startproc
	pushq	%rbp
	.cfi_def_cfa_offset 16
	.cfi_offset %rbp, -16
	movq	%rsp, %rbp
	.cfi_def_cfa_register %rbp
	pushq	%r14
	pushq	%rbx
	.cfi_offset %rbx, -32
	.cfi_offset %r14, -24
	movq	%rdx, %r8
	movq	%rsi, %rax
	movl	$4, %edx
Ltmp93:
	.loc	9 131 5 prologue_end
	mulq	%rdx
Ltmp94:
	jo	LBB19_3
Ltmp95:
	.loc	9 0 0 is_stmt 0
	movq	%rax, %r14
Ltmp96:
	.file	10 "/rustc/6c8927b0cf80ceee19386026cf9d7fd4fd9d486f/src/libcore/cmp.rs"
	.loc	10 950 9 is_stmt 1
	cmpq	%rcx, %rax
	.loc	10 0 0 is_stmt 0
	cmovaq	%rcx, %r14
Ltmp97:
	.loc	9 131 5 is_stmt 1
	movq	%r14, %rbx
	addq	$4, %rbx
	jb	LBB19_4
Ltmp98:
	.loc	9 0 5 is_stmt 0
	movq	%rdi, %rsi
Ltmp99:
	.loc	9 131 5
	decq	%rbx
	shrq	$2, %rbx
Ltmp100:
	.file	11 "/rustc/6c8927b0cf80ceee19386026cf9d7fd4fd9d486f/src/libcore/intrinsics.rs"
	.loc	11 2130 14 is_stmt 1
	movq	%r8, %rdi
	movq	%r14, %rdx
	callq	_memcpy
Ltmp101:
	.loc	9 132 2
	movq	%rbx, %rax
	movq	%r14, %rdx
	popq	%rbx
Ltmp102:
	popq	%r14
Ltmp103:
	popq	%rbp
	retq
Ltmp104:
LBB19_3:
	.loc	9 131 5
	leaq	_str.0(%rip), %rdi
Ltmp105:
	leaq	l___unnamed_8(%rip), %rdx
	movl	$33, %esi
	callq	__ZN4core9panicking5panic17h383a6b80ea7021aaE
Ltmp106:
LBB19_4:
	.loc	9 131 5 is_stmt 0
	leaq	_str.1(%rip), %rdi
Ltmp107:
	leaq	l___unnamed_8(%rip), %rdx
	movl	$28, %esi
	callq	__ZN4core9panicking5panic17h383a6b80ea7021aaE
Ltmp108:
Lfunc_end19:
	.cfi_endproc

	.globl	__ZN9rand_core5impls19fill_via_u64_chunks17hff688fd38c4d8bdfE
	.p2align	4, 0x90
__ZN9rand_core5impls19fill_via_u64_chunks17hff688fd38c4d8bdfE:
Lfunc_begin20:
	.loc	9 144 0 is_stmt 1
	.cfi_startproc
	pushq	%rbp
	.cfi_def_cfa_offset 16
	.cfi_offset %rbp, -16
	movq	%rsp, %rbp
	.cfi_def_cfa_register %rbp
	pushq	%r14
	pushq	%rbx
	.cfi_offset %rbx, -32
	.cfi_offset %r14, -24
	movq	%rdx, %r8
	movq	%rsi, %rax
	movl	$8, %edx
Ltmp109:
	.loc	9 145 5 prologue_end
	mulq	%rdx
Ltmp110:
	jo	LBB20_3
Ltmp111:
	.loc	9 0 0 is_stmt 0
	movq	%rax, %r14
Ltmp112:
	.loc	10 950 9 is_stmt 1
	cmpq	%rcx, %rax
	.loc	10 0 0 is_stmt 0
	cmovaq	%rcx, %r14
Ltmp113:
	.loc	9 145 5 is_stmt 1
	movq	%r14, %rbx
	addq	$8, %rbx
	jb	LBB20_4
Ltmp114:
	.loc	9 0 5 is_stmt 0
	movq	%rdi, %rsi
Ltmp115:
	.loc	9 145 5
	decq	%rbx
	shrq	$3, %rbx
Ltmp116:
	.loc	11 2130 14 is_stmt 1
	movq	%r8, %rdi
	movq	%r14, %rdx
	callq	_memcpy
Ltmp117:
	.loc	9 146 2
	movq	%rbx, %rax
	movq	%r14, %rdx
	popq	%rbx
Ltmp118:
	popq	%r14
Ltmp119:
	popq	%rbp
	retq
Ltmp120:
LBB20_3:
	.loc	9 145 5
	leaq	_str.0(%rip), %rdi
Ltmp121:
	leaq	l___unnamed_9(%rip), %rdx
	movl	$33, %esi
	callq	__ZN4core9panicking5panic17h383a6b80ea7021aaE
Ltmp122:
LBB20_4:
	.loc	9 145 5 is_stmt 0
	leaq	_str.1(%rip), %rdi
Ltmp123:
	leaq	l___unnamed_9(%rip), %rdx
	movl	$28, %esi
	callq	__ZN4core9panicking5panic17h383a6b80ea7021aaE
Ltmp124:
Lfunc_end20:
	.cfi_endproc

	.globl	__ZN59_$LT$rand_core..os..OsRng$u20$as$u20$rand_core..RngCore$GT$8next_u3217h2b48fdfdab7ddd7aE
	.p2align	4, 0x90
__ZN59_$LT$rand_core..os..OsRng$u20$as$u20$rand_core..RngCore$GT$8next_u3217h2b48fdfdab7ddd7aE:
Lfunc_begin21:
	.file	12 "/Users/yingyuhang/.cargo/git/checkouts/rand-cc8f5b7ec2d3b6d9/dca9cb5/rand_core/src/os.rs"
	.loc	12 52 0 is_stmt 1
	.cfi_startproc
	.cfi_personality 155, _rust_eh_personality
	.cfi_lsda 16, Lexception1
	pushq	%rbp
	.cfi_def_cfa_offset 16
	.cfi_offset %rbp, -16
	movq	%rsp, %rbp
	.cfi_def_cfa_register %rbp
Ltmp128:
	pushq	%rbx
	subq	$88, %rsp
	.cfi_offset %rbx, -24
	.loc	9 150 5 prologue_end
	movl	$0, -12(%rbp)
Ltmp129:
	.loc	9 0 5 is_stmt 0
	leaq	-12(%rbp), %rdi
Ltmp130:
	.loc	12 67 9 is_stmt 1
	movl	$4, %esi
	callq	__ZN9getrandom9getrandom17ha69ce59147feb2c1E
	.loc	12 67 24 is_stmt 0
	testl	%eax, %eax
	jne	LBB21_1
Ltmp131:
	.loc	9 151 2 is_stmt 1
	movl	-12(%rbp), %eax
Ltmp132:
	.loc	12 54 6
	addq	$88, %rsp
	popq	%rbx
	popq	%rbp
	retq
Ltmp133:
LBB21_1:
	.loc	12 0 0 is_stmt 0
	movl	%eax, %ebx
Ltmp134:
	.loc	7 80 14 is_stmt 1
	movl	$4, %edi
	movl	$4, %esi
	callq	___rust_alloc
Ltmp135:
	.loc	7 278 9
	testq	%rax, %rax
	jne	LBB21_2
Ltmp136:
	.loc	7 279 19
	movl	$4, %edi
	movl	$4, %esi
	callq	__ZN5alloc5alloc18handle_alloc_error17h28974197717b8939E
Ltmp137:
LBB21_2:
	.loc	8 176 13
	movl	%ebx, (%rax)
Ltmp138:
	.loc	12 61 20
	movq	%rax, -32(%rbp)
	leaq	l___unnamed_2(%rip), %rax
	movq	%rax, -24(%rbp)
	leaq	-32(%rbp), %rax
Ltmp139:
	.loc	12 62 13
	movq	%rax, -48(%rbp)
	leaq	__ZN62_$LT$rand_core..error..Error$u20$as$u20$core..fmt..Display$GT$3fmt17h720e39228d432130E(%rip), %rax
	movq	%rax, -40(%rbp)
Ltmp140:
	.loc	3 328 9
	leaq	l___unnamed_10(%rip), %rax
Ltmp141:
	movq	%rax, -96(%rbp)
	movq	$1, -88(%rbp)
	movq	$0, -80(%rbp)
	leaq	-48(%rbp), %rax
Ltmp142:
	movq	%rax, -64(%rbp)
	movq	$1, -56(%rbp)
Ltmp143:
Ltmp125:
	.loc	12 62 13
	leaq	l___unnamed_11(%rip), %rsi
	leaq	-96(%rbp), %rdi
	callq	__ZN3std9panicking15begin_panic_fmt17h8712912d987f10a1E
Ltmp126:
Ltmp144:
	.loc	12 0 13 is_stmt 0
	ud2
Ltmp145:
LBB21_3:
Ltmp127:
	movq	%rax, %rbx
	leaq	-32(%rbp), %rdi
	.loc	12 63 9 is_stmt 1
	callq	__ZN4core3ptr13drop_in_place17hfaf45f95324defd7E
	movq	%rbx, %rdi
	callq	__Unwind_Resume
	ud2
Ltmp146:
Lfunc_end21:
	.cfi_endproc
	.section	__TEXT,__gcc_except_tab
	.p2align	2
GCC_except_table21:
Lexception1:
	.byte	255
	.byte	255
	.byte	1
	.uleb128 Lcst_end1-Lcst_begin1
Lcst_begin1:
	.uleb128 Lfunc_begin21-Lfunc_begin21
	.uleb128 Ltmp125-Lfunc_begin21
	.byte	0
	.byte	0
	.uleb128 Ltmp125-Lfunc_begin21
	.uleb128 Ltmp126-Ltmp125
	.uleb128 Ltmp127-Lfunc_begin21
	.byte	0
	.uleb128 Ltmp126-Lfunc_begin21
	.uleb128 Lfunc_end21-Ltmp126
	.byte	0
	.byte	0
Lcst_end1:
	.p2align	2

	.section	__TEXT,__text,regular,pure_instructions
	.globl	__ZN59_$LT$rand_core..os..OsRng$u20$as$u20$rand_core..RngCore$GT$8next_u6417he42c794a5dadf3b2E
	.p2align	4, 0x90
__ZN59_$LT$rand_core..os..OsRng$u20$as$u20$rand_core..RngCore$GT$8next_u6417he42c794a5dadf3b2E:
Lfunc_begin22:
	.loc	12 56 0
	.cfi_startproc
	.cfi_personality 155, _rust_eh_personality
	.cfi_lsda 16, Lexception2
	pushq	%rbp
	.cfi_def_cfa_offset 16
	.cfi_offset %rbp, -16
	movq	%rsp, %rbp
	.cfi_def_cfa_register %rbp
Ltmp150:
	pushq	%rbx
	subq	$88, %rsp
	.cfi_offset %rbx, -24
	.loc	9 155 5 prologue_end
	movq	$0, -16(%rbp)
Ltmp151:
	.loc	9 0 5 is_stmt 0
	leaq	-16(%rbp), %rdi
Ltmp152:
	.loc	12 67 9 is_stmt 1
	movl	$8, %esi
	callq	__ZN9getrandom9getrandom17ha69ce59147feb2c1E
	.loc	12 67 24 is_stmt 0
	testl	%eax, %eax
	jne	LBB22_1
Ltmp153:
	.loc	9 156 2 is_stmt 1
	movq	-16(%rbp), %rax
Ltmp154:
	.loc	12 58 6
	addq	$88, %rsp
	popq	%rbx
	popq	%rbp
	retq
Ltmp155:
LBB22_1:
	.loc	12 0 0 is_stmt 0
	movl	%eax, %ebx
Ltmp156:
	.loc	7 80 14 is_stmt 1
	movl	$4, %edi
	movl	$4, %esi
	callq	___rust_alloc
Ltmp157:
	.loc	7 278 9
	testq	%rax, %rax
	jne	LBB22_2
Ltmp158:
	.loc	7 279 19
	movl	$4, %edi
	movl	$4, %esi
	callq	__ZN5alloc5alloc18handle_alloc_error17h28974197717b8939E
Ltmp159:
LBB22_2:
	.loc	8 176 13
	movl	%ebx, (%rax)
Ltmp160:
	.loc	12 61 20
	movq	%rax, -32(%rbp)
	leaq	l___unnamed_2(%rip), %rax
	movq	%rax, -24(%rbp)
	leaq	-32(%rbp), %rax
Ltmp161:
	.loc	12 62 13
	movq	%rax, -48(%rbp)
	leaq	__ZN62_$LT$rand_core..error..Error$u20$as$u20$core..fmt..Display$GT$3fmt17h720e39228d432130E(%rip), %rax
	movq	%rax, -40(%rbp)
Ltmp162:
	.loc	3 328 9
	leaq	l___unnamed_10(%rip), %rax
Ltmp163:
	movq	%rax, -96(%rbp)
	movq	$1, -88(%rbp)
	movq	$0, -80(%rbp)
	leaq	-48(%rbp), %rax
Ltmp164:
	movq	%rax, -64(%rbp)
	movq	$1, -56(%rbp)
Ltmp165:
Ltmp147:
	.loc	12 62 13
	leaq	l___unnamed_11(%rip), %rsi
	leaq	-96(%rbp), %rdi
	callq	__ZN3std9panicking15begin_panic_fmt17h8712912d987f10a1E
Ltmp148:
Ltmp166:
	.loc	12 0 13 is_stmt 0
	ud2
Ltmp167:
LBB22_3:
Ltmp149:
	movq	%rax, %rbx
	leaq	-32(%rbp), %rdi
	.loc	12 63 9 is_stmt 1
	callq	__ZN4core3ptr13drop_in_place17hfaf45f95324defd7E
	movq	%rbx, %rdi
	callq	__Unwind_Resume
	ud2
Ltmp168:
Lfunc_end22:
	.cfi_endproc
	.section	__TEXT,__gcc_except_tab
	.p2align	2
GCC_except_table22:
Lexception2:
	.byte	255
	.byte	255
	.byte	1
	.uleb128 Lcst_end2-Lcst_begin2
Lcst_begin2:
	.uleb128 Lfunc_begin22-Lfunc_begin22
	.uleb128 Ltmp147-Lfunc_begin22
	.byte	0
	.byte	0
	.uleb128 Ltmp147-Lfunc_begin22
	.uleb128 Ltmp148-Ltmp147
	.uleb128 Ltmp149-Lfunc_begin22
	.byte	0
	.uleb128 Ltmp148-Lfunc_begin22
	.uleb128 Lfunc_end22-Ltmp148
	.byte	0
	.byte	0
Lcst_end2:
	.p2align	2

	.section	__TEXT,__text,regular,pure_instructions
	.globl	__ZN59_$LT$rand_core..os..OsRng$u20$as$u20$rand_core..RngCore$GT$10fill_bytes17h786e8aa54824f5d0E
	.p2align	4, 0x90
__ZN59_$LT$rand_core..os..OsRng$u20$as$u20$rand_core..RngCore$GT$10fill_bytes17h786e8aa54824f5d0E:
Lfunc_begin23:
	.loc	12 60 0
	.cfi_startproc
	.cfi_personality 155, _rust_eh_personality
	.cfi_lsda 16, Lexception3
	pushq	%rbp
	.cfi_def_cfa_offset 16
	.cfi_offset %rbp, -16
	movq	%rsp, %rbp
	.cfi_def_cfa_register %rbp
	pushq	%rbx
	subq	$88, %rsp
	.cfi_offset %rbx, -24
	movq	%rsi, %rdi
Ltmp172:
	.loc	12 67 9 prologue_end
	movq	%rdx, %rsi
Ltmp173:
	callq	__ZN9getrandom9getrandom17ha69ce59147feb2c1E
Ltmp174:
	.loc	12 67 24 is_stmt 0
	testl	%eax, %eax
	jne	LBB23_1
Ltmp175:
	.loc	12 64 6 is_stmt 1
	addq	$88, %rsp
	popq	%rbx
	popq	%rbp
	retq
LBB23_1:
Ltmp176:
	.loc	12 0 0 is_stmt 0
	movl	%eax, %ebx
Ltmp177:
	.loc	7 80 14 is_stmt 1
	movl	$4, %edi
	movl	$4, %esi
	callq	___rust_alloc
Ltmp178:
	.loc	7 278 9
	testq	%rax, %rax
	jne	LBB23_4
Ltmp179:
	.loc	7 279 19
	movl	$4, %edi
	movl	$4, %esi
	callq	__ZN5alloc5alloc18handle_alloc_error17h28974197717b8939E
Ltmp180:
LBB23_4:
	.loc	8 176 13
	movl	%ebx, (%rax)
Ltmp181:
	.loc	12 61 20
	movq	%rax, -24(%rbp)
	leaq	l___unnamed_2(%rip), %rax
	movq	%rax, -16(%rbp)
	leaq	-24(%rbp), %rax
Ltmp182:
	.loc	12 62 13
	movq	%rax, -40(%rbp)
	leaq	__ZN62_$LT$rand_core..error..Error$u20$as$u20$core..fmt..Display$GT$3fmt17h720e39228d432130E(%rip), %rax
	movq	%rax, -32(%rbp)
Ltmp183:
	.loc	3 328 9
	leaq	l___unnamed_10(%rip), %rax
Ltmp184:
	movq	%rax, -88(%rbp)
	movq	$1, -80(%rbp)
	movq	$0, -72(%rbp)
	leaq	-40(%rbp), %rax
Ltmp185:
	movq	%rax, -56(%rbp)
	movq	$1, -48(%rbp)
Ltmp186:
Ltmp169:
	.loc	12 62 13
	leaq	l___unnamed_11(%rip), %rsi
	leaq	-88(%rbp), %rdi
	callq	__ZN3std9panicking15begin_panic_fmt17h8712912d987f10a1E
Ltmp170:
Ltmp187:
	.loc	12 0 13 is_stmt 0
	ud2
Ltmp188:
LBB23_5:
Ltmp171:
	movq	%rax, %rbx
	leaq	-24(%rbp), %rdi
	.loc	12 63 9 is_stmt 1
	callq	__ZN4core3ptr13drop_in_place17hfaf45f95324defd7E
	movq	%rbx, %rdi
	callq	__Unwind_Resume
	ud2
Ltmp189:
Lfunc_end23:
	.cfi_endproc
	.section	__TEXT,__gcc_except_tab
	.p2align	2
GCC_except_table23:
Lexception3:
	.byte	255
	.byte	255
	.byte	1
	.uleb128 Lcst_end3-Lcst_begin3
Lcst_begin3:
	.uleb128 Lfunc_begin23-Lfunc_begin23
	.uleb128 Ltmp169-Lfunc_begin23
	.byte	0
	.byte	0
	.uleb128 Ltmp169-Lfunc_begin23
	.uleb128 Ltmp170-Ltmp169
	.uleb128 Ltmp171-Lfunc_begin23
	.byte	0
	.uleb128 Ltmp170-Lfunc_begin23
	.uleb128 Lfunc_end23-Ltmp170
	.byte	0
	.byte	0
Lcst_end3:
	.p2align	2

	.section	__TEXT,__text,regular,pure_instructions
	.globl	__ZN59_$LT$rand_core..os..OsRng$u20$as$u20$rand_core..RngCore$GT$14try_fill_bytes17h53035dcb5a91a77dE
	.p2align	4, 0x90
__ZN59_$LT$rand_core..os..OsRng$u20$as$u20$rand_core..RngCore$GT$14try_fill_bytes17h53035dcb5a91a77dE:
Lfunc_begin24:
	.loc	12 66 0
	.cfi_startproc
	pushq	%rbp
	.cfi_def_cfa_offset 16
	.cfi_offset %rbp, -16
	movq	%rsp, %rbp
	.cfi_def_cfa_register %rbp
	pushq	%rbx
	pushq	%rax
	.cfi_offset %rbx, -24
	movq	%rsi, %rdi
Ltmp190:
	.loc	12 67 9 prologue_end
	movq	%rdx, %rsi
Ltmp191:
	callq	__ZN9getrandom9getrandom17ha69ce59147feb2c1E
Ltmp192:
	.loc	12 67 24 is_stmt 0
	testl	%eax, %eax
	je	LBB24_1
Ltmp193:
	.loc	12 0 0
	movl	%eax, %ebx
Ltmp194:
	.loc	7 80 14 is_stmt 1
	movl	$4, %edi
	movl	$4, %esi
	callq	___rust_alloc
Ltmp195:
	.loc	7 278 9
	testq	%rax, %rax
	je	LBB24_5
Ltmp196:
	.loc	8 176 13
	movl	%ebx, (%rax)
	jmp	LBB24_4
Ltmp197:
LBB24_1:
	.loc	8 0 13 is_stmt 0
	xorl	%eax, %eax
LBB24_4:
	.loc	12 69 6 is_stmt 1
	leaq	l___unnamed_2(%rip), %rdx
	addq	$8, %rsp
	popq	%rbx
	popq	%rbp
	retq
LBB24_5:
Ltmp198:
	.loc	7 279 19
	movl	$4, %edi
	movl	$4, %esi
	callq	__ZN5alloc5alloc18handle_alloc_error17h28974197717b8939E
Ltmp199:
Lfunc_end24:
	.cfi_endproc

	.globl	__ZN60_$LT$dyn$u20$rand_core..RngCore$u20$as$u20$std..io..Read$GT$4read17he508f4ea38340779E
	.p2align	4, 0x90
__ZN60_$LT$dyn$u20$rand_core..RngCore$u20$as$u20$std..io..Read$GT$4read17he508f4ea38340779E:
Lfunc_begin25:
	.file	13 "/Users/yingyuhang/.cargo/git/checkouts/rand-cc8f5b7ec2d3b6d9/dca9cb5/rand_core/src/lib.rs"
	.loc	13 429 0
	.cfi_startproc
	.cfi_personality 155, _rust_eh_personality
	.cfi_lsda 16, Lexception4
	pushq	%rbp
	.cfi_def_cfa_offset 16
	.cfi_offset %rbp, -16
	movq	%rsp, %rbp
	.cfi_def_cfa_register %rbp
	pushq	%r15
	pushq	%r14
	pushq	%r13
	pushq	%r12
	pushq	%rbx
	subq	$40, %rsp
	.cfi_offset %rbx, -56
	.cfi_offset %r12, -48
	.cfi_offset %r13, -40
	.cfi_offset %r14, -32
	.cfi_offset %r15, -24
	movq	%r8, %rbx
	movq	%rdx, %rax
	movq	%rdi, %r14
Ltmp216:
	.loc	13 430 9 prologue_end
	movq	%rsi, %rdi
Ltmp217:
	movq	%rcx, %rsi
Ltmp218:
	movq	%r8, %rdx
	callq	*48(%rax)
Ltmp219:
	.loc	13 430 33 is_stmt 0
	testq	%rax, %rax
	je	LBB25_1
Ltmp220:
	.loc	13 0 33
	movq	%rax, %r13
	movq	%rdx, %r15
	movq	%rax, -72(%rbp)
	movq	%rdx, -64(%rbp)
Ltmp221:
	.loc	1 562 21 is_stmt 1
	movq	32(%rdx), %rbx
Ltmp222:
Ltmp200:
	movq	%rax, %rdi
	callq	*%rbx
Ltmp201:
Ltmp223:
	.loc	1 0 21 is_stmt 0
	movabsq	$7508826005076360610, %rcx
Ltmp224:
	.file	14 "/rustc/6c8927b0cf80ceee19386026cf9d7fd4fd9d486f/src/libcore/any.rs"
	.loc	14 418 5 is_stmt 1
	cmpq	%rcx, %rax
Ltmp225:
	.loc	2 77 20
	jne	LBB25_4
Ltmp226:
Ltmp208:
	.loc	2 78 24
	movq	%r13, %rdi
	callq	__ZN3std2io5error5Error12raw_os_error17h2e03d9abad56699dE
Ltmp209:
Ltmp227:
	.loc	2 184 16
	cmpl	$1, %eax
	je	LBB25_10
	jmp	LBB25_16
Ltmp228:
LBB25_1:
	.loc	13 431 9
	movq	%rbx, 8(%r14)
	movq	$0, (%r14)
	jmp	LBB25_19
Ltmp229:
LBB25_4:
Ltmp202:
	.loc	1 562 21
	movq	%r13, %rdi
	callq	*%rbx
Ltmp203:
Ltmp230:
	.loc	1 0 21 is_stmt 0
	movabsq	$4920746995433179163, %rcx
Ltmp231:
	.loc	14 418 5 is_stmt 1
	cmpq	%rcx, %rax
Ltmp232:
	.file	15 "/rustc/6c8927b0cf80ceee19386026cf9d7fd4fd9d486f/src/libcore/option.rs"
	.loc	15 456 13
	jne	LBB25_16
Ltmp233:
	.loc	15 456 29 is_stmt 0
	movl	(%r13), %r12d
Ltmp234:
	.loc	2 82 13 is_stmt 1
	testl	%r12d, %r12d
	je	LBB25_16
Ltmp235:
Ltmp204:
	.loc	2 82 27 is_stmt 0
	movl	%r12d, %edi
	callq	__ZN4core3num82_$LT$impl$u20$core..convert..From$LT$core..num..NonZeroU32$GT$$u20$for$u20$u32$GT$4from17h5209fa46ce37477cE
Ltmp205:
Ltmp236:
	testl	%eax, %eax
	js	LBB25_16
Ltmp237:
Ltmp206:
	.loc	2 82 74
	movl	%r12d, %edi
	callq	__ZN4core3num82_$LT$impl$u20$core..convert..From$LT$core..num..NonZeroU32$GT$$u20$for$u20$u32$GT$4from17h5209fa46ce37477cE
	movl	%eax, %edx
Ltmp207:
Ltmp238:
LBB25_10:
Ltmp210:
	.loc	2 0 74
	leaq	-56(%rbp), %rdi
Ltmp239:
	.loc	2 185 13 is_stmt 1
	movl	%edx, %esi
	callq	__ZN3std2io5error5Error17from_raw_os_error17h511d755f55958c1eE
Ltmp211:
Ltmp240:
Ltmp213:
	.loc	6 184 1
	movq	%r13, %rdi
	callq	*(%r15)
Ltmp214:
Ltmp241:
	.loc	7 292 20
	movq	8(%r15), %rsi
Ltmp242:
	.loc	7 185 12
	testq	%rsi, %rsi
	.loc	7 185 9 is_stmt 0
	je	LBB25_18
Ltmp243:
	.loc	7 293 21 is_stmt 1
	movq	16(%r15), %rdx
Ltmp244:
	.loc	7 102 14
	movq	%r13, %rdi
	callq	___rust_dealloc
Ltmp245:
	.loc	7 0 14 is_stmt 0
	jmp	LBB25_18
Ltmp246:
LBB25_16:
	.loc	7 80 14 is_stmt 1
	movl	$16, %edi
	movl	$8, %esi
	callq	___rust_alloc
Ltmp247:
	.loc	7 278 9
	testq	%rax, %rax
	je	LBB25_22
Ltmp248:
	.loc	8 176 13
	movq	%r13, (%rax)
	movq	%r15, 8(%rax)
Ltmp249:
	.file	16 "/rustc/6c8927b0cf80ceee19386026cf9d7fd4fd9d486f/src/libstd/io/error.rs"
	.loc	16 256 9
	leaq	l___unnamed_1(%rip), %rcx
	leaq	-56(%rbp), %rdi
	movl	$16, %esi
	movq	%rax, %rdx
	callq	__ZN3std2io5error5Error4_new17hb256250a216f5df7E
Ltmp250:
LBB25_18:
	.file	17 "/rustc/6c8927b0cf80ceee19386026cf9d7fd4fd9d486f/src/libcore/result.rs"
	.loc	17 1586 9
	movq	-56(%rbp), %rax
	movq	-48(%rbp), %rcx
	movq	%rcx, 16(%r14)
	movq	%rax, 8(%r14)
	movq	$1, (%r14)
Ltmp251:
LBB25_19:
	.loc	13 432 6
	movq	%r14, %rax
	addq	$40, %rsp
	popq	%rbx
	popq	%r12
	popq	%r13
	popq	%r14
	popq	%r15
	popq	%rbp
	retq
LBB25_22:
Ltmp252:
	.loc	7 279 19
	movl	$16, %edi
	movl	$8, %esi
	callq	__ZN5alloc5alloc18handle_alloc_error17h28974197717b8939E
Ltmp253:
LBB25_23:
Ltmp215:
	.loc	7 0 19 is_stmt 0
	movq	%rax, %r14
Ltmp254:
	.loc	6 184 1 is_stmt 1
	movq	%r13, %rdi
	movq	%r15, %rsi
	callq	__ZN5alloc5alloc8box_free17h0812ce50537e580fE
	jmp	LBB25_21
Ltmp255:
LBB25_20:
Ltmp212:
	.loc	6 0 1 is_stmt 0
	movq	%rax, %r14
	leaq	-72(%rbp), %rdi
	.loc	2 189 5 is_stmt 1
	callq	__ZN4core3ptr13drop_in_place17hfaf45f95324defd7E
Ltmp256:
LBB25_21:
	.loc	2 0 5 is_stmt 0
	movq	%r14, %rdi
	callq	__Unwind_Resume
	ud2
Lfunc_end25:
	.cfi_endproc
	.file	18 "/rustc/6c8927b0cf80ceee19386026cf9d7fd4fd9d486f/src/libcore/convert/mod.rs"
	.section	__TEXT,__gcc_except_tab
	.p2align	2
GCC_except_table25:
Lexception4:
	.byte	255
	.byte	255
	.byte	1
	.uleb128 Lcst_end4-Lcst_begin4
Lcst_begin4:
	.uleb128 Lfunc_begin25-Lfunc_begin25
	.uleb128 Ltmp200-Lfunc_begin25
	.byte	0
	.byte	0
	.uleb128 Ltmp200-Lfunc_begin25
	.uleb128 Ltmp211-Ltmp200
	.uleb128 Ltmp212-Lfunc_begin25
	.byte	0
	.uleb128 Ltmp213-Lfunc_begin25
	.uleb128 Ltmp214-Ltmp213
	.uleb128 Ltmp215-Lfunc_begin25
	.byte	0
	.uleb128 Ltmp214-Lfunc_begin25
	.uleb128 Lfunc_end25-Ltmp214
	.byte	0
	.byte	0
Lcst_end4:
	.p2align	2

	.section	__TEXT,__text,regular,pure_instructions
	.globl	__ZN64_$LT$rand_core..error..ErrorCode$u20$as$u20$core..fmt..Debug$GT$3fmt17h0dd7613059fda684E
	.p2align	4, 0x90
__ZN64_$LT$rand_core..error..ErrorCode$u20$as$u20$core..fmt..Debug$GT$3fmt17h0dd7613059fda684E:
Lfunc_begin26:
	.loc	2 193 0 is_stmt 1
	.cfi_startproc
	pushq	%rbp
	.cfi_def_cfa_offset 16
	.cfi_offset %rbp, -16
	movq	%rsp, %rbp
	.cfi_def_cfa_register %rbp
	pushq	%r14
	pushq	%rbx
	subq	$32, %rsp
	.cfi_offset %rbx, -32
	.cfi_offset %r14, -24
	movq	%rdi, %rbx
Ltmp257:
	.loc	2 193 10 prologue_end
	leaq	l___unnamed_12(%rip), %rdx
	leaq	-48(%rbp), %r14
	movl	$9, %ecx
	movq	%r14, %rdi
	callq	__ZN4core3fmt9Formatter11debug_tuple17h6c448643801d07e8E
Ltmp258:
	.loc	2 194 18
	movq	%rbx, -24(%rbp)
	.loc	2 193 10
	leaq	l___unnamed_3(%rip), %rdx
	leaq	-24(%rbp), %rsi
	movq	%r14, %rdi
	callq	__ZN4core3fmt8builders10DebugTuple5field17hc7b676d0e36b51d9E
	movq	%r14, %rdi
	callq	__ZN4core3fmt8builders10DebugTuple6finish17h9f206806f7096c33E
Ltmp259:
	.loc	2 193 15 is_stmt 0
	addq	$32, %rsp
	popq	%rbx
Ltmp260:
	popq	%r14
	popq	%rbp
	retq
Ltmp261:
Lfunc_end26:
	.cfi_endproc

	.globl	__ZN57_$LT$rand_core..os..OsRng$u20$as$u20$core..fmt..Debug$GT$3fmt17hbc8d59557686de2cE
	.p2align	4, 0x90
__ZN57_$LT$rand_core..os..OsRng$u20$as$u20$core..fmt..Debug$GT$3fmt17hbc8d59557686de2cE:
Lfunc_begin27:
	.loc	12 46 0 is_stmt 1
	.cfi_startproc
	pushq	%rbp
	.cfi_def_cfa_offset 16
	.cfi_offset %rbp, -16
	movq	%rsp, %rbp
	.cfi_def_cfa_register %rbp
Ltmp262:
	pushq	%rbx
	subq	$24, %rsp
	.cfi_offset %rbx, -24
	.loc	12 46 23 prologue_end
	leaq	l___unnamed_13(%rip), %rdx
	leaq	-32(%rbp), %rbx
	movl	$5, %ecx
	movq	%rbx, %rdi
Ltmp263:
	callq	__ZN4core3fmt9Formatter11debug_tuple17h6c448643801d07e8E
Ltmp264:
	.loc	12 46 23 is_stmt 0
	movq	%rbx, %rdi
	callq	__ZN4core3fmt8builders10DebugTuple6finish17h9f206806f7096c33E
Ltmp265:
	.loc	12 46 28
	addq	$24, %rsp
	popq	%rbx
	popq	%rbp
	retq
Ltmp266:
Lfunc_end27:
	.cfi_endproc

	.section	__DATA,__const
	.p2align	3
l___unnamed_1:
	.quad	__ZN4core3ptr13drop_in_place17hfaf45f95324defd7E
	.quad	16
	.quad	8
	.quad	__ZN61_$LT$rand_core..error..Error$u20$as$u20$std..error..Error$GT$6source17hf322e1f295228471E
	.quad	__ZN3std5error5Error7type_id17hf66fd6e369b6562bE
	.quad	__ZN3std5error5Error9backtrace17he14d3d702c457c6aE
	.quad	__ZN3std5error5Error11description17h2bfad5a06ad2e419E
	.quad	__ZN3std5error5Error5cause17h6bdb6012dbce3fc2E
	.quad	__ZN62_$LT$rand_core..error..Error$u20$as$u20$core..fmt..Display$GT$3fmt17h720e39228d432130E
	.quad	__ZN60_$LT$rand_core..error..Error$u20$as$u20$core..fmt..Debug$GT$3fmt17h8b2387ade57f192fE

	.section	__TEXT,__const
l___unnamed_4:
	.ascii	"description() is deprecated; use Display"

l___unnamed_14:
	.ascii	"Error { inner: "

l___unnamed_15:
	.ascii	" }"

	.section	__DATA,__const
	.p2align	3
l___unnamed_5:
	.quad	l___unnamed_14
	.asciz	"\017\000\000\000\000\000\000"
	.quad	l___unnamed_15
	.asciz	"\002\000\000\000\000\000\000"

	.section	__TEXT,__const
l___unnamed_16:
	.byte	0

	.section	__DATA,__const
	.p2align	3
l___unnamed_6:
	.quad	l___unnamed_16
	.space	8

	.p2align	3
l___unnamed_2:
	.quad	__ZN4core3ptr13drop_in_place17h6a8a24d334e44810E
	.quad	4
	.quad	4
	.quad	__ZN3std5error5Error5cause17h0045f9ee44180f61E
	.quad	__ZN3std5error5Error7type_id17h5f48b84d33fe04a4E
	.quad	__ZN3std5error5Error9backtrace17hc49bb3fadec15a41E
	.quad	__ZN3std5error5Error11description17h9b5e8c47f19cdf8cE
	.quad	__ZN3std5error5Error5cause17h0045f9ee44180f61E
	.quad	__ZN62_$LT$getrandom..error..Error$u20$as$u20$core..fmt..Display$GT$3fmt17hee65f306fa090226E
	.quad	__ZN60_$LT$getrandom..error..Error$u20$as$u20$core..fmt..Debug$GT$3fmt17hb526f0ed84dc59d0E

	.section	__TEXT,__const
l___unnamed_17:
	.ascii	"error code "

	.section	__DATA,__const
	.p2align	3
l___unnamed_7:
	.quad	l___unnamed_17
	.asciz	"\013\000\000\000\000\000\000"

	.section	__TEXT,__const
l___unnamed_18:
	.ascii	"/Users/yingyuhang/.cargo/git/checkouts/rand-cc8f5b7ec2d3b6d9/dca9cb5/rand_core/src/impls.rs"

	.section	__DATA,__const
	.p2align	3
l___unnamed_8:
	.quad	l___unnamed_18
	.asciz	"[\000\000\000\000\000\000\000\203\000\000\000\005\000\000"

	.section	__TEXT,__const
	.p2align	4
_str.0:
	.ascii	"attempt to multiply with overflow"

	.p2align	4
_str.1:
	.ascii	"attempt to add with overflow"

	.section	__DATA,__const
	.p2align	3
l___unnamed_9:
	.quad	l___unnamed_18
	.asciz	"[\000\000\000\000\000\000\000\221\000\000\000\005\000\000"

	.section	__TEXT,__const
l___unnamed_19:
	.ascii	"Error: "

	.section	__DATA,__const
	.p2align	3
l___unnamed_10:
	.quad	l___unnamed_19
	.asciz	"\007\000\000\000\000\000\000"

	.section	__TEXT,__const
l___unnamed_20:
	.ascii	"/Users/yingyuhang/.cargo/git/checkouts/rand-cc8f5b7ec2d3b6d9/dca9cb5/rand_core/src/os.rs"

	.section	__DATA,__const
	.p2align	3
l___unnamed_11:
	.quad	l___unnamed_20
	.asciz	"X\000\000\000\000\000\000\000>\000\000\000\r\000\000"

	.section	__TEXT,__const
l___unnamed_12:
	.ascii	"ErrorCode"

	.section	__DATA,__const
	.p2align	3
l___unnamed_3:
	.quad	__ZN4core3ptr13drop_in_place17h6a8a24d334e44810E
	.quad	8
	.quad	8
	.quad	__ZN42_$LT$$RF$T$u20$as$u20$core..fmt..Debug$GT$3fmt17h63e1f17ad89eb533E

	.section	__TEXT,__const
l___unnamed_13:
	.ascii	"OsRng"

	.section	__DATA,__const
Lsec_end0:
	.section	__TEXT,__text,regular,pure_instructions
Lsec_end1: