	.section	__TEXT,__text,regular,pure_instructions
	.macosx_version_min 10, 7
	.file	1 "/Users/yingyuhang/.cargo/registry/src/github.com-1ecc6299db9ec823/rayon-core-1.7.1/src/registry.rs"
	.file	2 "/Users/yingyuhang/.cargo/registry/src/github.com-1ecc6299db9ec823/lazy_static-1.4.0/src/lib.rs"
	.file	3 "/Users/yingyuhang/.cargo/registry/src/github.com-1ecc6299db9ec823/lazy_static-1.4.0/src/inline_lazy.rs"
	.file	4 "/rustc/6c8927b0cf80ceee19386026cf9d7fd4fd9d486f/src/libstd/thread/local.rs"
	.p2align	4, 0x90
__ZN15crossbeam_deque15Worker$LT$T$GT$6resize17hd49a16366cc76829E:
Lfunc_begin0:
	.file	5 "/Users/yingyuhang/.cargo/registry/src/github.com-1ecc6299db9ec823/crossbeam-deque-0.7.3/src/lib.rs"
	.loc	5 379 0
	.cfi_startproc
	.cfi_personality 155, _rust_eh_personality
	.cfi_lsda 16, Lexception0
	pushq	%rbp
	.cfi_def_cfa_offset 16
	.cfi_offset %rbp, -16
	movq	%rsp, %rbp
	.cfi_def_cfa_register %rbp
Ltmp7:
	pushq	%r15
	pushq	%r14
	pushq	%r13
	pushq	%r12
	pushq	%rbx
	subq	$136, %rsp
	.cfi_offset %rbx, -56
	.cfi_offset %r12, -48
	.cfi_offset %r13, -40
	.cfi_offset %r14, -32
	.cfi_offset %r15, -24
	.loc	5 381 17 prologue_end
	movq	(%rdi), %rax
Ltmp8:
	.file	6 "/rustc/6c8927b0cf80ceee19386026cf9d7fd4fd9d486f/src/libcore/sync/atomic.rs"
	.loc	6 2356 24
	movq	264(%rax), %r14
Ltmp9:
	.loc	6 2356 24 is_stmt 0
	movq	256(%rax), %r8
Ltmp10:
	.loc	5 383 22 is_stmt 1
	movq	8(%rdi), %r15
	movq	16(%rdi), %r12
Ltmp11:
	.loc	5 0 22 is_stmt 0
	movq	%rsi, -104(%rbp)
Ltmp12:
	.file	7 "/rustc/6c8927b0cf80ceee19386026cf9d7fd4fd9d486f/src/libcore/num/mod.rs"
	.loc	7 4193 16 is_stmt 1
	cmpq	$2, %rsi
	.loc	7 4193 13 is_stmt 0
	jae	LBB0_2
Ltmp13:
	.loc	7 0 13
	xorl	%eax, %eax
Ltmp14:
	jmp	LBB0_3
Ltmp15:
LBB0_2:
	.loc	7 4195 21 is_stmt 1
	leaq	-1(%rsi), %rax
Ltmp16:
	.loc	7 4200 30
	bsrq	%rax, %rcx
	xorl	$63, %ecx
Ltmp17:
	.loc	7 0 30 is_stmt 0
	movq	$-1, %rax
Ltmp18:
	.loc	7 4201 13 is_stmt 1
	shrq	%cl, %rax
Ltmp19:
LBB0_3:
	.loc	7 4224 17
	incq	%rax
	je	LBB0_38
Ltmp20:
	.loc	5 137 31
	movq	%rax, -112(%rbp)
Ltmp21:
	.file	8 "/rustc/6c8927b0cf80ceee19386026cf9d7fd4fd9d486f/src/libcore/macros/mod.rs"
	.loc	8 49 21
	cmpq	%rsi, %rax
	.loc	8 49 17 is_stmt 0
	jne	LBB0_11
Ltmp22:
	.loc	8 0 17
	movq	%rsi, %rax
Ltmp23:
	movl	$16, %ecx
Ltmp24:
	.file	9 "/rustc/6c8927b0cf80ceee19386026cf9d7fd4fd9d486f/src/libcore/alloc/layout.rs"
	.loc	9 286 85 is_stmt 1
	xorl	%r13d, %r13d
	movq	%rsi, -96(%rbp)
Ltmp25:
	.loc	7 3807 26
	mulq	%rcx
Ltmp26:
	.loc	9 286 85
	setno	%cl
Ltmp27:
	.file	10 "/rustc/6c8927b0cf80ceee19386026cf9d7fd4fd9d486f/src/liballoc/raw_vec.rs"
	.loc	10 176 17
	jo	LBB0_39
Ltmp28:
	.loc	10 0 17 is_stmt 0
	movq	%rdi, -88(%rbp)
Ltmp29:
	movb	%cl, %r13b
	shlq	$3, %r13
Ltmp30:
	.file	11 "/rustc/6c8927b0cf80ceee19386026cf9d7fd4fd9d486f/src/liballoc/alloc.rs"
	.loc	11 170 16 is_stmt 1
	testq	%rax, %rax
	movq	%rax, -48(%rbp)
	.loc	11 170 13 is_stmt 0
	je	LBB0_7
Ltmp31:
	.loc	11 0 13
	movq	%rax, %rdi
Ltmp32:
	.loc	11 80 14 is_stmt 1
	movq	%r13, %rsi
Ltmp33:
	.loc	11 0 14 is_stmt 0
	movq	%r8, %rbx
Ltmp34:
	.loc	11 80 14
	callq	___rust_alloc
Ltmp35:
	.loc	11 0 14
	movq	%rbx, %r8
	.loc	11 80 14
	movq	%rax, %rbx
Ltmp36:
	.loc	10 184 17 is_stmt 1
	testq	%rbx, %rbx
	je	LBB0_10
Ltmp37:
LBB0_12:
	.loc	5 388 15
	cmpq	%r8, %r14
	movq	-96(%rbp), %r13
Ltmp38:
	.loc	5 388 9 is_stmt 0
	je	LBB0_19
Ltmp39:
	.loc	5 0 0
	movq	%r13, %rax
	subq	$1, %rax
	setb	%cl
Ltmp40:
	subq	$1, %r12
Ltmp41:
	.loc	5 388 9
	jb	LBB0_40
Ltmp42:
	testb	%cl, %cl
	jne	LBB0_40
Ltmp43:
	movl	%r14d, %edx
	subl	%r8d, %edx
	movq	%r8, %rcx
	testb	$1, %dl
	je	LBB0_17
Ltmp44:
	.loc	5 154 25 is_stmt 1
	movq	%r8, %rcx
	andq	%r12, %rcx
Ltmp45:
	.file	12 "/rustc/6c8927b0cf80ceee19386026cf9d7fd4fd9d486f/src/libcore/ptr/mut_ptr.rs"
	.loc	12 165 18
	shlq	$4, %rcx
Ltmp46:
	.loc	5 154 25
	movq	%r8, %rdx
	andq	%rax, %rdx
Ltmp47:
	.loc	12 165 18
	shlq	$4, %rdx
Ltmp48:
	.file	13 "/rustc/6c8927b0cf80ceee19386026cf9d7fd4fd9d486f/src/libcore/intrinsics.rs"
	.loc	13 2130 14
	movq	(%r15,%rcx), %rsi
	movq	8(%r15,%rcx), %rcx
	movq	%rcx, 8(%rbx,%rdx)
	movq	%rsi, (%rbx,%rdx)
Ltmp49:
	.loc	7 1309 17
	leaq	1(%r8), %rcx
Ltmp50:
LBB0_17:
	.loc	5 388 9
	incq	%r8
	cmpq	%r8, %r14
	je	LBB0_19
Ltmp51:
	.p2align	4, 0x90
LBB0_18:
	.loc	5 154 25
	movq	%rcx, %rdx
	andq	%r12, %rdx
Ltmp52:
	.loc	12 165 18
	shlq	$4, %rdx
Ltmp53:
	.loc	5 154 25
	movq	%rcx, %rsi
	andq	%rax, %rsi
Ltmp54:
	.loc	12 165 18
	shlq	$4, %rsi
Ltmp55:
	.loc	13 2130 14
	movq	(%r15,%rdx), %rdi
	movq	8(%r15,%rdx), %rdx
	movq	%rdx, 8(%rbx,%rsi)
	movq	%rdi, (%rbx,%rsi)
Ltmp56:
	.loc	7 1309 17
	leaq	1(%rcx), %rdx
Ltmp57:
	.loc	5 154 25
	movq	%rdx, %rsi
	andq	%r12, %rsi
Ltmp58:
	.loc	12 165 18
	shlq	$4, %rsi
Ltmp59:
	.loc	5 154 25
	andq	%rax, %rdx
Ltmp60:
	.loc	12 165 18
	shlq	$4, %rdx
Ltmp61:
	.loc	13 2130 14
	movq	(%r15,%rsi), %rdi
	movq	8(%r15,%rsi), %rsi
	movq	%rsi, 8(%rbx,%rdx)
	movq	%rdi, (%rbx,%rdx)
Ltmp62:
	.loc	5 388 15
	addq	$2, %rcx
	cmpq	%r14, %rcx
	.loc	5 388 9 is_stmt 0
	jne	LBB0_18
Ltmp63:
LBB0_19:
	.loc	5 393 22 is_stmt 1
	callq	__ZN15crossbeam_epoch7default3pin17hacc593d145951670E
	movq	%rax, -80(%rbp)
Ltmp64:
	.loc	5 0 22 is_stmt 0
	movq	-88(%rbp), %rax
Ltmp65:
	.loc	13 2130 14 is_stmt 1
	movq	%rbx, 8(%rax)
	movq	%r13, 16(%rax)
Ltmp66:
	.loc	5 398 13
	movq	(%rax), %r14
Ltmp67:
	.loc	11 80 14
	movl	$16, %edi
	movl	$8, %esi
	callq	___rust_alloc
Ltmp68:
	.loc	11 278 9
	testq	%rax, %rax
Ltmp69:
	je	LBB0_41
Ltmp70:
	.file	14 "/rustc/6c8927b0cf80ceee19386026cf9d7fd4fd9d486f/src/liballoc/boxed.rs"
	.loc	14 0 0 is_stmt 0
	movq	%rax, %r15
	.loc	14 176 13 is_stmt 1
	movq	%rbx, (%rax)
	movq	%r13, 8(%rax)
Ltmp71:
	.loc	6 2371 24
	xchgq	%r15, 128(%r14)
Ltmp72:
	.file	15 "/Users/yingyuhang/.cargo/registry/src/github.com-1ecc6299db9ec823/crossbeam-epoch-0.8.2/src/guard.rs"
	.loc	15 194 30
	movq	-80(%rbp), %rdi
	.loc	15 194 16 is_stmt 0
	testq	%rdi, %rdi
	je	LBB0_21
Ltmp73:
	.file	16 "/Users/yingyuhang/.cargo/registry/src/github.com-1ecc6299db9ec823/crossbeam-epoch-0.8.2/src/deferred.rs"
	.loc	16 49 17 is_stmt 1
	leaq	__ZN15crossbeam_epoch8deferred8Deferred3new4call17h93a123aaf3073f19E(%rip), %rax
	movq	%rax, -176(%rbp)
	movq	%r15, -168(%rbp)
Ltmp0:
	leaq	-176(%rbp), %rsi
	leaq	-80(%rbp), %rdx
Ltmp74:
	.loc	15 195 13
	callq	__ZN15crossbeam_epoch8internal5Local5defer17h9747dd46e10480a8E
Ltmp75:
Ltmp1:
	.loc	15 0 13 is_stmt 0
	movq	-48(%rbp), %rax
	.loc	5 407 12 is_stmt 1
	cmpq	$1024, %rax
	.loc	5 407 9 is_stmt 0
	jae	LBB0_30
	jmp	LBB0_31
Ltmp76:
LBB0_7:
	.loc	11 0 0
	movq	%r13, %rbx
Ltmp77:
	.loc	10 184 17 is_stmt 1
	testq	%rbx, %rbx
	jne	LBB0_12
Ltmp78:
LBB0_10:
	.loc	10 0 17 is_stmt 0
	movq	-48(%rbp), %rdi
	.loc	10 185 27 is_stmt 1
	movq	%r13, %rsi
	callq	__ZN5alloc5alloc18handle_alloc_error17h28974197717b8939E
Ltmp79:
LBB0_21:
	.file	17 "/Users/yingyuhang/.cargo/registry/src/github.com-1ecc6299db9ec823/crossbeam-epoch-0.8.2/src/atomic.rs"
	.loc	17 1077 13
	cmpq	$7, %r15
	.loc	8 184 59
	jbe	LBB0_22
Ltmp80:
	.loc	17 113 15
	andq	$-8, %r15
Ltmp81:
	.loc	5 403 39
	movq	8(%r15), %rsi
Ltmp82:
	.loc	10 235 40
	testq	%rsi, %rsi
	.loc	10 235 9 is_stmt 0
	je	LBB0_27
Ltmp83:
	.loc	10 242 28 is_stmt 1
	shlq	$4, %rsi
Ltmp84:
	.loc	10 507 16
	je	LBB0_27
Ltmp85:
	.loc	5 0 0 is_stmt 0
	movq	(%r15), %rdi
Ltmp86:
	.loc	11 102 14 is_stmt 1
	movl	$8, %edx
	callq	___rust_dealloc
Ltmp87:
LBB0_27:
	.loc	11 102 14 is_stmt 0
	movl	$16, %esi
	movl	$8, %edx
	movq	%r15, %rdi
	callq	___rust_dealloc
	movq	-48(%rbp), %rax
Ltmp88:
	.loc	5 407 12 is_stmt 1
	cmpq	$1024, %rax
	.loc	5 407 9 is_stmt 0
	jb	LBB0_31
Ltmp89:
LBB0_30:
Ltmp2:
	.loc	5 0 9
	leaq	-80(%rbp), %rdi
	.loc	5 408 13 is_stmt 1
	callq	__ZN15crossbeam_epoch5guard5Guard5flush17h224d6d7f21335e5dE
Ltmp3:
Ltmp90:
LBB0_31:
	.loc	15 422 39
	movq	-80(%rbp), %rdi
	.loc	15 422 16 is_stmt 0
	testq	%rdi, %rdi
	je	LBB0_36
Ltmp91:
	.file	18 "/Users/yingyuhang/.cargo/registry/src/github.com-1ecc6299db9ec823/crossbeam-epoch-0.8.2/src/internal.rs"
	.loc	18 507 27 is_stmt 1
	movq	2080(%rdi), %rax
Ltmp92:
	.loc	18 508 30
	subq	$1, %rax
Ltmp93:
	jb	LBB0_42
Ltmp94:
	.loc	13 2130 14
	movq	%rax, 2080(%rdi)
Ltmp95:
	.loc	18 510 9
	jne	LBB0_36
Ltmp96:
	.loc	6 2341 24
	movq	$0, 8(%rdi)
Ltmp97:
	.loc	18 513 16
	cmpq	$0, 2088(%rdi)
	.loc	18 513 13 is_stmt 0
	je	LBB0_35
Ltmp98:
LBB0_36:
	.loc	5 410 6 is_stmt 1
	addq	$136, %rsp
	popq	%rbx
	popq	%r12
	popq	%r13
	popq	%r14
	popq	%r15
	popq	%rbp
	retq
LBB0_35:
Ltmp99:
	.loc	18 514 17
	callq	__ZN15crossbeam_epoch8internal5Local8finalize17h52a48f6fa778720fE
Ltmp100:
	.loc	18 0 17 is_stmt 0
	jmp	LBB0_36
Ltmp101:
LBB0_38:
	.loc	7 4224 17 is_stmt 1
	leaq	_str.4(%rip), %rdi
Ltmp102:
	leaq	l___unnamed_31(%rip), %rdx
	movl	$28, %esi
Ltmp103:
	callq	__ZN4core9panicking5panic17h383a6b80ea7021aaE
Ltmp104:
LBB0_11:
	.loc	7 0 17 is_stmt 0
	leaq	-104(%rbp), %rax
Ltmp105:
	.loc	8 55 19 is_stmt 1
	movq	%rax, -120(%rbp)
	leaq	-112(%rbp), %rax
	.loc	8 55 31 is_stmt 0
	movq	%rax, -128(%rbp)
	leaq	-120(%rbp), %rax
Ltmp106:
	.file	19 "/rustc/6c8927b0cf80ceee19386026cf9d7fd4fd9d486f/src/libstd/macros.rs"
	.loc	19 16 38 is_stmt 1
	movq	%rax, -80(%rbp)
	leaq	__ZN42_$LT$$RF$T$u20$as$u20$core..fmt..Debug$GT$3fmt17h42c3be5525de318cE(%rip), %rax
	movq	%rax, -72(%rbp)
	leaq	-128(%rbp), %rcx
	movq	%rcx, -64(%rbp)
	movq	%rax, -56(%rbp)
Ltmp107:
	.file	20 "/rustc/6c8927b0cf80ceee19386026cf9d7fd4fd9d486f/src/libcore/fmt/mod.rs"
	.loc	20 328 9
	leaq	l___unnamed_32(%rip), %rax
Ltmp108:
	movq	%rax, -176(%rbp)
	movq	$3, -168(%rbp)
	movq	$0, -160(%rbp)
	leaq	-80(%rbp), %rax
Ltmp109:
	movq	%rax, -144(%rbp)
	movq	$2, -136(%rbp)
Ltmp110:
	.loc	19 16 9
	leaq	l___unnamed_33(%rip), %rsi
Ltmp111:
	.loc	19 0 9 is_stmt 0
	leaq	-176(%rbp), %rdi
Ltmp112:
	.loc	19 16 9
	callq	__ZN3std9panicking15begin_panic_fmt17h8712912d987f10a1E
Ltmp113:
LBB0_39:
	.loc	10 177 27 is_stmt 1
	callq	__ZN5alloc7raw_vec17capacity_overflow17h7526b10e27579d59E
Ltmp114:
LBB0_40:
	.loc	5 0 0 is_stmt 0
	leaq	_str.0(%rip), %rdi
	leaq	l___unnamed_34(%rip), %rdx
	movl	$33, %esi
	callq	__ZN4core9panicking5panic17h383a6b80ea7021aaE
Ltmp115:
LBB0_41:
	.loc	11 279 19 is_stmt 1
	movl	$16, %edi
	movl	$8, %esi
	callq	__ZN5alloc5alloc18handle_alloc_error17h28974197717b8939E
Ltmp116:
LBB0_42:
	.loc	18 508 30
	leaq	_str.0(%rip), %rdi
Ltmp117:
	leaq	l___unnamed_35(%rip), %rdx
	movl	$33, %esi
	callq	__ZN4core9panicking5panic17h383a6b80ea7021aaE
Ltmp118:
LBB0_22:
Ltmp4:
	.loc	19 13 23
	leaq	l___unnamed_36(%rip), %rdi
	leaq	l___unnamed_37(%rip), %rdx
	movl	$39, %esi
	callq	__ZN3std9panicking11begin_panic17h6ef357f3fd72cd14E
Ltmp5:
Ltmp119:
	ud2
Ltmp120:
LBB0_37:
Ltmp6:
	.loc	19 0 23 is_stmt 0
	movq	%rax, %rbx
Ltmp121:
	leaq	-80(%rbp), %rdi
	.loc	5 410 5 is_stmt 1
	callq	__ZN4core3ptr13drop_in_place17hdf72b5351b4dfc04E
	movq	%rbx, %rdi
	callq	__Unwind_Resume
	ud2
Ltmp122:
Lfunc_end0:
	.cfi_endproc
	.file	21 "/rustc/6c8927b0cf80ceee19386026cf9d7fd4fd9d486f/src/liballoc/vec.rs"
	.file	22 "/rustc/6c8927b0cf80ceee19386026cf9d7fd4fd9d486f/src/libcore/ptr/mod.rs"
	.file	23 "/rustc/6c8927b0cf80ceee19386026cf9d7fd4fd9d486f/src/libcore/mem/mod.rs"
	.file	24 "/rustc/6c8927b0cf80ceee19386026cf9d7fd4fd9d486f/src/libcore/cell.rs"
	.file	25 "/Users/yingyuhang/.cargo/registry/src/github.com-1ecc6299db9ec823/crossbeam-epoch-0.8.2/src/epoch.rs"
	.section	__TEXT,__gcc_except_tab
	.p2align	2
GCC_except_table0:
Lexception0:
	.byte	255
	.byte	255
	.byte	1
	.uleb128 Lcst_end0-Lcst_begin0
Lcst_begin0:
	.uleb128 Lfunc_begin0-Lfunc_begin0
	.uleb128 Ltmp0-Lfunc_begin0
	.byte	0
	.byte	0
	.uleb128 Ltmp0-Lfunc_begin0
	.uleb128 Ltmp3-Ltmp0
	.uleb128 Ltmp6-Lfunc_begin0
	.byte	0
	.uleb128 Ltmp3-Lfunc_begin0
	.uleb128 Ltmp4-Ltmp3
	.byte	0
	.byte	0
	.uleb128 Ltmp4-Lfunc_begin0
	.uleb128 Ltmp5-Ltmp4
	.uleb128 Ltmp6-Lfunc_begin0
	.byte	0
	.uleb128 Ltmp5-Lfunc_begin0
	.uleb128 Lfunc_end0-Ltmp5
	.byte	0
	.byte	0
Lcst_end0:
	.p2align	2

	.section	__TEXT,__text,regular,pure_instructions
	.p2align	4, 0x90
__ZN15crossbeam_epoch7default3pin17hacc593d145951670E:
Lfunc_begin1:
	.file	26 "/Users/yingyuhang/.cargo/registry/src/github.com-1ecc6299db9ec823/crossbeam-epoch-0.8.2/src/default.rs"
	.loc	26 22 0
	.cfi_startproc
	.cfi_personality 155, _rust_eh_personality
	.cfi_lsda 16, Lexception1
	pushq	%rbp
	.cfi_def_cfa_offset 16
	.cfi_offset %rbp, -16
	movq	%rsp, %rbp
	.cfi_def_cfa_register %rbp
Ltmp126:
	pushq	%r14
	pushq	%rbx
	subq	$16, %rsp
	.cfi_offset %rbx, -32
	.cfi_offset %r14, -24
	.file	27 "/rustc/6c8927b0cf80ceee19386026cf9d7fd4fd9d486f/src/libstd/thread/local.rs"
	.loc	27 262 32 prologue_end
	callq	__ZN15crossbeam_epoch7default6HANDLE7__getit17h993e4fd3ba54e1f2E
	.loc	27 262 82 is_stmt 0
	testq	%rax, %rax
	je	LBB1_1
Ltmp127:
	.loc	26 43 23 is_stmt 1
	movq	%rax, %rdi
	addq	$16, %rsp
	popq	%rbx
	popq	%r14
	popq	%rbp
	jmp	__ZN15crossbeam_epoch7default3pin28_$u7b$$u7b$closure$u7d$$u7d$17h6bb100e36c6c43b7E
Ltmp128:
LBB1_1:
	.loc	26 44 32
	movq	__ZN15crossbeam_epoch7default9COLLECTOR17he3b8b99f656df754E@GOTPCREL(%rip), %rdi
	callq	__ZN79_$LT$crossbeam_epoch..default..COLLECTOR$u20$as$u20$core..ops..deref..Deref$GT$5deref17hda80b3dd22b10c71E
	movq	%rax, %rdi
	callq	__ZN15crossbeam_epoch9collector9Collector8register17hceedc5c29d6e719fE
	movq	%rax, %rbx
	movq	%rax, -24(%rbp)
Ltmp123:
	leaq	-24(%rbp), %rdi
	.loc	26 44 29 is_stmt 0
	callq	__ZN15crossbeam_epoch7default3pin28_$u7b$$u7b$closure$u7d$$u7d$17h6bb100e36c6c43b7E
Ltmp124:
Ltmp129:
	.loc	26 0 0
	movq	%rax, %r14
Ltmp130:
	.loc	18 554 28 is_stmt 1
	movq	2088(%rbx), %rax
Ltmp131:
	.loc	18 555 23
	testq	%rax, %rax
	.loc	8 184 59
	je	LBB1_8
Ltmp132:
	.loc	18 553 27
	movq	2080(%rbx), %rcx
Ltmp133:
	.loc	18 556 31
	leaq	-1(%rax), %rdx
Ltmp134:
	.loc	13 2130 14
	movq	%rdx, 2088(%rbx)
Ltmp135:
	.loc	18 558 32
	cmpq	$1, %rax
Ltmp136:
	.loc	18 558 9 is_stmt 0
	jne	LBB1_6
Ltmp137:
	testq	%rcx, %rcx
	je	LBB1_5
Ltmp138:
LBB1_6:
	.loc	26 24 2 is_stmt 1
	movq	%r14, %rax
	addq	$16, %rsp
	popq	%rbx
	popq	%r14
	popq	%rbp
	retq
LBB1_5:
Ltmp139:
	.loc	18 559 13
	movq	%rbx, %rdi
	callq	__ZN15crossbeam_epoch8internal5Local8finalize17h52a48f6fa778720fE
Ltmp140:
	.loc	18 0 13 is_stmt 0
	jmp	LBB1_6
Ltmp141:
LBB1_8:
	.loc	19 13 23 is_stmt 1
	leaq	l___unnamed_38(%rip), %rdi
	leaq	l___unnamed_37(%rip), %rdx
	movl	$35, %esi
	callq	__ZN3std9panicking11begin_panic17h6ef357f3fd72cd14E
Ltmp142:
LBB1_9:
Ltmp125:
	.loc	19 0 23 is_stmt 0
	movq	%rax, %rbx
	leaq	-24(%rbp), %rdi
	.loc	26 44 52 is_stmt 1
	callq	__ZN4core3ptr13drop_in_place17h2f5cb7a7997fd91cE
	movq	%rbx, %rdi
	callq	__Unwind_Resume
	ud2
Ltmp143:
Lfunc_end1:
	.cfi_endproc
	.file	28 "/rustc/6c8927b0cf80ceee19386026cf9d7fd4fd9d486f/src/libcore/result.rs"
	.file	29 "/Users/yingyuhang/.cargo/registry/src/github.com-1ecc6299db9ec823/crossbeam-epoch-0.8.2/src/collector.rs"
	.section	__TEXT,__gcc_except_tab
	.p2align	2
GCC_except_table1:
Lexception1:
	.byte	255
	.byte	255
	.byte	1
	.uleb128 Lcst_end1-Lcst_begin1
Lcst_begin1:
	.uleb128 Lfunc_begin1-Lfunc_begin1
	.uleb128 Ltmp123-Lfunc_begin1
	.byte	0
	.byte	0
	.uleb128 Ltmp123-Lfunc_begin1
	.uleb128 Ltmp124-Ltmp123
	.uleb128 Ltmp125-Lfunc_begin1
	.byte	0
	.uleb128 Ltmp124-Lfunc_begin1
	.uleb128 Lfunc_end1-Ltmp124
	.byte	0
	.byte	0
Lcst_end1:
	.p2align	2

	.section	__TEXT,__text,regular,pure_instructions
	.p2align	4, 0x90
__ZN15crossbeam_epoch7default3pin28_$u7b$$u7b$closure$u7d$$u7d$17h6bb100e36c6c43b7E:
Lfunc_begin2:
	.loc	26 23 0
	.cfi_startproc
	.cfi_personality 155, _rust_eh_personality
	.cfi_lsda 16, Lexception2
	pushq	%rbp
	.cfi_def_cfa_offset 16
	.cfi_offset %rbp, -16
	movq	%rsp, %rbp
	.cfi_def_cfa_register %rbp
Ltmp151:
	pushq	%rbx
	subq	$184, %rsp
	.cfi_offset %rbx, -24
	.loc	29 75 18 prologue_end
	movq	(%rdi), %rcx
Ltmp152:
	.loc	18 450 21
	movq	%rcx, -16(%rbp)
Ltmp153:
	.loc	18 452 27
	movq	2080(%rcx), %rax
Ltmp154:
	.loc	7 3751 30
	movq	%rax, %rdx
	incq	%rdx
Ltmp155:
	.file	30 "/rustc/6c8927b0cf80ceee19386026cf9d7fd4fd9d486f/src/libcore/option.rs"
	.loc	30 385 13
	je	LBB2_1
Ltmp156:
	.loc	13 2130 14
	movq	%rdx, 2080(%rcx)
Ltmp157:
	.loc	18 455 12
	testq	%rax, %rax
Ltmp158:
	.loc	18 455 9 is_stmt 0
	jne	LBB2_8
Ltmp159:
	.loc	18 456 32 is_stmt 1
	movq	16(%rcx), %rax
Ltmp160:
	.loc	6 2356 24
	movq	384(%rax), %rdx
Ltmp161:
	.loc	25 50 19
	orq	$1, %rdx
Ltmp162:
	.loc	18 476 31
	movq	$0, -24(%rbp)
Ltmp163:
	.loc	6 2427 33
	xorl	%eax, %eax
Ltmp164:
	lock		cmpxchgq	%rdx, 8(%rcx)
Ltmp165:
	.loc	18 477 32
	movq	%rax, -32(%rbp)
Ltmp166:
	.loc	25 19 5
	cmpq	%rax, -24(%rbp)
Ltmp167:
	.loc	8 66 17
	jne	LBB2_5
Ltmp168:
	.loc	6 2766 23
	##MEMBARRIER
Ltmp169:
	.loc	18 491 25
	movq	2096(%rcx), %rax
Ltmp170:
	.loc	7 3439 17
	leaq	1(%rax), %rdx
Ltmp171:
	.loc	13 2130 14
	movq	%rdx, 2096(%rcx)
Ltmp172:
	.loc	18 496 16
	testb	$127, %al
	.loc	18 496 13 is_stmt 0
	jne	LBB2_8
Ltmp173:
	.loc	18 497 17 is_stmt 1
	movq	16(%rcx), %rdi
Ltmp174:
	.file	31 "/rustc/6c8927b0cf80ceee19386026cf9d7fd4fd9d486f/src/liballoc/sync.rs"
	.loc	31 1116 9
	subq	$-128, %rdi
Ltmp146:
	leaq	-16(%rbp), %rsi
Ltmp175:
	.loc	18 497 17
	callq	__ZN15crossbeam_epoch8internal6Global7collect17hc35bfd5e62aae973E
Ltmp176:
Ltmp147:
LBB2_8:
	.loc	18 502 6
	movq	-16(%rbp), %rax
Ltmp177:
	.loc	26 23 38
	addq	$184, %rsp
	popq	%rbx
	popq	%rbp
	retq
Ltmp178:
LBB2_1:
Ltmp148:
	.loc	8 10 9
	leaq	l___unnamed_39(%rip), %rdi
Ltmp179:
	leaq	l___unnamed_40(%rip), %rdx
	movl	$43, %esi
	callq	__ZN4core9panicking5panic17h383a6b80ea7021aaE
Ltmp180:
Ltmp149:
	.loc	8 0 9 is_stmt 0
	jmp	LBB2_2
Ltmp181:
LBB2_5:
	leaq	-24(%rbp), %rax
Ltmp182:
	.loc	8 72 23 is_stmt 1
	movq	%rax, -40(%rbp)
	leaq	-32(%rbp), %rax
	.loc	8 72 35 is_stmt 0
	movq	%rax, -48(%rbp)
Ltmp183:
	.loc	20 328 9 is_stmt 1
	leaq	l___unnamed_41(%rip), %rax
Ltmp184:
	movq	%rax, -192(%rbp)
	movq	$1, -184(%rbp)
	movq	$0, -176(%rbp)
	leaq	__ZN10rayon_core3log7LOG_ENV17hca23b96e943cc17eE(%rip), %rax
Ltmp185:
	movq	%rax, -160(%rbp)
	movq	$0, -152(%rbp)
	leaq	-40(%rbp), %rax
Ltmp186:
	.loc	19 16 38
	movq	%rax, -96(%rbp)
	leaq	__ZN42_$LT$$RF$T$u20$as$u20$core..fmt..Debug$GT$3fmt17h0ac0ef4da1f40264E(%rip), %rax
	movq	%rax, -88(%rbp)
	leaq	-48(%rbp), %rcx
Ltmp187:
	movq	%rcx, -80(%rbp)
	movq	%rax, -72(%rbp)
	leaq	-192(%rbp), %rax
	movq	%rax, -64(%rbp)
	movq	__ZN59_$LT$core..fmt..Arguments$u20$as$u20$core..fmt..Display$GT$3fmt17hca54f9d63261f398E@GOTPCREL(%rip), %rax
	movq	%rax, -56(%rbp)
Ltmp188:
	.loc	20 328 9
	leaq	l___unnamed_42(%rip), %rax
Ltmp189:
	movq	%rax, -144(%rbp)
	movq	$3, -136(%rbp)
	movq	$0, -128(%rbp)
	leaq	-96(%rbp), %rax
Ltmp190:
	movq	%rax, -112(%rbp)
	movq	$3, -104(%rbp)
Ltmp191:
Ltmp144:
	.loc	19 16 9
	leaq	l___unnamed_33(%rip), %rsi
	leaq	-144(%rbp), %rdi
Ltmp192:
	callq	__ZN3std9panicking15begin_panic_fmt17h8712912d987f10a1E
Ltmp193:
Ltmp145:
LBB2_2:
	.loc	19 0 9 is_stmt 0
	ud2
LBB2_9:
Ltmp150:
Ltmp194:
	movq	%rax, %rbx
	leaq	-16(%rbp), %rdi
	.loc	18 502 5 is_stmt 1
	callq	__ZN4core3ptr13drop_in_place17hdf72b5351b4dfc04E
	movq	%rbx, %rdi
	callq	__Unwind_Resume
	ud2
Ltmp195:
Lfunc_end2:
	.cfi_endproc
	.file	32 "/rustc/6c8927b0cf80ceee19386026cf9d7fd4fd9d486f/src/libcore/num/wrapping.rs"
	.section	__TEXT,__gcc_except_tab
	.p2align	2
GCC_except_table2:
Lexception2:
	.byte	255
	.byte	255
	.byte	1
	.uleb128 Lcst_end2-Lcst_begin2
Lcst_begin2:
	.uleb128 Ltmp146-Lfunc_begin2
	.uleb128 Ltmp145-Ltmp146
	.uleb128 Ltmp150-Lfunc_begin2
	.byte	0
	.uleb128 Ltmp145-Lfunc_begin2
	.uleb128 Lfunc_end2-Ltmp145
	.byte	0
	.byte	0
Lcst_end2:
	.p2align	2

	.section	__TEXT,__text,regular,pure_instructions
	.p2align	4, 0x90
__ZN15crossbeam_epoch8deferred8Deferred3new4call17h93a123aaf3073f19E:
Lfunc_begin3:
	.loc	16 44 0
	.cfi_startproc
	pushq	%rbp
	.cfi_def_cfa_offset 16
	.cfi_offset %rbp, -16
	movq	%rsp, %rbp
	.cfi_def_cfa_register %rbp
Ltmp196:
	pushq	%rbx
	pushq	%rax
	.cfi_offset %rbx, -24
	.loc	16 45 32 prologue_end
	movq	(%rdi), %rbx
Ltmp197:
	.loc	17 1077 13
	cmpq	$7, %rbx
	.loc	8 184 59
	jbe	LBB3_5
Ltmp198:
	.loc	17 113 15
	andq	$-8, %rbx
Ltmp199:
	.loc	5 403 39
	movq	8(%rbx), %rsi
Ltmp200:
	.loc	10 235 40
	testq	%rsi, %rsi
	.loc	10 235 9 is_stmt 0
	je	LBB3_4
Ltmp201:
	.loc	10 242 28 is_stmt 1
	shlq	$4, %rsi
Ltmp202:
	.loc	10 507 16
	je	LBB3_4
Ltmp203:
	.loc	5 0 0 is_stmt 0
	movq	(%rbx), %rdi
Ltmp204:
	.loc	11 102 14 is_stmt 1
	movl	$8, %edx
	callq	___rust_dealloc
Ltmp205:
LBB3_4:
	.loc	11 102 14 is_stmt 0
	movl	$16, %esi
	movl	$8, %edx
	movq	%rbx, %rdi
	addq	$8, %rsp
	popq	%rbx
Ltmp206:
	popq	%rbp
	jmp	___rust_dealloc
Ltmp207:
LBB3_5:
	.loc	19 13 23 is_stmt 1
	leaq	l___unnamed_36(%rip), %rdi
Ltmp208:
	leaq	l___unnamed_37(%rip), %rdx
	movl	$39, %esi
	callq	__ZN3std9panicking11begin_panic17h6ef357f3fd72cd14E
Ltmp209:
Lfunc_end3:
	.cfi_endproc

	.p2align	4, 0x90
__ZN15crossbeam_queue9seg_queue17SegQueue$LT$T$GT$3pop17h5952bd859cbfd080E:
Lfunc_begin4:
	.file	33 "/Users/yingyuhang/.cargo/registry/src/github.com-1ecc6299db9ec823/crossbeam-queue-0.2.3/src/seg_queue.rs"
	.loc	33 283 0
	.cfi_startproc
	pushq	%rbp
	.cfi_def_cfa_offset 16
	.cfi_offset %rbp, -16
	movq	%rsp, %rbp
	.cfi_def_cfa_register %rbp
	pushq	%r15
	pushq	%r14
	pushq	%r13
	pushq	%r12
	pushq	%rbx
	pushq	%rax
	.cfi_offset %rbx, -56
	.cfi_offset %r12, -48
	.cfi_offset %r13, -40
	.cfi_offset %r14, -32
	.cfi_offset %r15, -24
	movq	%rdi, %r12
Ltmp210:
	.loc	6 2355 24 prologue_end
	movq	(%rdi), %rax
Ltmp211:
	.loc	6 2355 24 is_stmt 0
	movq	8(%rdi), %r15
Ltmp212:
	.loc	33 0 0
	xorl	%ebx, %ebx
	jmp	LBB4_4
Ltmp213:
	.p2align	4, 0x90
LBB4_1:
	callq	__ZN3std6thread9yield_now17hea691f9eb34bfe1eE
Ltmp214:
LBB4_2:
	movq	(%r12), %rax
	movq	8(%r12), %r15
Ltmp215:
	movl	$11, %ecx
Ltmp216:
LBB4_3:
	cmpl	%ecx, %ebx
	adcl	$0, %ebx
Ltmp217:
LBB4_4:
	.loc	33 290 26 is_stmt 1
	movq	%rax, %rcx
	shrq	%rcx
	movl	%ecx, %r13d
	andl	$31, %r13d
Ltmp218:
	.loc	33 293 16
	cmpq	$31, %r13
	.loc	33 293 13 is_stmt 0
	jne	LBB4_8
Ltmp219:
	.file	34 "/Users/yingyuhang/.cargo/registry/src/github.com-1ecc6299db9ec823/crossbeam-utils-0.7.2/src/backoff.rs"
	.loc	34 206 12 is_stmt 1
	cmpl	$7, %ebx
	.loc	34 206 9 is_stmt 0
	jae	LBB4_1
Ltmp220:
	.loc	34 207 25 is_stmt 1
	movl	$1, %eax
Ltmp221:
	movl	%ebx, %ecx
	shll	%cl, %eax
Ltmp222:
	.loc	34 0 25 is_stmt 0
	xorl	%ecx, %ecx
Ltmp223:
	.p2align	4, 0x90
LBB4_7:
	.file	35 "/rustc/6c8927b0cf80ceee19386026cf9d7fd4fd9d486f/src/libcore/../stdarch/crates/core_arch/src/x86/sse2.rs"
	.loc	35 25 5 is_stmt 1
	pause
Ltmp224:
	.loc	7 775 26
	incl	%ecx
Ltmp225:
	.file	36 "/rustc/6c8927b0cf80ceee19386026cf9d7fd4fd9d486f/src/libcore/cmp.rs"
	.loc	36 1136 52
	cmpl	%eax, %ecx
Ltmp226:
	.file	37 "/rustc/6c8927b0cf80ceee19386026cf9d7fd4fd9d486f/src/libcore/iter/range.rs"
	.loc	37 505 9
	jl	LBB4_7
	jmp	LBB4_2
Ltmp227:
	.p2align	4, 0x90
LBB4_8:
	.loc	33 300 32
	movq	%rax, %r14
	addq	$2, %r14
	jb	LBB4_62
Ltmp228:
	.loc	33 302 13
	testb	$1, %r14b
	jne	LBB4_12
Ltmp229:
	.loc	6 2678 23
	mfence
Ltmp230:
	.loc	6 2356 24
	movq	128(%r12), %rdx
Ltmp231:
	.loc	33 307 37
	movq	%rdx, %rsi
	shrq	%rsi
	.loc	33 307 20 is_stmt 0
	cmpq	%rsi, %rcx
	.loc	33 307 17
	je	LBB4_42
Ltmp232:
	.loc	33 312 20 is_stmt 1
	xorq	%rax, %rdx
Ltmp233:
	xorl	%ecx, %ecx
	cmpq	$63, %rdx
	seta	%cl
	.loc	33 312 17 is_stmt 0
	orq	%rcx, %r14
Ltmp234:
LBB4_12:
	.loc	12 29 9 is_stmt 1
	testq	%r15, %r15
Ltmp235:
	.loc	33 319 13
	je	LBB4_17
Ltmp236:
	.loc	6 2460 34
	lock		cmpxchgq	%r14, (%r12)
Ltmp237:
	.loc	33 333 17
	je	LBB4_21
Ltmp238:
	.loc	6 2355 24
	movq	8(%r12), %r15
Ltmp239:
	.loc	36 0 0 is_stmt 0
	cmpl	$6, %ebx
Ltmp240:
	.loc	34 147 21 is_stmt 1
	movl	$6, %ecx
	cmovbl	%ebx, %ecx
	movl	$1, %edx
	shll	%cl, %edx
Ltmp241:
	.loc	34 0 21 is_stmt 0
	xorl	%ecx, %ecx
Ltmp242:
	.p2align	4, 0x90
LBB4_15:
	.loc	35 25 5 is_stmt 1
	pause
Ltmp243:
	.loc	7 775 26
	incl	%ecx
Ltmp244:
	.loc	36 1136 52
	cmpl	%edx, %ecx
Ltmp245:
	.loc	37 505 9
	jl	LBB4_15
Ltmp246:
	.loc	37 0 9 is_stmt 0
	movl	$7, %ecx
Ltmp247:
	jmp	LBB4_3
Ltmp248:
LBB4_17:
	.loc	34 206 12 is_stmt 1
	cmpl	$7, %ebx
	.loc	34 206 9 is_stmt 0
	jae	LBB4_1
Ltmp249:
	.loc	34 207 25 is_stmt 1
	movl	$1, %eax
Ltmp250:
	movl	%ebx, %ecx
	shll	%cl, %eax
Ltmp251:
	.loc	34 0 25 is_stmt 0
	xorl	%ecx, %ecx
Ltmp252:
	.p2align	4, 0x90
LBB4_19:
	.loc	35 25 5 is_stmt 1
	pause
Ltmp253:
	.loc	7 775 26
	incl	%ecx
Ltmp254:
	.loc	36 1136 52
	cmpl	%eax, %ecx
Ltmp255:
	.loc	37 505 9
	jl	LBB4_19
	jmp	LBB4_2
Ltmp256:
LBB4_21:
	.loc	33 335 24
	leaq	1(%r13), %rax
	movq	%rax, -48(%rbp)
	cmpq	$31, %rax
	.loc	33 335 21 is_stmt 0
	jne	LBB4_24
Ltmp257:
	.loc	6 2355 24 is_stmt 1
	movq	(%r15), %rax
Ltmp258:
	.loc	12 29 9
	testq	%rax, %rax
Ltmp259:
	.loc	33 78 13
	je	LBB4_56
Ltmp260:
LBB4_23:
	.loc	7 3439 17
	addq	$2, %r14
Ltmp261:
	movq	%r14, %rcx
	andq	$-2, %rcx
Ltmp262:
	.loc	6 2356 24
	movq	(%rax), %rdx
Ltmp263:
	.loc	33 339 29
	orq	$1, %r14
Ltmp264:
	.loc	12 29 9
	testq	%rdx, %rdx
Ltmp265:
	.loc	33 338 25
	cmoveq	%rcx, %r14
Ltmp266:
	.loc	6 2341 24
	movq	%rax, 8(%r12)
Ltmp267:
	.loc	6 2341 24 is_stmt 0
	movq	%r14, (%r12)
Ltmp268:
LBB4_24:
	.file	38 "/rustc/6c8927b0cf80ceee19386026cf9d7fd4fd9d486f/src/libcore/ptr/const_ptr.rs"
	.loc	38 164 18 is_stmt 1
	leaq	(%r13,%r13,2), %r12
Ltmp269:
	leaq	8(%r15,%r12,8), %r14
Ltmp270:
	.loc	6 2355 24
	movq	24(%r15,%r12,8), %rax
Ltmp271:
	.loc	33 44 9
	testb	$1, %al
	jne	LBB4_31
Ltmp272:
	.loc	33 0 9 is_stmt 0
	xorl	%ebx, %ebx
	jmp	LBB4_28
Ltmp273:
	.p2align	4, 0x90
LBB4_26:
	.loc	34 217 13 is_stmt 1
	callq	__ZN3std6thread9yield_now17hea691f9eb34bfe1eE
Ltmp274:
LBB4_27:
	.loc	34 220 12
	cmpl	$11, %ebx
	.loc	34 220 9 is_stmt 0
	adcl	$0, %ebx
Ltmp275:
	.loc	6 2355 24 is_stmt 1
	movq	16(%r14), %rax
Ltmp276:
	.loc	33 44 15
	testb	$1, %al
	.loc	33 44 9 is_stmt 0
	jne	LBB4_31
Ltmp277:
LBB4_28:
	.loc	34 206 12 is_stmt 1
	cmpl	$7, %ebx
	.loc	34 206 9 is_stmt 0
	jae	LBB4_26
Ltmp278:
	.loc	34 207 25 is_stmt 1
	movl	$1, %eax
	movl	%ebx, %ecx
	shll	%cl, %eax
Ltmp279:
	.loc	34 0 25 is_stmt 0
	xorl	%ecx, %ecx
Ltmp280:
	.p2align	4, 0x90
LBB4_30:
	.loc	35 25 5 is_stmt 1
	pause
Ltmp281:
	.loc	7 775 26
	incl	%ecx
Ltmp282:
	.loc	36 1136 52
	cmpl	%eax, %ecx
Ltmp283:
	.loc	37 505 9
	jl	LBB4_30
	jmp	LBB4_27
Ltmp284:
LBB4_31:
	.loc	33 349 33
	movq	(%r14), %rdi
	movq	16(%r15,%r12,8), %r12
	movq	-48(%rbp), %rsi
Ltmp285:
	.loc	33 335 24
	cmpl	$31, %esi
Ltmp286:
	.loc	33 353 21
	jne	LBB4_43
Ltmp287:
	.loc	33 0 21 is_stmt 0
	xorl	%ecx, %ecx
	jmp	LBB4_34
Ltmp288:
	.p2align	4, 0x90
LBB4_33:
	addq	$2, %rcx
Ltmp289:
	.loc	36 1136 52 is_stmt 1
	cmpq	$30, %rcx
Ltmp290:
	.loc	37 505 9
	je	LBB4_54
Ltmp291:
LBB4_34:
	.loc	6 1412 42
	leaq	(%rcx,%rcx,2), %rax
Ltmp292:
	.loc	6 2355 24
	movq	24(%r15,%rax,8), %rdx
Ltmp293:
	.loc	33 93 16
	testb	$2, %dl
	jne	LBB4_38
Ltmp294:
	.loc	33 0 0 is_stmt 0
	leaq	24(%r15,%rax,8), %rdx
Ltmp295:
	.loc	6 2507 23 is_stmt 1
	movq	(%rdx), %rax
Ltmp296:
	.p2align	4, 0x90
LBB4_36:
	movq	%rax, %rsi
	orq	$4, %rsi
	lock		cmpxchgq	%rsi, (%rdx)
	jne	LBB4_36
Ltmp297:
	.loc	33 94 20
	testb	$2, %al
	.loc	33 93 16
	je	LBB4_55
Ltmp298:
LBB4_38:
	.loc	33 0 0 is_stmt 0
	movq	%rcx, %rax
	orq	$1, %rax
Ltmp299:
	.loc	6 1412 42 is_stmt 1
	leaq	(%rax,%rax,2), %rax
Ltmp300:
	.loc	6 2355 24
	movq	24(%r15,%rax,8), %rdx
Ltmp301:
	.loc	33 93 16
	testb	$2, %dl
	jne	LBB4_33
Ltmp302:
	.loc	33 0 0 is_stmt 0
	leaq	24(%r15,%rax,8), %rdx
Ltmp303:
	.loc	6 2507 23 is_stmt 1
	movq	(%rdx), %rax
Ltmp304:
	.p2align	4, 0x90
LBB4_40:
	movq	%rax, %rsi
	orq	$4, %rsi
	lock		cmpxchgq	%rsi, (%rdx)
	jne	LBB4_40
Ltmp305:
	.loc	33 94 20
	testb	$2, %al
	jne	LBB4_33
	jmp	LBB4_55
Ltmp306:
LBB4_42:
	.loc	33 0 20 is_stmt 0
	xorl	%r12d, %r12d
Ltmp307:
	jmp	LBB4_55
Ltmp308:
LBB4_43:
	.loc	6 2507 23 is_stmt 1
	movq	16(%r14), %rax
Ltmp309:
	.p2align	4, 0x90
LBB4_44:
	movq	%rax, %rcx
	orq	$2, %rcx
	lock		cmpxchgq	%rcx, 16(%r14)
	jne	LBB4_44
Ltmp310:
	.loc	33 355 31
	testb	$4, %al
	.loc	33 355 28 is_stmt 0
	je	LBB4_55
Ltmp311:
	.loc	33 0 28
	movq	%rdi, %r14
Ltmp312:
	.loc	36 1136 52 is_stmt 1
	cmpl	$28, %r13d
Ltmp313:
	.loc	37 505 9
	jbe	LBB4_49
Ltmp314:
LBB4_47:
	.loc	11 102 14
	movl	$752, %esi
	movl	$8, %edx
	movq	%r15, %rdi
	callq	___rust_dealloc
	movq	%r14, %rdi
	jmp	LBB4_55
Ltmp315:
	.p2align	4, 0x90
LBB4_48:
	.loc	33 0 0 is_stmt 0
	incq	%rsi
Ltmp316:
	.loc	36 1136 52 is_stmt 1
	cmpq	$30, %rsi
Ltmp317:
	.loc	37 505 9
	je	LBB4_47
Ltmp318:
LBB4_49:
	.loc	6 1412 42
	leaq	(%rsi,%rsi,2), %rax
Ltmp319:
	.loc	6 2355 24
	movq	24(%r15,%rax,8), %rcx
Ltmp320:
	.loc	33 93 16
	testb	$2, %cl
	jne	LBB4_48
Ltmp321:
	.loc	33 0 0 is_stmt 0
	leaq	24(%r15,%rax,8), %rcx
Ltmp322:
	.loc	6 2507 23 is_stmt 1
	movq	(%rcx), %rax
Ltmp323:
	.p2align	4, 0x90
LBB4_51:
	movq	%rax, %rdx
	orq	$4, %rdx
	lock		cmpxchgq	%rdx, (%rcx)
	jne	LBB4_51
Ltmp324:
	.loc	33 94 20
	testb	$2, %al
	.loc	33 93 16
	jne	LBB4_48
Ltmp325:
	.loc	33 0 16 is_stmt 0
	movq	%r14, %rdi
	jmp	LBB4_55
Ltmp326:
LBB4_54:
	.loc	11 102 14 is_stmt 1
	movl	$752, %esi
	movl	$8, %edx
	movq	%rdi, %rbx
Ltmp327:
	movq	%r15, %rdi
	callq	___rust_dealloc
	movq	%rbx, %rdi
Ltmp328:
LBB4_55:
	.loc	33 368 6
	movq	%rdi, %rax
	movq	%r12, %rdx
	addq	$8, %rsp
	popq	%rbx
	popq	%r12
	popq	%r13
	popq	%r14
	popq	%r15
	popq	%rbp
	retq
LBB4_56:
Ltmp329:
	.loc	33 0 6 is_stmt 0
	xorl	%ebx, %ebx
	jmp	LBB4_59
Ltmp330:
	.p2align	4, 0x90
LBB4_57:
	.loc	34 217 13 is_stmt 1
	callq	__ZN3std6thread9yield_now17hea691f9eb34bfe1eE
Ltmp331:
LBB4_58:
	.loc	34 220 12
	cmpl	$11, %ebx
	.loc	34 220 9 is_stmt 0
	adcl	$0, %ebx
Ltmp332:
	.loc	6 2355 24 is_stmt 1
	movq	(%r15), %rax
Ltmp333:
	.loc	12 29 9
	testq	%rax, %rax
Ltmp334:
	.loc	33 78 13
	jne	LBB4_23
Ltmp335:
LBB4_59:
	.loc	34 206 12
	cmpl	$7, %ebx
	.loc	34 206 9 is_stmt 0
	jae	LBB4_57
Ltmp336:
	.loc	34 207 25 is_stmt 1
	movl	$1, %eax
Ltmp337:
	movl	%ebx, %ecx
	shll	%cl, %eax
Ltmp338:
	.loc	34 0 25 is_stmt 0
	xorl	%ecx, %ecx
Ltmp339:
	.p2align	4, 0x90
LBB4_61:
	.loc	35 25 5 is_stmt 1
	pause
Ltmp340:
	.loc	7 775 26
	incl	%ecx
Ltmp341:
	.loc	36 1136 52
	cmpl	%eax, %ecx
Ltmp342:
	.loc	37 505 9
	jl	LBB4_61
	jmp	LBB4_58
Ltmp343:
LBB4_62:
	.loc	33 300 32
	leaq	_str.4(%rip), %rdi
	leaq	l___unnamed_43(%rip), %rdx
	movl	$28, %esi
	callq	__ZN4core9panicking5panic17h383a6b80ea7021aaE
Ltmp344:
Lfunc_end4:
	.cfi_endproc
	.file	39 "/rustc/6c8927b0cf80ceee19386026cf9d7fd4fd9d486f/src/libcore/hint.rs"
	.file	40 "/rustc/6c8927b0cf80ceee19386026cf9d7fd4fd9d486f/src/libcore/slice/mod.rs"

	.p2align	4, 0x90
__ZN15crossbeam_queue9seg_queue17SegQueue$LT$T$GT$4push17h821de25432abde3dE:
Lfunc_begin5:
	.loc	33 188 0
	.cfi_startproc
	.cfi_personality 155, _rust_eh_personality
	.cfi_lsda 16, Lexception3
	pushq	%rbp
	.cfi_def_cfa_offset 16
	.cfi_offset %rbp, -16
	movq	%rsp, %rbp
	.cfi_def_cfa_register %rbp
	pushq	%r15
	pushq	%r14
	pushq	%r13
	pushq	%r12
	pushq	%rbx
	subq	$792, %rsp
	.cfi_offset %rbx, -56
	.cfi_offset %r12, -48
	.cfi_offset %r13, -40
	.cfi_offset %r14, -32
	.cfi_offset %r15, -24
	movq	%rdx, -72(%rbp)
	movq	%rsi, -64(%rbp)
	movq	%rdi, %r12
Ltmp354:
	.loc	6 2355 24 prologue_end
	movq	128(%rdi), %rdi
Ltmp355:
	.loc	6 2355 24 is_stmt 0
	movq	136(%r12), %r13
Ltmp356:
	.loc	33 192 30 is_stmt 1
	movq	$0, -48(%rbp)
	xorl	%eax, %eax
	movq	%rax, -56(%rbp)
Ltmp357:
	.loc	33 0 30 is_stmt 0
	jmp	LBB5_1
Ltmp358:
	.p2align	4, 0x90
LBB5_17:
	.loc	33 225 21 is_stmt 1
	movq	%r15, -48(%rbp)
Ltmp359:
	.loc	6 2355 24
	movq	128(%r12), %rdi
Ltmp360:
	.loc	6 2355 24 is_stmt 0
	movq	136(%r12), %r13
Ltmp361:
LBB5_1:
	.loc	33 196 26 is_stmt 1
	movl	%edi, %r14d
	shrl	%r14d
	andl	$31, %r14d
Ltmp362:
	.loc	33 199 16
	cmpl	$31, %r14d
	.loc	33 199 13 is_stmt 0
	je	LBB5_2
Ltmp363:
	.loc	33 0 13
	movq	%rdi, -80(%rbp)
Ltmp364:
	.loc	33 208 16 is_stmt 1
	cmpl	$30, %r14d
Ltmp365:
	jne	LBB5_11
Ltmp366:
	cmpq	$0, -48(%rbp)
	jne	LBB5_11
Ltmp367:
	.loc	33 0 16 is_stmt 0
	movq	%r12, %r15
Ltmp368:
	.loc	13 2283 14 is_stmt 1
	movl	$752, %esi
	leaq	-832(%rbp), %r12
	movq	%r12, %rdi
	callq	___bzero
Ltmp369:
	.loc	11 80 14
	movl	$752, %edi
	movl	$8, %esi
	callq	___rust_alloc
Ltmp370:
	.loc	11 278 9
	testq	%rax, %rax
	je	LBB5_39
Ltmp371:
	.loc	14 0 0 is_stmt 0
	movq	%rax, %rbx
	.loc	14 176 13 is_stmt 1
	movl	$752, %edx
	movq	%rax, %rdi
	movq	%r12, %rsi
	callq	_memcpy
Ltmp372:
	.loc	33 209 17
	movq	%rbx, -48(%rbp)
	movq	%r15, %r12
Ltmp373:
LBB5_11:
	.loc	12 29 9
	testq	%r13, %r13
Ltmp374:
	.loc	33 213 13
	jne	LBB5_18
Ltmp375:
	.loc	13 2283 14
	movl	$752, %esi
	leaq	-832(%rbp), %rbx
	movq	%rbx, %rdi
	callq	___bzero
Ltmp376:
	.loc	11 80 14
	movl	$752, %edi
	movl	$8, %esi
	callq	___rust_alloc
Ltmp377:
	.loc	11 278 9
	testq	%rax, %rax
	je	LBB5_39
Ltmp378:
	.loc	14 0 0 is_stmt 0
	movq	%rax, %r15
	.loc	14 176 13 is_stmt 1
	movl	$752, %edx
	movq	%rax, %rdi
	movq	%rbx, %rsi
	callq	_memcpy
Ltmp379:
	.loc	6 2424 35
	xorl	%eax, %eax
	lock		cmpxchgq	%r15, 136(%r12)
Ltmp380:
	.loc	33 216 20
	cmpq	%rax, %r13
	.loc	33 216 17 is_stmt 0
	je	LBB5_14
Ltmp381:
	.loc	22 184 1 is_stmt 1
	movq	-48(%rbp), %rdi
	testq	%rdi, %rdi
	je	LBB5_17
Ltmp382:
	.loc	11 102 14
	movl	$752, %esi
	movl	$8, %edx
	callq	___rust_dealloc
Ltmp383:
	.loc	11 0 14 is_stmt 0
	jmp	LBB5_17
Ltmp384:
LBB5_2:
	movq	-56(%rbp), %r14
Ltmp385:
	.loc	34 206 12 is_stmt 1
	cmpl	$7, %r14d
	.loc	34 206 9 is_stmt 0
	jae	LBB5_3
Ltmp386:
	.loc	34 207 25 is_stmt 1
	movl	$1, %eax
	movl	%r14d, %ecx
	shll	%cl, %eax
Ltmp387:
	.loc	34 0 25 is_stmt 0
	xorl	%ecx, %ecx
Ltmp388:
	.p2align	4, 0x90
LBB5_5:
	.loc	35 25 5 is_stmt 1
	pause
Ltmp389:
	.loc	7 775 26
	incl	%ecx
Ltmp390:
	.loc	36 1136 52
	cmpl	%eax, %ecx
Ltmp391:
	.loc	37 505 9
	jl	LBB5_5
	jmp	LBB5_6
Ltmp392:
LBB5_18:
	.loc	33 0 0 is_stmt 0
	movq	%r13, %r15
Ltmp393:
	movq	-80(%rbp), %rax
Ltmp394:
	.loc	33 232 28 is_stmt 1
	movq	%rax, %rcx
	addq	$2, %rcx
	jae	LBB5_20
	jmp	LBB5_38
Ltmp395:
LBB5_14:
	.loc	6 2341 24
	movq	%r15, 8(%r12)
Ltmp396:
	.loc	6 0 24 is_stmt 0
	movq	-80(%rbp), %rax
Ltmp397:
	.loc	33 232 28 is_stmt 1
	movq	%rax, %rcx
	addq	$2, %rcx
	jb	LBB5_38
Ltmp398:
LBB5_20:
	.loc	6 2460 34
	lock		cmpxchgq	%rcx, 128(%r12)
Ltmp399:
	.loc	33 241 17
	je	LBB5_21
Ltmp400:
	.loc	33 0 0 is_stmt 0
	movq	%rax, %rdi
Ltmp401:
	.loc	6 2355 24 is_stmt 1
	movq	136(%r12), %r13
Ltmp402:
	.loc	6 0 24 is_stmt 0
	movq	-56(%rbp), %r14
Ltmp403:
	cmpl	$6, %r14d
Ltmp404:
	.loc	34 147 21 is_stmt 1
	movl	$6, %ecx
Ltmp405:
	cmovbl	%r14d, %ecx
	movl	$1, %esi
	shll	%cl, %esi
	xorl	%ecx, %ecx
Ltmp406:
	.p2align	4, 0x90
LBB5_31:
	.loc	35 25 5
	pause
Ltmp407:
	.loc	7 775 26
	incl	%ecx
Ltmp408:
	.loc	36 1136 52
	cmpl	%esi, %ecx
Ltmp409:
	.loc	37 505 9
	jl	LBB5_31
Ltmp410:
	.loc	34 151 12
	cmpl	$7, %r14d
	setb	%al
	jmp	LBB5_29
Ltmp411:
LBB5_3:
Ltmp351:
	.loc	34 217 13
	callq	__ZN3std6thread9yield_now17hea691f9eb34bfe1eE
Ltmp412:
Ltmp352:
LBB5_6:
	.loc	34 220 12
	cmpl	$11, %r14d
	setb	%al
Ltmp413:
	.loc	6 2355 24
	movq	128(%r12), %rdi
Ltmp414:
	.loc	6 2355 24 is_stmt 0
	movq	136(%r12), %r13
Ltmp415:
LBB5_29:
	.loc	33 0 0
	movzbl	%al, %eax
	addl	%eax, %r14d
	movq	%r14, -56(%rbp)
	jmp	LBB5_1
Ltmp416:
LBB5_21:
	.loc	33 208 16 is_stmt 1
	cmpl	$30, %r14d
Ltmp417:
	.loc	33 243 21
	jne	LBB5_26
Ltmp418:
	.loc	33 244 56
	movq	-48(%rbp), %rax
Ltmp419:
	.loc	30 385 13
	testq	%rax, %rax
	je	LBB5_23
Ltmp420:
	.loc	7 3439 17
	addq	$2, %rcx
Ltmp421:
	.loc	6 2341 24
	movq	%rax, 136(%r12)
Ltmp422:
	.loc	6 2341 24 is_stmt 0
	movq	%rcx, 128(%r12)
Ltmp423:
	.loc	6 2341 24
	movq	%rax, (%r15)
Ltmp424:
	.loc	6 0 24
	movq	-64(%rbp), %rax
Ltmp425:
	.loc	22 901 51 is_stmt 1
	movq	%rax, 728(%r15)
	movq	-72(%rbp), %rax
Ltmp426:
	movq	%rax, 736(%r15)
Ltmp427:
	.loc	6 2506 24
	lock		orq	$1, 744(%r15)
Ltmp428:
	.loc	6 0 24 is_stmt 0
	jmp	LBB5_27
Ltmp429:
LBB5_26:
	.loc	38 164 18 is_stmt 1
	leaq	(%r14,%r14,2), %rax
Ltmp430:
	.loc	38 0 18 is_stmt 0
	movq	-64(%rbp), %rcx
Ltmp431:
	.loc	22 901 51 is_stmt 1
	movq	%rcx, 8(%r15,%rax,8)
	movq	-72(%rbp), %rcx
Ltmp432:
	movq	%rcx, 16(%r15,%rax,8)
Ltmp433:
	.loc	6 2506 24
	lock		orq	$1, 24(%r15,%rax,8)
Ltmp434:
	.loc	22 184 1
	movq	-48(%rbp), %rdi
	testq	%rdi, %rdi
	je	LBB5_27
Ltmp435:
	.loc	11 102 14
	movl	$752, %esi
	movl	$8, %edx
	callq	___rust_dealloc
Ltmp436:
LBB5_27:
	.loc	33 266 6
	addq	$792, %rsp
	popq	%rbx
	popq	%r12
Ltmp437:
	popq	%r13
	popq	%r14
	popq	%r15
	popq	%rbp
	retq
Ltmp438:
LBB5_39:
	.loc	33 0 0 is_stmt 0
	movl	$752, %edi
	movl	$8, %esi
	callq	__ZN5alloc5alloc18handle_alloc_error17h28974197717b8939E
Ltmp439:
LBB5_38:
Ltmp348:
	.loc	33 232 28 is_stmt 1
	leaq	_str.4(%rip), %rdi
	leaq	l___unnamed_44(%rip), %rdx
	movl	$28, %esi
	callq	__ZN4core9panicking5panic17h383a6b80ea7021aaE
Ltmp349:
Ltmp440:
LBB5_24:
	.loc	33 0 28 is_stmt 0
	ud2
Ltmp441:
LBB5_23:
Ltmp345:
	.loc	8 10 9 is_stmt 1
	leaq	l___unnamed_39(%rip), %rdi
	leaq	l___unnamed_45(%rip), %rdx
	movl	$43, %esi
	callq	__ZN4core9panicking5panic17h383a6b80ea7021aaE
Ltmp442:
Ltmp346:
	.loc	8 0 9 is_stmt 0
	jmp	LBB5_24
Ltmp443:
LBB5_35:
Ltmp347:
	movq	%rax, %rbx
	jmp	LBB5_36
Ltmp444:
LBB5_33:
Ltmp350:
	jmp	LBB5_34
Ltmp445:
LBB5_32:
Ltmp353:
LBB5_34:
	movq	%rax, %rbx
Ltmp446:
	leaq	-48(%rbp), %rdi
	.loc	33 266 5 is_stmt 1
	callq	__ZN4core3ptr13drop_in_place17h83802e92b1561d9fE
Ltmp447:
LBB5_36:
	.loc	33 0 5 is_stmt 0
	movq	%rbx, %rdi
	callq	__Unwind_Resume
	ud2
Lfunc_end5:
	.cfi_endproc
	.file	41 "/rustc/6c8927b0cf80ceee19386026cf9d7fd4fd9d486f/src/libcore/mem/maybe_uninit.rs"
	.section	__TEXT,__gcc_except_tab
	.p2align	2
GCC_except_table5:
Lexception3:
	.byte	255
	.byte	255
	.byte	1
	.uleb128 Lcst_end3-Lcst_begin3
Lcst_begin3:
	.uleb128 Lfunc_begin5-Lfunc_begin5
	.uleb128 Ltmp351-Lfunc_begin5
	.byte	0
	.byte	0
	.uleb128 Ltmp351-Lfunc_begin5
	.uleb128 Ltmp352-Ltmp351
	.uleb128 Ltmp353-Lfunc_begin5
	.byte	0
	.uleb128 Ltmp348-Lfunc_begin5
	.uleb128 Ltmp349-Ltmp348
	.uleb128 Ltmp350-Lfunc_begin5
	.byte	0
	.uleb128 Ltmp345-Lfunc_begin5
	.uleb128 Ltmp346-Ltmp345
	.uleb128 Ltmp347-Lfunc_begin5
	.byte	0
	.uleb128 Ltmp346-Lfunc_begin5
	.uleb128 Lfunc_end5-Ltmp346
	.byte	0
	.byte	0
Lcst_end3:
	.p2align	2

	.section	__TEXT,__text,regular,pure_instructions
	.p2align	4, 0x90
__ZN36_$LT$T$u20$as$u20$core..any..Any$GT$7type_id17h93976e5d31455d63E:
Lfunc_begin6:
	.file	42 "/rustc/6c8927b0cf80ceee19386026cf9d7fd4fd9d486f/src/libcore/any.rs"
	.loc	42 109 0 is_stmt 1
	.cfi_startproc
	pushq	%rbp
	.cfi_def_cfa_offset 16
	.cfi_offset %rbp, -16
	movq	%rsp, %rbp
	.cfi_def_cfa_register %rbp
	movabsq	$9147559743429524724, %rax
Ltmp448:
	.loc	42 111 6 prologue_end
	popq	%rbp
	retq
Ltmp449:
Lfunc_end6:
	.cfi_endproc

	.p2align	4, 0x90
__ZN3std10sys_common9backtrace28__rust_begin_short_backtrace17h6f50f8a8f49d9db8E:
Lfunc_begin7:
	.file	43 "/rustc/6c8927b0cf80ceee19386026cf9d7fd4fd9d486f/src/libstd/sys_common/backtrace.rs"
	.loc	43 124 0
	.cfi_startproc
	pushq	%rbp
	.cfi_def_cfa_offset 16
	.cfi_offset %rbp, -16
	movq	%rsp, %rbp
	.cfi_def_cfa_register %rbp
	subq	$96, %rsp
	movq	%rdi, %rsi
	leaq	-88(%rbp), %rax
Ltmp450:
	.loc	1 101 20 prologue_end
	movl	$11, %ecx
	movq	%rax, %rdi
	rep;movsq (%rsi), %es:(%rdi)
Ltmp451:
	movq	%rax, %rdi
	callq	__ZN10rayon_core8registry13ThreadBuilder3run17h4f2fa573e9e76cf7E
Ltmp452:
	.loc	43 131 2
	addq	$96, %rsp
	popq	%rbp
	retq
Ltmp453:
Lfunc_end7:
	.cfi_endproc

	.section	__TEXT,__literal16,16byte_literals
	.p2align	4
LCPI8_0:
	.space	8
	.quad	2
	.section	__TEXT,__text,regular,pure_instructions
	.p2align	4, 0x90
__ZN3std4sync4once4Once9call_once28_$u7b$$u7b$closure$u7d$$u7d$17h16009eb7b036d4e6E:
Lfunc_begin8:
	.file	44 "/rustc/6c8927b0cf80ceee19386026cf9d7fd4fd9d486f/src/libstd/sync/once.rs"
	.loc	44 265 0
	.cfi_startproc
	.cfi_personality 155, _rust_eh_personality
	.cfi_lsda 16, Lexception4
	pushq	%rbp
	.cfi_def_cfa_offset 16
	.cfi_offset %rbp, -16
	movq	%rsp, %rbp
	.cfi_def_cfa_register %rbp
Ltmp457:
	pushq	%r15
	pushq	%r14
	pushq	%r13
	pushq	%r12
	pushq	%rbx
	subq	$136, %rsp
	.cfi_offset %rbx, -56
	.cfi_offset %r12, -48
	.cfi_offset %r13, -40
	.cfi_offset %r14, -32
	.cfi_offset %r15, -24
Ltmp458:
	.loc	44 265 41 prologue_end
	movq	(%rdi), %rax
Ltmp459:
	.loc	13 2130 14
	movups	(%rax), %xmm0
	movups	16(%rax), %xmm2
Ltmp460:
	movdqu	32(%rax), %xmm1
	movups	48(%rax), %xmm3
Ltmp461:
	.loc	13 2130 14 is_stmt 0
	movaps	LCPI8_0(%rip), %xmm4
	movups	%xmm4, 32(%rax)
Ltmp462:
	.loc	30 385 13 is_stmt 1
	pshufd	$78, %xmm1, %xmm4
	movq	%xmm4, %rcx
	cmpq	$2, %rcx
	je	LBB8_13
Ltmp463:
	.loc	13 2130 14
	movq	96(%rax), %rbx
Ltmp464:
	.loc	13 2130 14 is_stmt 0
	movups	64(%rax), %xmm4
	movups	80(%rax), %xmm5
Ltmp465:
	.loc	1 181 42 is_stmt 1
	movups	%xmm2, -152(%rbp)
	movups	%xmm0, -168(%rbp)
	movups	%xmm3, -120(%rbp)
	movdqu	%xmm1, -136(%rbp)
	movups	%xmm5, -88(%rbp)
	movups	%xmm4, -104(%rbp)
	leaq	-72(%rbp), %rdi
	leaq	-168(%rbp), %rsi
Ltmp466:
	.loc	1 181 28 is_stmt 0
	callq	__ZN10rayon_core8registry8Registry3new17hb00794ea5d45a4e3E
Ltmp467:
	.loc	28 519 13 is_stmt 1
	cmpl	$1, -72(%rbp)
	jne	LBB8_3
Ltmp468:
	.loc	28 520 23
	movq	-64(%rbp), %r15
	movq	-56(%rbp), %r12
	movl	$1, %r13d
Ltmp469:
	.loc	22 184 1
	cmpq	$0, (%rbx)
	jne	LBB8_6
	jmp	LBB8_12
Ltmp470:
LBB8_3:
	.loc	28 519 16
	movq	-64(%rbp), %r14
Ltmp471:
	.loc	11 80 14
	movl	$8, %edi
	movl	$8, %esi
	callq	___rust_alloc
Ltmp472:
	.loc	11 278 9
	testq	%rax, %rax
	je	LBB8_14
Ltmp473:
	.loc	14 0 0 is_stmt 0
	movq	%rax, %r15
	.loc	14 176 13 is_stmt 1
	movq	%r14, (%rax)
Ltmp474:
	.loc	1 197 17
	movq	%rax, __ZN10rayon_core8registry12THE_REGISTRY17hec843bc74b106e01E(%rip)
	xorl	%r13d, %r13d
Ltmp475:
	.loc	22 184 1
	cmpq	$0, (%rbx)
	je	LBB8_12
Ltmp476:
LBB8_6:
	.loc	22 184 1 is_stmt 0
	movb	8(%rbx), %al
Ltmp477:
	cmpb	$3, %al
	ja	LBB8_8
Ltmp478:
	.loc	22 0 1
	cmpb	$2, %al
	jne	LBB8_12
Ltmp479:
LBB8_8:
	.loc	22 184 1
	movq	16(%rbx), %r14
Ltmp480:
	.loc	22 184 1
	movq	(%r14), %rdi
	movq	8(%r14), %rax
Ltmp454:
	callq	*(%rax)
Ltmp455:
Ltmp481:
	movq	8(%r14), %rax
Ltmp482:
	.loc	11 292 20 is_stmt 1
	movq	8(%rax), %rsi
Ltmp483:
	.loc	11 185 12
	testq	%rsi, %rsi
	.loc	11 185 9 is_stmt 0
	je	LBB8_11
Ltmp484:
	.loc	22 184 1 is_stmt 1
	movq	(%r14), %rdi
Ltmp485:
	.loc	11 293 21
	movq	16(%rax), %rdx
Ltmp486:
	.loc	11 102 14
	callq	___rust_dealloc
Ltmp487:
LBB8_11:
	.loc	22 184 1
	movq	16(%rbx), %rdi
Ltmp488:
	.loc	11 102 14
	movl	$24, %esi
	movl	$8, %edx
	callq	___rust_dealloc
Ltmp489:
LBB8_12:
	.loc	1 194 9
	movq	%r13, (%rbx)
	movq	%r15, 8(%rbx)
	movq	%r12, 16(%rbx)
Ltmp490:
	.loc	44 265 60
	addq	$136, %rsp
	popq	%rbx
	popq	%r12
	popq	%r13
	popq	%r14
	popq	%r15
	popq	%rbp
	retq
LBB8_13:
Ltmp491:
	.loc	8 10 9
	leaq	l___unnamed_39(%rip), %rdi
	leaq	l___unnamed_46(%rip), %rdx
	movl	$43, %esi
Ltmp492:
	callq	__ZN4core9panicking5panic17h383a6b80ea7021aaE
Ltmp493:
LBB8_14:
	.loc	11 279 19
	movl	$8, %edi
	movl	$8, %esi
	callq	__ZN5alloc5alloc18handle_alloc_error17h28974197717b8939E
Ltmp494:
LBB8_15:
Ltmp456:
	.loc	11 0 19 is_stmt 0
	movq	%rax, -48(%rbp)
Ltmp495:
	.loc	22 184 1 is_stmt 1
	movq	(%r14), %rdi
	movq	8(%r14), %rsi
	callq	__ZN5alloc5alloc8box_free17h578dcf25edc19e78E
Ltmp496:
	.loc	22 184 1 is_stmt 0
	movq	16(%rbx), %rdi
	callq	__ZN5alloc5alloc8box_free17hf86e3cdc26dffa46E
Ltmp497:
	.loc	1 194 9 is_stmt 1
	movq	%r13, (%rbx)
	movq	%r15, 8(%rbx)
	movq	%r12, 16(%rbx)
	movq	-48(%rbp), %rdi
	callq	__Unwind_Resume
	ud2
Ltmp498:
Lfunc_end8:
	.cfi_endproc
	.file	45 "/Users/yingyuhang/.cargo/registry/src/github.com-1ecc6299db9ec823/rayon-core-1.7.1/src/util.rs"
	.section	__TEXT,__gcc_except_tab
	.p2align	2
GCC_except_table8:
Lexception4:
	.byte	255
	.byte	255
	.byte	1
	.uleb128 Lcst_end4-Lcst_begin4
Lcst_begin4:
	.uleb128 Lfunc_begin8-Lfunc_begin8
	.uleb128 Ltmp454-Lfunc_begin8
	.byte	0
	.byte	0
	.uleb128 Ltmp454-Lfunc_begin8
	.uleb128 Ltmp455-Ltmp454
	.uleb128 Ltmp456-Lfunc_begin8
	.byte	0
	.uleb128 Ltmp455-Lfunc_begin8
	.uleb128 Lfunc_end8-Ltmp455
	.byte	0
	.byte	0
Lcst_end4:
	.p2align	2

	.section	__TEXT,__text,regular,pure_instructions
	.p2align	4, 0x90
__ZN3std4sync4once4Once9call_once28_$u7b$$u7b$closure$u7d$$u7d$17h24e3f59d26fce0ecE:
Lfunc_begin9:
	.loc	44 265 0
	.cfi_startproc
	.cfi_personality 155, _rust_eh_personality
	.cfi_lsda 16, Lexception5
	pushq	%rbp
	.cfi_def_cfa_offset 16
	.cfi_offset %rbp, -16
	movq	%rsp, %rbp
	.cfi_def_cfa_register %rbp
Ltmp502:
	pushq	%r15
	pushq	%r14
	pushq	%r13
	pushq	%r12
	pushq	%rbx
	subq	$136, %rsp
	.cfi_offset %rbx, -56
	.cfi_offset %r12, -48
	.cfi_offset %r13, -40
	.cfi_offset %r14, -32
	.cfi_offset %r15, -24
Ltmp503:
	.loc	44 265 41 prologue_end
	movq	(%rdi), %rax
Ltmp504:
	.loc	13 2130 14
	movq	(%rax), %rbx
Ltmp505:
	.loc	13 2130 14 is_stmt 0
	movq	$0, (%rax)
Ltmp506:
	.loc	30 385 13 is_stmt 1
	testq	%rbx, %rbx
	je	LBB9_13
Ltmp507:
	.file	46 "/Users/yingyuhang/.cargo/registry/src/github.com-1ecc6299db9ec823/rayon-core-1.7.1/src/lib.rs"
	.loc	46 173 9
	movq	$0, -152(%rbp)
	movq	$0, -136(%rbp)
	movq	$0, -120(%rbp)
	movq	$0, -104(%rbp)
	movb	$0, -88(%rbp)
	xorps	%xmm0, %xmm0
	movaps	%xmm0, -176(%rbp)
	leaq	-72(%rbp), %rdi
Ltmp508:
	.loc	46 0 9 is_stmt 0
	leaq	-176(%rbp), %rsi
Ltmp509:
	.loc	1 168 28 is_stmt 1
	callq	__ZN10rayon_core8registry8Registry3new17hb00794ea5d45a4e3E
Ltmp510:
	.loc	28 519 13
	cmpl	$1, -72(%rbp)
	jne	LBB9_3
Ltmp511:
	.loc	28 520 23
	movq	-64(%rbp), %r15
	movq	-56(%rbp), %r12
	movl	$1, %r13d
Ltmp512:
	.loc	22 184 1
	cmpq	$0, (%rbx)
	jne	LBB9_6
	jmp	LBB9_12
Ltmp513:
LBB9_3:
	.loc	28 519 16
	movq	-64(%rbp), %r14
Ltmp514:
	.loc	11 80 14
	movl	$8, %edi
	movl	$8, %esi
	callq	___rust_alloc
Ltmp515:
	.loc	11 278 9
	testq	%rax, %rax
	je	LBB9_14
Ltmp516:
	.loc	14 0 0 is_stmt 0
	movq	%rax, %r15
	.loc	14 176 13 is_stmt 1
	movq	%r14, (%rax)
Ltmp517:
	.loc	1 197 17
	movq	%rax, __ZN10rayon_core8registry12THE_REGISTRY17hec843bc74b106e01E(%rip)
	xorl	%r13d, %r13d
Ltmp518:
	.loc	22 184 1
	cmpq	$0, (%rbx)
	je	LBB9_12
Ltmp519:
LBB9_6:
	.loc	22 184 1 is_stmt 0
	movb	8(%rbx), %al
Ltmp520:
	cmpb	$3, %al
	ja	LBB9_8
Ltmp521:
	.loc	22 0 1
	cmpb	$2, %al
	jne	LBB9_12
Ltmp522:
LBB9_8:
	.loc	22 184 1
	movq	16(%rbx), %r14
Ltmp523:
	.loc	22 184 1
	movq	(%r14), %rdi
	movq	8(%r14), %rax
Ltmp499:
	callq	*(%rax)
Ltmp500:
Ltmp524:
	movq	8(%r14), %rax
Ltmp525:
	.loc	11 292 20 is_stmt 1
	movq	8(%rax), %rsi
Ltmp526:
	.loc	11 185 12
	testq	%rsi, %rsi
	.loc	11 185 9 is_stmt 0
	je	LBB9_11
Ltmp527:
	.loc	22 184 1 is_stmt 1
	movq	(%r14), %rdi
Ltmp528:
	.loc	11 293 21
	movq	16(%rax), %rdx
Ltmp529:
	.loc	11 102 14
	callq	___rust_dealloc
Ltmp530:
LBB9_11:
	.loc	22 184 1
	movq	16(%rbx), %rdi
Ltmp531:
	.loc	11 102 14
	movl	$24, %esi
	movl	$8, %edx
	callq	___rust_dealloc
Ltmp532:
LBB9_12:
	.loc	1 194 9
	movq	%r13, (%rbx)
	movq	%r15, 8(%rbx)
	movq	%r12, 16(%rbx)
Ltmp533:
	.loc	44 265 60
	addq	$136, %rsp
	popq	%rbx
Ltmp534:
	popq	%r12
	popq	%r13
	popq	%r14
	popq	%r15
	popq	%rbp
	retq
LBB9_13:
Ltmp535:
	.loc	8 10 9
	leaq	l___unnamed_39(%rip), %rdi
Ltmp536:
	leaq	l___unnamed_46(%rip), %rdx
	movl	$43, %esi
Ltmp537:
	callq	__ZN4core9panicking5panic17h383a6b80ea7021aaE
Ltmp538:
LBB9_14:
	.loc	11 279 19
	movl	$8, %edi
	movl	$8, %esi
	callq	__ZN5alloc5alloc18handle_alloc_error17h28974197717b8939E
Ltmp539:
LBB9_15:
Ltmp501:
	.loc	11 0 19 is_stmt 0
	movq	%rax, -48(%rbp)
Ltmp540:
	.loc	22 184 1 is_stmt 1
	movq	(%r14), %rdi
	movq	8(%r14), %rsi
	callq	__ZN5alloc5alloc8box_free17h578dcf25edc19e78E
Ltmp541:
	.loc	22 184 1 is_stmt 0
	movq	16(%rbx), %rdi
	callq	__ZN5alloc5alloc8box_free17hf86e3cdc26dffa46E
Ltmp542:
	.loc	1 194 9 is_stmt 1
	movq	%r13, (%rbx)
	movq	%r15, 8(%rbx)
	movq	%r12, 16(%rbx)
	movq	-48(%rbp), %rdi
	callq	__Unwind_Resume
	ud2
Ltmp543:
Lfunc_end9:
	.cfi_endproc
	.section	__TEXT,__gcc_except_tab
	.p2align	2
GCC_except_table9:
Lexception5:
	.byte	255
	.byte	255
	.byte	1
	.uleb128 Lcst_end5-Lcst_begin5
Lcst_begin5:
	.uleb128 Lfunc_begin9-Lfunc_begin9
	.uleb128 Ltmp499-Lfunc_begin9
	.byte	0
	.byte	0
	.uleb128 Ltmp499-Lfunc_begin9
	.uleb128 Ltmp500-Ltmp499
	.uleb128 Ltmp501-Lfunc_begin9
	.byte	0
	.uleb128 Ltmp500-Lfunc_begin9
	.uleb128 Lfunc_end9-Ltmp500
	.byte	0
	.byte	0
Lcst_end5:
	.p2align	2

	.section	__TEXT,__text,regular,pure_instructions
	.p2align	4, 0x90
__ZN3std4sync4once4Once9call_once28_$u7b$$u7b$closure$u7d$$u7d$17h5c318b2d01ea8abfE:
Lfunc_begin10:
	.loc	44 265 0
	.cfi_startproc
	.cfi_personality 155, _rust_eh_personality
	.cfi_lsda 16, Lexception6
	pushq	%rbp
	.cfi_def_cfa_offset 16
	.cfi_offset %rbp, -16
	movq	%rsp, %rbp
	.cfi_def_cfa_register %rbp
Ltmp547:
	pushq	%r14
	pushq	%rbx
	subq	$64, %rsp
	.cfi_offset %rbx, -32
	.cfi_offset %r14, -24
Ltmp548:
	.loc	44 265 41 prologue_end
	movq	(%rdi), %rcx
Ltmp549:
	.loc	13 2130 14
	movq	(%rcx), %rax
Ltmp550:
	.loc	13 2130 14 is_stmt 0
	movq	$0, (%rcx)
Ltmp551:
	.loc	30 385 13 is_stmt 1
	testq	%rax, %rax
	je	LBB10_13
Ltmp552:
	.file	47 "/Users/yingyuhang/.cargo/registry/src/github.com-1ecc6299db9ec823/lazy_static-1.4.0/src/inline_lazy.rs"
	.loc	47 31 13
	movq	(%rax), %r14
Ltmp553:
	.file	48 "/rustc/6c8927b0cf80ceee19386026cf9d7fd4fd9d486f/src/libstd/env.rs"
	.loc	48 212 5
	leaq	l___unnamed_47(%rip), %rsi
Ltmp554:
	.loc	48 0 5 is_stmt 0
	leaq	-48(%rbp), %rdi
Ltmp555:
	.loc	48 212 5
	movl	$9, %edx
	callq	__ZN3std3env4_var17h5f49b4c5e0582abcE
Ltmp556:
	.loc	28 286 25 is_stmt 1
	cmpq	$0, -48(%rbp)
Ltmp557:
	.file	49 "/Users/yingyuhang/.cargo/registry/src/github.com-1ecc6299db9ec823/rayon-core-1.7.1/src/log.rs"
	.loc	49 95 9
	je	LBB10_7
Ltmp558:
Ltmp544:
	.loc	48 212 5
	leaq	l___unnamed_48(%rip), %rsi
	leaq	-80(%rbp), %rdi
	movl	$12, %edx
	callq	__ZN3std3env4_var17h5f49b4c5e0582abcE
Ltmp545:
Ltmp559:
	.loc	28 286 25
	cmpq	$0, -80(%rbp)
	sete	%bl
Ltmp560:
	.loc	22 0 0 is_stmt 0
	movq	-72(%rbp), %rdi
	testq	%rdi, %rdi
	je	LBB10_6
Ltmp561:
	movq	-64(%rbp), %rsi
	testq	%rsi, %rsi
	je	LBB10_6
Ltmp562:
	movl	$1, %edx
	callq	___rust_dealloc
Ltmp563:
LBB10_6:
	.loc	22 184 1 is_stmt 1
	movq	-40(%rbp), %rdi
Ltmp564:
	.loc	22 0 0 is_stmt 0
	testq	%rdi, %rdi
	jne	LBB10_9
	jmp	LBB10_11
Ltmp565:
LBB10_7:
	.loc	22 184 1
	movq	-40(%rbp), %rdi
	movb	$1, %bl
Ltmp566:
	.loc	22 0 0
	testq	%rdi, %rdi
	je	LBB10_11
Ltmp567:
LBB10_9:
	movq	-32(%rbp), %rsi
	testq	%rsi, %rsi
	je	LBB10_11
Ltmp568:
	movl	$1, %edx
	callq	___rust_dealloc
Ltmp569:
LBB10_11:
	.loc	13 2130 14 is_stmt 1
	movb	%bl, 8(%r14)
Ltmp570:
	.loc	44 265 60
	addq	$64, %rsp
	popq	%rbx
Ltmp571:
	popq	%r14
Ltmp572:
	popq	%rbp
	retq
Ltmp573:
LBB10_13:
	.loc	8 10 9
	leaq	l___unnamed_39(%rip), %rdi
Ltmp574:
	leaq	l___unnamed_46(%rip), %rdx
	movl	$43, %esi
Ltmp575:
	callq	__ZN4core9panicking5panic17h383a6b80ea7021aaE
Ltmp576:
LBB10_12:
Ltmp546:
	.loc	8 0 9 is_stmt 0
	movq	%rax, %rbx
	leaq	-48(%rbp), %rdi
Ltmp577:
	.loc	2 137 57 is_stmt 1
	callq	__ZN4core3ptr13drop_in_place17h7169641d9b382befE
	movq	%rbx, %rdi
	callq	__Unwind_Resume
	ud2
Ltmp578:
Lfunc_end10:
	.cfi_endproc
	.file	50 "/rustc/6c8927b0cf80ceee19386026cf9d7fd4fd9d486f/src/libcore/ops/function.rs"
	.section	__TEXT,__gcc_except_tab
	.p2align	2
GCC_except_table10:
Lexception6:
	.byte	255
	.byte	255
	.byte	1
	.uleb128 Lcst_end6-Lcst_begin6
Lcst_begin6:
	.uleb128 Lfunc_begin10-Lfunc_begin10
	.uleb128 Ltmp544-Lfunc_begin10
	.byte	0
	.byte	0
	.uleb128 Ltmp544-Lfunc_begin10
	.uleb128 Ltmp545-Ltmp544
	.uleb128 Ltmp546-Lfunc_begin10
	.byte	0
	.uleb128 Ltmp545-Lfunc_begin10
	.uleb128 Lfunc_end10-Ltmp545
	.byte	0
	.byte	0
Lcst_end6:
	.p2align	2

	.section	__TEXT,__text,regular,pure_instructions
	.p2align	4, 0x90
__ZN3std5error5Error5cause17h909f7f4ddaddb798E:
Lfunc_begin11:
	.file	51 "/rustc/6c8927b0cf80ceee19386026cf9d7fd4fd9d486f/src/libstd/error.rs"
	.loc	51 150 0
	.cfi_startproc
	pushq	%rbp
	.cfi_def_cfa_offset 16
	.cfi_offset %rbp, -16
	movq	%rsp, %rbp
	.cfi_def_cfa_register %rbp
	xorl	%eax, %eax
Ltmp579:
	.loc	46 655 13 prologue_end
	cmpb	$3, (%rdi)
	cmovneq	%rdi, %rax
	.loc	46 658 6
	leaq	l___unnamed_21(%rip), %rdx
Ltmp580:
	.loc	51 152 6
	popq	%rbp
	retq
Ltmp581:
Lfunc_end11:
	.cfi_endproc

	.p2align	4, 0x90
__ZN3std5error5Error7type_id17h7ae69afa4752d43cE:
Lfunc_begin12:
	.loc	51 111 0
	.cfi_startproc
	pushq	%rbp
	.cfi_def_cfa_offset 16
	.cfi_offset %rbp, -16
	movq	%rsp, %rbp
	.cfi_def_cfa_register %rbp
	movabsq	$7508826005076360610, %rax
Ltmp582:
	.loc	51 116 6 prologue_end
	popq	%rbp
	retq
Ltmp583:
Lfunc_end12:
	.cfi_endproc

	.p2align	4, 0x90
__ZN3std5error5Error7type_id17h997a517f770c7555E:
Lfunc_begin13:
	.loc	51 111 0
	.cfi_startproc
	pushq	%rbp
	.cfi_def_cfa_offset 16
	.cfi_offset %rbp, -16
	movq	%rsp, %rbp
	.cfi_def_cfa_register %rbp
	movabsq	$3803722919025274106, %rax
Ltmp584:
	.loc	51 116 6 prologue_end
	popq	%rbp
	retq
Ltmp585:
Lfunc_end13:
	.cfi_endproc

	.p2align	4, 0x90
__ZN3std5error5Error9backtrace17hd06c2b15e503e248E:
Lfunc_begin14:
	.loc	51 128 0
	.cfi_startproc
	pushq	%rbp
	.cfi_def_cfa_offset 16
	.cfi_offset %rbp, -16
	movq	%rsp, %rbp
	.cfi_def_cfa_register %rbp
Ltmp586:
	.loc	51 130 6 prologue_end
	xorl	%eax, %eax
	popq	%rbp
	retq
Ltmp587:
Lfunc_end14:
	.cfi_endproc

	.p2align	4, 0x90
__ZN3std6thread5local4fast12Key$LT$T$GT$14try_initialize17h939e0fa384ecf525E:
Lfunc_begin15:
	.loc	27 423 0
	.cfi_startproc
	.cfi_personality 155, _rust_eh_personality
	.cfi_lsda 16, Lexception7
	pushq	%rbp
	.cfi_def_cfa_offset 16
	.cfi_offset %rbp, -16
	movq	%rsp, %rbp
	.cfi_def_cfa_register %rbp
Ltmp591:
	pushq	%r14
	pushq	%rbx
	andq	$-32, %rsp
	subq	$96, %rsp
	.cfi_offset %rbx, -32
	.cfi_offset %r14, -24
	.loc	24 431 18 prologue_end
	movq	__ZN10rayon_core8registry8Registry14in_worker_cold10LOCK_LATCH7__getit5__KEY17h6dc853869bd098eaE@TLVP(%rip), %rdi
	callq	*(%rdi)
	movb	32(%rax), %al
Ltmp592:
	.loc	27 436 17
	testb	%al, %al
	je	LBB15_3
	cmpb	$1, %al
	je	LBB15_4
	.loc	27 0 17 is_stmt 0
	xorl	%eax, %eax
	jmp	LBB15_8
LBB15_3:
	.loc	27 438 21 is_stmt 1
	movq	__ZN10rayon_core8registry8Registry14in_worker_cold10LOCK_LATCH7__getit5__KEY17h6dc853869bd098eaE@TLVP(%rip), %rdi
	callq	*(%rdi)
	movq	%rax, %rbx
Ltmp593:
	leaq	__ZN3std6thread5local4fast13destroy_value17h591a387f10a85a18E(%rip), %rsi
	movq	%rax, %rdi
	callq	__ZN3std3sys4unix17thread_local_dtor13register_dtor17hfef630bd7160c727E
Ltmp594:
	.loc	13 2130 14
	movb	$1, 32(%rbx)
Ltmp595:
LBB15_4:
	.loc	13 0 14 is_stmt 0
	leaq	64(%rsp), %rdi
Ltmp596:
	.loc	1 438 54 is_stmt 1
	callq	__ZN10rayon_core5latch9LockLatch3new17he976511457741af0E
Ltmp597:
	.loc	27 304 50
	movaps	64(%rsp), %xmm0
	movaps	%xmm0, 48(%rsp)
	movaps	80(%rsp), %xmm0
Ltmp598:
	.loc	27 0 50 is_stmt 0
	movaps	%xmm0, 32(%rsp)
Ltmp599:
	.loc	13 2130 14 is_stmt 1
	movq	__ZN10rayon_core8registry8Registry14in_worker_cold10LOCK_LATCH7__getit5__KEY17h6dc853869bd098eaE@TLVP(%rip), %rdi
	callq	*(%rdi)
	movdqu	(%rax), %xmm0
	movups	16(%rax), %xmm1
Ltmp600:
	.loc	13 0 14 is_stmt 0
	movaps	48(%rsp), %xmm2
Ltmp601:
	.loc	13 2130 14
	movups	%xmm2, (%rax)
	movaps	32(%rsp), %xmm2
	movups	%xmm2, 16(%rax)
Ltmp602:
	.loc	23 816 5 is_stmt 1
	movaps	%xmm1, 16(%rsp)
	movdqa	%xmm0, (%rsp)
Ltmp603:
	.loc	22 184 1
	movq	%xmm0, %rbx
	testq	%rbx, %rbx
	je	LBB15_7
Ltmp604:
	.file	52 "/rustc/6c8927b0cf80ceee19386026cf9d7fd4fd9d486f/src/libstd/sys/unix/mutex.rs"
	.loc	52 78 17
	movq	%rbx, %rdi
	callq	_pthread_mutex_destroy
Ltmp605:
	.loc	11 102 14
	movl	$64, %esi
	movl	$8, %edx
	movq	%rbx, %rdi
	callq	___rust_dealloc
Ltmp606:
	.loc	22 184 1
	leaq	16(%rsp), %rbx
Ltmp607:
Ltmp588:
	.loc	22 184 1 is_stmt 0
	movq	%rbx, %rdi
	callq	__ZN69_$LT$std..sync..condvar..Condvar$u20$as$u20$core..ops..drop..Drop$GT$4drop17h997a5cc5da4d80f8E
Ltmp589:
Ltmp608:
	.loc	22 184 1
	movq	16(%rsp), %rdi
Ltmp609:
	.loc	11 102 14 is_stmt 1
	movl	$48, %esi
	movl	$8, %edx
	callq	___rust_dealloc
Ltmp610:
	.loc	27 312 17
	movq	__ZN10rayon_core8registry8Registry14in_worker_cold10LOCK_LATCH7__getit5__KEY17h6dc853869bd098eaE@TLVP(%rip), %rdi
	callq	*(%rdi)
Ltmp611:
LBB15_7:
	.loc	27 0 17 is_stmt 0
	movq	__ZN10rayon_core8registry8Registry14in_worker_cold10LOCK_LATCH7__getit5__KEY17h6dc853869bd098eaE@TLVP(%rip), %rdi
	callq	*(%rdi)
Ltmp612:
LBB15_8:
	.loc	27 429 10 is_stmt 1
	leaq	-16(%rbp), %rsp
	popq	%rbx
	popq	%r14
	popq	%rbp
	retq
LBB15_9:
Ltmp613:
Ltmp590:
	.loc	27 0 10 is_stmt 0
	movq	%rax, %r14
Ltmp614:
	.loc	22 184 1 is_stmt 1
	movq	%rbx, %rdi
	callq	__ZN4core3ptr13drop_in_place17hc91a6e7c93004a80E
	movq	%r14, %rdi
	callq	__Unwind_Resume
	ud2
Ltmp615:
Lfunc_end15:
	.cfi_endproc
	.file	53 "/rustc/6c8927b0cf80ceee19386026cf9d7fd4fd9d486f/src/libstd/sys_common/mutex.rs"
	.file	54 "/rustc/6c8927b0cf80ceee19386026cf9d7fd4fd9d486f/src/libstd/sync/mutex.rs"
	.section	__TEXT,__gcc_except_tab
	.p2align	2
GCC_except_table15:
Lexception7:
	.byte	255
	.byte	255
	.byte	1
	.uleb128 Lcst_end7-Lcst_begin7
Lcst_begin7:
	.uleb128 Lfunc_begin15-Lfunc_begin15
	.uleb128 Ltmp588-Lfunc_begin15
	.byte	0
	.byte	0
	.uleb128 Ltmp588-Lfunc_begin15
	.uleb128 Ltmp589-Ltmp588
	.uleb128 Ltmp590-Lfunc_begin15
	.byte	0
	.uleb128 Ltmp589-Lfunc_begin15
	.uleb128 Lfunc_end15-Ltmp589
	.byte	0
	.byte	0
Lcst_end7:
	.p2align	2

	.section	__TEXT,__text,regular,pure_instructions
	.p2align	4, 0x90
__ZN3std6thread5local4fast13destroy_value17h591a387f10a85a18E:
Lfunc_begin16:
	.loc	27 451 0
	.cfi_startproc
	.cfi_personality 155, _rust_eh_personality
	.cfi_lsda 16, Lexception8
	pushq	%rbp
	.cfi_def_cfa_offset 16
	.cfi_offset %rbp, -16
	movq	%rsp, %rbp
	.cfi_def_cfa_register %rbp
Ltmp619:
	pushq	%r14
	pushq	%rbx
	andq	$-32, %rsp
	subq	$64, %rsp
	.cfi_offset %rbx, -32
	.cfi_offset %r14, -24
Ltmp620:
	.loc	13 2130 14 prologue_end
	movups	(%rdi), %xmm0
	movups	16(%rdi), %xmm1
Ltmp621:
	.loc	13 2130 14 is_stmt 0
	xorps	%xmm2, %xmm2
	movups	%xmm2, (%rdi)
Ltmp622:
	.loc	23 816 5 is_stmt 1
	movaps	%xmm1, 48(%rsp)
	movaps	%xmm0, 32(%rsp)
Ltmp623:
	.loc	13 2130 14
	movb	$2, 32(%rdi)
Ltmp624:
	.loc	27 460 14
	movaps	32(%rsp), %xmm0
	movaps	48(%rsp), %xmm1
	movaps	%xmm0, (%rsp)
	movaps	%xmm1, 16(%rsp)
Ltmp625:
	.loc	22 184 1
	movq	(%rsp), %rbx
	testq	%rbx, %rbx
	je	LBB16_3
Ltmp626:
	.loc	52 78 17
	movq	%rbx, %rdi
Ltmp627:
	callq	_pthread_mutex_destroy
Ltmp628:
	.loc	11 102 14
	movl	$64, %esi
	movl	$8, %edx
	movq	%rbx, %rdi
	callq	___rust_dealloc
Ltmp629:
	.loc	22 184 1
	leaq	16(%rsp), %rbx
Ltmp630:
Ltmp616:
	.loc	22 184 1 is_stmt 0
	movq	%rbx, %rdi
	callq	__ZN69_$LT$std..sync..condvar..Condvar$u20$as$u20$core..ops..drop..Drop$GT$4drop17h997a5cc5da4d80f8E
Ltmp617:
Ltmp631:
	.loc	22 184 1
	movq	16(%rsp), %rdi
Ltmp632:
	.loc	11 102 14 is_stmt 1
	movl	$48, %esi
	movl	$8, %edx
	callq	___rust_dealloc
Ltmp633:
LBB16_3:
	.loc	27 461 6
	leaq	-16(%rbp), %rsp
	popq	%rbx
	popq	%r14
	popq	%rbp
	retq
LBB16_4:
Ltmp634:
Ltmp618:
	.loc	27 0 6 is_stmt 0
	movq	%rax, %r14
Ltmp635:
	.loc	22 184 1 is_stmt 1
	movq	%rbx, %rdi
	callq	__ZN4core3ptr13drop_in_place17hc91a6e7c93004a80E
	movq	%r14, %rdi
	callq	__Unwind_Resume
	ud2
Ltmp636:
Lfunc_end16:
	.cfi_endproc
	.section	__TEXT,__gcc_except_tab
	.p2align	2
GCC_except_table16:
Lexception8:
	.byte	255
	.byte	255
	.byte	1
	.uleb128 Lcst_end8-Lcst_begin8
Lcst_begin8:
	.uleb128 Ltmp616-Lfunc_begin16
	.uleb128 Ltmp617-Ltmp616
	.uleb128 Ltmp618-Lfunc_begin16
	.byte	0
	.uleb128 Ltmp617-Lfunc_begin16
	.uleb128 Lfunc_end16-Ltmp617
	.byte	0
	.byte	0
Lcst_end8:
	.p2align	2

	.section	__TEXT,__text,regular,pure_instructions
	.p2align	4, 0x90
__ZN3std9panicking11begin_panic17h6ef357f3fd72cd14E:
Lfunc_begin17:
	.file	55 "/rustc/6c8927b0cf80ceee19386026cf9d7fd4fd9d486f/src/libstd/panicking.rs"
	.loc	55 451 0
	.cfi_startproc
	pushq	%rbp
	.cfi_def_cfa_offset 16
	.cfi_offset %rbp, -16
	movq	%rsp, %rbp
	.cfi_def_cfa_register %rbp
	subq	$16, %rsp
Ltmp637:
	.loc	55 456 31 prologue_end
	movq	%rdi, -16(%rbp)
	movq	%rsi, -8(%rbp)
	.loc	55 456 61 is_stmt 0
	movq	%rdx, %rdi
Ltmp638:
	callq	__ZN4core5panic8Location6caller17hb284bf0993c43fcaE
Ltmp639:
	.loc	55 456 5
	leaq	l___unnamed_6(%rip), %rsi
	leaq	-16(%rbp), %rdi
	xorl	%edx, %edx
	movq	%rax, %rcx
	callq	__ZN3std9panicking20rust_panic_with_hook17h720143ee15fc80baE
Ltmp640:
Lfunc_end17:
	.cfi_endproc

	.p2align	4, 0x90
__ZN42_$LT$$RF$T$u20$as$u20$core..fmt..Debug$GT$3fmt17h0ac0ef4da1f40264E:
Lfunc_begin18:
	.loc	20 2022 0 is_stmt 1
	.cfi_startproc
	pushq	%rbp
	.cfi_def_cfa_offset 16
	.cfi_offset %rbp, -16
	movq	%rsp, %rbp
	.cfi_def_cfa_register %rbp
Ltmp641:
	.loc	20 2022 71 prologue_end
	movq	(%rdi), %rdi
Ltmp642:
	.loc	20 2022 62 is_stmt 0
	popq	%rbp
	jmp	__ZN66_$LT$crossbeam_epoch..epoch..Epoch$u20$as$u20$core..fmt..Debug$GT$3fmt17hdf0f84e88eb5dd39E
Ltmp643:
Lfunc_end18:
	.cfi_endproc

	.p2align	4, 0x90
__ZN42_$LT$$RF$T$u20$as$u20$core..fmt..Debug$GT$3fmt17h22851bace0e3e2f7E:
Lfunc_begin19:
	.loc	20 2022 0 is_stmt 1
	.cfi_startproc
	pushq	%rbp
	.cfi_def_cfa_offset 16
	.cfi_offset %rbp, -16
	movq	%rsp, %rbp
	.cfi_def_cfa_register %rbp
Ltmp644:
	pushq	%r14
	pushq	%rbx
	subq	$32, %rsp
	.cfi_offset %rbx, -32
	.cfi_offset %r14, -24
	.loc	20 2022 71 prologue_end
	movq	(%rdi), %rbx
Ltmp645:
	.loc	30 146 48
	cmpl	$1, (%rbx)
	jne	LBB19_2
Ltmp646:
	.loc	30 155 56
	addq	$8, %rbx
Ltmp647:
	.loc	30 146 48
	leaq	L___unnamed_49(%rip), %rdx
	leaq	-48(%rbp), %r14
	movl	$4, %ecx
	movq	%r14, %rdi
Ltmp648:
	callq	__ZN4core3fmt9Formatter11debug_tuple17h6c448643801d07e8E
Ltmp649:
	.loc	30 155 56
	movq	%rbx, -24(%rbp)
	.loc	30 146 48
	leaq	l___unnamed_11(%rip), %rdx
	leaq	-24(%rbp), %rsi
	movq	%r14, %rdi
	callq	__ZN4core3fmt8builders10DebugTuple5field17hc7b676d0e36b51d9E
	movq	%r14, %rdi
	jmp	LBB19_3
Ltmp650:
LBB19_2:
	.loc	30 146 48 is_stmt 0
	leaq	L___unnamed_50(%rip), %rdx
	leaq	-48(%rbp), %rbx
Ltmp651:
	movl	$4, %ecx
	movq	%rbx, %rdi
Ltmp652:
	callq	__ZN4core3fmt9Formatter11debug_tuple17h6c448643801d07e8E
Ltmp653:
	.loc	30 146 48
	movq	%rbx, %rdi
Ltmp654:
LBB19_3:
	.loc	30 0 0
	callq	__ZN4core3fmt8builders10DebugTuple6finish17h9f206806f7096c33E
Ltmp655:
	.loc	20 2022 84 is_stmt 1
	addq	$32, %rsp
	popq	%rbx
	popq	%r14
	popq	%rbp
	retq
Ltmp656:
Lfunc_end19:
	.cfi_endproc

	.p2align	4, 0x90
__ZN42_$LT$$RF$T$u20$as$u20$core..fmt..Debug$GT$3fmt17h2f36acc75a31ccafE:
Lfunc_begin20:
	.loc	20 2022 0
	.cfi_startproc
	pushq	%rbp
	.cfi_def_cfa_offset 16
	.cfi_offset %rbp, -16
	movq	%rsp, %rbp
	.cfi_def_cfa_register %rbp
Ltmp657:
	.loc	20 2022 71 prologue_end
	movq	(%rdi), %rdi
Ltmp658:
	.loc	20 2052 9
	popq	%rbp
	jmp	__ZN43_$LT$bool$u20$as$u20$core..fmt..Display$GT$3fmt17hd78396651a24cfbbE
Ltmp659:
Lfunc_end20:
	.cfi_endproc

	.p2align	4, 0x90
__ZN42_$LT$$RF$T$u20$as$u20$core..fmt..Debug$GT$3fmt17h42c3be5525de318cE:
Lfunc_begin21:
	.loc	20 2022 0
	.cfi_startproc
	pushq	%rbp
	.cfi_def_cfa_offset 16
	.cfi_offset %rbp, -16
	movq	%rsp, %rbp
	.cfi_def_cfa_register %rbp
	pushq	%r14
	pushq	%rbx
	.cfi_offset %rbx, -32
	.cfi_offset %r14, -24
	movq	%rsi, %rbx
Ltmp660:
	.loc	20 2022 71 prologue_end
	movq	(%rdi), %r14
Ltmp661:
	.file	56 "/rustc/6c8927b0cf80ceee19386026cf9d7fd4fd9d486f/src/libcore/fmt/num.rs"
	.loc	56 149 20
	movq	%rsi, %rdi
Ltmp662:
	callq	__ZN4core3fmt9Formatter15debug_lower_hex17hd07f6fde8d0365dfE
	.loc	56 149 17 is_stmt 0
	testb	%al, %al
	je	LBB21_1
Ltmp663:
	.loc	56 150 21 is_stmt 1
	movq	%r14, %rdi
	movq	%rbx, %rsi
	popq	%rbx
Ltmp664:
	popq	%r14
Ltmp665:
	popq	%rbp
	jmp	__ZN4core3fmt3num55_$LT$impl$u20$core..fmt..LowerHex$u20$for$u20$usize$GT$3fmt17hc47c170655f2f8b1E
LBB21_1:
Ltmp666:
	.loc	56 151 27
	movq	%rbx, %rdi
	callq	__ZN4core3fmt9Formatter15debug_upper_hex17hf480c256a9c81c1eE
	.loc	56 154 21
	movq	%r14, %rdi
	movq	%rbx, %rsi
	.loc	56 151 24
	testb	%al, %al
	je	LBB21_4
Ltmp667:
	.loc	56 152 21
	popq	%rbx
Ltmp668:
	popq	%r14
Ltmp669:
	popq	%rbp
	jmp	__ZN4core3fmt3num55_$LT$impl$u20$core..fmt..UpperHex$u20$for$u20$usize$GT$3fmt17he5a77a1ce12f6c22E
LBB21_4:
Ltmp670:
	.loc	56 154 21
	popq	%rbx
Ltmp671:
	popq	%r14
Ltmp672:
	popq	%rbp
	jmp	__ZN4core3fmt3num3imp54_$LT$impl$u20$core..fmt..Display$u20$for$u20$usize$GT$3fmt17h12ea2856299c9b06E
Ltmp673:
Lfunc_end21:
	.cfi_endproc

	.p2align	4, 0x90
__ZN42_$LT$$RF$T$u20$as$u20$core..fmt..Debug$GT$3fmt17h438c61aa03c0b1c7E:
Lfunc_begin22:
	.loc	20 2022 0
	.cfi_startproc
	pushq	%rbp
	.cfi_def_cfa_offset 16
	.cfi_offset %rbp, -16
	movq	%rsp, %rbp
	.cfi_def_cfa_register %rbp
Ltmp674:
	.loc	20 2022 71 prologue_end
	movq	(%rdi), %rdi
Ltmp675:
	.loc	20 2022 62 is_stmt 0
	popq	%rbp
	jmp	__ZN58_$LT$std..io..error..Error$u20$as$u20$core..fmt..Debug$GT$3fmt17hd2ddac42b4f82396E
Ltmp676:
Lfunc_end22:
	.cfi_endproc

	.p2align	4, 0x90
__ZN42_$LT$$RF$T$u20$as$u20$core..fmt..Debug$GT$3fmt17h4b83005b8aa9ecc3E:
Lfunc_begin23:
	.loc	20 2022 0 is_stmt 1
	.cfi_startproc
	pushq	%rbp
	.cfi_def_cfa_offset 16
	.cfi_offset %rbp, -16
	movq	%rsp, %rbp
	.cfi_def_cfa_register %rbp
	pushq	%r14
	pushq	%rbx
	.cfi_offset %rbx, -32
	.cfi_offset %r14, -24
	movq	%rsi, %rbx
Ltmp677:
	.loc	20 2022 71 prologue_end
	movq	(%rdi), %r14
Ltmp678:
	.loc	56 149 20
	movq	%rsi, %rdi
Ltmp679:
	callq	__ZN4core3fmt9Formatter15debug_lower_hex17hd07f6fde8d0365dfE
	.loc	56 149 17 is_stmt 0
	testb	%al, %al
	je	LBB23_1
Ltmp680:
	.loc	56 150 21 is_stmt 1
	movq	%r14, %rdi
	movq	%rbx, %rsi
	popq	%rbx
Ltmp681:
	popq	%r14
Ltmp682:
	popq	%rbp
	jmp	__ZN4core3fmt3num53_$LT$impl$u20$core..fmt..LowerHex$u20$for$u20$u64$GT$3fmt17hb1b2554e6a6ce90cE
LBB23_1:
Ltmp683:
	.loc	56 151 27
	movq	%rbx, %rdi
	callq	__ZN4core3fmt9Formatter15debug_upper_hex17hf480c256a9c81c1eE
	.loc	56 154 21
	movq	%r14, %rdi
	movq	%rbx, %rsi
	.loc	56 151 24
	testb	%al, %al
	je	LBB23_4
Ltmp684:
	.loc	56 152 21
	popq	%rbx
Ltmp685:
	popq	%r14
Ltmp686:
	popq	%rbp
	jmp	__ZN4core3fmt3num53_$LT$impl$u20$core..fmt..UpperHex$u20$for$u20$u64$GT$3fmt17h67a4ddf8c7fd5f2bE
LBB23_4:
Ltmp687:
	.loc	56 154 21
	popq	%rbx
Ltmp688:
	popq	%r14
Ltmp689:
	popq	%rbp
	jmp	__ZN4core3fmt3num3imp52_$LT$impl$u20$core..fmt..Display$u20$for$u20$u64$GT$3fmt17h3230c9bc78e30ed1E
Ltmp690:
Lfunc_end23:
	.cfi_endproc

	.p2align	4, 0x90
__ZN42_$LT$$RF$T$u20$as$u20$core..fmt..Debug$GT$3fmt17h60a1cc37e99f627aE:
Lfunc_begin24:
	.loc	20 2022 0
	.cfi_startproc
	pushq	%rbp
	.cfi_def_cfa_offset 16
	.cfi_offset %rbp, -16
	movq	%rsp, %rbp
	.cfi_def_cfa_register %rbp
	movq	%rsi, %rdi
Ltmp691:
	.loc	20 2225 9 prologue_end
	leaq	l___unnamed_51(%rip), %rsi
	movl	$11, %edx
	popq	%rbp
	jmp	__ZN4core3fmt9Formatter3pad17h426409b23b74b394E
Ltmp692:
Lfunc_end24:
	.cfi_endproc

	.section	__TEXT,__literal16,16byte_literals
	.p2align	4
LCPI25_0:
	.quad	1
	.quad	18
	.section	__TEXT,__text,regular,pure_instructions
	.p2align	4, 0x90
__ZN42_$LT$$RF$T$u20$as$u20$core..fmt..Debug$GT$3fmt17h69db08068b7f9749E:
Lfunc_begin25:
	.loc	20 2022 0
	.cfi_startproc
	pushq	%rbp
	.cfi_def_cfa_offset 16
	.cfi_offset %rbp, -16
	movq	%rsp, %rbp
	.cfi_def_cfa_register %rbp
	pushq	%r15
	pushq	%r14
	pushq	%rbx
	subq	$24, %rsp
	.cfi_offset %rbx, -40
	.cfi_offset %r14, -32
	.cfi_offset %r15, -24
	movq	%rsi, %rbx
Ltmp693:
	.loc	20 2022 71 prologue_end
	movq	(%rdi), %r15
Ltmp694:
	.loc	20 2116 25
	movups	(%rsi), %xmm0
	movaps	%xmm0, -48(%rbp)
Ltmp695:
	.loc	20 2117 25
	movl	48(%rsi), %r14d
Ltmp696:
	.loc	20 2123 12
	movq	%rsi, %rdi
Ltmp697:
	callq	__ZN4core3fmt9Formatter9alternate17hd77eec28e879e5edE
	.loc	20 0 0 is_stmt 0
	movl	48(%rbx), %ecx
	.loc	20 2123 9
	testb	%al, %al
	je	LBB25_3
Ltmp698:
	.loc	20 2124 13 is_stmt 1
	orl	$8, %ecx
	movl	%ecx, 48(%rbx)
Ltmp699:
	.loc	30 185 25
	cmpq	$1, (%rbx)
Ltmp700:
	.loc	20 2126 13
	je	LBB25_3
Ltmp701:
	.loc	20 2127 17
	movaps	LCPI25_0(%rip), %xmm0
	movups	%xmm0, (%rbx)
Ltmp702:
LBB25_3:
	.loc	20 2130 9
	orl	$4, %ecx
	movl	%ecx, 48(%rbx)
	.loc	20 2132 35
	movq	(%r15), %rax
	.loc	20 2132 34 is_stmt 0
	movq	%rax, -32(%rbp)
	leaq	-32(%rbp), %rdi
	.loc	20 2132 19
	movq	%rbx, %rsi
	callq	__ZN4core3fmt3num55_$LT$impl$u20$core..fmt..LowerHex$u20$for$u20$usize$GT$3fmt17hc47c170655f2f8b1E
Ltmp703:
	.loc	20 0 19
	movaps	-48(%rbp), %xmm0
Ltmp704:
	.loc	20 2134 9 is_stmt 1
	movups	%xmm0, (%rbx)
	.loc	20 2135 9
	movl	%r14d, 48(%rbx)
Ltmp705:
	.loc	20 2022 84
	addq	$24, %rsp
	popq	%rbx
Ltmp706:
	popq	%r14
Ltmp707:
	popq	%r15
	popq	%rbp
	retq
Ltmp708:
Lfunc_end25:
	.cfi_endproc

	.section	__TEXT,__literal16,16byte_literals
	.p2align	4
LCPI26_0:
	.quad	1
	.quad	18
	.section	__TEXT,__text,regular,pure_instructions
	.p2align	4, 0x90
__ZN42_$LT$$RF$T$u20$as$u20$core..fmt..Debug$GT$3fmt17h9665239dc850214eE:
Lfunc_begin26:
	.loc	20 2022 0
	.cfi_startproc
	pushq	%rbp
	.cfi_def_cfa_offset 16
	.cfi_offset %rbp, -16
	movq	%rsp, %rbp
	.cfi_def_cfa_register %rbp
	pushq	%r15
	pushq	%r14
	pushq	%rbx
	subq	$24, %rsp
	.cfi_offset %rbx, -40
	.cfi_offset %r14, -32
	.cfi_offset %r15, -24
	movq	%rsi, %rbx
Ltmp709:
	.loc	20 2022 71 prologue_end
	movq	(%rdi), %rax
Ltmp710:
	.loc	22 1439 37
	movq	(%rax), %r15
Ltmp711:
	.loc	20 2116 25
	movups	(%rsi), %xmm0
	movaps	%xmm0, -48(%rbp)
Ltmp712:
	.loc	20 2117 25
	movl	48(%rsi), %r14d
Ltmp713:
	.loc	20 2123 12
	movq	%rsi, %rdi
Ltmp714:
	callq	__ZN4core3fmt9Formatter9alternate17hd77eec28e879e5edE
	.loc	20 0 0 is_stmt 0
	movl	48(%rbx), %ecx
	.loc	20 2123 9
	testb	%al, %al
	je	LBB26_3
Ltmp715:
	.loc	20 2124 13 is_stmt 1
	orl	$8, %ecx
	movl	%ecx, 48(%rbx)
Ltmp716:
	.loc	30 185 25
	cmpq	$1, (%rbx)
Ltmp717:
	.loc	20 2126 13
	je	LBB26_3
Ltmp718:
	.loc	20 2127 17
	movaps	LCPI26_0(%rip), %xmm0
	movups	%xmm0, (%rbx)
Ltmp719:
LBB26_3:
	.loc	20 2130 9
	orl	$4, %ecx
	movl	%ecx, 48(%rbx)
	.loc	20 2132 34
	movq	%r15, -32(%rbp)
	leaq	-32(%rbp), %rdi
	.loc	20 2132 19 is_stmt 0
	movq	%rbx, %rsi
	callq	__ZN4core3fmt3num55_$LT$impl$u20$core..fmt..LowerHex$u20$for$u20$usize$GT$3fmt17hc47c170655f2f8b1E
Ltmp720:
	.loc	20 0 19
	movaps	-48(%rbp), %xmm0
Ltmp721:
	.loc	20 2134 9 is_stmt 1
	movups	%xmm0, (%rbx)
	.loc	20 2135 9
	movl	%r14d, 48(%rbx)
Ltmp722:
	.loc	20 2022 84
	addq	$24, %rsp
	popq	%rbx
Ltmp723:
	popq	%r14
Ltmp724:
	popq	%r15
	popq	%rbp
	retq
Ltmp725:
Lfunc_end26:
	.cfi_endproc

	.p2align	4, 0x90
__ZN42_$LT$$RF$T$u20$as$u20$core..fmt..Debug$GT$3fmt17h9b2e3d76d640cde6E:
Lfunc_begin27:
	.loc	20 2022 0
	.cfi_startproc
	pushq	%rbp
	.cfi_def_cfa_offset 16
	.cfi_offset %rbp, -16
	movq	%rsp, %rbp
	.cfi_def_cfa_register %rbp
	movq	%rsi, %rdi
Ltmp726:
	.loc	46 695 17 prologue_end
	leaq	l___unnamed_52(%rip), %rsi
	movl	$9, %edx
	popq	%rbp
	jmp	__ZN4core3fmt9Formatter9write_str17h98e119ad25a8903eE
Ltmp727:
Lfunc_end27:
	.cfi_endproc

	.p2align	4, 0x90
__ZN42_$LT$$RF$T$u20$as$u20$core..fmt..Debug$GT$3fmt17ha943a61fe36506ebE:
Lfunc_begin28:
	.loc	20 2022 0
	.cfi_startproc
	pushq	%rbp
	.cfi_def_cfa_offset 16
	.cfi_offset %rbp, -16
	movq	%rsp, %rbp
	.cfi_def_cfa_register %rbp
	movq	%rsi, %rdx
Ltmp728:
	.loc	20 2022 71 prologue_end
	movq	(%rdi), %rax
Ltmp729:
	.loc	21 818 19
	movq	(%rax), %rdi
Ltmp730:
	.loc	21 1923 55
	movq	16(%rax), %rsi
Ltmp731:
	.file	57 "/rustc/6c8927b0cf80ceee19386026cf9d7fd4fd9d486f/src/liballoc/string.rs"
	.loc	57 1960 9
	popq	%rbp
	jmp	__ZN40_$LT$str$u20$as$u20$core..fmt..Debug$GT$3fmt17h5b42b6f497bd434cE
Ltmp732:
Lfunc_end28:
	.cfi_endproc

	.p2align	4, 0x90
__ZN42_$LT$$RF$T$u20$as$u20$core..fmt..Debug$GT$3fmt17hab18ac6cafbd4cd1E:
Lfunc_begin29:
	.loc	20 2022 0
	.cfi_startproc
	pushq	%rbp
	.cfi_def_cfa_offset 16
	.cfi_offset %rbp, -16
	movq	%rsp, %rbp
	.cfi_def_cfa_register %rbp
Ltmp733:
	pushq	%r14
	pushq	%rbx
	subq	$32, %rsp
	.cfi_offset %rbx, -32
	.cfi_offset %r14, -24
	.loc	20 2022 71 prologue_end
	movq	(%rdi), %rbx
Ltmp734:
	.loc	46 93 10
	cmpb	$3, (%rbx)
	jne	LBB29_1
Ltmp735:
	leaq	l___unnamed_53(%rip), %rdx
	leaq	-48(%rbp), %rbx
Ltmp736:
	movl	$28, %ecx
	movq	%rbx, %rdi
Ltmp737:
	callq	__ZN4core3fmt9Formatter11debug_tuple17h6c448643801d07e8E
Ltmp738:
	.loc	46 93 10 is_stmt 0
	movq	%rbx, %rdi
	jmp	LBB29_3
Ltmp739:
LBB29_1:
	.loc	46 93 10
	leaq	l___unnamed_54(%rip), %rdx
	leaq	-48(%rbp), %r14
	movl	$7, %ecx
	movq	%r14, %rdi
Ltmp740:
	callq	__ZN4core3fmt9Formatter11debug_tuple17h6c448643801d07e8E
Ltmp741:
	.loc	46 96 13 is_stmt 1
	movq	%rbx, -24(%rbp)
	.loc	46 93 10
	leaq	l___unnamed_29(%rip), %rdx
	leaq	-24(%rbp), %rsi
	movq	%r14, %rdi
	callq	__ZN4core3fmt8builders10DebugTuple5field17hc7b676d0e36b51d9E
	movq	%r14, %rdi
Ltmp742:
LBB29_3:
	.loc	46 0 0 is_stmt 0
	callq	__ZN4core3fmt8builders10DebugTuple6finish17h9f206806f7096c33E
Ltmp743:
	.loc	20 2022 84 is_stmt 1
	addq	$32, %rsp
	popq	%rbx
	popq	%r14
	popq	%rbp
	retq
Ltmp744:
Lfunc_end29:
	.cfi_endproc

	.p2align	4, 0x90
__ZN42_$LT$$RF$T$u20$as$u20$core..fmt..Debug$GT$3fmt17hc5039182a677fe6bE:
Lfunc_begin30:
	.loc	20 2022 0
	.cfi_startproc
	pushq	%rbp
	.cfi_def_cfa_offset 16
	.cfi_offset %rbp, -16
	movq	%rsp, %rbp
	.cfi_def_cfa_register %rbp
Ltmp745:
	.loc	20 2022 71 prologue_end
	movq	(%rdi), %rdi
Ltmp746:
	.loc	20 2022 62 is_stmt 0
	popq	%rbp
	jmp	__ZN68_$LT$core..sync..atomic..AtomicUsize$u20$as$u20$core..fmt..Debug$GT$3fmt17hc16a3653417027b4E
Ltmp747:
Lfunc_end30:
	.cfi_endproc

	.p2align	4, 0x90
__ZN4core3fmt3num52_$LT$impl$u20$core..fmt..Debug$u20$for$u20$usize$GT$3fmt17h3ce1e8eb3a3c5c0bE:
Lfunc_begin31:
	.loc	56 148 0 is_stmt 1
	.cfi_startproc
	pushq	%rbp
	.cfi_def_cfa_offset 16
	.cfi_offset %rbp, -16
	movq	%rsp, %rbp
	.cfi_def_cfa_register %rbp
	pushq	%r14
	pushq	%rbx
	.cfi_offset %rbx, -32
	.cfi_offset %r14, -24
	movq	%rsi, %rbx
	movq	%rdi, %r14
Ltmp748:
	.loc	56 149 20 prologue_end
	movq	%rsi, %rdi
	callq	__ZN4core3fmt9Formatter15debug_lower_hex17hd07f6fde8d0365dfE
	.loc	56 149 17 is_stmt 0
	testb	%al, %al
	je	LBB31_1
Ltmp749:
	.loc	56 150 21 is_stmt 1
	movq	%r14, %rdi
	movq	%rbx, %rsi
	popq	%rbx
Ltmp750:
	popq	%r14
Ltmp751:
	popq	%rbp
	jmp	__ZN4core3fmt3num55_$LT$impl$u20$core..fmt..LowerHex$u20$for$u20$usize$GT$3fmt17hc47c170655f2f8b1E
LBB31_1:
Ltmp752:
	.loc	56 151 27
	movq	%rbx, %rdi
	callq	__ZN4core3fmt9Formatter15debug_upper_hex17hf480c256a9c81c1eE
	.loc	56 154 21
	movq	%r14, %rdi
	movq	%rbx, %rsi
	.loc	56 151 24
	testb	%al, %al
	je	LBB31_4
Ltmp753:
	.loc	56 152 21
	popq	%rbx
Ltmp754:
	popq	%r14
Ltmp755:
	popq	%rbp
	jmp	__ZN4core3fmt3num55_$LT$impl$u20$core..fmt..UpperHex$u20$for$u20$usize$GT$3fmt17he5a77a1ce12f6c22E
LBB31_4:
Ltmp756:
	.loc	56 154 21
	popq	%rbx
Ltmp757:
	popq	%r14
Ltmp758:
	popq	%rbp
	jmp	__ZN4core3fmt3num3imp54_$LT$impl$u20$core..fmt..Display$u20$for$u20$usize$GT$3fmt17h12ea2856299c9b06E
Ltmp759:
Lfunc_end31:
	.cfi_endproc

	.p2align	4, 0x90
__ZN4core3ops8function6FnOnce40call_once$u7b$$u7b$vtable.shim$u7d$$u7d$17ha21b9e3b0990b901E:
Lfunc_begin32:
	.loc	50 233 0
	.cfi_startproc
	.cfi_personality 155, _rust_eh_personality
	.cfi_lsda 16, Lexception9
	pushq	%rbp
	.cfi_def_cfa_offset 16
	.cfi_offset %rbp, -16
	movq	%rsp, %rbp
	.cfi_def_cfa_register %rbp
	pushq	%r15
	pushq	%r14
	pushq	%r13
	pushq	%r12
	pushq	%rbx
	subq	$88, %rsp
	.cfi_offset %rbx, -56
	.cfi_offset %r12, -48
	.cfi_offset %r13, -40
	.cfi_offset %r14, -32
	.cfi_offset %r15, -24
Ltmp779:
	movq	%rdi, %r13
Ltmp760:
Ltmp780:
	.file	58 "/rustc/6c8927b0cf80ceee19386026cf9d7fd4fd9d486f/src/libstd/thread/mod.rs"
	.loc	58 469 33 prologue_end
	callq	__ZN3std6thread6Thread5cname17h44564751028e48adE
Ltmp761:
Ltmp781:
	.loc	58 469 20 is_stmt 0
	testq	%rax, %rax
	je	LBB32_3
Ltmp782:
Ltmp762:
	.loc	58 470 17 is_stmt 1
	movq	%rax, %rdi
	movq	%rdx, %rsi
	callq	__ZN3std3sys4unix6thread6Thread8set_name17h1a773ceeeeef1604E
Ltmp783:
Ltmp763:
LBB32_3:
Ltmp764:
	.loc	58 0 17 is_stmt 0
	leaq	-128(%rbp), %rdi
	.loc	58 473 30 is_stmt 1
	callq	__ZN3std3sys4unix6thread5guard7current17h6ce1355a07295181E
Ltmp765:
Ltmp784:
	.loc	58 473 53 is_stmt 0
	movq	(%r13), %rsi
Ltmp767:
	leaq	-128(%rbp), %rdi
	.loc	58 473 13
	callq	__ZN3std10sys_common11thread_info3set17hb6c66faaab45cab1E
Ltmp768:
Ltmp785:
	.loc	58 474 74 is_stmt 1
	movups	8(%r13), %xmm0
	leaq	24(%r13), %rsi
Ltmp786:
	.loc	58 475 76
	movaps	%xmm0, -128(%rbp)
	leaq	-112(%rbp), %rdi
	movl	$9, %ecx
	rep;movsq (%rsi), %es:(%rdi)
Ltmp770:
	leaq	-128(%rbp), %rdi
	.loc	58 475 17 is_stmt 0
	callq	__ZN3std10sys_common9backtrace28__rust_begin_short_backtrace17h6f50f8a8f49d9db8E
Ltmp771:
Ltmp787:
	.loc	58 0 17
	xorl	%r14d, %r14d
Ltmp788:
	.loc	58 477 14 is_stmt 1
	movq	96(%r13), %rbx
Ltmp789:
	.loc	22 184 1
	cmpq	$0, 16(%rbx)
	je	LBB32_14
Ltmp790:
LBB32_10:
	.loc	22 184 1 is_stmt 0
	movq	24(%rbx), %rdi
	testq	%rdi, %rdi
	je	LBB32_14
Ltmp791:
	.loc	22 184 1
	movq	32(%rbx), %rax
Ltmp776:
	callq	*(%rax)
Ltmp777:
Ltmp792:
	movq	32(%rbx), %rax
Ltmp793:
	.loc	11 292 20 is_stmt 1
	movq	8(%rax), %rsi
Ltmp794:
	.loc	11 185 12
	testq	%rsi, %rsi
	.loc	11 185 9 is_stmt 0
	je	LBB32_14
Ltmp795:
	.loc	22 184 1 is_stmt 1
	movq	24(%rbx), %rdi
Ltmp796:
	.loc	11 293 21
	movq	16(%rax), %rdx
Ltmp797:
	.loc	11 102 14
	callq	___rust_dealloc
Ltmp798:
LBB32_14:
	.loc	58 0 0 is_stmt 0
	addq	$96, %r13
Ltmp799:
	.loc	58 477 13 is_stmt 1
	movq	$1, 16(%rbx)
	movq	%r14, 24(%rbx)
	movq	%r15, 32(%rbx)
Ltmp800:
	.loc	31 1350 12
	movq	(%r13), %rax
Ltmp801:
	.loc	6 2403 24
	lock		decq	(%rax)
Ltmp802:
	.loc	31 1350 9
	jne	LBB32_22
Ltmp803:
	.loc	6 2675 24
	##MEMBARRIER
Ltmp804:
	.loc	31 1385 13
	movq	%r13, %rdi
	addq	$88, %rsp
	popq	%rbx
	popq	%r12
	popq	%r13
Ltmp805:
	popq	%r14
	popq	%r15
	popq	%rbp
	jmp	__ZN5alloc4sync12Arc$LT$T$GT$9drop_slow17hbc9b89e8a2345aa8E
Ltmp806:
LBB32_22:
	.loc	50 233 5
	addq	$88, %rsp
	popq	%rbx
	popq	%r12
	popq	%r13
	popq	%r14
	popq	%r15
	popq	%rbp
	retq
LBB32_16:
Ltmp807:
Ltmp778:
	.loc	50 0 5 is_stmt 0
	movq	%rax, %r12
Ltmp808:
	.loc	22 184 1 is_stmt 1
	movq	24(%rbx), %rdi
	movq	32(%rbx), %rsi
	callq	__ZN5alloc5alloc8box_free17h578dcf25edc19e78E
Ltmp809:
	.loc	58 477 13
	movq	$1, 16(%rbx)
	movq	%r14, 24(%rbx)
	movq	%r15, 32(%rbx)
	jmp	LBB32_17
Ltmp810:
LBB32_7:
Ltmp772:
Ltmp773:
	.loc	55 360 23
	movq	%rax, %rdi
	callq	__ZN3std9panicking3try7cleanup17hd630ddf77975344aE
Ltmp774:
Ltmp811:
	.loc	55 0 0 is_stmt 0
	movq	%rax, %r14
	movq	%rdx, %r15
Ltmp812:
	.loc	58 477 14 is_stmt 1
	movq	96(%r13), %rbx
Ltmp813:
	.loc	22 184 1
	cmpq	$0, 16(%rbx)
	jne	LBB32_10
	jmp	LBB32_14
Ltmp814:
LBB32_18:
Ltmp775:
	.loc	22 0 1 is_stmt 0
	movq	%rax, %r12
	jmp	LBB32_17
Ltmp815:
LBB32_19:
Ltmp769:
	movq	%rax, %r12
	jmp	LBB32_20
Ltmp816:
LBB32_21:
Ltmp766:
	movq	%rax, %r12
	.loc	58 478 9 is_stmt 1
	movq	%r13, %rdi
	callq	__ZN4core3ptr13drop_in_place17h8138b93eb8f9391dE
Ltmp817:
LBB32_20:
	leaq	8(%r13), %rdi
	callq	__ZN4core3ptr13drop_in_place17h050f9ddedd6826a4E
Ltmp818:
LBB32_17:
	addq	$96, %r13
Ltmp819:
	movq	%r13, %rdi
	callq	__ZN4core3ptr13drop_in_place17h96c0f16f8fd8d833E
	movq	%r12, %rdi
	callq	__Unwind_Resume
	ud2
Ltmp820:
Lfunc_end32:
	.cfi_endproc
	.file	59 "/rustc/6c8927b0cf80ceee19386026cf9d7fd4fd9d486f/src/libstd/panic.rs"
	.section	__TEXT,__gcc_except_tab
	.p2align	2
GCC_except_table32:
Lexception9:
	.byte	255
	.byte	155
	.uleb128 Lttbase0-Lttbaseref0
Lttbaseref0:
	.byte	1
	.uleb128 Lcst_end9-Lcst_begin9
Lcst_begin9:
	.uleb128 Ltmp760-Lfunc_begin32
	.uleb128 Ltmp765-Ltmp760
	.uleb128 Ltmp766-Lfunc_begin32
	.byte	0
	.uleb128 Ltmp767-Lfunc_begin32
	.uleb128 Ltmp768-Ltmp767
	.uleb128 Ltmp769-Lfunc_begin32
	.byte	0
	.uleb128 Ltmp770-Lfunc_begin32
	.uleb128 Ltmp771-Ltmp770
	.uleb128 Ltmp772-Lfunc_begin32
	.byte	3
	.uleb128 Ltmp776-Lfunc_begin32
	.uleb128 Ltmp777-Ltmp776
	.uleb128 Ltmp778-Lfunc_begin32
	.byte	0
	.uleb128 Ltmp777-Lfunc_begin32
	.uleb128 Ltmp773-Ltmp777
	.byte	0
	.byte	0
	.uleb128 Ltmp773-Lfunc_begin32
	.uleb128 Ltmp774-Ltmp773
	.uleb128 Ltmp775-Lfunc_begin32
	.byte	0
	.uleb128 Ltmp774-Lfunc_begin32
	.uleb128 Lfunc_end32-Ltmp774
	.byte	0
	.byte	0
Lcst_end9:
	.byte	0
	.byte	0
	.byte	1
	.byte	125
	.p2align	2
	.long	0
Lttbase0:
	.p2align	2

	.section	__TEXT,__text,regular,pure_instructions
	.p2align	4, 0x90
__ZN4core3ops8function6FnOnce40call_once$u7b$$u7b$vtable.shim$u7d$$u7d$17ha81f39c6f29602dcE:
Lfunc_begin33:
	.loc	50 233 0
	.cfi_startproc
	pushq	%rbp
	.cfi_def_cfa_offset 16
	.cfi_offset %rbp, -16
	movq	%rsp, %rbp
	.cfi_def_cfa_register %rbp
	subq	$16, %rsp
Ltmp821:
	.loc	50 233 5 prologue_end
	movq	(%rdi), %rax
Ltmp822:
	.loc	50 0 5 is_stmt 0
	movq	%rax, -8(%rbp)
Ltmp823:
	leaq	-8(%rbp), %rdi
Ltmp824:
	.loc	50 233 5
	callq	__ZN3std4sync4once4Once9call_once28_$u7b$$u7b$closure$u7d$$u7d$17h24e3f59d26fce0ecE
Ltmp825:
	.loc	50 233 5
	addq	$16, %rsp
	popq	%rbp
	retq
Ltmp826:
Lfunc_end33:
	.cfi_endproc

	.p2align	4, 0x90
__ZN4core3ops8function6FnOnce40call_once$u7b$$u7b$vtable.shim$u7d$$u7d$17hcff22b7a838d2b5cE:
Lfunc_begin34:
	.loc	50 233 0 is_stmt 1
	.cfi_startproc
	pushq	%rbp
	.cfi_def_cfa_offset 16
	.cfi_offset %rbp, -16
	movq	%rsp, %rbp
	.cfi_def_cfa_register %rbp
	subq	$16, %rsp
Ltmp827:
	.loc	50 233 5 prologue_end
	movq	(%rdi), %rax
Ltmp828:
	.loc	50 0 5 is_stmt 0
	movq	%rax, -8(%rbp)
Ltmp829:
	leaq	-8(%rbp), %rdi
Ltmp830:
	.loc	50 233 5
	callq	__ZN3std4sync4once4Once9call_once28_$u7b$$u7b$closure$u7d$$u7d$17h5c318b2d01ea8abfE
Ltmp831:
	.loc	50 233 5
	addq	$16, %rsp
	popq	%rbp
	retq
Ltmp832:
Lfunc_end34:
	.cfi_endproc

	.p2align	4, 0x90
__ZN4core3ops8function6FnOnce40call_once$u7b$$u7b$vtable.shim$u7d$$u7d$17hda29584f17a7e4d7E:
Lfunc_begin35:
	.loc	50 233 0 is_stmt 1
	.cfi_startproc
	pushq	%rbp
	.cfi_def_cfa_offset 16
	.cfi_offset %rbp, -16
	movq	%rsp, %rbp
	.cfi_def_cfa_register %rbp
	subq	$16, %rsp
Ltmp833:
	.loc	50 233 5 prologue_end
	movq	(%rdi), %rax
Ltmp834:
	.loc	50 0 5 is_stmt 0
	movq	%rax, -8(%rbp)
Ltmp835:
	leaq	-8(%rbp), %rdi
Ltmp836:
	.loc	50 233 5
	callq	__ZN3std4sync4once4Once9call_once28_$u7b$$u7b$closure$u7d$$u7d$17h16009eb7b036d4e6E
Ltmp837:
	.loc	50 233 5
	addq	$16, %rsp
	popq	%rbp
	retq
Ltmp838:
Lfunc_end35:
	.cfi_endproc

	.p2align	4, 0x90
__ZN4core3ptr13drop_in_place17h001c19e3cb08977cE:
Lfunc_begin36:
	.loc	22 184 0 is_stmt 1
	.cfi_startproc
	pushq	%rbp
	.cfi_def_cfa_offset 16
	.cfi_offset %rbp, -16
	movq	%rsp, %rbp
	.cfi_def_cfa_register %rbp
Ltmp839:
	.loc	22 184 1 prologue_end
	popq	%rbp
	retq
Ltmp840:
Lfunc_end36:
	.cfi_endproc

	.p2align	4, 0x90
__ZN4core3ptr13drop_in_place17h01e53f1db72aa9f3E:
Lfunc_begin37:
	.loc	22 184 0
	.cfi_startproc
	.cfi_personality 155, _rust_eh_personality
	.cfi_lsda 16, Lexception10
	pushq	%rbp
	.cfi_def_cfa_offset 16
	.cfi_offset %rbp, -16
	movq	%rsp, %rbp
	.cfi_def_cfa_register %rbp
	pushq	%r14
	pushq	%rbx
	.cfi_offset %rbx, -32
	.cfi_offset %r14, -24
	movq	%rdi, %rbx
Ltmp844:
	.loc	54 427 18 prologue_end
	movq	8(%rdi), %rdi
Ltmp845:
	.loc	52 78 17
	callq	_pthread_mutex_destroy
Ltmp846:
	.loc	22 184 1
	movq	8(%rbx), %rdi
Ltmp847:
	.loc	11 102 14
	movl	$64, %esi
	movl	$8, %edx
	callq	___rust_dealloc
Ltmp848:
	.loc	22 184 1
	addq	$24, %rbx
Ltmp849:
Ltmp841:
	.loc	22 184 1 is_stmt 0
	movq	%rbx, %rdi
	callq	__ZN69_$LT$std..sync..condvar..Condvar$u20$as$u20$core..ops..drop..Drop$GT$4drop17h997a5cc5da4d80f8E
Ltmp842:
Ltmp850:
	.loc	22 184 1
	movq	(%rbx), %rdi
Ltmp851:
	.loc	11 102 14 is_stmt 1
	movl	$48, %esi
	movl	$8, %edx
	popq	%rbx
Ltmp852:
	popq	%r14
	popq	%rbp
	jmp	___rust_dealloc
Ltmp853:
LBB37_2:
Ltmp843:
	.loc	11 0 14 is_stmt 0
	movq	%rax, %r14
	.loc	22 184 1 is_stmt 1
	movq	%rbx, %rdi
	callq	__ZN4core3ptr13drop_in_place17hc91a6e7c93004a80E
	movq	%r14, %rdi
	callq	__Unwind_Resume
	ud2
Ltmp854:
Lfunc_end37:
	.cfi_endproc
	.section	__TEXT,__gcc_except_tab
	.p2align	2
GCC_except_table37:
Lexception10:
	.byte	255
	.byte	255
	.byte	1
	.uleb128 Lcst_end10-Lcst_begin10
Lcst_begin10:
	.uleb128 Ltmp841-Lfunc_begin37
	.uleb128 Ltmp842-Ltmp841
	.uleb128 Ltmp843-Lfunc_begin37
	.byte	0
	.uleb128 Ltmp842-Lfunc_begin37
	.uleb128 Lfunc_end37-Ltmp842
	.byte	0
	.byte	0
Lcst_end10:
	.p2align	2

	.section	__TEXT,__text,regular,pure_instructions
	.p2align	4, 0x90
__ZN4core3ptr13drop_in_place17h020556b52a67bd92E:
Lfunc_begin38:
	.loc	22 184 0
	.cfi_startproc
	.cfi_personality 155, _rust_eh_personality
	.cfi_lsda 16, Lexception11
	pushq	%rbp
	.cfi_def_cfa_offset 16
	.cfi_offset %rbp, -16
	movq	%rsp, %rbp
	.cfi_def_cfa_register %rbp
	pushq	%r15
	pushq	%r14
	pushq	%r12
	pushq	%rbx
	subq	$16, %rsp
	.cfi_offset %rbx, -48
	.cfi_offset %r12, -40
	.cfi_offset %r14, -32
	.cfi_offset %r15, -24
	movq	%rdi, %r15
Ltmp861:
	.loc	30 268 13 prologue_end
	movq	__ZN10rayon_core8registry19WORKER_THREAD_STATE7__getit5__KEY17h3f5be4a131fb340fE@TLVP(%rip), %rdi
	callq	*(%rdi)
	cmpl	$1, (%rax)
Ltmp862:
	.loc	27 409 17
	jne	LBB38_1
Ltmp863:
	.loc	24 431 18
	movq	__ZN10rayon_core8registry19WORKER_THREAD_STATE7__getit5__KEY17h3f5be4a131fb340fE@TLVP(%rip), %rdi
	callq	*(%rdi)
Ltmp864:
	.loc	38 884 9
	cmpq	%r15, 8(%rax)
Ltmp865:
	.loc	1 577 13
	jne	LBB38_3
Ltmp866:
	.loc	13 2130 14
	movq	__ZN10rayon_core8registry19WORKER_THREAD_STATE7__getit5__KEY17h3f5be4a131fb340fE@TLVP(%rip), %rdi
	callq	*(%rdi)
Ltmp867:
	movq	$0, 8(%rax)
Ltmp868:
	.loc	31 1350 12
	movq	256(%r15), %rax
Ltmp869:
	.loc	6 2403 24
	lock		decq	(%rax)
Ltmp870:
	.loc	31 1350 9
	jne	LBB38_7
Ltmp871:
	.loc	22 0 0 is_stmt 0
	leaq	256(%r15), %rdi
Ltmp872:
	.loc	6 2675 24 is_stmt 1
	##MEMBARRIER
Ltmp873:
Ltmp858:
	.loc	31 1385 13
	callq	__ZN5alloc4sync12Arc$LT$T$GT$9drop_slow17h69ebf5f48b901a1fE
Ltmp874:
Ltmp859:
LBB38_7:
	.loc	6 2356 24
	movq	(%r15), %rbx
Ltmp875:
	.loc	6 2356 24 is_stmt 0
	movq	128(%r15), %r14
Ltmp876:
	.loc	6 2356 24
	movq	8(%r15), %rdi
Ltmp877:
	.loc	33 449 9 is_stmt 1
	andq	$-2, %rbx
Ltmp878:
	.loc	33 450 9
	andq	$-2, %r14
Ltmp879:
	.loc	33 454 19
	cmpq	%r14, %rbx
	.loc	33 454 13 is_stmt 0
	jne	LBB38_10
Ltmp880:
LBB38_8:
	.loc	12 29 9 is_stmt 1
	testq	%rdi, %rdi
Ltmp881:
	.loc	33 473 13
	je	LBB38_5
Ltmp882:
	.loc	11 102 14
	movl	$752, %esi
	movl	$8, %edx
	callq	___rust_dealloc
Ltmp883:
LBB38_5:
	.loc	31 1350 12
	movq	304(%r15), %rax
Ltmp884:
	.loc	6 2403 24
	lock		decq	(%rax)
Ltmp885:
	.loc	31 1350 9
	jne	LBB38_6
Ltmp886:
	.loc	22 0 0 is_stmt 0
	addq	$304, %r15
Ltmp887:
	.loc	6 2675 24 is_stmt 1
	##MEMBARRIER
Ltmp888:
	.loc	31 1385 13
	movq	%r15, %rdi
	addq	$16, %rsp
	popq	%rbx
	popq	%r12
	popq	%r14
	popq	%r15
Ltmp889:
	popq	%rbp
	jmp	__ZN5alloc4sync12Arc$LT$T$GT$9drop_slow17h650920f740fa8399E
Ltmp890:
	.p2align	4, 0x90
LBB38_12:
	.loc	7 3439 17
	addq	$2, %rbx
Ltmp891:
	.loc	33 454 19
	cmpq	%rbx, %r14
	.loc	33 454 13 is_stmt 0
	je	LBB38_8
Ltmp892:
LBB38_10:
	.loc	33 455 30 is_stmt 1
	movl	%ebx, %eax
	andl	$62, %eax
Ltmp893:
	.loc	33 457 20
	cmpl	$62, %eax
	.loc	33 457 17 is_stmt 0
	jne	LBB38_12
Ltmp894:
	.loc	6 2356 24 is_stmt 1
	movq	(%rdi), %r12
Ltmp895:
	.loc	11 102 14
	movl	$752, %esi
	movl	$8, %edx
	callq	___rust_dealloc
Ltmp896:
	.loc	33 0 0 is_stmt 0
	movq	%r12, %rdi
Ltmp897:
	jmp	LBB38_12
Ltmp898:
LBB38_6:
	.loc	22 184 1 is_stmt 1
	addq	$16, %rsp
	popq	%rbx
	popq	%r12
	popq	%r14
	popq	%r15
Ltmp899:
	popq	%rbp
	retq
LBB38_1:
Ltmp900:
	.loc	22 0 1 is_stmt 0
	movl	$1, %eax
Ltmp901:
	.loc	13 2130 14 is_stmt 1
	movq	%rax, %xmm0
	movdqa	%xmm0, -48(%rbp)
	movq	__ZN10rayon_core8registry19WORKER_THREAD_STATE7__getit5__KEY17h3f5be4a131fb340fE@TLVP(%rip), %rdi
	callq	*(%rdi)
	movaps	-48(%rbp), %xmm0
	movups	%xmm0, (%rax)
Ltmp902:
LBB38_3:
Ltmp855:
	.loc	1 577 13
	leaq	l___unnamed_55(%rip), %rdi
	leaq	l___unnamed_56(%rip), %rdx
	movl	$49, %esi
	callq	__ZN3std9panicking11begin_panic17h6ef357f3fd72cd14E
Ltmp856:
Ltmp903:
	ud2
Ltmp904:
LBB38_15:
Ltmp857:
	.loc	1 0 13 is_stmt 0
	movq	%rax, %r14
	.loc	22 184 1 is_stmt 1
	leaq	256(%r15), %rdi
	callq	__ZN4core3ptr13drop_in_place17hfaae6e7f22796641E
	jmp	LBB38_16
Ltmp905:
LBB38_17:
Ltmp860:
	.loc	22 0 1 is_stmt 0
	movq	%rax, %r14
Ltmp906:
LBB38_16:
	.loc	22 184 1
	movq	%r15, %rdi
	callq	__ZN4core3ptr13drop_in_place17h9b0c2bd2d1bb9749E
	addq	$304, %r15
Ltmp907:
	movq	%r15, %rdi
	callq	__ZN4core3ptr13drop_in_place17hf7dbf4faffdd2292E
	movq	%r14, %rdi
	callq	__Unwind_Resume
	ud2
Ltmp908:
Lfunc_end38:
	.cfi_endproc
	.section	__TEXT,__gcc_except_tab
	.p2align	2
GCC_except_table38:
Lexception11:
	.byte	255
	.byte	255
	.byte	1
	.uleb128 Lcst_end11-Lcst_begin11
Lcst_begin11:
	.uleb128 Lfunc_begin38-Lfunc_begin38
	.uleb128 Ltmp858-Lfunc_begin38
	.byte	0
	.byte	0
	.uleb128 Ltmp858-Lfunc_begin38
	.uleb128 Ltmp859-Ltmp858
	.uleb128 Ltmp860-Lfunc_begin38
	.byte	0
	.uleb128 Ltmp859-Lfunc_begin38
	.uleb128 Ltmp855-Ltmp859
	.byte	0
	.byte	0
	.uleb128 Ltmp855-Lfunc_begin38
	.uleb128 Ltmp856-Ltmp855
	.uleb128 Ltmp857-Lfunc_begin38
	.byte	0
	.uleb128 Ltmp856-Lfunc_begin38
	.uleb128 Lfunc_end38-Ltmp856
	.byte	0
	.byte	0
Lcst_end11:
	.p2align	2

	.section	__TEXT,__text,regular,pure_instructions
	.p2align	4, 0x90
__ZN4core3ptr13drop_in_place17h050f9ddedd6826a4E:
Lfunc_begin39:
	.loc	22 184 0 is_stmt 1
	.cfi_startproc
	.cfi_personality 155, _rust_eh_personality
	.cfi_lsda 16, Lexception12
	pushq	%rbp
	.cfi_def_cfa_offset 16
	.cfi_offset %rbp, -16
	movq	%rsp, %rbp
	.cfi_def_cfa_register %rbp
	pushq	%r14
	pushq	%rbx
	.cfi_offset %rbx, -32
	.cfi_offset %r14, -24
	movq	%rdi, %rbx
Ltmp912:
	.loc	22 184 1 prologue_end
	movq	(%rdi), %rdi
	testq	%rdi, %rdi
	je	LBB39_3
Ltmp913:
	.loc	22 184 1 is_stmt 0
	movq	8(%rbx), %rsi
Ltmp914:
	.loc	10 235 40 is_stmt 1
	testq	%rsi, %rsi
	.loc	10 235 9 is_stmt 0
	je	LBB39_3
Ltmp915:
	.loc	11 102 14 is_stmt 1
	movl	$1, %edx
	callq	___rust_dealloc
Ltmp916:
LBB39_3:
	.loc	31 1350 12
	movq	40(%rbx), %rax
Ltmp917:
	.loc	6 2403 24
	lock		decq	(%rax)
Ltmp918:
	.loc	31 1350 9
	jne	LBB39_5
Ltmp919:
	.loc	22 0 0 is_stmt 0
	leaq	40(%rbx), %rdi
Ltmp920:
	.loc	6 2675 24 is_stmt 1
	##MEMBARRIER
Ltmp921:
Ltmp909:
	.loc	31 1385 13
	callq	__ZN5alloc4sync12Arc$LT$T$GT$9drop_slow17h69ebf5f48b901a1fE
Ltmp922:
Ltmp910:
LBB39_5:
	.loc	31 1350 12
	movq	72(%rbx), %rax
Ltmp923:
	.loc	6 2403 24
	lock		decq	(%rax)
Ltmp924:
	.loc	31 1350 9
	jne	LBB39_6
Ltmp925:
	.loc	22 0 0 is_stmt 0
	addq	$72, %rbx
Ltmp926:
	.loc	6 2675 24 is_stmt 1
	##MEMBARRIER
Ltmp927:
	.loc	31 1385 13
	movq	%rbx, %rdi
	popq	%rbx
Ltmp928:
	popq	%r14
	popq	%rbp
	jmp	__ZN5alloc4sync12Arc$LT$T$GT$9drop_slow17h650920f740fa8399E
Ltmp929:
LBB39_6:
	.loc	22 184 1
	popq	%rbx
Ltmp930:
	popq	%r14
	popq	%rbp
	retq
LBB39_7:
Ltmp931:
Ltmp911:
	.loc	22 0 1 is_stmt 0
	movq	%rax, %r14
Ltmp932:
	.loc	22 184 1
	addq	$72, %rbx
Ltmp933:
	movq	%rbx, %rdi
	callq	__ZN4core3ptr13drop_in_place17hf7dbf4faffdd2292E
	movq	%r14, %rdi
	callq	__Unwind_Resume
	ud2
Ltmp934:
Lfunc_end39:
	.cfi_endproc
	.section	__TEXT,__gcc_except_tab
	.p2align	2
GCC_except_table39:
Lexception12:
	.byte	255
	.byte	255
	.byte	1
	.uleb128 Lcst_end12-Lcst_begin12
Lcst_begin12:
	.uleb128 Ltmp909-Lfunc_begin39
	.uleb128 Ltmp910-Ltmp909
	.uleb128 Ltmp911-Lfunc_begin39
	.byte	0
	.uleb128 Ltmp910-Lfunc_begin39
	.uleb128 Lfunc_end39-Ltmp910
	.byte	0
	.byte	0
Lcst_end12:
	.p2align	2

	.section	__TEXT,__text,regular,pure_instructions
	.p2align	4, 0x90
__ZN4core3ptr13drop_in_place17h15ee6bb5875cdac0E:
Lfunc_begin40:
	.loc	22 184 0 is_stmt 1
	.cfi_startproc
	pushq	%rbp
	.cfi_def_cfa_offset 16
	.cfi_offset %rbp, -16
	movq	%rsp, %rbp
	.cfi_def_cfa_register %rbp
	pushq	%r14
	pushq	%rbx
	.cfi_offset %rbx, -32
	.cfi_offset %r14, -24
	movq	%rdi, %rbx
Ltmp935:
	.file	60 "/rustc/6c8927b0cf80ceee19386026cf9d7fd4fd9d486f/src/libstd/sys_common/poison.rs"
	.loc	60 34 13 prologue_end
	cmpb	$0, 8(%rdi)
	.loc	60 34 12 is_stmt 0
	jne	LBB40_4
Ltmp936:
	.loc	54 0 0
	movq	(%rbx), %r14
Ltmp937:
	.loc	6 2356 24 is_stmt 1
	movq	__ZN3std9panicking11panic_count18GLOBAL_PANIC_COUNT17h5754c1d48a496461E@GOTPCREL(%rip), %rax
Ltmp938:
	movq	(%rax), %rax
Ltmp939:
	.loc	55 262 12
	testq	%rax, %rax
	.loc	55 262 9 is_stmt 0
	jne	LBB40_2
Ltmp940:
LBB40_4:
	.loc	54 500 13 is_stmt 1
	movq	(%rbx), %rax
	movq	(%rax), %rdi
Ltmp941:
	.loc	52 68 17
	popq	%rbx
Ltmp942:
	popq	%r14
	popq	%rbp
	jmp	_pthread_mutex_unlock
Ltmp943:
LBB40_2:
	.loc	55 274 13
	callq	__ZN3std9panicking11panic_count17is_zero_slow_path17ha588394117c50e3dE
Ltmp944:
	.loc	60 34 12
	testb	%al, %al
	jne	LBB40_4
Ltmp945:
	.loc	6 2342 24
	movb	$1, 8(%r14)
	jmp	LBB40_4
Ltmp946:
Lfunc_end40:
	.cfi_endproc

	.p2align	4, 0x90
__ZN4core3ptr13drop_in_place17h2910a9839b07439cE:
Lfunc_begin41:
	.loc	22 184 0
	.cfi_startproc
	.cfi_personality 155, _rust_eh_personality
	.cfi_lsda 16, Lexception13
	pushq	%rbp
	.cfi_def_cfa_offset 16
	.cfi_offset %rbp, -16
	movq	%rsp, %rbp
	.cfi_def_cfa_register %rbp
	pushq	%r14
	pushq	%rbx
	.cfi_offset %rbx, -32
	.cfi_offset %r14, -24
	movq	%rdi, %rbx
Ltmp950:
	.loc	22 184 1 prologue_end
	movq	(%rdi), %rdi
	movq	8(%rbx), %rax
Ltmp947:
	callq	*(%rax)
Ltmp948:
Ltmp951:
	movq	8(%rbx), %rax
Ltmp952:
	.loc	11 292 20
	movq	8(%rax), %rsi
Ltmp953:
	.loc	11 185 12
	testq	%rsi, %rsi
	.loc	11 185 9 is_stmt 0
	je	LBB41_2
Ltmp954:
	.loc	22 184 1 is_stmt 1
	movq	(%rbx), %rdi
Ltmp955:
	.loc	11 293 21
	movq	16(%rax), %rdx
Ltmp956:
	.loc	11 102 14
	popq	%rbx
Ltmp957:
	popq	%r14
	popq	%rbp
	jmp	___rust_dealloc
Ltmp958:
LBB41_2:
	.loc	22 184 1
	popq	%rbx
Ltmp959:
	popq	%r14
	popq	%rbp
	retq
LBB41_3:
Ltmp960:
Ltmp949:
	.loc	22 0 1 is_stmt 0
	movq	%rax, %r14
	.loc	22 184 1
	movq	(%rbx), %rdi
	movq	8(%rbx), %rsi
	callq	__ZN5alloc5alloc8box_free17h578dcf25edc19e78E
	movq	%r14, %rdi
	callq	__Unwind_Resume
	ud2
Ltmp961:
Lfunc_end41:
	.cfi_endproc
	.section	__TEXT,__gcc_except_tab
	.p2align	2
GCC_except_table41:
Lexception13:
	.byte	255
	.byte	255
	.byte	1
	.uleb128 Lcst_end13-Lcst_begin13
Lcst_begin13:
	.uleb128 Ltmp947-Lfunc_begin41
	.uleb128 Ltmp948-Ltmp947
	.uleb128 Ltmp949-Lfunc_begin41
	.byte	0
	.uleb128 Ltmp948-Lfunc_begin41
	.uleb128 Lfunc_end41-Ltmp948
	.byte	0
	.byte	0
Lcst_end13:
	.p2align	2

	.section	__TEXT,__text,regular,pure_instructions
	.p2align	4, 0x90
__ZN4core3ptr13drop_in_place17h2d1a7f3192af5f06E:
Lfunc_begin42:
	.loc	22 184 0 is_stmt 1
	.cfi_startproc
	.cfi_personality 155, _rust_eh_personality
	.cfi_lsda 16, Lexception14
	pushq	%rbp
	.cfi_def_cfa_offset 16
	.cfi_offset %rbp, -16
	movq	%rsp, %rbp
	.cfi_def_cfa_register %rbp
	pushq	%r14
	pushq	%rbx
	.cfi_offset %rbx, -32
	.cfi_offset %r14, -24
	movq	%rdi, %rbx
Ltmp965:
	.loc	54 427 18 prologue_end
	movq	(%rdi), %rdi
Ltmp966:
	.loc	52 78 17
	callq	_pthread_mutex_destroy
Ltmp967:
	.loc	22 184 1
	movq	(%rbx), %rdi
Ltmp968:
	.loc	11 102 14
	movl	$64, %esi
	movl	$8, %edx
	callq	___rust_dealloc
Ltmp969:
	.loc	22 184 1
	addq	$16, %rbx
Ltmp970:
Ltmp962:
	.loc	22 184 1 is_stmt 0
	movq	%rbx, %rdi
	callq	__ZN69_$LT$std..sync..condvar..Condvar$u20$as$u20$core..ops..drop..Drop$GT$4drop17h997a5cc5da4d80f8E
Ltmp963:
Ltmp971:
	.loc	22 184 1
	movq	(%rbx), %rdi
Ltmp972:
	.loc	11 102 14 is_stmt 1
	movl	$48, %esi
	movl	$8, %edx
	popq	%rbx
Ltmp973:
	popq	%r14
	popq	%rbp
	jmp	___rust_dealloc
Ltmp974:
LBB42_2:
Ltmp964:
	.loc	11 0 14 is_stmt 0
	movq	%rax, %r14
	.loc	22 184 1 is_stmt 1
	movq	%rbx, %rdi
	callq	__ZN4core3ptr13drop_in_place17hc91a6e7c93004a80E
	movq	%r14, %rdi
	callq	__Unwind_Resume
	ud2
Ltmp975:
Lfunc_end42:
	.cfi_endproc
	.section	__TEXT,__gcc_except_tab
	.p2align	2
GCC_except_table42:
Lexception14:
	.byte	255
	.byte	255
	.byte	1
	.uleb128 Lcst_end14-Lcst_begin14
Lcst_begin14:
	.uleb128 Ltmp962-Lfunc_begin42
	.uleb128 Ltmp963-Ltmp962
	.uleb128 Ltmp964-Lfunc_begin42
	.byte	0
	.uleb128 Ltmp963-Lfunc_begin42
	.uleb128 Lfunc_end42-Ltmp963
	.byte	0
	.byte	0
Lcst_end14:
	.p2align	2

	.section	__TEXT,__text,regular,pure_instructions
	.p2align	4, 0x90
__ZN4core3ptr13drop_in_place17h2f5cb7a7997fd91cE:
Lfunc_begin43:
	.loc	22 184 0
	.cfi_startproc
	pushq	%rbp
	.cfi_def_cfa_offset 16
	.cfi_offset %rbp, -16
	movq	%rsp, %rbp
	.cfi_def_cfa_register %rbp
Ltmp976:
	.loc	29 95 35 prologue_end
	movq	(%rdi), %rdi
Ltmp977:
	.loc	18 554 28
	movq	2088(%rdi), %rax
Ltmp978:
	.loc	18 555 23
	testq	%rax, %rax
	.loc	8 184 59
	je	LBB43_4
Ltmp979:
	.loc	18 553 27
	movq	2080(%rdi), %rcx
Ltmp980:
	.loc	18 556 31
	leaq	-1(%rax), %rdx
Ltmp981:
	.loc	13 2130 14
	movq	%rdx, 2088(%rdi)
Ltmp982:
	.loc	18 558 32
	cmpq	$1, %rax
Ltmp983:
	.loc	18 558 9 is_stmt 0
	jne	LBB43_3
Ltmp984:
	testq	%rcx, %rcx
	je	LBB43_5
Ltmp985:
LBB43_3:
	.loc	22 184 1 is_stmt 1
	popq	%rbp
	retq
LBB43_5:
Ltmp986:
	.loc	18 559 13
	popq	%rbp
	jmp	__ZN15crossbeam_epoch8internal5Local8finalize17h52a48f6fa778720fE
Ltmp987:
LBB43_4:
	.loc	19 13 23
	leaq	l___unnamed_38(%rip), %rdi
Ltmp988:
	leaq	l___unnamed_37(%rip), %rdx
	movl	$35, %esi
	callq	__ZN3std9panicking11begin_panic17h6ef357f3fd72cd14E
Ltmp989:
Lfunc_end43:
	.cfi_endproc

	.p2align	4, 0x90
__ZN4core3ptr13drop_in_place17h360d03619b73c8edE:
Lfunc_begin44:
	.loc	22 184 0
	.cfi_startproc
	pushq	%rbp
	.cfi_def_cfa_offset 16
	.cfi_offset %rbp, -16
	movq	%rsp, %rbp
	.cfi_def_cfa_register %rbp
Ltmp990:
	.loc	22 184 1 prologue_end
	movq	(%rdi), %rdi
Ltmp991:
	.loc	11 102 14
	movl	$64, %esi
	movl	$8, %edx
	popq	%rbp
	jmp	___rust_dealloc
Ltmp992:
Lfunc_end44:
	.cfi_endproc

	.p2align	4, 0x90
__ZN4core3ptr13drop_in_place17h3b4497c3751db5f3E:
Lfunc_begin45:
	.loc	22 184 0
	.cfi_startproc
	pushq	%rbp
	.cfi_def_cfa_offset 16
	.cfi_offset %rbp, -16
	movq	%rsp, %rbp
	.cfi_def_cfa_register %rbp
Ltmp993:
	.loc	21 2751 57 prologue_end
	movq	(%rdi), %rax
	.loc	21 2751 78 is_stmt 0
	movq	8(%rax), %rsi
Ltmp994:
	.loc	10 235 40 is_stmt 1
	testq	%rsi, %rsi
	.loc	10 235 9 is_stmt 0
	je	LBB45_2
Ltmp995:
	.loc	10 242 28 is_stmt 1
	shlq	$5, %rsi
Ltmp996:
	.loc	10 507 16
	je	LBB45_2
Ltmp997:
	.loc	21 0 0 is_stmt 0
	movq	(%rax), %rdi
Ltmp998:
	.loc	11 102 14 is_stmt 1
	movl	$8, %edx
	popq	%rbp
	jmp	___rust_dealloc
Ltmp999:
LBB45_2:
	.loc	22 184 1
	popq	%rbp
	retq
Ltmp1000:
Lfunc_end45:
	.cfi_endproc

	.p2align	4, 0x90
__ZN4core3ptr13drop_in_place17h44a593457ed2090dE:
Lfunc_begin46:
	.loc	22 184 0
	.cfi_startproc
	.cfi_personality 155, _rust_eh_personality
	.cfi_lsda 16, Lexception15
	pushq	%rbp
	.cfi_def_cfa_offset 16
	.cfi_offset %rbp, -16
	movq	%rsp, %rbp
	.cfi_def_cfa_register %rbp
	pushq	%r15
	pushq	%r14
	pushq	%rbx
	pushq	%rax
	.cfi_offset %rbx, -40
	.cfi_offset %r14, -32
	.cfi_offset %r15, -24
	movq	%rdi, %r15
Ltmp1004:
	.loc	22 184 1 prologue_end
	movq	(%rdi), %rbx
Ltmp1005:
	.loc	22 184 1 is_stmt 0
	movq	(%rbx), %rdi
	movq	8(%rbx), %rax
Ltmp1001:
	callq	*(%rax)
Ltmp1002:
Ltmp1006:
	movq	8(%rbx), %rax
Ltmp1007:
	.loc	11 292 20 is_stmt 1
	movq	8(%rax), %rsi
Ltmp1008:
	.loc	11 185 12
	testq	%rsi, %rsi
	.loc	11 185 9 is_stmt 0
	je	LBB46_3
Ltmp1009:
	.loc	22 184 1 is_stmt 1
	movq	(%rbx), %rdi
Ltmp1010:
	.loc	11 293 21
	movq	16(%rax), %rdx
Ltmp1011:
	.loc	11 102 14
	callq	___rust_dealloc
Ltmp1012:
LBB46_3:
	.loc	22 184 1
	movq	(%r15), %rdi
Ltmp1013:
	.loc	11 102 14
	movl	$16, %esi
	movl	$8, %edx
	addq	$8, %rsp
	popq	%rbx
	popq	%r14
	popq	%r15
Ltmp1014:
	popq	%rbp
	jmp	___rust_dealloc
Ltmp1015:
LBB46_4:
Ltmp1003:
	.loc	11 0 14 is_stmt 0
	movq	%rax, %r14
Ltmp1016:
	.loc	22 184 1 is_stmt 1
	movq	(%rbx), %rdi
	movq	8(%rbx), %rsi
	callq	__ZN5alloc5alloc8box_free17h578dcf25edc19e78E
Ltmp1017:
	.loc	22 184 1 is_stmt 0
	movq	(%r15), %rdi
	callq	__ZN5alloc5alloc8box_free17h147076841283e5dcE
	movq	%r14, %rdi
	callq	__Unwind_Resume
	ud2
Ltmp1018:
Lfunc_end46:
	.cfi_endproc
	.section	__TEXT,__gcc_except_tab
	.p2align	2
GCC_except_table46:
Lexception15:
	.byte	255
	.byte	255
	.byte	1
	.uleb128 Lcst_end15-Lcst_begin15
Lcst_begin15:
	.uleb128 Ltmp1001-Lfunc_begin46
	.uleb128 Ltmp1002-Ltmp1001
	.uleb128 Ltmp1003-Lfunc_begin46
	.byte	0
	.uleb128 Ltmp1002-Lfunc_begin46
	.uleb128 Lfunc_end46-Ltmp1002
	.byte	0
	.byte	0
Lcst_end15:
	.p2align	2

	.section	__TEXT,__text,regular,pure_instructions
	.p2align	4, 0x90
__ZN4core3ptr13drop_in_place17h4869c7e17a3790edE:
Lfunc_begin47:
	.loc	22 184 0 is_stmt 1
	.cfi_startproc
	pushq	%rbp
	.cfi_def_cfa_offset 16
	.cfi_offset %rbp, -16
	movq	%rsp, %rbp
	.cfi_def_cfa_register %rbp
Ltmp1019:
	.loc	21 2751 57 prologue_end
	movq	(%rdi), %rax
	.loc	21 2751 78 is_stmt 0
	movq	8(%rax), %rsi
Ltmp1020:
	.loc	10 235 40 is_stmt 1
	testq	%rsi, %rsi
	.loc	10 235 9 is_stmt 0
	je	LBB47_2
Ltmp1021:
	.loc	10 242 28 is_stmt 1
	shlq	$4, %rsi
Ltmp1022:
	.loc	10 507 16
	je	LBB47_2
Ltmp1023:
	.loc	21 0 0 is_stmt 0
	movq	(%rax), %rdi
Ltmp1024:
	.loc	11 102 14 is_stmt 1
	movl	$8, %edx
	popq	%rbp
	jmp	___rust_dealloc
Ltmp1025:
LBB47_2:
	.loc	22 184 1
	popq	%rbp
	retq
Ltmp1026:
Lfunc_end47:
	.cfi_endproc

	.p2align	4, 0x90
__ZN4core3ptr13drop_in_place17h4beab82996d3ce73E:
Lfunc_begin48:
	.loc	22 184 0
	.cfi_startproc
	pushq	%rbp
	.cfi_def_cfa_offset 16
	.cfi_offset %rbp, -16
	movq	%rsp, %rbp
	.cfi_def_cfa_register %rbp
Ltmp1027:
	.loc	31 1350 12 prologue_end
	movq	(%rdi), %rax
Ltmp1028:
	.loc	6 2403 24
	lock		decq	(%rax)
Ltmp1029:
	.loc	31 1350 9
	jne	LBB48_1
Ltmp1030:
	.loc	6 2675 24
	##MEMBARRIER
Ltmp1031:
	.loc	31 1385 13
	popq	%rbp
	jmp	__ZN5alloc4sync12Arc$LT$T$GT$9drop_slow17hbc9b89e8a2345aa8E
Ltmp1032:
LBB48_1:
	.loc	22 184 1
	popq	%rbp
	retq
Ltmp1033:
Lfunc_end48:
	.cfi_endproc

	.p2align	4, 0x90
__ZN4core3ptr13drop_in_place17h55486af5d6a3a606E:
Lfunc_begin49:
	.loc	22 184 0
	.cfi_startproc
	.cfi_personality 155, _rust_eh_personality
	.cfi_lsda 16, Lexception16
	pushq	%rbp
	.cfi_def_cfa_offset 16
	.cfi_offset %rbp, -16
	movq	%rsp, %rbp
	.cfi_def_cfa_register %rbp
	pushq	%r14
	pushq	%rbx
	.cfi_offset %rbx, -32
	.cfi_offset %r14, -24
	movq	%rdi, %rbx
Ltmp1046:
	.loc	22 184 1 prologue_end
	movq	8(%rdi), %rdi
	testq	%rdi, %rdi
	je	LBB49_4
Ltmp1047:
	.loc	22 184 1 is_stmt 0
	movq	16(%rbx), %rax
Ltmp1034:
	callq	*(%rax)
Ltmp1035:
Ltmp1048:
	movq	16(%rbx), %rax
Ltmp1049:
	.loc	11 292 20 is_stmt 1
	movq	8(%rax), %rsi
Ltmp1050:
	.loc	11 185 12
	testq	%rsi, %rsi
	.loc	11 185 9 is_stmt 0
	je	LBB49_4
Ltmp1051:
	.loc	22 184 1 is_stmt 1
	movq	8(%rbx), %rdi
Ltmp1052:
	.loc	11 293 21
	movq	16(%rax), %rdx
Ltmp1053:
	.loc	11 102 14
	callq	___rust_dealloc
Ltmp1054:
LBB49_4:
	.loc	22 184 1
	movq	24(%rbx), %rdi
	testq	%rdi, %rdi
	je	LBB49_8
Ltmp1055:
	.loc	22 184 1 is_stmt 0
	movq	32(%rbx), %rax
Ltmp1037:
	callq	*(%rax)
Ltmp1038:
Ltmp1056:
	movq	32(%rbx), %rax
Ltmp1057:
	.loc	11 292 20 is_stmt 1
	movq	8(%rax), %rsi
Ltmp1058:
	.loc	11 185 12
	testq	%rsi, %rsi
	.loc	11 185 9 is_stmt 0
	je	LBB49_8
Ltmp1059:
	.loc	22 184 1 is_stmt 1
	movq	24(%rbx), %rdi
Ltmp1060:
	.loc	11 293 21
	movq	16(%rax), %rdx
Ltmp1061:
	.loc	11 102 14
	callq	___rust_dealloc
Ltmp1062:
LBB49_8:
	.loc	22 184 1
	movq	56(%rbx), %rdi
	testq	%rdi, %rdi
	je	LBB49_12
Ltmp1063:
	.loc	22 184 1 is_stmt 0
	movq	64(%rbx), %rax
Ltmp1040:
	callq	*(%rax)
Ltmp1041:
Ltmp1064:
	movq	64(%rbx), %rax
Ltmp1065:
	.loc	11 292 20 is_stmt 1
	movq	8(%rax), %rsi
Ltmp1066:
	.loc	11 185 12
	testq	%rsi, %rsi
	.loc	11 185 9 is_stmt 0
	je	LBB49_12
Ltmp1067:
	.loc	22 184 1 is_stmt 1
	movq	56(%rbx), %rdi
Ltmp1068:
	.loc	11 293 21
	movq	16(%rax), %rdx
Ltmp1069:
	.loc	11 102 14
	callq	___rust_dealloc
Ltmp1070:
LBB49_12:
	.loc	22 184 1
	movq	72(%rbx), %rdi
	testq	%rdi, %rdi
	je	LBB49_15
Ltmp1071:
	.loc	22 184 1 is_stmt 0
	movq	80(%rbx), %rax
Ltmp1043:
	callq	*(%rax)
Ltmp1044:
Ltmp1072:
	movq	80(%rbx), %rax
Ltmp1073:
	.loc	11 292 20 is_stmt 1
	movq	8(%rax), %rsi
Ltmp1074:
	.loc	11 185 12
	testq	%rsi, %rsi
	.loc	11 185 9 is_stmt 0
	je	LBB49_15
Ltmp1075:
	.loc	22 184 1 is_stmt 1
	movq	72(%rbx), %rdi
Ltmp1076:
	.loc	11 293 21
	movq	16(%rax), %rdx
Ltmp1077:
	.loc	11 102 14
	popq	%rbx
Ltmp1078:
	popq	%r14
	popq	%rbp
	jmp	___rust_dealloc
Ltmp1079:
LBB49_15:
	.loc	22 184 1
	popq	%rbx
Ltmp1080:
	popq	%r14
	popq	%rbp
	retq
LBB49_21:
Ltmp1081:
Ltmp1045:
	.loc	22 0 1 is_stmt 0
	movq	%rax, %r14
Ltmp1082:
	.loc	22 184 1
	movq	72(%rbx), %rdi
	movq	80(%rbx), %rsi
	callq	__ZN5alloc5alloc8box_free17h578dcf25edc19e78E
	jmp	LBB49_22
Ltmp1083:
LBB49_19:
Ltmp1042:
	.loc	22 0 1
	movq	%rax, %r14
Ltmp1084:
	.loc	22 184 1
	movq	56(%rbx), %rdi
	movq	64(%rbx), %rsi
	callq	__ZN5alloc5alloc8box_free17h578dcf25edc19e78E
	jmp	LBB49_18
Ltmp1085:
LBB49_20:
Ltmp1039:
	.loc	22 0 1
	movq	%rax, %r14
Ltmp1086:
	.loc	22 184 1
	movq	24(%rbx), %rdi
	movq	32(%rbx), %rsi
	callq	__ZN5alloc5alloc8box_free17h578dcf25edc19e78E
	jmp	LBB49_17
Ltmp1087:
LBB49_16:
Ltmp1036:
	.loc	22 0 1
	movq	%rax, %r14
Ltmp1088:
	.loc	22 184 1
	movq	8(%rbx), %rdi
	movq	16(%rbx), %rsi
	callq	__ZN5alloc5alloc8box_free17h578dcf25edc19e78E
Ltmp1089:
	.loc	22 184 1
	leaq	24(%rbx), %rdi
	callq	__ZN4core3ptr13drop_in_place17ha0cafbc5ff8cf66eE
Ltmp1090:
LBB49_17:
	leaq	56(%rbx), %rdi
	callq	__ZN4core3ptr13drop_in_place17ha0cafbc5ff8cf66eE
Ltmp1091:
LBB49_18:
	addq	$72, %rbx
Ltmp1092:
	movq	%rbx, %rdi
	callq	__ZN4core3ptr13drop_in_place17ha0cafbc5ff8cf66eE
Ltmp1093:
LBB49_22:
	.loc	22 0 1
	movq	%r14, %rdi
	callq	__Unwind_Resume
	ud2
Lfunc_end49:
	.cfi_endproc
	.section	__TEXT,__gcc_except_tab
	.p2align	2
GCC_except_table49:
Lexception16:
	.byte	255
	.byte	255
	.byte	1
	.uleb128 Lcst_end16-Lcst_begin16
Lcst_begin16:
	.uleb128 Ltmp1034-Lfunc_begin49
	.uleb128 Ltmp1035-Ltmp1034
	.uleb128 Ltmp1036-Lfunc_begin49
	.byte	0
	.uleb128 Ltmp1037-Lfunc_begin49
	.uleb128 Ltmp1038-Ltmp1037
	.uleb128 Ltmp1039-Lfunc_begin49
	.byte	0
	.uleb128 Ltmp1040-Lfunc_begin49
	.uleb128 Ltmp1041-Ltmp1040
	.uleb128 Ltmp1042-Lfunc_begin49
	.byte	0
	.uleb128 Ltmp1043-Lfunc_begin49
	.uleb128 Ltmp1044-Ltmp1043
	.uleb128 Ltmp1045-Lfunc_begin49
	.byte	0
	.uleb128 Ltmp1044-Lfunc_begin49
	.uleb128 Lfunc_end49-Ltmp1044
	.byte	0
	.byte	0
Lcst_end16:
	.p2align	2

	.section	__TEXT,__text,regular,pure_instructions
	.p2align	4, 0x90
__ZN4core3ptr13drop_in_place17h67db51d30a48ed73E:
Lfunc_begin50:
	.loc	22 184 0 is_stmt 1
	.cfi_startproc
	pushq	%rbp
	.cfi_def_cfa_offset 16
	.cfi_offset %rbp, -16
	movq	%rsp, %rbp
	.cfi_def_cfa_register %rbp
Ltmp1094:
	.loc	22 184 1 prologue_end
	callq	__ZN74_$LT$rayon_core..unwind..AbortIfPanic$u20$as$u20$core..ops..drop..Drop$GT$4drop17h166450c6e9b171e4E
Ltmp1095:
Lfunc_end50:
	.cfi_endproc

	.p2align	4, 0x90
__ZN4core3ptr13drop_in_place17h68833e48b60cbe38E:
Lfunc_begin51:
	.loc	22 184 0
	.cfi_startproc
	pushq	%rbp
	.cfi_def_cfa_offset 16
	.cfi_offset %rbp, -16
	movq	%rsp, %rbp
	.cfi_def_cfa_register %rbp
Ltmp1096:
	.loc	10 235 40 prologue_end
	testq	%rsi, %rsi
	.loc	10 235 9 is_stmt 0
	je	LBB51_3
Ltmp1097:
	.loc	10 507 16 is_stmt 1
	testq	%rdi, %rdi
Ltmp1098:
	je	LBB51_3
Ltmp1099:
	.loc	10 0 0 is_stmt 0
	shlq	$4, %rsi
Ltmp1100:
	.loc	10 507 16
	je	LBB51_3
Ltmp1101:
	.loc	11 102 14 is_stmt 1
	movl	$8, %edx
	popq	%rbp
	jmp	___rust_dealloc
Ltmp1102:
LBB51_3:
	.loc	22 184 1
	popq	%rbp
	retq
Ltmp1103:
Lfunc_end51:
	.cfi_endproc

	.p2align	4, 0x90
__ZN4core3ptr13drop_in_place17h6b8041406785e3b2E:
Lfunc_begin52:
	.loc	22 184 0
	.cfi_startproc
	pushq	%rbp
	.cfi_def_cfa_offset 16
	.cfi_offset %rbp, -16
	movq	%rsp, %rbp
	.cfi_def_cfa_register %rbp
	pushq	%r14
	pushq	%rbx
	.cfi_offset %rbx, -32
	.cfi_offset %r14, -24
	movq	%rdi, %rbx
Ltmp1104:
	.loc	60 34 13 prologue_end
	cmpb	$0, 8(%rdi)
	.loc	60 34 12 is_stmt 0
	jne	LBB52_4
Ltmp1105:
	.loc	54 0 0
	movq	(%rbx), %r14
Ltmp1106:
	.loc	6 2356 24 is_stmt 1
	movq	__ZN3std9panicking11panic_count18GLOBAL_PANIC_COUNT17h5754c1d48a496461E@GOTPCREL(%rip), %rax
Ltmp1107:
	movq	(%rax), %rax
Ltmp1108:
	.loc	55 262 12
	testq	%rax, %rax
	.loc	55 262 9 is_stmt 0
	jne	LBB52_2
Ltmp1109:
LBB52_4:
	.loc	54 500 13 is_stmt 1
	movq	(%rbx), %rax
	movq	(%rax), %rdi
Ltmp1110:
	.loc	52 68 17
	popq	%rbx
Ltmp1111:
	popq	%r14
	popq	%rbp
	jmp	_pthread_mutex_unlock
Ltmp1112:
LBB52_2:
	.loc	55 274 13
	callq	__ZN3std9panicking11panic_count17is_zero_slow_path17ha588394117c50e3dE
Ltmp1113:
	.loc	60 34 12
	testb	%al, %al
	jne	LBB52_4
Ltmp1114:
	.loc	6 2342 24
	movb	$1, 8(%r14)
	jmp	LBB52_4
Ltmp1115:
Lfunc_end52:
	.cfi_endproc

	.p2align	4, 0x90
__ZN4core3ptr13drop_in_place17h6d7610cbf6434bccE:
Lfunc_begin53:
	.loc	22 184 0
	.cfi_startproc
	.cfi_personality 155, _rust_eh_personality
	.cfi_lsda 16, Lexception17
	pushq	%rbp
	.cfi_def_cfa_offset 16
	.cfi_offset %rbp, -16
	movq	%rsp, %rbp
	.cfi_def_cfa_register %rbp
Ltmp1119:
	pushq	%r15
	pushq	%r14
	pushq	%rbx
	pushq	%rax
	.cfi_offset %rbx, -40
	.cfi_offset %r14, -32
	.cfi_offset %r15, -24
	.loc	22 184 1 prologue_end
	cmpb	$2, (%rdi)
	jae	LBB53_1
Ltmp1120:
	.loc	22 184 1 is_stmt 0
	addq	$8, %rsp
	popq	%rbx
	popq	%r14
	popq	%r15
	popq	%rbp
	retq
Ltmp1121:
LBB53_1:
	.loc	22 0 1
	movq	%rdi, %r15
Ltmp1122:
	.loc	22 184 1
	movq	8(%rdi), %rbx
Ltmp1123:
	.loc	22 184 1
	movq	(%rbx), %rdi
	movq	8(%rbx), %rax
Ltmp1116:
	callq	*(%rax)
Ltmp1117:
Ltmp1124:
	movq	8(%rbx), %rax
Ltmp1125:
	.loc	11 292 20 is_stmt 1
	movq	8(%rax), %rsi
Ltmp1126:
	.loc	11 185 12
	testq	%rsi, %rsi
	.loc	11 185 9 is_stmt 0
	je	LBB53_4
Ltmp1127:
	.loc	22 184 1 is_stmt 1
	movq	(%rbx), %rdi
Ltmp1128:
	.loc	11 293 21
	movq	16(%rax), %rdx
Ltmp1129:
	.loc	11 102 14
	callq	___rust_dealloc
Ltmp1130:
LBB53_4:
	.loc	22 184 1
	movq	8(%r15), %rdi
Ltmp1131:
	.loc	11 102 14
	movl	$24, %esi
	movl	$8, %edx
	addq	$8, %rsp
	popq	%rbx
	popq	%r14
	popq	%r15
Ltmp1132:
	popq	%rbp
	jmp	___rust_dealloc
Ltmp1133:
LBB53_6:
Ltmp1118:
	.loc	11 0 14 is_stmt 0
	movq	%rax, %r14
Ltmp1134:
	.loc	22 184 1 is_stmt 1
	movq	(%rbx), %rdi
	movq	8(%rbx), %rsi
	callq	__ZN5alloc5alloc8box_free17h578dcf25edc19e78E
Ltmp1135:
	.loc	22 184 1 is_stmt 0
	movq	8(%r15), %rdi
	callq	__ZN5alloc5alloc8box_free17hf86e3cdc26dffa46E
	movq	%r14, %rdi
	callq	__Unwind_Resume
	ud2
Ltmp1136:
Lfunc_end53:
	.cfi_endproc
	.section	__TEXT,__gcc_except_tab
	.p2align	2
GCC_except_table53:
Lexception17:
	.byte	255
	.byte	255
	.byte	1
	.uleb128 Lcst_end17-Lcst_begin17
Lcst_begin17:
	.uleb128 Ltmp1116-Lfunc_begin53
	.uleb128 Ltmp1117-Ltmp1116
	.uleb128 Ltmp1118-Lfunc_begin53
	.byte	0
	.uleb128 Ltmp1117-Lfunc_begin53
	.uleb128 Lfunc_end53-Ltmp1117
	.byte	0
	.byte	0
Lcst_end17:
	.p2align	2

	.section	__TEXT,__text,regular,pure_instructions
	.p2align	4, 0x90
__ZN4core3ptr13drop_in_place17h6fa5d3c2e9116d9dE:
Lfunc_begin54:
	.loc	22 184 0 is_stmt 1
	.cfi_startproc
	pushq	%rbp
	.cfi_def_cfa_offset 16
	.cfi_offset %rbp, -16
	movq	%rsp, %rbp
	.cfi_def_cfa_register %rbp
Ltmp1137:
	.loc	31 1350 12 prologue_end
	movq	8(%rdi), %rax
Ltmp1138:
	.loc	6 2403 24
	lock		decq	(%rax)
Ltmp1139:
	.loc	31 1350 9
	jne	LBB54_1
Ltmp1140:
	.loc	22 0 0 is_stmt 0
	addq	$8, %rdi
Ltmp1141:
	.loc	6 2675 24 is_stmt 1
	##MEMBARRIER
Ltmp1142:
	.loc	31 1385 13
	popq	%rbp
	jmp	__ZN5alloc4sync12Arc$LT$T$GT$9drop_slow17h650920f740fa8399E
Ltmp1143:
LBB54_1:
	.loc	22 184 1
	popq	%rbp
	retq
Ltmp1144:
Lfunc_end54:
	.cfi_endproc

	.p2align	4, 0x90
__ZN4core3ptr13drop_in_place17h7169641d9b382befE:
Lfunc_begin55:
	.loc	22 184 0
	.cfi_startproc
	pushq	%rbp
	.cfi_def_cfa_offset 16
	.cfi_offset %rbp, -16
	movq	%rsp, %rbp
	.cfi_def_cfa_register %rbp
Ltmp1145:
	.loc	22 184 1 prologue_end
	cmpq	$0, (%rdi)
Ltmp1146:
	.loc	22 0 0 is_stmt 0
	movq	8(%rdi), %rax
	testq	%rax, %rax
	je	LBB55_2
Ltmp1147:
	movq	16(%rdi), %rsi
	testq	%rsi, %rsi
	je	LBB55_2
Ltmp1148:
	movl	$1, %edx
	movq	%rax, %rdi
Ltmp1149:
	popq	%rbp
	jmp	___rust_dealloc
Ltmp1150:
LBB55_2:
	.loc	22 184 1
	popq	%rbp
	retq
Ltmp1151:
Lfunc_end55:
	.cfi_endproc

	.p2align	4, 0x90
__ZN4core3ptr13drop_in_place17h7183b030a51c46a7E:
Lfunc_begin56:
	.loc	22 184 0 is_stmt 1
	.cfi_startproc
	.cfi_personality 155, _rust_eh_personality
	.cfi_lsda 16, Lexception18
	pushq	%rbp
	.cfi_def_cfa_offset 16
	.cfi_offset %rbp, -16
	movq	%rsp, %rbp
	.cfi_def_cfa_register %rbp
	pushq	%r14
	pushq	%rbx
	.cfi_offset %rbx, -32
	.cfi_offset %r14, -24
	movq	%rdi, %rbx
Ltmp1155:
	.loc	22 184 1 prologue_end
	movq	(%rdi), %rdi
	testq	%rdi, %rdi
	je	LBB56_3
Ltmp1156:
	.loc	22 184 1 is_stmt 0
	movq	8(%rbx), %rsi
Ltmp1157:
	.loc	10 235 40 is_stmt 1
	testq	%rsi, %rsi
	.loc	10 235 9 is_stmt 0
	je	LBB56_3
Ltmp1158:
	.loc	11 102 14 is_stmt 1
	movl	$1, %edx
	callq	___rust_dealloc
Ltmp1159:
LBB56_3:
	.loc	31 1350 12
	movq	40(%rbx), %rax
Ltmp1160:
	.loc	6 2403 24
	lock		decq	(%rax)
Ltmp1161:
	.loc	31 1350 9
	jne	LBB56_5
Ltmp1162:
	.loc	22 0 0 is_stmt 0
	leaq	40(%rbx), %rdi
Ltmp1163:
	.loc	6 2675 24 is_stmt 1
	##MEMBARRIER
Ltmp1164:
Ltmp1152:
	.loc	31 1385 13
	callq	__ZN5alloc4sync12Arc$LT$T$GT$9drop_slow17h69ebf5f48b901a1fE
Ltmp1165:
Ltmp1153:
LBB56_5:
	.loc	31 1350 12
	movq	72(%rbx), %rax
Ltmp1166:
	.loc	6 2403 24
	lock		decq	(%rax)
Ltmp1167:
	.loc	31 1350 9
	jne	LBB56_8
Ltmp1168:
	.loc	22 0 0 is_stmt 0
	addq	$72, %rbx
Ltmp1169:
	.loc	6 2675 24 is_stmt 1
	##MEMBARRIER
Ltmp1170:
	.loc	31 1385 13
	movq	%rbx, %rdi
	popq	%rbx
Ltmp1171:
	popq	%r14
	popq	%rbp
	jmp	__ZN5alloc4sync12Arc$LT$T$GT$9drop_slow17h650920f740fa8399E
Ltmp1172:
LBB56_8:
	.loc	22 184 1
	popq	%rbx
Ltmp1173:
	popq	%r14
	popq	%rbp
	retq
LBB56_7:
Ltmp1174:
Ltmp1154:
	.loc	22 0 1 is_stmt 0
	movq	%rax, %r14
	.loc	22 184 1
	addq	$72, %rbx
Ltmp1175:
	movq	%rbx, %rdi
	callq	__ZN4core3ptr13drop_in_place17hf7dbf4faffdd2292E
	movq	%r14, %rdi
	callq	__Unwind_Resume
	ud2
Ltmp1176:
Lfunc_end56:
	.cfi_endproc
	.section	__TEXT,__gcc_except_tab
	.p2align	2
GCC_except_table56:
Lexception18:
	.byte	255
	.byte	255
	.byte	1
	.uleb128 Lcst_end18-Lcst_begin18
Lcst_begin18:
	.uleb128 Ltmp1152-Lfunc_begin56
	.uleb128 Ltmp1153-Ltmp1152
	.uleb128 Ltmp1154-Lfunc_begin56
	.byte	0
	.uleb128 Ltmp1153-Lfunc_begin56
	.uleb128 Lfunc_end56-Ltmp1153
	.byte	0
	.byte	0
Lcst_end18:
	.p2align	2

	.section	__TEXT,__text,regular,pure_instructions
	.p2align	4, 0x90
__ZN4core3ptr13drop_in_place17h7a5ed6bc02dd8069E:
Lfunc_begin57:
	.loc	22 184 0 is_stmt 1
	.cfi_startproc
	pushq	%rbp
	.cfi_def_cfa_offset 16
	.cfi_offset %rbp, -16
	movq	%rsp, %rbp
	.cfi_def_cfa_register %rbp
Ltmp1177:
	.loc	1 209 9 prologue_end
	movq	(%rdi), %rax
	movq	(%rax), %rdi
Ltmp1178:
	.loc	6 2406 23
	lock		decq	496(%rdi)
Ltmp1179:
	.loc	6 2357 23
	movq	408(%rdi), %rax
Ltmp1180:
	.file	61 "/Users/yingyuhang/.cargo/registry/src/github.com-1ecc6299db9ec823/rayon-core-1.7.1/src/sleep/mod.rs"
	.loc	61 102 12
	testq	%rax, %rax
	.loc	61 102 9 is_stmt 0
	jne	LBB57_2
Ltmp1181:
	.loc	22 184 1 is_stmt 1
	popq	%rbp
	retq
LBB57_2:
Ltmp1182:
	.loc	61 103 13
	addq	$408, %rdi
Ltmp1183:
	movq	$-1, %rsi
Ltmp1184:
	popq	%rbp
	jmp	__ZN10rayon_core5sleep5Sleep11tickle_cold17hde07c9743cd28435E
Ltmp1185:
Lfunc_end57:
	.cfi_endproc
	.file	62 "/Users/yingyuhang/.cargo/registry/src/github.com-1ecc6299db9ec823/rayon-core-1.7.1/src/latch.rs"

	.p2align	4, 0x90
__ZN4core3ptr13drop_in_place17h7d29a4e074dc0cbeE:
Lfunc_begin58:
	.loc	22 184 0
	.cfi_startproc
	pushq	%rbp
	.cfi_def_cfa_offset 16
	.cfi_offset %rbp, -16
	movq	%rsp, %rbp
	.cfi_def_cfa_register %rbp
Ltmp1186:
	.loc	10 235 40 prologue_end
	testq	%rsi, %rsi
	.loc	10 235 9 is_stmt 0
	je	LBB58_3
Ltmp1187:
	.loc	10 507 16 is_stmt 1
	testq	%rdi, %rdi
Ltmp1188:
	je	LBB58_3
Ltmp1189:
	.loc	10 0 0 is_stmt 0
	shlq	$5, %rsi
Ltmp1190:
	.loc	10 507 16
	je	LBB58_3
Ltmp1191:
	.loc	11 102 14 is_stmt 1
	movl	$8, %edx
	popq	%rbp
	jmp	___rust_dealloc
Ltmp1192:
LBB58_3:
	.loc	22 184 1
	popq	%rbp
	retq
Ltmp1193:
Lfunc_end58:
	.cfi_endproc

	.p2align	4, 0x90
__ZN4core3ptr13drop_in_place17h8051880625b88b73E:
Lfunc_begin59:
	.loc	22 184 0
	.cfi_startproc
	.cfi_personality 155, _rust_eh_personality
	.cfi_lsda 16, Lexception19
	pushq	%rbp
	.cfi_def_cfa_offset 16
	.cfi_offset %rbp, -16
	movq	%rsp, %rbp
	.cfi_def_cfa_register %rbp
Ltmp1200:
	pushq	%r15
	pushq	%r14
	pushq	%rbx
	pushq	%rax
	.cfi_offset %rbx, -40
	.cfi_offset %r14, -32
	.cfi_offset %r15, -24
	.loc	21 2755 21 prologue_end
	movq	%rdi, -32(%rbp)
Ltmp1201:
	.loc	21 2639 39
	movq	16(%rdi), %rbx
	.loc	21 2639 59 is_stmt 0
	movq	24(%rdi), %r15
Ltmp1202:
	.loc	38 300 18 is_stmt 1
	subq	%rbx, %r15
Ltmp1203:
	.loc	22 184 1
	je	LBB59_6
Ltmp1204:
	.loc	21 0 0 is_stmt 0
	sarq	$5, %r15
Ltmp1205:
	.loc	31 1350 9 is_stmt 1
	shlq	$5, %r15
Ltmp1206:
	addq	$-32, %r15
	jmp	LBB59_2
Ltmp1207:
	.p2align	4, 0x90
LBB59_4:
	.loc	22 184 1
	addq	$32, %rbx
	addq	$-32, %r15
	cmpq	$-32, %r15
	je	LBB59_5
LBB59_2:
Ltmp1208:
	.loc	31 1350 12
	movq	(%rbx), %rax
Ltmp1209:
	.loc	6 2403 24
	lock		decq	(%rax)
Ltmp1210:
	.loc	31 1350 9
	jne	LBB59_4
Ltmp1211:
	.loc	6 2675 24
	##MEMBARRIER
Ltmp1212:
Ltmp1194:
	.loc	31 1385 13
	movq	%rbx, %rdi
	callq	__ZN5alloc4sync12Arc$LT$T$GT$9drop_slow17h69ebf5f48b901a1fE
Ltmp1195:
	jmp	LBB59_4
Ltmp1213:
LBB59_5:
	.loc	21 2751 57
	movq	-32(%rbp), %rdi
LBB59_6:
Ltmp1214:
	.loc	21 2751 78 is_stmt 0
	movq	8(%rdi), %rsi
Ltmp1215:
	.loc	10 235 40 is_stmt 1
	testq	%rsi, %rsi
	.loc	10 235 9 is_stmt 0
	je	LBB59_9
Ltmp1216:
	.loc	10 242 28 is_stmt 1
	shlq	$5, %rsi
Ltmp1217:
	.loc	10 507 16
	je	LBB59_9
Ltmp1218:
	.loc	21 0 0 is_stmt 0
	movq	(%rdi), %rdi
Ltmp1219:
	.loc	11 102 14 is_stmt 1
	movl	$8, %edx
	callq	___rust_dealloc
Ltmp1220:
LBB59_9:
	.loc	22 184 1
	addq	$8, %rsp
	popq	%rbx
	popq	%r14
	popq	%r15
	popq	%rbp
	retq
LBB59_12:
Ltmp1196:
	.loc	22 0 1 is_stmt 0
	movq	%rax, %r14
Ltmp1221:
	.loc	22 184 1
	testq	%r15, %r15
	je	LBB59_15
	.loc	22 0 1
	addq	$32, %rbx
LBB59_10:
Ltmp1197:
	.loc	22 184 1
	movq	%rbx, %rdi
	callq	__ZN4core3ptr13drop_in_place17hfaae6e7f22796641E
Ltmp1198:
	addq	$32, %rbx
	addq	$-32, %r15
	jne	LBB59_10
Ltmp1222:
LBB59_15:
	.loc	22 0 1
	leaq	-32(%rbp), %rdi
	.loc	21 2761 5 is_stmt 1
	callq	__ZN4core3ptr13drop_in_place17h3b4497c3751db5f3E
	movq	%r14, %rdi
	callq	__Unwind_Resume
	ud2
Ltmp1223:
LBB59_14:
Ltmp1199:
	.loc	21 0 5 is_stmt 0
	movq	%rax, %r14
	jmp	LBB59_15
Lfunc_end59:
	.cfi_endproc
	.file	63 "/rustc/6c8927b0cf80ceee19386026cf9d7fd4fd9d486f/src/libcore/iter/traits/exact_size.rs"
	.section	__TEXT,__gcc_except_tab
	.p2align	2
GCC_except_table59:
Lexception19:
	.byte	255
	.byte	255
	.byte	1
	.uleb128 Lcst_end19-Lcst_begin19
Lcst_begin19:
	.uleb128 Ltmp1194-Lfunc_begin59
	.uleb128 Ltmp1195-Ltmp1194
	.uleb128 Ltmp1196-Lfunc_begin59
	.byte	0
	.uleb128 Ltmp1197-Lfunc_begin59
	.uleb128 Ltmp1198-Ltmp1197
	.uleb128 Ltmp1199-Lfunc_begin59
	.byte	0
	.uleb128 Ltmp1198-Lfunc_begin59
	.uleb128 Lfunc_end59-Ltmp1198
	.byte	0
	.byte	0
Lcst_end19:
	.p2align	2

	.section	__TEXT,__text,regular,pure_instructions
	.p2align	4, 0x90
__ZN4core3ptr13drop_in_place17h8138b93eb8f9391dE:
Lfunc_begin60:
	.loc	22 184 0 is_stmt 1
	.cfi_startproc
	pushq	%rbp
	.cfi_def_cfa_offset 16
	.cfi_offset %rbp, -16
	movq	%rsp, %rbp
	.cfi_def_cfa_register %rbp
Ltmp1224:
	.loc	31 1350 12 prologue_end
	movq	(%rdi), %rax
Ltmp1225:
	.loc	6 2403 24
	lock		decq	(%rax)
Ltmp1226:
	.loc	31 1350 9
	jne	LBB60_1
Ltmp1227:
	.loc	6 2675 24
	##MEMBARRIER
Ltmp1228:
	.loc	31 1385 13
	popq	%rbp
	jmp	__ZN5alloc4sync12Arc$LT$T$GT$9drop_slow17h7b30aa001b588ac6E
Ltmp1229:
LBB60_1:
	.loc	22 184 1
	popq	%rbp
	retq
Ltmp1230:
Lfunc_end60:
	.cfi_endproc

	.p2align	4, 0x90
__ZN4core3ptr13drop_in_place17h83802e92b1561d9fE:
Lfunc_begin61:
	.loc	22 184 0
	.cfi_startproc
	pushq	%rbp
	.cfi_def_cfa_offset 16
	.cfi_offset %rbp, -16
	movq	%rsp, %rbp
	.cfi_def_cfa_register %rbp
Ltmp1231:
	.loc	22 184 1 prologue_end
	movq	(%rdi), %rdi
Ltmp1232:
	testq	%rdi, %rdi
	je	LBB61_1
Ltmp1233:
	.loc	11 102 14
	movl	$752, %esi
	movl	$8, %edx
	popq	%rbp
	jmp	___rust_dealloc
Ltmp1234:
LBB61_1:
	.loc	22 184 1
	popq	%rbp
	retq
Ltmp1235:
Lfunc_end61:
	.cfi_endproc

	.p2align	4, 0x90
__ZN4core3ptr13drop_in_place17h86c0aeb76276935aE:
Lfunc_begin62:
	.loc	22 184 0
	.cfi_startproc
	pushq	%rbp
	.cfi_def_cfa_offset 16
	.cfi_offset %rbp, -16
	movq	%rsp, %rbp
	.cfi_def_cfa_register %rbp
	pushq	%rbx
	pushq	%rax
	.cfi_offset %rbx, -24
	movq	%rdi, %rbx
Ltmp1236:
	.loc	54 427 18 prologue_end
	movq	(%rdi), %rdi
Ltmp1237:
	.loc	52 78 17
	callq	_pthread_mutex_destroy
Ltmp1238:
	.loc	22 184 1
	movq	(%rbx), %rdi
Ltmp1239:
	.loc	11 102 14
	movl	$64, %esi
	movl	$8, %edx
	addq	$8, %rsp
	popq	%rbx
Ltmp1240:
	popq	%rbp
	jmp	___rust_dealloc
Ltmp1241:
Lfunc_end62:
	.cfi_endproc

	.p2align	4, 0x90
__ZN4core3ptr13drop_in_place17h9290fceed67bc93dE:
Lfunc_begin63:
	.loc	22 184 0
	.cfi_startproc
	pushq	%rbp
	.cfi_def_cfa_offset 16
	.cfi_offset %rbp, -16
	movq	%rsp, %rbp
	.cfi_def_cfa_register %rbp
Ltmp1242:
	.loc	10 235 40 prologue_end
	testq	%rsi, %rsi
	.loc	10 235 9 is_stmt 0
	je	LBB63_3
Ltmp1243:
	.loc	10 507 16 is_stmt 1
	testq	%rdi, %rdi
Ltmp1244:
	je	LBB63_3
Ltmp1245:
	.loc	10 0 0 is_stmt 0
	shlq	$4, %rsi
	leaq	(%rsi,%rsi,4), %rsi
Ltmp1246:
	.loc	10 507 16
	testq	%rsi, %rsi
	je	LBB63_3
Ltmp1247:
	.loc	11 102 14 is_stmt 1
	movl	$8, %edx
	popq	%rbp
	jmp	___rust_dealloc
Ltmp1248:
LBB63_3:
	.loc	22 184 1
	popq	%rbp
	retq
Ltmp1249:
Lfunc_end63:
	.cfi_endproc

	.p2align	4, 0x90
__ZN4core3ptr13drop_in_place17h96c0f16f8fd8d833E:
Lfunc_begin64:
	.loc	22 184 0
	.cfi_startproc
	pushq	%rbp
	.cfi_def_cfa_offset 16
	.cfi_offset %rbp, -16
	movq	%rsp, %rbp
	.cfi_def_cfa_register %rbp
Ltmp1250:
	.loc	31 1350 12 prologue_end
	movq	(%rdi), %rax
Ltmp1251:
	.loc	6 2403 24
	lock		decq	(%rax)
Ltmp1252:
	.loc	31 1350 9
	jne	LBB64_1
Ltmp1253:
	.loc	6 2675 24
	##MEMBARRIER
Ltmp1254:
	.loc	31 1385 13
	popq	%rbp
	jmp	__ZN5alloc4sync12Arc$LT$T$GT$9drop_slow17hbc9b89e8a2345aa8E
Ltmp1255:
LBB64_1:
	.loc	22 184 1
	popq	%rbp
	retq
Ltmp1256:
Lfunc_end64:
	.cfi_endproc

	.p2align	4, 0x90
__ZN4core3ptr13drop_in_place17h9b0c2bd2d1bb9749E:
Lfunc_begin65:
	.loc	22 184 0
	.cfi_startproc
	pushq	%rbp
	.cfi_def_cfa_offset 16
	.cfi_offset %rbp, -16
	movq	%rsp, %rbp
	.cfi_def_cfa_register %rbp
Ltmp1257:
	pushq	%r15
	pushq	%r14
	pushq	%rbx
	pushq	%rax
	.cfi_offset %rbx, -40
	.cfi_offset %r14, -32
	.cfi_offset %r15, -24
	.loc	6 2356 24 prologue_end
	movq	(%rdi), %rbx
Ltmp1258:
	.loc	6 2356 24 is_stmt 0
	movq	128(%rdi), %r14
Ltmp1259:
	.loc	6 2356 24
	movq	8(%rdi), %rdi
Ltmp1260:
	.loc	33 449 9 is_stmt 1
	andq	$-2, %rbx
Ltmp1261:
	.loc	33 450 9
	andq	$-2, %r14
Ltmp1262:
	.loc	33 454 19
	cmpq	%r14, %rbx
	.loc	33 454 13 is_stmt 0
	jne	LBB65_3
Ltmp1263:
LBB65_1:
	.loc	12 29 9 is_stmt 1
	testq	%rdi, %rdi
Ltmp1264:
	.loc	33 473 13
	je	LBB65_6
Ltmp1265:
	.loc	11 102 14
	movl	$752, %esi
	movl	$8, %edx
	addq	$8, %rsp
	popq	%rbx
Ltmp1266:
	popq	%r14
Ltmp1267:
	popq	%r15
	popq	%rbp
	jmp	___rust_dealloc
Ltmp1268:
	.p2align	4, 0x90
LBB65_5:
	.loc	7 3439 17
	addq	$2, %rbx
Ltmp1269:
	.loc	33 454 19
	cmpq	%rbx, %r14
	.loc	33 454 13 is_stmt 0
	je	LBB65_1
Ltmp1270:
LBB65_3:
	.loc	33 455 30 is_stmt 1
	movl	%ebx, %eax
	andl	$62, %eax
Ltmp1271:
	.loc	33 457 20
	cmpl	$62, %eax
	.loc	33 457 17 is_stmt 0
	jne	LBB65_5
Ltmp1272:
	.loc	6 2356 24 is_stmt 1
	movq	(%rdi), %r15
Ltmp1273:
	.loc	11 102 14
	movl	$752, %esi
	movl	$8, %edx
	callq	___rust_dealloc
Ltmp1274:
	.loc	33 0 0 is_stmt 0
	movq	%r15, %rdi
Ltmp1275:
	jmp	LBB65_5
Ltmp1276:
LBB65_6:
	.loc	22 184 1 is_stmt 1
	addq	$8, %rsp
	popq	%rbx
	popq	%r14
	popq	%r15
	popq	%rbp
	retq
Ltmp1277:
Lfunc_end65:
	.cfi_endproc

	.p2align	4, 0x90
__ZN4core3ptr13drop_in_place17h9c6a747da0e0b96eE:
Lfunc_begin66:
	.loc	22 184 0
	.cfi_startproc
	.cfi_personality 155, _rust_eh_personality
	.cfi_lsda 16, Lexception20
	pushq	%rbp
	.cfi_def_cfa_offset 16
	.cfi_offset %rbp, -16
	movq	%rsp, %rbp
	.cfi_def_cfa_register %rbp
	pushq	%r15
	pushq	%r14
	pushq	%rbx
	pushq	%rax
	.cfi_offset %rbx, -40
	.cfi_offset %r14, -32
	.cfi_offset %r15, -24
	movq	%rdi, %rbx
Ltmp1281:
	.loc	22 184 1 prologue_end
	movb	(%rdi), %al
Ltmp1282:
	cmpb	$3, %al
	ja	LBB66_2
Ltmp1283:
	.loc	22 0 1 is_stmt 0
	cmpb	$2, %al
	je	LBB66_2
Ltmp1284:
	.loc	22 184 1
	addq	$8, %rsp
	popq	%rbx
Ltmp1285:
	popq	%r14
	popq	%r15
	popq	%rbp
	retq
LBB66_2:
Ltmp1286:
	.loc	22 184 1
	movq	8(%rbx), %r15
Ltmp1287:
	.loc	22 184 1
	movq	(%r15), %rdi
	movq	8(%r15), %rax
Ltmp1278:
	callq	*(%rax)
Ltmp1279:
Ltmp1288:
	movq	8(%r15), %rax
Ltmp1289:
	.loc	11 292 20 is_stmt 1
	movq	8(%rax), %rsi
Ltmp1290:
	.loc	11 185 12
	testq	%rsi, %rsi
	.loc	11 185 9 is_stmt 0
	je	LBB66_5
Ltmp1291:
	.loc	22 184 1 is_stmt 1
	movq	(%r15), %rdi
Ltmp1292:
	.loc	11 293 21
	movq	16(%rax), %rdx
Ltmp1293:
	.loc	11 102 14
	callq	___rust_dealloc
Ltmp1294:
LBB66_5:
	.loc	22 184 1
	movq	8(%rbx), %rdi
Ltmp1295:
	.loc	11 102 14
	movl	$24, %esi
	movl	$8, %edx
	addq	$8, %rsp
	popq	%rbx
Ltmp1296:
	popq	%r14
	popq	%r15
	popq	%rbp
	jmp	___rust_dealloc
Ltmp1297:
LBB66_7:
Ltmp1280:
	.loc	11 0 14 is_stmt 0
	movq	%rax, %r14
Ltmp1298:
	.loc	22 184 1 is_stmt 1
	movq	(%r15), %rdi
	movq	8(%r15), %rsi
	callq	__ZN5alloc5alloc8box_free17h578dcf25edc19e78E
Ltmp1299:
	.loc	22 184 1 is_stmt 0
	movq	8(%rbx), %rdi
	callq	__ZN5alloc5alloc8box_free17hf86e3cdc26dffa46E
	movq	%r14, %rdi
	callq	__Unwind_Resume
	ud2
Ltmp1300:
Lfunc_end66:
	.cfi_endproc
	.section	__TEXT,__gcc_except_tab
	.p2align	2
GCC_except_table66:
Lexception20:
	.byte	255
	.byte	255
	.byte	1
	.uleb128 Lcst_end20-Lcst_begin20
Lcst_begin20:
	.uleb128 Ltmp1278-Lfunc_begin66
	.uleb128 Ltmp1279-Ltmp1278
	.uleb128 Ltmp1280-Lfunc_begin66
	.byte	0
	.uleb128 Ltmp1279-Lfunc_begin66
	.uleb128 Lfunc_end66-Ltmp1279
	.byte	0
	.byte	0
Lcst_end20:
	.p2align	2

	.section	__TEXT,__text,regular,pure_instructions
	.p2align	4, 0x90
__ZN4core3ptr13drop_in_place17ha0cafbc5ff8cf66eE:
Lfunc_begin67:
	.loc	22 184 0 is_stmt 1
	.cfi_startproc
	.cfi_personality 155, _rust_eh_personality
	.cfi_lsda 16, Lexception21
	pushq	%rbp
	.cfi_def_cfa_offset 16
	.cfi_offset %rbp, -16
	movq	%rsp, %rbp
	.cfi_def_cfa_register %rbp
	pushq	%r14
	pushq	%rbx
	.cfi_offset %rbx, -32
	.cfi_offset %r14, -24
	movq	%rdi, %rbx
Ltmp1304:
	.loc	22 184 1 prologue_end
	movq	(%rdi), %rdi
	testq	%rdi, %rdi
	je	LBB67_5
Ltmp1305:
	.loc	22 184 1 is_stmt 0
	movq	8(%rbx), %rax
Ltmp1301:
	callq	*(%rax)
Ltmp1302:
Ltmp1306:
	movq	8(%rbx), %rax
Ltmp1307:
	.loc	11 292 20 is_stmt 1
	movq	8(%rax), %rsi
Ltmp1308:
	.loc	11 185 12
	testq	%rsi, %rsi
	.loc	11 185 9 is_stmt 0
	je	LBB67_5
Ltmp1309:
	.loc	22 184 1 is_stmt 1
	movq	(%rbx), %rdi
Ltmp1310:
	.loc	11 293 21
	movq	16(%rax), %rdx
Ltmp1311:
	.loc	11 102 14
	popq	%rbx
Ltmp1312:
	popq	%r14
	popq	%rbp
	jmp	___rust_dealloc
Ltmp1313:
LBB67_5:
	.loc	22 184 1
	popq	%rbx
Ltmp1314:
	popq	%r14
	popq	%rbp
	retq
LBB67_4:
Ltmp1315:
Ltmp1303:
	.loc	22 0 1 is_stmt 0
	movq	%rax, %r14
Ltmp1316:
	.loc	22 184 1
	movq	(%rbx), %rdi
	movq	8(%rbx), %rsi
	callq	__ZN5alloc5alloc8box_free17h578dcf25edc19e78E
	movq	%r14, %rdi
	callq	__Unwind_Resume
	ud2
Ltmp1317:
Lfunc_end67:
	.cfi_endproc
	.section	__TEXT,__gcc_except_tab
	.p2align	2
GCC_except_table67:
Lexception21:
	.byte	255
	.byte	255
	.byte	1
	.uleb128 Lcst_end21-Lcst_begin21
Lcst_begin21:
	.uleb128 Ltmp1301-Lfunc_begin67
	.uleb128 Ltmp1302-Ltmp1301
	.uleb128 Ltmp1303-Lfunc_begin67
	.byte	0
	.uleb128 Ltmp1302-Lfunc_begin67
	.uleb128 Lfunc_end67-Ltmp1302
	.byte	0
	.byte	0
Lcst_end21:
	.p2align	2

	.section	__TEXT,__text,regular,pure_instructions
	.p2align	4, 0x90
__ZN4core3ptr13drop_in_place17haecf5d3ac75bcbc5E:
Lfunc_begin68:
	.loc	22 184 0 is_stmt 1
	.cfi_startproc
	pushq	%rbp
	.cfi_def_cfa_offset 16
	.cfi_offset %rbp, -16
	movq	%rsp, %rbp
	.cfi_def_cfa_register %rbp
Ltmp1318:
	.loc	31 1350 12 prologue_end
	movq	(%rdi), %rax
Ltmp1319:
	.loc	6 2403 24
	lock		decq	(%rax)
Ltmp1320:
	.loc	31 1350 9
	jne	LBB68_1
Ltmp1321:
	.loc	6 2675 24
	##MEMBARRIER
Ltmp1322:
	.loc	31 1385 13
	popq	%rbp
	jmp	__ZN5alloc4sync12Arc$LT$T$GT$9drop_slow17h69ebf5f48b901a1fE
Ltmp1323:
LBB68_1:
	.loc	22 184 1
	popq	%rbp
	retq
Ltmp1324:
Lfunc_end68:
	.cfi_endproc

	.p2align	4, 0x90
__ZN4core3ptr13drop_in_place17hafe24e14d47159f9E:
Lfunc_begin69:
	.loc	22 184 0
	.cfi_startproc
	.cfi_personality 155, _rust_eh_personality
	.cfi_lsda 16, Lexception22
	pushq	%rbp
	.cfi_def_cfa_offset 16
	.cfi_offset %rbp, -16
	movq	%rsp, %rbp
	.cfi_def_cfa_register %rbp
	pushq	%r15
	pushq	%r14
	pushq	%r12
	pushq	%rbx
	.cfi_offset %rbx, -48
	.cfi_offset %r12, -40
	.cfi_offset %r14, -32
	.cfi_offset %r15, -24
	movq	%rdi, %r14
Ltmp1331:
	.loc	21 854 19 prologue_end
	movq	(%rdi), %r12
Ltmp1332:
	.loc	21 2421 81
	movq	16(%rdi), %rax
Ltmp1333:
	.loc	22 184 1
	shlq	$4, %rax
Ltmp1334:
	leaq	(%rax,%rax,4), %rbx
Ltmp1335:
	.p2align	4, 0x90
LBB69_5:
	testq	%rbx, %rbx
	je	LBB69_6
Ltmp1336:
	addq	$-80, %rbx
Ltmp1325:
	movq	%r12, %rdi
	addq	$80, %r12
	callq	__ZN4core3ptr13drop_in_place17hdbbd88e8231cd1b6E
Ltmp1326:
	jmp	LBB69_5
Ltmp1337:
LBB69_6:
	.loc	22 184 1 is_stmt 0
	movq	8(%r14), %rax
Ltmp1338:
	.loc	10 235 40 is_stmt 1
	testq	%rax, %rax
	.loc	10 235 9 is_stmt 0
	je	LBB69_9
Ltmp1339:
	.loc	22 0 0
	movq	(%r14), %rdi
Ltmp1340:
	.loc	10 507 16 is_stmt 1
	testq	%rdi, %rdi
Ltmp1341:
	je	LBB69_9
Ltmp1342:
	.loc	10 0 0 is_stmt 0
	shlq	$4, %rax
	leaq	(%rax,%rax,4), %rsi
Ltmp1343:
	.loc	10 507 16
	testq	%rsi, %rsi
	je	LBB69_9
Ltmp1344:
	.loc	11 102 14 is_stmt 1
	movl	$8, %edx
	popq	%rbx
	popq	%r12
	popq	%r14
Ltmp1345:
	popq	%r15
	popq	%rbp
	jmp	___rust_dealloc
Ltmp1346:
LBB69_9:
	.loc	22 184 1
	popq	%rbx
	popq	%r12
	popq	%r14
Ltmp1347:
	popq	%r15
	popq	%rbp
	retq
LBB69_1:
Ltmp1348:
Ltmp1327:
	.loc	22 0 1 is_stmt 0
	movq	%rax, %r15
Ltmp1349:
	.loc	22 184 1
	testq	%rbx, %rbx
	je	LBB69_11
Ltmp1350:
LBB69_2:
Ltmp1328:
	movq	%r12, %rdi
	callq	__ZN4core3ptr13drop_in_place17hdbbd88e8231cd1b6E
Ltmp1329:
Ltmp1351:
	addq	$80, %r12
	addq	$-80, %rbx
	jne	LBB69_2
Ltmp1352:
LBB69_11:
	.loc	22 184 1
	movq	(%r14), %rdi
	movq	8(%r14), %rsi
	callq	__ZN4core3ptr13drop_in_place17h9290fceed67bc93dE
	movq	%r15, %rdi
	callq	__Unwind_Resume
	ud2
Ltmp1353:
LBB69_10:
Ltmp1330:
	.loc	22 0 1
	movq	%rax, %r15
	jmp	LBB69_11
Lfunc_end69:
	.cfi_endproc
	.section	__TEXT,__gcc_except_tab
	.p2align	2
GCC_except_table69:
Lexception22:
	.byte	255
	.byte	255
	.byte	1
	.uleb128 Lcst_end22-Lcst_begin22
Lcst_begin22:
	.uleb128 Ltmp1325-Lfunc_begin69
	.uleb128 Ltmp1326-Ltmp1325
	.uleb128 Ltmp1327-Lfunc_begin69
	.byte	0
	.uleb128 Ltmp1328-Lfunc_begin69
	.uleb128 Ltmp1329-Ltmp1328
	.uleb128 Ltmp1330-Lfunc_begin69
	.byte	0
	.uleb128 Ltmp1329-Lfunc_begin69
	.uleb128 Lfunc_end69-Ltmp1329
	.byte	0
	.byte	0
Lcst_end22:
	.p2align	2

	.section	__TEXT,__text,regular,pure_instructions
	.p2align	4, 0x90
__ZN4core3ptr13drop_in_place17hc1bfaaa7e19d197dE:
Lfunc_begin70:
	.loc	22 184 0 is_stmt 1
	.cfi_startproc
	pushq	%rbp
	.cfi_def_cfa_offset 16
	.cfi_offset %rbp, -16
	movq	%rsp, %rbp
	.cfi_def_cfa_register %rbp
Ltmp1354:
	.loc	22 184 1 prologue_end
	cmpl	$2, 40(%rdi)
	jne	LBB70_2
Ltmp1355:
	popq	%rbp
	retq
Ltmp1356:
LBB70_2:
	.loc	22 184 1 is_stmt 0
	popq	%rbp
	jmp	__ZN4core3ptr13drop_in_place17h55486af5d6a3a606E
Ltmp1357:
Lfunc_end70:
	.cfi_endproc

	.p2align	4, 0x90
__ZN4core3ptr13drop_in_place17hc2c10df2a9c18a80E:
Lfunc_begin71:
	.loc	22 184 0 is_stmt 1
	.cfi_startproc
	.cfi_personality 155, _rust_eh_personality
	.cfi_lsda 16, Lexception23
	pushq	%rbp
	.cfi_def_cfa_offset 16
	.cfi_offset %rbp, -16
	movq	%rsp, %rbp
	.cfi_def_cfa_register %rbp
Ltmp1364:
	pushq	%r15
	pushq	%r14
	pushq	%rbx
	pushq	%rax
	.cfi_offset %rbx, -40
	.cfi_offset %r14, -32
	.cfi_offset %r15, -24
	.loc	21 2755 21 prologue_end
	movq	%rdi, -32(%rbp)
Ltmp1365:
	.loc	21 2639 39
	movq	16(%rdi), %rbx
	.loc	21 2639 59 is_stmt 0
	movq	24(%rdi), %r15
Ltmp1366:
	.loc	38 300 18 is_stmt 1
	subq	%rbx, %r15
Ltmp1367:
	.loc	22 184 1
	je	LBB71_6
Ltmp1368:
	.loc	21 0 0 is_stmt 0
	sarq	$4, %r15
Ltmp1369:
	.loc	31 1350 9 is_stmt 1
	shlq	$4, %r15
Ltmp1370:
	addq	$-16, %r15
	jmp	LBB71_2
Ltmp1371:
	.p2align	4, 0x90
LBB71_4:
	.loc	22 184 1
	addq	$16, %rbx
	addq	$-16, %r15
	cmpq	$-16, %r15
	je	LBB71_5
LBB71_2:
Ltmp1372:
	.loc	31 1350 12
	movq	(%rbx), %rax
Ltmp1373:
	.loc	6 2403 24
	lock		decq	(%rax)
Ltmp1374:
	.loc	31 1350 9
	jne	LBB71_4
Ltmp1375:
	.loc	6 2675 24
	##MEMBARRIER
Ltmp1376:
Ltmp1358:
	.loc	31 1385 13
	movq	%rbx, %rdi
	callq	__ZN5alloc4sync12Arc$LT$T$GT$9drop_slow17h69ebf5f48b901a1fE
Ltmp1359:
	jmp	LBB71_4
Ltmp1377:
LBB71_5:
	.loc	21 2751 57
	movq	-32(%rbp), %rdi
LBB71_6:
Ltmp1378:
	.loc	21 2751 78 is_stmt 0
	movq	8(%rdi), %rsi
Ltmp1379:
	.loc	10 235 40 is_stmt 1
	testq	%rsi, %rsi
	.loc	10 235 9 is_stmt 0
	je	LBB71_9
Ltmp1380:
	.loc	10 242 28 is_stmt 1
	shlq	$4, %rsi
Ltmp1381:
	.loc	10 507 16
	je	LBB71_9
Ltmp1382:
	.loc	21 0 0 is_stmt 0
	movq	(%rdi), %rdi
Ltmp1383:
	.loc	11 102 14 is_stmt 1
	movl	$8, %edx
	callq	___rust_dealloc
Ltmp1384:
LBB71_9:
	.loc	22 184 1
	addq	$8, %rsp
	popq	%rbx
	popq	%r14
	popq	%r15
	popq	%rbp
	retq
LBB71_12:
Ltmp1360:
	.loc	22 0 1 is_stmt 0
	movq	%rax, %r14
Ltmp1385:
	.loc	22 184 1
	testq	%r15, %r15
	je	LBB71_15
	.loc	22 0 1
	addq	$16, %rbx
LBB71_10:
Ltmp1361:
	.loc	22 184 1
	movq	%rbx, %rdi
	callq	__ZN4core3ptr13drop_in_place17haecf5d3ac75bcbc5E
Ltmp1362:
	addq	$16, %rbx
	addq	$-16, %r15
	jne	LBB71_10
Ltmp1386:
LBB71_15:
	.loc	22 0 1
	leaq	-32(%rbp), %rdi
	.loc	21 2761 5 is_stmt 1
	callq	__ZN4core3ptr13drop_in_place17h4869c7e17a3790edE
	movq	%r14, %rdi
	callq	__Unwind_Resume
	ud2
Ltmp1387:
LBB71_14:
Ltmp1363:
	.loc	21 0 5 is_stmt 0
	movq	%rax, %r14
	jmp	LBB71_15
Lfunc_end71:
	.cfi_endproc
	.section	__TEXT,__gcc_except_tab
	.p2align	2
GCC_except_table71:
Lexception23:
	.byte	255
	.byte	255
	.byte	1
	.uleb128 Lcst_end23-Lcst_begin23
Lcst_begin23:
	.uleb128 Ltmp1358-Lfunc_begin71
	.uleb128 Ltmp1359-Ltmp1358
	.uleb128 Ltmp1360-Lfunc_begin71
	.byte	0
	.uleb128 Ltmp1361-Lfunc_begin71
	.uleb128 Ltmp1362-Ltmp1361
	.uleb128 Ltmp1363-Lfunc_begin71
	.byte	0
	.uleb128 Ltmp1362-Lfunc_begin71
	.uleb128 Lfunc_end71-Ltmp1362
	.byte	0
	.byte	0
Lcst_end23:
	.p2align	2

	.section	__TEXT,__text,regular,pure_instructions
	.p2align	4, 0x90
__ZN4core3ptr13drop_in_place17hc5516e9da272a382E:
Lfunc_begin72:
	.loc	22 184 0 is_stmt 1
	.cfi_startproc
	.cfi_personality 155, _rust_eh_personality
	.cfi_lsda 16, Lexception24
	pushq	%rbp
	.cfi_def_cfa_offset 16
	.cfi_offset %rbp, -16
	movq	%rsp, %rbp
	.cfi_def_cfa_register %rbp
Ltmp1391:
	pushq	%r15
	pushq	%r14
	pushq	%rbx
	pushq	%rax
	.cfi_offset %rbx, -40
	.cfi_offset %r14, -32
	.cfi_offset %r15, -24
	.loc	22 184 1 prologue_end
	cmpq	$0, (%rdi)
	je	LBB72_7
Ltmp1392:
	.loc	22 0 1 is_stmt 0
	movq	%rdi, %rbx
Ltmp1393:
	.loc	22 184 1
	movb	8(%rdi), %al
Ltmp1394:
	cmpb	$3, %al
	ja	LBB72_3
Ltmp1395:
	.loc	22 0 1
	cmpb	$2, %al
	je	LBB72_3
Ltmp1396:
LBB72_7:
	.loc	22 184 1
	addq	$8, %rsp
	popq	%rbx
	popq	%r14
	popq	%r15
	popq	%rbp
	retq
LBB72_3:
Ltmp1397:
	.loc	22 184 1
	movq	16(%rbx), %r15
Ltmp1398:
	.loc	22 184 1
	movq	(%r15), %rdi
	movq	8(%r15), %rax
Ltmp1388:
	callq	*(%rax)
Ltmp1389:
Ltmp1399:
	movq	8(%r15), %rax
Ltmp1400:
	.loc	11 292 20 is_stmt 1
	movq	8(%rax), %rsi
Ltmp1401:
	.loc	11 185 12
	testq	%rsi, %rsi
	.loc	11 185 9 is_stmt 0
	je	LBB72_6
Ltmp1402:
	.loc	22 184 1 is_stmt 1
	movq	(%r15), %rdi
Ltmp1403:
	.loc	11 293 21
	movq	16(%rax), %rdx
Ltmp1404:
	.loc	11 102 14
	callq	___rust_dealloc
Ltmp1405:
LBB72_6:
	.loc	22 184 1
	movq	16(%rbx), %rdi
Ltmp1406:
	.loc	11 102 14
	movl	$24, %esi
	movl	$8, %edx
	addq	$8, %rsp
	popq	%rbx
Ltmp1407:
	popq	%r14
	popq	%r15
	popq	%rbp
	jmp	___rust_dealloc
Ltmp1408:
LBB72_8:
Ltmp1390:
	.loc	11 0 14 is_stmt 0
	movq	%rax, %r14
Ltmp1409:
	.loc	22 184 1 is_stmt 1
	movq	(%r15), %rdi
	movq	8(%r15), %rsi
	callq	__ZN5alloc5alloc8box_free17h578dcf25edc19e78E
Ltmp1410:
	.loc	22 184 1 is_stmt 0
	movq	16(%rbx), %rdi
	callq	__ZN5alloc5alloc8box_free17hf86e3cdc26dffa46E
	movq	%r14, %rdi
	callq	__Unwind_Resume
	ud2
Ltmp1411:
Lfunc_end72:
	.cfi_endproc
	.section	__TEXT,__gcc_except_tab
	.p2align	2
GCC_except_table72:
Lexception24:
	.byte	255
	.byte	255
	.byte	1
	.uleb128 Lcst_end24-Lcst_begin24
Lcst_begin24:
	.uleb128 Ltmp1388-Lfunc_begin72
	.uleb128 Ltmp1389-Ltmp1388
	.uleb128 Ltmp1390-Lfunc_begin72
	.byte	0
	.uleb128 Ltmp1389-Lfunc_begin72
	.uleb128 Lfunc_end72-Ltmp1389
	.byte	0
	.byte	0
Lcst_end24:
	.p2align	2

	.section	__TEXT,__text,regular,pure_instructions
	.p2align	4, 0x90
__ZN4core3ptr13drop_in_place17hc8e6c3335dcead59E:
Lfunc_begin73:
	.loc	22 184 0 is_stmt 1
	.cfi_startproc
	pushq	%rbp
	.cfi_def_cfa_offset 16
	.cfi_offset %rbp, -16
	movq	%rsp, %rbp
	.cfi_def_cfa_register %rbp
Ltmp1412:
	.loc	22 184 1 prologue_end
	movq	8(%rdi), %rax
	movq	16(%rdi), %rcx
Ltmp1413:
	.loc	21 1732 9
	movq	%rcx, (%rax)
Ltmp1414:
	.loc	22 184 1
	popq	%rbp
	retq
Ltmp1415:
Lfunc_end73:
	.cfi_endproc

	.p2align	4, 0x90
__ZN4core3ptr13drop_in_place17hc91a6e7c93004a80E:
Lfunc_begin74:
	.loc	22 184 0
	.cfi_startproc
	pushq	%rbp
	.cfi_def_cfa_offset 16
	.cfi_offset %rbp, -16
	movq	%rsp, %rbp
	.cfi_def_cfa_register %rbp
Ltmp1416:
	.loc	22 184 1 prologue_end
	movq	(%rdi), %rdi
Ltmp1417:
	.loc	11 102 14
	movl	$48, %esi
	movl	$8, %edx
	popq	%rbp
	jmp	___rust_dealloc
Ltmp1418:
Lfunc_end74:
	.cfi_endproc

	.p2align	4, 0x90
__ZN4core3ptr13drop_in_place17hca63c3945a6bd8a4E:
Lfunc_begin75:
	.loc	22 184 0
	.cfi_startproc
	pushq	%rbp
	.cfi_def_cfa_offset 16
	.cfi_offset %rbp, -16
	movq	%rsp, %rbp
	.cfi_def_cfa_register %rbp
Ltmp1419:
	pushq	%r15
	pushq	%r14
	pushq	%r13
	pushq	%r12
	pushq	%rbx
	pushq	%rax
	.cfi_offset %rbx, -56
	.cfi_offset %r12, -48
	.cfi_offset %r13, -40
	.cfi_offset %r14, -32
	.cfi_offset %r15, -24
	.loc	21 854 19 prologue_end
	movq	(%rdi), %r12
Ltmp1420:
	.loc	21 2421 81
	movq	16(%rdi), %r15
Ltmp1421:
	.loc	22 184 1
	testq	%r15, %r15
	je	LBB75_7
Ltmp1422:
	.loc	22 0 1 is_stmt 0
	movq	%rdi, -48(%rbp)
Ltmp1423:
	.loc	22 184 1
	shlq	$8, %r15
Ltmp1424:
	addq	%r12, %r15
	jmp	LBB75_2
Ltmp1425:
	.p2align	4, 0x90
LBB75_5:
	cmpq	%r15, %r12
	je	LBB75_6
Ltmp1426:
LBB75_2:
	.loc	6 2356 24 is_stmt 1
	movq	(%r12), %rbx
Ltmp1427:
	.loc	6 2356 24 is_stmt 0
	movq	128(%r12), %r13
Ltmp1428:
	.loc	6 2356 24
	movq	8(%r12), %rdi
Ltmp1429:
	.loc	33 449 9 is_stmt 1
	andq	$-2, %rbx
Ltmp1430:
	.loc	33 450 9
	andq	$-2, %r13
Ltmp1431:
	.loc	33 454 19
	cmpq	%r13, %rbx
	.loc	33 454 13 is_stmt 0
	jne	LBB75_11
Ltmp1432:
LBB75_3:
	.loc	22 0 0
	addq	$256, %r12
Ltmp1433:
	.loc	12 29 9 is_stmt 1
	testq	%rdi, %rdi
Ltmp1434:
	.loc	33 473 13
	je	LBB75_5
Ltmp1435:
	.loc	11 102 14
	movl	$752, %esi
	movl	$8, %edx
	callq	___rust_dealloc
Ltmp1436:
	.loc	11 0 14 is_stmt 0
	jmp	LBB75_5
Ltmp1437:
	.p2align	4, 0x90
LBB75_13:
	.loc	7 3439 17 is_stmt 1
	addq	$2, %rbx
Ltmp1438:
	.loc	33 454 19
	cmpq	%rbx, %r13
	.loc	33 454 13 is_stmt 0
	je	LBB75_3
Ltmp1439:
LBB75_11:
	.loc	33 455 30 is_stmt 1
	movl	%ebx, %eax
	andl	$62, %eax
Ltmp1440:
	.loc	33 457 20
	cmpl	$62, %eax
	.loc	33 457 17 is_stmt 0
	jne	LBB75_13
Ltmp1441:
	.loc	6 2356 24 is_stmt 1
	movq	(%rdi), %r14
Ltmp1442:
	.loc	11 102 14
	movl	$752, %esi
	movl	$8, %edx
	callq	___rust_dealloc
Ltmp1443:
	.loc	33 0 0 is_stmt 0
	movq	%r14, %rdi
Ltmp1444:
	jmp	LBB75_13
Ltmp1445:
LBB75_6:
	movq	-48(%rbp), %rdi
Ltmp1446:
	.loc	22 184 1 is_stmt 1
	movq	(%rdi), %r12
Ltmp1447:
LBB75_7:
	movq	8(%rdi), %rsi
Ltmp1448:
	.loc	10 235 40
	testq	%rsi, %rsi
	.loc	10 235 9 is_stmt 0
	je	LBB75_14
Ltmp1449:
	.loc	10 507 16 is_stmt 1
	testq	%r12, %r12
Ltmp1450:
	je	LBB75_14
Ltmp1451:
	.loc	10 0 0 is_stmt 0
	shlq	$8, %rsi
Ltmp1452:
	.loc	10 507 16
	je	LBB75_14
Ltmp1453:
	.loc	11 102 14 is_stmt 1
	movl	$128, %edx
	movq	%r12, %rdi
Ltmp1454:
	addq	$8, %rsp
	popq	%rbx
	popq	%r12
Ltmp1455:
	popq	%r13
	popq	%r14
	popq	%r15
	popq	%rbp
	jmp	___rust_dealloc
Ltmp1456:
LBB75_14:
	.loc	22 184 1
	addq	$8, %rsp
	popq	%rbx
	popq	%r12
	popq	%r13
	popq	%r14
	popq	%r15
	popq	%rbp
	retq
Ltmp1457:
Lfunc_end75:
	.cfi_endproc

	.p2align	4, 0x90
__ZN4core3ptr13drop_in_place17hd5404ee24f486603E:
Lfunc_begin76:
	.loc	22 184 0
	.cfi_startproc
	pushq	%rbp
	.cfi_def_cfa_offset 16
	.cfi_offset %rbp, -16
	movq	%rsp, %rbp
	.cfi_def_cfa_register %rbp
	movq	%rdi, %rax
Ltmp1458:
	.loc	22 184 1 prologue_end
	movq	(%rdi), %rdi
	testq	%rdi, %rdi
	je	LBB76_2
Ltmp1459:
	.loc	22 184 1 is_stmt 0
	movq	8(%rax), %rsi
Ltmp1460:
	.loc	10 235 40 is_stmt 1
	testq	%rsi, %rsi
	.loc	10 235 9 is_stmt 0
	je	LBB76_2
Ltmp1461:
	.loc	11 102 14 is_stmt 1
	movl	$1, %edx
	popq	%rbp
	jmp	___rust_dealloc
Ltmp1462:
LBB76_2:
	.loc	22 184 1
	popq	%rbp
	retq
Ltmp1463:
Lfunc_end76:
	.cfi_endproc

	.p2align	4, 0x90
__ZN4core3ptr13drop_in_place17hd72393eb0cd00dd1E:
Lfunc_begin77:
	.loc	22 184 0
	.cfi_startproc
	.cfi_personality 155, _rust_eh_personality
	.cfi_lsda 16, Lexception25
	pushq	%rbp
	.cfi_def_cfa_offset 16
	.cfi_offset %rbp, -16
	movq	%rsp, %rbp
	.cfi_def_cfa_register %rbp
	pushq	%r15
	pushq	%r14
	pushq	%r12
	pushq	%rbx
	.cfi_offset %rbx, -48
	.cfi_offset %r12, -40
	.cfi_offset %r14, -32
	.cfi_offset %r15, -24
	movq	%rdi, %r14
Ltmp1470:
	.loc	21 854 19 prologue_end
	movq	(%rdi), %r12
Ltmp1471:
	.loc	21 2421 81
	movq	16(%rdi), %rbx
Ltmp1472:
	.loc	22 184 1
	testq	%rbx, %rbx
	je	LBB77_6
Ltmp1473:
	.loc	31 1350 9
	shlq	$5, %rbx
Ltmp1474:
	addq	$-32, %rbx
	jmp	LBB77_2
Ltmp1475:
	.p2align	4, 0x90
LBB77_4:
	.loc	22 184 1
	addq	$32, %r12
	addq	$-32, %rbx
	cmpq	$-32, %rbx
	je	LBB77_5
Ltmp1476:
LBB77_2:
	.loc	31 1350 12
	movq	(%r12), %rax
Ltmp1477:
	.loc	6 2403 24
	lock		decq	(%rax)
Ltmp1478:
	.loc	31 1350 9
	jne	LBB77_4
Ltmp1479:
	.loc	6 2675 24
	##MEMBARRIER
Ltmp1480:
Ltmp1464:
	.loc	31 1385 13
	movq	%r12, %rdi
	callq	__ZN5alloc4sync12Arc$LT$T$GT$9drop_slow17h69ebf5f48b901a1fE
Ltmp1465:
	jmp	LBB77_4
Ltmp1481:
LBB77_5:
	.loc	22 184 1
	movq	(%r14), %r12
Ltmp1482:
LBB77_6:
	movq	8(%r14), %rsi
Ltmp1483:
	.loc	10 235 40
	testq	%rsi, %rsi
	.loc	10 235 9 is_stmt 0
	je	LBB77_14
Ltmp1484:
	.loc	10 507 16 is_stmt 1
	testq	%r12, %r12
Ltmp1485:
	je	LBB77_14
Ltmp1486:
	.loc	10 0 0 is_stmt 0
	shlq	$5, %rsi
Ltmp1487:
	.loc	10 507 16
	je	LBB77_14
Ltmp1488:
	.loc	11 102 14 is_stmt 1
	movl	$8, %edx
	movq	%r12, %rdi
	popq	%rbx
	popq	%r12
Ltmp1489:
	popq	%r14
Ltmp1490:
	popq	%r15
	popq	%rbp
	jmp	___rust_dealloc
Ltmp1491:
LBB77_14:
	.loc	22 184 1
	popq	%rbx
	popq	%r12
	popq	%r14
Ltmp1492:
	popq	%r15
	popq	%rbp
	retq
LBB77_12:
Ltmp1493:
Ltmp1466:
	.loc	22 0 1 is_stmt 0
	movq	%rax, %r15
Ltmp1494:
	.loc	22 184 1
	testq	%rbx, %rbx
	je	LBB77_16
Ltmp1495:
	.loc	22 0 1
	addq	$32, %r12
Ltmp1496:
LBB77_10:
Ltmp1467:
	.loc	22 184 1
	movq	%r12, %rdi
	callq	__ZN4core3ptr13drop_in_place17hfaae6e7f22796641E
Ltmp1468:
Ltmp1497:
	addq	$32, %r12
	addq	$-32, %rbx
	jne	LBB77_10
Ltmp1498:
LBB77_16:
	.loc	22 184 1
	movq	(%r14), %rdi
	movq	8(%r14), %rsi
	callq	__ZN4core3ptr13drop_in_place17h7d29a4e074dc0cbeE
	movq	%r15, %rdi
	callq	__Unwind_Resume
	ud2
Ltmp1499:
LBB77_15:
Ltmp1469:
	.loc	22 0 1
	movq	%rax, %r15
	jmp	LBB77_16
Lfunc_end77:
	.cfi_endproc
	.section	__TEXT,__gcc_except_tab
	.p2align	2
GCC_except_table77:
Lexception25:
	.byte	255
	.byte	255
	.byte	1
	.uleb128 Lcst_end25-Lcst_begin25
Lcst_begin25:
	.uleb128 Ltmp1464-Lfunc_begin77
	.uleb128 Ltmp1465-Ltmp1464
	.uleb128 Ltmp1466-Lfunc_begin77
	.byte	0
	.uleb128 Ltmp1467-Lfunc_begin77
	.uleb128 Ltmp1468-Ltmp1467
	.uleb128 Ltmp1469-Lfunc_begin77
	.byte	0
	.uleb128 Ltmp1468-Lfunc_begin77
	.uleb128 Lfunc_end77-Ltmp1468
	.byte	0
	.byte	0
Lcst_end25:
	.p2align	2

	.section	__TEXT,__text,regular,pure_instructions
	.p2align	4, 0x90
__ZN4core3ptr13drop_in_place17hd8296b10ba36ff59E:
Lfunc_begin78:
	.loc	22 184 0 is_stmt 1
	.cfi_startproc
	.cfi_personality 155, _rust_eh_personality
	.cfi_lsda 16, Lexception26
	pushq	%rbp
	.cfi_def_cfa_offset 16
	.cfi_offset %rbp, -16
	movq	%rsp, %rbp
	.cfi_def_cfa_register %rbp
	pushq	%r15
	pushq	%r14
	pushq	%r12
	pushq	%rbx
	.cfi_offset %rbx, -48
	.cfi_offset %r12, -40
	.cfi_offset %r14, -32
	.cfi_offset %r15, -24
	movq	%rdi, %r14
Ltmp1506:
	.loc	21 854 19 prologue_end
	movq	(%rdi), %r12
Ltmp1507:
	.loc	21 2421 81
	movq	16(%rdi), %rbx
Ltmp1508:
	.loc	22 184 1
	testq	%rbx, %rbx
	je	LBB78_6
Ltmp1509:
	.loc	31 1350 9
	shlq	$4, %rbx
Ltmp1510:
	addq	$-16, %rbx
	jmp	LBB78_2
Ltmp1511:
	.p2align	4, 0x90
LBB78_4:
	.loc	22 184 1
	addq	$16, %r12
	addq	$-16, %rbx
	cmpq	$-16, %rbx
	je	LBB78_5
Ltmp1512:
LBB78_2:
	.loc	31 1350 12
	movq	(%r12), %rax
Ltmp1513:
	.loc	6 2403 24
	lock		decq	(%rax)
Ltmp1514:
	.loc	31 1350 9
	jne	LBB78_4
Ltmp1515:
	.loc	6 2675 24
	##MEMBARRIER
Ltmp1516:
Ltmp1500:
	.loc	31 1385 13
	movq	%r12, %rdi
	callq	__ZN5alloc4sync12Arc$LT$T$GT$9drop_slow17h69ebf5f48b901a1fE
Ltmp1501:
	jmp	LBB78_4
Ltmp1517:
LBB78_5:
	.loc	22 184 1
	movq	(%r14), %r12
Ltmp1518:
LBB78_6:
	movq	8(%r14), %rsi
Ltmp1519:
	.loc	10 235 40
	testq	%rsi, %rsi
	.loc	10 235 9 is_stmt 0
	je	LBB78_14
Ltmp1520:
	.loc	10 507 16 is_stmt 1
	testq	%r12, %r12
Ltmp1521:
	je	LBB78_14
Ltmp1522:
	.loc	10 0 0 is_stmt 0
	shlq	$4, %rsi
Ltmp1523:
	.loc	10 507 16
	je	LBB78_14
Ltmp1524:
	.loc	11 102 14 is_stmt 1
	movl	$8, %edx
	movq	%r12, %rdi
	popq	%rbx
	popq	%r12
Ltmp1525:
	popq	%r14
Ltmp1526:
	popq	%r15
	popq	%rbp
	jmp	___rust_dealloc
Ltmp1527:
LBB78_14:
	.loc	22 184 1
	popq	%rbx
	popq	%r12
	popq	%r14
Ltmp1528:
	popq	%r15
	popq	%rbp
	retq
LBB78_12:
Ltmp1529:
Ltmp1502:
	.loc	22 0 1 is_stmt 0
	movq	%rax, %r15
Ltmp1530:
	.loc	22 184 1
	testq	%rbx, %rbx
	je	LBB78_16
Ltmp1531:
	.loc	22 0 1
	addq	$16, %r12
Ltmp1532:
LBB78_10:
Ltmp1503:
	.loc	22 184 1
	movq	%r12, %rdi
	callq	__ZN4core3ptr13drop_in_place17haecf5d3ac75bcbc5E
Ltmp1504:
Ltmp1533:
	addq	$16, %r12
	addq	$-16, %rbx
	jne	LBB78_10
Ltmp1534:
LBB78_16:
	.loc	22 184 1
	movq	(%r14), %rdi
	movq	8(%r14), %rsi
	callq	__ZN4core3ptr13drop_in_place17h68833e48b60cbe38E
	movq	%r15, %rdi
	callq	__Unwind_Resume
	ud2
Ltmp1535:
LBB78_15:
Ltmp1505:
	.loc	22 0 1
	movq	%rax, %r15
	jmp	LBB78_16
Lfunc_end78:
	.cfi_endproc
	.section	__TEXT,__gcc_except_tab
	.p2align	2
GCC_except_table78:
Lexception26:
	.byte	255
	.byte	255
	.byte	1
	.uleb128 Lcst_end26-Lcst_begin26
Lcst_begin26:
	.uleb128 Ltmp1500-Lfunc_begin78
	.uleb128 Ltmp1501-Ltmp1500
	.uleb128 Ltmp1502-Lfunc_begin78
	.byte	0
	.uleb128 Ltmp1503-Lfunc_begin78
	.uleb128 Ltmp1504-Ltmp1503
	.uleb128 Ltmp1505-Lfunc_begin78
	.byte	0
	.uleb128 Ltmp1504-Lfunc_begin78
	.uleb128 Lfunc_end78-Ltmp1504
	.byte	0
	.byte	0
Lcst_end26:
	.p2align	2

	.section	__TEXT,__text,regular,pure_instructions
	.p2align	4, 0x90
__ZN4core3ptr13drop_in_place17hdbbd88e8231cd1b6E:
Lfunc_begin79:
	.loc	22 184 0 is_stmt 1
	.cfi_startproc
	.cfi_personality 155, _rust_eh_personality
	.cfi_lsda 16, Lexception27
	pushq	%rbp
	.cfi_def_cfa_offset 16
	.cfi_offset %rbp, -16
	movq	%rsp, %rbp
	.cfi_def_cfa_register %rbp
	pushq	%r15
	pushq	%r14
	pushq	%rbx
	pushq	%rax
	.cfi_offset %rbx, -40
	.cfi_offset %r14, -32
	.cfi_offset %r15, -24
	movq	%rdi, %rbx
Ltmp1542:
	.loc	54 427 18 prologue_end
	movq	(%rdi), %rdi
Ltmp1543:
	.loc	52 78 17
	callq	_pthread_mutex_destroy
Ltmp1544:
	.loc	22 184 1
	movq	(%rbx), %rdi
Ltmp1545:
	.loc	11 102 14
	movl	$64, %esi
	movl	$8, %edx
	callq	___rust_dealloc
Ltmp1546:
	.loc	22 184 1
	leaq	16(%rbx), %r15
Ltmp1536:
Ltmp1547:
	.loc	22 184 1 is_stmt 0
	movq	%r15, %rdi
	callq	__ZN69_$LT$std..sync..condvar..Condvar$u20$as$u20$core..ops..drop..Drop$GT$4drop17h997a5cc5da4d80f8E
Ltmp1537:
Ltmp1548:
	.loc	22 184 1
	movq	16(%rbx), %rdi
Ltmp1549:
	.loc	11 102 14 is_stmt 1
	movl	$48, %esi
	movl	$8, %edx
	callq	___rust_dealloc
Ltmp1550:
	.loc	54 427 18
	movq	32(%rbx), %rdi
Ltmp1551:
	.loc	52 78 17
	callq	_pthread_mutex_destroy
Ltmp1552:
	.loc	22 184 1
	movq	32(%rbx), %rdi
Ltmp1553:
	.loc	11 102 14
	movl	$64, %esi
	movl	$8, %edx
	callq	___rust_dealloc
Ltmp1554:
	.loc	22 184 1
	leaq	48(%rbx), %r15
Ltmp1555:
Ltmp1539:
	.loc	22 184 1 is_stmt 0
	movq	%r15, %rdi
	callq	__ZN69_$LT$std..sync..condvar..Condvar$u20$as$u20$core..ops..drop..Drop$GT$4drop17h997a5cc5da4d80f8E
Ltmp1540:
Ltmp1556:
	.loc	22 184 1
	movq	48(%rbx), %rdi
Ltmp1557:
	.loc	11 102 14 is_stmt 1
	movl	$48, %esi
	movl	$8, %edx
	callq	___rust_dealloc
Ltmp1558:
	.loc	31 1350 12
	movq	64(%rbx), %rax
Ltmp1559:
	.loc	6 2403 24
	lock		decq	(%rax)
Ltmp1560:
	.loc	31 1350 9
	jne	LBB79_3
Ltmp1561:
	.loc	22 0 0 is_stmt 0
	addq	$64, %rbx
Ltmp1562:
	.loc	6 2675 24 is_stmt 1
	##MEMBARRIER
Ltmp1563:
	.loc	31 1385 13
	movq	%rbx, %rdi
	addq	$8, %rsp
	popq	%rbx
Ltmp1564:
	popq	%r14
	popq	%r15
	popq	%rbp
	jmp	__ZN5alloc4sync12Arc$LT$T$GT$9drop_slow17h69ebf5f48b901a1fE
Ltmp1565:
LBB79_3:
	.loc	22 184 1
	addq	$8, %rsp
	popq	%rbx
Ltmp1566:
	popq	%r14
	popq	%r15
	popq	%rbp
	retq
LBB79_6:
Ltmp1567:
Ltmp1541:
	.loc	22 0 1 is_stmt 0
	movq	%rax, %r14
Ltmp1568:
	.loc	22 184 1
	movq	%r15, %rdi
	callq	__ZN4core3ptr13drop_in_place17hc91a6e7c93004a80E
	jmp	LBB79_5
Ltmp1569:
LBB79_4:
Ltmp1538:
	.loc	22 0 1
	movq	%rax, %r14
Ltmp1570:
	.loc	22 184 1
	movq	%r15, %rdi
	callq	__ZN4core3ptr13drop_in_place17hc91a6e7c93004a80E
Ltmp1571:
	.loc	22 184 1
	leaq	32(%rbx), %rdi
	callq	__ZN4core3ptr13drop_in_place17h2d1a7f3192af5f06E
Ltmp1572:
LBB79_5:
	addq	$64, %rbx
Ltmp1573:
	movq	%rbx, %rdi
	callq	__ZN4core3ptr13drop_in_place17haecf5d3ac75bcbc5E
	movq	%r14, %rdi
	callq	__Unwind_Resume
	ud2
Ltmp1574:
Lfunc_end79:
	.cfi_endproc
	.section	__TEXT,__gcc_except_tab
	.p2align	2
GCC_except_table79:
Lexception27:
	.byte	255
	.byte	255
	.byte	1
	.uleb128 Lcst_end27-Lcst_begin27
Lcst_begin27:
	.uleb128 Ltmp1536-Lfunc_begin79
	.uleb128 Ltmp1537-Ltmp1536
	.uleb128 Ltmp1538-Lfunc_begin79
	.byte	0
	.uleb128 Ltmp1539-Lfunc_begin79
	.uleb128 Ltmp1540-Ltmp1539
	.uleb128 Ltmp1541-Lfunc_begin79
	.byte	0
	.uleb128 Ltmp1540-Lfunc_begin79
	.uleb128 Lfunc_end79-Ltmp1540
	.byte	0
	.byte	0
Lcst_end27:
	.p2align	2

	.section	__TEXT,__text,regular,pure_instructions
	.p2align	4, 0x90
__ZN4core3ptr13drop_in_place17hdf72b5351b4dfc04E:
Lfunc_begin80:
	.loc	22 184 0 is_stmt 1
	.cfi_startproc
	pushq	%rbp
	.cfi_def_cfa_offset 16
	.cfi_offset %rbp, -16
	movq	%rsp, %rbp
	.cfi_def_cfa_register %rbp
Ltmp1575:
	.loc	15 422 39 prologue_end
	movq	(%rdi), %rdi
Ltmp1576:
	.loc	15 422 16 is_stmt 0
	testq	%rdi, %rdi
	je	LBB80_6
Ltmp1577:
	.loc	18 507 27 is_stmt 1
	movq	2080(%rdi), %rax
Ltmp1578:
	.loc	18 508 30
	subq	$1, %rax
Ltmp1579:
	jb	LBB80_5
Ltmp1580:
	.loc	13 2130 14
	movq	%rax, 2080(%rdi)
Ltmp1581:
	.loc	18 510 9
	jne	LBB80_6
Ltmp1582:
	.loc	6 2341 24
	movq	$0, 8(%rdi)
Ltmp1583:
	.loc	18 513 16
	cmpq	$0, 2088(%rdi)
	.loc	18 513 13 is_stmt 0
	je	LBB80_4
Ltmp1584:
LBB80_6:
	.loc	22 184 1 is_stmt 1
	popq	%rbp
	retq
LBB80_4:
Ltmp1585:
	.loc	18 514 17
	popq	%rbp
	jmp	__ZN15crossbeam_epoch8internal5Local8finalize17h52a48f6fa778720fE
Ltmp1586:
LBB80_5:
	.loc	18 508 30
	leaq	_str.0(%rip), %rdi
Ltmp1587:
	leaq	l___unnamed_35(%rip), %rdx
	movl	$33, %esi
	callq	__ZN4core9panicking5panic17h383a6b80ea7021aaE
Ltmp1588:
Lfunc_end80:
	.cfi_endproc

	.p2align	4, 0x90
__ZN4core3ptr13drop_in_place17he58d3aed029c091dE:
Lfunc_begin81:
	.loc	22 184 0
	.cfi_startproc
	pushq	%rbp
	.cfi_def_cfa_offset 16
	.cfi_offset %rbp, -16
	movq	%rsp, %rbp
	.cfi_def_cfa_register %rbp
Ltmp1589:
	pushq	%r15
	pushq	%r14
	pushq	%rbx
	pushq	%rax
	.cfi_offset %rbx, -40
	.cfi_offset %r14, -32
	.cfi_offset %r15, -24
	.loc	6 2356 24 prologue_end
	movq	(%rdi), %rbx
Ltmp1590:
	.loc	6 2356 24 is_stmt 0
	movq	128(%rdi), %r14
Ltmp1591:
	.loc	6 2356 24
	movq	8(%rdi), %rdi
Ltmp1592:
	.loc	33 449 9 is_stmt 1
	andq	$-2, %rbx
Ltmp1593:
	.loc	33 450 9
	andq	$-2, %r14
Ltmp1594:
	.loc	33 454 19
	cmpq	%r14, %rbx
	.loc	33 454 13 is_stmt 0
	jne	LBB81_3
Ltmp1595:
LBB81_1:
	.loc	12 29 9 is_stmt 1
	testq	%rdi, %rdi
Ltmp1596:
	.loc	33 473 13
	je	LBB81_6
Ltmp1597:
	.loc	11 102 14
	movl	$752, %esi
	movl	$8, %edx
	addq	$8, %rsp
	popq	%rbx
Ltmp1598:
	popq	%r14
Ltmp1599:
	popq	%r15
	popq	%rbp
	jmp	___rust_dealloc
Ltmp1600:
	.p2align	4, 0x90
LBB81_5:
	.loc	7 3439 17
	addq	$2, %rbx
Ltmp1601:
	.loc	33 454 19
	cmpq	%rbx, %r14
	.loc	33 454 13 is_stmt 0
	je	LBB81_1
Ltmp1602:
LBB81_3:
	.loc	33 455 30 is_stmt 1
	movl	%ebx, %eax
	andl	$62, %eax
Ltmp1603:
	.loc	33 457 20
	cmpl	$62, %eax
	.loc	33 457 17 is_stmt 0
	jne	LBB81_5
Ltmp1604:
	.loc	6 2356 24 is_stmt 1
	movq	(%rdi), %r15
Ltmp1605:
	.loc	11 102 14
	movl	$752, %esi
	movl	$8, %edx
	callq	___rust_dealloc
Ltmp1606:
	.loc	33 0 0 is_stmt 0
	movq	%r15, %rdi
Ltmp1607:
	jmp	LBB81_5
Ltmp1608:
LBB81_6:
	.loc	22 184 1 is_stmt 1
	addq	$8, %rsp
	popq	%rbx
	popq	%r14
	popq	%r15
	popq	%rbp
	retq
Ltmp1609:
Lfunc_end81:
	.cfi_endproc

	.p2align	4, 0x90
__ZN4core3ptr13drop_in_place17he6e437461ec94a9fE:
Lfunc_begin82:
	.loc	22 184 0
	.cfi_startproc
	.cfi_personality 155, _rust_eh_personality
	.cfi_lsda 16, Lexception28
	pushq	%rbp
	.cfi_def_cfa_offset 16
	.cfi_offset %rbp, -16
	movq	%rsp, %rbp
	.cfi_def_cfa_register %rbp
Ltmp1616:
	pushq	%r15
	pushq	%r14
	pushq	%rbx
	pushq	%rax
	.cfi_offset %rbx, -40
	.cfi_offset %r14, -32
	.cfi_offset %r15, -24
	.loc	21 2755 21 prologue_end
	movq	%rdi, -32(%rbp)
Ltmp1617:
	.loc	21 2639 39
	movq	16(%rdi), %rbx
	.loc	21 2639 59 is_stmt 0
	movq	24(%rdi), %r15
Ltmp1618:
	.loc	38 300 18 is_stmt 1
	subq	%rbx, %r15
Ltmp1619:
	.loc	22 184 1
	je	LBB82_6
Ltmp1620:
	.loc	21 0 0 is_stmt 0
	sarq	$4, %r15
Ltmp1621:
	.loc	31 1350 9 is_stmt 1
	shlq	$4, %r15
Ltmp1622:
	addq	$-16, %r15
	jmp	LBB82_2
Ltmp1623:
	.p2align	4, 0x90
LBB82_4:
	.loc	22 184 1
	addq	$16, %rbx
	addq	$-16, %r15
	cmpq	$-16, %r15
	je	LBB82_5
LBB82_2:
Ltmp1624:
	.loc	31 1350 12
	movq	(%rbx), %rax
Ltmp1625:
	.loc	6 2403 24
	lock		decq	(%rax)
Ltmp1626:
	.loc	31 1350 9
	jne	LBB82_4
Ltmp1627:
	.loc	6 2675 24
	##MEMBARRIER
Ltmp1628:
Ltmp1610:
	.loc	31 1385 13
	movq	%rbx, %rdi
	callq	__ZN5alloc4sync12Arc$LT$T$GT$9drop_slow17h69ebf5f48b901a1fE
Ltmp1611:
	jmp	LBB82_4
Ltmp1629:
LBB82_5:
	.loc	21 2751 57
	movq	-32(%rbp), %rdi
LBB82_6:
Ltmp1630:
	.loc	21 2751 78 is_stmt 0
	movq	8(%rdi), %rsi
Ltmp1631:
	.loc	10 235 40 is_stmt 1
	testq	%rsi, %rsi
	.loc	10 235 9 is_stmt 0
	je	LBB82_9
Ltmp1632:
	.loc	10 242 28 is_stmt 1
	shlq	$4, %rsi
Ltmp1633:
	.loc	10 507 16
	je	LBB82_9
Ltmp1634:
	.loc	21 0 0 is_stmt 0
	movq	(%rdi), %rdi
Ltmp1635:
	.loc	11 102 14 is_stmt 1
	movl	$8, %edx
	callq	___rust_dealloc
Ltmp1636:
LBB82_9:
	.loc	22 184 1
	addq	$8, %rsp
	popq	%rbx
	popq	%r14
	popq	%r15
	popq	%rbp
	retq
LBB82_12:
Ltmp1612:
	.loc	22 0 1 is_stmt 0
	movq	%rax, %r14
Ltmp1637:
	.loc	22 184 1
	testq	%r15, %r15
	je	LBB82_15
	.loc	22 0 1
	addq	$16, %rbx
LBB82_10:
Ltmp1613:
	.loc	22 184 1
	movq	%rbx, %rdi
	callq	__ZN4core3ptr13drop_in_place17haecf5d3ac75bcbc5E
Ltmp1614:
	addq	$16, %rbx
	addq	$-16, %r15
	jne	LBB82_10
Ltmp1638:
LBB82_15:
	.loc	22 0 1
	leaq	-32(%rbp), %rdi
	.loc	21 2761 5 is_stmt 1
	callq	__ZN4core3ptr13drop_in_place17h4869c7e17a3790edE
	movq	%r14, %rdi
	callq	__Unwind_Resume
	ud2
Ltmp1639:
LBB82_14:
Ltmp1615:
	.loc	21 0 5 is_stmt 0
	movq	%rax, %r14
	jmp	LBB82_15
Lfunc_end82:
	.cfi_endproc
	.section	__TEXT,__gcc_except_tab
	.p2align	2
GCC_except_table82:
Lexception28:
	.byte	255
	.byte	255
	.byte	1
	.uleb128 Lcst_end28-Lcst_begin28
Lcst_begin28:
	.uleb128 Ltmp1610-Lfunc_begin82
	.uleb128 Ltmp1611-Ltmp1610
	.uleb128 Ltmp1612-Lfunc_begin82
	.byte	0
	.uleb128 Ltmp1613-Lfunc_begin82
	.uleb128 Ltmp1614-Ltmp1613
	.uleb128 Ltmp1615-Lfunc_begin82
	.byte	0
	.uleb128 Ltmp1614-Lfunc_begin82
	.uleb128 Lfunc_end82-Ltmp1614
	.byte	0
	.byte	0
Lcst_end28:
	.p2align	2

	.section	__TEXT,__text,regular,pure_instructions
	.p2align	4, 0x90
__ZN4core3ptr13drop_in_place17hf6583ee252da05f7E:
Lfunc_begin83:
	.loc	22 184 0 is_stmt 1
	.cfi_startproc
	.cfi_personality 155, _rust_eh_personality
	.cfi_lsda 16, Lexception29
	pushq	%rbp
	.cfi_def_cfa_offset 16
	.cfi_offset %rbp, -16
	movq	%rsp, %rbp
	.cfi_def_cfa_register %rbp
	pushq	%r14
	pushq	%rbx
	.cfi_offset %rbx, -32
	.cfi_offset %r14, -24
	movq	%rdi, %rbx
Ltmp1651:
	.loc	31 1350 12 prologue_end
	movq	(%rdi), %rax
Ltmp1652:
	.loc	6 2403 24
	lock		decq	(%rax)
Ltmp1653:
	.loc	31 1350 9
	jne	LBB83_2
Ltmp1654:
	.loc	6 2675 24
	##MEMBARRIER
Ltmp1655:
Ltmp1640:
	.loc	31 1385 13
	movq	%rbx, %rdi
	callq	__ZN5alloc4sync12Arc$LT$T$GT$9drop_slow17h7b30aa001b588ac6E
Ltmp1641:
Ltmp1656:
LBB83_2:
	.loc	22 184 1
	movq	8(%rbx), %rdi
	testq	%rdi, %rdi
	je	LBB83_5
Ltmp1657:
	.loc	22 184 1 is_stmt 0
	movq	16(%rbx), %rsi
Ltmp1658:
	.loc	10 235 40 is_stmt 1
	testq	%rsi, %rsi
Ltmp1659:
	.loc	10 235 9 is_stmt 0
	je	LBB83_5
Ltmp1660:
	.loc	11 102 14 is_stmt 1
	movl	$1, %edx
	callq	___rust_dealloc
Ltmp1661:
LBB83_5:
	.loc	31 1350 12
	movq	48(%rbx), %rax
Ltmp1662:
	.loc	6 2403 24
	lock		decq	(%rax)
Ltmp1663:
	.loc	31 1350 9
	jne	LBB83_7
Ltmp1664:
	.loc	22 0 0 is_stmt 0
	leaq	48(%rbx), %rdi
Ltmp1665:
	.loc	6 2675 24 is_stmt 1
	##MEMBARRIER
Ltmp1666:
Ltmp1643:
	.loc	31 1385 13
	callq	__ZN5alloc4sync12Arc$LT$T$GT$9drop_slow17h69ebf5f48b901a1fE
Ltmp1667:
Ltmp1644:
LBB83_7:
	.loc	31 1350 12
	movq	80(%rbx), %rax
Ltmp1668:
	.loc	6 2403 24
	lock		decq	(%rax)
Ltmp1669:
	.loc	31 1350 9
	jne	LBB83_8
Ltmp1670:
	.loc	22 0 0 is_stmt 0
	leaq	80(%rbx), %rdi
Ltmp1671:
	.loc	6 2675 24 is_stmt 1
	##MEMBARRIER
Ltmp1672:
Ltmp1648:
	.loc	31 1385 13
	callq	__ZN5alloc4sync12Arc$LT$T$GT$9drop_slow17h650920f740fa8399E
Ltmp1673:
Ltmp1649:
LBB83_8:
	.loc	31 1350 12
	movq	96(%rbx), %rax
Ltmp1674:
	.loc	6 2403 24
	lock		decq	(%rax)
Ltmp1675:
	.loc	31 1350 9
	jne	LBB83_9
Ltmp1676:
	.loc	22 0 0 is_stmt 0
	addq	$96, %rbx
Ltmp1677:
	.loc	6 2675 24 is_stmt 1
	##MEMBARRIER
Ltmp1678:
	.loc	31 1385 13
	movq	%rbx, %rdi
	popq	%rbx
Ltmp1679:
	popq	%r14
	popq	%rbp
	jmp	__ZN5alloc4sync12Arc$LT$T$GT$9drop_slow17hbc9b89e8a2345aa8E
Ltmp1680:
LBB83_9:
	.loc	22 184 1
	popq	%rbx
Ltmp1681:
	popq	%r14
	popq	%rbp
	retq
LBB83_10:
Ltmp1682:
Ltmp1645:
	.loc	22 0 1 is_stmt 0
	movq	%rax, %r14
Ltmp1683:
	.loc	22 184 1
	leaq	80(%rbx), %rdi
Ltmp1646:
	callq	__ZN4core3ptr13drop_in_place17hf7dbf4faffdd2292E
Ltmp1647:
	jmp	LBB83_13
Ltmp1684:
LBB83_14:
Ltmp1650:
	.loc	22 0 1
	movq	%rax, %r14
	jmp	LBB83_13
Ltmp1685:
LBB83_12:
Ltmp1642:
	movq	%rax, %r14
	.loc	22 184 1
	leaq	8(%rbx), %rdi
	callq	__ZN4core3ptr13drop_in_place17h050f9ddedd6826a4E
Ltmp1686:
LBB83_13:
	addq	$96, %rbx
Ltmp1687:
	movq	%rbx, %rdi
	callq	__ZN4core3ptr13drop_in_place17h96c0f16f8fd8d833E
	movq	%r14, %rdi
	callq	__Unwind_Resume
	ud2
Ltmp1688:
Lfunc_end83:
	.cfi_endproc
	.section	__TEXT,__gcc_except_tab
	.p2align	2
GCC_except_table83:
Lexception29:
	.byte	255
	.byte	255
	.byte	1
	.uleb128 Lcst_end29-Lcst_begin29
Lcst_begin29:
	.uleb128 Ltmp1640-Lfunc_begin83
	.uleb128 Ltmp1641-Ltmp1640
	.uleb128 Ltmp1642-Lfunc_begin83
	.byte	0
	.uleb128 Ltmp1643-Lfunc_begin83
	.uleb128 Ltmp1644-Ltmp1643
	.uleb128 Ltmp1645-Lfunc_begin83
	.byte	0
	.uleb128 Ltmp1648-Lfunc_begin83
	.uleb128 Ltmp1649-Ltmp1648
	.uleb128 Ltmp1650-Lfunc_begin83
	.byte	0
	.uleb128 Ltmp1649-Lfunc_begin83
	.uleb128 Ltmp1646-Ltmp1649
	.byte	0
	.byte	0
	.uleb128 Ltmp1646-Lfunc_begin83
	.uleb128 Ltmp1647-Ltmp1646
	.uleb128 Ltmp1650-Lfunc_begin83
	.byte	0
	.uleb128 Ltmp1647-Lfunc_begin83
	.uleb128 Lfunc_end83-Ltmp1647
	.byte	0
	.byte	0
Lcst_end29:
	.p2align	2

	.section	__TEXT,__text,regular,pure_instructions
	.p2align	4, 0x90
__ZN4core3ptr13drop_in_place17hf67e6956b0c2bcaeE:
Lfunc_begin84:
	.loc	22 184 0 is_stmt 1
	.cfi_startproc
	pushq	%rbp
	.cfi_def_cfa_offset 16
	.cfi_offset %rbp, -16
	movq	%rsp, %rbp
	.cfi_def_cfa_register %rbp
	movq	%rdi, %rax
Ltmp1689:
	.loc	22 184 1 prologue_end
	movq	(%rdi), %rdi
Ltmp1690:
	.loc	10 507 16
	testq	%rdi, %rdi
Ltmp1691:
	.loc	10 235 9
	je	LBB84_2
Ltmp1692:
	.loc	22 0 0 is_stmt 0
	movq	8(%rax), %rsi
Ltmp1693:
	.loc	10 235 9
	testq	%rsi, %rsi
	je	LBB84_2
Ltmp1694:
	.loc	11 102 14 is_stmt 1
	movl	$1, %edx
	popq	%rbp
	jmp	___rust_dealloc
Ltmp1695:
LBB84_2:
	.loc	22 184 1
	popq	%rbp
	retq
Ltmp1696:
Lfunc_end84:
	.cfi_endproc

	.p2align	4, 0x90
__ZN4core3ptr13drop_in_place17hf7dbf4faffdd2292E:
Lfunc_begin85:
	.loc	22 184 0
	.cfi_startproc
	pushq	%rbp
	.cfi_def_cfa_offset 16
	.cfi_offset %rbp, -16
	movq	%rsp, %rbp
	.cfi_def_cfa_register %rbp
Ltmp1697:
	.loc	31 1350 12 prologue_end
	movq	(%rdi), %rax
Ltmp1698:
	.loc	6 2403 24
	lock		decq	(%rax)
Ltmp1699:
	.loc	31 1350 9
	jne	LBB85_1
Ltmp1700:
	.loc	6 2675 24
	##MEMBARRIER
Ltmp1701:
	.loc	31 1385 13
	popq	%rbp
	jmp	__ZN5alloc4sync12Arc$LT$T$GT$9drop_slow17h650920f740fa8399E
Ltmp1702:
LBB85_1:
	.loc	22 184 1
	popq	%rbp
	retq
Ltmp1703:
Lfunc_end85:
	.cfi_endproc

	.p2align	4, 0x90
__ZN4core3ptr13drop_in_place17hfaae6e7f22796641E:
Lfunc_begin86:
	.loc	22 184 0
	.cfi_startproc
	pushq	%rbp
	.cfi_def_cfa_offset 16
	.cfi_offset %rbp, -16
	movq	%rsp, %rbp
	.cfi_def_cfa_register %rbp
Ltmp1704:
	.loc	31 1350 12 prologue_end
	movq	(%rdi), %rax
Ltmp1705:
	.loc	6 2403 24
	lock		decq	(%rax)
Ltmp1706:
	.loc	31 1350 9
	jne	LBB86_1
Ltmp1707:
	.loc	6 2675 24
	##MEMBARRIER
Ltmp1708:
	.loc	31 1385 13
	popq	%rbp
	jmp	__ZN5alloc4sync12Arc$LT$T$GT$9drop_slow17h69ebf5f48b901a1fE
Ltmp1709:
LBB86_1:
	.loc	22 184 1
	popq	%rbp
	retq
Ltmp1710:
Lfunc_end86:
	.cfi_endproc

	.p2align	4, 0x90
__ZN4core4iter8adapters15filter_try_fold28_$u7b$$u7b$closure$u7d$$u7d$17hbe00ee95ec635623E:
Lfunc_begin87:
	.file	64 "/rustc/6c8927b0cf80ceee19386026cf9d7fd4fd9d486f/src/libcore/iter/adapters/mod.rs"
	.loc	64 983 0
	.cfi_startproc
	.cfi_personality 155, _rust_eh_personality
	.cfi_lsda 16, Lexception30
	pushq	%rbp
	.cfi_def_cfa_offset 16
	.cfi_offset %rbp, -16
	movq	%rsp, %rbp
	.cfi_def_cfa_register %rbp
Ltmp1714:
	pushq	%r15
	pushq	%r14
	pushq	%r13
	pushq	%r12
	pushq	%rbx
	subq	$120, %rsp
	.cfi_offset %rbx, -56
	.cfi_offset %r12, -48
	.cfi_offset %r13, -40
	.cfi_offset %r14, -32
	.cfi_offset %r15, -24
Ltmp1715:
	.loc	64 983 25 prologue_end
	movq	(%rdi), %rax
Ltmp1716:
	.loc	1 711 31
	movq	(%rax), %rax
	movq	(%rax), %rax
	.loc	1 711 26 is_stmt 0
	cmpq	%rsi, 288(%rax)
Ltmp1717:
	.loc	64 983 22 is_stmt 1
	jne	LBB87_2
Ltmp1718:
LBB87_1:
	.loc	64 0 22 is_stmt 0
	xorl	%r13d, %r13d
LBB87_34:
	.loc	64 983 86
	movq	%r12, %rax
	movq	%r13, %rdx
	addq	$120, %rsp
	popq	%rbx
	popq	%r12
	popq	%r13
	popq	%r14
	popq	%r15
	popq	%rbp
	retq
LBB87_2:
Ltmp1719:
	.loc	64 0 86
	movq	%rsi, %rcx
Ltmp1720:
	.file	65 "/rustc/6c8927b0cf80ceee19386026cf9d7fd4fd9d486f/src/libcore/iter/traits/iterator.rs"
	.loc	65 2238 32 is_stmt 1
	movq	8(%rdi), %rax
Ltmp1721:
	.loc	65 0 32 is_stmt 0
	movq	%rax, -64(%rbp)
Ltmp1722:
	.loc	1 713 31 is_stmt 1
	movq	(%rax), %rax
	movq	(%rax), %rax
	movq	304(%rax), %rax
Ltmp1723:
	.loc	21 1923 55
	movq	400(%rax), %rsi
Ltmp1724:
	.loc	40 3116 10
	cmpq	%rcx, %rsi
	jbe	LBB87_35
Ltmp1725:
	.loc	21 818 19
	movq	384(%rax), %rax
Ltmp1726:
	.loc	21 0 19 is_stmt 0
	movq	%rcx, -72(%rbp)
Ltmp1727:
	leaq	(%rcx,%rcx,4), %rcx
Ltmp1728:
	shlq	$4, %rcx
	leaq	64(%rax,%rcx), %r14
	movq	__ZN15crossbeam_epoch7default9COLLECTOR17he3b8b99f656df754E@GOTPCREL(%rip), %r15
	jmp	LBB87_4
Ltmp1729:
	.p2align	4, 0x90
LBB87_19:
	.loc	1 716 25 is_stmt 1
	testq	%rbx, %rbx
	je	LBB87_1
Ltmp1730:
LBB87_4:
	.loc	5 687 17
	movq	(%r14), %rax
Ltmp1731:
	.loc	6 2355 24
	movq	256(%rax), %rbx
Ltmp1732:
	.loc	27 262 32
	callq	__ZN15crossbeam_epoch7default6HANDLE7__getit17h993e4fd3ba54e1f2E
Ltmp1733:
	.loc	27 262 82 is_stmt 0
	testq	%rax, %rax
	je	LBB87_8
Ltmp1734:
	.loc	29 81 18 is_stmt 1
	movq	(%rax), %rax
Ltmp1735:
	movq	2080(%rax), %rcx
Ltmp1736:
	.loc	29 0 18 is_stmt 0
	jmp	LBB87_6
Ltmp1737:
	.p2align	4, 0x90
LBB87_8:
	.loc	26 44 32 is_stmt 1
	movq	%r15, %rdi
	callq	__ZN79_$LT$crossbeam_epoch..default..COLLECTOR$u20$as$u20$core..ops..deref..Deref$GT$5deref17hda80b3dd22b10c71E
	movq	%rax, %rdi
	callq	__ZN15crossbeam_epoch9collector9Collector8register17hceedc5c29d6e719fE
Ltmp1738:
	.loc	18 554 28
	movq	2088(%rax), %rdx
Ltmp1739:
	.loc	18 555 23
	testq	%rdx, %rdx
	.loc	8 184 59
	je	LBB87_36
Ltmp1740:
	.loc	26 0 0 is_stmt 0
	movq	2080(%rax), %rcx
Ltmp1741:
	.loc	18 556 31 is_stmt 1
	leaq	-1(%rdx), %rsi
Ltmp1742:
	.loc	13 2130 14
	movq	%rsi, 2088(%rax)
Ltmp1743:
	.loc	18 558 12
	testq	%rcx, %rcx
Ltmp1744:
	.loc	18 558 9 is_stmt 0
	jne	LBB87_6
Ltmp1745:
	cmpq	$1, %rdx
	je	LBB87_11
Ltmp1746:
	.p2align	4, 0x90
LBB87_6:
	.loc	26 0 0
	testq	%rcx, %rcx
Ltmp1747:
	.loc	5 694 9 is_stmt 1
	je	LBB87_12
Ltmp1748:
	.loc	6 2678 23
	mfence
Ltmp1749:
LBB87_12:
	.loc	5 698 22
	callq	__ZN15crossbeam_epoch7default3pin17hacc593d145951670E
	movq	%rax, -120(%rbp)
Ltmp1750:
	.loc	5 701 17
	movq	(%r14), %rax
Ltmp1751:
	.loc	6 2355 24
	movq	264(%rax), %rax
Ltmp1752:
	.loc	7 1333 17
	subq	%rbx, %rax
Ltmp1753:
	.loc	5 704 12
	testq	%rax, %rax
	.loc	5 704 9 is_stmt 0
	jle	LBB87_13
Ltmp1754:
	.loc	5 709 22 is_stmt 1
	movq	(%r14), %rax
Ltmp1755:
	.loc	6 2355 24
	movq	128(%rax), %rcx
Ltmp1756:
	.loc	17 113 15
	andq	$-8, %rcx
Ltmp1757:
	.loc	5 154 34
	movq	8(%rcx), %rax
Ltmp1758:
	.loc	5 154 33 is_stmt 0
	subq	$1, %rax
	jb	LBB87_21
Ltmp1759:
	.loc	5 154 9
	movq	(%rcx), %rcx
Ltmp1760:
	.loc	5 154 25
	andq	%rbx, %rax
Ltmp1761:
	.loc	12 165 18 is_stmt 1
	shlq	$4, %rax
Ltmp1762:
	.loc	22 1075 14
	movq	(%rcx,%rax), %r12
	movq	8(%rcx,%rax), %r13
Ltmp1763:
	.loc	5 713 12
	movq	(%r14), %rcx
Ltmp1764:
	.loc	7 1309 17
	leaq	1(%rbx), %rdx
Ltmp1765:
	.loc	6 2430 34
	movq	%rbx, %rax
	lock		cmpxchgq	%rdx, 256(%rcx)
	movl	$2, %ebx
Ltmp1766:
	.loc	5 713 9
	je	LBB87_24
Ltmp1767:
	.loc	15 422 39
	movq	-120(%rbp), %rdi
	.loc	15 422 16 is_stmt 0
	testq	%rdi, %rdi
	jne	LBB87_15
	jmp	LBB87_19
Ltmp1768:
	.p2align	4, 0x90
LBB87_13:
	.loc	5 0 0
	xorl	%ebx, %ebx
Ltmp1769:
	.loc	15 422 39
	movq	-120(%rbp), %rdi
	.loc	15 422 16
	testq	%rdi, %rdi
	je	LBB87_19
Ltmp1770:
LBB87_15:
	.loc	18 507 27 is_stmt 1
	movq	2080(%rdi), %rax
Ltmp1771:
	.loc	18 508 30
	subq	$1, %rax
Ltmp1772:
	jb	LBB87_38
Ltmp1773:
	.loc	13 2130 14
	movq	%rax, 2080(%rdi)
Ltmp1774:
	.loc	18 510 9
	jne	LBB87_19
Ltmp1775:
	.loc	6 2341 24
	movq	$0, 8(%rdi)
Ltmp1776:
	.loc	18 513 16
	cmpq	$0, 2088(%rdi)
	.loc	18 513 13 is_stmt 0
	jne	LBB87_19
Ltmp1777:
	.loc	18 514 17 is_stmt 1
	callq	__ZN15crossbeam_epoch8internal5Local8finalize17h52a48f6fa778720fE
Ltmp1778:
	.loc	18 0 17 is_stmt 0
	jmp	LBB87_19
Ltmp1779:
LBB87_11:
	.loc	18 559 13 is_stmt 1
	movq	%rax, %rdi
	callq	__ZN15crossbeam_epoch8internal5Local8finalize17h52a48f6fa778720fE
Ltmp1780:
	.loc	18 0 13 is_stmt 0
	jmp	LBB87_12
Ltmp1781:
LBB87_24:
	.loc	15 422 39 is_stmt 1
	movq	-120(%rbp), %rdi
	.loc	15 422 16 is_stmt 0
	testq	%rdi, %rdi
	movq	-72(%rbp), %rbx
Ltmp1782:
	je	LBB87_29
Ltmp1783:
	.loc	18 507 27 is_stmt 1
	movq	2080(%rdi), %rax
Ltmp1784:
	.loc	18 508 30
	subq	$1, %rax
Ltmp1785:
	jb	LBB87_38
Ltmp1786:
	.loc	13 2130 14
	movq	%rax, 2080(%rdi)
Ltmp1787:
	.loc	18 510 9
	jne	LBB87_29
Ltmp1788:
	.loc	6 2341 24
	movq	$0, 8(%rdi)
Ltmp1789:
	.loc	18 513 16
	cmpq	$0, 2088(%rdi)
	.loc	18 513 13 is_stmt 0
	je	LBB87_28
Ltmp1790:
LBB87_29:
	.loc	18 0 13
	leaq	__ZN68_$LT$rayon_core..log..LOG_ENV$u20$as$u20$core..ops..deref..Deref$GT$5deref11__stability4LAZY17h40d790f15c325f8cE(%rip), %rax
Ltmp1791:
	movq	%rax, -56(%rbp)
Ltmp1792:
	.loc	6 2355 24 is_stmt 1
	movq	__ZN68_$LT$rayon_core..log..LOG_ENV$u20$as$u20$core..ops..deref..Deref$GT$5deref11__stability4LAZY17h40d790f15c325f8cE(%rip), %rax
Ltmp1793:
	.loc	44 374 9
	cmpq	$3, %rax
Ltmp1794:
	.loc	44 260 9
	jne	LBB87_30
Ltmp1795:
	.loc	47 37 20
	movq	-56(%rbp), %rax
Ltmp1796:
	.loc	47 38 17
	movb	8(%rax), %al
Ltmp1797:
	cmpb	$2, %al
	je	LBB87_39
Ltmp1798:
LBB87_32:
	.loc	1 718 29
	testb	%al, %al
	je	LBB87_34
Ltmp1799:
	.loc	1 0 29 is_stmt 0
	movq	-64(%rbp), %rax
	.loc	1 719 41 is_stmt 1
	movq	(%rax), %rax
	movq	(%rax), %rax
	movq	288(%rax), %rax
	.loc	1 718 34
	movq	%rax, -144(%rbp)
	movq	%rbx, -136(%rbp)
	movq	$8, -152(%rbp)
	leaq	-152(%rbp), %rax
Ltmp1800:
	.loc	1 718 29 is_stmt 0
	movq	%rax, -56(%rbp)
	leaq	__ZN59_$LT$rayon_core..log..Event$u20$as$u20$core..fmt..Debug$GT$3fmt17h545aeb2b9b5bbd2aE(%rip), %rax
	movq	%rax, -48(%rbp)
Ltmp1801:
	.loc	20 328 9 is_stmt 1
	leaq	l___unnamed_57(%rip), %rax
Ltmp1802:
	movq	%rax, -120(%rbp)
	movq	$2, -112(%rbp)
	movq	$0, -104(%rbp)
	leaq	-56(%rbp), %rax
Ltmp1803:
	movq	%rax, -88(%rbp)
	movq	$1, -80(%rbp)
	leaq	-120(%rbp), %rdi
Ltmp1804:
	.loc	1 718 29
	callq	__ZN3std2io5stdio7_eprint17h190c99449314402aE
	jmp	LBB87_34
Ltmp1805:
LBB87_30:
	.loc	1 0 29 is_stmt 0
	leaq	-56(%rbp), %rax
Ltmp1806:
	.loc	44 264 21 is_stmt 1
	movq	%rax, -152(%rbp)
	leaq	-152(%rbp), %rax
Ltmp1807:
	.loc	44 265 37
	movq	%rax, -120(%rbp)
	.loc	44 265 9 is_stmt 0
	leaq	__ZN68_$LT$rayon_core..log..LOG_ENV$u20$as$u20$core..ops..deref..Deref$GT$5deref11__stability4LAZY17h40d790f15c325f8cE(%rip), %rdi
	leaq	l___unnamed_2(%rip), %rcx
	leaq	-120(%rbp), %rdx
	xorl	%esi, %esi
	callq	__ZN3std4sync4once4Once10call_inner17hfcd38045e50af9d3E
Ltmp1808:
	.loc	47 37 20 is_stmt 1
	movq	-56(%rbp), %rax
Ltmp1809:
	.loc	47 38 17
	movb	8(%rax), %al
Ltmp1810:
	cmpb	$2, %al
	jne	LBB87_32
Ltmp1811:
LBB87_39:
	.loc	8 10 9
	leaq	l___unnamed_58(%rip), %rdi
	leaq	l___unnamed_59(%rip), %rdx
	movl	$66, %esi
	callq	__ZN4core9panicking5panic17h383a6b80ea7021aaE
Ltmp1812:
LBB87_28:
	.loc	18 514 17
	callq	__ZN15crossbeam_epoch8internal5Local8finalize17h52a48f6fa778720fE
Ltmp1813:
	.loc	18 0 17 is_stmt 0
	jmp	LBB87_29
Ltmp1814:
LBB87_38:
	leaq	_str.0(%rip), %rdi
	leaq	l___unnamed_35(%rip), %rdx
	movl	$33, %esi
	callq	__ZN4core9panicking5panic17h383a6b80ea7021aaE
LBB87_21:
Ltmp1815:
Ltmp1711:
	.loc	5 154 33 is_stmt 1
	leaq	_str.0(%rip), %rdi
	leaq	l___unnamed_34(%rip), %rdx
	movl	$33, %esi
	callq	__ZN4core9panicking5panic17h383a6b80ea7021aaE
Ltmp1816:
Ltmp1712:
	ud2
Ltmp1817:
LBB87_36:
	.loc	19 13 23
	leaq	l___unnamed_38(%rip), %rdi
	leaq	l___unnamed_37(%rip), %rdx
Ltmp1818:
	movl	$35, %esi
	callq	__ZN3std9panicking11begin_panic17h6ef357f3fd72cd14E
Ltmp1819:
LBB87_35:
	.loc	40 3116 10
	leaq	l___unnamed_60(%rip), %rdx
	movq	%rcx, %rdi
Ltmp1820:
	callq	__ZN4core9panicking18panic_bounds_check17he87128426d100e93E
Ltmp1821:
LBB87_37:
Ltmp1713:
	.loc	40 0 10 is_stmt 0
	movq	%rax, %rbx
Ltmp1822:
	leaq	-120(%rbp), %rdi
Ltmp1823:
	.loc	5 726 5 is_stmt 1
	callq	__ZN4core3ptr13drop_in_place17hdf72b5351b4dfc04E
	movq	%rbx, %rdi
	callq	__Unwind_Resume
	ud2
Ltmp1824:
Lfunc_end87:
	.cfi_endproc
	.section	__TEXT,__gcc_except_tab
	.p2align	2
GCC_except_table87:
Lexception30:
	.byte	255
	.byte	255
	.byte	1
	.uleb128 Lcst_end30-Lcst_begin30
Lcst_begin30:
	.uleb128 Lfunc_begin87-Lfunc_begin87
	.uleb128 Ltmp1711-Lfunc_begin87
	.byte	0
	.byte	0
	.uleb128 Ltmp1711-Lfunc_begin87
	.uleb128 Ltmp1712-Ltmp1711
	.uleb128 Ltmp1713-Lfunc_begin87
	.byte	0
	.uleb128 Ltmp1712-Lfunc_begin87
	.uleb128 Lfunc_end87-Ltmp1712
	.byte	0
	.byte	0
Lcst_end30:
	.p2align	2

	.section	__TEXT,__text,regular,pure_instructions
	.p2align	4, 0x90
__ZN5alloc3vec12Vec$LT$T$GT$7reserve17ha7538cbfe30cea52E:
Lfunc_begin88:
	.loc	21 503 0
	.cfi_startproc
	pushq	%rbp
	.cfi_def_cfa_offset 16
	.cfi_offset %rbp, -16
	movq	%rsp, %rbp
	.cfi_def_cfa_register %rbp
	pushq	%r14
	pushq	%rbx
	.cfi_offset %rbx, -32
	.cfi_offset %r14, -24
	movq	%rsi, %rax
Ltmp1825:
	.loc	10 309 12 prologue_end
	movq	8(%rdi), %rsi
Ltmp1826:
	.loc	21 504 26
	movq	16(%rdi), %rcx
Ltmp1827:
	.loc	7 3462 17
	movq	%rsi, %rdx
	subq	%rcx, %rdx
Ltmp1828:
	.loc	10 373 9
	cmpq	%rax, %rdx
Ltmp1829:
	.loc	10 309 9
	jae	LBB88_17
Ltmp1830:
	.loc	7 3751 30
	addq	%rax, %rcx
Ltmp1831:
	.loc	30 538 13
	jb	LBB88_18
Ltmp1832:
	.loc	30 0 13 is_stmt 0
	movq	%rdi, %rbx
Ltmp1833:
	.loc	10 408 28 is_stmt 1
	leaq	(%rsi,%rsi), %rax
Ltmp1834:
	.loc	36 1016 9
	cmpq	%rcx, %rax
	.loc	36 0 0 is_stmt 0
	cmovaq	%rax, %rcx
Ltmp1835:
	cmpq	$4, %rcx
	movl	$4, %eax
Ltmp1836:
	cmovaq	%rcx, %rax
	movl	$32, %edx
Ltmp1837:
	.loc	9 286 85 is_stmt 1
	xorl	%ecx, %ecx
Ltmp1838:
	.loc	7 3807 26
	mulq	%rdx
Ltmp1839:
	movq	%rax, %r14
Ltmp1840:
	.loc	7 0 26 is_stmt 0
	seto	%dl
Ltmp1841:
	.loc	9 286 85 is_stmt 1
	setno	%dil
Ltmp1842:
	.loc	10 235 9
	movq	%rsi, %rax
	.loc	10 235 40 is_stmt 0
	testq	%rsi, %rsi
	.loc	10 235 9
	je	LBB88_4
Ltmp1843:
	.loc	10 0 9
	movq	(%rbx), %rax
Ltmp1844:
LBB88_4:
	.loc	28 611 13 is_stmt 1
	testb	%dl, %dl
	jne	LBB88_18
Ltmp1845:
	.loc	10 493 25
	testq	%rax, %rax
	je	LBB88_6
Ltmp1846:
	.loc	10 0 0 is_stmt 0
	shlq	$5, %rsi
Ltmp1847:
	.loc	11 205 12 is_stmt 1
	cmpq	%r14, %rsi
	.loc	11 205 9 is_stmt 0
	je	LBB88_15
Ltmp1848:
	.loc	11 211 42 is_stmt 1
	testq	%rsi, %rsi
	je	LBB88_11
Ltmp1849:
	.loc	11 124 14
	movl	$8, %edx
	movq	%rax, %rdi
	movq	%r14, %rcx
	callq	___rust_realloc
Ltmp1850:
	.loc	28 611 13
	testq	%rax, %rax
	jne	LBB88_16
	jmp	LBB88_19
Ltmp1851:
LBB88_6:
	.loc	10 0 0 is_stmt 0
	movb	%dil, %cl
	shlq	$3, %rcx
Ltmp1852:
	.loc	11 170 16 is_stmt 1
	testq	%r14, %r14
	.loc	11 170 13 is_stmt 0
	je	LBB88_7
Ltmp1853:
	.loc	11 80 14 is_stmt 1
	movq	%r14, %rdi
	movq	%rcx, %rsi
	callq	___rust_alloc
Ltmp1854:
	.loc	28 611 13
	testq	%rax, %rax
	jne	LBB88_16
	jmp	LBB88_19
Ltmp1855:
LBB88_7:
	.loc	10 0 0 is_stmt 0
	movq	%rcx, %rax
Ltmp1856:
LBB88_15:
	.loc	28 611 13
	testq	%rax, %rax
	je	LBB88_19
Ltmp1857:
LBB88_16:
	.loc	10 382 9 is_stmt 1
	movq	%rax, (%rbx)
Ltmp1858:
	.loc	10 378 9
	shrq	$5, %r14
Ltmp1859:
	.loc	10 383 9
	movq	%r14, 8(%rbx)
Ltmp1860:
LBB88_17:
	.loc	21 505 6
	popq	%rbx
	popq	%r14
	popq	%rbp
	retq
LBB88_11:
Ltmp1861:
	.loc	11 170 16
	testq	%r14, %r14
	.loc	11 170 13 is_stmt 0
	je	LBB88_12
Ltmp1862:
	.loc	11 80 14 is_stmt 1
	movl	$8, %esi
Ltmp1863:
	movq	%r14, %rdi
	callq	___rust_alloc
Ltmp1864:
	.loc	28 611 13
	testq	%rax, %rax
	jne	LBB88_16
Ltmp1865:
LBB88_19:
	.loc	10 302 47
	movl	$8, %esi
	movq	%r14, %rdi
	callq	__ZN5alloc5alloc18handle_alloc_error17h28974197717b8939E
Ltmp1866:
LBB88_12:
	.loc	10 0 47 is_stmt 0
	movl	$8, %eax
Ltmp1867:
	jmp	LBB88_16
Ltmp1868:
LBB88_18:
	.loc	10 301 38 is_stmt 1
	callq	__ZN5alloc7raw_vec17capacity_overflow17h7526b10e27579d59E
Ltmp1869:
Lfunc_end88:
	.cfi_endproc

	.p2align	4, 0x90
__ZN5alloc3vec12Vec$LT$T$GT$7reserve17hd343503f6ef7b3d0E:
Lfunc_begin89:
	.loc	21 503 0
	.cfi_startproc
	pushq	%rbp
	.cfi_def_cfa_offset 16
	.cfi_offset %rbp, -16
	movq	%rsp, %rbp
	.cfi_def_cfa_register %rbp
	pushq	%r14
	pushq	%rbx
	.cfi_offset %rbx, -32
	.cfi_offset %r14, -24
	movq	%rsi, %rax
Ltmp1870:
	.loc	10 309 12 prologue_end
	movq	8(%rdi), %rsi
Ltmp1871:
	.loc	21 504 26
	movq	16(%rdi), %rcx
Ltmp1872:
	.loc	7 3462 17
	movq	%rsi, %rdx
	subq	%rcx, %rdx
Ltmp1873:
	.loc	10 373 9
	cmpq	%rax, %rdx
Ltmp1874:
	.loc	10 309 9
	jae	LBB89_17
Ltmp1875:
	.loc	7 3751 30
	addq	%rax, %rcx
Ltmp1876:
	.loc	30 538 13
	jb	LBB89_18
Ltmp1877:
	.loc	30 0 13 is_stmt 0
	movq	%rdi, %rbx
Ltmp1878:
	.loc	10 408 28 is_stmt 1
	leaq	(%rsi,%rsi), %rax
Ltmp1879:
	.loc	36 1016 9
	cmpq	%rcx, %rax
	.loc	36 0 0 is_stmt 0
	cmovaq	%rax, %rcx
Ltmp1880:
	cmpq	$4, %rcx
	movl	$4, %eax
Ltmp1881:
	cmovaq	%rcx, %rax
	movl	$16, %edx
Ltmp1882:
	.loc	9 286 85 is_stmt 1
	xorl	%ecx, %ecx
Ltmp1883:
	.loc	7 3807 26
	mulq	%rdx
Ltmp1884:
	movq	%rax, %r14
Ltmp1885:
	.loc	7 0 26 is_stmt 0
	seto	%dl
Ltmp1886:
	.loc	9 286 85 is_stmt 1
	setno	%dil
Ltmp1887:
	.loc	10 235 9
	movq	%rsi, %rax
	.loc	10 235 40 is_stmt 0
	testq	%rsi, %rsi
	.loc	10 235 9
	je	LBB89_4
Ltmp1888:
	.loc	10 0 9
	movq	(%rbx), %rax
Ltmp1889:
LBB89_4:
	.loc	28 611 13 is_stmt 1
	testb	%dl, %dl
	jne	LBB89_18
Ltmp1890:
	.loc	10 493 25
	testq	%rax, %rax
	je	LBB89_6
Ltmp1891:
	.loc	10 0 0 is_stmt 0
	shlq	$4, %rsi
Ltmp1892:
	.loc	11 205 12 is_stmt 1
	cmpq	%r14, %rsi
	.loc	11 205 9 is_stmt 0
	je	LBB89_15
Ltmp1893:
	.loc	11 211 42 is_stmt 1
	testq	%rsi, %rsi
	je	LBB89_11
Ltmp1894:
	.loc	11 124 14
	movl	$8, %edx
	movq	%rax, %rdi
	movq	%r14, %rcx
	callq	___rust_realloc
Ltmp1895:
	.loc	28 611 13
	testq	%rax, %rax
	jne	LBB89_16
	jmp	LBB89_19
Ltmp1896:
LBB89_6:
	.loc	10 0 0 is_stmt 0
	movb	%dil, %cl
	shlq	$3, %rcx
Ltmp1897:
	.loc	11 170 16 is_stmt 1
	testq	%r14, %r14
	.loc	11 170 13 is_stmt 0
	je	LBB89_7
Ltmp1898:
	.loc	11 80 14 is_stmt 1
	movq	%r14, %rdi
	movq	%rcx, %rsi
	callq	___rust_alloc
Ltmp1899:
	.loc	28 611 13
	testq	%rax, %rax
	jne	LBB89_16
	jmp	LBB89_19
Ltmp1900:
LBB89_7:
	.loc	10 0 0 is_stmt 0
	movq	%rcx, %rax
Ltmp1901:
LBB89_15:
	.loc	28 611 13
	testq	%rax, %rax
	je	LBB89_19
Ltmp1902:
LBB89_16:
	.loc	10 382 9 is_stmt 1
	movq	%rax, (%rbx)
Ltmp1903:
	.loc	10 378 9
	shrq	$4, %r14
Ltmp1904:
	.loc	10 383 9
	movq	%r14, 8(%rbx)
Ltmp1905:
LBB89_17:
	.loc	21 505 6
	popq	%rbx
	popq	%r14
	popq	%rbp
	retq
LBB89_11:
Ltmp1906:
	.loc	11 170 16
	testq	%r14, %r14
	.loc	11 170 13 is_stmt 0
	je	LBB89_12
Ltmp1907:
	.loc	11 80 14 is_stmt 1
	movl	$8, %esi
Ltmp1908:
	movq	%r14, %rdi
	callq	___rust_alloc
Ltmp1909:
	.loc	28 611 13
	testq	%rax, %rax
	jne	LBB89_16
Ltmp1910:
LBB89_19:
	.loc	10 302 47
	movl	$8, %esi
	movq	%r14, %rdi
	callq	__ZN5alloc5alloc18handle_alloc_error17h28974197717b8939E
Ltmp1911:
LBB89_12:
	.loc	10 0 47 is_stmt 0
	movl	$8, %eax
Ltmp1912:
	jmp	LBB89_16
Ltmp1913:
LBB89_18:
	.loc	10 301 38 is_stmt 1
	callq	__ZN5alloc7raw_vec17capacity_overflow17h7526b10e27579d59E
Ltmp1914:
Lfunc_end89:
	.cfi_endproc

	.p2align	4, 0x90
__ZN5alloc4sync12Arc$LT$T$GT$9drop_slow17h650920f740fa8399E:
Lfunc_begin90:
	.loc	31 860 0
	.cfi_startproc
	.cfi_personality 155, _rust_eh_personality
	.cfi_lsda 16, Lexception31
	pushq	%rbp
	.cfi_def_cfa_offset 16
	.cfi_offset %rbp, -16
	movq	%rsp, %rbp
	.cfi_def_cfa_register %rbp
	pushq	%r15
	pushq	%r14
	pushq	%r13
	pushq	%r12
	pushq	%rbx
	pushq	%rax
	.cfi_offset %rbx, -56
	.cfi_offset %r12, -48
	.cfi_offset %r13, -40
	.cfi_offset %r14, -32
	.cfi_offset %r15, -24
	movq	%rdi, %r14
Ltmp1933:
	.loc	31 863 37 prologue_end
	movq	(%rdi), %r12
Ltmp1934:
	.loc	31 1284 18
	leaq	128(%r12), %r15
Ltmp1935:
	.loc	21 854 19
	movq	384(%r12), %r13
Ltmp1936:
	.loc	21 2421 81
	movq	400(%r12), %rax
Ltmp1937:
	.loc	22 184 1
	shlq	$4, %rax
Ltmp1938:
	leaq	(%rax,%rax,4), %rbx
Ltmp1939:
	.p2align	4, 0x90
LBB90_5:
	testq	%rbx, %rbx
	je	LBB90_6
Ltmp1940:
	addq	$-80, %rbx
Ltmp1915:
	movq	%r13, %rdi
	addq	$80, %r13
	callq	__ZN4core3ptr13drop_in_place17hdbbd88e8231cd1b6E
Ltmp1916:
	jmp	LBB90_5
Ltmp1941:
LBB90_6:
	.loc	22 184 1 is_stmt 0
	movq	392(%r12), %rax
Ltmp1942:
	.loc	10 235 40 is_stmt 1
	testq	%rax, %rax
	.loc	10 235 9 is_stmt 0
	je	LBB90_10
Ltmp1943:
	.loc	22 0 0
	movq	384(%r12), %rdi
Ltmp1944:
	.loc	10 507 16 is_stmt 1
	testq	%rdi, %rdi
Ltmp1945:
	je	LBB90_10
Ltmp1946:
	.loc	10 0 0 is_stmt 0
	shlq	$4, %rax
	leaq	(%rax,%rax,4), %rsi
Ltmp1947:
	.loc	10 507 16
	testq	%rsi, %rsi
	je	LBB90_10
Ltmp1948:
	.loc	11 102 14 is_stmt 1
	movl	$8, %edx
	callq	___rust_dealloc
Ltmp1949:
LBB90_10:
	.loc	54 427 18
	movq	416(%r12), %rdi
Ltmp1950:
	.loc	52 78 17
	callq	_pthread_mutex_destroy
Ltmp1951:
	.loc	22 184 1
	movq	416(%r12), %rdi
Ltmp1952:
	.loc	11 102 14
	movl	$64, %esi
	movl	$8, %edx
	callq	___rust_dealloc
Ltmp1953:
	.loc	22 184 1
	leaq	432(%r12), %rbx
Ltmp1921:
Ltmp1954:
	.loc	22 184 1 is_stmt 0
	movq	%rbx, %rdi
	callq	__ZN69_$LT$std..sync..condvar..Condvar$u20$as$u20$core..ops..drop..Drop$GT$4drop17h997a5cc5da4d80f8E
Ltmp1922:
Ltmp1955:
	.loc	22 184 1
	movq	432(%r12), %rdi
Ltmp1956:
	.loc	11 102 14 is_stmt 1
	movl	$48, %esi
	movl	$8, %edx
	callq	___rust_dealloc
Ltmp1957:
	.loc	6 2356 24
	movq	128(%r12), %rbx
Ltmp1958:
	.loc	6 2356 24 is_stmt 0
	movq	256(%r12), %r15
Ltmp1959:
	.loc	6 2356 24
	movq	136(%r12), %rdi
Ltmp1960:
	.loc	33 449 9 is_stmt 1
	andq	$-2, %rbx
Ltmp1961:
	.loc	33 450 9
	andq	$-2, %r15
Ltmp1962:
	.loc	33 454 19
	cmpq	%r15, %rbx
	.loc	33 454 13 is_stmt 0
	jne	LBB90_36
Ltmp1963:
LBB90_12:
	.loc	12 29 9 is_stmt 1
	testq	%rdi, %rdi
Ltmp1964:
	.loc	33 473 13
	je	LBB90_14
Ltmp1965:
	.loc	11 102 14
	movl	$752, %esi
	movl	$8, %edx
	callq	___rust_dealloc
Ltmp1966:
LBB90_14:
	.loc	22 184 1
	movq	448(%r12), %rdi
	testq	%rdi, %rdi
	je	LBB90_18
Ltmp1967:
	.loc	22 184 1 is_stmt 0
	movq	456(%r12), %rax
Ltmp1924:
	callq	*(%rax)
Ltmp1925:
Ltmp1968:
	movq	456(%r12), %rax
Ltmp1969:
	.loc	11 292 20 is_stmt 1
	movq	8(%rax), %rsi
Ltmp1970:
	.loc	11 185 12
	testq	%rsi, %rsi
	.loc	11 185 9 is_stmt 0
	je	LBB90_18
Ltmp1971:
	.loc	22 184 1 is_stmt 1
	movq	448(%r12), %rdi
Ltmp1972:
	.loc	11 293 21
	movq	16(%rax), %rdx
Ltmp1973:
	.loc	11 102 14
	callq	___rust_dealloc
Ltmp1974:
LBB90_18:
	.loc	22 184 1
	movq	464(%r12), %rdi
	testq	%rdi, %rdi
	je	LBB90_22
Ltmp1975:
	.loc	22 184 1 is_stmt 0
	movq	472(%r12), %rax
Ltmp1927:
	callq	*(%rax)
Ltmp1928:
Ltmp1976:
	movq	472(%r12), %rax
Ltmp1977:
	.loc	11 292 20 is_stmt 1
	movq	8(%rax), %rsi
Ltmp1978:
	.loc	11 185 12
	testq	%rsi, %rsi
	.loc	11 185 9 is_stmt 0
	je	LBB90_22
Ltmp1979:
	.loc	22 184 1 is_stmt 1
	movq	464(%r12), %rdi
Ltmp1980:
	.loc	11 293 21
	movq	16(%rax), %rdx
Ltmp1981:
	.loc	11 102 14
	callq	___rust_dealloc
Ltmp1982:
LBB90_22:
	.loc	22 184 1
	movq	480(%r12), %rdi
	testq	%rdi, %rdi
	je	LBB90_26
Ltmp1983:
	.loc	22 184 1 is_stmt 0
	movq	488(%r12), %rax
Ltmp1930:
	callq	*(%rax)
Ltmp1931:
Ltmp1984:
	movq	488(%r12), %rax
Ltmp1985:
	.loc	11 292 20 is_stmt 1
	movq	8(%rax), %rsi
Ltmp1986:
	.loc	11 185 12
	testq	%rsi, %rsi
	.loc	11 185 9 is_stmt 0
	je	LBB90_26
Ltmp1987:
	.loc	22 184 1 is_stmt 1
	movq	480(%r12), %rdi
Ltmp1988:
	.loc	11 293 21
	movq	16(%rax), %rdx
Ltmp1989:
	.loc	11 102 14
	callq	___rust_dealloc
Ltmp1990:
LBB90_26:
	.loc	31 866 26
	movq	(%r14), %rdi
Ltmp1991:
	.file	66 "/rustc/6c8927b0cf80ceee19386026cf9d7fd4fd9d486f/src/liballoc/rc.rs"
	.loc	66 1811 5
	cmpq	$-1, %rdi
Ltmp1992:
	.loc	31 1691 9
	je	LBB90_40
Ltmp1993:
	.loc	6 2403 24
	lock		decq	8(%rdi)
Ltmp1994:
	.loc	31 1846 9
	jne	LBB90_40
Ltmp1995:
	.loc	6 2675 24
	##MEMBARRIER
Ltmp1996:
	.loc	11 102 14
	movl	$512, %esi
	movl	$128, %edx
	addq	$8, %rsp
	popq	%rbx
	popq	%r12
	popq	%r13
	popq	%r14
Ltmp1997:
	popq	%r15
	popq	%rbp
	jmp	___rust_dealloc
Ltmp1998:
	.p2align	4, 0x90
LBB90_38:
	.loc	7 3439 17
	addq	$2, %rbx
Ltmp1999:
	.loc	33 454 19
	cmpq	%rbx, %r15
	.loc	33 454 13 is_stmt 0
	je	LBB90_12
Ltmp2000:
LBB90_36:
	.loc	33 455 30 is_stmt 1
	movl	%ebx, %eax
	andl	$62, %eax
Ltmp2001:
	.loc	33 457 20
	cmpl	$62, %eax
	.loc	33 457 17 is_stmt 0
	jne	LBB90_38
Ltmp2002:
	.loc	6 2356 24 is_stmt 1
	movq	(%rdi), %r13
Ltmp2003:
	.loc	11 102 14
	movl	$752, %esi
	movl	$8, %edx
	callq	___rust_dealloc
Ltmp2004:
	.loc	33 0 0 is_stmt 0
	movq	%r13, %rdi
Ltmp2005:
	jmp	LBB90_38
Ltmp2006:
LBB90_40:
	.loc	31 867 6 is_stmt 1
	addq	$8, %rsp
	popq	%rbx
	popq	%r12
	popq	%r13
	popq	%r14
Ltmp2007:
	popq	%r15
	popq	%rbp
	retq
LBB90_41:
Ltmp2008:
Ltmp1932:
	.loc	31 0 6 is_stmt 0
	movq	%rax, %r14
Ltmp2009:
	.loc	22 184 1 is_stmt 1
	movq	480(%r12), %rdi
	movq	488(%r12), %rsi
	callq	__ZN5alloc5alloc8box_free17h578dcf25edc19e78E
	jmp	LBB90_42
Ltmp2010:
LBB90_34:
Ltmp1929:
	.loc	22 0 1 is_stmt 0
	movq	%rax, %r14
Ltmp2011:
	.loc	22 184 1
	movq	464(%r12), %rdi
	movq	472(%r12), %rsi
	callq	__ZN5alloc5alloc8box_free17h578dcf25edc19e78E
	jmp	LBB90_33
Ltmp2012:
LBB90_35:
Ltmp1926:
	.loc	22 0 1
	movq	%rax, %r14
Ltmp2013:
	.loc	22 184 1
	movq	448(%r12), %rdi
	movq	456(%r12), %rsi
	callq	__ZN5alloc5alloc8box_free17h578dcf25edc19e78E
	jmp	LBB90_32
Ltmp2014:
LBB90_39:
Ltmp1923:
	.loc	22 0 1
	movq	%rax, %r14
Ltmp2015:
	.loc	22 184 1
	movq	%rbx, %rdi
	callq	__ZN4core3ptr13drop_in_place17hc91a6e7c93004a80E
	jmp	LBB90_31
Ltmp2016:
LBB90_1:
Ltmp1917:
	.loc	22 0 1
	movq	%rax, %r14
Ltmp2017:
	.loc	22 184 1
	testq	%rbx, %rbx
	je	LBB90_30
Ltmp2018:
LBB90_2:
Ltmp1918:
	movq	%r13, %rdi
	callq	__ZN4core3ptr13drop_in_place17hdbbd88e8231cd1b6E
Ltmp1919:
Ltmp2019:
	addq	$80, %r13
	addq	$-80, %rbx
	jne	LBB90_2
Ltmp2020:
LBB90_30:
	.loc	22 184 1
	movq	384(%r12), %rdi
	movq	392(%r12), %rsi
	callq	__ZN4core3ptr13drop_in_place17h9290fceed67bc93dE
Ltmp2021:
	.loc	22 184 1
	leaq	408(%r12), %rdi
	callq	__ZN4core3ptr13drop_in_place17h01e53f1db72aa9f3E
Ltmp2022:
LBB90_31:
	movq	%r15, %rdi
	callq	__ZN4core3ptr13drop_in_place17he58d3aed029c091dE
	leaq	448(%r12), %rdi
	callq	__ZN4core3ptr13drop_in_place17ha0cafbc5ff8cf66eE
Ltmp2023:
LBB90_32:
	leaq	464(%r12), %rdi
	callq	__ZN4core3ptr13drop_in_place17ha0cafbc5ff8cf66eE
LBB90_33:
	addq	$480, %r12
	movq	%r12, %rdi
	callq	__ZN4core3ptr13drop_in_place17ha0cafbc5ff8cf66eE
Ltmp2024:
LBB90_42:
	.loc	22 0 1
	movq	%r14, %rdi
	callq	__Unwind_Resume
	ud2
LBB90_29:
Ltmp2025:
Ltmp1920:
	movq	%rax, %r14
	jmp	LBB90_30
Lfunc_end90:
	.cfi_endproc
	.section	__TEXT,__gcc_except_tab
	.p2align	2
GCC_except_table90:
Lexception31:
	.byte	255
	.byte	255
	.byte	1
	.uleb128 Lcst_end31-Lcst_begin31
Lcst_begin31:
	.uleb128 Ltmp1915-Lfunc_begin90
	.uleb128 Ltmp1916-Ltmp1915
	.uleb128 Ltmp1917-Lfunc_begin90
	.byte	0
	.uleb128 Ltmp1921-Lfunc_begin90
	.uleb128 Ltmp1922-Ltmp1921
	.uleb128 Ltmp1923-Lfunc_begin90
	.byte	0
	.uleb128 Ltmp1924-Lfunc_begin90
	.uleb128 Ltmp1925-Ltmp1924
	.uleb128 Ltmp1926-Lfunc_begin90
	.byte	0
	.uleb128 Ltmp1927-Lfunc_begin90
	.uleb128 Ltmp1928-Ltmp1927
	.uleb128 Ltmp1929-Lfunc_begin90
	.byte	0
	.uleb128 Ltmp1930-Lfunc_begin90
	.uleb128 Ltmp1931-Ltmp1930
	.uleb128 Ltmp1932-Lfunc_begin90
	.byte	0
	.uleb128 Ltmp1918-Lfunc_begin90
	.uleb128 Ltmp1919-Ltmp1918
	.uleb128 Ltmp1920-Lfunc_begin90
	.byte	0
	.uleb128 Ltmp1919-Lfunc_begin90
	.uleb128 Lfunc_end90-Ltmp1919
	.byte	0
	.byte	0
Lcst_end31:
	.p2align	2

	.section	__TEXT,__text,regular,pure_instructions
	.p2align	4, 0x90
__ZN5alloc4sync12Arc$LT$T$GT$9drop_slow17h69ebf5f48b901a1fE:
Lfunc_begin91:
	.loc	31 860 0 is_stmt 1
	.cfi_startproc
	pushq	%rbp
	.cfi_def_cfa_offset 16
	.cfi_offset %rbp, -16
	movq	%rsp, %rbp
	.cfi_def_cfa_register %rbp
	pushq	%r14
	pushq	%rbx
	.cfi_offset %rbx, -32
	.cfi_offset %r14, -24
	movq	%rdi, %r14
Ltmp2026:
	.loc	31 863 37 prologue_end
	movq	(%rdi), %rax
Ltmp2027:
	.loc	6 2356 24
	movq	264(%rax), %rcx
Ltmp2028:
	.loc	6 2356 24 is_stmt 0
	movq	256(%rax), %rdx
Ltmp2029:
	.loc	6 2356 24
	movq	128(%rax), %rbx
Ltmp2030:
	.loc	5 224 19 is_stmt 1
	cmpq	%rcx, %rdx
	.loc	5 224 13 is_stmt 0
	je	LBB91_2
Ltmp2031:
	.loc	17 0 0
	movq	%rbx, %rax
Ltmp2032:
	andq	$-8, %rax
Ltmp2033:
	cmpq	$1, 8(%rax)
Ltmp2034:
	.loc	5 224 13
	jb	LBB91_10
Ltmp2035:
LBB91_2:
	.loc	17 1077 13 is_stmt 1
	cmpq	$7, %rbx
	.loc	8 184 59
	jbe	LBB91_9
Ltmp2036:
	.loc	17 113 15
	andq	$-8, %rbx
Ltmp2037:
	.loc	5 230 13
	movq	8(%rbx), %rsi
Ltmp2038:
	.loc	10 235 40
	testq	%rsi, %rsi
	.loc	10 235 9 is_stmt 0
	je	LBB91_6
Ltmp2039:
	.loc	10 242 28 is_stmt 1
	shlq	$4, %rsi
Ltmp2040:
	.loc	10 507 16
	je	LBB91_6
Ltmp2041:
	.loc	5 0 0 is_stmt 0
	movq	(%rbx), %rdi
Ltmp2042:
	.loc	11 102 14 is_stmt 1
	movl	$8, %edx
Ltmp2043:
	callq	___rust_dealloc
Ltmp2044:
LBB91_6:
	.loc	11 102 14 is_stmt 0
	movl	$16, %esi
	movl	$8, %edx
	movq	%rbx, %rdi
	callq	___rust_dealloc
Ltmp2045:
	.loc	31 866 26 is_stmt 1
	movq	(%r14), %rdi
Ltmp2046:
	.loc	66 1811 5
	cmpq	$-1, %rdi
Ltmp2047:
	.loc	31 1691 9
	je	LBB91_8
Ltmp2048:
	.loc	6 2403 24
	lock		decq	8(%rdi)
Ltmp2049:
	.loc	31 1846 9
	jne	LBB91_8
Ltmp2050:
	.loc	6 2675 24
	##MEMBARRIER
Ltmp2051:
	.loc	11 102 14
	movl	$384, %esi
	movl	$128, %edx
	popq	%rbx
	popq	%r14
Ltmp2052:
	popq	%rbp
	jmp	___rust_dealloc
Ltmp2053:
LBB91_8:
	.loc	31 867 6
	popq	%rbx
	popq	%r14
Ltmp2054:
	popq	%rbp
	retq
LBB91_9:
Ltmp2055:
	.loc	19 13 23
	leaq	l___unnamed_36(%rip), %rdi
	leaq	l___unnamed_37(%rip), %rdx
Ltmp2056:
	movl	$39, %esi
	callq	__ZN3std9panicking11begin_panic17h6ef357f3fd72cd14E
Ltmp2057:
LBB91_10:
	.loc	5 154 33
	leaq	_str.0(%rip), %rdi
	leaq	l___unnamed_34(%rip), %rdx
Ltmp2058:
	movl	$33, %esi
	callq	__ZN4core9panicking5panic17h383a6b80ea7021aaE
Ltmp2059:
Lfunc_end91:
	.cfi_endproc

	.p2align	4, 0x90
__ZN5alloc4sync12Arc$LT$T$GT$9drop_slow17h7b30aa001b588ac6E:
Lfunc_begin92:
	.loc	31 860 0
	.cfi_startproc
	.cfi_personality 155, _rust_eh_personality
	.cfi_lsda 16, Lexception32
	pushq	%rbp
	.cfi_def_cfa_offset 16
	.cfi_offset %rbp, -16
	movq	%rsp, %rbp
	.cfi_def_cfa_register %rbp
	pushq	%r14
	pushq	%rbx
	.cfi_offset %rbx, -32
	.cfi_offset %r14, -24
	movq	%rdi, %r14
Ltmp2063:
	.loc	31 863 37 prologue_end
	movq	(%rdi), %rbx
Ltmp2064:
	.loc	22 184 1
	movq	16(%rbx), %rax
	testq	%rax, %rax
	je	LBB92_3
Ltmp2065:
	.file	67 "/rustc/6c8927b0cf80ceee19386026cf9d7fd4fd9d486f/src/libstd/ffi/c_str.rs"
	.loc	67 814 13
	movb	$0, (%rax)
Ltmp2066:
	.loc	22 184 1
	movq	24(%rbx), %rsi
Ltmp2067:
	.loc	11 185 12
	testq	%rsi, %rsi
Ltmp2068:
	.loc	11 185 9 is_stmt 0
	je	LBB92_3
Ltmp2069:
	.loc	22 184 1 is_stmt 1
	movq	16(%rbx), %rdi
Ltmp2070:
	.loc	11 102 14
	movl	$1, %edx
	callq	___rust_dealloc
Ltmp2071:
LBB92_3:
	.loc	54 427 18
	movq	48(%rbx), %rdi
Ltmp2072:
	.loc	52 78 17
	callq	_pthread_mutex_destroy
Ltmp2073:
	.loc	22 184 1
	movq	48(%rbx), %rdi
Ltmp2074:
	.loc	11 102 14
	movl	$64, %esi
	movl	$8, %edx
	callq	___rust_dealloc
Ltmp2075:
	.loc	22 184 1
	addq	$64, %rbx
Ltmp2076:
Ltmp2060:
	.loc	22 184 1 is_stmt 0
	movq	%rbx, %rdi
	callq	__ZN69_$LT$std..sync..condvar..Condvar$u20$as$u20$core..ops..drop..Drop$GT$4drop17h997a5cc5da4d80f8E
Ltmp2061:
Ltmp2077:
	.loc	22 184 1
	movq	(%rbx), %rdi
Ltmp2078:
	.loc	11 102 14 is_stmt 1
	movl	$48, %esi
	movl	$8, %edx
	callq	___rust_dealloc
Ltmp2079:
	.loc	31 866 26
	movq	(%r14), %rdi
Ltmp2080:
	.loc	66 1811 5
	cmpq	$-1, %rdi
Ltmp2081:
	.loc	31 1691 9
	je	LBB92_6
Ltmp2082:
	.loc	6 2403 24
	lock		decq	8(%rdi)
Ltmp2083:
	.loc	31 1846 9
	jne	LBB92_6
Ltmp2084:
	.loc	6 2675 24
	##MEMBARRIER
Ltmp2085:
	.loc	11 102 14
	movl	$80, %esi
	movl	$8, %edx
	popq	%rbx
	popq	%r14
Ltmp2086:
	popq	%rbp
	jmp	___rust_dealloc
Ltmp2087:
LBB92_6:
	.loc	31 867 6
	popq	%rbx
	popq	%r14
Ltmp2088:
	popq	%rbp
	retq
LBB92_7:
Ltmp2089:
Ltmp2062:
	.loc	31 0 6 is_stmt 0
	movq	%rax, %r14
Ltmp2090:
	.loc	22 184 1 is_stmt 1
	movq	%rbx, %rdi
	callq	__ZN4core3ptr13drop_in_place17hc91a6e7c93004a80E
	movq	%r14, %rdi
	callq	__Unwind_Resume
	ud2
Ltmp2091:
Lfunc_end92:
	.cfi_endproc
	.section	__TEXT,__gcc_except_tab
	.p2align	2
GCC_except_table92:
Lexception32:
	.byte	255
	.byte	255
	.byte	1
	.uleb128 Lcst_end32-Lcst_begin32
Lcst_begin32:
	.uleb128 Ltmp2060-Lfunc_begin92
	.uleb128 Ltmp2061-Ltmp2060
	.uleb128 Ltmp2062-Lfunc_begin92
	.byte	0
	.uleb128 Ltmp2061-Lfunc_begin92
	.uleb128 Lfunc_end92-Ltmp2061
	.byte	0
	.byte	0
Lcst_end32:
	.p2align	2

	.section	__TEXT,__text,regular,pure_instructions
	.p2align	4, 0x90
__ZN5alloc4sync12Arc$LT$T$GT$9drop_slow17hbc9b89e8a2345aa8E:
Lfunc_begin93:
	.loc	31 860 0
	.cfi_startproc
	.cfi_personality 155, _rust_eh_personality
	.cfi_lsda 16, Lexception33
	pushq	%rbp
	.cfi_def_cfa_offset 16
	.cfi_offset %rbp, -16
	movq	%rsp, %rbp
	.cfi_def_cfa_register %rbp
Ltmp2095:
	pushq	%r14
	pushq	%rbx
	.cfi_offset %rbx, -32
	.cfi_offset %r14, -24
	.loc	31 863 37 prologue_end
	movq	(%rdi), %rbx
Ltmp2096:
	.loc	22 184 1
	cmpq	$0, 16(%rbx)
	je	LBB93_6
Ltmp2097:
	.loc	22 0 1 is_stmt 0
	movq	%rdi, %r14
Ltmp2098:
	.loc	22 184 1
	movq	24(%rbx), %rdi
	testq	%rdi, %rdi
	je	LBB93_5
Ltmp2099:
	.loc	22 184 1
	movq	32(%rbx), %rax
Ltmp2092:
	callq	*(%rax)
Ltmp2093:
Ltmp2100:
	movq	32(%rbx), %rax
Ltmp2101:
	.loc	11 292 20 is_stmt 1
	movq	8(%rax), %rsi
Ltmp2102:
	.loc	11 185 12
	testq	%rsi, %rsi
	.loc	11 185 9 is_stmt 0
	je	LBB93_5
Ltmp2103:
	.loc	22 184 1 is_stmt 1
	movq	24(%rbx), %rdi
Ltmp2104:
	.loc	11 293 21
	movq	16(%rax), %rdx
Ltmp2105:
	.loc	11 102 14
	callq	___rust_dealloc
Ltmp2106:
LBB93_5:
	.loc	31 866 26
	movq	(%r14), %rbx
Ltmp2107:
LBB93_6:
	.loc	66 1811 5
	cmpq	$-1, %rbx
Ltmp2108:
	.loc	31 1691 9
	je	LBB93_8
Ltmp2109:
	.loc	6 2403 24
	lock		decq	8(%rbx)
Ltmp2110:
	.loc	31 1846 9
	jne	LBB93_8
Ltmp2111:
	.loc	6 2675 24
	##MEMBARRIER
Ltmp2112:
	.loc	11 102 14
	movl	$40, %esi
	movl	$8, %edx
	movq	%rbx, %rdi
	popq	%rbx
Ltmp2113:
	popq	%r14
	popq	%rbp
	jmp	___rust_dealloc
Ltmp2114:
LBB93_8:
	.loc	31 867 6
	popq	%rbx
	popq	%r14
	popq	%rbp
	retq
LBB93_9:
Ltmp2115:
Ltmp2094:
	.loc	31 0 6 is_stmt 0
	movq	%rax, %r14
Ltmp2116:
	.loc	22 184 1 is_stmt 1
	movq	24(%rbx), %rdi
	movq	32(%rbx), %rsi
	callq	__ZN5alloc5alloc8box_free17h578dcf25edc19e78E
	movq	%r14, %rdi
	callq	__Unwind_Resume
	ud2
Ltmp2117:
Lfunc_end93:
	.cfi_endproc
	.section	__TEXT,__gcc_except_tab
	.p2align	2
GCC_except_table93:
Lexception33:
	.byte	255
	.byte	255
	.byte	1
	.uleb128 Lcst_end33-Lcst_begin33
Lcst_begin33:
	.uleb128 Ltmp2092-Lfunc_begin93
	.uleb128 Ltmp2093-Ltmp2092
	.uleb128 Ltmp2094-Lfunc_begin93
	.byte	0
	.uleb128 Ltmp2093-Lfunc_begin93
	.uleb128 Lfunc_end93-Ltmp2093
	.byte	0
	.byte	0
Lcst_end33:
	.p2align	2

	.section	__TEXT,__text,regular,pure_instructions
	.p2align	4, 0x90
__ZN5alloc5alloc8box_free17h147076841283e5dcE:
Lfunc_begin94:
	.loc	11 290 0
	.cfi_startproc
	pushq	%rbp
	.cfi_def_cfa_offset 16
	.cfi_offset %rbp, -16
	movq	%rsp, %rbp
	.cfi_def_cfa_register %rbp
Ltmp2118:
	.loc	11 102 14 prologue_end
	movl	$16, %esi
	movl	$8, %edx
	popq	%rbp
	jmp	___rust_dealloc
Ltmp2119:
Lfunc_end94:
	.cfi_endproc

	.p2align	4, 0x90
__ZN5alloc5alloc8box_free17h578dcf25edc19e78E:
Lfunc_begin95:
	.loc	11 290 0
	.cfi_startproc
	pushq	%rbp
	.cfi_def_cfa_offset 16
	.cfi_offset %rbp, -16
	movq	%rsp, %rbp
	.cfi_def_cfa_register %rbp
	movq	%rsi, %rax
Ltmp2120:
	.loc	11 292 20 prologue_end
	movq	8(%rsi), %rsi
Ltmp2121:
	.loc	11 185 12
	testq	%rsi, %rsi
	.loc	11 185 9 is_stmt 0
	je	LBB95_1
Ltmp2122:
	.loc	11 293 21 is_stmt 1
	movq	16(%rax), %rdx
Ltmp2123:
	.loc	11 102 14
	popq	%rbp
	jmp	___rust_dealloc
Ltmp2124:
LBB95_1:
	.loc	11 297 2
	popq	%rbp
	retq
Ltmp2125:
Lfunc_end95:
	.cfi_endproc

	.p2align	4, 0x90
__ZN5alloc5alloc8box_free17h8ed33c0480846688E:
Lfunc_begin96:
	.loc	11 290 0
	.cfi_startproc
	pushq	%rbp
	.cfi_def_cfa_offset 16
	.cfi_offset %rbp, -16
	movq	%rsp, %rbp
	.cfi_def_cfa_register %rbp
Ltmp2126:
	.loc	11 102 14 prologue_end
	movl	$64, %esi
	movl	$8, %edx
	popq	%rbp
	jmp	___rust_dealloc
Ltmp2127:
Lfunc_end96:
	.cfi_endproc

	.p2align	4, 0x90
__ZN5alloc5alloc8box_free17hf86e3cdc26dffa46E:
Lfunc_begin97:
	.loc	11 290 0
	.cfi_startproc
	pushq	%rbp
	.cfi_def_cfa_offset 16
	.cfi_offset %rbp, -16
	movq	%rsp, %rbp
	.cfi_def_cfa_register %rbp
Ltmp2128:
	.loc	11 102 14 prologue_end
	movl	$24, %esi
	movl	$8, %edx
	popq	%rbp
	jmp	___rust_dealloc
Ltmp2129:
Lfunc_end97:
	.cfi_endproc

	.p2align	4, 0x90
__ZN66_$LT$core..option..Option$LT$T$GT$$u20$as$u20$core..fmt..Debug$GT$3fmt17h30fb8afa481648bbE:
Lfunc_begin98:
	.loc	30 146 0
	.cfi_startproc
	pushq	%rbp
	.cfi_def_cfa_offset 16
	.cfi_offset %rbp, -16
	movq	%rsp, %rbp
	.cfi_def_cfa_register %rbp
Ltmp2130:
	pushq	%r14
	pushq	%rbx
	subq	$32, %rsp
	.cfi_offset %rbx, -32
	.cfi_offset %r14, -24
	.loc	30 146 48 prologue_end
	cmpl	$1, (%rdi)
	jne	LBB98_2
Ltmp2131:
	.loc	30 0 48 is_stmt 0
	movq	%rdi, %rbx
Ltmp2132:
	.loc	30 155 56 is_stmt 1
	addq	$8, %rbx
Ltmp2133:
	.loc	30 146 48
	leaq	L___unnamed_49(%rip), %rdx
	leaq	-48(%rbp), %r14
	movl	$4, %ecx
	movq	%r14, %rdi
	callq	__ZN4core3fmt9Formatter11debug_tuple17h6c448643801d07e8E
Ltmp2134:
	.loc	30 155 56
	movq	%rbx, -24(%rbp)
	.loc	30 146 48
	leaq	l___unnamed_11(%rip), %rdx
	leaq	-24(%rbp), %rsi
	movq	%r14, %rdi
	callq	__ZN4core3fmt8builders10DebugTuple5field17hc7b676d0e36b51d9E
	movq	%r14, %rdi
	jmp	LBB98_3
Ltmp2135:
LBB98_2:
	.loc	30 146 48 is_stmt 0
	leaq	L___unnamed_50(%rip), %rdx
	leaq	-48(%rbp), %rbx
	movl	$4, %ecx
	movq	%rbx, %rdi
Ltmp2136:
	callq	__ZN4core3fmt9Formatter11debug_tuple17h6c448643801d07e8E
Ltmp2137:
	.loc	30 146 48
	movq	%rbx, %rdi
Ltmp2138:
LBB98_3:
	.loc	30 0 0
	callq	__ZN4core3fmt8builders10DebugTuple6finish17h9f206806f7096c33E
	.loc	30 146 53
	addq	$32, %rsp
	popq	%rbx
	popq	%r14
	popq	%rbp
	retq
Ltmp2139:
Lfunc_end98:
	.cfi_endproc

	.p2align	4, 0x90
__ZN66_$LT$core..option..Option$LT$T$GT$$u20$as$u20$core..fmt..Debug$GT$3fmt17ha6e70265edcc27aeE:
Lfunc_begin99:
	.loc	30 146 0 is_stmt 1
	.cfi_startproc
	pushq	%rbp
	.cfi_def_cfa_offset 16
	.cfi_offset %rbp, -16
	movq	%rsp, %rbp
	.cfi_def_cfa_register %rbp
Ltmp2140:
	pushq	%r14
	pushq	%rbx
	subq	$32, %rsp
	.cfi_offset %rbx, -32
	.cfi_offset %r14, -24
	.loc	30 146 48 prologue_end
	cmpb	$1, (%rdi)
	jne	LBB99_2
Ltmp2141:
	.loc	30 0 48 is_stmt 0
	movq	%rdi, %rbx
Ltmp2142:
	.loc	30 155 56 is_stmt 1
	incq	%rbx
Ltmp2143:
	.loc	30 146 48
	leaq	L___unnamed_49(%rip), %rdx
	leaq	-48(%rbp), %r14
	movl	$4, %ecx
	movq	%r14, %rdi
	callq	__ZN4core3fmt9Formatter11debug_tuple17h6c448643801d07e8E
Ltmp2144:
	.loc	30 155 56
	movq	%rbx, -24(%rbp)
	.loc	30 146 48
	leaq	l___unnamed_12(%rip), %rdx
	leaq	-24(%rbp), %rsi
	movq	%r14, %rdi
	callq	__ZN4core3fmt8builders10DebugTuple5field17hc7b676d0e36b51d9E
	movq	%r14, %rdi
	jmp	LBB99_3
Ltmp2145:
LBB99_2:
	.loc	30 146 48 is_stmt 0
	leaq	L___unnamed_50(%rip), %rdx
	leaq	-48(%rbp), %rbx
	movl	$4, %ecx
	movq	%rbx, %rdi
Ltmp2146:
	callq	__ZN4core3fmt9Formatter11debug_tuple17h6c448643801d07e8E
Ltmp2147:
	.loc	30 146 48
	movq	%rbx, %rdi
Ltmp2148:
LBB99_3:
	.loc	30 0 0
	callq	__ZN4core3fmt8builders10DebugTuple6finish17h9f206806f7096c33E
	.loc	30 146 53
	addq	$32, %rsp
	popq	%rbx
	popq	%r14
	popq	%rbp
	retq
Ltmp2149:
Lfunc_end99:
	.cfi_endproc

	.p2align	4, 0x90
__ZN66_$LT$core..option..Option$LT$T$GT$$u20$as$u20$core..fmt..Debug$GT$3fmt17hfed651bda557b1f9E:
Lfunc_begin100:
	.loc	30 146 0 is_stmt 1
	.cfi_startproc
	pushq	%rbp
	.cfi_def_cfa_offset 16
	.cfi_offset %rbp, -16
	movq	%rsp, %rbp
	.cfi_def_cfa_register %rbp
Ltmp2150:
	pushq	%r14
	pushq	%rbx
	subq	$32, %rsp
	.cfi_offset %rbx, -32
	.cfi_offset %r14, -24
	.loc	30 146 48 prologue_end
	cmpq	$0, (%rdi)
	je	LBB100_2
Ltmp2151:
	.loc	30 0 48 is_stmt 0
	movq	%rdi, %rbx
Ltmp2152:
	.loc	30 146 48
	leaq	L___unnamed_49(%rip), %rdx
	leaq	-48(%rbp), %r14
	movl	$4, %ecx
	movq	%r14, %rdi
	callq	__ZN4core3fmt9Formatter11debug_tuple17h6c448643801d07e8E
Ltmp2153:
	.loc	30 155 56 is_stmt 1
	movq	%rbx, -24(%rbp)
	.loc	30 146 48
	leaq	l___unnamed_13(%rip), %rdx
	leaq	-24(%rbp), %rsi
	movq	%r14, %rdi
	callq	__ZN4core3fmt8builders10DebugTuple5field17hc7b676d0e36b51d9E
	movq	%r14, %rdi
	jmp	LBB100_3
Ltmp2154:
LBB100_2:
	.loc	30 146 48 is_stmt 0
	leaq	L___unnamed_50(%rip), %rdx
	leaq	-48(%rbp), %rbx
	movl	$4, %ecx
	movq	%rbx, %rdi
Ltmp2155:
	callq	__ZN4core3fmt9Formatter11debug_tuple17h6c448643801d07e8E
Ltmp2156:
	.loc	30 146 48
	movq	%rbx, %rdi
Ltmp2157:
LBB100_3:
	.loc	30 0 0
	callq	__ZN4core3fmt8builders10DebugTuple6finish17h9f206806f7096c33E
	.loc	30 146 53
	addq	$32, %rsp
	popq	%rbx
	popq	%r14
	popq	%rbp
	retq
Ltmp2158:
Lfunc_end100:
	.cfi_endproc

	.section	__TEXT,__literal16,16byte_literals
	.p2align	4
LCPI101_0:
	.quad	1
	.quad	18
	.section	__TEXT,__text,regular,pure_instructions
	.p2align	4, 0x90
__ZN75_$LT$core..sync..atomic..AtomicPtr$LT$T$GT$$u20$as$u20$core..fmt..Debug$GT$3fmt17h946e70dc88396719E:
Lfunc_begin101:
	.loc	6 2783 0 is_stmt 1
	.cfi_startproc
	pushq	%rbp
	.cfi_def_cfa_offset 16
	.cfi_offset %rbp, -16
	movq	%rsp, %rbp
	.cfi_def_cfa_register %rbp
	pushq	%r15
	pushq	%r14
	pushq	%rbx
	subq	$24, %rsp
	.cfi_offset %rbx, -40
	.cfi_offset %r14, -32
	.cfi_offset %r15, -24
	movq	%rsi, %rbx
Ltmp2159:
	.loc	6 2357 23 prologue_end
	movq	(%rdi), %r15
Ltmp2160:
	.loc	20 2116 25
	movups	(%rsi), %xmm0
	movaps	%xmm0, -48(%rbp)
Ltmp2161:
	.loc	20 2117 25
	movl	48(%rsi), %r14d
Ltmp2162:
	.loc	20 2123 12
	movq	%rsi, %rdi
Ltmp2163:
	callq	__ZN4core3fmt9Formatter9alternate17hd77eec28e879e5edE
	.loc	20 0 0 is_stmt 0
	movl	48(%rbx), %ecx
	.loc	20 2123 9
	testb	%al, %al
	je	LBB101_3
Ltmp2164:
	.loc	20 2124 13 is_stmt 1
	orl	$8, %ecx
	movl	%ecx, 48(%rbx)
Ltmp2165:
	.loc	30 185 25
	cmpq	$1, (%rbx)
Ltmp2166:
	.loc	20 2126 13
	je	LBB101_3
Ltmp2167:
	.loc	20 2127 17
	movaps	LCPI101_0(%rip), %xmm0
	movups	%xmm0, (%rbx)
Ltmp2168:
LBB101_3:
	.loc	20 2130 9
	orl	$4, %ecx
	movl	%ecx, 48(%rbx)
	.loc	20 2132 34
	movq	%r15, -32(%rbp)
	leaq	-32(%rbp), %rdi
	.loc	20 2132 19 is_stmt 0
	movq	%rbx, %rsi
	callq	__ZN4core3fmt3num55_$LT$impl$u20$core..fmt..LowerHex$u20$for$u20$usize$GT$3fmt17hc47c170655f2f8b1E
Ltmp2169:
	.loc	20 0 19
	movaps	-48(%rbp), %xmm0
Ltmp2170:
	.loc	20 2134 9 is_stmt 1
	movups	%xmm0, (%rbx)
	.loc	20 2135 9
	movl	%r14d, 48(%rbx)
Ltmp2171:
	.loc	6 2785 6
	addq	$24, %rsp
	popq	%rbx
Ltmp2172:
	popq	%r14
Ltmp2173:
	popq	%r15
	popq	%rbp
	retq
Ltmp2174:
Lfunc_end101:
	.cfi_endproc

	.p2align	4, 0x90
__ZN82_$LT$std..sys_common..poison..PoisonError$LT$T$GT$$u20$as$u20$core..fmt..Debug$GT$3fmt17h33bbe461dc3b81eeE:
Lfunc_begin102:
	.loc	60 137 0
	.cfi_startproc
	pushq	%rbp
	.cfi_def_cfa_offset 16
	.cfi_offset %rbp, -16
	movq	%rsp, %rbp
	.cfi_def_cfa_register %rbp
	movq	%rsi, %rdx
Ltmp2175:
	.loc	60 138 9 prologue_end
	leaq	l___unnamed_61(%rip), %rdi
Ltmp2176:
	movl	$25, %esi
	popq	%rbp
	jmp	__ZN40_$LT$str$u20$as$u20$core..fmt..Debug$GT$3fmt17h5b42b6f497bd434cE
Ltmp2177:
Lfunc_end102:
	.cfi_endproc

	.p2align	4, 0x90
__ZN91_$LT$std..panicking..begin_panic..PanicPayload$LT$A$GT$$u20$as$u20$core..panic..BoxMeUp$GT$3get17hc98499d6fcb7430dE:
Lfunc_begin103:
	.loc	55 482 0
	.cfi_startproc
	pushq	%rbp
	.cfi_def_cfa_offset 16
	.cfi_offset %rbp, -16
	movq	%rsp, %rbp
	.cfi_def_cfa_register %rbp
Ltmp2178:
	.loc	55 484 17 prologue_end
	cmpq	$0, (%rdi)
	je	LBB103_2
Ltmp2179:
	.loc	55 0 17 is_stmt 0
	movq	%rdi, %rax
Ltmp2180:
	.loc	55 487 10 is_stmt 1
	leaq	l___unnamed_14(%rip), %rdx
	popq	%rbp
	retq
Ltmp2181:
LBB103_2:
	.loc	55 485 25
	callq	__ZN3std7process5abort17hff53fa3bc108bcb5E
Ltmp2182:
Lfunc_end103:
	.cfi_endproc

	.p2align	4, 0x90
__ZN91_$LT$std..panicking..begin_panic..PanicPayload$LT$A$GT$$u20$as$u20$core..panic..BoxMeUp$GT$8take_box17h09740c6ed4cd92c1E:
Lfunc_begin104:
	.loc	55 469 0
	.cfi_startproc
	pushq	%rbp
	.cfi_def_cfa_offset 16
	.cfi_offset %rbp, -16
	movq	%rsp, %rbp
	.cfi_def_cfa_register %rbp
Ltmp2183:
	pushq	%r14
	pushq	%rbx
	.cfi_offset %rbx, -32
	.cfi_offset %r14, -24
	.loc	13 2130 14 prologue_end
	movq	(%rdi), %rbx
Ltmp2184:
	movq	8(%rdi), %r14
Ltmp2185:
	.loc	13 2130 14 is_stmt 0
	movq	$0, (%rdi)
Ltmp2186:
	.loc	55 476 17 is_stmt 1
	testq	%rbx, %rbx
	je	LBB104_3
Ltmp2187:
	.loc	11 80 14
	movl	$16, %edi
Ltmp2188:
	movl	$8, %esi
	callq	___rust_alloc
Ltmp2189:
	.loc	11 278 9
	testq	%rax, %rax
	je	LBB104_4
Ltmp2190:
	.loc	14 176 13
	movq	%rbx, (%rax)
	movq	%r14, 8(%rax)
Ltmp2191:
	.file	68 "/rustc/6c8927b0cf80ceee19386026cf9d7fd4fd9d486f/src/libcore/ptr/unique.rs"
	.loc	68 109 6
	leaq	l___unnamed_14(%rip), %rdx
Ltmp2192:
	.loc	55 480 10
	popq	%rbx
Ltmp2193:
	popq	%r14
Ltmp2194:
	popq	%rbp
	retq
Ltmp2195:
LBB104_3:
	.loc	55 477 25
	callq	__ZN3std7process5abort17hff53fa3bc108bcb5E
Ltmp2196:
LBB104_4:
	.loc	11 279 19
	movl	$16, %edi
	movl	$8, %esi
	callq	__ZN5alloc5alloc18handle_alloc_error17h28974197717b8939E
Ltmp2197:
Lfunc_end104:
	.cfi_endproc

	.globl	__ZN10rayon_core3job7JobFifo4push17hbd2eee646c9fc699E
	.p2align	4, 0x90
__ZN10rayon_core3job7JobFifo4push17hbd2eee646c9fc699E:
Lfunc_begin105:
	.file	69 "/Users/yingyuhang/.cargo/registry/src/github.com-1ecc6299db9ec823/rayon-core-1.7.1/src/job.rs"
	.loc	69 197 0
	.cfi_startproc
	pushq	%rbp
	.cfi_def_cfa_offset 16
	.cfi_offset %rbp, -16
	movq	%rsp, %rbp
	.cfi_def_cfa_register %rbp
	pushq	%rbx
	pushq	%rax
	.cfi_offset %rbx, -24
	movq	%rdi, %rbx
Ltmp2198:
	.loc	69 201 9 prologue_end
	callq	__ZN15crossbeam_queue9seg_queue17SegQueue$LT$T$GT$4push17h821de25432abde3dE
Ltmp2199:
	.loc	69 55 6
	leaq	__ZN65_$LT$rayon_core..job..JobFifo$u20$as$u20$rayon_core..job..Job$GT$7execute17h27e0273187ccbd39E(%rip), %rdx
Ltmp2200:
	.loc	69 203 6
	movq	%rbx, %rax
	addq	$8, %rsp
	popq	%rbx
Ltmp2201:
	popq	%rbp
	retq
Ltmp2202:
Lfunc_end105:
	.cfi_endproc

	.globl	__ZN65_$LT$rayon_core..job..JobFifo$u20$as$u20$rayon_core..job..Job$GT$7execute17h27e0273187ccbd39E
	.p2align	4, 0x90
__ZN65_$LT$rayon_core..job..JobFifo$u20$as$u20$rayon_core..job..Job$GT$7execute17h27e0273187ccbd39E:
Lfunc_begin106:
	.loc	69 207 0
	.cfi_startproc
	pushq	%rbp
	.cfi_def_cfa_offset 16
	.cfi_offset %rbp, -16
	movq	%rsp, %rbp
	.cfi_def_cfa_register %rbp
	subq	$16, %rsp
Ltmp2203:
	.loc	69 209 9 prologue_end
	callq	__ZN15crossbeam_queue9seg_queue17SegQueue$LT$T$GT$3pop17h5952bd859cbfd080E
Ltmp2204:
	.loc	28 962 13
	testq	%rdx, %rdx
Ltmp2205:
	je	LBB106_1
Ltmp2206:
	.loc	69 59 9
	movq	%rax, %rdi
	addq	$16, %rsp
	popq	%rbp
	jmpq	*%rdx
Ltmp2207:
LBB106_1:
	.loc	28 963 23
	leaq	l___unnamed_62(%rip), %rdi
	leaq	l___unnamed_7(%rip), %rcx
	leaq	l___unnamed_63(%rip), %r8
	leaq	-8(%rbp), %rdx
Ltmp2208:
	movl	$17, %esi
	callq	__ZN4core6result13unwrap_failed17hc193898ef513e81fE
Ltmp2209:
Lfunc_end106:
	.cfi_endproc

	.globl	__ZN10rayon_core4join23join_recover_from_panic17h5a90a9a9ab635b35E
	.p2align	4, 0x90
__ZN10rayon_core4join23join_recover_from_panic17h5a90a9a9ab635b35E:
Lfunc_begin107:
	.file	70 "/Users/yingyuhang/.cargo/registry/src/github.com-1ecc6299db9ec823/rayon-core-1.7.1/src/join/mod.rs"
	.loc	70 194 0
	.cfi_startproc
	.cfi_personality 155, _rust_eh_personality
	.cfi_lsda 16, Lexception34
	pushq	%rbp
	.cfi_def_cfa_offset 16
	.cfi_offset %rbp, -16
	movq	%rsp, %rbp
	.cfi_def_cfa_register %rbp
	pushq	%r14
	pushq	%rbx
	subq	$112, %rsp
	.cfi_offset %rbx, -32
	.cfi_offset %r14, -24
	movq	%rsi, %rbx
	movq	%rdi, %r14
	movq	%rdx, -48(%rbp)
	movq	%rcx, -40(%rbp)
Ltmp2219:
	leaq	__ZN68_$LT$rayon_core..log..LOG_ENV$u20$as$u20$core..ops..deref..Deref$GT$5deref11__stability4LAZY17h40d790f15c325f8cE(%rip), %rax
Ltmp2220:
	movq	%rax, -32(%rbp)
Ltmp2221:
	.loc	6 2355 24 prologue_end
	movq	__ZN68_$LT$rayon_core..log..LOG_ENV$u20$as$u20$core..ops..deref..Deref$GT$5deref11__stability4LAZY17h40d790f15c325f8cE(%rip), %rax
Ltmp2222:
	.loc	44 374 9
	cmpq	$3, %rax
Ltmp2223:
	.loc	44 260 9
	je	LBB107_2
Ltmp2224:
	.loc	44 0 9 is_stmt 0
	leaq	-32(%rbp), %rax
	.loc	44 264 21 is_stmt 1
	movq	%rax, -128(%rbp)
	leaq	-128(%rbp), %rax
Ltmp2225:
	.loc	44 265 37
	movq	%rax, -96(%rbp)
Ltmp2210:
	.loc	44 265 9 is_stmt 0
	leaq	__ZN68_$LT$rayon_core..log..LOG_ENV$u20$as$u20$core..ops..deref..Deref$GT$5deref11__stability4LAZY17h40d790f15c325f8cE(%rip), %rdi
	leaq	l___unnamed_2(%rip), %rcx
	leaq	-96(%rbp), %rdx
	xorl	%esi, %esi
	callq	__ZN3std4sync4once4Once10call_inner17hfcd38045e50af9d3E
Ltmp2211:
Ltmp2226:
LBB107_2:
	.loc	47 37 20 is_stmt 1
	movq	-32(%rbp), %rax
Ltmp2227:
	.loc	47 38 17
	movb	8(%rax), %al
Ltmp2228:
	cmpb	$2, %al
	jne	LBB107_5
Ltmp2229:
Ltmp2216:
	.loc	8 10 9
	leaq	l___unnamed_58(%rip), %rdi
	leaq	l___unnamed_59(%rip), %rdx
	movl	$66, %esi
	callq	__ZN4core9panicking5panic17h383a6b80ea7021aaE
Ltmp2217:
Ltmp2230:
	ud2
Ltmp2231:
LBB107_5:
	.loc	1 641 9
	testb	%al, %al
	je	LBB107_7
Ltmp2232:
	.loc	1 641 34 is_stmt 0
	movq	288(%r14), %rax
	.loc	1 641 14
	movq	%rax, -120(%rbp)
	movq	$10, -128(%rbp)
	leaq	-128(%rbp), %rax
Ltmp2233:
	.loc	1 641 9
	movq	%rax, -32(%rbp)
	leaq	__ZN59_$LT$rayon_core..log..Event$u20$as$u20$core..fmt..Debug$GT$3fmt17h545aeb2b9b5bbd2aE(%rip), %rax
	movq	%rax, -24(%rbp)
Ltmp2234:
	.loc	20 328 9 is_stmt 1
	leaq	l___unnamed_57(%rip), %rax
Ltmp2235:
	movq	%rax, -96(%rbp)
	movq	$2, -88(%rbp)
	movq	$0, -80(%rbp)
	leaq	-32(%rbp), %rax
Ltmp2236:
	movq	%rax, -64(%rbp)
	movq	$1, -56(%rbp)
Ltmp2212:
	leaq	-96(%rbp), %rdi
Ltmp2237:
	.loc	1 641 9
	callq	__ZN3std2io5stdio7_eprint17h190c99449314402aE
Ltmp2213:
Ltmp2238:
LBB107_7:
	.loc	6 2357 23
	movb	(%rbx), %al
Ltmp2239:
	.loc	6 410 18
	testb	%al, %al
Ltmp2240:
	.loc	1 642 9
	jne	LBB107_9
Ltmp2241:
Ltmp2214:
	.loc	1 643 13
	movq	%r14, %rdi
	movq	%rbx, %rsi
	callq	__ZN10rayon_core8registry12WorkerThread15wait_until_cold17ha683492d9a319a5aE
Ltmp2215:
Ltmp2242:
LBB107_9:
	.loc	70 200 30
	movq	-48(%rbp), %rdi
	movq	-40(%rbp), %rsi
	.loc	70 200 5 is_stmt 0
	callq	__ZN10rayon_core6unwind16resume_unwinding17h752db4b8b6790278E
Ltmp2243:
LBB107_10:
Ltmp2218:
	.loc	70 0 5
	movq	%rax, %rbx
Ltmp2244:
	leaq	-48(%rbp), %rdi
	.loc	70 201 1 is_stmt 1
	callq	__ZN4core3ptr13drop_in_place17h2910a9839b07439cE
	movq	%rbx, %rdi
	callq	__Unwind_Resume
	ud2
Ltmp2245:
Lfunc_end107:
	.cfi_endproc
	.section	__TEXT,__gcc_except_tab
	.p2align	2
GCC_except_table107:
Lexception34:
	.byte	255
	.byte	255
	.byte	1
	.uleb128 Lcst_end34-Lcst_begin34
Lcst_begin34:
	.uleb128 Ltmp2210-Lfunc_begin107
	.uleb128 Ltmp2215-Ltmp2210
	.uleb128 Ltmp2218-Lfunc_begin107
	.byte	0
	.uleb128 Ltmp2215-Lfunc_begin107
	.uleb128 Lfunc_end107-Ltmp2215
	.byte	0
	.byte	0
Lcst_end34:
	.p2align	2

	.section	__TEXT,__text,regular,pure_instructions
	.p2align	4, 0x90
__ZN10rayon_core5latch9LockLatch3new17he976511457741af0E:
Lfunc_begin108:
	.loc	62 81 0
	.cfi_startproc
	.cfi_personality 155, _rust_eh_personality
	.cfi_lsda 16, Lexception35
	pushq	%rbp
	.cfi_def_cfa_offset 16
	.cfi_offset %rbp, -16
	movq	%rsp, %rbp
	.cfi_def_cfa_register %rbp
	pushq	%r15
	pushq	%r14
	pushq	%rbx
	subq	$40, %rsp
	.cfi_offset %rbx, -40
	.cfi_offset %r14, -32
	.cfi_offset %r15, -24
	movq	%rdi, %r14
Ltmp2255:
	.loc	11 80 14 prologue_end
	movl	$64, %edi
	movl	$8, %esi
	callq	___rust_alloc
Ltmp2256:
	.loc	11 278 9
	testq	%rax, %rax
	je	LBB108_9
Ltmp2257:
	.loc	54 0 0 is_stmt 0
	movq	%rax, %rbx
Ltmp2246:
	.loc	54 223 24 is_stmt 1
	movq	%rax, %rdi
	callq	__ZN3std10sys_common5mutex5Mutex3new17hfec750c2ce1161a9E
Ltmp2247:
Ltmp2258:
	.loc	54 223 20 is_stmt 0
	movq	%rbx, -56(%rbp)
Ltmp2249:
	.loc	54 224 21 is_stmt 1
	callq	__ZN3std10sys_common6poison4Flag3new17hd7ec4e2336668a12E
Ltmp2250:
Ltmp2259:
	.loc	54 222 21
	movq	%rbx, -40(%rbp)
	movb	%al, -32(%rbp)
	movb	$0, -31(%rbp)
Ltmp2260:
	.loc	54 0 21 is_stmt 0
	leaq	-56(%rbp), %r15
Ltmp2261:
	.loc	52 52 17 is_stmt 1
	movq	%r15, %rdi
	callq	_pthread_mutexattr_init
Ltmp2262:
	.loc	52 54 17
	movq	%r15, %rdi
	xorl	%esi, %esi
	callq	_pthread_mutexattr_settype
Ltmp2263:
	.loc	52 56 17
	movq	%rbx, %rdi
	movq	%r15, %rsi
	callq	_pthread_mutex_init
Ltmp2264:
	.loc	52 58 17
	movq	%r15, %rdi
	callq	_pthread_mutexattr_destroy
Ltmp2252:
	leaq	-56(%rbp), %rdi
Ltmp2265:
	.loc	62 84 16
	callq	__ZN3std4sync7condvar7Condvar3new17h64fee8df7a382290E
Ltmp2253:
Ltmp2266:
	.loc	62 82 9
	movq	-40(%rbp), %rax
	movq	-32(%rbp), %rcx
	movq	%rcx, 8(%r14)
	movq	%rax, (%r14)
	movq	-56(%rbp), %rax
	movq	-48(%rbp), %rcx
	movq	%rax, 16(%r14)
	movq	%rcx, 24(%r14)
	.loc	62 86 6
	addq	$40, %rsp
	popq	%rbx
	popq	%r14
	popq	%r15
	popq	%rbp
	retq
LBB108_9:
Ltmp2267:
	.loc	11 279 19
	movl	$64, %edi
	movl	$8, %esi
	callq	__ZN5alloc5alloc18handle_alloc_error17h28974197717b8939E
Ltmp2268:
LBB108_7:
Ltmp2254:
	.loc	11 0 19 is_stmt 0
	movq	%rax, %r14
	leaq	-40(%rbp), %rdi
	.loc	62 85 9 is_stmt 1
	callq	__ZN4core3ptr13drop_in_place17h86c0aeb76276935aE
	jmp	LBB108_8
LBB108_6:
Ltmp2269:
Ltmp2251:
	.loc	62 0 9 is_stmt 0
	movq	%rax, %r14
	leaq	-56(%rbp), %rdi
Ltmp2270:
	.loc	54 226 9 is_stmt 1
	callq	__ZN4core3ptr13drop_in_place17h360d03619b73c8edE
	jmp	LBB108_8
Ltmp2271:
LBB108_5:
Ltmp2248:
	.loc	54 0 9 is_stmt 0
	movq	%rax, %r14
	.loc	54 223 40 is_stmt 1
	movq	%rbx, %rdi
	callq	__ZN5alloc5alloc8box_free17h8ed33c0480846688E
Ltmp2272:
LBB108_8:
	.loc	54 0 40 is_stmt 0
	movq	%r14, %rdi
	callq	__Unwind_Resume
	ud2
Lfunc_end108:
	.cfi_endproc
	.section	__TEXT,__gcc_except_tab
	.p2align	2
GCC_except_table108:
Lexception35:
	.byte	255
	.byte	255
	.byte	1
	.uleb128 Lcst_end35-Lcst_begin35
Lcst_begin35:
	.uleb128 Ltmp2246-Lfunc_begin108
	.uleb128 Ltmp2247-Ltmp2246
	.uleb128 Ltmp2248-Lfunc_begin108
	.byte	0
	.uleb128 Ltmp2249-Lfunc_begin108
	.uleb128 Ltmp2250-Ltmp2249
	.uleb128 Ltmp2251-Lfunc_begin108
	.byte	0
	.uleb128 Ltmp2252-Lfunc_begin108
	.uleb128 Ltmp2253-Ltmp2252
	.uleb128 Ltmp2254-Lfunc_begin108
	.byte	0
	.uleb128 Ltmp2253-Lfunc_begin108
	.uleb128 Lfunc_end108-Ltmp2253
	.byte	0
	.byte	0
Lcst_end35:
	.p2align	2

	.section	__TEXT,__text,regular,pure_instructions
	.globl	__ZN10rayon_core5latch9LockLatch14wait_and_reset17h910476eea77db371E
	.p2align	4, 0x90
__ZN10rayon_core5latch9LockLatch14wait_and_reset17h910476eea77db371E:
Lfunc_begin109:
	.loc	62 89 0 is_stmt 1
	.cfi_startproc
	.cfi_personality 155, _rust_eh_personality
	.cfi_lsda 16, Lexception36
	pushq	%rbp
	.cfi_def_cfa_offset 16
	.cfi_offset %rbp, -16
	movq	%rsp, %rbp
	.cfi_def_cfa_register %rbp
	pushq	%r15
	pushq	%r14
	pushq	%r13
	pushq	%r12
	pushq	%rbx
	subq	$24, %rsp
	.cfi_offset %rbx, -56
	.cfi_offset %r12, -48
	.cfi_offset %r13, -40
	.cfi_offset %r14, -32
	.cfi_offset %r15, -24
	movq	%rdi, %r12
Ltmp2284:
	.loc	54 273 13 prologue_end
	movq	(%rdi), %rdi
Ltmp2285:
	.loc	52 63 17
	callq	_pthread_mutex_lock
Ltmp2286:
	.loc	6 2356 24
	movq	__ZN3std9panicking11panic_count18GLOBAL_PANIC_COUNT17h5754c1d48a496461E@GOTPCREL(%rip), %rbx
Ltmp2287:
	movq	(%rbx), %rax
Ltmp2288:
	.loc	55 262 12
	testq	%rax, %rax
	.loc	55 262 9 is_stmt 0
	jne	LBB109_2
Ltmp2289:
	.loc	55 0 9
	xorl	%r14d, %r14d
Ltmp2290:
	.loc	6 2356 24 is_stmt 1
	movb	8(%r12), %al
Ltmp2291:
	.loc	6 410 18
	testb	%al, %al
Ltmp2292:
	.loc	28 1004 13
	jne	LBB109_4
Ltmp2293:
LBB109_8:
	.loc	54 483 20
	leaq	9(%r12), %rax
Ltmp2294:
	.loc	62 91 16
	cmpb	$0, 9(%r12)
	.loc	62 91 9 is_stmt 0
	je	LBB109_9
Ltmp2295:
	.loc	62 94 9 is_stmt 1
	movb	$0, (%rax)
Ltmp2296:
	.loc	60 34 13
	testb	%r14b, %r14b
	jne	LBB109_21
	jmp	LBB109_18
Ltmp2297:
LBB109_9:
	.loc	60 0 13 is_stmt 0
	movq	%rax, -64(%rbp)
Ltmp2298:
	leaq	16(%r12), %r15
Ltmp2299:
	.p2align	4, 0x90
LBB109_10:
	movq	%r12, -56(%rbp)
	movb	%r14b, -48(%rbp)
Ltmp2300:
	.loc	54 520 5 is_stmt 1
	movq	(%r12), %rbx
Ltmp2301:
Ltmp2276:
	.file	71 "/rustc/6c8927b0cf80ceee19386026cf9d7fd4fd9d486f/src/libstd/sync/condvar.rs"
	.loc	71 199 13
	movq	%r15, %rdi
	movq	%rbx, %rsi
	callq	__ZN3std4sync7condvar7Condvar6verify17h11b2eb6bc24cc9feE
Ltmp2277:
Ltmp2302:
	.loc	71 200 13
	movq	(%r15), %r13
Ltmp2303:
Ltmp2278:
	.file	72 "/rustc/6c8927b0cf80ceee19386026cf9d7fd4fd9d486f/src/libstd/sys_common/condvar.rs"
	.loc	72 50 21
	movq	%rbx, %rdi
	callq	__ZN3std10sys_common5mutex3raw17hd9071ed6f4cf0cb0E
Ltmp2279:
Ltmp2304:
	.file	73 "/rustc/6c8927b0cf80ceee19386026cf9d7fd4fd9d486f/src/libstd/sys/unix/condvar.rs"
	.loc	73 69 17
	movq	%r13, %rdi
	movq	%rax, %rsi
	callq	_pthread_cond_wait
Ltmp2305:
	.loc	6 2356 24
	movzbl	8(%r12), %eax
Ltmp2306:
	.loc	6 410 18
	testb	%al, %al
Ltmp2307:
	.loc	28 1004 13
	jne	LBB109_13
Ltmp2308:
	.loc	62 91 16
	cmpb	$0, 9(%r12)
	.loc	62 91 9 is_stmt 0
	je	LBB109_10
Ltmp2309:
	.loc	62 0 9
	movq	__ZN3std9panicking11panic_count18GLOBAL_PANIC_COUNT17h5754c1d48a496461E@GOTPCREL(%rip), %rbx
	movq	-64(%rbp), %rax
	.loc	62 94 9 is_stmt 1
	movb	$0, (%rax)
Ltmp2310:
	.loc	60 34 13
	testb	%r14b, %r14b
	.loc	60 34 12 is_stmt 0
	jne	LBB109_21
Ltmp2311:
LBB109_18:
	.loc	6 2356 24 is_stmt 1
	movq	(%rbx), %rax
Ltmp2312:
	.loc	55 262 12
	testq	%rax, %rax
	.loc	55 262 9 is_stmt 0
	jne	LBB109_19
Ltmp2313:
LBB109_21:
	.loc	54 500 13 is_stmt 1
	movq	(%r12), %rdi
Ltmp2314:
	.loc	52 68 17
	addq	$24, %rsp
	popq	%rbx
	popq	%r12
Ltmp2315:
	popq	%r13
	popq	%r14
	popq	%r15
	popq	%rbp
	jmp	_pthread_mutex_unlock
Ltmp2316:
LBB109_2:
	.loc	55 274 13
	callq	__ZN3std9panicking11panic_count17is_zero_slow_path17ha588394117c50e3dE
	movl	%eax, %r14d
	xorb	$1, %r14b
Ltmp2317:
	.loc	6 2356 24
	movb	8(%r12), %al
Ltmp2318:
	.loc	6 410 18
	testb	%al, %al
Ltmp2319:
	.loc	28 1004 13
	je	LBB109_8
Ltmp2320:
LBB109_4:
	.loc	28 1005 17
	movq	%r12, -56(%rbp)
	movb	%r14b, -48(%rbp)
Ltmp2273:
Ltmp2321:
	.loc	28 1005 23 is_stmt 0
	leaq	l___unnamed_64(%rip), %rdi
	leaq	l___unnamed_10(%rip), %rcx
	leaq	l___unnamed_65(%rip), %r8
	leaq	-56(%rbp), %rdx
	movl	$43, %esi
	callq	__ZN4core6result13unwrap_failed17hc193898ef513e81fE
Ltmp2274:
	jmp	LBB109_5
Ltmp2322:
LBB109_19:
	.loc	55 274 13 is_stmt 1
	callq	__ZN3std9panicking11panic_count17is_zero_slow_path17ha588394117c50e3dE
Ltmp2323:
	.loc	60 34 12
	testb	%al, %al
	jne	LBB109_21
Ltmp2324:
	.loc	6 2342 24
	movb	$1, 8(%r12)
	jmp	LBB109_21
Ltmp2325:
LBB109_13:
	.loc	28 1005 17
	movq	%r12, -56(%rbp)
	movb	%r14b, -48(%rbp)
Ltmp2281:
Ltmp2326:
	.loc	28 1005 23 is_stmt 0
	leaq	l___unnamed_64(%rip), %rdi
	leaq	l___unnamed_10(%rip), %rcx
	leaq	l___unnamed_66(%rip), %r8
	leaq	-56(%rbp), %rdx
	movl	$43, %esi
	callq	__ZN4core6result13unwrap_failed17hc193898ef513e81fE
Ltmp2282:
Ltmp2327:
LBB109_5:
	.loc	28 0 23
	ud2
Ltmp2328:
LBB109_6:
Ltmp2275:
	jmp	LBB109_7
Ltmp2329:
LBB109_14:
Ltmp2283:
LBB109_7:
	movq	%rax, %rbx
	leaq	-56(%rbp), %rdi
	callq	__ZN4core3ptr13drop_in_place17h6b8041406785e3b2E
	jmp	LBB109_23
Ltmp2330:
LBB109_22:
Ltmp2280:
	movq	%rax, %rbx
Ltmp2331:
	leaq	-56(%rbp), %rdi
Ltmp2332:
	.loc	71 204 5 is_stmt 1
	callq	__ZN4core3ptr13drop_in_place17h15ee6bb5875cdac0E
Ltmp2333:
LBB109_23:
	.loc	71 0 5 is_stmt 0
	movq	%rbx, %rdi
	callq	__Unwind_Resume
	ud2
Lfunc_end109:
	.cfi_endproc
	.section	__TEXT,__gcc_except_tab
	.p2align	2
GCC_except_table109:
Lexception36:
	.byte	255
	.byte	255
	.byte	1
	.uleb128 Lcst_end36-Lcst_begin36
Lcst_begin36:
	.uleb128 Ltmp2276-Lfunc_begin109
	.uleb128 Ltmp2279-Ltmp2276
	.uleb128 Ltmp2280-Lfunc_begin109
	.byte	0
	.uleb128 Ltmp2279-Lfunc_begin109
	.uleb128 Ltmp2273-Ltmp2279
	.byte	0
	.byte	0
	.uleb128 Ltmp2273-Lfunc_begin109
	.uleb128 Ltmp2274-Ltmp2273
	.uleb128 Ltmp2275-Lfunc_begin109
	.byte	0
	.uleb128 Ltmp2274-Lfunc_begin109
	.uleb128 Ltmp2281-Ltmp2274
	.byte	0
	.byte	0
	.uleb128 Ltmp2281-Lfunc_begin109
	.uleb128 Ltmp2282-Ltmp2281
	.uleb128 Ltmp2283-Lfunc_begin109
	.byte	0
	.uleb128 Ltmp2282-Lfunc_begin109
	.uleb128 Lfunc_end109-Ltmp2282
	.byte	0
	.byte	0
Lcst_end36:
	.p2align	2

	.section	__TEXT,__text,regular,pure_instructions
	.globl	__ZN10rayon_core8registry13ThreadBuilder5index17h08aa332834e48c9eE
	.p2align	4, 0x90
__ZN10rayon_core8registry13ThreadBuilder5index17h08aa332834e48c9eE:
Lfunc_begin110:
	.loc	1 39 0 is_stmt 1
	.cfi_startproc
	pushq	%rbp
	.cfi_def_cfa_offset 16
	.cfi_offset %rbp, -16
	movq	%rsp, %rbp
	.cfi_def_cfa_register %rbp
Ltmp2334:
	.loc	1 40 9 prologue_end
	movq	80(%rdi), %rax
	.loc	1 41 6
	popq	%rbp
	retq
Ltmp2335:
Lfunc_end110:
	.cfi_endproc

	.globl	__ZN10rayon_core8registry13ThreadBuilder4name17haa88065917e2d8ceE
	.p2align	4, 0x90
__ZN10rayon_core8registry13ThreadBuilder4name17haa88065917e2d8ceE:
Lfunc_begin111:
	.loc	1 44 0
	.cfi_startproc
	pushq	%rbp
	.cfi_def_cfa_offset 16
	.cfi_offset %rbp, -16
	movq	%rsp, %rbp
	.cfi_def_cfa_register %rbp
Ltmp2336:
	.loc	30 268 13 prologue_end
	movq	(%rdi), %rax
	testq	%rax, %rax
	cmoveq	%rax, %rdi
Ltmp2337:
	.loc	30 456 13
	je	LBB111_1
Ltmp2338:
	.loc	21 818 19
	movq	(%rdi), %rax
Ltmp2339:
	.loc	21 1923 55
	movq	16(%rdi), %rdx
Ltmp2340:
	.loc	1 46 6
	popq	%rbp
	retq
Ltmp2341:
LBB111_1:
	.loc	1 0 6 is_stmt 0
	xorl	%eax, %eax
	.loc	1 46 6
	popq	%rbp
	retq
Ltmp2342:
Lfunc_end111:
	.cfi_endproc

	.globl	__ZN10rayon_core8registry13ThreadBuilder10stack_size17hffd7b682625d1c6dE
	.p2align	4, 0x90
__ZN10rayon_core8registry13ThreadBuilder10stack_size17hffd7b682625d1c6dE:
Lfunc_begin112:
	.loc	1 49 0 is_stmt 1
	.cfi_startproc
	pushq	%rbp
	.cfi_def_cfa_offset 16
	.cfi_offset %rbp, -16
	movq	%rsp, %rbp
	.cfi_def_cfa_register %rbp
Ltmp2343:
	.loc	1 50 9 prologue_end
	movq	24(%rdi), %rax
	movq	32(%rdi), %rdx
	.loc	1 51 6
	popq	%rbp
	retq
Ltmp2344:
Lfunc_end112:
	.cfi_endproc

	.globl	__ZN10rayon_core8registry13ThreadBuilder3run17h4f2fa573e9e76cf7E
	.p2align	4, 0x90
__ZN10rayon_core8registry13ThreadBuilder3run17h4f2fa573e9e76cf7E:
Lfunc_begin113:
	.loc	1 55 0
	.cfi_startproc
	.cfi_personality 155, _rust_eh_personality
	.cfi_lsda 16, Lexception37
	pushq	%rbp
	.cfi_def_cfa_offset 16
	.cfi_offset %rbp, -16
	movq	%rsp, %rbp
	.cfi_def_cfa_register %rbp
Ltmp2457:
	pushq	%r15
	pushq	%r14
	pushq	%r13
	pushq	%r12
	pushq	%rbx
	andq	$-128, %rsp
	subq	$896, %rsp
	.cfi_offset %rbx, -56
	.cfi_offset %r12, -48
	.cfi_offset %r13, -40
	.cfi_offset %r14, -32
	.cfi_offset %r15, -24
	.loc	1 56 41 prologue_end
	movq	72(%rdi), %rcx
	.loc	1 56 56 is_stmt 0
	movq	80(%rdi), %rax
	movq	%rax, 48(%rsp)
	movq	%rcx, 96(%rsp)
	movq	%rcx, 56(%rsp)
Ltmp2458:
	.loc	1 736 9 is_stmt 1
	movq	64(%rdi), %rax
	movq	%rax, 88(%rsp)
	movq	56(%rdi), %rax
	movq	%rax, 80(%rsp)
	movq	40(%rdi), %rax
	movq	%rdi, 104(%rsp)
Ltmp2459:
	movq	48(%rdi), %rcx
	movq	%rcx, 72(%rsp)
	movq	%rax, 64(%rsp)
Ltmp2460:
	.loc	33 163 9
	xorps	%xmm0, %xmm0
	movaps	%xmm0, 384(%rsp)
	movaps	%xmm0, 512(%rsp)
	leaq	128(%rsp), %rdi
	leaq	384(%rsp), %r12
Ltmp2461:
	.loc	69 192 9
	movl	$256, %edx
	movq	%r12, %rsi
	callq	_memcpy
Ltmp2462:
	.loc	69 0 9 is_stmt 0
	xorl	%r13d, %r13d
	movl	$8, %r14d
	jmp	LBB113_1
Ltmp2463:
	.p2align	4, 0x90
LBB113_21:
	.file	74 "/rustc/6c8927b0cf80ceee19386026cf9d7fd4fd9d486f/src/libcore/hash/sip.rs"
	.loc	74 304 9 is_stmt 1
	movq	%rdi, 440(%rsp)
Ltmp2464:
LBB113_22:
	.loc	74 310 25
	movq	424(%rsp), %r15
Ltmp2465:
	.loc	74 312 22
	shlq	$56, %r9
	orq	%rdi, %r9
	movq	432(%rsp), %rax
	movq	408(%rsp), %rsi
Ltmp2466:
	.loc	7 3439 17
	addq	%r15, %rsi
Ltmp2467:
	.loc	7 2763 17
	rolq	$13, %r15
Ltmp2468:
	.loc	74 314 9
	xorq	%r9, %rax
Ltmp2469:
	.loc	74 85 35
	xorq	%rsi, %r15
Ltmp2470:
	.loc	7 2763 17
	rolq	$32, %rsi
Ltmp2471:
	.loc	7 0 17 is_stmt 0
	movq	416(%rsp), %rcx
Ltmp2472:
	.loc	7 3439 17 is_stmt 1
	addq	%rax, %rcx
Ltmp2473:
	.loc	7 2763 17
	rolq	$16, %rax
Ltmp2474:
	.loc	74 85 57
	xorq	%rcx, %rax
Ltmp2475:
	.loc	7 3439 17
	addq	%rax, %rsi
Ltmp2476:
	.loc	7 2763 17
	rolq	$21, %rax
Ltmp2477:
	.loc	7 3439 17
	addq	%r15, %rcx
Ltmp2478:
	.loc	7 2763 17
	rolq	$17, %r15
Ltmp2479:
	.loc	74 85 35
	xorq	%rsi, %rax
Ltmp2480:
	.loc	74 85 57 is_stmt 0
	xorq	%rcx, %r15
Ltmp2481:
	.loc	7 2763 17 is_stmt 1
	rolq	$32, %rcx
Ltmp2482:
	.loc	74 316 9
	xorq	%r9, %rsi
Ltmp2483:
	.loc	7 3439 17
	addq	%r15, %rsi
Ltmp2484:
	.loc	7 2763 17
	rolq	$13, %r15
Ltmp2485:
	.loc	74 85 35
	xorq	%rsi, %r15
Ltmp2486:
	.loc	7 2763 17
	rolq	$32, %rsi
Ltmp2487:
	.loc	74 318 9
	xorq	$255, %rcx
Ltmp2488:
	.loc	7 3439 17
	addq	%rax, %rcx
Ltmp2489:
	.loc	7 2763 17
	rolq	$16, %rax
Ltmp2490:
	.loc	74 85 57
	xorq	%rcx, %rax
Ltmp2491:
	.loc	7 3439 17
	addq	%rax, %rsi
Ltmp2492:
	.loc	7 2763 17
	rolq	$21, %rax
Ltmp2493:
	.loc	7 3439 17
	addq	%r15, %rcx
Ltmp2494:
	.loc	7 2763 17
	rolq	$17, %r15
Ltmp2495:
	.loc	74 85 57
	xorq	%rcx, %r15
Ltmp2496:
	.loc	7 2763 17
	rolq	$32, %rcx
Ltmp2497:
	.loc	74 85 35
	xorq	%rsi, %rax
Ltmp2498:
	.loc	7 3439 17
	addq	%r15, %rsi
Ltmp2499:
	.loc	7 2763 17
	rolq	$13, %r15
Ltmp2500:
	.loc	74 85 35
	xorq	%rsi, %r15
Ltmp2501:
	.loc	7 2763 17
	rolq	$32, %rsi
Ltmp2502:
	.loc	7 3439 17
	addq	%rax, %rcx
Ltmp2503:
	.loc	7 2763 17
	rolq	$16, %rax
Ltmp2504:
	.loc	74 85 57
	xorq	%rcx, %rax
Ltmp2505:
	.loc	7 3439 17
	addq	%rax, %rsi
Ltmp2506:
	.loc	7 2763 17
	rolq	$21, %rax
Ltmp2507:
	.loc	7 3439 17
	addq	%r15, %rcx
Ltmp2508:
	.loc	7 2763 17
	rolq	$17, %r15
Ltmp2509:
	.loc	74 85 57
	xorq	%rcx, %r15
Ltmp2510:
	.loc	7 2763 17
	rolq	$32, %rcx
Ltmp2511:
	.loc	74 85 35
	xorq	%rsi, %rax
Ltmp2512:
	.loc	7 3439 17
	addq	%r15, %rsi
Ltmp2513:
	.loc	7 2763 17
	rolq	$13, %r15
Ltmp2514:
	.loc	7 3439 17
	addq	%rax, %rcx
Ltmp2515:
	.loc	7 2763 17
	rolq	$16, %rax
Ltmp2516:
	.loc	74 85 35
	xorq	%rsi, %r15
Ltmp2517:
	.loc	74 85 57 is_stmt 0
	xorq	%rcx, %rax
Ltmp2518:
	.loc	7 2763 17 is_stmt 1
	rolq	$21, %rax
Ltmp2519:
	.loc	7 3439 17
	addq	%r15, %rcx
Ltmp2520:
	.loc	7 2763 17
	rolq	$17, %r15
Ltmp2521:
	.loc	74 321 9
	xorq	%rcx, %r15
Ltmp2522:
	.loc	7 2763 17
	rolq	$32, %rcx
Ltmp2523:
	.loc	74 85 35
	xorq	%rax, %r15
Ltmp2524:
	.loc	1 822 15
	xorq	%rcx, %r15
Ltmp2525:
	.loc	1 822 9 is_stmt 0
	jne	LBB113_23
Ltmp2526:
LBB113_1:
Ltmp2345:
	.loc	1 823 30 is_stmt 1
	movq	%r12, %rdi
	callq	__ZN3std11collections4hash3map13DefaultHasher3new17h918fa273dc18fb00E
Ltmp2346:
Ltmp2527:
	.loc	6 2389 24
	movl	$1, %ecx
	lock		xaddq	%rcx, __ZN10rayon_core8registry14XorShift64Star3new7COUNTER17h6586df22640157c5E(%rip)
Ltmp2528:
	.file	75 "/rustc/6c8927b0cf80ceee19386026cf9d7fd4fd9d486f/src/libcore/hash/mod.rs"
	.loc	75 323 21
	movq	%rcx, 32(%rsp)
Ltmp2529:
	.loc	74 264 9
	movq	400(%rsp), %r9
Ltmp2530:
	.loc	74 268 12
	movq	448(%rsp), %rbx
Ltmp2531:
	.loc	74 264 9
	addq	$8, %r9
	movq	%r9, 400(%rsp)
Ltmp2532:
	.loc	74 268 12
	testq	%rbx, %rbx
	.loc	74 268 9 is_stmt 0
	je	LBB113_3
Ltmp2533:
	.loc	74 269 13 is_stmt 1
	movl	$8, %esi
	subq	%rbx, %rsi
Ltmp2534:
	.loc	36 0 0 is_stmt 0
	movq	%rsi, %rdx
	cmovbq	%r14, %rdx
Ltmp2535:
	.loc	74 132 8 is_stmt 1
	xorl	%eax, %eax
	cmpq	$3, %rdx
	seta	%al
	.loc	74 132 5 is_stmt 0
	movl	%ecx, %edi
	cmovbeq	%r13, %rdi
	.loc	74 138 8 is_stmt 1
	leaq	1(,%rax,4), %rcx
Ltmp2536:
	.loc	74 132 5
	shlq	$2, %rax
Ltmp2537:
	.loc	74 138 8
	cmpq	%rdx, %rcx
	.loc	74 138 5 is_stmt 0
	jae	LBB113_6
Ltmp2538:
	.loc	13 2130 14 is_stmt 1
	movzwl	32(%rsp,%rax), %r8d
Ltmp2539:
	.loc	74 140 73
	leal	(,%rax,8), %ecx
	.loc	74 140 16 is_stmt 0
	shlq	%cl, %r8
	.loc	74 140 9
	orq	%r8, %rdi
Ltmp2540:
	.loc	74 141 9 is_stmt 1
	orq	$2, %rax
Ltmp2541:
LBB113_6:
	.loc	74 143 8
	cmpq	%rdx, %rax
	.loc	74 143 5 is_stmt 0
	jae	LBB113_8
Ltmp2542:
	.loc	74 145 26 is_stmt 1
	movzbl	32(%rsp,%rax), %edx
Ltmp2543:
	.loc	74 145 69 is_stmt 0
	shll	$3, %eax
Ltmp2544:
	.loc	74 145 16
	movl	%eax, %ecx
	shlq	%cl, %rdx
	.loc	74 145 9
	orq	%rdx, %rdi
Ltmp2545:
LBB113_8:
	.loc	74 271 84 is_stmt 1
	leal	(,%rbx,8), %ecx
	.loc	74 271 26 is_stmt 0
	shlq	%cl, %rdi
	.loc	74 271 13
	orq	440(%rsp), %rdi
	movq	%rdi, 440(%rsp)
Ltmp2546:
	.loc	36 0 0
	cmpq	$8, %rbx
Ltmp2547:
	.loc	74 272 13 is_stmt 1
	ja	LBB113_22
Ltmp2548:
	.loc	74 0 13 is_stmt 0
	movq	432(%rsp), %rcx
	.loc	74 276 17 is_stmt 1
	xorq	%rdi, %rcx
Ltmp2549:
	.loc	74 85 46
	movq	424(%rsp), %rdx
Ltmp2550:
	.loc	74 0 46 is_stmt 0
	movq	408(%rsp), %rax
Ltmp2551:
	.loc	7 3439 17 is_stmt 1
	addq	%rdx, %rax
Ltmp2552:
	.loc	7 2763 17
	rolq	$13, %rdx
Ltmp2553:
	.loc	74 85 35
	xorq	%rax, %rdx
Ltmp2554:
	.loc	7 2763 17
	rolq	$32, %rax
Ltmp2555:
	.loc	7 0 17 is_stmt 0
	movq	416(%rsp), %rbx
Ltmp2556:
	.loc	7 3439 17 is_stmt 1
	addq	%rcx, %rbx
Ltmp2557:
	.loc	7 2763 17
	rolq	$16, %rcx
Ltmp2558:
	.loc	74 85 57
	xorq	%rbx, %rcx
Ltmp2559:
	.loc	7 3439 17
	addq	%rcx, %rax
Ltmp2560:
	.loc	7 2763 17
	rolq	$21, %rcx
Ltmp2561:
	.loc	74 85 35
	xorq	%rax, %rcx
	movq	%rcx, 432(%rsp)
Ltmp2562:
	.loc	7 3439 17
	addq	%rdx, %rbx
Ltmp2563:
	.loc	7 2763 17
	rolq	$17, %rdx
Ltmp2564:
	.loc	74 85 57
	xorq	%rbx, %rdx
	movq	%rdx, 424(%rsp)
Ltmp2565:
	.loc	7 2763 17
	rolq	$32, %rbx
Ltmp2566:
	.loc	74 100 9
	movq	%rbx, 416(%rsp)
Ltmp2567:
	.loc	74 278 17
	xorq	%rdi, %rax
	movq	%rax, 408(%rsp)
	.loc	74 279 17
	movq	$0, 448(%rsp)
	jmp	LBB113_10
Ltmp2568:
	.p2align	4, 0x90
LBB113_3:
	.loc	74 0 0 is_stmt 0
	xorl	%esi, %esi
Ltmp2569:
LBB113_10:
	.loc	74 284 19 is_stmt 1
	movl	$8, %r10d
	subq	%rsi, %r10
Ltmp2570:
	.loc	74 285 20
	movl	%r10d, %r8d
	andl	$7, %r8d
Ltmp2571:
	.loc	74 288 19
	andq	$-8, %r10
Ltmp2572:
	.loc	74 288 15 is_stmt 0
	cmpq	%r10, %rsi
	.loc	74 288 9
	jae	LBB113_14
Ltmp2573:
	.loc	74 294 13 is_stmt 1
	movq	432(%rsp), %rbx
Ltmp2574:
	.loc	74 85 35
	movq	408(%rsp), %rdi
	.loc	74 85 57 is_stmt 0
	movq	416(%rsp), %rcx
	.loc	74 85 46
	movq	424(%rsp), %rdx
Ltmp2575:
	.p2align	4, 0x90
LBB113_12:
	.loc	7 3439 17 is_stmt 1
	addq	%rdx, %rdi
Ltmp2576:
	.loc	7 2763 17
	rolq	$13, %rdx
Ltmp2577:
	.loc	13 2130 14
	movq	32(%rsp,%rsi), %rax
Ltmp2578:
	.loc	74 85 35
	xorq	%rdi, %rdx
Ltmp2579:
	.loc	7 2763 17
	rolq	$32, %rdi
Ltmp2580:
	.loc	74 294 13
	xorq	%rax, %rbx
Ltmp2581:
	.loc	7 3439 17
	addq	%rbx, %rcx
Ltmp2582:
	.loc	7 2763 17
	rolq	$16, %rbx
Ltmp2583:
	.loc	74 85 57
	xorq	%rcx, %rbx
Ltmp2584:
	.loc	7 3439 17
	addq	%rbx, %rdi
Ltmp2585:
	.loc	7 2763 17
	rolq	$21, %rbx
Ltmp2586:
	.loc	7 3439 17
	addq	%rdx, %rcx
Ltmp2587:
	.loc	7 2763 17
	rolq	$17, %rdx
Ltmp2588:
	.loc	74 85 57
	xorq	%rcx, %rdx
Ltmp2589:
	.loc	7 2763 17
	rolq	$32, %rcx
Ltmp2590:
	.loc	74 85 35
	xorq	%rdi, %rbx
Ltmp2591:
	.loc	74 296 13
	xorq	%rax, %rdi
	.loc	74 298 13
	addq	$8, %rsi
Ltmp2592:
	.loc	74 288 15
	cmpq	%r10, %rsi
	.loc	74 288 9 is_stmt 0
	jb	LBB113_12
Ltmp2593:
	.loc	74 294 13 is_stmt 1
	movq	%rbx, 432(%rsp)
Ltmp2594:
	.loc	74 85 35
	movq	%rdi, 408(%rsp)
	.loc	74 85 46 is_stmt 0
	movq	%rdx, 424(%rsp)
	.loc	74 85 57
	movq	%rcx, 416(%rsp)
Ltmp2595:
LBB113_14:
	.loc	74 132 8 is_stmt 1
	cmpl	$4, %r8d
	.loc	74 132 5 is_stmt 0
	jb	LBB113_15
Ltmp2596:
	.loc	13 2130 14 is_stmt 1
	movl	32(%rsp,%rsi), %edi
Ltmp2597:
	.loc	13 0 14 is_stmt 0
	movl	$4, %eax
Ltmp2598:
	.loc	74 138 8 is_stmt 1
	movq	%rax, %rcx
	orq	$1, %rcx
	cmpq	%r8, %rcx
	.loc	74 138 5 is_stmt 0
	jb	LBB113_18
	jmp	LBB113_19
Ltmp2599:
	.p2align	4, 0x90
LBB113_15:
	.loc	74 0 0
	xorl	%eax, %eax
Ltmp2600:
	xorl	%edi, %edi
Ltmp2601:
	.loc	74 138 8
	movq	%rax, %rcx
	orq	$1, %rcx
	cmpq	%r8, %rcx
	.loc	74 138 5
	jae	LBB113_19
Ltmp2602:
LBB113_18:
	.loc	74 140 44 is_stmt 1
	leaq	(%rax,%rsi), %rcx
Ltmp2603:
	.loc	13 2130 14
	movzwl	32(%rsp,%rcx), %edx
Ltmp2604:
	.loc	74 140 73
	leal	(,%rax,8), %ecx
Ltmp2605:
	.loc	74 140 16 is_stmt 0
	shlq	%cl, %rdx
	.loc	74 140 9
	orq	%rdx, %rdi
Ltmp2606:
	.loc	74 141 9 is_stmt 1
	orq	$2, %rax
Ltmp2607:
LBB113_19:
	.loc	74 143 8
	cmpq	%r8, %rax
	.loc	74 143 5 is_stmt 0
	jae	LBB113_21
Ltmp2608:
	.loc	74 145 45 is_stmt 1
	addq	%rax, %rsi
Ltmp2609:
	.loc	74 145 26 is_stmt 0
	movzbl	32(%rsp,%rsi), %edx
	.loc	74 145 69
	shll	$3, %eax
Ltmp2610:
	.loc	74 145 16
	movl	%eax, %ecx
	shlq	%cl, %rdx
	.loc	74 145 9
	orq	%rdx, %rdi
Ltmp2611:
	.loc	74 0 9
	jmp	LBB113_21
Ltmp2612:
LBB113_23:
	movq	96(%rsp), %r13
Ltmp2613:
	.loc	6 2389 24 is_stmt 1
	lock		incq	(%r13)
Ltmp2614:
	.loc	31 1102 9
	jle	LBB113_24
Ltmp2615:
	.loc	1 735 26
	movq	88(%rsp), %rax
	movq	%rax, 664(%rsp)
	movq	80(%rsp), %rax
	movq	%rax, 656(%rsp)
	movq	64(%rsp), %rax
	movq	72(%rsp), %rcx
	movq	%rcx, 648(%rsp)
	movq	%rax, 640(%rsp)
	leaq	384(%rsp), %rbx
	leaq	128(%rsp), %rsi
	movl	$256, %edx
	movq	%rbx, %rdi
	callq	_memcpy
	movq	48(%rsp), %rcx
	movq	%rcx, 672(%rsp)
	movq	%r15, 680(%rsp)
	movq	%r13, 688(%rsp)
Ltmp2616:
	.loc	30 268 13
	movq	__ZN10rayon_core8registry19WORKER_THREAD_STATE7__getit5__KEY17h3f5be4a131fb340fE@TLVP(%rip), %rdi
	callq	*(%rdi)
	cmpl	$1, (%rax)
Ltmp2617:
	.loc	27 409 17
	jne	LBB113_29
Ltmp2618:
	.loc	24 431 18
	movq	__ZN10rayon_core8registry19WORKER_THREAD_STATE7__getit5__KEY17h3f5be4a131fb340fE@TLVP(%rip), %rdi
	callq	*(%rdi)
	cmpq	$0, 8(%rax)
Ltmp2619:
	.loc	1 596 13
	je	LBB113_30
Ltmp2620:
Ltmp2350:
	leaq	l___unnamed_67(%rip), %rdi
	leaq	l___unnamed_68(%rip), %rdx
	movl	$35, %esi
	callq	__ZN3std9panicking11begin_panic17h6ef357f3fd72cd14E
Ltmp2351:
	jmp	LBB113_24
Ltmp2621:
LBB113_29:
	.loc	1 0 13 is_stmt 0
	movl	$1, %eax
Ltmp2622:
	.loc	13 2130 14 is_stmt 1
	movq	%rax, %xmm0
	movdqa	%xmm0, 112(%rsp)
	movq	__ZN10rayon_core8registry19WORKER_THREAD_STATE7__getit5__KEY17h3f5be4a131fb340fE@TLVP(%rip), %rdi
	callq	*(%rdi)
	movaps	112(%rsp), %xmm0
	movups	%xmm0, (%rax)
Ltmp2623:
LBB113_30:
	.loc	13 2130 14 is_stmt 0
	movq	__ZN10rayon_core8registry19WORKER_THREAD_STATE7__getit5__KEY17h3f5be4a131fb340fE@TLVP(%rip), %rdi
	callq	*(%rdi)
Ltmp2624:
	movq	%rbx, 8(%rax)
Ltmp2625:
	.loc	21 1923 55 is_stmt 1
	movq	400(%r13), %rsi
Ltmp2626:
	.loc	40 3116 10
	cmpq	%rcx, %rsi
Ltmp2627:
	jbe	LBB113_31
Ltmp2628:
	.loc	21 818 19
	movq	384(%r13), %r15
Ltmp2629:
	.loc	40 3116 9
	leaq	(%rcx,%rcx,4), %r14
	shlq	$4, %r14
Ltmp2630:
	.loc	54 273 13
	movq	(%r15,%r14), %rdi
Ltmp2631:
	.loc	52 63 17
	callq	_pthread_mutex_lock
Ltmp2632:
	.loc	6 2356 24
	movq	__ZN3std9panicking11panic_count18GLOBAL_PANIC_COUNT17h5754c1d48a496461E@GOTPCREL(%rip), %rax
Ltmp2633:
	movq	(%rax), %rax
Ltmp2634:
	.loc	55 262 12
	testq	%rax, %rax
	.loc	55 262 9 is_stmt 0
	je	LBB113_35
Ltmp2635:
Ltmp2354:
	.loc	55 274 13 is_stmt 1
	callq	__ZN3std9panicking11panic_count17is_zero_slow_path17ha588394117c50e3dE
Ltmp2355:
Ltmp2636:
	movl	%eax, %ebx
	xorb	$1, %bl
Ltmp2637:
	.loc	1 0 0 is_stmt 0
	leaq	(%r15,%r14), %r12
Ltmp2638:
	.loc	6 2356 24 is_stmt 1
	movb	8(%r15,%r14), %al
Ltmp2639:
	.loc	6 410 18
	testb	%al, %al
Ltmp2640:
	.loc	28 1004 13
	jne	LBB113_39
Ltmp2641:
LBB113_41:
	.loc	62 118 25
	movq	%r12, 128(%rsp)
	movb	%bl, 136(%rsp)
Ltmp2642:
	.loc	62 119 9
	movb	$1, 9(%r15,%r14)
	.loc	62 120 9
	leaq	16(%r15,%r14), %rdi
Ltmp2361:
	callq	__ZN3std4sync7condvar7Condvar10notify_all17h4109712bde5923a6E
Ltmp2362:
Ltmp2643:
	.loc	60 34 13
	testb	%bl, %bl
	.loc	60 34 12 is_stmt 0
	je	LBB113_43
Ltmp2644:
LBB113_47:
	.loc	54 500 13 is_stmt 1
	movq	(%r12), %rdi
Ltmp2645:
	.loc	52 68 17
	callq	_pthread_mutex_unlock
Ltmp2646:
	.loc	1 753 12
	movq	464(%r13), %rdi
	testq	%rdi, %rdi
	je	LBB113_62
Ltmp2647:
	.loc	6 2389 24
	lock		incq	(%r13)
Ltmp2648:
	.loc	6 0 24 is_stmt 0
	movq	48(%rsp), %rsi
Ltmp2649:
	.loc	31 1102 9 is_stmt 1
	jle	LBB113_24
Ltmp2650:
	.loc	1 754 24
	movq	%r13, 64(%rsp)
Ltmp2651:
	.loc	14 1088 28
	movq	472(%r13), %rax
Ltmp2369:
	.loc	14 1088 9 is_stmt 0
	callq	*24(%rax)
Ltmp2370:
Ltmp2652:
	.loc	6 2403 24 is_stmt 1
	lock		decq	(%r13)
Ltmp2653:
	.loc	31 1350 9
	jne	LBB113_61
Ltmp2654:
LBB113_60:
	.loc	6 2675 24
	##MEMBARRIER
Ltmp2390:
	leaq	64(%rsp), %rdi
Ltmp2655:
	.loc	31 1385 13
	callq	__ZN5alloc4sync12Arc$LT$T$GT$9drop_slow17h650920f740fa8399E
Ltmp2391:
Ltmp2656:
LBB113_61:
	.loc	1 763 31
	movq	56(%rsp), %r13
Ltmp2657:
LBB113_62:
	.loc	1 0 31 is_stmt 0
	leaq	__ZN68_$LT$rayon_core..log..LOG_ENV$u20$as$u20$core..ops..deref..Deref$GT$5deref11__stability4LAZY17h40d790f15c325f8cE(%rip), %rax
Ltmp2658:
	movq	%rax, 32(%rsp)
Ltmp2659:
	.loc	6 2355 24 is_stmt 1
	movq	__ZN68_$LT$rayon_core..log..LOG_ENV$u20$as$u20$core..ops..deref..Deref$GT$5deref11__stability4LAZY17h40d790f15c325f8cE(%rip), %rax
Ltmp2660:
	.loc	44 374 9
	cmpq	$3, %rax
Ltmp2661:
	.loc	44 260 9
	je	LBB113_64
Ltmp2662:
	.loc	44 0 9 is_stmt 0
	leaq	32(%rsp), %rax
	.loc	44 264 21 is_stmt 1
	movq	%rax, 64(%rsp)
	leaq	64(%rsp), %rax
Ltmp2663:
	.loc	44 265 37
	movq	%rax, 128(%rsp)
Ltmp2392:
	.loc	44 265 9 is_stmt 0
	leaq	__ZN68_$LT$rayon_core..log..LOG_ENV$u20$as$u20$core..ops..deref..Deref$GT$5deref11__stability4LAZY17h40d790f15c325f8cE(%rip), %rdi
	leaq	l___unnamed_2(%rip), %rcx
	leaq	128(%rsp), %rdx
	xorl	%esi, %esi
	callq	__ZN3std4sync4once4Once10call_inner17hfcd38045e50af9d3E
Ltmp2393:
Ltmp2664:
LBB113_64:
	.loc	47 37 20 is_stmt 1
	movq	32(%rsp), %rax
Ltmp2665:
	.loc	47 38 17
	movb	8(%rax), %al
Ltmp2666:
	cmpb	$2, %al
	je	LBB113_65
Ltmp2667:
	.loc	1 641 9
	testb	%al, %al
	je	LBB113_68
Ltmp2668:
	.loc	1 641 34 is_stmt 0
	movq	672(%rsp), %rax
	.loc	1 641 14
	movq	%rax, 72(%rsp)
	movq	$10, 64(%rsp)
	leaq	64(%rsp), %rax
Ltmp2669:
	.loc	1 641 9
	movq	%rax, 32(%rsp)
	leaq	__ZN59_$LT$rayon_core..log..Event$u20$as$u20$core..fmt..Debug$GT$3fmt17h545aeb2b9b5bbd2aE(%rip), %rax
	movq	%rax, 40(%rsp)
Ltmp2670:
	.loc	20 328 9 is_stmt 1
	leaq	l___unnamed_57(%rip), %rax
Ltmp2671:
	movq	%rax, 128(%rsp)
	movq	$2, 136(%rsp)
	movq	$0, 144(%rsp)
	leaq	32(%rsp), %rax
Ltmp2672:
	movq	%rax, 160(%rsp)
	movq	$1, 168(%rsp)
Ltmp2394:
	leaq	128(%rsp), %rdi
Ltmp2673:
	.loc	1 641 9
	callq	__ZN3std2io5stdio7_eprint17h190c99449314402aE
Ltmp2395:
Ltmp2674:
LBB113_68:
	.loc	1 0 0 is_stmt 0
	addq	$496, %r13
Ltmp2675:
	.loc	6 2357 23 is_stmt 1
	movq	(%r13), %rax
Ltmp2676:
	.loc	62 153 9
	testq	%rax, %rax
Ltmp2677:
	.loc	1 642 9
	je	LBB113_70
Ltmp2678:
Ltmp2396:
	.loc	1 0 9 is_stmt 0
	leaq	384(%rsp), %rdi
	.loc	1 643 13 is_stmt 1
	movq	%r13, %rsi
	callq	__ZN10rayon_core8registry12WorkerThread15wait_until_cold17h689297eefb15b2cdE
Ltmp2397:
Ltmp2679:
LBB113_70:
Ltmp2398:
	.loc	1 0 13 is_stmt 0
	leaq	384(%rsp), %rdi
	.loc	1 766 19 is_stmt 1
	callq	__ZN10rayon_core8registry12WorkerThread14take_local_job17h3db8345d218b9b2cE
Ltmp2399:
Ltmp2680:
	.loc	30 185 25
	testq	%rdx, %rdx
Ltmp2681:
	.loc	1 766 5
	jne	LBB113_72
Ltmp2682:
	.loc	1 769 5
	movq	56(%rsp), %r15
Ltmp2683:
	.loc	21 1923 55
	movq	400(%r15), %rsi
Ltmp2684:
	.loc	40 3116 10
	cmpq	48(%rsp), %rsi
	jbe	LBB113_74
Ltmp2685:
	.loc	21 818 19
	movq	384(%r15), %r12
Ltmp2686:
	.loc	54 273 13
	movq	32(%r12,%r14), %rdi
Ltmp2687:
	.loc	52 63 17
	callq	_pthread_mutex_lock
Ltmp2688:
	.loc	6 2356 24
	movq	__ZN3std9panicking11panic_count18GLOBAL_PANIC_COUNT17h5754c1d48a496461E@GOTPCREL(%rip), %rax
Ltmp2689:
	movq	(%rax), %rax
Ltmp2690:
	.loc	55 262 12
	testq	%rax, %rax
	.loc	55 262 9 is_stmt 0
	je	LBB113_76
Ltmp2691:
Ltmp2404:
	.loc	55 274 13 is_stmt 1
	callq	__ZN3std9panicking11panic_count17is_zero_slow_path17ha588394117c50e3dE
Ltmp2405:
Ltmp2692:
	movl	%eax, %ebx
	xorb	$1, %bl
Ltmp2693:
	.loc	1 0 0 is_stmt 0
	leaq	32(%r12,%r14), %r13
Ltmp2694:
	.loc	6 2356 24 is_stmt 1
	movb	40(%r12,%r14), %al
Ltmp2695:
	.loc	6 410 18
	testb	%al, %al
Ltmp2696:
	.loc	28 1004 13
	jne	LBB113_80
Ltmp2697:
LBB113_81:
	.loc	62 118 25
	movq	%r13, 128(%rsp)
	movb	%bl, 136(%rsp)
Ltmp2698:
	.loc	62 119 9
	movb	$1, 41(%r12,%r14)
	.loc	62 120 9
	leaq	48(%r12,%r14), %rdi
Ltmp2411:
	callq	__ZN3std4sync7condvar7Condvar10notify_all17h4109712bde5923a6E
Ltmp2412:
Ltmp2699:
	.loc	60 34 13
	testb	%bl, %bl
	.loc	60 34 12 is_stmt 0
	je	LBB113_83
Ltmp2700:
LBB113_87:
	.loc	54 500 13 is_stmt 1
	movq	(%r13), %rdi
Ltmp2701:
	.loc	52 68 17
	callq	_pthread_mutex_unlock
Ltmp2702:
	.loc	1 775 12
	movq	480(%r15), %rdi
	testq	%rdi, %rdi
	je	LBB113_98
Ltmp2703:
	.loc	6 2389 24
	lock		incq	(%r15)
Ltmp2704:
	.loc	31 1102 9
	jle	LBB113_24
Ltmp2705:
	.loc	1 776 24
	movq	%r15, 64(%rsp)
Ltmp2706:
	.loc	14 1088 28
	movq	488(%r15), %rax
Ltmp2418:
	movq	48(%rsp), %rsi
	.loc	14 1088 9 is_stmt 0
	callq	*24(%rax)
Ltmp2419:
Ltmp2707:
LBB113_96:
	.loc	6 2403 24 is_stmt 1
	lock		decq	(%r15)
Ltmp2708:
	.loc	31 1350 9
	jne	LBB113_98
Ltmp2709:
	.loc	6 2675 24
	##MEMBARRIER
Ltmp2439:
	leaq	64(%rsp), %rdi
Ltmp2710:
	.loc	31 1385 13
	callq	__ZN5alloc4sync12Arc$LT$T$GT$9drop_slow17h650920f740fa8399E
Ltmp2440:
Ltmp2711:
LBB113_98:
Ltmp2444:
	.loc	31 0 13 is_stmt 0
	leaq	384(%rsp), %rdi
	.loc	1 785 1 is_stmt 1
	callq	__ZN4core3ptr13drop_in_place17h020556b52a67bd92E
Ltmp2445:
Ltmp2712:
	.loc	31 1350 12
	movq	56(%rsp), %rax
Ltmp2713:
	.loc	6 2403 24
	lock		decq	(%rax)
Ltmp2714:
	.loc	31 1350 9
	jne	LBB113_101
Ltmp2715:
	.loc	6 2675 24
	##MEMBARRIER
Ltmp2449:
	leaq	56(%rsp), %rdi
Ltmp2716:
	.loc	31 1385 13
	callq	__ZN5alloc4sync12Arc$LT$T$GT$9drop_slow17h650920f740fa8399E
Ltmp2450:
Ltmp2717:
LBB113_101:
	.loc	31 0 13 is_stmt 0
	movq	104(%rsp), %rax
Ltmp2718:
	.loc	22 184 1 is_stmt 1
	movq	(%rax), %rdi
	testq	%rdi, %rdi
	je	LBB113_104
Ltmp2719:
	.loc	22 184 1 is_stmt 0
	movq	8(%rax), %rsi
Ltmp2720:
	.loc	10 235 40 is_stmt 1
	testq	%rsi, %rsi
	.loc	10 235 9 is_stmt 0
	je	LBB113_104
Ltmp2721:
	.loc	11 102 14 is_stmt 1
	movl	$1, %edx
	callq	___rust_dealloc
Ltmp2722:
LBB113_104:
	.loc	1 57 6
	leaq	-40(%rbp), %rsp
Ltmp2723:
	popq	%rbx
	popq	%r12
	popq	%r13
	popq	%r14
	popq	%r15
	popq	%rbp
	retq
LBB113_35:
Ltmp2724:
	.loc	1 0 6 is_stmt 0
	xorl	%ebx, %ebx
Ltmp2725:
	leaq	(%r15,%r14), %r12
Ltmp2726:
	.loc	6 2356 24 is_stmt 1
	movb	8(%r15,%r14), %al
Ltmp2727:
	.loc	6 410 18
	testb	%al, %al
Ltmp2728:
	.loc	28 1004 13
	je	LBB113_41
Ltmp2729:
LBB113_39:
	.loc	28 1005 17
	movq	%r12, 128(%rsp)
	movb	%bl, 136(%rsp)
Ltmp2356:
Ltmp2730:
	.loc	28 1005 23 is_stmt 0
	leaq	l___unnamed_64(%rip), %rdi
	leaq	l___unnamed_10(%rip), %rcx
	leaq	l___unnamed_69(%rip), %r8
	leaq	128(%rsp), %rdx
	movl	$43, %esi
	callq	__ZN4core6result13unwrap_failed17hc193898ef513e81fE
Ltmp2357:
	jmp	LBB113_24
Ltmp2731:
LBB113_43:
	.loc	6 2356 24 is_stmt 1
	movq	__ZN3std9panicking11panic_count18GLOBAL_PANIC_COUNT17h5754c1d48a496461E@GOTPCREL(%rip), %rax
Ltmp2732:
	movq	(%rax), %rax
Ltmp2733:
	.loc	55 262 12
	testq	%rax, %rax
	.loc	55 262 9 is_stmt 0
	je	LBB113_47
Ltmp2734:
Ltmp2366:
	.loc	55 274 13 is_stmt 1
	callq	__ZN3std9panicking11panic_count17is_zero_slow_path17ha588394117c50e3dE
Ltmp2367:
Ltmp2735:
	.loc	60 34 12
	testb	%al, %al
	jne	LBB113_47
Ltmp2736:
	.loc	62 0 0 is_stmt 0
	leaq	8(%r15,%r14), %rax
Ltmp2737:
	.loc	6 2342 24 is_stmt 1
	movb	$1, (%rax)
	jmp	LBB113_47
Ltmp2738:
LBB113_76:
	.loc	6 0 24 is_stmt 0
	xorl	%ebx, %ebx
Ltmp2739:
	leaq	32(%r12,%r14), %r13
Ltmp2740:
	.loc	6 2356 24 is_stmt 1
	movb	40(%r12,%r14), %al
Ltmp2741:
	.loc	6 410 18
	testb	%al, %al
Ltmp2742:
	.loc	28 1004 13
	je	LBB113_81
Ltmp2743:
LBB113_80:
	.loc	28 1005 17
	movq	%r13, 128(%rsp)
	movb	%bl, 136(%rsp)
Ltmp2406:
Ltmp2744:
	.loc	28 1005 23 is_stmt 0
	leaq	l___unnamed_64(%rip), %rdi
	leaq	l___unnamed_10(%rip), %rcx
	leaq	l___unnamed_69(%rip), %r8
	leaq	128(%rsp), %rdx
	movl	$43, %esi
	callq	__ZN4core6result13unwrap_failed17hc193898ef513e81fE
Ltmp2407:
	jmp	LBB113_24
Ltmp2745:
LBB113_83:
	.loc	6 2356 24 is_stmt 1
	movq	__ZN3std9panicking11panic_count18GLOBAL_PANIC_COUNT17h5754c1d48a496461E@GOTPCREL(%rip), %rax
Ltmp2746:
	movq	(%rax), %rax
Ltmp2747:
	.loc	55 262 12
	testq	%rax, %rax
	.loc	55 262 9 is_stmt 0
	je	LBB113_87
Ltmp2748:
Ltmp2416:
	.loc	55 274 13 is_stmt 1
	callq	__ZN3std9panicking11panic_count17is_zero_slow_path17ha588394117c50e3dE
Ltmp2417:
Ltmp2749:
	.loc	60 34 12
	testb	%al, %al
	jne	LBB113_87
Ltmp2750:
	.loc	62 0 0 is_stmt 0
	leaq	40(%r12,%r14), %rax
Ltmp2751:
	.loc	6 2342 24 is_stmt 1
	movb	$1, (%rax)
	jmp	LBB113_87
Ltmp2752:
LBB113_31:
Ltmp2352:
	.loc	6 0 24 is_stmt 0
	movq	%rcx, %rdi
Ltmp2753:
	.loc	40 3116 10 is_stmt 1
	leaq	l___unnamed_70(%rip), %rdx
	callq	__ZN4core9panicking18panic_bounds_check17he87128426d100e93E
Ltmp2754:
Ltmp2353:
	.loc	40 0 10 is_stmt 0
	jmp	LBB113_24
Ltmp2755:
LBB113_65:
Ltmp2451:
	.loc	8 10 9 is_stmt 1
	leaq	l___unnamed_58(%rip), %rdi
	leaq	l___unnamed_59(%rip), %rdx
	movl	$66, %esi
	callq	__ZN4core9panicking5panic17h383a6b80ea7021aaE
Ltmp2452:
	jmp	LBB113_24
Ltmp2756:
LBB113_72:
Ltmp2400:
	.loc	1 766 5
	leaq	l___unnamed_71(%rip), %rdi
	leaq	l___unnamed_72(%rip), %rdx
	movl	$58, %esi
	callq	__ZN3std9panicking11begin_panic17h6ef357f3fd72cd14E
Ltmp2401:
	jmp	LBB113_24
Ltmp2757:
LBB113_74:
Ltmp2402:
	.loc	40 3116 10
	leaq	l___unnamed_73(%rip), %rdx
	movq	48(%rsp), %rdi
	callq	__ZN4core9panicking18panic_bounds_check17he87128426d100e93E
Ltmp2758:
Ltmp2403:
	.loc	40 0 10 is_stmt 0
	jmp	LBB113_24
Ltmp2759:
LBB113_105:
Ltmp2408:
Ltmp2409:
	leaq	128(%rsp), %rdi
Ltmp2760:
	.loc	28 1005 86 is_stmt 1
	callq	__ZN4core3ptr13drop_in_place17h6b8041406785e3b2E
Ltmp2410:
	jmp	LBB113_106
Ltmp2761:
LBB113_40:
Ltmp2358:
	.loc	28 0 86 is_stmt 0
	movq	%rax, %rbx
Ltmp2762:
Ltmp2359:
	leaq	128(%rsp), %rdi
Ltmp2763:
	.loc	28 1005 86
	callq	__ZN4core3ptr13drop_in_place17h6b8041406785e3b2E
Ltmp2360:
	jmp	LBB113_109
Ltmp2764:
LBB113_116:
Ltmp2441:
	.loc	28 0 86
	jmp	LBB113_108
Ltmp2765:
LBB113_90:
Ltmp2420:
Ltmp2421:
	.loc	55 360 23 is_stmt 1
	movq	%rax, %rdi
	callq	__ZN3std9panicking3try7cleanup17hd630ddf77975344aE
Ltmp2422:
Ltmp2766:
	.loc	55 0 23 is_stmt 0
	movq	%rax, 128(%rsp)
	movq	%rdx, 136(%rsp)
Ltmp2767:
	.loc	1 320 13 is_stmt 1
	movq	448(%r15), %rdi
	testq	%rdi, %rdi
	je	LBB113_92
Ltmp2768:
	.loc	14 1088 28
	movq	456(%r15), %rcx
Ltmp2426:
	.loc	14 1088 9 is_stmt 0
	movq	%rax, %rsi
	callq	*24(%rcx)
Ltmp2769:
Ltmp2427:
	.loc	14 0 9
	jmp	LBB113_96
Ltmp2770:
LBB113_92:
Ltmp2431:
	.loc	22 184 1 is_stmt 1
	callq	__ZN74_$LT$rayon_core..unwind..AbortIfPanic$u20$as$u20$core..ops..drop..Drop$GT$4drop17h166450c6e9b171e4E
Ltmp2432:
	jmp	LBB113_24
Ltmp2771:
LBB113_93:
Ltmp2433:
	.loc	22 0 1 is_stmt 0
	movq	%rax, %rbx
Ltmp2434:
	leaq	128(%rsp), %rdi
	.loc	1 332 5 is_stmt 1
	callq	__ZN4core3ptr13drop_in_place17h2910a9839b07439cE
Ltmp2435:
	jmp	LBB113_115
Ltmp2772:
LBB113_94:
Ltmp2428:
Ltmp2429:
	.loc	1 326 13
	callq	__ZN4core3ptr13drop_in_place17h67db51d30a48ed73E
Ltmp2430:
	jmp	LBB113_24
Ltmp2773:
LBB113_114:
Ltmp2436:
	.loc	1 0 13 is_stmt 0
	movq	%rax, %rbx
Ltmp2774:
LBB113_115:
Ltmp2437:
	leaq	64(%rsp), %rdi
	.loc	1 784 5 is_stmt 1
	callq	__ZN4core3ptr13drop_in_place17hf7dbf4faffdd2292E
Ltmp2438:
	jmp	LBB113_109
Ltmp2775:
LBB113_113:
Ltmp2423:
	.loc	1 0 5 is_stmt 0
	movq	%rax, %rbx
Ltmp2776:
Ltmp2424:
	leaq	64(%rsp), %rdi
	.loc	1 784 5
	callq	__ZN4core3ptr13drop_in_place17hf7dbf4faffdd2292E
Ltmp2425:
	jmp	LBB113_109
Ltmp2777:
LBB113_51:
Ltmp2371:
Ltmp2372:
	.loc	55 360 23 is_stmt 1
	movq	%rax, %rdi
	callq	__ZN3std9panicking3try7cleanup17hd630ddf77975344aE
Ltmp2373:
Ltmp2778:
	.loc	55 0 23 is_stmt 0
	movq	%rax, 128(%rsp)
	movq	%rdx, 136(%rsp)
	movq	96(%rsp), %rcx
Ltmp2779:
	.loc	1 320 13 is_stmt 1
	movq	448(%rcx), %rdi
Ltmp2780:
	testq	%rdi, %rdi
	je	LBB113_53
Ltmp2781:
	.loc	1 0 13 is_stmt 0
	movq	96(%rsp), %rcx
Ltmp2782:
	.loc	14 1088 28 is_stmt 1
	movq	456(%rcx), %rcx
Ltmp2377:
	.loc	14 1088 9 is_stmt 0
	movq	%rax, %rsi
	callq	*24(%rcx)
Ltmp2783:
Ltmp2378:
	.loc	14 0 9
	movq	96(%rsp), %r13
Ltmp2784:
	.loc	6 2403 24 is_stmt 1
	lock		decq	(%r13)
Ltmp2785:
	.loc	31 1350 9
	je	LBB113_60
	jmp	LBB113_61
Ltmp2786:
LBB113_53:
Ltmp2382:
	.loc	22 184 1
	callq	__ZN74_$LT$rayon_core..unwind..AbortIfPanic$u20$as$u20$core..ops..drop..Drop$GT$4drop17h166450c6e9b171e4E
Ltmp2383:
	jmp	LBB113_24
Ltmp2787:
LBB113_55:
Ltmp2384:
Ltmp2385:
	.loc	22 0 1 is_stmt 0
	leaq	128(%rsp), %rdi
	.loc	1 332 5 is_stmt 1
	callq	__ZN4core3ptr13drop_in_place17h2910a9839b07439cE
Ltmp2386:
	jmp	LBB113_56
Ltmp2788:
LBB113_54:
Ltmp2379:
Ltmp2380:
	.loc	1 326 13
	callq	__ZN4core3ptr13drop_in_place17h67db51d30a48ed73E
Ltmp2381:
	jmp	LBB113_24
Ltmp2789:
LBB113_111:
Ltmp2387:
LBB113_56:
Ltmp2388:
	.loc	1 0 13 is_stmt 0
	leaq	64(%rsp), %rdi
	.loc	1 761 5 is_stmt 1
	callq	__ZN4core3ptr13drop_in_place17hf7dbf4faffdd2292E
Ltmp2389:
	jmp	LBB113_106
Ltmp2790:
LBB113_110:
Ltmp2374:
Ltmp2375:
	.loc	1 0 5 is_stmt 0
	leaq	64(%rsp), %rdi
	.loc	1 761 5
	callq	__ZN4core3ptr13drop_in_place17hf7dbf4faffdd2292E
Ltmp2376:
	jmp	LBB113_106
Ltmp2791:
LBB113_25:
Ltmp2446:
	.loc	1 0 5
	movq	%rax, %rbx
	jmp	LBB113_26
Ltmp2792:
LBB113_119:
Ltmp2413:
Ltmp2414:
	leaq	128(%rsp), %rdi
Ltmp2793:
	.loc	62 121 5 is_stmt 1
	callq	__ZN4core3ptr13drop_in_place17h15ee6bb5875cdac0E
Ltmp2415:
	jmp	LBB113_106
Ltmp2794:
LBB113_50:
Ltmp2363:
	.loc	62 0 5 is_stmt 0
	movq	%rax, %rbx
Ltmp2364:
	leaq	128(%rsp), %rdi
Ltmp2795:
	.loc	62 121 5
	callq	__ZN4core3ptr13drop_in_place17h15ee6bb5875cdac0E
Ltmp2365:
	jmp	LBB113_109
Ltmp2796:
LBB113_107:
Ltmp2368:
LBB113_108:
	.loc	62 0 5
	movq	%rax, %rbx
Ltmp2797:
LBB113_109:
Ltmp2442:
	leaq	384(%rsp), %rdi
	.loc	1 785 1 is_stmt 1
	callq	__ZN4core3ptr13drop_in_place17h020556b52a67bd92E
Ltmp2443:
	jmp	LBB113_26
Ltmp2798:
LBB113_112:
Ltmp2453:
LBB113_106:
Ltmp2454:
	.loc	1 785 1 is_stmt 0
	callq	__ZN4core3ptr13drop_in_place17h67db51d30a48ed73E
Ltmp2455:
Ltmp2799:
LBB113_24:
	.loc	1 0 1
	ud2
Ltmp2800:
LBB113_27:
Ltmp2347:
	movq	%rax, %rbx
	leaq	128(%rsp), %rdi
	.loc	1 741 5 is_stmt 1
	callq	__ZN4core3ptr13drop_in_place17h9b0c2bd2d1bb9749E
Ltmp2348:
	leaq	64(%rsp), %rdi
	callq	__ZN4core3ptr13drop_in_place17hfaae6e7f22796641E
Ltmp2349:
Ltmp2801:
LBB113_26:
Ltmp2447:
	.loc	1 0 5 is_stmt 0
	leaq	56(%rsp), %rdi
	.loc	1 785 1 is_stmt 1
	callq	__ZN4core3ptr13drop_in_place17hf7dbf4faffdd2292E
Ltmp2448:
Ltmp2802:
LBB113_118:
	.loc	1 0 1 is_stmt 0
	movq	104(%rsp), %rdi
	.loc	1 57 5 is_stmt 1
	callq	__ZN4core3ptr13drop_in_place17hd5404ee24f486603E
	movq	%rbx, %rdi
	callq	__Unwind_Resume
	ud2
Ltmp2803:
LBB113_117:
Ltmp2456:
	.loc	1 0 5 is_stmt 0
	movq	%rax, %rbx
	jmp	LBB113_118
Lfunc_end113:
	.cfi_endproc
	.file	76 "/rustc/6c8927b0cf80ceee19386026cf9d7fd4fd9d486f/src/libstd/collections/hash/map.rs"
	.file	77 "/Users/yingyuhang/.cargo/registry/src/github.com-1ecc6299db9ec823/rayon-core-1.7.1/src/unwind.rs"
	.section	__TEXT,__gcc_except_tab
	.p2align	2
GCC_except_table113:
Lexception37:
	.byte	255
	.byte	155
	.uleb128 Lttbase1-Lttbaseref1
Lttbaseref1:
	.byte	1
	.uleb128 Lcst_end37-Lcst_begin37
Lcst_begin37:
	.uleb128 Lfunc_begin113-Lfunc_begin113
	.uleb128 Ltmp2345-Lfunc_begin113
	.byte	0
	.byte	0
	.uleb128 Ltmp2345-Lfunc_begin113
	.uleb128 Ltmp2346-Ltmp2345
	.uleb128 Ltmp2347-Lfunc_begin113
	.byte	0
	.uleb128 Ltmp2346-Lfunc_begin113
	.uleb128 Ltmp2350-Ltmp2346
	.byte	0
	.byte	0
	.uleb128 Ltmp2350-Lfunc_begin113
	.uleb128 Ltmp2351-Ltmp2350
	.uleb128 Ltmp2368-Lfunc_begin113
	.byte	0
	.uleb128 Ltmp2351-Lfunc_begin113
	.uleb128 Ltmp2354-Ltmp2351
	.byte	0
	.byte	0
	.uleb128 Ltmp2354-Lfunc_begin113
	.uleb128 Ltmp2355-Ltmp2354
	.uleb128 Ltmp2368-Lfunc_begin113
	.byte	0
	.uleb128 Ltmp2361-Lfunc_begin113
	.uleb128 Ltmp2362-Ltmp2361
	.uleb128 Ltmp2363-Lfunc_begin113
	.byte	0
	.uleb128 Ltmp2369-Lfunc_begin113
	.uleb128 Ltmp2370-Ltmp2369
	.uleb128 Ltmp2371-Lfunc_begin113
	.byte	3
	.uleb128 Ltmp2390-Lfunc_begin113
	.uleb128 Ltmp2405-Ltmp2390
	.uleb128 Ltmp2453-Lfunc_begin113
	.byte	0
	.uleb128 Ltmp2411-Lfunc_begin113
	.uleb128 Ltmp2412-Ltmp2411
	.uleb128 Ltmp2413-Lfunc_begin113
	.byte	0
	.uleb128 Ltmp2418-Lfunc_begin113
	.uleb128 Ltmp2419-Ltmp2418
	.uleb128 Ltmp2420-Lfunc_begin113
	.byte	3
	.uleb128 Ltmp2439-Lfunc_begin113
	.uleb128 Ltmp2440-Ltmp2439
	.uleb128 Ltmp2441-Lfunc_begin113
	.byte	0
	.uleb128 Ltmp2444-Lfunc_begin113
	.uleb128 Ltmp2445-Ltmp2444
	.uleb128 Ltmp2446-Lfunc_begin113
	.byte	0
	.uleb128 Ltmp2449-Lfunc_begin113
	.uleb128 Ltmp2450-Ltmp2449
	.uleb128 Ltmp2456-Lfunc_begin113
	.byte	0
	.uleb128 Ltmp2356-Lfunc_begin113
	.uleb128 Ltmp2357-Ltmp2356
	.uleb128 Ltmp2358-Lfunc_begin113
	.byte	0
	.uleb128 Ltmp2366-Lfunc_begin113
	.uleb128 Ltmp2367-Ltmp2366
	.uleb128 Ltmp2368-Lfunc_begin113
	.byte	0
	.uleb128 Ltmp2406-Lfunc_begin113
	.uleb128 Ltmp2407-Ltmp2406
	.uleb128 Ltmp2408-Lfunc_begin113
	.byte	0
	.uleb128 Ltmp2416-Lfunc_begin113
	.uleb128 Ltmp2417-Ltmp2416
	.uleb128 Ltmp2453-Lfunc_begin113
	.byte	0
	.uleb128 Ltmp2352-Lfunc_begin113
	.uleb128 Ltmp2353-Ltmp2352
	.uleb128 Ltmp2368-Lfunc_begin113
	.byte	0
	.uleb128 Ltmp2451-Lfunc_begin113
	.uleb128 Ltmp2410-Ltmp2451
	.uleb128 Ltmp2453-Lfunc_begin113
	.byte	0
	.uleb128 Ltmp2359-Lfunc_begin113
	.uleb128 Ltmp2360-Ltmp2359
	.uleb128 Ltmp2368-Lfunc_begin113
	.byte	0
	.uleb128 Ltmp2421-Lfunc_begin113
	.uleb128 Ltmp2422-Ltmp2421
	.uleb128 Ltmp2423-Lfunc_begin113
	.byte	0
	.uleb128 Ltmp2426-Lfunc_begin113
	.uleb128 Ltmp2427-Ltmp2426
	.uleb128 Ltmp2428-Lfunc_begin113
	.byte	0
	.uleb128 Ltmp2431-Lfunc_begin113
	.uleb128 Ltmp2432-Ltmp2431
	.uleb128 Ltmp2433-Lfunc_begin113
	.byte	0
	.uleb128 Ltmp2434-Lfunc_begin113
	.uleb128 Ltmp2430-Ltmp2434
	.uleb128 Ltmp2436-Lfunc_begin113
	.byte	0
	.uleb128 Ltmp2437-Lfunc_begin113
	.uleb128 Ltmp2425-Ltmp2437
	.uleb128 Ltmp2456-Lfunc_begin113
	.byte	0
	.uleb128 Ltmp2372-Lfunc_begin113
	.uleb128 Ltmp2373-Ltmp2372
	.uleb128 Ltmp2374-Lfunc_begin113
	.byte	0
	.uleb128 Ltmp2377-Lfunc_begin113
	.uleb128 Ltmp2378-Ltmp2377
	.uleb128 Ltmp2379-Lfunc_begin113
	.byte	0
	.uleb128 Ltmp2382-Lfunc_begin113
	.uleb128 Ltmp2383-Ltmp2382
	.uleb128 Ltmp2384-Lfunc_begin113
	.byte	0
	.uleb128 Ltmp2385-Lfunc_begin113
	.uleb128 Ltmp2381-Ltmp2385
	.uleb128 Ltmp2387-Lfunc_begin113
	.byte	0
	.uleb128 Ltmp2388-Lfunc_begin113
	.uleb128 Ltmp2376-Ltmp2388
	.uleb128 Ltmp2456-Lfunc_begin113
	.byte	0
	.uleb128 Ltmp2414-Lfunc_begin113
	.uleb128 Ltmp2415-Ltmp2414
	.uleb128 Ltmp2453-Lfunc_begin113
	.byte	0
	.uleb128 Ltmp2364-Lfunc_begin113
	.uleb128 Ltmp2365-Ltmp2364
	.uleb128 Ltmp2368-Lfunc_begin113
	.byte	0
	.uleb128 Ltmp2442-Lfunc_begin113
	.uleb128 Ltmp2448-Ltmp2442
	.uleb128 Ltmp2456-Lfunc_begin113
	.byte	0
	.uleb128 Ltmp2448-Lfunc_begin113
	.uleb128 Lfunc_end113-Ltmp2448
	.byte	0
	.byte	0
Lcst_end37:
	.byte	0
	.byte	0
	.byte	1
	.byte	125
	.p2align	2
	.long	0
Lttbase1:
	.p2align	2

	.section	__TEXT,__text,regular,pure_instructions
	.globl	__ZN72_$LT$rayon_core..registry..ThreadBuilder$u20$as$u20$core..fmt..Debug$GT$3fmt17hd38547ef2a396ffdE
	.p2align	4, 0x90
__ZN72_$LT$rayon_core..registry..ThreadBuilder$u20$as$u20$core..fmt..Debug$GT$3fmt17hd38547ef2a396ffdE:
Lfunc_begin114:
	.loc	1 61 0 is_stmt 1
	.cfi_startproc
	pushq	%rbp
	.cfi_def_cfa_offset 16
	.cfi_offset %rbp, -16
	movq	%rsp, %rbp
	.cfi_def_cfa_register %rbp
	pushq	%r14
	pushq	%rbx
	subq	$32, %rsp
	.cfi_offset %rbx, -32
	.cfi_offset %r14, -24
	movq	%rdi, %rbx
Ltmp2804:
	.loc	1 62 9 prologue_end
	leaq	l___unnamed_74(%rip), %rdx
	leaq	-40(%rbp), %r14
	movl	$13, %ecx
	movq	%r14, %rdi
	callq	__ZN4core3fmt9Formatter12debug_struct17ha1a64e91d2a98458E
Ltmp2805:
	.loc	1 63 29
	movq	72(%rbx), %rax
Ltmp2806:
	.loc	31 1116 9
	subq	$-128, %rax
Ltmp2807:
	.loc	1 63 29
	movq	%rax, -24(%rbp)
	.loc	1 62 9
	leaq	L___unnamed_75(%rip), %rsi
	leaq	l___unnamed_15(%rip), %r8
	leaq	-24(%rbp), %rcx
	movl	$4, %edx
	movq	%r14, %rdi
	callq	__ZN4core3fmt8builders11DebugStruct5field17h6c54d35ac41bb1e6E
Ltmp2808:
	.loc	1 64 29
	leaq	80(%rbx), %rcx
	.loc	1 62 9
	leaq	l___unnamed_76(%rip), %rsi
	leaq	l___unnamed_16(%rip), %r8
	movl	$5, %edx
	movq	%rax, %rdi
	callq	__ZN4core3fmt8builders11DebugStruct5field17h6c54d35ac41bb1e6E
	leaq	L___unnamed_77(%rip), %rsi
	leaq	l___unnamed_17(%rip), %r8
	movl	$4, %edx
	movq	%rax, %rdi
	movq	%rbx, %rcx
	callq	__ZN4core3fmt8builders11DebugStruct5field17h6c54d35ac41bb1e6E
	.loc	1 66 34
	leaq	24(%rbx), %rcx
	.loc	1 62 9
	leaq	l___unnamed_78(%rip), %rsi
	leaq	l___unnamed_18(%rip), %r8
	movl	$10, %edx
	movq	%rax, %rdi
	callq	__ZN4core3fmt8builders11DebugStruct5field17h6c54d35ac41bb1e6E
	movq	%rax, %rdi
	callq	__ZN4core3fmt8builders11DebugStruct6finish17h67ed49fd5e81bb24E
	.loc	1 68 6
	addq	$32, %rsp
	popq	%rbx
Ltmp2809:
	popq	%r14
	popq	%rbp
	retq
Ltmp2810:
Lfunc_end114:
	.cfi_endproc

	.section	__TEXT,__literal16,16byte_literals
	.p2align	4
LCPI115_0:
	.quad	1
	.quad	1
	.section	__TEXT,__text,regular,pure_instructions
	.globl	__ZN88_$LT$rayon_core..registry..DefaultSpawn$u20$as$u20$rayon_core..registry..ThreadSpawn$GT$5spawn17h97898302eb5140b4E
	.p2align	4, 0x90
__ZN88_$LT$rayon_core..registry..DefaultSpawn$u20$as$u20$rayon_core..registry..ThreadSpawn$GT$5spawn17h97898302eb5140b4E:
Lfunc_begin115:
	.loc	1 93 0
	.cfi_startproc
	.cfi_personality 155, _rust_eh_personality
	.cfi_lsda 16, Lexception38
	pushq	%rbp
	.cfi_def_cfa_offset 16
	.cfi_offset %rbp, -16
	movq	%rsp, %rbp
	.cfi_def_cfa_register %rbp
	pushq	%r15
	pushq	%r14
	pushq	%r13
	pushq	%r12
	pushq	%rbx
	subq	$328, %rsp
	.cfi_offset %rbx, -56
	.cfi_offset %r12, -48
	.cfi_offset %r13, -40
	.cfi_offset %r14, -32
	.cfi_offset %r15, -24
	movq	%rdx, %r15
	movq	%rdi, %r14
Ltmp2811:
Ltmp2857:
	leaq	-80(%rbp), %rdi
Ltmp2858:
	.loc	1 94 21 prologue_end
	callq	__ZN3std6thread7Builder3new17hdf465f36ecb1e0a5E
Ltmp2812:
Ltmp2859:
	.loc	30 268 13
	movq	(%r15), %rax
	testq	%rax, %rax
	cmovneq	%r15, %rax
Ltmp2860:
	.loc	30 456 13
	je	LBB115_17
Ltmp2861:
	.loc	30 0 13 is_stmt 0
	movq	%r14, -160(%rbp)
Ltmp2862:
	.loc	21 818 19 is_stmt 1
	movq	(%rax), %r12
Ltmp2863:
	.loc	21 1923 55
	movq	16(%rax), %r14
Ltmp2864:
	.loc	1 96 17
	movq	-48(%rbp), %rax
Ltmp2865:
	movq	%rax, -240(%rbp)
	movq	-56(%rbp), %rax
	movq	%rax, -248(%rbp)
	movq	-64(%rbp), %rax
	movq	%rax, -256(%rbp)
	movq	-80(%rbp), %rax
	movq	-72(%rbp), %rcx
	movq	%rcx, -264(%rbp)
	movq	%rax, -272(%rbp)
Ltmp2866:
	.loc	11 170 16
	testq	%r14, %r14
	.loc	11 170 13 is_stmt 0
	je	LBB115_3
Ltmp2867:
	.loc	11 80 14 is_stmt 1
	movl	$1, %esi
	movq	%r14, %rdi
	callq	___rust_alloc
Ltmp2868:
	.loc	10 184 17
	testq	%rax, %rax
	je	LBB115_59
Ltmp2869:
	.loc	10 0 17 is_stmt 0
	movq	%rax, %r13
	movq	%r14, %rbx
Ltmp2870:
	.loc	10 373 9 is_stmt 1
	cmpq	%r14, %rbx
Ltmp2871:
	.loc	10 309 9
	jb	LBB115_7
	jmp	LBB115_15
Ltmp2872:
LBB115_3:
	.loc	10 0 9 is_stmt 0
	movl	$1, %r13d
	xorl	%ebx, %ebx
Ltmp2873:
	.loc	10 373 9 is_stmt 1
	cmpq	%r14, %rbx
Ltmp2874:
	.loc	10 309 9
	jae	LBB115_15
Ltmp2875:
LBB115_7:
	.loc	10 0 9 is_stmt 0
	movq	%r12, -128(%rbp)
Ltmp2876:
	.loc	10 408 28 is_stmt 1
	leaq	(%rbx,%rbx), %rax
Ltmp2877:
	.loc	36 1016 9
	cmpq	%r14, %rax
	.loc	36 0 0 is_stmt 0
	cmovbeq	%r14, %rax
Ltmp2878:
	cmpq	$8, %rax
	movl	$8, %r12d
Ltmp2879:
	cmovaq	%rax, %r12
Ltmp2880:
	.loc	10 235 40 is_stmt 1
	testq	%rbx, %rbx
Ltmp2881:
	.loc	10 235 9 is_stmt 0
	je	LBB115_9
Ltmp2882:
	testq	%r13, %r13
	je	LBB115_9
Ltmp2883:
	.loc	11 205 12 is_stmt 1
	cmpq	%r12, %rbx
	.loc	11 205 9 is_stmt 0
	je	LBB115_14
Ltmp2884:
	.loc	11 124 14 is_stmt 1
	movl	$1, %edx
