	.section	__TEXT,__text,regular,pure_instructions
	.macosx_version_min 10, 7
	.file	1 "/Users/yingyuhang/.cargo/registry/src/github.com-1ecc6299db9ec823/rayon-core-1.7.1/src/registry.rs"
	.file	2 "/Users/yingyuhang/.cargo/registry/src/github.com-1ecc6299db9ec823/lazy_static-1.4.0/src/lib.rs"
	.file	3 "/Users/yingyuhang/.cargo/registry/src/github.com-1ecc6299db9ec823/lazy_static-1.4.0/src/inline_lazy.rs"
	.file	4 "/rustc/a74d1862d4d87a56244958416fd05976c58ca1a8/src/libstd/thread/local.rs"
	.p2align	4, 0x90
__ZN15crossbeam_deque15Worker$LT$T$GT$6resize17h768cf062af87d23eE:
Lfunc_begin0:
	.file	5 "/Users/yingyuhang/.cargo/registry/src/github.com-1ecc6299db9ec823/crossbeam-deque-0.7.3/src/lib.rs"
	.loc	5 379 0
	.cfi_startproc
	.cfi_personality 155, _rust_eh_personality
	.cfi_lsda 16, Lexception0
	pushq	%rbp
	.cfi_def_cfa_offset 16
	.cfi_offset %rbp, -16
	movq	%rsp, %rbp
	.cfi_def_cfa_register %rbp
Ltmp7:
	pushq	%r15
	pushq	%r14
	pushq	%r13
	pushq	%r12
	pushq	%rbx
	subq	$136, %rsp
	.cfi_offset %rbx, -56
	.cfi_offset %r12, -48
	.cfi_offset %r13, -40
	.cfi_offset %r14, -32
	.cfi_offset %r15, -24
	.loc	5 381 17 prologue_end
	movq	(%rdi), %rax
Ltmp8:
	.file	6 "/rustc/a74d1862d4d87a56244958416fd05976c58ca1a8/src/libcore/sync/atomic.rs"
	.loc	6 2276 20
	movq	264(%rax), %r14
Ltmp9:
	.loc	6 2276 20 is_stmt 0
	movq	256(%rax), %r8
Ltmp10:
	.loc	5 383 22 is_stmt 1
	movq	8(%rdi), %r15
Ltmp11:
	movq	16(%rdi), %r12
Ltmp12:
	.loc	5 0 22 is_stmt 0
	movq	%rsi, -104(%rbp)
Ltmp13:
	.file	7 "/rustc/a74d1862d4d87a56244958416fd05976c58ca1a8/src/libcore/num/mod.rs"
	.loc	7 4073 16 is_stmt 1
	cmpq	$2, %rsi
	.loc	7 4073 13 is_stmt 0
	jae	LBB0_2
Ltmp14:
	.loc	7 0 13
	xorl	%eax, %eax
	.loc	7 4104 17 is_stmt 1
	incq	%rax
	jne	LBB0_4
	jmp	LBB0_38
Ltmp15:
LBB0_2:
	.loc	7 4075 21
	leaq	-1(%rsi), %rax
Ltmp16:
	.loc	7 4080 30
	bsrq	%rax, %rcx
	xorl	$63, %ecx
Ltmp17:
	.loc	7 0 30 is_stmt 0
	movq	$-1, %rax
Ltmp18:
	.loc	7 4081 13 is_stmt 1
	shrq	%cl, %rax
Ltmp19:
	.loc	7 4104 17
	incq	%rax
	je	LBB0_38
Ltmp20:
LBB0_4:
	.loc	5 137 31
	movq	%rax, -112(%rbp)
Ltmp21:
	.file	8 "/rustc/a74d1862d4d87a56244958416fd05976c58ca1a8/src/libcore/macros/mod.rs"
	.loc	8 46 21
	cmpq	%rsi, %rax
	.loc	8 46 17 is_stmt 0
	jne	LBB0_11
Ltmp22:
	.loc	8 0 17
	movq	%rsi, %rax
Ltmp23:
	movl	$16, %ecx
Ltmp24:
	.file	9 "/rustc/a74d1862d4d87a56244958416fd05976c58ca1a8/src/libcore/alloc/layout.rs"
	.loc	9 250 85 is_stmt 1
	xorl	%r13d, %r13d
	movq	%rsi, -96(%rbp)
Ltmp25:
	.loc	7 3688 26
	mulq	%rcx
Ltmp26:
	.loc	9 250 85
	setno	%cl
Ltmp27:
	.file	10 "/rustc/a74d1862d4d87a56244958416fd05976c58ca1a8/src/libcore/result.rs"
	.loc	10 852 13
	jo	LBB0_39
Ltmp28:
	.loc	10 0 13 is_stmt 0
	movq	%rdi, -88(%rbp)
Ltmp29:
	movb	%cl, %r13b
	shlq	$3, %r13
Ltmp30:
	.file	11 "/rustc/a74d1862d4d87a56244958416fd05976c58ca1a8/src/liballoc/alloc.rs"
	.loc	11 170 16 is_stmt 1
	testq	%rax, %rax
	movq	%rax, -48(%rbp)
	.loc	11 170 13 is_stmt 0
	je	LBB0_7
Ltmp31:
	.loc	11 0 13
	movq	%rax, %rdi
Ltmp32:
	.loc	11 80 5 is_stmt 1
	movq	%r13, %rsi
Ltmp33:
	.loc	11 0 5 is_stmt 0
	movq	%r8, %rbx
Ltmp34:
	.loc	11 80 5
	callq	___rust_alloc
Ltmp35:
	.loc	11 0 5
	movq	%rbx, %r8
	.loc	11 80 5
	movq	%rax, %rbx
Ltmp36:
	.loc	10 852 13 is_stmt 1
	testq	%rbx, %rbx
	je	LBB0_10
Ltmp37:
LBB0_12:
	.loc	5 388 15
	cmpq	%r8, %r14
	movq	-96(%rbp), %r13
Ltmp38:
	.loc	5 388 9 is_stmt 0
	je	LBB0_19
Ltmp39:
	.loc	5 0 0
	movq	%r13, %rax
	subq	$1, %rax
	setb	%cl
Ltmp40:
	subq	$1, %r12
Ltmp41:
	.loc	5 388 9
	jb	LBB0_40
Ltmp42:
	testb	%cl, %cl
	jne	LBB0_40
Ltmp43:
	movl	%r14d, %edx
	subl	%r8d, %edx
	movq	%r8, %rcx
	testb	$1, %dl
	je	LBB0_17
Ltmp44:
	.loc	5 154 25 is_stmt 1
	movq	%r8, %rcx
	andq	%r12, %rcx
Ltmp45:
	.file	12 "/rustc/a74d1862d4d87a56244958416fd05976c58ca1a8/src/libcore/ptr/mut_ptr.rs"
	.loc	12 152 9
	shlq	$4, %rcx
Ltmp46:
	.loc	5 154 25
	movq	%r8, %rdx
	andq	%rax, %rdx
Ltmp47:
	.loc	12 152 9
	shlq	$4, %rdx
Ltmp48:
	.file	13 "/rustc/a74d1862d4d87a56244958416fd05976c58ca1a8/src/libcore/intrinsics.rs"
	.loc	13 2058 5
	movq	(%r15,%rcx), %rsi
	movq	8(%r15,%rcx), %rcx
	movq	%rcx, 8(%rbx,%rdx)
	movq	%rsi, (%rbx,%rdx)
Ltmp49:
	.loc	7 1247 17
	leaq	1(%r8), %rcx
Ltmp50:
LBB0_17:
	.loc	5 388 9
	incq	%r8
	cmpq	%r8, %r14
	je	LBB0_19
Ltmp51:
	.p2align	4, 0x90
LBB0_18:
	.loc	5 154 25
	movq	%rcx, %rdx
	andq	%r12, %rdx
Ltmp52:
	.loc	12 152 9
	shlq	$4, %rdx
Ltmp53:
	.loc	5 154 25
	movq	%rcx, %rsi
	andq	%rax, %rsi
Ltmp54:
	.loc	12 152 9
	shlq	$4, %rsi
Ltmp55:
	.loc	13 2058 5
	movq	(%r15,%rdx), %rdi
	movq	8(%r15,%rdx), %rdx
	movq	%rdx, 8(%rbx,%rsi)
	movq	%rdi, (%rbx,%rsi)
Ltmp56:
	.loc	7 1247 17
	leaq	1(%rcx), %rdx
Ltmp57:
	.loc	5 154 25
	movq	%rdx, %rsi
	andq	%r12, %rsi
Ltmp58:
	.loc	12 152 9
	shlq	$4, %rsi
Ltmp59:
	.loc	5 154 25
	andq	%rax, %rdx
Ltmp60:
	.loc	12 152 9
	shlq	$4, %rdx
Ltmp61:
	.loc	13 2058 5
	movq	(%r15,%rsi), %rdi
	movq	8(%r15,%rsi), %rsi
	movq	%rsi, 8(%rbx,%rdx)
	movq	%rdi, (%rbx,%rdx)
Ltmp62:
	.loc	5 388 15
	addq	$2, %rcx
	cmpq	%r14, %rcx
	.loc	5 388 9 is_stmt 0
	jne	LBB0_18
Ltmp63:
LBB0_19:
	.loc	5 393 22 is_stmt 1
	callq	__ZN15crossbeam_epoch7default3pin17h68b6e7584ca53a07E
	movq	%rax, -80(%rbp)
Ltmp64:
	.loc	5 0 22 is_stmt 0
	movq	-88(%rbp), %rax
Ltmp65:
	.loc	13 2058 5 is_stmt 1
	movq	%rbx, 8(%rax)
	movq	%r13, 16(%rax)
Ltmp66:
	.loc	5 398 13
	movq	(%rax), %r14
Ltmp67:
	.loc	11 80 5
	movl	$16, %edi
	movl	$8, %esi
	callq	___rust_alloc
Ltmp68:
	.loc	11 269 9
	testq	%rax, %rax
	je	LBB0_41
Ltmp69:
	.loc	5 0 0 is_stmt 0
	movq	%rax, %r15
Ltmp70:
	.file	14 "/rustc/a74d1862d4d87a56244958416fd05976c58ca1a8/src/liballoc/boxed.rs"
	.loc	14 174 13 is_stmt 1
	movq	%rbx, (%rax)
	movq	%r13, 8(%rax)
Ltmp71:
	.loc	6 2288 20
	xchgq	%r15, 128(%r14)
Ltmp72:
	.file	15 "/Users/yingyuhang/.cargo/registry/src/github.com-1ecc6299db9ec823/crossbeam-epoch-0.8.2/src/guard.rs"
	.loc	15 194 30
	movq	-80(%rbp), %rdi
Ltmp73:
	.loc	15 194 16 is_stmt 0
	testq	%rdi, %rdi
	je	LBB0_21
Ltmp74:
	.file	16 "/Users/yingyuhang/.cargo/registry/src/github.com-1ecc6299db9ec823/crossbeam-epoch-0.8.2/src/deferred.rs"
	.loc	16 49 17 is_stmt 1
	leaq	__ZN15crossbeam_epoch8deferred8Deferred3new4call17h2d16e7d77573055eE(%rip), %rax
	movq	%rax, -176(%rbp)
	movq	%r15, -168(%rbp)
Ltmp0:
	leaq	-176(%rbp), %rsi
	leaq	-80(%rbp), %rdx
Ltmp75:
	.loc	15 195 13
	callq	__ZN15crossbeam_epoch8internal5Local5defer17h4b06bd919cd43fa4E
Ltmp76:
Ltmp1:
	.loc	15 0 13 is_stmt 0
	movq	-48(%rbp), %rax
	.loc	5 407 12 is_stmt 1
	cmpq	$1024, %rax
	.loc	5 407 9 is_stmt 0
	jae	LBB0_30
	jmp	LBB0_31
Ltmp77:
LBB0_7:
	.loc	11 0 0
	movq	%r13, %rbx
Ltmp78:
	.loc	10 852 13 is_stmt 1
	testq	%rbx, %rbx
	jne	LBB0_12
Ltmp79:
LBB0_10:
	.loc	10 0 13 is_stmt 0
	movq	-48(%rbp), %rdi
Ltmp80:
	.loc	10 853 23 is_stmt 1
	movq	%r13, %rsi
	callq	__ZN5alloc7raw_vec19RawVec$LT$T$C$A$GT$11allocate_in28_$u7b$$u7b$closure$u7d$$u7d$17h524579ed685fd65dE
Ltmp81:
LBB0_21:
	.file	17 "/Users/yingyuhang/.cargo/registry/src/github.com-1ecc6299db9ec823/crossbeam-epoch-0.8.2/src/atomic.rs"
	.loc	17 1077 13
	cmpq	$7, %r15
	.loc	8 181 59
	jbe	LBB0_22
Ltmp82:
	.loc	17 113 15
	andq	$-8, %r15
Ltmp83:
	.loc	5 403 39
	movq	8(%r15), %rsi
Ltmp84:
	.file	18 "/rustc/a74d1862d4d87a56244958416fd05976c58ca1a8/src/liballoc/raw_vec.rs"
	.loc	18 200 40
	testq	%rsi, %rsi
	.loc	18 200 9 is_stmt 0
	je	LBB0_27
Ltmp85:
	.loc	18 207 28 is_stmt 1
	shlq	$4, %rsi
Ltmp86:
	.loc	18 532 16
	je	LBB0_27
Ltmp87:
	.loc	5 0 0 is_stmt 0
	movq	(%r15), %rdi
Ltmp88:
	.loc	11 102 5 is_stmt 1
	movl	$8, %edx
	callq	___rust_dealloc
Ltmp89:
LBB0_27:
	.loc	11 102 5 is_stmt 0
	movl	$16, %esi
	movl	$8, %edx
	movq	%r15, %rdi
	callq	___rust_dealloc
	movq	-48(%rbp), %rax
Ltmp90:
	.loc	5 407 12 is_stmt 1
	cmpq	$1024, %rax
	.loc	5 407 9 is_stmt 0
	jb	LBB0_31
Ltmp91:
LBB0_30:
Ltmp2:
	.loc	5 0 9
	leaq	-80(%rbp), %rdi
	.loc	5 408 13 is_stmt 1
	callq	__ZN15crossbeam_epoch5guard5Guard5flush17h2e6802731d319fd3E
Ltmp3:
Ltmp92:
LBB0_31:
	.loc	15 422 39
	movq	-80(%rbp), %rdi
Ltmp93:
	.loc	15 422 16 is_stmt 0
	testq	%rdi, %rdi
	je	LBB0_36
Ltmp94:
	.file	19 "/Users/yingyuhang/.cargo/registry/src/github.com-1ecc6299db9ec823/crossbeam-epoch-0.8.2/src/internal.rs"
	.loc	19 507 27 is_stmt 1
	movq	2080(%rdi), %rax
Ltmp95:
	.loc	19 508 30
	subq	$1, %rax
Ltmp96:
	jb	LBB0_42
Ltmp97:
	.loc	13 2058 5
	movq	%rax, 2080(%rdi)
Ltmp98:
	.loc	19 510 9
	jne	LBB0_36
Ltmp99:
	.loc	6 2264 20
	movq	$0, 8(%rdi)
Ltmp100:
	.loc	19 513 16
	cmpq	$0, 2088(%rdi)
	.loc	19 513 13 is_stmt 0
	je	LBB0_35
Ltmp101:
LBB0_36:
	.loc	5 410 6 is_stmt 1
	addq	$136, %rsp
	popq	%rbx
	popq	%r12
	popq	%r13
	popq	%r14
	popq	%r15
	popq	%rbp
	retq
Ltmp102:
LBB0_35:
	.loc	19 514 17
	callq	__ZN15crossbeam_epoch8internal5Local8finalize17hbdefd0f40d84cd73E
Ltmp103:
	.loc	19 0 17 is_stmt 0
	jmp	LBB0_36
Ltmp104:
LBB0_38:
	.loc	7 4104 17 is_stmt 1
	leaq	_str.4(%rip), %rdi
Ltmp105:
	leaq	l___unnamed_31(%rip), %rdx
	movl	$28, %esi
Ltmp106:
	callq	__ZN4core9panicking5panic17h736ee47a631475c0E
Ltmp107:
LBB0_11:
	.loc	7 0 17 is_stmt 0
	leaq	-104(%rbp), %rax
Ltmp108:
	.loc	8 52 19 is_stmt 1
	movq	%rax, -120(%rbp)
	leaq	-112(%rbp), %rax
	.loc	8 52 31 is_stmt 0
	movq	%rax, -128(%rbp)
	leaq	-120(%rbp), %rax
Ltmp109:
	.file	20 "/rustc/a74d1862d4d87a56244958416fd05976c58ca1a8/src/libstd/macros.rs"
	.loc	20 16 38 is_stmt 1
	movq	%rax, -80(%rbp)
	leaq	__ZN42_$LT$$RF$T$u20$as$u20$core..fmt..Debug$GT$3fmt17he0e27fbe221ebbb7E(%rip), %rax
	movq	%rax, -72(%rbp)
	leaq	-128(%rbp), %rcx
	movq	%rcx, -64(%rbp)
	movq	%rax, -56(%rbp)
Ltmp110:
	.file	21 "/rustc/a74d1862d4d87a56244958416fd05976c58ca1a8/src/libcore/fmt/mod.rs"
	.loc	21 328 9
	leaq	l___unnamed_32(%rip), %rax
Ltmp111:
	movq	%rax, -176(%rbp)
	movq	$3, -168(%rbp)
	movq	$0, -160(%rbp)
	leaq	-80(%rbp), %rax
Ltmp112:
	movq	%rax, -144(%rbp)
	movq	$2, -136(%rbp)
Ltmp113:
	.loc	20 16 9
	leaq	l___unnamed_33(%rip), %rsi
Ltmp114:
	.loc	20 0 9 is_stmt 0
	leaq	-176(%rbp), %rdi
Ltmp115:
	.loc	20 16 9
	callq	__ZN3std9panicking15begin_panic_fmt17h2e6dba6f5c07d155E
Ltmp116:
LBB0_39:
	.loc	10 853 23 is_stmt 1
	callq	__ZN5alloc7raw_vec19RawVec$LT$T$C$A$GT$11allocate_in28_$u7b$$u7b$closure$u7d$$u7d$17h6720f4cff2ae0c93E
Ltmp117:
LBB0_40:
	.loc	5 0 0 is_stmt 0
	leaq	_str.0(%rip), %rdi
	leaq	l___unnamed_34(%rip), %rdx
	movl	$33, %esi
	callq	__ZN4core9panicking5panic17h736ee47a631475c0E
Ltmp118:
LBB0_41:
	.loc	11 270 19 is_stmt 1
	movl	$16, %edi
	movl	$8, %esi
	callq	__ZN5alloc5alloc18handle_alloc_error17hbc0ab0ed90816c07E
Ltmp119:
LBB0_42:
	.loc	19 508 30
	leaq	_str.0(%rip), %rdi
Ltmp120:
	leaq	l___unnamed_35(%rip), %rdx
	movl	$33, %esi
	callq	__ZN4core9panicking5panic17h736ee47a631475c0E
Ltmp121:
LBB0_22:
Ltmp4:
	.loc	20 13 23
	leaq	l___unnamed_36(%rip), %rdi
	leaq	l___unnamed_37(%rip), %rdx
	movl	$39, %esi
	callq	__ZN3std9panicking11begin_panic17h5383990145059594E
Ltmp5:
Ltmp122:
	ud2
Ltmp123:
LBB0_37:
Ltmp6:
	.loc	20 0 23 is_stmt 0
	movq	%rax, %rbx
	leaq	-80(%rbp), %rdi
	.loc	5 410 5 is_stmt 1
	callq	__ZN4core3ptr13drop_in_place17h9ddff43834e16ad4E
	movq	%rbx, %rdi
	callq	__Unwind_Resume
	ud2
Ltmp124:
Lfunc_end0:
	.cfi_endproc
	.file	22 "/rustc/a74d1862d4d87a56244958416fd05976c58ca1a8/src/liballoc/vec.rs"
	.file	23 "/rustc/a74d1862d4d87a56244958416fd05976c58ca1a8/src/libcore/ptr/mod.rs"
	.file	24 "/rustc/a74d1862d4d87a56244958416fd05976c58ca1a8/src/libcore/mem/mod.rs"
	.file	25 "/rustc/a74d1862d4d87a56244958416fd05976c58ca1a8/src/libcore/cell.rs"
	.file	26 "/Users/yingyuhang/.cargo/registry/src/github.com-1ecc6299db9ec823/crossbeam-epoch-0.8.2/src/epoch.rs"
	.section	__TEXT,__gcc_except_tab
	.p2align	2
GCC_except_table0:
Lexception0:
	.byte	255
	.byte	255
	.byte	1
	.uleb128 Lcst_end0-Lcst_begin0
Lcst_begin0:
	.uleb128 Lfunc_begin0-Lfunc_begin0
	.uleb128 Ltmp0-Lfunc_begin0
	.byte	0
	.byte	0
	.uleb128 Ltmp0-Lfunc_begin0
	.uleb128 Ltmp3-Ltmp0
	.uleb128 Ltmp6-Lfunc_begin0
	.byte	0
	.uleb128 Ltmp3-Lfunc_begin0
	.uleb128 Ltmp4-Ltmp3
	.byte	0
	.byte	0
	.uleb128 Ltmp4-Lfunc_begin0
	.uleb128 Ltmp5-Ltmp4
	.uleb128 Ltmp6-Lfunc_begin0
	.byte	0
	.uleb128 Ltmp5-Lfunc_begin0
	.uleb128 Lfunc_end0-Ltmp5
	.byte	0
	.byte	0
Lcst_end0:
	.p2align	2

	.section	__TEXT,__text,regular,pure_instructions
	.p2align	4, 0x90
__ZN15crossbeam_epoch7default3pin17h68b6e7584ca53a07E:
Lfunc_begin1:
	.file	27 "/Users/yingyuhang/.cargo/registry/src/github.com-1ecc6299db9ec823/crossbeam-epoch-0.8.2/src/default.rs"
	.loc	27 22 0
	.cfi_startproc
	.cfi_personality 155, _rust_eh_personality
	.cfi_lsda 16, Lexception1
	pushq	%rbp
	.cfi_def_cfa_offset 16
	.cfi_offset %rbp, -16
	movq	%rsp, %rbp
	.cfi_def_cfa_register %rbp
Ltmp128:
	pushq	%r14
	pushq	%rbx
	subq	$16, %rsp
	.cfi_offset %rbx, -32
	.cfi_offset %r14, -24
	.file	28 "/rustc/a74d1862d4d87a56244958416fd05976c58ca1a8/src/libstd/thread/local.rs"
	.loc	28 262 32 prologue_end
	callq	__ZN15crossbeam_epoch7default6HANDLE7__getit17h2a0a5f5d6ff0ab6eE
	.loc	28 262 82 is_stmt 0
	testq	%rax, %rax
	je	LBB1_1
Ltmp129:
	.loc	27 43 23 is_stmt 1
	movq	%rax, %rdi
	addq	$16, %rsp
	popq	%rbx
	popq	%r14
	popq	%rbp
	jmp	__ZN15crossbeam_epoch7default3pin28_$u7b$$u7b$closure$u7d$$u7d$17h00bc60e41d622aa6E
Ltmp130:
LBB1_1:
	.loc	27 44 32
	movq	__ZN15crossbeam_epoch7default9COLLECTOR17haa275bceec3c53f3E@GOTPCREL(%rip), %rdi
	callq	__ZN79_$LT$crossbeam_epoch..default..COLLECTOR$u20$as$u20$core..ops..deref..Deref$GT$5deref17h112a7c2883546d5aE
	movq	%rax, %rdi
	callq	__ZN15crossbeam_epoch9collector9Collector8register17h61485f26c4de6be0E
	movq	%rax, %rbx
Ltmp131:
	movq	%rax, -24(%rbp)
Ltmp125:
	leaq	-24(%rbp), %rdi
	.loc	27 44 29 is_stmt 0
	callq	__ZN15crossbeam_epoch7default3pin28_$u7b$$u7b$closure$u7d$$u7d$17h00bc60e41d622aa6E
Ltmp126:
Ltmp132:
	.loc	27 0 0
	movq	%rax, %r14
Ltmp133:
	.loc	19 554 28 is_stmt 1
	movq	2088(%rbx), %rax
Ltmp134:
	.loc	19 555 23
	testq	%rax, %rax
	.loc	8 181 59
	je	LBB1_8
Ltmp135:
	.loc	19 553 27
	movq	2080(%rbx), %rcx
Ltmp136:
	.loc	19 556 31
	leaq	-1(%rax), %rdx
Ltmp137:
	.loc	13 2058 5
	movq	%rdx, 2088(%rbx)
Ltmp138:
	.loc	19 558 32
	cmpq	$1, %rax
	.loc	19 558 9 is_stmt 0
	jne	LBB1_6
Ltmp139:
	testq	%rcx, %rcx
	je	LBB1_5
Ltmp140:
LBB1_6:
	.loc	27 24 2 is_stmt 1
	movq	%r14, %rax
	addq	$16, %rsp
	popq	%rbx
	popq	%r14
	popq	%rbp
	retq
LBB1_5:
Ltmp141:
	.loc	19 559 13
	movq	%rbx, %rdi
	callq	__ZN15crossbeam_epoch8internal5Local8finalize17hbdefd0f40d84cd73E
Ltmp142:
	.loc	19 0 13 is_stmt 0
	jmp	LBB1_6
Ltmp143:
LBB1_8:
	.loc	20 13 23 is_stmt 1
	leaq	l___unnamed_38(%rip), %rdi
	leaq	l___unnamed_37(%rip), %rdx
	movl	$35, %esi
	callq	__ZN3std9panicking11begin_panic17h5383990145059594E
Ltmp144:
LBB1_9:
Ltmp127:
	.loc	20 0 23 is_stmt 0
	movq	%rax, %rbx
	leaq	-24(%rbp), %rdi
	.loc	27 44 52 is_stmt 1
	callq	__ZN4core3ptr13drop_in_place17hf1b5129c326f3eaeE
	movq	%rbx, %rdi
	callq	__Unwind_Resume
	ud2
Ltmp145:
Lfunc_end1:
	.cfi_endproc
	.file	29 "/Users/yingyuhang/.cargo/registry/src/github.com-1ecc6299db9ec823/crossbeam-epoch-0.8.2/src/collector.rs"
	.section	__TEXT,__gcc_except_tab
	.p2align	2
GCC_except_table1:
Lexception1:
	.byte	255
	.byte	255
	.byte	1
	.uleb128 Lcst_end1-Lcst_begin1
Lcst_begin1:
	.uleb128 Lfunc_begin1-Lfunc_begin1
	.uleb128 Ltmp125-Lfunc_begin1
	.byte	0
	.byte	0
	.uleb128 Ltmp125-Lfunc_begin1
	.uleb128 Ltmp126-Ltmp125
	.uleb128 Ltmp127-Lfunc_begin1
	.byte	0
	.uleb128 Ltmp126-Lfunc_begin1
	.uleb128 Lfunc_end1-Ltmp126
	.byte	0
	.byte	0
Lcst_end1:
	.p2align	2

	.section	__TEXT,__text,regular,pure_instructions
	.p2align	4, 0x90
__ZN15crossbeam_epoch7default3pin28_$u7b$$u7b$closure$u7d$$u7d$17h00bc60e41d622aa6E:
Lfunc_begin2:
	.loc	27 23 0
	.cfi_startproc
	.cfi_personality 155, _rust_eh_personality
	.cfi_lsda 16, Lexception2
	pushq	%rbp
	.cfi_def_cfa_offset 16
	.cfi_offset %rbp, -16
	movq	%rsp, %rbp
	.cfi_def_cfa_register %rbp
Ltmp153:
	pushq	%rbx
	subq	$184, %rsp
	.cfi_offset %rbx, -24
	.loc	29 75 18 prologue_end
	movq	(%rdi), %rcx
Ltmp154:
	.loc	19 450 21
	movq	%rcx, -16(%rbp)
Ltmp155:
	.loc	19 452 27
	movq	2080(%rcx), %rax
Ltmp156:
	.loc	7 3632 30
	movq	%rax, %rdx
	incq	%rdx
Ltmp157:
	.file	30 "/rustc/a74d1862d4d87a56244958416fd05976c58ca1a8/src/libcore/option.rs"
	.loc	30 387 13
	je	LBB2_1
Ltmp158:
	.loc	13 2058 5
	movq	%rdx, 2080(%rcx)
Ltmp159:
	.loc	19 455 12
	testq	%rax, %rax
	.loc	19 455 9 is_stmt 0
	jne	LBB2_8
Ltmp160:
	.loc	19 456 32 is_stmt 1
	movq	16(%rcx), %rax
Ltmp161:
	.loc	6 2276 20
	movq	384(%rax), %rdx
Ltmp162:
	.loc	26 50 19
	orq	$1, %rdx
Ltmp163:
	.loc	19 476 31
	movq	$0, -24(%rbp)
Ltmp164:
	.loc	6 2335 29
	xorl	%eax, %eax
Ltmp165:
	lock		cmpxchgq	%rdx, 8(%rcx)
Ltmp166:
	.loc	19 477 32
	movq	%rax, -32(%rbp)
Ltmp167:
	.loc	26 19 5
	cmpq	%rax, -24(%rbp)
Ltmp168:
	.loc	8 63 17
	jne	LBB2_5
Ltmp169:
	.loc	6 2654 23
	##MEMBARRIER
Ltmp170:
	.loc	19 491 25
	movq	2096(%rcx), %rax
Ltmp171:
	.loc	7 3320 17
	leaq	1(%rax), %rdx
Ltmp172:
	.loc	13 2058 5
	movq	%rdx, 2096(%rcx)
Ltmp173:
	.loc	19 496 16
	testb	$127, %al
	.loc	19 496 13 is_stmt 0
	jne	LBB2_8
Ltmp174:
	.loc	19 497 17 is_stmt 1
	movq	16(%rcx), %rdi
Ltmp175:
	.file	31 "/rustc/a74d1862d4d87a56244958416fd05976c58ca1a8/src/liballoc/sync.rs"
	.loc	31 1114 9
	subq	$-128, %rdi
Ltmp148:
	leaq	-16(%rbp), %rsi
Ltmp176:
	.loc	19 497 17
	callq	__ZN15crossbeam_epoch8internal6Global7collect17hcf95bb3c3505e5afE
Ltmp177:
Ltmp149:
LBB2_8:
	.loc	19 501 9
	movq	-16(%rbp), %rax
Ltmp178:
	.loc	27 23 38
	addq	$184, %rsp
	popq	%rbx
	popq	%rbp
	retq
Ltmp179:
LBB2_1:
Ltmp150:
	.loc	8 10 9
	leaq	l___unnamed_39(%rip), %rdi
Ltmp180:
	leaq	l___unnamed_40(%rip), %rdx
	movl	$43, %esi
	callq	__ZN4core9panicking5panic17h736ee47a631475c0E
Ltmp181:
Ltmp151:
	.loc	8 0 9 is_stmt 0
	jmp	LBB2_2
Ltmp182:
LBB2_5:
	leaq	-24(%rbp), %rax
Ltmp183:
	.loc	8 69 23 is_stmt 1
	movq	%rax, -40(%rbp)
	leaq	-32(%rbp), %rax
	.loc	8 69 35 is_stmt 0
	movq	%rax, -48(%rbp)
Ltmp184:
	.loc	21 328 9 is_stmt 1
	leaq	l___unnamed_41(%rip), %rax
Ltmp185:
	movq	%rax, -192(%rbp)
	movq	$1, -184(%rbp)
	movq	$0, -176(%rbp)
	leaq	__ZN10rayon_core3log7LOG_ENV17h22466689d510241aE(%rip), %rax
Ltmp186:
	movq	%rax, -160(%rbp)
	movq	$0, -152(%rbp)
	leaq	-40(%rbp), %rax
Ltmp187:
	.loc	20 16 38
	movq	%rax, -96(%rbp)
	leaq	__ZN42_$LT$$RF$T$u20$as$u20$core..fmt..Debug$GT$3fmt17hc8c96f9b9973ee7dE(%rip), %rax
	movq	%rax, -88(%rbp)
	leaq	-48(%rbp), %rcx
Ltmp188:
	movq	%rcx, -80(%rbp)
	movq	%rax, -72(%rbp)
	leaq	-192(%rbp), %rax
	movq	%rax, -64(%rbp)
	movq	__ZN59_$LT$core..fmt..Arguments$u20$as$u20$core..fmt..Display$GT$3fmt17h58d7abb0506833b1E@GOTPCREL(%rip), %rax
	movq	%rax, -56(%rbp)
Ltmp189:
	.loc	21 328 9
	leaq	l___unnamed_42(%rip), %rax
Ltmp190:
	movq	%rax, -144(%rbp)
	movq	$3, -136(%rbp)
	movq	$0, -128(%rbp)
	leaq	-96(%rbp), %rax
Ltmp191:
	movq	%rax, -112(%rbp)
	movq	$3, -104(%rbp)
Ltmp192:
Ltmp146:
	.loc	20 16 9
	leaq	l___unnamed_33(%rip), %rsi
	leaq	-144(%rbp), %rdi
Ltmp193:
	callq	__ZN3std9panicking15begin_panic_fmt17h2e6dba6f5c07d155E
Ltmp194:
Ltmp147:
LBB2_2:
	.loc	20 0 9 is_stmt 0
	ud2
LBB2_9:
Ltmp152:
Ltmp195:
	movq	%rax, %rbx
	leaq	-16(%rbp), %rdi
	.loc	19 502 5 is_stmt 1
	callq	__ZN4core3ptr13drop_in_place17h9ddff43834e16ad4E
	movq	%rbx, %rdi
	callq	__Unwind_Resume
	ud2
Ltmp196:
Lfunc_end2:
	.cfi_endproc
	.file	32 "/rustc/a74d1862d4d87a56244958416fd05976c58ca1a8/src/libcore/num/wrapping.rs"
	.section	__TEXT,__gcc_except_tab
	.p2align	2
GCC_except_table2:
Lexception2:
	.byte	255
	.byte	255
	.byte	1
	.uleb128 Lcst_end2-Lcst_begin2
Lcst_begin2:
	.uleb128 Ltmp148-Lfunc_begin2
	.uleb128 Ltmp147-Ltmp148
	.uleb128 Ltmp152-Lfunc_begin2
	.byte	0
	.uleb128 Ltmp147-Lfunc_begin2
	.uleb128 Lfunc_end2-Ltmp147
	.byte	0
	.byte	0
Lcst_end2:
	.p2align	2

	.section	__TEXT,__text,regular,pure_instructions
	.p2align	4, 0x90
__ZN15crossbeam_epoch8deferred8Deferred3new4call17h2d16e7d77573055eE:
Lfunc_begin3:
	.loc	16 44 0
	.cfi_startproc
	pushq	%rbp
	.cfi_def_cfa_offset 16
	.cfi_offset %rbp, -16
	movq	%rsp, %rbp
	.cfi_def_cfa_register %rbp
Ltmp197:
	pushq	%rbx
	pushq	%rax
	.cfi_offset %rbx, -24
	.loc	16 45 32 prologue_end
	movq	(%rdi), %rbx
Ltmp198:
	.loc	17 1077 13
	cmpq	$7, %rbx
	.loc	8 181 59
	jbe	LBB3_5
Ltmp199:
	.loc	17 113 15
	andq	$-8, %rbx
Ltmp200:
	.loc	5 403 39
	movq	8(%rbx), %rsi
Ltmp201:
	.loc	18 200 40
	testq	%rsi, %rsi
	.loc	18 200 9 is_stmt 0
	je	LBB3_4
Ltmp202:
	.loc	18 207 28 is_stmt 1
	shlq	$4, %rsi
Ltmp203:
	.loc	18 532 16
	je	LBB3_4
Ltmp204:
	.loc	5 0 0 is_stmt 0
	movq	(%rbx), %rdi
Ltmp205:
	.loc	11 102 5 is_stmt 1
	movl	$8, %edx
	callq	___rust_dealloc
Ltmp206:
LBB3_4:
	.loc	11 102 5 is_stmt 0
	movl	$16, %esi
	movl	$8, %edx
	movq	%rbx, %rdi
	addq	$8, %rsp
	popq	%rbx
Ltmp207:
	popq	%rbp
	jmp	___rust_dealloc
Ltmp208:
LBB3_5:
	.loc	20 13 23 is_stmt 1
	leaq	l___unnamed_36(%rip), %rdi
Ltmp209:
	leaq	l___unnamed_37(%rip), %rdx
	movl	$39, %esi
	callq	__ZN3std9panicking11begin_panic17h5383990145059594E
Ltmp210:
Lfunc_end3:
	.cfi_endproc

	.p2align	4, 0x90
__ZN15crossbeam_queue9seg_queue17SegQueue$LT$T$GT$3pop17h5bc64606603130c6E:
Lfunc_begin4:
	.file	33 "/Users/yingyuhang/.cargo/registry/src/github.com-1ecc6299db9ec823/crossbeam-queue-0.2.3/src/seg_queue.rs"
	.loc	33 283 0
	.cfi_startproc
	pushq	%rbp
	.cfi_def_cfa_offset 16
	.cfi_offset %rbp, -16
	movq	%rsp, %rbp
	.cfi_def_cfa_register %rbp
	pushq	%r15
	pushq	%r14
	pushq	%r13
	pushq	%r12
	pushq	%rbx
	pushq	%rax
	.cfi_offset %rbx, -56
	.cfi_offset %r12, -48
	.cfi_offset %r13, -40
	.cfi_offset %r14, -32
	.cfi_offset %r15, -24
	movq	%rdi, %r13
Ltmp211:
	.loc	6 2275 20 prologue_end
	movq	(%rdi), %rax
Ltmp212:
	.loc	6 2275 20 is_stmt 0
	movq	8(%rdi), %r15
Ltmp213:
	.loc	33 0 0
	xorl	%ebx, %ebx
	jmp	LBB4_3
Ltmp214:
	.p2align	4, 0x90
LBB4_1:
	incl	%ebx
Ltmp215:
LBB4_2:
	movq	(%r13), %rax
Ltmp216:
	movq	8(%r13), %r15
Ltmp217:
LBB4_3:
	.loc	33 290 26 is_stmt 1
	movq	%rax, %rcx
	shrq	%rcx
	movl	%ecx, %r14d
	andl	$31, %r14d
Ltmp218:
	.loc	33 293 16
	cmpq	$31, %r14
	.loc	33 293 13 is_stmt 0
	jne	LBB4_8
Ltmp219:
	.file	34 "/Users/yingyuhang/.cargo/registry/src/github.com-1ecc6299db9ec823/crossbeam-utils-0.7.2/src/backoff.rs"
	.loc	34 206 12 is_stmt 1
	cmpl	$7, %ebx
	.loc	34 206 9 is_stmt 0
	jae	LBB4_17
Ltmp220:
	.loc	34 207 25 is_stmt 1
	movl	%ebx, %ecx
	andl	$31, %ecx
	movl	$1, %eax
Ltmp221:
	shll	%cl, %eax
Ltmp222:
	.file	35 "/rustc/a74d1862d4d87a56244958416fd05976c58ca1a8/src/libcore/cmp.rs"
	.loc	35 1137 52
	cmpl	$31, %ecx
Ltmp223:
	.file	36 "/rustc/a74d1862d4d87a56244958416fd05976c58ca1a8/src/libcore/iter/range.rs"
	.loc	36 211 9
	je	LBB4_1
Ltmp224:
	.loc	36 0 9 is_stmt 0
	xorl	%ecx, %ecx
Ltmp225:
	.p2align	4, 0x90
LBB4_7:
	.file	37 "/rustc/a74d1862d4d87a56244958416fd05976c58ca1a8/src/libcore/../stdarch/crates/core_arch/src/x86/sse2.rs"
	.loc	37 25 5 is_stmt 1
	pause
Ltmp226:
	.loc	7 3320 17
	incl	%ecx
Ltmp227:
	.loc	35 1137 52
	cmpl	%eax, %ecx
Ltmp228:
	.loc	36 211 9
	jl	LBB4_7
	jmp	LBB4_22
Ltmp229:
	.p2align	4, 0x90
LBB4_8:
	.loc	33 300 32
	movq	%rax, %r12
	addq	$2, %r12
Ltmp230:
	jb	LBB4_69
Ltmp231:
	.loc	33 302 13
	testb	$1, %r12b
	jne	LBB4_12
Ltmp232:
	.loc	6 2566 23
	mfence
Ltmp233:
	.loc	6 2276 20
	movq	128(%r13), %rdx
Ltmp234:
	.loc	33 307 37
	movq	%rdx, %rsi
	shrq	%rsi
	.loc	33 307 20 is_stmt 0
	cmpq	%rsi, %rcx
	.loc	33 307 17
	je	LBB4_35
Ltmp235:
	.loc	33 312 20 is_stmt 1
	xorq	%rax, %rdx
Ltmp236:
	xorl	%ecx, %ecx
	cmpq	$63, %rdx
	seta	%cl
	.loc	33 312 17 is_stmt 0
	orq	%rcx, %r12
Ltmp237:
LBB4_12:
	.loc	12 28 9 is_stmt 1
	testq	%r15, %r15
Ltmp238:
	.loc	33 319 13
	je	LBB4_18
Ltmp239:
	.loc	6 2365 30
	lock		cmpxchgq	%r12, (%r13)
Ltmp240:
	.loc	33 333 17
	je	LBB4_24
Ltmp241:
	.loc	6 2275 20
	movq	8(%r13), %r15
Ltmp242:
	.loc	35 0 0 is_stmt 0
	cmpl	$6, %ebx
Ltmp243:
	.loc	34 147 21 is_stmt 1
	movl	$6, %ecx
	cmovbl	%ebx, %ecx
	movl	$1, %edx
	shll	%cl, %edx
	xorl	%ecx, %ecx
Ltmp244:
	.p2align	4, 0x90
LBB4_15:
	.loc	37 25 5
	pause
Ltmp245:
	.loc	7 3320 17
	incl	%ecx
Ltmp246:
	.loc	35 1137 52
	cmpl	%edx, %ecx
Ltmp247:
	.loc	36 211 9
	jl	LBB4_15
Ltmp248:
	.loc	34 151 12
	cmpl	$7, %ebx
	.loc	34 151 9 is_stmt 0
	adcl	$0, %ebx
	jmp	LBB4_3
Ltmp249:
LBB4_18:
	.loc	34 206 12 is_stmt 1
	cmpl	$7, %ebx
	.loc	34 206 9 is_stmt 0
	jae	LBB4_17
Ltmp250:
	.loc	34 207 25 is_stmt 1
	movl	%ebx, %ecx
	andl	$31, %ecx
	movl	$1, %eax
Ltmp251:
	shll	%cl, %eax
Ltmp252:
	.loc	35 1137 52
	cmpl	$31, %ecx
Ltmp253:
	.loc	36 211 9
	je	LBB4_1
Ltmp254:
	.loc	36 0 9 is_stmt 0
	xorl	%ecx, %ecx
Ltmp255:
	.p2align	4, 0x90
LBB4_21:
	.loc	37 25 5 is_stmt 1
	pause
Ltmp256:
	.loc	7 3320 17
	incl	%ecx
Ltmp257:
	.loc	35 1137 52
	cmpl	%eax, %ecx
Ltmp258:
	.loc	36 211 9
	jl	LBB4_21
Ltmp259:
	.p2align	4, 0x90
LBB4_22:
	.loc	33 0 0 is_stmt 0
	cmpl	$10, %ebx
	jbe	LBB4_1
	jmp	LBB4_2
Ltmp260:
	.p2align	4, 0x90
LBB4_17:
	callq	__ZN3std6thread9yield_now17h5be99eab200ba878E
Ltmp261:
	cmpl	$10, %ebx
	ja	LBB4_2
	jmp	LBB4_1
Ltmp262:
LBB4_24:
	.loc	33 335 24 is_stmt 1
	leaq	1(%r14), %rax
Ltmp263:
	.loc	33 0 24 is_stmt 0
	movq	%rax, -48(%rbp)
Ltmp264:
	.loc	33 335 24
	cmpq	$31, %rax
	.loc	33 335 21
	jne	LBB4_37
Ltmp265:
	.loc	6 2275 20 is_stmt 1
	movq	(%r15), %rax
Ltmp266:
	.loc	12 28 9
	testq	%rax, %rax
Ltmp267:
	.loc	33 78 13
	jne	LBB4_36
Ltmp268:
	.loc	33 0 13 is_stmt 0
	xorl	%ebx, %ebx
Ltmp269:
	.loc	34 206 12 is_stmt 1
	cmpl	$7, %ebx
	.loc	34 206 9 is_stmt 0
	jb	LBB4_30
	jmp	LBB4_34
Ltmp270:
	.p2align	4, 0x90
LBB4_27:
	.loc	34 221 27 is_stmt 1
	incl	%ebx
Ltmp271:
LBB4_28:
	.loc	6 2275 20
	movq	(%r15), %rax
Ltmp272:
	.loc	12 28 9
	testq	%rax, %rax
Ltmp273:
	.loc	33 78 13
	jne	LBB4_36
Ltmp274:
	.loc	34 206 12
	cmpl	$7, %ebx
	.loc	34 206 9 is_stmt 0
	jae	LBB4_34
Ltmp275:
LBB4_30:
	.loc	34 207 25 is_stmt 1
	movl	%ebx, %ecx
	andl	$31, %ecx
	movl	$1, %eax
Ltmp276:
	shll	%cl, %eax
Ltmp277:
	.loc	35 1137 52
	cmpl	$31, %ecx
Ltmp278:
	.loc	36 211 9
	je	LBB4_27
Ltmp279:
	.loc	36 0 9 is_stmt 0
	xorl	%ecx, %ecx
Ltmp280:
	.p2align	4, 0x90
LBB4_32:
	.loc	37 25 5 is_stmt 1
	pause
Ltmp281:
	.loc	7 3320 17
	incl	%ecx
Ltmp282:
	.loc	35 1137 52
	cmpl	%eax, %ecx
Ltmp283:
	.loc	36 211 9
	jl	LBB4_32
Ltmp284:
	.loc	34 220 12
	cmpl	$10, %ebx
	.loc	34 220 9 is_stmt 0
	jbe	LBB4_27
	jmp	LBB4_28
Ltmp285:
	.p2align	4, 0x90
LBB4_34:
	.loc	34 217 13 is_stmt 1
	callq	__ZN3std6thread9yield_now17h5be99eab200ba878E
Ltmp286:
	.loc	34 220 12
	cmpl	$10, %ebx
	.loc	34 220 9 is_stmt 0
	ja	LBB4_28
	jmp	LBB4_27
Ltmp287:
LBB4_35:
	.loc	34 0 9
	xorl	%ebx, %ebx
	jmp	LBB4_68
Ltmp288:
LBB4_36:
	.loc	7 3320 17 is_stmt 1
	addq	$2, %r12
Ltmp289:
	movq	%r12, %rcx
	andq	$-2, %rcx
Ltmp290:
	.loc	6 2276 20
	movq	(%rax), %rdx
Ltmp291:
	.loc	33 339 29
	orq	$1, %r12
Ltmp292:
	.loc	12 28 9
	testq	%rdx, %rdx
Ltmp293:
	.loc	33 338 25
	cmoveq	%rcx, %r12
Ltmp294:
	.loc	6 2264 20
	movq	%rax, 8(%r13)
Ltmp295:
	.loc	6 2264 20 is_stmt 0
	movq	%r12, (%r13)
Ltmp296:
LBB4_37:
	.file	38 "/rustc/a74d1862d4d87a56244958416fd05976c58ca1a8/src/libcore/ptr/const_ptr.rs"
	.loc	38 158 9 is_stmt 1
	leaq	(%r14,%r14,2), %r12
	leaq	8(%r15,%r12,8), %r13
Ltmp297:
	.loc	6 2275 20
	movq	24(%r15,%r12,8), %rax
Ltmp298:
	.loc	33 44 9
	testb	$1, %al
	jne	LBB4_47
Ltmp299:
	.loc	33 0 9 is_stmt 0
	xorl	%ebx, %ebx
Ltmp300:
	.loc	34 206 12 is_stmt 1
	cmpl	$7, %ebx
	.loc	34 206 9 is_stmt 0
	jb	LBB4_42
	jmp	LBB4_46
Ltmp301:
	.p2align	4, 0x90
LBB4_39:
	.loc	34 221 27 is_stmt 1
	incl	%ebx
Ltmp302:
LBB4_40:
	.loc	6 2275 20
	movq	16(%r13), %rax
Ltmp303:
	.loc	33 44 15
	testb	$1, %al
	.loc	33 44 9 is_stmt 0
	jne	LBB4_47
Ltmp304:
	.loc	34 206 12 is_stmt 1
	cmpl	$7, %ebx
	.loc	34 206 9 is_stmt 0
	jae	LBB4_46
Ltmp305:
LBB4_42:
	.loc	34 207 25 is_stmt 1
	movl	%ebx, %ecx
	andl	$31, %ecx
	movl	$1, %eax
	shll	%cl, %eax
Ltmp306:
	.loc	35 1137 52
	cmpl	$31, %ecx
Ltmp307:
	.loc	36 211 9
	je	LBB4_39
Ltmp308:
	.loc	36 0 9 is_stmt 0
	xorl	%ecx, %ecx
Ltmp309:
	.p2align	4, 0x90
LBB4_44:
	.loc	37 25 5 is_stmt 1
	pause
Ltmp310:
	.loc	7 3320 17
	incl	%ecx
Ltmp311:
	.loc	35 1137 52
	cmpl	%eax, %ecx
Ltmp312:
	.loc	36 211 9
	jl	LBB4_44
Ltmp313:
	.loc	34 220 12
	cmpl	$10, %ebx
	.loc	34 220 9 is_stmt 0
	jbe	LBB4_39
	jmp	LBB4_40
Ltmp314:
	.p2align	4, 0x90
LBB4_46:
	.loc	34 217 13 is_stmt 1
	callq	__ZN3std6thread9yield_now17h5be99eab200ba878E
	.loc	34 220 12
	cmpl	$10, %ebx
	.loc	34 220 9 is_stmt 0
	ja	LBB4_40
	jmp	LBB4_39
Ltmp315:
LBB4_47:
	.loc	33 349 33 is_stmt 1
	movq	(%r13), %r14
Ltmp316:
	movq	16(%r15,%r12,8), %rbx
Ltmp317:
	.loc	33 0 33 is_stmt 0
	movq	-48(%rbp), %rsi
Ltmp318:
	.loc	33 335 24 is_stmt 1
	cmpq	$31, %rsi
Ltmp319:
	.loc	33 353 21
	jne	LBB4_58
Ltmp320:
	.loc	33 0 21 is_stmt 0
	xorl	%ecx, %ecx
Ltmp321:
	.loc	6 1364 42 is_stmt 1
	leaq	(%rcx,%rcx,2), %rax
Ltmp322:
	.loc	6 2275 20
	movq	24(%r15,%rax,8), %rdx
Ltmp323:
	.loc	33 93 16
	testb	$2, %dl
	je	LBB4_51
	jmp	LBB4_54
Ltmp324:
	.p2align	4, 0x90
LBB4_49:
	.loc	33 0 0 is_stmt 0
	addq	$2, %rcx
Ltmp325:
	.loc	35 1137 52 is_stmt 1
	cmpq	$30, %rcx
Ltmp326:
	.loc	36 211 9
	je	LBB4_67
Ltmp327:
	.loc	6 1364 42
	leaq	(%rcx,%rcx,2), %rax
Ltmp328:
	.loc	6 2275 20
	movq	24(%r15,%rax,8), %rdx
Ltmp329:
	.loc	33 93 16
	testb	$2, %dl
	jne	LBB4_54
Ltmp330:
LBB4_51:
	.loc	33 0 0 is_stmt 0
	leaq	24(%r15,%rax,8), %rdx
Ltmp331:
	.loc	6 2403 19 is_stmt 1
	movq	(%rdx), %rax
Ltmp332:
	.p2align	4, 0x90
LBB4_52:
	movq	%rax, %rsi
	orq	$4, %rsi
	lock		cmpxchgq	%rsi, (%rdx)
	jne	LBB4_52
Ltmp333:
	.loc	33 94 20
	testb	$2, %al
	.loc	33 93 16
	je	LBB4_68
Ltmp334:
LBB4_54:
	.loc	33 0 0 is_stmt 0
	movq	%rcx, %rax
	orq	$1, %rax
Ltmp335:
	.loc	6 1364 42 is_stmt 1
	leaq	(%rax,%rax,2), %rax
Ltmp336:
	.loc	6 2275 20
	movq	24(%r15,%rax,8), %rdx
Ltmp337:
	.loc	33 93 16
	testb	$2, %dl
	jne	LBB4_49
Ltmp338:
	.loc	33 0 0 is_stmt 0
	leaq	24(%r15,%rax,8), %rdx
Ltmp339:
	.loc	6 2403 19 is_stmt 1
	movq	(%rdx), %rax
Ltmp340:
	.p2align	4, 0x90
LBB4_56:
	movq	%rax, %rsi
	orq	$4, %rsi
	lock		cmpxchgq	%rsi, (%rdx)
	jne	LBB4_56
Ltmp341:
	.loc	33 94 20
	testb	$2, %al
	jne	LBB4_49
	jmp	LBB4_68
Ltmp342:
LBB4_58:
	.loc	6 2403 19
	movq	16(%r13), %rax
Ltmp343:
	.p2align	4, 0x90
LBB4_59:
	movq	%rax, %rcx
	orq	$2, %rcx
	lock		cmpxchgq	%rcx, 16(%r13)
	jne	LBB4_59
Ltmp344:
	.loc	33 355 31
	testb	$4, %al
	.loc	33 355 28 is_stmt 0
	je	LBB4_68
Ltmp345:
	.loc	35 1137 52 is_stmt 1
	cmpq	$29, %rsi
Ltmp346:
	.loc	36 211 9
	jbe	LBB4_63
	jmp	LBB4_67
Ltmp347:
	.p2align	4, 0x90
LBB4_62:
	.loc	33 0 0 is_stmt 0
	incq	%rsi
Ltmp348:
	.loc	35 1137 52 is_stmt 1
	cmpq	$30, %rsi
Ltmp349:
	.loc	36 211 9
	je	LBB4_67
Ltmp350:
LBB4_63:
	.loc	6 1364 42
	leaq	(%rsi,%rsi,2), %rax
Ltmp351:
	.loc	6 2275 20
	movq	24(%r15,%rax,8), %rcx
Ltmp352:
	.loc	33 93 16
	testb	$2, %cl
	jne	LBB4_62
Ltmp353:
	.loc	33 0 0 is_stmt 0
	leaq	24(%r15,%rax,8), %rcx
Ltmp354:
	.loc	6 2403 19 is_stmt 1
	movq	(%rcx), %rax
Ltmp355:
	.p2align	4, 0x90
LBB4_65:
	movq	%rax, %rdx
	orq	$4, %rdx
	lock		cmpxchgq	%rdx, (%rcx)
	jne	LBB4_65
Ltmp356:
	.loc	33 94 20
	testb	$2, %al
	.loc	33 93 16
	jne	LBB4_62
	jmp	LBB4_68
Ltmp357:
LBB4_67:
	.loc	33 0 0 is_stmt 0
	movl	$752, %esi
	movl	$8, %edx
	movq	%r15, %rdi
	callq	___rust_dealloc
Ltmp358:
LBB4_68:
	.loc	33 368 6 is_stmt 1
	movq	%r14, %rax
	movq	%rbx, %rdx
	addq	$8, %rsp
	popq	%rbx
	popq	%r12
	popq	%r13
	popq	%r14
	popq	%r15
	popq	%rbp
	retq
LBB4_69:
Ltmp359:
	.loc	33 300 32
	leaq	_str.4(%rip), %rdi
	leaq	l___unnamed_43(%rip), %rdx
	movl	$28, %esi
	callq	__ZN4core9panicking5panic17h736ee47a631475c0E
Ltmp360:
Lfunc_end4:
	.cfi_endproc
	.file	39 "/rustc/a74d1862d4d87a56244958416fd05976c58ca1a8/src/libcore/hint.rs"
	.file	40 "/rustc/a74d1862d4d87a56244958416fd05976c58ca1a8/src/libcore/slice/mod.rs"

	.p2align	4, 0x90
__ZN15crossbeam_queue9seg_queue17SegQueue$LT$T$GT$4push17hd08f94a2f2de2c3aE:
Lfunc_begin5:
	.loc	33 188 0
	.cfi_startproc
	.cfi_personality 155, _rust_eh_personality
	.cfi_lsda 16, Lexception3
	pushq	%rbp
	.cfi_def_cfa_offset 16
	.cfi_offset %rbp, -16
	movq	%rsp, %rbp
	.cfi_def_cfa_register %rbp
	pushq	%r15
	pushq	%r14
	pushq	%r13
	pushq	%r12
	pushq	%rbx
	subq	$792, %rsp
	.cfi_offset %rbx, -56
	.cfi_offset %r12, -48
	.cfi_offset %r13, -40
	.cfi_offset %r14, -32
	.cfi_offset %r15, -24
	movq	%rdx, -72(%rbp)
Ltmp370:
	movq	%rsi, -64(%rbp)
Ltmp371:
	movq	%rdi, %r13
Ltmp372:
	.loc	6 2275 20 prologue_end
	movq	128(%rdi), %rcx
Ltmp373:
	.loc	6 2275 20 is_stmt 0
	movq	136(%rdi), %r12
Ltmp374:
	.loc	33 192 30 is_stmt 1
	movq	$0, -48(%rbp)
	xorl	%eax, %eax
	movq	%rax, -56(%rbp)
Ltmp375:
	.loc	33 0 30 is_stmt 0
	jmp	LBB5_1
Ltmp376:
	.p2align	4, 0x90
LBB5_21:
	.loc	33 225 21 is_stmt 1
	movq	%r14, -48(%rbp)
Ltmp377:
LBB5_10:
	.loc	33 0 0 is_stmt 0
	movq	128(%r13), %rcx
Ltmp378:
	movq	136(%r13), %r12
Ltmp379:
LBB5_1:
	.loc	33 196 26 is_stmt 1
	movl	%ecx, %r15d
	shrl	%r15d
	andl	$31, %r15d
Ltmp380:
	.loc	33 199 16
	cmpl	$31, %r15d
	.loc	33 199 13 is_stmt 0
	je	LBB5_2
Ltmp381:
	.loc	33 0 13
	movq	%rcx, -80(%rbp)
Ltmp382:
	.loc	33 208 16 is_stmt 1
	cmpq	$30, %r15
Ltmp383:
	jne	LBB5_15
Ltmp384:
	cmpq	$0, -48(%rbp)
	jne	LBB5_15
Ltmp385:
	.loc	33 0 16 is_stmt 0
	movq	%r13, %r14
Ltmp386:
	.loc	13 2205 5 is_stmt 1
	movl	$752, %esi
	leaq	-832(%rbp), %r13
	movq	%r13, %rdi
	callq	___bzero
Ltmp387:
	.loc	11 80 5
	movl	$752, %edi
	movl	$8, %esi
	callq	___rust_alloc
Ltmp388:
	.loc	11 269 9
	testq	%rax, %rax
	je	LBB5_42
Ltmp389:
	.loc	14 0 0 is_stmt 0
	movq	%rax, %rbx
Ltmp390:
	.loc	14 174 13 is_stmt 1
	movl	$752, %edx
	movq	%rax, %rdi
	movq	%r13, %rsi
	callq	_memcpy
Ltmp391:
	.loc	33 209 17
	movq	%rbx, -48(%rbp)
	movq	%r14, %r13
Ltmp392:
LBB5_15:
	.loc	12 28 9
	testq	%r12, %r12
Ltmp393:
	.loc	33 213 13
	jne	LBB5_22
Ltmp394:
	.loc	13 2205 5
	movl	$752, %esi
	leaq	-832(%rbp), %rbx
	movq	%rbx, %rdi
	callq	___bzero
Ltmp395:
	.loc	11 80 5
	movl	$752, %edi
	movl	$8, %esi
	callq	___rust_alloc
Ltmp396:
	.loc	11 269 9
	testq	%rax, %rax
	je	LBB5_42
Ltmp397:
	.loc	14 0 0 is_stmt 0
	movq	%rax, %r14
Ltmp398:
	.loc	14 174 13 is_stmt 1
	movl	$752, %edx
	movq	%rax, %rdi
	movq	%rbx, %rsi
	callq	_memcpy
Ltmp399:
	.loc	6 2332 31
	xorl	%eax, %eax
	lock		cmpxchgq	%r14, 136(%r13)
Ltmp400:
	.loc	33 216 20
	cmpq	%rax, %r12
	.loc	33 216 17 is_stmt 0
	je	LBB5_18
Ltmp401:
	.loc	23 178 1 is_stmt 1
	movq	-48(%rbp), %rdi
	testq	%rdi, %rdi
	je	LBB5_21
Ltmp402:
	.loc	11 102 5
	movl	$752, %esi
	movl	$8, %edx
	callq	___rust_dealloc
Ltmp403:
	.loc	11 0 5 is_stmt 0
	jmp	LBB5_21
Ltmp404:
LBB5_2:
	movq	-56(%rbp), %r14
Ltmp405:
	.loc	34 206 12 is_stmt 1
	cmpl	$7, %r14d
	.loc	34 206 9 is_stmt 0
	jae	LBB5_3
Ltmp406:
	.loc	34 207 25 is_stmt 1
	movl	%r14d, %ecx
Ltmp407:
	andl	$31, %ecx
	movl	$1, %eax
	shll	%cl, %eax
Ltmp408:
	.loc	35 1137 52
	cmpl	$31, %ecx
Ltmp409:
	.loc	36 211 9
	je	LBB5_8
Ltmp410:
	.loc	36 0 9 is_stmt 0
	xorl	%ecx, %ecx
Ltmp411:
	.p2align	4, 0x90
LBB5_6:
	.loc	37 25 5 is_stmt 1
	pause
Ltmp412:
	.loc	7 3320 17
	incl	%ecx
Ltmp413:
	.loc	35 1137 52
	cmpl	%eax, %ecx
Ltmp414:
	.loc	36 211 9
	jl	LBB5_6
	jmp	LBB5_7
Ltmp415:
LBB5_22:
	.loc	33 0 0 is_stmt 0
	movq	%r12, %r14
Ltmp416:
	movq	-80(%rbp), %rax
Ltmp417:
	.loc	33 232 28 is_stmt 1
	movq	%rax, %rcx
	addq	$2, %rcx
Ltmp418:
	jb	LBB5_41
Ltmp419:
LBB5_24:
	.loc	6 2365 30
	lock		cmpxchgq	%rcx, 128(%r13)
Ltmp420:
	.loc	33 241 17
	je	LBB5_25
Ltmp421:
	.loc	6 2275 20
	movq	136(%r13), %r12
Ltmp422:
	.loc	6 0 20 is_stmt 0
	movq	-56(%rbp), %rdx
Ltmp423:
	cmpl	$6, %edx
Ltmp424:
	.loc	34 147 21 is_stmt 1
	movl	$6, %ecx
Ltmp425:
	cmovbl	%edx, %ecx
	movl	$1, %esi
	shll	%cl, %esi
	xorl	%ecx, %ecx
Ltmp426:
	.p2align	4, 0x90
LBB5_30:
	.loc	37 25 5
	pause
Ltmp427:
	.loc	7 3320 17
	incl	%ecx
Ltmp428:
	.loc	35 1137 52
	cmpl	%esi, %ecx
Ltmp429:
	.loc	36 211 9
	jl	LBB5_30
Ltmp430:
	.loc	34 151 12
	cmpl	$7, %edx
	.loc	34 151 9 is_stmt 0
	adcl	$0, %edx
	movq	%rdx, -56(%rbp)
	movq	%rax, %rcx
Ltmp431:
	.loc	34 0 9
	jmp	LBB5_1
Ltmp432:
LBB5_18:
	.loc	6 2264 20 is_stmt 1
	movq	%r14, 8(%r13)
Ltmp433:
	.loc	6 0 20 is_stmt 0
	movq	-80(%rbp), %rax
Ltmp434:
	.loc	33 232 28 is_stmt 1
	movq	%rax, %rcx
	addq	$2, %rcx
Ltmp435:
	.loc	33 0 28 is_stmt 0
	jae	LBB5_24
	jmp	LBB5_41
Ltmp436:
LBB5_3:
Ltmp367:
	.loc	34 217 13 is_stmt 1
	callq	__ZN3std6thread9yield_now17h5be99eab200ba878E
Ltmp437:
Ltmp368:
LBB5_7:
	.loc	34 220 12
	cmpl	$10, %r14d
	.loc	34 220 9 is_stmt 0
	ja	LBB5_9
Ltmp438:
LBB5_8:
	.loc	34 221 27 is_stmt 1
	incl	%r14d
Ltmp439:
LBB5_9:
	.loc	34 0 27 is_stmt 0
	movq	%r14, -56(%rbp)
	jmp	LBB5_10
Ltmp440:
LBB5_25:
	.loc	33 208 16 is_stmt 1
	cmpq	$30, %r15
Ltmp441:
	.loc	33 243 21
	jne	LBB5_36
Ltmp442:
	.loc	33 244 56
	movq	-48(%rbp), %rax
Ltmp443:
	.loc	33 0 56 is_stmt 0
	movq	%rax, -832(%rbp)
Ltmp444:
	.loc	30 387 13 is_stmt 1
	testq	%rax, %rax
	je	LBB5_27
Ltmp445:
	.loc	7 3320 17
	addq	$2, %rcx
Ltmp446:
	.loc	6 2264 20
	movq	%rax, 136(%r13)
Ltmp447:
	.loc	6 2264 20 is_stmt 0
	movq	%rcx, 128(%r13)
Ltmp448:
	.loc	6 2264 20
	movq	%rax, (%r14)
Ltmp449:
	.loc	6 0 20
	movq	-64(%rbp), %rax
Ltmp450:
	.loc	23 836 42 is_stmt 1
	movq	%rax, 728(%r14)
	movq	-72(%rbp), %rax
	movq	%rax, 736(%r14)
Ltmp451:
	.loc	6 2402 20
	lock		orq	$1, 744(%r14)
	jmp	LBB5_33
Ltmp452:
LBB5_36:
	.loc	38 158 9
	leaq	(%r15,%r15,2), %rax
Ltmp453:
	.loc	38 0 9 is_stmt 0
	movq	-64(%rbp), %rcx
Ltmp454:
	.loc	23 836 42 is_stmt 1
	movq	%rcx, 8(%r14,%rax,8)
	movq	-72(%rbp), %rcx
	movq	%rcx, 16(%r14,%rax,8)
Ltmp455:
	.loc	6 2402 20
	lock		orq	$1, 24(%r14,%rax,8)
Ltmp456:
	.loc	23 178 1
	movq	-48(%rbp), %rdi
	testq	%rdi, %rdi
	je	LBB5_33
Ltmp457:
	.loc	11 102 5
	movl	$752, %esi
	movl	$8, %edx
	callq	___rust_dealloc
Ltmp458:
LBB5_33:
	.loc	33 266 6
	addq	$792, %rsp
	popq	%rbx
	popq	%r12
	popq	%r13
Ltmp459:
	popq	%r14
	popq	%r15
	popq	%rbp
	retq
Ltmp460:
LBB5_42:
	.loc	33 0 0 is_stmt 0
	movl	$752, %edi
	movl	$8, %esi
	callq	__ZN5alloc5alloc18handle_alloc_error17hbc0ab0ed90816c07E
Ltmp461:
LBB5_41:
Ltmp364:
	.loc	33 232 28 is_stmt 1
	leaq	_str.4(%rip), %rdi
	leaq	l___unnamed_44(%rip), %rdx
	movl	$28, %esi
	callq	__ZN4core9panicking5panic17h736ee47a631475c0E
Ltmp365:
Ltmp462:
LBB5_28:
	.loc	33 0 28 is_stmt 0
	ud2
Ltmp463:
LBB5_27:
Ltmp361:
	.loc	8 10 9 is_stmt 1
	leaq	l___unnamed_39(%rip), %rdi
	leaq	l___unnamed_45(%rip), %rdx
	movl	$43, %esi
	callq	__ZN4core9panicking5panic17h736ee47a631475c0E
Ltmp464:
Ltmp362:
	.loc	8 0 9 is_stmt 0
	jmp	LBB5_28
Ltmp465:
LBB5_34:
Ltmp363:
	movq	%rax, %rbx
Ltmp466:
	leaq	-832(%rbp), %rdi
	callq	__ZN4core3ptr13drop_in_place17hdc565dfd53e95a27E
	movq	%rbx, %rdi
	callq	__Unwind_Resume
	ud2
Ltmp467:
LBB5_39:
Ltmp366:
	jmp	LBB5_40
Ltmp468:
LBB5_38:
Ltmp369:
LBB5_40:
	movq	%rax, %rbx
Ltmp469:
	leaq	-48(%rbp), %rdi
	callq	__ZN4core3ptr13drop_in_place17hdc565dfd53e95a27E
	movq	%rbx, %rdi
	callq	__Unwind_Resume
	ud2
Ltmp470:
Lfunc_end5:
	.cfi_endproc
	.file	41 "/rustc/a74d1862d4d87a56244958416fd05976c58ca1a8/src/libcore/mem/maybe_uninit.rs"
	.section	__TEXT,__gcc_except_tab
	.p2align	2
GCC_except_table5:
Lexception3:
	.byte	255
	.byte	255
	.byte	1
	.uleb128 Lcst_end3-Lcst_begin3
Lcst_begin3:
	.uleb128 Lfunc_begin5-Lfunc_begin5
	.uleb128 Ltmp367-Lfunc_begin5
	.byte	0
	.byte	0
	.uleb128 Ltmp367-Lfunc_begin5
	.uleb128 Ltmp368-Ltmp367
	.uleb128 Ltmp369-Lfunc_begin5
	.byte	0
	.uleb128 Ltmp364-Lfunc_begin5
	.uleb128 Ltmp365-Ltmp364
	.uleb128 Ltmp366-Lfunc_begin5
	.byte	0
	.uleb128 Ltmp361-Lfunc_begin5
	.uleb128 Ltmp362-Ltmp361
	.uleb128 Ltmp363-Lfunc_begin5
	.byte	0
	.uleb128 Ltmp362-Lfunc_begin5
	.uleb128 Lfunc_end5-Ltmp362
	.byte	0
	.byte	0
Lcst_end3:
	.p2align	2

	.section	__TEXT,__text,regular,pure_instructions
	.p2align	4, 0x90
__ZN36_$LT$T$u20$as$u20$core..any..Any$GT$7type_id17ha15912ba17628998E:
Lfunc_begin6:
	.file	42 "/rustc/a74d1862d4d87a56244958416fd05976c58ca1a8/src/libcore/any.rs"
	.loc	42 109 0 is_stmt 1
	.cfi_startproc
	pushq	%rbp
	.cfi_def_cfa_offset 16
	.cfi_offset %rbp, -16
	movq	%rsp, %rbp
	.cfi_def_cfa_register %rbp
	movabsq	$1229646359891580772, %rax
Ltmp471:
	.loc	42 111 6 prologue_end
	popq	%rbp
	retq
Ltmp472:
Lfunc_end6:
	.cfi_endproc

	.p2align	4, 0x90
__ZN3std10sys_common9backtrace28__rust_begin_short_backtrace17h3397748020c0018eE:
Lfunc_begin7:
	.file	43 "/rustc/a74d1862d4d87a56244958416fd05976c58ca1a8/src/libstd/sys_common/backtrace.rs"
	.loc	43 124 0
	.cfi_startproc
	pushq	%rbp
	.cfi_def_cfa_offset 16
	.cfi_offset %rbp, -16
	movq	%rsp, %rbp
	.cfi_def_cfa_register %rbp
	subq	$96, %rsp
	movq	%rdi, %rsi
Ltmp473:
	leaq	-88(%rbp), %rax
Ltmp474:
	.loc	1 101 20 prologue_end
	movl	$11, %ecx
	movq	%rax, %rdi
	rep;movsq (%rsi), %es:(%rdi)
Ltmp475:
	movq	%rax, %rdi
	callq	__ZN10rayon_core8registry13ThreadBuilder3run17h5aeab7e4636a9986E
Ltmp476:
	.loc	43 131 2
	addq	$96, %rsp
	popq	%rbp
	retq
Ltmp477:
Lfunc_end7:
	.cfi_endproc

	.p2align	4, 0x90
__ZN3std4sync4once4Once9call_once28_$u7b$$u7b$closure$u7d$$u7d$17h045f0ddd99ce0ecaE:
Lfunc_begin8:
	.file	44 "/rustc/a74d1862d4d87a56244958416fd05976c58ca1a8/src/libstd/sync/once.rs"
	.loc	44 264 0
	.cfi_startproc
	.cfi_personality 155, _rust_eh_personality
	.cfi_lsda 16, Lexception4
	pushq	%rbp
	.cfi_def_cfa_offset 16
	.cfi_offset %rbp, -16
	movq	%rsp, %rbp
	.cfi_def_cfa_register %rbp
Ltmp481:
	pushq	%r15
	pushq	%r14
	pushq	%r13
	pushq	%r12
	pushq	%rbx
	subq	$136, %rsp
	.cfi_offset %rbx, -56
	.cfi_offset %r12, -48
	.cfi_offset %r13, -40
	.cfi_offset %r14, -32
	.cfi_offset %r15, -24
Ltmp482:
	.loc	44 264 41 prologue_end
	movq	(%rdi), %rax
Ltmp483:
	.loc	13 2058 5
	movq	(%rax), %rbx
Ltmp484:
	.loc	13 2058 5 is_stmt 0
	movq	$0, (%rax)
Ltmp485:
	.loc	30 387 13 is_stmt 1
	testq	%rbx, %rbx
	je	LBB8_13
Ltmp486:
	.file	45 "/Users/yingyuhang/.cargo/registry/src/github.com-1ecc6299db9ec823/rayon-core-1.7.1/src/lib.rs"
	.loc	45 173 9
	movq	$0, -152(%rbp)
	movq	$0, -136(%rbp)
	movq	$0, -120(%rbp)
	movq	$0, -104(%rbp)
	movb	$0, -88(%rbp)
	xorps	%xmm0, %xmm0
	movaps	%xmm0, -176(%rbp)
Ltmp487:
	.loc	45 0 9 is_stmt 0
	leaq	-72(%rbp), %rdi
Ltmp488:
	leaq	-176(%rbp), %rsi
Ltmp489:
	.loc	1 168 28 is_stmt 1
	callq	__ZN10rayon_core8registry8Registry3new17h0a7a9fd8a2fd3db5E
Ltmp490:
	.loc	10 519 13
	cmpq	$1, -72(%rbp)
	jne	LBB8_3
Ltmp491:
	.loc	10 520 23
	movq	-64(%rbp), %r15
	movq	-56(%rbp), %r12
	movl	$1, %r13d
Ltmp492:
	.loc	23 178 1
	cmpq	$0, (%rbx)
	je	LBB8_12
Ltmp493:
LBB8_6:
	.loc	23 178 1 is_stmt 0
	movb	8(%rbx), %al
	cmpb	$3, %al
	ja	LBB8_8
Ltmp494:
	.loc	23 0 1
	cmpb	$2, %al
	jne	LBB8_12
Ltmp495:
LBB8_8:
	.loc	23 178 1
	movq	16(%rbx), %r14
Ltmp496:
	.loc	23 178 1
	movq	(%r14), %rdi
	movq	8(%r14), %rax
Ltmp478:
	callq	*(%rax)
Ltmp479:
Ltmp497:
	movq	8(%r14), %rax
Ltmp498:
	.loc	11 282 16 is_stmt 1
	movq	8(%rax), %rsi
Ltmp499:
	.loc	11 185 12
	testq	%rsi, %rsi
	.loc	11 185 9 is_stmt 0
	je	LBB8_11
Ltmp500:
	.loc	23 178 1 is_stmt 1
	movq	(%r14), %rdi
Ltmp501:
	.loc	11 283 17
	movq	16(%rax), %rdx
Ltmp502:
	.loc	11 102 5
	callq	___rust_dealloc
Ltmp503:
LBB8_11:
	.loc	23 178 1
	movq	16(%rbx), %rdi
Ltmp504:
	.loc	11 102 5
	movl	$24, %esi
	movl	$8, %edx
	callq	___rust_dealloc
Ltmp505:
	.loc	11 0 5 is_stmt 0
	jmp	LBB8_12
Ltmp506:
LBB8_3:
	.loc	10 519 16 is_stmt 1
	movq	-64(%rbp), %r14
Ltmp507:
	.loc	11 80 5
	movl	$8, %edi
	movl	$8, %esi
	callq	___rust_alloc
Ltmp508:
	.loc	11 269 9
	testq	%rax, %rax
	je	LBB8_14
Ltmp509:
	.loc	14 0 0 is_stmt 0
	movq	%rax, %r15
Ltmp510:
	.loc	14 174 13 is_stmt 1
	movq	%r14, (%rax)
Ltmp511:
	.loc	1 197 17
	movq	%rax, __ZN10rayon_core8registry12THE_REGISTRY17h5845c75b91551ee0E(%rip)
	xorl	%r13d, %r13d
Ltmp512:
	.loc	23 178 1
	cmpq	$0, (%rbx)
	jne	LBB8_6
Ltmp513:
LBB8_12:
	.loc	1 194 9
	movq	%r13, (%rbx)
	movq	%r15, 8(%rbx)
	movq	%r12, 16(%rbx)
Ltmp514:
	.loc	44 264 60
	addq	$136, %rsp
	popq	%rbx
Ltmp515:
	popq	%r12
	popq	%r13
	popq	%r14
	popq	%r15
	popq	%rbp
	retq
LBB8_13:
Ltmp516:
	.loc	8 10 9
	leaq	l___unnamed_39(%rip), %rdi
Ltmp517:
	leaq	l___unnamed_46(%rip), %rdx
	movl	$43, %esi
Ltmp518:
	callq	__ZN4core9panicking5panic17h736ee47a631475c0E
Ltmp519:
LBB8_14:
	.loc	11 270 19
	movl	$8, %edi
	movl	$8, %esi
	callq	__ZN5alloc5alloc18handle_alloc_error17hbc0ab0ed90816c07E
Ltmp520:
LBB8_15:
Ltmp480:
	.loc	11 0 19 is_stmt 0
	movq	%rax, -48(%rbp)
Ltmp521:
	.loc	23 178 1 is_stmt 1
	movq	(%r14), %rdi
	movq	8(%r14), %rsi
	callq	__ZN5alloc5alloc8box_free17h1e8da582c49e9131E
Ltmp522:
	.loc	23 178 1 is_stmt 0
	movq	16(%rbx), %rdi
	callq	__ZN5alloc5alloc8box_free17hb631fd0fd787e5d5E
Ltmp523:
	.loc	1 194 9 is_stmt 1
	movq	%r13, (%rbx)
	movq	%r15, 8(%rbx)
	movq	%r12, 16(%rbx)
	movq	-48(%rbp), %rdi
	callq	__Unwind_Resume
	ud2
Ltmp524:
Lfunc_end8:
	.cfi_endproc
	.file	46 "/Users/yingyuhang/.cargo/registry/src/github.com-1ecc6299db9ec823/rayon-core-1.7.1/src/util.rs"
	.section	__TEXT,__gcc_except_tab
	.p2align	2
GCC_except_table8:
Lexception4:
	.byte	255
	.byte	255
	.byte	1
	.uleb128 Lcst_end4-Lcst_begin4
Lcst_begin4:
	.uleb128 Lfunc_begin8-Lfunc_begin8
	.uleb128 Ltmp478-Lfunc_begin8
	.byte	0
	.byte	0
	.uleb128 Ltmp478-Lfunc_begin8
	.uleb128 Ltmp479-Ltmp478
	.uleb128 Ltmp480-Lfunc_begin8
	.byte	0
	.uleb128 Ltmp479-Lfunc_begin8
	.uleb128 Lfunc_end8-Ltmp479
	.byte	0
	.byte	0
Lcst_end4:
	.p2align	2

	.section	__TEXT,__literal16,16byte_literals
	.p2align	4
LCPI9_0:
	.space	8
	.quad	2
	.section	__TEXT,__text,regular,pure_instructions
	.p2align	4, 0x90
__ZN3std4sync4once4Once9call_once28_$u7b$$u7b$closure$u7d$$u7d$17h77bb0028a486c585E:
Lfunc_begin9:
	.loc	44 264 0
	.cfi_startproc
	.cfi_personality 155, _rust_eh_personality
	.cfi_lsda 16, Lexception5
	pushq	%rbp
	.cfi_def_cfa_offset 16
	.cfi_offset %rbp, -16
	movq	%rsp, %rbp
	.cfi_def_cfa_register %rbp
Ltmp531:
	pushq	%r15
	pushq	%r14
	pushq	%r13
	pushq	%r12
	pushq	%rbx
	subq	$232, %rsp
	.cfi_offset %rbx, -56
	.cfi_offset %r12, -48
	.cfi_offset %r13, -40
	.cfi_offset %r14, -32
	.cfi_offset %r15, -24
Ltmp532:
	.loc	44 264 41 prologue_end
	movq	(%rdi), %rax
Ltmp533:
	.loc	13 2058 5
	movups	(%rax), %xmm0
	movups	16(%rax), %xmm1
Ltmp534:
	movdqu	32(%rax), %xmm2
	movups	48(%rax), %xmm3
Ltmp535:
	.loc	13 2058 5 is_stmt 0
	movaps	LCPI9_0(%rip), %xmm4
	movups	%xmm4, 32(%rax)
Ltmp536:
	.loc	13 2058 5
	movups	80(%rax), %xmm4
	movups	64(%rax), %xmm5
Ltmp537:
	.loc	13 2058 5
	movq	96(%rax), %rbx
Ltmp538:
	.loc	24 806 5 is_stmt 1
	movups	%xmm0, -176(%rbp)
	movups	%xmm1, -160(%rbp)
	movdqu	%xmm2, -144(%rbp)
	movups	%xmm3, -128(%rbp)
	movups	%xmm5, -112(%rbp)
	movups	%xmm4, -96(%rbp)
	movq	%rbx, -80(%rbp)
Ltmp539:
	.loc	30 387 13
	pshufd	$78, %xmm2, %xmm0
	movq	%xmm0, %rax
Ltmp540:
	cmpq	$2, %rax
	je	LBB9_1
Ltmp541:
	.loc	30 0 13 is_stmt 0
	leaq	-272(%rbp), %rax
	leaq	-176(%rbp), %rsi
Ltmp542:
	.loc	30 387 18
	movl	$12, %ecx
	movq	%rax, %rdi
	rep;movsq (%rsi), %es:(%rdi)
	leaq	-176(%rbp), %rdx
Ltmp543:
	.loc	1 181 42 is_stmt 1
	movl	$12, %ecx
	movq	%rdx, %rdi
	movq	%rax, %rsi
	rep;movsq (%rsi), %es:(%rdi)
Ltmp544:
	.loc	1 0 42 is_stmt 0
	leaq	-72(%rbp), %rdi
	.loc	1 181 28
	movq	%rdx, %rsi
	callq	__ZN10rayon_core8registry8Registry3new17h0a7a9fd8a2fd3db5E
Ltmp545:
	.loc	10 519 13 is_stmt 1
	cmpq	$1, -72(%rbp)
	jne	LBB9_5
Ltmp546:
	.loc	10 520 23
	movq	-64(%rbp), %r15
	movq	-56(%rbp), %r12
	movl	$1, %r13d
Ltmp547:
	.loc	23 178 1
	cmpq	$0, (%rbx)
	je	LBB9_14
Ltmp548:
LBB9_8:
	.loc	23 178 1 is_stmt 0
	movb	8(%rbx), %al
	cmpb	$3, %al
	ja	LBB9_10
Ltmp549:
	.loc	23 0 1
	cmpb	$2, %al
	jne	LBB9_14
Ltmp550:
LBB9_10:
	.loc	23 178 1
	movq	16(%rbx), %r14
Ltmp551:
	.loc	23 178 1
	movq	(%r14), %rdi
	movq	8(%r14), %rax
Ltmp525:
	callq	*(%rax)
Ltmp526:
Ltmp552:
	movq	8(%r14), %rax
Ltmp553:
	.loc	11 282 16 is_stmt 1
	movq	8(%rax), %rsi
Ltmp554:
	.loc	11 185 12
	testq	%rsi, %rsi
	.loc	11 185 9 is_stmt 0
	je	LBB9_13
Ltmp555:
	.loc	23 178 1 is_stmt 1
	movq	(%r14), %rdi
Ltmp556:
	.loc	11 283 17
	movq	16(%rax), %rdx
Ltmp557:
	.loc	11 102 5
	callq	___rust_dealloc
Ltmp558:
LBB9_13:
	.loc	23 178 1
	movq	16(%rbx), %rdi
Ltmp559:
	.loc	11 102 5
	movl	$24, %esi
	movl	$8, %edx
	callq	___rust_dealloc
Ltmp560:
	.loc	11 0 5 is_stmt 0
	jmp	LBB9_14
Ltmp561:
LBB9_5:
	.loc	10 519 16 is_stmt 1
	movq	-64(%rbp), %r14
Ltmp562:
	.loc	11 80 5
	movl	$8, %edi
	movl	$8, %esi
	callq	___rust_alloc
Ltmp563:
	.loc	11 269 9
	testq	%rax, %rax
	je	LBB9_17
Ltmp564:
	.loc	14 0 0 is_stmt 0
	movq	%rax, %r15
Ltmp565:
	.loc	14 174 13 is_stmt 1
	movq	%r14, (%rax)
Ltmp566:
	.loc	1 197 17
	movq	%rax, __ZN10rayon_core8registry12THE_REGISTRY17h5845c75b91551ee0E(%rip)
	xorl	%r13d, %r13d
Ltmp567:
	.loc	23 178 1
	cmpq	$0, (%rbx)
	jne	LBB9_8
Ltmp568:
LBB9_14:
	.loc	1 194 9
	movq	%r13, (%rbx)
	movq	%r15, 8(%rbx)
	movq	%r12, 16(%rbx)
Ltmp569:
	.loc	44 264 60
	addq	$232, %rsp
	popq	%rbx
	popq	%r12
	popq	%r13
	popq	%r14
	popq	%r15
	popq	%rbp
	retq
LBB9_1:
Ltmp570:
Ltmp528:
	.loc	8 10 9
	leaq	l___unnamed_39(%rip), %rdi
	leaq	l___unnamed_46(%rip), %rdx
	movl	$43, %esi
Ltmp571:
	callq	__ZN4core9panicking5panic17h736ee47a631475c0E
Ltmp529:
Ltmp572:
	.loc	8 0 9 is_stmt 0
	ud2
LBB9_17:
Ltmp573:
	.loc	11 270 19 is_stmt 1
	movl	$8, %edi
	movl	$8, %esi
	callq	__ZN5alloc5alloc18handle_alloc_error17hbc0ab0ed90816c07E
Ltmp574:
LBB9_15:
Ltmp530:
	.loc	11 0 19 is_stmt 0
	movq	%rax, -48(%rbp)
	leaq	-176(%rbp), %rdi
Ltmp575:
	.loc	30 390 5 is_stmt 1
	callq	__ZN4core3ptr13drop_in_place17h3048a01df898dd06E
	movq	-48(%rbp), %rdi
	callq	__Unwind_Resume
	ud2
Ltmp576:
LBB9_18:
Ltmp527:
	.loc	30 0 5 is_stmt 0
	movq	%rax, -48(%rbp)
Ltmp577:
	.loc	23 178 1 is_stmt 1
	movq	(%r14), %rdi
	movq	8(%r14), %rsi
	callq	__ZN5alloc5alloc8box_free17h1e8da582c49e9131E
Ltmp578:
	.loc	23 178 1 is_stmt 0
	movq	16(%rbx), %rdi
	callq	__ZN5alloc5alloc8box_free17hb631fd0fd787e5d5E
Ltmp579:
	.loc	1 194 9 is_stmt 1
	movq	%r13, (%rbx)
	movq	%r15, 8(%rbx)
	movq	%r12, 16(%rbx)
	movq	-48(%rbp), %rdi
	callq	__Unwind_Resume
	ud2
Ltmp580:
Lfunc_end9:
	.cfi_endproc
	.section	__TEXT,__gcc_except_tab
	.p2align	2
GCC_except_table9:
Lexception5:
	.byte	255
	.byte	255
	.byte	1
	.uleb128 Lcst_end5-Lcst_begin5
Lcst_begin5:
	.uleb128 Lfunc_begin9-Lfunc_begin9
	.uleb128 Ltmp525-Lfunc_begin9
	.byte	0
	.byte	0
	.uleb128 Ltmp525-Lfunc_begin9
	.uleb128 Ltmp526-Ltmp525
	.uleb128 Ltmp527-Lfunc_begin9
	.byte	0
	.uleb128 Ltmp528-Lfunc_begin9
	.uleb128 Ltmp529-Ltmp528
	.uleb128 Ltmp530-Lfunc_begin9
	.byte	0
	.uleb128 Ltmp529-Lfunc_begin9
	.uleb128 Lfunc_end9-Ltmp529
	.byte	0
	.byte	0
Lcst_end5:
	.p2align	2

	.section	__TEXT,__text,regular,pure_instructions
	.p2align	4, 0x90
__ZN3std4sync4once4Once9call_once28_$u7b$$u7b$closure$u7d$$u7d$17hfb916d97af8adae7E:
Lfunc_begin10:
	.loc	44 264 0
	.cfi_startproc
	.cfi_personality 155, _rust_eh_personality
	.cfi_lsda 16, Lexception6
	pushq	%rbp
	.cfi_def_cfa_offset 16
	.cfi_offset %rbp, -16
	movq	%rsp, %rbp
	.cfi_def_cfa_register %rbp
Ltmp584:
	pushq	%r14
	pushq	%rbx
	subq	$64, %rsp
	.cfi_offset %rbx, -32
	.cfi_offset %r14, -24
Ltmp585:
	.loc	44 264 41 prologue_end
	movq	(%rdi), %rcx
Ltmp586:
	.loc	13 2058 5
	movq	(%rcx), %rax
Ltmp587:
	.loc	13 2058 5 is_stmt 0
	movq	$0, (%rcx)
Ltmp588:
	.loc	30 387 13 is_stmt 1
	testq	%rax, %rax
	je	LBB10_13
Ltmp589:
	.file	47 "/Users/yingyuhang/.cargo/registry/src/github.com-1ecc6299db9ec823/lazy_static-1.4.0/src/inline_lazy.rs"
	.loc	47 31 13
	movq	(%rax), %r14
Ltmp590:
	.file	48 "/rustc/a74d1862d4d87a56244958416fd05976c58ca1a8/src/libstd/env.rs"
	.loc	48 212 5
	leaq	l___unnamed_47(%rip), %rsi
Ltmp591:
	.loc	48 0 5 is_stmt 0
	leaq	-48(%rbp), %rdi
Ltmp592:
	.loc	48 212 5
	movl	$9, %edx
	callq	__ZN3std3env4_var17heb54e5eb7997d7b3E
Ltmp593:
	.loc	10 286 25 is_stmt 1
	cmpq	$0, -48(%rbp)
Ltmp594:
	.file	49 "/Users/yingyuhang/.cargo/registry/src/github.com-1ecc6299db9ec823/rayon-core-1.7.1/src/log.rs"
	.loc	49 95 9
	je	LBB10_7
Ltmp595:
Ltmp581:
	.loc	48 212 5
	leaq	l___unnamed_48(%rip), %rsi
	leaq	-80(%rbp), %rdi
	movl	$12, %edx
	callq	__ZN3std3env4_var17heb54e5eb7997d7b3E
Ltmp582:
Ltmp596:
	.loc	10 286 25
	cmpq	$0, -80(%rbp)
	sete	%bl
Ltmp597:
	.loc	23 0 0 is_stmt 0
	movq	-72(%rbp), %rdi
Ltmp598:
	testq	%rdi, %rdi
	je	LBB10_6
Ltmp599:
	movq	-64(%rbp), %rsi
Ltmp600:
	testq	%rsi, %rsi
	je	LBB10_6
Ltmp601:
	movl	$1, %edx
	callq	___rust_dealloc
Ltmp602:
LBB10_6:
	.loc	23 178 1 is_stmt 1
	movq	-40(%rbp), %rdi
Ltmp603:
	.loc	23 0 0 is_stmt 0
	testq	%rdi, %rdi
	je	LBB10_11
Ltmp604:
LBB10_9:
	movq	-32(%rbp), %rsi
Ltmp605:
	testq	%rsi, %rsi
	je	LBB10_11
Ltmp606:
	movl	$1, %edx
	callq	___rust_dealloc
Ltmp607:
	jmp	LBB10_11
Ltmp608:
LBB10_7:
	.loc	23 178 1
	movq	-40(%rbp), %rdi
Ltmp609:
	.loc	23 0 1
	movb	$1, %bl
Ltmp610:
	testq	%rdi, %rdi
	jne	LBB10_9
Ltmp611:
LBB10_11:
	.loc	13 2058 5 is_stmt 1
	movb	%bl, 8(%r14)
Ltmp612:
	.loc	44 264 60
	addq	$64, %rsp
	popq	%rbx
Ltmp613:
	popq	%r14
	popq	%rbp
	retq
Ltmp614:
LBB10_13:
	.loc	8 10 9
	leaq	l___unnamed_39(%rip), %rdi
Ltmp615:
	leaq	l___unnamed_46(%rip), %rdx
	movl	$43, %esi
Ltmp616:
	callq	__ZN4core9panicking5panic17h736ee47a631475c0E
Ltmp617:
LBB10_12:
Ltmp583:
	.loc	8 0 9 is_stmt 0
	movq	%rax, %rbx
	leaq	-48(%rbp), %rdi
Ltmp618:
	.loc	2 137 57 is_stmt 1
	callq	__ZN4core3ptr13drop_in_place17hd383787442fd603eE
	movq	%rbx, %rdi
	callq	__Unwind_Resume
	ud2
Ltmp619:
Lfunc_end10:
	.cfi_endproc
	.file	50 "/rustc/a74d1862d4d87a56244958416fd05976c58ca1a8/src/libcore/ops/function.rs"
	.section	__TEXT,__gcc_except_tab
	.p2align	2
GCC_except_table10:
Lexception6:
	.byte	255
	.byte	255
	.byte	1
	.uleb128 Lcst_end6-Lcst_begin6
Lcst_begin6:
	.uleb128 Lfunc_begin10-Lfunc_begin10
	.uleb128 Ltmp581-Lfunc_begin10
	.byte	0
	.byte	0
	.uleb128 Ltmp581-Lfunc_begin10
	.uleb128 Ltmp582-Ltmp581
	.uleb128 Ltmp583-Lfunc_begin10
	.byte	0
	.uleb128 Ltmp582-Lfunc_begin10
	.uleb128 Lfunc_end10-Ltmp582
	.byte	0
	.byte	0
Lcst_end6:
	.p2align	2

	.section	__TEXT,__text,regular,pure_instructions
	.p2align	4, 0x90
__ZN3std5error5Error5cause17h5f88b966bc202ea4E:
Lfunc_begin11:
	.file	51 "/rustc/a74d1862d4d87a56244958416fd05976c58ca1a8/src/libstd/error.rs"
	.loc	51 149 0
	.cfi_startproc
	pushq	%rbp
	.cfi_def_cfa_offset 16
	.cfi_offset %rbp, -16
	movq	%rsp, %rbp
	.cfi_def_cfa_register %rbp
	xorl	%eax, %eax
Ltmp620:
	.loc	45 655 13 prologue_end
	cmpb	$3, (%rdi)
	cmovneq	%rdi, %rax
	.loc	45 658 6
	leaq	l___unnamed_21(%rip), %rdx
Ltmp621:
	.loc	51 151 6
	popq	%rbp
	retq
Ltmp622:
Lfunc_end11:
	.cfi_endproc

	.p2align	4, 0x90
__ZN3std5error5Error7type_id17hdc070610c128ac9fE:
Lfunc_begin12:
	.loc	51 110 0
	.cfi_startproc
	pushq	%rbp
	.cfi_def_cfa_offset 16
	.cfi_offset %rbp, -16
	movq	%rsp, %rbp
	.cfi_def_cfa_register %rbp
	movabsq	$-9190556156156697329, %rax
Ltmp623:
	.loc	51 115 6 prologue_end
	popq	%rbp
	retq
Ltmp624:
Lfunc_end12:
	.cfi_endproc

	.p2align	4, 0x90
__ZN3std5error5Error7type_id17hf702de5fd61fd735E:
Lfunc_begin13:
	.loc	51 110 0
	.cfi_startproc
	pushq	%rbp
	.cfi_def_cfa_offset 16
	.cfi_offset %rbp, -16
	movq	%rsp, %rbp
	.cfi_def_cfa_register %rbp
	movabsq	$-2428697655834863793, %rax
Ltmp625:
	.loc	51 115 6 prologue_end
	popq	%rbp
	retq
Ltmp626:
Lfunc_end13:
	.cfi_endproc

	.p2align	4, 0x90
__ZN3std5error5Error9backtrace17h09da5e4fd8aefdf5E:
Lfunc_begin14:
	.loc	51 127 0
	.cfi_startproc
	pushq	%rbp
	.cfi_def_cfa_offset 16
	.cfi_offset %rbp, -16
	movq	%rsp, %rbp
	.cfi_def_cfa_register %rbp
Ltmp627:
	.loc	51 129 6 prologue_end
	xorl	%eax, %eax
	popq	%rbp
	retq
Ltmp628:
Lfunc_end14:
	.cfi_endproc

	.p2align	4, 0x90
__ZN3std6thread5local4fast12Key$LT$T$GT$14try_initialize17h0b77f189cb839fc8E:
Lfunc_begin15:
	.loc	28 423 0
	.cfi_startproc
	.cfi_personality 155, _rust_eh_personality
	.cfi_lsda 16, Lexception7
	pushq	%rbp
	.cfi_def_cfa_offset 16
	.cfi_offset %rbp, -16
	movq	%rsp, %rbp
	.cfi_def_cfa_register %rbp
Ltmp632:
	pushq	%r14
	pushq	%rbx
	andq	$-32, %rsp
	subq	$96, %rsp
	.cfi_offset %rbx, -32
	.cfi_offset %r14, -24
	.loc	25 432 18 prologue_end
	movq	__ZN10rayon_core8registry8Registry14in_worker_cold10LOCK_LATCH7__getit5__KEY17he93fd3c4c24f0cfdE@TLVP(%rip), %rdi
	callq	*(%rdi)
	movb	32(%rax), %al
Ltmp633:
	.loc	28 436 17
	testb	%al, %al
	je	LBB15_3
	cmpb	$1, %al
	je	LBB15_4
	.loc	28 0 17 is_stmt 0
	xorl	%eax, %eax
	jmp	LBB15_8
LBB15_3:
	.loc	28 438 21 is_stmt 1
	movq	__ZN10rayon_core8registry8Registry14in_worker_cold10LOCK_LATCH7__getit5__KEY17he93fd3c4c24f0cfdE@TLVP(%rip), %rdi
	callq	*(%rdi)
	movq	%rax, %rbx
Ltmp634:
	leaq	__ZN3std6thread5local4fast13destroy_value17h7a0afc70a01c3b4fE(%rip), %rsi
	movq	%rax, %rdi
	callq	__ZN3std3sys4unix17fast_thread_local13register_dtor17h1042734db6d0a9bdE
Ltmp635:
	.loc	13 2058 5
	movb	$1, 32(%rbx)
Ltmp636:
LBB15_4:
	.loc	13 0 5 is_stmt 0
	leaq	64(%rsp), %rdi
Ltmp637:
	.loc	1 438 54 is_stmt 1
	callq	__ZN10rayon_core5latch9LockLatch3new17h6d61510823da0903E
Ltmp638:
	.loc	28 304 50
	movaps	64(%rsp), %xmm0
	movaps	%xmm0, 48(%rsp)
	movaps	80(%rsp), %xmm0
Ltmp639:
	.loc	28 0 50 is_stmt 0
	movaps	%xmm0, 32(%rsp)
Ltmp640:
	.loc	13 2058 5 is_stmt 1
	movq	__ZN10rayon_core8registry8Registry14in_worker_cold10LOCK_LATCH7__getit5__KEY17he93fd3c4c24f0cfdE@TLVP(%rip), %rdi
	callq	*(%rdi)
	movdqu	(%rax), %xmm0
	movups	16(%rax), %xmm1
Ltmp641:
	.loc	13 0 5 is_stmt 0
	movaps	48(%rsp), %xmm2
Ltmp642:
	.loc	13 2058 5
	movups	%xmm2, (%rax)
	movaps	32(%rsp), %xmm2
	movups	%xmm2, 16(%rax)
Ltmp643:
	.loc	24 806 5 is_stmt 1
	movaps	%xmm1, 16(%rsp)
	movdqa	%xmm0, (%rsp)
Ltmp644:
	.loc	23 178 1
	movq	%xmm0, %rbx
	testq	%rbx, %rbx
	je	LBB15_7
Ltmp645:
	.file	52 "/rustc/a74d1862d4d87a56244958416fd05976c58ca1a8/src/libstd/sys/unix/mutex.rs"
	.loc	52 78 17
	movq	%rbx, %rdi
	callq	_pthread_mutex_destroy
Ltmp646:
	.loc	11 102 5
	movl	$64, %esi
	movl	$8, %edx
	movq	%rbx, %rdi
	callq	___rust_dealloc
Ltmp647:
	.loc	23 178 1
	leaq	16(%rsp), %rbx
Ltmp648:
Ltmp629:
	.loc	23 178 1 is_stmt 0
	movq	%rbx, %rdi
	callq	__ZN69_$LT$std..sync..condvar..Condvar$u20$as$u20$core..ops..drop..Drop$GT$4drop17h586207405bc4e99fE
Ltmp630:
Ltmp649:
	.loc	23 178 1
	movq	16(%rsp), %rdi
Ltmp650:
	.loc	11 102 5 is_stmt 1
	movl	$48, %esi
	movl	$8, %edx
	callq	___rust_dealloc
Ltmp651:
	.loc	28 312 17
	movq	__ZN10rayon_core8registry8Registry14in_worker_cold10LOCK_LATCH7__getit5__KEY17he93fd3c4c24f0cfdE@TLVP(%rip), %rdi
	callq	*(%rdi)
Ltmp652:
LBB15_7:
	.loc	28 0 17 is_stmt 0
	movq	__ZN10rayon_core8registry8Registry14in_worker_cold10LOCK_LATCH7__getit5__KEY17he93fd3c4c24f0cfdE@TLVP(%rip), %rdi
	callq	*(%rdi)
Ltmp653:
LBB15_8:
	.loc	28 429 10 is_stmt 1
	leaq	-16(%rbp), %rsp
	popq	%rbx
	popq	%r14
	popq	%rbp
	retq
LBB15_9:
Ltmp654:
Ltmp631:
	.loc	28 0 10 is_stmt 0
	movq	%rax, %r14
Ltmp655:
	.loc	23 178 1 is_stmt 1
	movq	%rbx, %rdi
	callq	__ZN4core3ptr13drop_in_place17h7bb0160cfbf57122E
	movq	%r14, %rdi
	callq	__Unwind_Resume
	ud2
Ltmp656:
Lfunc_end15:
	.cfi_endproc
	.file	53 "/rustc/a74d1862d4d87a56244958416fd05976c58ca1a8/src/libstd/sys_common/mutex.rs"
	.file	54 "/rustc/a74d1862d4d87a56244958416fd05976c58ca1a8/src/libstd/sync/mutex.rs"
	.section	__TEXT,__gcc_except_tab
	.p2align	2
GCC_except_table15:
Lexception7:
	.byte	255
	.byte	255
	.byte	1
	.uleb128 Lcst_end7-Lcst_begin7
Lcst_begin7:
	.uleb128 Lfunc_begin15-Lfunc_begin15
	.uleb128 Ltmp629-Lfunc_begin15
	.byte	0
	.byte	0
	.uleb128 Ltmp629-Lfunc_begin15
	.uleb128 Ltmp630-Ltmp629
	.uleb128 Ltmp631-Lfunc_begin15
	.byte	0
	.uleb128 Ltmp630-Lfunc_begin15
	.uleb128 Lfunc_end15-Ltmp630
	.byte	0
	.byte	0
Lcst_end7:
	.p2align	2

	.section	__TEXT,__text,regular,pure_instructions
	.p2align	4, 0x90
__ZN3std6thread5local4fast13destroy_value17h7a0afc70a01c3b4fE:
Lfunc_begin16:
	.loc	28 451 0
	.cfi_startproc
	.cfi_personality 155, _rust_eh_personality
	.cfi_lsda 16, Lexception8
	pushq	%rbp
	.cfi_def_cfa_offset 16
	.cfi_offset %rbp, -16
	movq	%rsp, %rbp
	.cfi_def_cfa_register %rbp
Ltmp660:
	pushq	%r14
	pushq	%rbx
	andq	$-32, %rsp
	subq	$64, %rsp
	.cfi_offset %rbx, -32
	.cfi_offset %r14, -24
Ltmp661:
	.loc	13 2058 5 prologue_end
	movups	(%rdi), %xmm0
	movups	16(%rdi), %xmm1
Ltmp662:
	.loc	13 2058 5 is_stmt 0
	xorps	%xmm2, %xmm2
	movups	%xmm2, (%rdi)
Ltmp663:
	.loc	24 806 5 is_stmt 1
	movaps	%xmm1, 48(%rsp)
	movaps	%xmm0, 32(%rsp)
Ltmp664:
	.loc	13 2058 5
	movb	$2, 32(%rdi)
Ltmp665:
	.loc	28 460 14
	movaps	32(%rsp), %xmm0
	movaps	48(%rsp), %xmm1
	movaps	%xmm0, (%rsp)
	movaps	%xmm1, 16(%rsp)
Ltmp666:
	.loc	23 178 1
	movq	(%rsp), %rbx
	testq	%rbx, %rbx
	je	LBB16_3
Ltmp667:
	.loc	52 78 17
	movq	%rbx, %rdi
Ltmp668:
	callq	_pthread_mutex_destroy
Ltmp669:
	.loc	11 102 5
	movl	$64, %esi
	movl	$8, %edx
	movq	%rbx, %rdi
	callq	___rust_dealloc
Ltmp670:
	.loc	23 178 1
	leaq	16(%rsp), %rbx
Ltmp671:
Ltmp657:
	.loc	23 178 1 is_stmt 0
	movq	%rbx, %rdi
	callq	__ZN69_$LT$std..sync..condvar..Condvar$u20$as$u20$core..ops..drop..Drop$GT$4drop17h586207405bc4e99fE
Ltmp658:
Ltmp672:
	.loc	23 178 1
	movq	16(%rsp), %rdi
Ltmp673:
	.loc	11 102 5 is_stmt 1
	movl	$48, %esi
	movl	$8, %edx
	callq	___rust_dealloc
Ltmp674:
LBB16_3:
	.loc	28 461 6
	leaq	-16(%rbp), %rsp
	popq	%rbx
	popq	%r14
	popq	%rbp
	retq
LBB16_4:
Ltmp675:
Ltmp659:
	.loc	28 0 6 is_stmt 0
	movq	%rax, %r14
Ltmp676:
	.loc	23 178 1 is_stmt 1
	movq	%rbx, %rdi
	callq	__ZN4core3ptr13drop_in_place17h7bb0160cfbf57122E
	movq	%r14, %rdi
	callq	__Unwind_Resume
	ud2
Ltmp677:
Lfunc_end16:
	.cfi_endproc
	.section	__TEXT,__gcc_except_tab
	.p2align	2
GCC_except_table16:
Lexception8:
	.byte	255
	.byte	255
	.byte	1
	.uleb128 Lcst_end8-Lcst_begin8
Lcst_begin8:
	.uleb128 Ltmp657-Lfunc_begin16
	.uleb128 Ltmp658-Ltmp657
	.uleb128 Ltmp659-Lfunc_begin16
	.byte	0
	.uleb128 Ltmp658-Lfunc_begin16
	.uleb128 Lfunc_end16-Ltmp658
	.byte	0
	.byte	0
Lcst_end8:
	.p2align	2

	.section	__TEXT,__text,regular,pure_instructions
	.p2align	4, 0x90
__ZN3std9panicking11begin_panic17h5383990145059594E:
Lfunc_begin17:
	.file	55 "/rustc/a74d1862d4d87a56244958416fd05976c58ca1a8/src/libstd/panicking.rs"
	.loc	55 399 0
	.cfi_startproc
	pushq	%rbp
	.cfi_def_cfa_offset 16
	.cfi_offset %rbp, -16
	movq	%rsp, %rbp
	.cfi_def_cfa_register %rbp
	subq	$16, %rsp
Ltmp678:
	.loc	55 404 31 prologue_end
	movq	%rdi, -16(%rbp)
	movq	%rsi, -8(%rbp)
	.loc	55 404 61 is_stmt 0
	movq	%rdx, %rdi
Ltmp679:
	callq	__ZN4core5panic8Location6caller17hf55c9a52d6249cfcE
Ltmp680:
	.loc	55 404 5
	leaq	l___unnamed_6(%rip), %rsi
	leaq	-16(%rbp), %rdi
	xorl	%edx, %edx
	movq	%rax, %rcx
	callq	__ZN3std9panicking20rust_panic_with_hook17hf8b9378dd2e7986aE
Ltmp681:
Lfunc_end17:
	.cfi_endproc

	.p2align	4, 0x90
__ZN42_$LT$$RF$T$u20$as$u20$core..fmt..Debug$GT$3fmt17h1154097306b1b347E:
Lfunc_begin18:
	.loc	21 1973 0 is_stmt 1
	.cfi_startproc
	pushq	%rbp
	.cfi_def_cfa_offset 16
	.cfi_offset %rbp, -16
	movq	%rsp, %rbp
	.cfi_def_cfa_register %rbp
Ltmp682:
	.loc	21 1973 71 prologue_end
	movq	(%rdi), %rdi
Ltmp683:
	.loc	21 1973 62 is_stmt 0
	popq	%rbp
	jmp	__ZN58_$LT$std..io..error..Error$u20$as$u20$core..fmt..Debug$GT$3fmt17h3350f3f53e0cee4cE
Ltmp684:
Lfunc_end18:
	.cfi_endproc

	.section	__TEXT,__literal16,16byte_literals
	.p2align	4
LCPI19_0:
	.quad	1
	.quad	18
	.section	__TEXT,__text,regular,pure_instructions
	.p2align	4, 0x90
__ZN42_$LT$$RF$T$u20$as$u20$core..fmt..Debug$GT$3fmt17h34a31b0ba9507c32E:
Lfunc_begin19:
	.loc	21 1973 0 is_stmt 1
	.cfi_startproc
	pushq	%rbp
	.cfi_def_cfa_offset 16
	.cfi_offset %rbp, -16
	movq	%rsp, %rbp
	.cfi_def_cfa_register %rbp
	pushq	%r15
	pushq	%r14
	pushq	%rbx
	subq	$24, %rsp
	.cfi_offset %rbx, -40
	.cfi_offset %r14, -32
	.cfi_offset %r15, -24
	movq	%rsi, %rbx
Ltmp685:
	.loc	21 1973 71 prologue_end
	movq	(%rdi), %r15
Ltmp686:
	.loc	21 2067 25
	movups	(%rsi), %xmm0
Ltmp687:
	.loc	21 0 25 is_stmt 0
	movaps	%xmm0, -48(%rbp)
Ltmp688:
	.loc	21 2068 25 is_stmt 1
	movl	48(%rsi), %r14d
Ltmp689:
	.loc	21 2074 12
	movq	%rsi, %rdi
Ltmp690:
	callq	__ZN4core3fmt9Formatter9alternate17hd5ca56d2d01a1343E
	.loc	21 0 0 is_stmt 0
	movl	48(%rbx), %ecx
	.loc	21 2074 9
	testb	%al, %al
	je	LBB19_3
Ltmp691:
	.loc	21 2075 13 is_stmt 1
	orl	$8, %ecx
	movl	%ecx, 48(%rbx)
Ltmp692:
	.loc	30 189 25
	cmpq	$1, (%rbx)
Ltmp693:
	.loc	21 2077 13
	je	LBB19_3
Ltmp694:
	.loc	21 2078 17
	movaps	LCPI19_0(%rip), %xmm0
	movups	%xmm0, (%rbx)
Ltmp695:
LBB19_3:
	.loc	21 2081 9
	orl	$4, %ecx
	movl	%ecx, 48(%rbx)
	.loc	21 2083 35
	movq	(%r15), %rax
	.loc	21 2083 34 is_stmt 0
	movq	%rax, -32(%rbp)
	leaq	-32(%rbp), %rdi
	.loc	21 2083 19
	movq	%rbx, %rsi
	callq	__ZN4core3fmt3num55_$LT$impl$u20$core..fmt..LowerHex$u20$for$u20$usize$GT$3fmt17hbf7dc8c1d7fa021dE
Ltmp696:
	.loc	21 0 19
	movaps	-48(%rbp), %xmm0
Ltmp697:
	.loc	21 2085 9 is_stmt 1
	movups	%xmm0, (%rbx)
	.loc	21 2086 9
	movl	%r14d, 48(%rbx)
Ltmp698:
	.loc	21 1973 84
	addq	$24, %rsp
	popq	%rbx
Ltmp699:
	popq	%r14
Ltmp700:
	popq	%r15
	popq	%rbp
	retq
Ltmp701:
Lfunc_end19:
	.cfi_endproc

	.p2align	4, 0x90
__ZN42_$LT$$RF$T$u20$as$u20$core..fmt..Debug$GT$3fmt17h6872c158532f03d7E:
Lfunc_begin20:
	.loc	21 1973 0
	.cfi_startproc
	pushq	%rbp
	.cfi_def_cfa_offset 16
	.cfi_offset %rbp, -16
	movq	%rsp, %rbp
	.cfi_def_cfa_register %rbp
Ltmp702:
	.loc	21 1973 71 prologue_end
	movq	(%rdi), %rdi
Ltmp703:
	.loc	21 2003 9
	popq	%rbp
	jmp	__ZN43_$LT$bool$u20$as$u20$core..fmt..Display$GT$3fmt17hf36463fa8b480ab4E
Ltmp704:
Lfunc_end20:
	.cfi_endproc

	.p2align	4, 0x90
__ZN42_$LT$$RF$T$u20$as$u20$core..fmt..Debug$GT$3fmt17h925a343b392b1957E:
Lfunc_begin21:
	.loc	21 1973 0
	.cfi_startproc
	pushq	%rbp
	.cfi_def_cfa_offset 16
	.cfi_offset %rbp, -16
	movq	%rsp, %rbp
	.cfi_def_cfa_register %rbp
	movq	%rsi, %rdi
Ltmp705:
	.loc	45 695 17 prologue_end
	leaq	l___unnamed_49(%rip), %rsi
	movl	$9, %edx
	popq	%rbp
	jmp	__ZN4core3fmt9Formatter9write_str17h957ea9717e49073dE
Ltmp706:
Lfunc_end21:
	.cfi_endproc

	.p2align	4, 0x90
__ZN42_$LT$$RF$T$u20$as$u20$core..fmt..Debug$GT$3fmt17h989f11974eb100e8E:
Lfunc_begin22:
	.loc	21 1973 0
	.cfi_startproc
	pushq	%rbp
	.cfi_def_cfa_offset 16
	.cfi_offset %rbp, -16
	movq	%rsp, %rbp
	.cfi_def_cfa_register %rbp
Ltmp707:
	.loc	21 1973 71 prologue_end
	movq	(%rdi), %rdi
Ltmp708:
	.loc	21 1973 62 is_stmt 0
	popq	%rbp
	jmp	__ZN68_$LT$core..sync..atomic..AtomicUsize$u20$as$u20$core..fmt..Debug$GT$3fmt17h803ab91ee4cfb17eE
Ltmp709:
Lfunc_end22:
	.cfi_endproc

	.p2align	4, 0x90
__ZN42_$LT$$RF$T$u20$as$u20$core..fmt..Debug$GT$3fmt17hae5f436b48edc7b4E:
Lfunc_begin23:
	.loc	21 1973 0 is_stmt 1
	.cfi_startproc
	pushq	%rbp
	.cfi_def_cfa_offset 16
	.cfi_offset %rbp, -16
	movq	%rsp, %rbp
	.cfi_def_cfa_register %rbp
Ltmp710:
	pushq	%r14
	pushq	%rbx
	subq	$32, %rsp
	.cfi_offset %rbx, -32
	.cfi_offset %r14, -24
	.loc	21 1973 71 prologue_end
	movq	(%rdi), %rbx
Ltmp711:
	.loc	45 93 10
	cmpb	$3, (%rbx)
	jne	LBB23_1
Ltmp712:
	.loc	45 0 10 is_stmt 0
	leaq	-48(%rbp), %r14
Ltmp713:
	.loc	45 93 10
	leaq	l___unnamed_50(%rip), %rdx
	movl	$28, %ecx
	movq	%r14, %rdi
Ltmp714:
	callq	__ZN4core3fmt9Formatter11debug_tuple17h15ca25ad759edd1cE
Ltmp715:
	.loc	45 0 10
	jmp	LBB23_3
Ltmp716:
LBB23_1:
	leaq	-48(%rbp), %r14
Ltmp717:
	.loc	45 93 10
	leaq	l___unnamed_51(%rip), %rdx
	movl	$7, %ecx
	movq	%r14, %rdi
Ltmp718:
	callq	__ZN4core3fmt9Formatter11debug_tuple17h15ca25ad759edd1cE
Ltmp719:
	.loc	45 96 13 is_stmt 1
	movq	%rbx, -24(%rbp)
	.loc	45 93 10
	leaq	l___unnamed_29(%rip), %rdx
	leaq	-24(%rbp), %rsi
	movq	%r14, %rdi
	callq	__ZN4core3fmt8builders10DebugTuple5field17hf36121153a94f236E
Ltmp720:
LBB23_3:
	.loc	45 0 0 is_stmt 0
	movq	%r14, %rdi
	callq	__ZN4core3fmt8builders10DebugTuple6finish17h68acf09c6f6593f2E
Ltmp721:
	.loc	21 1973 84 is_stmt 1
	addq	$32, %rsp
	popq	%rbx
Ltmp722:
	popq	%r14
	popq	%rbp
	retq
Ltmp723:
Lfunc_end23:
	.cfi_endproc

	.p2align	4, 0x90
__ZN42_$LT$$RF$T$u20$as$u20$core..fmt..Debug$GT$3fmt17hb12d2bc644414b40E:
Lfunc_begin24:
	.loc	21 1973 0
	.cfi_startproc
	pushq	%rbp
	.cfi_def_cfa_offset 16
	.cfi_offset %rbp, -16
	movq	%rsp, %rbp
	.cfi_def_cfa_register %rbp
	pushq	%r14
	pushq	%rbx
	.cfi_offset %rbx, -32
	.cfi_offset %r14, -24
	movq	%rsi, %rbx
Ltmp724:
	.loc	21 1973 71 prologue_end
	movq	(%rdi), %r14
Ltmp725:
	.file	56 "/rustc/a74d1862d4d87a56244958416fd05976c58ca1a8/src/libcore/fmt/num.rs"
	.loc	56 149 20
	movq	%rsi, %rdi
Ltmp726:
	callq	__ZN4core3fmt9Formatter15debug_lower_hex17h8530fbaeba13f4d9E
	.loc	56 149 17 is_stmt 0
	testb	%al, %al
	je	LBB24_1
Ltmp727:
	.loc	56 150 21 is_stmt 1
	movq	%r14, %rdi
	movq	%rbx, %rsi
	popq	%rbx
Ltmp728:
	popq	%r14
Ltmp729:
	popq	%rbp
	jmp	__ZN4core3fmt3num53_$LT$impl$u20$core..fmt..LowerHex$u20$for$u20$u64$GT$3fmt17h45355469eb7ddf8bE
LBB24_1:
Ltmp730:
	.loc	56 151 27
	movq	%rbx, %rdi
	callq	__ZN4core3fmt9Formatter15debug_upper_hex17hf8fda15ec43a1e68E
	.loc	56 154 21
	movq	%r14, %rdi
	movq	%rbx, %rsi
	.loc	56 151 24
	testb	%al, %al
	je	LBB24_4
Ltmp731:
	.loc	56 152 21
	popq	%rbx
Ltmp732:
	popq	%r14
Ltmp733:
	popq	%rbp
	jmp	__ZN4core3fmt3num53_$LT$impl$u20$core..fmt..UpperHex$u20$for$u20$u64$GT$3fmt17ha26765e3e26c1816E
LBB24_4:
Ltmp734:
	.loc	56 154 21
	popq	%rbx
Ltmp735:
	popq	%r14
Ltmp736:
	popq	%rbp
	jmp	__ZN4core3fmt3num3imp52_$LT$impl$u20$core..fmt..Display$u20$for$u20$u64$GT$3fmt17hb00db9d5e1e54df6E
Ltmp737:
Lfunc_end24:
	.cfi_endproc

	.p2align	4, 0x90
__ZN42_$LT$$RF$T$u20$as$u20$core..fmt..Debug$GT$3fmt17hb292d2ac5562df79E:
Lfunc_begin25:
	.loc	21 1973 0
	.cfi_startproc
	pushq	%rbp
	.cfi_def_cfa_offset 16
	.cfi_offset %rbp, -16
	movq	%rsp, %rbp
	.cfi_def_cfa_register %rbp
Ltmp738:
	pushq	%r14
	pushq	%rbx
	subq	$32, %rsp
	.cfi_offset %rbx, -32
	.cfi_offset %r14, -24
	.loc	21 1973 71 prologue_end
	movq	(%rdi), %rbx
Ltmp739:
	.loc	30 151 48
	cmpq	$1, (%rbx)
	jne	LBB25_2
Ltmp740:
	.loc	30 160 56
	addq	$8, %rbx
Ltmp741:
	.loc	30 0 56 is_stmt 0
	leaq	-48(%rbp), %r14
Ltmp742:
	.loc	30 151 48 is_stmt 1
	leaq	L___unnamed_52(%rip), %rdx
	movl	$4, %ecx
	movq	%r14, %rdi
Ltmp743:
	callq	__ZN4core3fmt9Formatter11debug_tuple17h15ca25ad759edd1cE
Ltmp744:
	.loc	30 160 56
	movq	%rbx, -24(%rbp)
	.loc	30 151 48
	leaq	l___unnamed_12(%rip), %rdx
	leaq	-24(%rbp), %rsi
	movq	%r14, %rdi
	callq	__ZN4core3fmt8builders10DebugTuple5field17hf36121153a94f236E
	jmp	LBB25_3
Ltmp745:
LBB25_2:
	.loc	30 0 48 is_stmt 0
	leaq	-48(%rbp), %r14
Ltmp746:
	.loc	30 151 48
	leaq	L___unnamed_53(%rip), %rdx
	movl	$4, %ecx
	movq	%r14, %rdi
Ltmp747:
	callq	__ZN4core3fmt9Formatter11debug_tuple17h15ca25ad759edd1cE
Ltmp748:
LBB25_3:
	.loc	30 0 0
	movq	%r14, %rdi
	callq	__ZN4core3fmt8builders10DebugTuple6finish17h68acf09c6f6593f2E
Ltmp749:
	.loc	21 1973 84 is_stmt 1
	addq	$32, %rsp
	popq	%rbx
	popq	%r14
	popq	%rbp
	retq
Ltmp750:
Lfunc_end25:
	.cfi_endproc

	.p2align	4, 0x90
__ZN42_$LT$$RF$T$u20$as$u20$core..fmt..Debug$GT$3fmt17hb61c45278f45a7ebE:
Lfunc_begin26:
	.loc	21 1973 0
	.cfi_startproc
	pushq	%rbp
	.cfi_def_cfa_offset 16
	.cfi_offset %rbp, -16
	movq	%rsp, %rbp
	.cfi_def_cfa_register %rbp
	movq	%rsi, %rdx
Ltmp751:
	.loc	21 1973 71 prologue_end
	movq	(%rdi), %rax
Ltmp752:
	.loc	22 814 19
	movq	(%rax), %rdi
Ltmp753:
	.loc	22 1966 55
	movq	16(%rax), %rsi
Ltmp754:
	.file	57 "/rustc/a74d1862d4d87a56244958416fd05976c58ca1a8/src/liballoc/string.rs"
	.loc	57 1946 9
	popq	%rbp
	jmp	__ZN40_$LT$str$u20$as$u20$core..fmt..Debug$GT$3fmt17h2760aab2290546fcE
Ltmp755:
Lfunc_end26:
	.cfi_endproc

	.section	__TEXT,__literal16,16byte_literals
	.p2align	4
LCPI27_0:
	.quad	1
	.quad	18
	.section	__TEXT,__text,regular,pure_instructions
	.p2align	4, 0x90
__ZN42_$LT$$RF$T$u20$as$u20$core..fmt..Debug$GT$3fmt17hbb187b72ddfe8ec7E:
Lfunc_begin27:
	.loc	21 1973 0
	.cfi_startproc
	pushq	%rbp
	.cfi_def_cfa_offset 16
	.cfi_offset %rbp, -16
	movq	%rsp, %rbp
	.cfi_def_cfa_register %rbp
	pushq	%r15
	pushq	%r14
	pushq	%rbx
	subq	$24, %rsp
	.cfi_offset %rbx, -40
	.cfi_offset %r14, -32
	.cfi_offset %r15, -24
	movq	%rsi, %rbx
Ltmp756:
	.loc	21 1973 71 prologue_end
	movq	(%rdi), %rax
Ltmp757:
	.loc	23 1349 37
	movq	(%rax), %r15
Ltmp758:
	.loc	21 2067 25
	movups	(%rsi), %xmm0
Ltmp759:
	.loc	21 0 25 is_stmt 0
	movaps	%xmm0, -48(%rbp)
Ltmp760:
	.loc	21 2068 25 is_stmt 1
	movl	48(%rsi), %r14d
Ltmp761:
	.loc	21 2074 12
	movq	%rsi, %rdi
Ltmp762:
	callq	__ZN4core3fmt9Formatter9alternate17hd5ca56d2d01a1343E
	.loc	21 0 0 is_stmt 0
	movl	48(%rbx), %ecx
	.loc	21 2074 9
	testb	%al, %al
	je	LBB27_3
Ltmp763:
	.loc	21 2075 13 is_stmt 1
	orl	$8, %ecx
	movl	%ecx, 48(%rbx)
Ltmp764:
	.loc	30 189 25
	cmpq	$1, (%rbx)
Ltmp765:
	.loc	21 2077 13
	je	LBB27_3
Ltmp766:
	.loc	21 2078 17
	movaps	LCPI27_0(%rip), %xmm0
	movups	%xmm0, (%rbx)
Ltmp767:
LBB27_3:
	.loc	21 2081 9
	orl	$4, %ecx
	movl	%ecx, 48(%rbx)
	.loc	21 2083 34
	movq	%r15, -32(%rbp)
	leaq	-32(%rbp), %rdi
	.loc	21 2083 19 is_stmt 0
	movq	%rbx, %rsi
	callq	__ZN4core3fmt3num55_$LT$impl$u20$core..fmt..LowerHex$u20$for$u20$usize$GT$3fmt17hbf7dc8c1d7fa021dE
Ltmp768:
	.loc	21 0 19
	movaps	-48(%rbp), %xmm0
Ltmp769:
	.loc	21 2085 9 is_stmt 1
	movups	%xmm0, (%rbx)
	.loc	21 2086 9
	movl	%r14d, 48(%rbx)
Ltmp770:
	.loc	21 1973 84
	addq	$24, %rsp
	popq	%rbx
Ltmp771:
	popq	%r14
Ltmp772:
	popq	%r15
	popq	%rbp
	retq
Ltmp773:
Lfunc_end27:
	.cfi_endproc

	.p2align	4, 0x90
__ZN42_$LT$$RF$T$u20$as$u20$core..fmt..Debug$GT$3fmt17hc8c96f9b9973ee7dE:
Lfunc_begin28:
	.loc	21 1973 0
	.cfi_startproc
	pushq	%rbp
	.cfi_def_cfa_offset 16
	.cfi_offset %rbp, -16
	movq	%rsp, %rbp
	.cfi_def_cfa_register %rbp
Ltmp774:
	.loc	21 1973 71 prologue_end
	movq	(%rdi), %rdi
Ltmp775:
	.loc	21 1973 62 is_stmt 0
	popq	%rbp
	jmp	__ZN66_$LT$crossbeam_epoch..epoch..Epoch$u20$as$u20$core..fmt..Debug$GT$3fmt17h8a9bef83bbb20987E
Ltmp776:
Lfunc_end28:
	.cfi_endproc

	.p2align	4, 0x90
__ZN42_$LT$$RF$T$u20$as$u20$core..fmt..Debug$GT$3fmt17he0e27fbe221ebbb7E:
Lfunc_begin29:
	.loc	21 1973 0 is_stmt 1
	.cfi_startproc
	pushq	%rbp
	.cfi_def_cfa_offset 16
	.cfi_offset %rbp, -16
	movq	%rsp, %rbp
	.cfi_def_cfa_register %rbp
	pushq	%r14
	pushq	%rbx
	.cfi_offset %rbx, -32
	.cfi_offset %r14, -24
	movq	%rsi, %rbx
Ltmp777:
	.loc	21 1973 71 prologue_end
	movq	(%rdi), %r14
Ltmp778:
	.loc	56 149 20
	movq	%rsi, %rdi
Ltmp779:
	callq	__ZN4core3fmt9Formatter15debug_lower_hex17h8530fbaeba13f4d9E
	.loc	56 149 17 is_stmt 0
	testb	%al, %al
	je	LBB29_1
Ltmp780:
	.loc	56 150 21 is_stmt 1
	movq	%r14, %rdi
	movq	%rbx, %rsi
	popq	%rbx
Ltmp781:
	popq	%r14
Ltmp782:
	popq	%rbp
	jmp	__ZN4core3fmt3num55_$LT$impl$u20$core..fmt..LowerHex$u20$for$u20$usize$GT$3fmt17hbf7dc8c1d7fa021dE
LBB29_1:
Ltmp783:
	.loc	56 151 27
	movq	%rbx, %rdi
	callq	__ZN4core3fmt9Formatter15debug_upper_hex17hf8fda15ec43a1e68E
	.loc	56 154 21
	movq	%r14, %rdi
	movq	%rbx, %rsi
	.loc	56 151 24
	testb	%al, %al
	je	LBB29_4
Ltmp784:
	.loc	56 152 21
	popq	%rbx
Ltmp785:
	popq	%r14
Ltmp786:
	popq	%rbp
	jmp	__ZN4core3fmt3num55_$LT$impl$u20$core..fmt..UpperHex$u20$for$u20$usize$GT$3fmt17hf20a4f369caf234bE
LBB29_4:
Ltmp787:
	.loc	56 154 21
	popq	%rbx
Ltmp788:
	popq	%r14
Ltmp789:
	popq	%rbp
	jmp	__ZN4core3fmt3num3imp54_$LT$impl$u20$core..fmt..Display$u20$for$u20$usize$GT$3fmt17h89ce3155a90f2edfE
Ltmp790:
Lfunc_end29:
	.cfi_endproc

	.p2align	4, 0x90
__ZN42_$LT$$RF$T$u20$as$u20$core..fmt..Debug$GT$3fmt17hfd11248e20847b39E:
Lfunc_begin30:
	.loc	21 1973 0
	.cfi_startproc
	pushq	%rbp
	.cfi_def_cfa_offset 16
	.cfi_offset %rbp, -16
	movq	%rsp, %rbp
	.cfi_def_cfa_register %rbp
	movq	%rsi, %rdi
Ltmp791:
	.loc	21 2176 9 prologue_end
	leaq	l___unnamed_54(%rip), %rsi
	movl	$11, %edx
	popq	%rbp
	jmp	__ZN4core3fmt9Formatter3pad17he4a76f49c06ce69bE
Ltmp792:
Lfunc_end30:
	.cfi_endproc

	.p2align	4, 0x90
__ZN4core3fmt3num52_$LT$impl$u20$core..fmt..Debug$u20$for$u20$usize$GT$3fmt17hd9d2912101c14e43E:
Lfunc_begin31:
	.loc	56 148 0
	.cfi_startproc
	pushq	%rbp
	.cfi_def_cfa_offset 16
	.cfi_offset %rbp, -16
	movq	%rsp, %rbp
	.cfi_def_cfa_register %rbp
	pushq	%r14
	pushq	%rbx
	.cfi_offset %rbx, -32
	.cfi_offset %r14, -24
	movq	%rsi, %rbx
Ltmp793:
	movq	%rdi, %r14
Ltmp794:
	.loc	56 149 20 prologue_end
	movq	%rsi, %rdi
	callq	__ZN4core3fmt9Formatter15debug_lower_hex17h8530fbaeba13f4d9E
	.loc	56 149 17 is_stmt 0
	testb	%al, %al
	je	LBB31_1
Ltmp795:
	.loc	56 150 21 is_stmt 1
	movq	%r14, %rdi
	movq	%rbx, %rsi
	popq	%rbx
Ltmp796:
	popq	%r14
Ltmp797:
	popq	%rbp
	jmp	__ZN4core3fmt3num55_$LT$impl$u20$core..fmt..LowerHex$u20$for$u20$usize$GT$3fmt17hbf7dc8c1d7fa021dE
LBB31_1:
Ltmp798:
	.loc	56 151 27
	movq	%rbx, %rdi
	callq	__ZN4core3fmt9Formatter15debug_upper_hex17hf8fda15ec43a1e68E
	.loc	56 154 21
	movq	%r14, %rdi
	movq	%rbx, %rsi
	.loc	56 151 24
	testb	%al, %al
	je	LBB31_4
Ltmp799:
	.loc	56 152 21
	popq	%rbx
Ltmp800:
	popq	%r14
Ltmp801:
	popq	%rbp
	jmp	__ZN4core3fmt3num55_$LT$impl$u20$core..fmt..UpperHex$u20$for$u20$usize$GT$3fmt17hf20a4f369caf234bE
LBB31_4:
Ltmp802:
	.loc	56 154 21
	popq	%rbx
Ltmp803:
	popq	%r14
Ltmp804:
	popq	%rbp
	jmp	__ZN4core3fmt3num3imp54_$LT$impl$u20$core..fmt..Display$u20$for$u20$usize$GT$3fmt17h89ce3155a90f2edfE
Ltmp805:
Lfunc_end31:
	.cfi_endproc

	.p2align	4, 0x90
__ZN4core3ops8function6FnOnce40call_once$u7b$$u7b$vtable.shim$u7d$$u7d$17h0fb08a0c2e45baa6E:
Lfunc_begin32:
	.loc	50 232 0
	.cfi_startproc
	pushq	%rbp
	.cfi_def_cfa_offset 16
	.cfi_offset %rbp, -16
	movq	%rsp, %rbp
	.cfi_def_cfa_register %rbp
	subq	$16, %rsp
Ltmp806:
	.loc	50 232 5 prologue_end
	movq	(%rdi), %rax
	movq	%rax, -8(%rbp)
Ltmp807:
	.loc	50 0 5 is_stmt 0
	leaq	-8(%rbp), %rdi
Ltmp808:
	.loc	50 232 5
	callq	__ZN3std4sync4once4Once9call_once28_$u7b$$u7b$closure$u7d$$u7d$17h045f0ddd99ce0ecaE
Ltmp809:
	.loc	50 232 5
	addq	$16, %rsp
	popq	%rbp
	retq
Ltmp810:
Lfunc_end32:
	.cfi_endproc

	.p2align	4, 0x90
__ZN4core3ops8function6FnOnce40call_once$u7b$$u7b$vtable.shim$u7d$$u7d$17h36a01cb8a56afe4fE:
Lfunc_begin33:
	.loc	50 232 0 is_stmt 1
	.cfi_startproc
	pushq	%rbp
	.cfi_def_cfa_offset 16
	.cfi_offset %rbp, -16
	movq	%rsp, %rbp
	.cfi_def_cfa_register %rbp
	subq	$16, %rsp
Ltmp811:
	.loc	50 232 5 prologue_end
	movq	(%rdi), %rax
	movq	%rax, -8(%rbp)
Ltmp812:
	.loc	50 0 5 is_stmt 0
	leaq	-8(%rbp), %rdi
Ltmp813:
	.loc	50 232 5
	callq	__ZN3std4sync4once4Once9call_once28_$u7b$$u7b$closure$u7d$$u7d$17h77bb0028a486c585E
Ltmp814:
	.loc	50 232 5
	addq	$16, %rsp
	popq	%rbp
	retq
Ltmp815:
Lfunc_end33:
	.cfi_endproc

	.p2align	4, 0x90
__ZN4core3ops8function6FnOnce40call_once$u7b$$u7b$vtable.shim$u7d$$u7d$17ha9f75df79c42847dE:
Lfunc_begin34:
	.loc	50 232 0 is_stmt 1
	.cfi_startproc
	.cfi_personality 155, _rust_eh_personality
	.cfi_lsda 16, Lexception9
	pushq	%rbp
	.cfi_def_cfa_offset 16
	.cfi_offset %rbp, -16
	movq	%rsp, %rbp
	.cfi_def_cfa_register %rbp
	pushq	%r15
	pushq	%r14
	pushq	%r13
	pushq	%r12
	pushq	%rbx
	subq	$88, %rsp
	.cfi_offset %rbx, -56
	.cfi_offset %r12, -48
	.cfi_offset %r13, -40
	.cfi_offset %r14, -32
	.cfi_offset %r15, -24
Ltmp835:
	movq	%rdi, %r13
Ltmp836:
Ltmp816:
	.file	58 "/rustc/a74d1862d4d87a56244958416fd05976c58ca1a8/src/libstd/thread/mod.rs"
	.loc	58 469 33 prologue_end
	callq	__ZN3std6thread6Thread5cname17h448d25159c4aaef3E
Ltmp817:
Ltmp837:
	.loc	58 469 20 is_stmt 0
	testq	%rax, %rax
	je	LBB34_3
Ltmp838:
Ltmp818:
	.loc	58 470 17 is_stmt 1
	movq	%rax, %rdi
	movq	%rdx, %rsi
	callq	__ZN3std3sys4unix6thread6Thread8set_name17h8685af7d0e184fccE
Ltmp839:
Ltmp819:
LBB34_3:
Ltmp820:
	.loc	58 0 17 is_stmt 0
	leaq	-128(%rbp), %rdi
	.loc	58 473 30 is_stmt 1
	callq	__ZN3std3sys4unix6thread5guard7current17h44c462b783e97853E
Ltmp821:
Ltmp840:
	.loc	58 473 53 is_stmt 0
	movq	(%r13), %rsi
Ltmp823:
	leaq	-128(%rbp), %rdi
	.loc	58 473 13
	callq	__ZN3std10sys_common11thread_info3set17ha5fe6107079be9c0E
Ltmp824:
Ltmp841:
	.loc	58 474 74 is_stmt 1
	movups	8(%r13), %xmm0
	leaq	24(%r13), %rsi
Ltmp842:
	.loc	58 475 76
	movaps	%xmm0, -128(%rbp)
	leaq	-112(%rbp), %rdi
	movl	$9, %ecx
	rep;movsq (%rsi), %es:(%rdi)
Ltmp826:
	leaq	-128(%rbp), %rdi
	.loc	58 475 17 is_stmt 0
	callq	__ZN3std10sys_common9backtrace28__rust_begin_short_backtrace17h3397748020c0018eE
Ltmp827:
Ltmp843:
	.loc	58 0 17
	xorl	%r14d, %r14d
Ltmp844:
	.loc	58 477 14 is_stmt 1
	movq	96(%r13), %rbx
Ltmp845:
	.loc	23 178 1
	cmpq	$0, 16(%rbx)
	je	LBB34_14
Ltmp846:
LBB34_10:
	.loc	23 178 1 is_stmt 0
	movq	24(%rbx), %rdi
	testq	%rdi, %rdi
	je	LBB34_14
Ltmp847:
	.loc	23 178 1
	movq	32(%rbx), %rax
Ltmp832:
	callq	*(%rax)
Ltmp833:
Ltmp848:
	movq	32(%rbx), %rax
Ltmp849:
	.loc	11 282 16 is_stmt 1
	movq	8(%rax), %rsi
Ltmp850:
	.loc	11 185 12
	testq	%rsi, %rsi
	.loc	11 185 9 is_stmt 0
	je	LBB34_14
Ltmp851:
	.loc	23 178 1 is_stmt 1
	movq	24(%rbx), %rdi
Ltmp852:
	.loc	11 283 17
	movq	16(%rax), %rdx
Ltmp853:
	.loc	11 102 5
	callq	___rust_dealloc
Ltmp854:
LBB34_14:
	.loc	58 0 0 is_stmt 0
	addq	$96, %r13
Ltmp855:
	.loc	58 477 13 is_stmt 1
	movq	$1, 16(%rbx)
	movq	%r14, 24(%rbx)
	movq	%r15, 32(%rbx)
Ltmp856:
	.loc	31 1346 12
	movq	(%r13), %rax
Ltmp857:
	.loc	6 2314 20
	lock		decq	(%rax)
Ltmp858:
	.loc	31 1346 9
	jne	LBB34_22
Ltmp859:
	.loc	6 2563 24
	##MEMBARRIER
Ltmp860:
	.loc	31 1381 13
	movq	%r13, %rdi
	addq	$88, %rsp
	popq	%rbx
	popq	%r12
	popq	%r13
Ltmp861:
	popq	%r14
	popq	%r15
	popq	%rbp
	jmp	__ZN5alloc4sync12Arc$LT$T$GT$9drop_slow17h3a0593769a158cc4E
Ltmp862:
LBB34_22:
	.loc	50 232 5
	addq	$88, %rsp
	popq	%rbx
	popq	%r12
	popq	%r13
	popq	%r14
	popq	%r15
	popq	%rbp
	retq
LBB34_16:
Ltmp863:
Ltmp834:
	.loc	50 0 5 is_stmt 0
	movq	%rax, %r12
Ltmp864:
	.loc	23 178 1 is_stmt 1
	movq	24(%rbx), %rdi
	movq	32(%rbx), %rsi
	callq	__ZN5alloc5alloc8box_free17h1e8da582c49e9131E
Ltmp865:
	.loc	58 477 13
	movq	$1, 16(%rbx)
	movq	%r14, 24(%rbx)
	movq	%r15, 32(%rbx)
	jmp	LBB34_17
Ltmp866:
LBB34_7:
Ltmp828:
Ltmp829:
	.loc	55 309 23
	movq	%rax, %rdi
	callq	__ZN3std9panicking3try7cleanup17hd895f7beef0a7dadE
Ltmp830:
Ltmp867:
	.loc	55 0 0 is_stmt 0
	movq	%rax, %r14
	movq	%rdx, %r15
Ltmp868:
	.loc	58 477 14 is_stmt 1
	movq	96(%r13), %rbx
Ltmp869:
	.loc	23 178 1
	cmpq	$0, 16(%rbx)
	jne	LBB34_10
	jmp	LBB34_14
Ltmp870:
LBB34_18:
Ltmp831:
	.loc	23 0 1 is_stmt 0
	movq	%rax, %r12
	jmp	LBB34_17
Ltmp871:
LBB34_19:
Ltmp825:
	movq	%rax, %r12
	jmp	LBB34_20
Ltmp872:
LBB34_21:
Ltmp822:
	movq	%rax, %r12
	.loc	58 478 9 is_stmt 1
	movq	%r13, %rdi
	callq	__ZN4core3ptr13drop_in_place17hab5ea90cd5037be0E
Ltmp873:
LBB34_20:
	leaq	8(%r13), %rdi
	callq	__ZN4core3ptr13drop_in_place17h98382242ac5f1d2dE
Ltmp874:
LBB34_17:
	addq	$96, %r13
Ltmp875:
	movq	%r13, %rdi
	callq	__ZN4core3ptr13drop_in_place17h29586aefd6393e91E
	movq	%r12, %rdi
	callq	__Unwind_Resume
	ud2
Ltmp876:
Lfunc_end34:
	.cfi_endproc
	.file	59 "/rustc/a74d1862d4d87a56244958416fd05976c58ca1a8/src/libstd/panic.rs"
	.section	__TEXT,__gcc_except_tab
	.p2align	2
GCC_except_table34:
Lexception9:
	.byte	255
	.byte	155
	.uleb128 Lttbase0-Lttbaseref0
Lttbaseref0:
	.byte	1
	.uleb128 Lcst_end9-Lcst_begin9
Lcst_begin9:
	.uleb128 Ltmp816-Lfunc_begin34
	.uleb128 Ltmp821-Ltmp816
	.uleb128 Ltmp822-Lfunc_begin34
	.byte	0
	.uleb128 Ltmp823-Lfunc_begin34
	.uleb128 Ltmp824-Ltmp823
	.uleb128 Ltmp825-Lfunc_begin34
	.byte	0
	.uleb128 Ltmp826-Lfunc_begin34
	.uleb128 Ltmp827-Ltmp826
	.uleb128 Ltmp828-Lfunc_begin34
	.byte	3
	.uleb128 Ltmp832-Lfunc_begin34
	.uleb128 Ltmp833-Ltmp832
	.uleb128 Ltmp834-Lfunc_begin34
	.byte	0
	.uleb128 Ltmp833-Lfunc_begin34
	.uleb128 Ltmp829-Ltmp833
	.byte	0
	.byte	0
	.uleb128 Ltmp829-Lfunc_begin34
	.uleb128 Ltmp830-Ltmp829
	.uleb128 Ltmp831-Lfunc_begin34
	.byte	0
	.uleb128 Ltmp830-Lfunc_begin34
	.uleb128 Lfunc_end34-Ltmp830
	.byte	0
	.byte	0
Lcst_end9:
	.byte	0
	.byte	0
	.byte	1
	.byte	125
	.p2align	2
	.long	0
Lttbase0:
	.p2align	2

	.section	__TEXT,__text,regular,pure_instructions
	.p2align	4, 0x90
__ZN4core3ops8function6FnOnce40call_once$u7b$$u7b$vtable.shim$u7d$$u7d$17hc11fe765014ccfe2E:
Lfunc_begin35:
	.loc	50 232 0
	.cfi_startproc
	pushq	%rbp
	.cfi_def_cfa_offset 16
	.cfi_offset %rbp, -16
	movq	%rsp, %rbp
	.cfi_def_cfa_register %rbp
	subq	$16, %rsp
Ltmp877:
	.loc	50 232 5 prologue_end
	movq	(%rdi), %rax
	movq	%rax, -8(%rbp)
Ltmp878:
	.loc	50 0 5 is_stmt 0
	leaq	-8(%rbp), %rdi
Ltmp879:
	.loc	50 232 5
	callq	__ZN3std4sync4once4Once9call_once28_$u7b$$u7b$closure$u7d$$u7d$17hfb916d97af8adae7E
Ltmp880:
	.loc	50 232 5
	addq	$16, %rsp
	popq	%rbp
	retq
Ltmp881:
Lfunc_end35:
	.cfi_endproc

	.p2align	4, 0x90
__ZN4core3ptr13drop_in_place17h013931f8f96f5a69E:
Lfunc_begin36:
	.loc	23 178 0 is_stmt 1
	.cfi_startproc
	pushq	%rbp
	.cfi_def_cfa_offset 16
	.cfi_offset %rbp, -16
	movq	%rsp, %rbp
	.cfi_def_cfa_register %rbp
Ltmp882:
	.loc	31 1346 12 prologue_end
	movq	(%rdi), %rax
Ltmp883:
	.loc	6 2314 20
	lock		decq	(%rax)
Ltmp884:
	.loc	31 1346 9
	jne	LBB36_1
Ltmp885:
	.loc	6 2563 24
	##MEMBARRIER
Ltmp886:
	.loc	31 1381 13
	popq	%rbp
	jmp	__ZN5alloc4sync12Arc$LT$T$GT$9drop_slow17h0b759df908e14f66E
Ltmp887:
LBB36_1:
	.loc	23 178 1
	popq	%rbp
	retq
Ltmp888:
Lfunc_end36:
	.cfi_endproc

	.p2align	4, 0x90
__ZN4core3ptr13drop_in_place17h0420d2fc071301faE:
Lfunc_begin37:
	.loc	23 178 0
	.cfi_startproc
	pushq	%rbp
	.cfi_def_cfa_offset 16
	.cfi_offset %rbp, -16
	movq	%rsp, %rbp
	.cfi_def_cfa_register %rbp
Ltmp889:
	.loc	23 178 1 prologue_end
	popq	%rbp
	retq
Ltmp890:
Lfunc_end37:
	.cfi_endproc

	.p2align	4, 0x90
__ZN4core3ptr13drop_in_place17h0a9527572733d941E:
Lfunc_begin38:
	.loc	23 178 0
	.cfi_startproc
	pushq	%rbp
	.cfi_def_cfa_offset 16
	.cfi_offset %rbp, -16
	movq	%rsp, %rbp
	.cfi_def_cfa_register %rbp
	pushq	%rbx
	pushq	%rax
	.cfi_offset %rbx, -24
	movq	%rdi, %rbx
Ltmp891:
	.loc	54 373 18 prologue_end
	movq	(%rdi), %rdi
Ltmp892:
	.loc	52 78 17
	callq	_pthread_mutex_destroy
Ltmp893:
	.loc	23 178 1
	movq	(%rbx), %rdi
Ltmp894:
	.loc	11 102 5
	movl	$64, %esi
	movl	$8, %edx
	addq	$8, %rsp
	popq	%rbx
Ltmp895:
	popq	%rbp
	jmp	___rust_dealloc
Ltmp896:
Lfunc_end38:
	.cfi_endproc

	.p2align	4, 0x90
__ZN4core3ptr13drop_in_place17h1209fe79bcb4151bE:
Lfunc_begin39:
	.loc	23 178 0
	.cfi_startproc
	.cfi_personality 155, _rust_eh_personality
	.cfi_lsda 16, Lexception10
	pushq	%rbp
	.cfi_def_cfa_offset 16
	.cfi_offset %rbp, -16
	movq	%rsp, %rbp
	.cfi_def_cfa_register %rbp
	pushq	%r14
	pushq	%rbx
	.cfi_offset %rbx, -32
	.cfi_offset %r14, -24
	movq	%rdi, %rbx
Ltmp900:
	.loc	23 178 1 prologue_end
	movq	(%rdi), %rdi
	testq	%rdi, %rdi
	je	LBB39_5
Ltmp901:
	.loc	23 178 1 is_stmt 0
	movq	8(%rbx), %rax
Ltmp897:
	callq	*(%rax)
Ltmp898:
Ltmp902:
	movq	8(%rbx), %rax
Ltmp903:
	.loc	11 282 16 is_stmt 1
	movq	8(%rax), %rsi
Ltmp904:
	.loc	11 185 12
	testq	%rsi, %rsi
	.loc	11 185 9 is_stmt 0
	je	LBB39_5
Ltmp905:
	.loc	23 178 1 is_stmt 1
	movq	(%rbx), %rdi
Ltmp906:
	.loc	11 283 17
	movq	16(%rax), %rdx
Ltmp907:
	.loc	11 102 5
	popq	%rbx
Ltmp908:
	popq	%r14
	popq	%rbp
	jmp	___rust_dealloc
Ltmp909:
LBB39_5:
	.loc	23 178 1
	popq	%rbx
Ltmp910:
	popq	%r14
	popq	%rbp
	retq
LBB39_4:
Ltmp911:
Ltmp899:
	.loc	23 0 1 is_stmt 0
	movq	%rax, %r14
Ltmp912:
	.loc	23 178 1
	movq	(%rbx), %rdi
	movq	8(%rbx), %rsi
	callq	__ZN5alloc5alloc8box_free17h1e8da582c49e9131E
	movq	%r14, %rdi
	callq	__Unwind_Resume
	ud2
Ltmp913:
Lfunc_end39:
	.cfi_endproc
	.section	__TEXT,__gcc_except_tab
	.p2align	2
GCC_except_table39:
Lexception10:
	.byte	255
	.byte	255
	.byte	1
	.uleb128 Lcst_end10-Lcst_begin10
Lcst_begin10:
	.uleb128 Ltmp897-Lfunc_begin39
	.uleb128 Ltmp898-Ltmp897
	.uleb128 Ltmp899-Lfunc_begin39
	.byte	0
	.uleb128 Ltmp898-Lfunc_begin39
	.uleb128 Lfunc_end39-Ltmp898
	.byte	0
	.byte	0
Lcst_end10:
	.p2align	2

	.section	__TEXT,__text,regular,pure_instructions
	.p2align	4, 0x90
__ZN4core3ptr13drop_in_place17h17eec23903ceda06E:
Lfunc_begin40:
	.loc	23 178 0 is_stmt 1
	.cfi_startproc
	pushq	%rbp
	.cfi_def_cfa_offset 16
	.cfi_offset %rbp, -16
	movq	%rsp, %rbp
	.cfi_def_cfa_register %rbp
Ltmp914:
	.loc	22 2710 57 prologue_end
	movq	(%rdi), %rax
	.loc	22 2710 78 is_stmt 0
	movq	8(%rax), %rsi
Ltmp915:
	.loc	18 200 40 is_stmt 1
	testq	%rsi, %rsi
	.loc	18 200 9 is_stmt 0
	je	LBB40_2
Ltmp916:
	.loc	18 207 28 is_stmt 1
	shlq	$4, %rsi
Ltmp917:
	.loc	18 532 16
	je	LBB40_2
Ltmp918:
	.loc	22 0 0 is_stmt 0
	movq	(%rax), %rdi
Ltmp919:
	.loc	11 102 5 is_stmt 1
	movl	$8, %edx
	popq	%rbp
	jmp	___rust_dealloc
Ltmp920:
LBB40_2:
	.loc	23 178 1
	popq	%rbp
	retq
Ltmp921:
Lfunc_end40:
	.cfi_endproc

	.p2align	4, 0x90
__ZN4core3ptr13drop_in_place17h1f7cfe3574865119E:
Lfunc_begin41:
	.loc	23 178 0
	.cfi_startproc
	.cfi_personality 155, _rust_eh_personality
	.cfi_lsda 16, Lexception11
	pushq	%rbp
	.cfi_def_cfa_offset 16
	.cfi_offset %rbp, -16
	movq	%rsp, %rbp
	.cfi_def_cfa_register %rbp
	pushq	%r14
	pushq	%rbx
	.cfi_offset %rbx, -32
	.cfi_offset %r14, -24
	movq	%rdi, %rbx
Ltmp925:
	.loc	23 178 1 prologue_end
	movq	(%rdi), %rdi
	movq	8(%rbx), %rax
Ltmp922:
	callq	*(%rax)
Ltmp923:
Ltmp926:
	movq	8(%rbx), %rax
Ltmp927:
	.loc	11 282 16
	movq	8(%rax), %rsi
Ltmp928:
	.loc	11 185 12
	testq	%rsi, %rsi
	.loc	11 185 9 is_stmt 0
	je	LBB41_2
Ltmp929:
	.loc	23 178 1 is_stmt 1
	movq	(%rbx), %rdi
Ltmp930:
	.loc	11 283 17
	movq	16(%rax), %rdx
Ltmp931:
	.loc	11 102 5
	popq	%rbx
Ltmp932:
	popq	%r14
	popq	%rbp
	jmp	___rust_dealloc
Ltmp933:
LBB41_2:
	.loc	23 178 1
	popq	%rbx
Ltmp934:
	popq	%r14
	popq	%rbp
	retq
LBB41_3:
Ltmp935:
Ltmp924:
	.loc	23 0 1 is_stmt 0
	movq	%rax, %r14
	.loc	23 178 1
	movq	(%rbx), %rdi
	movq	8(%rbx), %rsi
	callq	__ZN5alloc5alloc8box_free17h1e8da582c49e9131E
	movq	%r14, %rdi
	callq	__Unwind_Resume
	ud2
Ltmp936:
Lfunc_end41:
	.cfi_endproc
	.section	__TEXT,__gcc_except_tab
	.p2align	2
GCC_except_table41:
Lexception11:
	.byte	255
	.byte	255
	.byte	1
	.uleb128 Lcst_end11-Lcst_begin11
Lcst_begin11:
	.uleb128 Ltmp922-Lfunc_begin41
	.uleb128 Ltmp923-Ltmp922
	.uleb128 Ltmp924-Lfunc_begin41
	.byte	0
	.uleb128 Ltmp923-Lfunc_begin41
	.uleb128 Lfunc_end41-Ltmp923
	.byte	0
	.byte	0
Lcst_end11:
	.p2align	2

	.section	__TEXT,__text,regular,pure_instructions
	.p2align	4, 0x90
__ZN4core3ptr13drop_in_place17h2071e84a477bebb6E:
Lfunc_begin42:
	.loc	23 178 0 is_stmt 1
	.cfi_startproc
	.cfi_personality 155, _rust_eh_personality
	.cfi_lsda 16, Lexception12
	pushq	%rbp
	.cfi_def_cfa_offset 16
	.cfi_offset %rbp, -16
	movq	%rsp, %rbp
	.cfi_def_cfa_register %rbp
Ltmp940:
	pushq	%r15
	pushq	%r14
	pushq	%rbx
	pushq	%rax
	.cfi_offset %rbx, -40
	.cfi_offset %r14, -32
	.cfi_offset %r15, -24
	.loc	23 178 1 prologue_end
	cmpq	$0, (%rdi)
	je	LBB42_7
Ltmp941:
	.loc	23 0 1 is_stmt 0
	movq	%rdi, %rbx
Ltmp942:
	.loc	23 178 1
	movb	8(%rdi), %al
	cmpb	$3, %al
	ja	LBB42_3
Ltmp943:
	.loc	23 0 1
	cmpb	$2, %al
	je	LBB42_3
Ltmp944:
LBB42_7:
	.loc	23 178 1
	addq	$8, %rsp
	popq	%rbx
	popq	%r14
	popq	%r15
	popq	%rbp
	retq
LBB42_3:
Ltmp945:
	.loc	23 178 1
	movq	16(%rbx), %r15
Ltmp946:
	.loc	23 178 1
	movq	(%r15), %rdi
	movq	8(%r15), %rax
Ltmp937:
	callq	*(%rax)
Ltmp938:
Ltmp947:
	movq	8(%r15), %rax
Ltmp948:
	.loc	11 282 16 is_stmt 1
	movq	8(%rax), %rsi
Ltmp949:
	.loc	11 185 12
	testq	%rsi, %rsi
	.loc	11 185 9 is_stmt 0
	je	LBB42_6
Ltmp950:
	.loc	23 178 1 is_stmt 1
	movq	(%r15), %rdi
Ltmp951:
	.loc	11 283 17
	movq	16(%rax), %rdx
Ltmp952:
	.loc	11 102 5
	callq	___rust_dealloc
Ltmp953:
LBB42_6:
	.loc	23 178 1
	movq	16(%rbx), %rdi
Ltmp954:
	.loc	11 102 5
	movl	$24, %esi
	movl	$8, %edx
	addq	$8, %rsp
	popq	%rbx
Ltmp955:
	popq	%r14
	popq	%r15
	popq	%rbp
	jmp	___rust_dealloc
Ltmp956:
LBB42_8:
Ltmp939:
	.loc	11 0 5 is_stmt 0
	movq	%rax, %r14
Ltmp957:
	.loc	23 178 1 is_stmt 1
	movq	(%r15), %rdi
	movq	8(%r15), %rsi
	callq	__ZN5alloc5alloc8box_free17h1e8da582c49e9131E
Ltmp958:
	.loc	23 178 1 is_stmt 0
	movq	16(%rbx), %rdi
	callq	__ZN5alloc5alloc8box_free17hb631fd0fd787e5d5E
	movq	%r14, %rdi
	callq	__Unwind_Resume
	ud2
Ltmp959:
Lfunc_end42:
	.cfi_endproc
	.section	__TEXT,__gcc_except_tab
	.p2align	2
GCC_except_table42:
Lexception12:
	.byte	255
	.byte	255
	.byte	1
	.uleb128 Lcst_end12-Lcst_begin12
Lcst_begin12:
	.uleb128 Ltmp937-Lfunc_begin42
	.uleb128 Ltmp938-Ltmp937
	.uleb128 Ltmp939-Lfunc_begin42
	.byte	0
	.uleb128 Ltmp938-Lfunc_begin42
	.uleb128 Lfunc_end42-Ltmp938
	.byte	0
	.byte	0
Lcst_end12:
	.p2align	2

	.section	__TEXT,__text,regular,pure_instructions
	.p2align	4, 0x90
__ZN4core3ptr13drop_in_place17h22f3cd20b2667adeE:
Lfunc_begin43:
	.loc	23 178 0 is_stmt 1
	.cfi_startproc
	pushq	%rbp
	.cfi_def_cfa_offset 16
	.cfi_offset %rbp, -16
	movq	%rsp, %rbp
	.cfi_def_cfa_register %rbp
Ltmp960:
	.loc	31 1346 12 prologue_end
	movq	(%rdi), %rax
Ltmp961:
	.loc	6 2314 20
	lock		decq	(%rax)
Ltmp962:
	.loc	31 1346 9
	jne	LBB43_1
Ltmp963:
	.loc	6 2563 24
	##MEMBARRIER
Ltmp964:
	.loc	31 1381 13
	popq	%rbp
	jmp	__ZN5alloc4sync12Arc$LT$T$GT$9drop_slow17h3a0593769a158cc4E
Ltmp965:
LBB43_1:
	.loc	23 178 1
	popq	%rbp
	retq
Ltmp966:
Lfunc_end43:
	.cfi_endproc

	.p2align	4, 0x90
__ZN4core3ptr13drop_in_place17h240afd30abda375cE:
Lfunc_begin44:
	.loc	23 178 0
	.cfi_startproc
	.cfi_personality 155, _rust_eh_personality
	.cfi_lsda 16, Lexception13
	pushq	%rbp
	.cfi_def_cfa_offset 16
	.cfi_offset %rbp, -16
	movq	%rsp, %rbp
	.cfi_def_cfa_register %rbp
	pushq	%r15
	pushq	%r14
	pushq	%r12
	pushq	%rbx
	subq	$16, %rsp
	.cfi_offset %rbx, -48
	.cfi_offset %r12, -40
	.cfi_offset %r14, -32
	.cfi_offset %r15, -24
	movq	%rdi, %r15
Ltmp973:
	.loc	30 270 13 prologue_end
	movq	__ZN10rayon_core8registry19WORKER_THREAD_STATE7__getit5__KEY17hd2a9ef420c64abdcE@TLVP(%rip), %rdi
	callq	*(%rdi)
	cmpq	$1, (%rax)
Ltmp974:
	.loc	28 409 17
	jne	LBB44_1
Ltmp975:
	.loc	25 432 18
	movq	__ZN10rayon_core8registry19WORKER_THREAD_STATE7__getit5__KEY17hd2a9ef420c64abdcE@TLVP(%rip), %rdi
	callq	*(%rdi)
Ltmp976:
	.loc	38 743 9
	cmpq	%r15, 8(%rax)
Ltmp977:
	.loc	1 577 13
	jne	LBB44_3
Ltmp978:
	.loc	13 2058 5
	movq	__ZN10rayon_core8registry19WORKER_THREAD_STATE7__getit5__KEY17hd2a9ef420c64abdcE@TLVP(%rip), %rdi
	callq	*(%rdi)
Ltmp979:
	movq	$0, 8(%rax)
Ltmp980:
	.loc	31 1346 12
	movq	256(%r15), %rax
Ltmp981:
	.loc	6 2314 20
	lock		decq	(%rax)
Ltmp982:
	.loc	31 1346 9
	jne	LBB44_7
Ltmp983:
	.loc	23 0 0 is_stmt 0
	leaq	256(%r15), %rdi
Ltmp984:
	.loc	6 2563 24 is_stmt 1
	##MEMBARRIER
Ltmp985:
Ltmp970:
	.loc	31 1381 13
	callq	__ZN5alloc4sync12Arc$LT$T$GT$9drop_slow17h0b759df908e14f66E
Ltmp986:
Ltmp971:
LBB44_7:
	.loc	6 2276 20
	movq	(%r15), %rbx
Ltmp987:
	.loc	6 2276 20 is_stmt 0
	movq	128(%r15), %r14
Ltmp988:
	.loc	6 2276 20
	movq	8(%r15), %rdi
Ltmp989:
	.loc	33 449 9 is_stmt 1
	andq	$-2, %rbx
Ltmp990:
	.loc	33 450 9
	andq	$-2, %r14
Ltmp991:
	.loc	33 454 19
	cmpq	%r14, %rbx
	.loc	33 454 13 is_stmt 0
	jne	LBB44_10
Ltmp992:
LBB44_8:
	.loc	12 28 9 is_stmt 1
	testq	%rdi, %rdi
Ltmp993:
	.loc	33 473 13
	je	LBB44_5
Ltmp994:
	.loc	11 102 5
	movl	$752, %esi
	movl	$8, %edx
	callq	___rust_dealloc
Ltmp995:
LBB44_5:
	.loc	31 1346 12
	movq	304(%r15), %rax
Ltmp996:
	.loc	6 2314 20
	lock		decq	(%rax)
Ltmp997:
	.loc	31 1346 9
	jne	LBB44_6
Ltmp998:
	.loc	23 0 0 is_stmt 0
	addq	$304, %r15
Ltmp999:
	.loc	6 2563 24 is_stmt 1
	##MEMBARRIER
Ltmp1000:
	.loc	31 1381 13
	movq	%r15, %rdi
	addq	$16, %rsp
	popq	%rbx
	popq	%r12
	popq	%r14
	popq	%r15
Ltmp1001:
	popq	%rbp
	jmp	__ZN5alloc4sync12Arc$LT$T$GT$9drop_slow17h00dcc58473909bd4E
Ltmp1002:
	.p2align	4, 0x90
LBB44_12:
	.loc	7 3320 17
	addq	$2, %rbx
Ltmp1003:
	.loc	33 454 19
	cmpq	%rbx, %r14
	.loc	33 454 13 is_stmt 0
	je	LBB44_8
Ltmp1004:
LBB44_10:
	.loc	33 455 30 is_stmt 1
	movl	%ebx, %eax
	andl	$62, %eax
Ltmp1005:
	.loc	33 457 20
	cmpq	$62, %rax
	.loc	33 457 17 is_stmt 0
	jne	LBB44_12
Ltmp1006:
	.loc	6 2276 20 is_stmt 1
	movq	(%rdi), %r12
Ltmp1007:
	.loc	11 102 5
	movl	$752, %esi
	movl	$8, %edx
	callq	___rust_dealloc
Ltmp1008:
	.loc	33 0 0 is_stmt 0
	movq	%r12, %rdi
Ltmp1009:
	jmp	LBB44_12
Ltmp1010:
LBB44_6:
	.loc	23 178 1 is_stmt 1
	addq	$16, %rsp
	popq	%rbx
	popq	%r12
	popq	%r14
	popq	%r15
Ltmp1011:
	popq	%rbp
	retq
LBB44_1:
Ltmp1012:
	.loc	23 0 1 is_stmt 0
	movl	$1, %eax
Ltmp1013:
	.loc	13 2058 5 is_stmt 1
	movq	%rax, %xmm0
	movdqa	%xmm0, -48(%rbp)
	movq	__ZN10rayon_core8registry19WORKER_THREAD_STATE7__getit5__KEY17hd2a9ef420c64abdcE@TLVP(%rip), %rdi
	callq	*(%rdi)
	movaps	-48(%rbp), %xmm0
	movups	%xmm0, (%rax)
Ltmp1014:
LBB44_3:
Ltmp967:
	.loc	1 577 13
	leaq	l___unnamed_55(%rip), %rdi
	leaq	l___unnamed_56(%rip), %rdx
	movl	$49, %esi
	callq	__ZN3std9panicking11begin_panic17h5383990145059594E
Ltmp968:
Ltmp1015:
	ud2
Ltmp1016:
LBB44_15:
Ltmp969:
	.loc	1 0 13 is_stmt 0
	movq	%rax, %r14
	.loc	23 178 1 is_stmt 1
	leaq	256(%r15), %rdi
	callq	__ZN4core3ptr13drop_in_place17hb0944cad61188ce1E
	jmp	LBB44_16
Ltmp1017:
LBB44_17:
Ltmp972:
	.loc	23 0 1 is_stmt 0
	movq	%rax, %r14
Ltmp1018:
LBB44_16:
	.loc	23 178 1
	movq	%r15, %rdi
	callq	__ZN4core3ptr13drop_in_place17h3e544bbe91cef879E
	addq	$304, %r15
Ltmp1019:
	movq	%r15, %rdi
	callq	__ZN4core3ptr13drop_in_place17h5f47feac0291afb9E
	movq	%r14, %rdi
	callq	__Unwind_Resume
	ud2
Ltmp1020:
Lfunc_end44:
	.cfi_endproc
	.section	__TEXT,__gcc_except_tab
	.p2align	2
GCC_except_table44:
Lexception13:
	.byte	255
	.byte	255
	.byte	1
	.uleb128 Lcst_end13-Lcst_begin13
Lcst_begin13:
	.uleb128 Lfunc_begin44-Lfunc_begin44
	.uleb128 Ltmp970-Lfunc_begin44
	.byte	0
	.byte	0
	.uleb128 Ltmp970-Lfunc_begin44
	.uleb128 Ltmp971-Ltmp970
	.uleb128 Ltmp972-Lfunc_begin44
	.byte	0
	.uleb128 Ltmp971-Lfunc_begin44
	.uleb128 Ltmp967-Ltmp971
	.byte	0
	.byte	0
	.uleb128 Ltmp967-Lfunc_begin44
	.uleb128 Ltmp968-Ltmp967
	.uleb128 Ltmp969-Lfunc_begin44
	.byte	0
	.uleb128 Ltmp968-Lfunc_begin44
	.uleb128 Lfunc_end44-Ltmp968
	.byte	0
	.byte	0
Lcst_end13:
	.p2align	2

	.section	__TEXT,__text,regular,pure_instructions
	.p2align	4, 0x90
__ZN4core3ptr13drop_in_place17h29586aefd6393e91E:
Lfunc_begin45:
	.loc	23 178 0 is_stmt 1
	.cfi_startproc
	pushq	%rbp
	.cfi_def_cfa_offset 16
	.cfi_offset %rbp, -16
	movq	%rsp, %rbp
	.cfi_def_cfa_register %rbp
Ltmp1021:
	.loc	31 1346 12 prologue_end
	movq	(%rdi), %rax
Ltmp1022:
	.loc	6 2314 20
	lock		decq	(%rax)
Ltmp1023:
	.loc	31 1346 9
	jne	LBB45_1
Ltmp1024:
	.loc	6 2563 24
	##MEMBARRIER
Ltmp1025:
	.loc	31 1381 13
	popq	%rbp
	jmp	__ZN5alloc4sync12Arc$LT$T$GT$9drop_slow17h3a0593769a158cc4E
Ltmp1026:
LBB45_1:
	.loc	23 178 1
	popq	%rbp
	retq
Ltmp1027:
Lfunc_end45:
	.cfi_endproc

	.p2align	4, 0x90
__ZN4core3ptr13drop_in_place17h303ee41bcb3ed971E:
Lfunc_begin46:
	.loc	23 178 0
	.cfi_startproc
	pushq	%rbp
	.cfi_def_cfa_offset 16
	.cfi_offset %rbp, -16
	movq	%rsp, %rbp
	.cfi_def_cfa_register %rbp
Ltmp1028:
	.loc	18 200 40 prologue_end
	testq	%rsi, %rsi
	.loc	18 200 9 is_stmt 0
	je	LBB46_3
Ltmp1029:
	.loc	18 532 16 is_stmt 1
	testq	%rdi, %rdi
Ltmp1030:
	je	LBB46_3
Ltmp1031:
	.loc	18 0 0 is_stmt 0
	shlq	$5, %rsi
Ltmp1032:
	.loc	18 532 16
	je	LBB46_3
Ltmp1033:
	.loc	11 102 5 is_stmt 1
	movl	$8, %edx
	popq	%rbp
	jmp	___rust_dealloc
Ltmp1034:
LBB46_3:
	.loc	23 178 1
	popq	%rbp
	retq
Ltmp1035:
Lfunc_end46:
	.cfi_endproc

	.p2align	4, 0x90
__ZN4core3ptr13drop_in_place17h3048a01df898dd06E:
Lfunc_begin47:
	.loc	23 178 0
	.cfi_startproc
	pushq	%rbp
	.cfi_def_cfa_offset 16
	.cfi_offset %rbp, -16
	movq	%rsp, %rbp
	.cfi_def_cfa_register %rbp
Ltmp1036:
	.loc	23 178 1 prologue_end
	cmpq	$2, 40(%rdi)
	jne	LBB47_2
Ltmp1037:
	popq	%rbp
	retq
Ltmp1038:
LBB47_2:
	.loc	23 178 1 is_stmt 0
	popq	%rbp
	jmp	__ZN4core3ptr13drop_in_place17he2dbbcc51a197545E
Ltmp1039:
Lfunc_end47:
	.cfi_endproc

	.p2align	4, 0x90
__ZN4core3ptr13drop_in_place17h356ba390c6bf7580E:
Lfunc_begin48:
	.loc	23 178 0 is_stmt 1
	.cfi_startproc
	pushq	%rbp
	.cfi_def_cfa_offset 16
	.cfi_offset %rbp, -16
	movq	%rsp, %rbp
	.cfi_def_cfa_register %rbp
	pushq	%r14
	pushq	%rbx
	.cfi_offset %rbx, -32
	.cfi_offset %r14, -24
	movq	%rdi, %rbx
Ltmp1040:
	.file	60 "/rustc/a74d1862d4d87a56244958416fd05976c58ca1a8/src/libstd/sys_common/poison.rs"
	.loc	60 34 13 prologue_end
	cmpb	$0, 8(%rdi)
	.loc	60 34 12 is_stmt 0
	jne	LBB48_3
Ltmp1041:
	.loc	54 0 0
	movq	(%rbx), %r14
Ltmp1042:
	.loc	58 732 5 is_stmt 1
	callq	__ZN3std9panicking9panicking17h6f800ddc6c0d9b77E
Ltmp1043:
	.loc	60 34 12
	testb	%al, %al
	je	LBB48_3
Ltmp1044:
	.loc	6 2265 20
	movb	$1, 8(%r14)
Ltmp1045:
LBB48_3:
	.loc	54 446 13
	movq	(%rbx), %rax
	movq	(%rax), %rdi
Ltmp1046:
	.loc	52 68 17
	popq	%rbx
Ltmp1047:
	popq	%r14
	popq	%rbp
	jmp	_pthread_mutex_unlock
Ltmp1048:
Lfunc_end48:
	.cfi_endproc

	.p2align	4, 0x90
__ZN4core3ptr13drop_in_place17h3dba2708bacf15f9E:
Lfunc_begin49:
	.loc	23 178 0
	.cfi_startproc
	pushq	%rbp
	.cfi_def_cfa_offset 16
	.cfi_offset %rbp, -16
	movq	%rsp, %rbp
	.cfi_def_cfa_register %rbp
Ltmp1049:
	.loc	31 1346 12 prologue_end
	movq	8(%rdi), %rax
Ltmp1050:
	.loc	6 2314 20
	lock		decq	(%rax)
Ltmp1051:
	.loc	31 1346 9
	jne	LBB49_1
Ltmp1052:
	.loc	23 0 0 is_stmt 0
	addq	$8, %rdi
Ltmp1053:
	.loc	6 2563 24 is_stmt 1
	##MEMBARRIER
Ltmp1054:
	.loc	31 1381 13
	popq	%rbp
	jmp	__ZN5alloc4sync12Arc$LT$T$GT$9drop_slow17h00dcc58473909bd4E
Ltmp1055:
LBB49_1:
	.loc	23 178 1
	popq	%rbp
	retq
Ltmp1056:
Lfunc_end49:
	.cfi_endproc

	.p2align	4, 0x90
__ZN4core3ptr13drop_in_place17h3e544bbe91cef879E:
Lfunc_begin50:
	.loc	23 178 0
	.cfi_startproc
	pushq	%rbp
	.cfi_def_cfa_offset 16
	.cfi_offset %rbp, -16
	movq	%rsp, %rbp
	.cfi_def_cfa_register %rbp
Ltmp1057:
	pushq	%r15
	pushq	%r14
	pushq	%rbx
	pushq	%rax
	.cfi_offset %rbx, -40
	.cfi_offset %r14, -32
	.cfi_offset %r15, -24
	.loc	6 2276 20 prologue_end
	movq	(%rdi), %rbx
Ltmp1058:
	.loc	6 2276 20 is_stmt 0
	movq	128(%rdi), %r14
Ltmp1059:
	.loc	6 2276 20
	movq	8(%rdi), %rdi
Ltmp1060:
	.loc	33 449 9 is_stmt 1
	andq	$-2, %rbx
Ltmp1061:
	.loc	33 450 9
	andq	$-2, %r14
Ltmp1062:
	.loc	33 454 19
	cmpq	%r14, %rbx
	.loc	33 454 13 is_stmt 0
	jne	LBB50_3
Ltmp1063:
LBB50_1:
	.loc	12 28 9 is_stmt 1
	testq	%rdi, %rdi
Ltmp1064:
	.loc	33 473 13
	je	LBB50_6
Ltmp1065:
	.loc	11 102 5
	movl	$752, %esi
	movl	$8, %edx
	addq	$8, %rsp
	popq	%rbx
Ltmp1066:
	popq	%r14
Ltmp1067:
	popq	%r15
	popq	%rbp
	jmp	___rust_dealloc
Ltmp1068:
	.p2align	4, 0x90
LBB50_5:
	.loc	7 3320 17
	addq	$2, %rbx
Ltmp1069:
	.loc	33 454 19
	cmpq	%rbx, %r14
	.loc	33 454 13 is_stmt 0
	je	LBB50_1
Ltmp1070:
LBB50_3:
	.loc	33 455 30 is_stmt 1
	movl	%ebx, %eax
	andl	$62, %eax
Ltmp1071:
	.loc	33 457 20
	cmpq	$62, %rax
	.loc	33 457 17 is_stmt 0
	jne	LBB50_5
Ltmp1072:
	.loc	6 2276 20 is_stmt 1
	movq	(%rdi), %r15
Ltmp1073:
	.loc	11 102 5
	movl	$752, %esi
	movl	$8, %edx
	callq	___rust_dealloc
Ltmp1074:
	.loc	33 0 0 is_stmt 0
	movq	%r15, %rdi
Ltmp1075:
	jmp	LBB50_5
Ltmp1076:
LBB50_6:
	.loc	23 178 1 is_stmt 1
	addq	$8, %rsp
	popq	%rbx
	popq	%r14
	popq	%r15
	popq	%rbp
	retq
Ltmp1077:
Lfunc_end50:
	.cfi_endproc

	.p2align	4, 0x90
__ZN4core3ptr13drop_in_place17h40312f9b87f4d45fE:
Lfunc_begin51:
	.loc	23 178 0
	.cfi_startproc
	.cfi_personality 155, _rust_eh_personality
	.cfi_lsda 16, Lexception14
	pushq	%rbp
	.cfi_def_cfa_offset 16
	.cfi_offset %rbp, -16
	movq	%rsp, %rbp
	.cfi_def_cfa_register %rbp
Ltmp1081:
	pushq	%r15
	pushq	%r14
	pushq	%rbx
	pushq	%rax
	.cfi_offset %rbx, -40
	.cfi_offset %r14, -32
	.cfi_offset %r15, -24
	.loc	23 178 1 prologue_end
	cmpb	$2, (%rdi)
	jae	LBB51_1
Ltmp1082:
	.loc	23 178 1 is_stmt 0
	addq	$8, %rsp
	popq	%rbx
	popq	%r14
	popq	%r15
	popq	%rbp
	retq
Ltmp1083:
LBB51_1:
	.loc	23 0 1
	movq	%rdi, %r15
Ltmp1084:
	.loc	23 178 1
	movq	8(%rdi), %rbx
Ltmp1085:
	.loc	23 178 1
	movq	(%rbx), %rdi
	movq	8(%rbx), %rax
Ltmp1078:
	callq	*(%rax)
Ltmp1079:
Ltmp1086:
	movq	8(%rbx), %rax
Ltmp1087:
	.loc	11 282 16 is_stmt 1
	movq	8(%rax), %rsi
Ltmp1088:
	.loc	11 185 12
	testq	%rsi, %rsi
	.loc	11 185 9 is_stmt 0
	je	LBB51_4
Ltmp1089:
	.loc	23 178 1 is_stmt 1
	movq	(%rbx), %rdi
Ltmp1090:
	.loc	11 283 17
	movq	16(%rax), %rdx
Ltmp1091:
	.loc	11 102 5
	callq	___rust_dealloc
Ltmp1092:
LBB51_4:
	.loc	23 178 1
	movq	8(%r15), %rdi
Ltmp1093:
	.loc	11 102 5
	movl	$24, %esi
	movl	$8, %edx
	addq	$8, %rsp
	popq	%rbx
	popq	%r14
	popq	%r15
Ltmp1094:
	popq	%rbp
	jmp	___rust_dealloc
Ltmp1095:
LBB51_6:
Ltmp1080:
	.loc	11 0 5 is_stmt 0
	movq	%rax, %r14
Ltmp1096:
	.loc	23 178 1 is_stmt 1
	movq	(%rbx), %rdi
	movq	8(%rbx), %rsi
	callq	__ZN5alloc5alloc8box_free17h1e8da582c49e9131E
Ltmp1097:
	.loc	23 178 1 is_stmt 0
	movq	8(%r15), %rdi
	callq	__ZN5alloc5alloc8box_free17hb631fd0fd787e5d5E
	movq	%r14, %rdi
	callq	__Unwind_Resume
	ud2
Ltmp1098:
Lfunc_end51:
	.cfi_endproc
	.section	__TEXT,__gcc_except_tab
	.p2align	2
GCC_except_table51:
Lexception14:
	.byte	255
	.byte	255
	.byte	1
	.uleb128 Lcst_end14-Lcst_begin14
Lcst_begin14:
	.uleb128 Ltmp1078-Lfunc_begin51
	.uleb128 Ltmp1079-Ltmp1078
	.uleb128 Ltmp1080-Lfunc_begin51
	.byte	0
	.uleb128 Ltmp1079-Lfunc_begin51
	.uleb128 Lfunc_end51-Ltmp1079
	.byte	0
	.byte	0
Lcst_end14:
	.p2align	2

	.section	__TEXT,__text,regular,pure_instructions
	.p2align	4, 0x90
__ZN4core3ptr13drop_in_place17h43773fb280fdcc4aE:
Lfunc_begin52:
	.loc	23 178 0 is_stmt 1
	.cfi_startproc
	.cfi_personality 155, _rust_eh_personality
	.cfi_lsda 16, Lexception15
	pushq	%rbp
	.cfi_def_cfa_offset 16
	.cfi_offset %rbp, -16
	movq	%rsp, %rbp
	.cfi_def_cfa_register %rbp
	pushq	%r15
	pushq	%r14
	pushq	%rbx
	pushq	%rax
	.cfi_offset %rbx, -40
	.cfi_offset %r14, -32
	.cfi_offset %r15, -24
	movq	%rdi, %rbx
Ltmp1102:
	.loc	23 178 1 prologue_end
	movb	(%rdi), %al
Ltmp1103:
	cmpb	$3, %al
	ja	LBB52_2
Ltmp1104:
	.loc	23 0 1 is_stmt 0
	cmpb	$2, %al
	je	LBB52_2
Ltmp1105:
	.loc	23 178 1
	addq	$8, %rsp
	popq	%rbx
Ltmp1106:
	popq	%r14
	popq	%r15
	popq	%rbp
	retq
LBB52_2:
Ltmp1107:
	.loc	23 178 1
	movq	8(%rbx), %r15
Ltmp1108:
	.loc	23 178 1
	movq	(%r15), %rdi
	movq	8(%r15), %rax
Ltmp1099:
	callq	*(%rax)
Ltmp1100:
Ltmp1109:
	movq	8(%r15), %rax
Ltmp1110:
	.loc	11 282 16 is_stmt 1
	movq	8(%rax), %rsi
Ltmp1111:
	.loc	11 185 12
	testq	%rsi, %rsi
	.loc	11 185 9 is_stmt 0
	je	LBB52_5
Ltmp1112:
	.loc	23 178 1 is_stmt 1
	movq	(%r15), %rdi
Ltmp1113:
	.loc	11 283 17
	movq	16(%rax), %rdx
Ltmp1114:
	.loc	11 102 5
	callq	___rust_dealloc
Ltmp1115:
LBB52_5:
	.loc	23 178 1
	movq	8(%rbx), %rdi
Ltmp1116:
	.loc	11 102 5
	movl	$24, %esi
	movl	$8, %edx
	addq	$8, %rsp
	popq	%rbx
Ltmp1117:
	popq	%r14
	popq	%r15
	popq	%rbp
	jmp	___rust_dealloc
Ltmp1118:
LBB52_7:
Ltmp1101:
	.loc	11 0 5 is_stmt 0
	movq	%rax, %r14
Ltmp1119:
	.loc	23 178 1 is_stmt 1
	movq	(%r15), %rdi
	movq	8(%r15), %rsi
	callq	__ZN5alloc5alloc8box_free17h1e8da582c49e9131E
Ltmp1120:
	.loc	23 178 1 is_stmt 0
	movq	8(%rbx), %rdi
	callq	__ZN5alloc5alloc8box_free17hb631fd0fd787e5d5E
	movq	%r14, %rdi
	callq	__Unwind_Resume
	ud2
Ltmp1121:
Lfunc_end52:
	.cfi_endproc
	.section	__TEXT,__gcc_except_tab
	.p2align	2
GCC_except_table52:
Lexception15:
	.byte	255
	.byte	255
	.byte	1
	.uleb128 Lcst_end15-Lcst_begin15
Lcst_begin15:
	.uleb128 Ltmp1099-Lfunc_begin52
	.uleb128 Ltmp1100-Ltmp1099
	.uleb128 Ltmp1101-Lfunc_begin52
	.byte	0
	.uleb128 Ltmp1100-Lfunc_begin52
	.uleb128 Lfunc_end52-Ltmp1100
	.byte	0
	.byte	0
Lcst_end15:
	.p2align	2

	.section	__TEXT,__text,regular,pure_instructions
	.p2align	4, 0x90
__ZN4core3ptr13drop_in_place17h44f7ed63d2b72c14E:
Lfunc_begin53:
	.loc	23 178 0 is_stmt 1
	.cfi_startproc
	.cfi_personality 155, _rust_eh_personality
	.cfi_lsda 16, Lexception16
	pushq	%rbp
	.cfi_def_cfa_offset 16
	.cfi_offset %rbp, -16
	movq	%rsp, %rbp
	.cfi_def_cfa_register %rbp
Ltmp1128:
	pushq	%r15
	pushq	%r14
	pushq	%rbx
	pushq	%rax
	.cfi_offset %rbx, -40
	.cfi_offset %r14, -32
	.cfi_offset %r15, -24
	.loc	22 2714 21 prologue_end
	movq	%rdi, -32(%rbp)
Ltmp1129:
	.loc	22 2605 39
	movq	16(%rdi), %rbx
Ltmp1130:
	.loc	22 2605 59 is_stmt 0
	movq	24(%rdi), %r15
Ltmp1131:
	.loc	38 291 9 is_stmt 1
	subq	%rbx, %r15
Ltmp1132:
	.loc	23 178 1
	je	LBB53_6
Ltmp1133:
	.loc	22 0 0 is_stmt 0
	sarq	$5, %r15
Ltmp1134:
	.loc	31 1346 9 is_stmt 1
	shlq	$5, %r15
Ltmp1135:
	addq	$-32, %r15
Ltmp1136:
	.loc	31 1346 12 is_stmt 0
	movq	(%rbx), %rax
Ltmp1137:
	.loc	6 2314 20 is_stmt 1
	lock		decq	(%rax)
Ltmp1138:
	.loc	31 1346 9
	je	LBB53_3
Ltmp1139:
	.p2align	4, 0x90
LBB53_4:
	.loc	23 178 1
	addq	$32, %rbx
Ltmp1140:
	addq	$-32, %r15
	cmpq	$-32, %r15
	je	LBB53_5
Ltmp1141:
	.loc	31 1346 12
	movq	(%rbx), %rax
Ltmp1142:
	.loc	6 2314 20
	lock		decq	(%rax)
Ltmp1143:
	.loc	31 1346 9
	jne	LBB53_4
Ltmp1144:
LBB53_3:
	.loc	6 2563 24
	##MEMBARRIER
Ltmp1145:
Ltmp1122:
	.loc	31 1381 13
	movq	%rbx, %rdi
Ltmp1146:
	callq	__ZN5alloc4sync12Arc$LT$T$GT$9drop_slow17h0b759df908e14f66E
Ltmp1123:
	jmp	LBB53_4
Ltmp1147:
LBB53_5:
	.loc	22 2710 57
	movq	-32(%rbp), %rdi
LBB53_6:
Ltmp1148:
	.loc	22 2710 78 is_stmt 0
	movq	8(%rdi), %rsi
Ltmp1149:
	.loc	18 200 40 is_stmt 1
	testq	%rsi, %rsi
	.loc	18 200 9 is_stmt 0
	je	LBB53_9
Ltmp1150:
	.loc	18 207 28 is_stmt 1
	shlq	$5, %rsi
Ltmp1151:
	.loc	18 532 16
	je	LBB53_9
Ltmp1152:
	.loc	22 0 0 is_stmt 0
	movq	(%rdi), %rdi
Ltmp1153:
	.loc	11 102 5 is_stmt 1
	movl	$8, %edx
	callq	___rust_dealloc
Ltmp1154:
LBB53_9:
	.loc	23 178 1
	addq	$8, %rsp
	popq	%rbx
	popq	%r14
	popq	%r15
	popq	%rbp
	retq
LBB53_12:
Ltmp1155:
Ltmp1124:
	.loc	23 0 1 is_stmt 0
	movq	%rax, %r14
Ltmp1156:
	.loc	23 178 1
	testq	%r15, %r15
	je	LBB53_15
Ltmp1157:
	.loc	23 0 1
	addq	$32, %rbx
Ltmp1158:
	.p2align	4, 0x90
LBB53_10:
Ltmp1125:
	.loc	23 178 1
	movq	%rbx, %rdi
	callq	__ZN4core3ptr13drop_in_place17hb0944cad61188ce1E
Ltmp1126:
	addq	$32, %rbx
	addq	$-32, %r15
	jne	LBB53_10
	jmp	LBB53_15
Ltmp1159:
LBB53_14:
Ltmp1127:
	.loc	23 0 1
	movq	%rax, %r14
LBB53_15:
Ltmp1160:
	leaq	-32(%rbp), %rdi
	.loc	22 2720 5 is_stmt 1
	callq	__ZN4core3ptr13drop_in_place17h73c6ae08cdea7948E
	movq	%r14, %rdi
	callq	__Unwind_Resume
	ud2
Ltmp1161:
Lfunc_end53:
	.cfi_endproc
	.file	61 "/rustc/a74d1862d4d87a56244958416fd05976c58ca1a8/src/libcore/iter/traits/exact_size.rs"
	.section	__TEXT,__gcc_except_tab
	.p2align	2
GCC_except_table53:
Lexception16:
	.byte	255
	.byte	255
	.byte	1
	.uleb128 Lcst_end16-Lcst_begin16
Lcst_begin16:
	.uleb128 Ltmp1122-Lfunc_begin53
	.uleb128 Ltmp1123-Ltmp1122
	.uleb128 Ltmp1124-Lfunc_begin53
	.byte	0
	.uleb128 Ltmp1125-Lfunc_begin53
	.uleb128 Ltmp1126-Ltmp1125
	.uleb128 Ltmp1127-Lfunc_begin53
	.byte	0
	.uleb128 Ltmp1126-Lfunc_begin53
	.uleb128 Lfunc_end53-Ltmp1126
	.byte	0
	.byte	0
Lcst_end16:
	.p2align	2

	.section	__TEXT,__text,regular,pure_instructions
	.p2align	4, 0x90
__ZN4core3ptr13drop_in_place17h46bcb0961adc0091E:
Lfunc_begin54:
	.loc	23 178 0
	.cfi_startproc
	.cfi_personality 155, _rust_eh_personality
	.cfi_lsda 16, Lexception17
	pushq	%rbp
	.cfi_def_cfa_offset 16
	.cfi_offset %rbp, -16
	movq	%rsp, %rbp
	.cfi_def_cfa_register %rbp
	pushq	%r14
	pushq	%rbx
	.cfi_offset %rbx, -32
	.cfi_offset %r14, -24
	movq	%rdi, %rbx
Ltmp1165:
	.loc	23 178 1 prologue_end
	movq	(%rdi), %rdi
Ltmp1166:
	testq	%rdi, %rdi
	je	LBB54_3
Ltmp1167:
	.loc	23 178 1 is_stmt 0
	movq	8(%rbx), %rsi
Ltmp1168:
	.loc	18 200 40 is_stmt 1
	testq	%rsi, %rsi
	.loc	18 200 9 is_stmt 0
	je	LBB54_3
Ltmp1169:
	.loc	11 102 5 is_stmt 1
	movl	$1, %edx
	callq	___rust_dealloc
Ltmp1170:
LBB54_3:
	.loc	31 1346 12
	movq	40(%rbx), %rax
Ltmp1171:
	.loc	6 2314 20
	lock		decq	(%rax)
Ltmp1172:
	.loc	31 1346 9
	jne	LBB54_5
Ltmp1173:
	.loc	23 0 0 is_stmt 0
	leaq	40(%rbx), %rdi
Ltmp1174:
	.loc	6 2563 24 is_stmt 1
	##MEMBARRIER
Ltmp1175:
Ltmp1162:
	.loc	31 1381 13
	callq	__ZN5alloc4sync12Arc$LT$T$GT$9drop_slow17h0b759df908e14f66E
Ltmp1176:
Ltmp1163:
LBB54_5:
	.loc	31 1346 12
	movq	72(%rbx), %rax
Ltmp1177:
	.loc	6 2314 20
	lock		decq	(%rax)
Ltmp1178:
	.loc	31 1346 9
	jne	LBB54_8
Ltmp1179:
	.loc	23 0 0 is_stmt 0
	addq	$72, %rbx
Ltmp1180:
	.loc	6 2563 24 is_stmt 1
	##MEMBARRIER
Ltmp1181:
	.loc	31 1381 13
	movq	%rbx, %rdi
	popq	%rbx
Ltmp1182:
	popq	%r14
	popq	%rbp
	jmp	__ZN5alloc4sync12Arc$LT$T$GT$9drop_slow17h00dcc58473909bd4E
Ltmp1183:
LBB54_8:
	.loc	23 178 1
	popq	%rbx
Ltmp1184:
	popq	%r14
	popq	%rbp
	retq
LBB54_7:
Ltmp1185:
Ltmp1164:
	.loc	23 0 1 is_stmt 0
	movq	%rax, %r14
	.loc	23 178 1
	addq	$72, %rbx
Ltmp1186:
	movq	%rbx, %rdi
	callq	__ZN4core3ptr13drop_in_place17h5f47feac0291afb9E
	movq	%r14, %rdi
	callq	__Unwind_Resume
	ud2
Ltmp1187:
Lfunc_end54:
	.cfi_endproc
	.section	__TEXT,__gcc_except_tab
	.p2align	2
GCC_except_table54:
Lexception17:
	.byte	255
	.byte	255
	.byte	1
	.uleb128 Lcst_end17-Lcst_begin17
Lcst_begin17:
	.uleb128 Ltmp1162-Lfunc_begin54
	.uleb128 Ltmp1163-Ltmp1162
	.uleb128 Ltmp1164-Lfunc_begin54
	.byte	0
	.uleb128 Ltmp1163-Lfunc_begin54
	.uleb128 Lfunc_end54-Ltmp1163
	.byte	0
	.byte	0
Lcst_end17:
	.p2align	2

	.section	__TEXT,__text,regular,pure_instructions
	.p2align	4, 0x90
__ZN4core3ptr13drop_in_place17h4be4ea2ce37af1c1E:
Lfunc_begin55:
	.loc	23 178 0 is_stmt 1
	.cfi_startproc
	.cfi_personality 155, _rust_eh_personality
	.cfi_lsda 16, Lexception18
	pushq	%rbp
	.cfi_def_cfa_offset 16
	.cfi_offset %rbp, -16
	movq	%rsp, %rbp
	.cfi_def_cfa_register %rbp
	pushq	%r15
	pushq	%r14
	pushq	%rbx
	pushq	%rax
	.cfi_offset %rbx, -40
	.cfi_offset %r14, -32
	.cfi_offset %r15, -24
	movq	%rdi, %r15
Ltmp1191:
	.loc	23 178 1 prologue_end
	movq	(%rdi), %rbx
Ltmp1192:
	.loc	23 178 1 is_stmt 0
	movq	(%rbx), %rdi
	movq	8(%rbx), %rax
Ltmp1188:
	callq	*(%rax)
Ltmp1189:
Ltmp1193:
	movq	8(%rbx), %rax
Ltmp1194:
	.loc	11 282 16 is_stmt 1
	movq	8(%rax), %rsi
Ltmp1195:
	.loc	11 185 12
	testq	%rsi, %rsi
	.loc	11 185 9 is_stmt 0
	je	LBB55_3
Ltmp1196:
	.loc	23 178 1 is_stmt 1
	movq	(%rbx), %rdi
Ltmp1197:
	.loc	11 283 17
	movq	16(%rax), %rdx
Ltmp1198:
	.loc	11 102 5
	callq	___rust_dealloc
Ltmp1199:
LBB55_3:
	.loc	23 178 1
	movq	(%r15), %rdi
Ltmp1200:
	.loc	11 102 5
	movl	$16, %esi
	movl	$8, %edx
	addq	$8, %rsp
	popq	%rbx
	popq	%r14
	popq	%r15
Ltmp1201:
	popq	%rbp
	jmp	___rust_dealloc
Ltmp1202:
LBB55_4:
Ltmp1190:
	.loc	11 0 5 is_stmt 0
	movq	%rax, %r14
Ltmp1203:
	.loc	23 178 1 is_stmt 1
	movq	(%rbx), %rdi
	movq	8(%rbx), %rsi
	callq	__ZN5alloc5alloc8box_free17h1e8da582c49e9131E
Ltmp1204:
	.loc	23 178 1 is_stmt 0
	movq	(%r15), %rdi
	callq	__ZN5alloc5alloc8box_free17h86d3dfa31c55697eE
	movq	%r14, %rdi
	callq	__Unwind_Resume
	ud2
Ltmp1205:
Lfunc_end55:
	.cfi_endproc
	.section	__TEXT,__gcc_except_tab
	.p2align	2
GCC_except_table55:
Lexception18:
	.byte	255
	.byte	255
	.byte	1
	.uleb128 Lcst_end18-Lcst_begin18
Lcst_begin18:
	.uleb128 Ltmp1188-Lfunc_begin55
	.uleb128 Ltmp1189-Ltmp1188
	.uleb128 Ltmp1190-Lfunc_begin55
	.byte	0
	.uleb128 Ltmp1189-Lfunc_begin55
	.uleb128 Lfunc_end55-Ltmp1189
	.byte	0
	.byte	0
Lcst_end18:
	.p2align	2

	.section	__TEXT,__text,regular,pure_instructions
	.p2align	4, 0x90
__ZN4core3ptr13drop_in_place17h54120c2d5f0cc5a6E:
Lfunc_begin56:
	.loc	23 178 0 is_stmt 1
	.cfi_startproc
	pushq	%rbp
	.cfi_def_cfa_offset 16
	.cfi_offset %rbp, -16
	movq	%rsp, %rbp
	.cfi_def_cfa_register %rbp
Ltmp1206:
	.loc	23 178 1 prologue_end
	callq	__ZN74_$LT$rayon_core..unwind..AbortIfPanic$u20$as$u20$core..ops..drop..Drop$GT$4drop17h58529d1f0f406540E
Ltmp1207:
Lfunc_end56:
	.cfi_endproc

	.p2align	4, 0x90
__ZN4core3ptr13drop_in_place17h5f47feac0291afb9E:
Lfunc_begin57:
	.loc	23 178 0
	.cfi_startproc
	pushq	%rbp
	.cfi_def_cfa_offset 16
	.cfi_offset %rbp, -16
	movq	%rsp, %rbp
	.cfi_def_cfa_register %rbp
Ltmp1208:
	.loc	31 1346 12 prologue_end
	movq	(%rdi), %rax
Ltmp1209:
	.loc	6 2314 20
	lock		decq	(%rax)
Ltmp1210:
	.loc	31 1346 9
	jne	LBB57_1
Ltmp1211:
	.loc	6 2563 24
	##MEMBARRIER
Ltmp1212:
	.loc	31 1381 13
	popq	%rbp
	jmp	__ZN5alloc4sync12Arc$LT$T$GT$9drop_slow17h00dcc58473909bd4E
Ltmp1213:
LBB57_1:
	.loc	23 178 1
	popq	%rbp
	retq
Ltmp1214:
Lfunc_end57:
	.cfi_endproc

	.p2align	4, 0x90
__ZN4core3ptr13drop_in_place17h630dd774e1f5bf4eE:
Lfunc_begin58:
	.loc	23 178 0
	.cfi_startproc
	pushq	%rbp
	.cfi_def_cfa_offset 16
	.cfi_offset %rbp, -16
	movq	%rsp, %rbp
	.cfi_def_cfa_register %rbp
Ltmp1215:
	pushq	%r15
	pushq	%r14
	pushq	%r13
	pushq	%r12
	pushq	%rbx
	pushq	%rax
	.cfi_offset %rbx, -56
	.cfi_offset %r12, -48
	.cfi_offset %r13, -40
	.cfi_offset %r14, -32
	.cfi_offset %r15, -24
	.loc	22 850 19 prologue_end
	movq	(%rdi), %r12
Ltmp1216:
	.loc	22 2384 81
	movq	16(%rdi), %r15
Ltmp1217:
	.loc	23 178 1
	testq	%r15, %r15
	je	LBB58_7
Ltmp1218:
	.loc	23 0 1 is_stmt 0
	movq	%rdi, -48(%rbp)
Ltmp1219:
	.loc	23 178 1
	shlq	$8, %r15
Ltmp1220:
	addq	%r12, %r15
	jmp	LBB58_2
Ltmp1221:
	.p2align	4, 0x90
LBB58_5:
	cmpq	%r15, %r12
	je	LBB58_6
Ltmp1222:
LBB58_2:
	.loc	6 2276 20 is_stmt 1
	movq	(%r12), %rbx
Ltmp1223:
	.loc	6 2276 20 is_stmt 0
	movq	128(%r12), %r13
Ltmp1224:
	.loc	6 2276 20
	movq	8(%r12), %rdi
Ltmp1225:
	.loc	33 449 9 is_stmt 1
	andq	$-2, %rbx
Ltmp1226:
	.loc	33 450 9
	andq	$-2, %r13
Ltmp1227:
	.loc	33 454 19
	cmpq	%r13, %rbx
	.loc	33 454 13 is_stmt 0
	jne	LBB58_11
Ltmp1228:
LBB58_3:
	.loc	23 0 0
	addq	$256, %r12
Ltmp1229:
	.loc	12 28 9 is_stmt 1
	testq	%rdi, %rdi
Ltmp1230:
	.loc	33 473 13
	je	LBB58_5
Ltmp1231:
	.loc	11 102 5
	movl	$752, %esi
	movl	$8, %edx
	callq	___rust_dealloc
Ltmp1232:
	.loc	11 0 5 is_stmt 0
	jmp	LBB58_5
Ltmp1233:
	.p2align	4, 0x90
LBB58_13:
	.loc	7 3320 17 is_stmt 1
	addq	$2, %rbx
Ltmp1234:
	.loc	33 454 19
	cmpq	%rbx, %r13
	.loc	33 454 13 is_stmt 0
	je	LBB58_3
Ltmp1235:
LBB58_11:
	.loc	33 455 30 is_stmt 1
	movl	%ebx, %eax
	andl	$62, %eax
Ltmp1236:
	.loc	33 457 20
	cmpq	$62, %rax
	.loc	33 457 17 is_stmt 0
	jne	LBB58_13
Ltmp1237:
	.loc	6 2276 20 is_stmt 1
	movq	(%rdi), %r14
Ltmp1238:
	.loc	11 102 5
	movl	$752, %esi
	movl	$8, %edx
	callq	___rust_dealloc
Ltmp1239:
	.loc	33 0 0 is_stmt 0
	movq	%r14, %rdi
Ltmp1240:
	jmp	LBB58_13
Ltmp1241:
LBB58_6:
	movq	-48(%rbp), %rdi
	.loc	23 178 1 is_stmt 1
	movq	(%rdi), %r12
Ltmp1242:
LBB58_7:
	movq	8(%rdi), %rsi
Ltmp1243:
	.loc	18 200 40
	testq	%rsi, %rsi
	.loc	18 200 9 is_stmt 0
	je	LBB58_14
Ltmp1244:
	.loc	18 532 16 is_stmt 1
	testq	%r12, %r12
Ltmp1245:
	je	LBB58_14
Ltmp1246:
	.loc	18 0 0 is_stmt 0
	shlq	$8, %rsi
Ltmp1247:
	.loc	18 532 16
	je	LBB58_14
Ltmp1248:
	.loc	11 102 5 is_stmt 1
	movl	$128, %edx
	movq	%r12, %rdi
	addq	$8, %rsp
	popq	%rbx
	popq	%r12
Ltmp1249:
	popq	%r13
	popq	%r14
	popq	%r15
	popq	%rbp
	jmp	___rust_dealloc
Ltmp1250:
LBB58_14:
	.loc	23 178 1
	addq	$8, %rsp
	popq	%rbx
	popq	%r12
	popq	%r13
	popq	%r14
	popq	%r15
	popq	%rbp
	retq
Ltmp1251:
Lfunc_end58:
	.cfi_endproc

	.p2align	4, 0x90
__ZN4core3ptr13drop_in_place17h684955be7cf59130E:
Lfunc_begin59:
	.loc	23 178 0
	.cfi_startproc
	pushq	%rbp
	.cfi_def_cfa_offset 16
	.cfi_offset %rbp, -16
	movq	%rsp, %rbp
	.cfi_def_cfa_register %rbp
Ltmp1252:
	.loc	18 200 40 prologue_end
	testq	%rsi, %rsi
	.loc	18 200 9 is_stmt 0
	je	LBB59_3
Ltmp1253:
	.loc	18 532 16 is_stmt 1
	testq	%rdi, %rdi
Ltmp1254:
	je	LBB59_3
Ltmp1255:
	.loc	18 0 0 is_stmt 0
	shlq	$4, %rsi
	leaq	(%rsi,%rsi,4), %rsi
Ltmp1256:
	.loc	18 532 16
	testq	%rsi, %rsi
	je	LBB59_3
Ltmp1257:
	.loc	11 102 5 is_stmt 1
	movl	$8, %edx
	popq	%rbp
	jmp	___rust_dealloc
Ltmp1258:
LBB59_3:
	.loc	23 178 1
	popq	%rbp
	retq
Ltmp1259:
Lfunc_end59:
	.cfi_endproc

	.p2align	4, 0x90
__ZN4core3ptr13drop_in_place17h73c6ae08cdea7948E:
Lfunc_begin60:
	.loc	23 178 0
	.cfi_startproc
	pushq	%rbp
	.cfi_def_cfa_offset 16
	.cfi_offset %rbp, -16
	movq	%rsp, %rbp
	.cfi_def_cfa_register %rbp
Ltmp1260:
	.loc	22 2710 57 prologue_end
	movq	(%rdi), %rax
	.loc	22 2710 78 is_stmt 0
	movq	8(%rax), %rsi
Ltmp1261:
	.loc	18 200 40 is_stmt 1
	testq	%rsi, %rsi
	.loc	18 200 9 is_stmt 0
	je	LBB60_2
Ltmp1262:
	.loc	18 207 28 is_stmt 1
	shlq	$5, %rsi
Ltmp1263:
	.loc	18 532 16
	je	LBB60_2
Ltmp1264:
	.loc	22 0 0 is_stmt 0
	movq	(%rax), %rdi
Ltmp1265:
	.loc	11 102 5 is_stmt 1
	movl	$8, %edx
	popq	%rbp
	jmp	___rust_dealloc
Ltmp1266:
LBB60_2:
	.loc	23 178 1
	popq	%rbp
	retq
Ltmp1267:
Lfunc_end60:
	.cfi_endproc

	.p2align	4, 0x90
__ZN4core3ptr13drop_in_place17h7bb0160cfbf57122E:
Lfunc_begin61:
	.loc	23 178 0
	.cfi_startproc
	pushq	%rbp
	.cfi_def_cfa_offset 16
	.cfi_offset %rbp, -16
	movq	%rsp, %rbp
	.cfi_def_cfa_register %rbp
Ltmp1268:
	.loc	23 178 1 prologue_end
	movq	(%rdi), %rdi
Ltmp1269:
	.loc	11 102 5
	movl	$48, %esi
	movl	$8, %edx
	popq	%rbp
	jmp	___rust_dealloc
Ltmp1270:
Lfunc_end61:
	.cfi_endproc

	.p2align	4, 0x90
__ZN4core3ptr13drop_in_place17h803eb8f527825b32E:
Lfunc_begin62:
	.loc	23 178 0
	.cfi_startproc
	.cfi_personality 155, _rust_eh_personality
	.cfi_lsda 16, Lexception19
	pushq	%rbp
	.cfi_def_cfa_offset 16
	.cfi_offset %rbp, -16
	movq	%rsp, %rbp
	.cfi_def_cfa_register %rbp
	pushq	%r14
	pushq	%rbx
	.cfi_offset %rbx, -32
	.cfi_offset %r14, -24
	movq	%rdi, %rbx
Ltmp1274:
	.loc	54 373 18 prologue_end
	movq	8(%rdi), %rdi
Ltmp1275:
	.loc	52 78 17
	callq	_pthread_mutex_destroy
Ltmp1276:
	.loc	23 178 1
	movq	8(%rbx), %rdi
Ltmp1277:
	.loc	11 102 5
	movl	$64, %esi
	movl	$8, %edx
	callq	___rust_dealloc
Ltmp1278:
	.loc	23 178 1
	addq	$24, %rbx
Ltmp1279:
Ltmp1271:
	.loc	23 178 1 is_stmt 0
	movq	%rbx, %rdi
	callq	__ZN69_$LT$std..sync..condvar..Condvar$u20$as$u20$core..ops..drop..Drop$GT$4drop17h586207405bc4e99fE
Ltmp1272:
Ltmp1280:
	.loc	23 178 1
	movq	(%rbx), %rdi
Ltmp1281:
	.loc	11 102 5 is_stmt 1
	movl	$48, %esi
	movl	$8, %edx
	popq	%rbx
Ltmp1282:
	popq	%r14
	popq	%rbp
	jmp	___rust_dealloc
Ltmp1283:
LBB62_2:
Ltmp1273:
	.loc	11 0 5 is_stmt 0
	movq	%rax, %r14
	.loc	23 178 1 is_stmt 1
	movq	%rbx, %rdi
	callq	__ZN4core3ptr13drop_in_place17h7bb0160cfbf57122E
	movq	%r14, %rdi
	callq	__Unwind_Resume
	ud2
Ltmp1284:
Lfunc_end62:
	.cfi_endproc
	.section	__TEXT,__gcc_except_tab
	.p2align	2
GCC_except_table62:
Lexception19:
	.byte	255
	.byte	255
	.byte	1
	.uleb128 Lcst_end19-Lcst_begin19
Lcst_begin19:
	.uleb128 Ltmp1271-Lfunc_begin62
	.uleb128 Ltmp1272-Ltmp1271
	.uleb128 Ltmp1273-Lfunc_begin62
	.byte	0
	.uleb128 Ltmp1272-Lfunc_begin62
	.uleb128 Lfunc_end62-Ltmp1272
	.byte	0
	.byte	0
Lcst_end19:
	.p2align	2

	.section	__TEXT,__text,regular,pure_instructions
	.p2align	4, 0x90
__ZN4core3ptr13drop_in_place17h8563c9ba90859acaE:
Lfunc_begin63:
	.loc	23 178 0
	.cfi_startproc
	.cfi_personality 155, _rust_eh_personality
	.cfi_lsda 16, Lexception20
	pushq	%rbp
	.cfi_def_cfa_offset 16
	.cfi_offset %rbp, -16
	movq	%rsp, %rbp
	.cfi_def_cfa_register %rbp
Ltmp1291:
	pushq	%r15
	pushq	%r14
	pushq	%rbx
	pushq	%rax
	.cfi_offset %rbx, -40
	.cfi_offset %r14, -32
	.cfi_offset %r15, -24
	.loc	22 2714 21 prologue_end
	movq	%rdi, -32(%rbp)
Ltmp1292:
	.loc	22 2605 39
	movq	16(%rdi), %rbx
Ltmp1293:
	.loc	22 2605 59 is_stmt 0
	movq	24(%rdi), %r15
Ltmp1294:
	.loc	38 291 9 is_stmt 1
	subq	%rbx, %r15
Ltmp1295:
	.loc	23 178 1
	je	LBB63_6
Ltmp1296:
	.loc	22 0 0 is_stmt 0
	sarq	$4, %r15
Ltmp1297:
	.loc	31 1346 9 is_stmt 1
	shlq	$4, %r15
Ltmp1298:
	addq	$-16, %r15
Ltmp1299:
	.loc	31 1346 12 is_stmt 0
	movq	(%rbx), %rax
Ltmp1300:
	.loc	6 2314 20 is_stmt 1
	lock		decq	(%rax)
Ltmp1301:
	.loc	31 1346 9
	je	LBB63_3
Ltmp1302:
	.p2align	4, 0x90
LBB63_4:
	.loc	23 178 1
	addq	$16, %rbx
Ltmp1303:
	addq	$-16, %r15
	cmpq	$-16, %r15
	je	LBB63_5
Ltmp1304:
	.loc	31 1346 12
	movq	(%rbx), %rax
Ltmp1305:
	.loc	6 2314 20
	lock		decq	(%rax)
Ltmp1306:
	.loc	31 1346 9
	jne	LBB63_4
Ltmp1307:
LBB63_3:
	.loc	6 2563 24
	##MEMBARRIER
Ltmp1308:
Ltmp1285:
	.loc	31 1381 13
	movq	%rbx, %rdi
Ltmp1309:
	callq	__ZN5alloc4sync12Arc$LT$T$GT$9drop_slow17h0b759df908e14f66E
Ltmp1286:
	jmp	LBB63_4
Ltmp1310:
LBB63_5:
	.loc	22 2710 57
	movq	-32(%rbp), %rdi
LBB63_6:
Ltmp1311:
	.loc	22 2710 78 is_stmt 0
	movq	8(%rdi), %rsi
Ltmp1312:
	.loc	18 200 40 is_stmt 1
	testq	%rsi, %rsi
	.loc	18 200 9 is_stmt 0
	je	LBB63_9
Ltmp1313:
	.loc	18 207 28 is_stmt 1
	shlq	$4, %rsi
Ltmp1314:
	.loc	18 532 16
	je	LBB63_9
Ltmp1315:
	.loc	22 0 0 is_stmt 0
	movq	(%rdi), %rdi
Ltmp1316:
	.loc	11 102 5 is_stmt 1
	movl	$8, %edx
	callq	___rust_dealloc
Ltmp1317:
LBB63_9:
	.loc	23 178 1
	addq	$8, %rsp
	popq	%rbx
	popq	%r14
	popq	%r15
	popq	%rbp
	retq
LBB63_12:
Ltmp1318:
Ltmp1287:
	.loc	23 0 1 is_stmt 0
	movq	%rax, %r14
Ltmp1319:
	.loc	23 178 1
	testq	%r15, %r15
	je	LBB63_15
Ltmp1320:
	.loc	23 0 1
	addq	$16, %rbx
Ltmp1321:
	.p2align	4, 0x90
LBB63_10:
Ltmp1288:
	.loc	23 178 1
	movq	%rbx, %rdi
	callq	__ZN4core3ptr13drop_in_place17h013931f8f96f5a69E
Ltmp1289:
	addq	$16, %rbx
	addq	$-16, %r15
	jne	LBB63_10
	jmp	LBB63_15
Ltmp1322:
LBB63_14:
Ltmp1290:
	.loc	23 0 1
	movq	%rax, %r14
LBB63_15:
Ltmp1323:
	leaq	-32(%rbp), %rdi
	.loc	22 2720 5 is_stmt 1
	callq	__ZN4core3ptr13drop_in_place17h17eec23903ceda06E
	movq	%r14, %rdi
	callq	__Unwind_Resume
	ud2
Ltmp1324:
Lfunc_end63:
	.cfi_endproc
	.section	__TEXT,__gcc_except_tab
	.p2align	2
GCC_except_table63:
Lexception20:
	.byte	255
	.byte	255
	.byte	1
	.uleb128 Lcst_end20-Lcst_begin20
Lcst_begin20:
	.uleb128 Ltmp1285-Lfunc_begin63
	.uleb128 Ltmp1286-Ltmp1285
	.uleb128 Ltmp1287-Lfunc_begin63
	.byte	0
	.uleb128 Ltmp1288-Lfunc_begin63
	.uleb128 Ltmp1289-Ltmp1288
	.uleb128 Ltmp1290-Lfunc_begin63
	.byte	0
	.uleb128 Ltmp1289-Lfunc_begin63
	.uleb128 Lfunc_end63-Ltmp1289
	.byte	0
	.byte	0
Lcst_end20:
	.p2align	2

	.section	__TEXT,__text,regular,pure_instructions
	.p2align	4, 0x90
__ZN4core3ptr13drop_in_place17h89a284da399b1246E:
Lfunc_begin64:
	.loc	23 178 0
	.cfi_startproc
	.cfi_personality 155, _rust_eh_personality
	.cfi_lsda 16, Lexception21
	pushq	%rbp
	.cfi_def_cfa_offset 16
	.cfi_offset %rbp, -16
	movq	%rsp, %rbp
	.cfi_def_cfa_register %rbp
	pushq	%r14
	pushq	%rbx
	.cfi_offset %rbx, -32
	.cfi_offset %r14, -24
	movq	%rdi, %rbx
Ltmp1336:
	.loc	31 1346 12 prologue_end
	movq	(%rdi), %rax
Ltmp1337:
	.loc	6 2314 20
	lock		decq	(%rax)
Ltmp1338:
	.loc	31 1346 9
	jne	LBB64_2
Ltmp1339:
	.loc	6 2563 24
	##MEMBARRIER
Ltmp1340:
Ltmp1325:
	.loc	31 1381 13
	movq	%rbx, %rdi
	callq	__ZN5alloc4sync12Arc$LT$T$GT$9drop_slow17h933694acf971184dE
Ltmp1326:
Ltmp1341:
LBB64_2:
	.loc	23 178 1
	movq	8(%rbx), %rdi
Ltmp1342:
	testq	%rdi, %rdi
	je	LBB64_5
Ltmp1343:
	.loc	23 178 1 is_stmt 0
	movq	16(%rbx), %rsi
Ltmp1344:
	.loc	18 200 40 is_stmt 1
	testq	%rsi, %rsi
	.loc	18 200 9 is_stmt 0
	je	LBB64_5
Ltmp1345:
	.loc	11 102 5 is_stmt 1
	movl	$1, %edx
	callq	___rust_dealloc
Ltmp1346:
LBB64_5:
	.loc	31 1346 12
	movq	48(%rbx), %rax
Ltmp1347:
	.loc	6 2314 20
	lock		decq	(%rax)
Ltmp1348:
	.loc	31 1346 9
	jne	LBB64_7
Ltmp1349:
	.loc	23 0 0 is_stmt 0
	leaq	48(%rbx), %rdi
Ltmp1350:
	.loc	6 2563 24 is_stmt 1
	##MEMBARRIER
Ltmp1351:
Ltmp1328:
	.loc	31 1381 13
	callq	__ZN5alloc4sync12Arc$LT$T$GT$9drop_slow17h0b759df908e14f66E
Ltmp1352:
Ltmp1329:
LBB64_7:
	.loc	31 1346 12
	movq	80(%rbx), %rax
Ltmp1353:
	.loc	6 2314 20
	lock		decq	(%rax)
Ltmp1354:
	.loc	31 1346 9
	jne	LBB64_8
Ltmp1355:
	.loc	23 0 0 is_stmt 0
	leaq	80(%rbx), %rdi
Ltmp1356:
	.loc	6 2563 24 is_stmt 1
	##MEMBARRIER
Ltmp1357:
Ltmp1333:
	.loc	31 1381 13
	callq	__ZN5alloc4sync12Arc$LT$T$GT$9drop_slow17h00dcc58473909bd4E
Ltmp1358:
Ltmp1334:
LBB64_8:
	.loc	31 1346 12
	movq	96(%rbx), %rax
Ltmp1359:
	.loc	6 2314 20
	lock		decq	(%rax)
Ltmp1360:
	.loc	31 1346 9
	jne	LBB64_9
Ltmp1361:
	.loc	23 0 0 is_stmt 0
	addq	$96, %rbx
Ltmp1362:
	.loc	6 2563 24 is_stmt 1
	##MEMBARRIER
Ltmp1363:
	.loc	31 1381 13
	movq	%rbx, %rdi
	popq	%rbx
Ltmp1364:
	popq	%r14
	popq	%rbp
	jmp	__ZN5alloc4sync12Arc$LT$T$GT$9drop_slow17h3a0593769a158cc4E
Ltmp1365:
LBB64_9:
	.loc	23 178 1
	popq	%rbx
Ltmp1366:
	popq	%r14
	popq	%rbp
	retq
LBB64_10:
Ltmp1367:
Ltmp1330:
	.loc	23 0 1 is_stmt 0
	movq	%rax, %r14
Ltmp1368:
	.loc	23 178 1
	leaq	80(%rbx), %rdi
Ltmp1331:
	callq	__ZN4core3ptr13drop_in_place17h5f47feac0291afb9E
Ltmp1332:
	jmp	LBB64_13
Ltmp1369:
LBB64_14:
Ltmp1335:
	.loc	23 0 1
	movq	%rax, %r14
	jmp	LBB64_13
Ltmp1370:
LBB64_12:
Ltmp1327:
	movq	%rax, %r14
	.loc	23 178 1
	leaq	8(%rbx), %rdi
	callq	__ZN4core3ptr13drop_in_place17h98382242ac5f1d2dE
Ltmp1371:
LBB64_13:
	addq	$96, %rbx
Ltmp1372:
	movq	%rbx, %rdi
	callq	__ZN4core3ptr13drop_in_place17h29586aefd6393e91E
	movq	%r14, %rdi
	callq	__Unwind_Resume
	ud2
Ltmp1373:
Lfunc_end64:
	.cfi_endproc
	.section	__TEXT,__gcc_except_tab
	.p2align	2
GCC_except_table64:
Lexception21:
	.byte	255
	.byte	255
	.byte	1
	.uleb128 Lcst_end21-Lcst_begin21
Lcst_begin21:
	.uleb128 Ltmp1325-Lfunc_begin64
	.uleb128 Ltmp1326-Ltmp1325
	.uleb128 Ltmp1327-Lfunc_begin64
	.byte	0
	.uleb128 Ltmp1328-Lfunc_begin64
	.uleb128 Ltmp1329-Ltmp1328
	.uleb128 Ltmp1330-Lfunc_begin64
	.byte	0
	.uleb128 Ltmp1333-Lfunc_begin64
	.uleb128 Ltmp1334-Ltmp1333
	.uleb128 Ltmp1335-Lfunc_begin64
	.byte	0
	.uleb128 Ltmp1334-Lfunc_begin64
	.uleb128 Ltmp1331-Ltmp1334
	.byte	0
	.byte	0
	.uleb128 Ltmp1331-Lfunc_begin64
	.uleb128 Ltmp1332-Ltmp1331
	.uleb128 Ltmp1335-Lfunc_begin64
	.byte	0
	.uleb128 Ltmp1332-Lfunc_begin64
	.uleb128 Lfunc_end64-Ltmp1332
	.byte	0
	.byte	0
Lcst_end21:
	.p2align	2

	.section	__TEXT,__text,regular,pure_instructions
	.p2align	4, 0x90
__ZN4core3ptr13drop_in_place17h8ae46f665866caafE:
Lfunc_begin65:
	.loc	23 178 0 is_stmt 1
	.cfi_startproc
	pushq	%rbp
	.cfi_def_cfa_offset 16
	.cfi_offset %rbp, -16
	movq	%rsp, %rbp
	.cfi_def_cfa_register %rbp
Ltmp1374:
	.loc	23 178 1 prologue_end
	movq	8(%rdi), %rax
	movq	16(%rdi), %rcx
Ltmp1375:
	.loc	22 1729 9
	movq	%rcx, (%rax)
Ltmp1376:
	.loc	23 178 1
	popq	%rbp
	retq
Ltmp1377:
Lfunc_end65:
	.cfi_endproc

	.p2align	4, 0x90
__ZN4core3ptr13drop_in_place17h91912701171272f2E:
Lfunc_begin66:
	.loc	23 178 0
	.cfi_startproc
	.cfi_personality 155, _rust_eh_personality
	.cfi_lsda 16, Lexception22
	pushq	%rbp
	.cfi_def_cfa_offset 16
	.cfi_offset %rbp, -16
	movq	%rsp, %rbp
	.cfi_def_cfa_register %rbp
	pushq	%r15
	pushq	%r14
	pushq	%r12
	pushq	%rbx
	.cfi_offset %rbx, -48
	.cfi_offset %r12, -40
	.cfi_offset %r14, -32
	.cfi_offset %r15, -24
	movq	%rdi, %r14
Ltmp1384:
	.loc	22 850 19 prologue_end
	movq	(%rdi), %rbx
Ltmp1385:
	.loc	22 2384 81
	movq	16(%rdi), %rax
Ltmp1386:
	.loc	23 178 1
	shlq	$4, %rax
Ltmp1387:
	leaq	(%rax,%rax,4), %r12
Ltmp1388:
	.p2align	4, 0x90
LBB66_5:
	testq	%r12, %r12
	je	LBB66_6
Ltmp1389:
	addq	$-80, %r12
Ltmp1378:
	movq	%rbx, %rdi
	addq	$80, %rbx
Ltmp1390:
	callq	__ZN4core3ptr13drop_in_place17hfcf12c9db1b4747eE
Ltmp1379:
	jmp	LBB66_5
Ltmp1391:
LBB66_6:
	.loc	23 178 1 is_stmt 0
	movq	8(%r14), %rax
Ltmp1392:
	.loc	18 200 40 is_stmt 1
	testq	%rax, %rax
	.loc	18 200 9 is_stmt 0
	je	LBB66_9
Ltmp1393:
	.loc	23 0 0
	movq	(%r14), %rdi
Ltmp1394:
	.loc	18 532 16 is_stmt 1
	testq	%rdi, %rdi
Ltmp1395:
	je	LBB66_9
Ltmp1396:
	.loc	18 0 0 is_stmt 0
	shlq	$4, %rax
	leaq	(%rax,%rax,4), %rsi
Ltmp1397:
	.loc	18 532 16
	testq	%rsi, %rsi
	je	LBB66_9
Ltmp1398:
	.loc	11 102 5 is_stmt 1
	movl	$8, %edx
	popq	%rbx
	popq	%r12
	popq	%r14
Ltmp1399:
	popq	%r15
	popq	%rbp
	jmp	___rust_dealloc
Ltmp1400:
LBB66_9:
	.loc	23 178 1
	popq	%rbx
	popq	%r12
	popq	%r14
Ltmp1401:
	popq	%r15
	popq	%rbp
	retq
LBB66_1:
Ltmp1402:
Ltmp1380:
	.loc	23 0 1 is_stmt 0
	movq	%rax, %r15
Ltmp1403:
	.loc	23 178 1
	testq	%r12, %r12
	je	LBB66_11
Ltmp1404:
	.p2align	4, 0x90
LBB66_2:
Ltmp1381:
	movq	%rbx, %rdi
	callq	__ZN4core3ptr13drop_in_place17hfcf12c9db1b4747eE
Ltmp1382:
Ltmp1405:
	addq	$80, %rbx
	addq	$-80, %r12
	jne	LBB66_2
	jmp	LBB66_11
Ltmp1406:
LBB66_10:
Ltmp1383:
	.loc	23 0 1
	movq	%rax, %r15
Ltmp1407:
LBB66_11:
	.loc	23 178 1
	movq	(%r14), %rdi
	movq	8(%r14), %rsi
	callq	__ZN4core3ptr13drop_in_place17h684955be7cf59130E
	movq	%r15, %rdi
	callq	__Unwind_Resume
	ud2
Ltmp1408:
Lfunc_end66:
	.cfi_endproc
	.section	__TEXT,__gcc_except_tab
	.p2align	2
GCC_except_table66:
Lexception22:
	.byte	255
	.byte	255
	.byte	1
	.uleb128 Lcst_end22-Lcst_begin22
Lcst_begin22:
	.uleb128 Ltmp1378-Lfunc_begin66
	.uleb128 Ltmp1379-Ltmp1378
	.uleb128 Ltmp1380-Lfunc_begin66
	.byte	0
	.uleb128 Ltmp1381-Lfunc_begin66
	.uleb128 Ltmp1382-Ltmp1381
	.uleb128 Ltmp1383-Lfunc_begin66
	.byte	0
	.uleb128 Ltmp1382-Lfunc_begin66
	.uleb128 Lfunc_end66-Ltmp1382
	.byte	0
	.byte	0
Lcst_end22:
	.p2align	2

	.section	__TEXT,__text,regular,pure_instructions
	.p2align	4, 0x90
__ZN4core3ptr13drop_in_place17h98382242ac5f1d2dE:
Lfunc_begin67:
	.loc	23 178 0 is_stmt 1
	.cfi_startproc
	.cfi_personality 155, _rust_eh_personality
	.cfi_lsda 16, Lexception23
	pushq	%rbp
	.cfi_def_cfa_offset 16
	.cfi_offset %rbp, -16
	movq	%rsp, %rbp
	.cfi_def_cfa_register %rbp
	pushq	%r14
	pushq	%rbx
	.cfi_offset %rbx, -32
	.cfi_offset %r14, -24
	movq	%rdi, %rbx
Ltmp1412:
	.loc	23 178 1 prologue_end
	movq	(%rdi), %rdi
Ltmp1413:
	testq	%rdi, %rdi
	je	LBB67_3
Ltmp1414:
	.loc	23 178 1 is_stmt 0
	movq	8(%rbx), %rsi
Ltmp1415:
	.loc	18 200 40 is_stmt 1
	testq	%rsi, %rsi
	.loc	18 200 9 is_stmt 0
	je	LBB67_3
Ltmp1416:
	.loc	11 102 5 is_stmt 1
	movl	$1, %edx
	callq	___rust_dealloc
Ltmp1417:
LBB67_3:
	.loc	31 1346 12
	movq	40(%rbx), %rax
Ltmp1418:
	.loc	6 2314 20
	lock		decq	(%rax)
Ltmp1419:
	.loc	31 1346 9
	jne	LBB67_5
Ltmp1420:
	.loc	23 0 0 is_stmt 0
	leaq	40(%rbx), %rdi
Ltmp1421:
	.loc	6 2563 24 is_stmt 1
	##MEMBARRIER
Ltmp1422:
Ltmp1409:
	.loc	31 1381 13
	callq	__ZN5alloc4sync12Arc$LT$T$GT$9drop_slow17h0b759df908e14f66E
Ltmp1423:
Ltmp1410:
LBB67_5:
	.loc	31 1346 12
	movq	72(%rbx), %rax
Ltmp1424:
	.loc	6 2314 20
	lock		decq	(%rax)
Ltmp1425:
	.loc	31 1346 9
	jne	LBB67_6
Ltmp1426:
	.loc	23 0 0 is_stmt 0
	addq	$72, %rbx
Ltmp1427:
	.loc	6 2563 24 is_stmt 1
	##MEMBARRIER
Ltmp1428:
	.loc	31 1381 13
	movq	%rbx, %rdi
	popq	%rbx
Ltmp1429:
	popq	%r14
	popq	%rbp
	jmp	__ZN5alloc4sync12Arc$LT$T$GT$9drop_slow17h00dcc58473909bd4E
Ltmp1430:
LBB67_6:
	.loc	23 178 1
	popq	%rbx
Ltmp1431:
	popq	%r14
	popq	%rbp
	retq
LBB67_7:
Ltmp1432:
Ltmp1411:
	.loc	23 0 1 is_stmt 0
	movq	%rax, %r14
Ltmp1433:
	.loc	23 178 1
	addq	$72, %rbx
Ltmp1434:
	movq	%rbx, %rdi
	callq	__ZN4core3ptr13drop_in_place17h5f47feac0291afb9E
	movq	%r14, %rdi
	callq	__Unwind_Resume
	ud2
Ltmp1435:
Lfunc_end67:
	.cfi_endproc
	.section	__TEXT,__gcc_except_tab
	.p2align	2
GCC_except_table67:
Lexception23:
	.byte	255
	.byte	255
	.byte	1
	.uleb128 Lcst_end23-Lcst_begin23
Lcst_begin23:
	.uleb128 Ltmp1409-Lfunc_begin67
	.uleb128 Ltmp1410-Ltmp1409
	.uleb128 Ltmp1411-Lfunc_begin67
	.byte	0
	.uleb128 Ltmp1410-Lfunc_begin67
	.uleb128 Lfunc_end67-Ltmp1410
	.byte	0
	.byte	0
Lcst_end23:
	.p2align	2

	.section	__TEXT,__text,regular,pure_instructions
	.p2align	4, 0x90
__ZN4core3ptr13drop_in_place17h9ddff43834e16ad4E:
Lfunc_begin68:
	.loc	23 178 0 is_stmt 1
	.cfi_startproc
	pushq	%rbp
	.cfi_def_cfa_offset 16
	.cfi_offset %rbp, -16
	movq	%rsp, %rbp
	.cfi_def_cfa_register %rbp
Ltmp1436:
	.loc	15 422 39 prologue_end
	movq	(%rdi), %rdi
Ltmp1437:
	.loc	15 422 16 is_stmt 0
	testq	%rdi, %rdi
	je	LBB68_6
Ltmp1438:
	.loc	19 507 27 is_stmt 1
	movq	2080(%rdi), %rax
Ltmp1439:
	.loc	19 508 30
	subq	$1, %rax
Ltmp1440:
	jb	LBB68_5
Ltmp1441:
	.loc	13 2058 5
	movq	%rax, 2080(%rdi)
Ltmp1442:
	.loc	19 510 9
	jne	LBB68_6
Ltmp1443:
	.loc	6 2264 20
	movq	$0, 8(%rdi)
Ltmp1444:
	.loc	19 513 16
	cmpq	$0, 2088(%rdi)
	.loc	19 513 13 is_stmt 0
	je	LBB68_4
Ltmp1445:
LBB68_6:
	.loc	23 178 1 is_stmt 1
	popq	%rbp
	retq
LBB68_4:
Ltmp1446:
	.loc	19 514 17
	popq	%rbp
	jmp	__ZN15crossbeam_epoch8internal5Local8finalize17hbdefd0f40d84cd73E
Ltmp1447:
LBB68_5:
	.loc	19 508 30
	leaq	_str.0(%rip), %rdi
Ltmp1448:
	leaq	l___unnamed_35(%rip), %rdx
	movl	$33, %esi
	callq	__ZN4core9panicking5panic17h736ee47a631475c0E
Ltmp1449:
Lfunc_end68:
	.cfi_endproc

	.p2align	4, 0x90
__ZN4core3ptr13drop_in_place17ha247f134f1aeca9cE:
Lfunc_begin69:
	.loc	23 178 0
	.cfi_startproc
	.cfi_personality 155, _rust_eh_personality
	.cfi_lsda 16, Lexception24
	pushq	%rbp
	.cfi_def_cfa_offset 16
	.cfi_offset %rbp, -16
	movq	%rsp, %rbp
	.cfi_def_cfa_register %rbp
	pushq	%r14
	pushq	%rbx
	.cfi_offset %rbx, -32
	.cfi_offset %r14, -24
	movq	%rdi, %rbx
Ltmp1453:
	.loc	54 373 18 prologue_end
	movq	(%rdi), %rdi
Ltmp1454:
	.loc	52 78 17
	callq	_pthread_mutex_destroy
Ltmp1455:
	.loc	23 178 1
	movq	(%rbx), %rdi
Ltmp1456:
	.loc	11 102 5
	movl	$64, %esi
	movl	$8, %edx
	callq	___rust_dealloc
Ltmp1457:
	.loc	23 178 1
	addq	$16, %rbx
Ltmp1458:
Ltmp1450:
	.loc	23 178 1 is_stmt 0
	movq	%rbx, %rdi
	callq	__ZN69_$LT$std..sync..condvar..Condvar$u20$as$u20$core..ops..drop..Drop$GT$4drop17h586207405bc4e99fE
Ltmp1451:
Ltmp1459:
	.loc	23 178 1
	movq	(%rbx), %rdi
Ltmp1460:
	.loc	11 102 5 is_stmt 1
	movl	$48, %esi
	movl	$8, %edx
	popq	%rbx
Ltmp1461:
	popq	%r14
	popq	%rbp
	jmp	___rust_dealloc
Ltmp1462:
LBB69_2:
Ltmp1452:
	.loc	11 0 5 is_stmt 0
	movq	%rax, %r14
	.loc	23 178 1 is_stmt 1
	movq	%rbx, %rdi
	callq	__ZN4core3ptr13drop_in_place17h7bb0160cfbf57122E
	movq	%r14, %rdi
	callq	__Unwind_Resume
	ud2
Ltmp1463:
Lfunc_end69:
	.cfi_endproc
	.section	__TEXT,__gcc_except_tab
	.p2align	2
GCC_except_table69:
Lexception24:
	.byte	255
	.byte	255
	.byte	1
	.uleb128 Lcst_end24-Lcst_begin24
Lcst_begin24:
	.uleb128 Ltmp1450-Lfunc_begin69
	.uleb128 Ltmp1451-Ltmp1450
	.uleb128 Ltmp1452-Lfunc_begin69
	.byte	0
	.uleb128 Ltmp1451-Lfunc_begin69
	.uleb128 Lfunc_end69-Ltmp1451
	.byte	0
	.byte	0
Lcst_end24:
	.p2align	2

	.section	__TEXT,__text,regular,pure_instructions
	.p2align	4, 0x90
__ZN4core3ptr13drop_in_place17haa2d3f733f3e8d5bE:
Lfunc_begin70:
	.loc	23 178 0
	.cfi_startproc
	pushq	%rbp
	.cfi_def_cfa_offset 16
	.cfi_offset %rbp, -16
	movq	%rsp, %rbp
	.cfi_def_cfa_register %rbp
Ltmp1464:
	.loc	23 178 1 prologue_end
	movq	(%rdi), %rdi
Ltmp1465:
	.loc	11 102 5
	movl	$64, %esi
	movl	$8, %edx
	popq	%rbp
	jmp	___rust_dealloc
Ltmp1466:
Lfunc_end70:
	.cfi_endproc

	.p2align	4, 0x90
__ZN4core3ptr13drop_in_place17haab69a7d357d65e4E:
Lfunc_begin71:
	.loc	23 178 0
	.cfi_startproc
	pushq	%rbp
	.cfi_def_cfa_offset 16
	.cfi_offset %rbp, -16
	movq	%rsp, %rbp
	.cfi_def_cfa_register %rbp
	movq	%rdi, %rax
Ltmp1467:
	.loc	23 178 1 prologue_end
	movq	(%rdi), %rdi
Ltmp1468:
	.loc	18 532 16
	testq	%rdi, %rdi
Ltmp1469:
	.loc	18 200 9
	je	LBB71_2
Ltmp1470:
	.loc	23 0 0 is_stmt 0
	movq	8(%rax), %rsi
Ltmp1471:
	.loc	18 200 9
	testq	%rsi, %rsi
	je	LBB71_2
Ltmp1472:
	.loc	11 102 5 is_stmt 1
	movl	$1, %edx
	popq	%rbp
	jmp	___rust_dealloc
Ltmp1473:
LBB71_2:
	.loc	23 178 1
	popq	%rbp
	retq
Ltmp1474:
Lfunc_end71:
	.cfi_endproc

	.p2align	4, 0x90
__ZN4core3ptr13drop_in_place17hab5ea90cd5037be0E:
Lfunc_begin72:
	.loc	23 178 0
	.cfi_startproc
	pushq	%rbp
	.cfi_def_cfa_offset 16
	.cfi_offset %rbp, -16
	movq	%rsp, %rbp
	.cfi_def_cfa_register %rbp
Ltmp1475:
	.loc	31 1346 12 prologue_end
	movq	(%rdi), %rax
Ltmp1476:
	.loc	6 2314 20
	lock		decq	(%rax)
Ltmp1477:
	.loc	31 1346 9
	jne	LBB72_1
Ltmp1478:
	.loc	6 2563 24
	##MEMBARRIER
Ltmp1479:
	.loc	31 1381 13
	popq	%rbp
	jmp	__ZN5alloc4sync12Arc$LT$T$GT$9drop_slow17h933694acf971184dE
Ltmp1480:
LBB72_1:
	.loc	23 178 1
	popq	%rbp
	retq
Ltmp1481:
Lfunc_end72:
	.cfi_endproc

	.p2align	4, 0x90
__ZN4core3ptr13drop_in_place17hb0944cad61188ce1E:
Lfunc_begin73:
	.loc	23 178 0
	.cfi_startproc
	pushq	%rbp
	.cfi_def_cfa_offset 16
	.cfi_offset %rbp, -16
	movq	%rsp, %rbp
	.cfi_def_cfa_register %rbp
Ltmp1482:
	.loc	31 1346 12 prologue_end
	movq	(%rdi), %rax
Ltmp1483:
	.loc	6 2314 20
	lock		decq	(%rax)
Ltmp1484:
	.loc	31 1346 9
	jne	LBB73_1
Ltmp1485:
	.loc	6 2563 24
	##MEMBARRIER
Ltmp1486:
	.loc	31 1381 13
	popq	%rbp
	jmp	__ZN5alloc4sync12Arc$LT$T$GT$9drop_slow17h0b759df908e14f66E
Ltmp1487:
LBB73_1:
	.loc	23 178 1
	popq	%rbp
	retq
Ltmp1488:
Lfunc_end73:
	.cfi_endproc

	.p2align	4, 0x90
__ZN4core3ptr13drop_in_place17hb3fadd00cb4a9871E:
Lfunc_begin74:
	.loc	23 178 0
	.cfi_startproc
	.cfi_personality 155, _rust_eh_personality
	.cfi_lsda 16, Lexception25
	pushq	%rbp
	.cfi_def_cfa_offset 16
	.cfi_offset %rbp, -16
	movq	%rsp, %rbp
	.cfi_def_cfa_register %rbp
	pushq	%r15
	pushq	%r14
	pushq	%r12
	pushq	%rbx
	.cfi_offset %rbx, -48
	.cfi_offset %r12, -40
	.cfi_offset %r14, -32
	.cfi_offset %r15, -24
	movq	%rdi, %r14
Ltmp1495:
	.loc	22 850 19 prologue_end
	movq	(%rdi), %r12
Ltmp1496:
	.loc	22 2384 81
	movq	16(%rdi), %rbx
Ltmp1497:
	.loc	23 178 1
	testq	%rbx, %rbx
	je	LBB74_6
Ltmp1498:
	.loc	31 1346 9
	shlq	$5, %rbx
Ltmp1499:
	addq	$-32, %rbx
Ltmp1500:
	.loc	31 1346 12 is_stmt 0
	movq	(%r12), %rax
Ltmp1501:
	.loc	6 2314 20 is_stmt 1
	lock		decq	(%rax)
Ltmp1502:
	.loc	31 1346 9
	je	LBB74_3
Ltmp1503:
	.p2align	4, 0x90
LBB74_4:
	.loc	23 178 1
	addq	$32, %r12
Ltmp1504:
	addq	$-32, %rbx
	cmpq	$-32, %rbx
	je	LBB74_5
Ltmp1505:
	.loc	31 1346 12
	movq	(%r12), %rax
Ltmp1506:
	.loc	6 2314 20
	lock		decq	(%rax)
Ltmp1507:
	.loc	31 1346 9
	jne	LBB74_4
Ltmp1508:
LBB74_3:
	.loc	6 2563 24
	##MEMBARRIER
Ltmp1509:
Ltmp1489:
	.loc	31 1381 13
	movq	%r12, %rdi
	callq	__ZN5alloc4sync12Arc$LT$T$GT$9drop_slow17h0b759df908e14f66E
Ltmp1490:
	jmp	LBB74_4
Ltmp1510:
LBB74_5:
	.loc	23 178 1
	movq	(%r14), %r12
Ltmp1511:
LBB74_6:
	movq	8(%r14), %rsi
Ltmp1512:
	.loc	18 200 40
	testq	%rsi, %rsi
	.loc	18 200 9 is_stmt 0
	je	LBB74_14
Ltmp1513:
	.loc	18 532 16 is_stmt 1
	testq	%r12, %r12
Ltmp1514:
	je	LBB74_14
Ltmp1515:
	.loc	18 0 0 is_stmt 0
	shlq	$5, %rsi
Ltmp1516:
	.loc	18 532 16
	je	LBB74_14
Ltmp1517:
	.loc	11 102 5 is_stmt 1
	movl	$8, %edx
	movq	%r12, %rdi
	popq	%rbx
	popq	%r12
Ltmp1518:
	popq	%r14
Ltmp1519:
	popq	%r15
	popq	%rbp
	jmp	___rust_dealloc
Ltmp1520:
LBB74_14:
	.loc	23 178 1
	popq	%rbx
	popq	%r12
	popq	%r14
Ltmp1521:
	popq	%r15
	popq	%rbp
	retq
LBB74_12:
Ltmp1522:
Ltmp1491:
	.loc	23 0 1 is_stmt 0
	movq	%rax, %r15
Ltmp1523:
	.loc	23 178 1
	testq	%rbx, %rbx
	je	LBB74_16
Ltmp1524:
	.loc	23 0 1
	addq	$32, %r12
Ltmp1525:
	.p2align	4, 0x90
LBB74_10:
Ltmp1492:
	.loc	23 178 1
	movq	%r12, %rdi
	callq	__ZN4core3ptr13drop_in_place17hb0944cad61188ce1E
Ltmp1493:
Ltmp1526:
	addq	$32, %r12
	addq	$-32, %rbx
	jne	LBB74_10
	jmp	LBB74_16
Ltmp1527:
LBB74_15:
Ltmp1494:
	.loc	23 0 1
	movq	%rax, %r15
Ltmp1528:
LBB74_16:
	.loc	23 178 1
	movq	(%r14), %rdi
	movq	8(%r14), %rsi
	callq	__ZN4core3ptr13drop_in_place17h303ee41bcb3ed971E
	movq	%r15, %rdi
	callq	__Unwind_Resume
	ud2
Ltmp1529:
Lfunc_end74:
	.cfi_endproc
	.section	__TEXT,__gcc_except_tab
	.p2align	2
GCC_except_table74:
Lexception25:
	.byte	255
	.byte	255
	.byte	1
	.uleb128 Lcst_end25-Lcst_begin25
Lcst_begin25:
	.uleb128 Ltmp1489-Lfunc_begin74
	.uleb128 Ltmp1490-Ltmp1489
	.uleb128 Ltmp1491-Lfunc_begin74
	.byte	0
	.uleb128 Ltmp1492-Lfunc_begin74
	.uleb128 Ltmp1493-Ltmp1492
	.uleb128 Ltmp1494-Lfunc_begin74
	.byte	0
	.uleb128 Ltmp1493-Lfunc_begin74
	.uleb128 Lfunc_end74-Ltmp1493
	.byte	0
	.byte	0
Lcst_end25:
	.p2align	2

	.section	__TEXT,__text,regular,pure_instructions
	.p2align	4, 0x90
__ZN4core3ptr13drop_in_place17hbacb10585b200c0eE:
Lfunc_begin75:
	.loc	23 178 0 is_stmt 1
	.cfi_startproc
	pushq	%rbp
	.cfi_def_cfa_offset 16
	.cfi_offset %rbp, -16
	movq	%rsp, %rbp
	.cfi_def_cfa_register %rbp
Ltmp1530:
	.loc	23 178 1 prologue_end
	cmpb	$2, 24(%rdi)
	je	LBB75_2
Ltmp1531:
	.loc	31 1346 12
	movq	(%rdi), %rax
Ltmp1532:
	.loc	6 2314 20
	lock		decq	(%rax)
Ltmp1533:
	.loc	31 1346 9
	jne	LBB75_2
Ltmp1534:
	.loc	6 2563 24
	##MEMBARRIER
Ltmp1535:
	.loc	31 1381 13
	popq	%rbp
	jmp	__ZN5alloc4sync12Arc$LT$T$GT$9drop_slow17h0b759df908e14f66E
Ltmp1536:
LBB75_2:
	.loc	23 178 1
	popq	%rbp
	retq
Ltmp1537:
Lfunc_end75:
	.cfi_endproc

	.p2align	4, 0x90
__ZN4core3ptr13drop_in_place17hbc1ee97bd8e16c19E:
Lfunc_begin76:
	.loc	23 178 0
	.cfi_startproc
	pushq	%rbp
	.cfi_def_cfa_offset 16
	.cfi_offset %rbp, -16
	movq	%rsp, %rbp
	.cfi_def_cfa_register %rbp
Ltmp1538:
	.loc	1 209 9 prologue_end
	movq	(%rdi), %rax
	movq	(%rax), %rdi
Ltmp1539:
	.loc	6 2317 19
	lock		decq	496(%rdi)
Ltmp1540:
	.loc	6 2277 19
	movq	408(%rdi), %rax
Ltmp1541:
	.file	62 "/Users/yingyuhang/.cargo/registry/src/github.com-1ecc6299db9ec823/rayon-core-1.7.1/src/sleep/mod.rs"
	.loc	62 102 12
	testq	%rax, %rax
	.loc	62 102 9 is_stmt 0
	je	LBB76_1
Ltmp1542:
	.loc	62 103 13 is_stmt 1
	addq	$408, %rdi
Ltmp1543:
	movq	$-1, %rsi
	popq	%rbp
	jmp	__ZN10rayon_core5sleep5Sleep11tickle_cold17hba438c8b765fc0a7E
Ltmp1544:
LBB76_1:
	.loc	23 178 1
	popq	%rbp
	retq
Ltmp1545:
Lfunc_end76:
	.cfi_endproc
	.file	63 "/Users/yingyuhang/.cargo/registry/src/github.com-1ecc6299db9ec823/rayon-core-1.7.1/src/latch.rs"

	.p2align	4, 0x90
__ZN4core3ptr13drop_in_place17hbe907616c24014efE:
Lfunc_begin77:
	.loc	23 178 0
	.cfi_startproc
	pushq	%rbp
	.cfi_def_cfa_offset 16
	.cfi_offset %rbp, -16
	movq	%rsp, %rbp
	.cfi_def_cfa_register %rbp
Ltmp1546:
	pushq	%r15
	pushq	%r14
	pushq	%rbx
	pushq	%rax
	.cfi_offset %rbx, -40
	.cfi_offset %r14, -32
	.cfi_offset %r15, -24
	.loc	6 2276 20 prologue_end
	movq	(%rdi), %rbx
Ltmp1547:
	.loc	6 2276 20 is_stmt 0
	movq	128(%rdi), %r14
Ltmp1548:
	.loc	6 2276 20
	movq	8(%rdi), %rdi
Ltmp1549:
	.loc	33 449 9 is_stmt 1
	andq	$-2, %rbx
Ltmp1550:
	.loc	33 450 9
	andq	$-2, %r14
Ltmp1551:
	.loc	33 454 19
	cmpq	%r14, %rbx
	.loc	33 454 13 is_stmt 0
	jne	LBB77_3
Ltmp1552:
LBB77_1:
	.loc	12 28 9 is_stmt 1
	testq	%rdi, %rdi
Ltmp1553:
	.loc	33 473 13
	je	LBB77_6
Ltmp1554:
	.loc	11 102 5
	movl	$752, %esi
	movl	$8, %edx
	addq	$8, %rsp
	popq	%rbx
Ltmp1555:
	popq	%r14
Ltmp1556:
	popq	%r15
	popq	%rbp
	jmp	___rust_dealloc
Ltmp1557:
	.p2align	4, 0x90
LBB77_5:
	.loc	7 3320 17
	addq	$2, %rbx
Ltmp1558:
	.loc	33 454 19
	cmpq	%rbx, %r14
	.loc	33 454 13 is_stmt 0
	je	LBB77_1
Ltmp1559:
LBB77_3:
	.loc	33 455 30 is_stmt 1
	movl	%ebx, %eax
	andl	$62, %eax
Ltmp1560:
	.loc	33 457 20
	cmpq	$62, %rax
	.loc	33 457 17 is_stmt 0
	jne	LBB77_5
Ltmp1561:
	.loc	6 2276 20 is_stmt 1
	movq	(%rdi), %r15
Ltmp1562:
	.loc	11 102 5
	movl	$752, %esi
	movl	$8, %edx
	callq	___rust_dealloc
Ltmp1563:
	.loc	33 0 0 is_stmt 0
	movq	%r15, %rdi
Ltmp1564:
	jmp	LBB77_5
Ltmp1565:
LBB77_6:
	.loc	23 178 1 is_stmt 1
	addq	$8, %rsp
	popq	%rbx
	popq	%r14
	popq	%r15
	popq	%rbp
	retq
Ltmp1566:
Lfunc_end77:
	.cfi_endproc

	.p2align	4, 0x90
__ZN4core3ptr13drop_in_place17hca7490782ded8867E:
Lfunc_begin78:
	.loc	23 178 0
	.cfi_startproc
	.cfi_personality 155, _rust_eh_personality
	.cfi_lsda 16, Lexception26
	pushq	%rbp
	.cfi_def_cfa_offset 16
	.cfi_offset %rbp, -16
	movq	%rsp, %rbp
	.cfi_def_cfa_register %rbp
	pushq	%r15
	pushq	%r14
	pushq	%r12
	pushq	%rbx
	.cfi_offset %rbx, -48
	.cfi_offset %r12, -40
	.cfi_offset %r14, -32
	.cfi_offset %r15, -24
	movq	%rdi, %r14
Ltmp1573:
	.loc	22 850 19 prologue_end
	movq	(%rdi), %r12
Ltmp1574:
	.loc	22 2384 81
	movq	16(%rdi), %rbx
Ltmp1575:
	.loc	23 178 1
	testq	%rbx, %rbx
	je	LBB78_6
Ltmp1576:
	.loc	31 1346 9
	shlq	$4, %rbx
Ltmp1577:
	addq	$-16, %rbx
Ltmp1578:
	.loc	31 1346 12 is_stmt 0
	movq	(%r12), %rax
Ltmp1579:
	.loc	6 2314 20 is_stmt 1
	lock		decq	(%rax)
Ltmp1580:
	.loc	31 1346 9
	je	LBB78_3
Ltmp1581:
	.p2align	4, 0x90
LBB78_4:
	.loc	23 178 1
	addq	$16, %r12
Ltmp1582:
	addq	$-16, %rbx
	cmpq	$-16, %rbx
	je	LBB78_5
Ltmp1583:
	.loc	31 1346 12
	movq	(%r12), %rax
Ltmp1584:
	.loc	6 2314 20
	lock		decq	(%rax)
Ltmp1585:
	.loc	31 1346 9
	jne	LBB78_4
Ltmp1586:
LBB78_3:
	.loc	6 2563 24
	##MEMBARRIER
Ltmp1587:
Ltmp1567:
	.loc	31 1381 13
	movq	%r12, %rdi
	callq	__ZN5alloc4sync12Arc$LT$T$GT$9drop_slow17h0b759df908e14f66E
Ltmp1568:
	jmp	LBB78_4
Ltmp1588:
LBB78_5:
	.loc	23 178 1
	movq	(%r14), %r12
Ltmp1589:
LBB78_6:
	movq	8(%r14), %rsi
Ltmp1590:
	.loc	18 200 40
	testq	%rsi, %rsi
	.loc	18 200 9 is_stmt 0
	je	LBB78_14
Ltmp1591:
	.loc	18 532 16 is_stmt 1
	testq	%r12, %r12
Ltmp1592:
	je	LBB78_14
Ltmp1593:
	.loc	18 0 0 is_stmt 0
	shlq	$4, %rsi
Ltmp1594:
	.loc	18 532 16
	je	LBB78_14
Ltmp1595:
	.loc	11 102 5 is_stmt 1
	movl	$8, %edx
	movq	%r12, %rdi
	popq	%rbx
	popq	%r12
Ltmp1596:
	popq	%r14
Ltmp1597:
	popq	%r15
	popq	%rbp
	jmp	___rust_dealloc
Ltmp1598:
LBB78_14:
	.loc	23 178 1
	popq	%rbx
	popq	%r12
	popq	%r14
Ltmp1599:
	popq	%r15
	popq	%rbp
	retq
LBB78_12:
Ltmp1600:
Ltmp1569:
	.loc	23 0 1 is_stmt 0
	movq	%rax, %r15
Ltmp1601:
	.loc	23 178 1
	testq	%rbx, %rbx
	je	LBB78_16
Ltmp1602:
	.loc	23 0 1
	addq	$16, %r12
Ltmp1603:
	.p2align	4, 0x90
LBB78_10:
Ltmp1570:
	.loc	23 178 1
	movq	%r12, %rdi
	callq	__ZN4core3ptr13drop_in_place17h013931f8f96f5a69E
Ltmp1571:
Ltmp1604:
	addq	$16, %r12
	addq	$-16, %rbx
	jne	LBB78_10
	jmp	LBB78_16
Ltmp1605:
LBB78_15:
Ltmp1572:
	.loc	23 0 1
	movq	%rax, %r15
Ltmp1606:
LBB78_16:
	.loc	23 178 1
	movq	(%r14), %rdi
	movq	8(%r14), %rsi
	callq	__ZN4core3ptr13drop_in_place17hcb4aeb5071d08cf9E
	movq	%r15, %rdi
	callq	__Unwind_Resume
	ud2
Ltmp1607:
Lfunc_end78:
	.cfi_endproc
	.section	__TEXT,__gcc_except_tab
	.p2align	2
GCC_except_table78:
Lexception26:
	.byte	255
	.byte	255
	.byte	1
	.uleb128 Lcst_end26-Lcst_begin26
Lcst_begin26:
	.uleb128 Ltmp1567-Lfunc_begin78
	.uleb128 Ltmp1568-Ltmp1567
	.uleb128 Ltmp1569-Lfunc_begin78
	.byte	0
	.uleb128 Ltmp1570-Lfunc_begin78
	.uleb128 Ltmp1571-Ltmp1570
	.uleb128 Ltmp1572-Lfunc_begin78
	.byte	0
	.uleb128 Ltmp1571-Lfunc_begin78
	.uleb128 Lfunc_end78-Ltmp1571
	.byte	0
	.byte	0
Lcst_end26:
	.p2align	2

	.section	__TEXT,__text,regular,pure_instructions
	.p2align	4, 0x90
__ZN4core3ptr13drop_in_place17hcb33034843945baaE:
Lfunc_begin79:
	.loc	23 178 0 is_stmt 1
	.cfi_startproc
	pushq	%rbp
	.cfi_def_cfa_offset 16
	.cfi_offset %rbp, -16
	movq	%rsp, %rbp
	.cfi_def_cfa_register %rbp
Ltmp1608:
	.loc	23 178 1 prologue_end
	cmpb	$2, 8(%rdi)
	je	LBB79_2
Ltmp1609:
	.loc	31 1346 12
	movq	(%rdi), %rax
Ltmp1610:
	.loc	6 2314 20
	lock		decq	(%rax)
Ltmp1611:
	.loc	31 1346 9
	jne	LBB79_2
Ltmp1612:
	.loc	6 2563 24
	##MEMBARRIER
Ltmp1613:
	.loc	31 1381 13
	popq	%rbp
	jmp	__ZN5alloc4sync12Arc$LT$T$GT$9drop_slow17h0b759df908e14f66E
Ltmp1614:
LBB79_2:
	.loc	23 178 1
	popq	%rbp
	retq
Ltmp1615:
Lfunc_end79:
	.cfi_endproc

	.p2align	4, 0x90
__ZN4core3ptr13drop_in_place17hcb4aeb5071d08cf9E:
Lfunc_begin80:
	.loc	23 178 0
	.cfi_startproc
	pushq	%rbp
	.cfi_def_cfa_offset 16
	.cfi_offset %rbp, -16
	movq	%rsp, %rbp
	.cfi_def_cfa_register %rbp
Ltmp1616:
	.loc	18 200 40 prologue_end
	testq	%rsi, %rsi
	.loc	18 200 9 is_stmt 0
	je	LBB80_3
Ltmp1617:
	.loc	18 532 16 is_stmt 1
	testq	%rdi, %rdi
Ltmp1618:
	je	LBB80_3
Ltmp1619:
	.loc	18 0 0 is_stmt 0
	shlq	$4, %rsi
Ltmp1620:
	.loc	18 532 16
	je	LBB80_3
Ltmp1621:
	.loc	11 102 5 is_stmt 1
	movl	$8, %edx
	popq	%rbp
	jmp	___rust_dealloc
Ltmp1622:
LBB80_3:
	.loc	23 178 1
	popq	%rbp
	retq
Ltmp1623:
Lfunc_end80:
	.cfi_endproc

	.p2align	4, 0x90
__ZN4core3ptr13drop_in_place17hd383787442fd603eE:
Lfunc_begin81:
	.loc	23 178 0
	.cfi_startproc
	pushq	%rbp
	.cfi_def_cfa_offset 16
	.cfi_offset %rbp, -16
	movq	%rsp, %rbp
	.cfi_def_cfa_register %rbp
Ltmp1624:
	.loc	23 178 1 prologue_end
	cmpq	$0, (%rdi)
Ltmp1625:
	.loc	23 0 0 is_stmt 0
	movq	8(%rdi), %rax
Ltmp1626:
	testq	%rax, %rax
	je	LBB81_2
Ltmp1627:
	movq	16(%rdi), %rsi
Ltmp1628:
	testq	%rsi, %rsi
	je	LBB81_2
Ltmp1629:
	movl	$1, %edx
	movq	%rax, %rdi
Ltmp1630:
	popq	%rbp
	jmp	___rust_dealloc
Ltmp1631:
LBB81_2:
	.loc	23 178 1
	popq	%rbp
	retq
Ltmp1632:
Lfunc_end81:
	.cfi_endproc

	.p2align	4, 0x90
__ZN4core3ptr13drop_in_place17hd4a54eb49ef2155fE:
Lfunc_begin82:
	.loc	23 178 0 is_stmt 1
	.cfi_startproc
	pushq	%rbp
	.cfi_def_cfa_offset 16
	.cfi_offset %rbp, -16
	movq	%rsp, %rbp
	.cfi_def_cfa_register %rbp
	pushq	%r14
	pushq	%rbx
	.cfi_offset %rbx, -32
	.cfi_offset %r14, -24
	movq	%rdi, %rbx
Ltmp1633:
	.loc	60 34 13 prologue_end
	cmpb	$0, 8(%rdi)
	.loc	60 34 12 is_stmt 0
	jne	LBB82_3
Ltmp1634:
	.loc	54 0 0
	movq	(%rbx), %r14
Ltmp1635:
	.loc	58 732 5 is_stmt 1
	callq	__ZN3std9panicking9panicking17h6f800ddc6c0d9b77E
Ltmp1636:
	.loc	60 34 12
	testb	%al, %al
	je	LBB82_3
Ltmp1637:
	.loc	6 2265 20
	movb	$1, 8(%r14)
Ltmp1638:
LBB82_3:
	.loc	54 446 13
	movq	(%rbx), %rax
	movq	(%rax), %rdi
Ltmp1639:
	.loc	52 68 17
	popq	%rbx
Ltmp1640:
	popq	%r14
	popq	%rbp
	jmp	_pthread_mutex_unlock
Ltmp1641:
Lfunc_end82:
	.cfi_endproc

	.p2align	4, 0x90
__ZN4core3ptr13drop_in_place17hdc565dfd53e95a27E:
Lfunc_begin83:
	.loc	23 178 0
	.cfi_startproc
	pushq	%rbp
	.cfi_def_cfa_offset 16
	.cfi_offset %rbp, -16
	movq	%rsp, %rbp
	.cfi_def_cfa_register %rbp
Ltmp1642:
	.loc	23 178 1 prologue_end
	movq	(%rdi), %rdi
Ltmp1643:
	testq	%rdi, %rdi
	je	LBB83_1
Ltmp1644:
	.loc	11 102 5
	movl	$752, %esi
	movl	$8, %edx
	popq	%rbp
	jmp	___rust_dealloc
Ltmp1645:
LBB83_1:
	.loc	23 178 1
	popq	%rbp
	retq
Ltmp1646:
Lfunc_end83:
	.cfi_endproc

	.p2align	4, 0x90
__ZN4core3ptr13drop_in_place17he2dbbcc51a197545E:
Lfunc_begin84:
	.loc	23 178 0
	.cfi_startproc
	.cfi_personality 155, _rust_eh_personality
	.cfi_lsda 16, Lexception27
	pushq	%rbp
	.cfi_def_cfa_offset 16
	.cfi_offset %rbp, -16
	movq	%rsp, %rbp
	.cfi_def_cfa_register %rbp
	pushq	%r14
	pushq	%rbx
	.cfi_offset %rbx, -32
	.cfi_offset %r14, -24
	movq	%rdi, %rbx
Ltmp1659:
	.loc	23 178 1 prologue_end
	movq	8(%rdi), %rdi
	testq	%rdi, %rdi
	je	LBB84_4
Ltmp1660:
	.loc	23 178 1 is_stmt 0
	movq	16(%rbx), %rax
Ltmp1647:
	callq	*(%rax)
Ltmp1648:
Ltmp1661:
	movq	16(%rbx), %rax
Ltmp1662:
	.loc	11 282 16 is_stmt 1
	movq	8(%rax), %rsi
Ltmp1663:
	.loc	11 185 12
	testq	%rsi, %rsi
	.loc	11 185 9 is_stmt 0
	je	LBB84_4
Ltmp1664:
	.loc	23 178 1 is_stmt 1
	movq	8(%rbx), %rdi
Ltmp1665:
	.loc	11 283 17
	movq	16(%rax), %rdx
Ltmp1666:
	.loc	11 102 5
	callq	___rust_dealloc
Ltmp1667:
LBB84_4:
	.loc	23 178 1
	movq	24(%rbx), %rdi
	testq	%rdi, %rdi
	je	LBB84_8
Ltmp1668:
	.loc	23 178 1 is_stmt 0
	movq	32(%rbx), %rax
Ltmp1650:
	callq	*(%rax)
Ltmp1651:
Ltmp1669:
	movq	32(%rbx), %rax
Ltmp1670:
	.loc	11 282 16 is_stmt 1
	movq	8(%rax), %rsi
Ltmp1671:
	.loc	11 185 12
	testq	%rsi, %rsi
	.loc	11 185 9 is_stmt 0
	je	LBB84_8
Ltmp1672:
	.loc	23 178 1 is_stmt 1
	movq	24(%rbx), %rdi
Ltmp1673:
	.loc	11 283 17
	movq	16(%rax), %rdx
Ltmp1674:
	.loc	11 102 5
	callq	___rust_dealloc
Ltmp1675:
LBB84_8:
	.loc	23 178 1
	movq	56(%rbx), %rdi
	testq	%rdi, %rdi
	je	LBB84_12
Ltmp1676:
	.loc	23 178 1 is_stmt 0
	movq	64(%rbx), %rax
Ltmp1653:
	callq	*(%rax)
Ltmp1654:
Ltmp1677:
	movq	64(%rbx), %rax
Ltmp1678:
	.loc	11 282 16 is_stmt 1
	movq	8(%rax), %rsi
Ltmp1679:
	.loc	11 185 12
	testq	%rsi, %rsi
	.loc	11 185 9 is_stmt 0
	je	LBB84_12
Ltmp1680:
	.loc	23 178 1 is_stmt 1
	movq	56(%rbx), %rdi
Ltmp1681:
	.loc	11 283 17
	movq	16(%rax), %rdx
Ltmp1682:
	.loc	11 102 5
	callq	___rust_dealloc
Ltmp1683:
LBB84_12:
	.loc	23 178 1
	movq	72(%rbx), %rdi
	testq	%rdi, %rdi
	je	LBB84_15
Ltmp1684:
	.loc	23 178 1 is_stmt 0
	movq	80(%rbx), %rax
Ltmp1656:
	callq	*(%rax)
Ltmp1657:
Ltmp1685:
	movq	80(%rbx), %rax
Ltmp1686:
	.loc	11 282 16 is_stmt 1
	movq	8(%rax), %rsi
Ltmp1687:
	.loc	11 185 12
	testq	%rsi, %rsi
	.loc	11 185 9 is_stmt 0
	je	LBB84_15
Ltmp1688:
	.loc	23 178 1 is_stmt 1
	movq	72(%rbx), %rdi
Ltmp1689:
	.loc	11 283 17
	movq	16(%rax), %rdx
Ltmp1690:
	.loc	11 102 5
	popq	%rbx
Ltmp1691:
	popq	%r14
	popq	%rbp
	jmp	___rust_dealloc
Ltmp1692:
LBB84_15:
	.loc	23 178 1
	popq	%rbx
Ltmp1693:
	popq	%r14
	popq	%rbp
	retq
LBB84_21:
Ltmp1694:
Ltmp1658:
	.loc	23 0 1 is_stmt 0
	movq	%rax, %r14
Ltmp1695:
	.loc	23 178 1
	movq	72(%rbx), %rdi
	movq	80(%rbx), %rsi
	callq	__ZN5alloc5alloc8box_free17h1e8da582c49e9131E
	movq	%r14, %rdi
	callq	__Unwind_Resume
	ud2
Ltmp1696:
LBB84_19:
Ltmp1655:
	.loc	23 0 1
	movq	%rax, %r14
Ltmp1697:
	.loc	23 178 1
	movq	56(%rbx), %rdi
	movq	64(%rbx), %rsi
	callq	__ZN5alloc5alloc8box_free17h1e8da582c49e9131E
	jmp	LBB84_18
Ltmp1698:
LBB84_20:
Ltmp1652:
	.loc	23 0 1
	movq	%rax, %r14
Ltmp1699:
	.loc	23 178 1
	movq	24(%rbx), %rdi
	movq	32(%rbx), %rsi
	callq	__ZN5alloc5alloc8box_free17h1e8da582c49e9131E
	jmp	LBB84_17
Ltmp1700:
LBB84_16:
Ltmp1649:
	.loc	23 0 1
	movq	%rax, %r14
Ltmp1701:
	.loc	23 178 1
	movq	8(%rbx), %rdi
	movq	16(%rbx), %rsi
	callq	__ZN5alloc5alloc8box_free17h1e8da582c49e9131E
Ltmp1702:
	.loc	23 178 1
	leaq	24(%rbx), %rdi
	callq	__ZN4core3ptr13drop_in_place17h1209fe79bcb4151bE
Ltmp1703:
LBB84_17:
	leaq	56(%rbx), %rdi
	callq	__ZN4core3ptr13drop_in_place17h1209fe79bcb4151bE
Ltmp1704:
LBB84_18:
	addq	$72, %rbx
Ltmp1705:
	movq	%rbx, %rdi
	callq	__ZN4core3ptr13drop_in_place17h1209fe79bcb4151bE
	movq	%r14, %rdi
	callq	__Unwind_Resume
	ud2
Ltmp1706:
Lfunc_end84:
	.cfi_endproc
	.section	__TEXT,__gcc_except_tab
	.p2align	2
GCC_except_table84:
Lexception27:
	.byte	255
	.byte	255
	.byte	1
	.uleb128 Lcst_end27-Lcst_begin27
Lcst_begin27:
	.uleb128 Ltmp1647-Lfunc_begin84
	.uleb128 Ltmp1648-Ltmp1647
	.uleb128 Ltmp1649-Lfunc_begin84
	.byte	0
	.uleb128 Ltmp1650-Lfunc_begin84
	.uleb128 Ltmp1651-Ltmp1650
	.uleb128 Ltmp1652-Lfunc_begin84
	.byte	0
	.uleb128 Ltmp1653-Lfunc_begin84
	.uleb128 Ltmp1654-Ltmp1653
	.uleb128 Ltmp1655-Lfunc_begin84
	.byte	0
	.uleb128 Ltmp1656-Lfunc_begin84
	.uleb128 Ltmp1657-Ltmp1656
	.uleb128 Ltmp1658-Lfunc_begin84
	.byte	0
	.uleb128 Ltmp1657-Lfunc_begin84
	.uleb128 Lfunc_end84-Ltmp1657
	.byte	0
	.byte	0
Lcst_end27:
	.p2align	2

	.section	__TEXT,__text,regular,pure_instructions
	.p2align	4, 0x90
__ZN4core3ptr13drop_in_place17he38e826daea3a0f5E:
Lfunc_begin85:
	.loc	23 178 0 is_stmt 1
	.cfi_startproc
	.cfi_personality 155, _rust_eh_personality
	.cfi_lsda 16, Lexception28
	pushq	%rbp
	.cfi_def_cfa_offset 16
	.cfi_offset %rbp, -16
	movq	%rsp, %rbp
	.cfi_def_cfa_register %rbp
Ltmp1713:
	pushq	%r15
	pushq	%r14
	pushq	%rbx
	pushq	%rax
	.cfi_offset %rbx, -40
	.cfi_offset %r14, -32
	.cfi_offset %r15, -24
	.loc	22 2714 21 prologue_end
	movq	%rdi, -32(%rbp)
Ltmp1714:
	.loc	22 2605 39
	movq	16(%rdi), %rbx
Ltmp1715:
	.loc	22 2605 59 is_stmt 0
	movq	24(%rdi), %r15
Ltmp1716:
	.loc	38 291 9 is_stmt 1
	subq	%rbx, %r15
Ltmp1717:
	.loc	23 178 1
	je	LBB85_6
Ltmp1718:
	.loc	22 0 0 is_stmt 0
	sarq	$4, %r15
Ltmp1719:
	.loc	31 1346 9 is_stmt 1
	shlq	$4, %r15
Ltmp1720:
	addq	$-16, %r15
Ltmp1721:
	.loc	31 1346 12 is_stmt 0
	movq	(%rbx), %rax
Ltmp1722:
	.loc	6 2314 20 is_stmt 1
	lock		decq	(%rax)
Ltmp1723:
	.loc	31 1346 9
	je	LBB85_3
Ltmp1724:
	.p2align	4, 0x90
LBB85_4:
	.loc	23 178 1
	addq	$16, %rbx
Ltmp1725:
	addq	$-16, %r15
	cmpq	$-16, %r15
	je	LBB85_5
Ltmp1726:
	.loc	31 1346 12
	movq	(%rbx), %rax
Ltmp1727:
	.loc	6 2314 20
	lock		decq	(%rax)
Ltmp1728:
	.loc	31 1346 9
	jne	LBB85_4
Ltmp1729:
LBB85_3:
	.loc	6 2563 24
	##MEMBARRIER
Ltmp1730:
Ltmp1707:
	.loc	31 1381 13
	movq	%rbx, %rdi
Ltmp1731:
	callq	__ZN5alloc4sync12Arc$LT$T$GT$9drop_slow17h0b759df908e14f66E
Ltmp1708:
	jmp	LBB85_4
Ltmp1732:
LBB85_5:
	.loc	22 2710 57
	movq	-32(%rbp), %rdi
LBB85_6:
Ltmp1733:
	.loc	22 2710 78 is_stmt 0
	movq	8(%rdi), %rsi
Ltmp1734:
	.loc	18 200 40 is_stmt 1
	testq	%rsi, %rsi
	.loc	18 200 9 is_stmt 0
	je	LBB85_9
Ltmp1735:
	.loc	18 207 28 is_stmt 1
	shlq	$4, %rsi
Ltmp1736:
	.loc	18 532 16
	je	LBB85_9
Ltmp1737:
	.loc	22 0 0 is_stmt 0
	movq	(%rdi), %rdi
Ltmp1738:
	.loc	11 102 5 is_stmt 1
	movl	$8, %edx
	callq	___rust_dealloc
Ltmp1739:
LBB85_9:
	.loc	23 178 1
	addq	$8, %rsp
	popq	%rbx
	popq	%r14
	popq	%r15
	popq	%rbp
	retq
LBB85_12:
Ltmp1740:
Ltmp1709:
	.loc	23 0 1 is_stmt 0
	movq	%rax, %r14
Ltmp1741:
	.loc	23 178 1
	testq	%r15, %r15
	je	LBB85_15
Ltmp1742:
	.loc	23 0 1
	addq	$16, %rbx
Ltmp1743:
	.p2align	4, 0x90
LBB85_10:
Ltmp1710:
	.loc	23 178 1
	movq	%rbx, %rdi
	callq	__ZN4core3ptr13drop_in_place17h013931f8f96f5a69E
Ltmp1711:
	addq	$16, %rbx
	addq	$-16, %r15
	jne	LBB85_10
	jmp	LBB85_15
Ltmp1744:
LBB85_14:
Ltmp1712:
	.loc	23 0 1
	movq	%rax, %r14
LBB85_15:
Ltmp1745:
	leaq	-32(%rbp), %rdi
	.loc	22 2720 5 is_stmt 1
	callq	__ZN4core3ptr13drop_in_place17h17eec23903ceda06E
	movq	%r14, %rdi
	callq	__Unwind_Resume
	ud2
Ltmp1746:
Lfunc_end85:
	.cfi_endproc
	.section	__TEXT,__gcc_except_tab
	.p2align	2
GCC_except_table85:
Lexception28:
	.byte	255
	.byte	255
	.byte	1
	.uleb128 Lcst_end28-Lcst_begin28
Lcst_begin28:
	.uleb128 Ltmp1707-Lfunc_begin85
	.uleb128 Ltmp1708-Ltmp1707
	.uleb128 Ltmp1709-Lfunc_begin85
	.byte	0
	.uleb128 Ltmp1710-Lfunc_begin85
	.uleb128 Ltmp1711-Ltmp1710
	.uleb128 Ltmp1712-Lfunc_begin85
	.byte	0
	.uleb128 Ltmp1711-Lfunc_begin85
	.uleb128 Lfunc_end85-Ltmp1711
	.byte	0
	.byte	0
Lcst_end28:
	.p2align	2

	.section	__TEXT,__text,regular,pure_instructions
	.p2align	4, 0x90
__ZN4core3ptr13drop_in_place17he3c8305c7c79909fE:
Lfunc_begin86:
	.loc	23 178 0
	.cfi_startproc
	pushq	%rbp
	.cfi_def_cfa_offset 16
	.cfi_offset %rbp, -16
	movq	%rsp, %rbp
	.cfi_def_cfa_register %rbp
	movq	%rdi, %rax
Ltmp1747:
	.loc	23 178 1 prologue_end
	movq	(%rdi), %rdi
Ltmp1748:
	testq	%rdi, %rdi
	je	LBB86_2
Ltmp1749:
	.loc	23 178 1 is_stmt 0
	movq	8(%rax), %rsi
Ltmp1750:
	.loc	18 200 40 is_stmt 1
	testq	%rsi, %rsi
	.loc	18 200 9 is_stmt 0
	je	LBB86_2
Ltmp1751:
	.loc	11 102 5 is_stmt 1
	movl	$1, %edx
	popq	%rbp
	jmp	___rust_dealloc
Ltmp1752:
LBB86_2:
	.loc	23 178 1
	popq	%rbp
	retq
Ltmp1753:
Lfunc_end86:
	.cfi_endproc

	.p2align	4, 0x90
__ZN4core3ptr13drop_in_place17hf1b5129c326f3eaeE:
Lfunc_begin87:
	.loc	23 178 0
	.cfi_startproc
	pushq	%rbp
	.cfi_def_cfa_offset 16
	.cfi_offset %rbp, -16
	movq	%rsp, %rbp
	.cfi_def_cfa_register %rbp
Ltmp1754:
	.loc	29 95 35 prologue_end
	movq	(%rdi), %rdi
Ltmp1755:
	.loc	19 554 28
	movq	2088(%rdi), %rax
Ltmp1756:
	.loc	19 555 23
	testq	%rax, %rax
	.loc	8 181 59
	je	LBB87_4
Ltmp1757:
	.loc	19 553 27
	movq	2080(%rdi), %rcx
Ltmp1758:
	.loc	19 556 31
	leaq	-1(%rax), %rdx
Ltmp1759:
	.loc	13 2058 5
	movq	%rdx, 2088(%rdi)
Ltmp1760:
	.loc	19 558 32
	cmpq	$1, %rax
	.loc	19 558 9 is_stmt 0
	jne	LBB87_3
Ltmp1761:
	testq	%rcx, %rcx
	jne	LBB87_3
Ltmp1762:
	.loc	19 559 13 is_stmt 1
	popq	%rbp
	jmp	__ZN15crossbeam_epoch8internal5Local8finalize17hbdefd0f40d84cd73E
Ltmp1763:
LBB87_3:
	.loc	23 178 1
	popq	%rbp
	retq
LBB87_4:
Ltmp1764:
	.loc	20 13 23
	leaq	l___unnamed_38(%rip), %rdi
Ltmp1765:
	leaq	l___unnamed_37(%rip), %rdx
	movl	$35, %esi
	callq	__ZN3std9panicking11begin_panic17h5383990145059594E
Ltmp1766:
Lfunc_end87:
	.cfi_endproc

	.p2align	4, 0x90
__ZN4core3ptr13drop_in_place17hfcf12c9db1b4747eE:
Lfunc_begin88:
	.loc	23 178 0
	.cfi_startproc
	.cfi_personality 155, _rust_eh_personality
	.cfi_lsda 16, Lexception29
	pushq	%rbp
	.cfi_def_cfa_offset 16
	.cfi_offset %rbp, -16
	movq	%rsp, %rbp
	.cfi_def_cfa_register %rbp
	pushq	%r15
	pushq	%r14
	pushq	%rbx
	pushq	%rax
	.cfi_offset %rbx, -40
	.cfi_offset %r14, -32
	.cfi_offset %r15, -24
	movq	%rdi, %rbx
Ltmp1773:
	.loc	54 373 18 prologue_end
	movq	(%rdi), %rdi
Ltmp1774:
	.loc	52 78 17
	callq	_pthread_mutex_destroy
Ltmp1775:
	.loc	23 178 1
	movq	(%rbx), %rdi
Ltmp1776:
	.loc	11 102 5
	movl	$64, %esi
	movl	$8, %edx
	callq	___rust_dealloc
Ltmp1777:
	.loc	23 178 1
	leaq	16(%rbx), %r15
Ltmp1778:
Ltmp1767:
	.loc	23 178 1 is_stmt 0
	movq	%r15, %rdi
	callq	__ZN69_$LT$std..sync..condvar..Condvar$u20$as$u20$core..ops..drop..Drop$GT$4drop17h586207405bc4e99fE
Ltmp1768:
Ltmp1779:
	.loc	23 178 1
	movq	16(%rbx), %rdi
Ltmp1780:
	.loc	11 102 5 is_stmt 1
	movl	$48, %esi
	movl	$8, %edx
	callq	___rust_dealloc
Ltmp1781:
	.loc	54 373 18
	movq	32(%rbx), %rdi
Ltmp1782:
	.loc	52 78 17
	callq	_pthread_mutex_destroy
Ltmp1783:
	.loc	23 178 1
	movq	32(%rbx), %rdi
Ltmp1784:
	.loc	11 102 5
	movl	$64, %esi
	movl	$8, %edx
	callq	___rust_dealloc
Ltmp1785:
	.loc	23 178 1
	leaq	48(%rbx), %r15
Ltmp1786:
Ltmp1770:
	.loc	23 178 1 is_stmt 0
	movq	%r15, %rdi
	callq	__ZN69_$LT$std..sync..condvar..Condvar$u20$as$u20$core..ops..drop..Drop$GT$4drop17h586207405bc4e99fE
Ltmp1771:
Ltmp1787:
	.loc	23 178 1
	movq	48(%rbx), %rdi
Ltmp1788:
	.loc	11 102 5 is_stmt 1
	movl	$48, %esi
	movl	$8, %edx
	callq	___rust_dealloc
Ltmp1789:
	.loc	31 1346 12
	movq	64(%rbx), %rax
Ltmp1790:
	.loc	6 2314 20
	lock		decq	(%rax)
Ltmp1791:
	.loc	31 1346 9
	jne	LBB88_3
Ltmp1792:
	.loc	23 0 0 is_stmt 0
	addq	$64, %rbx
Ltmp1793:
	.loc	6 2563 24 is_stmt 1
	##MEMBARRIER
Ltmp1794:
	.loc	31 1381 13
	movq	%rbx, %rdi
	addq	$8, %rsp
	popq	%rbx
Ltmp1795:
	popq	%r14
	popq	%r15
	popq	%rbp
	jmp	__ZN5alloc4sync12Arc$LT$T$GT$9drop_slow17h0b759df908e14f66E
Ltmp1796:
LBB88_3:
	.loc	23 178 1
	addq	$8, %rsp
	popq	%rbx
Ltmp1797:
	popq	%r14
	popq	%r15
	popq	%rbp
	retq
LBB88_6:
Ltmp1798:
Ltmp1772:
	.loc	23 0 1 is_stmt 0
	movq	%rax, %r14
Ltmp1799:
	.loc	23 178 1
	movq	%r15, %rdi
	callq	__ZN4core3ptr13drop_in_place17h7bb0160cfbf57122E
	jmp	LBB88_5
Ltmp1800:
LBB88_4:
Ltmp1769:
	.loc	23 0 1
	movq	%rax, %r14
Ltmp1801:
	.loc	23 178 1
	movq	%r15, %rdi
	callq	__ZN4core3ptr13drop_in_place17h7bb0160cfbf57122E
Ltmp1802:
	.loc	23 178 1
	leaq	32(%rbx), %rdi
	callq	__ZN4core3ptr13drop_in_place17ha247f134f1aeca9cE
Ltmp1803:
LBB88_5:
	addq	$64, %rbx
Ltmp1804:
	movq	%rbx, %rdi
	callq	__ZN4core3ptr13drop_in_place17h013931f8f96f5a69E
	movq	%r14, %rdi
	callq	__Unwind_Resume
	ud2
Ltmp1805:
Lfunc_end88:
	.cfi_endproc
	.section	__TEXT,__gcc_except_tab
	.p2align	2
GCC_except_table88:
Lexception29:
	.byte	255
	.byte	255
	.byte	1
	.uleb128 Lcst_end29-Lcst_begin29
Lcst_begin29:
	.uleb128 Ltmp1767-Lfunc_begin88
	.uleb128 Ltmp1768-Ltmp1767
	.uleb128 Ltmp1769-Lfunc_begin88
	.byte	0
	.uleb128 Ltmp1770-Lfunc_begin88
	.uleb128 Ltmp1771-Ltmp1770
	.uleb128 Ltmp1772-Lfunc_begin88
	.byte	0
	.uleb128 Ltmp1771-Lfunc_begin88
	.uleb128 Lfunc_end88-Ltmp1771
	.byte	0
	.byte	0
Lcst_end29:
	.p2align	2

	.section	__TEXT,__text,regular,pure_instructions
	.p2align	4, 0x90
__ZN4core4iter8adapters15filter_try_fold28_$u7b$$u7b$closure$u7d$$u7d$17hf8d9a34561956ee7E:
Lfunc_begin89:
	.file	64 "/rustc/a74d1862d4d87a56244958416fd05976c58ca1a8/src/libcore/iter/adapters/mod.rs"
	.loc	64 934 0 is_stmt 1
	.cfi_startproc
	.cfi_personality 155, _rust_eh_personality
	.cfi_lsda 16, Lexception30
	pushq	%rbp
	.cfi_def_cfa_offset 16
	.cfi_offset %rbp, -16
	movq	%rsp, %rbp
	.cfi_def_cfa_register %rbp
Ltmp1809:
	pushq	%r15
	pushq	%r14
	pushq	%r13
	pushq	%r12
	pushq	%rbx
	subq	$120, %rsp
	.cfi_offset %rbx, -56
	.cfi_offset %r12, -48
	.cfi_offset %r13, -40
	.cfi_offset %r14, -32
	.cfi_offset %r15, -24
Ltmp1810:
	.loc	64 934 25 prologue_end
	movq	(%rdi), %rax
Ltmp1811:
	.loc	1 711 31
	movq	(%rax), %rax
	movq	(%rax), %rax
	.loc	1 711 26 is_stmt 0
	cmpq	%rsi, 288(%rax)
Ltmp1812:
	.loc	64 934 22 is_stmt 1
	je	LBB89_1
Ltmp1813:
	.loc	64 0 22 is_stmt 0
	movq	%rsi, %rcx
Ltmp1814:
	.file	65 "/rustc/a74d1862d4d87a56244958416fd05976c58ca1a8/src/libcore/iter/traits/iterator.rs"
	.loc	65 2239 32 is_stmt 1
	movq	8(%rdi), %rax
Ltmp1815:
	.loc	65 0 32 is_stmt 0
	movq	%rax, -64(%rbp)
Ltmp1816:
	.loc	1 713 31 is_stmt 1
	movq	(%rax), %rax
	movq	(%rax), %rax
	movq	304(%rax), %rax
Ltmp1817:
	.loc	22 1966 55
	movq	400(%rax), %rsi
Ltmp1818:
	.loc	40 2872 10
	cmpq	%rcx, %rsi
	jbe	LBB89_38
Ltmp1819:
	.loc	22 814 19
	movq	384(%rax), %rax
Ltmp1820:
	.loc	22 0 19 is_stmt 0
	movq	%rcx, -72(%rbp)
Ltmp1821:
	leaq	(%rcx,%rcx,4), %rcx
Ltmp1822:
	shlq	$4, %rcx
	leaq	64(%rax,%rcx), %r14
	movq	__ZN15crossbeam_epoch7default9COLLECTOR17haa275bceec3c53f3E@GOTPCREL(%rip), %r15
	jmp	LBB89_4
Ltmp1823:
	.p2align	4, 0x90
LBB89_19:
	.loc	1 716 25 is_stmt 1
	testq	%rbx, %rbx
	je	LBB89_1
Ltmp1824:
LBB89_4:
	.loc	5 687 17
	movq	(%r14), %rax
Ltmp1825:
	.loc	6 2275 20
	movq	256(%rax), %rbx
Ltmp1826:
	.loc	28 262 32
	callq	__ZN15crossbeam_epoch7default6HANDLE7__getit17h2a0a5f5d6ff0ab6eE
Ltmp1827:
	.loc	28 262 82 is_stmt 0
	testq	%rax, %rax
	je	LBB89_5
Ltmp1828:
	.loc	29 81 18 is_stmt 1
	movq	(%rax), %rax
Ltmp1829:
	movq	2080(%rax), %rcx
Ltmp1830:
	.loc	27 0 0 is_stmt 0
	testq	%rcx, %rcx
Ltmp1831:
	.loc	5 694 9 is_stmt 1
	jne	LBB89_11
	jmp	LBB89_12
Ltmp1832:
	.p2align	4, 0x90
LBB89_5:
	.loc	27 44 32
	movq	%r15, %rdi
	callq	__ZN79_$LT$crossbeam_epoch..default..COLLECTOR$u20$as$u20$core..ops..deref..Deref$GT$5deref17h112a7c2883546d5aE
	movq	%rax, %rdi
	callq	__ZN15crossbeam_epoch9collector9Collector8register17h61485f26c4de6be0E
Ltmp1833:
	.loc	19 554 28
	movq	2088(%rax), %rdx
Ltmp1834:
	.loc	19 555 23
	testq	%rdx, %rdx
	.loc	8 181 59
	je	LBB89_39
Ltmp1835:
	.loc	27 0 0 is_stmt 0
	movq	2080(%rax), %rcx
Ltmp1836:
	.loc	19 556 31 is_stmt 1
	leaq	-1(%rdx), %rsi
Ltmp1837:
	.loc	13 2058 5
	movq	%rsi, 2088(%rax)
Ltmp1838:
	.loc	19 558 12
	testq	%rcx, %rcx
	.loc	19 558 9 is_stmt 0
	jne	LBB89_10
Ltmp1839:
	cmpq	$1, %rdx
	je	LBB89_8
Ltmp1840:
	.p2align	4, 0x90
LBB89_10:
	.loc	27 0 0
	testq	%rcx, %rcx
Ltmp1841:
	.loc	5 694 9 is_stmt 1
	je	LBB89_12
Ltmp1842:
LBB89_11:
	.loc	6 2566 23
	mfence
Ltmp1843:
LBB89_12:
	.loc	5 698 22
	callq	__ZN15crossbeam_epoch7default3pin17h68b6e7584ca53a07E
	movq	%rax, -120(%rbp)
Ltmp1844:
	.loc	5 701 17
	movq	(%r14), %rax
Ltmp1845:
	.loc	6 2275 20
	movq	264(%rax), %rax
Ltmp1846:
	.loc	7 1271 17
	subq	%rbx, %rax
Ltmp1847:
	.loc	5 704 12
	testq	%rax, %rax
	.loc	5 704 9 is_stmt 0
	jle	LBB89_13
Ltmp1848:
	.loc	5 709 22 is_stmt 1
	movq	(%r14), %rax
Ltmp1849:
	.loc	6 2275 20
	movq	128(%rax), %rcx
Ltmp1850:
	.loc	17 113 15
	andq	$-8, %rcx
Ltmp1851:
	.loc	5 154 34
	movq	8(%rcx), %rax
Ltmp1852:
	.loc	5 154 33 is_stmt 0
	subq	$1, %rax
	jb	LBB89_21
Ltmp1853:
	.loc	5 154 9
	movq	(%rcx), %rcx
Ltmp1854:
	.loc	5 154 25
	andq	%rbx, %rax
Ltmp1855:
	.loc	12 152 9 is_stmt 1
	shlq	$4, %rax
Ltmp1856:
	.loc	23 1001 5
	movq	(%rcx,%rax), %r12
	movq	8(%rcx,%rax), %r13
Ltmp1857:
	.loc	5 713 12
	movq	(%r14), %rcx
Ltmp1858:
	.loc	7 1247 17
	leaq	1(%rbx), %rdx
Ltmp1859:
	.loc	6 2338 30
	movq	%rbx, %rax
	lock		cmpxchgq	%rdx, 256(%rcx)
	movl	$2, %ebx
Ltmp1860:
	.loc	5 713 9
	je	LBB89_24
Ltmp1861:
	.loc	15 422 39
	movq	-120(%rbp), %rdi
Ltmp1862:
	.loc	15 422 16 is_stmt 0
	testq	%rdi, %rdi
	je	LBB89_19
Ltmp1863:
LBB89_15:
	.loc	19 507 27 is_stmt 1
	movq	2080(%rdi), %rax
Ltmp1864:
	.loc	19 508 30
	subq	$1, %rax
Ltmp1865:
	jb	LBB89_33
Ltmp1866:
	.loc	13 2058 5
	movq	%rax, 2080(%rdi)
Ltmp1867:
	.loc	19 510 9
	jne	LBB89_19
Ltmp1868:
	.loc	6 2264 20
	movq	$0, 8(%rdi)
Ltmp1869:
	.loc	19 513 16
	cmpq	$0, 2088(%rdi)
	.loc	19 513 13 is_stmt 0
	jne	LBB89_19
Ltmp1870:
	.loc	19 514 17 is_stmt 1
	callq	__ZN15crossbeam_epoch8internal5Local8finalize17hbdefd0f40d84cd73E
Ltmp1871:
	.loc	19 0 17 is_stmt 0
	jmp	LBB89_19
Ltmp1872:
	.p2align	4, 0x90
LBB89_13:
	xorl	%ebx, %ebx
Ltmp1873:
	.loc	15 422 39 is_stmt 1
	movq	-120(%rbp), %rdi
Ltmp1874:
	.loc	15 422 16 is_stmt 0
	testq	%rdi, %rdi
	jne	LBB89_15
	jmp	LBB89_19
Ltmp1875:
LBB89_8:
	.loc	19 559 13 is_stmt 1
	movq	%rax, %rdi
	callq	__ZN15crossbeam_epoch8internal5Local8finalize17hbdefd0f40d84cd73E
Ltmp1876:
	.loc	19 0 13 is_stmt 0
	jmp	LBB89_12
Ltmp1877:
LBB89_1:
	xorl	%r13d, %r13d
LBB89_37:
	.loc	64 934 86 is_stmt 1
	movq	%r12, %rax
	movq	%r13, %rdx
	addq	$120, %rsp
	popq	%rbx
	popq	%r12
	popq	%r13
	popq	%r14
	popq	%r15
	popq	%rbp
	retq
LBB89_24:
Ltmp1878:
	.loc	15 422 39
	movq	-120(%rbp), %rdi
Ltmp1879:
	.loc	15 422 16 is_stmt 0
	testq	%rdi, %rdi
	movq	-72(%rbp), %rbx
	je	LBB89_29
Ltmp1880:
	.loc	19 507 27 is_stmt 1
	movq	2080(%rdi), %rax
Ltmp1881:
	.loc	19 508 30
	subq	$1, %rax
Ltmp1882:
	jb	LBB89_33
Ltmp1883:
	.loc	13 2058 5
	movq	%rax, 2080(%rdi)
Ltmp1884:
	.loc	19 510 9
	jne	LBB89_29
Ltmp1885:
	.loc	6 2264 20
	movq	$0, 8(%rdi)
Ltmp1886:
	.loc	19 513 16
	cmpq	$0, 2088(%rdi)
	.loc	19 513 13 is_stmt 0
	je	LBB89_28
Ltmp1887:
LBB89_29:
	.loc	19 0 13
	leaq	__ZN68_$LT$rayon_core..log..LOG_ENV$u20$as$u20$core..ops..deref..Deref$GT$5deref11__stability4LAZY17habd5d5654f13aaaeE(%rip), %rax
Ltmp1888:
	movq	%rax, -56(%rbp)
Ltmp1889:
	.loc	6 2275 20 is_stmt 1
	movq	__ZN68_$LT$rayon_core..log..LOG_ENV$u20$as$u20$core..ops..deref..Deref$GT$5deref11__stability4LAZY17habd5d5654f13aaaeE(%rip), %rax
Ltmp1890:
	.loc	44 373 9
	cmpq	$3, %rax
Ltmp1891:
	.loc	44 259 9
	jne	LBB89_30
Ltmp1892:
	.loc	47 37 20
	movq	-56(%rbp), %rax
Ltmp1893:
	.loc	47 38 17
	movb	8(%rax), %al
Ltmp1894:
	cmpb	$2, %al
	je	LBB89_32
Ltmp1895:
LBB89_35:
	.loc	1 718 29
	testb	%al, %al
	je	LBB89_37
Ltmp1896:
	.loc	1 0 29 is_stmt 0
	movq	-64(%rbp), %rax
	.loc	1 719 41 is_stmt 1
	movq	(%rax), %rax
	movq	(%rax), %rax
	movq	288(%rax), %rax
	.loc	1 718 34
	movq	%rax, -144(%rbp)
	movq	%rbx, -136(%rbp)
	movq	$8, -152(%rbp)
	leaq	-152(%rbp), %rax
Ltmp1897:
	.loc	1 718 29 is_stmt 0
	movq	%rax, -56(%rbp)
	leaq	__ZN59_$LT$rayon_core..log..Event$u20$as$u20$core..fmt..Debug$GT$3fmt17h1497d9961d96b8b5E(%rip), %rax
	movq	%rax, -48(%rbp)
Ltmp1898:
	.loc	21 328 9 is_stmt 1
	leaq	l___unnamed_57(%rip), %rax
Ltmp1899:
	movq	%rax, -120(%rbp)
	movq	$2, -112(%rbp)
	movq	$0, -104(%rbp)
	leaq	-56(%rbp), %rax
Ltmp1900:
	movq	%rax, -88(%rbp)
	movq	$1, -80(%rbp)
	leaq	-120(%rbp), %rdi
Ltmp1901:
	.loc	1 718 29
	callq	__ZN3std2io5stdio7_eprint17h784168ce21d132cbE
	jmp	LBB89_37
Ltmp1902:
LBB89_30:
	.loc	1 0 29 is_stmt 0
	leaq	-56(%rbp), %rax
Ltmp1903:
	.loc	44 263 21 is_stmt 1
	movq	%rax, -152(%rbp)
	leaq	-152(%rbp), %rax
Ltmp1904:
	.loc	44 264 37
	movq	%rax, -120(%rbp)
	.loc	44 264 9 is_stmt 0
	leaq	__ZN68_$LT$rayon_core..log..LOG_ENV$u20$as$u20$core..ops..deref..Deref$GT$5deref11__stability4LAZY17habd5d5654f13aaaeE(%rip), %rdi
	leaq	l___unnamed_3(%rip), %rcx
	leaq	-120(%rbp), %rdx
	xorl	%esi, %esi
	callq	__ZN3std4sync4once4Once10call_inner17h78f35ea5a056ddbcE
Ltmp1905:
	.loc	47 37 20 is_stmt 1
	movq	-56(%rbp), %rax
Ltmp1906:
	.loc	47 38 17
	movb	8(%rax), %al
Ltmp1907:
	cmpb	$2, %al
	jne	LBB89_35
Ltmp1908:
LBB89_32:
	.loc	8 10 9
	leaq	l___unnamed_58(%rip), %rdi
	leaq	l___unnamed_59(%rip), %rdx
	movl	$66, %esi
	callq	__ZN4core9panicking5panic17h736ee47a631475c0E
Ltmp1909:
LBB89_28:
	.loc	19 514 17
	callq	__ZN15crossbeam_epoch8internal5Local8finalize17hbdefd0f40d84cd73E
Ltmp1910:
	.loc	19 0 17 is_stmt 0
	jmp	LBB89_29
Ltmp1911:
LBB89_33:
	leaq	_str.0(%rip), %rdi
	leaq	l___unnamed_35(%rip), %rdx
	movl	$33, %esi
	callq	__ZN4core9panicking5panic17h736ee47a631475c0E
Ltmp1912:
LBB89_21:
Ltmp1806:
	.loc	5 154 33 is_stmt 1
	leaq	_str.0(%rip), %rdi
	leaq	l___unnamed_34(%rip), %rdx
	movl	$33, %esi
	callq	__ZN4core9panicking5panic17h736ee47a631475c0E
Ltmp1913:
Ltmp1807:
	ud2
Ltmp1914:
LBB89_39:
	.loc	20 13 23
	leaq	l___unnamed_38(%rip), %rdi
	leaq	l___unnamed_37(%rip), %rdx
Ltmp1915:
	movl	$35, %esi
	callq	__ZN3std9panicking11begin_panic17h5383990145059594E
Ltmp1916:
LBB89_38:
	.loc	40 2872 10
	leaq	l___unnamed_60(%rip), %rdx
	movq	%rcx, %rdi
Ltmp1917:
	callq	__ZN4core9panicking18panic_bounds_check17habe69d236c55e3edE
Ltmp1918:
LBB89_34:
Ltmp1808:
	.loc	40 0 10 is_stmt 0
	movq	%rax, %rbx
Ltmp1919:
	leaq	-120(%rbp), %rdi
Ltmp1920:
	.loc	5 726 5 is_stmt 1
	callq	__ZN4core3ptr13drop_in_place17h9ddff43834e16ad4E
	movq	%rbx, %rdi
	callq	__Unwind_Resume
	ud2
Ltmp1921:
Lfunc_end89:
	.cfi_endproc
	.section	__TEXT,__gcc_except_tab
	.p2align	2
GCC_except_table89:
Lexception30:
	.byte	255
	.byte	255
	.byte	1
	.uleb128 Lcst_end30-Lcst_begin30
Lcst_begin30:
	.uleb128 Lfunc_begin89-Lfunc_begin89
	.uleb128 Ltmp1806-Lfunc_begin89
	.byte	0
	.byte	0
	.uleb128 Ltmp1806-Lfunc_begin89
	.uleb128 Ltmp1807-Ltmp1806
	.uleb128 Ltmp1808-Lfunc_begin89
	.byte	0
	.uleb128 Ltmp1807-Lfunc_begin89
	.uleb128 Lfunc_end89-Ltmp1807
	.byte	0
	.byte	0
Lcst_end30:
	.p2align	2

	.section	__TEXT,__text,regular,pure_instructions
	.p2align	4, 0x90
__ZN5alloc4sync12Arc$LT$T$GT$9drop_slow17h00dcc58473909bd4E:
Lfunc_begin90:
	.loc	31 866 0
	.cfi_startproc
	.cfi_personality 155, _rust_eh_personality
	.cfi_lsda 16, Lexception31
	pushq	%rbp
	.cfi_def_cfa_offset 16
	.cfi_offset %rbp, -16
	movq	%rsp, %rbp
	.cfi_def_cfa_register %rbp
	pushq	%r15
	pushq	%r14
	pushq	%r13
	pushq	%r12
	pushq	%rbx
	pushq	%rax
	.cfi_offset %rbx, -56
	.cfi_offset %r12, -48
	.cfi_offset %r13, -40
	.cfi_offset %r14, -32
	.cfi_offset %r15, -24
	movq	%rdi, %r14
Ltmp1940:
	.loc	31 869 33 prologue_end
	movq	(%rdi), %r12
	.loc	31 869 28 is_stmt 0
	leaq	128(%r12), %r15
Ltmp1941:
	.loc	22 850 19 is_stmt 1
	movq	384(%r12), %rbx
Ltmp1942:
	.loc	22 2384 81
	movq	400(%r12), %rax
Ltmp1943:
	.loc	23 178 1
	shlq	$4, %rax
Ltmp1944:
	leaq	(%rax,%rax,4), %r13
Ltmp1945:
	.p2align	4, 0x90
LBB90_5:
	testq	%r13, %r13
	je	LBB90_6
Ltmp1946:
	addq	$-80, %r13
Ltmp1922:
	movq	%rbx, %rdi
	addq	$80, %rbx
Ltmp1947:
	callq	__ZN4core3ptr13drop_in_place17hfcf12c9db1b4747eE
Ltmp1923:
	jmp	LBB90_5
Ltmp1948:
LBB90_6:
	.loc	23 178 1 is_stmt 0
	movq	392(%r12), %rax
Ltmp1949:
	.loc	18 200 40 is_stmt 1
	testq	%rax, %rax
	.loc	18 200 9 is_stmt 0
	je	LBB90_10
Ltmp1950:
	.loc	23 0 0
	movq	384(%r12), %rdi
Ltmp1951:
	.loc	18 532 16 is_stmt 1
	testq	%rdi, %rdi
Ltmp1952:
	je	LBB90_10
Ltmp1953:
	.loc	18 0 0 is_stmt 0
	shlq	$4, %rax
	leaq	(%rax,%rax,4), %rsi
Ltmp1954:
	.loc	18 532 16
	testq	%rsi, %rsi
	je	LBB90_10
Ltmp1955:
	.loc	11 102 5 is_stmt 1
	movl	$8, %edx
	callq	___rust_dealloc
Ltmp1956:
LBB90_10:
	.loc	54 373 18
	movq	416(%r12), %rdi
Ltmp1957:
	.loc	52 78 17
	callq	_pthread_mutex_destroy
Ltmp1958:
	.loc	23 178 1
	movq	416(%r12), %rdi
Ltmp1959:
	.loc	11 102 5
	movl	$64, %esi
	movl	$8, %edx
	callq	___rust_dealloc
Ltmp1960:
	.loc	23 178 1
	leaq	432(%r12), %rbx
Ltmp1961:
Ltmp1928:
	.loc	23 178 1 is_stmt 0
	movq	%rbx, %rdi
	callq	__ZN69_$LT$std..sync..condvar..Condvar$u20$as$u20$core..ops..drop..Drop$GT$4drop17h586207405bc4e99fE
Ltmp1929:
Ltmp1962:
	.loc	23 178 1
	movq	432(%r12), %rdi
Ltmp1963:
	.loc	11 102 5 is_stmt 1
	movl	$48, %esi
	movl	$8, %edx
	callq	___rust_dealloc
Ltmp1964:
	.loc	6 2276 20
	movq	128(%r12), %rbx
Ltmp1965:
	.loc	6 2276 20 is_stmt 0
	movq	256(%r12), %r15
Ltmp1966:
	.loc	6 2276 20
	movq	136(%r12), %rdi
Ltmp1967:
	.loc	33 449 9 is_stmt 1
	andq	$-2, %rbx
Ltmp1968:
	.loc	33 450 9
	andq	$-2, %r15
Ltmp1969:
	.loc	33 454 19
	cmpq	%r15, %rbx
	.loc	33 454 13 is_stmt 0
	jne	LBB90_35
Ltmp1970:
LBB90_12:
	.loc	12 28 9 is_stmt 1
	testq	%rdi, %rdi
Ltmp1971:
	.loc	33 473 13
	je	LBB90_14
Ltmp1972:
	.loc	11 102 5
	movl	$752, %esi
	movl	$8, %edx
	callq	___rust_dealloc
Ltmp1973:
LBB90_14:
	.loc	23 178 1
	movq	448(%r12), %rdi
	testq	%rdi, %rdi
	je	LBB90_18
Ltmp1974:
	.loc	23 178 1 is_stmt 0
	movq	456(%r12), %rax
Ltmp1931:
	callq	*(%rax)
Ltmp1932:
Ltmp1975:
	movq	456(%r12), %rax
Ltmp1976:
	.loc	11 282 16 is_stmt 1
	movq	8(%rax), %rsi
Ltmp1977:
	.loc	11 185 12
	testq	%rsi, %rsi
	.loc	11 185 9 is_stmt 0
	je	LBB90_18
Ltmp1978:
	.loc	23 178 1 is_stmt 1
	movq	448(%r12), %rdi
Ltmp1979:
	.loc	11 283 17
	movq	16(%rax), %rdx
Ltmp1980:
	.loc	11 102 5
	callq	___rust_dealloc
Ltmp1981:
LBB90_18:
	.loc	23 178 1
	movq	464(%r12), %rdi
	testq	%rdi, %rdi
	je	LBB90_22
Ltmp1982:
	.loc	23 178 1 is_stmt 0
	movq	472(%r12), %rax
Ltmp1934:
	callq	*(%rax)
Ltmp1935:
Ltmp1983:
	movq	472(%r12), %rax
Ltmp1984:
	.loc	11 282 16 is_stmt 1
	movq	8(%rax), %rsi
Ltmp1985:
	.loc	11 185 12
	testq	%rsi, %rsi
	.loc	11 185 9 is_stmt 0
	je	LBB90_22
Ltmp1986:
	.loc	23 178 1 is_stmt 1
	movq	464(%r12), %rdi
Ltmp1987:
	.loc	11 283 17
	movq	16(%rax), %rdx
Ltmp1988:
	.loc	11 102 5
	callq	___rust_dealloc
Ltmp1989:
LBB90_22:
	.loc	23 178 1
	movq	480(%r12), %rdi
	testq	%rdi, %rdi
	je	LBB90_26
Ltmp1990:
	.loc	23 178 1 is_stmt 0
	movq	488(%r12), %rax
Ltmp1937:
	callq	*(%rax)
Ltmp1938:
Ltmp1991:
	movq	488(%r12), %rax
Ltmp1992:
	.loc	11 282 16 is_stmt 1
	movq	8(%rax), %rsi
Ltmp1993:
	.loc	11 185 12
	testq	%rsi, %rsi
	.loc	11 185 9 is_stmt 0
	je	LBB90_26
Ltmp1994:
	.loc	23 178 1 is_stmt 1
	movq	480(%r12), %rdi
Ltmp1995:
	.loc	11 283 17
	movq	16(%rax), %rdx
Ltmp1996:
	.loc	11 102 5
	callq	___rust_dealloc
Ltmp1997:
LBB90_26:
	.loc	31 871 12
	movq	(%r14), %rax
Ltmp1998:
	.loc	6 2314 20
	lock		decq	8(%rax)
Ltmp1999:
	.loc	31 871 9
	jne	LBB90_39
Ltmp2000:
	.loc	6 2563 24
	##MEMBARRIER
Ltmp2001:
	.loc	31 873 28
	movq	(%r14), %rdi
Ltmp2002:
	.loc	11 102 5
	movl	$512, %esi
	movl	$128, %edx
	addq	$8, %rsp
	popq	%rbx
	popq	%r12
	popq	%r13
	popq	%r14
Ltmp2003:
	popq	%r15
	popq	%rbp
	jmp	___rust_dealloc
Ltmp2004:
	.p2align	4, 0x90
LBB90_37:
	.loc	7 3320 17
	addq	$2, %rbx
Ltmp2005:
	.loc	33 454 19
	cmpq	%rbx, %r15
	.loc	33 454 13 is_stmt 0
	je	LBB90_12
Ltmp2006:
LBB90_35:
	.loc	33 455 30 is_stmt 1
	movl	%ebx, %eax
	andl	$62, %eax
Ltmp2007:
	.loc	33 457 20
	cmpq	$62, %rax
	.loc	33 457 17 is_stmt 0
	jne	LBB90_37
Ltmp2008:
	.loc	6 2276 20 is_stmt 1
	movq	(%rdi), %r13
Ltmp2009:
	.loc	11 102 5
	movl	$752, %esi
	movl	$8, %edx
	callq	___rust_dealloc
Ltmp2010:
	.loc	33 0 0 is_stmt 0
	movq	%r13, %rdi
Ltmp2011:
	jmp	LBB90_37
Ltmp2012:
LBB90_39:
	.loc	31 875 6 is_stmt 1
	addq	$8, %rsp
	popq	%rbx
	popq	%r12
	popq	%r13
	popq	%r14
Ltmp2013:
	popq	%r15
	popq	%rbp
	retq
LBB90_40:
Ltmp2014:
Ltmp1939:
	.loc	31 0 6 is_stmt 0
	movq	%rax, %r14
Ltmp2015:
	.loc	23 178 1 is_stmt 1
	movq	480(%r12), %rdi
	movq	488(%r12), %rsi
	callq	__ZN5alloc5alloc8box_free17h1e8da582c49e9131E
	movq	%r14, %rdi
	callq	__Unwind_Resume
	ud2
Ltmp2016:
LBB90_33:
Ltmp1936:
	.loc	23 0 1 is_stmt 0
	movq	%rax, %r14
Ltmp2017:
	.loc	23 178 1
	movq	464(%r12), %rdi
	movq	472(%r12), %rsi
	callq	__ZN5alloc5alloc8box_free17h1e8da582c49e9131E
	jmp	LBB90_32
Ltmp2018:
LBB90_34:
Ltmp1933:
	.loc	23 0 1
	movq	%rax, %r14
Ltmp2019:
	.loc	23 178 1
	movq	448(%r12), %rdi
	movq	456(%r12), %rsi
	callq	__ZN5alloc5alloc8box_free17h1e8da582c49e9131E
	jmp	LBB90_31
Ltmp2020:
LBB90_38:
Ltmp1930:
	.loc	23 0 1
	movq	%rax, %r14
Ltmp2021:
	.loc	23 178 1
	movq	%rbx, %rdi
	callq	__ZN4core3ptr13drop_in_place17h7bb0160cfbf57122E
	jmp	LBB90_30
Ltmp2022:
LBB90_1:
Ltmp1924:
	.loc	23 0 1
	movq	%rax, %r14
Ltmp2023:
	.loc	23 178 1
	testq	%r13, %r13
	je	LBB90_29
Ltmp2024:
	.p2align	4, 0x90
LBB90_2:
Ltmp1925:
	movq	%rbx, %rdi
	callq	__ZN4core3ptr13drop_in_place17hfcf12c9db1b4747eE
Ltmp1926:
Ltmp2025:
	addq	$80, %rbx
	addq	$-80, %r13
	jne	LBB90_2
	jmp	LBB90_29
Ltmp2026:
LBB90_28:
Ltmp1927:
	.loc	23 0 1
	movq	%rax, %r14
Ltmp2027:
LBB90_29:
	.loc	23 178 1
	movq	384(%r12), %rdi
	movq	392(%r12), %rsi
	callq	__ZN4core3ptr13drop_in_place17h684955be7cf59130E
Ltmp2028:
	.loc	23 178 1
	leaq	408(%r12), %rdi
	callq	__ZN4core3ptr13drop_in_place17h803eb8f527825b32E
Ltmp2029:
LBB90_30:
	movq	%r15, %rdi
	callq	__ZN4core3ptr13drop_in_place17hbe907616c24014efE
	leaq	448(%r12), %rdi
	callq	__ZN4core3ptr13drop_in_place17h1209fe79bcb4151bE
Ltmp2030:
LBB90_31:
	leaq	464(%r12), %rdi
	callq	__ZN4core3ptr13drop_in_place17h1209fe79bcb4151bE
LBB90_32:
	addq	$480, %r12
	movq	%r12, %rdi
	callq	__ZN4core3ptr13drop_in_place17h1209fe79bcb4151bE
	movq	%r14, %rdi
	callq	__Unwind_Resume
	ud2
Ltmp2031:
Lfunc_end90:
	.cfi_endproc
	.section	__TEXT,__gcc_except_tab
	.p2align	2
GCC_except_table90:
Lexception31:
	.byte	255
	.byte	255
	.byte	1
	.uleb128 Lcst_end31-Lcst_begin31
Lcst_begin31:
	.uleb128 Ltmp1922-Lfunc_begin90
	.uleb128 Ltmp1923-Ltmp1922
	.uleb128 Ltmp1924-Lfunc_begin90
	.byte	0
	.uleb128 Ltmp1928-Lfunc_begin90
	.uleb128 Ltmp1929-Ltmp1928
	.uleb128 Ltmp1930-Lfunc_begin90
	.byte	0
	.uleb128 Ltmp1931-Lfunc_begin90
	.uleb128 Ltmp1932-Ltmp1931
	.uleb128 Ltmp1933-Lfunc_begin90
	.byte	0
	.uleb128 Ltmp1934-Lfunc_begin90
	.uleb128 Ltmp1935-Ltmp1934
	.uleb128 Ltmp1936-Lfunc_begin90
	.byte	0
	.uleb128 Ltmp1937-Lfunc_begin90
	.uleb128 Ltmp1938-Ltmp1937
	.uleb128 Ltmp1939-Lfunc_begin90
	.byte	0
	.uleb128 Ltmp1938-Lfunc_begin90
	.uleb128 Ltmp1925-Ltmp1938
	.byte	0
	.byte	0
	.uleb128 Ltmp1925-Lfunc_begin90
	.uleb128 Ltmp1926-Ltmp1925
	.uleb128 Ltmp1927-Lfunc_begin90
	.byte	0
	.uleb128 Ltmp1926-Lfunc_begin90
	.uleb128 Lfunc_end90-Ltmp1926
	.byte	0
	.byte	0
Lcst_end31:
	.p2align	2

	.section	__TEXT,__text,regular,pure_instructions
	.p2align	4, 0x90
__ZN5alloc4sync12Arc$LT$T$GT$9drop_slow17h0b759df908e14f66E:
Lfunc_begin91:
	.loc	31 866 0 is_stmt 1
	.cfi_startproc
	pushq	%rbp
	.cfi_def_cfa_offset 16
	.cfi_offset %rbp, -16
	movq	%rsp, %rbp
	.cfi_def_cfa_register %rbp
	pushq	%r14
	pushq	%rbx
	.cfi_offset %rbx, -32
	.cfi_offset %r14, -24
	movq	%rdi, %r14
Ltmp2032:
	.loc	31 869 33 prologue_end
	movq	(%rdi), %rax
Ltmp2033:
	.loc	6 2276 20
	movq	264(%rax), %rcx
Ltmp2034:
	.loc	6 2276 20 is_stmt 0
	movq	256(%rax), %rdx
Ltmp2035:
	.loc	6 2276 20
	movq	128(%rax), %rbx
Ltmp2036:
	.loc	5 224 19 is_stmt 1
	cmpq	%rcx, %rdx
	.loc	5 224 13 is_stmt 0
	je	LBB91_2
Ltmp2037:
	.loc	17 0 0
	movq	%rbx, %rax
Ltmp2038:
	andq	$-8, %rax
Ltmp2039:
	cmpq	$1, 8(%rax)
Ltmp2040:
	.loc	5 224 13
	jb	LBB91_9
Ltmp2041:
LBB91_2:
	.loc	17 1077 13 is_stmt 1
	cmpq	$7, %rbx
	.loc	8 181 59
	jbe	LBB91_8
Ltmp2042:
	.loc	17 113 15
	andq	$-8, %rbx
Ltmp2043:
	.loc	5 230 13
	movq	8(%rbx), %rsi
Ltmp2044:
	.loc	18 200 40
	testq	%rsi, %rsi
	.loc	18 200 9 is_stmt 0
	je	LBB91_6
Ltmp2045:
	.loc	18 207 28 is_stmt 1
	shlq	$4, %rsi
Ltmp2046:
	.loc	18 532 16
	je	LBB91_6
Ltmp2047:
	.loc	5 0 0 is_stmt 0
	movq	(%rbx), %rdi
Ltmp2048:
	.loc	11 102 5 is_stmt 1
	movl	$8, %edx
Ltmp2049:
	callq	___rust_dealloc
Ltmp2050:
LBB91_6:
	.loc	11 102 5 is_stmt 0
	movl	$16, %esi
	movl	$8, %edx
	movq	%rbx, %rdi
	callq	___rust_dealloc
Ltmp2051:
	.loc	31 871 12 is_stmt 1
	movq	(%r14), %rax
Ltmp2052:
	.loc	6 2314 20
	lock		decq	8(%rax)
Ltmp2053:
	.loc	31 871 9
	jne	LBB91_7
Ltmp2054:
	.loc	6 2563 24
	##MEMBARRIER
Ltmp2055:
	.loc	31 873 28
	movq	(%r14), %rdi
Ltmp2056:
	.loc	11 102 5
	movl	$384, %esi
	movl	$128, %edx
	popq	%rbx
	popq	%r14
Ltmp2057:
	popq	%rbp
	jmp	___rust_dealloc
Ltmp2058:
LBB91_7:
	.loc	31 875 6
	popq	%rbx
	popq	%r14
Ltmp2059:
	popq	%rbp
	retq
LBB91_8:
Ltmp2060:
	.loc	20 13 23
	leaq	l___unnamed_36(%rip), %rdi
	leaq	l___unnamed_37(%rip), %rdx
Ltmp2061:
	movl	$39, %esi
	callq	__ZN3std9panicking11begin_panic17h5383990145059594E
Ltmp2062:
LBB91_9:
	.loc	5 154 33
	leaq	_str.0(%rip), %rdi
	leaq	l___unnamed_34(%rip), %rdx
Ltmp2063:
	movl	$33, %esi
	callq	__ZN4core9panicking5panic17h736ee47a631475c0E
Ltmp2064:
Lfunc_end91:
	.cfi_endproc

	.p2align	4, 0x90
__ZN5alloc4sync12Arc$LT$T$GT$9drop_slow17h3a0593769a158cc4E:
Lfunc_begin92:
	.loc	31 866 0
	.cfi_startproc
	.cfi_personality 155, _rust_eh_personality
	.cfi_lsda 16, Lexception32
	pushq	%rbp
	.cfi_def_cfa_offset 16
	.cfi_offset %rbp, -16
	movq	%rsp, %rbp
	.cfi_def_cfa_register %rbp
	pushq	%r14
	pushq	%rbx
	.cfi_offset %rbx, -32
	.cfi_offset %r14, -24
	movq	%rdi, %r14
Ltmp2068:
	.loc	31 869 33 prologue_end
	movq	(%rdi), %rbx
Ltmp2069:
	.loc	23 178 1
	cmpq	$0, 16(%rbx)
	je	LBB92_5
Ltmp2070:
	.loc	23 178 1 is_stmt 0
	movq	24(%rbx), %rdi
	testq	%rdi, %rdi
	je	LBB92_5
Ltmp2071:
	.loc	23 178 1
	movq	32(%rbx), %rax
Ltmp2065:
	callq	*(%rax)
Ltmp2066:
Ltmp2072:
	movq	32(%rbx), %rax
Ltmp2073:
	.loc	11 282 16 is_stmt 1
	movq	8(%rax), %rsi
Ltmp2074:
	.loc	11 185 12
	testq	%rsi, %rsi
	.loc	11 185 9 is_stmt 0
	je	LBB92_5
Ltmp2075:
	.loc	23 178 1 is_stmt 1
	movq	24(%rbx), %rdi
Ltmp2076:
	.loc	11 283 17
	movq	16(%rax), %rdx
Ltmp2077:
	.loc	11 102 5
	callq	___rust_dealloc
Ltmp2078:
LBB92_5:
	.loc	31 871 12
	movq	(%r14), %rax
Ltmp2079:
	.loc	6 2314 20
	lock		decq	8(%rax)
Ltmp2080:
	.loc	31 871 9
	jne	LBB92_6
Ltmp2081:
	.loc	6 2563 24
	##MEMBARRIER
Ltmp2082:
	.loc	31 873 28
	movq	(%r14), %rdi
Ltmp2083:
	.loc	11 102 5
	movl	$40, %esi
	movl	$8, %edx
	popq	%rbx
	popq	%r14
Ltmp2084:
	popq	%rbp
	jmp	___rust_dealloc
Ltmp2085:
LBB92_6:
	.loc	31 875 6
	popq	%rbx
	popq	%r14
Ltmp2086:
	popq	%rbp
	retq
LBB92_7:
Ltmp2087:
Ltmp2067:
	.loc	31 0 6 is_stmt 0
	movq	%rax, %r14
Ltmp2088:
	.loc	23 178 1 is_stmt 1
	movq	24(%rbx), %rdi
	movq	32(%rbx), %rsi
	callq	__ZN5alloc5alloc8box_free17h1e8da582c49e9131E
	movq	%r14, %rdi
	callq	__Unwind_Resume
	ud2
Ltmp2089:
Lfunc_end92:
	.cfi_endproc
	.section	__TEXT,__gcc_except_tab
	.p2align	2
GCC_except_table92:
Lexception32:
	.byte	255
	.byte	255
	.byte	1
	.uleb128 Lcst_end32-Lcst_begin32
Lcst_begin32:
	.uleb128 Ltmp2065-Lfunc_begin92
	.uleb128 Ltmp2066-Ltmp2065
	.uleb128 Ltmp2067-Lfunc_begin92
	.byte	0
	.uleb128 Ltmp2066-Lfunc_begin92
	.uleb128 Lfunc_end92-Ltmp2066
	.byte	0
	.byte	0
Lcst_end32:
	.p2align	2

	.section	__TEXT,__text,regular,pure_instructions
	.p2align	4, 0x90
__ZN5alloc4sync12Arc$LT$T$GT$9drop_slow17h933694acf971184dE:
Lfunc_begin93:
	.loc	31 866 0
	.cfi_startproc
	.cfi_personality 155, _rust_eh_personality
	.cfi_lsda 16, Lexception33
	pushq	%rbp
	.cfi_def_cfa_offset 16
	.cfi_offset %rbp, -16
	movq	%rsp, %rbp
	.cfi_def_cfa_register %rbp
	pushq	%r14
	pushq	%rbx
	.cfi_offset %rbx, -32
	.cfi_offset %r14, -24
	movq	%rdi, %r14
Ltmp2093:
	.loc	31 869 33 prologue_end
	movq	(%rdi), %rbx
Ltmp2094:
	.loc	23 178 1
	movq	16(%rbx), %rax
Ltmp2095:
	testq	%rax, %rax
	je	LBB93_3
Ltmp2096:
	.file	66 "/rustc/a74d1862d4d87a56244958416fd05976c58ca1a8/src/libstd/ffi/c_str.rs"
	.loc	66 645 13
	movb	$0, (%rax)
Ltmp2097:
	.loc	23 178 1
	movq	24(%rbx), %rsi
Ltmp2098:
	.loc	11 185 12
	testq	%rsi, %rsi
	.loc	11 185 9 is_stmt 0
	je	LBB93_3
Ltmp2099:
	.loc	23 178 1 is_stmt 1
	movq	16(%rbx), %rdi
Ltmp2100:
	.loc	11 102 5
	movl	$1, %edx
	callq	___rust_dealloc
Ltmp2101:
LBB93_3:
	.loc	54 373 18
	movq	48(%rbx), %rdi
Ltmp2102:
	.loc	52 78 17
	callq	_pthread_mutex_destroy
Ltmp2103:
	.loc	23 178 1
	movq	48(%rbx), %rdi
Ltmp2104:
	.loc	11 102 5
	movl	$64, %esi
	movl	$8, %edx
	callq	___rust_dealloc
Ltmp2105:
	.loc	23 178 1
	addq	$64, %rbx
Ltmp2106:
Ltmp2090:
	.loc	23 178 1 is_stmt 0
	movq	%rbx, %rdi
	callq	__ZN69_$LT$std..sync..condvar..Condvar$u20$as$u20$core..ops..drop..Drop$GT$4drop17h586207405bc4e99fE
Ltmp2091:
Ltmp2107:
	.loc	23 178 1
	movq	(%rbx), %rdi
Ltmp2108:
	.loc	11 102 5 is_stmt 1
	movl	$48, %esi
	movl	$8, %edx
	callq	___rust_dealloc
Ltmp2109:
	.loc	31 871 12
	movq	(%r14), %rax
Ltmp2110:
	.loc	6 2314 20
	lock		decq	8(%rax)
Ltmp2111:
	.loc	31 871 9
	jne	LBB93_5
Ltmp2112:
	.loc	6 2563 24
	##MEMBARRIER
Ltmp2113:
	.loc	31 873 28
	movq	(%r14), %rdi
Ltmp2114:
	.loc	11 102 5
	movl	$80, %esi
	movl	$8, %edx
	popq	%rbx
	popq	%r14
Ltmp2115:
	popq	%rbp
	jmp	___rust_dealloc
Ltmp2116:
LBB93_5:
	.loc	31 875 6
	popq	%rbx
	popq	%r14
Ltmp2117:
	popq	%rbp
	retq
LBB93_6:
Ltmp2118:
Ltmp2092:
	.loc	31 0 6 is_stmt 0
	movq	%rax, %r14
Ltmp2119:
	.loc	23 178 1 is_stmt 1
	movq	%rbx, %rdi
	callq	__ZN4core3ptr13drop_in_place17h7bb0160cfbf57122E
	movq	%r14, %rdi
	callq	__Unwind_Resume
	ud2
Ltmp2120:
Lfunc_end93:
	.cfi_endproc
	.section	__TEXT,__gcc_except_tab
	.p2align	2
GCC_except_table93:
Lexception33:
	.byte	255
	.byte	255
	.byte	1
	.uleb128 Lcst_end33-Lcst_begin33
Lcst_begin33:
	.uleb128 Ltmp2090-Lfunc_begin93
	.uleb128 Ltmp2091-Ltmp2090
	.uleb128 Ltmp2092-Lfunc_begin93
	.byte	0
	.uleb128 Ltmp2091-Lfunc_begin93
	.uleb128 Lfunc_end93-Ltmp2091
	.byte	0
	.byte	0
Lcst_end33:
	.p2align	2

	.section	__TEXT,__text,regular,pure_instructions
	.p2align	4, 0x90
__ZN5alloc5alloc8box_free17h1e8da582c49e9131E:
Lfunc_begin94:
	.loc	11 281 0
	.cfi_startproc
	pushq	%rbp
	.cfi_def_cfa_offset 16
	.cfi_offset %rbp, -16
	movq	%rsp, %rbp
	.cfi_def_cfa_register %rbp
	movq	%rsi, %rax
Ltmp2121:
	.loc	11 282 16 prologue_end
	movq	8(%rsi), %rsi
Ltmp2122:
	.loc	11 185 12
	testq	%rsi, %rsi
	.loc	11 185 9 is_stmt 0
	je	LBB94_1
Ltmp2123:
	.loc	11 283 17 is_stmt 1
	movq	16(%rax), %rdx
Ltmp2124:
	.loc	11 102 5
	popq	%rbp
	jmp	___rust_dealloc
Ltmp2125:
LBB94_1:
	.loc	11 286 2
	popq	%rbp
	retq
Ltmp2126:
Lfunc_end94:
	.cfi_endproc

	.p2align	4, 0x90
__ZN5alloc5alloc8box_free17h86d3dfa31c55697eE:
Lfunc_begin95:
	.loc	11 281 0
	.cfi_startproc
	pushq	%rbp
	.cfi_def_cfa_offset 16
	.cfi_offset %rbp, -16
	movq	%rsp, %rbp
	.cfi_def_cfa_register %rbp
Ltmp2127:
	.loc	11 102 5 prologue_end
	movl	$16, %esi
	movl	$8, %edx
	popq	%rbp
	jmp	___rust_dealloc
Ltmp2128:
Lfunc_end95:
	.cfi_endproc

	.p2align	4, 0x90
__ZN5alloc5alloc8box_free17haaca6f5f1176212aE:
Lfunc_begin96:
	.loc	11 281 0
	.cfi_startproc
	pushq	%rbp
	.cfi_def_cfa_offset 16
	.cfi_offset %rbp, -16
	movq	%rsp, %rbp
	.cfi_def_cfa_register %rbp
Ltmp2129:
	.loc	11 102 5 prologue_end
	movl	$64, %esi
	movl	$8, %edx
	popq	%rbp
	jmp	___rust_dealloc
Ltmp2130:
Lfunc_end96:
	.cfi_endproc

	.p2align	4, 0x90
__ZN5alloc5alloc8box_free17hb631fd0fd787e5d5E:
Lfunc_begin97:
	.loc	11 281 0
	.cfi_startproc
	pushq	%rbp
	.cfi_def_cfa_offset 16
	.cfi_offset %rbp, -16
	movq	%rsp, %rbp
	.cfi_def_cfa_register %rbp
Ltmp2131:
	.loc	11 102 5 prologue_end
	movl	$24, %esi
	movl	$8, %edx
	popq	%rbp
	jmp	___rust_dealloc
Ltmp2132:
Lfunc_end97:
	.cfi_endproc

	.p2align	4, 0x90
__ZN5alloc7raw_vec19RawVec$LT$T$C$A$GT$11allocate_in28_$u7b$$u7b$closure$u7d$$u7d$17h524579ed685fd65dE:
Lfunc_begin98:
	.loc	18 152 0
	.cfi_startproc
	pushq	%rbp
	.cfi_def_cfa_offset 16
	.cfi_offset %rbp, -16
	movq	%rsp, %rbp
	.cfi_def_cfa_register %rbp
Ltmp2133:
	.loc	18 152 71 prologue_end
	callq	__ZN5alloc5alloc18handle_alloc_error17hbc0ab0ed90816c07E
Ltmp2134:
Lfunc_end98:
	.cfi_endproc

	.p2align	4, 0x90
__ZN5alloc7raw_vec19RawVec$LT$T$C$A$GT$11allocate_in28_$u7b$$u7b$closure$u7d$$u7d$17h6720f4cff2ae0c93E:
Lfunc_begin99:
	.loc	18 149 0
	.cfi_startproc
	pushq	%rbp
	.cfi_def_cfa_offset 16
	.cfi_offset %rbp, -16
	movq	%rsp, %rbp
	.cfi_def_cfa_register %rbp
Ltmp2135:
	.loc	18 149 74 prologue_end
	callq	__ZN5alloc7raw_vec17capacity_overflow17h023f34f5bc34c61fE
Ltmp2136:
Lfunc_end99:
	.cfi_endproc

	.p2align	4, 0x90
__ZN66_$LT$core..option..Option$LT$T$GT$$u20$as$u20$core..fmt..Debug$GT$3fmt17h1cd69dbe8f97209eE:
Lfunc_begin100:
	.loc	30 151 0
	.cfi_startproc
	pushq	%rbp
	.cfi_def_cfa_offset 16
	.cfi_offset %rbp, -16
	movq	%rsp, %rbp
	.cfi_def_cfa_register %rbp
Ltmp2137:
	pushq	%r14
	pushq	%rbx
	subq	$32, %rsp
	.cfi_offset %rbx, -32
	.cfi_offset %r14, -24
	.loc	30 151 48 prologue_end
	cmpq	$0, (%rdi)
	je	LBB100_2
Ltmp2138:
	.loc	30 0 48 is_stmt 0
	movq	%rdi, %rbx
Ltmp2139:
	leaq	-48(%rbp), %r14
Ltmp2140:
	.loc	30 151 48
	leaq	L___unnamed_52(%rip), %rdx
	movl	$4, %ecx
	movq	%r14, %rdi
	callq	__ZN4core3fmt9Formatter11debug_tuple17h15ca25ad759edd1cE
Ltmp2141:
	.loc	30 160 56 is_stmt 1
	movq	%rbx, -24(%rbp)
	.loc	30 151 48
	leaq	l___unnamed_11(%rip), %rdx
	leaq	-24(%rbp), %rsi
	movq	%r14, %rdi
	callq	__ZN4core3fmt8builders10DebugTuple5field17hf36121153a94f236E
	jmp	LBB100_3
Ltmp2142:
LBB100_2:
	.loc	30 0 48 is_stmt 0
	leaq	-48(%rbp), %r14
Ltmp2143:
	.loc	30 151 48
	leaq	L___unnamed_53(%rip), %rdx
	movl	$4, %ecx
	movq	%r14, %rdi
Ltmp2144:
	callq	__ZN4core3fmt9Formatter11debug_tuple17h15ca25ad759edd1cE
Ltmp2145:
LBB100_3:
	.loc	30 0 0
	movq	%r14, %rdi
	callq	__ZN4core3fmt8builders10DebugTuple6finish17h68acf09c6f6593f2E
	.loc	30 151 53
	addq	$32, %rsp
	popq	%rbx
	popq	%r14
	popq	%rbp
	retq
Ltmp2146:
Lfunc_end100:
	.cfi_endproc

	.p2align	4, 0x90
__ZN66_$LT$core..option..Option$LT$T$GT$$u20$as$u20$core..fmt..Debug$GT$3fmt17h45f739e2bfbcf97eE:
Lfunc_begin101:
	.loc	30 151 0 is_stmt 1
	.cfi_startproc
	pushq	%rbp
	.cfi_def_cfa_offset 16
	.cfi_offset %rbp, -16
	movq	%rsp, %rbp
	.cfi_def_cfa_register %rbp
Ltmp2147:
	pushq	%r14
	pushq	%rbx
	subq	$32, %rsp
	.cfi_offset %rbx, -32
	.cfi_offset %r14, -24
	.loc	30 151 48 prologue_end
	cmpq	$1, (%rdi)
	jne	LBB101_2
Ltmp2148:
	.loc	30 0 48 is_stmt 0
	movq	%rdi, %rbx
Ltmp2149:
	.loc	30 160 56 is_stmt 1
	addq	$8, %rbx
Ltmp2150:
	.loc	30 0 56 is_stmt 0
	leaq	-48(%rbp), %r14
Ltmp2151:
	.loc	30 151 48 is_stmt 1
	leaq	L___unnamed_52(%rip), %rdx
	movl	$4, %ecx
	movq	%r14, %rdi
	callq	__ZN4core3fmt9Formatter11debug_tuple17h15ca25ad759edd1cE
Ltmp2152:
	.loc	30 160 56
	movq	%rbx, -24(%rbp)
	.loc	30 151 48
	leaq	l___unnamed_12(%rip), %rdx
	leaq	-24(%rbp), %rsi
	movq	%r14, %rdi
	callq	__ZN4core3fmt8builders10DebugTuple5field17hf36121153a94f236E
	jmp	LBB101_3
Ltmp2153:
LBB101_2:
	.loc	30 0 48 is_stmt 0
	leaq	-48(%rbp), %r14
Ltmp2154:
	.loc	30 151 48
	leaq	L___unnamed_53(%rip), %rdx
	movl	$4, %ecx
	movq	%r14, %rdi
Ltmp2155:
	callq	__ZN4core3fmt9Formatter11debug_tuple17h15ca25ad759edd1cE
Ltmp2156:
LBB101_3:
	.loc	30 0 0
	movq	%r14, %rdi
	callq	__ZN4core3fmt8builders10DebugTuple6finish17h68acf09c6f6593f2E
	.loc	30 151 53
	addq	$32, %rsp
	popq	%rbx
	popq	%r14
	popq	%rbp
	retq
Ltmp2157:
Lfunc_end101:
	.cfi_endproc

	.p2align	4, 0x90
__ZN66_$LT$core..option..Option$LT$T$GT$$u20$as$u20$core..fmt..Debug$GT$3fmt17ha96c835f4271ec32E:
Lfunc_begin102:
	.loc	30 151 0 is_stmt 1
	.cfi_startproc
	pushq	%rbp
	.cfi_def_cfa_offset 16
	.cfi_offset %rbp, -16
	movq	%rsp, %rbp
	.cfi_def_cfa_register %rbp
Ltmp2158:
	pushq	%r14
	pushq	%rbx
	subq	$32, %rsp
	.cfi_offset %rbx, -32
	.cfi_offset %r14, -24
	.loc	30 151 48 prologue_end
	cmpb	$1, (%rdi)
	jne	LBB102_2
Ltmp2159:
	.loc	30 0 48 is_stmt 0
	movq	%rdi, %rbx
Ltmp2160:
	.loc	30 160 56 is_stmt 1
	incq	%rbx
Ltmp2161:
	.loc	30 0 56 is_stmt 0
	leaq	-48(%rbp), %r14
Ltmp2162:
	.loc	30 151 48 is_stmt 1
	leaq	L___unnamed_52(%rip), %rdx
	movl	$4, %ecx
	movq	%r14, %rdi
	callq	__ZN4core3fmt9Formatter11debug_tuple17h15ca25ad759edd1cE
Ltmp2163:
	.loc	30 160 56
	movq	%rbx, -24(%rbp)
	.loc	30 151 48
	leaq	l___unnamed_13(%rip), %rdx
	leaq	-24(%rbp), %rsi
	movq	%r14, %rdi
	callq	__ZN4core3fmt8builders10DebugTuple5field17hf36121153a94f236E
	jmp	LBB102_3
Ltmp2164:
LBB102_2:
	.loc	30 0 48 is_stmt 0
	leaq	-48(%rbp), %r14
Ltmp2165:
	.loc	30 151 48
	leaq	L___unnamed_53(%rip), %rdx
	movl	$4, %ecx
	movq	%r14, %rdi
Ltmp2166:
	callq	__ZN4core3fmt9Formatter11debug_tuple17h15ca25ad759edd1cE
Ltmp2167:
LBB102_3:
	.loc	30 0 0
	movq	%r14, %rdi
	callq	__ZN4core3fmt8builders10DebugTuple6finish17h68acf09c6f6593f2E
	.loc	30 151 53
	addq	$32, %rsp
	popq	%rbx
	popq	%r14
	popq	%rbp
	retq
Ltmp2168:
Lfunc_end102:
	.cfi_endproc

	.section	__TEXT,__literal16,16byte_literals
	.p2align	4
LCPI103_0:
	.quad	1
	.quad	18
	.section	__TEXT,__text,regular,pure_instructions
	.p2align	4, 0x90
__ZN75_$LT$core..sync..atomic..AtomicPtr$LT$T$GT$$u20$as$u20$core..fmt..Debug$GT$3fmt17hbe864e2edf7fa720E:
Lfunc_begin103:
	.loc	6 2671 0 is_stmt 1
	.cfi_startproc
	pushq	%rbp
	.cfi_def_cfa_offset 16
	.cfi_offset %rbp, -16
	movq	%rsp, %rbp
	.cfi_def_cfa_register %rbp
	pushq	%r15
	pushq	%r14
	pushq	%rbx
	subq	$24, %rsp
	.cfi_offset %rbx, -40
	.cfi_offset %r14, -32
	.cfi_offset %r15, -24
	movq	%rsi, %rbx
Ltmp2169:
	.loc	6 2277 19 prologue_end
	movq	(%rdi), %r15
Ltmp2170:
	.loc	21 2067 25
	movups	(%rsi), %xmm0
Ltmp2171:
	.loc	21 0 25 is_stmt 0
	movaps	%xmm0, -48(%rbp)
Ltmp2172:
	.loc	21 2068 25 is_stmt 1
	movl	48(%rsi), %r14d
Ltmp2173:
	.loc	21 2074 12
	movq	%rsi, %rdi
Ltmp2174:
	callq	__ZN4core3fmt9Formatter9alternate17hd5ca56d2d01a1343E
	.loc	21 0 0 is_stmt 0
	movl	48(%rbx), %ecx
	.loc	21 2074 9
	testb	%al, %al
	je	LBB103_3
Ltmp2175:
	.loc	21 2075 13 is_stmt 1
	orl	$8, %ecx
	movl	%ecx, 48(%rbx)
Ltmp2176:
	.loc	30 189 25
	cmpq	$1, (%rbx)
Ltmp2177:
	.loc	21 2077 13
	je	LBB103_3
Ltmp2178:
	.loc	21 2078 17
	movaps	LCPI103_0(%rip), %xmm0
	movups	%xmm0, (%rbx)
Ltmp2179:
LBB103_3:
	.loc	21 2081 9
	orl	$4, %ecx
	movl	%ecx, 48(%rbx)
	.loc	21 2083 34
	movq	%r15, -32(%rbp)
	leaq	-32(%rbp), %rdi
	.loc	21 2083 19 is_stmt 0
	movq	%rbx, %rsi
	callq	__ZN4core3fmt3num55_$LT$impl$u20$core..fmt..LowerHex$u20$for$u20$usize$GT$3fmt17hbf7dc8c1d7fa021dE
Ltmp2180:
	.loc	21 0 19
	movaps	-48(%rbp), %xmm0
Ltmp2181:
	.loc	21 2085 9 is_stmt 1
	movups	%xmm0, (%rbx)
	.loc	21 2086 9
	movl	%r14d, 48(%rbx)
Ltmp2182:
	.loc	6 2673 6
	addq	$24, %rsp
	popq	%rbx
Ltmp2183:
	popq	%r14
Ltmp2184:
	popq	%r15
	popq	%rbp
	retq
Ltmp2185:
Lfunc_end103:
	.cfi_endproc

	.p2align	4, 0x90
__ZN82_$LT$std..sys_common..poison..PoisonError$LT$T$GT$$u20$as$u20$core..fmt..Debug$GT$3fmt17h5dc5662468feab18E:
Lfunc_begin104:
	.loc	60 137 0
	.cfi_startproc
	pushq	%rbp
	.cfi_def_cfa_offset 16
	.cfi_offset %rbp, -16
	movq	%rsp, %rbp
	.cfi_def_cfa_register %rbp
	movq	%rsi, %rdx
Ltmp2186:
	.loc	60 138 9 prologue_end
	leaq	l___unnamed_61(%rip), %rdi
Ltmp2187:
	movl	$25, %esi
	popq	%rbp
	jmp	__ZN40_$LT$str$u20$as$u20$core..fmt..Debug$GT$3fmt17h2760aab2290546fcE
Ltmp2188:
Lfunc_end104:
	.cfi_endproc

	.p2align	4, 0x90
__ZN91_$LT$std..panicking..begin_panic..PanicPayload$LT$A$GT$$u20$as$u20$core..panic..BoxMeUp$GT$3get17ha9d49914c464e6a5E:
Lfunc_begin105:
	.loc	55 430 0
	.cfi_startproc
	pushq	%rbp
	.cfi_def_cfa_offset 16
	.cfi_offset %rbp, -16
	movq	%rsp, %rbp
	.cfi_def_cfa_register %rbp
Ltmp2189:
	.loc	55 432 17 prologue_end
	cmpq	$0, (%rdi)
	je	LBB105_2
Ltmp2190:
	.loc	55 0 17 is_stmt 0
	movq	%rdi, %rax
Ltmp2191:
	.loc	55 435 10 is_stmt 1
	leaq	l___unnamed_14(%rip), %rdx
	popq	%rbp
	retq
Ltmp2192:
LBB105_2:
	.loc	55 433 25
	callq	__ZN3std7process5abort17h4dccaf05298ce780E
Ltmp2193:
Lfunc_end105:
	.cfi_endproc

	.p2align	4, 0x90
__ZN91_$LT$std..panicking..begin_panic..PanicPayload$LT$A$GT$$u20$as$u20$core..panic..BoxMeUp$GT$8take_box17hbe854fd7f5ee9c6bE:
Lfunc_begin106:
	.loc	55 417 0
	.cfi_startproc
	pushq	%rbp
	.cfi_def_cfa_offset 16
	.cfi_offset %rbp, -16
	movq	%rsp, %rbp
	.cfi_def_cfa_register %rbp
Ltmp2194:
	pushq	%r14
	pushq	%rbx
	.cfi_offset %rbx, -32
	.cfi_offset %r14, -24
Ltmp2195:
	.loc	13 2058 5 prologue_end
	movq	(%rdi), %rbx
Ltmp2196:
	movq	8(%rdi), %r14
Ltmp2197:
	.loc	13 2058 5 is_stmt 0
	movq	$0, (%rdi)
Ltmp2198:
	.loc	55 424 17 is_stmt 1
	testq	%rbx, %rbx
	je	LBB106_3
Ltmp2199:
	.loc	11 80 5
	movl	$16, %edi
Ltmp2200:
	movl	$8, %esi
	callq	___rust_alloc
Ltmp2201:
	.loc	11 269 9
	testq	%rax, %rax
	je	LBB106_4
Ltmp2202:
	.loc	14 174 13
	movq	%rbx, (%rax)
	movq	%r14, 8(%rax)
Ltmp2203:
	.file	67 "/rustc/a74d1862d4d87a56244958416fd05976c58ca1a8/src/libcore/ptr/unique.rs"
	.loc	67 108 6
	leaq	l___unnamed_14(%rip), %rdx
Ltmp2204:
	.loc	55 428 10
	popq	%rbx
Ltmp2205:
	popq	%r14
Ltmp2206:
	popq	%rbp
	retq
Ltmp2207:
LBB106_3:
	.loc	55 425 25
	callq	__ZN3std7process5abort17h4dccaf05298ce780E
Ltmp2208:
LBB106_4:
	.loc	11 270 19
	movl	$16, %edi
	movl	$8, %esi
	callq	__ZN5alloc5alloc18handle_alloc_error17hbc0ab0ed90816c07E
Ltmp2209:
Lfunc_end106:
	.cfi_endproc

	.globl	__ZN10rayon_core3job7JobFifo4push17h8a2b54249ebe3e02E
	.p2align	4, 0x90
__ZN10rayon_core3job7JobFifo4push17h8a2b54249ebe3e02E:
Lfunc_begin107:
	.file	68 "/Users/yingyuhang/.cargo/registry/src/github.com-1ecc6299db9ec823/rayon-core-1.7.1/src/job.rs"
	.loc	68 197 0
	.cfi_startproc
	pushq	%rbp
	.cfi_def_cfa_offset 16
	.cfi_offset %rbp, -16
	movq	%rsp, %rbp
	.cfi_def_cfa_register %rbp
	pushq	%rbx
	pushq	%rax
	.cfi_offset %rbx, -24
	movq	%rdi, %rbx
Ltmp2210:
	.loc	68 201 9 prologue_end
	callq	__ZN15crossbeam_queue9seg_queue17SegQueue$LT$T$GT$4push17hd08f94a2f2de2c3aE
Ltmp2211:
	.loc	68 55 6
	leaq	__ZN65_$LT$rayon_core..job..JobFifo$u20$as$u20$rayon_core..job..Job$GT$7execute17h35e89527b8676a71E(%rip), %rdx
Ltmp2212:
	.loc	68 203 6
	movq	%rbx, %rax
	addq	$8, %rsp
	popq	%rbx
Ltmp2213:
	popq	%rbp
	retq
Ltmp2214:
Lfunc_end107:
	.cfi_endproc

	.globl	__ZN65_$LT$rayon_core..job..JobFifo$u20$as$u20$rayon_core..job..Job$GT$7execute17h35e89527b8676a71E
	.p2align	4, 0x90
__ZN65_$LT$rayon_core..job..JobFifo$u20$as$u20$rayon_core..job..Job$GT$7execute17h35e89527b8676a71E:
Lfunc_begin108:
	.loc	68 207 0
	.cfi_startproc
	pushq	%rbp
	.cfi_def_cfa_offset 16
	.cfi_offset %rbp, -16
	movq	%rsp, %rbp
	.cfi_def_cfa_register %rbp
	subq	$16, %rsp
Ltmp2215:
	.loc	68 209 9 prologue_end
	callq	__ZN15crossbeam_queue9seg_queue17SegQueue$LT$T$GT$3pop17h5bc64606603130c6E
Ltmp2216:
	.loc	10 962 13
	testq	%rdx, %rdx
Ltmp2217:
	je	LBB108_1
Ltmp2218:
	.loc	68 59 9
	movq	%rax, %rdi
	addq	$16, %rsp
	popq	%rbp
	jmpq	*%rdx
Ltmp2219:
LBB108_1:
	.loc	10 963 23
	leaq	l___unnamed_62(%rip), %rdi
	leaq	l___unnamed_7(%rip), %rcx
	leaq	l___unnamed_63(%rip), %r8
	leaq	-8(%rbp), %rdx
Ltmp2220:
	movl	$17, %esi
	callq	__ZN4core6result13unwrap_failed17hb5a510096a5fc85fE
Ltmp2221:
Lfunc_end108:
	.cfi_endproc

	.globl	__ZN10rayon_core4join23join_recover_from_panic17haf7afae3a21b7425E
	.p2align	4, 0x90
__ZN10rayon_core4join23join_recover_from_panic17haf7afae3a21b7425E:
Lfunc_begin109:
	.file	69 "/Users/yingyuhang/.cargo/registry/src/github.com-1ecc6299db9ec823/rayon-core-1.7.1/src/join/mod.rs"
	.loc	69 194 0
	.cfi_startproc
	.cfi_personality 155, _rust_eh_personality
	.cfi_lsda 16, Lexception34
	pushq	%rbp
	.cfi_def_cfa_offset 16
	.cfi_offset %rbp, -16
	movq	%rsp, %rbp
	.cfi_def_cfa_register %rbp
	pushq	%r14
	pushq	%rbx
	subq	$112, %rsp
	.cfi_offset %rbx, -32
	.cfi_offset %r14, -24
	movq	%rsi, %rbx
Ltmp2231:
	movq	%rdi, %r14
Ltmp2232:
	movq	%rdx, -48(%rbp)
	movq	%rcx, -40(%rbp)
Ltmp2233:
	leaq	__ZN68_$LT$rayon_core..log..LOG_ENV$u20$as$u20$core..ops..deref..Deref$GT$5deref11__stability4LAZY17habd5d5654f13aaaeE(%rip), %rax
Ltmp2234:
	movq	%rax, -32(%rbp)
Ltmp2235:
	.loc	6 2275 20 prologue_end
	movq	__ZN68_$LT$rayon_core..log..LOG_ENV$u20$as$u20$core..ops..deref..Deref$GT$5deref11__stability4LAZY17habd5d5654f13aaaeE(%rip), %rax
Ltmp2236:
	.loc	44 373 9
	cmpq	$3, %rax
Ltmp2237:
	.loc	44 259 9
	je	LBB109_2
Ltmp2238:
	.loc	44 0 9 is_stmt 0
	leaq	-32(%rbp), %rax
Ltmp2239:
	.loc	44 263 21 is_stmt 1
	movq	%rax, -128(%rbp)
	leaq	-128(%rbp), %rax
Ltmp2240:
	.loc	44 264 37
	movq	%rax, -96(%rbp)
Ltmp2222:
	.loc	44 264 9 is_stmt 0
	leaq	__ZN68_$LT$rayon_core..log..LOG_ENV$u20$as$u20$core..ops..deref..Deref$GT$5deref11__stability4LAZY17habd5d5654f13aaaeE(%rip), %rdi
	leaq	l___unnamed_3(%rip), %rcx
	leaq	-96(%rbp), %rdx
	xorl	%esi, %esi
	callq	__ZN3std4sync4once4Once10call_inner17h78f35ea5a056ddbcE
Ltmp2223:
Ltmp2241:
LBB109_2:
	.loc	47 37 20 is_stmt 1
	movq	-32(%rbp), %rax
Ltmp2242:
	.loc	47 38 17
	movb	8(%rax), %al
Ltmp2243:
	cmpb	$2, %al
	jne	LBB109_5
Ltmp2244:
Ltmp2228:
	.loc	8 10 9
	leaq	l___unnamed_58(%rip), %rdi
	leaq	l___unnamed_59(%rip), %rdx
	movl	$66, %esi
	callq	__ZN4core9panicking5panic17h736ee47a631475c0E
Ltmp2229:
Ltmp2245:
	ud2
Ltmp2246:
LBB109_5:
	.loc	1 641 9
	testb	%al, %al
	je	LBB109_7
Ltmp2247:
	.loc	1 641 34 is_stmt 0
	movq	288(%r14), %rax
	.loc	1 641 14
	movq	%rax, -120(%rbp)
	movq	$10, -128(%rbp)
	leaq	-128(%rbp), %rax
Ltmp2248:
	.loc	1 641 9
	movq	%rax, -32(%rbp)
	leaq	__ZN59_$LT$rayon_core..log..Event$u20$as$u20$core..fmt..Debug$GT$3fmt17h1497d9961d96b8b5E(%rip), %rax
	movq	%rax, -24(%rbp)
Ltmp2249:
	.loc	21 328 9 is_stmt 1
	leaq	l___unnamed_57(%rip), %rax
Ltmp2250:
	movq	%rax, -96(%rbp)
	movq	$2, -88(%rbp)
	movq	$0, -80(%rbp)
	leaq	-32(%rbp), %rax
Ltmp2251:
	movq	%rax, -64(%rbp)
	movq	$1, -56(%rbp)
Ltmp2224:
	leaq	-96(%rbp), %rdi
Ltmp2252:
	.loc	1 641 9
	callq	__ZN3std2io5stdio7_eprint17h784168ce21d132cbE
Ltmp2225:
Ltmp2253:
LBB109_7:
	.loc	6 2277 19
	movb	(%rbx), %al
Ltmp2254:
	.loc	6 404 18
	testb	%al, %al
Ltmp2255:
	.loc	1 642 9
	jne	LBB109_9
Ltmp2256:
Ltmp2226:
	.loc	1 643 13
	movq	%r14, %rdi
	movq	%rbx, %rsi
	callq	__ZN10rayon_core8registry12WorkerThread15wait_until_cold17h7c7c1afa962ee824E
Ltmp2227:
Ltmp2257:
LBB109_9:
	.loc	69 200 30
	movq	-48(%rbp), %rdi
	movq	-40(%rbp), %rsi
	.loc	69 200 5 is_stmt 0
	callq	__ZN10rayon_core6unwind16resume_unwinding17h98a80b647bdc2ab5E
Ltmp2258:
LBB109_10:
Ltmp2230:
	.loc	69 0 5
	movq	%rax, %rbx
Ltmp2259:
	leaq	-48(%rbp), %rdi
	.loc	69 201 1 is_stmt 1
	callq	__ZN4core3ptr13drop_in_place17h1f7cfe3574865119E
	movq	%rbx, %rdi
	callq	__Unwind_Resume
	ud2
Ltmp2260:
Lfunc_end109:
	.cfi_endproc
	.section	__TEXT,__gcc_except_tab
	.p2align	2
GCC_except_table109:
Lexception34:
	.byte	255
	.byte	255
	.byte	1
	.uleb128 Lcst_end34-Lcst_begin34
Lcst_begin34:
	.uleb128 Ltmp2222-Lfunc_begin109
	.uleb128 Ltmp2227-Ltmp2222
	.uleb128 Ltmp2230-Lfunc_begin109
	.byte	0
	.uleb128 Ltmp2227-Lfunc_begin109
	.uleb128 Lfunc_end109-Ltmp2227
	.byte	0
	.byte	0
Lcst_end34:
	.p2align	2

	.section	__TEXT,__text,regular,pure_instructions
	.p2align	4, 0x90
__ZN10rayon_core5latch9LockLatch3new17h6d61510823da0903E:
Lfunc_begin110:
	.loc	63 81 0
	.cfi_startproc
	.cfi_personality 155, _rust_eh_personality
	.cfi_lsda 16, Lexception35
	pushq	%rbp
	.cfi_def_cfa_offset 16
	.cfi_offset %rbp, -16
	movq	%rsp, %rbp
	.cfi_def_cfa_register %rbp
	pushq	%r15
	pushq	%r14
	pushq	%r12
	pushq	%rbx
	subq	$32, %rsp
	.cfi_offset %rbx, -48
	.cfi_offset %r12, -40
	.cfi_offset %r14, -32
	.cfi_offset %r15, -24
	movq	%rdi, %r14
Ltmp2270:
	.loc	11 80 5 prologue_end
	movl	$64, %edi
	movl	$8, %esi
	callq	___rust_alloc
Ltmp2271:
	.loc	11 269 9
	testq	%rax, %rax
	je	LBB110_9
Ltmp2272:
	.loc	54 0 0 is_stmt 0
	movq	%rax, %rbx
Ltmp2261:
	.loc	54 169 24 is_stmt 1
	movq	%rax, %rdi
	callq	__ZN3std10sys_common5mutex5Mutex3new17h696650690b01d120E
Ltmp2262:
Ltmp2273:
	.loc	54 169 20 is_stmt 0
	movq	%rbx, -64(%rbp)
Ltmp2264:
	.loc	54 170 21 is_stmt 1
	callq	__ZN3std10sys_common6poison4Flag3new17h17da4b4837aefea3E
Ltmp2265:
Ltmp2274:
	.loc	54 0 0 is_stmt 0
	movl	%eax, %r15d
Ltmp2275:
	leaq	-64(%rbp), %r12
Ltmp2276:
	.loc	52 52 17 is_stmt 1
	movq	%r12, %rdi
	callq	_pthread_mutexattr_init
Ltmp2277:
	.loc	52 54 17
	movq	%r12, %rdi
	xorl	%esi, %esi
	callq	_pthread_mutexattr_settype
Ltmp2278:
	.loc	52 56 17
	movq	%rbx, %rdi
	movq	%r12, %rsi
	callq	_pthread_mutex_init
Ltmp2279:
	.loc	52 58 17
	movq	%r12, %rdi
	callq	_pthread_mutexattr_destroy
Ltmp2280:
	.loc	54 176 9
	movq	%rbx, -48(%rbp)
	movb	%r15b, -40(%rbp)
	movb	$0, -39(%rbp)
	movl	-64(%rbp), %eax
	movl	%eax, -38(%rbp)
	movzwl	-60(%rbp), %eax
	movw	%ax, -34(%rbp)
Ltmp2267:
	leaq	-64(%rbp), %rdi
Ltmp2281:
	.loc	63 84 16
	callq	__ZN3std4sync7condvar7Condvar3new17h39c8eb6d29db6bb5E
Ltmp2268:
Ltmp2282:
	.loc	63 82 9
	movq	-48(%rbp), %rax
	movq	-40(%rbp), %rcx
	movq	%rcx, 8(%r14)
	movq	%rax, (%r14)
	movq	-64(%rbp), %rax
	movq	-56(%rbp), %rcx
	movq	%rax, 16(%r14)
	movq	%rcx, 24(%r14)
	.loc	63 86 6
	addq	$32, %rsp
	popq	%rbx
	popq	%r12
	popq	%r14
	popq	%r15
	popq	%rbp
	retq
LBB110_9:
Ltmp2283:
	.loc	11 270 19
	movl	$64, %edi
	movl	$8, %esi
	callq	__ZN5alloc5alloc18handle_alloc_error17hbc0ab0ed90816c07E
Ltmp2284:
LBB110_7:
Ltmp2269:
	.loc	11 0 19 is_stmt 0
	movq	%rax, %r14
	leaq	-48(%rbp), %rdi
	.loc	63 85 9 is_stmt 1
	callq	__ZN4core3ptr13drop_in_place17h0a9527572733d941E
	movq	%r14, %rdi
	callq	__Unwind_Resume
	ud2
LBB110_6:
Ltmp2285:
Ltmp2266:
	.loc	63 0 9 is_stmt 0
	movq	%rax, %r14
	leaq	-64(%rbp), %rdi
Ltmp2286:
	.loc	54 172 9 is_stmt 1
	callq	__ZN4core3ptr13drop_in_place17haa2d3f733f3e8d5bE
	movq	%r14, %rdi
	callq	__Unwind_Resume
	ud2
Ltmp2287:
LBB110_5:
Ltmp2263:
	.loc	54 0 9 is_stmt 0
	movq	%rax, %r14
	.loc	54 169 40 is_stmt 1
	movq	%rbx, %rdi
	callq	__ZN5alloc5alloc8box_free17haaca6f5f1176212aE
	movq	%r14, %rdi
	callq	__Unwind_Resume
	ud2
Ltmp2288:
Lfunc_end110:
	.cfi_endproc
	.section	__TEXT,__gcc_except_tab
	.p2align	2
GCC_except_table110:
Lexception35:
	.byte	255
	.byte	255
	.byte	1
	.uleb128 Lcst_end35-Lcst_begin35
Lcst_begin35:
	.uleb128 Ltmp2261-Lfunc_begin110
	.uleb128 Ltmp2262-Ltmp2261
	.uleb128 Ltmp2263-Lfunc_begin110
	.byte	0
	.uleb128 Ltmp2264-Lfunc_begin110
	.uleb128 Ltmp2265-Ltmp2264
	.uleb128 Ltmp2266-Lfunc_begin110
	.byte	0
	.uleb128 Ltmp2267-Lfunc_begin110
	.uleb128 Ltmp2268-Ltmp2267
	.uleb128 Ltmp2269-Lfunc_begin110
	.byte	0
	.uleb128 Ltmp2268-Lfunc_begin110
	.uleb128 Lfunc_end110-Ltmp2268
	.byte	0
	.byte	0
Lcst_end35:
	.p2align	2

	.section	__TEXT,__text,regular,pure_instructions
	.globl	__ZN10rayon_core5latch9LockLatch14wait_and_reset17h7ffc6ab1e69c6af7E
	.p2align	4, 0x90
__ZN10rayon_core5latch9LockLatch14wait_and_reset17h7ffc6ab1e69c6af7E:
Lfunc_begin111:
	.loc	63 89 0
	.cfi_startproc
	.cfi_personality 155, _rust_eh_personality
	.cfi_lsda 16, Lexception36
	pushq	%rbp
	.cfi_def_cfa_offset 16
	.cfi_offset %rbp, -16
	movq	%rsp, %rbp
	.cfi_def_cfa_register %rbp
	pushq	%r15
	pushq	%r14
	pushq	%r13
	pushq	%r12
	pushq	%rbx
	subq	$24, %rsp
	.cfi_offset %rbx, -56
	.cfi_offset %r12, -48
	.cfi_offset %r13, -40
	.cfi_offset %r14, -32
	.cfi_offset %r15, -24
	movq	%rdi, %r12
Ltmp2300:
	.loc	54 219 13 prologue_end
	movq	(%rdi), %rdi
Ltmp2301:
	.loc	52 63 17
	callq	_pthread_mutex_lock
Ltmp2302:
	.loc	58 732 5
	callq	__ZN3std9panicking9panicking17h6f800ddc6c0d9b77E
	movl	%eax, %r14d
Ltmp2303:
	.loc	6 2276 20
	movb	8(%r12), %al
Ltmp2304:
	.loc	6 404 18
	testb	%al, %al
Ltmp2305:
	.loc	10 1004 13
	jne	LBB111_1
Ltmp2306:
	.loc	54 429 20
	leaq	9(%r12), %rax
Ltmp2307:
	.loc	63 91 16
	cmpb	$0, 9(%r12)
	.loc	63 91 9 is_stmt 0
	je	LBB111_6
Ltmp2308:
	.loc	63 94 9 is_stmt 1
	movb	$0, (%rax)
Ltmp2309:
	.loc	60 34 12
	testb	%r14b, %r14b
	jne	LBB111_17
Ltmp2310:
LBB111_15:
	.loc	58 732 5
	callq	__ZN3std9panicking9panicking17h6f800ddc6c0d9b77E
Ltmp2311:
	.loc	60 34 12
	testb	%al, %al
	je	LBB111_17
Ltmp2312:
	.loc	6 2265 20
	movb	$1, 8(%r12)
	jmp	LBB111_17
Ltmp2313:
LBB111_6:
	.loc	6 0 20 is_stmt 0
	movq	%rax, -64(%rbp)
Ltmp2314:
	leaq	16(%r12), %r15
Ltmp2315:
	.p2align	4, 0x90
LBB111_7:
	movq	%r12, -56(%rbp)
	movb	%r14b, -48(%rbp)
Ltmp2316:
	.loc	54 466 5 is_stmt 1
	movq	(%r12), %rbx
Ltmp2317:
Ltmp2292:
	.file	70 "/rustc/a74d1862d4d87a56244958416fd05976c58ca1a8/src/libstd/sync/condvar.rs"
	.loc	70 199 13
	movq	%r15, %rdi
	movq	%rbx, %rsi
	callq	__ZN3std4sync7condvar7Condvar6verify17h5d7bbe1888aa12e4E
Ltmp2293:
Ltmp2318:
	.loc	70 200 13
	movq	(%r15), %r13
Ltmp2294:
Ltmp2319:
	.file	71 "/rustc/a74d1862d4d87a56244958416fd05976c58ca1a8/src/libstd/sys_common/condvar.rs"
	.loc	71 50 21
	movq	%rbx, %rdi
	callq	__ZN3std10sys_common5mutex3raw17h911237b982bd2918E
Ltmp2295:
Ltmp2320:
	.file	72 "/rustc/a74d1862d4d87a56244958416fd05976c58ca1a8/src/libstd/sys/unix/condvar.rs"
	.loc	72 73 17
	movq	%r13, %rdi
	movq	%rax, %rsi
	callq	_pthread_cond_wait
Ltmp2321:
	.loc	6 2276 20
	movzbl	8(%r12), %eax
Ltmp2322:
	.loc	6 404 18
	testb	%al, %al
Ltmp2323:
	.loc	10 1004 13
	jne	LBB111_10
Ltmp2324:
	.loc	63 91 16
	cmpb	$0, 9(%r12)
	.loc	63 91 9 is_stmt 0
	je	LBB111_7
Ltmp2325:
	.loc	63 0 9
	movq	-64(%rbp), %rax
	.loc	63 94 9 is_stmt 1
	movb	$0, (%rax)
Ltmp2326:
	.loc	60 34 12
	testb	%r14b, %r14b
	je	LBB111_15
Ltmp2327:
LBB111_17:
	.loc	54 446 13
	movq	(%r12), %rdi
Ltmp2328:
	.loc	52 68 17
	addq	$24, %rsp
	popq	%rbx
	popq	%r12
Ltmp2329:
	popq	%r13
	popq	%r14
	popq	%r15
	popq	%rbp
	jmp	_pthread_mutex_unlock
Ltmp2330:
LBB111_10:
	.loc	10 1005 17
	movq	%r12, -56(%rbp)
	movb	%r14b, -48(%rbp)
Ltmp2297:
Ltmp2331:
	.loc	10 1005 23 is_stmt 0
	leaq	l___unnamed_64(%rip), %rdi
	leaq	l___unnamed_10(%rip), %rcx
	leaq	l___unnamed_65(%rip), %r8
	leaq	-56(%rbp), %rdx
	movl	$43, %esi
	callq	__ZN4core6result13unwrap_failed17hb5a510096a5fc85fE
Ltmp2298:
Ltmp2332:
LBB111_2:
	.loc	10 0 23
	ud2
Ltmp2333:
LBB111_1:
	.loc	10 1005 17
	movq	%r12, -56(%rbp)
	movb	%r14b, -48(%rbp)
Ltmp2289:
Ltmp2334:
	.loc	10 1005 23
	leaq	l___unnamed_64(%rip), %rdi
	leaq	l___unnamed_10(%rip), %rcx
	leaq	l___unnamed_66(%rip), %r8
	leaq	-56(%rbp), %rdx
	movl	$43, %esi
	callq	__ZN4core6result13unwrap_failed17hb5a510096a5fc85fE
Ltmp2290:
	jmp	LBB111_2
Ltmp2335:
LBB111_3:
Ltmp2291:
	.loc	10 0 23
	jmp	LBB111_4
Ltmp2336:
LBB111_11:
Ltmp2299:
LBB111_4:
	movq	%rax, %rbx
	leaq	-56(%rbp), %rdi
	callq	__ZN4core3ptr13drop_in_place17hd4a54eb49ef2155fE
	movq	%rbx, %rdi
	callq	__Unwind_Resume
	ud2
Ltmp2337:
LBB111_18:
Ltmp2296:
	movq	%rax, %rbx
Ltmp2338:
	leaq	-56(%rbp), %rdi
Ltmp2339:
	.loc	70 204 5 is_stmt 1
	callq	__ZN4core3ptr13drop_in_place17h356ba390c6bf7580E
	movq	%rbx, %rdi
	callq	__Unwind_Resume
	ud2
Ltmp2340:
Lfunc_end111:
	.cfi_endproc
	.section	__TEXT,__gcc_except_tab
	.p2align	2
GCC_except_table111:
Lexception36:
	.byte	255
	.byte	255
	.byte	1
	.uleb128 Lcst_end36-Lcst_begin36
Lcst_begin36:
	.uleb128 Lfunc_begin111-Lfunc_begin111
	.uleb128 Ltmp2292-Lfunc_begin111
	.byte	0
	.byte	0
	.uleb128 Ltmp2292-Lfunc_begin111
	.uleb128 Ltmp2295-Ltmp2292
	.uleb128 Ltmp2296-Lfunc_begin111
	.byte	0
	.uleb128 Ltmp2297-Lfunc_begin111
	.uleb128 Ltmp2298-Ltmp2297
	.uleb128 Ltmp2299-Lfunc_begin111
	.byte	0
	.uleb128 Ltmp2289-Lfunc_begin111
	.uleb128 Ltmp2290-Ltmp2289
	.uleb128 Ltmp2291-Lfunc_begin111
	.byte	0
	.uleb128 Ltmp2290-Lfunc_begin111
	.uleb128 Lfunc_end111-Ltmp2290
	.byte	0
	.byte	0
Lcst_end36:
	.p2align	2

	.section	__TEXT,__text,regular,pure_instructions
	.p2align	4, 0x90
__ZN73_$LT$rayon_core..latch..LockLatch$u20$as$u20$rayon_core..latch..Latch$GT$3set17h4e1691446e4f00e9E:
Lfunc_begin112:
	.loc	63 117 0
	.cfi_startproc
	.cfi_personality 155, _rust_eh_personality
	.cfi_lsda 16, Lexception37
	pushq	%rbp
	.cfi_def_cfa_offset 16
	.cfi_offset %rbp, -16
	movq	%rsp, %rbp
	.cfi_def_cfa_register %rbp
	pushq	%r14
	pushq	%rbx
	subq	$16, %rsp
	.cfi_offset %rbx, -32
	.cfi_offset %r14, -24
	movq	%rdi, %rbx
Ltmp2347:
	.loc	54 219 13 prologue_end
	movq	(%rdi), %rdi
Ltmp2348:
	.loc	52 63 17
	callq	_pthread_mutex_lock
Ltmp2349:
	.loc	58 732 5
	callq	__ZN3std9panicking9panicking17h6f800ddc6c0d9b77E
	movl	%eax, %r14d
Ltmp2350:
	.loc	6 2276 20
	movb	8(%rbx), %al
Ltmp2351:
	.loc	6 404 18
	testb	%al, %al
Ltmp2352:
	.loc	10 1004 13
	jne	LBB112_1
Ltmp2353:
	.loc	63 118 25
	movq	%rbx, -32(%rbp)
	movb	%r14b, -24(%rbp)
Ltmp2354:
	.loc	63 119 9
	movb	$1, 9(%rbx)
	.loc	63 120 9
	leaq	16(%rbx), %rdi
Ltmp2344:
	callq	__ZN3std4sync7condvar7Condvar10notify_all17h5fe572e6f77e52bdE
Ltmp2345:
Ltmp2355:
	.loc	60 34 12
	testb	%r14b, %r14b
	jne	LBB112_8
Ltmp2356:
	.loc	58 732 5
	callq	__ZN3std9panicking9panicking17h6f800ddc6c0d9b77E
Ltmp2357:
	.loc	60 34 12
	testb	%al, %al
	je	LBB112_8
Ltmp2358:
	.loc	6 2265 20
	movb	$1, 8(%rbx)
Ltmp2359:
LBB112_8:
	.loc	54 446 13
	movq	(%rbx), %rdi
Ltmp2360:
	.loc	52 68 17
	addq	$16, %rsp
	popq	%rbx
Ltmp2361:
	popq	%r14
	popq	%rbp
	jmp	_pthread_mutex_unlock
Ltmp2362:
LBB112_1:
	.loc	10 1005 17
	movq	%rbx, -32(%rbp)
	movb	%r14b, -24(%rbp)
Ltmp2341:
Ltmp2363:
	.loc	10 1005 23 is_stmt 0
	leaq	l___unnamed_64(%rip), %rdi
	leaq	l___unnamed_10(%rip), %rcx
	leaq	l___unnamed_67(%rip), %r8
	leaq	-32(%rbp), %rdx
	movl	$43, %esi
	callq	__ZN4core6result13unwrap_failed17hb5a510096a5fc85fE
Ltmp2342:
Ltmp2364:
	.loc	10 0 23
	ud2
Ltmp2365:
LBB112_3:
Ltmp2343:
	movq	%rax, %rbx
Ltmp2366:
	leaq	-32(%rbp), %rdi
	.loc	10 1005 87
	callq	__ZN4core3ptr13drop_in_place17hd4a54eb49ef2155fE
	movq	%rbx, %rdi
	callq	__Unwind_Resume
	ud2
Ltmp2367:
LBB112_9:
Ltmp2346:
	.loc	10 0 87
	movq	%rax, %rbx
Ltmp2368:
	leaq	-32(%rbp), %rdi
	.loc	63 121 5 is_stmt 1
	callq	__ZN4core3ptr13drop_in_place17h356ba390c6bf7580E
	movq	%rbx, %rdi
	callq	__Unwind_Resume
	ud2
Ltmp2369:
Lfunc_end112:
	.cfi_endproc
	.section	__TEXT,__gcc_except_tab
	.p2align	2
GCC_except_table112:
Lexception37:
	.byte	255
	.byte	255
	.byte	1
	.uleb128 Lcst_end37-Lcst_begin37
Lcst_begin37:
	.uleb128 Lfunc_begin112-Lfunc_begin112
	.uleb128 Ltmp2344-Lfunc_begin112
	.byte	0
	.byte	0
	.uleb128 Ltmp2344-Lfunc_begin112
	.uleb128 Ltmp2345-Ltmp2344
	.uleb128 Ltmp2346-Lfunc_begin112
	.byte	0
	.uleb128 Ltmp2345-Lfunc_begin112
	.uleb128 Ltmp2341-Ltmp2345
	.byte	0
	.byte	0
	.uleb128 Ltmp2341-Lfunc_begin112
	.uleb128 Ltmp2342-Ltmp2341
	.uleb128 Ltmp2343-Lfunc_begin112
	.byte	0
	.uleb128 Ltmp2342-Lfunc_begin112
	.uleb128 Lfunc_end112-Ltmp2342
	.byte	0
	.byte	0
Lcst_end37:
	.p2align	2

	.section	__TEXT,__text,regular,pure_instructions
	.globl	__ZN10rayon_core8registry13ThreadBuilder5index17h4b1aa71ded633fb8E
	.p2align	4, 0x90
__ZN10rayon_core8registry13ThreadBuilder5index17h4b1aa71ded633fb8E:
Lfunc_begin113:
	.loc	1 39 0
	.cfi_startproc
	pushq	%rbp
	.cfi_def_cfa_offset 16
	.cfi_offset %rbp, -16
	movq	%rsp, %rbp
	.cfi_def_cfa_register %rbp
Ltmp2370:
	.loc	1 40 9 prologue_end
	movq	80(%rdi), %rax
	.loc	1 41 6
	popq	%rbp
	retq
Ltmp2371:
Lfunc_end113:
	.cfi_endproc

	.globl	__ZN10rayon_core8registry13ThreadBuilder4name17hdc71120216972a3eE
	.p2align	4, 0x90
__ZN10rayon_core8registry13ThreadBuilder4name17hdc71120216972a3eE:
Lfunc_begin114:
	.loc	1 44 0
	.cfi_startproc
	pushq	%rbp
	.cfi_def_cfa_offset 16
	.cfi_offset %rbp, -16
	movq	%rsp, %rbp
	.cfi_def_cfa_register %rbp
Ltmp2372:
	.loc	30 270 13 prologue_end
	movq	(%rdi), %rax
	testq	%rax, %rax
	cmoveq	%rax, %rdi
Ltmp2373:
	.loc	30 458 13
	je	LBB114_1
Ltmp2374:
	.loc	22 814 19
	movq	(%rdi), %rax
Ltmp2375:
	.loc	22 1966 55
	movq	16(%rdi), %rdx
Ltmp2376:
	.loc	1 46 6
	popq	%rbp
	retq
Ltmp2377:
LBB114_1:
	.loc	1 0 6 is_stmt 0
	xorl	%eax, %eax
	.loc	1 46 6
	popq	%rbp
	retq
Ltmp2378:
Lfunc_end114:
	.cfi_endproc

	.globl	__ZN10rayon_core8registry13ThreadBuilder10stack_size17h929a9110938e9286E
	.p2align	4, 0x90
__ZN10rayon_core8registry13ThreadBuilder10stack_size17h929a9110938e9286E:
Lfunc_begin115:
	.loc	1 49 0 is_stmt 1
	.cfi_startproc
	pushq	%rbp
	.cfi_def_cfa_offset 16
	.cfi_offset %rbp, -16
	movq	%rsp, %rbp
	.cfi_def_cfa_register %rbp
Ltmp2379:
	.loc	1 50 9 prologue_end
	movq	24(%rdi), %rax
	movq	32(%rdi), %rdx
	.loc	1 51 6
	popq	%rbp
	retq
Ltmp2380:
Lfunc_end115:
	.cfi_endproc

	.globl	__ZN10rayon_core8registry13ThreadBuilder3run17h5aeab7e4636a9986E
	.p2align	4, 0x90
__ZN10rayon_core8registry13ThreadBuilder3run17h5aeab7e4636a9986E:
Lfunc_begin116:
	.loc	1 55 0
	.cfi_startproc
	.cfi_personality 155, _rust_eh_personality
	.cfi_lsda 16, Lexception38
	pushq	%rbp
	.cfi_def_cfa_offset 16
	.cfi_offset %rbp, -16
	movq	%rsp, %rbp
	.cfi_def_cfa_register %rbp
Ltmp2469:
	pushq	%r15
	pushq	%r14
	pushq	%r13
	pushq	%r12
	pushq	%rbx
	andq	$-128, %rsp
	subq	$896, %rsp
	.cfi_offset %rbx, -56
	.cfi_offset %r12, -48
	.cfi_offset %r13, -40
	.cfi_offset %r14, -32
	.cfi_offset %r15, -24
	.loc	1 56 41 prologue_end
	movq	72(%rdi), %r12
Ltmp2470:
	.loc	1 56 56 is_stmt 0
	movq	80(%rdi), %rax
Ltmp2471:
	.loc	1 0 56
	movq	%rax, 104(%rsp)
	movq	%r12, 56(%rsp)
Ltmp2472:
	.loc	1 736 9 is_stmt 1
	movq	64(%rdi), %rax
	movq	%rax, 88(%rsp)
	movq	56(%rdi), %rax
	movq	%rax, 80(%rsp)
	movq	40(%rdi), %rax
	movq	%rdi, 96(%rsp)
Ltmp2473:
	movq	48(%rdi), %rcx
	movq	%rcx, 72(%rsp)
	movq	%rax, 64(%rsp)
Ltmp2474:
	.loc	33 163 9
	xorps	%xmm0, %xmm0
	movaps	%xmm0, 128(%rsp)
	movaps	%xmm0, 256(%rsp)
	leaq	512(%rsp), %rdi
	leaq	128(%rsp), %r15
Ltmp2475:
	.loc	68 192 9
	movl	$256, %edx
	movq	%r15, %rsi
	callq	_memcpy
Ltmp2476:
	.loc	68 0 9 is_stmt 0
	xorl	%r13d, %r13d
	jmp	LBB116_1
Ltmp2477:
	.p2align	4, 0x90
LBB116_21:
	.file	73 "/rustc/a74d1862d4d87a56244958416fd05976c58ca1a8/src/libcore/hash/sip.rs"
	.loc	73 300 9 is_stmt 1
	movq	%rdi, 184(%rsp)
Ltmp2478:
LBB116_22:
	.loc	73 306 25
	movq	168(%rsp), %r14
Ltmp2479:
	.loc	73 308 22
	shlq	$56, %r8
	orq	%rdi, %r8
Ltmp2480:
	.loc	73 0 22 is_stmt 0
	movq	176(%rsp), %rax
	movq	152(%rsp), %rsi
Ltmp2481:
	.loc	7 3320 17 is_stmt 1
	addq	%r14, %rsi
Ltmp2482:
	.loc	7 2704 17
	rolq	$13, %r14
Ltmp2483:
	.loc	73 310 9
	xorq	%r8, %rax
Ltmp2484:
	.loc	73 85 35
	xorq	%rsi, %r14
Ltmp2485:
	.loc	7 2704 17
	rolq	$32, %rsi
Ltmp2486:
	.loc	7 0 17 is_stmt 0
	movq	160(%rsp), %rcx
Ltmp2487:
	.loc	7 3320 17 is_stmt 1
	addq	%rax, %rcx
Ltmp2488:
	.loc	7 2704 17
	rolq	$16, %rax
Ltmp2489:
	.loc	73 85 57
	xorq	%rcx, %rax
Ltmp2490:
	.loc	7 3320 17
	addq	%rax, %rsi
Ltmp2491:
	.loc	7 2704 17
	rolq	$21, %rax
Ltmp2492:
	.loc	7 3320 17
	addq	%r14, %rcx
Ltmp2493:
	.loc	7 2704 17
	rolq	$17, %r14
Ltmp2494:
	.loc	73 85 35
	xorq	%rsi, %rax
Ltmp2495:
	.loc	73 85 57 is_stmt 0
	xorq	%rcx, %r14
Ltmp2496:
	.loc	7 2704 17 is_stmt 1
	rolq	$32, %rcx
Ltmp2497:
	.loc	73 312 9
	xorq	%r8, %rsi
Ltmp2498:
	.loc	7 3320 17
	addq	%r14, %rsi
Ltmp2499:
	.loc	7 2704 17
	rolq	$13, %r14
Ltmp2500:
	.loc	73 85 35
	xorq	%rsi, %r14
Ltmp2501:
	.loc	7 2704 17
	rolq	$32, %rsi
Ltmp2502:
	.loc	73 314 9
	xorq	$255, %rcx
Ltmp2503:
	.loc	7 3320 17
	addq	%rax, %rcx
Ltmp2504:
	.loc	7 2704 17
	rolq	$16, %rax
Ltmp2505:
	.loc	73 85 57
	xorq	%rcx, %rax
Ltmp2506:
	.loc	7 3320 17
	addq	%rax, %rsi
Ltmp2507:
	.loc	7 2704 17
	rolq	$21, %rax
Ltmp2508:
	.loc	7 3320 17
	addq	%r14, %rcx
Ltmp2509:
	.loc	7 2704 17
	rolq	$17, %r14
Ltmp2510:
	.loc	73 85 57
	xorq	%rcx, %r14
Ltmp2511:
	.loc	7 2704 17
	rolq	$32, %rcx
Ltmp2512:
	.loc	73 85 35
	xorq	%rsi, %rax
Ltmp2513:
	.loc	7 3320 17
	addq	%r14, %rsi
Ltmp2514:
	.loc	7 2704 17
	rolq	$13, %r14
Ltmp2515:
	.loc	73 85 35
	xorq	%rsi, %r14
Ltmp2516:
	.loc	7 2704 17
	rolq	$32, %rsi
Ltmp2517:
	.loc	7 3320 17
	addq	%rax, %rcx
Ltmp2518:
	.loc	7 2704 17
	rolq	$16, %rax
Ltmp2519:
	.loc	73 85 57
	xorq	%rcx, %rax
Ltmp2520:
	.loc	7 3320 17
	addq	%rax, %rsi
Ltmp2521:
	.loc	7 2704 17
	rolq	$21, %rax
Ltmp2522:
	.loc	7 3320 17
	addq	%r14, %rcx
Ltmp2523:
	.loc	7 2704 17
	rolq	$17, %r14
Ltmp2524:
	.loc	73 85 57
	xorq	%rcx, %r14
Ltmp2525:
	.loc	7 2704 17
	rolq	$32, %rcx
Ltmp2526:
	.loc	73 85 35
	xorq	%rsi, %rax
Ltmp2527:
	.loc	7 3320 17
	addq	%r14, %rsi
Ltmp2528:
	.loc	7 2704 17
	rolq	$13, %r14
Ltmp2529:
	.loc	7 3320 17
	addq	%rax, %rcx
Ltmp2530:
	.loc	7 2704 17
	rolq	$16, %rax
Ltmp2531:
	.loc	73 85 35
	xorq	%rsi, %r14
Ltmp2532:
	.loc	73 85 57 is_stmt 0
	xorq	%rcx, %rax
Ltmp2533:
	.loc	7 2704 17 is_stmt 1
	rolq	$21, %rax
Ltmp2534:
	.loc	7 3320 17
	addq	%r14, %rcx
Ltmp2535:
	.loc	7 2704 17
	rolq	$17, %r14
Ltmp2536:
	.loc	73 317 9
	xorq	%rcx, %r14
Ltmp2537:
	.loc	7 2704 17
	rolq	$32, %rcx
Ltmp2538:
	.loc	73 85 35
	xorq	%rax, %r14
Ltmp2539:
	.loc	1 822 15
	xorq	%rcx, %r14
Ltmp2540:
	.loc	1 822 9 is_stmt 0
	jne	LBB116_23
Ltmp2541:
LBB116_1:
Ltmp2381:
	.loc	1 823 30 is_stmt 1
	movq	%r15, %rdi
	callq	__ZN3std11collections4hash3map13DefaultHasher3new17h8655795089820100E
Ltmp2382:
Ltmp2542:
	.loc	6 2303 20
	movl	$1, %ecx
	lock		xaddq	%rcx, __ZN10rayon_core8registry14XorShift64Star3new7COUNTER17h9a9c26903acfe66cE(%rip)
Ltmp2543:
	.file	74 "/rustc/a74d1862d4d87a56244958416fd05976c58ca1a8/src/libcore/hash/mod.rs"
	.loc	74 323 21
	movq	%rcx, 40(%rsp)
Ltmp2544:
	.loc	73 260 9
	movq	144(%rsp), %r8
Ltmp2545:
	.loc	73 264 12
	movq	192(%rsp), %rbx
Ltmp2546:
	.loc	73 260 9
	addq	$8, %r8
	movq	%r8, 144(%rsp)
Ltmp2547:
	.loc	73 264 12
	testq	%rbx, %rbx
	.loc	73 264 9 is_stmt 0
	je	LBB116_3
Ltmp2548:
	.loc	73 265 13 is_stmt 1
	movl	$8, %esi
	subq	%rbx, %rsi
Ltmp2549:
	.loc	35 951 9
	cmpq	$8, %rsi
	.loc	35 0 0 is_stmt 0
	movl	$8, %edx
	cmovbq	%rsi, %rdx
Ltmp2550:
	xorl	%eax, %eax
	cmpq	$3, %rdx
	seta	%al
Ltmp2551:
	.loc	73 132 5 is_stmt 1
	movl	%ecx, %edi
	cmovbeq	%r13, %rdi
Ltmp2552:
	.loc	73 136 8
	leaq	1(,%rax,4), %rcx
Ltmp2553:
	.loc	73 132 5
	shlq	$2, %rax
Ltmp2554:
	.loc	73 136 8
	cmpq	%rdx, %rcx
	.loc	73 136 5 is_stmt 0
	jae	LBB116_6
Ltmp2555:
	.loc	13 2058 5 is_stmt 1
	movzwl	40(%rsp,%rax), %r9d
Ltmp2556:
	.loc	73 137 62
	leal	(,%rax,8), %ecx
	.loc	73 137 16 is_stmt 0
	shlq	%cl, %r9
	.loc	73 137 9
	orq	%r9, %rdi
Ltmp2557:
	.loc	73 138 9 is_stmt 1
	orq	$2, %rax
Ltmp2558:
LBB116_6:
	.loc	73 140 8
	cmpq	%rdx, %rax
	.loc	73 140 5 is_stmt 0
	jae	LBB116_8
Ltmp2559:
	.loc	73 141 17 is_stmt 1
	movzbl	40(%rsp,%rax), %edx
Ltmp2560:
	.loc	73 141 58 is_stmt 0
	shll	$3, %eax
Ltmp2561:
	.loc	73 141 16
	movl	%eax, %ecx
	shlq	%cl, %rdx
	.loc	73 141 9
	orq	%rdx, %rdi
Ltmp2562:
LBB116_8:
	.loc	73 267 84 is_stmt 1
	leal	(,%rbx,8), %ecx
	.loc	73 267 26 is_stmt 0
	shlq	%cl, %rdi
	.loc	73 267 13
	orq	184(%rsp), %rdi
	movq	%rdi, 184(%rsp)
	.loc	73 268 16 is_stmt 1
	cmpq	$8, %rbx
	.loc	73 268 13 is_stmt 0
	ja	LBB116_22
Ltmp2563:
	.loc	73 0 13
	movq	176(%rsp), %rcx
	.loc	73 272 17 is_stmt 1
	xorq	%rdi, %rcx
Ltmp2564:
	.loc	73 85 46
	movq	168(%rsp), %rdx
Ltmp2565:
	.loc	73 0 46 is_stmt 0
	movq	152(%rsp), %rax
Ltmp2566:
	.loc	7 3320 17 is_stmt 1
	addq	%rdx, %rax
Ltmp2567:
	.loc	7 2704 17
	rolq	$13, %rdx
Ltmp2568:
	.loc	73 85 35
	xorq	%rax, %rdx
Ltmp2569:
	.loc	7 2704 17
	rolq	$32, %rax
Ltmp2570:
	.loc	7 0 17 is_stmt 0
	movq	160(%rsp), %rbx
Ltmp2571:
	.loc	7 3320 17 is_stmt 1
	addq	%rcx, %rbx
Ltmp2572:
	.loc	7 2704 17
	rolq	$16, %rcx
Ltmp2573:
	.loc	73 85 57
	xorq	%rbx, %rcx
Ltmp2574:
	.loc	7 3320 17
	addq	%rcx, %rax
Ltmp2575:
	.loc	7 2704 17
	rolq	$21, %rcx
Ltmp2576:
	.loc	73 85 35
	xorq	%rax, %rcx
	movq	%rcx, 176(%rsp)
Ltmp2577:
	.loc	7 3320 17
	addq	%rdx, %rbx
Ltmp2578:
	.loc	7 2704 17
	rolq	$17, %rdx
Ltmp2579:
	.loc	73 85 57
	xorq	%rbx, %rdx
	movq	%rdx, 168(%rsp)
Ltmp2580:
	.loc	7 2704 17
	rolq	$32, %rbx
Ltmp2581:
	.loc	73 100 9
	movq	%rbx, 160(%rsp)
Ltmp2582:
	.loc	73 274 17
	xorq	%rdi, %rax
	movq	%rax, 152(%rsp)
	.loc	73 275 17
	movq	$0, 192(%rsp)
	jmp	LBB116_10
Ltmp2583:
	.p2align	4, 0x90
LBB116_3:
	.loc	73 0 0 is_stmt 0
	xorl	%esi, %esi
Ltmp2584:
LBB116_10:
	.loc	73 280 19 is_stmt 1
	movl	$8, %r10d
	subq	%rsi, %r10
Ltmp2585:
	.loc	73 281 20
	movl	%r10d, %r9d
	andl	$7, %r9d
Ltmp2586:
	.loc	73 284 19
	subq	%r9, %r10
Ltmp2587:
	.loc	73 284 15 is_stmt 0
	cmpq	%r10, %rsi
	.loc	73 284 9
	jae	LBB116_14
Ltmp2588:
	.loc	73 290 13 is_stmt 1
	movq	176(%rsp), %rdx
Ltmp2589:
	.loc	73 85 35
	movq	152(%rsp), %rdi
	.loc	73 85 57 is_stmt 0
	movq	160(%rsp), %rcx
	.loc	73 85 46
	movq	168(%rsp), %rbx
Ltmp2590:
	.p2align	4, 0x90
LBB116_12:
	.loc	7 3320 17 is_stmt 1
	addq	%rbx, %rdi
Ltmp2591:
	.loc	7 2704 17
	rolq	$13, %rbx
Ltmp2592:
	.loc	13 2058 5
	movq	40(%rsp,%rsi), %rax
Ltmp2593:
	.loc	73 85 35
	xorq	%rdi, %rbx
Ltmp2594:
	.loc	7 2704 17
	rolq	$32, %rdi
Ltmp2595:
	.loc	73 290 13
	xorq	%rax, %rdx
Ltmp2596:
	.loc	7 3320 17
	addq	%rdx, %rcx
Ltmp2597:
	.loc	7 2704 17
	rolq	$16, %rdx
Ltmp2598:
	.loc	73 85 57
	xorq	%rcx, %rdx
Ltmp2599:
	.loc	7 3320 17
	addq	%rdx, %rdi
Ltmp2600:
	.loc	7 2704 17
	rolq	$21, %rdx
Ltmp2601:
	.loc	7 3320 17
	addq	%rbx, %rcx
Ltmp2602:
	.loc	7 2704 17
	rolq	$17, %rbx
Ltmp2603:
	.loc	73 85 57
	xorq	%rcx, %rbx
Ltmp2604:
	.loc	7 2704 17
	rolq	$32, %rcx
Ltmp2605:
	.loc	73 85 35
	xorq	%rdi, %rdx
Ltmp2606:
	.loc	73 292 13
	xorq	%rax, %rdi
	.loc	73 294 13
	addq	$8, %rsi
Ltmp2607:
	.loc	73 284 15
	cmpq	%r10, %rsi
	.loc	73 284 9 is_stmt 0
	jb	LBB116_12
Ltmp2608:
	.loc	73 290 13 is_stmt 1
	movq	%rdx, 176(%rsp)
Ltmp2609:
	.loc	73 85 35
	movq	%rdi, 152(%rsp)
	.loc	73 85 46 is_stmt 0
	movq	%rbx, 168(%rsp)
	.loc	73 85 57
	movq	%rcx, 160(%rsp)
Ltmp2610:
LBB116_14:
	.loc	73 132 8 is_stmt 1
	cmpq	$4, %r9
	.loc	73 132 5 is_stmt 0
	jb	LBB116_15
Ltmp2611:
	.loc	13 2058 5 is_stmt 1
	movl	40(%rsp,%rsi), %edi
Ltmp2612:
	.loc	13 0 5 is_stmt 0
	movl	$4, %eax
Ltmp2613:
	.loc	73 136 8 is_stmt 1
	movq	%rax, %rcx
	orq	$1, %rcx
	cmpq	%r9, %rcx
	.loc	73 136 5 is_stmt 0
	jb	LBB116_18
	jmp	LBB116_19
Ltmp2614:
	.p2align	4, 0x90
LBB116_15:
	.loc	73 0 0
	xorl	%edi, %edi
Ltmp2615:
	xorl	%eax, %eax
Ltmp2616:
	.loc	73 136 8
	movq	%rax, %rcx
	orq	$1, %rcx
	cmpq	%r9, %rcx
	.loc	73 136 5
	jae	LBB116_19
Ltmp2617:
LBB116_18:
	.loc	73 137 35 is_stmt 1
	leaq	(%rax,%rsi), %rcx
Ltmp2618:
	.loc	13 2058 5
	movzwl	40(%rsp,%rcx), %edx
Ltmp2619:
	.loc	73 137 62
	leal	(,%rax,8), %ecx
Ltmp2620:
	.loc	73 137 16 is_stmt 0
	shlq	%cl, %rdx
	.loc	73 137 9
	orq	%rdx, %rdi
Ltmp2621:
	.loc	73 138 9 is_stmt 1
	orq	$2, %rax
Ltmp2622:
LBB116_19:
	.loc	73 140 8
	cmpq	%r9, %rax
	.loc	73 140 5 is_stmt 0
	jae	LBB116_21
Ltmp2623:
	.loc	73 141 36 is_stmt 1
	addq	%rax, %rsi
Ltmp2624:
	.loc	73 141 17 is_stmt 0
	movzbl	40(%rsp,%rsi), %edx
	.loc	73 141 58
	shll	$3, %eax
Ltmp2625:
	.loc	73 141 16
	movl	%eax, %ecx
	shlq	%cl, %rdx
	.loc	73 141 9
	orq	%rdx, %rdi
Ltmp2626:
	.loc	73 0 9
	jmp	LBB116_21
Ltmp2627:
LBB116_23:
	.loc	6 2303 20 is_stmt 1
	lock		incq	(%r12)
Ltmp2628:
	.loc	31 1098 9
	jle	LBB116_30
Ltmp2629:
	.loc	1 735 26
	movq	88(%rsp), %rax
	movq	%rax, 408(%rsp)
	movq	80(%rsp), %rax
	movq	%rax, 400(%rsp)
	movq	64(%rsp), %rax
	movq	72(%rsp), %rcx
	movq	%rcx, 392(%rsp)
	movq	%rax, 384(%rsp)
	leaq	128(%rsp), %rbx
	leaq	512(%rsp), %rsi
	movl	$256, %edx
	movq	%rbx, %rdi
	callq	_memcpy
	movq	104(%rsp), %r13
	movq	%r13, 416(%rsp)
	movq	%r14, 424(%rsp)
	movq	%r12, 432(%rsp)
Ltmp2630:
	.loc	30 270 13
	movq	__ZN10rayon_core8registry19WORKER_THREAD_STATE7__getit5__KEY17hd2a9ef420c64abdcE@TLVP(%rip), %rdi
	callq	*(%rdi)
	cmpq	$1, (%rax)
	movq	96(%rsp), %r15
Ltmp2631:
	.loc	28 409 17
	jne	LBB116_25
Ltmp2632:
	.loc	25 432 18
	movq	__ZN10rayon_core8registry19WORKER_THREAD_STATE7__getit5__KEY17hd2a9ef420c64abdcE@TLVP(%rip), %rdi
	callq	*(%rdi)
	cmpq	$0, 8(%rax)
Ltmp2633:
	.loc	1 596 13
	je	LBB116_26
Ltmp2634:
Ltmp2386:
	leaq	l___unnamed_68(%rip), %rdi
	leaq	l___unnamed_69(%rip), %rdx
	movl	$35, %esi
	callq	__ZN3std9panicking11begin_panic17h5383990145059594E
Ltmp2387:
	jmp	LBB116_30
Ltmp2635:
LBB116_25:
	.loc	1 0 13 is_stmt 0
	movl	$1, %eax
Ltmp2636:
	.loc	13 2058 5 is_stmt 1
	movq	%rax, %xmm0
	movdqa	%xmm0, 112(%rsp)
	movq	__ZN10rayon_core8registry19WORKER_THREAD_STATE7__getit5__KEY17hd2a9ef420c64abdcE@TLVP(%rip), %rdi
	callq	*(%rdi)
	movaps	112(%rsp), %xmm0
	movups	%xmm0, (%rax)
Ltmp2637:
LBB116_26:
	.loc	13 2058 5 is_stmt 0
	movq	__ZN10rayon_core8registry19WORKER_THREAD_STATE7__getit5__KEY17hd2a9ef420c64abdcE@TLVP(%rip), %rdi
	callq	*(%rdi)
Ltmp2638:
	movq	%rbx, 8(%rax)
Ltmp2639:
	.loc	22 1966 55 is_stmt 1
	movq	400(%r12), %rsi
Ltmp2640:
	.loc	40 2872 10
	cmpq	%r13, %rsi
Ltmp2641:
	jbe	LBB116_27
Ltmp2642:
	.loc	40 2872 9 is_stmt 0
	leaq	(%r13,%r13,4), %r14
	shlq	$4, %r14
	movq	384(%r12), %rdi
	addq	%r14, %rdi
Ltmp2643:
Ltmp2390:
	.loc	1 745 5 is_stmt 1
	callq	__ZN73_$LT$rayon_core..latch..LockLatch$u20$as$u20$rayon_core..latch..Latch$GT$3set17h4e1691446e4f00e9E
Ltmp2644:
Ltmp2391:
	.loc	1 753 12
	movq	464(%r12), %rdi
	testq	%rdi, %rdi
	je	LBB116_44
Ltmp2645:
	.loc	6 2303 20
	lock		incq	(%r12)
Ltmp2646:
	.loc	31 1098 9
	jle	LBB116_30
Ltmp2647:
	.loc	1 754 24
	movq	%r12, 64(%rsp)
Ltmp2648:
	.loc	14 1048 28
	movq	472(%r12), %rax
Ltmp2393:
	.loc	14 1048 9 is_stmt 0
	movq	%r13, %rsi
	callq	*24(%rax)
Ltmp2394:
Ltmp2649:
	.loc	6 2314 20 is_stmt 1
	lock		decq	(%r12)
Ltmp2650:
	.loc	31 1346 9
	jne	LBB116_43
Ltmp2651:
LBB116_42:
	.loc	6 2563 24
	##MEMBARRIER
Ltmp2414:
	leaq	64(%rsp), %rdi
Ltmp2652:
	.loc	31 1381 13
	callq	__ZN5alloc4sync12Arc$LT$T$GT$9drop_slow17h00dcc58473909bd4E
Ltmp2415:
Ltmp2653:
LBB116_43:
	.loc	1 763 31
	movq	56(%rsp), %r12
Ltmp2654:
LBB116_44:
	.loc	1 0 31 is_stmt 0
	leaq	__ZN68_$LT$rayon_core..log..LOG_ENV$u20$as$u20$core..ops..deref..Deref$GT$5deref11__stability4LAZY17habd5d5654f13aaaeE(%rip), %rax
Ltmp2655:
	movq	%rax, 40(%rsp)
Ltmp2656:
	.loc	6 2275 20 is_stmt 1
	movq	__ZN68_$LT$rayon_core..log..LOG_ENV$u20$as$u20$core..ops..deref..Deref$GT$5deref11__stability4LAZY17habd5d5654f13aaaeE(%rip), %rax
Ltmp2657:
	.loc	44 373 9
	cmpq	$3, %rax
Ltmp2658:
	.loc	44 259 9
	je	LBB116_46
Ltmp2659:
	.loc	44 0 9 is_stmt 0
	leaq	40(%rsp), %rax
Ltmp2660:
	.loc	44 263 21 is_stmt 1
	movq	%rax, 64(%rsp)
	leaq	64(%rsp), %rax
Ltmp2661:
	.loc	44 264 37
	movq	%rax, 512(%rsp)
Ltmp2416:
	.loc	44 264 9 is_stmt 0
	leaq	__ZN68_$LT$rayon_core..log..LOG_ENV$u20$as$u20$core..ops..deref..Deref$GT$5deref11__stability4LAZY17habd5d5654f13aaaeE(%rip), %rdi
	leaq	l___unnamed_3(%rip), %rcx
	leaq	512(%rsp), %rdx
	xorl	%esi, %esi
	callq	__ZN3std4sync4once4Once10call_inner17h78f35ea5a056ddbcE
Ltmp2417:
Ltmp2662:
LBB116_46:
	.loc	47 37 20 is_stmt 1
	movq	40(%rsp), %rax
Ltmp2663:
	.loc	47 38 17
	movb	8(%rax), %al
Ltmp2664:
	cmpb	$2, %al
	je	LBB116_47
Ltmp2665:
	.loc	1 641 9
	testb	%al, %al
	je	LBB116_50
Ltmp2666:
	.loc	1 641 34 is_stmt 0
	movq	416(%rsp), %rax
	.loc	1 641 14
	movq	%rax, 72(%rsp)
	movq	$10, 64(%rsp)
	leaq	64(%rsp), %rax
Ltmp2667:
	.loc	1 641 9
	movq	%rax, 40(%rsp)
	leaq	__ZN59_$LT$rayon_core..log..Event$u20$as$u20$core..fmt..Debug$GT$3fmt17h1497d9961d96b8b5E(%rip), %rax
	movq	%rax, 48(%rsp)
Ltmp2668:
	.loc	21 328 9 is_stmt 1
	leaq	l___unnamed_57(%rip), %rax
Ltmp2669:
	movq	%rax, 512(%rsp)
	movq	$2, 520(%rsp)
	movq	$0, 528(%rsp)
	leaq	40(%rsp), %rax
Ltmp2670:
	movq	%rax, 544(%rsp)
	movq	$1, 552(%rsp)
Ltmp2418:
	leaq	512(%rsp), %rdi
Ltmp2671:
	.loc	1 641 9
	callq	__ZN3std2io5stdio7_eprint17h784168ce21d132cbE
Ltmp2419:
Ltmp2672:
LBB116_50:
	.loc	1 0 0 is_stmt 0
	addq	$496, %r12
Ltmp2673:
	.loc	6 2277 19 is_stmt 1
	movq	(%r12), %rax
Ltmp2674:
	.loc	63 153 9
	testq	%rax, %rax
Ltmp2675:
	.loc	1 642 9
	je	LBB116_52
Ltmp2676:
Ltmp2420:
	.loc	1 0 9 is_stmt 0
	leaq	128(%rsp), %rdi
	.loc	1 643 13 is_stmt 1
	movq	%r12, %rsi
	callq	__ZN10rayon_core8registry12WorkerThread15wait_until_cold17hb9f9665db725a3e1E
Ltmp2421:
Ltmp2677:
LBB116_52:
Ltmp2422:
	.loc	1 0 13 is_stmt 0
	leaq	128(%rsp), %rdi
	.loc	1 766 19 is_stmt 1
	callq	__ZN10rayon_core8registry12WorkerThread14take_local_job17he9e0d1e539a98853E
Ltmp2423:
Ltmp2678:
	.loc	30 189 25
	testq	%rdx, %rdx
Ltmp2679:
	.loc	1 766 5
	jne	LBB116_54
Ltmp2680:
	.loc	1 769 5
	movq	56(%rsp), %rbx
Ltmp2681:
	.loc	22 1966 55
	movq	400(%rbx), %rsi
Ltmp2682:
	.loc	40 2872 10
	cmpq	%r13, %rsi
	jbe	LBB116_56
Ltmp2683:
	.loc	22 814 19
	movq	384(%rbx), %rax
Ltmp2684:
	.loc	1 769 5
	leaq	32(%rax,%r14), %rdi
Ltmp2428:
	callq	__ZN73_$LT$rayon_core..latch..LockLatch$u20$as$u20$rayon_core..latch..Latch$GT$3set17h4e1691446e4f00e9E
Ltmp2685:
Ltmp2429:
	.loc	1 775 12
	movq	480(%rbx), %rdi
	testq	%rdi, %rdi
	je	LBB116_70
Ltmp2686:
	.loc	6 2303 20
	lock		incq	(%rbx)
Ltmp2687:
	.loc	31 1098 9
	jle	LBB116_30
Ltmp2688:
	.loc	1 776 24
	movq	%rbx, 64(%rsp)
Ltmp2689:
	.loc	14 1048 28
	movq	488(%rbx), %rax
Ltmp2430:
	.loc	14 1048 9 is_stmt 0
	movq	%r13, %rsi
	callq	*24(%rax)
Ltmp2431:
Ltmp2690:
	.loc	6 2314 20 is_stmt 1
	lock		decq	(%rbx)
Ltmp2691:
	.loc	31 1346 9
	jne	LBB116_70
Ltmp2692:
LBB116_69:
	.loc	6 2563 24
	##MEMBARRIER
Ltmp2451:
	leaq	64(%rsp), %rdi
Ltmp2693:
	.loc	31 1381 13
	callq	__ZN5alloc4sync12Arc$LT$T$GT$9drop_slow17h00dcc58473909bd4E
Ltmp2452:
Ltmp2694:
LBB116_70:
Ltmp2456:
	.loc	31 0 13 is_stmt 0
	leaq	128(%rsp), %rdi
	.loc	1 785 1 is_stmt 1
	callq	__ZN4core3ptr13drop_in_place17h240afd30abda375cE
Ltmp2457:
Ltmp2695:
	.loc	31 1346 12
	movq	56(%rsp), %rax
Ltmp2696:
	.loc	6 2314 20
	lock		decq	(%rax)
Ltmp2697:
	.loc	31 1346 9
	jne	LBB116_73
Ltmp2698:
	.loc	6 2563 24
	##MEMBARRIER
Ltmp2461:
	leaq	56(%rsp), %rdi
Ltmp2699:
	.loc	31 1381 13
	callq	__ZN5alloc4sync12Arc$LT$T$GT$9drop_slow17h00dcc58473909bd4E
Ltmp2462:
Ltmp2700:
LBB116_73:
	.loc	23 178 1
	movq	(%r15), %rdi
Ltmp2701:
	testq	%rdi, %rdi
	je	LBB116_76
Ltmp2702:
	.loc	23 178 1 is_stmt 0
	movq	8(%r15), %rsi
Ltmp2703:
	.loc	18 200 40 is_stmt 1
	testq	%rsi, %rsi
	.loc	18 200 9 is_stmt 0
	je	LBB116_76
Ltmp2704:
	.loc	11 102 5 is_stmt 1
	movl	$1, %edx
	callq	___rust_dealloc
Ltmp2705:
LBB116_76:
	.loc	1 57 6
	leaq	-40(%rbp), %rsp
Ltmp2706:
	popq	%rbx
	popq	%r12
	popq	%r13
	popq	%r14
	popq	%r15
	popq	%rbp
	retq
LBB116_27:
Ltmp2707:
Ltmp2388:
	.loc	40 2872 10
	leaq	l___unnamed_70(%rip), %rdx
	movq	%r13, %rdi
	callq	__ZN4core9panicking18panic_bounds_check17habe69d236c55e3edE
Ltmp2708:
Ltmp2389:
	.loc	40 0 10 is_stmt 0
	jmp	LBB116_30
Ltmp2709:
LBB116_47:
Ltmp2463:
	.loc	8 10 9 is_stmt 1
	leaq	l___unnamed_58(%rip), %rdi
	leaq	l___unnamed_59(%rip), %rdx
	movl	$66, %esi
	callq	__ZN4core9panicking5panic17h736ee47a631475c0E
Ltmp2464:
	jmp	LBB116_30
Ltmp2710:
LBB116_54:
Ltmp2424:
	.loc	1 766 5
	leaq	l___unnamed_71(%rip), %rdi
	leaq	l___unnamed_72(%rip), %rdx
	movl	$58, %esi
	callq	__ZN3std9panicking11begin_panic17h5383990145059594E
Ltmp2425:
	jmp	LBB116_30
Ltmp2711:
LBB116_56:
Ltmp2426:
	.loc	40 2872 10
	leaq	l___unnamed_73(%rip), %rdx
	movq	%r13, %rdi
	callq	__ZN4core9panicking18panic_bounds_check17habe69d236c55e3edE
Ltmp2712:
Ltmp2427:
	.loc	40 0 10 is_stmt 0
	jmp	LBB116_30
Ltmp2713:
LBB116_91:
Ltmp2453:
	jmp	LBB116_83
Ltmp2714:
LBB116_61:
Ltmp2432:
Ltmp2433:
	.loc	55 309 23 is_stmt 1
	movq	%rax, %rdi
	callq	__ZN3std9panicking3try7cleanup17hd895f7beef0a7dadE
Ltmp2434:
Ltmp2715:
	.loc	55 0 23 is_stmt 0
	movq	%rax, 512(%rsp)
	movq	%rdx, 520(%rsp)
Ltmp2716:
	.loc	1 320 13 is_stmt 1
	movq	448(%rbx), %rdi
	testq	%rdi, %rdi
	je	LBB116_63
Ltmp2717:
	.loc	14 1048 28
	movq	456(%rbx), %rcx
Ltmp2438:
	.loc	14 1048 9 is_stmt 0
	movq	%rax, %rsi
	callq	*24(%rcx)
Ltmp2718:
Ltmp2439:
	.loc	14 0 9
	movq	96(%rsp), %r15
Ltmp2719:
	.loc	6 2314 20 is_stmt 1
	lock		decq	(%rbx)
Ltmp2720:
	.loc	31 1346 9
	je	LBB116_69
	jmp	LBB116_70
Ltmp2721:
LBB116_63:
Ltmp2443:
	.loc	23 178 1
	callq	__ZN74_$LT$rayon_core..unwind..AbortIfPanic$u20$as$u20$core..ops..drop..Drop$GT$4drop17h58529d1f0f406540E
Ltmp2444:
	jmp	LBB116_30
Ltmp2722:
LBB116_64:
Ltmp2445:
	.loc	23 0 1 is_stmt 0
	movq	%rax, %rbx
Ltmp2723:
Ltmp2446:
	leaq	512(%rsp), %rdi
	.loc	1 332 5 is_stmt 1
	callq	__ZN4core3ptr13drop_in_place17h1f7cfe3574865119E
Ltmp2447:
	jmp	LBB116_90
Ltmp2724:
LBB116_65:
Ltmp2440:
Ltmp2441:
	.loc	1 326 13
	callq	__ZN4core3ptr13drop_in_place17h54120c2d5f0cc5a6E
Ltmp2442:
	jmp	LBB116_30
Ltmp2725:
LBB116_89:
Ltmp2448:
	.loc	1 0 13 is_stmt 0
	movq	%rax, %rbx
Ltmp2726:
LBB116_90:
Ltmp2449:
	leaq	64(%rsp), %rdi
	.loc	1 784 5 is_stmt 1
	callq	__ZN4core3ptr13drop_in_place17h5f47feac0291afb9E
Ltmp2450:
	jmp	LBB116_84
Ltmp2727:
LBB116_88:
Ltmp2435:
	.loc	1 0 5 is_stmt 0
	movq	%rax, %rbx
Ltmp2728:
Ltmp2436:
	leaq	64(%rsp), %rdi
	.loc	1 784 5
	callq	__ZN4core3ptr13drop_in_place17h5f47feac0291afb9E
Ltmp2437:
	jmp	LBB116_84
Ltmp2729:
LBB116_35:
Ltmp2395:
Ltmp2396:
	.loc	55 309 23 is_stmt 1
	movq	%rax, %rdi
	callq	__ZN3std9panicking3try7cleanup17hd895f7beef0a7dadE
Ltmp2397:
Ltmp2730:
	.loc	55 0 23 is_stmt 0
	movq	%rax, 512(%rsp)
	movq	%rdx, 520(%rsp)
Ltmp2731:
	.loc	1 320 13 is_stmt 1
	movq	448(%r12), %rdi
	testq	%rdi, %rdi
	je	LBB116_37
Ltmp2732:
	.loc	14 1048 28
	movq	456(%r12), %rcx
Ltmp2401:
	.loc	14 1048 9 is_stmt 0
	movq	%rax, %rsi
	callq	*24(%rcx)
Ltmp2733:
Ltmp2402:
	.loc	14 0 9
	movq	96(%rsp), %r15
	movq	104(%rsp), %r13
Ltmp2734:
	.loc	6 2314 20 is_stmt 1
	lock		decq	(%r12)
Ltmp2735:
	.loc	31 1346 9
	je	LBB116_42
	jmp	LBB116_43
Ltmp2736:
LBB116_37:
Ltmp2406:
	.loc	23 178 1
	callq	__ZN74_$LT$rayon_core..unwind..AbortIfPanic$u20$as$u20$core..ops..drop..Drop$GT$4drop17h58529d1f0f406540E
Ltmp2407:
	jmp	LBB116_30
Ltmp2737:
LBB116_77:
Ltmp2408:
Ltmp2409:
	.loc	23 0 1 is_stmt 0
	leaq	512(%rsp), %rdi
	.loc	1 332 5 is_stmt 1
	callq	__ZN4core3ptr13drop_in_place17h1f7cfe3574865119E
Ltmp2410:
	jmp	LBB116_78
Ltmp2738:
LBB116_38:
Ltmp2403:
Ltmp2404:
	.loc	1 326 13
	callq	__ZN4core3ptr13drop_in_place17h54120c2d5f0cc5a6E
Ltmp2405:
	jmp	LBB116_30
Ltmp2739:
LBB116_86:
Ltmp2411:
LBB116_78:
Ltmp2412:
	.loc	1 0 13 is_stmt 0
	leaq	64(%rsp), %rdi
	.loc	1 761 5 is_stmt 1
	callq	__ZN4core3ptr13drop_in_place17h5f47feac0291afb9E
Ltmp2413:
	jmp	LBB116_79
Ltmp2740:
LBB116_85:
Ltmp2398:
Ltmp2399:
	.loc	1 0 5 is_stmt 0
	leaq	64(%rsp), %rdi
	.loc	1 761 5
	callq	__ZN4core3ptr13drop_in_place17h5f47feac0291afb9E
Ltmp2400:
	jmp	LBB116_79
Ltmp2741:
LBB116_92:
Ltmp2458:
	.loc	1 0 5
	movq	%rax, %rbx
	jmp	LBB116_81
Ltmp2742:
LBB116_82:
Ltmp2392:
LBB116_83:
	movq	%rax, %rbx
Ltmp2743:
LBB116_84:
Ltmp2454:
	leaq	128(%rsp), %rdi
	.loc	1 785 1 is_stmt 1
	callq	__ZN4core3ptr13drop_in_place17h240afd30abda375cE
Ltmp2455:
	jmp	LBB116_81
Ltmp2744:
LBB116_87:
Ltmp2465:
LBB116_79:
Ltmp2466:
	.loc	1 785 1 is_stmt 0
	callq	__ZN4core3ptr13drop_in_place17h54120c2d5f0cc5a6E
Ltmp2467:
Ltmp2745:
LBB116_30:
	.loc	1 0 1
	ud2
Ltmp2746:
LBB116_80:
Ltmp2383:
	movq	%rax, %rbx
	leaq	512(%rsp), %rdi
	.loc	1 741 5 is_stmt 1
	callq	__ZN4core3ptr13drop_in_place17h3e544bbe91cef879E
Ltmp2384:
	leaq	64(%rsp), %rdi
	callq	__ZN4core3ptr13drop_in_place17hb0944cad61188ce1E
Ltmp2385:
Ltmp2747:
LBB116_81:
Ltmp2459:
	.loc	1 0 5 is_stmt 0
	leaq	56(%rsp), %rdi
	.loc	1 785 1 is_stmt 1
	callq	__ZN4core3ptr13drop_in_place17h5f47feac0291afb9E
Ltmp2460:
Ltmp2748:
LBB116_94:
	.loc	1 0 1 is_stmt 0
	movq	96(%rsp), %rdi
	.loc	1 57 5 is_stmt 1
	callq	__ZN4core3ptr13drop_in_place17he3c8305c7c79909fE
	movq	%rbx, %rdi
	callq	__Unwind_Resume
	ud2
Ltmp2749:
LBB116_93:
Ltmp2468:
	.loc	1 0 5 is_stmt 0
	movq	%rax, %rbx
	jmp	LBB116_94
Lfunc_end116:
	.cfi_endproc
	.file	75 "/rustc/a74d1862d4d87a56244958416fd05976c58ca1a8/src/libstd/collections/hash/map.rs"
	.file	76 "/Users/yingyuhang/.cargo/registry/src/github.com-1ecc6299db9ec823/rayon-core-1.7.1/src/unwind.rs"
	.section	__TEXT,__gcc_except_tab
	.p2align	2
GCC_except_table116:
Lexception38:
	.byte	255
	.byte	155
	.uleb128 Lttbase1-Lttbaseref1
Lttbaseref1:
	.byte	1
	.uleb128 Lcst_end38-Lcst_begin38
Lcst_begin38:
	.uleb128 Lfunc_begin116-Lfunc_begin116
	.uleb128 Ltmp2381-Lfunc_begin116
	.byte	0
	.byte	0
	.uleb128 Ltmp2381-Lfunc_begin116
	.uleb128 Ltmp2382-Ltmp2381
	.uleb128 Ltmp2383-Lfunc_begin116
	.byte	0
	.uleb128 Ltmp2382-Lfunc_begin116
	.uleb128 Ltmp2386-Ltmp2382
	.byte	0
	.byte	0
	.uleb128 Ltmp2386-Lfunc_begin116
	.uleb128 Ltmp2387-Ltmp2386
	.uleb128 Ltmp2392-Lfunc_begin116
	.byte	0
	.uleb128 Ltmp2387-Lfunc_begin116
	.uleb128 Ltmp2390-Ltmp2387
	.byte	0
	.byte	0
	.uleb128 Ltmp2390-Lfunc_begin116
	.uleb128 Ltmp2391-Ltmp2390
	.uleb128 Ltmp2392-Lfunc_begin116
	.byte	0
	.uleb128 Ltmp2393-Lfunc_begin116
	.uleb128 Ltmp2394-Ltmp2393
	.uleb128 Ltmp2395-Lfunc_begin116
	.byte	3
	.uleb128 Ltmp2414-Lfunc_begin116
	.uleb128 Ltmp2429-Ltmp2414
	.uleb128 Ltmp2465-Lfunc_begin116
	.byte	0
	.uleb128 Ltmp2430-Lfunc_begin116
	.uleb128 Ltmp2431-Ltmp2430
	.uleb128 Ltmp2432-Lfunc_begin116
	.byte	3
	.uleb128 Ltmp2451-Lfunc_begin116
	.uleb128 Ltmp2452-Ltmp2451
	.uleb128 Ltmp2453-Lfunc_begin116
	.byte	0
	.uleb128 Ltmp2456-Lfunc_begin116
	.uleb128 Ltmp2457-Ltmp2456
	.uleb128 Ltmp2458-Lfunc_begin116
	.byte	0
	.uleb128 Ltmp2461-Lfunc_begin116
	.uleb128 Ltmp2462-Ltmp2461
	.uleb128 Ltmp2468-Lfunc_begin116
	.byte	0
	.uleb128 Ltmp2388-Lfunc_begin116
	.uleb128 Ltmp2389-Ltmp2388
	.uleb128 Ltmp2392-Lfunc_begin116
	.byte	0
	.uleb128 Ltmp2463-Lfunc_begin116
	.uleb128 Ltmp2427-Ltmp2463
	.uleb128 Ltmp2465-Lfunc_begin116
	.byte	0
	.uleb128 Ltmp2433-Lfunc_begin116
	.uleb128 Ltmp2434-Ltmp2433
	.uleb128 Ltmp2435-Lfunc_begin116
	.byte	0
	.uleb128 Ltmp2438-Lfunc_begin116
	.uleb128 Ltmp2439-Ltmp2438
	.uleb128 Ltmp2440-Lfunc_begin116
	.byte	0
	.uleb128 Ltmp2443-Lfunc_begin116
	.uleb128 Ltmp2444-Ltmp2443
	.uleb128 Ltmp2445-Lfunc_begin116
	.byte	0
	.uleb128 Ltmp2446-Lfunc_begin116
	.uleb128 Ltmp2442-Ltmp2446
	.uleb128 Ltmp2448-Lfunc_begin116
	.byte	0
	.uleb128 Ltmp2449-Lfunc_begin116
	.uleb128 Ltmp2437-Ltmp2449
	.uleb128 Ltmp2468-Lfunc_begin116
	.byte	0
	.uleb128 Ltmp2396-Lfunc_begin116
	.uleb128 Ltmp2397-Ltmp2396
	.uleb128 Ltmp2398-Lfunc_begin116
	.byte	0
	.uleb128 Ltmp2401-Lfunc_begin116
	.uleb128 Ltmp2402-Ltmp2401
	.uleb128 Ltmp2403-Lfunc_begin116
	.byte	0
	.uleb128 Ltmp2406-Lfunc_begin116
	.uleb128 Ltmp2407-Ltmp2406
	.uleb128 Ltmp2408-Lfunc_begin116
	.byte	0
	.uleb128 Ltmp2409-Lfunc_begin116
	.uleb128 Ltmp2405-Ltmp2409
	.uleb128 Ltmp2411-Lfunc_begin116
	.byte	0
	.uleb128 Ltmp2412-Lfunc_begin116
	.uleb128 Ltmp2460-Ltmp2412
	.uleb128 Ltmp2468-Lfunc_begin116
	.byte	0
	.uleb128 Ltmp2460-Lfunc_begin116
	.uleb128 Lfunc_end116-Ltmp2460
	.byte	0
	.byte	0
Lcst_end38:
	.byte	0
	.byte	0
	.byte	1
	.byte	125
	.p2align	2
	.long	0
Lttbase1:
	.p2align	2

	.section	__TEXT,__text,regular,pure_instructions
	.globl	__ZN72_$LT$rayon_core..registry..ThreadBuilder$u20$as$u20$core..fmt..Debug$GT$3fmt17hab5dd57ef6d375d0E
	.p2align	4, 0x90
__ZN72_$LT$rayon_core..registry..ThreadBuilder$u20$as$u20$core..fmt..Debug$GT$3fmt17hab5dd57ef6d375d0E:
Lfunc_begin117:
	.loc	1 61 0 is_stmt 1
	.cfi_startproc
	pushq	%rbp
	.cfi_def_cfa_offset 16
	.cfi_offset %rbp, -16
	movq	%rsp, %rbp
	.cfi_def_cfa_register %rbp
	pushq	%r14
	pushq	%rbx
	subq	$32, %rsp
	.cfi_offset %rbx, -32
	.cfi_offset %r14, -24
	movq	%rdi, %rbx
Ltmp2750:
	.loc	1 62 9 prologue_end
	leaq	l___unnamed_74(%rip), %rdx
	leaq	-40(%rbp), %r14
	movl	$13, %ecx
	movq	%r14, %rdi
	callq	__ZN4core3fmt9Formatter12debug_struct17h985c0158d1fc7193E
Ltmp2751:
	.loc	1 63 29
	movq	72(%rbx), %rax
Ltmp2752:
	.loc	31 1114 9
	subq	$-128, %rax
Ltmp2753:
	.loc	1 63 29
	movq	%rax, -24(%rbp)
	.loc	1 62 9
	leaq	L___unnamed_75(%rip), %rsi
	leaq	l___unnamed_15(%rip), %r8
	leaq	-24(%rbp), %rcx
	movl	$4, %edx
	movq	%r14, %rdi
	callq	__ZN4core3fmt8builders11DebugStruct5field17h9c15dc155278eed2E
Ltmp2754:
	.loc	1 64 29
	leaq	80(%rbx), %rcx
	.loc	1 62 9
	leaq	l___unnamed_76(%rip), %rsi
	leaq	l___unnamed_16(%rip), %r8
	movl	$5, %edx
	movq	%rax, %rdi
	callq	__ZN4core3fmt8builders11DebugStruct5field17h9c15dc155278eed2E
	leaq	L___unnamed_77(%rip), %rsi
	leaq	l___unnamed_17(%rip), %r8
	movl	$4, %edx
	movq	%rax, %rdi
	movq	%rbx, %rcx
	callq	__ZN4core3fmt8builders11DebugStruct5field17h9c15dc155278eed2E
	.loc	1 66 34
	leaq	24(%rbx), %rcx
	.loc	1 62 9
	leaq	l___unnamed_78(%rip), %rsi
	leaq	l___unnamed_18(%rip), %r8
	movl	$10, %edx
	movq	%rax, %rdi
	callq	__ZN4core3fmt8builders11DebugStruct5field17h9c15dc155278eed2E
	movq	%rax, %rdi
	callq	__ZN4core3fmt8builders11DebugStruct6finish17h26808393f3fed630E
	.loc	1 68 6
	addq	$32, %rsp
	popq	%rbx
Ltmp2755:
	popq	%r14
	popq	%rbp
	retq
Ltmp2756:
Lfunc_end117:
	.cfi_endproc

	.section	__TEXT,__literal16,16byte_literals
	.p2align	4
LCPI118_0:
	.quad	1
	.quad	1
	.section	__TEXT,__text,regular,pure_instructions
	.globl	__ZN88_$LT$rayon_core..registry..DefaultSpawn$u20$as$u20$rayon_core..registry..ThreadSpawn$GT$5spawn17hde858a11f7ef8644E
	.p2align	4, 0x90
__ZN88_$LT$rayon_core..registry..DefaultSpawn$u20$as$u20$rayon_core..registry..ThreadSpawn$GT$5spawn17hde858a11f7ef8644E:
Lfunc_begin118:
	.loc	1 93 0
	.cfi_startproc
	.cfi_personality 155, _rust_eh_personality
	.cfi_lsda 16, Lexception39
	pushq	%rbp
	.cfi_def_cfa_offset 16
	.cfi_offset %rbp, -16
	movq	%rsp, %rbp
	.cfi_def_cfa_register %rbp
	pushq	%r15
	pushq	%r14
	pushq	%r13
	pushq	%r12
	pushq	%rbx
	subq	$328, %rsp
	.cfi_offset %rbx, -56
	.cfi_offset %r12, -48
	.cfi_offset %r13, -40
	.cfi_offset %r14, -32
	.cfi_offset %r15, -24
	movq	%rdx, %r15
Ltmp2803:
	movq	%rdi, %r14
Ltmp2757:
	leaq	-80(%rbp), %rdi
Ltmp2804:
	.loc	1 94 21 prologue_end
	callq	__ZN3std6thread7Builder3new17h62e193761df98672E
Ltmp2758:
Ltmp2805:
	.loc	30 270 13
	movq	(%r15), %rax
	testq	%rax, %rax
	cmovneq	%r15, %rax
Ltmp2806:
	.loc	30 458 13
	je	LBB118_17
Ltmp2807:
	.loc	30 0 13 is_stmt 0
	movq	%r14, -160(%rbp)
Ltmp2808:
	.loc	22 814 19 is_stmt 1
	movq	(%rax), %r12
Ltmp2809:
	.loc	22 1966 55
	movq	16(%rax), %r14
Ltmp2810:
	.loc	1 96 17
	movq	-48(%rbp), %rax
Ltmp2811:
	movq	%rax, -240(%rbp)
	movq	-56(%rbp), %rax
	movq	%rax, -248(%rbp)
	movq	-64(%rbp), %rax
	movq	%rax, -256(%rbp)
	movq	-80(%rbp), %rax
	movq	-72(%rbp), %rcx
	movq	%rcx, -264(%rbp)
	movq	%rax, -272(%rbp)
Ltmp2812:
	.loc	11 170 16
	testq	%r14, %r14
	.loc	11 170 13 is_stmt 0
	je	LBB118_3
Ltmp2813:
	.loc	11 80 5 is_stmt 1
	movl	$1, %esi
	movq	%r14, %rdi
	callq	___rust_alloc
Ltmp2814:
	.loc	10 852 13
	testq	%rax, %rax
	je	LBB118_60
Ltmp2815:
	.loc	10 0 13 is_stmt 0
	movq	%rax, %r13
Ltmp2816:
	movq	%r14, %rbx
Ltmp2817:
	.loc	18 378 9 is_stmt 1
	cmpq	%r14, %rbx
Ltmp2818:
	.loc	18 280 9
	jb	LBB118_7
	jmp	LBB118_15
Ltmp2819:
LBB118_3:
	.loc	18 0 9 is_stmt 0
	movl	$1, %r13d
	xorl	%ebx, %ebx
Ltmp2820:
	.loc	18 378 9 is_stmt 1
	cmpq	%r14, %rbx
Ltmp2821:
	.loc	18 280 9
	jae	LBB118_15
Ltmp2822:
LBB118_7:
	.loc	18 0 9 is_stmt 0
	movq	%r12, -128(%rbp)
Ltmp2823:
	.loc	18 414 26 is_stmt 1
	leaq	(%rbx,%rbx), %r12
Ltmp2824:
	.loc	35 1017 9
	cmpq	%r14, %r12
	.loc	35 0 0 is_stmt 0
	cmovbeq	%r14, %r12
Ltmp2825:
	.loc	18 200 40 is_stmt 1
	testq	%rbx, %rbx
Ltmp2826:
	.loc	18 200 9 is_stmt 0
	je	LBB118_11
Ltmp2827:
	testq	%r13, %r13
	je	LBB118_11
Ltmp2828:
	.loc	11 205 12 is_stmt 1
	cmpq	%r12, %rbx
	.loc	11 205 9 is_stmt 0
	je	LBB118_14
Ltmp2829:
	.loc	11 124 5 is_stmt 1
	movl	$1, %edx
	movq	%r13, %rdi
	movq	%rbx, %rsi
	movq	%r12, %rcx
	callq	___rust_realloc
Ltmp2830:
	.loc	18 0 0 is_stmt 0
	movq	%rax, %r13
Ltmp2831:
	.loc	10 611 13 is_stmt 1
	testq	%rax, %rax
	jne	LBB118_13
	jmp	LBB118_61
Ltmp2832:
LBB118_11:
	.loc	11 80 5
	movl	$1, %esi
	movq	%r12, %rdi
	callq	___rust_alloc
Ltmp2833:
	.loc	18 0 0 is_stmt 0
	movq	%rax, %r13
Ltmp2834:
	.loc	10 611 13 is_stmt 1
	testq	%rax, %rax
	je	LBB118_61
Ltmp2835:
LBB118_13:
	.file	77 "/rustc/a74d1862d4d87a56244958416fd05976c58ca1a8/src/liballoc/slice.rs"
	.loc	77 0 0 is_stmt 0
	movq	%r12, %rbx
Ltmp2836:
LBB118_14:
	movq	-128(%rbp), %r12
Ltmp2837:
LBB118_15:
	.loc	13 2058 5 is_stmt 1
	movq	%r13, %rdi
	movq	%r12, %rsi
	movq	%r14, %rdx
	callq	_memcpy
Ltmp2838:
	.loc	57 761 23
	movq	%r13, -120(%rbp)
	movq	%rbx, -112(%rbp)
	movq	%r14, -104(%rbp)
Ltmp2760:
	leaq	-360(%rbp), %rdi
	leaq	-272(%rbp), %rsi
	leaq	-120(%rbp), %rdx
Ltmp2839:
	.loc	1 96 17
	callq	__ZN3std6thread7Builder4name17h1bd22bf208967722E
Ltmp2761:
Ltmp2840:
	.loc	1 96 13 is_stmt 0
	movq	-360(%rbp), %rax
	movq	-352(%rbp), %rcx
	movq	%rax, -80(%rbp)
	movq	%rcx, -72(%rbp)
	movq	-344(%rbp), %rax
	movq	%rax, -64(%rbp)
	movq	-336(%rbp), %rax
	movq	%rax, -56(%rbp)
	movq	-328(%rbp), %rax
	movq	%rax, -48(%rbp)
	movq	-160(%rbp), %r14
Ltmp2841:
LBB118_17:
	.loc	1 98 16 is_stmt 1
	cmpq	$1, 24(%r15)
	jne	LBB118_20
Ltmp2842:
	.loc	1 50 9
	movq	32(%r15), %rdx
Ltmp2843:
	.loc	1 99 17
	movq	-48(%rbp), %rax
	movq	%rax, -240(%rbp)
	movq	-56(%rbp), %rax
	movq	%rax, -248(%rbp)
	movq	-64(%rbp), %rax
	movq	%rax, -256(%rbp)
	movq	-80(%rbp), %rax
	movq	-72(%rbp), %rcx
	movq	%rcx, -264(%rbp)
	movq	%rax, -272(%rbp)
Ltmp2763:
	leaq	-360(%rbp), %rdi
	leaq	-272(%rbp), %rsi
	callq	__ZN3std6thread7Builder10stack_size17h1b421aa0a0881a59E
Ltmp2844:
Ltmp2764:
	.loc	1 99 13 is_stmt 0
	movq	-360(%rbp), %rax
	movq	-352(%rbp), %rcx
	movq	%rax, -80(%rbp)
	movq	%rcx, -72(%rbp)
	movq	-344(%rbp), %rax
	movq	%rax, -64(%rbp)
	movq	-336(%rbp), %rax
	movq	%rax, -56(%rbp)
	movq	-328(%rbp), %rax
	movq	%rax, -48(%rbp)
Ltmp2845:
LBB118_20:
	.loc	1 101 9 is_stmt 1
	movq	-48(%rbp), %r12
Ltmp2846:
	.loc	30 429 13
	cmpq	$0, -56(%rbp)
	leaq	-360(%rbp), %rdi
Ltmp2847:
	.loc	58 386 39
	movl	$11, %ecx
	movq	%r15, %rsi
	rep;movsq (%rsi), %es:(%rdi)
Ltmp2848:
	.loc	58 458 23
	movq	-64(%rbp), %rax
	movq	%rax, -168(%rbp)
	movq	-80(%rbp), %rax
	movq	-72(%rbp), %rcx
	movq	%rcx, -176(%rbp)
	movq	%rax, -184(%rbp)
Ltmp2849:
	.loc	30 429 13
	jne	LBB118_23
Ltmp2850:
Ltmp2766:
	.loc	50 232 5
	callq	__ZN3std10sys_common6thread9min_stack17h009879ed01279513E
Ltmp2767:
Ltmp2851:
	.loc	50 0 5 is_stmt 0
	movq	%rax, %r12
Ltmp2852:
LBB118_23:
	.loc	58 462 37 is_stmt 1
	movq	-168(%rbp), %rax
	movq	%rax, -256(%rbp)
	movq	-184(%rbp), %rax
	movq	-176(%rbp), %rcx
	movq	%rcx, -264(%rbp)
	movq	%rax, -272(%rbp)
Ltmp2769:
	leaq	-272(%rbp), %rdi
	.loc	58 462 25 is_stmt 0
	callq	__ZN3std6thread6Thread3new17h461543be12a65b27E
Ltmp2770:
Ltmp2853:
	.loc	58 0 0
	movq	%rax, %r15
Ltmp2854:
	.loc	58 462 25
	movq	%rax, -88(%rbp)
Ltmp2855:
	.loc	6 2303 20 is_stmt 1
	lock		incq	(%rax)
Ltmp2856:
	.loc	31 1098 9
	jle	LBB118_62
Ltmp2857:
	.loc	11 80 5
	movl	$40, %edi
	movl	$8, %esi
	callq	___rust_alloc
Ltmp2858:
	.loc	11 269 9
	testq	%rax, %rax
	je	LBB118_63
Ltmp2859:
	.loc	58 0 0 is_stmt 0
	movq	%rax, %rbx
Ltmp2860:
	.loc	31 322 29 is_stmt 1
	movaps	LCPI118_0(%rip), %xmm0
	movups	%xmm0, (%rax)
	movq	$0, 16(%rax)
	movq	-272(%rbp), %rax
	movq	-264(%rbp), %rcx
	movq	%rax, 24(%rbx)
	movq	%rcx, 32(%rbx)
Ltmp2861:
	.loc	58 465 61
	movq	%rbx, -136(%rbp)
Ltmp2862:
	.loc	6 2303 20
	lock		incq	(%rbx)
Ltmp2863:
	.loc	31 1098 9
	jle	LBB118_62
Ltmp2864:
	.loc	31 0 9 is_stmt 0
	leaq	-272(%rbp), %rdi
	leaq	-360(%rbp), %rsi
Ltmp2865:
	.loc	58 495 21 is_stmt 1
	movl	$11, %ecx
	rep;movsq (%rsi), %es:(%rdi)
Ltmp2866:
	.loc	11 80 5
	movl	$104, %edi
	movl	$8, %esi
	callq	___rust_alloc
Ltmp2867:
	.loc	11 269 9
	testq	%rax, %rax
	je	LBB118_64
Ltmp2868:
	.loc	14 174 13
	movq	%r15, (%rax)
	movq	%rax, %rdi
	addq	$8, %rdi
	leaq	-272(%rbp), %rsi
	movl	$11, %ecx
	rep;movsq (%rsi), %es:(%rdi)
	movq	%rbx, 96(%rax)
Ltmp2869:
Ltmp2774:
	.loc	58 492 26
	leaq	l___unnamed_5(%rip), %rcx
	leaq	-272(%rbp), %rdi
	movq	%r12, %rsi
	movq	%rax, %rdx
	callq	__ZN3std3sys4unix6thread6Thread3new17h090719a0acd4da2dE
Ltmp2775:
Ltmp2870:
	.loc	10 1548 9
	movups	-264(%rbp), %xmm0
Ltmp2871:
	.loc	58 497 14
	cmpq	$1, -272(%rbp)
	jne	LBB118_47
Ltmp2872:
	.loc	6 2314 20
	lock		decq	(%rbx)
	movaps	%xmm0, -160(%rbp)
Ltmp2873:
	.loc	31 1346 9
	jne	LBB118_32
Ltmp2874:
	.loc	6 2563 24
	##MEMBARRIER
Ltmp2794:
	leaq	-136(%rbp), %rdi
Ltmp2875:
	.loc	31 1381 13
	callq	__ZN5alloc4sync12Arc$LT$T$GT$9drop_slow17h3a0593769a158cc4E
	movaps	-160(%rbp), %xmm0
Ltmp2795:
Ltmp2876:
LBB118_32:
	.loc	31 1346 12
	movq	-88(%rbp), %rax
Ltmp2877:
	.loc	6 2314 20
	lock		decq	(%rax)
Ltmp2878:
	.loc	31 1346 9
	jne	LBB118_34
Ltmp2879:
	.loc	6 2563 24
	##MEMBARRIER
Ltmp2800:
	leaq	-88(%rbp), %rdi
Ltmp2880:
	.loc	31 1381 13
	callq	__ZN5alloc4sync12Arc$LT$T$GT$9drop_slow17h933694acf971184dE
	movaps	-160(%rbp), %xmm0
Ltmp2801:
Ltmp2881:
LBB118_34:
	.loc	10 1558 13
	movups	%xmm0, (%r14)
	jmp	LBB118_46
Ltmp2882:
LBB118_47:
	.loc	1 101 9
	movq	$1, -120(%rbp)
	leaq	-112(%rbp), %rdi
Ltmp2883:
	movlps	%xmm0, -112(%rbp)
	leaq	-104(%rbp), %r12
Ltmp2884:
	movq	%r15, -104(%rbp)
	leaq	-96(%rbp), %r15
Ltmp2885:
	movq	%rbx, -96(%rbp)
Ltmp2886:
Ltmp2781:
	.loc	23 178 1
	callq	__ZN72_$LT$std..sys..unix..thread..Thread$u20$as$u20$core..ops..drop..Drop$GT$4drop17haa00a8633efec967E
Ltmp2887:
Ltmp2782:
	.loc	31 1346 12
	movq	-104(%rbp), %rax
Ltmp2888:
