	.section	__TEXT,__text,regular,pure_instructions
	.macosx_version_min 10, 7
	.p2align	4, 0x90
__ZN36_$LT$T$u20$as$u20$core..any..Any$GT$7type_id17h2546f86c6b3ddd66E:
Lfunc_begin0:
	.file	1 "/rustc/a74d1862d4d87a56244958416fd05976c58ca1a8/src/libcore/any.rs"
	.loc	1 109 0
	.cfi_startproc
	pushq	%rbp
	.cfi_def_cfa_offset 16
	.cfi_offset %rbp, -16
	movq	%rsp, %rbp
	.cfi_def_cfa_register %rbp
	movabsq	$1229646359891580772, %rax
Ltmp0:
	.loc	1 111 6 prologue_end
	popq	%rbp
	retq
Ltmp1:
Lfunc_end0:
	.cfi_endproc

	.p2align	4, 0x90
__ZN3std9panicking11begin_panic17h66d784f99743cd79E:
Lfunc_begin1:
	.file	2 "/rustc/a74d1862d4d87a56244958416fd05976c58ca1a8/src/libstd/panicking.rs"
	.loc	2 399 0
	.cfi_startproc
	pushq	%rbp
	.cfi_def_cfa_offset 16
	.cfi_offset %rbp, -16
	movq	%rsp, %rbp
	.cfi_def_cfa_register %rbp
	subq	$16, %rsp
Ltmp2:
	.loc	2 404 31 prologue_end
	leaq	l___unnamed_4(%rip), %rax
	movq	%rax, -16(%rbp)
	movq	$43, -8(%rbp)
	.loc	2 404 61 is_stmt 0
	callq	__ZN4core5panic8Location6caller17hf55c9a52d6249cfcE
	.loc	2 404 5
	leaq	l___unnamed_1(%rip), %rsi
	leaq	-16(%rbp), %rdi
	xorl	%edx, %edx
	movq	%rax, %rcx
	callq	__ZN3std9panicking20rust_panic_with_hook17hf8b9378dd2e7986aE
Ltmp3:
Lfunc_end1:
	.cfi_endproc

	.p2align	4, 0x90
__ZN42_$LT$$RF$T$u20$as$u20$core..fmt..Debug$GT$3fmt17he1804bb01711e01fE:
Lfunc_begin2:
	.file	3 "/rustc/a74d1862d4d87a56244958416fd05976c58ca1a8/src/libcore/fmt/mod.rs"
	.loc	3 1973 0 is_stmt 1
	.cfi_startproc
	pushq	%rbp
	.cfi_def_cfa_offset 16
	.cfi_offset %rbp, -16
	movq	%rsp, %rbp
	.cfi_def_cfa_register %rbp
	movq	%rsi, %rdx
Ltmp4:
	.loc	3 1973 71 prologue_end
	movq	(%rdi), %rax
	.loc	3 1973 62 is_stmt 0
	movq	(%rax), %rdi
Ltmp5:
	movq	8(%rax), %rsi
Ltmp6:
	.loc	3 1973 62
	popq	%rbp
	jmp	__ZN40_$LT$str$u20$as$u20$core..fmt..Debug$GT$3fmt17h2760aab2290546fcE
Ltmp7:
Lfunc_end2:
	.cfi_endproc

	.p2align	4, 0x90
__ZN4core3ptr13drop_in_place17h750a32423af2b840E:
Lfunc_begin3:
	.file	4 "/rustc/a74d1862d4d87a56244958416fd05976c58ca1a8/src/libcore/ptr/mod.rs"
	.loc	4 178 0 is_stmt 1
	.cfi_startproc
	pushq	%rbp
	.cfi_def_cfa_offset 16
	.cfi_offset %rbp, -16
	movq	%rsp, %rbp
	.cfi_def_cfa_register %rbp
Ltmp8:
	.loc	4 178 1 prologue_end
	popq	%rbp
	retq
Ltmp9:
Lfunc_end3:
	.cfi_endproc

	.p2align	4, 0x90
__ZN4core3ptr13drop_in_place17h85c47110673a6560E:
Lfunc_begin4:
	.loc	4 178 0
	.cfi_startproc
	pushq	%rbp
	.cfi_def_cfa_offset 16
	.cfi_offset %rbp, -16
	movq	%rsp, %rbp
	.cfi_def_cfa_register %rbp
	movq	%rdi, %rax
Ltmp10:
	.loc	4 178 1 prologue_end
	movq	(%rdi), %rdi
Ltmp11:
	.file	5 "/rustc/a74d1862d4d87a56244958416fd05976c58ca1a8/src/liballoc/raw_vec.rs"
	.loc	5 532 16
	testq	%rdi, %rdi
Ltmp12:
	.loc	5 200 9
	je	LBB4_2
Ltmp13:
	.loc	4 0 0 is_stmt 0
	movq	8(%rax), %rsi
Ltmp14:
	.loc	5 200 9
	testq	%rsi, %rsi
	je	LBB4_2
Ltmp15:
	.file	6 "/rustc/a74d1862d4d87a56244958416fd05976c58ca1a8/src/liballoc/alloc.rs"
	.loc	6 102 5 is_stmt 1
	movl	$1, %edx
	popq	%rbp
	jmp	___rust_dealloc
Ltmp16:
LBB4_2:
	.loc	4 178 1
	popq	%rbp
	retq
Ltmp17:
Lfunc_end4:
	.cfi_endproc

	.p2align	4, 0x90
__ZN91_$LT$std..panicking..begin_panic..PanicPayload$LT$A$GT$$u20$as$u20$core..panic..BoxMeUp$GT$3get17h52a30dbb4f820841E:
Lfunc_begin5:
	.loc	2 430 0
	.cfi_startproc
	pushq	%rbp
	.cfi_def_cfa_offset 16
	.cfi_offset %rbp, -16
	movq	%rsp, %rbp
	.cfi_def_cfa_register %rbp
Ltmp18:
	.loc	2 432 17 prologue_end
	cmpq	$0, (%rdi)
	je	LBB5_2
Ltmp19:
	.loc	2 0 17 is_stmt 0
	movq	%rdi, %rax
Ltmp20:
	.loc	2 435 10 is_stmt 1
	leaq	l___unnamed_2(%rip), %rdx
	popq	%rbp
	retq
Ltmp21:
LBB5_2:
	.loc	2 433 25
	callq	__ZN3std7process5abort17h4dccaf05298ce780E
Ltmp22:
Lfunc_end5:
	.cfi_endproc

	.p2align	4, 0x90
__ZN91_$LT$std..panicking..begin_panic..PanicPayload$LT$A$GT$$u20$as$u20$core..panic..BoxMeUp$GT$8take_box17hbe226250bd0523a9E:
Lfunc_begin6:
	.loc	2 417 0
	.cfi_startproc
	pushq	%rbp
	.cfi_def_cfa_offset 16
	.cfi_offset %rbp, -16
	movq	%rsp, %rbp
	.cfi_def_cfa_register %rbp
Ltmp23:
	pushq	%r14
	pushq	%rbx
	.cfi_offset %rbx, -32
	.cfi_offset %r14, -24
Ltmp24:
	.file	7 "/rustc/a74d1862d4d87a56244958416fd05976c58ca1a8/src/libcore/intrinsics.rs"
	.loc	7 2058 5 prologue_end
	movq	(%rdi), %rbx
Ltmp25:
	movq	8(%rdi), %r14
Ltmp26:
	.loc	7 2058 5 is_stmt 0
	movq	$0, (%rdi)
Ltmp27:
	.loc	2 424 17 is_stmt 1
	testq	%rbx, %rbx
	je	LBB6_3
Ltmp28:
	.loc	6 80 5
	movl	$16, %edi
Ltmp29:
	movl	$8, %esi
	callq	___rust_alloc
Ltmp30:
	.loc	6 269 9
	testq	%rax, %rax
	je	LBB6_4
Ltmp31:
	.file	8 "/rustc/a74d1862d4d87a56244958416fd05976c58ca1a8/src/liballoc/boxed.rs"
	.loc	8 174 13
	movq	%rbx, (%rax)
	movq	%r14, 8(%rax)
Ltmp32:
	.file	9 "/rustc/a74d1862d4d87a56244958416fd05976c58ca1a8/src/libcore/ptr/unique.rs"
	.loc	9 108 6
	leaq	l___unnamed_2(%rip), %rdx
Ltmp33:
	.loc	2 428 10
	popq	%rbx
Ltmp34:
	popq	%r14
Ltmp35:
	popq	%rbp
	retq
Ltmp36:
LBB6_3:
	.loc	2 425 25
	callq	__ZN3std7process5abort17h4dccaf05298ce780E
Ltmp37:
LBB6_4:
	.loc	6 270 19
	movl	$16, %edi
	movl	$8, %esi
	callq	__ZN5alloc5alloc18handle_alloc_error17hbc0ab0ed90816c07E
Ltmp38:
Lfunc_end6:
	.cfi_endproc
	.file	10 "/rustc/a74d1862d4d87a56244958416fd05976c58ca1a8/src/libcore/mem/mod.rs"
	.file	11 "/rustc/a74d1862d4d87a56244958416fd05976c58ca1a8/src/libcore/option.rs"

	.globl	__ZN5rayon4iter6extend11string_push17h51b408022cd4b8ceE
	.p2align	4, 0x90
__ZN5rayon4iter6extend11string_push17h51b408022cd4b8ceE:
Lfunc_begin7:
	.file	12 "/Users/yingyuhang/.cargo/registry/src/github.com-1ecc6299db9ec823/rayon-1.3.1/src/iter/extend.rs"
	.loc	12 253 0
	.cfi_startproc
	.cfi_personality 155, _rust_eh_personality
	.cfi_lsda 16, Lexception0
	pushq	%rbp
	.cfi_def_cfa_offset 16
	.cfi_offset %rbp, -16
	movq	%rsp, %rbp
	.cfi_def_cfa_register %rbp
	pushq	%r15
	pushq	%r14
	pushq	%r13
	pushq	%r12
	pushq	%rbx
	pushq	%rax
	.cfi_offset %rbx, -56
	.cfi_offset %r12, -48
	.cfi_offset %r13, -40
	.cfi_offset %r14, -32
	.cfi_offset %r15, -24
	movl	%edx, %r12d
Ltmp44:
	movq	%rsi, %r15
Ltmp45:
	movq	%rdi, %r14
Ltmp46:
	.file	13 "/rustc/a74d1862d4d87a56244958416fd05976c58ca1a8/src/libcore/char/methods.rs"
	.loc	13 360 12 prologue_end
	cmpl	$128, %edx
	.loc	13 360 9 is_stmt 0
	jae	LBB7_1
Ltmp47:
	.file	14 "/rustc/a74d1862d4d87a56244958416fd05976c58ca1a8/src/liballoc/vec.rs"
	.loc	14 1200 12 is_stmt 1
	movq	16(%r15), %rbx
Ltmp48:
	cmpq	8(%r15), %rbx
	.loc	14 1200 9 is_stmt 0
	jne	LBB7_22
Ltmp49:
	.file	15 "/rustc/a74d1862d4d87a56244958416fd05976c58ca1a8/src/libcore/num/mod.rs"
	.loc	15 3632 30 is_stmt 1
	movq	%rbx, %r13
	incq	%r13
Ltmp50:
	.loc	11 540 13
	je	LBB7_35
Ltmp51:
	.loc	5 414 26
	leaq	(%rbx,%rbx), %rax
Ltmp52:
	.file	16 "/rustc/a74d1862d4d87a56244958416fd05976c58ca1a8/src/libcore/cmp.rs"
	.loc	16 1017 9
	cmpq	%r13, %rax
	.loc	16 0 0 is_stmt 0
	cmovaq	%rax, %r13
Ltmp53:
	.loc	5 200 40 is_stmt 1
	testq	%rbx, %rbx
	.loc	5 200 9 is_stmt 0
	je	LBB7_30
Ltmp54:
	.loc	5 420 57 is_stmt 1
	movq	(%r15), %rax
Ltmp55:
	.loc	5 489 25
	testq	%rax, %rax
	je	LBB7_30
Ltmp56:
	.loc	6 205 12
	cmpq	%r13, %rbx
	.loc	6 205 9 is_stmt 0
	je	LBB7_33
Ltmp57:
	.loc	6 124 5 is_stmt 1
	movl	$1, %edx
	movq	%rax, %rdi
	movq	%rbx, %rsi
	movq	%r13, %rcx
	callq	___rust_realloc
Ltmp58:
	.file	17 "/rustc/a74d1862d4d87a56244958416fd05976c58ca1a8/src/libcore/result.rs"
	.loc	17 611 13
	testq	%rax, %rax
	jne	LBB7_34
	jmp	LBB7_36
Ltmp59:
LBB7_1:
	.file	18 "/rustc/a74d1862d4d87a56244958416fd05976c58ca1a8/src/liballoc/string.rs"
	.loc	18 1099 65
	movl	$0, -44(%rbp)
Ltmp60:
	.loc	13 443 23
	movl	%r12d, %eax
Ltmp61:
	.loc	13 362 19
	cmpl	$2048, %r12d
	.loc	13 362 16 is_stmt 0
	jae	LBB7_2
Ltmp62:
	.loc	13 443 23 is_stmt 1
	shrl	$6, %eax
	.loc	13 443 22 is_stmt 0
	andb	$31, %al
	.loc	13 443 17
	orb	$-64, %al
	movb	%al, -44(%rbp)
	.loc	13 444 22 is_stmt 1
	andb	$63, %r12b
Ltmp63:
	.loc	13 444 17 is_stmt 0
	orb	$-128, %r12b
	movb	%r12b, -43(%rbp)
	movl	$2, %r12d
	jmp	LBB7_5
Ltmp64:
LBB7_22:
	.loc	14 850 19 is_stmt 1
	movq	(%r15), %rax
	jmp	LBB7_23
Ltmp65:
LBB7_2:
	.loc	13 364 19
	cmpl	$65536, %r12d
	jae	LBB7_4
Ltmp66:
	.loc	13 447 23
	shrl	$12, %eax
	.loc	13 447 22 is_stmt 0
	andb	$15, %al
	.loc	13 447 17
	orb	$-32, %al
	movb	%al, -44(%rbp)
	.loc	13 448 23 is_stmt 1
	movl	%r12d, %eax
	shrl	$6, %eax
	.loc	13 448 22 is_stmt 0
	andb	$63, %al
	.loc	13 448 17
	orb	$-128, %al
	movb	%al, -43(%rbp)
	.loc	13 449 22 is_stmt 1
	andb	$63, %r12b
Ltmp67:
	.loc	13 449 17 is_stmt 0
	orb	$-128, %r12b
	movb	%r12b, -42(%rbp)
	movl	$3, %r12d
	jmp	LBB7_5
Ltmp68:
LBB7_30:
	.loc	6 170 16 is_stmt 1
	testq	%r13, %r13
	.loc	6 170 13 is_stmt 0
	je	LBB7_31
Ltmp69:
	.loc	6 80 5 is_stmt 1
	movl	$1, %esi
	movq	%r13, %rdi
	callq	___rust_alloc
Ltmp70:
LBB7_33:
	.loc	17 611 13
	testq	%rax, %rax
	jne	LBB7_34
	jmp	LBB7_36
Ltmp71:
LBB7_4:
	.loc	13 452 23
	shrl	$18, %eax
	.loc	13 452 17 is_stmt 0
	orb	$-16, %al
	movb	%al, -44(%rbp)
	.loc	13 453 23 is_stmt 1
	movl	%r12d, %eax
	shrl	$12, %eax
	.loc	13 453 22 is_stmt 0
	andb	$63, %al
	.loc	13 453 17
	orb	$-128, %al
	movb	%al, -43(%rbp)
	.loc	13 454 23 is_stmt 1
	movl	%r12d, %eax
	shrl	$6, %eax
	.loc	13 454 22 is_stmt 0
	andb	$63, %al
	.loc	13 454 17
	orb	$-128, %al
	movb	%al, -42(%rbp)
	.loc	13 455 22 is_stmt 1
	andb	$63, %r12b
Ltmp72:
	.loc	13 455 17 is_stmt 0
	orb	$-128, %r12b
	movb	%r12b, -41(%rbp)
	movl	$4, %r12d
Ltmp73:
LBB7_5:
	.loc	5 280 12 is_stmt 1
	movq	8(%r15), %rsi
Ltmp74:
	.loc	14 500 26
	movq	16(%r15), %rbx
Ltmp75:
	.loc	15 3343 17
	movq	%rsi, %rax
	subq	%rbx, %rax
Ltmp76:
	.loc	5 378 9
	cmpq	%r12, %rax
Ltmp77:
	.loc	5 280 9
	jae	LBB7_6
Ltmp78:
	.loc	15 3632 30
	movq	%rbx, %r13
	addq	%r12, %r13
Ltmp79:
	.loc	11 540 13
	jb	LBB7_19
Ltmp80:
	.loc	5 414 26
	leaq	(%rsi,%rsi), %rax
Ltmp81:
	.loc	16 1017 9
	cmpq	%r13, %rax
	.loc	16 0 0 is_stmt 0
	cmovaq	%rax, %r13
Ltmp82:
	.loc	5 200 40 is_stmt 1
	testq	%rsi, %rsi
	.loc	5 200 9 is_stmt 0
	je	LBB7_13
Ltmp83:
	.loc	5 420 57 is_stmt 1
	movq	(%r15), %rdi
Ltmp84:
	.loc	5 489 25
	testq	%rdi, %rdi
	je	LBB7_13
Ltmp85:
	.loc	6 205 12
	cmpq	%r13, %rsi
	.loc	6 205 9 is_stmt 0
	je	LBB7_17
Ltmp86:
	.loc	6 124 5 is_stmt 1
	movl	$1, %edx
	movq	%r13, %rcx
	callq	___rust_realloc
Ltmp87:
	.loc	6 0 5 is_stmt 0
	jmp	LBB7_16
Ltmp88:
LBB7_6:
	.loc	14 850 19 is_stmt 1
	movq	(%r15), %rdi
	jmp	LBB7_7
Ltmp89:
LBB7_13:
	.loc	6 170 16
	testq	%r13, %r13
	.loc	6 170 13 is_stmt 0
	je	LBB7_14
Ltmp90:
	.loc	6 80 5 is_stmt 1
	movl	$1, %esi
	movq	%r13, %rdi
	callq	___rust_alloc
Ltmp91:
LBB7_16:
	.loc	5 0 0 is_stmt 0
	movq	%rax, %rdi
Ltmp92:
LBB7_17:
	.loc	17 611 13 is_stmt 1
	testq	%rdi, %rdi
	jne	LBB7_18
Ltmp93:
LBB7_36:
	.loc	18 0 0 is_stmt 0
	movl	$1, %esi
	movq	%r13, %rdi
	callq	__ZN5alloc5alloc18handle_alloc_error17hbc0ab0ed90816c07E
Ltmp94:
LBB7_31:
	movl	$1, %eax
Ltmp95:
LBB7_34:
	.loc	5 387 9 is_stmt 1
	movq	%rax, (%r15)
	.loc	5 388 9
	movq	%r13, 8(%r15)
Ltmp96:
LBB7_23:
	.loc	4 836 42
	movb	%r12b, (%rax,%rbx)
Ltmp97:
	.loc	14 1206 13
	incq	%rbx
	jmp	LBB7_24
Ltmp98:
LBB7_14:
	.loc	14 0 13 is_stmt 0
	movl	$1, %edi
Ltmp99:
LBB7_18:
	.loc	5 387 9 is_stmt 1
	movq	%rdi, (%r15)
	.loc	5 388 9
	movq	%r13, 8(%r15)
Ltmp100:
LBB7_7:
	.file	19 "/rustc/a74d1862d4d87a56244958416fd05976c58ca1a8/src/libcore/ptr/mut_ptr.rs"
	.loc	19 152 9
	addq	%rbx, %rdi
Ltmp101:
	.loc	19 0 9 is_stmt 0
	leaq	-44(%rbp), %rsi
Ltmp102:
	.loc	7 2058 5 is_stmt 1
	movq	%r12, %rdx
	callq	_memcpy
Ltmp103:
	.loc	14 2179 26
	addq	%r12, %rbx
Ltmp104:
LBB7_24:
	.loc	18 0 0 is_stmt 0
	movq	%rbx, 16(%r15)
Ltmp105:
	.loc	12 255 5 is_stmt 1
	movq	16(%r15), %rax
	movq	%rax, 16(%r14)
	movq	(%r15), %rax
	movq	8(%r15), %rcx
	movq	%rcx, 8(%r14)
	movq	%rax, (%r14)
	.loc	12 256 2
	movq	%r14, %rax
	addq	$8, %rsp
	popq	%rbx
	popq	%r12
	popq	%r13
	popq	%r14
	popq	%r15
Ltmp106:
	popq	%rbp
	retq
LBB7_35:
Ltmp107:
Ltmp41:
	.loc	5 268 38
	callq	__ZN5alloc7raw_vec17capacity_overflow17h023f34f5bc34c61fE
Ltmp42:
	jmp	LBB7_20
Ltmp108:
LBB7_19:
Ltmp39:
	.loc	5 268 38 is_stmt 0
	callq	__ZN5alloc7raw_vec17capacity_overflow17h023f34f5bc34c61fE
Ltmp40:
Ltmp109:
LBB7_20:
	.loc	18 0 0
	ud2
Ltmp110:
LBB7_37:
Ltmp43:
	movq	%rax, %rbx
	.loc	12 256 1 is_stmt 1
	movq	%r15, %rdi
	callq	__ZN4core3ptr13drop_in_place17h85c47110673a6560E
	movq	%rbx, %rdi
	callq	__Unwind_Resume
	ud2
Ltmp111:
Lfunc_end7:
	.cfi_endproc
	.file	20 "/rustc/a74d1862d4d87a56244958416fd05976c58ca1a8/src/libcore/macros/mod.rs"
	.file	21 "/rustc/a74d1862d4d87a56244958416fd05976c58ca1a8/src/libcore/slice/mod.rs"
	.section	__TEXT,__gcc_except_tab
	.p2align	2
GCC_except_table7:
Lexception0:
	.byte	255
	.byte	255
	.byte	1
	.uleb128 Lcst_end0-Lcst_begin0
Lcst_begin0:
	.uleb128 Lfunc_begin7-Lfunc_begin7
	.uleb128 Ltmp41-Lfunc_begin7
	.byte	0
	.byte	0
	.uleb128 Ltmp41-Lfunc_begin7
	.uleb128 Ltmp40-Ltmp41
	.uleb128 Ltmp43-Lfunc_begin7
	.byte	0
	.uleb128 Ltmp40-Lfunc_begin7
	.uleb128 Lfunc_end7-Ltmp40
	.byte	0
	.byte	0
Lcst_end0:
	.p2align	2

	.section	__TEXT,__text,regular,pure_instructions
	.globl	__ZN97_$LT$rayon..iter..noop..NoopReducer$u20$as$u20$rayon..iter..plumbing..Reducer$LT$$LP$$RP$$GT$$GT$6reduce17h991be85c604b6808E
	.p2align	4, 0x90
__ZN97_$LT$rayon..iter..noop..NoopReducer$u20$as$u20$rayon..iter..plumbing..Reducer$LT$$LP$$RP$$GT$$GT$6reduce17h991be85c604b6808E:
Lfunc_begin8:
	.file	22 "/Users/yingyuhang/.cargo/registry/src/github.com-1ecc6299db9ec823/rayon-1.3.1/src/iter/noop.rs"
	.loc	22 58 0
	.cfi_startproc
	pushq	%rbp
	.cfi_def_cfa_offset 16
	.cfi_offset %rbp, -16
	movq	%rsp, %rbp
	.cfi_def_cfa_register %rbp
Ltmp112:
	.loc	22 58 46 prologue_end
	popq	%rbp
	retq
Ltmp113:
Lfunc_end8:
	.cfi_endproc

	.globl	__ZN92_$LT$rayon..str..CharIndicesProducer$u20$as$u20$rayon..iter..plumbing..UnindexedProducer$GT$5split17h9c0acf451dfdfe20E
	.p2align	4, 0x90
__ZN92_$LT$rayon..str..CharIndicesProducer$u20$as$u20$rayon..iter..plumbing..UnindexedProducer$GT$5split17h9c0acf451dfdfe20E:
Lfunc_begin9:
	.file	23 "/Users/yingyuhang/.cargo/registry/src/github.com-1ecc6299db9ec823/rayon-1.3.1/src/str.rs"
	.loc	23 466 0
	.cfi_startproc
	pushq	%rbp
	.cfi_def_cfa_offset 16
	.cfi_offset %rbp, -16
	movq	%rsp, %rbp
	.cfi_def_cfa_register %rbp
	movq	%rdi, %rax
Ltmp114:
	.loc	23 467 21 prologue_end
	movq	8(%rsi), %rdi
Ltmp115:
	movq	16(%rsi), %r9
Ltmp116:
	.loc	23 31 15
	movq	%r9, %rcx
	shrq	%rcx
Ltmp117:
	.loc	21 3179 9
	cmpq	%r9, %rcx
	.loc	21 3303 21
	je	LBB9_4
Ltmp118:
	.file	24 "/rustc/a74d1862d4d87a56244958416fd05976c58ca1a8/src/libcore/iter/traits/iterator.rs"
	.loc	24 2352 17
	leaq	(%rdi,%rcx), %r8
	movq	%r9, %r10
	subq	%rcx, %r10
	xorl	%edx, %edx
Ltmp119:
	.p2align	4, 0x90
LBB9_2:
	.loc	23 25 5
	cmpb	$-65, (%r8,%rdx)
Ltmp120:
	.loc	24 2352 17
	jg	LBB9_6
Ltmp121:
	.loc	24 0 17 is_stmt 0
	incq	%rdx
Ltmp122:
	.loc	21 3179 9 is_stmt 1
	cmpq	%rdx, %r10
	.loc	21 3303 21
	jne	LBB9_2
Ltmp123:
	.p2align	4, 0x90
LBB9_4:
	.loc	21 3179 9
	testq	%rcx, %rcx
	.loc	21 3399 21
	je	LBB9_12
Ltmp124:
	.loc	23 25 5
	cmpb	$-64, -1(%rdi,%rcx)
Ltmp125:
	.loc	24 2411 25
	leaq	-1(%rcx), %rcx
Ltmp126:
	.file	25 "/rustc/a74d1862d4d87a56244958416fd05976c58ca1a8/src/libcore/iter/traits/double_ended.rs"
	.loc	25 166 32
	jl	LBB9_4
	jmp	LBB9_7
Ltmp127:
LBB9_6:
	.loc	23 38 20
	addq	%rdx, %rcx
Ltmp128:
	jb	LBB9_17
Ltmp129:
LBB9_7:
	.loc	23 51 8
	testq	%rcx, %rcx
	.loc	23 51 5 is_stmt 0
	je	LBB9_12
Ltmp130:
	.file	26 "/rustc/a74d1862d4d87a56244958416fd05976c58ca1a8/src/libcore/str/mod.rs"
	.loc	26 2303 26 is_stmt 1
	movq	%r9, %r8
	subq	%rcx, %r8
	.loc	26 2303 12 is_stmt 0
	je	LBB9_13
Ltmp131:
	.loc	26 2307 13 is_stmt 1
	jbe	LBB9_11
Ltmp132:
	.loc	26 2309 25
	cmpb	$-65, (%rdi,%rcx)
Ltmp133:
	.loc	26 2663 9
	jle	LBB9_11
Ltmp134:
LBB9_13:
	.loc	23 469 17
	movq	(%rsi), %rsi
Ltmp135:
	.loc	23 475 28
	movq	%rsi, %rdx
	addq	%rcx, %rdx
	jb	LBB9_16
Ltmp136:
	.loc	23 468 36
	movq	%rsi, (%rax)
	movq	%rdi, 8(%rax)
Ltmp137:
	.file	27 "/rustc/a74d1862d4d87a56244958416fd05976c58ca1a8/src/libcore/ptr/const_ptr.rs"
	.loc	27 158 9
	addq	%rcx, %rdi
Ltmp138:
	.loc	23 468 36
	movq	%rcx, 16(%rax)
	movq	%rdx, 24(%rax)
	movq	%rdi, 32(%rax)
	movq	%r8, 40(%rax)
Ltmp139:
	.loc	23 480 6
	popq	%rbp
	retq
Ltmp140:
LBB9_12:
	.loc	23 478 22
	movq	16(%rsi), %rcx
	movq	%rcx, 16(%rax)
	movq	(%rsi), %rcx
	movq	8(%rsi), %rdx
	movq	%rdx, 8(%rax)
	movq	%rcx, (%rax)
	.loc	23 478 21 is_stmt 0
	movq	$0, 32(%rax)
	.loc	23 480 6 is_stmt 1
	popq	%rbp
	retq
Ltmp141:
LBB9_11:
	.loc	26 2667 13
	leaq	l___unnamed_5(%rip), %r8
	movq	%r9, %rsi
Ltmp142:
	xorl	%edx, %edx
	callq	__ZN4core3str16slice_error_fail17h6b29707aec812690E
Ltmp143:
LBB9_16:
	.loc	23 475 28
	leaq	_str.0(%rip), %rdi
	leaq	l___unnamed_6(%rip), %rdx
	movl	$28, %esi
	callq	__ZN4core9panicking5panic17h736ee47a631475c0E
Ltmp144:
LBB9_17:
	.loc	23 38 20
	leaq	_str.0(%rip), %rdi
Ltmp145:
	leaq	l___unnamed_7(%rip), %rdx
Ltmp146:
	movl	$28, %esi
Ltmp147:
	callq	__ZN4core9panicking5panic17h736ee47a631475c0E
Ltmp148:
Lfunc_end9:
	.cfi_endproc
	.file	28 "/rustc/a74d1862d4d87a56244958416fd05976c58ca1a8/src/libcore/iter/adapters/mod.rs"
	.file	29 "/rustc/a74d1862d4d87a56244958416fd05976c58ca1a8/src/libcore/ops/function.rs"

	.globl	__ZN86_$LT$rayon..str..BytesProducer$u20$as$u20$rayon..iter..plumbing..UnindexedProducer$GT$5split17hf93f4b7ddd1771c4E
	.p2align	4, 0x90
__ZN86_$LT$rayon..str..BytesProducer$u20$as$u20$rayon..iter..plumbing..UnindexedProducer$GT$5split17hf93f4b7ddd1771c4E:
Lfunc_begin10:
	.loc	23 517 0
	.cfi_startproc
	pushq	%rbp
	.cfi_def_cfa_offset 16
	.cfi_offset %rbp, -16
	movq	%rsp, %rbp
	.cfi_def_cfa_register %rbp
	movq	%rdi, %rax
Ltmp149:
	.loc	23 31 15 prologue_end
	movq	%rdx, %rcx
	shrq	%rcx
Ltmp150:
	.loc	21 3179 9
	cmpq	%rdx, %rcx
	.loc	21 3303 21
	je	LBB10_4
Ltmp151:
	.loc	23 0 0 is_stmt 0
	leaq	(%rsi,%rcx), %r8
Ltmp152:
	.loc	24 2352 17 is_stmt 1
	movq	%rdx, %r9
	subq	%rcx, %r9
	xorl	%edi, %edi
Ltmp153:
	.p2align	4, 0x90
LBB10_2:
	.loc	23 25 5
	cmpb	$-65, (%r8,%rdi)
Ltmp154:
	.loc	24 2352 17
	jg	LBB10_6
Ltmp155:
	.loc	24 0 17 is_stmt 0
	incq	%rdi
Ltmp156:
	.loc	21 3179 9 is_stmt 1
	cmpq	%rdi, %r9
	.loc	21 3303 21
	jne	LBB10_2
Ltmp157:
	.p2align	4, 0x90
LBB10_4:
	.loc	21 3179 9
	testq	%rcx, %rcx
	.loc	21 3399 21
	je	LBB10_12
Ltmp158:
	.loc	23 25 5
	cmpb	$-64, -1(%rsi,%rcx)
Ltmp159:
	.loc	24 2411 25
	leaq	-1(%rcx), %rcx
Ltmp160:
	.loc	25 166 32
	jl	LBB10_4
	jmp	LBB10_7
Ltmp161:
LBB10_6:
	.loc	23 38 20
	addq	%rdi, %rcx
Ltmp162:
	jb	LBB10_15
Ltmp163:
LBB10_7:
	.loc	23 51 8
	testq	%rcx, %rcx
	.loc	23 51 5 is_stmt 0
	je	LBB10_12
Ltmp164:
	.loc	26 2303 26 is_stmt 1
	cmpq	%rdx, %rcx
	.loc	26 2303 12 is_stmt 0
	je	LBB10_13
Ltmp165:
	.loc	26 2307 13 is_stmt 1
	jae	LBB10_11
Ltmp166:
	.loc	26 2309 25
	cmpb	$-65, (%rsi,%rcx)
Ltmp167:
	.loc	26 2663 9
	jle	LBB10_11
Ltmp168:
LBB10_13:
	.loc	26 1908 23
	subq	%rcx, %rdx
Ltmp169:
	.loc	23 519 36
	movq	%rsi, (%rax)
Ltmp170:
	.loc	27 158 9
	addq	%rcx, %rsi
Ltmp171:
	.loc	23 519 36
	movq	%rcx, 8(%rax)
	movq	%rsi, 16(%rax)
	movq	%rdx, 24(%rax)
Ltmp172:
	.loc	23 525 6
	popq	%rbp
	retq
Ltmp173:
LBB10_12:
	.loc	23 523 21
	movq	%rsi, (%rax)
	movq	%rdx, 8(%rax)
	movq	$0, 16(%rax)
	.loc	23 525 6
	popq	%rbp
	retq
Ltmp174:
LBB10_11:
	.loc	26 2667 13
	leaq	l___unnamed_5(%rip), %r8
	movq	%rsi, %rdi
	movq	%rdx, %rsi
Ltmp175:
	xorl	%edx, %edx
Ltmp176:
	callq	__ZN4core3str16slice_error_fail17h6b29707aec812690E
Ltmp177:
LBB10_15:
	.loc	23 38 20
	leaq	_str.0(%rip), %rdi
Ltmp178:
	leaq	l___unnamed_7(%rip), %rdx
Ltmp179:
	movl	$28, %esi
Ltmp180:
	callq	__ZN4core9panicking5panic17h736ee47a631475c0E
Ltmp181:
Lfunc_end10:
	.cfi_endproc

	.globl	__ZN78_$LT$rayon..range..Iter$LT$u8$GT$$u20$as$u20$rayon..iter..ParallelIterator$GT$7opt_len17hb99ec4e7e05251b2E
	.p2align	4, 0x90
__ZN78_$LT$rayon..range..Iter$LT$u8$GT$$u20$as$u20$rayon..iter..ParallelIterator$GT$7opt_len17hb99ec4e7e05251b2E:
Lfunc_begin11:
	.file	30 "/Users/yingyuhang/.cargo/registry/src/github.com-1ecc6299db9ec823/rayon-1.3.1/src/range.rs"
	.loc	30 90 0
	.cfi_startproc
	pushq	%rbp
	.cfi_def_cfa_offset 16
	.cfi_offset %rbp, -16
	movq	%rsp, %rbp
	.cfi_def_cfa_register %rbp
Ltmp182:
	.loc	30 104 17 prologue_end
	movb	1(%rdi), %al
	xorl	%ecx, %ecx
Ltmp183:
	.file	31 "/rustc/a74d1862d4d87a56244958416fd05976c58ca1a8/src/libcore/iter/range.rs"
	.loc	31 84 17
	subb	(%rdi), %al
	movzbl	%al, %eax
	cmovbl	%ecx, %eax
	movzbl	%al, %edx
Ltmp184:
	.loc	30 92 14
	movl	$1, %eax
	popq	%rbp
	retq
Ltmp185:
Lfunc_end11:
	.cfi_endproc
	.file	32 "/rustc/a74d1862d4d87a56244958416fd05976c58ca1a8/src/libcore/iter/traits/exact_size.rs"

	.globl	__ZN85_$LT$rayon..range..Iter$LT$u8$GT$$u20$as$u20$rayon..iter..IndexedParallelIterator$GT$3len17he392a206b89681b6E
	.p2align	4, 0x90
__ZN85_$LT$rayon..range..Iter$LT$u8$GT$$u20$as$u20$rayon..iter..IndexedParallelIterator$GT$3len17he392a206b89681b6E:
Lfunc_begin12:
	.loc	30 103 0
	.cfi_startproc
	pushq	%rbp
	.cfi_def_cfa_offset 16
	.cfi_offset %rbp, -16
	movq	%rsp, %rbp
	.cfi_def_cfa_register %rbp
Ltmp186:
	.loc	30 104 17 prologue_end
	movb	1(%rdi), %al
	xorl	%ecx, %ecx
Ltmp187:
	.loc	31 84 17
	subb	(%rdi), %al
	movzbl	%al, %eax
	cmovbl	%ecx, %eax
	movzbl	%al, %eax
Ltmp188:
	.loc	30 105 14
	popq	%rbp
	retq
Ltmp189:
Lfunc_end12:
	.cfi_endproc

	.globl	__ZN88_$LT$rayon..range..IterProducer$LT$u8$GT$$u20$as$u20$rayon..iter..plumbing..Producer$GT$8split_at17h2303f667751a8834E
	.p2align	4, 0x90
__ZN88_$LT$rayon..range..IterProducer$LT$u8$GT$$u20$as$u20$rayon..iter..plumbing..Producer$GT$8split_at17h2303f667751a8834E:
Lfunc_begin13:
	.loc	30 122 0
	.cfi_startproc
	xorl	%eax, %eax
Ltmp190:
	.loc	31 84 17 prologue_end
	movl	%esi, %ecx
	subb	%dil, %cl
	movzbl	%cl, %ecx
	cmovbl	%eax, %ecx
	movzbl	%cl, %eax
Ltmp191:
	.loc	30 123 25
	cmpq	%rdx, %rax
	.loc	30 123 17 is_stmt 0
	jb	LBB13_2
Ltmp192:
	.loc	15 3320 17 is_stmt 1
	addb	%dil, %dl
Ltmp193:
	.loc	30 130 14
	movzbl	%sil, %ecx
	shll	$24, %ecx
	movzbl	%dl, %edx
	movl	%edx, %esi
	shll	$16, %esi
	shll	$8, %edx
	movzbl	%dil, %eax
	orl	%ecx, %eax
	orl	%esi, %eax
	orl	%edx, %eax
	retq
Ltmp194:
LBB13_2:
	pushq	%rbp
	.cfi_def_cfa_offset 16
	.cfi_offset %rbp, -16
	movq	%rsp, %rbp
	.cfi_def_cfa_register %rbp
	.loc	30 123 17
	leaq	l___unnamed_8(%rip), %rdi
	callq	__ZN3std9panicking11begin_panic17h66d784f99743cd79E
Ltmp195:
Lfunc_end13:
	.cfi_endproc

	.globl	__ZN79_$LT$rayon..range..Iter$LT$u16$GT$$u20$as$u20$rayon..iter..ParallelIterator$GT$7opt_len17h7e967a872be45ecbE
	.p2align	4, 0x90
__ZN79_$LT$rayon..range..Iter$LT$u16$GT$$u20$as$u20$rayon..iter..ParallelIterator$GT$7opt_len17h7e967a872be45ecbE:
Lfunc_begin14:
	.loc	30 90 0
	.cfi_startproc
	pushq	%rbp
	.cfi_def_cfa_offset 16
	.cfi_offset %rbp, -16
	movq	%rsp, %rbp
	.cfi_def_cfa_register %rbp
Ltmp196:
	.loc	30 104 17 prologue_end
	movzwl	2(%rdi), %eax
	xorl	%ecx, %ecx
Ltmp197:
	.loc	31 84 17
	subw	(%rdi), %ax
	cmovbl	%ecx, %eax
	movzwl	%ax, %edx
Ltmp198:
	.loc	30 92 14
	movl	$1, %eax
	popq	%rbp
	retq
Ltmp199:
Lfunc_end14:
	.cfi_endproc

	.globl	__ZN86_$LT$rayon..range..Iter$LT$u16$GT$$u20$as$u20$rayon..iter..IndexedParallelIterator$GT$3len17hbe3aa0eab261d492E
	.p2align	4, 0x90
__ZN86_$LT$rayon..range..Iter$LT$u16$GT$$u20$as$u20$rayon..iter..IndexedParallelIterator$GT$3len17hbe3aa0eab261d492E:
Lfunc_begin15:
	.loc	30 103 0
	.cfi_startproc
	pushq	%rbp
	.cfi_def_cfa_offset 16
	.cfi_offset %rbp, -16
	movq	%rsp, %rbp
	.cfi_def_cfa_register %rbp
Ltmp200:
	.loc	30 104 17 prologue_end
	movzwl	2(%rdi), %eax
	xorl	%ecx, %ecx
Ltmp201:
	.loc	31 84 17
	subw	(%rdi), %ax
	cmovbl	%ecx, %eax
	movzwl	%ax, %eax
Ltmp202:
	.loc	30 105 14
	popq	%rbp
	retq
Ltmp203:
Lfunc_end15:
	.cfi_endproc

	.globl	__ZN89_$LT$rayon..range..IterProducer$LT$u16$GT$$u20$as$u20$rayon..iter..plumbing..Producer$GT$8split_at17h7e3986e48c748527E
	.p2align	4, 0x90
__ZN89_$LT$rayon..range..IterProducer$LT$u16$GT$$u20$as$u20$rayon..iter..plumbing..Producer$GT$8split_at17h7e3986e48c748527E:
Lfunc_begin16:
	.loc	30 122 0
	.cfi_startproc
	xorl	%eax, %eax
Ltmp204:
	.loc	31 84 17 prologue_end
	movl	%esi, %ecx
	subw	%di, %cx
	cmovbl	%eax, %ecx
	movzwl	%cx, %eax
Ltmp205:
	.loc	30 123 25
	cmpq	%rdx, %rax
	.loc	30 123 17 is_stmt 0
	jb	LBB16_2
Ltmp206:
	.loc	15 3320 17 is_stmt 1
	leal	(%rdi,%rdx), %eax
Ltmp207:
	.loc	30 130 14
	movzwl	%si, %ecx
	shlq	$48, %rcx
	movzwl	%ax, %edx
Ltmp208:
	movq	%rdx, %rsi
	shlq	$32, %rsi
	shlq	$16, %rdx
	movzwl	%di, %eax
	orq	%rcx, %rax
	orq	%rsi, %rax
	orq	%rdx, %rax
	retq
Ltmp209:
LBB16_2:
	pushq	%rbp
	.cfi_def_cfa_offset 16
	.cfi_offset %rbp, -16
	movq	%rsp, %rbp
	.cfi_def_cfa_register %rbp
	.loc	30 123 17
	leaq	l___unnamed_9(%rip), %rdi
	callq	__ZN3std9panicking11begin_panic17h66d784f99743cd79E
Ltmp210:
Lfunc_end16:
	.cfi_endproc

	.globl	__ZN79_$LT$rayon..range..Iter$LT$u32$GT$$u20$as$u20$rayon..iter..ParallelIterator$GT$7opt_len17hd919303d3bac3574E
	.p2align	4, 0x90
__ZN79_$LT$rayon..range..Iter$LT$u32$GT$$u20$as$u20$rayon..iter..ParallelIterator$GT$7opt_len17hd919303d3bac3574E:
Lfunc_begin17:
	.loc	30 90 0
	.cfi_startproc
	pushq	%rbp
	.cfi_def_cfa_offset 16
	.cfi_offset %rbp, -16
	movq	%rsp, %rbp
	.cfi_def_cfa_register %rbp
Ltmp211:
	.loc	30 104 17 prologue_end
	movl	4(%rdi), %edx
	xorl	%eax, %eax
Ltmp212:
	.loc	31 84 17
	subl	(%rdi), %edx
	cmovbl	%eax, %edx
Ltmp213:
	.loc	30 92 14
	movl	$1, %eax
	popq	%rbp
	retq
Ltmp214:
Lfunc_end17:
	.cfi_endproc

	.globl	__ZN86_$LT$rayon..range..Iter$LT$u32$GT$$u20$as$u20$rayon..iter..IndexedParallelIterator$GT$3len17h9edbbdbee7e4d22bE
	.p2align	4, 0x90
__ZN86_$LT$rayon..range..Iter$LT$u32$GT$$u20$as$u20$rayon..iter..IndexedParallelIterator$GT$3len17h9edbbdbee7e4d22bE:
Lfunc_begin18:
	.loc	30 103 0
	.cfi_startproc
	pushq	%rbp
	.cfi_def_cfa_offset 16
	.cfi_offset %rbp, -16
	movq	%rsp, %rbp
	.cfi_def_cfa_register %rbp
Ltmp215:
	.loc	30 104 17 prologue_end
	movl	4(%rdi), %eax
	xorl	%ecx, %ecx
Ltmp216:
	.loc	31 84 17
	subl	(%rdi), %eax
	cmovbl	%ecx, %eax
Ltmp217:
	.loc	30 105 14
	popq	%rbp
	retq
Ltmp218:
Lfunc_end18:
	.cfi_endproc

	.globl	__ZN89_$LT$rayon..range..IterProducer$LT$u32$GT$$u20$as$u20$rayon..iter..plumbing..Producer$GT$8split_at17hb9c312ea86d902d3E
	.p2align	4, 0x90
__ZN89_$LT$rayon..range..IterProducer$LT$u32$GT$$u20$as$u20$rayon..iter..plumbing..Producer$GT$8split_at17hb9c312ea86d902d3E:
Lfunc_begin19:
	.loc	30 122 0
	.cfi_startproc
	pushq	%rbp
	.cfi_def_cfa_offset 16
	.cfi_offset %rbp, -16
	movq	%rsp, %rbp
	.cfi_def_cfa_register %rbp
	movq	%rdi, %rax
	xorl	%r8d, %r8d
Ltmp219:
	.loc	31 84 17 prologue_end
	movl	%edx, %edi
	subl	%esi, %edi
	cmovbl	%r8d, %edi
Ltmp220:
	.loc	30 123 25
	cmpq	%rcx, %rdi
	.loc	30 123 17 is_stmt 0
	jb	LBB19_2
Ltmp221:
	.loc	15 3320 17 is_stmt 1
	addl	%esi, %ecx
Ltmp222:
	.loc	30 129 17
	movl	%esi, (%rax)
	movl	%ecx, 4(%rax)
	movl	%ecx, 8(%rax)
	movl	%edx, 12(%rax)
Ltmp223:
	.loc	30 130 14
	popq	%rbp
	retq
Ltmp224:
LBB19_2:
	.loc	30 123 17
	leaq	l___unnamed_10(%rip), %rdi
	callq	__ZN3std9panicking11begin_panic17h66d784f99743cd79E
Ltmp225:
Lfunc_end19:
	.cfi_endproc

	.globl	__ZN81_$LT$rayon..range..Iter$LT$usize$GT$$u20$as$u20$rayon..iter..ParallelIterator$GT$7opt_len17h788034c57f023f90E
	.p2align	4, 0x90
__ZN81_$LT$rayon..range..Iter$LT$usize$GT$$u20$as$u20$rayon..iter..ParallelIterator$GT$7opt_len17h788034c57f023f90E:
Lfunc_begin20:
	.loc	30 90 0
	.cfi_startproc
	pushq	%rbp
	.cfi_def_cfa_offset 16
	.cfi_offset %rbp, -16
	movq	%rsp, %rbp
	.cfi_def_cfa_register %rbp
Ltmp226:
	.loc	30 104 17 prologue_end
	movq	8(%rdi), %rax
	xorl	%edx, %edx
Ltmp227:
	.loc	31 84 17
	subq	(%rdi), %rax
	cmovaeq	%rax, %rdx
Ltmp228:
	.loc	30 92 14
	movl	$1, %eax
	popq	%rbp
	retq
Ltmp229:
Lfunc_end20:
	.cfi_endproc

	.globl	__ZN88_$LT$rayon..range..Iter$LT$usize$GT$$u20$as$u20$rayon..iter..IndexedParallelIterator$GT$3len17h0143e8abe9a60dcdE
	.p2align	4, 0x90
__ZN88_$LT$rayon..range..Iter$LT$usize$GT$$u20$as$u20$rayon..iter..IndexedParallelIterator$GT$3len17h0143e8abe9a60dcdE:
Lfunc_begin21:
	.loc	30 103 0
	.cfi_startproc
	pushq	%rbp
	.cfi_def_cfa_offset 16
	.cfi_offset %rbp, -16
	movq	%rsp, %rbp
	.cfi_def_cfa_register %rbp
Ltmp230:
	.loc	30 104 17 prologue_end
	movq	8(%rdi), %rcx
	xorl	%eax, %eax
Ltmp231:
	.loc	31 84 17
	subq	(%rdi), %rcx
	cmovaeq	%rcx, %rax
Ltmp232:
	.loc	30 105 14
	popq	%rbp
	retq
Ltmp233:
Lfunc_end21:
	.cfi_endproc

	.globl	__ZN91_$LT$rayon..range..IterProducer$LT$usize$GT$$u20$as$u20$rayon..iter..plumbing..Producer$GT$8split_at17hc7f527e32448c4b8E
	.p2align	4, 0x90
__ZN91_$LT$rayon..range..IterProducer$LT$usize$GT$$u20$as$u20$rayon..iter..plumbing..Producer$GT$8split_at17hc7f527e32448c4b8E:
Lfunc_begin22:
	.loc	30 122 0
	.cfi_startproc
	pushq	%rbp
	.cfi_def_cfa_offset 16
	.cfi_offset %rbp, -16
	movq	%rsp, %rbp
	.cfi_def_cfa_register %rbp
	movq	%rdi, %rax
	xorl	%r8d, %r8d
Ltmp234:
	.loc	31 84 17 prologue_end
	movq	%rdx, %rdi
	subq	%rsi, %rdi
	cmovaeq	%rdi, %r8
Ltmp235:
	.loc	30 123 25
	cmpq	%rcx, %r8
	.loc	30 123 17 is_stmt 0
	jb	LBB22_2
Ltmp236:
	.loc	15 3320 17 is_stmt 1
	addq	%rsi, %rcx
Ltmp237:
	.loc	30 129 17
	movq	%rsi, (%rax)
	movq	%rcx, 8(%rax)
	movq	%rcx, 16(%rax)
	movq	%rdx, 24(%rax)
Ltmp238:
	.loc	30 130 14
	popq	%rbp
	retq
Ltmp239:
LBB22_2:
	.loc	30 123 17
	leaq	l___unnamed_11(%rip), %rdi
	callq	__ZN3std9panicking11begin_panic17h66d784f99743cd79E
Ltmp240:
Lfunc_end22:
	.cfi_endproc

	.globl	__ZN78_$LT$rayon..range..Iter$LT$i8$GT$$u20$as$u20$rayon..iter..ParallelIterator$GT$7opt_len17hc9b527f461c49485E
	.p2align	4, 0x90
__ZN78_$LT$rayon..range..Iter$LT$i8$GT$$u20$as$u20$rayon..iter..ParallelIterator$GT$7opt_len17hc9b527f461c49485E:
Lfunc_begin23:
	.loc	30 90 0
	.cfi_startproc
	pushq	%rbp
	.cfi_def_cfa_offset 16
	.cfi_offset %rbp, -16
	movq	%rsp, %rbp
	.cfi_def_cfa_register %rbp
Ltmp241:
	.loc	30 104 17 prologue_end
	movb	1(%rdi), %al
	xorl	%ecx, %ecx
Ltmp242:
	.loc	31 121 20
	subb	(%rdi), %al
	.loc	31 121 17 is_stmt 0
	movzbl	%al, %eax
	cmovlel	%ecx, %eax
	movzbl	%al, %edx
Ltmp243:
	.loc	30 92 14 is_stmt 1
	movl	$1, %eax
	popq	%rbp
	retq
Ltmp244:
Lfunc_end23:
	.cfi_endproc

	.globl	__ZN85_$LT$rayon..range..Iter$LT$i8$GT$$u20$as$u20$rayon..iter..IndexedParallelIterator$GT$3len17h83d68326737e6d97E
	.p2align	4, 0x90
__ZN85_$LT$rayon..range..Iter$LT$i8$GT$$u20$as$u20$rayon..iter..IndexedParallelIterator$GT$3len17h83d68326737e6d97E:
Lfunc_begin24:
	.loc	30 103 0
	.cfi_startproc
	pushq	%rbp
	.cfi_def_cfa_offset 16
	.cfi_offset %rbp, -16
	movq	%rsp, %rbp
	.cfi_def_cfa_register %rbp
Ltmp245:
	.loc	30 104 17 prologue_end
	movb	1(%rdi), %al
	xorl	%ecx, %ecx
Ltmp246:
	.loc	31 121 20
	subb	(%rdi), %al
	.loc	31 121 17 is_stmt 0
	movzbl	%al, %eax
	cmovlel	%ecx, %eax
	movzbl	%al, %eax
Ltmp247:
	.loc	30 105 14 is_stmt 1
	popq	%rbp
	retq
Ltmp248:
Lfunc_end24:
	.cfi_endproc

	.globl	__ZN88_$LT$rayon..range..IterProducer$LT$i8$GT$$u20$as$u20$rayon..iter..plumbing..Producer$GT$9into_iter17h66094328830fa6b0E
	.p2align	4, 0x90
__ZN88_$LT$rayon..range..IterProducer$LT$i8$GT$$u20$as$u20$rayon..iter..plumbing..Producer$GT$9into_iter17h66094328830fa6b0E:
Lfunc_begin25:
	.loc	30 118 0
	.cfi_startproc
	pushq	%rbp
	.cfi_def_cfa_offset 16
	.cfi_offset %rbp, -16
	movq	%rsp, %rbp
	.cfi_def_cfa_register %rbp
	movl	%esi, %edx
Ltmp249:
	movl	%edi, %eax
Ltmp250:
	.loc	30 120 14 prologue_end
	popq	%rbp
	retq
Ltmp251:
Lfunc_end25:
	.cfi_endproc

	.globl	__ZN88_$LT$rayon..range..IterProducer$LT$i8$GT$$u20$as$u20$rayon..iter..plumbing..Producer$GT$8split_at17h93cc08940c22b90fE
	.p2align	4, 0x90
__ZN88_$LT$rayon..range..IterProducer$LT$i8$GT$$u20$as$u20$rayon..iter..plumbing..Producer$GT$8split_at17h93cc08940c22b90fE:
Lfunc_begin26:
	.loc	30 122 0
	.cfi_startproc
	xorl	%eax, %eax
Ltmp252:
	.loc	31 121 20 prologue_end
	movl	%esi, %ecx
	subb	%dil, %cl
	.loc	31 121 17 is_stmt 0
	movzbl	%cl, %ecx
	cmovlel	%eax, %ecx
	movzbl	%cl, %eax
Ltmp253:
	.loc	30 123 25 is_stmt 1
	cmpq	%rdx, %rax
	.loc	30 123 17 is_stmt 0
	jb	LBB26_2
Ltmp254:
	.loc	15 1247 17 is_stmt 1
	addb	%dil, %dl
Ltmp255:
	.loc	30 130 14
	movzbl	%sil, %ecx
	shll	$24, %ecx
	movzbl	%dl, %edx
	movl	%edx, %esi
	shll	$16, %esi
	shll	$8, %edx
	movzbl	%dil, %eax
	orl	%ecx, %eax
	orl	%esi, %eax
	orl	%edx, %eax
	retq
Ltmp256:
LBB26_2:
	pushq	%rbp
	.cfi_def_cfa_offset 16
	.cfi_offset %rbp, -16
	movq	%rsp, %rbp
	.cfi_def_cfa_register %rbp
	.loc	30 123 17
	leaq	l___unnamed_12(%rip), %rdi
	callq	__ZN3std9panicking11begin_panic17h66d784f99743cd79E
Ltmp257:
Lfunc_end26:
	.cfi_endproc

	.globl	__ZN79_$LT$rayon..range..Iter$LT$i16$GT$$u20$as$u20$rayon..iter..ParallelIterator$GT$7opt_len17h8a8499f55d5db928E
	.p2align	4, 0x90
__ZN79_$LT$rayon..range..Iter$LT$i16$GT$$u20$as$u20$rayon..iter..ParallelIterator$GT$7opt_len17h8a8499f55d5db928E:
Lfunc_begin27:
	.loc	30 90 0
	.cfi_startproc
	pushq	%rbp
	.cfi_def_cfa_offset 16
	.cfi_offset %rbp, -16
	movq	%rsp, %rbp
	.cfi_def_cfa_register %rbp
Ltmp258:
	.loc	30 104 17 prologue_end
	movzwl	2(%rdi), %eax
	xorl	%ecx, %ecx
Ltmp259:
	.loc	31 121 20
	subw	(%rdi), %ax
	.loc	31 121 17 is_stmt 0
	cmovlel	%ecx, %eax
	movzwl	%ax, %edx
Ltmp260:
	.loc	30 92 14 is_stmt 1
	movl	$1, %eax
	popq	%rbp
	retq
Ltmp261:
Lfunc_end27:
	.cfi_endproc

	.globl	__ZN86_$LT$rayon..range..Iter$LT$i16$GT$$u20$as$u20$rayon..iter..IndexedParallelIterator$GT$3len17hf5eedf09ea0e7a12E
	.p2align	4, 0x90
__ZN86_$LT$rayon..range..Iter$LT$i16$GT$$u20$as$u20$rayon..iter..IndexedParallelIterator$GT$3len17hf5eedf09ea0e7a12E:
Lfunc_begin28:
	.loc	30 103 0
	.cfi_startproc
	pushq	%rbp
	.cfi_def_cfa_offset 16
	.cfi_offset %rbp, -16
	movq	%rsp, %rbp
	.cfi_def_cfa_register %rbp
Ltmp262:
	.loc	30 104 17 prologue_end
	movzwl	2(%rdi), %eax
	xorl	%ecx, %ecx
Ltmp263:
	.loc	31 121 20
	subw	(%rdi), %ax
	.loc	31 121 17 is_stmt 0
	cmovlel	%ecx, %eax
	movzwl	%ax, %eax
Ltmp264:
	.loc	30 105 14 is_stmt 1
	popq	%rbp
	retq
Ltmp265:
Lfunc_end28:
	.cfi_endproc

	.globl	__ZN89_$LT$rayon..range..IterProducer$LT$i16$GT$$u20$as$u20$rayon..iter..plumbing..Producer$GT$9into_iter17h7f20eb9a08fc9061E
	.p2align	4, 0x90
__ZN89_$LT$rayon..range..IterProducer$LT$i16$GT$$u20$as$u20$rayon..iter..plumbing..Producer$GT$9into_iter17h7f20eb9a08fc9061E:
Lfunc_begin29:
	.loc	30 118 0
	.cfi_startproc
	pushq	%rbp
	.cfi_def_cfa_offset 16
	.cfi_offset %rbp, -16
	movq	%rsp, %rbp
	.cfi_def_cfa_register %rbp
	movl	%esi, %edx
Ltmp266:
	movl	%edi, %eax
Ltmp267:
	.loc	30 120 14 prologue_end
	popq	%rbp
	retq
Ltmp268:
Lfunc_end29:
	.cfi_endproc

	.globl	__ZN89_$LT$rayon..range..IterProducer$LT$i16$GT$$u20$as$u20$rayon..iter..plumbing..Producer$GT$8split_at17h57f6aef060276405E
	.p2align	4, 0x90
__ZN89_$LT$rayon..range..IterProducer$LT$i16$GT$$u20$as$u20$rayon..iter..plumbing..Producer$GT$8split_at17h57f6aef060276405E:
Lfunc_begin30:
	.loc	30 122 0
	.cfi_startproc
	xorl	%eax, %eax
Ltmp269:
	.loc	31 121 20 prologue_end
	movl	%esi, %ecx
	subw	%di, %cx
	.loc	31 121 17 is_stmt 0
	cmovlel	%eax, %ecx
	movzwl	%cx, %eax
Ltmp270:
	.loc	30 123 25 is_stmt 1
	cmpq	%rdx, %rax
	.loc	30 123 17 is_stmt 0
	jb	LBB30_2
Ltmp271:
	.loc	15 1247 17 is_stmt 1
	leal	(%rdi,%rdx), %eax
Ltmp272:
	.loc	30 130 14
	movzwl	%si, %ecx
	shlq	$48, %rcx
	movzwl	%ax, %edx
Ltmp273:
	movq	%rdx, %rsi
	shlq	$32, %rsi
	shlq	$16, %rdx
	movzwl	%di, %eax
	orq	%rcx, %rax
	orq	%rsi, %rax
	orq	%rdx, %rax
	retq
Ltmp274:
LBB30_2:
	pushq	%rbp
	.cfi_def_cfa_offset 16
	.cfi_offset %rbp, -16
	movq	%rsp, %rbp
	.cfi_def_cfa_register %rbp
	.loc	30 123 17
	leaq	l___unnamed_13(%rip), %rdi
	callq	__ZN3std9panicking11begin_panic17h66d784f99743cd79E
Ltmp275:
Lfunc_end30:
	.cfi_endproc

	.globl	__ZN79_$LT$rayon..range..Iter$LT$i32$GT$$u20$as$u20$rayon..iter..ParallelIterator$GT$7opt_len17h5ed8bc131a00fccbE
	.p2align	4, 0x90
__ZN79_$LT$rayon..range..Iter$LT$i32$GT$$u20$as$u20$rayon..iter..ParallelIterator$GT$7opt_len17h5ed8bc131a00fccbE:
Lfunc_begin31:
	.loc	30 90 0
	.cfi_startproc
	pushq	%rbp
	.cfi_def_cfa_offset 16
	.cfi_offset %rbp, -16
	movq	%rsp, %rbp
	.cfi_def_cfa_register %rbp
Ltmp276:
	.loc	30 104 17 prologue_end
	movl	4(%rdi), %edx
	xorl	%eax, %eax
Ltmp277:
	.loc	31 121 20
	subl	(%rdi), %edx
	.loc	31 121 17 is_stmt 0
	cmovlel	%eax, %edx
Ltmp278:
	.loc	30 92 14 is_stmt 1
	movl	$1, %eax
	popq	%rbp
	retq
Ltmp279:
Lfunc_end31:
	.cfi_endproc

	.globl	__ZN86_$LT$rayon..range..Iter$LT$i32$GT$$u20$as$u20$rayon..iter..IndexedParallelIterator$GT$3len17h9db73ebf2f42b566E
	.p2align	4, 0x90
__ZN86_$LT$rayon..range..Iter$LT$i32$GT$$u20$as$u20$rayon..iter..IndexedParallelIterator$GT$3len17h9db73ebf2f42b566E:
Lfunc_begin32:
	.loc	30 103 0
	.cfi_startproc
	pushq	%rbp
	.cfi_def_cfa_offset 16
	.cfi_offset %rbp, -16
	movq	%rsp, %rbp
	.cfi_def_cfa_register %rbp
Ltmp280:
	.loc	30 104 17 prologue_end
	movl	4(%rdi), %eax
	xorl	%ecx, %ecx
Ltmp281:
	.loc	31 121 20
	subl	(%rdi), %eax
	.loc	31 121 17 is_stmt 0
	cmovlel	%ecx, %eax
Ltmp282:
	.loc	30 105 14 is_stmt 1
	popq	%rbp
	retq
Ltmp283:
Lfunc_end32:
	.cfi_endproc

	.globl	__ZN89_$LT$rayon..range..IterProducer$LT$i32$GT$$u20$as$u20$rayon..iter..plumbing..Producer$GT$9into_iter17h00e2cd954c1fd7beE
	.p2align	4, 0x90
__ZN89_$LT$rayon..range..IterProducer$LT$i32$GT$$u20$as$u20$rayon..iter..plumbing..Producer$GT$9into_iter17h00e2cd954c1fd7beE:
Lfunc_begin33:
	.loc	30 118 0
	.cfi_startproc
	pushq	%rbp
	.cfi_def_cfa_offset 16
	.cfi_offset %rbp, -16
	movq	%rsp, %rbp
	.cfi_def_cfa_register %rbp
	movl	%esi, %edx
Ltmp284:
	movl	%edi, %eax
Ltmp285:
	.loc	30 120 14 prologue_end
	popq	%rbp
	retq
Ltmp286:
Lfunc_end33:
	.cfi_endproc

	.globl	__ZN89_$LT$rayon..range..IterProducer$LT$i32$GT$$u20$as$u20$rayon..iter..plumbing..Producer$GT$8split_at17h2edfc7189df1c3c9E
	.p2align	4, 0x90
__ZN89_$LT$rayon..range..IterProducer$LT$i32$GT$$u20$as$u20$rayon..iter..plumbing..Producer$GT$8split_at17h2edfc7189df1c3c9E:
Lfunc_begin34:
	.loc	30 122 0
	.cfi_startproc
	pushq	%rbp
	.cfi_def_cfa_offset 16
	.cfi_offset %rbp, -16
	movq	%rsp, %rbp
	.cfi_def_cfa_register %rbp
	movq	%rdi, %rax
	xorl	%r8d, %r8d
Ltmp287:
	.loc	31 121 20 prologue_end
	movl	%edx, %edi
	subl	%esi, %edi
	.loc	31 121 17 is_stmt 0
	cmovlel	%r8d, %edi
Ltmp288:
	.loc	30 123 25 is_stmt 1
	cmpq	%rcx, %rdi
	.loc	30 123 17 is_stmt 0
	jb	LBB34_2
Ltmp289:
	.loc	15 1247 17 is_stmt 1
	addl	%esi, %ecx
Ltmp290:
	.loc	30 129 17
	movl	%esi, (%rax)
	movl	%ecx, 4(%rax)
	movl	%ecx, 8(%rax)
	movl	%edx, 12(%rax)
Ltmp291:
	.loc	30 130 14
	popq	%rbp
	retq
Ltmp292:
LBB34_2:
	.loc	30 123 17
	leaq	l___unnamed_14(%rip), %rdi
	callq	__ZN3std9panicking11begin_panic17h66d784f99743cd79E
Ltmp293:
Lfunc_end34:
	.cfi_endproc

	.globl	__ZN81_$LT$rayon..range..Iter$LT$isize$GT$$u20$as$u20$rayon..iter..ParallelIterator$GT$7opt_len17h6eb79e487ea420dfE
	.p2align	4, 0x90
__ZN81_$LT$rayon..range..Iter$LT$isize$GT$$u20$as$u20$rayon..iter..ParallelIterator$GT$7opt_len17h6eb79e487ea420dfE:
Lfunc_begin35:
	.loc	30 90 0
	.cfi_startproc
	pushq	%rbp
	.cfi_def_cfa_offset 16
	.cfi_offset %rbp, -16
	movq	%rsp, %rbp
	.cfi_def_cfa_register %rbp
Ltmp294:
	.loc	30 104 17 prologue_end
	movq	8(%rdi), %rax
	xorl	%edx, %edx
Ltmp295:
	.loc	31 121 20
	subq	(%rdi), %rax
	.loc	31 121 17 is_stmt 0
	cmovgq	%rax, %rdx
Ltmp296:
	.loc	30 92 14 is_stmt 1
	movl	$1, %eax
	popq	%rbp
	retq
Ltmp297:
Lfunc_end35:
	.cfi_endproc

	.globl	__ZN88_$LT$rayon..range..Iter$LT$isize$GT$$u20$as$u20$rayon..iter..IndexedParallelIterator$GT$3len17h24b94173abeddafeE
	.p2align	4, 0x90
__ZN88_$LT$rayon..range..Iter$LT$isize$GT$$u20$as$u20$rayon..iter..IndexedParallelIterator$GT$3len17h24b94173abeddafeE:
Lfunc_begin36:
	.loc	30 103 0
	.cfi_startproc
	pushq	%rbp
	.cfi_def_cfa_offset 16
	.cfi_offset %rbp, -16
	movq	%rsp, %rbp
	.cfi_def_cfa_register %rbp
Ltmp298:
	.loc	30 104 17 prologue_end
	movq	8(%rdi), %rcx
	xorl	%eax, %eax
Ltmp299:
	.loc	31 121 20
	subq	(%rdi), %rcx
	.loc	31 121 17 is_stmt 0
	cmovgq	%rcx, %rax
Ltmp300:
	.loc	30 105 14 is_stmt 1
	popq	%rbp
	retq
Ltmp301:
Lfunc_end36:
	.cfi_endproc

	.globl	__ZN91_$LT$rayon..range..IterProducer$LT$isize$GT$$u20$as$u20$rayon..iter..plumbing..Producer$GT$9into_iter17h6226cd6b27616665E
	.p2align	4, 0x90
__ZN91_$LT$rayon..range..IterProducer$LT$isize$GT$$u20$as$u20$rayon..iter..plumbing..Producer$GT$9into_iter17h6226cd6b27616665E:
Lfunc_begin37:
	.loc	30 118 0
	.cfi_startproc
	pushq	%rbp
	.cfi_def_cfa_offset 16
	.cfi_offset %rbp, -16
	movq	%rsp, %rbp
	.cfi_def_cfa_register %rbp
	movq	%rsi, %rdx
Ltmp302:
	movq	%rdi, %rax
Ltmp303:
	.loc	30 120 14 prologue_end
	popq	%rbp
	retq
Ltmp304:
Lfunc_end37:
	.cfi_endproc

	.globl	__ZN91_$LT$rayon..range..IterProducer$LT$isize$GT$$u20$as$u20$rayon..iter..plumbing..Producer$GT$8split_at17h0c13629594adc3caE
	.p2align	4, 0x90
__ZN91_$LT$rayon..range..IterProducer$LT$isize$GT$$u20$as$u20$rayon..iter..plumbing..Producer$GT$8split_at17h0c13629594adc3caE:
Lfunc_begin38:
	.loc	30 122 0
	.cfi_startproc
	pushq	%rbp
	.cfi_def_cfa_offset 16
	.cfi_offset %rbp, -16
	movq	%rsp, %rbp
	.cfi_def_cfa_register %rbp
	movq	%rdi, %rax
	xorl	%r8d, %r8d
Ltmp305:
	.loc	31 121 20 prologue_end
	movq	%rdx, %rdi
	subq	%rsi, %rdi
	.loc	31 121 17 is_stmt 0
	cmovgq	%rdi, %r8
Ltmp306:
	.loc	30 123 25 is_stmt 1
	cmpq	%rcx, %r8
	.loc	30 123 17 is_stmt 0
	jb	LBB38_2
Ltmp307:
	.loc	15 1247 17 is_stmt 1
	addq	%rsi, %rcx
Ltmp308:
	.loc	30 129 17
	movq	%rsi, (%rax)
	movq	%rcx, 8(%rax)
	movq	%rcx, 16(%rax)
	movq	%rdx, 24(%rax)
Ltmp309:
	.loc	30 130 14
	popq	%rbp
	retq
Ltmp310:
LBB38_2:
	.loc	30 123 17
	leaq	l___unnamed_15(%rip), %rdi
	callq	__ZN3std9panicking11begin_panic17h66d784f99743cd79E
Ltmp311:
Lfunc_end38:
	.cfi_endproc

	.globl	__ZN97_$LT$core..ops..range..Range$LT$u64$GT$$u20$as$u20$rayon..range..UnindexedRangeLen$LT$u64$GT$$GT$3len17he437162e0bcecffdE
	.p2align	4, 0x90
__ZN97_$LT$core..ops..range..Range$LT$u64$GT$$u20$as$u20$rayon..range..UnindexedRangeLen$LT$u64$GT$$GT$3len17he437162e0bcecffdE:
Lfunc_begin39:
	.loc	30 142 0
	.cfi_startproc
	pushq	%rbp
	.cfi_def_cfa_offset 16
	.cfi_offset %rbp, -16
	movq	%rsp, %rbp
	.cfi_def_cfa_register %rbp
Ltmp312:
	.loc	30 143 37 prologue_end
	movq	8(%rdi), %rcx
Ltmp313:
	.loc	30 0 37 is_stmt 0
	xorl	%eax, %eax
Ltmp314:
	.loc	30 144 17 is_stmt 1
	subq	(%rdi), %rcx
Ltmp315:
	cmovaeq	%rcx, %rax
Ltmp316:
	.loc	30 149 14
	popq	%rbp
	retq
Ltmp317:
Lfunc_end39:
	.cfi_endproc

	.globl	__ZN79_$LT$rayon..range..Iter$LT$u64$GT$$u20$as$u20$rayon..iter..ParallelIterator$GT$7opt_len17h53f79c6f53658ed6E
	.p2align	4, 0x90
__ZN79_$LT$rayon..range..Iter$LT$u64$GT$$u20$as$u20$rayon..iter..ParallelIterator$GT$7opt_len17h53f79c6f53658ed6E:
Lfunc_begin40:
	.loc	30 175 0
	.cfi_startproc
	pushq	%rbp
	.cfi_def_cfa_offset 16
	.cfi_offset %rbp, -16
	movq	%rsp, %rbp
	.cfi_def_cfa_register %rbp
Ltmp318:
	.loc	30 143 37 prologue_end
	movq	8(%rdi), %rax
Ltmp319:
	.loc	30 0 37 is_stmt 0
	xorl	%edx, %edx
Ltmp320:
	.loc	30 144 17 is_stmt 1
	subq	(%rdi), %rax
Ltmp321:
	cmovaeq	%rax, %rdx
Ltmp322:
	.loc	30 182 14
	movl	$1, %eax
	popq	%rbp
	retq
Ltmp323:
Lfunc_end40:
	.cfi_endproc

	.globl	__ZN98_$LT$rayon..range..IterProducer$LT$u64$GT$$u20$as$u20$rayon..iter..plumbing..UnindexedProducer$GT$5split17ha8d8aa8c02fdc084E
	.p2align	4, 0x90
__ZN98_$LT$rayon..range..IterProducer$LT$u64$GT$$u20$as$u20$rayon..iter..plumbing..UnindexedProducer$GT$5split17ha8d8aa8c02fdc084E:
Lfunc_begin41:
	.loc	30 188 0
	.cfi_startproc
	pushq	%rbp
	.cfi_def_cfa_offset 16
	.cfi_offset %rbp, -16
	movq	%rsp, %rbp
	.cfi_def_cfa_register %rbp
Ltmp324:
	movq	%rdi, %rax
	xorl	%ecx, %ecx
Ltmp325:
	.loc	30 144 17 prologue_end
	movq	%rdx, %rdi
	subq	%rsi, %rdi
	cmovbq	%rcx, %rdi
Ltmp326:
	.loc	30 189 29
	shrq	%rdi
Ltmp327:
	.loc	30 190 17
	je	LBB41_2
Ltmp328:
	.loc	15 3320 17
	addq	%rsi, %rdi
Ltmp329:
	.loc	30 194 21
	movq	%rdi, 24(%rax)
	movq	%rdx, 32(%rax)
	movl	$1, %ecx
Ltmp330:
	.loc	30 0 0 is_stmt 0
	movq	%rdi, %rdx
Ltmp331:
LBB41_2:
	.loc	30 196 21 is_stmt 1
	movq	%rsi, (%rax)
	movq	%rdx, 8(%rax)
	movq	%rcx, 16(%rax)
Ltmp332:
	.loc	30 198 14
	popq	%rbp
	retq
Ltmp333:
Lfunc_end41:
	.cfi_endproc

	.globl	__ZN97_$LT$core..ops..range..Range$LT$i64$GT$$u20$as$u20$rayon..range..UnindexedRangeLen$LT$u64$GT$$GT$3len17ha5fed2a78b611c5cE
	.p2align	4, 0x90
__ZN97_$LT$core..ops..range..Range$LT$i64$GT$$u20$as$u20$rayon..range..UnindexedRangeLen$LT$u64$GT$$GT$3len17ha5fed2a78b611c5cE:
Lfunc_begin42:
	.loc	30 142 0
	.cfi_startproc
	pushq	%rbp
	.cfi_def_cfa_offset 16
	.cfi_offset %rbp, -16
	movq	%rsp, %rbp
	.cfi_def_cfa_register %rbp
Ltmp334:
	.loc	30 143 37 prologue_end
	movq	8(%rdi), %rcx
Ltmp335:
	.loc	30 0 37 is_stmt 0
	xorl	%eax, %eax
Ltmp336:
	.loc	30 144 20 is_stmt 1
	subq	(%rdi), %rcx
Ltmp337:
	.loc	30 144 17 is_stmt 0
	cmovgq	%rcx, %rax
Ltmp338:
	.loc	30 149 14 is_stmt 1
	popq	%rbp
	retq
Ltmp339:
Lfunc_end42:
	.cfi_endproc

	.globl	__ZN79_$LT$rayon..range..Iter$LT$i64$GT$$u20$as$u20$rayon..iter..ParallelIterator$GT$7opt_len17h23fefba8be23229dE
	.p2align	4, 0x90
__ZN79_$LT$rayon..range..Iter$LT$i64$GT$$u20$as$u20$rayon..iter..ParallelIterator$GT$7opt_len17h23fefba8be23229dE:
Lfunc_begin43:
	.loc	30 175 0
	.cfi_startproc
	pushq	%rbp
	.cfi_def_cfa_offset 16
	.cfi_offset %rbp, -16
	movq	%rsp, %rbp
	.cfi_def_cfa_register %rbp
Ltmp340:
	.loc	30 143 37 prologue_end
	movq	8(%rdi), %rax
Ltmp341:
	.loc	30 0 37 is_stmt 0
	xorl	%edx, %edx
Ltmp342:
	.loc	30 144 20 is_stmt 1
	subq	(%rdi), %rax
Ltmp343:
	.loc	30 144 17 is_stmt 0
	cmovgq	%rax, %rdx
Ltmp344:
	.loc	30 182 14 is_stmt 1
	movl	$1, %eax
	popq	%rbp
	retq
Ltmp345:
Lfunc_end43:
	.cfi_endproc

	.globl	__ZN98_$LT$rayon..range..IterProducer$LT$i64$GT$$u20$as$u20$rayon..iter..plumbing..UnindexedProducer$GT$5split17he9661c1aaa9dd482E
	.p2align	4, 0x90
__ZN98_$LT$rayon..range..IterProducer$LT$i64$GT$$u20$as$u20$rayon..iter..plumbing..UnindexedProducer$GT$5split17he9661c1aaa9dd482E:
Lfunc_begin44:
	.loc	30 188 0
	.cfi_startproc
	pushq	%rbp
	.cfi_def_cfa_offset 16
	.cfi_offset %rbp, -16
	movq	%rsp, %rbp
	.cfi_def_cfa_register %rbp
Ltmp346:
	movq	%rdi, %rax
Ltmp347:
	xorl	%ecx, %ecx
Ltmp348:
	.loc	30 144 20 prologue_end
	movq	%rdx, %rdi
	subq	%rsi, %rdi
Ltmp349:
	.loc	30 190 17
	jle	LBB44_3
Ltmp350:
	.loc	30 0 0 is_stmt 0
	shrq	%rdi
Ltmp351:
	.loc	30 190 17
	je	LBB44_3
Ltmp352:
	.loc	15 1247 17 is_stmt 1
	addq	%rsi, %rdi
Ltmp353:
	.loc	30 194 21
	movq	%rdi, 24(%rax)
	movq	%rdx, 32(%rax)
	movl	$1, %ecx
Ltmp354:
	.loc	30 0 0 is_stmt 0
	movq	%rdi, %rdx
Ltmp355:
LBB44_3:
	.loc	30 196 21 is_stmt 1
	movq	%rsi, (%rax)
	movq	%rdx, 8(%rax)
	movq	%rcx, 16(%rax)
Ltmp356:
	.loc	30 198 14
	popq	%rbp
	retq
Ltmp357:
Lfunc_end44:
	.cfi_endproc

	.globl	__ZN99_$LT$core..ops..range..Range$LT$u128$GT$$u20$as$u20$rayon..range..UnindexedRangeLen$LT$u128$GT$$GT$3len17hd7f505703fd68d49E
	.p2align	4, 0x90
__ZN99_$LT$core..ops..range..Range$LT$u128$GT$$u20$as$u20$rayon..range..UnindexedRangeLen$LT$u128$GT$$GT$3len17hd7f505703fd68d49E:
Lfunc_begin45:
	.loc	30 142 0
	.cfi_startproc
	pushq	%rbp
	.cfi_def_cfa_offset 16
	.cfi_offset %rbp, -16
	movq	%rsp, %rbp
	.cfi_def_cfa_register %rbp
Ltmp358:
	.loc	30 143 37 prologue_end
	movq	16(%rdi), %rax
Ltmp359:
	.loc	30 0 37 is_stmt 0
	xorl	%ecx, %ecx
Ltmp360:
	.loc	30 144 17 is_stmt 1
	subq	(%rdi), %rax
Ltmp361:
	.loc	30 143 37
	movq	24(%rdi), %rdx
Ltmp362:
	.loc	30 144 17
	sbbq	8(%rdi), %rdx
Ltmp363:
	cmovbq	%rcx, %rax
	cmovbq	%rcx, %rdx
Ltmp364:
	.loc	30 149 14
	popq	%rbp
	retq
Ltmp365:
Lfunc_end45:
	.cfi_endproc

	.globl	__ZN80_$LT$rayon..range..Iter$LT$u128$GT$$u20$as$u20$rayon..iter..ParallelIterator$GT$7opt_len17h9d4c363f913b855eE
	.p2align	4, 0x90
__ZN80_$LT$rayon..range..Iter$LT$u128$GT$$u20$as$u20$rayon..iter..ParallelIterator$GT$7opt_len17h9d4c363f913b855eE:
Lfunc_begin46:
	.loc	30 175 0
	.cfi_startproc
	pushq	%rbp
	.cfi_def_cfa_offset 16
	.cfi_offset %rbp, -16
	movq	%rsp, %rbp
	.cfi_def_cfa_register %rbp
Ltmp366:
	.loc	30 143 37 prologue_end
	movq	16(%rdi), %rdx
Ltmp367:
	.loc	30 0 37 is_stmt 0
	xorl	%eax, %eax
Ltmp368:
	.loc	30 144 17 is_stmt 1
	subq	(%rdi), %rdx
Ltmp369:
	.loc	30 143 37
	movq	24(%rdi), %rcx
Ltmp370:
	.loc	30 144 17
	sbbq	8(%rdi), %rcx
Ltmp371:
	cmovbq	%rax, %rdx
Ltmp372:
	cmovbq	%rax, %rcx
Ltmp373:
	.loc	30 177 20
	xorl	%eax, %eax
	testq	%rcx, %rcx
	sete	%al
Ltmp374:
	.loc	30 182 14
	popq	%rbp
	retq
Ltmp375:
Lfunc_end46:
	.cfi_endproc

	.globl	__ZN99_$LT$rayon..range..IterProducer$LT$u128$GT$$u20$as$u20$rayon..iter..plumbing..UnindexedProducer$GT$5split17h6d36d356cfd5bf32E
	.p2align	4, 0x90
__ZN99_$LT$rayon..range..IterProducer$LT$u128$GT$$u20$as$u20$rayon..iter..plumbing..UnindexedProducer$GT$5split17h6d36d356cfd5bf32E:
Lfunc_begin47:
	.loc	30 188 0
	.cfi_startproc
	pushq	%rbp
	.cfi_def_cfa_offset 16
	.cfi_offset %rbp, -16
	movq	%rsp, %rbp
	.cfi_def_cfa_register %rbp
	movq	%rdi, %rax
Ltmp376:
	xorl	%r10d, %r10d
Ltmp377:
	.loc	30 144 17 prologue_end
	movq	%rcx, %r9
	subq	%rsi, %r9
	movq	%r8, %r11
	sbbq	%rdx, %r11
	cmovbq	%r10, %r9
	cmovbq	%r10, %r11
Ltmp378:
	.loc	30 189 29
	shrdq	$1, %r11, %r9
Ltmp379:
	shrq	%r11
Ltmp380:
	.loc	30 190 20
	movq	%r9, %rdi
	orq	%r11, %rdi
	.loc	30 190 17 is_stmt 0
	je	LBB47_1
Ltmp381:
	.loc	15 3320 17 is_stmt 1
	addq	%rsi, %r9
Ltmp382:
	adcq	%rdx, %r11
Ltmp383:
	.loc	30 194 21
	movq	%rsi, (%rax)
	movq	%rdx, 8(%rax)
	movq	%r9, 40(%rax)
	movq	%r11, 48(%rax)
	movq	%rcx, 56(%rax)
	movq	%r8, 64(%rax)
	movl	$1, %edx
Ltmp384:
	.loc	30 0 0 is_stmt 0
	movq	%r9, %rcx
Ltmp385:
	movq	%r11, %r8
Ltmp386:
	jmp	LBB47_3
Ltmp387:
LBB47_1:
	.loc	30 196 21 is_stmt 1
	movq	%rsi, (%rax)
	movq	%rdx, 8(%rax)
	xorl	%edx, %edx
Ltmp388:
LBB47_3:
	movq	%rcx, 16(%rax)
	movq	%r8, 24(%rax)
	movq	%rdx, 32(%rax)
Ltmp389:
	.loc	30 198 14
	popq	%rbp
	retq
Ltmp390:
Lfunc_end47:
	.cfi_endproc

	.globl	__ZN99_$LT$core..ops..range..Range$LT$i128$GT$$u20$as$u20$rayon..range..UnindexedRangeLen$LT$u128$GT$$GT$3len17h93dae83616697869E
	.p2align	4, 0x90
__ZN99_$LT$core..ops..range..Range$LT$i128$GT$$u20$as$u20$rayon..range..UnindexedRangeLen$LT$u128$GT$$GT$3len17h93dae83616697869E:
Lfunc_begin48:
	.loc	30 142 0
	.cfi_startproc
	pushq	%rbp
	.cfi_def_cfa_offset 16
	.cfi_offset %rbp, -16
	movq	%rsp, %rbp
	.cfi_def_cfa_register %rbp
Ltmp391:
	.loc	30 143 30 prologue_end
	movq	(%rdi), %r8
Ltmp392:
	movq	8(%rdi), %rsi
Ltmp393:
	.loc	30 143 37 is_stmt 0
	movq	24(%rdi), %rcx
Ltmp394:
	movq	16(%rdi), %rdi
Ltmp395:
	.loc	15 1271 17 is_stmt 1
	movq	%rdi, %rax
	subq	%r8, %rax
	movq	%rcx, %rdx
	sbbq	%rsi, %rdx
	xorl	%r9d, %r9d
Ltmp396:
	.loc	30 144 20
	cmpq	%rdi, %r8
	sbbq	%rcx, %rsi
Ltmp397:
	.loc	30 144 17 is_stmt 0
	cmovgeq	%r9, %rax
	cmovgeq	%r9, %rdx
Ltmp398:
	.loc	30 149 14 is_stmt 1
	popq	%rbp
	retq
Ltmp399:
Lfunc_end48:
	.cfi_endproc

	.globl	__ZN80_$LT$rayon..range..Iter$LT$i128$GT$$u20$as$u20$rayon..iter..ParallelIterator$GT$7opt_len17h58bae2367d4eae21E
	.p2align	4, 0x90
__ZN80_$LT$rayon..range..Iter$LT$i128$GT$$u20$as$u20$rayon..iter..ParallelIterator$GT$7opt_len17h58bae2367d4eae21E:
Lfunc_begin49:
	.loc	30 175 0
	.cfi_startproc
	pushq	%rbp
	.cfi_def_cfa_offset 16
	.cfi_offset %rbp, -16
	movq	%rsp, %rbp
	.cfi_def_cfa_register %rbp
Ltmp400:
	.loc	30 143 30 prologue_end
	movq	(%rdi), %r8
Ltmp401:
	movq	8(%rdi), %rcx
Ltmp402:
	.loc	30 143 37 is_stmt 0
	movq	24(%rdi), %rax
Ltmp403:
	movq	16(%rdi), %rdi
Ltmp404:
	.loc	15 1271 17 is_stmt 1
	movq	%rdi, %rdx
	subq	%r8, %rdx
	movq	%rax, %rsi
	sbbq	%rcx, %rsi
	xorl	%r9d, %r9d
Ltmp405:
	.loc	30 144 20
	cmpq	%rdi, %r8
	sbbq	%rax, %rcx
Ltmp406:
	.loc	30 144 17 is_stmt 0
	cmovgeq	%r9, %rdx
Ltmp407:
	cmovgeq	%r9, %rsi
Ltmp408:
	.loc	30 177 20 is_stmt 1
	xorl	%eax, %eax
Ltmp409:
	testq	%rsi, %rsi
	sete	%al
Ltmp410:
	.loc	30 182 14
	popq	%rbp
	retq
Ltmp411:
Lfunc_end49:
	.cfi_endproc

	.globl	__ZN99_$LT$rayon..range..IterProducer$LT$i128$GT$$u20$as$u20$rayon..iter..plumbing..UnindexedProducer$GT$5split17hfa4578fcb71f01fdE
	.p2align	4, 0x90
__ZN99_$LT$rayon..range..IterProducer$LT$i128$GT$$u20$as$u20$rayon..iter..plumbing..UnindexedProducer$GT$5split17hfa4578fcb71f01fdE:
Lfunc_begin50:
	.loc	30 188 0
	.cfi_startproc
	pushq	%rbp
	.cfi_def_cfa_offset 16
	.cfi_offset %rbp, -16
	movq	%rsp, %rbp
	.cfi_def_cfa_register %rbp
Ltmp412:
	.loc	15 1271 17 prologue_end
	movq	%rcx, %r9
	subq	%rsi, %r9
	movq	%r8, %r10
	sbbq	%rdx, %r10
Ltmp413:
	.loc	15 0 17 is_stmt 0
	movq	%rdi, %rax
Ltmp414:
	.loc	30 144 20 is_stmt 1
	cmpq	%rcx, %rsi
	movq	%rdx, %rdi
	sbbq	%r8, %rdi
Ltmp415:
	.loc	30 190 17
	jge	LBB50_2
Ltmp416:
	.loc	30 0 0 is_stmt 0
	shrdq	$1, %r10, %r9
	shrq	%r10
Ltmp417:
	.loc	30 190 17
	movq	%r9, %rdi
	orq	%r10, %rdi
	je	LBB50_2
Ltmp418:
	.loc	15 1247 17 is_stmt 1
	addq	%rsi, %r9
Ltmp419:
	adcq	%rdx, %r10
Ltmp420:
	.loc	30 194 21
	movq	%rsi, (%rax)
	movq	%rdx, 8(%rax)
	movq	%r9, 40(%rax)
	movq	%r10, 48(%rax)
	movq	%rcx, 56(%rax)
	movq	%r8, 64(%rax)
	movl	$1, %edx
Ltmp421:
	.loc	30 0 0 is_stmt 0
	movq	%r9, %rcx
Ltmp422:
	movq	%r10, %r8
Ltmp423:
	jmp	LBB50_4
Ltmp424:
LBB50_2:
	.loc	30 196 21 is_stmt 1
	movq	%rsi, (%rax)
	movq	%rdx, 8(%rax)
	xorl	%edx, %edx
LBB50_4:
	movq	%rcx, 16(%rax)
	movq	%r8, 24(%rax)
	movq	%rdx, 32(%rax)
Ltmp425:
	.loc	30 198 14
	popq	%rbp
	retq
Ltmp426:
Lfunc_end50:
	.cfi_endproc

	.globl	__ZN95_$LT$rayon..range_inclusive..Iter$LT$u8$GT$$u20$as$u20$rayon..iter..IndexedParallelIterator$GT$3len17h6041df060d6f3841E
	.p2align	4, 0x90
__ZN95_$LT$rayon..range_inclusive..Iter$LT$u8$GT$$u20$as$u20$rayon..iter..IndexedParallelIterator$GT$3len17h6041df060d6f3841E:
Lfunc_begin51:
	.file	33 "/Users/yingyuhang/.cargo/registry/src/github.com-1ecc6299db9ec823/rayon-1.3.1/src/range_inclusive.rs"
	.loc	33 120 0
	.cfi_startproc
	pushq	%rbp
	.cfi_def_cfa_offset 16
	.cfi_offset %rbp, -16
	movq	%rsp, %rbp
	.cfi_def_cfa_register %rbp
Ltmp427:
	.loc	33 121 17 prologue_end
	movb	(%rdi), %cl
	movb	1(%rdi), %dl
	xorl	%eax, %eax
Ltmp428:
	.file	34 "/rustc/a74d1862d4d87a56244958416fd05976c58ca1a8/src/libcore/ops/range.rs"
	.loc	34 508 9
	cmpb	%dl, %cl
Ltmp429:
	.loc	31 358 9
	ja	LBB51_3
Ltmp430:
	cmpb	$0, 2(%rdi)
	jne	LBB51_3
Ltmp431:
	.loc	31 0 9 is_stmt 0
	xorl	%eax, %eax
Ltmp432:
	.loc	31 84 17 is_stmt 1
	subb	%cl, %dl
	movzbl	%dl, %ecx
	cmovbl	%eax, %ecx
	movzbl	%cl, %eax
Ltmp433:
	.loc	15 3221 17
	incq	%rax
Ltmp434:
LBB51_3:
	.loc	33 122 14
	popq	%rbp
	retq
Ltmp435:
Lfunc_end51:
	.cfi_endproc

	.globl	__ZN88_$LT$rayon..range_inclusive..Iter$LT$u8$GT$$u20$as$u20$rayon..iter..ParallelIterator$GT$7opt_len17h4be947df91e14b61E
	.p2align	4, 0x90
__ZN88_$LT$rayon..range_inclusive..Iter$LT$u8$GT$$u20$as$u20$rayon..iter..ParallelIterator$GT$7opt_len17h4be947df91e14b61E:
Lfunc_begin52:
	.loc	33 101 0
	.cfi_startproc
	pushq	%rbp
	.cfi_def_cfa_offset 16
	.cfi_offset %rbp, -16
	movq	%rsp, %rbp
	.cfi_def_cfa_register %rbp
Ltmp436:
	.loc	33 59 15 prologue_end
	movb	(%rdi), %sil
Ltmp437:
	movb	1(%rdi), %cl
Ltmp438:
	.loc	33 0 15 is_stmt 0
	xorl	%edx, %edx
Ltmp439:
	.loc	34 508 9 is_stmt 1
	movl	%ecx, %eax
	subb	%sil, %al
Ltmp440:
	.loc	33 59 40
	jb	LBB52_5
Ltmp441:
	cmpb	$0, 2(%rdi)
	jne	LBB52_5
Ltmp442:
	.loc	15 3632 30
	incb	%cl
Ltmp443:
	.loc	33 102 17
	jne	LBB52_4
Ltmp444:
	.loc	31 84 17
	movzbl	%al, %edx
Ltmp445:
	.loc	15 3632 30
	incq	%rdx
Ltmp446:
LBB52_5:
	.loc	33 103 14
	movl	$1, %eax
	popq	%rbp
	retq
Ltmp447:
LBB52_4:
	.loc	33 0 14 is_stmt 0
	xorl	%eax, %eax
Ltmp448:
	.loc	31 84 17 is_stmt 1
	subb	%sil, %cl
Ltmp449:
	movzbl	%cl, %ecx
	cmovbl	%eax, %ecx
	movzbl	%cl, %edx
Ltmp450:
	.loc	33 103 14
	movl	$1, %eax
	popq	%rbp
	retq
Ltmp451:
Lfunc_end52:
	.cfi_endproc
	.file	35 "/Users/yingyuhang/.cargo/registry/src/github.com-1ecc6299db9ec823/rayon-1.3.1/src/iter/chain.rs"

	.globl	__ZN96_$LT$rayon..range_inclusive..Iter$LT$u16$GT$$u20$as$u20$rayon..iter..IndexedParallelIterator$GT$3len17hdb134f8e0abb00efE
	.p2align	4, 0x90
__ZN96_$LT$rayon..range_inclusive..Iter$LT$u16$GT$$u20$as$u20$rayon..iter..IndexedParallelIterator$GT$3len17hdb134f8e0abb00efE:
Lfunc_begin53:
	.loc	33 120 0
	.cfi_startproc
	pushq	%rbp
	.cfi_def_cfa_offset 16
	.cfi_offset %rbp, -16
	movq	%rsp, %rbp
	.cfi_def_cfa_register %rbp
Ltmp452:
	.loc	33 121 17 prologue_end
	movzwl	(%rdi), %edx
	movzwl	2(%rdi), %ecx
	xorl	%eax, %eax
Ltmp453:
	.loc	34 508 9
	cmpw	%cx, %dx
Ltmp454:
	.loc	31 358 9
	ja	LBB53_3
Ltmp455:
	cmpb	$0, 4(%rdi)
	jne	LBB53_3
Ltmp456:
	.loc	31 0 9 is_stmt 0
	xorl	%eax, %eax
Ltmp457:
	.loc	31 84 17 is_stmt 1
	subw	%dx, %cx
	cmovbl	%eax, %ecx
	movzwl	%cx, %eax
Ltmp458:
	.loc	15 3221 17
	incq	%rax
Ltmp459:
LBB53_3:
	.loc	33 122 14
	popq	%rbp
	retq
Ltmp460:
Lfunc_end53:
	.cfi_endproc

	.globl	__ZN89_$LT$rayon..range_inclusive..Iter$LT$u16$GT$$u20$as$u20$rayon..iter..ParallelIterator$GT$7opt_len17hdd20047a2b79fdb8E
	.p2align	4, 0x90
__ZN89_$LT$rayon..range_inclusive..Iter$LT$u16$GT$$u20$as$u20$rayon..iter..ParallelIterator$GT$7opt_len17hdd20047a2b79fdb8E:
Lfunc_begin54:
	.loc	33 101 0
	.cfi_startproc
	pushq	%rbp
	.cfi_def_cfa_offset 16
	.cfi_offset %rbp, -16
	movq	%rsp, %rbp
	.cfi_def_cfa_register %rbp
Ltmp461:
	.loc	33 59 15 prologue_end
	movzwl	(%rdi), %eax
	movzwl	2(%rdi), %ecx
Ltmp462:
	.loc	33 0 15 is_stmt 0
	xorl	%edx, %edx
Ltmp463:
	.loc	34 508 9 is_stmt 1
	cmpw	%ax, %cx
Ltmp464:
	.loc	33 59 40
	jb	LBB54_5
Ltmp465:
	cmpb	$0, 4(%rdi)
	jne	LBB54_5
Ltmp466:
	.loc	15 3632 30
	movl	%ecx, %edx
	incw	%dx
Ltmp467:
	.loc	33 102 17
	jne	LBB54_4
Ltmp468:
	.loc	31 84 17
	subl	%eax, %ecx
	movzwl	%cx, %edx
Ltmp469:
	.loc	15 3632 30
	incq	%rdx
Ltmp470:
LBB54_5:
	.loc	33 103 14
	movl	$1, %eax
	popq	%rbp
	retq
Ltmp471:
LBB54_4:
	.loc	33 0 14 is_stmt 0
	xorl	%ecx, %ecx
Ltmp472:
	.loc	31 84 17 is_stmt 1
	subw	%ax, %dx
Ltmp473:
	cmovbl	%ecx, %edx
	movzwl	%dx, %edx
Ltmp474:
	.loc	33 103 14
	movl	$1, %eax
	popq	%rbp
	retq
Ltmp475:
Lfunc_end54:
	.cfi_endproc

	.globl	__ZN95_$LT$rayon..range_inclusive..Iter$LT$i8$GT$$u20$as$u20$rayon..iter..IndexedParallelIterator$GT$3len17h78aaeb72c6c94b8eE
	.p2align	4, 0x90
__ZN95_$LT$rayon..range_inclusive..Iter$LT$i8$GT$$u20$as$u20$rayon..iter..IndexedParallelIterator$GT$3len17h78aaeb72c6c94b8eE:
Lfunc_begin55:
	.loc	33 120 0
	.cfi_startproc
	pushq	%rbp
	.cfi_def_cfa_offset 16
	.cfi_offset %rbp, -16
	movq	%rsp, %rbp
	.cfi_def_cfa_register %rbp
Ltmp476:
	.loc	33 121 17 prologue_end
	movb	(%rdi), %cl
	movb	1(%rdi), %dl
	xorl	%eax, %eax
Ltmp477:
	.loc	34 508 9
	cmpb	%cl, %dl
Ltmp478:
	.loc	31 358 9
	jl	LBB55_3
Ltmp479:
	cmpb	$0, 2(%rdi)
	jne	LBB55_3
Ltmp480:
	.loc	31 0 9 is_stmt 0
	xorl	%eax, %eax
Ltmp481:
	.loc	31 121 20 is_stmt 1
	subb	%cl, %dl
	.loc	31 121 17 is_stmt 0
	movzbl	%dl, %ecx
	cmovlel	%eax, %ecx
	movzbl	%cl, %eax
Ltmp482:
	.loc	15 3221 17 is_stmt 1
	incq	%rax
Ltmp483:
LBB55_3:
	.loc	33 122 14
	popq	%rbp
	retq
Ltmp484:
Lfunc_end55:
	.cfi_endproc

	.globl	__ZN88_$LT$rayon..range_inclusive..Iter$LT$i8$GT$$u20$as$u20$rayon..iter..ParallelIterator$GT$7opt_len17h90f2b9996f190a8aE
	.p2align	4, 0x90
__ZN88_$LT$rayon..range_inclusive..Iter$LT$i8$GT$$u20$as$u20$rayon..iter..ParallelIterator$GT$7opt_len17h90f2b9996f190a8aE:
Lfunc_begin56:
	.loc	33 101 0
	.cfi_startproc
	pushq	%rbp
	.cfi_def_cfa_offset 16
	.cfi_offset %rbp, -16
	movq	%rsp, %rbp
	.cfi_def_cfa_register %rbp
Ltmp485:
	.loc	33 59 15 prologue_end
	movb	(%rdi), %al
Ltmp486:
	movb	1(%rdi), %cl
Ltmp487:
	.loc	33 0 15 is_stmt 0
	xorl	%edx, %edx
Ltmp488:
	.loc	34 508 9 is_stmt 1
	cmpb	%al, %cl
Ltmp489:
	.loc	33 59 40
	jl	LBB56_5
Ltmp490:
	cmpb	$0, 2(%rdi)
	jne	LBB56_5
Ltmp491:
	.loc	15 1607 30
	movl	%ecx, %edx
	incb	%dl
Ltmp492:
	.loc	33 102 17
	jno	LBB56_4
Ltmp493:
	.loc	33 0 17 is_stmt 0
	xorl	%edx, %edx
Ltmp494:
	.loc	31 121 20 is_stmt 1
	subb	%al, %cl
	.loc	31 121 17 is_stmt 0
	movzbl	%cl, %eax
	cmovlel	%edx, %eax
	movzbl	%al, %edx
Ltmp495:
	.loc	15 3632 30 is_stmt 1
	incq	%rdx
Ltmp496:
LBB56_5:
	.loc	33 103 14
	movl	$1, %eax
	popq	%rbp
	retq
Ltmp497:
LBB56_4:
	.loc	33 0 14 is_stmt 0
	xorl	%ecx, %ecx
Ltmp498:
	.loc	31 121 20 is_stmt 1
	subb	%al, %dl
Ltmp499:
	.loc	31 121 17 is_stmt 0
	movzbl	%dl, %eax
	cmovlel	%ecx, %eax
	movzbl	%al, %edx
Ltmp500:
	.loc	33 103 14 is_stmt 1
	movl	$1, %eax
	popq	%rbp
	retq
Ltmp501:
Lfunc_end56:
	.cfi_endproc

	.globl	__ZN96_$LT$rayon..range_inclusive..Iter$LT$i16$GT$$u20$as$u20$rayon..iter..IndexedParallelIterator$GT$3len17h606cf78ca47847bbE
	.p2align	4, 0x90
__ZN96_$LT$rayon..range_inclusive..Iter$LT$i16$GT$$u20$as$u20$rayon..iter..IndexedParallelIterator$GT$3len17h606cf78ca47847bbE:
Lfunc_begin57:
	.loc	33 120 0
	.cfi_startproc
	pushq	%rbp
	.cfi_def_cfa_offset 16
	.cfi_offset %rbp, -16
	movq	%rsp, %rbp
	.cfi_def_cfa_register %rbp
Ltmp502:
	.loc	33 121 17 prologue_end
	movzwl	(%rdi), %edx
	movzwl	2(%rdi), %ecx
	xorl	%eax, %eax
Ltmp503:
	.loc	34 508 9
	cmpw	%dx, %cx
Ltmp504:
	.loc	31 358 9
	jl	LBB57_3
Ltmp505:
	cmpb	$0, 4(%rdi)
	jne	LBB57_3
Ltmp506:
	.loc	31 0 9 is_stmt 0
	xorl	%eax, %eax
Ltmp507:
	.loc	31 121 20 is_stmt 1
	subw	%dx, %cx
	.loc	31 121 17 is_stmt 0
	cmovlel	%eax, %ecx
	movzwl	%cx, %eax
Ltmp508:
	.loc	15 3221 17 is_stmt 1
	incq	%rax
Ltmp509:
LBB57_3:
	.loc	33 122 14
	popq	%rbp
	retq
Ltmp510:
Lfunc_end57:
	.cfi_endproc

	.globl	__ZN89_$LT$rayon..range_inclusive..Iter$LT$i16$GT$$u20$as$u20$rayon..iter..ParallelIterator$GT$7opt_len17h12f1c25959972d4eE
	.p2align	4, 0x90
__ZN89_$LT$rayon..range_inclusive..Iter$LT$i16$GT$$u20$as$u20$rayon..iter..ParallelIterator$GT$7opt_len17h12f1c25959972d4eE:
Lfunc_begin58:
	.loc	33 101 0
	.cfi_startproc
	pushq	%rbp
	.cfi_def_cfa_offset 16
	.cfi_offset %rbp, -16
	movq	%rsp, %rbp
	.cfi_def_cfa_register %rbp
Ltmp511:
	.loc	33 59 15 prologue_end
	movzwl	(%rdi), %ecx
	movzwl	2(%rdi), %eax
Ltmp512:
	.loc	33 0 15 is_stmt 0
	xorl	%edx, %edx
Ltmp513:
	.loc	34 508 9 is_stmt 1
	cmpw	%cx, %ax
Ltmp514:
	.loc	33 59 40
	jl	LBB58_5
Ltmp515:
	cmpb	$0, 4(%rdi)
	jne	LBB58_5
Ltmp516:
	.loc	15 1607 30
	movl	%eax, %edx
	incw	%dx
Ltmp517:
	.loc	33 102 17
	jno	LBB58_4
Ltmp518:
	.loc	33 0 17 is_stmt 0
	xorl	%edx, %edx
Ltmp519:
	.loc	31 121 20 is_stmt 1
	subw	%cx, %ax
	.loc	31 121 17 is_stmt 0
	cmovlel	%edx, %eax
	movzwl	%ax, %edx
Ltmp520:
	.loc	15 3632 30 is_stmt 1
	incq	%rdx
Ltmp521:
LBB58_5:
	.loc	33 103 14
	movl	$1, %eax
	popq	%rbp
	retq
Ltmp522:
LBB58_4:
	.loc	33 0 14 is_stmt 0
	xorl	%eax, %eax
Ltmp523:
	.loc	31 121 20 is_stmt 1
	subw	%cx, %dx
Ltmp524:
	.loc	31 121 17 is_stmt 0
	cmovlel	%eax, %edx
	movzwl	%dx, %edx
Ltmp525:
	.loc	33 103 14 is_stmt 1
	movl	$1, %eax
	popq	%rbp
	retq
Ltmp526:
Lfunc_end58:
	.cfi_endproc

	.globl	__ZN91_$LT$rayon..range_inclusive..Iter$LT$usize$GT$$u20$as$u20$rayon..iter..ParallelIterator$GT$7opt_len17he79506e85e374afaE
	.p2align	4, 0x90
__ZN91_$LT$rayon..range_inclusive..Iter$LT$usize$GT$$u20$as$u20$rayon..iter..ParallelIterator$GT$7opt_len17he79506e85e374afaE:
Lfunc_begin59:
	.loc	33 101 0
	.cfi_startproc
	pushq	%rbp
	.cfi_def_cfa_offset 16
	.cfi_offset %rbp, -16
	movq	%rsp, %rbp
	.cfi_def_cfa_register %rbp
Ltmp527:
	.loc	33 59 15 prologue_end
	movq	(%rdi), %r8
Ltmp528:
	movq	8(%rdi), %rcx
Ltmp529:
	.loc	33 0 15 is_stmt 0
	xorl	%edx, %edx
Ltmp530:
	.loc	34 508 9 is_stmt 1
	movq	%rcx, %rsi
	movl	$1, %eax
	subq	%r8, %rsi
Ltmp531:
	.loc	33 59 40
	jb	LBB59_5
Ltmp532:
	cmpb	$0, 16(%rdi)
	jne	LBB59_5
Ltmp533:
	.loc	15 3632 30
	incq	%rcx
Ltmp534:
	.loc	33 102 17
	jne	LBB59_4
Ltmp535:
	.loc	15 2934 30
	xorl	%eax, %eax
Ltmp536:
	.loc	15 3632 30
	incq	%rsi
Ltmp537:
	.loc	15 2934 30
	setne	%al
Ltmp538:
	.loc	33 0 0 is_stmt 0
	movq	%rsi, %rdx
Ltmp539:
	.loc	33 103 14 is_stmt 1
	popq	%rbp
	retq
Ltmp540:
LBB59_4:
	.loc	33 0 14 is_stmt 0
	xorl	%edx, %edx
Ltmp541:
	.loc	31 84 17 is_stmt 1
	subq	%r8, %rcx
Ltmp542:
	cmovaeq	%rcx, %rdx
Ltmp543:
LBB59_5:
	.loc	33 103 14
	popq	%rbp
	retq
Ltmp544:
Lfunc_end59:
	.cfi_endproc

	.globl	__ZN91_$LT$rayon..range_inclusive..Iter$LT$isize$GT$$u20$as$u20$rayon..iter..ParallelIterator$GT$7opt_len17hd5fe5d8df20d1976E
	.p2align	4, 0x90
__ZN91_$LT$rayon..range_inclusive..Iter$LT$isize$GT$$u20$as$u20$rayon..iter..ParallelIterator$GT$7opt_len17hd5fe5d8df20d1976E:
Lfunc_begin60:
	.loc	33 101 0
	.cfi_startproc
	pushq	%rbp
	.cfi_def_cfa_offset 16
	.cfi_offset %rbp, -16
	movq	%rsp, %rbp
	.cfi_def_cfa_register %rbp
Ltmp545:
	.loc	33 59 15 prologue_end
	movq	(%rdi), %rcx
Ltmp546:
	movq	8(%rdi), %rsi
Ltmp547:
	.loc	33 0 15 is_stmt 0
	xorl	%edx, %edx
Ltmp548:
	movl	$1, %eax
Ltmp549:
	.loc	34 508 9 is_stmt 1
	cmpq	%rcx, %rsi
Ltmp550:
	.loc	33 59 40
	jl	LBB60_5
Ltmp551:
	cmpb	$0, 16(%rdi)
	jne	LBB60_5
Ltmp552:
	.loc	15 1607 30
	movq	%rsi, %rdi
Ltmp553:
	.loc	15 0 30 is_stmt 0
	xorl	%edx, %edx
	.loc	15 1607 30
	incq	%rdi
Ltmp554:
	.loc	33 102 17 is_stmt 1
	jno	LBB60_4
Ltmp555:
	.loc	31 121 20
	subq	%rcx, %rsi
	.loc	31 121 17 is_stmt 0
	cmovgq	%rsi, %rdx
Ltmp556:
	.loc	15 2934 30 is_stmt 1
	xorl	%eax, %eax
Ltmp557:
	.loc	15 3632 30
	incq	%rdx
Ltmp558:
	.loc	15 2934 30
	setne	%al
Ltmp559:
	.loc	33 103 14
	popq	%rbp
	retq
Ltmp560:
LBB60_4:
	.loc	31 121 20
	subq	%rcx, %rdi
Ltmp561:
	.loc	31 121 17 is_stmt 0
	cmovgq	%rdi, %rdx
Ltmp562:
LBB60_5:
	.loc	33 103 14 is_stmt 1
	popq	%rbp
	retq
Ltmp563:
Lfunc_end60:
	.cfi_endproc

	.globl	__ZN89_$LT$rayon..range_inclusive..Iter$LT$u32$GT$$u20$as$u20$rayon..iter..ParallelIterator$GT$7opt_len17hb6aa38f551f6adfdE
	.p2align	4, 0x90
__ZN89_$LT$rayon..range_inclusive..Iter$LT$u32$GT$$u20$as$u20$rayon..iter..ParallelIterator$GT$7opt_len17hb6aa38f551f6adfdE:
Lfunc_begin61:
	.loc	33 101 0
	.cfi_startproc
	pushq	%rbp
	.cfi_def_cfa_offset 16
	.cfi_offset %rbp, -16
	movq	%rsp, %rbp
	.cfi_def_cfa_register %rbp
Ltmp564:
	.loc	33 59 15 prologue_end
	movl	(%rdi), %eax
	movl	4(%rdi), %ecx
Ltmp565:
	.loc	33 0 15 is_stmt 0
	xorl	%edx, %edx
Ltmp566:
	.loc	34 508 9 is_stmt 1
	cmpl	%eax, %ecx
Ltmp567:
	.loc	33 59 40
	jb	LBB61_5
Ltmp568:
	cmpb	$0, 8(%rdi)
	jne	LBB61_5
Ltmp569:
	.loc	15 3632 30
	movl	%ecx, %edx
	incl	%edx
Ltmp570:
	.loc	33 102 17
	jne	LBB61_4
Ltmp571:
	.loc	31 84 17
	subq	%rax, %rcx
Ltmp572:
	.loc	15 3632 30
	incq	%rcx
Ltmp573:
	.loc	33 0 0 is_stmt 0
	movq	%rcx, %rdx
Ltmp574:
LBB61_5:
	.loc	33 103 14 is_stmt 1
	movl	$1, %eax
	popq	%rbp
	retq
Ltmp575:
LBB61_4:
	.loc	33 0 14 is_stmt 0
	xorl	%ecx, %ecx
Ltmp576:
	.loc	31 84 17 is_stmt 1
	subl	%eax, %edx
Ltmp577:
	cmovbl	%ecx, %edx
Ltmp578:
	.loc	33 103 14
	movl	$1, %eax
	popq	%rbp
	retq
Ltmp579:
Lfunc_end61:
	.cfi_endproc

	.globl	__ZN89_$LT$rayon..range_inclusive..Iter$LT$i32$GT$$u20$as$u20$rayon..iter..ParallelIterator$GT$7opt_len17hf763896426642e20E
	.p2align	4, 0x90
__ZN89_$LT$rayon..range_inclusive..Iter$LT$i32$GT$$u20$as$u20$rayon..iter..ParallelIterator$GT$7opt_len17hf763896426642e20E:
Lfunc_begin62:
	.loc	33 101 0
	.cfi_startproc
	pushq	%rbp
	.cfi_def_cfa_offset 16
	.cfi_offset %rbp, -16
	movq	%rsp, %rbp
	.cfi_def_cfa_register %rbp
Ltmp580:
	.loc	33 59 15 prologue_end
	movl	(%rdi), %ecx
Ltmp581:
	movl	4(%rdi), %eax
Ltmp582:
	.loc	33 0 15 is_stmt 0
	xorl	%edx, %edx
Ltmp583:
	.loc	34 508 9 is_stmt 1
	cmpl	%ecx, %eax
Ltmp584:
	.loc	33 59 40
	jl	LBB62_5
Ltmp585:
	cmpb	$0, 8(%rdi)
	jne	LBB62_5
Ltmp586:
	.loc	15 1607 30
	movl	%eax, %edx
	incl	%edx
Ltmp587:
	.loc	33 102 17
	jno	LBB62_4
Ltmp588:
	.loc	33 0 17 is_stmt 0
	xorl	%edx, %edx
Ltmp589:
	.loc	31 121 20 is_stmt 1
	subl	%ecx, %eax
	.loc	31 121 17 is_stmt 0
	cmovlel	%edx, %eax
Ltmp590:
	.loc	15 3632 30 is_stmt 1
	incq	%rax
Ltmp591:
	.loc	33 0 0 is_stmt 0
	movq	%rax, %rdx
Ltmp592:
LBB62_5:
	.loc	33 103 14 is_stmt 1
	movl	$1, %eax
	popq	%rbp
	retq
Ltmp593:
LBB62_4:
	.loc	33 0 14 is_stmt 0
	xorl	%eax, %eax
Ltmp594:
	.loc	31 121 20 is_stmt 1
	subl	%ecx, %edx
Ltmp595:
	.loc	31 121 17 is_stmt 0
	cmovlel	%eax, %edx
Ltmp596:
	.loc	33 103 14 is_stmt 1
	movl	$1, %eax
	popq	%rbp
	retq
Ltmp597:
Lfunc_end62:
	.cfi_endproc

	.globl	__ZN89_$LT$rayon..range_inclusive..Iter$LT$u64$GT$$u20$as$u20$rayon..iter..ParallelIterator$GT$7opt_len17h930ef6f6d2976a4dE
	.p2align	4, 0x90
__ZN89_$LT$rayon..range_inclusive..Iter$LT$u64$GT$$u20$as$u20$rayon..iter..ParallelIterator$GT$7opt_len17h930ef6f6d2976a4dE:
Lfunc_begin63:
	.loc	33 101 0
	.cfi_startproc
	pushq	%rbp
	.cfi_def_cfa_offset 16
	.cfi_offset %rbp, -16
	movq	%rsp, %rbp
	.cfi_def_cfa_register %rbp
Ltmp598:
	.loc	33 59 15 prologue_end
	movq	(%rdi), %r8
Ltmp599:
	movq	8(%rdi), %rcx
Ltmp600:
	.loc	33 0 15 is_stmt 0
	xorl	%edx, %edx
Ltmp601:
	.loc	34 508 9 is_stmt 1
	movq	%rcx, %rsi
	movl	$1, %eax
	subq	%r8, %rsi
Ltmp602:
	.loc	33 59 40
	jb	LBB63_5
Ltmp603:
	cmpb	$0, 16(%rdi)
	jne	LBB63_5
Ltmp604:
	.loc	15 3632 30
	incq	%rcx
Ltmp605:
	.loc	33 102 17
	jne	LBB63_4
Ltmp606:
	.loc	15 2934 30
	xorl	%eax, %eax
Ltmp607:
	.loc	15 3632 30
	incq	%rsi
Ltmp608:
	.loc	15 2934 30
	setne	%al
Ltmp609:
	.loc	33 0 0 is_stmt 0
	movq	%rsi, %rdx
Ltmp610:
	.loc	33 103 14 is_stmt 1
	popq	%rbp
	retq
Ltmp611:
LBB63_4:
	.loc	33 0 14 is_stmt 0
	xorl	%edx, %edx
Ltmp612:
	.loc	30 144 17 is_stmt 1
	subq	%r8, %rcx
Ltmp613:
	cmovaeq	%rcx, %rdx
Ltmp614:
LBB63_5:
	.loc	33 103 14
	popq	%rbp
	retq
Ltmp615:
Lfunc_end63:
	.cfi_endproc

	.globl	__ZN89_$LT$rayon..range_inclusive..Iter$LT$i64$GT$$u20$as$u20$rayon..iter..ParallelIterator$GT$7opt_len17hfda470d527dd7119E
	.p2align	4, 0x90
__ZN89_$LT$rayon..range_inclusive..Iter$LT$i64$GT$$u20$as$u20$rayon..iter..ParallelIterator$GT$7opt_len17hfda470d527dd7119E:
Lfunc_begin64:
	.loc	33 101 0
	.cfi_startproc
	pushq	%rbp
	.cfi_def_cfa_offset 16
	.cfi_offset %rbp, -16
	movq	%rsp, %rbp
	.cfi_def_cfa_register %rbp
Ltmp616:
	.loc	33 59 15 prologue_end
	movq	(%rdi), %rcx
Ltmp617:
	movq	8(%rdi), %rsi
Ltmp618:
	.loc	33 0 15 is_stmt 0
	xorl	%edx, %edx
Ltmp619:
	movl	$1, %eax
Ltmp620:
	.loc	34 508 9 is_stmt 1
	cmpq	%rcx, %rsi
Ltmp621:
	.loc	33 59 40
	jl	LBB64_5
Ltmp622:
	cmpb	$0, 16(%rdi)
	jne	LBB64_5
Ltmp623:
	.loc	15 1607 30
	movq	%rsi, %rdi
Ltmp624:
	.loc	15 0 30 is_stmt 0
	xorl	%edx, %edx
	.loc	15 1607 30
	incq	%rdi
Ltmp625:
	.loc	33 102 17 is_stmt 1
	jno	LBB64_4
Ltmp626:
	.loc	30 144 20
	subq	%rcx, %rsi
	.loc	30 144 17 is_stmt 0
	cmovgq	%rsi, %rdx
Ltmp627:
	.loc	15 2934 30 is_stmt 1
	xorl	%eax, %eax
Ltmp628:
	.loc	15 3632 30
	incq	%rdx
Ltmp629:
	.loc	15 2934 30
	setne	%al
Ltmp630:
	.loc	33 103 14
	popq	%rbp
	retq
Ltmp631:
LBB64_4:
	.loc	30 144 20
	subq	%rcx, %rdi
Ltmp632:
	.loc	30 144 17 is_stmt 0
	cmovgq	%rdi, %rdx
Ltmp633:
LBB64_5:
	.loc	33 103 14 is_stmt 1
	popq	%rbp
	retq
Ltmp634:
Lfunc_end64:
	.cfi_endproc

	.globl	__ZN90_$LT$rayon..range_inclusive..Iter$LT$u128$GT$$u20$as$u20$rayon..iter..ParallelIterator$GT$7opt_len17h66a476012a59e855E
	.p2align	4, 0x90
__ZN90_$LT$rayon..range_inclusive..Iter$LT$u128$GT$$u20$as$u20$rayon..iter..ParallelIterator$GT$7opt_len17h66a476012a59e855E:
Lfunc_begin65:
	.loc	33 101 0
	.cfi_startproc
	pushq	%rbp
	.cfi_def_cfa_offset 16
	.cfi_offset %rbp, -16
	movq	%rsp, %rbp
	.cfi_def_cfa_register %rbp
Ltmp635:
	.loc	34 334 5 prologue_end
	movq	(%rdi), %r9
Ltmp636:
	movq	8(%rdi), %r8
Ltmp637:
	.loc	34 335 5
	movq	24(%rdi), %rsi
Ltmp638:
	movq	16(%rdi), %rcx
Ltmp639:
	.loc	34 0 5 is_stmt 0
	xorl	%edx, %edx
Ltmp640:
	.loc	16 1139 52 is_stmt 1
	cmpq	%r9, %rcx
	movq	%rsi, %rax
	sbbq	%r8, %rax
	movb	$1, %al
Ltmp641:
	.loc	33 59 40
	jb	LBB65_7
Ltmp642:
	cmpb	$0, 32(%rdi)
	jne	LBB65_7
Ltmp643:
	.loc	15 3632 30
	movq	%rcx, %rdx
	addq	$1, %rdx
	movq	%rsi, %rax
	adcq	$0, %rax
Ltmp644:
	.loc	33 102 17
	jae	LBB65_6
Ltmp645:
	.loc	30 144 17
	subq	%r9, %rcx
Ltmp646:
	sbbq	%r8, %rsi
Ltmp647:
	.loc	35 63 25
	jne	LBB65_4
Ltmp648:
	.loc	15 3632 30
	incq	%rcx
Ltmp649:
	.loc	15 2934 30
	setne	%al
Ltmp650:
	.loc	33 0 0 is_stmt 0
	movq	%rcx, %rdx
Ltmp651:
LBB65_7:
	movzbl	%al, %eax
	.loc	33 103 14 is_stmt 1
	popq	%rbp
	retq
Ltmp652:
LBB65_6:
	.loc	33 0 14 is_stmt 0
	xorl	%ecx, %ecx
Ltmp653:
	.loc	30 144 17 is_stmt 1
	subq	%r9, %rdx
Ltmp654:
	sbbq	%r8, %rax
Ltmp655:
	cmovbq	%rcx, %rdx
Ltmp656:
	cmovbq	%rcx, %rax
Ltmp657:
	.loc	30 177 20
	testq	%rax, %rax
	sete	%al
Ltmp658:
	.loc	33 0 0 is_stmt 0
	movzbl	%al, %eax
	.loc	33 103 14 is_stmt 1
	popq	%rbp
	retq
Ltmp659:
LBB65_4:
	.loc	33 0 14 is_stmt 0
	xorl	%eax, %eax
	movzbl	%al, %eax
	.loc	33 103 14
	popq	%rbp
	retq
Ltmp660:
Lfunc_end65:
	.cfi_endproc

	.globl	__ZN90_$LT$rayon..range_inclusive..Iter$LT$i128$GT$$u20$as$u20$rayon..iter..ParallelIterator$GT$7opt_len17hfd1f556f815c2327E
	.p2align	4, 0x90
__ZN90_$LT$rayon..range_inclusive..Iter$LT$i128$GT$$u20$as$u20$rayon..iter..ParallelIterator$GT$7opt_len17hfd1f556f815c2327E:
Lfunc_begin66:
	.loc	33 101 0 is_stmt 1
	.cfi_startproc
	pushq	%rbp
	.cfi_def_cfa_offset 16
	.cfi_offset %rbp, -16
	movq	%rsp, %rbp
	.cfi_def_cfa_register %rbp
Ltmp661:
	.loc	34 334 5 prologue_end
	movq	(%rdi), %r8
Ltmp662:
	movq	8(%rdi), %r9
Ltmp663:
	.loc	34 335 5
	movq	24(%rdi), %rcx
Ltmp664:
	movq	16(%rdi), %r11
Ltmp665:
	.loc	34 0 5 is_stmt 0
	xorl	%edx, %edx
Ltmp666:
	.loc	16 1139 52 is_stmt 1
	cmpq	%r8, %r11
	movq	%rcx, %rsi
	sbbq	%r9, %rsi
	movb	$1, %sil
Ltmp667:
	.loc	33 59 40
	jl	LBB66_7
Ltmp668:
	cmpb	$0, 32(%rdi)
	jne	LBB66_7
Ltmp669:
	.loc	15 1607 30
	movq	%r11, %rsi
	addq	$1, %rsi
	movq	%rcx, %rdi
Ltmp670:
	adcq	$0, %rdi
Ltmp671:
	setns	%r10b
	testq	%rcx, %rcx
	setns	%dl
	cmpb	%r10b, %dl
	setne	%al
	andb	%dl, %al
Ltmp672:
	.loc	33 102 17
	cmpb	$1, %al
	jne	LBB66_6
Ltmp673:
	.loc	15 1271 17
	movq	%r11, %rdx
	subq	%r8, %rdx
	movq	%rcx, %rax
	sbbq	%r9, %rax
	xorl	%esi, %esi
Ltmp674:
	.loc	30 144 20
	cmpq	%r11, %r8
	sbbq	%rcx, %r9
	.loc	30 144 17 is_stmt 0
	cmovgeq	%rsi, %rdx
Ltmp675:
	cmovgeq	%rsi, %rax
Ltmp676:
	.loc	30 177 20 is_stmt 1
	testq	%rax, %rax
Ltmp677:
	.loc	35 63 25
	jne	LBB66_4
Ltmp678:
	.loc	15 3632 30
	incq	%rdx
Ltmp679:
	.loc	15 2934 30
	setne	%sil
Ltmp680:
LBB66_7:
	.loc	33 0 0 is_stmt 0
	movzbl	%sil, %eax
	.loc	33 103 14 is_stmt 1
	popq	%rbp
	retq
LBB66_6:
Ltmp681:
	.loc	15 1271 17
	movq	%rsi, %rdx
	subq	%r8, %rdx
	movq	%rdi, %rax
	sbbq	%r9, %rax
	xorl	%ecx, %ecx
Ltmp682:
	.loc	30 144 20
	cmpq	%rsi, %r8
	sbbq	%rdi, %r9
	.loc	30 144 17 is_stmt 0
	cmovgeq	%rcx, %rdx
Ltmp683:
	cmovgeq	%rcx, %rax
Ltmp684:
	.loc	30 177 20 is_stmt 1
	testq	%rax, %rax
	sete	%sil
Ltmp685:
	.loc	33 0 0 is_stmt 0
	movzbl	%sil, %eax
Ltmp686:
	.loc	33 103 14 is_stmt 1
	popq	%rbp
	retq
Ltmp687:
LBB66_4:
	.loc	33 0 0 is_stmt 0
	movzbl	%sil, %eax
	.loc	33 103 14
	popq	%rbp
	retq
Ltmp688:
Lfunc_end66:
	.cfi_endproc

	.globl	__ZN5rayon3str63_$LT$impl$u20$rayon..str..private..Pattern$u20$for$u20$char$GT$17__rayon_private__17h0bdedcb0bdc351feE
	.p2align	4, 0x90
__ZN5rayon3str63_$LT$impl$u20$rayon..str..private..Pattern$u20$for$u20$char$GT$17__rayon_private__17h0bdedcb0bdc351feE:
Lfunc_begin67:
	.file	36 "/Users/yingyuhang/.cargo/registry/src/github.com-1ecc6299db9ec823/rayon-1.3.1/src/private.rs"
	.loc	36 22 0 is_stmt 1
	.cfi_startproc
	pushq	%rbp
	.cfi_def_cfa_offset 16
	.cfi_offset %rbp, -16
	movq	%rsp, %rbp
	.cfi_def_cfa_register %rbp
Ltmp689:
	.loc	36 24 10 prologue_end
	popq	%rbp
	retq
Ltmp690:
Lfunc_end67:
	.cfi_endproc

	.globl	__ZN54_$LT$rayon..str..Chars$u20$as$u20$core..fmt..Debug$GT$3fmt17h83c8e3e36a59b4c5E
	.p2align	4, 0x90
__ZN54_$LT$rayon..str..Chars$u20$as$u20$core..fmt..Debug$GT$3fmt17h83c8e3e36a59b4c5E:
Lfunc_begin68:
	.loc	23 394 0
	.cfi_startproc
	pushq	%rbp
	.cfi_def_cfa_offset 16
	.cfi_offset %rbp, -16
	movq	%rsp, %rbp
	.cfi_def_cfa_register %rbp
	pushq	%r14
	pushq	%rbx
	subq	$32, %rsp
	.cfi_offset %rbx, -32
	.cfi_offset %r14, -24
	movq	%rdi, %rbx
Ltmp691:
	.loc	23 394 10 prologue_end
	leaq	l___unnamed_16(%rip), %rdx
	leaq	-40(%rbp), %r14
	movl	$5, %ecx
	movq	%r14, %rdi
	callq	__ZN4core3fmt9Formatter12debug_struct17h985c0158d1fc7193E
Ltmp692:
	.loc	23 396 5
	movq	%rbx, -24(%rbp)
	.loc	23 394 10
	leaq	l___unnamed_17(%rip), %rsi
	leaq	l___unnamed_3(%rip), %r8
	leaq	-24(%rbp), %rcx
	movl	$5, %edx
	movq	%r14, %rdi
	callq	__ZN4core3fmt8builders11DebugStruct5field17h9c15dc155278eed2E
	movq	%r14, %rdi
	callq	__ZN4core3fmt8builders11DebugStruct6finish17h26808393f3fed630E
Ltmp693:
	.loc	23 394 15 is_stmt 0
	addq	$32, %rsp
	popq	%rbx
Ltmp694:
	popq	%r14
	popq	%rbp
	retq
Ltmp695:
Lfunc_end68:
	.cfi_endproc

	.globl	__ZN60_$LT$rayon..str..CharIndices$u20$as$u20$core..fmt..Debug$GT$3fmt17h7dc5e4a40354ccc1E
	.p2align	4, 0x90
__ZN60_$LT$rayon..str..CharIndices$u20$as$u20$core..fmt..Debug$GT$3fmt17h7dc5e4a40354ccc1E:
Lfunc_begin69:
	.loc	23 438 0 is_stmt 1
	.cfi_startproc
	pushq	%rbp
	.cfi_def_cfa_offset 16
	.cfi_offset %rbp, -16
	movq	%rsp, %rbp
	.cfi_def_cfa_register %rbp
	pushq	%r14
	pushq	%rbx
	subq	$32, %rsp
	.cfi_offset %rbx, -32
	.cfi_offset %r14, -24
	movq	%rdi, %rbx
Ltmp696:
	.loc	23 438 10 prologue_end
	leaq	l___unnamed_18(%rip), %rdx
	leaq	-40(%rbp), %r14
	movl	$11, %ecx
	movq	%r14, %rdi
	callq	__ZN4core3fmt9Formatter12debug_struct17h985c0158d1fc7193E
Ltmp697:
	.loc	23 440 5
	movq	%rbx, -24(%rbp)
	.loc	23 438 10
	leaq	l___unnamed_17(%rip), %rsi
	leaq	l___unnamed_3(%rip), %r8
	leaq	-24(%rbp), %rcx
	movl	$5, %edx
	movq	%r14, %rdi
	callq	__ZN4core3fmt8builders11DebugStruct5field17h9c15dc155278eed2E
	movq	%r14, %rdi
	callq	__ZN4core3fmt8builders11DebugStruct6finish17h26808393f3fed630E
Ltmp698:
	.loc	23 438 15 is_stmt 0
	addq	$32, %rsp
	popq	%rbx
Ltmp699:
	popq	%r14
	popq	%rbp
	retq
Ltmp700:
Lfunc_end69:
	.cfi_endproc

	.globl	__ZN54_$LT$rayon..str..Bytes$u20$as$u20$core..fmt..Debug$GT$3fmt17hce8c697fa2f3d443E
	.p2align	4, 0x90
__ZN54_$LT$rayon..str..Bytes$u20$as$u20$core..fmt..Debug$GT$3fmt17hce8c697fa2f3d443E:
Lfunc_begin70:
	.loc	23 494 0 is_stmt 1
	.cfi_startproc
	pushq	%rbp
	.cfi_def_cfa_offset 16
	.cfi_offset %rbp, -16
	movq	%rsp, %rbp
	.cfi_def_cfa_register %rbp
	pushq	%r14
	pushq	%rbx
	subq	$32, %rsp
	.cfi_offset %rbx, -32
	.cfi_offset %r14, -24
	movq	%rdi, %rbx
Ltmp701:
	.loc	23 494 10 prologue_end
	leaq	l___unnamed_19(%rip), %rdx
	leaq	-40(%rbp), %r14
	movl	$5, %ecx
	movq	%r14, %rdi
	callq	__ZN4core3fmt9Formatter12debug_struct17h985c0158d1fc7193E
Ltmp702:
	.loc	23 496 5
	movq	%rbx, -24(%rbp)
	.loc	23 494 10
	leaq	l___unnamed_17(%rip), %rsi
	leaq	l___unnamed_3(%rip), %r8
	leaq	-24(%rbp), %rcx
	movl	$5, %edx
	movq	%r14, %rdi
	callq	__ZN4core3fmt8builders11DebugStruct5field17h9c15dc155278eed2E
	movq	%r14, %rdi
	callq	__ZN4core3fmt8builders11DebugStruct6finish17h26808393f3fed630E
Ltmp703:
	.loc	23 494 15 is_stmt 0
	addq	$32, %rsp
	popq	%rbx
Ltmp704:
	popq	%r14
	popq	%rbp
	retq
Ltmp705:
Lfunc_end70:
	.cfi_endproc

	.globl	__ZN60_$LT$rayon..str..EncodeUtf16$u20$as$u20$core..fmt..Debug$GT$3fmt17h9ddc22eb4981a065E
	.p2align	4, 0x90
__ZN60_$LT$rayon..str..EncodeUtf16$u20$as$u20$core..fmt..Debug$GT$3fmt17h9ddc22eb4981a065E:
Lfunc_begin71:
	.loc	23 538 0 is_stmt 1
	.cfi_startproc
	pushq	%rbp
	.cfi_def_cfa_offset 16
	.cfi_offset %rbp, -16
	movq	%rsp, %rbp
	.cfi_def_cfa_register %rbp
	pushq	%r14
	pushq	%rbx
	subq	$32, %rsp
	.cfi_offset %rbx, -32
	.cfi_offset %r14, -24
	movq	%rdi, %rbx
Ltmp706:
	.loc	23 538 10 prologue_end
	leaq	l___unnamed_20(%rip), %rdx
	leaq	-40(%rbp), %r14
	movl	$11, %ecx
	movq	%r14, %rdi
	callq	__ZN4core3fmt9Formatter12debug_struct17h985c0158d1fc7193E
Ltmp707:
	.loc	23 540 5
	movq	%rbx, -24(%rbp)
	.loc	23 538 10
	leaq	l___unnamed_17(%rip), %rsi
	leaq	l___unnamed_3(%rip), %r8
	leaq	-24(%rbp), %rcx
	movl	$5, %edx
	movq	%r14, %rdi
	callq	__ZN4core3fmt8builders11DebugStruct5field17h9c15dc155278eed2E
	movq	%r14, %rdi
	callq	__ZN4core3fmt8builders11DebugStruct6finish17h26808393f3fed630E
Ltmp708:
	.loc	23 538 15 is_stmt 0
	addq	$32, %rsp
	popq	%rbx
Ltmp709:
	popq	%r14
	popq	%rbp
	retq
Ltmp710:
Lfunc_end71:
	.cfi_endproc

	.globl	__ZN54_$LT$rayon..str..Lines$u20$as$u20$core..fmt..Debug$GT$3fmt17h7dac6b7c76c8448dE
	.p2align	4, 0x90
__ZN54_$LT$rayon..str..Lines$u20$as$u20$core..fmt..Debug$GT$3fmt17h7dac6b7c76c8448dE:
Lfunc_begin72:
	.loc	23 709 0 is_stmt 1
	.cfi_startproc
	pushq	%rbp
	.cfi_def_cfa_offset 16
	.cfi_offset %rbp, -16
	movq	%rsp, %rbp
	.cfi_def_cfa_register %rbp
	pushq	%r14
	pushq	%rbx
	subq	$32, %rsp
	.cfi_offset %rbx, -32
	.cfi_offset %r14, -24
	movq	%rdi, %rbx
Ltmp711:
	.loc	23 709 10 prologue_end
	leaq	l___unnamed_21(%rip), %rdx
	leaq	-48(%rbp), %r14
	movl	$5, %ecx
	movq	%r14, %rdi
	callq	__ZN4core3fmt9Formatter11debug_tuple17h15ca25ad759edd1cE
Ltmp712:
	.loc	23 710 23
	movq	%rbx, -24(%rbp)
	.loc	23 709 10
	leaq	l___unnamed_3(%rip), %rdx
	leaq	-24(%rbp), %rsi
	movq	%r14, %rdi
	callq	__ZN4core3fmt8builders10DebugTuple5field17hf36121153a94f236E
	movq	%r14, %rdi
	callq	__ZN4core3fmt8builders10DebugTuple6finish17h68acf09c6f6593f2E
Ltmp713:
	.loc	23 709 15 is_stmt 0
	addq	$32, %rsp
	popq	%rbx
Ltmp714:
	popq	%r14
	popq	%rbp
	retq
Ltmp715:
Lfunc_end72:
	.cfi_endproc

	.globl	__ZN64_$LT$rayon..str..SplitWhitespace$u20$as$u20$core..fmt..Debug$GT$3fmt17h909530a5294d79d2E
	.p2align	4, 0x90
__ZN64_$LT$rayon..str..SplitWhitespace$u20$as$u20$core..fmt..Debug$GT$3fmt17h909530a5294d79d2E:
Lfunc_begin73:
	.loc	23 738 0 is_stmt 1
	.cfi_startproc
	pushq	%rbp
	.cfi_def_cfa_offset 16
	.cfi_offset %rbp, -16
	movq	%rsp, %rbp
	.cfi_def_cfa_register %rbp
	pushq	%r14
	pushq	%rbx
	subq	$32, %rsp
	.cfi_offset %rbx, -32
	.cfi_offset %r14, -24
	movq	%rdi, %rbx
Ltmp716:
	.loc	23 738 10 prologue_end
	leaq	l___unnamed_22(%rip), %rdx
	leaq	-48(%rbp), %r14
	movl	$15, %ecx
	movq	%r14, %rdi
	callq	__ZN4core3fmt9Formatter11debug_tuple17h15ca25ad759edd1cE
Ltmp717:
	.loc	23 739 33
	movq	%rbx, -24(%rbp)
	.loc	23 738 10
	leaq	l___unnamed_3(%rip), %rdx
	leaq	-24(%rbp), %rsi
	movq	%r14, %rdi
	callq	__ZN4core3fmt8builders10DebugTuple5field17hf36121153a94f236E
	movq	%r14, %rdi
	callq	__ZN4core3fmt8builders10DebugTuple6finish17h68acf09c6f6593f2E
Ltmp718:
	.loc	23 738 15 is_stmt 0
	addq	$32, %rsp
	popq	%rbx
Ltmp719:
	popq	%r14
	popq	%rbp
	retq
Ltmp720:
Lfunc_end73:
	.cfi_endproc

	.section	__DATA,__const
	.p2align	3
l___unnamed_1:
	.quad	__ZN4core3ptr13drop_in_place17h750a32423af2b840E
	.quad	16
	.quad	8
	.quad	__ZN91_$LT$std..panicking..begin_panic..PanicPayload$LT$A$GT$$u20$as$u20$core..panic..BoxMeUp$GT$8take_box17hbe226250bd0523a9E
	.quad	__ZN91_$LT$std..panicking..begin_panic..PanicPayload$LT$A$GT$$u20$as$u20$core..panic..BoxMeUp$GT$3get17h52a30dbb4f820841E

	.section	__TEXT,__const
	.p2align	4
_str.0:
	.ascii	"attempt to add with overflow"

l___unnamed_23:
	.ascii	"/rustc/a74d1862d4d87a56244958416fd05976c58ca1a8/src/libcore/str/mod.rs"

	.section	__DATA,__const
	.p2align	3
l___unnamed_5:
	.quad	l___unnamed_23
	.asciz	"F\000\000\000\000\000\000\000k\n\000\000\r\000\000"

	.p2align	3
l___unnamed_2:
	.quad	__ZN4core3ptr13drop_in_place17h750a32423af2b840E
	.quad	16
	.quad	8
	.quad	__ZN36_$LT$T$u20$as$u20$core..any..Any$GT$7type_id17h2546f86c6b3ddd66E

	.section	__TEXT,__const
l___unnamed_24:
	.ascii	"/Users/yingyuhang/.cargo/registry/src/github.com-1ecc6299db9ec823/rayon-1.3.1/src/str.rs"

	.section	__DATA,__const
	.p2align	3
l___unnamed_7:
	.quad	l___unnamed_24
	.asciz	"X\000\000\000\000\000\000\000&\000\000\000\024\000\000"

	.p2align	3
l___unnamed_6:
	.quad	l___unnamed_24
	.asciz	"X\000\000\000\000\000\000\000\333\001\000\000\034\000\000"

	.section	__TEXT,__const
l___unnamed_4:
	.ascii	"assertion failed: index <= self.range.len()"

l___unnamed_25:
	.ascii	"/Users/yingyuhang/.cargo/registry/src/github.com-1ecc6299db9ec823/rayon-1.3.1/src/range.rs"

	.section	__DATA,__const
	.p2align	3
l___unnamed_8:
	.quad	l___unnamed_25
	.asciz	"Z\000\000\000\000\000\000\000\323\000\000\000\001\000\000"

	.p2align	3
l___unnamed_9:
	.quad	l___unnamed_25
	.asciz	"Z\000\000\000\000\000\000\000\324\000\000\000\001\000\000"

	.p2align	3
l___unnamed_10:
	.quad	l___unnamed_25
	.asciz	"Z\000\000\000\000\000\000\000\325\000\000\000\001\000\000"

	.p2align	3
l___unnamed_11:
	.quad	l___unnamed_25
	.asciz	"Z\000\000\000\000\000\000\000\326\000\000\000\001\000\000"

	.p2align	3
l___unnamed_12:
	.quad	l___unnamed_25
	.asciz	"Z\000\000\000\000\000\000\000\327\000\000\000\001\000\000"

	.p2align	3
l___unnamed_13:
	.quad	l___unnamed_25
	.asciz	"Z\000\000\000\000\000\000\000\330\000\000\000\001\000\000"

	.p2align	3
l___unnamed_14:
	.quad	l___unnamed_25
	.asciz	"Z\000\000\000\000\000\000\000\331\000\000\000\001\000\000"

	.p2align	3
l___unnamed_15:
	.quad	l___unnamed_25
	.asciz	"Z\000\000\000\000\000\000\000\332\000\000\000\001\000\000"

	.section	__TEXT,__const
l___unnamed_16:
	.ascii	"Chars"

l___unnamed_17:
	.ascii	"chars"

	.section	__DATA,__const
	.p2align	3
l___unnamed_3:
	.quad	__ZN4core3ptr13drop_in_place17h750a32423af2b840E
	.quad	8
	.quad	8
	.quad	__ZN42_$LT$$RF$T$u20$as$u20$core..fmt..Debug$GT$3fmt17he1804bb01711e01fE

	.section	__TEXT,__const
l___unnamed_18:
	.ascii	"CharIndices"

l___unnamed_19:
	.ascii	"Bytes"

l___unnamed_20:
	.ascii	"EncodeUtf16"

l___unnamed_21:
	.ascii	"Lines"

l___unnamed_22:
	.ascii	"SplitWhitespace"

	.section	__DATA,__const
Lsec_end0:
	.section	__TEXT,__text,regular,pure_instructions
Lsec_end1: