	.section	__TEXT,__text,regular,pure_instructions
	.macosx_version_min 10, 7
	.p2align	4, 0x90
__ZN36_$LT$T$u20$as$u20$core..any..Any$GT$7type_id17hdf375426f641ce19E:
Lfunc_begin0:
	.file	1 "/rustc/6c8927b0cf80ceee19386026cf9d7fd4fd9d486f/src/libcore/any.rs"
	.loc	1 109 0
	.cfi_startproc
	pushq	%rbp
	.cfi_def_cfa_offset 16
	.cfi_offset %rbp, -16
	movq	%rsp, %rbp
	.cfi_def_cfa_register %rbp
	movabsq	$9147559743429524724, %rax
Ltmp0:
	.loc	1 111 6 prologue_end
	popq	%rbp
	retq
Ltmp1:
Lfunc_end0:
	.cfi_endproc

	.p2align	4, 0x90
__ZN3std9panicking11begin_panic17h0001feae53a87dfbE:
Lfunc_begin1:
	.file	2 "/rustc/6c8927b0cf80ceee19386026cf9d7fd4fd9d486f/src/libstd/panicking.rs"
	.loc	2 451 0
	.cfi_startproc
	pushq	%rbp
	.cfi_def_cfa_offset 16
	.cfi_offset %rbp, -16
	movq	%rsp, %rbp
	.cfi_def_cfa_register %rbp
	subq	$16, %rsp
Ltmp2:
	.loc	2 456 31 prologue_end
	leaq	l___unnamed_5(%rip), %rax
	movq	%rax, -16(%rbp)
	movq	$43, -8(%rbp)
	.loc	2 456 61 is_stmt 0
	callq	__ZN4core5panic8Location6caller17hb284bf0993c43fcaE
	.loc	2 456 5
	leaq	l___unnamed_1(%rip), %rsi
	leaq	-16(%rbp), %rdi
	xorl	%edx, %edx
	movq	%rax, %rcx
	callq	__ZN3std9panicking20rust_panic_with_hook17h720143ee15fc80baE
Ltmp3:
Lfunc_end1:
	.cfi_endproc

	.p2align	4, 0x90
__ZN42_$LT$$RF$T$u20$as$u20$core..fmt..Debug$GT$3fmt17h34044657de9345fcE:
Lfunc_begin2:
	.file	3 "/rustc/6c8927b0cf80ceee19386026cf9d7fd4fd9d486f/src/libcore/fmt/mod.rs"
	.loc	3 2022 0 is_stmt 1
	.cfi_startproc
	pushq	%rbp
	.cfi_def_cfa_offset 16
	.cfi_offset %rbp, -16
	movq	%rsp, %rbp
	.cfi_def_cfa_register %rbp
	movq	%rsi, %rdx
Ltmp4:
	.loc	3 2022 71 prologue_end
	movq	(%rdi), %rax
	.loc	3 2022 62 is_stmt 0
	movq	(%rax), %rdi
Ltmp5:
	movq	8(%rax), %rsi
Ltmp6:
	.loc	3 2022 62
	popq	%rbp
	jmp	__ZN40_$LT$str$u20$as$u20$core..fmt..Debug$GT$3fmt17h5b42b6f497bd434cE
Ltmp7:
Lfunc_end2:
	.cfi_endproc

	.p2align	4, 0x90
__ZN42_$LT$$RF$T$u20$as$u20$core..fmt..Debug$GT$3fmt17h9a0fba1e41472bdbE:
Lfunc_begin3:
	.loc	3 2022 0 is_stmt 1
	.cfi_startproc
	pushq	%rbp
	.cfi_def_cfa_offset 16
	.cfi_offset %rbp, -16
	movq	%rsp, %rbp
	.cfi_def_cfa_register %rbp
Ltmp8:
	pushq	%r14
	pushq	%rbx
	subq	$32, %rsp
	.cfi_offset %rbx, -32
	.cfi_offset %r14, -24
	.loc	3 2022 71 prologue_end
	movq	(%rdi), %rbx
Ltmp9:
	.file	4 "/rustc/6c8927b0cf80ceee19386026cf9d7fd4fd9d486f/src/libcore/option.rs"
	.loc	4 146 48
	cmpl	$1, (%rbx)
	jne	LBB3_2
Ltmp10:
	.loc	4 155 56
	addq	$8, %rbx
Ltmp11:
	.loc	4 146 48
	leaq	L___unnamed_6(%rip), %rdx
	leaq	-48(%rbp), %r14
	movl	$4, %ecx
	movq	%r14, %rdi
Ltmp12:
	callq	__ZN4core3fmt9Formatter11debug_tuple17h6c448643801d07e8E
Ltmp13:
	.loc	4 155 56
	movq	%rbx, -24(%rbp)
	.loc	4 146 48
	leaq	l___unnamed_2(%rip), %rdx
	leaq	-24(%rbp), %rsi
	movq	%r14, %rdi
	callq	__ZN4core3fmt8builders10DebugTuple5field17hc7b676d0e36b51d9E
	movq	%r14, %rdi
	jmp	LBB3_3
Ltmp14:
LBB3_2:
	.loc	4 146 48 is_stmt 0
	leaq	L___unnamed_7(%rip), %rdx
	leaq	-48(%rbp), %rbx
Ltmp15:
	movl	$4, %ecx
	movq	%rbx, %rdi
Ltmp16:
	callq	__ZN4core3fmt9Formatter11debug_tuple17h6c448643801d07e8E
Ltmp17:
	.loc	4 146 48
	movq	%rbx, %rdi
Ltmp18:
LBB3_3:
	.loc	4 0 0
	callq	__ZN4core3fmt8builders10DebugTuple6finish17h9f206806f7096c33E
Ltmp19:
	.loc	3 2022 84 is_stmt 1
	addq	$32, %rsp
	popq	%rbx
	popq	%r14
	popq	%rbp
	retq
Ltmp20:
Lfunc_end3:
	.cfi_endproc

	.p2align	4, 0x90
__ZN42_$LT$$RF$T$u20$as$u20$core..fmt..Debug$GT$3fmt17hb5399af3d67cf093E:
Lfunc_begin4:
	.loc	3 2022 0
	.cfi_startproc
	pushq	%rbp
	.cfi_def_cfa_offset 16
	.cfi_offset %rbp, -16
	movq	%rsp, %rbp
	.cfi_def_cfa_register %rbp
	pushq	%r14
	pushq	%rbx
	.cfi_offset %rbx, -32
	.cfi_offset %r14, -24
	movq	%rsi, %rbx
Ltmp21:
	.loc	3 2022 71 prologue_end
	movq	(%rdi), %r14
Ltmp22:
	.file	5 "/rustc/6c8927b0cf80ceee19386026cf9d7fd4fd9d486f/src/libcore/fmt/num.rs"
	.loc	5 149 20
	movq	%rsi, %rdi
Ltmp23:
	callq	__ZN4core3fmt9Formatter15debug_lower_hex17hd07f6fde8d0365dfE
	.loc	5 149 17 is_stmt 0
	testb	%al, %al
	je	LBB4_1
Ltmp24:
	.loc	5 150 21 is_stmt 1
	movq	%r14, %rdi
	movq	%rbx, %rsi
	popq	%rbx
Ltmp25:
	popq	%r14
Ltmp26:
	popq	%rbp
	jmp	__ZN4core3fmt3num55_$LT$impl$u20$core..fmt..LowerHex$u20$for$u20$usize$GT$3fmt17hc47c170655f2f8b1E
LBB4_1:
Ltmp27:
	.loc	5 151 27
	movq	%rbx, %rdi
	callq	__ZN4core3fmt9Formatter15debug_upper_hex17hf480c256a9c81c1eE
	.loc	5 154 21
	movq	%r14, %rdi
	movq	%rbx, %rsi
	.loc	5 151 24
	testb	%al, %al
	je	LBB4_4
Ltmp28:
	.loc	5 152 21
	popq	%rbx
Ltmp29:
	popq	%r14
Ltmp30:
	popq	%rbp
	jmp	__ZN4core3fmt3num55_$LT$impl$u20$core..fmt..UpperHex$u20$for$u20$usize$GT$3fmt17he5a77a1ce12f6c22E
LBB4_4:
Ltmp31:
	.loc	5 154 21
	popq	%rbx
Ltmp32:
	popq	%r14
Ltmp33:
	popq	%rbp
	jmp	__ZN4core3fmt3num3imp54_$LT$impl$u20$core..fmt..Display$u20$for$u20$usize$GT$3fmt17h12ea2856299c9b06E
Ltmp34:
Lfunc_end4:
	.cfi_endproc

	.p2align	4, 0x90
__ZN4core3ptr13drop_in_place17h0c9828b514248aebE:
Lfunc_begin5:
	.file	6 "/rustc/6c8927b0cf80ceee19386026cf9d7fd4fd9d486f/src/libcore/ptr/mod.rs"
	.loc	6 184 0
	.cfi_startproc
	pushq	%rbp
	.cfi_def_cfa_offset 16
	.cfi_offset %rbp, -16
	movq	%rsp, %rbp
	.cfi_def_cfa_register %rbp
Ltmp35:
	.loc	6 184 1 prologue_end
	popq	%rbp
	retq
Ltmp36:
Lfunc_end5:
	.cfi_endproc

	.p2align	4, 0x90
__ZN4core3ptr13drop_in_place17hcd27618d5b5fb9afE:
Lfunc_begin6:
	.loc	6 184 0
	.cfi_startproc
	pushq	%rbp
	.cfi_def_cfa_offset 16
	.cfi_offset %rbp, -16
	movq	%rsp, %rbp
	.cfi_def_cfa_register %rbp
	movq	%rdi, %rax
Ltmp37:
	.loc	6 184 1 prologue_end
	movq	(%rdi), %rdi
Ltmp38:
	.file	7 "/rustc/6c8927b0cf80ceee19386026cf9d7fd4fd9d486f/src/liballoc/raw_vec.rs"
	.loc	7 507 16
	testq	%rdi, %rdi
Ltmp39:
	.loc	7 235 9
	je	LBB6_2
Ltmp40:
	.loc	6 0 0 is_stmt 0
	movq	8(%rax), %rsi
Ltmp41:
	.loc	7 235 9
	testq	%rsi, %rsi
	je	LBB6_2
Ltmp42:
	.file	8 "/rustc/6c8927b0cf80ceee19386026cf9d7fd4fd9d486f/src/liballoc/alloc.rs"
	.loc	8 102 14 is_stmt 1
	movl	$1, %edx
	popq	%rbp
	jmp	___rust_dealloc
Ltmp43:
LBB6_2:
	.loc	6 184 1
	popq	%rbp
	retq
Ltmp44:
Lfunc_end6:
	.cfi_endproc

	.p2align	4, 0x90
__ZN91_$LT$std..panicking..begin_panic..PanicPayload$LT$A$GT$$u20$as$u20$core..panic..BoxMeUp$GT$3get17h025e9ca0b5816aa7E:
Lfunc_begin7:
	.loc	2 482 0
	.cfi_startproc
	pushq	%rbp
	.cfi_def_cfa_offset 16
	.cfi_offset %rbp, -16
	movq	%rsp, %rbp
	.cfi_def_cfa_register %rbp
Ltmp45:
	.loc	2 484 17 prologue_end
	cmpq	$0, (%rdi)
	je	LBB7_2
Ltmp46:
	.loc	2 0 17 is_stmt 0
	movq	%rdi, %rax
Ltmp47:
	.loc	2 487 10 is_stmt 1
	leaq	l___unnamed_3(%rip), %rdx
	popq	%rbp
	retq
Ltmp48:
LBB7_2:
	.loc	2 485 25
	callq	__ZN3std7process5abort17hff53fa3bc108bcb5E
Ltmp49:
Lfunc_end7:
	.cfi_endproc

	.p2align	4, 0x90
__ZN91_$LT$std..panicking..begin_panic..PanicPayload$LT$A$GT$$u20$as$u20$core..panic..BoxMeUp$GT$8take_box17h75621b9d4d61effbE:
Lfunc_begin8:
	.loc	2 469 0
	.cfi_startproc
	pushq	%rbp
	.cfi_def_cfa_offset 16
	.cfi_offset %rbp, -16
	movq	%rsp, %rbp
	.cfi_def_cfa_register %rbp
Ltmp50:
	pushq	%r14
	pushq	%rbx
	.cfi_offset %rbx, -32
	.cfi_offset %r14, -24
	.file	9 "/rustc/6c8927b0cf80ceee19386026cf9d7fd4fd9d486f/src/libcore/intrinsics.rs"
	.loc	9 2130 14 prologue_end
	movq	(%rdi), %rbx
Ltmp51:
	movq	8(%rdi), %r14
Ltmp52:
	.loc	9 2130 14 is_stmt 0
	movq	$0, (%rdi)
Ltmp53:
	.loc	2 476 17 is_stmt 1
	testq	%rbx, %rbx
	je	LBB8_3
Ltmp54:
	.loc	8 80 14
	movl	$16, %edi
Ltmp55:
	movl	$8, %esi
	callq	___rust_alloc
Ltmp56:
	.loc	8 278 9
	testq	%rax, %rax
	je	LBB8_4
Ltmp57:
	.file	10 "/rustc/6c8927b0cf80ceee19386026cf9d7fd4fd9d486f/src/liballoc/boxed.rs"
	.loc	10 176 13
	movq	%rbx, (%rax)
	movq	%r14, 8(%rax)
Ltmp58:
	.file	11 "/rustc/6c8927b0cf80ceee19386026cf9d7fd4fd9d486f/src/libcore/ptr/unique.rs"
	.loc	11 109 6
	leaq	l___unnamed_3(%rip), %rdx
Ltmp59:
	.loc	2 480 10
	popq	%rbx
Ltmp60:
	popq	%r14
Ltmp61:
	popq	%rbp
	retq
Ltmp62:
LBB8_3:
	.loc	2 477 25
	callq	__ZN3std7process5abort17hff53fa3bc108bcb5E
Ltmp63:
LBB8_4:
	.loc	8 279 19
	movl	$16, %edi
	movl	$8, %esi
	callq	__ZN5alloc5alloc18handle_alloc_error17h28974197717b8939E
Ltmp64:
Lfunc_end8:
	.cfi_endproc
	.file	12 "/rustc/6c8927b0cf80ceee19386026cf9d7fd4fd9d486f/src/libcore/mem/mod.rs"

	.globl	__ZN5rayon4iter6extend11string_push17ha419c5a8e1defffdE
	.p2align	4, 0x90
__ZN5rayon4iter6extend11string_push17ha419c5a8e1defffdE:
Lfunc_begin9:
	.file	13 "/Users/yingyuhang/.cargo/registry/src/github.com-1ecc6299db9ec823/rayon-1.3.1/src/iter/extend.rs"
	.loc	13 253 0
	.cfi_startproc
	.cfi_personality 155, _rust_eh_personality
	.cfi_lsda 16, Lexception0
	pushq	%rbp
	.cfi_def_cfa_offset 16
	.cfi_offset %rbp, -16
	movq	%rsp, %rbp
	.cfi_def_cfa_register %rbp
	pushq	%r15
	pushq	%r14
	pushq	%r13
	pushq	%r12
	pushq	%rbx
	pushq	%rax
	.cfi_offset %rbx, -56
	.cfi_offset %r12, -48
	.cfi_offset %r13, -40
	.cfi_offset %r14, -32
	.cfi_offset %r15, -24
	movl	%edx, %r12d
	movq	%rsi, %r15
	movq	%rdi, %r14
Ltmp70:
	.file	14 "/rustc/6c8927b0cf80ceee19386026cf9d7fd4fd9d486f/src/libcore/char/methods.rs"
	.loc	14 1594 8 prologue_end
	cmpl	$128, %edx
	.loc	14 1594 5 is_stmt 0
	jae	LBB9_1
Ltmp71:
	.file	15 "/rustc/6c8927b0cf80ceee19386026cf9d7fd4fd9d486f/src/liballoc/vec.rs"
	.loc	15 1204 12 is_stmt 1
	movq	16(%r15), %rbx
	cmpq	8(%r15), %rbx
	.loc	15 1204 9 is_stmt 0
	jne	LBB9_21
Ltmp72:
	.file	16 "/rustc/6c8927b0cf80ceee19386026cf9d7fd4fd9d486f/src/libcore/num/mod.rs"
	.loc	16 3751 30 is_stmt 1
	movq	%rbx, %rax
	incq	%rax
Ltmp73:
	.loc	4 538 13
	je	LBB9_32
Ltmp74:
	.loc	7 408 28
	leaq	(%rbx,%rbx), %rcx
Ltmp75:
	.file	17 "/rustc/6c8927b0cf80ceee19386026cf9d7fd4fd9d486f/src/libcore/cmp.rs"
	.loc	17 1016 9
	cmpq	%rax, %rcx
	.loc	17 0 0 is_stmt 0
	cmovaq	%rcx, %rax
Ltmp76:
	cmpq	$8, %rax
	movl	$8, %r13d
	cmovaq	%rax, %r13
Ltmp77:
	.loc	7 235 40 is_stmt 1
	testq	%rbx, %rbx
	.loc	7 235 9 is_stmt 0
	je	LBB9_27
Ltmp78:
	.loc	7 429 46 is_stmt 1
	movq	(%r15), %rax
Ltmp79:
	.loc	7 493 25
	testq	%rax, %rax
Ltmp80:
	je	LBB9_27
Ltmp81:
	.loc	8 205 12
	cmpq	%r13, %rbx
Ltmp82:
	.loc	8 205 9 is_stmt 0
	je	LBB9_30
Ltmp83:
	.loc	8 124 14 is_stmt 1
	movl	$1, %edx
	movq	%rax, %rdi
	movq	%rbx, %rsi
	movq	%r13, %rcx
	callq	___rust_realloc
Ltmp84:
	.loc	8 0 14 is_stmt 0
	jmp	LBB9_30
Ltmp85:
LBB9_1:
	.file	18 "/rustc/6c8927b0cf80ceee19386026cf9d7fd4fd9d486f/src/liballoc/string.rs"
	.loc	18 1080 65 is_stmt 1
	movl	$0, -44(%rbp)
Ltmp86:
	.loc	14 1628 19
	movl	%r12d, %eax
Ltmp87:
	.loc	14 1596 15
	cmpl	$2048, %r12d
	.loc	14 1596 12 is_stmt 0
	jae	LBB9_2
Ltmp88:
	.loc	14 1628 19 is_stmt 1
	shrl	$6, %eax
	.loc	14 1628 13 is_stmt 0
	orb	$-64, %al
	movb	%al, -44(%rbp)
	.loc	14 1629 18 is_stmt 1
	andb	$63, %r12b
Ltmp89:
	.loc	14 1629 13 is_stmt 0
	orb	$-128, %r12b
	movb	%r12b, -43(%rbp)
	movl	$2, %r13d
	jmp	LBB9_5
Ltmp90:
LBB9_21:
	.loc	15 854 19 is_stmt 1
	movq	(%r15), %rax
	jmp	LBB9_22
Ltmp91:
LBB9_2:
	.loc	14 1598 15
	cmpl	$65536, %r12d
	jae	LBB9_4
Ltmp92:
	.loc	14 1632 19
	shrl	$12, %eax
	.loc	14 1632 13 is_stmt 0
	orb	$-32, %al
	movb	%al, -44(%rbp)
	.loc	14 1633 19 is_stmt 1
	movl	%r12d, %eax
	shrl	$6, %eax
	.loc	14 1633 18 is_stmt 0
	andb	$63, %al
	.loc	14 1633 13
	orb	$-128, %al
	movb	%al, -43(%rbp)
	.loc	14 1634 18 is_stmt 1
	andb	$63, %r12b
Ltmp93:
	.loc	14 1634 13 is_stmt 0
	orb	$-128, %r12b
	movb	%r12b, -42(%rbp)
	movl	$3, %r13d
	jmp	LBB9_5
Ltmp94:
LBB9_27:
	.loc	8 80 14 is_stmt 1
	movl	$1, %esi
	movq	%r13, %rdi
	callq	___rust_alloc
Ltmp95:
LBB9_30:
	.file	19 "/rustc/6c8927b0cf80ceee19386026cf9d7fd4fd9d486f/src/libcore/result.rs"
	.loc	19 611 13
	testq	%rax, %rax
	je	LBB9_33
Ltmp96:
	.loc	7 382 9
	movq	%rax, (%r15)
	.loc	7 383 9
	movq	%r13, 8(%r15)
Ltmp97:
LBB9_22:
	.loc	6 901 51
	movb	%r12b, (%rax,%rbx)
Ltmp98:
	.loc	15 1210 13
	incq	%rbx
Ltmp99:
	.loc	15 0 13 is_stmt 0
	jmp	LBB9_23
Ltmp100:
LBB9_4:
	.loc	14 1637 19 is_stmt 1
	shrl	$18, %eax
	.loc	14 1637 13 is_stmt 0
	orb	$-16, %al
	movb	%al, -44(%rbp)
	.loc	14 1638 19 is_stmt 1
	movl	%r12d, %eax
	shrl	$12, %eax
	.loc	14 1638 18 is_stmt 0
	andb	$63, %al
	.loc	14 1638 13
	orb	$-128, %al
	movb	%al, -43(%rbp)
	.loc	14 1639 19 is_stmt 1
	movl	%r12d, %eax
	shrl	$6, %eax
	.loc	14 1639 18 is_stmt 0
	andb	$63, %al
	.loc	14 1639 13
	orb	$-128, %al
	movb	%al, -42(%rbp)
	.loc	14 1640 18 is_stmt 1
	andb	$63, %r12b
Ltmp101:
	.loc	14 1640 13 is_stmt 0
	orb	$-128, %r12b
	movb	%r12b, -41(%rbp)
	movl	$4, %r13d
Ltmp102:
LBB9_5:
	.loc	7 309 12 is_stmt 1
	movq	8(%r15), %rsi
Ltmp103:
	.loc	15 504 26
	movq	16(%r15), %rbx
Ltmp104:
	.loc	16 3462 17
	movq	%rsi, %rax
	subq	%rbx, %rax
Ltmp105:
	.loc	7 373 9
	cmpq	%r13, %rax
Ltmp106:
	.loc	7 309 9
	jae	LBB9_6
Ltmp107:
	.loc	16 3751 30
	movq	%rbx, %rax
	addq	%r13, %rax
Ltmp108:
	.loc	4 538 13
	jb	LBB9_17
Ltmp109:
	.loc	7 408 28
	leaq	(%rsi,%rsi), %rcx
Ltmp110:
	.loc	17 1016 9
	cmpq	%rax, %rcx
	.loc	17 0 0 is_stmt 0
	cmovaq	%rcx, %rax
Ltmp111:
	cmpq	$8, %rax
	movl	$8, %r12d
	cmovaq	%rax, %r12
Ltmp112:
	.loc	7 235 40 is_stmt 1
	testq	%rsi, %rsi
	.loc	7 235 9 is_stmt 0
	je	LBB9_11
Ltmp113:
	.loc	7 429 46 is_stmt 1
	movq	(%r15), %rdi
Ltmp114:
	.loc	7 493 25
	testq	%rdi, %rdi
	je	LBB9_11
Ltmp115:
	.loc	8 205 12
	cmpq	%r12, %rsi
	.loc	8 205 9 is_stmt 0
	je	LBB9_15
Ltmp116:
	.loc	8 124 14 is_stmt 1
	movl	$1, %edx
	movq	%r12, %rcx
	callq	___rust_realloc
Ltmp117:
	.loc	8 0 14 is_stmt 0
	jmp	LBB9_14
Ltmp118:
LBB9_6:
	.loc	15 854 19 is_stmt 1
	movq	(%r15), %rdi
	jmp	LBB9_7
Ltmp119:
LBB9_11:
	.loc	8 80 14
	movl	$1, %esi
	movq	%r12, %rdi
	callq	___rust_alloc
Ltmp120:
LBB9_14:
	.loc	7 0 0 is_stmt 0
	movq	%rax, %rdi
Ltmp121:
LBB9_15:
	.loc	19 611 13 is_stmt 1
	testq	%rdi, %rdi
	je	LBB9_19
Ltmp122:
	.loc	7 382 9
	movq	%rdi, (%r15)
	.loc	7 383 9
	movq	%r12, 8(%r15)
Ltmp123:
LBB9_7:
	.file	20 "/rustc/6c8927b0cf80ceee19386026cf9d7fd4fd9d486f/src/libcore/ptr/mut_ptr.rs"
	.loc	20 165 18
	addq	%rbx, %rdi
Ltmp124:
	.loc	20 0 18 is_stmt 0
	leaq	-44(%rbp), %rsi
Ltmp125:
	.loc	9 2130 14 is_stmt 1
	movq	%r13, %rdx
	callq	_memcpy
Ltmp126:
	.loc	15 2201 26
	addq	%r13, %rbx
Ltmp127:
LBB9_23:
	.loc	18 0 0 is_stmt 0
	movq	%rbx, 16(%r15)
Ltmp128:
	.loc	13 255 5 is_stmt 1
	movq	16(%r15), %rax
	movq	%rax, 16(%r14)
	movq	(%r15), %rax
	movq	8(%r15), %rcx
	movq	%rcx, 8(%r14)
	movq	%rax, (%r14)
	.loc	13 256 2
	movq	%r14, %rax
	addq	$8, %rsp
	popq	%rbx
	popq	%r12
	popq	%r13
	popq	%r14
	popq	%r15
Ltmp129:
	popq	%rbp
	retq
LBB9_32:
Ltmp130:
Ltmp67:
	.loc	7 301 38
	callq	__ZN5alloc7raw_vec17capacity_overflow17h7526b10e27579d59E
Ltmp68:
	jmp	LBB9_18
Ltmp131:
LBB9_33:
	.loc	7 302 47
	movl	$1, %esi
	movq	%r13, %rdi
	callq	__ZN5alloc5alloc18handle_alloc_error17h28974197717b8939E
Ltmp132:
LBB9_17:
Ltmp65:
	.loc	7 301 38
	callq	__ZN5alloc7raw_vec17capacity_overflow17h7526b10e27579d59E
Ltmp66:
Ltmp133:
LBB9_18:
	.loc	18 0 0 is_stmt 0
	ud2
Ltmp134:
LBB9_19:
	.loc	7 302 47 is_stmt 1
	movl	$1, %esi
	movq	%r12, %rdi
	callq	__ZN5alloc5alloc18handle_alloc_error17h28974197717b8939E
Ltmp135:
LBB9_34:
Ltmp69:
	.loc	7 0 47 is_stmt 0
	movq	%rax, %rbx
	.loc	13 256 1 is_stmt 1
	movq	%r15, %rdi
	callq	__ZN4core3ptr13drop_in_place17hcd27618d5b5fb9afE
	movq	%rbx, %rdi
	callq	__Unwind_Resume
	ud2
Ltmp136:
Lfunc_end9:
	.cfi_endproc
	.file	21 "/rustc/6c8927b0cf80ceee19386026cf9d7fd4fd9d486f/src/libcore/macros/mod.rs"
	.file	22 "/rustc/6c8927b0cf80ceee19386026cf9d7fd4fd9d486f/src/libcore/slice/mod.rs"
	.section	__TEXT,__gcc_except_tab
	.p2align	2
GCC_except_table9:
Lexception0:
	.byte	255
	.byte	255
	.byte	1
	.uleb128 Lcst_end0-Lcst_begin0
Lcst_begin0:
	.uleb128 Lfunc_begin9-Lfunc_begin9
	.uleb128 Ltmp67-Lfunc_begin9
	.byte	0
	.byte	0
	.uleb128 Ltmp67-Lfunc_begin9
	.uleb128 Ltmp66-Ltmp67
	.uleb128 Ltmp69-Lfunc_begin9
	.byte	0
	.uleb128 Ltmp66-Lfunc_begin9
	.uleb128 Lfunc_end9-Ltmp66
	.byte	0
	.byte	0
Lcst_end0:
	.p2align	2

	.section	__TEXT,__text,regular,pure_instructions
	.globl	__ZN97_$LT$rayon..iter..noop..NoopReducer$u20$as$u20$rayon..iter..plumbing..Reducer$LT$$LP$$RP$$GT$$GT$6reduce17h0a7584c9eea098c3E
	.p2align	4, 0x90
__ZN97_$LT$rayon..iter..noop..NoopReducer$u20$as$u20$rayon..iter..plumbing..Reducer$LT$$LP$$RP$$GT$$GT$6reduce17h0a7584c9eea098c3E:
Lfunc_begin10:
	.file	23 "/Users/yingyuhang/.cargo/registry/src/github.com-1ecc6299db9ec823/rayon-1.3.1/src/iter/noop.rs"
	.loc	23 58 0
	.cfi_startproc
	pushq	%rbp
	.cfi_def_cfa_offset 16
	.cfi_offset %rbp, -16
	movq	%rsp, %rbp
	.cfi_def_cfa_register %rbp
Ltmp137:
	.loc	23 58 46 prologue_end
	popq	%rbp
	retq
Ltmp138:
Lfunc_end10:
	.cfi_endproc

	.globl	__ZN92_$LT$rayon..str..CharIndicesProducer$u20$as$u20$rayon..iter..plumbing..UnindexedProducer$GT$5split17h7fe50fae4d044b7eE
	.p2align	4, 0x90
__ZN92_$LT$rayon..str..CharIndicesProducer$u20$as$u20$rayon..iter..plumbing..UnindexedProducer$GT$5split17h7fe50fae4d044b7eE:
Lfunc_begin11:
	.file	24 "/Users/yingyuhang/.cargo/registry/src/github.com-1ecc6299db9ec823/rayon-1.3.1/src/str.rs"
	.loc	24 466 0
	.cfi_startproc
	pushq	%rbp
	.cfi_def_cfa_offset 16
	.cfi_offset %rbp, -16
	movq	%rsp, %rbp
	.cfi_def_cfa_register %rbp
	movq	%rdi, %rax
Ltmp139:
	.loc	24 467 21 prologue_end
	movq	8(%rsi), %rdi
	movq	16(%rsi), %r9
Ltmp140:
	.loc	24 31 15
	movq	%r9, %rcx
	shrq	%rcx
Ltmp141:
	.loc	22 3440 9
	cmpq	%r9, %rcx
	.loc	22 3570 21
	je	LBB11_4
Ltmp142:
	.file	25 "/rustc/6c8927b0cf80ceee19386026cf9d7fd4fd9d486f/src/libcore/iter/traits/iterator.rs"
	.loc	25 2357 17
	leaq	(%rdi,%rcx), %r8
	movq	%r9, %r10
	subq	%rcx, %r10
	xorl	%edx, %edx
Ltmp143:
	.p2align	4, 0x90
LBB11_2:
	.loc	24 25 5
	cmpb	$-65, (%r8,%rdx)
Ltmp144:
	.loc	25 2357 17
	jg	LBB11_6
Ltmp145:
	.loc	25 0 17 is_stmt 0
	incq	%rdx
Ltmp146:
	.loc	22 3440 9 is_stmt 1
	cmpq	%rdx, %r10
	.loc	22 3570 21
	jne	LBB11_2
Ltmp147:
	.p2align	4, 0x90
LBB11_4:
	.loc	22 3440 9
	testq	%rcx, %rcx
	.loc	22 3753 21
	je	LBB11_12
Ltmp148:
	.loc	24 25 5
	cmpb	$-64, -1(%rdi,%rcx)
Ltmp149:
	.loc	25 2415 25
	leaq	-1(%rcx), %rcx
Ltmp150:
	.file	26 "/rustc/6c8927b0cf80ceee19386026cf9d7fd4fd9d486f/src/libcore/iter/traits/double_ended.rs"
	.loc	26 191 32
	jl	LBB11_4
	jmp	LBB11_7
Ltmp151:
LBB11_6:
	.loc	24 38 20
	addq	%rdx, %rcx
Ltmp152:
	jb	LBB11_17
Ltmp153:
LBB11_7:
	.loc	24 51 8
	testq	%rcx, %rcx
	.loc	24 51 5 is_stmt 0
	je	LBB11_12
Ltmp154:
	.file	27 "/rustc/6c8927b0cf80ceee19386026cf9d7fd4fd9d486f/src/libcore/str/mod.rs"
	.loc	27 2326 26 is_stmt 1
	movq	%r9, %r8
	subq	%rcx, %r8
	.loc	27 2326 12 is_stmt 0
	je	LBB11_13
Ltmp155:
	.loc	27 2330 13 is_stmt 1
	jbe	LBB11_11
Ltmp156:
	.loc	27 2332 25
	cmpb	$-65, (%rdi,%rcx)
Ltmp157:
	.loc	27 2694 9
	jle	LBB11_11
Ltmp158:
LBB11_13:
	.loc	24 469 17
	movq	(%rsi), %rsi
Ltmp159:
	.loc	24 475 28
	movq	%rsi, %rdx
	addq	%rcx, %rdx
	jb	LBB11_16
Ltmp160:
	.loc	24 468 36
	movq	%rsi, (%rax)
	movq	%rdi, 8(%rax)
Ltmp161:
	.file	28 "/rustc/6c8927b0cf80ceee19386026cf9d7fd4fd9d486f/src/libcore/ptr/const_ptr.rs"
	.loc	28 164 18
	addq	%rcx, %rdi
Ltmp162:
	.loc	24 468 36
	movq	%rcx, 16(%rax)
	movq	%rdx, 24(%rax)
	movq	%rdi, 32(%rax)
	movq	%r8, 40(%rax)
Ltmp163:
	.loc	24 480 6
	popq	%rbp
	retq
Ltmp164:
LBB11_12:
	.loc	24 478 22
	movq	16(%rsi), %rcx
	movq	%rcx, 16(%rax)
	movq	(%rsi), %rcx
	movq	8(%rsi), %rdx
	movq	%rdx, 8(%rax)
	movq	%rcx, (%rax)
	.loc	24 478 21 is_stmt 0
	movq	$0, 32(%rax)
	.loc	24 480 6 is_stmt 1
	popq	%rbp
	retq
Ltmp165:
LBB11_11:
	.loc	27 2698 13
	leaq	l___unnamed_8(%rip), %r8
	movq	%r9, %rsi
Ltmp166:
	xorl	%edx, %edx
	callq	__ZN4core3str16slice_error_fail17ha125059561e5ce66E
Ltmp167:
LBB11_16:
	.loc	24 475 28
	leaq	_str.0(%rip), %rdi
Ltmp168:
	leaq	l___unnamed_9(%rip), %rdx
	movl	$28, %esi
	callq	__ZN4core9panicking5panic17h383a6b80ea7021aaE
Ltmp169:
LBB11_17:
	.loc	24 38 20
	leaq	_str.0(%rip), %rdi
Ltmp170:
	leaq	l___unnamed_10(%rip), %rdx
Ltmp171:
	movl	$28, %esi
Ltmp172:
	callq	__ZN4core9panicking5panic17h383a6b80ea7021aaE
Ltmp173:
Lfunc_end11:
	.cfi_endproc
	.file	29 "/rustc/6c8927b0cf80ceee19386026cf9d7fd4fd9d486f/src/libcore/iter/adapters/mod.rs"
	.file	30 "/rustc/6c8927b0cf80ceee19386026cf9d7fd4fd9d486f/src/libcore/ops/function.rs"

	.globl	__ZN86_$LT$rayon..str..BytesProducer$u20$as$u20$rayon..iter..plumbing..UnindexedProducer$GT$5split17hddda7df12be1f113E
	.p2align	4, 0x90
__ZN86_$LT$rayon..str..BytesProducer$u20$as$u20$rayon..iter..plumbing..UnindexedProducer$GT$5split17hddda7df12be1f113E:
Lfunc_begin12:
	.loc	24 517 0
	.cfi_startproc
	pushq	%rbp
	.cfi_def_cfa_offset 16
	.cfi_offset %rbp, -16
	movq	%rsp, %rbp
	.cfi_def_cfa_register %rbp
	movq	%rdi, %rax
Ltmp174:
	.loc	24 31 15 prologue_end
	movq	%rdx, %rcx
	shrq	%rcx
Ltmp175:
	.loc	22 3440 9
	cmpq	%rdx, %rcx
	.loc	22 3570 21
	je	LBB12_4
Ltmp176:
	.loc	24 0 0 is_stmt 0
	leaq	(%rsi,%rcx), %r8
Ltmp177:
	.loc	25 2357 17 is_stmt 1
	movq	%rdx, %r9
	subq	%rcx, %r9
	xorl	%edi, %edi
Ltmp178:
	.p2align	4, 0x90
LBB12_2:
	.loc	24 25 5
	cmpb	$-65, (%r8,%rdi)
Ltmp179:
	.loc	25 2357 17
	jg	LBB12_6
Ltmp180:
	.loc	25 0 17 is_stmt 0
	incq	%rdi
Ltmp181:
	.loc	22 3440 9 is_stmt 1
	cmpq	%rdi, %r9
	.loc	22 3570 21
	jne	LBB12_2
Ltmp182:
	.p2align	4, 0x90
LBB12_4:
	.loc	22 3440 9
	testq	%rcx, %rcx
	.loc	22 3753 21
	je	LBB12_12
Ltmp183:
	.loc	24 25 5
	cmpb	$-64, -1(%rsi,%rcx)
Ltmp184:
	.loc	25 2415 25
	leaq	-1(%rcx), %rcx
Ltmp185:
	.loc	26 191 32
	jl	LBB12_4
	jmp	LBB12_7
Ltmp186:
LBB12_6:
	.loc	24 38 20
	addq	%rdi, %rcx
Ltmp187:
	jb	LBB12_15
Ltmp188:
LBB12_7:
	.loc	24 51 8
	testq	%rcx, %rcx
	.loc	24 51 5 is_stmt 0
	je	LBB12_12
Ltmp189:
	.loc	27 2326 26 is_stmt 1
	cmpq	%rdx, %rcx
	.loc	27 2326 12 is_stmt 0
	je	LBB12_13
Ltmp190:
	.loc	27 2330 13 is_stmt 1
	jae	LBB12_11
Ltmp191:
	.loc	27 2332 25
	cmpb	$-65, (%rsi,%rcx)
Ltmp192:
	.loc	27 2694 9
	jle	LBB12_11
Ltmp193:
LBB12_13:
	.loc	27 1912 23
	subq	%rcx, %rdx
Ltmp194:
	.loc	24 519 36
	movq	%rsi, (%rax)
Ltmp195:
	.loc	28 164 18
	addq	%rcx, %rsi
Ltmp196:
	.loc	24 519 36
	movq	%rcx, 8(%rax)
Ltmp197:
	movq	%rsi, 16(%rax)
	movq	%rdx, 24(%rax)
Ltmp198:
	.loc	24 525 6
	popq	%rbp
	retq
Ltmp199:
LBB12_12:
	.loc	24 523 21
	movq	%rsi, (%rax)
	movq	%rdx, 8(%rax)
	movq	$0, 16(%rax)
	.loc	24 525 6
	popq	%rbp
	retq
Ltmp200:
LBB12_11:
	.loc	27 2698 13
	leaq	l___unnamed_8(%rip), %r8
	movq	%rsi, %rdi
	movq	%rdx, %rsi
Ltmp201:
	xorl	%edx, %edx
Ltmp202:
	callq	__ZN4core3str16slice_error_fail17ha125059561e5ce66E
Ltmp203:
LBB12_15:
	.loc	24 38 20
	leaq	_str.0(%rip), %rdi
Ltmp204:
	leaq	l___unnamed_10(%rip), %rdx
Ltmp205:
	movl	$28, %esi
Ltmp206:
	callq	__ZN4core9panicking5panic17h383a6b80ea7021aaE
Ltmp207:
Lfunc_end12:
	.cfi_endproc

	.globl	__ZN78_$LT$rayon..range..Iter$LT$u8$GT$$u20$as$u20$rayon..iter..ParallelIterator$GT$7opt_len17h542ebdedf5059d4bE
	.p2align	4, 0x90
__ZN78_$LT$rayon..range..Iter$LT$u8$GT$$u20$as$u20$rayon..iter..ParallelIterator$GT$7opt_len17h542ebdedf5059d4bE:
Lfunc_begin13:
	.file	31 "/Users/yingyuhang/.cargo/registry/src/github.com-1ecc6299db9ec823/rayon-1.3.1/src/range.rs"
	.loc	31 90 0
	.cfi_startproc
	pushq	%rbp
	.cfi_def_cfa_offset 16
	.cfi_offset %rbp, -16
	movq	%rsp, %rbp
	.cfi_def_cfa_register %rbp
Ltmp208:
	.loc	31 104 17 prologue_end
	movb	1(%rdi), %al
	xorl	%ecx, %ecx
Ltmp209:
	.file	32 "/rustc/6c8927b0cf80ceee19386026cf9d7fd4fd9d486f/src/libcore/iter/range.rs"
	.loc	32 516 9
	subb	(%rdi), %al
	movzbl	%al, %eax
	cmovbl	%ecx, %eax
	movzbl	%al, %edx
Ltmp210:
	.loc	31 92 14
	movl	$1, %eax
	popq	%rbp
	retq
Ltmp211:
Lfunc_end13:
	.cfi_endproc
	.file	33 "/rustc/6c8927b0cf80ceee19386026cf9d7fd4fd9d486f/src/libcore/iter/traits/exact_size.rs"

	.globl	__ZN85_$LT$rayon..range..Iter$LT$u8$GT$$u20$as$u20$rayon..iter..IndexedParallelIterator$GT$3len17h2990b96447661877E
	.p2align	4, 0x90
__ZN85_$LT$rayon..range..Iter$LT$u8$GT$$u20$as$u20$rayon..iter..IndexedParallelIterator$GT$3len17h2990b96447661877E:
Lfunc_begin14:
	.loc	31 103 0
	.cfi_startproc
	pushq	%rbp
	.cfi_def_cfa_offset 16
	.cfi_offset %rbp, -16
	movq	%rsp, %rbp
	.cfi_def_cfa_register %rbp
Ltmp212:
	.loc	31 104 17 prologue_end
	movb	1(%rdi), %al
	xorl	%ecx, %ecx
Ltmp213:
	.loc	32 516 9
	subb	(%rdi), %al
	movzbl	%al, %eax
	cmovbl	%ecx, %eax
	movzbl	%al, %eax
Ltmp214:
	.loc	31 105 14
	popq	%rbp
	retq
Ltmp215:
Lfunc_end14:
	.cfi_endproc

	.globl	__ZN88_$LT$rayon..range..IterProducer$LT$u8$GT$$u20$as$u20$rayon..iter..plumbing..Producer$GT$8split_at17he923d85c341636f2E
	.p2align	4, 0x90
__ZN88_$LT$rayon..range..IterProducer$LT$u8$GT$$u20$as$u20$rayon..iter..plumbing..Producer$GT$8split_at17he923d85c341636f2E:
Lfunc_begin15:
	.loc	31 122 0
	.cfi_startproc
	xorl	%eax, %eax
Ltmp216:
	.loc	32 516 9 prologue_end
	movl	%esi, %ecx
	subb	%dil, %cl
	movzbl	%cl, %ecx
	cmovbl	%eax, %ecx
	movzbl	%cl, %eax
Ltmp217:
	.loc	31 123 25
	cmpq	%rdx, %rax
	.loc	31 123 17 is_stmt 0
	jb	LBB15_2
Ltmp218:
	.loc	16 3439 17 is_stmt 1
	addb	%dil, %dl
Ltmp219:
	.loc	31 130 14
	movzbl	%sil, %ecx
	shll	$24, %ecx
	movzbl	%dl, %edx
	movl	%edx, %esi
Ltmp220:
	shll	$16, %esi
	shll	$8, %edx
	movzbl	%dil, %eax
	orl	%ecx, %eax
	orl	%esi, %eax
	orl	%edx, %eax
	retq
Ltmp221:
LBB15_2:
	pushq	%rbp
	.cfi_def_cfa_offset 16
	.cfi_offset %rbp, -16
	movq	%rsp, %rbp
	.cfi_def_cfa_register %rbp
	.loc	31 123 17
	leaq	l___unnamed_11(%rip), %rdi
Ltmp222:
	callq	__ZN3std9panicking11begin_panic17h0001feae53a87dfbE
Ltmp223:
Lfunc_end15:
	.cfi_endproc

	.globl	__ZN79_$LT$rayon..range..Iter$LT$u16$GT$$u20$as$u20$rayon..iter..ParallelIterator$GT$7opt_len17hd1dcbb263c5ec242E
	.p2align	4, 0x90
__ZN79_$LT$rayon..range..Iter$LT$u16$GT$$u20$as$u20$rayon..iter..ParallelIterator$GT$7opt_len17hd1dcbb263c5ec242E:
Lfunc_begin16:
	.loc	31 90 0
	.cfi_startproc
	pushq	%rbp
	.cfi_def_cfa_offset 16
	.cfi_offset %rbp, -16
	movq	%rsp, %rbp
	.cfi_def_cfa_register %rbp
Ltmp224:
	.loc	31 104 17 prologue_end
	movzwl	2(%rdi), %eax
	xorl	%ecx, %ecx
Ltmp225:
	.loc	32 516 9
	subw	(%rdi), %ax
	cmovbl	%ecx, %eax
	movzwl	%ax, %edx
Ltmp226:
	.loc	31 92 14
	movl	$1, %eax
	popq	%rbp
	retq
Ltmp227:
Lfunc_end16:
	.cfi_endproc

	.globl	__ZN86_$LT$rayon..range..Iter$LT$u16$GT$$u20$as$u20$rayon..iter..IndexedParallelIterator$GT$3len17h7e226294453a0bf0E
	.p2align	4, 0x90
__ZN86_$LT$rayon..range..Iter$LT$u16$GT$$u20$as$u20$rayon..iter..IndexedParallelIterator$GT$3len17h7e226294453a0bf0E:
Lfunc_begin17:
	.loc	31 103 0
	.cfi_startproc
	pushq	%rbp
	.cfi_def_cfa_offset 16
	.cfi_offset %rbp, -16
	movq	%rsp, %rbp
	.cfi_def_cfa_register %rbp
Ltmp228:
	.loc	31 104 17 prologue_end
	movzwl	2(%rdi), %eax
	xorl	%ecx, %ecx
Ltmp229:
	.loc	32 516 9
	subw	(%rdi), %ax
	cmovbl	%ecx, %eax
	movzwl	%ax, %eax
Ltmp230:
	.loc	31 105 14
	popq	%rbp
	retq
Ltmp231:
Lfunc_end17:
	.cfi_endproc

	.globl	__ZN89_$LT$rayon..range..IterProducer$LT$u16$GT$$u20$as$u20$rayon..iter..plumbing..Producer$GT$8split_at17hb03dfd11feeb759dE
	.p2align	4, 0x90
__ZN89_$LT$rayon..range..IterProducer$LT$u16$GT$$u20$as$u20$rayon..iter..plumbing..Producer$GT$8split_at17hb03dfd11feeb759dE:
Lfunc_begin18:
	.loc	31 122 0
	.cfi_startproc
	xorl	%eax, %eax
Ltmp232:
	.loc	32 516 9 prologue_end
	movl	%esi, %ecx
	subw	%di, %cx
	cmovbl	%eax, %ecx
	movzwl	%cx, %eax
Ltmp233:
	.loc	31 123 25
	cmpq	%rdx, %rax
	.loc	31 123 17 is_stmt 0
	jb	LBB18_2
Ltmp234:
	.loc	16 3439 17 is_stmt 1
	leal	(%rdi,%rdx), %eax
Ltmp235:
	.loc	31 130 14
	movzwl	%si, %ecx
	shlq	$48, %rcx
	movzwl	%ax, %edx
Ltmp236:
	movq	%rdx, %rsi
Ltmp237:
	shlq	$32, %rsi
	shlq	$16, %rdx
	movzwl	%di, %eax
	orq	%rcx, %rax
	orq	%rsi, %rax
	orq	%rdx, %rax
	retq
Ltmp238:
LBB18_2:
	pushq	%rbp
	.cfi_def_cfa_offset 16
	.cfi_offset %rbp, -16
	movq	%rsp, %rbp
	.cfi_def_cfa_register %rbp
	.loc	31 123 17
	leaq	l___unnamed_12(%rip), %rdi
Ltmp239:
	callq	__ZN3std9panicking11begin_panic17h0001feae53a87dfbE
Ltmp240:
Lfunc_end18:
	.cfi_endproc

	.globl	__ZN79_$LT$rayon..range..Iter$LT$u32$GT$$u20$as$u20$rayon..iter..ParallelIterator$GT$7opt_len17h9778400ea89b502fE
	.p2align	4, 0x90
__ZN79_$LT$rayon..range..Iter$LT$u32$GT$$u20$as$u20$rayon..iter..ParallelIterator$GT$7opt_len17h9778400ea89b502fE:
Lfunc_begin19:
	.loc	31 90 0
	.cfi_startproc
	pushq	%rbp
	.cfi_def_cfa_offset 16
	.cfi_offset %rbp, -16
	movq	%rsp, %rbp
	.cfi_def_cfa_register %rbp
Ltmp241:
	.loc	31 104 17 prologue_end
	movl	4(%rdi), %edx
	xorl	%eax, %eax
Ltmp242:
	.loc	32 516 9
	subl	(%rdi), %edx
	cmovbl	%eax, %edx
Ltmp243:
	.loc	31 92 14
	movl	$1, %eax
	popq	%rbp
	retq
Ltmp244:
Lfunc_end19:
	.cfi_endproc

	.globl	__ZN86_$LT$rayon..range..Iter$LT$u32$GT$$u20$as$u20$rayon..iter..IndexedParallelIterator$GT$3len17h1812e74c243c58adE
	.p2align	4, 0x90
__ZN86_$LT$rayon..range..Iter$LT$u32$GT$$u20$as$u20$rayon..iter..IndexedParallelIterator$GT$3len17h1812e74c243c58adE:
Lfunc_begin20:
	.loc	31 103 0
	.cfi_startproc
	pushq	%rbp
	.cfi_def_cfa_offset 16
	.cfi_offset %rbp, -16
	movq	%rsp, %rbp
	.cfi_def_cfa_register %rbp
Ltmp245:
	.loc	31 104 17 prologue_end
	movl	4(%rdi), %eax
	xorl	%ecx, %ecx
Ltmp246:
	.loc	32 516 9
	subl	(%rdi), %eax
	cmovbl	%ecx, %eax
Ltmp247:
	.loc	31 105 14
	popq	%rbp
	retq
Ltmp248:
Lfunc_end20:
	.cfi_endproc

	.globl	__ZN89_$LT$rayon..range..IterProducer$LT$u32$GT$$u20$as$u20$rayon..iter..plumbing..Producer$GT$8split_at17h2c17cd54f6cbf063E
	.p2align	4, 0x90
__ZN89_$LT$rayon..range..IterProducer$LT$u32$GT$$u20$as$u20$rayon..iter..plumbing..Producer$GT$8split_at17h2c17cd54f6cbf063E:
Lfunc_begin21:
	.loc	31 122 0
	.cfi_startproc
	pushq	%rbp
	.cfi_def_cfa_offset 16
	.cfi_offset %rbp, -16
	movq	%rsp, %rbp
	.cfi_def_cfa_register %rbp
	movq	%rdi, %rax
	xorl	%r8d, %r8d
Ltmp249:
	.loc	32 516 9 prologue_end
	movl	%edx, %edi
	subl	%esi, %edi
	cmovbl	%r8d, %edi
Ltmp250:
	.loc	31 123 25
	cmpq	%rcx, %rdi
	.loc	31 123 17 is_stmt 0
	jb	LBB21_2
Ltmp251:
	.loc	16 3439 17 is_stmt 1
	addl	%esi, %ecx
Ltmp252:
	.loc	31 129 17
	movl	%esi, (%rax)
	movl	%ecx, 4(%rax)
	movl	%ecx, 8(%rax)
	movl	%edx, 12(%rax)
Ltmp253:
	.loc	31 130 14
	popq	%rbp
	retq
Ltmp254:
LBB21_2:
	.loc	31 123 17
	leaq	l___unnamed_13(%rip), %rdi
	callq	__ZN3std9panicking11begin_panic17h0001feae53a87dfbE
Ltmp255:
Lfunc_end21:
	.cfi_endproc

	.globl	__ZN81_$LT$rayon..range..Iter$LT$usize$GT$$u20$as$u20$rayon..iter..ParallelIterator$GT$7opt_len17h72dab7388fb6307fE
	.p2align	4, 0x90
__ZN81_$LT$rayon..range..Iter$LT$usize$GT$$u20$as$u20$rayon..iter..ParallelIterator$GT$7opt_len17h72dab7388fb6307fE:
Lfunc_begin22:
	.loc	31 90 0
	.cfi_startproc
	pushq	%rbp
	.cfi_def_cfa_offset 16
	.cfi_offset %rbp, -16
	movq	%rsp, %rbp
	.cfi_def_cfa_register %rbp
Ltmp256:
	.loc	31 104 17 prologue_end
	movq	8(%rdi), %rax
	xorl	%edx, %edx
Ltmp257:
	.loc	32 516 9
	subq	(%rdi), %rax
	cmovaeq	%rax, %rdx
Ltmp258:
	.loc	31 92 14
	movl	$1, %eax
	popq	%rbp
	retq
Ltmp259:
Lfunc_end22:
	.cfi_endproc

	.globl	__ZN88_$LT$rayon..range..Iter$LT$usize$GT$$u20$as$u20$rayon..iter..IndexedParallelIterator$GT$3len17he1e8f29f2a3a4155E
	.p2align	4, 0x90
__ZN88_$LT$rayon..range..Iter$LT$usize$GT$$u20$as$u20$rayon..iter..IndexedParallelIterator$GT$3len17he1e8f29f2a3a4155E:
Lfunc_begin23:
	.loc	31 103 0
	.cfi_startproc
	pushq	%rbp
	.cfi_def_cfa_offset 16
	.cfi_offset %rbp, -16
	movq	%rsp, %rbp
	.cfi_def_cfa_register %rbp
Ltmp260:
	.loc	31 104 17 prologue_end
	movq	8(%rdi), %rcx
	xorl	%eax, %eax
Ltmp261:
	.loc	32 516 9
	subq	(%rdi), %rcx
	cmovaeq	%rcx, %rax
Ltmp262:
	.loc	31 105 14
	popq	%rbp
	retq
Ltmp263:
Lfunc_end23:
	.cfi_endproc

	.globl	__ZN91_$LT$rayon..range..IterProducer$LT$usize$GT$$u20$as$u20$rayon..iter..plumbing..Producer$GT$8split_at17h57364c476ea8b371E
	.p2align	4, 0x90
__ZN91_$LT$rayon..range..IterProducer$LT$usize$GT$$u20$as$u20$rayon..iter..plumbing..Producer$GT$8split_at17h57364c476ea8b371E:
Lfunc_begin24:
	.loc	31 122 0
	.cfi_startproc
	pushq	%rbp
	.cfi_def_cfa_offset 16
	.cfi_offset %rbp, -16
	movq	%rsp, %rbp
	.cfi_def_cfa_register %rbp
	movq	%rdi, %rax
	xorl	%r8d, %r8d
Ltmp264:
	.loc	32 516 9 prologue_end
	movq	%rdx, %rdi
	subq	%rsi, %rdi
	cmovaeq	%rdi, %r8
Ltmp265:
	.loc	31 123 25
	cmpq	%rcx, %r8
	.loc	31 123 17 is_stmt 0
	jb	LBB24_2
Ltmp266:
	.loc	16 3439 17 is_stmt 1
	addq	%rsi, %rcx
Ltmp267:
	.loc	31 129 17
	movq	%rsi, (%rax)
	movq	%rcx, 8(%rax)
	movq	%rcx, 16(%rax)
	movq	%rdx, 24(%rax)
Ltmp268:
	.loc	31 130 14
	popq	%rbp
	retq
Ltmp269:
LBB24_2:
	.loc	31 123 17
	leaq	l___unnamed_14(%rip), %rdi
	callq	__ZN3std9panicking11begin_panic17h0001feae53a87dfbE
Ltmp270:
Lfunc_end24:
	.cfi_endproc

	.globl	__ZN78_$LT$rayon..range..Iter$LT$i8$GT$$u20$as$u20$rayon..iter..ParallelIterator$GT$7opt_len17h8253352f0283c2d5E
	.p2align	4, 0x90
__ZN78_$LT$rayon..range..Iter$LT$i8$GT$$u20$as$u20$rayon..iter..ParallelIterator$GT$7opt_len17h8253352f0283c2d5E:
Lfunc_begin25:
	.loc	31 90 0
	.cfi_startproc
	pushq	%rbp
	.cfi_def_cfa_offset 16
	.cfi_offset %rbp, -16
	movq	%rsp, %rbp
	.cfi_def_cfa_register %rbp
Ltmp271:
	.loc	31 104 17 prologue_end
	movsbq	(%rdi), %rax
	movsbq	1(%rdi), %rcx
Ltmp272:
	.loc	32 516 9
	movq	%rcx, %rsi
	subq	%rax, %rsi
	xorl	%edx, %edx
Ltmp273:
	.loc	17 1136 52
	cmpb	%cl, %al
Ltmp274:
	.loc	32 516 9
	cmovlq	%rsi, %rdx
Ltmp275:
	.loc	31 92 14
	movl	$1, %eax
	popq	%rbp
	retq
Ltmp276:
Lfunc_end25:
	.cfi_endproc

	.globl	__ZN85_$LT$rayon..range..Iter$LT$i8$GT$$u20$as$u20$rayon..iter..IndexedParallelIterator$GT$3len17ha20b0af7b3bf9e2cE
	.p2align	4, 0x90
__ZN85_$LT$rayon..range..Iter$LT$i8$GT$$u20$as$u20$rayon..iter..IndexedParallelIterator$GT$3len17ha20b0af7b3bf9e2cE:
Lfunc_begin26:
	.loc	31 103 0
	.cfi_startproc
	pushq	%rbp
	.cfi_def_cfa_offset 16
	.cfi_offset %rbp, -16
	movq	%rsp, %rbp
	.cfi_def_cfa_register %rbp
Ltmp277:
	.loc	31 104 17 prologue_end
	movsbq	(%rdi), %rcx
	movsbq	1(%rdi), %rdx
Ltmp278:
	.loc	32 516 9
	movq	%rdx, %rsi
	subq	%rcx, %rsi
	xorl	%eax, %eax
Ltmp279:
	.loc	17 1136 52
	cmpb	%dl, %cl
Ltmp280:
	.loc	32 516 9
	cmovlq	%rsi, %rax
Ltmp281:
	.loc	31 105 14
	popq	%rbp
	retq
Ltmp282:
Lfunc_end26:
	.cfi_endproc

	.globl	__ZN88_$LT$rayon..range..IterProducer$LT$i8$GT$$u20$as$u20$rayon..iter..plumbing..Producer$GT$9into_iter17h007a7404eedc74efE
	.p2align	4, 0x90
__ZN88_$LT$rayon..range..IterProducer$LT$i8$GT$$u20$as$u20$rayon..iter..plumbing..Producer$GT$9into_iter17h007a7404eedc74efE:
Lfunc_begin27:
	.loc	31 118 0
	.cfi_startproc
	pushq	%rbp
	.cfi_def_cfa_offset 16
	.cfi_offset %rbp, -16
	movq	%rsp, %rbp
	.cfi_def_cfa_register %rbp
	movl	%esi, %edx
Ltmp283:
	movl	%edi, %eax
Ltmp284:
	.loc	31 120 14 prologue_end
	popq	%rbp
	retq
Ltmp285:
Lfunc_end27:
	.cfi_endproc

	.globl	__ZN88_$LT$rayon..range..IterProducer$LT$i8$GT$$u20$as$u20$rayon..iter..plumbing..Producer$GT$8split_at17hf60e3490294ae363E
	.p2align	4, 0x90
__ZN88_$LT$rayon..range..IterProducer$LT$i8$GT$$u20$as$u20$rayon..iter..plumbing..Producer$GT$8split_at17hf60e3490294ae363E:
Lfunc_begin28:
	.loc	31 122 0
	.cfi_startproc
	.loc	32 516 9 prologue_end
	movsbq	%sil, %rax
	movsbq	%dil, %rcx
	subq	%rcx, %rax
	xorl	%ecx, %ecx
Ltmp286:
	.loc	17 1136 52
	cmpb	%sil, %dil
Ltmp287:
	.loc	32 516 9
	cmovlq	%rax, %rcx
Ltmp288:
	.loc	31 123 25
	cmpq	%rdx, %rcx
	.loc	31 123 17 is_stmt 0
	jb	LBB28_2
Ltmp289:
	.loc	16 1309 17 is_stmt 1
	addb	%dil, %dl
Ltmp290:
	.loc	31 130 14
	movzbl	%sil, %ecx
	shll	$24, %ecx
	movzbl	%dl, %edx
	movl	%edx, %esi
Ltmp291:
	shll	$16, %esi
	shll	$8, %edx
	movzbl	%dil, %eax
	orl	%ecx, %eax
	orl	%esi, %eax
	orl	%edx, %eax
	retq
Ltmp292:
LBB28_2:
	pushq	%rbp
	.cfi_def_cfa_offset 16
	.cfi_offset %rbp, -16
	movq	%rsp, %rbp
	.cfi_def_cfa_register %rbp
	.loc	31 123 17
	leaq	l___unnamed_15(%rip), %rdi
Ltmp293:
	callq	__ZN3std9panicking11begin_panic17h0001feae53a87dfbE
Ltmp294:
Lfunc_end28:
	.cfi_endproc

	.globl	__ZN79_$LT$rayon..range..Iter$LT$i16$GT$$u20$as$u20$rayon..iter..ParallelIterator$GT$7opt_len17heea1470d2d705a9aE
	.p2align	4, 0x90
__ZN79_$LT$rayon..range..Iter$LT$i16$GT$$u20$as$u20$rayon..iter..ParallelIterator$GT$7opt_len17heea1470d2d705a9aE:
Lfunc_begin29:
	.loc	31 90 0
	.cfi_startproc
	pushq	%rbp
	.cfi_def_cfa_offset 16
	.cfi_offset %rbp, -16
	movq	%rsp, %rbp
	.cfi_def_cfa_register %rbp
Ltmp295:
	.loc	31 104 17 prologue_end
	movswq	(%rdi), %rax
	movswq	2(%rdi), %rcx
Ltmp296:
	.loc	32 516 9
	movq	%rcx, %rsi
	subq	%rax, %rsi
	xorl	%edx, %edx
Ltmp297:
	.loc	17 1136 52
	cmpw	%cx, %ax
Ltmp298:
	.loc	32 516 9
	cmovlq	%rsi, %rdx
Ltmp299:
	.loc	31 92 14
	movl	$1, %eax
	popq	%rbp
	retq
Ltmp300:
Lfunc_end29:
	.cfi_endproc

	.globl	__ZN86_$LT$rayon..range..Iter$LT$i16$GT$$u20$as$u20$rayon..iter..IndexedParallelIterator$GT$3len17h409432efd9bf2822E
	.p2align	4, 0x90
__ZN86_$LT$rayon..range..Iter$LT$i16$GT$$u20$as$u20$rayon..iter..IndexedParallelIterator$GT$3len17h409432efd9bf2822E:
Lfunc_begin30:
	.loc	31 103 0
	.cfi_startproc
	pushq	%rbp
	.cfi_def_cfa_offset 16
	.cfi_offset %rbp, -16
	movq	%rsp, %rbp
	.cfi_def_cfa_register %rbp
Ltmp301:
	.loc	31 104 17 prologue_end
	movswq	(%rdi), %rcx
	movswq	2(%rdi), %rdx
Ltmp302:
	.loc	32 516 9
	movq	%rdx, %rsi
	subq	%rcx, %rsi
	xorl	%eax, %eax
Ltmp303:
	.loc	17 1136 52
	cmpw	%dx, %cx
Ltmp304:
	.loc	32 516 9
	cmovlq	%rsi, %rax
Ltmp305:
	.loc	31 105 14
	popq	%rbp
	retq
Ltmp306:
Lfunc_end30:
	.cfi_endproc

	.globl	__ZN89_$LT$rayon..range..IterProducer$LT$i16$GT$$u20$as$u20$rayon..iter..plumbing..Producer$GT$9into_iter17h7014ca64bf58ddb3E
	.p2align	4, 0x90
__ZN89_$LT$rayon..range..IterProducer$LT$i16$GT$$u20$as$u20$rayon..iter..plumbing..Producer$GT$9into_iter17h7014ca64bf58ddb3E:
Lfunc_begin31:
	.loc	31 118 0
	.cfi_startproc
	pushq	%rbp
	.cfi_def_cfa_offset 16
	.cfi_offset %rbp, -16
	movq	%rsp, %rbp
	.cfi_def_cfa_register %rbp
	movl	%esi, %edx
Ltmp307:
	movl	%edi, %eax
Ltmp308:
	.loc	31 120 14 prologue_end
	popq	%rbp
	retq
Ltmp309:
Lfunc_end31:
	.cfi_endproc

	.globl	__ZN89_$LT$rayon..range..IterProducer$LT$i16$GT$$u20$as$u20$rayon..iter..plumbing..Producer$GT$8split_at17h120c7e539a8cb3cfE
	.p2align	4, 0x90
__ZN89_$LT$rayon..range..IterProducer$LT$i16$GT$$u20$as$u20$rayon..iter..plumbing..Producer$GT$8split_at17h120c7e539a8cb3cfE:
Lfunc_begin32:
	.loc	31 122 0
	.cfi_startproc
	.loc	32 516 9 prologue_end
	movswq	%si, %rax
	movswq	%di, %rcx
	subq	%rcx, %rax
	xorl	%ecx, %ecx
Ltmp310:
	.loc	17 1136 52
	cmpw	%si, %di
Ltmp311:
	.loc	32 516 9
	cmovlq	%rax, %rcx
Ltmp312:
	.loc	31 123 25
	cmpq	%rdx, %rcx
	.loc	31 123 17 is_stmt 0
	jb	LBB32_2
Ltmp313:
	.loc	16 1309 17 is_stmt 1
	leal	(%rdi,%rdx), %eax
Ltmp314:
	.loc	31 130 14
	movzwl	%si, %ecx
	shlq	$48, %rcx
	movzwl	%ax, %edx
Ltmp315:
	movq	%rdx, %rsi
Ltmp316:
	shlq	$32, %rsi
	shlq	$16, %rdx
	movzwl	%di, %eax
	orq	%rcx, %rax
	orq	%rsi, %rax
	orq	%rdx, %rax
	retq
Ltmp317:
LBB32_2:
	pushq	%rbp
	.cfi_def_cfa_offset 16
	.cfi_offset %rbp, -16
	movq	%rsp, %rbp
	.cfi_def_cfa_register %rbp
	.loc	31 123 17
	leaq	l___unnamed_16(%rip), %rdi
Ltmp318:
	callq	__ZN3std9panicking11begin_panic17h0001feae53a87dfbE
Ltmp319:
Lfunc_end32:
	.cfi_endproc

	.globl	__ZN79_$LT$rayon..range..Iter$LT$i32$GT$$u20$as$u20$rayon..iter..ParallelIterator$GT$7opt_len17ha68b2b7f80fec46eE
	.p2align	4, 0x90
__ZN79_$LT$rayon..range..Iter$LT$i32$GT$$u20$as$u20$rayon..iter..ParallelIterator$GT$7opt_len17ha68b2b7f80fec46eE:
Lfunc_begin33:
	.loc	31 90 0
	.cfi_startproc
	pushq	%rbp
	.cfi_def_cfa_offset 16
	.cfi_offset %rbp, -16
	movq	%rsp, %rbp
	.cfi_def_cfa_register %rbp
Ltmp320:
	.loc	31 104 17 prologue_end
	movslq	(%rdi), %rax
	movslq	4(%rdi), %rcx
Ltmp321:
	.loc	32 516 9
	movq	%rcx, %rsi
	subq	%rax, %rsi
	xorl	%edx, %edx
Ltmp322:
	.loc	17 1136 52
	cmpl	%ecx, %eax
Ltmp323:
	.loc	32 516 9
	cmovlq	%rsi, %rdx
Ltmp324:
	.loc	31 92 14
	movl	$1, %eax
	popq	%rbp
	retq
Ltmp325:
Lfunc_end33:
	.cfi_endproc

	.globl	__ZN86_$LT$rayon..range..Iter$LT$i32$GT$$u20$as$u20$rayon..iter..IndexedParallelIterator$GT$3len17he6640c81ac8183a4E
	.p2align	4, 0x90
__ZN86_$LT$rayon..range..Iter$LT$i32$GT$$u20$as$u20$rayon..iter..IndexedParallelIterator$GT$3len17he6640c81ac8183a4E:
Lfunc_begin34:
	.loc	31 103 0
	.cfi_startproc
	pushq	%rbp
	.cfi_def_cfa_offset 16
	.cfi_offset %rbp, -16
	movq	%rsp, %rbp
	.cfi_def_cfa_register %rbp
Ltmp326:
	.loc	31 104 17 prologue_end
	movslq	(%rdi), %rcx
	movslq	4(%rdi), %rdx
Ltmp327:
	.loc	32 516 9
	movq	%rdx, %rsi
	subq	%rcx, %rsi
	xorl	%eax, %eax
Ltmp328:
	.loc	17 1136 52
	cmpl	%edx, %ecx
Ltmp329:
	.loc	32 516 9
	cmovlq	%rsi, %rax
Ltmp330:
	.loc	31 105 14
	popq	%rbp
	retq
Ltmp331:
Lfunc_end34:
	.cfi_endproc

	.globl	__ZN89_$LT$rayon..range..IterProducer$LT$i32$GT$$u20$as$u20$rayon..iter..plumbing..Producer$GT$9into_iter17h194645a1264728deE
	.p2align	4, 0x90
__ZN89_$LT$rayon..range..IterProducer$LT$i32$GT$$u20$as$u20$rayon..iter..plumbing..Producer$GT$9into_iter17h194645a1264728deE:
Lfunc_begin35:
	.loc	31 118 0
	.cfi_startproc
	pushq	%rbp
	.cfi_def_cfa_offset 16
	.cfi_offset %rbp, -16
	movq	%rsp, %rbp
	.cfi_def_cfa_register %rbp
	movl	%esi, %edx
	movl	%edi, %eax
Ltmp332:
	.loc	31 120 14 prologue_end
	popq	%rbp
	retq
Ltmp333:
Lfunc_end35:
	.cfi_endproc

	.globl	__ZN89_$LT$rayon..range..IterProducer$LT$i32$GT$$u20$as$u20$rayon..iter..plumbing..Producer$GT$8split_at17he1495ffeecf9ae12E
	.p2align	4, 0x90
__ZN89_$LT$rayon..range..IterProducer$LT$i32$GT$$u20$as$u20$rayon..iter..plumbing..Producer$GT$8split_at17he1495ffeecf9ae12E:
Lfunc_begin36:
	.loc	31 122 0
	.cfi_startproc
	pushq	%rbp
	.cfi_def_cfa_offset 16
	.cfi_offset %rbp, -16
	movq	%rsp, %rbp
	.cfi_def_cfa_register %rbp
	movq	%rdi, %rax
Ltmp334:
	.loc	32 516 9 prologue_end
	movslq	%edx, %r8
	movslq	%esi, %r9
	movq	%r8, %r10
	subq	%r9, %r10
	xorl	%edi, %edi
Ltmp335:
	.loc	17 1136 52
	cmpl	%r8d, %r9d
Ltmp336:
	.loc	32 516 9
	cmovlq	%r10, %rdi
Ltmp337:
	.loc	31 123 25
	cmpq	%rcx, %rdi
	.loc	31 123 17 is_stmt 0
	jb	LBB36_2
Ltmp338:
	.loc	16 1309 17 is_stmt 1
	addl	%esi, %ecx
Ltmp339:
	.loc	31 129 17
	movl	%esi, (%rax)
	movl	%ecx, 4(%rax)
	movl	%ecx, 8(%rax)
	movl	%edx, 12(%rax)
Ltmp340:
	.loc	31 130 14
	popq	%rbp
	retq
Ltmp341:
LBB36_2:
	.loc	31 123 17
	leaq	l___unnamed_17(%rip), %rdi
	callq	__ZN3std9panicking11begin_panic17h0001feae53a87dfbE
Ltmp342:
Lfunc_end36:
	.cfi_endproc

	.globl	__ZN81_$LT$rayon..range..Iter$LT$isize$GT$$u20$as$u20$rayon..iter..ParallelIterator$GT$7opt_len17h13fe29f6139c7b80E
	.p2align	4, 0x90
__ZN81_$LT$rayon..range..Iter$LT$isize$GT$$u20$as$u20$rayon..iter..ParallelIterator$GT$7opt_len17h13fe29f6139c7b80E:
Lfunc_begin37:
	.loc	31 90 0
	.cfi_startproc
	pushq	%rbp
	.cfi_def_cfa_offset 16
	.cfi_offset %rbp, -16
	movq	%rsp, %rbp
	.cfi_def_cfa_register %rbp
Ltmp343:
	.loc	31 104 17 prologue_end
	movq	8(%rdi), %rax
	xorl	%edx, %edx
Ltmp344:
	.loc	17 1136 52
	subq	(%rdi), %rax
Ltmp345:
	.loc	32 516 9
	cmovgq	%rax, %rdx
Ltmp346:
	.loc	31 92 14
	movl	$1, %eax
	popq	%rbp
	retq
Ltmp347:
Lfunc_end37:
	.cfi_endproc

	.globl	__ZN88_$LT$rayon..range..Iter$LT$isize$GT$$u20$as$u20$rayon..iter..IndexedParallelIterator$GT$3len17h17fb610f5bc79296E
	.p2align	4, 0x90
__ZN88_$LT$rayon..range..Iter$LT$isize$GT$$u20$as$u20$rayon..iter..IndexedParallelIterator$GT$3len17h17fb610f5bc79296E:
Lfunc_begin38:
	.loc	31 103 0
	.cfi_startproc
	pushq	%rbp
	.cfi_def_cfa_offset 16
	.cfi_offset %rbp, -16
	movq	%rsp, %rbp
	.cfi_def_cfa_register %rbp
Ltmp348:
	.loc	31 104 17 prologue_end
	movq	8(%rdi), %rcx
	xorl	%eax, %eax
Ltmp349:
	.loc	17 1136 52
	subq	(%rdi), %rcx
Ltmp350:
	.loc	32 516 9
	cmovgq	%rcx, %rax
Ltmp351:
	.loc	31 105 14
	popq	%rbp
	retq
Ltmp352:
Lfunc_end38:
	.cfi_endproc

	.globl	__ZN91_$LT$rayon..range..IterProducer$LT$isize$GT$$u20$as$u20$rayon..iter..plumbing..Producer$GT$9into_iter17h14ee6020f195f535E
	.p2align	4, 0x90
__ZN91_$LT$rayon..range..IterProducer$LT$isize$GT$$u20$as$u20$rayon..iter..plumbing..Producer$GT$9into_iter17h14ee6020f195f535E:
Lfunc_begin39:
	.loc	31 118 0
	.cfi_startproc
	pushq	%rbp
	.cfi_def_cfa_offset 16
	.cfi_offset %rbp, -16
	movq	%rsp, %rbp
	.cfi_def_cfa_register %rbp
	movq	%rsi, %rdx
	movq	%rdi, %rax
Ltmp353:
	.loc	31 120 14 prologue_end
	popq	%rbp
	retq
Ltmp354:
Lfunc_end39:
	.cfi_endproc

	.globl	__ZN91_$LT$rayon..range..IterProducer$LT$isize$GT$$u20$as$u20$rayon..iter..plumbing..Producer$GT$8split_at17h22d5abf71106f191E
	.p2align	4, 0x90
__ZN91_$LT$rayon..range..IterProducer$LT$isize$GT$$u20$as$u20$rayon..iter..plumbing..Producer$GT$8split_at17h22d5abf71106f191E:
Lfunc_begin40:
	.loc	31 122 0
	.cfi_startproc
	pushq	%rbp
	.cfi_def_cfa_offset 16
	.cfi_offset %rbp, -16
	movq	%rsp, %rbp
	.cfi_def_cfa_register %rbp
	movq	%rdi, %rax
	xorl	%r8d, %r8d
Ltmp355:
	.loc	17 1136 52 prologue_end
	movq	%rdx, %rdi
	subq	%rsi, %rdi
Ltmp356:
	.loc	32 516 9
	cmovgq	%rdi, %r8
Ltmp357:
	.loc	31 123 25
	cmpq	%rcx, %r8
	.loc	31 123 17 is_stmt 0
	jb	LBB40_2
Ltmp358:
	.loc	16 1309 17 is_stmt 1
	addq	%rsi, %rcx
Ltmp359:
	.loc	31 129 17
	movq	%rsi, (%rax)
	movq	%rcx, 8(%rax)
	movq	%rcx, 16(%rax)
	movq	%rdx, 24(%rax)
Ltmp360:
	.loc	31 130 14
	popq	%rbp
	retq
Ltmp361:
LBB40_2:
	.loc	31 123 17
	leaq	l___unnamed_18(%rip), %rdi
	callq	__ZN3std9panicking11begin_panic17h0001feae53a87dfbE
Ltmp362:
Lfunc_end40:
	.cfi_endproc

	.globl	__ZN97_$LT$core..ops..range..Range$LT$u64$GT$$u20$as$u20$rayon..range..UnindexedRangeLen$LT$u64$GT$$GT$3len17hc815f6faf86507f7E
	.p2align	4, 0x90
__ZN97_$LT$core..ops..range..Range$LT$u64$GT$$u20$as$u20$rayon..range..UnindexedRangeLen$LT$u64$GT$$GT$3len17hc815f6faf86507f7E:
Lfunc_begin41:
	.loc	31 142 0
	.cfi_startproc
	pushq	%rbp
	.cfi_def_cfa_offset 16
	.cfi_offset %rbp, -16
	movq	%rsp, %rbp
	.cfi_def_cfa_register %rbp
Ltmp363:
	.loc	31 143 37 prologue_end
	movq	8(%rdi), %rcx
	xorl	%eax, %eax
Ltmp364:
	.loc	31 144 17
	subq	(%rdi), %rcx
Ltmp365:
	cmovaeq	%rcx, %rax
Ltmp366:
	.loc	31 149 14
	popq	%rbp
	retq
Ltmp367:
Lfunc_end41:
	.cfi_endproc

	.globl	__ZN79_$LT$rayon..range..Iter$LT$u64$GT$$u20$as$u20$rayon..iter..ParallelIterator$GT$7opt_len17h40a8db94acdb6023E
	.p2align	4, 0x90
__ZN79_$LT$rayon..range..Iter$LT$u64$GT$$u20$as$u20$rayon..iter..ParallelIterator$GT$7opt_len17h40a8db94acdb6023E:
Lfunc_begin42:
	.loc	31 175 0
	.cfi_startproc
	pushq	%rbp
	.cfi_def_cfa_offset 16
	.cfi_offset %rbp, -16
	movq	%rsp, %rbp
	.cfi_def_cfa_register %rbp
Ltmp368:
	.loc	31 143 37 prologue_end
	movq	8(%rdi), %rax
	xorl	%edx, %edx
Ltmp369:
	.loc	31 144 17
	subq	(%rdi), %rax
Ltmp370:
	cmovaeq	%rax, %rdx
Ltmp371:
	.loc	31 182 14
	movl	$1, %eax
	popq	%rbp
	retq
Ltmp372:
Lfunc_end42:
	.cfi_endproc

	.globl	__ZN98_$LT$rayon..range..IterProducer$LT$u64$GT$$u20$as$u20$rayon..iter..plumbing..UnindexedProducer$GT$5split17h66e453e676a406a2E
	.p2align	4, 0x90
__ZN98_$LT$rayon..range..IterProducer$LT$u64$GT$$u20$as$u20$rayon..iter..plumbing..UnindexedProducer$GT$5split17h66e453e676a406a2E:
Lfunc_begin43:
	.loc	31 188 0
	.cfi_startproc
	pushq	%rbp
	.cfi_def_cfa_offset 16
	.cfi_offset %rbp, -16
	movq	%rsp, %rbp
	.cfi_def_cfa_register %rbp
Ltmp373:
	movq	%rdi, %rax
	xorl	%ecx, %ecx
Ltmp374:
	.loc	31 144 17 prologue_end
	movq	%rdx, %rdi
	subq	%rsi, %rdi
	cmovbq	%rcx, %rdi
Ltmp375:
	.loc	31 189 29
	shrq	%rdi
Ltmp376:
	.loc	31 190 17
	je	LBB43_2
Ltmp377:
	.loc	16 3439 17
	addq	%rsi, %rdi
Ltmp378:
	.loc	31 194 21
	movq	%rdi, 24(%rax)
	movq	%rdx, 32(%rax)
	movl	$1, %ecx
Ltmp379:
	.loc	31 0 0 is_stmt 0
	movq	%rdi, %rdx
Ltmp380:
LBB43_2:
	.loc	31 196 21 is_stmt 1
	movq	%rsi, (%rax)
	movq	%rdx, 8(%rax)
	movq	%rcx, 16(%rax)
Ltmp381:
	.loc	31 198 14
	popq	%rbp
	retq
Ltmp382:
Lfunc_end43:
	.cfi_endproc

	.globl	__ZN97_$LT$core..ops..range..Range$LT$i64$GT$$u20$as$u20$rayon..range..UnindexedRangeLen$LT$u64$GT$$GT$3len17h332e436f81bfc08bE
	.p2align	4, 0x90
__ZN97_$LT$core..ops..range..Range$LT$i64$GT$$u20$as$u20$rayon..range..UnindexedRangeLen$LT$u64$GT$$GT$3len17h332e436f81bfc08bE:
Lfunc_begin44:
	.loc	31 142 0
	.cfi_startproc
	pushq	%rbp
	.cfi_def_cfa_offset 16
	.cfi_offset %rbp, -16
	movq	%rsp, %rbp
	.cfi_def_cfa_register %rbp
Ltmp383:
	.loc	31 143 37 prologue_end
	movq	8(%rdi), %rcx
	xorl	%eax, %eax
Ltmp384:
	.loc	31 144 20
	subq	(%rdi), %rcx
Ltmp385:
	.loc	31 144 17 is_stmt 0
	cmovgq	%rcx, %rax
Ltmp386:
	.loc	31 149 14 is_stmt 1
	popq	%rbp
	retq
Ltmp387:
Lfunc_end44:
	.cfi_endproc

	.globl	__ZN79_$LT$rayon..range..Iter$LT$i64$GT$$u20$as$u20$rayon..iter..ParallelIterator$GT$7opt_len17hdf983ebe906993dbE
	.p2align	4, 0x90
__ZN79_$LT$rayon..range..Iter$LT$i64$GT$$u20$as$u20$rayon..iter..ParallelIterator$GT$7opt_len17hdf983ebe906993dbE:
Lfunc_begin45:
	.loc	31 175 0
	.cfi_startproc
	pushq	%rbp
	.cfi_def_cfa_offset 16
	.cfi_offset %rbp, -16
	movq	%rsp, %rbp
	.cfi_def_cfa_register %rbp
Ltmp388:
	.loc	31 143 37 prologue_end
	movq	8(%rdi), %rax
	xorl	%edx, %edx
Ltmp389:
	.loc	31 144 20
	subq	(%rdi), %rax
Ltmp390:
	.loc	31 144 17 is_stmt 0
	cmovgq	%rax, %rdx
Ltmp391:
	.loc	31 182 14 is_stmt 1
	movl	$1, %eax
	popq	%rbp
	retq
Ltmp392:
Lfunc_end45:
	.cfi_endproc

	.globl	__ZN98_$LT$rayon..range..IterProducer$LT$i64$GT$$u20$as$u20$rayon..iter..plumbing..UnindexedProducer$GT$5split17h1c287b1e9db42fc7E
	.p2align	4, 0x90
__ZN98_$LT$rayon..range..IterProducer$LT$i64$GT$$u20$as$u20$rayon..iter..plumbing..UnindexedProducer$GT$5split17h1c287b1e9db42fc7E:
Lfunc_begin46:
	.loc	31 188 0
	.cfi_startproc
	pushq	%rbp
	.cfi_def_cfa_offset 16
	.cfi_offset %rbp, -16
	movq	%rsp, %rbp
	.cfi_def_cfa_register %rbp
Ltmp393:
	movq	%rdi, %rax
Ltmp394:
	xorl	%ecx, %ecx
Ltmp395:
	.loc	31 144 20 prologue_end
	movq	%rdx, %rdi
	subq	%rsi, %rdi
Ltmp396:
	.loc	31 190 17
	jle	LBB46_3
Ltmp397:
	.loc	31 0 0 is_stmt 0
	shrq	%rdi
Ltmp398:
	.loc	31 190 17
	je	LBB46_3
Ltmp399:
	.loc	16 1309 17 is_stmt 1
	addq	%rsi, %rdi
Ltmp400:
	.loc	31 194 21
	movq	%rdi, 24(%rax)
	movq	%rdx, 32(%rax)
	movl	$1, %ecx
Ltmp401:
	.loc	31 0 0 is_stmt 0
	movq	%rdi, %rdx
Ltmp402:
LBB46_3:
	.loc	31 196 21 is_stmt 1
	movq	%rsi, (%rax)
	movq	%rdx, 8(%rax)
	movq	%rcx, 16(%rax)
Ltmp403:
	.loc	31 198 14
	popq	%rbp
	retq
Ltmp404:
Lfunc_end46:
	.cfi_endproc

	.globl	__ZN99_$LT$core..ops..range..Range$LT$u128$GT$$u20$as$u20$rayon..range..UnindexedRangeLen$LT$u128$GT$$GT$3len17h1e857a81538495f4E
	.p2align	4, 0x90
__ZN99_$LT$core..ops..range..Range$LT$u128$GT$$u20$as$u20$rayon..range..UnindexedRangeLen$LT$u128$GT$$GT$3len17h1e857a81538495f4E:
Lfunc_begin47:
	.loc	31 142 0
	.cfi_startproc
	pushq	%rbp
	.cfi_def_cfa_offset 16
	.cfi_offset %rbp, -16
	movq	%rsp, %rbp
	.cfi_def_cfa_register %rbp
Ltmp405:
	.loc	31 143 37 prologue_end
	movq	16(%rdi), %rax
	xorl	%ecx, %ecx
Ltmp406:
	.loc	31 144 17
	subq	(%rdi), %rax
Ltmp407:
	.loc	31 143 37
	movq	24(%rdi), %rdx
Ltmp408:
	.loc	31 144 17
	sbbq	8(%rdi), %rdx
Ltmp409:
	cmovbq	%rcx, %rax
	cmovbq	%rcx, %rdx
Ltmp410:
	.loc	31 149 14
	popq	%rbp
	retq
Ltmp411:
Lfunc_end47:
	.cfi_endproc

	.globl	__ZN80_$LT$rayon..range..Iter$LT$u128$GT$$u20$as$u20$rayon..iter..ParallelIterator$GT$7opt_len17h06b4b123d5f6bab4E
	.p2align	4, 0x90
__ZN80_$LT$rayon..range..Iter$LT$u128$GT$$u20$as$u20$rayon..iter..ParallelIterator$GT$7opt_len17h06b4b123d5f6bab4E:
Lfunc_begin48:
	.loc	31 175 0
	.cfi_startproc
	pushq	%rbp
	.cfi_def_cfa_offset 16
	.cfi_offset %rbp, -16
	movq	%rsp, %rbp
	.cfi_def_cfa_register %rbp
Ltmp412:
	.loc	31 143 37 prologue_end
	movq	16(%rdi), %rdx
	xorl	%eax, %eax
Ltmp413:
	.loc	31 144 17
	subq	(%rdi), %rdx
Ltmp414:
	.loc	31 143 37
	movq	24(%rdi), %rcx
Ltmp415:
	.loc	31 144 17
	sbbq	8(%rdi), %rcx
Ltmp416:
	cmovbq	%rax, %rdx
	cmovbq	%rax, %rcx
Ltmp417:
	.loc	31 177 20
	xorl	%eax, %eax
	testq	%rcx, %rcx
	sete	%al
Ltmp418:
	.loc	31 182 14
	popq	%rbp
	retq
Ltmp419:
Lfunc_end48:
	.cfi_endproc

	.globl	__ZN99_$LT$rayon..range..IterProducer$LT$u128$GT$$u20$as$u20$rayon..iter..plumbing..UnindexedProducer$GT$5split17ha4adec3ae9b8374cE
	.p2align	4, 0x90
__ZN99_$LT$rayon..range..IterProducer$LT$u128$GT$$u20$as$u20$rayon..iter..plumbing..UnindexedProducer$GT$5split17ha4adec3ae9b8374cE:
Lfunc_begin49:
	.loc	31 188 0
	.cfi_startproc
	pushq	%rbp
	.cfi_def_cfa_offset 16
	.cfi_offset %rbp, -16
	movq	%rsp, %rbp
	.cfi_def_cfa_register %rbp
	movq	%rdi, %rax
	xorl	%r10d, %r10d
Ltmp420:
	.loc	31 144 17 prologue_end
	movq	%rcx, %r9
	subq	%rsi, %r9
	movq	%r8, %r11
	sbbq	%rdx, %r11
	cmovbq	%r10, %r9
	cmovbq	%r10, %r11
Ltmp421:
	.loc	31 189 29
	shrdq	$1, %r11, %r9
	shrq	%r11
Ltmp422:
	.loc	31 190 20
	movq	%r9, %rdi
	orq	%r11, %rdi
	.loc	31 190 17 is_stmt 0
	je	LBB49_1
Ltmp423:
	.loc	16 3439 17 is_stmt 1
	addq	%rsi, %r9
Ltmp424:
	adcq	%rdx, %r11
Ltmp425:
	.loc	31 194 21
	movq	%rsi, (%rax)
	movq	%rdx, 8(%rax)
	movq	%r9, 40(%rax)
	movq	%r11, 48(%rax)
	movq	%rcx, 56(%rax)
	movq	%r8, 64(%rax)
	movl	$1, %edx
Ltmp426:
	.loc	31 0 0 is_stmt 0
	movq	%r9, %rcx
Ltmp427:
	movq	%r11, %r8
Ltmp428:
	jmp	LBB49_3
Ltmp429:
LBB49_1:
	.loc	31 196 21 is_stmt 1
	movq	%rsi, (%rax)
	movq	%rdx, 8(%rax)
	xorl	%edx, %edx
Ltmp430:
LBB49_3:
	movq	%rcx, 16(%rax)
	movq	%r8, 24(%rax)
	movq	%rdx, 32(%rax)
Ltmp431:
	.loc	31 198 14
	popq	%rbp
	retq
Ltmp432:
Lfunc_end49:
	.cfi_endproc

	.globl	__ZN99_$LT$core..ops..range..Range$LT$i128$GT$$u20$as$u20$rayon..range..UnindexedRangeLen$LT$u128$GT$$GT$3len17h4bde0edf33d51515E
	.p2align	4, 0x90
__ZN99_$LT$core..ops..range..Range$LT$i128$GT$$u20$as$u20$rayon..range..UnindexedRangeLen$LT$u128$GT$$GT$3len17h4bde0edf33d51515E:
Lfunc_begin50:
	.loc	31 142 0
	.cfi_startproc
	pushq	%rbp
	.cfi_def_cfa_offset 16
	.cfi_offset %rbp, -16
	movq	%rsp, %rbp
	.cfi_def_cfa_register %rbp
Ltmp433:
	.loc	31 143 30 prologue_end
	movq	(%rdi), %r8
	movq	8(%rdi), %rsi
	.loc	31 143 37 is_stmt 0
	movq	24(%rdi), %rcx
	movq	16(%rdi), %rdi
Ltmp434:
	.loc	16 1333 17 is_stmt 1
	movq	%rdi, %rax
	subq	%r8, %rax
	movq	%rcx, %rdx
	sbbq	%rsi, %rdx
	xorl	%r9d, %r9d
Ltmp435:
	.loc	31 144 20
	cmpq	%rdi, %r8
	sbbq	%rcx, %rsi
Ltmp436:
	.loc	31 144 17 is_stmt 0
	cmovgeq	%r9, %rax
	cmovgeq	%r9, %rdx
Ltmp437:
	.loc	31 149 14 is_stmt 1
	popq	%rbp
	retq
Ltmp438:
Lfunc_end50:
	.cfi_endproc

	.globl	__ZN80_$LT$rayon..range..Iter$LT$i128$GT$$u20$as$u20$rayon..iter..ParallelIterator$GT$7opt_len17h7e909a014d6b1dfeE
	.p2align	4, 0x90
__ZN80_$LT$rayon..range..Iter$LT$i128$GT$$u20$as$u20$rayon..iter..ParallelIterator$GT$7opt_len17h7e909a014d6b1dfeE:
Lfunc_begin51:
	.loc	31 175 0
	.cfi_startproc
	pushq	%rbp
	.cfi_def_cfa_offset 16
	.cfi_offset %rbp, -16
	movq	%rsp, %rbp
	.cfi_def_cfa_register %rbp
Ltmp439:
	.loc	31 143 30 prologue_end
	movq	(%rdi), %r8
	movq	8(%rdi), %rcx
	.loc	31 143 37 is_stmt 0
	movq	24(%rdi), %rax
	movq	16(%rdi), %rdi
Ltmp440:
	.loc	16 1333 17 is_stmt 1
	movq	%rdi, %rdx
	subq	%r8, %rdx
	movq	%rax, %rsi
	sbbq	%rcx, %rsi
	xorl	%r9d, %r9d
Ltmp441:
	.loc	31 144 20
	cmpq	%rdi, %r8
	sbbq	%rax, %rcx
Ltmp442:
	.loc	31 144 17 is_stmt 0
	cmovgeq	%r9, %rdx
	cmovgeq	%r9, %rsi
Ltmp443:
	.loc	31 177 20 is_stmt 1
	xorl	%eax, %eax
Ltmp444:
	testq	%rsi, %rsi
	sete	%al
Ltmp445:
	.loc	31 182 14
	popq	%rbp
	retq
Ltmp446:
Lfunc_end51:
	.cfi_endproc

	.globl	__ZN99_$LT$rayon..range..IterProducer$LT$i128$GT$$u20$as$u20$rayon..iter..plumbing..UnindexedProducer$GT$5split17h7f946a9d51902813E
	.p2align	4, 0x90
__ZN99_$LT$rayon..range..IterProducer$LT$i128$GT$$u20$as$u20$rayon..iter..plumbing..UnindexedProducer$GT$5split17h7f946a9d51902813E:
Lfunc_begin52:
	.loc	31 188 0
	.cfi_startproc
	pushq	%rbp
	.cfi_def_cfa_offset 16
	.cfi_offset %rbp, -16
	movq	%rsp, %rbp
	.cfi_def_cfa_register %rbp
Ltmp447:
	.loc	16 1333 17 prologue_end
	movq	%rcx, %r9
	subq	%rsi, %r9
	movq	%r8, %r10
	sbbq	%rdx, %r10
Ltmp448:
	.loc	16 0 17 is_stmt 0
	movq	%rdi, %rax
Ltmp449:
	.loc	31 144 20 is_stmt 1
	cmpq	%rcx, %rsi
	movq	%rdx, %rdi
	sbbq	%r8, %rdi
Ltmp450:
	.loc	31 190 17
	jge	LBB52_2
Ltmp451:
	.loc	31 0 0 is_stmt 0
	shrdq	$1, %r10, %r9
	shrq	%r10
Ltmp452:
	.loc	31 190 17
	movq	%r9, %rdi
	orq	%r10, %rdi
	je	LBB52_2
Ltmp453:
	.loc	16 1309 17 is_stmt 1
	addq	%rsi, %r9
Ltmp454:
	adcq	%rdx, %r10
Ltmp455:
	.loc	31 194 21
	movq	%rsi, (%rax)
	movq	%rdx, 8(%rax)
	movq	%r9, 40(%rax)
	movq	%r10, 48(%rax)
	movq	%rcx, 56(%rax)
	movq	%r8, 64(%rax)
	movl	$1, %edx
Ltmp456:
	.loc	31 0 0 is_stmt 0
	movq	%r9, %rcx
Ltmp457:
	movq	%r10, %r8
Ltmp458:
	jmp	LBB52_4
Ltmp459:
LBB52_2:
	.loc	31 196 21 is_stmt 1
	movq	%rsi, (%rax)
	movq	%rdx, 8(%rax)
	xorl	%edx, %edx
Ltmp460:
LBB52_4:
	movq	%rcx, 16(%rax)
	movq	%r8, 24(%rax)
	movq	%rdx, 32(%rax)
Ltmp461:
	.loc	31 198 14
	popq	%rbp
	retq
Ltmp462:
Lfunc_end52:
	.cfi_endproc

	.globl	__ZN95_$LT$rayon..range_inclusive..Iter$LT$u8$GT$$u20$as$u20$rayon..iter..IndexedParallelIterator$GT$3len17ha4c1316f5aa8d0ecE
	.p2align	4, 0x90
__ZN95_$LT$rayon..range_inclusive..Iter$LT$u8$GT$$u20$as$u20$rayon..iter..IndexedParallelIterator$GT$3len17ha4c1316f5aa8d0ecE:
Lfunc_begin53:
	.file	34 "/Users/yingyuhang/.cargo/registry/src/github.com-1ecc6299db9ec823/rayon-1.3.1/src/range_inclusive.rs"
	.loc	34 120 0
	.cfi_startproc
	pushq	%rbp
	.cfi_def_cfa_offset 16
	.cfi_offset %rbp, -16
	movq	%rsp, %rbp
	.cfi_def_cfa_register %rbp
Ltmp463:
	.loc	34 121 17 prologue_end
	movb	1(%rdi), %cl
Ltmp464:
	.file	35 "/rustc/6c8927b0cf80ceee19386026cf9d7fd4fd9d486f/src/libcore/ops/range.rs"
	.loc	35 514 9
	movb	(%rdi), %dl
	movl	%ecx, %eax
	subb	%dl, %al
Ltmp465:
	.loc	32 670 9
	movzbl	%al, %eax
	incq	%rax
	xorl	%esi, %esi
Ltmp466:
	.loc	35 514 9
	cmpb	$0, 2(%rdi)
Ltmp467:
	.loc	32 670 9
	cmovneq	%rsi, %rax
Ltmp468:
	.loc	35 514 9
	cmpb	%dl, %cl
Ltmp469:
	.loc	32 670 9
	cmovbq	%rsi, %rax
Ltmp470:
	.loc	34 122 14
	popq	%rbp
	retq
Ltmp471:
Lfunc_end53:
	.cfi_endproc

	.globl	__ZN88_$LT$rayon..range_inclusive..Iter$LT$u8$GT$$u20$as$u20$rayon..iter..ParallelIterator$GT$7opt_len17h204a73bbe46bfed0E
	.p2align	4, 0x90
__ZN88_$LT$rayon..range_inclusive..Iter$LT$u8$GT$$u20$as$u20$rayon..iter..ParallelIterator$GT$7opt_len17h204a73bbe46bfed0E:
Lfunc_begin54:
	.loc	34 101 0
	.cfi_startproc
	pushq	%rbp
	.cfi_def_cfa_offset 16
	.cfi_offset %rbp, -16
	movq	%rsp, %rbp
	.cfi_def_cfa_register %rbp
Ltmp472:
	.loc	34 59 15 prologue_end
	movzbl	(%rdi), %eax
Ltmp473:
	.loc	35 332 15
	movzbl	1(%rdi), %ecx
Ltmp474:
	.file	36 "/rustc/6c8927b0cf80ceee19386026cf9d7fd4fd9d486f/src/libcore/clone.rs"
	.loc	36 185 25
	cmpb	$0, 2(%rdi)
	sete	%sil
Ltmp475:
	.loc	35 514 9
	cmpb	%cl, %al
	setbe	%dil
Ltmp476:
	.loc	34 59 40
	shll	$16, %ecx
	shll	$8, %eax
	.loc	34 60 6
	orl	%ecx, %eax
	xorl	%edx, %edx
	testb	%sil, %dil
	cmovel	%edx, %eax
	testb	%sil, %dil
Ltmp477:
	.loc	34 102 17
	je	LBB54_4
Ltmp478:
	movl	%eax, %ecx
	shrl	$8, %ecx
	shrl	$16, %eax
Ltmp479:
	.loc	16 3751 30
	movl	%eax, %edx
	incb	%dl
Ltmp480:
	.loc	34 102 17
	jne	LBB54_3
Ltmp481:
	.loc	32 516 9
	subb	%cl, %al
Ltmp482:
	movzbl	%al, %edx
Ltmp483:
	.loc	16 3751 30
	incq	%rdx
Ltmp484:
LBB54_4:
	.loc	34 103 14
	movl	$1, %eax
	popq	%rbp
	retq
LBB54_3:
Ltmp485:
	.loc	34 0 14 is_stmt 0
	xorl	%eax, %eax
Ltmp486:
	.loc	32 516 9 is_stmt 1
	subb	%cl, %dl
Ltmp487:
	movzbl	%dl, %ecx
Ltmp488:
	cmovbl	%eax, %ecx
	movzbl	%cl, %edx
Ltmp489:
	.loc	34 103 14
	movl	$1, %eax
	popq	%rbp
	retq
Ltmp490:
Lfunc_end54:
	.cfi_endproc
	.file	37 "/Users/yingyuhang/.cargo/registry/src/github.com-1ecc6299db9ec823/rayon-1.3.1/src/iter/chain.rs"

	.globl	__ZN96_$LT$rayon..range_inclusive..Iter$LT$u16$GT$$u20$as$u20$rayon..iter..IndexedParallelIterator$GT$3len17h0cee22e4a3a7b618E
	.p2align	4, 0x90
__ZN96_$LT$rayon..range_inclusive..Iter$LT$u16$GT$$u20$as$u20$rayon..iter..IndexedParallelIterator$GT$3len17h0cee22e4a3a7b618E:
Lfunc_begin55:
	.loc	34 120 0
	.cfi_startproc
	pushq	%rbp
	.cfi_def_cfa_offset 16
	.cfi_offset %rbp, -16
	movq	%rsp, %rbp
	.cfi_def_cfa_register %rbp
Ltmp491:
	.loc	34 121 17 prologue_end
	movzwl	2(%rdi), %ecx
Ltmp492:
	.loc	35 514 9
	movzwl	(%rdi), %edx
	movl	%ecx, %eax
	subw	%dx, %ax
Ltmp493:
	.loc	32 670 9
	movzwl	%ax, %eax
	incq	%rax
	xorl	%esi, %esi
Ltmp494:
	.loc	35 514 9
	cmpb	$0, 4(%rdi)
Ltmp495:
	.loc	32 670 9
	cmovneq	%rsi, %rax
Ltmp496:
	.loc	35 514 9
	cmpw	%dx, %cx
Ltmp497:
	.loc	32 670 9
	cmovbq	%rsi, %rax
Ltmp498:
	.loc	34 122 14
	popq	%rbp
	retq
Ltmp499:
Lfunc_end55:
	.cfi_endproc

	.globl	__ZN89_$LT$rayon..range_inclusive..Iter$LT$u16$GT$$u20$as$u20$rayon..iter..ParallelIterator$GT$7opt_len17h1e28687f24cce942E
	.p2align	4, 0x90
__ZN89_$LT$rayon..range_inclusive..Iter$LT$u16$GT$$u20$as$u20$rayon..iter..ParallelIterator$GT$7opt_len17h1e28687f24cce942E:
Lfunc_begin56:
	.loc	34 101 0
	.cfi_startproc
	pushq	%rbp
	.cfi_def_cfa_offset 16
	.cfi_offset %rbp, -16
	movq	%rsp, %rbp
	.cfi_def_cfa_register %rbp
Ltmp500:
	.loc	34 59 15 prologue_end
	movzwl	(%rdi), %eax
Ltmp501:
	.loc	35 332 15
	movzwl	2(%rdi), %ecx
Ltmp502:
	.loc	36 185 25
	cmpb	$0, 4(%rdi)
	sete	%sil
Ltmp503:
	.loc	35 514 9
	cmpw	%cx, %ax
	setbe	%dil
Ltmp504:
	.loc	34 59 40
	shlq	$32, %rcx
	shlq	$16, %rax
	.loc	34 60 6
	orq	%rcx, %rax
	xorl	%edx, %edx
	testb	%sil, %dil
	cmoveq	%rdx, %rax
	testb	%sil, %dil
Ltmp505:
	.loc	34 102 17
	je	LBB56_4
Ltmp506:
	movq	%rax, %rcx
	shrq	$16, %rcx
	shrq	$32, %rax
Ltmp507:
	.loc	16 3751 30
	movl	%eax, %edx
	incw	%dx
Ltmp508:
	.loc	34 102 17
	jne	LBB56_3
Ltmp509:
	.loc	32 516 9
	subl	%ecx, %eax
Ltmp510:
	movzwl	%ax, %edx
Ltmp511:
	.loc	16 3751 30
	incq	%rdx
Ltmp512:
LBB56_4:
	.loc	34 103 14
	movl	$1, %eax
	popq	%rbp
	retq
LBB56_3:
Ltmp513:
	.loc	34 0 14 is_stmt 0
	xorl	%eax, %eax
Ltmp514:
	.loc	32 516 9 is_stmt 1
	subw	%cx, %dx
Ltmp515:
	cmovbl	%eax, %edx
	movzwl	%dx, %edx
Ltmp516:
	.loc	34 103 14
	movl	$1, %eax
	popq	%rbp
	retq
Ltmp517:
Lfunc_end56:
	.cfi_endproc

	.globl	__ZN95_$LT$rayon..range_inclusive..Iter$LT$i8$GT$$u20$as$u20$rayon..iter..IndexedParallelIterator$GT$3len17ha05909245c2022c0E
	.p2align	4, 0x90
__ZN95_$LT$rayon..range_inclusive..Iter$LT$i8$GT$$u20$as$u20$rayon..iter..IndexedParallelIterator$GT$3len17ha05909245c2022c0E:
Lfunc_begin57:
	.loc	34 120 0
	.cfi_startproc
	pushq	%rbp
	.cfi_def_cfa_offset 16
	.cfi_offset %rbp, -16
	movq	%rsp, %rbp
	.cfi_def_cfa_register %rbp
	subq	$128, %rsp
Ltmp518:
	.loc	34 121 17 prologue_end
	movsbq	(%rdi), %rsi
	movsbq	1(%rdi), %rdx
	xorl	%eax, %eax
	movl	$1, %ecx
Ltmp519:
	.loc	35 514 9
	cmpb	%dl, %sil
Ltmp520:
	.loc	32 670 9
	jg	LBB57_1
Ltmp521:
	cmpb	$0, 2(%rdi)
	.loc	32 0 0 is_stmt 0
	movl	$0, %edi
Ltmp522:
	.loc	32 670 9
	jne	LBB57_4
Ltmp523:
	.loc	32 273 21 is_stmt 1
	subq	%rsi, %rdx
Ltmp524:
	.loc	16 2993 30
	xorl	%ecx, %ecx
Ltmp525:
	.loc	16 3340 17
	incq	%rdx
Ltmp526:
	.loc	16 0 17 is_stmt 0
	movq	$-1, %rax
Ltmp527:
	.loc	16 3340 17
	cmovneq	%rdx, %rax
Ltmp528:
	.loc	16 2993 30 is_stmt 1
	setne	%cl
Ltmp529:
	.loc	32 0 0 is_stmt 0
	movq	%rdx, %rdi
Ltmp530:
	jmp	LBB57_4
Ltmp531:
LBB57_1:
	xorl	%edi, %edi
Ltmp532:
LBB57_4:
	.loc	33 100 21 is_stmt 1
	movq	%rcx, -32(%rbp)
	movq	%rdi, -24(%rbp)
Ltmp533:
	.loc	33 105 27
	movq	%rax, -40(%rbp)
	movq	$1, -48(%rbp)
Ltmp534:
	.loc	4 146 16
	testq	%rcx, %rcx
	je	LBB57_7
Ltmp535:
	cmpq	%rax, %rdi
	jne	LBB57_7
Ltmp536:
	.loc	34 122 14
	addq	$128, %rsp
	popq	%rbp
	retq
LBB57_7:
Ltmp537:
	.loc	34 0 14 is_stmt 0
	leaq	-32(%rbp), %rax
Ltmp538:
	.loc	21 55 19 is_stmt 1
	movq	%rax, -8(%rbp)
	leaq	-48(%rbp), %rax
	.loc	21 55 31 is_stmt 0
	movq	%rax, -16(%rbp)
	leaq	-8(%rbp), %rax
Ltmp539:
	.loc	21 19 38 is_stmt 1
	movq	%rax, -80(%rbp)
	leaq	__ZN42_$LT$$RF$T$u20$as$u20$core..fmt..Debug$GT$3fmt17h9a0fba1e41472bdbE(%rip), %rax
	movq	%rax, -72(%rbp)
	leaq	-16(%rbp), %rcx
	movq	%rcx, -64(%rbp)
	movq	%rax, -56(%rbp)
Ltmp540:
	.loc	3 328 9
	leaq	l___unnamed_19(%rip), %rax
Ltmp541:
	movq	%rax, -128(%rbp)
	movq	$3, -120(%rbp)
	movq	$0, -112(%rbp)
	leaq	-80(%rbp), %rax
Ltmp542:
	movq	%rax, -96(%rbp)
	movq	$2, -88(%rbp)
Ltmp543:
	.loc	21 19 9
	leaq	l___unnamed_20(%rip), %rsi
	leaq	-128(%rbp), %rdi
	callq	__ZN4core9panicking9panic_fmt17hfce5b7173905fc53E
Ltmp544:
Lfunc_end57:
	.cfi_endproc

	.globl	__ZN88_$LT$rayon..range_inclusive..Iter$LT$i8$GT$$u20$as$u20$rayon..iter..ParallelIterator$GT$7opt_len17hf532219b420e8e06E
	.p2align	4, 0x90
__ZN88_$LT$rayon..range_inclusive..Iter$LT$i8$GT$$u20$as$u20$rayon..iter..ParallelIterator$GT$7opt_len17hf532219b420e8e06E:
Lfunc_begin58:
	.loc	34 101 0
	.cfi_startproc
	pushq	%rbp
	.cfi_def_cfa_offset 16
	.cfi_offset %rbp, -16
	movq	%rsp, %rbp
	.cfi_def_cfa_register %rbp
Ltmp545:
	.loc	34 59 15 prologue_end
	movzbl	(%rdi), %eax
Ltmp546:
	.loc	36 185 25
	cmpb	$0, 2(%rdi)
Ltmp547:
	.loc	35 332 15
	movzbl	1(%rdi), %ecx
Ltmp548:
	.loc	36 185 25
	sete	%sil
Ltmp549:
	.loc	35 514 9
	cmpb	%cl, %al
	setle	%dil
Ltmp550:
	.loc	34 59 40
	shll	$16, %ecx
	shll	$8, %eax
	.loc	34 60 6
	orl	%ecx, %eax
	xorl	%edx, %edx
	testb	%sil, %dil
	cmovel	%edx, %eax
	testb	%sil, %dil
Ltmp551:
	.loc	34 102 17
	je	LBB58_4
Ltmp552:
	movl	%eax, %ecx
	shrl	$8, %ecx
	shrl	$16, %eax
Ltmp553:
	.loc	16 1668 30
	movl	%eax, %edx
	incb	%dl
Ltmp554:
	.loc	34 102 17
	jno	LBB58_3
Ltmp555:
	.loc	34 0 0 is_stmt 0
	movzbl	%al, %edx
Ltmp556:
	.loc	32 516 9 is_stmt 1
	movl	%edx, %esi
	movsbq	%cl, %rdx
	subq	%rdx, %rsi
Ltmp557:
	.loc	16 3751 30
	incq	%rsi
Ltmp558:
	.loc	17 1136 52
	cmpb	%al, %cl
	movl	$1, %edx
Ltmp559:
	.loc	16 3751 30
	cmovlq	%rsi, %rdx
Ltmp560:
LBB58_4:
	.loc	34 103 14
	movl	$1, %eax
	popq	%rbp
	retq
LBB58_3:
Ltmp561:
	.loc	32 516 9
	movsbq	%dl, %rax
Ltmp562:
	movsbq	%cl, %rcx
Ltmp563:
	movq	%rax, %rsi
	subq	%rcx, %rsi
	xorl	%edx, %edx
Ltmp564:
	.loc	17 1136 52
	cmpb	%cl, %al
Ltmp565:
	.loc	32 516 9
	cmovgq	%rsi, %rdx
Ltmp566:
	.loc	34 103 14
	movl	$1, %eax
	popq	%rbp
	retq
Ltmp567:
Lfunc_end58:
	.cfi_endproc

	.globl	__ZN96_$LT$rayon..range_inclusive..Iter$LT$i16$GT$$u20$as$u20$rayon..iter..IndexedParallelIterator$GT$3len17h1ff5c7a0c3e146b4E
	.p2align	4, 0x90
__ZN96_$LT$rayon..range_inclusive..Iter$LT$i16$GT$$u20$as$u20$rayon..iter..IndexedParallelIterator$GT$3len17h1ff5c7a0c3e146b4E:
Lfunc_begin59:
	.loc	34 120 0
	.cfi_startproc
	pushq	%rbp
	.cfi_def_cfa_offset 16
	.cfi_offset %rbp, -16
	movq	%rsp, %rbp
	.cfi_def_cfa_register %rbp
	subq	$128, %rsp
Ltmp568:
	.loc	34 121 17 prologue_end
	movswq	(%rdi), %rsi
	movswq	2(%rdi), %rdx
	xorl	%eax, %eax
	movl	$1, %ecx
Ltmp569:
	.loc	35 514 9
	cmpw	%dx, %si
Ltmp570:
	.loc	32 670 9
	jg	LBB59_1
Ltmp571:
	cmpb	$0, 4(%rdi)
	.loc	32 0 0 is_stmt 0
	movl	$0, %edi
Ltmp572:
	.loc	32 670 9
	jne	LBB59_4
Ltmp573:
	.loc	32 273 21 is_stmt 1
	subq	%rsi, %rdx
Ltmp574:
	.loc	16 2993 30
	xorl	%ecx, %ecx
Ltmp575:
	.loc	16 3340 17
	incq	%rdx
Ltmp576:
	.loc	16 0 17 is_stmt 0
	movq	$-1, %rax
Ltmp577:
	.loc	16 3340 17
	cmovneq	%rdx, %rax
Ltmp578:
	.loc	16 2993 30 is_stmt 1
	setne	%cl
Ltmp579:
	.loc	32 0 0 is_stmt 0
	movq	%rdx, %rdi
Ltmp580:
	jmp	LBB59_4
Ltmp581:
LBB59_1:
	xorl	%edi, %edi
Ltmp582:
LBB59_4:
	.loc	33 100 21 is_stmt 1
	movq	%rcx, -32(%rbp)
	movq	%rdi, -24(%rbp)
Ltmp583:
	.loc	33 105 27
	movq	%rax, -40(%rbp)
	movq	$1, -48(%rbp)
Ltmp584:
	.loc	4 146 16
	testq	%rcx, %rcx
	je	LBB59_7
Ltmp585:
	cmpq	%rax, %rdi
	jne	LBB59_7
Ltmp586:
	.loc	34 122 14
	addq	$128, %rsp
	popq	%rbp
	retq
LBB59_7:
Ltmp587:
	.loc	34 0 14 is_stmt 0
	leaq	-32(%rbp), %rax
Ltmp588:
	.loc	21 55 19 is_stmt 1
	movq	%rax, -8(%rbp)
	leaq	-48(%rbp), %rax
	.loc	21 55 31 is_stmt 0
	movq	%rax, -16(%rbp)
	leaq	-8(%rbp), %rax
Ltmp589:
	.loc	21 19 38 is_stmt 1
	movq	%rax, -80(%rbp)
	leaq	__ZN42_$LT$$RF$T$u20$as$u20$core..fmt..Debug$GT$3fmt17h9a0fba1e41472bdbE(%rip), %rax
	movq	%rax, -72(%rbp)
	leaq	-16(%rbp), %rcx
	movq	%rcx, -64(%rbp)
	movq	%rax, -56(%rbp)
Ltmp590:
	.loc	3 328 9
	leaq	l___unnamed_19(%rip), %rax
Ltmp591:
	movq	%rax, -128(%rbp)
	movq	$3, -120(%rbp)
	movq	$0, -112(%rbp)
	leaq	-80(%rbp), %rax
Ltmp592:
	movq	%rax, -96(%rbp)
	movq	$2, -88(%rbp)
Ltmp593:
	.loc	21 19 9
	leaq	l___unnamed_20(%rip), %rsi
	leaq	-128(%rbp), %rdi
	callq	__ZN4core9panicking9panic_fmt17hfce5b7173905fc53E
Ltmp594:
Lfunc_end59:
	.cfi_endproc

	.globl	__ZN89_$LT$rayon..range_inclusive..Iter$LT$i16$GT$$u20$as$u20$rayon..iter..ParallelIterator$GT$7opt_len17h7723b73e150385daE
	.p2align	4, 0x90
__ZN89_$LT$rayon..range_inclusive..Iter$LT$i16$GT$$u20$as$u20$rayon..iter..ParallelIterator$GT$7opt_len17h7723b73e150385daE:
Lfunc_begin60:
	.loc	34 101 0
	.cfi_startproc
	pushq	%rbp
	.cfi_def_cfa_offset 16
	.cfi_offset %rbp, -16
	movq	%rsp, %rbp
	.cfi_def_cfa_register %rbp
Ltmp595:
	.loc	34 59 15 prologue_end
	movzwl	(%rdi), %eax
Ltmp596:
	.loc	36 185 25
	cmpb	$0, 4(%rdi)
Ltmp597:
	.loc	35 332 15
	movzwl	2(%rdi), %ecx
Ltmp598:
	.loc	36 185 25
	sete	%sil
Ltmp599:
	.loc	35 514 9
	cmpw	%cx, %ax
	setle	%dil
Ltmp600:
	.loc	34 59 40
	shlq	$32, %rcx
	shlq	$16, %rax
	.loc	34 60 6
	orq	%rcx, %rax
	xorl	%edx, %edx
	testb	%sil, %dil
	cmoveq	%rdx, %rax
	testb	%sil, %dil
Ltmp601:
	.loc	34 102 17
	je	LBB60_4
Ltmp602:
	movq	%rax, %rcx
	shrq	$16, %rcx
	shrq	$32, %rax
Ltmp603:
	.loc	16 1668 30
	movl	%eax, %edx
	incw	%dx
Ltmp604:
	.loc	34 102 17
	jno	LBB60_3
Ltmp605:
	.loc	34 0 0 is_stmt 0
	movzwl	%ax, %esi
Ltmp606:
	.loc	32 516 9 is_stmt 1
	movswq	%cx, %rdx
	subq	%rdx, %rsi
Ltmp607:
	.loc	16 3751 30
	incq	%rsi
Ltmp608:
	.loc	17 1136 52
	cmpw	%ax, %cx
	movl	$1, %edx
Ltmp609:
	.loc	16 3751 30
	cmovlq	%rsi, %rdx
Ltmp610:
LBB60_4:
	.loc	34 103 14
	movl	$1, %eax
	popq	%rbp
	retq
LBB60_3:
Ltmp611:
	.loc	32 516 9
	movswq	%dx, %rax
Ltmp612:
	movswq	%cx, %rcx
Ltmp613:
	movq	%rax, %rsi
	subq	%rcx, %rsi
	xorl	%edx, %edx
Ltmp614:
	.loc	17 1136 52
	cmpw	%cx, %ax
Ltmp615:
	.loc	32 516 9
	cmovgq	%rsi, %rdx
Ltmp616:
	.loc	34 103 14
	movl	$1, %eax
	popq	%rbp
	retq
Ltmp617:
Lfunc_end60:
	.cfi_endproc

	.globl	__ZN91_$LT$rayon..range_inclusive..Iter$LT$usize$GT$$u20$as$u20$rayon..iter..ParallelIterator$GT$7opt_len17h64e3dd9a396f6db7E
	.p2align	4, 0x90
__ZN91_$LT$rayon..range_inclusive..Iter$LT$usize$GT$$u20$as$u20$rayon..iter..ParallelIterator$GT$7opt_len17h64e3dd9a396f6db7E:
Lfunc_begin61:
	.loc	34 101 0
	.cfi_startproc
	pushq	%rbp
	.cfi_def_cfa_offset 16
	.cfi_offset %rbp, -16
	movq	%rsp, %rbp
	.cfi_def_cfa_register %rbp
Ltmp618:
	.loc	34 59 15 prologue_end
	movq	(%rdi), %r8
	movq	8(%rdi), %rcx
	xorl	%edx, %edx
Ltmp619:
	.loc	35 514 9
	movq	%rcx, %rsi
	movl	$1, %eax
	subq	%r8, %rsi
Ltmp620:
	.loc	34 59 40
	jb	LBB61_5
Ltmp621:
	cmpb	$0, 16(%rdi)
	jne	LBB61_5
Ltmp622:
	.loc	16 3751 30
	incq	%rcx
Ltmp623:
	.loc	34 102 17
	jne	LBB61_4
Ltmp624:
	.loc	16 2993 30
	xorl	%eax, %eax
Ltmp625:
	.loc	16 3751 30
	incq	%rsi
Ltmp626:
	.loc	16 2993 30
	setne	%al
Ltmp627:
	.loc	34 0 0 is_stmt 0
	movq	%rsi, %rdx
Ltmp628:
	.loc	34 103 14 is_stmt 1
	popq	%rbp
	retq
Ltmp629:
LBB61_4:
	.loc	34 0 14 is_stmt 0
	xorl	%edx, %edx
Ltmp630:
	.loc	32 516 9 is_stmt 1
	subq	%r8, %rcx
Ltmp631:
	cmovaeq	%rcx, %rdx
Ltmp632:
LBB61_5:
	.loc	34 103 14
	popq	%rbp
	retq
Ltmp633:
Lfunc_end61:
	.cfi_endproc

	.globl	__ZN91_$LT$rayon..range_inclusive..Iter$LT$isize$GT$$u20$as$u20$rayon..iter..ParallelIterator$GT$7opt_len17h7851b535f94ae4ffE
	.p2align	4, 0x90
__ZN91_$LT$rayon..range_inclusive..Iter$LT$isize$GT$$u20$as$u20$rayon..iter..ParallelIterator$GT$7opt_len17h7851b535f94ae4ffE:
Lfunc_begin62:
	.loc	34 101 0
	.cfi_startproc
	pushq	%rbp
	.cfi_def_cfa_offset 16
	.cfi_offset %rbp, -16
	movq	%rsp, %rbp
	.cfi_def_cfa_register %rbp
Ltmp634:
	.loc	34 59 15 prologue_end
	movq	(%rdi), %rcx
	movq	8(%rdi), %rsi
	xorl	%edx, %edx
Ltmp635:
	.loc	34 0 15 is_stmt 0
	movl	$1, %eax
Ltmp636:
	.loc	35 514 9 is_stmt 1
	cmpq	%rcx, %rsi
Ltmp637:
	.loc	34 59 40
	jl	LBB62_5
Ltmp638:
	cmpb	$0, 16(%rdi)
	jne	LBB62_5
Ltmp639:
	.loc	16 1668 30
	movq	%rsi, %rdi
Ltmp640:
	.loc	16 0 30 is_stmt 0
	xorl	%edx, %edx
Ltmp641:
	.loc	16 1668 30
	incq	%rdi
Ltmp642:
	.loc	34 102 17 is_stmt 1
	jno	LBB62_4
Ltmp643:
	.loc	17 1136 52
	subq	%rcx, %rsi
Ltmp644:
	.loc	32 516 9
	cmovgq	%rsi, %rdx
Ltmp645:
	.loc	16 2993 30
	xorl	%eax, %eax
Ltmp646:
	.loc	16 3751 30
	incq	%rdx
Ltmp647:
	.loc	16 2993 30
	setne	%al
Ltmp648:
	.loc	34 103 14
	popq	%rbp
	retq
Ltmp649:
LBB62_4:
	.loc	17 1136 52
	subq	%rcx, %rdi
Ltmp650:
	.loc	32 516 9
	cmovgq	%rdi, %rdx
Ltmp651:
LBB62_5:
	.loc	34 103 14
	popq	%rbp
	retq
Ltmp652:
Lfunc_end62:
	.cfi_endproc

	.globl	__ZN89_$LT$rayon..range_inclusive..Iter$LT$u32$GT$$u20$as$u20$rayon..iter..ParallelIterator$GT$7opt_len17hd33f59c8db3eb508E
	.p2align	4, 0x90
__ZN89_$LT$rayon..range_inclusive..Iter$LT$u32$GT$$u20$as$u20$rayon..iter..ParallelIterator$GT$7opt_len17hd33f59c8db3eb508E:
Lfunc_begin63:
	.loc	34 101 0
	.cfi_startproc
	pushq	%rbp
	.cfi_def_cfa_offset 16
	.cfi_offset %rbp, -16
	movq	%rsp, %rbp
	.cfi_def_cfa_register %rbp
Ltmp653:
	.loc	34 59 15 prologue_end
	movl	(%rdi), %eax
	movl	4(%rdi), %ecx
	xorl	%edx, %edx
Ltmp654:
	.loc	35 514 9
	cmpl	%eax, %ecx
Ltmp655:
	.loc	34 59 40
	jb	LBB63_5
Ltmp656:
	cmpb	$0, 8(%rdi)
	jne	LBB63_5
Ltmp657:
	.loc	16 3751 30
	movl	%ecx, %edx
	incl	%edx
Ltmp658:
	.loc	34 102 17
	jne	LBB63_4
Ltmp659:
	.loc	32 516 9
	subq	%rax, %rcx
Ltmp660:
	.loc	16 3751 30
	incq	%rcx
Ltmp661:
	.loc	34 0 0 is_stmt 0
	movq	%rcx, %rdx
Ltmp662:
LBB63_5:
	.loc	34 103 14 is_stmt 1
	movl	$1, %eax
	popq	%rbp
	retq
Ltmp663:
LBB63_4:
	.loc	34 0 14 is_stmt 0
	xorl	%ecx, %ecx
Ltmp664:
	.loc	32 516 9 is_stmt 1
	subl	%eax, %edx
Ltmp665:
	cmovbl	%ecx, %edx
Ltmp666:
	.loc	34 103 14
	movl	$1, %eax
	popq	%rbp
	retq
Ltmp667:
Lfunc_end63:
	.cfi_endproc

	.globl	__ZN89_$LT$rayon..range_inclusive..Iter$LT$i32$GT$$u20$as$u20$rayon..iter..ParallelIterator$GT$7opt_len17h57aaf85dfde64856E
	.p2align	4, 0x90
__ZN89_$LT$rayon..range_inclusive..Iter$LT$i32$GT$$u20$as$u20$rayon..iter..ParallelIterator$GT$7opt_len17h57aaf85dfde64856E:
Lfunc_begin64:
	.loc	34 101 0
	.cfi_startproc
	pushq	%rbp
	.cfi_def_cfa_offset 16
	.cfi_offset %rbp, -16
	movq	%rsp, %rbp
	.cfi_def_cfa_register %rbp
Ltmp668:
	.loc	34 59 15 prologue_end
	movslq	(%rdi), %rax
	movl	4(%rdi), %ecx
	xorl	%edx, %edx
Ltmp669:
	.loc	35 514 9
	cmpl	%ecx, %eax
Ltmp670:
	.loc	34 59 40
	jg	LBB64_6
Ltmp671:
	cmpb	$0, 8(%rdi)
	jne	LBB64_6
Ltmp672:
	.loc	16 1668 30
	movl	%ecx, %edx
	incl	%edx
Ltmp673:
	.loc	34 102 17
	jno	LBB64_4
Ltmp674:
	.loc	32 516 9
	movq	%rcx, %rsi
	subq	%rax, %rsi
Ltmp675:
	.loc	16 3751 30
	incq	%rsi
Ltmp676:
	.loc	17 1136 52
	cmpl	%ecx, %eax
	movl	$1, %edx
	jmp	LBB64_5
Ltmp677:
LBB64_4:
	.loc	32 516 9
	movslq	%edx, %rcx
	movq	%rcx, %rsi
	subq	%rax, %rsi
	xorl	%edx, %edx
Ltmp678:
	.loc	17 1136 52
	cmpl	%ecx, %eax
Ltmp679:
LBB64_5:
	.loc	34 0 0 is_stmt 0
	cmovlq	%rsi, %rdx
Ltmp680:
LBB64_6:
	.loc	34 103 14 is_stmt 1
	movl	$1, %eax
	popq	%rbp
	retq
Ltmp681:
Lfunc_end64:
	.cfi_endproc

	.globl	__ZN89_$LT$rayon..range_inclusive..Iter$LT$u64$GT$$u20$as$u20$rayon..iter..ParallelIterator$GT$7opt_len17hceea4ba872aba8ffE
	.p2align	4, 0x90
__ZN89_$LT$rayon..range_inclusive..Iter$LT$u64$GT$$u20$as$u20$rayon..iter..ParallelIterator$GT$7opt_len17hceea4ba872aba8ffE:
Lfunc_begin65:
	.loc	34 101 0
	.cfi_startproc
	pushq	%rbp
	.cfi_def_cfa_offset 16
	.cfi_offset %rbp, -16
	movq	%rsp, %rbp
	.cfi_def_cfa_register %rbp
Ltmp682:
	.loc	34 59 15 prologue_end
	movq	(%rdi), %r8
	movq	8(%rdi), %rcx
	xorl	%edx, %edx
Ltmp683:
	.loc	35 514 9
	movq	%rcx, %rsi
	movl	$1, %eax
	subq	%r8, %rsi
Ltmp684:
	.loc	34 59 40
	jb	LBB65_5
Ltmp685:
	cmpb	$0, 16(%rdi)
	jne	LBB65_5
Ltmp686:
	.loc	16 3751 30
	incq	%rcx
Ltmp687:
	.loc	34 102 17
	jne	LBB65_4
Ltmp688:
	.loc	16 2993 30
	xorl	%eax, %eax
Ltmp689:
	.loc	16 3751 30
	incq	%rsi
Ltmp690:
	.loc	16 2993 30
	setne	%al
Ltmp691:
	.loc	34 0 0 is_stmt 0
	movq	%rsi, %rdx
Ltmp692:
	.loc	34 103 14 is_stmt 1
	popq	%rbp
	retq
Ltmp693:
LBB65_4:
	.loc	34 0 14 is_stmt 0
	xorl	%edx, %edx
Ltmp694:
	.loc	31 144 17 is_stmt 1
	subq	%r8, %rcx
Ltmp695:
	cmovaeq	%rcx, %rdx
Ltmp696:
LBB65_5:
	.loc	34 103 14
	popq	%rbp
	retq
Ltmp697:
Lfunc_end65:
	.cfi_endproc

	.globl	__ZN89_$LT$rayon..range_inclusive..Iter$LT$i64$GT$$u20$as$u20$rayon..iter..ParallelIterator$GT$7opt_len17hd468dbea9f7e30d5E
	.p2align	4, 0x90
__ZN89_$LT$rayon..range_inclusive..Iter$LT$i64$GT$$u20$as$u20$rayon..iter..ParallelIterator$GT$7opt_len17hd468dbea9f7e30d5E:
Lfunc_begin66:
	.loc	34 101 0
	.cfi_startproc
	pushq	%rbp
	.cfi_def_cfa_offset 16
	.cfi_offset %rbp, -16
	movq	%rsp, %rbp
	.cfi_def_cfa_register %rbp
Ltmp698:
	.loc	34 59 15 prologue_end
	movq	(%rdi), %rcx
	movq	8(%rdi), %rsi
	xorl	%edx, %edx
Ltmp699:
	.loc	34 0 15 is_stmt 0
	movl	$1, %eax
Ltmp700:
	.loc	35 514 9 is_stmt 1
	cmpq	%rcx, %rsi
Ltmp701:
	.loc	34 59 40
	jl	LBB66_5
Ltmp702:
	cmpb	$0, 16(%rdi)
	jne	LBB66_5
Ltmp703:
	.loc	16 1668 30
	movq	%rsi, %rdi
Ltmp704:
	.loc	16 0 30 is_stmt 0
	xorl	%edx, %edx
Ltmp705:
	.loc	16 1668 30
	incq	%rdi
Ltmp706:
	.loc	34 102 17 is_stmt 1
	jno	LBB66_4
Ltmp707:
	.loc	31 144 20
	subq	%rcx, %rsi
Ltmp708:
	.loc	31 144 17 is_stmt 0
	cmovgq	%rsi, %rdx
Ltmp709:
	.loc	16 2993 30 is_stmt 1
	xorl	%eax, %eax
Ltmp710:
	.loc	16 3751 30
	incq	%rdx
Ltmp711:
	.loc	16 2993 30
	setne	%al
Ltmp712:
	.loc	34 103 14
	popq	%rbp
	retq
Ltmp713:
LBB66_4:
	.loc	31 144 20
	subq	%rcx, %rdi
	.loc	31 144 17 is_stmt 0
	cmovgq	%rdi, %rdx
Ltmp714:
LBB66_5:
	.loc	34 103 14 is_stmt 1
	popq	%rbp
	retq
Ltmp715:
Lfunc_end66:
	.cfi_endproc

	.globl	__ZN90_$LT$rayon..range_inclusive..Iter$LT$u128$GT$$u20$as$u20$rayon..iter..ParallelIterator$GT$7opt_len17hdeee859c314e5108E
	.p2align	4, 0x90
__ZN90_$LT$rayon..range_inclusive..Iter$LT$u128$GT$$u20$as$u20$rayon..iter..ParallelIterator$GT$7opt_len17hdeee859c314e5108E:
Lfunc_begin67:
	.loc	34 101 0
	.cfi_startproc
	pushq	%rbp
	.cfi_def_cfa_offset 16
	.cfi_offset %rbp, -16
	movq	%rsp, %rbp
	.cfi_def_cfa_register %rbp
Ltmp716:
	.loc	35 340 5 prologue_end
	movq	(%rdi), %r9
	movq	8(%rdi), %r8
	.loc	35 341 5
	movq	24(%rdi), %rsi
	movq	16(%rdi), %rcx
	xorl	%edx, %edx
Ltmp717:
	.loc	35 514 9
	cmpq	%r9, %rcx
	movq	%rsi, %rax
	sbbq	%r8, %rax
	movb	$1, %al
Ltmp718:
	.loc	34 59 40
	jb	LBB67_5
Ltmp719:
	cmpb	$0, 32(%rdi)
	jne	LBB67_5
Ltmp720:
	.loc	16 3751 30
	movq	%rcx, %rdx
	addq	$1, %rdx
	movq	%rsi, %rax
	adcq	$0, %rax
Ltmp721:
	.loc	34 102 17
	jae	LBB67_4
Ltmp722:
	.loc	31 144 17
	subq	%r9, %rcx
Ltmp723:
	sbbq	%r8, %rsi
Ltmp724:
	.loc	31 177 20
	sete	%dl
Ltmp725:
	.loc	37 63 25
	incq	%rcx
Ltmp726:
	setne	%al
	andb	%dl, %al
Ltmp727:
	.loc	34 0 0 is_stmt 0
	movq	%rcx, %rdx
Ltmp728:
LBB67_5:
	movzbl	%al, %eax
	.loc	34 103 14 is_stmt 1
	popq	%rbp
	retq
Ltmp729:
LBB67_4:
	.loc	34 0 14 is_stmt 0
	xorl	%ecx, %ecx
Ltmp730:
	.loc	31 144 17 is_stmt 1
	subq	%r9, %rdx
Ltmp731:
	sbbq	%r8, %rax
Ltmp732:
	cmovbq	%rcx, %rdx
	cmovbq	%rcx, %rax
Ltmp733:
	.loc	31 177 20
	testq	%rax, %rax
	sete	%al
Ltmp734:
	.loc	34 0 0 is_stmt 0
	movzbl	%al, %eax
	.loc	34 103 14 is_stmt 1
	popq	%rbp
	retq
Ltmp735:
Lfunc_end67:
	.cfi_endproc

	.globl	__ZN90_$LT$rayon..range_inclusive..Iter$LT$i128$GT$$u20$as$u20$rayon..iter..ParallelIterator$GT$7opt_len17h8b645f6fb5c6f1a0E
	.p2align	4, 0x90
__ZN90_$LT$rayon..range_inclusive..Iter$LT$i128$GT$$u20$as$u20$rayon..iter..ParallelIterator$GT$7opt_len17h8b645f6fb5c6f1a0E:
Lfunc_begin68:
	.loc	34 101 0
	.cfi_startproc
	pushq	%rbp
	.cfi_def_cfa_offset 16
	.cfi_offset %rbp, -16
	movq	%rsp, %rbp
	.cfi_def_cfa_register %rbp
Ltmp736:
	.loc	35 340 5 prologue_end
	movq	(%rdi), %r8
	movq	8(%rdi), %r9
	.loc	35 341 5
	movq	24(%rdi), %rsi
	movq	16(%rdi), %rcx
	xorl	%edx, %edx
Ltmp737:
	.loc	35 514 9
	cmpq	%r8, %rcx
	movq	%rsi, %rax
	sbbq	%r9, %rax
	movb	$1, %al
Ltmp738:
	.loc	34 59 40
	jl	LBB68_5
Ltmp739:
	cmpb	$0, 32(%rdi)
	jne	LBB68_5
Ltmp740:
	.loc	16 1668 30
	movq	%rcx, %r11
	addq	$1, %r11
	movq	%rsi, %rdi
Ltmp741:
	adcq	$0, %rdi
	setns	%r10b
	testq	%rsi, %rsi
	setns	%dl
	cmpb	%r10b, %dl
	setne	%al
	andb	%dl, %al
Ltmp742:
	.loc	34 102 17
	cmpb	$1, %al
Ltmp743:
	jne	LBB68_4
Ltmp744:
	.loc	16 1333 17
	movq	%rcx, %rdx
	subq	%r8, %rdx
	movq	%rsi, %rax
	sbbq	%r9, %rax
	xorl	%edi, %edi
Ltmp745:
	.loc	31 144 20
	cmpq	%rcx, %r8
	sbbq	%rsi, %r9
Ltmp746:
	.loc	31 144 17 is_stmt 0
	cmovgeq	%rdi, %rdx
	cmovgeq	%rdi, %rax
Ltmp747:
	.loc	31 177 20 is_stmt 1
	testq	%rax, %rax
	sete	%cl
Ltmp748:
	.loc	37 63 25
	incq	%rdx
Ltmp749:
	setne	%al
Ltmp750:
	andb	%cl, %al
Ltmp751:
LBB68_5:
	.loc	34 0 0 is_stmt 0
	movzbl	%al, %eax
	.loc	34 103 14 is_stmt 1
	popq	%rbp
	retq
LBB68_4:
Ltmp752:
	.loc	16 1333 17
	movq	%r11, %rdx
	subq	%r8, %rdx
	movq	%rdi, %rax
	sbbq	%r9, %rax
	xorl	%ecx, %ecx
Ltmp753:
	.loc	31 144 20
	cmpq	%r11, %r8
	sbbq	%rdi, %r9
Ltmp754:
	.loc	31 144 17 is_stmt 0
	cmovgeq	%rcx, %rdx
	cmovgeq	%rcx, %rax
Ltmp755:
	.loc	31 177 20 is_stmt 1
	testq	%rax, %rax
	sete	%al
Ltmp756:
	.loc	34 0 0 is_stmt 0
	movzbl	%al, %eax
	.loc	34 103 14 is_stmt 1
	popq	%rbp
	retq
Ltmp757:
Lfunc_end68:
	.cfi_endproc

	.globl	__ZN5rayon3str63_$LT$impl$u20$rayon..str..private..Pattern$u20$for$u20$char$GT$17__rayon_private__17h0d930b664f8f2bfeE
	.p2align	4, 0x90
__ZN5rayon3str63_$LT$impl$u20$rayon..str..private..Pattern$u20$for$u20$char$GT$17__rayon_private__17h0d930b664f8f2bfeE:
Lfunc_begin69:
	.file	38 "/Users/yingyuhang/.cargo/registry/src/github.com-1ecc6299db9ec823/rayon-1.3.1/src/private.rs"
	.loc	38 22 0
	.cfi_startproc
	pushq	%rbp
	.cfi_def_cfa_offset 16
	.cfi_offset %rbp, -16
	movq	%rsp, %rbp
	.cfi_def_cfa_register %rbp
Ltmp758:
	.loc	38 24 10 prologue_end
	popq	%rbp
	retq
Ltmp759:
Lfunc_end69:
	.cfi_endproc

	.globl	__ZN54_$LT$rayon..str..Chars$u20$as$u20$core..fmt..Debug$GT$3fmt17h8c080ecb7e0dae45E
	.p2align	4, 0x90
__ZN54_$LT$rayon..str..Chars$u20$as$u20$core..fmt..Debug$GT$3fmt17h8c080ecb7e0dae45E:
Lfunc_begin70:
	.loc	24 394 0
	.cfi_startproc
	pushq	%rbp
	.cfi_def_cfa_offset 16
	.cfi_offset %rbp, -16
	movq	%rsp, %rbp
	.cfi_def_cfa_register %rbp
	pushq	%r14
	pushq	%rbx
	subq	$32, %rsp
	.cfi_offset %rbx, -32
	.cfi_offset %r14, -24
	movq	%rdi, %rbx
Ltmp760:
	.loc	24 394 10 prologue_end
	leaq	l___unnamed_21(%rip), %rdx
	leaq	-40(%rbp), %r14
	movl	$5, %ecx
	movq	%r14, %rdi
	callq	__ZN4core3fmt9Formatter12debug_struct17ha1a64e91d2a98458E
Ltmp761:
	.loc	24 396 5
	movq	%rbx, -24(%rbp)
	.loc	24 394 10
	leaq	l___unnamed_22(%rip), %rsi
	leaq	l___unnamed_4(%rip), %r8
	leaq	-24(%rbp), %rcx
	movl	$5, %edx
	movq	%r14, %rdi
	callq	__ZN4core3fmt8builders11DebugStruct5field17h6c54d35ac41bb1e6E
	movq	%r14, %rdi
	callq	__ZN4core3fmt8builders11DebugStruct6finish17h67ed49fd5e81bb24E
Ltmp762:
	.loc	24 394 15 is_stmt 0
	addq	$32, %rsp
	popq	%rbx
Ltmp763:
	popq	%r14
	popq	%rbp
	retq
Ltmp764:
Lfunc_end70:
	.cfi_endproc

	.globl	__ZN60_$LT$rayon..str..CharIndices$u20$as$u20$core..fmt..Debug$GT$3fmt17h3e3fd819c72cbe17E
	.p2align	4, 0x90
__ZN60_$LT$rayon..str..CharIndices$u20$as$u20$core..fmt..Debug$GT$3fmt17h3e3fd819c72cbe17E:
Lfunc_begin71:
	.loc	24 438 0 is_stmt 1
	.cfi_startproc
	pushq	%rbp
	.cfi_def_cfa_offset 16
	.cfi_offset %rbp, -16
	movq	%rsp, %rbp
	.cfi_def_cfa_register %rbp
	pushq	%r14
	pushq	%rbx
	subq	$32, %rsp
	.cfi_offset %rbx, -32
	.cfi_offset %r14, -24
	movq	%rdi, %rbx
Ltmp765:
	.loc	24 438 10 prologue_end
	leaq	l___unnamed_23(%rip), %rdx
	leaq	-40(%rbp), %r14
	movl	$11, %ecx
	movq	%r14, %rdi
	callq	__ZN4core3fmt9Formatter12debug_struct17ha1a64e91d2a98458E
Ltmp766:
	.loc	24 440 5
	movq	%rbx, -24(%rbp)
	.loc	24 438 10
	leaq	l___unnamed_22(%rip), %rsi
	leaq	l___unnamed_4(%rip), %r8
	leaq	-24(%rbp), %rcx
	movl	$5, %edx
	movq	%r14, %rdi
	callq	__ZN4core3fmt8builders11DebugStruct5field17h6c54d35ac41bb1e6E
	movq	%r14, %rdi
	callq	__ZN4core3fmt8builders11DebugStruct6finish17h67ed49fd5e81bb24E
Ltmp767:
	.loc	24 438 15 is_stmt 0
	addq	$32, %rsp
	popq	%rbx
Ltmp768:
	popq	%r14
	popq	%rbp
	retq
Ltmp769:
Lfunc_end71:
	.cfi_endproc

	.globl	__ZN54_$LT$rayon..str..Bytes$u20$as$u20$core..fmt..Debug$GT$3fmt17h038c22d49c538b50E
	.p2align	4, 0x90
__ZN54_$LT$rayon..str..Bytes$u20$as$u20$core..fmt..Debug$GT$3fmt17h038c22d49c538b50E:
Lfunc_begin72:
	.loc	24 494 0 is_stmt 1
	.cfi_startproc
	pushq	%rbp
	.cfi_def_cfa_offset 16
	.cfi_offset %rbp, -16
	movq	%rsp, %rbp
	.cfi_def_cfa_register %rbp
	pushq	%r14
	pushq	%rbx
	subq	$32, %rsp
	.cfi_offset %rbx, -32
	.cfi_offset %r14, -24
	movq	%rdi, %rbx
Ltmp770:
	.loc	24 494 10 prologue_end
	leaq	l___unnamed_24(%rip), %rdx
	leaq	-40(%rbp), %r14
	movl	$5, %ecx
	movq	%r14, %rdi
	callq	__ZN4core3fmt9Formatter12debug_struct17ha1a64e91d2a98458E
Ltmp771:
	.loc	24 496 5
	movq	%rbx, -24(%rbp)
	.loc	24 494 10
	leaq	l___unnamed_22(%rip), %rsi
	leaq	l___unnamed_4(%rip), %r8
	leaq	-24(%rbp), %rcx
	movl	$5, %edx
	movq	%r14, %rdi
	callq	__ZN4core3fmt8builders11DebugStruct5field17h6c54d35ac41bb1e6E
	movq	%r14, %rdi
	callq	__ZN4core3fmt8builders11DebugStruct6finish17h67ed49fd5e81bb24E
Ltmp772:
	.loc	24 494 15 is_stmt 0
	addq	$32, %rsp
	popq	%rbx
Ltmp773:
	popq	%r14
	popq	%rbp
	retq
Ltmp774:
Lfunc_end72:
	.cfi_endproc

	.globl	__ZN60_$LT$rayon..str..EncodeUtf16$u20$as$u20$core..fmt..Debug$GT$3fmt17h56652dbb0100f452E
	.p2align	4, 0x90
__ZN60_$LT$rayon..str..EncodeUtf16$u20$as$u20$core..fmt..Debug$GT$3fmt17h56652dbb0100f452E:
Lfunc_begin73:
	.loc	24 538 0 is_stmt 1
	.cfi_startproc
	pushq	%rbp
	.cfi_def_cfa_offset 16
	.cfi_offset %rbp, -16
	movq	%rsp, %rbp
	.cfi_def_cfa_register %rbp
	pushq	%r14
	pushq	%rbx
	subq	$32, %rsp
	.cfi_offset %rbx, -32
	.cfi_offset %r14, -24
	movq	%rdi, %rbx
Ltmp775:
	.loc	24 538 10 prologue_end
	leaq	l___unnamed_25(%rip), %rdx
	leaq	-40(%rbp), %r14
	movl	$11, %ecx
	movq	%r14, %rdi
	callq	__ZN4core3fmt9Formatter12debug_struct17ha1a64e91d2a98458E
Ltmp776:
	.loc	24 540 5
	movq	%rbx, -24(%rbp)
	.loc	24 538 10
	leaq	l___unnamed_22(%rip), %rsi
	leaq	l___unnamed_4(%rip), %r8
	leaq	-24(%rbp), %rcx
	movl	$5, %edx
	movq	%r14, %rdi
	callq	__ZN4core3fmt8builders11DebugStruct5field17h6c54d35ac41bb1e6E
	movq	%r14, %rdi
	callq	__ZN4core3fmt8builders11DebugStruct6finish17h67ed49fd5e81bb24E
Ltmp777:
	.loc	24 538 15 is_stmt 0
	addq	$32, %rsp
	popq	%rbx
Ltmp778:
	popq	%r14
	popq	%rbp
	retq
Ltmp779:
Lfunc_end73:
	.cfi_endproc

	.globl	__ZN54_$LT$rayon..str..Lines$u20$as$u20$core..fmt..Debug$GT$3fmt17h90418cc10f5da2b7E
	.p2align	4, 0x90
__ZN54_$LT$rayon..str..Lines$u20$as$u20$core..fmt..Debug$GT$3fmt17h90418cc10f5da2b7E:
Lfunc_begin74:
	.loc	24 709 0 is_stmt 1
	.cfi_startproc
	pushq	%rbp
	.cfi_def_cfa_offset 16
	.cfi_offset %rbp, -16
	movq	%rsp, %rbp
	.cfi_def_cfa_register %rbp
	pushq	%r14
	pushq	%rbx
	subq	$32, %rsp
	.cfi_offset %rbx, -32
	.cfi_offset %r14, -24
	movq	%rdi, %rbx
Ltmp780:
	.loc	24 709 10 prologue_end
	leaq	l___unnamed_26(%rip), %rdx
	leaq	-48(%rbp), %r14
	movl	$5, %ecx
	movq	%r14, %rdi
	callq	__ZN4core3fmt9Formatter11debug_tuple17h6c448643801d07e8E
Ltmp781:
	.loc	24 710 23
	movq	%rbx, -24(%rbp)
	.loc	24 709 10
	leaq	l___unnamed_4(%rip), %rdx
	leaq	-24(%rbp), %rsi
	movq	%r14, %rdi
	callq	__ZN4core3fmt8builders10DebugTuple5field17hc7b676d0e36b51d9E
	movq	%r14, %rdi
	callq	__ZN4core3fmt8builders10DebugTuple6finish17h9f206806f7096c33E
Ltmp782:
	.loc	24 709 15 is_stmt 0
	addq	$32, %rsp
	popq	%rbx
Ltmp783:
	popq	%r14
	popq	%rbp
	retq
Ltmp784:
Lfunc_end74:
	.cfi_endproc

	.globl	__ZN64_$LT$rayon..str..SplitWhitespace$u20$as$u20$core..fmt..Debug$GT$3fmt17h6745f86de9e6f578E
	.p2align	4, 0x90
__ZN64_$LT$rayon..str..SplitWhitespace$u20$as$u20$core..fmt..Debug$GT$3fmt17h6745f86de9e6f578E:
Lfunc_begin75:
	.loc	24 738 0 is_stmt 1
	.cfi_startproc
	pushq	%rbp
	.cfi_def_cfa_offset 16
	.cfi_offset %rbp, -16
	movq	%rsp, %rbp
	.cfi_def_cfa_register %rbp
	pushq	%r14
	pushq	%rbx
	subq	$32, %rsp
	.cfi_offset %rbx, -32
	.cfi_offset %r14, -24
	movq	%rdi, %rbx
Ltmp785:
	.loc	24 738 10 prologue_end
	leaq	l___unnamed_27(%rip), %rdx
	leaq	-48(%rbp), %r14
	movl	$15, %ecx
	movq	%r14, %rdi
	callq	__ZN4core3fmt9Formatter11debug_tuple17h6c448643801d07e8E
Ltmp786:
	.loc	24 739 33
	movq	%rbx, -24(%rbp)
	.loc	24 738 10
	leaq	l___unnamed_4(%rip), %rdx
	leaq	-24(%rbp), %rsi
	movq	%r14, %rdi
	callq	__ZN4core3fmt8builders10DebugTuple5field17hc7b676d0e36b51d9E
	movq	%r14, %rdi
	callq	__ZN4core3fmt8builders10DebugTuple6finish17h9f206806f7096c33E
Ltmp787:
	.loc	24 738 15 is_stmt 0
	addq	$32, %rsp
	popq	%rbx
Ltmp788:
	popq	%r14
	popq	%rbp
	retq
Ltmp789:
Lfunc_end75:
	.cfi_endproc

	.section	__DATA,__const
	.p2align	3
l___unnamed_1:
	.quad	__ZN4core3ptr13drop_in_place17h0c9828b514248aebE
	.quad	16
	.quad	8
	.quad	__ZN91_$LT$std..panicking..begin_panic..PanicPayload$LT$A$GT$$u20$as$u20$core..panic..BoxMeUp$GT$8take_box17h75621b9d4d61effbE
	.quad	__ZN91_$LT$std..panicking..begin_panic..PanicPayload$LT$A$GT$$u20$as$u20$core..panic..BoxMeUp$GT$3get17h025e9ca0b5816aa7E

	.section	__TEXT,__const
	.p2align	4
_str.0:
	.ascii	"attempt to add with overflow"

l___unnamed_28:
	.ascii	"/rustc/6c8927b0cf80ceee19386026cf9d7fd4fd9d486f/src/libcore/str/mod.rs"

	.section	__DATA,__const
	.p2align	3
l___unnamed_8:
	.quad	l___unnamed_28
	.asciz	"F\000\000\000\000\000\000\000\212\n\000\000\r\000\000"

	.section	__TEXT,__const
l___unnamed_29:
	.ascii	"/rustc/6c8927b0cf80ceee19386026cf9d7fd4fd9d486f/src/libcore/macros/mod.rs"

	.section	__DATA,__const
	.p2align	3
l___unnamed_20:
	.quad	l___unnamed_29
	.asciz	"I\000\000\000\000\000\000\000\023\000\000\000\t\000\000"

	.section	__TEXT,__const
l___unnamed_30:
	.ascii	"assertion failed: `(left == right)`\n  left: `"

l___unnamed_31:
	.ascii	"`,\n right: `"

l___unnamed_32:
	.byte	96

	.section	__DATA,__const
	.p2align	3
l___unnamed_19:
	.quad	l___unnamed_30
	.asciz	"-\000\000\000\000\000\000"
	.quad	l___unnamed_31
	.asciz	"\f\000\000\000\000\000\000"
	.quad	l___unnamed_32
	.asciz	"\001\000\000\000\000\000\000"

	.section	__TEXT,__literal4,4byte_literals
L___unnamed_6:
	.ascii	"Some"

	.section	__DATA,__const
	.p2align	3
l___unnamed_2:
	.quad	__ZN4core3ptr13drop_in_place17h0c9828b514248aebE
	.quad	8
	.quad	8
	.quad	__ZN42_$LT$$RF$T$u20$as$u20$core..fmt..Debug$GT$3fmt17hb5399af3d67cf093E

	.section	__TEXT,__literal4,4byte_literals
L___unnamed_7:
	.ascii	"None"

	.section	__DATA,__const
	.p2align	3
l___unnamed_3:
	.quad	__ZN4core3ptr13drop_in_place17h0c9828b514248aebE
	.quad	16
	.quad	8
	.quad	__ZN36_$LT$T$u20$as$u20$core..any..Any$GT$7type_id17hdf375426f641ce19E

	.section	__TEXT,__const
l___unnamed_33:
	.ascii	"/Users/yingyuhang/.cargo/registry/src/github.com-1ecc6299db9ec823/rayon-1.3.1/src/str.rs"

	.section	__DATA,__const
	.p2align	3
l___unnamed_10:
	.quad	l___unnamed_33
	.asciz	"X\000\000\000\000\000\000\000&\000\000\000\024\000\000"

	.p2align	3
l___unnamed_9:
	.quad	l___unnamed_33
	.asciz	"X\000\000\000\000\000\000\000\333\001\000\000\034\000\000"

	.section	__TEXT,__const
l___unnamed_5:
	.ascii	"assertion failed: index <= self.range.len()"

l___unnamed_34:
	.ascii	"/Users/yingyuhang/.cargo/registry/src/github.com-1ecc6299db9ec823/rayon-1.3.1/src/range.rs"

	.section	__DATA,__const
	.p2align	3
l___unnamed_11:
	.quad	l___unnamed_34
	.asciz	"Z\000\000\000\000\000\000\000\323\000\000\000\001\000\000"

	.p2align	3
l___unnamed_12:
	.quad	l___unnamed_34
	.asciz	"Z\000\000\000\000\000\000\000\324\000\000\000\001\000\000"

	.p2align	3
l___unnamed_13:
	.quad	l___unnamed_34
	.asciz	"Z\000\000\000\000\000\000\000\325\000\000\000\001\000\000"

	.p2align	3
l___unnamed_14:
	.quad	l___unnamed_34
	.asciz	"Z\000\000\000\000\000\000\000\326\000\000\000\001\000\000"

	.p2align	3
l___unnamed_15:
	.quad	l___unnamed_34
	.asciz	"Z\000\000\000\000\000\000\000\327\000\000\000\001\000\000"

	.p2align	3
l___unnamed_16:
	.quad	l___unnamed_34
	.asciz	"Z\000\000\000\000\000\000\000\330\000\000\000\001\000\000"

	.p2align	3
l___unnamed_17:
	.quad	l___unnamed_34
	.asciz	"Z\000\000\000\000\000\000\000\331\000\000\000\001\000\000"

	.p2align	3
l___unnamed_18:
	.quad	l___unnamed_34
	.asciz	"Z\000\000\000\000\000\000\000\332\000\000\000\001\000\000"

	.section	__TEXT,__const
l___unnamed_21:
	.ascii	"Chars"

l___unnamed_22:
	.ascii	"chars"

	.section	__DATA,__const
	.p2align	3
l___unnamed_4:
	.quad	__ZN4core3ptr13drop_in_place17h0c9828b514248aebE
	.quad	8
	.quad	8
	.quad	__ZN42_$LT$$RF$T$u20$as$u20$core..fmt..Debug$GT$3fmt17h34044657de9345fcE

	.section	__TEXT,__const
l___unnamed_23:
	.ascii	"CharIndices"

l___unnamed_24:
	.ascii	"Bytes"

l___unnamed_25:
	.ascii	"EncodeUtf16"

l___unnamed_26:
	.ascii	"Lines"

l___unnamed_27:
	.ascii	"SplitWhitespace"

	.section	__DATA,__const
Lsec_end0:
	.section	__TEXT,__text,regular,pure_instructions
Lsec_end1: