	.section	__TEXT,__text,regular,pure_instructions
	.macosx_version_min 10, 7
	.p2align	4, 0x90
__ZN112_$LT$alloc..collections..btree..map..IntoIter$LT$K$C$V$GT$$u20$as$u20$core..iter..traits..iterator..Iterator$GT$4next17h82898677e3685b75E:
Lfunc_begin0:
	.file	1 "/rustc/6c8927b0cf80ceee19386026cf9d7fd4fd9d486f/src/liballoc/collections/btree/map.rs"
	.loc	1 1486 0
	.cfi_startproc
	pushq	%rbp
	.cfi_def_cfa_offset 16
	.cfi_offset %rbp, -16
	movq	%rsp, %rbp
	.cfi_def_cfa_register %rbp
	pushq	%r15
	pushq	%r14
	pushq	%r13
	pushq	%r12
	pushq	%rbx
	subq	$120, %rsp
	.cfi_offset %rbx, -56
	.cfi_offset %r12, -48
	.cfi_offset %r13, -40
	.cfi_offset %r14, -32
	.cfi_offset %r15, -24
	movq	%rdi, %r9
Ltmp0:
	.loc	1 1487 12 prologue_end
	movq	64(%rsi), %rax
	testq	%rax, %rax
	.loc	1 1487 9 is_stmt 0
	je	LBB0_21
Ltmp1:
	.loc	1 0 9
	movq	%rsi, %r12
Ltmp2:
	.loc	1 1490 13 is_stmt 1
	decq	%rax
	movq	%rax, 64(%rsi)
Ltmp3:
	.file	2 "/rustc/6c8927b0cf80ceee19386026cf9d7fd4fd9d486f/src/libcore/option.rs"
	.loc	2 289 13
	movq	8(%rsi), %rax
	testq	%rax, %rax
	cmoveq	%rax, %r12
Ltmp4:
	.loc	2 385 13
	je	LBB0_23
Ltmp5:
	.file	3 "/rustc/6c8927b0cf80ceee19386026cf9d7fd4fd9d486f/src/libcore/ptr/mod.rs"
	.loc	3 703 9
	movq	(%r12), %rax
	movq	8(%r12), %rdi
	movq	16(%r12), %r10
	movq	24(%r12), %r13
Ltmp6:
	.file	4 "/rustc/6c8927b0cf80ceee19386026cf9d7fd4fd9d486f/src/liballoc/collections/btree/node.rs"
	.loc	4 299 9
	movzwl	10(%rdi), %ecx
Ltmp7:
	.loc	4 824 12
	cmpq	%rcx, %r13
	.loc	4 824 9 is_stmt 0
	jae	LBB0_4
Ltmp8:
	.file	5 "/rustc/6c8927b0cf80ceee19386026cf9d7fd4fd9d486f/src/liballoc/collections/btree/navigate.rs"
	.loc	5 0 0
	movq	%rax, %rbx
Ltmp9:
	jmp	LBB0_10
Ltmp10:
LBB0_21:
	.loc	1 1488 13 is_stmt 1
	movq	$0, (%r9)
	jmp	LBB0_22
Ltmp11:
LBB0_4:
	.loc	1 0 13 is_stmt 0
	movq	%r10, -48(%rbp)
Ltmp12:
	movq	%r9, -56(%rbp)
	movl	$544, %r15d
	jmp	LBB0_5
Ltmp13:
	.p2align	4, 0x90
LBB0_7:
	.loc	4 354 29 is_stmt 1
	leaq	1(%rax), %rbx
Ltmp14:
	.loc	4 359 43
	movzwl	8(%rdi), %r13d
Ltmp15:
LBB0_8:
	.loc	4 404 20
	testq	%rax, %rax
	.loc	4 404 17 is_stmt 0
	movl	$640, %esi
	cmoveq	%r15, %rsi
Ltmp16:
	.file	6 "/rustc/6c8927b0cf80ceee19386026cf9d7fd4fd9d486f/src/liballoc/alloc.rs"
	.loc	6 102 14 is_stmt 1
	movl	$8, %edx
	callq	___rust_dealloc
Ltmp17:
	.loc	4 299 9
	movzwl	10(%r14), %ecx
	movq	%rbx, %rax
	movq	%r14, %rdi
Ltmp18:
	.loc	4 824 12
	cmpq	%rcx, %r13
	.loc	4 824 9 is_stmt 0
	jb	LBB0_9
Ltmp19:
LBB0_5:
	.loc	4 350 30 is_stmt 1
	movq	(%rdi), %r14
Ltmp20:
	.loc	4 351 16
	testq	%r14, %r14
	jne	LBB0_7
Ltmp21:
	.file	7 "/rustc/6c8927b0cf80ceee19386026cf9d7fd4fd9d486f/src/libcore/result.rs"
	.loc	7 0 0 is_stmt 0
	xorl	%r14d, %r14d
Ltmp22:
	jmp	LBB0_8
Ltmp23:
LBB0_9:
	movq	%r14, %rdi
Ltmp24:
	movq	-56(%rbp), %r9
	movq	-48(%rbp), %r10
Ltmp25:
LBB0_10:
	.loc	4 985 13 is_stmt 1
	leaq	(%r13,%r13,2), %rax
Ltmp26:
	.loc	3 703 9
	movq	32(%rdi,%rax,8), %rcx
	movq	%rcx, -64(%rbp)
	movq	16(%rdi,%rax,8), %rcx
	movq	24(%rdi,%rax,8), %rdx
	movq	%rdx, -72(%rbp)
	movq	%rcx, -80(%rbp)
Ltmp27:
	.loc	3 703 9 is_stmt 0
	movq	296(%rdi,%rax,8), %rcx
	movq	%rcx, -88(%rbp)
	movq	280(%rdi,%rax,8), %rcx
	movq	288(%rdi,%rax,8), %rax
	movq	%rax, -96(%rbp)
	movq	%rcx, -104(%rbp)
Ltmp28:
	.loc	4 690 12 is_stmt 1
	testq	%rbx, %rbx
Ltmp29:
	.loc	5 241 13
	je	LBB0_11
Ltmp30:
	.loc	4 690 12
	movq	%rbx, %rax
Ltmp31:
	.loc	4 973 17
	movq	552(%rdi,%r13,8), %rdi
Ltmp32:
	.loc	4 690 12
	decq	%rax
Ltmp33:
	.loc	5 217 17
	je	LBB0_13
Ltmp34:
	addq	$-2, %rbx
Ltmp35:
	movq	%rax, %rcx
	andq	$7, %rcx
	je	LBB0_18
Ltmp36:
	.loc	5 0 17 is_stmt 0
	xorl	%edx, %edx
Ltmp37:
	.p2align	4, 0x90
LBB0_16:
	movq	544(%rdi), %rdi
Ltmp38:
	.loc	5 217 17
	incq	%rdx
	cmpq	%rdx, %rcx
	jne	LBB0_16
Ltmp39:
	subq	%rdx, %rax
Ltmp40:
LBB0_18:
	.loc	5 0 17
	xorl	%r13d, %r13d
Ltmp41:
	.loc	5 217 17
	cmpq	$7, %rbx
	jb	LBB0_20
Ltmp42:
	.p2align	4, 0x90
LBB0_19:
	.loc	5 0 0
	movq	544(%rdi), %rcx
Ltmp43:
	movq	544(%rcx), %rcx
Ltmp44:
	movq	544(%rcx), %rcx
Ltmp45:
	movq	544(%rcx), %rcx
Ltmp46:
	movq	544(%rcx), %rcx
Ltmp47:
	movq	544(%rcx), %rcx
Ltmp48:
	movq	544(%rcx), %rcx
Ltmp49:
	movq	544(%rcx), %rdi
Ltmp50:
	.loc	4 690 12 is_stmt 1
	addq	$-8, %rax
Ltmp51:
	.loc	5 217 17
	jne	LBB0_19
	jmp	LBB0_20
Ltmp52:
LBB0_11:
	.loc	5 0 17 is_stmt 0
	incq	%r13
Ltmp53:
	jmp	LBB0_20
Ltmp54:
LBB0_13:
	xorl	%r13d, %r13d
Ltmp55:
LBB0_20:
	.loc	5 180 40 is_stmt 1
	movq	-64(%rbp), %r8
	movq	%r8, -136(%rbp)
	movq	-80(%rbp), %rcx
	movq	-72(%rbp), %rdx
	movq	%rdx, -144(%rbp)
	movq	%rcx, -152(%rbp)
	.loc	5 180 39 is_stmt 0
	movq	-104(%rbp), %rsi
	movq	-96(%rbp), %rbx
	movq	%rsi, -128(%rbp)
	movq	%rbx, -120(%rbp)
	movq	-88(%rbp), %rax
	movq	%rax, -112(%rbp)
	.loc	5 180 17
	movq	%rax, 40(%r9)
	movq	%rbx, 32(%r9)
	movq	%rsi, 24(%r9)
	movq	%r8, 16(%r9)
	movq	%rdx, 8(%r9)
	movq	%rcx, (%r9)
Ltmp56:
	.loc	3 901 51 is_stmt 1
	movq	$0, (%r12)
	movq	%rdi, 8(%r12)
	movq	%r10, 16(%r12)
	movq	%r13, 24(%r12)
Ltmp57:
LBB0_22:
	.loc	1 1493 6
	addq	$120, %rsp
	popq	%rbx
	popq	%r12
	popq	%r13
	popq	%r14
	popq	%r15
	popq	%rbp
	retq
LBB0_23:
Ltmp58:
	.file	8 "/rustc/6c8927b0cf80ceee19386026cf9d7fd4fd9d486f/src/libcore/macros/mod.rs"
	.loc	8 10 9
	leaq	l___unnamed_7(%rip), %rdi
	leaq	l___unnamed_8(%rip), %rdx
	movl	$43, %esi
	callq	__ZN4core9panicking5panic17h383a6b80ea7021aaE
Ltmp59:
Lfunc_end0:
	.cfi_endproc

	.p2align	4, 0x90
__ZN42_$LT$$RF$T$u20$as$u20$core..fmt..Debug$GT$3fmt17h07fc97bc369db525E:
Lfunc_begin1:
	.file	9 "/rustc/6c8927b0cf80ceee19386026cf9d7fd4fd9d486f/src/libcore/fmt/mod.rs"
	.loc	9 2022 0
	.cfi_startproc
	pushq	%rbp
	.cfi_def_cfa_offset 16
	.cfi_offset %rbp, -16
	movq	%rsp, %rbp
	.cfi_def_cfa_register %rbp
	movq	%rsi, %rdx
Ltmp60:
	.loc	9 2022 71 prologue_end
	movq	(%rdi), %rax
	.loc	9 2022 62 is_stmt 0
	movq	(%rax), %rdi
Ltmp61:
	movq	8(%rax), %rsi
Ltmp62:
	.loc	9 2022 62
	popq	%rbp
	jmp	__ZN40_$LT$str$u20$as$u20$core..fmt..Debug$GT$3fmt17h5b42b6f497bd434cE
Ltmp63:
Lfunc_end1:
	.cfi_endproc

	.p2align	4, 0x90
__ZN42_$LT$$RF$T$u20$as$u20$core..fmt..Debug$GT$3fmt17h7f2511abda3d0de6E:
Lfunc_begin2:
	.loc	9 2022 0 is_stmt 1
	.cfi_startproc
	pushq	%rbp
	.cfi_def_cfa_offset 16
	.cfi_offset %rbp, -16
	movq	%rsp, %rbp
	.cfi_def_cfa_register %rbp
	movq	%rsi, %rdx
Ltmp64:
	.loc	9 2022 71 prologue_end
	movq	(%rdi), %rax
Ltmp65:
	.file	10 "/rustc/6c8927b0cf80ceee19386026cf9d7fd4fd9d486f/src/liballoc/vec.rs"
	.loc	10 818 19
	movq	(%rax), %rdi
Ltmp66:
	.loc	10 1923 55
	movq	16(%rax), %rsi
Ltmp67:
	.file	11 "/rustc/6c8927b0cf80ceee19386026cf9d7fd4fd9d486f/src/liballoc/string.rs"
	.loc	11 1960 9
	popq	%rbp
	jmp	__ZN40_$LT$str$u20$as$u20$core..fmt..Debug$GT$3fmt17h5b42b6f497bd434cE
Ltmp68:
Lfunc_end2:
	.cfi_endproc

	.p2align	4, 0x90
__ZN44_$LT$$RF$T$u20$as$u20$core..fmt..Display$GT$3fmt17hebb227c064e15923E:
Lfunc_begin3:
	.loc	9 2022 0
	.cfi_startproc
	pushq	%rbp
	.cfi_def_cfa_offset 16
	.cfi_offset %rbp, -16
	movq	%rsp, %rbp
	.cfi_def_cfa_register %rbp
	movq	%rsi, %rdx
Ltmp69:
	.loc	9 2022 71 prologue_end
	movq	(%rdi), %rax
	movq	8(%rdi), %rsi
	.loc	9 2022 62 is_stmt 0
	movq	%rax, %rdi
Ltmp70:
	popq	%rbp
	jmp	__ZN42_$LT$str$u20$as$u20$core..fmt..Display$GT$3fmt17h6768afae62e94f93E
Ltmp71:
Lfunc_end3:
	.cfi_endproc

	.p2align	4, 0x90
__ZN4core3ptr13drop_in_place17h08138021b5fce4f7E:
Lfunc_begin4:
	.loc	3 184 0 is_stmt 1
	.cfi_startproc
	pushq	%rbp
	.cfi_def_cfa_offset 16
	.cfi_offset %rbp, -16
	movq	%rsp, %rbp
	.cfi_def_cfa_register %rbp
	movq	%rdi, %rax
Ltmp72:
	.loc	3 184 1 prologue_end
	movq	(%rdi), %rdi
Ltmp73:
	.file	12 "/rustc/6c8927b0cf80ceee19386026cf9d7fd4fd9d486f/src/liballoc/raw_vec.rs"
	.loc	12 507 16
	testq	%rdi, %rdi
Ltmp74:
	.loc	12 235 9
	je	LBB4_2
Ltmp75:
	.loc	3 0 0 is_stmt 0
	movq	8(%rax), %rsi
Ltmp76:
	.loc	12 235 9
	testq	%rsi, %rsi
	je	LBB4_2
Ltmp77:
	.loc	6 102 14 is_stmt 1
	movl	$1, %edx
	popq	%rbp
	jmp	___rust_dealloc
Ltmp78:
LBB4_2:
	.loc	3 184 1
	popq	%rbp
	retq
Ltmp79:
Lfunc_end4:
	.cfi_endproc

	.p2align	4, 0x90
__ZN4core3ptr13drop_in_place17h0cd81a301b521febE:
Lfunc_begin5:
	.loc	3 184 0
	.cfi_startproc
	pushq	%rbp
	.cfi_def_cfa_offset 16
	.cfi_offset %rbp, -16
	movq	%rsp, %rbp
	.cfi_def_cfa_register %rbp
	movq	%rdi, %rax
Ltmp80:
	.loc	3 184 1 prologue_end
	movq	(%rdi), %rdi
Ltmp81:
	.loc	12 507 16
	testq	%rdi, %rdi
Ltmp82:
	.loc	12 235 9
	je	LBB5_2
Ltmp83:
	.loc	3 0 0 is_stmt 0
	movq	8(%rax), %rsi
Ltmp84:
	.loc	12 235 9
	testq	%rsi, %rsi
	je	LBB5_2
Ltmp85:
	.loc	6 102 14 is_stmt 1
	movl	$1, %edx
	popq	%rbp
	jmp	___rust_dealloc
Ltmp86:
LBB5_2:
	.loc	3 184 1
	popq	%rbp
	retq
Ltmp87:
Lfunc_end5:
	.cfi_endproc

	.p2align	4, 0x90
__ZN4core3ptr13drop_in_place17h31e69cdf093088c9E:
Lfunc_begin6:
	.loc	3 184 0
	.cfi_startproc
	pushq	%rbp
	.cfi_def_cfa_offset 16
	.cfi_offset %rbp, -16
	movq	%rsp, %rbp
	.cfi_def_cfa_register %rbp
Ltmp88:
	.loc	3 184 1 prologue_end
	popq	%rbp
	retq
Ltmp89:
Lfunc_end6:
	.cfi_endproc

	.p2align	4, 0x90
__ZN4core3ptr13drop_in_place17h3d203cc4000e0422E:
Lfunc_begin7:
	.loc	3 184 0
	.cfi_startproc
	pushq	%rbp
	.cfi_def_cfa_offset 16
	.cfi_offset %rbp, -16
	movq	%rsp, %rbp
	.cfi_def_cfa_register %rbp
Ltmp90:
	.loc	3 184 1 prologue_end
	movq	(%rdi), %rax
	testq	%rax, %rax
	je	LBB7_2
Ltmp91:
	.file	13 "/rustc/6c8927b0cf80ceee19386026cf9d7fd4fd9d486f/src/libstd/ffi/c_str.rs"
	.loc	13 814 13
	movb	$0, (%rax)
Ltmp92:
	.loc	3 184 1
	movq	8(%rdi), %rsi
Ltmp93:
	.loc	6 185 12
	testq	%rsi, %rsi
	.loc	6 185 9 is_stmt 0
	je	LBB7_2
Ltmp94:
	.loc	3 184 1 is_stmt 1
	movq	(%rdi), %rdi
Ltmp95:
	.loc	6 102 14
	movl	$1, %edx
	popq	%rbp
	jmp	___rust_dealloc
Ltmp96:
LBB7_2:
	.loc	3 184 1
	popq	%rbp
	retq
Ltmp97:
Lfunc_end7:
	.cfi_endproc

	.p2align	4, 0x90
__ZN4core3ptr13drop_in_place17h6bcbb01f13be341dE:
Lfunc_begin8:
	.loc	3 184 0
	.cfi_startproc
	pushq	%rbp
	.cfi_def_cfa_offset 16
	.cfi_offset %rbp, -16
	movq	%rsp, %rbp
	.cfi_def_cfa_register %rbp
	movq	%rdi, %rax
Ltmp98:
	.loc	3 184 1 prologue_end
	movq	(%rdi), %rdi
Ltmp99:
	.loc	12 507 16
	testq	%rdi, %rdi
Ltmp100:
	.loc	12 235 9
	je	LBB8_2
Ltmp101:
	.loc	3 0 0 is_stmt 0
	movq	8(%rax), %rsi
Ltmp102:
	.loc	12 235 9
	testq	%rsi, %rsi
	je	LBB8_2
Ltmp103:
	.loc	6 102 14 is_stmt 1
	movl	$1, %edx
	popq	%rbp
	jmp	___rust_dealloc
Ltmp104:
LBB8_2:
	.loc	3 184 1
	popq	%rbp
	retq
Ltmp105:
Lfunc_end8:
	.cfi_endproc

	.p2align	4, 0x90
__ZN4core3ptr13drop_in_place17h7b138e107645a720E:
Lfunc_begin9:
	.loc	3 184 0
	.cfi_startproc
	pushq	%rbp
	.cfi_def_cfa_offset 16
	.cfi_offset %rbp, -16
	movq	%rsp, %rbp
	.cfi_def_cfa_register %rbp
Ltmp106:
	.loc	3 184 1 prologue_end
	cmpl	$3, (%rdi)
	jne	LBB9_1
Ltmp107:
	.loc	3 184 1 is_stmt 0
	addq	$4, %rdi
Ltmp108:
	.loc	3 184 1
	popq	%rbp
	jmp	__ZN70_$LT$std..sys..unix..fd..FileDesc$u20$as$u20$core..ops..drop..Drop$GT$4drop17h633394f1cf9da1c8E
Ltmp109:
LBB9_1:
	.loc	3 184 1
	popq	%rbp
	retq
Ltmp110:
Lfunc_end9:
	.cfi_endproc

	.p2align	4, 0x90
__ZN4core3ptr13drop_in_place17h7b3348ac26da0d82E:
Lfunc_begin10:
	.loc	3 184 0 is_stmt 1
	.cfi_startproc
	pushq	%rbp
	.cfi_def_cfa_offset 16
	.cfi_offset %rbp, -16
	movq	%rsp, %rbp
	.cfi_def_cfa_register %rbp
Ltmp111:
	.loc	12 235 40 prologue_end
	testq	%rsi, %rsi
	.loc	12 235 9 is_stmt 0
	je	LBB10_3
Ltmp112:
	.loc	12 507 16 is_stmt 1
	testq	%rdi, %rdi
Ltmp113:
	je	LBB10_3
Ltmp114:
	.loc	12 0 0 is_stmt 0
	shlq	$4, %rsi
Ltmp115:
	.loc	12 507 16
	je	LBB10_3
Ltmp116:
	.loc	6 102 14 is_stmt 1
	movl	$8, %edx
	popq	%rbp
	jmp	___rust_dealloc
Ltmp117:
LBB10_3:
	.loc	3 184 1
	popq	%rbp
	retq
Ltmp118:
Lfunc_end10:
	.cfi_endproc

	.p2align	4, 0x90
__ZN4core3ptr13drop_in_place17h7ee7a6454db1c910E:
Lfunc_begin11:
	.loc	3 184 0
	.cfi_startproc
	.cfi_personality 155, _rust_eh_personality
	.cfi_lsda 16, Lexception0
	pushq	%rbp
	.cfi_def_cfa_offset 16
	.cfi_offset %rbp, -16
	movq	%rsp, %rbp
	.cfi_def_cfa_register %rbp
	pushq	%r14
	pushq	%rbx
	.cfi_offset %rbx, -32
	.cfi_offset %r14, -24
	movq	%rdi, %rbx
Ltmp122:
	.loc	3 184 1 prologue_end
	movq	(%rdi), %rdi
	movq	8(%rbx), %rax
Ltmp119:
	callq	*(%rax)
Ltmp120:
Ltmp123:
	movq	8(%rbx), %rax
Ltmp124:
	.loc	6 292 20
	movq	8(%rax), %rsi
Ltmp125:
	.loc	6 185 12
	testq	%rsi, %rsi
	.loc	6 185 9 is_stmt 0
	je	LBB11_2
Ltmp126:
	.loc	3 184 1 is_stmt 1
	movq	(%rbx), %rdi
Ltmp127:
	.loc	6 293 21
	movq	16(%rax), %rdx
Ltmp128:
	.loc	6 102 14
	popq	%rbx
Ltmp129:
	popq	%r14
	popq	%rbp
	jmp	___rust_dealloc
Ltmp130:
LBB11_2:
	.loc	3 184 1
	popq	%rbx
Ltmp131:
	popq	%r14
	popq	%rbp
	retq
LBB11_3:
Ltmp132:
Ltmp121:
	.loc	3 0 1 is_stmt 0
	movq	%rax, %r14
	.loc	3 184 1
	movq	(%rbx), %rdi
	movq	8(%rbx), %rsi
	callq	__ZN5alloc5alloc8box_free17h0da1a354cf448b26E
	movq	%r14, %rdi
	callq	__Unwind_Resume
	ud2
Ltmp133:
Lfunc_end11:
	.cfi_endproc
	.section	__TEXT,__gcc_except_tab
	.p2align	2
GCC_except_table11:
Lexception0:
	.byte	255
	.byte	255
	.byte	1
	.uleb128 Lcst_end0-Lcst_begin0
Lcst_begin0:
	.uleb128 Ltmp119-Lfunc_begin11
	.uleb128 Ltmp120-Ltmp119
	.uleb128 Ltmp121-Lfunc_begin11
	.byte	0
	.uleb128 Ltmp120-Lfunc_begin11
	.uleb128 Lfunc_end11-Ltmp120
	.byte	0
	.byte	0
Lcst_end0:
	.p2align	2

	.section	__TEXT,__text,regular,pure_instructions
	.p2align	4, 0x90
__ZN4core3ptr13drop_in_place17ha3ff4437b4406a85E:
Lfunc_begin12:
	.loc	3 184 0 is_stmt 1
	.cfi_startproc
	.cfi_personality 155, _rust_eh_personality
	.cfi_lsda 16, Lexception1
	pushq	%rbp
	.cfi_def_cfa_offset 16
	.cfi_offset %rbp, -16
	movq	%rsp, %rbp
	.cfi_def_cfa_register %rbp
	pushq	%r15
	pushq	%r14
	pushq	%r13
	pushq	%r12
	pushq	%rbx
	pushq	%rax
	.cfi_offset %rbx, -56
	.cfi_offset %r12, -48
	.cfi_offset %r13, -40
	.cfi_offset %r14, -32
	.cfi_offset %r15, -24
	movq	%rdi, %r14
Ltmp140:
	.loc	10 854 19 prologue_end
	movq	(%rdi), %r13
Ltmp141:
	.loc	10 2421 81
	movq	16(%rdi), %r12
Ltmp142:
	.loc	3 184 1
	testq	%r12, %r12
	je	LBB12_7
Ltmp143:
	.loc	3 0 0 is_stmt 0
	shlq	$4, %r12
Ltmp144:
	leaq	(%r13,%r12), %r15
Ltmp145:
	.loc	3 184 1
	addq	$-16, %r12
	addq	$16, %r13
Ltmp146:
	.loc	3 0 1
	jmp	LBB12_2
Ltmp147:
	.p2align	4, 0x90
LBB12_5:
	.loc	3 184 1
	addq	$-16, %r12
	addq	$16, %r13
	addq	$16, %rbx
	cmpq	%r15, %rbx
	je	LBB12_6
Ltmp148:
LBB12_2:
	.loc	3 184 1
	movq	-16(%r13), %rdi
	movq	-8(%r13), %rax
Ltmp134:
	callq	*(%rax)
Ltmp135:
Ltmp149:
	leaq	-16(%r13), %rbx
	movq	8(%rbx), %rax
Ltmp150:
	.loc	6 292 20 is_stmt 1
	movq	8(%rax), %rsi
Ltmp151:
	.loc	6 185 12
	testq	%rsi, %rsi
	.loc	6 185 9 is_stmt 0
	je	LBB12_5
Ltmp152:
	.loc	3 184 1 is_stmt 1
	movq	-16(%r13), %rdi
Ltmp153:
	.loc	6 293 21
	movq	16(%rax), %rdx
Ltmp154:
	.loc	6 102 14
	callq	___rust_dealloc
Ltmp155:
	.loc	6 0 14 is_stmt 0
	jmp	LBB12_5
Ltmp156:
LBB12_6:
	.loc	3 184 1 is_stmt 1
	movq	(%r14), %r13
Ltmp157:
LBB12_7:
	movq	8(%r14), %rsi
Ltmp158:
	.loc	12 235 40
	testq	%rsi, %rsi
	.loc	12 235 9 is_stmt 0
	je	LBB12_14
Ltmp159:
	.loc	12 507 16 is_stmt 1
	testq	%r13, %r13
Ltmp160:
	je	LBB12_14
Ltmp161:
	.loc	12 0 0 is_stmt 0
	shlq	$4, %rsi
Ltmp162:
	.loc	12 507 16
	je	LBB12_14
Ltmp163:
	.loc	6 102 14 is_stmt 1
	movl	$8, %edx
	movq	%r13, %rdi
	addq	$8, %rsp
	popq	%rbx
	popq	%r12
	popq	%r13
Ltmp164:
	popq	%r14
Ltmp165:
	popq	%r15
	popq	%rbp
	jmp	___rust_dealloc
Ltmp166:
LBB12_14:
	.loc	3 184 1
	addq	$8, %rsp
	popq	%rbx
	popq	%r12
	popq	%r13
	popq	%r14
Ltmp167:
	popq	%r15
	popq	%rbp
	retq
LBB12_11:
Ltmp168:
Ltmp136:
	.loc	3 0 1 is_stmt 0
	movq	%rax, %r15
Ltmp169:
	.loc	3 184 1
	movq	-16(%r13), %rdi
	movq	-8(%r13), %rsi
	callq	__ZN5alloc5alloc8box_free17h0da1a354cf448b26E
Ltmp170:
	.loc	3 184 1
	testq	%r12, %r12
	je	LBB12_16
Ltmp171:
LBB12_12:
Ltmp137:
	movq	%r13, %rdi
	callq	__ZN4core3ptr13drop_in_place17h7ee7a6454db1c910E
Ltmp138:
Ltmp172:
	addq	$16, %r13
	addq	$-16, %r12
	jne	LBB12_12
Ltmp173:
LBB12_16:
	.loc	3 184 1
	movq	(%r14), %rdi
	movq	8(%r14), %rsi
	callq	__ZN4core3ptr13drop_in_place17h7b3348ac26da0d82E
	movq	%r15, %rdi
	callq	__Unwind_Resume
	ud2
Ltmp174:
LBB12_15:
Ltmp139:
	.loc	3 0 1
	movq	%rax, %r15
	jmp	LBB12_16
Lfunc_end12:
	.cfi_endproc
	.section	__TEXT,__gcc_except_tab
	.p2align	2
GCC_except_table12:
Lexception1:
	.byte	255
	.byte	255
	.byte	1
	.uleb128 Lcst_end1-Lcst_begin1
Lcst_begin1:
	.uleb128 Ltmp134-Lfunc_begin12
	.uleb128 Ltmp135-Ltmp134
	.uleb128 Ltmp136-Lfunc_begin12
	.byte	0
	.uleb128 Ltmp137-Lfunc_begin12
	.uleb128 Ltmp138-Ltmp137
	.uleb128 Ltmp139-Lfunc_begin12
	.byte	0
	.uleb128 Ltmp138-Lfunc_begin12
	.uleb128 Lfunc_end12-Ltmp138
	.byte	0
	.byte	0
Lcst_end1:
	.p2align	2

	.section	__TEXT,__text,regular,pure_instructions
	.p2align	4, 0x90
__ZN4core3ptr13drop_in_place17hb56abebfba1d6068E:
Lfunc_begin13:
	.loc	3 184 0 is_stmt 1
	.cfi_startproc
	pushq	%rbp
	.cfi_def_cfa_offset 16
	.cfi_offset %rbp, -16
	movq	%rsp, %rbp
	.cfi_def_cfa_register %rbp
	movq	%rdi, %rax
Ltmp175:
	.loc	3 184 1 prologue_end
	movq	(%rdi), %rdi
	testq	%rdi, %rdi
	je	LBB13_2
Ltmp176:
	.loc	3 184 1 is_stmt 0
	movq	8(%rax), %rsi
Ltmp177:
	.loc	12 235 40 is_stmt 1
	testq	%rsi, %rsi
	.loc	12 235 9 is_stmt 0
	je	LBB13_2
Ltmp178:
	.loc	6 102 14 is_stmt 1
	movl	$1, %edx
	popq	%rbp
	jmp	___rust_dealloc
Ltmp179:
LBB13_2:
	.loc	3 184 1
	popq	%rbp
	retq
Ltmp180:
Lfunc_end13:
	.cfi_endproc

	.p2align	4, 0x90
__ZN4core3ptr13drop_in_place17he21605652a4293c7E:
Lfunc_begin14:
	.loc	3 184 0
	.cfi_startproc
	.cfi_personality 155, _rust_eh_personality
	.cfi_lsda 16, Lexception2
	pushq	%rbp
	.cfi_def_cfa_offset 16
	.cfi_offset %rbp, -16
	movq	%rsp, %rbp
	.cfi_def_cfa_register %rbp
	pushq	%r15
	pushq	%r14
	pushq	%r13
	pushq	%r12
	pushq	%rbx
	subq	$120, %rsp
	.cfi_offset %rbx, -56
	.cfi_offset %r12, -48
	.cfi_offset %r13, -40
	.cfi_offset %r14, -32
	.cfi_offset %r15, -24
	movq	%rdi, %r14
Ltmp198:
	.loc	13 814 14 prologue_end
	movq	(%rdi), %rax
Ltmp199:
	.loc	13 814 13 is_stmt 0
	movb	$0, (%rax)
Ltmp200:
	.loc	3 184 1 is_stmt 1
	movq	8(%rdi), %rsi
Ltmp201:
	.loc	6 185 12
	testq	%rsi, %rsi
	.loc	6 185 9 is_stmt 0
	je	LBB14_2
Ltmp202:
	.loc	3 184 1 is_stmt 1
	movq	(%r14), %rdi
Ltmp203:
	.loc	6 102 14
	movl	$1, %edx
	callq	___rust_dealloc
Ltmp204:
LBB14_2:
	.loc	10 854 19
	movq	16(%r14), %rbx
Ltmp205:
	.loc	10 2421 81
	movq	32(%r14), %r15
Ltmp206:
	.loc	3 184 1
	testq	%r15, %r15
	je	LBB14_8
Ltmp207:
	shlq	$4, %r15
Ltmp208:
	addq	%rbx, %r15
	jmp	LBB14_4
Ltmp209:
	.p2align	4, 0x90
LBB14_6:
	addq	$16, %rbx
	cmpq	%r15, %rbx
	je	LBB14_7
Ltmp210:
LBB14_4:
	.loc	13 814 14
	movq	(%rbx), %rax
Ltmp211:
	.loc	13 814 13 is_stmt 0
	movb	$0, (%rax)
Ltmp212:
	.loc	3 184 1 is_stmt 1
	movq	8(%rbx), %rsi
Ltmp213:
	.loc	6 185 12
	testq	%rsi, %rsi
	.loc	6 185 9 is_stmt 0
	je	LBB14_6
Ltmp214:
	.loc	3 184 1 is_stmt 1
	movq	(%rbx), %rdi
Ltmp215:
	.loc	6 102 14
	movl	$1, %edx
	callq	___rust_dealloc
Ltmp216:
	.loc	6 0 14 is_stmt 0
	jmp	LBB14_6
Ltmp217:
LBB14_7:
	.loc	3 184 1 is_stmt 1
	movq	16(%r14), %rbx
Ltmp218:
LBB14_8:
	movq	24(%r14), %rsi
Ltmp219:
	.loc	12 235 40
	testq	%rsi, %rsi
	.loc	12 235 9 is_stmt 0
	je	LBB14_12
Ltmp220:
	.loc	12 507 16 is_stmt 1
	testq	%rbx, %rbx
Ltmp221:
	je	LBB14_12
Ltmp222:
	.loc	12 0 0 is_stmt 0
	shlq	$4, %rsi
Ltmp223:
	.loc	12 507 16
	je	LBB14_12
Ltmp224:
	.loc	6 102 14 is_stmt 1
	movl	$8, %edx
	movq	%rbx, %rdi
	callq	___rust_dealloc
Ltmp225:
LBB14_12:
	.loc	3 184 1
	movq	48(%r14), %rsi
Ltmp226:
	.loc	12 235 40
	testq	%rsi, %rsi
	.loc	12 235 9 is_stmt 0
	je	LBB14_16
Ltmp227:
	.loc	3 0 0
	movq	40(%r14), %rdi
Ltmp228:
	.loc	12 507 16 is_stmt 1
	testq	%rdi, %rdi
Ltmp229:
	je	LBB14_16
Ltmp230:
	.loc	12 0 0 is_stmt 0
	shlq	$3, %rsi
Ltmp231:
	.loc	12 507 16
	testq	%rsi, %rsi
	je	LBB14_16
Ltmp232:
	.loc	6 102 14 is_stmt 1
	movl	$8, %edx
	callq	___rust_dealloc
Ltmp233:
LBB14_16:
	.loc	3 184 1
	movq	64(%r14), %rcx
Ltmp234:
	.loc	1 1432 16
	testq	%rcx, %rcx
	je	LBB14_17
Ltmp235:
	.loc	3 0 0 is_stmt 0
	movq	72(%r14), %rdi
	movq	80(%r14), %rax
Ltmp236:
	.loc	4 299 9 is_stmt 1
	movzwl	10(%rcx), %edx
Ltmp237:
	.loc	4 690 12
	testq	%rdi, %rdi
Ltmp238:
	.loc	1 2053 14
	je	LBB14_32
Ltmp239:
	.loc	1 0 14 is_stmt 0
	movb	$1, %bl
	movq	%rcx, %rsi
Ltmp240:
	.p2align	4, 0x90
LBB14_36:
	.loc	1 2056 33 is_stmt 1
	testb	$1, %bl
Ltmp241:
	je	LBB14_33
Ltmp242:
	.loc	4 690 12
	cmpq	$1, %rdi
	setne	%bl
Ltmp243:
	.loc	4 973 17
	movq	544(%rcx), %rcx
Ltmp244:
	.loc	4 973 17 is_stmt 0
	movq	544(%rsi,%rdx,8), %rsi
Ltmp245:
	.loc	4 299 9 is_stmt 1
	movzwl	10(%rsi), %edx
Ltmp246:
	.loc	4 690 12
	decq	%rdi
Ltmp247:
	.loc	1 2053 14
	jne	LBB14_36
	jmp	LBB14_38
Ltmp248:
LBB14_17:
	.loc	1 1437 13
	movq	$0, -104(%rbp)
	movq	$0, -72(%rbp)
	xorl	%eax, %eax
	jmp	LBB14_39
Ltmp249:
LBB14_32:
	.loc	1 0 13 is_stmt 0
	movq	%rcx, %rsi
Ltmp250:
LBB14_38:
	.loc	1 1435 13 is_stmt 1
	movq	$0, -112(%rbp)
	movq	%rcx, -104(%rbp)
	movq	$0, -96(%rbp)
	movq	$0, -88(%rbp)
	movq	$0, -80(%rbp)
	movq	%rsi, -72(%rbp)
	movq	$0, -64(%rbp)
	movq	%rdx, -56(%rbp)
Ltmp251:
LBB14_39:
	.loc	1 0 0 is_stmt 0
	movq	%rax, -48(%rbp)
Ltmp183:
Ltmp252:
	leaq	-160(%rbp), %rdi
	leaq	-112(%rbp), %rsi
Ltmp253:
	.loc	1 1463 32 is_stmt 1
	callq	__ZN112_$LT$alloc..collections..btree..map..IntoIter$LT$K$C$V$GT$$u20$as$u20$core..iter..traits..iterator..Iterator$GT$4next17h82898677e3685b75E
Ltmp184:
Ltmp254:
	.loc	1 1463 19 is_stmt 0
	movq	-160(%rbp), %rdi
	testq	%rdi, %rdi
	je	LBB14_50
Ltmp255:
	.loc	1 0 19
	leaq	-160(%rbp), %r15
	leaq	-112(%rbp), %r12
Ltmp256:
	.p2align	4, 0x90
LBB14_42:
	.loc	1 1463 24
	movq	-136(%rbp), %rbx
	movq	-128(%rbp), %r13
Ltmp257:
	.loc	12 507 16 is_stmt 1
	testq	%rdi, %rdi
Ltmp258:
	.loc	12 235 9
	je	LBB14_45
Ltmp259:
	.loc	1 0 0 is_stmt 0
	movq	-152(%rbp), %rsi
Ltmp260:
	.loc	12 235 9
	testq	%rsi, %rsi
	je	LBB14_45
Ltmp261:
	.loc	6 102 14 is_stmt 1
	movl	$1, %edx
	callq	___rust_dealloc
Ltmp262:
LBB14_45:
	.loc	3 184 1
	testq	%rbx, %rbx
Ltmp263:
	je	LBB14_48
Ltmp264:
	testq	%r13, %r13
	je	LBB14_48
Ltmp265:
	.loc	6 102 14
	movl	$1, %edx
	movq	%rbx, %rdi
	movq	%r13, %rsi
	callq	___rust_dealloc
Ltmp266:
LBB14_48:
Ltmp186:
	.loc	1 1463 32
	movq	%r15, %rdi
	movq	%r12, %rsi
	callq	__ZN112_$LT$alloc..collections..btree..map..IntoIter$LT$K$C$V$GT$$u20$as$u20$core..iter..traits..iterator..Iterator$GT$4next17h82898677e3685b75E
Ltmp187:
Ltmp267:
	.loc	1 1463 19 is_stmt 0
	movq	-160(%rbp), %rdi
	testq	%rdi, %rdi
	jne	LBB14_42
Ltmp268:
LBB14_50:
	.loc	3 703 9 is_stmt 1
	movq	-104(%rbp), %rdi
Ltmp269:
	.loc	1 1470 20
	testq	%rdi, %rdi
	je	LBB14_27
Ltmp270:
	.loc	3 703 9
	movq	-112(%rbp), %rbx
Ltmp271:
	.loc	3 0 9 is_stmt 0
	movl	$544, %r15d
Ltmp272:
	.p2align	4, 0x90
LBB14_52:
	.loc	4 350 30 is_stmt 1
	movq	(%rdi), %r12
Ltmp273:
	.loc	4 404 20
	testq	%rbx, %rbx
Ltmp274:
	.loc	4 351 16
	leaq	1(%rbx), %rbx
Ltmp275:
	.loc	4 404 17
	movl	$640, %esi
Ltmp276:
	cmoveq	%r15, %rsi
Ltmp277:
	.loc	6 102 14
	movl	$8, %edx
	callq	___rust_dealloc
Ltmp278:
	.loc	6 0 14 is_stmt 0
	movq	%r12, %rdi
Ltmp279:
	.loc	4 351 16 is_stmt 1
	testq	%r12, %r12
Ltmp280:
	.loc	1 1474 27
	jne	LBB14_52
Ltmp281:
LBB14_27:
	.loc	3 184 1
	movq	96(%r14), %rax
	testq	%rax, %rax
	je	LBB14_30
Ltmp282:
	.loc	13 814 13
	movb	$0, (%rax)
Ltmp283:
	.loc	3 184 1
	movq	104(%r14), %rsi
Ltmp284:
	.loc	6 185 12
	testq	%rsi, %rsi
Ltmp285:
	.loc	6 185 9 is_stmt 0
	je	LBB14_30
Ltmp286:
	.loc	3 184 1 is_stmt 1
	movq	96(%r14), %rdi
Ltmp287:
	.loc	6 102 14
	movl	$1, %edx
	callq	___rust_dealloc
Ltmp288:
LBB14_30:
	.loc	3 184 1
	leaq	112(%r14), %rdi
Ltmp189:
	callq	__ZN4core3ptr13drop_in_place17ha3ff4437b4406a85E
Ltmp190:
Ltmp289:
	.loc	3 184 1 is_stmt 0
	cmpl	$3, 152(%r14)
	jne	LBB14_23
Ltmp290:
	.loc	3 184 1
	leaq	156(%r14), %rdi
Ltmp192:
Ltmp291:
	.loc	3 184 1
	callq	__ZN70_$LT$std..sys..unix..fd..FileDesc$u20$as$u20$core..ops..drop..Drop$GT$4drop17h633394f1cf9da1c8E
Ltmp292:
Ltmp193:
LBB14_23:
	.loc	3 184 1
	cmpl	$3, 160(%r14)
	jne	LBB14_21
Ltmp293:
	.loc	3 184 1
	leaq	164(%r14), %rdi
Ltmp195:
Ltmp294:
	.loc	3 184 1
	callq	__ZN70_$LT$std..sys..unix..fd..FileDesc$u20$as$u20$core..ops..drop..Drop$GT$4drop17h633394f1cf9da1c8E
Ltmp295:
Ltmp196:
LBB14_21:
	.loc	3 184 1
	cmpl	$3, 168(%r14)
	jne	LBB14_59
Ltmp296:
	.loc	3 184 1
	addq	$172, %r14
Ltmp297:
	.loc	3 184 1
	movq	%r14, %rdi
	addq	$120, %rsp
	popq	%rbx
	popq	%r12
	popq	%r13
	popq	%r14
Ltmp298:
	popq	%r15
	popq	%rbp
	jmp	__ZN70_$LT$std..sys..unix..fd..FileDesc$u20$as$u20$core..ops..drop..Drop$GT$4drop17h633394f1cf9da1c8E
Ltmp299:
LBB14_59:
	.loc	3 184 1
	addq	$120, %rsp
	popq	%rbx
	popq	%r12
	popq	%r13
	popq	%r14
Ltmp300:
	popq	%r15
	popq	%rbp
	retq
LBB14_33:
Ltmp301:
	.loc	8 19 38 is_stmt 1
	leaq	l___unnamed_9(%rip), %rax
Ltmp302:
	movq	%rax, -160(%rbp)
	leaq	__ZN44_$LT$$RF$T$u20$as$u20$core..fmt..Display$GT$3fmt17hebb227c064e15923E(%rip), %rax
	movq	%rax, -152(%rbp)
Ltmp303:
	.loc	9 328 9
	leaq	l___unnamed_10(%rip), %rax
Ltmp304:
	movq	%rax, -112(%rbp)
	movq	$1, -104(%rbp)
	movq	$0, -96(%rbp)
	leaq	-160(%rbp), %rax
Ltmp305:
	movq	%rax, -80(%rbp)
	movq	$1, -72(%rbp)
Ltmp306:
Ltmp181:
	.loc	8 19 9
	leaq	l___unnamed_11(%rip), %rsi
	leaq	-112(%rbp), %rdi
Ltmp307:
	callq	__ZN4core9panicking9panic_fmt17hfce5b7173905fc53E
Ltmp308:
Ltmp182:
	ud2
Ltmp309:
LBB14_58:
Ltmp197:
	.loc	8 0 9 is_stmt 0
	movq	%rax, %rbx
	jmp	LBB14_20
Ltmp310:
LBB14_18:
Ltmp194:
	movq	%rax, %rbx
	jmp	LBB14_19
Ltmp311:
LBB14_54:
Ltmp185:
	jmp	LBB14_55
Ltmp312:
LBB14_57:
Ltmp191:
	movq	%rax, %rbx
	jmp	LBB14_56
Ltmp313:
LBB14_53:
Ltmp188:
LBB14_55:
	movq	%rax, %rbx
	.loc	3 184 1 is_stmt 1
	leaq	96(%r14), %rdi
	callq	__ZN4core3ptr13drop_in_place17h3d203cc4000e0422E
	leaq	112(%r14), %rdi
	callq	__ZN4core3ptr13drop_in_place17ha3ff4437b4406a85E
Ltmp314:
LBB14_56:
	leaq	152(%r14), %rdi
	callq	__ZN4core3ptr13drop_in_place17h7b138e107645a720E
Ltmp315:
LBB14_19:
	leaq	160(%r14), %rdi
	callq	__ZN4core3ptr13drop_in_place17h7b138e107645a720E
Ltmp316:
LBB14_20:
	addq	$168, %r14
Ltmp317:
	movq	%r14, %rdi
	callq	__ZN4core3ptr13drop_in_place17h7b138e107645a720E
	movq	%rbx, %rdi
	callq	__Unwind_Resume
	ud2
Ltmp318:
Lfunc_end14:
	.cfi_endproc
	.file	14 "/rustc/6c8927b0cf80ceee19386026cf9d7fd4fd9d486f/src/libcore/mem/mod.rs"
	.section	__TEXT,__gcc_except_tab
	.p2align	2
GCC_except_table14:
Lexception2:
	.byte	255
	.byte	255
	.byte	1
	.uleb128 Lcst_end2-Lcst_begin2
Lcst_begin2:
	.uleb128 Ltmp183-Lfunc_begin14
	.uleb128 Ltmp184-Ltmp183
	.uleb128 Ltmp185-Lfunc_begin14
	.byte	0
	.uleb128 Ltmp186-Lfunc_begin14
	.uleb128 Ltmp187-Ltmp186
	.uleb128 Ltmp188-Lfunc_begin14
	.byte	0
	.uleb128 Ltmp189-Lfunc_begin14
	.uleb128 Ltmp190-Ltmp189
	.uleb128 Ltmp191-Lfunc_begin14
	.byte	0
	.uleb128 Ltmp192-Lfunc_begin14
	.uleb128 Ltmp193-Ltmp192
	.uleb128 Ltmp194-Lfunc_begin14
	.byte	0
	.uleb128 Ltmp195-Lfunc_begin14
	.uleb128 Ltmp196-Ltmp195
	.uleb128 Ltmp197-Lfunc_begin14
	.byte	0
	.uleb128 Ltmp196-Lfunc_begin14
	.uleb128 Ltmp181-Ltmp196
	.byte	0
	.byte	0
	.uleb128 Ltmp181-Lfunc_begin14
	.uleb128 Ltmp182-Ltmp181
	.uleb128 Ltmp185-Lfunc_begin14
	.byte	0
	.uleb128 Ltmp182-Lfunc_begin14
	.uleb128 Lfunc_end14-Ltmp182
	.byte	0
	.byte	0
Lcst_end2:
	.p2align	2

	.section	__TEXT,__text,regular,pure_instructions
	.p2align	4, 0x90
__ZN4core3ptr13drop_in_place17he2a2dfd7733bb68aE:
Lfunc_begin15:
	.loc	3 184 0
	.cfi_startproc
	pushq	%rbp
	.cfi_def_cfa_offset 16
	.cfi_offset %rbp, -16
	movq	%rsp, %rbp
	.cfi_def_cfa_register %rbp
Ltmp319:
	.loc	3 184 1 prologue_end
	cmpq	$0, (%rdi)
Ltmp320:
	.loc	3 0 0 is_stmt 0
	movq	8(%rdi), %rax
	testq	%rax, %rax
	je	LBB15_2
Ltmp321:
	movq	16(%rdi), %rsi
	testq	%rsi, %rsi
	je	LBB15_2
Ltmp322:
	movl	$1, %edx
	movq	%rax, %rdi
Ltmp323:
	popq	%rbp
	jmp	___rust_dealloc
Ltmp324:
LBB15_2:
	.loc	3 184 1
	popq	%rbp
	retq
Ltmp325:
Lfunc_end15:
	.cfi_endproc

	.p2align	4, 0x90
__ZN4core3ptr13drop_in_place17he39f68c165002fb3E:
Lfunc_begin16:
	.loc	3 184 0 is_stmt 1
	.cfi_startproc
	.cfi_personality 155, _rust_eh_personality
	.cfi_lsda 16, Lexception3
	pushq	%rbp
	.cfi_def_cfa_offset 16
	.cfi_offset %rbp, -16
	movq	%rsp, %rbp
	.cfi_def_cfa_register %rbp
Ltmp329:
	pushq	%r15
	pushq	%r14
	pushq	%rbx
	pushq	%rax
	.cfi_offset %rbx, -40
	.cfi_offset %r14, -32
	.cfi_offset %r15, -24
	.loc	3 184 1 prologue_end
	cmpb	$2, (%rdi)
	jae	LBB16_1
Ltmp330:
	.loc	3 184 1 is_stmt 0
	addq	$8, %rsp
	popq	%rbx
	popq	%r14
	popq	%r15
	popq	%rbp
	retq
Ltmp331:
LBB16_1:
	.loc	3 0 1
	movq	%rdi, %r15
Ltmp332:
	.loc	3 184 1
	movq	8(%rdi), %rbx
Ltmp333:
	.loc	3 184 1
	movq	(%rbx), %rdi
	movq	8(%rbx), %rax
Ltmp326:
	callq	*(%rax)
Ltmp327:
Ltmp334:
	movq	8(%rbx), %rax
Ltmp335:
	.loc	6 292 20 is_stmt 1
	movq	8(%rax), %rsi
Ltmp336:
	.loc	6 185 12
	testq	%rsi, %rsi
	.loc	6 185 9 is_stmt 0
	je	LBB16_4
Ltmp337:
	.loc	3 184 1 is_stmt 1
	movq	(%rbx), %rdi
Ltmp338:
	.loc	6 293 21
	movq	16(%rax), %rdx
Ltmp339:
	.loc	6 102 14
	callq	___rust_dealloc
Ltmp340:
LBB16_4:
	.loc	3 184 1
	movq	8(%r15), %rdi
Ltmp341:
	.loc	6 102 14
	movl	$24, %esi
	movl	$8, %edx
	addq	$8, %rsp
	popq	%rbx
	popq	%r14
	popq	%r15
Ltmp342:
	popq	%rbp
	jmp	___rust_dealloc
Ltmp343:
LBB16_6:
Ltmp328:
	.loc	6 0 14 is_stmt 0
	movq	%rax, %r14
Ltmp344:
	.loc	3 184 1 is_stmt 1
	movq	(%rbx), %rdi
	movq	8(%rbx), %rsi
	callq	__ZN5alloc5alloc8box_free17h0da1a354cf448b26E
Ltmp345:
	.loc	3 184 1 is_stmt 0
	movq	8(%r15), %rdi
	callq	__ZN5alloc5alloc8box_free17h2c9ad1cf169efbcfE
	movq	%r14, %rdi
	callq	__Unwind_Resume
	ud2
Ltmp346:
Lfunc_end16:
	.cfi_endproc
	.section	__TEXT,__gcc_except_tab
	.p2align	2
GCC_except_table16:
Lexception3:
	.byte	255
	.byte	255
	.byte	1
	.uleb128 Lcst_end3-Lcst_begin3
Lcst_begin3:
	.uleb128 Ltmp326-Lfunc_begin16
	.uleb128 Ltmp327-Ltmp326
	.uleb128 Ltmp328-Lfunc_begin16
	.byte	0
	.uleb128 Ltmp327-Lfunc_begin16
	.uleb128 Lfunc_end16-Ltmp327
	.byte	0
	.byte	0
Lcst_end3:
	.p2align	2

	.section	__TEXT,__text,regular,pure_instructions
	.p2align	4, 0x90
__ZN4core3ptr13drop_in_place17he82c965c71130a31E:
Lfunc_begin17:
	.loc	3 184 0 is_stmt 1
	.cfi_startproc
	pushq	%rbp
	.cfi_def_cfa_offset 16
	.cfi_offset %rbp, -16
	movq	%rsp, %rbp
	.cfi_def_cfa_register %rbp
	movq	%rdi, %rax
Ltmp347:
	.loc	3 184 1 prologue_end
	movq	(%rdi), %rdi
Ltmp348:
	.loc	12 507 16
	testq	%rdi, %rdi
Ltmp349:
	.loc	12 235 9
	je	LBB17_2
Ltmp350:
	.loc	3 0 0 is_stmt 0
	movq	8(%rax), %rsi
Ltmp351:
	.loc	12 235 9
	testq	%rsi, %rsi
	je	LBB17_2
Ltmp352:
	.loc	6 102 14 is_stmt 1
	movl	$1, %edx
	popq	%rbp
	jmp	___rust_dealloc
Ltmp353:
LBB17_2:
	.loc	3 184 1
	popq	%rbp
	retq
Ltmp354:
Lfunc_end17:
	.cfi_endproc

	.p2align	4, 0x90
__ZN4core3ptr13drop_in_place17he8f096e9cebc8128E:
Lfunc_begin18:
	.loc	3 184 0
	.cfi_startproc
	pushq	%rbp
	.cfi_def_cfa_offset 16
	.cfi_offset %rbp, -16
	movq	%rsp, %rbp
	.cfi_def_cfa_register %rbp
	pushq	%r15
	pushq	%r14
	pushq	%rbx
	pushq	%rax
	.cfi_offset %rbx, -40
	.cfi_offset %r14, -32
	.cfi_offset %r15, -24
	movq	%rdi, %r14
Ltmp355:
	.loc	10 854 19 prologue_end
	movq	(%rdi), %rbx
Ltmp356:
	.loc	10 2421 81
	movq	16(%rdi), %rax
Ltmp357:
	.loc	3 184 1
	testq	%rax, %rax
	je	LBB18_7
Ltmp358:
	leaq	(%rax,%rax,2), %rax
Ltmp359:
	leaq	(%rbx,%rax,8), %r15
	jmp	LBB18_2
Ltmp360:
	.p2align	4, 0x90
LBB18_5:
	addq	$24, %rbx
	cmpq	%r15, %rbx
	je	LBB18_6
Ltmp361:
LBB18_2:
	.loc	3 184 1 is_stmt 0
	movq	(%rbx), %rdi
Ltmp362:
	.loc	12 507 16 is_stmt 1
	testq	%rdi, %rdi
Ltmp363:
	.loc	12 235 9
	je	LBB18_5
Ltmp364:
	.loc	3 0 0 is_stmt 0
	movq	8(%rbx), %rsi
Ltmp365:
	.loc	12 235 9
	testq	%rsi, %rsi
	je	LBB18_5
Ltmp366:
	.loc	6 102 14 is_stmt 1
	movl	$1, %edx
	callq	___rust_dealloc
Ltmp367:
	.loc	6 0 14 is_stmt 0
	jmp	LBB18_5
Ltmp368:
LBB18_6:
	.loc	3 184 1 is_stmt 1
	movq	(%r14), %rbx
Ltmp369:
LBB18_7:
	movq	8(%r14), %rax
Ltmp370:
	.loc	12 235 40
	testq	%rax, %rax
	.loc	12 235 9 is_stmt 0
	je	LBB18_10
Ltmp371:
	.loc	12 507 16 is_stmt 1
	testq	%rbx, %rbx
Ltmp372:
	je	LBB18_10
Ltmp373:
	.loc	12 0 0 is_stmt 0
	shlq	$3, %rax
	leaq	(%rax,%rax,2), %rsi
Ltmp374:
	.loc	12 507 16
	testq	%rsi, %rsi
	je	LBB18_10
Ltmp375:
	.loc	6 102 14 is_stmt 1
	movl	$8, %edx
	movq	%rbx, %rdi
	addq	$8, %rsp
	popq	%rbx
Ltmp376:
	popq	%r14
Ltmp377:
	popq	%r15
	popq	%rbp
	jmp	___rust_dealloc
Ltmp378:
LBB18_10:
	.loc	3 184 1
	addq	$8, %rsp
	popq	%rbx
	popq	%r14
Ltmp379:
	popq	%r15
	popq	%rbp
	retq
Ltmp380:
Lfunc_end18:
	.cfi_endproc

	.p2align	4, 0x90
__ZN4core3str21_$LT$impl$u20$str$GT$12trim_matches17habb817b8438e8d69E:
Lfunc_begin19:
	.file	15 "/rustc/6c8927b0cf80ceee19386026cf9d7fd4fd9d486f/src/libcore/str/mod.rs"
	.loc	15 3978 0
	.cfi_startproc
	pushq	%rbp
	.cfi_def_cfa_offset 16
	.cfi_offset %rbp, -16
	movq	%rsp, %rbp
	.cfi_def_cfa_register %rbp
	pushq	%r15
	pushq	%r14
	pushq	%r12
	pushq	%rbx
	.cfi_offset %rbx, -48
	.cfi_offset %r12, -40
	.cfi_offset %r14, -32
	.cfi_offset %r15, -24
Ltmp381:
	movq	%rdi, %rax
Ltmp382:
	.file	16 "/rustc/6c8927b0cf80ceee19386026cf9d7fd4fd9d486f/src/libcore/ptr/const_ptr.rs"
	.loc	16 0 0 prologue_end
	leaq	(%rdi,%rsi), %r9
	xorl	%edi, %edi
	jmp	LBB19_4
Ltmp383:
LBB19_1:
	shll	$6, %ebx
Ltmp384:
LBB19_2:
	orl	%ebx, %edi
Ltmp385:
	movl	%edi, %edx
Ltmp386:
LBB19_3:
	.file	17 "/rustc/6c8927b0cf80ceee19386026cf9d7fd4fd9d486f/src/libcore/str/pattern.rs"
	.loc	17 392 28
	movq	%r8, %rdi
	subq	%rcx, %rdi
	.loc	17 392 13 is_stmt 0
	addq	%r10, %rdi
Ltmp387:
	.loc	17 0 13
	movq	%rdi, %r10
Ltmp388:
	.loc	17 393 16 is_stmt 1
	cmpl	$34, %edx
	jne	LBB19_20
Ltmp389:
LBB19_4:
	.file	18 "/rustc/6c8927b0cf80ceee19386026cf9d7fd4fd9d486f/src/libcore/slice/mod.rs"
	.loc	18 3440 9
	cmpq	%rsi, %rdi
	.loc	18 3570 21
	je	LBB19_18
Ltmp390:
	.loc	15 0 0 is_stmt 0
	movq	%rdi, %r8
Ltmp391:
	leaq	(%rax,%rdi), %rcx
Ltmp392:
	.file	19 "/rustc/6c8927b0cf80ceee19386026cf9d7fd4fd9d486f/src/libcore/ptr/mut_ptr.rs"
	.loc	19 165 18 is_stmt 1
	leaq	1(%rcx), %r10
Ltmp393:
	.loc	15 519 13
	movzbl	(%rcx), %edx
Ltmp394:
	.loc	15 520 8
	testb	%dl, %dl
	.loc	15 520 5 is_stmt 0
	jns	LBB19_3
Ltmp395:
	.loc	18 3440 9 is_stmt 1
	cmpq	%r9, %r10
Ltmp396:
	.loc	18 3570 21
	je	LBB19_8
Ltmp397:
	.loc	19 165 18
	leaq	2(%rcx), %r10
Ltmp398:
	.loc	15 508 15
	movzbl	1(%rcx), %edi
	.loc	15 507 5
	andl	$63, %edi
	movq	%r10, %r11
	movl	%edx, %ebx
	andl	$31, %ebx
Ltmp399:
	.loc	15 530 8
	cmpb	$-33, %dl
	.loc	15 530 5 is_stmt 0
	jbe	LBB19_1
	jmp	LBB19_9
Ltmp400:
LBB19_8:
	.loc	15 0 5
	xorl	%edi, %edi
	movq	%r9, %r11
	movl	%edx, %ebx
	andl	$31, %ebx
Ltmp401:
	.loc	15 530 8
	cmpb	$-33, %dl
	.loc	15 530 5
	jbe	LBB19_1
Ltmp402:
LBB19_9:
	.loc	18 3440 9 is_stmt 1
	cmpq	%r9, %r11
	.loc	18 3570 21
	je	LBB19_13
Ltmp403:
	.loc	15 508 15
	movzbl	(%r11), %r14d
Ltmp404:
	.loc	19 165 18
	incq	%r11
Ltmp405:
	.loc	15 507 5
	andl	$63, %r14d
Ltmp406:
	.loc	15 0 0 is_stmt 0
	movq	%r11, %r10
Ltmp407:
	.loc	15 495 5 is_stmt 1
	shll	$6, %edi
Ltmp408:
	orl	%r14d, %edi
Ltmp409:
	.loc	15 536 12
	cmpb	$-16, %dl
	.loc	15 536 9 is_stmt 0
	jb	LBB19_14
Ltmp410:
LBB19_11:
	.loc	18 3440 9 is_stmt 1
	cmpq	%r9, %r11
	.loc	18 3570 21
	je	LBB19_15
Ltmp411:
	.loc	15 508 15
	movzbl	(%r11), %edx
Ltmp412:
	.loc	19 165 18
	incq	%r11
Ltmp413:
	.loc	15 507 5
	andl	$63, %edx
Ltmp414:
	.loc	15 0 0 is_stmt 0
	movq	%r11, %r10
Ltmp415:
	jmp	LBB19_16
Ltmp416:
LBB19_13:
	xorl	%r14d, %r14d
	movq	%r9, %r11
Ltmp417:
	.loc	15 495 5 is_stmt 1
	shll	$6, %edi
Ltmp418:
	orl	%r14d, %edi
Ltmp419:
	.loc	15 536 12
	cmpb	$-16, %dl
	.loc	15 536 9 is_stmt 0
	jae	LBB19_11
Ltmp420:
LBB19_14:
	.loc	15 0 9
	shll	$12, %ebx
Ltmp421:
	jmp	LBB19_2
Ltmp422:
LBB19_15:
	xorl	%edx, %edx
Ltmp423:
LBB19_16:
	.loc	15 540 18 is_stmt 1
	andl	$7, %ebx
Ltmp424:
	shll	$18, %ebx
Ltmp425:
	.loc	15 495 5
	shll	$6, %edi
Ltmp426:
	orl	%ebx, %edi
Ltmp427:
	.loc	15 540 13
	orl	%edx, %edi
Ltmp428:
	.loc	15 0 13 is_stmt 0
	movl	%edi, %edx
Ltmp429:
	.loc	17 389 16 is_stmt 1
	cmpl	$1114112, %edi
Ltmp430:
	jne	LBB19_3
Ltmp431:
	.loc	17 0 16 is_stmt 0
	xorl	%edi, %edi
	movq	%r8, %r10
Ltmp432:
	jmp	LBB19_19
Ltmp433:
LBB19_18:
	xorl	%edi, %edi
Ltmp434:
	movq	%rsi, %r10
Ltmp435:
LBB19_19:
	xorl	%r8d, %r8d
Ltmp436:
LBB19_20:
	leaq	(%rax,%r10), %r9
Ltmp437:
	jmp	LBB19_24
Ltmp438:
LBB19_21:
	xorl	%esi, %esi
Ltmp439:
LBB19_22:
	.loc	15 495 5 is_stmt 1
	shll	$6, %esi
Ltmp440:
	.loc	15 495 17 is_stmt 0
	andl	$63, %ecx
	.loc	15 495 5
	orl	%esi, %ecx
Ltmp441:
	.loc	17 456 16 is_stmt 1
	cmpl	$1114112, %ecx
Ltmp442:
	je	LBB19_39
Ltmp443:
LBB19_23:
	.loc	17 459 13
	movq	%rdx, %rsi
	subq	%r11, %rsi
	addq	%r12, %rsi
Ltmp444:
	.loc	17 460 16
	cmpl	$34, %ecx
	.loc	17 460 13 is_stmt 0
	jne	LBB19_40
Ltmp445:
LBB19_24:
	.loc	18 3440 9 is_stmt 1
	cmpq	%rsi, %r10
	.loc	18 3753 21
	je	LBB19_39
Ltmp446:
	.loc	17 0 0 is_stmt 0
	movq	%rsi, %rdx
Ltmp447:
	leaq	(%rax,%rsi), %r11
Ltmp448:
	.loc	16 164 18 is_stmt 1
	leaq	-1(%r11), %r12
Ltmp449:
	.loc	15 556 22
	movzbl	-1(%r11), %ecx
	testb	%cl, %cl
	jns	LBB19_23
Ltmp450:
	.loc	18 3440 9
	cmpq	%r12, %r9
Ltmp451:
	.loc	18 3753 21
	je	LBB19_21
Ltmp452:
	.loc	16 164 18
	leaq	-2(%r11), %r12
Ltmp453:
	.loc	15 508 15
	movzbl	-2(%r11), %esi
Ltmp454:
	.loc	15 502 5
	movl	%esi, %ebx
	andb	$-64, %bl
	cmpb	$-128, %bl
Ltmp455:
	.loc	15 565 5
	jne	LBB19_32
Ltmp456:
	.loc	18 3440 9
	cmpq	%r12, %r9
	.loc	18 3753 21
	je	LBB19_33
Ltmp457:
	.loc	16 164 18
	leaq	-3(%r11), %r12
Ltmp458:
	.loc	15 508 15
	movzbl	-3(%r11), %r14d
Ltmp459:
	.loc	15 502 5
	movl	%r14d, %ebx
	andb	$-64, %bl
	cmpb	$-128, %bl
Ltmp460:
	.loc	15 568 9
	jne	LBB19_34
Ltmp461:
	.loc	18 3440 9
	cmpq	%r12, %r9
	.loc	18 3753 21
	je	LBB19_35
Ltmp462:
	.loc	16 164 18
	leaq	-4(%r11), %r12
Ltmp463:
	.loc	15 508 15
	movzbl	-4(%r11), %r15d
	.loc	15 507 5
	andl	$7, %r15d
	shll	$6, %r15d
	jmp	LBB19_36
Ltmp464:
LBB19_32:
	.loc	15 0 5 is_stmt 0
	andl	$31, %esi
Ltmp465:
	jmp	LBB19_22
Ltmp466:
LBB19_33:
	xorl	%r14d, %r14d
	jmp	LBB19_37
Ltmp467:
LBB19_34:
	andl	$15, %r14d
Ltmp468:
	jmp	LBB19_37
Ltmp469:
LBB19_35:
	xorl	%r15d, %r15d
Ltmp470:
LBB19_36:
	.loc	15 495 17 is_stmt 1
	andl	$63, %r14d
Ltmp471:
	.loc	15 495 5 is_stmt 0
	orl	%r15d, %r14d
Ltmp472:
LBB19_37:
	.loc	15 495 5
	shll	$6, %r14d
Ltmp473:
	.loc	15 495 17
	andl	$63, %esi
Ltmp474:
	.loc	15 495 5
	orl	%r14d, %esi
Ltmp475:
	.loc	15 0 5
	jmp	LBB19_22
Ltmp476:
LBB19_39:
	movq	%rdi, %rdx
Ltmp477:
LBB19_40:
	.loc	16 164 18 is_stmt 1
	addq	%r8, %rax
Ltmp478:
	.loc	15 1912 23
	subq	%r8, %rdx
Ltmp479:
	.loc	15 3995 6
	popq	%rbx
	popq	%r12
	popq	%r14
	popq	%r15
	popq	%rbp
	retq
Ltmp480:
Lfunc_end19:
	.cfi_endproc

	.p2align	4, 0x90
__ZN4core3str22SplitInternal$LT$P$GT$4next17h08eee0d6a3d90690E:
Lfunc_begin20:
	.loc	15 1118 0
	.cfi_startproc
	pushq	%rbp
	.cfi_def_cfa_offset 16
	.cfi_offset %rbp, -16
	movq	%rsp, %rbp
	.cfi_def_cfa_register %rbp
Ltmp481:
	pushq	%r15
	pushq	%r14
	pushq	%r13
	pushq	%r12
	pushq	%rbx
	subq	$24, %rsp
	.cfi_offset %rbx, -56
	.cfi_offset %r12, -48
	.cfi_offset %r13, -40
	.cfi_offset %r14, -32
	.cfi_offset %r15, -24
	.loc	15 1119 12 prologue_end
	cmpb	$0, 65(%rdi)
	.loc	15 1119 9 is_stmt 0
	jne	LBB20_1
Ltmp482:
	.loc	15 0 9
	movq	%rdi, %r13
Ltmp483:
	.loc	17 406 54 is_stmt 1
	movq	32(%rdi), %rsi
	.loc	17 406 67 is_stmt 0
	movq	40(%rdi), %rax
Ltmp484:
	.loc	18 3132 12 is_stmt 1
	movq	%rax, %rdx
	subq	%rsi, %rdx
Ltmp485:
	.loc	17 406 84
	jb	LBB20_16
Ltmp486:
	cmpq	%rax, 24(%r13)
	jb	LBB20_16
Ltmp487:
	.loc	15 0 0 is_stmt 0
	movq	16(%r13), %rcx
Ltmp488:
	.loc	17 409 71 is_stmt 1
	movq	48(%r13), %rax
Ltmp489:
	.loc	17 0 71 is_stmt 0
	movq	%rcx, -56(%rbp)
Ltmp490:
	.loc	18 3132 12 is_stmt 1
	addq	%rcx, %rsi
Ltmp491:
	.loc	17 410 34
	movzbl	59(%rax,%r13), %edi
	callq	__ZN4core5slice6memchr6memchr17hd650620a8925ad84E
Ltmp492:
	.loc	17 410 20 is_stmt 0
	cmpq	$1, %rax
Ltmp493:
	jne	LBB20_15
Ltmp494:
	.loc	17 0 20
	leaq	60(%r13), %rax
	movq	%rax, -48(%rbp)
Ltmp495:
	.p2align	4, 0x90
LBB20_6:
	.loc	17 428 17 is_stmt 1
	movq	32(%r13), %rax
	.loc	17 429 35
	movq	48(%r13), %r15
	.loc	17 428 17
	leaq	1(%rdx,%rax), %rbx
	movq	%rbx, 32(%r13)
	.loc	17 429 20
	movq	%rbx, %r12
	subq	%r15, %r12
	.loc	17 429 17 is_stmt 0
	jae	LBB20_8
Ltmp496:
	.loc	17 406 25 is_stmt 1
	movq	24(%r13), %r14
	jmp	LBB20_12
Ltmp497:
	.p2align	4, 0x90
LBB20_8:
	.loc	17 431 42
	movq	24(%r13), %r14
Ltmp498:
	.loc	18 3132 37
	cmpq	%rbx, %r14
Ltmp499:
	.loc	17 431 28
	jb	LBB20_12
Ltmp500:
	.loc	18 3169 19
	cmpq	$5, %r15
Ltmp501:
	.loc	18 3169 16 is_stmt 0
	jae	LBB20_23
Ltmp502:
	.loc	18 0 16
	movq	16(%r13), %rdi
	addq	%r12, %rdi
Ltmp503:
	.loc	16 331 9 is_stmt 1
	cmpq	-48(%rbp), %rdi
Ltmp504:
	.loc	18 6271 9
	je	LBB20_21
Ltmp505:
	.loc	18 0 9 is_stmt 0
	movq	-48(%rbp), %rsi
Ltmp506:
	.loc	18 6276 13 is_stmt 1
	movq	%r15, %rdx
Ltmp507:
	callq	_memcmp
Ltmp508:
	testl	%eax, %eax
Ltmp509:
	.loc	17 432 25
	je	LBB20_21
Ltmp510:
LBB20_12:
	.loc	17 406 67
	movq	40(%r13), %rax
Ltmp511:
	.loc	18 3132 12
	movq	%rax, %rdx
	subq	%rbx, %rdx
Ltmp512:
	.loc	17 406 84
	jb	LBB20_16
Ltmp513:
	cmpq	%rax, %r14
	jb	LBB20_16
Ltmp514:
	.loc	18 3132 12
	addq	16(%r13), %rbx
Ltmp515:
	.loc	17 410 34
	movzbl	59(%r15,%r13), %edi
	movq	%rbx, %rsi
	callq	__ZN4core5slice6memchr6memchr17hd650620a8925ad84E
Ltmp516:
	.loc	17 410 20 is_stmt 0
	cmpq	$1, %rax
Ltmp517:
	je	LBB20_6
Ltmp518:
LBB20_15:
	.loc	17 439 31 is_stmt 1
	movq	40(%r13), %rax
	.loc	17 439 17 is_stmt 0
	movq	%rax, 32(%r13)
Ltmp519:
LBB20_16:
	.loc	15 1105 13 is_stmt 1
	cmpb	$0, 65(%r13)
	.loc	15 1105 12 is_stmt 0
	je	LBB20_17
Ltmp520:
LBB20_1:
	.loc	15 0 12
	xorl	%eax, %eax
LBB20_22:
	.loc	15 1133 6 is_stmt 1
	movq	%r12, %rdx
	addq	$24, %rsp
	popq	%rbx
	popq	%r12
	popq	%r13
	popq	%r14
	popq	%r15
	popq	%rbp
	retq
LBB20_17:
Ltmp521:
	.loc	15 1105 31
	cmpb	$0, 64(%r13)
	.loc	15 1105 30 is_stmt 0
	je	LBB20_19
Ltmp522:
	.loc	15 1109 68 is_stmt 1
	movq	(%r13), %rax
	.loc	15 1109 80 is_stmt 0
	movq	8(%r13), %r12
	jmp	LBB20_20
Ltmp523:
LBB20_19:
	.loc	15 1105 71 is_stmt 1
	movq	(%r13), %rax
	.loc	15 1105 60 is_stmt 0
	movq	8(%r13), %r12
	cmpq	%rax, %r12
	.loc	15 1105 12
	je	LBB20_1
Ltmp524:
LBB20_20:
	.loc	15 1106 13 is_stmt 1
	movb	$1, 65(%r13)
Ltmp525:
	.loc	15 1912 23
	subq	%rax, %r12
Ltmp526:
	.loc	16 164 18
	addq	16(%r13), %rax
Ltmp527:
	.loc	16 0 18 is_stmt 0
	jmp	LBB20_22
Ltmp528:
LBB20_21:
	.loc	15 1127 50 is_stmt 1
	movq	(%r13), %rcx
Ltmp529:
	.loc	15 0 50 is_stmt 0
	movq	-56(%rbp), %rax
Ltmp530:
	.loc	16 164 18 is_stmt 1
	addq	%rcx, %rax
Ltmp531:
	.loc	15 1912 23
	subq	%rcx, %r12
Ltmp532:
	.loc	15 1128 17
	movq	%rbx, (%r13)
	jmp	LBB20_22
Ltmp533:
LBB20_23:
	.loc	18 3170 13
	leaq	l___unnamed_12(%rip), %rdx
Ltmp534:
	movl	$4, %esi
	movq	%r15, %rdi
	callq	__ZN4core5slice24slice_end_index_len_fail17hea9e3399ed430f80E
Ltmp535:
Lfunc_end20:
	.cfi_endproc
	.file	20 "/rustc/6c8927b0cf80ceee19386026cf9d7fd4fd9d486f/src/libcore/cmp.rs"

	.p2align	4, 0x90
__ZN5alloc3vec12Vec$LT$T$GT$4push17hd6beb7a5192b9702E:
Lfunc_begin21:
	.loc	10 1201 0
	.cfi_startproc
	.cfi_personality 155, _rust_eh_personality
	.cfi_lsda 16, Lexception4
	pushq	%rbp
	.cfi_def_cfa_offset 16
	.cfi_offset %rbp, -16
	movq	%rsp, %rbp
	.cfi_def_cfa_register %rbp
	pushq	%r15
	pushq	%r14
	pushq	%rbx
	pushq	%rax
	.cfi_offset %rbx, -40
	.cfi_offset %r14, -32
	.cfi_offset %r15, -24
	movq	%rsi, %r14
	movq	%rdi, %rbx
Ltmp539:
	.loc	10 1204 12 prologue_end
	movq	16(%rdi), %rcx
	cmpq	8(%rdi), %rcx
	.loc	10 1204 9 is_stmt 0
	jne	LBB21_18
Ltmp540:
	.file	21 "/rustc/6c8927b0cf80ceee19386026cf9d7fd4fd9d486f/src/libcore/num/mod.rs"
	.loc	21 3751 30 is_stmt 1
	movq	%rcx, %rdx
	incq	%rdx
Ltmp541:
	.loc	2 538 13
	je	LBB21_19
Ltmp542:
	.loc	12 408 28
	leaq	(%rcx,%rcx), %rax
Ltmp543:
	.loc	20 1016 9
	cmpq	%rdx, %rax
	.loc	20 0 0 is_stmt 0
	cmovaq	%rax, %rdx
Ltmp544:
	cmpq	$4, %rdx
	movl	$4, %eax
Ltmp545:
	cmovaq	%rdx, %rax
	movl	$24, %edx
Ltmp546:
	.file	22 "/rustc/6c8927b0cf80ceee19386026cf9d7fd4fd9d486f/src/libcore/alloc/layout.rs"
	.loc	22 286 85 is_stmt 1
	xorl	%esi, %esi
Ltmp547:
	.loc	21 3807 26
	mulq	%rdx
Ltmp548:
	movq	%rax, %r15
Ltmp549:
	.loc	21 0 26 is_stmt 0
	seto	%dl
Ltmp550:
	.loc	22 286 85 is_stmt 1
	setno	%dil
Ltmp551:
	.loc	12 235 9
	movq	%rcx, %rax
	.loc	12 235 40 is_stmt 0
	testq	%rcx, %rcx
	.loc	12 235 9
	je	LBB21_4
Ltmp552:
	.loc	12 0 9
	movq	(%rbx), %rax
Ltmp553:
LBB21_4:
	.loc	7 611 13 is_stmt 1
	testb	%dl, %dl
	jne	LBB21_19
Ltmp554:
	.loc	12 493 25
	testq	%rax, %rax
	je	LBB21_6
Ltmp555:
	.loc	12 0 0 is_stmt 0
	leaq	(,%rcx,8), %rdx
	leaq	(%rdx,%rdx,2), %rsi
Ltmp556:
	.loc	6 205 12 is_stmt 1
	cmpq	%r15, %rsi
	.loc	6 205 9 is_stmt 0
	je	LBB21_15
Ltmp557:
	.loc	6 211 42 is_stmt 1
	testq	%rsi, %rsi
	je	LBB21_10
Ltmp558:
	.loc	6 124 14
	movl	$8, %edx
	movq	%rax, %rdi
	movq	%r15, %rcx
Ltmp559:
	callq	___rust_realloc
Ltmp560:
	.loc	6 0 14 is_stmt 0
	jmp	LBB21_15
Ltmp561:
LBB21_6:
	movb	%dil, %sil
	shlq	$3, %rsi
Ltmp562:
	.loc	6 170 16 is_stmt 1
	testq	%r15, %r15
	.loc	6 170 13 is_stmt 0
	jne	LBB21_13
Ltmp563:
	.loc	12 0 0
	movq	%rsi, %rax
Ltmp564:
	jmp	LBB21_15
Ltmp565:
LBB21_10:
	.loc	6 170 16
	testq	%r15, %r15
	.loc	6 170 13
	je	LBB21_11
Ltmp566:
	.loc	6 80 14 is_stmt 1
	movl	$8, %esi
Ltmp567:
LBB21_13:
	.loc	12 0 0 is_stmt 0
	movq	%r15, %rdi
	callq	___rust_alloc
Ltmp568:
LBB21_15:
	.loc	7 611 13 is_stmt 1
	testq	%rax, %rax
	je	LBB21_21
Ltmp569:
	.loc	10 1208 45
	movq	16(%rbx), %rcx
Ltmp570:
LBB21_17:
	.loc	12 382 9
	movq	%rax, (%rbx)
	movabsq	$-6148914691236517205, %rdx
Ltmp571:
	.loc	12 378 9
	movq	%r15, %rax
Ltmp572:
	mulq	%rdx
	shrq	$4, %rdx
Ltmp573:
	.loc	12 383 9
	movq	%rdx, 8(%rbx)
Ltmp574:
LBB21_18:
	.loc	10 854 19
	movq	(%rbx), %rax
Ltmp575:
	.loc	19 165 18
	leaq	(%rcx,%rcx,2), %rcx
Ltmp576:
	.loc	3 901 51
	movq	16(%r14), %rdx
	movq	%rdx, 16(%rax,%rcx,8)
	movq	(%r14), %rdx
	movq	8(%r14), %rsi
	movq	%rsi, 8(%rax,%rcx,8)
	movq	%rdx, (%rax,%rcx,8)
Ltmp577:
	.loc	10 1210 13
	incq	16(%rbx)
Ltmp578:
	.loc	10 1212 6
	addq	$8, %rsp
	popq	%rbx
Ltmp579:
	popq	%r14
Ltmp580:
	popq	%r15
	popq	%rbp
	retq
Ltmp581:
LBB21_11:
	.loc	10 0 6 is_stmt 0
	movl	$8, %eax
Ltmp582:
	jmp	LBB21_17
Ltmp583:
LBB21_19:
Ltmp536:
	.loc	12 301 38 is_stmt 1
	callq	__ZN5alloc7raw_vec17capacity_overflow17h7526b10e27579d59E
Ltmp584:
Ltmp537:
	ud2
Ltmp585:
LBB21_21:
	.loc	12 302 47
	movl	$8, %esi
	movq	%r15, %rdi
	callq	__ZN5alloc5alloc18handle_alloc_error17h28974197717b8939E
Ltmp586:
LBB21_22:
Ltmp538:
	.loc	12 0 47 is_stmt 0
	movq	%rax, %rbx
Ltmp587:
	.loc	10 1212 5 is_stmt 1
	movq	%r14, %rdi
	callq	__ZN4core3ptr13drop_in_place17he82c965c71130a31E
	movq	%rbx, %rdi
	callq	__Unwind_Resume
	ud2
Ltmp588:
Lfunc_end21:
	.cfi_endproc
	.section	__TEXT,__gcc_except_tab
	.p2align	2
GCC_except_table21:
Lexception4:
	.byte	255
	.byte	255
	.byte	1
	.uleb128 Lcst_end4-Lcst_begin4
Lcst_begin4:
	.uleb128 Ltmp536-Lfunc_begin21
	.uleb128 Ltmp537-Ltmp536
	.uleb128 Ltmp538-Lfunc_begin21
	.byte	0
	.uleb128 Ltmp537-Lfunc_begin21
	.uleb128 Lfunc_end21-Ltmp537
	.byte	0
	.byte	0
Lcst_end4:
	.p2align	2

	.section	__TEXT,__text,regular,pure_instructions
	.p2align	4, 0x90
__ZN5alloc5alloc8box_free17h0da1a354cf448b26E:
Lfunc_begin22:
	.loc	6 290 0
	.cfi_startproc
	pushq	%rbp
	.cfi_def_cfa_offset 16
	.cfi_offset %rbp, -16
	movq	%rsp, %rbp
	.cfi_def_cfa_register %rbp
	movq	%rsi, %rax
Ltmp589:
	.loc	6 292 20 prologue_end
	movq	8(%rsi), %rsi
Ltmp590:
	.loc	6 185 12
	testq	%rsi, %rsi
	.loc	6 185 9 is_stmt 0
	je	LBB22_1
Ltmp591:
	.loc	6 293 21 is_stmt 1
	movq	16(%rax), %rdx
Ltmp592:
	.loc	6 102 14
	popq	%rbp
	jmp	___rust_dealloc
Ltmp593:
LBB22_1:
	.loc	6 297 2
	popq	%rbp
	retq
Ltmp594:
Lfunc_end22:
	.cfi_endproc

	.p2align	4, 0x90
__ZN5alloc5alloc8box_free17h2c9ad1cf169efbcfE:
Lfunc_begin23:
	.loc	6 290 0
	.cfi_startproc
	pushq	%rbp
	.cfi_def_cfa_offset 16
	.cfi_offset %rbp, -16
	movq	%rsp, %rbp
	.cfi_def_cfa_register %rbp
Ltmp595:
	.loc	6 102 14 prologue_end
	movl	$24, %esi
	movl	$8, %edx
	popq	%rbp
	jmp	___rust_dealloc
Ltmp596:
Lfunc_end23:
	.cfi_endproc

	.p2align	4, 0x90
__ZN79_$LT$failure..error_message..ErrorMessage$LT$D$GT$$u20$as$u20$failure..Fail$GT$4name17h4e34c46f61cd3055E:
Lfunc_begin24:
	.file	23 "/Users/yingyuhang/.cargo/registry/src/github.com-1ecc6299db9ec823/failure-0.1.8/src/error_message.rs"
	.loc	23 23 0
	.cfi_startproc
	pushq	%rbp
	.cfi_def_cfa_offset 16
	.cfi_offset %rbp, -16
	movq	%rsp, %rbp
	.cfi_def_cfa_register %rbp
Ltmp597:
	.loc	23 25 6 prologue_end
	leaq	l___unnamed_13(%rip), %rax
	movl	$21, %edx
	popq	%rbp
	retq
Ltmp598:
Lfunc_end24:
	.cfi_endproc

	.p2align	4, 0x90
__ZN79_$LT$failure..error_message..ErrorMessage$LT$D$GT$$u20$as$u20$failure..Fail$GT$4name17he9ed986f8d2aff4dE:
Lfunc_begin25:
	.loc	23 23 0
	.cfi_startproc
	pushq	%rbp
	.cfi_def_cfa_offset 16
	.cfi_offset %rbp, -16
	movq	%rsp, %rbp
	.cfi_def_cfa_register %rbp
Ltmp599:
	.loc	23 25 6 prologue_end
	leaq	l___unnamed_13(%rip), %rax
	movl	$21, %edx
	popq	%rbp
	retq
Ltmp600:
Lfunc_end25:
	.cfi_endproc

	.p2align	4, 0x90
__ZN7failure4Fail23__private_get_type_id__17h1dbec71a040792cfE:
Lfunc_begin26:
	.file	24 "/Users/yingyuhang/.cargo/registry/src/github.com-1ecc6299db9ec823/failure-0.1.8/src/lib.rs"
	.loc	24 197 0
	.cfi_startproc
	pushq	%rbp
	.cfi_def_cfa_offset 16
	.cfi_offset %rbp, -16
	movq	%rsp, %rbp
	.cfi_def_cfa_register %rbp
	movabsq	$-8910176013177183633, %rax
Ltmp601:
	.loc	24 199 6 prologue_end
	popq	%rbp
	retq
Ltmp602:
Lfunc_end26:
	.cfi_endproc

	.p2align	4, 0x90
__ZN7failure4Fail23__private_get_type_id__17h5af2e84d0c8903c0E:
Lfunc_begin27:
	.loc	24 197 0
	.cfi_startproc
	pushq	%rbp
	.cfi_def_cfa_offset 16
	.cfi_offset %rbp, -16
	movq	%rsp, %rbp
	.cfi_def_cfa_register %rbp
	movabsq	$2424939054020624967, %rax
Ltmp603:
	.loc	24 199 6 prologue_end
	popq	%rbp
	retq
Ltmp604:
Lfunc_end27:
	.cfi_endproc

	.p2align	4, 0x90
__ZN7failure4Fail23__private_get_type_id__17ha0ae4bd60ace0843E:
Lfunc_begin28:
	.loc	24 197 0
	.cfi_startproc
	pushq	%rbp
	.cfi_def_cfa_offset 16
	.cfi_offset %rbp, -16
	movq	%rsp, %rbp
	.cfi_def_cfa_register %rbp
	movabsq	$7867320649926384921, %rax
Ltmp605:
	.loc	24 199 6 prologue_end
	popq	%rbp
	retq
Ltmp606:
Lfunc_end28:
	.cfi_endproc

	.p2align	4, 0x90
__ZN7failure4Fail23__private_get_type_id__17hbb178d564ee183c2E:
Lfunc_begin29:
	.loc	24 197 0
	.cfi_startproc
	pushq	%rbp
	.cfi_def_cfa_offset 16
	.cfi_offset %rbp, -16
	movq	%rsp, %rbp
	.cfi_def_cfa_register %rbp
	movabsq	$7508826005076360610, %rax
Ltmp607:
	.loc	24 199 6 prologue_end
	popq	%rbp
	retq
Ltmp608:
Lfunc_end29:
	.cfi_endproc

	.p2align	4, 0x90
__ZN7failure4Fail4name17ha421dd169a7a549bE:
Lfunc_begin30:
	.loc	24 115 0
	.cfi_startproc
	pushq	%rbp
	.cfi_def_cfa_offset 16
	.cfi_offset %rbp, -16
	movq	%rsp, %rbp
	.cfi_def_cfa_register %rbp
Ltmp609:
	.loc	24 117 6 prologue_end
	xorl	%eax, %eax
	popq	%rbp
	retq
Ltmp610:
Lfunc_end30:
	.cfi_endproc

	.p2align	4, 0x90
__ZN7failure4Fail4name17hc44096c0354d3f02E:
Lfunc_begin31:
	.loc	24 115 0
	.cfi_startproc
	pushq	%rbp
	.cfi_def_cfa_offset 16
	.cfi_offset %rbp, -16
	movq	%rsp, %rbp
	.cfi_def_cfa_register %rbp
Ltmp611:
	.loc	24 117 6 prologue_end
	xorl	%eax, %eax
	popq	%rbp
	retq
Ltmp612:
Lfunc_end31:
	.cfi_endproc

	.p2align	4, 0x90
__ZN7failure4Fail5cause17h6972816444f65438E:
Lfunc_begin32:
	.loc	24 129 0
	.cfi_startproc
	pushq	%rbp
	.cfi_def_cfa_offset 16
	.cfi_offset %rbp, -16
	movq	%rsp, %rbp
	.cfi_def_cfa_register %rbp
Ltmp613:
	.loc	24 131 6 prologue_end
	xorl	%eax, %eax
	popq	%rbp
	retq
Ltmp614:
Lfunc_end32:
	.cfi_endproc

	.p2align	4, 0x90
__ZN7failure4Fail9backtrace17h0eb10f885928b0f5E:
Lfunc_begin33:
	.loc	24 138 0
	.cfi_startproc
	pushq	%rbp
	.cfi_def_cfa_offset 16
	.cfi_offset %rbp, -16
	movq	%rsp, %rbp
	.cfi_def_cfa_register %rbp
Ltmp615:
	.loc	24 140 6 prologue_end
	xorl	%eax, %eax
	popq	%rbp
	retq
Ltmp616:
Lfunc_end33:
	.cfi_endproc

	.p2align	4, 0x90
__ZN7failure4Fail9backtrace17h59f7eb110fa8cfeaE:
Lfunc_begin34:
	.loc	24 138 0
	.cfi_startproc
	pushq	%rbp
	.cfi_def_cfa_offset 16
	.cfi_offset %rbp, -16
	movq	%rsp, %rbp
	.cfi_def_cfa_register %rbp
Ltmp617:
	.loc	24 140 6 prologue_end
	xorl	%eax, %eax
	popq	%rbp
	retq
Ltmp618:
Lfunc_end34:
	.cfi_endproc

	.p2align	4, 0x90
__ZN7failure4Fail9backtrace17h6a970857c9a03488E:
Lfunc_begin35:
	.loc	24 138 0
	.cfi_startproc
	pushq	%rbp
	.cfi_def_cfa_offset 16
	.cfi_offset %rbp, -16
	movq	%rsp, %rbp
	.cfi_def_cfa_register %rbp
Ltmp619:
	.loc	24 140 6 prologue_end
	xorl	%eax, %eax
	popq	%rbp
	retq
Ltmp620:
Lfunc_end35:
	.cfi_endproc

	.p2align	4, 0x90
__ZN82_$LT$failure..error_message..ErrorMessage$LT$D$GT$$u20$as$u20$core..fmt..Debug$GT$3fmt17h9f0aebc9f4727b3cE:
Lfunc_begin36:
	.loc	23 17 0
	.cfi_startproc
	pushq	%rbp
	.cfi_def_cfa_offset 16
	.cfi_offset %rbp, -16
	movq	%rsp, %rbp
	.cfi_def_cfa_register %rbp
	pushq	%r14
	pushq	%rbx
	subq	$32, %rsp
	.cfi_offset %rbx, -32
	.cfi_offset %r14, -24
	movq	%rdi, %rbx
Ltmp621:
	.loc	23 17 10 prologue_end
	leaq	l___unnamed_14(%rip), %rdx
	leaq	-40(%rbp), %r14
	movl	$12, %ecx
	movq	%r14, %rdi
	callq	__ZN4core3fmt9Formatter12debug_struct17ha1a64e91d2a98458E
Ltmp622:
	.loc	23 19 5
	movq	%rbx, -24(%rbp)
	.loc	23 17 10
	leaq	l___unnamed_15(%rip), %rsi
	leaq	l___unnamed_1(%rip), %r8
	leaq	-24(%rbp), %rcx
	movl	$3, %edx
	movq	%r14, %rdi
	callq	__ZN4core3fmt8builders11DebugStruct5field17h6c54d35ac41bb1e6E
	movq	%r14, %rdi
	callq	__ZN4core3fmt8builders11DebugStruct6finish17h67ed49fd5e81bb24E
Ltmp623:
	.loc	23 17 15 is_stmt 0
	addq	$32, %rsp
	popq	%rbx
Ltmp624:
	popq	%r14
	popq	%rbp
	retq
Ltmp625:
Lfunc_end36:
	.cfi_endproc

	.p2align	4, 0x90
__ZN82_$LT$failure..error_message..ErrorMessage$LT$D$GT$$u20$as$u20$core..fmt..Debug$GT$3fmt17hcfb3b7a6678096a9E:
Lfunc_begin37:
	.loc	23 17 0 is_stmt 1
	.cfi_startproc
	pushq	%rbp
	.cfi_def_cfa_offset 16
	.cfi_offset %rbp, -16
	movq	%rsp, %rbp
	.cfi_def_cfa_register %rbp
	pushq	%r14
	pushq	%rbx
	subq	$32, %rsp
	.cfi_offset %rbx, -32
	.cfi_offset %r14, -24
	movq	%rdi, %rbx
Ltmp626:
	.loc	23 17 10 prologue_end
	leaq	l___unnamed_14(%rip), %rdx
	leaq	-40(%rbp), %r14
	movl	$12, %ecx
	movq	%r14, %rdi
	callq	__ZN4core3fmt9Formatter12debug_struct17ha1a64e91d2a98458E
Ltmp627:
	.loc	23 19 5
	movq	%rbx, -24(%rbp)
	.loc	23 17 10
	leaq	l___unnamed_15(%rip), %rsi
	leaq	l___unnamed_2(%rip), %r8
	leaq	-24(%rbp), %rcx
	movl	$3, %edx
	movq	%r14, %rdi
	callq	__ZN4core3fmt8builders11DebugStruct5field17h6c54d35ac41bb1e6E
	movq	%r14, %rdi
	callq	__ZN4core3fmt8builders11DebugStruct6finish17h67ed49fd5e81bb24E
Ltmp628:
	.loc	23 17 15 is_stmt 0
	addq	$32, %rsp
	popq	%rbx
Ltmp629:
	popq	%r14
	popq	%rbp
	retq
Ltmp630:
Lfunc_end37:
	.cfi_endproc

	.p2align	4, 0x90
__ZN84_$LT$failure..error_message..ErrorMessage$LT$D$GT$$u20$as$u20$core..fmt..Display$GT$3fmt17h4b08893f195a7b7aE:
Lfunc_begin38:
	.loc	23 29 0 is_stmt 1
	.cfi_startproc
	pushq	%rbp
	.cfi_def_cfa_offset 16
	.cfi_offset %rbp, -16
	movq	%rsp, %rbp
	.cfi_def_cfa_register %rbp
	movq	%rsi, %rdx
Ltmp631:
	.loc	10 818 19 prologue_end
	movq	(%rdi), %rax
Ltmp632:
	.loc	10 1923 55
	movq	16(%rdi), %rsi
Ltmp633:
	.loc	11 1952 9
	movq	%rax, %rdi
Ltmp634:
	popq	%rbp
	jmp	__ZN42_$LT$str$u20$as$u20$core..fmt..Display$GT$3fmt17h6768afae62e94f93E
Ltmp635:
Lfunc_end38:
	.cfi_endproc

	.p2align	4, 0x90
__ZN84_$LT$failure..error_message..ErrorMessage$LT$D$GT$$u20$as$u20$core..fmt..Display$GT$3fmt17h57abf8eabbf0476eE:
Lfunc_begin39:
	.loc	23 29 0
	.cfi_startproc
	pushq	%rbp
	.cfi_def_cfa_offset 16
	.cfi_offset %rbp, -16
	movq	%rsp, %rbp
	.cfi_def_cfa_register %rbp
	movq	%rsi, %rdx
Ltmp636:
	.loc	9 2022 71 prologue_end
	movq	(%rdi), %rax
	movq	8(%rdi), %rsi
	.loc	9 2022 62 is_stmt 0
	movq	%rax, %rdi
Ltmp637:
	popq	%rbp
	jmp	__ZN42_$LT$str$u20$as$u20$core..fmt..Display$GT$3fmt17h6768afae62e94f93E
Ltmp638:
Lfunc_end39:
	.cfi_endproc

	.section	__TEXT,__literal16,16byte_literals
	.p2align	4
LCPI40_0:
	.byte	116
	.byte	97
	.byte	114
	.byte	103
	.byte	101
	.byte	116
	.byte	95
	.byte	104
	.byte	97
	.byte	115
	.byte	95
	.byte	97
	.byte	116
	.byte	111
	.byte	109
	.byte	105
LCPI40_1:
	.byte	105
	.byte	100
	.byte	116
	.byte	104
	.byte	0
	.byte	0
	.byte	0
	.byte	0
	.byte	0
	.byte	0
	.byte	0
	.byte	0
	.byte	0
	.byte	0
	.byte	0
	.byte	0
LCPI40_2:
	.byte	116
	.byte	97
	.byte	114
	.byte	103
	.byte	101
	.byte	116
	.byte	95
	.byte	112
	.byte	111
	.byte	105
	.byte	110
	.byte	116
	.byte	101
	.byte	114
	.byte	95
	.byte	119
	.section	__TEXT,__text,regular,pure_instructions
	.globl	__ZN9rustc_cfg3Cfg2of17h9311777c7bb93258E
	.p2align	4, 0x90
__ZN9rustc_cfg3Cfg2of17h9311777c7bb93258E:
Lfunc_begin40:
	.file	25 "/Users/yingyuhang/.cargo/registry/src/github.com-1ecc6299db9ec823/rustc-cfg-0.4.0/src/lib.rs"
	.loc	25 59 0 is_stmt 1
	.cfi_startproc
	.cfi_personality 155, _rust_eh_personality
	.cfi_lsda 16, Lexception5
	pushq	%rbp
	.cfi_def_cfa_offset 16
	.cfi_offset %rbp, -16
	movq	%rsp, %rbp
	.cfi_def_cfa_register %rbp
	pushq	%r15
	pushq	%r14
	pushq	%r13
	pushq	%r12
	pushq	%rbx
	subq	$1064, %rsp
	.cfi_offset %rbx, -56
	.cfi_offset %r12, -48
	.cfi_offset %r13, -40
	.cfi_offset %r14, -32
	.cfi_offset %r15, -24
	movq	%rdx, %r14
	movq	%rsi, %r15
	movq	%rdi, %r13
Ltmp712:
	.file	26 "/rustc/6c8927b0cf80ceee19386026cf9d7fd4fd9d486f/src/libstd/env.rs"
	.loc	26 212 5 prologue_end
	leaq	l___unnamed_16(%rip), %rsi
	leaq	-336(%rbp), %rdi
	movl	$5, %ebx
	movl	$5, %edx
	callq	__ZN3std3env4_var17h5f49b4c5e0582abcE
Ltmp713:
	.loc	7 519 13
	cmpq	$0, -336(%rbp)
Ltmp714:
	.loc	7 0 0 is_stmt 0
	leaq	-328(%rbp), %rax
Ltmp715:
	.loc	7 519 13
	cmoveq	-328(%rbp), %rax
Ltmp716:
	.loc	7 829 13 is_stmt 1
	cmoveq	-312(%rbp), %rbx
Ltmp717:
	.file	27 "/rustc/6c8927b0cf80ceee19386026cf9d7fd4fd9d486f/src/libstd/ffi/os_str.rs"
	.loc	27 531 20
	leaq	l___unnamed_17(%rip), %rsi
	cmoveq	%rax, %rsi
Ltmp718:
Ltmp639:
	.loc	27 0 20 is_stmt 0
	leaq	-856(%rbp), %rdi
Ltmp719:
	.file	28 "/rustc/6c8927b0cf80ceee19386026cf9d7fd4fd9d486f/src/libstd/process.rs"
	.loc	28 501 26 is_stmt 1
	movq	%rbx, %rdx
	callq	__ZN3std3sys4unix7process14process_common7Command3new17h6b51c4bb5fada643E
Ltmp720:
Ltmp640:
	.loc	28 0 26 is_stmt 0
	leaq	-544(%rbp), %rbx
Ltmp721:
	leaq	-856(%rbp), %rsi
	.loc	28 501 9
	movl	$184, %edx
	movq	%rbx, %rdi
	callq	_memcpy
Ltmp722:
Ltmp641:
	.loc	28 542 9 is_stmt 1
	leaq	L___unnamed_18(%rip), %rsi
Ltmp723:
	movl	$8, %edx
	movq	%rbx, %rdi
	callq	__ZN3std3sys4unix7process14process_common7Command3arg17he3b985033bebdb87E
Ltmp724:
Ltmp642:
Ltmp643:
	.loc	28 0 9 is_stmt 0
	leaq	-544(%rbp), %rdi
Ltmp725:
	.loc	28 542 9
	movq	%r15, %rsi
	movq	%r14, %rdx
	callq	__ZN3std3sys4unix7process14process_common7Command3arg17he3b985033bebdb87E
Ltmp644:
Ltmp726:
Ltmp645:
	.file	29 "/rustc/6c8927b0cf80ceee19386026cf9d7fd4fd9d486f/src/libcore/convert/mod.rs"
	.loc	29 514 9 is_stmt 1
	leaq	l___unnamed_19(%rip), %rdi
Ltmp727:
	movl	$7, %esi
	callq	__ZN95_$LT$std..ffi..os_str..OsStr$u20$as$u20$core..convert..AsRef$LT$std..ffi..os_str..OsStr$GT$$GT$6as_ref17h5081c729cb357be8E
Ltmp728:
Ltmp646:
Ltmp647:
	.loc	29 0 9 is_stmt 0
	leaq	-544(%rbp), %rdi
	.loc	28 542 9 is_stmt 1
	movq	%rax, %rsi
	callq	__ZN3std3sys4unix7process14process_common7Command3arg17he3b985033bebdb87E
Ltmp648:
Ltmp729:
Ltmp649:
	.loc	29 514 9
	leaq	l___unnamed_20(%rip), %rdi
Ltmp730:
	movl	$3, %esi
	callq	__ZN95_$LT$std..ffi..os_str..OsStr$u20$as$u20$core..convert..AsRef$LT$std..ffi..os_str..OsStr$GT$$GT$6as_ref17h5081c729cb357be8E
Ltmp731:
Ltmp650:
Ltmp651:
	.loc	29 0 9 is_stmt 0
	leaq	-544(%rbp), %rdi
	.loc	28 542 9 is_stmt 1
	movq	%rax, %rsi
	callq	__ZN3std3sys4unix7process14process_common7Command3arg17he3b985033bebdb87E
Ltmp652:
Ltmp732:
Ltmp653:
	.loc	28 0 9 is_stmt 0
	leaq	-856(%rbp), %rdi
	leaq	-544(%rbp), %rsi
	.loc	25 61 22 is_stmt 1
	callq	__ZN3std7process7Command6output17h21f406a1a0346edcE
Ltmp654:
Ltmp733:
	.loc	7 1576 9
	movq	-856(%rbp), %rax
	movq	-848(%rbp), %rcx
	movq	%rcx, -280(%rbp)
	movq	-840(%rbp), %rcx
	movq	%rcx, -272(%rbp)
	movq	-832(%rbp), %rcx
	movq	%rcx, -264(%rbp)
	movq	-824(%rbp), %rcx
	movq	%rcx, -256(%rbp)
	movq	-816(%rbp), %rcx
	movq	%rcx, -248(%rbp)
	movq	-808(%rbp), %rcx
	movq	%rcx, -240(%rbp)
	movq	-800(%rbp), %rcx
	movq	%rcx, -232(%rbp)
Ltmp734:
	.loc	25 65 22
	cmpq	$1, %rax
	jne	LBB40_14
Ltmp735:
	.file	30 "/Users/yingyuhang/.cargo/registry/src/github.com-1ecc6299db9ec823/failure-0.1.8/src/error/mod.rs"
	.loc	30 36 34
	movq	-280(%rbp), %rax
	movq	-272(%rbp), %rcx
	movq	%rcx, -664(%rbp)
	movq	%rax, -672(%rbp)
Ltmp703:
	leaq	-856(%rbp), %rdi
Ltmp736:
	.file	31 "/Users/yingyuhang/.cargo/registry/src/github.com-1ecc6299db9ec823/failure-0.1.8/src/error/error_impl.rs"
	.loc	31 19 17
	callq	__ZN7failure9backtrace9Backtrace3new17hd61c7fb783a02c44E
Ltmp704:
Ltmp737:
	.loc	31 21 30
	movq	-816(%rbp), %rax
	movq	%rax, -88(%rbp)
	movq	-824(%rbp), %r8
	movq	%r8, -96(%rbp)
	movq	-832(%rbp), %rcx
	movq	%rcx, -104(%rbp)
	movq	-840(%rbp), %rdx
	movq	%rdx, -112(%rbp)
	movq	-856(%rbp), %rsi
	movq	-848(%rbp), %rdi
	movq	%rdi, -120(%rbp)
	movq	%rsi, -128(%rbp)
	.loc	31 21 13 is_stmt 0
	movq	-672(%rbp), %rbx
	movq	-664(%rbp), %rax
	movq	%rbx, -80(%rbp)
	movq	%rax, -72(%rbp)
Ltmp738:
	.loc	31 23 37 is_stmt 1
	movq	%rax, -800(%rbp)
	movq	%rbx, -808(%rbp)
	movq	%r8, -824(%rbp)
	movq	%rcx, -832(%rbp)
	movq	%rdx, -840(%rbp)
	movq	%rdi, -848(%rbp)
	movq	%rsi, -856(%rbp)
	movq	-88(%rbp), %rax
	movq	%rax, -816(%rbp)
Ltmp739:
	.loc	6 80 14
	movl	$64, %edi
	movl	$8, %esi
	callq	___rust_alloc
Ltmp740:
	.loc	6 278 9
	testq	%rax, %rax
	je	LBB40_416
Ltmp741:
	.file	32 "/rustc/6c8927b0cf80ceee19386026cf9d7fd4fd9d486f/src/liballoc/boxed.rs"
	.loc	32 176 13
	movq	-800(%rbp), %rcx
	movq	%rcx, 56(%rax)
	movq	-808(%rbp), %rcx
	movq	%rcx, 48(%rax)
	movq	-816(%rbp), %rcx
	movq	%rcx, 40(%rax)
	movq	-824(%rbp), %rcx
	movq	%rcx, 32(%rax)
	movq	-832(%rbp), %rcx
	movq	%rcx, 24(%rax)
	movq	-840(%rbp), %rcx
	movq	%rcx, 16(%rax)
	movq	-856(%rbp), %rcx
	movq	-848(%rbp), %rdx
	movq	%rdx, 8(%rax)
	movq	%rcx, (%rax)
Ltmp742:
	.loc	7 1586 9
	movq	%rax, 8(%r13)
	leaq	l___unnamed_3(%rip), %rax
Ltmp743:
	movq	%rax, 16(%r13)
	movq	$1, (%r13)
Ltmp709:
	leaq	-544(%rbp), %rdi
Ltmp744:
	.loc	25 65 23
	callq	__ZN4core3ptr13drop_in_place17he21605652a4293c7E
Ltmp745:
Ltmp710:
	.loc	3 184 1
	cmpq	$0, -336(%rbp)
	.loc	3 0 0 is_stmt 0
	movq	-328(%rbp), %rdi
	testq	%rdi, %rdi
Ltmp746:
	je	LBB40_415
Ltmp747:
	movq	-320(%rbp), %rsi
Ltmp748:
	testq	%rsi, %rsi
Ltmp749:
	jne	LBB40_414
	jmp	LBB40_415
Ltmp750:
LBB40_14:
	.loc	25 61 22 is_stmt 1
	movq	-232(%rbp), %rax
	movq	%rax, -576(%rbp)
	movq	-240(%rbp), %rax
	movq	%rax, -584(%rbp)
	movq	-248(%rbp), %rax
	movq	%rax, -592(%rbp)
	movq	-256(%rbp), %rax
	movq	%rax, -600(%rbp)
	movq	-264(%rbp), %rax
	movq	%rax, -608(%rbp)
	movq	-280(%rbp), %rax
	movq	-272(%rbp), %rcx
	movq	%rcx, -616(%rbp)
	movq	%rax, -624(%rbp)
Ltmp656:
	leaq	-544(%rbp), %rdi
	.loc	25 65 23
	callq	__ZN4core3ptr13drop_in_place17he21605652a4293c7E
Ltmp657:
Ltmp751:
	.loc	3 184 1
	cmpq	$0, -336(%rbp)
	.loc	3 0 0 is_stmt 0
	movq	-328(%rbp), %rdi
	testq	%rdi, %rdi
Ltmp752:
	je	LBB40_18
Ltmp753:
	movq	-320(%rbp), %rsi
	testq	%rsi, %rsi
Ltmp754:
	je	LBB40_18
Ltmp755:
	movl	$1, %edx
	callq	___rust_dealloc
Ltmp756:
LBB40_18:
	.loc	25 67 13 is_stmt 1
	leaq	-576(%rbp), %rdi
Ltmp659:
	callq	__ZN3std7process10ExitStatus7success17h559bf3fd90f59916E
Ltmp660:
Ltmp757:
	.loc	25 67 9 is_stmt 0
	testb	%al, %al
	je	LBB40_26
Ltmp758:
	.loc	25 71 38 is_stmt 1
	movq	-608(%rbp), %rdx
	movq	%rdx, -112(%rbp)
	movq	-624(%rbp), %rsi
	movq	-616(%rbp), %rax
	movq	%rax, -120(%rbp)
	movq	%rsi, -128(%rbp)
Ltmp759:
Ltmp671:
	.loc	25 0 38 is_stmt 0
	leaq	-544(%rbp), %rdi
Ltmp760:
	.loc	11 480 15 is_stmt 1
	callq	__ZN4core3str9from_utf817hc7dfc8cc9345acf5E
Ltmp672:
Ltmp761:
	.loc	11 481 13
	cmpl	$1, -544(%rbp)
	jne	LBB40_31
Ltmp762:
	.loc	11 482 50
	movq	-112(%rbp), %rax
	movq	-128(%rbp), %rcx
	movq	-120(%rbp), %rdx
	.loc	11 482 27 is_stmt 0
	movq	-536(%rbp), %rsi
	movq	-528(%rbp), %rdi
	.loc	11 482 23
	movq	%rcx, -856(%rbp)
	movq	%rdx, -848(%rbp)
	movq	%rax, -840(%rbp)
Ltmp763:
	.loc	7 1576 9 is_stmt 1
	movq	%rdi, -248(%rbp)
	movq	%rsi, -256(%rbp)
	movq	%rax, -264(%rbp)
	movq	%rdx, -272(%rbp)
	movq	%rcx, -280(%rbp)
Ltmp764:
	.loc	30 36 34
	movq	-248(%rbp), %rax
	movq	%rax, -96(%rbp)
	movq	-256(%rbp), %rax
	movq	%rax, -104(%rbp)
	movq	-264(%rbp), %rax
	movq	%rax, -112(%rbp)
	movq	-280(%rbp), %rax
	movq	-272(%rbp), %rcx
	movq	%rcx, -120(%rbp)
	movq	%rax, -128(%rbp)
Ltmp700:
	leaq	-856(%rbp), %rdi
Ltmp765:
	.loc	31 19 17
	callq	__ZN7failure9backtrace9Backtrace3new17hd61c7fb783a02c44E
Ltmp701:
Ltmp766:
	.loc	31 21 30
	movq	-816(%rbp), %rax
	movq	%rax, -504(%rbp)
	movq	-824(%rbp), %rax
	movq	%rax, -512(%rbp)
	movq	-832(%rbp), %rax
	movq	%rax, -520(%rbp)
	movq	-840(%rbp), %rax
	movq	%rax, -528(%rbp)
	movq	-856(%rbp), %rax
	movq	-848(%rbp), %rcx
	movq	%rcx, -536(%rbp)
	movq	%rax, -544(%rbp)
	.loc	31 21 13 is_stmt 0
	movq	-128(%rbp), %rax
	movq	-120(%rbp), %rcx
	movq	%rax, -496(%rbp)
	movq	%rcx, -488(%rbp)
	movq	-112(%rbp), %rax
	movq	%rax, -480(%rbp)
	movq	-104(%rbp), %rax
	movq	%rax, -472(%rbp)
	movq	-96(%rbp), %rax
	movq	%rax, -464(%rbp)
	leaq	-856(%rbp), %rdi
	leaq	-544(%rbp), %rsi
Ltmp767:
	.loc	31 23 37 is_stmt 1
	movl	$11, %ecx
	rep;movsq (%rsi), %es:(%rdi)
Ltmp768:
	.loc	6 80 14
	movl	$88, %edi
	movl	$8, %esi
	callq	___rust_alloc
Ltmp769:
	.loc	6 278 9
	testq	%rax, %rax
	je	LBB40_419
Ltmp770:
	.loc	6 0 9 is_stmt 0
	leaq	-856(%rbp), %rsi
	.loc	32 176 13 is_stmt 1
	movl	$11, %ecx
	movq	%rax, %rdi
	rep;movsq (%rsi), %es:(%rdi)
Ltmp771:
	.loc	7 1586 9
	movq	%rax, 8(%r13)
	leaq	l___unnamed_6(%rip), %rax
Ltmp772:
	movq	%rax, 16(%r13)
	movq	$1, (%r13)
Ltmp773:
	.loc	3 184 1
	movq	-600(%rbp), %rdi
Ltmp774:
	.loc	12 507 16
	testq	%rdi, %rdi
Ltmp775:
	.loc	12 235 9
	jne	LBB40_413
	jmp	LBB40_415
Ltmp776:
LBB40_26:
	.loc	25 68 59
	movq	-584(%rbp), %rdx
	movq	%rdx, -112(%rbp)
	movq	-600(%rbp), %rsi
	movq	-592(%rbp), %rax
	movq	%rax, -120(%rbp)
	movq	%rsi, -128(%rbp)
Ltmp777:
Ltmp662:
	.loc	25 0 59 is_stmt 0
	leaq	-544(%rbp), %rdi
Ltmp778:
	.loc	11 480 15 is_stmt 1
	callq	__ZN4core3str9from_utf817hc7dfc8cc9345acf5E
Ltmp663:
Ltmp779:
	.loc	11 481 13
	cmpl	$1, -544(%rbp)
	jne	LBB40_201
Ltmp780:
	.loc	11 482 50
	movq	-112(%rbp), %rax
	movq	-128(%rbp), %rcx
	movq	-120(%rbp), %rdx
	.loc	11 482 27 is_stmt 0
	movq	-536(%rbp), %rsi
	movq	-528(%rbp), %rdi
	.loc	11 482 23
	movq	%rcx, -856(%rbp)
	movq	%rdx, -848(%rbp)
	movq	%rax, -840(%rbp)
Ltmp781:
	.loc	7 1576 9 is_stmt 1
	movq	%rdi, -248(%rbp)
	movq	%rsi, -256(%rbp)
	movq	%rax, -264(%rbp)
	movq	%rdx, -272(%rbp)
	movq	%rcx, -280(%rbp)
Ltmp782:
	.loc	30 36 34
	movq	-248(%rbp), %rax
	movq	%rax, -96(%rbp)
	movq	-256(%rbp), %rax
	movq	%rax, -104(%rbp)
	movq	-264(%rbp), %rax
	movq	%rax, -112(%rbp)
	movq	-280(%rbp), %rax
	movq	-272(%rbp), %rcx
	movq	%rcx, -120(%rbp)
	movq	%rax, -128(%rbp)
Ltmp668:
	leaq	-856(%rbp), %rdi
Ltmp783:
	.loc	31 19 17
	callq	__ZN7failure9backtrace9Backtrace3new17hd61c7fb783a02c44E
Ltmp669:
Ltmp784:
	.loc	31 21 30
	movq	-816(%rbp), %rax
	movq	%rax, -504(%rbp)
	movq	-824(%rbp), %rax
	movq	%rax, -512(%rbp)
	movq	-832(%rbp), %rax
	movq	%rax, -520(%rbp)
	movq	-840(%rbp), %rax
	movq	%rax, -528(%rbp)
	movq	-856(%rbp), %rax
	movq	-848(%rbp), %rcx
	movq	%rcx, -536(%rbp)
	movq	%rax, -544(%rbp)
	.loc	31 21 13 is_stmt 0
	movq	-128(%rbp), %rax
	movq	-120(%rbp), %rcx
	movq	%rax, -496(%rbp)
	movq	%rcx, -488(%rbp)
	movq	-112(%rbp), %rax
	movq	%rax, -480(%rbp)
	movq	-104(%rbp), %rax
	movq	%rax, -472(%rbp)
	movq	-96(%rbp), %rax
	movq	%rax, -464(%rbp)
	leaq	-856(%rbp), %rdi
	leaq	-544(%rbp), %rsi
Ltmp785:
	.loc	31 23 37 is_stmt 1
	movl	$11, %ecx
	rep;movsq (%rsi), %es:(%rdi)
Ltmp786:
	.loc	6 80 14
	movl	$88, %edi
	movl	$8, %esi
	callq	___rust_alloc
Ltmp787:
	.loc	6 278 9
	testq	%rax, %rax
	je	LBB40_419
Ltmp788:
	.loc	6 0 9 is_stmt 0
	movq	%rax, %rbx
	leaq	-856(%rbp), %rsi
	.loc	32 176 13 is_stmt 1
	movl	$11, %ecx
	movq	%rax, %rdi
	rep;movsq (%rsi), %es:(%rdi)
	leaq	l___unnamed_6(%rip), %rcx
Ltmp789:
	.loc	32 0 13 is_stmt 0
	jmp	LBB40_204
Ltmp790:
LBB40_31:
	movq	%r13, -936(%rbp)
Ltmp791:
	.loc	11 481 23 is_stmt 1
	movq	-112(%rbp), %rax
	movq	-128(%rbp), %rcx
	movq	-120(%rbp), %rdx
Ltmp792:
	.loc	7 1576 9
	movq	%rcx, -280(%rbp)
	movq	%rdx, -272(%rbp)
	movq	%rax, -264(%rbp)
Ltmp793:
	.loc	25 71 20
	movq	%rax, -208(%rbp)
	movq	%rdx, -216(%rbp)
	movq	%rcx, -224(%rbp)
Ltmp794:
	.loc	25 72 29
	movq	$0, -960(%rbp)
Ltmp795:
	.loc	25 73 33
	movq	$0, -880(%rbp)
Ltmp796:
	.loc	25 74 31
	movq	$0, -904(%rbp)
Ltmp797:
	.loc	25 75 33
	movq	$0, -648(%rbp)
Ltmp798:
	.loc	25 76 40
	movq	$0, -568(%rbp)
Ltmp799:
	.loc	25 77 30
	movq	$0, -304(%rbp)
Ltmp800:
	.loc	25 78 33
	movq	$0, -200(%rbp)
Ltmp801:
	.loc	10 323 9
	movq	$8, -152(%rbp)
	movq	$0, -144(%rbp)
	movq	$0, -136(%rbp)
Ltmp802:
	.loc	10 323 9 is_stmt 0
	movq	$8, -176(%rbp)
	movq	$0, -168(%rbp)
	movq	$0, -160(%rbp)
Ltmp803:
	.loc	10 818 19 is_stmt 1
	movq	-224(%rbp), %rax
Ltmp804:
	.loc	10 1923 55
	movq	-208(%rbp), %rcx
Ltmp805:
	.loc	25 82 22
	movq	$0, -544(%rbp)
	movq	%rcx, -536(%rbp)
	movq	%rax, -528(%rbp)
	movq	%rcx, -520(%rbp)
	movq	$0, -512(%rbp)
	movq	%rcx, -504(%rbp)
	movq	$1, -496(%rbp)
	movabsq	$42949672970, %rax
	movq	%rax, -488(%rbp)
	movw	$0, -480(%rbp)
	leaq	-544(%rbp), %r14
Ltmp806:
	.loc	25 0 22 is_stmt 0
	movabsq	$261993005117, %r15
Ltmp807:
	leaq	-856(%rbp), %r13
	movl	$99, %eax
	movd	%eax, %xmm0
	movdqa	%xmm0, -928(%rbp)
	jmp	LBB40_34
Ltmp808:
LBB40_32:
	.loc	25 89 38 is_stmt 1
	movq	%rbx, -904(%rbp)
	movq	%r14, -896(%rbp)
	movq	%r15, -888(%rbp)
Ltmp809:
	.p2align	4, 0x90
LBB40_33:
	.loc	25 0 38 is_stmt 0
	leaq	-544(%rbp), %r14
	movabsq	$261993005117, %r15
LBB40_34:
Ltmp674:
Ltmp810:
	.loc	15 974 17 is_stmt 1
	movq	%r14, %rdi
	callq	__ZN4core3str22SplitInternal$LT$P$GT$4next17h08eee0d6a3d90690E
Ltmp675:
Ltmp811:
	.loc	2 456 13
	testq	%rax, %rax
	je	LBB40_206
Ltmp812:
	.loc	15 1515 12
	testq	%rdx, %rdx
	je	LBB40_38
Ltmp813:
	.loc	15 1515 37 is_stmt 0
	leaq	-1(%rdx), %rcx
	.loc	15 1515 21
	cmpb	$13, -1(%rax,%rdx)
	.loc	15 1515 12
	cmovneq	%rdx, %rcx
	jmp	LBB40_39
Ltmp814:
	.p2align	4, 0x90
LBB40_38:
	.loc	15 0 12
	xorl	%ecx, %ecx
Ltmp815:
LBB40_39:
	.loc	15 3321 9 is_stmt 1
	movq	$0, -856(%rbp)
	movq	%rcx, -848(%rbp)
	movq	%rax, -840(%rbp)
	movq	%rcx, -832(%rbp)
	movq	$0, -824(%rbp)
	movq	%rcx, -816(%rbp)
	movq	$1, -808(%rbp)
	movq	%r15, -800(%rbp)
	movw	$1, -792(%rbp)
Ltmp816:
Ltmp676:
	.loc	15 974 17
	movq	%r13, %rdi
	callq	__ZN4core3str22SplitInternal$LT$P$GT$4next17h08eee0d6a3d90690E
Ltmp817:
Ltmp677:
	.loc	25 0 0 is_stmt 0
	movq	%rax, %r12
	movq	%rdx, %rbx
Ltmp678:
Ltmp818:
	.loc	15 974 17
	movq	%r13, %rdi
	callq	__ZN4core3str22SplitInternal$LT$P$GT$4next17h08eee0d6a3d90690E
Ltmp679:
Ltmp819:
	.loc	25 85 21 is_stmt 1
	testq	%r12, %r12
	je	LBB40_34
	testq	%rax, %rax
	je	LBB40_34
Ltmp820:
	.loc	18 6265 9
	addq	$-9, %rbx
Ltmp821:
	cmpq	$11, %rbx
	ja	LBB40_34
Ltmp822:
	.loc	18 0 9 is_stmt 0
	leaq	LJTI40_0(%rip), %rsi
	movslq	(%rsi,%rbx,4), %rcx
	addq	%rsi, %rcx
	jmpq	*%rcx
Ltmp823:
LBB40_45:
	.loc	16 331 9 is_stmt 1
	leaq	l___unnamed_21(%rip), %rcx
	cmpq	%rcx, %r12
Ltmp824:
	.loc	18 6271 9
	je	LBB40_47
Ltmp825:
	.loc	18 0 9 is_stmt 0
	movq	(%r12), %rcx
Ltmp826:
	.loc	18 6276 13 is_stmt 1
	movabsq	$8025261039873581428, %rsi
	xorq	%rsi, %rcx
	movzbl	8(%r12), %esi
	xorq	$115, %rsi
	orq	%rcx, %rsi
Ltmp827:
	.loc	25 87 21
	jne	LBB40_34
Ltmp828:
LBB40_47:
	.loc	25 87 53 is_stmt 0
	movq	%rax, %rdi
	movq	%rdx, %rsi
	callq	__ZN4core3str21_$LT$impl$u20$str$GT$12trim_matches17habb817b8438e8d69E
Ltmp829:
	movq	%rax, %r12
Ltmp830:
	movq	%rdx, %r15
Ltmp831:
	.loc	6 170 16 is_stmt 1
	testq	%rdx, %rdx
	.loc	6 170 13 is_stmt 0
	je	LBB40_105
Ltmp832:
	.loc	6 80 14 is_stmt 1
	movl	$1, %esi
	movq	%r15, %rdi
	callq	___rust_alloc
Ltmp833:
	.loc	12 184 17
	testq	%rax, %rax
	je	LBB40_417
Ltmp834:
	.loc	12 0 17 is_stmt 0
	movq	%rax, %rbx
	movq	%r15, %r14
Ltmp835:
	.loc	12 373 9 is_stmt 1
	cmpq	%r15, %r14
Ltmp836:
	.loc	12 309 9
	jb	LBB40_106
	jmp	LBB40_149
Ltmp837:
LBB40_50:
	.loc	16 331 9
	leaq	l___unnamed_22(%rip), %rcx
	cmpq	%rcx, %r12
Ltmp838:
	.loc	18 6271 9
	je	LBB40_52
Ltmp839:
	.loc	18 0 9 is_stmt 0
	movq	(%r12), %rcx
Ltmp840:
	.loc	18 6276 13 is_stmt 1
	movabsq	$7376742693532230004, %rsi
	xorq	%rsi, %rcx
	movq	6(%r12), %rsi
	movabsq	$7310034287886427743, %rdi
	xorq	%rdi, %rsi
	orq	%rcx, %rsi
Ltmp841:
	.loc	25 99 21
	jne	LBB40_34
Ltmp842:
LBB40_52:
	.loc	25 99 61 is_stmt 0
	movq	%rax, %rdi
	movq	%rdx, %rsi
	callq	__ZN4core3str21_$LT$impl$u20$str$GT$12trim_matches17habb817b8438e8d69E
Ltmp843:
	.loc	25 0 61
	movq	%rax, -64(%rbp)
	.loc	25 99 61
	movq	%rdx, %r12
Ltmp844:
	.loc	6 170 16 is_stmt 1
	testq	%rdx, %rdx
	.loc	6 170 13 is_stmt 0
	je	LBB40_90
Ltmp845:
	.loc	6 80 14 is_stmt 1
	movl	$1, %esi
	movq	%r12, %rdi
	callq	___rust_alloc
Ltmp846:
	.loc	12 184 17
	testq	%rax, %rax
	je	LBB40_418
Ltmp847:
	.loc	12 0 17 is_stmt 0
	movq	%rax, %rbx
	movq	%r12, %r15
Ltmp848:
	.loc	12 373 9 is_stmt 1
	cmpq	%r12, %r15
Ltmp849:
	.loc	12 309 9
	jb	LBB40_91
	jmp	LBB40_129
Ltmp850:
LBB40_55:
	.loc	16 331 9
	leaq	l___unnamed_23(%rip), %rcx
	cmpq	%rcx, %r12
Ltmp851:
	.loc	18 6271 9
	je	LBB40_57
Ltmp852:
	.loc	18 0 9 is_stmt 0
	movq	(%r12), %rcx
Ltmp853:
	.loc	18 6276 13 is_stmt 1
	movabsq	$7016454723342590324, %rsi
	xorq	%rsi, %rcx
	movq	3(%r12), %rsi
	movabsq	$7521981565177718119, %rdi
	xorq	%rdi, %rsi
	orq	%rcx, %rsi
Ltmp854:
	.loc	25 89 21
	jne	LBB40_34
Ltmp855:
LBB40_57:
	.loc	25 89 57 is_stmt 0
	movq	%rax, %rdi
	movq	%rdx, %rsi
	callq	__ZN4core3str21_$LT$impl$u20$str$GT$12trim_matches17habb817b8438e8d69E
Ltmp856:
	movq	%rax, %r12
Ltmp857:
	movq	%rdx, %r15
Ltmp858:
	.loc	6 170 16 is_stmt 1
	testq	%rdx, %rdx
	.loc	6 170 13 is_stmt 0
	je	LBB40_95
Ltmp859:
	.loc	6 80 14 is_stmt 1
	movl	$1, %esi
	movq	%r15, %rdi
	callq	___rust_alloc
Ltmp860:
	.loc	12 184 17
	testq	%rax, %rax
	je	LBB40_417
Ltmp861:
	.loc	12 0 17 is_stmt 0
	movq	%rax, %rbx
	movq	%r15, %r14
Ltmp862:
	.loc	12 373 9 is_stmt 1
	cmpq	%r15, %r14
Ltmp863:
	.loc	12 309 9
	jb	LBB40_96
	jmp	LBB40_134
Ltmp864:
LBB40_60:
	.loc	16 331 9
	leaq	l___unnamed_24(%rip), %rcx
	cmpq	%rcx, %r12
Ltmp865:
	.loc	18 6271 9
	je	LBB40_84
Ltmp866:
	.loc	18 0 9 is_stmt 0
	movq	(%r12), %rcx
Ltmp867:
	.loc	18 6276 13 is_stmt 1
	movabsq	$7376742693532230004, %rsi
	xorq	%rsi, %rcx
	movq	5(%r12), %rsi
	movabsq	$8749484094580481908, %rdi
	xorq	%rdi, %rsi
	orq	%rcx, %rsi
Ltmp868:
	.loc	25 88 21
	je	LBB40_84
Ltmp869:
	.loc	16 331 9
	leaq	l___unnamed_25(%rip), %rcx
	cmpq	%rcx, %r12
Ltmp870:
	.loc	18 6271 9
	je	LBB40_87
Ltmp871:
	.loc	18 0 9 is_stmt 0
	movq	(%r12), %rcx
Ltmp872:
	.loc	18 6276 13 is_stmt 1
	movabsq	$7304685099494302068, %rsi
	xorq	%rsi, %rcx
	movq	5(%r12), %rsi
	movabsq	$7953754296982790004, %rdi
	xorq	%rdi, %rsi
	orq	%rcx, %rsi
Ltmp873:
	.loc	25 90 21
	je	LBB40_87
Ltmp874:
	.loc	16 331 9
	leaq	l___unnamed_26(%rip), %rcx
	cmpq	%rcx, %r12
Ltmp875:
	.loc	18 6271 9
	je	LBB40_66
Ltmp876:
	.loc	18 0 9 is_stmt 0
	movq	(%r12), %rcx
Ltmp877:
	.loc	18 6276 13 is_stmt 1
	movabsq	$8529664198139076980, %rsi
	xorq	%rsi, %rcx
	movq	5(%r12), %rsi
	movabsq	$8245919868050104180, %rdi
	xorq	%rdi, %rsi
	orq	%rcx, %rsi
Ltmp878:
	.loc	25 95 21
	jne	LBB40_34
Ltmp879:
LBB40_66:
	.loc	25 95 61 is_stmt 0
	movq	%rax, %rdi
	movq	%rdx, %rsi
	callq	__ZN4core3str21_$LT$impl$u20$str$GT$12trim_matches17habb817b8438e8d69E
Ltmp880:
	movq	%rax, %r12
Ltmp881:
	movq	%rdx, %r15
Ltmp882:
	.loc	6 170 16 is_stmt 1
	testq	%rdx, %rdx
	.loc	6 170 13 is_stmt 0
	je	LBB40_187
Ltmp883:
	.loc	6 80 14 is_stmt 1
	movl	$1, %esi
	movq	%r15, %rdi
	callq	___rust_alloc
Ltmp884:
	.loc	12 184 17
	testq	%rax, %rax
	je	LBB40_417
Ltmp885:
	.loc	12 0 17 is_stmt 0
	movq	%rax, %rbx
	movq	%r15, %r14
	jmp	LBB40_188
Ltmp886:
LBB40_69:
	.loc	16 331 9 is_stmt 1
	leaq	l___unnamed_27(%rip), %rcx
	cmpq	%rcx, %r12
Ltmp887:
	.loc	18 6271 9
	je	LBB40_71
Ltmp888:
	.loc	18 0 9 is_stmt 0
	movq	(%r12), %rcx
Ltmp889:
	.loc	18 6276 13 is_stmt 1
	movabsq	$7304685099494302068, %rsi
	xorq	%rsi, %rcx
	movzwl	8(%r12), %esi
	xorq	$30318, %rsi
	orq	%rcx, %rsi
Ltmp890:
	.loc	25 94 21
	jne	LBB40_34
Ltmp891:
LBB40_71:
	.loc	25 94 55 is_stmt 0
	movq	%rax, %rdi
	movq	%rdx, %rsi
	callq	__ZN4core3str21_$LT$impl$u20$str$GT$12trim_matches17habb817b8438e8d69E
Ltmp892:
	movq	%rax, %r12
Ltmp893:
	movq	%rdx, %r15
Ltmp894:
	.loc	6 170 16 is_stmt 1
	testq	%rdx, %rdx
	.loc	6 170 13 is_stmt 0
	je	LBB40_110
Ltmp895:
	.loc	6 80 14 is_stmt 1
	movl	$1, %esi
	movq	%r15, %rdi
	callq	___rust_alloc
Ltmp896:
	.loc	12 184 17
	testq	%rax, %rax
	je	LBB40_417
Ltmp897:
	.loc	12 0 17 is_stmt 0
	movq	%rax, %rbx
	movq	%r15, %r14
Ltmp898:
	.loc	12 373 9 is_stmt 1
	cmpq	%r15, %r14
Ltmp899:
	.loc	12 309 9
	jb	LBB40_111
	jmp	LBB40_157
Ltmp900:
LBB40_74:
	.loc	16 331 9
	leaq	l___unnamed_28(%rip), %rcx
	cmpq	%rcx, %r12
Ltmp901:
	.loc	18 6271 9
	je	LBB40_76
Ltmp902:
	.loc	18 6276 13
	movdqu	(%r12), %xmm0
	pcmpeqb	LCPI40_0(%rip), %xmm0
	movzbl	16(%r12), %ecx
	movq	%rcx, %xmm1
	pcmpeqb	-928(%rbp), %xmm1
	pand	%xmm0, %xmm1
	pmovmskb	%xmm1, %ecx
	cmpl	$65535, %ecx
Ltmp903:
	.loc	25 96 21
	jne	LBB40_34
Ltmp904:
LBB40_76:
	.loc	25 97 48
	movq	%rax, %rdi
	movq	%rdx, %rsi
	callq	__ZN4core3str21_$LT$impl$u20$str$GT$12trim_matches17habb817b8438e8d69E
Ltmp905:
	.loc	25 0 48 is_stmt 0
	movq	%rax, -64(%rbp)
	.loc	25 97 48
	movq	%rdx, %r12
Ltmp906:
	.loc	6 170 16 is_stmt 1
	testq	%rdx, %rdx
	.loc	6 170 13 is_stmt 0
	je	LBB40_115
Ltmp907:
	.loc	6 80 14 is_stmt 1
	movl	$1, %esi
	movq	%r12, %rdi
	callq	___rust_alloc
Ltmp908:
	.loc	12 184 17
	testq	%rax, %rax
	je	LBB40_418
Ltmp909:
	.loc	12 0 17 is_stmt 0
	movq	%rax, %rbx
	movq	%r12, %r15
Ltmp910:
	.loc	12 373 9 is_stmt 1
	cmpq	%r12, %r15
Ltmp911:
	.loc	12 309 9
	jb	LBB40_116
	jmp	LBB40_165
Ltmp912:
LBB40_79:
	.loc	16 331 9
	leaq	l___unnamed_29(%rip), %rcx
	cmpq	%rcx, %r12
Ltmp913:
	.loc	18 6271 9
	je	LBB40_81
Ltmp914:
	.loc	18 6276 13
	movdqu	(%r12), %xmm0
	pcmpeqb	LCPI40_2(%rip), %xmm0
	movd	16(%r12), %xmm1
	pcmpeqb	LCPI40_1(%rip), %xmm1
	pand	%xmm0, %xmm1
	pmovmskb	%xmm1, %ecx
	cmpl	$65535, %ecx
Ltmp915:
	.loc	25 91 21
	jne	LBB40_34
Ltmp916:
LBB40_81:
	.loc	25 92 53
	movq	%rax, %rdi
	movq	%rdx, %rsi
	callq	__ZN4core3str21_$LT$impl$u20$str$GT$12trim_matches17habb817b8438e8d69E
Ltmp917:
	movq	%rax, %r12
Ltmp918:
	movq	%rdx, %r15
Ltmp919:
	.loc	6 170 16
	testq	%rdx, %rdx
	.loc	6 170 13 is_stmt 0
	je	LBB40_120
Ltmp920:
	.loc	6 80 14 is_stmt 1
	movl	$1, %esi
	movq	%r15, %rdi
	callq	___rust_alloc
Ltmp921:
	.loc	12 184 17
	testq	%rax, %rax
	je	LBB40_417
Ltmp922:
	.loc	12 0 17 is_stmt 0
	movq	%rax, %rbx
	movq	%r15, %r14
Ltmp923:
	.loc	12 373 9 is_stmt 1
	cmpq	%r15, %r14
Ltmp924:
	.loc	12 309 9
	jb	LBB40_121
	jmp	LBB40_170
Ltmp925:
LBB40_84:
	.loc	25 88 61
	movq	%rax, %rdi
	movq	%rdx, %rsi
	callq	__ZN4core3str21_$LT$impl$u20$str$GT$12trim_matches17habb817b8438e8d69E
Ltmp926:
	movq	%rax, %r12
Ltmp927:
	movq	%rdx, %r15
Ltmp928:
	.loc	6 170 16
	testq	%rdx, %rdx
	.loc	6 170 13 is_stmt 0
	je	LBB40_100
Ltmp929:
	.loc	6 80 14 is_stmt 1
	movl	$1, %esi
	movq	%r15, %rdi
	callq	___rust_alloc
Ltmp930:
	.loc	12 184 17
	testq	%rax, %rax
	je	LBB40_417
Ltmp931:
	.loc	12 0 17 is_stmt 0
	movq	%rax, %rbx
	movq	%r15, %r14
Ltmp932:
	.loc	12 373 9 is_stmt 1
	cmpq	%r15, %r14
Ltmp933:
	.loc	12 309 9
	jb	LBB40_101
	jmp	LBB40_141
Ltmp934:
LBB40_87:
	.loc	25 90 61
	movq	%rax, %rdi
	movq	%rdx, %rsi
	callq	__ZN4core3str21_$LT$impl$u20$str$GT$12trim_matches17habb817b8438e8d69E
Ltmp935:
	movq	%rax, %r12
Ltmp936:
	movq	%rdx, %r15
Ltmp937:
	.loc	6 170 16
	testq	%rdx, %rdx
	.loc	6 170 13 is_stmt 0
	je	LBB40_174
Ltmp938:
	.loc	6 80 14 is_stmt 1
	movl	$1, %esi
	movq	%r15, %rdi
	callq	___rust_alloc
Ltmp939:
	.loc	12 184 17
	testq	%rax, %rax
	je	LBB40_417
Ltmp940:
	.loc	12 0 17 is_stmt 0
	movq	%rax, %rbx
	movq	%r15, %r14
Ltmp941:
	.loc	12 373 9 is_stmt 1
	cmpq	%r15, %r14
Ltmp942:
	.loc	12 309 9
	jb	LBB40_175
	jmp	LBB40_183
Ltmp943:
LBB40_90:
	.loc	12 0 9 is_stmt 0
	movl	$1, %ebx
	xorl	%r15d, %r15d
Ltmp944:
	.loc	12 373 9 is_stmt 1
	cmpq	%r12, %r15
Ltmp945:
	.loc	12 309 9
	jae	LBB40_129
Ltmp946:
LBB40_91:
	.loc	12 408 28
	leaq	(%r15,%r15), %rax
Ltmp947:
	.loc	20 1016 9
	cmpq	%r12, %rax
	.loc	20 0 0 is_stmt 0
	movq	%r12, %r14
	cmovaq	%rax, %r14
Ltmp948:
	cmpq	$8, %r14
	movl	$8, %eax
Ltmp949:
	cmovbeq	%rax, %r14
Ltmp950:
	.loc	12 235 40 is_stmt 1
	testq	%r15, %r15
Ltmp951:
	.loc	12 235 9 is_stmt 0
	je	LBB40_125
Ltmp952:
	testq	%rbx, %rbx
	je	LBB40_125
Ltmp953:
	.loc	6 205 12 is_stmt 1
	cmpq	%r14, %r15
	.loc	6 205 9 is_stmt 0
	je	LBB40_128
Ltmp954:
	.loc	6 124 14 is_stmt 1
	movl	$1, %edx
	movq	%rbx, %rdi
	movq	%r15, %rsi
	movq	%r14, %rcx
	callq	___rust_realloc
	jmp	LBB40_126
Ltmp955:
LBB40_95:
	.loc	6 0 14 is_stmt 0
	movl	$1, %ebx
	xorl	%r14d, %r14d
Ltmp956:
	.loc	12 373 9 is_stmt 1
	cmpq	%r15, %r14
Ltmp957:
	.loc	12 309 9
	jae	LBB40_134
Ltmp958:
LBB40_96:
	.loc	12 0 9 is_stmt 0
	movq	%r12, -64(%rbp)
Ltmp959:
	.loc	12 408 28 is_stmt 1
	leaq	(%r14,%r14), %rax
Ltmp960:
	.loc	20 1016 9
	cmpq	%r15, %rax
	.loc	20 0 0 is_stmt 0
	movq	%r15, %r12
Ltmp961:
	cmovaq	%rax, %r12
Ltmp962:
	cmpq	$8, %r12
	movl	$8, %eax
Ltmp963:
	cmovbeq	%rax, %r12
Ltmp964:
	.loc	12 235 40 is_stmt 1
	testq	%r14, %r14
Ltmp965:
	.loc	12 235 9 is_stmt 0
	je	LBB40_130
Ltmp966:
	testq	%rbx, %rbx
	je	LBB40_130
Ltmp967:
	.loc	6 205 12 is_stmt 1
	cmpq	%r12, %r14
	.loc	6 205 9 is_stmt 0
	je	LBB40_133
Ltmp968:
	.loc	6 124 14 is_stmt 1
	movl	$1, %edx
	movq	%rbx, %rdi
	movq	%r14, %rsi
	movq	%r12, %rcx
	callq	___rust_realloc
	jmp	LBB40_131
Ltmp969:
LBB40_100:
	.loc	6 0 14 is_stmt 0
	movl	$1, %ebx
	xorl	%r14d, %r14d
Ltmp970:
	.loc	12 373 9 is_stmt 1
	cmpq	%r15, %r14
Ltmp971:
	.loc	12 309 9
	jae	LBB40_141
Ltmp972:
LBB40_101:
	.loc	12 0 9 is_stmt 0
	movq	%r12, -64(%rbp)
Ltmp973:
	.loc	12 408 28 is_stmt 1
	leaq	(%r14,%r14), %rax
Ltmp974:
	.loc	20 1016 9
	cmpq	%r15, %rax
	.loc	20 0 0 is_stmt 0
	movq	%r15, %r12
Ltmp975:
	cmovaq	%rax, %r12
Ltmp976:
	cmpq	$8, %r12
	movl	$8, %eax
Ltmp977:
	cmovbeq	%rax, %r12
Ltmp978:
	.loc	12 235 40 is_stmt 1
	testq	%r14, %r14
Ltmp979:
	.loc	12 235 9 is_stmt 0
	je	LBB40_137
Ltmp980:
	testq	%rbx, %rbx
	je	LBB40_137
Ltmp981:
	.loc	6 205 12 is_stmt 1
	cmpq	%r12, %r14
	.loc	6 205 9 is_stmt 0
	je	LBB40_140
Ltmp982:
	.loc	6 124 14 is_stmt 1
	movl	$1, %edx
	movq	%rbx, %rdi
	movq	%r14, %rsi
	movq	%r12, %rcx
	callq	___rust_realloc
	jmp	LBB40_138
Ltmp983:
LBB40_105:
	.loc	6 0 14 is_stmt 0
	movl	$1, %ebx
	xorl	%r14d, %r14d
Ltmp984:
	.loc	12 373 9 is_stmt 1
	cmpq	%r15, %r14
Ltmp985:
	.loc	12 309 9
	jae	LBB40_149
Ltmp986:
LBB40_106:
	.loc	12 0 9 is_stmt 0
	movq	%r12, -64(%rbp)
Ltmp987:
	.loc	12 408 28 is_stmt 1
	leaq	(%r14,%r14), %rax
Ltmp988:
	.loc	20 1016 9
	cmpq	%r15, %rax
	.loc	20 0 0 is_stmt 0
	movq	%r15, %r12
Ltmp989:
	cmovaq	%rax, %r12
Ltmp990:
	cmpq	$8, %r12
	movl	$8, %eax
Ltmp991:
	cmovbeq	%rax, %r12
Ltmp992:
	.loc	12 235 40 is_stmt 1
	testq	%r14, %r14
Ltmp993:
	.loc	12 235 9 is_stmt 0
	je	LBB40_145
Ltmp994:
	testq	%rbx, %rbx
	je	LBB40_145
Ltmp995:
	.loc	6 205 12 is_stmt 1
	cmpq	%r12, %r14
	.loc	6 205 9 is_stmt 0
	je	LBB40_148
Ltmp996:
	.loc	6 124 14 is_stmt 1
	movl	$1, %edx
	movq	%rbx, %rdi
	movq	%r14, %rsi
	movq	%r12, %rcx
	callq	___rust_realloc
	jmp	LBB40_146
Ltmp997:
LBB40_110:
	.loc	6 0 14 is_stmt 0
	movl	$1, %ebx
	xorl	%r14d, %r14d
Ltmp998:
	.loc	12 373 9 is_stmt 1
	cmpq	%r15, %r14
Ltmp999:
	.loc	12 309 9
	jae	LBB40_157
Ltmp1000:
LBB40_111:
	.loc	12 0 9 is_stmt 0
	movq	%r12, -64(%rbp)
Ltmp1001:
	.loc	12 408 28 is_stmt 1
	leaq	(%r14,%r14), %rax
Ltmp1002:
	.loc	20 1016 9
	cmpq	%r15, %rax
	.loc	20 0 0 is_stmt 0
	movq	%r15, %r12
Ltmp1003:
	cmovaq	%rax, %r12
Ltmp1004:
	cmpq	$8, %r12
	movl	$8, %eax
Ltmp1005:
	cmovbeq	%rax, %r12
Ltmp1006:
	.loc	12 235 40 is_stmt 1
	testq	%r14, %r14
Ltmp1007:
	.loc	12 235 9 is_stmt 0
	je	LBB40_153
Ltmp1008:
	testq	%rbx, %rbx
	je	LBB40_153
Ltmp1009:
	.loc	6 205 12 is_stmt 1
	cmpq	%r12, %r14
	.loc	6 205 9 is_stmt 0
	je	LBB40_156
Ltmp1010:
	.loc	6 124 14 is_stmt 1
	movl	$1, %edx
	movq	%rbx, %rdi
	movq	%r14, %rsi
	movq	%r12, %rcx
	callq	___rust_realloc
	jmp	LBB40_154
Ltmp1011:
LBB40_115:
	.loc	6 0 14 is_stmt 0
	movl	$1, %ebx
	xorl	%r15d, %r15d
Ltmp1012:
	.loc	12 373 9 is_stmt 1
	cmpq	%r12, %r15
Ltmp1013:
	.loc	12 309 9
	jae	LBB40_165
Ltmp1014:
LBB40_116:
	.loc	12 408 28
	leaq	(%r15,%r15), %rax
Ltmp1015:
	.loc	20 1016 9
	cmpq	%r12, %rax
	.loc	20 0 0 is_stmt 0
	movq	%r12, %r14
	cmovaq	%rax, %r14
Ltmp1016:
	cmpq	$8, %r14
	movl	$8, %eax
Ltmp1017:
	cmovbeq	%rax, %r14
Ltmp1018:
	.loc	12 235 40 is_stmt 1
	testq	%r15, %r15
Ltmp1019:
	.loc	12 235 9 is_stmt 0
	je	LBB40_161
Ltmp1020:
	testq	%rbx, %rbx
	je	LBB40_161
Ltmp1021:
	.loc	6 205 12 is_stmt 1
	cmpq	%r14, %r15
	.loc	6 205 9 is_stmt 0
	je	LBB40_164
Ltmp1022:
	.loc	6 124 14 is_stmt 1
	movl	$1, %edx
	movq	%rbx, %rdi
	movq	%r15, %rsi
	movq	%r14, %rcx
	callq	___rust_realloc
	jmp	LBB40_162
Ltmp1023:
LBB40_120:
	.loc	6 0 14 is_stmt 0
	movl	$1, %ebx
	xorl	%r14d, %r14d
Ltmp1024:
	.loc	12 373 9 is_stmt 1
	cmpq	%r15, %r14
Ltmp1025:
	.loc	12 309 9
	jae	LBB40_170
Ltmp1026:
LBB40_121:
	.loc	12 0 9 is_stmt 0
	movq	%r12, -64(%rbp)
Ltmp1027:
	.loc	12 408 28 is_stmt 1
	leaq	(%r14,%r14), %rax
Ltmp1028:
	.loc	20 1016 9
	cmpq	%r15, %rax
	.loc	20 0 0 is_stmt 0
	movq	%r15, %r12
Ltmp1029:
	cmovaq	%rax, %r12
Ltmp1030:
	cmpq	$8, %r12
	movl	$8, %eax
Ltmp1031:
	cmovbeq	%rax, %r12
Ltmp1032:
	.loc	12 235 40 is_stmt 1
	testq	%r14, %r14
Ltmp1033:
	.loc	12 235 9 is_stmt 0
	je	LBB40_166
Ltmp1034:
	testq	%rbx, %rbx
	je	LBB40_166
Ltmp1035:
	.loc	6 205 12 is_stmt 1
	cmpq	%r12, %r14
	.loc	6 205 9 is_stmt 0
	je	LBB40_169
Ltmp1036:
	.loc	6 124 14 is_stmt 1
	movl	$1, %edx
	movq	%rbx, %rdi
	movq	%r14, %rsi
	movq	%r12, %rcx
	callq	___rust_realloc
	jmp	LBB40_167
Ltmp1037:
LBB40_125:
	.loc	6 80 14
	movl	$1, %esi
	movq	%r14, %rdi
	callq	___rust_alloc
Ltmp1038:
LBB40_126:
	.loc	12 0 0 is_stmt 0
	movq	%rax, %rbx
Ltmp1039:
	.loc	7 611 13 is_stmt 1
	testq	%rax, %rax
	je	LBB40_420
Ltmp1040:
	.file	33 "/rustc/6c8927b0cf80ceee19386026cf9d7fd4fd9d486f/src/liballoc/slice.rs"
	.loc	33 0 0 is_stmt 0
	movq	%r14, %r15
Ltmp1041:
LBB40_128:
	leaq	-544(%rbp), %r14
Ltmp1042:
LBB40_129:
	.file	34 "/rustc/6c8927b0cf80ceee19386026cf9d7fd4fd9d486f/src/libcore/intrinsics.rs"
	.loc	34 2130 14 is_stmt 1
	movq	%rbx, %rdi
	movq	-64(%rbp), %rsi
	movq	%r12, %rdx
	callq	_memcpy
Ltmp1043:
	.loc	11 745 23
	movq	%rbx, -128(%rbp)
	movq	%r15, -120(%rbp)
	movq	%r12, -112(%rbp)
Ltmp1044:
Ltmp680:
	.loc	25 99 41
	leaq	-176(%rbp), %rdi
	leaq	-128(%rbp), %rsi
	callq	__ZN5alloc3vec12Vec$LT$T$GT$4push17hd6beb7a5192b9702E
Ltmp681:
	movabsq	$261993005117, %r15
Ltmp1045:
	.loc	25 0 41 is_stmt 0
	jmp	LBB40_34
Ltmp1046:
LBB40_130:
	.loc	6 80 14 is_stmt 1
	movl	$1, %esi
	movq	%r12, %rdi
	callq	___rust_alloc
Ltmp1047:
LBB40_131:
	.loc	12 0 0 is_stmt 0
	movq	%rax, %rbx
Ltmp1048:
	.loc	7 611 13 is_stmt 1
	testq	%rax, %rax
	je	LBB40_418
Ltmp1049:
	.loc	33 0 0 is_stmt 0
	movq	%r12, %r14
Ltmp1050:
LBB40_133:
	movq	-64(%rbp), %r12
Ltmp1051:
LBB40_134:
	.loc	34 2130 14 is_stmt 1
	movq	%rbx, %rdi
	movq	%r12, %rsi
	movq	%r15, %rdx
	callq	_memcpy
Ltmp1052:
	.loc	3 184 1
	movq	-904(%rbp), %rdi
	testq	%rdi, %rdi
	je	LBB40_32
Ltmp1053:
	.loc	3 184 1 is_stmt 0
	movq	-896(%rbp), %rsi
Ltmp1054:
	.loc	12 235 40 is_stmt 1
	testq	%rsi, %rsi
	.loc	12 235 9 is_stmt 0
	je	LBB40_32
Ltmp1055:
	.loc	6 102 14 is_stmt 1
	movl	$1, %edx
	callq	___rust_dealloc
Ltmp1056:
	.loc	6 0 14 is_stmt 0
	jmp	LBB40_32
Ltmp1057:
LBB40_137:
	.loc	6 80 14 is_stmt 1
	movl	$1, %esi
	movq	%r12, %rdi
	callq	___rust_alloc
Ltmp1058:
LBB40_138:
	.loc	12 0 0 is_stmt 0
	movq	%rax, %rbx
Ltmp1059:
	.loc	7 611 13 is_stmt 1
	testq	%rax, %rax
	je	LBB40_418
Ltmp1060:
	.loc	33 0 0 is_stmt 0
	movq	%r12, %r14
Ltmp1061:
LBB40_140:
	movq	-64(%rbp), %r12
Ltmp1062:
LBB40_141:
	.loc	34 2130 14 is_stmt 1
	movq	%rbx, %rdi
	movq	%r12, %rsi
	movq	%r15, %rdx
	callq	_memcpy
Ltmp1063:
	.loc	3 184 1
	movq	-880(%rbp), %rdi
	testq	%rdi, %rdi
	je	LBB40_144
Ltmp1064:
	.loc	3 184 1 is_stmt 0
	movq	-872(%rbp), %rsi
Ltmp1065:
	.loc	12 235 40 is_stmt 1
	testq	%rsi, %rsi
	.loc	12 235 9 is_stmt 0
	je	LBB40_144
Ltmp1066:
	.loc	6 102 14 is_stmt 1
	movl	$1, %edx
	callq	___rust_dealloc
Ltmp1067:
LBB40_144:
	.loc	25 88 40
	movq	%rbx, -880(%rbp)
	movq	%r14, -872(%rbp)
	movq	%r15, -864(%rbp)
	jmp	LBB40_33
LBB40_145:
Ltmp1068:
	.loc	6 80 14
	movl	$1, %esi
	movq	%r12, %rdi
	callq	___rust_alloc
Ltmp1069:
LBB40_146:
	.loc	12 0 0 is_stmt 0
	movq	%rax, %rbx
Ltmp1070:
	.loc	7 611 13 is_stmt 1
	testq	%rax, %rax
	je	LBB40_418
Ltmp1071:
	.loc	33 0 0 is_stmt 0
	movq	%r12, %r14
Ltmp1072:
LBB40_148:
	movq	-64(%rbp), %r12
Ltmp1073:
LBB40_149:
	.loc	34 2130 14 is_stmt 1
	movq	%rbx, %rdi
	movq	%r12, %rsi
	movq	%r15, %rdx
	callq	_memcpy
Ltmp1074:
	.loc	3 184 1
	movq	-960(%rbp), %rdi
	testq	%rdi, %rdi
	je	LBB40_152
Ltmp1075:
	.loc	3 184 1 is_stmt 0
	movq	-952(%rbp), %rsi
Ltmp1076:
	.loc	12 235 40 is_stmt 1
	testq	%rsi, %rsi
	.loc	12 235 9 is_stmt 0
	je	LBB40_152
Ltmp1077:
	.loc	6 102 14 is_stmt 1
	movl	$1, %edx
	callq	___rust_dealloc
Ltmp1078:
LBB40_152:
	.loc	25 87 36
	movq	%rbx, -960(%rbp)
	movq	%r14, -952(%rbp)
	movq	%r15, -944(%rbp)
	jmp	LBB40_33
LBB40_153:
Ltmp1079:
	.loc	6 80 14
	movl	$1, %esi
	movq	%r12, %rdi
	callq	___rust_alloc
Ltmp1080:
LBB40_154:
	.loc	12 0 0 is_stmt 0
	movq	%rax, %rbx
Ltmp1081:
	.loc	7 611 13 is_stmt 1
	testq	%rax, %rax
	je	LBB40_418
Ltmp1082:
	.loc	33 0 0 is_stmt 0
	movq	%r12, %r14
Ltmp1083:
LBB40_156:
	movq	-64(%rbp), %r12
Ltmp1084:
LBB40_157:
	.loc	34 2130 14 is_stmt 1
	movq	%rbx, %rdi
	movq	%r12, %rsi
	movq	%r15, %rdx
	callq	_memcpy
Ltmp1085:
	.loc	3 184 1
	movq	-304(%rbp), %rdi
	testq	%rdi, %rdi
	je	LBB40_160
Ltmp1086:
	.loc	3 184 1 is_stmt 0
	movq	-296(%rbp), %rsi
Ltmp1087:
	.loc	12 235 40 is_stmt 1
	testq	%rsi, %rsi
	.loc	12 235 9 is_stmt 0
	je	LBB40_160
Ltmp1088:
	.loc	6 102 14 is_stmt 1
	movl	$1, %edx
	callq	___rust_dealloc
Ltmp1089:
LBB40_160:
	.loc	25 94 37
	movq	%rbx, -304(%rbp)
	movq	%r14, -296(%rbp)
	movq	%r15, -288(%rbp)
	jmp	LBB40_33
LBB40_161:
Ltmp1090:
	.loc	6 80 14
	movl	$1, %esi
	movq	%r14, %rdi
	callq	___rust_alloc
Ltmp1091:
LBB40_162:
	.loc	12 0 0 is_stmt 0
	movq	%rax, %rbx
Ltmp1092:
	.loc	7 611 13 is_stmt 1
	testq	%rax, %rax
	je	LBB40_420
Ltmp1093:
	.loc	33 0 0 is_stmt 0
	movq	%r14, %r15
Ltmp1094:
LBB40_164:
	leaq	-544(%rbp), %r14
Ltmp1095:
LBB40_165:
	.loc	34 2130 14 is_stmt 1
	movq	%rbx, %rdi
	movq	-64(%rbp), %rsi
	movq	%r12, %rdx
	callq	_memcpy
Ltmp1096:
	.loc	11 745 23
	movq	%rbx, -128(%rbp)
	movq	%r15, -120(%rbp)
	movq	%r12, -112(%rbp)
Ltmp1097:
Ltmp682:
	.loc	25 97 25
	leaq	-152(%rbp), %rdi
	leaq	-128(%rbp), %rsi
	callq	__ZN5alloc3vec12Vec$LT$T$GT$4push17hd6beb7a5192b9702E
Ltmp683:
	movabsq	$261993005117, %r15
Ltmp1098:
	.loc	25 0 25 is_stmt 0
	jmp	LBB40_34
Ltmp1099:
LBB40_166:
	.loc	6 80 14 is_stmt 1
	movl	$1, %esi
	movq	%r12, %rdi
	callq	___rust_alloc
Ltmp1100:
LBB40_167:
	.loc	12 0 0 is_stmt 0
	movq	%rax, %rbx
Ltmp1101:
	.loc	7 611 13 is_stmt 1
	testq	%rax, %rax
	je	LBB40_418
Ltmp1102:
	.loc	33 0 0 is_stmt 0
	movq	%r12, %r14
Ltmp1103:
LBB40_169:
	movq	-64(%rbp), %r12
Ltmp1104:
LBB40_170:
	.loc	34 2130 14 is_stmt 1
	movq	%rbx, %rdi
	movq	%r12, %rsi
	movq	%r15, %rdx
	callq	_memcpy
Ltmp1105:
	.loc	3 184 1
	movq	-568(%rbp), %rdi
	testq	%rdi, %rdi
	je	LBB40_173
Ltmp1106:
	.loc	3 184 1 is_stmt 0
	movq	-560(%rbp), %rsi
Ltmp1107:
	.loc	12 235 40 is_stmt 1
	testq	%rsi, %rsi
	.loc	12 235 9 is_stmt 0
	je	LBB40_173
Ltmp1108:
	.loc	6 102 14 is_stmt 1
	movl	$1, %edx
	callq	___rust_dealloc
Ltmp1109:
LBB40_173:
	.loc	25 92 25
	movq	%rbx, -568(%rbp)
	movq	%r14, -560(%rbp)
	movq	%r15, -552(%rbp)
	jmp	LBB40_33
LBB40_174:
Ltmp1110:
	.loc	25 0 25 is_stmt 0
	movl	$1, %ebx
	xorl	%r14d, %r14d
Ltmp1111:
	.loc	12 373 9 is_stmt 1
	cmpq	%r15, %r14
Ltmp1112:
	.loc	12 309 9
	jae	LBB40_183
Ltmp1113:
LBB40_175:
	.loc	12 0 9 is_stmt 0
	movq	%r12, -64(%rbp)
Ltmp1114:
	.loc	12 408 28 is_stmt 1
	leaq	(%r14,%r14), %rax
Ltmp1115:
	.loc	20 1016 9
	cmpq	%r15, %rax
	.loc	20 0 0 is_stmt 0
	movq	%r15, %r12
Ltmp1116:
	cmovaq	%rax, %r12
Ltmp1117:
	cmpq	$8, %r12
	movl	$8, %eax
Ltmp1118:
	cmovbeq	%rax, %r12
Ltmp1119:
	.loc	12 235 40 is_stmt 1
	testq	%r14, %r14
Ltmp1120:
	.loc	12 235 9 is_stmt 0
	je	LBB40_179
Ltmp1121:
	testq	%rbx, %rbx
	je	LBB40_179
Ltmp1122:
	.loc	6 205 12 is_stmt 1
	cmpq	%r12, %r14
	.loc	6 205 9 is_stmt 0
	je	LBB40_182
Ltmp1123:
	.loc	6 124 14 is_stmt 1
	movl	$1, %edx
	movq	%rbx, %rdi
	movq	%r14, %rsi
	movq	%r12, %rcx
	callq	___rust_realloc
	jmp	LBB40_180
Ltmp1124:
LBB40_179:
	.loc	6 80 14
	movl	$1, %esi
	movq	%r12, %rdi
	callq	___rust_alloc
Ltmp1125:
LBB40_180:
	.loc	12 0 0 is_stmt 0
	movq	%rax, %rbx
Ltmp1126:
	.loc	7 611 13 is_stmt 1
	testq	%rax, %rax
	je	LBB40_418
Ltmp1127:
	.loc	33 0 0 is_stmt 0
	movq	%r12, %r14
Ltmp1128:
LBB40_182:
	movq	-64(%rbp), %r12
Ltmp1129:
LBB40_183:
	.loc	34 2130 14 is_stmt 1
	movq	%rbx, %rdi
	movq	%r12, %rsi
	movq	%r15, %rdx
	callq	_memcpy
Ltmp1130:
	.loc	3 184 1
	movq	-648(%rbp), %rdi
	testq	%rdi, %rdi
	je	LBB40_186
Ltmp1131:
	.loc	3 184 1 is_stmt 0
	movq	-640(%rbp), %rsi
Ltmp1132:
	.loc	12 235 40 is_stmt 1
	testq	%rsi, %rsi
	.loc	12 235 9 is_stmt 0
	je	LBB40_186
Ltmp1133:
	.loc	6 102 14 is_stmt 1
	movl	$1, %edx
	callq	___rust_dealloc
Ltmp1134:
LBB40_186:
	.loc	25 90 40
	movq	%rbx, -648(%rbp)
	movq	%r14, -640(%rbp)
	movq	%r15, -632(%rbp)
	jmp	LBB40_33
LBB40_187:
Ltmp1135:
	.loc	25 0 40 is_stmt 0
	movl	$1, %ebx
	xorl	%r14d, %r14d
Ltmp1136:
LBB40_188:
	.loc	12 373 9 is_stmt 1
	cmpq	%r15, %r14
Ltmp1137:
	.loc	12 309 9
	jae	LBB40_197
Ltmp1138:
	.loc	12 0 9 is_stmt 0
	movq	%r12, -64(%rbp)
Ltmp1139:
	.loc	12 408 28 is_stmt 1
	leaq	(%r14,%r14), %rax
Ltmp1140:
	.loc	20 1016 9
	cmpq	%r15, %rax
	.loc	20 0 0 is_stmt 0
	movq	%r15, %r12
Ltmp1141:
	cmovaq	%rax, %r12
Ltmp1142:
	cmpq	$8, %r12
	movl	$8, %eax
Ltmp1143:
	cmovbeq	%rax, %r12
Ltmp1144:
	.loc	12 235 40 is_stmt 1
	testq	%r14, %r14
Ltmp1145:
	.loc	12 235 9 is_stmt 0
	je	LBB40_193
Ltmp1146:
	testq	%rbx, %rbx
	je	LBB40_193
Ltmp1147:
	.loc	6 205 12 is_stmt 1
	cmpq	%r12, %r14
	.loc	6 205 9 is_stmt 0
	je	LBB40_196
Ltmp1148:
	.loc	6 124 14 is_stmt 1
	movl	$1, %edx
	movq	%rbx, %rdi
	movq	%r14, %rsi
	movq	%r12, %rcx
	callq	___rust_realloc
	jmp	LBB40_194
Ltmp1149:
LBB40_193:
	.loc	6 80 14
	movl	$1, %esi
	movq	%r12, %rdi
	callq	___rust_alloc
Ltmp1150:
LBB40_194:
	.loc	12 0 0 is_stmt 0
	movq	%rax, %rbx
Ltmp1151:
	.loc	7 611 13 is_stmt 1
	testq	%rax, %rax
	je	LBB40_418
Ltmp1152:
	.loc	33 0 0 is_stmt 0
	movq	%r12, %r14
Ltmp1153:
LBB40_196:
	movq	-64(%rbp), %r12
Ltmp1154:
LBB40_197:
	.loc	34 2130 14 is_stmt 1
	movq	%rbx, %rdi
	movq	%r12, %rsi
	movq	%r15, %rdx
	callq	_memcpy
Ltmp1155:
	.loc	3 184 1
	movq	-200(%rbp), %rdi
	testq	%rdi, %rdi
	je	LBB40_200
Ltmp1156:
	.loc	3 184 1 is_stmt 0
	movq	-192(%rbp), %rsi
Ltmp1157:
	.loc	12 235 40 is_stmt 1
	testq	%rsi, %rsi
	.loc	12 235 9 is_stmt 0
	je	LBB40_200
Ltmp1158:
	.loc	6 102 14 is_stmt 1
	movl	$1, %edx
	callq	___rust_dealloc
Ltmp1159:
LBB40_200:
	.loc	25 95 40
	movq	%rbx, -200(%rbp)
	movq	%r14, -192(%rbp)
	movq	%r15, -184(%rbp)
	jmp	LBB40_33
Ltmp1160:
LBB40_201:
	.loc	11 481 23
	movq	-112(%rbp), %rax
	movq	-128(%rbp), %rcx
	movq	-120(%rbp), %rdx
Ltmp1161:
	.loc	7 1576 9
	movq	%rcx, -280(%rbp)
	movq	%rdx, -272(%rbp)
	movq	%rax, -264(%rbp)
	movq	-832(%rbp), %rsi
	movq	-824(%rbp), %rdi
	movq	%rsi, -256(%rbp)
	movq	%rdi, -248(%rbp)
Ltmp1162:
	.loc	30 36 34
	movq	%rax, -112(%rbp)
	movq	%rdx, -120(%rbp)
	movq	%rcx, -128(%rbp)
Ltmp665:
	leaq	-856(%rbp), %rdi
Ltmp1163:
	.loc	31 19 17
	callq	__ZN7failure9backtrace9Backtrace3new17hd61c7fb783a02c44E
Ltmp666:
Ltmp1164:
	.loc	31 21 30
	movq	-816(%rbp), %rax
	movq	%rax, -504(%rbp)
	movq	-824(%rbp), %rax
	movq	%rax, -512(%rbp)
	movq	-832(%rbp), %rax
	movq	%rax, -520(%rbp)
	movq	-840(%rbp), %rax
	movq	%rax, -528(%rbp)
	movq	-856(%rbp), %rax
	movq	-848(%rbp), %rcx
	movq	%rcx, -536(%rbp)
	movq	%rax, -544(%rbp)
	.loc	31 21 13 is_stmt 0
	movq	-128(%rbp), %rax
	movq	-120(%rbp), %rcx
	movq	%rax, -496(%rbp)
	movq	%rcx, -488(%rbp)
	movq	-112(%rbp), %rax
	movq	%rax, -480(%rbp)
	leaq	-856(%rbp), %rdi
	leaq	-544(%rbp), %rsi
Ltmp1165:
	.loc	31 23 37 is_stmt 1
	movl	$9, %ecx
	rep;movsq (%rsi), %es:(%rdi)
Ltmp1166:
	.loc	6 80 14
	movl	$72, %edi
	movl	$8, %esi
	callq	___rust_alloc
Ltmp1167:
	.loc	6 278 9
	testq	%rax, %rax
	je	LBB40_421
Ltmp1168:
	.loc	6 0 9 is_stmt 0
	movq	%rax, %rbx
	leaq	-856(%rbp), %rsi
	.loc	32 176 13 is_stmt 1
	movl	$9, %ecx
	movq	%rax, %rdi
	rep;movsq (%rsi), %es:(%rdi)
	leaq	l___unnamed_4(%rip), %rcx
Ltmp1169:
LBB40_204:
	.loc	25 0 0 is_stmt 0
	movq	%rbx, 8(%r13)
	movq	%rcx, 16(%r13)
	movq	$1, (%r13)
Ltmp1170:
	.loc	3 184 1 is_stmt 1
	movq	-624(%rbp), %rdi
Ltmp1171:
	.loc	12 507 16
	testq	%rdi, %rdi
Ltmp1172:
	.loc	12 235 9
	je	LBB40_415
Ltmp1173:
	.loc	3 0 0 is_stmt 0
	movq	-616(%rbp), %rsi
Ltmp1174:
	testq	%rsi, %rsi
Ltmp1175:
	jne	LBB40_414
	jmp	LBB40_415
Ltmp1176:
LBB40_206:
	.loc	25 106 24 is_stmt 1
	movq	-960(%rbp), %r15
Ltmp1177:
	.loc	2 565 13
	testq	%r15, %r15
	je	LBB40_212
Ltmp1178:
	.loc	25 106 24
	movdqu	-952(%rbp), %xmm0
Ltmp1179:
	.loc	25 106 24 is_stmt 0
	movq	%r15, -984(%rbp)
	movdqa	%xmm0, -64(%rbp)
	movdqu	%xmm0, -976(%rbp)
Ltmp1180:
	.loc	25 107 13 is_stmt 1
	movq	-864(%rbp), %rax
	movq	%rax, -344(%rbp)
	movq	-880(%rbp), %rax
	movq	-872(%rbp), %rcx
	movq	%rcx, -352(%rbp)
	movq	%rax, -360(%rbp)
	.loc	25 108 26
	movq	-904(%rbp), %r14
Ltmp1181:
	.loc	2 565 13
	testq	%r14, %r14
	movq	-936(%rbp), %r13
	je	LBB40_220
Ltmp1182:
	.loc	25 108 26
	movdqu	-896(%rbp), %xmm0
Ltmp1183:
	.loc	25 108 26 is_stmt 0
	movq	%r14, -672(%rbp)
	movdqa	%xmm0, -928(%rbp)
	movdqu	%xmm0, -664(%rbp)
Ltmp1184:
	.loc	25 109 28 is_stmt 1
	movq	-648(%rbp), %r12
Ltmp1185:
	.loc	2 565 13
	testq	%r12, %r12
	je	LBB40_266
Ltmp1186:
	.loc	25 109 28
	movdqu	-640(%rbp), %xmm0
Ltmp1187:
	.loc	25 109 28 is_stmt 0
	movq	%r12, -336(%rbp)
	movdqa	%xmm0, -1008(%rbp)
	movdqu	%xmm0, -328(%rbp)
Ltmp1188:
	.loc	25 111 35 is_stmt 1
	movq	-568(%rbp), %rbx
Ltmp1189:
	.loc	2 565 13
	testq	%rbx, %rbx
	je	LBB40_308
Ltmp1190:
	.loc	25 111 35
	movdqu	-560(%rbp), %xmm0
Ltmp1191:
	.loc	25 111 35 is_stmt 0
	movq	%rbx, -280(%rbp)
	movdqu	%xmm0, -272(%rbp)
Ltmp1192:
	.loc	25 113 25 is_stmt 1
	movq	-304(%rbp), %rax
Ltmp1193:
	.loc	2 565 13
	testq	%rax, %rax
	je	LBB40_349
Ltmp1194:
	.loc	25 113 25
	movdqu	-296(%rbp), %xmm0
Ltmp1195:
	.loc	25 105 12
	movq	-984(%rbp), %rcx
	movq	-976(%rbp), %rdx
	movq	%rcx, -856(%rbp)
	movq	%rdx, -848(%rbp)
	movq	-968(%rbp), %rcx
	movq	%rcx, -840(%rbp)
	movq	-360(%rbp), %rcx
	movq	-352(%rbp), %rdx
	movq	%rcx, -832(%rbp)
	movq	%rdx, -824(%rbp)
	movq	-344(%rbp), %rcx
	movq	%rcx, -816(%rbp)
	movq	-672(%rbp), %rcx
	movq	-664(%rbp), %rdx
	movq	%rcx, -808(%rbp)
	movq	%rdx, -800(%rbp)
	movq	-656(%rbp), %rcx
	movq	%rcx, -792(%rbp)
	movq	-320(%rbp), %rcx
	movq	%rcx, -768(%rbp)
	movq	-336(%rbp), %rcx
	movq	-328(%rbp), %rdx
	movq	%rdx, -776(%rbp)
	movq	%rcx, -784(%rbp)
	movq	-280(%rbp), %rcx
	movq	-272(%rbp), %rdx
	movq	%rcx, -760(%rbp)
	movq	%rdx, -752(%rbp)
	movq	-264(%rbp), %rcx
	movq	%rcx, -744(%rbp)
	.loc	25 105 9 is_stmt 0
	leaq	8(%r13), %rdi
	leaq	-856(%rbp), %rsi
	movl	$15, %ecx
	rep;movsq (%rsi), %es:(%rdi)
	movq	%rax, 128(%r13)
	movdqu	%xmm0, 136(%r13)
	movq	-184(%rbp), %rax
Ltmp1196:
	movq	%rax, 168(%r13)
	movq	-200(%rbp), %rax
	movq	-192(%rbp), %rcx
	movq	%rcx, 160(%r13)
	movq	%rax, 152(%r13)
	movq	-152(%rbp), %rax
	movq	-144(%rbp), %rcx
	movq	%rax, 176(%r13)
	movq	%rcx, 184(%r13)
	movq	-136(%rbp), %rax
	movq	%rax, 192(%r13)
	movq	-176(%rbp), %rax
	movq	-168(%rbp), %rcx
	movq	%rax, 200(%r13)
	movq	%rcx, 208(%r13)
	movq	-160(%rbp), %rax
	movq	%rax, 216(%r13)
	movq	$0, (%r13)
Ltmp1197:
	.loc	25 0 9
	jmp	LBB40_409
Ltmp1198:
LBB40_212:
Ltmp697:
	leaq	-128(%rbp), %rdi
Ltmp1199:
	.loc	31 19 17 is_stmt 1
	callq	__ZN7failure9backtrace9Backtrace3new17hd61c7fb783a02c44E
Ltmp698:
	movq	-936(%rbp), %r13
Ltmp1200:
	.loc	31 23 37
	movq	-88(%rbp), %rax
	movq	%rax, -504(%rbp)
	movq	-96(%rbp), %rax
	movq	%rax, -512(%rbp)
	movq	-104(%rbp), %rax
	movq	%rax, -520(%rbp)
	movq	-112(%rbp), %rax
	movq	%rax, -528(%rbp)
	movq	-128(%rbp), %rax
	movq	-120(%rbp), %rcx
	movq	%rcx, -536(%rbp)
	movq	%rax, -544(%rbp)
Ltmp1201:
	.loc	6 80 14
	movl	$64, %edi
	movl	$8, %esi
	callq	___rust_alloc
Ltmp1202:
	.loc	6 278 9
	testq	%rax, %rax
	je	LBB40_416
Ltmp1203:
	.loc	32 176 13
	movq	-504(%rbp), %rcx
	movq	%rcx, 40(%rax)
	movq	-512(%rbp), %rcx
	movq	%rcx, 32(%rax)
	movq	-520(%rbp), %rcx
	movq	%rcx, 24(%rax)
	movq	-528(%rbp), %rcx
	movq	%rcx, 16(%rax)
	movq	-544(%rbp), %rcx
	movq	-536(%rbp), %rdx
	movq	%rdx, 8(%rax)
	movq	%rcx, (%rax)
	leaq	l___unnamed_30(%rip), %rcx
Ltmp1204:
	movq	%rcx, 48(%rax)
	movq	$22, 56(%rax)
Ltmp1205:
	.loc	7 1586 9
	movq	%rax, 8(%r13)
	leaq	l___unnamed_5(%rip), %rax
Ltmp1206:
	movq	%rax, 16(%r13)
	movq	$1, (%r13)
Ltmp1207:
	.loc	10 854 19
	movq	-176(%rbp), %rbx
Ltmp1208:
	.loc	10 2421 81
	movq	-160(%rbp), %rax
Ltmp1209:
	.loc	3 184 1
	testq	%rax, %rax
	je	LBB40_234
Ltmp1210:
	leaq	(%rax,%rax,2), %rax
Ltmp1211:
	leaq	(%rbx,%rax,8), %r14
	jmp	LBB40_217
Ltmp1212:
	.p2align	4, 0x90
LBB40_216:
	addq	$24, %rbx
	cmpq	%r14, %rbx
	je	LBB40_233
Ltmp1213:
LBB40_217:
	.loc	3 184 1 is_stmt 0
	movq	(%rbx), %rdi
Ltmp1214:
	.loc	12 507 16 is_stmt 1
	testq	%rdi, %rdi
Ltmp1215:
	.loc	12 235 9
	je	LBB40_216
Ltmp1216:
	.loc	3 0 0 is_stmt 0
	movq	8(%rbx), %rsi
Ltmp1217:
	.loc	12 235 9
	testq	%rsi, %rsi
	je	LBB40_216
Ltmp1218:
	.loc	6 102 14 is_stmt 1
	movl	$1, %edx
	callq	___rust_dealloc
Ltmp1219:
	.loc	6 0 14 is_stmt 0
	jmp	LBB40_216
Ltmp1220:
LBB40_220:
Ltmp694:
	leaq	-128(%rbp), %rdi
Ltmp1221:
	.loc	31 19 17 is_stmt 1
	callq	__ZN7failure9backtrace9Backtrace3new17hd61c7fb783a02c44E
Ltmp695:
Ltmp1222:
	.loc	31 23 37
	movq	-88(%rbp), %rax
	movq	%rax, -504(%rbp)
	movq	-96(%rbp), %rax
	movq	%rax, -512(%rbp)
	movq	-104(%rbp), %rax
	movq	%rax, -520(%rbp)
	movq	-112(%rbp), %rax
	movq	%rax, -528(%rbp)
	movq	-128(%rbp), %rax
	movq	-120(%rbp), %rcx
	movq	%rcx, -536(%rbp)
	movq	%rax, -544(%rbp)
Ltmp1223:
	.loc	6 80 14
	movl	$64, %edi
	movl	$8, %esi
	callq	___rust_alloc
Ltmp1224:
	.loc	6 278 9
	testq	%rax, %rax
	je	LBB40_416
Ltmp1225:
	.loc	32 176 13
	movq	-504(%rbp), %rcx
	movq	%rcx, 40(%rax)
	movq	-512(%rbp), %rcx
	movq	%rcx, 32(%rax)
	movq	-520(%rbp), %rcx
	movq	%rcx, 24(%rax)
	movq	-528(%rbp), %rcx
	movq	%rcx, 16(%rax)
	movq	-544(%rbp), %rcx
	movq	-536(%rbp), %rdx
	movq	%rdx, 8(%rax)
	movq	%rcx, (%rax)
	leaq	l___unnamed_31(%rip), %rcx
Ltmp1226:
	movq	%rcx, 48(%rax)
	movq	$24, 56(%rax)
Ltmp1227:
	.loc	7 1586 9
	movq	%rax, 8(%r13)
	leaq	l___unnamed_5(%rip), %rax
Ltmp1228:
	movq	%rax, 16(%r13)
	movq	$1, (%r13)
Ltmp1229:
	.loc	3 184 1
	movq	-360(%rbp), %rdi
	testq	%rdi, %rdi
	je	LBB40_225
Ltmp1230:
	.loc	3 184 1 is_stmt 0
	movq	-352(%rbp), %rsi
Ltmp1231:
	.loc	12 235 40 is_stmt 1
	testq	%rsi, %rsi
	.loc	12 235 9 is_stmt 0
	je	LBB40_225
Ltmp1232:
	.loc	6 102 14 is_stmt 1
	movl	$1, %edx
	callq	___rust_dealloc
Ltmp1233:
LBB40_225:
	.loc	6 0 14 is_stmt 0
	movdqa	-64(%rbp), %xmm0
Ltmp1234:
	.loc	12 235 40 is_stmt 1
	movq	%xmm0, %rsi
	testq	%rsi, %rsi
	.loc	12 235 9 is_stmt 0
	je	LBB40_227
Ltmp1235:
	.loc	6 102 14 is_stmt 1
	movl	$1, %edx
	movq	%r15, %rdi
	callq	___rust_dealloc
Ltmp1236:
LBB40_227:
	.loc	10 854 19
	movq	-176(%rbp), %rbx
Ltmp1237:
	.loc	10 2421 81
	movq	-160(%rbp), %rax
Ltmp1238:
	.loc	3 184 1
	testq	%rax, %rax
	je	LBB40_282
Ltmp1239:
	leaq	(%rax,%rax,2), %rax
Ltmp1240:
	leaq	(%rbx,%rax,8), %r14
	jmp	LBB40_230
Ltmp1241:
	.p2align	4, 0x90
LBB40_229:
	addq	$24, %rbx
	cmpq	%r14, %rbx
	je	LBB40_281
Ltmp1242:
LBB40_230:
	.loc	3 184 1 is_stmt 0
	movq	(%rbx), %rdi
Ltmp1243:
	.loc	12 507 16 is_stmt 1
	testq	%rdi, %rdi
Ltmp1244:
	.loc	12 235 9
	je	LBB40_229
Ltmp1245:
	.loc	3 0 0 is_stmt 0
	movq	8(%rbx), %rsi
Ltmp1246:
	.loc	12 235 9
	testq	%rsi, %rsi
	je	LBB40_229
Ltmp1247:
	.loc	6 102 14 is_stmt 1
	movl	$1, %edx
	callq	___rust_dealloc
Ltmp1248:
	.loc	6 0 14 is_stmt 0
	jmp	LBB40_229
Ltmp1249:
LBB40_233:
	.loc	3 184 1 is_stmt 1
	movq	-176(%rbp), %rbx
Ltmp1250:
LBB40_234:
	movq	-168(%rbp), %rax
Ltmp1251:
	.loc	12 235 40
	testq	%rax, %rax
	.loc	12 235 9 is_stmt 0
	je	LBB40_238
Ltmp1252:
	.loc	12 507 16 is_stmt 1
	testq	%rbx, %rbx
Ltmp1253:
	je	LBB40_238
Ltmp1254:
	.loc	12 0 0 is_stmt 0
	shlq	$3, %rax
	leaq	(%rax,%rax,2), %rsi
Ltmp1255:
	.loc	12 507 16
	testq	%rsi, %rsi
	je	LBB40_238
Ltmp1256:
	.loc	6 102 14 is_stmt 1
	movl	$8, %edx
	movq	%rbx, %rdi
	callq	___rust_dealloc
Ltmp1257:
LBB40_238:
	.loc	10 854 19
	movq	-152(%rbp), %rbx
Ltmp1258:
	.loc	10 2421 81
	movq	-136(%rbp), %rax
Ltmp1259:
	.loc	3 184 1
	testq	%rax, %rax
	je	LBB40_245
Ltmp1260:
	leaq	(%rax,%rax,2), %rax
Ltmp1261:
	leaq	(%rbx,%rax,8), %r14
	jmp	LBB40_241
Ltmp1262:
	.p2align	4, 0x90
LBB40_240:
	addq	$24, %rbx
	cmpq	%r14, %rbx
	je	LBB40_244
Ltmp1263:
LBB40_241:
	.loc	3 184 1 is_stmt 0
	movq	(%rbx), %rdi
Ltmp1264:
	.loc	12 507 16 is_stmt 1
	testq	%rdi, %rdi
Ltmp1265:
	.loc	12 235 9
	je	LBB40_240
Ltmp1266:
	.loc	3 0 0 is_stmt 0
	movq	8(%rbx), %rsi
Ltmp1267:
	.loc	12 235 9
	testq	%rsi, %rsi
	je	LBB40_240
Ltmp1268:
	.loc	6 102 14 is_stmt 1
	movl	$1, %edx
	callq	___rust_dealloc
Ltmp1269:
	.loc	6 0 14 is_stmt 0
	jmp	LBB40_240
Ltmp1270:
LBB40_244:
	.loc	3 184 1 is_stmt 1
	movq	-152(%rbp), %rbx
Ltmp1271:
LBB40_245:
	movq	-144(%rbp), %rax
Ltmp1272:
	.loc	12 235 40
	testq	%rax, %rax
	.loc	12 235 9 is_stmt 0
	je	LBB40_249
Ltmp1273:
	.loc	12 507 16 is_stmt 1
	testq	%rbx, %rbx
Ltmp1274:
	je	LBB40_249
Ltmp1275:
	.loc	12 0 0 is_stmt 0
	shlq	$3, %rax
	leaq	(%rax,%rax,2), %rsi
Ltmp1276:
	.loc	12 507 16
	testq	%rsi, %rsi
	je	LBB40_249
Ltmp1277:
	.loc	6 102 14 is_stmt 1
	movl	$8, %edx
	movq	%rbx, %rdi
	callq	___rust_dealloc
Ltmp1278:
LBB40_249:
	.loc	3 184 1
	movq	-200(%rbp), %rdi
	testq	%rdi, %rdi
	je	LBB40_252
Ltmp1279:
	.loc	3 184 1 is_stmt 0
	movq	-192(%rbp), %rsi
Ltmp1280:
	.loc	12 235 40 is_stmt 1
	testq	%rsi, %rsi
	.loc	12 235 9 is_stmt 0
	je	LBB40_252
Ltmp1281:
	.loc	6 102 14 is_stmt 1
	movl	$1, %edx
	callq	___rust_dealloc
Ltmp1282:
LBB40_252:
	.loc	3 184 1
	movq	-304(%rbp), %rdi
	testq	%rdi, %rdi
	je	LBB40_255
Ltmp1283:
	.loc	3 184 1 is_stmt 0
	movq	-296(%rbp), %rsi
Ltmp1284:
	.loc	12 235 40 is_stmt 1
	testq	%rsi, %rsi
	.loc	12 235 9 is_stmt 0
	je	LBB40_255
Ltmp1285:
	.loc	6 102 14 is_stmt 1
	movl	$1, %edx
	callq	___rust_dealloc
Ltmp1286:
LBB40_255:
	.loc	3 184 1
	movq	-568(%rbp), %rdi
	testq	%rdi, %rdi
	je	LBB40_258
Ltmp1287:
	.loc	3 184 1 is_stmt 0
	movq	-560(%rbp), %rsi
Ltmp1288:
	.loc	12 235 40 is_stmt 1
	testq	%rsi, %rsi
	.loc	12 235 9 is_stmt 0
	je	LBB40_258
Ltmp1289:
	.loc	6 102 14 is_stmt 1
	movl	$1, %edx
	callq	___rust_dealloc
Ltmp1290:
LBB40_258:
	.loc	3 184 1
	movq	-648(%rbp), %rdi
	testq	%rdi, %rdi
	je	LBB40_261
Ltmp1291:
	.loc	3 184 1 is_stmt 0
	movq	-640(%rbp), %rsi
Ltmp1292:
	.loc	12 235 40 is_stmt 1
	testq	%rsi, %rsi
	.loc	12 235 9 is_stmt 0
	je	LBB40_261
Ltmp1293:
	.loc	6 102 14 is_stmt 1
	movl	$1, %edx
	callq	___rust_dealloc
Ltmp1294:
LBB40_261:
	.loc	3 184 1
	movq	-904(%rbp), %rdi
	testq	%rdi, %rdi
	je	LBB40_264
Ltmp1295:
	.loc	3 184 1 is_stmt 0
	movq	-896(%rbp), %rsi
Ltmp1296:
	.loc	12 235 40 is_stmt 1
	testq	%rsi, %rsi
	.loc	12 235 9 is_stmt 0
	je	LBB40_264
Ltmp1297:
	.loc	6 102 14 is_stmt 1
	movl	$1, %edx
	callq	___rust_dealloc
Ltmp1298:
LBB40_264:
	.loc	3 184 1
	movq	-880(%rbp), %rdi
	testq	%rdi, %rdi
	je	LBB40_409
Ltmp1299:
	.loc	3 184 1 is_stmt 0
	movq	-872(%rbp), %rsi
	jmp	LBB40_407
Ltmp1300:
LBB40_266:
Ltmp691:
	.loc	3 0 1
	leaq	-128(%rbp), %rdi
Ltmp1301:
	.loc	31 19 17 is_stmt 1
	callq	__ZN7failure9backtrace9Backtrace3new17hd61c7fb783a02c44E
Ltmp692:
Ltmp1302:
	.loc	31 23 37
	movq	-88(%rbp), %rax
	movq	%rax, -504(%rbp)
	movq	-96(%rbp), %rax
	movq	%rax, -512(%rbp)
	movq	-104(%rbp), %rax
	movq	%rax, -520(%rbp)
	movq	-112(%rbp), %rax
	movq	%rax, -528(%rbp)
	movq	-128(%rbp), %rax
	movq	-120(%rbp), %rcx
	movq	%rcx, -536(%rbp)
	movq	%rax, -544(%rbp)
Ltmp1303:
	.loc	6 80 14
	movl	$64, %edi
	movl	$8, %esi
	callq	___rust_alloc
Ltmp1304:
	.loc	6 278 9
	testq	%rax, %rax
	je	LBB40_416
Ltmp1305:
	.loc	32 176 13
	movq	-504(%rbp), %rcx
	movq	%rcx, 40(%rax)
	movq	-512(%rbp), %rcx
	movq	%rcx, 32(%rax)
	movq	-520(%rbp), %rcx
	movq	%rcx, 24(%rax)
	movq	-528(%rbp), %rcx
	movq	%rcx, 16(%rax)
	movq	-544(%rbp), %rcx
	movq	-536(%rbp), %rdx
	movq	%rdx, 8(%rax)
	movq	%rcx, (%rax)
	leaq	l___unnamed_32(%rip), %rcx
Ltmp1306:
	movq	%rcx, 48(%rax)
	movq	$26, 56(%rax)
Ltmp1307:
	.loc	7 1586 9
	movq	%rax, 8(%r13)
	leaq	l___unnamed_5(%rip), %rax
Ltmp1308:
	movq	%rax, 16(%r13)
	movq	$1, (%r13)
	movdqa	-928(%rbp), %xmm0
Ltmp1309:
	.loc	12 235 40
	movq	%xmm0, %rsi
	testq	%rsi, %rsi
	.loc	12 235 9 is_stmt 0
	je	LBB40_270
Ltmp1310:
	.loc	6 102 14 is_stmt 1
	movl	$1, %edx
	movq	%r14, %rdi
	callq	___rust_dealloc
Ltmp1311:
LBB40_270:
	.loc	3 184 1
	movq	-360(%rbp), %rdi
	testq	%rdi, %rdi
	je	LBB40_273
Ltmp1312:
	.loc	3 184 1 is_stmt 0
	movq	-352(%rbp), %rsi
Ltmp1313:
	.loc	12 235 40 is_stmt 1
	testq	%rsi, %rsi
	.loc	12 235 9 is_stmt 0
	je	LBB40_273
Ltmp1314:
	.loc	6 102 14 is_stmt 1
	movl	$1, %edx
	callq	___rust_dealloc
Ltmp1315:
LBB40_273:
	.loc	6 0 14 is_stmt 0
	movdqa	-64(%rbp), %xmm0
Ltmp1316:
	.loc	12 235 40 is_stmt 1
	movq	%xmm0, %rsi
	testq	%rsi, %rsi
	.loc	12 235 9 is_stmt 0
	je	LBB40_275
Ltmp1317:
	.loc	6 102 14 is_stmt 1
	movl	$1, %edx
	movq	%r15, %rdi
	callq	___rust_dealloc
Ltmp1318:
LBB40_275:
	.loc	10 854 19
	movq	-176(%rbp), %rbx
Ltmp1319:
	.loc	10 2421 81
	movq	-160(%rbp), %rax
Ltmp1320:
	.loc	3 184 1
	testq	%rax, %rax
	je	LBB40_326
Ltmp1321:
	leaq	(%rax,%rax,2), %rax
Ltmp1322:
	leaq	(%rbx,%rax,8), %r14
	jmp	LBB40_278
Ltmp1323:
	.p2align	4, 0x90
LBB40_277:
	addq	$24, %rbx
	cmpq	%r14, %rbx
	je	LBB40_325
Ltmp1324:
LBB40_278:
	.loc	3 184 1 is_stmt 0
	movq	(%rbx), %rdi
Ltmp1325:
	.loc	12 507 16 is_stmt 1
	testq	%rdi, %rdi
Ltmp1326:
	.loc	12 235 9
	je	LBB40_277
Ltmp1327:
	.loc	3 0 0 is_stmt 0
	movq	8(%rbx), %rsi
Ltmp1328:
	.loc	12 235 9
	testq	%rsi, %rsi
	je	LBB40_277
Ltmp1329:
	.loc	6 102 14 is_stmt 1
	movl	$1, %edx
	callq	___rust_dealloc
Ltmp1330:
	.loc	6 0 14 is_stmt 0
	jmp	LBB40_277
Ltmp1331:
LBB40_281:
	.loc	3 184 1 is_stmt 1
	movq	-176(%rbp), %rbx
Ltmp1332:
LBB40_282:
	movq	-168(%rbp), %rax
Ltmp1333:
	.loc	12 235 40
	testq	%rax, %rax
	.loc	12 235 9 is_stmt 0
	je	LBB40_286
Ltmp1334:
	.loc	12 507 16 is_stmt 1
	testq	%rbx, %rbx
Ltmp1335:
	je	LBB40_286
Ltmp1336:
	.loc	12 0 0 is_stmt 0
	shlq	$3, %rax
	leaq	(%rax,%rax,2), %rsi
Ltmp1337:
	.loc	12 507 16
	testq	%rsi, %rsi
	je	LBB40_286
Ltmp1338:
	.loc	6 102 14 is_stmt 1
	movl	$8, %edx
	movq	%rbx, %rdi
	callq	___rust_dealloc
Ltmp1339:
LBB40_286:
	.loc	10 854 19
	movq	-152(%rbp), %rbx
Ltmp1340:
	.loc	10 2421 81
	movq	-136(%rbp), %rax
Ltmp1341:
	.loc	3 184 1
	testq	%rax, %rax
	je	LBB40_293
Ltmp1342:
	leaq	(%rax,%rax,2), %rax
Ltmp1343:
	leaq	(%rbx,%rax,8), %r14
	jmp	LBB40_289
Ltmp1344:
	.p2align	4, 0x90
LBB40_288:
	addq	$24, %rbx
	cmpq	%r14, %rbx
	je	LBB40_292
Ltmp1345:
LBB40_289:
	.loc	3 184 1 is_stmt 0
	movq	(%rbx), %rdi
Ltmp1346:
	.loc	12 507 16 is_stmt 1
	testq	%rdi, %rdi
Ltmp1347:
	.loc	12 235 9
	je	LBB40_288
Ltmp1348:
	.loc	3 0 0 is_stmt 0
	movq	8(%rbx), %rsi
Ltmp1349:
	.loc	12 235 9
	testq	%rsi, %rsi
	je	LBB40_288
Ltmp1350:
	.loc	6 102 14 is_stmt 1
	movl	$1, %edx
	callq	___rust_dealloc
Ltmp1351:
	.loc	6 0 14 is_stmt 0
	jmp	LBB40_288
Ltmp1352:
LBB40_292:
	.loc	3 184 1 is_stmt 1
	movq	-152(%rbp), %rbx
Ltmp1353:
LBB40_293:
	movq	-144(%rbp), %rax
Ltmp1354:
	.loc	12 235 40
	testq	%rax, %rax
	.loc	12 235 9 is_stmt 0
	je	LBB40_297
Ltmp1355:
	.loc	12 507 16 is_stmt 1
	testq	%rbx, %rbx
Ltmp1356:
	je	LBB40_297
Ltmp1357:
	.loc	12 0 0 is_stmt 0
	shlq	$3, %rax
	leaq	(%rax,%rax,2), %rsi
Ltmp1358:
	.loc	12 507 16
	testq	%rsi, %rsi
	je	LBB40_297
Ltmp1359:
	.loc	6 102 14 is_stmt 1
	movl	$8, %edx
	movq	%rbx, %rdi
	callq	___rust_dealloc
Ltmp1360:
LBB40_297:
	.loc	3 184 1
	movq	-200(%rbp), %rdi
	testq	%rdi, %rdi
	je	LBB40_300
Ltmp1361:
	.loc	3 184 1 is_stmt 0
	movq	-192(%rbp), %rsi
Ltmp1362:
	.loc	12 235 40 is_stmt 1
	testq	%rsi, %rsi
	.loc	12 235 9 is_stmt 0
	je	LBB40_300
Ltmp1363:
	.loc	6 102 14 is_stmt 1
	movl	$1, %edx
	callq	___rust_dealloc
Ltmp1364:
LBB40_300:
	.loc	3 184 1
	movq	-304(%rbp), %rdi
	testq	%rdi, %rdi
	je	LBB40_303
Ltmp1365:
	.loc	3 184 1 is_stmt 0
	movq	-296(%rbp), %rsi
Ltmp1366:
	.loc	12 235 40 is_stmt 1
	testq	%rsi, %rsi
	.loc	12 235 9 is_stmt 0
	je	LBB40_303
Ltmp1367:
	.loc	6 102 14 is_stmt 1
	movl	$1, %edx
	callq	___rust_dealloc
Ltmp1368:
LBB40_303:
	.loc	3 184 1
	movq	-568(%rbp), %rdi
	testq	%rdi, %rdi
	je	LBB40_306
Ltmp1369:
	.loc	3 184 1 is_stmt 0
	movq	-560(%rbp), %rsi
Ltmp1370:
	.loc	12 235 40 is_stmt 1
	testq	%rsi, %rsi
	.loc	12 235 9 is_stmt 0
	je	LBB40_306
Ltmp1371:
	.loc	6 102 14 is_stmt 1
	movl	$1, %edx
	callq	___rust_dealloc
Ltmp1372:
LBB40_306:
	.loc	3 184 1
	movq	-648(%rbp), %rdi
	testq	%rdi, %rdi
	je	LBB40_409
Ltmp1373:
	.loc	3 184 1 is_stmt 0
	movq	-640(%rbp), %rsi
	jmp	LBB40_407
Ltmp1374:
LBB40_308:
Ltmp688:
	.loc	3 0 1
	leaq	-128(%rbp), %rdi
Ltmp1375:
	.loc	31 19 17 is_stmt 1
	callq	__ZN7failure9backtrace9Backtrace3new17hd61c7fb783a02c44E
Ltmp689:
Ltmp1376:
	.loc	31 23 37
	movq	-88(%rbp), %rax
	movq	%rax, -504(%rbp)
	movq	-96(%rbp), %rax
	movq	%rax, -512(%rbp)
	movq	-104(%rbp), %rax
	movq	%rax, -520(%rbp)
	movq	-112(%rbp), %rax
	movq	%rax, -528(%rbp)
	movq	-128(%rbp), %rax
	movq	-120(%rbp), %rcx
	movq	%rcx, -536(%rbp)
	movq	%rax, -544(%rbp)
Ltmp1377:
	.loc	6 80 14
	movl	$64, %edi
	movl	$8, %esi
	callq	___rust_alloc
Ltmp1378:
	.loc	6 278 9
	testq	%rax, %rax
	je	LBB40_416
Ltmp1379:
	.loc	32 176 13
	movq	-504(%rbp), %rcx
	movq	%rcx, 40(%rax)
	movq	-512(%rbp), %rcx
	movq	%rcx, 32(%rax)
	movq	-520(%rbp), %rcx
	movq	%rcx, 24(%rax)
	movq	-528(%rbp), %rcx
	movq	%rcx, 16(%rax)
	movq	-544(%rbp), %rcx
	movq	-536(%rbp), %rdx
	movq	%rdx, 8(%rax)
	movq	%rcx, (%rax)
	leaq	l___unnamed_33(%rip), %rcx
Ltmp1380:
	movq	%rcx, 48(%rax)
	movq	$33, 56(%rax)
Ltmp1381:
	.loc	7 1586 9
	movq	%rax, 8(%r13)
	leaq	l___unnamed_5(%rip), %rax
Ltmp1382:
	movq	%rax, 16(%r13)
	movq	$1, (%r13)
	movdqa	-1008(%rbp), %xmm0
Ltmp1383:
	.loc	12 235 40
	movq	%xmm0, %rsi
	testq	%rsi, %rsi
	.loc	12 235 9 is_stmt 0
	je	LBB40_312
Ltmp1384:
	.loc	6 102 14 is_stmt 1
	movl	$1, %edx
	movq	%r12, %rdi
	callq	___rust_dealloc
Ltmp1385:
LBB40_312:
	.loc	6 0 14 is_stmt 0
	movdqa	-928(%rbp), %xmm0
Ltmp1386:
	.loc	12 235 40 is_stmt 1
	movq	%xmm0, %rsi
	testq	%rsi, %rsi
	.loc	12 235 9 is_stmt 0
	je	LBB40_314
Ltmp1387:
	.loc	6 102 14 is_stmt 1
	movl	$1, %edx
	movq	%r14, %rdi
	callq	___rust_dealloc
Ltmp1388:
LBB40_314:
	.loc	3 184 1
	movq	-360(%rbp), %rdi
	testq	%rdi, %rdi
	je	LBB40_317
Ltmp1389:
	.loc	3 184 1 is_stmt 0
	movq	-352(%rbp), %rsi
Ltmp1390:
	.loc	12 235 40 is_stmt 1
	testq	%rsi, %rsi
	.loc	12 235 9 is_stmt 0
	je	LBB40_317
Ltmp1391:
	.loc	6 102 14 is_stmt 1
	movl	$1, %edx
	callq	___rust_dealloc
Ltmp1392:
LBB40_317:
	.loc	6 0 14 is_stmt 0
	movdqa	-64(%rbp), %xmm0
Ltmp1393:
	.loc	12 235 40 is_stmt 1
	movq	%xmm0, %rsi
	testq	%rsi, %rsi
	.loc	12 235 9 is_stmt 0
	je	LBB40_319
Ltmp1394:
	.loc	6 102 14 is_stmt 1
	movl	$1, %edx
	movq	%r15, %rdi
	callq	___rust_dealloc
Ltmp1395:
LBB40_319:
	.loc	10 854 19
	movq	-176(%rbp), %rbx
Ltmp1396:
	.loc	10 2421 81
	movq	-160(%rbp), %rax
Ltmp1397:
	.loc	3 184 1
	testq	%rax, %rax
	je	LBB40_369
Ltmp1398:
	leaq	(%rax,%rax,2), %rax
Ltmp1399:
	leaq	(%rbx,%rax,8), %r14
	jmp	LBB40_322
Ltmp1400:
	.p2align	4, 0x90
LBB40_321:
	addq	$24, %rbx
	cmpq	%r14, %rbx
	je	LBB40_368
Ltmp1401:
LBB40_322:
	.loc	3 184 1 is_stmt 0
	movq	(%rbx), %rdi
Ltmp1402:
	.loc	12 507 16 is_stmt 1
	testq	%rdi, %rdi
Ltmp1403:
	.loc	12 235 9
	je	LBB40_321
Ltmp1404:
	.loc	3 0 0 is_stmt 0
	movq	8(%rbx), %rsi
Ltmp1405:
	.loc	12 235 9
	testq	%rsi, %rsi
	je	LBB40_321
Ltmp1406:
	.loc	6 102 14 is_stmt 1
	movl	$1, %edx
	callq	___rust_dealloc
Ltmp1407:
	.loc	6 0 14 is_stmt 0
	jmp	LBB40_321
Ltmp1408:
LBB40_325:
	.loc	3 184 1 is_stmt 1
	movq	-176(%rbp), %rbx
Ltmp1409:
LBB40_326:
	movq	-168(%rbp), %rax
Ltmp1410:
	.loc	12 235 40
	testq	%rax, %rax
	.loc	12 235 9 is_stmt 0
	je	LBB40_330
Ltmp1411:
	.loc	12 507 16 is_stmt 1
	testq	%rbx, %rbx
Ltmp1412:
	je	LBB40_330
Ltmp1413:
	.loc	12 0 0 is_stmt 0
	shlq	$3, %rax
	leaq	(%rax,%rax,2), %rsi
Ltmp1414:
	.loc	12 507 16
	testq	%rsi, %rsi
	je	LBB40_330
Ltmp1415:
	.loc	6 102 14 is_stmt 1
	movl	$8, %edx
	movq	%rbx, %rdi
	callq	___rust_dealloc
Ltmp1416:
LBB40_330:
	.loc	10 854 19
	movq	-152(%rbp), %rbx
Ltmp1417:
	.loc	10 2421 81
	movq	-136(%rbp), %rax
Ltmp1418:
	.loc	3 184 1
	testq	%rax, %rax
	je	LBB40_337
Ltmp1419:
	leaq	(%rax,%rax,2), %rax
Ltmp1420:
	leaq	(%rbx,%rax,8), %r14
	jmp	LBB40_333
Ltmp1421:
	.p2align	4, 0x90
LBB40_332:
	addq	$24, %rbx
	cmpq	%r14, %rbx
	je	LBB40_336
Ltmp1422:
LBB40_333:
	.loc	3 184 1 is_stmt 0
	movq	(%rbx), %rdi
Ltmp1423:
	.loc	12 507 16 is_stmt 1
	testq	%rdi, %rdi
Ltmp1424:
	.loc	12 235 9
	je	LBB40_332
Ltmp1425:
	.loc	3 0 0 is_stmt 0
	movq	8(%rbx), %rsi
Ltmp1426:
	.loc	12 235 9
	testq	%rsi, %rsi
	je	LBB40_332
Ltmp1427:
	.loc	6 102 14 is_stmt 1
	movl	$1, %edx
	callq	___rust_dealloc
Ltmp1428:
	.loc	6 0 14 is_stmt 0
	jmp	LBB40_332
Ltmp1429:
LBB40_336:
	.loc	3 184 1 is_stmt 1
	movq	-152(%rbp), %rbx
Ltmp1430:
LBB40_337:
	movq	-144(%rbp), %rax
Ltmp1431:
	.loc	12 235 40
	testq	%rax, %rax
	.loc	12 235 9 is_stmt 0
	je	LBB40_341
Ltmp1432:
	.loc	12 507 16 is_stmt 1
	testq	%rbx, %rbx
Ltmp1433:
	je	LBB40_341
Ltmp1434:
	.loc	12 0 0 is_stmt 0
	shlq	$3, %rax
	leaq	(%rax,%rax,2), %rsi
Ltmp1435:
	.loc	12 507 16
	testq	%rsi, %rsi
	je	LBB40_341
Ltmp1436:
	.loc	6 102 14 is_stmt 1
	movl	$8, %edx
	movq	%rbx, %rdi
	callq	___rust_dealloc
Ltmp1437:
LBB40_341:
	.loc	3 184 1
	movq	-200(%rbp), %rdi
	testq	%rdi, %rdi
	je	LBB40_344
Ltmp1438:
	.loc	3 184 1 is_stmt 0
	movq	-192(%rbp), %rsi
Ltmp1439:
	.loc	12 235 40 is_stmt 1
	testq	%rsi, %rsi
	.loc	12 235 9 is_stmt 0
	je	LBB40_344
Ltmp1440:
	.loc	6 102 14 is_stmt 1
	movl	$1, %edx
	callq	___rust_dealloc
Ltmp1441:
LBB40_344:
	.loc	3 184 1
	movq	-304(%rbp), %rdi
	testq	%rdi, %rdi
	je	LBB40_347
Ltmp1442:
	.loc	3 184 1 is_stmt 0
	movq	-296(%rbp), %rsi
Ltmp1443:
	.loc	12 235 40 is_stmt 1
	testq	%rsi, %rsi
	.loc	12 235 9 is_stmt 0
	je	LBB40_347
Ltmp1444:
	.loc	6 102 14 is_stmt 1
	movl	$1, %edx
	callq	___rust_dealloc
Ltmp1445:
LBB40_347:
	.loc	3 184 1
	movq	-568(%rbp), %rdi
	testq	%rdi, %rdi
	je	LBB40_409
Ltmp1446:
	.loc	3 184 1 is_stmt 0
	movq	-560(%rbp), %rsi
	jmp	LBB40_407
Ltmp1447:
LBB40_349:
Ltmp685:
	.loc	3 0 1
	movdqa	%xmm0, -1024(%rbp)
Ltmp1448:
	leaq	-128(%rbp), %rdi
Ltmp1449:
	.loc	31 19 17 is_stmt 1
	callq	__ZN7failure9backtrace9Backtrace3new17hd61c7fb783a02c44E
Ltmp1450:
Ltmp686:
	.loc	31 23 37
	movq	-88(%rbp), %rax
	movq	%rax, -504(%rbp)
	movq	-96(%rbp), %rax
	movq	%rax, -512(%rbp)
	movq	-104(%rbp), %rax
	movq	%rax, -520(%rbp)
	movq	-112(%rbp), %rax
	movq	%rax, -528(%rbp)
	movq	-128(%rbp), %rax
	movq	-120(%rbp), %rcx
	movq	%rcx, -536(%rbp)
	movq	%rax, -544(%rbp)
Ltmp1451:
	.loc	6 80 14
	movl	$64, %edi
	movl	$8, %esi
	callq	___rust_alloc
Ltmp1452:
	.loc	6 278 9
	testq	%rax, %rax
	je	LBB40_416
Ltmp1453:
	.loc	32 176 13
	movq	-504(%rbp), %rcx
	movq	%rcx, 40(%rax)
	movq	-512(%rbp), %rcx
	movq	%rcx, 32(%rax)
	movq	-520(%rbp), %rcx
	movq	%rcx, 24(%rax)
	movq	-528(%rbp), %rcx
	movq	%rcx, 16(%rax)
	movq	-544(%rbp), %rcx
	movq	-536(%rbp), %rdx
	movq	%rdx, 8(%rax)
	movq	%rcx, (%rax)
	leaq	l___unnamed_34(%rip), %rcx
Ltmp1454:
	movq	%rcx, 48(%rax)
	movq	$23, 56(%rax)
Ltmp1455:
	.loc	7 1586 9
	movq	%rax, 8(%r13)
	leaq	l___unnamed_5(%rip), %rax
Ltmp1456:
	movq	%rax, 16(%r13)
	movq	$1, (%r13)
	movdqa	-1024(%rbp), %xmm0
Ltmp1457:
	.loc	12 235 40
	movq	%xmm0, %rsi
	testq	%rsi, %rsi
	.loc	12 235 9 is_stmt 0
	je	LBB40_353
Ltmp1458:
	.loc	6 102 14 is_stmt 1
	movl	$1, %edx
	movq	%rbx, %rdi
	callq	___rust_dealloc
Ltmp1459:
LBB40_353:
	.loc	6 0 14 is_stmt 0
	movdqa	-1008(%rbp), %xmm0
Ltmp1460:
	.loc	12 235 40 is_stmt 1
	movq	%xmm0, %rsi
	testq	%rsi, %rsi
	.loc	12 235 9 is_stmt 0
	je	LBB40_355
Ltmp1461:
	.loc	6 102 14 is_stmt 1
	movl	$1, %edx
	movq	%r12, %rdi
	callq	___rust_dealloc
Ltmp1462:
LBB40_355:
	.loc	6 0 14 is_stmt 0
	movdqa	-928(%rbp), %xmm0
Ltmp1463:
	.loc	12 235 40 is_stmt 1
	movq	%xmm0, %rsi
	testq	%rsi, %rsi
	.loc	12 235 9 is_stmt 0
	je	LBB40_357
Ltmp1464:
	.loc	6 102 14 is_stmt 1
	movl	$1, %edx
	movq	%r14, %rdi
	callq	___rust_dealloc
Ltmp1465:
LBB40_357:
	.loc	3 184 1
	movq	-360(%rbp), %rdi
	testq	%rdi, %rdi
	je	LBB40_360
Ltmp1466:
	.loc	3 184 1 is_stmt 0
	movq	-352(%rbp), %rsi
Ltmp1467:
	.loc	12 235 40 is_stmt 1
	testq	%rsi, %rsi
	.loc	12 235 9 is_stmt 0
	je	LBB40_360
Ltmp1468:
	.loc	6 102 14 is_stmt 1
	movl	$1, %edx
	callq	___rust_dealloc
Ltmp1469:
LBB40_360:
	.loc	6 0 14 is_stmt 0
	movdqa	-64(%rbp), %xmm0
Ltmp1470:
	.loc	12 235 40 is_stmt 1
	movq	%xmm0, %rsi
	testq	%rsi, %rsi
	.loc	12 235 9 is_stmt 0
	je	LBB40_362
Ltmp1471:
	.loc	6 102 14 is_stmt 1
	movl	$1, %edx
	movq	%r15, %rdi
	callq	___rust_dealloc
Ltmp1472:
LBB40_362:
	.loc	10 854 19
	movq	-176(%rbp), %rbx
Ltmp1473:
	.loc	10 2421 81
	movq	-160(%rbp), %rax
Ltmp1474:
	.loc	3 184 1
	testq	%rax, %rax
	je	LBB40_390
Ltmp1475:
	leaq	(%rax,%rax,2), %rax
Ltmp1476:
	leaq	(%rbx,%rax,8), %r14
	jmp	LBB40_365
Ltmp1477:
LBB40_364:
	addq	$24, %rbx
	cmpq	%r14, %rbx
	je	LBB40_389
Ltmp1478:
LBB40_365:
	.loc	3 184 1 is_stmt 0
	movq	(%rbx), %rdi
Ltmp1479:
	.loc	12 507 16 is_stmt 1
	testq	%rdi, %rdi
Ltmp1480:
	.loc	12 235 9
	je	LBB40_364
Ltmp1481:
	.loc	3 0 0 is_stmt 0
	movq	8(%rbx), %rsi
Ltmp1482:
	.loc	12 235 9
	testq	%rsi, %rsi
	je	LBB40_364
Ltmp1483:
	.loc	6 102 14 is_stmt 1
	movl	$1, %edx
	callq	___rust_dealloc
Ltmp1484:
	.loc	6 0 14 is_stmt 0
	jmp	LBB40_364
Ltmp1485:
LBB40_368:
	.loc	3 184 1 is_stmt 1
	movq	-176(%rbp), %rbx
Ltmp1486:
LBB40_369:
	movq	-168(%rbp), %rax
Ltmp1487:
	.loc	12 235 40
	testq	%rax, %rax
	.loc	12 235 9 is_stmt 0
	je	LBB40_373
Ltmp1488:
	.loc	12 507 16 is_stmt 1
	testq	%rbx, %rbx
Ltmp1489:
	je	LBB40_373
Ltmp1490:
	.loc	12 0 0 is_stmt 0
	shlq	$3, %rax
	leaq	(%rax,%rax,2), %rsi
Ltmp1491:
	.loc	12 507 16
	testq	%rsi, %rsi
	je	LBB40_373
Ltmp1492:
	.loc	6 102 14 is_stmt 1
	movl	$8, %edx
	movq	%rbx, %rdi
	callq	___rust_dealloc
Ltmp1493:
LBB40_373:
	.loc	10 854 19
	movq	-152(%rbp), %rbx
Ltmp1494:
	.loc	10 2421 81
	movq	-136(%rbp), %rax
Ltmp1495:
	.loc	3 184 1
	testq	%rax, %rax
	je	LBB40_380
Ltmp1496:
	leaq	(%rax,%rax,2), %rax
Ltmp1497:
	leaq	(%rbx,%rax,8), %r14
	jmp	LBB40_376
Ltmp1498:
	.p2align	4, 0x90
LBB40_375:
	addq	$24, %rbx
	cmpq	%r14, %rbx
	je	LBB40_379
Ltmp1499:
LBB40_376:
	.loc	3 184 1 is_stmt 0
	movq	(%rbx), %rdi
Ltmp1500:
	.loc	12 507 16 is_stmt 1
	testq	%rdi, %rdi
Ltmp1501:
	.loc	12 235 9
	je	LBB40_375
Ltmp1502:
	.loc	3 0 0 is_stmt 0
	movq	8(%rbx), %rsi
Ltmp1503:
	.loc	12 235 9
	testq	%rsi, %rsi
	je	LBB40_375
Ltmp1504:
	.loc	6 102 14 is_stmt 1
	movl	$1, %edx
	callq	___rust_dealloc
Ltmp1505:
	.loc	6 0 14 is_stmt 0
	jmp	LBB40_375
Ltmp1506:
LBB40_379:
	.loc	3 184 1 is_stmt 1
	movq	-152(%rbp), %rbx
Ltmp1507:
LBB40_380:
	movq	-144(%rbp), %rax
Ltmp1508:
	.loc	12 235 40
	testq	%rax, %rax
	.loc	12 235 9 is_stmt 0
	je	LBB40_384
Ltmp1509:
	.loc	12 507 16 is_stmt 1
	testq	%rbx, %rbx
Ltmp1510:
	je	LBB40_384
Ltmp1511:
	.loc	12 0 0 is_stmt 0
	shlq	$3, %rax
	leaq	(%rax,%rax,2), %rsi
Ltmp1512:
	.loc	12 507 16
	testq	%rsi, %rsi
	je	LBB40_384
Ltmp1513:
	.loc	6 102 14 is_stmt 1
	movl	$8, %edx
	movq	%rbx, %rdi
	callq	___rust_dealloc
Ltmp1514:
LBB40_384:
	.loc	3 184 1
	movq	-200(%rbp), %rdi
	testq	%rdi, %rdi
	je	LBB40_387
Ltmp1515:
	.loc	3 184 1 is_stmt 0
	movq	-192(%rbp), %rsi
Ltmp1516:
	.loc	12 235 40 is_stmt 1
	testq	%rsi, %rsi
	.loc	12 235 9 is_stmt 0
	je	LBB40_387
Ltmp1517:
	.loc	6 102 14 is_stmt 1
	movl	$1, %edx
	callq	___rust_dealloc
Ltmp1518:
LBB40_387:
	.loc	3 184 1
	movq	-304(%rbp), %rdi
	testq	%rdi, %rdi
	je	LBB40_409
Ltmp1519:
	.loc	3 184 1 is_stmt 0
	movq	-296(%rbp), %rsi
	jmp	LBB40_407
Ltmp1520:
LBB40_389:
	.loc	3 184 1
	movq	-176(%rbp), %rbx
Ltmp1521:
LBB40_390:
	movq	-168(%rbp), %rax
Ltmp1522:
	.loc	12 235 40 is_stmt 1
	testq	%rax, %rax
	.loc	12 235 9 is_stmt 0
	je	LBB40_394
Ltmp1523:
	.loc	12 507 16 is_stmt 1
	testq	%rbx, %rbx
Ltmp1524:
	je	LBB40_394
Ltmp1525:
	.loc	12 0 0 is_stmt 0
	shlq	$3, %rax
	leaq	(%rax,%rax,2), %rsi
Ltmp1526:
	.loc	12 507 16
	testq	%rsi, %rsi
	je	LBB40_394
Ltmp1527:
	.loc	6 102 14 is_stmt 1
	movl	$8, %edx
	movq	%rbx, %rdi
	callq	___rust_dealloc
Ltmp1528:
LBB40_394:
	.loc	10 854 19
	movq	-152(%rbp), %rbx
Ltmp1529:
	.loc	10 2421 81
	movq	-136(%rbp), %rax
Ltmp1530:
	.loc	3 184 1
	testq	%rax, %rax
	je	LBB40_401
Ltmp1531:
	leaq	(%rax,%rax,2), %rax
Ltmp1532:
	leaq	(%rbx,%rax,8), %r14
	jmp	LBB40_397
Ltmp1533:
LBB40_396:
	addq	$24, %rbx
	cmpq	%r14, %rbx
	je	LBB40_400
Ltmp1534:
LBB40_397:
	.loc	3 184 1 is_stmt 0
	movq	(%rbx), %rdi
Ltmp1535:
	.loc	12 507 16 is_stmt 1
	testq	%rdi, %rdi
Ltmp1536:
	.loc	12 235 9
	je	LBB40_396
Ltmp1537:
	.loc	3 0 0 is_stmt 0
	movq	8(%rbx), %rsi
Ltmp1538:
	.loc	12 235 9
	testq	%rsi, %rsi
	je	LBB40_396
Ltmp1539:
	.loc	6 102 14 is_stmt 1
	movl	$1, %edx
	callq	___rust_dealloc
Ltmp1540:
	.loc	6 0 14 is_stmt 0
	jmp	LBB40_396
Ltmp1541:
LBB40_400:
	.loc	3 184 1 is_stmt 1
	movq	-152(%rbp), %rbx
Ltmp1542:
LBB40_401:
	movq	-144(%rbp), %rax
Ltmp1543:
	.loc	12 235 40
	testq	%rax, %rax
	.loc	12 235 9 is_stmt 0
	je	LBB40_405
Ltmp1544:
	.loc	12 507 16 is_stmt 1
	testq	%rbx, %rbx
Ltmp1545:
	je	LBB40_405
Ltmp1546:
	.loc	12 0 0 is_stmt 0
	shlq	$3, %rax
	leaq	(%rax,%rax,2), %rsi
Ltmp1547:
	.loc	12 507 16
	testq	%rsi, %rsi
	je	LBB40_405
Ltmp1548:
	.loc	6 102 14 is_stmt 1
	movl	$8, %edx
	movq	%rbx, %rdi
	callq	___rust_dealloc
Ltmp1549:
LBB40_405:
	.loc	3 184 1
	movq	-200(%rbp), %rdi
	testq	%rdi, %rdi
	je	LBB40_409
Ltmp1550:
	.loc	3 184 1 is_stmt 0
	movq	-192(%rbp), %rsi
Ltmp1551:
LBB40_407:
	.loc	25 0 0
	testq	%rsi, %rsi
	je	LBB40_409
Ltmp1552:
	movl	$1, %edx
	callq	___rust_dealloc
Ltmp1553:
LBB40_409:
	movq	-224(%rbp), %rdi
	testq	%rdi, %rdi
	je	LBB40_412
Ltmp1554:
	movq	-216(%rbp), %rsi
	testq	%rsi, %rsi
	je	LBB40_412
Ltmp1555:
	movl	$1, %edx
	callq	___rust_dealloc
Ltmp1556:
LBB40_412:
	movq	-600(%rbp), %rdi
	testq	%rdi, %rdi
	je	LBB40_415
Ltmp1557:
LBB40_413:
	movq	-592(%rbp), %rsi
	testq	%rsi, %rsi
Ltmp1558:
	je	LBB40_415
Ltmp1559:
LBB40_414:
	movl	$1, %edx
	callq	___rust_dealloc
Ltmp1560:
LBB40_415:
	.loc	25 119 6 is_stmt 1
	movq	%r13, %rax
	addq	$1064, %rsp
	popq	%rbx
	popq	%r12
	popq	%r13
	popq	%r14
	popq	%r15
	popq	%rbp
	retq
LBB40_416:
	.loc	25 0 0 is_stmt 0
	movl	$64, %edi
	movl	$8, %esi
	callq	__ZN5alloc5alloc18handle_alloc_error17h28974197717b8939E
LBB40_417:
Ltmp1561:
	movl	$1, %esi
	movq	%r15, %rdi
	callq	__ZN5alloc5alloc18handle_alloc_error17h28974197717b8939E
LBB40_418:
Ltmp1562:
	movl	$1, %esi
	movq	%r12, %rdi
	callq	__ZN5alloc5alloc18handle_alloc_error17h28974197717b8939E
Ltmp1563:
LBB40_419:
	movl	$88, %edi
	movl	$8, %esi
	callq	__ZN5alloc5alloc18handle_alloc_error17h28974197717b8939E
Ltmp1564:
LBB40_420:
	movl	$1, %esi
	movq	%r14, %rdi
	callq	__ZN5alloc5alloc18handle_alloc_error17h28974197717b8939E
Ltmp1565:
LBB40_421:
	.loc	6 279 19 is_stmt 1
	movl	$72, %edi
	movl	$8, %esi
	callq	__ZN5alloc5alloc18handle_alloc_error17h28974197717b8939E
Ltmp1566:
LBB40_422:
Ltmp687:
	.loc	6 0 19 is_stmt 0
	movq	%rax, %r14
	leaq	-280(%rbp), %rdi
Ltmp1567:
	.loc	25 118 9 is_stmt 1
	callq	__ZN4core3ptr13drop_in_place17he82c965c71130a31E
	leaq	-336(%rbp), %rdi
	callq	__ZN4core3ptr13drop_in_place17he82c965c71130a31E
	leaq	-672(%rbp), %rdi
	callq	__ZN4core3ptr13drop_in_place17he82c965c71130a31E
	leaq	-360(%rbp), %rdi
	callq	__ZN4core3ptr13drop_in_place17hb56abebfba1d6068E
	leaq	-984(%rbp), %rdi
	callq	__ZN4core3ptr13drop_in_place17he82c965c71130a31E
	leaq	-176(%rbp), %rdi
Ltmp1568:
	.loc	25 119 5
	callq	__ZN4core3ptr13drop_in_place17he8f096e9cebc8128E
	leaq	-152(%rbp), %rdi
Ltmp1569:
	.loc	25 119 5 is_stmt 0
	callq	__ZN4core3ptr13drop_in_place17he8f096e9cebc8128E
	leaq	-200(%rbp), %rdi
	jmp	LBB40_447
LBB40_423:
Ltmp690:
	.loc	25 0 5
	movq	%rax, %r14
	leaq	-336(%rbp), %rdi
Ltmp1570:
	.loc	25 118 9 is_stmt 1
	callq	__ZN4core3ptr13drop_in_place17he82c965c71130a31E
	leaq	-672(%rbp), %rdi
	callq	__ZN4core3ptr13drop_in_place17he82c965c71130a31E
	leaq	-360(%rbp), %rdi
	callq	__ZN4core3ptr13drop_in_place17hb56abebfba1d6068E
	leaq	-984(%rbp), %rdi
	callq	__ZN4core3ptr13drop_in_place17he82c965c71130a31E
	leaq	-176(%rbp), %rdi
Ltmp1571:
	.loc	25 119 5
	callq	__ZN4core3ptr13drop_in_place17he8f096e9cebc8128E
	leaq	-152(%rbp), %rdi
Ltmp1572:
	.loc	25 119 5 is_stmt 0
	callq	__ZN4core3ptr13drop_in_place17he8f096e9cebc8128E
	leaq	-200(%rbp), %rdi
Ltmp1573:
	.loc	25 119 5
	callq	__ZN4core3ptr13drop_in_place17hb56abebfba1d6068E
	leaq	-304(%rbp), %rdi
	jmp	LBB40_447
LBB40_424:
Ltmp693:
	.loc	25 0 5
	movq	%rax, %r14
	leaq	-672(%rbp), %rdi
Ltmp1574:
	.loc	25 118 9 is_stmt 1
	callq	__ZN4core3ptr13drop_in_place17he82c965c71130a31E
	leaq	-360(%rbp), %rdi
	callq	__ZN4core3ptr13drop_in_place17hb56abebfba1d6068E
	leaq	-984(%rbp), %rdi
	callq	__ZN4core3ptr13drop_in_place17he82c965c71130a31E
	leaq	-176(%rbp), %rdi
Ltmp1575:
	.loc	25 119 5
	callq	__ZN4core3ptr13drop_in_place17he8f096e9cebc8128E
	leaq	-152(%rbp), %rdi
Ltmp1576:
	.loc	25 119 5 is_stmt 0
	callq	__ZN4core3ptr13drop_in_place17he8f096e9cebc8128E
	leaq	-200(%rbp), %rdi
Ltmp1577:
	.loc	25 119 5
	callq	__ZN4core3ptr13drop_in_place17hb56abebfba1d6068E
	leaq	-304(%rbp), %rdi
Ltmp1578:
	.loc	25 119 5
	callq	__ZN4core3ptr13drop_in_place17hb56abebfba1d6068E
	leaq	-568(%rbp), %rdi
	jmp	LBB40_447
LBB40_425:
Ltmp696:
	.loc	25 0 5
	movq	%rax, %r14
	leaq	-360(%rbp), %rdi
Ltmp1579:
	.loc	25 118 9 is_stmt 1
	callq	__ZN4core3ptr13drop_in_place17hb56abebfba1d6068E
	leaq	-984(%rbp), %rdi
	callq	__ZN4core3ptr13drop_in_place17he82c965c71130a31E
	leaq	-176(%rbp), %rdi
Ltmp1580:
	.loc	25 119 5
	callq	__ZN4core3ptr13drop_in_place17he8f096e9cebc8128E
	leaq	-152(%rbp), %rdi
Ltmp1581:
	.loc	25 119 5 is_stmt 0
	callq	__ZN4core3ptr13drop_in_place17he8f096e9cebc8128E
	leaq	-200(%rbp), %rdi
Ltmp1582:
	.loc	25 119 5
	callq	__ZN4core3ptr13drop_in_place17hb56abebfba1d6068E
	leaq	-304(%rbp), %rdi
Ltmp1583:
	.loc	25 119 5
	callq	__ZN4core3ptr13drop_in_place17hb56abebfba1d6068E
	leaq	-568(%rbp), %rdi
Ltmp1584:
	.loc	25 119 5
	callq	__ZN4core3ptr13drop_in_place17hb56abebfba1d6068E
	leaq	-648(%rbp), %rdi
	jmp	LBB40_447
Ltmp1585:
LBB40_426:
Ltmp699:
	.loc	25 0 5
	movq	%rax, %r14
	xorl	%ebx, %ebx
	jmp	LBB40_445
Ltmp1586:
LBB40_427:
Ltmp667:
	movq	%rax, %r14
Ltmp1587:
	leaq	-128(%rbp), %rdi
Ltmp1588:
	.loc	31 24 5 is_stmt 1
	callq	__ZN4core3ptr13drop_in_place17h0cd81a301b521febE
	jmp	LBB40_431
Ltmp1589:
LBB40_428:
Ltmp670:
	.loc	31 0 5 is_stmt 0
	movq	%rax, %r14
Ltmp1590:
	leaq	-128(%rbp), %rdi
Ltmp1591:
	.loc	31 24 5
	callq	__ZN4core3ptr13drop_in_place17h08138021b5fce4f7E
	jmp	LBB40_431
Ltmp1592:
LBB40_429:
Ltmp702:
	.loc	31 0 5
	movq	%rax, %r14
Ltmp1593:
	leaq	-128(%rbp), %rdi
Ltmp1594:
	.loc	31 24 5
	callq	__ZN4core3ptr13drop_in_place17h08138021b5fce4f7E
	jmp	LBB40_449
Ltmp1595:
LBB40_430:
Ltmp664:
	.loc	31 0 5
	movq	%rax, %r14
Ltmp1596:
	leaq	-128(%rbp), %rdi
Ltmp1597:
	.loc	11 484 5 is_stmt 1
	callq	__ZN4core3ptr13drop_in_place17h6bcbb01f13be341dE
Ltmp1598:
LBB40_431:
	.loc	11 0 5 is_stmt 0
	leaq	-624(%rbp), %rdi
	jmp	LBB40_450
Ltmp1599:
LBB40_432:
Ltmp673:
	movq	%rax, %r14
Ltmp1600:
	leaq	-128(%rbp), %rdi
	jmp	LBB40_436
Ltmp1601:
LBB40_433:
Ltmp661:
	movq	%rax, %r14
Ltmp1602:
	jmp	LBB40_435
Ltmp1603:
LBB40_434:
Ltmp658:
	movq	%rax, %r14
Ltmp1604:
	leaq	-336(%rbp), %rdi
	.loc	25 65 23 is_stmt 1
	callq	__ZN4core3ptr13drop_in_place17he2a2dfd7733bb68aE
Ltmp1605:
LBB40_435:
	.loc	25 0 23 is_stmt 0
	leaq	-624(%rbp), %rdi
Ltmp1606:
LBB40_436:
	callq	__ZN4core3ptr13drop_in_place17h6bcbb01f13be341dE
	jmp	LBB40_449
Ltmp1607:
LBB40_437:
Ltmp705:
	movq	%rax, %r14
Ltmp1608:
Ltmp706:
	leaq	-672(%rbp), %rdi
Ltmp1609:
	.loc	31 24 5 is_stmt 1
	callq	__ZN4core3ptr13drop_in_place17he39f68c165002fb3E
Ltmp707:
	jmp	LBB40_442
Ltmp1610:
LBB40_438:
Ltmp708:
	.loc	31 0 5 is_stmt 0
	jmp	LBB40_441
Ltmp1611:
LBB40_439:
Ltmp711:
	movq	%rax, %r14
Ltmp1612:
	jmp	LBB40_443
Ltmp1613:
LBB40_440:
Ltmp655:
LBB40_441:
	movq	%rax, %r14
Ltmp1614:
LBB40_442:
	leaq	-544(%rbp), %rdi
	.loc	25 65 23 is_stmt 1
	callq	__ZN4core3ptr13drop_in_place17he21605652a4293c7E
Ltmp1615:
LBB40_443:
	.loc	25 0 23 is_stmt 0
	leaq	-336(%rbp), %rdi
	.loc	25 65 23
	callq	__ZN4core3ptr13drop_in_place17he2a2dfd7733bb68aE
	jmp	LBB40_451
Ltmp1616:
LBB40_444:
Ltmp684:
	.loc	25 0 23
	movq	%rax, %r14
	movb	$1, %bl
LBB40_445:
	leaq	-176(%rbp), %rdi
Ltmp1617:
	.loc	25 119 5 is_stmt 1
	callq	__ZN4core3ptr13drop_in_place17he8f096e9cebc8128E
	leaq	-152(%rbp), %rdi
Ltmp1618:
	.loc	25 119 5 is_stmt 0
	callq	__ZN4core3ptr13drop_in_place17he8f096e9cebc8128E
	leaq	-200(%rbp), %rdi
Ltmp1619:
	.loc	25 119 5
	callq	__ZN4core3ptr13drop_in_place17hb56abebfba1d6068E
	leaq	-304(%rbp), %rdi
Ltmp1620:
	.loc	25 119 5
	callq	__ZN4core3ptr13drop_in_place17hb56abebfba1d6068E
	leaq	-568(%rbp), %rdi
Ltmp1621:
	.loc	25 119 5
	callq	__ZN4core3ptr13drop_in_place17hb56abebfba1d6068E
	leaq	-648(%rbp), %rdi
Ltmp1622:
	.loc	25 119 5
	callq	__ZN4core3ptr13drop_in_place17hb56abebfba1d6068E
	leaq	-904(%rbp), %rdi
Ltmp1623:
	.loc	25 119 5
	callq	__ZN4core3ptr13drop_in_place17hb56abebfba1d6068E
	leaq	-880(%rbp), %rdi
Ltmp1624:
	.loc	25 119 5
	callq	__ZN4core3ptr13drop_in_place17hb56abebfba1d6068E
Ltmp1625:
	.loc	25 119 5
	testb	%bl, %bl
	je	LBB40_448
	.loc	25 0 5
	leaq	-960(%rbp), %rdi
LBB40_447:
	callq	__ZN4core3ptr13drop_in_place17hb56abebfba1d6068E
Ltmp1626:
LBB40_448:
	leaq	-224(%rbp), %rdi
	.loc	25 119 5
	callq	__ZN4core3ptr13drop_in_place17he82c965c71130a31E
Ltmp1627:
LBB40_449:
	.loc	25 119 5
	leaq	-600(%rbp), %rdi
LBB40_450:
	callq	__ZN4core3ptr13drop_in_place17h6bcbb01f13be341dE
Ltmp1628:
LBB40_451:
	.loc	25 0 5
	movq	%r14, %rdi
	callq	__Unwind_Resume
	ud2
Lfunc_end40:
	.cfi_endproc
	.p2align	2, 0x90
	.data_region jt32
.set L40_0_set_45, LBB40_45-LJTI40_0
.set L40_0_set_69, LBB40_69-LJTI40_0
.set L40_0_set_55, LBB40_55-LJTI40_0
.set L40_0_set_34, LBB40_34-LJTI40_0
.set L40_0_set_60, LBB40_60-LJTI40_0
.set L40_0_set_50, LBB40_50-LJTI40_0
.set L40_0_set_74, LBB40_74-LJTI40_0
.set L40_0_set_79, LBB40_79-LJTI40_0
LJTI40_0:
	.long	L40_0_set_45
	.long	L40_0_set_69
	.long	L40_0_set_55
	.long	L40_0_set_34
	.long	L40_0_set_60
	.long	L40_0_set_50
	.long	L40_0_set_34
	.long	L40_0_set_34
	.long	L40_0_set_74
	.long	L40_0_set_34
	.long	L40_0_set_34
	.long	L40_0_set_79
	.end_data_region
	.file	35 "/rustc/6c8927b0cf80ceee19386026cf9d7fd4fd9d486f/src/libcore/iter/adapters/mod.rs"
	.file	36 "/rustc/6c8927b0cf80ceee19386026cf9d7fd4fd9d486f/src/libcore/internal_macros.rs"
	.file	37 "/rustc/6c8927b0cf80ceee19386026cf9d7fd4fd9d486f/src/libcore/ops/function.rs"
	.file	38 "/rustc/6c8927b0cf80ceee19386026cf9d7fd4fd9d486f/src/liballoc/str.rs"
	.section	__TEXT,__gcc_except_tab
	.p2align	2
GCC_except_table40:
Lexception5:
	.byte	255
	.byte	255
	.byte	1
	.uleb128 Lcst_end5-Lcst_begin5
Lcst_begin5:
	.uleb128 Lfunc_begin40-Lfunc_begin40
	.uleb128 Ltmp639-Lfunc_begin40
	.byte	0
	.byte	0
	.uleb128 Ltmp639-Lfunc_begin40
	.uleb128 Ltmp640-Ltmp639
	.uleb128 Ltmp711-Lfunc_begin40
	.byte	0
	.uleb128 Ltmp640-Lfunc_begin40
	.uleb128 Ltmp641-Ltmp640
	.byte	0
	.byte	0
	.uleb128 Ltmp641-Lfunc_begin40
	.uleb128 Ltmp654-Ltmp641
	.uleb128 Ltmp655-Lfunc_begin40
	.byte	0
	.uleb128 Ltmp703-Lfunc_begin40
	.uleb128 Ltmp704-Ltmp703
	.uleb128 Ltmp705-Lfunc_begin40
	.byte	0
	.uleb128 Ltmp709-Lfunc_begin40
	.uleb128 Ltmp710-Ltmp709
	.uleb128 Ltmp711-Lfunc_begin40
	.byte	0
	.uleb128 Ltmp656-Lfunc_begin40
	.uleb128 Ltmp657-Ltmp656
	.uleb128 Ltmp658-Lfunc_begin40
	.byte	0
	.uleb128 Ltmp659-Lfunc_begin40
	.uleb128 Ltmp660-Ltmp659
	.uleb128 Ltmp661-Lfunc_begin40
	.byte	0
	.uleb128 Ltmp671-Lfunc_begin40
	.uleb128 Ltmp672-Ltmp671
	.uleb128 Ltmp673-Lfunc_begin40
	.byte	0
	.uleb128 Ltmp700-Lfunc_begin40
	.uleb128 Ltmp701-Ltmp700
	.uleb128 Ltmp702-Lfunc_begin40
	.byte	0
	.uleb128 Ltmp662-Lfunc_begin40
	.uleb128 Ltmp663-Ltmp662
	.uleb128 Ltmp664-Lfunc_begin40
	.byte	0
	.uleb128 Ltmp668-Lfunc_begin40
	.uleb128 Ltmp669-Ltmp668
	.uleb128 Ltmp670-Lfunc_begin40
	.byte	0
	.uleb128 Ltmp674-Lfunc_begin40
	.uleb128 Ltmp679-Ltmp674
	.uleb128 Ltmp684-Lfunc_begin40
	.byte	0
	.uleb128 Ltmp679-Lfunc_begin40
	.uleb128 Ltmp680-Ltmp679
	.byte	0
	.byte	0
	.uleb128 Ltmp680-Lfunc_begin40
	.uleb128 Ltmp681-Ltmp680
	.uleb128 Ltmp684-Lfunc_begin40
	.byte	0
	.uleb128 Ltmp681-Lfunc_begin40
	.uleb128 Ltmp682-Ltmp681
	.byte	0
	.byte	0
	.uleb128 Ltmp682-Lfunc_begin40
	.uleb128 Ltmp683-Ltmp682
	.uleb128 Ltmp684-Lfunc_begin40
	.byte	0
	.uleb128 Ltmp683-Lfunc_begin40
	.uleb128 Ltmp665-Ltmp683
	.byte	0
	.byte	0
	.uleb128 Ltmp665-Lfunc_begin40
	.uleb128 Ltmp666-Ltmp665
	.uleb128 Ltmp667-Lfunc_begin40
	.byte	0
	.uleb128 Ltmp697-Lfunc_begin40
	.uleb128 Ltmp698-Ltmp697
	.uleb128 Ltmp699-Lfunc_begin40
	.byte	0
	.uleb128 Ltmp694-Lfunc_begin40
	.uleb128 Ltmp695-Ltmp694
	.uleb128 Ltmp696-Lfunc_begin40
	.byte	0
	.uleb128 Ltmp691-Lfunc_begin40
	.uleb128 Ltmp692-Ltmp691
	.uleb128 Ltmp693-Lfunc_begin40
	.byte	0
	.uleb128 Ltmp688-Lfunc_begin40
	.uleb128 Ltmp689-Ltmp688
	.uleb128 Ltmp690-Lfunc_begin40
	.byte	0
	.uleb128 Ltmp685-Lfunc_begin40
	.uleb128 Ltmp686-Ltmp685
	.uleb128 Ltmp687-Lfunc_begin40
	.byte	0
	.uleb128 Ltmp706-Lfunc_begin40
	.uleb128 Ltmp707-Ltmp706
	.uleb128 Ltmp708-Lfunc_begin40
	.byte	0
	.uleb128 Ltmp707-Lfunc_begin40
	.uleb128 Lfunc_end40-Ltmp707
	.byte	0
	.byte	0
Lcst_end5:
	.p2align	2

	.section	__TEXT,__const
l___unnamed_35:
	.ascii	"/rustc/6c8927b0cf80ceee19386026cf9d7fd4fd9d486f/src/liballoc/collections/btree/map.rs"

	.section	__DATA,__const
	.p2align	3
l___unnamed_8:
	.quad	l___unnamed_35
	.asciz	"U\000\000\000\000\000\000\000\323\005\000\000/\000\000"

	.section	__TEXT,__const
l___unnamed_36:
	.ascii	"/rustc/6c8927b0cf80ceee19386026cf9d7fd4fd9d486f/src/libcore/macros/mod.rs"

	.section	__DATA,__const
	.p2align	3
l___unnamed_11:
	.quad	l___unnamed_36
	.asciz	"I\000\000\000\000\000\000\000\023\000\000\000\t\000\000"

	.section	__TEXT,__const
l___unnamed_7:
	.ascii	"called `Option::unwrap()` on a `None` value"

l___unnamed_37:
	.ascii	"internal error: entered unreachable code: "

	.section	__DATA,__const
	.p2align	3
l___unnamed_10:
	.quad	l___unnamed_37
	.asciz	"*\000\000\000\000\000\000"

	.section	__TEXT,__const
l___unnamed_38:
	.ascii	"BTreeMap has different depths"

	.section	__DATA,__const
	.p2align	3
l___unnamed_9:
	.quad	l___unnamed_38
	.asciz	"\035\000\000\000\000\000\000"

	.section	__TEXT,__const
l___unnamed_13:
	.ascii	"failure::ErrorMessage"

l___unnamed_39:
	.ascii	"/rustc/6c8927b0cf80ceee19386026cf9d7fd4fd9d486f/src/libcore/str/pattern.rs"

	.section	__DATA,__const
	.p2align	3
l___unnamed_12:
	.quad	l___unnamed_39
	.asciz	"J\000\000\000\000\000\000\000\260\001\000\000&\000\000"

	.section	__TEXT,__const
l___unnamed_14:
	.ascii	"ErrorMessage"

l___unnamed_15:
	.ascii	"msg"

	.section	__DATA,__const
	.p2align	3
l___unnamed_1:
	.quad	__ZN4core3ptr13drop_in_place17h31e69cdf093088c9E
	.quad	8
	.quad	8
	.quad	__ZN42_$LT$$RF$T$u20$as$u20$core..fmt..Debug$GT$3fmt17h07fc97bc369db525E

	.p2align	3
l___unnamed_2:
	.quad	__ZN4core3ptr13drop_in_place17h31e69cdf093088c9E
	.quad	8
	.quad	8
	.quad	__ZN42_$LT$$RF$T$u20$as$u20$core..fmt..Debug$GT$3fmt17h7f2511abda3d0de6E

	.p2align	3
l___unnamed_3:
	.quad	__ZN4core3ptr13drop_in_place17he39f68c165002fb3E
	.quad	16
	.quad	8
	.quad	__ZN7failure4Fail4name17hc44096c0354d3f02E
	.quad	__ZN7failure4Fail4name17hc44096c0354d3f02E
	.quad	__ZN7failure4Fail9backtrace17h59f7eb110fa8cfeaE
	.quad	0
	.quad	0
	.quad	0
	.quad	0
	.quad	__ZN7failure4Fail23__private_get_type_id__17hbb178d564ee183c2E
	.quad	__ZN60_$LT$std..io..error..Error$u20$as$u20$core..fmt..Display$GT$3fmt17h3716551a80b2cfe9E
	.quad	__ZN58_$LT$std..io..error..Error$u20$as$u20$core..fmt..Debug$GT$3fmt17hd2ddac42b4f82396E

	.p2align	3
l___unnamed_4:
	.quad	__ZN4core3ptr13drop_in_place17h0cd81a301b521febE
	.quad	24
	.quad	8
	.quad	__ZN79_$LT$failure..error_message..ErrorMessage$LT$D$GT$$u20$as$u20$failure..Fail$GT$4name17h4e34c46f61cd3055E
	.quad	__ZN7failure4Fail5cause17h6972816444f65438E
	.quad	__ZN7failure4Fail9backtrace17h6a970857c9a03488E
	.quad	0
	.quad	0
	.quad	0
	.quad	0
	.quad	__ZN7failure4Fail23__private_get_type_id__17h1dbec71a040792cfE
	.quad	__ZN84_$LT$failure..error_message..ErrorMessage$LT$D$GT$$u20$as$u20$core..fmt..Display$GT$3fmt17h4b08893f195a7b7aE
	.quad	__ZN82_$LT$failure..error_message..ErrorMessage$LT$D$GT$$u20$as$u20$core..fmt..Debug$GT$3fmt17hcfb3b7a6678096a9E

	.p2align	3
l___unnamed_5:
	.quad	__ZN4core3ptr13drop_in_place17h31e69cdf093088c9E
	.quad	16
	.quad	8
	.quad	__ZN79_$LT$failure..error_message..ErrorMessage$LT$D$GT$$u20$as$u20$failure..Fail$GT$4name17he9ed986f8d2aff4dE
	.quad	__ZN7failure4Fail4name17hc44096c0354d3f02E
	.quad	__ZN7failure4Fail9backtrace17h59f7eb110fa8cfeaE
	.quad	0
	.quad	0
	.quad	0
	.quad	0
	.quad	__ZN7failure4Fail23__private_get_type_id__17h5af2e84d0c8903c0E
	.quad	__ZN84_$LT$failure..error_message..ErrorMessage$LT$D$GT$$u20$as$u20$core..fmt..Display$GT$3fmt17h57abf8eabbf0476eE
	.quad	__ZN82_$LT$failure..error_message..ErrorMessage$LT$D$GT$$u20$as$u20$core..fmt..Debug$GT$3fmt17h9f0aebc9f4727b3cE

	.p2align	3
l___unnamed_6:
	.quad	__ZN4core3ptr13drop_in_place17h08138021b5fce4f7E
	.quad	40
	.quad	8
	.quad	__ZN7failure4Fail4name17ha421dd169a7a549bE
	.quad	__ZN7failure4Fail4name17ha421dd169a7a549bE
	.quad	__ZN7failure4Fail9backtrace17h0eb10f885928b0f5E
	.quad	0
	.quad	0
	.quad	0
	.quad	0
	.quad	__ZN7failure4Fail23__private_get_type_id__17ha0ae4bd60ace0843E
	.quad	__ZN67_$LT$alloc..string..FromUtf8Error$u20$as$u20$core..fmt..Display$GT$3fmt17h668a6797829d8cc3E
	.quad	__ZN65_$LT$alloc..string..FromUtf8Error$u20$as$u20$core..fmt..Debug$GT$3fmt17hc22b3f69ee816a32E

	.section	__TEXT,__const
l___unnamed_16:
	.ascii	"RUSTC"

l___unnamed_17:
	.ascii	"rustc"

	.section	__TEXT,__literal8,8byte_literals
L___unnamed_18:
	.ascii	"--target"

	.section	__TEXT,__const
l___unnamed_19:
	.ascii	"--print"

l___unnamed_20:
	.ascii	"cfg"

l___unnamed_21:
	.ascii	"target_os"

l___unnamed_24:
	.ascii	"target_family"

l___unnamed_23:
	.ascii	"target_arch"

l___unnamed_25:
	.ascii	"target_endian"

l___unnamed_29:
	.ascii	"target_pointer_width"

l___unnamed_27:
	.ascii	"target_env"

l___unnamed_26:
	.ascii	"target_vendor"

l___unnamed_28:
	.ascii	"target_has_atomic"

l___unnamed_22:
	.ascii	"target_feature"

l___unnamed_30:
	.ascii	"`target_os` is missing"

l___unnamed_31:
	.ascii	"`target_arch` is missing"

l___unnamed_32:
	.ascii	"`target_endian` is missing"

l___unnamed_33:
	.ascii	"`target_pointer_width` is missing"

l___unnamed_34:
	.ascii	"`target_env` is missing"
