	.section	__TEXT,__text,regular,pure_instructions
	.macosx_version_min 10, 7
	.p2align	4, 0x90
__ZN42_$LT$$RF$T$u20$as$u20$core..fmt..Debug$GT$3fmt17h7000531bc09beb92E:
Lfunc_begin0:
	.file	1 "/rustc/a74d1862d4d87a56244958416fd05976c58ca1a8/src/libcore/fmt/mod.rs"
	.loc	1 1973 0
	.cfi_startproc
	pushq	%rbp
	.cfi_def_cfa_offset 16
	.cfi_offset %rbp, -16
	movq	%rsp, %rbp
	.cfi_def_cfa_register %rbp
	movq	%rsi, %rdi
Ltmp0:
	.loc	1 2170 9 prologue_end
	leaq	l___unnamed_3(%rip), %rsi
	movl	$2, %edx
	popq	%rbp
	jmp	__ZN4core3fmt9Formatter3pad17he4a76f49c06ce69bE
Ltmp1:
Lfunc_end0:
	.cfi_endproc

	.p2align	4, 0x90
__ZN4core3ptr13drop_in_place17h5fbc2155cf3688a9E:
Lfunc_begin1:
	.file	2 "/rustc/a74d1862d4d87a56244958416fd05976c58ca1a8/src/libcore/ptr/mod.rs"
	.loc	2 178 0
	.cfi_startproc
	pushq	%rbp
	.cfi_def_cfa_offset 16
	.cfi_offset %rbp, -16
	movq	%rsp, %rbp
	.cfi_def_cfa_register %rbp
Ltmp2:
	.loc	2 178 1 prologue_end
	popq	%rbp
	retq
Ltmp3:
Lfunc_end1:
	.cfi_endproc

	.p2align	4, 0x90
__ZN4core3str6traits101_$LT$impl$u20$core..slice..SliceIndex$LT$str$GT$$u20$for$u20$core..ops..range..Range$LT$usize$GT$$GT$5index28_$u7b$$u7b$closure$u7d$$u7d$17hbac688ed4f6c5d3dE:
Lfunc_begin2:
	.file	3 "/rustc/a74d1862d4d87a56244958416fd05976c58ca1a8/src/libcore/str/mod.rs"
	.loc	3 1920 0
	.cfi_startproc
	pushq	%rbp
	.cfi_def_cfa_offset 16
	.cfi_offset %rbp, -16
	movq	%rsp, %rbp
	.cfi_def_cfa_register %rbp
Ltmp4:
	.loc	3 1920 71 prologue_end
	movq	(%rdi), %rcx
	.loc	3 1920 78 is_stmt 0
	movq	8(%rdi), %rdx
	.loc	3 1920 71
	movq	(%rcx), %rax
	movq	8(%rcx), %rsi
	.loc	3 1920 78
	movq	(%rdx), %rdx
	.loc	3 1920 85
	movq	16(%rdi), %rcx
	movq	(%rcx), %rcx
	.loc	3 1920 47
	leaq	l___unnamed_4(%rip), %r8
	movq	%rax, %rdi
Ltmp5:
	callq	__ZN4core3str16slice_error_fail17h6b29707aec812690E
Ltmp6:
Lfunc_end2:
	.cfi_endproc

	.p2align	4, 0x90
__ZN4core3str6traits103_$LT$impl$u20$core..slice..SliceIndex$LT$str$GT$$u20$for$u20$core..ops..range..RangeTo$LT$usize$GT$$GT$5index28_$u7b$$u7b$closure$u7d$$u7d$17h7fe3ba5e5614193eE:
Lfunc_begin3:
	.loc	3 1987 0 is_stmt 1
	.cfi_startproc
	pushq	%rbp
	.cfi_def_cfa_offset 16
	.cfi_offset %rbp, -16
	movq	%rsp, %rbp
	.cfi_def_cfa_register %rbp
Ltmp7:
	movq	%rsi, %rcx
Ltmp8:
	.loc	3 1987 71 prologue_end
	movq	(%rdi), %rax
	movq	8(%rdi), %rsi
	.loc	3 1987 47 is_stmt 0
	leaq	l___unnamed_5(%rip), %r8
	movq	%rax, %rdi
Ltmp9:
	xorl	%edx, %edx
	callq	__ZN4core3str16slice_error_fail17h6b29707aec812690E
Ltmp10:
Lfunc_end3:
	.cfi_endproc

	.p2align	4, 0x90
__ZN4core3str6traits105_$LT$impl$u20$core..slice..SliceIndex$LT$str$GT$$u20$for$u20$core..ops..range..RangeFrom$LT$usize$GT$$GT$5index28_$u7b$$u7b$closure$u7d$$u7d$17hae339611a1cc31b9E:
Lfunc_begin4:
	.loc	3 2052 0 is_stmt 1
	.cfi_startproc
	pushq	%rbp
	.cfi_def_cfa_offset 16
	.cfi_offset %rbp, -16
	movq	%rsp, %rbp
	.cfi_def_cfa_register %rbp
Ltmp11:
	.loc	3 2052 71 prologue_end
	movq	(%rdi), %rcx
	.loc	3 2052 78 is_stmt 0
	movq	8(%rdi), %rdx
	.loc	3 2052 71
	movq	(%rcx), %rax
	movq	8(%rcx), %rsi
	.loc	3 2052 78
	movq	(%rdx), %rdx
	.loc	3 2052 85
	movq	16(%rdi), %rcx
	movq	(%rcx), %rcx
	.loc	3 2052 47
	leaq	l___unnamed_6(%rip), %r8
	movq	%rax, %rdi
Ltmp12:
	callq	__ZN4core3str16slice_error_fail17h6b29707aec812690E
Ltmp13:
Lfunc_end4:
	.cfi_endproc

	.p2align	4, 0x90
__ZN84_$LT$core..str..Split$LT$P$GT$$u20$as$u20$core..iter..traits..iterator..Iterator$GT$4next17h178aa11a84c5ae27E:
Lfunc_begin5:
	.loc	3 975 0 is_stmt 1
	.cfi_startproc
	pushq	%rbp
	.cfi_def_cfa_offset 16
	.cfi_offset %rbp, -16
	movq	%rsp, %rbp
	.cfi_def_cfa_register %rbp
Ltmp14:
	pushq	%r15
	pushq	%r14
	pushq	%r13
	pushq	%r12
	pushq	%rbx
	subq	$24, %rsp
	.cfi_offset %rbx, -56
	.cfi_offset %r12, -48
	.cfi_offset %r13, -40
	.cfi_offset %r14, -32
	.cfi_offset %r15, -24
	.loc	3 1121 12 prologue_end
	cmpb	$0, 65(%rdi)
	.loc	3 1121 9 is_stmt 0
	jne	LBB5_1
Ltmp15:
	.loc	3 0 9
	movq	%rdi, %r13
Ltmp16:
	.file	4 "/rustc/a74d1862d4d87a56244958416fd05976c58ca1a8/src/libcore/str/pattern.rs"
	.loc	4 369 54 is_stmt 1
	movq	32(%rdi), %rsi
Ltmp17:
	.loc	4 369 67 is_stmt 0
	movq	40(%rdi), %rax
Ltmp18:
	.file	5 "/rustc/a74d1862d4d87a56244958416fd05976c58ca1a8/src/libcore/slice/mod.rs"
	.loc	5 2888 12 is_stmt 1
	movq	%rax, %rdx
	subq	%rsi, %rdx
Ltmp19:
	.loc	4 369 84
	jb	LBB5_16
Ltmp20:
	cmpq	%rax, 24(%r13)
	jb	LBB5_16
Ltmp21:
	.loc	3 0 0 is_stmt 0
	movq	16(%r13), %rcx
Ltmp22:
	.loc	4 372 71 is_stmt 1
	movq	48(%r13), %rax
Ltmp23:
	.loc	4 0 71 is_stmt 0
	movq	%rcx, -56(%rbp)
Ltmp24:
	.loc	5 2888 12 is_stmt 1
	addq	%rcx, %rsi
Ltmp25:
	.loc	4 373 34
	movzbl	59(%rax,%r13), %edi
	callq	__ZN4core5slice6memchr6memchr17h319ffdabcbdf42caE
Ltmp26:
	.loc	4 373 20 is_stmt 0
	cmpq	$1, %rax
	jne	LBB5_15
Ltmp27:
	.loc	4 0 20
	leaq	60(%r13), %rax
	movq	%rax, -48(%rbp)
Ltmp28:
	.p2align	4, 0x90
LBB5_6:
	.loc	4 391 17 is_stmt 1
	movq	32(%r13), %rax
	.loc	4 392 35
	movq	48(%r13), %r15
Ltmp29:
	.loc	4 391 17
	leaq	1(%rdx,%rax), %rbx
Ltmp30:
	movq	%rbx, 32(%r13)
	.loc	4 392 20
	movq	%rbx, %r12
	subq	%r15, %r12
	.loc	4 392 17 is_stmt 0
	jae	LBB5_8
Ltmp31:
	.loc	4 369 25 is_stmt 1
	movq	24(%r13), %r14
Ltmp32:
	.loc	4 369 67 is_stmt 0
	movq	40(%r13), %rax
Ltmp33:
	.loc	5 2888 12 is_stmt 1
	movq	%rax, %rdx
	subq	%rbx, %rdx
	jae	LBB5_13
	jmp	LBB5_16
Ltmp34:
	.p2align	4, 0x90
LBB5_8:
	.loc	4 394 42
	movq	24(%r13), %r14
Ltmp35:
	.loc	5 2888 37
	cmpq	%rbx, %r14
Ltmp36:
	.loc	4 394 28
	jb	LBB5_12
Ltmp37:
	.loc	5 2918 19
	cmpq	$5, %r15
	.loc	5 2918 16 is_stmt 0
	jae	LBB5_23
Ltmp38:
	.loc	5 0 16
	movq	16(%r13), %rdi
	addq	%r12, %rdi
Ltmp39:
	.loc	5 5863 12 is_stmt 1
	cmpq	-48(%rbp), %rdi
	.loc	5 5863 9 is_stmt 0
	je	LBB5_21
Ltmp40:
	.loc	5 0 9
	movq	-48(%rbp), %rsi
Ltmp41:
	.loc	5 5868 13 is_stmt 1
	movq	%r15, %rdx
Ltmp42:
	callq	_bcmp
Ltmp43:
	testl	%eax, %eax
Ltmp44:
	.loc	4 395 25
	je	LBB5_21
Ltmp45:
LBB5_12:
	.loc	4 369 67
	movq	40(%r13), %rax
Ltmp46:
	.loc	5 2888 12
	movq	%rax, %rdx
	subq	%rbx, %rdx
Ltmp47:
	.loc	4 369 84
	jb	LBB5_16
Ltmp48:
LBB5_13:
	cmpq	%rax, %r14
	jb	LBB5_16
Ltmp49:
	.loc	5 2888 12
	addq	16(%r13), %rbx
Ltmp50:
	.loc	4 373 34
	movzbl	59(%r15,%r13), %edi
	movq	%rbx, %rsi
	callq	__ZN4core5slice6memchr6memchr17h319ffdabcbdf42caE
Ltmp51:
	.loc	4 373 20 is_stmt 0
	cmpq	$1, %rax
	je	LBB5_6
Ltmp52:
LBB5_15:
	.loc	4 402 31 is_stmt 1
	movq	40(%r13), %rax
	.loc	4 402 17 is_stmt 0
	movq	%rax, 32(%r13)
Ltmp53:
LBB5_16:
	.loc	3 1107 13 is_stmt 1
	cmpb	$0, 65(%r13)
	.loc	3 1107 12 is_stmt 0
	je	LBB5_17
Ltmp54:
LBB5_1:
	.loc	3 0 12
	xorl	%eax, %eax
LBB5_22:
	.loc	3 977 14 is_stmt 1
	movq	%r12, %rdx
	addq	$24, %rsp
	popq	%rbx
	popq	%r12
	popq	%r13
	popq	%r14
	popq	%r15
	popq	%rbp
	retq
LBB5_17:
Ltmp55:
	.loc	3 1107 31
	cmpb	$0, 64(%r13)
	.loc	3 1107 30 is_stmt 0
	je	LBB5_19
Ltmp56:
	.loc	3 1111 68 is_stmt 1
	movq	(%r13), %rax
	.loc	3 1111 80 is_stmt 0
	movq	8(%r13), %r12
	jmp	LBB5_20
Ltmp57:
LBB5_19:
	.loc	3 1107 71 is_stmt 1
	movq	(%r13), %rax
	.loc	3 1107 60 is_stmt 0
	movq	8(%r13), %r12
	cmpq	%rax, %r12
	.loc	3 1107 12
	je	LBB5_1
Ltmp58:
LBB5_20:
	.loc	3 1108 13 is_stmt 1
	movb	$1, 65(%r13)
Ltmp59:
	.loc	3 1908 23
	subq	%rax, %r12
Ltmp60:
	.file	6 "/rustc/a74d1862d4d87a56244958416fd05976c58ca1a8/src/libcore/ptr/const_ptr.rs"
	.loc	6 158 9
	addq	16(%r13), %rax
Ltmp61:
	.loc	6 0 9 is_stmt 0
	jmp	LBB5_22
Ltmp62:
LBB5_21:
	.loc	3 1129 50 is_stmt 1
	movq	(%r13), %rcx
Ltmp63:
	.loc	3 0 50 is_stmt 0
	movq	-56(%rbp), %rax
Ltmp64:
	.loc	6 158 9 is_stmt 1
	addq	%rcx, %rax
Ltmp65:
	.loc	3 1908 23
	subq	%rcx, %r12
Ltmp66:
	.loc	3 1130 17
	movq	%rbx, (%r13)
	jmp	LBB5_22
Ltmp67:
LBB5_23:
	.loc	5 2919 13
	leaq	l___unnamed_7(%rip), %rdx
Ltmp68:
	movl	$4, %esi
	movq	%r15, %rdi
	callq	__ZN4core5slice20slice_index_len_fail17h550a313151a85135E
Ltmp69:
Lfunc_end5:
	.cfi_endproc
	.file	7 "/rustc/a74d1862d4d87a56244958416fd05976c58ca1a8/src/libcore/cmp.rs"

	.globl	__ZN71_$LT$rustc_demangle..legacy..Demangle$u20$as$u20$core..fmt..Display$GT$3fmt17he4efd693d010d3a5E
	.p2align	4, 0x90
__ZN71_$LT$rustc_demangle..legacy..Demangle$u20$as$u20$core..fmt..Display$GT$3fmt17he4efd693d010d3a5E:
Lfunc_begin6:
	.file	8 "/Users/yingyuhang/.cargo/registry/src/github.com-1ecc6299db9ec823/rustc-demangle-0.1.16/src/legacy.rs"
	.loc	8 108 0
	.cfi_startproc
	pushq	%rbp
	.cfi_def_cfa_offset 16
	.cfi_offset %rbp, -16
	movq	%rsp, %rbp
	.cfi_def_cfa_register %rbp
	pushq	%r15
	pushq	%r14
	pushq	%r13
	pushq	%r12
	pushq	%rbx
	subq	$152, %rsp
	.cfi_offset %rbx, -56
	.cfi_offset %r12, -48
	.cfi_offset %r13, -40
	.cfi_offset %r14, -32
	.cfi_offset %r15, -24
	movq	%rsi, -136(%rbp)
Ltmp70:
	.loc	8 110 25 prologue_end
	movq	(%rdi), %r13
Ltmp71:
	movq	8(%rdi), %r14
Ltmp72:
	.loc	8 111 27
	movq	16(%rdi), %rax
	movq	%rax, -184(%rbp)
	xorl	%eax, %eax
	movq	%rax, -168(%rbp)
	movq	-168(%rbp), %r11
Ltmp73:
	.loc	7 1137 52
	cmpq	-184(%rbp), %r11
Ltmp74:
	.file	9 "/rustc/a74d1862d4d87a56244958416fd05976c58ca1a8/src/libcore/iter/range.rs"
	.loc	9 211 9
	jne	LBB6_2
	jmp	LBB6_57
Ltmp75:
LBB6_137:
	.loc	4 402 31
	movq	-104(%rbp), %rax
	.loc	4 402 17 is_stmt 0
	movq	%rax, -112(%rbp)
Ltmp76:
LBB6_138:
	.loc	4 0 17
	movq	-160(%rbp), %r14
	movq	-144(%rbp), %r13
Ltmp77:
LBB6_139:
	movq	-136(%rbp), %rdi
	.loc	8 187 18 is_stmt 1
	movq	%r12, %rsi
	movq	%r13, %rdx
	callq	__ZN4core3fmt9Formatter9write_str17h957ea9717e49073dE
Ltmp78:
	.loc	8 0 0 is_stmt 0
	movq	%r14, %r13
Ltmp79:
	.loc	8 187 13
	testb	%al, %al
	movq	-192(%rbp), %r14
	jne	LBB6_140
Ltmp80:
	.loc	8 0 13
	movq	-168(%rbp), %r11
Ltmp81:
	.loc	7 1137 52 is_stmt 1
	cmpq	-184(%rbp), %r11
Ltmp82:
	.loc	9 211 9
	je	LBB6_57
Ltmp83:
LBB6_2:
	.loc	5 3179 9
	testq	%r14, %r14
	.loc	5 3303 21
	je	LBB6_30
Ltmp84:
	.loc	8 0 0 is_stmt 0
	leaq	1(%r11), %rax
	movq	%rax, -168(%rbp)
Ltmp85:
	leaq	(%r13,%r14), %r9
Ltmp86:
	.loc	3 520 5 is_stmt 1
	leaq	-1(%r14), %r8
	xorl	%ebx, %ebx
	movq	%r14, %r15
Ltmp87:
	.loc	3 519 13
	movzbl	(%r13,%rbx), %esi
Ltmp88:
	.loc	3 520 8
	testb	%sil, %sil
	.loc	3 520 5 is_stmt 0
	jns	LBB6_19
	jmp	LBB6_5
Ltmp89:
	.p2align	4, 0x90
LBB6_29:
	.loc	3 2040 23 is_stmt 1
	decq	%r15
Ltmp90:
	.loc	5 3179 9
	incq	%rbx
	cmpq	%rbx, %r14
	.loc	5 3303 21
	je	LBB6_30
Ltmp91:
	.loc	3 519 13
	movzbl	(%r13,%rbx), %esi
Ltmp92:
	.loc	3 520 8
	testb	%sil, %sil
	.loc	3 520 5 is_stmt 0
	jns	LBB6_19
Ltmp93:
LBB6_5:
	.loc	3 0 5
	xorl	%edx, %edx
Ltmp94:
	movq	%r9, %rax
Ltmp95:
	.loc	5 3179 9 is_stmt 1
	cmpq	%rbx, %r8
	.loc	5 3303 21
	je	LBB6_7
Ltmp96:
	.loc	3 508 15
	leaq	2(%r13,%rbx), %rax
	movzbl	1(%r13,%rbx), %edx
	.loc	3 507 5
	andl	$63, %edx
Ltmp97:
LBB6_7:
	.loc	3 0 0 is_stmt 0
	movl	%esi, %edi
Ltmp98:
	andl	$31, %edi
Ltmp99:
	.loc	3 530 8 is_stmt 1
	cmpb	$-33, %sil
	.loc	3 530 5 is_stmt 0
	jbe	LBB6_8
Ltmp100:
	.loc	5 3179 9 is_stmt 1
	cmpq	%r9, %rax
	.loc	5 3303 21
	je	LBB6_11
Ltmp101:
	.loc	3 508 15
	movzbl	(%rax), %ecx
Ltmp102:
	.file	10 "/rustc/a74d1862d4d87a56244958416fd05976c58ca1a8/src/libcore/ptr/mut_ptr.rs"
	.loc	10 152 9
	incq	%rax
Ltmp103:
	.loc	3 507 5
	andl	$63, %ecx
Ltmp104:
	.loc	3 495 5
	shll	$6, %edx
	orl	%ecx, %edx
Ltmp105:
	.loc	3 536 12
	cmpb	$-16, %sil
	.loc	3 536 9 is_stmt 0
	jb	LBB6_14
Ltmp106:
LBB6_15:
	.loc	5 3179 9 is_stmt 1
	cmpq	%r9, %rax
	.loc	5 3303 21
	je	LBB6_16
Ltmp107:
	.loc	3 508 15
	movzbl	(%rax), %eax
	.loc	3 507 5
	andl	$63, %eax
	jmp	LBB6_18
Ltmp108:
LBB6_8:
	.loc	3 0 5 is_stmt 0
	shll	$6, %edi
Ltmp109:
	jmp	LBB6_9
Ltmp110:
LBB6_11:
	xorl	%ecx, %ecx
	movq	%r9, %rax
Ltmp111:
	.loc	3 495 5 is_stmt 1
	shll	$6, %edx
	orl	%ecx, %edx
Ltmp112:
	.loc	3 536 12
	cmpb	$-16, %sil
	.loc	3 536 9 is_stmt 0
	jae	LBB6_15
Ltmp113:
LBB6_14:
	.loc	3 0 9
	shll	$12, %edi
Ltmp114:
LBB6_9:
	orl	%edi, %edx
Ltmp115:
	movl	%edx, %esi
Ltmp116:
	leaq	(%r13,%rbx), %r12
Ltmp117:
	addl	$-48, %esi
Ltmp118:
	cmpl	$10, %esi
	jb	LBB6_26
	jmp	LBB6_20
Ltmp119:
LBB6_16:
	xorl	%eax, %eax
Ltmp120:
LBB6_18:
	.loc	3 540 18 is_stmt 1
	andl	$7, %edi
Ltmp121:
	shll	$18, %edi
Ltmp122:
	.loc	3 495 5
	shll	$6, %edx
Ltmp123:
	orl	%edi, %edx
Ltmp124:
	.loc	3 540 13
	orl	%eax, %edx
Ltmp125:
	.loc	3 0 13 is_stmt 0
	movl	%edx, %esi
Ltmp126:
	.file	11 "/rustc/a74d1862d4d87a56244958416fd05976c58ca1a8/src/libcore/option.rs"
	.loc	11 387 13 is_stmt 1
	cmpl	$1114112, %edx
Ltmp127:
	je	LBB6_30
Ltmp128:
	.p2align	4, 0x90
LBB6_19:
	.loc	8 0 0 is_stmt 0
	leaq	(%r13,%rbx), %r12
Ltmp129:
	addl	$-48, %esi
Ltmp130:
	cmpl	$10, %esi
	.file	12 "/rustc/a74d1862d4d87a56244958416fd05976c58ca1a8/src/libcore/char/methods.rs"
	.loc	12 121 17 is_stmt 1
	jae	LBB6_20
Ltmp131:
LBB6_26:
	.loc	12 0 17 is_stmt 0
	movq	%r12, -72(%rbp)
	movq	%r15, -64(%rbp)
Ltmp132:
	.loc	3 2051 18 is_stmt 1
	movq	$1, -48(%rbp)
	.loc	3 2051 25 is_stmt 0
	movq	%r15, -56(%rbp)
Ltmp133:
	.loc	3 2303 12 is_stmt 1
	cmpq	$1, %r15
	je	LBB6_29
Ltmp134:
	testq	%r15, %r15
	je	LBB6_227
Ltmp135:
	.loc	3 2309 25
	cmpb	$-65, 1(%r13,%rbx)
	jg	LBB6_29
	jmp	LBB6_227
Ltmp136:
	.p2align	4, 0x90
LBB6_20:
	.loc	8 116 36
	movq	%r14, %rdx
	subq	%r15, %rdx
	jb	LBB6_223
Ltmp137:
	.loc	8 0 36 is_stmt 0
	movq	%r11, -144(%rbp)
Ltmp138:
	movq	%r13, -128(%rbp)
	movq	%r14, -120(%rbp)
Ltmp139:
	.loc	3 2303 12 is_stmt 1
	testq	%rdx, %rdx
	je	LBB6_31
Ltmp140:
	cmpq	%rdx, %r14
	je	LBB6_31
Ltmp141:
	.loc	3 2307 13
	jbe	LBB6_25
Ltmp142:
	.loc	3 2309 25
	cmpb	$-65, (%r13,%rdx)
Ltmp143:
	.loc	3 1958 13
	jle	LBB6_25
Ltmp144:
LBB6_31:
	.loc	3 4280 9
	leaq	-128(%rbp), %rdi
	movq	%r13, %rsi
	callq	__ZN4core3num54_$LT$impl$u20$core..str..FromStr$u20$for$u20$usize$GT$8from_str17hde79bf6128128228E
Ltmp145:
	.file	13 "/rustc/a74d1862d4d87a56244958416fd05976c58ca1a8/src/libcore/result.rs"
	.loc	13 1004 13
	cmpb	$1, -128(%rbp)
	je	LBB6_228
Ltmp146:
	.loc	13 1004 16 is_stmt 0
	movq	-120(%rbp), %rsi
Ltmp147:
	.loc	8 116 79 is_stmt 1
	subq	%rsi, %r14
Ltmp148:
	.loc	8 0 79 is_stmt 0
	movq	%r12, -72(%rbp)
	movq	%r15, -64(%rbp)
Ltmp149:
	.loc	3 2051 18 is_stmt 1
	movq	%rsi, -48(%rbp)
	.loc	3 2051 25 is_stmt 0
	movq	%r15, -56(%rbp)
Ltmp150:
	.loc	3 2303 12 is_stmt 1
	testq	%rsi, %rsi
	sete	%cl
	.loc	3 2303 26 is_stmt 0
	subq	%rbx, %r14
	sete	%al
	.loc	3 2303 12
	orb	%cl, %al
	jne	LBB6_35
Ltmp151:
	.loc	5 2851 12 is_stmt 1
	cmpq	%rsi, %r15
Ltmp152:
	.loc	3 2307 13
	jbe	LBB6_227
Ltmp153:
	.loc	3 2309 19
	leaq	(%r13,%rsi), %rcx
Ltmp154:
	.loc	3 2309 25 is_stmt 0
	cmpb	$-65, (%rbx,%rcx)
Ltmp155:
	.loc	3 2021 13 is_stmt 1
	jle	LBB6_227
Ltmp156:
LBB6_35:
	.loc	3 0 13 is_stmt 0
	movq	%r14, -192(%rbp)
Ltmp157:
	.loc	3 2040 23 is_stmt 1
	leaq	(%r13,%rsi), %r14
Ltmp158:
	.loc	3 0 23 is_stmt 0
	movq	%r12, -128(%rbp)
	movq	%r15, -120(%rbp)
Ltmp159:
	.loc	3 2303 12 is_stmt 1
	testb	%al, %al
	jne	LBB6_38
Ltmp160:
	.loc	5 2851 12
	cmpq	%rsi, %r15
Ltmp161:
	.loc	3 2307 13
	jbe	LBB6_229
Ltmp162:
	.loc	3 2309 25
	cmpb	$-65, (%r14,%rbx)
Ltmp163:
	.loc	3 1958 13
	jle	LBB6_229
Ltmp164:
LBB6_38:
	.loc	3 0 13 is_stmt 0
	movq	%rsi, %r15
Ltmp165:
	addq	%rbx, %r14
Ltmp166:
	movq	-136(%rbp), %rdi
	.loc	8 121 16 is_stmt 1
	callq	__ZN4core3fmt9Formatter9alternate17hd5ca56d2d01a1343E
Ltmp167:
	testb	%al, %al
	movq	-144(%rbp), %r10
	je	LBB6_39
Ltmp168:
	.loc	8 121 33 is_stmt 0
	cmpq	$-1, %r10
	je	LBB6_224
Ltmp169:
	.loc	3 2303 12 is_stmt 1
	testq	%r15, %r15
Ltmp170:
	.loc	8 121 16
	je	LBB6_39
Ltmp171:
	.loc	8 0 16 is_stmt 0
	movq	-168(%rbp), %rax
	.loc	8 121 16
	cmpq	-184(%rbp), %rax
	jne	LBB6_39
Ltmp172:
	.loc	5 5868 13 is_stmt 1
	cmpb	$104, (%r13,%rbx)
Ltmp173:
	.loc	5 1430 9
	jne	LBB6_39
Ltmp174:
	.loc	5 0 9 is_stmt 0
	movq	%r12, -72(%rbp)
	movq	%r15, -64(%rbp)
Ltmp175:
	.loc	3 2051 18 is_stmt 1
	movq	$1, -48(%rbp)
	.loc	3 2051 25 is_stmt 0
	movq	%r15, -56(%rbp)
Ltmp176:
	.loc	3 2303 26 is_stmt 1
	cmpq	$1, %r15
	.loc	3 2303 12 is_stmt 0
	je	LBB6_57
Ltmp177:
	.loc	8 0 0
	leaq	1(%r13,%rbx), %rax
Ltmp178:
	.loc	3 2309 19 is_stmt 1
	movb	(%rax), %cl
Ltmp179:
	.loc	3 2309 25 is_stmt 0
	cmpb	$-65, %cl
Ltmp180:
	.loc	3 2021 13 is_stmt 1
	jle	LBB6_227
Ltmp181:
	.loc	3 0 13 is_stmt 0
	movq	%r15, %r8
Ltmp182:
	.loc	3 520 5 is_stmt 1
	negq	%r8
	movq	%r13, %r9
	negq	%r9
Ltmp183:
	.loc	3 520 8 is_stmt 0
	testb	%cl, %cl
	.loc	3 520 5
	js	LBB6_62
Ltmp184:
	.p2align	4, 0x90
LBB6_76:
	.loc	3 0 0
	incq	%rax
Ltmp185:
	.loc	3 521 21 is_stmt 1
	movzbl	%cl, %esi
Ltmp186:
	.loc	12 0 0 is_stmt 0
	leal	-48(%rsi), %ecx
Ltmp187:
	cmpl	$10, %ecx
	.loc	12 126 17 is_stmt 1
	jae	LBB6_78
	jmp	LBB6_81
Ltmp188:
	.p2align	4, 0x90
LBB6_62:
	.loc	3 0 0 is_stmt 0
	leaq	(%rax,%r8), %rdx
	leaq	1(%r9,%rdx), %rsi
Ltmp189:
	.loc	3 489 5 is_stmt 1
	movl	%ecx, %edx
	andb	$31, %dl
Ltmp190:
	.loc	5 3179 9
	cmpq	%rbx, %rsi
	.loc	5 3303 21
	je	LBB6_63
Ltmp191:
	.loc	3 508 15
	movzbl	1(%rax), %esi
Ltmp192:
	.loc	10 152 9
	addq	$2, %rax
Ltmp193:
	.loc	3 507 5
	andl	$63, %esi
Ltmp194:
	.loc	3 0 0 is_stmt 0
	movzbl	%dl, %edi
Ltmp195:
	.loc	3 530 8 is_stmt 1
	cmpb	$-33, %cl
	.loc	3 530 5 is_stmt 0
	jbe	LBB6_66
Ltmp196:
LBB6_67:
	.loc	3 0 0
	leaq	(%rax,%r8), %rdx
	addq	%r9, %rdx
Ltmp197:
	.loc	5 3179 9 is_stmt 1
	cmpq	%rbx, %rdx
	.loc	5 3303 21
	je	LBB6_68
Ltmp198:
	.loc	3 508 15
	movzbl	(%rax), %edx
Ltmp199:
	.loc	10 152 9
	incq	%rax
Ltmp200:
	.loc	3 507 5
	andl	$63, %edx
Ltmp201:
	.loc	3 495 5
	shll	$6, %esi
	orl	%edx, %esi
Ltmp202:
	.loc	3 536 12
	cmpb	$-16, %cl
	.loc	3 536 9 is_stmt 0
	jb	LBB6_71
Ltmp203:
LBB6_72:
	.loc	3 0 0
	leaq	(%rax,%r8), %rcx
Ltmp204:
	addq	%r9, %rcx
Ltmp205:
	.loc	5 3179 9 is_stmt 1
	cmpq	%rbx, %rcx
	.loc	5 3303 21
	je	LBB6_73
Ltmp206:
	.loc	3 508 15
	movzbl	(%rax), %ecx
Ltmp207:
	.loc	10 152 9
	incq	%rax
Ltmp208:
	.loc	3 507 5
	andl	$63, %ecx
	jmp	LBB6_75
Ltmp209:
	.p2align	4, 0x90
LBB6_63:
	.loc	3 0 5 is_stmt 0
	xorl	%esi, %esi
	movq	%r14, %rax
	movzbl	%dl, %edi
Ltmp210:
	.loc	3 530 8 is_stmt 1
	cmpb	$-33, %cl
	.loc	3 530 5 is_stmt 0
	ja	LBB6_67
Ltmp211:
LBB6_66:
	.loc	3 0 5
	shll	$6, %edi
Ltmp212:
	orl	%edi, %esi
Ltmp213:
	leal	-48(%rsi), %ecx
Ltmp214:
	cmpl	$10, %ecx
	.loc	12 126 17 is_stmt 1
	jae	LBB6_78
	jmp	LBB6_81
Ltmp215:
LBB6_68:
	.loc	12 0 17 is_stmt 0
	xorl	%edx, %edx
	movq	%r14, %rax
Ltmp216:
	.loc	3 495 5 is_stmt 1
	shll	$6, %esi
	orl	%edx, %esi
Ltmp217:
	.loc	3 536 12
	cmpb	$-16, %cl
	.loc	3 536 9 is_stmt 0
	jae	LBB6_72
Ltmp218:
LBB6_71:
	.loc	3 0 9
	shll	$12, %edi
Ltmp219:
	orl	%edi, %esi
Ltmp220:
	leal	-48(%rsi), %ecx
Ltmp221:
	cmpl	$10, %ecx
	.loc	12 126 17 is_stmt 1
	jae	LBB6_78
	jmp	LBB6_81
Ltmp222:
LBB6_73:
	.loc	12 0 17 is_stmt 0
	xorl	%ecx, %ecx
	movq	%r14, %rax
Ltmp223:
LBB6_75:
	.loc	3 540 18 is_stmt 1
	andl	$7, %edi
Ltmp224:
	shll	$18, %edi
Ltmp225:
	.loc	3 495 5
	shll	$6, %esi
Ltmp226:
	orl	%edi, %esi
Ltmp227:
	.loc	3 540 13
	orl	%ecx, %esi
Ltmp228:
	.file	14 "/rustc/a74d1862d4d87a56244958416fd05976c58ca1a8/src/libcore/iter/traits/iterator.rs"
	.loc	14 1877 19
	cmpl	$1114112, %esi
	je	LBB6_57
Ltmp229:
	.p2align	4, 0x90
	.loc	12 0 0 is_stmt 0
	leal	-48(%rsi), %ecx
	cmpl	$10, %ecx
	.loc	12 126 17 is_stmt 1
	jb	LBB6_81
Ltmp230:
LBB6_78:
	.loc	12 127 17
	leal	-97(%rsi), %edx
	movl	$-87, %ecx
	cmpl	$26, %edx
	jb	LBB6_80
Ltmp231:
	.loc	12 128 17
	leal	-65(%rsi), %edx
	movl	$-55, %ecx
	cmpl	$25, %edx
	ja	LBB6_39
Ltmp232:
LBB6_80:
	.loc	12 0 0 is_stmt 0
	addl	%ecx, %esi
Ltmp233:
	.loc	12 133 12 is_stmt 1
	cmpl	$15, %esi
Ltmp234:
	.loc	14 2092 17
	ja	LBB6_39
Ltmp235:
LBB6_81:
	.loc	14 0 0 is_stmt 0
	leaq	(%rax,%r8), %rcx
	addq	%r9, %rcx
Ltmp236:
	.loc	5 3179 9 is_stmt 1
	cmpq	%rbx, %rcx
	.loc	5 3303 21
	je	LBB6_57
Ltmp237:
	.loc	3 519 13
	movb	(%rax), %cl
Ltmp238:
	.loc	3 520 8
	testb	%cl, %cl
	jns	LBB6_76
	jmp	LBB6_62
Ltmp239:
	.p2align	4, 0x90
LBB6_39:
	.loc	8 124 16
	testq	%r10, %r10
	.loc	8 124 13 is_stmt 0
	je	LBB6_41
Ltmp240:
	.loc	8 125 22 is_stmt 1
	movl	$2, %edx
	movq	-136(%rbp), %rdi
	leaq	l___unnamed_8(%rip), %rsi
	callq	__ZN4core3fmt9Formatter9write_str17h957ea9717e49073dE
	.loc	8 125 17 is_stmt 0
	testb	%al, %al
	jne	LBB6_140
Ltmp241:
LBB6_41:
	.loc	8 0 17
	movq	%r15, %rcx
Ltmp242:
	.loc	5 1430 9 is_stmt 1
	cmpq	$2, %r15
Ltmp243:
	jb	LBB6_46
Ltmp244:
	.loc	5 0 9 is_stmt 0
	leaq	l___unnamed_9(%rip), %rax
	subq	%r13, %rax
Ltmp245:
	.loc	5 5863 12 is_stmt 1
	cmpq	%rbx, %rax
Ltmp246:
	.loc	5 5863 9 is_stmt 0
	je	LBB6_44
Ltmp247:
	.loc	5 5868 13 is_stmt 1
	movzwl	(%r13,%rbx), %eax
	cmpl	$9311, %eax
Ltmp248:
	.loc	5 1430 9
	jne	LBB6_46
Ltmp249:
LBB6_44:
	.loc	5 0 9 is_stmt 0
	movq	%r12, -72(%rbp)
	movq	%rcx, -64(%rbp)
Ltmp250:
	.loc	3 2051 18 is_stmt 1
	movq	$1, -48(%rbp)
	.loc	3 2051 25 is_stmt 0
	movq	%rcx, -56(%rbp)
Ltmp251:
	.loc	3 2309 25 is_stmt 1
	cmpb	$-65, 1(%r12)
Ltmp252:
	.loc	3 2021 13
	jle	LBB6_227
Ltmp253:
	.loc	3 2040 23
	decq	%rcx
Ltmp254:
	.loc	3 2053 9
	leaq	1(%r13,%rbx), %r12
Ltmp255:
LBB6_46:
	.loc	3 0 9 is_stmt 0
	movq	%r14, -160(%rbp)
Ltmp256:
LBB6_47:
	movq	%rcx, %r13
Ltmp257:
	.loc	5 1430 9 is_stmt 1
	testq	%rcx, %rcx
	je	LBB6_50
Ltmp258:
LBB6_48:
	.loc	5 5868 13
	cmpb	$46, (%r12)
Ltmp259:
	.loc	5 1430 9
	jne	LBB6_49
Ltmp260:
	.loc	5 0 9 is_stmt 0
	movq	%r12, -72(%rbp)
	movq	%r13, -64(%rbp)
Ltmp261:
	.loc	3 2051 18 is_stmt 1
	movq	$1, -48(%rbp)
	.loc	3 2051 25 is_stmt 0
	movq	%r13, -56(%rbp)
Ltmp262:
	.loc	3 2303 26 is_stmt 1
	cmpq	$1, %r13
	.loc	3 2303 12 is_stmt 0
	je	LBB6_88
Ltmp263:
	.loc	3 2309 25 is_stmt 1
	cmpb	$-65, 1(%r12)
Ltmp264:
	.loc	3 2021 13
	jle	LBB6_227
Ltmp265:
LBB6_88:
	.loc	3 2303 26
	cmpq	$1, %r13
Ltmp266:
	.loc	5 3303 21
	je	LBB6_106
Ltmp267:
	.loc	3 519 13
	movzbl	1(%r12), %ecx
Ltmp268:
	.loc	3 520 8
	testb	%cl, %cl
	.loc	3 520 5 is_stmt 0
	js	LBB6_90
Ltmp269:
	.loc	8 132 33 is_stmt 1
	cmpl	$46, %ecx
	.loc	8 132 28 is_stmt 0
	jne	LBB6_106
Ltmp270:
LBB6_110:
	.loc	8 133 30 is_stmt 1
	movl	$2, %edx
	movq	-136(%rbp), %rdi
	leaq	l___unnamed_8(%rip), %rsi
	callq	__ZN4core3fmt9Formatter9write_str17h957ea9717e49073dE
	.loc	8 133 25 is_stmt 0
	testb	%al, %al
	jne	LBB6_140
Ltmp271:
	.loc	8 0 25
	movq	%r12, -72(%rbp)
	addq	$2, %r12
Ltmp272:
	movq	%r13, -64(%rbp)
Ltmp273:
	.loc	3 2051 18 is_stmt 1
	movq	$2, -48(%rbp)
	.loc	3 2051 25 is_stmt 0
	movq	%r13, -56(%rbp)
Ltmp274:
	.loc	3 2303 26 is_stmt 1
	cmpq	$2, %r13
	.loc	3 2303 12 is_stmt 0
	je	LBB6_113
Ltmp275:
	.loc	3 2309 25 is_stmt 1
	cmpb	$-65, (%r12)
Ltmp276:
	.loc	3 2021 13
	jle	LBB6_227
Ltmp277:
LBB6_113:
	.loc	3 2040 23
	addq	$-2, %r13
Ltmp278:
	.loc	8 0 0 is_stmt 0
	movq	%r13, %rcx
Ltmp279:
	movq	%rcx, %r13
Ltmp280:
	.loc	5 1430 9 is_stmt 1
	testq	%rcx, %rcx
	jne	LBB6_48
	jmp	LBB6_50
Ltmp281:
	.p2align	4, 0x90
LBB6_49:
	.loc	5 5868 13
	cmpb	$36, (%r12)
Ltmp282:
	.loc	5 1430 9
	jne	LBB6_50
Ltmp283:
	.loc	5 0 9 is_stmt 0
	movq	%r12, -72(%rbp)
	movq	%r13, -64(%rbp)
Ltmp284:
	.loc	3 2051 18 is_stmt 1
	movq	$1, -48(%rbp)
	.loc	3 2051 25 is_stmt 0
	movq	%r13, -56(%rbp)
Ltmp285:
	.loc	3 2303 26 is_stmt 1
	cmpq	$1, %r13
	.loc	3 2303 12 is_stmt 0
	je	LBB6_135
Ltmp286:
	.loc	3 2309 25 is_stmt 1
	cmpb	$-65, 1(%r12)
Ltmp287:
	.loc	3 2021 13
	jle	LBB6_227
Ltmp288:
LBB6_135:
	.loc	6 158 9
	leaq	1(%r12), %rsi
Ltmp289:
	.loc	6 0 9 is_stmt 0
	movq	%r13, -144(%rbp)
Ltmp290:
	.loc	3 2040 23 is_stmt 1
	leaq	-1(%r13), %rdx
Ltmp291:
	.loc	4 501 9
	movq	%rsi, -128(%rbp)
	movq	%rdx, -120(%rbp)
	movq	$0, -112(%rbp)
	movq	%rdx, -104(%rbp)
	movabsq	$154618822692, %rax
	movq	%rax, -88(%rbp)
	movq	$1, -96(%rbp)
Ltmp292:
	.loc	4 373 34
	movl	$36, %edi
	movq	%rsi, -80(%rbp)
Ltmp293:
	callq	__ZN4core5slice6memchr6memchr17h319ffdabcbdf42caE
Ltmp294:
	.loc	4 373 20 is_stmt 0
	cmpq	$1, %rax
	jne	LBB6_137
Ltmp295:
	.p2align	4, 0x90
LBB6_141:
	.loc	4 391 17 is_stmt 1
	movq	-112(%rbp), %rax
	.loc	4 392 35
	movq	-96(%rbp), %r14
Ltmp296:
	.loc	4 391 17
	leaq	1(%rdx,%rax), %rbx
Ltmp297:
	movq	%rbx, -112(%rbp)
	.loc	4 392 20
	movq	%rbx, %r15
	subq	%r14, %r15
	.loc	4 392 17 is_stmt 0
	jae	LBB6_143
Ltmp298:
	.loc	4 369 25 is_stmt 1
	movq	-120(%rbp), %r13
Ltmp299:
	.loc	4 369 67 is_stmt 0
	movq	-104(%rbp), %rax
Ltmp300:
	.loc	5 2888 12 is_stmt 1
	movq	%rax, %rdx
	subq	%rbx, %rdx
	jae	LBB6_148
	jmp	LBB6_138
Ltmp301:
	.p2align	4, 0x90
LBB6_143:
	.loc	4 394 42
	movq	-120(%rbp), %r13
Ltmp302:
	.loc	5 2888 37
	cmpq	%rbx, %r13
Ltmp303:
	.loc	4 394 28
	jb	LBB6_147
Ltmp304:
	.loc	5 2918 19
	cmpq	$5, %r14
	.loc	5 2918 16 is_stmt 0
	jae	LBB6_230
Ltmp305:
	.loc	5 0 16
	movq	-128(%rbp), %rdi
	addq	%r15, %rdi
Ltmp306:
	.loc	5 5863 12 is_stmt 1
	leaq	-84(%rbp), %rax
	cmpq	%rax, %rdi
	.loc	5 5863 9 is_stmt 0
	je	LBB6_150
Ltmp307:
	.loc	5 5868 13 is_stmt 1
	leaq	-84(%rbp), %rsi
	movq	%r14, %rdx
Ltmp308:
	callq	_bcmp
Ltmp309:
	testl	%eax, %eax
Ltmp310:
	.loc	4 395 25
	je	LBB6_150
Ltmp311:
LBB6_147:
	.loc	4 369 67
	movq	-104(%rbp), %rax
Ltmp312:
	.loc	5 2888 12
	movq	%rax, %rdx
	subq	%rbx, %rdx
Ltmp313:
	.loc	4 369 84
	jb	LBB6_138
Ltmp314:
LBB6_148:
	cmpq	%rax, %r13
	jb	LBB6_138
Ltmp315:
	.loc	5 2888 12
	addq	-128(%rbp), %rbx
Ltmp316:
	.loc	4 373 34
	leaq	-128(%rbp), %rax
	movzbl	43(%r14,%rax), %edi
	movq	%rbx, %rsi
Ltmp317:
	callq	__ZN4core5slice6memchr6memchr17h319ffdabcbdf42caE
Ltmp318:
	.loc	4 373 20 is_stmt 0
	cmpq	$1, %rax
	je	LBB6_141
	jmp	LBB6_137
Ltmp319:
	.p2align	4, 0x90
LBB6_50:
	.loc	6 158 9 is_stmt 1
	leaq	(%r12,%r13), %r8
Ltmp320:
	.loc	3 0 0 is_stmt 0
	xorl	%eax, %eax
Ltmp321:
	.loc	5 3188 21 is_stmt 1
	movq	%r12, %rcx
Ltmp322:
	.p2align	4, 0x90
LBB6_51:
	.loc	5 3179 9
	cmpq	%rcx, %r8
	.loc	5 3303 21
	je	LBB6_139
Ltmp323:
	.loc	3 0 0 is_stmt 0
	movq	%rax, %rbx
Ltmp324:
	.loc	10 152 9 is_stmt 1
	leaq	1(%rcx), %rdx
Ltmp325:
	.loc	3 519 13
	movzbl	(%rcx), %edi
Ltmp326:
	.loc	3 520 8
	testb	%dil, %dil
	.loc	3 520 5 is_stmt 0
	jns	LBB6_127
Ltmp327:
	.loc	5 3179 9 is_stmt 1
	cmpq	%r8, %rdx
	.loc	5 3303 21
	je	LBB6_54
Ltmp328:
	.loc	10 152 9
	leaq	2(%rcx), %rdx
Ltmp329:
	.loc	3 508 15
	movzbl	1(%rcx), %esi
	.loc	3 507 5
	andl	$63, %esi
	movq	%rdx, %r9
Ltmp330:
	.loc	3 0 0 is_stmt 0
	movl	%edi, %eax
	andl	$31, %eax
Ltmp331:
	.loc	3 530 8 is_stmt 1
	cmpb	$-33, %dil
	.loc	3 530 5 is_stmt 0
	jbe	LBB6_116
Ltmp332:
LBB6_118:
	.loc	5 3179 9 is_stmt 1
	cmpq	%r8, %r9
	.loc	5 3303 21
	je	LBB6_119
Ltmp333:
	.loc	3 508 15
	movzbl	(%r9), %r10d
Ltmp334:
	.loc	10 152 9
	incq	%r9
Ltmp335:
	.loc	3 507 5
	andl	$63, %r10d
	movq	%r9, %rdx
Ltmp336:
	.loc	3 495 5
	shll	$6, %esi
	orl	%r10d, %esi
Ltmp337:
	.loc	3 536 12
	cmpb	$-16, %dil
	.loc	3 536 9 is_stmt 0
	jb	LBB6_122
Ltmp338:
LBB6_123:
	.loc	5 3179 9 is_stmt 1
	cmpq	%r8, %r9
	.loc	5 3303 21
	je	LBB6_124
Ltmp339:
	.loc	3 508 15
	movzbl	(%r9), %edi
Ltmp340:
	.loc	10 152 9
	incq	%r9
Ltmp341:
	.loc	3 507 5
	andl	$63, %edi
	movq	%r9, %rdx
	jmp	LBB6_126
Ltmp342:
LBB6_54:
	.loc	3 0 5 is_stmt 0
	xorl	%esi, %esi
	movq	%r8, %r9
	movl	%edi, %eax
	andl	$31, %eax
Ltmp343:
	.loc	3 530 8 is_stmt 1
	cmpb	$-33, %dil
	.loc	3 530 5 is_stmt 0
	ja	LBB6_118
Ltmp344:
LBB6_116:
	.loc	3 0 5
	shll	$6, %eax
Ltmp345:
	jmp	LBB6_117
Ltmp346:
LBB6_119:
	xorl	%r10d, %r10d
	movq	%r8, %r9
Ltmp347:
	.loc	3 495 5 is_stmt 1
	shll	$6, %esi
	orl	%r10d, %esi
Ltmp348:
	.loc	3 536 12
	cmpb	$-16, %dil
	.loc	3 536 9 is_stmt 0
	jae	LBB6_123
Ltmp349:
LBB6_122:
	.loc	3 0 9
	shll	$12, %eax
Ltmp350:
LBB6_117:
	orl	%eax, %esi
Ltmp351:
	movl	%esi, %edi
Ltmp352:
	.loc	8 180 55 is_stmt 1
	cmpl	$36, %edi
	jne	LBB6_128
	jmp	LBB6_129
Ltmp353:
LBB6_124:
	.loc	8 0 55 is_stmt 0
	xorl	%edi, %edi
Ltmp354:
LBB6_126:
	.loc	3 540 18 is_stmt 1
	andl	$7, %eax
Ltmp355:
	shll	$18, %eax
Ltmp356:
	.loc	3 495 5
	shll	$6, %esi
Ltmp357:
	orl	%eax, %esi
Ltmp358:
	.loc	3 540 13
	orl	%edi, %esi
Ltmp359:
	.loc	3 0 13 is_stmt 0
	movl	%esi, %edi
Ltmp360:
	.loc	3 693 13 is_stmt 1
	cmpl	$1114112, %esi
Ltmp361:
	je	LBB6_139
Ltmp362:
	.p2align	4, 0x90
LBB6_127:
	.loc	8 180 55
	cmpl	$36, %edi
	je	LBB6_129
Ltmp363:
LBB6_128:
	.loc	4 0 0 is_stmt 0
	movq	%rbx, %rax
	subq	%rcx, %rax
	addq	%rdx, %rax
Ltmp364:
	.loc	5 3188 21 is_stmt 1
	movq	%rdx, %rcx
Ltmp365:
	.loc	8 180 55
	cmpl	$46, %edi
	jne	LBB6_51
Ltmp366:
LBB6_129:
	.loc	8 0 55 is_stmt 0
	movq	%r12, -128(%rbp)
	movq	%r13, -120(%rbp)
Ltmp367:
	.loc	3 2303 12 is_stmt 1
	testq	%rbx, %rbx
	sete	%al
	.loc	3 2303 26 is_stmt 0
	movq	%r13, %r14
	subq	%rbx, %r14
	sete	%r15b
Ltmp368:
	.loc	3 2303 12
	orb	%al, %r15b
	jne	LBB6_218
Ltmp369:
	.loc	5 2851 12 is_stmt 1
	cmpq	%rbx, %r13
Ltmp370:
	.loc	3 2307 13
	jbe	LBB6_132
Ltmp371:
	.loc	3 2309 25
	cmpb	$-65, (%r12,%rbx)
Ltmp372:
	.loc	3 1958 13
	jle	LBB6_132
Ltmp373:
LBB6_218:
	.loc	3 0 13 is_stmt 0
	movq	-136(%rbp), %rdi
	.loc	8 181 26 is_stmt 1
	movq	%r12, %rsi
	movq	%rbx, %rdx
	callq	__ZN4core3fmt9Formatter9write_str17h957ea9717e49073dE
	.loc	8 181 21 is_stmt 0
	testb	%al, %al
	jne	LBB6_140
Ltmp374:
	.loc	8 0 21
	movq	%r12, -72(%rbp)
	movq	%r13, -64(%rbp)
Ltmp375:
	.loc	3 2051 18 is_stmt 1
	movq	%rbx, -48(%rbp)
	.loc	3 2051 25 is_stmt 0
	movq	%r13, -56(%rbp)
Ltmp376:
	.loc	3 2303 12 is_stmt 1
	testb	%r15b, %r15b
	jne	LBB6_222
Ltmp377:
	.loc	5 2851 12
	cmpq	%rbx, %r13
Ltmp378:
	.loc	3 2307 13
	jbe	LBB6_227
Ltmp379:
	.loc	3 2309 25
	cmpb	$-65, (%r12,%rbx)
Ltmp380:
	.loc	3 2021 13
	jle	LBB6_227
Ltmp381:
LBB6_222:
	.loc	6 158 9
	addq	%rbx, %r12
Ltmp382:
	.loc	6 0 9 is_stmt 0
	movq	%r14, %rcx
Ltmp383:
	movq	-160(%rbp), %r14
Ltmp384:
	movq	%rcx, %r13
Ltmp385:
	.loc	5 1430 9 is_stmt 1
	testq	%rcx, %rcx
	jne	LBB6_48
	jmp	LBB6_50
Ltmp386:
LBB6_90:
	.loc	8 0 0 is_stmt 0
	leaq	(%r12,%r13), %rsi
Ltmp387:
	xorl	%eax, %eax
Ltmp388:
	movq	%rsi, %rdi
Ltmp389:
	.loc	5 3179 9 is_stmt 1
	cmpq	$2, %r13
	.loc	5 3303 21
	je	LBB6_92
Ltmp390:
	.loc	10 152 9
	leaq	3(%r12), %rdi
Ltmp391:
	.loc	3 508 15
	movzbl	2(%r12), %eax
	.loc	3 507 5
	andl	$63, %eax
Ltmp392:
LBB6_92:
	.loc	3 0 0 is_stmt 0
	movl	%ecx, %edx
	andl	$31, %edx
Ltmp393:
	.loc	3 530 8 is_stmt 1
	cmpb	$-33, %cl
	.loc	3 530 5 is_stmt 0
	jbe	LBB6_93
Ltmp394:
	.loc	5 3179 9 is_stmt 1
	cmpq	%rsi, %rdi
	.loc	5 3303 21
	je	LBB6_96
Ltmp395:
	.loc	3 508 15
	movzbl	(%rdi), %ebx
Ltmp396:
	.loc	10 152 9
	incq	%rdi
Ltmp397:
	.loc	3 507 5
	andl	$63, %ebx
Ltmp398:
	.loc	3 495 5
	shll	$6, %eax
	orl	%ebx, %eax
Ltmp399:
	.loc	3 536 12
	cmpb	$-16, %cl
	.loc	3 536 9 is_stmt 0
	jb	LBB6_99
Ltmp400:
LBB6_100:
	.loc	5 3179 9 is_stmt 1
	cmpq	%rsi, %rdi
	.loc	5 3303 21
	je	LBB6_101
Ltmp401:
	.loc	3 508 15
	movzbl	(%rdi), %ecx
Ltmp402:
	.loc	3 507 5
	andl	$63, %ecx
	jmp	LBB6_103
Ltmp403:
LBB6_150:
	.loc	8 141 35
	movq	%r15, %r9
	incq	%r9
	je	LBB6_225
Ltmp404:
	.loc	8 0 35 is_stmt 0
	movq	%r12, -72(%rbp)
	movq	-144(%rbp), %r13
	movq	%r13, -64(%rbp)
Ltmp405:
	.loc	3 1919 18 is_stmt 1
	movq	$1, -48(%rbp)
	.loc	3 1919 25 is_stmt 0
	movq	%r9, -56(%rbp)
Ltmp406:
	.loc	3 1883 16 is_stmt 1
	testq	%r9, %r9
	movq	-160(%rbp), %r14
	movq	-80(%rbp), %rdi
	je	LBB6_179
Ltmp407:
	.loc	3 2303 26
	cmpq	$1, %r13
Ltmp408:
	.loc	3 2303 12 is_stmt 0
	je	LBB6_153
Ltmp409:
	.loc	3 2309 25 is_stmt 1
	cmpb	$-65, (%rdi)
Ltmp410:
	.loc	3 1883 16
	jle	LBB6_179
Ltmp411:
LBB6_153:
	.loc	3 2303 26
	cmpq	%r9, %r13
	.loc	3 2303 12 is_stmt 0
	je	LBB6_156
Ltmp412:
	.loc	3 2307 13 is_stmt 1
	jbe	LBB6_179
Ltmp413:
	.loc	3 2309 25
	cmpb	$-65, (%r12,%r9)
Ltmp414:
	.loc	3 1883 16
	jle	LBB6_179
Ltmp415:
LBB6_156:
	.loc	8 141 51
	addq	$2, %r15
	jb	LBB6_226
Ltmp416:
	.loc	8 0 51 is_stmt 0
	movq	%r12, -72(%rbp)
	movq	%r13, -64(%rbp)
Ltmp417:
	.loc	3 2051 18 is_stmt 1
	movq	%r15, -48(%rbp)
	.loc	3 2051 25 is_stmt 0
	movq	%r13, -56(%rbp)
Ltmp418:
	.loc	3 2303 12 is_stmt 1
	testq	%r15, %r15
	je	LBB6_161
Ltmp419:
	cmpq	%r15, %r13
	je	LBB6_161
Ltmp420:
	.loc	3 2307 13
	jbe	LBB6_227
Ltmp421:
	.loc	3 2309 25
	cmpb	$-65, (%r12,%r15)
Ltmp422:
	.loc	3 2021 13
	jle	LBB6_227
Ltmp423:
LBB6_161:
	.loc	8 0 0 is_stmt 0
	leaq	-1(%r9), %rdx
Ltmp424:
	.loc	6 158 9 is_stmt 1
	leaq	(%r12,%r15), %rbx
Ltmp425:
	.loc	3 2040 23
	movq	%r13, %rax
	subq	%r15, %rax
Ltmp426:
	.loc	5 5860 9
	cmpq	$2, %r9
	movq	%rax, -176(%rbp)
Ltmp427:
	je	LBB6_180
Ltmp428:
	cmpq	$3, %r9
	jne	LBB6_183
Ltmp429:
	.loc	8 0 0 is_stmt 0
	leaq	l___unnamed_10(%rip), %rsi
Ltmp430:
	.loc	5 5863 12 is_stmt 1
	leaq	l___unnamed_11(%rip), %rax
Ltmp431:
	cmpq	%rax, %rdi
	.loc	5 5863 9 is_stmt 0
	je	LBB6_182
Ltmp432:
	.loc	5 0 9
	movq	-80(%rbp), %rdi
Ltmp433:
	.loc	5 5868 13 is_stmt 1
	leaq	l___unnamed_11(%rip), %rsi
	movq	%r9, -152(%rbp)
	movq	%rdx, %r15
	callq	_bcmp
Ltmp434:
	.loc	5 0 13 is_stmt 0
	movq	-80(%rbp), %rcx
Ltmp435:
	leaq	l___unnamed_10(%rip), %rsi
Ltmp436:
	.loc	5 5868 13
	testl	%eax, %eax
Ltmp437:
	.loc	8 148 25 is_stmt 1
	je	LBB6_182
Ltmp438:
	.loc	8 0 0 is_stmt 0
	leaq	l___unnamed_12(%rip), %rsi
Ltmp439:
	.loc	5 5863 12 is_stmt 1
	leaq	l___unnamed_13(%rip), %rax
	cmpq	%rax, %rcx
	.loc	5 5863 9 is_stmt 0
	je	LBB6_182
Ltmp440:
	.loc	5 0 9
	movq	%r15, %rdx
Ltmp441:
	movq	-80(%rbp), %rdi
Ltmp442:
	.loc	5 5868 13 is_stmt 1
	leaq	l___unnamed_13(%rip), %rsi
	callq	_bcmp
	movq	-80(%rbp), %rcx
Ltmp443:
	.loc	8 0 0 is_stmt 0
	leaq	l___unnamed_12(%rip), %rsi
Ltmp444:
	.loc	5 5868 13
	testl	%eax, %eax
Ltmp445:
	.loc	8 149 25 is_stmt 1
	je	LBB6_182
Ltmp446:
	.loc	8 0 0 is_stmt 0
	leaq	l___unnamed_14(%rip), %rsi
Ltmp447:
	.loc	5 5863 12 is_stmt 1
	leaq	l___unnamed_15(%rip), %rax
	cmpq	%rax, %rcx
	.loc	5 5863 9 is_stmt 0
	je	LBB6_182
Ltmp448:
	.loc	5 0 9
	movq	%r15, %rdx
Ltmp449:
	movq	-80(%rbp), %rdi
Ltmp450:
	.loc	5 5868 13 is_stmt 1
	leaq	l___unnamed_15(%rip), %rsi
	callq	_bcmp
	movq	-80(%rbp), %rcx
Ltmp451:
	.loc	8 0 0 is_stmt 0
	leaq	l___unnamed_14(%rip), %rsi
Ltmp452:
	.loc	5 5868 13
	testl	%eax, %eax
Ltmp453:
	.loc	8 150 25 is_stmt 1
	je	LBB6_182
Ltmp454:
	.loc	8 0 0 is_stmt 0
	leaq	l___unnamed_16(%rip), %rsi
Ltmp455:
	.loc	5 5863 12 is_stmt 1
	leaq	l___unnamed_17(%rip), %rax
	cmpq	%rax, %rcx
	.loc	5 5863 9 is_stmt 0
	je	LBB6_182
Ltmp456:
	.loc	5 0 9
	movq	%r15, %rdx
Ltmp457:
	movq	-80(%rbp), %rdi
Ltmp458:
	.loc	5 5868 13 is_stmt 1
	leaq	l___unnamed_17(%rip), %rsi
	callq	_bcmp
	movq	-80(%rbp), %rcx
Ltmp459:
	.loc	8 0 0 is_stmt 0
	leaq	l___unnamed_16(%rip), %rsi
Ltmp460:
	.loc	5 5868 13
	testl	%eax, %eax
Ltmp461:
	.loc	8 151 25 is_stmt 1
	je	LBB6_182
Ltmp462:
	.loc	8 0 0 is_stmt 0
	leaq	l___unnamed_18(%rip), %rsi
Ltmp463:
	.loc	5 5863 12 is_stmt 1
	leaq	l___unnamed_19(%rip), %rax
	cmpq	%rax, %rcx
	.loc	5 5863 9 is_stmt 0
	je	LBB6_182
Ltmp464:
	.loc	5 0 9
	movq	%r15, %rdx
Ltmp465:
	movq	-80(%rbp), %rdi
Ltmp466:
	.loc	5 5868 13 is_stmt 1
	leaq	l___unnamed_19(%rip), %rsi
	callq	_bcmp
	movq	-80(%rbp), %rcx
Ltmp467:
	.loc	8 0 0 is_stmt 0
	leaq	l___unnamed_18(%rip), %rsi
Ltmp468:
	.loc	5 5868 13
	testl	%eax, %eax
Ltmp469:
	.loc	8 152 25 is_stmt 1
	je	LBB6_182
Ltmp470:
	.loc	8 0 0 is_stmt 0
	leaq	l___unnamed_20(%rip), %rsi
Ltmp471:
	.loc	5 5863 12 is_stmt 1
	leaq	l___unnamed_21(%rip), %rax
	cmpq	%rax, %rcx
	.loc	5 5863 9 is_stmt 0
	je	LBB6_182
Ltmp472:
	.loc	5 0 9
	movq	%r15, %rdx
Ltmp473:
	movq	-80(%rbp), %rdi
Ltmp474:
	.loc	5 5868 13 is_stmt 1
	leaq	l___unnamed_21(%rip), %rsi
	callq	_bcmp
	movq	-80(%rbp), %rcx
Ltmp475:
	.loc	8 0 0 is_stmt 0
	leaq	l___unnamed_20(%rip), %rsi
Ltmp476:
	.loc	5 5868 13
	testl	%eax, %eax
Ltmp477:
	.loc	8 153 25 is_stmt 1
	je	LBB6_182
Ltmp478:
	.loc	8 0 0 is_stmt 0
	leaq	l___unnamed_22(%rip), %rsi
Ltmp479:
	.loc	5 5863 12 is_stmt 1
	leaq	l___unnamed_23(%rip), %rax
	cmpq	%rax, %rcx
	.loc	5 5863 9 is_stmt 0
	je	LBB6_182
Ltmp480:
	.loc	5 0 9
	movq	%r15, %rdx
Ltmp481:
	movq	-80(%rbp), %rdi
Ltmp482:
	.loc	5 5868 13 is_stmt 1
	leaq	l___unnamed_23(%rip), %rsi
	callq	_bcmp
	movq	-80(%rbp), %rdi
	movq	-152(%rbp), %r9
Ltmp483:
	.loc	8 0 0 is_stmt 0
	leaq	l___unnamed_22(%rip), %rsi
Ltmp484:
	.loc	5 5868 13
	testl	%eax, %eax
Ltmp485:
	.loc	8 154 25 is_stmt 1
	je	LBB6_182
Ltmp486:
	.loc	8 0 25 is_stmt 0
	movq	%r15, %rdx
	jmp	LBB6_184
Ltmp487:
LBB6_93:
	shll	$6, %edx
Ltmp488:
	orl	%edx, %eax
Ltmp489:
	movl	%eax, %ecx
Ltmp490:
	.loc	8 132 33 is_stmt 1
	cmpl	$46, %ecx
	.loc	8 132 28 is_stmt 0
	je	LBB6_110
	jmp	LBB6_106
Ltmp491:
LBB6_96:
	.loc	8 0 28
	xorl	%ebx, %ebx
	movq	%rsi, %rdi
Ltmp492:
	.loc	3 495 5 is_stmt 1
	shll	$6, %eax
	orl	%ebx, %eax
Ltmp493:
	.loc	3 536 12
	cmpb	$-16, %cl
	.loc	3 536 9 is_stmt 0
	jae	LBB6_100
Ltmp494:
LBB6_99:
	.loc	3 0 9
	shll	$12, %edx
Ltmp495:
	orl	%edx, %eax
Ltmp496:
	movl	%eax, %ecx
Ltmp497:
	.loc	8 132 33 is_stmt 1
	cmpl	$46, %ecx
	.loc	8 132 28 is_stmt 0
	je	LBB6_110
	jmp	LBB6_106
Ltmp498:
LBB6_180:
	.loc	8 0 0
	leaq	l___unnamed_24(%rip), %rsi
Ltmp499:
	.loc	5 5863 12 is_stmt 1
	leaq	l___unnamed_25(%rip), %rax
Ltmp500:
	cmpq	%rax, %rdi
	.loc	5 5863 9 is_stmt 0
	je	LBB6_182
Ltmp501:
	.loc	5 0 9
	movq	-80(%rbp), %rdi
Ltmp502:
	.loc	5 5868 13 is_stmt 1
	leaq	l___unnamed_25(%rip), %rsi
	movq	%rbx, -152(%rbp)
Ltmp503:
	.loc	5 0 13 is_stmt 0
	movq	%r9, %rbx
	movq	%rdx, %r15
	.loc	5 5868 13
	callq	_bcmp
Ltmp504:
	.loc	5 0 13
	movq	%r15, %rdx
	movq	-80(%rbp), %rdi
	movq	%rbx, %r9
	movq	-152(%rbp), %rbx
Ltmp505:
	movb	$1, %cl
Ltmp506:
	leaq	l___unnamed_24(%rip), %rsi
Ltmp507:
	.loc	5 5868 13
	testl	%eax, %eax
Ltmp508:
	.loc	8 155 25 is_stmt 1
	jne	LBB6_185
Ltmp509:
LBB6_182:
	.loc	8 178 26
	movl	$1, %edx
	movq	-136(%rbp), %rdi
	callq	__ZN4core3fmt9Formatter9write_str17h957ea9717e49073dE
Ltmp510:
	.loc	8 0 0 is_stmt 0
	movq	%rbx, %r12
Ltmp511:
	testb	%al, %al
Ltmp512:
	movq	-176(%rbp), %rcx
	je	LBB6_47
	jmp	LBB6_140
Ltmp513:
LBB6_183:
	.loc	5 1430 9 is_stmt 1
	testq	%rdx, %rdx
	je	LBB6_139
Ltmp514:
LBB6_184:
	.loc	5 0 9 is_stmt 0
	xorl	%ecx, %ecx
Ltmp515:
LBB6_185:
	.loc	5 5868 13 is_stmt 1
	cmpb	$117, (%rdi)
Ltmp516:
	.loc	5 1430 9
	jne	LBB6_139
Ltmp517:
	.loc	5 0 9 is_stmt 0
	movq	%rbx, %r15
Ltmp518:
	movq	%rdi, -72(%rbp)
	movq	%rdx, -64(%rbp)
Ltmp519:
	.loc	3 2051 18 is_stmt 1
	movq	$1, -48(%rbp)
	.loc	3 2051 25 is_stmt 0
	movq	%rdx, -56(%rbp)
Ltmp520:
	.loc	3 2303 12 is_stmt 1
	testb	%cl, %cl
	jne	LBB6_189
Ltmp521:
	.loc	5 2851 12
	cmpq	$2, %rdx
Ltmp522:
	.loc	3 2307 13
	jb	LBB6_227
Ltmp523:
	.loc	3 2309 25
	cmpb	$-65, 2(%r12)
Ltmp524:
	.loc	3 2021 13
	jle	LBB6_227
Ltmp525:
LBB6_189:
	.loc	6 158 9
	leaq	2(%r12), %rdi
Ltmp526:
	.loc	6 158 9 is_stmt 0
	leaq	(%r12,%r9), %r8
Ltmp527:
	.loc	3 2040 23 is_stmt 1
	addq	$-2, %r9
Ltmp528:
	.loc	5 3179 9
	movq	%rdi, %rcx
Ltmp529:
	.p2align	4, 0x90
LBB6_190:
	cmpq	%r8, %rcx
	.loc	5 3303 21
	je	LBB6_211
Ltmp530:
	.loc	10 152 9
	leaq	1(%rcx), %rax
Ltmp531:
	.loc	3 519 13
	movzbl	(%rcx), %esi
Ltmp532:
	.loc	3 520 8
	testb	%sil, %sil
	.loc	3 520 5 is_stmt 0
	js	LBB6_196
Ltmp533:
	.loc	3 0 5
	movq	%rax, %rcx
Ltmp534:
	.loc	8 161 49 is_stmt 1
	leal	-97(%rsi), %eax
	cmpl	$6, %eax
	jae	LBB6_194
	jmp	LBB6_190
Ltmp535:
	.p2align	4, 0x90
LBB6_196:
	.loc	5 3179 9
	cmpq	%r8, %rax
	.loc	5 3303 21
	je	LBB6_197
Ltmp536:
	.loc	3 508 15
	movzbl	1(%rcx), %edx
Ltmp537:
	.loc	10 152 9
	addq	$2, %rcx
Ltmp538:
	.loc	3 507 5
	andl	$63, %edx
Ltmp539:
	.loc	3 0 0 is_stmt 0
	movl	%esi, %ebx
	andl	$31, %ebx
Ltmp540:
	.loc	3 530 8 is_stmt 1
	cmpb	$-33, %sil
	.loc	3 530 5 is_stmt 0
	jbe	LBB6_200
Ltmp541:
LBB6_202:
	.loc	5 3179 9 is_stmt 1
	cmpq	%r8, %rcx
	.loc	5 3303 21
	je	LBB6_203
Ltmp542:
	.loc	3 508 15
	movzbl	(%rcx), %eax
Ltmp543:
	.loc	10 152 9
	incq	%rcx
Ltmp544:
	.loc	3 507 5
	andl	$63, %eax
Ltmp545:
	.loc	3 495 5
	shll	$6, %edx
	orl	%eax, %edx
Ltmp546:
	.loc	3 536 12
	cmpb	$-16, %sil
	.loc	3 536 9 is_stmt 0
	jb	LBB6_206
Ltmp547:
LBB6_207:
	.loc	5 3179 9 is_stmt 1
	cmpq	%r8, %rcx
	.loc	5 3303 21
	je	LBB6_208
Ltmp548:
	.loc	3 508 15
	movzbl	(%rcx), %esi
Ltmp549:
	.loc	10 152 9
	incq	%rcx
Ltmp550:
	.loc	3 507 5
	andl	$63, %esi
	jmp	LBB6_210
Ltmp551:
LBB6_197:
	.loc	3 0 5 is_stmt 0
	xorl	%edx, %edx
	movq	%r8, %rcx
	movl	%esi, %ebx
	andl	$31, %ebx
Ltmp552:
	.loc	3 530 8 is_stmt 1
	cmpb	$-33, %sil
	.loc	3 530 5 is_stmt 0
	ja	LBB6_202
Ltmp553:
LBB6_200:
	.loc	3 0 5
	shll	$6, %ebx
Ltmp554:
	jmp	LBB6_201
Ltmp555:
LBB6_203:
	xorl	%eax, %eax
	movq	%r8, %rcx
Ltmp556:
	.loc	3 495 5 is_stmt 1
	shll	$6, %edx
	orl	%eax, %edx
Ltmp557:
	.loc	3 536 12
	cmpb	$-16, %sil
	.loc	3 536 9 is_stmt 0
	jae	LBB6_207
Ltmp558:
LBB6_206:
	.loc	3 0 9
	shll	$12, %ebx
Ltmp559:
LBB6_201:
	orl	%ebx, %edx
Ltmp560:
	movl	%edx, %esi
Ltmp561:
	.loc	8 161 49 is_stmt 1
	leal	-97(%rsi), %eax
	cmpl	$6, %eax
	jae	LBB6_194
	jmp	LBB6_190
Ltmp562:
LBB6_208:
	.loc	8 0 49 is_stmt 0
	xorl	%esi, %esi
Ltmp563:
	movq	%r8, %rcx
Ltmp564:
LBB6_210:
	.loc	3 540 18 is_stmt 1
	andl	$7, %ebx
Ltmp565:
	shll	$18, %ebx
Ltmp566:
	.loc	3 495 5
	shll	$6, %edx
Ltmp567:
	orl	%ebx, %edx
Ltmp568:
	.loc	3 540 13
	orl	%esi, %edx
Ltmp569:
	.loc	3 0 13 is_stmt 0
	movl	%edx, %esi
Ltmp570:
	.loc	14 1877 19 is_stmt 1
	cmpl	$1114112, %edx
Ltmp571:
	je	LBB6_211
Ltmp572:
	.p2align	4, 0x90
	.loc	8 161 49
	leal	-97(%rsi), %eax
	cmpl	$6, %eax
Ltmp573:
	.loc	14 1878 32
	jb	LBB6_190
Ltmp574:
LBB6_194:
	.loc	14 0 32 is_stmt 0
	addl	$-48, %esi
	.loc	14 1878 32
	cmpl	$10, %esi
	jb	LBB6_190
Ltmp575:
	.loc	14 0 32
	movb	$1, %bl
	jmp	LBB6_212
Ltmp576:
LBB6_211:
	xorl	%ebx, %ebx
Ltmp577:
LBB6_212:
	.loc	8 164 41 is_stmt 1
	movq	%r9, %rsi
	movl	$16, %edx
	callq	__ZN4core3num21_$LT$impl$u20$u32$GT$14from_str_radix17he580c279b430ba45E
Ltmp578:
	.loc	11 672 13
	testb	$1, %al
	jne	LBB6_139
Ltmp579:
	.loc	11 0 13 is_stmt 0
	shrq	$32, %rax
Ltmp580:
	.loc	11 672 13
	cmpl	$1114111, %eax
	ja	LBB6_139
Ltmp581:
	.file	15 "/rustc/a74d1862d4d87a56244958416fd05976c58ca1a8/src/libcore/char/convert.rs"
	.loc	15 217 32 is_stmt 1
	movl	%eax, %ecx
	andl	$-2048, %ecx
	cmpl	$55296, %ecx
	.loc	15 217 12 is_stmt 0
	movl	$1114112, %ecx
	cmovel	%ecx, %eax
Ltmp582:
	.loc	8 166 47 is_stmt 1
	cmpl	$1114112, %eax
	sete	%cl
	.loc	8 166 41 is_stmt 0
	orb	%cl, %bl
	jne	LBB6_139
Ltmp583:
	.loc	8 166 52
	movl	%eax, -128(%rbp)
Ltmp584:
	.loc	12 696 9 is_stmt 1
	movl	%eax, %edi
	callq	__ZN4core7unicode12unicode_data2cc6lookup17he9291d53d97bdf49E
Ltmp585:
	.loc	8 168 37
	testb	%al, %al
	jne	LBB6_139
Ltmp586:
	.loc	8 169 46
	leaq	-128(%rbp), %rdi
	movq	-136(%rbp), %rsi
	callq	__ZN43_$LT$char$u20$as$u20$core..fmt..Display$GT$3fmt17h6751376c1412eca9E
Ltmp587:
	.loc	8 0 0 is_stmt 0
	movq	%r15, %r12
Ltmp588:
	testb	%al, %al
	movq	-176(%rbp), %rcx
	je	LBB6_47
	jmp	LBB6_140
Ltmp589:
LBB6_101:
	xorl	%ecx, %ecx
Ltmp590:
LBB6_103:
	.loc	3 540 18 is_stmt 1
	andl	$7, %edx
Ltmp591:
	shll	$18, %edx
Ltmp592:
	.loc	3 495 5
	shll	$6, %eax
Ltmp593:
	orl	%edx, %eax
Ltmp594:
	.loc	3 540 13
	orl	%ecx, %eax
Ltmp595:
	.loc	3 0 13 is_stmt 0
	movl	%eax, %ecx
Ltmp596:
	.loc	8 132 33 is_stmt 1
	cmpl	$46, %ecx
	.loc	8 132 28 is_stmt 0
	je	LBB6_110
Ltmp597:
	.p2align	4, 0x90
LBB6_106:
	.loc	8 136 30 is_stmt 1
	movl	$1, %edx
	movq	-136(%rbp), %rdi
	leaq	l___unnamed_26(%rip), %rsi
	callq	__ZN4core3fmt9Formatter9write_str17h957ea9717e49073dE
	.loc	8 136 25 is_stmt 0
	testb	%al, %al
	jne	LBB6_140
Ltmp598:
	.loc	8 0 25
	movq	%r12, -72(%rbp)
	incq	%r12
Ltmp599:
	movq	%r13, -64(%rbp)
Ltmp600:
	.loc	3 2051 18 is_stmt 1
	movq	$1, -48(%rbp)
	.loc	3 2051 25 is_stmt 0
	movq	%r13, -56(%rbp)
Ltmp601:
	.loc	3 2303 26 is_stmt 1
	cmpq	$1, %r13
Ltmp602:
	.loc	3 2303 12 is_stmt 0
	je	LBB6_109
Ltmp603:
	.loc	3 2309 25 is_stmt 1
	cmpb	$-65, (%r12)
Ltmp604:
	.loc	3 2021 13
	jle	LBB6_227
Ltmp605:
LBB6_109:
	.loc	8 0 0 is_stmt 0
	decq	%r13
Ltmp606:
	movq	%r13, %rcx
Ltmp607:
	movq	%rcx, %r13
Ltmp608:
	.loc	5 1430 9 is_stmt 1
	testq	%rcx, %rcx
	jne	LBB6_48
	jmp	LBB6_50
Ltmp609:
LBB6_57:
	.loc	5 0 9 is_stmt 0
	xorl	%eax, %eax
Ltmp610:
	jmp	LBB6_58
Ltmp611:
LBB6_140:
	movb	$1, %al
Ltmp612:
LBB6_58:
	.loc	8 191 6 is_stmt 1
	addq	$152, %rsp
	popq	%rbx
	popq	%r12
	popq	%r13
	popq	%r14
	popq	%r15
	popq	%rbp
	retq
Ltmp613:
LBB6_227:
	.loc	8 0 6 is_stmt 0
	leaq	-72(%rbp), %rax
Ltmp614:
	movq	%rax, -128(%rbp)
	leaq	-48(%rbp), %rax
	movq	%rax, -120(%rbp)
	leaq	-56(%rbp), %rax
	movq	%rax, -112(%rbp)
	leaq	-128(%rbp), %rdi
	callq	__ZN4core3str6traits105_$LT$impl$u20$core..slice..SliceIndex$LT$str$GT$$u20$for$u20$core..ops..range..RangeFrom$LT$usize$GT$$GT$5index28_$u7b$$u7b$closure$u7d$$u7d$17hae339611a1cc31b9E
Ltmp615:
LBB6_30:
	.file	16 "/rustc/a74d1862d4d87a56244958416fd05976c58ca1a8/src/libcore/macros/mod.rs"
	.loc	16 10 9 is_stmt 1
	leaq	l___unnamed_27(%rip), %rdi
	leaq	l___unnamed_28(%rip), %rdx
	movl	$43, %esi
	callq	__ZN4core9panicking5panic17h736ee47a631475c0E
Ltmp616:
LBB6_132:
	.loc	16 0 9 is_stmt 0
	leaq	-128(%rbp), %rdi
Ltmp617:
	.loc	11 430 21 is_stmt 1
	movq	%rbx, %rsi
	callq	__ZN4core3str6traits103_$LT$impl$u20$core..slice..SliceIndex$LT$str$GT$$u20$for$u20$core..ops..range..RangeTo$LT$usize$GT$$GT$5index28_$u7b$$u7b$closure$u7d$$u7d$17h7fe3ba5e5614193eE
Ltmp618:
LBB6_223:
	.loc	8 116 36
	leaq	_str.0(%rip), %rdi
	leaq	l___unnamed_29(%rip), %rdx
	movl	$33, %esi
	callq	__ZN4core9panicking5panic17h736ee47a631475c0E
Ltmp619:
LBB6_228:
	.loc	13 1005 17
	movb	-127(%rbp), %al
Ltmp620:
	movb	%al, -72(%rbp)
Ltmp621:
	.loc	13 1005 23 is_stmt 0
	leaq	l___unnamed_30(%rip), %rdi
	leaq	l___unnamed_1(%rip), %rcx
	leaq	l___unnamed_31(%rip), %r8
	leaq	-72(%rbp), %rdx
	movl	$43, %esi
	callq	__ZN4core6result13unwrap_failed17hb5a510096a5fc85fE
Ltmp622:
LBB6_25:
	.loc	13 0 23
	leaq	-128(%rbp), %rdi
Ltmp623:
	.loc	11 430 21 is_stmt 1
	movq	%rdx, %rsi
	callq	__ZN4core3str6traits103_$LT$impl$u20$core..slice..SliceIndex$LT$str$GT$$u20$for$u20$core..ops..range..RangeTo$LT$usize$GT$$GT$5index28_$u7b$$u7b$closure$u7d$$u7d$17h7fe3ba5e5614193eE
Ltmp624:
LBB6_229:
	.loc	11 0 21 is_stmt 0
	leaq	-128(%rbp), %rdi
Ltmp625:
	.loc	11 430 21
	callq	__ZN4core3str6traits103_$LT$impl$u20$core..slice..SliceIndex$LT$str$GT$$u20$for$u20$core..ops..range..RangeTo$LT$usize$GT$$GT$5index28_$u7b$$u7b$closure$u7d$$u7d$17h7fe3ba5e5614193eE
Ltmp626:
LBB6_230:
	.loc	5 2919 13 is_stmt 1
	leaq	l___unnamed_7(%rip), %rdx
Ltmp627:
	movl	$4, %esi
	movq	%r14, %rdi
	callq	__ZN4core5slice20slice_index_len_fail17h550a313151a85135E
Ltmp628:
LBB6_225:
	.loc	8 141 35
	leaq	_str.1(%rip), %rdi
	leaq	l___unnamed_32(%rip), %rdx
	movl	$28, %esi
	callq	__ZN4core9panicking5panic17h736ee47a631475c0E
Ltmp629:
LBB6_179:
	.loc	8 0 35 is_stmt 0
	leaq	-72(%rbp), %rax
Ltmp630:
	.loc	11 430 21 is_stmt 1
	movq	%rax, -128(%rbp)
	leaq	-48(%rbp), %rax
	movq	%rax, -120(%rbp)
	leaq	-56(%rbp), %rax
	movq	%rax, -112(%rbp)
	leaq	-128(%rbp), %rdi
	callq	__ZN4core3str6traits101_$LT$impl$u20$core..slice..SliceIndex$LT$str$GT$$u20$for$u20$core..ops..range..Range$LT$usize$GT$$GT$5index28_$u7b$$u7b$closure$u7d$$u7d$17hbac688ed4f6c5d3dE
Ltmp631:
LBB6_226:
	.loc	8 141 51
	leaq	_str.1(%rip), %rdi
	leaq	l___unnamed_33(%rip), %rdx
	movl	$28, %esi
	callq	__ZN4core9panicking5panic17h736ee47a631475c0E
Ltmp632:
LBB6_224:
	.loc	8 121 33
	leaq	_str.1(%rip), %rdi
	leaq	l___unnamed_34(%rip), %rdx
	movl	$28, %esi
	callq	__ZN4core9panicking5panic17h736ee47a631475c0E
Ltmp633:
Lfunc_end6:
	.cfi_endproc
	.file	17 "/rustc/a74d1862d4d87a56244958416fd05976c58ca1a8/src/libcore/ops/function.rs"

	.globl	__ZN67_$LT$rustc_demangle..v0..Demangle$u20$as$u20$core..fmt..Display$GT$3fmt17hb880460d689c54f7E
	.p2align	4, 0x90
__ZN67_$LT$rustc_demangle..v0..Demangle$u20$as$u20$core..fmt..Display$GT$3fmt17hb880460d689c54f7E:
Lfunc_begin7:
	.file	18 "/Users/yingyuhang/.cargo/registry/src/github.com-1ecc6299db9ec823/rustc-demangle-0.1.16/src/v0.rs"
	.loc	18 65 0
	.cfi_startproc
	pushq	%rbp
	.cfi_def_cfa_offset 16
	.cfi_offset %rbp, -16
	movq	%rsp, %rbp
	.cfi_def_cfa_register %rbp
	subq	$48, %rsp
Ltmp634:
	.loc	18 68 22 prologue_end
	movups	(%rdi), %xmm0
	.loc	18 66 27
	movaps	%xmm0, -48(%rbp)
	movq	$0, -32(%rbp)
	movq	%rsi, -24(%rbp)
	movl	$0, -16(%rbp)
Ltmp635:
	.loc	18 0 27 is_stmt 0
	leaq	-48(%rbp), %rdi
Ltmp636:
	.loc	18 74 9 is_stmt 1
	movl	$1, %esi
Ltmp637:
	callq	__ZN14rustc_demangle2v07Printer10print_path17hec5ad73476f2d587E
Ltmp638:
	.loc	18 75 6
	addq	$48, %rsp
	popq	%rbp
	retq
Ltmp639:
Lfunc_end7:
	.cfi_endproc

	.globl	__ZN64_$LT$rustc_demangle..v0..Ident$u20$as$u20$core..fmt..Display$GT$3fmt17h5a86610f647ba7f1E
	.p2align	4, 0x90
__ZN64_$LT$rustc_demangle..v0..Ident$u20$as$u20$core..fmt..Display$GT$3fmt17h5a86610f647ba7f1E:
Lfunc_begin8:
	.loc	18 219 0
	.cfi_startproc
	pushq	%rbp
	.cfi_def_cfa_offset 16
	.cfi_offset %rbp, -16
	movq	%rsp, %rbp
	.cfi_def_cfa_register %rbp
	pushq	%r15
	pushq	%r14
	pushq	%r13
	pushq	%r12
	pushq	%rbx
	subq	$600, %rsp
	.cfi_offset %rbx, -56
	.cfi_offset %r12, -48
	.cfi_offset %r13, -40
	.cfi_offset %r14, -32
	.cfi_offset %r15, -24
	movq	%rsi, %r14
Ltmp640:
	movq	%rdi, %rbx
Ltmp641:
	leaq	-632(%rbp), %rdi
Ltmp642:
	.loc	18 98 23 prologue_end
	movl	$512, %esi
	movq	%rdi, -80(%rbp)
	callq	___bzero
Ltmp643:
	.loc	18 132 34
	movq	24(%rbx), %rcx
Ltmp644:
	.loc	18 0 34 is_stmt 0
	movq	%rcx, %rax
Ltmp645:
	movq	%rcx, -104(%rbp)
Ltmp646:
	.loc	5 3179 9 is_stmt 1
	testq	%rcx, %rcx
	.loc	5 3303 21
	je	LBB8_73
Ltmp647:
	.loc	5 0 21 is_stmt 0
	movq	%r14, -96(%rbp)
Ltmp648:
	movq	16(%rbx), %rax
Ltmp649:
	movq	%rax, -88(%rbp)
Ltmp650:
	.loc	11 458 29 is_stmt 1
	movb	(%rax), %r14b
Ltmp651:
	.loc	18 140 18
	movq	(%rbx), %rdx
Ltmp652:
	movq	8(%rbx), %rax
Ltmp653:
	.loc	5 3179 9
	testq	%rax, %rax
	movq	%rdx, -112(%rbp)
	movq	%rax, -120(%rbp)
	.loc	5 3303 21
	je	LBB8_2
Ltmp654:
	.loc	5 0 0 is_stmt 0
	leaq	(%rdx,%rax), %r8
	xorl	%edi, %edi
Ltmp655:
	.p2align	4, 0x90
LBB8_4:
	.loc	10 152 9 is_stmt 1
	leaq	1(%rdx), %rax
Ltmp656:
	.loc	3 519 13
	movzbl	(%rdx), %esi
Ltmp657:
	.loc	3 520 8
	testb	%sil, %sil
	.loc	3 520 5 is_stmt 0
	js	LBB8_6
Ltmp658:
	.loc	3 0 5
	movq	%rax, %rdx
Ltmp659:
	.loc	5 2851 12 is_stmt 1
	cmpq	$128, %rdi
	jne	LBB8_22
	jmp	LBB8_38
Ltmp660:
	.p2align	4, 0x90
LBB8_6:
	.loc	5 3179 9
	cmpq	%r8, %rax
	.loc	5 3303 21
	je	LBB8_7
Ltmp661:
	.loc	3 508 15
	movzbl	1(%rdx), %ebx
Ltmp662:
	.loc	10 152 9
	addq	$2, %rdx
Ltmp663:
	.loc	3 507 5
	andl	$63, %ebx
Ltmp664:
	.loc	3 0 0 is_stmt 0
	movl	%esi, %ecx
	andl	$31, %ecx
Ltmp665:
	.loc	3 530 8 is_stmt 1
	cmpb	$-33, %sil
	.loc	3 530 5 is_stmt 0
	jbe	LBB8_10
Ltmp666:
LBB8_12:
	.loc	5 3179 9 is_stmt 1
	cmpq	%r8, %rdx
	.loc	5 3303 21
	je	LBB8_13
Ltmp667:
	.loc	3 508 15
	movzbl	(%rdx), %eax
Ltmp668:
	.loc	10 152 9
	incq	%rdx
Ltmp669:
	.loc	3 507 5
	andl	$63, %eax
Ltmp670:
	.loc	3 495 5
	shll	$6, %ebx
	orl	%eax, %ebx
Ltmp671:
	.loc	3 536 12
	cmpb	$-16, %sil
	.loc	3 536 9 is_stmt 0
	jb	LBB8_16
Ltmp672:
LBB8_17:
	.loc	5 3179 9 is_stmt 1
	cmpq	%r8, %rdx
	.loc	5 3303 21
	je	LBB8_18
Ltmp673:
	.loc	3 508 15
	movzbl	(%rdx), %esi
Ltmp674:
	.loc	10 152 9
	incq	%rdx
Ltmp675:
	.loc	3 507 5
	andl	$63, %esi
	jmp	LBB8_20
Ltmp676:
LBB8_7:
	.loc	3 0 5 is_stmt 0
	xorl	%ebx, %ebx
Ltmp677:
	movq	%r8, %rdx
Ltmp678:
	movl	%esi, %ecx
	andl	$31, %ecx
Ltmp679:
	.loc	3 530 8 is_stmt 1
	cmpb	$-33, %sil
	.loc	3 530 5 is_stmt 0
	ja	LBB8_12
Ltmp680:
LBB8_10:
	.loc	3 0 5
	shll	$6, %ecx
Ltmp681:
	jmp	LBB8_11
Ltmp682:
LBB8_13:
	xorl	%eax, %eax
	movq	%r8, %rdx
Ltmp683:
	.loc	3 495 5 is_stmt 1
	shll	$6, %ebx
	orl	%eax, %ebx
Ltmp684:
	.loc	3 536 12
	cmpb	$-16, %sil
	.loc	3 536 9 is_stmt 0
	jae	LBB8_17
Ltmp685:
LBB8_16:
	.loc	3 0 9
	shll	$12, %ecx
Ltmp686:
LBB8_11:
	orl	%ecx, %ebx
Ltmp687:
	movl	%ebx, %esi
Ltmp688:
	.loc	5 2851 12 is_stmt 1
	cmpq	$128, %rdi
	jne	LBB8_22
	jmp	LBB8_38
Ltmp689:
LBB8_18:
	.loc	5 0 12 is_stmt 0
	xorl	%esi, %esi
Ltmp690:
	movq	%r8, %rdx
Ltmp691:
LBB8_20:
	.loc	3 540 18 is_stmt 1
	andl	$7, %ecx
Ltmp692:
	shll	$18, %ecx
Ltmp693:
	.loc	3 495 5
	shll	$6, %ebx
Ltmp694:
	orl	%ecx, %ebx
Ltmp695:
	.loc	3 540 13
	orl	%esi, %ebx
Ltmp696:
	.loc	3 0 13 is_stmt 0
	movl	%ebx, %esi
Ltmp697:
	.loc	18 140 13 is_stmt 1
	cmpl	$1114112, %ebx
Ltmp698:
	je	LBB8_23
Ltmp699:
	.p2align	4, 0x90
	.loc	5 2851 12
	cmpq	$128, %rdi
Ltmp700:
	.loc	18 102 13
	je	LBB8_38
Ltmp701:
LBB8_22:
	.loc	18 114 13
	movl	%esi, -632(%rbp,%rdi,4)
	.loc	18 106 13
	incq	%rdi
Ltmp702:
	.loc	5 3179 9
	cmpq	%r8, %rdx
	.loc	5 3303 21
	jne	LBB8_4
	jmp	LBB8_23
Ltmp703:
LBB8_73:
	.loc	18 239 29
	movq	(%rbx), %rsi
	movq	8(%rbx), %rdx
	.loc	18 239 17 is_stmt 0
	movq	%r14, %rdi
Ltmp704:
LBB8_74:
	.loc	18 0 0
	callq	__ZN4core3fmt9Formatter9write_str17h957ea9717e49073dE
	movl	%eax, %r14d
	jmp	LBB8_75
Ltmp705:
LBB8_2:
	xorl	%edi, %edi
Ltmp706:
LBB8_23:
	movq	-104(%rbp), %rax
	movq	-88(%rbp), %rcx
Ltmp707:
	leaq	(%rcx,%rax), %r9
Ltmp708:
	leaq	1(%rcx), %r10
Ltmp709:
	.loc	18 160 13 is_stmt 1
	leaq	4(,%rdi,4), %rax
	movq	%rax, -72(%rbp)
	movl	$700, %eax
	movq	%rax, -64(%rbp)
	movl	$72, %r12d
	movl	$128, %eax
	movq	%rax, -48(%rbp)
	movl	$1, %r11d
	movl	$26, %r15d
Ltmp710:
	.loc	18 0 0 is_stmt 0
	xorl	%r8d, %r8d
Ltmp711:
LBB8_24:
	.loc	18 160 13
	movzbl	%r14b, %ecx
	shll	$8, %ecx
	orl	$1, %ecx
	xorl	%r14d, %r14d
Ltmp712:
	.loc	18 0 0
	xorl	%esi, %esi
Ltmp713:
	movl	$1, %ebx
Ltmp714:
	.p2align	4, 0x90
LBB8_25:
	.loc	18 163 17 is_stmt 1
	addq	$36, %r14
Ltmp715:
	jb	LBB8_64
Ltmp716:
	.file	19 "/rustc/a74d1862d4d87a56244958416fd05976c58ca1a8/src/libcore/num/mod.rs"
	.loc	19 3243 17
	movq	%r14, %rax
	subq	%r12, %rax
	movl	$0, %r13d
	cmovaeq	%rax, %r13
Ltmp717:
	.loc	7 1017 9
	cmpq	$1, %r13
	.loc	7 0 0 is_stmt 0
	cmovbeq	%r11, %r13
Ltmp718:
	cmpq	$26, %r13
	cmovaeq	%r15, %r13
Ltmp719:
	.file	20 "/rustc/a74d1862d4d87a56244958416fd05976c58ca1a8/src/libcore/iter/adapters/mod.rs"
	.loc	20 1397 13 is_stmt 1
	cmpb	$2, %cl
	jne	LBB8_29
Ltmp720:
	.loc	5 3179 9
	cmpq	%r9, %r10
	.loc	5 3303 21
	je	LBB8_38
Ltmp721:
	.loc	11 458 29
	movzbl	(%r10), %ecx
Ltmp722:
	.loc	10 152 9
	incq	%r10
Ltmp723:
	.loc	18 167 30
	leal	-97(%rcx), %eax
	cmpb	$26, %al
	jb	LBB8_34
Ltmp724:
LBB8_32:
	.loc	18 168 30
	leal	-48(%rcx), %eax
	cmpb	$9, %al
	ja	LBB8_38
Ltmp725:
	.loc	18 168 46 is_stmt 0
	addb	$-22, %cl
Ltmp726:
	.loc	18 0 0
	movl	%ecx, %eax
Ltmp727:
	.loc	18 171 25 is_stmt 1
	movzbl	%al, %ecx
Ltmp728:
	.loc	19 3688 26
	movq	%rcx, %rax
Ltmp729:
	mulq	%rbx
	jno	LBB8_35
	jmp	LBB8_38
Ltmp730:
	.p2align	4, 0x90
LBB8_29:
	.loc	18 167 21
	testb	$1, %cl
	je	LBB8_38
Ltmp731:
	.loc	18 0 21 is_stmt 0
	shrl	$8, %ecx
Ltmp732:
	.loc	18 167 30
	leal	-97(%rcx), %eax
	cmpb	$26, %al
	jae	LBB8_32
Ltmp733:
LBB8_34:
	.loc	18 171 25 is_stmt 1
	movzbl	%al, %ecx
Ltmp734:
	.loc	19 3688 26
	movq	%rcx, %rax
Ltmp735:
	mulq	%rbx
Ltmp736:
	.loc	18 173 21
	jo	LBB8_38
Ltmp737:
LBB8_35:
	.loc	19 3632 30
	addq	%rax, %rsi
Ltmp738:
	.loc	18 172 25
	jb	LBB8_38
Ltmp739:
	.loc	18 175 20
	cmpq	%rcx, %r13
	.loc	18 175 17 is_stmt 0
	ja	LBB8_44
Ltmp740:
	.loc	18 178 40 is_stmt 1
	movl	$36, %ecx
Ltmp741:
	subq	%r13, %rcx
Ltmp742:
	.loc	19 3688 26
	movq	%rbx, %rax
	mulq	%rcx
	movw	$2, %cx
Ltmp743:
	movq	%rax, %rbx
Ltmp744:
	.loc	18 178 21
	jno	LBB8_25
	jmp	LBB8_38
Ltmp745:
LBB8_44:
	.loc	19 3632 30
	addq	%rsi, %r8
Ltmp746:
	.loc	18 183 17
	jb	LBB8_38
Ltmp747:
	.loc	18 0 0 is_stmt 0
	leaq	1(%rdi), %r13
Ltmp748:
	.loc	18 185 13 is_stmt 1
	movq	%r8, %rax
	xorl	%edx, %edx
	divq	%r13
Ltmp749:
	.loc	19 3632 30
	addq	%rax, -48(%rbp)
Ltmp750:
	.loc	18 184 17
	jb	LBB8_38
Ltmp751:
	.loc	18 0 17 is_stmt 0
	movq	-48(%rbp), %rax
	.loc	18 184 17
	shrq	$32, %rax
	jne	LBB8_38
Ltmp752:
	.loc	5 2851 12 is_stmt 1
	cmpq	$127, %rdi
Ltmp753:
	.loc	15 217 12
	ja	LBB8_38
Ltmp754:
	cmpl	$1114111, -48(%rbp)
	ja	LBB8_38
Ltmp755:
	.loc	15 0 12 is_stmt 0
	movq	-48(%rbp), %rax
	andl	$-2048, %eax
	.loc	15 217 12
	cmpl	$55296, %eax
	je	LBB8_38
Ltmp756:
	.loc	15 0 12
	movq	%rdx, %r8
Ltmp757:
	.loc	18 108 19 is_stmt 1
	cmpq	%rdx, %rdi
	.loc	18 108 13 is_stmt 0
	jbe	LBB8_51
Ltmp758:
	.p2align	4, 0x90
LBB8_53:
	.loc	18 109 30 is_stmt 1
	leaq	-1(%rdi), %rax
Ltmp759:
	.loc	18 109 26 is_stmt 0
	cmpq	$127, %rax
	ja	LBB8_55
Ltmp760:
	movl	-636(%rbp,%rdi,4), %ecx
	.loc	18 109 17
	movl	%ecx, -632(%rbp,%rdi,4)
	movq	%rax, %rdi
	.loc	18 108 19 is_stmt 1
	cmpq	%r8, %rax
	.loc	18 108 13 is_stmt 0
	ja	LBB8_53
Ltmp761:
LBB8_51:
	.loc	18 114 13 is_stmt 1
	cmpq	$128, %r8
	jae	LBB8_52
Ltmp762:
	.loc	18 0 13 is_stmt 0
	movq	-48(%rbp), %rax
	.loc	18 114 13
	movl	%eax, -632(%rbp,%r8,4)
Ltmp763:
	.loc	5 3179 9 is_stmt 1
	cmpq	%r9, %r10
	movq	-72(%rbp), %rbx
Ltmp764:
	.loc	5 0 9 is_stmt 0
	movabsq	$-1581149492032247281, %rdi
	.loc	5 3303 21 is_stmt 1
	je	LBB8_68
Ltmp765:
	.loc	18 204 13
	movq	%rsi, %rax
	xorl	%edx, %edx
	divq	-64(%rbp)
	movq	%rax, %rcx
Ltmp766:
	.loc	18 207 22
	xorl	%edx, %edx
	divq	%r13
	movq	%rax, %rsi
	.loc	18 207 13 is_stmt 0
	addq	%rcx, %rsi
	jb	LBB8_65
Ltmp767:
	.loc	18 0 0
	movb	(%r10), %r14b
Ltmp768:
	xorl	%ecx, %ecx
Ltmp769:
	.loc	18 209 19 is_stmt 1
	cmpq	$456, %rsi
	.loc	18 209 13 is_stmt 0
	jb	LBB8_62
Ltmp770:
	.p2align	4, 0x90
LBB8_59:
	.loc	18 211 17 is_stmt 1
	addq	$36, %rcx
	jb	LBB8_66
Ltmp771:
	.loc	18 210 17
	movq	%rsi, %rax
	mulq	%rdi
	shrq	$5, %rdx
Ltmp772:
	.loc	18 209 19
	cmpq	$15959, %rsi
	movq	%rdx, %rsi
	.loc	18 209 13 is_stmt 0
	ja	LBB8_59
Ltmp773:
	.loc	18 0 0
	movq	%rdx, %rsi
Ltmp774:
LBB8_62:
	.loc	18 213 24 is_stmt 1
	leal	(,%rsi,4), %eax
	leal	(%rax,%rax,8), %eax
	addl	$38, %esi
Ltmp775:
	xorl	%edx, %edx
	divw	%si
	movzwl	%ax, %r12d
Ltmp776:
	.loc	18 213 20 is_stmt 0
	addq	%rcx, %r12
	jb	LBB8_67
Ltmp777:
	.loc	18 0 0
	incq	%r8
Ltmp778:
	incq	%r10
Ltmp779:
	.loc	18 155 9 is_stmt 1
	addq	$4, %rbx
	movq	%rbx, -72(%rbp)
	movl	$2, %eax
	movq	%rax, -64(%rbp)
Ltmp780:
	.loc	18 0 0 is_stmt 0
	movq	%r13, %rdi
	jmp	LBB8_24
Ltmp781:
LBB8_38:
	.loc	18 227 22 is_stmt 1
	leaq	l___unnamed_35(%rip), %rsi
	movl	$9, %edx
	movq	-96(%rbp), %rbx
	movq	%rbx, %rdi
	callq	__ZN4core3fmt9Formatter9write_str17h957ea9717e49073dE
	movb	$1, %r14b
	.loc	18 227 17 is_stmt 0
	testb	%al, %al
	jne	LBB8_75
Ltmp782:
	.loc	18 0 17
	movq	-120(%rbp), %rdx
Ltmp783:
	.loc	5 3179 9 is_stmt 1
	testq	%rdx, %rdx
Ltmp784:
	.loc	18 231 17
	je	LBB8_42
Ltmp785:
	.loc	18 232 26
	movq	%rbx, %rdi
	movq	-112(%rbp), %rsi
	callq	__ZN4core3fmt9Formatter9write_str17h957ea9717e49073dE
	.loc	18 232 21 is_stmt 0
	testb	%al, %al
	jne	LBB8_75
Ltmp786:
	.loc	18 233 26 is_stmt 1
	leaq	l___unnamed_36(%rip), %rsi
	movl	$1, %edx
	movq	%rbx, %rdi
	callq	__ZN4core3fmt9Formatter9write_str17h957ea9717e49073dE
	.loc	18 233 21 is_stmt 0
	testb	%al, %al
	jne	LBB8_75
Ltmp787:
LBB8_42:
	.loc	18 235 22 is_stmt 1
	movq	%rbx, %rdi
	movq	-88(%rbp), %rsi
	movq	-104(%rbp), %rdx
	callq	__ZN4core3fmt9Formatter9write_str17h957ea9717e49073dE
	.loc	18 235 17 is_stmt 0
	testb	%al, %al
	je	LBB8_43
Ltmp788:
LBB8_75:
	.loc	18 242 6 is_stmt 1
	movl	%r14d, %eax
	addq	$600, %rsp
	popq	%rbx
	popq	%r12
	popq	%r13
	popq	%r14
	popq	%r15
	popq	%rbp
	retq
LBB8_43:
Ltmp789:
	.loc	18 237 17
	leaq	l___unnamed_37(%rip), %rsi
	movl	$1, %edx
	movq	%rbx, %rdi
	jmp	LBB8_74
Ltmp790:
LBB8_68:
	.loc	18 0 17 is_stmt 0
	leaq	-52(%rbp), %r14
Ltmp791:
	movq	-96(%rbp), %r15
Ltmp792:
LBB8_69:
	.loc	5 3179 9 is_stmt 1
	testq	%rbx, %rbx
	.loc	5 3303 21
	je	LBB8_70
Ltmp793:
	.loc	5 0 21 is_stmt 0
	movq	-80(%rbp), %r12
	.loc	18 221 18 is_stmt 1
	movl	(%r12), %eax
Ltmp794:
	movl	%eax, -52(%rbp)
Ltmp795:
	.loc	18 222 22
	movq	%r14, %rdi
	movq	%r15, %rsi
	callq	__ZN43_$LT$char$u20$as$u20$core..fmt..Display$GT$3fmt17h6751376c1412eca9E
Ltmp796:
	.loc	10 152 9
	addq	$4, %r12
	movq	%r12, -80(%rbp)
Ltmp797:
	.loc	18 222 17
	addq	$-4, %rbx
	testb	%al, %al
	je	LBB8_69
Ltmp798:
	.loc	18 0 17 is_stmt 0
	movb	$1, %r14b
Ltmp799:
	jmp	LBB8_75
Ltmp800:
LBB8_70:
	xorl	%r14d, %r14d
Ltmp801:
	jmp	LBB8_75
Ltmp802:
LBB8_64:
	.loc	18 163 17 is_stmt 1
	leaq	_str.1(%rip), %rdi
Ltmp803:
	leaq	l___unnamed_38(%rip), %rdx
	movl	$28, %esi
Ltmp804:
	callq	__ZN4core9panicking5panic17h736ee47a631475c0E
Ltmp805:
LBB8_55:
	.loc	18 109 26
	decq	%rdi
	leaq	l___unnamed_39(%rip), %rdx
	movl	$128, %esi
Ltmp806:
	callq	__ZN4core9panicking18panic_bounds_check17habe69d236c55e3edE
Ltmp807:
LBB8_66:
	.loc	18 211 17
	leaq	_str.1(%rip), %rdi
	leaq	l___unnamed_40(%rip), %rdx
	movl	$28, %esi
	callq	__ZN4core9panicking5panic17h736ee47a631475c0E
Ltmp808:
LBB8_52:
	.loc	18 114 13
	leaq	l___unnamed_41(%rip), %rdx
	movl	$128, %esi
Ltmp809:
	movq	%r8, %rdi
	callq	__ZN4core9panicking18panic_bounds_check17habe69d236c55e3edE
Ltmp810:
LBB8_65:
	.loc	18 207 13
	leaq	_str.1(%rip), %rdi
	leaq	l___unnamed_42(%rip), %rdx
	movl	$28, %esi
	callq	__ZN4core9panicking5panic17h736ee47a631475c0E
Ltmp811:
LBB8_67:
	.loc	18 213 20
	leaq	_str.1(%rip), %rdi
	leaq	l___unnamed_43(%rip), %rdx
	movl	$28, %esi
	callq	__ZN4core9panicking5panic17h736ee47a631475c0E
Ltmp812:
Lfunc_end8:
	.cfi_endproc

	.p2align	4, 0x90
__ZN14rustc_demangle2v06Parser5ident17he69b78eb80a16623E:
Lfunc_begin9:
	.loc	18 379 0
	.cfi_startproc
	pushq	%rbp
	.cfi_def_cfa_offset 16
	.cfi_offset %rbp, -16
	movq	%rsp, %rbp
	.cfi_def_cfa_register %rbp
Ltmp813:
	pushq	%r15
	pushq	%r14
	pushq	%rbx
	subq	$56, %rsp
	.cfi_offset %rbx, -40
	.cfi_offset %r14, -32
	.cfi_offset %r15, -24
	.loc	18 280 9 prologue_end
	movq	8(%rsi), %r9
Ltmp814:
	.loc	18 280 33 is_stmt 0
	movq	16(%rsi), %rcx
Ltmp815:
	.loc	5 2851 12 is_stmt 1
	cmpq	%rcx, %r9
Ltmp816:
	.loc	11 458 13
	jbe	LBB9_4
Ltmp817:
	.loc	18 280 9
	movq	(%rsi), %rax
Ltmp818:
	.loc	7 1053 52
	cmpb	$117, (%rax,%rcx)
Ltmp819:
	.loc	18 284 9
	jne	LBB9_4
Ltmp820:
	.loc	18 285 13
	incq	%rcx
	movq	%rcx, 16(%rsi)
	movb	$1, %r10b
Ltmp821:
	.loc	5 2851 12
	cmpq	%rcx, %r9
Ltmp822:
	.loc	11 458 13
	ja	LBB9_5
	jmp	LBB9_18
Ltmp823:
LBB9_4:
	.loc	11 0 13 is_stmt 0
	xorl	%r10d, %r10d
Ltmp824:
	.loc	5 2851 12 is_stmt 1
	cmpq	%rcx, %r9
Ltmp825:
	.loc	11 458 13
	jbe	LBB9_18
Ltmp826:
LBB9_5:
	.loc	18 280 9
	movq	(%rsi), %r8
Ltmp827:
	.loc	11 458 29
	movb	(%r8,%rcx), %al
	addb	$-48, %al
Ltmp828:
	.loc	18 312 13
	cmpb	$10, %al
	jae	LBB9_18
Ltmp829:
	.loc	18 315 9
	incq	%rcx
	movq	%rcx, 16(%rsi)
Ltmp830:
	.loc	18 382 12
	testb	%al, %al
	.loc	18 382 9 is_stmt 0
	je	LBB9_12
Ltmp831:
	.loc	18 381 23 is_stmt 1
	movzbl	%al, %eax
Ltmp832:
	.loc	18 0 23 is_stmt 0
	movl	$10, %r11d
Ltmp833:
	.p2align	4, 0x90
LBB9_8:
	.loc	5 2851 12 is_stmt 1
	cmpq	%rcx, %r9
Ltmp834:
	.loc	11 458 13
	jbe	LBB9_13
Ltmp835:
	.loc	11 458 29 is_stmt 0
	movzbl	(%r8,%rcx), %ebx
	addb	$-48, %bl
Ltmp836:
	.loc	18 312 13 is_stmt 1
	cmpb	$9, %bl
	ja	LBB9_13
Ltmp837:
	.loc	18 315 9
	incq	%rcx
	movq	%rcx, 16(%rsi)
Ltmp838:
	.loc	19 3688 26
	mulq	%r11
Ltmp839:
	.loc	18 386 31
	jo	LBB9_18
Ltmp840:
	.loc	18 387 52
	movzbl	%bl, %edx
Ltmp841:
	.loc	19 3632 30
	addq	%rdx, %rax
Ltmp842:
	.loc	18 387 31
	jae	LBB9_8
	jmp	LBB9_18
Ltmp843:
LBB9_12:
	.loc	18 0 31 is_stmt 0
	xorl	%eax, %eax
Ltmp844:
LBB9_13:
	.loc	5 2851 12 is_stmt 1
	cmpq	%rcx, %r9
Ltmp845:
	.loc	11 458 13
	jbe	LBB9_16
Ltmp846:
	.loc	7 1053 52
	cmpb	$95, (%r8,%rcx)
Ltmp847:
	.loc	18 284 9
	jne	LBB9_16
Ltmp848:
	.loc	18 285 13
	incq	%rcx
	movq	%rcx, 16(%rsi)
Ltmp849:
LBB9_16:
	.loc	19 3632 30
	movq	%rcx, %rdx
	addq	%rax, %rdx
Ltmp850:
	.loc	18 398 21
	jb	LBB9_18
Ltmp851:
	.loc	18 398 9 is_stmt 0
	movq	%rdx, 16(%rsi)
	.loc	18 399 12 is_stmt 1
	cmpq	%r9, %rdx
	.loc	18 399 9 is_stmt 0
	jbe	LBB9_20
Ltmp852:
LBB9_18:
	.loc	18 0 0
	movq	$0, (%rdi)
Ltmp853:
LBB9_19:
	.loc	18 426 6 is_stmt 1
	addq	$56, %rsp
	popq	%rbx
	popq	%r14
	popq	%r15
	popq	%rbp
	retq
LBB9_20:
Ltmp854:
	.loc	18 0 6 is_stmt 0
	movq	%r8, -80(%rbp)
	movq	%r9, -72(%rbp)
Ltmp855:
	.loc	3 1919 18 is_stmt 1
	movq	%rcx, -32(%rbp)
	.loc	3 1919 25 is_stmt 0
	movq	%rdx, -40(%rbp)
Ltmp856:
	.loc	3 1883 16 is_stmt 1
	movq	%rdx, %r11
	subq	%rcx, %r11
	jb	LBB9_45
Ltmp857:
	.loc	3 2303 26
	cmpq	%rcx, %r9
	.loc	3 2303 12 is_stmt 0
	je	LBB9_24
Ltmp858:
	.loc	3 2307 13 is_stmt 1
	jbe	LBB9_45
Ltmp859:
	.loc	3 2309 25
	cmpb	$-65, (%r8,%rcx)
Ltmp860:
	.loc	3 1883 16
	jle	LBB9_45
Ltmp861:
LBB9_24:
	.loc	3 2303 12
	testq	%rdx, %rdx
	je	LBB9_28
Ltmp862:
	cmpq	%rdx, %r9
	je	LBB9_28
Ltmp863:
	.loc	3 2307 13
	jbe	LBB9_45
Ltmp864:
	.loc	3 2309 25
	cmpb	$-65, (%r8,%rdx)
Ltmp865:
	.loc	3 1883 16
	jle	LBB9_45
Ltmp866:
LBB9_28:
	.loc	6 158 9
	leaq	(%r8,%rcx), %r9
Ltmp867:
	.loc	18 405 9
	testb	%r10b, %r10b
	je	LBB9_42
Ltmp868:
	.loc	6 158 9
	leaq	(%r8,%rdx), %r10
Ltmp869:
	.file	21 "/rustc/a74d1862d4d87a56244958416fd05976c58ca1a8/src/libcore/iter/traits/double_ended.rs"
	.loc	21 165 9
	leaq	-1(%r8,%rdx), %r15
	movq	%rax, %rbx
	negq	%rbx
	xorl	%esi, %esi
Ltmp870:
	.loc	21 0 9 is_stmt 0
	leaq	l___unnamed_44(%rip), %r14
Ltmp871:
	.loc	5 3397 33 is_stmt 1
	xorl	%edx, %edx
Ltmp872:
	.p2align	4, 0x90
LBB9_30:
	.loc	5 3179 9
	cmpq	%rdx, %rbx
	.loc	5 3399 21
	je	LBB9_43
Ltmp873:
	.loc	18 406 59
	cmpb	$95, (%r15,%rdx)
Ltmp874:
	.loc	21 166 32
	leaq	-1(%rdx), %rdx
	jne	LBB9_30
Ltmp875:
	.loc	21 0 32 is_stmt 0
	movq	%r9, -64(%rbp)
	movq	%r11, -56(%rbp)
Ltmp876:
	.loc	3 2303 12 is_stmt 1
	movq	%r10, %rbx
	subq	%r9, %rbx
	movq	%rbx, %rsi
	addq	%rdx, %rsi
	je	LBB9_36
Ltmp877:
	.loc	3 0 0 is_stmt 0
	subq	%rax, %rbx
	addq	%rdx, %rbx
	.loc	3 2303 12
	je	LBB9_36
Ltmp878:
	.loc	5 2851 12 is_stmt 1
	cmpq	%rsi, %r11
Ltmp879:
	.loc	3 2307 13
	jbe	LBB9_46
Ltmp880:
	.loc	3 2309 19
	addq	%r10, %rcx
Ltmp881:
	subq	%r9, %rcx
	addq	%rcx, %r8
Ltmp882:
	.loc	3 2309 25 is_stmt 0
	cmpb	$-65, (%rdx,%r8)
Ltmp883:
	.loc	3 1958 13 is_stmt 1
	jle	LBB9_46
Ltmp884:
LBB9_36:
	.loc	18 409 38
	movq	%rsi, %rax
Ltmp885:
	incq	%rax
	je	LBB9_47
Ltmp886:
	.loc	18 0 38 is_stmt 0
	movq	%r9, -80(%rbp)
	movq	%r11, -72(%rbp)
Ltmp887:
	.loc	3 2051 18 is_stmt 1
	movq	%rax, -32(%rbp)
	.loc	3 2051 25 is_stmt 0
	movq	%r11, -40(%rbp)
Ltmp888:
	.loc	3 2303 12 is_stmt 1
	testq	%rax, %rax
	je	LBB9_41
Ltmp889:
	cmpq	%rax, %r11
	je	LBB9_41
Ltmp890:
	.loc	3 2307 13
	jbe	LBB9_48
Ltmp891:
	.loc	3 2309 25
	cmpb	$-65, (%r9,%rax)
Ltmp892:
	.loc	3 2021 13
	jle	LBB9_48
Ltmp893:
LBB9_41:
	.loc	6 158 9
	movq	%r9, %rcx
	addq	%rax, %rcx
Ltmp894:
	.loc	3 2040 23
	subq	%rax, %r11
Ltmp895:
	.loc	18 0 0 is_stmt 0
	movq	%r9, %r14
Ltmp896:
	.loc	3 2270 9 is_stmt 1
	testq	%r11, %r11
	jne	LBB9_44
	jmp	LBB9_18
Ltmp897:
LBB9_42:
	.loc	18 421 13
	movq	%r9, (%rdi)
	movq	%r11, 8(%rdi)
	leaq	l___unnamed_44(%rip), %rax
Ltmp898:
	movq	%rax, 16(%rdi)
	movq	$0, 24(%rdi)
	jmp	LBB9_19
Ltmp899:
LBB9_43:
	.loc	18 0 0 is_stmt 0
	movq	%r9, %rcx
Ltmp900:
	.loc	3 2270 9 is_stmt 1
	testq	%r11, %r11
Ltmp901:
	.loc	18 416 13
	je	LBB9_18
Ltmp902:
LBB9_44:
	.loc	18 419 13
	movq	%r14, (%rdi)
	movq	%rsi, 8(%rdi)
	movq	%rcx, 16(%rdi)
	movq	%r11, 24(%rdi)
	jmp	LBB9_19
Ltmp903:
LBB9_45:
	.loc	18 0 13 is_stmt 0
	leaq	-80(%rbp), %rax
Ltmp904:
	.loc	11 430 21 is_stmt 1
	movq	%rax, -64(%rbp)
	leaq	-32(%rbp), %rax
	movq	%rax, -56(%rbp)
	leaq	-40(%rbp), %rax
	movq	%rax, -48(%rbp)
	leaq	-64(%rbp), %rdi
	callq	__ZN4core3str6traits101_$LT$impl$u20$core..slice..SliceIndex$LT$str$GT$$u20$for$u20$core..ops..range..Range$LT$usize$GT$$GT$5index28_$u7b$$u7b$closure$u7d$$u7d$17hbac688ed4f6c5d3dE
Ltmp905:
LBB9_46:
	.loc	11 0 21 is_stmt 0
	leaq	-64(%rbp), %rdi
Ltmp906:
	.loc	11 430 21
	callq	__ZN4core3str6traits103_$LT$impl$u20$core..slice..SliceIndex$LT$str$GT$$u20$for$u20$core..ops..range..RangeTo$LT$usize$GT$$GT$5index28_$u7b$$u7b$closure$u7d$$u7d$17h7fe3ba5e5614193eE
Ltmp907:
LBB9_47:
	.loc	18 409 38 is_stmt 1
	leaq	_str.1(%rip), %rdi
	leaq	l___unnamed_45(%rip), %rdx
	movl	$28, %esi
	callq	__ZN4core9panicking5panic17h736ee47a631475c0E
Ltmp908:
LBB9_48:
	.loc	18 0 38 is_stmt 0
	leaq	-80(%rbp), %rax
Ltmp909:
	.loc	11 430 21 is_stmt 1
	movq	%rax, -64(%rbp)
	leaq	-32(%rbp), %rax
	movq	%rax, -56(%rbp)
	leaq	-40(%rbp), %rax
	movq	%rax, -48(%rbp)
	leaq	-64(%rbp), %rdi
	callq	__ZN4core3str6traits105_$LT$impl$u20$core..slice..SliceIndex$LT$str$GT$$u20$for$u20$core..ops..range..RangeFrom$LT$usize$GT$$GT$5index28_$u7b$$u7b$closure$u7d$$u7d$17hae339611a1cc31b9E
Ltmp910:
Lfunc_end9:
	.cfi_endproc

	.p2align	4, 0x90
__ZN14rustc_demangle2v06Parser9skip_path17h60e1134618bf98cfE:
Lfunc_begin10:
	.loc	18 428 0
	.cfi_startproc
	pushq	%rbp
	.cfi_def_cfa_offset 16
	.cfi_offset %rbp, -16
	movq	%rsp, %rbp
	.cfi_def_cfa_register %rbp
	pushq	%r15
	pushq	%r14
	pushq	%r12
	pushq	%rbx
	subq	$32, %rsp
	.cfi_offset %rbx, -48
	.cfi_offset %r12, -40
	.cfi_offset %r14, -32
	.cfi_offset %r15, -24
	movq	%rdi, %rbx
Ltmp911:
	.loc	18 280 9 prologue_end
	movq	8(%rdi), %rcx
Ltmp912:
	.loc	18 280 33 is_stmt 0
	movq	16(%rdi), %rdi
Ltmp913:
	.loc	18 0 33
	movb	$1, %r14b
Ltmp914:
	.loc	5 2851 12 is_stmt 1
	cmpq	%rdi, %rcx
Ltmp915:
	.loc	11 458 13
	jbe	LBB10_109
Ltmp916:
	.loc	18 294 9
	leaq	1(%rdi), %rsi
Ltmp917:
	.loc	18 280 9
	movq	(%rbx), %r8
Ltmp918:
	.loc	11 458 29
	movb	(%r8,%rdi), %al
Ltmp919:
	.loc	18 294 9
	movq	%rsi, 16(%rbx)
Ltmp920:
	.loc	18 430 13
	addb	$-66, %al
	cmpb	$23, %al
	ja	LBB10_109
Ltmp921:
	.loc	18 0 13 is_stmt 0
	leaq	16(%rbx), %r15
	movzbl	%al, %eax
	leaq	LJTI10_0(%rip), %rdx
	movslq	(%rdx,%rax,4), %rax
	addq	%rdx, %rax
	jmpq	*%rax
Ltmp922:
LBB10_3:
	.loc	5 2851 12 is_stmt 1
	cmpq	%rsi, %rcx
Ltmp923:
	.loc	11 458 13
	jbe	LBB10_52
Ltmp924:
	.loc	7 1053 52
	cmpb	$95, (%r8,%rsi)
Ltmp925:
	.loc	18 284 9
	jne	LBB10_52
Ltmp926:
	.loc	18 285 13
	leaq	2(%rdi), %rax
	movq	%rax, (%r15)
	xorl	%eax, %eax
	jmp	LBB10_97
Ltmp927:
LBB10_6:
	.loc	5 2851 12
	cmpq	%rsi, %rcx
Ltmp928:
	.loc	11 458 13
	jbe	LBB10_100
Ltmp929:
	.loc	7 1053 52
	cmpb	$115, (%r8,%rsi)
Ltmp930:
	.loc	18 284 9
	jne	LBB10_100
Ltmp931:
	.loc	18 285 13
	leaq	2(%rdi), %rsi
Ltmp932:
	movq	%rsi, (%r15)
Ltmp933:
	.loc	5 2851 12
	cmpq	%rsi, %rcx
Ltmp934:
	.loc	11 458 13
	jbe	LBB10_63
Ltmp935:
	.loc	7 1053 52
	cmpb	$95, (%r8,%rsi)
Ltmp936:
	.loc	18 284 9
	jne	LBB10_63
Ltmp937:
	.loc	18 285 13
	addq	$3, %rdi
	movq	%rdi, (%r15)
Ltmp938:
	.loc	18 0 13 is_stmt 0
	jmp	LBB10_100
Ltmp939:
LBB10_11:
	.loc	18 456 22 is_stmt 1
	movq	%rbx, %rdi
	callq	__ZN14rustc_demangle2v06Parser9skip_path17h60e1134618bf98cfE
	.loc	18 456 17 is_stmt 0
	testb	%al, %al
	jne	LBB10_109
Ltmp940:
	.loc	18 0 17
	movl	$62, %r12d
Ltmp941:
	.loc	18 280 9 is_stmt 1
	movq	8(%rbx), %rcx
Ltmp942:
	.loc	18 280 33 is_stmt 0
	movq	16(%rbx), %rax
Ltmp943:
	.loc	5 2851 12 is_stmt 1
	cmpq	%rax, %rcx
Ltmp944:
	.loc	11 458 13
	ja	LBB10_14
Ltmp945:
LBB10_21:
	.loc	18 476 13
	movq	%rbx, %rdi
	callq	__ZN14rustc_demangle2v06Parser9skip_type17hb34906a2c19b987fE
Ltmp946:
	.loc	18 458 21
	testb	%al, %al
	jne	LBB10_109
Ltmp947:
LBB10_13:
	.loc	18 280 9
	movq	8(%rbx), %rcx
Ltmp948:
	.loc	18 280 33 is_stmt 0
	movq	16(%rbx), %rax
Ltmp949:
	.loc	5 2851 12 is_stmt 1
	cmpq	%rax, %rcx
Ltmp950:
	.loc	11 458 13
	jbe	LBB10_21
Ltmp951:
LBB10_14:
	.loc	18 280 9
	movq	(%rbx), %rdx
Ltmp952:
	.loc	7 1053 52
	cmpb	$69, (%rdx,%rax)
Ltmp953:
	.loc	18 284 9
	je	LBB10_112
Ltmp954:
	.loc	18 280 9
	movq	(%rbx), %r8
Ltmp955:
	.loc	7 1053 52
	cmpb	$76, (%r8,%rax)
Ltmp956:
	.loc	18 284 9
	jne	LBB10_19
Ltmp957:
	.loc	18 285 13
	leaq	1(%rax), %rdi
Ltmp958:
	movq	%rdi, (%r15)
Ltmp959:
	.loc	5 2851 12
	cmpq	%rdi, %rcx
Ltmp960:
	.loc	11 458 13
	jbe	LBB10_22
Ltmp961:
	.loc	7 1053 52
	cmpb	$95, (%r8,%rdi)
Ltmp962:
	.loc	18 284 9
	jne	LBB10_22
Ltmp963:
	.loc	18 285 13
	addq	$2, %rax
	movq	%rax, (%r15)
Ltmp964:
	.loc	18 280 9
	movq	8(%rbx), %rcx
Ltmp965:
	.loc	18 280 33 is_stmt 0
	movq	16(%rbx), %rax
Ltmp966:
	.loc	5 2851 12 is_stmt 1
	cmpq	%rax, %rcx
Ltmp967:
	.loc	11 458 13
	ja	LBB10_14
	jmp	LBB10_21
Ltmp968:
LBB10_19:
	.loc	18 280 9
	movq	(%rbx), %rcx
Ltmp969:
	.loc	7 1053 52
	cmpb	$75, (%rcx,%rax)
Ltmp970:
	.loc	18 284 9
	jne	LBB10_21
Ltmp971:
	.loc	18 285 13
	incq	%rax
	movq	%rax, 16(%rbx)
Ltmp972:
	.loc	18 474 13
	movq	%rbx, %rdi
	callq	__ZN14rustc_demangle2v06Parser10skip_const17ha695ae4c72484773E
Ltmp973:
	.loc	18 458 21
	testb	%al, %al
	je	LBB10_13
	jmp	LBB10_109
Ltmp974:
LBB10_22:
	.loc	18 0 0 is_stmt 0
	xorl	%eax, %eax
Ltmp975:
	.p2align	4, 0x90
LBB10_23:
	.loc	5 2851 12 is_stmt 1
	cmpq	%rdi, %rcx
Ltmp976:
	.loc	11 458 13
	jbe	LBB10_109
Ltmp977:
	.loc	11 458 29 is_stmt 0
	movzbl	(%r8,%rdi), %edx
Ltmp978:
	.loc	7 1053 52 is_stmt 1
	cmpb	$95, %dl
Ltmp979:
	.loc	18 284 9
	je	LBB10_33
Ltmp980:
	.loc	18 321 22
	leal	-48(%rdx), %esi
	cmpb	$10, %sil
	jb	LBB10_31
Ltmp981:
	.loc	18 322 22
	leal	-97(%rdx), %esi
	cmpb	$26, %sil
	jae	LBB10_28
Ltmp982:
	.loc	18 322 38 is_stmt 0
	addb	$-87, %dl
	jmp	LBB10_30
Ltmp983:
LBB10_28:
	.loc	18 323 22 is_stmt 1
	leal	-65(%rdx), %esi
	cmpb	$26, %sil
	jae	LBB10_109
Ltmp984:
	.loc	18 323 38 is_stmt 0
	addb	$-29, %dl
Ltmp985:
LBB10_30:
	.loc	18 0 0
	movl	%edx, %esi
Ltmp986:
LBB10_31:
	.loc	18 326 9 is_stmt 1
	incq	%rdi
	movq	%rdi, (%r15)
Ltmp987:
	.loc	19 3688 26
	mulq	%r12
Ltmp988:
	.loc	18 338 17
	jo	LBB10_109
Ltmp989:
	.loc	18 337 21
	movzbl	%sil, %edx
Ltmp990:
	.loc	19 3632 30
	addq	%rdx, %rax
	jae	LBB10_23
	jmp	LBB10_109
Ltmp991:
LBB10_33:
	.loc	18 285 13
	incq	%rdi
	movq	%rdi, (%r15)
Ltmp992:
	.loc	19 3632 30
	cmpq	$-1, %rax
Ltmp993:
	.loc	18 471 13
	jne	LBB10_13
	jmp	LBB10_109
Ltmp994:
LBB10_34:
	.loc	5 2851 12
	cmpq	%rsi, %rcx
Ltmp995:
	.loc	11 458 13
	jbe	LBB10_103
Ltmp996:
	.loc	7 1053 52
	cmpb	$115, (%r8,%rsi)
Ltmp997:
	.loc	18 284 9
	jne	LBB10_103
Ltmp998:
	.loc	18 285 13
	leaq	2(%rdi), %rsi
Ltmp999:
	movq	%rsi, (%r15)
Ltmp1000:
	.loc	5 2851 12
	cmpq	%rsi, %rcx
Ltmp1001:
	.loc	11 458 13
	jbe	LBB10_74
Ltmp1002:
	.loc	7 1053 52
	cmpb	$95, (%r8,%rsi)
Ltmp1003:
	.loc	18 284 9
	jne	LBB10_74
Ltmp1004:
	.loc	18 285 13
	addq	$3, %rdi
	movq	%rdi, (%r15)
Ltmp1005:
	.loc	18 442 22
	movq	%rbx, %rdi
	callq	__ZN14rustc_demangle2v06Parser9skip_path17h60e1134618bf98cfE
	.loc	18 442 17 is_stmt 0
	testb	%al, %al
	je	LBB10_104
	jmp	LBB10_109
Ltmp1006:
LBB10_39:
	.loc	5 2851 12 is_stmt 1
	cmpq	%rsi, %rcx
Ltmp1007:
	.loc	11 458 13
	jbe	LBB10_109
Ltmp1008:
	.loc	11 458 29 is_stmt 0
	movb	1(%r8,%rdi), %al
Ltmp1009:
	.loc	18 294 9 is_stmt 1
	addq	$2, %rdi
	movq	%rdi, (%r15)
Ltmp1010:
	.loc	18 358 18
	andb	$-33, %al
	addb	$-65, %al
	cmpb	$25, %al
	ja	LBB10_109
Ltmp1011:
	.loc	18 436 22
	movq	%rbx, %rdi
	callq	__ZN14rustc_demangle2v06Parser9skip_path17h60e1134618bf98cfE
	.loc	18 436 17 is_stmt 0
	testb	%al, %al
	jne	LBB10_109
Ltmp1012:
	.loc	18 280 9 is_stmt 1
	movq	8(%rbx), %rcx
Ltmp1013:
	.loc	18 280 33 is_stmt 0
	movq	16(%rbx), %rax
Ltmp1014:
	.loc	5 2851 12 is_stmt 1
	cmpq	%rax, %rcx
Ltmp1015:
	.loc	11 458 13
	jbe	LBB10_100
Ltmp1016:
	.loc	18 280 9
	movq	(%rbx), %r9
Ltmp1017:
	.loc	7 1053 52
	cmpb	$115, (%r9,%rax)
Ltmp1018:
	.loc	18 284 9
	jne	LBB10_100
Ltmp1019:
	.loc	18 285 13
	leaq	1(%rax), %rdi
Ltmp1020:
	movq	%rdi, (%r15)
Ltmp1021:
	.loc	5 2851 12
	cmpq	%rdi, %rcx
Ltmp1022:
	.loc	11 458 13
	jbe	LBB10_113
Ltmp1023:
	.loc	7 1053 52
	cmpb	$95, (%r9,%rdi)
Ltmp1024:
	.loc	18 284 9
	jne	LBB10_113
Ltmp1025:
	.loc	18 285 13
	addq	$2, %rax
	movq	%rax, (%r15)
Ltmp1026:
	.loc	18 0 13 is_stmt 0
	jmp	LBB10_100
Ltmp1027:
LBB10_47:
	.loc	5 2851 12 is_stmt 1
	cmpq	%rsi, %rcx
Ltmp1028:
	.loc	11 458 13
	jbe	LBB10_107
Ltmp1029:
	.loc	7 1053 52
	cmpb	$115, (%r8,%rsi)
Ltmp1030:
	.loc	18 284 9
	jne	LBB10_107
Ltmp1031:
	.loc	18 285 13
	leaq	2(%rdi), %rsi
Ltmp1032:
	movq	%rsi, (%r15)
Ltmp1033:
	.loc	5 2851 12
	cmpq	%rsi, %rcx
Ltmp1034:
	.loc	11 458 13
	jbe	LBB10_85
Ltmp1035:
	.loc	7 1053 52
	cmpb	$95, (%r8,%rsi)
Ltmp1036:
	.loc	18 284 9
	jne	LBB10_85
Ltmp1037:
	.loc	18 285 13
	addq	$3, %rdi
	movq	%rdi, (%r15)
Ltmp1038:
	.loc	18 447 22
	movq	%rbx, %rdi
	callq	__ZN14rustc_demangle2v06Parser9skip_path17h60e1134618bf98cfE
	.loc	18 447 17 is_stmt 0
	testb	%al, %al
	je	LBB10_108
	jmp	LBB10_109
Ltmp1039:
LBB10_52:
	.loc	18 0 17
	xorl	%eax, %eax
	movl	$62, %r9d
Ltmp1040:
	.p2align	4, 0x90
LBB10_53:
	.loc	5 2851 12 is_stmt 1
	cmpq	%rsi, %rcx
Ltmp1041:
	.loc	11 458 13
	jbe	LBB10_109
Ltmp1042:
	.loc	11 458 29 is_stmt 0
	movzbl	(%r8,%rsi), %edx
Ltmp1043:
	.loc	7 1053 52 is_stmt 1
	cmpb	$95, %dl
Ltmp1044:
	.loc	18 284 9
	je	LBB10_96
Ltmp1045:
	.loc	18 321 22
	leal	-48(%rdx), %ebx
Ltmp1046:
	cmpb	$10, %bl
	jb	LBB10_61
Ltmp1047:
	.loc	18 322 22
	leal	-97(%rdx), %ebx
	cmpb	$26, %bl
	jae	LBB10_58
Ltmp1048:
	.loc	18 322 38 is_stmt 0
	addb	$-87, %dl
	jmp	LBB10_60
Ltmp1049:
LBB10_58:
	.loc	18 323 22 is_stmt 1
	leal	-65(%rdx), %ebx
	cmpb	$26, %bl
	jae	LBB10_109
Ltmp1050:
	.loc	18 323 38 is_stmt 0
	addb	$-29, %dl
Ltmp1051:
LBB10_60:
	.loc	18 0 0
	movl	%edx, %ebx
Ltmp1052:
LBB10_61:
	.loc	18 326 9 is_stmt 1
	incq	%rsi
	movq	%rsi, (%r15)
Ltmp1053:
	.loc	19 3688 26
	mulq	%r9
Ltmp1054:
	.loc	18 338 17
	jo	LBB10_109
Ltmp1055:
	.loc	18 337 21
	movzbl	%bl, %edx
Ltmp1056:
	.loc	19 3632 30
	addq	%rdx, %rax
	jae	LBB10_53
	jmp	LBB10_109
Ltmp1057:
LBB10_63:
	.loc	19 0 30 is_stmt 0
	xorl	%eax, %eax
	movl	$62, %r9d
Ltmp1058:
LBB10_64:
	.loc	5 2851 12 is_stmt 1
	cmpq	%rsi, %rcx
Ltmp1059:
	.loc	11 458 13
	jbe	LBB10_109
Ltmp1060:
	.loc	11 458 29 is_stmt 0
	movzbl	(%r8,%rsi), %edx
Ltmp1061:
	.loc	7 1053 52 is_stmt 1
	cmpb	$95, %dl
Ltmp1062:
	.loc	18 284 9
	je	LBB10_98
Ltmp1063:
	.loc	18 321 22
	leal	-48(%rdx), %edi
	cmpb	$10, %dil
	jb	LBB10_72
Ltmp1064:
	.loc	18 322 22
	leal	-97(%rdx), %edi
	cmpb	$26, %dil
	jae	LBB10_69
Ltmp1065:
	.loc	18 322 38 is_stmt 0
	addb	$-87, %dl
	jmp	LBB10_71
Ltmp1066:
LBB10_69:
	.loc	18 323 22 is_stmt 1
	leal	-65(%rdx), %edi
	cmpb	$26, %dil
	jae	LBB10_109
Ltmp1067:
	.loc	18 323 38 is_stmt 0
	addb	$-29, %dl
Ltmp1068:
LBB10_71:
	.loc	18 0 0
	movl	%edx, %edi
Ltmp1069:
LBB10_72:
	.loc	18 326 9 is_stmt 1
	incq	%rsi
	movq	%rsi, (%r15)
Ltmp1070:
	.loc	19 3688 26
	mulq	%r9
Ltmp1071:
	.loc	18 338 17
	jo	LBB10_109
Ltmp1072:
	.loc	18 337 21
	movzbl	%dil, %edx
Ltmp1073:
	.loc	19 3632 30
	addq	%rdx, %rax
Ltmp1074:
	.loc	18 339 17
	jae	LBB10_64
	jmp	LBB10_109
Ltmp1075:
LBB10_74:
	.loc	18 0 17 is_stmt 0
	xorl	%eax, %eax
	movl	$62, %r9d
Ltmp1076:
LBB10_75:
	.loc	5 2851 12 is_stmt 1
	cmpq	%rsi, %rcx
Ltmp1077:
	.loc	11 458 13
	jbe	LBB10_109
Ltmp1078:
	.loc	11 458 29 is_stmt 0
	movzbl	(%r8,%rsi), %edx
Ltmp1079:
	.loc	7 1053 52 is_stmt 1
	cmpb	$95, %dl
Ltmp1080:
	.loc	18 284 9
	je	LBB10_101
Ltmp1081:
	.loc	18 321 22
	leal	-48(%rdx), %edi
	cmpb	$10, %dil
	jb	LBB10_83
Ltmp1082:
	.loc	18 322 22
	leal	-97(%rdx), %edi
	cmpb	$26, %dil
	jae	LBB10_80
Ltmp1083:
	.loc	18 322 38 is_stmt 0
	addb	$-87, %dl
	jmp	LBB10_82
Ltmp1084:
LBB10_80:
	.loc	18 323 22 is_stmt 1
	leal	-65(%rdx), %edi
	cmpb	$26, %dil
	jae	LBB10_109
Ltmp1085:
	.loc	18 323 38 is_stmt 0
	addb	$-29, %dl
Ltmp1086:
LBB10_82:
	.loc	18 0 0
	movl	%edx, %edi
Ltmp1087:
LBB10_83:
	.loc	18 326 9 is_stmt 1
	incq	%rsi
	movq	%rsi, (%r15)
Ltmp1088:
	.loc	19 3688 26
	mulq	%r9
Ltmp1089:
	.loc	18 338 17
	jo	LBB10_109
Ltmp1090:
	.loc	18 337 21
	movzbl	%dil, %edx
Ltmp1091:
	.loc	19 3632 30
	addq	%rdx, %rax
Ltmp1092:
	.loc	18 339 17
	jae	LBB10_75
	jmp	LBB10_109
Ltmp1093:
LBB10_85:
	.loc	18 0 17 is_stmt 0
	xorl	%eax, %eax
	movl	$62, %r9d
Ltmp1094:
LBB10_86:
	.loc	5 2851 12 is_stmt 1
	cmpq	%rsi, %rcx
Ltmp1095:
	.loc	11 458 13
	jbe	LBB10_109
Ltmp1096:
	.loc	11 458 29 is_stmt 0
	movzbl	(%r8,%rsi), %edx
Ltmp1097:
	.loc	7 1053 52 is_stmt 1
	cmpb	$95, %dl
Ltmp1098:
	.loc	18 284 9
	je	LBB10_105
Ltmp1099:
	.loc	18 321 22
	leal	-48(%rdx), %edi
	cmpb	$10, %dil
	jb	LBB10_94
Ltmp1100:
	.loc	18 322 22
	leal	-97(%rdx), %edi
	cmpb	$26, %dil
	jae	LBB10_91
Ltmp1101:
	.loc	18 322 38 is_stmt 0
	addb	$-87, %dl
	jmp	LBB10_93
Ltmp1102:
LBB10_91:
	.loc	18 323 22 is_stmt 1
	leal	-65(%rdx), %edi
	cmpb	$26, %dil
	jae	LBB10_109
Ltmp1103:
	.loc	18 323 38 is_stmt 0
	addb	$-29, %dl
Ltmp1104:
LBB10_93:
	.loc	18 0 0
	movl	%edx, %edi
Ltmp1105:
LBB10_94:
	.loc	18 326 9 is_stmt 1
	incq	%rsi
	movq	%rsi, (%r15)
Ltmp1106:
	.loc	19 3688 26
	mulq	%r9
Ltmp1107:
	.loc	18 338 17
	jo	LBB10_109
Ltmp1108:
	.loc	18 337 21
	movzbl	%dil, %edx
Ltmp1109:
	.loc	19 3632 30
	addq	%rdx, %rax
Ltmp1110:
	.loc	18 339 17
	jae	LBB10_86
	jmp	LBB10_109
Ltmp1111:
LBB10_96:
	.loc	18 285 13
	incq	%rsi
	movq	%rsi, (%r15)
Ltmp1112:
	.loc	19 3632 30
	incq	%rax
Ltmp1113:
	.loc	18 369 17
	je	LBB10_109
Ltmp1114:
LBB10_97:
	.loc	18 370 12
	cmpq	%rdi, %rax
	setae	%al
	jmp	LBB10_110
Ltmp1115:
LBB10_98:
	.loc	18 285 13
	incq	%rsi
	movq	%rsi, (%r15)
Ltmp1116:
	.loc	18 0 0 is_stmt 0
	incq	%rax
Ltmp1117:
	je	LBB10_109
Ltmp1118:
LBB10_99:
	cmpq	$-1, %rax
	je	LBB10_109
Ltmp1119:
LBB10_100:
	leaq	-64(%rbp), %rdi
	movq	%rbx, %rsi
	callq	__ZN14rustc_demangle2v06Parser5ident17he69b78eb80a16623E
	cmpq	$0, -64(%rbp)
	sete	%r14b
	jmp	LBB10_109
Ltmp1120:
LBB10_101:
	.loc	18 285 13
	incq	%rsi
	movq	%rsi, (%r15)
Ltmp1121:
	.loc	19 3632 30 is_stmt 1
	incq	%rax
Ltmp1122:
	.loc	18 348 9
	je	LBB10_109
Ltmp1123:
	cmpq	$-1, %rax
	je	LBB10_109
Ltmp1124:
LBB10_103:
	.loc	18 442 22
	movq	%rbx, %rdi
	callq	__ZN14rustc_demangle2v06Parser9skip_path17h60e1134618bf98cfE
	.loc	18 442 17 is_stmt 0
	testb	%al, %al
	jne	LBB10_109
Ltmp1125:
LBB10_104:
	.loc	18 443 22 is_stmt 1
	movq	%rbx, %rdi
	addq	$32, %rsp
	popq	%rbx
Ltmp1126:
	popq	%r12
	popq	%r14
	popq	%r15
	popq	%rbp
	jmp	__ZN14rustc_demangle2v06Parser9skip_type17hb34906a2c19b987fE
LBB10_105:
Ltmp1127:
	.loc	18 285 13
	incq	%rsi
	movq	%rsi, (%r15)
Ltmp1128:
	.loc	19 3632 30
	incq	%rax
Ltmp1129:
	.loc	18 348 9
	je	LBB10_109
Ltmp1130:
	cmpq	$-1, %rax
	je	LBB10_109
Ltmp1131:
LBB10_107:
	.loc	18 447 22
	movq	%rbx, %rdi
	callq	__ZN14rustc_demangle2v06Parser9skip_path17h60e1134618bf98cfE
	.loc	18 447 17 is_stmt 0
	testb	%al, %al
	jne	LBB10_109
Ltmp1132:
LBB10_108:
	.loc	18 0 0
	movq	%rbx, %rdi
	callq	__ZN14rustc_demangle2v06Parser9skip_type17hb34906a2c19b987fE
	testb	%al, %al
	je	LBB10_111
Ltmp1133:
LBB10_109:
	.loc	18 467 6 is_stmt 1
	movl	%r14d, %eax
LBB10_110:
	.loc	18 0 0 is_stmt 0
	addq	$32, %rsp
	popq	%rbx
	popq	%r12
	popq	%r14
	popq	%r15
	popq	%rbp
	retq
LBB10_111:
Ltmp1134:
	movq	%rbx, %rdi
	addq	$32, %rsp
	popq	%rbx
Ltmp1135:
	popq	%r12
	popq	%r14
	popq	%r15
	popq	%rbp
	jmp	__ZN14rustc_demangle2v06Parser9skip_path17h60e1134618bf98cfE
LBB10_112:
Ltmp1136:
	.loc	18 285 13 is_stmt 1
	incq	%rax
	movq	%rax, (%r15)
	xorl	%r14d, %r14d
	jmp	LBB10_109
Ltmp1137:
LBB10_113:
	.loc	18 0 13 is_stmt 0
	xorl	%eax, %eax
	movl	$62, %r8d
Ltmp1138:
LBB10_114:
	.loc	5 2851 12 is_stmt 1
	cmpq	%rdi, %rcx
Ltmp1139:
	.loc	11 458 13
	jbe	LBB10_109
Ltmp1140:
	.loc	11 458 29 is_stmt 0
	movzbl	(%r9,%rdi), %edx
Ltmp1141:
	.loc	7 1053 52 is_stmt 1
	cmpb	$95, %dl
Ltmp1142:
	.loc	18 284 9
	je	LBB10_124
Ltmp1143:
	.loc	18 321 22
	leal	-48(%rdx), %esi
	cmpb	$10, %sil
	jb	LBB10_122
Ltmp1144:
	.loc	18 322 22
	leal	-97(%rdx), %esi
	cmpb	$26, %sil
	jae	LBB10_119
Ltmp1145:
	.loc	18 322 38 is_stmt 0
	addb	$-87, %dl
	jmp	LBB10_121
Ltmp1146:
LBB10_119:
	.loc	18 323 22 is_stmt 1
	leal	-65(%rdx), %esi
	cmpb	$26, %sil
	jae	LBB10_109
Ltmp1147:
	.loc	18 323 38 is_stmt 0
	addb	$-29, %dl
Ltmp1148:
LBB10_121:
	.loc	18 0 0
	movl	%edx, %esi
Ltmp1149:
LBB10_122:
	.loc	18 326 9 is_stmt 1
	incq	%rdi
	movq	%rdi, (%r15)
Ltmp1150:
	.loc	19 3688 26
	mulq	%r8
Ltmp1151:
	.loc	18 338 17
	jo	LBB10_109
Ltmp1152:
	.loc	18 337 21
	movzbl	%sil, %edx
Ltmp1153:
	.loc	19 3632 30
	addq	%rdx, %rax
Ltmp1154:
	.loc	18 339 17
	jae	LBB10_114
	jmp	LBB10_109
Ltmp1155:
LBB10_124:
	.loc	18 285 13
	incq	%rdi
	movq	%rdi, (%r15)
Ltmp1156:
	.loc	18 0 0 is_stmt 0
	incq	%rax
Ltmp1157:
	jne	LBB10_99
	jmp	LBB10_109
Ltmp1158:
Lfunc_end10:
	.cfi_endproc
	.p2align	2, 0x90
	.data_region jt32
.set L10_0_set_3, LBB10_3-LJTI10_0
.set L10_0_set_6, LBB10_6-LJTI10_0
.set L10_0_set_109, LBB10_109-LJTI10_0
.set L10_0_set_11, LBB10_11-LJTI10_0
.set L10_0_set_34, LBB10_34-LJTI10_0
.set L10_0_set_39, LBB10_39-LJTI10_0
.set L10_0_set_47, LBB10_47-LJTI10_0
.set L10_0_set_108, LBB10_108-LJTI10_0
LJTI10_0:
	.long	L10_0_set_3
	.long	L10_0_set_6
	.long	L10_0_set_109
	.long	L10_0_set_109
	.long	L10_0_set_109
	.long	L10_0_set_109
	.long	L10_0_set_109
	.long	L10_0_set_11
	.long	L10_0_set_109
	.long	L10_0_set_109
	.long	L10_0_set_109
	.long	L10_0_set_34
	.long	L10_0_set_39
	.long	L10_0_set_109
	.long	L10_0_set_109
	.long	L10_0_set_109
	.long	L10_0_set_109
	.long	L10_0_set_109
	.long	L10_0_set_109
	.long	L10_0_set_109
	.long	L10_0_set_109
	.long	L10_0_set_109
	.long	L10_0_set_47
	.long	L10_0_set_108
	.end_data_region

	.p2align	4, 0x90
__ZN14rustc_demangle2v06Parser9skip_type17hb34906a2c19b987fE:
Lfunc_begin11:
	.loc	18 480 0 is_stmt 1
	.cfi_startproc
	pushq	%rbp
	.cfi_def_cfa_offset 16
	.cfi_offset %rbp, -16
	movq	%rsp, %rbp
	.cfi_def_cfa_register %rbp
	pushq	%r15
	pushq	%r14
	pushq	%rbx
	subq	$40, %rsp
	.cfi_offset %rbx, -40
	.cfi_offset %r14, -32
	.cfi_offset %r15, -24
	movq	%rdi, %rbx
Ltmp1159:
	.loc	18 280 9 prologue_end
	movq	8(%rdi), %r9
Ltmp1160:
	.loc	18 280 33 is_stmt 0
	movq	16(%rdi), %rdi
Ltmp1161:
	.loc	5 2851 12 is_stmt 1
	cmpq	%rdi, %r9
Ltmp1162:
	.loc	11 458 13
	jbe	LBB11_105
Ltmp1163:
	.loc	18 294 9
	leaq	1(%rdi), %rsi
Ltmp1164:
	.loc	18 280 9
	movq	(%rbx), %r8
Ltmp1165:
	.loc	11 458 29
	movb	(%r8,%rdi), %cl
Ltmp1166:
	.loc	18 294 9
	movq	%rsi, 16(%rbx)
Ltmp1167:
	.loc	18 247 9
	addb	$-65, %cl
	cmpb	$57, %cl
	ja	LBB11_126
Ltmp1168:
	.loc	18 0 9 is_stmt 0
	leaq	16(%rbx), %r15
	xorl	%eax, %eax
	movzbl	%cl, %ecx
	leaq	LJTI11_0(%rip), %rdx
	movslq	(%rdx,%rcx,4), %rcx
	addq	%rdx, %rcx
	jmpq	*%rcx
Ltmp1169:
LBB11_3:
	.loc	5 2851 12 is_stmt 1
	cmpq	%rsi, %r9
Ltmp1170:
	.loc	11 458 13
	jbe	LBB11_20
Ltmp1171:
	.loc	7 1053 52
	cmpb	$76, (%r8,%rsi)
Ltmp1172:
	.loc	18 284 9
	jne	LBB11_20
Ltmp1173:
	.loc	18 285 13
	leaq	2(%rdi), %rsi
Ltmp1174:
	movq	%rsi, (%r15)
Ltmp1175:
	.loc	5 2851 12
	cmpq	%rsi, %r9
Ltmp1176:
	.loc	11 458 13
	jbe	LBB11_6
Ltmp1177:
	.loc	7 1053 52
	cmpb	$95, (%r8,%rsi)
Ltmp1178:
	.loc	18 284 9
	jne	LBB11_6
Ltmp1179:
	.loc	18 285 13
	addq	$3, %rdi
	movq	%rdi, (%r15)
	jmp	LBB11_20
Ltmp1180:
	.p2align	4, 0x90
LBB11_23:
	.loc	18 496 22
	movq	%rbx, %rdi
	callq	__ZN14rustc_demangle2v06Parser9skip_type17hb34906a2c19b987fE
	.loc	18 496 17 is_stmt 0
	testb	%al, %al
	jne	LBB11_105
Ltmp1181:
	.loc	18 280 9 is_stmt 1
	movq	8(%rbx), %r9
	.loc	18 280 33 is_stmt 0
	movq	16(%rbx), %rsi
Ltmp1182:
LBB11_25:
	.loc	5 2851 12 is_stmt 1
	cmpq	%rsi, %r9
Ltmp1183:
	.loc	11 458 13
	jbe	LBB11_23
Ltmp1184:
	.loc	18 280 9
	movq	(%rbx), %rax
Ltmp1185:
	.loc	7 1053 52
	cmpb	$69, (%rax,%rsi)
Ltmp1186:
	.loc	18 284 9
	jne	LBB11_23
Ltmp1187:
	.loc	18 285 13
	incq	%rsi
Ltmp1188:
LBB11_28:
	.loc	18 0 0 is_stmt 0
	movq	%rsi, (%r15)
	xorl	%eax, %eax
	jmp	LBB11_106
Ltmp1189:
LBB11_21:
	.loc	18 492 22 is_stmt 1
	movq	%rbx, %rdi
	callq	__ZN14rustc_demangle2v06Parser9skip_type17hb34906a2c19b987fE
	movl	%eax, %ecx
	movb	$1, %al
	.loc	18 492 17 is_stmt 0
	testb	%cl, %cl
	jne	LBB11_106
Ltmp1190:
	.loc	18 493 22 is_stmt 1
	movq	%rbx, %rdi
	addq	$40, %rsp
	popq	%rbx
Ltmp1191:
	popq	%r14
	popq	%r15
	popq	%rbp
	jmp	__ZN14rustc_demangle2v06Parser10skip_const17ha695ae4c72484773E
LBB11_110:
Ltmp1192:
	.loc	5 2851 12
	cmpq	%rsi, %r9
Ltmp1193:
	.loc	11 458 13
	jbe	LBB11_111
Ltmp1194:
	.loc	7 1053 52
	cmpb	$95, (%r8,%rsi)
Ltmp1195:
	.loc	18 284 9
	jne	LBB11_111
Ltmp1196:
	.loc	18 285 13
	leaq	2(%rdi), %rax
	movq	%rax, (%r15)
	xorl	%ecx, %ecx
	jmp	LBB11_125
Ltmp1197:
LBB11_126:
	.loc	18 534 17
	movq	%rdi, 16(%rbx)
	.loc	18 535 22
	movq	%rbx, %rdi
	addq	$40, %rsp
	popq	%rbx
Ltmp1198:
	popq	%r14
	popq	%r15
	popq	%rbp
	jmp	__ZN14rustc_demangle2v06Parser9skip_path17h60e1134618bf98cfE
LBB11_62:
Ltmp1199:
	.loc	5 2851 12
	cmpq	%rsi, %r9
Ltmp1200:
	.loc	11 458 13
	jbe	LBB11_74
Ltmp1201:
	.loc	7 1053 52
	cmpb	$71, (%r8,%rsi)
Ltmp1202:
	.loc	18 284 9
	jne	LBB11_74
Ltmp1203:
	.loc	18 285 13
	leaq	2(%rdi), %rsi
Ltmp1204:
	movq	%rsi, (%r15)
Ltmp1205:
	.loc	5 2851 12
	cmpq	%rsi, %r9
Ltmp1206:
	.loc	11 458 13
	jbe	LBB11_65
Ltmp1207:
	.loc	7 1053 52
	cmpb	$95, (%r8,%rsi)
Ltmp1208:
	.loc	18 284 9
	jne	LBB11_65
Ltmp1209:
	.loc	18 285 13
	addq	$3, %rdi
	movq	%rdi, (%r15)
Ltmp1210:
	.loc	18 0 13 is_stmt 0
	movq	%rdi, %rsi
	jmp	LBB11_74
Ltmp1211:
LBB11_29:
	.loc	5 2851 12 is_stmt 1
	cmpq	%rsi, %r9
Ltmp1212:
	.loc	11 458 13
	jbe	LBB11_41
Ltmp1213:
	.loc	7 1053 52
	cmpb	$71, (%r8,%rsi)
Ltmp1214:
	.loc	18 284 9
	jne	LBB11_41
Ltmp1215:
	.loc	18 285 13
	leaq	2(%rdi), %rsi
Ltmp1216:
	movq	%rsi, (%r15)
Ltmp1217:
	.loc	5 2851 12
	cmpq	%rsi, %r9
Ltmp1218:
	.loc	11 458 13
	jbe	LBB11_32
Ltmp1219:
	.loc	7 1053 52
	cmpb	$95, (%r8,%rsi)
Ltmp1220:
	.loc	18 284 9
	jne	LBB11_32
Ltmp1221:
	.loc	18 285 13
	addq	$3, %rdi
	movq	%rdi, (%r15)
Ltmp1222:
	.loc	18 280 33
	movq	%rdi, %rsi
Ltmp1223:
	.loc	5 2851 12
	cmpq	%rsi, %r9
Ltmp1224:
	.loc	11 458 13
	ja	LBB11_42
	jmp	LBB11_44
Ltmp1225:
LBB11_111:
	.loc	11 0 13 is_stmt 0
	xorl	%ecx, %ecx
	movl	$62, %r10d
Ltmp1226:
LBB11_112:
	.loc	5 2851 12 is_stmt 1
	cmpq	%rsi, %r9
Ltmp1227:
	.loc	11 458 13
	jbe	LBB11_105
Ltmp1228:
	.loc	11 458 29 is_stmt 0
	movzbl	(%r8,%rsi), %eax
Ltmp1229:
	.loc	7 1053 52 is_stmt 1
	cmpb	$95, %al
Ltmp1230:
	.loc	18 284 9
	je	LBB11_124
Ltmp1231:
	.loc	18 321 22
	leal	-48(%rax), %ebx
Ltmp1232:
	cmpb	$10, %bl
	jb	LBB11_122
Ltmp1233:
	.loc	18 322 22
	leal	-97(%rax), %edx
	cmpb	$26, %dl
	jae	LBB11_116
Ltmp1234:
	.loc	18 322 38 is_stmt 0
	addb	$-87, %al
	jmp	LBB11_121
Ltmp1235:
LBB11_116:
	.loc	18 323 22 is_stmt 1
	leal	-65(%rax), %edx
	cmpb	$26, %dl
	jae	LBB11_105
Ltmp1236:
	.loc	18 323 38 is_stmt 0
	addb	$-29, %al
Ltmp1237:
LBB11_121:
	.loc	18 0 0
	movl	%eax, %ebx
Ltmp1238:
LBB11_122:
	.loc	18 326 9 is_stmt 1
	incq	%rsi
	movq	%rsi, (%r15)
Ltmp1239:
	.loc	19 3688 26
	movq	%rcx, %rax
	mulq	%r10
Ltmp1240:
	.loc	18 338 17
	jo	LBB11_105
Ltmp1241:
	.loc	18 0 0 is_stmt 0
	movq	%rax, %rcx
Ltmp1242:
	.loc	18 337 21 is_stmt 1
	movzbl	%bl, %eax
Ltmp1243:
	.loc	19 3632 30
	addq	%rax, %rcx
	jae	LBB11_112
	jmp	LBB11_105
Ltmp1244:
LBB11_6:
	.loc	19 0 30 is_stmt 0
	xorl	%ecx, %ecx
	movl	$62, %r10d
Ltmp1245:
LBB11_7:
	.loc	5 2851 12 is_stmt 1
	cmpq	%rsi, %r9
Ltmp1246:
	.loc	11 458 13
	jbe	LBB11_105
Ltmp1247:
	.loc	11 458 29 is_stmt 0
	movzbl	(%r8,%rsi), %eax
Ltmp1248:
	.loc	7 1053 52 is_stmt 1
	cmpb	$95, %al
Ltmp1249:
	.loc	18 284 9
	je	LBB11_19
Ltmp1250:
	.loc	18 321 22
	leal	-48(%rax), %edi
	cmpb	$10, %dil
	jb	LBB11_17
Ltmp1251:
	.loc	18 322 22
	leal	-97(%rax), %edx
	cmpb	$26, %dl
	jae	LBB11_11
Ltmp1252:
	.loc	18 322 38 is_stmt 0
	addb	$-87, %al
	jmp	LBB11_16
Ltmp1253:
LBB11_11:
	.loc	18 323 22 is_stmt 1
	leal	-65(%rax), %edx
	cmpb	$26, %dl
	jae	LBB11_105
Ltmp1254:
	.loc	18 323 38 is_stmt 0
	addb	$-29, %al
Ltmp1255:
LBB11_16:
	.loc	18 0 0
	movl	%eax, %edi
Ltmp1256:
LBB11_17:
	.loc	18 326 9 is_stmt 1
	incq	%rsi
	movq	%rsi, (%r15)
Ltmp1257:
	.loc	19 3688 26
	movq	%rcx, %rax
	mulq	%r10
Ltmp1258:
	.loc	18 338 17
	jo	LBB11_105
Ltmp1259:
	.loc	18 0 0 is_stmt 0
	movq	%rax, %rcx
Ltmp1260:
	.loc	18 337 21 is_stmt 1
	movzbl	%dil, %eax
Ltmp1261:
	.loc	19 3632 30
	addq	%rax, %rcx
Ltmp1262:
	.loc	18 339 17
	jae	LBB11_7
	jmp	LBB11_105
Ltmp1263:
LBB11_65:
	.loc	18 0 17 is_stmt 0
	xorl	%eax, %eax
	movl	$62, %ecx
Ltmp1264:
LBB11_66:
	.loc	5 2851 12 is_stmt 1
	cmpq	%rsi, %r9
Ltmp1265:
	.loc	11 458 13
	jbe	LBB11_105
Ltmp1266:
	.loc	11 458 29 is_stmt 0
	movzbl	(%r8,%rsi), %edx
Ltmp1267:
	.loc	7 1053 52 is_stmt 1
	cmpb	$95, %dl
Ltmp1268:
	.loc	18 284 9
	je	LBB11_91
Ltmp1269:
	.loc	18 321 22
	leal	-48(%rdx), %edi
	cmpb	$10, %dil
	jb	LBB11_89
Ltmp1270:
	.loc	18 322 22
	leal	-97(%rdx), %edi
	cmpb	$26, %dil
	jae	LBB11_70
Ltmp1271:
	.loc	18 322 38 is_stmt 0
	addb	$-87, %dl
	jmp	LBB11_88
Ltmp1272:
LBB11_70:
	.loc	18 323 22 is_stmt 1
	leal	-65(%rdx), %edi
	cmpb	$26, %dil
	jae	LBB11_105
Ltmp1273:
	.loc	18 323 38 is_stmt 0
	addb	$-29, %dl
Ltmp1274:
LBB11_88:
	.loc	18 0 0
	movl	%edx, %edi
Ltmp1275:
LBB11_89:
	.loc	18 326 9 is_stmt 1
	incq	%rsi
	movq	%rsi, (%r15)
Ltmp1276:
	.loc	19 3688 26
	mulq	%rcx
Ltmp1277:
	.loc	18 338 17
	jo	LBB11_105
Ltmp1278:
	.loc	18 337 21
	movzbl	%dil, %edx
Ltmp1279:
	.loc	19 3632 30
	addq	%rdx, %rax
Ltmp1280:
	.loc	18 339 17
	jae	LBB11_66
	jmp	LBB11_105
Ltmp1281:
LBB11_32:
	.loc	18 0 17 is_stmt 0
	xorl	%eax, %eax
	movl	$62, %ecx
Ltmp1282:
LBB11_33:
	.loc	5 2851 12 is_stmt 1
	cmpq	%rsi, %r9
Ltmp1283:
	.loc	11 458 13
	jbe	LBB11_105
Ltmp1284:
	.loc	11 458 29 is_stmt 0
	movzbl	(%r8,%rsi), %edx
Ltmp1285:
	.loc	7 1053 52 is_stmt 1
	cmpb	$95, %dl
Ltmp1286:
	.loc	18 284 9
	je	LBB11_56
Ltmp1287:
	.loc	18 321 22
	leal	-48(%rdx), %edi
	cmpb	$10, %dil
	jb	LBB11_54
Ltmp1288:
	.loc	18 322 22
	leal	-97(%rdx), %edi
	cmpb	$26, %dil
	jae	LBB11_37
Ltmp1289:
	.loc	18 322 38 is_stmt 0
	addb	$-87, %dl
	jmp	LBB11_53
Ltmp1290:
LBB11_37:
	.loc	18 323 22 is_stmt 1
	leal	-65(%rdx), %edi
	cmpb	$26, %dil
	jae	LBB11_105
Ltmp1291:
	.loc	18 323 38 is_stmt 0
	addb	$-29, %dl
Ltmp1292:
LBB11_53:
	.loc	18 0 0
	movl	%edx, %edi
Ltmp1293:
LBB11_54:
	.loc	18 326 9 is_stmt 1
	incq	%rsi
	movq	%rsi, (%r15)
Ltmp1294:
	.loc	19 3688 26
	mulq	%rcx
Ltmp1295:
	.loc	18 338 17
	jo	LBB11_105
Ltmp1296:
	.loc	18 337 21
	movzbl	%dil, %edx
Ltmp1297:
	.loc	19 3632 30
	addq	%rdx, %rax
Ltmp1298:
	.loc	18 339 17
	jae	LBB11_33
	jmp	LBB11_105
Ltmp1299:
LBB11_124:
	.loc	18 285 13
	incq	%rsi
	movq	%rsi, (%r15)
Ltmp1300:
	.loc	18 0 13 is_stmt 0
	movb	$1, %al
Ltmp1301:
	.loc	19 3632 30 is_stmt 1
	incq	%rcx
Ltmp1302:
	.loc	18 369 17
	je	LBB11_106
Ltmp1303:
LBB11_125:
	.loc	18 370 12
	cmpq	%rdi, %rcx
	setae	%al
	jmp	LBB11_107
Ltmp1304:
LBB11_19:
	.loc	18 285 13
	incq	%rsi
	movq	%rsi, (%r15)
Ltmp1305:
	.loc	18 0 13 is_stmt 0
	movb	$1, %al
Ltmp1306:
	.loc	19 3632 30 is_stmt 1
	cmpq	$-1, %rcx
Ltmp1307:
	.loc	18 486 21
	jne	LBB11_20
	jmp	LBB11_106
Ltmp1308:
LBB11_91:
	.loc	18 285 13
	incq	%rsi
	movq	%rsi, (%r15)
Ltmp1309:
	.loc	19 3632 30
	incq	%rax
Ltmp1310:
	.loc	18 348 9
	je	LBB11_105
Ltmp1311:
	cmpq	$-1, %rax
	je	LBB11_105
Ltmp1312:
LBB11_74:
	.loc	18 0 9 is_stmt 0
	leaq	-56(%rbp), %r14
Ltmp1313:
LBB11_75:
	.loc	5 2851 12 is_stmt 1
	cmpq	%rsi, %r9
Ltmp1314:
	.loc	11 458 13
	jbe	LBB11_93
Ltmp1315:
	.loc	18 280 9
	movq	(%rbx), %rcx
Ltmp1316:
	.loc	7 1053 52
	cmpb	$69, (%rcx,%rsi)
Ltmp1317:
	.loc	18 284 9
	je	LBB11_77
Ltmp1318:
LBB11_93:
	.loc	18 518 26
	movq	%rbx, %rdi
	callq	__ZN14rustc_demangle2v06Parser9skip_path17h60e1134618bf98cfE
	.loc	18 0 0 is_stmt 0
	testb	%al, %al
	jne	LBB11_105
Ltmp1319:
	.p2align	4, 0x90
LBB11_95:
	.loc	18 280 9 is_stmt 1
	movq	8(%rbx), %r9
Ltmp1320:
	.loc	18 280 33 is_stmt 0
	movq	16(%rbx), %rsi
Ltmp1321:
	.loc	5 2851 12 is_stmt 1
	cmpq	%rsi, %r9
Ltmp1322:
	.loc	11 458 13
	jbe	LBB11_75
Ltmp1323:
	.loc	18 280 9
	movq	(%rbx), %rax
Ltmp1324:
	.loc	7 1053 52
	cmpb	$112, (%rax,%rsi)
Ltmp1325:
	.loc	18 284 9
	jne	LBB11_75
Ltmp1326:
	.loc	18 285 13
	incq	%rsi
	movq	%rsi, 16(%rbx)
Ltmp1327:
	.loc	18 520 30
	movq	%r14, %rdi
	movq	%rbx, %rsi
	callq	__ZN14rustc_demangle2v06Parser5ident17he69b78eb80a16623E
	.loc	18 520 25 is_stmt 0
	cmpq	$0, -56(%rbp)
	je	LBB11_105
Ltmp1328:
	.loc	18 521 30 is_stmt 1
	movq	%rbx, %rdi
	callq	__ZN14rustc_demangle2v06Parser9skip_type17hb34906a2c19b987fE
	.loc	18 0 0 is_stmt 0
	testb	%al, %al
	je	LBB11_95
	jmp	LBB11_105
Ltmp1329:
LBB11_56:
	.loc	18 285 13 is_stmt 1
	incq	%rsi
	movq	%rsi, (%r15)
Ltmp1330:
	.loc	19 3632 30
	incq	%rax
Ltmp1331:
	.loc	18 348 9
	je	LBB11_105
Ltmp1332:
	cmpq	$-1, %rax
	je	LBB11_105
Ltmp1333:
LBB11_41:
	.loc	5 2851 12
	cmpq	%rsi, %r9
Ltmp1334:
	.loc	11 458 13
	jbe	LBB11_44
Ltmp1335:
LBB11_42:
	.loc	7 1053 52
	cmpb	$85, (%r8,%rsi)
Ltmp1336:
	.loc	18 284 9
	jne	LBB11_44
Ltmp1337:
	.loc	18 285 13
	incq	%rsi
	movq	%rsi, (%r15)
Ltmp1338:
LBB11_44:
	.loc	5 2851 12
	cmpq	%rsi, %r9
Ltmp1339:
	.loc	11 458 13
	jbe	LBB11_49
Ltmp1340:
	.loc	7 1053 52
	cmpb	$75, (%r8,%rsi)
Ltmp1341:
	.loc	18 284 9
	jne	LBB11_49
Ltmp1342:
	.loc	18 285 13
	leaq	1(%rsi), %rax
Ltmp1343:
	movq	%rax, (%r15)
Ltmp1344:
	.loc	5 2851 12
	cmpq	%rax, %r9
Ltmp1345:
	.loc	11 458 13
	jbe	LBB11_58
Ltmp1346:
	.loc	7 1053 52
	cmpb	$67, (%r8,%rax)
Ltmp1347:
	.loc	18 284 9
	jne	LBB11_58
Ltmp1348:
	.loc	18 285 13
	addq	$2, %rsi
	movq	%rsi, (%r15)
Ltmp1349:
	.loc	18 280 33
	movq	16(%rbx), %rax
Ltmp1350:
	.loc	5 2851 12
	cmpq	%rax, 8(%rbx)
Ltmp1351:
	.loc	11 458 13
	ja	LBB11_50
Ltmp1352:
	.p2align	4, 0x90
LBB11_61:
	.loc	18 0 0 is_stmt 0
	movq	%rbx, %rdi
	callq	__ZN14rustc_demangle2v06Parser9skip_type17hb34906a2c19b987fE
	.loc	18 511 21 is_stmt 1
	testb	%al, %al
	jne	LBB11_105
Ltmp1353:
LBB11_49:
	.loc	18 280 33
	movq	16(%rbx), %rax
Ltmp1354:
	.loc	5 2851 12
	cmpq	%rax, 8(%rbx)
Ltmp1355:
	.loc	11 458 13
	jbe	LBB11_61
Ltmp1356:
LBB11_50:
	.loc	18 280 9
	movq	(%rbx), %rcx
Ltmp1357:
	.loc	7 1053 52
	cmpb	$69, (%rcx,%rax)
Ltmp1358:
	.loc	18 284 9
	jne	LBB11_61
Ltmp1359:
	.loc	18 285 13
	incq	%rax
	movq	%rax, 16(%rbx)
Ltmp1360:
LBB11_20:
	.loc	18 0 0 is_stmt 0
	movq	%rbx, %rdi
	addq	$40, %rsp
	popq	%rbx
Ltmp1361:
	popq	%r14
	popq	%r15
	popq	%rbp
	jmp	__ZN14rustc_demangle2v06Parser9skip_type17hb34906a2c19b987fE
LBB11_58:
Ltmp1362:
	leaq	-56(%rbp), %rdi
Ltmp1363:
	.loc	18 504 40 is_stmt 1
	movq	%rbx, %rsi
	callq	__ZN14rustc_demangle2v06Parser5ident17he69b78eb80a16623E
	.loc	18 504 35 is_stmt 0
	cmpq	$0, -56(%rbp)
	je	LBB11_105
Ltmp1364:
	.loc	3 2270 9 is_stmt 1
	cmpq	$0, -48(%rbp)
Ltmp1365:
	.loc	18 505 28
	je	LBB11_105
Ltmp1366:
	.loc	3 2270 9
	cmpq	$0, -32(%rbp)
	jne	LBB11_105
	jmp	LBB11_49
Ltmp1367:
LBB11_77:
	.loc	18 285 13
	leaq	1(%rsi), %rax
Ltmp1368:
	movq	%rax, (%r15)
Ltmp1369:
	.loc	5 2851 12
	cmpq	%rax, %r9
Ltmp1370:
	.loc	11 458 13
	jbe	LBB11_105
Ltmp1371:
	.loc	7 1053 52
	cmpb	$76, (%rcx,%rax)
Ltmp1372:
	.loc	18 284 9
	jne	LBB11_105
Ltmp1373:
	.loc	18 285 13
	leaq	2(%rsi), %rdi
Ltmp1374:
	movq	%rdi, (%r15)
Ltmp1375:
	.loc	5 2851 12
	cmpq	%rdi, %r9
Ltmp1376:
	.loc	11 458 13
	jbe	LBB11_80
Ltmp1377:
	.loc	7 1053 52
	cmpb	$95, (%rcx,%rdi)
Ltmp1378:
	.loc	18 284 9
	jne	LBB11_80
Ltmp1379:
	.loc	18 285 13
	addq	$3, %rsi
	jmp	LBB11_28
Ltmp1380:
LBB11_80:
	.loc	18 0 13 is_stmt 0
	xorl	%eax, %eax
	movl	$62, %esi
Ltmp1381:
LBB11_81:
	.loc	5 2851 12 is_stmt 1
	cmpq	%rdi, %r9
Ltmp1382:
	.loc	11 458 13
	jbe	LBB11_105
Ltmp1383:
	.loc	11 458 29 is_stmt 0
	movzbl	(%rcx,%rdi), %edx
Ltmp1384:
	.loc	7 1053 52 is_stmt 1
	cmpb	$95, %dl
Ltmp1385:
	.loc	18 284 9
	je	LBB11_108
Ltmp1386:
	.loc	18 321 22
	leal	-48(%rdx), %ebx
Ltmp1387:
	cmpb	$10, %bl
	jb	LBB11_103
Ltmp1388:
	.loc	18 322 22
	leal	-97(%rdx), %ebx
	cmpb	$26, %bl
	jae	LBB11_85
Ltmp1389:
	.loc	18 322 38 is_stmt 0
	addb	$-87, %dl
	jmp	LBB11_102
Ltmp1390:
LBB11_85:
	.loc	18 323 22 is_stmt 1
	leal	-65(%rdx), %ebx
	cmpb	$26, %bl
	jae	LBB11_105
Ltmp1391:
	.loc	18 323 38 is_stmt 0
	addb	$-29, %dl
Ltmp1392:
LBB11_102:
	.loc	18 0 0
	movl	%edx, %ebx
Ltmp1393:
LBB11_103:
	.loc	18 326 9 is_stmt 1
	incq	%rdi
	movq	%rdi, (%r15)
Ltmp1394:
	.loc	19 3688 26
	mulq	%rsi
Ltmp1395:
	.loc	18 338 17
	jo	LBB11_105
Ltmp1396:
	.loc	18 337 21
	movzbl	%bl, %edx
Ltmp1397:
	.loc	19 3632 30
	addq	%rdx, %rax
Ltmp1398:
	.loc	18 339 17
	jae	LBB11_81
	jmp	LBB11_105
Ltmp1399:
LBB11_108:
	.loc	18 285 13
	incq	%rdi
	movq	%rdi, (%r15)
Ltmp1400:
	.loc	19 3632 30
	cmpq	$-1, %rax
Ltmp1401:
	.loc	18 527 17
	je	LBB11_105
Ltmp1402:
	.loc	18 0 17 is_stmt 0
	xorl	%eax, %eax
Ltmp1403:
	jmp	LBB11_106
Ltmp1404:
LBB11_105:
	movb	$1, %al
LBB11_106:
LBB11_107:
	addq	$40, %rsp
	popq	%rbx
	popq	%r14
	popq	%r15
	popq	%rbp
	retq
Ltmp1405:
Lfunc_end11:
	.cfi_endproc
	.p2align	2, 0x90
	.data_region jt32
.set L11_0_set_21, LBB11_21-LJTI11_0
.set L11_0_set_110, LBB11_110-LJTI11_0
.set L11_0_set_126, LBB11_126-LJTI11_0
.set L11_0_set_62, LBB11_62-LJTI11_0
.set L11_0_set_29, LBB11_29-LJTI11_0
.set L11_0_set_20, LBB11_20-LJTI11_0
.set L11_0_set_3, LBB11_3-LJTI11_0
.set L11_0_set_25, LBB11_25-LJTI11_0
.set L11_0_set_106, LBB11_106-LJTI11_0
LJTI11_0:
	.long	L11_0_set_21
	.long	L11_0_set_110
	.long	L11_0_set_126
	.long	L11_0_set_62
	.long	L11_0_set_126
	.long	L11_0_set_29
	.long	L11_0_set_126
	.long	L11_0_set_126
	.long	L11_0_set_126
	.long	L11_0_set_126
	.long	L11_0_set_126
	.long	L11_0_set_126
	.long	L11_0_set_126
	.long	L11_0_set_126
	.long	L11_0_set_20
	.long	L11_0_set_20
	.long	L11_0_set_3
	.long	L11_0_set_3
	.long	L11_0_set_20
	.long	L11_0_set_25
	.long	L11_0_set_126
	.long	L11_0_set_126
	.long	L11_0_set_126
	.long	L11_0_set_126
	.long	L11_0_set_126
	.long	L11_0_set_126
	.long	L11_0_set_126
	.long	L11_0_set_126
	.long	L11_0_set_126
	.long	L11_0_set_126
	.long	L11_0_set_126
	.long	L11_0_set_126
	.long	L11_0_set_106
	.long	L11_0_set_106
	.long	L11_0_set_106
	.long	L11_0_set_106
	.long	L11_0_set_106
	.long	L11_0_set_106
	.long	L11_0_set_126
	.long	L11_0_set_106
	.long	L11_0_set_106
	.long	L11_0_set_106
	.long	L11_0_set_126
	.long	L11_0_set_106
	.long	L11_0_set_106
	.long	L11_0_set_106
	.long	L11_0_set_106
	.long	L11_0_set_106
	.long	L11_0_set_126
	.long	L11_0_set_126
	.long	L11_0_set_106
	.long	L11_0_set_106
	.long	L11_0_set_106
	.long	L11_0_set_106
	.long	L11_0_set_126
	.long	L11_0_set_106
	.long	L11_0_set_106
	.long	L11_0_set_106
	.end_data_region

	.p2align	4, 0x90
__ZN14rustc_demangle2v06Parser10skip_const17ha695ae4c72484773E:
Lfunc_begin12:
	.loc	18 541 0 is_stmt 1
	.cfi_startproc
	pushq	%rbp
	.cfi_def_cfa_offset 16
	.cfi_offset %rbp, -16
	movq	%rsp, %rbp
	.cfi_def_cfa_register %rbp
Ltmp1406:
	pushq	%rbx
	subq	$56, %rsp
	.cfi_offset %rbx, -24
	.loc	18 280 9 prologue_end
	movq	8(%rdi), %rcx
Ltmp1407:
	.loc	18 280 33 is_stmt 0
	movq	16(%rdi), %r9
Ltmp1408:
	.loc	18 0 33
	movb	$1, %r8b
Ltmp1409:
	.loc	5 2851 12 is_stmt 1
	cmpq	%r9, %rcx
Ltmp1410:
	.loc	11 458 13
	jbe	LBB12_32
Ltmp1411:
	.loc	18 280 9
	movq	(%rdi), %r10
Ltmp1412:
	.loc	18 0 0 is_stmt 0
	leaq	1(%r9), %rsi
Ltmp1413:
	.loc	7 1053 52 is_stmt 1
	cmpb	$66, (%r10,%r9)
Ltmp1414:
	.loc	18 284 9
	jne	LBB12_18
Ltmp1415:
	.loc	18 285 13
	movq	%rsi, 16(%rdi)
Ltmp1416:
	.loc	5 2851 12
	cmpq	%rsi, %rcx
Ltmp1417:
	.loc	11 458 13
	jbe	LBB12_3
Ltmp1418:
	.loc	7 1053 52
	cmpb	$95, (%r10,%rsi)
Ltmp1419:
	.loc	18 284 9
	jne	LBB12_3
Ltmp1420:
	.loc	18 285 13
	leaq	2(%r9), %rax
	movq	%rax, 16(%rdi)
	xorl	%eax, %eax
	jmp	LBB12_17
Ltmp1421:
LBB12_18:
	.loc	18 280 9
	movq	(%rdi), %r10
Ltmp1422:
	.loc	11 458 29
	movb	(%r10,%r9), %al
Ltmp1423:
	.loc	18 294 9
	movq	%rsi, 16(%rdi)
Ltmp1424:
	.loc	18 549 13
	addb	$-104, %al
	cmpb	$17, %al
	ja	LBB12_32
Ltmp1425:
	.loc	18 0 13 is_stmt 0
	movzbl	%al, %eax
	movl	$135333, %edx
	btq	%rax, %rdx
	jae	LBB12_32
Ltmp1426:
	.loc	18 280 33 is_stmt 1
	movq	%rsi, %rdx
Ltmp1427:
	.loc	5 2851 12
	cmpq	%rsi, %rcx
Ltmp1428:
	.loc	11 458 13
	jbe	LBB12_23
Ltmp1429:
	.loc	7 1053 52
	cmpb	$112, (%r10,%rsi)
Ltmp1430:
	.loc	18 280 33
	movq	%rsi, %rdx
Ltmp1431:
	.loc	18 284 9
	jne	LBB12_23
Ltmp1432:
	.loc	18 285 13
	addq	$2, %r9
	movq	%r9, 16(%rdi)
	jmp	LBB12_31
Ltmp1433:
	.p2align	4, 0x90
LBB12_23:
	.loc	5 2851 12
	cmpq	%rdx, %rcx
Ltmp1434:
	.loc	11 458 13
	jbe	LBB12_32
Ltmp1435:
	.loc	11 458 29 is_stmt 0
	movzbl	(%r10,%rdx), %eax
Ltmp1436:
	.loc	18 294 9 is_stmt 1
	incq	%rdx
Ltmp1437:
	movq	%rdx, 16(%rdi)
Ltmp1438:
	.loc	18 302 17
	leal	-48(%rax), %ebx
	cmpb	$10, %bl
	jb	LBB12_23
Ltmp1439:
	.loc	18 0 0 is_stmt 0
	leal	-97(%rax), %ebx
	.loc	18 302 17
	cmpb	$6, %bl
	jb	LBB12_23
Ltmp1440:
	.loc	18 303 17 is_stmt 1
	cmpb	$95, %al
	jne	LBB12_32
Ltmp1441:
	.loc	18 0 17 is_stmt 0
	leaq	-1(%rdx), %rax
	movq	%r10, -40(%rbp)
	movq	%rcx, -32(%rbp)
Ltmp1442:
	.loc	3 1919 18 is_stmt 1
	movq	%rsi, -16(%rbp)
	.loc	3 1919 25 is_stmt 0
	movq	%rax, -24(%rbp)
Ltmp1443:
	.loc	3 1883 16 is_stmt 1
	cmpq	%r9, %rax
	jbe	LBB12_36
Ltmp1444:
	.loc	3 2303 26
	cmpq	%rsi, %rcx
	.loc	3 2303 12 is_stmt 0
	je	LBB12_29
Ltmp1445:
	.loc	3 2307 13 is_stmt 1
	jbe	LBB12_36
Ltmp1446:
	.loc	3 2309 25
	cmpb	$-65, (%r10,%rsi)
Ltmp1447:
	.loc	3 1883 16
	jle	LBB12_36
Ltmp1448:
LBB12_29:
	.loc	3 0 16 is_stmt 0
	movq	%rdx, %rax
	subq	%rcx, %rax
Ltmp1449:
	.loc	3 2303 26 is_stmt 1
	cmpq	$1, %rax
	.loc	3 2303 12 is_stmt 0
	je	LBB12_31
Ltmp1450:
	.loc	3 2309 25 is_stmt 1
	cmpb	$-65, -1(%r10,%rdx)
Ltmp1451:
	.loc	3 1883 16
	jle	LBB12_36
Ltmp1452:
LBB12_31:
	.loc	3 0 16 is_stmt 0
	xorl	%r8d, %r8d
	jmp	LBB12_32
Ltmp1453:
LBB12_3:
	xorl	%eax, %eax
	movl	$62, %r11d
Ltmp1454:
	.p2align	4, 0x90
LBB12_4:
	.loc	5 2851 12 is_stmt 1
	cmpq	%rsi, %rcx
Ltmp1455:
	.loc	11 458 13
	jbe	LBB12_32
Ltmp1456:
	.loc	11 458 29 is_stmt 0
	movzbl	(%r10,%rsi), %edx
Ltmp1457:
	.loc	7 1053 52 is_stmt 1
	cmpb	$95, %dl
Ltmp1458:
	.loc	18 284 9
	je	LBB12_16
Ltmp1459:
	.loc	18 321 22
	leal	-48(%rdx), %ebx
	cmpb	$10, %bl
	jb	LBB12_14
Ltmp1460:
	.loc	18 322 22
	leal	-97(%rdx), %ebx
	cmpb	$26, %bl
	jae	LBB12_8
Ltmp1461:
	.loc	18 322 38 is_stmt 0
	addb	$-87, %dl
	jmp	LBB12_13
Ltmp1462:
	.p2align	4, 0x90
LBB12_8:
	.loc	18 323 22 is_stmt 1
	leal	-65(%rdx), %ebx
	cmpb	$26, %bl
	jae	LBB12_32
Ltmp1463:
	.loc	18 323 38 is_stmt 0
	addb	$-29, %dl
Ltmp1464:
LBB12_13:
	.loc	18 0 0
	movl	%edx, %ebx
Ltmp1465:
LBB12_14:
	.loc	18 326 9 is_stmt 1
	incq	%rsi
	movq	%rsi, 16(%rdi)
Ltmp1466:
	.loc	19 3688 26
	mulq	%r11
Ltmp1467:
	.loc	18 338 17
	jo	LBB12_32
Ltmp1468:
	.loc	18 337 21
	movzbl	%bl, %edx
Ltmp1469:
	.loc	19 3632 30
	addq	%rdx, %rax
Ltmp1470:
	.loc	18 339 17
	jae	LBB12_4
	jmp	LBB12_32
Ltmp1471:
LBB12_16:
	.loc	18 285 13
	incq	%rsi
	movq	%rsi, 16(%rdi)
Ltmp1472:
	.loc	19 3632 30
	incq	%rax
Ltmp1473:
	.loc	18 369 17
	jne	LBB12_17
Ltmp1474:
LBB12_32:
	.loc	18 559 6
	movl	%r8d, %eax
	.loc	18 0 0 is_stmt 0
	addq	$56, %rsp
	popq	%rbx
	popq	%rbp
	retq
Ltmp1475:
LBB12_17:
	.loc	18 370 12 is_stmt 1
	cmpq	%r9, %rax
	setae	%al
Ltmp1476:
	.loc	18 0 0 is_stmt 0
	addq	$56, %rsp
	popq	%rbx
	popq	%rbp
	retq
Ltmp1477:
LBB12_36:
	leaq	-40(%rbp), %rax
Ltmp1478:
	.loc	11 430 21 is_stmt 1
	movq	%rax, -64(%rbp)
	leaq	-16(%rbp), %rax
	movq	%rax, -56(%rbp)
	leaq	-24(%rbp), %rax
	movq	%rax, -48(%rbp)
	leaq	-64(%rbp), %rdi
Ltmp1479:
	callq	__ZN4core3str6traits101_$LT$impl$u20$core..slice..SliceIndex$LT$str$GT$$u20$for$u20$core..ops..range..Range$LT$usize$GT$$GT$5index28_$u7b$$u7b$closure$u7d$$u7d$17hbac688ed4f6c5d3dE
Ltmp1480:
Lfunc_end12:
	.cfi_endproc

	.p2align	4, 0x90
__ZN14rustc_demangle2v07Printer15backref_printer17h1a537c49d7e4e7bdE:
Lfunc_begin13:
	.loc	18 605 0
	.cfi_startproc
	pushq	%rbp
	.cfi_def_cfa_offset 16
	.cfi_offset %rbp, -16
	movq	%rsp, %rbp
	.cfi_def_cfa_register %rbp
Ltmp1481:
	pushq	%r15
	pushq	%r14
	pushq	%rbx
	pushq	%rax
	.cfi_offset %rbx, -40
	.cfi_offset %r14, -32
	.cfi_offset %r15, -24
	.loc	13 484 13 prologue_end
	movq	(%rsi), %r15
	testq	%r15, %r15
Ltmp1482:
	.loc	13 611 13
	cmovneq	%rsi, %r15
Ltmp1483:
	.loc	13 729 13
	je	LBB13_1
Ltmp1484:
	.loc	18 368 23
	movq	16(%r15), %rbx
Ltmp1485:
	movq	%rbx, %r9
	subq	$1, %r9
Ltmp1486:
	jb	LBB13_21
Ltmp1487:
	.loc	18 0 0 is_stmt 0
	movq	(%r15), %r10
Ltmp1488:
	.loc	18 280 9 is_stmt 1
	movq	8(%r15), %r11
Ltmp1489:
	.loc	5 2851 12
	cmpq	%rbx, %r11
Ltmp1490:
	.loc	11 458 13
	jbe	LBB13_6
Ltmp1491:
	.loc	7 1053 52
	cmpb	$95, (%r10,%rbx)
Ltmp1492:
	.loc	18 284 9
	jne	LBB13_6
Ltmp1493:
	.loc	18 285 13
	incq	%rbx
	movq	%rbx, 16(%r15)
	xorl	%eax, %eax
	jmp	LBB13_18
Ltmp1494:
LBB13_6:
	.loc	18 0 13 is_stmt 0
	xorl	%r8d, %r8d
	movl	$62, %r14d
	xorl	%eax, %eax
Ltmp1495:
	.p2align	4, 0x90
LBB13_7:
	.loc	5 2851 12 is_stmt 1
	cmpq	%rbx, %r11
Ltmp1496:
	.loc	11 458 13
	jbe	LBB13_8
Ltmp1497:
	.loc	11 458 29 is_stmt 0
	movzbl	(%r10,%rbx), %edx
Ltmp1498:
	.loc	7 1053 52 is_stmt 1
	cmpb	$95, %dl
Ltmp1499:
	.loc	18 284 9
	je	LBB13_17
Ltmp1500:
	.loc	18 321 22
	leal	-48(%rdx), %ecx
	cmpb	$10, %cl
	jb	LBB13_15
Ltmp1501:
	.loc	18 322 22
	leal	-97(%rdx), %ecx
	cmpb	$26, %cl
	jae	LBB13_12
Ltmp1502:
	.loc	18 322 38 is_stmt 0
	addb	$-87, %dl
	jmp	LBB13_14
Ltmp1503:
	.p2align	4, 0x90
LBB13_12:
	.loc	18 323 22 is_stmt 1
	leal	-65(%rdx), %ecx
	cmpb	$26, %cl
	jae	LBB13_8
Ltmp1504:
	.loc	18 323 38 is_stmt 0
	addb	$-29, %dl
Ltmp1505:
LBB13_14:
	.loc	18 0 0
	movl	%edx, %ecx
Ltmp1506:
LBB13_15:
	.loc	18 326 9 is_stmt 1
	incq	%rbx
	movq	%rbx, 16(%r15)
Ltmp1507:
	.loc	19 3688 26
	mulq	%r14
Ltmp1508:
	.loc	18 338 17
	jo	LBB13_8
Ltmp1509:
	.loc	18 337 21
	movzbl	%cl, %ecx
Ltmp1510:
	.loc	19 3632 30
	addq	%rcx, %rax
Ltmp1511:
	.loc	18 339 17
	jae	LBB13_7
Ltmp1512:
LBB13_8:
	.loc	18 0 17 is_stmt 0
	jmp	LBB13_19
Ltmp1513:
LBB13_17:
	.loc	18 285 13 is_stmt 1
	incq	%rbx
	movq	%rbx, 16(%r15)
Ltmp1514:
	.loc	19 3632 30
	incq	%rax
Ltmp1515:
	.loc	18 369 17
	jne	LBB13_18
Ltmp1516:
LBB13_1:
	.loc	18 0 17 is_stmt 0
	xorl	%r8d, %r8d
	jmp	LBB13_19
Ltmp1517:
LBB13_18:
	xorl	%r8d, %r8d
Ltmp1518:
	.loc	18 370 12 is_stmt 1
	cmpq	%r9, %rax
	.loc	18 370 9 is_stmt 0
	cmovbq	%r10, %r8
Ltmp1519:
LBB13_19:
	.loc	18 608 18 is_stmt 1
	movq	24(%rsi), %rcx
	.loc	18 609 35
	movl	32(%rsi), %edx
	.loc	18 606 9
	movq	%r8, (%rdi)
	movq	%r11, 8(%rdi)
	movq	%rax, 16(%rdi)
	movq	%rcx, 24(%rdi)
	movl	%edx, 32(%rdi)
	.loc	18 611 6
	addq	$8, %rsp
	popq	%rbx
	popq	%r14
	popq	%r15
	popq	%rbp
	retq
Ltmp1520:
LBB13_21:
	.loc	18 368 23
	leaq	_str.0(%rip), %rdi
	leaq	l___unnamed_46(%rip), %rdx
	movl	$33, %esi
Ltmp1521:
	callq	__ZN4core9panicking5panic17h736ee47a631475c0E
Ltmp1522:
Lfunc_end13:
	.cfi_endproc

	.p2align	4, 0x90
__ZN14rustc_demangle2v07Printer25print_lifetime_from_index17h45d042b290863952E:
Lfunc_begin14:
	.loc	18 616 0
	.cfi_startproc
	pushq	%rbp
	.cfi_def_cfa_offset 16
	.cfi_offset %rbp, -16
	movq	%rsp, %rbp
	.cfi_def_cfa_register %rbp
	pushq	%r15
	pushq	%r14
	pushq	%rbx
	subq	$24, %rsp
	.cfi_offset %rbx, -40
	.cfi_offset %r14, -32
	.cfi_offset %r15, -24
	movq	%rsi, %rbx
Ltmp1523:
	movq	%rdi, %r15
Ltmp1524:
	.loc	18 617 14 prologue_end
	movq	24(%rdi), %rdi
	leaq	l___unnamed_47(%rip), %rsi
	movl	$1, %edx
	callq	__ZN4core3fmt9Formatter9write_str17h957ea9717e49073dE
	movb	$1, %r14b
	.loc	18 617 9 is_stmt 0
	testb	%al, %al
	je	LBB14_1
Ltmp1525:
LBB14_10:
	.loc	18 635 6 is_stmt 1
	movl	%r14d, %eax
	addq	$24, %rsp
	popq	%rbx
Ltmp1526:
	popq	%r14
	popq	%r15
Ltmp1527:
	popq	%rbp
	retq
LBB14_1:
Ltmp1528:
	.loc	18 618 12
	testq	%rbx, %rbx
	.loc	18 618 9 is_stmt 0
	je	LBB14_4
Ltmp1529:
	.loc	18 621 16 is_stmt 1
	movl	32(%r15), %eax
Ltmp1530:
	.loc	19 3660 30
	subq	%rbx, %rax
Ltmp1531:
	.loc	18 622 13
	jae	LBB14_6
Ltmp1532:
	.loc	18 633 21
	movq	$0, (%r15)
	movq	24(%r15), %rdi
	leaq	l___unnamed_48(%rip), %rsi
	jmp	LBB14_5
Ltmp1533:
LBB14_4:
	.loc	18 619 20
	movq	24(%r15), %rdi
	leaq	l___unnamed_49(%rip), %rsi
Ltmp1534:
LBB14_5:
	.loc	18 0 0 is_stmt 0
	movl	$1, %edx
	addq	$24, %rsp
	popq	%rbx
Ltmp1535:
	popq	%r14
	popq	%r15
Ltmp1536:
	popq	%rbp
	jmp	__ZN4core3fmt9Formatter9write_str17h957ea9717e49073dE
LBB14_6:
Ltmp1537:
	.loc	18 622 18 is_stmt 1
	movq	%rax, -40(%rbp)
Ltmp1538:
	.loc	18 624 20
	cmpq	$26, %rax
	.loc	18 624 17 is_stmt 0
	jae	LBB14_7
Ltmp1539:
	.loc	18 625 29 is_stmt 1
	addl	$97, %eax
Ltmp1540:
	movzbl	%al, %eax
Ltmp1541:
	movl	%eax, -28(%rbp)
Ltmp1542:
	.loc	18 626 27
	movq	24(%r15), %rsi
Ltmp1543:
	.loc	18 0 27 is_stmt 0
	leaq	-28(%rbp), %rdi
	.loc	18 626 21
	callq	__ZN43_$LT$char$u20$as$u20$core..fmt..Display$GT$3fmt17h6751376c1412eca9E
	jmp	LBB14_9
Ltmp1544:
LBB14_7:
	.loc	18 629 26 is_stmt 1
	movq	24(%r15), %rdi
	leaq	l___unnamed_49(%rip), %rsi
	movl	$1, %edx
	callq	__ZN4core3fmt9Formatter9write_str17h957ea9717e49073dE
Ltmp1545:
	.loc	18 629 21 is_stmt 0
	testb	%al, %al
	jne	LBB14_10
Ltmp1546:
	.loc	18 630 31 is_stmt 1
	movq	24(%r15), %rsi
Ltmp1547:
	.loc	18 0 31 is_stmt 0
	leaq	-40(%rbp), %rdi
	.loc	18 630 21
	callq	__ZN4core3fmt3num3imp52_$LT$impl$u20$core..fmt..Display$u20$for$u20$u64$GT$3fmt17hb00db9d5e1e54df6E
Ltmp1548:
LBB14_9:
	.loc	18 0 0
	movl	%eax, %r14d
	jmp	LBB14_10
Ltmp1549:
Lfunc_end14:
	.cfi_endproc

	.p2align	4, 0x90
__ZN14rustc_demangle2v07Printer10print_path17hec5ad73476f2d587E:
Lfunc_begin15:
	.loc	18 682 0 is_stmt 1
	.cfi_startproc
	pushq	%rbp
	.cfi_def_cfa_offset 16
	.cfi_offset %rbp, -16
	movq	%rsp, %rbp
	.cfi_def_cfa_register %rbp
	pushq	%r15
	pushq	%r14
	pushq	%r12
	pushq	%rbx
	subq	$80, %rsp
	.cfi_offset %rbx, -48
	.cfi_offset %r12, -40
	.cfi_offset %r14, -32
	.cfi_offset %r15, -24
	movq	%rdi, %r15
Ltmp1550:
	.loc	13 484 13 prologue_end
	movq	(%rdi), %rax
	testq	%rax, %rax
Ltmp1551:
	.loc	13 611 13
	cmovneq	%rdi, %rax
Ltmp1552:
	.loc	13 729 13
	je	LBB15_75
Ltmp1553:
	.loc	18 280 33
	movq	16(%rax), %rcx
Ltmp1554:
	.loc	5 2851 12
	cmpq	%rcx, 8(%rax)
Ltmp1555:
	.loc	11 458 13
	jbe	LBB15_75
Ltmp1556:
	.loc	18 280 9
	movq	(%rax), %rdx
Ltmp1557:
	.loc	11 458 29
	movb	(%rdx,%rcx), %r12b
Ltmp1558:
	.loc	18 294 9
	incq	%rcx
Ltmp1559:
	movq	%rcx, 16(%rax)
Ltmp1560:
	.loc	18 685 13
	leal	-66(%r12), %eax
Ltmp1561:
	cmpb	$23, %al
	ja	LBB15_75
Ltmp1562:
	.loc	18 0 13 is_stmt 0
	movl	%esi, %ebx
Ltmp1563:
	movzbl	%al, %eax
	leaq	LJTI15_0(%rip), %rcx
	movslq	(%rcx,%rax,4), %rax
	addq	%rcx, %rax
	jmpq	*%rax
Ltmp1564:
LBB15_4:
	.loc	13 484 13 is_stmt 1
	movq	(%r15), %rcx
	testq	%rcx, %rcx
Ltmp1565:
	.loc	13 611 13
	cmovneq	%r15, %rcx
Ltmp1566:
	.loc	13 729 13
	je	LBB15_75
Ltmp1567:
	.loc	18 280 9
	movq	8(%rcx), %rsi
Ltmp1568:
	.loc	18 280 33 is_stmt 0
	movq	16(%rcx), %rax
Ltmp1569:
	.loc	5 2851 12 is_stmt 1
	cmpq	%rax, %rsi
Ltmp1570:
	.loc	11 458 13
	jbe	LBB15_73
Ltmp1571:
	.loc	18 280 9
	movq	(%rcx), %r9
Ltmp1572:
	.loc	7 1053 52
	cmpb	$115, (%r9,%rax)
Ltmp1573:
	.loc	18 284 9
	jne	LBB15_73
Ltmp1574:
	.loc	18 285 13
	leaq	1(%rax), %rbx
Ltmp1575:
	movq	%rbx, 16(%rcx)
Ltmp1576:
	.loc	5 2851 12
	cmpq	%rbx, %rsi
Ltmp1577:
	.loc	11 458 13
	jbe	LBB15_46
Ltmp1578:
	.loc	7 1053 52
	cmpb	$95, (%r9,%rbx)
Ltmp1579:
	.loc	18 284 9
	jne	LBB15_46
Ltmp1580:
	.loc	18 285 13
	addq	$2, %rax
	movq	%rax, 16(%rcx)
Ltmp1581:
	.loc	13 484 13
	cmpq	$0, (%r15)
Ltmp1582:
	.loc	13 729 13
	jne	LBB15_74
	jmp	LBB15_75
Ltmp1583:
LBB15_10:
	.loc	13 484 13
	movq	(%r15), %rcx
	testq	%rcx, %rcx
Ltmp1584:
	.loc	13 611 13
	cmovneq	%r15, %rcx
Ltmp1585:
	.loc	13 729 13
	je	LBB15_115
Ltmp1586:
	.loc	18 280 9
	movq	8(%rcx), %rsi
Ltmp1587:
	.loc	18 280 33 is_stmt 0
	movq	16(%rcx), %rax
Ltmp1588:
	.loc	5 2851 12 is_stmt 1
	cmpq	%rax, %rsi
Ltmp1589:
	.loc	11 458 13
	jbe	LBB15_41
Ltmp1590:
	.loc	18 280 9
	movq	(%rcx), %r9
Ltmp1591:
	.loc	7 1053 52
	cmpb	$115, (%r9,%rax)
Ltmp1592:
	.loc	18 284 9
	jne	LBB15_41
Ltmp1593:
	.loc	18 285 13
	leaq	1(%rax), %rbx
Ltmp1594:
	movq	%rbx, 16(%rcx)
Ltmp1595:
	.loc	5 2851 12
	cmpq	%rbx, %rsi
Ltmp1596:
	.loc	11 458 13
	jbe	LBB15_57
Ltmp1597:
	.loc	7 1053 52
	cmpb	$95, (%r9,%rbx)
Ltmp1598:
	.loc	18 284 9
	jne	LBB15_57
Ltmp1599:
	.loc	18 285 13
	addq	$2, %rax
	movq	%rax, 16(%rcx)
	xorl	%eax, %eax
Ltmp1600:
	.loc	19 3632 30
	incq	%rax
Ltmp1601:
	.loc	18 686 27
	jne	LBB15_92
	jmp	LBB15_115
Ltmp1602:
LBB15_16:
	.loc	18 0 27 is_stmt 0
	leaq	-112(%rbp), %r14
	.loc	18 756 22 is_stmt 1
	movq	%r14, %rdi
	movq	%r15, %rsi
	callq	__ZN14rustc_demangle2v07Printer15backref_printer17h1a537c49d7e4e7bdE
	movzbl	%bl, %esi
	movq	%r14, %rdi
	callq	__ZN14rustc_demangle2v07Printer10print_path17hec5ad73476f2d587E
	jmp	LBB15_116
Ltmp1603:
LBB15_17:
	.loc	13 484 13
	movq	(%r15), %rax
	testq	%rax, %rax
Ltmp1604:
	.loc	13 611 13
	cmovneq	%r15, %rax
Ltmp1605:
	.loc	13 729 13
	je	LBB15_75
Ltmp1606:
	.loc	18 280 33
	movq	16(%rax), %rcx
Ltmp1607:
	.loc	5 2851 12
	cmpq	%rcx, 8(%rax)
Ltmp1608:
	.loc	11 458 13
	jbe	LBB15_75
Ltmp1609:
	.loc	18 280 9
	movq	(%rax), %rdx
Ltmp1610:
	.loc	11 458 29
	movzbl	(%rdx,%rcx), %r12d
Ltmp1611:
	.loc	18 294 9
	incq	%rcx
Ltmp1612:
	movq	%rcx, 16(%rax)
Ltmp1613:
	.loc	18 358 18
	leal	-65(%r12), %eax
Ltmp1614:
	cmpb	$26, %al
	jb	LBB15_21
Ltmp1615:
	.loc	18 361 13
	addb	$-97, %r12b
	cmpb	$26, %r12b
Ltmp1616:
	.loc	13 0 0 is_stmt 0
	movl	$1114112, %r12d
	jae	LBB15_75
Ltmp1617:
LBB15_21:
	.loc	18 699 22 is_stmt 1
	movzbl	%bl, %esi
	movq	%r15, %rdi
	callq	__ZN14rustc_demangle2v07Printer10print_path17hec5ad73476f2d587E
	movb	$1, %r14b
	.loc	18 699 17 is_stmt 0
	testb	%al, %al
	jne	LBB15_117
Ltmp1618:
	.loc	13 484 13 is_stmt 1
	movq	(%r15), %rcx
	testq	%rcx, %rcx
Ltmp1619:
	.loc	13 611 13
	cmovneq	%r15, %rcx
Ltmp1620:
	.loc	13 729 13
	je	LBB15_115
Ltmp1621:
	.loc	18 280 9
	movq	8(%rcx), %rsi
Ltmp1622:
	.loc	18 280 33 is_stmt 0
	movq	16(%rcx), %rax
Ltmp1623:
	.loc	5 2851 12 is_stmt 1
	cmpq	%rax, %rsi
Ltmp1624:
	.loc	11 458 13
	jbe	LBB15_82
Ltmp1625:
	.loc	18 280 9
	movq	(%rcx), %r9
Ltmp1626:
	.loc	7 1053 52
	cmpb	$115, (%r9,%rax)
Ltmp1627:
	.loc	18 284 9
	jne	LBB15_82
Ltmp1628:
	.loc	18 285 13
	leaq	1(%rax), %rbx
Ltmp1629:
	movq	%rbx, 16(%rcx)
Ltmp1630:
	.loc	5 2851 12
	cmpq	%rbx, %rsi
Ltmp1631:
	.loc	11 458 13
	jbe	LBB15_100
Ltmp1632:
	.loc	7 1053 52
	cmpb	$95, (%r9,%rbx)
Ltmp1633:
	.loc	18 284 9
	jne	LBB15_100
Ltmp1634:
	.loc	18 285 13
	addq	$2, %rax
	movq	%rax, 16(%rcx)
	xorl	%eax, %eax
Ltmp1635:
	.loc	19 3632 30
	incq	%rax
Ltmp1636:
	.loc	18 701 27
	jne	LBB15_113
	jmp	LBB15_115
Ltmp1637:
LBB15_28:
	.loc	18 747 22
	movzbl	%bl, %esi
	movq	%r15, %rdi
	callq	__ZN14rustc_demangle2v07Printer10print_path17hec5ad73476f2d587E
	movb	$1, %r14b
	.loc	18 747 17 is_stmt 0
	testb	%al, %al
	jne	LBB15_117
Ltmp1638:
	.loc	18 748 17 is_stmt 1
	testb	%bl, %bl
	je	LBB15_31
Ltmp1639:
	.loc	18 749 26
	movq	24(%r15), %rdi
	leaq	l___unnamed_8(%rip), %rsi
	movl	$2, %edx
	callq	__ZN4core3fmt9Formatter9write_str17h957ea9717e49073dE
	.loc	18 749 21 is_stmt 0
	testb	%al, %al
	jne	LBB15_117
Ltmp1640:
LBB15_31:
	.loc	18 751 22 is_stmt 1
	movq	24(%r15), %rdi
	leaq	l___unnamed_16(%rip), %rsi
	movl	$1, %edx
	callq	__ZN4core3fmt9Formatter9write_str17h957ea9717e49073dE
	.loc	18 751 17 is_stmt 0
	testb	%al, %al
	jne	LBB15_117
Ltmp1641:
	.loc	13 286 25 is_stmt 1
	cmpq	$0, (%r15)
Ltmp1642:
	.loc	18 672 15
	je	LBB15_95
Ltmp1643:
	.loc	18 0 15 is_stmt 0
	xorl	%ebx, %ebx
Ltmp1644:
	leaq	l___unnamed_50(%rip), %r12
Ltmp1645:
LBB15_34:
	.loc	18 280 33 is_stmt 1
	movq	16(%r15), %rax
Ltmp1646:
	.loc	5 2851 12
	cmpq	%rax, 8(%r15)
Ltmp1647:
	.loc	11 458 13
	jbe	LBB15_36
Ltmp1648:
	.loc	18 280 9
	movq	(%r15), %rcx
Ltmp1649:
	.loc	7 1053 52
	cmpb	$69, (%rcx,%rax)
Ltmp1650:
	.loc	18 284 9
	je	LBB15_94
Ltmp1651:
LBB15_36:
	.loc	18 673 16
	testq	%rbx, %rbx
	.loc	18 673 13 is_stmt 0
	je	LBB15_38
Ltmp1652:
	.loc	18 674 22 is_stmt 1
	movq	24(%r15), %rdi
	movl	$2, %edx
	movq	%r12, %rsi
	callq	__ZN4core3fmt9Formatter9write_str17h957ea9717e49073dE
	.loc	18 674 17 is_stmt 0
	testb	%al, %al
	jne	LBB15_117
Ltmp1653:
LBB15_38:
	.loc	17 72 5 is_stmt 1
	movq	%r15, %rdi
	callq	__ZN14rustc_demangle2v07Printer17print_generic_arg17h38fb33dd169bbfaeE
Ltmp1654:
	.loc	18 676 13
	testb	%al, %al
	jne	LBB15_117
Ltmp1655:
	.loc	18 677 13
	incq	%rbx
	je	LBB15_129
Ltmp1656:
	.loc	13 286 25
	cmpq	$0, (%r15)
	jne	LBB15_34
	jmp	LBB15_95
Ltmp1657:
LBB15_41:
	.loc	18 686 27
	movq	$0, -40(%rbp)
Ltmp1658:
LBB15_42:
	.loc	18 0 27 is_stmt 0
	leaq	-112(%rbp), %rbx
Ltmp1659:
	leaq	-112(%rbp), %rdi
Ltmp1660:
	.loc	18 586 50 is_stmt 1
	movq	%r15, %rsi
	callq	__ZN14rustc_demangle2v06Parser5ident17he69b78eb80a16623E
	cmpq	$0, -112(%rbp)
Ltmp1661:
	.loc	18 687 28
	je	LBB15_115
Ltmp1662:
	movq	24(%rbx), %rax
	movq	%rax, -48(%rbp)
	movq	16(%rbx), %rax
	movq	%rax, -56(%rbp)
	movq	(%rbx), %rax
	movq	8(%rbx), %rcx
	movq	%rcx, -64(%rbp)
	movq	%rax, -72(%rbp)
Ltmp1663:
	.loc	18 689 31
	movq	24(%r15), %rsi
Ltmp1664:
	.loc	18 0 31 is_stmt 0
	leaq	-72(%rbp), %rdi
	.loc	18 689 22
	callq	__ZN64_$LT$rustc_demangle..v0..Ident$u20$as$u20$core..fmt..Display$GT$3fmt17h5a86610f647ba7f1E
	movb	$1, %r14b
	.loc	18 689 17
	testb	%al, %al
	jne	LBB15_117
Ltmp1665:
	.loc	18 690 21 is_stmt 1
	movq	24(%r15), %rdi
	callq	__ZN4core3fmt9Formatter9alternate17hd5ca56d2d01a1343E
	.loc	18 690 17 is_stmt 0
	testb	%al, %al
	je	LBB15_68
Ltmp1666:
LBB15_45:
	.loc	18 0 17
	xorl	%r14d, %r14d
	jmp	LBB15_117
Ltmp1667:
LBB15_46:
	xorl	%eax, %eax
	movl	$62, %r8d
Ltmp1668:
LBB15_47:
	.loc	5 2851 12 is_stmt 1
	cmpq	%rbx, %rsi
Ltmp1669:
	.loc	11 458 13
	jbe	LBB15_75
Ltmp1670:
	.loc	11 458 29 is_stmt 0
	movzbl	(%r9,%rbx), %edx
Ltmp1671:
	.loc	7 1053 52 is_stmt 1
	cmpb	$95, %dl
Ltmp1672:
	.loc	18 284 9
	je	LBB15_71
Ltmp1673:
	.loc	18 321 22
	leal	-48(%rdx), %edi
	cmpb	$10, %dil
	jb	LBB15_55
Ltmp1674:
	.loc	18 322 22
	leal	-97(%rdx), %edi
	cmpb	$26, %dil
	jae	LBB15_52
Ltmp1675:
	.loc	18 322 38 is_stmt 0
	addb	$-87, %dl
	jmp	LBB15_54
Ltmp1676:
LBB15_52:
	.loc	18 323 22 is_stmt 1
	leal	-65(%rdx), %edi
	cmpb	$26, %dil
	jae	LBB15_75
Ltmp1677:
	.loc	18 323 38 is_stmt 0
	addb	$-29, %dl
Ltmp1678:
LBB15_54:
	.loc	18 0 0
	movl	%edx, %edi
Ltmp1679:
LBB15_55:
	.loc	18 326 9 is_stmt 1
	incq	%rbx
	movq	%rbx, 16(%rcx)
Ltmp1680:
	.loc	19 3688 26
	mulq	%r8
Ltmp1681:
	.loc	18 338 17
	jo	LBB15_75
Ltmp1682:
	.loc	18 337 21
	movzbl	%dil, %edx
Ltmp1683:
	.loc	19 3632 30
	addq	%rdx, %rax
	jae	LBB15_47
	jmp	LBB15_75
Ltmp1684:
LBB15_57:
	.loc	19 0 30 is_stmt 0
	xorl	%eax, %eax
	movl	$62, %r8d
Ltmp1685:
LBB15_58:
	.loc	5 2851 12 is_stmt 1
	cmpq	%rbx, %rsi
Ltmp1686:
	.loc	11 458 13
	jbe	LBB15_115
Ltmp1687:
	.loc	11 458 29 is_stmt 0
	movzbl	(%r9,%rbx), %edx
Ltmp1688:
	.loc	7 1053 52 is_stmt 1
	cmpb	$95, %dl
Ltmp1689:
	.loc	18 284 9
	je	LBB15_90
Ltmp1690:
	.loc	18 321 22
	leal	-48(%rdx), %edi
	cmpb	$10, %dil
	jb	LBB15_66
Ltmp1691:
	.loc	18 322 22
	leal	-97(%rdx), %edi
	cmpb	$26, %dil
	jae	LBB15_63
Ltmp1692:
	.loc	18 322 38 is_stmt 0
	addb	$-87, %dl
	jmp	LBB15_65
Ltmp1693:
LBB15_63:
	.loc	18 323 22 is_stmt 1
	leal	-65(%rdx), %edi
	cmpb	$26, %dil
	jae	LBB15_115
Ltmp1694:
	.loc	18 323 38 is_stmt 0
	addb	$-29, %dl
Ltmp1695:
LBB15_65:
	.loc	18 0 0
	movl	%edx, %edi
Ltmp1696:
LBB15_66:
	.loc	18 326 9 is_stmt 1
	incq	%rbx
	movq	%rbx, 16(%rcx)
Ltmp1697:
	.loc	19 3688 26
	mulq	%r8
Ltmp1698:
	.loc	18 338 17
	jo	LBB15_115
Ltmp1699:
	.loc	18 337 21
	movzbl	%dil, %edx
Ltmp1700:
	.loc	19 3632 30
	addq	%rdx, %rax
Ltmp1701:
	.loc	18 339 17
	jae	LBB15_58
	jmp	LBB15_115
Ltmp1702:
LBB15_68:
	.loc	18 691 26
	movq	24(%r15), %rdi
	leaq	l___unnamed_51(%rip), %rsi
	movl	$1, %edx
	callq	__ZN4core3fmt9Formatter9write_str17h957ea9717e49073dE
	.loc	18 691 21 is_stmt 0
	testb	%al, %al
	jne	LBB15_128
Ltmp1703:
	.loc	18 692 51 is_stmt 1
	movq	24(%r15), %rsi
Ltmp1704:
	.loc	18 0 51 is_stmt 0
	leaq	-40(%rbp), %rdi
	.loc	18 692 26
	callq	__ZN4core3fmt3num53_$LT$impl$u20$core..fmt..LowerHex$u20$for$u20$u64$GT$3fmt17h45355469eb7ddf8bE
	.loc	18 692 21
	testb	%al, %al
	jne	LBB15_128
Ltmp1705:
	.loc	18 693 26 is_stmt 1
	movq	24(%r15), %rdi
	leaq	l___unnamed_52(%rip), %rsi
	movl	$1, %edx
	callq	__ZN4core3fmt9Formatter9write_str17h957ea9717e49073dE
	.loc	18 693 21 is_stmt 0
	testb	%al, %al
	je	LBB15_45
	jmp	LBB15_128
Ltmp1706:
LBB15_71:
	.loc	18 285 13 is_stmt 1
	incq	%rbx
	movq	%rbx, 16(%rcx)
Ltmp1707:
	.loc	19 3632 30
	incq	%rax
Ltmp1708:
	.loc	18 348 9
	je	LBB15_75
Ltmp1709:
	cmpq	$-1, %rax
	je	LBB15_75
Ltmp1710:
LBB15_73:
	.loc	13 484 13
	cmpq	$0, (%r15)
Ltmp1711:
	.loc	13 729 13
	je	LBB15_75
Ltmp1712:
LBB15_74:
	.loc	18 586 50
	movq	%r15, %rdi
	callq	__ZN14rustc_demangle2v06Parser9skip_path17h60e1134618bf98cfE
Ltmp1713:
	.loc	18 735 21
	testb	%al, %al
	je	LBB15_77
Ltmp1714:
LBB15_75:
	.loc	18 0 0 is_stmt 0
	movq	$0, (%r15)
	movq	24(%r15), %rdi
	leaq	l___unnamed_48(%rip), %rsi
Ltmp1715:
LBB15_76:
	movl	$1, %edx
	addq	$80, %rsp
	popq	%rbx
	popq	%r12
	popq	%r14
	popq	%r15
Ltmp1716:
	popq	%rbp
	jmp	__ZN4core3fmt9Formatter9write_str17h957ea9717e49073dE
LBB15_77:
Ltmp1717:
	.loc	18 738 22 is_stmt 1
	movq	24(%r15), %rdi
	leaq	l___unnamed_16(%rip), %rsi
	movl	$1, %edx
	callq	__ZN4core3fmt9Formatter9write_str17h957ea9717e49073dE
	movb	$1, %r14b
	.loc	18 738 17 is_stmt 0
	testb	%al, %al
	jne	LBB15_117
Ltmp1718:
	.loc	18 739 22 is_stmt 1
	movq	%r15, %rdi
	callq	__ZN14rustc_demangle2v07Printer10print_type17h90a19d8e9fba1183E
	.loc	18 739 17 is_stmt 0
	testb	%al, %al
	jne	LBB15_117
Ltmp1719:
	.loc	18 740 20 is_stmt 1
	cmpb	$77, %r12b
	.loc	18 740 17 is_stmt 0
	je	LBB15_95
Ltmp1720:
	.loc	18 741 26 is_stmt 1
	movq	24(%r15), %rdi
	leaq	L___unnamed_53(%rip), %rsi
	movl	$4, %edx
	callq	__ZN4core3fmt9Formatter9write_str17h957ea9717e49073dE
	.loc	18 741 21 is_stmt 0
	testb	%al, %al
	jne	LBB15_117
Ltmp1721:
	.loc	18 742 26 is_stmt 1
	movq	%r15, %rdi
	xorl	%esi, %esi
	callq	__ZN14rustc_demangle2v07Printer10print_path17hec5ad73476f2d587E
	.loc	18 742 21 is_stmt 0
	testb	%al, %al
	je	LBB15_95
	jmp	LBB15_117
Ltmp1722:
LBB15_82:
	.loc	18 701 27 is_stmt 1
	movq	$0, -40(%rbp)
Ltmp1723:
LBB15_83:
	.loc	18 0 27 is_stmt 0
	leaq	-112(%rbp), %rbx
Ltmp1724:
	leaq	-112(%rbp), %rdi
Ltmp1725:
	.loc	18 586 50 is_stmt 1
	movq	%r15, %rsi
	callq	__ZN14rustc_demangle2v06Parser5ident17he69b78eb80a16623E
	cmpq	$0, -112(%rbp)
Ltmp1726:
	.loc	18 702 28
	je	LBB15_115
Ltmp1727:
	movq	24(%rbx), %rax
	movq	%rax, -48(%rbp)
	movq	16(%rbx), %rax
	movq	%rax, -56(%rbp)
	movq	(%rbx), %rax
	movq	8(%rbx), %rcx
	movq	%rcx, -64(%rbp)
	movq	%rax, -72(%rbp)
Ltmp1728:
	.loc	18 706 21
	cmpl	$1114112, %r12d
	jne	LBB15_96
Ltmp1729:
	.loc	3 2270 9
	cmpq	$0, -64(%rbp)
Ltmp1730:
	.loc	18 724 28
	jne	LBB15_87
Ltmp1731:
	.loc	3 2270 9
	cmpq	$0, -48(%rbp)
Ltmp1732:
	.loc	18 724 25
	je	LBB15_45
Ltmp1733:
LBB15_87:
	.loc	18 725 34
	movq	24(%r15), %rdi
	leaq	l___unnamed_8(%rip), %rsi
	movl	$2, %edx
	callq	__ZN4core3fmt9Formatter9write_str17h957ea9717e49073dE
	movb	$1, %r14b
	.loc	18 725 29 is_stmt 0
	testb	%al, %al
	jne	LBB15_117
Ltmp1734:
	.loc	18 726 43 is_stmt 1
	movq	24(%r15), %rsi
Ltmp1735:
	.loc	18 0 43 is_stmt 0
	leaq	-72(%rbp), %rdi
	.loc	18 726 34
	callq	__ZN64_$LT$rustc_demangle..v0..Ident$u20$as$u20$core..fmt..Display$GT$3fmt17h5a86610f647ba7f1E
	.loc	18 726 29
	testb	%al, %al
	je	LBB15_45
	jmp	LBB15_117
Ltmp1736:
LBB15_90:
	.loc	18 285 13 is_stmt 1
	incq	%rbx
	movq	%rbx, 16(%rcx)
Ltmp1737:
	.loc	19 3632 30
	incq	%rax
Ltmp1738:
	.loc	18 348 9
	je	LBB15_115
Ltmp1739:
	.loc	19 3632 30
	incq	%rax
Ltmp1740:
	.loc	18 686 27
	je	LBB15_115
Ltmp1741:
LBB15_92:
	.loc	13 484 13
	cmpq	$0, (%r15)
Ltmp1742:
	.loc	18 686 27
	movq	%rax, -40(%rbp)
Ltmp1743:
	.loc	13 729 13
	jne	LBB15_42
Ltmp1744:
LBB15_114:
	.loc	18 0 0 is_stmt 0
	movq	$0, -112(%rbp)
	jmp	LBB15_115
Ltmp1745:
LBB15_94:
	.loc	18 285 13 is_stmt 1
	incq	%rax
	movq	%rax, 16(%r15)
Ltmp1746:
LBB15_95:
	.loc	18 0 0 is_stmt 0
	movq	24(%r15), %rdi
	leaq	l___unnamed_18(%rip), %rsi
	jmp	LBB15_76
Ltmp1747:
LBB15_96:
	.loc	18 706 26 is_stmt 1
	movl	%r12d, -112(%rbp)
Ltmp1748:
	.loc	18 707 30
	movq	24(%r15), %rdi
	leaq	l___unnamed_54(%rip), %rsi
	movl	$3, %edx
	callq	__ZN4core3fmt9Formatter9write_str17h957ea9717e49073dE
	.loc	18 707 25 is_stmt 0
	testb	%al, %al
	jne	LBB15_128
Ltmp1749:
	.loc	18 709 29 is_stmt 1
	cmpl	$67, %r12d
	je	LBB15_118
Ltmp1750:
	cmpl	$83, %r12d
	jne	LBB15_120
Ltmp1751:
	.loc	18 710 41
	movq	24(%r15), %rdi
	leaq	L___unnamed_55(%rip), %rsi
	movl	$4, %edx
	.loc	18 0 0 is_stmt 0
	callq	__ZN4core3fmt9Formatter9write_str17h957ea9717e49073dE
	testb	%al, %al
	je	LBB15_121
	jmp	LBB15_128
Ltmp1752:
LBB15_100:
	xorl	%eax, %eax
	movl	$62, %r8d
Ltmp1753:
LBB15_101:
	.loc	5 2851 12 is_stmt 1
	cmpq	%rbx, %rsi
Ltmp1754:
	.loc	11 458 13
	jbe	LBB15_115
Ltmp1755:
	.loc	11 458 29 is_stmt 0
	movzbl	(%r9,%rbx), %edx
Ltmp1756:
	.loc	7 1053 52 is_stmt 1
	cmpb	$95, %dl
Ltmp1757:
	.loc	18 284 9
	je	LBB15_111
Ltmp1758:
	.loc	18 321 22
	leal	-48(%rdx), %edi
	cmpb	$10, %dil
	jb	LBB15_109
Ltmp1759:
	.loc	18 322 22
	leal	-97(%rdx), %edi
	cmpb	$26, %dil
	jae	LBB15_106
Ltmp1760:
	.loc	18 322 38 is_stmt 0
	addb	$-87, %dl
	jmp	LBB15_108
Ltmp1761:
LBB15_106:
	.loc	18 323 22 is_stmt 1
	leal	-65(%rdx), %edi
	cmpb	$26, %dil
	jae	LBB15_115
Ltmp1762:
	.loc	18 323 38 is_stmt 0
	addb	$-29, %dl
Ltmp1763:
LBB15_108:
	.loc	18 0 0
	movl	%edx, %edi
Ltmp1764:
LBB15_109:
	.loc	18 326 9 is_stmt 1
	incq	%rbx
	movq	%rbx, 16(%rcx)
Ltmp1765:
	.loc	19 3688 26
	mulq	%r8
Ltmp1766:
	.loc	18 338 17
	jo	LBB15_115
Ltmp1767:
	.loc	18 337 21
	movzbl	%dil, %edx
Ltmp1768:
	.loc	19 3632 30
	addq	%rdx, %rax
	jae	LBB15_101
	jmp	LBB15_115
Ltmp1769:
LBB15_111:
	.loc	18 285 13
	incq	%rbx
	movq	%rbx, 16(%rcx)
Ltmp1770:
	.loc	19 3632 30
	incq	%rax
Ltmp1771:
	.loc	18 348 9
	je	LBB15_115
Ltmp1772:
	.loc	19 3632 30
	incq	%rax
Ltmp1773:
	.loc	18 701 27
	jne	LBB15_113
Ltmp1774:
LBB15_115:
	.loc	18 0 0 is_stmt 0
	movq	$0, (%r15)
	movq	24(%r15), %rdi
	leaq	l___unnamed_48(%rip), %rsi
	movl	$1, %edx
	callq	__ZN4core3fmt9Formatter9write_str17h957ea9717e49073dE
Ltmp1775:
LBB15_116:
	movl	%eax, %r14d
Ltmp1776:
LBB15_117:
	.loc	18 761 6 is_stmt 1
	movl	%r14d, %eax
	addq	$80, %rsp
	popq	%rbx
	popq	%r12
	popq	%r14
	popq	%r15
Ltmp1777:
	popq	%rbp
	retq
LBB15_113:
Ltmp1778:
	.loc	13 484 13
	cmpq	$0, (%r15)
Ltmp1779:
	.loc	18 701 27
	movq	%rax, -40(%rbp)
Ltmp1780:
	.loc	13 729 13
	jne	LBB15_83
	jmp	LBB15_114
Ltmp1781:
LBB15_118:
	.loc	18 709 41
	movq	24(%r15), %rdi
	leaq	l___unnamed_56(%rip), %rsi
	movl	$7, %edx
	.loc	18 0 0 is_stmt 0
	callq	__ZN4core3fmt9Formatter9write_str17h957ea9717e49073dE
	testb	%al, %al
	je	LBB15_121
	jmp	LBB15_128
Ltmp1782:
LBB15_120:
	.loc	18 711 46 is_stmt 1
	movq	24(%r15), %rsi
Ltmp1783:
	.loc	18 0 46 is_stmt 0
	leaq	-112(%rbp), %rdi
	.loc	18 711 39
	callq	__ZN43_$LT$char$u20$as$u20$core..fmt..Display$GT$3fmt17h6751376c1412eca9E
	.loc	18 0 0
	testb	%al, %al
	jne	LBB15_128
Ltmp1784:
LBB15_121:
	.loc	3 2270 9 is_stmt 1
	cmpq	$0, -64(%rbp)
Ltmp1785:
	.loc	18 713 28
	jne	LBB15_123
Ltmp1786:
	.loc	3 2270 9
	cmpq	$0, -48(%rbp)
Ltmp1787:
	.loc	18 713 25
	je	LBB15_125
Ltmp1788:
LBB15_123:
	.loc	18 714 34
	movq	24(%r15), %rdi
	leaq	l___unnamed_57(%rip), %rsi
	movl	$1, %edx
	callq	__ZN4core3fmt9Formatter9write_str17h957ea9717e49073dE
	.loc	18 714 29 is_stmt 0
	testb	%al, %al
	jne	LBB15_128
Ltmp1789:
	.loc	18 715 43 is_stmt 1
	movq	24(%r15), %rsi
Ltmp1790:
	.loc	18 0 43 is_stmt 0
	leaq	-72(%rbp), %rdi
	.loc	18 715 34
	callq	__ZN64_$LT$rustc_demangle..v0..Ident$u20$as$u20$core..fmt..Display$GT$3fmt17h5a86610f647ba7f1E
	.loc	18 715 29
	testb	%al, %al
	jne	LBB15_128
Ltmp1791:
LBB15_125:
	.loc	18 717 30 is_stmt 1
	movq	24(%r15), %rdi
	leaq	l___unnamed_58(%rip), %rsi
	movl	$1, %edx
	callq	__ZN4core3fmt9Formatter9write_str17h957ea9717e49073dE
	.loc	18 717 25 is_stmt 0
	testb	%al, %al
	jne	LBB15_128
Ltmp1792:
	.loc	18 718 38 is_stmt 1
	movq	24(%r15), %rsi
Ltmp1793:
	.loc	18 0 38 is_stmt 0
	leaq	-40(%rbp), %rdi
	.loc	18 718 30
	callq	__ZN4core3fmt3num3imp52_$LT$impl$u20$core..fmt..Display$u20$for$u20$u64$GT$3fmt17hb00db9d5e1e54df6E
	.loc	18 718 25
	testb	%al, %al
	jne	LBB15_128
Ltmp1794:
	.loc	18 719 30 is_stmt 1
	movq	24(%r15), %rdi
	leaq	l___unnamed_37(%rip), %rsi
	movl	$1, %edx
	callq	__ZN4core3fmt9Formatter9write_str17h957ea9717e49073dE
	.loc	18 719 25 is_stmt 0
	testb	%al, %al
	je	LBB15_45
Ltmp1795:
LBB15_128:
	.loc	18 0 25
	movb	$1, %r14b
	jmp	LBB15_117
Ltmp1796:
LBB15_129:
	.loc	18 677 13 is_stmt 1
	leaq	_str.1(%rip), %rdi
	leaq	l___unnamed_59(%rip), %rdx
	movl	$28, %esi
	callq	__ZN4core9panicking5panic17h736ee47a631475c0E
Ltmp1797:
Lfunc_end15:
	.cfi_endproc
	.p2align	2, 0x90
	.data_region jt32
.set L15_0_set_16, LBB15_16-LJTI15_0
.set L15_0_set_10, LBB15_10-LJTI15_0
.set L15_0_set_75, LBB15_75-LJTI15_0
.set L15_0_set_28, LBB15_28-LJTI15_0
.set L15_0_set_4, LBB15_4-LJTI15_0
.set L15_0_set_17, LBB15_17-LJTI15_0
.set L15_0_set_77, LBB15_77-LJTI15_0
LJTI15_0:
	.long	L15_0_set_16
	.long	L15_0_set_10
	.long	L15_0_set_75
	.long	L15_0_set_75
	.long	L15_0_set_75
	.long	L15_0_set_75
	.long	L15_0_set_75
	.long	L15_0_set_28
	.long	L15_0_set_75
	.long	L15_0_set_75
	.long	L15_0_set_75
	.long	L15_0_set_4
	.long	L15_0_set_17
	.long	L15_0_set_75
	.long	L15_0_set_75
	.long	L15_0_set_75
	.long	L15_0_set_75
	.long	L15_0_set_75
	.long	L15_0_set_75
	.long	L15_0_set_75
	.long	L15_0_set_75
	.long	L15_0_set_75
	.long	L15_0_set_4
	.long	L15_0_set_77
	.end_data_region

	.p2align	4, 0x90
__ZN14rustc_demangle2v07Printer17print_generic_arg17h38fb33dd169bbfaeE:
Lfunc_begin16:
	.loc	18 763 0
	.cfi_startproc
	pushq	%rbp
	.cfi_def_cfa_offset 16
	.cfi_offset %rbp, -16
	movq	%rsp, %rbp
	.cfi_def_cfa_register %rbp
Ltmp1798:
	.loc	13 484 13 prologue_end
	movq	(%rdi), %rax
Ltmp1799:
	.loc	13 611 13
	movq	%rdi, %rcx
Ltmp1800:
	.loc	13 484 13
	testq	%rax, %rax
Ltmp1801:
	.loc	13 611 13
	cmoveq	%rax, %rcx
Ltmp1802:
	.loc	13 519 13
	je	LBB16_5
Ltmp1803:
	.loc	18 280 33
	movq	16(%rcx), %rdx
Ltmp1804:
	.loc	5 2851 12
	cmpq	%rdx, 8(%rcx)
Ltmp1805:
	.loc	11 458 13
	jbe	LBB16_3
Ltmp1806:
	.loc	18 280 9
	movq	(%rcx), %rsi
Ltmp1807:
	.loc	7 1053 52
	cmpb	$76, (%rsi,%rdx)
Ltmp1808:
	.loc	18 284 9
	jne	LBB16_3
Ltmp1809:
	.loc	18 285 13
	incq	%rdx
	movq	%rdx, 16(%rcx)
Ltmp1810:
	.loc	13 484 13
	movq	(%rdi), %r11
	testq	%r11, %r11
Ltmp1811:
	.loc	13 611 13
	cmovneq	%rdi, %r11
Ltmp1812:
	.loc	13 729 13
	je	LBB16_21
Ltmp1813:
	.loc	18 0 0 is_stmt 0
	movq	(%r11), %r8
Ltmp1814:
	.loc	18 280 9 is_stmt 1
	movq	8(%r11), %r9
Ltmp1815:
	.loc	18 280 33 is_stmt 0
	movq	16(%r11), %rsi
Ltmp1816:
	.loc	5 2851 12 is_stmt 1
	cmpq	%rsi, %r9
Ltmp1817:
	.loc	11 458 13
	jbe	LBB16_8
Ltmp1818:
	.loc	7 1053 52
	cmpb	$95, (%r8,%rsi)
Ltmp1819:
	.loc	18 284 9
	jne	LBB16_8
Ltmp1820:
	.loc	18 285 13
	incq	%rsi
	movq	%rsi, 16(%r11)
	xorl	%eax, %eax
	jmp	LBB16_23
Ltmp1821:
LBB16_3:
	.loc	18 280 33
	movq	16(%rdi), %rcx
Ltmp1822:
	.loc	5 2851 12
	cmpq	%rcx, 8(%rdi)
Ltmp1823:
	.loc	11 458 13
	jbe	LBB16_5
Ltmp1824:
	.loc	7 1053 52
	cmpb	$75, (%rax,%rcx)
Ltmp1825:
	.loc	18 284 9
	jne	LBB16_5
Ltmp1826:
	.loc	18 285 13
	incq	%rcx
	movq	%rcx, 16(%rdi)
Ltmp1827:
	.loc	18 768 13
	popq	%rbp
	jmp	__ZN14rustc_demangle2v07Printer11print_const17he5e3b0d9920321b0E
Ltmp1828:
LBB16_5:
	.loc	18 770 13
	popq	%rbp
	jmp	__ZN14rustc_demangle2v07Printer10print_type17h90a19d8e9fba1183E
Ltmp1829:
LBB16_8:
	.loc	18 0 13 is_stmt 0
	xorl	%eax, %eax
	movl	$62, %r10d
Ltmp1830:
	.p2align	4, 0x90
LBB16_9:
	.loc	5 2851 12 is_stmt 1
	cmpq	%rsi, %r9
Ltmp1831:
	.loc	11 458 13
	jbe	LBB16_21
Ltmp1832:
	.loc	11 458 29 is_stmt 0
	movzbl	(%r8,%rsi), %edx
Ltmp1833:
	.loc	7 1053 52 is_stmt 1
	cmpb	$95, %dl
Ltmp1834:
	.loc	18 284 9
	je	LBB16_22
Ltmp1835:
	.loc	18 321 22
	leal	-48(%rdx), %ecx
	cmpb	$10, %cl
	jb	LBB16_19
Ltmp1836:
	.loc	18 322 22
	leal	-97(%rdx), %ecx
	cmpb	$26, %cl
	jae	LBB16_13
Ltmp1837:
	.loc	18 322 38 is_stmt 0
	addb	$-87, %dl
	jmp	LBB16_18
Ltmp1838:
LBB16_13:
	.loc	18 323 22 is_stmt 1
	leal	-65(%rdx), %ecx
	cmpb	$26, %cl
	jae	LBB16_21
Ltmp1839:
	.loc	18 323 38 is_stmt 0
	addb	$-29, %dl
Ltmp1840:
LBB16_18:
	.loc	18 0 0
	movl	%edx, %ecx
Ltmp1841:
LBB16_19:
	.loc	18 326 9 is_stmt 1
	incq	%rsi
	movq	%rsi, 16(%r11)
Ltmp1842:
	.loc	19 3688 26
	mulq	%r10
Ltmp1843:
	.loc	18 338 17
	jo	LBB16_21
Ltmp1844:
	.loc	18 337 21
	movzbl	%cl, %ecx
Ltmp1845:
	.loc	19 3632 30
	addq	%rcx, %rax
Ltmp1846:
	.loc	18 339 17
	jae	LBB16_9
	jmp	LBB16_21
Ltmp1847:
LBB16_22:
	.loc	18 285 13
	incq	%rsi
	movq	%rsi, 16(%r11)
Ltmp1848:
	.loc	19 3632 30
	incq	%rax
Ltmp1849:
	.loc	18 765 22
	jne	LBB16_23
Ltmp1850:
LBB16_21:
	movq	$0, (%rdi)
	movq	24(%rdi), %rdi
Ltmp1851:
	leaq	l___unnamed_48(%rip), %rsi
	movl	$1, %edx
	popq	%rbp
	jmp	__ZN4core3fmt9Formatter9write_str17h957ea9717e49073dE
LBB16_23:
Ltmp1852:
	.loc	18 766 13
	movq	%rax, %rsi
	popq	%rbp
	jmp	__ZN14rustc_demangle2v07Printer25print_lifetime_from_index17h45d042b290863952E
Ltmp1853:
Lfunc_end16:
	.cfi_endproc

	.p2align	4, 0x90
__ZN14rustc_demangle2v07Printer10print_type17h90a19d8e9fba1183E:
Lfunc_begin17:
	.loc	18 774 0
	.cfi_startproc
	pushq	%rbp
	.cfi_def_cfa_offset 16
	.cfi_offset %rbp, -16
	movq	%rsp, %rbp
	.cfi_def_cfa_register %rbp
	pushq	%r15
	pushq	%r14
	pushq	%r13
	pushq	%r12
	pushq	%rbx
	subq	$40, %rsp
	.cfi_offset %rbx, -56
	.cfi_offset %r12, -48
	.cfi_offset %r13, -40
	.cfi_offset %r14, -32
	.cfi_offset %r15, -24
	movq	%rdi, %rbx
Ltmp1854:
	.loc	13 484 13 prologue_end
	movq	(%rdi), %rax
	testq	%rax, %rax
Ltmp1855:
	.loc	13 611 13
	cmovneq	%rdi, %rax
Ltmp1856:
	.loc	13 729 13
	je	LBB17_183
Ltmp1857:
	.loc	18 280 33
	movq	16(%rax), %rcx
Ltmp1858:
	.loc	5 2851 12
	cmpq	%rcx, 8(%rax)
Ltmp1859:
	.loc	11 458 13
	jbe	LBB17_183
Ltmp1860:
	.loc	18 280 9
	movq	(%rax), %rdx
Ltmp1861:
	.loc	11 458 29
	movb	(%rdx,%rcx), %r15b
Ltmp1862:
	.loc	18 294 9
	incq	%rcx
Ltmp1863:
	movq	%rcx, 16(%rax)
Ltmp1864:
	.loc	18 247 9
	leal	-65(%r15), %eax
Ltmp1865:
	cmpb	$57, %al
	ja	LBB17_35
Ltmp1866:
	.loc	18 0 9 is_stmt 0
	leaq	L___unnamed_60(%rip), %rsi
	movl	$4, %edx
	movzbl	%al, %eax
	leaq	LJTI17_0(%rip), %rcx
	movslq	(%rcx,%rax,4), %rax
	addq	%rcx, %rax
	jmpq	*%rax
Ltmp1867:
LBB17_4:
	.loc	18 809 22 is_stmt 1
	movq	24(%rbx), %rdi
	leaq	l___unnamed_51(%rip), %rsi
	movl	$1, %edx
	callq	__ZN4core3fmt9Formatter9write_str17h957ea9717e49073dE
	movb	$1, %r14b
	.loc	18 809 17 is_stmt 0
	testb	%al, %al
	jne	LBB17_153
Ltmp1868:
	.loc	18 810 22 is_stmt 1
	movq	%rbx, %rdi
	callq	__ZN14rustc_demangle2v07Printer10print_type17h90a19d8e9fba1183E
	.loc	18 810 17 is_stmt 0
	testb	%al, %al
	jne	LBB17_153
Ltmp1869:
	.loc	18 811 20 is_stmt 1
	cmpb	$65, %r15b
	.loc	18 811 17 is_stmt 0
	jne	LBB17_9
Ltmp1870:
	.loc	18 812 26 is_stmt 1
	movq	24(%rbx), %rdi
	leaq	l___unnamed_61(%rip), %rsi
	movl	$2, %edx
	callq	__ZN4core3fmt9Formatter9write_str17h957ea9717e49073dE
	.loc	18 812 21 is_stmt 0
	testb	%al, %al
	jne	LBB17_153
Ltmp1871:
	.loc	18 813 26 is_stmt 1
	movq	%rbx, %rdi
	callq	__ZN14rustc_demangle2v07Printer11print_const17he5e3b0d9920321b0E
	.loc	18 813 21 is_stmt 0
	testb	%al, %al
	jne	LBB17_153
Ltmp1872:
LBB17_9:
	.loc	18 815 22 is_stmt 1
	movq	24(%rbx), %rdi
	leaq	l___unnamed_52(%rip), %rsi
	jmp	LBB17_184
Ltmp1873:
LBB17_10:
	.loc	18 784 22
	movq	24(%rbx), %rdi
	leaq	l___unnamed_14(%rip), %rsi
	movl	$1, %edx
	callq	__ZN4core3fmt9Formatter9write_str17h957ea9717e49073dE
	movb	$1, %r14b
	.loc	18 784 17 is_stmt 0
	testb	%al, %al
	jne	LBB17_153
Ltmp1874:
	.loc	13 484 13 is_stmt 1
	movq	(%rbx), %rax
	testq	%rax, %rax
Ltmp1875:
	.loc	13 611 13
	cmovneq	%rbx, %rax
Ltmp1876:
	.loc	13 519 13
	je	LBB17_18
Ltmp1877:
	.loc	18 280 33
	movq	16(%rax), %rcx
Ltmp1878:
	.loc	5 2851 12
	cmpq	%rcx, 8(%rax)
Ltmp1879:
	.loc	11 458 13
	jbe	LBB17_18
Ltmp1880:
	.loc	18 280 9
	movq	(%rax), %rdx
Ltmp1881:
	.loc	7 1053 52
	cmpb	$76, (%rdx,%rcx)
Ltmp1882:
	.loc	18 284 9
	jne	LBB17_18
Ltmp1883:
	.loc	18 285 13
	incq	%rcx
	movq	%rcx, 16(%rax)
Ltmp1884:
	.loc	13 484 13
	movq	(%rbx), %rcx
	testq	%rcx, %rcx
Ltmp1885:
	.loc	13 611 13
	cmovneq	%rbx, %rcx
Ltmp1886:
	.loc	13 729 13
	je	LBB17_183
Ltmp1887:
	.loc	18 0 0 is_stmt 0
	movq	(%rcx), %r8
Ltmp1888:
	.loc	18 280 9 is_stmt 1
	movq	8(%rcx), %r10
Ltmp1889:
	.loc	18 280 33 is_stmt 0
	movq	16(%rcx), %rsi
Ltmp1890:
	.loc	5 2851 12 is_stmt 1
	cmpq	%rsi, %r10
Ltmp1891:
	.loc	11 458 13
	jbe	LBB17_102
Ltmp1892:
	.loc	7 1053 52
	cmpb	$95, (%r8,%rsi)
Ltmp1893:
	.loc	18 284 9
	jne	LBB17_102
Ltmp1894:
	.loc	18 285 13
	incq	%rsi
	movq	%rsi, 16(%rcx)
Ltmp1895:
LBB17_18:
	.loc	18 792 20
	cmpb	$82, %r15b
	.loc	18 792 17 is_stmt 0
	je	LBB17_74
Ltmp1896:
	.loc	18 793 26 is_stmt 1
	movq	24(%rbx), %rdi
	jmp	LBB17_73
Ltmp1897:
LBB17_20:
	.loc	18 799 22
	movq	24(%rbx), %rdi
	leaq	l___unnamed_12(%rip), %rsi
	movl	$1, %edx
	callq	__ZN4core3fmt9Formatter9write_str17h957ea9717e49073dE
	movb	$1, %r14b
	.loc	18 799 17 is_stmt 0
	testb	%al, %al
	jne	LBB17_153
Ltmp1898:
	.loc	18 0 0
	movq	24(%rbx), %rdi
	.loc	18 800 20 is_stmt 1
	cmpb	$80, %r15b
	.loc	18 800 17 is_stmt 0
	jne	LBB17_73
Ltmp1899:
	.loc	18 803 26 is_stmt 1
	leaq	l___unnamed_62(%rip), %rsi
	movl	$6, %edx
	.loc	18 0 0 is_stmt 0
	callq	__ZN4core3fmt9Formatter9write_str17h957ea9717e49073dE
	testb	%al, %al
	jne	LBB17_153
	jmp	LBB17_74
Ltmp1900:
LBB17_23:
	leaq	l___unnamed_63(%rip), %rsi
	movl	$5, %edx
Ltmp1901:
	.loc	18 778 32 is_stmt 1
	movq	24(%rbx), %rdi
	jmp	LBB17_185
Ltmp1902:
LBB17_24:
	.loc	18 0 32 is_stmt 0
	leaq	L___unnamed_64(%rip), %rsi
Ltmp1903:
	.loc	18 778 32
	movq	24(%rbx), %rdi
	jmp	LBB17_185
Ltmp1904:
LBB17_25:
	.loc	18 0 32
	leaq	l___unnamed_65(%rip), %rsi
	jmp	LBB17_70
Ltmp1905:
LBB17_26:
	leaq	l___unnamed_66(%rip), %rsi
	jmp	LBB17_70
Ltmp1906:
LBB17_27:
	leaq	l___unnamed_49(%rip), %rsi
	movl	$1, %edx
Ltmp1907:
	.loc	18 778 32
	movq	24(%rbx), %rdi
	jmp	LBB17_185
Ltmp1908:
LBB17_28:
	.loc	18 0 32
	leaq	l___unnamed_67(%rip), %rsi
	movl	$2, %edx
Ltmp1909:
	.loc	18 778 32
	movq	24(%rbx), %rdi
	jmp	LBB17_185
Ltmp1910:
LBB17_29:
	.loc	18 0 32
	leaq	l___unnamed_68(%rip), %rsi
	jmp	LBB17_70
Ltmp1911:
LBB17_30:
	leaq	L___unnamed_69(%rip), %rsi
Ltmp1912:
	.loc	18 778 32
	movq	24(%rbx), %rdi
	jmp	LBB17_185
Ltmp1913:
LBB17_31:
	.loc	18 0 32
	leaq	L___unnamed_70(%rip), %rsi
Ltmp1914:
	.loc	18 778 32
	movq	24(%rbx), %rdi
	jmp	LBB17_185
Ltmp1915:
LBB17_32:
	.loc	18 0 32
	leaq	l___unnamed_71(%rip), %rsi
	jmp	LBB17_70
Ltmp1916:
LBB17_33:
	leaq	l___unnamed_72(%rip), %rsi
	jmp	LBB17_70
Ltmp1917:
LBB17_34:
	leaq	-80(%rbp), %r14
	.loc	18 893 22 is_stmt 1
	movq	%r14, %rdi
	movq	%rbx, %rsi
	callq	__ZN14rustc_demangle2v07Printer15backref_printer17h1a537c49d7e4e7bdE
	movq	%r14, %rdi
	callq	__ZN14rustc_demangle2v07Printer10print_type17h90a19d8e9fba1183E
	movl	%eax, %r14d
	jmp	LBB17_153
Ltmp1918:
LBB17_35:
	.loc	13 484 13
	cmpq	$0, (%rbx)
Ltmp1919:
	.loc	13 519 13
	je	LBB17_38
Ltmp1920:
	.loc	18 897 51
	movq	16(%rbx), %rax
	subq	$1, %rax
	jb	LBB17_194
Ltmp1921:
	movq	%rax, 16(%rbx)
Ltmp1922:
LBB17_38:
	.loc	18 898 22
	movq	%rbx, %rdi
	xorl	%esi, %esi
	addq	$40, %rsp
	popq	%rbx
Ltmp1923:
	popq	%r12
	popq	%r13
	popq	%r14
	popq	%r15
Ltmp1924:
	popq	%rbp
	jmp	__ZN14rustc_demangle2v07Printer10print_path17hec5ad73476f2d587E
LBB17_39:
Ltmp1925:
	.loc	18 0 22 is_stmt 0
	leaq	l___unnamed_73(%rip), %rsi
	jmp	LBB17_70
Ltmp1926:
LBB17_40:
	leaq	l___unnamed_74(%rip), %rsi
	jmp	LBB17_70
Ltmp1927:
LBB17_41:
	leaq	l___unnamed_75(%rip), %rsi
	jmp	LBB17_70
Ltmp1928:
LBB17_42:
	leaq	l___unnamed_76(%rip), %rsi
	movl	$1, %edx
Ltmp1929:
	.loc	18 778 32 is_stmt 1
	movq	24(%rbx), %rdi
	jmp	LBB17_185
Ltmp1930:
LBB17_43:
	.loc	18 877 22
	movq	24(%rbx), %rdi
	leaq	L___unnamed_77(%rip), %rsi
	movl	$4, %edx
	callq	__ZN4core3fmt9Formatter9write_str17h957ea9717e49073dE
	movb	$1, %r14b
	.loc	18 877 17 is_stmt 0
	testb	%al, %al
	jne	LBB17_153
Ltmp1931:
	.loc	13 484 13 is_stmt 1
	movq	(%rbx), %rcx
	testq	%rcx, %rcx
Ltmp1932:
	.loc	13 611 13
	cmovneq	%rbx, %rcx
Ltmp1933:
	.loc	13 729 13
	je	LBB17_152
Ltmp1934:
	.loc	18 280 9
	movq	8(%rcx), %r10
Ltmp1935:
	.loc	18 280 33 is_stmt 0
	movq	16(%rcx), %rax
Ltmp1936:
	.loc	5 2851 12 is_stmt 1
	cmpq	%rax, %r10
Ltmp1937:
	.loc	11 458 13
	jbe	LBB17_76
Ltmp1938:
	.loc	18 280 9
	movq	(%rcx), %r8
Ltmp1939:
	.loc	7 1053 52
	cmpb	$71, (%r8,%rax)
Ltmp1940:
	.loc	18 284 9
	jne	LBB17_92
Ltmp1941:
	.loc	18 285 13
	leaq	1(%rax), %rdi
Ltmp1942:
	movq	%rdi, 16(%rcx)
Ltmp1943:
	.loc	5 2851 12
	cmpq	%rdi, %r10
Ltmp1944:
	.loc	11 458 13
	jbe	LBB17_113
Ltmp1945:
	.loc	7 1053 52
	cmpb	$95, (%r8,%rdi)
Ltmp1946:
	.loc	18 284 9
	jne	LBB17_113
Ltmp1947:
	.loc	18 285 13
	addq	$2, %rax
	movq	%rax, 16(%rcx)
	xorl	%r15d, %r15d
Ltmp1948:
	.loc	19 3632 30
	incq	%r15
Ltmp1949:
	.loc	18 643 31
	je	LBB17_152
	jmp	LBB17_172
Ltmp1950:
LBB17_50:
	.loc	18 818 22
	movq	24(%rbx), %rdi
	leaq	l___unnamed_20(%rip), %rsi
	movl	$1, %edx
	callq	__ZN4core3fmt9Formatter9write_str17h957ea9717e49073dE
	movb	$1, %r14b
	.loc	18 818 17 is_stmt 0
	testb	%al, %al
	jne	LBB17_153
Ltmp1951:
	.loc	13 286 25 is_stmt 1
	cmpq	$0, (%rbx)
Ltmp1952:
	.loc	18 672 15
	je	LBB17_127
Ltmp1953:
	.loc	18 0 15 is_stmt 0
	xorl	%r12d, %r12d
	leaq	l___unnamed_50(%rip), %r15
Ltmp1954:
LBB17_53:
	.loc	18 280 33 is_stmt 1
	movq	16(%rbx), %rax
Ltmp1955:
	.loc	5 2851 12
	cmpq	%rax, 8(%rbx)
Ltmp1956:
	.loc	11 458 13
	jbe	LBB17_55
Ltmp1957:
	.loc	18 280 9
	movq	(%rbx), %rcx
Ltmp1958:
	.loc	7 1053 52
	cmpb	$69, (%rcx,%rax)
Ltmp1959:
	.loc	18 284 9
	je	LBB17_124
Ltmp1960:
LBB17_55:
	.loc	18 673 16
	testq	%r12, %r12
	.loc	18 673 13 is_stmt 0
	je	LBB17_57
Ltmp1961:
	.loc	18 674 22 is_stmt 1
	movq	24(%rbx), %rdi
	movl	$2, %edx
	movq	%r15, %rsi
	callq	__ZN4core3fmt9Formatter9write_str17h957ea9717e49073dE
	.loc	18 674 17 is_stmt 0
	testb	%al, %al
	jne	LBB17_153
Ltmp1962:
LBB17_57:
	.loc	17 72 5 is_stmt 1
	movq	%rbx, %rdi
	callq	__ZN14rustc_demangle2v07Printer10print_type17h90a19d8e9fba1183E
Ltmp1963:
	.loc	18 676 13
	testb	%al, %al
	jne	LBB17_153
Ltmp1964:
	.loc	18 677 13
	incq	%r12
	je	LBB17_192
Ltmp1965:
	.loc	13 286 25
	cmpq	$0, (%rbx)
Ltmp1966:
	.loc	18 672 15
	jne	LBB17_53
	jmp	LBB17_125
Ltmp1967:
LBB17_60:
	.loc	13 484 13
	movq	(%rbx), %rcx
	testq	%rcx, %rcx
Ltmp1968:
	.loc	13 611 13
	cmovneq	%rbx, %rcx
Ltmp1969:
	.loc	13 729 13
	je	LBB17_132
Ltmp1970:
	.loc	18 280 9
	movq	8(%rcx), %r10
Ltmp1971:
	.loc	18 280 33 is_stmt 0
	movq	16(%rcx), %rax
Ltmp1972:
	.loc	5 2851 12 is_stmt 1
	cmpq	%rax, %r10
Ltmp1973:
	.loc	11 458 13
	jbe	LBB17_77
Ltmp1974:
	.loc	18 280 9
	movq	(%rcx), %r8
Ltmp1975:
	.loc	7 1053 52
	cmpb	$71, (%r8,%rax)
Ltmp1976:
	.loc	18 284 9
	jne	LBB17_77
Ltmp1977:
	.loc	18 285 13
	leaq	1(%rax), %rdi
Ltmp1978:
	movq	%rdi, 16(%rcx)
Ltmp1979:
	.loc	5 2851 12
	cmpq	%rdi, %r10
Ltmp1980:
	.loc	11 458 13
	jbe	LBB17_81
Ltmp1981:
	.loc	7 1053 52
	cmpb	$95, (%r8,%rdi)
Ltmp1982:
	.loc	18 284 9
	jne	LBB17_81
Ltmp1983:
	.loc	18 285 13
	addq	$2, %rax
	movq	%rax, 16(%rcx)
	xorl	%r14d, %r14d
Ltmp1984:
	.loc	19 3632 30
	incq	%r14
Ltmp1985:
	.loc	18 643 31
	je	LBB17_132
	jmp	LBB17_135
Ltmp1986:
LBB17_66:
	.loc	18 0 31 is_stmt 0
	leaq	l___unnamed_78(%rip), %rsi
	movl	$5, %edx
Ltmp1987:
	.loc	18 778 32 is_stmt 1
	movq	24(%rbx), %rdi
	jmp	LBB17_185
Ltmp1988:
LBB17_67:
	.loc	18 0 32 is_stmt 0
	leaq	l___unnamed_79(%rip), %rsi
	movl	$2, %edx
Ltmp1989:
	.loc	18 778 32
	movq	24(%rbx), %rdi
	jmp	LBB17_185
Ltmp1990:
LBB17_68:
	.loc	18 0 32
	leaq	l___unnamed_80(%rip), %rsi
	jmp	LBB17_70
Ltmp1991:
LBB17_69:
	leaq	l___unnamed_81(%rip), %rsi
Ltmp1992:
LBB17_70:
	movl	$3, %edx
Ltmp1993:
LBB17_71:
	.loc	18 778 32
	movq	24(%rbx), %rdi
	jmp	LBB17_185
Ltmp1994:
LBB17_72:
	.loc	18 0 32
	leaq	l___unnamed_3(%rip), %rsi
	movl	$2, %edx
Ltmp1995:
	.loc	18 778 32
	movq	24(%rbx), %rdi
	jmp	LBB17_185
Ltmp1996:
LBB17_73:
	.loc	18 0 0
	leaq	L___unnamed_82(%rip), %rsi
	movl	$4, %edx
	callq	__ZN4core3fmt9Formatter9write_str17h957ea9717e49073dE
	testb	%al, %al
	jne	LBB17_153
Ltmp1997:
LBB17_74:
	movq	%rbx, %rdi
	addq	$40, %rsp
	popq	%rbx
Ltmp1998:
	popq	%r12
	popq	%r13
	popq	%r14
	popq	%r15
Ltmp1999:
	popq	%rbp
	jmp	__ZN14rustc_demangle2v07Printer10print_type17h90a19d8e9fba1183E
LBB17_81:
Ltmp2000:
	xorl	%r14d, %r14d
	movl	$62, %r9d
Ltmp2001:
LBB17_82:
	.loc	5 2851 12 is_stmt 1
	cmpq	%rdi, %r10
Ltmp2002:
	.loc	11 458 13
	jbe	LBB17_132
Ltmp2003:
	.loc	11 458 29 is_stmt 0
	movzbl	(%r8,%rdi), %eax
Ltmp2004:
	.loc	7 1053 52 is_stmt 1
	cmpb	$95, %al
Ltmp2005:
	.loc	18 284 9
	je	LBB17_130
Ltmp2006:
	.loc	18 321 22
	leal	-48(%rax), %esi
	cmpb	$10, %sil
	jb	LBB17_90
Ltmp2007:
	.loc	18 322 22
	leal	-97(%rax), %edx
	cmpb	$26, %dl
	jae	LBB17_87
Ltmp2008:
	.loc	18 322 38 is_stmt 0
	addb	$-87, %al
	jmp	LBB17_89
Ltmp2009:
LBB17_87:
	.loc	18 323 22 is_stmt 1
	leal	-65(%rax), %edx
	cmpb	$26, %dl
	jae	LBB17_132
Ltmp2010:
	.loc	18 323 38 is_stmt 0
	addb	$-29, %al
Ltmp2011:
LBB17_89:
	.loc	18 0 0
	movl	%eax, %esi
Ltmp2012:
LBB17_90:
	.loc	18 326 9 is_stmt 1
	incq	%rdi
	movq	%rdi, 16(%rcx)
Ltmp2013:
	.loc	19 3688 26
	movq	%r14, %rax
	mulq	%r9
Ltmp2014:
	.loc	18 338 17
	jo	LBB17_132
Ltmp2015:
	.loc	18 0 0 is_stmt 0
	movq	%rax, %r14
Ltmp2016:
	.loc	18 337 21 is_stmt 1
	movzbl	%sil, %eax
Ltmp2017:
	.loc	19 3632 30
	addq	%rax, %r14
Ltmp2018:
	.loc	18 339 17
	jae	LBB17_82
	jmp	LBB17_132
Ltmp2019:
LBB17_92:
	.loc	18 0 17 is_stmt 0
	xorl	%r15d, %r15d
Ltmp2020:
LBB17_93:
	.loc	13 286 25 is_stmt 1
	cmpq	$0, (%rbx)
Ltmp2021:
	.loc	13 0 25 is_stmt 0
	jne	LBB17_94
	jmp	LBB17_144
Ltmp2022:
LBB17_102:
	xorl	%eax, %eax
	movl	$62, %r9d
Ltmp2023:
LBB17_103:
	.loc	5 2851 12 is_stmt 1
	cmpq	%rsi, %r10
Ltmp2024:
	.loc	11 458 13
	jbe	LBB17_183
Ltmp2025:
	.loc	11 458 29 is_stmt 0
	movzbl	(%r8,%rsi), %edx
Ltmp2026:
	.loc	7 1053 52 is_stmt 1
	cmpb	$95, %dl
Ltmp2027:
	.loc	18 284 9
	je	LBB17_146
Ltmp2028:
	.loc	18 321 22
	leal	-48(%rdx), %edi
	cmpb	$10, %dil
	jb	LBB17_111
Ltmp2029:
	.loc	18 322 22
	leal	-97(%rdx), %edi
	cmpb	$26, %dil
	jae	LBB17_108
Ltmp2030:
	.loc	18 322 38 is_stmt 0
	addb	$-87, %dl
	jmp	LBB17_110
Ltmp2031:
LBB17_108:
	.loc	18 323 22 is_stmt 1
	leal	-65(%rdx), %edi
	cmpb	$26, %dil
	jae	LBB17_183
Ltmp2032:
	.loc	18 323 38 is_stmt 0
	addb	$-29, %dl
Ltmp2033:
LBB17_110:
	.loc	18 0 0
	movl	%edx, %edi
Ltmp2034:
LBB17_111:
	.loc	18 326 9 is_stmt 1
	incq	%rsi
	movq	%rsi, 16(%rcx)
Ltmp2035:
	.loc	19 3688 26
	mulq	%r9
Ltmp2036:
	.loc	18 338 17
	jo	LBB17_183
Ltmp2037:
	.loc	18 337 21
	movzbl	%dil, %edx
Ltmp2038:
	.loc	19 3632 30
	addq	%rdx, %rax
	jae	LBB17_103
	jmp	LBB17_183
Ltmp2039:
LBB17_113:
	.loc	19 0 30 is_stmt 0
	xorl	%r15d, %r15d
Ltmp2040:
	movl	$62, %r9d
Ltmp2041:
LBB17_114:
	.loc	5 2851 12 is_stmt 1
	cmpq	%rdi, %r10
Ltmp2042:
	.loc	11 458 13
	jbe	LBB17_152
Ltmp2043:
	.loc	11 458 29 is_stmt 0
	movzbl	(%r8,%rdi), %eax
Ltmp2044:
	.loc	7 1053 52 is_stmt 1
	cmpb	$95, %al
Ltmp2045:
	.loc	18 284 9
	je	LBB17_150
Ltmp2046:
	.loc	18 321 22
	leal	-48(%rax), %esi
	cmpb	$10, %sil
	jb	LBB17_122
Ltmp2047:
	.loc	18 322 22
	leal	-97(%rax), %edx
	cmpb	$26, %dl
	jae	LBB17_119
Ltmp2048:
	.loc	18 322 38 is_stmt 0
	addb	$-87, %al
	jmp	LBB17_121
Ltmp2049:
LBB17_119:
	.loc	18 323 22 is_stmt 1
	leal	-65(%rax), %edx
	cmpb	$26, %dl
	jae	LBB17_152
Ltmp2050:
	.loc	18 323 38 is_stmt 0
	addb	$-29, %al
Ltmp2051:
LBB17_121:
	.loc	18 0 0
	movl	%eax, %esi
Ltmp2052:
LBB17_122:
	.loc	18 326 9 is_stmt 1
	incq	%rdi
	movq	%rdi, 16(%rcx)
Ltmp2053:
	.loc	19 3688 26
	movq	%r15, %rax
	mulq	%r9
Ltmp2054:
	.loc	18 338 17
	jo	LBB17_152
Ltmp2055:
	.loc	18 0 0 is_stmt 0
	movq	%rax, %r15
Ltmp2056:
	.loc	18 337 21 is_stmt 1
	movzbl	%sil, %eax
Ltmp2057:
	.loc	19 3632 30
	addq	%rax, %r15
Ltmp2058:
	.loc	18 339 17
	jae	LBB17_114
	jmp	LBB17_152
Ltmp2059:
LBB17_124:
	.loc	18 285 13
	incq	%rax
	movq	%rax, 16(%rbx)
Ltmp2060:
LBB17_125:
	.loc	18 820 20
	cmpq	$1, %r12
	.loc	18 820 17 is_stmt 0
	jne	LBB17_127
Ltmp2061:
	.loc	18 821 26 is_stmt 1
	movq	24(%rbx), %rdi
	leaq	l___unnamed_24(%rip), %rsi
	movl	$1, %edx
	callq	__ZN4core3fmt9Formatter9write_str17h957ea9717e49073dE
	.loc	18 821 21 is_stmt 0
	testb	%al, %al
	jne	LBB17_153
Ltmp2062:
LBB17_127:
	.loc	18 823 22 is_stmt 1
	movq	24(%rbx), %rdi
	leaq	l___unnamed_22(%rip), %rsi
	jmp	LBB17_184
Ltmp2063:
LBB17_130:
	.loc	18 285 13
	incq	%rdi
	movq	%rdi, 16(%rcx)
Ltmp2064:
	.loc	19 3632 30
	incq	%r14
Ltmp2065:
	.loc	18 348 9
	je	LBB17_132
Ltmp2066:
	.loc	19 3632 30
	incq	%r14
Ltmp2067:
	.loc	18 643 31
	jne	LBB17_135
Ltmp2068:
LBB17_132:
	movq	$0, (%rbx)
	movq	24(%rbx), %rdi
	leaq	l___unnamed_48(%rip), %rsi
	movl	$1, %edx
	callq	__ZN4core3fmt9Formatter9write_str17h957ea9717e49073dE
Ltmp2069:
	.loc	18 825 21
	testb	%al, %al
	je	LBB17_134
	jmp	LBB17_133
Ltmp2070:
LBB17_135:
	.loc	18 645 12
	testq	%r14, %r14
	.loc	18 645 9 is_stmt 0
	je	LBB17_77
Ltmp2071:
	.loc	18 646 18 is_stmt 1
	movq	24(%rbx), %rdi
	leaq	L___unnamed_83(%rip), %rsi
	movl	$4, %edx
	callq	__ZN4core3fmt9Formatter9write_str17h957ea9717e49073dE
	.loc	18 646 13 is_stmt 0
	testb	%al, %al
	jne	LBB17_133
Ltmp2072:
	.loc	18 0 13
	xorl	%r12d, %r12d
	leaq	l___unnamed_50(%rip), %r15
Ltmp2073:
LBB17_138:
	.loc	7 1137 52 is_stmt 1
	cmpq	%r12, %r14
Ltmp2074:
	.loc	9 211 9
	je	LBB17_186
Ltmp2075:
	.loc	18 648 20
	testq	%r12, %r12
	.loc	18 648 17 is_stmt 0
	je	LBB17_141
Ltmp2076:
	.loc	18 649 26 is_stmt 1
	movq	24(%rbx), %rdi
	movl	$2, %edx
	movq	%r15, %rsi
	callq	__ZN4core3fmt9Formatter9write_str17h957ea9717e49073dE
	.loc	18 649 21 is_stmt 0
	testb	%al, %al
	jne	LBB17_133
Ltmp2077:
LBB17_141:
	.loc	18 651 17 is_stmt 1
	movl	32(%rbx), %eax
	incl	%eax
	je	LBB17_195
Ltmp2078:
	.loc	18 0 0 is_stmt 0
	incq	%r12
Ltmp2079:
	.loc	18 651 17
	movl	%eax, 32(%rbx)
	.loc	18 652 22 is_stmt 1
	movl	$1, %esi
	movq	%rbx, %rdi
	callq	__ZN14rustc_demangle2v07Printer25print_lifetime_from_index17h45d042b290863952E
	.loc	18 652 17 is_stmt 0
	testb	%al, %al
	je	LBB17_138
	jmp	LBB17_133
Ltmp2080:
LBB17_77:
	.loc	18 0 17
	xorl	%r14d, %r14d
Ltmp2081:
LBB17_78:
	.loc	18 657 17 is_stmt 1
	movq	%rbx, %rdi
	callq	__ZN14rustc_demangle2v07Printer10print_type28_$u7b$$u7b$closure$u7d$$u7d$17h03f8a2a3bce60f0dE
Ltmp2082:
	.loc	18 660 9
	movl	32(%rbx), %ecx
	subl	%r14d, %ecx
	jb	LBB17_193
Ltmp2083:
	movl	%ecx, 32(%rbx)
Ltmp2084:
	.loc	18 825 21
	testb	%al, %al
	je	LBB17_134
Ltmp2085:
LBB17_133:
	.loc	18 0 21 is_stmt 0
	movb	$1, %r14b
	jmp	LBB17_153
Ltmp2086:
LBB17_146:
	.loc	18 285 13 is_stmt 1
	incq	%rsi
	movq	%rsi, 16(%rcx)
Ltmp2087:
	.loc	19 3632 30
	incq	%rax
Ltmp2088:
	.loc	18 786 30
	je	LBB17_183
Ltmp2089:
	.loc	18 787 24
	testq	%rax, %rax
	.loc	18 787 21 is_stmt 0
	je	LBB17_18
Ltmp2090:
	.loc	18 788 30 is_stmt 1
	movq	%rbx, %rdi
	movq	%rax, %rsi
	callq	__ZN14rustc_demangle2v07Printer25print_lifetime_from_index17h45d042b290863952E
Ltmp2091:
	.loc	18 788 25 is_stmt 0
	testb	%al, %al
	jne	LBB17_153
Ltmp2092:
	.loc	18 789 30 is_stmt 1
	movq	24(%rbx), %rdi
	leaq	l___unnamed_84(%rip), %rsi
	movl	$1, %edx
	callq	__ZN4core3fmt9Formatter9write_str17h957ea9717e49073dE
	.loc	18 789 25 is_stmt 0
	testb	%al, %al
	je	LBB17_18
	jmp	LBB17_153
Ltmp2093:
LBB17_150:
	.loc	18 285 13 is_stmt 1
	incq	%rdi
	movq	%rdi, 16(%rcx)
Ltmp2094:
	.loc	19 3632 30
	incq	%r15
Ltmp2095:
	.loc	18 348 9
	je	LBB17_152
Ltmp2096:
	.loc	19 3632 30
	incq	%r15
Ltmp2097:
	.loc	18 643 31
	jne	LBB17_172
Ltmp2098:
LBB17_152:
	movq	$0, (%rbx)
	movq	24(%rbx), %rdi
	leaq	l___unnamed_48(%rip), %rsi
	movl	$1, %edx
	callq	__ZN4core3fmt9Formatter9write_str17h957ea9717e49073dE
Ltmp2099:
	.loc	18 878 17
	testb	%al, %al
	jne	LBB17_153
	jmp	LBB17_154
Ltmp2100:
LBB17_172:
	.loc	18 645 12
	testq	%r15, %r15
	.loc	18 645 9 is_stmt 0
	je	LBB17_76
Ltmp2101:
	.loc	18 646 18 is_stmt 1
	movq	24(%rbx), %rdi
	leaq	L___unnamed_83(%rip), %rsi
	movl	$4, %edx
	callq	__ZN4core3fmt9Formatter9write_str17h957ea9717e49073dE
	.loc	18 646 13 is_stmt 0
	testb	%al, %al
	jne	LBB17_153
Ltmp2102:
	.loc	18 0 13
	xorl	%r13d, %r13d
	leaq	l___unnamed_50(%rip), %r12
Ltmp2103:
LBB17_175:
	.loc	7 1137 52 is_stmt 1
	cmpq	%r13, %r15
Ltmp2104:
	.loc	9 211 9
	je	LBB17_190
Ltmp2105:
	.loc	18 648 20
	testq	%r13, %r13
	.loc	18 648 17 is_stmt 0
	je	LBB17_178
Ltmp2106:
	.loc	18 649 26 is_stmt 1
	movq	24(%rbx), %rdi
	movl	$2, %edx
	movq	%r12, %rsi
	callq	__ZN4core3fmt9Formatter9write_str17h957ea9717e49073dE
	.loc	18 649 21 is_stmt 0
	testb	%al, %al
	jne	LBB17_153
Ltmp2107:
LBB17_178:
	.loc	18 651 17 is_stmt 1
	movl	32(%rbx), %eax
	incl	%eax
	je	LBB17_195
Ltmp2108:
	.loc	18 0 0 is_stmt 0
	incq	%r13
Ltmp2109:
	.loc	18 651 17
	movl	%eax, 32(%rbx)
	.loc	18 652 22 is_stmt 1
	movl	$1, %esi
	movq	%rbx, %rdi
	callq	__ZN14rustc_demangle2v07Printer25print_lifetime_from_index17h45d042b290863952E
	.loc	18 652 17 is_stmt 0
	testb	%al, %al
	je	LBB17_175
	jmp	LBB17_153
Ltmp2110:
LBB17_76:
	.loc	18 0 17
	xorl	%r15d, %r15d
Ltmp2111:
	.loc	13 286 25 is_stmt 1
	cmpq	$0, (%rbx)
Ltmp2112:
	.loc	18 672 15
	je	LBB17_144
Ltmp2113:
LBB17_94:
	.loc	18 0 15 is_stmt 0
	xorl	%r13d, %r13d
	leaq	l___unnamed_85(%rip), %r12
Ltmp2114:
LBB17_95:
	.loc	18 280 33 is_stmt 1
	movq	16(%rbx), %rax
Ltmp2115:
	.loc	5 2851 12
	cmpq	%rax, 8(%rbx)
Ltmp2116:
	.loc	11 458 13
	jbe	LBB17_97
Ltmp2117:
	.loc	18 280 9
	movq	(%rbx), %rcx
Ltmp2118:
	.loc	7 1053 52
	cmpb	$69, (%rcx,%rax)
Ltmp2119:
	.loc	18 284 9
	je	LBB17_143
Ltmp2120:
LBB17_97:
	.loc	18 673 16
	testq	%r13, %r13
	.loc	18 673 13 is_stmt 0
	je	LBB17_99
Ltmp2121:
	.loc	18 674 22 is_stmt 1
	movq	24(%rbx), %rdi
	movl	$3, %edx
	movq	%r12, %rsi
	callq	__ZN4core3fmt9Formatter9write_str17h957ea9717e49073dE
	.loc	18 674 17 is_stmt 0
	testb	%al, %al
	jne	LBB17_129
Ltmp2122:
LBB17_99:
	.loc	17 72 5 is_stmt 1
	movq	%rbx, %rdi
	callq	__ZN14rustc_demangle2v07Printer15print_dyn_trait17hff67b6cf12f341e8E
Ltmp2123:
	.loc	18 676 13
	testb	%al, %al
	jne	LBB17_129
Ltmp2124:
	.loc	18 677 13
	incq	%r13
	je	LBB17_192
Ltmp2125:
	.loc	13 286 25
	cmpq	$0, (%rbx)
Ltmp2126:
	.loc	18 672 15
	jne	LBB17_95
	jmp	LBB17_144
Ltmp2127:
LBB17_129:
	.loc	18 0 15 is_stmt 0
	movb	$1, %al
Ltmp2128:
	.loc	18 660 9 is_stmt 1
	movl	32(%rbx), %ecx
	subl	%r15d, %ecx
	jae	LBB17_145
Ltmp2129:
LBB17_193:
	.loc	18 0 0 is_stmt 0
	leaq	_str.0(%rip), %rdi
	leaq	l___unnamed_86(%rip), %rdx
	movl	$33, %esi
	callq	__ZN4core9panicking5panic17h736ee47a631475c0E
Ltmp2130:
LBB17_143:
	.loc	18 285 13 is_stmt 1
	incq	%rax
	movq	%rax, 16(%rbx)
Ltmp2131:
LBB17_144:
	.loc	18 0 13 is_stmt 0
	xorl	%eax, %eax
Ltmp2132:
	.loc	18 660 9 is_stmt 1
	movl	32(%rbx), %ecx
	subl	%r15d, %ecx
	jb	LBB17_193
Ltmp2133:
LBB17_145:
	movl	%ecx, 32(%rbx)
Ltmp2134:
	.loc	18 878 17
	testb	%al, %al
	jne	LBB17_153
Ltmp2135:
LBB17_154:
	.loc	13 484 13
	movq	(%rbx), %rax
	testq	%rax, %rax
Ltmp2136:
	.loc	13 611 13
	cmovneq	%rbx, %rax
Ltmp2137:
	.loc	13 519 13
	je	LBB17_183
Ltmp2138:
	.loc	18 280 33
	movq	16(%rax), %rcx
Ltmp2139:
	.loc	5 2851 12
	cmpq	%rcx, 8(%rax)
Ltmp2140:
	.loc	11 458 13
	jbe	LBB17_183
Ltmp2141:
	.loc	18 280 9
	movq	(%rax), %rdx
Ltmp2142:
	.loc	7 1053 52
	cmpb	$76, (%rdx,%rcx)
Ltmp2143:
	.loc	18 284 9
	jne	LBB17_183
Ltmp2144:
	.loc	18 285 13
	incq	%rcx
	movq	%rcx, 16(%rax)
Ltmp2145:
	.loc	13 484 13
	movq	(%rbx), %rcx
	testq	%rcx, %rcx
Ltmp2146:
	.loc	13 611 13
	cmovneq	%rbx, %rcx
Ltmp2147:
	.loc	13 729 13
	je	LBB17_183
Ltmp2148:
	.loc	18 0 0 is_stmt 0
	movq	(%rcx), %r8
Ltmp2149:
	.loc	18 280 9 is_stmt 1
	movq	8(%rcx), %r10
Ltmp2150:
	.loc	18 280 33 is_stmt 0
	movq	16(%rcx), %rsi
Ltmp2151:
	.loc	5 2851 12 is_stmt 1
	cmpq	%rsi, %r10
Ltmp2152:
	.loc	11 458 13
	jbe	LBB17_161
Ltmp2153:
	.loc	7 1053 52
	cmpb	$95, (%r8,%rsi)
Ltmp2154:
	.loc	18 284 9
	jne	LBB17_161
Ltmp2155:
	.loc	18 285 13
	incq	%rsi
	movq	%rsi, 16(%rcx)
	xorl	%r14d, %r14d
	jmp	LBB17_153
Ltmp2156:
LBB17_161:
	.loc	18 0 13 is_stmt 0
	xorl	%r15d, %r15d
	movl	$62, %r9d
Ltmp2157:
LBB17_162:
	.loc	5 2851 12 is_stmt 1
	cmpq	%rsi, %r10
Ltmp2158:
	.loc	11 458 13
	jbe	LBB17_183
Ltmp2159:
	.loc	11 458 29 is_stmt 0
	movzbl	(%r8,%rsi), %eax
Ltmp2160:
	.loc	7 1053 52 is_stmt 1
	cmpb	$95, %al
Ltmp2161:
	.loc	18 284 9
	je	LBB17_182
Ltmp2162:
	.loc	18 321 22
	leal	-48(%rax), %edi
	cmpb	$10, %dil
	jb	LBB17_170
Ltmp2163:
	.loc	18 322 22
	leal	-97(%rax), %edx
	cmpb	$26, %dl
	jae	LBB17_167
Ltmp2164:
	.loc	18 322 38 is_stmt 0
	addb	$-87, %al
	jmp	LBB17_169
Ltmp2165:
LBB17_167:
	.loc	18 323 22 is_stmt 1
	leal	-65(%rax), %edx
	cmpb	$26, %dl
	jae	LBB17_183
Ltmp2166:
	.loc	18 323 38 is_stmt 0
	addb	$-29, %al
Ltmp2167:
LBB17_169:
	.loc	18 0 0
	movl	%eax, %edi
Ltmp2168:
LBB17_170:
	.loc	18 326 9 is_stmt 1
	incq	%rsi
	movq	%rsi, 16(%rcx)
Ltmp2169:
	.loc	19 3688 26
	movq	%r15, %rax
	mulq	%r9
Ltmp2170:
	.loc	18 338 17
	jo	LBB17_183
Ltmp2171:
	.loc	18 0 0 is_stmt 0
	movq	%rax, %r15
Ltmp2172:
	.loc	18 337 21 is_stmt 1
	movzbl	%dil, %eax
Ltmp2173:
	.loc	19 3632 30
	addq	%rax, %r15
	jae	LBB17_162
	jmp	LBB17_183
Ltmp2174:
LBB17_182:
	.loc	18 285 13
	incq	%rsi
	movq	%rsi, 16(%rcx)
Ltmp2175:
	.loc	19 3632 30
	incq	%r15
Ltmp2176:
	.loc	18 886 26
	jne	LBB17_187
Ltmp2177:
LBB17_183:
	.loc	18 0 0 is_stmt 0
	movq	$0, (%rbx)
	movq	24(%rbx), %rdi
	leaq	l___unnamed_48(%rip), %rsi
Ltmp2178:
LBB17_184:
	movl	$1, %edx
Ltmp2179:
LBB17_185:
	addq	$40, %rsp
	popq	%rbx
Ltmp2180:
	popq	%r12
	popq	%r13
	popq	%r14
	popq	%r15
	popq	%rbp
	jmp	__ZN4core3fmt9Formatter9write_str17h957ea9717e49073dE
LBB17_186:
Ltmp2181:
	.loc	18 654 18 is_stmt 1
	movq	24(%rbx), %rdi
	leaq	l___unnamed_87(%rip), %rsi
	movl	$2, %edx
	callq	__ZN4core3fmt9Formatter9write_str17h957ea9717e49073dE
	.loc	18 654 13 is_stmt 0
	testb	%al, %al
	je	LBB17_78
	jmp	LBB17_133
Ltmp2182:
LBB17_187:
	.loc	18 887 20 is_stmt 1
	testq	%r15, %r15
	.loc	18 887 17 is_stmt 0
	je	LBB17_134
Ltmp2183:
	.loc	18 888 26 is_stmt 1
	movq	24(%rbx), %rdi
	leaq	l___unnamed_85(%rip), %rsi
	movl	$3, %edx
	callq	__ZN4core3fmt9Formatter9write_str17h957ea9717e49073dE
	.loc	18 888 21 is_stmt 0
	testb	%al, %al
	jne	LBB17_153
Ltmp2184:
	.loc	18 889 26 is_stmt 1
	movq	%rbx, %rdi
	movq	%r15, %rsi
	addq	$40, %rsp
	popq	%rbx
Ltmp2185:
	popq	%r12
	popq	%r13
	popq	%r14
	popq	%r15
Ltmp2186:
	popq	%rbp
	jmp	__ZN14rustc_demangle2v07Printer25print_lifetime_from_index17h45d042b290863952E
Ltmp2187:
LBB17_134:
	.loc	18 0 26 is_stmt 0
	xorl	%r14d, %r14d
Ltmp2188:
LBB17_153:
	.loc	18 902 6 is_stmt 1
	movl	%r14d, %eax
	addq	$40, %rsp
	popq	%rbx
Ltmp2189:
	popq	%r12
	popq	%r13
	popq	%r14
	popq	%r15
	popq	%rbp
	retq
LBB17_190:
Ltmp2190:
	.loc	18 654 18
	movq	24(%rbx), %rdi
	leaq	l___unnamed_87(%rip), %rsi
	movl	$2, %edx
	callq	__ZN4core3fmt9Formatter9write_str17h957ea9717e49073dE
	.loc	18 654 13 is_stmt 0
	testb	%al, %al
	je	LBB17_93
	jmp	LBB17_153
Ltmp2191:
LBB17_192:
	.loc	18 0 0
	leaq	_str.1(%rip), %rdi
	leaq	l___unnamed_59(%rip), %rdx
	movl	$28, %esi
	callq	__ZN4core9panicking5panic17h736ee47a631475c0E
Ltmp2192:
LBB17_194:
	.loc	18 897 51 is_stmt 1
	leaq	_str.0(%rip), %rdi
	leaq	l___unnamed_88(%rip), %rdx
	movl	$33, %esi
	callq	__ZN4core9panicking5panic17h736ee47a631475c0E
Ltmp2193:
LBB17_195:
	.loc	18 0 0 is_stmt 0
	leaq	_str.1(%rip), %rdi
	leaq	l___unnamed_89(%rip), %rdx
	movl	$28, %esi
	callq	__ZN4core9panicking5panic17h736ee47a631475c0E
Ltmp2194:
Lfunc_end17:
	.cfi_endproc
	.p2align	2, 0x90
	.data_region jt32
.set L17_0_set_4, LBB17_4-LJTI17_0
.set L17_0_set_34, LBB17_34-LJTI17_0
.set L17_0_set_35, LBB17_35-LJTI17_0
.set L17_0_set_43, LBB17_43-LJTI17_0
.set L17_0_set_60, LBB17_60-LJTI17_0
.set L17_0_set_20, LBB17_20-LJTI17_0
.set L17_0_set_10, LBB17_10-LJTI17_0
.set L17_0_set_50, LBB17_50-LJTI17_0
.set L17_0_set_28, LBB17_28-LJTI17_0
.set L17_0_set_71, LBB17_71-LJTI17_0
.set L17_0_set_31, LBB17_31-LJTI17_0
.set L17_0_set_25, LBB17_25-LJTI17_0
.set L17_0_set_40, LBB17_40-LJTI17_0
.set L17_0_set_41, LBB17_41-LJTI17_0
.set L17_0_set_67, LBB17_67-LJTI17_0
.set L17_0_set_66, LBB17_66-LJTI17_0
.set L17_0_set_23, LBB17_23-LJTI17_0
.set L17_0_set_32, LBB17_32-LJTI17_0
.set L17_0_set_68, LBB17_68-LJTI17_0
.set L17_0_set_24, LBB17_24-LJTI17_0
.set L17_0_set_30, LBB17_30-LJTI17_0
.set L17_0_set_27, LBB17_27-LJTI17_0
.set L17_0_set_39, LBB17_39-LJTI17_0
.set L17_0_set_26, LBB17_26-LJTI17_0
.set L17_0_set_72, LBB17_72-LJTI17_0
.set L17_0_set_69, LBB17_69-LJTI17_0
.set L17_0_set_29, LBB17_29-LJTI17_0
.set L17_0_set_33, LBB17_33-LJTI17_0
.set L17_0_set_42, LBB17_42-LJTI17_0
LJTI17_0:
	.long	L17_0_set_4
	.long	L17_0_set_34
	.long	L17_0_set_35
	.long	L17_0_set_43
	.long	L17_0_set_35
	.long	L17_0_set_60
	.long	L17_0_set_35
	.long	L17_0_set_35
	.long	L17_0_set_35
	.long	L17_0_set_35
	.long	L17_0_set_35
	.long	L17_0_set_35
	.long	L17_0_set_35
	.long	L17_0_set_35
	.long	L17_0_set_20
	.long	L17_0_set_20
	.long	L17_0_set_10
	.long	L17_0_set_10
	.long	L17_0_set_4
	.long	L17_0_set_50
	.long	L17_0_set_35
	.long	L17_0_set_35
	.long	L17_0_set_35
	.long	L17_0_set_35
	.long	L17_0_set_35
	.long	L17_0_set_35
	.long	L17_0_set_35
	.long	L17_0_set_35
	.long	L17_0_set_35
	.long	L17_0_set_35
	.long	L17_0_set_35
	.long	L17_0_set_35
	.long	L17_0_set_28
	.long	L17_0_set_71
	.long	L17_0_set_31
	.long	L17_0_set_25
	.long	L17_0_set_40
	.long	L17_0_set_41
	.long	L17_0_set_35
	.long	L17_0_set_67
	.long	L17_0_set_66
	.long	L17_0_set_23
	.long	L17_0_set_35
	.long	L17_0_set_32
	.long	L17_0_set_68
	.long	L17_0_set_24
	.long	L17_0_set_30
	.long	L17_0_set_27
	.long	L17_0_set_35
	.long	L17_0_set_35
	.long	L17_0_set_39
	.long	L17_0_set_26
	.long	L17_0_set_72
	.long	L17_0_set_69
	.long	L17_0_set_35
	.long	L17_0_set_29
	.long	L17_0_set_33
	.long	L17_0_set_42
	.end_data_region

	.p2align	4, 0x90
__ZN14rustc_demangle2v07Printer10print_type28_$u7b$$u7b$closure$u7d$$u7d$17h03f8a2a3bce60f0dE:
Lfunc_begin18:
	.loc	18 825 0 is_stmt 1
	.cfi_startproc
	pushq	%rbp
	.cfi_def_cfa_offset 16
	.cfi_offset %rbp, -16
	movq	%rsp, %rbp
	.cfi_def_cfa_register %rbp
	pushq	%r15
	pushq	%r14
	pushq	%r13
	pushq	%r12
	pushq	%rbx
	subq	$152, %rsp
	.cfi_offset %rbx, -56
	.cfi_offset %r12, -48
	.cfi_offset %r13, -40
	.cfi_offset %r14, -32
	.cfi_offset %r15, -24
	movq	%rdi, %r15
Ltmp2195:
	.loc	13 484 13 prologue_end
	movq	(%rdi), %rax
	testq	%rax, %rax
Ltmp2196:
	.loc	13 611 13
	cmovneq	%rdi, %rax
Ltmp2197:
	.loc	13 519 13
	je	LBB18_30
Ltmp2198:
	.loc	18 280 33
	movq	16(%rax), %rcx
Ltmp2199:
	.loc	5 2851 12
	cmpq	%rcx, 8(%rax)
Ltmp2200:
	.loc	11 458 13
	jbe	LBB18_10
Ltmp2201:
	.loc	18 280 9
	movq	(%rax), %rdx
Ltmp2202:
	.loc	7 1053 52
	cmpb	$85, (%rdx,%rcx)
Ltmp2203:
	.loc	18 284 9
	jne	LBB18_10
Ltmp2204:
	.loc	18 285 13
	incq	%rcx
	movq	%rcx, 16(%rax)
	movb	$1, %r14b
Ltmp2205:
	.loc	13 484 13
	cmpq	$0, (%r15)
Ltmp2206:
	.loc	13 519 13
	je	LBB18_12
Ltmp2207:
	.loc	18 280 33
	movq	16(%r15), %rax
Ltmp2208:
	.loc	5 2851 12
	cmpq	%rax, 8(%r15)
Ltmp2209:
	.loc	11 458 13
	jbe	LBB18_11
Ltmp2210:
LBB18_5:
	.loc	18 280 9
	movq	(%r15), %rcx
Ltmp2211:
	.loc	7 1053 52
	cmpb	$75, (%rcx,%rax)
Ltmp2212:
	.loc	18 284 9
	jne	LBB18_11
Ltmp2213:
	.loc	18 285 13
	incq	%rax
	movq	%rax, 16(%r15)
Ltmp2214:
	.loc	13 484 13
	movq	(%r15), %rax
	testq	%rax, %rax
Ltmp2215:
	.loc	13 611 13
	cmovneq	%r15, %rax
Ltmp2216:
	.loc	13 519 13
	je	LBB18_27
Ltmp2217:
	.loc	18 280 33
	movq	16(%rax), %rcx
Ltmp2218:
	.loc	5 2851 12
	cmpq	%rcx, 8(%rax)
Ltmp2219:
	.loc	11 458 13
	jbe	LBB18_23
Ltmp2220:
	.loc	18 280 9
	movq	(%rax), %rdx
Ltmp2221:
	.loc	7 1053 52
	cmpb	$67, (%rdx,%rcx)
Ltmp2222:
	.loc	18 284 9
	jne	LBB18_23
Ltmp2223:
	.loc	18 285 13
	incq	%rcx
	movq	%rcx, 16(%rax)
	movl	$1, %r12d
	leaq	l___unnamed_25(%rip), %rbx
Ltmp2224:
	.loc	18 841 17
	testb	%r14b, %r14b
	jne	LBB18_13
	jmp	LBB18_15
Ltmp2225:
LBB18_10:
	.loc	18 0 17 is_stmt 0
	xorl	%r14d, %r14d
Ltmp2226:
	.loc	18 280 33 is_stmt 1
	movq	16(%r15), %rax
Ltmp2227:
	.loc	5 2851 12
	cmpq	%rax, 8(%r15)
Ltmp2228:
	.loc	11 458 13
	ja	LBB18_5
Ltmp2229:
LBB18_11:
	.loc	18 841 17
	testb	%r14b, %r14b
	je	LBB18_30
Ltmp2230:
LBB18_12:
	.loc	18 0 17 is_stmt 0
	xorl	%ebx, %ebx
Ltmp2231:
LBB18_13:
	.loc	18 842 26 is_stmt 1
	movq	24(%r15), %rdi
	leaq	l___unnamed_90(%rip), %rsi
	movl	$7, %edx
	callq	__ZN4core3fmt9Formatter9write_str17h957ea9717e49073dE
	movb	$1, %r14b
	.loc	18 842 21 is_stmt 0
	testb	%al, %al
	jne	LBB18_47
Ltmp2232:
	.loc	18 846 21 is_stmt 1
	testq	%rbx, %rbx
	je	LBB18_30
Ltmp2233:
LBB18_15:
	.loc	18 847 30
	movq	24(%r15), %rdi
	leaq	L___unnamed_91(%rip), %rsi
	movl	$8, %edx
	callq	__ZN4core3fmt9Formatter9write_str17h957ea9717e49073dE
	movb	$1, %r14b
	.loc	18 847 25 is_stmt 0
	testb	%al, %al
	jne	LBB18_47
Ltmp2234:
	.loc	3 3299 9 is_stmt 1
	movq	$0, -112(%rbp)
	movq	%r12, -104(%rbp)
	movq	%rbx, -96(%rbp)
	movq	%r12, -88(%rbp)
	movq	$0, -80(%rbp)
	movq	%r12, -72(%rbp)
	movq	$1, -64(%rbp)
	movabsq	$408021893215, %rax
	movq	%rax, -56(%rbp)
	movw	$1, -48(%rbp)
Ltmp2235:
	.loc	18 852 30
	movq	24(%r15), %rbx
Ltmp2236:
	.loc	18 0 30 is_stmt 0
	leaq	-112(%rbp), %rdi
	.loc	18 852 49
	callq	__ZN84_$LT$core..str..Split$LT$P$GT$$u20$as$u20$core..iter..traits..iterator..Iterator$GT$4next17h178aa11a84c5ae27E
Ltmp2237:
	.loc	11 387 13 is_stmt 1
	testq	%rax, %rax
	je	LBB18_51
Ltmp2238:
	.loc	18 852 30
	movq	%rbx, %rdi
	movq	%rax, %rsi
	callq	__ZN4core3fmt9Formatter9write_str17h957ea9717e49073dE
Ltmp2239:
	.loc	18 852 25 is_stmt 0
	testb	%al, %al
	jne	LBB18_47
Ltmp2240:
	.loc	18 0 25
	leaq	-184(%rbp), %rbx
	leaq	-112(%rbp), %rsi
	.loc	18 853 37 is_stmt 1
	movl	$9, %ecx
	movq	%rbx, %rdi
	rep;movsq (%rsi), %es:(%rdi)
Ltmp2241:
	.p2align	4, 0x90
LBB18_19:
	.loc	18 853 37 is_stmt 0
	movq	%rbx, %rdi
	callq	__ZN84_$LT$core..str..Split$LT$P$GT$$u20$as$u20$core..iter..traits..iterator..Iterator$GT$4next17h178aa11a84c5ae27E
	.loc	18 853 29
	testq	%rax, %rax
	je	LBB18_29
Ltmp2242:
	.loc	18 0 0
	movq	%rax, %r13
Ltmp2243:
	movq	%rdx, %r12
Ltmp2244:
	.loc	18 854 34 is_stmt 1
	movq	24(%r15), %rdi
	movl	$1, %edx
	leaq	l___unnamed_36(%rip), %rsi
	callq	__ZN4core3fmt9Formatter9write_str17h957ea9717e49073dE
	.loc	18 854 29 is_stmt 0
	testb	%al, %al
	jne	LBB18_47
Ltmp2245:
	.loc	18 855 34 is_stmt 1
	movq	24(%r15), %rdi
	movq	%r13, %rsi
	movq	%r12, %rdx
	callq	__ZN4core3fmt9Formatter9write_str17h957ea9717e49073dE
	.loc	18 855 29 is_stmt 0
	testb	%al, %al
	je	LBB18_19
	jmp	LBB18_47
Ltmp2246:
LBB18_23:
	.loc	18 0 29
	leaq	-184(%rbp), %rdi
Ltmp2247:
	.loc	18 586 50 is_stmt 1
	movq	%r15, %rsi
	callq	__ZN14rustc_demangle2v06Parser5ident17he69b78eb80a16623E
Ltmp2248:
	.loc	18 831 35
	movq	-184(%rbp), %rbx
Ltmp2249:
	testq	%rbx, %rbx
	je	LBB18_28
Ltmp2250:
	movq	-176(%rbp), %r12
Ltmp2251:
	.loc	3 2270 9
	testq	%r12, %r12
Ltmp2252:
	.loc	18 832 28
	je	LBB18_28
Ltmp2253:
	.loc	3 2270 9
	cmpq	$0, -160(%rbp)
Ltmp2254:
	.loc	18 832 25
	jne	LBB18_28
Ltmp2255:
	.loc	18 841 17
	testb	%r14b, %r14b
	jne	LBB18_13
	jmp	LBB18_15
Ltmp2256:
LBB18_27:
	.loc	13 730 23
	movq	$0, -184(%rbp)
Ltmp2257:
LBB18_28:
	.loc	18 0 0 is_stmt 0
	movq	$0, (%r15)
	movq	24(%r15), %rdi
	leaq	l___unnamed_48(%rip), %rsi
	movl	$1, %edx
	addq	$152, %rsp
	popq	%rbx
	popq	%r12
	popq	%r13
	popq	%r14
	popq	%r15
Ltmp2258:
	popq	%rbp
	jmp	__ZN4core3fmt9Formatter9write_str17h957ea9717e49073dE
LBB18_29:
Ltmp2259:
	.loc	18 858 30 is_stmt 1
	movq	24(%r15), %rdi
	leaq	l___unnamed_92(%rip), %rsi
	movl	$2, %edx
	callq	__ZN4core3fmt9Formatter9write_str17h957ea9717e49073dE
	.loc	18 858 25 is_stmt 0
	testb	%al, %al
	jne	LBB18_47
Ltmp2260:
LBB18_30:
	.loc	18 863 22 is_stmt 1
	movq	24(%r15), %rdi
	leaq	l___unnamed_93(%rip), %rsi
	movl	$3, %edx
	callq	__ZN4core3fmt9Formatter9write_str17h957ea9717e49073dE
	movb	$1, %r14b
	.loc	18 863 17 is_stmt 0
	testb	%al, %al
	jne	LBB18_47
Ltmp2261:
	.loc	13 286 25 is_stmt 1
	cmpq	$0, (%r15)
Ltmp2262:
	.loc	18 672 15
	je	LBB18_41
Ltmp2263:
	.loc	18 0 15 is_stmt 0
	xorl	%ebx, %ebx
	leaq	l___unnamed_50(%rip), %r12
Ltmp2264:
	.p2align	4, 0x90
LBB18_33:
	.loc	18 280 33 is_stmt 1
	movq	16(%r15), %rax
Ltmp2265:
	.loc	5 2851 12
	cmpq	%rax, 8(%r15)
Ltmp2266:
	.loc	11 458 13
	jbe	LBB18_35
Ltmp2267:
	.loc	18 280 9
	movq	(%r15), %rcx
Ltmp2268:
	.loc	7 1053 52
	cmpb	$69, (%rcx,%rax)
Ltmp2269:
	.loc	18 284 9
	je	LBB18_40
Ltmp2270:
LBB18_35:
	.loc	18 673 16
	testq	%rbx, %rbx
	.loc	18 673 13 is_stmt 0
	je	LBB18_37
Ltmp2271:
	.loc	18 674 22 is_stmt 1
	movq	24(%r15), %rdi
	movl	$2, %edx
	movq	%r12, %rsi
	callq	__ZN4core3fmt9Formatter9write_str17h957ea9717e49073dE
	.loc	18 674 17 is_stmt 0
	testb	%al, %al
	jne	LBB18_47
Ltmp2272:
LBB18_37:
	.loc	17 72 5 is_stmt 1
	movq	%r15, %rdi
	callq	__ZN14rustc_demangle2v07Printer10print_type17h90a19d8e9fba1183E
Ltmp2273:
	.loc	18 676 13
	testb	%al, %al
	jne	LBB18_47
Ltmp2274:
	.loc	18 677 13
	incq	%rbx
	je	LBB18_50
Ltmp2275:
	.loc	13 286 25
	cmpq	$0, (%r15)
Ltmp2276:
	.loc	18 672 15
	jne	LBB18_33
	jmp	LBB18_41
Ltmp2277:
LBB18_40:
	.loc	18 285 13
	incq	%rax
	movq	%rax, 16(%r15)
Ltmp2278:
LBB18_41:
	.loc	18 865 22
	movq	24(%r15), %rdi
	leaq	l___unnamed_22(%rip), %rsi
	movl	$1, %edx
	callq	__ZN4core3fmt9Formatter9write_str17h957ea9717e49073dE
	.loc	18 865 17 is_stmt 0
	testb	%al, %al
	jne	LBB18_47
Ltmp2279:
	.loc	13 484 13 is_stmt 1
	movq	(%r15), %rax
	testq	%rax, %rax
Ltmp2280:
	.loc	13 611 13
	cmovneq	%r15, %rax
Ltmp2281:
	.loc	13 519 13
	je	LBB18_46
Ltmp2282:
	.loc	18 280 33
	movq	16(%rax), %rcx
Ltmp2283:
	.loc	5 2851 12
	cmpq	%rcx, 8(%rax)
Ltmp2284:
	.loc	11 458 13
	jbe	LBB18_46
Ltmp2285:
	.loc	18 280 9
	movq	(%rax), %rdx
Ltmp2286:
	.loc	7 1053 52
	cmpb	$117, (%rdx,%rcx)
Ltmp2287:
	.loc	18 284 9
	jne	LBB18_46
Ltmp2288:
	.loc	18 285 13
	incq	%rcx
	movq	%rcx, 16(%rax)
	xorl	%r14d, %r14d
	jmp	LBB18_47
Ltmp2289:
LBB18_46:
	.loc	18 870 26
	movq	24(%r15), %rdi
	leaq	L___unnamed_94(%rip), %rsi
	movl	$4, %edx
	callq	__ZN4core3fmt9Formatter9write_str17h957ea9717e49073dE
	.loc	18 870 21 is_stmt 0
	testb	%al, %al
	je	LBB18_49
Ltmp2290:
LBB18_47:
	.loc	18 875 14 is_stmt 1
	movl	%r14d, %eax
Ltmp2291:
LBB18_48:
	.loc	18 0 0 is_stmt 0
	addq	$152, %rsp
	popq	%rbx
	popq	%r12
	popq	%r13
	popq	%r14
	popq	%r15
Ltmp2292:
	popq	%rbp
	retq
LBB18_49:
Ltmp2293:
	.loc	18 871 26 is_stmt 1
	movq	%r15, %rdi
	callq	__ZN14rustc_demangle2v07Printer10print_type17h90a19d8e9fba1183E
	jmp	LBB18_48
Ltmp2294:
LBB18_50:
	.loc	18 677 13
	leaq	_str.1(%rip), %rdi
	leaq	l___unnamed_59(%rip), %rdx
	movl	$28, %esi
	callq	__ZN4core9panicking5panic17h736ee47a631475c0E
Ltmp2295:
LBB18_51:
	.loc	16 10 9
	leaq	l___unnamed_27(%rip), %rdi
	leaq	l___unnamed_95(%rip), %rdx
	movl	$43, %esi
	callq	__ZN4core9panicking5panic17h736ee47a631475c0E
Ltmp2296:
Lfunc_end18:
	.cfi_endproc

	.p2align	4, 0x90
__ZN14rustc_demangle2v07Printer30print_path_maybe_open_generics17h46b771d2cfddfb23E:
Lfunc_begin19:
	.loc	18 909 0
	.cfi_startproc
	pushq	%rbp
	.cfi_def_cfa_offset 16
	.cfi_offset %rbp, -16
	movq	%rsp, %rbp
	.cfi_def_cfa_register %rbp
	pushq	%r15
	pushq	%r14
	pushq	%r12
	pushq	%rbx
	subq	$48, %rsp
	.cfi_offset %rbx, -48
	.cfi_offset %r12, -40
	.cfi_offset %r14, -32
	.cfi_offset %r15, -24
	movq	%rdi, %rbx
Ltmp2297:
	.loc	13 484 13 prologue_end
	movq	(%rdi), %rax
Ltmp2298:
	.loc	13 611 13
	movq	%rdi, %rcx
Ltmp2299:
	.loc	13 484 13
	testq	%rax, %rax
Ltmp2300:
	.loc	13 611 13
	cmoveq	%rax, %rcx
Ltmp2301:
	.loc	13 519 13
	je	LBB19_8
Ltmp2302:
	.loc	18 280 33
	movq	16(%rcx), %rdx
Ltmp2303:
	.loc	5 2851 12
	cmpq	%rdx, 8(%rcx)
Ltmp2304:
	.loc	11 458 13
	jbe	LBB19_4
Ltmp2305:
	.loc	18 280 9
	movq	(%rcx), %rsi
Ltmp2306:
	.loc	7 1053 52
	cmpb	$66, (%rsi,%rdx)
Ltmp2307:
	.loc	18 284 9
	jne	LBB19_4
Ltmp2308:
	.loc	18 285 13
	incq	%rdx
	movq	%rdx, 16(%rcx)
	leaq	-72(%rbp), %r14
Ltmp2309:
	.loc	18 911 13
	movq	%r14, %rdi
	movq	%rbx, %rsi
	callq	__ZN14rustc_demangle2v07Printer15backref_printer17h1a537c49d7e4e7bdE
Ltmp2310:
	movq	%r14, %rdi
	callq	__ZN14rustc_demangle2v07Printer30print_path_maybe_open_generics17h46b771d2cfddfb23E
	movl	%eax, %r14d
	jmp	LBB19_23
Ltmp2311:
LBB19_4:
	.loc	18 280 33
	movq	16(%rbx), %rcx
Ltmp2312:
	.loc	5 2851 12
	cmpq	%rcx, 8(%rbx)
Ltmp2313:
	.loc	11 458 13
	jbe	LBB19_8
Ltmp2314:
	.loc	7 1053 52
	cmpb	$73, (%rax,%rcx)
Ltmp2315:
	.loc	18 284 9
	jne	LBB19_8
Ltmp2316:
	.loc	18 285 13
	incq	%rcx
	movq	%rcx, 16(%rbx)
Ltmp2317:
	.loc	18 0 0 is_stmt 0
	movq	%rbx, %rdi
	xorl	%esi, %esi
	callq	__ZN14rustc_demangle2v07Printer10print_path17hec5ad73476f2d587E
	.loc	18 913 13 is_stmt 1
	testb	%al, %al
	jne	LBB19_7
Ltmp2318:
	.loc	18 914 18
	movq	24(%rbx), %rdi
	leaq	l___unnamed_16(%rip), %rsi
	movl	$1, %edx
	callq	__ZN4core3fmt9Formatter9write_str17h957ea9717e49073dE
	.loc	18 914 13 is_stmt 0
	testb	%al, %al
	je	LBB19_11
Ltmp2319:
LBB19_7:
	.loc	18 0 0
	movb	$2, %r14b
Ltmp2320:
LBB19_23:
	.loc	18 921 6 is_stmt 1
	movl	%r14d, %eax
	jmp	LBB19_24
Ltmp2321:
LBB19_8:
	.loc	18 0 0 is_stmt 0
	movq	%rbx, %rdi
	xorl	%esi, %esi
	callq	__ZN14rustc_demangle2v07Printer10print_path17hec5ad73476f2d587E
	.loc	18 918 13 is_stmt 1
	addb	%al, %al
Ltmp2322:
LBB19_24:
	.loc	18 0 0 is_stmt 0
	addq	$48, %rsp
	popq	%rbx
Ltmp2323:
	popq	%r12
	popq	%r14
	popq	%r15
	popq	%rbp
	retq
LBB19_11:
Ltmp2324:
	movb	$1, %r14b
Ltmp2325:
	.loc	13 286 25 is_stmt 1
	cmpq	$0, (%rbx)
Ltmp2326:
	.loc	18 672 15
	je	LBB19_23
Ltmp2327:
	.loc	18 0 15 is_stmt 0
	xorl	%r12d, %r12d
	leaq	l___unnamed_50(%rip), %r15
Ltmp2328:
LBB19_13:
	.loc	18 280 33 is_stmt 1
	movq	16(%rbx), %rax
Ltmp2329:
	.loc	5 2851 12
	cmpq	%rax, 8(%rbx)
Ltmp2330:
	.loc	11 458 13
	jbe	LBB19_15
Ltmp2331:
	.loc	18 280 9
	movq	(%rbx), %rcx
Ltmp2332:
	.loc	7 1053 52
	cmpb	$69, (%rcx,%rax)
Ltmp2333:
	.loc	18 284 9
	je	LBB19_22
Ltmp2334:
LBB19_15:
	.loc	18 673 16
	testq	%r12, %r12
	.loc	18 673 13 is_stmt 0
	je	LBB19_17
Ltmp2335:
	.loc	18 674 22 is_stmt 1
	movq	24(%rbx), %rdi
	movl	$2, %edx
	movq	%r15, %rsi
	callq	__ZN4core3fmt9Formatter9write_str17h957ea9717e49073dE
	.loc	18 674 17 is_stmt 0
	testb	%al, %al
	jne	LBB19_7
Ltmp2336:
LBB19_17:
	.loc	17 72 5 is_stmt 1
	movq	%rbx, %rdi
	callq	__ZN14rustc_demangle2v07Printer17print_generic_arg17h38fb33dd169bbfaeE
Ltmp2337:
	.loc	18 676 13
	testb	%al, %al
	jne	LBB19_7
Ltmp2338:
	.loc	18 677 13
	incq	%r12
	je	LBB19_25
Ltmp2339:
	.loc	13 286 25
	cmpq	$0, (%rbx)
Ltmp2340:
	.loc	18 672 15
	jne	LBB19_13
	jmp	LBB19_23
Ltmp2341:
LBB19_22:
	.loc	18 285 13
	incq	%rax
	movq	%rax, 16(%rbx)
	jmp	LBB19_23
Ltmp2342:
LBB19_25:
	.loc	18 677 13
	leaq	_str.1(%rip), %rdi
	leaq	l___unnamed_59(%rip), %rdx
	movl	$28, %esi
	callq	__ZN4core9panicking5panic17h736ee47a631475c0E
Ltmp2343:
Lfunc_end19:
	.cfi_endproc

	.p2align	4, 0x90
__ZN14rustc_demangle2v07Printer15print_dyn_trait17hff67b6cf12f341e8E:
Lfunc_begin20:
	.loc	18 923 0
	.cfi_startproc
	pushq	%rbp
	.cfi_def_cfa_offset 16
	.cfi_offset %rbp, -16
	movq	%rsp, %rbp
	.cfi_def_cfa_register %rbp
	pushq	%r15
	pushq	%r14
	pushq	%r13
	pushq	%r12
	pushq	%rbx
	subq	$72, %rsp
	.cfi_offset %rbx, -56
	.cfi_offset %r12, -48
	.cfi_offset %r13, -40
	.cfi_offset %r14, -32
	.cfi_offset %r15, -24
	movq	%rdi, %rbx
Ltmp2344:
	.loc	18 924 29 prologue_end
	callq	__ZN14rustc_demangle2v07Printer30print_path_maybe_open_generics17h46b771d2cfddfb23E
	movb	$1, %r14b
	.loc	18 924 24 is_stmt 0
	cmpb	$2, %al
	je	LBB20_20
Ltmp2345:
	.loc	18 0 0
	movl	%eax, %r15d
	.loc	18 924 24
	andb	$1, %r15b
Ltmp2346:
	.loc	13 484 13 is_stmt 1
	cmpq	$0, (%rbx)
Ltmp2347:
	.loc	13 519 13
	je	LBB20_14
Ltmp2348:
	.loc	13 0 13 is_stmt 0
	leaq	-72(%rbp), %r13
	movb	$1, %r12b
Ltmp2349:
LBB20_3:
	.loc	18 280 33 is_stmt 1
	movq	16(%rbx), %rax
Ltmp2350:
	.loc	5 2851 12
	cmpq	%rax, 8(%rbx)
Ltmp2351:
	.loc	11 458 13
	jbe	LBB20_14
Ltmp2352:
	.loc	18 280 9
	movq	(%rbx), %rcx
Ltmp2353:
	.loc	7 1053 52
	cmpb	$112, (%rcx,%rax)
Ltmp2354:
	.loc	18 284 9
	jne	LBB20_14
Ltmp2355:
	.loc	18 285 13
	incq	%rax
	movq	%rax, 16(%rbx)
Ltmp2356:
	.loc	18 0 0 is_stmt 0
	movq	24(%rbx), %rdi
	testb	$1, %r15b
	.loc	18 927 13 is_stmt 1
	je	LBB20_7
Ltmp2357:
	.loc	18 931 22
	movl	$2, %edx
	leaq	l___unnamed_50(%rip), %rsi
	callq	__ZN4core3fmt9Formatter9write_str17h957ea9717e49073dE
	.loc	18 931 17 is_stmt 0
	testb	%al, %al
	je	LBB20_8
	jmp	LBB20_20
Ltmp2358:
	.p2align	4, 0x90
LBB20_7:
	.loc	18 928 22 is_stmt 1
	movl	$1, %edx
	leaq	l___unnamed_16(%rip), %rsi
	callq	__ZN4core3fmt9Formatter9write_str17h957ea9717e49073dE
	movb	$1, %r15b
Ltmp2359:
	.loc	18 928 17 is_stmt 0
	testb	%al, %al
	jne	LBB20_22
Ltmp2360:
LBB20_8:
	.loc	13 484 13 is_stmt 1
	cmpq	$0, (%rbx)
Ltmp2361:
	.loc	13 729 13
	je	LBB20_17
Ltmp2362:
	.loc	18 586 50
	movq	%r13, %rdi
	movq	%rbx, %rsi
	callq	__ZN14rustc_demangle2v06Parser5ident17he69b78eb80a16623E
Ltmp2363:
	.loc	18 934 24
	cmpq	$0, -72(%rbp)
	je	LBB20_18
Ltmp2364:
	movq	-48(%rbp), %rax
	movq	%rax, -80(%rbp)
	movq	-56(%rbp), %rax
	movq	%rax, -88(%rbp)
	movq	-72(%rbp), %rax
	movq	-64(%rbp), %rcx
	movq	%rcx, -96(%rbp)
	movq	%rax, -104(%rbp)
Ltmp2365:
	.loc	18 935 27
	movq	24(%rbx), %rsi
Ltmp2366:
	.loc	18 935 18 is_stmt 0
	leaq	-104(%rbp), %rdi
	callq	__ZN64_$LT$rustc_demangle..v0..Ident$u20$as$u20$core..fmt..Display$GT$3fmt17h5a86610f647ba7f1E
	.loc	18 935 13
	testb	%al, %al
	jne	LBB20_19
Ltmp2367:
	.loc	18 936 18 is_stmt 1
	movq	24(%rbx), %rdi
	movl	$3, %edx
	leaq	l___unnamed_96(%rip), %rsi
	callq	__ZN4core3fmt9Formatter9write_str17h957ea9717e49073dE
	.loc	18 936 13 is_stmt 0
	testb	%al, %al
	jne	LBB20_19
Ltmp2368:
	.loc	18 937 18 is_stmt 1
	movq	%rbx, %rdi
	callq	__ZN14rustc_demangle2v07Printer10print_type17h90a19d8e9fba1183E
	.loc	18 937 13 is_stmt 0
	testb	%al, %al
	jne	LBB20_19
Ltmp2369:
	.loc	13 484 13 is_stmt 1
	cmpq	$0, (%rbx)
Ltmp2370:
	.loc	13 519 13
	jne	LBB20_3
Ltmp2371:
LBB20_14:
	.loc	18 0 0 is_stmt 0
	testb	$1, %r15b
	.loc	18 940 9 is_stmt 1
	jne	LBB20_16
Ltmp2372:
	.loc	18 0 9 is_stmt 0
	xorl	%r14d, %r14d
	jmp	LBB20_20
Ltmp2373:
LBB20_16:
	.loc	18 941 18 is_stmt 1
	movq	24(%rbx), %rdi
	leaq	l___unnamed_18(%rip), %rsi
	movl	$1, %edx
	callq	__ZN4core3fmt9Formatter9write_str17h957ea9717e49073dE
	jmp	LBB20_21
Ltmp2374:
LBB20_17:
	.loc	13 730 23
	movq	$0, -72(%rbp)
Ltmp2375:
LBB20_18:
	.loc	18 934 24
	movq	$0, (%rbx)
	movq	24(%rbx), %rdi
	leaq	l___unnamed_48(%rip), %rsi
	movl	$1, %edx
	callq	__ZN4core3fmt9Formatter9write_str17h957ea9717e49073dE
	movl	%eax, %r12d
Ltmp2376:
LBB20_19:
	.loc	18 0 0 is_stmt 0
	movl	%r12d, %r14d
Ltmp2377:
LBB20_20:
	.loc	18 945 6 is_stmt 1
	movl	%r14d, %eax
Ltmp2378:
LBB20_21:
	.loc	18 0 0 is_stmt 0
	addq	$72, %rsp
	popq	%rbx
Ltmp2379:
	popq	%r12
	popq	%r13
	popq	%r14
	popq	%r15
	popq	%rbp
	retq
LBB20_22:
Ltmp2380:
	movb	$1, %r14b
	jmp	LBB20_20
Ltmp2381:
Lfunc_end20:
	.cfi_endproc

	.p2align	4, 0x90
__ZN14rustc_demangle2v07Printer11print_const17he5e3b0d9920321b0E:
Lfunc_begin21:
	.loc	18 947 0 is_stmt 1
	.cfi_startproc
	pushq	%rbp
	.cfi_def_cfa_offset 16
	.cfi_offset %rbp, -16
	movq	%rsp, %rbp
	.cfi_def_cfa_register %rbp
	pushq	%r15
	pushq	%r14
	pushq	%r13
	pushq	%r12
	pushq	%rbx
	subq	$88, %rsp
	.cfi_offset %rbx, -56
	.cfi_offset %r12, -48
	.cfi_offset %r13, -40
	.cfi_offset %r14, -32
	.cfi_offset %r15, -24
	movq	%rdi, %rbx
Ltmp2382:
	.loc	13 484 13 prologue_end
	movq	(%rdi), %r12
Ltmp2383:
	.loc	13 611 13
	movq	%rdi, %rax
Ltmp2384:
	.loc	13 484 13
	testq	%r12, %r12
Ltmp2385:
	.loc	13 611 13
	cmoveq	%r12, %rax
Ltmp2386:
	.loc	13 519 13
	je	LBB21_64
Ltmp2387:
	.loc	18 280 33
	movq	16(%rax), %rcx
Ltmp2388:
	.loc	5 2851 12
	cmpq	%rcx, 8(%rax)
Ltmp2389:
	.loc	11 458 13
	jbe	LBB21_3
Ltmp2390:
	.loc	18 280 9
	movq	(%rax), %rdx
Ltmp2391:
	.loc	7 1053 52
	cmpb	$66, (%rdx,%rcx)
Ltmp2392:
	.loc	18 284 9
	jne	LBB21_3
Ltmp2393:
	.loc	18 285 13
	incq	%rcx
	movq	%rcx, 16(%rax)
	leaq	-104(%rbp), %r14
Ltmp2394:
	.loc	18 949 20
	movq	%r14, %rdi
	movq	%rbx, %rsi
	callq	__ZN14rustc_demangle2v07Printer15backref_printer17h1a537c49d7e4e7bdE
Ltmp2395:
	movq	%r14, %rdi
	callq	__ZN14rustc_demangle2v07Printer11print_const17he5e3b0d9920321b0E
	movl	%eax, %r13d
	jmp	LBB21_62
Ltmp2396:
LBB21_3:
	.loc	18 280 9
	movq	8(%rbx), %rdi
Ltmp2397:
	.loc	18 280 33 is_stmt 0
	movq	16(%rbx), %rdx
Ltmp2398:
	.loc	5 2851 12 is_stmt 1
	movq	%rdi, %r9
	subq	%rdx, %r9
Ltmp2399:
	.loc	11 458 13
	jbe	LBB21_64
Ltmp2400:
	.loc	18 294 9
	leaq	1(%rdx), %r8
Ltmp2401:
	.loc	11 458 29
	movb	(%r12,%rdx), %al
Ltmp2402:
	.loc	18 294 9
	movq	%r8, 16(%rbx)
Ltmp2403:
	.loc	18 955 13
	addb	$-104, %al
Ltmp2404:
	cmpb	$17, %al
	ja	LBB21_64
Ltmp2405:
	.loc	18 0 13 is_stmt 0
	leaq	l___unnamed_79(%rip), %r14
	movl	$2, %r15d
	movzbl	%al, %eax
	leaq	LJTI21_0(%rip), %rcx
	movslq	(%rcx,%rax,4), %rax
	addq	%rcx, %rax
	jmpq	*%rax
Ltmp2406:
LBB21_10:
	leaq	l___unnamed_63(%rip), %r14
	movl	$5, %r15d
Ltmp2407:
LBB21_11:
	.loc	5 2851 12 is_stmt 1
	cmpq	%r8, %rdi
Ltmp2408:
	.loc	11 458 13
	jbe	LBB21_13
Ltmp2409:
LBB21_12:
	.loc	7 1053 52
	cmpb	$112, (%r12,%r8)
Ltmp2410:
	.loc	18 284 9
	jne	LBB21_13
Ltmp2411:
	.loc	18 285 13
	addq	$2, %rdx
	movq	%rdx, 16(%rbx)
Ltmp2412:
	.loc	18 964 18
	movq	24(%rbx), %rdi
	leaq	l___unnamed_49(%rip), %rsi
	jmp	LBB21_55
Ltmp2413:
LBB21_64:
	.loc	18 0 0 is_stmt 0
	movq	$0, (%rbx)
	movq	24(%rbx), %rdi
	leaq	l___unnamed_48(%rip), %rsi
	movl	$1, %edx
	addq	$88, %rsp
	popq	%rbx
Ltmp2414:
	popq	%r12
	popq	%r13
	popq	%r14
	popq	%r15
	popq	%rbp
	jmp	__ZN4core3fmt9Formatter9write_str17h957ea9717e49073dE
LBB21_7:
Ltmp2415:
	leaq	l___unnamed_80(%rip), %r14
	movl	$3, %r15d
Ltmp2416:
	.loc	5 2851 12 is_stmt 1
	cmpq	%r8, %rdi
Ltmp2417:
	.loc	11 458 13
	ja	LBB21_12
	jmp	LBB21_13
Ltmp2418:
LBB21_8:
	.loc	11 0 13 is_stmt 0
	leaq	l___unnamed_72(%rip), %r14
	movl	$3, %r15d
Ltmp2419:
	.loc	5 2851 12 is_stmt 1
	cmpq	%r8, %rdi
Ltmp2420:
	.loc	11 458 13
	ja	LBB21_12
	jmp	LBB21_13
Ltmp2421:
LBB21_9:
	.loc	11 0 13 is_stmt 0
	leaq	L___unnamed_69(%rip), %r14
	movl	$4, %r15d
Ltmp2422:
	.loc	5 2851 12 is_stmt 1
	cmpq	%r8, %rdi
Ltmp2423:
	.loc	11 458 13
	ja	LBB21_12
	jmp	LBB21_13
Ltmp2424:
LBB21_6:
	.loc	11 0 13 is_stmt 0
	leaq	l___unnamed_66(%rip), %r14
	movl	$3, %r15d
Ltmp2425:
	.loc	5 2851 12 is_stmt 1
	cmpq	%r8, %rdi
Ltmp2426:
	.loc	11 458 13
	ja	LBB21_12
Ltmp2427:
LBB21_13:
	.loc	11 458 13 is_stmt 0
	leaq	(%r12,%rdx), %r11
	xorl	%ecx, %ecx
Ltmp2428:
	.p2align	4, 0x90
LBB21_14:
	.loc	5 2851 12 is_stmt 1
	leaq	1(%rdx,%rcx), %rsi
	cmpq	%rsi, %rdi
Ltmp2429:
	.loc	11 458 13
	jbe	LBB21_30
Ltmp2430:
	.loc	6 158 9
	leaq	2(%rdx,%rcx), %rax
Ltmp2431:
	.loc	11 458 29
	movzbl	1(%r11,%rcx), %esi
Ltmp2432:
	.loc	18 294 9
	movq	%rax, 16(%rbx)
Ltmp2433:
	.loc	18 302 17
	leal	-48(%rsi), %eax
	incq	%rcx
	cmpb	$10, %al
	jb	LBB21_14
Ltmp2434:
	.loc	18 0 0 is_stmt 0
	leal	-97(%rsi), %eax
	.loc	18 302 17
	cmpb	$6, %al
	jb	LBB21_14
Ltmp2435:
	.loc	18 303 17 is_stmt 1
	cmpb	$95, %sil
	jne	LBB21_30
Ltmp2436:
	.loc	18 0 17 is_stmt 0
	movq	%r14, -48(%rbp)
Ltmp2437:
	leaq	(%rdx,%rcx), %rax
Ltmp2438:
	movq	%r12, -120(%rbp)
	movq	%rdi, -112(%rbp)
Ltmp2439:
	.loc	3 1919 18 is_stmt 1
	movq	%r8, -56(%rbp)
Ltmp2440:
	.loc	3 1919 25 is_stmt 0
	movq	%rax, -64(%rbp)
Ltmp2441:
	.loc	3 1883 16 is_stmt 1
	cmpq	%rdx, %rax
	jbe	LBB21_29
Ltmp2442:
	.loc	3 2303 26
	cmpq	%r8, %rdi
	.loc	3 2303 12 is_stmt 0
	je	LBB21_20
Ltmp2443:
	.loc	3 2307 13 is_stmt 1
	jbe	LBB21_29
Ltmp2444:
	.loc	3 2309 25
	cmpb	$-65, (%r12,%r8)
Ltmp2445:
	.loc	3 1883 16
	jle	LBB21_29
Ltmp2446:
LBB21_20:
	.loc	3 2303 26
	cmpq	%rcx, %r9
	.loc	3 2303 12 is_stmt 0
	je	LBB21_22
Ltmp2447:
	.loc	3 2309 25 is_stmt 1
	cmpb	$-65, (%r11,%rcx)
Ltmp2448:
	.loc	3 1883 16
	jle	LBB21_29
Ltmp2449:
LBB21_22:
	.loc	6 158 9
	addq	%r8, %r12
Ltmp2450:
	.loc	3 1921 9
	leaq	-1(%rcx), %r14
Ltmp2451:
	.loc	18 981 12
	cmpq	$16, %r14
	.loc	18 981 9 is_stmt 0
	jbe	LBB21_23
Ltmp2452:
	.loc	18 982 18 is_stmt 1
	movq	24(%rbx), %rdi
	leaq	l___unnamed_97(%rip), %rsi
	movl	$2, %edx
	callq	__ZN4core3fmt9Formatter9write_str17h957ea9717e49073dE
	movb	$1, %r13b
	.loc	18 982 13 is_stmt 0
	testb	%al, %al
	jne	LBB21_62
Ltmp2453:
	.loc	18 983 20 is_stmt 1
	movq	24(%rbx), %rdi
	movq	%r12, %rsi
	movq	%r14, %rdx
	callq	__ZN4core3fmt9Formatter9write_str17h957ea9717e49073dE
Ltmp2454:
	.loc	18 966 13
	testb	%al, %al
	movq	-48(%rbp), %r14
	je	LBB21_57
	jmp	LBB21_62
Ltmp2455:
LBB21_30:
	.loc	18 978 19
	movq	$0, (%rbx)
	movq	24(%rbx), %rdi
	leaq	l___unnamed_48(%rip), %rsi
Ltmp2456:
LBB21_55:
	.loc	18 0 0 is_stmt 0
	movl	$1, %edx
	callq	__ZN4core3fmt9Formatter9write_str17h957ea9717e49073dE
	movb	$1, %r13b
	testb	%al, %al
	jne	LBB21_62
Ltmp2457:
LBB21_57:
	.loc	18 969 13 is_stmt 1
	movq	24(%rbx), %rdi
	callq	__ZN4core3fmt9Formatter9alternate17hd5ca56d2d01a1343E
	.loc	18 969 9 is_stmt 0
	testb	%al, %al
	je	LBB21_59
Ltmp2458:
	.loc	18 0 9
	xorl	%r13d, %r13d
	jmp	LBB21_62
Ltmp2459:
LBB21_59:
	.loc	18 970 18 is_stmt 1
	movq	24(%rbx), %rdi
	leaq	l___unnamed_98(%rip), %rsi
	movl	$2, %edx
	callq	__ZN4core3fmt9Formatter9write_str17h957ea9717e49073dE
	movb	$1, %r13b
	.loc	18 970 13 is_stmt 0
	testb	%al, %al
	jne	LBB21_62
Ltmp2460:
	.loc	18 971 18 is_stmt 1
	movq	24(%rbx), %rdi
	movq	%r14, %rsi
	movq	%r15, %rdx
	callq	__ZN4core3fmt9Formatter9write_str17h957ea9717e49073dE
	jmp	LBB21_63
Ltmp2461:
LBB21_23:
	.loc	18 986 21
	movq	$0, -104(%rbp)
Ltmp2462:
	.loc	5 3179 9
	cmpq	$1, %rcx
	movq	-48(%rbp), %r14
	.loc	5 3303 21
	je	LBB21_53
Ltmp2463:
	.loc	18 0 0 is_stmt 0
	leaq	(%r11,%rcx), %r8
Ltmp2464:
	.loc	3 520 5 is_stmt 1
	negq	%r11
	xorl	%esi, %esi
Ltmp2465:
	.loc	3 519 13
	movzbl	(%r12), %edi
Ltmp2466:
	.loc	3 520 8
	testb	%dil, %dil
	jns	LBB21_26
	jmp	LBB21_33
Ltmp2467:
LBB21_51:
	.loc	12 0 0 is_stmt 0
	addl	%edx, %edi
Ltmp2468:
	movl	%edi, %edx
Ltmp2469:
	.loc	12 133 12 is_stmt 1
	cmpl	$16, %edi
Ltmp2470:
	.loc	11 387 13
	jae	LBB21_65
Ltmp2471:
LBB21_52:
	.loc	18 0 0 is_stmt 0
	leaq	(%r12,%r11), %rax
	shlq	$4, %rsi
Ltmp2472:
	.loc	18 988 28 is_stmt 1
	movl	%edx, %edx
	.loc	18 988 13 is_stmt 0
	orq	%rdx, %rsi
Ltmp2473:
	movq	%rsi, -104(%rbp)
Ltmp2474:
	.loc	5 3179 9 is_stmt 1
	cmpq	%rcx, %rax
	.loc	5 3303 21
	je	LBB21_53
Ltmp2475:
	.loc	3 519 13
	movzbl	(%r12), %edi
Ltmp2476:
	.loc	3 520 8
	testb	%dil, %dil
	.loc	3 520 5 is_stmt 0
	js	LBB21_33
Ltmp2477:
LBB21_26:
	.loc	3 0 5
	incq	%r12
Ltmp2478:
	leal	-48(%rdi), %edx
	cmpl	$10, %edx
	.loc	12 126 17 is_stmt 1
	jb	LBB21_52
	jmp	LBB21_49
Ltmp2479:
LBB21_33:
	.loc	3 0 0 is_stmt 0
	leaq	1(%r12,%r11), %rax
Ltmp2480:
	.loc	5 3179 9 is_stmt 1
	cmpq	%rcx, %rax
	.loc	5 3303 21
	je	LBB21_34
Ltmp2481:
	.loc	3 508 15
	movzbl	1(%r12), %edx
Ltmp2482:
	.loc	10 152 9
	addq	$2, %r12
Ltmp2483:
	.loc	3 507 5
	andl	$63, %edx
Ltmp2484:
	.loc	3 0 0 is_stmt 0
	movl	%edi, %r9d
	andl	$31, %r9d
Ltmp2485:
	.loc	3 530 8 is_stmt 1
	cmpb	$-33, %dil
	.loc	3 530 5 is_stmt 0
	jbe	LBB21_37
Ltmp2486:
LBB21_39:
	.loc	3 0 0
	leaq	(%r12,%r11), %rax
Ltmp2487:
	.loc	5 3179 9 is_stmt 1
	cmpq	%rcx, %rax
	.loc	5 3303 21
	je	LBB21_40
Ltmp2488:
	.loc	3 508 15
	movzbl	(%r12), %r10d
Ltmp2489:
	.loc	10 152 9
	incq	%r12
Ltmp2490:
	.loc	3 507 5
	andl	$63, %r10d
Ltmp2491:
	.loc	3 495 5
	shll	$6, %edx
	orl	%r10d, %edx
Ltmp2492:
	.loc	3 536 12
	cmpb	$-16, %dil
	.loc	3 536 9 is_stmt 0
	jb	LBB21_43
Ltmp2493:
LBB21_44:
	.loc	3 0 0
	leaq	(%r12,%r11), %rax
Ltmp2494:
	.loc	5 3179 9 is_stmt 1
	cmpq	%rcx, %rax
	.loc	5 3303 21
	je	LBB21_45
Ltmp2495:
	.loc	3 508 15
	movzbl	(%r12), %edi
Ltmp2496:
	.loc	10 152 9
	incq	%r12
Ltmp2497:
	.loc	3 507 5
	andl	$63, %edi
	jmp	LBB21_47
Ltmp2498:
LBB21_34:
	.loc	3 0 5 is_stmt 0
	xorl	%edx, %edx
	movq	%r8, %r12
Ltmp2499:
	movl	%edi, %r9d
	andl	$31, %r9d
Ltmp2500:
	.loc	3 530 8 is_stmt 1
	cmpb	$-33, %dil
	.loc	3 530 5 is_stmt 0
	ja	LBB21_39
Ltmp2501:
LBB21_37:
	.loc	3 0 5
	shll	$6, %r9d
Ltmp2502:
	jmp	LBB21_38
Ltmp2503:
LBB21_40:
	xorl	%r10d, %r10d
	movq	%r8, %r12
Ltmp2504:
	.loc	3 495 5 is_stmt 1
	shll	$6, %edx
	orl	%r10d, %edx
Ltmp2505:
	.loc	3 536 12
	cmpb	$-16, %dil
	.loc	3 536 9 is_stmt 0
	jae	LBB21_44
Ltmp2506:
LBB21_43:
	.loc	3 0 9
	shll	$12, %r9d
Ltmp2507:
LBB21_38:
	orl	%r9d, %edx
Ltmp2508:
	movl	%edx, %edi
Ltmp2509:
	leal	-48(%rdi), %edx
	cmpl	$10, %edx
	.loc	12 126 17 is_stmt 1
	jb	LBB21_52
	jmp	LBB21_49
Ltmp2510:
LBB21_45:
	.loc	12 0 17 is_stmt 0
	xorl	%edi, %edi
Ltmp2511:
LBB21_47:
	.loc	3 540 18 is_stmt 1
	andl	$7, %r9d
Ltmp2512:
	shll	$18, %r9d
Ltmp2513:
	.loc	3 495 5
	shll	$6, %edx
Ltmp2514:
	orl	%r9d, %edx
Ltmp2515:
	.loc	3 540 13
	orl	%edi, %edx
Ltmp2516:
	.loc	3 0 13 is_stmt 0
	movl	%edx, %edi
Ltmp2517:
	.loc	18 987 13 is_stmt 1
	cmpl	$1114112, %edx
Ltmp2518:
	je	LBB21_53
Ltmp2519:
	.p2align	4, 0x90
	.loc	12 0 0 is_stmt 0
	leal	-48(%rdi), %edx
	cmpl	$10, %edx
	.loc	12 126 17 is_stmt 1
	jb	LBB21_52
Ltmp2520:
LBB21_49:
	.loc	12 127 17
	leal	-97(%rdi), %eax
	movl	$-87, %edx
	cmpl	$26, %eax
	jb	LBB21_51
Ltmp2521:
	.loc	12 128 17
	leal	-65(%rdi), %eax
	movl	$-55, %edx
	cmpl	$25, %eax
	jbe	LBB21_51
Ltmp2522:
LBB21_65:
	.loc	16 10 9
	leaq	l___unnamed_27(%rip), %rdi
	leaq	l___unnamed_99(%rip), %rdx
	movl	$43, %esi
Ltmp2523:
	callq	__ZN4core9panicking5panic17h736ee47a631475c0E
Ltmp2524:
LBB21_53:
	.loc	18 990 15
	movq	24(%rbx), %rsi
Ltmp2525:
	.loc	18 0 15 is_stmt 0
	leaq	-104(%rbp), %rdi
	.loc	18 990 9
	callq	__ZN4core3fmt3num3imp52_$LT$impl$u20$core..fmt..Display$u20$for$u20$u64$GT$3fmt17hb00db9d5e1e54df6E
	movb	$1, %r13b
Ltmp2526:
	.loc	18 0 0
	testb	%al, %al
	je	LBB21_57
Ltmp2527:
LBB21_62:
	.loc	18 975 6 is_stmt 1
	movl	%r13d, %eax
Ltmp2528:
LBB21_63:
	.loc	18 0 0 is_stmt 0
	addq	$88, %rsp
	popq	%rbx
Ltmp2529:
	popq	%r12
	popq	%r13
	popq	%r14
	popq	%r15
	popq	%rbp
	retq
LBB21_29:
Ltmp2530:
	leaq	-120(%rbp), %rax
Ltmp2531:
	.loc	11 430 21 is_stmt 1
	movq	%rax, -104(%rbp)
	leaq	-56(%rbp), %rax
	movq	%rax, -96(%rbp)
	leaq	-64(%rbp), %rax
	movq	%rax, -88(%rbp)
	leaq	-104(%rbp), %rdi
	callq	__ZN4core3str6traits101_$LT$impl$u20$core..slice..SliceIndex$LT$str$GT$$u20$for$u20$core..ops..range..Range$LT$usize$GT$$GT$5index28_$u7b$$u7b$closure$u7d$$u7d$17hbac688ed4f6c5d3dE
Ltmp2532:
Lfunc_end21:
	.cfi_endproc
	.p2align	2, 0x90
	.data_region jt32
.set L21_0_set_11, LBB21_11-LJTI21_0
.set L21_0_set_64, LBB21_64-LJTI21_0
.set L21_0_set_10, LBB21_10-LJTI21_0
.set L21_0_set_7, LBB21_7-LJTI21_0
.set L21_0_set_9, LBB21_9-LJTI21_0
.set L21_0_set_6, LBB21_6-LJTI21_0
.set L21_0_set_8, LBB21_8-LJTI21_0
LJTI21_0:
	.long	L21_0_set_11
	.long	L21_0_set_64
	.long	L21_0_set_10
	.long	L21_0_set_64
	.long	L21_0_set_64
	.long	L21_0_set_7
	.long	L21_0_set_64
	.long	L21_0_set_9
	.long	L21_0_set_64
	.long	L21_0_set_64
	.long	L21_0_set_64
	.long	L21_0_set_64
	.long	L21_0_set_6
	.long	L21_0_set_64
	.long	L21_0_set_64
	.long	L21_0_set_64
	.long	L21_0_set_64
	.long	L21_0_set_8
	.end_data_region

	.globl	__ZN14rustc_demangle8demangle17h21235ea415117205E
	.p2align	4, 0x90
__ZN14rustc_demangle8demangle17h21235ea415117205E:
Lfunc_begin22:
	.file	22 "/Users/yingyuhang/.cargo/registry/src/github.com-1ecc6299db9ec823/rustc-demangle-0.1.16/src/lib.rs"
	.loc	22 65 0
	.cfi_startproc
	pushq	%rbp
	.cfi_def_cfa_offset 16
	.cfi_offset %rbp, -16
	movq	%rsp, %rbp
	.cfi_def_cfa_register %rbp
	pushq	%r15
	pushq	%r14
	pushq	%r13
	pushq	%r12
	pushq	%rbx
	subq	$216, %rsp
	.cfi_offset %rbx, -56
	.cfi_offset %r12, -48
	.cfi_offset %r13, -40
	.cfi_offset %r14, -32
	.cfi_offset %r15, -24
	movq	%rdx, %r12
Ltmp2533:
	movq	%rdi, %r15
Ltmp2534:
	.loc	4 830 9 prologue_end
	leaq	l___unnamed_100(%rip), %rcx
Ltmp2535:
	.loc	4 0 9 is_stmt 0
	leaq	-208(%rbp), %rdi
	.loc	4 830 9
	movl	$6, %r8d
	movq	%rsi, -56(%rbp)
Ltmp2536:
	callq	__ZN4core3str7pattern11StrSearcher3new17hf20175b25b057116E
Ltmp2537:
	.loc	4 977 13 is_stmt 1
	cmpq	$1, -176(%rbp)
	jne	LBB22_18
Ltmp2538:
	.loc	4 0 13 is_stmt 0
	movq	%r15, -240(%rbp)
Ltmp2539:
	.loc	4 985 31 is_stmt 1
	movq	-120(%rbp), %r10
Ltmp2540:
	.loc	4 0 0 is_stmt 0
	movq	-184(%rbp), %rax
Ltmp2541:
	leaq	-1(%rax), %rcx
	movq	%rcx, -104(%rbp)
	movq	-208(%rbp), %r13
Ltmp2542:
	movq	-200(%rbp), %r8
Ltmp2543:
	movq	-192(%rbp), %r9
Ltmp2544:
	movq	-136(%rbp), %r15
	leaq	-1(%rax,%r15), %rdi
Ltmp2545:
	.loc	4 985 31
	cmpq	$-1, %r10
Ltmp2546:
	.loc	4 988 17 is_stmt 1
	je	LBB22_44
Ltmp2547:
	.loc	4 0 0 is_stmt 0
	cmpq	%r8, %rdi
Ltmp2548:
	.loc	4 1271 17 is_stmt 1
	jae	LBB22_200
Ltmp2549:
	.loc	4 0 0 is_stmt 0
	movq	-144(%rbp), %r11
	movq	-168(%rbp), %r14
Ltmp2550:
	movq	-152(%rbp), %rcx
	movq	%rax, %rdx
	movq	%rcx, -224(%rbp)
	subq	%rcx, %rdx
	movq	%rdx, -216(%rbp)
	movq	%r14, %rcx
	negq	%rcx
	movq	%rcx, -232(%rbp)
Ltmp2551:
	.loc	4 1250 9 is_stmt 1
	movzbl	(%r13,%rdi), %ecx
	btq	%rcx, %r11
Ltmp2552:
	.loc	4 1283 13
	jb	LBB22_6
Ltmp2553:
	.p2align	4, 0x90
LBB22_4:
	.loc	4 1284 17
	addq	%rax, %r15
	xorl	%r10d, %r10d
	movq	-104(%rbp), %rcx
Ltmp2554:
	.loc	4 1270 48
	leaq	(%r15,%rcx), %rdi
Ltmp2555:
	.loc	5 2851 12
	cmpq	%r8, %rdi
Ltmp2556:
	.loc	4 1271 17
	jae	LBB22_17
Ltmp2557:
LBB22_5:
	.loc	4 1250 9
	movzbl	(%r13,%rdi), %ecx
	btq	%rcx, %r11
Ltmp2558:
	.loc	4 1283 13
	jae	LBB22_4
Ltmp2559:
LBB22_6:
	.loc	7 1017 9
	cmpq	%r10, %r14
	.loc	7 0 0 is_stmt 0
	movq	%r10, %rsi
	cmovaq	%r14, %rsi
Ltmp2560:
	.loc	4 1294 13 is_stmt 1
	leaq	(%r9,%rsi), %rdx
	leaq	(%r15,%rsi), %rdi
Ltmp2561:
	.p2align	4, 0x90
LBB22_7:
	.loc	7 1137 52
	cmpq	%rax, %rsi
Ltmp2562:
	.loc	9 211 9
	jae	LBB22_11
Ltmp2563:
	.loc	4 1295 33
	cmpq	%r8, %rdi
	jae	LBB22_237
Ltmp2564:
	.loc	19 3632 30
	incq	%rsi
Ltmp2565:
	.loc	4 1295 20
	movzbl	(%rdx), %ecx
	.loc	4 1295 17 is_stmt 0
	incq	%rdx
	leaq	1(%rdi), %rbx
	.loc	4 1295 20
	cmpb	(%r13,%rdi), %cl
Ltmp2566:
	.loc	4 0 0
	movq	%rbx, %rdi
Ltmp2567:
	.loc	4 1295 17
	je	LBB22_7
Ltmp2568:
	.loc	4 1297 21 is_stmt 1
	addq	-232(%rbp), %rbx
	xorl	%r10d, %r10d
Ltmp2569:
	.loc	4 1270 48
	movq	%rbx, %r15
	movq	-104(%rbp), %rcx
	leaq	(%r15,%rcx), %rdi
Ltmp2570:
	.loc	5 2851 12
	cmpq	%r8, %rdi
Ltmp2571:
	.loc	4 1271 17
	jb	LBB22_5
	jmp	LBB22_17
Ltmp2572:
	.p2align	4, 0x90
LBB22_11:
	.loc	4 0 0 is_stmt 0
	movq	%r14, %rdi
Ltmp2573:
	.p2align	4, 0x90
LBB22_12:
	.loc	7 1137 52 is_stmt 1
	cmpq	%rdi, %r10
Ltmp2574:
	.loc	9 282 9
	jae	LBB22_60
Ltmp2575:
	.file	23 "/rustc/a74d1862d4d87a56244958416fd05976c58ca1a8/src/libcore/ops/arith.rs"
	.loc	23 194 45
	decq	%rdi
Ltmp2576:
	.loc	4 1307 20
	cmpq	%rax, %rdi
	jae	LBB22_239
Ltmp2577:
	.loc	4 1307 42 is_stmt 0
	leaq	(%rdi,%r15), %rsi
Ltmp2578:
	.loc	4 1307 33
	cmpq	%r8, %rsi
	jae	LBB22_240
Ltmp2579:
	.loc	4 1307 20
	movzbl	(%r9,%rdi), %ecx
	cmpb	(%r13,%rsi), %cl
	.loc	4 1307 17
	je	LBB22_12
Ltmp2580:
	.loc	4 1308 21 is_stmt 1
	addq	-224(%rbp), %r15
	movq	-216(%rbp), %r10
	movq	-104(%rbp), %rcx
Ltmp2581:
	.loc	4 1270 48
	leaq	(%r15,%rcx), %rdi
Ltmp2582:
	.loc	5 2851 12
	cmpq	%r8, %rdi
Ltmp2583:
	.loc	4 1271 17
	jb	LBB22_5
Ltmp2584:
LBB22_17:
	.loc	4 1286 21
	movq	%r10, -120(%rbp)
	jmp	LBB22_199
Ltmp2585:
LBB22_18:
	.loc	4 933 32
	movb	-152(%rbp), %r9b
Ltmp2586:
	.loc	4 935 27
	movq	-168(%rbp), %rsi
Ltmp2587:
	.loc	4 936 23
	movq	-208(%rbp), %r10
Ltmp2588:
	movq	-200(%rbp), %rcx
Ltmp2589:
	.loc	6 0 0 is_stmt 0
	leaq	(%r10,%rcx), %r8
	jmp	LBB22_20
Ltmp2590:
	.p2align	4, 0x90
LBB22_19:
	.loc	4 940 25 is_stmt 1
	addq	%rax, %rsi
Ltmp2591:
LBB22_20:
	.loc	4 933 32
	movl	%r9d, %edx
Ltmp2592:
	testb	%r9b, %r9b
	sete	%r9b
Ltmp2593:
	.loc	4 0 32 is_stmt 0
	movq	%r10, -96(%rbp)
	movq	%rcx, -88(%rbp)
Ltmp2594:
	.loc	3 2051 18 is_stmt 1
	movq	%rsi, -248(%rbp)
	.loc	3 2051 25 is_stmt 0
	movq	%rcx, -48(%rbp)
Ltmp2595:
	.loc	3 2303 12 is_stmt 1
	testq	%rsi, %rsi
	je	LBB22_24
Ltmp2596:
	cmpq	%rsi, %rcx
	je	LBB22_24
Ltmp2597:
	.loc	3 2307 13
	jbe	LBB22_238
Ltmp2598:
	.loc	3 2309 25
	cmpb	$-65, (%r10,%rsi)
Ltmp2599:
	.loc	3 2021 13
	jle	LBB22_238
Ltmp2600:
LBB22_24:
	.loc	3 0 13 is_stmt 0
	movl	$1114112, %edi
Ltmp2601:
	.loc	3 2303 26 is_stmt 1
	cmpq	%rsi, %rcx
Ltmp2602:
	.loc	5 3303 21
	je	LBB22_39
Ltmp2603:
	.loc	4 0 0 is_stmt 0
	leaq	(%r10,%rsi), %rax
Ltmp2604:
	.loc	3 519 13 is_stmt 1
	movzbl	(%rax), %edi
Ltmp2605:
	.loc	3 520 8
	testb	%dil, %dil
	.loc	3 520 5 is_stmt 0
	jns	LBB22_39
Ltmp2606:
	.loc	3 0 0
	leaq	1(%rax), %rbx
Ltmp2607:
	.loc	5 3179 9 is_stmt 1
	cmpq	%r8, %rbx
	.loc	5 3303 21
	je	LBB22_32
Ltmp2608:
	.loc	3 508 15
	movzbl	1(%rax), %ebx
Ltmp2609:
	.loc	10 152 9
	addq	$2, %rax
Ltmp2610:
	.loc	3 507 5
	andl	$63, %ebx
Ltmp2611:
	.loc	3 0 0 is_stmt 0
	movl	%edi, %r11d
	andl	$31, %r11d
Ltmp2612:
	.loc	3 530 8 is_stmt 1
	cmpb	$-33, %dil
	.loc	3 530 5 is_stmt 0
	jbe	LBB22_33
Ltmp2613:
LBB22_28:
	.loc	5 3179 9 is_stmt 1
	cmpq	%r8, %rax
	.loc	5 3303 21
	je	LBB22_34
Ltmp2614:
	.loc	3 508 15
	movzbl	(%rax), %r14d
Ltmp2615:
	.loc	10 152 9
	incq	%rax
Ltmp2616:
	.loc	3 507 5
	andl	$63, %r14d
Ltmp2617:
	.loc	3 495 5
	shll	$6, %ebx
	orl	%r14d, %ebx
Ltmp2618:
	.loc	3 536 12
	cmpb	$-16, %dil
	.loc	3 536 9 is_stmt 0
	jb	LBB22_35
Ltmp2619:
LBB22_30:
	.loc	5 3179 9 is_stmt 1
	cmpq	%r8, %rax
	.loc	5 3303 21
	je	LBB22_36
Ltmp2620:
	.loc	3 508 15
	movzbl	(%rax), %eax
	.loc	3 507 5
	andl	$63, %eax
	jmp	LBB22_37
Ltmp2621:
LBB22_32:
	.loc	3 0 5 is_stmt 0
	xorl	%ebx, %ebx
	movq	%r8, %rax
	movl	%edi, %r11d
	andl	$31, %r11d
Ltmp2622:
	.loc	3 530 8 is_stmt 1
	cmpb	$-33, %dil
	.loc	3 530 5 is_stmt 0
	ja	LBB22_28
Ltmp2623:
LBB22_33:
	.loc	3 0 5
	shll	$6, %r11d
Ltmp2624:
	orl	%r11d, %ebx
Ltmp2625:
	jmp	LBB22_38
Ltmp2626:
LBB22_34:
	xorl	%r14d, %r14d
	movq	%r8, %rax
Ltmp2627:
	.loc	3 495 5 is_stmt 1
	shll	$6, %ebx
	orl	%r14d, %ebx
Ltmp2628:
	.loc	3 536 12
	cmpb	$-16, %dil
	.loc	3 536 9 is_stmt 0
	jae	LBB22_30
Ltmp2629:
LBB22_35:
	.loc	3 0 9
	shll	$12, %r11d
Ltmp2630:
	orl	%r11d, %ebx
Ltmp2631:
	jmp	LBB22_38
Ltmp2632:
LBB22_36:
	xorl	%eax, %eax
Ltmp2633:
LBB22_37:
	.loc	3 540 18 is_stmt 1
	andl	$7, %r11d
Ltmp2634:
	shll	$18, %r11d
Ltmp2635:
	.loc	3 495 5
	shll	$6, %ebx
Ltmp2636:
	orl	%r11d, %ebx
Ltmp2637:
	.loc	3 540 13
	orl	%eax, %ebx
Ltmp2638:
LBB22_38:
	.loc	3 0 13 is_stmt 0
	movl	%ebx, %edi
Ltmp2639:
	.p2align	4, 0x90
LBB22_39:
	.loc	4 933 32 is_stmt 1
	testb	%dl, %dl
Ltmp2640:
	.loc	4 937 26
	jne	LBB22_61
Ltmp2641:
	.loc	4 938 21
	cmpl	$1114112, %edi
	je	LBB22_201
Ltmp2642:
	.loc	4 0 21 is_stmt 0
	movl	$1, %eax
Ltmp2643:
	.loc	12 360 12 is_stmt 1
	cmpl	$128, %edi
	.loc	12 360 9 is_stmt 0
	jb	LBB22_19
Ltmp2644:
	.loc	12 0 9
	movl	$2, %eax
	.loc	12 362 19 is_stmt 1
	cmpl	$2048, %edi
	.loc	12 362 16 is_stmt 0
	jb	LBB22_19
Ltmp2645:
	.loc	12 364 19 is_stmt 1
	cmpl	$65536, %edi
	.loc	12 364 16 is_stmt 0
	movl	$4, %eax
	sbbq	$0, %rax
	jmp	LBB22_19
Ltmp2646:
LBB22_44:
	.loc	4 0 0
	cmpq	%r8, %rdi
Ltmp2647:
	.loc	4 1271 17 is_stmt 1
	jae	LBB22_200
Ltmp2648:
	.loc	4 0 0 is_stmt 0
	movq	-144(%rbp), %rcx
	movq	%rcx, -232(%rbp)
	movq	-168(%rbp), %rdx
Ltmp2649:
	movq	-152(%rbp), %rcx
	movq	%rcx, -216(%rbp)
	leaq	(%r9,%rdx), %rcx
	movq	%rcx, -224(%rbp)
	leaq	(%r13,%rdx), %r11
	jmp	LBB22_49
Ltmp2650:
LBB22_46:
	.loc	4 1284 17 is_stmt 1
	addq	%rax, %rsi
Ltmp2651:
LBB22_47:
	.loc	4 1270 48
	movq	%rsi, %r15
Ltmp2652:
LBB22_48:
	.loc	4 0 48 is_stmt 0
	movq	-104(%rbp), %rcx
	.loc	4 1270 48
	leaq	(%r15,%rcx), %rdi
Ltmp2653:
	.loc	5 2851 12 is_stmt 1
	cmpq	%r8, %rdi
Ltmp2654:
	.loc	4 1271 17
	jae	LBB22_199
Ltmp2655:
LBB22_49:
	.loc	4 0 17 is_stmt 0
	movq	%r15, %rsi
Ltmp2656:
	.loc	4 1250 9 is_stmt 1
	movzbl	(%r13,%rdi), %edi
	movq	-232(%rbp), %rcx
	btq	%rdi, %rcx
Ltmp2657:
	.loc	4 1283 13
	jae	LBB22_46
Ltmp2658:
	.loc	4 0 0 is_stmt 0
	xorl	%r14d, %r14d
	movq	%rsi, %r15
	movq	-224(%rbp), %r10
Ltmp2659:
	.p2align	4, 0x90
LBB22_51:
	leaq	(%rdx,%r14), %rdi
Ltmp2660:
	.loc	7 1137 52 is_stmt 1
	cmpq	%rax, %rdi
Ltmp2661:
	.loc	9 211 9
	jae	LBB22_54
Ltmp2662:
	.loc	4 1295 33
	leaq	(%rdx,%r15), %rdi
	cmpq	%r8, %rdi
	jae	LBB22_237
Ltmp2663:
	.loc	4 1295 20 is_stmt 0
	movzbl	(%r10), %ecx
	.loc	4 1295 17
	incq	%r10
	incq	%r14
	.loc	4 1295 20
	cmpb	(%r11,%r15), %cl
	.loc	4 1295 17
	leaq	1(%r15), %r15
	je	LBB22_51
	jmp	LBB22_48
Ltmp2664:
LBB22_54:
	.loc	4 0 0
	movq	%rdx, %rdi
	movq	-240(%rbp), %r15
Ltmp2665:
	.p2align	4, 0x90
LBB22_55:
	.loc	7 1137 52 is_stmt 1
	testq	%rdi, %rdi
Ltmp2666:
	.loc	9 282 9
	je	LBB22_179
Ltmp2667:
	.loc	23 194 45
	decq	%rdi
Ltmp2668:
	.loc	4 1307 20
	cmpq	%rax, %rdi
	jae	LBB22_239
Ltmp2669:
	.loc	4 1307 42 is_stmt 0
	leaq	(%rdi,%rsi), %rbx
	.loc	4 1307 33
	cmpq	%r8, %rbx
	jae	LBB22_241
Ltmp2670:
	.loc	4 1307 20
	movzbl	(%r9,%rdi), %ecx
	cmpb	(%r13,%rbx), %cl
	.loc	4 1307 17
	je	LBB22_55
Ltmp2671:
	.loc	4 1308 21 is_stmt 1
	addq	-216(%rbp), %rsi
	jmp	LBB22_47
Ltmp2672:
LBB22_60:
	.loc	4 1320 13
	addq	%r15, %rax
Ltmp2673:
	movq	%rax, -136(%rbp)
	.loc	4 1322 17
	movq	$0, -120(%rbp)
	movq	%r15, %rsi
Ltmp2674:
	.loc	4 0 17 is_stmt 0
	movq	-240(%rbp), %r15
Ltmp2675:
LBB22_61:
	.loc	22 71 28 is_stmt 1
	movq	%rsi, %rax
	addq	$6, %rax
	movq	-56(%rbp), %r9
	jb	LBB22_180
Ltmp2676:
LBB22_62:
	.loc	22 0 28 is_stmt 0
	movq	%r9, -80(%rbp)
	movq	%r12, -72(%rbp)
Ltmp2677:
	.loc	3 2051 18 is_stmt 1
	movq	%rax, -48(%rbp)
Ltmp2678:
	.loc	3 2051 25 is_stmt 0
	movq	%r12, -96(%rbp)
Ltmp2679:
	.loc	3 2303 12 is_stmt 1
	testq	%rax, %rax
	je	LBB22_66
Ltmp2680:
	cmpq	%r12, %rax
	je	LBB22_66
Ltmp2681:
	.loc	3 2307 13
	jae	LBB22_242
Ltmp2682:
	.loc	3 2309 25
	cmpb	$-65, (%r9,%rax)
Ltmp2683:
	.loc	3 2021 13
	jle	LBB22_242
Ltmp2684:
LBB22_66:
	.loc	3 2303 26
	cmpq	%r12, %rax
Ltmp2685:
	.loc	5 3303 21
	je	LBB22_89
Ltmp2686:
	.loc	22 0 0 is_stmt 0
	leaq	(%r9,%r12), %r8
Ltmp2687:
	.loc	6 158 9 is_stmt 1
	addq	%r9, %rax
Ltmp2688:
	.loc	10 152 9
	leaq	1(%rax), %rcx
Ltmp2689:
	.loc	3 519 13
	movzbl	(%rax), %edi
Ltmp2690:
	.loc	3 520 8
	testb	%dil, %dil
	.loc	3 520 5 is_stmt 0
	jns	LBB22_70
	jmp	LBB22_71
Ltmp2691:
	.p2align	4, 0x90
LBB22_68:
	.loc	5 3179 9 is_stmt 1
	cmpq	%r8, %rax
	.loc	5 3303 21
	je	LBB22_89
Ltmp2692:
	.loc	10 152 9
	leaq	1(%rax), %rcx
Ltmp2693:
	.loc	3 519 13
	movzbl	(%rax), %edi
Ltmp2694:
	.loc	3 520 8
	testb	%dil, %dil
	.loc	3 520 5 is_stmt 0
	js	LBB22_71
Ltmp2695:
LBB22_70:
	.loc	3 0 5
	movq	%rcx, %rax
Ltmp2696:
	.loc	22 74 17 is_stmt 1
	leal	-65(%rdi), %ecx
	cmpl	$6, %ecx
	jb	LBB22_68
Ltmp2697:
LBB22_85:
	.loc	22 74 45 is_stmt 0
	cmpl	$64, %edi
	.loc	22 74 31
	je	LBB22_68
Ltmp2698:
	addl	$-48, %edi
	cmpl	$9, %edi
	jbe	LBB22_68
	jmp	LBB22_87
Ltmp2699:
	.p2align	4, 0x90
LBB22_71:
	.loc	5 3179 9 is_stmt 1
	cmpq	%r8, %rcx
	.loc	5 3303 21
	je	LBB22_77
Ltmp2700:
	.loc	3 508 15
	movzbl	1(%rax), %edx
Ltmp2701:
	.loc	10 152 9
	addq	$2, %rax
Ltmp2702:
	.loc	3 507 5
	andl	$63, %edx
Ltmp2703:
	.loc	3 0 0 is_stmt 0
	movl	%edi, %ebx
	andl	$31, %ebx
Ltmp2704:
	.loc	3 530 8 is_stmt 1
	cmpb	$-33, %dil
	.loc	3 530 5 is_stmt 0
	jbe	LBB22_78
Ltmp2705:
LBB22_73:
	.loc	5 3179 9 is_stmt 1
	cmpq	%r8, %rax
	.loc	5 3303 21
	je	LBB22_79
Ltmp2706:
	.loc	3 508 15
	movzbl	(%rax), %ecx
Ltmp2707:
	.loc	10 152 9
	incq	%rax
Ltmp2708:
	.loc	3 507 5
	andl	$63, %ecx
Ltmp2709:
	.loc	3 495 5
	shll	$6, %edx
	orl	%ecx, %edx
Ltmp2710:
	.loc	3 536 12
	cmpb	$-16, %dil
	.loc	3 536 9 is_stmt 0
	jb	LBB22_80
Ltmp2711:
LBB22_75:
	.loc	5 3179 9 is_stmt 1
	cmpq	%r8, %rax
	.loc	5 3303 21
	je	LBB22_82
Ltmp2712:
	.loc	3 508 15
	movzbl	(%rax), %edi
Ltmp2713:
	.loc	10 152 9
	incq	%rax
Ltmp2714:
	.loc	3 507 5
	andl	$63, %edi
	jmp	LBB22_83
Ltmp2715:
LBB22_77:
	.loc	3 0 5 is_stmt 0
	xorl	%edx, %edx
	movq	%r8, %rax
	movl	%edi, %ebx
	andl	$31, %ebx
Ltmp2716:
	.loc	3 530 8 is_stmt 1
	cmpb	$-33, %dil
	.loc	3 530 5 is_stmt 0
	ja	LBB22_73
Ltmp2717:
LBB22_78:
	.loc	3 0 5
	shll	$6, %ebx
Ltmp2718:
	jmp	LBB22_81
Ltmp2719:
LBB22_79:
	xorl	%ecx, %ecx
	movq	%r8, %rax
Ltmp2720:
	.loc	3 495 5 is_stmt 1
	shll	$6, %edx
	orl	%ecx, %edx
Ltmp2721:
	.loc	3 536 12
	cmpb	$-16, %dil
	.loc	3 536 9 is_stmt 0
	jae	LBB22_75
Ltmp2722:
LBB22_80:
	.loc	3 0 9
	shll	$12, %ebx
Ltmp2723:
LBB22_81:
	orl	%ebx, %edx
Ltmp2724:
	movl	%edx, %edi
Ltmp2725:
	.loc	22 74 17 is_stmt 1
	leal	-65(%rdi), %ecx
	cmpl	$6, %ecx
	jb	LBB22_68
	jmp	LBB22_85
Ltmp2726:
LBB22_82:
	.loc	22 0 17 is_stmt 0
	xorl	%edi, %edi
Ltmp2727:
	movq	%r8, %rax
Ltmp2728:
LBB22_83:
	.loc	3 540 18 is_stmt 1
	andl	$7, %ebx
Ltmp2729:
	shll	$18, %ebx
Ltmp2730:
	.loc	3 495 5
	shll	$6, %edx
Ltmp2731:
	orl	%ebx, %edx
Ltmp2732:
	.loc	3 540 13
	orl	%edi, %edx
Ltmp2733:
	.loc	3 0 13 is_stmt 0
	movl	%edx, %edi
Ltmp2734:
	.loc	14 1877 19 is_stmt 1
	cmpl	$1114112, %edx
Ltmp2735:
	je	LBB22_89
Ltmp2736:
	.p2align	4, 0x90
	.loc	22 74 17
	leal	-65(%rdi), %ecx
	cmpl	$6, %ecx
	jb	LBB22_68
	jmp	LBB22_85
Ltmp2737:
LBB22_87:
	.loc	5 1430 9
	cmpq	$3, %r12
Ltmp2738:
	jae	LBB22_94
Ltmp2739:
LBB22_88:
	.loc	5 1430 9 is_stmt 0
	cmpq	$2, %r12
Ltmp2740:
	je	LBB22_96
	jmp	LBB22_170
Ltmp2741:
LBB22_89:
	.loc	5 0 9
	movq	%r9, -208(%rbp)
	movq	%r12, -200(%rbp)
Ltmp2742:
	.loc	3 2303 12 is_stmt 1
	testq	%rsi, %rsi
	je	LBB22_93
Ltmp2743:
	cmpq	%r12, %rsi
	je	LBB22_93
Ltmp2744:
	.loc	3 2307 13
	jae	LBB22_243
Ltmp2745:
	.loc	3 2309 25
	cmpb	$-65, (%r9,%rsi)
Ltmp2746:
	.loc	3 1958 13
	jle	LBB22_243
Ltmp2747:
LBB22_93:
	.loc	3 0 13 is_stmt 0
	movq	%rsi, %r12
Ltmp2748:
	.loc	5 1430 9 is_stmt 1
	cmpq	$3, %r12
Ltmp2749:
	jb	LBB22_88
Ltmp2750:
LBB22_94:
	.loc	5 5863 12
	leaq	l___unnamed_101(%rip), %rax
Ltmp2751:
	cmpq	%rax, %r9
	.loc	5 5863 9 is_stmt 0
	je	LBB22_103
Ltmp2752:
	.loc	5 5868 13 is_stmt 1
	movzwl	(%r9), %eax
Ltmp2753:
	xorl	$23135, %eax
	movzbl	2(%r9), %ecx
	xorl	$78, %ecx
	orw	%ax, %cx
Ltmp2754:
	.loc	5 1430 9
	je	LBB22_103
Ltmp2755:
LBB22_96:
	.loc	5 5863 12
	leaq	l___unnamed_102(%rip), %rax
Ltmp2756:
	cmpq	%rax, %r9
	.loc	5 5863 9 is_stmt 0
	je	LBB22_105
Ltmp2757:
	.loc	5 5868 13 is_stmt 1
	movzwl	(%r9), %eax
Ltmp2758:
	cmpl	$20058, %eax
Ltmp2759:
	.loc	5 1430 9
	je	LBB22_105
Ltmp2760:
	.loc	5 1430 9 is_stmt 0
	cmpq	$4, %r12
Ltmp2761:
	jb	LBB22_155
Ltmp2762:
	.loc	5 5863 12 is_stmt 1
	leaq	L___unnamed_103(%rip), %rax
Ltmp2763:
	cmpq	%rax, %r9
	.loc	5 5863 9 is_stmt 0
	je	LBB22_101
Ltmp2764:
	.loc	5 5868 13 is_stmt 1
	cmpl	$1314545503, (%r9)
Ltmp2765:
	.loc	5 1430 9
	jne	LBB22_156
Ltmp2766:
LBB22_101:
	.loc	5 0 9 is_stmt 0
	movq	%r9, -80(%rbp)
	movq	%r12, -72(%rbp)
Ltmp2767:
	.loc	3 2051 18 is_stmt 1
	movq	$4, -48(%rbp)
	.loc	3 2051 25 is_stmt 0
	movq	%r12, -96(%rbp)
	movq	$-4, %rbx
	movl	$4, %r13d
Ltmp2768:
	.loc	3 2303 26 is_stmt 1
	cmpq	$4, %r12
	.loc	3 2303 12 is_stmt 0
	je	LBB22_107
Ltmp2769:
	.loc	3 2309 25 is_stmt 1
	cmpb	$-65, 4(%r9)
	jg	LBB22_107
	jmp	LBB22_242
Ltmp2770:
LBB22_103:
	.loc	3 0 25 is_stmt 0
	movq	%r9, -80(%rbp)
	movq	%r12, -72(%rbp)
Ltmp2771:
	.loc	3 2051 18 is_stmt 1
	movq	$3, -48(%rbp)
	.loc	3 2051 25 is_stmt 0
	movq	%r12, -96(%rbp)
	movq	$-3, %rbx
	movl	$3, %r13d
Ltmp2772:
	.loc	3 2303 26 is_stmt 1
	cmpq	$3, %r12
	.loc	3 2303 12 is_stmt 0
	je	LBB22_107
Ltmp2773:
	.loc	3 2309 25 is_stmt 1
	cmpb	$-65, 3(%r9)
Ltmp2774:
	.loc	3 2021 13
	jg	LBB22_107
	jmp	LBB22_242
Ltmp2775:
LBB22_105:
	.loc	3 0 13 is_stmt 0
	movq	%r9, -80(%rbp)
	movq	%r12, -72(%rbp)
Ltmp2776:
	.loc	3 2051 18 is_stmt 1
	movq	$2, -48(%rbp)
	.loc	3 2051 25 is_stmt 0
	movq	%r12, -96(%rbp)
	movq	$-2, %rbx
	movl	$2, %r13d
Ltmp2777:
	.loc	3 2303 26 is_stmt 1
	cmpq	$2, %r12
	.loc	3 2303 12 is_stmt 0
	je	LBB22_107
Ltmp2778:
	.loc	3 2309 25 is_stmt 1
	cmpb	$-65, 2(%r9)
Ltmp2779:
	.loc	3 2021 13
	jle	LBB22_242
Ltmp2780:
LBB22_107:
	.loc	8 0 0 is_stmt 0
	addq	%r9, %r13
Ltmp2781:
	addq	%r12, %rbx
Ltmp2782:
	.loc	6 158 9 is_stmt 1
	leaq	(%r13,%rbx), %r10
	xorl	%eax, %eax
Ltmp2783:
	.p2align	4, 0x90
LBB22_108:
	.loc	5 3179 9
	cmpq	%rax, %rbx
	.loc	5 3303 21
	je	LBB22_110
Ltmp2784:
	.loc	8 67 30
	cmpb	$0, (%r13,%rax)
Ltmp2785:
	.loc	14 1878 32
	leaq	1(%rax), %rax
	jns	LBB22_108
	jmp	LBB22_155
Ltmp2786:
LBB22_110:
	.loc	5 3179 9
	testq	%rbx, %rbx
	.loc	5 3303 21
	je	LBB22_155
Ltmp2787:
	.loc	10 152 9
	leaq	1(%r13), %r11
Ltmp2788:
	.loc	3 519 13
	movzbl	(%r13), %r14d
Ltmp2789:
	.loc	3 520 8
	testb	%r14b, %r14b
	.loc	3 520 5 is_stmt 0
	js	LBB22_181
Ltmp2790:
	.loc	8 73 17 is_stmt 1
	cmpl	$69, %r14d
	je	LBB22_208
Ltmp2791:
LBB22_113:
	cmpl	$1114112, %r14d
	je	LBB22_155
Ltmp2792:
	.loc	8 0 17 is_stmt 0
	xorl	%r8d, %r8d
Ltmp2793:
LBB22_115:
	movl	%r14d, %edi
	addl	$-48, %edi
	cmpl	$9, %edi
	.loc	12 121 17 is_stmt 1
	ja	LBB22_155
Ltmp2794:
	.loc	12 0 17 is_stmt 0
	xorl	%eax, %eax
	movq	%rax, %rcx
Ltmp2795:
	.loc	19 3688 26 is_stmt 1
	movl	$10, %edx
	mulq	%rdx
Ltmp2796:
	.loc	19 0 26 is_stmt 0
	jno	LBB22_120
	jmp	LBB22_155
Ltmp2797:
	.p2align	4, 0x90
LBB22_117:
	movq	%rdx, %r11
Ltmp2798:
LBB22_118:
	leal	-48(%r14), %edi
	cmpl	$10, %edi
	.loc	12 121 17 is_stmt 1
	jae	LBB22_135
Ltmp2799:
LBB22_119:
	.loc	12 0 17 is_stmt 0
	movq	%rax, %rcx
Ltmp2800:
	.loc	19 3688 26 is_stmt 1
	movl	$10, %edx
	mulq	%rdx
Ltmp2801:
	.loc	11 672 13
	jo	LBB22_155
Ltmp2802:
LBB22_120:
	.loc	8 82 49
	movl	%edi, %esi
Ltmp2803:
	.loc	19 3632 30
	addq	%rsi, %rax
Ltmp2804:
	.loc	8 81 19
	jb	LBB22_155
Ltmp2805:
	.loc	5 3179 9
	cmpq	%r10, %r11
	.loc	5 3303 21
	je	LBB22_155
Ltmp2806:
	.loc	10 152 9
	leaq	1(%r11), %rdx
Ltmp2807:
	.loc	3 519 13
	movzbl	(%r11), %r14d
Ltmp2808:
	.loc	3 520 8
	testb	%r14b, %r14b
	.loc	3 520 5 is_stmt 0
	jns	LBB22_117
Ltmp2809:
	.loc	5 3179 9 is_stmt 1
	cmpq	%r10, %rdx
	.loc	5 3303 21
	je	LBB22_129
Ltmp2810:
	.loc	3 508 15
	movzbl	1(%r11), %edi
Ltmp2811:
	.loc	10 152 9
	addq	$2, %r11
Ltmp2812:
	.loc	3 507 5
	andl	$63, %edi
Ltmp2813:
	.loc	3 0 0 is_stmt 0
	movl	%r14d, %edx
	andl	$31, %edx
Ltmp2814:
	.loc	3 530 8 is_stmt 1
	cmpb	$-33, %r14b
	.loc	3 530 5 is_stmt 0
	jbe	LBB22_130
Ltmp2815:
LBB22_125:
	.loc	5 3179 9 is_stmt 1
	cmpq	%r10, %r11
	.loc	5 3303 21
	je	LBB22_131
Ltmp2816:
	.loc	3 508 15
	movzbl	(%r11), %r9d
Ltmp2817:
	.loc	10 152 9
	incq	%r11
Ltmp2818:
	.loc	3 507 5
	andl	$63, %r9d
Ltmp2819:
	.loc	3 495 5
	shll	$6, %edi
	orl	%r9d, %edi
Ltmp2820:
	.loc	3 536 12
	cmpb	$-16, %r14b
	.loc	3 536 9 is_stmt 0
	jb	LBB22_132
Ltmp2821:
LBB22_127:
	.loc	5 3179 9 is_stmt 1
	cmpq	%r10, %r11
	.loc	5 3303 21
	je	LBB22_133
Ltmp2822:
	.loc	3 508 15
	movzbl	(%r11), %r14d
Ltmp2823:
	.loc	10 152 9
	incq	%r11
Ltmp2824:
	.loc	3 507 5
	andl	$63, %r14d
	jmp	LBB22_134
Ltmp2825:
LBB22_129:
	.loc	3 0 5 is_stmt 0
	xorl	%edi, %edi
Ltmp2826:
	movq	%r10, %r11
Ltmp2827:
	movl	%r14d, %edx
	andl	$31, %edx
Ltmp2828:
	.loc	3 530 8 is_stmt 1
	cmpb	$-33, %r14b
	.loc	3 530 5 is_stmt 0
	ja	LBB22_125
Ltmp2829:
LBB22_130:
	.loc	3 0 5
	shll	$6, %edx
Ltmp2830:
	orl	%edx, %edi
Ltmp2831:
	movl	%edi, %r14d
Ltmp2832:
	leal	-48(%r14), %edi
	cmpl	$10, %edi
	.loc	12 121 17 is_stmt 1
	jb	LBB22_119
	jmp	LBB22_135
Ltmp2833:
LBB22_131:
	.loc	12 0 17 is_stmt 0
	xorl	%r9d, %r9d
Ltmp2834:
	movq	%r10, %r11
Ltmp2835:
	.loc	3 495 5 is_stmt 1
	shll	$6, %edi
	orl	%r9d, %edi
Ltmp2836:
	.loc	3 536 12
	cmpb	$-16, %r14b
	.loc	3 536 9 is_stmt 0
	jae	LBB22_127
Ltmp2837:
LBB22_132:
	.loc	3 0 9
	shll	$12, %edx
Ltmp2838:
	orl	%edx, %edi
Ltmp2839:
	movl	%edi, %r14d
Ltmp2840:
	movq	-56(%rbp), %r9
Ltmp2841:
	leal	-48(%r14), %edi
	cmpl	$10, %edi
	jb	LBB22_119
	jmp	LBB22_135
Ltmp2842:
LBB22_133:
	xorl	%r14d, %r14d
Ltmp2843:
LBB22_134:
	movq	-56(%rbp), %r9
Ltmp2844:
	.loc	3 540 18 is_stmt 1
	andl	$7, %edx
Ltmp2845:
	shll	$18, %edx
Ltmp2846:
	.loc	3 495 5
	shll	$6, %edi
Ltmp2847:
	orl	%edx, %edi
Ltmp2848:
	.loc	3 540 13
	orl	%r14d, %edi
Ltmp2849:
	.loc	3 0 13 is_stmt 0
	movl	%edi, %r14d
Ltmp2850:
	.loc	8 84 17 is_stmt 1
	cmpl	$1114112, %edi
Ltmp2851:
	.loc	8 0 17 is_stmt 0
	jne	LBB22_118
	jmp	LBB22_155
Ltmp2852:
LBB22_135:
	.loc	7 1137 52 is_stmt 1
	testq	%rax, %rax
Ltmp2853:
	.loc	9 211 9
	je	LBB22_153
Ltmp2854:
	.loc	5 3303 21
	leaq	(%rcx,%rcx,4), %rax
Ltmp2855:
	leaq	(%rsi,%rax,2), %rax
	movq	%r11, %rdx
Ltmp2856:
	.loc	5 3179 9
	cmpq	%r10, %rdx
	jne	LBB22_141
	jmp	LBB22_155
Ltmp2857:
LBB22_137:
	.loc	5 0 9 is_stmt 0
	shll	$6, %edx
Ltmp2858:
LBB22_138:
	orl	%edx, %ecx
Ltmp2859:
	movl	%ecx, %r14d
Ltmp2860:
LBB22_139:
	movq	%r11, %rdx
Ltmp2861:
	.loc	7 1137 52 is_stmt 1
	decq	%rax
Ltmp2862:
	.loc	9 211 9
	je	LBB22_153
Ltmp2863:
	.loc	5 3179 9
	cmpq	%r10, %rdx
	.loc	5 3303 21
	je	LBB22_155
Ltmp2864:
LBB22_141:
	.loc	10 152 9
	leaq	1(%rdx), %r11
Ltmp2865:
	.loc	3 519 13
	movzbl	(%rdx), %r14d
Ltmp2866:
	.loc	3 520 8
	testb	%r14b, %r14b
	.loc	3 520 5 is_stmt 0
	jns	LBB22_139
Ltmp2867:
	.loc	5 3179 9 is_stmt 1
	cmpq	%r10, %r11
	.loc	5 3303 21
	je	LBB22_144
Ltmp2868:
	.loc	3 508 15
	movzbl	1(%rdx), %ecx
Ltmp2869:
	.loc	10 152 9
	addq	$2, %rdx
Ltmp2870:
	.loc	3 507 5
	andl	$63, %ecx
Ltmp2871:
	.loc	3 0 0 is_stmt 0
	movq	%rdx, %r11
Ltmp2872:
	movl	%r14d, %edx
	andl	$31, %edx
Ltmp2873:
	.loc	3 530 8 is_stmt 1
	cmpb	$-33, %r14b
	.loc	3 530 5 is_stmt 0
	jbe	LBB22_137
	jmp	LBB22_145
Ltmp2874:
LBB22_144:
	.loc	3 0 5
	xorl	%ecx, %ecx
	movq	%r10, %r11
Ltmp2875:
	movl	%r14d, %edx
	andl	$31, %edx
Ltmp2876:
	.loc	3 530 8
	cmpb	$-33, %r14b
	.loc	3 530 5
	jbe	LBB22_137
Ltmp2877:
LBB22_145:
	.loc	5 3179 9 is_stmt 1
	cmpq	%r10, %r11
	.loc	5 3303 21
	je	LBB22_147
Ltmp2878:
	.loc	3 508 15
	movzbl	(%r11), %esi
Ltmp2879:
	.loc	10 152 9
	incq	%r11
Ltmp2880:
	.loc	3 507 5
	andl	$63, %esi
Ltmp2881:
	.loc	3 495 5
	shll	$6, %ecx
	orl	%esi, %ecx
Ltmp2882:
	.loc	3 536 12
	cmpb	$-16, %r14b
	.loc	3 536 9 is_stmt 0
	jb	LBB22_150
Ltmp2883:
LBB22_148:
	.loc	5 3179 9 is_stmt 1
	cmpq	%r10, %r11
	.loc	5 3303 21
	je	LBB22_151
Ltmp2884:
	.loc	3 508 15
	movzbl	(%r11), %esi
Ltmp2885:
	.loc	10 152 9
	incq	%r11
Ltmp2886:
	.loc	3 507 5
	andl	$63, %esi
	jmp	LBB22_152
Ltmp2887:
LBB22_147:
	.loc	3 0 5 is_stmt 0
	xorl	%esi, %esi
	movq	%r10, %r11
Ltmp2888:
	.loc	3 495 5 is_stmt 1
	shll	$6, %ecx
	orl	%esi, %ecx
Ltmp2889:
	.loc	3 536 12
	cmpb	$-16, %r14b
	.loc	3 536 9 is_stmt 0
	jae	LBB22_148
Ltmp2890:
LBB22_150:
	.loc	3 0 9
	shll	$12, %edx
Ltmp2891:
	jmp	LBB22_138
Ltmp2892:
LBB22_151:
	xorl	%esi, %esi
Ltmp2893:
LBB22_152:
	.loc	3 540 18 is_stmt 1
	andl	$7, %edx
Ltmp2894:
	shll	$18, %edx
Ltmp2895:
	.loc	3 495 5
	shll	$6, %ecx
Ltmp2896:
	orl	%edx, %ecx
Ltmp2897:
	.loc	3 540 13
	orl	%esi, %ecx
Ltmp2898:
	.loc	3 0 13 is_stmt 0
	movl	%ecx, %r14d
Ltmp2899:
	.loc	8 90 17 is_stmt 1
	cmpl	$1114112, %ecx
Ltmp2900:
	.loc	8 0 17 is_stmt 0
	jne	LBB22_139
	jmp	LBB22_155
Ltmp2901:
LBB22_153:
	.loc	8 93 9 is_stmt 1
	incq	%r8
Ltmp2902:
	je	LBB22_244
Ltmp2903:
	.loc	8 74 11
	cmpl	$69, %r14d
	.loc	8 74 5 is_stmt 0
	jne	LBB22_115
	jmp	LBB22_209
Ltmp2904:
LBB22_155:
	.loc	18 20 8 is_stmt 1
	cmpq	$3, %r12
	jb	LBB22_160
Ltmp2905:
LBB22_156:
	.loc	5 5863 12
	leaq	l___unnamed_104(%rip), %rax
Ltmp2906:
	cmpq	%rax, %r9
	.loc	5 5863 9 is_stmt 0
	je	LBB22_158
Ltmp2907:
	.loc	5 5868 13 is_stmt 1
	movzwl	(%r9), %eax
Ltmp2908:
	cmpl	$21087, %eax
Ltmp2909:
	.loc	5 1430 9
	jne	LBB22_161
Ltmp2910:
LBB22_158:
	.loc	5 0 9 is_stmt 0
	movq	%r9, -80(%rbp)
	movq	%r12, -72(%rbp)
Ltmp2911:
	.loc	3 2051 18 is_stmt 1
	movq	$2, -48(%rbp)
	.loc	3 2051 25 is_stmt 0
	movq	%r12, -96(%rbp)
Ltmp2912:
	.loc	3 2309 19 is_stmt 1
	movb	2(%r9), %al
Ltmp2913:
	.loc	3 2309 25 is_stmt 0
	cmpb	$-65, %al
Ltmp2914:
	.loc	3 2021 13 is_stmt 1
	jle	LBB22_242
Ltmp2915:
	.loc	3 0 13 is_stmt 0
	leaq	2(%r9), %r13
	movq	$-2, %rbx
	jmp	LBB22_165
Ltmp2916:
LBB22_160:
	.loc	18 22 15 is_stmt 1
	cmpq	$2, %r12
	jne	LBB22_170
Ltmp2917:
LBB22_161:
	.loc	5 5863 12
	leaq	l___unnamed_105(%rip), %rax
Ltmp2918:
	cmpq	%rax, %r9
	.loc	5 5863 9 is_stmt 0
	je	LBB22_163
Ltmp2919:
	.loc	5 5868 13 is_stmt 1
	cmpb	$82, (%r9)
Ltmp2920:
	.loc	5 1430 9
	jne	LBB22_173
Ltmp2921:
LBB22_163:
	.loc	5 0 9 is_stmt 0
	movq	%r9, -80(%rbp)
	movq	%r12, -72(%rbp)
Ltmp2922:
	.loc	3 2051 18 is_stmt 1
	movq	$1, -48(%rbp)
	.loc	3 2051 25 is_stmt 0
	movq	%r12, -96(%rbp)
Ltmp2923:
	.loc	3 2309 19 is_stmt 1
	movb	1(%r9), %al
Ltmp2924:
	.loc	3 2309 25 is_stmt 0
	cmpb	$-65, %al
Ltmp2925:
	.loc	3 2021 13 is_stmt 1
	jle	LBB22_242
Ltmp2926:
	.loc	3 0 13 is_stmt 0
	leaq	1(%r9), %r13
	movq	$-1, %rbx
Ltmp2927:
LBB22_165:
	.loc	18 35 9 is_stmt 1
	addb	$-65, %al
	leaq	l___unnamed_44(%rip), %r14
	movl	$2, %edx
	cmpb	$25, %al
	ja	LBB22_176
Ltmp2928:
	.loc	18 0 9 is_stmt 0
	addq	%r12, %rbx
Ltmp2929:
	xorl	%r10d, %r10d
Ltmp2930:
	.loc	5 3179 9 is_stmt 1
	xorl	%eax, %eax
Ltmp2931:
	.p2align	4, 0x90
LBB22_167:
	cmpq	%rax, %rbx
	.loc	5 3303 21
	je	LBB22_171
Ltmp2932:
	.loc	18 40 30
	cmpb	$0, (%r13,%rax)
Ltmp2933:
	.loc	14 1878 32
	leaq	1(%rax), %rax
	jns	LBB22_167
	jmp	LBB22_177
Ltmp2934:
LBB22_170:
	.loc	14 0 32 is_stmt 0
	leaq	l___unnamed_44(%rip), %r14
	movl	$2, %edx
Ltmp2935:
LBB22_176:
	xorl	%r10d, %r10d
Ltmp2936:
LBB22_177:
LBB22_178:
	.loc	22 111 5 is_stmt 1
	movq	%rdx, (%r15)
	movq	%r13, 8(%r15)
	movq	%rbx, 16(%r15)
	movq	%r8, 24(%r15)
	movq	%r9, 32(%r15)
	movq	%r12, 40(%r15)
	movq	%r14, 48(%r15)
	movq	%r10, 56(%r15)
Ltmp2937:
	.loc	22 116 2
	movq	%r15, %rax
	addq	$216, %rsp
	popq	%rbx
	popq	%r12
Ltmp2938:
	popq	%r13
	popq	%r14
Ltmp2939:
	popq	%r15
	popq	%rbp
	retq
Ltmp2940:
LBB22_171:
	.loc	18 45 22
	movq	%r13, -80(%rbp)
	movq	%rbx, -72(%rbp)
	movq	$0, -64(%rbp)
Ltmp2941:
	.loc	18 0 22 is_stmt 0
	leaq	-80(%rbp), %rdi
Ltmp2942:
	.loc	18 49 10 is_stmt 1
	callq	__ZN14rustc_demangle2v06Parser9skip_path17h60e1134618bf98cfE
	.loc	18 49 5 is_stmt 0
	testb	%al, %al
	je	LBB22_188
Ltmp2943:
LBB22_172:
	.loc	18 0 5
	xorl	%r10d, %r10d
Ltmp2944:
	movq	-56(%rbp), %r9
	movl	$2, %edx
	jmp	LBB22_178
Ltmp2945:
LBB22_173:
	leaq	l___unnamed_44(%rip), %r14
	movl	$2, %edx
	.loc	18 26 15 is_stmt 1
	cmpq	$3, %r12
	jbe	LBB22_176
Ltmp2946:
	.loc	5 5863 12
	leaq	l___unnamed_106(%rip), %rax
Ltmp2947:
	cmpq	%rax, %r9
	.loc	5 5863 9 is_stmt 0
	je	LBB22_202
Ltmp2948:
	.loc	5 5868 13 is_stmt 1
	movzwl	(%r9), %eax
Ltmp2949:
	xorl	$24415, %eax
	movzbl	2(%r9), %ecx
	xorl	$82, %ecx
	orw	%ax, %cx
Ltmp2950:
	.loc	5 1430 9
	jne	LBB22_176
Ltmp2951:
LBB22_202:
	.loc	5 0 9 is_stmt 0
	movq	%r9, -80(%rbp)
	movq	%r12, -72(%rbp)
Ltmp2952:
	.loc	3 2051 18 is_stmt 1
	movq	$3, -48(%rbp)
	.loc	3 2051 25 is_stmt 0
	movq	%r12, -96(%rbp)
Ltmp2953:
	.loc	3 2309 19 is_stmt 1
	movb	3(%r9), %al
Ltmp2954:
	.loc	3 2309 25 is_stmt 0
	cmpb	$-65, %al
Ltmp2955:
	.loc	3 2021 13 is_stmt 1
	jle	LBB22_242
Ltmp2956:
	.loc	3 0 13 is_stmt 0
	leaq	3(%r9), %r13
	movq	$-3, %rbx
	jmp	LBB22_165
Ltmp2957:
LBB22_179:
	.loc	4 1320 13 is_stmt 1
	addq	%rsi, %rax
Ltmp2958:
	movq	%rax, -136(%rbp)
Ltmp2959:
	.loc	22 71 28
	movq	%rsi, %rax
	addq	$6, %rax
	movq	-56(%rbp), %r9
Ltmp2960:
	jae	LBB22_62
Ltmp2961:
LBB22_180:
	leaq	_str.1(%rip), %rdi
	leaq	l___unnamed_107(%rip), %rdx
	movl	$28, %esi
	callq	__ZN4core9panicking5panic17h736ee47a631475c0E
Ltmp2962:
LBB22_181:
	.loc	22 0 28 is_stmt 0
	xorl	%eax, %eax
Ltmp2963:
	movq	%r10, %rdx
Ltmp2964:
	.loc	5 3179 9 is_stmt 1
	cmpq	$1, %rbx
	.loc	5 3303 21
	je	LBB22_183
Ltmp2965:
	.loc	10 152 9
	movq	%r13, %r11
	addq	$2, %r11
Ltmp2966:
	.loc	3 508 15
	movzbl	1(%r13), %eax
	.loc	3 507 5
	andl	$63, %eax
	movq	%r11, %rdx
Ltmp2967:
LBB22_183:
	.loc	3 0 0 is_stmt 0
	movl	%r14d, %ecx
	andl	$31, %ecx
Ltmp2968:
	.loc	3 530 8 is_stmt 1
	cmpb	$-33, %r14b
	.loc	3 530 5 is_stmt 0
	jbe	LBB22_198
Ltmp2969:
	.loc	5 3179 9 is_stmt 1
	cmpq	%r10, %rdx
	.loc	5 3303 21
	je	LBB22_204
Ltmp2970:
	.loc	3 508 15
	movzbl	(%rdx), %esi
Ltmp2971:
	.loc	10 152 9
	incq	%rdx
Ltmp2972:
	.loc	3 507 5
	andl	$63, %esi
Ltmp2973:
	.loc	3 0 0 is_stmt 0
	movq	%rdx, %r11
Ltmp2974:
	.loc	3 495 5 is_stmt 1
	shll	$6, %eax
	orl	%esi, %eax
Ltmp2975:
	.loc	3 536 12
	cmpb	$-16, %r14b
	.loc	3 536 9 is_stmt 0
	jb	LBB22_205
Ltmp2976:
LBB22_186:
	.loc	5 3179 9 is_stmt 1
	cmpq	%r10, %rdx
	.loc	5 3303 21
	je	LBB22_206
Ltmp2977:
	.loc	3 508 15
	movzbl	(%rdx), %esi
Ltmp2978:
	.loc	10 152 9
	incq	%rdx
Ltmp2979:
	.loc	3 507 5
	andl	$63, %esi
Ltmp2980:
	.loc	3 0 0 is_stmt 0
	movq	%rdx, %r11
	jmp	LBB22_207
Ltmp2981:
LBB22_188:
	.loc	18 52 11 is_stmt 1
	movq	-72(%rbp), %r10
Ltmp2982:
	.loc	18 52 37 is_stmt 0
	movq	-64(%rbp), %rax
Ltmp2983:
	.loc	5 2851 12 is_stmt 1
	cmpq	%rax, %r10
Ltmp2984:
	.loc	18 53 9
	jbe	LBB22_192
Ltmp2985:
	.loc	18 52 11
	movq	-80(%rbp), %rcx
Ltmp2986:
	.loc	18 53 15
	movb	(%rcx,%rax), %cl
Ltmp2987:
	addb	$-65, %cl
	cmpb	$25, %cl
	ja	LBB22_192
Ltmp2988:
	.loc	18 0 15 is_stmt 0
	leaq	-80(%rbp), %rdi
	.loc	18 54 18 is_stmt 1
	callq	__ZN14rustc_demangle2v06Parser9skip_path17h60e1134618bf98cfE
	.loc	18 54 13 is_stmt 0
	testb	%al, %al
	jne	LBB22_172
Ltmp2989:
	.loc	18 61 9 is_stmt 1
	movq	-72(%rbp), %r10
	.loc	18 61 20 is_stmt 0
	movq	-64(%rbp), %rax
Ltmp2990:
LBB22_192:
	.loc	18 61 9
	movq	-80(%rbp), %r11
Ltmp2991:
	.loc	18 0 9
	movq	%r11, -96(%rbp)
	movq	%r10, -88(%rbp)
Ltmp2992:
	.loc	3 2051 18 is_stmt 1
	movq	%rax, -248(%rbp)
	.loc	3 2051 25 is_stmt 0
	movq	%r10, -48(%rbp)
Ltmp2993:
	.loc	3 2303 12 is_stmt 1
	testq	%rax, %rax
	je	LBB22_196
Ltmp2994:
	cmpq	%rax, %r10
	je	LBB22_196
Ltmp2995:
	.loc	3 2307 13
	jbe	LBB22_245
Ltmp2996:
	.loc	3 2309 25
	cmpb	$-65, (%r11,%rax)
Ltmp2997:
	.loc	3 2021 13
	jle	LBB22_245
Ltmp2998:
LBB22_196:
	.loc	6 158 9
	addq	%rax, %r11
Ltmp2999:
	.loc	3 2040 23
	subq	%rax, %r10
Ltmp3000:
	.loc	3 0 23 is_stmt 0
	movl	$1, %edx
Ltmp3001:
	movq	-56(%rbp), %r9
Ltmp3002:
	.loc	3 2270 9 is_stmt 1
	testq	%r10, %r10
Ltmp3003:
	.loc	22 101 5
	jne	LBB22_210
Ltmp3004:
LBB22_197:
	.loc	22 0 5 is_stmt 0
	xorl	%r10d, %r10d
	.loc	22 84 22 is_stmt 1
	movq	%r11, %r14
	jmp	LBB22_178
Ltmp3005:
LBB22_198:
	.loc	22 0 22 is_stmt 0
	shll	$6, %ecx
Ltmp3006:
	orl	%ecx, %eax
Ltmp3007:
	movl	%eax, %r14d
Ltmp3008:
	.loc	8 73 17 is_stmt 1
	cmpl	$69, %r14d
	jne	LBB22_113
Ltmp3009:
LBB22_208:
	.loc	8 0 17 is_stmt 0
	xorl	%r8d, %r8d
Ltmp3010:
LBB22_209:
	.loc	5 3199 33 is_stmt 1
	subq	%r11, %r10
Ltmp3011:
	.loc	5 0 33 is_stmt 0
	xorl	%edx, %edx
Ltmp3012:
	.loc	3 2270 9 is_stmt 1
	testq	%r10, %r10
Ltmp3013:
	.loc	22 101 5
	je	LBB22_197
Ltmp3014:
LBB22_210:
	.loc	5 5863 12
	leaq	l___unnamed_26(%rip), %rax
	cmpq	%rax, %r11
Ltmp3015:
	.loc	5 5863 9 is_stmt 0
	je	LBB22_212
Ltmp3016:
	.loc	5 5868 13 is_stmt 1
	cmpb	$46, (%r11)
Ltmp3017:
	.loc	5 1430 9
	jne	LBB22_235
Ltmp3018:
LBB22_212:
	.loc	5 0 9 is_stmt 0
	movq	%rdx, -104(%rbp)
Ltmp3019:
	.loc	6 158 9 is_stmt 1
	leaq	(%r11,%r10), %rax
Ltmp3020:
	.loc	6 0 9 is_stmt 0
	leaq	l___unnamed_44(%rip), %r14
	movq	%r11, %rdx
Ltmp3021:
	.loc	10 152 9 is_stmt 1
	leaq	1(%rdx), %rcx
Ltmp3022:
	.loc	3 519 13
	movzbl	(%rdx), %esi
Ltmp3023:
	.loc	3 520 8
	testb	%sil, %sil
	.loc	3 520 5 is_stmt 0
	jns	LBB22_216
	jmp	LBB22_217
Ltmp3024:
	.p2align	4, 0x90
LBB22_213:
	.loc	3 0 5
	movabsq	$64424509503, %rdi
	btq	%rcx, %rdi
	jae	LBB22_233
Ltmp3025:
LBB22_214:
	.loc	5 3179 9 is_stmt 1
	cmpq	%rax, %rdx
	.loc	5 3303 21
	je	LBB22_234
Ltmp3026:
	.loc	10 152 9
	leaq	1(%rdx), %rcx
Ltmp3027:
	.loc	3 519 13
	movzbl	(%rdx), %esi
Ltmp3028:
	.loc	3 520 8
	testb	%sil, %sil
	.loc	3 520 5 is_stmt 0
	js	LBB22_217
Ltmp3029:
LBB22_216:
	.loc	3 0 5
	movq	%rcx, %rdx
Ltmp3030:
	.loc	22 175 9 is_stmt 1
	leal	-33(%rsi), %ecx
	cmpl	$15, %ecx
Ltmp3031:
	.loc	22 158 9
	jb	LBB22_214
Ltmp3032:
LBB22_230:
	.loc	22 0 0 is_stmt 0
	leal	-48(%rsi), %ecx
	.loc	22 158 9
	cmpl	$10, %ecx
	jb	LBB22_214
Ltmp3033:
	.loc	22 0 0
	movl	%esi, %ecx
	andl	$-33, %ecx
	addl	$-65, %ecx
	.loc	22 158 9
	cmpl	$26, %ecx
	jb	LBB22_214
Ltmp3034:
	.loc	22 175 9 is_stmt 1
	leal	-91(%rsi), %ecx
	cmpl	$35, %ecx
	jbe	LBB22_213
Ltmp3035:
LBB22_233:
	addl	$-58, %esi
	cmpl	$7, %esi
	jb	LBB22_214
	jmp	LBB22_236
Ltmp3036:
	.p2align	4, 0x90
LBB22_217:
	.loc	5 3179 9
	cmpq	%rax, %rcx
	.loc	5 3303 21
	je	LBB22_223
Ltmp3037:
	.loc	3 508 15
	movzbl	1(%rdx), %ecx
Ltmp3038:
	.loc	10 152 9
	addq	$2, %rdx
Ltmp3039:
	.loc	3 507 5
	andl	$63, %ecx
Ltmp3040:
	.loc	3 0 0 is_stmt 0
	movl	%esi, %edi
	andl	$31, %edi
Ltmp3041:
	.loc	3 530 8 is_stmt 1
	cmpb	$-33, %sil
	.loc	3 530 5 is_stmt 0
	jbe	LBB22_224
Ltmp3042:
LBB22_219:
	.loc	5 3179 9 is_stmt 1
	cmpq	%rax, %rdx
	.loc	5 3303 21
	je	LBB22_225
Ltmp3043:
	.loc	3 508 15
	movzbl	(%rdx), %r9d
Ltmp3044:
	.loc	10 152 9
	incq	%rdx
Ltmp3045:
	.loc	3 507 5
	andl	$63, %r9d
Ltmp3046:
	.loc	3 495 5
	shll	$6, %ecx
	orl	%r9d, %ecx
Ltmp3047:
	.loc	3 536 12
	cmpb	$-16, %sil
	.loc	3 536 9 is_stmt 0
	jb	LBB22_226
Ltmp3048:
LBB22_221:
	.loc	5 3179 9 is_stmt 1
	cmpq	%rax, %rdx
	.loc	5 3303 21
	je	LBB22_227
Ltmp3049:
	.loc	3 508 15
	movzbl	(%rdx), %esi
Ltmp3050:
	.loc	10 152 9
	incq	%rdx
Ltmp3051:
	.loc	3 507 5
	andl	$63, %esi
	jmp	LBB22_228
Ltmp3052:
LBB22_223:
	.loc	3 0 5 is_stmt 0
	xorl	%ecx, %ecx
	movq	%rax, %rdx
	movl	%esi, %edi
	andl	$31, %edi
Ltmp3053:
	.loc	3 530 8 is_stmt 1
	cmpb	$-33, %sil
	.loc	3 530 5 is_stmt 0
	ja	LBB22_219
Ltmp3054:
LBB22_224:
	.loc	3 0 5
	shll	$6, %edi
Ltmp3055:
	orl	%edi, %ecx
Ltmp3056:
	movl	%ecx, %esi
Ltmp3057:
	.loc	22 175 9 is_stmt 1
	leal	-33(%rsi), %ecx
	cmpl	$15, %ecx
	jae	LBB22_230
	jmp	LBB22_214
Ltmp3058:
LBB22_225:
	.loc	22 0 9 is_stmt 0
	xorl	%r9d, %r9d
	movq	%rax, %rdx
Ltmp3059:
	.loc	3 495 5 is_stmt 1
	shll	$6, %ecx
	orl	%r9d, %ecx
Ltmp3060:
	.loc	3 536 12
	cmpb	$-16, %sil
	.loc	3 536 9 is_stmt 0
	jae	LBB22_221
Ltmp3061:
LBB22_226:
	.loc	3 0 9
	shll	$12, %edi
Ltmp3062:
	orl	%edi, %ecx
Ltmp3063:
	movl	%ecx, %esi
Ltmp3064:
	movq	-56(%rbp), %r9
Ltmp3065:
	.loc	22 175 9 is_stmt 1
	leal	-33(%rsi), %ecx
	cmpl	$15, %ecx
	jae	LBB22_230
	jmp	LBB22_214
Ltmp3066:
LBB22_227:
	.loc	22 0 9 is_stmt 0
	xorl	%esi, %esi
Ltmp3067:
	movq	%rax, %rdx
Ltmp3068:
LBB22_228:
	movq	-56(%rbp), %r9
Ltmp3069:
	.loc	3 540 18 is_stmt 1
	andl	$7, %edi
Ltmp3070:
	shll	$18, %edi
Ltmp3071:
	.loc	3 495 5
	shll	$6, %ecx
Ltmp3072:
	orl	%edi, %ecx
Ltmp3073:
	.loc	3 540 13
	orl	%esi, %ecx
Ltmp3074:
	.loc	3 0 13 is_stmt 0
	movl	%ecx, %esi
Ltmp3075:
	.loc	14 1877 19 is_stmt 1
	cmpl	$1114112, %ecx
Ltmp3076:
	je	LBB22_234
Ltmp3077:
	.p2align	4, 0x90
	.loc	22 175 9
	leal	-33(%rsi), %ecx
	cmpl	$15, %ecx
	jae	LBB22_230
	jmp	LBB22_214
Ltmp3078:
LBB22_199:
	.loc	4 0 0 is_stmt 0
	movq	%r15, -136(%rbp)
Ltmp3079:
LBB22_200:
	movq	-240(%rbp), %r15
Ltmp3080:
LBB22_201:
	movq	-56(%rbp), %r9
Ltmp3081:
	.loc	5 1430 9 is_stmt 1
	cmpq	$3, %r12
Ltmp3082:
	jb	LBB22_88
	jmp	LBB22_94
Ltmp3083:
LBB22_234:
	.loc	22 84 22
	movq	%r11, %r14
	movq	-104(%rbp), %rdx
	jmp	LBB22_178
Ltmp3084:
LBB22_235:
	.loc	22 0 22 is_stmt 0
	leaq	l___unnamed_44(%rip), %r14
Ltmp3085:
LBB22_236:
	movl	$2, %edx
	xorl	%r10d, %r10d
Ltmp3086:
	jmp	LBB22_178
Ltmp3087:
LBB22_204:
	xorl	%esi, %esi
	movq	%r10, %rdx
Ltmp3088:
	.loc	3 495 5 is_stmt 1
	shll	$6, %eax
	orl	%esi, %eax
Ltmp3089:
	.loc	3 536 12
	cmpb	$-16, %r14b
	.loc	3 536 9 is_stmt 0
	jae	LBB22_186
Ltmp3090:
LBB22_205:
	.loc	3 0 9
	shll	$12, %ecx
Ltmp3091:
	orl	%ecx, %eax
Ltmp3092:
	movl	%eax, %r14d
Ltmp3093:
	.loc	8 73 17 is_stmt 1
	cmpl	$69, %r14d
	jne	LBB22_113
	jmp	LBB22_208
Ltmp3094:
LBB22_206:
	.loc	8 0 17 is_stmt 0
	xorl	%esi, %esi
Ltmp3095:
LBB22_207:
	.loc	3 540 18 is_stmt 1
	andl	$7, %ecx
Ltmp3096:
	shll	$18, %ecx
Ltmp3097:
	.loc	3 495 5
	shll	$6, %eax
Ltmp3098:
	orl	%ecx, %eax
Ltmp3099:
	.loc	3 540 13
	orl	%esi, %eax
Ltmp3100:
	.loc	3 0 13 is_stmt 0
	movl	%eax, %r14d
Ltmp3101:
	.loc	8 73 17 is_stmt 1
	cmpl	$69, %r14d
	jne	LBB22_113
	jmp	LBB22_208
Ltmp3102:
LBB22_237:
	.loc	4 0 0 is_stmt 0
	leaq	l___unnamed_108(%rip), %rdx
	movq	%r8, %rsi
	callq	__ZN4core9panicking18panic_bounds_check17habe69d236c55e3edE
Ltmp3103:
LBB22_238:
	leaq	-96(%rbp), %rax
Ltmp3104:
	.loc	11 430 21 is_stmt 1
	movq	%rax, -80(%rbp)
	leaq	-248(%rbp), %rax
	movq	%rax, -72(%rbp)
	leaq	-48(%rbp), %rax
	movq	%rax, -64(%rbp)
	leaq	-80(%rbp), %rdi
	callq	__ZN4core3str6traits105_$LT$impl$u20$core..slice..SliceIndex$LT$str$GT$$u20$for$u20$core..ops..range..RangeFrom$LT$usize$GT$$GT$5index28_$u7b$$u7b$closure$u7d$$u7d$17hae339611a1cc31b9E
Ltmp3105:
LBB22_239:
	.loc	4 0 0 is_stmt 0
	leaq	l___unnamed_109(%rip), %rdx
	movq	%rax, %rsi
	callq	__ZN4core9panicking18panic_bounds_check17habe69d236c55e3edE
Ltmp3106:
LBB22_240:
	.loc	4 1307 33 is_stmt 1
	leaq	l___unnamed_110(%rip), %rdx
	movq	%rsi, %rdi
Ltmp3107:
	movq	%r8, %rsi
	callq	__ZN4core9panicking18panic_bounds_check17habe69d236c55e3edE
Ltmp3108:
LBB22_241:
	.loc	4 1307 33 is_stmt 0
	leaq	l___unnamed_110(%rip), %rdx
	movq	%rbx, %rdi
Ltmp3109:
	movq	%r8, %rsi
	callq	__ZN4core9panicking18panic_bounds_check17habe69d236c55e3edE
Ltmp3110:
LBB22_242:
	.loc	4 0 33
	leaq	-80(%rbp), %rax
	movq	%rax, -208(%rbp)
	leaq	-48(%rbp), %rax
	movq	%rax, -200(%rbp)
	leaq	-96(%rbp), %rax
	movq	%rax, -192(%rbp)
	leaq	-208(%rbp), %rdi
	callq	__ZN4core3str6traits105_$LT$impl$u20$core..slice..SliceIndex$LT$str$GT$$u20$for$u20$core..ops..range..RangeFrom$LT$usize$GT$$GT$5index28_$u7b$$u7b$closure$u7d$$u7d$17hae339611a1cc31b9E
Ltmp3111:
LBB22_243:
	leaq	-208(%rbp), %rdi
Ltmp3112:
	.loc	11 430 21 is_stmt 1
	callq	__ZN4core3str6traits103_$LT$impl$u20$core..slice..SliceIndex$LT$str$GT$$u20$for$u20$core..ops..range..RangeTo$LT$usize$GT$$GT$5index28_$u7b$$u7b$closure$u7d$$u7d$17h7fe3ba5e5614193eE
Ltmp3113:
LBB22_244:
	.loc	8 93 9
	leaq	_str.1(%rip), %rdi
	leaq	l___unnamed_111(%rip), %rdx
	movl	$28, %esi
	callq	__ZN4core9panicking5panic17h736ee47a631475c0E
Ltmp3114:
LBB22_245:
	.loc	8 0 9 is_stmt 0
	leaq	-96(%rbp), %rax
Ltmp3115:
	.loc	11 430 21 is_stmt 1
	movq	%rax, -208(%rbp)
	leaq	-248(%rbp), %rax
	movq	%rax, -200(%rbp)
	leaq	-48(%rbp), %rax
Ltmp3116:
	.loc	22 0 0 is_stmt 0
	movq	%rax, -192(%rbp)
	leaq	-208(%rbp), %rdi
	callq	__ZN4core3str6traits105_$LT$impl$u20$core..slice..SliceIndex$LT$str$GT$$u20$for$u20$core..ops..range..RangeFrom$LT$usize$GT$$GT$5index28_$u7b$$u7b$closure$u7d$$u7d$17hae339611a1cc31b9E
Ltmp3117:
Lfunc_end22:
	.cfi_endproc

	.globl	__ZN14rustc_demangle12try_demangle17hff34b5aa307f12d5E
	.p2align	4, 0x90
__ZN14rustc_demangle12try_demangle17hff34b5aa307f12d5E:
Lfunc_begin23:
	.loc	22 138 0 is_stmt 1
	.cfi_startproc
	pushq	%rbp
	.cfi_def_cfa_offset 16
	.cfi_offset %rbp, -16
	movq	%rsp, %rbp
	.cfi_def_cfa_register %rbp
	pushq	%rbx
	subq	$72, %rsp
	.cfi_offset %rbx, -24
	movq	%rdi, %rbx
Ltmp3118:
	leaq	-72(%rbp), %rdi
Ltmp3119:
	.loc	22 139 15 prologue_end
	callq	__ZN14rustc_demangle8demangle17h21235ea415117205E
Ltmp3120:
	.loc	11 189 25
	cmpq	$2, -72(%rbp)
Ltmp3121:
	.loc	22 140 5
	jne	LBB23_2
Ltmp3122:
	.loc	22 143 9
	movq	$3, (%rbx)
	jmp	LBB23_3
Ltmp3123:
LBB23_2:
	.loc	22 141 12
	movq	-16(%rbp), %rax
	movq	%rax, 56(%rbx)
	movq	-24(%rbp), %rax
	movq	%rax, 48(%rbx)
	movq	-32(%rbp), %rax
	movq	%rax, 40(%rbx)
	movq	-40(%rbp), %rax
	movq	%rax, 32(%rbx)
	movq	-48(%rbp), %rax
	movq	%rax, 24(%rbx)
	movq	-56(%rbp), %rax
	movq	%rax, 16(%rbx)
	movq	-72(%rbp), %rax
	movq	-64(%rbp), %rcx
	movq	%rcx, 8(%rbx)
	movq	%rax, (%rbx)
Ltmp3124:
LBB23_3:
	.loc	22 145 2
	movq	%rbx, %rax
	addq	$72, %rsp
	popq	%rbx
	popq	%rbp
	retq
Ltmp3125:
Lfunc_end23:
	.cfi_endproc

	.globl	__ZN14rustc_demangle8Demangle6as_str17hcafb926c039dcd5fE
	.p2align	4, 0x90
__ZN14rustc_demangle8Demangle6as_str17hcafb926c039dcd5fE:
Lfunc_begin24:
	.loc	22 149 0
	.cfi_startproc
	pushq	%rbp
	.cfi_def_cfa_offset 16
	.cfi_offset %rbp, -16
	movq	%rsp, %rbp
	.cfi_def_cfa_register %rbp
Ltmp3126:
	.loc	22 150 9 prologue_end
	movq	32(%rdi), %rax
	movq	40(%rdi), %rdx
	.loc	22 151 6
	popq	%rbp
	retq
Ltmp3127:
Lfunc_end24:
	.cfi_endproc

	.globl	__ZN63_$LT$rustc_demangle..Demangle$u20$as$u20$core..fmt..Display$GT$3fmt17ha3d39e40d047603bE
	.p2align	4, 0x90
__ZN63_$LT$rustc_demangle..Demangle$u20$as$u20$core..fmt..Display$GT$3fmt17ha3d39e40d047603bE:
Lfunc_begin25:
	.loc	22 184 0
	.cfi_startproc
	pushq	%rbp
	.cfi_def_cfa_offset 16
	.cfi_offset %rbp, -16
	movq	%rsp, %rbp
	.cfi_def_cfa_register %rbp
	pushq	%r14
	pushq	%rbx
	subq	$48, %rsp
	.cfi_offset %rbx, -32
	.cfi_offset %r14, -24
	movq	%rsi, %r14
Ltmp3128:
	movq	%rdi, %rbx
Ltmp3129:
	.loc	22 186 13 prologue_end
	movq	(%rdi), %rax
	cmpq	$2, %rax
	jne	LBB25_1
Ltmp3130:
	.loc	22 186 38 is_stmt 0
	movq	32(%rbx), %rsi
	movq	40(%rbx), %rdx
	.loc	22 186 26
	movq	%r14, %rdi
	callq	__ZN4core3fmt9Formatter9write_str17h957ea9717e49073dE
	.loc	22 0 0
	movl	%eax, %ecx
	movb	$1, %al
	testb	%cl, %cl
	jne	LBB25_7
Ltmp3131:
LBB25_6:
	.loc	22 194 21 is_stmt 1
	movq	48(%rbx), %rsi
	movq	56(%rbx), %rdx
	.loc	22 194 9 is_stmt 0
	movq	%r14, %rdi
	callq	__ZN4core3fmt9Formatter9write_str17h957ea9717e49073dE
Ltmp3132:
LBB25_7:
	.loc	22 195 6 is_stmt 1
	addq	$48, %rsp
	popq	%rbx
Ltmp3133:
	popq	%r14
Ltmp3134:
	popq	%rbp
	retq
LBB25_1:
Ltmp3135:
	.loc	22 0 0 is_stmt 0
	leaq	8(%rbx), %rdi
Ltmp3136:
	.loc	22 187 18 is_stmt 1
	cmpq	$1, %rax
	jne	LBB25_4
Ltmp3137:
	.loc	18 68 22
	movups	(%rdi), %xmm0
	.loc	18 66 27
	movaps	%xmm0, -64(%rbp)
	movq	$0, -48(%rbp)
	movq	%r14, -40(%rbp)
	movl	$0, -32(%rbp)
Ltmp3138:
	.loc	18 0 27 is_stmt 0
	leaq	-64(%rbp), %rdi
Ltmp3139:
	.loc	18 74 9 is_stmt 1
	movl	$1, %esi
	callq	__ZN14rustc_demangle2v07Printer10print_path17hec5ad73476f2d587E
Ltmp3140:
	.loc	22 0 0 is_stmt 0
	movl	%eax, %ecx
	movb	$1, %al
	testb	%cl, %cl
	je	LBB25_6
	jmp	LBB25_7
Ltmp3141:
LBB25_4:
	.loc	22 188 22 is_stmt 1
	movq	%r14, %rsi
	callq	__ZN71_$LT$rustc_demangle..legacy..Demangle$u20$as$u20$core..fmt..Display$GT$3fmt17he4efd693d010d3a5E
Ltmp3142:
	.loc	22 0 0 is_stmt 0
	movl	%eax, %ecx
	movb	$1, %al
	testb	%cl, %cl
	je	LBB25_6
	jmp	LBB25_7
Ltmp3143:
Lfunc_end25:
	.cfi_endproc

	.globl	__ZN61_$LT$rustc_demangle..Demangle$u20$as$u20$core..fmt..Debug$GT$3fmt17h9a7eed00889b1014E
	.p2align	4, 0x90
__ZN61_$LT$rustc_demangle..Demangle$u20$as$u20$core..fmt..Debug$GT$3fmt17h9a7eed00889b1014E:
Lfunc_begin26:
	.loc	22 199 0 is_stmt 1
	.cfi_startproc
	pushq	%rbp
	.cfi_def_cfa_offset 16
	.cfi_offset %rbp, -16
	movq	%rsp, %rbp
	.cfi_def_cfa_register %rbp
	pushq	%r14
	pushq	%rbx
	subq	$48, %rsp
	.cfi_offset %rbx, -32
	.cfi_offset %r14, -24
	movq	%rsi, %r14
Ltmp3144:
	movq	%rdi, %rbx
Ltmp3145:
	.loc	22 186 13 prologue_end
	movq	(%rdi), %rax
	cmpq	$2, %rax
	jne	LBB26_1
Ltmp3146:
	.loc	22 186 38 is_stmt 0
	movq	32(%rbx), %rsi
	movq	40(%rbx), %rdx
	.loc	22 186 26
	movq	%r14, %rdi
	callq	__ZN4core3fmt9Formatter9write_str17h957ea9717e49073dE
	.loc	22 0 0
	movl	%eax, %ecx
	movb	$1, %al
	testb	%cl, %cl
	jne	LBB26_7
Ltmp3147:
LBB26_6:
	.loc	22 194 21 is_stmt 1
	movq	48(%rbx), %rsi
	movq	56(%rbx), %rdx
	.loc	22 194 9 is_stmt 0
	movq	%r14, %rdi
	callq	__ZN4core3fmt9Formatter9write_str17h957ea9717e49073dE
Ltmp3148:
LBB26_7:
	.loc	22 201 6 is_stmt 1
	addq	$48, %rsp
	popq	%rbx
Ltmp3149:
	popq	%r14
Ltmp3150:
	popq	%rbp
	retq
LBB26_1:
Ltmp3151:
	.loc	22 0 0 is_stmt 0
	leaq	8(%rbx), %rdi
Ltmp3152:
	.loc	22 187 18 is_stmt 1
	cmpq	$1, %rax
	jne	LBB26_4
Ltmp3153:
	.loc	18 68 22
	movups	(%rdi), %xmm0
	.loc	18 66 27
	movaps	%xmm0, -64(%rbp)
	movq	$0, -48(%rbp)
	movq	%r14, -40(%rbp)
	movl	$0, -32(%rbp)
Ltmp3154:
	.loc	18 0 27 is_stmt 0
	leaq	-64(%rbp), %rdi
Ltmp3155:
	.loc	18 74 9 is_stmt 1
	movl	$1, %esi
	callq	__ZN14rustc_demangle2v07Printer10print_path17hec5ad73476f2d587E
Ltmp3156:
	.loc	22 0 0 is_stmt 0
	movl	%eax, %ecx
	movb	$1, %al
	testb	%cl, %cl
	je	LBB26_6
	jmp	LBB26_7
Ltmp3157:
LBB26_4:
	.loc	22 188 22 is_stmt 1
	movq	%r14, %rsi
	callq	__ZN71_$LT$rustc_demangle..legacy..Demangle$u20$as$u20$core..fmt..Display$GT$3fmt17he4efd693d010d3a5E
Ltmp3158:
	.loc	22 0 0 is_stmt 0
	movl	%eax, %ecx
	movb	$1, %al
	testb	%cl, %cl
	je	LBB26_6
	jmp	LBB26_7
Ltmp3159:
Lfunc_end26:
	.cfi_endproc

	.globl	__ZN69_$LT$rustc_demangle..TryDemangleError$u20$as$u20$core..fmt..Debug$GT$3fmt17h82bce01c0d5a79ebE
	.p2align	4, 0x90
__ZN69_$LT$rustc_demangle..TryDemangleError$u20$as$u20$core..fmt..Debug$GT$3fmt17h82bce01c0d5a79ebE:
Lfunc_begin27:
	.loc	22 119 0 is_stmt 1
	.cfi_startproc
	pushq	%rbp
	.cfi_def_cfa_offset 16
	.cfi_offset %rbp, -16
	movq	%rsp, %rbp
	.cfi_def_cfa_register %rbp
	pushq	%r14
	pushq	%rbx
	subq	$32, %rsp
	.cfi_offset %rbx, -32
	.cfi_offset %r14, -24
	movq	%rdi, %rbx
Ltmp3160:
	.loc	22 119 10 prologue_end
	leaq	L___unnamed_112(%rip), %rdx
	leaq	-40(%rbp), %r14
	movl	$16, %ecx
	movq	%r14, %rdi
	callq	__ZN4core3fmt9Formatter12debug_struct17h985c0158d1fc7193E
Ltmp3161:
	.loc	22 121 5
	movq	%rbx, -24(%rbp)
	.loc	22 119 10
	leaq	l___unnamed_113(%rip), %rsi
	leaq	l___unnamed_2(%rip), %r8
	leaq	-24(%rbp), %rcx
	movl	$5, %edx
	movq	%r14, %rdi
	callq	__ZN4core3fmt8builders11DebugStruct5field17h9c15dc155278eed2E
	movq	%r14, %rdi
	callq	__ZN4core3fmt8builders11DebugStruct6finish17h26808393f3fed630E
Ltmp3162:
	.loc	22 119 15 is_stmt 0
	addq	$32, %rsp
	popq	%rbx
Ltmp3163:
	popq	%r14
	popq	%rbp
	retq
Ltmp3164:
Lfunc_end27:
	.cfi_endproc

	.section	__TEXT,__const
l___unnamed_3:
	.ascii	"()"

	.p2align	4
_str.0:
	.ascii	"attempt to subtract with overflow"

l___unnamed_114:
	.ascii	"/rustc/a74d1862d4d87a56244958416fd05976c58ca1a8/src/libcore/str/mod.rs"

	.section	__DATA,__const
	.p2align	3
l___unnamed_4:
	.quad	l___unnamed_114
	.asciz	"F\000\000\000\000\000\000\000\200\007\000\000/\000\000"

	.p2align	3
l___unnamed_5:
	.quad	l___unnamed_114
	.asciz	"F\000\000\000\000\000\000\000\303\007\000\000/\000\000"

	.p2align	3
l___unnamed_6:
	.quad	l___unnamed_114
	.asciz	"F\000\000\000\000\000\000\000\004\b\000\000/\000\000"

	.section	__TEXT,__const
l___unnamed_115:
	.ascii	"/rustc/a74d1862d4d87a56244958416fd05976c58ca1a8/src/libcore/str/pattern.rs"

	.section	__DATA,__const
	.p2align	3
l___unnamed_108:
	.quad	l___unnamed_115
	.asciz	"J\000\000\000\000\000\000\000\017\005\000\000!\000\000"

	.p2align	3
l___unnamed_109:
	.quad	l___unnamed_115
	.asciz	"J\000\000\000\000\000\000\000\033\005\000\000\024\000\000"

	.p2align	3
l___unnamed_110:
	.quad	l___unnamed_115
	.asciz	"J\000\000\000\000\000\000\000\033\005\000\000!\000\000"

	.section	__TEXT,__const
l___unnamed_27:
	.ascii	"called `Option::unwrap()` on a `None` value"

l___unnamed_30:
	.ascii	"called `Result::unwrap()` on an `Err` value"

	.section	__DATA,__const
	.p2align	3
l___unnamed_1:
	.quad	__ZN4core3ptr13drop_in_place17h5fbc2155cf3688a9E
	.quad	1
	.quad	1
	.quad	__ZN61_$LT$core..num..ParseIntError$u20$as$u20$core..fmt..Debug$GT$3fmt17h44c3304f11241241E

	.p2align	3
l___unnamed_7:
	.quad	l___unnamed_115
	.asciz	"J\000\000\000\000\000\000\000\213\001\000\000&\000\000"

	.section	__TEXT,__const
l___unnamed_101:
	.ascii	"_ZN"

l___unnamed_116:
	.ascii	"/Users/yingyuhang/.cargo/registry/src/github.com-1ecc6299db9ec823/rustc-demangle-0.1.16/src/legacy.rs"

l___unnamed_102:
	.ascii	"ZN"

	.section	__TEXT,__literal4,4byte_literals
L___unnamed_103:
	.ascii	"__ZN"

	.section	__DATA,__const
	.p2align	3
l___unnamed_111:
	.quad	l___unnamed_116
	.asciz	"e\000\000\000\000\000\000\000]\000\000\000\t\000\000"

	.section	__TEXT,__const
	.p2align	4
_str.1:
	.ascii	"attempt to add with overflow"

	.section	__DATA,__const
	.p2align	3
l___unnamed_28:
	.quad	l___unnamed_116
	.asciz	"e\000\000\000\000\000\000\000q\000\000\000\023\000\000"

	.p2align	3
l___unnamed_29:
	.quad	l___unnamed_116
	.asciz	"e\000\000\000\000\000\000\000t\000\000\000$\000\000"

	.p2align	3
l___unnamed_31:
	.quad	l___unnamed_116
	.asciz	"e\000\000\000\000\000\000\000t\000\000\000\034\000\000"

	.p2align	3
l___unnamed_34:
	.quad	l___unnamed_116
	.asciz	"e\000\000\000\000\000\000\000y\000\000\000!\000\000"

	.section	__TEXT,__const
l___unnamed_8:
	.space	2,58

l___unnamed_9:
	.ascii	"_$"

l___unnamed_26:
	.byte	46

	.section	__DATA,__const
	.p2align	3
l___unnamed_32:
	.quad	l___unnamed_116
	.asciz	"e\000\000\000\000\000\000\000\215\000\000\000#\000\000"

	.p2align	3
l___unnamed_33:
	.quad	l___unnamed_116
	.asciz	"e\000\000\000\000\000\000\000\215\000\000\0003\000\000"

	.section	__TEXT,__const
l___unnamed_11:
	.ascii	"SP"

l___unnamed_10:
	.byte	64

l___unnamed_13:
	.ascii	"BP"

l___unnamed_12:
	.byte	42

l___unnamed_15:
	.ascii	"RF"

l___unnamed_14:
	.byte	38

l___unnamed_17:
	.ascii	"LT"

l___unnamed_16:
	.byte	60

l___unnamed_19:
	.ascii	"GT"

l___unnamed_18:
	.byte	62

l___unnamed_21:
	.ascii	"LP"

l___unnamed_20:
	.byte	40

l___unnamed_23:
	.ascii	"RP"

l___unnamed_22:
	.byte	41

l___unnamed_25:
	.byte	67

l___unnamed_24:
	.byte	44

l___unnamed_104:
	.ascii	"_R"

l___unnamed_117:
	.ascii	"/Users/yingyuhang/.cargo/registry/src/github.com-1ecc6299db9ec823/rustc-demangle-0.1.16/src/v0.rs"

l___unnamed_105:
	.byte	82

l___unnamed_106:
	.ascii	"__R"

	.section	__DATA,__const
	.p2align	3
l___unnamed_39:
	.quad	l___unnamed_117
	.asciz	"a\000\000\000\000\000\000\000m\000\000\000\032\000\000"

	.p2align	3
l___unnamed_41:
	.quad	l___unnamed_117
	.asciz	"a\000\000\000\000\000\000\000r\000\000\000\r\000\000"

	.p2align	3
l___unnamed_38:
	.quad	l___unnamed_117
	.asciz	"a\000\000\000\000\000\000\000\243\000\000\000\021\000\000"

	.p2align	3
l___unnamed_42:
	.quad	l___unnamed_117
	.asciz	"a\000\000\000\000\000\000\000\317\000\000\000\r\000\000"

	.p2align	3
l___unnamed_40:
	.quad	l___unnamed_117
	.asciz	"a\000\000\000\000\000\000\000\323\000\000\000\021\000\000"

	.p2align	3
l___unnamed_43:
	.quad	l___unnamed_117
	.asciz	"a\000\000\000\000\000\000\000\325\000\000\000\024\000\000"

	.section	__TEXT,__const
l___unnamed_35:
	.ascii	"punycode{"

l___unnamed_36:
	.byte	45

l___unnamed_37:
	.byte	125

l___unnamed_81:
	.space	3,46

l___unnamed_49:
	.byte	95

l___unnamed_76:
	.byte	33

l___unnamed_65:
	.ascii	"f64"

l___unnamed_75:
	.ascii	"f32"

l___unnamed_63:
	.ascii	"usize"

	.section	__TEXT,__literal4,4byte_literals
L___unnamed_69:
	.ascii	"u128"

	.section	__TEXT,__const
l___unnamed_72:
	.ascii	"u64"

l___unnamed_80:
	.ascii	"u32"

l___unnamed_66:
	.ascii	"u16"

l___unnamed_79:
	.ascii	"u8"

l___unnamed_78:
	.ascii	"isize"

	.section	__TEXT,__literal4,4byte_literals
L___unnamed_64:
	.ascii	"i128"

	.section	__TEXT,__const
l___unnamed_68:
	.ascii	"i64"

l___unnamed_71:
	.ascii	"i32"

l___unnamed_73:
	.ascii	"i16"

l___unnamed_67:
	.ascii	"i8"

l___unnamed_74:
	.ascii	"str"

	.section	__TEXT,__literal4,4byte_literals
L___unnamed_70:
	.ascii	"char"

L___unnamed_60:
	.ascii	"bool"

	.section	__DATA,__const
	.p2align	3
l___unnamed_46:
	.quad	l___unnamed_117
	.asciz	"a\000\000\000\000\000\000\000p\001\000\000\027\000\000"

	.p2align	3
l___unnamed_45:
	.quad	l___unnamed_117
	.asciz	"a\000\000\000\000\000\000\000\231\001\000\000&\000\000"

	.section	__TEXT,__const
l___unnamed_44:
	.byte	0

l___unnamed_47:
	.byte	39

l___unnamed_48:
	.byte	63

	.section	__TEXT,__literal4,4byte_literals
L___unnamed_83:
	.ascii	"for<"

	.section	__TEXT,__const
l___unnamed_50:
	.ascii	", "

	.section	__DATA,__const
	.p2align	3
l___unnamed_89:
	.quad	l___unnamed_117
	.asciz	"a\000\000\000\000\000\000\000\213\002\000\000\021\000\000"

	.section	__TEXT,__const
l___unnamed_87:
	.ascii	"> "

	.section	__DATA,__const
	.p2align	3
l___unnamed_86:
	.quad	l___unnamed_117
	.asciz	"a\000\000\000\000\000\000\000\224\002\000\000\t\000\000"

	.p2align	3
l___unnamed_59:
	.quad	l___unnamed_117
	.asciz	"a\000\000\000\000\000\000\000\245\002\000\000\r\000\000"

	.section	__TEXT,__literal4,4byte_literals
L___unnamed_53:
	.ascii	" as "

	.section	__TEXT,__const
l___unnamed_54:
	.ascii	"::{"

	.section	__TEXT,__literal4,4byte_literals
L___unnamed_55:
	.ascii	"shim"

	.section	__TEXT,__const
l___unnamed_56:
	.ascii	"closure"

l___unnamed_57:
	.byte	58

l___unnamed_58:
	.byte	35

l___unnamed_51:
	.byte	91

l___unnamed_52:
	.byte	93

	.section	__TEXT,__literal4,4byte_literals
L___unnamed_77:
	.ascii	"dyn "

	.section	__TEXT,__const
l___unnamed_85:
	.ascii	" + "

l___unnamed_61:
	.ascii	"; "

	.section	__TEXT,__literal4,4byte_literals
L___unnamed_82:
	.ascii	"mut "

	.section	__TEXT,__const
l___unnamed_62:
	.ascii	"const "

l___unnamed_84:
	.byte	32

l___unnamed_90:
	.ascii	"unsafe "

	.section	__TEXT,__literal8,8byte_literals
L___unnamed_91:
	.ascii	"extern \""

	.section	__DATA,__const
	.p2align	3
l___unnamed_95:
	.quad	l___unnamed_117
	.asciz	"a\000\000\000\000\000\000\000T\003\000\0001\000\000"

	.section	__TEXT,__const
l___unnamed_92:
	.ascii	"\" "

l___unnamed_93:
	.ascii	"fn("

	.section	__TEXT,__literal4,4byte_literals
L___unnamed_94:
	.ascii	" -> "

	.section	__DATA,__const
	.p2align	3
l___unnamed_88:
	.quad	l___unnamed_117
	.asciz	"a\000\000\000\000\000\000\000\201\003\000\0003\000\000"

	.section	__TEXT,__const
l___unnamed_96:
	.ascii	" = "

l___unnamed_98:
	.ascii	": "

l___unnamed_97:
	.ascii	"0x"

	.section	__DATA,__const
	.p2align	3
l___unnamed_99:
	.quad	l___unnamed_117
	.asciz	"a\000\000\000\000\000\000\000\334\003\000\000\035\000\000"

	.section	__TEXT,__const
l___unnamed_100:
	.ascii	".llvm."

l___unnamed_118:
	.ascii	"/Users/yingyuhang/.cargo/registry/src/github.com-1ecc6299db9ec823/rustc-demangle-0.1.16/src/lib.rs"

	.section	__DATA,__const
	.p2align	3
l___unnamed_107:
	.quad	l___unnamed_118
	.asciz	"b\000\000\000\000\000\000\000G\000\000\000\034\000\000"

	.section	__TEXT,__literal16,16byte_literals
L___unnamed_112:
	.ascii	"TryDemangleError"

	.section	__TEXT,__const
l___unnamed_113:
	.ascii	"_priv"

	.section	__DATA,__const
	.p2align	3
l___unnamed_2:
	.quad	__ZN4core3ptr13drop_in_place17h5fbc2155cf3688a9E
	.quad	8
	.quad	8
	.quad	__ZN42_$LT$$RF$T$u20$as$u20$core..fmt..Debug$GT$3fmt17h7000531bc09beb92E
