	.section	__TEXT,__text,regular,pure_instructions
	.macosx_version_min 10, 7
	.p2align	4, 0x90
__ZN112_$LT$alloc..collections..btree..map..IntoIter$LT$K$C$V$GT$$u20$as$u20$core..iter..traits..iterator..Iterator$GT$4next17h8730f288de8c0b97E:
Lfunc_begin0:
	.file	1 "/rustc/a74d1862d4d87a56244958416fd05976c58ca1a8/src/liballoc/collections/btree/map.rs"
	.loc	1 1598 0
	.cfi_startproc
	pushq	%rbp
	.cfi_def_cfa_offset 16
	.cfi_offset %rbp, -16
	movq	%rsp, %rbp
	.cfi_def_cfa_register %rbp
	pushq	%r15
	pushq	%r14
	pushq	%r13
	pushq	%r12
	pushq	%rbx
	subq	$120, %rsp
	.cfi_offset %rbx, -56
	.cfi_offset %r12, -48
	.cfi_offset %r13, -40
	.cfi_offset %r14, -32
	.cfi_offset %r15, -24
	movq	%rdi, %r9
Ltmp0:
	.loc	1 1599 12 prologue_end
	movq	64(%rsi), %rax
	testq	%rax, %rax
	.loc	1 1599 9 is_stmt 0
	je	LBB0_21
Ltmp1:
	.loc	1 0 9
	movq	%rsi, %r12
Ltmp2:
	.loc	1 1602 13 is_stmt 1
	decq	%rax
	movq	%rax, 64(%rsi)
Ltmp3:
	.file	2 "/rustc/a74d1862d4d87a56244958416fd05976c58ca1a8/src/libcore/option.rs"
	.loc	2 291 13
	movq	8(%rsi), %rax
	testq	%rax, %rax
	cmoveq	%rax, %r12
Ltmp4:
	.loc	2 387 13
	je	LBB0_23
Ltmp5:
	.file	3 "/rustc/a74d1862d4d87a56244958416fd05976c58ca1a8/src/libcore/ptr/mod.rs"
	.loc	3 651 5
	movq	(%r12), %rax
Ltmp6:
	movq	8(%r12), %rdi
Ltmp7:
	movq	16(%r12), %r10
Ltmp8:
	movq	24(%r12), %r13
Ltmp9:
	.file	4 "/rustc/a74d1862d4d87a56244958416fd05976c58ca1a8/src/liballoc/collections/btree/node.rs"
	.loc	4 293 9
	movzwl	10(%rdi), %ecx
Ltmp10:
	.loc	4 814 12
	cmpq	%rcx, %r13
	.loc	4 814 9 is_stmt 0
	jae	LBB0_4
Ltmp11:
	.file	5 "/rustc/a74d1862d4d87a56244958416fd05976c58ca1a8/src/liballoc/collections/btree/navigate.rs"
	.loc	5 0 0
	movq	%rax, %rbx
Ltmp12:
	jmp	LBB0_10
Ltmp13:
LBB0_21:
	.loc	1 1600 13 is_stmt 1
	movq	$0, (%r9)
	jmp	LBB0_22
Ltmp14:
LBB0_4:
	.loc	1 0 13 is_stmt 0
	movq	%r10, -48(%rbp)
Ltmp15:
	movq	%r9, -56(%rbp)
	movl	$544, %r15d
Ltmp16:
	.loc	4 344 30 is_stmt 1
	movq	(%rdi), %r14
Ltmp17:
	.loc	4 345 16
	testq	%r14, %r14
	je	LBB0_6
Ltmp18:
	.p2align	4, 0x90
LBB0_7:
	.loc	4 348 29
	leaq	1(%rax), %rbx
Ltmp19:
	.loc	4 353 43
	movzwl	8(%rdi), %r13d
Ltmp20:
LBB0_8:
	.loc	4 397 16
	testq	%rax, %rax
	.loc	4 397 13 is_stmt 0
	movl	$640, %esi
	cmoveq	%r15, %rsi
Ltmp21:
	.file	6 "/rustc/a74d1862d4d87a56244958416fd05976c58ca1a8/src/liballoc/alloc.rs"
	.loc	6 102 5 is_stmt 1
	movl	$8, %edx
	callq	___rust_dealloc
Ltmp22:
	.loc	4 293 9
	movzwl	10(%r14), %ecx
	movq	%rbx, %rax
	movq	%r14, %rdi
Ltmp23:
	.loc	4 814 12
	cmpq	%rcx, %r13
	.loc	4 814 9 is_stmt 0
	jb	LBB0_9
Ltmp24:
	.loc	4 344 30 is_stmt 1
	movq	(%rdi), %r14
Ltmp25:
	.loc	4 345 16
	testq	%r14, %r14
	jne	LBB0_7
Ltmp26:
LBB0_6:
	.loc	4 0 16 is_stmt 0
	movq	%rax, %rbx
Ltmp27:
	xorl	%r14d, %r14d
Ltmp28:
	jmp	LBB0_8
Ltmp29:
LBB0_9:
	movq	%r14, %rdi
	movq	-56(%rbp), %r9
	movq	-48(%rbp), %r10
Ltmp30:
LBB0_10:
	.loc	4 975 13 is_stmt 1
	leaq	(%r13,%r13,2), %rax
Ltmp31:
	.loc	3 651 5
	movq	32(%rdi,%rax,8), %rcx
	movq	%rcx, -64(%rbp)
	movq	16(%rdi,%rax,8), %rcx
	movq	24(%rdi,%rax,8), %rdx
	movq	%rdx, -72(%rbp)
	movq	%rcx, -80(%rbp)
Ltmp32:
	.loc	3 651 5 is_stmt 0
	movq	296(%rdi,%rax,8), %rcx
	movq	%rcx, -88(%rbp)
	movq	280(%rdi,%rax,8), %rcx
	movq	288(%rdi,%rax,8), %rax
	movq	%rax, -96(%rbp)
	movq	%rcx, -104(%rbp)
Ltmp33:
	.loc	4 680 12 is_stmt 1
	testq	%rbx, %rbx
Ltmp34:
	.loc	5 223 13
	je	LBB0_11
Ltmp35:
	.loc	4 680 12
	movq	%rbx, %rax
Ltmp36:
	.loc	4 963 17
	movq	552(%rdi,%r13,8), %rdi
Ltmp37:
	.loc	4 680 12
	decq	%rax
Ltmp38:
	.loc	5 199 17
	je	LBB0_13
Ltmp39:
	addq	$-2, %rbx
Ltmp40:
	movq	%rax, %rcx
	andq	$7, %rcx
	je	LBB0_18
Ltmp41:
	.loc	5 0 17 is_stmt 0
	xorl	%edx, %edx
Ltmp42:
	.p2align	4, 0x90
LBB0_16:
	movq	544(%rdi), %rdi
Ltmp43:
	.loc	5 199 17
	incq	%rdx
	cmpq	%rdx, %rcx
	jne	LBB0_16
Ltmp44:
	subq	%rdx, %rax
Ltmp45:
LBB0_18:
	.loc	5 0 17
	xorl	%r13d, %r13d
Ltmp46:
	.loc	5 199 17
	cmpq	$7, %rbx
	jb	LBB0_20
Ltmp47:
	.p2align	4, 0x90
LBB0_19:
	.loc	5 0 0
	movq	544(%rdi), %rcx
Ltmp48:
	movq	544(%rcx), %rcx
Ltmp49:
	movq	544(%rcx), %rcx
Ltmp50:
	movq	544(%rcx), %rcx
Ltmp51:
	movq	544(%rcx), %rcx
Ltmp52:
	movq	544(%rcx), %rcx
Ltmp53:
	movq	544(%rcx), %rcx
Ltmp54:
	movq	544(%rcx), %rdi
Ltmp55:
	.loc	4 680 12 is_stmt 1
	addq	$-8, %rax
Ltmp56:
	.loc	5 199 17
	jne	LBB0_19
	jmp	LBB0_20
Ltmp57:
LBB0_11:
	.loc	5 0 17 is_stmt 0
	incq	%r13
Ltmp58:
	jmp	LBB0_20
Ltmp59:
LBB0_13:
	xorl	%r13d, %r13d
Ltmp60:
LBB0_20:
	.loc	5 166 36 is_stmt 1
	movq	-64(%rbp), %r8
	movq	%r8, -136(%rbp)
	movq	-80(%rbp), %rcx
	movq	-72(%rbp), %rdx
	movq	%rdx, -144(%rbp)
	movq	%rcx, -152(%rbp)
	.loc	5 166 35 is_stmt 0
	movq	-104(%rbp), %rsi
	movq	-96(%rbp), %rbx
	movq	%rsi, -128(%rbp)
	movq	%rbx, -120(%rbp)
	movq	-88(%rbp), %rax
	movq	%rax, -112(%rbp)
	.loc	5 166 13
	movq	%rax, 40(%r9)
	movq	%rbx, 32(%r9)
	movq	%rsi, 24(%r9)
	movq	%r8, 16(%r9)
	movq	%rdx, 8(%r9)
	movq	%rcx, (%r9)
Ltmp61:
	.loc	3 836 42 is_stmt 1
	movq	$0, (%r12)
	movq	%rdi, 8(%r12)
	movq	%r10, 16(%r12)
	movq	%r13, 24(%r12)
Ltmp62:
LBB0_22:
	.loc	1 1605 6
	addq	$120, %rsp
	popq	%rbx
	popq	%r12
	popq	%r13
	popq	%r14
	popq	%r15
	popq	%rbp
	retq
LBB0_23:
Ltmp63:
	.file	7 "/rustc/a74d1862d4d87a56244958416fd05976c58ca1a8/src/libcore/macros/mod.rs"
	.loc	7 10 9
	leaq	l___unnamed_7(%rip), %rdi
	leaq	l___unnamed_8(%rip), %rdx
	movl	$43, %esi
	callq	__ZN4core9panicking5panic17h736ee47a631475c0E
Ltmp64:
Lfunc_end0:
	.cfi_endproc
	.file	8 "/rustc/a74d1862d4d87a56244958416fd05976c58ca1a8/src/libcore/result.rs"

	.p2align	4, 0x90
__ZN42_$LT$$RF$T$u20$as$u20$core..fmt..Debug$GT$3fmt17h086760cd9cc2fc53E:
Lfunc_begin1:
	.file	9 "/rustc/a74d1862d4d87a56244958416fd05976c58ca1a8/src/libcore/fmt/mod.rs"
	.loc	9 1973 0
	.cfi_startproc
	pushq	%rbp
	.cfi_def_cfa_offset 16
	.cfi_offset %rbp, -16
	movq	%rsp, %rbp
	.cfi_def_cfa_register %rbp
	movq	%rsi, %rdx
Ltmp65:
	.loc	9 1973 71 prologue_end
	movq	(%rdi), %rax
	.loc	9 1973 62 is_stmt 0
	movq	(%rax), %rdi
Ltmp66:
	movq	8(%rax), %rsi
Ltmp67:
	.loc	9 1973 62
	popq	%rbp
	jmp	__ZN40_$LT$str$u20$as$u20$core..fmt..Debug$GT$3fmt17h2760aab2290546fcE
Ltmp68:
Lfunc_end1:
	.cfi_endproc

	.p2align	4, 0x90
__ZN42_$LT$$RF$T$u20$as$u20$core..fmt..Debug$GT$3fmt17hb4956a24ed60cb51E:
Lfunc_begin2:
	.loc	9 1973 0 is_stmt 1
	.cfi_startproc
	pushq	%rbp
	.cfi_def_cfa_offset 16
	.cfi_offset %rbp, -16
	movq	%rsp, %rbp
	.cfi_def_cfa_register %rbp
	movq	%rsi, %rdx
Ltmp69:
	.loc	9 1973 71 prologue_end
	movq	(%rdi), %rax
Ltmp70:
	.file	10 "/rustc/a74d1862d4d87a56244958416fd05976c58ca1a8/src/liballoc/vec.rs"
	.loc	10 814 19
	movq	(%rax), %rdi
Ltmp71:
	.loc	10 1966 55
	movq	16(%rax), %rsi
Ltmp72:
	.file	11 "/rustc/a74d1862d4d87a56244958416fd05976c58ca1a8/src/liballoc/string.rs"
	.loc	11 1946 9
	popq	%rbp
	jmp	__ZN40_$LT$str$u20$as$u20$core..fmt..Debug$GT$3fmt17h2760aab2290546fcE
Ltmp73:
Lfunc_end2:
	.cfi_endproc

	.p2align	4, 0x90
__ZN44_$LT$$RF$T$u20$as$u20$core..fmt..Display$GT$3fmt17h4527b4c4cbaf495eE:
Lfunc_begin3:
	.loc	9 1973 0
	.cfi_startproc
	pushq	%rbp
	.cfi_def_cfa_offset 16
	.cfi_offset %rbp, -16
	movq	%rsp, %rbp
	.cfi_def_cfa_register %rbp
	movq	%rsi, %rdx
Ltmp74:
	.loc	9 1973 71 prologue_end
	movq	(%rdi), %rax
	movq	8(%rdi), %rsi
	.loc	9 1973 62 is_stmt 0
	movq	%rax, %rdi
Ltmp75:
	popq	%rbp
	jmp	__ZN42_$LT$str$u20$as$u20$core..fmt..Display$GT$3fmt17hd4dee1c1c4ccf892E
Ltmp76:
Lfunc_end3:
	.cfi_endproc

	.p2align	4, 0x90
__ZN4core3ptr13drop_in_place17h1a6bc935aa60ee4eE:
Lfunc_begin4:
	.loc	3 178 0 is_stmt 1
	.cfi_startproc
	.cfi_personality 155, _rust_eh_personality
	.cfi_lsda 16, Lexception0
	pushq	%rbp
	.cfi_def_cfa_offset 16
	.cfi_offset %rbp, -16
	movq	%rsp, %rbp
	.cfi_def_cfa_register %rbp
	pushq	%r15
	pushq	%r14
	pushq	%r13
	pushq	%r12
	pushq	%rbx
	pushq	%rax
	.cfi_offset %rbx, -56
	.cfi_offset %r12, -48
	.cfi_offset %r13, -40
	.cfi_offset %r14, -32
	.cfi_offset %r15, -24
	movq	%rdi, %r14
Ltmp83:
	.loc	10 850 19 prologue_end
	movq	(%rdi), %rbx
Ltmp84:
	.loc	10 2384 81
	movq	16(%rdi), %r12
Ltmp85:
	.loc	3 178 1
	testq	%r12, %r12
	je	LBB4_7
Ltmp86:
	.loc	3 0 0 is_stmt 0
	shlq	$4, %r12
Ltmp87:
	leaq	(%rbx,%r12), %r15
Ltmp88:
	.loc	3 178 1
	addq	$-16, %r12
	addq	$16, %rbx
Ltmp89:
	.loc	3 0 1
	jmp	LBB4_2
Ltmp90:
	.p2align	4, 0x90
LBB4_5:
	.loc	3 178 1
	addq	$-16, %r12
	addq	$16, %rbx
	addq	$16, %r13
	cmpq	%r15, %r13
	je	LBB4_6
Ltmp91:
LBB4_2:
	.loc	3 178 1
	movq	-16(%rbx), %rdi
	movq	-8(%rbx), %rax
Ltmp77:
	callq	*(%rax)
Ltmp78:
Ltmp92:
	leaq	-16(%rbx), %r13
	movq	8(%r13), %rax
Ltmp93:
	.loc	6 282 16 is_stmt 1
	movq	8(%rax), %rsi
Ltmp94:
	.loc	6 185 12
	testq	%rsi, %rsi
	.loc	6 185 9 is_stmt 0
	je	LBB4_5
Ltmp95:
	.loc	3 178 1 is_stmt 1
	movq	-16(%rbx), %rdi
Ltmp96:
	.loc	6 283 17
	movq	16(%rax), %rdx
Ltmp97:
	.loc	6 102 5
	callq	___rust_dealloc
Ltmp98:
	.loc	6 0 5 is_stmt 0
	jmp	LBB4_5
Ltmp99:
LBB4_6:
	.loc	3 178 1 is_stmt 1
	movq	(%r14), %rbx
Ltmp100:
LBB4_7:
	movq	8(%r14), %rsi
Ltmp101:
	.file	12 "/rustc/a74d1862d4d87a56244958416fd05976c58ca1a8/src/liballoc/raw_vec.rs"
	.loc	12 200 40
	testq	%rsi, %rsi
	.loc	12 200 9 is_stmt 0
	je	LBB4_14
Ltmp102:
	.loc	12 532 16 is_stmt 1
	testq	%rbx, %rbx
Ltmp103:
	je	LBB4_14
Ltmp104:
	.loc	12 0 0 is_stmt 0
	shlq	$4, %rsi
Ltmp105:
	.loc	12 532 16
	je	LBB4_14
Ltmp106:
	.loc	6 102 5 is_stmt 1
	movl	$8, %edx
	movq	%rbx, %rdi
	addq	$8, %rsp
	popq	%rbx
Ltmp107:
	popq	%r12
	popq	%r13
	popq	%r14
Ltmp108:
	popq	%r15
	popq	%rbp
	jmp	___rust_dealloc
Ltmp109:
LBB4_14:
	.loc	3 178 1
	addq	$8, %rsp
	popq	%rbx
	popq	%r12
	popq	%r13
	popq	%r14
Ltmp110:
	popq	%r15
	popq	%rbp
	retq
LBB4_11:
Ltmp111:
Ltmp79:
	.loc	3 0 1 is_stmt 0
	movq	%rax, %r15
Ltmp112:
	.loc	3 178 1
	movq	-16(%rbx), %rdi
	movq	-8(%rbx), %rsi
	callq	__ZN5alloc5alloc8box_free17h21564975136da20bE
Ltmp113:
	.loc	3 178 1
	testq	%r12, %r12
	je	LBB4_16
Ltmp114:
	.p2align	4, 0x90
LBB4_12:
Ltmp80:
	movq	%rbx, %rdi
	callq	__ZN4core3ptr13drop_in_place17h9bc6c7e2c0d8ef60E
Ltmp81:
Ltmp115:
	addq	$16, %rbx
	addq	$-16, %r12
	jne	LBB4_12
	jmp	LBB4_16
Ltmp116:
LBB4_15:
Ltmp82:
	.loc	3 0 1
	movq	%rax, %r15
Ltmp117:
LBB4_16:
	.loc	3 178 1
	movq	(%r14), %rdi
	movq	8(%r14), %rsi
	callq	__ZN4core3ptr13drop_in_place17ha9f21f640ce186c3E
	movq	%r15, %rdi
	callq	__Unwind_Resume
	ud2
Ltmp118:
Lfunc_end4:
	.cfi_endproc
	.section	__TEXT,__gcc_except_tab
	.p2align	2
GCC_except_table4:
Lexception0:
	.byte	255
	.byte	255
	.byte	1
	.uleb128 Lcst_end0-Lcst_begin0
Lcst_begin0:
	.uleb128 Ltmp77-Lfunc_begin4
	.uleb128 Ltmp78-Ltmp77
	.uleb128 Ltmp79-Lfunc_begin4
	.byte	0
	.uleb128 Ltmp80-Lfunc_begin4
	.uleb128 Ltmp81-Ltmp80
	.uleb128 Ltmp82-Lfunc_begin4
	.byte	0
	.uleb128 Ltmp81-Lfunc_begin4
	.uleb128 Lfunc_end4-Ltmp81
	.byte	0
	.byte	0
Lcst_end0:
	.p2align	2

	.section	__TEXT,__text,regular,pure_instructions
	.p2align	4, 0x90
__ZN4core3ptr13drop_in_place17h28b4bf753e3d60b6E:
Lfunc_begin5:
	.loc	3 178 0 is_stmt 1
	.cfi_startproc
	pushq	%rbp
	.cfi_def_cfa_offset 16
	.cfi_offset %rbp, -16
	movq	%rsp, %rbp
	.cfi_def_cfa_register %rbp
Ltmp119:
	.loc	3 178 1 prologue_end
	movq	(%rdi), %rax
Ltmp120:
	testq	%rax, %rax
	je	LBB5_2
Ltmp121:
	.file	13 "/rustc/a74d1862d4d87a56244958416fd05976c58ca1a8/src/libstd/ffi/c_str.rs"
	.loc	13 645 13
	movb	$0, (%rax)
Ltmp122:
	.loc	3 178 1
	movq	8(%rdi), %rsi
Ltmp123:
	.loc	6 185 12
	testq	%rsi, %rsi
	.loc	6 185 9 is_stmt 0
	je	LBB5_2
Ltmp124:
	.loc	3 178 1 is_stmt 1
	movq	(%rdi), %rdi
Ltmp125:
	.loc	6 102 5
	movl	$1, %edx
	popq	%rbp
	jmp	___rust_dealloc
Ltmp126:
LBB5_2:
	.loc	3 178 1
	popq	%rbp
	retq
Ltmp127:
Lfunc_end5:
	.cfi_endproc

	.p2align	4, 0x90
__ZN4core3ptr13drop_in_place17h2ac11519a216c754E:
Lfunc_begin6:
	.loc	3 178 0
	.cfi_startproc
	pushq	%rbp
	.cfi_def_cfa_offset 16
	.cfi_offset %rbp, -16
	movq	%rsp, %rbp
	.cfi_def_cfa_register %rbp
Ltmp128:
	.loc	3 178 1 prologue_end
	cmpq	$0, (%rdi)
Ltmp129:
	.loc	3 0 0 is_stmt 0
	movq	8(%rdi), %rax
Ltmp130:
	testq	%rax, %rax
	je	LBB6_2
Ltmp131:
	movq	16(%rdi), %rsi
Ltmp132:
	testq	%rsi, %rsi
	je	LBB6_2
Ltmp133:
	movl	$1, %edx
	movq	%rax, %rdi
Ltmp134:
	popq	%rbp
	jmp	___rust_dealloc
Ltmp135:
LBB6_2:
	.loc	3 178 1
	popq	%rbp
	retq
Ltmp136:
Lfunc_end6:
	.cfi_endproc

	.p2align	4, 0x90
__ZN4core3ptr13drop_in_place17h461d24f1ee0d7721E:
Lfunc_begin7:
	.loc	3 178 0 is_stmt 1
	.cfi_startproc
	pushq	%rbp
	.cfi_def_cfa_offset 16
	.cfi_offset %rbp, -16
	movq	%rsp, %rbp
	.cfi_def_cfa_register %rbp
	pushq	%r15
	pushq	%r14
	pushq	%rbx
	pushq	%rax
	.cfi_offset %rbx, -40
	.cfi_offset %r14, -32
	.cfi_offset %r15, -24
	movq	%rdi, %r14
Ltmp137:
	.loc	10 850 19 prologue_end
	movq	(%rdi), %rbx
Ltmp138:
	.loc	10 2384 81
	movq	16(%rdi), %rax
Ltmp139:
	.loc	3 178 1
	testq	%rax, %rax
	je	LBB7_7
Ltmp140:
	leaq	(%rax,%rax,2), %rax
Ltmp141:
	leaq	(%rbx,%rax,8), %r15
Ltmp142:
	.loc	3 178 1 is_stmt 0
	movq	(%rbx), %rdi
Ltmp143:
	.loc	12 532 16 is_stmt 1
	testq	%rdi, %rdi
Ltmp144:
	.loc	12 200 9
	jne	LBB7_3
Ltmp145:
	.p2align	4, 0x90
LBB7_5:
	.loc	3 178 1
	addq	$24, %rbx
Ltmp146:
	cmpq	%r15, %rbx
	je	LBB7_6
Ltmp147:
LBB7_2:
	.loc	3 178 1 is_stmt 0
	movq	(%rbx), %rdi
Ltmp148:
	.loc	12 532 16 is_stmt 1
	testq	%rdi, %rdi
Ltmp149:
	.loc	12 200 9
	je	LBB7_5
Ltmp150:
LBB7_3:
	.loc	3 0 0 is_stmt 0
	movq	8(%rbx), %rsi
Ltmp151:
	.loc	12 200 9
	testq	%rsi, %rsi
	je	LBB7_5
Ltmp152:
	.loc	6 102 5 is_stmt 1
	movl	$1, %edx
	callq	___rust_dealloc
Ltmp153:
	.loc	3 178 1
	addq	$24, %rbx
Ltmp154:
	cmpq	%r15, %rbx
	jne	LBB7_2
Ltmp155:
LBB7_6:
	.loc	3 178 1 is_stmt 0
	movq	(%r14), %rbx
Ltmp156:
LBB7_7:
	movq	8(%r14), %rax
Ltmp157:
	.loc	12 200 40 is_stmt 1
	testq	%rax, %rax
	.loc	12 200 9 is_stmt 0
	je	LBB7_10
Ltmp158:
	.loc	12 532 16 is_stmt 1
	testq	%rbx, %rbx
Ltmp159:
	je	LBB7_10
Ltmp160:
	.loc	12 0 0 is_stmt 0
	shlq	$3, %rax
	leaq	(%rax,%rax,2), %rsi
Ltmp161:
	.loc	12 532 16
	testq	%rsi, %rsi
	je	LBB7_10
Ltmp162:
	.loc	6 102 5 is_stmt 1
	movl	$8, %edx
	movq	%rbx, %rdi
	addq	$8, %rsp
	popq	%rbx
Ltmp163:
	popq	%r14
Ltmp164:
	popq	%r15
	popq	%rbp
	jmp	___rust_dealloc
Ltmp165:
LBB7_10:
	.loc	3 178 1
	addq	$8, %rsp
	popq	%rbx
	popq	%r14
Ltmp166:
	popq	%r15
	popq	%rbp
	retq
Ltmp167:
Lfunc_end7:
	.cfi_endproc

	.p2align	4, 0x90
__ZN4core3ptr13drop_in_place17h56ca298855abfcebE:
Lfunc_begin8:
	.loc	3 178 0
	.cfi_startproc
	.cfi_personality 155, _rust_eh_personality
	.cfi_lsda 16, Lexception1
	pushq	%rbp
	.cfi_def_cfa_offset 16
	.cfi_offset %rbp, -16
	movq	%rsp, %rbp
	.cfi_def_cfa_register %rbp
Ltmp171:
	pushq	%r15
	pushq	%r14
	pushq	%rbx
	pushq	%rax
	.cfi_offset %rbx, -40
	.cfi_offset %r14, -32
	.cfi_offset %r15, -24
	.loc	3 178 1 prologue_end
	cmpb	$2, (%rdi)
	jae	LBB8_1
Ltmp172:
	.loc	3 178 1 is_stmt 0
	addq	$8, %rsp
	popq	%rbx
	popq	%r14
	popq	%r15
	popq	%rbp
	retq
Ltmp173:
LBB8_1:
	.loc	3 0 1
	movq	%rdi, %r15
Ltmp174:
	.loc	3 178 1
	movq	8(%rdi), %rbx
Ltmp175:
	.loc	3 178 1
	movq	(%rbx), %rdi
	movq	8(%rbx), %rax
Ltmp168:
	callq	*(%rax)
Ltmp169:
Ltmp176:
	movq	8(%rbx), %rax
Ltmp177:
	.loc	6 282 16 is_stmt 1
	movq	8(%rax), %rsi
Ltmp178:
	.loc	6 185 12
	testq	%rsi, %rsi
	.loc	6 185 9 is_stmt 0
	je	LBB8_4
Ltmp179:
	.loc	3 178 1 is_stmt 1
	movq	(%rbx), %rdi
Ltmp180:
	.loc	6 283 17
	movq	16(%rax), %rdx
Ltmp181:
	.loc	6 102 5
	callq	___rust_dealloc
Ltmp182:
LBB8_4:
	.loc	3 178 1
	movq	8(%r15), %rdi
Ltmp183:
	.loc	6 102 5
	movl	$24, %esi
	movl	$8, %edx
	addq	$8, %rsp
	popq	%rbx
	popq	%r14
	popq	%r15
Ltmp184:
	popq	%rbp
	jmp	___rust_dealloc
Ltmp185:
LBB8_6:
Ltmp170:
	.loc	6 0 5 is_stmt 0
	movq	%rax, %r14
Ltmp186:
	.loc	3 178 1 is_stmt 1
	movq	(%rbx), %rdi
	movq	8(%rbx), %rsi
	callq	__ZN5alloc5alloc8box_free17h21564975136da20bE
Ltmp187:
	.loc	3 178 1 is_stmt 0
	movq	8(%r15), %rdi
	callq	__ZN5alloc5alloc8box_free17he5c24c63beed5855E
	movq	%r14, %rdi
	callq	__Unwind_Resume
	ud2
Ltmp188:
Lfunc_end8:
	.cfi_endproc
	.section	__TEXT,__gcc_except_tab
	.p2align	2
GCC_except_table8:
Lexception1:
	.byte	255
	.byte	255
	.byte	1
	.uleb128 Lcst_end1-Lcst_begin1
Lcst_begin1:
	.uleb128 Ltmp168-Lfunc_begin8
	.uleb128 Ltmp169-Ltmp168
	.uleb128 Ltmp170-Lfunc_begin8
	.byte	0
	.uleb128 Ltmp169-Lfunc_begin8
	.uleb128 Lfunc_end8-Ltmp169
	.byte	0
	.byte	0
Lcst_end1:
	.p2align	2

	.section	__TEXT,__text,regular,pure_instructions
	.p2align	4, 0x90
__ZN4core3ptr13drop_in_place17h645831761c4e870bE:
Lfunc_begin9:
	.loc	3 178 0 is_stmt 1
	.cfi_startproc
	pushq	%rbp
	.cfi_def_cfa_offset 16
	.cfi_offset %rbp, -16
	movq	%rsp, %rbp
	.cfi_def_cfa_register %rbp
	movq	%rdi, %rax
Ltmp189:
	.loc	3 178 1 prologue_end
	movq	(%rdi), %rdi
Ltmp190:
	.loc	12 532 16
	testq	%rdi, %rdi
Ltmp191:
	.loc	12 200 9
	je	LBB9_2
Ltmp192:
	.loc	3 0 0 is_stmt 0
	movq	8(%rax), %rsi
Ltmp193:
	.loc	12 200 9
	testq	%rsi, %rsi
	je	LBB9_2
Ltmp194:
	.loc	6 102 5 is_stmt 1
	movl	$1, %edx
	popq	%rbp
	jmp	___rust_dealloc
Ltmp195:
LBB9_2:
	.loc	3 178 1
	popq	%rbp
	retq
Ltmp196:
Lfunc_end9:
	.cfi_endproc

	.p2align	4, 0x90
__ZN4core3ptr13drop_in_place17h7838608ba626ad8aE:
Lfunc_begin10:
	.loc	3 178 0
	.cfi_startproc
	pushq	%rbp
	.cfi_def_cfa_offset 16
	.cfi_offset %rbp, -16
	movq	%rsp, %rbp
	.cfi_def_cfa_register %rbp
Ltmp197:
	.loc	3 178 1 prologue_end
	popq	%rbp
	retq
Ltmp198:
Lfunc_end10:
	.cfi_endproc

	.p2align	4, 0x90
__ZN4core3ptr13drop_in_place17h811e7727da145865E:
Lfunc_begin11:
	.loc	3 178 0
	.cfi_startproc
	pushq	%rbp
	.cfi_def_cfa_offset 16
	.cfi_offset %rbp, -16
	movq	%rsp, %rbp
	.cfi_def_cfa_register %rbp
	movq	%rdi, %rax
Ltmp199:
	.loc	3 178 1 prologue_end
	movq	(%rdi), %rdi
Ltmp200:
	testq	%rdi, %rdi
	je	LBB11_2
Ltmp201:
	.loc	3 178 1 is_stmt 0
	movq	8(%rax), %rsi
Ltmp202:
	.loc	12 200 40 is_stmt 1
	testq	%rsi, %rsi
	.loc	12 200 9 is_stmt 0
	je	LBB11_2
Ltmp203:
	.loc	6 102 5 is_stmt 1
	movl	$1, %edx
	popq	%rbp
	jmp	___rust_dealloc
Ltmp204:
LBB11_2:
	.loc	3 178 1
	popq	%rbp
	retq
Ltmp205:
Lfunc_end11:
	.cfi_endproc

	.p2align	4, 0x90
__ZN4core3ptr13drop_in_place17h9bc6c7e2c0d8ef60E:
Lfunc_begin12:
	.loc	3 178 0
	.cfi_startproc
	.cfi_personality 155, _rust_eh_personality
	.cfi_lsda 16, Lexception2
	pushq	%rbp
	.cfi_def_cfa_offset 16
	.cfi_offset %rbp, -16
	movq	%rsp, %rbp
	.cfi_def_cfa_register %rbp
	pushq	%r14
	pushq	%rbx
	.cfi_offset %rbx, -32
	.cfi_offset %r14, -24
	movq	%rdi, %rbx
Ltmp209:
	.loc	3 178 1 prologue_end
	movq	(%rdi), %rdi
	movq	8(%rbx), %rax
Ltmp206:
	callq	*(%rax)
Ltmp207:
Ltmp210:
	movq	8(%rbx), %rax
Ltmp211:
	.loc	6 282 16
	movq	8(%rax), %rsi
Ltmp212:
	.loc	6 185 12
	testq	%rsi, %rsi
	.loc	6 185 9 is_stmt 0
	je	LBB12_2
Ltmp213:
	.loc	3 178 1 is_stmt 1
	movq	(%rbx), %rdi
Ltmp214:
	.loc	6 283 17
	movq	16(%rax), %rdx
Ltmp215:
	.loc	6 102 5
	popq	%rbx
Ltmp216:
	popq	%r14
	popq	%rbp
	jmp	___rust_dealloc
Ltmp217:
LBB12_2:
	.loc	3 178 1
	popq	%rbx
Ltmp218:
	popq	%r14
	popq	%rbp
	retq
LBB12_3:
Ltmp219:
Ltmp208:
	.loc	3 0 1 is_stmt 0
	movq	%rax, %r14
	.loc	3 178 1
	movq	(%rbx), %rdi
	movq	8(%rbx), %rsi
	callq	__ZN5alloc5alloc8box_free17h21564975136da20bE
	movq	%r14, %rdi
	callq	__Unwind_Resume
	ud2
Ltmp220:
Lfunc_end12:
	.cfi_endproc
	.section	__TEXT,__gcc_except_tab
	.p2align	2
GCC_except_table12:
Lexception2:
	.byte	255
	.byte	255
	.byte	1
	.uleb128 Lcst_end2-Lcst_begin2
Lcst_begin2:
	.uleb128 Ltmp206-Lfunc_begin12
	.uleb128 Ltmp207-Ltmp206
	.uleb128 Ltmp208-Lfunc_begin12
	.byte	0
	.uleb128 Ltmp207-Lfunc_begin12
	.uleb128 Lfunc_end12-Ltmp207
	.byte	0
	.byte	0
Lcst_end2:
	.p2align	2

	.section	__TEXT,__text,regular,pure_instructions
	.p2align	4, 0x90
__ZN4core3ptr13drop_in_place17h9bcc1f8651951d51E:
Lfunc_begin13:
	.loc	3 178 0 is_stmt 1
	.cfi_startproc
	pushq	%rbp
	.cfi_def_cfa_offset 16
	.cfi_offset %rbp, -16
	movq	%rsp, %rbp
	.cfi_def_cfa_register %rbp
	movq	%rdi, %rax
Ltmp221:
	.loc	3 178 1 prologue_end
	movq	(%rdi), %rdi
Ltmp222:
	.loc	12 532 16
	testq	%rdi, %rdi
Ltmp223:
	.loc	12 200 9
	je	LBB13_2
Ltmp224:
	.loc	3 0 0 is_stmt 0
	movq	8(%rax), %rsi
Ltmp225:
	.loc	12 200 9
	testq	%rsi, %rsi
	je	LBB13_2
Ltmp226:
	.loc	6 102 5 is_stmt 1
	movl	$1, %edx
	popq	%rbp
	jmp	___rust_dealloc
Ltmp227:
LBB13_2:
	.loc	3 178 1
	popq	%rbp
	retq
Ltmp228:
Lfunc_end13:
	.cfi_endproc

	.p2align	4, 0x90
__ZN4core3ptr13drop_in_place17ha9f21f640ce186c3E:
Lfunc_begin14:
	.loc	3 178 0
	.cfi_startproc
	pushq	%rbp
	.cfi_def_cfa_offset 16
	.cfi_offset %rbp, -16
	movq	%rsp, %rbp
	.cfi_def_cfa_register %rbp
Ltmp229:
	.loc	12 200 40 prologue_end
	testq	%rsi, %rsi
	.loc	12 200 9 is_stmt 0
	je	LBB14_3
Ltmp230:
	.loc	12 532 16 is_stmt 1
	testq	%rdi, %rdi
Ltmp231:
	je	LBB14_3
Ltmp232:
	.loc	12 0 0 is_stmt 0
	shlq	$4, %rsi
Ltmp233:
	.loc	12 532 16
	je	LBB14_3
Ltmp234:
	.loc	6 102 5 is_stmt 1
	movl	$8, %edx
	popq	%rbp
	jmp	___rust_dealloc
Ltmp235:
LBB14_3:
	.loc	3 178 1
	popq	%rbp
	retq
Ltmp236:
Lfunc_end14:
	.cfi_endproc

	.p2align	4, 0x90
__ZN4core3ptr13drop_in_place17haa65ecf5741b3fecE:
Lfunc_begin15:
	.loc	3 178 0
	.cfi_startproc
	pushq	%rbp
	.cfi_def_cfa_offset 16
	.cfi_offset %rbp, -16
	movq	%rsp, %rbp
	.cfi_def_cfa_register %rbp
Ltmp237:
	.loc	3 178 1 prologue_end
	cmpl	$3, (%rdi)
	jne	LBB15_1
Ltmp238:
	.loc	3 178 1 is_stmt 0
	addq	$4, %rdi
Ltmp239:
	.loc	3 178 1
	popq	%rbp
	jmp	__ZN70_$LT$std..sys..unix..fd..FileDesc$u20$as$u20$core..ops..drop..Drop$GT$4drop17hf5fce2bf4d9f8deaE
Ltmp240:
LBB15_1:
	.loc	3 178 1
	popq	%rbp
	retq
Ltmp241:
Lfunc_end15:
	.cfi_endproc

	.p2align	4, 0x90
__ZN4core3ptr13drop_in_place17hd45d887a86263733E:
Lfunc_begin16:
	.loc	3 178 0 is_stmt 1
	.cfi_startproc
	.cfi_personality 155, _rust_eh_personality
	.cfi_lsda 16, Lexception3
	pushq	%rbp
	.cfi_def_cfa_offset 16
	.cfi_offset %rbp, -16
	movq	%rsp, %rbp
	.cfi_def_cfa_register %rbp
	pushq	%r15
	pushq	%r14
	pushq	%r13
	pushq	%r12
	pushq	%rbx
	subq	$120, %rsp
	.cfi_offset %rbx, -56
	.cfi_offset %r12, -48
	.cfi_offset %r13, -40
	.cfi_offset %r14, -32
	.cfi_offset %r15, -24
	movq	%rdi, %r14
Ltmp259:
	.loc	13 645 14 prologue_end
	movq	(%rdi), %rax
Ltmp260:
	.loc	13 645 13 is_stmt 0
	movb	$0, (%rax)
Ltmp261:
	.loc	3 178 1 is_stmt 1
	movq	8(%rdi), %rsi
Ltmp262:
	.loc	6 185 12
	testq	%rsi, %rsi
	.loc	6 185 9 is_stmt 0
	je	LBB16_2
Ltmp263:
	.loc	3 178 1 is_stmt 1
	movq	(%r14), %rdi
Ltmp264:
	.loc	6 102 5
	movl	$1, %edx
	callq	___rust_dealloc
Ltmp265:
LBB16_2:
	.loc	10 850 19
	movq	16(%r14), %rbx
Ltmp266:
	.loc	10 2384 81
	movq	32(%r14), %r15
Ltmp267:
	.loc	3 178 1
	testq	%r15, %r15
	je	LBB16_8
Ltmp268:
	shlq	$4, %r15
Ltmp269:
	addq	%rbx, %r15
	jmp	LBB16_4
Ltmp270:
	.p2align	4, 0x90
LBB16_6:
	addq	$16, %rbx
Ltmp271:
	cmpq	%r15, %rbx
	je	LBB16_7
Ltmp272:
LBB16_4:
	.loc	13 645 14
	movq	(%rbx), %rax
Ltmp273:
	.loc	13 645 13 is_stmt 0
	movb	$0, (%rax)
Ltmp274:
	.loc	3 178 1 is_stmt 1
	movq	8(%rbx), %rsi
Ltmp275:
	.loc	6 185 12
	testq	%rsi, %rsi
	.loc	6 185 9 is_stmt 0
	je	LBB16_6
Ltmp276:
	.loc	3 178 1 is_stmt 1
	movq	(%rbx), %rdi
Ltmp277:
	.loc	6 102 5
	movl	$1, %edx
	callq	___rust_dealloc
Ltmp278:
	.loc	6 0 5 is_stmt 0
	jmp	LBB16_6
Ltmp279:
LBB16_7:
	.loc	3 178 1 is_stmt 1
	movq	16(%r14), %rbx
Ltmp280:
LBB16_8:
	movq	24(%r14), %rsi
Ltmp281:
	.loc	12 200 40
	testq	%rsi, %rsi
	.loc	12 200 9 is_stmt 0
	je	LBB16_12
Ltmp282:
	.loc	12 532 16 is_stmt 1
	testq	%rbx, %rbx
Ltmp283:
	je	LBB16_12
Ltmp284:
	.loc	12 0 0 is_stmt 0
	shlq	$4, %rsi
Ltmp285:
	.loc	12 532 16
	je	LBB16_12
Ltmp286:
	.loc	6 102 5 is_stmt 1
	movl	$8, %edx
	movq	%rbx, %rdi
	callq	___rust_dealloc
Ltmp287:
LBB16_12:
	.loc	3 178 1
	movq	48(%r14), %rsi
Ltmp288:
	.loc	12 200 40
	testq	%rsi, %rsi
	.loc	12 200 9 is_stmt 0
	je	LBB16_16
Ltmp289:
	.loc	3 0 0
	movq	40(%r14), %rdi
Ltmp290:
	.loc	12 532 16 is_stmt 1
	testq	%rdi, %rdi
Ltmp291:
	je	LBB16_16
Ltmp292:
	.loc	12 0 0 is_stmt 0
	shlq	$3, %rsi
Ltmp293:
	.loc	12 532 16
	testq	%rsi, %rsi
	je	LBB16_16
Ltmp294:
	.loc	6 102 5 is_stmt 1
	movl	$8, %edx
	callq	___rust_dealloc
Ltmp295:
LBB16_16:
	.loc	3 178 1
	movq	64(%r14), %rcx
Ltmp296:
	.loc	1 1544 16
	testq	%rcx, %rcx
	je	LBB16_17
Ltmp297:
	.loc	3 0 0 is_stmt 0
	movq	72(%r14), %rdi
Ltmp298:
	movq	80(%r14), %rax
Ltmp299:
	.loc	4 293 9 is_stmt 1
	movzwl	10(%rcx), %edx
Ltmp300:
	.loc	4 680 12
	testq	%rdi, %rdi
Ltmp301:
	.loc	1 2136 14
	je	LBB16_32
Ltmp302:
	.loc	1 0 14 is_stmt 0
	movb	$1, %bl
	movq	%rcx, %rsi
Ltmp303:
	.p2align	4, 0x90
LBB16_36:
	.loc	1 2139 33 is_stmt 1
	testb	$1, %bl
	je	LBB16_33
Ltmp304:
	.loc	4 680 12
	cmpq	$1, %rdi
	setne	%bl
Ltmp305:
	.loc	4 963 17
	movq	544(%rcx), %rcx
Ltmp306:
	.loc	4 963 17 is_stmt 0
	movq	544(%rsi,%rdx,8), %rsi
Ltmp307:
	.loc	4 293 9 is_stmt 1
	movzwl	10(%rsi), %edx
Ltmp308:
	.loc	4 680 12
	decq	%rdi
Ltmp309:
	.loc	1 2136 14
	jne	LBB16_36
	jmp	LBB16_38
Ltmp310:
LBB16_17:
	.loc	1 1549 13
	movq	$0, -104(%rbp)
	movq	$0, -72(%rbp)
	xorl	%eax, %eax
	jmp	LBB16_39
Ltmp311:
LBB16_32:
	.loc	1 0 13 is_stmt 0
	movq	%rcx, %rsi
Ltmp312:
LBB16_38:
	.loc	1 1547 13 is_stmt 1
	movq	$0, -112(%rbp)
	movq	%rcx, -104(%rbp)
	movq	$0, -96(%rbp)
	movq	$0, -88(%rbp)
	movq	$0, -80(%rbp)
	movq	%rsi, -72(%rbp)
	movq	$0, -64(%rbp)
	movq	%rdx, -56(%rbp)
Ltmp313:
LBB16_39:
	.loc	1 0 0 is_stmt 0
	movq	%rax, -48(%rbp)
Ltmp314:
Ltmp244:
	leaq	-160(%rbp), %rdi
	leaq	-112(%rbp), %rsi
Ltmp315:
	.loc	1 1575 32 is_stmt 1
	callq	__ZN112_$LT$alloc..collections..btree..map..IntoIter$LT$K$C$V$GT$$u20$as$u20$core..iter..traits..iterator..Iterator$GT$4next17h8730f288de8c0b97E
Ltmp245:
Ltmp316:
	.loc	1 1575 19 is_stmt 0
	movq	-160(%rbp), %rdi
	testq	%rdi, %rdi
	je	LBB16_50
Ltmp317:
	.loc	1 0 19
	leaq	-160(%rbp), %r15
	leaq	-112(%rbp), %r12
Ltmp318:
	.p2align	4, 0x90
LBB16_42:
	.loc	1 1575 24
	movq	-136(%rbp), %rbx
Ltmp319:
	movq	-128(%rbp), %r13
Ltmp320:
	.loc	12 532 16 is_stmt 1
	testq	%rdi, %rdi
Ltmp321:
	.loc	12 200 9
	je	LBB16_45
Ltmp322:
	.loc	1 0 0 is_stmt 0
	movq	-152(%rbp), %rsi
Ltmp323:
	.loc	12 200 9
	testq	%rsi, %rsi
	je	LBB16_45
Ltmp324:
	.loc	6 102 5 is_stmt 1
	movl	$1, %edx
	callq	___rust_dealloc
Ltmp325:
LBB16_45:
	.loc	3 178 1
	testq	%rbx, %rbx
Ltmp326:
	je	LBB16_48
Ltmp327:
	testq	%r13, %r13
	je	LBB16_48
Ltmp328:
	.loc	6 102 5
	movl	$1, %edx
	movq	%rbx, %rdi
	movq	%r13, %rsi
	callq	___rust_dealloc
Ltmp329:
LBB16_48:
Ltmp247:
	.loc	1 1575 32
	movq	%r15, %rdi
	movq	%r12, %rsi
	callq	__ZN112_$LT$alloc..collections..btree..map..IntoIter$LT$K$C$V$GT$$u20$as$u20$core..iter..traits..iterator..Iterator$GT$4next17h8730f288de8c0b97E
Ltmp248:
Ltmp330:
	.loc	1 1575 19 is_stmt 0
	movq	-160(%rbp), %rdi
	testq	%rdi, %rdi
	jne	LBB16_42
Ltmp331:
LBB16_50:
	.loc	3 651 5 is_stmt 1
	movq	-104(%rbp), %rdi
Ltmp332:
	.loc	1 1582 20
	testq	%rdi, %rdi
	je	LBB16_27
Ltmp333:
	.loc	3 651 5
	movq	-112(%rbp), %rax
Ltmp334:
	.loc	3 0 5 is_stmt 0
	movl	$544, %r15d
Ltmp335:
	.p2align	4, 0x90
LBB16_52:
	.loc	4 344 30 is_stmt 1
	movq	(%rdi), %r12
Ltmp336:
	.loc	4 345 16
	xorl	%ebx, %ebx
	testq	%r12, %r12
	setne	%bl
	addq	%rax, %rbx
Ltmp337:
	.loc	4 397 16
	testq	%rax, %rax
	.loc	4 397 13 is_stmt 0
	movl	$640, %esi
	cmoveq	%r15, %rsi
Ltmp338:
	.loc	6 102 5 is_stmt 1
	movl	$8, %edx
	callq	___rust_dealloc
Ltmp339:
	.loc	1 0 0 is_stmt 0
	movq	%rbx, %rax
	movq	%r12, %rdi
Ltmp340:
	.loc	4 345 16 is_stmt 1
	testq	%r12, %r12
Ltmp341:
	.loc	1 1586 27
	jne	LBB16_52
Ltmp342:
LBB16_27:
	.loc	3 178 1
	movq	96(%r14), %rax
Ltmp343:
	testq	%rax, %rax
	je	LBB16_30
Ltmp344:
	.loc	13 645 13
	movb	$0, (%rax)
Ltmp345:
	.loc	3 178 1
	movq	104(%r14), %rsi
Ltmp346:
	.loc	6 185 12
	testq	%rsi, %rsi
	.loc	6 185 9 is_stmt 0
	je	LBB16_30
Ltmp347:
	.loc	3 178 1 is_stmt 1
	movq	96(%r14), %rdi
Ltmp348:
	.loc	6 102 5
	movl	$1, %edx
	callq	___rust_dealloc
Ltmp349:
LBB16_30:
	.loc	3 178 1
	leaq	112(%r14), %rdi
Ltmp250:
	callq	__ZN4core3ptr13drop_in_place17h1a6bc935aa60ee4eE
Ltmp251:
Ltmp350:
	.loc	3 178 1 is_stmt 0
	cmpl	$3, 152(%r14)
	jne	LBB16_23
Ltmp351:
	.loc	3 178 1
	leaq	156(%r14), %rdi
Ltmp352:
Ltmp253:
	.loc	3 178 1
	callq	__ZN70_$LT$std..sys..unix..fd..FileDesc$u20$as$u20$core..ops..drop..Drop$GT$4drop17hf5fce2bf4d9f8deaE
Ltmp353:
Ltmp254:
LBB16_23:
	.loc	3 178 1
	cmpl	$3, 160(%r14)
	jne	LBB16_21
Ltmp354:
	.loc	3 178 1
	leaq	164(%r14), %rdi
Ltmp355:
Ltmp256:
	.loc	3 178 1
	callq	__ZN70_$LT$std..sys..unix..fd..FileDesc$u20$as$u20$core..ops..drop..Drop$GT$4drop17hf5fce2bf4d9f8deaE
Ltmp356:
Ltmp257:
LBB16_21:
	.loc	3 178 1
	cmpl	$3, 168(%r14)
	jne	LBB16_59
Ltmp357:
	.loc	3 178 1
	addq	$172, %r14
Ltmp358:
	.loc	3 178 1
	movq	%r14, %rdi
	addq	$120, %rsp
	popq	%rbx
	popq	%r12
	popq	%r13
	popq	%r14
Ltmp359:
	popq	%r15
	popq	%rbp
	jmp	__ZN70_$LT$std..sys..unix..fd..FileDesc$u20$as$u20$core..ops..drop..Drop$GT$4drop17hf5fce2bf4d9f8deaE
Ltmp360:
LBB16_59:
	.loc	3 178 1
	addq	$120, %rsp
	popq	%rbx
	popq	%r12
	popq	%r13
	popq	%r14
Ltmp361:
	popq	%r15
	popq	%rbp
	retq
LBB16_33:
Ltmp362:
	.loc	7 16 38 is_stmt 1
	leaq	__ZN44_$LT$$RF$T$u20$as$u20$core..fmt..Display$GT$3fmt17h4527b4c4cbaf495eE(%rip), %rax
Ltmp363:
	movq	%rax, %xmm0
	leaq	l___unnamed_9(%rip), %rax
	movq	%rax, %xmm1
	punpcklqdq	%xmm0, %xmm1
	movdqa	%xmm1, -160(%rbp)
Ltmp364:
	.loc	9 328 9
	leaq	l___unnamed_10(%rip), %rax
Ltmp365:
	movq	%rax, -112(%rbp)
	movq	$1, -104(%rbp)
	movq	$0, -96(%rbp)
	leaq	-160(%rbp), %rax
Ltmp366:
	movq	%rax, -80(%rbp)
	movq	$1, -72(%rbp)
Ltmp367:
Ltmp242:
	.loc	7 16 9
	leaq	l___unnamed_11(%rip), %rsi
	leaq	-112(%rbp), %rdi
Ltmp368:
	callq	__ZN4core9panicking9panic_fmt17hab6ef1464e9720aaE
Ltmp369:
Ltmp243:
	ud2
Ltmp370:
LBB16_58:
Ltmp258:
	.loc	7 0 9 is_stmt 0
	movq	%rax, %rbx
	jmp	LBB16_20
Ltmp371:
LBB16_18:
Ltmp255:
	movq	%rax, %rbx
	jmp	LBB16_19
Ltmp372:
LBB16_54:
Ltmp246:
	jmp	LBB16_55
Ltmp373:
LBB16_57:
Ltmp252:
	movq	%rax, %rbx
	jmp	LBB16_56
Ltmp374:
LBB16_53:
Ltmp249:
LBB16_55:
	movq	%rax, %rbx
	.loc	3 178 1 is_stmt 1
	leaq	96(%r14), %rdi
	callq	__ZN4core3ptr13drop_in_place17h28b4bf753e3d60b6E
	leaq	112(%r14), %rdi
	callq	__ZN4core3ptr13drop_in_place17h1a6bc935aa60ee4eE
Ltmp375:
LBB16_56:
	leaq	152(%r14), %rdi
	callq	__ZN4core3ptr13drop_in_place17haa65ecf5741b3fecE
Ltmp376:
LBB16_19:
	leaq	160(%r14), %rdi
	callq	__ZN4core3ptr13drop_in_place17haa65ecf5741b3fecE
Ltmp377:
LBB16_20:
	addq	$168, %r14
Ltmp378:
	movq	%r14, %rdi
	callq	__ZN4core3ptr13drop_in_place17haa65ecf5741b3fecE
	movq	%rbx, %rdi
	callq	__Unwind_Resume
	ud2
Ltmp379:
Lfunc_end16:
	.cfi_endproc
	.file	14 "/rustc/a74d1862d4d87a56244958416fd05976c58ca1a8/src/libcore/mem/mod.rs"
	.section	__TEXT,__gcc_except_tab
	.p2align	2
GCC_except_table16:
Lexception3:
	.byte	255
	.byte	255
	.byte	1
	.uleb128 Lcst_end3-Lcst_begin3
Lcst_begin3:
	.uleb128 Ltmp244-Lfunc_begin16
	.uleb128 Ltmp245-Ltmp244
	.uleb128 Ltmp246-Lfunc_begin16
	.byte	0
	.uleb128 Ltmp247-Lfunc_begin16
	.uleb128 Ltmp248-Ltmp247
	.uleb128 Ltmp249-Lfunc_begin16
	.byte	0
	.uleb128 Ltmp250-Lfunc_begin16
	.uleb128 Ltmp251-Ltmp250
	.uleb128 Ltmp252-Lfunc_begin16
	.byte	0
	.uleb128 Ltmp253-Lfunc_begin16
	.uleb128 Ltmp254-Ltmp253
	.uleb128 Ltmp255-Lfunc_begin16
	.byte	0
	.uleb128 Ltmp256-Lfunc_begin16
	.uleb128 Ltmp257-Ltmp256
	.uleb128 Ltmp258-Lfunc_begin16
	.byte	0
	.uleb128 Ltmp257-Lfunc_begin16
	.uleb128 Ltmp242-Ltmp257
	.byte	0
	.byte	0
	.uleb128 Ltmp242-Lfunc_begin16
	.uleb128 Ltmp243-Ltmp242
	.uleb128 Ltmp246-Lfunc_begin16
	.byte	0
	.uleb128 Ltmp243-Lfunc_begin16
	.uleb128 Lfunc_end16-Ltmp243
	.byte	0
	.byte	0
Lcst_end3:
	.p2align	2

	.section	__TEXT,__text,regular,pure_instructions
	.p2align	4, 0x90
__ZN4core3ptr13drop_in_place17hd4f4d739f60c3f05E:
Lfunc_begin17:
	.loc	3 178 0
	.cfi_startproc
	pushq	%rbp
	.cfi_def_cfa_offset 16
	.cfi_offset %rbp, -16
	movq	%rsp, %rbp
	.cfi_def_cfa_register %rbp
	movq	%rdi, %rax
Ltmp380:
	.loc	3 178 1 prologue_end
	movq	(%rdi), %rdi
Ltmp381:
	.loc	12 532 16
	testq	%rdi, %rdi
Ltmp382:
	.loc	12 200 9
	je	LBB17_2
Ltmp383:
	.loc	3 0 0 is_stmt 0
	movq	8(%rax), %rsi
Ltmp384:
	.loc	12 200 9
	testq	%rsi, %rsi
	je	LBB17_2
Ltmp385:
	.loc	6 102 5 is_stmt 1
	movl	$1, %edx
	popq	%rbp
	jmp	___rust_dealloc
Ltmp386:
LBB17_2:
	.loc	3 178 1
	popq	%rbp
	retq
Ltmp387:
Lfunc_end17:
	.cfi_endproc

	.p2align	4, 0x90
__ZN4core3ptr13drop_in_place17hf22588022c6b77c7E:
Lfunc_begin18:
	.loc	3 178 0
	.cfi_startproc
	pushq	%rbp
	.cfi_def_cfa_offset 16
	.cfi_offset %rbp, -16
	movq	%rsp, %rbp
	.cfi_def_cfa_register %rbp
	movq	%rdi, %rax
Ltmp388:
	.loc	3 178 1 prologue_end
	movq	(%rdi), %rdi
Ltmp389:
	.loc	12 532 16
	testq	%rdi, %rdi
Ltmp390:
	.loc	12 200 9
	je	LBB18_2
Ltmp391:
	.loc	3 0 0 is_stmt 0
	movq	8(%rax), %rsi
Ltmp392:
	.loc	12 200 9
	testq	%rsi, %rsi
	je	LBB18_2
Ltmp393:
	.loc	6 102 5 is_stmt 1
	movl	$1, %edx
	popq	%rbp
	jmp	___rust_dealloc
Ltmp394:
LBB18_2:
	.loc	3 178 1
	popq	%rbp
	retq
Ltmp395:
Lfunc_end18:
	.cfi_endproc

	.p2align	4, 0x90
__ZN4core3str21_$LT$impl$u20$str$GT$12trim_matches17h794539ae1a5068a3E:
Lfunc_begin19:
	.file	15 "/rustc/a74d1862d4d87a56244958416fd05976c58ca1a8/src/libcore/str/mod.rs"
	.loc	15 3979 0
	.cfi_startproc
	pushq	%rbp
	.cfi_def_cfa_offset 16
	.cfi_offset %rbp, -16
	movq	%rsp, %rbp
	.cfi_def_cfa_register %rbp
	pushq	%r15
	pushq	%r14
	pushq	%r12
	pushq	%rbx
	.cfi_offset %rbx, -48
	.cfi_offset %r12, -40
	.cfi_offset %r14, -32
	.cfi_offset %r15, -24
	movq	%rdi, %rax
Ltmp396:
	.file	16 "/rustc/a74d1862d4d87a56244958416fd05976c58ca1a8/src/libcore/ptr/const_ptr.rs"
	.loc	16 0 0 prologue_end
	leaq	(%rdi,%rsi), %r9
	xorl	%edi, %edi
Ltmp397:
	.file	17 "/rustc/a74d1862d4d87a56244958416fd05976c58ca1a8/src/libcore/slice/mod.rs"
	.loc	17 3179 9
	cmpq	%rsi, %rdi
	.loc	17 3303 21
	jne	LBB19_5
	jmp	LBB19_18
Ltmp398:
LBB19_1:
	.loc	17 0 21 is_stmt 0
	shll	$6, %ebx
Ltmp399:
LBB19_2:
	orl	%ebx, %edi
Ltmp400:
	movl	%edi, %edx
Ltmp401:
LBB19_3:
	.file	18 "/rustc/a74d1862d4d87a56244958416fd05976c58ca1a8/src/libcore/str/pattern.rs"
	.loc	18 355 28 is_stmt 1
	movq	%r8, %rdi
	subq	%rcx, %rdi
	.loc	18 355 13 is_stmt 0
	addq	%r10, %rdi
	movq	%rdi, %r10
	.loc	18 356 16 is_stmt 1
	cmpl	$34, %edx
	jne	LBB19_20
Ltmp402:
	.loc	17 3179 9
	cmpq	%rsi, %rdi
	.loc	17 3303 21
	je	LBB19_18
Ltmp403:
LBB19_5:
	.loc	15 0 0 is_stmt 0
	movq	%rdi, %r8
Ltmp404:
	leaq	(%rax,%rdi), %rcx
Ltmp405:
	.file	19 "/rustc/a74d1862d4d87a56244958416fd05976c58ca1a8/src/libcore/ptr/mut_ptr.rs"
	.loc	19 152 9 is_stmt 1
	leaq	1(%rcx), %r10
Ltmp406:
	.loc	15 519 13
	movzbl	(%rcx), %edx
Ltmp407:
	.loc	15 520 8
	testb	%dl, %dl
	.loc	15 520 5 is_stmt 0
	jns	LBB19_3
Ltmp408:
	.loc	17 3179 9 is_stmt 1
	cmpq	%r9, %r10
	.loc	17 3303 21
	je	LBB19_12
Ltmp409:
	.loc	19 152 9
	leaq	2(%rcx), %r10
Ltmp410:
	.loc	15 508 15
	movzbl	1(%rcx), %edi
	.loc	15 507 5
	andl	$63, %edi
	movq	%r10, %r11
Ltmp411:
	.loc	15 0 0 is_stmt 0
	movl	%edx, %ebx
	andl	$31, %ebx
Ltmp412:
	.loc	15 530 8 is_stmt 1
	cmpb	$-33, %dl
	.loc	15 530 5 is_stmt 0
	jbe	LBB19_1
Ltmp413:
LBB19_8:
	.loc	17 3179 9 is_stmt 1
	cmpq	%r9, %r11
	.loc	17 3303 21
	je	LBB19_13
Ltmp414:
	.loc	15 508 15
	movzbl	(%r11), %r14d
Ltmp415:
	.loc	19 152 9
	incq	%r11
Ltmp416:
	.loc	15 507 5
	andl	$63, %r14d
Ltmp417:
	.loc	15 0 0 is_stmt 0
	movq	%r11, %r10
Ltmp418:
	.loc	15 495 5 is_stmt 1
	shll	$6, %edi
	orl	%r14d, %edi
Ltmp419:
	.loc	15 536 12
	cmpb	$-16, %dl
	.loc	15 536 9 is_stmt 0
	jb	LBB19_14
Ltmp420:
LBB19_10:
	.loc	17 3179 9 is_stmt 1
	cmpq	%r9, %r11
	.loc	17 3303 21
	je	LBB19_15
Ltmp421:
	.loc	15 508 15
	movzbl	(%r11), %edx
Ltmp422:
	.loc	19 152 9
	incq	%r11
Ltmp423:
	.loc	15 507 5
	andl	$63, %edx
Ltmp424:
	.loc	15 0 0 is_stmt 0
	movq	%r11, %r10
	jmp	LBB19_16
Ltmp425:
LBB19_12:
	xorl	%edi, %edi
	movq	%r9, %r11
Ltmp426:
	movl	%edx, %ebx
	andl	$31, %ebx
Ltmp427:
	.loc	15 530 8 is_stmt 1
	cmpb	$-33, %dl
	.loc	15 530 5 is_stmt 0
	ja	LBB19_8
	jmp	LBB19_1
Ltmp428:
LBB19_13:
	.loc	15 0 5
	xorl	%r14d, %r14d
	movq	%r9, %r11
Ltmp429:
	.loc	15 495 5 is_stmt 1
	shll	$6, %edi
	orl	%r14d, %edi
Ltmp430:
	.loc	15 536 12
	cmpb	$-16, %dl
	.loc	15 536 9 is_stmt 0
	jae	LBB19_10
Ltmp431:
LBB19_14:
	.loc	15 0 9
	shll	$12, %ebx
Ltmp432:
	jmp	LBB19_2
Ltmp433:
LBB19_15:
	xorl	%edx, %edx
Ltmp434:
LBB19_16:
	.loc	15 540 18 is_stmt 1
	andl	$7, %ebx
Ltmp435:
	shll	$18, %ebx
Ltmp436:
	.loc	15 495 5
	shll	$6, %edi
Ltmp437:
	orl	%ebx, %edi
Ltmp438:
	.loc	15 540 13
	orl	%edx, %edi
Ltmp439:
	.loc	15 0 13 is_stmt 0
	movl	%edi, %edx
Ltmp440:
	.loc	18 352 16 is_stmt 1
	cmpl	$1114112, %edi
Ltmp441:
	jne	LBB19_3
Ltmp442:
	.loc	18 0 16 is_stmt 0
	xorl	%edi, %edi
	movq	%r8, %r10
	jmp	LBB19_19
Ltmp443:
LBB19_18:
	xorl	%edi, %edi
	movq	%rsi, %r10
Ltmp444:
LBB19_19:
	xorl	%r8d, %r8d
Ltmp445:
LBB19_20:
	leaq	(%rax,%r10), %r9
Ltmp446:
	.loc	17 3179 9 is_stmt 1
	cmpq	%rsi, %r10
	.loc	17 3399 21
	jne	LBB19_25
	jmp	LBB19_39
Ltmp447:
LBB19_21:
	.loc	17 0 21 is_stmt 0
	xorl	%esi, %esi
Ltmp448:
LBB19_22:
	.loc	15 495 5 is_stmt 1
	shll	$6, %esi
Ltmp449:
	.loc	15 495 17 is_stmt 0
	andl	$63, %ecx
Ltmp450:
	.loc	15 495 5
	orl	%esi, %ecx
Ltmp451:
	.loc	18 419 16 is_stmt 1
	cmpl	$1114112, %ecx
	je	LBB19_39
Ltmp452:
LBB19_23:
	.loc	18 422 13
	movq	%rdx, %rsi
	subq	%r11, %rsi
	addq	%r12, %rsi
	.loc	18 423 16
	cmpl	$34, %ecx
	.loc	18 423 13 is_stmt 0
	jne	LBB19_40
Ltmp453:
	.loc	17 3179 9 is_stmt 1
	cmpq	%rsi, %r10
	.loc	17 3399 21
	je	LBB19_39
Ltmp454:
LBB19_25:
	.loc	18 0 0 is_stmt 0
	movq	%rsi, %rdx
Ltmp455:
	leaq	(%rax,%rsi), %r11
Ltmp456:
	.loc	16 158 9 is_stmt 1
	leaq	-1(%r11), %r12
Ltmp457:
	.loc	15 556 22
	movzbl	-1(%r11), %ecx
Ltmp458:
	testb	%cl, %cl
	jns	LBB19_23
Ltmp459:
	.loc	17 3179 9
	cmpq	%r12, %r9
	.loc	17 3399 21
	je	LBB19_21
Ltmp460:
	.loc	16 158 9
	leaq	-2(%r11), %r12
Ltmp461:
	.loc	15 508 15
	movzbl	-2(%r11), %esi
Ltmp462:
	.loc	15 502 5
	movl	%esi, %ebx
	andb	$-64, %bl
	cmpb	$-128, %bl
Ltmp463:
	.loc	15 565 5
	jne	LBB19_32
Ltmp464:
	.loc	17 3179 9
	cmpq	%r12, %r9
	.loc	17 3399 21
	je	LBB19_33
Ltmp465:
	.loc	16 158 9
	leaq	-3(%r11), %r12
Ltmp466:
	.loc	15 508 15
	movzbl	-3(%r11), %r14d
Ltmp467:
	.loc	15 502 5
	movl	%r14d, %ebx
	andb	$-64, %bl
	cmpb	$-128, %bl
Ltmp468:
	.loc	15 568 9
	jne	LBB19_34
Ltmp469:
	.loc	17 3179 9
	cmpq	%r12, %r9
	.loc	17 3399 21
	je	LBB19_35
Ltmp470:
	.loc	16 158 9
	leaq	-4(%r11), %r12
Ltmp471:
	.loc	15 508 15
	movzbl	-4(%r11), %r15d
	.loc	15 507 5
	andl	$7, %r15d
	shll	$6, %r15d
	jmp	LBB19_36
Ltmp472:
LBB19_32:
	.loc	15 0 5 is_stmt 0
	andl	$31, %esi
Ltmp473:
	jmp	LBB19_22
Ltmp474:
LBB19_33:
	xorl	%r14d, %r14d
	jmp	LBB19_37
Ltmp475:
LBB19_34:
	andl	$15, %r14d
Ltmp476:
	jmp	LBB19_37
Ltmp477:
LBB19_35:
	xorl	%r15d, %r15d
Ltmp478:
LBB19_36:
	.loc	15 495 17 is_stmt 1
	andl	$63, %r14d
Ltmp479:
	.loc	15 495 5 is_stmt 0
	orl	%r15d, %r14d
Ltmp480:
LBB19_37:
	.loc	15 495 5
	shll	$6, %r14d
Ltmp481:
	.loc	15 495 17
	andl	$63, %esi
Ltmp482:
	.loc	15 495 5
	orl	%r14d, %esi
Ltmp483:
	.loc	15 0 5
	jmp	LBB19_22
Ltmp484:
LBB19_39:
	movq	%rdi, %rdx
Ltmp485:
LBB19_40:
	.loc	16 158 9 is_stmt 1
	addq	%r8, %rax
Ltmp486:
	.loc	15 1908 23
	subq	%r8, %rdx
Ltmp487:
	.loc	15 3996 6
	popq	%rbx
	popq	%r12
	popq	%r14
	popq	%r15
	popq	%rbp
	retq
Ltmp488:
Lfunc_end19:
	.cfi_endproc

	.p2align	4, 0x90
__ZN4core3str22SplitInternal$LT$P$GT$4next17h69af90ca8645d6eaE:
Lfunc_begin20:
	.loc	15 1120 0
	.cfi_startproc
	pushq	%rbp
	.cfi_def_cfa_offset 16
	.cfi_offset %rbp, -16
	movq	%rsp, %rbp
	.cfi_def_cfa_register %rbp
Ltmp489:
	pushq	%r15
	pushq	%r14
	pushq	%r13
	pushq	%r12
	pushq	%rbx
	subq	$24, %rsp
	.cfi_offset %rbx, -56
	.cfi_offset %r12, -48
	.cfi_offset %r13, -40
	.cfi_offset %r14, -32
	.cfi_offset %r15, -24
	.loc	15 1121 12 prologue_end
	cmpb	$0, 65(%rdi)
	.loc	15 1121 9 is_stmt 0
	jne	LBB20_1
Ltmp490:
	.loc	15 0 9
	movq	%rdi, %r13
Ltmp491:
	.loc	18 369 54 is_stmt 1
	movq	32(%rdi), %rsi
Ltmp492:
	.loc	18 369 67 is_stmt 0
	movq	40(%rdi), %rax
Ltmp493:
	.loc	17 2888 12 is_stmt 1
	movq	%rax, %rdx
	subq	%rsi, %rdx
Ltmp494:
	.loc	18 369 84
	jb	LBB20_16
Ltmp495:
	cmpq	%rax, 24(%r13)
	jb	LBB20_16
Ltmp496:
	.loc	15 0 0 is_stmt 0
	movq	16(%r13), %rcx
Ltmp497:
	.loc	18 372 71 is_stmt 1
	movq	48(%r13), %rax
Ltmp498:
	.loc	18 0 71 is_stmt 0
	movq	%rcx, -56(%rbp)
Ltmp499:
	.loc	17 2888 12 is_stmt 1
	addq	%rcx, %rsi
Ltmp500:
	.loc	18 373 34
	movzbl	59(%rax,%r13), %edi
	callq	__ZN4core5slice6memchr6memchr17h319ffdabcbdf42caE
Ltmp501:
	.loc	18 373 20 is_stmt 0
	cmpq	$1, %rax
	jne	LBB20_15
Ltmp502:
	.loc	18 0 20
	leaq	60(%r13), %rax
	movq	%rax, -48(%rbp)
Ltmp503:
	.p2align	4, 0x90
LBB20_6:
	.loc	18 391 17 is_stmt 1
	movq	32(%r13), %rax
	.loc	18 392 35
	movq	48(%r13), %r15
Ltmp504:
	.loc	18 391 17
	leaq	1(%rdx,%rax), %rbx
Ltmp505:
	movq	%rbx, 32(%r13)
	.loc	18 392 20
	movq	%rbx, %r12
	subq	%r15, %r12
	.loc	18 392 17 is_stmt 0
	jae	LBB20_8
Ltmp506:
	.loc	18 369 25 is_stmt 1
	movq	24(%r13), %r14
Ltmp507:
	.loc	18 369 67 is_stmt 0
	movq	40(%r13), %rax
Ltmp508:
	.loc	17 2888 12 is_stmt 1
	movq	%rax, %rdx
	subq	%rbx, %rdx
	jae	LBB20_13
	jmp	LBB20_16
Ltmp509:
	.p2align	4, 0x90
LBB20_8:
	.loc	18 394 42
	movq	24(%r13), %r14
Ltmp510:
	.loc	17 2888 37
	cmpq	%rbx, %r14
Ltmp511:
	.loc	18 394 28
	jb	LBB20_12
Ltmp512:
	.loc	17 2918 19
	cmpq	$5, %r15
	.loc	17 2918 16 is_stmt 0
	jae	LBB20_23
Ltmp513:
	.loc	17 0 16
	movq	16(%r13), %rdi
	addq	%r12, %rdi
Ltmp514:
	.loc	17 5863 12 is_stmt 1
	cmpq	-48(%rbp), %rdi
	.loc	17 5863 9 is_stmt 0
	je	LBB20_21
Ltmp515:
	.loc	17 0 9
	movq	-48(%rbp), %rsi
Ltmp516:
	.loc	17 5868 13 is_stmt 1
	movq	%r15, %rdx
Ltmp517:
	callq	_bcmp
Ltmp518:
	testl	%eax, %eax
Ltmp519:
	.loc	18 395 25
	je	LBB20_21
Ltmp520:
LBB20_12:
	.loc	18 369 67
	movq	40(%r13), %rax
Ltmp521:
	.loc	17 2888 12
	movq	%rax, %rdx
	subq	%rbx, %rdx
Ltmp522:
	.loc	18 369 84
	jb	LBB20_16
Ltmp523:
LBB20_13:
	cmpq	%rax, %r14
	jb	LBB20_16
Ltmp524:
	.loc	17 2888 12
	addq	16(%r13), %rbx
Ltmp525:
	.loc	18 373 34
	movzbl	59(%r15,%r13), %edi
	movq	%rbx, %rsi
	callq	__ZN4core5slice6memchr6memchr17h319ffdabcbdf42caE
Ltmp526:
	.loc	18 373 20 is_stmt 0
	cmpq	$1, %rax
	je	LBB20_6
Ltmp527:
LBB20_15:
	.loc	18 402 31 is_stmt 1
	movq	40(%r13), %rax
	.loc	18 402 17 is_stmt 0
	movq	%rax, 32(%r13)
Ltmp528:
LBB20_16:
	.loc	15 1107 13 is_stmt 1
	cmpb	$0, 65(%r13)
	.loc	15 1107 12 is_stmt 0
	je	LBB20_17
Ltmp529:
LBB20_1:
	.loc	15 0 12
	xorl	%eax, %eax
LBB20_22:
	.loc	15 1135 6 is_stmt 1
	movq	%r12, %rdx
	addq	$24, %rsp
	popq	%rbx
	popq	%r12
	popq	%r13
	popq	%r14
	popq	%r15
	popq	%rbp
	retq
LBB20_17:
Ltmp530:
	.loc	15 1107 31
	cmpb	$0, 64(%r13)
	.loc	15 1107 30 is_stmt 0
	je	LBB20_19
Ltmp531:
	.loc	15 1111 68 is_stmt 1
	movq	(%r13), %rax
	.loc	15 1111 80 is_stmt 0
	movq	8(%r13), %r12
	jmp	LBB20_20
Ltmp532:
LBB20_19:
	.loc	15 1107 71 is_stmt 1
	movq	(%r13), %rax
	.loc	15 1107 60 is_stmt 0
	movq	8(%r13), %r12
	cmpq	%rax, %r12
	.loc	15 1107 12
	je	LBB20_1
Ltmp533:
LBB20_20:
	.loc	15 1108 13 is_stmt 1
	movb	$1, 65(%r13)
Ltmp534:
	.loc	15 1908 23
	subq	%rax, %r12
Ltmp535:
	.loc	16 158 9
	addq	16(%r13), %rax
Ltmp536:
	.loc	16 0 9 is_stmt 0
	jmp	LBB20_22
Ltmp537:
LBB20_21:
	.loc	15 1129 50 is_stmt 1
	movq	(%r13), %rcx
Ltmp538:
	.loc	15 0 50 is_stmt 0
	movq	-56(%rbp), %rax
Ltmp539:
	.loc	16 158 9 is_stmt 1
	addq	%rcx, %rax
Ltmp540:
	.loc	15 1908 23
	subq	%rcx, %r12
Ltmp541:
	.loc	15 1130 17
	movq	%rbx, (%r13)
	jmp	LBB20_22
Ltmp542:
LBB20_23:
	.loc	17 2919 13
	leaq	l___unnamed_12(%rip), %rdx
Ltmp543:
	movl	$4, %esi
	movq	%r15, %rdi
	callq	__ZN4core5slice20slice_index_len_fail17h550a313151a85135E
Ltmp544:
Lfunc_end20:
	.cfi_endproc
	.file	20 "/rustc/a74d1862d4d87a56244958416fd05976c58ca1a8/src/libcore/cmp.rs"

	.p2align	4, 0x90
__ZN5alloc3vec12Vec$LT$T$GT$4push17h753e7aae4f738212E:
Lfunc_begin21:
	.loc	10 1197 0
	.cfi_startproc
	.cfi_personality 155, _rust_eh_personality
	.cfi_lsda 16, Lexception4
	pushq	%rbp
	.cfi_def_cfa_offset 16
	.cfi_offset %rbp, -16
	movq	%rsp, %rbp
	.cfi_def_cfa_register %rbp
	pushq	%r15
	pushq	%r14
	pushq	%rbx
	pushq	%rax
	.cfi_offset %rbx, -40
	.cfi_offset %r14, -32
	.cfi_offset %r15, -24
	movq	%rsi, %r14
Ltmp548:
	movq	%rdi, %rbx
Ltmp549:
	.loc	10 1200 12 prologue_end
	movq	16(%rdi), %rcx
Ltmp550:
	cmpq	8(%rdi), %rcx
	.loc	10 1200 9 is_stmt 0
	jne	LBB21_18
Ltmp551:
	.file	21 "/rustc/a74d1862d4d87a56244958416fd05976c58ca1a8/src/libcore/num/mod.rs"
	.loc	21 3632 30 is_stmt 1
	movq	%rcx, %rax
	incq	%rax
Ltmp552:
	.loc	2 540 13
	je	LBB21_19
Ltmp553:
	.loc	12 414 26
	leaq	(%rcx,%rcx), %rdx
Ltmp554:
	.loc	20 1017 9
	cmpq	%rax, %rdx
	.loc	20 0 0 is_stmt 0
	cmovaq	%rdx, %rax
Ltmp555:
	movl	$24, %edx
Ltmp556:
	.file	22 "/rustc/a74d1862d4d87a56244958416fd05976c58ca1a8/src/libcore/alloc/layout.rs"
	.loc	22 250 85 is_stmt 1
	xorl	%esi, %esi
Ltmp557:
	.loc	21 3688 26
	mulq	%rdx
Ltmp558:
	movq	%rax, %r15
Ltmp559:
	.loc	21 0 26 is_stmt 0
	seto	%dl
Ltmp560:
	.loc	22 250 85 is_stmt 1
	setno	%dil
Ltmp561:
	.loc	12 200 9
	movq	%rcx, %rax
	.loc	12 200 40 is_stmt 0
	testq	%rcx, %rcx
	.loc	12 200 9
	je	LBB21_4
Ltmp562:
	.loc	12 0 9
	movq	(%rbx), %rax
Ltmp563:
LBB21_4:
	.loc	8 611 13 is_stmt 1
	testb	%dl, %dl
	jne	LBB21_19
Ltmp564:
	.loc	12 489 25
	testq	%rax, %rax
	je	LBB21_11
Ltmp565:
	.loc	12 0 0 is_stmt 0
	leaq	(,%rcx,8), %rdx
Ltmp566:
	leaq	(%rdx,%rdx,2), %rsi
Ltmp567:
	.loc	6 205 12 is_stmt 1
	cmpq	%r15, %rsi
	.loc	6 205 9 is_stmt 0
	je	LBB21_15
Ltmp568:
	.loc	6 211 42 is_stmt 1
	testq	%rsi, %rsi
	je	LBB21_8
Ltmp569:
	.loc	6 124 5
	movl	$8, %edx
	movq	%rax, %rdi
	movq	%r15, %rcx
Ltmp570:
	callq	___rust_realloc
Ltmp571:
	.loc	8 611 13
	testq	%rax, %rax
	jne	LBB21_16
	jmp	LBB21_21
Ltmp572:
LBB21_11:
	.loc	12 0 0 is_stmt 0
	movb	%dil, %sil
	shlq	$3, %rsi
Ltmp573:
	.loc	6 170 16 is_stmt 1
	testq	%r15, %r15
	.loc	6 170 13 is_stmt 0
	jne	LBB21_14
Ltmp574:
	.loc	12 0 0
	movq	%rsi, %rax
Ltmp575:
	.loc	8 611 13 is_stmt 1
	testq	%rax, %rax
	jne	LBB21_16
	jmp	LBB21_21
Ltmp576:
LBB21_8:
	.loc	6 170 16
	testq	%r15, %r15
	.loc	6 170 13 is_stmt 0
	je	LBB21_9
Ltmp577:
	.loc	6 80 5 is_stmt 1
	movl	$8, %esi
Ltmp578:
LBB21_14:
	.loc	12 0 0 is_stmt 0
	movq	%r15, %rdi
	callq	___rust_alloc
Ltmp579:
LBB21_15:
	.loc	8 611 13 is_stmt 1
	testq	%rax, %rax
	je	LBB21_21
Ltmp580:
LBB21_16:
	.loc	10 1204 45
	movq	16(%rbx), %rcx
Ltmp581:
LBB21_17:
	.loc	12 387 9
	movq	%rax, (%rbx)
	movabsq	$-6148914691236517205, %rdx
Ltmp582:
	.loc	12 383 9
	movq	%r15, %rax
Ltmp583:
	mulq	%rdx
	shrq	$4, %rdx
Ltmp584:
	.loc	12 388 9
	movq	%rdx, 8(%rbx)
Ltmp585:
LBB21_18:
	.loc	10 850 19
	movq	(%rbx), %rax
Ltmp586:
	.loc	19 152 9
	leaq	(%rcx,%rcx,2), %rcx
Ltmp587:
	.loc	3 836 42
	movq	16(%r14), %rdx
	movq	%rdx, 16(%rax,%rcx,8)
	movq	(%r14), %rdx
	movq	8(%r14), %rsi
	movq	%rsi, 8(%rax,%rcx,8)
	movq	%rdx, (%rax,%rcx,8)
Ltmp588:
	.loc	10 1206 13
	incq	16(%rbx)
Ltmp589:
	.loc	10 1208 6
	addq	$8, %rsp
	popq	%rbx
Ltmp590:
	popq	%r14
Ltmp591:
	popq	%r15
	popq	%rbp
	retq
Ltmp592:
LBB21_9:
	.loc	10 0 6 is_stmt 0
	movl	$8, %eax
Ltmp593:
	jmp	LBB21_17
Ltmp594:
LBB21_19:
Ltmp545:
	.loc	12 268 38 is_stmt 1
	callq	__ZN5alloc7raw_vec17capacity_overflow17h023f34f5bc34c61fE
Ltmp595:
Ltmp546:
	ud2
Ltmp596:
LBB21_21:
	.loc	12 269 47
	movl	$8, %esi
	movq	%r15, %rdi
	callq	__ZN5alloc5alloc18handle_alloc_error17hbc0ab0ed90816c07E
Ltmp597:
LBB21_22:
Ltmp547:
	.loc	12 0 47 is_stmt 0
	movq	%rax, %rbx
Ltmp598:
	.loc	10 1208 5 is_stmt 1
	movq	%r14, %rdi
	callq	__ZN4core3ptr13drop_in_place17hd4f4d739f60c3f05E
	movq	%rbx, %rdi
	callq	__Unwind_Resume
	ud2
Ltmp599:
Lfunc_end21:
	.cfi_endproc
	.section	__TEXT,__gcc_except_tab
	.p2align	2
GCC_except_table21:
Lexception4:
	.byte	255
	.byte	255
	.byte	1
	.uleb128 Lcst_end4-Lcst_begin4
Lcst_begin4:
	.uleb128 Ltmp545-Lfunc_begin21
	.uleb128 Ltmp546-Ltmp545
	.uleb128 Ltmp547-Lfunc_begin21
	.byte	0
	.uleb128 Ltmp546-Lfunc_begin21
	.uleb128 Lfunc_end21-Ltmp546
	.byte	0
	.byte	0
Lcst_end4:
	.p2align	2

	.section	__TEXT,__text,regular,pure_instructions
	.p2align	4, 0x90
__ZN5alloc5alloc8box_free17h21564975136da20bE:
Lfunc_begin22:
	.loc	6 281 0
	.cfi_startproc
	pushq	%rbp
	.cfi_def_cfa_offset 16
	.cfi_offset %rbp, -16
	movq	%rsp, %rbp
	.cfi_def_cfa_register %rbp
	movq	%rsi, %rax
Ltmp600:
	.loc	6 282 16 prologue_end
	movq	8(%rsi), %rsi
Ltmp601:
	.loc	6 185 12
	testq	%rsi, %rsi
	.loc	6 185 9 is_stmt 0
	je	LBB22_1
Ltmp602:
	.loc	6 283 17 is_stmt 1
	movq	16(%rax), %rdx
Ltmp603:
	.loc	6 102 5
	popq	%rbp
	jmp	___rust_dealloc
Ltmp604:
LBB22_1:
	.loc	6 286 2
	popq	%rbp
	retq
Ltmp605:
Lfunc_end22:
	.cfi_endproc

	.p2align	4, 0x90
__ZN5alloc5alloc8box_free17he5c24c63beed5855E:
Lfunc_begin23:
	.loc	6 281 0
	.cfi_startproc
	pushq	%rbp
	.cfi_def_cfa_offset 16
	.cfi_offset %rbp, -16
	movq	%rsp, %rbp
	.cfi_def_cfa_register %rbp
Ltmp606:
	.loc	6 102 5 prologue_end
	movl	$24, %esi
	movl	$8, %edx
	popq	%rbp
	jmp	___rust_dealloc
Ltmp607:
Lfunc_end23:
	.cfi_endproc

	.p2align	4, 0x90
__ZN5alloc7raw_vec19RawVec$LT$T$C$A$GT$11allocate_in28_$u7b$$u7b$closure$u7d$$u7d$17hdf576087ddce0164E:
Lfunc_begin24:
	.loc	12 152 0
	.cfi_startproc
	pushq	%rbp
	.cfi_def_cfa_offset 16
	.cfi_offset %rbp, -16
	movq	%rsp, %rbp
	.cfi_def_cfa_register %rbp
Ltmp608:
	.loc	12 152 71 prologue_end
	callq	__ZN5alloc5alloc18handle_alloc_error17hbc0ab0ed90816c07E
Ltmp609:
Lfunc_end24:
	.cfi_endproc

	.p2align	4, 0x90
__ZN79_$LT$failure..error_message..ErrorMessage$LT$D$GT$$u20$as$u20$failure..Fail$GT$4name17h72d33ec969843c77E:
Lfunc_begin25:
	.file	23 "/Users/yingyuhang/.cargo/registry/src/github.com-1ecc6299db9ec823/failure-0.1.8/src/error_message.rs"
	.loc	23 23 0
	.cfi_startproc
	pushq	%rbp
	.cfi_def_cfa_offset 16
	.cfi_offset %rbp, -16
	movq	%rsp, %rbp
	.cfi_def_cfa_register %rbp
Ltmp610:
	.loc	23 25 6 prologue_end
	leaq	l___unnamed_13(%rip), %rax
	movl	$21, %edx
	popq	%rbp
	retq
Ltmp611:
Lfunc_end25:
	.cfi_endproc

	.p2align	4, 0x90
__ZN79_$LT$failure..error_message..ErrorMessage$LT$D$GT$$u20$as$u20$failure..Fail$GT$4name17hcec5dc14ded058d8E:
Lfunc_begin26:
	.loc	23 23 0
	.cfi_startproc
	pushq	%rbp
	.cfi_def_cfa_offset 16
	.cfi_offset %rbp, -16
	movq	%rsp, %rbp
	.cfi_def_cfa_register %rbp
Ltmp612:
	.loc	23 25 6 prologue_end
	leaq	l___unnamed_13(%rip), %rax
	movl	$21, %edx
	popq	%rbp
	retq
Ltmp613:
Lfunc_end26:
	.cfi_endproc

	.p2align	4, 0x90
__ZN7failure4Fail23__private_get_type_id__17h05c01c2d2ad3c6e4E:
Lfunc_begin27:
	.file	24 "/Users/yingyuhang/.cargo/registry/src/github.com-1ecc6299db9ec823/failure-0.1.8/src/lib.rs"
	.loc	24 197 0
	.cfi_startproc
	pushq	%rbp
	.cfi_def_cfa_offset 16
	.cfi_offset %rbp, -16
	movq	%rsp, %rbp
	.cfi_def_cfa_register %rbp
	movabsq	$-9190556156156697329, %rax
Ltmp614:
	.loc	24 199 6 prologue_end
	popq	%rbp
	retq
Ltmp615:
Lfunc_end27:
	.cfi_endproc

	.p2align	4, 0x90
__ZN7failure4Fail23__private_get_type_id__17h1fc5abc6261a26c1E:
Lfunc_begin28:
	.loc	24 197 0
	.cfi_startproc
	pushq	%rbp
	.cfi_def_cfa_offset 16
	.cfi_offset %rbp, -16
	movq	%rsp, %rbp
	.cfi_def_cfa_register %rbp
	movabsq	$5712599371998057352, %rax
Ltmp616:
	.loc	24 199 6 prologue_end
	popq	%rbp
	retq
Ltmp617:
Lfunc_end28:
	.cfi_endproc

	.p2align	4, 0x90
__ZN7failure4Fail23__private_get_type_id__17h52914c4812b93073E:
Lfunc_begin29:
	.loc	24 197 0
	.cfi_startproc
	pushq	%rbp
	.cfi_def_cfa_offset 16
	.cfi_offset %rbp, -16
	movq	%rsp, %rbp
	.cfi_def_cfa_register %rbp
	movabsq	$6129323047340084681, %rax
Ltmp618:
	.loc	24 199 6 prologue_end
	popq	%rbp
	retq
Ltmp619:
Lfunc_end29:
	.cfi_endproc

	.p2align	4, 0x90
__ZN7failure4Fail23__private_get_type_id__17ha25c9cf9744330c0E:
Lfunc_begin30:
	.loc	24 197 0
	.cfi_startproc
	pushq	%rbp
	.cfi_def_cfa_offset 16
	.cfi_offset %rbp, -16
	movq	%rsp, %rbp
	.cfi_def_cfa_register %rbp
	movabsq	$-686126571905423798, %rax
Ltmp620:
	.loc	24 199 6 prologue_end
	popq	%rbp
	retq
Ltmp621:
Lfunc_end30:
	.cfi_endproc

	.p2align	4, 0x90
__ZN7failure4Fail4name17h3f5b33057e7b1579E:
Lfunc_begin31:
	.loc	24 115 0
	.cfi_startproc
	pushq	%rbp
	.cfi_def_cfa_offset 16
	.cfi_offset %rbp, -16
	movq	%rsp, %rbp
	.cfi_def_cfa_register %rbp
Ltmp622:
	.loc	24 117 6 prologue_end
	xorl	%eax, %eax
	popq	%rbp
	retq
Ltmp623:
Lfunc_end31:
	.cfi_endproc

	.p2align	4, 0x90
__ZN7failure4Fail4name17hc5dd280956b40a95E:
Lfunc_begin32:
	.loc	24 115 0
	.cfi_startproc
	pushq	%rbp
	.cfi_def_cfa_offset 16
	.cfi_offset %rbp, -16
	movq	%rsp, %rbp
	.cfi_def_cfa_register %rbp
Ltmp624:
	.loc	24 117 6 prologue_end
	xorl	%eax, %eax
	popq	%rbp
	retq
Ltmp625:
Lfunc_end32:
	.cfi_endproc

	.p2align	4, 0x90
__ZN7failure4Fail5cause17h92029567fff4a929E:
Lfunc_begin33:
	.loc	24 129 0
	.cfi_startproc
	pushq	%rbp
	.cfi_def_cfa_offset 16
	.cfi_offset %rbp, -16
	movq	%rsp, %rbp
	.cfi_def_cfa_register %rbp
Ltmp626:
	.loc	24 131 6 prologue_end
	xorl	%eax, %eax
	popq	%rbp
	retq
Ltmp627:
Lfunc_end33:
	.cfi_endproc

	.p2align	4, 0x90
__ZN7failure4Fail9backtrace17h454079dd5844f6b2E:
Lfunc_begin34:
	.loc	24 138 0
	.cfi_startproc
	pushq	%rbp
	.cfi_def_cfa_offset 16
	.cfi_offset %rbp, -16
	movq	%rsp, %rbp
	.cfi_def_cfa_register %rbp
Ltmp628:
	.loc	24 140 6 prologue_end
	xorl	%eax, %eax
	popq	%rbp
	retq
Ltmp629:
Lfunc_end34:
	.cfi_endproc

	.p2align	4, 0x90
__ZN7failure4Fail9backtrace17hc621eda7d09408f1E:
Lfunc_begin35:
	.loc	24 138 0
	.cfi_startproc
	pushq	%rbp
	.cfi_def_cfa_offset 16
	.cfi_offset %rbp, -16
	movq	%rsp, %rbp
	.cfi_def_cfa_register %rbp
Ltmp630:
	.loc	24 140 6 prologue_end
	xorl	%eax, %eax
	popq	%rbp
	retq
Ltmp631:
Lfunc_end35:
	.cfi_endproc

	.p2align	4, 0x90
__ZN7failure4Fail9backtrace17hdf88313ff0b86fefE:
Lfunc_begin36:
	.loc	24 138 0
	.cfi_startproc
	pushq	%rbp
	.cfi_def_cfa_offset 16
	.cfi_offset %rbp, -16
	movq	%rsp, %rbp
	.cfi_def_cfa_register %rbp
Ltmp632:
	.loc	24 140 6 prologue_end
	xorl	%eax, %eax
	popq	%rbp
	retq
Ltmp633:
Lfunc_end36:
	.cfi_endproc

	.p2align	4, 0x90
__ZN82_$LT$failure..error_message..ErrorMessage$LT$D$GT$$u20$as$u20$core..fmt..Debug$GT$3fmt17h381e85a74a44eae3E:
Lfunc_begin37:
	.loc	23 17 0
	.cfi_startproc
	pushq	%rbp
	.cfi_def_cfa_offset 16
	.cfi_offset %rbp, -16
	movq	%rsp, %rbp
	.cfi_def_cfa_register %rbp
	pushq	%r14
	pushq	%rbx
	subq	$32, %rsp
	.cfi_offset %rbx, -32
	.cfi_offset %r14, -24
	movq	%rdi, %rbx
Ltmp634:
	.loc	23 17 10 prologue_end
	leaq	l___unnamed_14(%rip), %rdx
	leaq	-40(%rbp), %r14
	movl	$12, %ecx
	movq	%r14, %rdi
	callq	__ZN4core3fmt9Formatter12debug_struct17h985c0158d1fc7193E
Ltmp635:
	.loc	23 19 5
	movq	%rbx, -24(%rbp)
	.loc	23 17 10
	leaq	l___unnamed_15(%rip), %rsi
	leaq	l___unnamed_1(%rip), %r8
	leaq	-24(%rbp), %rcx
	movl	$3, %edx
	movq	%r14, %rdi
	callq	__ZN4core3fmt8builders11DebugStruct5field17h9c15dc155278eed2E
	movq	%r14, %rdi
	callq	__ZN4core3fmt8builders11DebugStruct6finish17h26808393f3fed630E
Ltmp636:
	.loc	23 17 15 is_stmt 0
	addq	$32, %rsp
	popq	%rbx
Ltmp637:
	popq	%r14
	popq	%rbp
	retq
Ltmp638:
Lfunc_end37:
	.cfi_endproc

	.p2align	4, 0x90
__ZN82_$LT$failure..error_message..ErrorMessage$LT$D$GT$$u20$as$u20$core..fmt..Debug$GT$3fmt17hf791b091326e59c1E:
Lfunc_begin38:
	.loc	23 17 0 is_stmt 1
	.cfi_startproc
	pushq	%rbp
	.cfi_def_cfa_offset 16
	.cfi_offset %rbp, -16
	movq	%rsp, %rbp
	.cfi_def_cfa_register %rbp
	pushq	%r14
	pushq	%rbx
	subq	$32, %rsp
	.cfi_offset %rbx, -32
	.cfi_offset %r14, -24
	movq	%rdi, %rbx
Ltmp639:
	.loc	23 17 10 prologue_end
	leaq	l___unnamed_14(%rip), %rdx
	leaq	-40(%rbp), %r14
	movl	$12, %ecx
	movq	%r14, %rdi
	callq	__ZN4core3fmt9Formatter12debug_struct17h985c0158d1fc7193E
Ltmp640:
	.loc	23 19 5
	movq	%rbx, -24(%rbp)
	.loc	23 17 10
	leaq	l___unnamed_15(%rip), %rsi
	leaq	l___unnamed_2(%rip), %r8
	leaq	-24(%rbp), %rcx
	movl	$3, %edx
	movq	%r14, %rdi
	callq	__ZN4core3fmt8builders11DebugStruct5field17h9c15dc155278eed2E
	movq	%r14, %rdi
	callq	__ZN4core3fmt8builders11DebugStruct6finish17h26808393f3fed630E
Ltmp641:
	.loc	23 17 15 is_stmt 0
	addq	$32, %rsp
	popq	%rbx
Ltmp642:
	popq	%r14
	popq	%rbp
	retq
Ltmp643:
Lfunc_end38:
	.cfi_endproc

	.p2align	4, 0x90
__ZN84_$LT$failure..error_message..ErrorMessage$LT$D$GT$$u20$as$u20$core..fmt..Display$GT$3fmt17h44ca64e4f514c59dE:
Lfunc_begin39:
	.loc	23 29 0 is_stmt 1
	.cfi_startproc
	pushq	%rbp
	.cfi_def_cfa_offset 16
	.cfi_offset %rbp, -16
	movq	%rsp, %rbp
	.cfi_def_cfa_register %rbp
	movq	%rsi, %rdx
Ltmp644:
	.loc	10 814 19 prologue_end
	movq	(%rdi), %rax
Ltmp645:
	.loc	10 1966 55
	movq	16(%rdi), %rsi
Ltmp646:
	.loc	11 1938 9
	movq	%rax, %rdi
Ltmp647:
	popq	%rbp
	jmp	__ZN42_$LT$str$u20$as$u20$core..fmt..Display$GT$3fmt17hd4dee1c1c4ccf892E
Ltmp648:
Lfunc_end39:
	.cfi_endproc

	.p2align	4, 0x90
__ZN84_$LT$failure..error_message..ErrorMessage$LT$D$GT$$u20$as$u20$core..fmt..Display$GT$3fmt17hca2e314f6f457f81E:
Lfunc_begin40:
	.loc	23 29 0
	.cfi_startproc
	pushq	%rbp
	.cfi_def_cfa_offset 16
	.cfi_offset %rbp, -16
	movq	%rsp, %rbp
	.cfi_def_cfa_register %rbp
	movq	%rsi, %rdx
Ltmp649:
	.loc	9 1973 71 prologue_end
	movq	(%rdi), %rax
	movq	8(%rdi), %rsi
	.loc	9 1973 62 is_stmt 0
	movq	%rax, %rdi
Ltmp650:
	popq	%rbp
	jmp	__ZN42_$LT$str$u20$as$u20$core..fmt..Display$GT$3fmt17hd4dee1c1c4ccf892E
Ltmp651:
Lfunc_end40:
	.cfi_endproc

	.section	__TEXT,__literal16,16byte_literals
	.p2align	4
LCPI41_0:
	.byte	116
	.byte	97
	.byte	114
	.byte	103
	.byte	101
	.byte	116
	.byte	95
	.byte	104
	.byte	97
	.byte	115
	.byte	95
	.byte	97
	.byte	116
	.byte	111
	.byte	109
	.byte	105
LCPI41_1:
	.byte	105
	.byte	100
	.byte	116
	.byte	104
	.byte	0
	.byte	0
	.byte	0
	.byte	0
	.byte	0
	.byte	0
	.byte	0
	.byte	0
	.byte	0
	.byte	0
	.byte	0
	.byte	0
LCPI41_2:
	.byte	116
	.byte	97
	.byte	114
	.byte	103
	.byte	101
	.byte	116
	.byte	95
	.byte	112
	.byte	111
	.byte	105
	.byte	110
	.byte	116
	.byte	101
	.byte	114
	.byte	95
	.byte	119
LCPI41_3:
	.space	8
	.quad	23
LCPI41_4:
	.space	8
	.quad	33
LCPI41_5:
	.space	8
	.quad	26
LCPI41_6:
	.space	8
	.quad	24
LCPI41_7:
	.space	8
	.quad	22
	.section	__TEXT,__text,regular,pure_instructions
	.globl	__ZN9rustc_cfg3Cfg2of17hf5ab032dd9805833E
	.p2align	4, 0x90
__ZN9rustc_cfg3Cfg2of17hf5ab032dd9805833E:
Lfunc_begin41:
	.file	25 "/Users/yingyuhang/.cargo/registry/src/github.com-1ecc6299db9ec823/rustc-cfg-0.4.0/src/lib.rs"
	.loc	25 59 0 is_stmt 1
	.cfi_startproc
	.cfi_personality 155, _rust_eh_personality
	.cfi_lsda 16, Lexception5
	pushq	%rbp
	.cfi_def_cfa_offset 16
	.cfi_offset %rbp, -16
	movq	%rsp, %rbp
	.cfi_def_cfa_register %rbp
	pushq	%r15
	pushq	%r14
	pushq	%r13
	pushq	%r12
	pushq	%rbx
	subq	$1032, %rsp
	.cfi_offset %rbx, -56
	.cfi_offset %r12, -48
	.cfi_offset %r13, -40
	.cfi_offset %r14, -32
	.cfi_offset %r15, -24
	movq	%rdx, %r14
Ltmp725:
	movq	%rsi, %r15
Ltmp726:
	movq	%rdi, %r13
Ltmp727:
	.file	26 "/rustc/a74d1862d4d87a56244958416fd05976c58ca1a8/src/libstd/env.rs"
	.loc	26 212 5 prologue_end
	leaq	l___unnamed_16(%rip), %rsi
	leaq	-208(%rbp), %rdi
	movl	$5, %ebx
	movl	$5, %edx
	callq	__ZN3std3env4_var17heb54e5eb7997d7b3E
Ltmp728:
	.loc	8 519 13
	cmpq	$0, -208(%rbp)
Ltmp729:
	.loc	8 0 0 is_stmt 0
	leaq	-200(%rbp), %rax
Ltmp730:
	.loc	8 519 13
	cmoveq	-200(%rbp), %rax
Ltmp731:
	.loc	8 829 13 is_stmt 1
	cmoveq	-184(%rbp), %rbx
Ltmp732:
	.file	27 "/rustc/a74d1862d4d87a56244958416fd05976c58ca1a8/src/libstd/ffi/os_str.rs"
	.loc	27 530 20
	leaq	l___unnamed_17(%rip), %rsi
	cmoveq	%rax, %rsi
Ltmp733:
Ltmp652:
	.loc	27 0 20 is_stmt 0
	leaq	-784(%rbp), %rdi
Ltmp734:
	.file	28 "/rustc/a74d1862d4d87a56244958416fd05976c58ca1a8/src/libstd/process.rs"
	.loc	28 501 26 is_stmt 1
	movq	%rbx, %rdx
	callq	__ZN3std3sys4unix7process14process_common7Command3new17hcd746a384cbb0b47E
Ltmp735:
Ltmp653:
	.loc	28 0 26 is_stmt 0
	leaq	-576(%rbp), %rbx
	leaq	-784(%rbp), %rsi
	.loc	28 501 9
	movl	$184, %edx
	movq	%rbx, %rdi
	callq	_memcpy
Ltmp736:
Ltmp654:
	.loc	28 542 9 is_stmt 1
	leaq	L___unnamed_18(%rip), %rsi
Ltmp737:
	movl	$8, %edx
	movq	%rbx, %rdi
	callq	__ZN3std3sys4unix7process14process_common7Command3arg17hc476c471a9efd12bE
Ltmp738:
Ltmp655:
Ltmp656:
	.loc	28 0 9 is_stmt 0
	leaq	-576(%rbp), %rdi
Ltmp739:
	.loc	28 542 9
	movq	%r15, %rsi
	movq	%r14, %rdx
	callq	__ZN3std3sys4unix7process14process_common7Command3arg17hc476c471a9efd12bE
Ltmp657:
Ltmp740:
Ltmp658:
	.file	29 "/rustc/a74d1862d4d87a56244958416fd05976c58ca1a8/src/libcore/convert/mod.rs"
	.loc	29 510 9 is_stmt 1
	leaq	l___unnamed_19(%rip), %rdi
	movl	$7, %esi
	callq	__ZN95_$LT$std..ffi..os_str..OsStr$u20$as$u20$core..convert..AsRef$LT$std..ffi..os_str..OsStr$GT$$GT$6as_ref17h446c7b9305eed47bE
Ltmp659:
Ltmp741:
Ltmp660:
	.loc	29 0 9 is_stmt 0
	leaq	-576(%rbp), %rdi
	.loc	28 542 9 is_stmt 1
	movq	%rax, %rsi
	callq	__ZN3std3sys4unix7process14process_common7Command3arg17hc476c471a9efd12bE
Ltmp661:
Ltmp742:
Ltmp662:
	.loc	29 510 9
	leaq	l___unnamed_20(%rip), %rdi
	movl	$3, %esi
	callq	__ZN95_$LT$std..ffi..os_str..OsStr$u20$as$u20$core..convert..AsRef$LT$std..ffi..os_str..OsStr$GT$$GT$6as_ref17h446c7b9305eed47bE
Ltmp663:
Ltmp743:
Ltmp664:
	.loc	29 0 9 is_stmt 0
	leaq	-576(%rbp), %rdi
	.loc	28 542 9 is_stmt 1
	movq	%rax, %rsi
	callq	__ZN3std3sys4unix7process14process_common7Command3arg17hc476c471a9efd12bE
Ltmp665:
Ltmp744:
Ltmp666:
	.loc	28 0 9 is_stmt 0
	leaq	-784(%rbp), %rdi
	leaq	-576(%rbp), %rsi
	.loc	25 61 22 is_stmt 1
	callq	__ZN3std7process7Command6output17h3119df81721f3b73E
Ltmp667:
Ltmp745:
	.loc	8 1548 9
	movq	-784(%rbp), %rax
	movq	-776(%rbp), %rcx
	movq	%rcx, -120(%rbp)
	movq	-768(%rbp), %rcx
	movq	%rcx, -112(%rbp)
	movq	-760(%rbp), %rcx
	movq	%rcx, -104(%rbp)
	movq	-752(%rbp), %rcx
	movq	%rcx, -96(%rbp)
	movq	-744(%rbp), %rcx
	movq	%rcx, -88(%rbp)
	movq	-736(%rbp), %rcx
	movq	%rcx, -80(%rbp)
	movq	-728(%rbp), %rcx
	movq	%rcx, -72(%rbp)
Ltmp746:
	.loc	25 65 22
	cmpq	$1, %rax
	jne	LBB41_14
Ltmp747:
	.file	30 "/Users/yingyuhang/.cargo/registry/src/github.com-1ecc6299db9ec823/failure-0.1.8/src/error/mod.rs"
	.loc	30 36 34
	movq	-120(%rbp), %rax
	movq	-112(%rbp), %rcx
	movq	%rcx, -824(%rbp)
	movq	%rax, -832(%rbp)
Ltmp716:
	leaq	-784(%rbp), %rdi
Ltmp748:
	.file	31 "/Users/yingyuhang/.cargo/registry/src/github.com-1ecc6299db9ec823/failure-0.1.8/src/error/error_impl.rs"
	.loc	31 19 17
	callq	__ZN7failure9backtrace9Backtrace3new17h53bd39fe603c24d3E
Ltmp717:
Ltmp749:
	.loc	31 21 30
	movq	-744(%rbp), %rax
	movq	%rax, -328(%rbp)
	movq	-752(%rbp), %r8
	movq	%r8, -336(%rbp)
	movq	-760(%rbp), %rcx
	movq	%rcx, -344(%rbp)
	movq	-768(%rbp), %rdx
	movq	%rdx, -352(%rbp)
	movq	-784(%rbp), %rsi
	movq	-776(%rbp), %rdi
	movq	%rdi, -360(%rbp)
	movq	%rsi, -368(%rbp)
	.loc	31 21 13 is_stmt 0
	movq	-832(%rbp), %rbx
	movq	-824(%rbp), %rax
	movq	%rbx, -320(%rbp)
	movq	%rax, -312(%rbp)
Ltmp750:
	.loc	31 23 37 is_stmt 1
	movq	%rax, -728(%rbp)
	movq	%rbx, -736(%rbp)
	movq	%r8, -752(%rbp)
	movq	%rcx, -760(%rbp)
	movq	%rdx, -768(%rbp)
	movq	%rdi, -776(%rbp)
	movq	%rsi, -784(%rbp)
	movq	-328(%rbp), %rax
	movq	%rax, -744(%rbp)
Ltmp751:
	.loc	6 80 5
	movl	$64, %edi
	movl	$8, %esi
	callq	___rust_alloc
Ltmp752:
	.loc	6 269 9
	testq	%rax, %rax
	je	LBB41_404
Ltmp753:
	.file	32 "/rustc/a74d1862d4d87a56244958416fd05976c58ca1a8/src/liballoc/boxed.rs"
	.loc	32 174 13
	movq	-728(%rbp), %rcx
	movq	%rcx, 56(%rax)
	movq	-736(%rbp), %rcx
	movq	%rcx, 48(%rax)
	movq	-744(%rbp), %rcx
	movq	%rcx, 40(%rax)
	movq	-752(%rbp), %rcx
	movq	%rcx, 32(%rax)
	movq	-760(%rbp), %rcx
	movq	%rcx, 24(%rax)
	movq	-768(%rbp), %rcx
	movq	%rcx, 16(%rax)
	movq	-784(%rbp), %rcx
	movq	-776(%rbp), %rdx
	movq	%rdx, 8(%rax)
	movq	%rcx, (%rax)
Ltmp754:
	.loc	8 1558 9
	movq	%rax, 8(%r13)
	leaq	l___unnamed_5(%rip), %rax
Ltmp755:
	movq	%rax, 16(%r13)
	movq	$1, (%r13)
Ltmp722:
	leaq	-576(%rbp), %rdi
Ltmp756:
	.loc	25 65 23
	callq	__ZN4core3ptr13drop_in_place17hd45d887a86263733E
Ltmp757:
Ltmp723:
	.loc	3 178 1
	cmpq	$0, -208(%rbp)
	.loc	3 0 0 is_stmt 0
	movq	-200(%rbp), %rdi
Ltmp758:
	testq	%rdi, %rdi
	je	LBB41_403
Ltmp759:
	movq	-192(%rbp), %rsi
Ltmp760:
	testq	%rsi, %rsi
	jne	LBB41_402
	jmp	LBB41_403
Ltmp761:
LBB41_14:
	.loc	25 61 22 is_stmt 1
	movq	-72(%rbp), %rax
	movq	%rax, -320(%rbp)
	movq	-80(%rbp), %rax
	movq	%rax, -328(%rbp)
	movq	-88(%rbp), %rax
	movq	%rax, -336(%rbp)
	movq	-96(%rbp), %rax
	movq	%rax, -344(%rbp)
	movq	-104(%rbp), %rax
	movq	%rax, -352(%rbp)
	movq	-120(%rbp), %rax
	movq	-112(%rbp), %rcx
	movq	%rcx, -360(%rbp)
	movq	%rax, -368(%rbp)
Ltmp669:
	leaq	-576(%rbp), %rdi
	.loc	25 65 23
	callq	__ZN4core3ptr13drop_in_place17hd45d887a86263733E
Ltmp670:
Ltmp762:
	.loc	3 178 1
	cmpq	$0, -208(%rbp)
	.loc	3 0 0 is_stmt 0
	movq	-200(%rbp), %rdi
Ltmp763:
	testq	%rdi, %rdi
	je	LBB41_18
Ltmp764:
	movq	-192(%rbp), %rsi
Ltmp765:
	testq	%rsi, %rsi
	je	LBB41_18
Ltmp766:
	movl	$1, %edx
	callq	___rust_dealloc
Ltmp767:
LBB41_18:
	.loc	25 67 13 is_stmt 1
	leaq	-320(%rbp), %rdi
Ltmp672:
	callq	__ZN3std7process10ExitStatus7success17h2b8b99214fbc7387E
Ltmp673:
Ltmp768:
	.loc	25 67 9 is_stmt 0
	testb	%al, %al
	je	LBB41_25
Ltmp769:
	.loc	25 71 38 is_stmt 1
	movq	-352(%rbp), %rdx
	movq	%rdx, -104(%rbp)
	movq	-368(%rbp), %rsi
	movq	-360(%rbp), %rax
	movq	%rax, -112(%rbp)
	movq	%rsi, -120(%rbp)
Ltmp770:
Ltmp684:
	.loc	25 0 38 is_stmt 0
	leaq	-576(%rbp), %rdi
Ltmp771:
	.loc	11 494 15 is_stmt 1
	callq	__ZN4core3str9from_utf817he06957962f38305fE
Ltmp685:
Ltmp772:
	.loc	11 495 13
	cmpq	$1, -576(%rbp)
	jne	LBB41_30
Ltmp773:
	.loc	11 496 50
	movq	-104(%rbp), %rax
	movq	-120(%rbp), %rcx
	movq	-112(%rbp), %rdx
	.loc	11 496 27 is_stmt 0
	movq	-568(%rbp), %rsi
	movq	-560(%rbp), %rdi
	.loc	11 496 23
	movq	%rcx, -784(%rbp)
	movq	%rdx, -776(%rbp)
	movq	%rax, -768(%rbp)
Ltmp774:
	.loc	8 1548 9 is_stmt 1
	movq	%rdi, -176(%rbp)
	movq	%rsi, -184(%rbp)
	movq	%rax, -192(%rbp)
	movq	%rdx, -200(%rbp)
	movq	%rcx, -208(%rbp)
Ltmp775:
	.loc	30 36 34
	movq	-176(%rbp), %rax
	movq	%rax, -88(%rbp)
	movq	-184(%rbp), %rax
	movq	%rax, -96(%rbp)
	movq	-192(%rbp), %rax
	movq	%rax, -104(%rbp)
	movq	-208(%rbp), %rax
	movq	-200(%rbp), %rcx
	movq	%rcx, -112(%rbp)
	movq	%rax, -120(%rbp)
Ltmp713:
	leaq	-784(%rbp), %rdi
Ltmp776:
	.loc	31 19 17
	callq	__ZN7failure9backtrace9Backtrace3new17h53bd39fe603c24d3E
Ltmp714:
Ltmp777:
	.loc	31 21 30
	movq	-744(%rbp), %rax
	movq	%rax, -536(%rbp)
	movq	-752(%rbp), %rax
	movq	%rax, -544(%rbp)
	movq	-760(%rbp), %rax
	movq	%rax, -552(%rbp)
	movq	-768(%rbp), %rax
	movq	%rax, -560(%rbp)
	movq	-784(%rbp), %rax
	movq	-776(%rbp), %rcx
	movq	%rcx, -568(%rbp)
	movq	%rax, -576(%rbp)
	.loc	31 21 13 is_stmt 0
	movq	-120(%rbp), %rax
	movq	-112(%rbp), %rcx
	movq	%rax, -528(%rbp)
	movq	%rcx, -520(%rbp)
	movq	-104(%rbp), %rax
	movq	%rax, -512(%rbp)
	movq	-96(%rbp), %rax
	movq	%rax, -504(%rbp)
	movq	-88(%rbp), %rax
	movq	%rax, -496(%rbp)
	leaq	-784(%rbp), %rdi
	leaq	-576(%rbp), %rsi
Ltmp778:
	.loc	31 23 37 is_stmt 1
	movl	$11, %ecx
	rep;movsq (%rsi), %es:(%rdi)
Ltmp779:
	.loc	6 80 5
	movl	$88, %edi
	movl	$8, %esi
	callq	___rust_alloc
Ltmp780:
	.loc	6 269 9
	testq	%rax, %rax
	je	LBB41_407
Ltmp781:
	.loc	6 0 9 is_stmt 0
	leaq	-784(%rbp), %rsi
	.loc	32 174 13 is_stmt 1
	movl	$11, %ecx
	movq	%rax, %rdi
	rep;movsq (%rsi), %es:(%rdi)
Ltmp782:
	.loc	8 1558 9
	movq	%rax, 8(%r13)
	leaq	l___unnamed_4(%rip), %rax
Ltmp783:
	movq	%rax, 16(%r13)
	movq	$1, (%r13)
Ltmp784:
	.loc	25 0 0 is_stmt 0
	movq	-344(%rbp), %rdi
Ltmp785:
	testq	%rdi, %rdi
	je	LBB41_403
Ltmp786:
LBB41_401:
	movq	-336(%rbp), %rsi
Ltmp787:
	testq	%rsi, %rsi
	jne	LBB41_402
	jmp	LBB41_403
Ltmp788:
LBB41_25:
	.loc	25 68 59 is_stmt 1
	movq	-328(%rbp), %rdx
	movq	%rdx, -104(%rbp)
	movq	-344(%rbp), %rsi
	movq	-336(%rbp), %rax
	movq	%rax, -112(%rbp)
	movq	%rsi, -120(%rbp)
Ltmp789:
Ltmp675:
	.loc	25 0 59 is_stmt 0
	leaq	-576(%rbp), %rdi
Ltmp790:
	.loc	11 494 15 is_stmt 1
	callq	__ZN4core3str9from_utf817he06957962f38305fE
Ltmp676:
Ltmp791:
	.loc	11 495 13
	cmpq	$1, -576(%rbp)
	jne	LBB41_190
Ltmp792:
	.loc	11 496 50
	movq	-104(%rbp), %rax
	movq	-120(%rbp), %rcx
	movq	-112(%rbp), %rdx
	.loc	11 496 27 is_stmt 0
	movq	-568(%rbp), %rsi
	movq	-560(%rbp), %rdi
	.loc	11 496 23
	movq	%rcx, -784(%rbp)
	movq	%rdx, -776(%rbp)
	movq	%rax, -768(%rbp)
Ltmp793:
	.loc	8 1548 9 is_stmt 1
	movq	%rdi, -176(%rbp)
	movq	%rsi, -184(%rbp)
	movq	%rax, -192(%rbp)
	movq	%rdx, -200(%rbp)
	movq	%rcx, -208(%rbp)
Ltmp794:
	.loc	30 36 34
	movq	-176(%rbp), %rax
	movq	%rax, -88(%rbp)
	movq	-184(%rbp), %rax
	movq	%rax, -96(%rbp)
	movq	-192(%rbp), %rax
	movq	%rax, -104(%rbp)
	movq	-208(%rbp), %rax
	movq	-200(%rbp), %rcx
	movq	%rcx, -112(%rbp)
	movq	%rax, -120(%rbp)
Ltmp681:
	leaq	-784(%rbp), %rdi
Ltmp795:
	.loc	31 19 17
	callq	__ZN7failure9backtrace9Backtrace3new17h53bd39fe603c24d3E
Ltmp682:
Ltmp796:
	.loc	31 21 30
	movq	-744(%rbp), %rax
	movq	%rax, -536(%rbp)
	movq	-752(%rbp), %rax
	movq	%rax, -544(%rbp)
	movq	-760(%rbp), %rax
	movq	%rax, -552(%rbp)
	movq	-768(%rbp), %rax
	movq	%rax, -560(%rbp)
	movq	-784(%rbp), %rax
	movq	-776(%rbp), %rcx
	movq	%rcx, -568(%rbp)
	movq	%rax, -576(%rbp)
	.loc	31 21 13 is_stmt 0
	movq	-120(%rbp), %rax
	movq	-112(%rbp), %rcx
	movq	%rax, -528(%rbp)
	movq	%rcx, -520(%rbp)
	movq	-104(%rbp), %rax
	movq	%rax, -512(%rbp)
	movq	-96(%rbp), %rax
	movq	%rax, -504(%rbp)
	movq	-88(%rbp), %rax
	movq	%rax, -496(%rbp)
	leaq	-784(%rbp), %rdi
	leaq	-576(%rbp), %rsi
Ltmp797:
	.loc	31 23 37 is_stmt 1
	movl	$11, %ecx
	rep;movsq (%rsi), %es:(%rdi)
Ltmp798:
	.loc	6 80 5
	movl	$88, %edi
	movl	$8, %esi
	callq	___rust_alloc
Ltmp799:
	.loc	6 269 9
	testq	%rax, %rax
	je	LBB41_407
Ltmp800:
	.loc	6 0 9 is_stmt 0
	leaq	-784(%rbp), %rsi
	.loc	32 174 13 is_stmt 1
	movl	$11, %ecx
	movq	%rax, %rdi
	rep;movsq (%rsi), %es:(%rdi)
	leaq	l___unnamed_4(%rip), %rcx
Ltmp801:
	.loc	32 0 13 is_stmt 0
	jmp	LBB41_193
Ltmp802:
LBB41_30:
	movq	%r13, -888(%rbp)
Ltmp803:
	.loc	11 495 23 is_stmt 1
	movq	-104(%rbp), %rax
	movq	-120(%rbp), %rcx
	movq	-112(%rbp), %rdx
Ltmp804:
	.loc	8 1548 9
	movq	%rcx, -208(%rbp)
	movq	%rdx, -200(%rbp)
	movq	%rax, -192(%rbp)
Ltmp805:
	.loc	25 71 20
	movq	%rax, -240(%rbp)
	movq	%rdx, -248(%rbp)
	movq	%rcx, -256(%rbp)
Ltmp806:
	.loc	25 72 29
	movq	$0, -912(%rbp)
Ltmp807:
	.loc	25 73 33
	movq	$0, -808(%rbp)
Ltmp808:
	.loc	25 74 31
	movq	$0, -856(%rbp)
Ltmp809:
	.loc	25 75 33
	movq	$0, -600(%rbp)
Ltmp810:
	.loc	25 76 40
	movq	$0, -392(%rbp)
Ltmp811:
	.loc	25 77 30
	movq	$0, -280(%rbp)
Ltmp812:
	.loc	25 78 33
	movq	$0, -232(%rbp)
Ltmp813:
	.loc	10 324 9
	movq	$8, -144(%rbp)
	movq	$0, -136(%rbp)
	movq	$0, -128(%rbp)
Ltmp814:
	.loc	10 324 9 is_stmt 0
	movq	$8, -168(%rbp)
	movq	$0, -160(%rbp)
	movq	$0, -152(%rbp)
Ltmp815:
	.loc	10 814 19 is_stmt 1
	movq	-256(%rbp), %rax
Ltmp816:
	.loc	10 1966 55
	movq	-240(%rbp), %rcx
Ltmp817:
	.loc	25 82 22
	movq	$0, -576(%rbp)
	movq	%rcx, -568(%rbp)
	movq	%rax, -560(%rbp)
	movq	%rcx, -552(%rbp)
	movq	$0, -544(%rbp)
	movq	%rcx, -536(%rbp)
	movq	$1, -528(%rbp)
	movabsq	$42949672970, %rax
	movq	%rax, -520(%rbp)
	movw	$0, -512(%rbp)
	leaq	-576(%rbp), %r14
Ltmp818:
	.loc	25 0 22 is_stmt 0
	movabsq	$261993005117, %r15
Ltmp819:
	leaq	-784(%rbp), %r13
	movl	$99, %eax
	movd	%eax, %xmm0
	movdqa	%xmm0, -880(%rbp)
	jmp	LBB41_33
Ltmp820:
LBB41_31:
	.loc	25 89 38 is_stmt 1
	movq	%rbx, -856(%rbp)
	movq	%r15, -848(%rbp)
	movq	%r14, -840(%rbp)
Ltmp821:
	.p2align	4, 0x90
LBB41_32:
	.loc	25 0 38 is_stmt 0
	leaq	-576(%rbp), %r14
	movabsq	$261993005117, %r15
LBB41_33:
Ltmp687:
Ltmp822:
	.loc	15 976 17 is_stmt 1
	movq	%r14, %rdi
	callq	__ZN4core3str22SplitInternal$LT$P$GT$4next17h69af90ca8645d6eaE
Ltmp688:
Ltmp823:
	.loc	2 458 13
	testq	%rax, %rax
	je	LBB41_195
Ltmp824:
	.loc	15 1518 12
	testq	%rdx, %rdx
	je	LBB41_37
Ltmp825:
	.loc	15 1518 37 is_stmt 0
	leaq	-1(%rdx), %rcx
	.loc	15 1518 21
	cmpb	$13, -1(%rax,%rdx)
	.loc	15 1518 12
	cmovneq	%rdx, %rcx
	jmp	LBB41_38
Ltmp826:
	.p2align	4, 0x90
LBB41_37:
	.loc	15 0 12
	xorl	%ecx, %ecx
Ltmp827:
LBB41_38:
	.loc	15 3299 9 is_stmt 1
	movq	$0, -784(%rbp)
	movq	%rcx, -776(%rbp)
	movq	%rax, -768(%rbp)
	movq	%rcx, -760(%rbp)
	movq	$0, -752(%rbp)
	movq	%rcx, -744(%rbp)
	movq	$1, -736(%rbp)
	movq	%r15, -728(%rbp)
	movw	$1, -720(%rbp)
Ltmp828:
Ltmp689:
	.loc	15 976 17
	movq	%r13, %rdi
	callq	__ZN4core3str22SplitInternal$LT$P$GT$4next17h69af90ca8645d6eaE
Ltmp829:
Ltmp690:
	.loc	25 0 0 is_stmt 0
	movq	%rax, %r12
	movq	%rdx, %rbx
Ltmp691:
Ltmp830:
	.loc	15 976 17
	movq	%r13, %rdi
	callq	__ZN4core3str22SplitInternal$LT$P$GT$4next17h69af90ca8645d6eaE
Ltmp692:
Ltmp831:
	.loc	25 85 21 is_stmt 1
	testq	%r12, %r12
	je	LBB41_33
Ltmp832:
	testq	%rax, %rax
	je	LBB41_33
Ltmp833:
	.loc	17 5860 9
	addq	$-9, %rbx
Ltmp834:
	cmpq	$11, %rbx
	ja	LBB41_33
Ltmp835:
	.loc	17 0 9 is_stmt 0
	leaq	LJTI41_0(%rip), %rcx
	movq	%rcx, %rsi
	movslq	(%rcx,%rbx,4), %rcx
	addq	%rsi, %rcx
	jmpq	*%rcx
Ltmp836:
LBB41_44:
	.loc	17 5863 12 is_stmt 1
	leaq	l___unnamed_21(%rip), %rcx
	cmpq	%rcx, %r12
	.loc	17 5863 9 is_stmt 0
	je	LBB41_46
Ltmp837:
	.loc	17 0 9
	movq	(%r12), %rcx
Ltmp838:
	.loc	17 5868 13 is_stmt 1
	movabsq	$8025261039873581428, %rsi
	xorq	%rsi, %rcx
	movzbl	8(%r12), %esi
	xorq	$115, %rsi
	orq	%rcx, %rsi
Ltmp839:
	.loc	25 87 21
	jne	LBB41_33
Ltmp840:
LBB41_46:
	.loc	25 87 53 is_stmt 0
	movq	%rax, %rdi
	movq	%rdx, %rsi
	callq	__ZN4core3str21_$LT$impl$u20$str$GT$12trim_matches17h794539ae1a5068a3E
Ltmp841:
	movq	%rax, %r12
Ltmp842:
	movq	%rdx, %rbx
Ltmp843:
	.loc	6 170 16 is_stmt 1
	testq	%rdx, %rdx
	.loc	6 170 13 is_stmt 0
	je	LBB41_104
Ltmp844:
	.loc	6 80 5 is_stmt 1
	movl	$1, %esi
	movq	%rbx, %rdi
	callq	___rust_alloc
Ltmp845:
	.loc	8 852 13
	testq	%rax, %rax
	je	LBB41_408
Ltmp846:
	.loc	8 0 13 is_stmt 0
	movq	%rax, %r14
Ltmp847:
	movq	%rbx, %r15
Ltmp848:
	.loc	12 378 9 is_stmt 1
	cmpq	%rbx, %r15
Ltmp849:
	.loc	12 280 9
	jb	LBB41_105
	jmp	LBB41_144
Ltmp850:
LBB41_49:
	.loc	17 5863 12
	leaq	l___unnamed_22(%rip), %rcx
	cmpq	%rcx, %r12
	.loc	17 5863 9 is_stmt 0
	je	LBB41_51
Ltmp851:
	.loc	17 0 9
	movq	(%r12), %rcx
Ltmp852:
	.loc	17 5868 13 is_stmt 1
	movabsq	$7376742693532230004, %rsi
	xorq	%rsi, %rcx
	movq	6(%r12), %rsi
	movabsq	$7310034287886427743, %rdi
	xorq	%rdi, %rsi
	orq	%rcx, %rsi
Ltmp853:
	.loc	25 99 21
	jne	LBB41_33
Ltmp854:
LBB41_51:
	.loc	25 99 61 is_stmt 0
	movq	%rax, %rdi
	movq	%rdx, %rsi
	callq	__ZN4core3str21_$LT$impl$u20$str$GT$12trim_matches17h794539ae1a5068a3E
Ltmp855:
	movq	%rax, %r12
Ltmp856:
	movq	%rdx, %r14
Ltmp857:
	.loc	6 170 16 is_stmt 1
	testq	%rdx, %rdx
	.loc	6 170 13 is_stmt 0
	je	LBB41_89
Ltmp858:
	.loc	6 80 5 is_stmt 1
	movl	$1, %esi
	movq	%r14, %rdi
	callq	___rust_alloc
Ltmp859:
	.loc	8 852 13
	testq	%rax, %rax
	je	LBB41_405
Ltmp860:
	.loc	8 0 13 is_stmt 0
	movq	%rax, %rbx
Ltmp861:
	movq	%r14, %r15
Ltmp862:
	.loc	12 378 9 is_stmt 1
	cmpq	%r14, %r15
Ltmp863:
	.loc	12 280 9
	jb	LBB41_90
	jmp	LBB41_127
Ltmp864:
LBB41_54:
	.loc	17 5863 12
	leaq	l___unnamed_23(%rip), %rcx
	cmpq	%rcx, %r12
	.loc	17 5863 9 is_stmt 0
	je	LBB41_56
Ltmp865:
	.loc	17 0 9
	movq	(%r12), %rcx
Ltmp866:
	.loc	17 5868 13 is_stmt 1
	movabsq	$7016454723342590324, %rsi
	xorq	%rsi, %rcx
	movq	3(%r12), %rsi
	movabsq	$7521981565177718119, %rdi
	xorq	%rdi, %rsi
	orq	%rcx, %rsi
Ltmp867:
	.loc	25 89 21
	jne	LBB41_33
Ltmp868:
LBB41_56:
	.loc	25 89 57 is_stmt 0
	movq	%rax, %rdi
	movq	%rdx, %rsi
	callq	__ZN4core3str21_$LT$impl$u20$str$GT$12trim_matches17h794539ae1a5068a3E
Ltmp869:
	movq	%rax, %r12
Ltmp870:
	movq	%rdx, %r14
Ltmp871:
	.loc	6 170 16 is_stmt 1
	testq	%rdx, %rdx
	.loc	6 170 13 is_stmt 0
	je	LBB41_94
Ltmp872:
	.loc	6 80 5 is_stmt 1
	movl	$1, %esi
	movq	%r14, %rdi
	callq	___rust_alloc
Ltmp873:
	.loc	8 852 13
	testq	%rax, %rax
	je	LBB41_405
Ltmp874:
	.loc	8 0 13 is_stmt 0
	movq	%rax, %rbx
Ltmp875:
	movq	%r14, %r15
Ltmp876:
	.loc	12 378 9 is_stmt 1
	cmpq	%r14, %r15
Ltmp877:
	.loc	12 280 9
	jb	LBB41_95
	jmp	LBB41_131
Ltmp878:
LBB41_59:
	.loc	17 5863 12
	leaq	l___unnamed_24(%rip), %rcx
	cmpq	%rcx, %r12
	.loc	17 5863 9 is_stmt 0
	je	LBB41_83
Ltmp879:
	.loc	17 0 9
	movq	(%r12), %rcx
Ltmp880:
	.loc	17 5868 13 is_stmt 1
	movabsq	$7376742693532230004, %rsi
	xorq	%rsi, %rcx
	movq	5(%r12), %rsi
	movabsq	$8749484094580481908, %rdi
	xorq	%rdi, %rsi
	orq	%rcx, %rsi
Ltmp881:
	.loc	25 88 21
	je	LBB41_83
Ltmp882:
	.loc	17 5863 12
	leaq	l___unnamed_25(%rip), %rcx
	cmpq	%rcx, %r12
	.loc	17 5863 9 is_stmt 0
	je	LBB41_86
Ltmp883:
	.loc	17 0 9
	movq	(%r12), %rcx
Ltmp884:
	.loc	17 5868 13 is_stmt 1
	movabsq	$7304685099494302068, %rsi
	xorq	%rsi, %rcx
	movq	5(%r12), %rsi
	movabsq	$7953754296982790004, %rdi
	xorq	%rdi, %rsi
	orq	%rcx, %rsi
Ltmp885:
	.loc	25 90 21
	je	LBB41_86
Ltmp886:
	.loc	17 5863 12
	leaq	l___unnamed_26(%rip), %rcx
	cmpq	%rcx, %r12
	.loc	17 5863 9 is_stmt 0
	je	LBB41_65
Ltmp887:
	.loc	17 0 9
	movq	(%r12), %rcx
Ltmp888:
	.loc	17 5868 13 is_stmt 1
	movabsq	$8529664198139076980, %rsi
	xorq	%rsi, %rcx
	movq	5(%r12), %rsi
	movabsq	$8245919868050104180, %rdi
	xorq	%rdi, %rsi
	orq	%rcx, %rsi
Ltmp889:
	.loc	25 95 21
	jne	LBB41_33
Ltmp890:
LBB41_65:
	.loc	25 95 61 is_stmt 0
	movq	%rax, %rdi
	movq	%rdx, %rsi
	callq	__ZN4core3str21_$LT$impl$u20$str$GT$12trim_matches17h794539ae1a5068a3E
Ltmp891:
	movq	%rax, %r12
Ltmp892:
	movq	%rdx, %r14
Ltmp893:
	.loc	6 170 16 is_stmt 1
	testq	%rdx, %rdx
	.loc	6 170 13 is_stmt 0
	je	LBB41_178
Ltmp894:
	.loc	6 80 5 is_stmt 1
	movl	$1, %esi
	movq	%r14, %rdi
	callq	___rust_alloc
Ltmp895:
	.loc	8 852 13
	testq	%rax, %rax
	je	LBB41_405
Ltmp896:
	.loc	8 0 13 is_stmt 0
	movq	%rax, %rbx
Ltmp897:
	movq	%r14, %r15
Ltmp898:
	.loc	12 378 9 is_stmt 1
	cmpq	%r14, %r15
Ltmp899:
	.loc	12 280 9
	jb	LBB41_179
	jmp	LBB41_186
Ltmp900:
LBB41_68:
	.loc	17 5863 12
	leaq	l___unnamed_27(%rip), %rcx
	cmpq	%rcx, %r12
	.loc	17 5863 9 is_stmt 0
	je	LBB41_70
Ltmp901:
	.loc	17 0 9
	movq	(%r12), %rcx
Ltmp902:
	.loc	17 5868 13 is_stmt 1
	movabsq	$7304685099494302068, %rsi
	xorq	%rsi, %rcx
	movzwl	8(%r12), %esi
	xorq	$30318, %rsi
	orq	%rcx, %rsi
Ltmp903:
	.loc	25 94 21
	jne	LBB41_33
Ltmp904:
LBB41_70:
	.loc	25 94 55 is_stmt 0
	movq	%rax, %rdi
	movq	%rdx, %rsi
	callq	__ZN4core3str21_$LT$impl$u20$str$GT$12trim_matches17h794539ae1a5068a3E
Ltmp905:
	movq	%rax, %r12
Ltmp906:
	movq	%rdx, %r14
Ltmp907:
	.loc	6 170 16 is_stmt 1
	testq	%rdx, %rdx
	.loc	6 170 13 is_stmt 0
	je	LBB41_109
Ltmp908:
	.loc	6 80 5 is_stmt 1
	movl	$1, %esi
	movq	%r14, %rdi
	callq	___rust_alloc
Ltmp909:
	.loc	8 852 13
	testq	%rax, %rax
	je	LBB41_405
Ltmp910:
	.loc	8 0 13 is_stmt 0
	movq	%rax, %rbx
Ltmp911:
	movq	%r14, %r15
Ltmp912:
	.loc	12 378 9 is_stmt 1
	cmpq	%r14, %r15
Ltmp913:
	.loc	12 280 9
	jb	LBB41_110
	jmp	LBB41_151
Ltmp914:
LBB41_73:
	.loc	17 5863 12
	leaq	l___unnamed_28(%rip), %rcx
	cmpq	%rcx, %r12
	.loc	17 5863 9 is_stmt 0
	je	LBB41_75
Ltmp915:
	.loc	17 5868 13 is_stmt 1
	movdqu	(%r12), %xmm0
	pcmpeqb	LCPI41_0(%rip), %xmm0
	movzbl	16(%r12), %ecx
	movq	%rcx, %xmm1
	pcmpeqb	-880(%rbp), %xmm1
	pand	%xmm0, %xmm1
	pmovmskb	%xmm1, %ecx
	cmpl	$65535, %ecx
Ltmp916:
	.loc	25 96 21
	jne	LBB41_33
Ltmp917:
LBB41_75:
	.loc	25 97 48
	movq	%rax, %rdi
	movq	%rdx, %rsi
	callq	__ZN4core3str21_$LT$impl$u20$str$GT$12trim_matches17h794539ae1a5068a3E
Ltmp918:
	movq	%rax, %r12
Ltmp919:
	movq	%rdx, %r14
Ltmp920:
	.loc	6 170 16
	testq	%rdx, %rdx
	.loc	6 170 13 is_stmt 0
	je	LBB41_114
Ltmp921:
	.loc	6 80 5 is_stmt 1
	movl	$1, %esi
	movq	%r14, %rdi
	callq	___rust_alloc
Ltmp922:
	.loc	8 852 13
	testq	%rax, %rax
	je	LBB41_405
Ltmp923:
	.loc	8 0 13 is_stmt 0
	movq	%rax, %rbx
Ltmp924:
	movq	%r14, %r15
Ltmp925:
	.loc	12 378 9 is_stmt 1
	cmpq	%r14, %r15
Ltmp926:
	.loc	12 280 9
	jb	LBB41_115
	jmp	LBB41_158
Ltmp927:
LBB41_78:
	.loc	17 5863 12
	leaq	l___unnamed_29(%rip), %rcx
	cmpq	%rcx, %r12
	.loc	17 5863 9 is_stmt 0
	je	LBB41_80
Ltmp928:
	.loc	17 5868 13 is_stmt 1
	movdqu	(%r12), %xmm0
	pcmpeqb	LCPI41_2(%rip), %xmm0
	movd	16(%r12), %xmm1
	pcmpeqb	LCPI41_1(%rip), %xmm1
	pand	%xmm0, %xmm1
	pmovmskb	%xmm1, %ecx
	cmpl	$65535, %ecx
Ltmp929:
	.loc	25 91 21
	jne	LBB41_33
Ltmp930:
LBB41_80:
	.loc	25 92 53
	movq	%rax, %rdi
	movq	%rdx, %rsi
	callq	__ZN4core3str21_$LT$impl$u20$str$GT$12trim_matches17h794539ae1a5068a3E
Ltmp931:
	movq	%rax, %r12
Ltmp932:
	movq	%rdx, %r14
Ltmp933:
	.loc	6 170 16
	testq	%rdx, %rdx
	.loc	6 170 13 is_stmt 0
	je	LBB41_119
Ltmp934:
	.loc	6 80 5 is_stmt 1
	movl	$1, %esi
	movq	%r14, %rdi
	callq	___rust_alloc
Ltmp935:
	.loc	8 852 13
	testq	%rax, %rax
	je	LBB41_405
Ltmp936:
	.loc	8 0 13 is_stmt 0
	movq	%rax, %rbx
Ltmp937:
	movq	%r14, %r15
Ltmp938:
	.loc	12 378 9 is_stmt 1
	cmpq	%r14, %r15
Ltmp939:
	.loc	12 280 9
	jb	LBB41_120
	jmp	LBB41_162
Ltmp940:
LBB41_83:
	.loc	25 88 61
	movq	%rax, %rdi
	movq	%rdx, %rsi
	callq	__ZN4core3str21_$LT$impl$u20$str$GT$12trim_matches17h794539ae1a5068a3E
Ltmp941:
	movq	%rax, %r12
Ltmp942:
	movq	%rdx, %r14
Ltmp943:
	.loc	6 170 16
	testq	%rdx, %rdx
	.loc	6 170 13 is_stmt 0
	je	LBB41_99
Ltmp944:
	.loc	6 80 5 is_stmt 1
	movl	$1, %esi
	movq	%r14, %rdi
	callq	___rust_alloc
Ltmp945:
	.loc	8 852 13
	testq	%rax, %rax
	je	LBB41_405
Ltmp946:
	.loc	8 0 13 is_stmt 0
	movq	%rax, %rbx
Ltmp947:
	movq	%r14, %r15
Ltmp948:
	.loc	12 378 9 is_stmt 1
	cmpq	%r14, %r15
Ltmp949:
	.loc	12 280 9
	jb	LBB41_100
	jmp	LBB41_137
Ltmp950:
LBB41_86:
	.loc	25 90 61
	movq	%rax, %rdi
	movq	%rdx, %rsi
	callq	__ZN4core3str21_$LT$impl$u20$str$GT$12trim_matches17h794539ae1a5068a3E
Ltmp951:
	movq	%rax, %r12
Ltmp952:
	movq	%rdx, %r14
Ltmp953:
	.loc	6 170 16
	testq	%rdx, %rdx
	.loc	6 170 13 is_stmt 0
	je	LBB41_166
Ltmp954:
	.loc	6 80 5 is_stmt 1
	movl	$1, %esi
	movq	%r14, %rdi
	callq	___rust_alloc
Ltmp955:
	.loc	8 852 13
	testq	%rax, %rax
	je	LBB41_405
Ltmp956:
	.loc	8 0 13 is_stmt 0
	movq	%rax, %rbx
Ltmp957:
	movq	%r14, %r15
Ltmp958:
	.loc	12 378 9 is_stmt 1
	cmpq	%r14, %r15
Ltmp959:
	.loc	12 280 9
	jb	LBB41_167
	jmp	LBB41_174
Ltmp960:
LBB41_89:
	.loc	12 0 9 is_stmt 0
	movl	$1, %ebx
	xorl	%r15d, %r15d
Ltmp961:
	.loc	12 378 9 is_stmt 1
	cmpq	%r14, %r15
Ltmp962:
	.loc	12 280 9
	jae	LBB41_127
Ltmp963:
LBB41_90:
	.loc	12 0 9 is_stmt 0
	movq	%r12, -64(%rbp)
Ltmp964:
	.loc	12 414 26 is_stmt 1
	leaq	(%r15,%r15), %rax
Ltmp965:
	.loc	20 1017 9
	cmpq	%r14, %rax
	.loc	20 0 0 is_stmt 0
	movq	%r14, %r12
Ltmp966:
	cmovaq	%rax, %r12
Ltmp967:
	.loc	12 200 40 is_stmt 1
	testq	%r15, %r15
Ltmp968:
	.loc	12 200 9 is_stmt 0
	je	LBB41_124
Ltmp969:
	testq	%rbx, %rbx
	je	LBB41_124
Ltmp970:
	.loc	6 205 12 is_stmt 1
	cmpq	%r12, %r15
	.loc	6 205 9 is_stmt 0
	je	LBB41_126
Ltmp971:
	.loc	6 124 5 is_stmt 1
	movl	$1, %edx
	movq	%rbx, %rdi
	movq	%r15, %rsi
	movq	%r12, %rcx
	callq	___rust_realloc
Ltmp972:
	.loc	12 0 0 is_stmt 0
	movq	%rax, %rbx
Ltmp973:
	.loc	8 611 13 is_stmt 1
	testq	%rax, %rax
	jne	LBB41_125
	jmp	LBB41_406
Ltmp974:
LBB41_94:
	.loc	8 0 13 is_stmt 0
	movl	$1, %ebx
	xorl	%r15d, %r15d
Ltmp975:
	.loc	12 378 9 is_stmt 1
	cmpq	%r14, %r15
Ltmp976:
	.loc	12 280 9
	jae	LBB41_131
Ltmp977:
LBB41_95:
	.loc	12 0 9 is_stmt 0
	movq	%r12, -64(%rbp)
Ltmp978:
	.loc	12 414 26 is_stmt 1
	leaq	(%r15,%r15), %rax
Ltmp979:
	.loc	20 1017 9
	cmpq	%r14, %rax
	.loc	20 0 0 is_stmt 0
	movq	%r14, %r12
Ltmp980:
	cmovaq	%rax, %r12
Ltmp981:
	.loc	12 200 40 is_stmt 1
	testq	%r15, %r15
Ltmp982:
	.loc	12 200 9 is_stmt 0
	je	LBB41_128
Ltmp983:
	testq	%rbx, %rbx
	je	LBB41_128
Ltmp984:
	.loc	6 205 12 is_stmt 1
	cmpq	%r12, %r15
	.loc	6 205 9 is_stmt 0
	je	LBB41_130
Ltmp985:
	.loc	6 124 5 is_stmt 1
	movl	$1, %edx
	movq	%rbx, %rdi
	movq	%r15, %rsi
	movq	%r12, %rcx
	callq	___rust_realloc
Ltmp986:
	.loc	12 0 0 is_stmt 0
	movq	%rax, %rbx
Ltmp987:
	.loc	8 611 13 is_stmt 1
	testq	%rax, %rax
	jne	LBB41_129
	jmp	LBB41_406
Ltmp988:
LBB41_99:
	.loc	8 0 13 is_stmt 0
	movl	$1, %ebx
	xorl	%r15d, %r15d
Ltmp989:
	.loc	12 378 9 is_stmt 1
	cmpq	%r14, %r15
Ltmp990:
	.loc	12 280 9
	jae	LBB41_137
Ltmp991:
LBB41_100:
	.loc	12 0 9 is_stmt 0
	movq	%r12, -64(%rbp)
Ltmp992:
	.loc	12 414 26 is_stmt 1
	leaq	(%r15,%r15), %rax
Ltmp993:
	.loc	20 1017 9
	cmpq	%r14, %rax
	.loc	20 0 0 is_stmt 0
	movq	%r14, %r12
Ltmp994:
	cmovaq	%rax, %r12
Ltmp995:
	.loc	12 200 40 is_stmt 1
	testq	%r15, %r15
Ltmp996:
	.loc	12 200 9 is_stmt 0
	je	LBB41_134
Ltmp997:
	testq	%rbx, %rbx
	je	LBB41_134
Ltmp998:
	.loc	6 205 12 is_stmt 1
	cmpq	%r12, %r15
	.loc	6 205 9 is_stmt 0
	je	LBB41_136
Ltmp999:
	.loc	6 124 5 is_stmt 1
	movl	$1, %edx
	movq	%rbx, %rdi
	movq	%r15, %rsi
	movq	%r12, %rcx
	callq	___rust_realloc
Ltmp1000:
	.loc	12 0 0 is_stmt 0
	movq	%rax, %rbx
Ltmp1001:
	.loc	8 611 13 is_stmt 1
	testq	%rax, %rax
	jne	LBB41_135
	jmp	LBB41_406
Ltmp1002:
LBB41_104:
	.loc	8 0 13 is_stmt 0
	movl	$1, %r14d
	xorl	%r15d, %r15d
Ltmp1003:
	.loc	12 378 9 is_stmt 1
	cmpq	%rbx, %r15
Ltmp1004:
	.loc	12 280 9
	jae	LBB41_144
Ltmp1005:
LBB41_105:
	.loc	12 0 9 is_stmt 0
	movq	%r12, -64(%rbp)
Ltmp1006:
	.loc	12 414 26 is_stmt 1
	leaq	(%r15,%r15), %rax
Ltmp1007:
	.loc	20 1017 9
	cmpq	%rbx, %rax
	.loc	20 0 0 is_stmt 0
	movq	%rbx, %r12
Ltmp1008:
	cmovaq	%rax, %r12
Ltmp1009:
	.loc	12 200 40 is_stmt 1
	testq	%r15, %r15
Ltmp1010:
	.loc	12 200 9 is_stmt 0
	je	LBB41_141
Ltmp1011:
	testq	%r14, %r14
	je	LBB41_141
Ltmp1012:
	.loc	6 205 12 is_stmt 1
	cmpq	%r12, %r15
	.loc	6 205 9 is_stmt 0
	je	LBB41_143
Ltmp1013:
	.loc	6 124 5 is_stmt 1
	movl	$1, %edx
	movq	%r14, %rdi
	movq	%r15, %rsi
	movq	%r12, %rcx
	callq	___rust_realloc
Ltmp1014:
	.loc	12 0 0 is_stmt 0
	movq	%rax, %r14
Ltmp1015:
	.loc	8 611 13 is_stmt 1
	testq	%rax, %rax
	jne	LBB41_142
	jmp	LBB41_406
Ltmp1016:
LBB41_109:
	.loc	8 0 13 is_stmt 0
	movl	$1, %ebx
	xorl	%r15d, %r15d
Ltmp1017:
	.loc	12 378 9 is_stmt 1
	cmpq	%r14, %r15
Ltmp1018:
	.loc	12 280 9
	jae	LBB41_151
Ltmp1019:
LBB41_110:
	.loc	12 0 9 is_stmt 0
	movq	%r12, -64(%rbp)
Ltmp1020:
	.loc	12 414 26 is_stmt 1
	leaq	(%r15,%r15), %rax
Ltmp1021:
	.loc	20 1017 9
	cmpq	%r14, %rax
	.loc	20 0 0 is_stmt 0
	movq	%r14, %r12
Ltmp1022:
	cmovaq	%rax, %r12
Ltmp1023:
	.loc	12 200 40 is_stmt 1
	testq	%r15, %r15
Ltmp1024:
	.loc	12 200 9 is_stmt 0
	je	LBB41_148
Ltmp1025:
	testq	%rbx, %rbx
	je	LBB41_148
Ltmp1026:
	.loc	6 205 12 is_stmt 1
	cmpq	%r12, %r15
	.loc	6 205 9 is_stmt 0
	je	LBB41_150
Ltmp1027:
	.loc	6 124 5 is_stmt 1
	movl	$1, %edx
	movq	%rbx, %rdi
	movq	%r15, %rsi
	movq	%r12, %rcx
	callq	___rust_realloc
Ltmp1028:
	.loc	12 0 0 is_stmt 0
	movq	%rax, %rbx
Ltmp1029:
	.loc	8 611 13 is_stmt 1
	testq	%rax, %rax
	jne	LBB41_149
	jmp	LBB41_406
Ltmp1030:
LBB41_114:
	.loc	8 0 13 is_stmt 0
	movl	$1, %ebx
	xorl	%r15d, %r15d
Ltmp1031:
	.loc	12 378 9 is_stmt 1
	cmpq	%r14, %r15
Ltmp1032:
	.loc	12 280 9
	jae	LBB41_158
Ltmp1033:
LBB41_115:
	.loc	12 0 9 is_stmt 0
	movq	%r12, -64(%rbp)
Ltmp1034:
	.loc	12 414 26 is_stmt 1
	leaq	(%r15,%r15), %rax
Ltmp1035:
	.loc	20 1017 9
	cmpq	%r14, %rax
	.loc	20 0 0 is_stmt 0
	movq	%r14, %r12
Ltmp1036:
	cmovaq	%rax, %r12
Ltmp1037:
	.loc	12 200 40 is_stmt 1
	testq	%r15, %r15
Ltmp1038:
	.loc	12 200 9 is_stmt 0
	je	LBB41_155
Ltmp1039:
	testq	%rbx, %rbx
	je	LBB41_155
Ltmp1040:
	.loc	6 205 12 is_stmt 1
	cmpq	%r12, %r15
	.loc	6 205 9 is_stmt 0
	je	LBB41_157
Ltmp1041:
	.loc	6 124 5 is_stmt 1
	movl	$1, %edx
	movq	%rbx, %rdi
	movq	%r15, %rsi
	movq	%r12, %rcx
	callq	___rust_realloc
Ltmp1042:
	.loc	12 0 0 is_stmt 0
	movq	%rax, %rbx
Ltmp1043:
	.loc	8 611 13 is_stmt 1
	testq	%rax, %rax
	jne	LBB41_156
	jmp	LBB41_406
Ltmp1044:
LBB41_119:
	.loc	8 0 13 is_stmt 0
	movl	$1, %ebx
	xorl	%r15d, %r15d
Ltmp1045:
	.loc	12 378 9 is_stmt 1
	cmpq	%r14, %r15
Ltmp1046:
	.loc	12 280 9
	jae	LBB41_162
Ltmp1047:
LBB41_120:
	.loc	12 0 9 is_stmt 0
	movq	%r12, -64(%rbp)
Ltmp1048:
	.loc	12 414 26 is_stmt 1
	leaq	(%r15,%r15), %rax
Ltmp1049:
	.loc	20 1017 9
	cmpq	%r14, %rax
	.loc	20 0 0 is_stmt 0
	movq	%r14, %r12
Ltmp1050:
	cmovaq	%rax, %r12
Ltmp1051:
	.loc	12 200 40 is_stmt 1
	testq	%r15, %r15
Ltmp1052:
	.loc	12 200 9 is_stmt 0
	je	LBB41_159
Ltmp1053:
	testq	%rbx, %rbx
	je	LBB41_159
Ltmp1054:
	.loc	6 205 12 is_stmt 1
	cmpq	%r12, %r15
	.loc	6 205 9 is_stmt 0
	je	LBB41_161
Ltmp1055:
	.loc	6 124 5 is_stmt 1
	movl	$1, %edx
	movq	%rbx, %rdi
	movq	%r15, %rsi
	movq	%r12, %rcx
	callq	___rust_realloc
Ltmp1056:
	.loc	12 0 0 is_stmt 0
	movq	%rax, %rbx
Ltmp1057:
	.loc	8 611 13 is_stmt 1
	testq	%rax, %rax
	jne	LBB41_160
	jmp	LBB41_406
Ltmp1058:
LBB41_124:
	.loc	6 80 5
	movl	$1, %esi
	movq	%r12, %rdi
	callq	___rust_alloc
Ltmp1059:
	.loc	12 0 0 is_stmt 0
	movq	%rax, %rbx
Ltmp1060:
	.loc	8 611 13 is_stmt 1
	testq	%rax, %rax
	je	LBB41_406
Ltmp1061:
LBB41_125:
	.file	33 "/rustc/a74d1862d4d87a56244958416fd05976c58ca1a8/src/liballoc/slice.rs"
	.loc	33 0 0 is_stmt 0
	movq	%r12, %r15
Ltmp1062:
LBB41_126:
	movq	-64(%rbp), %r12
Ltmp1063:
LBB41_127:
	.file	34 "/rustc/a74d1862d4d87a56244958416fd05976c58ca1a8/src/libcore/intrinsics.rs"
	.loc	34 2058 5 is_stmt 1
	movq	%rbx, %rdi
	movq	%r12, %rsi
	movq	%r14, %rdx
	callq	_memcpy
Ltmp1064:
	.loc	11 761 23
	movq	%rbx, -120(%rbp)
	movq	%r15, -112(%rbp)
	movq	%r14, -104(%rbp)
Ltmp1065:
Ltmp693:
	.loc	25 99 41
	leaq	-168(%rbp), %rdi
	leaq	-120(%rbp), %rsi
	callq	__ZN5alloc3vec12Vec$LT$T$GT$4push17h753e7aae4f738212E
Ltmp694:
	leaq	-576(%rbp), %r14
Ltmp1066:
	.loc	25 0 41 is_stmt 0
	movabsq	$261993005117, %r15
Ltmp1067:
	jmp	LBB41_33
Ltmp1068:
LBB41_128:
	.loc	6 80 5 is_stmt 1
	movl	$1, %esi
	movq	%r12, %rdi
	callq	___rust_alloc
Ltmp1069:
	.loc	12 0 0 is_stmt 0
	movq	%rax, %rbx
Ltmp1070:
	.loc	8 611 13 is_stmt 1
	testq	%rax, %rax
	je	LBB41_406
Ltmp1071:
LBB41_129:
	.loc	33 0 0 is_stmt 0
	movq	%r12, %r15
Ltmp1072:
LBB41_130:
	movq	-64(%rbp), %r12
Ltmp1073:
LBB41_131:
	.loc	34 2058 5 is_stmt 1
	movq	%rbx, %rdi
	movq	%r12, %rsi
	movq	%r14, %rdx
	callq	_memcpy
Ltmp1074:
	.loc	3 178 1
	movq	-856(%rbp), %rdi
Ltmp1075:
	testq	%rdi, %rdi
	je	LBB41_31
Ltmp1076:
	.loc	3 178 1 is_stmt 0
	movq	-848(%rbp), %rsi
Ltmp1077:
	.loc	12 200 40 is_stmt 1
	testq	%rsi, %rsi
	.loc	12 200 9 is_stmt 0
	je	LBB41_31
Ltmp1078:
	.loc	6 102 5 is_stmt 1
	movl	$1, %edx
	callq	___rust_dealloc
Ltmp1079:
	.loc	6 0 5 is_stmt 0
	jmp	LBB41_31
Ltmp1080:
LBB41_134:
	.loc	6 80 5 is_stmt 1
	movl	$1, %esi
	movq	%r12, %rdi
	callq	___rust_alloc
Ltmp1081:
	.loc	12 0 0 is_stmt 0
	movq	%rax, %rbx
Ltmp1082:
	.loc	8 611 13 is_stmt 1
	testq	%rax, %rax
	je	LBB41_406
Ltmp1083:
LBB41_135:
	.loc	33 0 0 is_stmt 0
	movq	%r12, %r15
Ltmp1084:
LBB41_136:
	movq	-64(%rbp), %r12
Ltmp1085:
LBB41_137:
	.loc	34 2058 5 is_stmt 1
	movq	%rbx, %rdi
	movq	%r12, %rsi
	movq	%r14, %rdx
	callq	_memcpy
Ltmp1086:
	.loc	3 178 1
	movq	-808(%rbp), %rdi
Ltmp1087:
	testq	%rdi, %rdi
	je	LBB41_140
Ltmp1088:
	.loc	3 178 1 is_stmt 0
	movq	-800(%rbp), %rsi
Ltmp1089:
	.loc	12 200 40 is_stmt 1
	testq	%rsi, %rsi
	.loc	12 200 9 is_stmt 0
	je	LBB41_140
Ltmp1090:
	.loc	6 102 5 is_stmt 1
	movl	$1, %edx
	callq	___rust_dealloc
Ltmp1091:
LBB41_140:
	.loc	25 88 40
	movq	%rbx, -808(%rbp)
	movq	%r15, -800(%rbp)
	movq	%r14, -792(%rbp)
	jmp	LBB41_32
LBB41_141:
Ltmp1092:
	.loc	6 80 5
	movl	$1, %esi
	movq	%r12, %rdi
	callq	___rust_alloc
Ltmp1093:
	.loc	12 0 0 is_stmt 0
	movq	%rax, %r14
Ltmp1094:
	.loc	8 611 13 is_stmt 1
	testq	%rax, %rax
	je	LBB41_406
Ltmp1095:
LBB41_142:
	.loc	33 0 0 is_stmt 0
	movq	%r12, %r15
Ltmp1096:
LBB41_143:
	movq	-64(%rbp), %r12
Ltmp1097:
LBB41_144:
	.loc	34 2058 5 is_stmt 1
	movq	%r14, %rdi
	movq	%r12, %rsi
	movq	%rbx, %rdx
	callq	_memcpy
Ltmp1098:
	.loc	3 178 1
	movq	-912(%rbp), %rdi
Ltmp1099:
	testq	%rdi, %rdi
	je	LBB41_147
Ltmp1100:
	.loc	3 178 1 is_stmt 0
	movq	-904(%rbp), %rsi
Ltmp1101:
	.loc	12 200 40 is_stmt 1
	testq	%rsi, %rsi
	.loc	12 200 9 is_stmt 0
	je	LBB41_147
Ltmp1102:
	.loc	6 102 5 is_stmt 1
	movl	$1, %edx
	callq	___rust_dealloc
Ltmp1103:
LBB41_147:
	.loc	25 87 36
	movq	%r14, -912(%rbp)
	movq	%r15, -904(%rbp)
	movq	%rbx, -896(%rbp)
	jmp	LBB41_32
LBB41_148:
Ltmp1104:
	.loc	6 80 5
	movl	$1, %esi
	movq	%r12, %rdi
	callq	___rust_alloc
Ltmp1105:
	.loc	12 0 0 is_stmt 0
	movq	%rax, %rbx
Ltmp1106:
	.loc	8 611 13 is_stmt 1
	testq	%rax, %rax
	je	LBB41_406
Ltmp1107:
LBB41_149:
	.loc	33 0 0 is_stmt 0
	movq	%r12, %r15
Ltmp1108:
LBB41_150:
	movq	-64(%rbp), %r12
Ltmp1109:
LBB41_151:
	.loc	34 2058 5 is_stmt 1
	movq	%rbx, %rdi
	movq	%r12, %rsi
	movq	%r14, %rdx
	callq	_memcpy
Ltmp1110:
	.loc	3 178 1
	movq	-280(%rbp), %rdi
Ltmp1111:
	testq	%rdi, %rdi
	je	LBB41_154
Ltmp1112:
	.loc	3 178 1 is_stmt 0
	movq	-272(%rbp), %rsi
Ltmp1113:
	.loc	12 200 40 is_stmt 1
	testq	%rsi, %rsi
	.loc	12 200 9 is_stmt 0
	je	LBB41_154
Ltmp1114:
	.loc	6 102 5 is_stmt 1
	movl	$1, %edx
	callq	___rust_dealloc
Ltmp1115:
LBB41_154:
	.loc	25 94 37
	movq	%rbx, -280(%rbp)
	movq	%r15, -272(%rbp)
	movq	%r14, -264(%rbp)
	jmp	LBB41_32
LBB41_155:
Ltmp1116:
	.loc	6 80 5
	movl	$1, %esi
	movq	%r12, %rdi
	callq	___rust_alloc
Ltmp1117:
	.loc	12 0 0 is_stmt 0
	movq	%rax, %rbx
Ltmp1118:
	.loc	8 611 13 is_stmt 1
	testq	%rax, %rax
	je	LBB41_406
Ltmp1119:
LBB41_156:
	.loc	33 0 0 is_stmt 0
	movq	%r12, %r15
Ltmp1120:
LBB41_157:
	movq	-64(%rbp), %r12
Ltmp1121:
LBB41_158:
	.loc	34 2058 5 is_stmt 1
	movq	%rbx, %rdi
	movq	%r12, %rsi
	movq	%r14, %rdx
	callq	_memcpy
Ltmp1122:
	.loc	11 761 23
	movq	%rbx, -120(%rbp)
	movq	%r15, -112(%rbp)
	movq	%r14, -104(%rbp)
Ltmp1123:
Ltmp695:
	.loc	25 97 25
	leaq	-144(%rbp), %rdi
	leaq	-120(%rbp), %rsi
	callq	__ZN5alloc3vec12Vec$LT$T$GT$4push17h753e7aae4f738212E
Ltmp696:
	leaq	-576(%rbp), %r14
Ltmp1124:
	.loc	25 0 25 is_stmt 0
	movabsq	$261993005117, %r15
Ltmp1125:
	jmp	LBB41_33
Ltmp1126:
LBB41_159:
	.loc	6 80 5 is_stmt 1
	movl	$1, %esi
	movq	%r12, %rdi
	callq	___rust_alloc
Ltmp1127:
	.loc	12 0 0 is_stmt 0
	movq	%rax, %rbx
Ltmp1128:
	.loc	8 611 13 is_stmt 1
	testq	%rax, %rax
	je	LBB41_406
Ltmp1129:
LBB41_160:
	.loc	33 0 0 is_stmt 0
	movq	%r12, %r15
Ltmp1130:
LBB41_161:
	movq	-64(%rbp), %r12
Ltmp1131:
LBB41_162:
	.loc	34 2058 5 is_stmt 1
	movq	%rbx, %rdi
	movq	%r12, %rsi
	movq	%r14, %rdx
	callq	_memcpy
Ltmp1132:
	.loc	3 178 1
	movq	-392(%rbp), %rdi
Ltmp1133:
	testq	%rdi, %rdi
	je	LBB41_165
Ltmp1134:
	.loc	3 178 1 is_stmt 0
	movq	-384(%rbp), %rsi
Ltmp1135:
	.loc	12 200 40 is_stmt 1
	testq	%rsi, %rsi
	.loc	12 200 9 is_stmt 0
	je	LBB41_165
Ltmp1136:
	.loc	6 102 5 is_stmt 1
	movl	$1, %edx
	callq	___rust_dealloc
Ltmp1137:
LBB41_165:
	.loc	25 92 25
	movq	%rbx, -392(%rbp)
	movq	%r15, -384(%rbp)
	movq	%r14, -376(%rbp)
	jmp	LBB41_32
LBB41_166:
Ltmp1138:
	.loc	25 0 25 is_stmt 0
	movl	$1, %ebx
	xorl	%r15d, %r15d
Ltmp1139:
	.loc	12 378 9 is_stmt 1
	cmpq	%r14, %r15
Ltmp1140:
	.loc	12 280 9
	jae	LBB41_174
Ltmp1141:
LBB41_167:
	.loc	12 0 9 is_stmt 0
	movq	%r12, -64(%rbp)
Ltmp1142:
	.loc	12 414 26 is_stmt 1
	leaq	(%r15,%r15), %rax
Ltmp1143:
	.loc	20 1017 9
	cmpq	%r14, %rax
	.loc	20 0 0 is_stmt 0
	movq	%r14, %r12
Ltmp1144:
	cmovaq	%rax, %r12
Ltmp1145:
	.loc	12 200 40 is_stmt 1
	testq	%r15, %r15
Ltmp1146:
	.loc	12 200 9 is_stmt 0
	je	LBB41_171
Ltmp1147:
	testq	%rbx, %rbx
	je	LBB41_171
Ltmp1148:
	.loc	6 205 12 is_stmt 1
	cmpq	%r12, %r15
	.loc	6 205 9 is_stmt 0
	je	LBB41_173
Ltmp1149:
	.loc	6 124 5 is_stmt 1
	movl	$1, %edx
	movq	%rbx, %rdi
	movq	%r15, %rsi
	movq	%r12, %rcx
	callq	___rust_realloc
Ltmp1150:
	.loc	12 0 0 is_stmt 0
	movq	%rax, %rbx
Ltmp1151:
	.loc	8 611 13 is_stmt 1
	testq	%rax, %rax
	jne	LBB41_172
	jmp	LBB41_406
Ltmp1152:
LBB41_171:
	.loc	6 80 5
	movl	$1, %esi
	movq	%r12, %rdi
	callq	___rust_alloc
Ltmp1153:
	.loc	12 0 0 is_stmt 0
	movq	%rax, %rbx
Ltmp1154:
	.loc	8 611 13 is_stmt 1
	testq	%rax, %rax
	je	LBB41_406
Ltmp1155:
LBB41_172:
	.loc	33 0 0 is_stmt 0
	movq	%r12, %r15
Ltmp1156:
LBB41_173:
	movq	-64(%rbp), %r12
Ltmp1157:
LBB41_174:
	.loc	34 2058 5 is_stmt 1
	movq	%rbx, %rdi
	movq	%r12, %rsi
	movq	%r14, %rdx
	callq	_memcpy
Ltmp1158:
	.loc	3 178 1
	movq	-600(%rbp), %rdi
Ltmp1159:
	testq	%rdi, %rdi
	je	LBB41_177
Ltmp1160:
	.loc	3 178 1 is_stmt 0
	movq	-592(%rbp), %rsi
Ltmp1161:
	.loc	12 200 40 is_stmt 1
	testq	%rsi, %rsi
	.loc	12 200 9 is_stmt 0
	je	LBB41_177
Ltmp1162:
	.loc	6 102 5 is_stmt 1
	movl	$1, %edx
	callq	___rust_dealloc
Ltmp1163:
LBB41_177:
	.loc	25 90 40
	movq	%rbx, -600(%rbp)
	movq	%r15, -592(%rbp)
	movq	%r14, -584(%rbp)
	jmp	LBB41_32
LBB41_178:
Ltmp1164:
	.loc	25 0 40 is_stmt 0
	movl	$1, %ebx
	xorl	%r15d, %r15d
Ltmp1165:
	.loc	12 378 9 is_stmt 1
	cmpq	%r14, %r15
Ltmp1166:
	.loc	12 280 9
	jae	LBB41_186
Ltmp1167:
LBB41_179:
	.loc	12 0 9 is_stmt 0
	movq	%r12, -64(%rbp)
Ltmp1168:
	.loc	12 414 26 is_stmt 1
	leaq	(%r15,%r15), %rax
Ltmp1169:
	.loc	20 1017 9
	cmpq	%r14, %rax
	.loc	20 0 0 is_stmt 0
	movq	%r14, %r12
Ltmp1170:
	cmovaq	%rax, %r12
Ltmp1171:
	.loc	12 200 40 is_stmt 1
	testq	%r15, %r15
Ltmp1172:
	.loc	12 200 9 is_stmt 0
	je	LBB41_183
Ltmp1173:
	testq	%rbx, %rbx
	je	LBB41_183
Ltmp1174:
	.loc	6 205 12 is_stmt 1
	cmpq	%r12, %r15
	.loc	6 205 9 is_stmt 0
	je	LBB41_185
Ltmp1175:
	.loc	6 124 5 is_stmt 1
	movl	$1, %edx
	movq	%rbx, %rdi
	movq	%r15, %rsi
	movq	%r12, %rcx
	callq	___rust_realloc
Ltmp1176:
	.loc	12 0 0 is_stmt 0
	movq	%rax, %rbx
Ltmp1177:
	.loc	8 611 13 is_stmt 1
	testq	%rax, %rax
	jne	LBB41_184
	jmp	LBB41_406
Ltmp1178:
LBB41_183:
	.loc	6 80 5
	movl	$1, %esi
	movq	%r12, %rdi
	callq	___rust_alloc
Ltmp1179:
	.loc	12 0 0 is_stmt 0
	movq	%rax, %rbx
Ltmp1180:
	.loc	8 611 13 is_stmt 1
	testq	%rax, %rax
	je	LBB41_406
Ltmp1181:
LBB41_184:
	.loc	33 0 0 is_stmt 0
	movq	%r12, %r15
Ltmp1182:
LBB41_185:
	movq	-64(%rbp), %r12
Ltmp1183:
LBB41_186:
	.loc	34 2058 5 is_stmt 1
	movq	%rbx, %rdi
	movq	%r12, %rsi
	movq	%r14, %rdx
	callq	_memcpy
Ltmp1184:
	.loc	3 178 1
	movq	-232(%rbp), %rdi
Ltmp1185:
	testq	%rdi, %rdi
	je	LBB41_189
Ltmp1186:
	.loc	3 178 1 is_stmt 0
	movq	-224(%rbp), %rsi
Ltmp1187:
	.loc	12 200 40 is_stmt 1
	testq	%rsi, %rsi
	.loc	12 200 9 is_stmt 0
	je	LBB41_189
Ltmp1188:
	.loc	6 102 5 is_stmt 1
	movl	$1, %edx
	callq	___rust_dealloc
Ltmp1189:
LBB41_189:
	.loc	25 95 40
	movq	%rbx, -232(%rbp)
	movq	%r15, -224(%rbp)
	movq	%r14, -216(%rbp)
	jmp	LBB41_32
Ltmp1190:
LBB41_190:
	.loc	11 495 23
	movq	-104(%rbp), %rax
	movq	-120(%rbp), %rcx
	movq	-112(%rbp), %rdx
Ltmp1191:
	.loc	8 1548 9
	movq	%rcx, -208(%rbp)
	movq	%rdx, -200(%rbp)
	movq	%rax, -192(%rbp)
	movq	-760(%rbp), %rsi
	movq	-752(%rbp), %rdi
	movq	%rsi, -184(%rbp)
	movq	%rdi, -176(%rbp)
Ltmp1192:
	.loc	30 36 34
	movq	%rax, -104(%rbp)
	movq	%rdx, -112(%rbp)
	movq	%rcx, -120(%rbp)
Ltmp678:
	leaq	-784(%rbp), %rdi
Ltmp1193:
	.loc	31 19 17
	callq	__ZN7failure9backtrace9Backtrace3new17h53bd39fe603c24d3E
Ltmp679:
Ltmp1194:
	.loc	31 21 30
	movq	-744(%rbp), %rax
	movq	%rax, -536(%rbp)
	movq	-752(%rbp), %rax
	movq	%rax, -544(%rbp)
	movq	-760(%rbp), %rax
	movq	%rax, -552(%rbp)
	movq	-768(%rbp), %rax
	movq	%rax, -560(%rbp)
	movq	-784(%rbp), %rax
	movq	-776(%rbp), %rcx
	movq	%rcx, -568(%rbp)
	movq	%rax, -576(%rbp)
	.loc	31 21 13 is_stmt 0
	movq	-120(%rbp), %rax
	movq	-112(%rbp), %rcx
	movq	%rax, -528(%rbp)
	movq	%rcx, -520(%rbp)
	movq	-104(%rbp), %rax
	movq	%rax, -512(%rbp)
	leaq	-784(%rbp), %rdi
	leaq	-576(%rbp), %rsi
Ltmp1195:
	.loc	31 23 37 is_stmt 1
	movl	$9, %ecx
	rep;movsq (%rsi), %es:(%rdi)
Ltmp1196:
	.loc	6 80 5
	movl	$72, %edi
	movl	$8, %esi
	callq	___rust_alloc
Ltmp1197:
	.loc	6 269 9
	testq	%rax, %rax
	je	LBB41_409
Ltmp1198:
	.loc	6 0 9 is_stmt 0
	leaq	-784(%rbp), %rsi
	.loc	32 174 13 is_stmt 1
	movl	$9, %ecx
	movq	%rax, %rdi
	rep;movsq (%rsi), %es:(%rdi)
	leaq	l___unnamed_6(%rip), %rcx
Ltmp1199:
LBB41_193:
	.loc	25 0 0 is_stmt 0
	movq	%rax, 8(%r13)
	movq	%rcx, 16(%r13)
	movq	$1, (%r13)
Ltmp1200:
	.loc	3 178 1 is_stmt 1
	movq	-368(%rbp), %rdi
Ltmp1201:
	.loc	12 532 16
	testq	%rdi, %rdi
Ltmp1202:
	.loc	12 200 9
	je	LBB41_403
Ltmp1203:
	.loc	3 0 0 is_stmt 0
	movq	-360(%rbp), %rsi
Ltmp1204:
	testq	%rsi, %rsi
	je	LBB41_403
Ltmp1205:
LBB41_402:
	movl	$1, %edx
	callq	___rust_dealloc
Ltmp1206:
LBB41_403:
	.loc	25 119 6 is_stmt 1
	movq	%r13, %rax
	addq	$1032, %rsp
	popq	%rbx
	popq	%r12
	popq	%r13
	popq	%r14
	popq	%r15
	popq	%rbp
	retq
LBB41_195:
Ltmp1207:
	.loc	25 106 24
	movq	-912(%rbp), %r15
Ltmp1208:
	.loc	2 567 13
	testq	%r15, %r15
	je	LBB41_201
Ltmp1209:
	.loc	25 106 24
	movdqu	-904(%rbp), %xmm0
Ltmp1210:
	.loc	25 106 24 is_stmt 0
	movq	%r15, -936(%rbp)
	movdqa	%xmm0, -880(%rbp)
	movdqu	%xmm0, -928(%rbp)
Ltmp1211:
	.loc	25 107 13 is_stmt 1
	movq	-792(%rbp), %rax
	movq	%rax, -288(%rbp)
	movq	-808(%rbp), %rax
	movq	-800(%rbp), %rcx
	movq	%rcx, -296(%rbp)
	movq	%rax, -304(%rbp)
	.loc	25 108 26
	movq	-856(%rbp), %r14
Ltmp1212:
	.loc	2 567 13
	testq	%r14, %r14
	movq	-888(%rbp), %r13
	je	LBB41_242
Ltmp1213:
	.loc	25 108 26
	movdqu	-848(%rbp), %xmm0
Ltmp1214:
	.loc	25 108 26 is_stmt 0
	movq	%r14, -960(%rbp)
	movdqa	%xmm0, -64(%rbp)
	movdqu	%xmm0, -952(%rbp)
Ltmp1215:
	.loc	25 109 28 is_stmt 1
	movq	-600(%rbp), %r12
Ltmp1216:
	.loc	2 567 13
	testq	%r12, %r12
	je	LBB41_282
Ltmp1217:
	.loc	25 109 28
	movdqu	-592(%rbp), %xmm0
Ltmp1218:
	.loc	25 109 28 is_stmt 0
	movq	%r12, -832(%rbp)
	movdqa	%xmm0, -976(%rbp)
	movdqu	%xmm0, -824(%rbp)
Ltmp1219:
	.loc	25 111 35 is_stmt 1
	movq	-392(%rbp), %rbx
Ltmp1220:
	.loc	2 567 13
	testq	%rbx, %rbx
	je	LBB41_321
Ltmp1221:
	.loc	25 111 35
	movdqu	-384(%rbp), %xmm0
Ltmp1222:
	.loc	25 111 35 is_stmt 0
	movq	%rbx, -208(%rbp)
	movdqu	%xmm0, -200(%rbp)
Ltmp1223:
	.loc	25 113 25 is_stmt 1
	movq	-280(%rbp), %rax
Ltmp1224:
	.loc	2 567 13
	testq	%rax, %rax
	je	LBB41_359
Ltmp1225:
	.loc	25 113 25
	movupd	-272(%rbp), %xmm0
Ltmp1226:
	.loc	25 105 12
	movq	-936(%rbp), %rcx
	movq	-928(%rbp), %rdx
	movq	%rcx, -784(%rbp)
	movq	%rdx, -776(%rbp)
	movq	-920(%rbp), %rcx
	movq	%rcx, -768(%rbp)
	movq	-304(%rbp), %rcx
	movq	-296(%rbp), %rdx
	movq	%rcx, -760(%rbp)
	movq	%rdx, -752(%rbp)
	movq	-288(%rbp), %rcx
	movq	%rcx, -744(%rbp)
	movq	-960(%rbp), %rcx
	movq	-952(%rbp), %rdx
	movq	%rcx, -736(%rbp)
	movq	%rdx, -728(%rbp)
	movq	-944(%rbp), %rcx
	movq	%rcx, -720(%rbp)
	movq	-816(%rbp), %rcx
	movq	%rcx, -696(%rbp)
	movq	-832(%rbp), %rcx
	movq	-824(%rbp), %rdx
	movq	%rdx, -704(%rbp)
	movq	%rcx, -712(%rbp)
	movq	-208(%rbp), %rcx
	movq	-200(%rbp), %rdx
	movq	%rcx, -688(%rbp)
	movq	%rdx, -680(%rbp)
	movq	-192(%rbp), %rcx
	movq	%rcx, -672(%rbp)
	.loc	25 105 9 is_stmt 0
	leaq	8(%r13), %rdi
	leaq	-784(%rbp), %rsi
	movl	$15, %ecx
	rep;movsq (%rsi), %es:(%rdi)
	movq	%rax, 128(%r13)
	movupd	%xmm0, 136(%r13)
	movq	-216(%rbp), %rax
Ltmp1227:
	movq	%rax, 168(%r13)
	movq	-232(%rbp), %rax
	movq	-224(%rbp), %rcx
	movq	%rcx, 160(%r13)
	movq	%rax, 152(%r13)
	movq	-144(%rbp), %rax
	movq	-136(%rbp), %rcx
	movq	%rax, 176(%r13)
	movq	%rcx, 184(%r13)
	movq	-128(%rbp), %rax
	movq	%rax, 192(%r13)
	movq	-168(%rbp), %rax
	movq	-160(%rbp), %rcx
	movq	%rax, 200(%r13)
	movq	%rcx, 208(%r13)
	movq	-152(%rbp), %rax
	movq	%rax, 216(%r13)
	movq	$0, (%r13)
Ltmp1228:
	.loc	25 0 0
	movq	-256(%rbp), %rdi
Ltmp1229:
	testq	%rdi, %rdi
	jne	LBB41_398
	jmp	LBB41_400
Ltmp1230:
LBB41_201:
Ltmp710:
	leaq	-120(%rbp), %rdi
Ltmp1231:
	.loc	31 19 17 is_stmt 1
	callq	__ZN7failure9backtrace9Backtrace3new17h53bd39fe603c24d3E
Ltmp711:
	movq	-888(%rbp), %r13
Ltmp1232:
	.loc	31 23 37
	movq	-80(%rbp), %rax
	movq	%rax, -536(%rbp)
	movq	-88(%rbp), %rax
	movq	%rax, -544(%rbp)
	movq	-96(%rbp), %rax
	movq	%rax, -552(%rbp)
	movq	-104(%rbp), %rax
	movq	%rax, -560(%rbp)
	movq	-120(%rbp), %rax
	movq	-112(%rbp), %rcx
	movq	%rcx, -568(%rbp)
	movq	%rax, -576(%rbp)
Ltmp1233:
	.loc	6 80 5
	movl	$64, %edi
	movl	$8, %esi
	callq	___rust_alloc
Ltmp1234:
	.loc	6 269 9
	testq	%rax, %rax
	je	LBB41_404
Ltmp1235:
	.loc	32 174 13
	movq	-536(%rbp), %rcx
	movq	%rcx, 40(%rax)
	movq	-544(%rbp), %rcx
	movq	%rcx, 32(%rax)
	movq	-552(%rbp), %rcx
	movq	%rcx, 24(%rax)
	movq	-560(%rbp), %rcx
	movq	%rcx, 16(%rax)
	movq	-576(%rbp), %rcx
	movq	-568(%rbp), %rdx
	movq	%rdx, 8(%rax)
	movq	%rcx, (%rax)
	leaq	l___unnamed_30(%rip), %rcx
Ltmp1236:
	movq	%rcx, %xmm0
	shufpd	$2, LCPI41_7(%rip), %xmm0
	movupd	%xmm0, 48(%rax)
Ltmp1237:
	.loc	8 1558 9
	movq	%rax, 8(%r13)
	leaq	l___unnamed_3(%rip), %rax
Ltmp1238:
	movq	%rax, 16(%r13)
	movq	$1, (%r13)
Ltmp1239:
	.loc	10 850 19
	movq	-168(%rbp), %rbx
Ltmp1240:
	.loc	10 2384 81
	movq	-152(%rbp), %rax
Ltmp1241:
	.loc	3 178 1
	testq	%rax, %rax
	je	LBB41_210
Ltmp1242:
	leaq	(%rax,%rax,2), %rax
Ltmp1243:
	leaq	(%rbx,%rax,8), %r14
Ltmp1244:
	.loc	3 178 1 is_stmt 0
	movq	(%rbx), %rdi
Ltmp1245:
	.loc	12 532 16 is_stmt 1
	testq	%rdi, %rdi
Ltmp1246:
	.loc	12 200 9
	jne	LBB41_207
Ltmp1247:
	.p2align	4, 0x90
LBB41_205:
	.loc	3 178 1
	addq	$24, %rbx
Ltmp1248:
	cmpq	%r14, %rbx
	je	LBB41_209
Ltmp1249:
LBB41_206:
	.loc	3 178 1 is_stmt 0
	movq	(%rbx), %rdi
Ltmp1250:
	.loc	12 532 16 is_stmt 1
	testq	%rdi, %rdi
Ltmp1251:
	.loc	12 200 9
	je	LBB41_205
Ltmp1252:
LBB41_207:
	.loc	3 0 0 is_stmt 0
	movq	8(%rbx), %rsi
Ltmp1253:
	.loc	12 200 9
	testq	%rsi, %rsi
	je	LBB41_205
Ltmp1254:
	.loc	6 102 5 is_stmt 1
	movl	$1, %edx
	callq	___rust_dealloc
Ltmp1255:
	.loc	3 178 1
	addq	$24, %rbx
Ltmp1256:
	cmpq	%r14, %rbx
	jne	LBB41_206
Ltmp1257:
LBB41_209:
	.loc	3 178 1 is_stmt 0
	movq	-168(%rbp), %rbx
Ltmp1258:
LBB41_210:
	movq	-160(%rbp), %rax
Ltmp1259:
	.loc	12 200 40 is_stmt 1
	testq	%rax, %rax
	.loc	12 200 9 is_stmt 0
	je	LBB41_214
Ltmp1260:
	.loc	12 532 16 is_stmt 1
	testq	%rbx, %rbx
Ltmp1261:
	je	LBB41_214
Ltmp1262:
	.loc	12 0 0 is_stmt 0
	shlq	$3, %rax
	leaq	(%rax,%rax,2), %rsi
Ltmp1263:
	.loc	12 532 16
	testq	%rsi, %rsi
	je	LBB41_214
Ltmp1264:
	.loc	6 102 5 is_stmt 1
	movl	$8, %edx
	movq	%rbx, %rdi
	callq	___rust_dealloc
Ltmp1265:
LBB41_214:
	.loc	10 850 19
	movq	-144(%rbp), %rbx
Ltmp1266:
	.loc	10 2384 81
	movq	-128(%rbp), %rax
Ltmp1267:
	.loc	3 178 1
	testq	%rax, %rax
	je	LBB41_221
Ltmp1268:
	leaq	(%rax,%rax,2), %rax
Ltmp1269:
	leaq	(%rbx,%rax,8), %r14
Ltmp1270:
	.loc	3 178 1 is_stmt 0
	movq	(%rbx), %rdi
Ltmp1271:
	.loc	12 532 16 is_stmt 1
	testq	%rdi, %rdi
Ltmp1272:
	.loc	12 200 9
	jne	LBB41_218
Ltmp1273:
	.p2align	4, 0x90
LBB41_216:
	.loc	3 178 1
	addq	$24, %rbx
Ltmp1274:
	cmpq	%r14, %rbx
	je	LBB41_220
Ltmp1275:
LBB41_217:
	.loc	3 178 1 is_stmt 0
	movq	(%rbx), %rdi
Ltmp1276:
	.loc	12 532 16 is_stmt 1
	testq	%rdi, %rdi
Ltmp1277:
	.loc	12 200 9
	je	LBB41_216
Ltmp1278:
LBB41_218:
	.loc	3 0 0 is_stmt 0
	movq	8(%rbx), %rsi
Ltmp1279:
	.loc	12 200 9
	testq	%rsi, %rsi
	je	LBB41_216
Ltmp1280:
	.loc	6 102 5 is_stmt 1
	movl	$1, %edx
	callq	___rust_dealloc
Ltmp1281:
	.loc	3 178 1
	addq	$24, %rbx
Ltmp1282:
	cmpq	%r14, %rbx
	jne	LBB41_217
Ltmp1283:
LBB41_220:
	.loc	3 178 1 is_stmt 0
	movq	-144(%rbp), %rbx
Ltmp1284:
LBB41_221:
	movq	-136(%rbp), %rax
Ltmp1285:
	.loc	12 200 40 is_stmt 1
	testq	%rax, %rax
	.loc	12 200 9 is_stmt 0
	je	LBB41_225
Ltmp1286:
	.loc	12 532 16 is_stmt 1
	testq	%rbx, %rbx
Ltmp1287:
	je	LBB41_225
Ltmp1288:
	.loc	12 0 0 is_stmt 0
	shlq	$3, %rax
	leaq	(%rax,%rax,2), %rsi
Ltmp1289:
	.loc	12 532 16
	testq	%rsi, %rsi
	je	LBB41_225
Ltmp1290:
	.loc	6 102 5 is_stmt 1
	movl	$8, %edx
	movq	%rbx, %rdi
	callq	___rust_dealloc
Ltmp1291:
LBB41_225:
	.loc	3 178 1
	movq	-232(%rbp), %rdi
Ltmp1292:
	testq	%rdi, %rdi
	je	LBB41_228
Ltmp1293:
	.loc	3 178 1 is_stmt 0
	movq	-224(%rbp), %rsi
Ltmp1294:
	.loc	12 200 40 is_stmt 1
	testq	%rsi, %rsi
	.loc	12 200 9 is_stmt 0
	je	LBB41_228
Ltmp1295:
	.loc	6 102 5 is_stmt 1
	movl	$1, %edx
	callq	___rust_dealloc
Ltmp1296:
LBB41_228:
	.loc	3 178 1
	movq	-280(%rbp), %rdi
Ltmp1297:
	testq	%rdi, %rdi
	je	LBB41_231
Ltmp1298:
	.loc	3 178 1 is_stmt 0
	movq	-272(%rbp), %rsi
Ltmp1299:
	.loc	12 200 40 is_stmt 1
	testq	%rsi, %rsi
	.loc	12 200 9 is_stmt 0
	je	LBB41_231
Ltmp1300:
	.loc	6 102 5 is_stmt 1
	movl	$1, %edx
	callq	___rust_dealloc
Ltmp1301:
LBB41_231:
	.loc	3 178 1
	movq	-392(%rbp), %rdi
Ltmp1302:
	testq	%rdi, %rdi
	je	LBB41_234
Ltmp1303:
	.loc	3 178 1 is_stmt 0
	movq	-384(%rbp), %rsi
Ltmp1304:
	.loc	12 200 40 is_stmt 1
	testq	%rsi, %rsi
	.loc	12 200 9 is_stmt 0
	je	LBB41_234
Ltmp1305:
	.loc	6 102 5 is_stmt 1
	movl	$1, %edx
	callq	___rust_dealloc
Ltmp1306:
LBB41_234:
	.loc	3 178 1
	movq	-600(%rbp), %rdi
Ltmp1307:
	testq	%rdi, %rdi
	je	LBB41_237
Ltmp1308:
	.loc	3 178 1 is_stmt 0
	movq	-592(%rbp), %rsi
Ltmp1309:
	.loc	12 200 40 is_stmt 1
	testq	%rsi, %rsi
	.loc	12 200 9 is_stmt 0
	je	LBB41_237
Ltmp1310:
	.loc	6 102 5 is_stmt 1
	movl	$1, %edx
	callq	___rust_dealloc
Ltmp1311:
LBB41_237:
	.loc	3 178 1
	movq	-856(%rbp), %rdi
Ltmp1312:
	testq	%rdi, %rdi
	je	LBB41_240
Ltmp1313:
	.loc	3 178 1 is_stmt 0
	movq	-848(%rbp), %rsi
Ltmp1314:
	.loc	12 200 40 is_stmt 1
	testq	%rsi, %rsi
	.loc	12 200 9 is_stmt 0
	je	LBB41_240
Ltmp1315:
	.loc	6 102 5 is_stmt 1
	movl	$1, %edx
	callq	___rust_dealloc
Ltmp1316:
LBB41_240:
	.loc	3 178 1
	movq	-808(%rbp), %rdi
Ltmp1317:
	testq	%rdi, %rdi
	je	LBB41_397
Ltmp1318:
	.loc	3 178 1 is_stmt 0
	movq	-800(%rbp), %rsi
Ltmp1319:
	.loc	25 0 0
	testq	%rsi, %rsi
	jne	LBB41_396
	jmp	LBB41_397
Ltmp1320:
LBB41_242:
Ltmp707:
	leaq	-120(%rbp), %rdi
Ltmp1321:
	.loc	31 19 17 is_stmt 1
	callq	__ZN7failure9backtrace9Backtrace3new17h53bd39fe603c24d3E
Ltmp708:
Ltmp1322:
	.loc	31 23 37
	movq	-80(%rbp), %rax
	movq	%rax, -536(%rbp)
	movq	-88(%rbp), %rax
	movq	%rax, -544(%rbp)
	movq	-96(%rbp), %rax
	movq	%rax, -552(%rbp)
	movq	-104(%rbp), %rax
	movq	%rax, -560(%rbp)
	movq	-120(%rbp), %rax
	movq	-112(%rbp), %rcx
	movq	%rcx, -568(%rbp)
	movq	%rax, -576(%rbp)
Ltmp1323:
	.loc	6 80 5
	movl	$64, %edi
	movl	$8, %esi
	callq	___rust_alloc
Ltmp1324:
	.loc	6 269 9
	testq	%rax, %rax
	je	LBB41_404
Ltmp1325:
	.loc	32 174 13
	movq	-536(%rbp), %rcx
	movq	%rcx, 40(%rax)
	movq	-544(%rbp), %rcx
	movq	%rcx, 32(%rax)
	movq	-552(%rbp), %rcx
	movq	%rcx, 24(%rax)
	movq	-560(%rbp), %rcx
	movq	%rcx, 16(%rax)
	movq	-576(%rbp), %rcx
	movq	-568(%rbp), %rdx
	movq	%rdx, 8(%rax)
	leaq	l___unnamed_31(%rip), %rdx
Ltmp1326:
	movq	%rdx, %xmm0
	shufpd	$2, LCPI41_6(%rip), %xmm0
	movq	%rcx, (%rax)
	movupd	%xmm0, 48(%rax)
Ltmp1327:
	.loc	8 1558 9
	movq	%rax, 8(%r13)
	leaq	l___unnamed_3(%rip), %rax
Ltmp1328:
	movq	%rax, 16(%r13)
	movq	$1, (%r13)
Ltmp1329:
	.loc	3 178 1
	movq	-304(%rbp), %rdi
Ltmp1330:
	testq	%rdi, %rdi
	je	LBB41_247
Ltmp1331:
	.loc	3 178 1 is_stmt 0
	movq	-296(%rbp), %rsi
Ltmp1332:
	.loc	12 200 40 is_stmt 1
	testq	%rsi, %rsi
	.loc	12 200 9 is_stmt 0
	je	LBB41_247
Ltmp1333:
	.loc	6 102 5 is_stmt 1
	movl	$1, %edx
	callq	___rust_dealloc
Ltmp1334:
LBB41_247:
	.loc	6 0 5 is_stmt 0
	movdqa	-880(%rbp), %xmm0
Ltmp1335:
	.loc	12 200 40 is_stmt 1
	movq	%xmm0, %rsi
	testq	%rsi, %rsi
	.loc	12 200 9 is_stmt 0
	je	LBB41_249
Ltmp1336:
	.loc	6 102 5 is_stmt 1
	movl	$1, %edx
	movq	%r15, %rdi
	callq	___rust_dealloc
Ltmp1337:
LBB41_249:
	.loc	10 850 19
	movq	-168(%rbp), %rbx
Ltmp1338:
	.loc	10 2384 81
	movq	-152(%rbp), %rax
Ltmp1339:
	.loc	3 178 1
	testq	%rax, %rax
	je	LBB41_256
Ltmp1340:
	leaq	(%rax,%rax,2), %rax
Ltmp1341:
	leaq	(%rbx,%rax,8), %r14
Ltmp1342:
	.loc	3 178 1 is_stmt 0
	movq	(%rbx), %rdi
Ltmp1343:
	.loc	12 532 16 is_stmt 1
	testq	%rdi, %rdi
Ltmp1344:
	.loc	12 200 9
	jne	LBB41_253
Ltmp1345:
	.p2align	4, 0x90
LBB41_251:
	.loc	3 178 1
	addq	$24, %rbx
Ltmp1346:
	cmpq	%r14, %rbx
	je	LBB41_255
Ltmp1347:
LBB41_252:
	.loc	3 178 1 is_stmt 0
	movq	(%rbx), %rdi
Ltmp1348:
	.loc	12 532 16 is_stmt 1
	testq	%rdi, %rdi
Ltmp1349:
	.loc	12 200 9
	je	LBB41_251
Ltmp1350:
LBB41_253:
	.loc	3 0 0 is_stmt 0
	movq	8(%rbx), %rsi
Ltmp1351:
	.loc	12 200 9
	testq	%rsi, %rsi
	je	LBB41_251
Ltmp1352:
	.loc	6 102 5 is_stmt 1
	movl	$1, %edx
	callq	___rust_dealloc
Ltmp1353:
	.loc	3 178 1
	addq	$24, %rbx
Ltmp1354:
	cmpq	%r14, %rbx
	jne	LBB41_252
Ltmp1355:
LBB41_255:
	.loc	3 178 1 is_stmt 0
	movq	-168(%rbp), %rbx
Ltmp1356:
LBB41_256:
	movq	-160(%rbp), %rax
Ltmp1357:
	.loc	12 200 40 is_stmt 1
	testq	%rax, %rax
	.loc	12 200 9 is_stmt 0
	je	LBB41_260
Ltmp1358:
	.loc	12 532 16 is_stmt 1
	testq	%rbx, %rbx
Ltmp1359:
	je	LBB41_260
Ltmp1360:
	.loc	12 0 0 is_stmt 0
	shlq	$3, %rax
	leaq	(%rax,%rax,2), %rsi
Ltmp1361:
	.loc	12 532 16
	testq	%rsi, %rsi
	je	LBB41_260
Ltmp1362:
	.loc	6 102 5 is_stmt 1
	movl	$8, %edx
	movq	%rbx, %rdi
	callq	___rust_dealloc
Ltmp1363:
LBB41_260:
	.loc	10 850 19
	movq	-144(%rbp), %rbx
Ltmp1364:
	.loc	10 2384 81
	movq	-128(%rbp), %rax
Ltmp1365:
	.loc	3 178 1
	testq	%rax, %rax
	je	LBB41_267
Ltmp1366:
	leaq	(%rax,%rax,2), %rax
Ltmp1367:
	leaq	(%rbx,%rax,8), %r14
Ltmp1368:
	.loc	3 178 1 is_stmt 0
	movq	(%rbx), %rdi
Ltmp1369:
	.loc	12 532 16 is_stmt 1
	testq	%rdi, %rdi
Ltmp1370:
	.loc	12 200 9
	jne	LBB41_264
Ltmp1371:
	.p2align	4, 0x90
LBB41_262:
	.loc	3 178 1
	addq	$24, %rbx
Ltmp1372:
	cmpq	%r14, %rbx
	je	LBB41_266
Ltmp1373:
LBB41_263:
	.loc	3 178 1 is_stmt 0
	movq	(%rbx), %rdi
Ltmp1374:
	.loc	12 532 16 is_stmt 1
	testq	%rdi, %rdi
Ltmp1375:
	.loc	12 200 9
	je	LBB41_262
Ltmp1376:
LBB41_264:
	.loc	3 0 0 is_stmt 0
	movq	8(%rbx), %rsi
Ltmp1377:
	.loc	12 200 9
	testq	%rsi, %rsi
	je	LBB41_262
Ltmp1378:
	.loc	6 102 5 is_stmt 1
	movl	$1, %edx
	callq	___rust_dealloc
Ltmp1379:
	.loc	3 178 1
	addq	$24, %rbx
Ltmp1380:
	cmpq	%r14, %rbx
	jne	LBB41_263
Ltmp1381:
LBB41_266:
	.loc	3 178 1 is_stmt 0
	movq	-144(%rbp), %rbx
Ltmp1382:
LBB41_267:
	movq	-136(%rbp), %rax
Ltmp1383:
	.loc	12 200 40 is_stmt 1
	testq	%rax, %rax
	.loc	12 200 9 is_stmt 0
	je	LBB41_271
Ltmp1384:
	.loc	12 532 16 is_stmt 1
	testq	%rbx, %rbx
Ltmp1385:
	je	LBB41_271
Ltmp1386:
	.loc	12 0 0 is_stmt 0
	shlq	$3, %rax
	leaq	(%rax,%rax,2), %rsi
Ltmp1387:
	.loc	12 532 16
	testq	%rsi, %rsi
	je	LBB41_271
Ltmp1388:
	.loc	6 102 5 is_stmt 1
	movl	$8, %edx
	movq	%rbx, %rdi
	callq	___rust_dealloc
Ltmp1389:
LBB41_271:
	.loc	3 178 1
	movq	-232(%rbp), %rdi
Ltmp1390:
	testq	%rdi, %rdi
	je	LBB41_274
Ltmp1391:
	.loc	3 178 1 is_stmt 0
	movq	-224(%rbp), %rsi
Ltmp1392:
	.loc	12 200 40 is_stmt 1
	testq	%rsi, %rsi
	.loc	12 200 9 is_stmt 0
	je	LBB41_274
Ltmp1393:
	.loc	6 102 5 is_stmt 1
	movl	$1, %edx
	callq	___rust_dealloc
Ltmp1394:
LBB41_274:
	.loc	3 178 1
	movq	-280(%rbp), %rdi
Ltmp1395:
	testq	%rdi, %rdi
	je	LBB41_277
Ltmp1396:
	.loc	3 178 1 is_stmt 0
	movq	-272(%rbp), %rsi
Ltmp1397:
	.loc	12 200 40 is_stmt 1
	testq	%rsi, %rsi
	.loc	12 200 9 is_stmt 0
	je	LBB41_277
Ltmp1398:
	.loc	6 102 5 is_stmt 1
	movl	$1, %edx
	callq	___rust_dealloc
Ltmp1399:
LBB41_277:
	.loc	3 178 1
	movq	-392(%rbp), %rdi
Ltmp1400:
	testq	%rdi, %rdi
	je	LBB41_280
Ltmp1401:
	.loc	3 178 1 is_stmt 0
	movq	-384(%rbp), %rsi
Ltmp1402:
	.loc	12 200 40 is_stmt 1
	testq	%rsi, %rsi
	.loc	12 200 9 is_stmt 0
	je	LBB41_280
Ltmp1403:
	.loc	6 102 5 is_stmt 1
	movl	$1, %edx
	callq	___rust_dealloc
Ltmp1404:
LBB41_280:
	.loc	3 178 1
	movq	-600(%rbp), %rdi
Ltmp1405:
	testq	%rdi, %rdi
	je	LBB41_397
Ltmp1406:
	.loc	3 178 1 is_stmt 0
	movq	-592(%rbp), %rsi
Ltmp1407:
	.loc	25 0 0
	testq	%rsi, %rsi
	jne	LBB41_396
	jmp	LBB41_397
Ltmp1408:
LBB41_282:
Ltmp704:
	leaq	-120(%rbp), %rdi
Ltmp1409:
	.loc	31 19 17 is_stmt 1
	callq	__ZN7failure9backtrace9Backtrace3new17h53bd39fe603c24d3E
Ltmp705:
Ltmp1410:
	.loc	31 23 37
	movq	-80(%rbp), %rax
	movq	%rax, -536(%rbp)
	movq	-88(%rbp), %rax
	movq	%rax, -544(%rbp)
	movq	-96(%rbp), %rax
	movq	%rax, -552(%rbp)
	movq	-104(%rbp), %rax
	movq	%rax, -560(%rbp)
	movq	-120(%rbp), %rax
	movq	-112(%rbp), %rcx
	movq	%rcx, -568(%rbp)
	movq	%rax, -576(%rbp)
Ltmp1411:
	.loc	6 80 5
	movl	$64, %edi
	movl	$8, %esi
	callq	___rust_alloc
Ltmp1412:
	.loc	6 269 9
	testq	%rax, %rax
	je	LBB41_404
Ltmp1413:
	.loc	32 174 13
	movq	-536(%rbp), %rcx
	movq	%rcx, 40(%rax)
	movq	-544(%rbp), %rcx
	movq	%rcx, 32(%rax)
	movq	-552(%rbp), %rcx
	movq	%rcx, 24(%rax)
	movq	-560(%rbp), %rcx
	movq	%rcx, 16(%rax)
	movq	-576(%rbp), %rcx
	movq	-568(%rbp), %rdx
	movq	%rdx, 8(%rax)
	leaq	l___unnamed_32(%rip), %rdx
Ltmp1414:
	movq	%rdx, %xmm0
	shufpd	$2, LCPI41_5(%rip), %xmm0
	movq	%rcx, (%rax)
	movupd	%xmm0, 48(%rax)
Ltmp1415:
	.loc	8 1558 9
	movq	%rax, 8(%r13)
	leaq	l___unnamed_3(%rip), %rax
Ltmp1416:
	movq	%rax, 16(%r13)
	movq	$1, (%r13)
Ltmp1417:
	.loc	8 0 9 is_stmt 0
	movdqa	-64(%rbp), %xmm0
Ltmp1418:
	.loc	12 200 40 is_stmt 1
	movq	%xmm0, %rsi
	testq	%rsi, %rsi
	.loc	12 200 9 is_stmt 0
	je	LBB41_286
Ltmp1419:
	.loc	6 102 5 is_stmt 1
	movl	$1, %edx
	movq	%r14, %rdi
	callq	___rust_dealloc
Ltmp1420:
LBB41_286:
	.loc	3 178 1
	movq	-304(%rbp), %rdi
Ltmp1421:
	testq	%rdi, %rdi
	je	LBB41_289
Ltmp1422:
	.loc	3 178 1 is_stmt 0
	movq	-296(%rbp), %rsi
Ltmp1423:
	.loc	12 200 40 is_stmt 1
	testq	%rsi, %rsi
	.loc	12 200 9 is_stmt 0
	je	LBB41_289
Ltmp1424:
	.loc	6 102 5 is_stmt 1
	movl	$1, %edx
	callq	___rust_dealloc
Ltmp1425:
LBB41_289:
	.loc	6 0 5 is_stmt 0
	movdqa	-880(%rbp), %xmm0
Ltmp1426:
	.loc	12 200 40 is_stmt 1
	movq	%xmm0, %rsi
	testq	%rsi, %rsi
	.loc	12 200 9 is_stmt 0
	je	LBB41_291
Ltmp1427:
	.loc	6 102 5 is_stmt 1
	movl	$1, %edx
	movq	%r15, %rdi
	callq	___rust_dealloc
Ltmp1428:
LBB41_291:
	.loc	10 850 19
	movq	-168(%rbp), %rbx
Ltmp1429:
	.loc	10 2384 81
	movq	-152(%rbp), %rax
Ltmp1430:
	.loc	3 178 1
	testq	%rax, %rax
	je	LBB41_298
Ltmp1431:
	leaq	(%rax,%rax,2), %rax
Ltmp1432:
	leaq	(%rbx,%rax,8), %r14
Ltmp1433:
	.loc	3 178 1 is_stmt 0
	movq	(%rbx), %rdi
Ltmp1434:
	.loc	12 532 16 is_stmt 1
	testq	%rdi, %rdi
Ltmp1435:
	.loc	12 200 9
	jne	LBB41_295
Ltmp1436:
	.p2align	4, 0x90
LBB41_293:
	.loc	3 178 1
	addq	$24, %rbx
Ltmp1437:
	cmpq	%r14, %rbx
	je	LBB41_297
Ltmp1438:
LBB41_294:
	.loc	3 178 1 is_stmt 0
	movq	(%rbx), %rdi
Ltmp1439:
	.loc	12 532 16 is_stmt 1
	testq	%rdi, %rdi
Ltmp1440:
	.loc	12 200 9
	je	LBB41_293
Ltmp1441:
LBB41_295:
	.loc	3 0 0 is_stmt 0
	movq	8(%rbx), %rsi
Ltmp1442:
	.loc	12 200 9
	testq	%rsi, %rsi
	je	LBB41_293
Ltmp1443:
	.loc	6 102 5 is_stmt 1
	movl	$1, %edx
	callq	___rust_dealloc
Ltmp1444:
	.loc	3 178 1
	addq	$24, %rbx
Ltmp1445:
	cmpq	%r14, %rbx
	jne	LBB41_294
Ltmp1446:
LBB41_297:
	.loc	3 178 1 is_stmt 0
	movq	-168(%rbp), %rbx
Ltmp1447:
LBB41_298:
	movq	-160(%rbp), %rax
Ltmp1448:
	.loc	12 200 40 is_stmt 1
	testq	%rax, %rax
	.loc	12 200 9 is_stmt 0
	je	LBB41_302
Ltmp1449:
	.loc	12 532 16 is_stmt 1
	testq	%rbx, %rbx
Ltmp1450:
	je	LBB41_302
Ltmp1451:
	.loc	12 0 0 is_stmt 0
	shlq	$3, %rax
	leaq	(%rax,%rax,2), %rsi
Ltmp1452:
	.loc	12 532 16
	testq	%rsi, %rsi
	je	LBB41_302
Ltmp1453:
	.loc	6 102 5 is_stmt 1
	movl	$8, %edx
	movq	%rbx, %rdi
	callq	___rust_dealloc
Ltmp1454:
LBB41_302:
	.loc	10 850 19
	movq	-144(%rbp), %rbx
Ltmp1455:
	.loc	10 2384 81
	movq	-128(%rbp), %rax
Ltmp1456:
	.loc	3 178 1
	testq	%rax, %rax
	je	LBB41_309
Ltmp1457:
	leaq	(%rax,%rax,2), %rax
Ltmp1458:
	leaq	(%rbx,%rax,8), %r14
Ltmp1459:
	.loc	3 178 1 is_stmt 0
	movq	(%rbx), %rdi
Ltmp1460:
	.loc	12 532 16 is_stmt 1
	testq	%rdi, %rdi
Ltmp1461:
	.loc	12 200 9
	jne	LBB41_306
Ltmp1462:
	.p2align	4, 0x90
LBB41_304:
	.loc	3 178 1
	addq	$24, %rbx
Ltmp1463:
	cmpq	%r14, %rbx
	je	LBB41_308
Ltmp1464:
LBB41_305:
	.loc	3 178 1 is_stmt 0
	movq	(%rbx), %rdi
Ltmp1465:
	.loc	12 532 16 is_stmt 1
	testq	%rdi, %rdi
Ltmp1466:
	.loc	12 200 9
	je	LBB41_304
Ltmp1467:
LBB41_306:
	.loc	3 0 0 is_stmt 0
	movq	8(%rbx), %rsi
Ltmp1468:
	.loc	12 200 9
	testq	%rsi, %rsi
	je	LBB41_304
Ltmp1469:
	.loc	6 102 5 is_stmt 1
	movl	$1, %edx
	callq	___rust_dealloc
Ltmp1470:
	.loc	3 178 1
	addq	$24, %rbx
Ltmp1471:
	cmpq	%r14, %rbx
	jne	LBB41_305
Ltmp1472:
LBB41_308:
	.loc	3 178 1 is_stmt 0
	movq	-144(%rbp), %rbx
Ltmp1473:
LBB41_309:
	movq	-136(%rbp), %rax
Ltmp1474:
	.loc	12 200 40 is_stmt 1
	testq	%rax, %rax
	.loc	12 200 9 is_stmt 0
	je	LBB41_313
Ltmp1475:
	.loc	12 532 16 is_stmt 1
	testq	%rbx, %rbx
Ltmp1476:
	je	LBB41_313
Ltmp1477:
	.loc	12 0 0 is_stmt 0
	shlq	$3, %rax
	leaq	(%rax,%rax,2), %rsi
Ltmp1478:
	.loc	12 532 16
	testq	%rsi, %rsi
	je	LBB41_313
Ltmp1479:
	.loc	6 102 5 is_stmt 1
	movl	$8, %edx
	movq	%rbx, %rdi
	callq	___rust_dealloc
Ltmp1480:
LBB41_313:
	.loc	3 178 1
	movq	-232(%rbp), %rdi
Ltmp1481:
	testq	%rdi, %rdi
	je	LBB41_316
Ltmp1482:
	.loc	3 178 1 is_stmt 0
	movq	-224(%rbp), %rsi
Ltmp1483:
	.loc	12 200 40 is_stmt 1
	testq	%rsi, %rsi
	.loc	12 200 9 is_stmt 0
	je	LBB41_316
Ltmp1484:
	.loc	6 102 5 is_stmt 1
	movl	$1, %edx
	callq	___rust_dealloc
Ltmp1485:
LBB41_316:
	.loc	3 178 1
	movq	-280(%rbp), %rdi
Ltmp1486:
	testq	%rdi, %rdi
	je	LBB41_319
Ltmp1487:
	.loc	3 178 1 is_stmt 0
	movq	-272(%rbp), %rsi
Ltmp1488:
	.loc	12 200 40 is_stmt 1
	testq	%rsi, %rsi
	.loc	12 200 9 is_stmt 0
	je	LBB41_319
Ltmp1489:
	.loc	6 102 5 is_stmt 1
	movl	$1, %edx
	callq	___rust_dealloc
Ltmp1490:
LBB41_319:
	.loc	3 178 1
	movq	-392(%rbp), %rdi
Ltmp1491:
	testq	%rdi, %rdi
	je	LBB41_397
Ltmp1492:
	.loc	3 178 1 is_stmt 0
	movq	-384(%rbp), %rsi
Ltmp1493:
	.loc	25 0 0
	testq	%rsi, %rsi
	jne	LBB41_396
	jmp	LBB41_397
Ltmp1494:
LBB41_321:
Ltmp701:
	leaq	-120(%rbp), %rdi
Ltmp1495:
	.loc	31 19 17 is_stmt 1
	callq	__ZN7failure9backtrace9Backtrace3new17h53bd39fe603c24d3E
Ltmp702:
Ltmp1496:
	.loc	31 23 37
	movq	-80(%rbp), %rax
	movq	%rax, -536(%rbp)
	movq	-88(%rbp), %rax
	movq	%rax, -544(%rbp)
	movq	-96(%rbp), %rax
	movq	%rax, -552(%rbp)
	movq	-104(%rbp), %rax
	movq	%rax, -560(%rbp)
	movq	-120(%rbp), %rax
	movq	-112(%rbp), %rcx
	movq	%rcx, -568(%rbp)
	movq	%rax, -576(%rbp)
Ltmp1497:
	.loc	6 80 5
	movl	$64, %edi
	movl	$8, %esi
	callq	___rust_alloc
Ltmp1498:
	.loc	6 269 9
	testq	%rax, %rax
	je	LBB41_404
Ltmp1499:
	.loc	32 174 13
	movq	-536(%rbp), %rcx
	movq	%rcx, 40(%rax)
	movq	-544(%rbp), %rcx
	movq	%rcx, 32(%rax)
	movq	-552(%rbp), %rcx
	movq	%rcx, 24(%rax)
	movq	-560(%rbp), %rcx
	movq	%rcx, 16(%rax)
	movq	-576(%rbp), %rcx
	movq	-568(%rbp), %rdx
	movq	%rdx, 8(%rax)
	leaq	l___unnamed_33(%rip), %rdx
Ltmp1500:
	movq	%rdx, %xmm0
	shufpd	$2, LCPI41_4(%rip), %xmm0
	movq	%rcx, (%rax)
	movupd	%xmm0, 48(%rax)
Ltmp1501:
	.loc	8 1558 9
	movq	%rax, 8(%r13)
	leaq	l___unnamed_3(%rip), %rax
Ltmp1502:
	movq	%rax, 16(%r13)
	movq	$1, (%r13)
Ltmp1503:
	.loc	8 0 9 is_stmt 0
	movdqa	-976(%rbp), %xmm0
Ltmp1504:
	.loc	12 200 40 is_stmt 1
	movq	%xmm0, %rsi
	testq	%rsi, %rsi
	.loc	12 200 9 is_stmt 0
	je	LBB41_325
Ltmp1505:
	.loc	6 102 5 is_stmt 1
	movl	$1, %edx
	movq	%r12, %rdi
	callq	___rust_dealloc
Ltmp1506:
LBB41_325:
	.loc	6 0 5 is_stmt 0
	movdqa	-64(%rbp), %xmm0
Ltmp1507:
	.loc	12 200 40 is_stmt 1
	movq	%xmm0, %rsi
	testq	%rsi, %rsi
	.loc	12 200 9 is_stmt 0
	je	LBB41_327
Ltmp1508:
	.loc	6 102 5 is_stmt 1
	movl	$1, %edx
	movq	%r14, %rdi
	callq	___rust_dealloc
Ltmp1509:
LBB41_327:
	.loc	3 178 1
	movq	-304(%rbp), %rdi
Ltmp1510:
	testq	%rdi, %rdi
	je	LBB41_330
Ltmp1511:
	.loc	3 178 1 is_stmt 0
	movq	-296(%rbp), %rsi
Ltmp1512:
	.loc	12 200 40 is_stmt 1
	testq	%rsi, %rsi
	.loc	12 200 9 is_stmt 0
	je	LBB41_330
Ltmp1513:
	.loc	6 102 5 is_stmt 1
	movl	$1, %edx
	callq	___rust_dealloc
Ltmp1514:
LBB41_330:
	.loc	6 0 5 is_stmt 0
	movdqa	-880(%rbp), %xmm0
Ltmp1515:
	.loc	12 200 40 is_stmt 1
	movq	%xmm0, %rsi
	testq	%rsi, %rsi
	.loc	12 200 9 is_stmt 0
	je	LBB41_332
Ltmp1516:
	.loc	6 102 5 is_stmt 1
	movl	$1, %edx
	movq	%r15, %rdi
	callq	___rust_dealloc
Ltmp1517:
LBB41_332:
	.loc	10 850 19
	movq	-168(%rbp), %rbx
Ltmp1518:
	.loc	10 2384 81
	movq	-152(%rbp), %rax
Ltmp1519:
	.loc	3 178 1
	testq	%rax, %rax
	je	LBB41_339
Ltmp1520:
	leaq	(%rax,%rax,2), %rax
Ltmp1521:
	leaq	(%rbx,%rax,8), %r14
Ltmp1522:
	.loc	3 178 1 is_stmt 0
	movq	(%rbx), %rdi
Ltmp1523:
	.loc	12 532 16 is_stmt 1
	testq	%rdi, %rdi
Ltmp1524:
	.loc	12 200 9
	jne	LBB41_336
Ltmp1525:
	.p2align	4, 0x90
LBB41_334:
	.loc	3 178 1
	addq	$24, %rbx
Ltmp1526:
	cmpq	%r14, %rbx
	je	LBB41_338
Ltmp1527:
LBB41_335:
	.loc	3 178 1 is_stmt 0
	movq	(%rbx), %rdi
Ltmp1528:
	.loc	12 532 16 is_stmt 1
	testq	%rdi, %rdi
Ltmp1529:
	.loc	12 200 9
	je	LBB41_334
Ltmp1530:
LBB41_336:
	.loc	3 0 0 is_stmt 0
	movq	8(%rbx), %rsi
Ltmp1531:
	.loc	12 200 9
	testq	%rsi, %rsi
	je	LBB41_334
Ltmp1532:
	.loc	6 102 5 is_stmt 1
	movl	$1, %edx
	callq	___rust_dealloc
Ltmp1533:
	.loc	3 178 1
	addq	$24, %rbx
Ltmp1534:
	cmpq	%r14, %rbx
	jne	LBB41_335
Ltmp1535:
LBB41_338:
	.loc	3 178 1 is_stmt 0
	movq	-168(%rbp), %rbx
Ltmp1536:
LBB41_339:
	movq	-160(%rbp), %rax
Ltmp1537:
	.loc	12 200 40 is_stmt 1
	testq	%rax, %rax
	.loc	12 200 9 is_stmt 0
	je	LBB41_343
Ltmp1538:
	.loc	12 532 16 is_stmt 1
	testq	%rbx, %rbx
Ltmp1539:
	je	LBB41_343
Ltmp1540:
	.loc	12 0 0 is_stmt 0
	shlq	$3, %rax
	leaq	(%rax,%rax,2), %rsi
Ltmp1541:
	.loc	12 532 16
	testq	%rsi, %rsi
	je	LBB41_343
Ltmp1542:
	.loc	6 102 5 is_stmt 1
	movl	$8, %edx
	movq	%rbx, %rdi
	callq	___rust_dealloc
Ltmp1543:
LBB41_343:
	.loc	10 850 19
	movq	-144(%rbp), %rbx
Ltmp1544:
	.loc	10 2384 81
	movq	-128(%rbp), %rax
Ltmp1545:
	.loc	3 178 1
	testq	%rax, %rax
	je	LBB41_350
Ltmp1546:
	leaq	(%rax,%rax,2), %rax
Ltmp1547:
	leaq	(%rbx,%rax,8), %r14
Ltmp1548:
	.loc	3 178 1 is_stmt 0
	movq	(%rbx), %rdi
Ltmp1549:
	.loc	12 532 16 is_stmt 1
	testq	%rdi, %rdi
Ltmp1550:
	.loc	12 200 9
	jne	LBB41_347
Ltmp1551:
	.p2align	4, 0x90
LBB41_345:
	.loc	3 178 1
	addq	$24, %rbx
Ltmp1552:
	cmpq	%r14, %rbx
	je	LBB41_349
Ltmp1553:
LBB41_346:
	.loc	3 178 1 is_stmt 0
	movq	(%rbx), %rdi
Ltmp1554:
	.loc	12 532 16 is_stmt 1
	testq	%rdi, %rdi
Ltmp1555:
	.loc	12 200 9
	je	LBB41_345
Ltmp1556:
LBB41_347:
	.loc	3 0 0 is_stmt 0
	movq	8(%rbx), %rsi
Ltmp1557:
	.loc	12 200 9
	testq	%rsi, %rsi
	je	LBB41_345
Ltmp1558:
	.loc	6 102 5 is_stmt 1
	movl	$1, %edx
	callq	___rust_dealloc
Ltmp1559:
	.loc	3 178 1
	addq	$24, %rbx
Ltmp1560:
	cmpq	%r14, %rbx
	jne	LBB41_346
Ltmp1561:
LBB41_349:
	.loc	3 178 1 is_stmt 0
	movq	-144(%rbp), %rbx
Ltmp1562:
LBB41_350:
	movq	-136(%rbp), %rax
Ltmp1563:
	.loc	12 200 40 is_stmt 1
	testq	%rax, %rax
	.loc	12 200 9 is_stmt 0
	je	LBB41_354
Ltmp1564:
	.loc	12 532 16 is_stmt 1
	testq	%rbx, %rbx
Ltmp1565:
	je	LBB41_354
Ltmp1566:
	.loc	12 0 0 is_stmt 0
	shlq	$3, %rax
	leaq	(%rax,%rax,2), %rsi
Ltmp1567:
	.loc	12 532 16
	testq	%rsi, %rsi
	je	LBB41_354
Ltmp1568:
	.loc	6 102 5 is_stmt 1
	movl	$8, %edx
	movq	%rbx, %rdi
	callq	___rust_dealloc
Ltmp1569:
LBB41_354:
	.loc	3 178 1
	movq	-232(%rbp), %rdi
Ltmp1570:
	testq	%rdi, %rdi
	je	LBB41_357
Ltmp1571:
	.loc	3 178 1 is_stmt 0
	movq	-224(%rbp), %rsi
Ltmp1572:
	.loc	12 200 40 is_stmt 1
	testq	%rsi, %rsi
	.loc	12 200 9 is_stmt 0
	je	LBB41_357
Ltmp1573:
	.loc	6 102 5 is_stmt 1
	movl	$1, %edx
	callq	___rust_dealloc
Ltmp1574:
LBB41_357:
	.loc	3 178 1
	movq	-280(%rbp), %rdi
Ltmp1575:
	testq	%rdi, %rdi
	je	LBB41_397
Ltmp1576:
	.loc	3 178 1 is_stmt 0
	movq	-272(%rbp), %rsi
Ltmp1577:
	.loc	25 0 0
	testq	%rsi, %rsi
	jne	LBB41_396
	jmp	LBB41_397
Ltmp1578:
LBB41_359:
Ltmp698:
	movdqa	%xmm0, -992(%rbp)
	leaq	-120(%rbp), %rdi
Ltmp1579:
	.loc	31 19 17 is_stmt 1
	callq	__ZN7failure9backtrace9Backtrace3new17h53bd39fe603c24d3E
Ltmp1580:
Ltmp699:
	.loc	31 23 37
	movq	-80(%rbp), %rax
	movq	%rax, -536(%rbp)
	movq	-88(%rbp), %rax
	movq	%rax, -544(%rbp)
	movq	-96(%rbp), %rax
	movq	%rax, -552(%rbp)
	movq	-104(%rbp), %rax
	movq	%rax, -560(%rbp)
	movq	-120(%rbp), %rax
	movq	-112(%rbp), %rcx
	movq	%rcx, -568(%rbp)
	movq	%rax, -576(%rbp)
Ltmp1581:
	.loc	6 80 5
	movl	$64, %edi
	movl	$8, %esi
	callq	___rust_alloc
Ltmp1582:
	.loc	6 269 9
	testq	%rax, %rax
	je	LBB41_404
Ltmp1583:
	.loc	32 174 13
	movq	-536(%rbp), %rcx
	movq	%rcx, 40(%rax)
	movq	-544(%rbp), %rcx
	movq	%rcx, 32(%rax)
	movq	-552(%rbp), %rcx
	movq	%rcx, 24(%rax)
	movq	-560(%rbp), %rcx
	movq	%rcx, 16(%rax)
	movq	-576(%rbp), %rcx
	movq	-568(%rbp), %rdx
	movq	%rdx, 8(%rax)
	leaq	l___unnamed_34(%rip), %rdx
Ltmp1584:
	movq	%rdx, %xmm0
	shufpd	$2, LCPI41_3(%rip), %xmm0
	movq	%rcx, (%rax)
	movupd	%xmm0, 48(%rax)
Ltmp1585:
	.loc	8 1558 9
	movq	%rax, 8(%r13)
	leaq	l___unnamed_3(%rip), %rax
Ltmp1586:
	movq	%rax, 16(%r13)
	movq	$1, (%r13)
Ltmp1587:
	.loc	8 0 9 is_stmt 0
	movdqa	-992(%rbp), %xmm0
Ltmp1588:
	.loc	12 200 40 is_stmt 1
	movq	%xmm0, %rsi
	testq	%rsi, %rsi
	.loc	12 200 9 is_stmt 0
	je	LBB41_363
Ltmp1589:
	.loc	6 102 5 is_stmt 1
	movl	$1, %edx
	movq	%rbx, %rdi
	callq	___rust_dealloc
Ltmp1590:
LBB41_363:
	.loc	6 0 5 is_stmt 0
	movdqa	-976(%rbp), %xmm0
Ltmp1591:
	.loc	12 200 40 is_stmt 1
	movq	%xmm0, %rsi
	testq	%rsi, %rsi
	.loc	12 200 9 is_stmt 0
	je	LBB41_365
Ltmp1592:
	.loc	6 102 5 is_stmt 1
	movl	$1, %edx
	movq	%r12, %rdi
	callq	___rust_dealloc
Ltmp1593:
LBB41_365:
	.loc	6 0 5 is_stmt 0
	movdqa	-64(%rbp), %xmm0
Ltmp1594:
	.loc	12 200 40 is_stmt 1
	movq	%xmm0, %rsi
	testq	%rsi, %rsi
	.loc	12 200 9 is_stmt 0
	je	LBB41_367
Ltmp1595:
	.loc	6 102 5 is_stmt 1
	movl	$1, %edx
	movq	%r14, %rdi
	callq	___rust_dealloc
Ltmp1596:
LBB41_367:
	.loc	3 178 1
	movq	-304(%rbp), %rdi
Ltmp1597:
	testq	%rdi, %rdi
	je	LBB41_370
Ltmp1598:
	.loc	3 178 1 is_stmt 0
	movq	-296(%rbp), %rsi
Ltmp1599:
	.loc	12 200 40 is_stmt 1
	testq	%rsi, %rsi
	.loc	12 200 9 is_stmt 0
	je	LBB41_370
Ltmp1600:
	.loc	6 102 5 is_stmt 1
	movl	$1, %edx
	callq	___rust_dealloc
Ltmp1601:
LBB41_370:
	.loc	6 0 5 is_stmt 0
	movdqa	-880(%rbp), %xmm0
Ltmp1602:
	.loc	12 200 40 is_stmt 1
	movq	%xmm0, %rsi
	testq	%rsi, %rsi
	.loc	12 200 9 is_stmt 0
	je	LBB41_372
Ltmp1603:
	.loc	6 102 5 is_stmt 1
	movl	$1, %edx
	movq	%r15, %rdi
	callq	___rust_dealloc
Ltmp1604:
LBB41_372:
	.loc	10 850 19
	movq	-168(%rbp), %rbx
Ltmp1605:
	.loc	10 2384 81
	movq	-152(%rbp), %rax
Ltmp1606:
	.loc	3 178 1
	testq	%rax, %rax
	je	LBB41_379
Ltmp1607:
	leaq	(%rax,%rax,2), %rax
Ltmp1608:
	leaq	(%rbx,%rax,8), %r14
Ltmp1609:
	.loc	3 178 1 is_stmt 0
	movq	(%rbx), %rdi
Ltmp1610:
	.loc	12 532 16 is_stmt 1
	testq	%rdi, %rdi
Ltmp1611:
	.loc	12 200 9
	jne	LBB41_376
Ltmp1612:
LBB41_374:
	.loc	3 178 1
	addq	$24, %rbx
Ltmp1613:
	cmpq	%r14, %rbx
	je	LBB41_378
Ltmp1614:
LBB41_375:
	.loc	3 178 1 is_stmt 0
	movq	(%rbx), %rdi
Ltmp1615:
	.loc	12 532 16 is_stmt 1
	testq	%rdi, %rdi
Ltmp1616:
	.loc	12 200 9
	je	LBB41_374
Ltmp1617:
LBB41_376:
	.loc	3 0 0 is_stmt 0
	movq	8(%rbx), %rsi
Ltmp1618:
	.loc	12 200 9
	testq	%rsi, %rsi
	je	LBB41_374
Ltmp1619:
	.loc	6 102 5 is_stmt 1
	movl	$1, %edx
	callq	___rust_dealloc
Ltmp1620:
	.loc	3 178 1
	addq	$24, %rbx
Ltmp1621:
	cmpq	%r14, %rbx
	jne	LBB41_375
Ltmp1622:
LBB41_378:
	.loc	3 178 1 is_stmt 0
	movq	-168(%rbp), %rbx
Ltmp1623:
LBB41_379:
	movq	-160(%rbp), %rax
Ltmp1624:
	.loc	12 200 40 is_stmt 1
	testq	%rax, %rax
	.loc	12 200 9 is_stmt 0
	je	LBB41_383
Ltmp1625:
	.loc	12 532 16 is_stmt 1
	testq	%rbx, %rbx
Ltmp1626:
	je	LBB41_383
Ltmp1627:
	.loc	12 0 0 is_stmt 0
	shlq	$3, %rax
	leaq	(%rax,%rax,2), %rsi
Ltmp1628:
	.loc	12 532 16
	testq	%rsi, %rsi
	je	LBB41_383
Ltmp1629:
	.loc	6 102 5 is_stmt 1
	movl	$8, %edx
	movq	%rbx, %rdi
	callq	___rust_dealloc
Ltmp1630:
LBB41_383:
	.loc	10 850 19
	movq	-144(%rbp), %rbx
Ltmp1631:
	.loc	10 2384 81
	movq	-128(%rbp), %rax
Ltmp1632:
	.loc	3 178 1
	testq	%rax, %rax
	je	LBB41_390
Ltmp1633:
	leaq	(%rax,%rax,2), %rax
Ltmp1634:
	leaq	(%rbx,%rax,8), %r14
Ltmp1635:
	.loc	3 178 1 is_stmt 0
	movq	(%rbx), %rdi
Ltmp1636:
	.loc	12 532 16 is_stmt 1
	testq	%rdi, %rdi
Ltmp1637:
	.loc	12 200 9
	jne	LBB41_387
Ltmp1638:
LBB41_385:
	.loc	3 178 1
	addq	$24, %rbx
Ltmp1639:
	cmpq	%r14, %rbx
	je	LBB41_389
Ltmp1640:
LBB41_386:
	.loc	3 178 1 is_stmt 0
	movq	(%rbx), %rdi
Ltmp1641:
	.loc	12 532 16 is_stmt 1
	testq	%rdi, %rdi
Ltmp1642:
	.loc	12 200 9
	je	LBB41_385
Ltmp1643:
LBB41_387:
	.loc	3 0 0 is_stmt 0
	movq	8(%rbx), %rsi
Ltmp1644:
	.loc	12 200 9
	testq	%rsi, %rsi
	je	LBB41_385
Ltmp1645:
	.loc	6 102 5 is_stmt 1
	movl	$1, %edx
	callq	___rust_dealloc
Ltmp1646:
	.loc	3 178 1
	addq	$24, %rbx
Ltmp1647:
	cmpq	%r14, %rbx
	jne	LBB41_386
Ltmp1648:
LBB41_389:
	.loc	3 178 1 is_stmt 0
	movq	-144(%rbp), %rbx
Ltmp1649:
LBB41_390:
	movq	-136(%rbp), %rax
Ltmp1650:
	.loc	12 200 40 is_stmt 1
	testq	%rax, %rax
	.loc	12 200 9 is_stmt 0
	je	LBB41_394
Ltmp1651:
	.loc	12 532 16 is_stmt 1
	testq	%rbx, %rbx
Ltmp1652:
	je	LBB41_394
Ltmp1653:
	.loc	12 0 0 is_stmt 0
	shlq	$3, %rax
	leaq	(%rax,%rax,2), %rsi
Ltmp1654:
	.loc	12 532 16
	testq	%rsi, %rsi
	je	LBB41_394
Ltmp1655:
	.loc	6 102 5 is_stmt 1
	movl	$8, %edx
	movq	%rbx, %rdi
	callq	___rust_dealloc
Ltmp1656:
LBB41_394:
	.loc	3 178 1
	movq	-232(%rbp), %rdi
Ltmp1657:
	testq	%rdi, %rdi
	je	LBB41_397
Ltmp1658:
	.loc	3 178 1 is_stmt 0
	movq	-224(%rbp), %rsi
Ltmp1659:
	.loc	25 0 0
	testq	%rsi, %rsi
	je	LBB41_397
Ltmp1660:
LBB41_396:
	movl	$1, %edx
	callq	___rust_dealloc
Ltmp1661:
LBB41_397:
	movq	-256(%rbp), %rdi
Ltmp1662:
	testq	%rdi, %rdi
	je	LBB41_400
Ltmp1663:
LBB41_398:
	movq	-248(%rbp), %rsi
Ltmp1664:
	testq	%rsi, %rsi
	je	LBB41_400
Ltmp1665:
	movl	$1, %edx
	callq	___rust_dealloc
Ltmp1666:
LBB41_400:
	movq	-344(%rbp), %rdi
Ltmp1667:
	testq	%rdi, %rdi
	jne	LBB41_401
	jmp	LBB41_403
Ltmp1668:
LBB41_404:
	movl	$64, %edi
	movl	$8, %esi
	callq	__ZN5alloc5alloc18handle_alloc_error17hbc0ab0ed90816c07E
LBB41_405:
Ltmp1669:
	movl	$1, %esi
	movq	%r14, %rdi
	callq	__ZN5alloc7raw_vec19RawVec$LT$T$C$A$GT$11allocate_in28_$u7b$$u7b$closure$u7d$$u7d$17hdf576087ddce0164E
LBB41_406:
Ltmp1670:
	movl	$1, %esi
	movq	%r12, %rdi
	callq	__ZN5alloc5alloc18handle_alloc_error17hbc0ab0ed90816c07E
Ltmp1671:
LBB41_407:
	movl	$88, %edi
	movl	$8, %esi
	callq	__ZN5alloc5alloc18handle_alloc_error17hbc0ab0ed90816c07E
Ltmp1672:
LBB41_408:
	.loc	8 853 23 is_stmt 1
	movl	$1, %esi
	movq	%rbx, %rdi
	callq	__ZN5alloc7raw_vec19RawVec$LT$T$C$A$GT$11allocate_in28_$u7b$$u7b$closure$u7d$$u7d$17hdf576087ddce0164E
Ltmp1673:
LBB41_409:
	.loc	6 270 19
	movl	$72, %edi
	movl	$8, %esi
	callq	__ZN5alloc5alloc18handle_alloc_error17hbc0ab0ed90816c07E
Ltmp1674:
LBB41_410:
Ltmp700:
	.loc	6 0 19 is_stmt 0
	movq	%rax, %r14
	leaq	-208(%rbp), %rdi
Ltmp1675:
	.loc	25 118 9 is_stmt 1
	callq	__ZN4core3ptr13drop_in_place17hd4f4d739f60c3f05E
	leaq	-832(%rbp), %rdi
	callq	__ZN4core3ptr13drop_in_place17hd4f4d739f60c3f05E
	leaq	-960(%rbp), %rdi
	callq	__ZN4core3ptr13drop_in_place17hd4f4d739f60c3f05E
	leaq	-304(%rbp), %rdi
	callq	__ZN4core3ptr13drop_in_place17h811e7727da145865E
	leaq	-936(%rbp), %rdi
	callq	__ZN4core3ptr13drop_in_place17hd4f4d739f60c3f05E
Ltmp1676:
	.loc	25 0 9 is_stmt 0
	leaq	-168(%rbp), %rdi
Ltmp1677:
	.loc	25 119 5 is_stmt 1
	callq	__ZN4core3ptr13drop_in_place17h461d24f1ee0d7721E
Ltmp1678:
	.loc	25 0 5 is_stmt 0
	leaq	-144(%rbp), %rdi
Ltmp1679:
	.loc	25 119 5
	callq	__ZN4core3ptr13drop_in_place17h461d24f1ee0d7721E
Ltmp1680:
	.loc	25 0 5
	leaq	-232(%rbp), %rdi
	jmp	LBB41_436
Ltmp1681:
LBB41_411:
Ltmp703:
	movq	%rax, %r14
	leaq	-832(%rbp), %rdi
Ltmp1682:
	.loc	25 118 9 is_stmt 1
	callq	__ZN4core3ptr13drop_in_place17hd4f4d739f60c3f05E
	leaq	-960(%rbp), %rdi
	callq	__ZN4core3ptr13drop_in_place17hd4f4d739f60c3f05E
	leaq	-304(%rbp), %rdi
	callq	__ZN4core3ptr13drop_in_place17h811e7727da145865E
	leaq	-936(%rbp), %rdi
	callq	__ZN4core3ptr13drop_in_place17hd4f4d739f60c3f05E
Ltmp1683:
	.loc	25 0 9 is_stmt 0
	leaq	-168(%rbp), %rdi
Ltmp1684:
	.loc	25 119 5 is_stmt 1
	callq	__ZN4core3ptr13drop_in_place17h461d24f1ee0d7721E
Ltmp1685:
	.loc	25 0 5 is_stmt 0
	leaq	-144(%rbp), %rdi
Ltmp1686:
	.loc	25 119 5
	callq	__ZN4core3ptr13drop_in_place17h461d24f1ee0d7721E
Ltmp1687:
	.loc	25 0 5
	leaq	-232(%rbp), %rdi
Ltmp1688:
	.loc	25 119 5
	callq	__ZN4core3ptr13drop_in_place17h811e7727da145865E
Ltmp1689:
	.loc	25 0 5
	leaq	-280(%rbp), %rdi
	jmp	LBB41_436
Ltmp1690:
LBB41_412:
Ltmp706:
	movq	%rax, %r14
	leaq	-960(%rbp), %rdi
Ltmp1691:
	.loc	25 118 9 is_stmt 1
	callq	__ZN4core3ptr13drop_in_place17hd4f4d739f60c3f05E
	leaq	-304(%rbp), %rdi
	callq	__ZN4core3ptr13drop_in_place17h811e7727da145865E
	leaq	-936(%rbp), %rdi
	callq	__ZN4core3ptr13drop_in_place17hd4f4d739f60c3f05E
Ltmp1692:
	.loc	25 0 9 is_stmt 0
	leaq	-168(%rbp), %rdi
Ltmp1693:
	.loc	25 119 5 is_stmt 1
	callq	__ZN4core3ptr13drop_in_place17h461d24f1ee0d7721E
Ltmp1694:
	.loc	25 0 5 is_stmt 0
	leaq	-144(%rbp), %rdi
Ltmp1695:
	.loc	25 119 5
	callq	__ZN4core3ptr13drop_in_place17h461d24f1ee0d7721E
Ltmp1696:
	.loc	25 0 5
	leaq	-232(%rbp), %rdi
Ltmp1697:
	.loc	25 119 5
	callq	__ZN4core3ptr13drop_in_place17h811e7727da145865E
Ltmp1698:
	.loc	25 0 5
	leaq	-280(%rbp), %rdi
Ltmp1699:
	.loc	25 119 5
	callq	__ZN4core3ptr13drop_in_place17h811e7727da145865E
Ltmp1700:
	.loc	25 0 5
	leaq	-392(%rbp), %rdi
	jmp	LBB41_436
Ltmp1701:
LBB41_413:
Ltmp709:
	movq	%rax, %r14
	leaq	-304(%rbp), %rdi
Ltmp1702:
	.loc	25 118 9 is_stmt 1
	callq	__ZN4core3ptr13drop_in_place17h811e7727da145865E
	leaq	-936(%rbp), %rdi
	callq	__ZN4core3ptr13drop_in_place17hd4f4d739f60c3f05E
Ltmp1703:
	.loc	25 0 9 is_stmt 0
	leaq	-168(%rbp), %rdi
Ltmp1704:
	.loc	25 119 5 is_stmt 1
	callq	__ZN4core3ptr13drop_in_place17h461d24f1ee0d7721E
Ltmp1705:
	.loc	25 0 5 is_stmt 0
	leaq	-144(%rbp), %rdi
Ltmp1706:
	.loc	25 119 5
	callq	__ZN4core3ptr13drop_in_place17h461d24f1ee0d7721E
Ltmp1707:
	.loc	25 0 5
	leaq	-232(%rbp), %rdi
Ltmp1708:
	.loc	25 119 5
	callq	__ZN4core3ptr13drop_in_place17h811e7727da145865E
Ltmp1709:
	.loc	25 0 5
	leaq	-280(%rbp), %rdi
Ltmp1710:
	.loc	25 119 5
	callq	__ZN4core3ptr13drop_in_place17h811e7727da145865E
Ltmp1711:
	.loc	25 0 5
	leaq	-392(%rbp), %rdi
Ltmp1712:
	.loc	25 119 5
	callq	__ZN4core3ptr13drop_in_place17h811e7727da145865E
Ltmp1713:
	.loc	25 0 5
	leaq	-600(%rbp), %rdi
	jmp	LBB41_436
Ltmp1714:
LBB41_414:
Ltmp712:
	movq	%rax, %r14
	xorl	%ebx, %ebx
	jmp	LBB41_434
Ltmp1715:
LBB41_415:
Ltmp680:
	movq	%rax, %r14
Ltmp1716:
	leaq	-120(%rbp), %rdi
Ltmp1717:
	.loc	31 24 5 is_stmt 1
	callq	__ZN4core3ptr13drop_in_place17hf22588022c6b77c7E
	jmp	LBB41_419
Ltmp1718:
LBB41_416:
Ltmp683:
	.loc	31 0 5 is_stmt 0
	movq	%rax, %r14
Ltmp1719:
	leaq	-120(%rbp), %rdi
Ltmp1720:
	.loc	31 24 5
	callq	__ZN4core3ptr13drop_in_place17h9bcc1f8651951d51E
	jmp	LBB41_419
Ltmp1721:
LBB41_417:
Ltmp715:
	.loc	31 0 5
	movq	%rax, %r14
Ltmp1722:
	leaq	-120(%rbp), %rdi
Ltmp1723:
	.loc	31 24 5
	callq	__ZN4core3ptr13drop_in_place17h9bcc1f8651951d51E
	jmp	LBB41_425
Ltmp1724:
LBB41_418:
Ltmp677:
	.loc	31 0 5
	movq	%rax, %r14
Ltmp1725:
	leaq	-120(%rbp), %rdi
Ltmp1726:
	.loc	11 498 5 is_stmt 1
	callq	__ZN4core3ptr13drop_in_place17h645831761c4e870bE
Ltmp1727:
LBB41_419:
	.loc	11 0 5 is_stmt 0
	leaq	-368(%rbp), %rdi
	.loc	25 119 5 is_stmt 1
	callq	__ZN4core3ptr13drop_in_place17h645831761c4e870bE
	movq	%r14, %rdi
	callq	__Unwind_Resume
	ud2
Ltmp1728:
LBB41_420:
Ltmp686:
	.loc	25 0 5 is_stmt 0
	movq	%rax, %r14
Ltmp1729:
	leaq	-120(%rbp), %rdi
	jmp	LBB41_424
Ltmp1730:
LBB41_421:
Ltmp674:
	movq	%rax, %r14
Ltmp1731:
	jmp	LBB41_423
Ltmp1732:
LBB41_422:
Ltmp671:
	movq	%rax, %r14
Ltmp1733:
	leaq	-208(%rbp), %rdi
	.loc	25 65 23 is_stmt 1
	callq	__ZN4core3ptr13drop_in_place17h2ac11519a216c754E
Ltmp1734:
LBB41_423:
	.loc	25 0 23 is_stmt 0
	leaq	-368(%rbp), %rdi
Ltmp1735:
LBB41_424:
	callq	__ZN4core3ptr13drop_in_place17h645831761c4e870bE
	jmp	LBB41_425
Ltmp1736:
LBB41_426:
Ltmp718:
	movq	%rax, %r14
Ltmp1737:
Ltmp719:
	leaq	-832(%rbp), %rdi
Ltmp1738:
	.loc	31 24 5 is_stmt 1
	callq	__ZN4core3ptr13drop_in_place17h56ca298855abfcebE
Ltmp720:
	jmp	LBB41_431
Ltmp1739:
LBB41_427:
Ltmp721:
	.loc	31 0 5 is_stmt 0
	jmp	LBB41_430
Ltmp1740:
LBB41_428:
Ltmp724:
	movq	%rax, %r14
Ltmp1741:
	jmp	LBB41_432
Ltmp1742:
LBB41_429:
Ltmp668:
LBB41_430:
	movq	%rax, %r14
Ltmp1743:
LBB41_431:
	leaq	-576(%rbp), %rdi
	.loc	25 65 23 is_stmt 1
	callq	__ZN4core3ptr13drop_in_place17hd45d887a86263733E
Ltmp1744:
LBB41_432:
	.loc	25 0 23 is_stmt 0
	leaq	-208(%rbp), %rdi
	.loc	25 65 23
	callq	__ZN4core3ptr13drop_in_place17h2ac11519a216c754E
	movq	%r14, %rdi
	callq	__Unwind_Resume
	ud2
Ltmp1745:
LBB41_433:
Ltmp697:
	.loc	25 0 23
	movq	%rax, %r14
	movb	$1, %bl
LBB41_434:
Ltmp1746:
	leaq	-168(%rbp), %rdi
Ltmp1747:
	.loc	25 119 5 is_stmt 1
	callq	__ZN4core3ptr13drop_in_place17h461d24f1ee0d7721E
Ltmp1748:
	.loc	25 0 5 is_stmt 0
	leaq	-144(%rbp), %rdi
Ltmp1749:
	.loc	25 119 5
	callq	__ZN4core3ptr13drop_in_place17h461d24f1ee0d7721E
Ltmp1750:
	.loc	25 0 5
	leaq	-232(%rbp), %rdi
Ltmp1751:
	.loc	25 119 5
	callq	__ZN4core3ptr13drop_in_place17h811e7727da145865E
Ltmp1752:
	.loc	25 0 5
	leaq	-280(%rbp), %rdi
Ltmp1753:
	.loc	25 119 5
	callq	__ZN4core3ptr13drop_in_place17h811e7727da145865E
Ltmp1754:
	.loc	25 0 5
	leaq	-392(%rbp), %rdi
Ltmp1755:
	.loc	25 119 5
	callq	__ZN4core3ptr13drop_in_place17h811e7727da145865E
Ltmp1756:
	.loc	25 0 5
	leaq	-600(%rbp), %rdi
Ltmp1757:
	.loc	25 119 5
	callq	__ZN4core3ptr13drop_in_place17h811e7727da145865E
Ltmp1758:
	.loc	25 0 5
	leaq	-856(%rbp), %rdi
Ltmp1759:
	.loc	25 119 5
	callq	__ZN4core3ptr13drop_in_place17h811e7727da145865E
Ltmp1760:
	.loc	25 0 5
	leaq	-808(%rbp), %rdi
Ltmp1761:
	.loc	25 119 5
	callq	__ZN4core3ptr13drop_in_place17h811e7727da145865E
Ltmp1762:
	.loc	25 119 5
	testb	%bl, %bl
	je	LBB41_437
Ltmp1763:
	.loc	25 0 5
	leaq	-912(%rbp), %rdi
Ltmp1764:
LBB41_436:
	callq	__ZN4core3ptr13drop_in_place17h811e7727da145865E
Ltmp1765:
LBB41_437:
	leaq	-256(%rbp), %rdi
	.loc	25 119 5
	callq	__ZN4core3ptr13drop_in_place17hd4f4d739f60c3f05E
Ltmp1766:
LBB41_425:
	.loc	25 119 5
	leaq	-344(%rbp), %rdi
	callq	__ZN4core3ptr13drop_in_place17h645831761c4e870bE
	movq	%r14, %rdi
	callq	__Unwind_Resume
	ud2
Ltmp1767:
Lfunc_end41:
	.cfi_endproc
	.p2align	2, 0x90
	.data_region jt32
.set L41_0_set_44, LBB41_44-LJTI41_0
.set L41_0_set_68, LBB41_68-LJTI41_0
.set L41_0_set_54, LBB41_54-LJTI41_0
.set L41_0_set_33, LBB41_33-LJTI41_0
.set L41_0_set_59, LBB41_59-LJTI41_0
.set L41_0_set_49, LBB41_49-LJTI41_0
.set L41_0_set_73, LBB41_73-LJTI41_0
.set L41_0_set_78, LBB41_78-LJTI41_0
LJTI41_0:
	.long	L41_0_set_44
	.long	L41_0_set_68
	.long	L41_0_set_54
	.long	L41_0_set_33
	.long	L41_0_set_59
	.long	L41_0_set_49
	.long	L41_0_set_33
	.long	L41_0_set_33
	.long	L41_0_set_73
	.long	L41_0_set_33
	.long	L41_0_set_33
	.long	L41_0_set_78
	.end_data_region
	.file	35 "/rustc/a74d1862d4d87a56244958416fd05976c58ca1a8/src/libcore/iter/adapters/mod.rs"
	.file	36 "/rustc/a74d1862d4d87a56244958416fd05976c58ca1a8/src/libcore/internal_macros.rs"
	.file	37 "/rustc/a74d1862d4d87a56244958416fd05976c58ca1a8/src/libcore/ops/function.rs"
	.file	38 "/rustc/a74d1862d4d87a56244958416fd05976c58ca1a8/src/liballoc/str.rs"
	.section	__TEXT,__gcc_except_tab
	.p2align	2
GCC_except_table41:
Lexception5:
	.byte	255
	.byte	255
	.byte	1
	.uleb128 Lcst_end5-Lcst_begin5
Lcst_begin5:
	.uleb128 Lfunc_begin41-Lfunc_begin41
	.uleb128 Ltmp652-Lfunc_begin41
	.byte	0
	.byte	0
	.uleb128 Ltmp652-Lfunc_begin41
	.uleb128 Ltmp653-Ltmp652
	.uleb128 Ltmp724-Lfunc_begin41
	.byte	0
	.uleb128 Ltmp653-Lfunc_begin41
	.uleb128 Ltmp654-Ltmp653
	.byte	0
	.byte	0
	.uleb128 Ltmp654-Lfunc_begin41
	.uleb128 Ltmp667-Ltmp654
	.uleb128 Ltmp668-Lfunc_begin41
	.byte	0
	.uleb128 Ltmp716-Lfunc_begin41
	.uleb128 Ltmp717-Ltmp716
	.uleb128 Ltmp718-Lfunc_begin41
	.byte	0
	.uleb128 Ltmp722-Lfunc_begin41
	.uleb128 Ltmp723-Ltmp722
	.uleb128 Ltmp724-Lfunc_begin41
	.byte	0
	.uleb128 Ltmp669-Lfunc_begin41
	.uleb128 Ltmp670-Ltmp669
	.uleb128 Ltmp671-Lfunc_begin41
	.byte	0
	.uleb128 Ltmp672-Lfunc_begin41
	.uleb128 Ltmp673-Ltmp672
	.uleb128 Ltmp674-Lfunc_begin41
	.byte	0
	.uleb128 Ltmp684-Lfunc_begin41
	.uleb128 Ltmp685-Ltmp684
	.uleb128 Ltmp686-Lfunc_begin41
	.byte	0
	.uleb128 Ltmp713-Lfunc_begin41
	.uleb128 Ltmp714-Ltmp713
	.uleb128 Ltmp715-Lfunc_begin41
	.byte	0
	.uleb128 Ltmp675-Lfunc_begin41
	.uleb128 Ltmp676-Ltmp675
	.uleb128 Ltmp677-Lfunc_begin41
	.byte	0
	.uleb128 Ltmp681-Lfunc_begin41
	.uleb128 Ltmp682-Ltmp681
	.uleb128 Ltmp683-Lfunc_begin41
	.byte	0
	.uleb128 Ltmp687-Lfunc_begin41
	.uleb128 Ltmp692-Ltmp687
	.uleb128 Ltmp697-Lfunc_begin41
	.byte	0
	.uleb128 Ltmp692-Lfunc_begin41
	.uleb128 Ltmp693-Ltmp692
	.byte	0
	.byte	0
	.uleb128 Ltmp693-Lfunc_begin41
	.uleb128 Ltmp694-Ltmp693
	.uleb128 Ltmp697-Lfunc_begin41
	.byte	0
	.uleb128 Ltmp694-Lfunc_begin41
	.uleb128 Ltmp695-Ltmp694
	.byte	0
	.byte	0
	.uleb128 Ltmp695-Lfunc_begin41
	.uleb128 Ltmp696-Ltmp695
	.uleb128 Ltmp697-Lfunc_begin41
	.byte	0
	.uleb128 Ltmp696-Lfunc_begin41
	.uleb128 Ltmp678-Ltmp696
	.byte	0
	.byte	0
	.uleb128 Ltmp678-Lfunc_begin41
	.uleb128 Ltmp679-Ltmp678
	.uleb128 Ltmp680-Lfunc_begin41
	.byte	0
	.uleb128 Ltmp710-Lfunc_begin41
	.uleb128 Ltmp711-Ltmp710
	.uleb128 Ltmp712-Lfunc_begin41
	.byte	0
	.uleb128 Ltmp707-Lfunc_begin41
	.uleb128 Ltmp708-Ltmp707
	.uleb128 Ltmp709-Lfunc_begin41
	.byte	0
	.uleb128 Ltmp704-Lfunc_begin41
	.uleb128 Ltmp705-Ltmp704
	.uleb128 Ltmp706-Lfunc_begin41
	.byte	0
	.uleb128 Ltmp701-Lfunc_begin41
	.uleb128 Ltmp702-Ltmp701
	.uleb128 Ltmp703-Lfunc_begin41
	.byte	0
	.uleb128 Ltmp698-Lfunc_begin41
	.uleb128 Ltmp699-Ltmp698
	.uleb128 Ltmp700-Lfunc_begin41
	.byte	0
	.uleb128 Ltmp699-Lfunc_begin41
	.uleb128 Ltmp719-Ltmp699
	.byte	0
	.byte	0
	.uleb128 Ltmp719-Lfunc_begin41
	.uleb128 Ltmp720-Ltmp719
	.uleb128 Ltmp721-Lfunc_begin41
	.byte	0
	.uleb128 Ltmp720-Lfunc_begin41
	.uleb128 Lfunc_end41-Ltmp720
	.byte	0
	.byte	0
Lcst_end5:
	.p2align	2

	.section	__TEXT,__const
l___unnamed_35:
	.ascii	"/rustc/a74d1862d4d87a56244958416fd05976c58ca1a8/src/liballoc/collections/btree/map.rs"

	.section	__DATA,__const
	.p2align	3
l___unnamed_8:
	.quad	l___unnamed_35
	.asciz	"U\000\000\000\000\000\000\000C\006\000\000\033\000\000"

	.section	__TEXT,__const
l___unnamed_36:
	.ascii	"/rustc/a74d1862d4d87a56244958416fd05976c58ca1a8/src/libcore/macros/mod.rs"

	.section	__DATA,__const
	.p2align	3
l___unnamed_11:
	.quad	l___unnamed_36
	.asciz	"I\000\000\000\000\000\000\000\020\000\000\000\t\000\000"

	.section	__TEXT,__const
l___unnamed_7:
	.ascii	"called `Option::unwrap()` on a `None` value"

l___unnamed_37:
	.ascii	"internal error: entered unreachable code: "

	.section	__DATA,__const
	.p2align	3
l___unnamed_10:
	.quad	l___unnamed_37
	.asciz	"*\000\000\000\000\000\000"

	.section	__TEXT,__const
l___unnamed_38:
	.ascii	"BTreeMap has different depths"

	.section	__DATA,__const
	.p2align	3
l___unnamed_9:
	.quad	l___unnamed_38
	.asciz	"\035\000\000\000\000\000\000"

	.section	__TEXT,__const
l___unnamed_13:
	.ascii	"failure::ErrorMessage"

l___unnamed_39:
	.ascii	"/rustc/a74d1862d4d87a56244958416fd05976c58ca1a8/src/libcore/str/pattern.rs"

	.section	__DATA,__const
	.p2align	3
l___unnamed_12:
	.quad	l___unnamed_39
	.asciz	"J\000\000\000\000\000\000\000\213\001\000\000&\000\000"

	.section	__TEXT,__const
l___unnamed_14:
	.ascii	"ErrorMessage"

l___unnamed_15:
	.ascii	"msg"

	.section	__DATA,__const
	.p2align	3
l___unnamed_1:
	.quad	__ZN4core3ptr13drop_in_place17h7838608ba626ad8aE
	.quad	8
	.quad	8
	.quad	__ZN42_$LT$$RF$T$u20$as$u20$core..fmt..Debug$GT$3fmt17h086760cd9cc2fc53E

	.p2align	3
l___unnamed_2:
	.quad	__ZN4core3ptr13drop_in_place17h7838608ba626ad8aE
	.quad	8
	.quad	8
	.quad	__ZN42_$LT$$RF$T$u20$as$u20$core..fmt..Debug$GT$3fmt17hb4956a24ed60cb51E

	.p2align	3
l___unnamed_3:
	.quad	__ZN4core3ptr13drop_in_place17h7838608ba626ad8aE
	.quad	16
	.quad	8
	.quad	__ZN79_$LT$failure..error_message..ErrorMessage$LT$D$GT$$u20$as$u20$failure..Fail$GT$4name17h72d33ec969843c77E
	.quad	__ZN7failure4Fail4name17h3f5b33057e7b1579E
	.quad	__ZN7failure4Fail9backtrace17h454079dd5844f6b2E
	.quad	0
	.quad	0
	.quad	0
	.quad	0
	.quad	__ZN7failure4Fail23__private_get_type_id__17h1fc5abc6261a26c1E
	.quad	__ZN84_$LT$failure..error_message..ErrorMessage$LT$D$GT$$u20$as$u20$core..fmt..Display$GT$3fmt17hca2e314f6f457f81E
	.quad	__ZN82_$LT$failure..error_message..ErrorMessage$LT$D$GT$$u20$as$u20$core..fmt..Debug$GT$3fmt17h381e85a74a44eae3E

	.p2align	3
l___unnamed_4:
	.quad	__ZN4core3ptr13drop_in_place17h9bcc1f8651951d51E
	.quad	40
	.quad	8
	.quad	__ZN7failure4Fail4name17hc5dd280956b40a95E
	.quad	__ZN7failure4Fail4name17hc5dd280956b40a95E
	.quad	__ZN7failure4Fail9backtrace17hdf88313ff0b86fefE
	.quad	0
	.quad	0
	.quad	0
	.quad	0
	.quad	__ZN7failure4Fail23__private_get_type_id__17h52914c4812b93073E
	.quad	__ZN67_$LT$alloc..string..FromUtf8Error$u20$as$u20$core..fmt..Display$GT$3fmt17hade50f07e52461e7E
	.quad	__ZN65_$LT$alloc..string..FromUtf8Error$u20$as$u20$core..fmt..Debug$GT$3fmt17h13c569f9c897d60fE

	.p2align	3
l___unnamed_5:
	.quad	__ZN4core3ptr13drop_in_place17h56ca298855abfcebE
	.quad	16
	.quad	8
	.quad	__ZN7failure4Fail4name17h3f5b33057e7b1579E
	.quad	__ZN7failure4Fail4name17h3f5b33057e7b1579E
	.quad	__ZN7failure4Fail9backtrace17h454079dd5844f6b2E
	.quad	0
	.quad	0
	.quad	0
	.quad	0
	.quad	__ZN7failure4Fail23__private_get_type_id__17h05c01c2d2ad3c6e4E
	.quad	__ZN60_$LT$std..io..error..Error$u20$as$u20$core..fmt..Display$GT$3fmt17hd5a23906ccc4fffdE
	.quad	__ZN58_$LT$std..io..error..Error$u20$as$u20$core..fmt..Debug$GT$3fmt17h3350f3f53e0cee4cE

	.p2align	3
l___unnamed_6:
	.quad	__ZN4core3ptr13drop_in_place17hf22588022c6b77c7E
	.quad	24
	.quad	8
	.quad	__ZN79_$LT$failure..error_message..ErrorMessage$LT$D$GT$$u20$as$u20$failure..Fail$GT$4name17hcec5dc14ded058d8E
	.quad	__ZN7failure4Fail5cause17h92029567fff4a929E
	.quad	__ZN7failure4Fail9backtrace17hc621eda7d09408f1E
	.quad	0
	.quad	0
	.quad	0
	.quad	0
	.quad	__ZN7failure4Fail23__private_get_type_id__17ha25c9cf9744330c0E
	.quad	__ZN84_$LT$failure..error_message..ErrorMessage$LT$D$GT$$u20$as$u20$core..fmt..Display$GT$3fmt17h44ca64e4f514c59dE
	.quad	__ZN82_$LT$failure..error_message..ErrorMessage$LT$D$GT$$u20$as$u20$core..fmt..Debug$GT$3fmt17hf791b091326e59c1E

	.section	__TEXT,__const
l___unnamed_16:
	.ascii	"RUSTC"

l___unnamed_17:
	.ascii	"rustc"

	.section	__TEXT,__literal8,8byte_literals
L___unnamed_18:
	.ascii	"--target"

	.section	__TEXT,__const
l___unnamed_19:
	.ascii	"--print"

l___unnamed_20:
	.ascii	"cfg"

l___unnamed_21:
	.ascii	"target_os"

l___unnamed_24:
	.ascii	"target_family"

l___unnamed_23:
	.ascii	"target_arch"

l___unnamed_25:
	.ascii	"target_endian"

l___unnamed_29:
	.ascii	"target_pointer_width"

l___unnamed_27:
	.ascii	"target_env"

l___unnamed_26:
	.ascii	"target_vendor"

l___unnamed_28:
	.ascii	"target_has_atomic"

l___unnamed_22:
	.ascii	"target_feature"

l___unnamed_30:
	.ascii	"`target_os` is missing"

l___unnamed_31:
	.ascii	"`target_arch` is missing"

l___unnamed_32:
	.ascii	"`target_endian` is missing"

l___unnamed_33:
	.ascii	"`target_pointer_width` is missing"

l___unnamed_34:
	.ascii	"`target_env` is missing"
