	.section	__TEXT,__text,regular,pure_instructions
	.macosx_version_min 10, 7
	.p2align	4, 0x90
__ZN42_$LT$$RF$T$u20$as$u20$core..fmt..Debug$GT$3fmt17h9c3ea883c3eb0116E:
Lfunc_begin0:
	.file	1 "/rustc/6c8927b0cf80ceee19386026cf9d7fd4fd9d486f/src/libcore/fmt/mod.rs"
	.loc	1 2022 0
	.cfi_startproc
	pushq	%rbp
	.cfi_def_cfa_offset 16
	.cfi_offset %rbp, -16
	movq	%rsp, %rbp
	.cfi_def_cfa_register %rbp
	movq	%rsi, %rdi
Ltmp0:
	.loc	1 2219 9 prologue_end
	leaq	l___unnamed_3(%rip), %rsi
	movl	$2, %edx
	popq	%rbp
	jmp	__ZN4core3fmt9Formatter3pad17h426409b23b74b394E
Ltmp1:
Lfunc_end0:
	.cfi_endproc

	.p2align	4, 0x90
__ZN4core3ptr13drop_in_place17h2b4714f12cabc912E:
Lfunc_begin1:
	.file	2 "/rustc/6c8927b0cf80ceee19386026cf9d7fd4fd9d486f/src/libcore/ptr/mod.rs"
	.loc	2 184 0
	.cfi_startproc
	pushq	%rbp
	.cfi_def_cfa_offset 16
	.cfi_offset %rbp, -16
	movq	%rsp, %rbp
	.cfi_def_cfa_register %rbp
Ltmp2:
	.loc	2 184 1 prologue_end
	popq	%rbp
	retq
Ltmp3:
Lfunc_end1:
	.cfi_endproc

	.p2align	4, 0x90
__ZN4core3str6traits101_$LT$impl$u20$core..slice..SliceIndex$LT$str$GT$$u20$for$u20$core..ops..range..Range$LT$usize$GT$$GT$5index28_$u7b$$u7b$closure$u7d$$u7d$17ha96adb8ff842bfdfE:
Lfunc_begin2:
	.file	3 "/rustc/6c8927b0cf80ceee19386026cf9d7fd4fd9d486f/src/libcore/str/mod.rs"
	.loc	3 1926 0
	.cfi_startproc
	pushq	%rbp
	.cfi_def_cfa_offset 16
	.cfi_offset %rbp, -16
	movq	%rsp, %rbp
	.cfi_def_cfa_register %rbp
Ltmp4:
	.loc	3 1926 71 prologue_end
	movq	(%rdi), %rcx
	.loc	3 1926 78 is_stmt 0
	movq	8(%rdi), %rdx
	.loc	3 1926 71
	movq	(%rcx), %rax
	movq	8(%rcx), %rsi
	.loc	3 1926 78
	movq	(%rdx), %rdx
	.loc	3 1926 85
	movq	16(%rdi), %rcx
	movq	(%rcx), %rcx
	.loc	3 1926 47
	leaq	l___unnamed_4(%rip), %r8
	movq	%rax, %rdi
Ltmp5:
	callq	__ZN4core3str16slice_error_fail17ha125059561e5ce66E
Ltmp6:
Lfunc_end2:
	.cfi_endproc

	.p2align	4, 0x90
__ZN4core3str6traits103_$LT$impl$u20$core..slice..SliceIndex$LT$str$GT$$u20$for$u20$core..ops..range..RangeTo$LT$usize$GT$$GT$5index28_$u7b$$u7b$closure$u7d$$u7d$17h7e3253d82a7441adE:
Lfunc_begin3:
	.loc	3 1998 0 is_stmt 1
	.cfi_startproc
	pushq	%rbp
	.cfi_def_cfa_offset 16
	.cfi_offset %rbp, -16
	movq	%rsp, %rbp
	.cfi_def_cfa_register %rbp
Ltmp7:
	movq	%rsi, %rcx
Ltmp8:
	.loc	3 1998 71 prologue_end
	movq	(%rdi), %rax
	movq	8(%rdi), %rsi
	.loc	3 1998 47 is_stmt 0
	leaq	l___unnamed_5(%rip), %r8
	movq	%rax, %rdi
Ltmp9:
	xorl	%edx, %edx
	callq	__ZN4core3str16slice_error_fail17ha125059561e5ce66E
Ltmp10:
Lfunc_end3:
	.cfi_endproc

	.p2align	4, 0x90
__ZN4core3str6traits105_$LT$impl$u20$core..slice..SliceIndex$LT$str$GT$$u20$for$u20$core..ops..range..RangeFrom$LT$usize$GT$$GT$5index28_$u7b$$u7b$closure$u7d$$u7d$17h6be5bad7675462e3E:
Lfunc_begin4:
	.loc	3 2071 0 is_stmt 1
	.cfi_startproc
	pushq	%rbp
	.cfi_def_cfa_offset 16
	.cfi_offset %rbp, -16
	movq	%rsp, %rbp
	.cfi_def_cfa_register %rbp
Ltmp11:
	.loc	3 2071 71 prologue_end
	movq	(%rdi), %rcx
	.loc	3 2071 78 is_stmt 0
	movq	8(%rdi), %rdx
	.loc	3 2071 71
	movq	(%rcx), %rax
	movq	8(%rcx), %rsi
	.loc	3 2071 78
	movq	(%rdx), %rdx
	.loc	3 2071 85
	movq	16(%rdi), %rcx
	movq	(%rcx), %rcx
	.loc	3 2071 47
	leaq	l___unnamed_6(%rip), %r8
	movq	%rax, %rdi
Ltmp12:
	callq	__ZN4core3str16slice_error_fail17ha125059561e5ce66E
Ltmp13:
Lfunc_end4:
	.cfi_endproc

	.p2align	4, 0x90
__ZN84_$LT$core..str..Split$LT$P$GT$$u20$as$u20$core..iter..traits..iterator..Iterator$GT$4next17h29d79d1d13cf92e7E:
Lfunc_begin5:
	.loc	3 973 0 is_stmt 1
	.cfi_startproc
	pushq	%rbp
	.cfi_def_cfa_offset 16
	.cfi_offset %rbp, -16
	movq	%rsp, %rbp
	.cfi_def_cfa_register %rbp
Ltmp14:
	pushq	%r15
	pushq	%r14
	pushq	%r13
	pushq	%r12
	pushq	%rbx
	subq	$24, %rsp
	.cfi_offset %rbx, -56
	.cfi_offset %r12, -48
	.cfi_offset %r13, -40
	.cfi_offset %r14, -32
	.cfi_offset %r15, -24
	.loc	3 1119 12 prologue_end
	cmpb	$0, 65(%rdi)
	.loc	3 1119 9 is_stmt 0
	jne	LBB5_1
Ltmp15:
	.loc	3 0 9
	movq	%rdi, %r13
Ltmp16:
	.file	4 "/rustc/6c8927b0cf80ceee19386026cf9d7fd4fd9d486f/src/libcore/str/pattern.rs"
	.loc	4 406 54 is_stmt 1
	movq	32(%rdi), %rsi
	.loc	4 406 67 is_stmt 0
	movq	40(%rdi), %rax
Ltmp17:
	.file	5 "/rustc/6c8927b0cf80ceee19386026cf9d7fd4fd9d486f/src/libcore/slice/mod.rs"
	.loc	5 3132 12 is_stmt 1
	movq	%rax, %rdx
	subq	%rsi, %rdx
Ltmp18:
	.loc	4 406 84
	jb	LBB5_16
Ltmp19:
	cmpq	%rax, 24(%r13)
	jb	LBB5_16
Ltmp20:
	.loc	3 0 0 is_stmt 0
	movq	16(%r13), %rcx
Ltmp21:
	.loc	4 409 71 is_stmt 1
	movq	48(%r13), %rax
Ltmp22:
	.loc	4 0 71 is_stmt 0
	movq	%rcx, -56(%rbp)
Ltmp23:
	.loc	5 3132 12 is_stmt 1
	addq	%rcx, %rsi
Ltmp24:
	.loc	4 410 34
	movzbl	59(%rax,%r13), %edi
	callq	__ZN4core5slice6memchr6memchr17hd650620a8925ad84E
Ltmp25:
	.loc	4 410 20 is_stmt 0
	cmpq	$1, %rax
Ltmp26:
	jne	LBB5_15
Ltmp27:
	.loc	4 0 20
	leaq	60(%r13), %rax
	movq	%rax, -48(%rbp)
Ltmp28:
	.p2align	4, 0x90
LBB5_6:
	.loc	4 428 17 is_stmt 1
	movq	32(%r13), %rax
	.loc	4 429 35
	movq	48(%r13), %r15
	.loc	4 428 17
	leaq	1(%rdx,%rax), %rbx
	movq	%rbx, 32(%r13)
	.loc	4 429 20
	movq	%rbx, %r12
	subq	%r15, %r12
	.loc	4 429 17 is_stmt 0
	jae	LBB5_8
Ltmp29:
	.loc	4 406 25 is_stmt 1
	movq	24(%r13), %r14
	jmp	LBB5_12
Ltmp30:
	.p2align	4, 0x90
LBB5_8:
	.loc	4 431 42
	movq	24(%r13), %r14
Ltmp31:
	.loc	5 3132 37
	cmpq	%rbx, %r14
Ltmp32:
	.loc	4 431 28
	jb	LBB5_12
Ltmp33:
	.loc	5 3169 19
	cmpq	$5, %r15
Ltmp34:
	.loc	5 3169 16 is_stmt 0
	jae	LBB5_23
Ltmp35:
	.loc	5 0 16
	movq	16(%r13), %rdi
	addq	%r12, %rdi
Ltmp36:
	.file	6 "/rustc/6c8927b0cf80ceee19386026cf9d7fd4fd9d486f/src/libcore/ptr/const_ptr.rs"
	.loc	6 331 9 is_stmt 1
	cmpq	-48(%rbp), %rdi
Ltmp37:
	.loc	5 6271 9
	je	LBB5_21
Ltmp38:
	.loc	5 0 9 is_stmt 0
	movq	-48(%rbp), %rsi
Ltmp39:
	.loc	5 6276 13 is_stmt 1
	movq	%r15, %rdx
Ltmp40:
	callq	_memcmp
Ltmp41:
	testl	%eax, %eax
Ltmp42:
	.loc	4 432 25
	je	LBB5_21
Ltmp43:
LBB5_12:
	.loc	4 406 67
	movq	40(%r13), %rax
Ltmp44:
	.loc	5 3132 12
	movq	%rax, %rdx
	subq	%rbx, %rdx
Ltmp45:
	.loc	4 406 84
	jb	LBB5_16
Ltmp46:
	cmpq	%rax, %r14
	jb	LBB5_16
Ltmp47:
	.loc	5 3132 12
	addq	16(%r13), %rbx
Ltmp48:
	.loc	4 410 34
	movzbl	59(%r15,%r13), %edi
	movq	%rbx, %rsi
	callq	__ZN4core5slice6memchr6memchr17hd650620a8925ad84E
Ltmp49:
	.loc	4 410 20 is_stmt 0
	cmpq	$1, %rax
Ltmp50:
	je	LBB5_6
Ltmp51:
LBB5_15:
	.loc	4 439 31 is_stmt 1
	movq	40(%r13), %rax
	.loc	4 439 17 is_stmt 0
	movq	%rax, 32(%r13)
Ltmp52:
LBB5_16:
	.loc	3 1105 13 is_stmt 1
	cmpb	$0, 65(%r13)
	.loc	3 1105 12 is_stmt 0
	je	LBB5_17
Ltmp53:
LBB5_1:
	.loc	3 0 12
	xorl	%eax, %eax
LBB5_22:
	.loc	3 975 14 is_stmt 1
	movq	%r12, %rdx
	addq	$24, %rsp
	popq	%rbx
	popq	%r12
	popq	%r13
	popq	%r14
	popq	%r15
	popq	%rbp
	retq
LBB5_17:
Ltmp54:
	.loc	3 1105 31
	cmpb	$0, 64(%r13)
	.loc	3 1105 30 is_stmt 0
	je	LBB5_19
Ltmp55:
	.loc	3 1109 68 is_stmt 1
	movq	(%r13), %rax
	.loc	3 1109 80 is_stmt 0
	movq	8(%r13), %r12
	jmp	LBB5_20
Ltmp56:
LBB5_19:
	.loc	3 1105 71 is_stmt 1
	movq	(%r13), %rax
	.loc	3 1105 60 is_stmt 0
	movq	8(%r13), %r12
	cmpq	%rax, %r12
	.loc	3 1105 12
	je	LBB5_1
Ltmp57:
LBB5_20:
	.loc	3 1106 13 is_stmt 1
	movb	$1, 65(%r13)
Ltmp58:
	.loc	3 1912 23
	subq	%rax, %r12
Ltmp59:
	.loc	6 164 18
	addq	16(%r13), %rax
Ltmp60:
	.loc	6 0 18 is_stmt 0
	jmp	LBB5_22
Ltmp61:
LBB5_21:
	.loc	3 1127 50 is_stmt 1
	movq	(%r13), %rcx
Ltmp62:
	.loc	3 0 50 is_stmt 0
	movq	-56(%rbp), %rax
Ltmp63:
	.loc	6 164 18 is_stmt 1
	addq	%rcx, %rax
Ltmp64:
	.loc	3 1912 23
	subq	%rcx, %r12
Ltmp65:
	.loc	3 1128 17
	movq	%rbx, (%r13)
	jmp	LBB5_22
Ltmp66:
LBB5_23:
	.loc	5 3170 13
	leaq	l___unnamed_7(%rip), %rdx
Ltmp67:
	movl	$4, %esi
	movq	%r15, %rdi
	callq	__ZN4core5slice24slice_end_index_len_fail17hea9e3399ed430f80E
Ltmp68:
Lfunc_end5:
	.cfi_endproc
	.file	7 "/rustc/6c8927b0cf80ceee19386026cf9d7fd4fd9d486f/src/libcore/cmp.rs"

	.globl	__ZN71_$LT$rustc_demangle..legacy..Demangle$u20$as$u20$core..fmt..Display$GT$3fmt17h1eee93ee66a8c144E
	.p2align	4, 0x90
__ZN71_$LT$rustc_demangle..legacy..Demangle$u20$as$u20$core..fmt..Display$GT$3fmt17h1eee93ee66a8c144E:
Lfunc_begin6:
	.file	8 "/Users/yingyuhang/.cargo/registry/src/github.com-1ecc6299db9ec823/rustc-demangle-0.1.16/src/legacy.rs"
	.loc	8 108 0
	.cfi_startproc
	pushq	%rbp
	.cfi_def_cfa_offset 16
	.cfi_offset %rbp, -16
	movq	%rsp, %rbp
	.cfi_def_cfa_register %rbp
	pushq	%r15
	pushq	%r14
	pushq	%r13
	pushq	%r12
	pushq	%rbx
	subq	$152, %rsp
	.cfi_offset %rbx, -56
	.cfi_offset %r12, -48
	.cfi_offset %r13, -40
	.cfi_offset %r14, -32
	.cfi_offset %r15, -24
	movq	%rsi, -136(%rbp)
Ltmp69:
	.loc	8 110 25 prologue_end
	movq	(%rdi), %r13
	movq	8(%rdi), %r14
Ltmp70:
	.loc	8 111 27
	movq	16(%rdi), %rax
	movq	%rax, -184(%rbp)
Ltmp71:
	.loc	8 0 27 is_stmt 0
	xorl	%eax, %eax
	movq	%rax, -168(%rbp)
	jmp	LBB6_1
Ltmp72:
LBB6_137:
	.loc	4 439 31 is_stmt 1
	movq	-104(%rbp), %rax
	.loc	4 439 17 is_stmt 0
	movq	%rax, -112(%rbp)
Ltmp73:
LBB6_138:
	.loc	4 0 17
	movq	-160(%rbp), %r14
	movq	-144(%rbp), %r13
Ltmp74:
LBB6_139:
	movq	-136(%rbp), %rdi
	.loc	8 187 18 is_stmt 1
	movq	%r12, %rsi
	movq	%r13, %rdx
	callq	__ZN4core3fmt9Formatter9write_str17h98e119ad25a8903eE
Ltmp75:
	.loc	8 0 0 is_stmt 0
	movq	%r14, %r13
Ltmp76:
	.loc	8 187 13
	testb	%al, %al
	movq	-192(%rbp), %r14
	jne	LBB6_40
Ltmp77:
LBB6_1:
	.loc	8 0 13
	movq	-168(%rbp), %r11
Ltmp78:
	.loc	7 1136 52 is_stmt 1
	cmpq	-184(%rbp), %r11
Ltmp79:
	.file	9 "/rustc/6c8927b0cf80ceee19386026cf9d7fd4fd9d486f/src/libcore/iter/range.rs"
	.loc	9 505 9
	je	LBB6_43
Ltmp80:
	.loc	5 3440 9
	testq	%r14, %r14
	.loc	5 3570 21
	je	LBB6_29
Ltmp81:
	.loc	8 0 0 is_stmt 0
	leaq	1(%r11), %rax
Ltmp82:
	movq	%rax, -168(%rbp)
Ltmp83:
	leaq	(%r13,%r14), %r8
Ltmp84:
	.loc	3 520 5 is_stmt 1
	leaq	-1(%r14), %r9
	xorl	%ebx, %ebx
	movq	%r14, %r15
	jmp	LBB6_4
Ltmp85:
	.p2align	4, 0x90
LBB6_28:
	.loc	3 2057 23
	decq	%r15
Ltmp86:
	.loc	5 3440 9
	incq	%rbx
	cmpq	%rbx, %r14
	.loc	5 3570 21
	je	LBB6_29
Ltmp87:
LBB6_4:
	.loc	3 519 13
	movzbl	(%r13,%rbx), %esi
Ltmp88:
	.loc	3 520 8
	testb	%sil, %sil
	.loc	3 520 5 is_stmt 0
	jns	LBB6_19
Ltmp89:
	.loc	3 0 5
	xorl	%edx, %edx
Ltmp90:
	movq	%r8, %rax
Ltmp91:
	.loc	5 3440 9 is_stmt 1
	cmpq	%rbx, %r9
Ltmp92:
	.loc	5 3570 21
	je	LBB6_7
Ltmp93:
	.loc	3 508 15
	leaq	2(%r13,%rbx), %rax
	movzbl	1(%r13,%rbx), %edx
	.loc	3 507 5
	andl	$63, %edx
Ltmp94:
LBB6_7:
	.loc	3 0 5 is_stmt 0
	movl	%esi, %edi
	andl	$31, %edi
Ltmp95:
	.loc	3 530 8 is_stmt 1
	cmpb	$-33, %sil
	.loc	3 530 5 is_stmt 0
	jbe	LBB6_8
Ltmp96:
	.loc	5 3440 9 is_stmt 1
	cmpq	%r8, %rax
	.loc	5 3570 21
	je	LBB6_11
Ltmp97:
	.loc	3 508 15
	movzbl	(%rax), %ecx
Ltmp98:
	.file	10 "/rustc/6c8927b0cf80ceee19386026cf9d7fd4fd9d486f/src/libcore/ptr/mut_ptr.rs"
	.loc	10 165 18
	incq	%rax
Ltmp99:
	.loc	3 507 5
	andl	$63, %ecx
Ltmp100:
	.loc	3 495 5
	shll	$6, %edx
Ltmp101:
	orl	%ecx, %edx
Ltmp102:
	.loc	3 536 12
	cmpb	$-16, %sil
	.loc	3 536 9 is_stmt 0
	jb	LBB6_14
Ltmp103:
LBB6_15:
	.loc	5 3440 9 is_stmt 1
	cmpq	%r8, %rax
	.loc	5 3570 21
	je	LBB6_16
Ltmp104:
	.loc	3 508 15
	movzbl	(%rax), %eax
Ltmp105:
	.loc	3 507 5
	andl	$63, %eax
	jmp	LBB6_18
Ltmp106:
LBB6_8:
	.loc	3 0 5 is_stmt 0
	shll	$6, %edi
Ltmp107:
	jmp	LBB6_9
Ltmp108:
LBB6_11:
	xorl	%ecx, %ecx
	movq	%r8, %rax
Ltmp109:
	.loc	3 495 5 is_stmt 1
	shll	$6, %edx
Ltmp110:
	orl	%ecx, %edx
Ltmp111:
	.loc	3 536 12
	cmpb	$-16, %sil
	.loc	3 536 9 is_stmt 0
	jae	LBB6_15
Ltmp112:
LBB6_14:
	.loc	3 0 9
	shll	$12, %edi
Ltmp113:
LBB6_9:
	orl	%edi, %edx
Ltmp114:
	movl	%edx, %esi
Ltmp115:
	jmp	LBB6_19
Ltmp116:
LBB6_16:
	xorl	%eax, %eax
Ltmp117:
LBB6_18:
	.loc	3 540 18 is_stmt 1
	andl	$7, %edi
Ltmp118:
	shll	$18, %edi
Ltmp119:
	.loc	3 495 5
	shll	$6, %edx
Ltmp120:
	orl	%edi, %edx
Ltmp121:
	.loc	3 540 13
	orl	%eax, %edx
Ltmp122:
	.loc	3 0 13 is_stmt 0
	movl	%edx, %esi
Ltmp123:
	.file	11 "/rustc/6c8927b0cf80ceee19386026cf9d7fd4fd9d486f/src/libcore/option.rs"
	.loc	11 385 13 is_stmt 1
	cmpl	$1114112, %edx
Ltmp124:
	je	LBB6_29
Ltmp125:
	.p2align	4, 0x90
LBB6_19:
	.loc	8 0 0 is_stmt 0
	leaq	(%r13,%rbx), %r12
Ltmp126:
	addl	$-48, %esi
	cmpl	$10, %esi
	.file	12 "/rustc/6c8927b0cf80ceee19386026cf9d7fd4fd9d486f/src/libcore/char/methods.rs"
	.loc	12 343 17 is_stmt 1
	jae	LBB6_20
Ltmp127:
	.loc	12 0 17 is_stmt 0
	movq	%r12, -72(%rbp)
	movq	%r15, -64(%rbp)
Ltmp128:
	.loc	3 2070 18 is_stmt 1
	movq	$1, -48(%rbp)
	.loc	3 2070 25 is_stmt 0
	movq	%r15, -56(%rbp)
Ltmp129:
	.loc	3 2326 26 is_stmt 1
	cmpq	%rbx, %r9
Ltmp130:
	.loc	3 2326 12 is_stmt 0
	je	LBB6_28
Ltmp131:
	.loc	3 2332 25 is_stmt 1
	cmpb	$-65, 1(%r13,%rbx)
	jg	LBB6_28
	jmp	LBB6_224
Ltmp132:
	.p2align	4, 0x90
LBB6_20:
	.loc	8 116 36
	movq	%r14, %rdx
	subq	%r15, %rdx
	jb	LBB6_219
Ltmp133:
	.loc	8 0 36 is_stmt 0
	movq	%r11, -144(%rbp)
Ltmp134:
	movq	%r13, -128(%rbp)
	movq	%r14, -120(%rbp)
Ltmp135:
	.loc	3 2326 12 is_stmt 1
	testq	%rdx, %rdx
	je	LBB6_30
Ltmp136:
	cmpq	%rdx, %r14
	je	LBB6_30
Ltmp137:
	.loc	3 2330 13
	jbe	LBB6_25
Ltmp138:
	.loc	3 2332 25
	cmpb	$-65, (%r13,%rdx)
Ltmp139:
	.loc	3 1965 13
	jle	LBB6_25
Ltmp140:
LBB6_30:
	.loc	3 4269 9
	leaq	-128(%rbp), %rdi
	movq	%r13, %rsi
	callq	__ZN4core3num54_$LT$impl$u20$core..str..FromStr$u20$for$u20$usize$GT$8from_str17h58600e175285cb47E
Ltmp141:
	.file	13 "/rustc/6c8927b0cf80ceee19386026cf9d7fd4fd9d486f/src/libcore/result.rs"
	.loc	13 1004 13
	cmpb	$1, -128(%rbp)
	je	LBB6_225
Ltmp142:
	.loc	13 1004 16 is_stmt 0
	movq	-120(%rbp), %rsi
Ltmp143:
	.loc	8 116 79 is_stmt 1
	subq	%rsi, %r14
Ltmp144:
	.loc	8 0 79 is_stmt 0
	movq	%r12, -72(%rbp)
	movq	%r15, -64(%rbp)
Ltmp145:
	.loc	3 2070 18 is_stmt 1
	movq	%rsi, -48(%rbp)
	.loc	3 2070 25 is_stmt 0
	movq	%r15, -56(%rbp)
Ltmp146:
	.loc	3 2326 12 is_stmt 1
	testq	%rsi, %rsi
	sete	%cl
	.loc	3 2326 26 is_stmt 0
	subq	%rbx, %r14
	sete	%al
	.loc	3 2326 12
	orb	%cl, %al
	jne	LBB6_34
Ltmp147:
	.loc	5 3090 12 is_stmt 1
	cmpq	%rsi, %r15
Ltmp148:
	.loc	3 2330 13
	jbe	LBB6_224
Ltmp149:
	.loc	3 2332 19
	leaq	(%r13,%rsi), %rcx
Ltmp150:
	.loc	3 2332 25 is_stmt 0
	cmpb	$-65, (%rbx,%rcx)
Ltmp151:
	.loc	3 2033 13 is_stmt 1
	jle	LBB6_224
Ltmp152:
LBB6_34:
	.loc	3 0 13 is_stmt 0
	movq	%r14, -192(%rbp)
Ltmp153:
	.loc	3 2057 23 is_stmt 1
	leaq	(%r13,%rsi), %r14
Ltmp154:
	.loc	3 0 23 is_stmt 0
	movq	%r12, -128(%rbp)
	movq	%r15, -120(%rbp)
Ltmp155:
	.loc	3 2326 12 is_stmt 1
	testb	%al, %al
	jne	LBB6_37
Ltmp156:
	.loc	5 3090 12
	cmpq	%rsi, %r15
Ltmp157:
	.loc	3 2330 13
	jbe	LBB6_226
Ltmp158:
	.loc	3 2332 25
	cmpb	$-65, (%r14,%rbx)
Ltmp159:
	.loc	3 1965 13
	jle	LBB6_226
Ltmp160:
LBB6_37:
	.loc	3 0 13 is_stmt 0
	movq	%rsi, %r15
Ltmp161:
	addq	%rbx, %r14
Ltmp162:
	movq	-136(%rbp), %rdi
	.loc	8 121 16 is_stmt 1
	callq	__ZN4core3fmt9Formatter9alternate17hd77eec28e879e5edE
Ltmp163:
	testb	%al, %al
	movq	-144(%rbp), %r10
Ltmp164:
	je	LBB6_38
Ltmp165:
	.loc	8 121 33 is_stmt 0
	cmpq	$-1, %r10
	je	LBB6_220
Ltmp166:
	.loc	3 2326 12 is_stmt 1
	testq	%r15, %r15
Ltmp167:
	.loc	8 121 16
	je	LBB6_38
Ltmp168:
	.loc	8 0 16 is_stmt 0
	movq	-168(%rbp), %rax
	.loc	8 121 16
	cmpq	-184(%rbp), %rax
	jne	LBB6_38
Ltmp169:
	.loc	5 6276 13 is_stmt 1
	cmpb	$104, (%r13,%rbx)
Ltmp170:
	.loc	5 1436 9
	jne	LBB6_38
Ltmp171:
	.loc	5 0 9 is_stmt 0
	movq	%r12, -72(%rbp)
	movq	%r15, -64(%rbp)
Ltmp172:
	.loc	3 2070 18 is_stmt 1
	movq	$1, -48(%rbp)
	.loc	3 2070 25 is_stmt 0
	movq	%r15, -56(%rbp)
Ltmp173:
	.loc	3 2326 26 is_stmt 1
	cmpq	$1, %r15
	.loc	3 2326 12 is_stmt 0
	je	LBB6_43
Ltmp174:
	.loc	8 0 0
	leaq	1(%r13,%rbx), %rax
Ltmp175:
	.loc	3 2332 19 is_stmt 1
	movb	(%rax), %cl
Ltmp176:
	.loc	3 2332 25 is_stmt 0
	cmpb	$-65, %cl
Ltmp177:
	.loc	3 2033 13 is_stmt 1
	jle	LBB6_224
Ltmp178:
	.loc	3 0 13 is_stmt 0
	movq	%r15, %r8
Ltmp179:
	.loc	3 520 5 is_stmt 1
	negq	%r8
	movq	%r13, %r9
	negq	%r9
Ltmp180:
	.loc	3 520 8 is_stmt 0
	testb	%cl, %cl
	.loc	3 520 5
	js	LBB6_48
Ltmp181:
	.p2align	4, 0x90
LBB6_62:
	.loc	3 0 0
	incq	%rax
Ltmp182:
	.loc	3 521 21 is_stmt 1
	movzbl	%cl, %esi
	jmp	LBB6_63
Ltmp183:
	.p2align	4, 0x90
LBB6_48:
	.loc	3 0 0 is_stmt 0
	leaq	(%rax,%r8), %rdx
	leaq	1(%r9,%rdx), %rsi
Ltmp184:
	.loc	3 489 5 is_stmt 1
	movl	%ecx, %edx
	andb	$31, %dl
Ltmp185:
	.loc	5 3440 9
	cmpq	%rbx, %rsi
	.loc	5 3570 21
	je	LBB6_49
Ltmp186:
	.loc	3 508 15
	movzbl	1(%rax), %esi
Ltmp187:
	.loc	10 165 18
	addq	$2, %rax
Ltmp188:
	.loc	3 507 5
	andl	$63, %esi
Ltmp189:
	.loc	3 0 0 is_stmt 0
	movzbl	%dl, %edi
Ltmp190:
	.loc	3 530 8 is_stmt 1
	cmpb	$-33, %cl
	.loc	3 530 5 is_stmt 0
	jbe	LBB6_52
Ltmp191:
LBB6_53:
	.loc	3 0 0
	leaq	(%rax,%r8), %rdx
	addq	%r9, %rdx
Ltmp192:
	.loc	5 3440 9 is_stmt 1
	cmpq	%rbx, %rdx
	.loc	5 3570 21
	je	LBB6_54
Ltmp193:
	.loc	3 508 15
	movzbl	(%rax), %edx
Ltmp194:
	.loc	10 165 18
	incq	%rax
Ltmp195:
	.loc	3 507 5
	andl	$63, %edx
Ltmp196:
	.loc	3 495 5
	shll	$6, %esi
Ltmp197:
	orl	%edx, %esi
Ltmp198:
	.loc	3 536 12
	cmpb	$-16, %cl
	.loc	3 536 9 is_stmt 0
	jb	LBB6_57
Ltmp199:
LBB6_58:
	.loc	3 0 0
	leaq	(%rax,%r8), %rcx
Ltmp200:
	addq	%r9, %rcx
Ltmp201:
	.loc	5 3440 9 is_stmt 1
	cmpq	%rbx, %rcx
	.loc	5 3570 21
	je	LBB6_59
Ltmp202:
	.loc	3 508 15
	movzbl	(%rax), %ecx
Ltmp203:
	.loc	10 165 18
	incq	%rax
Ltmp204:
	.loc	3 507 5
	andl	$63, %ecx
	jmp	LBB6_61
Ltmp205:
	.p2align	4, 0x90
LBB6_49:
	.loc	3 0 5 is_stmt 0
	xorl	%esi, %esi
	movq	%r14, %rax
	movzbl	%dl, %edi
Ltmp206:
	.loc	3 530 8 is_stmt 1
	cmpb	$-33, %cl
	.loc	3 530 5 is_stmt 0
	ja	LBB6_53
Ltmp207:
LBB6_52:
	.loc	3 0 5
	shll	$6, %edi
Ltmp208:
	orl	%edi, %esi
Ltmp209:
	jmp	LBB6_63
Ltmp210:
LBB6_54:
	xorl	%edx, %edx
	movq	%r14, %rax
Ltmp211:
	.loc	3 495 5 is_stmt 1
	shll	$6, %esi
Ltmp212:
	orl	%edx, %esi
Ltmp213:
	.loc	3 536 12
	cmpb	$-16, %cl
	.loc	3 536 9 is_stmt 0
	jae	LBB6_58
Ltmp214:
LBB6_57:
	.loc	3 0 9
	shll	$12, %edi
Ltmp215:
	orl	%edi, %esi
Ltmp216:
	jmp	LBB6_63
Ltmp217:
LBB6_59:
	xorl	%ecx, %ecx
	movq	%r14, %rax
Ltmp218:
LBB6_61:
	.loc	3 540 18 is_stmt 1
	andl	$7, %edi
Ltmp219:
	shll	$18, %edi
Ltmp220:
	.loc	3 495 5
	shll	$6, %esi
Ltmp221:
	orl	%edi, %esi
Ltmp222:
	.loc	3 540 13
	orl	%ecx, %esi
Ltmp223:
	.file	14 "/rustc/6c8927b0cf80ceee19386026cf9d7fd4fd9d486f/src/libcore/iter/traits/iterator.rs"
	.loc	14 1869 19
	cmpl	$1114112, %esi
	je	LBB6_43
Ltmp224:
	.p2align	4, 0x90
LBB6_63:
	.loc	12 0 0 is_stmt 0
	leal	-48(%rsi), %ecx
	cmpl	$10, %ecx
	.loc	12 348 17 is_stmt 1
	jb	LBB6_67
Ltmp225:
	.loc	12 349 17
	leal	-97(%rsi), %edx
	movl	$-87, %ecx
	cmpl	$26, %edx
	jb	LBB6_66
Ltmp226:
	.loc	12 350 17
	leal	-65(%rsi), %edx
	movl	$-55, %ecx
	cmpl	$25, %edx
	ja	LBB6_38
Ltmp227:
LBB6_66:
	.loc	12 0 0 is_stmt 0
	addl	%ecx, %esi
Ltmp228:
	.loc	12 355 12 is_stmt 1
	cmpl	$15, %esi
Ltmp229:
	.loc	14 2092 17
	ja	LBB6_38
Ltmp230:
LBB6_67:
	.loc	14 0 0 is_stmt 0
	leaq	(%rax,%r8), %rcx
	addq	%r9, %rcx
Ltmp231:
	.loc	5 3440 9 is_stmt 1
	cmpq	%rbx, %rcx
	.loc	5 3570 21
	je	LBB6_43
Ltmp232:
	.loc	3 519 13
	movb	(%rax), %cl
Ltmp233:
	.loc	3 520 8
	testb	%cl, %cl
	jns	LBB6_62
	jmp	LBB6_48
Ltmp234:
	.p2align	4, 0x90
LBB6_38:
	.loc	8 124 16
	testq	%r10, %r10
	.loc	8 124 13 is_stmt 0
	je	LBB6_72
Ltmp235:
	.loc	8 125 22 is_stmt 1
	movl	$2, %edx
	movq	-136(%rbp), %rdi
	leaq	l___unnamed_8(%rip), %rsi
	callq	__ZN4core3fmt9Formatter9write_str17h98e119ad25a8903eE
Ltmp236:
	.loc	8 125 17 is_stmt 0
	testb	%al, %al
	jne	LBB6_40
Ltmp237:
LBB6_72:
	.loc	8 0 17
	movq	%r15, %rcx
Ltmp238:
	.loc	5 1436 9 is_stmt 1
	cmpq	$2, %r15
Ltmp239:
	jb	LBB6_77
Ltmp240:
	.loc	5 0 9 is_stmt 0
	leaq	l___unnamed_9(%rip), %rax
	subq	%r13, %rax
Ltmp241:
	.loc	6 331 9 is_stmt 1
	cmpq	%rbx, %rax
Ltmp242:
	.loc	5 6271 9
	je	LBB6_75
Ltmp243:
	.loc	5 6276 13
	movzwl	(%r13,%rbx), %eax
	cmpl	$9311, %eax
Ltmp244:
	.loc	5 1436 9
	jne	LBB6_77
Ltmp245:
LBB6_75:
	.loc	5 0 9 is_stmt 0
	movq	%r12, -72(%rbp)
	movq	%rcx, -64(%rbp)
Ltmp246:
	.loc	3 2070 18 is_stmt 1
	movq	$1, -48(%rbp)
	.loc	3 2070 25 is_stmt 0
	movq	%rcx, -56(%rbp)
Ltmp247:
	.loc	3 2332 25 is_stmt 1
	cmpb	$-65, 1(%r12)
Ltmp248:
	.loc	3 2033 13
	jle	LBB6_224
Ltmp249:
	.loc	3 2057 23
	decq	%rcx
Ltmp250:
	.loc	3 2072 9
	leaq	1(%r13,%rbx), %r12
Ltmp251:
LBB6_77:
	.loc	3 0 9 is_stmt 0
	movq	%r14, -160(%rbp)
Ltmp252:
LBB6_78:
	movq	%rcx, %r13
Ltmp253:
	.loc	5 1436 9 is_stmt 1
	testq	%rcx, %rcx
	je	LBB6_81
Ltmp254:
	.loc	5 6276 13
	cmpb	$46, (%r12)
Ltmp255:
	.loc	5 1436 9
	jne	LBB6_80
Ltmp256:
	.loc	5 0 9 is_stmt 0
	movq	%r12, -72(%rbp)
	movq	%r13, -64(%rbp)
Ltmp257:
	.loc	3 2070 18 is_stmt 1
	movq	$1, -48(%rbp)
	.loc	3 2070 25 is_stmt 0
	movq	%r13, -56(%rbp)
Ltmp258:
	.loc	3 2326 26 is_stmt 1
	cmpq	$1, %r13
	.loc	3 2326 12 is_stmt 0
	je	LBB6_88
Ltmp259:
	.loc	3 2332 25 is_stmt 1
	cmpb	$-65, 1(%r12)
Ltmp260:
	.loc	3 2033 13
	jle	LBB6_224
Ltmp261:
LBB6_88:
	.loc	3 2326 26
	cmpq	$1, %r13
Ltmp262:
	.loc	5 3570 21
	je	LBB6_106
Ltmp263:
	.loc	3 519 13
	movzbl	1(%r12), %ecx
Ltmp264:
	.loc	3 520 8
	testb	%cl, %cl
	.loc	3 520 5 is_stmt 0
	js	LBB6_90
Ltmp265:
	.loc	8 132 33 is_stmt 1
	cmpl	$46, %ecx
	.loc	8 132 28 is_stmt 0
	jne	LBB6_106
Ltmp266:
LBB6_110:
	.loc	8 133 30 is_stmt 1
	movl	$2, %edx
	movq	-136(%rbp), %rdi
	leaq	l___unnamed_8(%rip), %rsi
	callq	__ZN4core3fmt9Formatter9write_str17h98e119ad25a8903eE
	.loc	8 133 25 is_stmt 0
	testb	%al, %al
	jne	LBB6_40
Ltmp267:
	.loc	8 0 25
	movq	%r12, -72(%rbp)
	addq	$2, %r12
Ltmp268:
	movq	%r13, -64(%rbp)
Ltmp269:
	.loc	3 2070 18 is_stmt 1
	movq	$2, -48(%rbp)
	.loc	3 2070 25 is_stmt 0
	movq	%r13, -56(%rbp)
Ltmp270:
	.loc	3 2326 26 is_stmt 1
	cmpq	$2, %r13
	.loc	3 2326 12 is_stmt 0
	je	LBB6_113
Ltmp271:
	.loc	3 2332 25 is_stmt 1
	cmpb	$-65, (%r12)
Ltmp272:
	.loc	3 2033 13
	jle	LBB6_224
Ltmp273:
LBB6_113:
	.loc	3 2057 23
	addq	$-2, %r13
Ltmp274:
	.loc	8 0 0 is_stmt 0
	movq	%r13, %rcx
Ltmp275:
	jmp	LBB6_78
Ltmp276:
	.p2align	4, 0x90
LBB6_80:
	.loc	5 6276 13 is_stmt 1
	cmpb	$36, (%r12)
Ltmp277:
	.loc	5 1436 9
	jne	LBB6_81
Ltmp278:
	.loc	5 0 9 is_stmt 0
	movq	%r12, -72(%rbp)
	movq	%r13, -64(%rbp)
Ltmp279:
	.loc	3 2070 18 is_stmt 1
	movq	$1, -48(%rbp)
	.loc	3 2070 25 is_stmt 0
	movq	%r13, -56(%rbp)
Ltmp280:
	.loc	3 2326 26 is_stmt 1
	cmpq	$1, %r13
	.loc	3 2326 12 is_stmt 0
	je	LBB6_135
Ltmp281:
	.loc	3 2332 25 is_stmt 1
	cmpb	$-65, 1(%r12)
Ltmp282:
	.loc	3 2033 13
	jle	LBB6_224
Ltmp283:
LBB6_135:
	.loc	6 164 18
	leaq	1(%r12), %rsi
	movq	%r13, -144(%rbp)
Ltmp284:
	.loc	3 2057 23
	leaq	-1(%r13), %rdx
Ltmp285:
	.loc	4 538 9
	movq	%rsi, -128(%rbp)
	movq	%rdx, -120(%rbp)
	movq	$0, -112(%rbp)
	movq	%rdx, -104(%rbp)
	movabsq	$154618822692, %rax
	movq	%rax, -88(%rbp)
	movq	$1, -96(%rbp)
Ltmp286:
	.loc	4 410 34
	movl	$36, %edi
	movq	%rsi, -80(%rbp)
Ltmp287:
	callq	__ZN4core5slice6memchr6memchr17hd650620a8925ad84E
Ltmp288:
	.loc	4 410 20 is_stmt 0
	cmpq	$1, %rax
	jne	LBB6_137
Ltmp289:
	.p2align	4, 0x90
LBB6_140:
	.loc	4 428 17 is_stmt 1
	movq	-112(%rbp), %rax
	.loc	4 429 35
	movq	-96(%rbp), %r14
	.loc	4 428 17
	leaq	1(%rdx,%rax), %rbx
	movq	%rbx, -112(%rbp)
	.loc	4 429 20
	movq	%rbx, %r15
	subq	%r14, %r15
	.loc	4 429 17 is_stmt 0
	jae	LBB6_142
Ltmp290:
	.loc	4 406 25 is_stmt 1
	movq	-120(%rbp), %r13
	jmp	LBB6_146
Ltmp291:
	.p2align	4, 0x90
LBB6_142:
	.loc	4 431 42
	movq	-120(%rbp), %r13
Ltmp292:
	.loc	5 3132 37
	cmpq	%rbx, %r13
Ltmp293:
	.loc	4 431 28
	jb	LBB6_146
Ltmp294:
	.loc	5 3169 19
	cmpq	$5, %r14
	.loc	5 3169 16 is_stmt 0
	jae	LBB6_227
Ltmp295:
	.loc	5 0 16
	movq	-128(%rbp), %rdi
	addq	%r15, %rdi
Ltmp296:
	.loc	6 331 9 is_stmt 1
	leaq	-84(%rbp), %rax
Ltmp297:
	cmpq	%rax, %rdi
Ltmp298:
	.loc	5 6271 9
	je	LBB6_221
Ltmp299:
	.loc	5 6276 13
	leaq	-84(%rbp), %rsi
Ltmp300:
	movq	%r14, %rdx
Ltmp301:
	callq	_memcmp
Ltmp302:
	testl	%eax, %eax
Ltmp303:
	.loc	4 432 25
	je	LBB6_221
Ltmp304:
LBB6_146:
	.loc	4 406 67
	movq	-104(%rbp), %rax
Ltmp305:
	.loc	5 3132 12
	movq	%rax, %rdx
	subq	%rbx, %rdx
Ltmp306:
	.loc	4 406 84
	jb	LBB6_138
Ltmp307:
	cmpq	%rax, %r13
	jb	LBB6_138
Ltmp308:
	.loc	5 3132 12
	addq	-128(%rbp), %rbx
Ltmp309:
	.loc	4 410 34
	leaq	-128(%rbp), %rax
Ltmp310:
	movzbl	43(%r14,%rax), %edi
	movq	%rbx, %rsi
	callq	__ZN4core5slice6memchr6memchr17hd650620a8925ad84E
Ltmp311:
	.loc	4 410 20 is_stmt 0
	cmpq	$1, %rax
	je	LBB6_140
	jmp	LBB6_137
Ltmp312:
	.p2align	4, 0x90
LBB6_81:
	.loc	6 164 18 is_stmt 1
	leaq	(%r12,%r13), %r8
Ltmp313:
	.loc	3 0 0 is_stmt 0
	xorl	%eax, %eax
Ltmp314:
	.loc	5 3450 21 is_stmt 1
	movq	%r12, %rcx
Ltmp315:
	.p2align	4, 0x90
LBB6_82:
	.loc	5 3440 9
	cmpq	%rcx, %r8
	.loc	5 3570 21
	je	LBB6_139
Ltmp316:
	.loc	3 0 0 is_stmt 0
	movq	%rax, %rbx
Ltmp317:
	.loc	10 165 18 is_stmt 1
	leaq	1(%rcx), %rdx
Ltmp318:
	.loc	3 519 13
	movzbl	(%rcx), %edi
Ltmp319:
	.loc	3 520 8
	testb	%dil, %dil
Ltmp320:
	.loc	3 520 5 is_stmt 0
	jns	LBB6_127
Ltmp321:
	.loc	5 3440 9 is_stmt 1
	cmpq	%r8, %rdx
Ltmp322:
	.loc	5 3570 21
	je	LBB6_85
Ltmp323:
	.loc	10 165 18
	leaq	2(%rcx), %rdx
Ltmp324:
	.loc	3 508 15
	movzbl	1(%rcx), %esi
	.loc	3 507 5
	andl	$63, %esi
	movq	%rdx, %r9
	movl	%edi, %eax
	andl	$31, %eax
Ltmp325:
	.loc	3 530 8
	cmpb	$-33, %dil
	.loc	3 530 5 is_stmt 0
	jbe	LBB6_116
Ltmp326:
LBB6_118:
	.loc	5 3440 9 is_stmt 1
	cmpq	%r8, %r9
	.loc	5 3570 21
	je	LBB6_119
Ltmp327:
	.loc	3 508 15
	movzbl	(%r9), %r10d
Ltmp328:
	.loc	10 165 18
	incq	%r9
Ltmp329:
	.loc	3 507 5
	andl	$63, %r10d
	movq	%r9, %rdx
Ltmp330:
	.loc	3 495 5
	shll	$6, %esi
Ltmp331:
	orl	%r10d, %esi
Ltmp332:
	.loc	3 536 12
	cmpb	$-16, %dil
	.loc	3 536 9 is_stmt 0
	jb	LBB6_122
Ltmp333:
LBB6_123:
	.loc	5 3440 9 is_stmt 1
	cmpq	%r8, %r9
	.loc	5 3570 21
	je	LBB6_124
Ltmp334:
	.loc	3 508 15
	movzbl	(%r9), %edi
Ltmp335:
	.loc	10 165 18
	incq	%r9
Ltmp336:
	.loc	3 507 5
	andl	$63, %edi
	movq	%r9, %rdx
Ltmp337:
	.loc	3 0 5 is_stmt 0
	jmp	LBB6_126
Ltmp338:
LBB6_85:
	xorl	%esi, %esi
	movq	%r8, %r9
	movl	%edi, %eax
	andl	$31, %eax
Ltmp339:
	.loc	3 530 8 is_stmt 1
	cmpb	$-33, %dil
	.loc	3 530 5 is_stmt 0
	ja	LBB6_118
Ltmp340:
LBB6_116:
	.loc	3 0 5
	shll	$6, %eax
Ltmp341:
	jmp	LBB6_117
Ltmp342:
LBB6_119:
	xorl	%r10d, %r10d
	movq	%r8, %r9
Ltmp343:
	.loc	3 495 5 is_stmt 1
	shll	$6, %esi
Ltmp344:
	orl	%r10d, %esi
Ltmp345:
	.loc	3 536 12
	cmpb	$-16, %dil
	.loc	3 536 9 is_stmt 0
	jae	LBB6_123
Ltmp346:
LBB6_122:
	.loc	3 0 9
	shll	$12, %eax
Ltmp347:
LBB6_117:
	orl	%eax, %esi
Ltmp348:
	movl	%esi, %edi
Ltmp349:
	jmp	LBB6_127
Ltmp350:
LBB6_124:
	xorl	%edi, %edi
Ltmp351:
LBB6_126:
	.loc	3 540 18 is_stmt 1
	andl	$7, %eax
Ltmp352:
	shll	$18, %eax
Ltmp353:
	.loc	3 495 5
	shll	$6, %esi
Ltmp354:
	orl	%eax, %esi
Ltmp355:
	.loc	3 540 13
	orl	%edi, %esi
Ltmp356:
	.loc	3 0 13 is_stmt 0
	movl	%esi, %edi
Ltmp357:
	.loc	3 690 13 is_stmt 1
	cmpl	$1114112, %esi
Ltmp358:
	je	LBB6_139
Ltmp359:
	.p2align	4, 0x90
LBB6_127:
	.loc	8 180 55
	cmpl	$36, %edi
	je	LBB6_129
Ltmp360:
	.loc	4 0 0 is_stmt 0
	movq	%rbx, %rax
	subq	%rcx, %rax
	addq	%rdx, %rax
Ltmp361:
	.loc	5 3450 21 is_stmt 1
	movq	%rdx, %rcx
Ltmp362:
	.loc	8 180 55
	cmpl	$46, %edi
	jne	LBB6_82
Ltmp363:
LBB6_129:
	.loc	8 0 55 is_stmt 0
	movq	%r12, -128(%rbp)
	movq	%r13, -120(%rbp)
Ltmp364:
	.loc	3 2326 12 is_stmt 1
	testq	%rbx, %rbx
	sete	%al
	.loc	3 2326 26 is_stmt 0
	movq	%r13, %r14
	subq	%rbx, %r14
	sete	%r15b
	.loc	3 2326 12
	orb	%al, %r15b
	jne	LBB6_214
Ltmp365:
	.loc	5 3090 12 is_stmt 1
	cmpq	%rbx, %r13
Ltmp366:
	.loc	3 2330 13
	jbe	LBB6_132
Ltmp367:
	.loc	3 2332 25
	cmpb	$-65, (%r12,%rbx)
Ltmp368:
	.loc	3 1965 13
	jle	LBB6_132
Ltmp369:
LBB6_214:
	.loc	3 0 13 is_stmt 0
	movq	-136(%rbp), %rdi
	.loc	8 181 26 is_stmt 1
	movq	%r12, %rsi
	movq	%rbx, %rdx
	callq	__ZN4core3fmt9Formatter9write_str17h98e119ad25a8903eE
	.loc	8 181 21 is_stmt 0
	testb	%al, %al
	jne	LBB6_40
Ltmp370:
	.loc	8 0 21
	movq	%r12, -72(%rbp)
	movq	%r13, -64(%rbp)
Ltmp371:
	.loc	3 2070 18 is_stmt 1
	movq	%rbx, -48(%rbp)
	.loc	3 2070 25 is_stmt 0
	movq	%r13, -56(%rbp)
Ltmp372:
	.loc	3 2326 12 is_stmt 1
	testb	%r15b, %r15b
	jne	LBB6_218
Ltmp373:
	.loc	5 3090 12
	cmpq	%rbx, %r13
Ltmp374:
	.loc	3 2330 13
	jbe	LBB6_224
Ltmp375:
	.loc	3 2332 25
	cmpb	$-65, (%r12,%rbx)
Ltmp376:
	.loc	3 2033 13
	jle	LBB6_224
Ltmp377:
LBB6_218:
	.loc	6 164 18
	addq	%rbx, %r12
Ltmp378:
	.loc	6 0 18 is_stmt 0
	movq	%r14, %rcx
Ltmp379:
	movq	-160(%rbp), %r14
	jmp	LBB6_78
Ltmp380:
LBB6_90:
	leaq	(%r12,%r13), %rsi
Ltmp381:
	xorl	%eax, %eax
Ltmp382:
	movq	%rsi, %rdi
Ltmp383:
	.loc	5 3440 9 is_stmt 1
	cmpq	$2, %r13
Ltmp384:
	.loc	5 3570 21
	je	LBB6_92
Ltmp385:
	.loc	10 165 18
	leaq	3(%r12), %rdi
Ltmp386:
	.loc	3 508 15
	movzbl	2(%r12), %eax
	.loc	3 507 5
	andl	$63, %eax
Ltmp387:
LBB6_92:
	.loc	3 0 5 is_stmt 0
	movl	%ecx, %edx
	andl	$31, %edx
Ltmp388:
	.loc	3 530 8 is_stmt 1
	cmpb	$-33, %cl
	.loc	3 530 5 is_stmt 0
	jbe	LBB6_93
Ltmp389:
	.loc	5 3440 9 is_stmt 1
	cmpq	%rsi, %rdi
	.loc	5 3570 21
	je	LBB6_96
Ltmp390:
	.loc	3 508 15
	movzbl	(%rdi), %ebx
Ltmp391:
	.loc	10 165 18
	incq	%rdi
Ltmp392:
	.loc	3 507 5
	andl	$63, %ebx
Ltmp393:
	.loc	3 495 5
	shll	$6, %eax
Ltmp394:
	orl	%ebx, %eax
Ltmp395:
	.loc	3 536 12
	cmpb	$-16, %cl
	.loc	3 536 9 is_stmt 0
	jb	LBB6_99
Ltmp396:
LBB6_100:
	.loc	5 3440 9 is_stmt 1
	cmpq	%rsi, %rdi
	.loc	5 3570 21
	je	LBB6_101
Ltmp397:
	.loc	3 508 15
	movzbl	(%rdi), %ecx
Ltmp398:
	.loc	3 507 5
	andl	$63, %ecx
	jmp	LBB6_103
Ltmp399:
LBB6_221:
	.loc	8 141 35
	movq	%r15, %r9
	incq	%r9
	je	LBB6_222
Ltmp400:
	.loc	8 0 35 is_stmt 0
	movq	%r12, -72(%rbp)
	movq	-144(%rbp), %r13
	movq	%r13, -64(%rbp)
Ltmp401:
	.loc	3 1925 18 is_stmt 1
	movq	$1, -48(%rbp)
	.loc	3 1925 25 is_stmt 0
	movq	%r9, -56(%rbp)
Ltmp402:
	.loc	3 2326 26 is_stmt 1
	cmpq	$1, %r13
	movq	-160(%rbp), %r14
	movq	-80(%rbp), %rdi
Ltmp403:
	.loc	3 2326 12 is_stmt 0
	je	LBB6_149
Ltmp404:
	.loc	3 2332 25 is_stmt 1
	cmpb	$-65, (%rdi)
Ltmp405:
	.loc	3 1881 16
	jle	LBB6_176
Ltmp406:
LBB6_149:
	.loc	3 2326 26
	cmpq	%r9, %r13
	.loc	3 2326 12 is_stmt 0
	je	LBB6_152
Ltmp407:
	.loc	3 2330 13 is_stmt 1
	jbe	LBB6_176
Ltmp408:
	.loc	3 2332 25
	cmpb	$-65, (%r12,%r9)
Ltmp409:
	.loc	3 1881 16
	jle	LBB6_176
Ltmp410:
LBB6_152:
	.loc	8 141 51
	addq	$2, %r15
	jb	LBB6_223
Ltmp411:
	.loc	8 0 51 is_stmt 0
	movq	%r12, -72(%rbp)
	movq	%r13, -64(%rbp)
Ltmp412:
	.loc	3 2070 18 is_stmt 1
	movq	%r15, -48(%rbp)
	.loc	3 2070 25 is_stmt 0
	movq	%r13, -56(%rbp)
Ltmp413:
	.loc	3 2326 12 is_stmt 1
	testq	%r15, %r15
	je	LBB6_157
Ltmp414:
	cmpq	%r15, %r13
	je	LBB6_157
Ltmp415:
	.loc	3 2330 13
	jbe	LBB6_224
Ltmp416:
	.loc	3 2332 25
	cmpb	$-65, (%r12,%r15)
Ltmp417:
	.loc	3 2033 13
	jle	LBB6_224
Ltmp418:
LBB6_157:
	.loc	8 0 0 is_stmt 0
	leaq	-1(%r9), %rdx
Ltmp419:
	.loc	6 164 18 is_stmt 1
	leaq	(%r12,%r15), %rbx
Ltmp420:
	.loc	3 2057 23
	movq	%r13, %rax
	subq	%r15, %rax
Ltmp421:
	.loc	5 6265 9
	cmpq	$2, %r9
	movq	%rax, -176(%rbp)
Ltmp422:
	je	LBB6_177
Ltmp423:
	cmpq	$3, %r9
	jne	LBB6_180
Ltmp424:
	.loc	8 0 0 is_stmt 0
	leaq	l___unnamed_10(%rip), %rsi
Ltmp425:
	.loc	6 331 9 is_stmt 1
	leaq	l___unnamed_11(%rip), %rax
Ltmp426:
	cmpq	%rax, %rdi
Ltmp427:
	.loc	5 6271 9
	je	LBB6_179
Ltmp428:
	.loc	5 0 9 is_stmt 0
	movq	-80(%rbp), %rdi
Ltmp429:
	.loc	5 6276 13 is_stmt 1
	leaq	l___unnamed_11(%rip), %rsi
Ltmp430:
	.loc	5 0 13 is_stmt 0
	movq	%r9, -152(%rbp)
	movq	%rdx, %r15
Ltmp431:
	.loc	5 6276 13
	callq	_memcmp
Ltmp432:
	.loc	5 0 13
	movq	-80(%rbp), %rcx
Ltmp433:
	leaq	l___unnamed_10(%rip), %rsi
Ltmp434:
	.loc	5 6276 13
	testl	%eax, %eax
Ltmp435:
	.loc	8 148 25 is_stmt 1
	je	LBB6_179
Ltmp436:
	.loc	8 0 0 is_stmt 0
	leaq	l___unnamed_12(%rip), %rsi
Ltmp437:
	.loc	6 331 9 is_stmt 1
	leaq	l___unnamed_13(%rip), %rax
Ltmp438:
	cmpq	%rax, %rcx
Ltmp439:
	.loc	5 6271 9
	je	LBB6_179
Ltmp440:
	.loc	5 0 9 is_stmt 0
	movq	%r15, %rdx
Ltmp441:
	movq	-80(%rbp), %rdi
Ltmp442:
	.loc	5 6276 13 is_stmt 1
	leaq	l___unnamed_13(%rip), %rsi
Ltmp443:
	callq	_memcmp
Ltmp444:
	.loc	5 0 13 is_stmt 0
	movq	-80(%rbp), %rcx
Ltmp445:
	leaq	l___unnamed_12(%rip), %rsi
Ltmp446:
	.loc	5 6276 13
	testl	%eax, %eax
Ltmp447:
	.loc	8 149 25 is_stmt 1
	je	LBB6_179
Ltmp448:
	.loc	8 0 0 is_stmt 0
	leaq	l___unnamed_14(%rip), %rsi
Ltmp449:
	.loc	6 331 9 is_stmt 1
	leaq	l___unnamed_15(%rip), %rax
Ltmp450:
	cmpq	%rax, %rcx
Ltmp451:
	.loc	5 6271 9
	je	LBB6_179
Ltmp452:
	.loc	5 0 9 is_stmt 0
	movq	%r15, %rdx
Ltmp453:
	movq	-80(%rbp), %rdi
Ltmp454:
	.loc	5 6276 13 is_stmt 1
	leaq	l___unnamed_15(%rip), %rsi
Ltmp455:
	callq	_memcmp
Ltmp456:
	.loc	5 0 13 is_stmt 0
	movq	-80(%rbp), %rcx
Ltmp457:
	leaq	l___unnamed_14(%rip), %rsi
Ltmp458:
	.loc	5 6276 13
	testl	%eax, %eax
Ltmp459:
	.loc	8 150 25 is_stmt 1
	je	LBB6_179
Ltmp460:
	.loc	8 0 0 is_stmt 0
	leaq	l___unnamed_16(%rip), %rsi
Ltmp461:
	.loc	6 331 9 is_stmt 1
	leaq	l___unnamed_17(%rip), %rax
Ltmp462:
	cmpq	%rax, %rcx
Ltmp463:
	.loc	5 6271 9
	je	LBB6_179
Ltmp464:
	.loc	5 0 9 is_stmt 0
	movq	%r15, %rdx
Ltmp465:
	movq	-80(%rbp), %rdi
Ltmp466:
	.loc	5 6276 13 is_stmt 1
	leaq	l___unnamed_17(%rip), %rsi
Ltmp467:
	callq	_memcmp
Ltmp468:
	.loc	5 0 13 is_stmt 0
	movq	-80(%rbp), %rcx
Ltmp469:
	leaq	l___unnamed_16(%rip), %rsi
Ltmp470:
	.loc	5 6276 13
	testl	%eax, %eax
Ltmp471:
	.loc	8 151 25 is_stmt 1
	je	LBB6_179
Ltmp472:
	.loc	8 0 0 is_stmt 0
	leaq	l___unnamed_18(%rip), %rsi
Ltmp473:
	.loc	6 331 9 is_stmt 1
	leaq	l___unnamed_19(%rip), %rax
Ltmp474:
	cmpq	%rax, %rcx
Ltmp475:
	.loc	5 6271 9
	je	LBB6_179
Ltmp476:
	.loc	5 0 9 is_stmt 0
	movq	%r15, %rdx
Ltmp477:
	movq	-80(%rbp), %rdi
Ltmp478:
	.loc	5 6276 13 is_stmt 1
	leaq	l___unnamed_19(%rip), %rsi
Ltmp479:
	callq	_memcmp
Ltmp480:
	.loc	5 0 13 is_stmt 0
	movq	-80(%rbp), %rcx
Ltmp481:
	leaq	l___unnamed_18(%rip), %rsi
Ltmp482:
	.loc	5 6276 13
	testl	%eax, %eax
Ltmp483:
	.loc	8 152 25 is_stmt 1
	je	LBB6_179
Ltmp484:
	.loc	8 0 0 is_stmt 0
	leaq	l___unnamed_20(%rip), %rsi
Ltmp485:
	.loc	6 331 9 is_stmt 1
	leaq	l___unnamed_21(%rip), %rax
Ltmp486:
	cmpq	%rax, %rcx
Ltmp487:
	.loc	5 6271 9
	je	LBB6_179
Ltmp488:
	.loc	5 0 9 is_stmt 0
	movq	%r15, %rdx
Ltmp489:
	movq	-80(%rbp), %rdi
Ltmp490:
	.loc	5 6276 13 is_stmt 1
	leaq	l___unnamed_21(%rip), %rsi
Ltmp491:
	callq	_memcmp
Ltmp492:
	.loc	5 0 13 is_stmt 0
	movq	-80(%rbp), %rcx
Ltmp493:
	leaq	l___unnamed_20(%rip), %rsi
Ltmp494:
	.loc	5 6276 13
	testl	%eax, %eax
Ltmp495:
	.loc	8 153 25 is_stmt 1
	je	LBB6_179
Ltmp496:
	.loc	8 0 0 is_stmt 0
	leaq	l___unnamed_22(%rip), %rsi
Ltmp497:
	.loc	6 331 9 is_stmt 1
	leaq	l___unnamed_23(%rip), %rax
Ltmp498:
	cmpq	%rax, %rcx
Ltmp499:
	.loc	5 6271 9
	je	LBB6_179
Ltmp500:
	.loc	5 0 9 is_stmt 0
	movq	%r15, %rdx
Ltmp501:
	movq	-80(%rbp), %rdi
Ltmp502:
	.loc	5 6276 13 is_stmt 1
	leaq	l___unnamed_23(%rip), %rsi
Ltmp503:
	callq	_memcmp
Ltmp504:
	.loc	5 0 13 is_stmt 0
	movq	-80(%rbp), %rdi
Ltmp505:
	movq	-152(%rbp), %r9
Ltmp506:
	leaq	l___unnamed_22(%rip), %rsi
Ltmp507:
	.loc	5 6276 13
	testl	%eax, %eax
Ltmp508:
	.loc	8 154 25 is_stmt 1
	je	LBB6_179
Ltmp509:
	.loc	8 0 25 is_stmt 0
	movq	%r15, %rdx
Ltmp510:
	jmp	LBB6_181
Ltmp511:
LBB6_93:
	shll	$6, %edx
Ltmp512:
	orl	%edx, %eax
Ltmp513:
	movl	%eax, %ecx
Ltmp514:
	.loc	8 132 33 is_stmt 1
	cmpl	$46, %ecx
	.loc	8 132 28 is_stmt 0
	je	LBB6_110
	jmp	LBB6_106
Ltmp515:
LBB6_96:
	.loc	8 0 28
	xorl	%ebx, %ebx
	movq	%rsi, %rdi
Ltmp516:
	.loc	3 495 5 is_stmt 1
	shll	$6, %eax
Ltmp517:
	orl	%ebx, %eax
Ltmp518:
	.loc	3 536 12
	cmpb	$-16, %cl
	.loc	3 536 9 is_stmt 0
	jae	LBB6_100
Ltmp519:
LBB6_99:
	.loc	3 0 9
	shll	$12, %edx
Ltmp520:
	orl	%edx, %eax
Ltmp521:
	movl	%eax, %ecx
Ltmp522:
	.loc	8 132 33 is_stmt 1
	cmpl	$46, %ecx
	.loc	8 132 28 is_stmt 0
	je	LBB6_110
	jmp	LBB6_106
Ltmp523:
LBB6_177:
	.loc	8 0 0
	leaq	l___unnamed_24(%rip), %rsi
Ltmp524:
	.loc	6 331 9 is_stmt 1
	leaq	l___unnamed_25(%rip), %rax
Ltmp525:
	cmpq	%rax, %rdi
Ltmp526:
	.loc	5 6271 9
	je	LBB6_179
Ltmp527:
	.loc	5 0 9 is_stmt 0
	movq	-80(%rbp), %rdi
Ltmp528:
	.loc	5 6276 13 is_stmt 1
	leaq	l___unnamed_25(%rip), %rsi
Ltmp529:
	.loc	5 0 13 is_stmt 0
	movq	%rbx, -152(%rbp)
Ltmp530:
	movq	%r9, %rbx
	movq	%rdx, %r15
Ltmp531:
	.loc	5 6276 13
	callq	_memcmp
Ltmp532:
	.loc	5 0 13
	movq	%r15, %rdx
Ltmp533:
	movq	-80(%rbp), %rdi
Ltmp534:
	movq	%rbx, %r9
	movq	-152(%rbp), %rbx
Ltmp535:
	movb	$1, %cl
Ltmp536:
	leaq	l___unnamed_24(%rip), %rsi
Ltmp537:
	.loc	5 6276 13
	testl	%eax, %eax
Ltmp538:
	.loc	8 155 25 is_stmt 1
	jne	LBB6_182
Ltmp539:
LBB6_179:
	.loc	8 178 26
	movl	$1, %edx
	movq	-136(%rbp), %rdi
	callq	__ZN4core3fmt9Formatter9write_str17h98e119ad25a8903eE
Ltmp540:
	.loc	8 0 0 is_stmt 0
	movq	%rbx, %r12
Ltmp541:
	testb	%al, %al
Ltmp542:
	movq	-176(%rbp), %rcx
Ltmp543:
	je	LBB6_78
	jmp	LBB6_40
Ltmp544:
LBB6_180:
	.loc	5 1436 9 is_stmt 1
	testq	%rdx, %rdx
	je	LBB6_139
Ltmp545:
LBB6_181:
	.loc	5 0 9 is_stmt 0
	xorl	%ecx, %ecx
Ltmp546:
LBB6_182:
	.loc	5 6276 13 is_stmt 1
	cmpb	$117, (%rdi)
Ltmp547:
	.loc	5 1436 9
	jne	LBB6_139
Ltmp548:
	.loc	5 0 9 is_stmt 0
	movq	%rbx, %r15
Ltmp549:
	movq	%rdi, -72(%rbp)
	movq	%rdx, -64(%rbp)
Ltmp550:
	.loc	3 2070 18 is_stmt 1
	movq	$1, -48(%rbp)
	.loc	3 2070 25 is_stmt 0
	movq	%rdx, -56(%rbp)
Ltmp551:
	.loc	3 2326 12 is_stmt 1
	testb	%cl, %cl
	jne	LBB6_186
Ltmp552:
	.loc	5 3090 12
	cmpq	$2, %rdx
Ltmp553:
	.loc	3 2330 13
	jb	LBB6_224
Ltmp554:
	.loc	3 2332 25
	cmpb	$-65, 2(%r12)
Ltmp555:
	.loc	3 2033 13
	jle	LBB6_224
Ltmp556:
LBB6_186:
	.loc	6 164 18
	leaq	2(%r12), %rdi
Ltmp557:
	.loc	6 164 18 is_stmt 0
	leaq	(%r12,%r9), %r8
Ltmp558:
	.loc	3 2057 23 is_stmt 1
	addq	$-2, %r9
Ltmp559:
	.loc	5 3440 9
	movq	%rdi, %rcx
Ltmp560:
	.p2align	4, 0x90
LBB6_187:
	cmpq	%r8, %rcx
	.loc	5 3570 21
	je	LBB6_208
Ltmp561:
	.loc	10 165 18
	leaq	1(%rcx), %rax
Ltmp562:
	.loc	3 519 13
	movzbl	(%rcx), %esi
Ltmp563:
	.loc	3 520 8
	testb	%sil, %sil
	.loc	3 520 5 is_stmt 0
	js	LBB6_193
Ltmp564:
	.loc	3 0 5
	movq	%rax, %rcx
Ltmp565:
	jmp	LBB6_190
Ltmp566:
	.p2align	4, 0x90
LBB6_193:
	.loc	5 3440 9 is_stmt 1
	cmpq	%r8, %rax
Ltmp567:
	.loc	5 3570 21
	je	LBB6_194
Ltmp568:
	.loc	3 508 15
	movzbl	1(%rcx), %edx
Ltmp569:
	.loc	10 165 18
	addq	$2, %rcx
Ltmp570:
	.loc	3 507 5
	andl	$63, %edx
	movl	%esi, %ebx
	andl	$31, %ebx
Ltmp571:
	.loc	3 530 8
	cmpb	$-33, %sil
	.loc	3 530 5 is_stmt 0
	jbe	LBB6_197
Ltmp572:
LBB6_199:
	.loc	5 3440 9 is_stmt 1
	cmpq	%r8, %rcx
	.loc	5 3570 21
	je	LBB6_200
Ltmp573:
	.loc	3 508 15
	movzbl	(%rcx), %eax
Ltmp574:
	.loc	10 165 18
	incq	%rcx
Ltmp575:
	.loc	3 507 5
	andl	$63, %eax
Ltmp576:
	.loc	3 495 5
	shll	$6, %edx
Ltmp577:
	orl	%eax, %edx
Ltmp578:
	.loc	3 536 12
	cmpb	$-16, %sil
	.loc	3 536 9 is_stmt 0
	jb	LBB6_203
Ltmp579:
LBB6_204:
	.loc	5 3440 9 is_stmt 1
	cmpq	%r8, %rcx
	.loc	5 3570 21
	je	LBB6_205
Ltmp580:
	.loc	3 508 15
	movzbl	(%rcx), %esi
Ltmp581:
	.loc	10 165 18
	incq	%rcx
Ltmp582:
	.loc	3 507 5
	andl	$63, %esi
	jmp	LBB6_207
Ltmp583:
LBB6_194:
	.loc	3 0 5 is_stmt 0
	xorl	%edx, %edx
	movq	%r8, %rcx
	movl	%esi, %ebx
	andl	$31, %ebx
Ltmp584:
	.loc	3 530 8 is_stmt 1
	cmpb	$-33, %sil
	.loc	3 530 5 is_stmt 0
	ja	LBB6_199
Ltmp585:
LBB6_197:
	.loc	3 0 5
	shll	$6, %ebx
Ltmp586:
	jmp	LBB6_198
Ltmp587:
LBB6_200:
	xorl	%eax, %eax
	movq	%r8, %rcx
Ltmp588:
	.loc	3 495 5 is_stmt 1
	shll	$6, %edx
Ltmp589:
	orl	%eax, %edx
Ltmp590:
	.loc	3 536 12
	cmpb	$-16, %sil
	.loc	3 536 9 is_stmt 0
	jae	LBB6_204
Ltmp591:
LBB6_203:
	.loc	3 0 9
	shll	$12, %ebx
Ltmp592:
LBB6_198:
	orl	%ebx, %edx
Ltmp593:
	movl	%edx, %esi
Ltmp594:
	jmp	LBB6_190
Ltmp595:
LBB6_205:
	xorl	%esi, %esi
Ltmp596:
	movq	%r8, %rcx
Ltmp597:
LBB6_207:
	.loc	3 540 18 is_stmt 1
	andl	$7, %ebx
Ltmp598:
	shll	$18, %ebx
Ltmp599:
	.loc	3 495 5
	shll	$6, %edx
Ltmp600:
	orl	%ebx, %edx
Ltmp601:
	.loc	3 540 13
	orl	%esi, %edx
Ltmp602:
	.loc	3 0 13 is_stmt 0
	movl	%edx, %esi
Ltmp603:
	.loc	14 1869 19 is_stmt 1
	cmpl	$1114112, %edx
Ltmp604:
	je	LBB6_208
Ltmp605:
	.p2align	4, 0x90
LBB6_190:
	.loc	8 161 49
	leal	-97(%rsi), %eax
	cmpl	$6, %eax
Ltmp606:
	.loc	14 1870 32
	jb	LBB6_187
Ltmp607:
	.loc	14 0 32 is_stmt 0
	addl	$-48, %esi
	.loc	14 1870 32
	cmpl	$10, %esi
	jb	LBB6_187
Ltmp608:
	.loc	14 0 32
	movb	$1, %bl
	jmp	LBB6_209
Ltmp609:
LBB6_208:
	xorl	%ebx, %ebx
Ltmp610:
LBB6_209:
	.loc	8 164 41 is_stmt 1
	movq	%r9, %rsi
	movl	$16, %edx
	callq	__ZN4core3num21_$LT$impl$u20$u32$GT$14from_str_radix17h856b6881d270ffd2E
Ltmp611:
	.loc	11 671 13
	testb	$1, %al
	jne	LBB6_139
Ltmp612:
	.loc	11 0 13 is_stmt 0
	shrq	$32, %rax
Ltmp613:
	.file	15 "/rustc/6c8927b0cf80ceee19386026cf9d7fd4fd9d486f/src/libcore/char/convert.rs"
	.loc	15 218 12 is_stmt 1
	movl	%eax, %ecx
	andl	$-2048, %ecx
	cmpl	$55296, %ecx
	.loc	15 218 9 is_stmt 0
	movl	%eax, %edi
	movl	$1114112, %ecx
	cmovel	%ecx, %edi
	.loc	15 218 12
	cmpl	$1114111, %eax
	.loc	15 218 9
	cmoval	%ecx, %edi
Ltmp614:
	.loc	8 166 47 is_stmt 1
	cmpl	$1114112, %edi
	sete	%al
Ltmp615:
	.loc	8 166 41 is_stmt 0
	orb	%al, %bl
	jne	LBB6_139
Ltmp616:
	.loc	8 166 52
	movl	%edi, -128(%rbp)
Ltmp617:
	.loc	12 850 9 is_stmt 1
	callq	__ZN4core7unicode12unicode_data2cc6lookup17h434a4d118c6084f1E
Ltmp618:
	.loc	8 168 37
	testb	%al, %al
	jne	LBB6_139
Ltmp619:
	.loc	8 169 46
	leaq	-128(%rbp), %rdi
	movq	-136(%rbp), %rsi
	callq	__ZN43_$LT$char$u20$as$u20$core..fmt..Display$GT$3fmt17haf02f59875f30dd3E
Ltmp620:
	.loc	8 0 0 is_stmt 0
	movq	%r15, %r12
Ltmp621:
	testb	%al, %al
	movq	-176(%rbp), %rcx
Ltmp622:
	je	LBB6_78
	jmp	LBB6_40
Ltmp623:
LBB6_101:
	xorl	%ecx, %ecx
Ltmp624:
LBB6_103:
	.loc	3 540 18 is_stmt 1
	andl	$7, %edx
Ltmp625:
	shll	$18, %edx
Ltmp626:
	.loc	3 495 5
	shll	$6, %eax
Ltmp627:
	orl	%edx, %eax
Ltmp628:
	.loc	3 540 13
	orl	%ecx, %eax
Ltmp629:
	.loc	3 0 13 is_stmt 0
	movl	%eax, %ecx
Ltmp630:
	.loc	8 132 33 is_stmt 1
	cmpl	$46, %ecx
	.loc	8 132 28 is_stmt 0
	je	LBB6_110
Ltmp631:
	.p2align	4, 0x90
LBB6_106:
	.loc	8 136 30 is_stmt 1
	movl	$1, %edx
	movq	-136(%rbp), %rdi
	leaq	l___unnamed_26(%rip), %rsi
	callq	__ZN4core3fmt9Formatter9write_str17h98e119ad25a8903eE
	.loc	8 136 25 is_stmt 0
	testb	%al, %al
	jne	LBB6_40
Ltmp632:
	.loc	8 0 25
	movq	%r12, -72(%rbp)
	incq	%r12
Ltmp633:
	movq	%r13, -64(%rbp)
Ltmp634:
	.loc	3 2070 18 is_stmt 1
	movq	$1, -48(%rbp)
	.loc	3 2070 25 is_stmt 0
	movq	%r13, -56(%rbp)
Ltmp635:
	.loc	3 2326 26 is_stmt 1
	cmpq	$1, %r13
Ltmp636:
	.loc	3 2326 12 is_stmt 0
	je	LBB6_109
Ltmp637:
	.loc	3 2332 25 is_stmt 1
	cmpb	$-65, (%r12)
Ltmp638:
	.loc	3 2033 13
	jle	LBB6_224
Ltmp639:
LBB6_109:
	.loc	8 0 0 is_stmt 0
	decq	%r13
Ltmp640:
	movq	%r13, %rcx
Ltmp641:
	jmp	LBB6_78
Ltmp642:
LBB6_43:
	xorl	%eax, %eax
Ltmp643:
	jmp	LBB6_44
Ltmp644:
LBB6_40:
	movb	$1, %al
Ltmp645:
LBB6_44:
	.loc	8 191 6 is_stmt 1
	addq	$152, %rsp
	popq	%rbx
	popq	%r12
	popq	%r13
	popq	%r14
	popq	%r15
	popq	%rbp
	retq
Ltmp646:
LBB6_29:
	.file	16 "/rustc/6c8927b0cf80ceee19386026cf9d7fd4fd9d486f/src/libcore/macros/mod.rs"
	.loc	16 10 9
	leaq	l___unnamed_27(%rip), %rdi
	leaq	l___unnamed_28(%rip), %rdx
	movl	$43, %esi
	callq	__ZN4core9panicking5panic17h383a6b80ea7021aaE
Ltmp647:
LBB6_224:
	.loc	16 0 9 is_stmt 0
	leaq	-72(%rbp), %rax
Ltmp648:
	movq	%rax, -128(%rbp)
	leaq	-48(%rbp), %rax
	movq	%rax, -120(%rbp)
	leaq	-56(%rbp), %rax
	movq	%rax, -112(%rbp)
	leaq	-128(%rbp), %rdi
	callq	__ZN4core3str6traits105_$LT$impl$u20$core..slice..SliceIndex$LT$str$GT$$u20$for$u20$core..ops..range..RangeFrom$LT$usize$GT$$GT$5index28_$u7b$$u7b$closure$u7d$$u7d$17h6be5bad7675462e3E
Ltmp649:
LBB6_132:
	leaq	-128(%rbp), %rdi
Ltmp650:
	.loc	11 428 21 is_stmt 1
	movq	%rbx, %rsi
	callq	__ZN4core3str6traits103_$LT$impl$u20$core..slice..SliceIndex$LT$str$GT$$u20$for$u20$core..ops..range..RangeTo$LT$usize$GT$$GT$5index28_$u7b$$u7b$closure$u7d$$u7d$17h7e3253d82a7441adE
Ltmp651:
LBB6_219:
	.loc	8 116 36
	leaq	_str.1(%rip), %rdi
	leaq	l___unnamed_29(%rip), %rdx
	movl	$33, %esi
	callq	__ZN4core9panicking5panic17h383a6b80ea7021aaE
Ltmp652:
LBB6_225:
	.loc	13 1005 17
	movb	-127(%rbp), %al
Ltmp653:
	movb	%al, -72(%rbp)
Ltmp654:
	.loc	13 1005 23 is_stmt 0
	leaq	l___unnamed_30(%rip), %rdi
	leaq	l___unnamed_1(%rip), %rcx
	leaq	l___unnamed_31(%rip), %r8
	leaq	-72(%rbp), %rdx
	movl	$43, %esi
	callq	__ZN4core6result13unwrap_failed17hc193898ef513e81fE
Ltmp655:
LBB6_25:
	.loc	13 0 23
	leaq	-128(%rbp), %rdi
Ltmp656:
	.loc	11 428 21 is_stmt 1
	movq	%rdx, %rsi
	callq	__ZN4core3str6traits103_$LT$impl$u20$core..slice..SliceIndex$LT$str$GT$$u20$for$u20$core..ops..range..RangeTo$LT$usize$GT$$GT$5index28_$u7b$$u7b$closure$u7d$$u7d$17h7e3253d82a7441adE
Ltmp657:
LBB6_226:
	.loc	11 0 21 is_stmt 0
	leaq	-128(%rbp), %rdi
Ltmp658:
	.loc	11 428 21
	callq	__ZN4core3str6traits103_$LT$impl$u20$core..slice..SliceIndex$LT$str$GT$$u20$for$u20$core..ops..range..RangeTo$LT$usize$GT$$GT$5index28_$u7b$$u7b$closure$u7d$$u7d$17h7e3253d82a7441adE
Ltmp659:
LBB6_227:
	.loc	5 3170 13 is_stmt 1
	leaq	l___unnamed_7(%rip), %rdx
Ltmp660:
	movl	$4, %esi
	movq	%r14, %rdi
	callq	__ZN4core5slice24slice_end_index_len_fail17hea9e3399ed430f80E
Ltmp661:
LBB6_222:
	.loc	8 141 35
	leaq	_str.0(%rip), %rdi
	leaq	l___unnamed_32(%rip), %rdx
	movl	$28, %esi
	callq	__ZN4core9panicking5panic17h383a6b80ea7021aaE
Ltmp662:
LBB6_176:
	.loc	8 0 35 is_stmt 0
	leaq	-72(%rbp), %rax
Ltmp663:
	.loc	11 428 21 is_stmt 1
	movq	%rax, -128(%rbp)
	leaq	-48(%rbp), %rax
	movq	%rax, -120(%rbp)
	leaq	-56(%rbp), %rax
	movq	%rax, -112(%rbp)
	leaq	-128(%rbp), %rdi
	callq	__ZN4core3str6traits101_$LT$impl$u20$core..slice..SliceIndex$LT$str$GT$$u20$for$u20$core..ops..range..Range$LT$usize$GT$$GT$5index28_$u7b$$u7b$closure$u7d$$u7d$17ha96adb8ff842bfdfE
Ltmp664:
LBB6_223:
	.loc	8 141 51
	leaq	_str.0(%rip), %rdi
	leaq	l___unnamed_33(%rip), %rdx
	movl	$28, %esi
	callq	__ZN4core9panicking5panic17h383a6b80ea7021aaE
Ltmp665:
LBB6_220:
	.loc	8 121 33
	leaq	_str.0(%rip), %rdi
	leaq	l___unnamed_34(%rip), %rdx
	movl	$28, %esi
	callq	__ZN4core9panicking5panic17h383a6b80ea7021aaE
Ltmp666:
Lfunc_end6:
	.cfi_endproc
	.file	17 "/rustc/6c8927b0cf80ceee19386026cf9d7fd4fd9d486f/src/libcore/ops/function.rs"

	.globl	__ZN67_$LT$rustc_demangle..v0..Demangle$u20$as$u20$core..fmt..Display$GT$3fmt17h5b1942532996dd21E
	.p2align	4, 0x90
__ZN67_$LT$rustc_demangle..v0..Demangle$u20$as$u20$core..fmt..Display$GT$3fmt17h5b1942532996dd21E:
Lfunc_begin7:
	.file	18 "/Users/yingyuhang/.cargo/registry/src/github.com-1ecc6299db9ec823/rustc-demangle-0.1.16/src/v0.rs"
	.loc	18 65 0
	.cfi_startproc
	pushq	%rbp
	.cfi_def_cfa_offset 16
	.cfi_offset %rbp, -16
	movq	%rsp, %rbp
	.cfi_def_cfa_register %rbp
	subq	$48, %rsp
Ltmp667:
	.loc	18 68 22 prologue_end
	movups	(%rdi), %xmm0
	.loc	18 66 27
	movaps	%xmm0, -48(%rbp)
	movq	$0, -32(%rbp)
	movq	%rsi, -24(%rbp)
	movl	$0, -16(%rbp)
	leaq	-48(%rbp), %rdi
Ltmp668:
	.loc	18 74 9
	movl	$1, %esi
Ltmp669:
	callq	__ZN14rustc_demangle2v07Printer10print_path17h584adfcc206070e5E
Ltmp670:
	.loc	18 75 6
	addq	$48, %rsp
	popq	%rbp
	retq
Ltmp671:
Lfunc_end7:
	.cfi_endproc

	.globl	__ZN64_$LT$rustc_demangle..v0..Ident$u20$as$u20$core..fmt..Display$GT$3fmt17h8f268e9518e168b4E
	.p2align	4, 0x90
__ZN64_$LT$rustc_demangle..v0..Ident$u20$as$u20$core..fmt..Display$GT$3fmt17h8f268e9518e168b4E:
Lfunc_begin8:
	.loc	18 219 0
	.cfi_startproc
	pushq	%rbp
	.cfi_def_cfa_offset 16
	.cfi_offset %rbp, -16
	movq	%rsp, %rbp
	.cfi_def_cfa_register %rbp
	pushq	%r15
	pushq	%r14
	pushq	%r13
	pushq	%r12
	pushq	%rbx
	subq	$600, %rsp
	.cfi_offset %rbx, -56
	.cfi_offset %r12, -48
	.cfi_offset %r13, -40
	.cfi_offset %r14, -32
	.cfi_offset %r15, -24
	movq	%rsi, %r14
	movq	%rdi, %rbx
Ltmp672:
	leaq	-632(%rbp), %rdi
Ltmp673:
	.loc	18 98 23 prologue_end
	movl	$512, %esi
	movq	%rdi, -80(%rbp)
	callq	___bzero
Ltmp674:
	.loc	18 132 34
	movq	24(%rbx), %rcx
Ltmp675:
	.loc	18 0 34 is_stmt 0
	movq	%rcx, %rax
Ltmp676:
	movq	%rcx, -104(%rbp)
Ltmp677:
	.loc	5 3440 9 is_stmt 1
	testq	%rcx, %rcx
	.loc	5 3570 21
	je	LBB8_73
Ltmp678:
	.loc	5 0 21 is_stmt 0
	movq	%r14, -96(%rbp)
Ltmp679:
	movq	16(%rbx), %rax
Ltmp680:
	movq	%rax, -88(%rbp)
Ltmp681:
	.loc	11 456 29 is_stmt 1
	movb	(%rax), %r14b
Ltmp682:
	.loc	18 140 18
	movq	(%rbx), %rdx
	movq	8(%rbx), %rax
Ltmp683:
	.loc	5 3440 9
	testq	%rax, %rax
	movq	%rdx, -112(%rbp)
	movq	%rax, -120(%rbp)
	.loc	5 3570 21
	je	LBB8_2
Ltmp684:
	.loc	5 0 0 is_stmt 0
	leaq	(%rdx,%rax), %r8
Ltmp685:
	xorl	%edi, %edi
Ltmp686:
	.p2align	4, 0x90
LBB8_4:
	.loc	10 165 18 is_stmt 1
	leaq	1(%rdx), %rax
Ltmp687:
	.loc	3 519 13
	movzbl	(%rdx), %esi
Ltmp688:
	.loc	3 520 8
	testb	%sil, %sil
	.loc	3 520 5 is_stmt 0
	js	LBB8_6
Ltmp689:
	.loc	3 0 5
	movq	%rax, %rdx
Ltmp690:
	jmp	LBB8_21
Ltmp691:
	.p2align	4, 0x90
LBB8_6:
	.loc	5 3440 9 is_stmt 1
	cmpq	%r8, %rax
Ltmp692:
	.loc	5 3570 21
	je	LBB8_7
Ltmp693:
	.loc	3 508 15
	movzbl	1(%rdx), %ebx
Ltmp694:
	.loc	10 165 18
	addq	$2, %rdx
Ltmp695:
	.loc	3 507 5
	andl	$63, %ebx
	movl	%esi, %ecx
	andl	$31, %ecx
Ltmp696:
	.loc	3 530 8
	cmpb	$-33, %sil
	.loc	3 530 5 is_stmt 0
	jbe	LBB8_10
Ltmp697:
LBB8_12:
	.loc	5 3440 9 is_stmt 1
	cmpq	%r8, %rdx
	.loc	5 3570 21
	je	LBB8_13
Ltmp698:
	.loc	3 508 15
	movzbl	(%rdx), %eax
Ltmp699:
	.loc	10 165 18
	incq	%rdx
Ltmp700:
	.loc	3 507 5
	andl	$63, %eax
Ltmp701:
	.loc	3 495 5
	shll	$6, %ebx
Ltmp702:
	orl	%eax, %ebx
Ltmp703:
	.loc	3 536 12
	cmpb	$-16, %sil
	.loc	3 536 9 is_stmt 0
	jb	LBB8_16
Ltmp704:
LBB8_17:
	.loc	5 3440 9 is_stmt 1
	cmpq	%r8, %rdx
	.loc	5 3570 21
	je	LBB8_18
Ltmp705:
	.loc	3 508 15
	movzbl	(%rdx), %esi
Ltmp706:
	.loc	10 165 18
	incq	%rdx
Ltmp707:
	.loc	3 507 5
	andl	$63, %esi
	jmp	LBB8_20
Ltmp708:
LBB8_7:
	.loc	3 0 5 is_stmt 0
	xorl	%ebx, %ebx
	movq	%r8, %rdx
	movl	%esi, %ecx
	andl	$31, %ecx
Ltmp709:
	.loc	3 530 8 is_stmt 1
	cmpb	$-33, %sil
	.loc	3 530 5 is_stmt 0
	ja	LBB8_12
Ltmp710:
LBB8_10:
	.loc	3 0 5
	shll	$6, %ecx
Ltmp711:
	jmp	LBB8_11
Ltmp712:
LBB8_13:
	xorl	%eax, %eax
	movq	%r8, %rdx
Ltmp713:
	.loc	3 495 5 is_stmt 1
	shll	$6, %ebx
Ltmp714:
	orl	%eax, %ebx
Ltmp715:
	.loc	3 536 12
	cmpb	$-16, %sil
	.loc	3 536 9 is_stmt 0
	jae	LBB8_17
Ltmp716:
LBB8_16:
	.loc	3 0 9
	shll	$12, %ecx
Ltmp717:
LBB8_11:
	orl	%ecx, %ebx
Ltmp718:
	movl	%ebx, %esi
Ltmp719:
	jmp	LBB8_21
Ltmp720:
LBB8_18:
	xorl	%esi, %esi
Ltmp721:
	movq	%r8, %rdx
Ltmp722:
LBB8_20:
	.loc	3 540 18 is_stmt 1
	andl	$7, %ecx
Ltmp723:
	shll	$18, %ecx
Ltmp724:
	.loc	3 495 5
	shll	$6, %ebx
Ltmp725:
	orl	%ecx, %ebx
Ltmp726:
	.loc	3 540 13
	orl	%esi, %ebx
Ltmp727:
	.loc	3 0 13 is_stmt 0
	movl	%ebx, %esi
Ltmp728:
	.loc	18 140 13 is_stmt 1
	cmpl	$1114112, %ebx
Ltmp729:
	je	LBB8_23
Ltmp730:
	.p2align	4, 0x90
LBB8_21:
	.loc	5 3090 12
	cmpq	$128, %rdi
Ltmp731:
	.loc	18 102 13
	je	LBB8_38
Ltmp732:
	.loc	18 114 13
	movl	%esi, -632(%rbp,%rdi,4)
Ltmp733:
	.loc	18 106 13
	incq	%rdi
Ltmp734:
	.loc	5 3440 9
	cmpq	%r8, %rdx
	.loc	5 3570 21
	jne	LBB8_4
	jmp	LBB8_23
Ltmp735:
LBB8_73:
	.loc	18 239 29
	movq	(%rbx), %rsi
	movq	8(%rbx), %rdx
	.loc	18 239 17 is_stmt 0
	movq	%r14, %rdi
Ltmp736:
LBB8_74:
	.loc	18 0 0
	callq	__ZN4core3fmt9Formatter9write_str17h98e119ad25a8903eE
	movl	%eax, %r14d
	jmp	LBB8_75
Ltmp737:
LBB8_2:
	xorl	%edi, %edi
Ltmp738:
LBB8_23:
	movq	-104(%rbp), %rax
	movq	-88(%rbp), %rcx
Ltmp739:
	leaq	(%rcx,%rax), %r9
Ltmp740:
	leaq	1(%rcx), %r10
Ltmp741:
	.loc	18 160 13 is_stmt 1
	leaq	4(,%rdi,4), %rax
	movq	%rax, -72(%rbp)
	movl	$700, %eax
	movq	%rax, -64(%rbp)
	movl	$72, %r12d
	movl	$128, %eax
	movq	%rax, -48(%rbp)
	movl	$1, %r11d
	movl	$26, %r15d
Ltmp742:
	.loc	18 0 0 is_stmt 0
	xorl	%r8d, %r8d
Ltmp743:
LBB8_24:
	.loc	18 160 13
	movzbl	%r14b, %ecx
	shll	$8, %ecx
	orl	$1, %ecx
	xorl	%r14d, %r14d
Ltmp744:
	.loc	18 0 0
	xorl	%esi, %esi
Ltmp745:
	movl	$1, %ebx
Ltmp746:
	.p2align	4, 0x90
LBB8_25:
	.loc	18 163 17 is_stmt 1
	addq	$36, %r14
	jb	LBB8_64
Ltmp747:
	.file	19 "/rustc/6c8927b0cf80ceee19386026cf9d7fd4fd9d486f/src/libcore/num/mod.rs"
	.loc	19 3362 17
	movq	%r14, %rax
	subq	%r12, %rax
	movl	$0, %r13d
	cmovaeq	%rax, %r13
Ltmp748:
	.loc	7 1016 9
	cmpq	$1, %r13
	.loc	7 0 0 is_stmt 0
	cmovbeq	%r11, %r13
Ltmp749:
	cmpq	$26, %r13
	cmovaeq	%r15, %r13
Ltmp750:
	.file	20 "/rustc/6c8927b0cf80ceee19386026cf9d7fd4fd9d486f/src/libcore/iter/adapters/mod.rs"
	.loc	20 1447 13 is_stmt 1
	cmpb	$2, %cl
	jne	LBB8_29
Ltmp751:
	.loc	5 3440 9
	cmpq	%r9, %r10
	.loc	5 3570 21
	je	LBB8_38
Ltmp752:
	.loc	11 456 29
	movzbl	(%r10), %ecx
Ltmp753:
	.loc	10 165 18
	incq	%r10
Ltmp754:
	.loc	18 167 30
	leal	-97(%rcx), %eax
	cmpb	$26, %al
	jae	LBB8_32
	jmp	LBB8_34
Ltmp755:
	.p2align	4, 0x90
LBB8_29:
	.loc	18 167 21 is_stmt 0
	testb	$1, %cl
	je	LBB8_38
Ltmp756:
	.loc	18 0 21
	shrl	$8, %ecx
Ltmp757:
	.loc	18 167 30
	leal	-97(%rcx), %eax
	cmpb	$26, %al
	jb	LBB8_34
Ltmp758:
LBB8_32:
	.loc	18 168 30 is_stmt 1
	leal	-48(%rcx), %eax
	cmpb	$9, %al
	ja	LBB8_38
Ltmp759:
	.loc	18 168 46 is_stmt 0
	addb	$-22, %cl
Ltmp760:
	.loc	18 0 0
	movl	%ecx, %eax
Ltmp761:
LBB8_34:
	.loc	18 171 25 is_stmt 1
	movzbl	%al, %ecx
Ltmp762:
	.loc	19 3807 26
	movq	%rcx, %rax
Ltmp763:
	mulq	%rbx
Ltmp764:
	.loc	18 173 21
	jo	LBB8_38
Ltmp765:
	.loc	19 3751 30
	addq	%rax, %rsi
Ltmp766:
	.loc	18 172 25
	jb	LBB8_38
Ltmp767:
	.loc	18 175 20
	cmpq	%rcx, %r13
	.loc	18 175 17 is_stmt 0
	ja	LBB8_44
Ltmp768:
	.loc	18 178 40 is_stmt 1
	movl	$36, %ecx
Ltmp769:
	subq	%r13, %rcx
Ltmp770:
	.loc	19 3807 26
	movq	%rbx, %rax
	mulq	%rcx
	movw	$2, %cx
Ltmp771:
	movq	%rax, %rbx
Ltmp772:
	.loc	18 178 21
	jno	LBB8_25
	jmp	LBB8_38
Ltmp773:
LBB8_44:
	.loc	19 3751 30
	addq	%rsi, %r8
Ltmp774:
	.loc	18 183 17
	jb	LBB8_38
Ltmp775:
	.loc	18 0 0 is_stmt 0
	leaq	1(%rdi), %rbx
Ltmp776:
	.loc	18 185 13 is_stmt 1
	movq	%r8, %rax
	xorl	%edx, %edx
	divq	%rbx
Ltmp777:
	.loc	19 3751 30
	addq	%rax, -48(%rbp)
Ltmp778:
	.loc	18 184 17
	jb	LBB8_38
Ltmp779:
	.loc	18 0 17 is_stmt 0
	movq	-48(%rbp), %rax
	.loc	18 184 17
	shrq	$32, %rax
	jne	LBB8_38
Ltmp780:
	.loc	5 3090 12 is_stmt 1
	cmpq	$127, %rdi
Ltmp781:
	.loc	18 189 17
	ja	LBB8_38
Ltmp782:
	cmpl	$1114111, -48(%rbp)
	ja	LBB8_38
Ltmp783:
	.loc	18 0 17 is_stmt 0
	movq	-48(%rbp), %rax
	andl	$-2048, %eax
	.loc	18 189 17
	cmpl	$55296, %eax
	je	LBB8_38
Ltmp784:
	.loc	18 0 17
	movq	%rdx, %r8
Ltmp785:
	.loc	18 108 19 is_stmt 1
	cmpq	%rdx, %rdi
	.loc	18 108 13 is_stmt 0
	jbe	LBB8_51
Ltmp786:
	.p2align	4, 0x90
LBB8_53:
	.loc	18 109 30 is_stmt 1
	leaq	-1(%rdi), %rax
	.loc	18 109 26 is_stmt 0
	cmpq	$127, %rax
	ja	LBB8_55
Ltmp787:
	movl	-636(%rbp,%rdi,4), %ecx
	.loc	18 109 17
	movl	%ecx, -632(%rbp,%rdi,4)
Ltmp788:
	.loc	18 0 17
	movq	%rax, %rdi
	.loc	18 108 19 is_stmt 1
	cmpq	%r8, %rax
Ltmp789:
	.loc	18 108 13 is_stmt 0
	ja	LBB8_53
Ltmp790:
LBB8_51:
	.loc	18 114 13 is_stmt 1
	cmpq	$128, %r8
	jae	LBB8_52
Ltmp791:
	.loc	18 0 13 is_stmt 0
	movq	-48(%rbp), %rax
	.loc	18 114 13
	movl	%eax, -632(%rbp,%r8,4)
Ltmp792:
	.loc	5 3440 9 is_stmt 1
	cmpq	%r9, %r10
	movq	-72(%rbp), %r13
	movabsq	$-1581149492032247281, %rdi
Ltmp793:
	.loc	5 3570 21
	je	LBB8_68
Ltmp794:
	.loc	18 204 13
	movq	%rsi, %rax
	xorl	%edx, %edx
	divq	-64(%rbp)
	movq	%rax, %rcx
Ltmp795:
	.loc	18 207 22
	xorl	%edx, %edx
	divq	%rbx
	movq	%rax, %rsi
	.loc	18 207 13 is_stmt 0
	addq	%rcx, %rsi
	jb	LBB8_65
Ltmp796:
	.loc	18 0 0
	movb	(%r10), %r14b
Ltmp797:
	xorl	%ecx, %ecx
Ltmp798:
	.loc	18 209 19 is_stmt 1
	cmpq	$456, %rsi
	.loc	18 209 13 is_stmt 0
	jb	LBB8_62
Ltmp799:
	.p2align	4, 0x90
LBB8_59:
	.loc	18 211 17 is_stmt 1
	addq	$36, %rcx
	jb	LBB8_66
Ltmp800:
	.loc	18 210 17
	movq	%rsi, %rax
	mulq	%rdi
	shrq	$5, %rdx
Ltmp801:
	.loc	18 209 19
	cmpq	$15959, %rsi
	movq	%rdx, %rsi
	.loc	18 209 13 is_stmt 0
	ja	LBB8_59
Ltmp802:
	.loc	18 0 0
	movq	%rdx, %rsi
Ltmp803:
LBB8_62:
	.loc	18 213 24 is_stmt 1
	leal	(,%rsi,4), %eax
	leal	(%rax,%rax,8), %eax
	addl	$38, %esi
Ltmp804:
	xorl	%edx, %edx
	divw	%si
	movzwl	%ax, %r12d
Ltmp805:
	.loc	18 213 20 is_stmt 0
	addq	%rcx, %r12
	jb	LBB8_67
Ltmp806:
	.loc	18 0 0
	incq	%r8
Ltmp807:
	incq	%r10
Ltmp808:
	.loc	18 155 9 is_stmt 1
	addq	$4, %r13
	movq	%r13, -72(%rbp)
	movl	$2, %eax
	movq	%rax, -64(%rbp)
Ltmp809:
	.loc	18 0 0 is_stmt 0
	movq	%rbx, %rdi
	jmp	LBB8_24
Ltmp810:
LBB8_38:
	.loc	18 227 22 is_stmt 1
	leaq	l___unnamed_35(%rip), %rsi
	movl	$9, %edx
	movq	-96(%rbp), %rbx
Ltmp811:
	movq	%rbx, %rdi
	callq	__ZN4core3fmt9Formatter9write_str17h98e119ad25a8903eE
	movb	$1, %r14b
	.loc	18 227 17 is_stmt 0
	testb	%al, %al
	jne	LBB8_75
Ltmp812:
	.loc	18 0 17
	movq	-120(%rbp), %rdx
Ltmp813:
	.loc	5 3440 9 is_stmt 1
	testq	%rdx, %rdx
Ltmp814:
	.loc	18 231 17
	je	LBB8_42
Ltmp815:
	.loc	18 232 26
	movq	%rbx, %rdi
	movq	-112(%rbp), %rsi
	callq	__ZN4core3fmt9Formatter9write_str17h98e119ad25a8903eE
	.loc	18 232 21 is_stmt 0
	testb	%al, %al
	jne	LBB8_75
Ltmp816:
	.loc	18 233 26 is_stmt 1
	leaq	l___unnamed_36(%rip), %rsi
	movl	$1, %edx
	movq	%rbx, %rdi
	callq	__ZN4core3fmt9Formatter9write_str17h98e119ad25a8903eE
	.loc	18 233 21 is_stmt 0
	testb	%al, %al
	jne	LBB8_75
Ltmp817:
LBB8_42:
	.loc	18 235 22 is_stmt 1
	movq	%rbx, %rdi
	movq	-88(%rbp), %rsi
	movq	-104(%rbp), %rdx
	callq	__ZN4core3fmt9Formatter9write_str17h98e119ad25a8903eE
	.loc	18 235 17 is_stmt 0
	testb	%al, %al
	je	LBB8_43
Ltmp818:
LBB8_75:
	.loc	18 242 6 is_stmt 1
	movl	%r14d, %eax
	addq	$600, %rsp
	popq	%rbx
	popq	%r12
	popq	%r13
	popq	%r14
	popq	%r15
	popq	%rbp
	retq
LBB8_43:
Ltmp819:
	.loc	18 237 17
	leaq	l___unnamed_37(%rip), %rsi
	movl	$1, %edx
	movq	%rbx, %rdi
	jmp	LBB8_74
Ltmp820:
LBB8_68:
	.loc	18 0 17 is_stmt 0
	leaq	-52(%rbp), %r14
Ltmp821:
	movq	-96(%rbp), %r15
Ltmp822:
LBB8_69:
	.loc	5 3440 9 is_stmt 1
	testq	%r13, %r13
	.loc	5 3570 21
	je	LBB8_70
Ltmp823:
	.loc	5 0 21 is_stmt 0
	movq	-80(%rbp), %rbx
Ltmp824:
	.loc	18 221 18 is_stmt 1
	movl	(%rbx), %eax
Ltmp825:
	movl	%eax, -52(%rbp)
Ltmp826:
	.loc	18 222 22
	movq	%r14, %rdi
	movq	%r15, %rsi
	callq	__ZN43_$LT$char$u20$as$u20$core..fmt..Display$GT$3fmt17haf02f59875f30dd3E
Ltmp827:
	.loc	10 165 18
	addq	$4, %rbx
Ltmp828:
	.loc	10 0 18 is_stmt 0
	movq	%rbx, -80(%rbp)
Ltmp829:
	.loc	18 222 17 is_stmt 1
	addq	$-4, %r13
	testb	%al, %al
	je	LBB8_69
Ltmp830:
	.loc	18 0 17 is_stmt 0
	movb	$1, %r14b
Ltmp831:
	jmp	LBB8_75
Ltmp832:
LBB8_70:
	xorl	%r14d, %r14d
Ltmp833:
	jmp	LBB8_75
Ltmp834:
LBB8_64:
	.loc	18 163 17 is_stmt 1
	leaq	_str.0(%rip), %rdi
Ltmp835:
	leaq	l___unnamed_38(%rip), %rdx
	movl	$28, %esi
Ltmp836:
	callq	__ZN4core9panicking5panic17h383a6b80ea7021aaE
Ltmp837:
LBB8_55:
	.loc	18 109 26
	decq	%rdi
Ltmp838:
	leaq	l___unnamed_39(%rip), %rdx
	movl	$128, %esi
Ltmp839:
	callq	__ZN4core9panicking18panic_bounds_check17he87128426d100e93E
Ltmp840:
LBB8_66:
	.loc	18 211 17
	leaq	_str.0(%rip), %rdi
	leaq	l___unnamed_40(%rip), %rdx
	movl	$28, %esi
	callq	__ZN4core9panicking5panic17h383a6b80ea7021aaE
Ltmp841:
LBB8_52:
	.loc	18 114 13
	leaq	l___unnamed_41(%rip), %rdx
	movl	$128, %esi
Ltmp842:
	movq	%r8, %rdi
Ltmp843:
	callq	__ZN4core9panicking18panic_bounds_check17he87128426d100e93E
Ltmp844:
LBB8_65:
	.loc	18 207 13
	leaq	_str.0(%rip), %rdi
	leaq	l___unnamed_42(%rip), %rdx
	movl	$28, %esi
	callq	__ZN4core9panicking5panic17h383a6b80ea7021aaE
Ltmp845:
LBB8_67:
	.loc	18 213 20
	leaq	_str.0(%rip), %rdi
	leaq	l___unnamed_43(%rip), %rdx
	movl	$28, %esi
	callq	__ZN4core9panicking5panic17h383a6b80ea7021aaE
Ltmp846:
Lfunc_end8:
	.cfi_endproc

	.p2align	4, 0x90
__ZN14rustc_demangle2v06Parser5ident17hbde95aecd22e76bbE:
Lfunc_begin9:
	.loc	18 379 0
	.cfi_startproc
	pushq	%rbp
	.cfi_def_cfa_offset 16
	.cfi_offset %rbp, -16
	movq	%rsp, %rbp
	.cfi_def_cfa_register %rbp
Ltmp847:
	pushq	%r15
	pushq	%r14
	pushq	%rbx
	subq	$56, %rsp
	.cfi_offset %rbx, -40
	.cfi_offset %r14, -32
	.cfi_offset %r15, -24
	.loc	18 280 9 prologue_end
	movq	8(%rsi), %r9
	.loc	18 280 33 is_stmt 0
	movq	16(%rsi), %rcx
Ltmp848:
	.loc	5 3090 12 is_stmt 1
	cmpq	%rcx, %r9
Ltmp849:
	.loc	11 456 13
	jbe	LBB9_4
Ltmp850:
	.loc	18 280 9
	movq	(%rsi), %rax
Ltmp851:
	.loc	7 1052 52
	cmpb	$117, (%rax,%rcx)
Ltmp852:
	.loc	18 284 9
	jne	LBB9_4
Ltmp853:
	.loc	18 285 13
	incq	%rcx
	movq	%rcx, 16(%rsi)
	movb	$1, %r10b
Ltmp854:
	.loc	5 3090 12
	cmpq	%rcx, %r9
Ltmp855:
	.loc	11 456 13
	ja	LBB9_5
	jmp	LBB9_18
Ltmp856:
LBB9_4:
	.loc	11 0 13 is_stmt 0
	xorl	%r10d, %r10d
Ltmp857:
	.loc	5 3090 12 is_stmt 1
	cmpq	%rcx, %r9
Ltmp858:
	.loc	11 456 13
	jbe	LBB9_18
Ltmp859:
LBB9_5:
	.loc	18 280 9
	movq	(%rsi), %r8
Ltmp860:
	.loc	11 456 29
	movb	(%r8,%rcx), %al
	addb	$-48, %al
Ltmp861:
	.loc	18 312 13
	cmpb	$10, %al
	jae	LBB9_18
Ltmp862:
	.loc	18 315 9
	incq	%rcx
Ltmp863:
	movq	%rcx, 16(%rsi)
Ltmp864:
	.loc	18 382 12
	testb	%al, %al
	.loc	18 382 9 is_stmt 0
	je	LBB9_12
Ltmp865:
	.loc	18 381 23 is_stmt 1
	movzbl	%al, %eax
Ltmp866:
	.loc	18 0 23 is_stmt 0
	movl	$10, %r11d
Ltmp867:
	.p2align	4, 0x90
LBB9_8:
	.loc	5 3090 12 is_stmt 1
	cmpq	%rcx, %r9
Ltmp868:
	.loc	11 456 13
	jbe	LBB9_13
Ltmp869:
	.loc	11 456 29 is_stmt 0
	movzbl	(%r8,%rcx), %ebx
	addb	$-48, %bl
Ltmp870:
	.loc	18 312 13 is_stmt 1
	cmpb	$9, %bl
	ja	LBB9_13
Ltmp871:
	.loc	18 315 9
	incq	%rcx
Ltmp872:
	movq	%rcx, 16(%rsi)
Ltmp873:
	.loc	19 3807 26
	mulq	%r11
Ltmp874:
	.loc	18 386 31
	jo	LBB9_18
Ltmp875:
	.loc	18 387 52
	movzbl	%bl, %edx
Ltmp876:
	.loc	19 3751 30
	addq	%rdx, %rax
Ltmp877:
	.loc	19 0 30 is_stmt 0
	jae	LBB9_8
	jmp	LBB9_18
Ltmp878:
LBB9_12:
	xorl	%eax, %eax
Ltmp879:
LBB9_13:
	.loc	5 3090 12 is_stmt 1
	cmpq	%rcx, %r9
Ltmp880:
	.loc	11 456 13
	jbe	LBB9_16
Ltmp881:
	.loc	7 1052 52
	cmpb	$95, (%r8,%rcx)
Ltmp882:
	.loc	18 284 9
	jne	LBB9_16
Ltmp883:
	.loc	18 285 13
	incq	%rcx
	movq	%rcx, 16(%rsi)
Ltmp884:
LBB9_16:
	.loc	19 3751 30
	movq	%rcx, %rdx
	addq	%rax, %rdx
Ltmp885:
	.loc	18 398 21
	jb	LBB9_18
Ltmp886:
	.loc	18 398 9 is_stmt 0
	movq	%rdx, 16(%rsi)
	.loc	18 399 12 is_stmt 1
	cmpq	%r9, %rdx
	jbe	LBB9_20
Ltmp887:
LBB9_18:
	.loc	18 0 0 is_stmt 0
	movq	$0, (%rdi)
Ltmp888:
LBB9_19:
	.loc	18 426 6 is_stmt 1
	addq	$56, %rsp
	popq	%rbx
	popq	%r14
	popq	%r15
	popq	%rbp
	retq
LBB9_20:
Ltmp889:
	.loc	18 0 6 is_stmt 0
	movq	%r8, -80(%rbp)
	movq	%r9, -72(%rbp)
Ltmp890:
	.loc	3 1925 18 is_stmt 1
	movq	%rcx, -32(%rbp)
	.loc	3 1925 25 is_stmt 0
	movq	%rdx, -40(%rbp)
Ltmp891:
	.loc	3 2326 26 is_stmt 1
	cmpq	%rcx, %r9
	.loc	3 2326 12 is_stmt 0
	je	LBB9_23
Ltmp892:
	.loc	3 2330 13 is_stmt 1
	jbe	LBB9_44
Ltmp893:
	.loc	3 2332 25
	cmpb	$-65, (%r8,%rcx)
Ltmp894:
	.loc	3 1881 16
	jle	LBB9_44
Ltmp895:
LBB9_23:
	.loc	3 2326 12
	testq	%rdx, %rdx
	je	LBB9_27
Ltmp896:
	cmpq	%rdx, %r9
	je	LBB9_27
Ltmp897:
	.loc	3 2330 13
	jbe	LBB9_44
Ltmp898:
	.loc	3 2332 25
	cmpb	$-65, (%r8,%rdx)
Ltmp899:
	.loc	3 1881 16
	jle	LBB9_44
Ltmp900:
LBB9_27:
	.loc	6 164 18
	leaq	(%r8,%rcx), %r9
Ltmp901:
	.loc	3 1912 23
	movq	%rdx, %r11
	subq	%rcx, %r11
Ltmp902:
	.loc	18 405 9
	testb	%r10b, %r10b
	je	LBB9_40
Ltmp903:
	.loc	6 164 18
	leaq	(%r8,%rdx), %r10
Ltmp904:
	.file	21 "/rustc/6c8927b0cf80ceee19386026cf9d7fd4fd9d486f/src/libcore/iter/traits/double_ended.rs"
	.loc	21 190 9
	leaq	-1(%r8,%rdx), %r15
	movq	%rax, %rbx
	negq	%rbx
	xorl	%esi, %esi
Ltmp905:
	.loc	21 0 9 is_stmt 0
	leaq	l___unnamed_44(%rip), %r14
Ltmp906:
	.loc	5 3751 33 is_stmt 1
	xorl	%edx, %edx
Ltmp907:
	.p2align	4, 0x90
LBB9_29:
	.loc	5 3440 9
	cmpq	%rdx, %rbx
	.loc	5 3753 21
	je	LBB9_41
Ltmp908:
	.loc	18 406 59
	cmpb	$95, (%r15,%rdx)
Ltmp909:
	.loc	21 191 32
	leaq	-1(%rdx), %rdx
	jne	LBB9_29
Ltmp910:
	.loc	21 0 32 is_stmt 0
	movq	%r9, -64(%rbp)
	movq	%r11, -56(%rbp)
Ltmp911:
	.loc	3 2326 12 is_stmt 1
	movq	%r10, %rbx
	subq	%r9, %rbx
	movq	%rbx, %rsi
	addq	%rdx, %rsi
	je	LBB9_35
Ltmp912:
	.loc	3 0 0 is_stmt 0
	subq	%rax, %rbx
	addq	%rdx, %rbx
	.loc	3 2326 12
	je	LBB9_35
Ltmp913:
	.loc	5 3090 12 is_stmt 1
	cmpq	%rsi, %r11
Ltmp914:
	.loc	3 2330 13
	jbe	LBB9_45
Ltmp915:
	.loc	3 2332 19
	addq	%r10, %rcx
Ltmp916:
	subq	%r9, %rcx
	addq	%rcx, %r8
Ltmp917:
	.loc	3 2332 25 is_stmt 0
	cmpb	$-65, (%rdx,%r8)
Ltmp918:
	.loc	3 1965 13 is_stmt 1
	jle	LBB9_45
Ltmp919:
LBB9_35:
	.loc	18 409 38
	movq	%rsi, %rax
Ltmp920:
	incq	%rax
	je	LBB9_46
Ltmp921:
	.loc	18 0 38 is_stmt 0
	movq	%r9, -80(%rbp)
	movq	%r11, -72(%rbp)
Ltmp922:
	.loc	3 2070 18 is_stmt 1
	movq	%rax, -32(%rbp)
	.loc	3 2070 25 is_stmt 0
	movq	%r11, -40(%rbp)
Ltmp923:
	.loc	3 2326 26 is_stmt 1
	subq	%rax, %r11
Ltmp924:
	.loc	3 2326 12 is_stmt 0
	je	LBB9_39
Ltmp925:
	.loc	3 2330 13 is_stmt 1
	jbe	LBB9_47
Ltmp926:
	.loc	3 2332 25
	cmpb	$-65, (%r9,%rax)
Ltmp927:
	.loc	3 2033 13
	jle	LBB9_47
Ltmp928:
LBB9_39:
	.loc	6 164 18
	addq	%r9, %rax
Ltmp929:
	.loc	18 0 0 is_stmt 0
	movq	%r9, %r14
Ltmp930:
	jmp	LBB9_42
Ltmp931:
LBB9_40:
	.loc	18 421 13 is_stmt 1
	movq	%r9, (%rdi)
	movq	%r11, 8(%rdi)
	leaq	l___unnamed_44(%rip), %rax
Ltmp932:
	movq	%rax, 16(%rdi)
	movq	$0, 24(%rdi)
	jmp	LBB9_19
Ltmp933:
LBB9_41:
	.loc	18 0 0 is_stmt 0
	movq	%r9, %rax
Ltmp934:
LBB9_42:
	.loc	3 2294 9 is_stmt 1
	testq	%r11, %r11
Ltmp935:
	.loc	18 416 13
	je	LBB9_18
Ltmp936:
	.loc	18 419 13
	movq	%r14, (%rdi)
	movq	%rsi, 8(%rdi)
	movq	%rax, 16(%rdi)
	movq	%r11, 24(%rdi)
	jmp	LBB9_19
Ltmp937:
LBB9_44:
	.loc	18 0 13 is_stmt 0
	leaq	-80(%rbp), %rax
Ltmp938:
	.loc	11 428 21 is_stmt 1
	movq	%rax, -64(%rbp)
	leaq	-32(%rbp), %rax
	movq	%rax, -56(%rbp)
	leaq	-40(%rbp), %rax
	movq	%rax, -48(%rbp)
	leaq	-64(%rbp), %rdi
	callq	__ZN4core3str6traits101_$LT$impl$u20$core..slice..SliceIndex$LT$str$GT$$u20$for$u20$core..ops..range..Range$LT$usize$GT$$GT$5index28_$u7b$$u7b$closure$u7d$$u7d$17ha96adb8ff842bfdfE
Ltmp939:
LBB9_45:
	.loc	11 0 21 is_stmt 0
	leaq	-64(%rbp), %rdi
Ltmp940:
	.loc	11 428 21
	callq	__ZN4core3str6traits103_$LT$impl$u20$core..slice..SliceIndex$LT$str$GT$$u20$for$u20$core..ops..range..RangeTo$LT$usize$GT$$GT$5index28_$u7b$$u7b$closure$u7d$$u7d$17h7e3253d82a7441adE
Ltmp941:
LBB9_46:
	.loc	18 409 38 is_stmt 1
	leaq	_str.0(%rip), %rdi
	leaq	l___unnamed_45(%rip), %rdx
	movl	$28, %esi
	callq	__ZN4core9panicking5panic17h383a6b80ea7021aaE
Ltmp942:
LBB9_47:
	.loc	18 0 38 is_stmt 0
	leaq	-80(%rbp), %rax
Ltmp943:
	.loc	11 428 21 is_stmt 1
	movq	%rax, -64(%rbp)
	leaq	-32(%rbp), %rax
	movq	%rax, -56(%rbp)
	leaq	-40(%rbp), %rax
	movq	%rax, -48(%rbp)
	leaq	-64(%rbp), %rdi
	callq	__ZN4core3str6traits105_$LT$impl$u20$core..slice..SliceIndex$LT$str$GT$$u20$for$u20$core..ops..range..RangeFrom$LT$usize$GT$$GT$5index28_$u7b$$u7b$closure$u7d$$u7d$17h6be5bad7675462e3E
Ltmp944:
Lfunc_end9:
	.cfi_endproc

	.p2align	4, 0x90
__ZN14rustc_demangle2v06Parser9skip_path17ha4c28c578bd5eb45E:
Lfunc_begin10:
	.loc	18 428 0
	.cfi_startproc
	pushq	%rbp
	.cfi_def_cfa_offset 16
	.cfi_offset %rbp, -16
	movq	%rsp, %rbp
	.cfi_def_cfa_register %rbp
	pushq	%r15
	pushq	%r14
	pushq	%r12
	pushq	%rbx
	subq	$32, %rsp
	.cfi_offset %rbx, -48
	.cfi_offset %r12, -40
	.cfi_offset %r14, -32
	.cfi_offset %r15, -24
	movq	%rdi, %rbx
Ltmp945:
	.loc	18 280 9 prologue_end
	movq	8(%rdi), %rcx
	.loc	18 280 33 is_stmt 0
	movq	16(%rdi), %rdi
	movb	$1, %r14b
Ltmp946:
	.loc	5 3090 12 is_stmt 1
	cmpq	%rdi, %rcx
Ltmp947:
	.loc	11 456 13
	jbe	LBB10_4
Ltmp948:
	.loc	18 294 9
	leaq	1(%rdi), %rsi
Ltmp949:
	.loc	18 280 9
	movq	(%rbx), %r8
Ltmp950:
	.loc	11 456 29
	movb	(%r8,%rdi), %al
Ltmp951:
	.loc	18 294 9
	movq	%rsi, 16(%rbx)
Ltmp952:
	.loc	18 430 13
	addb	$-66, %al
	cmpb	$23, %al
	ja	LBB10_4
Ltmp953:
	.loc	18 0 13 is_stmt 0
	leaq	16(%rbx), %r15
	movzbl	%al, %eax
	leaq	LJTI10_0(%rip), %rdx
	movslq	(%rdx,%rax,4), %rax
	addq	%rdx, %rax
	jmpq	*%rax
Ltmp954:
LBB10_112:
	.loc	5 3090 12 is_stmt 1
	cmpq	%rsi, %rcx
Ltmp955:
	.loc	11 456 13
	jbe	LBB10_113
Ltmp956:
	.loc	7 1052 52
	cmpb	$95, (%r8,%rsi)
Ltmp957:
	.loc	18 284 9
	jne	LBB10_113
Ltmp958:
	.loc	18 285 13
	leaq	2(%rdi), %rax
	movq	%rax, (%r15)
	xorl	%eax, %eax
	jmp	LBB10_127
Ltmp959:
LBB10_6:
	.loc	5 3090 12
	cmpq	%rsi, %rcx
Ltmp960:
	.loc	11 456 13
	jbe	LBB10_25
Ltmp961:
	.loc	7 1052 52
	cmpb	$115, (%r8,%rsi)
Ltmp962:
	.loc	18 284 9
	jne	LBB10_25
Ltmp963:
	.loc	18 285 13
	leaq	2(%rdi), %rsi
	movq	%rsi, (%r15)
Ltmp964:
	.loc	5 3090 12
	cmpq	%rsi, %rcx
Ltmp965:
	.loc	11 456 13
	jbe	LBB10_9
Ltmp966:
	.loc	7 1052 52
	cmpb	$95, (%r8,%rsi)
Ltmp967:
	.loc	18 284 9
	jne	LBB10_9
Ltmp968:
	.loc	18 285 13
	addq	$3, %rdi
	movq	%rdi, (%r15)
Ltmp969:
	.loc	18 0 13 is_stmt 0
	jmp	LBB10_25
Ltmp970:
LBB10_88:
	.loc	18 456 22 is_stmt 1
	movq	%rbx, %rdi
	callq	__ZN14rustc_demangle2v06Parser9skip_path17ha4c28c578bd5eb45E
	.loc	18 456 17 is_stmt 0
	testb	%al, %al
	jne	LBB10_4
Ltmp971:
	.loc	18 0 17
	movl	$62, %r12d
Ltmp972:
LBB10_90:
	.loc	18 280 9 is_stmt 1
	movq	8(%rbx), %rcx
	.loc	18 280 33 is_stmt 0
	movq	16(%rbx), %rax
Ltmp973:
	.loc	5 3090 12 is_stmt 1
	cmpq	%rax, %rcx
Ltmp974:
	.loc	11 456 13
	jbe	LBB10_95
Ltmp975:
	.loc	18 280 9
	movq	(%rbx), %rdx
Ltmp976:
	.loc	7 1052 52
	cmpb	$69, (%rdx,%rax)
Ltmp977:
	.loc	18 284 9
	je	LBB10_92
Ltmp978:
	.loc	18 280 9
	movq	(%rbx), %r8
Ltmp979:
	.loc	7 1052 52
	cmpb	$76, (%r8,%rax)
Ltmp980:
	.loc	18 284 9
	jne	LBB10_94
Ltmp981:
	.loc	18 285 13
	leaq	1(%rax), %rdi
	movq	%rdi, (%r15)
Ltmp982:
	.loc	5 3090 12
	cmpq	%rdi, %rcx
Ltmp983:
	.loc	11 456 13
	jbe	LBB10_98
Ltmp984:
	.loc	7 1052 52
	cmpb	$95, (%r8,%rdi)
Ltmp985:
	.loc	18 284 9
	jne	LBB10_98
Ltmp986:
	.loc	18 285 13
	addq	$2, %rax
	movq	%rax, (%r15)
	jmp	LBB10_90
Ltmp987:
LBB10_94:
	.loc	18 280 9
	movq	(%rbx), %rcx
Ltmp988:
	.loc	7 1052 52
	cmpb	$75, (%rcx,%rax)
Ltmp989:
	.loc	18 284 9
	jne	LBB10_95
Ltmp990:
	.loc	18 285 13
	incq	%rax
	movq	%rax, 16(%rbx)
Ltmp991:
	.loc	18 474 13
	movq	%rbx, %rdi
	callq	__ZN14rustc_demangle2v06Parser10skip_const17h4690d062c25d23a4E
Ltmp992:
	.loc	18 458 21
	testb	%al, %al
	je	LBB10_90
	jmp	LBB10_4
Ltmp993:
LBB10_95:
	.loc	18 476 13
	movq	%rbx, %rdi
	callq	__ZN14rustc_demangle2v06Parser9skip_type17he8e736a2beeaf497E
Ltmp994:
	.loc	18 458 21
	testb	%al, %al
	je	LBB10_90
	jmp	LBB10_4
Ltmp995:
LBB10_98:
	.loc	18 0 0 is_stmt 0
	xorl	%eax, %eax
Ltmp996:
	.p2align	4, 0x90
LBB10_99:
	.loc	5 3090 12 is_stmt 1
	cmpq	%rdi, %rcx
Ltmp997:
	.loc	11 456 13
	jbe	LBB10_4
Ltmp998:
	.loc	11 456 29 is_stmt 0
	movzbl	(%r8,%rdi), %edx
Ltmp999:
	.loc	7 1052 52 is_stmt 1
	cmpb	$95, %dl
Ltmp1000:
	.loc	18 284 9
	je	LBB10_3
Ltmp1001:
	.loc	18 321 22
	leal	-48(%rdx), %esi
	cmpb	$10, %sil
	jb	LBB10_109
Ltmp1002:
	.loc	18 322 22
	leal	-97(%rdx), %esi
	cmpb	$26, %sil
	jae	LBB10_103
Ltmp1003:
	.loc	18 322 38 is_stmt 0
	addb	$-87, %dl
Ltmp1004:
	.loc	18 0 38
	jmp	LBB10_108
Ltmp1005:
LBB10_103:
	.loc	18 323 22 is_stmt 1
	leal	-65(%rdx), %esi
	cmpb	$26, %sil
	jae	LBB10_4
Ltmp1006:
	.loc	18 323 38 is_stmt 0
	addb	$-29, %dl
Ltmp1007:
LBB10_108:
	.loc	18 0 0
	movl	%edx, %esi
Ltmp1008:
LBB10_109:
	.loc	18 326 9 is_stmt 1
	incq	%rdi
	movq	%rdi, (%r15)
Ltmp1009:
	.loc	19 3807 26
	mulq	%r12
Ltmp1010:
	.loc	18 338 17
	jo	LBB10_4
Ltmp1011:
	.loc	18 337 21
	movzbl	%sil, %edx
Ltmp1012:
	.loc	19 3751 30
	addq	%rdx, %rax
Ltmp1013:
	.loc	19 0 30 is_stmt 0
	jae	LBB10_99
	jmp	LBB10_4
Ltmp1014:
LBB10_3:
	.loc	18 285 13 is_stmt 1
	incq	%rdi
Ltmp1015:
	movq	%rdi, (%r15)
Ltmp1016:
	.loc	19 3751 30
	cmpq	$-1, %rax
Ltmp1017:
	.loc	18 471 13
	jne	LBB10_90
	jmp	LBB10_4
Ltmp1018:
LBB10_47:
	.loc	5 3090 12
	cmpq	%rsi, %rcx
Ltmp1019:
	.loc	11 456 13
	jbe	LBB10_65
Ltmp1020:
	.loc	7 1052 52
	cmpb	$115, (%r8,%rsi)
Ltmp1021:
	.loc	18 284 9
	jne	LBB10_65
Ltmp1022:
	.loc	18 285 13
	leaq	2(%rdi), %rsi
	movq	%rsi, (%r15)
Ltmp1023:
	.loc	5 3090 12
	cmpq	%rsi, %rcx
Ltmp1024:
	.loc	11 456 13
	jbe	LBB10_50
Ltmp1025:
	.loc	7 1052 52
	cmpb	$95, (%r8,%rsi)
Ltmp1026:
	.loc	18 284 9
	jne	LBB10_50
Ltmp1027:
	.loc	18 285 13
	addq	$3, %rdi
	movq	%rdi, (%r15)
Ltmp1028:
	.loc	18 0 13 is_stmt 0
	jmp	LBB10_65
Ltmp1029:
LBB10_26:
	.loc	5 3090 12 is_stmt 1
	cmpq	%rsi, %rcx
Ltmp1030:
	.loc	11 456 13
	jbe	LBB10_4
Ltmp1031:
	.loc	11 456 29 is_stmt 0
	movb	1(%r8,%rdi), %al
Ltmp1032:
	.loc	18 294 9 is_stmt 1
	addq	$2, %rdi
	movq	%rdi, (%r15)
Ltmp1033:
	.loc	18 358 18
	leal	-65(%rax), %ecx
Ltmp1034:
	cmpb	$26, %cl
	jb	LBB10_29
Ltmp1035:
	.loc	18 0 18 is_stmt 0
	addb	$-97, %al
	cmpb	$25, %al
	ja	LBB10_4
Ltmp1036:
LBB10_29:
	.loc	18 436 22 is_stmt 1
	movq	%rbx, %rdi
	callq	__ZN14rustc_demangle2v06Parser9skip_path17ha4c28c578bd5eb45E
	.loc	18 436 17 is_stmt 0
	testb	%al, %al
	jne	LBB10_4
Ltmp1037:
	.loc	18 280 9 is_stmt 1
	movq	8(%rbx), %rcx
	.loc	18 280 33 is_stmt 0
	movq	16(%rbx), %rax
Ltmp1038:
	.loc	5 3090 12 is_stmt 1
	cmpq	%rax, %rcx
Ltmp1039:
	.loc	11 456 13
	jbe	LBB10_25
Ltmp1040:
	.loc	18 280 9
	movq	(%rbx), %r9
Ltmp1041:
	.loc	7 1052 52
	cmpb	$115, (%r9,%rax)
Ltmp1042:
	.loc	18 284 9
	jne	LBB10_25
Ltmp1043:
	.loc	18 285 13
	leaq	1(%rax), %rdi
	movq	%rdi, (%r15)
Ltmp1044:
	.loc	5 3090 12
	cmpq	%rdi, %rcx
Ltmp1045:
	.loc	11 456 13
	jbe	LBB10_33
Ltmp1046:
	.loc	7 1052 52
	cmpb	$95, (%r9,%rdi)
Ltmp1047:
	.loc	18 284 9
	jne	LBB10_33
Ltmp1048:
	.loc	18 285 13
	addq	$2, %rax
	movq	%rax, (%r15)
Ltmp1049:
	.loc	18 0 13 is_stmt 0
	jmp	LBB10_25
Ltmp1050:
LBB10_67:
	.loc	5 3090 12 is_stmt 1
	cmpq	%rsi, %rcx
Ltmp1051:
	.loc	11 456 13
	jbe	LBB10_85
Ltmp1052:
	.loc	7 1052 52
	cmpb	$115, (%r8,%rsi)
Ltmp1053:
	.loc	18 284 9
	jne	LBB10_85
Ltmp1054:
	.loc	18 285 13
	leaq	2(%rdi), %rsi
	movq	%rsi, (%r15)
Ltmp1055:
	.loc	5 3090 12
	cmpq	%rsi, %rcx
Ltmp1056:
	.loc	11 456 13
	jbe	LBB10_70
Ltmp1057:
	.loc	7 1052 52
	cmpb	$95, (%r8,%rsi)
Ltmp1058:
	.loc	18 284 9
	jne	LBB10_70
Ltmp1059:
	.loc	18 285 13
	addq	$3, %rdi
	movq	%rdi, (%r15)
Ltmp1060:
	.loc	18 0 13 is_stmt 0
	jmp	LBB10_85
Ltmp1061:
LBB10_113:
	xorl	%eax, %eax
	movl	$62, %r9d
Ltmp1062:
	.p2align	4, 0x90
LBB10_114:
	.loc	5 3090 12 is_stmt 1
	cmpq	%rsi, %rcx
Ltmp1063:
	.loc	11 456 13
	jbe	LBB10_4
Ltmp1064:
	.loc	11 456 29 is_stmt 0
	movzbl	(%r8,%rsi), %edx
Ltmp1065:
	.loc	7 1052 52 is_stmt 1
	cmpb	$95, %dl
Ltmp1066:
	.loc	18 284 9
	je	LBB10_126
Ltmp1067:
	.loc	18 321 22
	leal	-48(%rdx), %ebx
	cmpb	$10, %bl
	jb	LBB10_124
Ltmp1068:
	.loc	18 322 22
	leal	-97(%rdx), %ebx
	cmpb	$26, %bl
	jae	LBB10_118
Ltmp1069:
	.loc	18 322 38 is_stmt 0
	addb	$-87, %dl
Ltmp1070:
	.loc	18 0 38
	jmp	LBB10_123
Ltmp1071:
LBB10_118:
	.loc	18 323 22 is_stmt 1
	leal	-65(%rdx), %ebx
	cmpb	$26, %bl
	jae	LBB10_4
Ltmp1072:
	.loc	18 323 38 is_stmt 0
	addb	$-29, %dl
Ltmp1073:
LBB10_123:
	.loc	18 0 0
	movl	%edx, %ebx
Ltmp1074:
LBB10_124:
	.loc	18 326 9 is_stmt 1
	incq	%rsi
	movq	%rsi, (%r15)
Ltmp1075:
	.loc	19 3807 26
	mulq	%r9
Ltmp1076:
	.loc	18 338 17
	jo	LBB10_4
Ltmp1077:
	.loc	18 337 21
	movzbl	%bl, %edx
Ltmp1078:
	.loc	19 3751 30
	addq	%rdx, %rax
Ltmp1079:
	.loc	19 0 30 is_stmt 0
	jae	LBB10_114
	jmp	LBB10_4
Ltmp1080:
LBB10_9:
	xorl	%eax, %eax
	movl	$62, %r9d
Ltmp1081:
LBB10_10:
	.loc	5 3090 12 is_stmt 1
	cmpq	%rsi, %rcx
Ltmp1082:
	.loc	11 456 13
	jbe	LBB10_4
Ltmp1083:
	.loc	11 456 29 is_stmt 0
	movzbl	(%r8,%rsi), %edx
Ltmp1084:
	.loc	7 1052 52 is_stmt 1
	cmpb	$95, %dl
Ltmp1085:
	.loc	18 284 9
	je	LBB10_22
Ltmp1086:
	.loc	18 321 22
	leal	-48(%rdx), %edi
	cmpb	$10, %dil
	jb	LBB10_20
Ltmp1087:
	.loc	18 322 22
	leal	-97(%rdx), %edi
	cmpb	$26, %dil
	jae	LBB10_14
Ltmp1088:
	.loc	18 322 38 is_stmt 0
	addb	$-87, %dl
Ltmp1089:
	.loc	18 0 38
	jmp	LBB10_19
Ltmp1090:
LBB10_14:
	.loc	18 323 22 is_stmt 1
	leal	-65(%rdx), %edi
	cmpb	$26, %dil
	jae	LBB10_4
Ltmp1091:
	.loc	18 323 38 is_stmt 0
	addb	$-29, %dl
Ltmp1092:
LBB10_19:
	.loc	18 0 0
	movl	%edx, %edi
Ltmp1093:
LBB10_20:
	.loc	18 326 9 is_stmt 1
	incq	%rsi
	movq	%rsi, (%r15)
Ltmp1094:
	.loc	19 3807 26
	mulq	%r9
Ltmp1095:
	.loc	18 338 17
	jo	LBB10_4
Ltmp1096:
	.loc	18 337 21
	movzbl	%dil, %edx
Ltmp1097:
	.loc	19 3751 30
	addq	%rdx, %rax
Ltmp1098:
	.loc	19 0 30 is_stmt 0
	jae	LBB10_10
	jmp	LBB10_4
Ltmp1099:
LBB10_50:
	xorl	%eax, %eax
	movl	$62, %r9d
Ltmp1100:
LBB10_51:
	.loc	5 3090 12 is_stmt 1
	cmpq	%rsi, %rcx
Ltmp1101:
	.loc	11 456 13
	jbe	LBB10_4
Ltmp1102:
	.loc	11 456 29 is_stmt 0
	movzbl	(%r8,%rsi), %edx
Ltmp1103:
	.loc	7 1052 52 is_stmt 1
	cmpb	$95, %dl
Ltmp1104:
	.loc	18 284 9
	je	LBB10_63
Ltmp1105:
	.loc	18 321 22
	leal	-48(%rdx), %edi
	cmpb	$10, %dil
	jb	LBB10_61
Ltmp1106:
	.loc	18 322 22
	leal	-97(%rdx), %edi
	cmpb	$26, %dil
	jae	LBB10_55
Ltmp1107:
	.loc	18 322 38 is_stmt 0
	addb	$-87, %dl
Ltmp1108:
	.loc	18 0 38
	jmp	LBB10_60
Ltmp1109:
LBB10_55:
	.loc	18 323 22 is_stmt 1
	leal	-65(%rdx), %edi
	cmpb	$26, %dil
	jae	LBB10_4
Ltmp1110:
	.loc	18 323 38 is_stmt 0
	addb	$-29, %dl
Ltmp1111:
LBB10_60:
	.loc	18 0 0
	movl	%edx, %edi
Ltmp1112:
LBB10_61:
	.loc	18 326 9 is_stmt 1
	incq	%rsi
	movq	%rsi, (%r15)
Ltmp1113:
	.loc	19 3807 26
	mulq	%r9
Ltmp1114:
	.loc	18 338 17
	jo	LBB10_4
Ltmp1115:
	.loc	18 337 21
	movzbl	%dil, %edx
Ltmp1116:
	.loc	19 3751 30
	addq	%rdx, %rax
Ltmp1117:
	.loc	19 0 30 is_stmt 0
	jae	LBB10_51
	jmp	LBB10_4
Ltmp1118:
LBB10_70:
	xorl	%eax, %eax
	movl	$62, %r9d
Ltmp1119:
LBB10_71:
	.loc	5 3090 12 is_stmt 1
	cmpq	%rsi, %rcx
Ltmp1120:
	.loc	11 456 13
	jbe	LBB10_4
Ltmp1121:
	.loc	11 456 29 is_stmt 0
	movzbl	(%r8,%rsi), %edx
Ltmp1122:
	.loc	7 1052 52 is_stmt 1
	cmpb	$95, %dl
Ltmp1123:
	.loc	18 284 9
	je	LBB10_83
Ltmp1124:
	.loc	18 321 22
	leal	-48(%rdx), %edi
	cmpb	$10, %dil
	jb	LBB10_81
Ltmp1125:
	.loc	18 322 22
	leal	-97(%rdx), %edi
	cmpb	$26, %dil
	jae	LBB10_75
Ltmp1126:
	.loc	18 322 38 is_stmt 0
	addb	$-87, %dl
Ltmp1127:
	.loc	18 0 38
	jmp	LBB10_80
Ltmp1128:
LBB10_75:
	.loc	18 323 22 is_stmt 1
	leal	-65(%rdx), %edi
	cmpb	$26, %dil
	jae	LBB10_4
Ltmp1129:
	.loc	18 323 38 is_stmt 0
	addb	$-29, %dl
Ltmp1130:
LBB10_80:
	.loc	18 0 0
	movl	%edx, %edi
Ltmp1131:
LBB10_81:
	.loc	18 326 9 is_stmt 1
	incq	%rsi
	movq	%rsi, (%r15)
Ltmp1132:
	.loc	19 3807 26
	mulq	%r9
Ltmp1133:
	.loc	18 338 17
	jo	LBB10_4
Ltmp1134:
	.loc	18 337 21
	movzbl	%dil, %edx
Ltmp1135:
	.loc	19 3751 30
	addq	%rdx, %rax
Ltmp1136:
	.loc	19 0 30 is_stmt 0
	jae	LBB10_71
	jmp	LBB10_4
Ltmp1137:
LBB10_126:
	.loc	18 285 13 is_stmt 1
	incq	%rsi
Ltmp1138:
	movq	%rsi, (%r15)
Ltmp1139:
	.loc	19 3751 30
	incq	%rax
Ltmp1140:
	.loc	18 369 17
	je	LBB10_4
Ltmp1141:
LBB10_127:
	.loc	18 370 12
	cmpq	%rdi, %rax
	setae	%al
	jmp	LBB10_5
Ltmp1142:
LBB10_22:
	.loc	18 285 13
	incq	%rsi
Ltmp1143:
	movq	%rsi, (%r15)
Ltmp1144:
	.loc	18 0 0 is_stmt 0
	incq	%rax
Ltmp1145:
	je	LBB10_4
Ltmp1146:
LBB10_24:
	cmpq	$-1, %rax
	je	LBB10_4
Ltmp1147:
LBB10_25:
	leaq	-64(%rbp), %rdi
	movq	%rbx, %rsi
	callq	__ZN14rustc_demangle2v06Parser5ident17hbde95aecd22e76bbE
	cmpq	$0, -64(%rbp)
	sete	%r14b
	jmp	LBB10_4
Ltmp1148:
LBB10_83:
	.loc	18 285 13
	incq	%rsi
Ltmp1149:
	movq	%rsi, (%r15)
Ltmp1150:
	.loc	19 3751 30 is_stmt 1
	incq	%rax
Ltmp1151:
	.loc	18 348 9
	je	LBB10_4
Ltmp1152:
	cmpq	$-1, %rax
	je	LBB10_4
Ltmp1153:
LBB10_85:
	.loc	18 447 22
	movq	%rbx, %rdi
	callq	__ZN14rustc_demangle2v06Parser9skip_path17ha4c28c578bd5eb45E
	.loc	18 447 17 is_stmt 0
	testb	%al, %al
	jne	LBB10_4
Ltmp1154:
LBB10_86:
	.loc	18 0 0
	movq	%rbx, %rdi
	callq	__ZN14rustc_demangle2v06Parser9skip_type17he8e736a2beeaf497E
	testb	%al, %al
	jne	LBB10_4
Ltmp1155:
	movq	%rbx, %rdi
	addq	$32, %rsp
	popq	%rbx
Ltmp1156:
	popq	%r12
	popq	%r14
	popq	%r15
	popq	%rbp
	jmp	__ZN14rustc_demangle2v06Parser9skip_path17ha4c28c578bd5eb45E
LBB10_63:
Ltmp1157:
	.loc	18 285 13 is_stmt 1
	incq	%rsi
Ltmp1158:
	movq	%rsi, (%r15)
Ltmp1159:
	.loc	19 3751 30
	incq	%rax
Ltmp1160:
	.loc	18 348 9
	je	LBB10_4
Ltmp1161:
	cmpq	$-1, %rax
	je	LBB10_4
Ltmp1162:
LBB10_65:
	.loc	18 442 22
	movq	%rbx, %rdi
	callq	__ZN14rustc_demangle2v06Parser9skip_path17ha4c28c578bd5eb45E
	.loc	18 442 17 is_stmt 0
	testb	%al, %al
	je	LBB10_66
Ltmp1163:
LBB10_4:
	.loc	18 467 6 is_stmt 1
	movl	%r14d, %eax
LBB10_5:
	.loc	18 0 0 is_stmt 0
	addq	$32, %rsp
	popq	%rbx
	popq	%r12
	popq	%r14
	popq	%r15
	popq	%rbp
	retq
LBB10_66:
Ltmp1164:
	.loc	18 443 22 is_stmt 1
	movq	%rbx, %rdi
	addq	$32, %rsp
	popq	%rbx
Ltmp1165:
	popq	%r12
	popq	%r14
	popq	%r15
	popq	%rbp
	jmp	__ZN14rustc_demangle2v06Parser9skip_type17he8e736a2beeaf497E
LBB10_92:
Ltmp1166:
	.loc	18 285 13
	incq	%rax
	movq	%rax, (%r15)
	xorl	%r14d, %r14d
	jmp	LBB10_4
Ltmp1167:
LBB10_33:
	.loc	18 0 13 is_stmt 0
	xorl	%eax, %eax
	movl	$62, %r8d
Ltmp1168:
LBB10_34:
	.loc	5 3090 12 is_stmt 1
	cmpq	%rdi, %rcx
Ltmp1169:
	.loc	11 456 13
	jbe	LBB10_4
Ltmp1170:
	.loc	11 456 29 is_stmt 0
	movzbl	(%r9,%rdi), %edx
Ltmp1171:
	.loc	7 1052 52 is_stmt 1
	cmpb	$95, %dl
Ltmp1172:
	.loc	18 284 9
	je	LBB10_46
Ltmp1173:
	.loc	18 321 22
	leal	-48(%rdx), %esi
	cmpb	$10, %sil
	jb	LBB10_44
Ltmp1174:
	.loc	18 322 22
	leal	-97(%rdx), %esi
	cmpb	$26, %sil
	jae	LBB10_38
Ltmp1175:
	.loc	18 322 38 is_stmt 0
	addb	$-87, %dl
Ltmp1176:
	.loc	18 0 38
	jmp	LBB10_43
Ltmp1177:
LBB10_38:
	.loc	18 323 22 is_stmt 1
	leal	-65(%rdx), %esi
	cmpb	$26, %sil
	jae	LBB10_4
Ltmp1178:
	.loc	18 323 38 is_stmt 0
	addb	$-29, %dl
Ltmp1179:
LBB10_43:
	.loc	18 0 0
	movl	%edx, %esi
Ltmp1180:
LBB10_44:
	.loc	18 326 9 is_stmt 1
	incq	%rdi
	movq	%rdi, (%r15)
Ltmp1181:
	.loc	19 3807 26
	mulq	%r8
Ltmp1182:
	.loc	18 338 17
	jo	LBB10_4
Ltmp1183:
	.loc	18 337 21
	movzbl	%sil, %edx
Ltmp1184:
	.loc	19 3751 30
	addq	%rdx, %rax
Ltmp1185:
	.loc	19 0 30 is_stmt 0
	jae	LBB10_34
	jmp	LBB10_4
Ltmp1186:
LBB10_46:
	.loc	18 285 13 is_stmt 1
	incq	%rdi
Ltmp1187:
	movq	%rdi, (%r15)
Ltmp1188:
	.loc	18 0 0 is_stmt 0
	incq	%rax
Ltmp1189:
	jne	LBB10_24
	jmp	LBB10_4
Ltmp1190:
Lfunc_end10:
	.cfi_endproc
	.p2align	2, 0x90
	.data_region jt32
.set L10_0_set_112, LBB10_112-LJTI10_0
.set L10_0_set_6, LBB10_6-LJTI10_0
.set L10_0_set_4, LBB10_4-LJTI10_0
.set L10_0_set_88, LBB10_88-LJTI10_0
.set L10_0_set_47, LBB10_47-LJTI10_0
.set L10_0_set_26, LBB10_26-LJTI10_0
.set L10_0_set_67, LBB10_67-LJTI10_0
.set L10_0_set_86, LBB10_86-LJTI10_0
LJTI10_0:
	.long	L10_0_set_112
	.long	L10_0_set_6
	.long	L10_0_set_4
	.long	L10_0_set_4
	.long	L10_0_set_4
	.long	L10_0_set_4
	.long	L10_0_set_4
	.long	L10_0_set_88
	.long	L10_0_set_4
	.long	L10_0_set_4
	.long	L10_0_set_4
	.long	L10_0_set_47
	.long	L10_0_set_26
	.long	L10_0_set_4
	.long	L10_0_set_4
	.long	L10_0_set_4
	.long	L10_0_set_4
	.long	L10_0_set_4
	.long	L10_0_set_4
	.long	L10_0_set_4
	.long	L10_0_set_4
	.long	L10_0_set_4
	.long	L10_0_set_67
	.long	L10_0_set_86
	.end_data_region

	.p2align	4, 0x90
__ZN14rustc_demangle2v06Parser9skip_type17he8e736a2beeaf497E:
Lfunc_begin11:
	.loc	18 480 0 is_stmt 1
	.cfi_startproc
	pushq	%rbp
	.cfi_def_cfa_offset 16
	.cfi_offset %rbp, -16
	movq	%rsp, %rbp
	.cfi_def_cfa_register %rbp
	pushq	%r15
	pushq	%r14
	pushq	%rbx
	subq	$40, %rsp
	.cfi_offset %rbx, -40
	.cfi_offset %r14, -32
	.cfi_offset %r15, -24
	movq	%rdi, %rbx
Ltmp1191:
	.loc	18 280 9 prologue_end
	movq	8(%rdi), %r9
	.loc	18 280 33 is_stmt 0
	movq	16(%rdi), %rdi
Ltmp1192:
	.loc	5 3090 12 is_stmt 1
	cmpq	%rdi, %r9
Ltmp1193:
	.loc	11 456 13
	jbe	LBB11_1
Ltmp1194:
	.loc	18 294 9
	leaq	1(%rdi), %rsi
Ltmp1195:
	.loc	18 280 9
	movq	(%rbx), %r8
Ltmp1196:
	.loc	11 456 29
	movb	(%r8,%rdi), %cl
Ltmp1197:
	.loc	18 294 9
	movq	%rsi, 16(%rbx)
Ltmp1198:
	.loc	18 247 9
	addb	$-65, %cl
	cmpb	$57, %cl
	ja	LBB11_126
Ltmp1199:
	.loc	18 0 9 is_stmt 0
	leaq	16(%rbx), %r15
	xorl	%eax, %eax
	movzbl	%cl, %ecx
	leaq	LJTI11_0(%rip), %rdx
	movslq	(%rdx,%rcx,4), %rcx
	addq	%rdx, %rcx
	jmpq	*%rcx
Ltmp1200:
LBB11_6:
	.loc	5 3090 12 is_stmt 1
	cmpq	%rsi, %r9
Ltmp1201:
	.loc	11 456 13
	jbe	LBB11_23
Ltmp1202:
	.loc	7 1052 52
	cmpb	$76, (%r8,%rsi)
Ltmp1203:
	.loc	18 284 9
	jne	LBB11_23
Ltmp1204:
	.loc	18 285 13
	leaq	2(%rdi), %rsi
	movq	%rsi, (%r15)
Ltmp1205:
	.loc	5 3090 12
	cmpq	%rsi, %r9
Ltmp1206:
	.loc	11 456 13
	jbe	LBB11_9
Ltmp1207:
	.loc	7 1052 52
	cmpb	$95, (%r8,%rsi)
Ltmp1208:
	.loc	18 284 9
	jne	LBB11_9
Ltmp1209:
	.loc	18 285 13
	addq	$3, %rdi
	movq	%rdi, (%r15)
	jmp	LBB11_23
Ltmp1210:
	.p2align	4, 0x90
LBB11_26:
	.loc	18 496 22
	movq	%rbx, %rdi
	callq	__ZN14rustc_demangle2v06Parser9skip_type17he8e736a2beeaf497E
	.loc	18 496 17 is_stmt 0
	testb	%al, %al
	jne	LBB11_1
Ltmp1211:
	.loc	18 280 9 is_stmt 1
	movq	8(%rbx), %r9
	.loc	18 280 33 is_stmt 0
	movq	16(%rbx), %rsi
Ltmp1212:
LBB11_28:
	.loc	5 3090 12 is_stmt 1
	cmpq	%rsi, %r9
Ltmp1213:
	.loc	11 456 13
	jbe	LBB11_26
Ltmp1214:
	.loc	18 280 9
	movq	(%rbx), %rax
Ltmp1215:
	.loc	7 1052 52
	cmpb	$69, (%rax,%rsi)
Ltmp1216:
	.loc	18 284 9
	jne	LBB11_26
Ltmp1217:
	.loc	18 285 13
	incq	%rsi
Ltmp1218:
LBB11_31:
	.loc	18 0 0 is_stmt 0
	movq	%rsi, (%r15)
	xorl	%eax, %eax
	jmp	LBB11_2
Ltmp1219:
LBB11_24:
	.loc	18 492 22 is_stmt 1
	movq	%rbx, %rdi
	callq	__ZN14rustc_demangle2v06Parser9skip_type17he8e736a2beeaf497E
	movl	%eax, %ecx
	movb	$1, %al
	.loc	18 492 17 is_stmt 0
	testb	%cl, %cl
	jne	LBB11_2
Ltmp1220:
	.loc	18 493 22 is_stmt 1
	movq	%rbx, %rdi
	addq	$40, %rsp
	popq	%rbx
Ltmp1221:
	popq	%r14
	popq	%r15
	popq	%rbp
	jmp	__ZN14rustc_demangle2v06Parser10skip_const17h4690d062c25d23a4E
LBB11_110:
Ltmp1222:
	.loc	5 3090 12
	cmpq	%rsi, %r9
Ltmp1223:
	.loc	11 456 13
	jbe	LBB11_111
Ltmp1224:
	.loc	7 1052 52
	cmpb	$95, (%r8,%rsi)
Ltmp1225:
	.loc	18 284 9
	jne	LBB11_111
Ltmp1226:
	.loc	18 285 13
	leaq	2(%rdi), %rax
	movq	%rax, (%r15)
	xorl	%ecx, %ecx
	jmp	LBB11_125
Ltmp1227:
LBB11_126:
	.loc	18 534 17
	movq	%rdi, 16(%rbx)
	.loc	18 535 22
	movq	%rbx, %rdi
	addq	$40, %rsp
	popq	%rbx
Ltmp1228:
	popq	%r14
	popq	%r15
	popq	%rbp
	jmp	__ZN14rustc_demangle2v06Parser9skip_path17ha4c28c578bd5eb45E
LBB11_65:
Ltmp1229:
	.loc	5 3090 12
	cmpq	%rsi, %r9
Ltmp1230:
	.loc	11 456 13
	jbe	LBB11_77
Ltmp1231:
	.loc	7 1052 52
	cmpb	$71, (%r8,%rsi)
Ltmp1232:
	.loc	18 284 9
	jne	LBB11_77
Ltmp1233:
	.loc	18 285 13
	leaq	2(%rdi), %rsi
	movq	%rsi, (%r15)
Ltmp1234:
	.loc	5 3090 12
	cmpq	%rsi, %r9
Ltmp1235:
	.loc	11 456 13
	jbe	LBB11_68
Ltmp1236:
	.loc	7 1052 52
	cmpb	$95, (%r8,%rsi)
Ltmp1237:
	.loc	18 284 9
	jne	LBB11_68
Ltmp1238:
	.loc	18 285 13
	addq	$3, %rdi
	movq	%rdi, (%r15)
Ltmp1239:
	.loc	18 0 13 is_stmt 0
	movq	%rdi, %rsi
	jmp	LBB11_77
Ltmp1240:
LBB11_32:
	.loc	5 3090 12 is_stmt 1
	cmpq	%rsi, %r9
Ltmp1241:
	.loc	11 456 13
	jbe	LBB11_44
Ltmp1242:
	.loc	7 1052 52
	cmpb	$71, (%r8,%rsi)
Ltmp1243:
	.loc	18 284 9
	jne	LBB11_44
Ltmp1244:
	.loc	18 285 13
	leaq	2(%rdi), %rsi
	movq	%rsi, (%r15)
Ltmp1245:
	.loc	5 3090 12
	cmpq	%rsi, %r9
Ltmp1246:
	.loc	11 456 13
	jbe	LBB11_35
Ltmp1247:
	.loc	7 1052 52
	cmpb	$95, (%r8,%rsi)
Ltmp1248:
	.loc	18 284 9
	jne	LBB11_35
Ltmp1249:
	.loc	18 285 13
	addq	$3, %rdi
	movq	%rdi, (%r15)
Ltmp1250:
	.loc	18 280 33
	movq	%rdi, %rsi
	jmp	LBB11_44
Ltmp1251:
LBB11_111:
	.loc	18 0 33 is_stmt 0
	xorl	%ecx, %ecx
	movl	$62, %r10d
Ltmp1252:
LBB11_112:
	.loc	5 3090 12 is_stmt 1
	cmpq	%rsi, %r9
Ltmp1253:
	.loc	11 456 13
	jbe	LBB11_1
Ltmp1254:
	.loc	11 456 29 is_stmt 0
	movzbl	(%r8,%rsi), %eax
Ltmp1255:
	.loc	7 1052 52 is_stmt 1
	cmpb	$95, %al
Ltmp1256:
	.loc	18 284 9
	je	LBB11_124
Ltmp1257:
	.loc	18 321 22
	leal	-48(%rax), %ebx
	cmpb	$10, %bl
	jb	LBB11_122
Ltmp1258:
	.loc	18 322 22
	leal	-97(%rax), %edx
	cmpb	$26, %dl
	jae	LBB11_116
Ltmp1259:
	.loc	18 322 38 is_stmt 0
	addb	$-87, %al
Ltmp1260:
	.loc	18 0 38
	jmp	LBB11_121
Ltmp1261:
LBB11_116:
	.loc	18 323 22 is_stmt 1
	leal	-65(%rax), %edx
	cmpb	$26, %dl
	jae	LBB11_1
Ltmp1262:
	.loc	18 323 38 is_stmt 0
	addb	$-29, %al
Ltmp1263:
LBB11_121:
	.loc	18 0 0
	movl	%eax, %ebx
Ltmp1264:
LBB11_122:
	.loc	18 326 9 is_stmt 1
	incq	%rsi
	movq	%rsi, (%r15)
Ltmp1265:
	.loc	19 3807 26
	movq	%rcx, %rax
	mulq	%r10
Ltmp1266:
	.loc	18 338 17
	jo	LBB11_1
Ltmp1267:
	.loc	18 0 0 is_stmt 0
	movq	%rax, %rcx
Ltmp1268:
	.loc	18 337 21 is_stmt 1
	movzbl	%bl, %eax
Ltmp1269:
	.loc	19 3751 30
	addq	%rax, %rcx
Ltmp1270:
	.loc	19 0 30 is_stmt 0
	jae	LBB11_112
	jmp	LBB11_1
Ltmp1271:
LBB11_9:
	xorl	%ecx, %ecx
	movl	$62, %r10d
Ltmp1272:
LBB11_10:
	.loc	5 3090 12 is_stmt 1
	cmpq	%rsi, %r9
Ltmp1273:
	.loc	11 456 13
	jbe	LBB11_1
Ltmp1274:
	.loc	11 456 29 is_stmt 0
	movzbl	(%r8,%rsi), %eax
Ltmp1275:
	.loc	7 1052 52 is_stmt 1
	cmpb	$95, %al
Ltmp1276:
	.loc	18 284 9
	je	LBB11_22
Ltmp1277:
	.loc	18 321 22
	leal	-48(%rax), %edi
	cmpb	$10, %dil
	jb	LBB11_20
Ltmp1278:
	.loc	18 322 22
	leal	-97(%rax), %edx
	cmpb	$26, %dl
	jae	LBB11_14
Ltmp1279:
	.loc	18 322 38 is_stmt 0
	addb	$-87, %al
Ltmp1280:
	.loc	18 0 38
	jmp	LBB11_19
Ltmp1281:
LBB11_14:
	.loc	18 323 22 is_stmt 1
	leal	-65(%rax), %edx
	cmpb	$26, %dl
	jae	LBB11_1
Ltmp1282:
	.loc	18 323 38 is_stmt 0
	addb	$-29, %al
Ltmp1283:
LBB11_19:
	.loc	18 0 0
	movl	%eax, %edi
Ltmp1284:
LBB11_20:
	.loc	18 326 9 is_stmt 1
	incq	%rsi
	movq	%rsi, (%r15)
Ltmp1285:
	.loc	19 3807 26
	movq	%rcx, %rax
	mulq	%r10
Ltmp1286:
	.loc	18 338 17
	jo	LBB11_1
Ltmp1287:
	.loc	18 0 0 is_stmt 0
	movq	%rax, %rcx
Ltmp1288:
	.loc	18 337 21 is_stmt 1
	movzbl	%dil, %eax
Ltmp1289:
	.loc	19 3751 30
	addq	%rax, %rcx
Ltmp1290:
	.loc	19 0 30 is_stmt 0
	jae	LBB11_10
	jmp	LBB11_1
Ltmp1291:
LBB11_68:
	xorl	%eax, %eax
	movl	$62, %ecx
Ltmp1292:
LBB11_69:
	.loc	5 3090 12 is_stmt 1
	cmpq	%rsi, %r9
Ltmp1293:
	.loc	11 456 13
	jbe	LBB11_1
Ltmp1294:
	.loc	11 456 29 is_stmt 0
	movzbl	(%r8,%rsi), %edx
Ltmp1295:
	.loc	7 1052 52 is_stmt 1
	cmpb	$95, %dl
Ltmp1296:
	.loc	18 284 9
	je	LBB11_94
Ltmp1297:
	.loc	18 321 22
	leal	-48(%rdx), %edi
	cmpb	$10, %dil
	jb	LBB11_92
Ltmp1298:
	.loc	18 322 22
	leal	-97(%rdx), %edi
	cmpb	$26, %dil
	jae	LBB11_73
Ltmp1299:
	.loc	18 322 38 is_stmt 0
	addb	$-87, %dl
Ltmp1300:
	.loc	18 0 38
	jmp	LBB11_91
Ltmp1301:
LBB11_73:
	.loc	18 323 22 is_stmt 1
	leal	-65(%rdx), %edi
	cmpb	$26, %dil
	jae	LBB11_1
Ltmp1302:
	.loc	18 323 38 is_stmt 0
	addb	$-29, %dl
Ltmp1303:
LBB11_91:
	.loc	18 0 0
	movl	%edx, %edi
Ltmp1304:
LBB11_92:
	.loc	18 326 9 is_stmt 1
	incq	%rsi
	movq	%rsi, (%r15)
Ltmp1305:
	.loc	19 3807 26
	mulq	%rcx
Ltmp1306:
	.loc	18 338 17
	jo	LBB11_1
Ltmp1307:
	.loc	18 337 21
	movzbl	%dil, %edx
Ltmp1308:
	.loc	19 3751 30
	addq	%rdx, %rax
Ltmp1309:
	.loc	19 0 30 is_stmt 0
	jae	LBB11_69
	jmp	LBB11_1
Ltmp1310:
LBB11_35:
	xorl	%eax, %eax
	movl	$62, %ecx
Ltmp1311:
LBB11_36:
	.loc	5 3090 12 is_stmt 1
	cmpq	%rsi, %r9
Ltmp1312:
	.loc	11 456 13
	jbe	LBB11_1
Ltmp1313:
	.loc	11 456 29 is_stmt 0
	movzbl	(%r8,%rsi), %edx
Ltmp1314:
	.loc	7 1052 52 is_stmt 1
	cmpb	$95, %dl
Ltmp1315:
	.loc	18 284 9
	je	LBB11_59
Ltmp1316:
	.loc	18 321 22
	leal	-48(%rdx), %edi
	cmpb	$10, %dil
	jb	LBB11_57
Ltmp1317:
	.loc	18 322 22
	leal	-97(%rdx), %edi
	cmpb	$26, %dil
	jae	LBB11_40
Ltmp1318:
	.loc	18 322 38 is_stmt 0
	addb	$-87, %dl
Ltmp1319:
	.loc	18 0 38
	jmp	LBB11_56
Ltmp1320:
LBB11_40:
	.loc	18 323 22 is_stmt 1
	leal	-65(%rdx), %edi
	cmpb	$26, %dil
	jae	LBB11_1
Ltmp1321:
	.loc	18 323 38 is_stmt 0
	addb	$-29, %dl
Ltmp1322:
LBB11_56:
	.loc	18 0 0
	movl	%edx, %edi
Ltmp1323:
LBB11_57:
	.loc	18 326 9 is_stmt 1
	incq	%rsi
	movq	%rsi, (%r15)
Ltmp1324:
	.loc	19 3807 26
	mulq	%rcx
Ltmp1325:
	.loc	18 338 17
	jo	LBB11_1
Ltmp1326:
	.loc	18 337 21
	movzbl	%dil, %edx
Ltmp1327:
	.loc	19 3751 30
	addq	%rdx, %rax
Ltmp1328:
	.loc	19 0 30 is_stmt 0
	jae	LBB11_36
	jmp	LBB11_1
Ltmp1329:
LBB11_124:
	.loc	18 285 13 is_stmt 1
	incq	%rsi
Ltmp1330:
	movq	%rsi, (%r15)
	movb	$1, %al
Ltmp1331:
	.loc	19 3751 30
	incq	%rcx
Ltmp1332:
	.loc	18 369 17
	je	LBB11_2
Ltmp1333:
LBB11_125:
	.loc	18 370 12
	cmpq	%rdi, %rcx
	setae	%al
	jmp	LBB11_3
Ltmp1334:
LBB11_22:
	.loc	18 285 13
	incq	%rsi
Ltmp1335:
	movq	%rsi, (%r15)
	movb	$1, %al
Ltmp1336:
	.loc	19 3751 30
	cmpq	$-1, %rcx
	jne	LBB11_23
	jmp	LBB11_2
Ltmp1337:
LBB11_94:
	.loc	18 285 13
	incq	%rsi
Ltmp1338:
	movq	%rsi, (%r15)
Ltmp1339:
	.loc	19 3751 30
	incq	%rax
Ltmp1340:
	.loc	18 348 9
	je	LBB11_1
Ltmp1341:
	cmpq	$-1, %rax
	je	LBB11_1
Ltmp1342:
LBB11_77:
	.loc	18 0 9 is_stmt 0
	leaq	-56(%rbp), %r14
Ltmp1343:
LBB11_78:
	.loc	5 3090 12 is_stmt 1
	cmpq	%rsi, %r9
Ltmp1344:
	.loc	11 456 13
	jbe	LBB11_96
Ltmp1345:
	.loc	18 280 9
	movq	(%rbx), %rcx
Ltmp1346:
	.loc	7 1052 52
	cmpb	$69, (%rcx,%rsi)
Ltmp1347:
	.loc	18 284 9
	je	LBB11_80
Ltmp1348:
LBB11_96:
	.loc	18 518 26
	movq	%rbx, %rdi
	callq	__ZN14rustc_demangle2v06Parser9skip_path17ha4c28c578bd5eb45E
	.loc	18 0 0 is_stmt 0
	testb	%al, %al
	jne	LBB11_1
Ltmp1349:
	.p2align	4, 0x90
LBB11_98:
	.loc	18 280 9 is_stmt 1
	movq	8(%rbx), %r9
	.loc	18 280 33 is_stmt 0
	movq	16(%rbx), %rsi
Ltmp1350:
	.loc	5 3090 12 is_stmt 1
	cmpq	%rsi, %r9
Ltmp1351:
	.loc	11 456 13
	jbe	LBB11_78
Ltmp1352:
	.loc	18 280 9
	movq	(%rbx), %rax
Ltmp1353:
	.loc	7 1052 52
	cmpb	$112, (%rax,%rsi)
Ltmp1354:
	.loc	18 284 9
	jne	LBB11_78
Ltmp1355:
	.loc	18 285 13
	incq	%rsi
	movq	%rsi, 16(%rbx)
Ltmp1356:
	.loc	18 520 30
	movq	%r14, %rdi
	movq	%rbx, %rsi
	callq	__ZN14rustc_demangle2v06Parser5ident17hbde95aecd22e76bbE
	.loc	18 520 25 is_stmt 0
	cmpq	$0, -56(%rbp)
	je	LBB11_1
Ltmp1357:
	.loc	18 521 30 is_stmt 1
	movq	%rbx, %rdi
	callq	__ZN14rustc_demangle2v06Parser9skip_type17he8e736a2beeaf497E
	.loc	18 0 0 is_stmt 0
	testb	%al, %al
	je	LBB11_98
Ltmp1358:
LBB11_1:
	movb	$1, %al
LBB11_2:
LBB11_3:
	addq	$40, %rsp
	popq	%rbx
	popq	%r14
	popq	%r15
	popq	%rbp
	retq
LBB11_59:
Ltmp1359:
	.loc	18 285 13 is_stmt 1
	incq	%rsi
Ltmp1360:
	movq	%rsi, (%r15)
Ltmp1361:
	.loc	19 3751 30
	incq	%rax
Ltmp1362:
	.loc	18 348 9
	je	LBB11_1
Ltmp1363:
	cmpq	$-1, %rax
	je	LBB11_1
Ltmp1364:
LBB11_44:
	.loc	5 3090 12
	cmpq	%rsi, %r9
Ltmp1365:
	.loc	11 456 13
	jbe	LBB11_47
Ltmp1366:
	.loc	7 1052 52
	cmpb	$85, (%r8,%rsi)
Ltmp1367:
	.loc	18 284 9
	jne	LBB11_47
Ltmp1368:
	.loc	18 285 13
	incq	%rsi
	movq	%rsi, (%r15)
Ltmp1369:
LBB11_47:
	.loc	5 3090 12
	cmpq	%rsi, %r9
Ltmp1370:
	.loc	11 456 13
	jbe	LBB11_52
Ltmp1371:
	.loc	7 1052 52
	cmpb	$75, (%r8,%rsi)
Ltmp1372:
	.loc	18 284 9
	jne	LBB11_52
Ltmp1373:
	.loc	18 285 13
	leaq	1(%rsi), %rax
	movq	%rax, (%r15)
Ltmp1374:
	.loc	5 3090 12
	cmpq	%rax, %r9
Ltmp1375:
	.loc	11 456 13
	jbe	LBB11_61
Ltmp1376:
	.loc	7 1052 52
	cmpb	$67, (%r8,%rax)
Ltmp1377:
	.loc	18 284 9
	jne	LBB11_61
Ltmp1378:
	.loc	18 285 13
	addq	$2, %rsi
	movq	%rsi, (%r15)
Ltmp1379:
	.loc	18 0 13 is_stmt 0
	jmp	LBB11_52
Ltmp1380:
LBB11_61:
	leaq	-56(%rbp), %rdi
Ltmp1381:
	.loc	18 504 40 is_stmt 1
	movq	%rbx, %rsi
	callq	__ZN14rustc_demangle2v06Parser5ident17hbde95aecd22e76bbE
	.loc	18 504 35 is_stmt 0
	cmpq	$0, -56(%rbp)
	je	LBB11_1
Ltmp1382:
	.loc	3 2294 9 is_stmt 1
	cmpq	$0, -48(%rbp)
Ltmp1383:
	.loc	18 505 28
	je	LBB11_1
Ltmp1384:
	.loc	3 2294 9
	cmpq	$0, -32(%rbp)
	jne	LBB11_1
	jmp	LBB11_52
Ltmp1385:
	.p2align	4, 0x90
LBB11_64:
	.loc	18 0 0 is_stmt 0
	movq	%rbx, %rdi
	callq	__ZN14rustc_demangle2v06Parser9skip_type17he8e736a2beeaf497E
	.loc	18 511 21 is_stmt 1
	testb	%al, %al
	jne	LBB11_1
Ltmp1386:
LBB11_52:
	.loc	18 280 33
	movq	16(%rbx), %rax
Ltmp1387:
	.loc	5 3090 12
	cmpq	%rax, 8(%rbx)
Ltmp1388:
	.loc	11 456 13
	jbe	LBB11_64
Ltmp1389:
	.loc	18 280 9
	movq	(%rbx), %rcx
Ltmp1390:
	.loc	7 1052 52
	cmpb	$69, (%rcx,%rax)
Ltmp1391:
	.loc	18 284 9
	jne	LBB11_64
Ltmp1392:
	.loc	18 285 13
	incq	%rax
	movq	%rax, 16(%rbx)
Ltmp1393:
LBB11_23:
	.loc	18 0 0 is_stmt 0
	movq	%rbx, %rdi
	addq	$40, %rsp
	popq	%rbx
Ltmp1394:
	popq	%r14
	popq	%r15
	popq	%rbp
	jmp	__ZN14rustc_demangle2v06Parser9skip_type17he8e736a2beeaf497E
LBB11_80:
Ltmp1395:
	.loc	18 285 13
	leaq	1(%rsi), %rax
	movq	%rax, (%r15)
Ltmp1396:
	.loc	5 3090 12 is_stmt 1
	cmpq	%rax, %r9
Ltmp1397:
	.loc	11 456 13
	jbe	LBB11_1
Ltmp1398:
	.loc	7 1052 52
	cmpb	$76, (%rcx,%rax)
Ltmp1399:
	.loc	18 284 9
	jne	LBB11_1
Ltmp1400:
	.loc	18 285 13
	leaq	2(%rsi), %rdi
	movq	%rdi, (%r15)
Ltmp1401:
	.loc	5 3090 12
	cmpq	%rdi, %r9
Ltmp1402:
	.loc	11 456 13
	jbe	LBB11_83
Ltmp1403:
	.loc	7 1052 52
	cmpb	$95, (%rcx,%rdi)
Ltmp1404:
	.loc	18 284 9
	jne	LBB11_83
Ltmp1405:
	.loc	18 285 13
	addq	$3, %rsi
	jmp	LBB11_31
Ltmp1406:
LBB11_83:
	.loc	18 0 13 is_stmt 0
	xorl	%eax, %eax
	movl	$62, %esi
Ltmp1407:
LBB11_84:
	.loc	5 3090 12 is_stmt 1
	cmpq	%rdi, %r9
Ltmp1408:
	.loc	11 456 13
	jbe	LBB11_1
Ltmp1409:
	.loc	11 456 29 is_stmt 0
	movzbl	(%rcx,%rdi), %edx
Ltmp1410:
	.loc	7 1052 52 is_stmt 1
	cmpb	$95, %dl
Ltmp1411:
	.loc	18 284 9
	je	LBB11_108
Ltmp1412:
	.loc	18 321 22
	leal	-48(%rdx), %ebx
	cmpb	$10, %bl
	jb	LBB11_106
Ltmp1413:
	.loc	18 322 22
	leal	-97(%rdx), %ebx
	cmpb	$26, %bl
	jae	LBB11_88
Ltmp1414:
	.loc	18 322 38 is_stmt 0
	addb	$-87, %dl
Ltmp1415:
	.loc	18 0 38
	jmp	LBB11_105
Ltmp1416:
LBB11_88:
	.loc	18 323 22 is_stmt 1
	leal	-65(%rdx), %ebx
	cmpb	$26, %bl
	jae	LBB11_1
Ltmp1417:
	.loc	18 323 38 is_stmt 0
	addb	$-29, %dl
Ltmp1418:
LBB11_105:
	.loc	18 0 0
	movl	%edx, %ebx
Ltmp1419:
LBB11_106:
	.loc	18 326 9 is_stmt 1
	incq	%rdi
	movq	%rdi, (%r15)
Ltmp1420:
	.loc	19 3807 26
	mulq	%rsi
Ltmp1421:
	.loc	18 338 17
	jo	LBB11_1
Ltmp1422:
	.loc	18 337 21
	movzbl	%bl, %edx
Ltmp1423:
	.loc	19 3751 30
	addq	%rdx, %rax
Ltmp1424:
	.loc	19 0 30 is_stmt 0
	jae	LBB11_84
	jmp	LBB11_1
Ltmp1425:
LBB11_108:
	.loc	18 285 13 is_stmt 1
	incq	%rdi
Ltmp1426:
	movq	%rdi, (%r15)
Ltmp1427:
	.loc	19 3751 30
	cmpq	$-1, %rax
Ltmp1428:
	.loc	18 527 17
	je	LBB11_1
Ltmp1429:
	.loc	18 0 17 is_stmt 0
	xorl	%eax, %eax
Ltmp1430:
	jmp	LBB11_2
Lfunc_end11:
	.cfi_endproc
	.p2align	2, 0x90
	.data_region jt32
.set L11_0_set_24, LBB11_24-LJTI11_0
.set L11_0_set_110, LBB11_110-LJTI11_0
.set L11_0_set_126, LBB11_126-LJTI11_0
.set L11_0_set_65, LBB11_65-LJTI11_0
.set L11_0_set_32, LBB11_32-LJTI11_0
.set L11_0_set_23, LBB11_23-LJTI11_0
.set L11_0_set_6, LBB11_6-LJTI11_0
.set L11_0_set_28, LBB11_28-LJTI11_0
.set L11_0_set_2, LBB11_2-LJTI11_0
LJTI11_0:
	.long	L11_0_set_24
	.long	L11_0_set_110
	.long	L11_0_set_126
	.long	L11_0_set_65
	.long	L11_0_set_126
	.long	L11_0_set_32
	.long	L11_0_set_126
	.long	L11_0_set_126
	.long	L11_0_set_126
	.long	L11_0_set_126
	.long	L11_0_set_126
	.long	L11_0_set_126
	.long	L11_0_set_126
	.long	L11_0_set_126
	.long	L11_0_set_23
	.long	L11_0_set_23
	.long	L11_0_set_6
	.long	L11_0_set_6
	.long	L11_0_set_23
	.long	L11_0_set_28
	.long	L11_0_set_126
	.long	L11_0_set_126
	.long	L11_0_set_126
	.long	L11_0_set_126
	.long	L11_0_set_126
	.long	L11_0_set_126
	.long	L11_0_set_126
	.long	L11_0_set_126
	.long	L11_0_set_126
	.long	L11_0_set_126
	.long	L11_0_set_126
	.long	L11_0_set_126
	.long	L11_0_set_2
	.long	L11_0_set_2
	.long	L11_0_set_2
	.long	L11_0_set_2
	.long	L11_0_set_2
	.long	L11_0_set_2
	.long	L11_0_set_126
	.long	L11_0_set_2
	.long	L11_0_set_2
	.long	L11_0_set_2
	.long	L11_0_set_126
	.long	L11_0_set_2
	.long	L11_0_set_2
	.long	L11_0_set_2
	.long	L11_0_set_2
	.long	L11_0_set_2
	.long	L11_0_set_126
	.long	L11_0_set_126
	.long	L11_0_set_2
	.long	L11_0_set_2
	.long	L11_0_set_2
	.long	L11_0_set_2
	.long	L11_0_set_126
	.long	L11_0_set_2
	.long	L11_0_set_2
	.long	L11_0_set_2
	.end_data_region

	.p2align	4, 0x90
__ZN14rustc_demangle2v06Parser10skip_const17h4690d062c25d23a4E:
Lfunc_begin12:
	.loc	18 541 0 is_stmt 1
	.cfi_startproc
	pushq	%rbp
	.cfi_def_cfa_offset 16
	.cfi_offset %rbp, -16
	movq	%rsp, %rbp
	.cfi_def_cfa_register %rbp
Ltmp1431:
	pushq	%rbx
	subq	$56, %rsp
	.cfi_offset %rbx, -24
	.loc	18 280 9 prologue_end
	movq	8(%rdi), %rcx
	.loc	18 280 33 is_stmt 0
	movq	16(%rdi), %r9
	movb	$1, %r8b
Ltmp1432:
	.loc	5 3090 12 is_stmt 1
	cmpq	%r9, %rcx
Ltmp1433:
	.loc	11 456 13
	jbe	LBB12_33
Ltmp1434:
	.loc	18 280 9
	movq	(%rdi), %r10
Ltmp1435:
	.loc	18 0 0 is_stmt 0
	leaq	1(%r9), %rsi
Ltmp1436:
	.loc	7 1052 52 is_stmt 1
	cmpb	$66, (%r10,%r9)
Ltmp1437:
	.loc	18 284 9
	jne	LBB12_5
Ltmp1438:
	.loc	18 285 13
	movq	%rsi, 16(%rdi)
Ltmp1439:
	.loc	5 3090 12
	cmpq	%rsi, %rcx
Ltmp1440:
	.loc	11 456 13
	jbe	LBB12_21
Ltmp1441:
	.loc	7 1052 52
	cmpb	$95, (%r10,%rsi)
Ltmp1442:
	.loc	18 284 9
	jne	LBB12_21
Ltmp1443:
	.loc	18 285 13
	leaq	2(%r9), %rax
	movq	%rax, 16(%rdi)
	xorl	%eax, %eax
	jmp	LBB12_34
Ltmp1444:
LBB12_5:
	.loc	18 280 9
	movq	(%rdi), %r10
Ltmp1445:
	.loc	11 456 29
	movb	(%r10,%r9), %al
Ltmp1446:
	.loc	18 294 9
	movq	%rsi, 16(%rdi)
Ltmp1447:
	.loc	18 549 13
	addb	$-104, %al
	cmpb	$17, %al
	ja	LBB12_33
Ltmp1448:
	.loc	18 0 13 is_stmt 0
	movzbl	%al, %eax
	movl	$135333, %edx
	btq	%rax, %rdx
	jae	LBB12_33
Ltmp1449:
	.loc	18 280 33 is_stmt 1
	movq	%rsi, %rdx
Ltmp1450:
	.loc	5 3090 12
	cmpq	%rsi, %rcx
Ltmp1451:
	.loc	11 456 13
	jbe	LBB12_10
Ltmp1452:
	.loc	7 1052 52
	cmpb	$112, (%r10,%rsi)
Ltmp1453:
	.loc	18 280 33
	movq	%rsi, %rdx
Ltmp1454:
	.loc	18 284 9
	jne	LBB12_10
Ltmp1455:
	.loc	18 285 13
	addq	$2, %r9
	movq	%r9, 16(%rdi)
	jmp	LBB12_20
Ltmp1456:
	.p2align	4, 0x90
LBB12_10:
	.loc	5 3090 12
	cmpq	%rdx, %rcx
Ltmp1457:
	.loc	11 456 13
	jbe	LBB12_33
Ltmp1458:
	.loc	11 456 29 is_stmt 0
	movzbl	(%r10,%rdx), %eax
Ltmp1459:
	.loc	18 294 9 is_stmt 1
	incq	%rdx
Ltmp1460:
	movq	%rdx, 16(%rdi)
Ltmp1461:
	.loc	18 302 17
	leal	-48(%rax), %ebx
	cmpb	$10, %bl
	jb	LBB12_10
Ltmp1462:
	.loc	18 0 0 is_stmt 0
	leal	-97(%rax), %ebx
	.loc	18 302 17
	cmpb	$6, %bl
	jb	LBB12_10
Ltmp1463:
	.loc	18 303 17 is_stmt 1
	cmpb	$95, %al
	jne	LBB12_33
Ltmp1464:
	.loc	18 0 0 is_stmt 0
	leaq	-1(%rdx), %rax
	movq	%r10, -40(%rbp)
	movq	%rcx, -32(%rbp)
Ltmp1465:
	.loc	3 1925 18 is_stmt 1
	movq	%rsi, -16(%rbp)
	.loc	3 1925 25 is_stmt 0
	movq	%rax, -24(%rbp)
Ltmp1466:
	.loc	3 1881 16 is_stmt 1
	cmpq	%r9, %rax
	jbe	LBB12_35
Ltmp1467:
	.loc	3 2326 26
	cmpq	%rsi, %rcx
	.loc	3 2326 12 is_stmt 0
	je	LBB12_18
Ltmp1468:
	.loc	3 2330 13 is_stmt 1
	jbe	LBB12_35
Ltmp1469:
	.loc	3 2332 25
	cmpb	$-65, (%r10,%rsi)
Ltmp1470:
	.loc	3 1881 16
	jle	LBB12_35
Ltmp1471:
LBB12_18:
	.loc	18 0 0 is_stmt 0
	movq	%rdx, %rax
	subq	%rcx, %rax
Ltmp1472:
	.loc	3 2326 26 is_stmt 1
	cmpq	$1, %rax
	.loc	3 2326 12 is_stmt 0
	je	LBB12_20
Ltmp1473:
	.loc	3 2332 25 is_stmt 1
	cmpb	$-65, -1(%r10,%rdx)
Ltmp1474:
	.loc	3 1881 16
	jle	LBB12_35
Ltmp1475:
LBB12_20:
	.loc	3 0 16 is_stmt 0
	xorl	%r8d, %r8d
	jmp	LBB12_33
Ltmp1476:
LBB12_21:
	xorl	%eax, %eax
	movl	$62, %r11d
Ltmp1477:
	.p2align	4, 0x90
LBB12_22:
	.loc	5 3090 12 is_stmt 1
	cmpq	%rsi, %rcx
Ltmp1478:
	.loc	11 456 13
	jbe	LBB12_33
Ltmp1479:
	.loc	11 456 29 is_stmt 0
	movzbl	(%r10,%rsi), %edx
Ltmp1480:
	.loc	7 1052 52 is_stmt 1
	cmpb	$95, %dl
Ltmp1481:
	.loc	18 284 9
	je	LBB12_32
Ltmp1482:
	.loc	18 321 22
	leal	-48(%rdx), %ebx
	cmpb	$10, %bl
	jb	LBB12_30
Ltmp1483:
	.loc	18 322 22
	leal	-97(%rdx), %ebx
	cmpb	$26, %bl
	jae	LBB12_27
Ltmp1484:
	.loc	18 322 38 is_stmt 0
	addb	$-87, %dl
Ltmp1485:
	.loc	18 0 38
	jmp	LBB12_29
Ltmp1486:
	.p2align	4, 0x90
LBB12_27:
	.loc	18 323 22 is_stmt 1
	leal	-65(%rdx), %ebx
	cmpb	$26, %bl
	jae	LBB12_33
Ltmp1487:
	.loc	18 323 38 is_stmt 0
	addb	$-29, %dl
Ltmp1488:
LBB12_29:
	.loc	18 0 0
	movl	%edx, %ebx
Ltmp1489:
LBB12_30:
	.loc	18 326 9 is_stmt 1
	incq	%rsi
	movq	%rsi, 16(%rdi)
Ltmp1490:
	.loc	19 3807 26
	mulq	%r11
Ltmp1491:
	.loc	18 338 17
	jo	LBB12_33
Ltmp1492:
	.loc	18 337 21
	movzbl	%bl, %edx
Ltmp1493:
	.loc	19 3751 30
	addq	%rdx, %rax
Ltmp1494:
	.loc	18 339 17
	jae	LBB12_22
	jmp	LBB12_33
Ltmp1495:
LBB12_32:
	.loc	18 285 13
	incq	%rsi
Ltmp1496:
	movq	%rsi, 16(%rdi)
Ltmp1497:
	.loc	19 3751 30
	incq	%rax
Ltmp1498:
	.loc	18 369 17
	jne	LBB12_34
Ltmp1499:
LBB12_33:
	.loc	18 559 6
	movl	%r8d, %eax
	.loc	18 0 0 is_stmt 0
	addq	$56, %rsp
	popq	%rbx
	popq	%rbp
	retq
Ltmp1500:
LBB12_34:
	.loc	18 370 12 is_stmt 1
	cmpq	%r9, %rax
	setae	%al
Ltmp1501:
	.loc	18 0 0 is_stmt 0
	addq	$56, %rsp
	popq	%rbx
	popq	%rbp
	retq
Ltmp1502:
LBB12_35:
	leaq	-40(%rbp), %rax
Ltmp1503:
	.loc	11 428 21 is_stmt 1
	movq	%rax, -64(%rbp)
	leaq	-16(%rbp), %rax
	movq	%rax, -56(%rbp)
	leaq	-24(%rbp), %rax
	movq	%rax, -48(%rbp)
	leaq	-64(%rbp), %rdi
Ltmp1504:
	callq	__ZN4core3str6traits101_$LT$impl$u20$core..slice..SliceIndex$LT$str$GT$$u20$for$u20$core..ops..range..Range$LT$usize$GT$$GT$5index28_$u7b$$u7b$closure$u7d$$u7d$17ha96adb8ff842bfdfE
Ltmp1505:
Lfunc_end12:
	.cfi_endproc

	.p2align	4, 0x90
__ZN14rustc_demangle2v07Printer15backref_printer17hb6bed9b479c6a1f7E:
Lfunc_begin13:
	.loc	18 605 0
	.cfi_startproc
	pushq	%rbp
	.cfi_def_cfa_offset 16
	.cfi_offset %rbp, -16
	movq	%rsp, %rbp
	.cfi_def_cfa_register %rbp
Ltmp1506:
	pushq	%r15
	pushq	%r14
	pushq	%rbx
	pushq	%rax
	.cfi_offset %rbx, -40
	.cfi_offset %r14, -32
	.cfi_offset %r15, -24
	.loc	13 484 13 prologue_end
	movq	(%rsi), %r15
	testq	%r15, %r15
Ltmp1507:
	.loc	13 611 13
	cmovneq	%rsi, %r15
Ltmp1508:
	.loc	13 729 13
	je	LBB13_1
Ltmp1509:
	.loc	18 368 23
	movq	16(%r15), %rbx
	movq	%rbx, %r9
	subq	$1, %r9
	jb	LBB13_21
Ltmp1510:
	.loc	18 0 0 is_stmt 0
	movq	(%r15), %r10
Ltmp1511:
	.loc	18 280 9 is_stmt 1
	movq	8(%r15), %r11
Ltmp1512:
	.loc	5 3090 12
	cmpq	%rbx, %r11
Ltmp1513:
	.loc	11 456 13
	jbe	LBB13_4
Ltmp1514:
	.loc	7 1052 52
	cmpb	$95, (%r10,%rbx)
Ltmp1515:
	.loc	18 284 9
	jne	LBB13_4
Ltmp1516:
	.loc	18 285 13
	incq	%rbx
	movq	%rbx, 16(%r15)
	xorl	%eax, %eax
	jmp	LBB13_18
Ltmp1517:
LBB13_4:
	.loc	18 0 13 is_stmt 0
	xorl	%r8d, %r8d
	movl	$62, %r14d
	xorl	%eax, %eax
Ltmp1518:
	.p2align	4, 0x90
LBB13_5:
	.loc	5 3090 12 is_stmt 1
	cmpq	%rbx, %r11
Ltmp1519:
	.loc	11 456 13
	jbe	LBB13_6
Ltmp1520:
	.loc	11 456 29 is_stmt 0
	movzbl	(%r10,%rbx), %edx
Ltmp1521:
	.loc	7 1052 52 is_stmt 1
	cmpb	$95, %dl
Ltmp1522:
	.loc	18 284 9
	je	LBB13_17
Ltmp1523:
	.loc	18 321 22
	leal	-48(%rdx), %ecx
	cmpb	$10, %cl
Ltmp1524:
	jb	LBB13_15
Ltmp1525:
	.loc	18 322 22
	leal	-97(%rdx), %ecx
	cmpb	$26, %cl
	jae	LBB13_12
Ltmp1526:
	.loc	18 322 38 is_stmt 0
	addb	$-87, %dl
Ltmp1527:
	.loc	18 0 38
	jmp	LBB13_14
Ltmp1528:
	.p2align	4, 0x90
LBB13_12:
	.loc	18 323 22 is_stmt 1
	leal	-65(%rdx), %ecx
	cmpb	$26, %cl
	jae	LBB13_6
Ltmp1529:
	.loc	18 323 38 is_stmt 0
	addb	$-29, %dl
Ltmp1530:
LBB13_14:
	.loc	18 0 0
	movl	%edx, %ecx
Ltmp1531:
LBB13_15:
	.loc	18 326 9 is_stmt 1
	incq	%rbx
	movq	%rbx, 16(%r15)
Ltmp1532:
	.loc	19 3807 26
	mulq	%r14
Ltmp1533:
	.loc	18 338 17
	jo	LBB13_6
Ltmp1534:
	.loc	18 337 21
	movzbl	%cl, %ecx
Ltmp1535:
	.loc	19 3751 30
	addq	%rcx, %rax
Ltmp1536:
	.loc	18 339 17
	jae	LBB13_5
Ltmp1537:
LBB13_6:
	.loc	18 0 17 is_stmt 0
	jmp	LBB13_19
Ltmp1538:
LBB13_17:
	.loc	18 285 13 is_stmt 1
	incq	%rbx
Ltmp1539:
	movq	%rbx, 16(%r15)
Ltmp1540:
	.loc	19 3751 30
	incq	%rax
Ltmp1541:
	.loc	18 369 17
	jne	LBB13_18
Ltmp1542:
LBB13_1:
	.loc	18 0 17 is_stmt 0
	xorl	%r8d, %r8d
	jmp	LBB13_19
Ltmp1543:
LBB13_18:
	xorl	%r8d, %r8d
Ltmp1544:
	.loc	18 370 12 is_stmt 1
	cmpq	%r9, %rax
	.loc	18 370 9 is_stmt 0
	cmovbq	%r10, %r8
Ltmp1545:
LBB13_19:
	.loc	18 608 18 is_stmt 1
	movq	24(%rsi), %rcx
	.loc	18 609 35
	movl	32(%rsi), %edx
	.loc	18 606 9
	movq	%r8, (%rdi)
	movq	%r11, 8(%rdi)
	movq	%rax, 16(%rdi)
	movq	%rcx, 24(%rdi)
	movl	%edx, 32(%rdi)
	.loc	18 611 6
	addq	$8, %rsp
	popq	%rbx
	popq	%r14
	popq	%r15
	popq	%rbp
	retq
Ltmp1546:
LBB13_21:
	.loc	18 368 23
	leaq	_str.1(%rip), %rdi
	leaq	l___unnamed_46(%rip), %rdx
	movl	$33, %esi
Ltmp1547:
	callq	__ZN4core9panicking5panic17h383a6b80ea7021aaE
Ltmp1548:
Lfunc_end13:
	.cfi_endproc

	.p2align	4, 0x90
__ZN14rustc_demangle2v07Printer25print_lifetime_from_index17h57cb7a45b0a1cec8E:
Lfunc_begin14:
	.loc	18 616 0
	.cfi_startproc
	pushq	%rbp
	.cfi_def_cfa_offset 16
	.cfi_offset %rbp, -16
	movq	%rsp, %rbp
	.cfi_def_cfa_register %rbp
	pushq	%r15
	pushq	%r14
	pushq	%rbx
	subq	$24, %rsp
	.cfi_offset %rbx, -40
	.cfi_offset %r14, -32
	.cfi_offset %r15, -24
	movq	%rsi, %r15
	movq	%rdi, %rbx
Ltmp1549:
	.loc	18 617 14 prologue_end
	movq	24(%rdi), %rdi
	leaq	l___unnamed_47(%rip), %rsi
	movl	$1, %edx
	callq	__ZN4core3fmt9Formatter9write_str17h98e119ad25a8903eE
	movb	$1, %r14b
	.loc	18 617 9 is_stmt 0
	testb	%al, %al
	je	LBB14_1
Ltmp1550:
LBB14_11:
	.loc	18 635 6 is_stmt 1
	movl	%r14d, %eax
	addq	$24, %rsp
	popq	%rbx
Ltmp1551:
	popq	%r14
	popq	%r15
Ltmp1552:
	popq	%rbp
	retq
LBB14_1:
Ltmp1553:
	.loc	18 618 12
	testq	%r15, %r15
	.loc	18 618 9 is_stmt 0
	je	LBB14_4
Ltmp1554:
	.loc	18 621 16 is_stmt 1
	movl	32(%rbx), %eax
Ltmp1555:
	.loc	19 3779 30
	subq	%r15, %rax
Ltmp1556:
	.loc	18 622 13
	jae	LBB14_6
Ltmp1557:
	.loc	18 633 21
	movq	$0, (%rbx)
	movq	24(%rbx), %rdi
	leaq	l___unnamed_48(%rip), %rsi
	jmp	LBB14_5
Ltmp1558:
LBB14_4:
	.loc	18 619 20
	movq	24(%rbx), %rdi
	leaq	l___unnamed_49(%rip), %rsi
Ltmp1559:
LBB14_5:
	.loc	18 0 0 is_stmt 0
	movl	$1, %edx
	addq	$24, %rsp
	popq	%rbx
Ltmp1560:
	popq	%r14
	popq	%r15
Ltmp1561:
	popq	%rbp
	jmp	__ZN4core3fmt9Formatter9write_str17h98e119ad25a8903eE
LBB14_6:
Ltmp1562:
	.loc	18 622 18 is_stmt 1
	movq	%rax, -40(%rbp)
Ltmp1563:
	.loc	18 624 20
	cmpq	$26, %rax
	.loc	18 624 17 is_stmt 0
	jae	LBB14_7
Ltmp1564:
	.loc	18 625 29 is_stmt 1
	addl	$97, %eax
Ltmp1565:
	movl	%eax, -28(%rbp)
Ltmp1566:
	.loc	18 626 27
	movq	24(%rbx), %rsi
Ltmp1567:
	.loc	18 0 27 is_stmt 0
	leaq	-28(%rbp), %rdi
	.loc	18 626 21
	callq	__ZN43_$LT$char$u20$as$u20$core..fmt..Display$GT$3fmt17haf02f59875f30dd3E
	jmp	LBB14_10
Ltmp1568:
LBB14_7:
	.loc	18 629 26 is_stmt 1
	movq	24(%rbx), %rdi
	leaq	l___unnamed_49(%rip), %rsi
	movl	$1, %edx
	callq	__ZN4core3fmt9Formatter9write_str17h98e119ad25a8903eE
Ltmp1569:
	.loc	18 629 21 is_stmt 0
	testb	%al, %al
	jne	LBB14_11
Ltmp1570:
	.loc	18 630 31 is_stmt 1
	movq	24(%rbx), %rsi
Ltmp1571:
	.loc	18 0 31 is_stmt 0
	leaq	-40(%rbp), %rdi
	.loc	18 630 21
	callq	__ZN4core3fmt3num3imp52_$LT$impl$u20$core..fmt..Display$u20$for$u20$u64$GT$3fmt17h3230c9bc78e30ed1E
Ltmp1572:
LBB14_10:
	.loc	18 0 0
	movl	%eax, %r14d
	jmp	LBB14_11
Ltmp1573:
Lfunc_end14:
	.cfi_endproc

	.p2align	4, 0x90
__ZN14rustc_demangle2v07Printer10print_path17h584adfcc206070e5E:
Lfunc_begin15:
	.loc	18 682 0 is_stmt 1
	.cfi_startproc
	pushq	%rbp
	.cfi_def_cfa_offset 16
	.cfi_offset %rbp, -16
	movq	%rsp, %rbp
	.cfi_def_cfa_register %rbp
	pushq	%r15
	pushq	%r14
	pushq	%r12
	pushq	%rbx
	subq	$80, %rsp
	.cfi_offset %rbx, -48
	.cfi_offset %r12, -40
	.cfi_offset %r14, -32
	.cfi_offset %r15, -24
	movq	%rdi, %r15
Ltmp1574:
	.loc	13 484 13 prologue_end
	movq	(%rdi), %rax
	testq	%rax, %rax
Ltmp1575:
	.loc	13 611 13
	cmovneq	%rdi, %rax
Ltmp1576:
	.loc	13 729 13
	je	LBB15_76
Ltmp1577:
	.loc	18 280 33
	movq	16(%rax), %rcx
Ltmp1578:
	.loc	5 3090 12
	cmpq	%rcx, 8(%rax)
Ltmp1579:
	.loc	11 456 13
	jbe	LBB15_76
Ltmp1580:
	.loc	18 280 9
	movq	(%rax), %rdx
Ltmp1581:
	.loc	11 456 29
	movb	(%rdx,%rcx), %r12b
Ltmp1582:
	.loc	18 294 9
	incq	%rcx
Ltmp1583:
	movq	%rcx, 16(%rax)
Ltmp1584:
	.loc	18 685 13
	leal	-66(%r12), %eax
Ltmp1585:
	cmpb	$23, %al
	ja	LBB15_76
Ltmp1586:
	.loc	18 0 13 is_stmt 0
	movl	%esi, %ebx
Ltmp1587:
	movzbl	%al, %eax
	leaq	LJTI15_0(%rip), %rcx
	movslq	(%rcx,%rax,4), %rax
	addq	%rcx, %rax
	jmpq	*%rax
Ltmp1588:
LBB15_4:
	.loc	13 484 13 is_stmt 1
	movq	(%r15), %rcx
	testq	%rcx, %rcx
Ltmp1589:
	.loc	13 611 13
	cmovneq	%r15, %rcx
Ltmp1590:
	.loc	13 729 13
	je	LBB15_76
Ltmp1591:
	.loc	18 280 9
	movq	8(%rcx), %rsi
	.loc	18 280 33 is_stmt 0
	movq	16(%rcx), %rax
Ltmp1592:
	.loc	5 3090 12 is_stmt 1
	cmpq	%rax, %rsi
Ltmp1593:
	.loc	11 456 13
	jbe	LBB15_74
Ltmp1594:
	.loc	18 280 9
	movq	(%rcx), %r9
Ltmp1595:
	.loc	7 1052 52
	cmpb	$115, (%r9,%rax)
Ltmp1596:
	.loc	18 284 9
	jne	LBB15_74
Ltmp1597:
	.loc	18 285 13
	leaq	1(%rax), %rbx
Ltmp1598:
	movq	%rbx, 16(%rcx)
Ltmp1599:
	.loc	5 3090 12
	cmpq	%rbx, %rsi
Ltmp1600:
	.loc	11 456 13
	jbe	LBB15_46
Ltmp1601:
	.loc	7 1052 52
	cmpb	$95, (%r9,%rbx)
Ltmp1602:
	.loc	18 284 9
	jne	LBB15_46
Ltmp1603:
	.loc	18 285 13
	addq	$2, %rax
	movq	%rax, 16(%rcx)
Ltmp1604:
	.loc	18 0 13 is_stmt 0
	jmp	LBB15_74
Ltmp1605:
LBB15_10:
	.loc	13 484 13 is_stmt 1
	movq	(%r15), %rcx
	testq	%rcx, %rcx
Ltmp1606:
	.loc	13 611 13
	cmovneq	%r15, %rcx
Ltmp1607:
	.loc	13 729 13
	je	LBB15_116
Ltmp1608:
	.loc	18 280 9
	movq	8(%rcx), %rsi
	.loc	18 280 33 is_stmt 0
	movq	16(%rcx), %rax
Ltmp1609:
	.loc	5 3090 12 is_stmt 1
	cmpq	%rax, %rsi
Ltmp1610:
	.loc	11 456 13
	jbe	LBB15_41
Ltmp1611:
	.loc	18 280 9
	movq	(%rcx), %r9
Ltmp1612:
	.loc	7 1052 52
	cmpb	$115, (%r9,%rax)
Ltmp1613:
	.loc	18 284 9
	jne	LBB15_41
Ltmp1614:
	.loc	18 285 13
	leaq	1(%rax), %rbx
Ltmp1615:
	movq	%rbx, 16(%rcx)
Ltmp1616:
	.loc	5 3090 12
	cmpq	%rbx, %rsi
Ltmp1617:
	.loc	11 456 13
	jbe	LBB15_57
Ltmp1618:
	.loc	7 1052 52
	cmpb	$95, (%r9,%rbx)
Ltmp1619:
	.loc	18 284 9
	jne	LBB15_57
Ltmp1620:
	.loc	18 285 13
	addq	$2, %rax
	movq	%rax, 16(%rcx)
	xorl	%eax, %eax
	jmp	LBB15_92
Ltmp1621:
LBB15_16:
	.loc	18 0 13 is_stmt 0
	leaq	-112(%rbp), %r14
	.loc	18 756 22 is_stmt 1
	movq	%r14, %rdi
	movq	%r15, %rsi
	callq	__ZN14rustc_demangle2v07Printer15backref_printer17hb6bed9b479c6a1f7E
	movzbl	%bl, %esi
	movq	%r14, %rdi
	callq	__ZN14rustc_demangle2v07Printer10print_path17h584adfcc206070e5E
	jmp	LBB15_117
Ltmp1622:
LBB15_17:
	.loc	13 484 13
	movq	(%r15), %rax
	testq	%rax, %rax
Ltmp1623:
	.loc	13 611 13
	cmovneq	%r15, %rax
Ltmp1624:
	.loc	13 729 13
	je	LBB15_76
Ltmp1625:
	.loc	18 280 33
	movq	16(%rax), %rcx
Ltmp1626:
	.loc	5 3090 12
	cmpq	%rcx, 8(%rax)
Ltmp1627:
	.loc	11 456 13
	jbe	LBB15_76
Ltmp1628:
	.loc	18 280 9
	movq	(%rax), %rdx
Ltmp1629:
	.loc	11 456 29
	movzbl	(%rdx,%rcx), %r12d
Ltmp1630:
	.loc	18 294 9
	incq	%rcx
Ltmp1631:
	movq	%rcx, 16(%rax)
Ltmp1632:
	.loc	18 358 18
	leal	-65(%r12), %eax
Ltmp1633:
	cmpb	$26, %al
	jb	LBB15_21
Ltmp1634:
	addb	$-97, %r12b
	cmpb	$26, %r12b
	movl	$1114112, %r12d
Ltmp1635:
	.loc	18 697 26
	jae	LBB15_76
Ltmp1636:
LBB15_21:
	.loc	18 699 22
	movzbl	%bl, %esi
	movq	%r15, %rdi
	callq	__ZN14rustc_demangle2v07Printer10print_path17h584adfcc206070e5E
	movb	$1, %r14b
	.loc	18 699 17 is_stmt 0
	testb	%al, %al
	jne	LBB15_118
Ltmp1637:
	.loc	13 484 13 is_stmt 1
	movq	(%r15), %rcx
	testq	%rcx, %rcx
Ltmp1638:
	.loc	13 611 13
	cmovneq	%r15, %rcx
Ltmp1639:
	.loc	13 729 13
	je	LBB15_116
Ltmp1640:
	.loc	18 280 9
	movq	8(%rcx), %rsi
	.loc	18 280 33 is_stmt 0
	movq	16(%rcx), %rax
Ltmp1641:
	.loc	5 3090 12 is_stmt 1
	cmpq	%rax, %rsi
Ltmp1642:
	.loc	11 456 13
	jbe	LBB15_83
Ltmp1643:
	.loc	18 280 9
	movq	(%rcx), %r9
Ltmp1644:
	.loc	7 1052 52
	cmpb	$115, (%r9,%rax)
Ltmp1645:
	.loc	18 284 9
	jne	LBB15_83
Ltmp1646:
	.loc	18 285 13
	leaq	1(%rax), %rbx
Ltmp1647:
	movq	%rbx, 16(%rcx)
Ltmp1648:
	.loc	5 3090 12
	cmpq	%rbx, %rsi
Ltmp1649:
	.loc	11 456 13
	jbe	LBB15_101
Ltmp1650:
	.loc	7 1052 52
	cmpb	$95, (%r9,%rbx)
Ltmp1651:
	.loc	18 284 9
	jne	LBB15_101
Ltmp1652:
	.loc	18 285 13
	addq	$2, %rax
	movq	%rax, 16(%rcx)
	xorl	%eax, %eax
	jmp	LBB15_113
Ltmp1653:
LBB15_28:
	.loc	18 747 22
	movzbl	%bl, %esi
	movq	%r15, %rdi
	callq	__ZN14rustc_demangle2v07Printer10print_path17h584adfcc206070e5E
	movb	$1, %r14b
	.loc	18 747 17 is_stmt 0
	testb	%al, %al
	jne	LBB15_118
Ltmp1654:
	.loc	18 748 17 is_stmt 1
	testb	%bl, %bl
	je	LBB15_31
Ltmp1655:
	.loc	18 749 26
	movq	24(%r15), %rdi
	leaq	l___unnamed_8(%rip), %rsi
	movl	$2, %edx
	callq	__ZN4core3fmt9Formatter9write_str17h98e119ad25a8903eE
	.loc	18 749 21 is_stmt 0
	testb	%al, %al
	jne	LBB15_118
Ltmp1656:
LBB15_31:
	.loc	18 751 22 is_stmt 1
	movq	24(%r15), %rdi
	leaq	l___unnamed_16(%rip), %rsi
	movl	$1, %edx
	callq	__ZN4core3fmt9Formatter9write_str17h98e119ad25a8903eE
	.loc	18 751 17 is_stmt 0
	testb	%al, %al
	jne	LBB15_118
Ltmp1657:
	.loc	13 286 25 is_stmt 1
	cmpq	$0, (%r15)
Ltmp1658:
	.loc	18 672 15
	je	LBB15_96
Ltmp1659:
	.loc	18 0 15 is_stmt 0
	xorl	%ebx, %ebx
Ltmp1660:
	leaq	l___unnamed_50(%rip), %r12
Ltmp1661:
LBB15_34:
	.loc	18 280 33 is_stmt 1
	movq	16(%r15), %rax
Ltmp1662:
	.loc	5 3090 12
	cmpq	%rax, 8(%r15)
Ltmp1663:
	.loc	11 456 13
	jbe	LBB15_36
Ltmp1664:
	.loc	18 280 9
	movq	(%r15), %rcx
Ltmp1665:
	.loc	7 1052 52
	cmpb	$69, (%rcx,%rax)
Ltmp1666:
	.loc	18 284 9
	je	LBB15_95
Ltmp1667:
LBB15_36:
	.loc	18 673 16
	testq	%rbx, %rbx
	.loc	18 673 13 is_stmt 0
	je	LBB15_38
Ltmp1668:
	.loc	18 674 22 is_stmt 1
	movq	24(%r15), %rdi
	movl	$2, %edx
	movq	%r12, %rsi
	callq	__ZN4core3fmt9Formatter9write_str17h98e119ad25a8903eE
	.loc	18 674 17 is_stmt 0
	testb	%al, %al
	jne	LBB15_118
Ltmp1669:
LBB15_38:
	.loc	17 72 5 is_stmt 1
	movq	%r15, %rdi
	callq	__ZN14rustc_demangle2v07Printer17print_generic_arg17h49f22d9dd0a1860aE
Ltmp1670:
	.loc	18 676 13
	testb	%al, %al
	jne	LBB15_118
Ltmp1671:
	.loc	18 677 13
	incq	%rbx
	je	LBB15_131
Ltmp1672:
	.loc	13 286 25
	cmpq	$0, (%r15)
Ltmp1673:
	.loc	13 0 25 is_stmt 0
	jne	LBB15_34
	jmp	LBB15_96
Ltmp1674:
LBB15_41:
	.loc	18 686 27 is_stmt 1
	movq	$0, -40(%rbp)
Ltmp1675:
LBB15_42:
	.loc	18 0 27 is_stmt 0
	leaq	-112(%rbp), %rbx
Ltmp1676:
	leaq	-112(%rbp), %rdi
Ltmp1677:
	.loc	18 586 50 is_stmt 1
	movq	%r15, %rsi
	callq	__ZN14rustc_demangle2v06Parser5ident17hbde95aecd22e76bbE
	cmpq	$0, -112(%rbp)
Ltmp1678:
	.loc	18 687 28
	je	LBB15_116
Ltmp1679:
	movq	24(%rbx), %rax
	movq	%rax, -48(%rbp)
	movq	16(%rbx), %rax
	movq	%rax, -56(%rbp)
	movq	(%rbx), %rax
	movq	8(%rbx), %rcx
	movq	%rcx, -64(%rbp)
	movq	%rax, -72(%rbp)
Ltmp1680:
	.loc	18 689 31
	movq	24(%r15), %rsi
	leaq	-72(%rbp), %rdi
	.loc	18 689 22 is_stmt 0
	callq	__ZN64_$LT$rustc_demangle..v0..Ident$u20$as$u20$core..fmt..Display$GT$3fmt17h8f268e9518e168b4E
	movb	$1, %r14b
	.loc	18 689 17
	testb	%al, %al
	jne	LBB15_118
Ltmp1681:
	.loc	18 690 21 is_stmt 1
	movq	24(%r15), %rdi
	callq	__ZN4core3fmt9Formatter9alternate17hd77eec28e879e5edE
	.loc	18 690 17 is_stmt 0
	testb	%al, %al
	je	LBB15_68
Ltmp1682:
LBB15_45:
	.loc	18 0 17
	xorl	%r14d, %r14d
	jmp	LBB15_118
Ltmp1683:
LBB15_46:
	xorl	%eax, %eax
	movl	$62, %r8d
Ltmp1684:
LBB15_47:
	.loc	5 3090 12 is_stmt 1
	cmpq	%rbx, %rsi
Ltmp1685:
	.loc	11 456 13
	jbe	LBB15_76
Ltmp1686:
	.loc	11 456 29 is_stmt 0
	movzbl	(%r9,%rbx), %edx
Ltmp1687:
	.loc	7 1052 52 is_stmt 1
	cmpb	$95, %dl
Ltmp1688:
	.loc	18 284 9
	je	LBB15_72
Ltmp1689:
	.loc	18 321 22
	leal	-48(%rdx), %edi
	cmpb	$10, %dil
Ltmp1690:
	jb	LBB15_55
Ltmp1691:
	.loc	18 322 22
	leal	-97(%rdx), %edi
	cmpb	$26, %dil
	jae	LBB15_52
Ltmp1692:
	.loc	18 322 38 is_stmt 0
	addb	$-87, %dl
Ltmp1693:
	.loc	18 0 38
	jmp	LBB15_54
Ltmp1694:
LBB15_52:
	.loc	18 323 22 is_stmt 1
	leal	-65(%rdx), %edi
	cmpb	$26, %dil
	jae	LBB15_76
Ltmp1695:
	.loc	18 323 38 is_stmt 0
	addb	$-29, %dl
Ltmp1696:
LBB15_54:
	.loc	18 0 0
	movl	%edx, %edi
Ltmp1697:
LBB15_55:
	.loc	18 326 9 is_stmt 1
	incq	%rbx
	movq	%rbx, 16(%rcx)
Ltmp1698:
	.loc	19 3807 26
	mulq	%r8
Ltmp1699:
	.loc	18 338 17
	jo	LBB15_76
Ltmp1700:
	.loc	18 337 21
	movzbl	%dil, %edx
Ltmp1701:
	.loc	19 3751 30
	addq	%rdx, %rax
Ltmp1702:
	.loc	19 0 30 is_stmt 0
	jae	LBB15_47
	jmp	LBB15_76
Ltmp1703:
LBB15_57:
	xorl	%eax, %eax
	movl	$62, %r8d
Ltmp1704:
LBB15_58:
	.loc	5 3090 12 is_stmt 1
	cmpq	%rbx, %rsi
Ltmp1705:
	.loc	11 456 13
	jbe	LBB15_116
Ltmp1706:
	.loc	11 456 29 is_stmt 0
	movzbl	(%r9,%rbx), %edx
Ltmp1707:
	.loc	7 1052 52 is_stmt 1
	cmpb	$95, %dl
Ltmp1708:
	.loc	18 284 9
	je	LBB15_91
Ltmp1709:
	.loc	18 321 22
	leal	-48(%rdx), %edi
	cmpb	$10, %dil
Ltmp1710:
	jb	LBB15_66
Ltmp1711:
	.loc	18 322 22
	leal	-97(%rdx), %edi
	cmpb	$26, %dil
	jae	LBB15_63
Ltmp1712:
	.loc	18 322 38 is_stmt 0
	addb	$-87, %dl
Ltmp1713:
	.loc	18 0 38
	jmp	LBB15_65
Ltmp1714:
LBB15_63:
	.loc	18 323 22 is_stmt 1
	leal	-65(%rdx), %edi
	cmpb	$26, %dil
	jae	LBB15_116
Ltmp1715:
	.loc	18 323 38 is_stmt 0
	addb	$-29, %dl
Ltmp1716:
LBB15_65:
	.loc	18 0 0
	movl	%edx, %edi
Ltmp1717:
LBB15_66:
	.loc	18 326 9 is_stmt 1
	incq	%rbx
	movq	%rbx, 16(%rcx)
Ltmp1718:
	.loc	19 3807 26
	mulq	%r8
Ltmp1719:
	.loc	18 338 17
	jo	LBB15_116
Ltmp1720:
	.loc	18 337 21
	movzbl	%dil, %edx
Ltmp1721:
	.loc	19 3751 30
	addq	%rdx, %rax
Ltmp1722:
	.loc	18 339 17
	jae	LBB15_58
	jmp	LBB15_116
Ltmp1723:
LBB15_68:
	.loc	18 691 26
	movq	24(%r15), %rdi
	leaq	l___unnamed_51(%rip), %rsi
	movl	$1, %edx
	callq	__ZN4core3fmt9Formatter9write_str17h98e119ad25a8903eE
	.loc	18 691 21 is_stmt 0
	testb	%al, %al
	jne	LBB15_71
Ltmp1724:
	.loc	18 692 51 is_stmt 1
	movq	24(%r15), %rsi
Ltmp1725:
	.loc	18 0 51 is_stmt 0
	leaq	-40(%rbp), %rdi
	.loc	18 692 26
	callq	__ZN4core3fmt3num53_$LT$impl$u20$core..fmt..LowerHex$u20$for$u20$u64$GT$3fmt17hb1b2554e6a6ce90cE
	.loc	18 692 21
	testb	%al, %al
	jne	LBB15_71
Ltmp1726:
	.loc	18 693 26 is_stmt 1
	movq	24(%r15), %rdi
	leaq	l___unnamed_52(%rip), %rsi
	movl	$1, %edx
	callq	__ZN4core3fmt9Formatter9write_str17h98e119ad25a8903eE
	.loc	18 693 21 is_stmt 0
	testb	%al, %al
	je	LBB15_45
	jmp	LBB15_71
Ltmp1727:
LBB15_72:
	.loc	18 285 13 is_stmt 1
	incq	%rbx
Ltmp1728:
	movq	%rbx, 16(%rcx)
Ltmp1729:
	.loc	19 3751 30
	incq	%rax
Ltmp1730:
	.loc	18 348 9
	je	LBB15_76
Ltmp1731:
	cmpq	$-1, %rax
	je	LBB15_76
Ltmp1732:
LBB15_74:
	.loc	13 484 13
	cmpq	$0, (%r15)
Ltmp1733:
	.loc	13 729 13
	je	LBB15_76
Ltmp1734:
	.loc	18 586 50
	movq	%r15, %rdi
	callq	__ZN14rustc_demangle2v06Parser9skip_path17ha4c28c578bd5eb45E
Ltmp1735:
	.loc	18 735 21
	testb	%al, %al
Ltmp1736:
	je	LBB15_78
Ltmp1737:
LBB15_76:
	.loc	18 0 0 is_stmt 0
	movq	$0, (%r15)
	movq	24(%r15), %rdi
	leaq	l___unnamed_48(%rip), %rsi
Ltmp1738:
LBB15_77:
	movl	$1, %edx
	addq	$80, %rsp
	popq	%rbx
	popq	%r12
	popq	%r14
	popq	%r15
Ltmp1739:
	popq	%rbp
	jmp	__ZN4core3fmt9Formatter9write_str17h98e119ad25a8903eE
LBB15_78:
Ltmp1740:
	.loc	18 738 22 is_stmt 1
	movq	24(%r15), %rdi
	leaq	l___unnamed_16(%rip), %rsi
	movl	$1, %edx
	callq	__ZN4core3fmt9Formatter9write_str17h98e119ad25a8903eE
	movb	$1, %r14b
	.loc	18 738 17 is_stmt 0
	testb	%al, %al
	jne	LBB15_118
Ltmp1741:
	.loc	18 739 22 is_stmt 1
	movq	%r15, %rdi
	callq	__ZN14rustc_demangle2v07Printer10print_type17hd9a3ee4dc849e963E
	.loc	18 739 17 is_stmt 0
	testb	%al, %al
	jne	LBB15_118
Ltmp1742:
	.loc	18 740 20 is_stmt 1
	cmpb	$77, %r12b
	.loc	18 740 17 is_stmt 0
	je	LBB15_96
Ltmp1743:
	.loc	18 741 26 is_stmt 1
	movq	24(%r15), %rdi
	leaq	L___unnamed_53(%rip), %rsi
	movl	$4, %edx
	callq	__ZN4core3fmt9Formatter9write_str17h98e119ad25a8903eE
	.loc	18 741 21 is_stmt 0
	testb	%al, %al
	jne	LBB15_118
Ltmp1744:
	.loc	18 742 26 is_stmt 1
	movq	%r15, %rdi
	xorl	%esi, %esi
	callq	__ZN14rustc_demangle2v07Printer10print_path17h584adfcc206070e5E
	.loc	18 742 21 is_stmt 0
	testb	%al, %al
	je	LBB15_96
	jmp	LBB15_118
Ltmp1745:
LBB15_83:
	.loc	18 701 27 is_stmt 1
	movq	$0, -40(%rbp)
Ltmp1746:
LBB15_84:
	.loc	18 0 27 is_stmt 0
	leaq	-112(%rbp), %rbx
Ltmp1747:
	leaq	-112(%rbp), %rdi
Ltmp1748:
	.loc	18 586 50 is_stmt 1
	movq	%r15, %rsi
	callq	__ZN14rustc_demangle2v06Parser5ident17hbde95aecd22e76bbE
	cmpq	$0, -112(%rbp)
Ltmp1749:
	.loc	18 702 28
	je	LBB15_116
Ltmp1750:
	movq	24(%rbx), %rax
	movq	%rax, -48(%rbp)
	movq	16(%rbx), %rax
	movq	%rax, -56(%rbp)
	movq	(%rbx), %rax
	movq	8(%rbx), %rcx
	movq	%rcx, -64(%rbp)
	movq	%rax, -72(%rbp)
Ltmp1751:
	.loc	18 706 21
	cmpl	$1114112, %r12d
	jne	LBB15_97
Ltmp1752:
	.loc	3 2294 9
	cmpq	$0, -64(%rbp)
Ltmp1753:
	.loc	18 724 28
	jne	LBB15_88
Ltmp1754:
	.loc	3 2294 9
	cmpq	$0, -48(%rbp)
Ltmp1755:
	.loc	18 724 25
	je	LBB15_45
Ltmp1756:
LBB15_88:
	.loc	18 725 34
	movq	24(%r15), %rdi
	leaq	l___unnamed_8(%rip), %rsi
	movl	$2, %edx
	callq	__ZN4core3fmt9Formatter9write_str17h98e119ad25a8903eE
	movb	$1, %r14b
	.loc	18 725 29 is_stmt 0
	testb	%al, %al
	jne	LBB15_118
Ltmp1757:
	.loc	18 726 43 is_stmt 1
	movq	24(%r15), %rsi
	leaq	-72(%rbp), %rdi
	.loc	18 726 34 is_stmt 0
	callq	__ZN64_$LT$rustc_demangle..v0..Ident$u20$as$u20$core..fmt..Display$GT$3fmt17h8f268e9518e168b4E
	.loc	18 726 29
	testb	%al, %al
	je	LBB15_45
	jmp	LBB15_118
Ltmp1758:
LBB15_91:
	.loc	18 285 13 is_stmt 1
	incq	%rbx
Ltmp1759:
	movq	%rbx, 16(%rcx)
Ltmp1760:
	.loc	19 3751 30
	incq	%rax
Ltmp1761:
	.loc	18 348 9
	je	LBB15_116
Ltmp1762:
LBB15_92:
	.loc	19 3751 30
	incq	%rax
Ltmp1763:
	.loc	18 686 27
	je	LBB15_116
Ltmp1764:
	.loc	13 484 13
	cmpq	$0, (%r15)
Ltmp1765:
	.loc	18 686 27
	movq	%rax, -40(%rbp)
Ltmp1766:
	.loc	13 729 13
	jne	LBB15_42
Ltmp1767:
LBB15_115:
	.loc	18 0 0 is_stmt 0
	movq	$0, -112(%rbp)
	jmp	LBB15_116
Ltmp1768:
LBB15_95:
	.loc	18 285 13 is_stmt 1
	incq	%rax
	movq	%rax, 16(%r15)
Ltmp1769:
LBB15_96:
	.loc	18 0 0 is_stmt 0
	movq	24(%r15), %rdi
	leaq	l___unnamed_18(%rip), %rsi
	jmp	LBB15_77
Ltmp1770:
LBB15_97:
	.loc	18 706 26 is_stmt 1
	movl	%r12d, -112(%rbp)
Ltmp1771:
	.loc	18 707 30
	movq	24(%r15), %rdi
	leaq	l___unnamed_54(%rip), %rsi
	movl	$3, %edx
	callq	__ZN4core3fmt9Formatter9write_str17h98e119ad25a8903eE
	.loc	18 707 25 is_stmt 0
	testb	%al, %al
	jne	LBB15_71
Ltmp1772:
	.loc	18 709 29 is_stmt 1
	cmpl	$67, %r12d
	je	LBB15_119
Ltmp1773:
	cmpl	$83, %r12d
	jne	LBB15_121
Ltmp1774:
	.loc	18 710 41
	movq	24(%r15), %rdi
	leaq	L___unnamed_55(%rip), %rsi
	movl	$4, %edx
	jmp	LBB15_120
Ltmp1775:
LBB15_101:
	.loc	18 0 41 is_stmt 0
	xorl	%eax, %eax
	movl	$62, %r8d
Ltmp1776:
LBB15_102:
	.loc	5 3090 12 is_stmt 1
	cmpq	%rbx, %rsi
Ltmp1777:
	.loc	11 456 13
	jbe	LBB15_116
Ltmp1778:
	.loc	11 456 29 is_stmt 0
	movzbl	(%r9,%rbx), %edx
Ltmp1779:
	.loc	7 1052 52 is_stmt 1
	cmpb	$95, %dl
Ltmp1780:
	.loc	18 284 9
	je	LBB15_112
Ltmp1781:
	.loc	18 321 22
	leal	-48(%rdx), %edi
	cmpb	$10, %dil
Ltmp1782:
	jb	LBB15_110
Ltmp1783:
	.loc	18 322 22
	leal	-97(%rdx), %edi
	cmpb	$26, %dil
	jae	LBB15_107
Ltmp1784:
	.loc	18 322 38 is_stmt 0
	addb	$-87, %dl
Ltmp1785:
	.loc	18 0 38
	jmp	LBB15_109
Ltmp1786:
LBB15_107:
	.loc	18 323 22 is_stmt 1
	leal	-65(%rdx), %edi
	cmpb	$26, %dil
	jae	LBB15_116
Ltmp1787:
	.loc	18 323 38 is_stmt 0
	addb	$-29, %dl
Ltmp1788:
LBB15_109:
	.loc	18 0 0
	movl	%edx, %edi
Ltmp1789:
LBB15_110:
	.loc	18 326 9 is_stmt 1
	incq	%rbx
	movq	%rbx, 16(%rcx)
Ltmp1790:
	.loc	19 3807 26
	mulq	%r8
Ltmp1791:
	.loc	18 338 17
	jo	LBB15_116
Ltmp1792:
	.loc	18 337 21
	movzbl	%dil, %edx
Ltmp1793:
	.loc	19 3751 30
	addq	%rdx, %rax
Ltmp1794:
	.loc	19 0 30 is_stmt 0
	jae	LBB15_102
	jmp	LBB15_116
Ltmp1795:
LBB15_112:
	.loc	18 285 13 is_stmt 1
	incq	%rbx
Ltmp1796:
	movq	%rbx, 16(%rcx)
Ltmp1797:
	.loc	19 3751 30
	incq	%rax
Ltmp1798:
	.loc	18 348 9
	je	LBB15_116
Ltmp1799:
LBB15_113:
	.loc	19 3751 30
	incq	%rax
Ltmp1800:
	.loc	18 701 27
	jne	LBB15_114
Ltmp1801:
LBB15_116:
	.loc	18 0 0 is_stmt 0
	movq	$0, (%r15)
	movq	24(%r15), %rdi
	leaq	l___unnamed_48(%rip), %rsi
	movl	$1, %edx
	callq	__ZN4core3fmt9Formatter9write_str17h98e119ad25a8903eE
Ltmp1802:
LBB15_117:
	movl	%eax, %r14d
Ltmp1803:
LBB15_118:
	.loc	18 761 6 is_stmt 1
	movl	%r14d, %eax
	addq	$80, %rsp
	popq	%rbx
	popq	%r12
	popq	%r14
	popq	%r15
Ltmp1804:
	popq	%rbp
	retq
LBB15_114:
Ltmp1805:
	.loc	13 484 13
	cmpq	$0, (%r15)
Ltmp1806:
	.loc	18 701 27
	movq	%rax, -40(%rbp)
Ltmp1807:
	.loc	13 729 13
	jne	LBB15_84
	jmp	LBB15_115
Ltmp1808:
LBB15_119:
	.loc	18 709 41
	movq	24(%r15), %rdi
	leaq	l___unnamed_56(%rip), %rsi
	movl	$7, %edx
Ltmp1809:
LBB15_120:
	.loc	18 0 0 is_stmt 0
	callq	__ZN4core3fmt9Formatter9write_str17h98e119ad25a8903eE
	jmp	LBB15_122
Ltmp1810:
LBB15_121:
	.loc	18 711 46 is_stmt 1
	movq	24(%r15), %rsi
Ltmp1811:
	.loc	18 0 46 is_stmt 0
	leaq	-112(%rbp), %rdi
	.loc	18 711 39
	callq	__ZN43_$LT$char$u20$as$u20$core..fmt..Display$GT$3fmt17haf02f59875f30dd3E
Ltmp1812:
LBB15_122:
	.loc	18 0 0
	testb	%al, %al
	jne	LBB15_71
Ltmp1813:
	.loc	3 2294 9 is_stmt 1
	cmpq	$0, -64(%rbp)
Ltmp1814:
	.loc	18 713 28
	jne	LBB15_125
Ltmp1815:
	.loc	3 2294 9
	cmpq	$0, -48(%rbp)
Ltmp1816:
	.loc	18 713 25
	je	LBB15_127
Ltmp1817:
LBB15_125:
	.loc	18 714 34
	movq	24(%r15), %rdi
	leaq	l___unnamed_57(%rip), %rsi
	movl	$1, %edx
	callq	__ZN4core3fmt9Formatter9write_str17h98e119ad25a8903eE
	.loc	18 714 29 is_stmt 0
	testb	%al, %al
	jne	LBB15_71
Ltmp1818:
	.loc	18 715 43 is_stmt 1
	movq	24(%r15), %rsi
	leaq	-72(%rbp), %rdi
	.loc	18 715 34 is_stmt 0
	callq	__ZN64_$LT$rustc_demangle..v0..Ident$u20$as$u20$core..fmt..Display$GT$3fmt17h8f268e9518e168b4E
	.loc	18 715 29
	testb	%al, %al
	jne	LBB15_71
Ltmp1819:
LBB15_127:
	.loc	18 717 30 is_stmt 1
	movq	24(%r15), %rdi
	leaq	l___unnamed_58(%rip), %rsi
	movl	$1, %edx
	callq	__ZN4core3fmt9Formatter9write_str17h98e119ad25a8903eE
	.loc	18 717 25 is_stmt 0
	testb	%al, %al
	jne	LBB15_71
Ltmp1820:
	.loc	18 718 38 is_stmt 1
	movq	24(%r15), %rsi
Ltmp1821:
	.loc	18 0 38 is_stmt 0
	leaq	-40(%rbp), %rdi
	.loc	18 718 30
	callq	__ZN4core3fmt3num3imp52_$LT$impl$u20$core..fmt..Display$u20$for$u20$u64$GT$3fmt17h3230c9bc78e30ed1E
	.loc	18 718 25
	testb	%al, %al
	jne	LBB15_71
Ltmp1822:
	.loc	18 719 30 is_stmt 1
	movq	24(%r15), %rdi
	leaq	l___unnamed_37(%rip), %rsi
	movl	$1, %edx
	callq	__ZN4core3fmt9Formatter9write_str17h98e119ad25a8903eE
	.loc	18 719 25 is_stmt 0
	testb	%al, %al
	je	LBB15_45
Ltmp1823:
LBB15_71:
	.loc	18 0 25
	movb	$1, %r14b
	jmp	LBB15_118
Ltmp1824:
LBB15_131:
	.loc	18 677 13 is_stmt 1
	leaq	_str.0(%rip), %rdi
	leaq	l___unnamed_59(%rip), %rdx
	movl	$28, %esi
	callq	__ZN4core9panicking5panic17h383a6b80ea7021aaE
Ltmp1825:
Lfunc_end15:
	.cfi_endproc
	.p2align	2, 0x90
	.data_region jt32
.set L15_0_set_16, LBB15_16-LJTI15_0
.set L15_0_set_10, LBB15_10-LJTI15_0
.set L15_0_set_76, LBB15_76-LJTI15_0
.set L15_0_set_28, LBB15_28-LJTI15_0
.set L15_0_set_4, LBB15_4-LJTI15_0
.set L15_0_set_17, LBB15_17-LJTI15_0
.set L15_0_set_78, LBB15_78-LJTI15_0
LJTI15_0:
	.long	L15_0_set_16
	.long	L15_0_set_10
	.long	L15_0_set_76
	.long	L15_0_set_76
	.long	L15_0_set_76
	.long	L15_0_set_76
	.long	L15_0_set_76
	.long	L15_0_set_28
	.long	L15_0_set_76
	.long	L15_0_set_76
	.long	L15_0_set_76
	.long	L15_0_set_4
	.long	L15_0_set_17
	.long	L15_0_set_76
	.long	L15_0_set_76
	.long	L15_0_set_76
	.long	L15_0_set_76
	.long	L15_0_set_76
	.long	L15_0_set_76
	.long	L15_0_set_76
	.long	L15_0_set_76
	.long	L15_0_set_76
	.long	L15_0_set_4
	.long	L15_0_set_78
	.end_data_region

	.p2align	4, 0x90
__ZN14rustc_demangle2v07Printer17print_generic_arg17h49f22d9dd0a1860aE:
Lfunc_begin16:
	.loc	18 763 0
	.cfi_startproc
	pushq	%rbp
	.cfi_def_cfa_offset 16
	.cfi_offset %rbp, -16
	movq	%rsp, %rbp
	.cfi_def_cfa_register %rbp
Ltmp1826:
	.loc	13 484 13 prologue_end
	movq	(%rdi), %rax
Ltmp1827:
	.loc	13 611 13
	movq	%rdi, %rcx
Ltmp1828:
	.loc	13 484 13
	testq	%rax, %rax
Ltmp1829:
	.loc	13 611 13
	cmoveq	%rax, %rcx
Ltmp1830:
	.loc	13 519 13
	je	LBB16_5
Ltmp1831:
	.loc	18 280 33
	movq	16(%rcx), %rdx
Ltmp1832:
	.loc	5 3090 12
	cmpq	%rdx, 8(%rcx)
Ltmp1833:
	.loc	11 456 13
	jbe	LBB16_3
Ltmp1834:
	.loc	18 280 9
	movq	(%rcx), %rsi
Ltmp1835:
	.loc	7 1052 52
	cmpb	$76, (%rsi,%rdx)
Ltmp1836:
	.loc	18 284 9
	jne	LBB16_3
Ltmp1837:
	.loc	18 285 13
	incq	%rdx
	movq	%rdx, 16(%rcx)
Ltmp1838:
	.loc	13 484 13
	movq	(%rdi), %r11
	testq	%r11, %r11
Ltmp1839:
	.loc	13 611 13
	cmovneq	%rdi, %r11
Ltmp1840:
	.loc	13 729 13
	je	LBB16_21
Ltmp1841:
	.loc	18 0 0 is_stmt 0
	movq	(%r11), %r8
Ltmp1842:
	.loc	18 280 9 is_stmt 1
	movq	8(%r11), %r9
	.loc	18 280 33 is_stmt 0
	movq	16(%r11), %rsi
Ltmp1843:
	.loc	5 3090 12 is_stmt 1
	cmpq	%rsi, %r9
Ltmp1844:
	.loc	11 456 13
	jbe	LBB16_8
Ltmp1845:
	.loc	7 1052 52
	cmpb	$95, (%r8,%rsi)
Ltmp1846:
	.loc	18 284 9
	jne	LBB16_8
Ltmp1847:
	.loc	18 285 13
	incq	%rsi
	movq	%rsi, 16(%r11)
	xorl	%eax, %eax
	jmp	LBB16_23
Ltmp1848:
LBB16_3:
	.loc	18 280 33
	movq	16(%rdi), %rcx
Ltmp1849:
	.loc	5 3090 12
	cmpq	%rcx, 8(%rdi)
Ltmp1850:
	.loc	11 456 13
	jbe	LBB16_5
Ltmp1851:
	.loc	7 1052 52
	cmpb	$75, (%rax,%rcx)
Ltmp1852:
	.loc	18 284 9
	jne	LBB16_5
Ltmp1853:
	.loc	18 285 13
	incq	%rcx
	movq	%rcx, 16(%rdi)
Ltmp1854:
	.loc	18 768 13
	popq	%rbp
	jmp	__ZN14rustc_demangle2v07Printer11print_const17h88d312ebd3ee8f8eE
Ltmp1855:
LBB16_5:
	.loc	18 770 13
	popq	%rbp
	jmp	__ZN14rustc_demangle2v07Printer10print_type17hd9a3ee4dc849e963E
Ltmp1856:
LBB16_8:
	.loc	18 0 13 is_stmt 0
	xorl	%eax, %eax
	movl	$62, %r10d
Ltmp1857:
	.p2align	4, 0x90
LBB16_9:
	.loc	5 3090 12 is_stmt 1
	cmpq	%rsi, %r9
Ltmp1858:
	.loc	11 456 13
	jbe	LBB16_21
Ltmp1859:
	.loc	11 456 29 is_stmt 0
	movzbl	(%r8,%rsi), %edx
Ltmp1860:
	.loc	7 1052 52 is_stmt 1
	cmpb	$95, %dl
Ltmp1861:
	.loc	18 284 9
	je	LBB16_22
Ltmp1862:
	.loc	18 321 22
	leal	-48(%rdx), %ecx
	cmpb	$10, %cl
Ltmp1863:
	jb	LBB16_19
Ltmp1864:
	.loc	18 322 22
	leal	-97(%rdx), %ecx
	cmpb	$26, %cl
	jae	LBB16_13
Ltmp1865:
	.loc	18 322 38 is_stmt 0
	addb	$-87, %dl
Ltmp1866:
	.loc	18 0 38
	jmp	LBB16_18
Ltmp1867:
LBB16_13:
	.loc	18 323 22 is_stmt 1
	leal	-65(%rdx), %ecx
	cmpb	$26, %cl
	jae	LBB16_21
Ltmp1868:
	.loc	18 323 38 is_stmt 0
	addb	$-29, %dl
Ltmp1869:
LBB16_18:
	.loc	18 0 0
	movl	%edx, %ecx
Ltmp1870:
LBB16_19:
	.loc	18 326 9 is_stmt 1
	incq	%rsi
	movq	%rsi, 16(%r11)
Ltmp1871:
	.loc	19 3807 26
	mulq	%r10
Ltmp1872:
	.loc	18 338 17
	jo	LBB16_21
Ltmp1873:
	.loc	18 337 21
	movzbl	%cl, %ecx
Ltmp1874:
	.loc	19 3751 30
	addq	%rcx, %rax
Ltmp1875:
	.loc	18 339 17
	jae	LBB16_9
	jmp	LBB16_21
Ltmp1876:
LBB16_22:
	.loc	18 285 13
	incq	%rsi
Ltmp1877:
	movq	%rsi, 16(%r11)
Ltmp1878:
	.loc	19 3751 30
	incq	%rax
Ltmp1879:
	.loc	18 765 22
	jne	LBB16_23
Ltmp1880:
LBB16_21:
	movq	$0, (%rdi)
	movq	24(%rdi), %rdi
Ltmp1881:
	leaq	l___unnamed_48(%rip), %rsi
	movl	$1, %edx
	popq	%rbp
	jmp	__ZN4core3fmt9Formatter9write_str17h98e119ad25a8903eE
LBB16_23:
Ltmp1882:
	.loc	18 766 13
	movq	%rax, %rsi
	popq	%rbp
	jmp	__ZN14rustc_demangle2v07Printer25print_lifetime_from_index17h57cb7a45b0a1cec8E
Ltmp1883:
Lfunc_end16:
	.cfi_endproc

	.p2align	4, 0x90
__ZN14rustc_demangle2v07Printer10print_type17hd9a3ee4dc849e963E:
Lfunc_begin17:
	.loc	18 774 0
	.cfi_startproc
	pushq	%rbp
	.cfi_def_cfa_offset 16
	.cfi_offset %rbp, -16
	movq	%rsp, %rbp
	.cfi_def_cfa_register %rbp
	pushq	%r15
	pushq	%r14
	pushq	%r13
	pushq	%r12
	pushq	%rbx
	subq	$40, %rsp
	.cfi_offset %rbx, -56
	.cfi_offset %r12, -48
	.cfi_offset %r13, -40
	.cfi_offset %r14, -32
	.cfi_offset %r15, -24
	movq	%rdi, %rbx
Ltmp1884:
	.loc	13 484 13 prologue_end
	movq	(%rdi), %rax
	testq	%rax, %rax
Ltmp1885:
	.loc	13 611 13
	cmovneq	%rdi, %rax
Ltmp1886:
	.loc	13 729 13
	je	LBB17_180
Ltmp1887:
	.loc	18 280 33
	movq	16(%rax), %rcx
Ltmp1888:
	.loc	5 3090 12
	cmpq	%rcx, 8(%rax)
Ltmp1889:
	.loc	11 456 13
	jbe	LBB17_180
Ltmp1890:
	.loc	18 280 9
	movq	(%rax), %rdx
Ltmp1891:
	.loc	11 456 29
	movb	(%rdx,%rcx), %r15b
Ltmp1892:
	.loc	18 294 9
	incq	%rcx
Ltmp1893:
	movq	%rcx, 16(%rax)
Ltmp1894:
	.loc	18 247 9
	leal	-65(%r15), %eax
Ltmp1895:
	cmpb	$57, %al
	ja	LBB17_36
Ltmp1896:
	.loc	18 0 9 is_stmt 0
	leaq	L___unnamed_60(%rip), %rsi
	movl	$4, %edx
Ltmp1897:
	movzbl	%al, %eax
	leaq	LJTI17_0(%rip), %rcx
	movslq	(%rcx,%rax,4), %rax
	addq	%rcx, %rax
	jmpq	*%rax
Ltmp1898:
LBB17_4:
	.loc	18 809 22 is_stmt 1
	movq	24(%rbx), %rdi
	leaq	l___unnamed_51(%rip), %rsi
	movl	$1, %edx
	callq	__ZN4core3fmt9Formatter9write_str17h98e119ad25a8903eE
	movb	$1, %r14b
	.loc	18 809 17 is_stmt 0
	testb	%al, %al
	jne	LBB17_152
Ltmp1899:
	.loc	18 810 22 is_stmt 1
	movq	%rbx, %rdi
	callq	__ZN14rustc_demangle2v07Printer10print_type17hd9a3ee4dc849e963E
	.loc	18 810 17 is_stmt 0
	testb	%al, %al
	jne	LBB17_152
Ltmp1900:
	.loc	18 811 20 is_stmt 1
	cmpb	$65, %r15b
	.loc	18 811 17 is_stmt 0
	jne	LBB17_9
Ltmp1901:
	.loc	18 812 26 is_stmt 1
	movq	24(%rbx), %rdi
	leaq	l___unnamed_61(%rip), %rsi
	movl	$2, %edx
	callq	__ZN4core3fmt9Formatter9write_str17h98e119ad25a8903eE
	.loc	18 812 21 is_stmt 0
	testb	%al, %al
	jne	LBB17_152
Ltmp1902:
	.loc	18 813 26 is_stmt 1
	movq	%rbx, %rdi
	callq	__ZN14rustc_demangle2v07Printer11print_const17h88d312ebd3ee8f8eE
	.loc	18 813 21 is_stmt 0
	testb	%al, %al
	jne	LBB17_152
Ltmp1903:
LBB17_9:
	.loc	18 815 22 is_stmt 1
	movq	24(%rbx), %rdi
	leaq	l___unnamed_52(%rip), %rsi
	jmp	LBB17_181
Ltmp1904:
LBB17_10:
	.loc	18 784 22
	movq	24(%rbx), %rdi
	leaq	l___unnamed_14(%rip), %rsi
	movl	$1, %edx
	callq	__ZN4core3fmt9Formatter9write_str17h98e119ad25a8903eE
	movb	$1, %r14b
	.loc	18 784 17 is_stmt 0
	testb	%al, %al
	jne	LBB17_152
Ltmp1905:
	.loc	13 484 13 is_stmt 1
	movq	(%rbx), %rax
	testq	%rax, %rax
Ltmp1906:
	.loc	13 611 13
	cmovneq	%rbx, %rax
Ltmp1907:
	.loc	13 519 13
	je	LBB17_18
Ltmp1908:
	.loc	18 280 33
	movq	16(%rax), %rcx
Ltmp1909:
	.loc	5 3090 12
	cmpq	%rcx, 8(%rax)
Ltmp1910:
	.loc	11 456 13
	jbe	LBB17_18
Ltmp1911:
	.loc	18 280 9
	movq	(%rax), %rdx
Ltmp1912:
	.loc	7 1052 52
	cmpb	$76, (%rdx,%rcx)
Ltmp1913:
	.loc	18 284 9
	jne	LBB17_18
Ltmp1914:
	.loc	18 285 13
	incq	%rcx
	movq	%rcx, 16(%rax)
Ltmp1915:
	.loc	13 484 13
	movq	(%rbx), %rcx
	testq	%rcx, %rcx
Ltmp1916:
	.loc	13 611 13
	cmovneq	%rbx, %rcx
Ltmp1917:
	.loc	13 729 13
	je	LBB17_180
Ltmp1918:
	.loc	18 0 0 is_stmt 0
	movq	(%rcx), %r8
Ltmp1919:
	.loc	18 280 9 is_stmt 1
	movq	8(%rcx), %r10
	.loc	18 280 33 is_stmt 0
	movq	16(%rcx), %rsi
Ltmp1920:
	.loc	5 3090 12 is_stmt 1
	cmpq	%rsi, %r10
Ltmp1921:
	.loc	11 456 13
	jbe	LBB17_102
Ltmp1922:
	.loc	7 1052 52
	cmpb	$95, (%r8,%rsi)
Ltmp1923:
	.loc	18 284 9
	jne	LBB17_102
Ltmp1924:
	.loc	18 285 13
	incq	%rsi
	movq	%rsi, 16(%rcx)
Ltmp1925:
LBB17_18:
	.loc	18 792 20
	cmpb	$82, %r15b
	.loc	18 792 17 is_stmt 0
	je	LBB17_74
Ltmp1926:
	.loc	18 793 26 is_stmt 1
	movq	24(%rbx), %rdi
	jmp	LBB17_72
Ltmp1927:
LBB17_20:
	.loc	18 799 22
	movq	24(%rbx), %rdi
	leaq	l___unnamed_12(%rip), %rsi
	movl	$1, %edx
	callq	__ZN4core3fmt9Formatter9write_str17h98e119ad25a8903eE
	movb	$1, %r14b
	.loc	18 799 17 is_stmt 0
	testb	%al, %al
	jne	LBB17_152
Ltmp1928:
	.loc	18 0 0
	movq	24(%rbx), %rdi
	.loc	18 800 20 is_stmt 1
	cmpb	$80, %r15b
	.loc	18 800 17 is_stmt 0
	jne	LBB17_72
Ltmp1929:
	.loc	18 803 26 is_stmt 1
	leaq	l___unnamed_62(%rip), %rsi
	movl	$6, %edx
	jmp	LBB17_73
Ltmp1930:
LBB17_23:
	.loc	18 0 26 is_stmt 0
	leaq	l___unnamed_63(%rip), %rsi
	movl	$5, %edx
Ltmp1931:
	.loc	18 778 32 is_stmt 1
	movq	24(%rbx), %rdi
	jmp	LBB17_182
Ltmp1932:
LBB17_24:
	.loc	18 0 32 is_stmt 0
	leaq	L___unnamed_64(%rip), %rsi
Ltmp1933:
	.loc	18 778 32
	movq	24(%rbx), %rdi
	jmp	LBB17_182
Ltmp1934:
LBB17_25:
	.loc	18 0 32
	leaq	l___unnamed_65(%rip), %rsi
	movl	$3, %edx
Ltmp1935:
	.loc	18 778 32
	movq	24(%rbx), %rdi
	jmp	LBB17_182
Ltmp1936:
LBB17_26:
	.loc	18 0 32
	leaq	l___unnamed_66(%rip), %rsi
	movl	$3, %edx
Ltmp1937:
	.loc	18 778 32
	movq	24(%rbx), %rdi
	jmp	LBB17_182
Ltmp1938:
LBB17_27:
	.loc	18 0 32
	leaq	l___unnamed_49(%rip), %rsi
	movl	$1, %edx
Ltmp1939:
	.loc	18 778 32
	movq	24(%rbx), %rdi
	jmp	LBB17_182
Ltmp1940:
LBB17_28:
	.loc	18 0 32
	leaq	l___unnamed_67(%rip), %rsi
	movl	$2, %edx
Ltmp1941:
	.loc	18 778 32
	movq	24(%rbx), %rdi
	jmp	LBB17_182
Ltmp1942:
LBB17_29:
	.loc	18 0 32
	leaq	l___unnamed_68(%rip), %rsi
	movl	$3, %edx
Ltmp1943:
	.loc	18 778 32
	movq	24(%rbx), %rdi
	jmp	LBB17_182
Ltmp1944:
LBB17_30:
	.loc	18 0 32
	leaq	L___unnamed_69(%rip), %rsi
Ltmp1945:
	.loc	18 778 32
	movq	24(%rbx), %rdi
	jmp	LBB17_182
Ltmp1946:
LBB17_31:
	.loc	18 0 32
	leaq	L___unnamed_70(%rip), %rsi
Ltmp1947:
LBB17_32:
	.loc	18 778 32
	movq	24(%rbx), %rdi
	jmp	LBB17_182
Ltmp1948:
LBB17_33:
	.loc	18 0 32
	leaq	l___unnamed_71(%rip), %rsi
	movl	$3, %edx
Ltmp1949:
	.loc	18 778 32
	movq	24(%rbx), %rdi
	jmp	LBB17_182
Ltmp1950:
LBB17_34:
	.loc	18 0 32
	leaq	l___unnamed_72(%rip), %rsi
	movl	$3, %edx
Ltmp1951:
	.loc	18 778 32
	movq	24(%rbx), %rdi
	jmp	LBB17_182
Ltmp1952:
LBB17_35:
	.loc	18 0 32
	leaq	-80(%rbp), %r14
	.loc	18 893 22 is_stmt 1
	movq	%r14, %rdi
	movq	%rbx, %rsi
	callq	__ZN14rustc_demangle2v07Printer15backref_printer17hb6bed9b479c6a1f7E
	movq	%r14, %rdi
	callq	__ZN14rustc_demangle2v07Printer10print_type17hd9a3ee4dc849e963E
	movl	%eax, %r14d
	jmp	LBB17_152
Ltmp1953:
LBB17_36:
	.loc	13 484 13
	cmpq	$0, (%rbx)
Ltmp1954:
	.loc	13 519 13
	je	LBB17_39
Ltmp1955:
	.loc	18 897 51
	movq	16(%rbx), %rax
	subq	$1, %rax
Ltmp1956:
	jb	LBB17_188
Ltmp1957:
	movq	%rax, 16(%rbx)
Ltmp1958:
LBB17_39:
	.loc	18 898 22
	movq	%rbx, %rdi
	xorl	%esi, %esi
	addq	$40, %rsp
	popq	%rbx
Ltmp1959:
	popq	%r12
	popq	%r13
	popq	%r14
	popq	%r15
Ltmp1960:
	popq	%rbp
	jmp	__ZN14rustc_demangle2v07Printer10print_path17h584adfcc206070e5E
LBB17_40:
Ltmp1961:
	.loc	18 0 22 is_stmt 0
	leaq	l___unnamed_73(%rip), %rsi
	movl	$3, %edx
Ltmp1962:
	.loc	18 778 32 is_stmt 1
	movq	24(%rbx), %rdi
	jmp	LBB17_182
Ltmp1963:
LBB17_41:
	.loc	18 0 32 is_stmt 0
	leaq	l___unnamed_74(%rip), %rsi
	movl	$3, %edx
Ltmp1964:
	.loc	18 778 32
	movq	24(%rbx), %rdi
	jmp	LBB17_182
Ltmp1965:
LBB17_42:
	.loc	18 0 32
	leaq	l___unnamed_75(%rip), %rsi
	movl	$3, %edx
Ltmp1966:
	.loc	18 778 32
	movq	24(%rbx), %rdi
	jmp	LBB17_182
Ltmp1967:
LBB17_43:
	.loc	18 0 32
	leaq	l___unnamed_76(%rip), %rsi
	movl	$1, %edx
Ltmp1968:
	.loc	18 778 32
	movq	24(%rbx), %rdi
	jmp	LBB17_182
Ltmp1969:
LBB17_44:
	.loc	18 877 22 is_stmt 1
	movq	24(%rbx), %rdi
	leaq	L___unnamed_77(%rip), %rsi
	movl	$4, %edx
	callq	__ZN4core3fmt9Formatter9write_str17h98e119ad25a8903eE
	movb	$1, %r14b
	.loc	18 877 17 is_stmt 0
	testb	%al, %al
	jne	LBB17_152
Ltmp1970:
	.loc	13 484 13 is_stmt 1
	movq	(%rbx), %rcx
	testq	%rcx, %rcx
Ltmp1971:
	.loc	13 611 13
	cmovneq	%rbx, %rcx
Ltmp1972:
	.loc	13 729 13
	je	LBB17_151
Ltmp1973:
	.loc	18 280 9
	movq	8(%rcx), %r10
	.loc	18 280 33 is_stmt 0
	movq	16(%rcx), %rax
Ltmp1974:
	.loc	5 3090 12 is_stmt 1
	cmpq	%rax, %r10
Ltmp1975:
	.loc	11 456 13
	jbe	LBB17_92
Ltmp1976:
	.loc	18 280 9
	movq	(%rcx), %r8
Ltmp1977:
	.loc	7 1052 52
	cmpb	$71, (%r8,%rax)
Ltmp1978:
	.loc	18 284 9
	jne	LBB17_92
Ltmp1979:
	.loc	18 285 13
	leaq	1(%rax), %rdi
	movq	%rdi, 16(%rcx)
Ltmp1980:
	.loc	5 3090 12
	cmpq	%rdi, %r10
Ltmp1981:
	.loc	11 456 13
	jbe	LBB17_113
Ltmp1982:
	.loc	7 1052 52
	cmpb	$95, (%r8,%rdi)
Ltmp1983:
	.loc	18 284 9
	jne	LBB17_113
Ltmp1984:
	.loc	18 285 13
	addq	$2, %rax
	movq	%rax, 16(%rcx)
	xorl	%r15d, %r15d
Ltmp1985:
	.loc	18 0 13 is_stmt 0
	jmp	LBB17_150
Ltmp1986:
LBB17_51:
	.loc	18 818 22 is_stmt 1
	movq	24(%rbx), %rdi
	leaq	l___unnamed_20(%rip), %rsi
	movl	$1, %edx
	callq	__ZN4core3fmt9Formatter9write_str17h98e119ad25a8903eE
	movb	$1, %r14b
	.loc	18 818 17 is_stmt 0
	testb	%al, %al
	jne	LBB17_152
Ltmp1987:
	.loc	13 286 25 is_stmt 1
	cmpq	$0, (%rbx)
Ltmp1988:
	.loc	18 672 15
	je	LBB17_127
Ltmp1989:
	.loc	18 0 15 is_stmt 0
	xorl	%r12d, %r12d
	leaq	l___unnamed_50(%rip), %r15
Ltmp1990:
LBB17_54:
	.loc	18 280 33 is_stmt 1
	movq	16(%rbx), %rax
Ltmp1991:
	.loc	5 3090 12
	cmpq	%rax, 8(%rbx)
Ltmp1992:
	.loc	11 456 13
	jbe	LBB17_56
Ltmp1993:
	.loc	18 280 9
	movq	(%rbx), %rcx
Ltmp1994:
	.loc	7 1052 52
	cmpb	$69, (%rcx,%rax)
Ltmp1995:
	.loc	18 284 9
	je	LBB17_124
Ltmp1996:
LBB17_56:
	.loc	18 673 16
	testq	%r12, %r12
	.loc	18 673 13 is_stmt 0
	je	LBB17_58
Ltmp1997:
	.loc	18 674 22 is_stmt 1
	movq	24(%rbx), %rdi
	movl	$2, %edx
	movq	%r15, %rsi
	callq	__ZN4core3fmt9Formatter9write_str17h98e119ad25a8903eE
	.loc	18 674 17 is_stmt 0
	testb	%al, %al
	jne	LBB17_152
Ltmp1998:
LBB17_58:
	.loc	17 72 5 is_stmt 1
	movq	%rbx, %rdi
	callq	__ZN14rustc_demangle2v07Printer10print_type17hd9a3ee4dc849e963E
Ltmp1999:
	.loc	18 676 13
	testb	%al, %al
	jne	LBB17_152
Ltmp2000:
	.loc	18 677 13
	incq	%r12
	je	LBB17_186
Ltmp2001:
	.loc	13 286 25
	cmpq	$0, (%rbx)
Ltmp2002:
	.loc	18 672 15
	jne	LBB17_54
	jmp	LBB17_125
Ltmp2003:
LBB17_61:
	.loc	13 484 13
	movq	(%rbx), %rcx
	testq	%rcx, %rcx
Ltmp2004:
	.loc	13 611 13
	cmovneq	%rbx, %rcx
Ltmp2005:
	.loc	13 729 13
	je	LBB17_132
Ltmp2006:
	.loc	18 280 9
	movq	8(%rcx), %r10
	.loc	18 280 33 is_stmt 0
	movq	16(%rcx), %rax
Ltmp2007:
	.loc	5 3090 12 is_stmt 1
	cmpq	%rax, %r10
Ltmp2008:
	.loc	11 456 13
	jbe	LBB17_77
Ltmp2009:
	.loc	18 280 9
	movq	(%rcx), %r8
Ltmp2010:
	.loc	7 1052 52
	cmpb	$71, (%r8,%rax)
Ltmp2011:
	.loc	18 284 9
	jne	LBB17_77
Ltmp2012:
	.loc	18 285 13
	leaq	1(%rax), %rdi
	movq	%rdi, 16(%rcx)
Ltmp2013:
	.loc	5 3090 12
	cmpq	%rdi, %r10
Ltmp2014:
	.loc	11 456 13
	jbe	LBB17_81
Ltmp2015:
	.loc	7 1052 52
	cmpb	$95, (%r8,%rdi)
Ltmp2016:
	.loc	18 284 9
	jne	LBB17_81
Ltmp2017:
	.loc	18 285 13
	addq	$2, %rax
	movq	%rax, 16(%rcx)
	xorl	%r14d, %r14d
	jmp	LBB17_131
Ltmp2018:
LBB17_67:
	.loc	18 0 13 is_stmt 0
	leaq	l___unnamed_78(%rip), %rsi
	movl	$5, %edx
Ltmp2019:
	.loc	18 778 32 is_stmt 1
	movq	24(%rbx), %rdi
	jmp	LBB17_182
Ltmp2020:
LBB17_68:
	.loc	18 0 32 is_stmt 0
	leaq	l___unnamed_79(%rip), %rsi
	movl	$2, %edx
Ltmp2021:
	.loc	18 778 32
	movq	24(%rbx), %rdi
	jmp	LBB17_182
Ltmp2022:
LBB17_69:
	.loc	18 0 32
	leaq	l___unnamed_80(%rip), %rsi
	movl	$3, %edx
Ltmp2023:
	.loc	18 778 32
	movq	24(%rbx), %rdi
	jmp	LBB17_182
Ltmp2024:
LBB17_70:
	.loc	18 0 32
	leaq	l___unnamed_81(%rip), %rsi
	movl	$3, %edx
Ltmp2025:
	.loc	18 778 32
	movq	24(%rbx), %rdi
	jmp	LBB17_182
Ltmp2026:
LBB17_71:
	.loc	18 0 32
	leaq	l___unnamed_3(%rip), %rsi
	movl	$2, %edx
Ltmp2027:
	.loc	18 778 32
	movq	24(%rbx), %rdi
	jmp	LBB17_182
Ltmp2028:
LBB17_72:
	.loc	18 0 0
	leaq	L___unnamed_82(%rip), %rsi
	movl	$4, %edx
Ltmp2029:
LBB17_73:
	callq	__ZN4core3fmt9Formatter9write_str17h98e119ad25a8903eE
	testb	%al, %al
	jne	LBB17_152
Ltmp2030:
LBB17_74:
	movq	%rbx, %rdi
	addq	$40, %rsp
	popq	%rbx
Ltmp2031:
	popq	%r12
	popq	%r13
	popq	%r14
	popq	%r15
Ltmp2032:
	popq	%rbp
	jmp	__ZN14rustc_demangle2v07Printer10print_type17hd9a3ee4dc849e963E
LBB17_77:
Ltmp2033:
	xorl	%r14d, %r14d
Ltmp2034:
LBB17_78:
	.loc	18 657 17 is_stmt 1
	movq	%rbx, %rdi
	callq	__ZN14rustc_demangle2v07Printer10print_type28_$u7b$$u7b$closure$u7d$$u7d$17hd8faaa1758ce5a97E
Ltmp2035:
	.loc	18 660 9
	movl	32(%rbx), %ecx
	subl	%r14d, %ecx
	jb	LBB17_187
Ltmp2036:
	movl	%ecx, 32(%rbx)
Ltmp2037:
	.loc	18 825 21
	testb	%al, %al
	jne	LBB17_133
	jmp	LBB17_134
Ltmp2038:
LBB17_92:
	.loc	18 0 21 is_stmt 0
	xorl	%r15d, %r15d
Ltmp2039:
LBB17_93:
	.loc	13 286 25 is_stmt 1
	cmpq	$0, (%rbx)
Ltmp2040:
	.loc	18 672 15
	je	LBB17_143
Ltmp2041:
	.loc	18 0 15 is_stmt 0
	xorl	%r13d, %r13d
	leaq	l___unnamed_83(%rip), %r12
Ltmp2042:
LBB17_95:
	.loc	18 280 33 is_stmt 1
	movq	16(%rbx), %rax
Ltmp2043:
	.loc	5 3090 12
	cmpq	%rax, 8(%rbx)
Ltmp2044:
	.loc	11 456 13
	jbe	LBB17_97
Ltmp2045:
	.loc	18 280 9
	movq	(%rbx), %rcx
Ltmp2046:
	.loc	7 1052 52
	cmpb	$69, (%rcx,%rax)
Ltmp2047:
	.loc	18 284 9
	je	LBB17_142
Ltmp2048:
LBB17_97:
	.loc	18 673 16
	testq	%r13, %r13
	.loc	18 673 13 is_stmt 0
	je	LBB17_99
Ltmp2049:
	.loc	18 674 22 is_stmt 1
	movq	24(%rbx), %rdi
	movl	$3, %edx
	movq	%r12, %rsi
	callq	__ZN4core3fmt9Formatter9write_str17h98e119ad25a8903eE
	.loc	18 674 17 is_stmt 0
	testb	%al, %al
	jne	LBB17_129
Ltmp2050:
LBB17_99:
	.loc	17 72 5 is_stmt 1
	movq	%rbx, %rdi
	callq	__ZN14rustc_demangle2v07Printer15print_dyn_trait17h1e44b90d729e83ceE
Ltmp2051:
	.loc	18 676 13
	testb	%al, %al
	jne	LBB17_129
Ltmp2052:
	.loc	18 677 13
	incq	%r13
	je	LBB17_186
Ltmp2053:
	.loc	13 286 25
	cmpq	$0, (%rbx)
Ltmp2054:
	.loc	18 672 15
	jne	LBB17_95
	jmp	LBB17_143
Ltmp2055:
LBB17_81:
	.loc	18 0 15 is_stmt 0
	xorl	%r14d, %r14d
	movl	$62, %r9d
Ltmp2056:
LBB17_82:
	.loc	5 3090 12 is_stmt 1
	cmpq	%rdi, %r10
Ltmp2057:
	.loc	11 456 13
	jbe	LBB17_132
Ltmp2058:
	.loc	11 456 29 is_stmt 0
	movzbl	(%r8,%rdi), %eax
Ltmp2059:
	.loc	7 1052 52 is_stmt 1
	cmpb	$95, %al
Ltmp2060:
	.loc	18 284 9
	je	LBB17_130
Ltmp2061:
	.loc	18 321 22
	leal	-48(%rax), %esi
	cmpb	$10, %sil
Ltmp2062:
	jb	LBB17_90
Ltmp2063:
	.loc	18 322 22
	leal	-97(%rax), %edx
	cmpb	$26, %dl
	jae	LBB17_87
Ltmp2064:
	.loc	18 322 38 is_stmt 0
	addb	$-87, %al
Ltmp2065:
	.loc	18 0 38
	jmp	LBB17_89
Ltmp2066:
LBB17_87:
	.loc	18 323 22 is_stmt 1
	leal	-65(%rax), %edx
	cmpb	$26, %dl
	jae	LBB17_132
Ltmp2067:
	.loc	18 323 38 is_stmt 0
	addb	$-29, %al
Ltmp2068:
LBB17_89:
	.loc	18 0 0
	movl	%eax, %esi
Ltmp2069:
LBB17_90:
	.loc	18 326 9 is_stmt 1
	incq	%rdi
	movq	%rdi, 16(%rcx)
Ltmp2070:
	.loc	19 3807 26
	movq	%r14, %rax
	mulq	%r9
Ltmp2071:
	.loc	18 338 17
	jo	LBB17_132
Ltmp2072:
	.loc	18 0 0 is_stmt 0
	movq	%rax, %r14
Ltmp2073:
	.loc	18 337 21 is_stmt 1
	movzbl	%sil, %eax
Ltmp2074:
	.loc	19 3751 30
	addq	%rax, %r14
Ltmp2075:
	.loc	18 339 17
	jae	LBB17_82
	jmp	LBB17_132
Ltmp2076:
LBB17_129:
	.loc	18 0 17 is_stmt 0
	movb	$1, %al
	jmp	LBB17_144
Ltmp2077:
LBB17_102:
	xorl	%eax, %eax
	movl	$62, %r9d
Ltmp2078:
LBB17_103:
	.loc	5 3090 12 is_stmt 1
	cmpq	%rsi, %r10
Ltmp2079:
	.loc	11 456 13
	jbe	LBB17_180
Ltmp2080:
	.loc	11 456 29 is_stmt 0
	movzbl	(%r8,%rsi), %edx
Ltmp2081:
	.loc	7 1052 52 is_stmt 1
	cmpb	$95, %dl
Ltmp2082:
	.loc	18 284 9
	je	LBB17_146
Ltmp2083:
	.loc	18 321 22
	leal	-48(%rdx), %edi
	cmpb	$10, %dil
Ltmp2084:
	jb	LBB17_111
Ltmp2085:
	.loc	18 322 22
	leal	-97(%rdx), %edi
	cmpb	$26, %dil
	jae	LBB17_108
Ltmp2086:
	.loc	18 322 38 is_stmt 0
	addb	$-87, %dl
Ltmp2087:
	.loc	18 0 38
	jmp	LBB17_110
Ltmp2088:
LBB17_108:
	.loc	18 323 22 is_stmt 1
	leal	-65(%rdx), %edi
	cmpb	$26, %dil
	jae	LBB17_180
Ltmp2089:
	.loc	18 323 38 is_stmt 0
	addb	$-29, %dl
Ltmp2090:
LBB17_110:
	.loc	18 0 0
	movl	%edx, %edi
Ltmp2091:
LBB17_111:
	.loc	18 326 9 is_stmt 1
	incq	%rsi
	movq	%rsi, 16(%rcx)
Ltmp2092:
	.loc	19 3807 26
	mulq	%r9
Ltmp2093:
	.loc	18 338 17
	jo	LBB17_180
Ltmp2094:
	.loc	18 337 21
	movzbl	%dil, %edx
Ltmp2095:
	.loc	19 3751 30
	addq	%rdx, %rax
Ltmp2096:
	.loc	19 0 30 is_stmt 0
	jae	LBB17_103
	jmp	LBB17_180
Ltmp2097:
LBB17_113:
	xorl	%r15d, %r15d
Ltmp2098:
	movl	$62, %r9d
Ltmp2099:
LBB17_114:
	.loc	5 3090 12 is_stmt 1
	cmpq	%rdi, %r10
Ltmp2100:
	.loc	11 456 13
	jbe	LBB17_151
Ltmp2101:
	.loc	11 456 29 is_stmt 0
	movzbl	(%r8,%rdi), %eax
Ltmp2102:
	.loc	7 1052 52 is_stmt 1
	cmpb	$95, %al
Ltmp2103:
	.loc	18 284 9
	je	LBB17_149
Ltmp2104:
	.loc	18 321 22
	leal	-48(%rax), %esi
	cmpb	$10, %sil
Ltmp2105:
	jb	LBB17_122
Ltmp2106:
	.loc	18 322 22
	leal	-97(%rax), %edx
	cmpb	$26, %dl
	jae	LBB17_119
Ltmp2107:
	.loc	18 322 38 is_stmt 0
	addb	$-87, %al
Ltmp2108:
	.loc	18 0 38
	jmp	LBB17_121
Ltmp2109:
LBB17_119:
	.loc	18 323 22 is_stmt 1
	leal	-65(%rax), %edx
	cmpb	$26, %dl
	jae	LBB17_151
Ltmp2110:
	.loc	18 323 38 is_stmt 0
	addb	$-29, %al
Ltmp2111:
LBB17_121:
	.loc	18 0 0
	movl	%eax, %esi
Ltmp2112:
LBB17_122:
	.loc	18 326 9 is_stmt 1
	incq	%rdi
	movq	%rdi, 16(%rcx)
Ltmp2113:
	.loc	19 3807 26
	movq	%r15, %rax
	mulq	%r9
Ltmp2114:
	.loc	18 338 17
	jo	LBB17_151
Ltmp2115:
	.loc	18 0 0 is_stmt 0
	movq	%rax, %r15
Ltmp2116:
	.loc	18 337 21 is_stmt 1
	movzbl	%sil, %eax
Ltmp2117:
	.loc	19 3751 30
	addq	%rax, %r15
Ltmp2118:
	.loc	18 339 17
	jae	LBB17_114
	jmp	LBB17_151
Ltmp2119:
LBB17_124:
	.loc	18 285 13
	incq	%rax
	movq	%rax, 16(%rbx)
Ltmp2120:
LBB17_125:
	.loc	18 820 20
	cmpq	$1, %r12
	.loc	18 820 17 is_stmt 0
	jne	LBB17_127
Ltmp2121:
	.loc	18 821 26 is_stmt 1
	movq	24(%rbx), %rdi
	leaq	l___unnamed_24(%rip), %rsi
	movl	$1, %edx
	callq	__ZN4core3fmt9Formatter9write_str17h98e119ad25a8903eE
	.loc	18 821 21 is_stmt 0
	testb	%al, %al
	jne	LBB17_152
Ltmp2122:
LBB17_127:
	.loc	18 823 22 is_stmt 1
	movq	24(%rbx), %rdi
	leaq	l___unnamed_22(%rip), %rsi
	jmp	LBB17_181
Ltmp2123:
LBB17_130:
	.loc	18 285 13
	incq	%rdi
Ltmp2124:
	movq	%rdi, 16(%rcx)
Ltmp2125:
	.loc	19 3751 30
	incq	%r14
Ltmp2126:
	.loc	18 348 9
	je	LBB17_132
Ltmp2127:
LBB17_131:
	.loc	19 3751 30
	incq	%r14
Ltmp2128:
	.loc	18 643 31
	jne	LBB17_135
Ltmp2129:
LBB17_132:
	movq	$0, (%rbx)
	movq	24(%rbx), %rdi
	leaq	l___unnamed_48(%rip), %rsi
	movl	$1, %edx
	callq	__ZN4core3fmt9Formatter9write_str17h98e119ad25a8903eE
Ltmp2130:
	.loc	18 825 21
	testb	%al, %al
	je	LBB17_134
Ltmp2131:
LBB17_133:
	.loc	18 0 21 is_stmt 0
	movb	$1, %r14b
	jmp	LBB17_152
Ltmp2132:
LBB17_134:
	xorl	%r14d, %r14d
	jmp	LBB17_152
Ltmp2133:
LBB17_135:
	.loc	18 646 18 is_stmt 1
	movq	24(%rbx), %rdi
	leaq	L___unnamed_84(%rip), %rsi
	movl	$4, %edx
	callq	__ZN4core3fmt9Formatter9write_str17h98e119ad25a8903eE
	.loc	18 646 13 is_stmt 0
	testb	%al, %al
	jne	LBB17_133
Ltmp2134:
	.loc	18 0 13
	xorl	%r12d, %r12d
	leaq	l___unnamed_50(%rip), %r15
Ltmp2135:
LBB17_137:
	.loc	7 1136 52 is_stmt 1
	cmpq	%r12, %r14
Ltmp2136:
	.loc	9 505 9
	je	LBB17_178
Ltmp2137:
	.loc	18 648 20
	testq	%r12, %r12
	.loc	18 648 17 is_stmt 0
	je	LBB17_140
Ltmp2138:
	.loc	18 649 26 is_stmt 1
	movq	24(%rbx), %rdi
	movl	$2, %edx
	movq	%r15, %rsi
	callq	__ZN4core3fmt9Formatter9write_str17h98e119ad25a8903eE
	.loc	18 649 21 is_stmt 0
	testb	%al, %al
	jne	LBB17_133
Ltmp2139:
LBB17_140:
	.loc	18 651 17 is_stmt 1
	movl	32(%rbx), %eax
	incl	%eax
	je	LBB17_189
Ltmp2140:
	.loc	18 0 0 is_stmt 0
	incq	%r12
Ltmp2141:
	.loc	18 651 17
	movl	%eax, 32(%rbx)
	.loc	18 652 22 is_stmt 1
	movl	$1, %esi
	movq	%rbx, %rdi
	callq	__ZN14rustc_demangle2v07Printer25print_lifetime_from_index17h57cb7a45b0a1cec8E
	.loc	18 652 17 is_stmt 0
	testb	%al, %al
	je	LBB17_137
	jmp	LBB17_133
Ltmp2142:
LBB17_142:
	.loc	18 285 13 is_stmt 1
	incq	%rax
	movq	%rax, 16(%rbx)
Ltmp2143:
LBB17_143:
	.loc	18 0 13 is_stmt 0
	xorl	%eax, %eax
Ltmp2144:
LBB17_144:
	.loc	18 660 9 is_stmt 1
	movl	32(%rbx), %ecx
	subl	%r15d, %ecx
	jb	LBB17_187
Ltmp2145:
	movl	%ecx, 32(%rbx)
Ltmp2146:
	.loc	18 878 17
	testb	%al, %al
	je	LBB17_153
	jmp	LBB17_152
Ltmp2147:
LBB17_146:
	.loc	18 285 13
	incq	%rsi
Ltmp2148:
	movq	%rsi, 16(%rcx)
Ltmp2149:
	.loc	19 3751 30
	incq	%rax
Ltmp2150:
	.loc	18 786 30
	je	LBB17_180
Ltmp2151:
	.loc	18 788 30
	movq	%rbx, %rdi
	movq	%rax, %rsi
	callq	__ZN14rustc_demangle2v07Printer25print_lifetime_from_index17h57cb7a45b0a1cec8E
Ltmp2152:
	.loc	18 788 25 is_stmt 0
	testb	%al, %al
	jne	LBB17_152
Ltmp2153:
	.loc	18 789 30 is_stmt 1
	movq	24(%rbx), %rdi
	leaq	l___unnamed_85(%rip), %rsi
	movl	$1, %edx
	callq	__ZN4core3fmt9Formatter9write_str17h98e119ad25a8903eE
	.loc	18 789 25 is_stmt 0
	testb	%al, %al
	je	LBB17_18
	jmp	LBB17_152
Ltmp2154:
LBB17_149:
	.loc	18 285 13 is_stmt 1
	incq	%rdi
Ltmp2155:
	movq	%rdi, 16(%rcx)
Ltmp2156:
	.loc	19 3751 30
	incq	%r15
Ltmp2157:
	.loc	18 348 9
	je	LBB17_151
Ltmp2158:
LBB17_150:
	.loc	19 3751 30
	incq	%r15
Ltmp2159:
	.loc	18 643 31
	jne	LBB17_171
Ltmp2160:
LBB17_151:
	movq	$0, (%rbx)
	movq	24(%rbx), %rdi
	leaq	l___unnamed_48(%rip), %rsi
	movl	$1, %edx
	callq	__ZN4core3fmt9Formatter9write_str17h98e119ad25a8903eE
Ltmp2161:
	.loc	18 878 17
	testb	%al, %al
	je	LBB17_153
Ltmp2162:
LBB17_152:
	.loc	18 902 6
	movl	%r14d, %eax
	addq	$40, %rsp
	popq	%rbx
Ltmp2163:
	popq	%r12
	popq	%r13
	popq	%r14
	popq	%r15
	popq	%rbp
	retq
LBB17_153:
Ltmp2164:
	.loc	13 484 13
	movq	(%rbx), %rax
	testq	%rax, %rax
Ltmp2165:
	.loc	13 611 13
	cmovneq	%rbx, %rax
Ltmp2166:
	.loc	13 519 13
	je	LBB17_180
Ltmp2167:
	.loc	18 280 33
	movq	16(%rax), %rcx
Ltmp2168:
	.loc	5 3090 12
	cmpq	%rcx, 8(%rax)
Ltmp2169:
	.loc	11 456 13
	jbe	LBB17_180
Ltmp2170:
	.loc	18 280 9
	movq	(%rax), %rdx
Ltmp2171:
	.loc	7 1052 52
	cmpb	$76, (%rdx,%rcx)
Ltmp2172:
	.loc	18 284 9
	jne	LBB17_180
Ltmp2173:
	.loc	18 285 13
	incq	%rcx
	movq	%rcx, 16(%rax)
Ltmp2174:
	.loc	13 484 13
	movq	(%rbx), %rcx
	testq	%rcx, %rcx
Ltmp2175:
	.loc	13 611 13
	cmovneq	%rbx, %rcx
Ltmp2176:
	.loc	13 729 13
	je	LBB17_180
Ltmp2177:
	.loc	18 0 0 is_stmt 0
	movq	(%rcx), %r8
Ltmp2178:
	.loc	18 280 9 is_stmt 1
	movq	8(%rcx), %r10
	.loc	18 280 33 is_stmt 0
	movq	16(%rcx), %rsi
Ltmp2179:
	.loc	5 3090 12 is_stmt 1
	cmpq	%rsi, %r10
Ltmp2180:
	.loc	11 456 13
	jbe	LBB17_160
Ltmp2181:
	.loc	7 1052 52
	cmpb	$95, (%r8,%rsi)
Ltmp2182:
	.loc	18 284 9
	jne	LBB17_160
Ltmp2183:
	.loc	18 285 13
	incq	%rsi
	movq	%rsi, 16(%rcx)
	xorl	%r14d, %r14d
	jmp	LBB17_152
Ltmp2184:
LBB17_160:
	.loc	18 0 13 is_stmt 0
	xorl	%r15d, %r15d
	movl	$62, %r9d
Ltmp2185:
LBB17_161:
	.loc	5 3090 12 is_stmt 1
	cmpq	%rsi, %r10
Ltmp2186:
	.loc	11 456 13
	jbe	LBB17_180
Ltmp2187:
	.loc	11 456 29 is_stmt 0
	movzbl	(%r8,%rsi), %eax
Ltmp2188:
	.loc	7 1052 52 is_stmt 1
	cmpb	$95, %al
Ltmp2189:
	.loc	18 284 9
	je	LBB17_179
Ltmp2190:
	.loc	18 321 22
	leal	-48(%rax), %edi
	cmpb	$10, %dil
Ltmp2191:
	jb	LBB17_169
Ltmp2192:
	.loc	18 322 22
	leal	-97(%rax), %edx
	cmpb	$26, %dl
	jae	LBB17_166
Ltmp2193:
	.loc	18 322 38 is_stmt 0
	addb	$-87, %al
Ltmp2194:
	.loc	18 0 38
	jmp	LBB17_168
Ltmp2195:
LBB17_166:
	.loc	18 323 22 is_stmt 1
	leal	-65(%rax), %edx
	cmpb	$26, %dl
	jae	LBB17_180
Ltmp2196:
	.loc	18 323 38 is_stmt 0
	addb	$-29, %al
Ltmp2197:
LBB17_168:
	.loc	18 0 0
	movl	%eax, %edi
Ltmp2198:
LBB17_169:
	.loc	18 326 9 is_stmt 1
	incq	%rsi
	movq	%rsi, 16(%rcx)
Ltmp2199:
	.loc	19 3807 26
	movq	%r15, %rax
	mulq	%r9
Ltmp2200:
	.loc	18 338 17
	jo	LBB17_180
Ltmp2201:
	.loc	18 0 0 is_stmt 0
	movq	%rax, %r15
Ltmp2202:
	.loc	18 337 21 is_stmt 1
	movzbl	%dil, %eax
Ltmp2203:
	.loc	19 3751 30
	addq	%rax, %r15
Ltmp2204:
	.loc	19 0 30 is_stmt 0
	jae	LBB17_161
	jmp	LBB17_180
Ltmp2205:
LBB17_171:
	.loc	18 646 18 is_stmt 1
	movq	24(%rbx), %rdi
	leaq	L___unnamed_84(%rip), %rsi
	movl	$4, %edx
	callq	__ZN4core3fmt9Formatter9write_str17h98e119ad25a8903eE
	.loc	18 646 13 is_stmt 0
	testb	%al, %al
	jne	LBB17_152
Ltmp2206:
	.loc	18 0 13
	xorl	%r13d, %r13d
	leaq	l___unnamed_50(%rip), %r12
Ltmp2207:
LBB17_173:
	.loc	7 1136 52 is_stmt 1
	cmpq	%r13, %r15
Ltmp2208:
	.loc	9 505 9
	je	LBB17_183
Ltmp2209:
	.loc	18 648 20
	testq	%r13, %r13
	.loc	18 648 17 is_stmt 0
	je	LBB17_176
Ltmp2210:
	.loc	18 649 26 is_stmt 1
	movq	24(%rbx), %rdi
	movl	$2, %edx
	movq	%r12, %rsi
	callq	__ZN4core3fmt9Formatter9write_str17h98e119ad25a8903eE
	.loc	18 649 21 is_stmt 0
	testb	%al, %al
	jne	LBB17_152
Ltmp2211:
LBB17_176:
	.loc	18 651 17 is_stmt 1
	movl	32(%rbx), %eax
	incl	%eax
	je	LBB17_189
Ltmp2212:
	.loc	18 0 0 is_stmt 0
	incq	%r13
Ltmp2213:
	.loc	18 651 17
	movl	%eax, 32(%rbx)
	.loc	18 652 22 is_stmt 1
	movl	$1, %esi
	movq	%rbx, %rdi
	callq	__ZN14rustc_demangle2v07Printer25print_lifetime_from_index17h57cb7a45b0a1cec8E
	.loc	18 652 17 is_stmt 0
	testb	%al, %al
	je	LBB17_173
	jmp	LBB17_152
Ltmp2214:
LBB17_178:
	.loc	18 654 18 is_stmt 1
	movq	24(%rbx), %rdi
	leaq	l___unnamed_86(%rip), %rsi
	movl	$2, %edx
	callq	__ZN4core3fmt9Formatter9write_str17h98e119ad25a8903eE
	.loc	18 654 13 is_stmt 0
	testb	%al, %al
	je	LBB17_78
	jmp	LBB17_133
Ltmp2215:
LBB17_179:
	.loc	18 285 13 is_stmt 1
	incq	%rsi
Ltmp2216:
	movq	%rsi, 16(%rcx)
Ltmp2217:
	.loc	19 3751 30
	incq	%r15
Ltmp2218:
	.loc	18 886 26
	jne	LBB17_184
Ltmp2219:
LBB17_180:
	.loc	18 0 0 is_stmt 0
	movq	$0, (%rbx)
	movq	24(%rbx), %rdi
	leaq	l___unnamed_48(%rip), %rsi
Ltmp2220:
LBB17_181:
	movl	$1, %edx
Ltmp2221:
LBB17_182:
	addq	$40, %rsp
	popq	%rbx
Ltmp2222:
	popq	%r12
	popq	%r13
	popq	%r14
	popq	%r15
	popq	%rbp
	jmp	__ZN4core3fmt9Formatter9write_str17h98e119ad25a8903eE
LBB17_183:
Ltmp2223:
	.loc	18 654 18 is_stmt 1
	movq	24(%rbx), %rdi
	leaq	l___unnamed_86(%rip), %rsi
	movl	$2, %edx
	callq	__ZN4core3fmt9Formatter9write_str17h98e119ad25a8903eE
	.loc	18 654 13 is_stmt 0
	testb	%al, %al
	je	LBB17_93
	jmp	LBB17_152
Ltmp2224:
LBB17_184:
	.loc	18 888 26 is_stmt 1
	movq	24(%rbx), %rdi
	leaq	l___unnamed_83(%rip), %rsi
	movl	$3, %edx
	callq	__ZN4core3fmt9Formatter9write_str17h98e119ad25a8903eE
	.loc	18 888 21 is_stmt 0
	testb	%al, %al
	jne	LBB17_152
Ltmp2225:
	.loc	18 889 26 is_stmt 1
	movq	%rbx, %rdi
	movq	%r15, %rsi
	addq	$40, %rsp
	popq	%rbx
Ltmp2226:
	popq	%r12
	popq	%r13
	popq	%r14
	popq	%r15
Ltmp2227:
	popq	%rbp
	jmp	__ZN14rustc_demangle2v07Printer25print_lifetime_from_index17h57cb7a45b0a1cec8E
Ltmp2228:
LBB17_186:
	.loc	18 0 0 is_stmt 0
	leaq	_str.0(%rip), %rdi
	leaq	l___unnamed_59(%rip), %rdx
	movl	$28, %esi
	callq	__ZN4core9panicking5panic17h383a6b80ea7021aaE
Ltmp2229:
LBB17_187:
	leaq	_str.1(%rip), %rdi
	leaq	l___unnamed_87(%rip), %rdx
	movl	$33, %esi
	callq	__ZN4core9panicking5panic17h383a6b80ea7021aaE
Ltmp2230:
LBB17_188:
	.loc	18 897 51 is_stmt 1
	leaq	_str.1(%rip), %rdi
	leaq	l___unnamed_88(%rip), %rdx
	movl	$33, %esi
	callq	__ZN4core9panicking5panic17h383a6b80ea7021aaE
Ltmp2231:
LBB17_189:
	.loc	18 0 0 is_stmt 0
	leaq	_str.0(%rip), %rdi
	leaq	l___unnamed_89(%rip), %rdx
	movl	$28, %esi
	callq	__ZN4core9panicking5panic17h383a6b80ea7021aaE
Ltmp2232:
Lfunc_end17:
	.cfi_endproc
	.p2align	2, 0x90
	.data_region jt32
.set L17_0_set_4, LBB17_4-LJTI17_0
.set L17_0_set_35, LBB17_35-LJTI17_0
.set L17_0_set_36, LBB17_36-LJTI17_0
.set L17_0_set_44, LBB17_44-LJTI17_0
.set L17_0_set_61, LBB17_61-LJTI17_0
.set L17_0_set_20, LBB17_20-LJTI17_0
.set L17_0_set_10, LBB17_10-LJTI17_0
.set L17_0_set_51, LBB17_51-LJTI17_0
.set L17_0_set_28, LBB17_28-LJTI17_0
.set L17_0_set_32, LBB17_32-LJTI17_0
.set L17_0_set_31, LBB17_31-LJTI17_0
.set L17_0_set_25, LBB17_25-LJTI17_0
.set L17_0_set_41, LBB17_41-LJTI17_0
.set L17_0_set_42, LBB17_42-LJTI17_0
.set L17_0_set_68, LBB17_68-LJTI17_0
.set L17_0_set_67, LBB17_67-LJTI17_0
.set L17_0_set_23, LBB17_23-LJTI17_0
.set L17_0_set_33, LBB17_33-LJTI17_0
.set L17_0_set_69, LBB17_69-LJTI17_0
.set L17_0_set_24, LBB17_24-LJTI17_0
.set L17_0_set_30, LBB17_30-LJTI17_0
.set L17_0_set_27, LBB17_27-LJTI17_0
.set L17_0_set_40, LBB17_40-LJTI17_0
.set L17_0_set_26, LBB17_26-LJTI17_0
.set L17_0_set_71, LBB17_71-LJTI17_0
.set L17_0_set_70, LBB17_70-LJTI17_0
.set L17_0_set_29, LBB17_29-LJTI17_0
.set L17_0_set_34, LBB17_34-LJTI17_0
.set L17_0_set_43, LBB17_43-LJTI17_0
LJTI17_0:
	.long	L17_0_set_4
	.long	L17_0_set_35
	.long	L17_0_set_36
	.long	L17_0_set_44
	.long	L17_0_set_36
	.long	L17_0_set_61
	.long	L17_0_set_36
	.long	L17_0_set_36
	.long	L17_0_set_36
	.long	L17_0_set_36
	.long	L17_0_set_36
	.long	L17_0_set_36
	.long	L17_0_set_36
	.long	L17_0_set_36
	.long	L17_0_set_20
	.long	L17_0_set_20
	.long	L17_0_set_10
	.long	L17_0_set_10
	.long	L17_0_set_4
	.long	L17_0_set_51
	.long	L17_0_set_36
	.long	L17_0_set_36
	.long	L17_0_set_36
	.long	L17_0_set_36
	.long	L17_0_set_36
	.long	L17_0_set_36
	.long	L17_0_set_36
	.long	L17_0_set_36
	.long	L17_0_set_36
	.long	L17_0_set_36
	.long	L17_0_set_36
	.long	L17_0_set_36
	.long	L17_0_set_28
	.long	L17_0_set_32
	.long	L17_0_set_31
	.long	L17_0_set_25
	.long	L17_0_set_41
	.long	L17_0_set_42
	.long	L17_0_set_36
	.long	L17_0_set_68
	.long	L17_0_set_67
	.long	L17_0_set_23
	.long	L17_0_set_36
	.long	L17_0_set_33
	.long	L17_0_set_69
	.long	L17_0_set_24
	.long	L17_0_set_30
	.long	L17_0_set_27
	.long	L17_0_set_36
	.long	L17_0_set_36
	.long	L17_0_set_40
	.long	L17_0_set_26
	.long	L17_0_set_71
	.long	L17_0_set_70
	.long	L17_0_set_36
	.long	L17_0_set_29
	.long	L17_0_set_34
	.long	L17_0_set_43
	.end_data_region

	.p2align	4, 0x90
__ZN14rustc_demangle2v07Printer10print_type28_$u7b$$u7b$closure$u7d$$u7d$17hd8faaa1758ce5a97E:
Lfunc_begin18:
	.loc	18 825 0 is_stmt 1
	.cfi_startproc
	pushq	%rbp
	.cfi_def_cfa_offset 16
	.cfi_offset %rbp, -16
	movq	%rsp, %rbp
	.cfi_def_cfa_register %rbp
	pushq	%r15
	pushq	%r14
	pushq	%r13
	pushq	%r12
	pushq	%rbx
	subq	$152, %rsp
	.cfi_offset %rbx, -56
	.cfi_offset %r12, -48
	.cfi_offset %r13, -40
	.cfi_offset %r14, -32
	.cfi_offset %r15, -24
	movq	%rdi, %r15
Ltmp2233:
	.loc	13 484 13 prologue_end
	movq	(%rdi), %rax
	testq	%rax, %rax
Ltmp2234:
	.loc	13 611 13
	cmovneq	%rdi, %rax
Ltmp2235:
	.loc	13 519 13
	je	LBB18_30
Ltmp2236:
	.loc	18 280 33
	movq	16(%rax), %rcx
Ltmp2237:
	.loc	5 3090 12
	cmpq	%rcx, 8(%rax)
Ltmp2238:
	.loc	11 456 13
	jbe	LBB18_2
Ltmp2239:
	.loc	18 280 9
	movq	(%rax), %rdx
Ltmp2240:
	.loc	7 1052 52
	cmpb	$85, (%rdx,%rcx)
Ltmp2241:
	.loc	18 284 9
	jne	LBB18_4
Ltmp2242:
	.loc	18 285 13
	incq	%rcx
	movq	%rcx, 16(%rax)
	movb	$1, %r14b
Ltmp2243:
	.loc	13 484 13
	cmpq	$0, (%r15)
Ltmp2244:
	.loc	13 519 13
	jne	LBB18_6
	jmp	LBB18_21
Ltmp2245:
LBB18_2:
	.loc	13 0 13 is_stmt 0
	xorl	%r14d, %r14d
Ltmp2246:
LBB18_6:
	.loc	18 280 33 is_stmt 1
	movq	16(%r15), %rax
Ltmp2247:
	.loc	5 3090 12
	cmpq	%rax, 8(%r15)
Ltmp2248:
	.loc	11 456 13
	ja	LBB18_7
	jmp	LBB18_20
Ltmp2249:
LBB18_4:
	.loc	11 0 13 is_stmt 0
	xorl	%r14d, %r14d
Ltmp2250:
	.loc	18 280 33 is_stmt 1
	movq	16(%r15), %rax
Ltmp2251:
	.loc	5 3090 12
	cmpq	%rax, 8(%r15)
Ltmp2252:
	.loc	11 456 13
	jbe	LBB18_20
Ltmp2253:
LBB18_7:
	.loc	18 280 9
	movq	(%r15), %rcx
Ltmp2254:
	.loc	7 1052 52
	cmpb	$75, (%rcx,%rax)
Ltmp2255:
	.loc	18 284 9
	jne	LBB18_20
Ltmp2256:
	.loc	18 285 13
	incq	%rax
	movq	%rax, 16(%r15)
Ltmp2257:
	.loc	13 484 13
	movq	(%r15), %rax
	testq	%rax, %rax
Ltmp2258:
	.loc	13 611 13
	cmovneq	%r15, %rax
Ltmp2259:
	.loc	13 519 13
	je	LBB18_12
Ltmp2260:
	.loc	18 280 33
	movq	16(%rax), %rcx
Ltmp2261:
	.loc	5 3090 12
	cmpq	%rcx, 8(%rax)
Ltmp2262:
	.loc	11 456 13
	jbe	LBB18_14
Ltmp2263:
	.loc	18 280 9
	movq	(%rax), %rdx
Ltmp2264:
	.loc	7 1052 52
	cmpb	$67, (%rdx,%rcx)
Ltmp2265:
	.loc	18 284 9
	jne	LBB18_14
Ltmp2266:
	.loc	18 285 13
	incq	%rcx
	movq	%rcx, 16(%rax)
	movl	$1, %r12d
	leaq	l___unnamed_25(%rip), %rbx
Ltmp2267:
	.loc	18 0 13 is_stmt 0
	jmp	LBB18_17
Ltmp2268:
LBB18_20:
	.loc	18 841 17 is_stmt 1
	testb	%r14b, %r14b
	je	LBB18_30
Ltmp2269:
LBB18_21:
	.loc	18 0 17 is_stmt 0
	xorl	%ebx, %ebx
Ltmp2270:
LBB18_22:
	.loc	18 842 26 is_stmt 1
	movq	24(%r15), %rdi
	leaq	l___unnamed_90(%rip), %rsi
	movl	$7, %edx
	callq	__ZN4core3fmt9Formatter9write_str17h98e119ad25a8903eE
	movb	$1, %r14b
	.loc	18 842 21 is_stmt 0
	testb	%al, %al
	jne	LBB18_18
Ltmp2271:
	.loc	18 846 21 is_stmt 1
	testq	%rbx, %rbx
	je	LBB18_30
Ltmp2272:
LBB18_24:
	.loc	18 847 30
	movq	24(%r15), %rdi
	leaq	L___unnamed_91(%rip), %rsi
	movl	$8, %edx
	callq	__ZN4core3fmt9Formatter9write_str17h98e119ad25a8903eE
	movb	$1, %r14b
	.loc	18 847 25 is_stmt 0
	testb	%al, %al
	jne	LBB18_18
Ltmp2273:
	.loc	3 3321 9 is_stmt 1
	movq	$0, -112(%rbp)
	movq	%r12, -104(%rbp)
	movq	%rbx, -96(%rbp)
	movq	%r12, -88(%rbp)
	movq	$0, -80(%rbp)
	movq	%r12, -72(%rbp)
	movq	$1, -64(%rbp)
	movabsq	$408021893215, %rax
	movq	%rax, -56(%rbp)
	movw	$1, -48(%rbp)
Ltmp2274:
	.loc	18 852 30
	movq	24(%r15), %rbx
Ltmp2275:
	.loc	18 0 30 is_stmt 0
	leaq	-112(%rbp), %rdi
	.loc	18 852 49
	callq	__ZN84_$LT$core..str..Split$LT$P$GT$$u20$as$u20$core..iter..traits..iterator..Iterator$GT$4next17h29d79d1d13cf92e7E
Ltmp2276:
	.loc	11 385 13 is_stmt 1
	testq	%rax, %rax
	je	LBB18_50
Ltmp2277:
	.loc	18 852 30
	movq	%rbx, %rdi
	movq	%rax, %rsi
	callq	__ZN4core3fmt9Formatter9write_str17h98e119ad25a8903eE
Ltmp2278:
	.loc	18 852 25 is_stmt 0
	testb	%al, %al
	jne	LBB18_18
Ltmp2279:
	.loc	18 0 25
	leaq	-184(%rbp), %rbx
	leaq	-112(%rbp), %rsi
	.loc	18 853 37 is_stmt 1
	movl	$9, %ecx
	movq	%rbx, %rdi
	rep;movsq (%rsi), %es:(%rdi)
Ltmp2280:
	.p2align	4, 0x90
LBB18_28:
	.loc	18 853 37 is_stmt 0
	movq	%rbx, %rdi
	callq	__ZN84_$LT$core..str..Split$LT$P$GT$$u20$as$u20$core..iter..traits..iterator..Iterator$GT$4next17h29d79d1d13cf92e7E
	.loc	18 853 29
	testq	%rax, %rax
	je	LBB18_29
Ltmp2281:
	.loc	18 0 0
	movq	%rax, %r13
	movq	%rdx, %r12
Ltmp2282:
	.loc	18 854 34 is_stmt 1
	movq	24(%r15), %rdi
	movl	$1, %edx
	leaq	l___unnamed_36(%rip), %rsi
	callq	__ZN4core3fmt9Formatter9write_str17h98e119ad25a8903eE
	.loc	18 854 29 is_stmt 0
	testb	%al, %al
	jne	LBB18_18
Ltmp2283:
	.loc	18 855 34 is_stmt 1
	movq	24(%r15), %rdi
	movq	%r13, %rsi
	movq	%r12, %rdx
	callq	__ZN4core3fmt9Formatter9write_str17h98e119ad25a8903eE
	.loc	18 855 29 is_stmt 0
	testb	%al, %al
	je	LBB18_28
	jmp	LBB18_18
Ltmp2284:
LBB18_14:
	.loc	18 0 29
	leaq	-184(%rbp), %rdi
Ltmp2285:
	.loc	18 586 50 is_stmt 1
	movq	%r15, %rsi
	callq	__ZN14rustc_demangle2v06Parser5ident17hbde95aecd22e76bbE
Ltmp2286:
	.loc	18 831 35
	movq	-184(%rbp), %rbx
	testq	%rbx, %rbx
Ltmp2287:
	je	LBB18_13
Ltmp2288:
	movq	-176(%rbp), %r12
Ltmp2289:
	.loc	3 2294 9
	testq	%r12, %r12
Ltmp2290:
	.loc	18 832 28
	je	LBB18_13
Ltmp2291:
	.loc	3 2294 9
	cmpq	$0, -160(%rbp)
Ltmp2292:
	.loc	18 832 25
	jne	LBB18_13
Ltmp2293:
LBB18_17:
	.loc	18 841 17
	testb	%r14b, %r14b
	jne	LBB18_22
	jmp	LBB18_24
Ltmp2294:
LBB18_12:
	.loc	13 730 23
	movq	$0, -184(%rbp)
Ltmp2295:
LBB18_13:
	.loc	18 0 0 is_stmt 0
	movq	$0, (%r15)
	movq	24(%r15), %rdi
	leaq	l___unnamed_48(%rip), %rsi
	movl	$1, %edx
	addq	$152, %rsp
	popq	%rbx
	popq	%r12
	popq	%r13
	popq	%r14
	popq	%r15
Ltmp2296:
	popq	%rbp
	jmp	__ZN4core3fmt9Formatter9write_str17h98e119ad25a8903eE
LBB18_29:
Ltmp2297:
	.loc	18 858 30 is_stmt 1
	movq	24(%r15), %rdi
	leaq	l___unnamed_92(%rip), %rsi
	movl	$2, %edx
	callq	__ZN4core3fmt9Formatter9write_str17h98e119ad25a8903eE
	.loc	18 858 25 is_stmt 0
	testb	%al, %al
	jne	LBB18_18
Ltmp2298:
LBB18_30:
	.loc	18 863 22 is_stmt 1
	movq	24(%r15), %rdi
	leaq	l___unnamed_93(%rip), %rsi
	movl	$3, %edx
	callq	__ZN4core3fmt9Formatter9write_str17h98e119ad25a8903eE
	movb	$1, %r14b
	.loc	18 863 17 is_stmt 0
	testb	%al, %al
	jne	LBB18_18
Ltmp2299:
	.loc	13 286 25 is_stmt 1
	cmpq	$0, (%r15)
Ltmp2300:
	.loc	18 672 15
	je	LBB18_43
Ltmp2301:
	.loc	18 0 15 is_stmt 0
	xorl	%ebx, %ebx
	leaq	l___unnamed_50(%rip), %r12
Ltmp2302:
	.p2align	4, 0x90
LBB18_33:
	.loc	18 280 33 is_stmt 1
	movq	16(%r15), %rax
Ltmp2303:
	.loc	5 3090 12
	cmpq	%rax, 8(%r15)
Ltmp2304:
	.loc	11 456 13
	jbe	LBB18_38
Ltmp2305:
	.loc	18 280 9
	movq	(%r15), %rcx
Ltmp2306:
	.loc	7 1052 52
	cmpb	$69, (%rcx,%rax)
Ltmp2307:
	.loc	18 284 9
	je	LBB18_35
Ltmp2308:
LBB18_38:
	.loc	18 673 16
	testq	%rbx, %rbx
	.loc	18 673 13 is_stmt 0
	je	LBB18_40
Ltmp2309:
	.loc	18 674 22 is_stmt 1
	movq	24(%r15), %rdi
	movl	$2, %edx
	movq	%r12, %rsi
	callq	__ZN4core3fmt9Formatter9write_str17h98e119ad25a8903eE
	.loc	18 674 17 is_stmt 0
	testb	%al, %al
	jne	LBB18_18
Ltmp2310:
LBB18_40:
	.loc	17 72 5 is_stmt 1
	movq	%r15, %rdi
	callq	__ZN14rustc_demangle2v07Printer10print_type17hd9a3ee4dc849e963E
Ltmp2311:
	.loc	18 676 13
	testb	%al, %al
	jne	LBB18_18
Ltmp2312:
	.loc	18 677 13
	incq	%rbx
	je	LBB18_51
Ltmp2313:
	.loc	13 286 25
	cmpq	$0, (%r15)
Ltmp2314:
	.loc	18 672 15
	jne	LBB18_33
	jmp	LBB18_43
Ltmp2315:
LBB18_35:
	.loc	18 285 13
	incq	%rax
	movq	%rax, 16(%r15)
Ltmp2316:
LBB18_43:
	.loc	18 865 22
	movq	24(%r15), %rdi
	leaq	l___unnamed_22(%rip), %rsi
	movl	$1, %edx
	callq	__ZN4core3fmt9Formatter9write_str17h98e119ad25a8903eE
	.loc	18 865 17 is_stmt 0
	testb	%al, %al
	jne	LBB18_18
Ltmp2317:
	.loc	13 484 13 is_stmt 1
	movq	(%r15), %rax
	testq	%rax, %rax
Ltmp2318:
	.loc	13 611 13
	cmovneq	%r15, %rax
Ltmp2319:
	.loc	13 519 13
	je	LBB18_48
Ltmp2320:
	.loc	18 280 33
	movq	16(%rax), %rcx
Ltmp2321:
	.loc	5 3090 12
	cmpq	%rcx, 8(%rax)
Ltmp2322:
	.loc	11 456 13
	jbe	LBB18_48
Ltmp2323:
	.loc	18 280 9
	movq	(%rax), %rdx
Ltmp2324:
	.loc	7 1052 52
	cmpb	$117, (%rdx,%rcx)
Ltmp2325:
	.loc	18 284 9
	jne	LBB18_48
Ltmp2326:
	.loc	18 285 13
	incq	%rcx
	movq	%rcx, 16(%rax)
	xorl	%r14d, %r14d
	jmp	LBB18_18
Ltmp2327:
LBB18_48:
	.loc	18 870 26
	movq	24(%r15), %rdi
	leaq	L___unnamed_94(%rip), %rsi
	movl	$4, %edx
	callq	__ZN4core3fmt9Formatter9write_str17h98e119ad25a8903eE
	.loc	18 870 21 is_stmt 0
	testb	%al, %al
	je	LBB18_49
Ltmp2328:
LBB18_18:
	.loc	18 875 14 is_stmt 1
	movl	%r14d, %eax
Ltmp2329:
LBB18_19:
	.loc	18 0 0 is_stmt 0
	addq	$152, %rsp
	popq	%rbx
	popq	%r12
	popq	%r13
	popq	%r14
	popq	%r15
Ltmp2330:
	popq	%rbp
	retq
LBB18_49:
Ltmp2331:
	.loc	18 871 26 is_stmt 1
	movq	%r15, %rdi
	callq	__ZN14rustc_demangle2v07Printer10print_type17hd9a3ee4dc849e963E
	jmp	LBB18_19
Ltmp2332:
LBB18_51:
	.loc	18 677 13
	leaq	_str.0(%rip), %rdi
	leaq	l___unnamed_59(%rip), %rdx
	movl	$28, %esi
	callq	__ZN4core9panicking5panic17h383a6b80ea7021aaE
Ltmp2333:
LBB18_50:
	.loc	16 10 9
	leaq	l___unnamed_27(%rip), %rdi
	leaq	l___unnamed_95(%rip), %rdx
	movl	$43, %esi
	callq	__ZN4core9panicking5panic17h383a6b80ea7021aaE
Ltmp2334:
Lfunc_end18:
	.cfi_endproc

	.p2align	4, 0x90
__ZN14rustc_demangle2v07Printer30print_path_maybe_open_generics17hef323844d0feac7bE:
Lfunc_begin19:
	.loc	18 909 0
	.cfi_startproc
	pushq	%rbp
	.cfi_def_cfa_offset 16
	.cfi_offset %rbp, -16
	movq	%rsp, %rbp
	.cfi_def_cfa_register %rbp
	pushq	%r15
	pushq	%r14
	pushq	%r12
	pushq	%rbx
	subq	$48, %rsp
	.cfi_offset %rbx, -48
	.cfi_offset %r12, -40
	.cfi_offset %r14, -32
	.cfi_offset %r15, -24
	movq	%rdi, %rbx
Ltmp2335:
	.loc	13 484 13 prologue_end
	movq	(%rdi), %rax
Ltmp2336:
	.loc	13 611 13
	movq	%rdi, %rcx
Ltmp2337:
	.loc	13 484 13
	testq	%rax, %rax
Ltmp2338:
	.loc	13 611 13
	cmoveq	%rax, %rcx
Ltmp2339:
	.loc	13 519 13
	je	LBB19_8
Ltmp2340:
	.loc	18 280 33
	movq	16(%rcx), %rdx
Ltmp2341:
	.loc	5 3090 12
	cmpq	%rdx, 8(%rcx)
Ltmp2342:
	.loc	11 456 13
	jbe	LBB19_4
Ltmp2343:
	.loc	18 280 9
	movq	(%rcx), %rsi
Ltmp2344:
	.loc	7 1052 52
	cmpb	$66, (%rsi,%rdx)
Ltmp2345:
	.loc	18 284 9
	jne	LBB19_4
Ltmp2346:
	.loc	18 285 13
	incq	%rdx
	movq	%rdx, 16(%rcx)
	leaq	-72(%rbp), %r14
Ltmp2347:
	.loc	18 911 13
	movq	%r14, %rdi
	movq	%rbx, %rsi
	callq	__ZN14rustc_demangle2v07Printer15backref_printer17hb6bed9b479c6a1f7E
Ltmp2348:
	movq	%r14, %rdi
	callq	__ZN14rustc_demangle2v07Printer30print_path_maybe_open_generics17hef323844d0feac7bE
	movl	%eax, %r14d
	jmp	LBB19_9
Ltmp2349:
LBB19_4:
	.loc	18 280 33
	movq	16(%rbx), %rcx
Ltmp2350:
	.loc	5 3090 12
	cmpq	%rcx, 8(%rbx)
Ltmp2351:
	.loc	11 456 13
	jbe	LBB19_8
Ltmp2352:
	.loc	7 1052 52
	cmpb	$73, (%rax,%rcx)
Ltmp2353:
	.loc	18 284 9
	jne	LBB19_8
Ltmp2354:
	.loc	18 285 13
	incq	%rcx
	movq	%rcx, 16(%rbx)
Ltmp2355:
	.loc	18 0 0 is_stmt 0
	movq	%rbx, %rdi
	xorl	%esi, %esi
	callq	__ZN14rustc_demangle2v07Printer10print_path17h584adfcc206070e5E
	.loc	18 913 13 is_stmt 1
	testb	%al, %al
	jne	LBB19_7
Ltmp2356:
	.loc	18 914 18
	movq	24(%rbx), %rdi
	leaq	l___unnamed_16(%rip), %rsi
	movl	$1, %edx
	callq	__ZN4core3fmt9Formatter9write_str17h98e119ad25a8903eE
	.loc	18 914 13 is_stmt 0
	testb	%al, %al
	je	LBB19_12
Ltmp2357:
LBB19_7:
	.loc	18 0 0
	movb	$2, %r14b
	jmp	LBB19_9
Ltmp2358:
LBB19_8:
	movq	%rbx, %rdi
	xorl	%esi, %esi
	callq	__ZN14rustc_demangle2v07Printer10print_path17h584adfcc206070e5E
	movl	%eax, %r14d
	.loc	18 918 13 is_stmt 1
	addb	%al, %r14b
Ltmp2359:
LBB19_9:
	.loc	18 921 6
	movl	%r14d, %eax
	addq	$48, %rsp
	popq	%rbx
Ltmp2360:
	popq	%r12
	popq	%r14
	popq	%r15
	popq	%rbp
	retq
LBB19_12:
Ltmp2361:
	.loc	18 0 6 is_stmt 0
	movb	$1, %r14b
Ltmp2362:
	.loc	13 286 25 is_stmt 1
	cmpq	$0, (%rbx)
Ltmp2363:
	.loc	18 672 15
	je	LBB19_9
Ltmp2364:
	.loc	18 0 15 is_stmt 0
	xorl	%r12d, %r12d
	leaq	l___unnamed_50(%rip), %r15
Ltmp2365:
LBB19_14:
	.loc	18 280 33 is_stmt 1
	movq	16(%rbx), %rax
Ltmp2366:
	.loc	5 3090 12
	cmpq	%rax, 8(%rbx)
Ltmp2367:
	.loc	11 456 13
	jbe	LBB19_16
Ltmp2368:
	.loc	18 280 9
	movq	(%rbx), %rcx
Ltmp2369:
	.loc	7 1052 52
	cmpb	$69, (%rcx,%rax)
Ltmp2370:
	.loc	18 284 9
	je	LBB19_23
Ltmp2371:
LBB19_16:
	.loc	18 673 16
	testq	%r12, %r12
	.loc	18 673 13 is_stmt 0
	je	LBB19_18
Ltmp2372:
	.loc	18 674 22 is_stmt 1
	movq	24(%rbx), %rdi
	movl	$2, %edx
	movq	%r15, %rsi
	callq	__ZN4core3fmt9Formatter9write_str17h98e119ad25a8903eE
	.loc	18 674 17 is_stmt 0
	testb	%al, %al
	jne	LBB19_7
Ltmp2373:
LBB19_18:
	.loc	17 72 5 is_stmt 1
	movq	%rbx, %rdi
	callq	__ZN14rustc_demangle2v07Printer17print_generic_arg17h49f22d9dd0a1860aE
Ltmp2374:
	.loc	18 676 13
	testb	%al, %al
	jne	LBB19_7
Ltmp2375:
	.loc	18 677 13
	incq	%r12
	je	LBB19_24
Ltmp2376:
	.loc	13 286 25
	cmpq	$0, (%rbx)
Ltmp2377:
	.loc	18 672 15
	jne	LBB19_14
	jmp	LBB19_9
Ltmp2378:
LBB19_23:
	.loc	18 285 13
	incq	%rax
	movq	%rax, 16(%rbx)
	jmp	LBB19_9
Ltmp2379:
LBB19_24:
	.loc	18 677 13
	leaq	_str.0(%rip), %rdi
	leaq	l___unnamed_59(%rip), %rdx
	movl	$28, %esi
	callq	__ZN4core9panicking5panic17h383a6b80ea7021aaE
Ltmp2380:
Lfunc_end19:
	.cfi_endproc

	.p2align	4, 0x90
__ZN14rustc_demangle2v07Printer15print_dyn_trait17h1e44b90d729e83ceE:
Lfunc_begin20:
	.loc	18 923 0
	.cfi_startproc
	pushq	%rbp
	.cfi_def_cfa_offset 16
	.cfi_offset %rbp, -16
	movq	%rsp, %rbp
	.cfi_def_cfa_register %rbp
	pushq	%r15
	pushq	%r14
	pushq	%r13
	pushq	%r12
	pushq	%rbx
	subq	$72, %rsp
	.cfi_offset %rbx, -56
	.cfi_offset %r12, -48
	.cfi_offset %r13, -40
	.cfi_offset %r14, -32
	.cfi_offset %r15, -24
	movq	%rdi, %rbx
Ltmp2381:
	.loc	18 924 29 prologue_end
	callq	__ZN14rustc_demangle2v07Printer30print_path_maybe_open_generics17hef323844d0feac7bE
	movb	$1, %r14b
	.loc	18 924 24 is_stmt 0
	cmpb	$2, %al
	je	LBB20_7
Ltmp2382:
	.loc	18 0 0
	movl	%eax, %r15d
Ltmp2383:
	.loc	13 484 13 is_stmt 1
	cmpq	$0, (%rbx)
Ltmp2384:
	.loc	13 519 13
	je	LBB20_5
Ltmp2385:
	.loc	13 0 13 is_stmt 0
	leaq	-72(%rbp), %r13
	movb	$1, %r12b
Ltmp2386:
LBB20_3:
	.loc	18 280 33 is_stmt 1
	movq	16(%rbx), %rax
Ltmp2387:
	.loc	5 3090 12
	cmpq	%rax, 8(%rbx)
Ltmp2388:
	.loc	11 456 13
	jbe	LBB20_5
Ltmp2389:
	.loc	18 280 9
	movq	(%rbx), %rcx
Ltmp2390:
	.loc	7 1052 52
	cmpb	$112, (%rcx,%rax)
Ltmp2391:
	.loc	18 284 9
	jne	LBB20_5
Ltmp2392:
	.loc	18 285 13
	incq	%rax
	movq	%rax, 16(%rbx)
Ltmp2393:
	.loc	18 0 0 is_stmt 0
	movq	24(%rbx), %rdi
	testb	$1, %r15b
	.loc	18 927 13 is_stmt 1
	je	LBB20_13
Ltmp2394:
	.loc	18 931 22
	movl	$2, %edx
	leaq	l___unnamed_50(%rip), %rsi
	callq	__ZN4core3fmt9Formatter9write_str17h98e119ad25a8903eE
	.loc	18 931 17 is_stmt 0
	testb	%al, %al
	je	LBB20_11
	jmp	LBB20_7
Ltmp2395:
	.p2align	4, 0x90
LBB20_13:
	.loc	18 928 22 is_stmt 1
	movl	$1, %edx
	leaq	l___unnamed_16(%rip), %rsi
	callq	__ZN4core3fmt9Formatter9write_str17h98e119ad25a8903eE
	movb	$1, %r15b
Ltmp2396:
	.loc	18 928 17 is_stmt 0
	testb	%al, %al
	jne	LBB20_14
Ltmp2397:
LBB20_11:
	.loc	13 484 13 is_stmt 1
	cmpq	$0, (%rbx)
Ltmp2398:
	.loc	13 729 13
	je	LBB20_12
Ltmp2399:
	.loc	18 586 50
	movq	%r13, %rdi
	movq	%rbx, %rsi
	callq	__ZN14rustc_demangle2v06Parser5ident17hbde95aecd22e76bbE
Ltmp2400:
	.loc	18 934 24
	cmpq	$0, -72(%rbp)
	je	LBB20_16
Ltmp2401:
	movq	-48(%rbp), %rax
	movq	%rax, -80(%rbp)
	movq	-56(%rbp), %rax
	movq	%rax, -88(%rbp)
	movq	-72(%rbp), %rax
	movq	-64(%rbp), %rcx
	movq	%rcx, -96(%rbp)
	movq	%rax, -104(%rbp)
Ltmp2402:
	.loc	18 935 27
	movq	24(%rbx), %rsi
	.loc	18 935 18 is_stmt 0
	leaq	-104(%rbp), %rdi
	callq	__ZN64_$LT$rustc_demangle..v0..Ident$u20$as$u20$core..fmt..Display$GT$3fmt17h8f268e9518e168b4E
	.loc	18 935 13
	testb	%al, %al
	jne	LBB20_18
Ltmp2403:
	.loc	18 936 18 is_stmt 1
	movq	24(%rbx), %rdi
	movl	$3, %edx
	leaq	l___unnamed_96(%rip), %rsi
	callq	__ZN4core3fmt9Formatter9write_str17h98e119ad25a8903eE
	.loc	18 936 13 is_stmt 0
	testb	%al, %al
	jne	LBB20_18
Ltmp2404:
	.loc	18 937 18 is_stmt 1
	movq	%rbx, %rdi
	callq	__ZN14rustc_demangle2v07Printer10print_type17hd9a3ee4dc849e963E
	.loc	18 937 13 is_stmt 0
	testb	%al, %al
	jne	LBB20_18
Ltmp2405:
	.loc	13 484 13 is_stmt 1
	cmpq	$0, (%rbx)
Ltmp2406:
	.loc	13 519 13
	jne	LBB20_3
Ltmp2407:
LBB20_5:
	.loc	18 0 0 is_stmt 0
	testb	$1, %r15b
	.loc	18 940 9 is_stmt 1
	jne	LBB20_22
Ltmp2408:
	.loc	18 0 9 is_stmt 0
	xorl	%r14d, %r14d
	jmp	LBB20_7
Ltmp2409:
LBB20_22:
	.loc	18 941 18 is_stmt 1
	movq	24(%rbx), %rdi
	leaq	l___unnamed_18(%rip), %rsi
	movl	$1, %edx
	callq	__ZN4core3fmt9Formatter9write_str17h98e119ad25a8903eE
	jmp	LBB20_8
Ltmp2410:
LBB20_18:
	.loc	18 0 0 is_stmt 0
	movl	%r12d, %r14d
	jmp	LBB20_7
Ltmp2411:
LBB20_12:
	.loc	13 730 23 is_stmt 1
	movq	$0, -72(%rbp)
Ltmp2412:
LBB20_16:
	.loc	18 934 24
	movq	$0, (%rbx)
	movq	24(%rbx), %rdi
	leaq	l___unnamed_48(%rip), %rsi
	movl	$1, %edx
	callq	__ZN4core3fmt9Formatter9write_str17h98e119ad25a8903eE
	movl	%eax, %r12d
Ltmp2413:
	.loc	18 0 0 is_stmt 0
	movl	%eax, %r14d
Ltmp2414:
LBB20_7:
	.loc	18 945 6 is_stmt 1
	movl	%r14d, %eax
Ltmp2415:
LBB20_8:
	.loc	18 0 0 is_stmt 0
	addq	$72, %rsp
	popq	%rbx
Ltmp2416:
	popq	%r12
	popq	%r13
	popq	%r14
	popq	%r15
	popq	%rbp
	retq
LBB20_14:
Ltmp2417:
	movb	$1, %r14b
	jmp	LBB20_7
Ltmp2418:
Lfunc_end20:
	.cfi_endproc

	.p2align	4, 0x90
__ZN14rustc_demangle2v07Printer11print_const17h88d312ebd3ee8f8eE:
Lfunc_begin21:
	.loc	18 947 0 is_stmt 1
	.cfi_startproc
	pushq	%rbp
	.cfi_def_cfa_offset 16
	.cfi_offset %rbp, -16
	movq	%rsp, %rbp
	.cfi_def_cfa_register %rbp
	pushq	%r15
	pushq	%r14
	pushq	%r13
	pushq	%r12
	pushq	%rbx
	subq	$88, %rsp
	.cfi_offset %rbx, -56
	.cfi_offset %r12, -48
	.cfi_offset %r13, -40
	.cfi_offset %r14, -32
	.cfi_offset %r15, -24
	movq	%rdi, %rbx
Ltmp2419:
	.loc	13 484 13 prologue_end
	movq	(%rdi), %r12
Ltmp2420:
	.loc	13 611 13
	movq	%rdi, %rax
Ltmp2421:
	.loc	13 484 13
	testq	%r12, %r12
Ltmp2422:
	.loc	13 611 13
	cmoveq	%r12, %rax
Ltmp2423:
	.loc	13 519 13
	je	LBB21_4
Ltmp2424:
	.loc	18 280 33
	movq	16(%rax), %rcx
Ltmp2425:
	.loc	5 3090 12
	cmpq	%rcx, 8(%rax)
Ltmp2426:
	.loc	11 456 13
	jbe	LBB21_3
Ltmp2427:
	.loc	18 280 9
	movq	(%rax), %rdx
Ltmp2428:
	.loc	7 1052 52
	cmpb	$66, (%rdx,%rcx)
Ltmp2429:
	.loc	18 284 9
	jne	LBB21_3
Ltmp2430:
	.loc	18 285 13
	incq	%rcx
	movq	%rcx, 16(%rax)
	leaq	-104(%rbp), %r14
Ltmp2431:
	.loc	18 949 20
	movq	%r14, %rdi
	movq	%rbx, %rsi
	callq	__ZN14rustc_demangle2v07Printer15backref_printer17hb6bed9b479c6a1f7E
Ltmp2432:
	movq	%r14, %rdi
	callq	__ZN14rustc_demangle2v07Printer11print_const17h88d312ebd3ee8f8eE
	movl	%eax, %r13d
	jmp	LBB21_6
Ltmp2433:
LBB21_3:
	.loc	18 280 9
	movq	8(%rbx), %rdi
	.loc	18 280 33 is_stmt 0
	movq	16(%rbx), %rdx
Ltmp2434:
	.loc	5 3090 12 is_stmt 1
	movq	%rdi, %r9
	subq	%rdx, %r9
Ltmp2435:
	.loc	11 456 13
	jbe	LBB21_4
Ltmp2436:
	.loc	18 294 9
	leaq	1(%rdx), %r8
Ltmp2437:
	.loc	11 456 29
	movb	(%r12,%rdx), %al
Ltmp2438:
	.loc	18 294 9
	movq	%r8, 16(%rbx)
Ltmp2439:
	.loc	18 955 13
	addb	$-104, %al
Ltmp2440:
	cmpb	$17, %al
	ja	LBB21_4
Ltmp2441:
	.loc	18 0 13 is_stmt 0
	leaq	l___unnamed_79(%rip), %r14
	movl	$2, %r15d
	movzbl	%al, %eax
	leaq	LJTI21_0(%rip), %rcx
	movslq	(%rcx,%rax,4), %rax
	addq	%rcx, %rax
	jmpq	*%rax
Ltmp2442:
LBB21_14:
	leaq	l___unnamed_63(%rip), %r14
	movl	$5, %r15d
Ltmp2443:
	.loc	5 3090 12 is_stmt 1
	cmpq	%r8, %rdi
Ltmp2444:
	.loc	11 456 13
	ja	LBB21_16
	jmp	LBB21_17
Ltmp2445:
LBB21_4:
	.loc	18 0 0 is_stmt 0
	movq	$0, (%rbx)
	movq	24(%rbx), %rdi
	leaq	l___unnamed_48(%rip), %rsi
	movl	$1, %edx
	addq	$88, %rsp
	popq	%rbx
Ltmp2446:
	popq	%r12
	popq	%r13
	popq	%r14
	popq	%r15
	popq	%rbp
	jmp	__ZN4core3fmt9Formatter9write_str17h98e119ad25a8903eE
LBB21_11:
Ltmp2447:
	leaq	l___unnamed_80(%rip), %r14
	movl	$3, %r15d
Ltmp2448:
	.loc	5 3090 12 is_stmt 1
	cmpq	%r8, %rdi
Ltmp2449:
	.loc	11 456 13
	ja	LBB21_16
	jmp	LBB21_17
Ltmp2450:
LBB21_12:
	.loc	11 0 13 is_stmt 0
	leaq	l___unnamed_72(%rip), %r14
	movl	$3, %r15d
Ltmp2451:
	.loc	5 3090 12 is_stmt 1
	cmpq	%r8, %rdi
Ltmp2452:
	.loc	11 456 13
	ja	LBB21_16
	jmp	LBB21_17
Ltmp2453:
LBB21_13:
	.loc	11 0 13 is_stmt 0
	leaq	L___unnamed_69(%rip), %r14
	movl	$4, %r15d
Ltmp2454:
LBB21_15:
	.loc	5 3090 12 is_stmt 1
	cmpq	%r8, %rdi
Ltmp2455:
	.loc	11 456 13
	jbe	LBB21_17
Ltmp2456:
LBB21_16:
	.loc	7 1052 52
	cmpb	$112, (%r12,%r8)
Ltmp2457:
	.loc	18 284 9
	jne	LBB21_17
Ltmp2458:
	.loc	18 285 13
	addq	$2, %rdx
	movq	%rdx, 16(%rbx)
Ltmp2459:
	.loc	18 964 18
	movq	24(%rbx), %rdi
	leaq	l___unnamed_49(%rip), %rsi
	jmp	LBB21_35
Ltmp2460:
LBB21_10:
	.loc	18 0 18 is_stmt 0
	leaq	l___unnamed_66(%rip), %r14
	movl	$3, %r15d
Ltmp2461:
	.loc	5 3090 12 is_stmt 1
	cmpq	%r8, %rdi
Ltmp2462:
	.loc	11 456 13
	ja	LBB21_16
Ltmp2463:
LBB21_17:
	.loc	11 456 13 is_stmt 0
	leaq	(%r12,%rdx), %r11
	xorl	%ecx, %ecx
Ltmp2464:
	.p2align	4, 0x90
LBB21_18:
	.loc	5 3090 12 is_stmt 1
	leaq	1(%rdx,%rcx), %rsi
	cmpq	%rsi, %rdi
Ltmp2465:
	.loc	11 456 13
	jbe	LBB21_34
Ltmp2466:
	.loc	6 164 18
	leaq	2(%rdx,%rcx), %rax
Ltmp2467:
	.loc	11 456 29
	movzbl	1(%r11,%rcx), %esi
Ltmp2468:
	.loc	18 294 9
	movq	%rax, 16(%rbx)
Ltmp2469:
	.loc	18 302 17
	leal	-48(%rsi), %eax
	incq	%rcx
	cmpb	$10, %al
	jb	LBB21_18
Ltmp2470:
	.loc	18 0 0 is_stmt 0
	leal	-97(%rsi), %eax
	.loc	18 302 17
	cmpb	$6, %al
	jb	LBB21_18
Ltmp2471:
	.loc	18 303 17 is_stmt 1
	cmpb	$95, %sil
	jne	LBB21_34
Ltmp2472:
	.loc	18 0 17 is_stmt 0
	movq	%r14, -48(%rbp)
Ltmp2473:
	leaq	(%rdx,%rcx), %rax
Ltmp2474:
	movq	%r12, -120(%rbp)
	movq	%rdi, -112(%rbp)
Ltmp2475:
	.loc	3 1925 18 is_stmt 1
	movq	%r8, -56(%rbp)
Ltmp2476:
	.loc	3 1925 25 is_stmt 0
	movq	%rax, -64(%rbp)
Ltmp2477:
	.loc	3 1881 16 is_stmt 1
	cmpq	%rdx, %rax
	jbe	LBB21_33
Ltmp2478:
	.loc	3 2326 26
	cmpq	%r8, %rdi
	.loc	3 2326 12 is_stmt 0
	je	LBB21_24
Ltmp2479:
	.loc	3 2330 13 is_stmt 1
	jbe	LBB21_33
Ltmp2480:
	.loc	3 2332 25
	cmpb	$-65, (%r12,%r8)
Ltmp2481:
	.loc	3 1881 16
	jle	LBB21_33
Ltmp2482:
LBB21_24:
	.loc	3 2326 26
	cmpq	%rcx, %r9
	.loc	3 2326 12 is_stmt 0
	je	LBB21_26
Ltmp2483:
	.loc	3 2332 25 is_stmt 1
	cmpb	$-65, (%r11,%rcx)
Ltmp2484:
	.loc	3 1881 16
	jle	LBB21_33
Ltmp2485:
LBB21_26:
	.loc	3 1927 9
	leaq	-1(%rcx), %r14
Ltmp2486:
	.loc	6 164 18
	addq	%r8, %r12
Ltmp2487:
	.loc	18 981 12
	cmpq	$16, %r14
	.loc	18 981 9 is_stmt 0
	jbe	LBB21_27
Ltmp2488:
	.loc	18 982 18 is_stmt 1
	movq	24(%rbx), %rdi
	leaq	l___unnamed_97(%rip), %rsi
	movl	$2, %edx
	callq	__ZN4core3fmt9Formatter9write_str17h98e119ad25a8903eE
	movb	$1, %r13b
	.loc	18 982 13 is_stmt 0
	testb	%al, %al
	jne	LBB21_6
Ltmp2489:
	.loc	18 983 20 is_stmt 1
	movq	24(%rbx), %rdi
	movq	%r12, %rsi
	movq	%r14, %rdx
	callq	__ZN4core3fmt9Formatter9write_str17h98e119ad25a8903eE
Ltmp2490:
	.loc	18 966 13
	testb	%al, %al
	movq	-48(%rbp), %r14
Ltmp2491:
	je	LBB21_39
	jmp	LBB21_6
Ltmp2492:
LBB21_34:
	.loc	18 978 19
	movq	$0, (%rbx)
	movq	24(%rbx), %rdi
	leaq	l___unnamed_48(%rip), %rsi
Ltmp2493:
LBB21_35:
	.loc	18 0 0 is_stmt 0
	movl	$1, %edx
	callq	__ZN4core3fmt9Formatter9write_str17h98e119ad25a8903eE
	movb	$1, %r13b
	testb	%al, %al
	jne	LBB21_6
Ltmp2494:
LBB21_39:
	.loc	18 969 13 is_stmt 1
	movq	24(%rbx), %rdi
	callq	__ZN4core3fmt9Formatter9alternate17hd77eec28e879e5edE
	.loc	18 969 9 is_stmt 0
	testb	%al, %al
	je	LBB21_63
Ltmp2495:
	.loc	18 0 9
	xorl	%r13d, %r13d
	jmp	LBB21_6
Ltmp2496:
LBB21_63:
	.loc	18 970 18 is_stmt 1
	movq	24(%rbx), %rdi
	leaq	l___unnamed_98(%rip), %rsi
	movl	$2, %edx
	callq	__ZN4core3fmt9Formatter9write_str17h98e119ad25a8903eE
	movb	$1, %r13b
	.loc	18 970 13 is_stmt 0
	testb	%al, %al
	jne	LBB21_6
Ltmp2497:
	.loc	18 971 18 is_stmt 1
	movq	24(%rbx), %rdi
	movq	%r14, %rsi
	movq	%r15, %rdx
	callq	__ZN4core3fmt9Formatter9write_str17h98e119ad25a8903eE
	jmp	LBB21_7
Ltmp2498:
LBB21_27:
	.loc	18 986 21
	movq	$0, -104(%rbp)
Ltmp2499:
	.loc	5 3440 9
	cmpq	$1, %rcx
	movq	-48(%rbp), %r14
Ltmp2500:
	.loc	5 3570 21
	jne	LBB21_28
Ltmp2501:
LBB21_61:
	.loc	18 990 15
	movq	24(%rbx), %rsi
Ltmp2502:
	.loc	18 0 15 is_stmt 0
	leaq	-104(%rbp), %rdi
	.loc	18 990 9
	callq	__ZN4core3fmt3num3imp52_$LT$impl$u20$core..fmt..Display$u20$for$u20$u64$GT$3fmt17h3230c9bc78e30ed1E
	movb	$1, %r13b
Ltmp2503:
	.loc	18 0 0
	testb	%al, %al
	je	LBB21_39
Ltmp2504:
LBB21_6:
	.loc	18 975 6 is_stmt 1
	movl	%r13d, %eax
Ltmp2505:
LBB21_7:
	.loc	18 0 0 is_stmt 0
	addq	$88, %rsp
	popq	%rbx
Ltmp2506:
	popq	%r12
	popq	%r13
	popq	%r14
	popq	%r15
	popq	%rbp
	retq
LBB21_28:
Ltmp2507:
	leaq	(%r11,%rcx), %r8
Ltmp2508:
	.loc	3 520 5 is_stmt 1
	negq	%r11
	xorl	%esi, %esi
	jmp	LBB21_29
Ltmp2509:
LBB21_59:
	.loc	12 0 0 is_stmt 0
	addl	%edx, %edi
	movl	%edi, %edx
Ltmp2510:
	.loc	12 355 12 is_stmt 1
	cmpl	$16, %edi
Ltmp2511:
	.loc	11 385 13
	jae	LBB21_65
Ltmp2512:
LBB21_60:
	.loc	18 0 0 is_stmt 0
	leaq	(%r12,%r11), %rax
	shlq	$4, %rsi
Ltmp2513:
	.loc	18 988 28 is_stmt 1
	movl	%edx, %edx
	.loc	18 988 13 is_stmt 0
	orq	%rdx, %rsi
Ltmp2514:
	movq	%rsi, -104(%rbp)
Ltmp2515:
	.loc	5 3440 9 is_stmt 1
	cmpq	%rcx, %rax
	.loc	5 3570 21
	je	LBB21_61
Ltmp2516:
LBB21_29:
	.loc	3 519 13
	movzbl	(%r12), %edi
Ltmp2517:
	.loc	3 520 8
	testb	%dil, %dil
	.loc	3 520 5 is_stmt 0
	js	LBB21_41
Ltmp2518:
	.loc	3 0 5
	incq	%r12
Ltmp2519:
	jmp	LBB21_56
Ltmp2520:
LBB21_41:
	leaq	1(%r12,%r11), %rax
Ltmp2521:
	.loc	5 3440 9 is_stmt 1
	cmpq	%rcx, %rax
Ltmp2522:
	.loc	5 3570 21
	je	LBB21_42
Ltmp2523:
	.loc	3 508 15
	movzbl	1(%r12), %edx
Ltmp2524:
	.loc	10 165 18
	addq	$2, %r12
Ltmp2525:
	.loc	3 507 5
	andl	$63, %edx
	movl	%edi, %r9d
	andl	$31, %r9d
Ltmp2526:
	.loc	3 530 8
	cmpb	$-33, %dil
	.loc	3 530 5 is_stmt 0
	jbe	LBB21_45
Ltmp2527:
LBB21_47:
	.loc	3 0 0
	leaq	(%r12,%r11), %rax
Ltmp2528:
	.loc	5 3440 9 is_stmt 1
	cmpq	%rcx, %rax
	.loc	5 3570 21
	je	LBB21_48
Ltmp2529:
	.loc	3 508 15
	movzbl	(%r12), %r10d
Ltmp2530:
	.loc	10 165 18
	incq	%r12
Ltmp2531:
	.loc	3 507 5
	andl	$63, %r10d
Ltmp2532:
	.loc	3 495 5
	shll	$6, %edx
Ltmp2533:
	orl	%r10d, %edx
Ltmp2534:
	.loc	3 536 12
	cmpb	$-16, %dil
	.loc	3 536 9 is_stmt 0
	jb	LBB21_51
Ltmp2535:
LBB21_52:
	.loc	3 0 0
	leaq	(%r12,%r11), %rax
Ltmp2536:
	.loc	5 3440 9 is_stmt 1
	cmpq	%rcx, %rax
	.loc	5 3570 21
	je	LBB21_53
Ltmp2537:
	.loc	3 508 15
	movzbl	(%r12), %edi
Ltmp2538:
	.loc	10 165 18
	incq	%r12
Ltmp2539:
	.loc	3 507 5
	andl	$63, %edi
	jmp	LBB21_55
Ltmp2540:
LBB21_42:
	.loc	3 0 5 is_stmt 0
	xorl	%edx, %edx
	movq	%r8, %r12
Ltmp2541:
	movl	%edi, %r9d
	andl	$31, %r9d
Ltmp2542:
	.loc	3 530 8 is_stmt 1
	cmpb	$-33, %dil
	.loc	3 530 5 is_stmt 0
	ja	LBB21_47
Ltmp2543:
LBB21_45:
	.loc	3 0 5
	shll	$6, %r9d
Ltmp2544:
	jmp	LBB21_46
Ltmp2545:
LBB21_48:
	xorl	%r10d, %r10d
	movq	%r8, %r12
Ltmp2546:
	.loc	3 495 5 is_stmt 1
	shll	$6, %edx
Ltmp2547:
	orl	%r10d, %edx
Ltmp2548:
	.loc	3 536 12
	cmpb	$-16, %dil
	.loc	3 536 9 is_stmt 0
	jae	LBB21_52
Ltmp2549:
LBB21_51:
	.loc	3 0 9
	shll	$12, %r9d
Ltmp2550:
LBB21_46:
	orl	%r9d, %edx
Ltmp2551:
	movl	%edx, %edi
Ltmp2552:
	jmp	LBB21_56
Ltmp2553:
LBB21_53:
	xorl	%edi, %edi
Ltmp2554:
LBB21_55:
	.loc	3 540 18 is_stmt 1
	andl	$7, %r9d
Ltmp2555:
	shll	$18, %r9d
Ltmp2556:
	.loc	3 495 5
	shll	$6, %edx
Ltmp2557:
	orl	%r9d, %edx
Ltmp2558:
	.loc	3 540 13
	orl	%edi, %edx
Ltmp2559:
	.loc	3 0 13 is_stmt 0
	movl	%edx, %edi
Ltmp2560:
	.loc	18 987 13 is_stmt 1
	cmpl	$1114112, %edx
Ltmp2561:
	je	LBB21_61
Ltmp2562:
	.p2align	4, 0x90
LBB21_56:
	.loc	12 0 0 is_stmt 0
	leal	-48(%rdi), %edx
	cmpl	$10, %edx
	.loc	12 348 17 is_stmt 1
	jb	LBB21_60
Ltmp2563:
	.loc	12 349 17
	leal	-97(%rdi), %eax
	movl	$-87, %edx
	cmpl	$26, %eax
	jb	LBB21_59
Ltmp2564:
	.loc	12 350 17
	leal	-65(%rdi), %eax
	movl	$-55, %edx
	cmpl	$25, %eax
	jbe	LBB21_59
Ltmp2565:
LBB21_65:
	.loc	16 10 9
	leaq	l___unnamed_27(%rip), %rdi
	leaq	l___unnamed_99(%rip), %rdx
	movl	$43, %esi
Ltmp2566:
	callq	__ZN4core9panicking5panic17h383a6b80ea7021aaE
Ltmp2567:
LBB21_33:
	.loc	16 0 9 is_stmt 0
	leaq	-120(%rbp), %rax
Ltmp2568:
	.loc	11 428 21 is_stmt 1
	movq	%rax, -104(%rbp)
	leaq	-56(%rbp), %rax
	movq	%rax, -96(%rbp)
	leaq	-64(%rbp), %rax
	movq	%rax, -88(%rbp)
	leaq	-104(%rbp), %rdi
Ltmp2569:
	callq	__ZN4core3str6traits101_$LT$impl$u20$core..slice..SliceIndex$LT$str$GT$$u20$for$u20$core..ops..range..Range$LT$usize$GT$$GT$5index28_$u7b$$u7b$closure$u7d$$u7d$17ha96adb8ff842bfdfE
Ltmp2570:
Lfunc_end21:
	.cfi_endproc
	.p2align	2, 0x90
	.data_region jt32
.set L21_0_set_15, LBB21_15-LJTI21_0
.set L21_0_set_4, LBB21_4-LJTI21_0
.set L21_0_set_14, LBB21_14-LJTI21_0
.set L21_0_set_11, LBB21_11-LJTI21_0
.set L21_0_set_13, LBB21_13-LJTI21_0
.set L21_0_set_10, LBB21_10-LJTI21_0
.set L21_0_set_12, LBB21_12-LJTI21_0
LJTI21_0:
	.long	L21_0_set_15
	.long	L21_0_set_4
	.long	L21_0_set_14
	.long	L21_0_set_4
	.long	L21_0_set_4
	.long	L21_0_set_11
	.long	L21_0_set_4
	.long	L21_0_set_13
	.long	L21_0_set_4
	.long	L21_0_set_4
	.long	L21_0_set_4
	.long	L21_0_set_4
	.long	L21_0_set_10
	.long	L21_0_set_4
	.long	L21_0_set_4
	.long	L21_0_set_4
	.long	L21_0_set_4
	.long	L21_0_set_12
	.end_data_region

	.globl	__ZN14rustc_demangle8demangle17h042ef0a62bcfd038E
	.p2align	4, 0x90
__ZN14rustc_demangle8demangle17h042ef0a62bcfd038E:
Lfunc_begin22:
	.file	22 "/Users/yingyuhang/.cargo/registry/src/github.com-1ecc6299db9ec823/rustc-demangle-0.1.16/src/lib.rs"
	.loc	22 65 0
	.cfi_startproc
	pushq	%rbp
	.cfi_def_cfa_offset 16
	.cfi_offset %rbp, -16
	movq	%rsp, %rbp
	.cfi_def_cfa_register %rbp
	pushq	%r15
	pushq	%r14
	pushq	%r13
	pushq	%r12
	pushq	%rbx
	subq	$216, %rsp
	.cfi_offset %rbx, -56
	.cfi_offset %r12, -48
	.cfi_offset %r13, -40
	.cfi_offset %r14, -32
	.cfi_offset %r15, -24
	movq	%rsi, %r12
	movq	%rdi, %r15
Ltmp2571:
	.loc	4 867 9 prologue_end
	leaq	l___unnamed_100(%rip), %rcx
Ltmp2572:
	.loc	4 0 9 is_stmt 0
	leaq	-216(%rbp), %rdi
	.loc	4 867 9
	movl	$6, %r8d
	movq	%rdx, -80(%rbp)
Ltmp2573:
	callq	__ZN4core3str7pattern11StrSearcher3new17hb3e2f8082f620422E
Ltmp2574:
	.loc	4 1014 13 is_stmt 1
	cmpl	$1, -184(%rbp)
	jne	LBB22_4
Ltmp2575:
	.loc	4 1022 31
	movq	-128(%rbp), %r10
Ltmp2576:
	.loc	4 0 0 is_stmt 0
	movq	-192(%rbp), %rax
Ltmp2577:
	leaq	-1(%rax), %rcx
	movq	%rcx, -104(%rbp)
	movq	-216(%rbp), %r13
	movq	-208(%rbp), %r8
	movq	-200(%rbp), %r9
Ltmp2578:
	movq	-144(%rbp), %rbx
	leaq	-1(%rax,%rbx), %rdi
Ltmp2579:
	.loc	4 1022 31
	cmpq	$-1, %r10
Ltmp2580:
	.loc	4 1025 17 is_stmt 1
	je	LBB22_44
Ltmp2581:
	.loc	4 0 0 is_stmt 0
	cmpq	%r8, %rdi
Ltmp2582:
	.loc	4 1308 17 is_stmt 1
	jae	LBB22_98
Ltmp2583:
	.loc	4 0 0 is_stmt 0
	movq	-152(%rbp), %rdx
	movq	-176(%rbp), %r14
Ltmp2584:
	movq	-160(%rbp), %rcx
	movq	%rax, %rsi
	movq	%rcx, -224(%rbp)
	subq	%rcx, %rsi
	movq	%rsi, -248(%rbp)
	movq	%r14, %rcx
	negq	%rcx
	movq	%rcx, -232(%rbp)
	movq	%rdx, -112(%rbp)
	jmp	LBB22_32
Ltmp2585:
LBB22_4:
	movq	-216(%rbp), %r9
	movq	-208(%rbp), %rcx
Ltmp2586:
	leaq	(%r9,%rcx), %r8
Ltmp2587:
	.loc	4 970 32 is_stmt 1
	movb	-160(%rbp), %r10b
Ltmp2588:
	.loc	4 972 27
	movq	-176(%rbp), %rsi
	jmp	LBB22_6
Ltmp2589:
	.p2align	4, 0x90
LBB22_5:
	.loc	4 977 25
	addq	%rax, %rsi
Ltmp2590:
LBB22_6:
	.loc	4 970 32
	movl	%r10d, %ebx
Ltmp2591:
	testb	%r10b, %r10b
	sete	%r10b
Ltmp2592:
	.loc	4 0 32 is_stmt 0
	movq	%r9, -96(%rbp)
	movq	%rcx, -88(%rbp)
Ltmp2593:
	.loc	3 2070 18 is_stmt 1
	movq	%rsi, -240(%rbp)
	.loc	3 2070 25 is_stmt 0
	movq	%rcx, -48(%rbp)
Ltmp2594:
	.loc	3 2326 12 is_stmt 1
	testq	%rsi, %rsi
	je	LBB22_10
Ltmp2595:
	cmpq	%rsi, %rcx
	je	LBB22_10
Ltmp2596:
	.loc	3 2330 13
	jbe	LBB22_242
Ltmp2597:
	.loc	3 2332 25
	cmpb	$-65, (%r9,%rsi)
Ltmp2598:
	.loc	3 2033 13
	jle	LBB22_242
Ltmp2599:
LBB22_10:
	.loc	3 0 13 is_stmt 0
	movl	$1114112, %edi
Ltmp2600:
	.loc	3 2326 26 is_stmt 1
	cmpq	%rsi, %rcx
Ltmp2601:
	.loc	5 3570 21
	je	LBB22_25
Ltmp2602:
	.loc	4 0 0 is_stmt 0
	leaq	(%r9,%rsi), %rdx
Ltmp2603:
	.loc	3 519 13 is_stmt 1
	movzbl	(%rdx), %edi
Ltmp2604:
	.loc	3 520 8
	testb	%dil, %dil
	.loc	3 520 5 is_stmt 0
	jns	LBB22_25
Ltmp2605:
	.loc	3 0 0
	leaq	1(%rdx), %rax
Ltmp2606:
	.loc	5 3440 9 is_stmt 1
	cmpq	%r8, %rax
Ltmp2607:
	.loc	5 3570 21
	je	LBB22_18
Ltmp2608:
	.loc	3 508 15
	movzbl	1(%rdx), %eax
Ltmp2609:
	.loc	10 165 18
	addq	$2, %rdx
Ltmp2610:
	.loc	3 507 5
	andl	$63, %eax
	movl	%edi, %r11d
	andl	$31, %r11d
Ltmp2611:
	.loc	3 530 8
	cmpb	$-33, %dil
	.loc	3 530 5 is_stmt 0
	jbe	LBB22_19
Ltmp2612:
LBB22_14:
	.loc	5 3440 9 is_stmt 1
	cmpq	%r8, %rdx
	.loc	5 3570 21
	je	LBB22_20
Ltmp2613:
	.loc	3 508 15
	movzbl	(%rdx), %r14d
Ltmp2614:
	.loc	10 165 18
	incq	%rdx
Ltmp2615:
	.loc	3 507 5
	andl	$63, %r14d
Ltmp2616:
	.loc	3 495 5
	shll	$6, %eax
Ltmp2617:
	orl	%r14d, %eax
Ltmp2618:
	.loc	3 536 12
	cmpb	$-16, %dil
	.loc	3 536 9 is_stmt 0
	jb	LBB22_21
Ltmp2619:
LBB22_16:
	.loc	5 3440 9 is_stmt 1
	cmpq	%r8, %rdx
	.loc	5 3570 21
	je	LBB22_22
Ltmp2620:
	.loc	3 508 15
	movzbl	(%rdx), %edx
Ltmp2621:
	.loc	3 507 5
	andl	$63, %edx
	jmp	LBB22_23
Ltmp2622:
LBB22_18:
	.loc	3 0 5 is_stmt 0
	xorl	%eax, %eax
	movq	%r8, %rdx
	movl	%edi, %r11d
	andl	$31, %r11d
Ltmp2623:
	.loc	3 530 8 is_stmt 1
	cmpb	$-33, %dil
	.loc	3 530 5 is_stmt 0
	ja	LBB22_14
Ltmp2624:
LBB22_19:
	.loc	3 0 5
	shll	$6, %r11d
Ltmp2625:
	orl	%r11d, %eax
Ltmp2626:
	jmp	LBB22_24
Ltmp2627:
LBB22_20:
	xorl	%r14d, %r14d
	movq	%r8, %rdx
Ltmp2628:
	.loc	3 495 5 is_stmt 1
	shll	$6, %eax
Ltmp2629:
	orl	%r14d, %eax
Ltmp2630:
	.loc	3 536 12
	cmpb	$-16, %dil
	.loc	3 536 9 is_stmt 0
	jae	LBB22_16
Ltmp2631:
LBB22_21:
	.loc	3 0 9
	shll	$12, %r11d
Ltmp2632:
	orl	%r11d, %eax
Ltmp2633:
	jmp	LBB22_24
Ltmp2634:
LBB22_22:
	xorl	%edx, %edx
Ltmp2635:
LBB22_23:
	.loc	3 540 18 is_stmt 1
	andl	$7, %r11d
Ltmp2636:
	shll	$18, %r11d
Ltmp2637:
	.loc	3 495 5
	shll	$6, %eax
Ltmp2638:
	orl	%r11d, %eax
Ltmp2639:
	.loc	3 540 13
	orl	%edx, %eax
Ltmp2640:
LBB22_24:
	.loc	3 0 13 is_stmt 0
	movl	%eax, %edi
Ltmp2641:
	.p2align	4, 0x90
LBB22_25:
	.loc	4 970 32 is_stmt 1
	testb	%bl, %bl
Ltmp2642:
	.loc	4 974 26
	jne	LBB22_61
Ltmp2643:
	.loc	4 975 21
	cmpl	$1114112, %edi
	je	LBB22_98
Ltmp2644:
	.loc	4 0 21 is_stmt 0
	movl	$1, %eax
Ltmp2645:
	.loc	12 1594 8 is_stmt 1
	cmpl	$128, %edi
	.loc	12 1594 5 is_stmt 0
	jb	LBB22_5
Ltmp2646:
	.loc	12 0 5
	movl	$2, %eax
	.loc	12 1596 15 is_stmt 1
	cmpl	$2048, %edi
	.loc	12 1596 12 is_stmt 0
	jb	LBB22_5
Ltmp2647:
	.loc	12 1598 15 is_stmt 1
	cmpl	$65536, %edi
	.loc	12 1598 12 is_stmt 0
	movl	$4, %eax
	sbbq	$0, %rax
	jmp	LBB22_5
Ltmp2648:
	.p2align	4, 0x90
LBB22_30:
	.loc	4 1321 17 is_stmt 1
	addq	%rax, %rbx
	xorl	%r10d, %r10d
Ltmp2649:
LBB22_31:
	.loc	4 0 17 is_stmt 0
	movq	-104(%rbp), %rcx
	.loc	4 1307 48 is_stmt 1
	leaq	(%rbx,%rcx), %rdi
Ltmp2650:
	.loc	5 3090 12
	cmpq	%r8, %rdi
Ltmp2651:
	.loc	4 1308 17
	jae	LBB22_96
Ltmp2652:
LBB22_32:
	.loc	4 1287 9
	movzbl	(%r13,%rdi), %ecx
	btq	%rcx, %rdx
Ltmp2653:
	.loc	4 1320 13
	jae	LBB22_30
Ltmp2654:
	.loc	4 0 13 is_stmt 0
	movq	%r12, %r11
	movq	%r15, %r12
	.loc	4 1330 17 is_stmt 1
	cmpq	%r10, %r14
	movq	%r10, %rsi
	cmovaq	%r14, %rsi
Ltmp2655:
	.loc	4 1331 13
	leaq	(%r9,%rsi), %rdx
	leaq	(%rbx,%rsi), %r15
Ltmp2656:
	.p2align	4, 0x90
LBB22_34:
	.loc	7 1136 52
	cmpq	%rax, %rsi
Ltmp2657:
	.loc	9 505 9
	jae	LBB22_38
Ltmp2658:
	.loc	4 1332 33
	cmpq	%r8, %r15
	jae	LBB22_241
Ltmp2659:
	.loc	19 3013 26
	incq	%rsi
Ltmp2660:
	.loc	4 1332 20
	movzbl	(%rdx), %ecx
	.loc	4 1332 17 is_stmt 0
	incq	%rdx
	leaq	1(%r15), %rdi
	.loc	4 1332 20
	cmpb	(%r13,%r15), %cl
Ltmp2661:
	.loc	4 0 0
	movq	%rdi, %r15
Ltmp2662:
	.loc	4 1332 17
	je	LBB22_34
Ltmp2663:
	.loc	4 1334 21 is_stmt 1
	addq	-232(%rbp), %rdi
	xorl	%r10d, %r10d
Ltmp2664:
	.loc	4 1307 48
	movq	%rdi, %rbx
	movq	%r12, %r15
	movq	%r11, %r12
	movq	-112(%rbp), %rdx
	jmp	LBB22_31
Ltmp2665:
	.p2align	4, 0x90
LBB22_38:
	.loc	4 0 0 is_stmt 0
	movq	%r14, %rdi
	movq	%r12, %r15
	movq	%r11, %r12
Ltmp2666:
	.p2align	4, 0x90
LBB22_39:
	.loc	7 1136 52 is_stmt 1
	cmpq	%rdi, %r10
Ltmp2667:
	.loc	9 589 9
	jae	LBB22_60
Ltmp2668:
	.loc	19 3055 26
	decq	%rdi
Ltmp2669:
	.loc	4 1344 20
	cmpq	%rax, %rdi
	jae	LBB22_243
Ltmp2670:
	.loc	4 1344 42 is_stmt 0
	leaq	(%rdi,%rbx), %rsi
	.loc	4 1344 33
	cmpq	%r8, %rsi
	jae	LBB22_245
Ltmp2671:
	.loc	4 1344 20
	movzbl	(%r9,%rdi), %ecx
	cmpb	(%r13,%rsi), %cl
	.loc	4 1344 17
	je	LBB22_39
Ltmp2672:
	.loc	4 1345 21 is_stmt 1
	addq	-224(%rbp), %rbx
	movq	-248(%rbp), %r10
	movq	-112(%rbp), %rdx
	jmp	LBB22_31
Ltmp2673:
LBB22_44:
	.loc	4 0 0 is_stmt 0
	cmpq	%r8, %rdi
Ltmp2674:
	.loc	4 1308 17 is_stmt 1
	jae	LBB22_98
Ltmp2675:
	.loc	4 0 0 is_stmt 0
	movq	-152(%rbp), %rcx
	movq	%rcx, -112(%rbp)
	movq	-176(%rbp), %rdx
Ltmp2676:
	movq	-160(%rbp), %rcx
	movq	%rcx, -224(%rbp)
	leaq	(%r9,%rdx), %rcx
	movq	%rcx, -232(%rbp)
	leaq	(%r13,%rdx), %r11
	jmp	LBB22_49
Ltmp2677:
LBB22_46:
	.loc	4 1321 17 is_stmt 1
	addq	%rax, %rsi
Ltmp2678:
LBB22_47:
	.loc	4 1307 48
	movq	%rsi, %rbx
Ltmp2679:
LBB22_48:
	.loc	4 0 48 is_stmt 0
	movq	-104(%rbp), %rcx
	.loc	4 1307 48
	leaq	(%rbx,%rcx), %rdi
Ltmp2680:
	.loc	5 3090 12 is_stmt 1
	cmpq	%r8, %rdi
Ltmp2681:
	.loc	4 1308 17
	jae	LBB22_97
Ltmp2682:
LBB22_49:
	.loc	4 0 17 is_stmt 0
	movq	%rbx, %rsi
Ltmp2683:
	.loc	4 1287 9 is_stmt 1
	movzbl	(%r13,%rdi), %edi
	movq	-112(%rbp), %rcx
	btq	%rdi, %rcx
Ltmp2684:
	.loc	4 1320 13
	jae	LBB22_46
Ltmp2685:
	.loc	4 0 0 is_stmt 0
	xorl	%r14d, %r14d
	movq	%rsi, %rbx
	movq	-232(%rbp), %r10
Ltmp2686:
	.p2align	4, 0x90
LBB22_51:
	leaq	(%rdx,%r14), %rdi
Ltmp2687:
	.loc	7 1136 52 is_stmt 1
	cmpq	%rax, %rdi
Ltmp2688:
	.loc	9 505 9
	jae	LBB22_54
Ltmp2689:
	.loc	4 1332 33
	leaq	(%rdx,%rbx), %rdi
	cmpq	%r8, %rdi
	jae	LBB22_244
Ltmp2690:
	.loc	4 1332 20 is_stmt 0
	movzbl	(%r10), %ecx
	.loc	4 1332 17
	incq	%r10
	incq	%r14
	.loc	4 1332 20
	cmpb	(%r11,%rbx), %cl
	.loc	4 1332 17
	leaq	1(%rbx), %rbx
	je	LBB22_51
	jmp	LBB22_48
Ltmp2691:
LBB22_54:
	.loc	4 0 0
	movq	%rdx, %rdi
Ltmp2692:
	.p2align	4, 0x90
LBB22_55:
	.loc	7 1136 52 is_stmt 1
	testq	%rdi, %rdi
Ltmp2693:
	.loc	9 589 9
	je	LBB22_94
Ltmp2694:
	.loc	19 3055 26
	decq	%rdi
Ltmp2695:
	.loc	4 1344 20
	cmpq	%rax, %rdi
	jae	LBB22_243
Ltmp2696:
	.loc	4 1344 42 is_stmt 0
	leaq	(%rdi,%rsi), %rbx
	.loc	4 1344 33
	cmpq	%r8, %rbx
	jae	LBB22_246
Ltmp2697:
	.loc	4 1344 20
	movzbl	(%r9,%rdi), %ecx
	cmpb	(%r13,%rbx), %cl
	.loc	4 1344 17
	je	LBB22_55
Ltmp2698:
	.loc	4 1345 21 is_stmt 1
	addq	-224(%rbp), %rsi
	jmp	LBB22_47
Ltmp2699:
LBB22_60:
	.loc	4 1357 13
	addq	%rbx, %rax
Ltmp2700:
	movq	%rax, -144(%rbp)
	.loc	4 1359 17
	movq	$0, -128(%rbp)
	movq	%rbx, %rsi
Ltmp2701:
LBB22_61:
	.loc	22 71 28
	movq	%rsi, %rax
	addq	$6, %rax
	movq	-80(%rbp), %r9
	jb	LBB22_95
Ltmp2702:
LBB22_62:
	.loc	22 0 28 is_stmt 0
	movq	%r12, -72(%rbp)
	movq	%r9, -64(%rbp)
Ltmp2703:
	.loc	3 2070 18 is_stmt 1
	movq	%rax, -48(%rbp)
	.loc	3 2070 25 is_stmt 0
	movq	%r9, -96(%rbp)
Ltmp2704:
	.loc	3 2326 12 is_stmt 1
	testq	%rax, %rax
	je	LBB22_66
Ltmp2705:
	cmpq	%r9, %rax
	je	LBB22_66
Ltmp2706:
	.loc	3 2330 13
	jae	LBB22_247
Ltmp2707:
	.loc	3 2332 25
	cmpb	$-65, (%r12,%rax)
Ltmp2708:
	.loc	3 2033 13
	jle	LBB22_247
Ltmp2709:
LBB22_66:
	.loc	3 2326 26
	cmpq	%r9, %rax
Ltmp2710:
	.loc	5 3570 21
	jne	LBB22_72
Ltmp2711:
LBB22_67:
	.loc	5 0 21 is_stmt 0
	movq	%r12, -216(%rbp)
	movq	%r9, -208(%rbp)
Ltmp2712:
	.loc	3 2326 12 is_stmt 1
	testq	%rsi, %rsi
	je	LBB22_71
Ltmp2713:
	cmpq	%r9, %rsi
	je	LBB22_71
Ltmp2714:
	.loc	3 2330 13
	jae	LBB22_248
Ltmp2715:
	.loc	3 2332 25
	cmpb	$-65, (%r12,%rsi)
Ltmp2716:
	.loc	3 1965 13
	jle	LBB22_248
Ltmp2717:
LBB22_71:
	.loc	3 0 13 is_stmt 0
	movq	%rsi, %r9
Ltmp2718:
	.loc	5 1436 9 is_stmt 1
	cmpq	$3, %r9
Ltmp2719:
	jb	LBB22_93
	jmp	LBB22_99
Ltmp2720:
LBB22_72:
	.loc	22 0 0 is_stmt 0
	leaq	(%r12,%r9), %r8
Ltmp2721:
	.loc	6 164 18 is_stmt 1
	addq	%r12, %rax
Ltmp2722:
	.loc	6 0 18 is_stmt 0
	jmp	LBB22_74
Ltmp2723:
	.p2align	4, 0x90
LBB22_73:
	.loc	5 3440 9 is_stmt 1
	cmpq	%r8, %rax
	.loc	5 3570 21
	je	LBB22_67
Ltmp2724:
LBB22_74:
	.loc	10 165 18
	leaq	1(%rax), %rcx
Ltmp2725:
	.loc	3 519 13
	movzbl	(%rax), %edi
Ltmp2726:
	.loc	3 520 8
	testb	%dil, %dil
	.loc	3 520 5 is_stmt 0
	js	LBB22_76
Ltmp2727:
	.loc	3 0 5
	movq	%rcx, %rax
Ltmp2728:
	jmp	LBB22_89
Ltmp2729:
	.p2align	4, 0x90
LBB22_76:
	.loc	5 3440 9 is_stmt 1
	cmpq	%r8, %rcx
Ltmp2730:
	.loc	5 3570 21
	je	LBB22_82
Ltmp2731:
	.loc	3 508 15
	movzbl	1(%rax), %edx
Ltmp2732:
	.loc	10 165 18
	addq	$2, %rax
Ltmp2733:
	.loc	3 507 5
	andl	$63, %edx
	movl	%edi, %ebx
	andl	$31, %ebx
Ltmp2734:
	.loc	3 530 8
	cmpb	$-33, %dil
	.loc	3 530 5 is_stmt 0
	jbe	LBB22_83
Ltmp2735:
LBB22_78:
	.loc	5 3440 9 is_stmt 1
	cmpq	%r8, %rax
	.loc	5 3570 21
	je	LBB22_84
Ltmp2736:
	.loc	3 508 15
	movzbl	(%rax), %ecx
Ltmp2737:
	.loc	10 165 18
	incq	%rax
Ltmp2738:
	.loc	3 507 5
	andl	$63, %ecx
Ltmp2739:
	.loc	3 495 5
	shll	$6, %edx
Ltmp2740:
	orl	%ecx, %edx
Ltmp2741:
	.loc	3 536 12
	cmpb	$-16, %dil
	.loc	3 536 9 is_stmt 0
	jb	LBB22_85
Ltmp2742:
LBB22_80:
	.loc	5 3440 9 is_stmt 1
	cmpq	%r8, %rax
	.loc	5 3570 21
	je	LBB22_87
Ltmp2743:
	.loc	3 508 15
	movzbl	(%rax), %edi
Ltmp2744:
	.loc	10 165 18
	incq	%rax
Ltmp2745:
	.loc	3 507 5
	andl	$63, %edi
	jmp	LBB22_88
Ltmp2746:
LBB22_82:
	.loc	3 0 5 is_stmt 0
	xorl	%edx, %edx
	movq	%r8, %rax
	movl	%edi, %ebx
	andl	$31, %ebx
Ltmp2747:
	.loc	3 530 8 is_stmt 1
	cmpb	$-33, %dil
	.loc	3 530 5 is_stmt 0
	ja	LBB22_78
Ltmp2748:
LBB22_83:
	.loc	3 0 5
	shll	$6, %ebx
Ltmp2749:
	jmp	LBB22_86
Ltmp2750:
LBB22_84:
	xorl	%ecx, %ecx
	movq	%r8, %rax
Ltmp2751:
	.loc	3 495 5 is_stmt 1
	shll	$6, %edx
Ltmp2752:
	orl	%ecx, %edx
Ltmp2753:
	.loc	3 536 12
	cmpb	$-16, %dil
	.loc	3 536 9 is_stmt 0
	jae	LBB22_80
Ltmp2754:
LBB22_85:
	.loc	3 0 9
	shll	$12, %ebx
Ltmp2755:
LBB22_86:
	orl	%ebx, %edx
Ltmp2756:
	movl	%edx, %edi
Ltmp2757:
	jmp	LBB22_89
Ltmp2758:
LBB22_87:
	xorl	%edi, %edi
Ltmp2759:
	movq	%r8, %rax
Ltmp2760:
LBB22_88:
	.loc	3 540 18 is_stmt 1
	andl	$7, %ebx
Ltmp2761:
	shll	$18, %ebx
Ltmp2762:
	.loc	3 495 5
	shll	$6, %edx
Ltmp2763:
	orl	%ebx, %edx
Ltmp2764:
	.loc	3 540 13
	orl	%edi, %edx
Ltmp2765:
	.loc	3 0 13 is_stmt 0
	movl	%edx, %edi
Ltmp2766:
	.loc	14 1869 19 is_stmt 1
	cmpl	$1114112, %edx
Ltmp2767:
	je	LBB22_67
Ltmp2768:
	.p2align	4, 0x90
LBB22_89:
	.loc	22 74 17
	leal	-65(%rdi), %ecx
	cmpl	$6, %ecx
	jb	LBB22_73
Ltmp2769:
	.loc	22 74 45 is_stmt 0
	cmpl	$64, %edi
	.loc	22 74 31
	je	LBB22_73
Ltmp2770:
	addl	$-48, %edi
	cmpl	$9, %edi
	jbe	LBB22_73
Ltmp2771:
	.loc	5 1436 9 is_stmt 1
	cmpq	$3, %r9
Ltmp2772:
	jae	LBB22_99
Ltmp2773:
LBB22_93:
	.loc	5 1436 9 is_stmt 0
	cmpq	$2, %r9
Ltmp2774:
	je	LBB22_101
	jmp	LBB22_137
Ltmp2775:
LBB22_94:
	.loc	4 1357 13 is_stmt 1
	addq	%rsi, %rax
Ltmp2776:
	movq	%rax, -144(%rbp)
Ltmp2777:
	.loc	22 71 28
	movq	%rsi, %rax
	addq	$6, %rax
	movq	-80(%rbp), %r9
Ltmp2778:
	jae	LBB22_62
Ltmp2779:
LBB22_95:
	leaq	_str.0(%rip), %rdi
	leaq	l___unnamed_101(%rip), %rdx
	movl	$28, %esi
	callq	__ZN4core9panicking5panic17h383a6b80ea7021aaE
Ltmp2780:
LBB22_96:
	.loc	4 1323 21
	movq	%r10, -128(%rbp)
Ltmp2781:
LBB22_97:
	.loc	4 0 0 is_stmt 0
	movq	%rbx, -144(%rbp)
Ltmp2782:
LBB22_98:
	movq	-80(%rbp), %r9
Ltmp2783:
	.loc	5 1436 9 is_stmt 1
	cmpq	$3, %r9
Ltmp2784:
	jb	LBB22_93
Ltmp2785:
LBB22_99:
	.loc	6 331 9
	leaq	l___unnamed_102(%rip), %rax
Ltmp2786:
	cmpq	%rax, %r12
Ltmp2787:
	.loc	5 6271 9
	je	LBB22_109
Ltmp2788:
	.loc	5 6276 13
	movzwl	(%r12), %eax
Ltmp2789:
	xorl	$23135, %eax
	movzbl	2(%r12), %ecx
	xorl	$78, %ecx
	orw	%ax, %cx
Ltmp2790:
	.loc	5 1436 9
	je	LBB22_109
Ltmp2791:
LBB22_101:
	.loc	6 331 9
	leaq	l___unnamed_103(%rip), %rax
Ltmp2792:
	cmpq	%rax, %r12
Ltmp2793:
	.loc	5 6271 9
	je	LBB22_112
Ltmp2794:
	.loc	5 6276 13
	movzwl	(%r12), %eax
Ltmp2795:
	cmpl	$20058, %eax
Ltmp2796:
	.loc	5 1436 9
	je	LBB22_112
Ltmp2797:
	.loc	5 0 9 is_stmt 0
	movq	%r9, %r14
Ltmp2798:
	.loc	5 1436 9
	cmpq	$4, %r9
Ltmp2799:
	jb	LBB22_122
Ltmp2800:
	.loc	6 331 9 is_stmt 1
	leaq	L___unnamed_104(%rip), %rax
Ltmp2801:
	cmpq	%rax, %r12
	movq	%r14, %r9
Ltmp2802:
	.loc	5 6271 9
	je	LBB22_106
Ltmp2803:
	.loc	5 6276 13
	cmpl	$1314545503, (%r12)
Ltmp2804:
	.loc	5 1436 9
	jne	LBB22_123
Ltmp2805:
LBB22_106:
	.loc	5 0 9 is_stmt 0
	movq	%r12, -72(%rbp)
	movq	%r9, -64(%rbp)
Ltmp2806:
	.loc	3 2070 18 is_stmt 1
	movq	$4, -48(%rbp)
	.loc	3 2070 25 is_stmt 0
	movq	%r9, -96(%rbp)
Ltmp2807:
	.loc	3 2326 26 is_stmt 1
	cmpq	$4, %r9
	.loc	3 2326 12 is_stmt 0
	je	LBB22_108
Ltmp2808:
	.loc	3 2332 25 is_stmt 1
	cmpb	$-65, 4(%r12)
Ltmp2809:
	.loc	3 2033 13
	jle	LBB22_247
Ltmp2810:
LBB22_108:
	.loc	6 164 18
	leaq	4(%r12), %r13
Ltmp2811:
	.loc	3 2057 23
	leaq	-4(%r9), %rbx
Ltmp2812:
	.loc	3 0 23 is_stmt 0
	jmp	LBB22_115
Ltmp2813:
LBB22_109:
	movq	%r12, -72(%rbp)
	movq	%r9, -64(%rbp)
Ltmp2814:
	.loc	3 2070 18 is_stmt 1
	movq	$3, -48(%rbp)
	.loc	3 2070 25 is_stmt 0
	movq	%r9, -96(%rbp)
Ltmp2815:
	.loc	3 2326 26 is_stmt 1
	cmpq	$3, %r9
	.loc	3 2326 12 is_stmt 0
	je	LBB22_111
Ltmp2816:
	.loc	3 2332 25 is_stmt 1
	cmpb	$-65, 3(%r12)
Ltmp2817:
	.loc	3 2033 13
	jle	LBB22_247
Ltmp2818:
LBB22_111:
	.loc	6 164 18
	leaq	3(%r12), %r13
	movq	%r9, %r14
Ltmp2819:
	.loc	3 2057 23
	leaq	-3(%r9), %rbx
Ltmp2820:
	.loc	3 0 23 is_stmt 0
	jmp	LBB22_115
Ltmp2821:
LBB22_112:
	movq	%r12, -72(%rbp)
	movq	%r9, -64(%rbp)
Ltmp2822:
	.loc	3 2070 18 is_stmt 1
	movq	$2, -48(%rbp)
	.loc	3 2070 25 is_stmt 0
	movq	%r9, -96(%rbp)
Ltmp2823:
	.loc	3 2326 26 is_stmt 1
	cmpq	$2, %r9
	.loc	3 2326 12 is_stmt 0
	je	LBB22_114
Ltmp2824:
	.loc	3 2332 25 is_stmt 1
	cmpb	$-65, 2(%r12)
Ltmp2825:
	.loc	3 2033 13
	jle	LBB22_247
Ltmp2826:
LBB22_114:
	.loc	6 164 18
	leaq	2(%r12), %r13
	movq	%r9, %r14
Ltmp2827:
	.loc	3 2057 23
	leaq	-2(%r9), %rbx
Ltmp2828:
LBB22_115:
	.loc	6 164 18
	leaq	(%r13,%rbx), %r10
	xorl	%eax, %eax
Ltmp2829:
	.p2align	4, 0x90
LBB22_116:
	.loc	5 3440 9
	cmpq	%rax, %rbx
	.loc	5 3570 21
	je	LBB22_118
Ltmp2830:
	.loc	8 67 30
	cmpb	$0, (%r13,%rax)
Ltmp2831:
	.loc	14 1870 32
	leaq	1(%rax), %rax
	jns	LBB22_116
	jmp	LBB22_122
Ltmp2832:
LBB22_118:
	.loc	5 3440 9
	testq	%rbx, %rbx
	.loc	5 3570 21
	je	LBB22_122
Ltmp2833:
	.loc	10 165 18
	leaq	1(%r13), %rsi
Ltmp2834:
	.loc	3 519 13
	movzbl	(%r13), %ecx
Ltmp2835:
	.loc	3 520 8
	testb	%cl, %cl
	.loc	3 520 5 is_stmt 0
	js	LBB22_146
Ltmp2836:
	.loc	8 73 17 is_stmt 1
	cmpl	$69, %ecx
	je	LBB22_212
Ltmp2837:
LBB22_121:
	cmpl	$1114112, %ecx
	jne	LBB22_153
Ltmp2838:
LBB22_122:
	.loc	8 0 17 is_stmt 0
	movq	%r14, %r9
Ltmp2839:
	.loc	18 20 8 is_stmt 1
	cmpq	$3, %r14
	jb	LBB22_127
Ltmp2840:
LBB22_123:
	.loc	6 331 9
	leaq	l___unnamed_105(%rip), %rax
Ltmp2841:
	cmpq	%rax, %r12
Ltmp2842:
	.loc	5 6271 9
	je	LBB22_125
Ltmp2843:
	.loc	5 6276 13
	movzwl	(%r12), %eax
Ltmp2844:
	cmpl	$21087, %eax
Ltmp2845:
	.loc	5 1436 9
	jne	LBB22_128
Ltmp2846:
LBB22_125:
	.loc	5 0 9 is_stmt 0
	movq	%r12, -72(%rbp)
	movq	%r9, -64(%rbp)
Ltmp2847:
	.loc	3 2070 18 is_stmt 1
	movq	$2, -48(%rbp)
	.loc	3 2070 25 is_stmt 0
	movq	%r9, -96(%rbp)
Ltmp2848:
	.loc	3 2332 19 is_stmt 1
	movb	2(%r12), %al
Ltmp2849:
	.loc	3 2332 25 is_stmt 0
	cmpb	$-65, %al
Ltmp2850:
	.loc	3 2033 13 is_stmt 1
	jle	LBB22_247
Ltmp2851:
	.loc	3 0 0 is_stmt 0
	leaq	2(%r12), %r13
Ltmp2852:
	.loc	3 2057 23 is_stmt 1
	leaq	-2(%r9), %rbx
Ltmp2853:
	.loc	3 0 23 is_stmt 0
	jmp	LBB22_132
Ltmp2854:
LBB22_127:
	.loc	18 22 15 is_stmt 1
	cmpq	$2, %r9
	jne	LBB22_137
Ltmp2855:
LBB22_128:
	.loc	6 331 9
	leaq	l___unnamed_106(%rip), %rax
Ltmp2856:
	cmpq	%rax, %r12
Ltmp2857:
	.loc	5 6271 9
	je	LBB22_130
Ltmp2858:
	.loc	5 6276 13
	cmpb	$82, (%r12)
Ltmp2859:
	.loc	5 1436 9
	jne	LBB22_140
Ltmp2860:
LBB22_130:
	.loc	5 0 9 is_stmt 0
	movq	%r12, -72(%rbp)
	movq	%r9, -64(%rbp)
Ltmp2861:
	.loc	3 2070 18 is_stmt 1
	movq	$1, -48(%rbp)
	.loc	3 2070 25 is_stmt 0
	movq	%r9, -96(%rbp)
Ltmp2862:
	.loc	3 2332 19 is_stmt 1
	movb	1(%r12), %al
Ltmp2863:
	.loc	3 2332 25 is_stmt 0
	cmpb	$-65, %al
Ltmp2864:
	.loc	3 2033 13 is_stmt 1
	jle	LBB22_247
Ltmp2865:
	.loc	3 0 0 is_stmt 0
	leaq	1(%r12), %r13
Ltmp2866:
	.loc	3 2057 23 is_stmt 1
	leaq	-1(%r9), %rbx
Ltmp2867:
LBB22_132:
	.loc	18 35 9
	addb	$-65, %al
	leaq	l___unnamed_44(%rip), %r14
	movl	$2, %edx
	cmpb	$25, %al
	ja	LBB22_143
Ltmp2868:
	.loc	18 0 9 is_stmt 0
	xorl	%r10d, %r10d
Ltmp2869:
	.loc	5 3440 9 is_stmt 1
	xorl	%eax, %eax
Ltmp2870:
	.p2align	4, 0x90
LBB22_134:
	cmpq	%rax, %rbx
	.loc	5 3570 21
	je	LBB22_138
Ltmp2871:
	.loc	18 40 30
	cmpb	$0, (%r13,%rax)
Ltmp2872:
	.loc	14 1870 32
	leaq	1(%rax), %rax
	jns	LBB22_134
	jmp	LBB22_144
Ltmp2873:
LBB22_137:
	.loc	14 0 32 is_stmt 0
	leaq	l___unnamed_44(%rip), %r14
	movl	$2, %edx
Ltmp2874:
LBB22_143:
	xorl	%r10d, %r10d
Ltmp2875:
LBB22_144:
LBB22_145:
	.loc	22 111 5 is_stmt 1
	movq	%rdx, (%r15)
	movq	%r13, 8(%r15)
	movq	%rbx, 16(%r15)
	movq	%r8, 24(%r15)
	movq	%r12, 32(%r15)
	movq	%r9, 40(%r15)
	movq	%r14, 48(%r15)
	movq	%r10, 56(%r15)
Ltmp2876:
	.loc	22 116 2
	movq	%r15, %rax
	addq	$216, %rsp
	popq	%rbx
	popq	%r12
	popq	%r13
	popq	%r14
Ltmp2877:
	popq	%r15
	popq	%rbp
	retq
Ltmp2878:
LBB22_138:
	.loc	22 0 2 is_stmt 0
	movq	%r9, -80(%rbp)
Ltmp2879:
	.loc	18 45 22 is_stmt 1
	movq	%r13, -72(%rbp)
	movq	%rbx, -64(%rbp)
	movq	$0, -56(%rbp)
	leaq	-72(%rbp), %rdi
Ltmp2880:
	.loc	18 49 10
	callq	__ZN14rustc_demangle2v06Parser9skip_path17ha4c28c578bd5eb45E
	.loc	18 49 5 is_stmt 0
	testb	%al, %al
	je	LBB22_194
Ltmp2881:
LBB22_139:
	.loc	18 0 5
	xorl	%r10d, %r10d
	movq	-80(%rbp), %r9
	movl	$2, %edx
	jmp	LBB22_145
Ltmp2882:
LBB22_140:
	leaq	l___unnamed_44(%rip), %r14
	movl	$2, %edx
	.loc	18 26 15 is_stmt 1
	cmpq	$3, %r9
	jbe	LBB22_143
Ltmp2883:
	.loc	6 331 9
	leaq	l___unnamed_107(%rip), %rax
Ltmp2884:
	cmpq	%rax, %r12
Ltmp2885:
	.loc	5 6271 9
	je	LBB22_205
Ltmp2886:
	.loc	5 6276 13
	movzwl	(%r12), %eax
Ltmp2887:
	xorl	$24415, %eax
	movzbl	2(%r12), %ecx
	xorl	$82, %ecx
	orw	%ax, %cx
Ltmp2888:
	.loc	5 1436 9
	jne	LBB22_143
Ltmp2889:
LBB22_205:
	.loc	5 0 9 is_stmt 0
	movq	%r12, -72(%rbp)
	movq	%r9, -64(%rbp)
Ltmp2890:
	.loc	3 2070 18 is_stmt 1
	movq	$3, -48(%rbp)
	.loc	3 2070 25 is_stmt 0
	movq	%r9, -96(%rbp)
Ltmp2891:
	.loc	3 2332 19 is_stmt 1
	movb	3(%r12), %al
Ltmp2892:
	.loc	3 2332 25 is_stmt 0
	cmpb	$-65, %al
Ltmp2893:
	.loc	3 2033 13 is_stmt 1
	jle	LBB22_247
Ltmp2894:
	.loc	3 0 0 is_stmt 0
	leaq	3(%r12), %r13
Ltmp2895:
	.loc	3 2057 23 is_stmt 1
	leaq	-3(%r9), %rbx
Ltmp2896:
	.loc	3 0 23 is_stmt 0
	jmp	LBB22_132
Ltmp2897:
LBB22_146:
	xorl	%eax, %eax
Ltmp2898:
	movq	%r10, %rdi
Ltmp2899:
	.loc	5 3440 9 is_stmt 1
	cmpq	$1, %rbx
Ltmp2900:
	.loc	5 3570 21
	je	LBB22_148
Ltmp2901:
	.loc	10 165 18
	leaq	2(%r13), %rsi
Ltmp2902:
	.loc	3 508 15
	movzbl	1(%r13), %eax
	.loc	3 507 5
	andl	$63, %eax
	movq	%rsi, %rdi
Ltmp2903:
LBB22_148:
	.loc	3 0 5 is_stmt 0
	movl	%ecx, %edx
	andl	$31, %edx
Ltmp2904:
	.loc	3 530 8 is_stmt 1
	cmpb	$-33, %cl
	.loc	3 530 5 is_stmt 0
	jbe	LBB22_204
Ltmp2905:
	.loc	5 3440 9 is_stmt 1
	cmpq	%r10, %rdi
	.loc	5 3570 21
	je	LBB22_207
Ltmp2906:
	.loc	3 508 15
	movzbl	(%rdi), %r8d
Ltmp2907:
	.loc	10 165 18
	incq	%rdi
Ltmp2908:
	.loc	3 507 5
	andl	$63, %r8d
Ltmp2909:
	.loc	3 0 0 is_stmt 0
	movq	%rdi, %rsi
Ltmp2910:
	.loc	3 495 5 is_stmt 1
	shll	$6, %eax
Ltmp2911:
	orl	%r8d, %eax
Ltmp2912:
	.loc	3 536 12
	cmpb	$-16, %cl
	.loc	3 536 9 is_stmt 0
	jb	LBB22_208
Ltmp2913:
LBB22_151:
	.loc	5 3440 9 is_stmt 1
	cmpq	%r10, %rdi
	.loc	5 3570 21
	je	LBB22_209
Ltmp2914:
	.loc	3 508 15
	movzbl	(%rdi), %ecx
Ltmp2915:
	.loc	10 165 18
	incq	%rdi
Ltmp2916:
	.loc	3 507 5
	andl	$63, %ecx
Ltmp2917:
	.loc	3 0 0 is_stmt 0
	movq	%rdi, %rsi
Ltmp2918:
	jmp	LBB22_210
Ltmp2919:
LBB22_153:
	xorl	%r8d, %r8d
	movl	$10, %r9d
Ltmp2920:
LBB22_154:
	movl	%ecx, %edi
	addl	$-48, %edi
	cmpl	$9, %edi
	.loc	12 343 17 is_stmt 1
	ja	LBB22_122
Ltmp2921:
	.loc	12 0 17 is_stmt 0
	xorl	%eax, %eax
	jmp	LBB22_158
Ltmp2922:
	.p2align	4, 0x90
LBB22_156:
	movq	%rdx, %rsi
Ltmp2923:
LBB22_157:
	leal	-48(%rcx), %edi
	cmpl	$10, %edi
	.loc	12 343 17
	jae	LBB22_175
Ltmp2924:
LBB22_158:
	.loc	19 3807 26 is_stmt 1
	mulq	%r9
Ltmp2925:
	movq	%rax, %rcx
Ltmp2926:
	.loc	11 671 13
	movl	%edi, %eax
	seto	%dl
	addq	%rcx, %rax
	setb	%cl
Ltmp2927:
	.loc	8 81 19
	testb	%dl, %dl
	jne	LBB22_122
Ltmp2928:
	testb	%cl, %cl
	jne	LBB22_122
Ltmp2929:
	.loc	5 3440 9
	cmpq	%r10, %rsi
	.loc	5 3570 21
	je	LBB22_122
Ltmp2930:
	.loc	10 165 18
	leaq	1(%rsi), %rdx
Ltmp2931:
	.loc	3 519 13
	movzbl	(%rsi), %ecx
Ltmp2932:
	.loc	3 520 8
	testb	%cl, %cl
	.loc	3 520 5 is_stmt 0
	jns	LBB22_156
Ltmp2933:
	.loc	5 3440 9 is_stmt 1
	cmpq	%r10, %rdx
Ltmp2934:
	.loc	5 3570 21
	je	LBB22_168
Ltmp2935:
	.loc	3 508 15
	movzbl	1(%rsi), %edx
Ltmp2936:
	.loc	10 165 18
	addq	$2, %rsi
Ltmp2937:
	.loc	3 507 5
	andl	$63, %edx
	movl	%ecx, %edi
Ltmp2938:
	.loc	3 0 5 is_stmt 0
	andl	$31, %edi
Ltmp2939:
	.loc	3 530 8 is_stmt 1
	cmpb	$-33, %cl
	.loc	3 530 5 is_stmt 0
	jbe	LBB22_169
Ltmp2940:
LBB22_164:
	.loc	5 3440 9 is_stmt 1
	cmpq	%r10, %rsi
	.loc	5 3570 21
	je	LBB22_170
Ltmp2941:
	.loc	3 508 15
	movzbl	(%rsi), %r11d
Ltmp2942:
	.loc	10 165 18
	incq	%rsi
Ltmp2943:
	.loc	3 507 5
	andl	$63, %r11d
Ltmp2944:
	.loc	3 495 5
	shll	$6, %edx
Ltmp2945:
	orl	%r11d, %edx
Ltmp2946:
	.loc	3 536 12
	cmpb	$-16, %cl
	.loc	3 536 9 is_stmt 0
	jb	LBB22_171
Ltmp2947:
LBB22_166:
	.loc	5 3440 9 is_stmt 1
	cmpq	%r10, %rsi
	.loc	5 3570 21
	je	LBB22_173
Ltmp2948:
	.loc	3 508 15
	movzbl	(%rsi), %ecx
Ltmp2949:
	.loc	10 165 18
	incq	%rsi
Ltmp2950:
	.loc	3 507 5
	andl	$63, %ecx
	jmp	LBB22_174
Ltmp2951:
LBB22_168:
	.loc	3 0 5 is_stmt 0
	xorl	%edx, %edx
Ltmp2952:
	movq	%r10, %rsi
	movl	%ecx, %edi
Ltmp2953:
	andl	$31, %edi
Ltmp2954:
	.loc	3 530 8 is_stmt 1
	cmpb	$-33, %cl
	.loc	3 530 5 is_stmt 0
	ja	LBB22_164
Ltmp2955:
LBB22_169:
	.loc	3 0 5
	shll	$6, %edi
Ltmp2956:
	jmp	LBB22_172
Ltmp2957:
LBB22_170:
	xorl	%r11d, %r11d
	movq	%r10, %rsi
Ltmp2958:
	.loc	3 495 5 is_stmt 1
	shll	$6, %edx
Ltmp2959:
	orl	%r11d, %edx
Ltmp2960:
	.loc	3 536 12
	cmpb	$-16, %cl
	.loc	3 536 9 is_stmt 0
	jae	LBB22_166
Ltmp2961:
LBB22_171:
	.loc	3 0 9
	shll	$12, %edi
Ltmp2962:
LBB22_172:
	orl	%edi, %edx
Ltmp2963:
	movl	%edx, %ecx
Ltmp2964:
	jmp	LBB22_157
Ltmp2965:
LBB22_173:
	xorl	%ecx, %ecx
Ltmp2966:
LBB22_174:
	.loc	3 540 18 is_stmt 1
	andl	$7, %edi
Ltmp2967:
	shll	$18, %edi
Ltmp2968:
	.loc	3 495 5
	shll	$6, %edx
Ltmp2969:
	orl	%edi, %edx
Ltmp2970:
	.loc	3 540 13
	orl	%ecx, %edx
Ltmp2971:
	.loc	3 0 13 is_stmt 0
	movl	%edx, %ecx
Ltmp2972:
	.loc	8 84 17 is_stmt 1
	cmpl	$1114112, %edx
Ltmp2973:
	.loc	8 0 17 is_stmt 0
	jne	LBB22_157
	jmp	LBB22_122
Ltmp2974:
LBB22_175:
	.loc	7 1136 52 is_stmt 1
	testq	%rax, %rax
Ltmp2975:
	.loc	9 505 9
	jne	LBB22_181
Ltmp2976:
LBB22_176:
	.loc	8 93 9
	incq	%r8
Ltmp2977:
	je	LBB22_249
Ltmp2978:
	.loc	8 74 11
	cmpl	$69, %ecx
	jne	LBB22_154
	jmp	LBB22_213
Ltmp2979:
LBB22_178:
	.loc	8 0 11 is_stmt 0
	shll	$6, %esi
Ltmp2980:
LBB22_179:
	orl	%esi, %edi
Ltmp2981:
	movl	%edi, %ecx
Ltmp2982:
LBB22_180:
	.loc	8 72 21 is_stmt 1
	movq	%rdx, %rsi
Ltmp2983:
	.loc	7 1136 52
	decq	%rax
Ltmp2984:
	.loc	9 505 9
	je	LBB22_176
Ltmp2985:
LBB22_181:
	.loc	5 3440 9
	cmpq	%r10, %rsi
	.loc	5 3570 21
	je	LBB22_122
Ltmp2986:
	.loc	10 165 18
	leaq	1(%rsi), %rdx
Ltmp2987:
	.loc	3 519 13
	movzbl	(%rsi), %ecx
Ltmp2988:
	.loc	3 520 8
	testb	%cl, %cl
	.loc	3 520 5 is_stmt 0
	jns	LBB22_180
Ltmp2989:
	.loc	5 3440 9 is_stmt 1
	cmpq	%r10, %rdx
Ltmp2990:
	.loc	5 3570 21
	je	LBB22_185
Ltmp2991:
	.loc	3 508 15
	movzbl	1(%rsi), %edi
Ltmp2992:
	.loc	10 165 18
	addq	$2, %rsi
Ltmp2993:
	.loc	3 507 5
	andl	$63, %edi
Ltmp2994:
	.loc	3 0 0 is_stmt 0
	movq	%rsi, %rdx
Ltmp2995:
	movl	%ecx, %esi
	andl	$31, %esi
Ltmp2996:
	.loc	3 530 8 is_stmt 1
	cmpb	$-33, %cl
	.loc	3 530 5 is_stmt 0
	jbe	LBB22_178
	jmp	LBB22_186
Ltmp2997:
LBB22_185:
	.loc	3 0 5
	xorl	%edi, %edi
	movq	%r10, %rdx
Ltmp2998:
	movl	%ecx, %esi
	andl	$31, %esi
Ltmp2999:
	.loc	3 530 8
	cmpb	$-33, %cl
	.loc	3 530 5
	jbe	LBB22_178
Ltmp3000:
LBB22_186:
	.loc	5 3440 9 is_stmt 1
	cmpq	%r10, %rdx
	.loc	5 3570 21
	je	LBB22_190
Ltmp3001:
	.loc	3 508 15
	movzbl	(%rdx), %r11d
Ltmp3002:
	.loc	10 165 18
	incq	%rdx
Ltmp3003:
	.loc	3 507 5
	andl	$63, %r11d
Ltmp3004:
	.loc	3 495 5
	shll	$6, %edi
Ltmp3005:
	orl	%r11d, %edi
Ltmp3006:
	.loc	3 536 12
	cmpb	$-16, %cl
	.loc	3 536 9 is_stmt 0
	jb	LBB22_191
Ltmp3007:
LBB22_188:
	.loc	5 3440 9 is_stmt 1
	cmpq	%r10, %rdx
	.loc	5 3570 21
	je	LBB22_192
Ltmp3008:
	.loc	3 508 15
	movzbl	(%rdx), %ecx
Ltmp3009:
	.loc	10 165 18
	incq	%rdx
Ltmp3010:
	.loc	3 507 5
	andl	$63, %ecx
	jmp	LBB22_193
Ltmp3011:
LBB22_190:
	.loc	3 0 5 is_stmt 0
	xorl	%r11d, %r11d
	movq	%r10, %rdx
Ltmp3012:
	.loc	3 495 5 is_stmt 1
	shll	$6, %edi
Ltmp3013:
	orl	%r11d, %edi
Ltmp3014:
	.loc	3 536 12
	cmpb	$-16, %cl
	.loc	3 536 9 is_stmt 0
	jae	LBB22_188
Ltmp3015:
LBB22_191:
	.loc	3 0 9
	shll	$12, %esi
Ltmp3016:
	jmp	LBB22_179
Ltmp3017:
LBB22_192:
	xorl	%ecx, %ecx
Ltmp3018:
LBB22_193:
	.loc	3 540 18 is_stmt 1
	andl	$7, %esi
Ltmp3019:
	shll	$18, %esi
Ltmp3020:
	.loc	3 495 5
	shll	$6, %edi
Ltmp3021:
	orl	%esi, %edi
Ltmp3022:
	.loc	3 540 13
	orl	%ecx, %edi
Ltmp3023:
	.loc	3 0 13 is_stmt 0
	movl	%edi, %ecx
Ltmp3024:
	.loc	8 90 17 is_stmt 1
	cmpl	$1114112, %edi
Ltmp3025:
	.loc	8 0 17 is_stmt 0
	jne	LBB22_180
	jmp	LBB22_122
Ltmp3026:
LBB22_194:
	.loc	18 52 11 is_stmt 1
	movq	-64(%rbp), %r10
	.loc	18 52 37 is_stmt 0
	movq	-56(%rbp), %rax
Ltmp3027:
	.loc	5 3090 12 is_stmt 1
	cmpq	%rax, %r10
Ltmp3028:
	.loc	18 53 9
	jbe	LBB22_198
Ltmp3029:
	.loc	18 52 11
	movq	-72(%rbp), %rcx
Ltmp3030:
	.loc	18 53 15
	movb	(%rcx,%rax), %cl
Ltmp3031:
	addb	$-65, %cl
	cmpb	$25, %cl
	ja	LBB22_198
Ltmp3032:
	.loc	18 0 15 is_stmt 0
	leaq	-72(%rbp), %rdi
	.loc	18 54 18 is_stmt 1
	callq	__ZN14rustc_demangle2v06Parser9skip_path17ha4c28c578bd5eb45E
	.loc	18 54 13 is_stmt 0
	testb	%al, %al
	jne	LBB22_139
Ltmp3033:
	.loc	18 61 9 is_stmt 1
	movq	-64(%rbp), %r10
	.loc	18 61 20 is_stmt 0
	movq	-56(%rbp), %rax
Ltmp3034:
LBB22_198:
	.loc	18 61 9
	movq	-72(%rbp), %rsi
	movq	%rsi, -96(%rbp)
	movq	%r10, -88(%rbp)
Ltmp3035:
	.loc	3 2070 18 is_stmt 1
	movq	%rax, -240(%rbp)
	.loc	3 2070 25 is_stmt 0
	movq	%r10, -48(%rbp)
Ltmp3036:
	.loc	3 2326 12 is_stmt 1
	testq	%rax, %rax
	je	LBB22_202
Ltmp3037:
	cmpq	%rax, %r10
	je	LBB22_202
Ltmp3038:
	.loc	3 2330 13
	jbe	LBB22_250
Ltmp3039:
	.loc	3 2332 25
	cmpb	$-65, (%rsi,%rax)
Ltmp3040:
	.loc	3 2033 13
	jle	LBB22_250
Ltmp3041:
LBB22_202:
	.loc	6 164 18
	addq	%rax, %rsi
Ltmp3042:
	.loc	3 2057 23
	subq	%rax, %r10
Ltmp3043:
	.loc	3 0 23 is_stmt 0
	movl	$1, %edx
Ltmp3044:
	movq	-80(%rbp), %r9
Ltmp3045:
	.loc	3 2294 9 is_stmt 1
	testq	%r10, %r10
Ltmp3046:
	.loc	22 101 5
	jne	LBB22_214
Ltmp3047:
LBB22_203:
	.loc	22 0 5 is_stmt 0
	xorl	%r10d, %r10d
	.loc	22 84 22 is_stmt 1
	movq	%rsi, %r14
	jmp	LBB22_145
Ltmp3048:
LBB22_204:
	.loc	22 0 22 is_stmt 0
	shll	$6, %edx
Ltmp3049:
	orl	%edx, %eax
Ltmp3050:
	jmp	LBB22_211
Ltmp3051:
LBB22_207:
	xorl	%r8d, %r8d
	movq	%r10, %rdi
Ltmp3052:
	.loc	3 495 5 is_stmt 1
	shll	$6, %eax
Ltmp3053:
	orl	%r8d, %eax
Ltmp3054:
	.loc	3 536 12
	cmpb	$-16, %cl
	.loc	3 536 9 is_stmt 0
	jae	LBB22_151
Ltmp3055:
LBB22_208:
	.loc	3 0 9
	shll	$12, %edx
Ltmp3056:
	orl	%edx, %eax
Ltmp3057:
	jmp	LBB22_211
Ltmp3058:
LBB22_209:
	xorl	%ecx, %ecx
Ltmp3059:
LBB22_210:
	.loc	3 540 18 is_stmt 1
	andl	$7, %edx
Ltmp3060:
	shll	$18, %edx
Ltmp3061:
	.loc	3 495 5
	shll	$6, %eax
Ltmp3062:
	orl	%edx, %eax
Ltmp3063:
	.loc	3 540 13
	orl	%ecx, %eax
Ltmp3064:
LBB22_211:
	.loc	3 0 13 is_stmt 0
	movl	%eax, %ecx
Ltmp3065:
	.loc	8 73 17 is_stmt 1
	cmpl	$69, %ecx
	jne	LBB22_121
Ltmp3066:
LBB22_212:
	.loc	8 0 17 is_stmt 0
	xorl	%r8d, %r8d
Ltmp3067:
LBB22_213:
	.loc	5 3461 33 is_stmt 1
	subq	%rsi, %r10
Ltmp3068:
	.loc	5 0 33 is_stmt 0
	xorl	%edx, %edx
Ltmp3069:
	movq	%r14, %r9
Ltmp3070:
	.loc	3 2294 9 is_stmt 1
	testq	%r10, %r10
Ltmp3071:
	.loc	22 101 5
	je	LBB22_203
Ltmp3072:
LBB22_214:
	.loc	6 331 9
	leaq	l___unnamed_26(%rip), %rax
	cmpq	%rax, %rsi
Ltmp3073:
	.loc	5 6271 9
	je	LBB22_216
Ltmp3074:
	.loc	5 6276 13
	cmpb	$46, (%rsi)
Ltmp3075:
	.loc	5 1436 9
	jne	LBB22_240
Ltmp3076:
LBB22_216:
	.loc	5 0 9 is_stmt 0
	movq	%rdx, -104(%rbp)
Ltmp3077:
	movq	%r8, -80(%rbp)
Ltmp3078:
	.loc	6 164 18 is_stmt 1
	leaq	(%rsi,%r10), %r11
Ltmp3079:
	.loc	6 0 18 is_stmt 0
	leaq	l___unnamed_44(%rip), %r14
	movq	%rsi, %rdx
	jmp	LBB22_219
Ltmp3080:
	.p2align	4, 0x90
LBB22_217:
	movabsq	$64424509503, %rdi
	btq	%rax, %rdi
	jae	LBB22_237
Ltmp3081:
LBB22_218:
	.loc	5 3440 9 is_stmt 1
	cmpq	%r11, %rdx
	.loc	5 3570 21
	je	LBB22_239
Ltmp3082:
LBB22_219:
	.loc	10 165 18
	leaq	1(%rdx), %rax
Ltmp3083:
	.loc	3 519 13
	movzbl	(%rdx), %ecx
Ltmp3084:
	.loc	3 520 8
	testb	%cl, %cl
	.loc	3 520 5 is_stmt 0
	js	LBB22_221
Ltmp3085:
	.loc	3 0 5
	movq	%rax, %rdx
Ltmp3086:
	jmp	LBB22_233
Ltmp3087:
	.p2align	4, 0x90
LBB22_221:
	.loc	5 3440 9 is_stmt 1
	cmpq	%r11, %rax
Ltmp3088:
	.loc	5 3570 21
	je	LBB22_227
Ltmp3089:
	.loc	3 508 15
	movzbl	1(%rdx), %edi
Ltmp3090:
	.loc	10 165 18
	addq	$2, %rdx
Ltmp3091:
	.loc	3 507 5
	andl	$63, %edi
	movl	%ecx, %eax
	andl	$31, %eax
Ltmp3092:
	.loc	3 530 8
	cmpb	$-33, %cl
	.loc	3 530 5 is_stmt 0
	jbe	LBB22_228
Ltmp3093:
LBB22_223:
	.loc	3 0 5
	movq	%r9, %r8
Ltmp3094:
	.loc	5 3440 9 is_stmt 1
	cmpq	%r11, %rdx
	.loc	5 3570 21
	je	LBB22_229
Ltmp3095:
	.loc	3 508 15
	movzbl	(%rdx), %r9d
Ltmp3096:
	.loc	10 165 18
	incq	%rdx
Ltmp3097:
	.loc	3 507 5
	andl	$63, %r9d
Ltmp3098:
	.loc	3 495 5
	shll	$6, %edi
Ltmp3099:
	orl	%r9d, %edi
Ltmp3100:
	.loc	3 536 12
	cmpb	$-16, %cl
	.loc	3 536 9 is_stmt 0
	jb	LBB22_230
Ltmp3101:
LBB22_225:
	.loc	5 3440 9 is_stmt 1
	cmpq	%r11, %rdx
	movq	%r8, %r9
	.loc	5 3570 21
	je	LBB22_231
Ltmp3102:
	.loc	3 508 15
	movzbl	(%rdx), %ecx
Ltmp3103:
	.loc	10 165 18
	incq	%rdx
Ltmp3104:
	.loc	3 507 5
	andl	$63, %ecx
	jmp	LBB22_232
Ltmp3105:
LBB22_227:
	.loc	3 0 5 is_stmt 0
	xorl	%edi, %edi
	movq	%r11, %rdx
	movl	%ecx, %eax
	andl	$31, %eax
Ltmp3106:
	.loc	3 530 8 is_stmt 1
	cmpb	$-33, %cl
	.loc	3 530 5 is_stmt 0
	ja	LBB22_223
Ltmp3107:
LBB22_228:
	.loc	3 0 5
	shll	$6, %eax
Ltmp3108:
	orl	%eax, %edi
Ltmp3109:
	movl	%edi, %ecx
Ltmp3110:
	jmp	LBB22_233
Ltmp3111:
LBB22_229:
	xorl	%r9d, %r9d
	movq	%r11, %rdx
Ltmp3112:
	.loc	3 495 5 is_stmt 1
	shll	$6, %edi
Ltmp3113:
	orl	%r9d, %edi
Ltmp3114:
	.loc	3 536 12
	cmpb	$-16, %cl
	.loc	3 536 9 is_stmt 0
	jae	LBB22_225
Ltmp3115:
LBB22_230:
	.loc	3 0 9
	shll	$12, %eax
Ltmp3116:
	orl	%eax, %edi
Ltmp3117:
	movl	%edi, %ecx
Ltmp3118:
	movq	%r8, %r9
	jmp	LBB22_233
Ltmp3119:
LBB22_231:
	xorl	%ecx, %ecx
Ltmp3120:
	movq	%r11, %rdx
Ltmp3121:
LBB22_232:
	.loc	3 540 18 is_stmt 1
	andl	$7, %eax
Ltmp3122:
	shll	$18, %eax
Ltmp3123:
	.loc	3 495 5
	shll	$6, %edi
Ltmp3124:
	orl	%eax, %edi
Ltmp3125:
	.loc	3 540 13
	orl	%ecx, %edi
Ltmp3126:
	.loc	3 0 13 is_stmt 0
	movl	%edi, %ecx
Ltmp3127:
	.loc	14 1869 19 is_stmt 1
	cmpl	$1114112, %edi
Ltmp3128:
	je	LBB22_239
Ltmp3129:
	.p2align	4, 0x90
LBB22_233:
	.loc	22 175 9
	leal	-33(%rcx), %eax
	cmpl	$15, %eax
Ltmp3130:
	.loc	22 158 9
	jb	LBB22_218
Ltmp3131:
	.loc	22 0 0 is_stmt 0
	leal	-48(%rcx), %eax
	.loc	22 158 9
	cmpl	$10, %eax
	jb	LBB22_218
Ltmp3132:
	.loc	22 0 0
	movl	%ecx, %eax
	andl	$-33, %eax
	addl	$-65, %eax
	.loc	22 158 9
	cmpl	$26, %eax
	jb	LBB22_218
Ltmp3133:
	.loc	22 175 9 is_stmt 1
	leal	-91(%rcx), %eax
	cmpl	$35, %eax
	jbe	LBB22_217
Ltmp3134:
LBB22_237:
	addl	$-58, %ecx
	cmpl	$7, %ecx
	jb	LBB22_218
Ltmp3135:
	.loc	22 0 9 is_stmt 0
	movl	$2, %edx
	.loc	22 84 22 is_stmt 1
	xorl	%r10d, %r10d
	movq	-80(%rbp), %r8
	jmp	LBB22_145
Ltmp3136:
LBB22_239:
	movq	%rsi, %r14
	movq	-80(%rbp), %r8
	movq	-104(%rbp), %rdx
	jmp	LBB22_145
Ltmp3137:
LBB22_240:
	.loc	22 0 22 is_stmt 0
	leaq	l___unnamed_44(%rip), %r14
	movl	$2, %edx
Ltmp3138:
	xorl	%r10d, %r10d
Ltmp3139:
	jmp	LBB22_145
Ltmp3140:
LBB22_241:
	.loc	4 1332 33 is_stmt 1
	leaq	l___unnamed_108(%rip), %rdx
	movq	%r15, %rdi
	movq	%r8, %rsi
Ltmp3141:
	callq	__ZN4core9panicking18panic_bounds_check17he87128426d100e93E
Ltmp3142:
LBB22_242:
	.loc	4 0 33 is_stmt 0
	leaq	-96(%rbp), %rax
Ltmp3143:
	.loc	11 428 21 is_stmt 1
	movq	%rax, -72(%rbp)
	leaq	-240(%rbp), %rax
	movq	%rax, -64(%rbp)
	leaq	-48(%rbp), %rax
	movq	%rax, -56(%rbp)
	leaq	-72(%rbp), %rdi
	callq	__ZN4core3str6traits105_$LT$impl$u20$core..slice..SliceIndex$LT$str$GT$$u20$for$u20$core..ops..range..RangeFrom$LT$usize$GT$$GT$5index28_$u7b$$u7b$closure$u7d$$u7d$17h6be5bad7675462e3E
Ltmp3144:
LBB22_243:
	.loc	4 0 0 is_stmt 0
	leaq	l___unnamed_109(%rip), %rdx
	movq	%rax, %rsi
	callq	__ZN4core9panicking18panic_bounds_check17he87128426d100e93E
Ltmp3145:
LBB22_244:
	.loc	4 1332 33 is_stmt 1
	leaq	l___unnamed_108(%rip), %rdx
	movq	%r8, %rsi
	callq	__ZN4core9panicking18panic_bounds_check17he87128426d100e93E
Ltmp3146:
LBB22_245:
	.loc	4 1344 33
	leaq	l___unnamed_110(%rip), %rdx
	movq	%rsi, %rdi
Ltmp3147:
	movq	%r8, %rsi
	callq	__ZN4core9panicking18panic_bounds_check17he87128426d100e93E
Ltmp3148:
LBB22_246:
	.loc	4 1344 33 is_stmt 0
	leaq	l___unnamed_110(%rip), %rdx
	movq	%rbx, %rdi
Ltmp3149:
	movq	%r8, %rsi
	callq	__ZN4core9panicking18panic_bounds_check17he87128426d100e93E
Ltmp3150:
LBB22_247:
	.loc	4 0 33
	leaq	-72(%rbp), %rax
Ltmp3151:
	movq	%rax, -216(%rbp)
	leaq	-48(%rbp), %rax
	movq	%rax, -208(%rbp)
	leaq	-96(%rbp), %rax
	movq	%rax, -200(%rbp)
	leaq	-216(%rbp), %rdi
	callq	__ZN4core3str6traits105_$LT$impl$u20$core..slice..SliceIndex$LT$str$GT$$u20$for$u20$core..ops..range..RangeFrom$LT$usize$GT$$GT$5index28_$u7b$$u7b$closure$u7d$$u7d$17h6be5bad7675462e3E
Ltmp3152:
LBB22_248:
	leaq	-216(%rbp), %rdi
Ltmp3153:
	.loc	11 428 21 is_stmt 1
	callq	__ZN4core3str6traits103_$LT$impl$u20$core..slice..SliceIndex$LT$str$GT$$u20$for$u20$core..ops..range..RangeTo$LT$usize$GT$$GT$5index28_$u7b$$u7b$closure$u7d$$u7d$17h7e3253d82a7441adE
Ltmp3154:
LBB22_249:
	.loc	8 93 9
	leaq	_str.0(%rip), %rdi
	leaq	l___unnamed_111(%rip), %rdx
	movl	$28, %esi
Ltmp3155:
	callq	__ZN4core9panicking5panic17h383a6b80ea7021aaE
Ltmp3156:
LBB22_250:
	.loc	8 0 9 is_stmt 0
	leaq	-96(%rbp), %rax
Ltmp3157:
	.loc	11 428 21 is_stmt 1
	movq	%rax, -216(%rbp)
	leaq	-240(%rbp), %rax
	movq	%rax, -208(%rbp)
	leaq	-48(%rbp), %rax
Ltmp3158:
	.loc	22 0 0 is_stmt 0
	movq	%rax, -200(%rbp)
	leaq	-216(%rbp), %rdi
	callq	__ZN4core3str6traits105_$LT$impl$u20$core..slice..SliceIndex$LT$str$GT$$u20$for$u20$core..ops..range..RangeFrom$LT$usize$GT$$GT$5index28_$u7b$$u7b$closure$u7d$$u7d$17h6be5bad7675462e3E
Ltmp3159:
Lfunc_end22:
	.cfi_endproc

	.globl	__ZN14rustc_demangle12try_demangle17h3b05fff41a5b1b08E
	.p2align	4, 0x90
__ZN14rustc_demangle12try_demangle17h3b05fff41a5b1b08E:
Lfunc_begin23:
	.loc	22 138 0 is_stmt 1
	.cfi_startproc
	pushq	%rbp
	.cfi_def_cfa_offset 16
	.cfi_offset %rbp, -16
	movq	%rsp, %rbp
	.cfi_def_cfa_register %rbp
	pushq	%rbx
	subq	$72, %rsp
	.cfi_offset %rbx, -24
	movq	%rdi, %rbx
Ltmp3160:
	leaq	-72(%rbp), %rdi
Ltmp3161:
	.loc	22 139 15 prologue_end
	callq	__ZN14rustc_demangle8demangle17h042ef0a62bcfd038E
Ltmp3162:
	.loc	11 185 25
	cmpq	$2, -72(%rbp)
Ltmp3163:
	.loc	22 140 5
	jne	LBB23_2
	.loc	22 143 9
	movq	$3, (%rbx)
	jmp	LBB23_3
LBB23_2:
	.loc	22 141 12
	movq	-16(%rbp), %rax
	movq	%rax, 56(%rbx)
	movq	-24(%rbp), %rax
	movq	%rax, 48(%rbx)
	movq	-32(%rbp), %rax
	movq	%rax, 40(%rbx)
	movq	-40(%rbp), %rax
	movq	%rax, 32(%rbx)
	movq	-48(%rbp), %rax
	movq	%rax, 24(%rbx)
	movq	-56(%rbp), %rax
	movq	%rax, 16(%rbx)
	movq	-72(%rbp), %rax
	movq	-64(%rbp), %rcx
	movq	%rcx, 8(%rbx)
	movq	%rax, (%rbx)
Ltmp3164:
LBB23_3:
	.loc	22 145 2
	movq	%rbx, %rax
	addq	$72, %rsp
	popq	%rbx
	popq	%rbp
	retq
Ltmp3165:
Lfunc_end23:
	.cfi_endproc

	.globl	__ZN14rustc_demangle8Demangle6as_str17h3b49e0b7df365a38E
	.p2align	4, 0x90
__ZN14rustc_demangle8Demangle6as_str17h3b49e0b7df365a38E:
Lfunc_begin24:
	.loc	22 149 0
	.cfi_startproc
	pushq	%rbp
	.cfi_def_cfa_offset 16
	.cfi_offset %rbp, -16
	movq	%rsp, %rbp
	.cfi_def_cfa_register %rbp
Ltmp3166:
	.loc	22 150 9 prologue_end
	movq	32(%rdi), %rax
	movq	40(%rdi), %rdx
	.loc	22 151 6
	popq	%rbp
	retq
Ltmp3167:
Lfunc_end24:
	.cfi_endproc

	.globl	__ZN63_$LT$rustc_demangle..Demangle$u20$as$u20$core..fmt..Display$GT$3fmt17h10e1a67190df1ef9E
	.p2align	4, 0x90
__ZN63_$LT$rustc_demangle..Demangle$u20$as$u20$core..fmt..Display$GT$3fmt17h10e1a67190df1ef9E:
Lfunc_begin25:
	.loc	22 184 0
	.cfi_startproc
	pushq	%rbp
	.cfi_def_cfa_offset 16
	.cfi_offset %rbp, -16
	movq	%rsp, %rbp
	.cfi_def_cfa_register %rbp
	pushq	%r14
	pushq	%rbx
	subq	$48, %rsp
	.cfi_offset %rbx, -32
	.cfi_offset %r14, -24
	movq	%rsi, %r14
	movq	%rdi, %rbx
Ltmp3168:
	.loc	22 186 13 prologue_end
	movq	(%rdi), %rax
	cmpq	$2, %rax
	jne	LBB25_1
Ltmp3169:
	.loc	22 186 38 is_stmt 0
	movq	32(%rbx), %rsi
	movq	40(%rbx), %rdx
	.loc	22 186 26
	movq	%r14, %rdi
	callq	__ZN4core3fmt9Formatter9write_str17h98e119ad25a8903eE
	.loc	22 0 0
	movl	%eax, %ecx
	movb	$1, %al
	testb	%cl, %cl
	je	LBB25_7
	jmp	LBB25_5
Ltmp3170:
LBB25_1:
	leaq	8(%rbx), %rdi
	.loc	22 187 18 is_stmt 1
	cmpl	$1, %eax
	jne	LBB25_6
Ltmp3171:
	.loc	18 68 22
	movups	(%rdi), %xmm0
	.loc	18 66 27
	movaps	%xmm0, -64(%rbp)
	movq	$0, -48(%rbp)
	movq	%r14, -40(%rbp)
	movl	$0, -32(%rbp)
	leaq	-64(%rbp), %rdi
Ltmp3172:
	.loc	18 74 9
	movl	$1, %esi
	callq	__ZN14rustc_demangle2v07Printer10print_path17h584adfcc206070e5E
Ltmp3173:
	.loc	22 0 0 is_stmt 0
	movl	%eax, %ecx
	movb	$1, %al
	testb	%cl, %cl
	je	LBB25_7
	jmp	LBB25_5
Ltmp3174:
LBB25_6:
	.loc	22 188 22 is_stmt 1
	movq	%r14, %rsi
	callq	__ZN71_$LT$rustc_demangle..legacy..Demangle$u20$as$u20$core..fmt..Display$GT$3fmt17h1eee93ee66a8c144E
Ltmp3175:
	.loc	22 0 0 is_stmt 0
	movl	%eax, %ecx
	movb	$1, %al
	testb	%cl, %cl
	jne	LBB25_5
Ltmp3176:
LBB25_7:
	.loc	22 194 21 is_stmt 1
	movq	48(%rbx), %rsi
	movq	56(%rbx), %rdx
	.loc	22 194 9 is_stmt 0
	movq	%r14, %rdi
	callq	__ZN4core3fmt9Formatter9write_str17h98e119ad25a8903eE
Ltmp3177:
LBB25_5:
	.loc	22 195 6 is_stmt 1
	addq	$48, %rsp
	popq	%rbx
Ltmp3178:
	popq	%r14
Ltmp3179:
	popq	%rbp
	retq
Ltmp3180:
Lfunc_end25:
	.cfi_endproc

	.globl	__ZN61_$LT$rustc_demangle..Demangle$u20$as$u20$core..fmt..Debug$GT$3fmt17h87a80c1371d3cf58E
	.p2align	4, 0x90
__ZN61_$LT$rustc_demangle..Demangle$u20$as$u20$core..fmt..Debug$GT$3fmt17h87a80c1371d3cf58E:
Lfunc_begin26:
	.loc	22 199 0
	.cfi_startproc
	pushq	%rbp
	.cfi_def_cfa_offset 16
	.cfi_offset %rbp, -16
	movq	%rsp, %rbp
	.cfi_def_cfa_register %rbp
	pushq	%r14
	pushq	%rbx
	subq	$48, %rsp
	.cfi_offset %rbx, -32
	.cfi_offset %r14, -24
	movq	%rsi, %r14
	movq	%rdi, %rbx
Ltmp3181:
	.loc	22 186 13 prologue_end
	movq	(%rdi), %rax
	cmpq	$2, %rax
	jne	LBB26_1
Ltmp3182:
	.loc	22 186 38 is_stmt 0
	movq	32(%rbx), %rsi
	movq	40(%rbx), %rdx
	.loc	22 186 26
	movq	%r14, %rdi
	callq	__ZN4core3fmt9Formatter9write_str17h98e119ad25a8903eE
	.loc	22 0 0
	movl	%eax, %ecx
	movb	$1, %al
	testb	%cl, %cl
	je	LBB26_6
	jmp	LBB26_7
Ltmp3183:
LBB26_1:
	leaq	8(%rbx), %rdi
	.loc	22 187 18 is_stmt 1
	cmpl	$1, %eax
	jne	LBB26_4
Ltmp3184:
	.loc	18 68 22
	movups	(%rdi), %xmm0
	.loc	18 66 27
	movaps	%xmm0, -64(%rbp)
	movq	$0, -48(%rbp)
	movq	%r14, -40(%rbp)
	movl	$0, -32(%rbp)
	leaq	-64(%rbp), %rdi
Ltmp3185:
	.loc	18 74 9
	movl	$1, %esi
	callq	__ZN14rustc_demangle2v07Printer10print_path17h584adfcc206070e5E
Ltmp3186:
	.loc	22 0 0 is_stmt 0
	movl	%eax, %ecx
	movb	$1, %al
	testb	%cl, %cl
	je	LBB26_6
	jmp	LBB26_7
Ltmp3187:
LBB26_4:
	.loc	22 188 22 is_stmt 1
	movq	%r14, %rsi
	callq	__ZN71_$LT$rustc_demangle..legacy..Demangle$u20$as$u20$core..fmt..Display$GT$3fmt17h1eee93ee66a8c144E
Ltmp3188:
	.loc	22 0 0 is_stmt 0
	movl	%eax, %ecx
	movb	$1, %al
	testb	%cl, %cl
	jne	LBB26_7
Ltmp3189:
LBB26_6:
	.loc	22 194 21 is_stmt 1
	movq	48(%rbx), %rsi
	movq	56(%rbx), %rdx
	.loc	22 194 9 is_stmt 0
	movq	%r14, %rdi
	callq	__ZN4core3fmt9Formatter9write_str17h98e119ad25a8903eE
Ltmp3190:
LBB26_7:
	.loc	22 201 6 is_stmt 1
	addq	$48, %rsp
	popq	%rbx
Ltmp3191:
	popq	%r14
Ltmp3192:
	popq	%rbp
	retq
Ltmp3193:
Lfunc_end26:
	.cfi_endproc

	.globl	__ZN69_$LT$rustc_demangle..TryDemangleError$u20$as$u20$core..fmt..Debug$GT$3fmt17h41406c3097a4a427E
	.p2align	4, 0x90
__ZN69_$LT$rustc_demangle..TryDemangleError$u20$as$u20$core..fmt..Debug$GT$3fmt17h41406c3097a4a427E:
Lfunc_begin27:
	.loc	22 119 0
	.cfi_startproc
	pushq	%rbp
	.cfi_def_cfa_offset 16
	.cfi_offset %rbp, -16
	movq	%rsp, %rbp
	.cfi_def_cfa_register %rbp
	pushq	%r14
	pushq	%rbx
	subq	$32, %rsp
	.cfi_offset %rbx, -32
	.cfi_offset %r14, -24
	movq	%rdi, %rbx
Ltmp3194:
	.loc	22 119 10 prologue_end
	leaq	L___unnamed_112(%rip), %rdx
	leaq	-40(%rbp), %r14
	movl	$16, %ecx
	movq	%r14, %rdi
	callq	__ZN4core3fmt9Formatter12debug_struct17ha1a64e91d2a98458E
Ltmp3195:
	.loc	22 121 5
	movq	%rbx, -24(%rbp)
	.loc	22 119 10
	leaq	l___unnamed_113(%rip), %rsi
	leaq	l___unnamed_2(%rip), %r8
	leaq	-24(%rbp), %rcx
	movl	$5, %edx
	movq	%r14, %rdi
	callq	__ZN4core3fmt8builders11DebugStruct5field17h6c54d35ac41bb1e6E
	movq	%r14, %rdi
	callq	__ZN4core3fmt8builders11DebugStruct6finish17h67ed49fd5e81bb24E
Ltmp3196:
	.loc	22 119 15 is_stmt 0
	addq	$32, %rsp
	popq	%rbx
Ltmp3197:
	popq	%r14
	popq	%rbp
	retq
Ltmp3198:
Lfunc_end27:
	.cfi_endproc

	.section	__TEXT,__const
l___unnamed_3:
	.ascii	"()"

l___unnamed_114:
	.ascii	"/rustc/6c8927b0cf80ceee19386026cf9d7fd4fd9d486f/src/libcore/str/mod.rs"

	.section	__DATA,__const
	.p2align	3
l___unnamed_4:
	.quad	l___unnamed_114
	.asciz	"F\000\000\000\000\000\000\000\206\007\000\000/\000\000"

	.p2align	3
l___unnamed_5:
	.quad	l___unnamed_114
	.asciz	"F\000\000\000\000\000\000\000\316\007\000\000/\000\000"

	.p2align	3
l___unnamed_6:
	.quad	l___unnamed_114
	.asciz	"F\000\000\000\000\000\000\000\027\b\000\000/\000\000"

	.section	__TEXT,__const
l___unnamed_115:
	.ascii	"/rustc/6c8927b0cf80ceee19386026cf9d7fd4fd9d486f/src/libcore/str/pattern.rs"

	.section	__DATA,__const
	.p2align	3
l___unnamed_108:
	.quad	l___unnamed_115
	.asciz	"J\000\000\000\000\000\000\0004\005\000\000!\000\000"

	.p2align	3
l___unnamed_109:
	.quad	l___unnamed_115
	.asciz	"J\000\000\000\000\000\000\000@\005\000\000\024\000\000"

	.p2align	3
l___unnamed_110:
	.quad	l___unnamed_115
	.asciz	"J\000\000\000\000\000\000\000@\005\000\000!\000\000"

	.section	__TEXT,__const
l___unnamed_27:
	.ascii	"called `Option::unwrap()` on a `None` value"

l___unnamed_30:
	.ascii	"called `Result::unwrap()` on an `Err` value"

	.section	__DATA,__const
	.p2align	3
l___unnamed_1:
	.quad	__ZN4core3ptr13drop_in_place17h2b4714f12cabc912E
	.quad	1
	.quad	1
	.quad	__ZN61_$LT$core..num..ParseIntError$u20$as$u20$core..fmt..Debug$GT$3fmt17h0d00db8c35397686E

	.p2align	3
l___unnamed_7:
	.quad	l___unnamed_115
	.asciz	"J\000\000\000\000\000\000\000\260\001\000\000&\000\000"

	.section	__TEXT,__const
l___unnamed_102:
	.ascii	"_ZN"

l___unnamed_116:
	.ascii	"/Users/yingyuhang/.cargo/registry/src/github.com-1ecc6299db9ec823/rustc-demangle-0.1.16/src/legacy.rs"

l___unnamed_103:
	.ascii	"ZN"

	.section	__TEXT,__literal4,4byte_literals
L___unnamed_104:
	.ascii	"__ZN"

	.section	__DATA,__const
	.p2align	3
l___unnamed_111:
	.quad	l___unnamed_116
	.asciz	"e\000\000\000\000\000\000\000]\000\000\000\t\000\000"

	.section	__TEXT,__const
	.p2align	4
_str.0:
	.ascii	"attempt to add with overflow"

	.section	__DATA,__const
	.p2align	3
l___unnamed_28:
	.quad	l___unnamed_116
	.asciz	"e\000\000\000\000\000\000\000q\000\000\000'\000\000"

	.p2align	3
l___unnamed_29:
	.quad	l___unnamed_116
	.asciz	"e\000\000\000\000\000\000\000t\000\000\000$\000\000"

	.section	__TEXT,__const
	.p2align	4
_str.1:
	.ascii	"attempt to subtract with overflow"

	.section	__DATA,__const
	.p2align	3
l___unnamed_31:
	.quad	l___unnamed_116
	.asciz	"e\000\000\000\000\000\000\000t\000\000\000H\000\000"

	.p2align	3
l___unnamed_34:
	.quad	l___unnamed_116
	.asciz	"e\000\000\000\000\000\000\000y\000\000\000!\000\000"

	.section	__TEXT,__const
l___unnamed_8:
	.space	2,58

l___unnamed_9:
	.ascii	"_$"

l___unnamed_26:
	.byte	46

	.section	__DATA,__const
	.p2align	3
l___unnamed_32:
	.quad	l___unnamed_116
	.asciz	"e\000\000\000\000\000\000\000\215\000\000\000#\000\000"

	.p2align	3
l___unnamed_33:
	.quad	l___unnamed_116
	.asciz	"e\000\000\000\000\000\000\000\215\000\000\0003\000\000"

	.section	__TEXT,__const
l___unnamed_11:
	.ascii	"SP"

l___unnamed_10:
	.byte	64

l___unnamed_13:
	.ascii	"BP"

l___unnamed_12:
	.byte	42

l___unnamed_15:
	.ascii	"RF"

l___unnamed_14:
	.byte	38

l___unnamed_17:
	.ascii	"LT"

l___unnamed_16:
	.byte	60

l___unnamed_19:
	.ascii	"GT"

l___unnamed_18:
	.byte	62

l___unnamed_21:
	.ascii	"LP"

l___unnamed_20:
	.byte	40

l___unnamed_23:
	.ascii	"RP"

l___unnamed_22:
	.byte	41

l___unnamed_25:
	.byte	67

l___unnamed_24:
	.byte	44

l___unnamed_105:
	.ascii	"_R"

l___unnamed_117:
	.ascii	"/Users/yingyuhang/.cargo/registry/src/github.com-1ecc6299db9ec823/rustc-demangle-0.1.16/src/v0.rs"

l___unnamed_106:
	.byte	82

l___unnamed_107:
	.ascii	"__R"

	.section	__DATA,__const
	.p2align	3
l___unnamed_39:
	.quad	l___unnamed_117
	.asciz	"a\000\000\000\000\000\000\000m\000\000\000\032\000\000"

	.p2align	3
l___unnamed_41:
	.quad	l___unnamed_117
	.asciz	"a\000\000\000\000\000\000\000r\000\000\000\r\000\000"

	.p2align	3
l___unnamed_38:
	.quad	l___unnamed_117
	.asciz	"a\000\000\000\000\000\000\000\243\000\000\000\021\000\000"

	.p2align	3
l___unnamed_42:
	.quad	l___unnamed_117
	.asciz	"a\000\000\000\000\000\000\000\317\000\000\000\r\000\000"

	.p2align	3
l___unnamed_40:
	.quad	l___unnamed_117
	.asciz	"a\000\000\000\000\000\000\000\323\000\000\000\021\000\000"

	.p2align	3
l___unnamed_43:
	.quad	l___unnamed_117
	.asciz	"a\000\000\000\000\000\000\000\325\000\000\000\024\000\000"

	.section	__TEXT,__const
l___unnamed_35:
	.ascii	"punycode{"

l___unnamed_36:
	.byte	45

l___unnamed_37:
	.byte	125

l___unnamed_81:
	.space	3,46

l___unnamed_49:
	.byte	95

l___unnamed_76:
	.byte	33

l___unnamed_65:
	.ascii	"f64"

l___unnamed_75:
	.ascii	"f32"

l___unnamed_63:
	.ascii	"usize"

	.section	__TEXT,__literal4,4byte_literals
L___unnamed_69:
	.ascii	"u128"

	.section	__TEXT,__const
l___unnamed_72:
	.ascii	"u64"

l___unnamed_80:
	.ascii	"u32"

l___unnamed_66:
	.ascii	"u16"

l___unnamed_79:
	.ascii	"u8"

l___unnamed_78:
	.ascii	"isize"

	.section	__TEXT,__literal4,4byte_literals
L___unnamed_64:
	.ascii	"i128"

	.section	__TEXT,__const
l___unnamed_68:
	.ascii	"i64"

l___unnamed_71:
	.ascii	"i32"

l___unnamed_73:
	.ascii	"i16"

l___unnamed_67:
	.ascii	"i8"

l___unnamed_74:
	.ascii	"str"

	.section	__TEXT,__literal4,4byte_literals
L___unnamed_70:
	.ascii	"char"

L___unnamed_60:
	.ascii	"bool"

	.section	__DATA,__const
	.p2align	3
l___unnamed_46:
	.quad	l___unnamed_117
	.asciz	"a\000\000\000\000\000\000\000p\001\000\000\027\000\000"

	.p2align	3
l___unnamed_45:
	.quad	l___unnamed_117
	.asciz	"a\000\000\000\000\000\000\000\231\001\000\000&\000\000"

	.section	__TEXT,__const
l___unnamed_44:
	.byte	0

l___unnamed_47:
	.byte	39

l___unnamed_48:
	.byte	63

	.section	__TEXT,__literal4,4byte_literals
L___unnamed_84:
	.ascii	"for<"

	.section	__TEXT,__const
l___unnamed_50:
	.ascii	", "

	.section	__DATA,__const
	.p2align	3
l___unnamed_89:
	.quad	l___unnamed_117
	.asciz	"a\000\000\000\000\000\000\000\213\002\000\000\021\000\000"

	.section	__TEXT,__const
l___unnamed_86:
	.ascii	"> "

	.section	__DATA,__const
	.p2align	3
l___unnamed_87:
	.quad	l___unnamed_117
	.asciz	"a\000\000\000\000\000\000\000\224\002\000\000\t\000\000"

	.p2align	3
l___unnamed_59:
	.quad	l___unnamed_117
	.asciz	"a\000\000\000\000\000\000\000\245\002\000\000\r\000\000"

	.section	__TEXT,__literal4,4byte_literals
L___unnamed_53:
	.ascii	" as "

	.section	__TEXT,__const
l___unnamed_54:
	.ascii	"::{"

	.section	__TEXT,__literal4,4byte_literals
L___unnamed_55:
	.ascii	"shim"

	.section	__TEXT,__const
l___unnamed_56:
	.ascii	"closure"

l___unnamed_57:
	.byte	58

l___unnamed_58:
	.byte	35

l___unnamed_51:
	.byte	91

l___unnamed_52:
	.byte	93

	.section	__TEXT,__literal4,4byte_literals
L___unnamed_77:
	.ascii	"dyn "

	.section	__TEXT,__const
l___unnamed_83:
	.ascii	" + "

l___unnamed_61:
	.ascii	"; "

	.section	__TEXT,__literal4,4byte_literals
L___unnamed_82:
	.ascii	"mut "

	.section	__TEXT,__const
l___unnamed_62:
	.ascii	"const "

l___unnamed_85:
	.byte	32

l___unnamed_90:
	.ascii	"unsafe "

	.section	__TEXT,__literal8,8byte_literals
L___unnamed_91:
	.ascii	"extern \""

	.section	__DATA,__const
	.p2align	3
l___unnamed_95:
	.quad	l___unnamed_117
	.asciz	"a\000\000\000\000\000\000\000T\003\000\000>\000\000"

	.section	__TEXT,__const
l___unnamed_92:
	.ascii	"\" "

l___unnamed_93:
	.ascii	"fn("

	.section	__TEXT,__literal4,4byte_literals
L___unnamed_94:
	.ascii	" -> "

	.section	__DATA,__const
	.p2align	3
l___unnamed_88:
	.quad	l___unnamed_117
	.asciz	"a\000\000\000\000\000\000\000\201\003\000\0003\000\000"

	.section	__TEXT,__const
l___unnamed_96:
	.ascii	" = "

l___unnamed_98:
	.ascii	": "

l___unnamed_97:
	.ascii	"0x"

	.section	__DATA,__const
	.p2align	3
l___unnamed_99:
	.quad	l___unnamed_117
	.asciz	"a\000\000\000\000\000\000\000\334\003\000\000,\000\000"

	.section	__TEXT,__const
l___unnamed_100:
	.ascii	".llvm."

l___unnamed_118:
	.ascii	"/Users/yingyuhang/.cargo/registry/src/github.com-1ecc6299db9ec823/rustc-demangle-0.1.16/src/lib.rs"

	.section	__DATA,__const
	.p2align	3
l___unnamed_101:
	.quad	l___unnamed_118
	.asciz	"b\000\000\000\000\000\000\000G\000\000\000\034\000\000"

	.section	__TEXT,__literal16,16byte_literals
L___unnamed_112:
	.ascii	"TryDemangleError"

	.section	__TEXT,__const
l___unnamed_113:
	.ascii	"_priv"

	.section	__DATA,__const
	.p2align	3
l___unnamed_2:
	.quad	__ZN4core3ptr13drop_in_place17h2b4714f12cabc912E
	.quad	8
	.quad	8
	.quad	__ZN42_$LT$$RF$T$u20$as$u20$core..fmt..Debug$GT$3fmt17h9c3ea883c3eb0116E
