	.section	__TEXT,__text,regular,pure_instructions
	.macosx_version_min 10, 7
	.file	1 "/Users/yingyuhang/.cargo/registry/src/github.com-1ecc6299db9ec823/serde-1.0.114/src/de/impls.rs"
	.p2align	4, 0x90
__ZN36_$LT$T$u20$as$u20$core..any..Any$GT$7type_id17hf5a9b9229e75aa80E:
Lfunc_begin0:
	.file	2 "/rustc/a74d1862d4d87a56244958416fd05976c58ca1a8/src/libcore/any.rs"
	.loc	2 109 0
	.cfi_startproc
	pushq	%rbp
	.cfi_def_cfa_offset 16
	.cfi_offset %rbp, -16
	movq	%rsp, %rbp
	.cfi_def_cfa_register %rbp
	movabsq	$1229646359891580772, %rax
Ltmp0:
	.loc	2 111 6 prologue_end
	popq	%rbp
	retq
Ltmp1:
Lfunc_end0:
	.cfi_endproc

	.p2align	4, 0x90
__ZN3std9panicking11begin_panic17h89578f1f343d82d3E:
Lfunc_begin1:
	.file	3 "/rustc/a74d1862d4d87a56244958416fd05976c58ca1a8/src/libstd/panicking.rs"
	.loc	3 399 0
	.cfi_startproc
	pushq	%rbp
	.cfi_def_cfa_offset 16
	.cfi_offset %rbp, -16
	movq	%rsp, %rbp
	.cfi_def_cfa_register %rbp
	subq	$16, %rsp
Ltmp2:
	.loc	3 404 31 prologue_end
	movq	%rdi, -16(%rbp)
	movq	%rsi, -8(%rbp)
	.loc	3 404 61 is_stmt 0
	movq	%rdx, %rdi
Ltmp3:
	callq	__ZN4core5panic8Location6caller17hf55c9a52d6249cfcE
Ltmp4:
	.loc	3 404 5
	leaq	l___unnamed_1(%rip), %rsi
	leaq	-16(%rbp), %rdi
	xorl	%edx, %edx
	movq	%rax, %rcx
	callq	__ZN3std9panicking20rust_panic_with_hook17hf8b9378dd2e7986aE
Ltmp5:
Lfunc_end1:
	.cfi_endproc

	.p2align	4, 0x90
__ZN42_$LT$$RF$T$u20$as$u20$core..fmt..Debug$GT$3fmt17h0689247bae46160aE:
Lfunc_begin2:
	.file	4 "/rustc/a74d1862d4d87a56244958416fd05976c58ca1a8/src/libcore/fmt/mod.rs"
	.loc	4 1973 0 is_stmt 1
	.cfi_startproc
	pushq	%rbp
	.cfi_def_cfa_offset 16
	.cfi_offset %rbp, -16
	movq	%rsp, %rbp
	.cfi_def_cfa_register %rbp
	movq	%rsi, %rdx
Ltmp6:
	.loc	4 1973 71 prologue_end
	movq	(%rdi), %rax
	.loc	4 1973 62 is_stmt 0
	movq	(%rax), %rdi
Ltmp7:
	movq	8(%rax), %rsi
Ltmp8:
	.file	5 "/rustc/a74d1862d4d87a56244958416fd05976c58ca1a8/src/liballoc/boxed.rs"
	.loc	5 931 9 is_stmt 1
	popq	%rbp
	jmp	__ZN40_$LT$str$u20$as$u20$core..fmt..Debug$GT$3fmt17h2760aab2290546fcE
Ltmp9:
Lfunc_end2:
	.cfi_endproc

	.p2align	4, 0x90
__ZN42_$LT$$RF$T$u20$as$u20$core..fmt..Debug$GT$3fmt17h15ff0d07bf7769f1E:
Lfunc_begin3:
	.loc	4 1973 0
	.cfi_startproc
	pushq	%rbp
	.cfi_def_cfa_offset 16
	.cfi_offset %rbp, -16
	movq	%rsp, %rbp
	.cfi_def_cfa_register %rbp
Ltmp10:
	.loc	4 1973 71 prologue_end
	movq	(%rdi), %rdi
Ltmp11:
	.loc	4 1973 62 is_stmt 0
	popq	%rbp
	jmp	__ZN41_$LT$char$u20$as$u20$core..fmt..Debug$GT$3fmt17haa902be045284592E
Ltmp12:
Lfunc_end3:
	.cfi_endproc

	.p2align	4, 0x90
__ZN42_$LT$$RF$T$u20$as$u20$core..fmt..Debug$GT$3fmt17h28dfd00cd55c9844E:
Lfunc_begin4:
	.loc	4 1973 0 is_stmt 1
	.cfi_startproc
	pushq	%rbp
	.cfi_def_cfa_offset 16
	.cfi_offset %rbp, -16
	movq	%rsp, %rbp
	.cfi_def_cfa_register %rbp
	movq	%rsi, %rdx
Ltmp13:
	.loc	4 1973 71 prologue_end
	movq	(%rdi), %rax
Ltmp14:
	.file	6 "/rustc/a74d1862d4d87a56244958416fd05976c58ca1a8/src/liballoc/vec.rs"
	.loc	6 814 19
	movq	(%rax), %rdi
Ltmp15:
	.loc	6 1966 55
	movq	16(%rax), %rsi
Ltmp16:
	.file	7 "/rustc/a74d1862d4d87a56244958416fd05976c58ca1a8/src/liballoc/string.rs"
	.loc	7 1946 9
	popq	%rbp
	jmp	__ZN40_$LT$str$u20$as$u20$core..fmt..Debug$GT$3fmt17h2760aab2290546fcE
Ltmp17:
Lfunc_end4:
	.cfi_endproc

	.p2align	4, 0x90
__ZN42_$LT$$RF$T$u20$as$u20$core..fmt..Debug$GT$3fmt17h31a09e9577274ca4E:
Lfunc_begin5:
	.loc	4 1973 0
	.cfi_startproc
	pushq	%rbp
	.cfi_def_cfa_offset 16
	.cfi_offset %rbp, -16
	movq	%rsp, %rbp
	.cfi_def_cfa_register %rbp
Ltmp18:
	pushq	%r15
	pushq	%r14
	pushq	%r13
	pushq	%r12
	pushq	%rbx
	subq	$24, %rsp
	.cfi_offset %rbx, -56
	.cfi_offset %r12, -48
	.cfi_offset %r13, -40
	.cfi_offset %r14, -32
	.cfi_offset %r15, -24
	.loc	4 1973 71 prologue_end
	movq	(%rdi), %rax
Ltmp19:
	.loc	6 814 19
	movq	(%rax), %rbx
Ltmp20:
	.loc	6 1966 55
	movq	16(%rax), %r13
Ltmp21:
	.loc	6 0 55 is_stmt 0
	leaq	-64(%rbp), %rdi
Ltmp22:
	.loc	4 2162 9 is_stmt 1
	callq	__ZN4core3fmt9Formatter10debug_list17hd054f0986422feb9E
Ltmp23:
	.file	8 "/rustc/a74d1862d4d87a56244958416fd05976c58ca1a8/src/libcore/ptr/const_ptr.rs"
	.loc	8 158 9
	shlq	$5, %r13
Ltmp24:
	.file	9 "/rustc/a74d1862d4d87a56244958416fd05976c58ca1a8/src/libcore/slice/mod.rs"
	.loc	9 3303 21
	je	LBB5_3
Ltmp25:
	.loc	9 0 21 is_stmt 0
	leaq	l___unnamed_6(%rip), %r14
	leaq	-64(%rbp), %r15
	leaq	-48(%rbp), %r12
Ltmp26:
	.p2align	4, 0x90
LBB5_2:
	.file	10 "/rustc/a74d1862d4d87a56244958416fd05976c58ca1a8/src/libcore/fmt/builders.rs"
	.loc	10 661 22 is_stmt 1
	movq	%rbx, -48(%rbp)
Ltmp27:
	.loc	10 662 13
	movq	%r15, %rdi
	movq	%r12, %rsi
	movq	%r14, %rdx
	callq	__ZN4core3fmt8builders9DebugList5entry17h5c0dec54538196dfE
Ltmp28:
	.file	11 "/rustc/a74d1862d4d87a56244958416fd05976c58ca1a8/src/libcore/ptr/mut_ptr.rs"
	.loc	11 152 9
	addq	$32, %rbx
Ltmp29:
	.loc	9 3179 9
	addq	$-32, %r13
	.loc	9 3303 21
	jne	LBB5_2
Ltmp30:
LBB5_3:
	.loc	9 0 21 is_stmt 0
	leaq	-64(%rbp), %rdi
	.loc	4 2162 9 is_stmt 1
	callq	__ZN4core3fmt8builders9DebugList6finish17h3635bd6af9b1c5a6E
Ltmp31:
	.loc	4 1973 84
	addq	$24, %rsp
	popq	%rbx
	popq	%r12
	popq	%r13
	popq	%r14
	popq	%r15
	popq	%rbp
	retq
Ltmp32:
Lfunc_end5:
	.cfi_endproc

	.p2align	4, 0x90
__ZN42_$LT$$RF$T$u20$as$u20$core..fmt..Debug$GT$3fmt17h3271aeb33014618eE:
Lfunc_begin6:
	.loc	4 1973 0
	.cfi_startproc
	pushq	%rbp
	.cfi_def_cfa_offset 16
	.cfi_offset %rbp, -16
	movq	%rsp, %rbp
	.cfi_def_cfa_register %rbp
	pushq	%r14
	pushq	%rbx
	.cfi_offset %rbx, -32
	.cfi_offset %r14, -24
	movq	%rsi, %rbx
Ltmp33:
	.loc	4 1973 71 prologue_end
	movq	(%rdi), %r14
Ltmp34:
	.file	12 "/rustc/a74d1862d4d87a56244958416fd05976c58ca1a8/src/libcore/fmt/num.rs"
	.loc	12 149 20
	movq	%rsi, %rdi
Ltmp35:
	callq	__ZN4core3fmt9Formatter15debug_lower_hex17h8530fbaeba13f4d9E
	.loc	12 149 17 is_stmt 0
	testb	%al, %al
	je	LBB6_1
Ltmp36:
	.loc	12 150 21 is_stmt 1
	movq	%r14, %rdi
	movq	%rbx, %rsi
	popq	%rbx
Ltmp37:
	popq	%r14
Ltmp38:
	popq	%rbp
	jmp	__ZN4core3fmt3num52_$LT$impl$u20$core..fmt..LowerHex$u20$for$u20$u8$GT$3fmt17h7701faa643a10c55E
LBB6_1:
Ltmp39:
	.loc	12 151 27
	movq	%rbx, %rdi
	callq	__ZN4core3fmt9Formatter15debug_upper_hex17hf8fda15ec43a1e68E
	.loc	12 154 21
	movq	%r14, %rdi
	movq	%rbx, %rsi
	.loc	12 151 24
	testb	%al, %al
	je	LBB6_4
Ltmp40:
	.loc	12 152 21
	popq	%rbx
Ltmp41:
	popq	%r14
Ltmp42:
	popq	%rbp
	jmp	__ZN4core3fmt3num52_$LT$impl$u20$core..fmt..UpperHex$u20$for$u20$u8$GT$3fmt17ha797e73a900719d8E
LBB6_4:
Ltmp43:
	.loc	12 154 21
	popq	%rbx
Ltmp44:
	popq	%r14
Ltmp45:
	popq	%rbp
	jmp	__ZN4core3fmt3num3imp51_$LT$impl$u20$core..fmt..Display$u20$for$u20$u8$GT$3fmt17h0e89df114e53d66dE
Ltmp46:
Lfunc_end6:
	.cfi_endproc

	.p2align	4, 0x90
__ZN42_$LT$$RF$T$u20$as$u20$core..fmt..Debug$GT$3fmt17h3adcb53d67118848E:
Lfunc_begin7:
	.loc	4 1973 0
	.cfi_startproc
	pushq	%rbp
	.cfi_def_cfa_offset 16
	.cfi_offset %rbp, -16
	movq	%rsp, %rbp
	.cfi_def_cfa_register %rbp
Ltmp47:
	.loc	4 1973 71 prologue_end
	movq	(%rdi), %rax
	.loc	4 1973 62 is_stmt 0
	movq	(%rax), %rdi
Ltmp48:
	.loc	5 931 9 is_stmt 1
	popq	%rbp
	jmp	__ZN74_$LT$serde..private..ser..content..Content$u20$as$u20$core..fmt..Debug$GT$3fmt17hc4b69c1345adf378E
Ltmp49:
Lfunc_end7:
	.cfi_endproc

	.p2align	4, 0x90
__ZN42_$LT$$RF$T$u20$as$u20$core..fmt..Debug$GT$3fmt17h411dff589df30611E:
Lfunc_begin8:
	.loc	4 1973 0
	.cfi_startproc
	pushq	%rbp
	.cfi_def_cfa_offset 16
	.cfi_offset %rbp, -16
	movq	%rsp, %rbp
	.cfi_def_cfa_register %rbp
Ltmp50:
	.loc	4 1973 71 prologue_end
	movq	(%rdi), %rdi
Ltmp51:
	.loc	4 1973 62 is_stmt 0
	popq	%rbp
	jmp	__ZN4core3fmt5float50_$LT$impl$u20$core..fmt..Debug$u20$for$u20$f64$GT$3fmt17h45f97cf93875c48bE
Ltmp52:
Lfunc_end8:
	.cfi_endproc

	.p2align	4, 0x90
__ZN42_$LT$$RF$T$u20$as$u20$core..fmt..Debug$GT$3fmt17h4d8dfc42ada2e56fE:
Lfunc_begin9:
	.loc	4 1973 0 is_stmt 1
	.cfi_startproc
	pushq	%rbp
	.cfi_def_cfa_offset 16
	.cfi_offset %rbp, -16
	movq	%rsp, %rbp
	.cfi_def_cfa_register %rbp
Ltmp53:
	.loc	4 1973 71 prologue_end
	movq	(%rdi), %rdi
Ltmp54:
	.loc	4 1973 62 is_stmt 0
	popq	%rbp
	jmp	__ZN73_$LT$serde..private..de..content..Content$u20$as$u20$core..fmt..Debug$GT$3fmt17hebe9bf3f7ddb365aE
Ltmp55:
Lfunc_end9:
	.cfi_endproc

	.p2align	4, 0x90
__ZN42_$LT$$RF$T$u20$as$u20$core..fmt..Debug$GT$3fmt17h5d66a74483c04a02E:
Lfunc_begin10:
	.loc	4 1973 0 is_stmt 1
	.cfi_startproc
	pushq	%rbp
	.cfi_def_cfa_offset 16
	.cfi_offset %rbp, -16
	movq	%rsp, %rbp
	.cfi_def_cfa_register %rbp
	pushq	%r14
	pushq	%rbx
	.cfi_offset %rbx, -32
	.cfi_offset %r14, -24
	movq	%rsi, %rbx
Ltmp56:
	.loc	4 1973 71 prologue_end
	movq	(%rdi), %r14
Ltmp57:
	.loc	12 149 20
	movq	%rsi, %rdi
Ltmp58:
	callq	__ZN4core3fmt9Formatter15debug_lower_hex17h8530fbaeba13f4d9E
	.loc	12 149 17 is_stmt 0
	testb	%al, %al
	je	LBB10_1
Ltmp59:
	.loc	12 150 21 is_stmt 1
	movq	%r14, %rdi
	movq	%rbx, %rsi
	popq	%rbx
Ltmp60:
	popq	%r14
Ltmp61:
	popq	%rbp
	jmp	__ZN4core3fmt3num53_$LT$impl$u20$core..fmt..LowerHex$u20$for$u20$u64$GT$3fmt17h45355469eb7ddf8bE
LBB10_1:
Ltmp62:
	.loc	12 151 27
	movq	%rbx, %rdi
	callq	__ZN4core3fmt9Formatter15debug_upper_hex17hf8fda15ec43a1e68E
	.loc	12 154 21
	movq	%r14, %rdi
	movq	%rbx, %rsi
	.loc	12 151 24
	testb	%al, %al
	je	LBB10_4
Ltmp63:
	.loc	12 152 21
	popq	%rbx
Ltmp64:
	popq	%r14
Ltmp65:
	popq	%rbp
	jmp	__ZN4core3fmt3num53_$LT$impl$u20$core..fmt..UpperHex$u20$for$u20$u64$GT$3fmt17ha26765e3e26c1816E
LBB10_4:
Ltmp66:
	.loc	12 154 21
	popq	%rbx
Ltmp67:
	popq	%r14
Ltmp68:
	popq	%rbp
	jmp	__ZN4core3fmt3num3imp52_$LT$impl$u20$core..fmt..Display$u20$for$u20$u64$GT$3fmt17hb00db9d5e1e54df6E
Ltmp69:
Lfunc_end10:
	.cfi_endproc

	.p2align	4, 0x90
__ZN42_$LT$$RF$T$u20$as$u20$core..fmt..Debug$GT$3fmt17h5fedd35ffcc1a560E:
Lfunc_begin11:
	.loc	4 1973 0
	.cfi_startproc
	pushq	%rbp
	.cfi_def_cfa_offset 16
	.cfi_offset %rbp, -16
	movq	%rsp, %rbp
	.cfi_def_cfa_register %rbp
	pushq	%r14
	pushq	%rbx
	.cfi_offset %rbx, -32
	.cfi_offset %r14, -24
	movq	%rsi, %rbx
Ltmp70:
	.loc	4 1973 71 prologue_end
	movq	(%rdi), %r14
Ltmp71:
	.loc	12 149 20
	movq	%rsi, %rdi
Ltmp72:
	callq	__ZN4core3fmt9Formatter15debug_lower_hex17h8530fbaeba13f4d9E
	.loc	12 149 17 is_stmt 0
	testb	%al, %al
	je	LBB11_1
Ltmp73:
	.loc	12 150 21 is_stmt 1
	movq	%r14, %rdi
	movq	%rbx, %rsi
	popq	%rbx
Ltmp74:
	popq	%r14
Ltmp75:
	popq	%rbp
	jmp	__ZN4core3fmt3num53_$LT$impl$u20$core..fmt..LowerHex$u20$for$u20$i16$GT$3fmt17h3f851141fadcf5dbE
LBB11_1:
Ltmp76:
	.loc	12 151 27
	movq	%rbx, %rdi
	callq	__ZN4core3fmt9Formatter15debug_upper_hex17hf8fda15ec43a1e68E
	.loc	12 154 21
	movq	%r14, %rdi
	movq	%rbx, %rsi
	.loc	12 151 24
	testb	%al, %al
	je	LBB11_4
Ltmp77:
	.loc	12 152 21
	popq	%rbx
Ltmp78:
	popq	%r14
Ltmp79:
	popq	%rbp
	jmp	__ZN4core3fmt3num53_$LT$impl$u20$core..fmt..UpperHex$u20$for$u20$i16$GT$3fmt17h68fce712c402f58aE
LBB11_4:
Ltmp80:
	.loc	12 154 21
	popq	%rbx
Ltmp81:
	popq	%r14
Ltmp82:
	popq	%rbp
	jmp	__ZN4core3fmt3num3imp52_$LT$impl$u20$core..fmt..Display$u20$for$u20$i16$GT$3fmt17h3a2fa6e453c65d3eE
Ltmp83:
Lfunc_end11:
	.cfi_endproc

	.p2align	4, 0x90
__ZN42_$LT$$RF$T$u20$as$u20$core..fmt..Debug$GT$3fmt17h66af0846fc2a9ed5E:
Lfunc_begin12:
	.loc	4 1973 0
	.cfi_startproc
	pushq	%rbp
	.cfi_def_cfa_offset 16
	.cfi_offset %rbp, -16
	movq	%rsp, %rbp
	.cfi_def_cfa_register %rbp
Ltmp84:
	pushq	%r15
	pushq	%r14
	pushq	%r13
	pushq	%r12
	pushq	%rbx
	subq	$24, %rsp
	.cfi_offset %rbx, -56
	.cfi_offset %r12, -48
	.cfi_offset %r13, -40
	.cfi_offset %r14, -32
	.cfi_offset %r15, -24
	.loc	4 1973 71 prologue_end
	movq	(%rdi), %rax
Ltmp85:
	.loc	6 814 19
	movq	(%rax), %rbx
Ltmp86:
	.loc	6 1966 55
	movq	16(%rax), %r13
Ltmp87:
	.loc	6 0 55 is_stmt 0
	leaq	-64(%rbp), %rdi
Ltmp88:
	.loc	4 2162 9 is_stmt 1
	callq	__ZN4core3fmt9Formatter10debug_list17hd054f0986422feb9E
Ltmp89:
	.loc	9 3179 9
	testq	%r13, %r13
	.loc	9 3303 21
	je	LBB12_3
Ltmp90:
	.loc	9 0 21 is_stmt 0
	leaq	l___unnamed_7(%rip), %r14
	leaq	-64(%rbp), %r15
	leaq	-48(%rbp), %r12
Ltmp91:
	.p2align	4, 0x90
LBB12_2:
	.loc	10 661 22 is_stmt 1
	movq	%rbx, -48(%rbp)
Ltmp92:
	.loc	10 662 13
	movq	%r15, %rdi
	movq	%r12, %rsi
	movq	%r14, %rdx
	callq	__ZN4core3fmt8builders9DebugList5entry17h5c0dec54538196dfE
Ltmp93:
	.loc	11 152 9
	incq	%rbx
Ltmp94:
	.loc	9 3179 9
	decq	%r13
Ltmp95:
	.loc	9 3303 21
	jne	LBB12_2
Ltmp96:
LBB12_3:
	.loc	9 0 21 is_stmt 0
	leaq	-64(%rbp), %rdi
	.loc	4 2162 9 is_stmt 1
	callq	__ZN4core3fmt8builders9DebugList6finish17h3635bd6af9b1c5a6E
Ltmp97:
	.loc	4 1973 84
	addq	$24, %rsp
	popq	%rbx
	popq	%r12
	popq	%r13
	popq	%r14
	popq	%r15
	popq	%rbp
	retq
Ltmp98:
Lfunc_end12:
	.cfi_endproc

	.p2align	4, 0x90
__ZN42_$LT$$RF$T$u20$as$u20$core..fmt..Debug$GT$3fmt17h67efe15667c6fe72E:
Lfunc_begin13:
	.loc	4 1973 0
	.cfi_startproc
	pushq	%rbp
	.cfi_def_cfa_offset 16
	.cfi_offset %rbp, -16
	movq	%rsp, %rbp
	.cfi_def_cfa_register %rbp
Ltmp99:
	pushq	%r15
	pushq	%r14
	pushq	%rbx
	subq	$40, %rsp
	.cfi_offset %rbx, -40
	.cfi_offset %r14, -32
	.cfi_offset %r15, -24
	.loc	4 1973 71 prologue_end
	movq	(%rdi), %rbx
Ltmp100:
	.loc	4 2139 35
	leaq	l___unnamed_33(%rip), %rdx
	leaq	-64(%rbp), %r15
	movq	%r15, %rdi
Ltmp101:
	xorl	%ecx, %ecx
	callq	__ZN4core3fmt9Formatter11debug_tuple17h15ca25ad759edd1cE
Ltmp102:
	.loc	4 2140 24
	movq	%rbx, -32(%rbp)
	addq	$32, %rbx
Ltmp103:
	movq	%rbx, -40(%rbp)
Ltmp104:
	.loc	4 2142 21
	leaq	l___unnamed_6(%rip), %r14
	leaq	-32(%rbp), %rsi
	movq	%r15, %rdi
	movq	%r14, %rdx
	callq	__ZN4core3fmt8builders10DebugTuple5field17hf36121153a94f236E
	leaq	-40(%rbp), %rsi
	movq	%r15, %rdi
	movq	%r14, %rdx
	callq	__ZN4core3fmt8builders10DebugTuple5field17hf36121153a94f236E
	.loc	4 2145 17
	movq	%r15, %rdi
	callq	__ZN4core3fmt8builders10DebugTuple6finish17h68acf09c6f6593f2E
Ltmp105:
	.loc	4 1973 84
	addq	$40, %rsp
	popq	%rbx
Ltmp106:
	popq	%r14
	popq	%r15
	popq	%rbp
	retq
Ltmp107:
Lfunc_end13:
	.cfi_endproc

	.p2align	4, 0x90
__ZN42_$LT$$RF$T$u20$as$u20$core..fmt..Debug$GT$3fmt17h68c17ab46274955fE:
Lfunc_begin14:
	.loc	4 1973 0
	.cfi_startproc
	pushq	%rbp
	.cfi_def_cfa_offset 16
	.cfi_offset %rbp, -16
	movq	%rsp, %rbp
	.cfi_def_cfa_register %rbp
	movq	%rsi, %rdx
Ltmp108:
	.loc	4 1973 71 prologue_end
	movq	(%rdi), %rax
Ltmp109:
	.loc	4 1973 71 is_stmt 0
	movq	(%rax), %rdi
Ltmp110:
	movq	8(%rax), %rsi
	.loc	4 1973 62
	popq	%rbp
	jmp	__ZN40_$LT$str$u20$as$u20$core..fmt..Debug$GT$3fmt17h2760aab2290546fcE
Ltmp111:
Lfunc_end14:
	.cfi_endproc

	.p2align	4, 0x90
__ZN42_$LT$$RF$T$u20$as$u20$core..fmt..Debug$GT$3fmt17h6d166cf5c6a1c65eE:
Lfunc_begin15:
	.loc	4 1973 0 is_stmt 1
	.cfi_startproc
	pushq	%rbp
	.cfi_def_cfa_offset 16
	.cfi_offset %rbp, -16
	movq	%rsp, %rbp
	.cfi_def_cfa_register %rbp
Ltmp112:
	.loc	4 1973 71 prologue_end
	movq	(%rdi), %rax
	.loc	4 1973 62 is_stmt 0
	movq	(%rax), %rdi
Ltmp113:
	.loc	5 931 9 is_stmt 1
	popq	%rbp
	jmp	__ZN73_$LT$serde..private..de..content..Content$u20$as$u20$core..fmt..Debug$GT$3fmt17hebe9bf3f7ddb365aE
Ltmp114:
Lfunc_end15:
	.cfi_endproc

	.p2align	4, 0x90
__ZN42_$LT$$RF$T$u20$as$u20$core..fmt..Debug$GT$3fmt17h808973fe7a2d3d37E:
Lfunc_begin16:
	.loc	4 1973 0
	.cfi_startproc
	pushq	%rbp
	.cfi_def_cfa_offset 16
	.cfi_offset %rbp, -16
	movq	%rsp, %rbp
	.cfi_def_cfa_register %rbp
	pushq	%r14
	pushq	%rbx
	.cfi_offset %rbx, -32
	.cfi_offset %r14, -24
	movq	%rsi, %rbx
Ltmp115:
	.loc	4 1973 71 prologue_end
	movq	(%rdi), %r14
Ltmp116:
	.loc	12 149 20
	movq	%rsi, %rdi
Ltmp117:
	callq	__ZN4core3fmt9Formatter15debug_lower_hex17h8530fbaeba13f4d9E
	.loc	12 149 17 is_stmt 0
	testb	%al, %al
	je	LBB16_1
Ltmp118:
	.loc	12 150 21 is_stmt 1
	movq	%r14, %rdi
	movq	%rbx, %rsi
	popq	%rbx
Ltmp119:
	popq	%r14
Ltmp120:
	popq	%rbp
	jmp	__ZN4core3fmt3num53_$LT$impl$u20$core..fmt..LowerHex$u20$for$u20$u16$GT$3fmt17h4a3e59891cc09bc8E
LBB16_1:
Ltmp121:
	.loc	12 151 27
	movq	%rbx, %rdi
	callq	__ZN4core3fmt9Formatter15debug_upper_hex17hf8fda15ec43a1e68E
	.loc	12 154 21
	movq	%r14, %rdi
	movq	%rbx, %rsi
	.loc	12 151 24
	testb	%al, %al
	je	LBB16_4
Ltmp122:
	.loc	12 152 21
	popq	%rbx
Ltmp123:
	popq	%r14
Ltmp124:
	popq	%rbp
	jmp	__ZN4core3fmt3num53_$LT$impl$u20$core..fmt..UpperHex$u20$for$u20$u16$GT$3fmt17h80b29e32979d60cdE
LBB16_4:
Ltmp125:
	.loc	12 154 21
	popq	%rbx
Ltmp126:
	popq	%r14
Ltmp127:
	popq	%rbp
	jmp	__ZN4core3fmt3num3imp52_$LT$impl$u20$core..fmt..Display$u20$for$u20$u16$GT$3fmt17h7d9582ae70d300cbE
Ltmp128:
Lfunc_end16:
	.cfi_endproc

	.p2align	4, 0x90
__ZN42_$LT$$RF$T$u20$as$u20$core..fmt..Debug$GT$3fmt17h9fc2a87a5cf0fdc3E:
Lfunc_begin17:
	.loc	4 1973 0
	.cfi_startproc
	pushq	%rbp
	.cfi_def_cfa_offset 16
	.cfi_offset %rbp, -16
	movq	%rsp, %rbp
	.cfi_def_cfa_register %rbp
Ltmp129:
	pushq	%r15
	pushq	%r14
	pushq	%rbx
	subq	$40, %rsp
	.cfi_offset %rbx, -40
	.cfi_offset %r14, -32
	.cfi_offset %r15, -24
	.loc	4 1973 71 prologue_end
	movq	(%rdi), %rbx
Ltmp130:
	.loc	4 2139 35
	leaq	l___unnamed_33(%rip), %rdx
	leaq	-64(%rbp), %r15
	movq	%r15, %rdi
Ltmp131:
	xorl	%ecx, %ecx
	callq	__ZN4core3fmt9Formatter11debug_tuple17h15ca25ad759edd1cE
Ltmp132:
	.loc	4 2140 24
	movq	%rbx, -32(%rbp)
	addq	$64, %rbx
Ltmp133:
	movq	%rbx, -40(%rbp)
Ltmp134:
	.loc	4 2142 21
	leaq	l___unnamed_3(%rip), %r14
	leaq	-32(%rbp), %rsi
	movq	%r15, %rdi
	movq	%r14, %rdx
	callq	__ZN4core3fmt8builders10DebugTuple5field17hf36121153a94f236E
	leaq	-40(%rbp), %rsi
	movq	%r15, %rdi
	movq	%r14, %rdx
	callq	__ZN4core3fmt8builders10DebugTuple5field17hf36121153a94f236E
	.loc	4 2145 17
	movq	%r15, %rdi
	callq	__ZN4core3fmt8builders10DebugTuple6finish17h68acf09c6f6593f2E
Ltmp135:
	.loc	4 1973 84
	addq	$40, %rsp
	popq	%rbx
Ltmp136:
	popq	%r14
	popq	%r15
	popq	%rbp
	retq
Ltmp137:
Lfunc_end17:
	.cfi_endproc

	.p2align	4, 0x90
__ZN42_$LT$$RF$T$u20$as$u20$core..fmt..Debug$GT$3fmt17had06e37b9ce15ae5E:
Lfunc_begin18:
	.loc	4 1973 0
	.cfi_startproc
	pushq	%rbp
	.cfi_def_cfa_offset 16
	.cfi_offset %rbp, -16
	movq	%rsp, %rbp
	.cfi_def_cfa_register %rbp
Ltmp138:
	pushq	%r15
	pushq	%r14
	pushq	%r13
	pushq	%r12
	pushq	%rbx
	subq	$24, %rsp
	.cfi_offset %rbx, -56
	.cfi_offset %r12, -48
	.cfi_offset %r13, -40
	.cfi_offset %r14, -32
	.cfi_offset %r15, -24
	.loc	4 1973 71 prologue_end
	movq	(%rdi), %rax
Ltmp139:
	.loc	6 814 19
	movq	(%rax), %rbx
Ltmp140:
	.loc	6 1966 55
	movq	16(%rax), %r13
Ltmp141:
	.loc	6 0 55 is_stmt 0
	leaq	-64(%rbp), %rdi
Ltmp142:
	.loc	4 2162 9 is_stmt 1
	callq	__ZN4core3fmt9Formatter10debug_list17hd054f0986422feb9E
Ltmp143:
	.loc	9 3179 9
	testq	%r13, %r13
	.loc	9 3303 21
	je	LBB18_3
Ltmp144:
	shlq	$7, %r13
Ltmp145:
	.loc	9 0 21 is_stmt 0
	leaq	l___unnamed_4(%rip), %r14
	leaq	-64(%rbp), %r15
	leaq	-48(%rbp), %r12
Ltmp146:
	.p2align	4, 0x90
LBB18_2:
	.loc	10 661 22 is_stmt 1
	movq	%rbx, -48(%rbp)
Ltmp147:
	.file	13 "/rustc/a74d1862d4d87a56244958416fd05976c58ca1a8/src/libcore/ptr/non_null.rs"
	.loc	13 90 9
	subq	$-128, %rbx
Ltmp148:
	.loc	10 662 13
	movq	%r15, %rdi
	movq	%r12, %rsi
	movq	%r14, %rdx
	callq	__ZN4core3fmt8builders9DebugList5entry17h5c0dec54538196dfE
Ltmp149:
	.loc	9 3179 9
	addq	$-128, %r13
	.loc	9 3303 21
	jne	LBB18_2
Ltmp150:
LBB18_3:
	.loc	9 0 21 is_stmt 0
	leaq	-64(%rbp), %rdi
	.loc	4 2162 9 is_stmt 1
	callq	__ZN4core3fmt8builders9DebugList6finish17h3635bd6af9b1c5a6E
Ltmp151:
	.loc	4 1973 84
	addq	$24, %rsp
	popq	%rbx
	popq	%r12
	popq	%r13
	popq	%r14
	popq	%r15
	popq	%rbp
	retq
Ltmp152:
Lfunc_end18:
	.cfi_endproc

	.p2align	4, 0x90
__ZN42_$LT$$RF$T$u20$as$u20$core..fmt..Debug$GT$3fmt17hb65b9b0f6c5e2134E:
Lfunc_begin19:
	.loc	4 1973 0
	.cfi_startproc
	pushq	%rbp
	.cfi_def_cfa_offset 16
	.cfi_offset %rbp, -16
	movq	%rsp, %rbp
	.cfi_def_cfa_register %rbp
Ltmp153:
	pushq	%r15
	pushq	%r14
	pushq	%r13
	pushq	%r12
	pushq	%rbx
	subq	$24, %rsp
	.cfi_offset %rbx, -56
	.cfi_offset %r12, -48
	.cfi_offset %r13, -40
	.cfi_offset %r14, -32
	.cfi_offset %r15, -24
	.loc	4 1973 71 prologue_end
	movq	(%rdi), %rax
Ltmp154:
	.loc	6 814 19
	movq	(%rax), %rbx
Ltmp155:
	.loc	6 1966 55
	movq	16(%rax), %r13
Ltmp156:
	.loc	6 0 55 is_stmt 0
	leaq	-64(%rbp), %rdi
Ltmp157:
	.loc	4 2162 9 is_stmt 1
	callq	__ZN4core3fmt9Formatter10debug_list17hd054f0986422feb9E
Ltmp158:
	.loc	8 158 9
	shlq	$6, %r13
Ltmp159:
	.loc	9 3303 21
	je	LBB19_3
Ltmp160:
	.loc	9 0 21 is_stmt 0
	leaq	l___unnamed_3(%rip), %r14
	leaq	-64(%rbp), %r15
	leaq	-48(%rbp), %r12
Ltmp161:
	.p2align	4, 0x90
LBB19_2:
	.loc	10 661 22 is_stmt 1
	movq	%rbx, -48(%rbp)
Ltmp162:
	.loc	10 662 13
	movq	%r15, %rdi
	movq	%r12, %rsi
	movq	%r14, %rdx
	callq	__ZN4core3fmt8builders9DebugList5entry17h5c0dec54538196dfE
Ltmp163:
	.loc	11 152 9
	addq	$64, %rbx
Ltmp164:
	.loc	9 3179 9
	addq	$-64, %r13
	.loc	9 3303 21
	jne	LBB19_2
Ltmp165:
LBB19_3:
	.loc	9 0 21 is_stmt 0
	leaq	-64(%rbp), %rdi
	.loc	4 2162 9 is_stmt 1
	callq	__ZN4core3fmt8builders9DebugList6finish17h3635bd6af9b1c5a6E
Ltmp166:
	.loc	4 1973 84
	addq	$24, %rsp
	popq	%rbx
	popq	%r12
	popq	%r13
	popq	%r14
	popq	%r15
	popq	%rbp
	retq
Ltmp167:
Lfunc_end19:
	.cfi_endproc

	.p2align	4, 0x90
__ZN42_$LT$$RF$T$u20$as$u20$core..fmt..Debug$GT$3fmt17hb7ad936d844cf0c0E:
Lfunc_begin20:
	.loc	4 1973 0
	.cfi_startproc
	pushq	%rbp
	.cfi_def_cfa_offset 16
	.cfi_offset %rbp, -16
	movq	%rsp, %rbp
	.cfi_def_cfa_register %rbp
	pushq	%r14
	pushq	%rbx
	.cfi_offset %rbx, -32
	.cfi_offset %r14, -24
	movq	%rsi, %rbx
Ltmp168:
	.loc	4 1973 71 prologue_end
	movq	(%rdi), %r14
Ltmp169:
	.loc	12 149 20
	movq	%rsi, %rdi
Ltmp170:
	callq	__ZN4core3fmt9Formatter15debug_lower_hex17h8530fbaeba13f4d9E
	.loc	12 149 17 is_stmt 0
	testb	%al, %al
	je	LBB20_1
Ltmp171:
	.loc	12 150 21 is_stmt 1
	movq	%r14, %rdi
	movq	%rbx, %rsi
	popq	%rbx
Ltmp172:
	popq	%r14
Ltmp173:
	popq	%rbp
	jmp	__ZN4core3fmt3num52_$LT$impl$u20$core..fmt..LowerHex$u20$for$u20$i8$GT$3fmt17h7f7e9f270a5d54c2E
LBB20_1:
Ltmp174:
	.loc	12 151 27
	movq	%rbx, %rdi
	callq	__ZN4core3fmt9Formatter15debug_upper_hex17hf8fda15ec43a1e68E
	.loc	12 154 21
	movq	%r14, %rdi
	movq	%rbx, %rsi
	.loc	12 151 24
	testb	%al, %al
	je	LBB20_4
Ltmp175:
	.loc	12 152 21
	popq	%rbx
Ltmp176:
	popq	%r14
Ltmp177:
	popq	%rbp
	jmp	__ZN4core3fmt3num52_$LT$impl$u20$core..fmt..UpperHex$u20$for$u20$i8$GT$3fmt17hd41115610f011194E
LBB20_4:
Ltmp178:
	.loc	12 154 21
	popq	%rbx
Ltmp179:
	popq	%r14
Ltmp180:
	popq	%rbp
	jmp	__ZN4core3fmt3num3imp51_$LT$impl$u20$core..fmt..Display$u20$for$u20$i8$GT$3fmt17hc80f24a4257c3563E
Ltmp181:
Lfunc_end20:
	.cfi_endproc

	.p2align	4, 0x90
__ZN42_$LT$$RF$T$u20$as$u20$core..fmt..Debug$GT$3fmt17hb80a7b133d9e444aE:
Lfunc_begin21:
	.loc	4 1973 0
	.cfi_startproc
	pushq	%rbp
	.cfi_def_cfa_offset 16
	.cfi_offset %rbp, -16
	movq	%rsp, %rbp
	.cfi_def_cfa_register %rbp
Ltmp182:
	.loc	4 1973 71 prologue_end
	movq	(%rdi), %rdi
Ltmp183:
	.loc	4 1973 62 is_stmt 0
	popq	%rbp
	jmp	__ZN4core3fmt5float50_$LT$impl$u20$core..fmt..Debug$u20$for$u20$f32$GT$3fmt17h1aed94fea29f73c8E
Ltmp184:
Lfunc_end21:
	.cfi_endproc

	.p2align	4, 0x90
__ZN42_$LT$$RF$T$u20$as$u20$core..fmt..Debug$GT$3fmt17hb8bc3cd6ec98248eE:
Lfunc_begin22:
	.loc	4 1973 0 is_stmt 1
	.cfi_startproc
	pushq	%rbp
	.cfi_def_cfa_offset 16
	.cfi_offset %rbp, -16
	movq	%rsp, %rbp
	.cfi_def_cfa_register %rbp
Ltmp185:
	pushq	%r15
	pushq	%r14
	pushq	%r13
	pushq	%r12
	pushq	%rbx
	subq	$24, %rsp
	.cfi_offset %rbx, -56
	.cfi_offset %r12, -48
	.cfi_offset %r13, -40
	.cfi_offset %r14, -32
	.cfi_offset %r15, -24
	.loc	4 1973 71 prologue_end
	movq	(%rdi), %rax
Ltmp186:
	.loc	6 814 19
	movq	(%rax), %r13
Ltmp187:
	.loc	6 1966 55
	movq	16(%rax), %rbx
Ltmp188:
	.loc	6 0 55 is_stmt 0
	leaq	-64(%rbp), %rdi
Ltmp189:
	.loc	4 2162 9 is_stmt 1
	callq	__ZN4core3fmt9Formatter10debug_list17hd054f0986422feb9E
Ltmp190:
	.loc	9 3179 9
	testq	%rbx, %rbx
	.loc	9 3303 21
	je	LBB22_3
Ltmp191:
	shlq	$4, %rbx
Ltmp192:
	leaq	(%rbx,%rbx,4), %rbx
	leaq	l___unnamed_5(%rip), %r14
	leaq	-64(%rbp), %r15
	leaq	-48(%rbp), %r12
Ltmp193:
	.p2align	4, 0x90
LBB22_2:
	.loc	10 661 22
	movq	%r13, -48(%rbp)
Ltmp194:
	.loc	13 90 9
	addq	$80, %r13
Ltmp195:
	.loc	10 662 13
	movq	%r15, %rdi
	movq	%r12, %rsi
	movq	%r14, %rdx
	callq	__ZN4core3fmt8builders9DebugList5entry17h5c0dec54538196dfE
Ltmp196:
	.loc	9 3179 9
	addq	$-80, %rbx
	.loc	9 3303 21
	jne	LBB22_2
Ltmp197:
LBB22_3:
	.loc	9 0 21 is_stmt 0
	leaq	-64(%rbp), %rdi
	.loc	4 2162 9 is_stmt 1
	callq	__ZN4core3fmt8builders9DebugList6finish17h3635bd6af9b1c5a6E
Ltmp198:
	.loc	4 1973 84
	addq	$24, %rsp
	popq	%rbx
	popq	%r12
	popq	%r13
	popq	%r14
	popq	%r15
	popq	%rbp
	retq
Ltmp199:
Lfunc_end22:
	.cfi_endproc

	.p2align	4, 0x90
__ZN42_$LT$$RF$T$u20$as$u20$core..fmt..Debug$GT$3fmt17hc3c6ffe35551f7daE:
Lfunc_begin23:
	.loc	4 1973 0
	.cfi_startproc
	pushq	%rbp
	.cfi_def_cfa_offset 16
	.cfi_offset %rbp, -16
	movq	%rsp, %rbp
	.cfi_def_cfa_register %rbp
Ltmp200:
	pushq	%r15
	pushq	%r14
	pushq	%r13
	pushq	%r12
	pushq	%rbx
	subq	$24, %rsp
	.cfi_offset %rbx, -56
	.cfi_offset %r12, -48
	.cfi_offset %r13, -40
	.cfi_offset %r14, -32
	.cfi_offset %r15, -24
	.loc	4 1973 71 prologue_end
	movq	(%rdi), %rax
	.loc	4 1973 62 is_stmt 0
	movq	(%rax), %rbx
Ltmp201:
	movq	8(%rax), %r13
Ltmp202:
	.loc	4 0 62
	leaq	-64(%rbp), %rdi
Ltmp203:
	.loc	4 2162 9 is_stmt 1
	callq	__ZN4core3fmt9Formatter10debug_list17hd054f0986422feb9E
Ltmp204:
	.loc	9 3179 9
	testq	%r13, %r13
	.loc	9 3303 21
	je	LBB23_3
Ltmp205:
	.loc	9 0 21 is_stmt 0
	leaq	l___unnamed_7(%rip), %r14
	leaq	-64(%rbp), %r15
	leaq	-48(%rbp), %r12
Ltmp206:
	.p2align	4, 0x90
LBB23_2:
	.loc	10 661 22 is_stmt 1
	movq	%rbx, -48(%rbp)
Ltmp207:
	.loc	10 662 13
	movq	%r15, %rdi
	movq	%r12, %rsi
	movq	%r14, %rdx
	callq	__ZN4core3fmt8builders9DebugList5entry17h5c0dec54538196dfE
Ltmp208:
	.loc	11 152 9
	incq	%rbx
Ltmp209:
	.loc	9 3179 9
	decq	%r13
Ltmp210:
	.loc	9 3303 21
	jne	LBB23_2
Ltmp211:
LBB23_3:
	.loc	9 0 21 is_stmt 0
	leaq	-64(%rbp), %rdi
	.loc	4 2162 9 is_stmt 1
	callq	__ZN4core3fmt8builders9DebugList6finish17h3635bd6af9b1c5a6E
Ltmp212:
	.loc	4 1973 84
	addq	$24, %rsp
	popq	%rbx
	popq	%r12
	popq	%r13
	popq	%r14
	popq	%r15
	popq	%rbp
	retq
Ltmp213:
Lfunc_end23:
	.cfi_endproc

	.p2align	4, 0x90
__ZN42_$LT$$RF$T$u20$as$u20$core..fmt..Debug$GT$3fmt17hc7e72ec39eba521dE:
Lfunc_begin24:
	.loc	4 1973 0
	.cfi_startproc
	pushq	%rbp
	.cfi_def_cfa_offset 16
	.cfi_offset %rbp, -16
	movq	%rsp, %rbp
	.cfi_def_cfa_register %rbp
	pushq	%r14
	pushq	%rbx
	.cfi_offset %rbx, -32
	.cfi_offset %r14, -24
	movq	%rsi, %rbx
Ltmp214:
	.loc	4 1973 71 prologue_end
	movq	(%rdi), %r14
Ltmp215:
	.loc	12 149 20
	movq	%rsi, %rdi
Ltmp216:
	callq	__ZN4core3fmt9Formatter15debug_lower_hex17h8530fbaeba13f4d9E
	.loc	12 149 17 is_stmt 0
	testb	%al, %al
	je	LBB24_1
Ltmp217:
	.loc	12 150 21 is_stmt 1
	movq	%r14, %rdi
	movq	%rbx, %rsi
	popq	%rbx
Ltmp218:
	popq	%r14
Ltmp219:
	popq	%rbp
	jmp	__ZN4core3fmt3num53_$LT$impl$u20$core..fmt..LowerHex$u20$for$u20$i32$GT$3fmt17h45ae8797392b15d4E
LBB24_1:
Ltmp220:
	.loc	12 151 27
	movq	%rbx, %rdi
	callq	__ZN4core3fmt9Formatter15debug_upper_hex17hf8fda15ec43a1e68E
	.loc	12 154 21
	movq	%r14, %rdi
	movq	%rbx, %rsi
	.loc	12 151 24
	testb	%al, %al
	je	LBB24_4
Ltmp221:
	.loc	12 152 21
	popq	%rbx
Ltmp222:
	popq	%r14
Ltmp223:
	popq	%rbp
	jmp	__ZN4core3fmt3num53_$LT$impl$u20$core..fmt..UpperHex$u20$for$u20$i32$GT$3fmt17h7218a38926162563E
LBB24_4:
Ltmp224:
	.loc	12 154 21
	popq	%rbx
Ltmp225:
	popq	%r14
Ltmp226:
	popq	%rbp
	jmp	__ZN4core3fmt3num3imp52_$LT$impl$u20$core..fmt..Display$u20$for$u20$i32$GT$3fmt17he2ccc2060d52a2ceE
Ltmp227:
Lfunc_end24:
	.cfi_endproc

	.p2align	4, 0x90
__ZN42_$LT$$RF$T$u20$as$u20$core..fmt..Debug$GT$3fmt17hcdd3820c5c859624E:
Lfunc_begin25:
	.loc	4 1973 0
	.cfi_startproc
	pushq	%rbp
	.cfi_def_cfa_offset 16
	.cfi_offset %rbp, -16
	movq	%rsp, %rbp
	.cfi_def_cfa_register %rbp
Ltmp228:
	pushq	%r14
	pushq	%rbx
	subq	$48, %rsp
	.cfi_offset %rbx, -32
	.cfi_offset %r14, -24
	.loc	4 1973 71 prologue_end
	movq	(%rdi), %rbx
Ltmp229:
	.loc	4 2139 35
	leaq	l___unnamed_33(%rip), %rdx
	leaq	-56(%rbp), %r14
	movq	%r14, %rdi
Ltmp230:
	xorl	%ecx, %ecx
	callq	__ZN4core3fmt9Formatter11debug_tuple17h15ca25ad759edd1cE
Ltmp231:
	.loc	4 2140 24
	movq	%rbx, -24(%rbp)
	addq	$16, %rbx
Ltmp232:
	movq	%rbx, -32(%rbp)
Ltmp233:
	.loc	4 2142 21
	leaq	l___unnamed_9(%rip), %rdx
	leaq	-24(%rbp), %rsi
	movq	%r14, %rdi
	callq	__ZN4core3fmt8builders10DebugTuple5field17hf36121153a94f236E
	leaq	l___unnamed_3(%rip), %rdx
	leaq	-32(%rbp), %rsi
	movq	%r14, %rdi
	callq	__ZN4core3fmt8builders10DebugTuple5field17hf36121153a94f236E
	.loc	4 2145 17
	movq	%r14, %rdi
	callq	__ZN4core3fmt8builders10DebugTuple6finish17h68acf09c6f6593f2E
Ltmp234:
	.loc	4 1973 84
	addq	$48, %rsp
	popq	%rbx
Ltmp235:
	popq	%r14
	popq	%rbp
	retq
Ltmp236:
Lfunc_end25:
	.cfi_endproc

	.p2align	4, 0x90
__ZN42_$LT$$RF$T$u20$as$u20$core..fmt..Debug$GT$3fmt17hd8ae4dfea49f0027E:
Lfunc_begin26:
	.loc	4 1973 0
	.cfi_startproc
	pushq	%rbp
	.cfi_def_cfa_offset 16
	.cfi_offset %rbp, -16
	movq	%rsp, %rbp
	.cfi_def_cfa_register %rbp
Ltmp237:
	.loc	4 1973 71 prologue_end
	movq	(%rdi), %rdi
Ltmp238:
	.loc	4 1973 62 is_stmt 0
	popq	%rbp
	jmp	__ZN74_$LT$serde..private..ser..content..Content$u20$as$u20$core..fmt..Debug$GT$3fmt17hc4b69c1345adf378E
Ltmp239:
Lfunc_end26:
	.cfi_endproc

	.p2align	4, 0x90
__ZN42_$LT$$RF$T$u20$as$u20$core..fmt..Debug$GT$3fmt17hf38f6a13287ee643E:
Lfunc_begin27:
	.loc	4 1973 0 is_stmt 1
	.cfi_startproc
	pushq	%rbp
	.cfi_def_cfa_offset 16
	.cfi_offset %rbp, -16
	movq	%rsp, %rbp
	.cfi_def_cfa_register %rbp
	movq	%rsi, %rdx
Ltmp240:
	.loc	4 1973 71 prologue_end
	movq	(%rdi), %rax
	movq	8(%rdi), %rsi
	.loc	4 1973 62 is_stmt 0
	movq	%rax, %rdi
Ltmp241:
	popq	%rbp
	jmp	__ZN40_$LT$str$u20$as$u20$core..fmt..Debug$GT$3fmt17h2760aab2290546fcE
Ltmp242:
Lfunc_end27:
	.cfi_endproc

	.p2align	4, 0x90
__ZN42_$LT$$RF$T$u20$as$u20$core..fmt..Debug$GT$3fmt17hf491574c67210f7bE:
Lfunc_begin28:
	.loc	4 1973 0 is_stmt 1
	.cfi_startproc
	pushq	%rbp
	.cfi_def_cfa_offset 16
	.cfi_offset %rbp, -16
	movq	%rsp, %rbp
	.cfi_def_cfa_register %rbp
	pushq	%r14
	pushq	%rbx
	.cfi_offset %rbx, -32
	.cfi_offset %r14, -24
	movq	%rsi, %rbx
Ltmp243:
	.loc	4 1973 71 prologue_end
	movq	(%rdi), %r14
Ltmp244:
	.loc	12 149 20
	movq	%rsi, %rdi
Ltmp245:
	callq	__ZN4core3fmt9Formatter15debug_lower_hex17h8530fbaeba13f4d9E
	.loc	12 149 17 is_stmt 0
	testb	%al, %al
	je	LBB28_1
Ltmp246:
	.loc	12 150 21 is_stmt 1
	movq	%r14, %rdi
	movq	%rbx, %rsi
	popq	%rbx
Ltmp247:
	popq	%r14
Ltmp248:
	popq	%rbp
	jmp	__ZN4core3fmt3num53_$LT$impl$u20$core..fmt..LowerHex$u20$for$u20$u32$GT$3fmt17h6f8627d2574097eeE
LBB28_1:
Ltmp249:
	.loc	12 151 27
	movq	%rbx, %rdi
	callq	__ZN4core3fmt9Formatter15debug_upper_hex17hf8fda15ec43a1e68E
	.loc	12 154 21
	movq	%r14, %rdi
	movq	%rbx, %rsi
	.loc	12 151 24
	testb	%al, %al
	je	LBB28_4
Ltmp250:
	.loc	12 152 21
	popq	%rbx
Ltmp251:
	popq	%r14
Ltmp252:
	popq	%rbp
	jmp	__ZN4core3fmt3num53_$LT$impl$u20$core..fmt..UpperHex$u20$for$u20$u32$GT$3fmt17hfea5795b8018329eE
LBB28_4:
Ltmp253:
	.loc	12 154 21
	popq	%rbx
Ltmp254:
	popq	%r14
Ltmp255:
	popq	%rbp
	jmp	__ZN4core3fmt3num3imp52_$LT$impl$u20$core..fmt..Display$u20$for$u20$u32$GT$3fmt17h8cb3163b2d7e102aE
Ltmp256:
Lfunc_end28:
	.cfi_endproc

	.p2align	4, 0x90
__ZN42_$LT$$RF$T$u20$as$u20$core..fmt..Debug$GT$3fmt17hf553795854918defE:
Lfunc_begin29:
	.loc	4 1973 0
	.cfi_startproc
	pushq	%rbp
	.cfi_def_cfa_offset 16
	.cfi_offset %rbp, -16
	movq	%rsp, %rbp
	.cfi_def_cfa_register %rbp
	pushq	%r14
	pushq	%rbx
	.cfi_offset %rbx, -32
	.cfi_offset %r14, -24
	movq	%rsi, %rbx
Ltmp257:
	.loc	4 1973 71 prologue_end
	movq	(%rdi), %r14
Ltmp258:
	.loc	12 149 20
	movq	%rsi, %rdi
Ltmp259:
	callq	__ZN4core3fmt9Formatter15debug_lower_hex17h8530fbaeba13f4d9E
	.loc	12 149 17 is_stmt 0
	testb	%al, %al
	je	LBB29_1
Ltmp260:
	.loc	12 150 21 is_stmt 1
	movq	%r14, %rdi
	movq	%rbx, %rsi
	popq	%rbx
Ltmp261:
	popq	%r14
Ltmp262:
	popq	%rbp
	jmp	__ZN4core3fmt3num53_$LT$impl$u20$core..fmt..LowerHex$u20$for$u20$i64$GT$3fmt17ha8bb237a95553570E
LBB29_1:
Ltmp263:
	.loc	12 151 27
	movq	%rbx, %rdi
	callq	__ZN4core3fmt9Formatter15debug_upper_hex17hf8fda15ec43a1e68E
	.loc	12 154 21
	movq	%r14, %rdi
	movq	%rbx, %rsi
	.loc	12 151 24
	testb	%al, %al
	je	LBB29_4
Ltmp264:
	.loc	12 152 21
	popq	%rbx
Ltmp265:
	popq	%r14
Ltmp266:
	popq	%rbp
	jmp	__ZN4core3fmt3num53_$LT$impl$u20$core..fmt..UpperHex$u20$for$u20$i64$GT$3fmt17h13194bd83ca37803E
LBB29_4:
Ltmp267:
	.loc	12 154 21
	popq	%rbx
Ltmp268:
	popq	%r14
Ltmp269:
	popq	%rbp
	jmp	__ZN4core3fmt3num3imp52_$LT$impl$u20$core..fmt..Display$u20$for$u20$i64$GT$3fmt17h6a5170735d6294a5E
Ltmp270:
Lfunc_end29:
	.cfi_endproc

	.p2align	4, 0x90
__ZN42_$LT$$RF$T$u20$as$u20$core..fmt..Debug$GT$3fmt17hf57aaca69b1d633fE:
Lfunc_begin30:
	.loc	4 1973 0
	.cfi_startproc
	pushq	%rbp
	.cfi_def_cfa_offset 16
	.cfi_offset %rbp, -16
	movq	%rsp, %rbp
	.cfi_def_cfa_register %rbp
Ltmp271:
	pushq	%r15
	pushq	%r14
	pushq	%r13
	pushq	%r12
	pushq	%rbx
	subq	$24, %rsp
	.cfi_offset %rbx, -56
	.cfi_offset %r12, -48
	.cfi_offset %r13, -40
	.cfi_offset %r14, -32
	.cfi_offset %r15, -24
	.loc	4 1973 71 prologue_end
	movq	(%rdi), %rax
Ltmp272:
	.loc	6 814 19
	movq	(%rax), %rbx
Ltmp273:
	.loc	6 1966 55
	movq	16(%rax), %r13
Ltmp274:
	.loc	6 0 55 is_stmt 0
	leaq	-64(%rbp), %rdi
Ltmp275:
	.loc	4 2162 9 is_stmt 1
	callq	__ZN4core3fmt9Formatter10debug_list17hd054f0986422feb9E
Ltmp276:
	.loc	9 3179 9
	testq	%r13, %r13
	.loc	9 3303 21
	je	LBB30_3
Ltmp277:
	shlq	$6, %r13
Ltmp278:
	.loc	9 0 21 is_stmt 0
	leaq	l___unnamed_2(%rip), %r14
	leaq	-64(%rbp), %r15
	leaq	-48(%rbp), %r12
Ltmp279:
	.p2align	4, 0x90
LBB30_2:
	.loc	10 661 22 is_stmt 1
	movq	%rbx, -48(%rbp)
Ltmp280:
	.loc	13 90 9
	addq	$64, %rbx
Ltmp281:
	.loc	10 662 13
	movq	%r15, %rdi
	movq	%r12, %rsi
	movq	%r14, %rdx
	callq	__ZN4core3fmt8builders9DebugList5entry17h5c0dec54538196dfE
Ltmp282:
	.loc	9 3179 9
	addq	$-64, %r13
	.loc	9 3303 21
	jne	LBB30_2
Ltmp283:
LBB30_3:
	.loc	9 0 21 is_stmt 0
	leaq	-64(%rbp), %rdi
	.loc	4 2162 9 is_stmt 1
	callq	__ZN4core3fmt8builders9DebugList6finish17h3635bd6af9b1c5a6E
Ltmp284:
	.loc	4 1973 84
	addq	$24, %rsp
	popq	%rbx
	popq	%r12
	popq	%r13
	popq	%r14
	popq	%r15
	popq	%rbp
	retq
Ltmp285:
Lfunc_end30:
	.cfi_endproc

	.p2align	4, 0x90
__ZN42_$LT$$RF$T$u20$as$u20$core..fmt..Debug$GT$3fmt17hffa08c1e46858cbeE:
Lfunc_begin31:
	.loc	4 1973 0
	.cfi_startproc
	pushq	%rbp
	.cfi_def_cfa_offset 16
	.cfi_offset %rbp, -16
	movq	%rsp, %rbp
	.cfi_def_cfa_register %rbp
Ltmp286:
	.loc	4 1973 71 prologue_end
	movq	(%rdi), %rdi
Ltmp287:
	.loc	4 2003 9
	popq	%rbp
	jmp	__ZN43_$LT$bool$u20$as$u20$core..fmt..Display$GT$3fmt17hf36463fa8b480ab4E
Ltmp288:
Lfunc_end31:
	.cfi_endproc

	.p2align	4, 0x90
__ZN44_$LT$$RF$T$u20$as$u20$core..fmt..Display$GT$3fmt17h84191850abfac776E:
Lfunc_begin32:
	.loc	4 1973 0
	.cfi_startproc
	pushq	%rbp
	.cfi_def_cfa_offset 16
	.cfi_offset %rbp, -16
	movq	%rsp, %rbp
	.cfi_def_cfa_register %rbp
	movq	%rsi, %rdx
Ltmp289:
	.loc	4 1973 71 prologue_end
	movq	(%rdi), %rax
	movq	8(%rdi), %rsi
	.loc	4 1973 62 is_stmt 0
	movq	%rax, %rdi
Ltmp290:
	popq	%rbp
	jmp	__ZN42_$LT$str$u20$as$u20$core..fmt..Display$GT$3fmt17hd4dee1c1c4ccf892E
Ltmp291:
Lfunc_end32:
	.cfi_endproc

	.p2align	4, 0x90
__ZN44_$LT$$RF$T$u20$as$u20$core..fmt..Display$GT$3fmt17h968ee40e42f4fc2cE:
Lfunc_begin33:
	.loc	4 1973 0 is_stmt 1
	.cfi_startproc
	pushq	%rbp
	.cfi_def_cfa_offset 16
	.cfi_offset %rbp, -16
	movq	%rsp, %rbp
	.cfi_def_cfa_register %rbp
	movq	%rsi, %rdx
Ltmp292:
	.loc	4 1973 71 prologue_end
	movq	(%rdi), %rax
Ltmp293:
	.loc	4 1973 71 is_stmt 0
	movq	(%rax), %rdi
Ltmp294:
	movq	8(%rax), %rsi
	.loc	4 1973 62
	popq	%rbp
	jmp	__ZN42_$LT$str$u20$as$u20$core..fmt..Display$GT$3fmt17hd4dee1c1c4ccf892E
Ltmp295:
Lfunc_end33:
	.cfi_endproc

	.p2align	4, 0x90
__ZN4core3ptr13drop_in_place17h049dd4fa458b17afE:
Lfunc_begin34:
	.file	14 "/rustc/a74d1862d4d87a56244958416fd05976c58ca1a8/src/libcore/ptr/mod.rs"
	.loc	14 178 0 is_stmt 1
	.cfi_startproc
	pushq	%rbp
	.cfi_def_cfa_offset 16
	.cfi_offset %rbp, -16
	movq	%rsp, %rbp
	.cfi_def_cfa_register %rbp
Ltmp296:
	.loc	14 178 1 prologue_end
	popq	%rbp
	retq
Ltmp297:
Lfunc_end34:
	.cfi_endproc

	.p2align	4, 0x90
__ZN91_$LT$std..panicking..begin_panic..PanicPayload$LT$A$GT$$u20$as$u20$core..panic..BoxMeUp$GT$3get17h95d8d3581d5a428fE:
Lfunc_begin35:
	.loc	3 430 0
	.cfi_startproc
	pushq	%rbp
	.cfi_def_cfa_offset 16
	.cfi_offset %rbp, -16
	movq	%rsp, %rbp
	.cfi_def_cfa_register %rbp
Ltmp298:
	.loc	3 432 17 prologue_end
	cmpq	$0, (%rdi)
	je	LBB35_2
Ltmp299:
	.loc	3 0 17 is_stmt 0
	movq	%rdi, %rax
Ltmp300:
	.loc	3 435 10 is_stmt 1
	leaq	l___unnamed_10(%rip), %rdx
	popq	%rbp
	retq
Ltmp301:
LBB35_2:
	.loc	3 433 25
	callq	__ZN3std7process5abort17h4dccaf05298ce780E
Ltmp302:
Lfunc_end35:
	.cfi_endproc

	.p2align	4, 0x90
__ZN91_$LT$std..panicking..begin_panic..PanicPayload$LT$A$GT$$u20$as$u20$core..panic..BoxMeUp$GT$8take_box17h4ccfc7f4a06e9a17E:
Lfunc_begin36:
	.loc	3 417 0
	.cfi_startproc
	pushq	%rbp
	.cfi_def_cfa_offset 16
	.cfi_offset %rbp, -16
	movq	%rsp, %rbp
	.cfi_def_cfa_register %rbp
Ltmp303:
	pushq	%r14
	pushq	%rbx
	.cfi_offset %rbx, -32
	.cfi_offset %r14, -24
Ltmp304:
	.file	15 "/rustc/a74d1862d4d87a56244958416fd05976c58ca1a8/src/libcore/intrinsics.rs"
	.loc	15 2058 5 prologue_end
	movq	(%rdi), %rbx
Ltmp305:
	movq	8(%rdi), %r14
Ltmp306:
	.loc	15 2058 5 is_stmt 0
	movq	$0, (%rdi)
Ltmp307:
	.loc	3 424 17 is_stmt 1
	testq	%rbx, %rbx
	je	LBB36_3
Ltmp308:
	.file	16 "/rustc/a74d1862d4d87a56244958416fd05976c58ca1a8/src/liballoc/alloc.rs"
	.loc	16 80 5
	movl	$16, %edi
Ltmp309:
	movl	$8, %esi
	callq	___rust_alloc
Ltmp310:
	.loc	16 269 9
	testq	%rax, %rax
	je	LBB36_4
Ltmp311:
	.loc	5 174 13
	movq	%rbx, (%rax)
	movq	%r14, 8(%rax)
Ltmp312:
	.file	17 "/rustc/a74d1862d4d87a56244958416fd05976c58ca1a8/src/libcore/ptr/unique.rs"
	.loc	17 108 6
	leaq	l___unnamed_10(%rip), %rdx
Ltmp313:
	.loc	3 428 10
	popq	%rbx
Ltmp314:
	popq	%r14
Ltmp315:
	popq	%rbp
	retq
Ltmp316:
LBB36_3:
	.loc	3 425 25
	callq	__ZN3std7process5abort17h4dccaf05298ce780E
Ltmp317:
LBB36_4:
	.loc	16 270 19
	movl	$16, %edi
	movl	$8, %esi
	callq	__ZN5alloc5alloc18handle_alloc_error17hbc0ab0ed90816c07E
Ltmp318:
Lfunc_end36:
	.cfi_endproc
	.file	18 "/rustc/a74d1862d4d87a56244958416fd05976c58ca1a8/src/libcore/mem/mod.rs"
	.file	19 "/rustc/a74d1862d4d87a56244958416fd05976c58ca1a8/src/libcore/option.rs"

	.globl	__ZN62_$LT$serde..de..value..Error$u20$as$u20$core..fmt..Display$GT$3fmt17h52299f300ce49295E
	.p2align	4, 0x90
__ZN62_$LT$serde..de..value..Error$u20$as$u20$core..fmt..Display$GT$3fmt17h52299f300ce49295E:
Lfunc_begin37:
	.file	20 "/Users/yingyuhang/.cargo/registry/src/github.com-1ecc6299db9ec823/serde-1.0.114/src/de/value.rs"
	.loc	20 96 0
	.cfi_startproc
	pushq	%rbp
	.cfi_def_cfa_offset 16
	.cfi_offset %rbp, -16
	movq	%rsp, %rbp
	.cfi_def_cfa_register %rbp
	movq	%rsi, %rax
Ltmp319:
	.loc	20 97 29 prologue_end
	movq	(%rdi), %rsi
	movq	8(%rdi), %rdx
	.loc	20 97 9 is_stmt 0
	movq	%rax, %rdi
Ltmp320:
	popq	%rbp
	jmp	__ZN4core3fmt9Formatter9write_str17h957ea9717e49073dE
Ltmp321:
Lfunc_end37:
	.cfi_endproc

	.globl	__ZN61_$LT$serde..de..value..Error$u20$as$u20$std..error..Error$GT$11description17h359416ae52cbfc70E
	.p2align	4, 0x90
__ZN61_$LT$serde..de..value..Error$u20$as$u20$std..error..Error$GT$11description17h359416ae52cbfc70E:
Lfunc_begin38:
	.loc	20 108 0 is_stmt 1
	.cfi_startproc
	pushq	%rbp
	.cfi_def_cfa_offset 16
	.cfi_offset %rbp, -16
	movq	%rsp, %rbp
	.cfi_def_cfa_register %rbp
Ltmp322:
	.loc	20 109 9 prologue_end
	movq	(%rdi), %rax
	movq	8(%rdi), %rdx
	.loc	20 110 6
	popq	%rbp
	retq
Ltmp323:
Lfunc_end38:
	.cfi_endproc

	.globl	__ZN71_$LT$serde..de..value..ExpectedInSeq$u20$as$u20$serde..de..Expected$GT$3fmt17h75a3375d9cfdb1fdE
	.p2align	4, 0x90
__ZN71_$LT$serde..de..value..ExpectedInSeq$u20$as$u20$serde..de..Expected$GT$3fmt17h75a3375d9cfdb1fdE:
Lfunc_begin39:
	.loc	20 807 0
	.cfi_startproc
	pushq	%rbp
	.cfi_def_cfa_offset 16
	.cfi_offset %rbp, -16
	movq	%rsp, %rbp
	.cfi_def_cfa_register %rbp
	subq	$64, %rsp
	movq	%rsi, %rax
Ltmp324:
	.loc	20 808 12 prologue_end
	cmpq	$1, (%rdi)
	.loc	20 808 9 is_stmt 0
	jne	LBB39_1
Ltmp325:
	.loc	4 328 9 is_stmt 1
	leaq	l___unnamed_34(%rip), %rcx
Ltmp326:
	movq	%rcx, -48(%rbp)
	movq	$1, -40(%rbp)
	movq	$0, -32(%rbp)
	leaq	l___unnamed_33(%rip), %rcx
Ltmp327:
	movq	%rcx, -16(%rbp)
	movq	$0, -8(%rbp)
	jmp	LBB39_3
Ltmp328:
LBB39_1:
	.loc	20 811 13
	movq	%rdi, -64(%rbp)
	movq	__ZN4core3fmt3num3imp54_$LT$impl$u20$core..fmt..Display$u20$for$u20$usize$GT$3fmt17h89ce3155a90f2edfE@GOTPCREL(%rip), %rcx
	movq	%rcx, -56(%rbp)
Ltmp329:
	.loc	4 328 9
	leaq	l___unnamed_35(%rip), %rcx
Ltmp330:
	movq	%rcx, -48(%rbp)
	movq	$2, -40(%rbp)
	movq	$0, -32(%rbp)
	leaq	-64(%rbp), %rcx
Ltmp331:
	movq	%rcx, -16(%rbp)
	movq	$1, -8(%rbp)
Ltmp332:
LBB39_3:
	.loc	4 0 9 is_stmt 0
	leaq	-48(%rbp), %rsi
	movq	%rax, %rdi
Ltmp333:
	callq	__ZN4core3fmt9Formatter9write_fmt17h3dc2bf45afed3069E
Ltmp334:
	.loc	20 813 6 is_stmt 1
	addq	$64, %rsp
	popq	%rbp
	retq
Ltmp335:
Lfunc_end39:
	.cfi_endproc

	.globl	__ZN71_$LT$serde..de..value..ExpectedInMap$u20$as$u20$serde..de..Expected$GT$3fmt17h5d27e7402cf233c0E
	.p2align	4, 0x90
__ZN71_$LT$serde..de..value..ExpectedInMap$u20$as$u20$serde..de..Expected$GT$3fmt17h5d27e7402cf233c0E:
Lfunc_begin40:
	.loc	20 1222 0
	.cfi_startproc
	pushq	%rbp
	.cfi_def_cfa_offset 16
	.cfi_offset %rbp, -16
	movq	%rsp, %rbp
	.cfi_def_cfa_register %rbp
	subq	$64, %rsp
	movq	%rsi, %rax
Ltmp336:
	.loc	20 1223 12 prologue_end
	cmpq	$1, (%rdi)
	.loc	20 1223 9 is_stmt 0
	jne	LBB40_1
Ltmp337:
	.loc	4 328 9 is_stmt 1
	leaq	l___unnamed_36(%rip), %rcx
Ltmp338:
	movq	%rcx, -48(%rbp)
	movq	$1, -40(%rbp)
	movq	$0, -32(%rbp)
	leaq	l___unnamed_33(%rip), %rcx
Ltmp339:
	movq	%rcx, -16(%rbp)
	movq	$0, -8(%rbp)
	jmp	LBB40_3
Ltmp340:
LBB40_1:
	.loc	20 1226 13
	movq	%rdi, -64(%rbp)
	movq	__ZN4core3fmt3num3imp54_$LT$impl$u20$core..fmt..Display$u20$for$u20$usize$GT$3fmt17h89ce3155a90f2edfE@GOTPCREL(%rip), %rcx
	movq	%rcx, -56(%rbp)
Ltmp341:
	.loc	4 328 9
	leaq	l___unnamed_37(%rip), %rcx
Ltmp342:
	movq	%rcx, -48(%rbp)
	movq	$2, -40(%rbp)
	movq	$0, -32(%rbp)
	leaq	-64(%rbp), %rcx
Ltmp343:
	movq	%rcx, -16(%rbp)
	movq	$1, -8(%rbp)
Ltmp344:
LBB40_3:
	.loc	4 0 9 is_stmt 0
	leaq	-48(%rbp), %rsi
	movq	%rax, %rdi
Ltmp345:
	callq	__ZN4core3fmt9Formatter9write_fmt17h3dc2bf45afed3069E
Ltmp346:
	.loc	20 1228 6 is_stmt 1
	addq	$64, %rsp
	popq	%rbp
	retq
Ltmp347:
Lfunc_end40:
	.cfi_endproc

	.globl	__ZN73_$LT$serde..de..ignored_any..IgnoredAny$u20$as$u20$serde..de..Visitor$GT$9expecting17he6dde26aa66c2a9aE
	.p2align	4, 0x90
__ZN73_$LT$serde..de..ignored_any..IgnoredAny$u20$as$u20$serde..de..Visitor$GT$9expecting17he6dde26aa66c2a9aE:
Lfunc_begin41:
	.file	21 "/Users/yingyuhang/.cargo/registry/src/github.com-1ecc6299db9ec823/serde-1.0.114/src/de/ignored_any.rs"
	.loc	21 117 0
	.cfi_startproc
	pushq	%rbp
	.cfi_def_cfa_offset 16
	.cfi_offset %rbp, -16
	movq	%rsp, %rbp
	.cfi_def_cfa_register %rbp
	movq	%rsi, %rdi
Ltmp348:
	.loc	21 118 9 prologue_end
	leaq	l___unnamed_38(%rip), %rsi
	movl	$15, %edx
	popq	%rbp
	jmp	__ZN4core3fmt9Formatter9write_str17h957ea9717e49073dE
Ltmp349:
Lfunc_end41:
	.cfi_endproc

	.globl	__ZN68_$LT$serde..de..impls..UnitVisitor$u20$as$u20$serde..de..Visitor$GT$9expecting17hdfd476a23bcafa25E
	.p2align	4, 0x90
__ZN68_$LT$serde..de..impls..UnitVisitor$u20$as$u20$serde..de..Visitor$GT$9expecting17hdfd476a23bcafa25E:
Lfunc_begin42:
	.loc	1 23 0
	.cfi_startproc
	pushq	%rbp
	.cfi_def_cfa_offset 16
	.cfi_offset %rbp, -16
	movq	%rsp, %rbp
	.cfi_def_cfa_register %rbp
	movq	%rsi, %rdi
Ltmp350:
	.loc	1 24 9 prologue_end
	leaq	L___unnamed_39(%rip), %rsi
	movl	$4, %edx
	popq	%rbp
	jmp	__ZN4core3fmt9Formatter9write_str17h957ea9717e49073dE
Ltmp351:
Lfunc_end42:
	.cfi_endproc

	.globl	__ZN68_$LT$serde..de..impls..BoolVisitor$u20$as$u20$serde..de..Visitor$GT$9expecting17h38b202db46db15adE
	.p2align	4, 0x90
__ZN68_$LT$serde..de..impls..BoolVisitor$u20$as$u20$serde..de..Visitor$GT$9expecting17h38b202db46db15adE:
Lfunc_begin43:
	.loc	1 61 0
	.cfi_startproc
	pushq	%rbp
	.cfi_def_cfa_offset 16
	.cfi_offset %rbp, -16
	movq	%rsp, %rbp
	.cfi_def_cfa_register %rbp
	movq	%rsi, %rdi
Ltmp352:
	.loc	1 62 9 prologue_end
	leaq	l___unnamed_40(%rip), %rsi
	movl	$9, %edx
	popq	%rbp
	jmp	__ZN4core3fmt9Formatter9write_str17h957ea9717e49073dE
Ltmp353:
Lfunc_end43:
	.cfi_endproc

	.globl	__ZN68_$LT$serde..de..impls..CharVisitor$u20$as$u20$serde..de..Visitor$GT$9expecting17h11acdd64d335b2e1E
	.p2align	4, 0x90
__ZN68_$LT$serde..de..impls..CharVisitor$u20$as$u20$serde..de..Visitor$GT$9expecting17h11acdd64d335b2e1E:
Lfunc_begin44:
	.loc	1 267 0
	.cfi_startproc
	pushq	%rbp
	.cfi_def_cfa_offset 16
	.cfi_offset %rbp, -16
	movq	%rsp, %rbp
	.cfi_def_cfa_register %rbp
	movq	%rsi, %rdi
Ltmp354:
	.loc	1 268 9 prologue_end
	leaq	l___unnamed_41(%rip), %rsi
	movl	$11, %edx
	popq	%rbp
	jmp	__ZN4core3fmt9Formatter9write_str17h957ea9717e49073dE
Ltmp355:
Lfunc_end44:
	.cfi_endproc

	.globl	__ZN70_$LT$serde..de..impls..StringVisitor$u20$as$u20$serde..de..Visitor$GT$9expecting17hf9d6133181968f42E
	.p2align	4, 0x90
__ZN70_$LT$serde..de..impls..StringVisitor$u20$as$u20$serde..de..Visitor$GT$9expecting17hf9d6133181968f42E:
Lfunc_begin45:
	.loc	1 313 0
	.cfi_startproc
	pushq	%rbp
	.cfi_def_cfa_offset 16
	.cfi_offset %rbp, -16
	movq	%rsp, %rbp
	.cfi_def_cfa_register %rbp
	movq	%rsi, %rdi
Ltmp356:
	.loc	1 314 9 prologue_end
	leaq	L___unnamed_42(%rip), %rsi
	movl	$8, %edx
	popq	%rbp
	jmp	__ZN4core3fmt9Formatter9write_str17h957ea9717e49073dE
Ltmp357:
Lfunc_end45:
	.cfi_endproc

	.globl	__ZN77_$LT$serde..de..impls..StringInPlaceVisitor$u20$as$u20$serde..de..Visitor$GT$9expecting17h424452b0ac692f85E
	.p2align	4, 0x90
__ZN77_$LT$serde..de..impls..StringInPlaceVisitor$u20$as$u20$serde..de..Visitor$GT$9expecting17h424452b0ac692f85E:
Lfunc_begin46:
	.loc	1 359 0
	.cfi_startproc
	pushq	%rbp
	.cfi_def_cfa_offset 16
	.cfi_offset %rbp, -16
	movq	%rsp, %rbp
	.cfi_def_cfa_register %rbp
	movq	%rsi, %rdi
Ltmp358:
	.loc	1 360 9 prologue_end
	leaq	L___unnamed_42(%rip), %rsi
	movl	$8, %edx
	popq	%rbp
	jmp	__ZN4core3fmt9Formatter9write_str17h957ea9717e49073dE
Ltmp359:
Lfunc_end46:
	.cfi_endproc

	.globl	__ZN67_$LT$serde..de..impls..StrVisitor$u20$as$u20$serde..de..Visitor$GT$9expecting17hc6c3ffbe9109e9c2E
	.p2align	4, 0x90
__ZN67_$LT$serde..de..impls..StrVisitor$u20$as$u20$serde..de..Visitor$GT$9expecting17hc6c3ffbe9109e9c2E:
Lfunc_begin47:
	.loc	1 435 0
	.cfi_startproc
	pushq	%rbp
	.cfi_def_cfa_offset 16
	.cfi_offset %rbp, -16
	movq	%rsp, %rbp
	.cfi_def_cfa_register %rbp
	movq	%rsi, %rdi
Ltmp360:
	.loc	1 436 9 prologue_end
	leaq	l___unnamed_43(%rip), %rsi
	movl	$17, %edx
	popq	%rbp
	jmp	__ZN4core3fmt9Formatter9write_str17h957ea9717e49073dE
Ltmp361:
Lfunc_end47:
	.cfi_endproc

	.globl	__ZN69_$LT$serde..de..impls..BytesVisitor$u20$as$u20$serde..de..Visitor$GT$9expecting17h09eaf1a6533192b3E
	.p2align	4, 0x90
__ZN69_$LT$serde..de..impls..BytesVisitor$u20$as$u20$serde..de..Visitor$GT$9expecting17h09eaf1a6533192b3E:
Lfunc_begin48:
	.loc	1 470 0
	.cfi_startproc
	pushq	%rbp
	.cfi_def_cfa_offset 16
	.cfi_offset %rbp, -16
	movq	%rsp, %rbp
	.cfi_def_cfa_register %rbp
	movq	%rsi, %rdi
Ltmp362:
	.loc	1 471 9 prologue_end
	leaq	l___unnamed_44(%rip), %rsi
	movl	$21, %edx
	popq	%rbp
	jmp	__ZN4core3fmt9Formatter9write_str17h957ea9717e49073dE
Ltmp363:
Lfunc_end48:
	.cfi_endproc

	.globl	__ZN71_$LT$serde..de..impls..CStringVisitor$u20$as$u20$serde..de..Visitor$GT$9expecting17h2436a487ade0582aE
	.p2align	4, 0x90
__ZN71_$LT$serde..de..impls..CStringVisitor$u20$as$u20$serde..de..Visitor$GT$9expecting17h2436a487ade0582aE:
Lfunc_begin49:
	.loc	1 507 0
	.cfi_startproc
	pushq	%rbp
	.cfi_def_cfa_offset 16
	.cfi_offset %rbp, -16
	movq	%rsp, %rbp
	.cfi_def_cfa_register %rbp
	movq	%rsi, %rdi
Ltmp364:
	.loc	1 508 9 prologue_end
	leaq	l___unnamed_45(%rip), %rsi
	movl	$10, %edx
	popq	%rbp
	jmp	__ZN4core3fmt9Formatter9write_str17h957ea9717e49073dE
Ltmp365:
Lfunc_end49:
	.cfi_endproc

	.globl	__ZN157_$LT$serde..de..impls..$LT$impl$u20$serde..de..Deserialize$u20$for$u20$std..net..ip..IpAddr$GT$..deserialize..IpAddrVisitor$u20$as$u20$serde..de..Visitor$GT$9expecting17h9825f230b9ffce7fE
	.p2align	4, 0x90
__ZN157_$LT$serde..de..impls..$LT$impl$u20$serde..de..Deserialize$u20$for$u20$std..net..ip..IpAddr$GT$..deserialize..IpAddrVisitor$u20$as$u20$serde..de..Visitor$GT$9expecting17h9825f230b9ffce7fE:
Lfunc_begin50:
	.loc	1 1413 0
	.cfi_startproc
	pushq	%rbp
	.cfi_def_cfa_offset 16
	.cfi_offset %rbp, -16
	movq	%rsp, %rbp
	.cfi_def_cfa_register %rbp
	movq	%rsi, %rdi
Ltmp366:
	.loc	1 1414 21 prologue_end
	leaq	l___unnamed_46(%rip), %rsi
	movl	$10, %edx
	popq	%rbp
	jmp	__ZN4core3fmt9Formatter9write_str17h957ea9717e49073dE
Ltmp367:
Lfunc_end50:
	.cfi_endproc

	.globl	__ZN167_$LT$serde..de..impls..$LT$impl$u20$serde..de..Deserialize$u20$for$u20$std..net..addr..SocketAddr$GT$..deserialize..SocketAddrVisitor$u20$as$u20$serde..de..Visitor$GT$9expecting17h3711d2e4f5275165E
	.p2align	4, 0x90
__ZN167_$LT$serde..de..impls..$LT$impl$u20$serde..de..Deserialize$u20$for$u20$std..net..addr..SocketAddr$GT$..deserialize..SocketAddrVisitor$u20$as$u20$serde..de..Visitor$GT$9expecting17h3711d2e4f5275165E:
Lfunc_begin51:
	.loc	1 1490 0
	.cfi_startproc
	pushq	%rbp
	.cfi_def_cfa_offset 16
	.cfi_offset %rbp, -16
	movq	%rsp, %rbp
	.cfi_def_cfa_register %rbp
	movq	%rsi, %rdi
Ltmp368:
	.loc	1 1491 21 prologue_end
	leaq	l___unnamed_47(%rip), %rsi
	movl	$14, %edx
	popq	%rbp
	jmp	__ZN4core3fmt9Formatter9write_str17h957ea9717e49073dE
Ltmp369:
Lfunc_end51:
	.cfi_endproc

	.globl	__ZN68_$LT$serde..de..impls..PathVisitor$u20$as$u20$serde..de..Visitor$GT$9expecting17hd883fc36d885d526E
	.p2align	4, 0x90
__ZN68_$LT$serde..de..impls..PathVisitor$u20$as$u20$serde..de..Visitor$GT$9expecting17hd883fc36d885d526E:
Lfunc_begin52:
	.loc	1 1531 0
	.cfi_startproc
	pushq	%rbp
	.cfi_def_cfa_offset 16
	.cfi_offset %rbp, -16
	movq	%rsp, %rbp
	.cfi_def_cfa_register %rbp
	movq	%rsi, %rdi
Ltmp370:
	.loc	1 1532 9 prologue_end
	leaq	l___unnamed_48(%rip), %rsi
	movl	$15, %edx
	popq	%rbp
	jmp	__ZN4core3fmt9Formatter9write_str17h957ea9717e49073dE
Ltmp371:
Lfunc_end52:
	.cfi_endproc

	.globl	__ZN71_$LT$serde..de..impls..PathBufVisitor$u20$as$u20$serde..de..Visitor$GT$9expecting17h337794dcf2c02d81E
	.p2align	4, 0x90
__ZN71_$LT$serde..de..impls..PathBufVisitor$u20$as$u20$serde..de..Visitor$GT$9expecting17h337794dcf2c02d81E:
Lfunc_begin53:
	.loc	1 1569 0
	.cfi_startproc
	pushq	%rbp
	.cfi_def_cfa_offset 16
	.cfi_offset %rbp, -16
	movq	%rsp, %rbp
	.cfi_def_cfa_register %rbp
	movq	%rsi, %rdi
Ltmp372:
	.loc	1 1570 9 prologue_end
	leaq	l___unnamed_49(%rip), %rsi
	movl	$11, %edx
	popq	%rbp
	jmp	__ZN4core3fmt9Formatter9write_str17h957ea9717e49073dE
Ltmp373:
Lfunc_end53:
	.cfi_endproc

	.globl	__ZN72_$LT$serde..de..impls..OsStringVisitor$u20$as$u20$serde..de..Visitor$GT$9expecting17h3175856cee9397b3E
	.p2align	4, 0x90
__ZN72_$LT$serde..de..impls..OsStringVisitor$u20$as$u20$serde..de..Visitor$GT$9expecting17h3175856cee9397b3E:
Lfunc_begin54:
	.loc	1 1639 0
	.cfi_startproc
	pushq	%rbp
	.cfi_def_cfa_offset 16
	.cfi_offset %rbp, -16
	movq	%rsp, %rbp
	.cfi_def_cfa_register %rbp
	movq	%rsi, %rdi
Ltmp374:
	.loc	1 1640 9 prologue_end
	leaq	l___unnamed_50(%rip), %rsi
	movl	$9, %edx
	popq	%rbp
	jmp	__ZN4core3fmt9Formatter9write_str17h957ea9717e49073dE
Ltmp375:
Lfunc_end54:
	.cfi_endproc

	.globl	__ZN218_$LT$$LT$serde..de..impls..$LT$impl$u20$serde..de..Deserialize$u20$for$u20$core..time..Duration$GT$..deserialize..Field$u20$as$u20$serde..de..Deserialize$GT$..deserialize..FieldVisitor$u20$as$u20$serde..de..Visitor$GT$9expecting17h64636e09db200a69E
	.p2align	4, 0x90
__ZN218_$LT$$LT$serde..de..impls..$LT$impl$u20$serde..de..Deserialize$u20$for$u20$core..time..Duration$GT$..deserialize..Field$u20$as$u20$serde..de..Deserialize$GT$..deserialize..FieldVisitor$u20$as$u20$serde..de..Visitor$GT$9expecting17h64636e09db200a69E:
Lfunc_begin55:
	.loc	1 1886 0
	.cfi_startproc
	pushq	%rbp
	.cfi_def_cfa_offset 16
	.cfi_offset %rbp, -16
	movq	%rsp, %rbp
	.cfi_def_cfa_register %rbp
	movq	%rsi, %rdi
Ltmp376:
	.loc	1 1887 25 prologue_end
	leaq	l___unnamed_51(%rip), %rsi
	movl	$17, %edx
	popq	%rbp
	jmp	__ZN4core3fmt9Formatter9write_str17h957ea9717e49073dE
Ltmp377:
Lfunc_end55:
	.cfi_endproc

	.globl	__ZN159_$LT$serde..de..impls..$LT$impl$u20$serde..de..Deserialize$u20$for$u20$core..time..Duration$GT$..deserialize..DurationVisitor$u20$as$u20$serde..de..Visitor$GT$9expecting17hf371d337ea879ba8E
	.p2align	4, 0x90
__ZN159_$LT$serde..de..impls..$LT$impl$u20$serde..de..Deserialize$u20$for$u20$core..time..Duration$GT$..deserialize..DurationVisitor$u20$as$u20$serde..de..Visitor$GT$9expecting17hf371d337ea879ba8E:
Lfunc_begin56:
	.loc	1 1925 0
	.cfi_startproc
	pushq	%rbp
	.cfi_def_cfa_offset 16
	.cfi_offset %rbp, -16
	movq	%rsp, %rbp
	.cfi_def_cfa_register %rbp
	movq	%rsi, %rdi
Ltmp378:
	.loc	1 1926 17 prologue_end
	leaq	l___unnamed_52(%rip), %rsi
	movl	$15, %edx
	popq	%rbp
	jmp	__ZN4core3fmt9Formatter9write_str17h957ea9717e49073dE
Ltmp379:
Lfunc_end56:
	.cfi_endproc

	.globl	__ZN219_$LT$$LT$serde..de..impls..$LT$impl$u20$serde..de..Deserialize$u20$for$u20$std..time..SystemTime$GT$..deserialize..Field$u20$as$u20$serde..de..Deserialize$GT$..deserialize..FieldVisitor$u20$as$u20$serde..de..Visitor$GT$9expecting17hf666b2d757ea640fE
	.p2align	4, 0x90
__ZN219_$LT$$LT$serde..de..impls..$LT$impl$u20$serde..de..Deserialize$u20$for$u20$std..time..SystemTime$GT$..deserialize..Field$u20$as$u20$serde..de..Deserialize$GT$..deserialize..FieldVisitor$u20$as$u20$serde..de..Visitor$GT$9expecting17hf666b2d757ea640fE:
Lfunc_begin57:
	.loc	1 2011 0
	.cfi_startproc
	pushq	%rbp
	.cfi_def_cfa_offset 16
	.cfi_offset %rbp, -16
	movq	%rsp, %rbp
	.cfi_def_cfa_register %rbp
	movq	%rsi, %rdi
Ltmp380:
	.loc	1 2012 25 prologue_end
	leaq	l___unnamed_53(%rip), %rsi
	movl	$41, %edx
	popq	%rbp
	jmp	__ZN4core3fmt9Formatter9write_str17h957ea9717e49073dE
Ltmp381:
Lfunc_end57:
	.cfi_endproc

	.globl	__ZN160_$LT$serde..de..impls..$LT$impl$u20$serde..de..Deserialize$u20$for$u20$std..time..SystemTime$GT$..deserialize..DurationVisitor$u20$as$u20$serde..de..Visitor$GT$9expecting17h16aec2668e449a45E
	.p2align	4, 0x90
__ZN160_$LT$serde..de..impls..$LT$impl$u20$serde..de..Deserialize$u20$for$u20$std..time..SystemTime$GT$..deserialize..DurationVisitor$u20$as$u20$serde..de..Visitor$GT$9expecting17h16aec2668e449a45E:
Lfunc_begin58:
	.loc	1 2050 0
	.cfi_startproc
	pushq	%rbp
	.cfi_def_cfa_offset 16
	.cfi_offset %rbp, -16
	movq	%rsp, %rbp
	.cfi_def_cfa_register %rbp
	movq	%rsi, %rdi
Ltmp382:
	.loc	1 2051 17 prologue_end
	leaq	l___unnamed_54(%rip), %rsi
	movl	$17, %edx
	popq	%rbp
	jmp	__ZN4core3fmt9Formatter9write_str17h957ea9717e49073dE
Ltmp383:
Lfunc_end58:
	.cfi_endproc

	.globl	__ZN138_$LT$$LT$serde..de..impls..range..Field$u20$as$u20$serde..de..Deserialize$GT$..deserialize..FieldVisitor$u20$as$u20$serde..de..Visitor$GT$9expecting17h14aa45fcc2f41852E
	.p2align	4, 0x90
__ZN138_$LT$$LT$serde..de..impls..range..Field$u20$as$u20$serde..de..Deserialize$GT$..deserialize..FieldVisitor$u20$as$u20$serde..de..Visitor$GT$9expecting17h14aa45fcc2f41852E:
Lfunc_begin59:
	.loc	1 2194 0
	.cfi_startproc
	pushq	%rbp
	.cfi_def_cfa_offset 16
	.cfi_offset %rbp, -16
	movq	%rsp, %rbp
	.cfi_def_cfa_register %rbp
	movq	%rsi, %rdi
Ltmp384:
	.loc	1 2195 21 prologue_end
	leaq	L___unnamed_55(%rip), %rsi
	movl	$16, %edx
	popq	%rbp
	jmp	__ZN4core3fmt9Formatter9write_str17h957ea9717e49073dE
Ltmp385:
Lfunc_end59:
	.cfi_endproc

	.globl	__ZN230_$LT$$LT$serde..de..impls..$LT$impl$u20$serde..de..Deserialize$u20$for$u20$core..ops..range..Bound$LT$T$GT$$GT$..deserialize..Field$u20$as$u20$serde..de..Deserialize$GT$..deserialize..FieldVisitor$u20$as$u20$serde..de..Visitor$GT$9expecting17hd6a378fb8581931cE
	.p2align	4, 0x90
__ZN230_$LT$$LT$serde..de..impls..$LT$impl$u20$serde..de..Deserialize$u20$for$u20$core..ops..range..Bound$LT$T$GT$$GT$..deserialize..Field$u20$as$u20$serde..de..Deserialize$GT$..deserialize..FieldVisitor$u20$as$u20$serde..de..Visitor$GT$9expecting17hd6a378fb8581931cE:
Lfunc_begin60:
	.loc	1 2325 0
	.cfi_startproc
	pushq	%rbp
	.cfi_def_cfa_offset 16
	.cfi_offset %rbp, -16
	movq	%rsp, %rbp
	.cfi_def_cfa_register %rbp
	movq	%rsi, %rdi
Ltmp386:
	.loc	1 2326 25 prologue_end
	leaq	l___unnamed_56(%rip), %rsi
	movl	$37, %edx
	popq	%rbp
	jmp	__ZN4core3fmt9Formatter9write_str17h957ea9717e49073dE
Ltmp387:
Lfunc_end60:
	.cfi_endproc

	.globl	__ZN231_$LT$$LT$serde..de..impls..$LT$impl$u20$serde..de..Deserialize$u20$for$u20$core..result..Result$LT$T$C$E$GT$$GT$..deserialize..Field$u20$as$u20$serde..de..Deserialize$GT$..deserialize..FieldVisitor$u20$as$u20$serde..de..Visitor$GT$9expecting17hf670915b7b557cecE
	.p2align	4, 0x90
__ZN231_$LT$$LT$serde..de..impls..$LT$impl$u20$serde..de..Deserialize$u20$for$u20$core..result..Result$LT$T$C$E$GT$$GT$..deserialize..Field$u20$as$u20$serde..de..Deserialize$GT$..deserialize..FieldVisitor$u20$as$u20$serde..de..Visitor$GT$9expecting17hf670915b7b557cecE:
Lfunc_begin61:
	.loc	1 2491 0
	.cfi_startproc
	pushq	%rbp
	.cfi_def_cfa_offset 16
	.cfi_offset %rbp, -16
	movq	%rsp, %rbp
	.cfi_def_cfa_register %rbp
	movq	%rsi, %rdi
Ltmp388:
	.loc	1 2492 25 prologue_end
	leaq	l___unnamed_57(%rip), %rsi
	movl	$13, %edx
	popq	%rbp
	jmp	__ZN4core3fmt9Formatter9write_str17h957ea9717e49073dE
Ltmp389:
Lfunc_end61:
	.cfi_endproc

	.globl	__ZN5serde2de4utf86Encode6as_str17h6fb792935d3b7cc6E
	.p2align	4, 0x90
__ZN5serde2de4utf86Encode6as_str17h6fb792935d3b7cc6E:
Lfunc_begin62:
	.file	22 "/Users/yingyuhang/.cargo/registry/src/github.com-1ecc6299db9ec823/serde-1.0.114/src/de/utf8.rs"
	.loc	22 43 0
	.cfi_startproc
	pushq	%rbp
	.cfi_def_cfa_offset 16
	.cfi_offset %rbp, -16
	movq	%rsp, %rbp
	.cfi_def_cfa_register %rbp
	subq	$48, %rsp
	movq	%rdi, %rax
Ltmp390:
	.loc	22 44 34 prologue_end
	movq	(%rdi), %rdi
Ltmp391:
	.loc	9 2916 12
	cmpq	$5, %rdi
	.loc	9 2916 9 is_stmt 0
	jae	LBB62_3
Ltmp392:
	.loc	8 158 9 is_stmt 1
	leaq	8(%rax,%rdi), %rsi
Ltmp393:
	.loc	8 0 9 is_stmt 0
	movl	$4, %edx
Ltmp394:
	.loc	9 2906 56 is_stmt 1
	subq	%rdi, %rdx
Ltmp395:
	.loc	9 0 56 is_stmt 0
	leaq	-24(%rbp), %rdi
Ltmp396:
	.loc	22 44 9 is_stmt 1
	callq	__ZN4core3str9from_utf817he06957962f38305fE
Ltmp397:
	.file	23 "/rustc/a74d1862d4d87a56244958416fd05976c58ca1a8/src/libcore/result.rs"
	.loc	23 1004 13
	cmpq	$1, -24(%rbp)
	je	LBB62_4
Ltmp398:
	.loc	23 1004 16 is_stmt 0
	movq	-16(%rbp), %rax
	movq	-8(%rbp), %rdx
Ltmp399:
	.loc	22 45 6 is_stmt 1
	addq	$48, %rsp
	popq	%rbp
	retq
Ltmp400:
LBB62_3:
	.loc	9 2917 13
	leaq	l___unnamed_58(%rip), %rdx
	movl	$4, %esi
	callq	__ZN4core5slice22slice_index_order_fail17h85b430a3a039f0a8E
Ltmp401:
LBB62_4:
	.loc	23 1005 17
	movq	-16(%rbp), %rax
	movq	-8(%rbp), %rcx
	movq	%rcx, -32(%rbp)
	movq	%rax, -40(%rbp)
Ltmp402:
	.loc	23 1005 23 is_stmt 0
	leaq	l___unnamed_59(%rip), %rdi
	leaq	l___unnamed_8(%rip), %rcx
	leaq	l___unnamed_60(%rip), %r8
	leaq	-40(%rbp), %rdx
	movl	$43, %esi
	callq	__ZN4core6result13unwrap_failed17hb5a510096a5fc85fE
Ltmp403:
Lfunc_end62:
	.cfi_endproc

	.globl	__ZN60_$LT$serde..de..Unexpected$u20$as$u20$core..fmt..Display$GT$3fmt17h4a717e7136fa4dffE
	.p2align	4, 0x90
__ZN60_$LT$serde..de..Unexpected$u20$as$u20$core..fmt..Display$GT$3fmt17h4a717e7136fa4dffE:
Lfunc_begin63:
	.file	24 "/Users/yingyuhang/.cargo/registry/src/github.com-1ecc6299db9ec823/serde-1.0.114/src/de/mod.rs"
	.loc	24 396 0 is_stmt 1
	.cfi_startproc
	pushq	%rbp
	.cfi_def_cfa_offset 16
	.cfi_offset %rbp, -16
	movq	%rsp, %rbp
	.cfi_def_cfa_register %rbp
	subq	$80, %rsp
	movq	%rsi, %rax
Ltmp404:
	.loc	24 399 13 prologue_end
	movzbl	(%rdi), %ecx
	leaq	LJTI63_0(%rip), %rdx
	movslq	(%rdx,%rcx,4), %rcx
	addq	%rdx, %rcx
	jmpq	*%rcx
Ltmp405:
LBB63_2:
	.loc	24 399 18 is_stmt 0
	movb	1(%rdi), %cl
Ltmp406:
	movb	%cl, -80(%rbp)
	leaq	-80(%rbp), %rcx
Ltmp407:
	.loc	24 399 24
	movq	%rcx, -64(%rbp)
	movq	__ZN43_$LT$bool$u20$as$u20$core..fmt..Display$GT$3fmt17hf36463fa8b480ab4E@GOTPCREL(%rip), %rcx
	movq	%rcx, -56(%rbp)
Ltmp408:
	.loc	4 328 9 is_stmt 1
	leaq	l___unnamed_61(%rip), %rcx
	jmp	LBB63_5
Ltmp409:
LBB63_3:
	.loc	24 400 22
	movq	8(%rdi), %rcx
Ltmp410:
	movq	%rcx, -80(%rbp)
	leaq	-80(%rbp), %rcx
Ltmp411:
	.loc	24 400 28 is_stmt 0
	movq	%rcx, -64(%rbp)
	movq	__ZN4core3fmt3num3imp52_$LT$impl$u20$core..fmt..Display$u20$for$u20$u64$GT$3fmt17hb00db9d5e1e54df6E@GOTPCREL(%rip), %rcx
	jmp	LBB63_4
Ltmp412:
LBB63_7:
	.loc	24 401 20 is_stmt 1
	movq	8(%rdi), %rcx
Ltmp413:
	movq	%rcx, -80(%rbp)
	leaq	-80(%rbp), %rcx
Ltmp414:
	.loc	24 401 26 is_stmt 0
	movq	%rcx, -64(%rbp)
	movq	__ZN4core3fmt3num3imp52_$LT$impl$u20$core..fmt..Display$u20$for$u20$i64$GT$3fmt17h6a5170735d6294a5E@GOTPCREL(%rip), %rcx
Ltmp415:
LBB63_4:
	.loc	24 0 0
	movq	%rcx, -56(%rbp)
Ltmp416:
	leaq	l___unnamed_62(%rip), %rcx
	jmp	LBB63_5
Ltmp417:
LBB63_8:
	.loc	24 402 19 is_stmt 1
	movq	8(%rdi), %rcx
	movq	%rcx, -80(%rbp)
	leaq	-80(%rbp), %rcx
Ltmp418:
	.loc	24 402 25 is_stmt 0
	movq	%rcx, -64(%rbp)
	movq	__ZN4core3fmt5float52_$LT$impl$u20$core..fmt..Display$u20$for$u20$f64$GT$3fmt17h65d15e5d03b4dd47E@GOTPCREL(%rip), %rcx
	movq	%rcx, -56(%rbp)
Ltmp419:
	.loc	4 328 9 is_stmt 1
	leaq	l___unnamed_63(%rip), %rcx
	jmp	LBB63_5
Ltmp420:
LBB63_9:
	.loc	24 403 18
	movl	4(%rdi), %ecx
Ltmp421:
	movl	%ecx, -80(%rbp)
	leaq	-80(%rbp), %rcx
Ltmp422:
	.loc	24 403 24 is_stmt 0
	movq	%rcx, -64(%rbp)
	movq	__ZN43_$LT$char$u20$as$u20$core..fmt..Display$GT$3fmt17h6751376c1412eca9E@GOTPCREL(%rip), %rcx
	movq	%rcx, -56(%rbp)
Ltmp423:
	.loc	4 328 9 is_stmt 1
	leaq	l___unnamed_64(%rip), %rcx
Ltmp424:
LBB63_5:
	.loc	24 0 0 is_stmt 0
	movq	%rcx, -48(%rbp)
	movq	$2, -40(%rbp)
Ltmp425:
LBB63_6:
	movq	$0, -32(%rbp)
	leaq	-64(%rbp), %rcx
	movq	%rcx, -16(%rbp)
	movq	$1, -8(%rbp)
	jmp	LBB63_23
Ltmp426:
LBB63_10:
	.loc	24 404 17 is_stmt 1
	movups	8(%rdi), %xmm0
	movaps	%xmm0, -80(%rbp)
	leaq	-80(%rbp), %rcx
Ltmp427:
	.loc	24 404 23 is_stmt 0
	movq	%rcx, -64(%rbp)
	leaq	__ZN42_$LT$$RF$T$u20$as$u20$core..fmt..Debug$GT$3fmt17hf38f6a13287ee643E(%rip), %rcx
	movq	%rcx, -56(%rbp)
Ltmp428:
	.loc	4 328 9 is_stmt 1
	leaq	l___unnamed_65(%rip), %rcx
Ltmp429:
	movq	%rcx, -48(%rbp)
	movq	$1, -40(%rbp)
	jmp	LBB63_6
Ltmp430:
LBB63_11:
	.loc	4 328 9 is_stmt 0
	leaq	l___unnamed_66(%rip), %rcx
	jmp	LBB63_22
Ltmp431:
LBB63_12:
	.loc	4 328 9
	leaq	l___unnamed_67(%rip), %rcx
	jmp	LBB63_22
Ltmp432:
LBB63_13:
	.loc	4 328 9
	leaq	l___unnamed_68(%rip), %rcx
	jmp	LBB63_22
Ltmp433:
LBB63_14:
	.loc	4 328 9
	leaq	l___unnamed_69(%rip), %rcx
	jmp	LBB63_22
Ltmp434:
LBB63_15:
	.loc	4 328 9
	leaq	l___unnamed_70(%rip), %rcx
	jmp	LBB63_22
Ltmp435:
LBB63_16:
	.loc	4 328 9
	leaq	l___unnamed_71(%rip), %rcx
	jmp	LBB63_22
Ltmp436:
LBB63_17:
	.loc	4 328 9
	leaq	l___unnamed_72(%rip), %rcx
	jmp	LBB63_22
Ltmp437:
LBB63_18:
	.loc	4 328 9
	leaq	l___unnamed_73(%rip), %rcx
	jmp	LBB63_22
Ltmp438:
LBB63_19:
	.loc	4 328 9
	leaq	l___unnamed_74(%rip), %rcx
	jmp	LBB63_22
Ltmp439:
LBB63_20:
	.loc	4 328 9
	leaq	l___unnamed_75(%rip), %rcx
	jmp	LBB63_22
Ltmp440:
LBB63_21:
	.loc	4 328 9
	leaq	l___unnamed_76(%rip), %rcx
Ltmp441:
LBB63_22:
	.loc	24 0 0
	movq	%rcx, -48(%rbp)
	movq	$1, -40(%rbp)
	movq	$0, -32(%rbp)
	leaq	l___unnamed_33(%rip), %rcx
Ltmp442:
	movq	%rcx, -16(%rbp)
	movq	$0, -8(%rbp)
Ltmp443:
LBB63_23:
	leaq	-48(%rbp), %rsi
	movq	%rax, %rdi
Ltmp444:
	callq	__ZN4core3fmt9Formatter9write_fmt17h3dc2bf45afed3069E
Ltmp445:
	.loc	24 418 6 is_stmt 1
	addq	$80, %rsp
	popq	%rbp
	retq
LBB63_1:
Ltmp446:
	.loc	24 416 19
	movq	8(%rdi), %rsi
Ltmp447:
	movq	16(%rdi), %rdx
Ltmp448:
	.loc	24 416 29 is_stmt 0
	movq	%rax, %rdi
Ltmp449:
	addq	$80, %rsp
	popq	%rbp
	jmp	__ZN4core3fmt9Formatter9write_str17h957ea9717e49073dE
Ltmp450:
Lfunc_end63:
	.cfi_endproc
	.p2align	2, 0x90
	.data_region jt32
.set L63_0_set_2, LBB63_2-LJTI63_0
.set L63_0_set_3, LBB63_3-LJTI63_0
.set L63_0_set_7, LBB63_7-LJTI63_0
.set L63_0_set_8, LBB63_8-LJTI63_0
.set L63_0_set_9, LBB63_9-LJTI63_0
.set L63_0_set_10, LBB63_10-LJTI63_0
.set L63_0_set_11, LBB63_11-LJTI63_0
.set L63_0_set_12, LBB63_12-LJTI63_0
.set L63_0_set_13, LBB63_13-LJTI63_0
.set L63_0_set_14, LBB63_14-LJTI63_0
.set L63_0_set_15, LBB63_15-LJTI63_0
.set L63_0_set_16, LBB63_16-LJTI63_0
.set L63_0_set_17, LBB63_17-LJTI63_0
.set L63_0_set_18, LBB63_18-LJTI63_0
.set L63_0_set_19, LBB63_19-LJTI63_0
.set L63_0_set_20, LBB63_20-LJTI63_0
.set L63_0_set_21, LBB63_21-LJTI63_0
.set L63_0_set_1, LBB63_1-LJTI63_0
LJTI63_0:
	.long	L63_0_set_2
	.long	L63_0_set_3
	.long	L63_0_set_7
	.long	L63_0_set_8
	.long	L63_0_set_9
	.long	L63_0_set_10
	.long	L63_0_set_11
	.long	L63_0_set_12
	.long	L63_0_set_13
	.long	L63_0_set_14
	.long	L63_0_set_15
	.long	L63_0_set_16
	.long	L63_0_set_17
	.long	L63_0_set_18
	.long	L63_0_set_19
	.long	L63_0_set_20
	.long	L63_0_set_21
	.long	L63_0_set_1
	.end_data_region

	.globl	__ZN47_$LT$$RF$str$u20$as$u20$serde..de..Expected$GT$3fmt17h88c1fb172f25029aE
	.p2align	4, 0x90
__ZN47_$LT$$RF$str$u20$as$u20$serde..de..Expected$GT$3fmt17h88c1fb172f25029aE:
Lfunc_begin64:
	.loc	24 486 0 is_stmt 1
	.cfi_startproc
	pushq	%rbp
	.cfi_def_cfa_offset 16
	.cfi_offset %rbp, -16
	movq	%rsp, %rbp
	.cfi_def_cfa_register %rbp
	movq	%rsi, %rax
Ltmp451:
	.loc	24 487 29 prologue_end
	movq	(%rdi), %rsi
	movq	8(%rdi), %rdx
	.loc	24 487 9 is_stmt 0
	movq	%rax, %rdi
Ltmp452:
	popq	%rbp
	jmp	__ZN4core3fmt9Formatter9write_str17h957ea9717e49073dE
Ltmp453:
Lfunc_end64:
	.cfi_endproc

	.globl	__ZN66_$LT$dyn$u20$serde..de..Expected$u20$as$u20$core..fmt..Display$GT$3fmt17h472c8060449c3a3aE
	.p2align	4, 0x90
__ZN66_$LT$dyn$u20$serde..de..Expected$u20$as$u20$core..fmt..Display$GT$3fmt17h472c8060449c3a3aE:
Lfunc_begin65:
	.loc	24 492 0 is_stmt 1
	.cfi_startproc
	pushq	%rbp
	.cfi_def_cfa_offset 16
	.cfi_offset %rbp, -16
	movq	%rsp, %rbp
	.cfi_def_cfa_register %rbp
Ltmp454:
	.loc	24 493 9 prologue_end
	movq	24(%rsi), %rax
Ltmp455:
	movq	%rdx, %rsi
Ltmp456:
	popq	%rbp
	jmpq	*%rax
Ltmp457:
Lfunc_end65:
	.cfi_endproc

	.globl	__ZN55_$LT$serde..de..OneOf$u20$as$u20$core..fmt..Display$GT$3fmt17hb7817bc1c7112bcbE
	.p2align	4, 0x90
__ZN55_$LT$serde..de..OneOf$u20$as$u20$core..fmt..Display$GT$3fmt17hb7817bc1c7112bcbE:
Lfunc_begin66:
	.loc	24 2259 0
	.cfi_startproc
	pushq	%rbp
	.cfi_def_cfa_offset 16
	.cfi_offset %rbp, -16
	movq	%rsp, %rbp
	.cfi_def_cfa_register %rbp
	pushq	%r15
	pushq	%r14
	pushq	%r13
	pushq	%r12
	pushq	%rbx
	subq	$88, %rsp
	.cfi_offset %rbx, -56
	.cfi_offset %r12, -48
	.cfi_offset %r13, -40
	.cfi_offset %r14, -32
	.cfi_offset %r15, -24
	movq	%rsi, %r12
Ltmp458:
	movq	%rdi, %r15
Ltmp459:
	.loc	24 2260 15 prologue_end
	movq	8(%rdi), %rbx
	.loc	24 2261 13
	cmpq	$1, %rbx
	je	LBB66_11
Ltmp460:
	cmpq	$2, %rbx
	je	LBB66_13
Ltmp461:
	testq	%rbx, %rbx
	je	LBB66_10
Ltmp462:
	.loc	4 328 9
	leaq	l___unnamed_77(%rip), %rax
Ltmp463:
	movq	%rax, -88(%rbp)
	movq	$1, -80(%rbp)
	movq	$0, -72(%rbp)
	leaq	l___unnamed_33(%rip), %rax
Ltmp464:
	movq	%rax, -56(%rbp)
	movq	$0, -48(%rbp)
	leaq	-88(%rbp), %rsi
Ltmp465:
	.loc	24 2265 22
	movq	%r12, %rdi
	callq	__ZN4core3fmt9Formatter9write_fmt17h3dc2bf45afed3069E
Ltmp466:
	.loc	24 0 22 is_stmt 0
	movb	$1, %cl
	.loc	24 2265 17
	testb	%al, %al
	jne	LBB66_15
Ltmp467:
	.loc	24 2266 33 is_stmt 1
	movq	(%r15), %r13
Ltmp468:
	.loc	9 3303 21
	shlq	$4, %rbx
	addq	$-16, %rbx
	shrq	$4, %rbx
	incq	%rbx
	xorl	%r14d, %r14d
	leaq	-88(%rbp), %r15
Ltmp469:
	.p2align	4, 0x90
LBB66_5:
	.loc	24 2266 25
	movq	%r13, -128(%rbp)
Ltmp470:
	.loc	24 2267 24
	testq	%r14, %r14
	.loc	24 2267 21 is_stmt 0
	je	LBB66_7
Ltmp471:
	.loc	4 328 9 is_stmt 1
	leaq	l___unnamed_78(%rip), %rax
	movq	%rax, -88(%rbp)
	movq	$1, -80(%rbp)
	movq	$0, -72(%rbp)
Ltmp472:
	leaq	l___unnamed_33(%rip), %rax
	movq	%rax, -56(%rbp)
	movq	$0, -48(%rbp)
Ltmp473:
	.loc	24 2268 30
	movq	%r12, %rdi
	movq	%r15, %rsi
	callq	__ZN4core3fmt9Formatter9write_fmt17h3dc2bf45afed3069E
	.loc	24 2268 25 is_stmt 0
	testb	%al, %al
	jne	LBB66_14
Ltmp474:
LBB66_7:
	.loc	24 2270 26 is_stmt 1
	leaq	-128(%rbp), %rax
	movq	%rax, -120(%rbp)
	leaq	__ZN44_$LT$$RF$T$u20$as$u20$core..fmt..Display$GT$3fmt17h968ee40e42f4fc2cE(%rip), %rax
	movq	%rax, -112(%rbp)
Ltmp475:
	.loc	4 328 9
	leaq	l___unnamed_79(%rip), %rax
	movq	%rax, -88(%rbp)
	movq	$2, -80(%rbp)
	movq	$0, -72(%rbp)
	leaq	-120(%rbp), %rax
	movq	%rax, -56(%rbp)
	movq	$1, -48(%rbp)
Ltmp476:
	.loc	24 2270 26
	movq	%r12, %rdi
	movq	%r15, %rsi
	callq	__ZN4core3fmt9Formatter9write_fmt17h3dc2bf45afed3069E
	.loc	24 2270 21 is_stmt 0
	testb	%al, %al
	jne	LBB66_14
Ltmp477:
	.loc	24 0 21
	addq	$16, %r13
Ltmp478:
	incq	%r14
Ltmp479:
	.loc	9 3179 9 is_stmt 1
	cmpq	%r14, %rbx
	.loc	9 3303 21
	jne	LBB66_5
Ltmp480:
	.loc	9 0 21 is_stmt 0
	xorl	%ecx, %ecx
	jmp	LBB66_15
Ltmp481:
LBB66_13:
	.loc	24 2263 52 is_stmt 1
	movq	(%r15), %rax
Ltmp482:
	.loc	24 2263 18 is_stmt 0
	movq	%rax, -120(%rbp)
Ltmp483:
	.loc	24 2263 67
	addq	$16, %rax
Ltmp484:
	.loc	24 2263 18
	leaq	__ZN44_$LT$$RF$T$u20$as$u20$core..fmt..Display$GT$3fmt17h84191850abfac776E(%rip), %rcx
	movq	%rcx, -112(%rbp)
	movq	%rax, -104(%rbp)
	movq	%rcx, -96(%rbp)
Ltmp485:
	.loc	4 328 9 is_stmt 1
	leaq	l___unnamed_80(%rip), %rax
Ltmp486:
	movq	%rax, -88(%rbp)
	movq	$3, -80(%rbp)
	movq	$0, -72(%rbp)
	leaq	-120(%rbp), %rax
Ltmp487:
	movq	%rax, -56(%rbp)
	movq	$2, -48(%rbp)
	jmp	LBB66_12
Ltmp488:
LBB66_11:
	.loc	24 2262 44
	movq	(%r15), %rax
Ltmp489:
	.loc	24 2262 18 is_stmt 0
	movq	%rax, -120(%rbp)
	leaq	__ZN44_$LT$$RF$T$u20$as$u20$core..fmt..Display$GT$3fmt17h84191850abfac776E(%rip), %rax
	movq	%rax, -112(%rbp)
Ltmp490:
	.loc	4 328 9 is_stmt 1
	leaq	l___unnamed_79(%rip), %rax
Ltmp491:
	movq	%rax, -88(%rbp)
	movq	$2, -80(%rbp)
	movq	$0, -72(%rbp)
	leaq	-120(%rbp), %rax
Ltmp492:
	movq	%rax, -56(%rbp)
	movq	$1, -48(%rbp)
Ltmp493:
LBB66_12:
	.loc	4 0 9 is_stmt 0
	leaq	-88(%rbp), %rsi
	movq	%r12, %rdi
	callq	__ZN4core3fmt9Formatter9write_fmt17h3dc2bf45afed3069E
	movl	%eax, %ecx
Ltmp494:
LBB66_15:
	.loc	24 2275 6 is_stmt 1
	movl	%ecx, %eax
	addq	$88, %rsp
	popq	%rbx
	popq	%r12
Ltmp495:
	popq	%r13
	popq	%r14
	popq	%r15
	popq	%rbp
	retq
LBB66_14:
Ltmp496:
	.loc	24 0 6 is_stmt 0
	movb	$1, %cl
	jmp	LBB66_15
Ltmp497:
LBB66_10:
	.loc	24 2261 18 is_stmt 1
	leaq	l___unnamed_81(%rip), %rdi
	leaq	l___unnamed_82(%rip), %rdx
	movl	$14, %esi
	callq	__ZN3std9panicking11begin_panic17h89578f1f343d82d3E
Ltmp498:
Lfunc_end66:
	.cfi_endproc
	.file	25 "/rustc/a74d1862d4d87a56244958416fd05976c58ca1a8/src/libcore/iter/adapters/mod.rs"

	.globl	__ZN5serde3ser3fmt85_$LT$impl$u20$serde..ser..Serializer$u20$for$u20$$RF$mut$u20$core..fmt..Formatter$GT$22serialize_unit_variant17hf088ee3a69fa6093E
	.p2align	4, 0x90
__ZN5serde3ser3fmt85_$LT$impl$u20$serde..ser..Serializer$u20$for$u20$$RF$mut$u20$core..fmt..Formatter$GT$22serialize_unit_variant17hf088ee3a69fa6093E:
Lfunc_begin67:
	.file	26 "/Users/yingyuhang/.cargo/registry/src/github.com-1ecc6299db9ec823/serde-1.0.114/src/ser/fmt.rs"
	.loc	26 72 0
	.cfi_startproc
	pushq	%rbp
	.cfi_def_cfa_offset 16
	.cfi_offset %rbp, -16
	movq	%rsp, %rbp
	.cfi_def_cfa_register %rbp
	movq	%r9, %rsi
Ltmp499:
	movq	%rdi, %rdx
Ltmp500:
	.loc	26 78 9 prologue_end
	movq	%r8, %rdi
Ltmp501:
	popq	%rbp
	jmp	__ZN42_$LT$str$u20$as$u20$core..fmt..Display$GT$3fmt17hd4dee1c1c4ccf892E
Ltmp502:
Lfunc_end67:
	.cfi_endproc

	.globl	__ZN5serde3ser3fmt85_$LT$impl$u20$serde..ser..Serializer$u20$for$u20$$RF$mut$u20$core..fmt..Formatter$GT$15serialize_bytes17h3ad740255fa65a27E
	.p2align	4, 0x90
__ZN5serde3ser3fmt85_$LT$impl$u20$serde..ser..Serializer$u20$for$u20$$RF$mut$u20$core..fmt..Formatter$GT$15serialize_bytes17h3ad740255fa65a27E:
Lfunc_begin68:
	.loc	26 88 0
	.cfi_startproc
	pushq	%rbp
	.cfi_def_cfa_offset 16
	.cfi_offset %rbp, -16
	movq	%rsp, %rbp
	.cfi_def_cfa_register %rbp
Ltmp503:
	.loc	26 90 6 prologue_end
	movb	$1, %al
	popq	%rbp
	retq
Ltmp504:
Lfunc_end68:
	.cfi_endproc

	.globl	__ZN5serde3ser3fmt85_$LT$impl$u20$serde..ser..Serializer$u20$for$u20$$RF$mut$u20$core..fmt..Formatter$GT$14serialize_none17h66325894495a63d1E
	.p2align	4, 0x90
__ZN5serde3ser3fmt85_$LT$impl$u20$serde..ser..Serializer$u20$for$u20$$RF$mut$u20$core..fmt..Formatter$GT$14serialize_none17h66325894495a63d1E:
Lfunc_begin69:
	.loc	26 92 0
	.cfi_startproc
	pushq	%rbp
	.cfi_def_cfa_offset 16
	.cfi_offset %rbp, -16
	movq	%rsp, %rbp
	.cfi_def_cfa_register %rbp
Ltmp505:
	.loc	26 94 6 prologue_end
	movb	$1, %al
	popq	%rbp
	retq
Ltmp506:
Lfunc_end69:
	.cfi_endproc

	.globl	__ZN5serde3ser3fmt85_$LT$impl$u20$serde..ser..Serializer$u20$for$u20$$RF$mut$u20$core..fmt..Formatter$GT$15serialize_tuple17h6dd0b27de41e9e3bE
	.p2align	4, 0x90
__ZN5serde3ser3fmt85_$LT$impl$u20$serde..ser..Serializer$u20$for$u20$$RF$mut$u20$core..fmt..Formatter$GT$15serialize_tuple17h6dd0b27de41e9e3bE:
Lfunc_begin70:
	.loc	26 124 0
	.cfi_startproc
	pushq	%rbp
	.cfi_def_cfa_offset 16
	.cfi_offset %rbp, -16
	movq	%rsp, %rbp
	.cfi_def_cfa_register %rbp
Ltmp507:
	.loc	26 126 6 prologue_end
	popq	%rbp
	retq
Ltmp508:
Lfunc_end70:
	.cfi_endproc

	.globl	__ZN5serde3ser3fmt85_$LT$impl$u20$serde..ser..Serializer$u20$for$u20$$RF$mut$u20$core..fmt..Formatter$GT$23serialize_tuple_variant17h9edf4aee06af735aE
	.p2align	4, 0x90
__ZN5serde3ser3fmt85_$LT$impl$u20$serde..ser..Serializer$u20$for$u20$$RF$mut$u20$core..fmt..Formatter$GT$23serialize_tuple_variant17h9edf4aee06af735aE:
Lfunc_begin71:
	.loc	26 136 0
	.cfi_startproc
	pushq	%rbp
	.cfi_def_cfa_offset 16
	.cfi_offset %rbp, -16
	movq	%rsp, %rbp
	.cfi_def_cfa_register %rbp
Ltmp509:
	.loc	26 144 6 prologue_end
	popq	%rbp
	retq
Ltmp510:
Lfunc_end71:
	.cfi_endproc

	.globl	__ZN5serde3ser3fmt85_$LT$impl$u20$serde..ser..Serializer$u20$for$u20$$RF$mut$u20$core..fmt..Formatter$GT$13serialize_map17hf59726d90b189919E
	.p2align	4, 0x90
__ZN5serde3ser3fmt85_$LT$impl$u20$serde..ser..Serializer$u20$for$u20$$RF$mut$u20$core..fmt..Formatter$GT$13serialize_map17hf59726d90b189919E:
Lfunc_begin72:
	.loc	26 146 0
	.cfi_startproc
	pushq	%rbp
	.cfi_def_cfa_offset 16
	.cfi_offset %rbp, -16
	movq	%rsp, %rbp
	.cfi_def_cfa_register %rbp
Ltmp511:
	.loc	26 148 6 prologue_end
	popq	%rbp
	retq
Ltmp512:
Lfunc_end72:
	.cfi_endproc

	.globl	__ZN5serde3ser3fmt85_$LT$impl$u20$serde..ser..Serializer$u20$for$u20$$RF$mut$u20$core..fmt..Formatter$GT$16serialize_struct17h139f67abd0136102E
	.p2align	4, 0x90
__ZN5serde3ser3fmt85_$LT$impl$u20$serde..ser..Serializer$u20$for$u20$$RF$mut$u20$core..fmt..Formatter$GT$16serialize_struct17h139f67abd0136102E:
Lfunc_begin73:
	.loc	26 150 0
	.cfi_startproc
	pushq	%rbp
	.cfi_def_cfa_offset 16
	.cfi_offset %rbp, -16
	movq	%rsp, %rbp
	.cfi_def_cfa_register %rbp
Ltmp513:
	.loc	26 156 6 prologue_end
	popq	%rbp
	retq
Ltmp514:
Lfunc_end73:
	.cfi_endproc

	.globl	__ZN5serde6export6string15from_utf8_lossy17hcd2f78626acbf64bE
	.p2align	4, 0x90
__ZN5serde6export6string15from_utf8_lossy17hcd2f78626acbf64bE:
Lfunc_begin74:
	.file	27 "/Users/yingyuhang/.cargo/registry/src/github.com-1ecc6299db9ec823/serde-1.0.114/src/export.rs"
	.loc	27 21 0
	.cfi_startproc
	pushq	%rbp
	.cfi_def_cfa_offset 16
	.cfi_offset %rbp, -16
	movq	%rsp, %rbp
	.cfi_def_cfa_register %rbp
	pushq	%rbx
	pushq	%rax
	.cfi_offset %rbx, -24
	movq	%rdi, %rbx
Ltmp515:
	.loc	27 22 9 prologue_end
	callq	__ZN5alloc6string6String15from_utf8_lossy17h7db150745d15adb6E
Ltmp516:
	.loc	27 23 6
	movq	%rbx, %rax
	addq	$8, %rsp
	popq	%rbx
	popq	%rbp
	retq
Ltmp517:
Lfunc_end74:
	.cfi_endproc

	.globl	__ZN92_$LT$serde..private..de..borrow_cow_bytes..CowBytesVisitor$u20$as$u20$serde..de..Visitor$GT$9expecting17hccf58126dc39b8edE
	.p2align	4, 0x90
__ZN92_$LT$serde..private..de..borrow_cow_bytes..CowBytesVisitor$u20$as$u20$serde..de..Visitor$GT$9expecting17hccf58126dc39b8edE:
Lfunc_begin75:
	.file	28 "/Users/yingyuhang/.cargo/registry/src/github.com-1ecc6299db9ec823/serde-1.0.114/src/private/de.rs"
	.loc	28 139 0
	.cfi_startproc
	pushq	%rbp
	.cfi_def_cfa_offset 16
	.cfi_offset %rbp, -16
	movq	%rsp, %rbp
	.cfi_def_cfa_register %rbp
	movq	%rsi, %rdi
Ltmp518:
	.loc	28 140 13 prologue_end
	leaq	l___unnamed_83(%rip), %rsi
	movl	$12, %edx
	popq	%rbp
	jmp	__ZN4core3fmt9Formatter9write_str17h957ea9717e49073dE
Ltmp519:
Lfunc_end75:
	.cfi_endproc

	.globl	__ZN5serde7private2de9size_hint6helper17h2ee30ceaddc7b193E
	.p2align	4, 0x90
__ZN5serde7private2de9size_hint6helper17h2ee30ceaddc7b193E:
Lfunc_begin76:
	.loc	28 206 0
	.cfi_startproc
	pushq	%rbp
	.cfi_def_cfa_offset 16
	.cfi_offset %rbp, -16
	movq	%rsp, %rbp
	.cfi_def_cfa_register %rbp
Ltmp520:
	.loc	28 208 21 prologue_end
	cmpq	$1, 8(%rdi)
	jne	LBB76_1
Ltmp521:
	.loc	28 208 46 is_stmt 0
	movq	16(%rdi), %rdx
	.loc	28 208 37
	xorl	%eax, %eax
	cmpq	%rdx, (%rdi)
	sete	%al
	.loc	28 211 6 is_stmt 1
	popq	%rbp
	retq
Ltmp522:
LBB76_1:
	.loc	28 0 6 is_stmt 0
	xorl	%eax, %eax
	.loc	28 211 6
	popq	%rbp
	retq
Ltmp523:
Lfunc_end76:
	.cfi_endproc

	.globl	__ZN5serde7private2de7content7Content6as_str17h5c83a0308d9d696cE
	.p2align	4, 0x90
__ZN5serde7private2de7content7Content6as_str17h5c83a0308d9d696cE:
Lfunc_begin77:
	.loc	28 271 0 is_stmt 1
	.cfi_startproc
	pushq	%rbp
	.cfi_def_cfa_offset 16
	.cfi_offset %rbp, -16
	movq	%rsp, %rbp
	.cfi_def_cfa_register %rbp
	subq	$32, %rsp
Ltmp524:
	.loc	28 273 17 prologue_end
	movzbl	(%rdi), %eax
	addq	$-12, %rax
	cmpq	$3, %rax
	ja	LBB77_8
Ltmp525:
	.loc	28 0 17 is_stmt 0
	leaq	LJTI77_0(%rip), %rcx
	movslq	(%rcx,%rax,4), %rax
	addq	%rcx, %rax
	jmpq	*%rax
Ltmp526:
LBB77_2:
	.loc	6 814 19 is_stmt 1
	movq	8(%rdi), %rax
Ltmp527:
	.loc	6 1966 55
	movq	24(%rdi), %rdx
Ltmp528:
	.loc	28 279 10
	addq	$32, %rsp
	popq	%rbp
	retq
Ltmp529:
LBB77_3:
	.loc	6 814 19
	movq	8(%rdi), %rsi
Ltmp530:
	.loc	6 1966 55
	movq	24(%rdi), %rdx
	jmp	LBB77_4
Ltmp531:
LBB77_6:
	.loc	28 275 32
	movq	8(%rdi), %rsi
Ltmp532:
	movq	16(%rdi), %rdx
Ltmp533:
LBB77_4:
	.loc	28 0 32 is_stmt 0
	leaq	-24(%rbp), %rdi
Ltmp534:
	callq	__ZN4core3str9from_utf817he06957962f38305fE
	movq	-8(%rbp), %rdx
	cmpq	$1, -24(%rbp)
	je	LBB77_5
Ltmp535:
	movq	-16(%rbp), %rax
	.loc	28 279 10 is_stmt 1
	addq	$32, %rsp
	popq	%rbp
	retq
LBB77_5:
	.loc	28 0 10 is_stmt 0
	xorl	%eax, %eax
	.loc	28 279 10
	addq	$32, %rsp
	popq	%rbp
	retq
LBB77_8:
Ltmp536:
	.loc	28 0 10
	xorl	%eax, %eax
	.loc	28 279 10
	addq	$32, %rsp
	popq	%rbp
	retq
Ltmp537:
LBB77_9:
	.loc	28 273 30 is_stmt 1
	movq	8(%rdi), %rax
	movq	16(%rdi), %rdx
	.loc	28 279 10
	addq	$32, %rsp
	popq	%rbp
	retq
Ltmp538:
Lfunc_end77:
	.cfi_endproc
	.p2align	2, 0x90
	.data_region jt32
.set L77_0_set_2, LBB77_2-LJTI77_0
.set L77_0_set_9, LBB77_9-LJTI77_0
.set L77_0_set_3, LBB77_3-LJTI77_0
.set L77_0_set_6, LBB77_6-LJTI77_0
LJTI77_0:
	.long	L77_0_set_2
	.long	L77_0_set_9
	.long	L77_0_set_3
	.long	L77_0_set_6
	.end_data_region

	.globl	__ZN5serde7private2de7content7Content10unexpected17h76423eff4f98c26aE
	.p2align	4, 0x90
__ZN5serde7private2de7content7Content10unexpected17h76423eff4f98c26aE:
Lfunc_begin78:
	.loc	28 282 0
	.cfi_startproc
	pushq	%rbp
	.cfi_def_cfa_offset 16
	.cfi_offset %rbp, -16
	movq	%rsp, %rbp
	.cfi_def_cfa_register %rbp
	movq	%rdi, %rax
Ltmp539:
	.loc	28 284 17 prologue_end
	movzbl	(%rsi), %edx
	movb	$11, %cl
	leaq	LJTI78_0(%rip), %rdi
	movslq	(%rdi,%rdx,4), %rdx
	addq	%rdi, %rdx
	jmpq	*%rdx
Ltmp540:
LBB78_19:
	.loc	28 0 17 is_stmt 0
	movb	$8, %cl
Ltmp541:
LBB78_23:
	movb	%cl, (%rax)
	.loc	28 306 10 is_stmt 1
	popq	%rbp
	retq
Ltmp542:
LBB78_1:
	.loc	28 284 31
	movb	1(%rsi), %cl
Ltmp543:
	.loc	28 284 37 is_stmt 0
	movb	%cl, 1(%rax)
	xorl	%ecx, %ecx
Ltmp544:
	.loc	28 0 0
	movb	%cl, (%rax)
	.loc	28 306 10 is_stmt 1
	popq	%rbp
	retq
Ltmp545:
LBB78_2:
	.loc	28 285 29
	movzbl	1(%rsi), %ecx
	jmp	LBB78_3
Ltmp546:
LBB78_4:
	.loc	28 286 30
	movzwl	2(%rsi), %ecx
	jmp	LBB78_3
Ltmp547:
LBB78_5:
	.loc	28 287 30
	movl	4(%rsi), %ecx
	jmp	LBB78_3
Ltmp548:
LBB78_6:
	.loc	28 288 30
	movq	8(%rsi), %rcx
Ltmp549:
LBB78_3:
	.loc	28 0 0 is_stmt 0
	movq	%rcx, 8(%rax)
	movb	$1, %cl
	movb	%cl, (%rax)
	.loc	28 306 10 is_stmt 1
	popq	%rbp
	retq
Ltmp550:
LBB78_7:
	.loc	28 289 29
	movsbq	1(%rsi), %rcx
	jmp	LBB78_8
Ltmp551:
LBB78_9:
	.loc	28 290 30
	movswq	2(%rsi), %rcx
	jmp	LBB78_8
Ltmp552:
LBB78_10:
	.loc	28 291 30
	movslq	4(%rsi), %rcx
	jmp	LBB78_8
Ltmp553:
LBB78_11:
	.loc	28 292 30
	movq	8(%rsi), %rcx
Ltmp554:
LBB78_8:
	.loc	28 0 0 is_stmt 0
	movq	%rcx, 8(%rax)
	movb	$2, %cl
	movb	%cl, (%rax)
	.loc	28 306 10 is_stmt 1
	popq	%rbp
	retq
Ltmp555:
LBB78_12:
	.loc	28 293 30
	movss	4(%rsi), %xmm0
Ltmp556:
	.loc	28 293 54 is_stmt 0
	cvtss2sd	%xmm0, %xmm0
Ltmp557:
	.loc	28 293 36
	movsd	%xmm0, 8(%rax)
	movb	$3, %cl
Ltmp558:
	.loc	28 0 0
	movb	%cl, (%rax)
	.loc	28 306 10 is_stmt 1
	popq	%rbp
	retq
Ltmp559:
LBB78_13:
	.loc	28 294 30
	movq	8(%rsi), %rcx
Ltmp560:
	.loc	28 294 36 is_stmt 0
	movq	%rcx, 8(%rax)
	movb	$3, %cl
Ltmp561:
	.loc	28 0 0
	movb	%cl, (%rax)
	.loc	28 306 10 is_stmt 1
	popq	%rbp
	retq
Ltmp562:
LBB78_14:
	.loc	28 295 31
	movl	4(%rsi), %ecx
Ltmp563:
	.loc	28 295 37 is_stmt 0
	movl	%ecx, 4(%rax)
	movb	$4, %cl
Ltmp564:
	.loc	28 0 0
	movb	%cl, (%rax)
	.loc	28 306 10 is_stmt 1
	popq	%rbp
	retq
Ltmp565:
LBB78_15:
	.loc	6 814 19
	movq	8(%rsi), %rcx
Ltmp566:
	.loc	6 1966 55
	movq	24(%rsi), %rdx
Ltmp567:
	.loc	28 296 43
	movq	%rcx, 8(%rax)
	movq	%rdx, 16(%rax)
	movb	$5, %cl
Ltmp568:
	.loc	28 0 0 is_stmt 0
	movb	%cl, (%rax)
	.loc	28 306 10 is_stmt 1
	popq	%rbp
	retq
Ltmp569:
LBB78_16:
	.loc	28 297 30
	movups	8(%rsi), %xmm0
Ltmp570:
	.loc	28 297 36 is_stmt 0
	movups	%xmm0, 8(%rax)
	movb	$5, %cl
Ltmp571:
	.loc	28 0 0
	movb	%cl, (%rax)
	.loc	28 306 10 is_stmt 1
	popq	%rbp
	retq
Ltmp572:
LBB78_17:
	.loc	6 814 19
	movq	8(%rsi), %rcx
Ltmp573:
	.loc	6 1966 55
	movq	24(%rsi), %rdx
Ltmp574:
	.loc	28 298 44
	movq	%rcx, 8(%rax)
	movq	%rdx, 16(%rax)
	movb	$6, %cl
Ltmp575:
	.loc	28 0 0 is_stmt 0
	movb	%cl, (%rax)
	.loc	28 306 10 is_stmt 1
	popq	%rbp
	retq
Ltmp576:
LBB78_18:
	.loc	28 299 32
	movups	8(%rsi), %xmm0
Ltmp577:
	.loc	28 299 38 is_stmt 0
	movups	%xmm0, 8(%rax)
	movb	$6, %cl
Ltmp578:
	.loc	28 0 0
	movb	%cl, (%rax)
	.loc	28 306 10 is_stmt 1
	popq	%rbp
	retq
Ltmp579:
LBB78_20:
	.loc	28 0 10 is_stmt 0
	movb	$7, %cl
	movb	%cl, (%rax)
	.loc	28 306 10
	popq	%rbp
	retq
Ltmp580:
LBB78_21:
	.loc	28 0 10
	movb	$9, %cl
	movb	%cl, (%rax)
	.loc	28 306 10
	popq	%rbp
	retq
Ltmp581:
LBB78_22:
	.loc	28 0 10
	movb	$10, %cl
	movb	%cl, (%rax)
	.loc	28 306 10
	popq	%rbp
	retq
Ltmp582:
Lfunc_end78:
	.cfi_endproc
	.p2align	2, 0x90
	.data_region jt32
.set L78_0_set_1, LBB78_1-LJTI78_0
.set L78_0_set_2, LBB78_2-LJTI78_0
.set L78_0_set_4, LBB78_4-LJTI78_0
.set L78_0_set_5, LBB78_5-LJTI78_0
.set L78_0_set_6, LBB78_6-LJTI78_0
.set L78_0_set_7, LBB78_7-LJTI78_0
.set L78_0_set_9, LBB78_9-LJTI78_0
.set L78_0_set_10, LBB78_10-LJTI78_0
.set L78_0_set_11, LBB78_11-LJTI78_0
.set L78_0_set_12, LBB78_12-LJTI78_0
.set L78_0_set_13, LBB78_13-LJTI78_0
.set L78_0_set_14, LBB78_14-LJTI78_0
.set L78_0_set_15, LBB78_15-LJTI78_0
.set L78_0_set_16, LBB78_16-LJTI78_0
.set L78_0_set_17, LBB78_17-LJTI78_0
.set L78_0_set_18, LBB78_18-LJTI78_0
.set L78_0_set_19, LBB78_19-LJTI78_0
.set L78_0_set_20, LBB78_20-LJTI78_0
.set L78_0_set_21, LBB78_21-LJTI78_0
.set L78_0_set_22, LBB78_22-LJTI78_0
.set L78_0_set_23, LBB78_23-LJTI78_0
LJTI78_0:
	.long	L78_0_set_1
	.long	L78_0_set_2
	.long	L78_0_set_4
	.long	L78_0_set_5
	.long	L78_0_set_6
	.long	L78_0_set_7
	.long	L78_0_set_9
	.long	L78_0_set_10
	.long	L78_0_set_11
	.long	L78_0_set_12
	.long	L78_0_set_13
	.long	L78_0_set_14
	.long	L78_0_set_15
	.long	L78_0_set_16
	.long	L78_0_set_17
	.long	L78_0_set_18
	.long	L78_0_set_19
	.long	L78_0_set_19
	.long	L78_0_set_20
	.long	L78_0_set_21
	.long	L78_0_set_22
	.long	L78_0_set_23
	.end_data_region

	.globl	__ZN5serde7private2de7content14ContentVisitor3new17h35ee3996a63ca584E
	.p2align	4, 0x90
__ZN5serde7private2de7content14ContentVisitor3new17h35ee3996a63ca584E:
Lfunc_begin79:
	.loc	28 326 0 is_stmt 1
	.cfi_startproc
	pushq	%rbp
	.cfi_def_cfa_offset 16
	.cfi_offset %rbp, -16
	movq	%rsp, %rbp
	.cfi_def_cfa_register %rbp
Ltmp583:
	.loc	28 328 10 prologue_end
	popq	%rbp
	retq
Ltmp584:
Lfunc_end79:
	.cfi_endproc

	.globl	__ZN82_$LT$serde..private..de..content..ContentVisitor$u20$as$u20$serde..de..Visitor$GT$9expecting17hdda1b83e173fcf7bE
	.p2align	4, 0x90
__ZN82_$LT$serde..private..de..content..ContentVisitor$u20$as$u20$serde..de..Visitor$GT$9expecting17hdda1b83e173fcf7bE:
Lfunc_begin80:
	.loc	28 334 0
	.cfi_startproc
	pushq	%rbp
	.cfi_def_cfa_offset 16
	.cfi_offset %rbp, -16
	movq	%rsp, %rbp
	.cfi_def_cfa_register %rbp
	movq	%rsi, %rdi
Ltmp585:
	.loc	28 335 13 prologue_end
	leaq	l___unnamed_84(%rip), %rsi
	movl	$9, %edx
	popq	%rbp
	jmp	__ZN4core3fmt9Formatter9write_str17h957ea9717e49073dE
Ltmp586:
Lfunc_end80:
	.cfi_endproc

	.globl	__ZN5serde7private2de7content19TagOrContentVisitor3new17h4e632a1909d481f9E
	.p2align	4, 0x90
__ZN5serde7private2de7content19TagOrContentVisitor3new17h4e632a1909d481f9E:
Lfunc_begin81:
	.loc	28 538 0
	.cfi_startproc
	pushq	%rbp
	.cfi_def_cfa_offset 16
	.cfi_offset %rbp, -16
	movq	%rsp, %rbp
	.cfi_def_cfa_register %rbp
	movq	%rsi, %rdx
Ltmp587:
	movq	%rdi, %rax
Ltmp588:
	.loc	28 543 10 prologue_end
	popq	%rbp
	retq
Ltmp589:
Lfunc_end81:
	.cfi_endproc

	.globl	__ZN87_$LT$serde..private..de..content..TagOrContentVisitor$u20$as$u20$serde..de..Visitor$GT$9expecting17hc84b8ee93bef2ca1E
	.p2align	4, 0x90
__ZN87_$LT$serde..private..de..content..TagOrContentVisitor$u20$as$u20$serde..de..Visitor$GT$9expecting17hc84b8ee93bef2ca1E:
Lfunc_begin82:
	.loc	28 562 0
	.cfi_startproc
	pushq	%rbp
	.cfi_def_cfa_offset 16
	.cfi_offset %rbp, -16
	movq	%rsp, %rbp
	.cfi_def_cfa_register %rbp
	subq	$64, %rsp
	movq	%rsi, %rax
Ltmp590:
	.loc	28 563 13 prologue_end
	movq	%rdi, -16(%rbp)
	leaq	__ZN44_$LT$$RF$T$u20$as$u20$core..fmt..Display$GT$3fmt17h84191850abfac776E(%rip), %rcx
	movq	%rcx, -8(%rbp)
Ltmp591:
	.loc	4 328 9
	leaq	l___unnamed_85(%rip), %rcx
Ltmp592:
	movq	%rcx, -64(%rbp)
	movq	$2, -56(%rbp)
	movq	$0, -48(%rbp)
	leaq	-16(%rbp), %rcx
Ltmp593:
	movq	%rcx, -32(%rbp)
	movq	$1, -24(%rbp)
	leaq	-64(%rbp), %rsi
Ltmp594:
	.loc	28 563 13
	movq	%rax, %rdi
Ltmp595:
	callq	__ZN4core3fmt9Formatter9write_fmt17h3dc2bf45afed3069E
Ltmp596:
	.loc	28 564 10
	addq	$64, %rsp
	popq	%rbp
	retq
Ltmp597:
Lfunc_end82:
	.cfi_endproc

	.globl	__ZN92_$LT$serde..private..de..content..TagOrContentFieldVisitor$u20$as$u20$serde..de..Visitor$GT$9expecting17h61a4c9a127dc51b4E
	.p2align	4, 0x90
__ZN92_$LT$serde..private..de..content..TagOrContentFieldVisitor$u20$as$u20$serde..de..Visitor$GT$9expecting17h61a4c9a127dc51b4E:
Lfunc_begin83:
	.loc	28 942 0
	.cfi_startproc
	pushq	%rbp
	.cfi_def_cfa_offset 16
	.cfi_offset %rbp, -16
	movq	%rsp, %rbp
	.cfi_def_cfa_register %rbp
	subq	$80, %rsp
	movq	%rsi, %rax
Ltmp598:
	.loc	28 943 13 prologue_end
	movq	%rdi, -32(%rbp)
Ltmp599:
	.loc	28 943 57 is_stmt 0
	addq	$16, %rdi
Ltmp600:
	.loc	28 943 13
	leaq	__ZN42_$LT$$RF$T$u20$as$u20$core..fmt..Debug$GT$3fmt17hf38f6a13287ee643E(%rip), %rcx
	movq	%rcx, -24(%rbp)
	movq	%rdi, -16(%rbp)
	movq	%rcx, -8(%rbp)
Ltmp601:
	.loc	4 328 9 is_stmt 1
	leaq	l___unnamed_86(%rip), %rcx
Ltmp602:
	movq	%rcx, -80(%rbp)
	movq	$2, -72(%rbp)
	movq	$0, -64(%rbp)
	leaq	-32(%rbp), %rcx
Ltmp603:
	movq	%rcx, -48(%rbp)
	movq	$2, -40(%rbp)
	leaq	-80(%rbp), %rsi
Ltmp604:
	.loc	28 943 13
	movq	%rax, %rdi
Ltmp605:
	callq	__ZN4core3fmt9Formatter9write_fmt17h3dc2bf45afed3069E
Ltmp606:
	.loc	28 944 10
	addq	$80, %rsp
	popq	%rbp
	retq
Ltmp607:
Lfunc_end83:
	.cfi_endproc

	.globl	__ZN95_$LT$serde..private..de..content..TagContentOtherFieldVisitor$u20$as$u20$serde..de..Visitor$GT$9expecting17h628d1a6376b0c16cE
	.p2align	4, 0x90
__ZN95_$LT$serde..private..de..content..TagContentOtherFieldVisitor$u20$as$u20$serde..de..Visitor$GT$9expecting17h628d1a6376b0c16cE:
Lfunc_begin84:
	.loc	28 990 0
	.cfi_startproc
	pushq	%rbp
	.cfi_def_cfa_offset 16
	.cfi_offset %rbp, -16
	movq	%rsp, %rbp
	.cfi_def_cfa_register %rbp
	subq	$80, %rsp
	movq	%rsi, %rax
Ltmp608:
	.loc	28 991 13 prologue_end
	movq	%rdi, -32(%rbp)
Ltmp609:
	.loc	28 994 27
	addq	$16, %rdi
Ltmp610:
	.loc	28 991 13
	leaq	__ZN42_$LT$$RF$T$u20$as$u20$core..fmt..Debug$GT$3fmt17hf38f6a13287ee643E(%rip), %rcx
	movq	%rcx, -24(%rbp)
	movq	%rdi, -16(%rbp)
	movq	%rcx, -8(%rbp)
Ltmp611:
	.loc	4 328 9
	leaq	l___unnamed_87(%rip), %rcx
Ltmp612:
	movq	%rcx, -80(%rbp)
	movq	$3, -72(%rbp)
	movq	$0, -64(%rbp)
	leaq	-32(%rbp), %rcx
Ltmp613:
	movq	%rcx, -48(%rbp)
	movq	$2, -40(%rbp)
	leaq	-80(%rbp), %rsi
Ltmp614:
	.loc	28 991 13
	movq	%rax, %rdi
Ltmp615:
	callq	__ZN4core3fmt9Formatter9write_fmt17h3dc2bf45afed3069E
Ltmp616:
	.loc	28 996 10
	addq	$80, %rsp
	popq	%rbp
	retq
Ltmp617:
Lfunc_end84:
	.cfi_endproc

	.globl	__ZN5serde7private2de7content19UntaggedUnitVisitor3new17h6d45213cdd2957deE
	.p2align	4, 0x90
__ZN5serde7private2de7content19UntaggedUnitVisitor3new17h6d45213cdd2957deE:
Lfunc_begin85:
	.loc	28 2492 0
	.cfi_startproc
	pushq	%rbp
	.cfi_def_cfa_offset 16
	.cfi_offset %rbp, -16
	movq	%rsp, %rbp
	.cfi_def_cfa_register %rbp
	movq	%rdi, %rax
Ltmp618:
	.loc	28 2493 13 prologue_end
	movq	%rsi, (%rdi)
	movq	%rdx, 8(%rdi)
	movq	%rcx, 16(%rdi)
	movq	%r8, 24(%rdi)
	.loc	28 2497 10
	popq	%rbp
	retq
Ltmp619:
Lfunc_end85:
	.cfi_endproc

	.globl	__ZN87_$LT$serde..private..de..content..UntaggedUnitVisitor$u20$as$u20$serde..de..Visitor$GT$9expecting17h8490de94e4eda722E
	.p2align	4, 0x90
__ZN87_$LT$serde..private..de..content..UntaggedUnitVisitor$u20$as$u20$serde..de..Visitor$GT$9expecting17h8490de94e4eda722E:
Lfunc_begin86:
	.loc	28 2503 0
	.cfi_startproc
	pushq	%rbp
	.cfi_def_cfa_offset 16
	.cfi_offset %rbp, -16
	movq	%rsp, %rbp
	.cfi_def_cfa_register %rbp
	subq	$80, %rsp
	movq	%rsi, %rax
Ltmp620:
	.loc	28 2504 13 prologue_end
	movq	%rdi, -32(%rbp)
Ltmp621:
	.loc	28 2507 33
	addq	$16, %rdi
Ltmp622:
	.loc	28 2504 13
	leaq	__ZN44_$LT$$RF$T$u20$as$u20$core..fmt..Display$GT$3fmt17h84191850abfac776E(%rip), %rcx
	movq	%rcx, -24(%rbp)
	movq	%rdi, -16(%rbp)
	movq	%rcx, -8(%rbp)
Ltmp623:
	.loc	4 328 9
	leaq	l___unnamed_88(%rip), %rcx
Ltmp624:
	movq	%rcx, -80(%rbp)
	movq	$2, -72(%rbp)
	movq	$0, -64(%rbp)
	leaq	-32(%rbp), %rcx
Ltmp625:
	movq	%rcx, -48(%rbp)
	movq	$2, -40(%rbp)
	leaq	-80(%rbp), %rsi
Ltmp626:
	.loc	28 2504 13
	movq	%rax, %rdi
Ltmp627:
	callq	__ZN4core3fmt9Formatter9write_fmt17h3dc2bf45afed3069E
Ltmp628:
	.loc	28 2509 10
	addq	$80, %rsp
	popq	%rbp
	retq
Ltmp629:
Lfunc_end86:
	.cfi_endproc

	.globl	__ZN71_$LT$serde..private..ser..Unsupported$u20$as$u20$core..fmt..Display$GT$3fmt17h8fa5898910007668E
	.p2align	4, 0x90
__ZN71_$LT$serde..private..ser..Unsupported$u20$as$u20$core..fmt..Display$GT$3fmt17h8fa5898910007668E:
Lfunc_begin87:
	.file	29 "/Users/yingyuhang/.cargo/registry/src/github.com-1ecc6299db9ec823/serde-1.0.114/src/private/ser.rs"
	.loc	29 64 0
	.cfi_startproc
	pushq	%rbp
	.cfi_def_cfa_offset 16
	.cfi_offset %rbp, -16
	movq	%rsp, %rbp
	.cfi_def_cfa_register %rbp
	movq	%rsi, %rax
Ltmp630:
	.loc	29 66 13 prologue_end
	movzbl	(%rdi), %ecx
	leaq	LJTI87_0(%rip), %rdx
	movslq	(%rdx,%rcx,4), %rcx
	addq	%rdx, %rcx
	jmpq	*%rcx
Ltmp631:
LBB87_4:
	.loc	29 66 37 is_stmt 0
	leaq	l___unnamed_40(%rip), %rsi
	movl	$9, %edx
	.loc	29 0 0
	movq	%rax, %rdi
Ltmp632:
	popq	%rbp
	jmp	__ZN4core3fmt9Formatter9write_str17h957ea9717e49073dE
Ltmp633:
LBB87_5:
	.loc	29 67 37 is_stmt 1
	leaq	l___unnamed_89(%rip), %rsi
	.loc	29 0 0 is_stmt 0
	movl	$10, %edx
	movq	%rax, %rdi
Ltmp634:
	popq	%rbp
	jmp	__ZN4core3fmt9Formatter9write_str17h957ea9717e49073dE
Ltmp635:
LBB87_7:
	.loc	29 68 35 is_stmt 1
	leaq	l___unnamed_90(%rip), %rsi
	.loc	29 0 0 is_stmt 0
	movl	$7, %edx
	movq	%rax, %rdi
Ltmp636:
	popq	%rbp
	jmp	__ZN4core3fmt9Formatter9write_str17h957ea9717e49073dE
Ltmp637:
LBB87_8:
	.loc	29 69 34 is_stmt 1
	leaq	l___unnamed_91(%rip), %rsi
	movl	$6, %edx
	.loc	29 0 0 is_stmt 0
	movq	%rax, %rdi
Ltmp638:
	popq	%rbp
	jmp	__ZN4core3fmt9Formatter9write_str17h957ea9717e49073dE
Ltmp639:
LBB87_9:
	.loc	29 70 36 is_stmt 1
	leaq	L___unnamed_42(%rip), %rsi
	movl	$8, %edx
	.loc	29 0 0 is_stmt 0
	movq	%rax, %rdi
Ltmp640:
	popq	%rbp
	jmp	__ZN4core3fmt9Formatter9write_str17h957ea9717e49073dE
Ltmp641:
LBB87_10:
	.loc	29 71 39 is_stmt 1
	leaq	l___unnamed_83(%rip), %rsi
	movl	$12, %edx
	.loc	29 0 0 is_stmt 0
	movq	%rax, %rdi
Ltmp642:
	popq	%rbp
	jmp	__ZN4core3fmt9Formatter9write_str17h957ea9717e49073dE
Ltmp643:
LBB87_11:
	.loc	29 72 38 is_stmt 1
	leaq	l___unnamed_92(%rip), %rsi
	.loc	29 0 0 is_stmt 0
	movl	$11, %edx
	movq	%rax, %rdi
Ltmp644:
	popq	%rbp
	jmp	__ZN4core3fmt9Formatter9write_str17h957ea9717e49073dE
Ltmp645:
LBB87_13:
	.loc	29 73 34 is_stmt 1
	leaq	L___unnamed_39(%rip), %rsi
	movl	$4, %edx
	.loc	29 0 0 is_stmt 0
	movq	%rax, %rdi
Ltmp646:
	popq	%rbp
	jmp	__ZN4core3fmt9Formatter9write_str17h957ea9717e49073dE
Ltmp647:
LBB87_14:
	.loc	29 75 40 is_stmt 1
	leaq	l___unnamed_93(%rip), %rsi
	.loc	29 0 0 is_stmt 0
	movl	$11, %edx
	movq	%rax, %rdi
Ltmp648:
	popq	%rbp
	jmp	__ZN4core3fmt9Formatter9write_str17h957ea9717e49073dE
Ltmp649:
LBB87_15:
	.loc	29 76 38 is_stmt 1
	leaq	l___unnamed_94(%rip), %rsi
	.loc	29 0 0 is_stmt 0
	movl	$10, %edx
	movq	%rax, %rdi
Ltmp650:
	popq	%rbp
	jmp	__ZN4core3fmt9Formatter9write_str17h957ea9717e49073dE
Ltmp651:
LBB87_16:
	.loc	29 77 35 is_stmt 1
	leaq	l___unnamed_95(%rip), %rsi
	.loc	29 0 0 is_stmt 0
	movl	$7, %edx
	movq	%rax, %rdi
Ltmp652:
	popq	%rbp
	jmp	__ZN4core3fmt9Formatter9write_str17h957ea9717e49073dE
Ltmp653:
LBB87_17:
	.loc	29 78 41 is_stmt 1
	leaq	l___unnamed_96(%rip), %rsi
	movl	$14, %edx
	.loc	29 0 0 is_stmt 0
	movq	%rax, %rdi
Ltmp654:
	popq	%rbp
	jmp	__ZN4core3fmt9Formatter9write_str17h957ea9717e49073dE
Ltmp655:
LBB87_1:
	.loc	29 79 34 is_stmt 1
	leaq	l___unnamed_97(%rip), %rsi
	.loc	29 0 0 is_stmt 0
	movl	$7, %edx
	movq	%rax, %rdi
Ltmp656:
	popq	%rbp
	jmp	__ZN4core3fmt9Formatter9write_str17h957ea9717e49073dE
Ltmp657:
Lfunc_end87:
	.cfi_endproc
	.p2align	2, 0x90
	.data_region jt32
.set L87_0_set_4, LBB87_4-LJTI87_0
.set L87_0_set_5, LBB87_5-LJTI87_0
.set L87_0_set_7, LBB87_7-LJTI87_0
.set L87_0_set_8, LBB87_8-LJTI87_0
.set L87_0_set_9, LBB87_9-LJTI87_0
.set L87_0_set_10, LBB87_10-LJTI87_0
.set L87_0_set_11, LBB87_11-LJTI87_0
.set L87_0_set_13, LBB87_13-LJTI87_0
.set L87_0_set_14, LBB87_14-LJTI87_0
.set L87_0_set_15, LBB87_15-LJTI87_0
.set L87_0_set_16, LBB87_16-LJTI87_0
.set L87_0_set_17, LBB87_17-LJTI87_0
.set L87_0_set_1, LBB87_1-LJTI87_0
LJTI87_0:
	.long	L87_0_set_4
	.long	L87_0_set_5
	.long	L87_0_set_7
	.long	L87_0_set_8
	.long	L87_0_set_9
	.long	L87_0_set_10
	.long	L87_0_set_11
	.long	L87_0_set_13
	.long	L87_0_set_14
	.long	L87_0_set_15
	.long	L87_0_set_16
	.long	L87_0_set_17
	.long	L87_0_set_1
	.end_data_region

	.globl	__ZN64_$LT$serde..private..ser..Error$u20$as$u20$std..error..Error$GT$11description17h2e6953405ed17231E
	.p2align	4, 0x90
__ZN64_$LT$serde..private..ser..Error$u20$as$u20$std..error..Error$GT$11description17h2e6953405ed17231E:
Lfunc_begin88:
	.loc	29 354 0 is_stmt 1
	.cfi_startproc
	pushq	%rbp
	.cfi_def_cfa_offset 16
	.cfi_offset %rbp, -16
	movq	%rsp, %rbp
	.cfi_def_cfa_register %rbp
Ltmp658:
	.loc	29 355 9 prologue_end
	leaq	l___unnamed_98(%rip), %rdi
Ltmp659:
	leaq	l___unnamed_99(%rip), %rdx
	movl	$15, %esi
	callq	__ZN3std9panicking11begin_panic17h89578f1f343d82d3E
Ltmp660:
Lfunc_end88:
	.cfi_endproc

	.globl	__ZN65_$LT$serde..private..ser..Error$u20$as$u20$core..fmt..Display$GT$3fmt17h365c3fdb776d9b8fE
	.p2align	4, 0x90
__ZN65_$LT$serde..private..ser..Error$u20$as$u20$core..fmt..Display$GT$3fmt17h365c3fdb776d9b8fE:
Lfunc_begin89:
	.loc	29 360 0
	.cfi_startproc
	pushq	%rbp
	.cfi_def_cfa_offset 16
	.cfi_offset %rbp, -16
	movq	%rsp, %rbp
	.cfi_def_cfa_register %rbp
Ltmp661:
	.loc	29 361 9 prologue_end
	leaq	l___unnamed_98(%rip), %rdi
Ltmp662:
	leaq	l___unnamed_100(%rip), %rdx
	movl	$15, %esi
Ltmp663:
	callq	__ZN3std9panicking11begin_panic17h89578f1f343d82d3E
Ltmp664:
Lfunc_end89:
	.cfi_endproc

	.globl	__ZN60_$LT$serde..de..value..Error$u20$as$u20$core..fmt..Debug$GT$3fmt17h2674c1d877fa11f4E
	.p2align	4, 0x90
__ZN60_$LT$serde..de..value..Error$u20$as$u20$core..fmt..Debug$GT$3fmt17h2674c1d877fa11f4E:
Lfunc_begin90:
	.loc	20 51 0
	.cfi_startproc
	pushq	%rbp
	.cfi_def_cfa_offset 16
	.cfi_offset %rbp, -16
	movq	%rsp, %rbp
	.cfi_def_cfa_register %rbp
	pushq	%r14
	pushq	%rbx
	subq	$32, %rsp
	.cfi_offset %rbx, -32
	.cfi_offset %r14, -24
	movq	%rdi, %rbx
Ltmp665:
	.loc	20 51 17 prologue_end
	leaq	l___unnamed_101(%rip), %rdx
	leaq	-40(%rbp), %r14
	movl	$5, %ecx
	movq	%r14, %rdi
	callq	__ZN4core3fmt9Formatter12debug_struct17h985c0158d1fc7193E
Ltmp666:
	.loc	20 53 5
	movq	%rbx, -24(%rbp)
	.loc	20 51 17
	leaq	l___unnamed_102(%rip), %rsi
	leaq	l___unnamed_11(%rip), %r8
	leaq	-24(%rbp), %rcx
	movl	$3, %edx
	movq	%r14, %rdi
	callq	__ZN4core3fmt8builders11DebugStruct5field17h9c15dc155278eed2E
	movq	%r14, %rdi
	callq	__ZN4core3fmt8builders11DebugStruct6finish17h26808393f3fed630E
Ltmp667:
	.loc	20 51 22 is_stmt 0
	addq	$32, %rsp
	popq	%rbx
Ltmp668:
	popq	%r14
	popq	%rbp
	retq
Ltmp669:
Lfunc_end90:
	.cfi_endproc

	.globl	__ZN71_$LT$serde..de..ignored_any..IgnoredAny$u20$as$u20$core..fmt..Debug$GT$3fmt17h7c955b9dfa52c533E
	.p2align	4, 0x90
__ZN71_$LT$serde..de..ignored_any..IgnoredAny$u20$as$u20$core..fmt..Debug$GT$3fmt17h7c955b9dfa52c533E:
Lfunc_begin91:
	.loc	21 111 0 is_stmt 1
	.cfi_startproc
	pushq	%rbp
	.cfi_def_cfa_offset 16
	.cfi_offset %rbp, -16
	movq	%rsp, %rbp
	.cfi_def_cfa_register %rbp
Ltmp670:
	pushq	%rbx
	subq	$24, %rsp
	.cfi_offset %rbx, -24
Ltmp671:
	.loc	21 111 23 prologue_end
	leaq	l___unnamed_103(%rip), %rdx
	leaq	-32(%rbp), %rbx
	movl	$10, %ecx
	movq	%rbx, %rdi
Ltmp672:
	callq	__ZN4core3fmt9Formatter11debug_tuple17h15ca25ad759edd1cE
Ltmp673:
	.loc	21 111 23 is_stmt 0
	movq	%rbx, %rdi
	callq	__ZN4core3fmt8builders10DebugTuple6finish17h68acf09c6f6593f2E
Ltmp674:
	.loc	21 111 28
	addq	$24, %rsp
	popq	%rbx
	popq	%rbp
	retq
Ltmp675:
Lfunc_end91:
	.cfi_endproc

	.globl	__ZN142_$LT$serde..de..impls..$LT$impl$u20$serde..de..Deserialize$u20$for$u20$i8$GT$..deserialize..PrimitiveVisitor$u20$as$u20$serde..de..Visitor$GT$9expecting17h4c3c8822473ead71E
	.p2align	4, 0x90
__ZN142_$LT$serde..de..impls..$LT$impl$u20$serde..de..Deserialize$u20$for$u20$i8$GT$..deserialize..PrimitiveVisitor$u20$as$u20$serde..de..Visitor$GT$9expecting17h4c3c8822473ead71E:
Lfunc_begin92:
	.loc	1 127 0 is_stmt 1
	.cfi_startproc
	pushq	%rbp
	.cfi_def_cfa_offset 16
	.cfi_offset %rbp, -16
	movq	%rsp, %rbp
	.cfi_def_cfa_register %rbp
	movq	%rsi, %rdi
Ltmp676:
	.loc	1 128 25 prologue_end
	leaq	l___unnamed_104(%rip), %rsi
	movl	$2, %edx
	popq	%rbp
	jmp	__ZN4core3fmt9Formatter9write_str17h957ea9717e49073dE
Ltmp677:
Lfunc_end92:
	.cfi_endproc

	.globl	__ZN143_$LT$serde..de..impls..$LT$impl$u20$serde..de..Deserialize$u20$for$u20$i16$GT$..deserialize..PrimitiveVisitor$u20$as$u20$serde..de..Visitor$GT$9expecting17hd828e8326e944b2eE
	.p2align	4, 0x90
__ZN143_$LT$serde..de..impls..$LT$impl$u20$serde..de..Deserialize$u20$for$u20$i16$GT$..deserialize..PrimitiveVisitor$u20$as$u20$serde..de..Visitor$GT$9expecting17hd828e8326e944b2eE:
Lfunc_begin93:
	.loc	1 127 0
	.cfi_startproc
	pushq	%rbp
	.cfi_def_cfa_offset 16
	.cfi_offset %rbp, -16
	movq	%rsp, %rbp
	.cfi_def_cfa_register %rbp
	movq	%rsi, %rdi
Ltmp678:
	.loc	1 128 25 prologue_end
	leaq	l___unnamed_105(%rip), %rsi
	movl	$3, %edx
	popq	%rbp
	jmp	__ZN4core3fmt9Formatter9write_str17h957ea9717e49073dE
Ltmp679:
Lfunc_end93:
	.cfi_endproc

	.globl	__ZN143_$LT$serde..de..impls..$LT$impl$u20$serde..de..Deserialize$u20$for$u20$i32$GT$..deserialize..PrimitiveVisitor$u20$as$u20$serde..de..Visitor$GT$9expecting17h05e8d444880a3d03E
	.p2align	4, 0x90
__ZN143_$LT$serde..de..impls..$LT$impl$u20$serde..de..Deserialize$u20$for$u20$i32$GT$..deserialize..PrimitiveVisitor$u20$as$u20$serde..de..Visitor$GT$9expecting17h05e8d444880a3d03E:
Lfunc_begin94:
	.loc	1 127 0
	.cfi_startproc
	pushq	%rbp
	.cfi_def_cfa_offset 16
	.cfi_offset %rbp, -16
	movq	%rsp, %rbp
	.cfi_def_cfa_register %rbp
	movq	%rsi, %rdi
Ltmp680:
	.loc	1 128 25 prologue_end
	leaq	l___unnamed_106(%rip), %rsi
	movl	$3, %edx
	popq	%rbp
	jmp	__ZN4core3fmt9Formatter9write_str17h957ea9717e49073dE
Ltmp681:
Lfunc_end94:
	.cfi_endproc

	.globl	__ZN143_$LT$serde..de..impls..$LT$impl$u20$serde..de..Deserialize$u20$for$u20$i64$GT$..deserialize..PrimitiveVisitor$u20$as$u20$serde..de..Visitor$GT$9expecting17h950589e006ec03f4E
	.p2align	4, 0x90
__ZN143_$LT$serde..de..impls..$LT$impl$u20$serde..de..Deserialize$u20$for$u20$i64$GT$..deserialize..PrimitiveVisitor$u20$as$u20$serde..de..Visitor$GT$9expecting17h950589e006ec03f4E:
Lfunc_begin95:
	.loc	1 127 0
	.cfi_startproc
	pushq	%rbp
	.cfi_def_cfa_offset 16
	.cfi_offset %rbp, -16
	movq	%rsp, %rbp
	.cfi_def_cfa_register %rbp
	movq	%rsi, %rdi
Ltmp682:
	.loc	1 128 25 prologue_end
	leaq	l___unnamed_107(%rip), %rsi
	movl	$3, %edx
	popq	%rbp
	jmp	__ZN4core3fmt9Formatter9write_str17h957ea9717e49073dE
Ltmp683:
Lfunc_end95:
	.cfi_endproc

	.globl	__ZN145_$LT$serde..de..impls..$LT$impl$u20$serde..de..Deserialize$u20$for$u20$isize$GT$..deserialize..PrimitiveVisitor$u20$as$u20$serde..de..Visitor$GT$9expecting17ha41d500e32543732E
	.p2align	4, 0x90
__ZN145_$LT$serde..de..impls..$LT$impl$u20$serde..de..Deserialize$u20$for$u20$isize$GT$..deserialize..PrimitiveVisitor$u20$as$u20$serde..de..Visitor$GT$9expecting17ha41d500e32543732E:
Lfunc_begin96:
	.loc	1 127 0
	.cfi_startproc
	pushq	%rbp
	.cfi_def_cfa_offset 16
	.cfi_offset %rbp, -16
	movq	%rsp, %rbp
	.cfi_def_cfa_register %rbp
	movq	%rsi, %rdi
Ltmp684:
	.loc	1 128 25 prologue_end
	leaq	l___unnamed_108(%rip), %rsi
	movl	$5, %edx
	popq	%rbp
	jmp	__ZN4core3fmt9Formatter9write_str17h957ea9717e49073dE
Ltmp685:
Lfunc_end96:
	.cfi_endproc

	.globl	__ZN142_$LT$serde..de..impls..$LT$impl$u20$serde..de..Deserialize$u20$for$u20$u8$GT$..deserialize..PrimitiveVisitor$u20$as$u20$serde..de..Visitor$GT$9expecting17h90cc09fb25748f33E
	.p2align	4, 0x90
__ZN142_$LT$serde..de..impls..$LT$impl$u20$serde..de..Deserialize$u20$for$u20$u8$GT$..deserialize..PrimitiveVisitor$u20$as$u20$serde..de..Visitor$GT$9expecting17h90cc09fb25748f33E:
Lfunc_begin97:
	.loc	1 127 0
	.cfi_startproc
	pushq	%rbp
	.cfi_def_cfa_offset 16
	.cfi_offset %rbp, -16
	movq	%rsp, %rbp
	.cfi_def_cfa_register %rbp
	movq	%rsi, %rdi
Ltmp686:
	.loc	1 128 25 prologue_end
	leaq	l___unnamed_109(%rip), %rsi
	movl	$2, %edx
	popq	%rbp
	jmp	__ZN4core3fmt9Formatter9write_str17h957ea9717e49073dE
Ltmp687:
Lfunc_end97:
	.cfi_endproc

	.globl	__ZN143_$LT$serde..de..impls..$LT$impl$u20$serde..de..Deserialize$u20$for$u20$u16$GT$..deserialize..PrimitiveVisitor$u20$as$u20$serde..de..Visitor$GT$9expecting17h01a83b3416b7ea82E
	.p2align	4, 0x90
__ZN143_$LT$serde..de..impls..$LT$impl$u20$serde..de..Deserialize$u20$for$u20$u16$GT$..deserialize..PrimitiveVisitor$u20$as$u20$serde..de..Visitor$GT$9expecting17h01a83b3416b7ea82E:
Lfunc_begin98:
	.loc	1 127 0
	.cfi_startproc
	pushq	%rbp
	.cfi_def_cfa_offset 16
	.cfi_offset %rbp, -16
	movq	%rsp, %rbp
	.cfi_def_cfa_register %rbp
	movq	%rsi, %rdi
Ltmp688:
	.loc	1 128 25 prologue_end
	leaq	l___unnamed_110(%rip), %rsi
	movl	$3, %edx
	popq	%rbp
	jmp	__ZN4core3fmt9Formatter9write_str17h957ea9717e49073dE
Ltmp689:
Lfunc_end98:
	.cfi_endproc

	.globl	__ZN143_$LT$serde..de..impls..$LT$impl$u20$serde..de..Deserialize$u20$for$u20$u32$GT$..deserialize..PrimitiveVisitor$u20$as$u20$serde..de..Visitor$GT$9expecting17h23c881ab4d96114dE
	.p2align	4, 0x90
__ZN143_$LT$serde..de..impls..$LT$impl$u20$serde..de..Deserialize$u20$for$u20$u32$GT$..deserialize..PrimitiveVisitor$u20$as$u20$serde..de..Visitor$GT$9expecting17h23c881ab4d96114dE:
Lfunc_begin99:
	.loc	1 127 0
	.cfi_startproc
	pushq	%rbp
	.cfi_def_cfa_offset 16
	.cfi_offset %rbp, -16
	movq	%rsp, %rbp
	.cfi_def_cfa_register %rbp
	movq	%rsi, %rdi
Ltmp690:
	.loc	1 128 25 prologue_end
	leaq	l___unnamed_111(%rip), %rsi
	movl	$3, %edx
	popq	%rbp
	jmp	__ZN4core3fmt9Formatter9write_str17h957ea9717e49073dE
Ltmp691:
Lfunc_end99:
	.cfi_endproc

	.globl	__ZN143_$LT$serde..de..impls..$LT$impl$u20$serde..de..Deserialize$u20$for$u20$u64$GT$..deserialize..PrimitiveVisitor$u20$as$u20$serde..de..Visitor$GT$9expecting17h0d00bba97107d685E
	.p2align	4, 0x90
__ZN143_$LT$serde..de..impls..$LT$impl$u20$serde..de..Deserialize$u20$for$u20$u64$GT$..deserialize..PrimitiveVisitor$u20$as$u20$serde..de..Visitor$GT$9expecting17h0d00bba97107d685E:
Lfunc_begin100:
	.loc	1 127 0
	.cfi_startproc
	pushq	%rbp
	.cfi_def_cfa_offset 16
	.cfi_offset %rbp, -16
	movq	%rsp, %rbp
	.cfi_def_cfa_register %rbp
	movq	%rsi, %rdi
Ltmp692:
	.loc	1 128 25 prologue_end
	leaq	l___unnamed_112(%rip), %rsi
	movl	$3, %edx
	popq	%rbp
	jmp	__ZN4core3fmt9Formatter9write_str17h957ea9717e49073dE
Ltmp693:
Lfunc_end100:
	.cfi_endproc

	.globl	__ZN145_$LT$serde..de..impls..$LT$impl$u20$serde..de..Deserialize$u20$for$u20$usize$GT$..deserialize..PrimitiveVisitor$u20$as$u20$serde..de..Visitor$GT$9expecting17h6082ee34ef7983b2E
	.p2align	4, 0x90
__ZN145_$LT$serde..de..impls..$LT$impl$u20$serde..de..Deserialize$u20$for$u20$usize$GT$..deserialize..PrimitiveVisitor$u20$as$u20$serde..de..Visitor$GT$9expecting17h6082ee34ef7983b2E:
Lfunc_begin101:
	.loc	1 127 0
	.cfi_startproc
	pushq	%rbp
	.cfi_def_cfa_offset 16
	.cfi_offset %rbp, -16
	movq	%rsp, %rbp
	.cfi_def_cfa_register %rbp
	movq	%rsi, %rdi
Ltmp694:
	.loc	1 128 25 prologue_end
	leaq	l___unnamed_113(%rip), %rsi
	movl	$5, %edx
	popq	%rbp
	jmp	__ZN4core3fmt9Formatter9write_str17h957ea9717e49073dE
Ltmp695:
Lfunc_end101:
	.cfi_endproc

	.globl	__ZN143_$LT$serde..de..impls..$LT$impl$u20$serde..de..Deserialize$u20$for$u20$f32$GT$..deserialize..PrimitiveVisitor$u20$as$u20$serde..de..Visitor$GT$9expecting17h1ce1947215bf9677E
	.p2align	4, 0x90
__ZN143_$LT$serde..de..impls..$LT$impl$u20$serde..de..Deserialize$u20$for$u20$f32$GT$..deserialize..PrimitiveVisitor$u20$as$u20$serde..de..Visitor$GT$9expecting17h1ce1947215bf9677E:
Lfunc_begin102:
	.loc	1 127 0
	.cfi_startproc
	pushq	%rbp
	.cfi_def_cfa_offset 16
	.cfi_offset %rbp, -16
	movq	%rsp, %rbp
	.cfi_def_cfa_register %rbp
	movq	%rsi, %rdi
Ltmp696:
	.loc	1 128 25 prologue_end
	leaq	l___unnamed_114(%rip), %rsi
	movl	$3, %edx
	popq	%rbp
	jmp	__ZN4core3fmt9Formatter9write_str17h957ea9717e49073dE
Ltmp697:
Lfunc_end102:
	.cfi_endproc

	.globl	__ZN143_$LT$serde..de..impls..$LT$impl$u20$serde..de..Deserialize$u20$for$u20$f64$GT$..deserialize..PrimitiveVisitor$u20$as$u20$serde..de..Visitor$GT$9expecting17hee84b0368c59e1dcE
	.p2align	4, 0x90
__ZN143_$LT$serde..de..impls..$LT$impl$u20$serde..de..Deserialize$u20$for$u20$f64$GT$..deserialize..PrimitiveVisitor$u20$as$u20$serde..de..Visitor$GT$9expecting17hee84b0368c59e1dcE:
Lfunc_begin103:
	.loc	1 127 0
	.cfi_startproc
	pushq	%rbp
	.cfi_def_cfa_offset 16
	.cfi_offset %rbp, -16
	movq	%rsp, %rbp
	.cfi_def_cfa_register %rbp
	movq	%rsi, %rdi
Ltmp698:
	.loc	1 128 25 prologue_end
	leaq	l___unnamed_115(%rip), %rsi
	movl	$3, %edx
	popq	%rbp
	jmp	__ZN4core3fmt9Formatter9write_str17h957ea9717e49073dE
Ltmp699:
Lfunc_end103:
	.cfi_endproc

	.globl	__ZN144_$LT$serde..de..impls..$LT$impl$u20$serde..de..Deserialize$u20$for$u20$i128$GT$..deserialize..PrimitiveVisitor$u20$as$u20$serde..de..Visitor$GT$9expecting17h9dfd64d83f5dd3efE
	.p2align	4, 0x90
__ZN144_$LT$serde..de..impls..$LT$impl$u20$serde..de..Deserialize$u20$for$u20$i128$GT$..deserialize..PrimitiveVisitor$u20$as$u20$serde..de..Visitor$GT$9expecting17h9dfd64d83f5dd3efE:
Lfunc_begin104:
	.loc	1 186 0
	.cfi_startproc
	pushq	%rbp
	.cfi_def_cfa_offset 16
	.cfi_offset %rbp, -16
	movq	%rsp, %rbp
	.cfi_def_cfa_register %rbp
	movq	%rsi, %rdi
Ltmp700:
	.loc	1 187 21 prologue_end
	leaq	L___unnamed_116(%rip), %rsi
	movl	$4, %edx
	popq	%rbp
	jmp	__ZN4core3fmt9Formatter9write_str17h957ea9717e49073dE
Ltmp701:
Lfunc_end104:
	.cfi_endproc

	.globl	__ZN144_$LT$serde..de..impls..$LT$impl$u20$serde..de..Deserialize$u20$for$u20$u128$GT$..deserialize..PrimitiveVisitor$u20$as$u20$serde..de..Visitor$GT$9expecting17hb8676529ef2d15d3E
	.p2align	4, 0x90
__ZN144_$LT$serde..de..impls..$LT$impl$u20$serde..de..Deserialize$u20$for$u20$u128$GT$..deserialize..PrimitiveVisitor$u20$as$u20$serde..de..Visitor$GT$9expecting17hb8676529ef2d15d3E:
Lfunc_begin105:
	.loc	1 228 0
	.cfi_startproc
	pushq	%rbp
	.cfi_def_cfa_offset 16
	.cfi_offset %rbp, -16
	movq	%rsp, %rbp
	.cfi_def_cfa_register %rbp
	movq	%rsi, %rdi
Ltmp702:
	.loc	1 229 21 prologue_end
	leaq	L___unnamed_117(%rip), %rsi
	movl	$4, %edx
	popq	%rbp
	jmp	__ZN4core3fmt9Formatter9write_str17h957ea9717e49073dE
Ltmp703:
Lfunc_end105:
	.cfi_endproc

	.globl	__ZN155_$LT$serde..de..impls..$LT$impl$u20$serde..de..Deserialize$u20$for$u20$std..net..ip..IpAddr$GT$..deserialize..EnumVisitor$u20$as$u20$serde..de..Visitor$GT$9expecting17h857f5bc3b7191234E
	.p2align	4, 0x90
__ZN155_$LT$serde..de..impls..$LT$impl$u20$serde..de..Deserialize$u20$for$u20$std..net..ip..IpAddr$GT$..deserialize..EnumVisitor$u20$as$u20$serde..de..Visitor$GT$9expecting17h857f5bc3b7191234E:
Lfunc_begin106:
	.loc	1 1381 0
	.cfi_startproc
	pushq	%rbp
	.cfi_def_cfa_offset 16
	.cfi_offset %rbp, -16
	movq	%rsp, %rbp
	.cfi_def_cfa_register %rbp
	movq	%rsi, %rdi
Ltmp704:
	.loc	1 1382 17 prologue_end
	leaq	L___unnamed_118(%rip), %rsi
	movl	$8, %edx
	popq	%rbp
	jmp	__ZN4core3fmt9Formatter9write_str17h957ea9717e49073dE
Ltmp705:
Lfunc_end106:
	.cfi_endproc

	.globl	__ZN222_$LT$$LT$serde..de..impls..$LT$impl$u20$serde..de..Deserialize$u20$for$u20$std..net..ip..IpAddr$GT$..deserialize..IpAddrKind$u20$as$u20$serde..de..Deserialize$GT$..deserialize..KindVisitor$u20$as$u20$serde..de..Visitor$GT$9expecting17h9c9577da1c265b85E
	.p2align	4, 0x90
__ZN222_$LT$$LT$serde..de..impls..$LT$impl$u20$serde..de..Deserialize$u20$for$u20$std..net..ip..IpAddr$GT$..deserialize..IpAddrKind$u20$as$u20$serde..de..Deserialize$GT$..deserialize..KindVisitor$u20$as$u20$serde..de..Visitor$GT$9expecting17h9c9577da1c265b85E:
Lfunc_begin107:
	.loc	1 1312 0
	.cfi_startproc
	pushq	%rbp
	.cfi_def_cfa_offset 16
	.cfi_offset %rbp, -16
	movq	%rsp, %rbp
	.cfi_def_cfa_register %rbp
	movq	%rsi, %rdi
Ltmp706:
	.loc	1 1313 25 prologue_end
	leaq	l___unnamed_119(%rip), %rsi
	movl	$12, %edx
	popq	%rbp
	jmp	__ZN4core3fmt9Formatter9write_str17h957ea9717e49073dE
Ltmp707:
Lfunc_end107:
	.cfi_endproc

	.globl	__ZN159_$LT$serde..de..impls..$LT$impl$u20$serde..de..Deserialize$u20$for$u20$std..net..ip..Ipv4Addr$GT$..deserialize..IpAddrVisitor$u20$as$u20$serde..de..Visitor$GT$9expecting17h9e9664c7d9860cf1E
	.p2align	4, 0x90
__ZN159_$LT$serde..de..impls..$LT$impl$u20$serde..de..Deserialize$u20$for$u20$std..net..ip..Ipv4Addr$GT$..deserialize..IpAddrVisitor$u20$as$u20$serde..de..Visitor$GT$9expecting17h9e9664c7d9860cf1E:
Lfunc_begin108:
	.loc	1 1268 0
	.cfi_startproc
	pushq	%rbp
	.cfi_def_cfa_offset 16
	.cfi_offset %rbp, -16
	movq	%rsp, %rbp
	.cfi_def_cfa_register %rbp
	movq	%rsi, %rdi
Ltmp708:
	.loc	1 1269 29 prologue_end
	leaq	l___unnamed_120(%rip), %rsi
	movl	$12, %edx
	popq	%rbp
	jmp	__ZN4core3fmt9Formatter9write_str17h957ea9717e49073dE
Ltmp709:
Lfunc_end108:
	.cfi_endproc

	.globl	__ZN159_$LT$serde..de..impls..$LT$impl$u20$serde..de..Deserialize$u20$for$u20$std..net..ip..Ipv6Addr$GT$..deserialize..IpAddrVisitor$u20$as$u20$serde..de..Visitor$GT$9expecting17h9c1816cebc2523a1E
	.p2align	4, 0x90
__ZN159_$LT$serde..de..impls..$LT$impl$u20$serde..de..Deserialize$u20$for$u20$std..net..ip..Ipv6Addr$GT$..deserialize..IpAddrVisitor$u20$as$u20$serde..de..Visitor$GT$9expecting17h9c1816cebc2523a1E:
Lfunc_begin109:
	.loc	1 1268 0
	.cfi_startproc
	pushq	%rbp
	.cfi_def_cfa_offset 16
	.cfi_offset %rbp, -16
	movq	%rsp, %rbp
	.cfi_def_cfa_register %rbp
	movq	%rsi, %rdi
Ltmp710:
	.loc	1 1269 29 prologue_end
	leaq	l___unnamed_121(%rip), %rsi
	movl	$12, %edx
	popq	%rbp
	jmp	__ZN4core3fmt9Formatter9write_str17h957ea9717e49073dE
Ltmp711:
Lfunc_end109:
	.cfi_endproc

	.globl	__ZN161_$LT$serde..de..impls..$LT$impl$u20$serde..de..Deserialize$u20$for$u20$std..net..addr..SocketAddr$GT$..deserialize..EnumVisitor$u20$as$u20$serde..de..Visitor$GT$9expecting17h2d9889003c1a7567E
	.p2align	4, 0x90
__ZN161_$LT$serde..de..impls..$LT$impl$u20$serde..de..Deserialize$u20$for$u20$std..net..addr..SocketAddr$GT$..deserialize..EnumVisitor$u20$as$u20$serde..de..Visitor$GT$9expecting17h2d9889003c1a7567E:
Lfunc_begin110:
	.loc	1 1381 0
	.cfi_startproc
	pushq	%rbp
	.cfi_def_cfa_offset 16
	.cfi_offset %rbp, -16
	movq	%rsp, %rbp
	.cfi_def_cfa_register %rbp
	movq	%rsi, %rdi
Ltmp712:
	.loc	1 1382 17 prologue_end
	leaq	l___unnamed_122(%rip), %rsi
	movl	$12, %edx
	popq	%rbp
	jmp	__ZN4core3fmt9Formatter9write_str17h957ea9717e49073dE
Ltmp713:
Lfunc_end110:
	.cfi_endproc

	.globl	__ZN169_$LT$serde..de..impls..$LT$impl$u20$serde..de..Deserialize$u20$for$u20$std..net..addr..SocketAddrV4$GT$..deserialize..SocketAddrVisitor$u20$as$u20$serde..de..Visitor$GT$9expecting17h7465ef5b20a372b2E
	.p2align	4, 0x90
__ZN169_$LT$serde..de..impls..$LT$impl$u20$serde..de..Deserialize$u20$for$u20$std..net..addr..SocketAddrV4$GT$..deserialize..SocketAddrVisitor$u20$as$u20$serde..de..Visitor$GT$9expecting17h7465ef5b20a372b2E:
Lfunc_begin111:
	.loc	1 1457 0
	.cfi_startproc
	pushq	%rbp
	.cfi_def_cfa_offset 16
	.cfi_offset %rbp, -16
	movq	%rsp, %rbp
	.cfi_def_cfa_register %rbp
	movq	%rsi, %rdi
Ltmp714:
	.loc	1 1458 29 prologue_end
	leaq	l___unnamed_123(%rip), %rsi
	movl	$19, %edx
	popq	%rbp
	jmp	__ZN4core3fmt9Formatter9write_str17h957ea9717e49073dE
Ltmp715:
Lfunc_end111:
	.cfi_endproc

	.globl	__ZN169_$LT$serde..de..impls..$LT$impl$u20$serde..de..Deserialize$u20$for$u20$std..net..addr..SocketAddrV6$GT$..deserialize..SocketAddrVisitor$u20$as$u20$serde..de..Visitor$GT$9expecting17h1494dc4f4545bf8eE
	.p2align	4, 0x90
__ZN169_$LT$serde..de..impls..$LT$impl$u20$serde..de..Deserialize$u20$for$u20$std..net..addr..SocketAddrV6$GT$..deserialize..SocketAddrVisitor$u20$as$u20$serde..de..Visitor$GT$9expecting17h1494dc4f4545bf8eE:
Lfunc_begin112:
	.loc	1 1457 0
	.cfi_startproc
	pushq	%rbp
	.cfi_def_cfa_offset 16
	.cfi_offset %rbp, -16
	movq	%rsp, %rbp
	.cfi_def_cfa_register %rbp
	movq	%rsi, %rdi
Ltmp716:
	.loc	1 1458 29 prologue_end
	leaq	l___unnamed_124(%rip), %rsi
	movl	$19, %edx
	popq	%rbp
	jmp	__ZN4core3fmt9Formatter9write_str17h957ea9717e49073dE
Ltmp717:
Lfunc_end112:
	.cfi_endproc

	.globl	__ZN137_$LT$$LT$serde..de..impls..OsStringKind$u20$as$u20$serde..de..Deserialize$GT$..deserialize..KindVisitor$u20$as$u20$serde..de..Visitor$GT$9expecting17he34113fa37eaa9c9E
	.p2align	4, 0x90
__ZN137_$LT$$LT$serde..de..impls..OsStringKind$u20$as$u20$serde..de..Deserialize$GT$..deserialize..KindVisitor$u20$as$u20$serde..de..Visitor$GT$9expecting17he34113fa37eaa9c9E:
Lfunc_begin113:
	.loc	1 1312 0
	.cfi_startproc
	pushq	%rbp
	.cfi_def_cfa_offset 16
	.cfi_offset %rbp, -16
	movq	%rsp, %rbp
	.cfi_def_cfa_register %rbp
	movq	%rsi, %rdi
Ltmp718:
	.loc	1 1313 25 prologue_end
	leaq	l___unnamed_125(%rip), %rsi
	movl	$19, %edx
	popq	%rbp
	jmp	__ZN4core3fmt9Formatter9write_str17h957ea9717e49073dE
Ltmp719:
Lfunc_end113:
	.cfi_endproc

	.globl	__ZN58_$LT$serde..de..Unexpected$u20$as$u20$core..fmt..Debug$GT$3fmt17h3c37f4f55e9eb1a4E
	.p2align	4, 0x90
__ZN58_$LT$serde..de..Unexpected$u20$as$u20$core..fmt..Debug$GT$3fmt17h3c37f4f55e9eb1a4E:
Lfunc_begin114:
	.loc	24 331 0
	.cfi_startproc
	pushq	%rbp
	.cfi_def_cfa_offset 16
	.cfi_offset %rbp, -16
	movq	%rsp, %rbp
	.cfi_def_cfa_register %rbp
	pushq	%r14
	pushq	%rbx
	subq	$32, %rsp
	.cfi_offset %rbx, -32
	.cfi_offset %r14, -24
	movq	%rdi, %rbx
Ltmp720:
	.loc	24 331 34 prologue_end
	movzbl	(%rdi), %eax
	leaq	LJTI114_0(%rip), %rcx
	movslq	(%rcx,%rax,4), %rax
	addq	%rcx, %rax
	jmpq	*%rax
Ltmp721:
LBB114_4:
	.loc	24 334 10
	incq	%rbx
Ltmp722:
	.loc	24 0 10 is_stmt 0
	leaq	-48(%rbp), %r14
Ltmp723:
	.loc	24 331 34 is_stmt 1
	leaq	L___unnamed_126(%rip), %rdx
	movl	$4, %ecx
	movq	%r14, %rdi
	callq	__ZN4core3fmt9Formatter11debug_tuple17h15ca25ad759edd1cE
Ltmp724:
	.loc	24 334 10
	movq	%rbx, -24(%rbp)
	.loc	24 331 34
	leaq	l___unnamed_17(%rip), %rdx
	jmp	LBB114_3
Ltmp725:
LBB114_5:
	.loc	24 338 14
	addq	$8, %rbx
Ltmp726:
	.loc	24 0 14 is_stmt 0
	leaq	-48(%rbp), %r14
Ltmp727:
	.loc	24 331 34 is_stmt 1
	leaq	L___unnamed_127(%rip), %rdx
	movl	$8, %ecx
	movq	%r14, %rdi
	callq	__ZN4core3fmt9Formatter11debug_tuple17h15ca25ad759edd1cE
Ltmp728:
	.loc	24 338 14
	movq	%rbx, -24(%rbp)
	.loc	24 331 34
	leaq	l___unnamed_16(%rip), %rdx
	jmp	LBB114_3
Ltmp729:
LBB114_6:
	.loc	24 342 12
	addq	$8, %rbx
Ltmp730:
	.loc	24 0 12 is_stmt 0
	leaq	-48(%rbp), %r14
Ltmp731:
	.loc	24 331 34 is_stmt 1
	leaq	l___unnamed_128(%rip), %rdx
	movl	$6, %ecx
	movq	%r14, %rdi
	callq	__ZN4core3fmt9Formatter11debug_tuple17h15ca25ad759edd1cE
Ltmp732:
	.loc	24 342 12
	movq	%rbx, -24(%rbp)
	.loc	24 331 34
	leaq	l___unnamed_15(%rip), %rdx
	jmp	LBB114_3
Ltmp733:
LBB114_7:
	.loc	24 346 11
	addq	$8, %rbx
Ltmp734:
	.loc	24 0 11 is_stmt 0
	leaq	-48(%rbp), %r14
Ltmp735:
	.loc	24 331 34 is_stmt 1
	leaq	l___unnamed_129(%rip), %rdx
	movl	$5, %ecx
	movq	%r14, %rdi
	callq	__ZN4core3fmt9Formatter11debug_tuple17h15ca25ad759edd1cE
Ltmp736:
	.loc	24 346 11
	movq	%rbx, -24(%rbp)
	.loc	24 331 34
	leaq	l___unnamed_14(%rip), %rdx
	jmp	LBB114_3
Ltmp737:
LBB114_8:
	.loc	24 349 10
	addq	$4, %rbx
Ltmp738:
	.loc	24 0 10 is_stmt 0
	leaq	-48(%rbp), %r14
Ltmp739:
	.loc	24 331 34 is_stmt 1
	leaq	L___unnamed_130(%rip), %rdx
	movl	$4, %ecx
	movq	%r14, %rdi
	callq	__ZN4core3fmt9Formatter11debug_tuple17h15ca25ad759edd1cE
Ltmp740:
	.loc	24 349 10
	movq	%rbx, -24(%rbp)
	.loc	24 331 34
	leaq	l___unnamed_13(%rip), %rdx
	jmp	LBB114_3
Ltmp741:
LBB114_9:
	.loc	24 352 9
	addq	$8, %rbx
Ltmp742:
	.loc	24 0 9 is_stmt 0
	leaq	-48(%rbp), %r14
Ltmp743:
	.loc	24 331 34 is_stmt 1
	leaq	l___unnamed_131(%rip), %rdx
	movl	$3, %ecx
	jmp	LBB114_2
Ltmp744:
LBB114_10:
	.loc	24 355 11
	addq	$8, %rbx
Ltmp745:
	.loc	24 0 11 is_stmt 0
	leaq	-48(%rbp), %r14
Ltmp746:
	.loc	24 331 34 is_stmt 1
	leaq	l___unnamed_132(%rip), %rdx
	movl	$5, %ecx
	movq	%r14, %rdi
	callq	__ZN4core3fmt9Formatter11debug_tuple17h15ca25ad759edd1cE
Ltmp747:
	.loc	24 355 11
	movq	%rbx, -24(%rbp)
	.loc	24 331 34
	leaq	l___unnamed_12(%rip), %rdx
	jmp	LBB114_3
Ltmp748:
LBB114_11:
	.loc	24 0 34 is_stmt 0
	leaq	-48(%rbp), %r14
Ltmp749:
	.loc	24 331 34
	leaq	L___unnamed_133(%rip), %rdx
	movl	$4, %ecx
	jmp	LBB114_24
Ltmp750:
LBB114_13:
	.loc	24 0 34
	leaq	-48(%rbp), %r14
Ltmp751:
	.loc	24 331 34
	leaq	l___unnamed_134(%rip), %rdx
	movl	$6, %ecx
	jmp	LBB114_24
Ltmp752:
LBB114_14:
	.loc	24 0 34
	leaq	-48(%rbp), %r14
Ltmp753:
	.loc	24 331 34
	leaq	l___unnamed_135(%rip), %rdx
	jmp	LBB114_23
Ltmp754:
LBB114_15:
	.loc	24 0 34
	leaq	-48(%rbp), %r14
Ltmp755:
	.loc	24 331 34
	leaq	l___unnamed_136(%rip), %rdx
	movl	$3, %ecx
	jmp	LBB114_24
Ltmp756:
LBB114_17:
	.loc	24 0 34
	leaq	-48(%rbp), %r14
Ltmp757:
	.loc	24 331 34
	leaq	l___unnamed_137(%rip), %rdx
	movl	$3, %ecx
	jmp	LBB114_24
Ltmp758:
LBB114_18:
	.loc	24 0 34
	leaq	-48(%rbp), %r14
Ltmp759:
	.loc	24 331 34
	leaq	L___unnamed_138(%rip), %rdx
	movl	$4, %ecx
	jmp	LBB114_24
Ltmp760:
LBB114_19:
	.loc	24 0 34
	leaq	-48(%rbp), %r14
Ltmp761:
	.loc	24 331 34
	leaq	l___unnamed_139(%rip), %rdx
	movl	$11, %ecx
	jmp	LBB114_24
Ltmp762:
LBB114_20:
	.loc	24 0 34
	leaq	-48(%rbp), %r14
Ltmp763:
	.loc	24 331 34
	leaq	l___unnamed_140(%rip), %rdx
	movl	$14, %ecx
	jmp	LBB114_24
Ltmp764:
LBB114_21:
	.loc	24 0 34
	leaq	-48(%rbp), %r14
Ltmp765:
	.loc	24 331 34
	leaq	l___unnamed_141(%rip), %rdx
	movl	$12, %ecx
	jmp	LBB114_24
Ltmp766:
LBB114_22:
	.loc	24 0 34
	leaq	-48(%rbp), %r14
Ltmp767:
	.loc	24 331 34
	leaq	l___unnamed_142(%rip), %rdx
Ltmp768:
LBB114_23:
	movl	$13, %ecx
Ltmp769:
LBB114_24:
	movq	%r14, %rdi
	callq	__ZN4core3fmt9Formatter11debug_tuple17h15ca25ad759edd1cE
Ltmp770:
	.loc	24 0 34
	jmp	LBB114_25
Ltmp771:
LBB114_1:
	.loc	24 392 11 is_stmt 1
	addq	$8, %rbx
Ltmp772:
	.loc	24 0 11 is_stmt 0
	leaq	-48(%rbp), %r14
Ltmp773:
	.loc	24 331 34 is_stmt 1
	leaq	l___unnamed_143(%rip), %rdx
	movl	$5, %ecx
Ltmp774:
LBB114_2:
	.loc	24 0 0 is_stmt 0
	movq	%r14, %rdi
	callq	__ZN4core3fmt9Formatter11debug_tuple17h15ca25ad759edd1cE
Ltmp775:
	movq	%rbx, -24(%rbp)
	leaq	l___unnamed_9(%rip), %rdx
LBB114_3:
	leaq	-24(%rbp), %rsi
	movq	%r14, %rdi
	callq	__ZN4core3fmt8builders10DebugTuple5field17hf36121153a94f236E
LBB114_25:
	movq	%r14, %rdi
	callq	__ZN4core3fmt8builders10DebugTuple6finish17h68acf09c6f6593f2E
	.loc	24 331 39
	addq	$32, %rsp
	popq	%rbx
	popq	%r14
	popq	%rbp
	retq
Ltmp776:
Lfunc_end114:
	.cfi_endproc
	.p2align	2, 0x90
	.data_region jt32
.set L114_0_set_4, LBB114_4-LJTI114_0
.set L114_0_set_5, LBB114_5-LJTI114_0
.set L114_0_set_6, LBB114_6-LJTI114_0
.set L114_0_set_7, LBB114_7-LJTI114_0
.set L114_0_set_8, LBB114_8-LJTI114_0
.set L114_0_set_9, LBB114_9-LJTI114_0
.set L114_0_set_10, LBB114_10-LJTI114_0
.set L114_0_set_11, LBB114_11-LJTI114_0
.set L114_0_set_13, LBB114_13-LJTI114_0
.set L114_0_set_14, LBB114_14-LJTI114_0
.set L114_0_set_15, LBB114_15-LJTI114_0
.set L114_0_set_17, LBB114_17-LJTI114_0
.set L114_0_set_18, LBB114_18-LJTI114_0
.set L114_0_set_19, LBB114_19-LJTI114_0
.set L114_0_set_20, LBB114_20-LJTI114_0
.set L114_0_set_21, LBB114_21-LJTI114_0
.set L114_0_set_22, LBB114_22-LJTI114_0
.set L114_0_set_1, LBB114_1-LJTI114_0
LJTI114_0:
	.long	L114_0_set_4
	.long	L114_0_set_5
	.long	L114_0_set_6
	.long	L114_0_set_7
	.long	L114_0_set_8
	.long	L114_0_set_9
	.long	L114_0_set_10
	.long	L114_0_set_11
	.long	L114_0_set_13
	.long	L114_0_set_14
	.long	L114_0_set_15
	.long	L114_0_set_17
	.long	L114_0_set_18
	.long	L114_0_set_19
	.long	L114_0_set_20
	.long	L114_0_set_21
	.long	L114_0_set_22
	.long	L114_0_set_1
	.end_data_region

	.globl	__ZN5serde3ser3fmt85_$LT$impl$u20$serde..ser..Serializer$u20$for$u20$$RF$mut$u20$core..fmt..Formatter$GT$14serialize_bool17h7b7c448236578e6fE
	.p2align	4, 0x90
__ZN5serde3ser3fmt85_$LT$impl$u20$serde..ser..Serializer$u20$for$u20$$RF$mut$u20$core..fmt..Formatter$GT$14serialize_bool17h7b7c448236578e6fE:
Lfunc_begin115:
	.loc	26 13 0 is_stmt 1
	.cfi_startproc
	pushq	%rbp
	.cfi_def_cfa_offset 16
	.cfi_offset %rbp, -16
	movq	%rsp, %rbp
	.cfi_def_cfa_register %rbp
	subq	$16, %rsp
	movq	%rdi, %rax
Ltmp777:
	movb	%sil, -1(%rbp)
Ltmp778:
	leaq	-1(%rbp), %rdi
Ltmp779:
	.loc	26 14 17 prologue_end
	movq	%rax, %rsi
Ltmp780:
	callq	__ZN43_$LT$bool$u20$as$u20$core..fmt..Display$GT$3fmt17hf36463fa8b480ab4E
Ltmp781:
	.loc	26 15 14
	addq	$16, %rsp
	popq	%rbp
	retq
Ltmp782:
Lfunc_end115:
	.cfi_endproc

	.globl	__ZN5serde3ser3fmt85_$LT$impl$u20$serde..ser..Serializer$u20$for$u20$$RF$mut$u20$core..fmt..Formatter$GT$12serialize_i817hdb9a10d0e6bd467cE
	.p2align	4, 0x90
__ZN5serde3ser3fmt85_$LT$impl$u20$serde..ser..Serializer$u20$for$u20$$RF$mut$u20$core..fmt..Formatter$GT$12serialize_i817hdb9a10d0e6bd467cE:
Lfunc_begin116:
	.loc	26 13 0
	.cfi_startproc
	pushq	%rbp
	.cfi_def_cfa_offset 16
	.cfi_offset %rbp, -16
	movq	%rsp, %rbp
	.cfi_def_cfa_register %rbp
	subq	$16, %rsp
	movq	%rdi, %rax
Ltmp783:
	movb	%sil, -1(%rbp)
Ltmp784:
	leaq	-1(%rbp), %rdi
Ltmp785:
	.loc	26 14 17 prologue_end
	movq	%rax, %rsi
Ltmp786:
	callq	__ZN4core3fmt3num3imp51_$LT$impl$u20$core..fmt..Display$u20$for$u20$i8$GT$3fmt17hc80f24a4257c3563E
Ltmp787:
	.loc	26 15 14
	addq	$16, %rsp
	popq	%rbp
	retq
Ltmp788:
Lfunc_end116:
	.cfi_endproc

	.globl	__ZN5serde3ser3fmt85_$LT$impl$u20$serde..ser..Serializer$u20$for$u20$$RF$mut$u20$core..fmt..Formatter$GT$13serialize_i1617hddb3fa6f12d8b4e7E
	.p2align	4, 0x90
__ZN5serde3ser3fmt85_$LT$impl$u20$serde..ser..Serializer$u20$for$u20$$RF$mut$u20$core..fmt..Formatter$GT$13serialize_i1617hddb3fa6f12d8b4e7E:
Lfunc_begin117:
	.loc	26 13 0
	.cfi_startproc
	pushq	%rbp
	.cfi_def_cfa_offset 16
	.cfi_offset %rbp, -16
	movq	%rsp, %rbp
	.cfi_def_cfa_register %rbp
	subq	$16, %rsp
	movq	%rdi, %rax
Ltmp789:
	movw	%si, -2(%rbp)
Ltmp790:
	leaq	-2(%rbp), %rdi
Ltmp791:
	.loc	26 14 17 prologue_end
	movq	%rax, %rsi
Ltmp792:
	callq	__ZN4core3fmt3num3imp52_$LT$impl$u20$core..fmt..Display$u20$for$u20$i16$GT$3fmt17h3a2fa6e453c65d3eE
Ltmp793:
	.loc	26 15 14
	addq	$16, %rsp
	popq	%rbp
	retq
Ltmp794:
Lfunc_end117:
	.cfi_endproc

	.globl	__ZN5serde3ser3fmt85_$LT$impl$u20$serde..ser..Serializer$u20$for$u20$$RF$mut$u20$core..fmt..Formatter$GT$13serialize_i3217hb01dc4051e6f816fE
	.p2align	4, 0x90
__ZN5serde3ser3fmt85_$LT$impl$u20$serde..ser..Serializer$u20$for$u20$$RF$mut$u20$core..fmt..Formatter$GT$13serialize_i3217hb01dc4051e6f816fE:
Lfunc_begin118:
	.loc	26 13 0
	.cfi_startproc
	pushq	%rbp
	.cfi_def_cfa_offset 16
	.cfi_offset %rbp, -16
	movq	%rsp, %rbp
	.cfi_def_cfa_register %rbp
	subq	$16, %rsp
	movq	%rdi, %rax
Ltmp795:
	movl	%esi, -4(%rbp)
Ltmp796:
	leaq	-4(%rbp), %rdi
Ltmp797:
	.loc	26 14 17 prologue_end
	movq	%rax, %rsi
Ltmp798:
	callq	__ZN4core3fmt3num3imp52_$LT$impl$u20$core..fmt..Display$u20$for$u20$i32$GT$3fmt17he2ccc2060d52a2ceE
Ltmp799:
	.loc	26 15 14
	addq	$16, %rsp
	popq	%rbp
	retq
Ltmp800:
Lfunc_end118:
	.cfi_endproc

	.globl	__ZN5serde3ser3fmt85_$LT$impl$u20$serde..ser..Serializer$u20$for$u20$$RF$mut$u20$core..fmt..Formatter$GT$13serialize_i6417hb624b850f091fc32E
	.p2align	4, 0x90
__ZN5serde3ser3fmt85_$LT$impl$u20$serde..ser..Serializer$u20$for$u20$$RF$mut$u20$core..fmt..Formatter$GT$13serialize_i6417hb624b850f091fc32E:
Lfunc_begin119:
	.loc	26 13 0
	.cfi_startproc
	pushq	%rbp
	.cfi_def_cfa_offset 16
	.cfi_offset %rbp, -16
	movq	%rsp, %rbp
	.cfi_def_cfa_register %rbp
	subq	$16, %rsp
	movq	%rdi, %rax
Ltmp801:
	movq	%rsi, -8(%rbp)
Ltmp802:
	leaq	-8(%rbp), %rdi
Ltmp803:
	.loc	26 14 17 prologue_end
	movq	%rax, %rsi
Ltmp804:
	callq	__ZN4core3fmt3num3imp52_$LT$impl$u20$core..fmt..Display$u20$for$u20$i64$GT$3fmt17h6a5170735d6294a5E
Ltmp805:
	.loc	26 15 14
	addq	$16, %rsp
	popq	%rbp
	retq
Ltmp806:
Lfunc_end119:
	.cfi_endproc

	.globl	__ZN5serde3ser3fmt85_$LT$impl$u20$serde..ser..Serializer$u20$for$u20$$RF$mut$u20$core..fmt..Formatter$GT$12serialize_u817h00092cc0a4916e1dE
	.p2align	4, 0x90
__ZN5serde3ser3fmt85_$LT$impl$u20$serde..ser..Serializer$u20$for$u20$$RF$mut$u20$core..fmt..Formatter$GT$12serialize_u817h00092cc0a4916e1dE:
Lfunc_begin120:
	.loc	26 13 0
	.cfi_startproc
	pushq	%rbp
	.cfi_def_cfa_offset 16
	.cfi_offset %rbp, -16
	movq	%rsp, %rbp
	.cfi_def_cfa_register %rbp
	subq	$16, %rsp
	movq	%rdi, %rax
Ltmp807:
	movb	%sil, -1(%rbp)
Ltmp808:
	leaq	-1(%rbp), %rdi
Ltmp809:
	.loc	26 14 17 prologue_end
	movq	%rax, %rsi
Ltmp810:
	callq	__ZN4core3fmt3num3imp51_$LT$impl$u20$core..fmt..Display$u20$for$u20$u8$GT$3fmt17h0e89df114e53d66dE
Ltmp811:
	.loc	26 15 14
	addq	$16, %rsp
	popq	%rbp
	retq
Ltmp812:
Lfunc_end120:
	.cfi_endproc

	.globl	__ZN5serde3ser3fmt85_$LT$impl$u20$serde..ser..Serializer$u20$for$u20$$RF$mut$u20$core..fmt..Formatter$GT$13serialize_u1617h3f5230d3fc1e03ffE
	.p2align	4, 0x90
__ZN5serde3ser3fmt85_$LT$impl$u20$serde..ser..Serializer$u20$for$u20$$RF$mut$u20$core..fmt..Formatter$GT$13serialize_u1617h3f5230d3fc1e03ffE:
Lfunc_begin121:
	.loc	26 13 0
	.cfi_startproc
	pushq	%rbp
	.cfi_def_cfa_offset 16
	.cfi_offset %rbp, -16
	movq	%rsp, %rbp
	.cfi_def_cfa_register %rbp
	subq	$16, %rsp
	movq	%rdi, %rax
Ltmp813:
	movw	%si, -2(%rbp)
Ltmp814:
	leaq	-2(%rbp), %rdi
Ltmp815:
	.loc	26 14 17 prologue_end
	movq	%rax, %rsi
Ltmp816:
	callq	__ZN4core3fmt3num3imp52_$LT$impl$u20$core..fmt..Display$u20$for$u20$u16$GT$3fmt17h7d9582ae70d300cbE
Ltmp817:
	.loc	26 15 14
	addq	$16, %rsp
	popq	%rbp
	retq
Ltmp818:
Lfunc_end121:
	.cfi_endproc

	.globl	__ZN5serde3ser3fmt85_$LT$impl$u20$serde..ser..Serializer$u20$for$u20$$RF$mut$u20$core..fmt..Formatter$GT$13serialize_u3217h2d26a12a2f7bbeadE
	.p2align	4, 0x90
__ZN5serde3ser3fmt85_$LT$impl$u20$serde..ser..Serializer$u20$for$u20$$RF$mut$u20$core..fmt..Formatter$GT$13serialize_u3217h2d26a12a2f7bbeadE:
Lfunc_begin122:
	.loc	26 13 0
	.cfi_startproc
	pushq	%rbp
	.cfi_def_cfa_offset 16
	.cfi_offset %rbp, -16
	movq	%rsp, %rbp
	.cfi_def_cfa_register %rbp
	subq	$16, %rsp
	movq	%rdi, %rax
Ltmp819:
	movl	%esi, -4(%rbp)
Ltmp820:
	leaq	-4(%rbp), %rdi
Ltmp821:
	.loc	26 14 17 prologue_end
	movq	%rax, %rsi
Ltmp822:
	callq	__ZN4core3fmt3num3imp52_$LT$impl$u20$core..fmt..Display$u20$for$u20$u32$GT$3fmt17h8cb3163b2d7e102aE
Ltmp823:
	.loc	26 15 14
	addq	$16, %rsp
	popq	%rbp
	retq
Ltmp824:
Lfunc_end122:
	.cfi_endproc

	.globl	__ZN5serde3ser3fmt85_$LT$impl$u20$serde..ser..Serializer$u20$for$u20$$RF$mut$u20$core..fmt..Formatter$GT$13serialize_u6417h82d8865ea538b99dE
	.p2align	4, 0x90
__ZN5serde3ser3fmt85_$LT$impl$u20$serde..ser..Serializer$u20$for$u20$$RF$mut$u20$core..fmt..Formatter$GT$13serialize_u6417h82d8865ea538b99dE:
Lfunc_begin123:
	.loc	26 13 0
	.cfi_startproc
	pushq	%rbp
	.cfi_def_cfa_offset 16
	.cfi_offset %rbp, -16
	movq	%rsp, %rbp
	.cfi_def_cfa_register %rbp
	subq	$16, %rsp
	movq	%rdi, %rax
Ltmp825:
	movq	%rsi, -8(%rbp)
Ltmp826:
	leaq	-8(%rbp), %rdi
Ltmp827:
	.loc	26 14 17 prologue_end
	movq	%rax, %rsi
Ltmp828:
	callq	__ZN4core3fmt3num3imp52_$LT$impl$u20$core..fmt..Display$u20$for$u20$u64$GT$3fmt17hb00db9d5e1e54df6E
Ltmp829:
	.loc	26 15 14
	addq	$16, %rsp
	popq	%rbp
	retq
Ltmp830:
Lfunc_end123:
	.cfi_endproc

	.globl	__ZN5serde3ser3fmt85_$LT$impl$u20$serde..ser..Serializer$u20$for$u20$$RF$mut$u20$core..fmt..Formatter$GT$13serialize_f3217h9802c7ef1c315111E
	.p2align	4, 0x90
__ZN5serde3ser3fmt85_$LT$impl$u20$serde..ser..Serializer$u20$for$u20$$RF$mut$u20$core..fmt..Formatter$GT$13serialize_f3217h9802c7ef1c315111E:
Lfunc_begin124:
	.loc	26 13 0
	.cfi_startproc
	pushq	%rbp
	.cfi_def_cfa_offset 16
	.cfi_offset %rbp, -16
	movq	%rsp, %rbp
	.cfi_def_cfa_register %rbp
	subq	$16, %rsp
	movq	%rdi, %rsi
Ltmp831:
	movss	%xmm0, -4(%rbp)
Ltmp832:
	leaq	-4(%rbp), %rdi
Ltmp833:
	.loc	26 14 17 prologue_end
	callq	__ZN4core3fmt5float52_$LT$impl$u20$core..fmt..Display$u20$for$u20$f32$GT$3fmt17h7d4c3f5c5f5cbab3E
Ltmp834:
	.loc	26 15 14
	addq	$16, %rsp
	popq	%rbp
	retq
Ltmp835:
Lfunc_end124:
	.cfi_endproc

	.globl	__ZN5serde3ser3fmt85_$LT$impl$u20$serde..ser..Serializer$u20$for$u20$$RF$mut$u20$core..fmt..Formatter$GT$13serialize_f6417h4d3597653702c3ceE
	.p2align	4, 0x90
__ZN5serde3ser3fmt85_$LT$impl$u20$serde..ser..Serializer$u20$for$u20$$RF$mut$u20$core..fmt..Formatter$GT$13serialize_f6417h4d3597653702c3ceE:
Lfunc_begin125:
	.loc	26 13 0
	.cfi_startproc
	pushq	%rbp
	.cfi_def_cfa_offset 16
	.cfi_offset %rbp, -16
	movq	%rsp, %rbp
	.cfi_def_cfa_register %rbp
	subq	$16, %rsp
	movq	%rdi, %rsi
Ltmp836:
	movsd	%xmm0, -8(%rbp)
Ltmp837:
	leaq	-8(%rbp), %rdi
Ltmp838:
	.loc	26 14 17 prologue_end
	callq	__ZN4core3fmt5float52_$LT$impl$u20$core..fmt..Display$u20$for$u20$f64$GT$3fmt17h65d15e5d03b4dd47E
Ltmp839:
	.loc	26 15 14
	addq	$16, %rsp
	popq	%rbp
	retq
Ltmp840:
Lfunc_end125:
	.cfi_endproc

	.globl	__ZN5serde3ser3fmt85_$LT$impl$u20$serde..ser..Serializer$u20$for$u20$$RF$mut$u20$core..fmt..Formatter$GT$14serialize_char17h763d1b0127ad113aE
	.p2align	4, 0x90
__ZN5serde3ser3fmt85_$LT$impl$u20$serde..ser..Serializer$u20$for$u20$$RF$mut$u20$core..fmt..Formatter$GT$14serialize_char17h763d1b0127ad113aE:
Lfunc_begin126:
	.loc	26 13 0
	.cfi_startproc
	pushq	%rbp
	.cfi_def_cfa_offset 16
	.cfi_offset %rbp, -16
	movq	%rsp, %rbp
	.cfi_def_cfa_register %rbp
	subq	$16, %rsp
	movq	%rdi, %rax
Ltmp841:
	movl	%esi, -4(%rbp)
Ltmp842:
	leaq	-4(%rbp), %rdi
Ltmp843:
	.loc	26 14 17 prologue_end
	movq	%rax, %rsi
Ltmp844:
	callq	__ZN43_$LT$char$u20$as$u20$core..fmt..Display$GT$3fmt17h6751376c1412eca9E
Ltmp845:
	.loc	26 15 14
	addq	$16, %rsp
	popq	%rbp
	retq
Ltmp846:
Lfunc_end126:
	.cfi_endproc

	.globl	__ZN5serde3ser3fmt85_$LT$impl$u20$serde..ser..Serializer$u20$for$u20$$RF$mut$u20$core..fmt..Formatter$GT$13serialize_str17h211e951c39457d5eE
	.p2align	4, 0x90
__ZN5serde3ser3fmt85_$LT$impl$u20$serde..ser..Serializer$u20$for$u20$$RF$mut$u20$core..fmt..Formatter$GT$13serialize_str17h211e951c39457d5eE:
Lfunc_begin127:
	.loc	26 13 0
	.cfi_startproc
	pushq	%rbp
	.cfi_def_cfa_offset 16
	.cfi_offset %rbp, -16
	movq	%rsp, %rbp
	.cfi_def_cfa_register %rbp
	movq	%rdi, %rax
Ltmp847:
	.loc	4 1973 62 prologue_end
	movq	%rsi, %rdi
	movq	%rdx, %rsi
	movq	%rax, %rdx
Ltmp848:
	popq	%rbp
	jmp	__ZN42_$LT$str$u20$as$u20$core..fmt..Display$GT$3fmt17hd4dee1c1c4ccf892E
Ltmp849:
Lfunc_end127:
	.cfi_endproc

	.globl	__ZN5serde3ser3fmt85_$LT$impl$u20$serde..ser..Serializer$u20$for$u20$$RF$mut$u20$core..fmt..Formatter$GT$14serialize_i12817h9008a89d48859634E
	.p2align	4, 0x90
__ZN5serde3ser3fmt85_$LT$impl$u20$serde..ser..Serializer$u20$for$u20$$RF$mut$u20$core..fmt..Formatter$GT$14serialize_i12817h9008a89d48859634E:
Lfunc_begin128:
	.loc	26 13 0
	.cfi_startproc
	pushq	%rbp
	.cfi_def_cfa_offset 16
	.cfi_offset %rbp, -16
	movq	%rsp, %rbp
	.cfi_def_cfa_register %rbp
	subq	$16, %rsp
	movq	%rdi, %rax
Ltmp850:
	movq	%rdx, -8(%rbp)
	movq	%rsi, -16(%rbp)
Ltmp851:
	leaq	-16(%rbp), %rdi
Ltmp852:
	.loc	26 14 17 prologue_end
	movq	%rax, %rsi
Ltmp853:
	callq	__ZN4core3fmt3num53_$LT$impl$u20$core..fmt..Display$u20$for$u20$i128$GT$3fmt17h91ecf4febf2e0f67E
Ltmp854:
	.loc	26 15 14
	addq	$16, %rsp
	popq	%rbp
	retq
Ltmp855:
Lfunc_end128:
	.cfi_endproc

	.globl	__ZN5serde3ser3fmt85_$LT$impl$u20$serde..ser..Serializer$u20$for$u20$$RF$mut$u20$core..fmt..Formatter$GT$14serialize_u12817hb294e31d945ed51eE
	.p2align	4, 0x90
__ZN5serde3ser3fmt85_$LT$impl$u20$serde..ser..Serializer$u20$for$u20$$RF$mut$u20$core..fmt..Formatter$GT$14serialize_u12817hb294e31d945ed51eE:
Lfunc_begin129:
	.loc	26 13 0
	.cfi_startproc
	pushq	%rbp
	.cfi_def_cfa_offset 16
	.cfi_offset %rbp, -16
	movq	%rsp, %rbp
	.cfi_def_cfa_register %rbp
	subq	$16, %rsp
	movq	%rdi, %rax
Ltmp856:
	movq	%rdx, -8(%rbp)
	movq	%rsi, -16(%rbp)
Ltmp857:
	leaq	-16(%rbp), %rdi
Ltmp858:
	.loc	26 14 17 prologue_end
	movq	%rax, %rsi
Ltmp859:
	callq	__ZN4core3fmt3num53_$LT$impl$u20$core..fmt..Display$u20$for$u20$u128$GT$3fmt17h26a18cfc770edd4cE
Ltmp860:
	.loc	26 15 14
	addq	$16, %rsp
	popq	%rbp
	retq
Ltmp861:
Lfunc_end129:
	.cfi_endproc

	.globl	__ZN73_$LT$serde..private..de..content..Content$u20$as$u20$core..fmt..Debug$GT$3fmt17hebe9bf3f7ddb365aE
	.p2align	4, 0x90
__ZN73_$LT$serde..private..de..content..Content$u20$as$u20$core..fmt..Debug$GT$3fmt17hebe9bf3f7ddb365aE:
Lfunc_begin130:
	.loc	28 238 0
	.cfi_startproc
	pushq	%rbp
	.cfi_def_cfa_offset 16
	.cfi_offset %rbp, -16
	movq	%rsp, %rbp
	.cfi_def_cfa_register %rbp
	pushq	%r14
	pushq	%rbx
	subq	$32, %rsp
	.cfi_offset %rbx, -32
	.cfi_offset %r14, -24
	movq	%rdi, %rbx
Ltmp862:
	.loc	28 238 14 prologue_end
	movzbl	(%rdi), %eax
	leaq	LJTI130_0(%rip), %rcx
	movslq	(%rcx,%rax,4), %rax
	addq	%rcx, %rax
	jmpq	*%rax
Ltmp863:
LBB130_2:
	.loc	28 240 14
	incq	%rbx
Ltmp864:
	.loc	28 0 14 is_stmt 0
	leaq	-48(%rbp), %r14
Ltmp865:
	.loc	28 238 14 is_stmt 1
	leaq	L___unnamed_126(%rip), %rdx
	movl	$4, %ecx
	movq	%r14, %rdi
	callq	__ZN4core3fmt9Formatter11debug_tuple17h15ca25ad759edd1cE
Ltmp866:
	.loc	28 240 14
	movq	%rbx, -24(%rbp)
	.loc	28 238 14
	leaq	l___unnamed_17(%rip), %rdx
	jmp	LBB130_25
Ltmp867:
LBB130_3:
	.loc	28 242 12
	incq	%rbx
Ltmp868:
	.loc	28 0 12 is_stmt 0
	leaq	-48(%rbp), %r14
Ltmp869:
	.loc	28 238 14 is_stmt 1
	leaq	l___unnamed_144(%rip), %rdx
	movl	$2, %ecx
	movq	%r14, %rdi
	callq	__ZN4core3fmt9Formatter11debug_tuple17h15ca25ad759edd1cE
Ltmp870:
	.loc	28 242 12
	movq	%rbx, -24(%rbp)
	.loc	28 238 14
	leaq	l___unnamed_7(%rip), %rdx
	jmp	LBB130_25
Ltmp871:
LBB130_4:
	.loc	28 243 13
	addq	$2, %rbx
Ltmp872:
	.loc	28 0 13 is_stmt 0
	leaq	-48(%rbp), %r14
Ltmp873:
	.loc	28 238 14 is_stmt 1
	leaq	l___unnamed_145(%rip), %rdx
	movl	$3, %ecx
	movq	%r14, %rdi
	callq	__ZN4core3fmt9Formatter11debug_tuple17h15ca25ad759edd1cE
Ltmp874:
	.loc	28 243 13
	movq	%rbx, -24(%rbp)
	.loc	28 238 14
	leaq	l___unnamed_28(%rip), %rdx
	jmp	LBB130_25
Ltmp875:
LBB130_5:
	.loc	28 244 13
	addq	$4, %rbx
Ltmp876:
	.loc	28 0 13 is_stmt 0
	leaq	-48(%rbp), %r14
Ltmp877:
	.loc	28 238 14 is_stmt 1
	leaq	l___unnamed_146(%rip), %rdx
	movl	$3, %ecx
	movq	%r14, %rdi
	callq	__ZN4core3fmt9Formatter11debug_tuple17h15ca25ad759edd1cE
Ltmp878:
	.loc	28 244 13
	movq	%rbx, -24(%rbp)
	.loc	28 238 14
	leaq	l___unnamed_27(%rip), %rdx
	jmp	LBB130_25
Ltmp879:
LBB130_6:
	.loc	28 245 13
	addq	$8, %rbx
Ltmp880:
	.loc	28 0 13 is_stmt 0
	leaq	-48(%rbp), %r14
Ltmp881:
	.loc	28 238 14 is_stmt 1
	leaq	l___unnamed_147(%rip), %rdx
	movl	$3, %ecx
	movq	%r14, %rdi
	callq	__ZN4core3fmt9Formatter11debug_tuple17h15ca25ad759edd1cE
Ltmp882:
	.loc	28 245 13
	movq	%rbx, -24(%rbp)
	.loc	28 238 14
	leaq	l___unnamed_16(%rip), %rdx
	jmp	LBB130_25
Ltmp883:
LBB130_7:
	.loc	28 247 12
	incq	%rbx
Ltmp884:
	.loc	28 0 12 is_stmt 0
	leaq	-48(%rbp), %r14
Ltmp885:
	.loc	28 238 14 is_stmt 1
	leaq	l___unnamed_148(%rip), %rdx
	movl	$2, %ecx
	movq	%r14, %rdi
	callq	__ZN4core3fmt9Formatter11debug_tuple17h15ca25ad759edd1cE
Ltmp886:
	.loc	28 247 12
	movq	%rbx, -24(%rbp)
	.loc	28 238 14
	leaq	l___unnamed_26(%rip), %rdx
	jmp	LBB130_25
Ltmp887:
LBB130_8:
	.loc	28 248 13
	addq	$2, %rbx
Ltmp888:
	.loc	28 0 13 is_stmt 0
	leaq	-48(%rbp), %r14
Ltmp889:
	.loc	28 238 14 is_stmt 1
	leaq	l___unnamed_149(%rip), %rdx
	movl	$3, %ecx
	movq	%r14, %rdi
	callq	__ZN4core3fmt9Formatter11debug_tuple17h15ca25ad759edd1cE
Ltmp890:
	.loc	28 248 13
	movq	%rbx, -24(%rbp)
	.loc	28 238 14
	leaq	l___unnamed_25(%rip), %rdx
	jmp	LBB130_25
Ltmp891:
LBB130_9:
	.loc	28 249 13
	addq	$4, %rbx
Ltmp892:
	.loc	28 0 13 is_stmt 0
	leaq	-48(%rbp), %r14
Ltmp893:
	.loc	28 238 14 is_stmt 1
	leaq	l___unnamed_150(%rip), %rdx
	movl	$3, %ecx
	movq	%r14, %rdi
	callq	__ZN4core3fmt9Formatter11debug_tuple17h15ca25ad759edd1cE
Ltmp894:
	.loc	28 249 13
	movq	%rbx, -24(%rbp)
	.loc	28 238 14
	leaq	l___unnamed_24(%rip), %rdx
	jmp	LBB130_25
Ltmp895:
LBB130_10:
	.loc	28 250 13
	addq	$8, %rbx
Ltmp896:
	.loc	28 0 13 is_stmt 0
	leaq	-48(%rbp), %r14
Ltmp897:
	.loc	28 238 14 is_stmt 1
	leaq	l___unnamed_151(%rip), %rdx
	movl	$3, %ecx
	movq	%r14, %rdi
	callq	__ZN4core3fmt9Formatter11debug_tuple17h15ca25ad759edd1cE
Ltmp898:
	.loc	28 250 13
	movq	%rbx, -24(%rbp)
	.loc	28 238 14
	leaq	l___unnamed_15(%rip), %rdx
	jmp	LBB130_25
Ltmp899:
LBB130_11:
	.loc	28 252 13
	addq	$4, %rbx
Ltmp900:
	.loc	28 0 13 is_stmt 0
	leaq	-48(%rbp), %r14
Ltmp901:
	.loc	28 238 14 is_stmt 1
	leaq	l___unnamed_152(%rip), %rdx
	movl	$3, %ecx
	movq	%r14, %rdi
	callq	__ZN4core3fmt9Formatter11debug_tuple17h15ca25ad759edd1cE
Ltmp902:
	.loc	28 252 13
	movq	%rbx, -24(%rbp)
	.loc	28 238 14
	leaq	l___unnamed_23(%rip), %rdx
	jmp	LBB130_25
Ltmp903:
LBB130_12:
	.loc	28 253 13
	addq	$8, %rbx
Ltmp904:
	.loc	28 0 13 is_stmt 0
	leaq	-48(%rbp), %r14
Ltmp905:
	.loc	28 238 14 is_stmt 1
	leaq	l___unnamed_153(%rip), %rdx
	movl	$3, %ecx
	movq	%r14, %rdi
	callq	__ZN4core3fmt9Formatter11debug_tuple17h15ca25ad759edd1cE
Ltmp906:
	.loc	28 253 13
	movq	%rbx, -24(%rbp)
	.loc	28 238 14
	leaq	l___unnamed_14(%rip), %rdx
	jmp	LBB130_25
Ltmp907:
LBB130_13:
	.loc	28 255 14
	addq	$4, %rbx
Ltmp908:
	.loc	28 0 14 is_stmt 0
	leaq	-48(%rbp), %r14
Ltmp909:
	.loc	28 238 14 is_stmt 1
	leaq	L___unnamed_130(%rip), %rdx
	movl	$4, %ecx
	movq	%r14, %rdi
	callq	__ZN4core3fmt9Formatter11debug_tuple17h15ca25ad759edd1cE
Ltmp910:
	.loc	28 255 14
	movq	%rbx, -24(%rbp)
	.loc	28 238 14
	leaq	l___unnamed_13(%rip), %rdx
	jmp	LBB130_25
Ltmp911:
LBB130_14:
	.loc	28 256 16
	addq	$8, %rbx
Ltmp912:
	.loc	28 0 16 is_stmt 0
	leaq	-48(%rbp), %r14
Ltmp913:
	.loc	28 238 14 is_stmt 1
	leaq	l___unnamed_154(%rip), %rdx
	movl	$6, %ecx
	movq	%r14, %rdi
	callq	__ZN4core3fmt9Formatter11debug_tuple17h15ca25ad759edd1cE
Ltmp914:
	.loc	28 256 16
	movq	%rbx, -24(%rbp)
	.loc	28 238 14
	leaq	l___unnamed_22(%rip), %rdx
	jmp	LBB130_25
Ltmp915:
LBB130_15:
	.loc	28 257 13
	addq	$8, %rbx
Ltmp916:
	.loc	28 0 13 is_stmt 0
	leaq	-48(%rbp), %r14
Ltmp917:
	.loc	28 238 14 is_stmt 1
	leaq	l___unnamed_131(%rip), %rdx
	movl	$3, %ecx
	movq	%r14, %rdi
	callq	__ZN4core3fmt9Formatter11debug_tuple17h15ca25ad759edd1cE
Ltmp918:
	.loc	28 257 13
	movq	%rbx, -24(%rbp)
	.loc	28 238 14
	leaq	l___unnamed_9(%rip), %rdx
	jmp	LBB130_25
Ltmp919:
LBB130_16:
	.loc	28 258 17
	addq	$8, %rbx
Ltmp920:
	.loc	28 0 17 is_stmt 0
	leaq	-48(%rbp), %r14
Ltmp921:
	.loc	28 238 14 is_stmt 1
	leaq	l___unnamed_155(%rip), %rdx
	movl	$7, %ecx
	movq	%r14, %rdi
	callq	__ZN4core3fmt9Formatter11debug_tuple17h15ca25ad759edd1cE
Ltmp922:
	.loc	28 258 17
	movq	%rbx, -24(%rbp)
	.loc	28 238 14
	leaq	l___unnamed_21(%rip), %rdx
	jmp	LBB130_25
Ltmp923:
LBB130_17:
	.loc	28 259 15
	addq	$8, %rbx
Ltmp924:
	.loc	28 0 15 is_stmt 0
	leaq	-48(%rbp), %r14
Ltmp925:
	.loc	28 238 14 is_stmt 1
	leaq	l___unnamed_132(%rip), %rdx
	movl	$5, %ecx
	movq	%r14, %rdi
	callq	__ZN4core3fmt9Formatter11debug_tuple17h15ca25ad759edd1cE
Ltmp926:
	.loc	28 259 15
	movq	%rbx, -24(%rbp)
	.loc	28 238 14
	leaq	l___unnamed_12(%rip), %rdx
	jmp	LBB130_25
Ltmp927:
LBB130_18:
	.loc	28 0 14 is_stmt 0
	leaq	-48(%rbp), %r14
Ltmp928:
	.loc	28 238 14
	leaq	L___unnamed_156(%rip), %rdx
	jmp	LBB130_19
Ltmp929:
LBB130_20:
	.loc	28 262 14 is_stmt 1
	addq	$8, %rbx
Ltmp930:
	.loc	28 0 14 is_stmt 0
	leaq	-48(%rbp), %r14
Ltmp931:
	.loc	28 238 14 is_stmt 1
	leaq	L___unnamed_157(%rip), %rdx
	movl	$4, %ecx
	jmp	LBB130_21
Ltmp932:
LBB130_22:
	.loc	28 0 14 is_stmt 0
	leaq	-48(%rbp), %r14
Ltmp933:
	.loc	28 238 14
	leaq	L___unnamed_133(%rip), %rdx
Ltmp934:
LBB130_19:
	movl	$4, %ecx
	movq	%r14, %rdi
	callq	__ZN4core3fmt9Formatter11debug_tuple17h15ca25ad759edd1cE
Ltmp935:
	.loc	28 0 14
	jmp	LBB130_26
Ltmp936:
LBB130_23:
	.loc	28 265 17 is_stmt 1
	addq	$8, %rbx
Ltmp937:
	.loc	28 0 17 is_stmt 0
	leaq	-48(%rbp), %r14
Ltmp938:
	.loc	28 238 14 is_stmt 1
	leaq	l___unnamed_158(%rip), %rdx
	movl	$7, %ecx
Ltmp939:
LBB130_21:
	.loc	28 0 0 is_stmt 0
	movq	%r14, %rdi
	callq	__ZN4core3fmt9Formatter11debug_tuple17h15ca25ad759edd1cE
Ltmp940:
	movq	%rbx, -24(%rbp)
	leaq	l___unnamed_20(%rip), %rdx
	jmp	LBB130_25
LBB130_24:
Ltmp941:
	.loc	28 266 13 is_stmt 1
	addq	$8, %rbx
Ltmp942:
	.loc	28 0 13 is_stmt 0
	leaq	-48(%rbp), %r14
Ltmp943:
	.loc	28 238 14 is_stmt 1
	leaq	l___unnamed_136(%rip), %rdx
	movl	$3, %ecx
	movq	%r14, %rdi
	callq	__ZN4core3fmt9Formatter11debug_tuple17h15ca25ad759edd1cE
Ltmp944:
	.loc	28 266 13
	movq	%rbx, -24(%rbp)
	.loc	28 238 14
	leaq	l___unnamed_19(%rip), %rdx
	jmp	LBB130_25
Ltmp945:
LBB130_1:
	.loc	28 267 13
	addq	$8, %rbx
Ltmp946:
	.loc	28 0 13 is_stmt 0
	leaq	-48(%rbp), %r14
Ltmp947:
	.loc	28 238 14 is_stmt 1
	leaq	l___unnamed_137(%rip), %rdx
	movl	$3, %ecx
	movq	%r14, %rdi
	callq	__ZN4core3fmt9Formatter11debug_tuple17h15ca25ad759edd1cE
Ltmp948:
	.loc	28 267 13
	movq	%rbx, -24(%rbp)
	.loc	28 238 14
	leaq	l___unnamed_18(%rip), %rdx
Ltmp949:
LBB130_25:
	.loc	28 0 14 is_stmt 0
	leaq	-24(%rbp), %rsi
	movq	%r14, %rdi
	callq	__ZN4core3fmt8builders10DebugTuple5field17hf36121153a94f236E
LBB130_26:
	movq	%r14, %rdi
	callq	__ZN4core3fmt8builders10DebugTuple6finish17h68acf09c6f6593f2E
	.loc	28 238 19
	addq	$32, %rsp
	popq	%rbx
	popq	%r14
	popq	%rbp
	retq
Ltmp950:
Lfunc_end130:
	.cfi_endproc
	.p2align	2, 0x90
	.data_region jt32
.set L130_0_set_2, LBB130_2-LJTI130_0
.set L130_0_set_3, LBB130_3-LJTI130_0
.set L130_0_set_4, LBB130_4-LJTI130_0
.set L130_0_set_5, LBB130_5-LJTI130_0
.set L130_0_set_6, LBB130_6-LJTI130_0
.set L130_0_set_7, LBB130_7-LJTI130_0
.set L130_0_set_8, LBB130_8-LJTI130_0
.set L130_0_set_9, LBB130_9-LJTI130_0
.set L130_0_set_10, LBB130_10-LJTI130_0
.set L130_0_set_11, LBB130_11-LJTI130_0
.set L130_0_set_12, LBB130_12-LJTI130_0
.set L130_0_set_13, LBB130_13-LJTI130_0
.set L130_0_set_14, LBB130_14-LJTI130_0
.set L130_0_set_15, LBB130_15-LJTI130_0
.set L130_0_set_16, LBB130_16-LJTI130_0
.set L130_0_set_17, LBB130_17-LJTI130_0
.set L130_0_set_18, LBB130_18-LJTI130_0
.set L130_0_set_20, LBB130_20-LJTI130_0
.set L130_0_set_22, LBB130_22-LJTI130_0
.set L130_0_set_23, LBB130_23-LJTI130_0
.set L130_0_set_24, LBB130_24-LJTI130_0
.set L130_0_set_1, LBB130_1-LJTI130_0
LJTI130_0:
	.long	L130_0_set_2
	.long	L130_0_set_3
	.long	L130_0_set_4
	.long	L130_0_set_5
	.long	L130_0_set_6
	.long	L130_0_set_7
	.long	L130_0_set_8
	.long	L130_0_set_9
	.long	L130_0_set_10
	.long	L130_0_set_11
	.long	L130_0_set_12
	.long	L130_0_set_13
	.long	L130_0_set_14
	.long	L130_0_set_15
	.long	L130_0_set_16
	.long	L130_0_set_17
	.long	L130_0_set_18
	.long	L130_0_set_20
	.long	L130_0_set_22
	.long	L130_0_set_23
	.long	L130_0_set_24
	.long	L130_0_set_1
	.end_data_region

	.globl	__ZN63_$LT$serde..private..ser..Error$u20$as$u20$core..fmt..Debug$GT$3fmt17h2c43af1b636d328cE
	.p2align	4, 0x90
__ZN63_$LT$serde..private..ser..Error$u20$as$u20$core..fmt..Debug$GT$3fmt17h2c43af1b636d328cE:
Lfunc_begin131:
	.loc	29 340 0 is_stmt 1
	.cfi_startproc
	pushq	%rbp
	.cfi_def_cfa_offset 16
	.cfi_offset %rbp, -16
	movq	%rsp, %rbp
	.cfi_def_cfa_register %rbp
Ltmp951:
	pushq	%rbx
	subq	$24, %rsp
	.cfi_offset %rbx, -24
Ltmp952:
	.loc	29 340 10 prologue_end
	leaq	l___unnamed_101(%rip), %rdx
	leaq	-32(%rbp), %rbx
	movl	$5, %ecx
	movq	%rbx, %rdi
Ltmp953:
	callq	__ZN4core3fmt9Formatter11debug_tuple17h15ca25ad759edd1cE
Ltmp954:
	.loc	29 340 10 is_stmt 0
	movq	%rbx, %rdi
	callq	__ZN4core3fmt8builders10DebugTuple6finish17h68acf09c6f6593f2E
Ltmp955:
	.loc	29 340 15
	addq	$24, %rsp
	popq	%rbx
	popq	%rbp
	retq
Ltmp956:
Lfunc_end131:
	.cfi_endproc

	.globl	__ZN74_$LT$serde..private..ser..content..Content$u20$as$u20$core..fmt..Debug$GT$3fmt17hc4b69c1345adf378E
	.p2align	4, 0x90
__ZN74_$LT$serde..private..ser..content..Content$u20$as$u20$core..fmt..Debug$GT$3fmt17hc4b69c1345adf378E:
Lfunc_begin132:
	.loc	29 455 0 is_stmt 1
	.cfi_startproc
	pushq	%rbp
	.cfi_def_cfa_offset 16
	.cfi_offset %rbp, -16
	movq	%rsp, %rbp
	.cfi_def_cfa_register %rbp
	pushq	%r15
	pushq	%r14
	pushq	%r13
	pushq	%r12
	pushq	%rbx
	subq	$40, %rsp
	.cfi_offset %rbx, -56
	.cfi_offset %r12, -48
	.cfi_offset %r13, -40
	.cfi_offset %r14, -32
	.cfi_offset %r15, -24
	movq	%rdi, %rbx
Ltmp957:
	.loc	29 455 14 prologue_end
	movzbl	(%rdi), %eax
	leaq	LJTI132_0(%rip), %rcx
	movslq	(%rcx,%rax,4), %rax
	addq	%rcx, %rax
	jmpq	*%rax
Ltmp958:
LBB132_2:
	.loc	29 457 14
	incq	%rbx
Ltmp959:
	.loc	29 0 14 is_stmt 0
	leaq	-72(%rbp), %r14
Ltmp960:
	.loc	29 455 14 is_stmt 1
	leaq	L___unnamed_126(%rip), %rdx
	movl	$4, %ecx
	movq	%r14, %rdi
	callq	__ZN4core3fmt9Formatter11debug_tuple17h15ca25ad759edd1cE
Ltmp961:
	.loc	29 457 14
	movq	%rbx, -48(%rbp)
	.loc	29 455 14
	leaq	l___unnamed_17(%rip), %rdx
	jmp	LBB132_36
Ltmp962:
LBB132_3:
	.loc	29 459 12
	incq	%rbx
Ltmp963:
	.loc	29 0 12 is_stmt 0
	leaq	-72(%rbp), %r14
Ltmp964:
	.loc	29 455 14 is_stmt 1
	leaq	l___unnamed_144(%rip), %rdx
	movl	$2, %ecx
	movq	%r14, %rdi
	callq	__ZN4core3fmt9Formatter11debug_tuple17h15ca25ad759edd1cE
Ltmp965:
	.loc	29 459 12
	movq	%rbx, -48(%rbp)
	.loc	29 455 14
	leaq	l___unnamed_7(%rip), %rdx
	jmp	LBB132_36
Ltmp966:
LBB132_4:
	.loc	29 460 13
	addq	$2, %rbx
Ltmp967:
	.loc	29 0 13 is_stmt 0
	leaq	-72(%rbp), %r14
Ltmp968:
	.loc	29 455 14 is_stmt 1
	leaq	l___unnamed_145(%rip), %rdx
	movl	$3, %ecx
	movq	%r14, %rdi
	callq	__ZN4core3fmt9Formatter11debug_tuple17h15ca25ad759edd1cE
Ltmp969:
	.loc	29 460 13
	movq	%rbx, -48(%rbp)
	.loc	29 455 14
	leaq	l___unnamed_28(%rip), %rdx
	jmp	LBB132_36
Ltmp970:
LBB132_5:
	.loc	29 461 13
	addq	$4, %rbx
Ltmp971:
	.loc	29 0 13 is_stmt 0
	leaq	-72(%rbp), %r14
Ltmp972:
	.loc	29 455 14 is_stmt 1
	leaq	l___unnamed_146(%rip), %rdx
	movl	$3, %ecx
	movq	%r14, %rdi
	callq	__ZN4core3fmt9Formatter11debug_tuple17h15ca25ad759edd1cE
Ltmp973:
	.loc	29 461 13
	movq	%rbx, -48(%rbp)
	.loc	29 455 14
	leaq	l___unnamed_27(%rip), %rdx
	jmp	LBB132_36
Ltmp974:
LBB132_6:
	.loc	29 462 13
	addq	$8, %rbx
Ltmp975:
	.loc	29 0 13 is_stmt 0
	leaq	-72(%rbp), %r14
Ltmp976:
	.loc	29 455 14 is_stmt 1
	leaq	l___unnamed_147(%rip), %rdx
	movl	$3, %ecx
	movq	%r14, %rdi
	callq	__ZN4core3fmt9Formatter11debug_tuple17h15ca25ad759edd1cE
Ltmp977:
	.loc	29 462 13
	movq	%rbx, -48(%rbp)
	.loc	29 455 14
	leaq	l___unnamed_16(%rip), %rdx
	jmp	LBB132_36
Ltmp978:
LBB132_7:
	.loc	29 464 12
	incq	%rbx
Ltmp979:
	.loc	29 0 12 is_stmt 0
	leaq	-72(%rbp), %r14
Ltmp980:
	.loc	29 455 14 is_stmt 1
	leaq	l___unnamed_148(%rip), %rdx
	movl	$2, %ecx
	movq	%r14, %rdi
	callq	__ZN4core3fmt9Formatter11debug_tuple17h15ca25ad759edd1cE
Ltmp981:
	.loc	29 464 12
	movq	%rbx, -48(%rbp)
	.loc	29 455 14
	leaq	l___unnamed_26(%rip), %rdx
	jmp	LBB132_36
Ltmp982:
LBB132_8:
	.loc	29 465 13
	addq	$2, %rbx
Ltmp983:
	.loc	29 0 13 is_stmt 0
	leaq	-72(%rbp), %r14
Ltmp984:
	.loc	29 455 14 is_stmt 1
	leaq	l___unnamed_149(%rip), %rdx
	movl	$3, %ecx
	movq	%r14, %rdi
	callq	__ZN4core3fmt9Formatter11debug_tuple17h15ca25ad759edd1cE
Ltmp985:
	.loc	29 465 13
	movq	%rbx, -48(%rbp)
	.loc	29 455 14
	leaq	l___unnamed_25(%rip), %rdx
	jmp	LBB132_36
Ltmp986:
LBB132_9:
	.loc	29 466 13
	addq	$4, %rbx
Ltmp987:
	.loc	29 0 13 is_stmt 0
	leaq	-72(%rbp), %r14
Ltmp988:
	.loc	29 455 14 is_stmt 1
	leaq	l___unnamed_150(%rip), %rdx
	movl	$3, %ecx
	movq	%r14, %rdi
	callq	__ZN4core3fmt9Formatter11debug_tuple17h15ca25ad759edd1cE
Ltmp989:
	.loc	29 466 13
	movq	%rbx, -48(%rbp)
	.loc	29 455 14
	leaq	l___unnamed_24(%rip), %rdx
	jmp	LBB132_36
Ltmp990:
LBB132_10:
	.loc	29 467 13
	addq	$8, %rbx
Ltmp991:
	.loc	29 0 13 is_stmt 0
	leaq	-72(%rbp), %r14
Ltmp992:
	.loc	29 455 14 is_stmt 1
	leaq	l___unnamed_151(%rip), %rdx
	movl	$3, %ecx
	movq	%r14, %rdi
	callq	__ZN4core3fmt9Formatter11debug_tuple17h15ca25ad759edd1cE
Ltmp993:
	.loc	29 467 13
	movq	%rbx, -48(%rbp)
	.loc	29 455 14
	leaq	l___unnamed_15(%rip), %rdx
	jmp	LBB132_36
Ltmp994:
LBB132_11:
	.loc	29 469 13
	addq	$4, %rbx
Ltmp995:
	.loc	29 0 13 is_stmt 0
	leaq	-72(%rbp), %r14
Ltmp996:
	.loc	29 455 14 is_stmt 1
	leaq	l___unnamed_152(%rip), %rdx
	movl	$3, %ecx
	movq	%r14, %rdi
	callq	__ZN4core3fmt9Formatter11debug_tuple17h15ca25ad759edd1cE
Ltmp997:
	.loc	29 469 13
	movq	%rbx, -48(%rbp)
	.loc	29 455 14
	leaq	l___unnamed_23(%rip), %rdx
	jmp	LBB132_36
Ltmp998:
LBB132_12:
	.loc	29 470 13
	addq	$8, %rbx
Ltmp999:
	.loc	29 0 13 is_stmt 0
	leaq	-72(%rbp), %r14
Ltmp1000:
	.loc	29 455 14 is_stmt 1
	leaq	l___unnamed_153(%rip), %rdx
	movl	$3, %ecx
	movq	%r14, %rdi
	callq	__ZN4core3fmt9Formatter11debug_tuple17h15ca25ad759edd1cE
Ltmp1001:
	.loc	29 470 13
	movq	%rbx, -48(%rbp)
	.loc	29 455 14
	leaq	l___unnamed_14(%rip), %rdx
	jmp	LBB132_36
Ltmp1002:
LBB132_13:
	.loc	29 472 14
	addq	$4, %rbx
Ltmp1003:
	.loc	29 0 14 is_stmt 0
	leaq	-72(%rbp), %r14
Ltmp1004:
	.loc	29 455 14 is_stmt 1
	leaq	L___unnamed_130(%rip), %rdx
	movl	$4, %ecx
	movq	%r14, %rdi
	callq	__ZN4core3fmt9Formatter11debug_tuple17h15ca25ad759edd1cE
Ltmp1005:
	.loc	29 472 14
	movq	%rbx, -48(%rbp)
	.loc	29 455 14
	leaq	l___unnamed_13(%rip), %rdx
	jmp	LBB132_36
Ltmp1006:
LBB132_14:
	.loc	29 473 16
	addq	$8, %rbx
Ltmp1007:
	.loc	29 0 16 is_stmt 0
	leaq	-72(%rbp), %r14
Ltmp1008:
	.loc	29 455 14 is_stmt 1
	leaq	l___unnamed_154(%rip), %rdx
	movl	$6, %ecx
	movq	%r14, %rdi
	callq	__ZN4core3fmt9Formatter11debug_tuple17h15ca25ad759edd1cE
Ltmp1009:
	.loc	29 473 16
	movq	%rbx, -48(%rbp)
	.loc	29 455 14
	leaq	l___unnamed_22(%rip), %rdx
	jmp	LBB132_36
Ltmp1010:
LBB132_15:
	.loc	29 474 15
	addq	$8, %rbx
Ltmp1011:
	.loc	29 0 15 is_stmt 0
	leaq	-72(%rbp), %r14
Ltmp1012:
	.loc	29 455 14 is_stmt 1
	leaq	l___unnamed_132(%rip), %rdx
	movl	$5, %ecx
	movq	%r14, %rdi
	callq	__ZN4core3fmt9Formatter11debug_tuple17h15ca25ad759edd1cE
Ltmp1013:
	.loc	29 474 15
	movq	%rbx, -48(%rbp)
	.loc	29 455 14
	leaq	l___unnamed_21(%rip), %rdx
	jmp	LBB132_36
Ltmp1014:
LBB132_16:
	.loc	29 0 14 is_stmt 0
	leaq	-72(%rbp), %r14
Ltmp1015:
	.loc	29 455 14
	leaq	L___unnamed_156(%rip), %rdx
	jmp	LBB132_17
Ltmp1016:
LBB132_18:
	.loc	29 477 14 is_stmt 1
	addq	$8, %rbx
Ltmp1017:
	.loc	29 0 14 is_stmt 0
	leaq	-72(%rbp), %r14
Ltmp1018:
	.loc	29 455 14 is_stmt 1
	leaq	L___unnamed_157(%rip), %rdx
	movl	$4, %ecx
	movq	%r14, %rdi
	callq	__ZN4core3fmt9Formatter11debug_tuple17h15ca25ad759edd1cE
Ltmp1019:
	.loc	29 0 14 is_stmt 0
	jmp	LBB132_24
Ltmp1020:
LBB132_19:
	leaq	-72(%rbp), %r14
Ltmp1021:
	.loc	29 455 14
	leaq	L___unnamed_133(%rip), %rdx
Ltmp1022:
LBB132_17:
	movl	$4, %ecx
	movq	%r14, %rdi
	callq	__ZN4core3fmt9Formatter11debug_tuple17h15ca25ad759edd1cE
Ltmp1023:
	.loc	29 0 14
	jmp	LBB132_38
Ltmp1024:
LBB132_20:
	.loc	29 480 20 is_stmt 1
	addq	$8, %rbx
Ltmp1025:
	.loc	29 0 20 is_stmt 0
	leaq	-72(%rbp), %r14
Ltmp1026:
	.loc	29 455 14 is_stmt 1
	leaq	l___unnamed_159(%rip), %rdx
	movl	$10, %ecx
	movq	%r14, %rdi
	callq	__ZN4core3fmt9Formatter11debug_tuple17h15ca25ad759edd1cE
Ltmp1027:
	.loc	29 480 20
	movq	%rbx, -48(%rbp)
	.loc	29 455 14
	leaq	l___unnamed_9(%rip), %rdx
	jmp	LBB132_36
Ltmp1028:
LBB132_21:
	.loc	29 481 21
	leaq	8(%rbx), %r15
Ltmp1029:
	.loc	29 481 35 is_stmt 0
	leaq	4(%rbx), %r12
Ltmp1030:
	.loc	29 481 40
	addq	$24, %rbx
Ltmp1031:
	.loc	29 0 40
	leaq	-72(%rbp), %r14
Ltmp1032:
	.loc	29 455 14 is_stmt 1
	leaq	l___unnamed_139(%rip), %rdx
	movl	$11, %ecx
	movq	%r14, %rdi
	callq	__ZN4core3fmt9Formatter11debug_tuple17h15ca25ad759edd1cE
Ltmp1033:
	.loc	29 481 21
	movq	%r15, -48(%rbp)
	.loc	29 455 14
	leaq	l___unnamed_9(%rip), %r15
Ltmp1034:
	.loc	29 0 14 is_stmt 0
	leaq	-48(%rbp), %rsi
	.loc	29 455 14
	movq	%r14, %rdi
	movq	%r15, %rdx
	callq	__ZN4core3fmt8builders10DebugTuple5field17hf36121153a94f236E
	.loc	29 481 35 is_stmt 1
	movq	%r12, -48(%rbp)
	.loc	29 455 14
	leaq	l___unnamed_27(%rip), %rdx
	leaq	-48(%rbp), %rsi
	movq	%r14, %rdi
	callq	__ZN4core3fmt8builders10DebugTuple5field17hf36121153a94f236E
	.loc	29 481 40
	movq	%rbx, -48(%rbp)
	leaq	-48(%rbp), %rsi
	.loc	29 455 14
	movq	%r14, %rdi
	movq	%r15, %rdx
	jmp	LBB132_37
Ltmp1035:
LBB132_22:
	.loc	29 482 23
	leaq	8(%rbx), %r15
Ltmp1036:
	.loc	29 482 37 is_stmt 0
	addq	$24, %rbx
Ltmp1037:
	.loc	29 0 37
	leaq	-72(%rbp), %r14
Ltmp1038:
	.loc	29 455 14 is_stmt 1
	leaq	l___unnamed_135(%rip), %rdx
	movl	$13, %ecx
	movq	%r14, %rdi
	callq	__ZN4core3fmt9Formatter11debug_tuple17h15ca25ad759edd1cE
Ltmp1039:
	.loc	29 482 23
	movq	%r15, -48(%rbp)
	.loc	29 455 14
	leaq	l___unnamed_9(%rip), %rdx
	leaq	-48(%rbp), %rsi
	movq	%r14, %rdi
	jmp	LBB132_23
Ltmp1040:
LBB132_25:
	.loc	29 483 24
	leaq	8(%rbx), %r15
Ltmp1041:
	.loc	29 483 38 is_stmt 0
	leaq	4(%rbx), %r12
Ltmp1042:
	.loc	29 483 43
	leaq	24(%rbx), %r13
Ltmp1043:
	.loc	29 483 57
	addq	$40, %rbx
Ltmp1044:
	.loc	29 0 57
	leaq	-72(%rbp), %r14
Ltmp1045:
	.loc	29 455 14 is_stmt 1
	leaq	l___unnamed_140(%rip), %rdx
	movl	$14, %ecx
	movq	%r14, %rdi
	callq	__ZN4core3fmt9Formatter11debug_tuple17h15ca25ad759edd1cE
Ltmp1046:
	.loc	29 483 24
	movq	%r15, -48(%rbp)
	.loc	29 455 14
	leaq	l___unnamed_9(%rip), %r15
Ltmp1047:
	.loc	29 0 14 is_stmt 0
	leaq	-48(%rbp), %rsi
	.loc	29 455 14
	movq	%r14, %rdi
	movq	%r15, %rdx
	callq	__ZN4core3fmt8builders10DebugTuple5field17hf36121153a94f236E
	.loc	29 483 38 is_stmt 1
	movq	%r12, -48(%rbp)
	.loc	29 455 14
	leaq	l___unnamed_27(%rip), %rdx
	leaq	-48(%rbp), %rsi
	movq	%r14, %rdi
	callq	__ZN4core3fmt8builders10DebugTuple5field17hf36121153a94f236E
	.loc	29 483 43
	movq	%r13, -48(%rbp)
	leaq	-48(%rbp), %rsi
	.loc	29 455 14
	movq	%r14, %rdi
	movq	%r15, %rdx
Ltmp1048:
LBB132_23:
	.loc	29 0 0 is_stmt 0
	callq	__ZN4core3fmt8builders10DebugTuple5field17hf36121153a94f236E
LBB132_24:
	movq	%rbx, -48(%rbp)
	leaq	l___unnamed_32(%rip), %rdx
	jmp	LBB132_36
LBB132_26:
Ltmp1049:
	.loc	29 485 13 is_stmt 1
	addq	$8, %rbx
Ltmp1050:
	.loc	29 0 13 is_stmt 0
	leaq	-72(%rbp), %r14
Ltmp1051:
	.loc	29 455 14 is_stmt 1
	leaq	l___unnamed_136(%rip), %rdx
	movl	$3, %ecx
	jmp	LBB132_27
Ltmp1052:
LBB132_28:
	.loc	29 486 15
	addq	$8, %rbx
Ltmp1053:
	.loc	29 0 15 is_stmt 0
	leaq	-72(%rbp), %r14
Ltmp1054:
	.loc	29 455 14 is_stmt 1
	leaq	l___unnamed_160(%rip), %rdx
	movl	$5, %ecx
Ltmp1055:
LBB132_27:
	.loc	29 0 0 is_stmt 0
	movq	%r14, %rdi
	callq	__ZN4core3fmt9Formatter11debug_tuple17h15ca25ad759edd1cE
Ltmp1056:
	jmp	LBB132_31
LBB132_29:
Ltmp1057:
	.loc	29 487 21 is_stmt 1
	leaq	8(%rbx), %r15
Ltmp1058:
	.loc	29 487 35 is_stmt 0
	addq	$24, %rbx
Ltmp1059:
	.loc	29 0 35
	leaq	-72(%rbp), %r14
Ltmp1060:
	.loc	29 455 14 is_stmt 1
	leaq	l___unnamed_161(%rip), %rdx
	movl	$11, %ecx
	movq	%r14, %rdi
	callq	__ZN4core3fmt9Formatter11debug_tuple17h15ca25ad759edd1cE
Ltmp1061:
	.loc	29 487 21
	movq	%r15, -48(%rbp)
	.loc	29 455 14
	leaq	l___unnamed_9(%rip), %rdx
	leaq	-48(%rbp), %rsi
	movq	%r14, %rdi
	jmp	LBB132_30
Ltmp1062:
LBB132_32:
	.loc	29 488 22
	leaq	8(%rbx), %r15
Ltmp1063:
	.loc	29 488 36 is_stmt 0
	leaq	4(%rbx), %r12
Ltmp1064:
	.loc	29 488 41
	leaq	24(%rbx), %r13
Ltmp1065:
	.loc	29 488 55
	addq	$40, %rbx
Ltmp1066:
	.loc	29 0 55
	leaq	-72(%rbp), %r14
Ltmp1067:
	.loc	29 455 14 is_stmt 1
	leaq	l___unnamed_141(%rip), %rdx
	movl	$12, %ecx
	movq	%r14, %rdi
	callq	__ZN4core3fmt9Formatter11debug_tuple17h15ca25ad759edd1cE
Ltmp1068:
	.loc	29 488 22
	movq	%r15, -48(%rbp)
	.loc	29 455 14
	leaq	l___unnamed_9(%rip), %r15
Ltmp1069:
	.loc	29 0 14 is_stmt 0
	leaq	-48(%rbp), %rsi
	.loc	29 455 14
	movq	%r14, %rdi
	movq	%r15, %rdx
	callq	__ZN4core3fmt8builders10DebugTuple5field17hf36121153a94f236E
	.loc	29 488 36 is_stmt 1
	movq	%r12, -48(%rbp)
	.loc	29 455 14
	leaq	l___unnamed_27(%rip), %rdx
	leaq	-48(%rbp), %rsi
	movq	%r14, %rdi
	callq	__ZN4core3fmt8builders10DebugTuple5field17hf36121153a94f236E
	.loc	29 488 41
	movq	%r13, -48(%rbp)
	leaq	-48(%rbp), %rsi
	.loc	29 455 14
	movq	%r14, %rdi
	movq	%r15, %rdx
Ltmp1070:
LBB132_30:
	.loc	29 0 0 is_stmt 0
	callq	__ZN4core3fmt8builders10DebugTuple5field17hf36121153a94f236E
LBB132_31:
	movq	%rbx, -48(%rbp)
	leaq	l___unnamed_31(%rip), %rdx
	jmp	LBB132_36
LBB132_33:
Ltmp1071:
	.loc	29 489 13 is_stmt 1
	addq	$8, %rbx
Ltmp1072:
	.loc	29 0 13 is_stmt 0
	leaq	-72(%rbp), %r14
Ltmp1073:
	.loc	29 455 14 is_stmt 1
	leaq	l___unnamed_137(%rip), %rdx
	movl	$3, %ecx
	movq	%r14, %rdi
	callq	__ZN4core3fmt9Formatter11debug_tuple17h15ca25ad759edd1cE
Ltmp1074:
	.loc	29 489 13
	movq	%rbx, -48(%rbp)
	.loc	29 455 14
	leaq	l___unnamed_30(%rip), %rdx
	jmp	LBB132_36
Ltmp1075:
LBB132_34:
	.loc	29 490 16
	leaq	8(%rbx), %r15
Ltmp1076:
	.loc	29 490 30 is_stmt 0
	addq	$24, %rbx
Ltmp1077:
	.loc	29 0 30
	leaq	-72(%rbp), %r14
Ltmp1078:
	.loc	29 455 14 is_stmt 1
	leaq	l___unnamed_162(%rip), %rdx
	movl	$6, %ecx
	movq	%r14, %rdi
	callq	__ZN4core3fmt9Formatter11debug_tuple17h15ca25ad759edd1cE
Ltmp1079:
	.loc	29 490 16
	movq	%r15, -48(%rbp)
	.loc	29 455 14
	leaq	l___unnamed_9(%rip), %rdx
	leaq	-48(%rbp), %rsi
	movq	%r14, %rdi
	jmp	LBB132_35
Ltmp1080:
LBB132_1:
	.loc	29 493 13
	leaq	4(%rbx), %r12
Ltmp1081:
	.loc	29 494 13
	leaq	24(%rbx), %r13
	.loc	29 492 13
	leaq	8(%rbx), %r15
Ltmp1082:
	.loc	29 495 13
	addq	$40, %rbx
Ltmp1083:
	.loc	29 0 13 is_stmt 0
	leaq	-72(%rbp), %r14
Ltmp1084:
	.loc	29 455 14 is_stmt 1
	leaq	l___unnamed_142(%rip), %rdx
	movl	$13, %ecx
	movq	%r14, %rdi
	callq	__ZN4core3fmt9Formatter11debug_tuple17h15ca25ad759edd1cE
Ltmp1085:
	.loc	29 492 13
	movq	%r15, -48(%rbp)
	.loc	29 455 14
	leaq	l___unnamed_9(%rip), %r15
	leaq	-48(%rbp), %rsi
	movq	%r14, %rdi
	movq	%r15, %rdx
	callq	__ZN4core3fmt8builders10DebugTuple5field17hf36121153a94f236E
	.loc	29 493 13
	movq	%r12, -48(%rbp)
	.loc	29 455 14
	leaq	l___unnamed_27(%rip), %rdx
	leaq	-48(%rbp), %rsi
	movq	%r14, %rdi
	callq	__ZN4core3fmt8builders10DebugTuple5field17hf36121153a94f236E
	.loc	29 494 13
	movq	%r13, -48(%rbp)
	leaq	-48(%rbp), %rsi
	.loc	29 455 14
	movq	%r14, %rdi
	movq	%r15, %rdx
Ltmp1086:
LBB132_35:
	.loc	29 0 0 is_stmt 0
	callq	__ZN4core3fmt8builders10DebugTuple5field17hf36121153a94f236E
	movq	%rbx, -48(%rbp)
	leaq	l___unnamed_29(%rip), %rdx
LBB132_36:
	leaq	-48(%rbp), %rsi
	movq	%r14, %rdi
LBB132_37:
	callq	__ZN4core3fmt8builders10DebugTuple5field17hf36121153a94f236E
LBB132_38:
	movq	%r14, %rdi
	callq	__ZN4core3fmt8builders10DebugTuple6finish17h68acf09c6f6593f2E
	.loc	29 455 19
	addq	$40, %rsp
	popq	%rbx
	popq	%r12
	popq	%r13
	popq	%r14
	popq	%r15
	popq	%rbp
	retq
Ltmp1087:
Lfunc_end132:
	.cfi_endproc
	.p2align	2, 0x90
	.data_region jt32
.set L132_0_set_2, LBB132_2-LJTI132_0
.set L132_0_set_3, LBB132_3-LJTI132_0
.set L132_0_set_4, LBB132_4-LJTI132_0
.set L132_0_set_5, LBB132_5-LJTI132_0
.set L132_0_set_6, LBB132_6-LJTI132_0
.set L132_0_set_7, LBB132_7-LJTI132_0
.set L132_0_set_8, LBB132_8-LJTI132_0
.set L132_0_set_9, LBB132_9-LJTI132_0
.set L132_0_set_10, LBB132_10-LJTI132_0
.set L132_0_set_11, LBB132_11-LJTI132_0
.set L132_0_set_12, LBB132_12-LJTI132_0
.set L132_0_set_13, LBB132_13-LJTI132_0
.set L132_0_set_14, LBB132_14-LJTI132_0
.set L132_0_set_15, LBB132_15-LJTI132_0
.set L132_0_set_16, LBB132_16-LJTI132_0
.set L132_0_set_18, LBB132_18-LJTI132_0
.set L132_0_set_19, LBB132_19-LJTI132_0
.set L132_0_set_20, LBB132_20-LJTI132_0
.set L132_0_set_21, LBB132_21-LJTI132_0
.set L132_0_set_22, LBB132_22-LJTI132_0
.set L132_0_set_25, LBB132_25-LJTI132_0
.set L132_0_set_26, LBB132_26-LJTI132_0
.set L132_0_set_28, LBB132_28-LJTI132_0
.set L132_0_set_29, LBB132_29-LJTI132_0
.set L132_0_set_32, LBB132_32-LJTI132_0
.set L132_0_set_33, LBB132_33-LJTI132_0
.set L132_0_set_34, LBB132_34-LJTI132_0
.set L132_0_set_1, LBB132_1-LJTI132_0
LJTI132_0:
	.long	L132_0_set_2
	.long	L132_0_set_3
	.long	L132_0_set_4
	.long	L132_0_set_5
	.long	L132_0_set_6
	.long	L132_0_set_7
	.long	L132_0_set_8
	.long	L132_0_set_9
	.long	L132_0_set_10
	.long	L132_0_set_11
	.long	L132_0_set_12
	.long	L132_0_set_13
	.long	L132_0_set_14
	.long	L132_0_set_15
	.long	L132_0_set_16
	.long	L132_0_set_18
	.long	L132_0_set_19
	.long	L132_0_set_20
	.long	L132_0_set_21
	.long	L132_0_set_22
	.long	L132_0_set_25
	.long	L132_0_set_26
	.long	L132_0_set_28
	.long	L132_0_set_29
	.long	L132_0_set_32
	.long	L132_0_set_33
	.long	L132_0_set_34
	.long	L132_0_set_1
	.end_data_region

	.section	__DATA,__const
	.p2align	3
l___unnamed_1:
	.quad	__ZN4core3ptr13drop_in_place17h049dd4fa458b17afE
	.quad	16
	.quad	8
	.quad	__ZN91_$LT$std..panicking..begin_panic..PanicPayload$LT$A$GT$$u20$as$u20$core..panic..BoxMeUp$GT$8take_box17h4ccfc7f4a06e9a17E
	.quad	__ZN91_$LT$std..panicking..begin_panic..PanicPayload$LT$A$GT$$u20$as$u20$core..panic..BoxMeUp$GT$3get17h95d8d3581d5a428fE

	.p2align	3
l___unnamed_2:
	.quad	__ZN4core3ptr13drop_in_place17h049dd4fa458b17afE
	.quad	8
	.quad	8
	.quad	__ZN42_$LT$$RF$T$u20$as$u20$core..fmt..Debug$GT$3fmt17h67efe15667c6fe72E

	.p2align	3
l___unnamed_3:
	.quad	__ZN4core3ptr13drop_in_place17h049dd4fa458b17afE
	.quad	8
	.quad	8
	.quad	__ZN42_$LT$$RF$T$u20$as$u20$core..fmt..Debug$GT$3fmt17hd8ae4dfea49f0027E

	.p2align	3
l___unnamed_4:
	.quad	__ZN4core3ptr13drop_in_place17h049dd4fa458b17afE
	.quad	8
	.quad	8
	.quad	__ZN42_$LT$$RF$T$u20$as$u20$core..fmt..Debug$GT$3fmt17h9fc2a87a5cf0fdc3E

	.p2align	3
l___unnamed_5:
	.quad	__ZN4core3ptr13drop_in_place17h049dd4fa458b17afE
	.quad	8
	.quad	8
	.quad	__ZN42_$LT$$RF$T$u20$as$u20$core..fmt..Debug$GT$3fmt17hcdd3820c5c859624E

	.p2align	3
l___unnamed_6:
	.quad	__ZN4core3ptr13drop_in_place17h049dd4fa458b17afE
	.quad	8
	.quad	8
	.quad	__ZN42_$LT$$RF$T$u20$as$u20$core..fmt..Debug$GT$3fmt17h4d8dfc42ada2e56fE

	.p2align	3
l___unnamed_7:
	.quad	__ZN4core3ptr13drop_in_place17h049dd4fa458b17afE
	.quad	8
	.quad	8
	.quad	__ZN42_$LT$$RF$T$u20$as$u20$core..fmt..Debug$GT$3fmt17h3271aeb33014618eE

	.section	__TEXT,__const
l___unnamed_59:
	.ascii	"called `Result::unwrap()` on an `Err` value"

	.section	__DATA,__const
	.p2align	3
l___unnamed_8:
	.quad	__ZN4core3ptr13drop_in_place17h049dd4fa458b17afE
	.quad	16
	.quad	8
	.quad	__ZN57_$LT$core..str..Utf8Error$u20$as$u20$core..fmt..Debug$GT$3fmt17h1ecfb3cce2e619e0E

	.section	__TEXT,__const
	.p2align	3
l___unnamed_33:
	.byte	0

	.section	__DATA,__const
	.p2align	3
l___unnamed_9:
	.quad	__ZN4core3ptr13drop_in_place17h049dd4fa458b17afE
	.quad	8
	.quad	8
	.quad	__ZN42_$LT$$RF$T$u20$as$u20$core..fmt..Debug$GT$3fmt17h68c17ab46274955fE

	.p2align	3
l___unnamed_10:
	.quad	__ZN4core3ptr13drop_in_place17h049dd4fa458b17afE
	.quad	16
	.quad	8
	.quad	__ZN36_$LT$T$u20$as$u20$core..any..Any$GT$7type_id17hf5a9b9229e75aa80E

	.section	__TEXT,__const
l___unnamed_163:
	.ascii	"1 element in sequence"

	.section	__DATA,__const
	.p2align	3
l___unnamed_34:
	.quad	l___unnamed_163
	.asciz	"\025\000\000\000\000\000\000"

	.section	__TEXT,__const
l___unnamed_164:
	.ascii	" elements in sequence"

	.section	__DATA,__const
	.p2align	3
l___unnamed_35:
	.quad	l___unnamed_33
	.space	8
	.quad	l___unnamed_164
	.asciz	"\025\000\000\000\000\000\000"

	.section	__TEXT,__literal16,16byte_literals
L___unnamed_165:
	.ascii	"1 element in map"

	.section	__DATA,__const
	.p2align	3
l___unnamed_36:
	.quad	L___unnamed_165
	.asciz	"\020\000\000\000\000\000\000"

	.section	__TEXT,__literal16,16byte_literals
L___unnamed_166:
	.ascii	" elements in map"

	.section	__DATA,__const
	.p2align	3
l___unnamed_37:
	.quad	l___unnamed_33
	.space	8
	.quad	L___unnamed_166
	.asciz	"\020\000\000\000\000\000\000"

	.section	__TEXT,__const
l___unnamed_38:
	.ascii	"anything at all"

	.section	__TEXT,__literal4,4byte_literals
L___unnamed_39:
	.ascii	"unit"

	.section	__TEXT,__const
l___unnamed_40:
	.ascii	"a boolean"

l___unnamed_41:
	.ascii	"a character"

	.section	__TEXT,__literal8,8byte_literals
L___unnamed_42:
	.ascii	"a string"

	.section	__TEXT,__const
l___unnamed_43:
	.ascii	"a borrowed string"

l___unnamed_44:
	.ascii	"a borrowed byte array"

l___unnamed_45:
	.ascii	"byte array"

l___unnamed_46:
	.ascii	"IP address"

l___unnamed_47:
	.ascii	"socket address"

l___unnamed_48:
	.ascii	"a borrowed path"

l___unnamed_49:
	.ascii	"path string"

l___unnamed_50:
	.ascii	"os string"

l___unnamed_51:
	.ascii	"`secs` or `nanos`"

l___unnamed_52:
	.ascii	"struct Duration"

l___unnamed_53:
	.ascii	"`secs_since_epoch` or `nanos_since_epoch`"

l___unnamed_54:
	.ascii	"struct SystemTime"

	.section	__TEXT,__literal16,16byte_literals
L___unnamed_55:
	.ascii	"`start` or `end`"

	.section	__TEXT,__const
l___unnamed_56:
	.ascii	"`Unbounded`, `Included` or `Excluded`"

l___unnamed_57:
	.ascii	"`Ok` or `Err`"

l___unnamed_167:
	.ascii	"/Users/yingyuhang/.cargo/registry/src/github.com-1ecc6299db9ec823/serde-1.0.114/src/de/utf8.rs"

	.section	__DATA,__const
	.p2align	3
l___unnamed_58:
	.quad	l___unnamed_167
	.asciz	"^\000\000\000\000\000\000\000,\000\000\000\031\000\000"

	.p2align	3
l___unnamed_60:
	.quad	l___unnamed_167
	.asciz	"^\000\000\000\000\000\000\000,\000\000\000\t\000\000"

	.section	__TEXT,__const
l___unnamed_168:
	.ascii	"struct variant"

	.section	__DATA,__const
	.p2align	3
l___unnamed_76:
	.quad	l___unnamed_168
	.asciz	"\016\000\000\000\000\000\000"

	.section	__TEXT,__const
l___unnamed_169:
	.ascii	"tuple variant"

	.section	__DATA,__const
	.p2align	3
l___unnamed_75:
	.quad	l___unnamed_169
	.asciz	"\r\000\000\000\000\000\000"

	.section	__TEXT,__const
l___unnamed_170:
	.ascii	"newtype variant"

	.section	__DATA,__const
	.p2align	3
l___unnamed_74:
	.quad	l___unnamed_170
	.asciz	"\017\000\000\000\000\000\000"

	.section	__TEXT,__const
l___unnamed_171:
	.ascii	"unit variant"

	.section	__DATA,__const
	.p2align	3
l___unnamed_73:
	.quad	l___unnamed_171
	.asciz	"\f\000\000\000\000\000\000"

	.section	__TEXT,__literal4,4byte_literals
L___unnamed_172:
	.ascii	"enum"

	.section	__DATA,__const
	.p2align	3
l___unnamed_72:
	.quad	L___unnamed_172
	.asciz	"\004\000\000\000\000\000\000"

	.section	__TEXT,__const
l___unnamed_173:
	.ascii	"map"

	.section	__DATA,__const
	.p2align	3
l___unnamed_71:
	.quad	l___unnamed_173
	.asciz	"\003\000\000\000\000\000\000"

	.section	__TEXT,__literal8,8byte_literals
L___unnamed_174:
	.ascii	"sequence"

	.section	__DATA,__const
	.p2align	3
l___unnamed_70:
	.quad	L___unnamed_174
	.asciz	"\b\000\000\000\000\000\000"

	.section	__TEXT,__const
l___unnamed_175:
	.ascii	"newtype struct"

	.section	__DATA,__const
	.p2align	3
l___unnamed_69:
	.quad	l___unnamed_175
	.asciz	"\016\000\000\000\000\000\000"

	.section	__TEXT,__const
l___unnamed_176:
	.ascii	"Option value"

	.section	__DATA,__const
	.p2align	3
l___unnamed_68:
	.quad	l___unnamed_176
	.asciz	"\f\000\000\000\000\000\000"

	.section	__TEXT,__const
l___unnamed_177:
	.ascii	"unit value"

	.section	__DATA,__const
	.p2align	3
l___unnamed_67:
	.quad	l___unnamed_177
	.asciz	"\n\000\000\000\000\000\000"

	.p2align	3
l___unnamed_66:
	.quad	l___unnamed_45
	.asciz	"\n\000\000\000\000\000\000"

	.section	__TEXT,__const
l___unnamed_178:
	.ascii	"string "

	.section	__DATA,__const
	.p2align	3
l___unnamed_65:
	.quad	l___unnamed_178
	.asciz	"\007\000\000\000\000\000\000"

	.section	__TEXT,__const
l___unnamed_179:
	.ascii	"character `"

l___unnamed_180:
	.byte	96

	.section	__DATA,__const
	.p2align	3
l___unnamed_64:
	.quad	l___unnamed_179
	.asciz	"\013\000\000\000\000\000\000"
	.quad	l___unnamed_180
	.asciz	"\001\000\000\000\000\000\000"

	.section	__TEXT,__literal16,16byte_literals
L___unnamed_181:
	.ascii	"floating point `"

	.section	__DATA,__const
	.p2align	3
l___unnamed_63:
	.quad	L___unnamed_181
	.asciz	"\020\000\000\000\000\000\000"
	.quad	l___unnamed_180
	.asciz	"\001\000\000\000\000\000\000"

	.section	__TEXT,__const
l___unnamed_182:
	.ascii	"integer `"

	.section	__DATA,__const
	.p2align	3
l___unnamed_62:
	.quad	l___unnamed_182
	.asciz	"\t\000\000\000\000\000\000"
	.quad	l___unnamed_180
	.asciz	"\001\000\000\000\000\000\000"

	.section	__TEXT,__const
l___unnamed_183:
	.ascii	"boolean `"

	.section	__DATA,__const
	.p2align	3
l___unnamed_61:
	.quad	l___unnamed_183
	.asciz	"\t\000\000\000\000\000\000"
	.quad	l___unnamed_180
	.asciz	"\001\000\000\000\000\000\000"

	.section	__TEXT,__const
l___unnamed_184:
	.ascii	"one of "

	.section	__DATA,__const
	.p2align	3
l___unnamed_77:
	.quad	l___unnamed_184
	.asciz	"\007\000\000\000\000\000\000"

	.section	__TEXT,__const
l___unnamed_185:
	.ascii	", "

	.section	__DATA,__const
	.p2align	3
l___unnamed_78:
	.quad	l___unnamed_185
	.asciz	"\002\000\000\000\000\000\000"

	.p2align	3
l___unnamed_79:
	.quad	l___unnamed_180
	.asciz	"\001\000\000\000\000\000\000"
	.quad	l___unnamed_180
	.asciz	"\001\000\000\000\000\000\000"

	.section	__TEXT,__const
l___unnamed_186:
	.ascii	"` or `"

	.section	__DATA,__const
	.p2align	3
l___unnamed_80:
	.quad	l___unnamed_180
	.asciz	"\001\000\000\000\000\000\000"
	.quad	l___unnamed_186
	.asciz	"\006\000\000\000\000\000\000"
	.quad	l___unnamed_180
	.asciz	"\001\000\000\000\000\000\000"

	.section	__TEXT,__const
l___unnamed_187:
	.ascii	"/Users/yingyuhang/.cargo/registry/src/github.com-1ecc6299db9ec823/serde-1.0.114/src/de/mod.rs"

l___unnamed_81:
	.ascii	"explicit panic"

	.section	__DATA,__const
	.p2align	3
l___unnamed_82:
	.quad	l___unnamed_187
	.asciz	"]\000\000\000\000\000\000\000\325\b\000\000\022\000\000"

	.section	__TEXT,__const
l___unnamed_83:
	.ascii	"a byte array"

l___unnamed_84:
	.ascii	"any value"

l___unnamed_188:
	.ascii	"a type tag `"

l___unnamed_189:
	.ascii	"` or any other value"

	.section	__DATA,__const
	.p2align	3
l___unnamed_85:
	.quad	l___unnamed_188
	.asciz	"\f\000\000\000\000\000\000"
	.quad	l___unnamed_189
	.asciz	"\024\000\000\000\000\000\000"

	.section	__TEXT,__literal4,4byte_literals
L___unnamed_190:
	.ascii	" or "

	.section	__DATA,__const
	.p2align	3
l___unnamed_86:
	.quad	l___unnamed_33
	.space	8
	.quad	L___unnamed_190
	.asciz	"\004\000\000\000\000\000\000"

	.section	__TEXT,__const
l___unnamed_191:
	.ascii	", or other ignored fields"

	.section	__DATA,__const
	.p2align	3
l___unnamed_87:
	.quad	l___unnamed_33
	.space	8
	.quad	l___unnamed_185
	.asciz	"\002\000\000\000\000\000\000"
	.quad	l___unnamed_191
	.asciz	"\031\000\000\000\000\000\000"

	.section	__TEXT,__const
l___unnamed_192:
	.ascii	"unit variant "

l___unnamed_193:
	.space	2,58

	.section	__DATA,__const
	.p2align	3
l___unnamed_88:
	.quad	l___unnamed_192
	.asciz	"\r\000\000\000\000\000\000"
	.quad	l___unnamed_193
	.asciz	"\002\000\000\000\000\000\000"

	.section	__TEXT,__const
l___unnamed_97:
	.ascii	"an enum"

l___unnamed_96:
	.ascii	"a tuple struct"

l___unnamed_95:
	.ascii	"a tuple"

l___unnamed_94:
	.ascii	"a sequence"

l___unnamed_93:
	.ascii	"unit struct"

l___unnamed_92:
	.ascii	"an optional"

l___unnamed_91:
	.ascii	"a char"

l___unnamed_90:
	.ascii	"a float"

l___unnamed_89:
	.ascii	"an integer"

l___unnamed_98:
	.ascii	"not implemented"

l___unnamed_194:
	.ascii	"/Users/yingyuhang/.cargo/registry/src/github.com-1ecc6299db9ec823/serde-1.0.114/src/private/ser.rs"

	.section	__DATA,__const
	.p2align	3
l___unnamed_99:
	.quad	l___unnamed_194
	.asciz	"b\000\000\000\000\000\000\000c\001\000\000\t\000\000"

	.p2align	3
l___unnamed_100:
	.quad	l___unnamed_194
	.asciz	"b\000\000\000\000\000\000\000i\001\000\000\t\000\000"

	.section	__TEXT,__const
l___unnamed_101:
	.ascii	"Error"

l___unnamed_102:
	.ascii	"err"

	.section	__DATA,__const
	.p2align	3
l___unnamed_11:
	.quad	__ZN4core3ptr13drop_in_place17h049dd4fa458b17afE
	.quad	8
	.quad	8
	.quad	__ZN42_$LT$$RF$T$u20$as$u20$core..fmt..Debug$GT$3fmt17h0689247bae46160aE

	.section	__TEXT,__const
l___unnamed_103:
	.ascii	"IgnoredAny"

l___unnamed_104:
	.ascii	"i8"

l___unnamed_105:
	.ascii	"i16"

l___unnamed_106:
	.ascii	"i32"

l___unnamed_107:
	.ascii	"i64"

l___unnamed_108:
	.ascii	"isize"

l___unnamed_109:
	.ascii	"u8"

l___unnamed_110:
	.ascii	"u16"

l___unnamed_111:
	.ascii	"u32"

l___unnamed_112:
	.ascii	"u64"

l___unnamed_113:
	.ascii	"usize"

l___unnamed_114:
	.ascii	"f32"

l___unnamed_115:
	.ascii	"f64"

	.section	__TEXT,__literal4,4byte_literals
L___unnamed_116:
	.ascii	"i128"

L___unnamed_117:
	.ascii	"u128"

	.section	__TEXT,__literal8,8byte_literals
L___unnamed_118:
	.ascii	"a IpAddr"

	.section	__TEXT,__const
l___unnamed_195:
	.ascii	"V4"

l___unnamed_196:
	.ascii	"V6"

	.section	__DATA,__const
	.p2align	3
l___unnamed_197:
	.quad	l___unnamed_195
	.asciz	"\002\000\000\000\000\000\000"
	.quad	l___unnamed_196
	.asciz	"\002\000\000\000\000\000\000"

	.globl	__ZN5serde2de5impls73_$LT$impl$u20$serde..de..Deserialize$u20$for$u20$std..net..ip..IpAddr$GT$11deserialize8VARIANTS17h6bdc758a24c8f8d9E
	.p2align	3
__ZN5serde2de5impls73_$LT$impl$u20$serde..de..Deserialize$u20$for$u20$std..net..ip..IpAddr$GT$11deserialize8VARIANTS17h6bdc758a24c8f8d9E:
	.quad	l___unnamed_197
	.asciz	"\002\000\000\000\000\000\000"

	.section	__TEXT,__const
l___unnamed_119:
	.ascii	"`V4` or `V6`"

l___unnamed_120:
	.ascii	"IPv4 address"

l___unnamed_121:
	.ascii	"IPv6 address"

l___unnamed_122:
	.ascii	"a SocketAddr"

	.section	__DATA,__const
	.globl	__ZN5serde2de5impls79_$LT$impl$u20$serde..de..Deserialize$u20$for$u20$std..net..addr..SocketAddr$GT$11deserialize8VARIANTS17h543d7b8dd008819bE
	.p2align	3
__ZN5serde2de5impls79_$LT$impl$u20$serde..de..Deserialize$u20$for$u20$std..net..addr..SocketAddr$GT$11deserialize8VARIANTS17h543d7b8dd008819bE:
	.quad	l___unnamed_197
	.asciz	"\002\000\000\000\000\000\000"

	.section	__TEXT,__const
l___unnamed_123:
	.ascii	"IPv4 socket address"

l___unnamed_124:
	.ascii	"IPv6 socket address"

	.section	__TEXT,__literal4,4byte_literals
L___unnamed_198:
	.ascii	"Unix"

	.section	__TEXT,__const
l___unnamed_199:
	.ascii	"Windows"

	.section	__DATA,__const
	.p2align	3
l___unnamed_200:
	.quad	L___unnamed_198
	.asciz	"\004\000\000\000\000\000\000"
	.quad	l___unnamed_199
	.asciz	"\007\000\000\000\000\000\000"

	.globl	__ZN5serde2de5impls14OSSTR_VARIANTS17h531a629d54793bfdE
	.p2align	3
__ZN5serde2de5impls14OSSTR_VARIANTS17h531a629d54793bfdE:
	.quad	l___unnamed_200
	.asciz	"\002\000\000\000\000\000\000"

	.section	__TEXT,__const
l___unnamed_125:
	.ascii	"`Unix` or `Windows`"

l___unnamed_143:
	.ascii	"Other"

l___unnamed_142:
	.ascii	"StructVariant"

l___unnamed_141:
	.ascii	"TupleVariant"

l___unnamed_140:
	.ascii	"NewtypeVariant"

l___unnamed_139:
	.ascii	"UnitVariant"

	.section	__TEXT,__literal4,4byte_literals
L___unnamed_138:
	.ascii	"Enum"

	.section	__TEXT,__const
l___unnamed_137:
	.ascii	"Map"

l___unnamed_136:
	.ascii	"Seq"

l___unnamed_135:
	.ascii	"NewtypeStruct"

l___unnamed_134:
	.ascii	"Option"

	.section	__TEXT,__literal4,4byte_literals
L___unnamed_133:
	.ascii	"Unit"

	.section	__TEXT,__const
l___unnamed_132:
	.ascii	"Bytes"

	.section	__DATA,__const
	.p2align	3
l___unnamed_12:
	.quad	__ZN4core3ptr13drop_in_place17h049dd4fa458b17afE
	.quad	8
	.quad	8
	.quad	__ZN42_$LT$$RF$T$u20$as$u20$core..fmt..Debug$GT$3fmt17hc3c6ffe35551f7daE

	.section	__TEXT,__const
l___unnamed_131:
	.ascii	"Str"

	.section	__TEXT,__literal4,4byte_literals
L___unnamed_130:
	.ascii	"Char"

	.section	__DATA,__const
	.p2align	3
l___unnamed_13:
	.quad	__ZN4core3ptr13drop_in_place17h049dd4fa458b17afE
	.quad	8
	.quad	8
	.quad	__ZN42_$LT$$RF$T$u20$as$u20$core..fmt..Debug$GT$3fmt17h15ff0d07bf7769f1E

	.section	__TEXT,__const
l___unnamed_129:
	.ascii	"Float"

	.section	__DATA,__const
	.p2align	3
l___unnamed_14:
	.quad	__ZN4core3ptr13drop_in_place17h049dd4fa458b17afE
	.quad	8
	.quad	8
	.quad	__ZN42_$LT$$RF$T$u20$as$u20$core..fmt..Debug$GT$3fmt17h411dff589df30611E

	.section	__TEXT,__const
l___unnamed_128:
	.ascii	"Signed"

	.section	__DATA,__const
	.p2align	3
l___unnamed_15:
	.quad	__ZN4core3ptr13drop_in_place17h049dd4fa458b17afE
	.quad	8
	.quad	8
	.quad	__ZN42_$LT$$RF$T$u20$as$u20$core..fmt..Debug$GT$3fmt17hf553795854918defE

	.section	__TEXT,__literal8,8byte_literals
L___unnamed_127:
	.ascii	"Unsigned"

	.section	__DATA,__const
	.p2align	3
l___unnamed_16:
	.quad	__ZN4core3ptr13drop_in_place17h049dd4fa458b17afE
	.quad	8
	.quad	8
	.quad	__ZN42_$LT$$RF$T$u20$as$u20$core..fmt..Debug$GT$3fmt17h5d66a74483c04a02E

	.section	__TEXT,__literal4,4byte_literals
L___unnamed_126:
	.ascii	"Bool"

	.section	__DATA,__const
	.p2align	3
l___unnamed_17:
	.quad	__ZN4core3ptr13drop_in_place17h049dd4fa458b17afE
	.quad	8
	.quad	8
	.quad	__ZN42_$LT$$RF$T$u20$as$u20$core..fmt..Debug$GT$3fmt17hffa08c1e46858cbeE

	.p2align	3
l___unnamed_18:
	.quad	__ZN4core3ptr13drop_in_place17h049dd4fa458b17afE
	.quad	8
	.quad	8
	.quad	__ZN42_$LT$$RF$T$u20$as$u20$core..fmt..Debug$GT$3fmt17hf57aaca69b1d633fE

	.p2align	3
l___unnamed_19:
	.quad	__ZN4core3ptr13drop_in_place17h049dd4fa458b17afE
	.quad	8
	.quad	8
	.quad	__ZN42_$LT$$RF$T$u20$as$u20$core..fmt..Debug$GT$3fmt17h31a09e9577274ca4E

	.section	__TEXT,__const
l___unnamed_158:
	.ascii	"Newtype"

	.section	__DATA,__const
	.p2align	3
l___unnamed_20:
	.quad	__ZN4core3ptr13drop_in_place17h049dd4fa458b17afE
	.quad	8
	.quad	8
	.quad	__ZN42_$LT$$RF$T$u20$as$u20$core..fmt..Debug$GT$3fmt17h6d166cf5c6a1c65eE

	.section	__TEXT,__literal4,4byte_literals
L___unnamed_157:
	.ascii	"Some"

L___unnamed_156:
	.ascii	"None"

	.section	__TEXT,__const
l___unnamed_155:
	.ascii	"ByteBuf"

	.section	__DATA,__const
	.p2align	3
l___unnamed_21:
	.quad	__ZN4core3ptr13drop_in_place17h049dd4fa458b17afE
	.quad	8
	.quad	8
	.quad	__ZN42_$LT$$RF$T$u20$as$u20$core..fmt..Debug$GT$3fmt17h66af0846fc2a9ed5E

	.section	__TEXT,__const
l___unnamed_154:
	.ascii	"String"

	.section	__DATA,__const
	.p2align	3
l___unnamed_22:
	.quad	__ZN4core3ptr13drop_in_place17h049dd4fa458b17afE
	.quad	8
	.quad	8
	.quad	__ZN42_$LT$$RF$T$u20$as$u20$core..fmt..Debug$GT$3fmt17h28dfd00cd55c9844E

	.section	__TEXT,__const
l___unnamed_153:
	.ascii	"F64"

l___unnamed_152:
	.ascii	"F32"

	.section	__DATA,__const
	.p2align	3
l___unnamed_23:
	.quad	__ZN4core3ptr13drop_in_place17h049dd4fa458b17afE
	.quad	8
	.quad	8
	.quad	__ZN42_$LT$$RF$T$u20$as$u20$core..fmt..Debug$GT$3fmt17hb80a7b133d9e444aE

	.section	__TEXT,__const
l___unnamed_151:
	.ascii	"I64"

l___unnamed_150:
	.ascii	"I32"

	.section	__DATA,__const
	.p2align	3
l___unnamed_24:
	.quad	__ZN4core3ptr13drop_in_place17h049dd4fa458b17afE
	.quad	8
	.quad	8
	.quad	__ZN42_$LT$$RF$T$u20$as$u20$core..fmt..Debug$GT$3fmt17hc7e72ec39eba521dE

	.section	__TEXT,__const
l___unnamed_149:
	.ascii	"I16"

	.section	__DATA,__const
	.p2align	3
l___unnamed_25:
	.quad	__ZN4core3ptr13drop_in_place17h049dd4fa458b17afE
	.quad	8
	.quad	8
	.quad	__ZN42_$LT$$RF$T$u20$as$u20$core..fmt..Debug$GT$3fmt17h5fedd35ffcc1a560E

	.section	__TEXT,__const
l___unnamed_148:
	.ascii	"I8"

	.section	__DATA,__const
	.p2align	3
l___unnamed_26:
	.quad	__ZN4core3ptr13drop_in_place17h049dd4fa458b17afE
	.quad	8
	.quad	8
	.quad	__ZN42_$LT$$RF$T$u20$as$u20$core..fmt..Debug$GT$3fmt17hb7ad936d844cf0c0E

	.section	__TEXT,__const
l___unnamed_147:
	.ascii	"U64"

l___unnamed_146:
	.ascii	"U32"

	.section	__DATA,__const
	.p2align	3
l___unnamed_27:
	.quad	__ZN4core3ptr13drop_in_place17h049dd4fa458b17afE
	.quad	8
	.quad	8
	.quad	__ZN42_$LT$$RF$T$u20$as$u20$core..fmt..Debug$GT$3fmt17hf491574c67210f7bE

	.section	__TEXT,__const
l___unnamed_145:
	.ascii	"U16"

	.section	__DATA,__const
	.p2align	3
l___unnamed_28:
	.quad	__ZN4core3ptr13drop_in_place17h049dd4fa458b17afE
	.quad	8
	.quad	8
	.quad	__ZN42_$LT$$RF$T$u20$as$u20$core..fmt..Debug$GT$3fmt17h808973fe7a2d3d37E

	.section	__TEXT,__const
l___unnamed_144:
	.ascii	"U8"

	.section	__DATA,__const
	.p2align	3
l___unnamed_29:
	.quad	__ZN4core3ptr13drop_in_place17h049dd4fa458b17afE
	.quad	8
	.quad	8
	.quad	__ZN42_$LT$$RF$T$u20$as$u20$core..fmt..Debug$GT$3fmt17hb8bc3cd6ec98248eE

	.section	__TEXT,__const
l___unnamed_162:
	.ascii	"Struct"

	.section	__DATA,__const
	.p2align	3
l___unnamed_30:
	.quad	__ZN4core3ptr13drop_in_place17h049dd4fa458b17afE
	.quad	8
	.quad	8
	.quad	__ZN42_$LT$$RF$T$u20$as$u20$core..fmt..Debug$GT$3fmt17had06e37b9ce15ae5E

	.p2align	3
l___unnamed_31:
	.quad	__ZN4core3ptr13drop_in_place17h049dd4fa458b17afE
	.quad	8
	.quad	8
	.quad	__ZN42_$LT$$RF$T$u20$as$u20$core..fmt..Debug$GT$3fmt17hb65b9b0f6c5e2134E

	.section	__TEXT,__const
l___unnamed_161:
	.ascii	"TupleStruct"

l___unnamed_160:
	.ascii	"Tuple"

	.section	__DATA,__const
	.p2align	3
l___unnamed_32:
	.quad	__ZN4core3ptr13drop_in_place17h049dd4fa458b17afE
	.quad	8
	.quad	8
	.quad	__ZN42_$LT$$RF$T$u20$as$u20$core..fmt..Debug$GT$3fmt17h3adcb53d67118848E

	.section	__TEXT,__const
l___unnamed_159:
	.ascii	"UnitStruct"

	.section	__DATA,__const
Lsec_end0:
	.section	__TEXT,__text,regular,pure_instructions
Lsec_end1: