	.section	__TEXT,__text,regular,pure_instructions
	.macosx_version_min 10, 7
	.file	1 "/Users/yingyuhang/.cargo/registry/src/github.com-1ecc6299db9ec823/serde-1.0.114/src/de/impls.rs"
	.p2align	4, 0x90
__ZN36_$LT$T$u20$as$u20$core..any..Any$GT$7type_id17h8dc7195ddbc4b32fE:
Lfunc_begin0:
	.file	2 "/rustc/6c8927b0cf80ceee19386026cf9d7fd4fd9d486f/src/libcore/any.rs"
	.loc	2 109 0
	.cfi_startproc
	pushq	%rbp
	.cfi_def_cfa_offset 16
	.cfi_offset %rbp, -16
	movq	%rsp, %rbp
	.cfi_def_cfa_register %rbp
	movabsq	$9147559743429524724, %rax
Ltmp0:
	.loc	2 111 6 prologue_end
	popq	%rbp
	retq
Ltmp1:
Lfunc_end0:
	.cfi_endproc

	.p2align	4, 0x90
__ZN3std9panicking11begin_panic17hc5eb7c927fa097f5E:
Lfunc_begin1:
	.file	3 "/rustc/6c8927b0cf80ceee19386026cf9d7fd4fd9d486f/src/libstd/panicking.rs"
	.loc	3 451 0
	.cfi_startproc
	pushq	%rbp
	.cfi_def_cfa_offset 16
	.cfi_offset %rbp, -16
	movq	%rsp, %rbp
	.cfi_def_cfa_register %rbp
	subq	$16, %rsp
Ltmp2:
	.loc	3 456 31 prologue_end
	movq	%rdi, -16(%rbp)
	movq	%rsi, -8(%rbp)
	.loc	3 456 61 is_stmt 0
	movq	%rdx, %rdi
Ltmp3:
	callq	__ZN4core5panic8Location6caller17hb284bf0993c43fcaE
Ltmp4:
	.loc	3 456 5
	leaq	l___unnamed_1(%rip), %rsi
	leaq	-16(%rbp), %rdi
	xorl	%edx, %edx
	movq	%rax, %rcx
	callq	__ZN3std9panicking20rust_panic_with_hook17h720143ee15fc80baE
Ltmp5:
Lfunc_end1:
	.cfi_endproc

	.p2align	4, 0x90
__ZN42_$LT$$RF$T$u20$as$u20$core..fmt..Debug$GT$3fmt17h0890c7e79da22c7eE:
Lfunc_begin2:
	.file	4 "/rustc/6c8927b0cf80ceee19386026cf9d7fd4fd9d486f/src/libcore/fmt/mod.rs"
	.loc	4 2022 0 is_stmt 1
	.cfi_startproc
	pushq	%rbp
	.cfi_def_cfa_offset 16
	.cfi_offset %rbp, -16
	movq	%rsp, %rbp
	.cfi_def_cfa_register %rbp
	movq	%rsi, %rdx
Ltmp6:
	.loc	4 2022 71 prologue_end
	movq	(%rdi), %rax
	movq	8(%rdi), %rsi
	.loc	4 2022 62 is_stmt 0
	movq	%rax, %rdi
Ltmp7:
	popq	%rbp
	jmp	__ZN40_$LT$str$u20$as$u20$core..fmt..Debug$GT$3fmt17h5b42b6f497bd434cE
Ltmp8:
Lfunc_end2:
	.cfi_endproc

	.p2align	4, 0x90
__ZN42_$LT$$RF$T$u20$as$u20$core..fmt..Debug$GT$3fmt17h13d50759f614286bE:
Lfunc_begin3:
	.loc	4 2022 0 is_stmt 1
	.cfi_startproc
	pushq	%rbp
	.cfi_def_cfa_offset 16
	.cfi_offset %rbp, -16
	movq	%rsp, %rbp
	.cfi_def_cfa_register %rbp
	movq	%rsi, %rdx
Ltmp9:
	.loc	4 2022 71 prologue_end
	movq	(%rdi), %rax
Ltmp10:
	.file	5 "/rustc/6c8927b0cf80ceee19386026cf9d7fd4fd9d486f/src/liballoc/vec.rs"
	.loc	5 818 19
	movq	(%rax), %rdi
Ltmp11:
	.loc	5 1923 55
	movq	16(%rax), %rsi
Ltmp12:
	.file	6 "/rustc/6c8927b0cf80ceee19386026cf9d7fd4fd9d486f/src/liballoc/string.rs"
	.loc	6 1960 9
	popq	%rbp
	jmp	__ZN40_$LT$str$u20$as$u20$core..fmt..Debug$GT$3fmt17h5b42b6f497bd434cE
Ltmp13:
Lfunc_end3:
	.cfi_endproc

	.p2align	4, 0x90
__ZN42_$LT$$RF$T$u20$as$u20$core..fmt..Debug$GT$3fmt17h1780001c5014600bE:
Lfunc_begin4:
	.loc	4 2022 0
	.cfi_startproc
	pushq	%rbp
	.cfi_def_cfa_offset 16
	.cfi_offset %rbp, -16
	movq	%rsp, %rbp
	.cfi_def_cfa_register %rbp
	pushq	%r14
	pushq	%rbx
	.cfi_offset %rbx, -32
	.cfi_offset %r14, -24
	movq	%rsi, %rbx
Ltmp14:
	.loc	4 2022 71 prologue_end
	movq	(%rdi), %r14
Ltmp15:
	.file	7 "/rustc/6c8927b0cf80ceee19386026cf9d7fd4fd9d486f/src/libcore/fmt/num.rs"
	.loc	7 149 20
	movq	%rsi, %rdi
Ltmp16:
	callq	__ZN4core3fmt9Formatter15debug_lower_hex17hd07f6fde8d0365dfE
	.loc	7 149 17 is_stmt 0
	testb	%al, %al
	je	LBB4_1
Ltmp17:
	.loc	7 150 21 is_stmt 1
	movq	%r14, %rdi
	movq	%rbx, %rsi
	popq	%rbx
Ltmp18:
	popq	%r14
Ltmp19:
	popq	%rbp
	jmp	__ZN4core3fmt3num53_$LT$impl$u20$core..fmt..LowerHex$u20$for$u20$i64$GT$3fmt17h4ef40751c6de7de0E
LBB4_1:
Ltmp20:
	.loc	7 151 27
	movq	%rbx, %rdi
	callq	__ZN4core3fmt9Formatter15debug_upper_hex17hf480c256a9c81c1eE
	.loc	7 154 21
	movq	%r14, %rdi
	movq	%rbx, %rsi
	.loc	7 151 24
	testb	%al, %al
	je	LBB4_4
Ltmp21:
	.loc	7 152 21
	popq	%rbx
Ltmp22:
	popq	%r14
Ltmp23:
	popq	%rbp
	jmp	__ZN4core3fmt3num53_$LT$impl$u20$core..fmt..UpperHex$u20$for$u20$i64$GT$3fmt17h98e190490afbae54E
LBB4_4:
Ltmp24:
	.loc	7 154 21
	popq	%rbx
Ltmp25:
	popq	%r14
Ltmp26:
	popq	%rbp
	jmp	__ZN4core3fmt3num3imp52_$LT$impl$u20$core..fmt..Display$u20$for$u20$i64$GT$3fmt17h310ed6661e8c983fE
Ltmp27:
Lfunc_end4:
	.cfi_endproc

	.p2align	4, 0x90
__ZN42_$LT$$RF$T$u20$as$u20$core..fmt..Debug$GT$3fmt17h268cd1520e5a4ce8E:
Lfunc_begin5:
	.loc	4 2022 0
	.cfi_startproc
	pushq	%rbp
	.cfi_def_cfa_offset 16
	.cfi_offset %rbp, -16
	movq	%rsp, %rbp
	.cfi_def_cfa_register %rbp
	pushq	%r14
	pushq	%rbx
	.cfi_offset %rbx, -32
	.cfi_offset %r14, -24
	movq	%rsi, %rbx
Ltmp28:
	.loc	4 2022 71 prologue_end
	movq	(%rdi), %r14
Ltmp29:
	.loc	7 149 20
	movq	%rsi, %rdi
Ltmp30:
	callq	__ZN4core3fmt9Formatter15debug_lower_hex17hd07f6fde8d0365dfE
	.loc	7 149 17 is_stmt 0
	testb	%al, %al
	je	LBB5_1
Ltmp31:
	.loc	7 150 21 is_stmt 1
	movq	%r14, %rdi
	movq	%rbx, %rsi
	popq	%rbx
Ltmp32:
	popq	%r14
Ltmp33:
	popq	%rbp
	jmp	__ZN4core3fmt3num52_$LT$impl$u20$core..fmt..LowerHex$u20$for$u20$i8$GT$3fmt17h5ba2f2472d1b08b3E
LBB5_1:
Ltmp34:
	.loc	7 151 27
	movq	%rbx, %rdi
	callq	__ZN4core3fmt9Formatter15debug_upper_hex17hf480c256a9c81c1eE
	.loc	7 154 21
	movq	%r14, %rdi
	movq	%rbx, %rsi
	.loc	7 151 24
	testb	%al, %al
	je	LBB5_4
Ltmp35:
	.loc	7 152 21
	popq	%rbx
Ltmp36:
	popq	%r14
Ltmp37:
	popq	%rbp
	jmp	__ZN4core3fmt3num52_$LT$impl$u20$core..fmt..UpperHex$u20$for$u20$i8$GT$3fmt17h36a1c2413d99c98eE
LBB5_4:
Ltmp38:
	.loc	7 154 21
	popq	%rbx
Ltmp39:
	popq	%r14
Ltmp40:
	popq	%rbp
	jmp	__ZN4core3fmt3num3imp51_$LT$impl$u20$core..fmt..Display$u20$for$u20$i8$GT$3fmt17hc9fc67837369c997E
Ltmp41:
Lfunc_end5:
	.cfi_endproc

	.p2align	4, 0x90
__ZN42_$LT$$RF$T$u20$as$u20$core..fmt..Debug$GT$3fmt17h31ee741d61678ed5E:
Lfunc_begin6:
	.loc	4 2022 0
	.cfi_startproc
	pushq	%rbp
	.cfi_def_cfa_offset 16
	.cfi_offset %rbp, -16
	movq	%rsp, %rbp
	.cfi_def_cfa_register %rbp
Ltmp42:
	.loc	4 2022 71 prologue_end
	movq	(%rdi), %rdi
Ltmp43:
	.loc	4 2022 62 is_stmt 0
	popq	%rbp
	jmp	__ZN74_$LT$serde..private..ser..content..Content$u20$as$u20$core..fmt..Debug$GT$3fmt17hcf65f14d7c2f5a75E
Ltmp44:
Lfunc_end6:
	.cfi_endproc

	.p2align	4, 0x90
__ZN42_$LT$$RF$T$u20$as$u20$core..fmt..Debug$GT$3fmt17h32746ff95ce53557E:
Lfunc_begin7:
	.loc	4 2022 0 is_stmt 1
	.cfi_startproc
	pushq	%rbp
	.cfi_def_cfa_offset 16
	.cfi_offset %rbp, -16
	movq	%rsp, %rbp
	.cfi_def_cfa_register %rbp
Ltmp45:
	pushq	%r15
	pushq	%r14
	pushq	%r13
	pushq	%r12
	pushq	%rbx
	subq	$24, %rsp
	.cfi_offset %rbx, -56
	.cfi_offset %r12, -48
	.cfi_offset %r13, -40
	.cfi_offset %r14, -32
	.cfi_offset %r15, -24
	.loc	4 2022 71 prologue_end
	movq	(%rdi), %rax
Ltmp46:
	.loc	5 818 19
	movq	(%rax), %rbx
Ltmp47:
	.loc	5 1923 55
	movq	16(%rax), %r13
Ltmp48:
	.loc	5 0 55 is_stmt 0
	leaq	-64(%rbp), %rdi
Ltmp49:
	.loc	4 2211 9 is_stmt 1
	callq	__ZN4core3fmt9Formatter10debug_list17h113a4e31f24f00d7E
Ltmp50:
	.file	8 "/rustc/6c8927b0cf80ceee19386026cf9d7fd4fd9d486f/src/libcore/slice/mod.rs"
	.loc	8 3440 9
	testq	%r13, %r13
	.loc	8 3570 21
	je	LBB7_3
Ltmp51:
	.loc	8 0 21 is_stmt 0
	leaq	l___unnamed_5(%rip), %r14
	leaq	-64(%rbp), %r15
	leaq	-48(%rbp), %r12
Ltmp52:
	.p2align	4, 0x90
LBB7_2:
	.file	9 "/rustc/6c8927b0cf80ceee19386026cf9d7fd4fd9d486f/src/libcore/fmt/builders.rs"
	.loc	9 661 22 is_stmt 1
	movq	%rbx, -48(%rbp)
Ltmp53:
	.file	10 "/rustc/6c8927b0cf80ceee19386026cf9d7fd4fd9d486f/src/libcore/ptr/mut_ptr.rs"
	.loc	10 165 18
	incq	%rbx
Ltmp54:
	.loc	9 662 13
	movq	%r15, %rdi
	movq	%r12, %rsi
	movq	%r14, %rdx
	callq	__ZN4core3fmt8builders9DebugList5entry17h2dea26f6c644471aE
Ltmp55:
	.loc	8 3440 9
	decq	%r13
	.loc	8 3570 21
	jne	LBB7_2
Ltmp56:
LBB7_3:
	.loc	8 0 21 is_stmt 0
	leaq	-64(%rbp), %rdi
	.loc	4 2211 9 is_stmt 1
	callq	__ZN4core3fmt8builders9DebugList6finish17h1537bc92ee1acb1cE
Ltmp57:
	.loc	4 2022 84
	addq	$24, %rsp
	popq	%rbx
	popq	%r12
	popq	%r13
	popq	%r14
	popq	%r15
	popq	%rbp
	retq
Ltmp58:
Lfunc_end7:
	.cfi_endproc

	.p2align	4, 0x90
__ZN42_$LT$$RF$T$u20$as$u20$core..fmt..Debug$GT$3fmt17h3279030a39ba3de5E:
Lfunc_begin8:
	.loc	4 2022 0
	.cfi_startproc
	pushq	%rbp
	.cfi_def_cfa_offset 16
	.cfi_offset %rbp, -16
	movq	%rsp, %rbp
	.cfi_def_cfa_register %rbp
	pushq	%r14
	pushq	%rbx
	.cfi_offset %rbx, -32
	.cfi_offset %r14, -24
	movq	%rsi, %rbx
Ltmp59:
	.loc	4 2022 71 prologue_end
	movq	(%rdi), %r14
Ltmp60:
	.loc	7 149 20
	movq	%rsi, %rdi
Ltmp61:
	callq	__ZN4core3fmt9Formatter15debug_lower_hex17hd07f6fde8d0365dfE
	.loc	7 149 17 is_stmt 0
	testb	%al, %al
	je	LBB8_1
Ltmp62:
	.loc	7 150 21 is_stmt 1
	movq	%r14, %rdi
	movq	%rbx, %rsi
	popq	%rbx
Ltmp63:
	popq	%r14
Ltmp64:
	popq	%rbp
	jmp	__ZN4core3fmt3num53_$LT$impl$u20$core..fmt..LowerHex$u20$for$u20$u32$GT$3fmt17h019ba2b9dd60d385E
LBB8_1:
Ltmp65:
	.loc	7 151 27
	movq	%rbx, %rdi
	callq	__ZN4core3fmt9Formatter15debug_upper_hex17hf480c256a9c81c1eE
	.loc	7 154 21
	movq	%r14, %rdi
	movq	%rbx, %rsi
	.loc	7 151 24
	testb	%al, %al
	je	LBB8_4
Ltmp66:
	.loc	7 152 21
	popq	%rbx
Ltmp67:
	popq	%r14
Ltmp68:
	popq	%rbp
	jmp	__ZN4core3fmt3num53_$LT$impl$u20$core..fmt..UpperHex$u20$for$u20$u32$GT$3fmt17h7bd10b5f3c9584f1E
LBB8_4:
Ltmp69:
	.loc	7 154 21
	popq	%rbx
Ltmp70:
	popq	%r14
Ltmp71:
	popq	%rbp
	jmp	__ZN4core3fmt3num3imp52_$LT$impl$u20$core..fmt..Display$u20$for$u20$u32$GT$3fmt17hb70882cf65fd1a66E
Ltmp72:
Lfunc_end8:
	.cfi_endproc

	.p2align	4, 0x90
__ZN42_$LT$$RF$T$u20$as$u20$core..fmt..Debug$GT$3fmt17h334cca15724704bcE:
Lfunc_begin9:
	.loc	4 2022 0
	.cfi_startproc
	pushq	%rbp
	.cfi_def_cfa_offset 16
	.cfi_offset %rbp, -16
	movq	%rsp, %rbp
	.cfi_def_cfa_register %rbp
Ltmp73:
	.loc	4 2022 71 prologue_end
	movq	(%rdi), %rdi
Ltmp74:
	.loc	4 2022 62 is_stmt 0
	popq	%rbp
	jmp	__ZN41_$LT$char$u20$as$u20$core..fmt..Debug$GT$3fmt17hc4827edc88149effE
Ltmp75:
Lfunc_end9:
	.cfi_endproc

	.p2align	4, 0x90
__ZN42_$LT$$RF$T$u20$as$u20$core..fmt..Debug$GT$3fmt17h35775c0defef1f39E:
Lfunc_begin10:
	.loc	4 2022 0 is_stmt 1
	.cfi_startproc
	pushq	%rbp
	.cfi_def_cfa_offset 16
	.cfi_offset %rbp, -16
	movq	%rsp, %rbp
	.cfi_def_cfa_register %rbp
	movq	%rsi, %rdx
Ltmp76:
	.loc	4 2022 71 prologue_end
	movq	(%rdi), %rax
	.loc	4 2022 62 is_stmt 0
	movq	(%rax), %rdi
Ltmp77:
	movq	8(%rax), %rsi
Ltmp78:
	.file	11 "/rustc/6c8927b0cf80ceee19386026cf9d7fd4fd9d486f/src/liballoc/boxed.rs"
	.loc	11 971 9 is_stmt 1
	popq	%rbp
	jmp	__ZN40_$LT$str$u20$as$u20$core..fmt..Debug$GT$3fmt17h5b42b6f497bd434cE
Ltmp79:
Lfunc_end10:
	.cfi_endproc

	.p2align	4, 0x90
__ZN42_$LT$$RF$T$u20$as$u20$core..fmt..Debug$GT$3fmt17h3d93bd2ad7f68443E:
Lfunc_begin11:
	.loc	4 2022 0
	.cfi_startproc
	pushq	%rbp
	.cfi_def_cfa_offset 16
	.cfi_offset %rbp, -16
	movq	%rsp, %rbp
	.cfi_def_cfa_register %rbp
Ltmp80:
	.loc	4 2022 71 prologue_end
	movq	(%rdi), %rdi
Ltmp81:
	.loc	4 2052 9
	popq	%rbp
	jmp	__ZN43_$LT$bool$u20$as$u20$core..fmt..Display$GT$3fmt17hd78396651a24cfbbE
Ltmp82:
Lfunc_end11:
	.cfi_endproc

	.p2align	4, 0x90
__ZN42_$LT$$RF$T$u20$as$u20$core..fmt..Debug$GT$3fmt17h4dcb1798f3817d97E:
Lfunc_begin12:
	.loc	4 2022 0
	.cfi_startproc
	pushq	%rbp
	.cfi_def_cfa_offset 16
	.cfi_offset %rbp, -16
	movq	%rsp, %rbp
	.cfi_def_cfa_register %rbp
	pushq	%r14
	pushq	%rbx
	.cfi_offset %rbx, -32
	.cfi_offset %r14, -24
	movq	%rsi, %rbx
Ltmp83:
	.loc	4 2022 71 prologue_end
	movq	(%rdi), %r14
Ltmp84:
	.loc	7 149 20
	movq	%rsi, %rdi
Ltmp85:
	callq	__ZN4core3fmt9Formatter15debug_lower_hex17hd07f6fde8d0365dfE
	.loc	7 149 17 is_stmt 0
	testb	%al, %al
	je	LBB12_1
Ltmp86:
	.loc	7 150 21 is_stmt 1
	movq	%r14, %rdi
	movq	%rbx, %rsi
	popq	%rbx
Ltmp87:
	popq	%r14
Ltmp88:
	popq	%rbp
	jmp	__ZN4core3fmt3num53_$LT$impl$u20$core..fmt..LowerHex$u20$for$u20$u16$GT$3fmt17h7067c16dc119bdc6E
LBB12_1:
Ltmp89:
	.loc	7 151 27
	movq	%rbx, %rdi
	callq	__ZN4core3fmt9Formatter15debug_upper_hex17hf480c256a9c81c1eE
	.loc	7 154 21
	movq	%r14, %rdi
	movq	%rbx, %rsi
	.loc	7 151 24
	testb	%al, %al
	je	LBB12_4
Ltmp90:
	.loc	7 152 21
	popq	%rbx
Ltmp91:
	popq	%r14
Ltmp92:
	popq	%rbp
	jmp	__ZN4core3fmt3num53_$LT$impl$u20$core..fmt..UpperHex$u20$for$u20$u16$GT$3fmt17hb4f6c786d08c2f96E
LBB12_4:
Ltmp93:
	.loc	7 154 21
	popq	%rbx
Ltmp94:
	popq	%r14
Ltmp95:
	popq	%rbp
	jmp	__ZN4core3fmt3num3imp52_$LT$impl$u20$core..fmt..Display$u20$for$u20$u16$GT$3fmt17h5ce1a50c193bc52eE
Ltmp96:
Lfunc_end12:
	.cfi_endproc

	.p2align	4, 0x90
__ZN42_$LT$$RF$T$u20$as$u20$core..fmt..Debug$GT$3fmt17h4eb5c62d9729621dE:
Lfunc_begin13:
	.loc	4 2022 0
	.cfi_startproc
	pushq	%rbp
	.cfi_def_cfa_offset 16
	.cfi_offset %rbp, -16
	movq	%rsp, %rbp
	.cfi_def_cfa_register %rbp
Ltmp97:
	.loc	4 2022 71 prologue_end
	movq	(%rdi), %rax
	.loc	4 2022 62 is_stmt 0
	movq	(%rax), %rdi
Ltmp98:
	.loc	11 971 9 is_stmt 1
	popq	%rbp
	jmp	__ZN74_$LT$serde..private..ser..content..Content$u20$as$u20$core..fmt..Debug$GT$3fmt17hcf65f14d7c2f5a75E
Ltmp99:
Lfunc_end13:
	.cfi_endproc

	.p2align	4, 0x90
__ZN42_$LT$$RF$T$u20$as$u20$core..fmt..Debug$GT$3fmt17h4f2958e1ce48c93fE:
Lfunc_begin14:
	.loc	4 2022 0
	.cfi_startproc
	pushq	%rbp
	.cfi_def_cfa_offset 16
	.cfi_offset %rbp, -16
	movq	%rsp, %rbp
	.cfi_def_cfa_register %rbp
	movq	%rsi, %rdx
Ltmp100:
	.loc	4 2022 71 prologue_end
	movq	(%rdi), %rax
Ltmp101:
	.loc	4 2022 71 is_stmt 0
	movq	(%rax), %rdi
Ltmp102:
	movq	8(%rax), %rsi
	.loc	4 2022 62
	popq	%rbp
	jmp	__ZN40_$LT$str$u20$as$u20$core..fmt..Debug$GT$3fmt17h5b42b6f497bd434cE
Ltmp103:
Lfunc_end14:
	.cfi_endproc

	.p2align	4, 0x90
__ZN42_$LT$$RF$T$u20$as$u20$core..fmt..Debug$GT$3fmt17h574ff52fe5ecfe13E:
Lfunc_begin15:
	.loc	4 2022 0 is_stmt 1
	.cfi_startproc
	pushq	%rbp
	.cfi_def_cfa_offset 16
	.cfi_offset %rbp, -16
	movq	%rsp, %rbp
	.cfi_def_cfa_register %rbp
	pushq	%r14
	pushq	%rbx
	.cfi_offset %rbx, -32
	.cfi_offset %r14, -24
	movq	%rsi, %rbx
Ltmp104:
	.loc	4 2022 71 prologue_end
	movq	(%rdi), %r14
Ltmp105:
	.loc	7 149 20
	movq	%rsi, %rdi
Ltmp106:
	callq	__ZN4core3fmt9Formatter15debug_lower_hex17hd07f6fde8d0365dfE
	.loc	7 149 17 is_stmt 0
	testb	%al, %al
	je	LBB15_1
Ltmp107:
	.loc	7 150 21 is_stmt 1
	movq	%r14, %rdi
	movq	%rbx, %rsi
	popq	%rbx
Ltmp108:
	popq	%r14
Ltmp109:
	popq	%rbp
	jmp	__ZN4core3fmt3num53_$LT$impl$u20$core..fmt..LowerHex$u20$for$u20$i16$GT$3fmt17h7236122704e16c86E
LBB15_1:
Ltmp110:
	.loc	7 151 27
	movq	%rbx, %rdi
	callq	__ZN4core3fmt9Formatter15debug_upper_hex17hf480c256a9c81c1eE
	.loc	7 154 21
	movq	%r14, %rdi
	movq	%rbx, %rsi
	.loc	7 151 24
	testb	%al, %al
	je	LBB15_4
Ltmp111:
	.loc	7 152 21
	popq	%rbx
Ltmp112:
	popq	%r14
Ltmp113:
	popq	%rbp
	jmp	__ZN4core3fmt3num53_$LT$impl$u20$core..fmt..UpperHex$u20$for$u20$i16$GT$3fmt17hf50bc938a2a1e02bE
LBB15_4:
Ltmp114:
	.loc	7 154 21
	popq	%rbx
Ltmp115:
	popq	%r14
Ltmp116:
	popq	%rbp
	jmp	__ZN4core3fmt3num3imp52_$LT$impl$u20$core..fmt..Display$u20$for$u20$i16$GT$3fmt17h7c7135e52a8bf68aE
Ltmp117:
Lfunc_end15:
	.cfi_endproc

	.p2align	4, 0x90
__ZN42_$LT$$RF$T$u20$as$u20$core..fmt..Debug$GT$3fmt17h5f267e941ad7c336E:
Lfunc_begin16:
	.loc	4 2022 0
	.cfi_startproc
	pushq	%rbp
	.cfi_def_cfa_offset 16
	.cfi_offset %rbp, -16
	movq	%rsp, %rbp
	.cfi_def_cfa_register %rbp
Ltmp118:
	pushq	%r15
	pushq	%r14
	pushq	%r13
	pushq	%r12
	pushq	%rbx
	subq	$24, %rsp
	.cfi_offset %rbx, -56
	.cfi_offset %r12, -48
	.cfi_offset %r13, -40
	.cfi_offset %r14, -32
	.cfi_offset %r15, -24
	.loc	4 2022 71 prologue_end
	movq	(%rdi), %rax
Ltmp119:
	.loc	5 818 19
	movq	(%rax), %rbx
Ltmp120:
	.loc	5 1923 55
	movq	16(%rax), %r13
Ltmp121:
	.loc	5 0 55 is_stmt 0
	leaq	-64(%rbp), %rdi
Ltmp122:
	.loc	4 2211 9 is_stmt 1
	callq	__ZN4core3fmt9Formatter10debug_list17h113a4e31f24f00d7E
Ltmp123:
	.file	12 "/rustc/6c8927b0cf80ceee19386026cf9d7fd4fd9d486f/src/libcore/ptr/const_ptr.rs"
	.loc	12 164 18
	shlq	$6, %r13
Ltmp124:
	.loc	8 3570 21
	je	LBB16_3
Ltmp125:
	.loc	8 0 21 is_stmt 0
	leaq	l___unnamed_7(%rip), %r14
	leaq	-64(%rbp), %r15
	leaq	-48(%rbp), %r12
Ltmp126:
	.p2align	4, 0x90
LBB16_2:
	.loc	9 661 22 is_stmt 1
	movq	%rbx, -48(%rbp)
Ltmp127:
	.loc	10 165 18
	addq	$64, %rbx
Ltmp128:
	.loc	9 662 13
	movq	%r15, %rdi
	movq	%r12, %rsi
	movq	%r14, %rdx
	callq	__ZN4core3fmt8builders9DebugList5entry17h2dea26f6c644471aE
Ltmp129:
	.loc	8 3440 9
	addq	$-64, %r13
	.loc	8 3570 21
	jne	LBB16_2
Ltmp130:
LBB16_3:
	.loc	8 0 21 is_stmt 0
	leaq	-64(%rbp), %rdi
	.loc	4 2211 9 is_stmt 1
	callq	__ZN4core3fmt8builders9DebugList6finish17h1537bc92ee1acb1cE
Ltmp131:
	.loc	4 2022 84
	addq	$24, %rsp
	popq	%rbx
	popq	%r12
	popq	%r13
	popq	%r14
	popq	%r15
	popq	%rbp
	retq
Ltmp132:
Lfunc_end16:
	.cfi_endproc

	.p2align	4, 0x90
__ZN42_$LT$$RF$T$u20$as$u20$core..fmt..Debug$GT$3fmt17h611c97b3f144c76aE:
Lfunc_begin17:
	.loc	4 2022 0
	.cfi_startproc
	pushq	%rbp
	.cfi_def_cfa_offset 16
	.cfi_offset %rbp, -16
	movq	%rsp, %rbp
	.cfi_def_cfa_register %rbp
Ltmp133:
	.loc	4 2022 71 prologue_end
	movq	(%rdi), %rdi
Ltmp134:
	.loc	4 2022 62 is_stmt 0
	popq	%rbp
	jmp	__ZN73_$LT$serde..private..de..content..Content$u20$as$u20$core..fmt..Debug$GT$3fmt17hec240440ed0a5340E
Ltmp135:
Lfunc_end17:
	.cfi_endproc

	.p2align	4, 0x90
__ZN42_$LT$$RF$T$u20$as$u20$core..fmt..Debug$GT$3fmt17h7e6d1b5ee752a18dE:
Lfunc_begin18:
	.loc	4 2022 0 is_stmt 1
	.cfi_startproc
	pushq	%rbp
	.cfi_def_cfa_offset 16
	.cfi_offset %rbp, -16
	movq	%rsp, %rbp
	.cfi_def_cfa_register %rbp
Ltmp136:
	pushq	%r15
	pushq	%r14
	pushq	%r13
	pushq	%r12
	pushq	%rbx
	subq	$24, %rsp
	.cfi_offset %rbx, -56
	.cfi_offset %r12, -48
	.cfi_offset %r13, -40
	.cfi_offset %r14, -32
	.cfi_offset %r15, -24
	.loc	4 2022 71 prologue_end
	movq	(%rdi), %rax
Ltmp137:
	.loc	5 818 19
	movq	(%rax), %rbx
Ltmp138:
	.loc	5 1923 55
	movq	16(%rax), %r13
Ltmp139:
	.loc	5 0 55 is_stmt 0
	leaq	-64(%rbp), %rdi
Ltmp140:
	.loc	4 2211 9 is_stmt 1
	callq	__ZN4core3fmt9Formatter10debug_list17h113a4e31f24f00d7E
Ltmp141:
	.loc	8 3440 9
	testq	%r13, %r13
	.loc	8 3570 21
	je	LBB18_3
Ltmp142:
	shlq	$7, %r13
Ltmp143:
	.loc	8 0 21 is_stmt 0
	leaq	l___unnamed_4(%rip), %r14
	leaq	-64(%rbp), %r15
	leaq	-48(%rbp), %r12
Ltmp144:
	.p2align	4, 0x90
LBB18_2:
	.loc	9 661 22 is_stmt 1
	movq	%rbx, -48(%rbp)
Ltmp145:
	.file	13 "/rustc/6c8927b0cf80ceee19386026cf9d7fd4fd9d486f/src/libcore/ptr/non_null.rs"
	.loc	13 92 18
	subq	$-128, %rbx
Ltmp146:
	.loc	9 662 13
	movq	%r15, %rdi
	movq	%r12, %rsi
	movq	%r14, %rdx
	callq	__ZN4core3fmt8builders9DebugList5entry17h2dea26f6c644471aE
Ltmp147:
	.loc	8 3440 9
	addq	$-128, %r13
	.loc	8 3570 21
	jne	LBB18_2
Ltmp148:
LBB18_3:
	.loc	8 0 21 is_stmt 0
	leaq	-64(%rbp), %rdi
	.loc	4 2211 9 is_stmt 1
	callq	__ZN4core3fmt8builders9DebugList6finish17h1537bc92ee1acb1cE
Ltmp149:
	.loc	4 2022 84
	addq	$24, %rsp
	popq	%rbx
	popq	%r12
	popq	%r13
	popq	%r14
	popq	%r15
	popq	%rbp
	retq
Ltmp150:
Lfunc_end18:
	.cfi_endproc

	.p2align	4, 0x90
__ZN42_$LT$$RF$T$u20$as$u20$core..fmt..Debug$GT$3fmt17h8b8fb43eb1892d3aE:
Lfunc_begin19:
	.loc	4 2022 0
	.cfi_startproc
	pushq	%rbp
	.cfi_def_cfa_offset 16
	.cfi_offset %rbp, -16
	movq	%rsp, %rbp
	.cfi_def_cfa_register %rbp
Ltmp151:
	pushq	%r15
	pushq	%r14
	pushq	%rbx
	subq	$40, %rsp
	.cfi_offset %rbx, -40
	.cfi_offset %r14, -32
	.cfi_offset %r15, -24
	.loc	4 2022 71 prologue_end
	movq	(%rdi), %rbx
Ltmp152:
	.loc	4 2188 35
	leaq	l___unnamed_33(%rip), %rdx
	leaq	-64(%rbp), %r15
	movq	%r15, %rdi
Ltmp153:
	xorl	%ecx, %ecx
	callq	__ZN4core3fmt9Formatter11debug_tuple17h6c448643801d07e8E
Ltmp154:
	.loc	4 2189 24
	movq	%rbx, -32(%rbp)
	addq	$64, %rbx
Ltmp155:
	movq	%rbx, -40(%rbp)
Ltmp156:
	.loc	4 2191 21
	leaq	l___unnamed_7(%rip), %r14
	leaq	-32(%rbp), %rsi
	movq	%r15, %rdi
	movq	%r14, %rdx
	callq	__ZN4core3fmt8builders10DebugTuple5field17hc7b676d0e36b51d9E
Ltmp157:
	.loc	4 0 21 is_stmt 0
	leaq	-40(%rbp), %rsi
	.loc	4 2191 21
	movq	%r15, %rdi
	movq	%r14, %rdx
	callq	__ZN4core3fmt8builders10DebugTuple5field17hc7b676d0e36b51d9E
	.loc	4 2194 17 is_stmt 1
	movq	%r15, %rdi
	callq	__ZN4core3fmt8builders10DebugTuple6finish17h9f206806f7096c33E
Ltmp158:
	.loc	4 2022 84
	addq	$40, %rsp
	popq	%rbx
	popq	%r14
	popq	%r15
	popq	%rbp
	retq
Ltmp159:
Lfunc_end19:
	.cfi_endproc

	.p2align	4, 0x90
__ZN42_$LT$$RF$T$u20$as$u20$core..fmt..Debug$GT$3fmt17h94cc5f6140055b22E:
Lfunc_begin20:
	.loc	4 2022 0
	.cfi_startproc
	pushq	%rbp
	.cfi_def_cfa_offset 16
	.cfi_offset %rbp, -16
	movq	%rsp, %rbp
	.cfi_def_cfa_register %rbp
Ltmp160:
	pushq	%r14
	pushq	%rbx
	subq	$48, %rsp
	.cfi_offset %rbx, -32
	.cfi_offset %r14, -24
	.loc	4 2022 71 prologue_end
	movq	(%rdi), %rbx
Ltmp161:
	.loc	4 2188 35
	leaq	l___unnamed_33(%rip), %rdx
	leaq	-56(%rbp), %r14
	movq	%r14, %rdi
Ltmp162:
	xorl	%ecx, %ecx
	callq	__ZN4core3fmt9Formatter11debug_tuple17h6c448643801d07e8E
Ltmp163:
	.loc	4 2189 24
	movq	%rbx, -24(%rbp)
	addq	$16, %rbx
Ltmp164:
	movq	%rbx, -32(%rbp)
Ltmp165:
	.loc	4 2191 21
	leaq	l___unnamed_9(%rip), %rdx
	leaq	-24(%rbp), %rsi
	movq	%r14, %rdi
	callq	__ZN4core3fmt8builders10DebugTuple5field17hc7b676d0e36b51d9E
Ltmp166:
	leaq	l___unnamed_7(%rip), %rdx
	leaq	-32(%rbp), %rsi
	movq	%r14, %rdi
	callq	__ZN4core3fmt8builders10DebugTuple5field17hc7b676d0e36b51d9E
	.loc	4 2194 17
	movq	%r14, %rdi
	callq	__ZN4core3fmt8builders10DebugTuple6finish17h9f206806f7096c33E
Ltmp167:
	.loc	4 2022 84
	addq	$48, %rsp
	popq	%rbx
	popq	%r14
	popq	%rbp
	retq
Ltmp168:
Lfunc_end20:
	.cfi_endproc

	.p2align	4, 0x90
__ZN42_$LT$$RF$T$u20$as$u20$core..fmt..Debug$GT$3fmt17ha247993b1d956318E:
Lfunc_begin21:
	.loc	4 2022 0
	.cfi_startproc
	pushq	%rbp
	.cfi_def_cfa_offset 16
	.cfi_offset %rbp, -16
	movq	%rsp, %rbp
	.cfi_def_cfa_register %rbp
Ltmp169:
	.loc	4 2022 71 prologue_end
	movq	(%rdi), %rax
	.loc	4 2022 62 is_stmt 0
	movq	(%rax), %rdi
Ltmp170:
	.loc	11 971 9 is_stmt 1
	popq	%rbp
	jmp	__ZN73_$LT$serde..private..de..content..Content$u20$as$u20$core..fmt..Debug$GT$3fmt17hec240440ed0a5340E
Ltmp171:
Lfunc_end21:
	.cfi_endproc

	.p2align	4, 0x90
__ZN42_$LT$$RF$T$u20$as$u20$core..fmt..Debug$GT$3fmt17hb4c7782e08d49ec1E:
Lfunc_begin22:
	.loc	4 2022 0
	.cfi_startproc
	pushq	%rbp
	.cfi_def_cfa_offset 16
	.cfi_offset %rbp, -16
	movq	%rsp, %rbp
	.cfi_def_cfa_register %rbp
Ltmp172:
	pushq	%r15
	pushq	%r14
	pushq	%r13
	pushq	%r12
	pushq	%rbx
	subq	$24, %rsp
	.cfi_offset %rbx, -56
	.cfi_offset %r12, -48
	.cfi_offset %r13, -40
	.cfi_offset %r14, -32
	.cfi_offset %r15, -24
	.loc	4 2022 71 prologue_end
	movq	(%rdi), %rax
	.loc	4 2022 62 is_stmt 0
	movq	(%rax), %rbx
	movq	8(%rax), %r13
Ltmp173:
	.loc	4 0 62
	leaq	-64(%rbp), %rdi
Ltmp174:
	.loc	4 2211 9 is_stmt 1
	callq	__ZN4core3fmt9Formatter10debug_list17h113a4e31f24f00d7E
Ltmp175:
	.loc	8 3440 9
	testq	%r13, %r13
	.loc	8 3570 21
	je	LBB22_3
Ltmp176:
	.loc	8 0 21 is_stmt 0
	leaq	l___unnamed_5(%rip), %r14
	leaq	-64(%rbp), %r15
	leaq	-48(%rbp), %r12
Ltmp177:
	.p2align	4, 0x90
LBB22_2:
	.loc	9 661 22 is_stmt 1
	movq	%rbx, -48(%rbp)
Ltmp178:
	.loc	10 165 18
	incq	%rbx
Ltmp179:
	.loc	9 662 13
	movq	%r15, %rdi
	movq	%r12, %rsi
	movq	%r14, %rdx
	callq	__ZN4core3fmt8builders9DebugList5entry17h2dea26f6c644471aE
Ltmp180:
	.loc	8 3440 9
	decq	%r13
	.loc	8 3570 21
	jne	LBB22_2
Ltmp181:
LBB22_3:
	.loc	8 0 21 is_stmt 0
	leaq	-64(%rbp), %rdi
	.loc	4 2211 9 is_stmt 1
	callq	__ZN4core3fmt8builders9DebugList6finish17h1537bc92ee1acb1cE
Ltmp182:
	.loc	4 2022 84
	addq	$24, %rsp
	popq	%rbx
	popq	%r12
	popq	%r13
	popq	%r14
	popq	%r15
	popq	%rbp
	retq
Ltmp183:
Lfunc_end22:
	.cfi_endproc

	.p2align	4, 0x90
__ZN42_$LT$$RF$T$u20$as$u20$core..fmt..Debug$GT$3fmt17hbdedd4d3e505d932E:
Lfunc_begin23:
	.loc	4 2022 0
	.cfi_startproc
	pushq	%rbp
	.cfi_def_cfa_offset 16
	.cfi_offset %rbp, -16
	movq	%rsp, %rbp
	.cfi_def_cfa_register %rbp
Ltmp184:
	.loc	4 2022 71 prologue_end
	movq	(%rdi), %rdi
Ltmp185:
	.loc	4 2022 62 is_stmt 0
	popq	%rbp
	jmp	__ZN4core3fmt5float50_$LT$impl$u20$core..fmt..Debug$u20$for$u20$f32$GT$3fmt17ha9420faa99d1b790E
Ltmp186:
Lfunc_end23:
	.cfi_endproc

	.p2align	4, 0x90
__ZN42_$LT$$RF$T$u20$as$u20$core..fmt..Debug$GT$3fmt17hbfbab5824c11dba1E:
Lfunc_begin24:
	.loc	4 2022 0 is_stmt 1
	.cfi_startproc
	pushq	%rbp
	.cfi_def_cfa_offset 16
	.cfi_offset %rbp, -16
	movq	%rsp, %rbp
	.cfi_def_cfa_register %rbp
	pushq	%r14
	pushq	%rbx
	.cfi_offset %rbx, -32
	.cfi_offset %r14, -24
	movq	%rsi, %rbx
Ltmp187:
	.loc	4 2022 71 prologue_end
	movq	(%rdi), %r14
Ltmp188:
	.loc	7 149 20
	movq	%rsi, %rdi
Ltmp189:
	callq	__ZN4core3fmt9Formatter15debug_lower_hex17hd07f6fde8d0365dfE
	.loc	7 149 17 is_stmt 0
	testb	%al, %al
	je	LBB24_1
Ltmp190:
	.loc	7 150 21 is_stmt 1
	movq	%r14, %rdi
	movq	%rbx, %rsi
	popq	%rbx
Ltmp191:
	popq	%r14
Ltmp192:
	popq	%rbp
	jmp	__ZN4core3fmt3num52_$LT$impl$u20$core..fmt..LowerHex$u20$for$u20$u8$GT$3fmt17h35609b3cfed2e613E
LBB24_1:
Ltmp193:
	.loc	7 151 27
	movq	%rbx, %rdi
	callq	__ZN4core3fmt9Formatter15debug_upper_hex17hf480c256a9c81c1eE
	.loc	7 154 21
	movq	%r14, %rdi
	movq	%rbx, %rsi
	.loc	7 151 24
	testb	%al, %al
	je	LBB24_4
Ltmp194:
	.loc	7 152 21
	popq	%rbx
Ltmp195:
	popq	%r14
Ltmp196:
	popq	%rbp
	jmp	__ZN4core3fmt3num52_$LT$impl$u20$core..fmt..UpperHex$u20$for$u20$u8$GT$3fmt17hdec4e64a988d6129E
LBB24_4:
Ltmp197:
	.loc	7 154 21
	popq	%rbx
Ltmp198:
	popq	%r14
Ltmp199:
	popq	%rbp
	jmp	__ZN4core3fmt3num3imp51_$LT$impl$u20$core..fmt..Display$u20$for$u20$u8$GT$3fmt17hac49effbf87f075dE
Ltmp200:
Lfunc_end24:
	.cfi_endproc

	.p2align	4, 0x90
__ZN42_$LT$$RF$T$u20$as$u20$core..fmt..Debug$GT$3fmt17hcae4e28567d913a7E:
Lfunc_begin25:
	.loc	4 2022 0
	.cfi_startproc
	pushq	%rbp
	.cfi_def_cfa_offset 16
	.cfi_offset %rbp, -16
	movq	%rsp, %rbp
	.cfi_def_cfa_register %rbp
Ltmp201:
	pushq	%r15
	pushq	%r14
	pushq	%r13
	pushq	%r12
	pushq	%rbx
	subq	$24, %rsp
	.cfi_offset %rbx, -56
	.cfi_offset %r12, -48
	.cfi_offset %r13, -40
	.cfi_offset %r14, -32
	.cfi_offset %r15, -24
	.loc	4 2022 71 prologue_end
	movq	(%rdi), %rax
Ltmp202:
	.loc	5 818 19
	movq	(%rax), %rbx
Ltmp203:
	.loc	5 1923 55
	movq	16(%rax), %r13
Ltmp204:
	.loc	5 0 55 is_stmt 0
	leaq	-64(%rbp), %rdi
Ltmp205:
	.loc	4 2211 9 is_stmt 1
	callq	__ZN4core3fmt9Formatter10debug_list17h113a4e31f24f00d7E
Ltmp206:
	.loc	8 3440 9
	testq	%r13, %r13
	.loc	8 3570 21
	je	LBB25_3
Ltmp207:
	shlq	$6, %r13
Ltmp208:
	.loc	8 0 21 is_stmt 0
	leaq	l___unnamed_2(%rip), %r14
	leaq	-64(%rbp), %r15
	leaq	-48(%rbp), %r12
Ltmp209:
	.p2align	4, 0x90
LBB25_2:
	.loc	9 661 22 is_stmt 1
	movq	%rbx, -48(%rbp)
Ltmp210:
	.loc	13 92 18
	addq	$64, %rbx
Ltmp211:
	.loc	9 662 13
	movq	%r15, %rdi
	movq	%r12, %rsi
	movq	%r14, %rdx
	callq	__ZN4core3fmt8builders9DebugList5entry17h2dea26f6c644471aE
Ltmp212:
	.loc	8 3440 9
	addq	$-64, %r13
	.loc	8 3570 21
	jne	LBB25_2
Ltmp213:
LBB25_3:
	.loc	8 0 21 is_stmt 0
	leaq	-64(%rbp), %rdi
	.loc	4 2211 9 is_stmt 1
	callq	__ZN4core3fmt8builders9DebugList6finish17h1537bc92ee1acb1cE
Ltmp214:
	.loc	4 2022 84
	addq	$24, %rsp
	popq	%rbx
	popq	%r12
	popq	%r13
	popq	%r14
	popq	%r15
	popq	%rbp
	retq
Ltmp215:
Lfunc_end25:
	.cfi_endproc

	.p2align	4, 0x90
__ZN42_$LT$$RF$T$u20$as$u20$core..fmt..Debug$GT$3fmt17hceedf27153126e6dE:
Lfunc_begin26:
	.loc	4 2022 0
	.cfi_startproc
	pushq	%rbp
	.cfi_def_cfa_offset 16
	.cfi_offset %rbp, -16
	movq	%rsp, %rbp
	.cfi_def_cfa_register %rbp
	pushq	%r14
	pushq	%rbx
	.cfi_offset %rbx, -32
	.cfi_offset %r14, -24
	movq	%rsi, %rbx
Ltmp216:
	.loc	4 2022 71 prologue_end
	movq	(%rdi), %r14
Ltmp217:
	.loc	7 149 20
	movq	%rsi, %rdi
Ltmp218:
	callq	__ZN4core3fmt9Formatter15debug_lower_hex17hd07f6fde8d0365dfE
	.loc	7 149 17 is_stmt 0
	testb	%al, %al
	je	LBB26_1
Ltmp219:
	.loc	7 150 21 is_stmt 1
	movq	%r14, %rdi
	movq	%rbx, %rsi
	popq	%rbx
Ltmp220:
	popq	%r14
Ltmp221:
	popq	%rbp
	jmp	__ZN4core3fmt3num53_$LT$impl$u20$core..fmt..LowerHex$u20$for$u20$i32$GT$3fmt17hb7ffbd061f7948a2E
LBB26_1:
Ltmp222:
	.loc	7 151 27
	movq	%rbx, %rdi
	callq	__ZN4core3fmt9Formatter15debug_upper_hex17hf480c256a9c81c1eE
	.loc	7 154 21
	movq	%r14, %rdi
	movq	%rbx, %rsi
	.loc	7 151 24
	testb	%al, %al
	je	LBB26_4
Ltmp223:
	.loc	7 152 21
	popq	%rbx
Ltmp224:
	popq	%r14
Ltmp225:
	popq	%rbp
	jmp	__ZN4core3fmt3num53_$LT$impl$u20$core..fmt..UpperHex$u20$for$u20$i32$GT$3fmt17hbb8d8cd7e36208d7E
LBB26_4:
Ltmp226:
	.loc	7 154 21
	popq	%rbx
Ltmp227:
	popq	%r14
Ltmp228:
	popq	%rbp
	jmp	__ZN4core3fmt3num3imp52_$LT$impl$u20$core..fmt..Display$u20$for$u20$i32$GT$3fmt17h00ed7ff77f9da654E
Ltmp229:
Lfunc_end26:
	.cfi_endproc

	.p2align	4, 0x90
__ZN42_$LT$$RF$T$u20$as$u20$core..fmt..Debug$GT$3fmt17he8caae78b27b8446E:
Lfunc_begin27:
	.loc	4 2022 0
	.cfi_startproc
	pushq	%rbp
	.cfi_def_cfa_offset 16
	.cfi_offset %rbp, -16
	movq	%rsp, %rbp
	.cfi_def_cfa_register %rbp
Ltmp230:
	pushq	%r15
	pushq	%r14
	pushq	%rbx
	subq	$40, %rsp
	.cfi_offset %rbx, -40
	.cfi_offset %r14, -32
	.cfi_offset %r15, -24
	.loc	4 2022 71 prologue_end
	movq	(%rdi), %rbx
Ltmp231:
	.loc	4 2188 35
	leaq	l___unnamed_33(%rip), %rdx
	leaq	-64(%rbp), %r15
	movq	%r15, %rdi
Ltmp232:
	xorl	%ecx, %ecx
	callq	__ZN4core3fmt9Formatter11debug_tuple17h6c448643801d07e8E
Ltmp233:
	.loc	4 2189 24
	movq	%rbx, -32(%rbp)
	addq	$32, %rbx
Ltmp234:
	movq	%rbx, -40(%rbp)
Ltmp235:
	.loc	4 2191 21
	leaq	l___unnamed_6(%rip), %r14
	leaq	-32(%rbp), %rsi
	movq	%r15, %rdi
	movq	%r14, %rdx
	callq	__ZN4core3fmt8builders10DebugTuple5field17hc7b676d0e36b51d9E
Ltmp236:
	.loc	4 0 21 is_stmt 0
	leaq	-40(%rbp), %rsi
	.loc	4 2191 21
	movq	%r15, %rdi
	movq	%r14, %rdx
	callq	__ZN4core3fmt8builders10DebugTuple5field17hc7b676d0e36b51d9E
	.loc	4 2194 17 is_stmt 1
	movq	%r15, %rdi
	callq	__ZN4core3fmt8builders10DebugTuple6finish17h9f206806f7096c33E
Ltmp237:
	.loc	4 2022 84
	addq	$40, %rsp
	popq	%rbx
	popq	%r14
	popq	%r15
	popq	%rbp
	retq
Ltmp238:
Lfunc_end27:
	.cfi_endproc

	.p2align	4, 0x90
__ZN42_$LT$$RF$T$u20$as$u20$core..fmt..Debug$GT$3fmt17heb9a324c7bbd9297E:
Lfunc_begin28:
	.loc	4 2022 0
	.cfi_startproc
	pushq	%rbp
	.cfi_def_cfa_offset 16
	.cfi_offset %rbp, -16
	movq	%rsp, %rbp
	.cfi_def_cfa_register %rbp
	pushq	%r14
	pushq	%rbx
	.cfi_offset %rbx, -32
	.cfi_offset %r14, -24
	movq	%rsi, %rbx
Ltmp239:
	.loc	4 2022 71 prologue_end
	movq	(%rdi), %r14
Ltmp240:
	.loc	7 149 20
	movq	%rsi, %rdi
Ltmp241:
	callq	__ZN4core3fmt9Formatter15debug_lower_hex17hd07f6fde8d0365dfE
	.loc	7 149 17 is_stmt 0
	testb	%al, %al
	je	LBB28_1
Ltmp242:
	.loc	7 150 21 is_stmt 1
	movq	%r14, %rdi
	movq	%rbx, %rsi
	popq	%rbx
Ltmp243:
	popq	%r14
Ltmp244:
	popq	%rbp
	jmp	__ZN4core3fmt3num53_$LT$impl$u20$core..fmt..LowerHex$u20$for$u20$u64$GT$3fmt17hb1b2554e6a6ce90cE
LBB28_1:
Ltmp245:
	.loc	7 151 27
	movq	%rbx, %rdi
	callq	__ZN4core3fmt9Formatter15debug_upper_hex17hf480c256a9c81c1eE
	.loc	7 154 21
	movq	%r14, %rdi
	movq	%rbx, %rsi
	.loc	7 151 24
	testb	%al, %al
	je	LBB28_4
Ltmp246:
	.loc	7 152 21
	popq	%rbx
Ltmp247:
	popq	%r14
Ltmp248:
	popq	%rbp
	jmp	__ZN4core3fmt3num53_$LT$impl$u20$core..fmt..UpperHex$u20$for$u20$u64$GT$3fmt17h67a4ddf8c7fd5f2bE
LBB28_4:
Ltmp249:
	.loc	7 154 21
	popq	%rbx
Ltmp250:
	popq	%r14
Ltmp251:
	popq	%rbp
	jmp	__ZN4core3fmt3num3imp52_$LT$impl$u20$core..fmt..Display$u20$for$u20$u64$GT$3fmt17h3230c9bc78e30ed1E
Ltmp252:
Lfunc_end28:
	.cfi_endproc

	.p2align	4, 0x90
__ZN42_$LT$$RF$T$u20$as$u20$core..fmt..Debug$GT$3fmt17hefdf76b3114796ffE:
Lfunc_begin29:
	.loc	4 2022 0
	.cfi_startproc
	pushq	%rbp
	.cfi_def_cfa_offset 16
	.cfi_offset %rbp, -16
	movq	%rsp, %rbp
	.cfi_def_cfa_register %rbp
Ltmp253:
	pushq	%r15
	pushq	%r14
	pushq	%r13
	pushq	%r12
	pushq	%rbx
	subq	$24, %rsp
	.cfi_offset %rbx, -56
	.cfi_offset %r12, -48
	.cfi_offset %r13, -40
	.cfi_offset %r14, -32
	.cfi_offset %r15, -24
	.loc	4 2022 71 prologue_end
	movq	(%rdi), %rax
Ltmp254:
	.loc	5 818 19
	movq	(%rax), %r13
Ltmp255:
	.loc	5 1923 55
	movq	16(%rax), %rbx
Ltmp256:
	.loc	5 0 55 is_stmt 0
	leaq	-64(%rbp), %rdi
Ltmp257:
	.loc	4 2211 9 is_stmt 1
	callq	__ZN4core3fmt9Formatter10debug_list17h113a4e31f24f00d7E
Ltmp258:
	.loc	8 3440 9
	testq	%rbx, %rbx
	.loc	8 3570 21
	je	LBB29_3
Ltmp259:
	shlq	$4, %rbx
Ltmp260:
	leaq	(%rbx,%rbx,4), %rbx
	leaq	l___unnamed_3(%rip), %r14
	leaq	-64(%rbp), %r15
	leaq	-48(%rbp), %r12
Ltmp261:
	.p2align	4, 0x90
LBB29_2:
	.loc	9 661 22
	movq	%r13, -48(%rbp)
Ltmp262:
	.loc	13 92 18
	addq	$80, %r13
Ltmp263:
	.loc	9 662 13
	movq	%r15, %rdi
	movq	%r12, %rsi
	movq	%r14, %rdx
	callq	__ZN4core3fmt8builders9DebugList5entry17h2dea26f6c644471aE
Ltmp264:
	.loc	8 3440 9
	addq	$-80, %rbx
	.loc	8 3570 21
	jne	LBB29_2
Ltmp265:
LBB29_3:
	.loc	8 0 21 is_stmt 0
	leaq	-64(%rbp), %rdi
	.loc	4 2211 9 is_stmt 1
	callq	__ZN4core3fmt8builders9DebugList6finish17h1537bc92ee1acb1cE
Ltmp266:
	.loc	4 2022 84
	addq	$24, %rsp
	popq	%rbx
	popq	%r12
	popq	%r13
	popq	%r14
	popq	%r15
	popq	%rbp
	retq
Ltmp267:
Lfunc_end29:
	.cfi_endproc

	.p2align	4, 0x90
__ZN42_$LT$$RF$T$u20$as$u20$core..fmt..Debug$GT$3fmt17hf6eca57603fe59e5E:
Lfunc_begin30:
	.loc	4 2022 0
	.cfi_startproc
	pushq	%rbp
	.cfi_def_cfa_offset 16
	.cfi_offset %rbp, -16
	movq	%rsp, %rbp
	.cfi_def_cfa_register %rbp
Ltmp268:
	pushq	%r15
	pushq	%r14
	pushq	%r13
	pushq	%r12
	pushq	%rbx
	subq	$24, %rsp
	.cfi_offset %rbx, -56
	.cfi_offset %r12, -48
	.cfi_offset %r13, -40
	.cfi_offset %r14, -32
	.cfi_offset %r15, -24
	.loc	4 2022 71 prologue_end
	movq	(%rdi), %rax
Ltmp269:
	.loc	5 818 19
	movq	(%rax), %rbx
Ltmp270:
	.loc	5 1923 55
	movq	16(%rax), %r13
Ltmp271:
	.loc	5 0 55 is_stmt 0
	leaq	-64(%rbp), %rdi
Ltmp272:
	.loc	4 2211 9 is_stmt 1
	callq	__ZN4core3fmt9Formatter10debug_list17h113a4e31f24f00d7E
Ltmp273:
	.loc	12 164 18
	shlq	$5, %r13
Ltmp274:
	.loc	8 3570 21
	je	LBB30_3
Ltmp275:
	.loc	8 0 21 is_stmt 0
	leaq	l___unnamed_6(%rip), %r14
	leaq	-64(%rbp), %r15
	leaq	-48(%rbp), %r12
Ltmp276:
	.p2align	4, 0x90
LBB30_2:
	.loc	9 661 22 is_stmt 1
	movq	%rbx, -48(%rbp)
Ltmp277:
	.loc	10 165 18
	addq	$32, %rbx
Ltmp278:
	.loc	9 662 13
	movq	%r15, %rdi
	movq	%r12, %rsi
	movq	%r14, %rdx
	callq	__ZN4core3fmt8builders9DebugList5entry17h2dea26f6c644471aE
Ltmp279:
	.loc	8 3440 9
	addq	$-32, %r13
	.loc	8 3570 21
	jne	LBB30_2
Ltmp280:
LBB30_3:
	.loc	8 0 21 is_stmt 0
	leaq	-64(%rbp), %rdi
	.loc	4 2211 9 is_stmt 1
	callq	__ZN4core3fmt8builders9DebugList6finish17h1537bc92ee1acb1cE
Ltmp281:
	.loc	4 2022 84
	addq	$24, %rsp
	popq	%rbx
	popq	%r12
	popq	%r13
	popq	%r14
	popq	%r15
	popq	%rbp
	retq
Ltmp282:
Lfunc_end30:
	.cfi_endproc

	.p2align	4, 0x90
__ZN42_$LT$$RF$T$u20$as$u20$core..fmt..Debug$GT$3fmt17hfadd46babeffee1cE:
Lfunc_begin31:
	.loc	4 2022 0
	.cfi_startproc
	pushq	%rbp
	.cfi_def_cfa_offset 16
	.cfi_offset %rbp, -16
	movq	%rsp, %rbp
	.cfi_def_cfa_register %rbp
Ltmp283:
	.loc	4 2022 71 prologue_end
	movq	(%rdi), %rdi
Ltmp284:
	.loc	4 2022 62 is_stmt 0
	popq	%rbp
	jmp	__ZN4core3fmt5float50_$LT$impl$u20$core..fmt..Debug$u20$for$u20$f64$GT$3fmt17h77c57a6e82ae635cE
Ltmp285:
Lfunc_end31:
	.cfi_endproc

	.p2align	4, 0x90
__ZN44_$LT$$RF$T$u20$as$u20$core..fmt..Display$GT$3fmt17h650a29a2750ba384E:
Lfunc_begin32:
	.loc	4 2022 0 is_stmt 1
	.cfi_startproc
	pushq	%rbp
	.cfi_def_cfa_offset 16
	.cfi_offset %rbp, -16
	movq	%rsp, %rbp
	.cfi_def_cfa_register %rbp
	movq	%rsi, %rdx
Ltmp286:
	.loc	4 2022 71 prologue_end
	movq	(%rdi), %rax
	movq	8(%rdi), %rsi
	.loc	4 2022 62 is_stmt 0
	movq	%rax, %rdi
Ltmp287:
	popq	%rbp
	jmp	__ZN42_$LT$str$u20$as$u20$core..fmt..Display$GT$3fmt17h6768afae62e94f93E
Ltmp288:
Lfunc_end32:
	.cfi_endproc

	.p2align	4, 0x90
__ZN44_$LT$$RF$T$u20$as$u20$core..fmt..Display$GT$3fmt17ha39e6ac893600393E:
Lfunc_begin33:
	.loc	4 2022 0 is_stmt 1
	.cfi_startproc
	pushq	%rbp
	.cfi_def_cfa_offset 16
	.cfi_offset %rbp, -16
	movq	%rsp, %rbp
	.cfi_def_cfa_register %rbp
	movq	%rsi, %rdx
Ltmp289:
	.loc	4 2022 71 prologue_end
	movq	(%rdi), %rax
Ltmp290:
	.loc	4 2022 71 is_stmt 0
	movq	(%rax), %rdi
Ltmp291:
	movq	8(%rax), %rsi
	.loc	4 2022 62
	popq	%rbp
	jmp	__ZN42_$LT$str$u20$as$u20$core..fmt..Display$GT$3fmt17h6768afae62e94f93E
Ltmp292:
Lfunc_end33:
	.cfi_endproc

	.p2align	4, 0x90
__ZN4core3ptr13drop_in_place17h0877a56d335f5affE:
Lfunc_begin34:
	.file	14 "/rustc/6c8927b0cf80ceee19386026cf9d7fd4fd9d486f/src/libcore/ptr/mod.rs"
	.loc	14 184 0 is_stmt 1
	.cfi_startproc
	pushq	%rbp
	.cfi_def_cfa_offset 16
	.cfi_offset %rbp, -16
	movq	%rsp, %rbp
	.cfi_def_cfa_register %rbp
Ltmp293:
	.loc	14 184 1 prologue_end
	popq	%rbp
	retq
Ltmp294:
Lfunc_end34:
	.cfi_endproc

	.p2align	4, 0x90
__ZN91_$LT$std..panicking..begin_panic..PanicPayload$LT$A$GT$$u20$as$u20$core..panic..BoxMeUp$GT$3get17h3f2d155e1bf61c0cE:
Lfunc_begin35:
	.loc	3 482 0
	.cfi_startproc
	pushq	%rbp
	.cfi_def_cfa_offset 16
	.cfi_offset %rbp, -16
	movq	%rsp, %rbp
	.cfi_def_cfa_register %rbp
Ltmp295:
	.loc	3 484 17 prologue_end
	cmpq	$0, (%rdi)
	je	LBB35_2
Ltmp296:
	.loc	3 0 17 is_stmt 0
	movq	%rdi, %rax
Ltmp297:
	.loc	3 487 10 is_stmt 1
	leaq	l___unnamed_10(%rip), %rdx
	popq	%rbp
	retq
Ltmp298:
LBB35_2:
	.loc	3 485 25
	callq	__ZN3std7process5abort17hff53fa3bc108bcb5E
Ltmp299:
Lfunc_end35:
	.cfi_endproc

	.p2align	4, 0x90
__ZN91_$LT$std..panicking..begin_panic..PanicPayload$LT$A$GT$$u20$as$u20$core..panic..BoxMeUp$GT$8take_box17h2e23f7b9624339f1E:
Lfunc_begin36:
	.loc	3 469 0
	.cfi_startproc
	pushq	%rbp
	.cfi_def_cfa_offset 16
	.cfi_offset %rbp, -16
	movq	%rsp, %rbp
	.cfi_def_cfa_register %rbp
Ltmp300:
	pushq	%r14
	pushq	%rbx
	.cfi_offset %rbx, -32
	.cfi_offset %r14, -24
	.file	15 "/rustc/6c8927b0cf80ceee19386026cf9d7fd4fd9d486f/src/libcore/intrinsics.rs"
	.loc	15 2130 14 prologue_end
	movq	(%rdi), %rbx
Ltmp301:
	movq	8(%rdi), %r14
Ltmp302:
	.loc	15 2130 14 is_stmt 0
	movq	$0, (%rdi)
Ltmp303:
	.loc	3 476 17 is_stmt 1
	testq	%rbx, %rbx
	je	LBB36_3
Ltmp304:
	.file	16 "/rustc/6c8927b0cf80ceee19386026cf9d7fd4fd9d486f/src/liballoc/alloc.rs"
	.loc	16 80 14
	movl	$16, %edi
Ltmp305:
	movl	$8, %esi
	callq	___rust_alloc
Ltmp306:
	.loc	16 278 9
	testq	%rax, %rax
	je	LBB36_4
Ltmp307:
	.loc	11 176 13
	movq	%rbx, (%rax)
	movq	%r14, 8(%rax)
Ltmp308:
	.file	17 "/rustc/6c8927b0cf80ceee19386026cf9d7fd4fd9d486f/src/libcore/ptr/unique.rs"
	.loc	17 109 6
	leaq	l___unnamed_10(%rip), %rdx
Ltmp309:
	.loc	3 480 10
	popq	%rbx
Ltmp310:
	popq	%r14
Ltmp311:
	popq	%rbp
	retq
Ltmp312:
LBB36_3:
	.loc	3 477 25
	callq	__ZN3std7process5abort17hff53fa3bc108bcb5E
Ltmp313:
LBB36_4:
	.loc	16 279 19
	movl	$16, %edi
	movl	$8, %esi
	callq	__ZN5alloc5alloc18handle_alloc_error17h28974197717b8939E
Ltmp314:
Lfunc_end36:
	.cfi_endproc
	.file	18 "/rustc/6c8927b0cf80ceee19386026cf9d7fd4fd9d486f/src/libcore/mem/mod.rs"
	.file	19 "/rustc/6c8927b0cf80ceee19386026cf9d7fd4fd9d486f/src/libcore/option.rs"

	.globl	__ZN62_$LT$serde..de..value..Error$u20$as$u20$core..fmt..Display$GT$3fmt17h6c5327d2702ca6dcE
	.p2align	4, 0x90
__ZN62_$LT$serde..de..value..Error$u20$as$u20$core..fmt..Display$GT$3fmt17h6c5327d2702ca6dcE:
Lfunc_begin37:
	.file	20 "/Users/yingyuhang/.cargo/registry/src/github.com-1ecc6299db9ec823/serde-1.0.114/src/de/value.rs"
	.loc	20 96 0
	.cfi_startproc
	pushq	%rbp
	.cfi_def_cfa_offset 16
	.cfi_offset %rbp, -16
	movq	%rsp, %rbp
	.cfi_def_cfa_register %rbp
	movq	%rsi, %rax
Ltmp315:
	.loc	20 97 29 prologue_end
	movq	(%rdi), %rsi
	movq	8(%rdi), %rdx
	.loc	20 97 9 is_stmt 0
	movq	%rax, %rdi
Ltmp316:
	popq	%rbp
	jmp	__ZN4core3fmt9Formatter9write_str17h98e119ad25a8903eE
Ltmp317:
Lfunc_end37:
	.cfi_endproc

	.globl	__ZN61_$LT$serde..de..value..Error$u20$as$u20$std..error..Error$GT$11description17ha39c0b5e92105351E
	.p2align	4, 0x90
__ZN61_$LT$serde..de..value..Error$u20$as$u20$std..error..Error$GT$11description17ha39c0b5e92105351E:
Lfunc_begin38:
	.loc	20 108 0 is_stmt 1
	.cfi_startproc
	pushq	%rbp
	.cfi_def_cfa_offset 16
	.cfi_offset %rbp, -16
	movq	%rsp, %rbp
	.cfi_def_cfa_register %rbp
Ltmp318:
	.loc	20 109 9 prologue_end
	movq	(%rdi), %rax
	movq	8(%rdi), %rdx
	.loc	20 110 6
	popq	%rbp
	retq
Ltmp319:
Lfunc_end38:
	.cfi_endproc

	.globl	__ZN71_$LT$serde..de..value..ExpectedInSeq$u20$as$u20$serde..de..Expected$GT$3fmt17h28042cc794d07e47E
	.p2align	4, 0x90
__ZN71_$LT$serde..de..value..ExpectedInSeq$u20$as$u20$serde..de..Expected$GT$3fmt17h28042cc794d07e47E:
Lfunc_begin39:
	.loc	20 807 0
	.cfi_startproc
	pushq	%rbp
	.cfi_def_cfa_offset 16
	.cfi_offset %rbp, -16
	movq	%rsp, %rbp
	.cfi_def_cfa_register %rbp
	subq	$64, %rsp
	movq	%rsi, %rax
Ltmp320:
	.loc	20 808 12 prologue_end
	cmpq	$1, (%rdi)
	.loc	20 808 9 is_stmt 0
	jne	LBB39_1
Ltmp321:
	.loc	4 328 9 is_stmt 1
	leaq	l___unnamed_34(%rip), %rcx
Ltmp322:
	movq	%rcx, -48(%rbp)
	movq	$1, -40(%rbp)
	movq	$0, -32(%rbp)
	leaq	l___unnamed_33(%rip), %rcx
Ltmp323:
	movq	%rcx, -16(%rbp)
	movq	$0, -8(%rbp)
	jmp	LBB39_3
Ltmp324:
LBB39_1:
	.loc	20 811 13
	movq	%rdi, -64(%rbp)
	movq	__ZN4core3fmt3num3imp54_$LT$impl$u20$core..fmt..Display$u20$for$u20$usize$GT$3fmt17h12ea2856299c9b06E@GOTPCREL(%rip), %rcx
	movq	%rcx, -56(%rbp)
Ltmp325:
	.loc	4 328 9
	leaq	l___unnamed_35(%rip), %rcx
Ltmp326:
	movq	%rcx, -48(%rbp)
	movq	$2, -40(%rbp)
	movq	$0, -32(%rbp)
	leaq	-64(%rbp), %rcx
Ltmp327:
	movq	%rcx, -16(%rbp)
	movq	$1, -8(%rbp)
Ltmp328:
LBB39_3:
	.loc	4 0 9 is_stmt 0
	leaq	-48(%rbp), %rsi
	movq	%rax, %rdi
Ltmp329:
	callq	__ZN4core3fmt9Formatter9write_fmt17h742ca6aae87ad23cE
Ltmp330:
	.loc	20 813 6 is_stmt 1
	addq	$64, %rsp
	popq	%rbp
	retq
Ltmp331:
Lfunc_end39:
	.cfi_endproc

	.globl	__ZN71_$LT$serde..de..value..ExpectedInMap$u20$as$u20$serde..de..Expected$GT$3fmt17h0e4c48891bcbbf33E
	.p2align	4, 0x90
__ZN71_$LT$serde..de..value..ExpectedInMap$u20$as$u20$serde..de..Expected$GT$3fmt17h0e4c48891bcbbf33E:
Lfunc_begin40:
	.loc	20 1222 0
	.cfi_startproc
	pushq	%rbp
	.cfi_def_cfa_offset 16
	.cfi_offset %rbp, -16
	movq	%rsp, %rbp
	.cfi_def_cfa_register %rbp
	subq	$64, %rsp
	movq	%rsi, %rax
Ltmp332:
	.loc	20 1223 12 prologue_end
	cmpq	$1, (%rdi)
	.loc	20 1223 9 is_stmt 0
	jne	LBB40_1
Ltmp333:
	.loc	4 328 9 is_stmt 1
	leaq	l___unnamed_36(%rip), %rcx
Ltmp334:
	movq	%rcx, -48(%rbp)
	movq	$1, -40(%rbp)
	movq	$0, -32(%rbp)
	leaq	l___unnamed_33(%rip), %rcx
Ltmp335:
	movq	%rcx, -16(%rbp)
	movq	$0, -8(%rbp)
	jmp	LBB40_3
Ltmp336:
LBB40_1:
	.loc	20 1226 13
	movq	%rdi, -64(%rbp)
	movq	__ZN4core3fmt3num3imp54_$LT$impl$u20$core..fmt..Display$u20$for$u20$usize$GT$3fmt17h12ea2856299c9b06E@GOTPCREL(%rip), %rcx
	movq	%rcx, -56(%rbp)
Ltmp337:
	.loc	4 328 9
	leaq	l___unnamed_37(%rip), %rcx
Ltmp338:
	movq	%rcx, -48(%rbp)
	movq	$2, -40(%rbp)
	movq	$0, -32(%rbp)
	leaq	-64(%rbp), %rcx
Ltmp339:
	movq	%rcx, -16(%rbp)
	movq	$1, -8(%rbp)
Ltmp340:
LBB40_3:
	.loc	4 0 9 is_stmt 0
	leaq	-48(%rbp), %rsi
	movq	%rax, %rdi
Ltmp341:
	callq	__ZN4core3fmt9Formatter9write_fmt17h742ca6aae87ad23cE
Ltmp342:
	.loc	20 1228 6 is_stmt 1
	addq	$64, %rsp
	popq	%rbp
	retq
Ltmp343:
Lfunc_end40:
	.cfi_endproc

	.globl	__ZN73_$LT$serde..de..ignored_any..IgnoredAny$u20$as$u20$serde..de..Visitor$GT$9expecting17h7f8c0ba5ea4fafceE
	.p2align	4, 0x90
__ZN73_$LT$serde..de..ignored_any..IgnoredAny$u20$as$u20$serde..de..Visitor$GT$9expecting17h7f8c0ba5ea4fafceE:
Lfunc_begin41:
	.file	21 "/Users/yingyuhang/.cargo/registry/src/github.com-1ecc6299db9ec823/serde-1.0.114/src/de/ignored_any.rs"
	.loc	21 117 0
	.cfi_startproc
	pushq	%rbp
	.cfi_def_cfa_offset 16
	.cfi_offset %rbp, -16
	movq	%rsp, %rbp
	.cfi_def_cfa_register %rbp
	movq	%rsi, %rdi
Ltmp344:
	.loc	21 118 9 prologue_end
	leaq	l___unnamed_38(%rip), %rsi
	movl	$15, %edx
	popq	%rbp
	jmp	__ZN4core3fmt9Formatter9write_str17h98e119ad25a8903eE
Ltmp345:
Lfunc_end41:
	.cfi_endproc

	.globl	__ZN68_$LT$serde..de..impls..UnitVisitor$u20$as$u20$serde..de..Visitor$GT$9expecting17h271f01bcc7c597d7E
	.p2align	4, 0x90
__ZN68_$LT$serde..de..impls..UnitVisitor$u20$as$u20$serde..de..Visitor$GT$9expecting17h271f01bcc7c597d7E:
Lfunc_begin42:
	.loc	1 23 0
	.cfi_startproc
	pushq	%rbp
	.cfi_def_cfa_offset 16
	.cfi_offset %rbp, -16
	movq	%rsp, %rbp
	.cfi_def_cfa_register %rbp
	movq	%rsi, %rdi
Ltmp346:
	.loc	1 24 9 prologue_end
	leaq	L___unnamed_39(%rip), %rsi
	movl	$4, %edx
	popq	%rbp
	jmp	__ZN4core3fmt9Formatter9write_str17h98e119ad25a8903eE
Ltmp347:
Lfunc_end42:
	.cfi_endproc

	.globl	__ZN68_$LT$serde..de..impls..BoolVisitor$u20$as$u20$serde..de..Visitor$GT$9expecting17hd56eb706de3f0bbaE
	.p2align	4, 0x90
__ZN68_$LT$serde..de..impls..BoolVisitor$u20$as$u20$serde..de..Visitor$GT$9expecting17hd56eb706de3f0bbaE:
Lfunc_begin43:
	.loc	1 61 0
	.cfi_startproc
	pushq	%rbp
	.cfi_def_cfa_offset 16
	.cfi_offset %rbp, -16
	movq	%rsp, %rbp
	.cfi_def_cfa_register %rbp
	movq	%rsi, %rdi
Ltmp348:
	.loc	1 62 9 prologue_end
	leaq	l___unnamed_40(%rip), %rsi
	movl	$9, %edx
	popq	%rbp
	jmp	__ZN4core3fmt9Formatter9write_str17h98e119ad25a8903eE
Ltmp349:
Lfunc_end43:
	.cfi_endproc

	.globl	__ZN68_$LT$serde..de..impls..CharVisitor$u20$as$u20$serde..de..Visitor$GT$9expecting17hd9516d7af426ad34E
	.p2align	4, 0x90
__ZN68_$LT$serde..de..impls..CharVisitor$u20$as$u20$serde..de..Visitor$GT$9expecting17hd9516d7af426ad34E:
Lfunc_begin44:
	.loc	1 267 0
	.cfi_startproc
	pushq	%rbp
	.cfi_def_cfa_offset 16
	.cfi_offset %rbp, -16
	movq	%rsp, %rbp
	.cfi_def_cfa_register %rbp
	movq	%rsi, %rdi
Ltmp350:
	.loc	1 268 9 prologue_end
	leaq	l___unnamed_41(%rip), %rsi
	movl	$11, %edx
	popq	%rbp
	jmp	__ZN4core3fmt9Formatter9write_str17h98e119ad25a8903eE
Ltmp351:
Lfunc_end44:
	.cfi_endproc

	.globl	__ZN70_$LT$serde..de..impls..StringVisitor$u20$as$u20$serde..de..Visitor$GT$9expecting17h99322a3463ed05d8E
	.p2align	4, 0x90
__ZN70_$LT$serde..de..impls..StringVisitor$u20$as$u20$serde..de..Visitor$GT$9expecting17h99322a3463ed05d8E:
Lfunc_begin45:
	.loc	1 313 0
	.cfi_startproc
	pushq	%rbp
	.cfi_def_cfa_offset 16
	.cfi_offset %rbp, -16
	movq	%rsp, %rbp
	.cfi_def_cfa_register %rbp
	movq	%rsi, %rdi
Ltmp352:
	.loc	1 314 9 prologue_end
	leaq	L___unnamed_42(%rip), %rsi
	movl	$8, %edx
	popq	%rbp
	jmp	__ZN4core3fmt9Formatter9write_str17h98e119ad25a8903eE
Ltmp353:
Lfunc_end45:
	.cfi_endproc

	.globl	__ZN77_$LT$serde..de..impls..StringInPlaceVisitor$u20$as$u20$serde..de..Visitor$GT$9expecting17h6c2e76dba28fa09fE
	.p2align	4, 0x90
__ZN77_$LT$serde..de..impls..StringInPlaceVisitor$u20$as$u20$serde..de..Visitor$GT$9expecting17h6c2e76dba28fa09fE:
Lfunc_begin46:
	.loc	1 359 0
	.cfi_startproc
	pushq	%rbp
	.cfi_def_cfa_offset 16
	.cfi_offset %rbp, -16
	movq	%rsp, %rbp
	.cfi_def_cfa_register %rbp
	movq	%rsi, %rdi
Ltmp354:
	.loc	1 360 9 prologue_end
	leaq	L___unnamed_42(%rip), %rsi
	movl	$8, %edx
	popq	%rbp
	jmp	__ZN4core3fmt9Formatter9write_str17h98e119ad25a8903eE
Ltmp355:
Lfunc_end46:
	.cfi_endproc

	.globl	__ZN67_$LT$serde..de..impls..StrVisitor$u20$as$u20$serde..de..Visitor$GT$9expecting17hd9683450b7d8357aE
	.p2align	4, 0x90
__ZN67_$LT$serde..de..impls..StrVisitor$u20$as$u20$serde..de..Visitor$GT$9expecting17hd9683450b7d8357aE:
Lfunc_begin47:
	.loc	1 435 0
	.cfi_startproc
	pushq	%rbp
	.cfi_def_cfa_offset 16
	.cfi_offset %rbp, -16
	movq	%rsp, %rbp
	.cfi_def_cfa_register %rbp
	movq	%rsi, %rdi
Ltmp356:
	.loc	1 436 9 prologue_end
	leaq	l___unnamed_43(%rip), %rsi
	movl	$17, %edx
	popq	%rbp
	jmp	__ZN4core3fmt9Formatter9write_str17h98e119ad25a8903eE
Ltmp357:
Lfunc_end47:
	.cfi_endproc

	.globl	__ZN69_$LT$serde..de..impls..BytesVisitor$u20$as$u20$serde..de..Visitor$GT$9expecting17h2242006c62a4a1b6E
	.p2align	4, 0x90
__ZN69_$LT$serde..de..impls..BytesVisitor$u20$as$u20$serde..de..Visitor$GT$9expecting17h2242006c62a4a1b6E:
Lfunc_begin48:
	.loc	1 470 0
	.cfi_startproc
	pushq	%rbp
	.cfi_def_cfa_offset 16
	.cfi_offset %rbp, -16
	movq	%rsp, %rbp
	.cfi_def_cfa_register %rbp
	movq	%rsi, %rdi
Ltmp358:
	.loc	1 471 9 prologue_end
	leaq	l___unnamed_44(%rip), %rsi
	movl	$21, %edx
	popq	%rbp
	jmp	__ZN4core3fmt9Formatter9write_str17h98e119ad25a8903eE
Ltmp359:
Lfunc_end48:
	.cfi_endproc

	.globl	__ZN71_$LT$serde..de..impls..CStringVisitor$u20$as$u20$serde..de..Visitor$GT$9expecting17h645bb4fc774298a7E
	.p2align	4, 0x90
__ZN71_$LT$serde..de..impls..CStringVisitor$u20$as$u20$serde..de..Visitor$GT$9expecting17h645bb4fc774298a7E:
Lfunc_begin49:
	.loc	1 507 0
	.cfi_startproc
	pushq	%rbp
	.cfi_def_cfa_offset 16
	.cfi_offset %rbp, -16
	movq	%rsp, %rbp
	.cfi_def_cfa_register %rbp
	movq	%rsi, %rdi
Ltmp360:
	.loc	1 508 9 prologue_end
	leaq	l___unnamed_45(%rip), %rsi
	movl	$10, %edx
	popq	%rbp
	jmp	__ZN4core3fmt9Formatter9write_str17h98e119ad25a8903eE
Ltmp361:
Lfunc_end49:
	.cfi_endproc

	.globl	__ZN157_$LT$serde..de..impls..$LT$impl$u20$serde..de..Deserialize$u20$for$u20$std..net..ip..IpAddr$GT$..deserialize..IpAddrVisitor$u20$as$u20$serde..de..Visitor$GT$9expecting17hc9ed51535adcfccfE
	.p2align	4, 0x90
__ZN157_$LT$serde..de..impls..$LT$impl$u20$serde..de..Deserialize$u20$for$u20$std..net..ip..IpAddr$GT$..deserialize..IpAddrVisitor$u20$as$u20$serde..de..Visitor$GT$9expecting17hc9ed51535adcfccfE:
Lfunc_begin50:
	.loc	1 1413 0
	.cfi_startproc
	pushq	%rbp
	.cfi_def_cfa_offset 16
	.cfi_offset %rbp, -16
	movq	%rsp, %rbp
	.cfi_def_cfa_register %rbp
	movq	%rsi, %rdi
Ltmp362:
	.loc	1 1414 21 prologue_end
	leaq	l___unnamed_46(%rip), %rsi
	movl	$10, %edx
	popq	%rbp
	jmp	__ZN4core3fmt9Formatter9write_str17h98e119ad25a8903eE
Ltmp363:
Lfunc_end50:
	.cfi_endproc

	.globl	__ZN167_$LT$serde..de..impls..$LT$impl$u20$serde..de..Deserialize$u20$for$u20$std..net..addr..SocketAddr$GT$..deserialize..SocketAddrVisitor$u20$as$u20$serde..de..Visitor$GT$9expecting17hca172e3255a0aebdE
	.p2align	4, 0x90
__ZN167_$LT$serde..de..impls..$LT$impl$u20$serde..de..Deserialize$u20$for$u20$std..net..addr..SocketAddr$GT$..deserialize..SocketAddrVisitor$u20$as$u20$serde..de..Visitor$GT$9expecting17hca172e3255a0aebdE:
Lfunc_begin51:
	.loc	1 1490 0
	.cfi_startproc
	pushq	%rbp
	.cfi_def_cfa_offset 16
	.cfi_offset %rbp, -16
	movq	%rsp, %rbp
	.cfi_def_cfa_register %rbp
	movq	%rsi, %rdi
Ltmp364:
	.loc	1 1491 21 prologue_end
	leaq	l___unnamed_47(%rip), %rsi
	movl	$14, %edx
	popq	%rbp
	jmp	__ZN4core3fmt9Formatter9write_str17h98e119ad25a8903eE
Ltmp365:
Lfunc_end51:
	.cfi_endproc

	.globl	__ZN68_$LT$serde..de..impls..PathVisitor$u20$as$u20$serde..de..Visitor$GT$9expecting17h6029595115d0958cE
	.p2align	4, 0x90
__ZN68_$LT$serde..de..impls..PathVisitor$u20$as$u20$serde..de..Visitor$GT$9expecting17h6029595115d0958cE:
Lfunc_begin52:
	.loc	1 1531 0
	.cfi_startproc
	pushq	%rbp
	.cfi_def_cfa_offset 16
	.cfi_offset %rbp, -16
	movq	%rsp, %rbp
	.cfi_def_cfa_register %rbp
	movq	%rsi, %rdi
Ltmp366:
	.loc	1 1532 9 prologue_end
	leaq	l___unnamed_48(%rip), %rsi
	movl	$15, %edx
	popq	%rbp
	jmp	__ZN4core3fmt9Formatter9write_str17h98e119ad25a8903eE
Ltmp367:
Lfunc_end52:
	.cfi_endproc

	.globl	__ZN71_$LT$serde..de..impls..PathBufVisitor$u20$as$u20$serde..de..Visitor$GT$9expecting17hb9c816d9b43fb35fE
	.p2align	4, 0x90
__ZN71_$LT$serde..de..impls..PathBufVisitor$u20$as$u20$serde..de..Visitor$GT$9expecting17hb9c816d9b43fb35fE:
Lfunc_begin53:
	.loc	1 1569 0
	.cfi_startproc
	pushq	%rbp
	.cfi_def_cfa_offset 16
	.cfi_offset %rbp, -16
	movq	%rsp, %rbp
	.cfi_def_cfa_register %rbp
	movq	%rsi, %rdi
Ltmp368:
	.loc	1 1570 9 prologue_end
	leaq	l___unnamed_49(%rip), %rsi
	movl	$11, %edx
	popq	%rbp
	jmp	__ZN4core3fmt9Formatter9write_str17h98e119ad25a8903eE
Ltmp369:
Lfunc_end53:
	.cfi_endproc

	.globl	__ZN72_$LT$serde..de..impls..OsStringVisitor$u20$as$u20$serde..de..Visitor$GT$9expecting17h4cfd69bcc728bee3E
	.p2align	4, 0x90
__ZN72_$LT$serde..de..impls..OsStringVisitor$u20$as$u20$serde..de..Visitor$GT$9expecting17h4cfd69bcc728bee3E:
Lfunc_begin54:
	.loc	1 1639 0
	.cfi_startproc
	pushq	%rbp
	.cfi_def_cfa_offset 16
	.cfi_offset %rbp, -16
	movq	%rsp, %rbp
	.cfi_def_cfa_register %rbp
	movq	%rsi, %rdi
Ltmp370:
	.loc	1 1640 9 prologue_end
	leaq	l___unnamed_50(%rip), %rsi
	movl	$9, %edx
	popq	%rbp
	jmp	__ZN4core3fmt9Formatter9write_str17h98e119ad25a8903eE
Ltmp371:
Lfunc_end54:
	.cfi_endproc

	.globl	__ZN218_$LT$$LT$serde..de..impls..$LT$impl$u20$serde..de..Deserialize$u20$for$u20$core..time..Duration$GT$..deserialize..Field$u20$as$u20$serde..de..Deserialize$GT$..deserialize..FieldVisitor$u20$as$u20$serde..de..Visitor$GT$9expecting17hb029d69c77dd403dE
	.p2align	4, 0x90
__ZN218_$LT$$LT$serde..de..impls..$LT$impl$u20$serde..de..Deserialize$u20$for$u20$core..time..Duration$GT$..deserialize..Field$u20$as$u20$serde..de..Deserialize$GT$..deserialize..FieldVisitor$u20$as$u20$serde..de..Visitor$GT$9expecting17hb029d69c77dd403dE:
Lfunc_begin55:
	.loc	1 1886 0
	.cfi_startproc
	pushq	%rbp
	.cfi_def_cfa_offset 16
	.cfi_offset %rbp, -16
	movq	%rsp, %rbp
	.cfi_def_cfa_register %rbp
	movq	%rsi, %rdi
Ltmp372:
	.loc	1 1887 25 prologue_end
	leaq	l___unnamed_51(%rip), %rsi
	movl	$17, %edx
	popq	%rbp
	jmp	__ZN4core3fmt9Formatter9write_str17h98e119ad25a8903eE
Ltmp373:
Lfunc_end55:
	.cfi_endproc

	.globl	__ZN159_$LT$serde..de..impls..$LT$impl$u20$serde..de..Deserialize$u20$for$u20$core..time..Duration$GT$..deserialize..DurationVisitor$u20$as$u20$serde..de..Visitor$GT$9expecting17he7e41c7807f276e3E
	.p2align	4, 0x90
__ZN159_$LT$serde..de..impls..$LT$impl$u20$serde..de..Deserialize$u20$for$u20$core..time..Duration$GT$..deserialize..DurationVisitor$u20$as$u20$serde..de..Visitor$GT$9expecting17he7e41c7807f276e3E:
Lfunc_begin56:
	.loc	1 1925 0
	.cfi_startproc
	pushq	%rbp
	.cfi_def_cfa_offset 16
	.cfi_offset %rbp, -16
	movq	%rsp, %rbp
	.cfi_def_cfa_register %rbp
	movq	%rsi, %rdi
Ltmp374:
	.loc	1 1926 17 prologue_end
	leaq	l___unnamed_52(%rip), %rsi
	movl	$15, %edx
	popq	%rbp
	jmp	__ZN4core3fmt9Formatter9write_str17h98e119ad25a8903eE
Ltmp375:
Lfunc_end56:
	.cfi_endproc

	.globl	__ZN219_$LT$$LT$serde..de..impls..$LT$impl$u20$serde..de..Deserialize$u20$for$u20$std..time..SystemTime$GT$..deserialize..Field$u20$as$u20$serde..de..Deserialize$GT$..deserialize..FieldVisitor$u20$as$u20$serde..de..Visitor$GT$9expecting17h6ed9d08433dac527E
	.p2align	4, 0x90
__ZN219_$LT$$LT$serde..de..impls..$LT$impl$u20$serde..de..Deserialize$u20$for$u20$std..time..SystemTime$GT$..deserialize..Field$u20$as$u20$serde..de..Deserialize$GT$..deserialize..FieldVisitor$u20$as$u20$serde..de..Visitor$GT$9expecting17h6ed9d08433dac527E:
Lfunc_begin57:
	.loc	1 2011 0
	.cfi_startproc
	pushq	%rbp
	.cfi_def_cfa_offset 16
	.cfi_offset %rbp, -16
	movq	%rsp, %rbp
	.cfi_def_cfa_register %rbp
	movq	%rsi, %rdi
Ltmp376:
	.loc	1 2012 25 prologue_end
	leaq	l___unnamed_53(%rip), %rsi
	movl	$41, %edx
	popq	%rbp
	jmp	__ZN4core3fmt9Formatter9write_str17h98e119ad25a8903eE
Ltmp377:
Lfunc_end57:
	.cfi_endproc

	.globl	__ZN160_$LT$serde..de..impls..$LT$impl$u20$serde..de..Deserialize$u20$for$u20$std..time..SystemTime$GT$..deserialize..DurationVisitor$u20$as$u20$serde..de..Visitor$GT$9expecting17h9c86b18601fc4f8cE
	.p2align	4, 0x90
__ZN160_$LT$serde..de..impls..$LT$impl$u20$serde..de..Deserialize$u20$for$u20$std..time..SystemTime$GT$..deserialize..DurationVisitor$u20$as$u20$serde..de..Visitor$GT$9expecting17h9c86b18601fc4f8cE:
Lfunc_begin58:
	.loc	1 2050 0
	.cfi_startproc
	pushq	%rbp
	.cfi_def_cfa_offset 16
	.cfi_offset %rbp, -16
	movq	%rsp, %rbp
	.cfi_def_cfa_register %rbp
	movq	%rsi, %rdi
Ltmp378:
	.loc	1 2051 17 prologue_end
	leaq	l___unnamed_54(%rip), %rsi
	movl	$17, %edx
	popq	%rbp
	jmp	__ZN4core3fmt9Formatter9write_str17h98e119ad25a8903eE
Ltmp379:
Lfunc_end58:
	.cfi_endproc

	.globl	__ZN138_$LT$$LT$serde..de..impls..range..Field$u20$as$u20$serde..de..Deserialize$GT$..deserialize..FieldVisitor$u20$as$u20$serde..de..Visitor$GT$9expecting17h74e0462066b4ebaeE
	.p2align	4, 0x90
__ZN138_$LT$$LT$serde..de..impls..range..Field$u20$as$u20$serde..de..Deserialize$GT$..deserialize..FieldVisitor$u20$as$u20$serde..de..Visitor$GT$9expecting17h74e0462066b4ebaeE:
Lfunc_begin59:
	.loc	1 2194 0
	.cfi_startproc
	pushq	%rbp
	.cfi_def_cfa_offset 16
	.cfi_offset %rbp, -16
	movq	%rsp, %rbp
	.cfi_def_cfa_register %rbp
	movq	%rsi, %rdi
Ltmp380:
	.loc	1 2195 21 prologue_end
	leaq	L___unnamed_55(%rip), %rsi
	movl	$16, %edx
	popq	%rbp
	jmp	__ZN4core3fmt9Formatter9write_str17h98e119ad25a8903eE
Ltmp381:
Lfunc_end59:
	.cfi_endproc

	.globl	__ZN230_$LT$$LT$serde..de..impls..$LT$impl$u20$serde..de..Deserialize$u20$for$u20$core..ops..range..Bound$LT$T$GT$$GT$..deserialize..Field$u20$as$u20$serde..de..Deserialize$GT$..deserialize..FieldVisitor$u20$as$u20$serde..de..Visitor$GT$9expecting17h720dc7855823c0c2E
	.p2align	4, 0x90
__ZN230_$LT$$LT$serde..de..impls..$LT$impl$u20$serde..de..Deserialize$u20$for$u20$core..ops..range..Bound$LT$T$GT$$GT$..deserialize..Field$u20$as$u20$serde..de..Deserialize$GT$..deserialize..FieldVisitor$u20$as$u20$serde..de..Visitor$GT$9expecting17h720dc7855823c0c2E:
Lfunc_begin60:
	.loc	1 2325 0
	.cfi_startproc
	pushq	%rbp
	.cfi_def_cfa_offset 16
	.cfi_offset %rbp, -16
	movq	%rsp, %rbp
	.cfi_def_cfa_register %rbp
	movq	%rsi, %rdi
Ltmp382:
	.loc	1 2326 25 prologue_end
	leaq	l___unnamed_56(%rip), %rsi
	movl	$37, %edx
	popq	%rbp
	jmp	__ZN4core3fmt9Formatter9write_str17h98e119ad25a8903eE
Ltmp383:
Lfunc_end60:
	.cfi_endproc

	.globl	__ZN231_$LT$$LT$serde..de..impls..$LT$impl$u20$serde..de..Deserialize$u20$for$u20$core..result..Result$LT$T$C$E$GT$$GT$..deserialize..Field$u20$as$u20$serde..de..Deserialize$GT$..deserialize..FieldVisitor$u20$as$u20$serde..de..Visitor$GT$9expecting17h4e66799388f409d7E
	.p2align	4, 0x90
__ZN231_$LT$$LT$serde..de..impls..$LT$impl$u20$serde..de..Deserialize$u20$for$u20$core..result..Result$LT$T$C$E$GT$$GT$..deserialize..Field$u20$as$u20$serde..de..Deserialize$GT$..deserialize..FieldVisitor$u20$as$u20$serde..de..Visitor$GT$9expecting17h4e66799388f409d7E:
Lfunc_begin61:
	.loc	1 2491 0
	.cfi_startproc
	pushq	%rbp
	.cfi_def_cfa_offset 16
	.cfi_offset %rbp, -16
	movq	%rsp, %rbp
	.cfi_def_cfa_register %rbp
	movq	%rsi, %rdi
Ltmp384:
	.loc	1 2492 25 prologue_end
	leaq	l___unnamed_57(%rip), %rsi
	movl	$13, %edx
	popq	%rbp
	jmp	__ZN4core3fmt9Formatter9write_str17h98e119ad25a8903eE
Ltmp385:
Lfunc_end61:
	.cfi_endproc

	.globl	__ZN5serde2de4utf86Encode6as_str17h95e002c4e102ab4bE
	.p2align	4, 0x90
__ZN5serde2de4utf86Encode6as_str17h95e002c4e102ab4bE:
Lfunc_begin62:
	.file	22 "/Users/yingyuhang/.cargo/registry/src/github.com-1ecc6299db9ec823/serde-1.0.114/src/de/utf8.rs"
	.loc	22 43 0
	.cfi_startproc
	pushq	%rbp
	.cfi_def_cfa_offset 16
	.cfi_offset %rbp, -16
	movq	%rsp, %rbp
	.cfi_def_cfa_register %rbp
	subq	$48, %rsp
	movq	%rdi, %rax
Ltmp386:
	.loc	22 44 34 prologue_end
	movq	(%rdi), %rdi
Ltmp387:
	.loc	8 3251 12
	cmpq	$5, %rdi
	.loc	8 3251 9 is_stmt 0
	jae	LBB62_3
Ltmp388:
	.loc	12 164 18 is_stmt 1
	leaq	8(%rax,%rdi), %rsi
	movl	$4, %edx
Ltmp389:
	.loc	8 3154 76
	subq	%rdi, %rdx
Ltmp390:
	.loc	8 0 76 is_stmt 0
	leaq	-24(%rbp), %rdi
Ltmp391:
	.loc	22 44 9 is_stmt 1
	callq	__ZN4core3str9from_utf817hc7dfc8cc9345acf5E
Ltmp392:
	.file	23 "/rustc/6c8927b0cf80ceee19386026cf9d7fd4fd9d486f/src/libcore/result.rs"
	.loc	23 1004 13
	cmpl	$1, -24(%rbp)
	je	LBB62_4
Ltmp393:
	.loc	23 1004 16 is_stmt 0
	movq	-16(%rbp), %rax
	movq	-8(%rbp), %rdx
Ltmp394:
	.loc	22 45 6 is_stmt 1
	addq	$48, %rsp
	popq	%rbp
	retq
LBB62_3:
Ltmp395:
	.loc	8 3252 13
	leaq	l___unnamed_58(%rip), %rdx
	movl	$4, %esi
	callq	__ZN4core5slice26slice_start_index_len_fail17h787e2f1bbfc1d2f3E
Ltmp396:
LBB62_4:
	.loc	23 1005 17
	movq	-16(%rbp), %rax
	movq	-8(%rbp), %rcx
	movq	%rcx, -32(%rbp)
	movq	%rax, -40(%rbp)
Ltmp397:
	.loc	23 1005 23 is_stmt 0
	leaq	l___unnamed_59(%rip), %rdi
	leaq	l___unnamed_8(%rip), %rcx
	leaq	l___unnamed_60(%rip), %r8
	leaq	-40(%rbp), %rdx
	movl	$43, %esi
	callq	__ZN4core6result13unwrap_failed17hc193898ef513e81fE
Ltmp398:
Lfunc_end62:
	.cfi_endproc

	.globl	__ZN60_$LT$serde..de..Unexpected$u20$as$u20$core..fmt..Display$GT$3fmt17h642119505d234211E
	.p2align	4, 0x90
__ZN60_$LT$serde..de..Unexpected$u20$as$u20$core..fmt..Display$GT$3fmt17h642119505d234211E:
Lfunc_begin63:
	.file	24 "/Users/yingyuhang/.cargo/registry/src/github.com-1ecc6299db9ec823/serde-1.0.114/src/de/mod.rs"
	.loc	24 396 0 is_stmt 1
	.cfi_startproc
	pushq	%rbp
	.cfi_def_cfa_offset 16
	.cfi_offset %rbp, -16
	movq	%rsp, %rbp
	.cfi_def_cfa_register %rbp
	subq	$80, %rsp
	movq	%rsi, %rax
Ltmp399:
	.loc	24 399 13 prologue_end
	movzbl	(%rdi), %ecx
	leaq	LJTI63_0(%rip), %rdx
	movslq	(%rdx,%rcx,4), %rcx
	addq	%rdx, %rcx
	jmpq	*%rcx
Ltmp400:
LBB63_2:
	.loc	24 399 18 is_stmt 0
	movb	1(%rdi), %cl
Ltmp401:
	movb	%cl, -80(%rbp)
	leaq	-80(%rbp), %rcx
Ltmp402:
	.loc	24 399 24
	movq	%rcx, -64(%rbp)
	movq	__ZN43_$LT$bool$u20$as$u20$core..fmt..Display$GT$3fmt17hd78396651a24cfbbE@GOTPCREL(%rip), %rcx
	movq	%rcx, -56(%rbp)
Ltmp403:
	.loc	4 328 9 is_stmt 1
	leaq	l___unnamed_61(%rip), %rcx
Ltmp404:
	.loc	4 0 9 is_stmt 0
	jmp	LBB63_5
Ltmp405:
LBB63_3:
	.loc	24 400 22 is_stmt 1
	movq	8(%rdi), %rcx
Ltmp406:
	movq	%rcx, -80(%rbp)
	leaq	-80(%rbp), %rcx
Ltmp407:
	.loc	24 400 28 is_stmt 0
	movq	%rcx, -64(%rbp)
	movq	__ZN4core3fmt3num3imp52_$LT$impl$u20$core..fmt..Display$u20$for$u20$u64$GT$3fmt17h3230c9bc78e30ed1E@GOTPCREL(%rip), %rcx
	jmp	LBB63_4
Ltmp408:
LBB63_7:
	.loc	24 401 20 is_stmt 1
	movq	8(%rdi), %rcx
Ltmp409:
	movq	%rcx, -80(%rbp)
	leaq	-80(%rbp), %rcx
Ltmp410:
	.loc	24 401 26 is_stmt 0
	movq	%rcx, -64(%rbp)
	movq	__ZN4core3fmt3num3imp52_$LT$impl$u20$core..fmt..Display$u20$for$u20$i64$GT$3fmt17h310ed6661e8c983fE@GOTPCREL(%rip), %rcx
Ltmp411:
LBB63_4:
	.loc	24 0 0
	movq	%rcx, -56(%rbp)
Ltmp412:
	leaq	l___unnamed_62(%rip), %rcx
Ltmp413:
	jmp	LBB63_5
Ltmp414:
LBB63_8:
	.loc	24 402 19 is_stmt 1
	movq	8(%rdi), %rcx
Ltmp415:
	movq	%rcx, -80(%rbp)
	leaq	-80(%rbp), %rcx
Ltmp416:
	.loc	24 402 25 is_stmt 0
	movq	%rcx, -64(%rbp)
	movq	__ZN4core3fmt5float52_$LT$impl$u20$core..fmt..Display$u20$for$u20$f64$GT$3fmt17h6661f4669fdcb1d1E@GOTPCREL(%rip), %rcx
	movq	%rcx, -56(%rbp)
Ltmp417:
	.loc	4 328 9 is_stmt 1
	leaq	l___unnamed_63(%rip), %rcx
Ltmp418:
	.loc	4 0 9 is_stmt 0
	jmp	LBB63_5
Ltmp419:
LBB63_9:
	.loc	24 403 18 is_stmt 1
	movl	4(%rdi), %ecx
Ltmp420:
	movl	%ecx, -80(%rbp)
	leaq	-80(%rbp), %rcx
Ltmp421:
	.loc	24 403 24 is_stmt 0
	movq	%rcx, -64(%rbp)
	movq	__ZN43_$LT$char$u20$as$u20$core..fmt..Display$GT$3fmt17haf02f59875f30dd3E@GOTPCREL(%rip), %rcx
	movq	%rcx, -56(%rbp)
Ltmp422:
	.loc	4 328 9 is_stmt 1
	leaq	l___unnamed_64(%rip), %rcx
Ltmp423:
LBB63_5:
	.loc	24 0 0 is_stmt 0
	movq	%rcx, -48(%rbp)
	movq	$2, -40(%rbp)
Ltmp424:
LBB63_6:
	movq	$0, -32(%rbp)
	leaq	-64(%rbp), %rcx
	movq	%rcx, -16(%rbp)
	movq	$1, -8(%rbp)
	jmp	LBB63_23
Ltmp425:
LBB63_10:
	.loc	24 404 17 is_stmt 1
	movups	8(%rdi), %xmm0
Ltmp426:
	movaps	%xmm0, -80(%rbp)
	leaq	-80(%rbp), %rcx
Ltmp427:
	.loc	24 404 23 is_stmt 0
	movq	%rcx, -64(%rbp)
	leaq	__ZN42_$LT$$RF$T$u20$as$u20$core..fmt..Debug$GT$3fmt17h0890c7e79da22c7eE(%rip), %rcx
	movq	%rcx, -56(%rbp)
Ltmp428:
	.loc	4 328 9 is_stmt 1
	leaq	l___unnamed_65(%rip), %rcx
Ltmp429:
	movq	%rcx, -48(%rbp)
	movq	$1, -40(%rbp)
	jmp	LBB63_6
Ltmp430:
LBB63_11:
	.loc	4 328 9 is_stmt 0
	leaq	l___unnamed_66(%rip), %rcx
Ltmp431:
	.loc	4 0 9
	jmp	LBB63_22
Ltmp432:
LBB63_12:
	.loc	4 328 9
	leaq	l___unnamed_67(%rip), %rcx
Ltmp433:
	.loc	4 0 9
	jmp	LBB63_22
Ltmp434:
LBB63_13:
	.loc	4 328 9
	leaq	l___unnamed_68(%rip), %rcx
Ltmp435:
	.loc	4 0 9
	jmp	LBB63_22
Ltmp436:
LBB63_14:
	.loc	4 328 9
	leaq	l___unnamed_69(%rip), %rcx
Ltmp437:
	.loc	4 0 9
	jmp	LBB63_22
Ltmp438:
LBB63_15:
	.loc	4 328 9
	leaq	l___unnamed_70(%rip), %rcx
Ltmp439:
	.loc	4 0 9
	jmp	LBB63_22
Ltmp440:
LBB63_16:
	.loc	4 328 9
	leaq	l___unnamed_71(%rip), %rcx
Ltmp441:
	.loc	4 0 9
	jmp	LBB63_22
Ltmp442:
LBB63_17:
	.loc	4 328 9
	leaq	l___unnamed_72(%rip), %rcx
Ltmp443:
	.loc	4 0 9
	jmp	LBB63_22
Ltmp444:
LBB63_18:
	.loc	4 328 9
	leaq	l___unnamed_73(%rip), %rcx
Ltmp445:
	.loc	4 0 9
	jmp	LBB63_22
Ltmp446:
LBB63_19:
	.loc	4 328 9
	leaq	l___unnamed_74(%rip), %rcx
Ltmp447:
	.loc	4 0 9
	jmp	LBB63_22
Ltmp448:
LBB63_20:
	.loc	4 328 9
	leaq	l___unnamed_75(%rip), %rcx
Ltmp449:
	.loc	4 0 9
	jmp	LBB63_22
Ltmp450:
LBB63_21:
	.loc	4 328 9
	leaq	l___unnamed_76(%rip), %rcx
Ltmp451:
LBB63_22:
	.loc	24 0 0
	movq	%rcx, -48(%rbp)
	movq	$1, -40(%rbp)
	movq	$0, -32(%rbp)
	leaq	l___unnamed_33(%rip), %rcx
Ltmp452:
	movq	%rcx, -16(%rbp)
	movq	$0, -8(%rbp)
Ltmp453:
LBB63_23:
	leaq	-48(%rbp), %rsi
	movq	%rax, %rdi
Ltmp454:
	callq	__ZN4core3fmt9Formatter9write_fmt17h742ca6aae87ad23cE
Ltmp455:
	.loc	24 418 6 is_stmt 1
	addq	$80, %rsp
	popq	%rbp
	retq
LBB63_1:
Ltmp456:
	.loc	24 416 19
	movq	8(%rdi), %rsi
	movq	16(%rdi), %rdx
Ltmp457:
	.loc	24 416 29 is_stmt 0
	movq	%rax, %rdi
Ltmp458:
	addq	$80, %rsp
	popq	%rbp
	jmp	__ZN4core3fmt9Formatter9write_str17h98e119ad25a8903eE
Ltmp459:
Lfunc_end63:
	.cfi_endproc
	.p2align	2, 0x90
	.data_region jt32
.set L63_0_set_2, LBB63_2-LJTI63_0
.set L63_0_set_3, LBB63_3-LJTI63_0
.set L63_0_set_7, LBB63_7-LJTI63_0
.set L63_0_set_8, LBB63_8-LJTI63_0
.set L63_0_set_9, LBB63_9-LJTI63_0
.set L63_0_set_10, LBB63_10-LJTI63_0
.set L63_0_set_11, LBB63_11-LJTI63_0
.set L63_0_set_12, LBB63_12-LJTI63_0
.set L63_0_set_13, LBB63_13-LJTI63_0
.set L63_0_set_14, LBB63_14-LJTI63_0
.set L63_0_set_15, LBB63_15-LJTI63_0
.set L63_0_set_16, LBB63_16-LJTI63_0
.set L63_0_set_17, LBB63_17-LJTI63_0
.set L63_0_set_18, LBB63_18-LJTI63_0
.set L63_0_set_19, LBB63_19-LJTI63_0
.set L63_0_set_20, LBB63_20-LJTI63_0
.set L63_0_set_21, LBB63_21-LJTI63_0
.set L63_0_set_1, LBB63_1-LJTI63_0
LJTI63_0:
	.long	L63_0_set_2
	.long	L63_0_set_3
	.long	L63_0_set_7
	.long	L63_0_set_8
	.long	L63_0_set_9
	.long	L63_0_set_10
	.long	L63_0_set_11
	.long	L63_0_set_12
	.long	L63_0_set_13
	.long	L63_0_set_14
	.long	L63_0_set_15
	.long	L63_0_set_16
	.long	L63_0_set_17
	.long	L63_0_set_18
	.long	L63_0_set_19
	.long	L63_0_set_20
	.long	L63_0_set_21
	.long	L63_0_set_1
	.end_data_region

	.globl	__ZN47_$LT$$RF$str$u20$as$u20$serde..de..Expected$GT$3fmt17h5e334eef7389b98fE
	.p2align	4, 0x90
__ZN47_$LT$$RF$str$u20$as$u20$serde..de..Expected$GT$3fmt17h5e334eef7389b98fE:
Lfunc_begin64:
	.loc	24 486 0 is_stmt 1
	.cfi_startproc
	pushq	%rbp
	.cfi_def_cfa_offset 16
	.cfi_offset %rbp, -16
	movq	%rsp, %rbp
	.cfi_def_cfa_register %rbp
	movq	%rsi, %rax
Ltmp460:
	.loc	24 487 29 prologue_end
	movq	(%rdi), %rsi
	movq	8(%rdi), %rdx
	.loc	24 487 9 is_stmt 0
	movq	%rax, %rdi
Ltmp461:
	popq	%rbp
	jmp	__ZN4core3fmt9Formatter9write_str17h98e119ad25a8903eE
Ltmp462:
Lfunc_end64:
	.cfi_endproc

	.globl	__ZN66_$LT$dyn$u20$serde..de..Expected$u20$as$u20$core..fmt..Display$GT$3fmt17hfd4a49b23d1e2985E
	.p2align	4, 0x90
__ZN66_$LT$dyn$u20$serde..de..Expected$u20$as$u20$core..fmt..Display$GT$3fmt17hfd4a49b23d1e2985E:
Lfunc_begin65:
	.loc	24 492 0 is_stmt 1
	.cfi_startproc
	pushq	%rbp
	.cfi_def_cfa_offset 16
	.cfi_offset %rbp, -16
	movq	%rsp, %rbp
	.cfi_def_cfa_register %rbp
Ltmp463:
	.loc	24 493 9 prologue_end
	movq	24(%rsi), %rax
Ltmp464:
	movq	%rdx, %rsi
Ltmp465:
	popq	%rbp
	jmpq	*%rax
Ltmp466:
Lfunc_end65:
	.cfi_endproc

	.globl	__ZN55_$LT$serde..de..OneOf$u20$as$u20$core..fmt..Display$GT$3fmt17hd92adaef6e96426fE
	.p2align	4, 0x90
__ZN55_$LT$serde..de..OneOf$u20$as$u20$core..fmt..Display$GT$3fmt17hd92adaef6e96426fE:
Lfunc_begin66:
	.loc	24 2259 0
	.cfi_startproc
	pushq	%rbp
	.cfi_def_cfa_offset 16
	.cfi_offset %rbp, -16
	movq	%rsp, %rbp
	.cfi_def_cfa_register %rbp
	pushq	%r15
	pushq	%r14
	pushq	%r13
	pushq	%r12
	pushq	%rbx
	subq	$88, %rsp
	.cfi_offset %rbx, -56
	.cfi_offset %r12, -48
	.cfi_offset %r13, -40
	.cfi_offset %r14, -32
	.cfi_offset %r15, -24
	movq	%rsi, %r12
	movq	%rdi, %r15
Ltmp467:
	.loc	24 2260 15 prologue_end
	movq	8(%rdi), %rbx
	.loc	24 2261 13
	cmpq	$1, %rbx
	je	LBB66_10
Ltmp468:
	cmpq	$2, %rbx
	je	LBB66_12
Ltmp469:
	testq	%rbx, %rbx
	je	LBB66_9
Ltmp470:
	.loc	4 328 9
	leaq	l___unnamed_77(%rip), %rax
Ltmp471:
	movq	%rax, -88(%rbp)
	movq	$1, -80(%rbp)
	movq	$0, -72(%rbp)
	leaq	l___unnamed_33(%rip), %rax
Ltmp472:
	movq	%rax, -56(%rbp)
	movq	$0, -48(%rbp)
	leaq	-88(%rbp), %rsi
Ltmp473:
	.loc	24 2265 22
	movq	%r12, %rdi
	callq	__ZN4core3fmt9Formatter9write_fmt17h742ca6aae87ad23cE
Ltmp474:
	.loc	24 0 22 is_stmt 0
	movb	$1, %cl
	.loc	24 2265 17
	testb	%al, %al
	jne	LBB66_8
Ltmp475:
	.loc	24 2266 33 is_stmt 1
	movq	(%r15), %r13
Ltmp476:
	.loc	8 3570 21
	shlq	$4, %rbx
	addq	$-16, %rbx
	shrq	$4, %rbx
	incq	%rbx
	xorl	%r14d, %r14d
	leaq	-88(%rbp), %r15
Ltmp477:
	.p2align	4, 0x90
LBB66_5:
	.loc	24 2266 25
	movq	%r13, -128(%rbp)
Ltmp478:
	.loc	24 2267 24
	testq	%r14, %r14
	.loc	24 2267 21 is_stmt 0
	je	LBB66_13
Ltmp479:
	.loc	4 328 9 is_stmt 1
	leaq	l___unnamed_78(%rip), %rax
Ltmp480:
	movq	%rax, -88(%rbp)
Ltmp481:
	movq	$1, -80(%rbp)
	movq	$0, -72(%rbp)
Ltmp482:
	leaq	l___unnamed_33(%rip), %rax
Ltmp483:
	movq	%rax, -56(%rbp)
Ltmp484:
	movq	$0, -48(%rbp)
Ltmp485:
	.loc	24 2268 30
	movq	%r12, %rdi
	movq	%r15, %rsi
	callq	__ZN4core3fmt9Formatter9write_fmt17h742ca6aae87ad23cE
	.loc	24 2268 25 is_stmt 0
	testb	%al, %al
	jne	LBB66_7
Ltmp486:
LBB66_13:
	.loc	24 2270 26 is_stmt 1
	leaq	-128(%rbp), %rax
	movq	%rax, -120(%rbp)
	leaq	__ZN44_$LT$$RF$T$u20$as$u20$core..fmt..Display$GT$3fmt17ha39e6ac893600393E(%rip), %rax
	movq	%rax, -112(%rbp)
Ltmp487:
	.loc	4 328 9
	leaq	l___unnamed_79(%rip), %rax
Ltmp488:
	movq	%rax, -88(%rbp)
Ltmp489:
	movq	$2, -80(%rbp)
	movq	$0, -72(%rbp)
	leaq	-120(%rbp), %rax
	movq	%rax, -56(%rbp)
	movq	$1, -48(%rbp)
Ltmp490:
	.loc	24 2270 26
	movq	%r12, %rdi
	movq	%r15, %rsi
	callq	__ZN4core3fmt9Formatter9write_fmt17h742ca6aae87ad23cE
	.loc	24 2270 21 is_stmt 0
	testb	%al, %al
	jne	LBB66_7
Ltmp491:
	.loc	24 0 21
	addq	$16, %r13
Ltmp492:
	incq	%r14
Ltmp493:
	.loc	8 3440 9 is_stmt 1
	cmpq	%r14, %rbx
	.loc	8 3570 21
	jne	LBB66_5
Ltmp494:
	.loc	8 0 21 is_stmt 0
	xorl	%ecx, %ecx
	jmp	LBB66_8
Ltmp495:
LBB66_12:
	.loc	24 2263 52 is_stmt 1
	movq	(%r15), %rax
Ltmp496:
	.loc	24 2263 18 is_stmt 0
	movq	%rax, -120(%rbp)
Ltmp497:
	.loc	24 2263 67
	addq	$16, %rax
Ltmp498:
	.loc	24 2263 18
	leaq	__ZN44_$LT$$RF$T$u20$as$u20$core..fmt..Display$GT$3fmt17h650a29a2750ba384E(%rip), %rcx
	movq	%rcx, -112(%rbp)
	movq	%rax, -104(%rbp)
	movq	%rcx, -96(%rbp)
Ltmp499:
	.loc	4 328 9 is_stmt 1
	leaq	l___unnamed_80(%rip), %rax
Ltmp500:
	movq	%rax, -88(%rbp)
	movq	$3, -80(%rbp)
	movq	$0, -72(%rbp)
	leaq	-120(%rbp), %rax
Ltmp501:
	movq	%rax, -56(%rbp)
	movq	$2, -48(%rbp)
	jmp	LBB66_11
Ltmp502:
LBB66_10:
	.loc	24 2262 44
	movq	(%r15), %rax
Ltmp503:
	.loc	24 2262 18 is_stmt 0
	movq	%rax, -120(%rbp)
	leaq	__ZN44_$LT$$RF$T$u20$as$u20$core..fmt..Display$GT$3fmt17h650a29a2750ba384E(%rip), %rax
	movq	%rax, -112(%rbp)
Ltmp504:
	.loc	4 328 9 is_stmt 1
	leaq	l___unnamed_79(%rip), %rax
Ltmp505:
	movq	%rax, -88(%rbp)
	movq	$2, -80(%rbp)
	movq	$0, -72(%rbp)
	leaq	-120(%rbp), %rax
Ltmp506:
	movq	%rax, -56(%rbp)
	movq	$1, -48(%rbp)
Ltmp507:
LBB66_11:
	.loc	4 0 9 is_stmt 0
	leaq	-88(%rbp), %rsi
	movq	%r12, %rdi
	callq	__ZN4core3fmt9Formatter9write_fmt17h742ca6aae87ad23cE
	movl	%eax, %ecx
Ltmp508:
LBB66_8:
	.loc	24 2275 6 is_stmt 1
	movl	%ecx, %eax
	addq	$88, %rsp
	popq	%rbx
	popq	%r12
Ltmp509:
	popq	%r13
	popq	%r14
	popq	%r15
	popq	%rbp
	retq
LBB66_7:
Ltmp510:
	.loc	24 0 6 is_stmt 0
	movb	$1, %cl
	jmp	LBB66_8
Ltmp511:
LBB66_9:
	.loc	24 2261 18 is_stmt 1
	leaq	l___unnamed_81(%rip), %rdi
	leaq	l___unnamed_82(%rip), %rdx
	movl	$14, %esi
	callq	__ZN3std9panicking11begin_panic17hc5eb7c927fa097f5E
Ltmp512:
Lfunc_end66:
	.cfi_endproc
	.file	25 "/rustc/6c8927b0cf80ceee19386026cf9d7fd4fd9d486f/src/libcore/iter/adapters/mod.rs"

	.globl	__ZN5serde3ser3fmt85_$LT$impl$u20$serde..ser..Serializer$u20$for$u20$$RF$mut$u20$core..fmt..Formatter$GT$22serialize_unit_variant17h170d35e407a6c985E
	.p2align	4, 0x90
__ZN5serde3ser3fmt85_$LT$impl$u20$serde..ser..Serializer$u20$for$u20$$RF$mut$u20$core..fmt..Formatter$GT$22serialize_unit_variant17h170d35e407a6c985E:
Lfunc_begin67:
	.file	26 "/Users/yingyuhang/.cargo/registry/src/github.com-1ecc6299db9ec823/serde-1.0.114/src/ser/fmt.rs"
	.loc	26 72 0
	.cfi_startproc
	pushq	%rbp
	.cfi_def_cfa_offset 16
	.cfi_offset %rbp, -16
	movq	%rsp, %rbp
	.cfi_def_cfa_register %rbp
	movq	%r9, %rsi
Ltmp513:
	movq	%rdi, %rdx
Ltmp514:
	.loc	26 78 9 prologue_end
	movq	%r8, %rdi
Ltmp515:
	popq	%rbp
	jmp	__ZN42_$LT$str$u20$as$u20$core..fmt..Display$GT$3fmt17h6768afae62e94f93E
Ltmp516:
Lfunc_end67:
	.cfi_endproc

	.globl	__ZN5serde3ser3fmt85_$LT$impl$u20$serde..ser..Serializer$u20$for$u20$$RF$mut$u20$core..fmt..Formatter$GT$15serialize_bytes17hfbe9149e37200a3dE
	.p2align	4, 0x90
__ZN5serde3ser3fmt85_$LT$impl$u20$serde..ser..Serializer$u20$for$u20$$RF$mut$u20$core..fmt..Formatter$GT$15serialize_bytes17hfbe9149e37200a3dE:
Lfunc_begin68:
	.loc	26 88 0
	.cfi_startproc
	pushq	%rbp
	.cfi_def_cfa_offset 16
	.cfi_offset %rbp, -16
	movq	%rsp, %rbp
	.cfi_def_cfa_register %rbp
Ltmp517:
	.loc	26 90 6 prologue_end
	movb	$1, %al
	popq	%rbp
	retq
Ltmp518:
Lfunc_end68:
	.cfi_endproc

	.globl	__ZN5serde3ser3fmt85_$LT$impl$u20$serde..ser..Serializer$u20$for$u20$$RF$mut$u20$core..fmt..Formatter$GT$14serialize_none17hc2c4c0548cda4263E
	.p2align	4, 0x90
__ZN5serde3ser3fmt85_$LT$impl$u20$serde..ser..Serializer$u20$for$u20$$RF$mut$u20$core..fmt..Formatter$GT$14serialize_none17hc2c4c0548cda4263E:
Lfunc_begin69:
	.loc	26 92 0
	.cfi_startproc
	pushq	%rbp
	.cfi_def_cfa_offset 16
	.cfi_offset %rbp, -16
	movq	%rsp, %rbp
	.cfi_def_cfa_register %rbp
Ltmp519:
	.loc	26 94 6 prologue_end
	movb	$1, %al
	popq	%rbp
	retq
Ltmp520:
Lfunc_end69:
	.cfi_endproc

	.globl	__ZN5serde3ser3fmt85_$LT$impl$u20$serde..ser..Serializer$u20$for$u20$$RF$mut$u20$core..fmt..Formatter$GT$15serialize_tuple17hedf03da9506f2c21E
	.p2align	4, 0x90
__ZN5serde3ser3fmt85_$LT$impl$u20$serde..ser..Serializer$u20$for$u20$$RF$mut$u20$core..fmt..Formatter$GT$15serialize_tuple17hedf03da9506f2c21E:
Lfunc_begin70:
	.loc	26 124 0
	.cfi_startproc
	pushq	%rbp
	.cfi_def_cfa_offset 16
	.cfi_offset %rbp, -16
	movq	%rsp, %rbp
	.cfi_def_cfa_register %rbp
Ltmp521:
	.loc	26 126 6 prologue_end
	popq	%rbp
	retq
Ltmp522:
Lfunc_end70:
	.cfi_endproc

	.globl	__ZN5serde3ser3fmt85_$LT$impl$u20$serde..ser..Serializer$u20$for$u20$$RF$mut$u20$core..fmt..Formatter$GT$23serialize_tuple_variant17h1edd1a1279dc9abbE
	.p2align	4, 0x90
__ZN5serde3ser3fmt85_$LT$impl$u20$serde..ser..Serializer$u20$for$u20$$RF$mut$u20$core..fmt..Formatter$GT$23serialize_tuple_variant17h1edd1a1279dc9abbE:
Lfunc_begin71:
	.loc	26 136 0
	.cfi_startproc
	pushq	%rbp
	.cfi_def_cfa_offset 16
	.cfi_offset %rbp, -16
	movq	%rsp, %rbp
	.cfi_def_cfa_register %rbp
Ltmp523:
	.loc	26 144 6 prologue_end
	popq	%rbp
	retq
Ltmp524:
Lfunc_end71:
	.cfi_endproc

	.globl	__ZN5serde3ser3fmt85_$LT$impl$u20$serde..ser..Serializer$u20$for$u20$$RF$mut$u20$core..fmt..Formatter$GT$13serialize_map17hdd8b90261675681aE
	.p2align	4, 0x90
__ZN5serde3ser3fmt85_$LT$impl$u20$serde..ser..Serializer$u20$for$u20$$RF$mut$u20$core..fmt..Formatter$GT$13serialize_map17hdd8b90261675681aE:
Lfunc_begin72:
	.loc	26 146 0
	.cfi_startproc
	pushq	%rbp
	.cfi_def_cfa_offset 16
	.cfi_offset %rbp, -16
	movq	%rsp, %rbp
	.cfi_def_cfa_register %rbp
Ltmp525:
	.loc	26 148 6 prologue_end
	popq	%rbp
	retq
Ltmp526:
Lfunc_end72:
	.cfi_endproc

	.globl	__ZN5serde3ser3fmt85_$LT$impl$u20$serde..ser..Serializer$u20$for$u20$$RF$mut$u20$core..fmt..Formatter$GT$16serialize_struct17h52c48a187ed6b0daE
	.p2align	4, 0x90
__ZN5serde3ser3fmt85_$LT$impl$u20$serde..ser..Serializer$u20$for$u20$$RF$mut$u20$core..fmt..Formatter$GT$16serialize_struct17h52c48a187ed6b0daE:
Lfunc_begin73:
	.loc	26 150 0
	.cfi_startproc
	pushq	%rbp
	.cfi_def_cfa_offset 16
	.cfi_offset %rbp, -16
	movq	%rsp, %rbp
	.cfi_def_cfa_register %rbp
Ltmp527:
	.loc	26 156 6 prologue_end
	popq	%rbp
	retq
Ltmp528:
Lfunc_end73:
	.cfi_endproc

	.globl	__ZN5serde6export6string15from_utf8_lossy17hc7f3637594f35605E
	.p2align	4, 0x90
__ZN5serde6export6string15from_utf8_lossy17hc7f3637594f35605E:
Lfunc_begin74:
	.file	27 "/Users/yingyuhang/.cargo/registry/src/github.com-1ecc6299db9ec823/serde-1.0.114/src/export.rs"
	.loc	27 21 0
	.cfi_startproc
	pushq	%rbp
	.cfi_def_cfa_offset 16
	.cfi_offset %rbp, -16
	movq	%rsp, %rbp
	.cfi_def_cfa_register %rbp
	pushq	%rbx
	pushq	%rax
	.cfi_offset %rbx, -24
	movq	%rdi, %rbx
Ltmp529:
	.loc	27 22 9 prologue_end
	callq	__ZN5alloc6string6String15from_utf8_lossy17hc74b4cb050ce73b3E
Ltmp530:
	.loc	27 23 6
	movq	%rbx, %rax
	addq	$8, %rsp
	popq	%rbx
	popq	%rbp
	retq
Ltmp531:
Lfunc_end74:
	.cfi_endproc

	.globl	__ZN92_$LT$serde..private..de..borrow_cow_bytes..CowBytesVisitor$u20$as$u20$serde..de..Visitor$GT$9expecting17h4cf5b971fe621783E
	.p2align	4, 0x90
__ZN92_$LT$serde..private..de..borrow_cow_bytes..CowBytesVisitor$u20$as$u20$serde..de..Visitor$GT$9expecting17h4cf5b971fe621783E:
Lfunc_begin75:
	.file	28 "/Users/yingyuhang/.cargo/registry/src/github.com-1ecc6299db9ec823/serde-1.0.114/src/private/de.rs"
	.loc	28 139 0
	.cfi_startproc
	pushq	%rbp
	.cfi_def_cfa_offset 16
	.cfi_offset %rbp, -16
	movq	%rsp, %rbp
	.cfi_def_cfa_register %rbp
	movq	%rsi, %rdi
Ltmp532:
	.loc	28 140 13 prologue_end
	leaq	l___unnamed_83(%rip), %rsi
	movl	$12, %edx
	popq	%rbp
	jmp	__ZN4core3fmt9Formatter9write_str17h98e119ad25a8903eE
Ltmp533:
Lfunc_end75:
	.cfi_endproc

	.globl	__ZN5serde7private2de9size_hint6helper17h7ba2d41bf9bdd39aE
	.p2align	4, 0x90
__ZN5serde7private2de9size_hint6helper17h7ba2d41bf9bdd39aE:
Lfunc_begin76:
	.loc	28 206 0
	.cfi_startproc
	pushq	%rbp
	.cfi_def_cfa_offset 16
	.cfi_offset %rbp, -16
	movq	%rsp, %rbp
	.cfi_def_cfa_register %rbp
Ltmp534:
	.loc	28 208 21 prologue_end
	movq	8(%rdi), %rcx
	movq	16(%rdi), %rdx
	xorq	$1, %rcx
	movq	(%rdi), %rsi
	xorq	%rdx, %rsi
	xorl	%eax, %eax
	orq	%rcx, %rsi
	sete	%al
	.loc	28 211 6
	popq	%rbp
	retq
Ltmp535:
Lfunc_end76:
	.cfi_endproc

	.globl	__ZN5serde7private2de7content7Content6as_str17ha332dcf868950a94E
	.p2align	4, 0x90
__ZN5serde7private2de7content7Content6as_str17ha332dcf868950a94E:
Lfunc_begin77:
	.loc	28 271 0
	.cfi_startproc
	pushq	%rbp
	.cfi_def_cfa_offset 16
	.cfi_offset %rbp, -16
	movq	%rsp, %rbp
	.cfi_def_cfa_register %rbp
	subq	$32, %rsp
Ltmp536:
	.loc	28 273 17 prologue_end
	movzbl	(%rdi), %eax
	addq	$-12, %rax
	cmpq	$3, %rax
	ja	LBB77_8
Ltmp537:
	.loc	28 0 17 is_stmt 0
	leaq	LJTI77_0(%rip), %rcx
	movslq	(%rcx,%rax,4), %rax
	addq	%rcx, %rax
	jmpq	*%rax
Ltmp538:
LBB77_2:
	.loc	5 818 19 is_stmt 1
	movq	8(%rdi), %rax
Ltmp539:
	.loc	5 1923 55
	movq	24(%rdi), %rdx
Ltmp540:
	.loc	28 279 10
	addq	$32, %rsp
	popq	%rbp
	retq
Ltmp541:
LBB77_3:
	.loc	5 818 19
	movq	8(%rdi), %rsi
Ltmp542:
	.loc	5 1923 55
	movq	24(%rdi), %rdx
	jmp	LBB77_4
Ltmp543:
LBB77_6:
	.loc	28 275 32
	movq	8(%rdi), %rsi
	movq	16(%rdi), %rdx
Ltmp544:
LBB77_4:
	.loc	28 0 32 is_stmt 0
	leaq	-24(%rbp), %rdi
Ltmp545:
	callq	__ZN4core3str9from_utf817hc7dfc8cc9345acf5E
	cmpl	$1, -24(%rbp)
	movq	-8(%rbp), %rdx
	je	LBB77_5
	movq	-16(%rbp), %rax
	.loc	28 279 10 is_stmt 1
	addq	$32, %rsp
	popq	%rbp
	retq
LBB77_5:
	.loc	28 0 10 is_stmt 0
	xorl	%eax, %eax
	.loc	28 279 10
	addq	$32, %rsp
	popq	%rbp
	retq
LBB77_8:
Ltmp546:
	.loc	28 0 10
	xorl	%eax, %eax
	.loc	28 279 10
	addq	$32, %rsp
	popq	%rbp
	retq
Ltmp547:
LBB77_9:
	.loc	28 273 30 is_stmt 1
	movq	8(%rdi), %rax
	movq	16(%rdi), %rdx
	.loc	28 279 10
	addq	$32, %rsp
	popq	%rbp
	retq
Ltmp548:
Lfunc_end77:
	.cfi_endproc
	.p2align	2, 0x90
	.data_region jt32
.set L77_0_set_2, LBB77_2-LJTI77_0
.set L77_0_set_9, LBB77_9-LJTI77_0
.set L77_0_set_3, LBB77_3-LJTI77_0
.set L77_0_set_6, LBB77_6-LJTI77_0
LJTI77_0:
	.long	L77_0_set_2
	.long	L77_0_set_9
	.long	L77_0_set_3
	.long	L77_0_set_6
	.end_data_region

	.globl	__ZN5serde7private2de7content7Content10unexpected17ha78eba840e74caeaE
	.p2align	4, 0x90
__ZN5serde7private2de7content7Content10unexpected17ha78eba840e74caeaE:
Lfunc_begin78:
	.loc	28 282 0
	.cfi_startproc
	pushq	%rbp
	.cfi_def_cfa_offset 16
	.cfi_offset %rbp, -16
	movq	%rsp, %rbp
	.cfi_def_cfa_register %rbp
	movq	%rdi, %rax
Ltmp549:
	.loc	28 284 17 prologue_end
	movzbl	(%rsi), %edx
	movb	$11, %cl
	leaq	LJTI78_0(%rip), %rdi
	movslq	(%rdi,%rdx,4), %rdx
	addq	%rdi, %rdx
	jmpq	*%rdx
Ltmp550:
LBB78_19:
	.loc	28 0 17 is_stmt 0
	movb	$8, %cl
Ltmp551:
LBB78_23:
	movb	%cl, (%rax)
	.loc	28 306 10 is_stmt 1
	popq	%rbp
	retq
Ltmp552:
LBB78_1:
	.loc	28 284 31
	movb	1(%rsi), %cl
Ltmp553:
	.loc	28 284 37 is_stmt 0
	movb	%cl, 1(%rax)
	xorl	%ecx, %ecx
Ltmp554:
	.loc	28 0 0
	movb	%cl, (%rax)
	.loc	28 306 10 is_stmt 1
	popq	%rbp
	retq
Ltmp555:
LBB78_2:
	.loc	28 285 29
	movzbl	1(%rsi), %ecx
Ltmp556:
	.loc	28 0 29 is_stmt 0
	jmp	LBB78_3
Ltmp557:
LBB78_4:
	.loc	28 286 30 is_stmt 1
	movzwl	2(%rsi), %ecx
Ltmp558:
	.loc	28 0 30 is_stmt 0
	jmp	LBB78_3
Ltmp559:
LBB78_5:
	.loc	28 287 30 is_stmt 1
	movl	4(%rsi), %ecx
Ltmp560:
	.loc	28 0 30 is_stmt 0
	jmp	LBB78_3
Ltmp561:
LBB78_6:
	.loc	28 288 30 is_stmt 1
	movq	8(%rsi), %rcx
Ltmp562:
LBB78_3:
	.loc	28 0 0 is_stmt 0
	movq	%rcx, 8(%rax)
	movb	$1, %cl
	movb	%cl, (%rax)
	.loc	28 306 10 is_stmt 1
	popq	%rbp
	retq
Ltmp563:
LBB78_7:
	.loc	28 289 29
	movsbq	1(%rsi), %rcx
Ltmp564:
	.loc	28 0 29 is_stmt 0
	jmp	LBB78_8
Ltmp565:
LBB78_9:
	.loc	28 290 30 is_stmt 1
	movswq	2(%rsi), %rcx
Ltmp566:
	.loc	28 0 30 is_stmt 0
	jmp	LBB78_8
Ltmp567:
LBB78_10:
	.loc	28 291 30 is_stmt 1
	movslq	4(%rsi), %rcx
Ltmp568:
	.loc	28 0 30 is_stmt 0
	jmp	LBB78_8
Ltmp569:
LBB78_11:
	.loc	28 292 30 is_stmt 1
	movq	8(%rsi), %rcx
Ltmp570:
LBB78_8:
	.loc	28 0 0 is_stmt 0
	movq	%rcx, 8(%rax)
	movb	$2, %cl
	movb	%cl, (%rax)
	.loc	28 306 10 is_stmt 1
	popq	%rbp
	retq
Ltmp571:
LBB78_12:
	.loc	28 293 30
	movss	4(%rsi), %xmm0
Ltmp572:
	.loc	28 293 54 is_stmt 0
	cvtss2sd	%xmm0, %xmm0
Ltmp573:
	.loc	28 293 36
	movsd	%xmm0, 8(%rax)
	movb	$3, %cl
Ltmp574:
	.loc	28 0 0
	movb	%cl, (%rax)
	.loc	28 306 10 is_stmt 1
	popq	%rbp
	retq
Ltmp575:
LBB78_13:
	.loc	28 294 30
	movq	8(%rsi), %rcx
Ltmp576:
	.loc	28 294 36 is_stmt 0
	movq	%rcx, 8(%rax)
	movb	$3, %cl
Ltmp577:
	.loc	28 0 0
	movb	%cl, (%rax)
	.loc	28 306 10 is_stmt 1
	popq	%rbp
	retq
Ltmp578:
LBB78_14:
	.loc	28 295 31
	movl	4(%rsi), %ecx
Ltmp579:
	.loc	28 295 37 is_stmt 0
	movl	%ecx, 4(%rax)
	movb	$4, %cl
Ltmp580:
	.loc	28 0 0
	movb	%cl, (%rax)
	.loc	28 306 10 is_stmt 1
	popq	%rbp
	retq
Ltmp581:
LBB78_15:
	.loc	5 818 19
	movq	8(%rsi), %rcx
Ltmp582:
	.loc	5 1923 55
	movq	24(%rsi), %rdx
Ltmp583:
	.loc	28 296 43
	movq	%rcx, 8(%rax)
	movq	%rdx, 16(%rax)
	movb	$5, %cl
Ltmp584:
	.loc	28 0 0 is_stmt 0
	movb	%cl, (%rax)
	.loc	28 306 10 is_stmt 1
	popq	%rbp
	retq
Ltmp585:
LBB78_16:
	.loc	28 297 30
	movups	8(%rsi), %xmm0
Ltmp586:
	.loc	28 297 36 is_stmt 0
	movups	%xmm0, 8(%rax)
	movb	$5, %cl
Ltmp587:
	.loc	28 0 0
	movb	%cl, (%rax)
	.loc	28 306 10 is_stmt 1
	popq	%rbp
	retq
Ltmp588:
LBB78_17:
	.loc	5 818 19
	movq	8(%rsi), %rcx
Ltmp589:
	.loc	5 1923 55
	movq	24(%rsi), %rdx
Ltmp590:
	.loc	28 298 44
	movq	%rcx, 8(%rax)
	movq	%rdx, 16(%rax)
	movb	$6, %cl
Ltmp591:
	.loc	28 0 0 is_stmt 0
	movb	%cl, (%rax)
	.loc	28 306 10 is_stmt 1
	popq	%rbp
	retq
Ltmp592:
LBB78_18:
	.loc	28 299 32
	movups	8(%rsi), %xmm0
Ltmp593:
	.loc	28 299 38 is_stmt 0
	movups	%xmm0, 8(%rax)
	movb	$6, %cl
Ltmp594:
	.loc	28 0 0
	movb	%cl, (%rax)
	.loc	28 306 10 is_stmt 1
	popq	%rbp
	retq
Ltmp595:
LBB78_20:
	.loc	28 0 10 is_stmt 0
	movb	$7, %cl
	movb	%cl, (%rax)
	.loc	28 306 10
	popq	%rbp
	retq
Ltmp596:
LBB78_21:
	.loc	28 0 10
	movb	$9, %cl
	movb	%cl, (%rax)
	.loc	28 306 10
	popq	%rbp
	retq
Ltmp597:
LBB78_22:
	.loc	28 0 10
	movb	$10, %cl
	movb	%cl, (%rax)
	.loc	28 306 10
	popq	%rbp
	retq
Ltmp598:
Lfunc_end78:
	.cfi_endproc
	.p2align	2, 0x90
	.data_region jt32
.set L78_0_set_1, LBB78_1-LJTI78_0
.set L78_0_set_2, LBB78_2-LJTI78_0
.set L78_0_set_4, LBB78_4-LJTI78_0
.set L78_0_set_5, LBB78_5-LJTI78_0
.set L78_0_set_6, LBB78_6-LJTI78_0
.set L78_0_set_7, LBB78_7-LJTI78_0
.set L78_0_set_9, LBB78_9-LJTI78_0
.set L78_0_set_10, LBB78_10-LJTI78_0
.set L78_0_set_11, LBB78_11-LJTI78_0
.set L78_0_set_12, LBB78_12-LJTI78_0
.set L78_0_set_13, LBB78_13-LJTI78_0
.set L78_0_set_14, LBB78_14-LJTI78_0
.set L78_0_set_15, LBB78_15-LJTI78_0
.set L78_0_set_16, LBB78_16-LJTI78_0
.set L78_0_set_17, LBB78_17-LJTI78_0
.set L78_0_set_18, LBB78_18-LJTI78_0
.set L78_0_set_19, LBB78_19-LJTI78_0
.set L78_0_set_20, LBB78_20-LJTI78_0
.set L78_0_set_21, LBB78_21-LJTI78_0
.set L78_0_set_22, LBB78_22-LJTI78_0
.set L78_0_set_23, LBB78_23-LJTI78_0
LJTI78_0:
	.long	L78_0_set_1
	.long	L78_0_set_2
	.long	L78_0_set_4
	.long	L78_0_set_5
	.long	L78_0_set_6
	.long	L78_0_set_7
	.long	L78_0_set_9
	.long	L78_0_set_10
	.long	L78_0_set_11
	.long	L78_0_set_12
	.long	L78_0_set_13
	.long	L78_0_set_14
	.long	L78_0_set_15
	.long	L78_0_set_16
	.long	L78_0_set_17
	.long	L78_0_set_18
	.long	L78_0_set_19
	.long	L78_0_set_19
	.long	L78_0_set_20
	.long	L78_0_set_21
	.long	L78_0_set_22
	.long	L78_0_set_23
	.end_data_region

	.globl	__ZN5serde7private2de7content14ContentVisitor3new17hf04186db0544274eE
	.p2align	4, 0x90
__ZN5serde7private2de7content14ContentVisitor3new17hf04186db0544274eE:
Lfunc_begin79:
	.loc	28 326 0 is_stmt 1
	.cfi_startproc
	pushq	%rbp
	.cfi_def_cfa_offset 16
	.cfi_offset %rbp, -16
	movq	%rsp, %rbp
	.cfi_def_cfa_register %rbp
Ltmp599:
	.loc	28 328 10 prologue_end
	popq	%rbp
	retq
Ltmp600:
Lfunc_end79:
	.cfi_endproc

	.globl	__ZN82_$LT$serde..private..de..content..ContentVisitor$u20$as$u20$serde..de..Visitor$GT$9expecting17ha602fe3906733dd7E
	.p2align	4, 0x90
__ZN82_$LT$serde..private..de..content..ContentVisitor$u20$as$u20$serde..de..Visitor$GT$9expecting17ha602fe3906733dd7E:
Lfunc_begin80:
	.loc	28 334 0
	.cfi_startproc
	pushq	%rbp
	.cfi_def_cfa_offset 16
	.cfi_offset %rbp, -16
	movq	%rsp, %rbp
	.cfi_def_cfa_register %rbp
	movq	%rsi, %rdi
Ltmp601:
	.loc	28 335 13 prologue_end
	leaq	l___unnamed_84(%rip), %rsi
	movl	$9, %edx
	popq	%rbp
	jmp	__ZN4core3fmt9Formatter9write_str17h98e119ad25a8903eE
Ltmp602:
Lfunc_end80:
	.cfi_endproc

	.globl	__ZN5serde7private2de7content19TagOrContentVisitor3new17hdaf2fe37d55bcdc2E
	.p2align	4, 0x90
__ZN5serde7private2de7content19TagOrContentVisitor3new17hdaf2fe37d55bcdc2E:
Lfunc_begin81:
	.loc	28 538 0
	.cfi_startproc
	pushq	%rbp
	.cfi_def_cfa_offset 16
	.cfi_offset %rbp, -16
	movq	%rsp, %rbp
	.cfi_def_cfa_register %rbp
	movq	%rsi, %rdx
	movq	%rdi, %rax
Ltmp603:
	.loc	28 543 10 prologue_end
	popq	%rbp
	retq
Ltmp604:
Lfunc_end81:
	.cfi_endproc

	.globl	__ZN87_$LT$serde..private..de..content..TagOrContentVisitor$u20$as$u20$serde..de..Visitor$GT$9expecting17h27d5eeb347476904E
	.p2align	4, 0x90
__ZN87_$LT$serde..private..de..content..TagOrContentVisitor$u20$as$u20$serde..de..Visitor$GT$9expecting17h27d5eeb347476904E:
Lfunc_begin82:
	.loc	28 562 0
	.cfi_startproc
	pushq	%rbp
	.cfi_def_cfa_offset 16
	.cfi_offset %rbp, -16
	movq	%rsp, %rbp
	.cfi_def_cfa_register %rbp
	subq	$64, %rsp
	movq	%rsi, %rax
Ltmp605:
	.loc	28 563 13 prologue_end
	movq	%rdi, -16(%rbp)
	leaq	__ZN44_$LT$$RF$T$u20$as$u20$core..fmt..Display$GT$3fmt17h650a29a2750ba384E(%rip), %rcx
	movq	%rcx, -8(%rbp)
Ltmp606:
	.loc	4 328 9
	leaq	l___unnamed_85(%rip), %rcx
Ltmp607:
	movq	%rcx, -64(%rbp)
	movq	$2, -56(%rbp)
	movq	$0, -48(%rbp)
	leaq	-16(%rbp), %rcx
Ltmp608:
	movq	%rcx, -32(%rbp)
	movq	$1, -24(%rbp)
	leaq	-64(%rbp), %rsi
Ltmp609:
	.loc	28 563 13
	movq	%rax, %rdi
Ltmp610:
	callq	__ZN4core3fmt9Formatter9write_fmt17h742ca6aae87ad23cE
Ltmp611:
	.loc	28 564 10
	addq	$64, %rsp
	popq	%rbp
	retq
Ltmp612:
Lfunc_end82:
	.cfi_endproc

	.globl	__ZN92_$LT$serde..private..de..content..TagOrContentFieldVisitor$u20$as$u20$serde..de..Visitor$GT$9expecting17h166c97d2b4fcd3d8E
	.p2align	4, 0x90
__ZN92_$LT$serde..private..de..content..TagOrContentFieldVisitor$u20$as$u20$serde..de..Visitor$GT$9expecting17h166c97d2b4fcd3d8E:
Lfunc_begin83:
	.loc	28 942 0
	.cfi_startproc
	pushq	%rbp
	.cfi_def_cfa_offset 16
	.cfi_offset %rbp, -16
	movq	%rsp, %rbp
	.cfi_def_cfa_register %rbp
	subq	$80, %rsp
	movq	%rsi, %rax
Ltmp613:
	.loc	28 943 13 prologue_end
	movq	%rdi, -32(%rbp)
Ltmp614:
	.loc	28 943 57 is_stmt 0
	addq	$16, %rdi
Ltmp615:
	.loc	28 943 13
	leaq	__ZN42_$LT$$RF$T$u20$as$u20$core..fmt..Debug$GT$3fmt17h0890c7e79da22c7eE(%rip), %rcx
	movq	%rcx, -24(%rbp)
	movq	%rdi, -16(%rbp)
	movq	%rcx, -8(%rbp)
Ltmp616:
	.loc	4 328 9 is_stmt 1
	leaq	l___unnamed_86(%rip), %rcx
Ltmp617:
	movq	%rcx, -80(%rbp)
	movq	$2, -72(%rbp)
	movq	$0, -64(%rbp)
	leaq	-32(%rbp), %rcx
Ltmp618:
	movq	%rcx, -48(%rbp)
	movq	$2, -40(%rbp)
	leaq	-80(%rbp), %rsi
Ltmp619:
	.loc	28 943 13
	movq	%rax, %rdi
Ltmp620:
	callq	__ZN4core3fmt9Formatter9write_fmt17h742ca6aae87ad23cE
Ltmp621:
	.loc	28 944 10
	addq	$80, %rsp
	popq	%rbp
	retq
Ltmp622:
Lfunc_end83:
	.cfi_endproc

	.globl	__ZN95_$LT$serde..private..de..content..TagContentOtherFieldVisitor$u20$as$u20$serde..de..Visitor$GT$9expecting17h4ccf61abc15faa6cE
	.p2align	4, 0x90
__ZN95_$LT$serde..private..de..content..TagContentOtherFieldVisitor$u20$as$u20$serde..de..Visitor$GT$9expecting17h4ccf61abc15faa6cE:
Lfunc_begin84:
	.loc	28 990 0
	.cfi_startproc
	pushq	%rbp
	.cfi_def_cfa_offset 16
	.cfi_offset %rbp, -16
	movq	%rsp, %rbp
	.cfi_def_cfa_register %rbp
	subq	$80, %rsp
	movq	%rsi, %rax
Ltmp623:
	.loc	28 991 13 prologue_end
	movq	%rdi, -32(%rbp)
Ltmp624:
	.loc	28 994 27
	addq	$16, %rdi
Ltmp625:
	.loc	28 991 13
	leaq	__ZN42_$LT$$RF$T$u20$as$u20$core..fmt..Debug$GT$3fmt17h0890c7e79da22c7eE(%rip), %rcx
	movq	%rcx, -24(%rbp)
	movq	%rdi, -16(%rbp)
	movq	%rcx, -8(%rbp)
Ltmp626:
	.loc	4 328 9
	leaq	l___unnamed_87(%rip), %rcx
Ltmp627:
	movq	%rcx, -80(%rbp)
	movq	$3, -72(%rbp)
	movq	$0, -64(%rbp)
	leaq	-32(%rbp), %rcx
Ltmp628:
	movq	%rcx, -48(%rbp)
	movq	$2, -40(%rbp)
	leaq	-80(%rbp), %rsi
Ltmp629:
	.loc	28 991 13
	movq	%rax, %rdi
Ltmp630:
	callq	__ZN4core3fmt9Formatter9write_fmt17h742ca6aae87ad23cE
Ltmp631:
	.loc	28 996 10
	addq	$80, %rsp
	popq	%rbp
	retq
Ltmp632:
Lfunc_end84:
	.cfi_endproc

	.globl	__ZN5serde7private2de7content19UntaggedUnitVisitor3new17h89c04cc226b45a43E
	.p2align	4, 0x90
__ZN5serde7private2de7content19UntaggedUnitVisitor3new17h89c04cc226b45a43E:
Lfunc_begin85:
	.loc	28 2492 0
	.cfi_startproc
	pushq	%rbp
	.cfi_def_cfa_offset 16
	.cfi_offset %rbp, -16
	movq	%rsp, %rbp
	.cfi_def_cfa_register %rbp
	movq	%rdi, %rax
Ltmp633:
	.loc	28 2493 13 prologue_end
	movq	%rsi, (%rdi)
	movq	%rdx, 8(%rdi)
	movq	%rcx, 16(%rdi)
	movq	%r8, 24(%rdi)
	.loc	28 2497 10
	popq	%rbp
	retq
Ltmp634:
Lfunc_end85:
	.cfi_endproc

	.globl	__ZN87_$LT$serde..private..de..content..UntaggedUnitVisitor$u20$as$u20$serde..de..Visitor$GT$9expecting17h93cf0e77e4982af0E
	.p2align	4, 0x90
__ZN87_$LT$serde..private..de..content..UntaggedUnitVisitor$u20$as$u20$serde..de..Visitor$GT$9expecting17h93cf0e77e4982af0E:
Lfunc_begin86:
	.loc	28 2503 0
	.cfi_startproc
	pushq	%rbp
	.cfi_def_cfa_offset 16
	.cfi_offset %rbp, -16
	movq	%rsp, %rbp
	.cfi_def_cfa_register %rbp
	subq	$80, %rsp
	movq	%rsi, %rax
Ltmp635:
	.loc	28 2504 13 prologue_end
	movq	%rdi, -32(%rbp)
Ltmp636:
	.loc	28 2507 33
	addq	$16, %rdi
Ltmp637:
	.loc	28 2504 13
	leaq	__ZN44_$LT$$RF$T$u20$as$u20$core..fmt..Display$GT$3fmt17h650a29a2750ba384E(%rip), %rcx
	movq	%rcx, -24(%rbp)
	movq	%rdi, -16(%rbp)
	movq	%rcx, -8(%rbp)
Ltmp638:
	.loc	4 328 9
	leaq	l___unnamed_88(%rip), %rcx
Ltmp639:
	movq	%rcx, -80(%rbp)
	movq	$2, -72(%rbp)
	movq	$0, -64(%rbp)
	leaq	-32(%rbp), %rcx
Ltmp640:
	movq	%rcx, -48(%rbp)
	movq	$2, -40(%rbp)
	leaq	-80(%rbp), %rsi
Ltmp641:
	.loc	28 2504 13
	movq	%rax, %rdi
Ltmp642:
	callq	__ZN4core3fmt9Formatter9write_fmt17h742ca6aae87ad23cE
Ltmp643:
	.loc	28 2509 10
	addq	$80, %rsp
	popq	%rbp
	retq
Ltmp644:
Lfunc_end86:
	.cfi_endproc

	.globl	__ZN71_$LT$serde..private..ser..Unsupported$u20$as$u20$core..fmt..Display$GT$3fmt17hf48db676ade1cd55E
	.p2align	4, 0x90
__ZN71_$LT$serde..private..ser..Unsupported$u20$as$u20$core..fmt..Display$GT$3fmt17hf48db676ade1cd55E:
Lfunc_begin87:
	.file	29 "/Users/yingyuhang/.cargo/registry/src/github.com-1ecc6299db9ec823/serde-1.0.114/src/private/ser.rs"
	.loc	29 64 0
	.cfi_startproc
	pushq	%rbp
	.cfi_def_cfa_offset 16
	.cfi_offset %rbp, -16
	movq	%rsp, %rbp
	.cfi_def_cfa_register %rbp
	movq	%rsi, %rax
Ltmp645:
	.loc	29 66 13 prologue_end
	movzbl	(%rdi), %ecx
	leaq	LJTI87_0(%rip), %rdx
	movslq	(%rdx,%rcx,4), %rcx
	addq	%rdx, %rcx
	jmpq	*%rcx
Ltmp646:
LBB87_4:
	.loc	29 66 37 is_stmt 0
	leaq	l___unnamed_40(%rip), %rsi
	movl	$9, %edx
	.loc	29 0 0
	movq	%rax, %rdi
Ltmp647:
	popq	%rbp
	jmp	__ZN4core3fmt9Formatter9write_str17h98e119ad25a8903eE
Ltmp648:
LBB87_5:
	.loc	29 67 37 is_stmt 1
	leaq	l___unnamed_89(%rip), %rsi
	.loc	29 0 0 is_stmt 0
	movl	$10, %edx
	movq	%rax, %rdi
Ltmp649:
	popq	%rbp
	jmp	__ZN4core3fmt9Formatter9write_str17h98e119ad25a8903eE
Ltmp650:
LBB87_7:
	.loc	29 68 35 is_stmt 1
	leaq	l___unnamed_90(%rip), %rsi
	.loc	29 0 0 is_stmt 0
	movl	$7, %edx
	movq	%rax, %rdi
Ltmp651:
	popq	%rbp
	jmp	__ZN4core3fmt9Formatter9write_str17h98e119ad25a8903eE
Ltmp652:
LBB87_8:
	.loc	29 69 34 is_stmt 1
	leaq	l___unnamed_91(%rip), %rsi
	movl	$6, %edx
	.loc	29 0 0 is_stmt 0
	movq	%rax, %rdi
Ltmp653:
	popq	%rbp
	jmp	__ZN4core3fmt9Formatter9write_str17h98e119ad25a8903eE
Ltmp654:
LBB87_9:
	.loc	29 70 36 is_stmt 1
	leaq	L___unnamed_42(%rip), %rsi
	movl	$8, %edx
	.loc	29 0 0 is_stmt 0
	movq	%rax, %rdi
Ltmp655:
	popq	%rbp
	jmp	__ZN4core3fmt9Formatter9write_str17h98e119ad25a8903eE
Ltmp656:
LBB87_10:
	.loc	29 71 39 is_stmt 1
	leaq	l___unnamed_83(%rip), %rsi
	movl	$12, %edx
	.loc	29 0 0 is_stmt 0
	movq	%rax, %rdi
Ltmp657:
	popq	%rbp
	jmp	__ZN4core3fmt9Formatter9write_str17h98e119ad25a8903eE
Ltmp658:
LBB87_11:
	.loc	29 72 38 is_stmt 1
	leaq	l___unnamed_92(%rip), %rsi
	.loc	29 0 0 is_stmt 0
	movl	$11, %edx
	movq	%rax, %rdi
Ltmp659:
	popq	%rbp
	jmp	__ZN4core3fmt9Formatter9write_str17h98e119ad25a8903eE
Ltmp660:
LBB87_13:
	.loc	29 73 34 is_stmt 1
	leaq	L___unnamed_39(%rip), %rsi
	movl	$4, %edx
	.loc	29 0 0 is_stmt 0
	movq	%rax, %rdi
Ltmp661:
	popq	%rbp
	jmp	__ZN4core3fmt9Formatter9write_str17h98e119ad25a8903eE
Ltmp662:
LBB87_14:
	.loc	29 75 40 is_stmt 1
	leaq	l___unnamed_93(%rip), %rsi
	.loc	29 0 0 is_stmt 0
	movl	$11, %edx
	movq	%rax, %rdi
Ltmp663:
	popq	%rbp
	jmp	__ZN4core3fmt9Formatter9write_str17h98e119ad25a8903eE
Ltmp664:
LBB87_15:
	.loc	29 76 38 is_stmt 1
	leaq	l___unnamed_94(%rip), %rsi
	.loc	29 0 0 is_stmt 0
	movl	$10, %edx
	movq	%rax, %rdi
Ltmp665:
	popq	%rbp
	jmp	__ZN4core3fmt9Formatter9write_str17h98e119ad25a8903eE
Ltmp666:
LBB87_16:
	.loc	29 77 35 is_stmt 1
	leaq	l___unnamed_95(%rip), %rsi
	.loc	29 0 0 is_stmt 0
	movl	$7, %edx
	movq	%rax, %rdi
Ltmp667:
	popq	%rbp
	jmp	__ZN4core3fmt9Formatter9write_str17h98e119ad25a8903eE
Ltmp668:
LBB87_17:
	.loc	29 78 41 is_stmt 1
	leaq	l___unnamed_96(%rip), %rsi
	movl	$14, %edx
	.loc	29 0 0 is_stmt 0
	movq	%rax, %rdi
Ltmp669:
	popq	%rbp
	jmp	__ZN4core3fmt9Formatter9write_str17h98e119ad25a8903eE
Ltmp670:
LBB87_1:
	.loc	29 79 34 is_stmt 1
	leaq	l___unnamed_97(%rip), %rsi
	.loc	29 0 0 is_stmt 0
	movl	$7, %edx
	movq	%rax, %rdi
Ltmp671:
	popq	%rbp
	jmp	__ZN4core3fmt9Formatter9write_str17h98e119ad25a8903eE
Ltmp672:
Lfunc_end87:
	.cfi_endproc
	.p2align	2, 0x90
	.data_region jt32
.set L87_0_set_4, LBB87_4-LJTI87_0
.set L87_0_set_5, LBB87_5-LJTI87_0
.set L87_0_set_7, LBB87_7-LJTI87_0
.set L87_0_set_8, LBB87_8-LJTI87_0
.set L87_0_set_9, LBB87_9-LJTI87_0
.set L87_0_set_10, LBB87_10-LJTI87_0
.set L87_0_set_11, LBB87_11-LJTI87_0
.set L87_0_set_13, LBB87_13-LJTI87_0
.set L87_0_set_14, LBB87_14-LJTI87_0
.set L87_0_set_15, LBB87_15-LJTI87_0
.set L87_0_set_16, LBB87_16-LJTI87_0
.set L87_0_set_17, LBB87_17-LJTI87_0
.set L87_0_set_1, LBB87_1-LJTI87_0
LJTI87_0:
	.long	L87_0_set_4
	.long	L87_0_set_5
	.long	L87_0_set_7
	.long	L87_0_set_8
	.long	L87_0_set_9
	.long	L87_0_set_10
	.long	L87_0_set_11
	.long	L87_0_set_13
	.long	L87_0_set_14
	.long	L87_0_set_15
	.long	L87_0_set_16
	.long	L87_0_set_17
	.long	L87_0_set_1
	.end_data_region

	.globl	__ZN64_$LT$serde..private..ser..Error$u20$as$u20$std..error..Error$GT$11description17h82c658c689a0a68fE
	.p2align	4, 0x90
__ZN64_$LT$serde..private..ser..Error$u20$as$u20$std..error..Error$GT$11description17h82c658c689a0a68fE:
Lfunc_begin88:
	.loc	29 354 0 is_stmt 1
	.cfi_startproc
	pushq	%rbp
	.cfi_def_cfa_offset 16
	.cfi_offset %rbp, -16
	movq	%rsp, %rbp
	.cfi_def_cfa_register %rbp
Ltmp673:
	.loc	29 355 9 prologue_end
	leaq	l___unnamed_98(%rip), %rdi
Ltmp674:
	leaq	l___unnamed_99(%rip), %rdx
	movl	$15, %esi
	callq	__ZN3std9panicking11begin_panic17hc5eb7c927fa097f5E
Ltmp675:
Lfunc_end88:
	.cfi_endproc

	.globl	__ZN65_$LT$serde..private..ser..Error$u20$as$u20$core..fmt..Display$GT$3fmt17hea88cbe30d716b98E
	.p2align	4, 0x90
__ZN65_$LT$serde..private..ser..Error$u20$as$u20$core..fmt..Display$GT$3fmt17hea88cbe30d716b98E:
Lfunc_begin89:
	.loc	29 360 0
	.cfi_startproc
	pushq	%rbp
	.cfi_def_cfa_offset 16
	.cfi_offset %rbp, -16
	movq	%rsp, %rbp
	.cfi_def_cfa_register %rbp
Ltmp676:
	.loc	29 361 9 prologue_end
	leaq	l___unnamed_98(%rip), %rdi
Ltmp677:
	leaq	l___unnamed_100(%rip), %rdx
	movl	$15, %esi
Ltmp678:
	callq	__ZN3std9panicking11begin_panic17hc5eb7c927fa097f5E
Ltmp679:
Lfunc_end89:
	.cfi_endproc

	.globl	__ZN60_$LT$serde..de..value..Error$u20$as$u20$core..fmt..Debug$GT$3fmt17h5c395f6dcd516429E
	.p2align	4, 0x90
__ZN60_$LT$serde..de..value..Error$u20$as$u20$core..fmt..Debug$GT$3fmt17h5c395f6dcd516429E:
Lfunc_begin90:
	.loc	20 51 0
	.cfi_startproc
	pushq	%rbp
	.cfi_def_cfa_offset 16
	.cfi_offset %rbp, -16
	movq	%rsp, %rbp
	.cfi_def_cfa_register %rbp
	pushq	%r14
	pushq	%rbx
	subq	$32, %rsp
	.cfi_offset %rbx, -32
	.cfi_offset %r14, -24
	movq	%rdi, %rbx
Ltmp680:
	.loc	20 51 17 prologue_end
	leaq	l___unnamed_101(%rip), %rdx
	leaq	-40(%rbp), %r14
	movl	$5, %ecx
	movq	%r14, %rdi
	callq	__ZN4core3fmt9Formatter12debug_struct17ha1a64e91d2a98458E
Ltmp681:
	.loc	20 53 5
	movq	%rbx, -24(%rbp)
	.loc	20 51 17
	leaq	l___unnamed_102(%rip), %rsi
	leaq	l___unnamed_11(%rip), %r8
	leaq	-24(%rbp), %rcx
	movl	$3, %edx
	movq	%r14, %rdi
	callq	__ZN4core3fmt8builders11DebugStruct5field17h6c54d35ac41bb1e6E
	movq	%r14, %rdi
	callq	__ZN4core3fmt8builders11DebugStruct6finish17h67ed49fd5e81bb24E
Ltmp682:
	.loc	20 51 22 is_stmt 0
	addq	$32, %rsp
	popq	%rbx
Ltmp683:
	popq	%r14
	popq	%rbp
	retq
Ltmp684:
Lfunc_end90:
	.cfi_endproc

	.globl	__ZN71_$LT$serde..de..ignored_any..IgnoredAny$u20$as$u20$core..fmt..Debug$GT$3fmt17h7a28c486cb83565fE
	.p2align	4, 0x90
__ZN71_$LT$serde..de..ignored_any..IgnoredAny$u20$as$u20$core..fmt..Debug$GT$3fmt17h7a28c486cb83565fE:
Lfunc_begin91:
	.loc	21 111 0 is_stmt 1
	.cfi_startproc
	pushq	%rbp
	.cfi_def_cfa_offset 16
	.cfi_offset %rbp, -16
	movq	%rsp, %rbp
	.cfi_def_cfa_register %rbp
Ltmp685:
	pushq	%rbx
	subq	$24, %rsp
	.cfi_offset %rbx, -24
	.loc	21 111 23 prologue_end
	leaq	l___unnamed_103(%rip), %rdx
	leaq	-32(%rbp), %rbx
	movl	$10, %ecx
	movq	%rbx, %rdi
Ltmp686:
	callq	__ZN4core3fmt9Formatter11debug_tuple17h6c448643801d07e8E
Ltmp687:
	.loc	21 111 23 is_stmt 0
	movq	%rbx, %rdi
	callq	__ZN4core3fmt8builders10DebugTuple6finish17h9f206806f7096c33E
Ltmp688:
	.loc	21 111 28
	addq	$24, %rsp
	popq	%rbx
	popq	%rbp
	retq
Ltmp689:
Lfunc_end91:
	.cfi_endproc

	.globl	__ZN142_$LT$serde..de..impls..$LT$impl$u20$serde..de..Deserialize$u20$for$u20$i8$GT$..deserialize..PrimitiveVisitor$u20$as$u20$serde..de..Visitor$GT$9expecting17h8231873598eba71fE
	.p2align	4, 0x90
__ZN142_$LT$serde..de..impls..$LT$impl$u20$serde..de..Deserialize$u20$for$u20$i8$GT$..deserialize..PrimitiveVisitor$u20$as$u20$serde..de..Visitor$GT$9expecting17h8231873598eba71fE:
Lfunc_begin92:
	.loc	1 127 0 is_stmt 1
	.cfi_startproc
	pushq	%rbp
	.cfi_def_cfa_offset 16
	.cfi_offset %rbp, -16
	movq	%rsp, %rbp
	.cfi_def_cfa_register %rbp
	movq	%rsi, %rdi
Ltmp690:
	.loc	1 128 25 prologue_end
	leaq	l___unnamed_104(%rip), %rsi
	movl	$2, %edx
	popq	%rbp
	jmp	__ZN4core3fmt9Formatter9write_str17h98e119ad25a8903eE
Ltmp691:
Lfunc_end92:
	.cfi_endproc

	.globl	__ZN143_$LT$serde..de..impls..$LT$impl$u20$serde..de..Deserialize$u20$for$u20$i16$GT$..deserialize..PrimitiveVisitor$u20$as$u20$serde..de..Visitor$GT$9expecting17hcdb728d6b4231100E
	.p2align	4, 0x90
__ZN143_$LT$serde..de..impls..$LT$impl$u20$serde..de..Deserialize$u20$for$u20$i16$GT$..deserialize..PrimitiveVisitor$u20$as$u20$serde..de..Visitor$GT$9expecting17hcdb728d6b4231100E:
Lfunc_begin93:
	.loc	1 127 0
	.cfi_startproc
	pushq	%rbp
	.cfi_def_cfa_offset 16
	.cfi_offset %rbp, -16
	movq	%rsp, %rbp
	.cfi_def_cfa_register %rbp
	movq	%rsi, %rdi
Ltmp692:
	.loc	1 128 25 prologue_end
	leaq	l___unnamed_105(%rip), %rsi
	movl	$3, %edx
	popq	%rbp
	jmp	__ZN4core3fmt9Formatter9write_str17h98e119ad25a8903eE
Ltmp693:
Lfunc_end93:
	.cfi_endproc

	.globl	__ZN143_$LT$serde..de..impls..$LT$impl$u20$serde..de..Deserialize$u20$for$u20$i32$GT$..deserialize..PrimitiveVisitor$u20$as$u20$serde..de..Visitor$GT$9expecting17haeb87e274ae8fe76E
	.p2align	4, 0x90
__ZN143_$LT$serde..de..impls..$LT$impl$u20$serde..de..Deserialize$u20$for$u20$i32$GT$..deserialize..PrimitiveVisitor$u20$as$u20$serde..de..Visitor$GT$9expecting17haeb87e274ae8fe76E:
Lfunc_begin94:
	.loc	1 127 0
	.cfi_startproc
	pushq	%rbp
	.cfi_def_cfa_offset 16
	.cfi_offset %rbp, -16
	movq	%rsp, %rbp
	.cfi_def_cfa_register %rbp
	movq	%rsi, %rdi
Ltmp694:
	.loc	1 128 25 prologue_end
	leaq	l___unnamed_106(%rip), %rsi
	movl	$3, %edx
	popq	%rbp
	jmp	__ZN4core3fmt9Formatter9write_str17h98e119ad25a8903eE
Ltmp695:
Lfunc_end94:
	.cfi_endproc

	.globl	__ZN143_$LT$serde..de..impls..$LT$impl$u20$serde..de..Deserialize$u20$for$u20$i64$GT$..deserialize..PrimitiveVisitor$u20$as$u20$serde..de..Visitor$GT$9expecting17h504c7c08e3c39802E
	.p2align	4, 0x90
__ZN143_$LT$serde..de..impls..$LT$impl$u20$serde..de..Deserialize$u20$for$u20$i64$GT$..deserialize..PrimitiveVisitor$u20$as$u20$serde..de..Visitor$GT$9expecting17h504c7c08e3c39802E:
Lfunc_begin95:
	.loc	1 127 0
	.cfi_startproc
	pushq	%rbp
	.cfi_def_cfa_offset 16
	.cfi_offset %rbp, -16
	movq	%rsp, %rbp
	.cfi_def_cfa_register %rbp
	movq	%rsi, %rdi
Ltmp696:
	.loc	1 128 25 prologue_end
	leaq	l___unnamed_107(%rip), %rsi
	movl	$3, %edx
	popq	%rbp
	jmp	__ZN4core3fmt9Formatter9write_str17h98e119ad25a8903eE
Ltmp697:
Lfunc_end95:
	.cfi_endproc

	.globl	__ZN145_$LT$serde..de..impls..$LT$impl$u20$serde..de..Deserialize$u20$for$u20$isize$GT$..deserialize..PrimitiveVisitor$u20$as$u20$serde..de..Visitor$GT$9expecting17h1e59350ef3d7e603E
	.p2align	4, 0x90
__ZN145_$LT$serde..de..impls..$LT$impl$u20$serde..de..Deserialize$u20$for$u20$isize$GT$..deserialize..PrimitiveVisitor$u20$as$u20$serde..de..Visitor$GT$9expecting17h1e59350ef3d7e603E:
Lfunc_begin96:
	.loc	1 127 0
	.cfi_startproc
	pushq	%rbp
	.cfi_def_cfa_offset 16
	.cfi_offset %rbp, -16
	movq	%rsp, %rbp
	.cfi_def_cfa_register %rbp
	movq	%rsi, %rdi
Ltmp698:
	.loc	1 128 25 prologue_end
	leaq	l___unnamed_108(%rip), %rsi
	movl	$5, %edx
	popq	%rbp
	jmp	__ZN4core3fmt9Formatter9write_str17h98e119ad25a8903eE
Ltmp699:
Lfunc_end96:
	.cfi_endproc

	.globl	__ZN142_$LT$serde..de..impls..$LT$impl$u20$serde..de..Deserialize$u20$for$u20$u8$GT$..deserialize..PrimitiveVisitor$u20$as$u20$serde..de..Visitor$GT$9expecting17h8b55a8825823b642E
	.p2align	4, 0x90
__ZN142_$LT$serde..de..impls..$LT$impl$u20$serde..de..Deserialize$u20$for$u20$u8$GT$..deserialize..PrimitiveVisitor$u20$as$u20$serde..de..Visitor$GT$9expecting17h8b55a8825823b642E:
Lfunc_begin97:
	.loc	1 127 0
	.cfi_startproc
	pushq	%rbp
	.cfi_def_cfa_offset 16
	.cfi_offset %rbp, -16
	movq	%rsp, %rbp
	.cfi_def_cfa_register %rbp
	movq	%rsi, %rdi
Ltmp700:
	.loc	1 128 25 prologue_end
	leaq	l___unnamed_109(%rip), %rsi
	movl	$2, %edx
	popq	%rbp
	jmp	__ZN4core3fmt9Formatter9write_str17h98e119ad25a8903eE
Ltmp701:
Lfunc_end97:
	.cfi_endproc

	.globl	__ZN143_$LT$serde..de..impls..$LT$impl$u20$serde..de..Deserialize$u20$for$u20$u16$GT$..deserialize..PrimitiveVisitor$u20$as$u20$serde..de..Visitor$GT$9expecting17hcb55225e5d0181d3E
	.p2align	4, 0x90
__ZN143_$LT$serde..de..impls..$LT$impl$u20$serde..de..Deserialize$u20$for$u20$u16$GT$..deserialize..PrimitiveVisitor$u20$as$u20$serde..de..Visitor$GT$9expecting17hcb55225e5d0181d3E:
Lfunc_begin98:
	.loc	1 127 0
	.cfi_startproc
	pushq	%rbp
	.cfi_def_cfa_offset 16
	.cfi_offset %rbp, -16
	movq	%rsp, %rbp
	.cfi_def_cfa_register %rbp
	movq	%rsi, %rdi
Ltmp702:
	.loc	1 128 25 prologue_end
	leaq	l___unnamed_110(%rip), %rsi
	movl	$3, %edx
	popq	%rbp
	jmp	__ZN4core3fmt9Formatter9write_str17h98e119ad25a8903eE
Ltmp703:
Lfunc_end98:
	.cfi_endproc

	.globl	__ZN143_$LT$serde..de..impls..$LT$impl$u20$serde..de..Deserialize$u20$for$u20$u32$GT$..deserialize..PrimitiveVisitor$u20$as$u20$serde..de..Visitor$GT$9expecting17h484e4836a96e51a1E
	.p2align	4, 0x90
__ZN143_$LT$serde..de..impls..$LT$impl$u20$serde..de..Deserialize$u20$for$u20$u32$GT$..deserialize..PrimitiveVisitor$u20$as$u20$serde..de..Visitor$GT$9expecting17h484e4836a96e51a1E:
Lfunc_begin99:
	.loc	1 127 0
	.cfi_startproc
	pushq	%rbp
	.cfi_def_cfa_offset 16
	.cfi_offset %rbp, -16
	movq	%rsp, %rbp
	.cfi_def_cfa_register %rbp
	movq	%rsi, %rdi
Ltmp704:
	.loc	1 128 25 prologue_end
	leaq	l___unnamed_111(%rip), %rsi
	movl	$3, %edx
	popq	%rbp
	jmp	__ZN4core3fmt9Formatter9write_str17h98e119ad25a8903eE
Ltmp705:
Lfunc_end99:
	.cfi_endproc

	.globl	__ZN143_$LT$serde..de..impls..$LT$impl$u20$serde..de..Deserialize$u20$for$u20$u64$GT$..deserialize..PrimitiveVisitor$u20$as$u20$serde..de..Visitor$GT$9expecting17hf597c99a68a2ad09E
	.p2align	4, 0x90
__ZN143_$LT$serde..de..impls..$LT$impl$u20$serde..de..Deserialize$u20$for$u20$u64$GT$..deserialize..PrimitiveVisitor$u20$as$u20$serde..de..Visitor$GT$9expecting17hf597c99a68a2ad09E:
Lfunc_begin100:
	.loc	1 127 0
	.cfi_startproc
	pushq	%rbp
	.cfi_def_cfa_offset 16
	.cfi_offset %rbp, -16
	movq	%rsp, %rbp
	.cfi_def_cfa_register %rbp
	movq	%rsi, %rdi
Ltmp706:
	.loc	1 128 25 prologue_end
	leaq	l___unnamed_112(%rip), %rsi
	movl	$3, %edx
	popq	%rbp
	jmp	__ZN4core3fmt9Formatter9write_str17h98e119ad25a8903eE
Ltmp707:
Lfunc_end100:
	.cfi_endproc

	.globl	__ZN145_$LT$serde..de..impls..$LT$impl$u20$serde..de..Deserialize$u20$for$u20$usize$GT$..deserialize..PrimitiveVisitor$u20$as$u20$serde..de..Visitor$GT$9expecting17h85ce36f04eac8cc5E
	.p2align	4, 0x90
__ZN145_$LT$serde..de..impls..$LT$impl$u20$serde..de..Deserialize$u20$for$u20$usize$GT$..deserialize..PrimitiveVisitor$u20$as$u20$serde..de..Visitor$GT$9expecting17h85ce36f04eac8cc5E:
Lfunc_begin101:
	.loc	1 127 0
	.cfi_startproc
	pushq	%rbp
	.cfi_def_cfa_offset 16
	.cfi_offset %rbp, -16
	movq	%rsp, %rbp
	.cfi_def_cfa_register %rbp
	movq	%rsi, %rdi
Ltmp708:
	.loc	1 128 25 prologue_end
	leaq	l___unnamed_113(%rip), %rsi
	movl	$5, %edx
	popq	%rbp
	jmp	__ZN4core3fmt9Formatter9write_str17h98e119ad25a8903eE
Ltmp709:
Lfunc_end101:
	.cfi_endproc

	.globl	__ZN143_$LT$serde..de..impls..$LT$impl$u20$serde..de..Deserialize$u20$for$u20$f32$GT$..deserialize..PrimitiveVisitor$u20$as$u20$serde..de..Visitor$GT$9expecting17h6db6d0608e8f25bbE
	.p2align	4, 0x90
__ZN143_$LT$serde..de..impls..$LT$impl$u20$serde..de..Deserialize$u20$for$u20$f32$GT$..deserialize..PrimitiveVisitor$u20$as$u20$serde..de..Visitor$GT$9expecting17h6db6d0608e8f25bbE:
Lfunc_begin102:
	.loc	1 127 0
	.cfi_startproc
	pushq	%rbp
	.cfi_def_cfa_offset 16
	.cfi_offset %rbp, -16
	movq	%rsp, %rbp
	.cfi_def_cfa_register %rbp
	movq	%rsi, %rdi
Ltmp710:
	.loc	1 128 25 prologue_end
	leaq	l___unnamed_114(%rip), %rsi
	movl	$3, %edx
	popq	%rbp
	jmp	__ZN4core3fmt9Formatter9write_str17h98e119ad25a8903eE
Ltmp711:
Lfunc_end102:
	.cfi_endproc

	.globl	__ZN143_$LT$serde..de..impls..$LT$impl$u20$serde..de..Deserialize$u20$for$u20$f64$GT$..deserialize..PrimitiveVisitor$u20$as$u20$serde..de..Visitor$GT$9expecting17h5ec7b18c4ceb79faE
	.p2align	4, 0x90
__ZN143_$LT$serde..de..impls..$LT$impl$u20$serde..de..Deserialize$u20$for$u20$f64$GT$..deserialize..PrimitiveVisitor$u20$as$u20$serde..de..Visitor$GT$9expecting17h5ec7b18c4ceb79faE:
Lfunc_begin103:
	.loc	1 127 0
	.cfi_startproc
	pushq	%rbp
	.cfi_def_cfa_offset 16
	.cfi_offset %rbp, -16
	movq	%rsp, %rbp
	.cfi_def_cfa_register %rbp
	movq	%rsi, %rdi
Ltmp712:
	.loc	1 128 25 prologue_end
	leaq	l___unnamed_115(%rip), %rsi
	movl	$3, %edx
	popq	%rbp
	jmp	__ZN4core3fmt9Formatter9write_str17h98e119ad25a8903eE
Ltmp713:
Lfunc_end103:
	.cfi_endproc

	.globl	__ZN144_$LT$serde..de..impls..$LT$impl$u20$serde..de..Deserialize$u20$for$u20$i128$GT$..deserialize..PrimitiveVisitor$u20$as$u20$serde..de..Visitor$GT$9expecting17ha7c721c1c6558434E
	.p2align	4, 0x90
__ZN144_$LT$serde..de..impls..$LT$impl$u20$serde..de..Deserialize$u20$for$u20$i128$GT$..deserialize..PrimitiveVisitor$u20$as$u20$serde..de..Visitor$GT$9expecting17ha7c721c1c6558434E:
Lfunc_begin104:
	.loc	1 186 0
	.cfi_startproc
	pushq	%rbp
	.cfi_def_cfa_offset 16
	.cfi_offset %rbp, -16
	movq	%rsp, %rbp
	.cfi_def_cfa_register %rbp
	movq	%rsi, %rdi
Ltmp714:
	.loc	1 187 21 prologue_end
	leaq	L___unnamed_116(%rip), %rsi
	movl	$4, %edx
	popq	%rbp
	jmp	__ZN4core3fmt9Formatter9write_str17h98e119ad25a8903eE
Ltmp715:
Lfunc_end104:
	.cfi_endproc

	.globl	__ZN144_$LT$serde..de..impls..$LT$impl$u20$serde..de..Deserialize$u20$for$u20$u128$GT$..deserialize..PrimitiveVisitor$u20$as$u20$serde..de..Visitor$GT$9expecting17h73ff1b7b48732f28E
	.p2align	4, 0x90
__ZN144_$LT$serde..de..impls..$LT$impl$u20$serde..de..Deserialize$u20$for$u20$u128$GT$..deserialize..PrimitiveVisitor$u20$as$u20$serde..de..Visitor$GT$9expecting17h73ff1b7b48732f28E:
Lfunc_begin105:
	.loc	1 228 0
	.cfi_startproc
	pushq	%rbp
	.cfi_def_cfa_offset 16
	.cfi_offset %rbp, -16
	movq	%rsp, %rbp
	.cfi_def_cfa_register %rbp
	movq	%rsi, %rdi
Ltmp716:
	.loc	1 229 21 prologue_end
	leaq	L___unnamed_117(%rip), %rsi
	movl	$4, %edx
	popq	%rbp
	jmp	__ZN4core3fmt9Formatter9write_str17h98e119ad25a8903eE
Ltmp717:
Lfunc_end105:
	.cfi_endproc

	.globl	__ZN155_$LT$serde..de..impls..$LT$impl$u20$serde..de..Deserialize$u20$for$u20$std..net..ip..IpAddr$GT$..deserialize..EnumVisitor$u20$as$u20$serde..de..Visitor$GT$9expecting17h069af052e690ab45E
	.p2align	4, 0x90
__ZN155_$LT$serde..de..impls..$LT$impl$u20$serde..de..Deserialize$u20$for$u20$std..net..ip..IpAddr$GT$..deserialize..EnumVisitor$u20$as$u20$serde..de..Visitor$GT$9expecting17h069af052e690ab45E:
Lfunc_begin106:
	.loc	1 1381 0
	.cfi_startproc
	pushq	%rbp
	.cfi_def_cfa_offset 16
	.cfi_offset %rbp, -16
	movq	%rsp, %rbp
	.cfi_def_cfa_register %rbp
	movq	%rsi, %rdi
Ltmp718:
	.loc	1 1382 17 prologue_end
	leaq	L___unnamed_118(%rip), %rsi
	movl	$8, %edx
	popq	%rbp
	jmp	__ZN4core3fmt9Formatter9write_str17h98e119ad25a8903eE
Ltmp719:
Lfunc_end106:
	.cfi_endproc

	.globl	__ZN222_$LT$$LT$serde..de..impls..$LT$impl$u20$serde..de..Deserialize$u20$for$u20$std..net..ip..IpAddr$GT$..deserialize..IpAddrKind$u20$as$u20$serde..de..Deserialize$GT$..deserialize..KindVisitor$u20$as$u20$serde..de..Visitor$GT$9expecting17h0d8977b6b260d94eE
	.p2align	4, 0x90
__ZN222_$LT$$LT$serde..de..impls..$LT$impl$u20$serde..de..Deserialize$u20$for$u20$std..net..ip..IpAddr$GT$..deserialize..IpAddrKind$u20$as$u20$serde..de..Deserialize$GT$..deserialize..KindVisitor$u20$as$u20$serde..de..Visitor$GT$9expecting17h0d8977b6b260d94eE:
Lfunc_begin107:
	.loc	1 1312 0
	.cfi_startproc
	pushq	%rbp
	.cfi_def_cfa_offset 16
	.cfi_offset %rbp, -16
	movq	%rsp, %rbp
	.cfi_def_cfa_register %rbp
	movq	%rsi, %rdi
Ltmp720:
	.loc	1 1313 25 prologue_end
	leaq	l___unnamed_119(%rip), %rsi
	movl	$12, %edx
	popq	%rbp
	jmp	__ZN4core3fmt9Formatter9write_str17h98e119ad25a8903eE
Ltmp721:
Lfunc_end107:
	.cfi_endproc

	.globl	__ZN159_$LT$serde..de..impls..$LT$impl$u20$serde..de..Deserialize$u20$for$u20$std..net..ip..Ipv4Addr$GT$..deserialize..IpAddrVisitor$u20$as$u20$serde..de..Visitor$GT$9expecting17h8d6b569b0b955bb2E
	.p2align	4, 0x90
__ZN159_$LT$serde..de..impls..$LT$impl$u20$serde..de..Deserialize$u20$for$u20$std..net..ip..Ipv4Addr$GT$..deserialize..IpAddrVisitor$u20$as$u20$serde..de..Visitor$GT$9expecting17h8d6b569b0b955bb2E:
Lfunc_begin108:
	.loc	1 1268 0
	.cfi_startproc
	pushq	%rbp
	.cfi_def_cfa_offset 16
	.cfi_offset %rbp, -16
	movq	%rsp, %rbp
	.cfi_def_cfa_register %rbp
	movq	%rsi, %rdi
Ltmp722:
	.loc	1 1269 29 prologue_end
	leaq	l___unnamed_120(%rip), %rsi
	movl	$12, %edx
	popq	%rbp
	jmp	__ZN4core3fmt9Formatter9write_str17h98e119ad25a8903eE
Ltmp723:
Lfunc_end108:
	.cfi_endproc

	.globl	__ZN159_$LT$serde..de..impls..$LT$impl$u20$serde..de..Deserialize$u20$for$u20$std..net..ip..Ipv6Addr$GT$..deserialize..IpAddrVisitor$u20$as$u20$serde..de..Visitor$GT$9expecting17hf438b3b0f3e820c0E
	.p2align	4, 0x90
__ZN159_$LT$serde..de..impls..$LT$impl$u20$serde..de..Deserialize$u20$for$u20$std..net..ip..Ipv6Addr$GT$..deserialize..IpAddrVisitor$u20$as$u20$serde..de..Visitor$GT$9expecting17hf438b3b0f3e820c0E:
Lfunc_begin109:
	.loc	1 1268 0
	.cfi_startproc
	pushq	%rbp
	.cfi_def_cfa_offset 16
	.cfi_offset %rbp, -16
	movq	%rsp, %rbp
	.cfi_def_cfa_register %rbp
	movq	%rsi, %rdi
Ltmp724:
	.loc	1 1269 29 prologue_end
	leaq	l___unnamed_121(%rip), %rsi
	movl	$12, %edx
	popq	%rbp
	jmp	__ZN4core3fmt9Formatter9write_str17h98e119ad25a8903eE
Ltmp725:
Lfunc_end109:
	.cfi_endproc

	.globl	__ZN161_$LT$serde..de..impls..$LT$impl$u20$serde..de..Deserialize$u20$for$u20$std..net..addr..SocketAddr$GT$..deserialize..EnumVisitor$u20$as$u20$serde..de..Visitor$GT$9expecting17hbd11e9a0b8f352f1E
	.p2align	4, 0x90
__ZN161_$LT$serde..de..impls..$LT$impl$u20$serde..de..Deserialize$u20$for$u20$std..net..addr..SocketAddr$GT$..deserialize..EnumVisitor$u20$as$u20$serde..de..Visitor$GT$9expecting17hbd11e9a0b8f352f1E:
Lfunc_begin110:
	.loc	1 1381 0
	.cfi_startproc
	pushq	%rbp
	.cfi_def_cfa_offset 16
	.cfi_offset %rbp, -16
	movq	%rsp, %rbp
	.cfi_def_cfa_register %rbp
	movq	%rsi, %rdi
Ltmp726:
	.loc	1 1382 17 prologue_end
	leaq	l___unnamed_122(%rip), %rsi
	movl	$12, %edx
	popq	%rbp
	jmp	__ZN4core3fmt9Formatter9write_str17h98e119ad25a8903eE
Ltmp727:
Lfunc_end110:
	.cfi_endproc

	.globl	__ZN169_$LT$serde..de..impls..$LT$impl$u20$serde..de..Deserialize$u20$for$u20$std..net..addr..SocketAddrV4$GT$..deserialize..SocketAddrVisitor$u20$as$u20$serde..de..Visitor$GT$9expecting17h294b7277fac8c9f3E
	.p2align	4, 0x90
__ZN169_$LT$serde..de..impls..$LT$impl$u20$serde..de..Deserialize$u20$for$u20$std..net..addr..SocketAddrV4$GT$..deserialize..SocketAddrVisitor$u20$as$u20$serde..de..Visitor$GT$9expecting17h294b7277fac8c9f3E:
Lfunc_begin111:
	.loc	1 1457 0
	.cfi_startproc
	pushq	%rbp
	.cfi_def_cfa_offset 16
	.cfi_offset %rbp, -16
	movq	%rsp, %rbp
	.cfi_def_cfa_register %rbp
	movq	%rsi, %rdi
Ltmp728:
	.loc	1 1458 29 prologue_end
	leaq	l___unnamed_123(%rip), %rsi
	movl	$19, %edx
	popq	%rbp
	jmp	__ZN4core3fmt9Formatter9write_str17h98e119ad25a8903eE
Ltmp729:
Lfunc_end111:
	.cfi_endproc

	.globl	__ZN169_$LT$serde..de..impls..$LT$impl$u20$serde..de..Deserialize$u20$for$u20$std..net..addr..SocketAddrV6$GT$..deserialize..SocketAddrVisitor$u20$as$u20$serde..de..Visitor$GT$9expecting17h08780fbfad1a3e19E
	.p2align	4, 0x90
__ZN169_$LT$serde..de..impls..$LT$impl$u20$serde..de..Deserialize$u20$for$u20$std..net..addr..SocketAddrV6$GT$..deserialize..SocketAddrVisitor$u20$as$u20$serde..de..Visitor$GT$9expecting17h08780fbfad1a3e19E:
Lfunc_begin112:
	.loc	1 1457 0
	.cfi_startproc
	pushq	%rbp
	.cfi_def_cfa_offset 16
	.cfi_offset %rbp, -16
	movq	%rsp, %rbp
	.cfi_def_cfa_register %rbp
	movq	%rsi, %rdi
Ltmp730:
	.loc	1 1458 29 prologue_end
	leaq	l___unnamed_124(%rip), %rsi
	movl	$19, %edx
	popq	%rbp
	jmp	__ZN4core3fmt9Formatter9write_str17h98e119ad25a8903eE
Ltmp731:
Lfunc_end112:
	.cfi_endproc

	.globl	__ZN137_$LT$$LT$serde..de..impls..OsStringKind$u20$as$u20$serde..de..Deserialize$GT$..deserialize..KindVisitor$u20$as$u20$serde..de..Visitor$GT$9expecting17h6cb906fee19693d6E
	.p2align	4, 0x90
__ZN137_$LT$$LT$serde..de..impls..OsStringKind$u20$as$u20$serde..de..Deserialize$GT$..deserialize..KindVisitor$u20$as$u20$serde..de..Visitor$GT$9expecting17h6cb906fee19693d6E:
Lfunc_begin113:
	.loc	1 1312 0
	.cfi_startproc
	pushq	%rbp
	.cfi_def_cfa_offset 16
	.cfi_offset %rbp, -16
	movq	%rsp, %rbp
	.cfi_def_cfa_register %rbp
	movq	%rsi, %rdi
Ltmp732:
	.loc	1 1313 25 prologue_end
	leaq	l___unnamed_125(%rip), %rsi
	movl	$19, %edx
	popq	%rbp
	jmp	__ZN4core3fmt9Formatter9write_str17h98e119ad25a8903eE
Ltmp733:
Lfunc_end113:
	.cfi_endproc

	.globl	__ZN58_$LT$serde..de..Unexpected$u20$as$u20$core..fmt..Debug$GT$3fmt17h57bb405abae5f084E
	.p2align	4, 0x90
__ZN58_$LT$serde..de..Unexpected$u20$as$u20$core..fmt..Debug$GT$3fmt17h57bb405abae5f084E:
Lfunc_begin114:
	.loc	24 331 0
	.cfi_startproc
	pushq	%rbp
	.cfi_def_cfa_offset 16
	.cfi_offset %rbp, -16
	movq	%rsp, %rbp
	.cfi_def_cfa_register %rbp
	pushq	%r14
	pushq	%rbx
	subq	$32, %rsp
	.cfi_offset %rbx, -32
	.cfi_offset %r14, -24
	movq	%rdi, %rbx
Ltmp734:
	.loc	24 331 34 prologue_end
	movzbl	(%rdi), %eax
	leaq	LJTI114_0(%rip), %rcx
	movslq	(%rcx,%rax,4), %rax
	addq	%rcx, %rax
	jmpq	*%rax
Ltmp735:
LBB114_4:
	.loc	24 334 10
	incq	%rbx
Ltmp736:
	.loc	24 331 34
	leaq	L___unnamed_126(%rip), %rdx
	leaq	-48(%rbp), %r14
	movl	$4, %ecx
	movq	%r14, %rdi
	callq	__ZN4core3fmt9Formatter11debug_tuple17h6c448643801d07e8E
Ltmp737:
	.loc	24 334 10
	movq	%rbx, -24(%rbp)
	.loc	24 331 34
	leaq	l___unnamed_17(%rip), %rdx
	jmp	LBB114_3
Ltmp738:
LBB114_5:
	.loc	24 338 14
	addq	$8, %rbx
Ltmp739:
	.loc	24 331 34
	leaq	L___unnamed_127(%rip), %rdx
	leaq	-48(%rbp), %r14
	movl	$8, %ecx
	movq	%r14, %rdi
	callq	__ZN4core3fmt9Formatter11debug_tuple17h6c448643801d07e8E
Ltmp740:
	.loc	24 338 14
	movq	%rbx, -24(%rbp)
	.loc	24 331 34
	leaq	l___unnamed_16(%rip), %rdx
	jmp	LBB114_3
Ltmp741:
LBB114_6:
	.loc	24 342 12
	addq	$8, %rbx
Ltmp742:
	.loc	24 331 34
	leaq	l___unnamed_128(%rip), %rdx
	leaq	-48(%rbp), %r14
	movl	$6, %ecx
	movq	%r14, %rdi
	callq	__ZN4core3fmt9Formatter11debug_tuple17h6c448643801d07e8E
Ltmp743:
	.loc	24 342 12
	movq	%rbx, -24(%rbp)
	.loc	24 331 34
	leaq	l___unnamed_15(%rip), %rdx
	jmp	LBB114_3
Ltmp744:
LBB114_7:
	.loc	24 346 11
	addq	$8, %rbx
Ltmp745:
	.loc	24 331 34
	leaq	l___unnamed_129(%rip), %rdx
	leaq	-48(%rbp), %r14
	movl	$5, %ecx
	movq	%r14, %rdi
	callq	__ZN4core3fmt9Formatter11debug_tuple17h6c448643801d07e8E
Ltmp746:
	.loc	24 346 11
	movq	%rbx, -24(%rbp)
	.loc	24 331 34
	leaq	l___unnamed_14(%rip), %rdx
	jmp	LBB114_3
Ltmp747:
LBB114_8:
	.loc	24 349 10
	addq	$4, %rbx
Ltmp748:
	.loc	24 331 34
	leaq	L___unnamed_130(%rip), %rdx
	leaq	-48(%rbp), %r14
	movl	$4, %ecx
	movq	%r14, %rdi
	callq	__ZN4core3fmt9Formatter11debug_tuple17h6c448643801d07e8E
Ltmp749:
	.loc	24 349 10
	movq	%rbx, -24(%rbp)
	.loc	24 331 34
	leaq	l___unnamed_13(%rip), %rdx
	jmp	LBB114_3
Ltmp750:
LBB114_9:
	.loc	24 352 9
	addq	$8, %rbx
Ltmp751:
	.loc	24 331 34
	leaq	l___unnamed_131(%rip), %rdx
	leaq	-48(%rbp), %r14
	movl	$3, %ecx
	jmp	LBB114_2
Ltmp752:
LBB114_10:
	.loc	24 355 11
	addq	$8, %rbx
Ltmp753:
	.loc	24 331 34
	leaq	l___unnamed_132(%rip), %rdx
	leaq	-48(%rbp), %r14
	movl	$5, %ecx
	movq	%r14, %rdi
	callq	__ZN4core3fmt9Formatter11debug_tuple17h6c448643801d07e8E
Ltmp754:
	.loc	24 355 11
	movq	%rbx, -24(%rbp)
	.loc	24 331 34
	leaq	l___unnamed_12(%rip), %rdx
	jmp	LBB114_3
Ltmp755:
LBB114_11:
	.loc	24 331 34 is_stmt 0
	leaq	L___unnamed_133(%rip), %rdx
	jmp	LBB114_12
Ltmp756:
LBB114_13:
	leaq	l___unnamed_134(%rip), %rdx
	leaq	-48(%rbp), %rbx
Ltmp757:
	movl	$6, %ecx
	jmp	LBB114_24
Ltmp758:
LBB114_14:
	leaq	l___unnamed_135(%rip), %rdx
	jmp	LBB114_23
Ltmp759:
LBB114_15:
	leaq	l___unnamed_136(%rip), %rdx
	jmp	LBB114_16
Ltmp760:
LBB114_17:
	leaq	l___unnamed_137(%rip), %rdx
Ltmp761:
LBB114_16:
	.loc	24 0 34
	leaq	-48(%rbp), %rbx
Ltmp762:
	.loc	24 331 34
	movl	$3, %ecx
	jmp	LBB114_24
Ltmp763:
LBB114_18:
	leaq	L___unnamed_138(%rip), %rdx
Ltmp764:
LBB114_12:
	.loc	24 0 34
	leaq	-48(%rbp), %rbx
Ltmp765:
	.loc	24 331 34
	movl	$4, %ecx
	jmp	LBB114_24
Ltmp766:
LBB114_19:
	leaq	l___unnamed_139(%rip), %rdx
	leaq	-48(%rbp), %rbx
Ltmp767:
	movl	$11, %ecx
	jmp	LBB114_24
Ltmp768:
LBB114_20:
	leaq	l___unnamed_140(%rip), %rdx
	leaq	-48(%rbp), %rbx
Ltmp769:
	movl	$14, %ecx
	jmp	LBB114_24
Ltmp770:
LBB114_21:
	leaq	l___unnamed_141(%rip), %rdx
	leaq	-48(%rbp), %rbx
Ltmp771:
	movl	$12, %ecx
	jmp	LBB114_24
Ltmp772:
LBB114_22:
	leaq	l___unnamed_142(%rip), %rdx
Ltmp773:
LBB114_23:
	.loc	24 0 34
	leaq	-48(%rbp), %rbx
Ltmp774:
	.loc	24 331 34
	movl	$13, %ecx
Ltmp775:
LBB114_24:
	movq	%rbx, %rdi
	callq	__ZN4core3fmt9Formatter11debug_tuple17h6c448643801d07e8E
Ltmp776:
	.loc	24 0 0
	movq	%rbx, %rdi
	jmp	LBB114_25
LBB114_1:
Ltmp777:
	.loc	24 392 11 is_stmt 1
	addq	$8, %rbx
Ltmp778:
	.loc	24 331 34
	leaq	l___unnamed_143(%rip), %rdx
	leaq	-48(%rbp), %r14
	movl	$5, %ecx
Ltmp779:
LBB114_2:
	.loc	24 0 0 is_stmt 0
	movq	%r14, %rdi
	callq	__ZN4core3fmt9Formatter11debug_tuple17h6c448643801d07e8E
Ltmp780:
	movq	%rbx, -24(%rbp)
	leaq	l___unnamed_9(%rip), %rdx
LBB114_3:
	leaq	-24(%rbp), %rsi
	movq	%r14, %rdi
	callq	__ZN4core3fmt8builders10DebugTuple5field17hc7b676d0e36b51d9E
	movq	%r14, %rdi
LBB114_25:
	callq	__ZN4core3fmt8builders10DebugTuple6finish17h9f206806f7096c33E
	.loc	24 331 39
	addq	$32, %rsp
	popq	%rbx
	popq	%r14
	popq	%rbp
	retq
Ltmp781:
Lfunc_end114:
	.cfi_endproc
	.p2align	2, 0x90
	.data_region jt32
.set L114_0_set_4, LBB114_4-LJTI114_0
.set L114_0_set_5, LBB114_5-LJTI114_0
.set L114_0_set_6, LBB114_6-LJTI114_0
.set L114_0_set_7, LBB114_7-LJTI114_0
.set L114_0_set_8, LBB114_8-LJTI114_0
.set L114_0_set_9, LBB114_9-LJTI114_0
.set L114_0_set_10, LBB114_10-LJTI114_0
.set L114_0_set_11, LBB114_11-LJTI114_0
.set L114_0_set_13, LBB114_13-LJTI114_0
.set L114_0_set_14, LBB114_14-LJTI114_0
.set L114_0_set_15, LBB114_15-LJTI114_0
.set L114_0_set_17, LBB114_17-LJTI114_0
.set L114_0_set_18, LBB114_18-LJTI114_0
.set L114_0_set_19, LBB114_19-LJTI114_0
.set L114_0_set_20, LBB114_20-LJTI114_0
.set L114_0_set_21, LBB114_21-LJTI114_0
.set L114_0_set_22, LBB114_22-LJTI114_0
.set L114_0_set_1, LBB114_1-LJTI114_0
LJTI114_0:
	.long	L114_0_set_4
	.long	L114_0_set_5
	.long	L114_0_set_6
	.long	L114_0_set_7
	.long	L114_0_set_8
	.long	L114_0_set_9
	.long	L114_0_set_10
	.long	L114_0_set_11
	.long	L114_0_set_13
	.long	L114_0_set_14
	.long	L114_0_set_15
	.long	L114_0_set_17
	.long	L114_0_set_18
	.long	L114_0_set_19
	.long	L114_0_set_20
	.long	L114_0_set_21
	.long	L114_0_set_22
	.long	L114_0_set_1
	.end_data_region

	.globl	__ZN5serde3ser3fmt85_$LT$impl$u20$serde..ser..Serializer$u20$for$u20$$RF$mut$u20$core..fmt..Formatter$GT$14serialize_bool17h4890151730e04e59E
	.p2align	4, 0x90
__ZN5serde3ser3fmt85_$LT$impl$u20$serde..ser..Serializer$u20$for$u20$$RF$mut$u20$core..fmt..Formatter$GT$14serialize_bool17h4890151730e04e59E:
Lfunc_begin115:
	.loc	26 13 0 is_stmt 1
	.cfi_startproc
	pushq	%rbp
	.cfi_def_cfa_offset 16
	.cfi_offset %rbp, -16
	movq	%rsp, %rbp
	.cfi_def_cfa_register %rbp
	subq	$16, %rsp
	movq	%rdi, %rax
Ltmp782:
	movb	%sil, -1(%rbp)
Ltmp783:
	leaq	-1(%rbp), %rdi
Ltmp784:
	.loc	26 14 17 prologue_end
	movq	%rax, %rsi
Ltmp785:
	callq	__ZN43_$LT$bool$u20$as$u20$core..fmt..Display$GT$3fmt17hd78396651a24cfbbE
Ltmp786:
	.loc	26 15 14
	addq	$16, %rsp
	popq	%rbp
	retq
Ltmp787:
Lfunc_end115:
	.cfi_endproc

	.globl	__ZN5serde3ser3fmt85_$LT$impl$u20$serde..ser..Serializer$u20$for$u20$$RF$mut$u20$core..fmt..Formatter$GT$12serialize_i817h9bd9e851a01c9901E
	.p2align	4, 0x90
__ZN5serde3ser3fmt85_$LT$impl$u20$serde..ser..Serializer$u20$for$u20$$RF$mut$u20$core..fmt..Formatter$GT$12serialize_i817h9bd9e851a01c9901E:
Lfunc_begin116:
	.loc	26 13 0
	.cfi_startproc
	pushq	%rbp
	.cfi_def_cfa_offset 16
	.cfi_offset %rbp, -16
	movq	%rsp, %rbp
	.cfi_def_cfa_register %rbp
	subq	$16, %rsp
	movq	%rdi, %rax
Ltmp788:
	movb	%sil, -1(%rbp)
Ltmp789:
	leaq	-1(%rbp), %rdi
Ltmp790:
	.loc	26 14 17 prologue_end
	movq	%rax, %rsi
Ltmp791:
	callq	__ZN4core3fmt3num3imp51_$LT$impl$u20$core..fmt..Display$u20$for$u20$i8$GT$3fmt17hc9fc67837369c997E
Ltmp792:
	.loc	26 15 14
	addq	$16, %rsp
	popq	%rbp
	retq
Ltmp793:
Lfunc_end116:
	.cfi_endproc

	.globl	__ZN5serde3ser3fmt85_$LT$impl$u20$serde..ser..Serializer$u20$for$u20$$RF$mut$u20$core..fmt..Formatter$GT$13serialize_i1617h19a67119c0efd1dbE
	.p2align	4, 0x90
__ZN5serde3ser3fmt85_$LT$impl$u20$serde..ser..Serializer$u20$for$u20$$RF$mut$u20$core..fmt..Formatter$GT$13serialize_i1617h19a67119c0efd1dbE:
Lfunc_begin117:
	.loc	26 13 0
	.cfi_startproc
	pushq	%rbp
	.cfi_def_cfa_offset 16
	.cfi_offset %rbp, -16
	movq	%rsp, %rbp
	.cfi_def_cfa_register %rbp
	subq	$16, %rsp
	movq	%rdi, %rax
Ltmp794:
	movw	%si, -2(%rbp)
Ltmp795:
	leaq	-2(%rbp), %rdi
Ltmp796:
	.loc	26 14 17 prologue_end
	movq	%rax, %rsi
Ltmp797:
	callq	__ZN4core3fmt3num3imp52_$LT$impl$u20$core..fmt..Display$u20$for$u20$i16$GT$3fmt17h7c7135e52a8bf68aE
Ltmp798:
	.loc	26 15 14
	addq	$16, %rsp
	popq	%rbp
	retq
Ltmp799:
Lfunc_end117:
	.cfi_endproc

	.globl	__ZN5serde3ser3fmt85_$LT$impl$u20$serde..ser..Serializer$u20$for$u20$$RF$mut$u20$core..fmt..Formatter$GT$13serialize_i3217h19d3417a5a6c3e2aE
	.p2align	4, 0x90
__ZN5serde3ser3fmt85_$LT$impl$u20$serde..ser..Serializer$u20$for$u20$$RF$mut$u20$core..fmt..Formatter$GT$13serialize_i3217h19d3417a5a6c3e2aE:
Lfunc_begin118:
	.loc	26 13 0
	.cfi_startproc
	pushq	%rbp
	.cfi_def_cfa_offset 16
	.cfi_offset %rbp, -16
	movq	%rsp, %rbp
	.cfi_def_cfa_register %rbp
	subq	$16, %rsp
	movq	%rdi, %rax
	movl	%esi, -4(%rbp)
Ltmp800:
	leaq	-4(%rbp), %rdi
Ltmp801:
	.loc	26 14 17 prologue_end
	movq	%rax, %rsi
Ltmp802:
	callq	__ZN4core3fmt3num3imp52_$LT$impl$u20$core..fmt..Display$u20$for$u20$i32$GT$3fmt17h00ed7ff77f9da654E
Ltmp803:
	.loc	26 15 14
	addq	$16, %rsp
	popq	%rbp
	retq
Ltmp804:
Lfunc_end118:
	.cfi_endproc

	.globl	__ZN5serde3ser3fmt85_$LT$impl$u20$serde..ser..Serializer$u20$for$u20$$RF$mut$u20$core..fmt..Formatter$GT$13serialize_i6417hf70d818c0dfd6502E
	.p2align	4, 0x90
__ZN5serde3ser3fmt85_$LT$impl$u20$serde..ser..Serializer$u20$for$u20$$RF$mut$u20$core..fmt..Formatter$GT$13serialize_i6417hf70d818c0dfd6502E:
Lfunc_begin119:
	.loc	26 13 0
	.cfi_startproc
	pushq	%rbp
	.cfi_def_cfa_offset 16
	.cfi_offset %rbp, -16
	movq	%rsp, %rbp
	.cfi_def_cfa_register %rbp
	subq	$16, %rsp
	movq	%rdi, %rax
	movq	%rsi, -8(%rbp)
Ltmp805:
	leaq	-8(%rbp), %rdi
Ltmp806:
	.loc	26 14 17 prologue_end
	movq	%rax, %rsi
Ltmp807:
	callq	__ZN4core3fmt3num3imp52_$LT$impl$u20$core..fmt..Display$u20$for$u20$i64$GT$3fmt17h310ed6661e8c983fE
Ltmp808:
	.loc	26 15 14
	addq	$16, %rsp
	popq	%rbp
	retq
Ltmp809:
Lfunc_end119:
	.cfi_endproc

	.globl	__ZN5serde3ser3fmt85_$LT$impl$u20$serde..ser..Serializer$u20$for$u20$$RF$mut$u20$core..fmt..Formatter$GT$12serialize_u817hdab20cd59046bf24E
	.p2align	4, 0x90
__ZN5serde3ser3fmt85_$LT$impl$u20$serde..ser..Serializer$u20$for$u20$$RF$mut$u20$core..fmt..Formatter$GT$12serialize_u817hdab20cd59046bf24E:
Lfunc_begin120:
	.loc	26 13 0
	.cfi_startproc
	pushq	%rbp
	.cfi_def_cfa_offset 16
	.cfi_offset %rbp, -16
	movq	%rsp, %rbp
	.cfi_def_cfa_register %rbp
	subq	$16, %rsp
	movq	%rdi, %rax
Ltmp810:
	movb	%sil, -1(%rbp)
Ltmp811:
	leaq	-1(%rbp), %rdi
Ltmp812:
	.loc	26 14 17 prologue_end
	movq	%rax, %rsi
Ltmp813:
	callq	__ZN4core3fmt3num3imp51_$LT$impl$u20$core..fmt..Display$u20$for$u20$u8$GT$3fmt17hac49effbf87f075dE
Ltmp814:
	.loc	26 15 14
	addq	$16, %rsp
	popq	%rbp
	retq
Ltmp815:
Lfunc_end120:
	.cfi_endproc

	.globl	__ZN5serde3ser3fmt85_$LT$impl$u20$serde..ser..Serializer$u20$for$u20$$RF$mut$u20$core..fmt..Formatter$GT$13serialize_u1617ha35092480e885cdfE
	.p2align	4, 0x90
__ZN5serde3ser3fmt85_$LT$impl$u20$serde..ser..Serializer$u20$for$u20$$RF$mut$u20$core..fmt..Formatter$GT$13serialize_u1617ha35092480e885cdfE:
Lfunc_begin121:
	.loc	26 13 0
	.cfi_startproc
	pushq	%rbp
	.cfi_def_cfa_offset 16
	.cfi_offset %rbp, -16
	movq	%rsp, %rbp
	.cfi_def_cfa_register %rbp
	subq	$16, %rsp
	movq	%rdi, %rax
Ltmp816:
	movw	%si, -2(%rbp)
Ltmp817:
	leaq	-2(%rbp), %rdi
Ltmp818:
	.loc	26 14 17 prologue_end
	movq	%rax, %rsi
Ltmp819:
	callq	__ZN4core3fmt3num3imp52_$LT$impl$u20$core..fmt..Display$u20$for$u20$u16$GT$3fmt17h5ce1a50c193bc52eE
Ltmp820:
	.loc	26 15 14
	addq	$16, %rsp
	popq	%rbp
	retq
Ltmp821:
Lfunc_end121:
	.cfi_endproc

	.globl	__ZN5serde3ser3fmt85_$LT$impl$u20$serde..ser..Serializer$u20$for$u20$$RF$mut$u20$core..fmt..Formatter$GT$13serialize_u3217h50a0e2ee71d954d0E
	.p2align	4, 0x90
__ZN5serde3ser3fmt85_$LT$impl$u20$serde..ser..Serializer$u20$for$u20$$RF$mut$u20$core..fmt..Formatter$GT$13serialize_u3217h50a0e2ee71d954d0E:
Lfunc_begin122:
	.loc	26 13 0
	.cfi_startproc
	pushq	%rbp
	.cfi_def_cfa_offset 16
	.cfi_offset %rbp, -16
	movq	%rsp, %rbp
	.cfi_def_cfa_register %rbp
	subq	$16, %rsp
	movq	%rdi, %rax
	movl	%esi, -4(%rbp)
Ltmp822:
	leaq	-4(%rbp), %rdi
Ltmp823:
	.loc	26 14 17 prologue_end
	movq	%rax, %rsi
Ltmp824:
	callq	__ZN4core3fmt3num3imp52_$LT$impl$u20$core..fmt..Display$u20$for$u20$u32$GT$3fmt17hb70882cf65fd1a66E
Ltmp825:
	.loc	26 15 14
	addq	$16, %rsp
	popq	%rbp
	retq
Ltmp826:
Lfunc_end122:
	.cfi_endproc

	.globl	__ZN5serde3ser3fmt85_$LT$impl$u20$serde..ser..Serializer$u20$for$u20$$RF$mut$u20$core..fmt..Formatter$GT$13serialize_u6417h7b5c21b2a3ebe08aE
	.p2align	4, 0x90
__ZN5serde3ser3fmt85_$LT$impl$u20$serde..ser..Serializer$u20$for$u20$$RF$mut$u20$core..fmt..Formatter$GT$13serialize_u6417h7b5c21b2a3ebe08aE:
Lfunc_begin123:
	.loc	26 13 0
	.cfi_startproc
	pushq	%rbp
	.cfi_def_cfa_offset 16
	.cfi_offset %rbp, -16
	movq	%rsp, %rbp
	.cfi_def_cfa_register %rbp
	subq	$16, %rsp
	movq	%rdi, %rax
	movq	%rsi, -8(%rbp)
Ltmp827:
	leaq	-8(%rbp), %rdi
Ltmp828:
	.loc	26 14 17 prologue_end
	movq	%rax, %rsi
Ltmp829:
	callq	__ZN4core3fmt3num3imp52_$LT$impl$u20$core..fmt..Display$u20$for$u20$u64$GT$3fmt17h3230c9bc78e30ed1E
Ltmp830:
	.loc	26 15 14
	addq	$16, %rsp
	popq	%rbp
	retq
Ltmp831:
Lfunc_end123:
	.cfi_endproc

	.globl	__ZN5serde3ser3fmt85_$LT$impl$u20$serde..ser..Serializer$u20$for$u20$$RF$mut$u20$core..fmt..Formatter$GT$13serialize_f3217h68eda00fb8517c70E
	.p2align	4, 0x90
__ZN5serde3ser3fmt85_$LT$impl$u20$serde..ser..Serializer$u20$for$u20$$RF$mut$u20$core..fmt..Formatter$GT$13serialize_f3217h68eda00fb8517c70E:
Lfunc_begin124:
	.loc	26 13 0
	.cfi_startproc
	pushq	%rbp
	.cfi_def_cfa_offset 16
	.cfi_offset %rbp, -16
	movq	%rsp, %rbp
	.cfi_def_cfa_register %rbp
	subq	$16, %rsp
	movq	%rdi, %rsi
	movss	%xmm0, -4(%rbp)
Ltmp832:
	leaq	-4(%rbp), %rdi
Ltmp833:
	.loc	26 14 17 prologue_end
	callq	__ZN4core3fmt5float52_$LT$impl$u20$core..fmt..Display$u20$for$u20$f32$GT$3fmt17h2c999d2555a315baE
Ltmp834:
	.loc	26 15 14
	addq	$16, %rsp
	popq	%rbp
	retq
Ltmp835:
Lfunc_end124:
	.cfi_endproc

	.globl	__ZN5serde3ser3fmt85_$LT$impl$u20$serde..ser..Serializer$u20$for$u20$$RF$mut$u20$core..fmt..Formatter$GT$13serialize_f6417h69b803a8b55d07c0E
	.p2align	4, 0x90
__ZN5serde3ser3fmt85_$LT$impl$u20$serde..ser..Serializer$u20$for$u20$$RF$mut$u20$core..fmt..Formatter$GT$13serialize_f6417h69b803a8b55d07c0E:
Lfunc_begin125:
	.loc	26 13 0
	.cfi_startproc
	pushq	%rbp
	.cfi_def_cfa_offset 16
	.cfi_offset %rbp, -16
	movq	%rsp, %rbp
	.cfi_def_cfa_register %rbp
	subq	$16, %rsp
	movq	%rdi, %rsi
	movsd	%xmm0, -8(%rbp)
Ltmp836:
	leaq	-8(%rbp), %rdi
Ltmp837:
	.loc	26 14 17 prologue_end
	callq	__ZN4core3fmt5float52_$LT$impl$u20$core..fmt..Display$u20$for$u20$f64$GT$3fmt17h6661f4669fdcb1d1E
Ltmp838:
	.loc	26 15 14
	addq	$16, %rsp
	popq	%rbp
	retq
Ltmp839:
Lfunc_end125:
	.cfi_endproc

	.globl	__ZN5serde3ser3fmt85_$LT$impl$u20$serde..ser..Serializer$u20$for$u20$$RF$mut$u20$core..fmt..Formatter$GT$14serialize_char17h5adff61221fb711eE
	.p2align	4, 0x90
__ZN5serde3ser3fmt85_$LT$impl$u20$serde..ser..Serializer$u20$for$u20$$RF$mut$u20$core..fmt..Formatter$GT$14serialize_char17h5adff61221fb711eE:
Lfunc_begin126:
	.loc	26 13 0
	.cfi_startproc
	pushq	%rbp
	.cfi_def_cfa_offset 16
	.cfi_offset %rbp, -16
	movq	%rsp, %rbp
	.cfi_def_cfa_register %rbp
	subq	$16, %rsp
	movq	%rdi, %rax
	movl	%esi, -4(%rbp)
Ltmp840:
	leaq	-4(%rbp), %rdi
Ltmp841:
	.loc	26 14 17 prologue_end
	movq	%rax, %rsi
Ltmp842:
	callq	__ZN43_$LT$char$u20$as$u20$core..fmt..Display$GT$3fmt17haf02f59875f30dd3E
Ltmp843:
	.loc	26 15 14
	addq	$16, %rsp
	popq	%rbp
	retq
Ltmp844:
Lfunc_end126:
	.cfi_endproc

	.globl	__ZN5serde3ser3fmt85_$LT$impl$u20$serde..ser..Serializer$u20$for$u20$$RF$mut$u20$core..fmt..Formatter$GT$13serialize_str17he973d61da8424753E
	.p2align	4, 0x90
__ZN5serde3ser3fmt85_$LT$impl$u20$serde..ser..Serializer$u20$for$u20$$RF$mut$u20$core..fmt..Formatter$GT$13serialize_str17he973d61da8424753E:
Lfunc_begin127:
	.loc	26 13 0
	.cfi_startproc
	pushq	%rbp
	.cfi_def_cfa_offset 16
	.cfi_offset %rbp, -16
	movq	%rsp, %rbp
	.cfi_def_cfa_register %rbp
	movq	%rdi, %rax
Ltmp845:
	.loc	4 2022 62 prologue_end
	movq	%rsi, %rdi
Ltmp846:
	movq	%rdx, %rsi
Ltmp847:
	movq	%rax, %rdx
Ltmp848:
	popq	%rbp
	jmp	__ZN42_$LT$str$u20$as$u20$core..fmt..Display$GT$3fmt17h6768afae62e94f93E
Ltmp849:
Lfunc_end127:
	.cfi_endproc

	.globl	__ZN5serde3ser3fmt85_$LT$impl$u20$serde..ser..Serializer$u20$for$u20$$RF$mut$u20$core..fmt..Formatter$GT$14serialize_i12817h6b743d3b6819a1d7E
	.p2align	4, 0x90
__ZN5serde3ser3fmt85_$LT$impl$u20$serde..ser..Serializer$u20$for$u20$$RF$mut$u20$core..fmt..Formatter$GT$14serialize_i12817h6b743d3b6819a1d7E:
Lfunc_begin128:
	.loc	26 13 0
	.cfi_startproc
	pushq	%rbp
	.cfi_def_cfa_offset 16
	.cfi_offset %rbp, -16
	movq	%rsp, %rbp
	.cfi_def_cfa_register %rbp
	subq	$16, %rsp
	movq	%rdi, %rax
	movq	%rdx, -8(%rbp)
	movq	%rsi, -16(%rbp)
Ltmp850:
	leaq	-16(%rbp), %rdi
Ltmp851:
	.loc	26 14 17 prologue_end
	movq	%rax, %rsi
Ltmp852:
	callq	__ZN4core3fmt3num53_$LT$impl$u20$core..fmt..Display$u20$for$u20$i128$GT$3fmt17hc0ccce97b0b9069fE
Ltmp853:
	.loc	26 15 14
	addq	$16, %rsp
	popq	%rbp
	retq
Ltmp854:
Lfunc_end128:
	.cfi_endproc

	.globl	__ZN5serde3ser3fmt85_$LT$impl$u20$serde..ser..Serializer$u20$for$u20$$RF$mut$u20$core..fmt..Formatter$GT$14serialize_u12817h99f94cf8009b9709E
	.p2align	4, 0x90
__ZN5serde3ser3fmt85_$LT$impl$u20$serde..ser..Serializer$u20$for$u20$$RF$mut$u20$core..fmt..Formatter$GT$14serialize_u12817h99f94cf8009b9709E:
Lfunc_begin129:
	.loc	26 13 0
	.cfi_startproc
	pushq	%rbp
	.cfi_def_cfa_offset 16
	.cfi_offset %rbp, -16
	movq	%rsp, %rbp
	.cfi_def_cfa_register %rbp
	subq	$16, %rsp
	movq	%rdi, %rax
	movq	%rdx, -8(%rbp)
	movq	%rsi, -16(%rbp)
Ltmp855:
	leaq	-16(%rbp), %rdi
Ltmp856:
	.loc	26 14 17 prologue_end
	movq	%rax, %rsi
Ltmp857:
	callq	__ZN4core3fmt3num53_$LT$impl$u20$core..fmt..Display$u20$for$u20$u128$GT$3fmt17h24a40e99587872eaE
Ltmp858:
	.loc	26 15 14
	addq	$16, %rsp
	popq	%rbp
	retq
Ltmp859:
Lfunc_end129:
	.cfi_endproc

	.globl	__ZN73_$LT$serde..private..de..content..Content$u20$as$u20$core..fmt..Debug$GT$3fmt17hec240440ed0a5340E
	.p2align	4, 0x90
__ZN73_$LT$serde..private..de..content..Content$u20$as$u20$core..fmt..Debug$GT$3fmt17hec240440ed0a5340E:
Lfunc_begin130:
	.loc	28 238 0
	.cfi_startproc
	pushq	%rbp
	.cfi_def_cfa_offset 16
	.cfi_offset %rbp, -16
	movq	%rsp, %rbp
	.cfi_def_cfa_register %rbp
	pushq	%r14
	pushq	%rbx
	subq	$32, %rsp
	.cfi_offset %rbx, -32
	.cfi_offset %r14, -24
	movq	%rdi, %rbx
Ltmp860:
	.loc	28 238 14 prologue_end
	movzbl	(%rdi), %eax
	leaq	LJTI130_0(%rip), %rcx
	movslq	(%rcx,%rax,4), %rax
	addq	%rcx, %rax
	jmpq	*%rax
Ltmp861:
LBB130_2:
	.loc	28 240 14
	incq	%rbx
Ltmp862:
	.loc	28 238 14
	leaq	L___unnamed_126(%rip), %rdx
	leaq	-48(%rbp), %r14
	movl	$4, %ecx
	movq	%r14, %rdi
	callq	__ZN4core3fmt9Formatter11debug_tuple17h6c448643801d07e8E
Ltmp863:
	.loc	28 240 14
	movq	%rbx, -24(%rbp)
	.loc	28 238 14
	leaq	l___unnamed_17(%rip), %rdx
	jmp	LBB130_25
Ltmp864:
LBB130_3:
	.loc	28 242 12
	incq	%rbx
Ltmp865:
	.loc	28 238 14
	leaq	l___unnamed_144(%rip), %rdx
	leaq	-48(%rbp), %r14
	movl	$2, %ecx
	movq	%r14, %rdi
	callq	__ZN4core3fmt9Formatter11debug_tuple17h6c448643801d07e8E
Ltmp866:
	.loc	28 242 12
	movq	%rbx, -24(%rbp)
	.loc	28 238 14
	leaq	l___unnamed_5(%rip), %rdx
	jmp	LBB130_25
Ltmp867:
LBB130_4:
	.loc	28 243 13
	addq	$2, %rbx
Ltmp868:
	.loc	28 238 14
	leaq	l___unnamed_145(%rip), %rdx
	leaq	-48(%rbp), %r14
	movl	$3, %ecx
	movq	%r14, %rdi
	callq	__ZN4core3fmt9Formatter11debug_tuple17h6c448643801d07e8E
Ltmp869:
	.loc	28 243 13
	movq	%rbx, -24(%rbp)
	.loc	28 238 14
	leaq	l___unnamed_28(%rip), %rdx
	jmp	LBB130_25
Ltmp870:
LBB130_5:
	.loc	28 244 13
	addq	$4, %rbx
Ltmp871:
	.loc	28 238 14
	leaq	l___unnamed_146(%rip), %rdx
	leaq	-48(%rbp), %r14
	movl	$3, %ecx
	movq	%r14, %rdi
	callq	__ZN4core3fmt9Formatter11debug_tuple17h6c448643801d07e8E
Ltmp872:
	.loc	28 244 13
	movq	%rbx, -24(%rbp)
	.loc	28 238 14
	leaq	l___unnamed_27(%rip), %rdx
	jmp	LBB130_25
Ltmp873:
LBB130_6:
	.loc	28 245 13
	addq	$8, %rbx
Ltmp874:
	.loc	28 238 14
	leaq	l___unnamed_147(%rip), %rdx
	leaq	-48(%rbp), %r14
	movl	$3, %ecx
	movq	%r14, %rdi
	callq	__ZN4core3fmt9Formatter11debug_tuple17h6c448643801d07e8E
Ltmp875:
	.loc	28 245 13
	movq	%rbx, -24(%rbp)
	.loc	28 238 14
	leaq	l___unnamed_16(%rip), %rdx
	jmp	LBB130_25
Ltmp876:
LBB130_7:
	.loc	28 247 12
	incq	%rbx
Ltmp877:
	.loc	28 238 14
	leaq	l___unnamed_148(%rip), %rdx
	leaq	-48(%rbp), %r14
	movl	$2, %ecx
	movq	%r14, %rdi
	callq	__ZN4core3fmt9Formatter11debug_tuple17h6c448643801d07e8E
Ltmp878:
	.loc	28 247 12
	movq	%rbx, -24(%rbp)
	.loc	28 238 14
	leaq	l___unnamed_26(%rip), %rdx
	jmp	LBB130_25
Ltmp879:
LBB130_8:
	.loc	28 248 13
	addq	$2, %rbx
Ltmp880:
	.loc	28 238 14
	leaq	l___unnamed_149(%rip), %rdx
	leaq	-48(%rbp), %r14
	movl	$3, %ecx
	movq	%r14, %rdi
	callq	__ZN4core3fmt9Formatter11debug_tuple17h6c448643801d07e8E
Ltmp881:
	.loc	28 248 13
	movq	%rbx, -24(%rbp)
	.loc	28 238 14
	leaq	l___unnamed_25(%rip), %rdx
	jmp	LBB130_25
Ltmp882:
LBB130_9:
	.loc	28 249 13
	addq	$4, %rbx
Ltmp883:
	.loc	28 238 14
	leaq	l___unnamed_150(%rip), %rdx
	leaq	-48(%rbp), %r14
	movl	$3, %ecx
	movq	%r14, %rdi
	callq	__ZN4core3fmt9Formatter11debug_tuple17h6c448643801d07e8E
Ltmp884:
	.loc	28 249 13
	movq	%rbx, -24(%rbp)
	.loc	28 238 14
	leaq	l___unnamed_24(%rip), %rdx
	jmp	LBB130_25
Ltmp885:
LBB130_10:
	.loc	28 250 13
	addq	$8, %rbx
Ltmp886:
	.loc	28 238 14
	leaq	l___unnamed_151(%rip), %rdx
	leaq	-48(%rbp), %r14
	movl	$3, %ecx
	movq	%r14, %rdi
	callq	__ZN4core3fmt9Formatter11debug_tuple17h6c448643801d07e8E
Ltmp887:
	.loc	28 250 13
	movq	%rbx, -24(%rbp)
	.loc	28 238 14
	leaq	l___unnamed_15(%rip), %rdx
	jmp	LBB130_25
Ltmp888:
LBB130_11:
	.loc	28 252 13
	addq	$4, %rbx
Ltmp889:
	.loc	28 238 14
	leaq	l___unnamed_152(%rip), %rdx
	leaq	-48(%rbp), %r14
	movl	$3, %ecx
	movq	%r14, %rdi
	callq	__ZN4core3fmt9Formatter11debug_tuple17h6c448643801d07e8E
Ltmp890:
	.loc	28 252 13
	movq	%rbx, -24(%rbp)
	.loc	28 238 14
	leaq	l___unnamed_23(%rip), %rdx
	jmp	LBB130_25
Ltmp891:
LBB130_12:
	.loc	28 253 13
	addq	$8, %rbx
Ltmp892:
	.loc	28 238 14
	leaq	l___unnamed_153(%rip), %rdx
	leaq	-48(%rbp), %r14
	movl	$3, %ecx
	movq	%r14, %rdi
	callq	__ZN4core3fmt9Formatter11debug_tuple17h6c448643801d07e8E
Ltmp893:
	.loc	28 253 13
	movq	%rbx, -24(%rbp)
	.loc	28 238 14
	leaq	l___unnamed_14(%rip), %rdx
	jmp	LBB130_25
Ltmp894:
LBB130_13:
	.loc	28 255 14
	addq	$4, %rbx
Ltmp895:
	.loc	28 238 14
	leaq	L___unnamed_130(%rip), %rdx
	leaq	-48(%rbp), %r14
	movl	$4, %ecx
	movq	%r14, %rdi
	callq	__ZN4core3fmt9Formatter11debug_tuple17h6c448643801d07e8E
Ltmp896:
	.loc	28 255 14
	movq	%rbx, -24(%rbp)
	.loc	28 238 14
	leaq	l___unnamed_13(%rip), %rdx
	jmp	LBB130_25
Ltmp897:
LBB130_14:
	.loc	28 256 16
	addq	$8, %rbx
Ltmp898:
	.loc	28 238 14
	leaq	l___unnamed_154(%rip), %rdx
	leaq	-48(%rbp), %r14
	movl	$6, %ecx
	movq	%r14, %rdi
	callq	__ZN4core3fmt9Formatter11debug_tuple17h6c448643801d07e8E
Ltmp899:
	.loc	28 256 16
	movq	%rbx, -24(%rbp)
	.loc	28 238 14
	leaq	l___unnamed_22(%rip), %rdx
	jmp	LBB130_25
Ltmp900:
LBB130_15:
	.loc	28 257 13
	addq	$8, %rbx
Ltmp901:
	.loc	28 238 14
	leaq	l___unnamed_131(%rip), %rdx
	leaq	-48(%rbp), %r14
	movl	$3, %ecx
	movq	%r14, %rdi
	callq	__ZN4core3fmt9Formatter11debug_tuple17h6c448643801d07e8E
Ltmp902:
	.loc	28 257 13
	movq	%rbx, -24(%rbp)
	.loc	28 238 14
	leaq	l___unnamed_9(%rip), %rdx
	jmp	LBB130_25
Ltmp903:
LBB130_16:
	.loc	28 258 17
	addq	$8, %rbx
Ltmp904:
	.loc	28 238 14
	leaq	l___unnamed_155(%rip), %rdx
	leaq	-48(%rbp), %r14
	movl	$7, %ecx
	movq	%r14, %rdi
	callq	__ZN4core3fmt9Formatter11debug_tuple17h6c448643801d07e8E
Ltmp905:
	.loc	28 258 17
	movq	%rbx, -24(%rbp)
	.loc	28 238 14
	leaq	l___unnamed_21(%rip), %rdx
	jmp	LBB130_25
Ltmp906:
LBB130_17:
	.loc	28 259 15
	addq	$8, %rbx
Ltmp907:
	.loc	28 238 14
	leaq	l___unnamed_132(%rip), %rdx
	leaq	-48(%rbp), %r14
	movl	$5, %ecx
	movq	%r14, %rdi
	callq	__ZN4core3fmt9Formatter11debug_tuple17h6c448643801d07e8E
Ltmp908:
	.loc	28 259 15
	movq	%rbx, -24(%rbp)
	.loc	28 238 14
	leaq	l___unnamed_12(%rip), %rdx
	jmp	LBB130_25
Ltmp909:
LBB130_18:
	.loc	28 238 14 is_stmt 0
	leaq	L___unnamed_156(%rip), %rdx
	jmp	LBB130_19
Ltmp910:
LBB130_20:
	.loc	28 262 14 is_stmt 1
	addq	$8, %rbx
Ltmp911:
	.loc	28 238 14
	leaq	L___unnamed_157(%rip), %rdx
	leaq	-48(%rbp), %r14
	movl	$4, %ecx
	jmp	LBB130_21
Ltmp912:
LBB130_22:
	.loc	28 238 14 is_stmt 0
	leaq	L___unnamed_133(%rip), %rdx
Ltmp913:
LBB130_19:
	.loc	28 0 14
	leaq	-48(%rbp), %rbx
Ltmp914:
	.loc	28 238 14
	movl	$4, %ecx
	movq	%rbx, %rdi
	callq	__ZN4core3fmt9Formatter11debug_tuple17h6c448643801d07e8E
Ltmp915:
	.loc	28 0 0
	movq	%rbx, %rdi
	jmp	LBB130_26
LBB130_23:
Ltmp916:
	.loc	28 265 17 is_stmt 1
	addq	$8, %rbx
Ltmp917:
	.loc	28 238 14
	leaq	l___unnamed_158(%rip), %rdx
	leaq	-48(%rbp), %r14
	movl	$7, %ecx
Ltmp918:
LBB130_21:
	.loc	28 0 0 is_stmt 0
	movq	%r14, %rdi
	callq	__ZN4core3fmt9Formatter11debug_tuple17h6c448643801d07e8E
Ltmp919:
	movq	%rbx, -24(%rbp)
	leaq	l___unnamed_20(%rip), %rdx
	jmp	LBB130_25
LBB130_24:
Ltmp920:
	.loc	28 266 13 is_stmt 1
	addq	$8, %rbx
Ltmp921:
	.loc	28 238 14
	leaq	l___unnamed_136(%rip), %rdx
	leaq	-48(%rbp), %r14
	movl	$3, %ecx
	movq	%r14, %rdi
	callq	__ZN4core3fmt9Formatter11debug_tuple17h6c448643801d07e8E
Ltmp922:
	.loc	28 266 13
	movq	%rbx, -24(%rbp)
	.loc	28 238 14
	leaq	l___unnamed_19(%rip), %rdx
	jmp	LBB130_25
Ltmp923:
LBB130_1:
	.loc	28 267 13
	addq	$8, %rbx
Ltmp924:
	.loc	28 238 14
	leaq	l___unnamed_137(%rip), %rdx
	leaq	-48(%rbp), %r14
	movl	$3, %ecx
	movq	%r14, %rdi
	callq	__ZN4core3fmt9Formatter11debug_tuple17h6c448643801d07e8E
Ltmp925:
	.loc	28 267 13
	movq	%rbx, -24(%rbp)
	.loc	28 238 14
	leaq	l___unnamed_18(%rip), %rdx
Ltmp926:
LBB130_25:
	.loc	28 0 14 is_stmt 0
	leaq	-24(%rbp), %rsi
	movq	%r14, %rdi
	callq	__ZN4core3fmt8builders10DebugTuple5field17hc7b676d0e36b51d9E
	movq	%r14, %rdi
LBB130_26:
	callq	__ZN4core3fmt8builders10DebugTuple6finish17h9f206806f7096c33E
	.loc	28 238 19
	addq	$32, %rsp
	popq	%rbx
	popq	%r14
	popq	%rbp
	retq
Ltmp927:
Lfunc_end130:
	.cfi_endproc
	.p2align	2, 0x90
	.data_region jt32
.set L130_0_set_2, LBB130_2-LJTI130_0
.set L130_0_set_3, LBB130_3-LJTI130_0
.set L130_0_set_4, LBB130_4-LJTI130_0
.set L130_0_set_5, LBB130_5-LJTI130_0
.set L130_0_set_6, LBB130_6-LJTI130_0
.set L130_0_set_7, LBB130_7-LJTI130_0
.set L130_0_set_8, LBB130_8-LJTI130_0
.set L130_0_set_9, LBB130_9-LJTI130_0
.set L130_0_set_10, LBB130_10-LJTI130_0
.set L130_0_set_11, LBB130_11-LJTI130_0
.set L130_0_set_12, LBB130_12-LJTI130_0
.set L130_0_set_13, LBB130_13-LJTI130_0
.set L130_0_set_14, LBB130_14-LJTI130_0
.set L130_0_set_15, LBB130_15-LJTI130_0
.set L130_0_set_16, LBB130_16-LJTI130_0
.set L130_0_set_17, LBB130_17-LJTI130_0
.set L130_0_set_18, LBB130_18-LJTI130_0
.set L130_0_set_20, LBB130_20-LJTI130_0
.set L130_0_set_22, LBB130_22-LJTI130_0
.set L130_0_set_23, LBB130_23-LJTI130_0
.set L130_0_set_24, LBB130_24-LJTI130_0
.set L130_0_set_1, LBB130_1-LJTI130_0
LJTI130_0:
	.long	L130_0_set_2
	.long	L130_0_set_3
	.long	L130_0_set_4
	.long	L130_0_set_5
	.long	L130_0_set_6
	.long	L130_0_set_7
	.long	L130_0_set_8
	.long	L130_0_set_9
	.long	L130_0_set_10
	.long	L130_0_set_11
	.long	L130_0_set_12
	.long	L130_0_set_13
	.long	L130_0_set_14
	.long	L130_0_set_15
	.long	L130_0_set_16
	.long	L130_0_set_17
	.long	L130_0_set_18
	.long	L130_0_set_20
	.long	L130_0_set_22
	.long	L130_0_set_23
	.long	L130_0_set_24
	.long	L130_0_set_1
	.end_data_region

	.globl	__ZN63_$LT$serde..private..ser..Error$u20$as$u20$core..fmt..Debug$GT$3fmt17hf6bcfee9e17e4a34E
	.p2align	4, 0x90
__ZN63_$LT$serde..private..ser..Error$u20$as$u20$core..fmt..Debug$GT$3fmt17hf6bcfee9e17e4a34E:
Lfunc_begin131:
	.loc	29 340 0 is_stmt 1
	.cfi_startproc
	pushq	%rbp
	.cfi_def_cfa_offset 16
	.cfi_offset %rbp, -16
	movq	%rsp, %rbp
	.cfi_def_cfa_register %rbp
Ltmp928:
	pushq	%rbx
	subq	$24, %rsp
	.cfi_offset %rbx, -24
	.loc	29 340 10 prologue_end
	leaq	l___unnamed_101(%rip), %rdx
	leaq	-32(%rbp), %rbx
	movl	$5, %ecx
	movq	%rbx, %rdi
Ltmp929:
	callq	__ZN4core3fmt9Formatter11debug_tuple17h6c448643801d07e8E
Ltmp930:
	.loc	29 340 10 is_stmt 0
	movq	%rbx, %rdi
	callq	__ZN4core3fmt8builders10DebugTuple6finish17h9f206806f7096c33E
Ltmp931:
	.loc	29 340 15
	addq	$24, %rsp
	popq	%rbx
	popq	%rbp
	retq
Ltmp932:
Lfunc_end131:
	.cfi_endproc

	.globl	__ZN74_$LT$serde..private..ser..content..Content$u20$as$u20$core..fmt..Debug$GT$3fmt17hcf65f14d7c2f5a75E
	.p2align	4, 0x90
__ZN74_$LT$serde..private..ser..content..Content$u20$as$u20$core..fmt..Debug$GT$3fmt17hcf65f14d7c2f5a75E:
Lfunc_begin132:
	.loc	29 455 0 is_stmt 1
	.cfi_startproc
	pushq	%rbp
	.cfi_def_cfa_offset 16
	.cfi_offset %rbp, -16
	movq	%rsp, %rbp
	.cfi_def_cfa_register %rbp
	pushq	%r15
	pushq	%r14
	pushq	%r13
	pushq	%r12
	pushq	%rbx
	subq	$40, %rsp
	.cfi_offset %rbx, -56
	.cfi_offset %r12, -48
	.cfi_offset %r13, -40
	.cfi_offset %r14, -32
	.cfi_offset %r15, -24
	movq	%rdi, %rbx
Ltmp933:
	.loc	29 455 14 prologue_end
	movzbl	(%rdi), %eax
	leaq	LJTI132_0(%rip), %rcx
	movslq	(%rcx,%rax,4), %rax
	addq	%rcx, %rax
	jmpq	*%rax
Ltmp934:
LBB132_2:
	.loc	29 457 14
	incq	%rbx
Ltmp935:
	.loc	29 455 14
	leaq	L___unnamed_126(%rip), %rdx
	leaq	-72(%rbp), %r14
	movl	$4, %ecx
	movq	%r14, %rdi
	callq	__ZN4core3fmt9Formatter11debug_tuple17h6c448643801d07e8E
Ltmp936:
	.loc	29 457 14
	movq	%rbx, -48(%rbp)
	.loc	29 455 14
	leaq	l___unnamed_17(%rip), %rdx
	jmp	LBB132_36
Ltmp937:
LBB132_3:
	.loc	29 459 12
	incq	%rbx
Ltmp938:
	.loc	29 455 14
	leaq	l___unnamed_144(%rip), %rdx
	leaq	-72(%rbp), %r14
	movl	$2, %ecx
	movq	%r14, %rdi
	callq	__ZN4core3fmt9Formatter11debug_tuple17h6c448643801d07e8E
Ltmp939:
	.loc	29 459 12
	movq	%rbx, -48(%rbp)
	.loc	29 455 14
	leaq	l___unnamed_5(%rip), %rdx
	jmp	LBB132_36
Ltmp940:
LBB132_4:
	.loc	29 460 13
	addq	$2, %rbx
Ltmp941:
	.loc	29 455 14
	leaq	l___unnamed_145(%rip), %rdx
	leaq	-72(%rbp), %r14
	movl	$3, %ecx
	movq	%r14, %rdi
	callq	__ZN4core3fmt9Formatter11debug_tuple17h6c448643801d07e8E
Ltmp942:
	.loc	29 460 13
	movq	%rbx, -48(%rbp)
	.loc	29 455 14
	leaq	l___unnamed_28(%rip), %rdx
	jmp	LBB132_36
Ltmp943:
LBB132_5:
	.loc	29 461 13
	addq	$4, %rbx
Ltmp944:
	.loc	29 455 14
	leaq	l___unnamed_146(%rip), %rdx
	leaq	-72(%rbp), %r14
	movl	$3, %ecx
	movq	%r14, %rdi
	callq	__ZN4core3fmt9Formatter11debug_tuple17h6c448643801d07e8E
Ltmp945:
	.loc	29 461 13
	movq	%rbx, -48(%rbp)
	.loc	29 455 14
	leaq	l___unnamed_27(%rip), %rdx
	jmp	LBB132_36
Ltmp946:
LBB132_6:
	.loc	29 462 13
	addq	$8, %rbx
Ltmp947:
	.loc	29 455 14
	leaq	l___unnamed_147(%rip), %rdx
	leaq	-72(%rbp), %r14
	movl	$3, %ecx
	movq	%r14, %rdi
	callq	__ZN4core3fmt9Formatter11debug_tuple17h6c448643801d07e8E
Ltmp948:
	.loc	29 462 13
	movq	%rbx, -48(%rbp)
	.loc	29 455 14
	leaq	l___unnamed_16(%rip), %rdx
	jmp	LBB132_36
Ltmp949:
LBB132_7:
	.loc	29 464 12
	incq	%rbx
Ltmp950:
	.loc	29 455 14
	leaq	l___unnamed_148(%rip), %rdx
	leaq	-72(%rbp), %r14
	movl	$2, %ecx
	movq	%r14, %rdi
	callq	__ZN4core3fmt9Formatter11debug_tuple17h6c448643801d07e8E
Ltmp951:
	.loc	29 464 12
	movq	%rbx, -48(%rbp)
	.loc	29 455 14
	leaq	l___unnamed_26(%rip), %rdx
	jmp	LBB132_36
Ltmp952:
LBB132_8:
	.loc	29 465 13
	addq	$2, %rbx
Ltmp953:
	.loc	29 455 14
	leaq	l___unnamed_149(%rip), %rdx
	leaq	-72(%rbp), %r14
	movl	$3, %ecx
	movq	%r14, %rdi
	callq	__ZN4core3fmt9Formatter11debug_tuple17h6c448643801d07e8E
Ltmp954:
	.loc	29 465 13
	movq	%rbx, -48(%rbp)
	.loc	29 455 14
	leaq	l___unnamed_25(%rip), %rdx
	jmp	LBB132_36
Ltmp955:
LBB132_9:
	.loc	29 466 13
	addq	$4, %rbx
Ltmp956:
	.loc	29 455 14
	leaq	l___unnamed_150(%rip), %rdx
	leaq	-72(%rbp), %r14
	movl	$3, %ecx
	movq	%r14, %rdi
	callq	__ZN4core3fmt9Formatter11debug_tuple17h6c448643801d07e8E
Ltmp957:
	.loc	29 466 13
	movq	%rbx, -48(%rbp)
	.loc	29 455 14
	leaq	l___unnamed_24(%rip), %rdx
	jmp	LBB132_36
Ltmp958:
LBB132_10:
	.loc	29 467 13
	addq	$8, %rbx
Ltmp959:
	.loc	29 455 14
	leaq	l___unnamed_151(%rip), %rdx
	leaq	-72(%rbp), %r14
	movl	$3, %ecx
	movq	%r14, %rdi
	callq	__ZN4core3fmt9Formatter11debug_tuple17h6c448643801d07e8E
Ltmp960:
	.loc	29 467 13
	movq	%rbx, -48(%rbp)
	.loc	29 455 14
	leaq	l___unnamed_15(%rip), %rdx
	jmp	LBB132_36
Ltmp961:
LBB132_11:
	.loc	29 469 13
	addq	$4, %rbx
Ltmp962:
	.loc	29 455 14
	leaq	l___unnamed_152(%rip), %rdx
	leaq	-72(%rbp), %r14
	movl	$3, %ecx
	movq	%r14, %rdi
	callq	__ZN4core3fmt9Formatter11debug_tuple17h6c448643801d07e8E
Ltmp963:
	.loc	29 469 13
	movq	%rbx, -48(%rbp)
	.loc	29 455 14
	leaq	l___unnamed_23(%rip), %rdx
	jmp	LBB132_36
Ltmp964:
LBB132_12:
	.loc	29 470 13
	addq	$8, %rbx
Ltmp965:
	.loc	29 455 14
	leaq	l___unnamed_153(%rip), %rdx
	leaq	-72(%rbp), %r14
	movl	$3, %ecx
	movq	%r14, %rdi
	callq	__ZN4core3fmt9Formatter11debug_tuple17h6c448643801d07e8E
Ltmp966:
	.loc	29 470 13
	movq	%rbx, -48(%rbp)
	.loc	29 455 14
	leaq	l___unnamed_14(%rip), %rdx
	jmp	LBB132_36
Ltmp967:
LBB132_13:
	.loc	29 472 14
	addq	$4, %rbx
Ltmp968:
	.loc	29 455 14
	leaq	L___unnamed_130(%rip), %rdx
	leaq	-72(%rbp), %r14
	movl	$4, %ecx
	movq	%r14, %rdi
	callq	__ZN4core3fmt9Formatter11debug_tuple17h6c448643801d07e8E
Ltmp969:
	.loc	29 472 14
	movq	%rbx, -48(%rbp)
	.loc	29 455 14
	leaq	l___unnamed_13(%rip), %rdx
	jmp	LBB132_36
Ltmp970:
LBB132_14:
	.loc	29 473 16
	addq	$8, %rbx
Ltmp971:
	.loc	29 455 14
	leaq	l___unnamed_154(%rip), %rdx
	leaq	-72(%rbp), %r14
	movl	$6, %ecx
	movq	%r14, %rdi
	callq	__ZN4core3fmt9Formatter11debug_tuple17h6c448643801d07e8E
Ltmp972:
	.loc	29 473 16
	movq	%rbx, -48(%rbp)
	.loc	29 455 14
	leaq	l___unnamed_22(%rip), %rdx
	jmp	LBB132_36
Ltmp973:
LBB132_15:
	.loc	29 474 15
	addq	$8, %rbx
Ltmp974:
	.loc	29 455 14
	leaq	l___unnamed_132(%rip), %rdx
	leaq	-72(%rbp), %r14
	movl	$5, %ecx
	movq	%r14, %rdi
	callq	__ZN4core3fmt9Formatter11debug_tuple17h6c448643801d07e8E
Ltmp975:
	.loc	29 474 15
	movq	%rbx, -48(%rbp)
	.loc	29 455 14
	leaq	l___unnamed_21(%rip), %rdx
	jmp	LBB132_36
Ltmp976:
LBB132_16:
	.loc	29 455 14 is_stmt 0
	leaq	L___unnamed_156(%rip), %rdx
	jmp	LBB132_17
Ltmp977:
LBB132_18:
	.loc	29 477 14 is_stmt 1
	addq	$8, %rbx
Ltmp978:
	.loc	29 455 14
	leaq	L___unnamed_157(%rip), %rdx
	leaq	-72(%rbp), %r14
	movl	$4, %ecx
	movq	%r14, %rdi
	callq	__ZN4core3fmt9Formatter11debug_tuple17h6c448643801d07e8E
Ltmp979:
	.loc	29 0 14 is_stmt 0
	jmp	LBB132_24
Ltmp980:
LBB132_19:
	.loc	29 455 14
	leaq	L___unnamed_133(%rip), %rdx
Ltmp981:
LBB132_17:
	.loc	29 0 14
	leaq	-72(%rbp), %rbx
Ltmp982:
	.loc	29 455 14
	movl	$4, %ecx
	movq	%rbx, %rdi
	callq	__ZN4core3fmt9Formatter11debug_tuple17h6c448643801d07e8E
Ltmp983:
	.loc	29 0 0
	movq	%rbx, %rdi
	jmp	LBB132_38
LBB132_20:
Ltmp984:
	.loc	29 480 20 is_stmt 1
	addq	$8, %rbx
Ltmp985:
	.loc	29 455 14
	leaq	l___unnamed_159(%rip), %rdx
	leaq	-72(%rbp), %r14
	movl	$10, %ecx
	movq	%r14, %rdi
	callq	__ZN4core3fmt9Formatter11debug_tuple17h6c448643801d07e8E
Ltmp986:
	.loc	29 480 20
	movq	%rbx, -48(%rbp)
	.loc	29 455 14
	leaq	l___unnamed_9(%rip), %rdx
	jmp	LBB132_36
Ltmp987:
LBB132_21:
	.loc	29 481 21
	leaq	8(%rbx), %r15
	.loc	29 481 35 is_stmt 0
	leaq	4(%rbx), %r12
	.loc	29 481 40
	addq	$24, %rbx
Ltmp988:
	.loc	29 455 14 is_stmt 1
	leaq	l___unnamed_139(%rip), %rdx
	leaq	-72(%rbp), %r14
	movl	$11, %ecx
	movq	%r14, %rdi
	callq	__ZN4core3fmt9Formatter11debug_tuple17h6c448643801d07e8E
Ltmp989:
	.loc	29 481 21
	movq	%r15, -48(%rbp)
	.loc	29 455 14
	leaq	l___unnamed_9(%rip), %r15
Ltmp990:
	.loc	29 0 14 is_stmt 0
	leaq	-48(%rbp), %rsi
	.loc	29 455 14
	movq	%r14, %rdi
	movq	%r15, %rdx
	callq	__ZN4core3fmt8builders10DebugTuple5field17hc7b676d0e36b51d9E
	.loc	29 481 35 is_stmt 1
	movq	%r12, -48(%rbp)
	.loc	29 455 14
	leaq	l___unnamed_27(%rip), %rdx
	leaq	-48(%rbp), %rsi
	movq	%r14, %rdi
	callq	__ZN4core3fmt8builders10DebugTuple5field17hc7b676d0e36b51d9E
	.loc	29 481 40
	movq	%rbx, -48(%rbp)
	leaq	-48(%rbp), %rsi
	.loc	29 455 14
	movq	%r14, %rdi
	movq	%r15, %rdx
	jmp	LBB132_37
Ltmp991:
LBB132_22:
	.loc	29 482 23
	leaq	8(%rbx), %r15
	.loc	29 482 37 is_stmt 0
	addq	$24, %rbx
Ltmp992:
	.loc	29 455 14 is_stmt 1
	leaq	l___unnamed_135(%rip), %rdx
	leaq	-72(%rbp), %r14
	movl	$13, %ecx
	movq	%r14, %rdi
	callq	__ZN4core3fmt9Formatter11debug_tuple17h6c448643801d07e8E
Ltmp993:
	.loc	29 482 23
	movq	%r15, -48(%rbp)
	.loc	29 455 14
	leaq	l___unnamed_9(%rip), %rdx
	leaq	-48(%rbp), %rsi
	movq	%r14, %rdi
	jmp	LBB132_23
Ltmp994:
LBB132_25:
	.loc	29 483 24
	leaq	8(%rbx), %r15
	.loc	29 483 38 is_stmt 0
	leaq	4(%rbx), %r12
	.loc	29 483 43
	leaq	24(%rbx), %r13
	.loc	29 483 57
	addq	$40, %rbx
Ltmp995:
	.loc	29 455 14 is_stmt 1
	leaq	l___unnamed_140(%rip), %rdx
	leaq	-72(%rbp), %r14
	movl	$14, %ecx
	movq	%r14, %rdi
	callq	__ZN4core3fmt9Formatter11debug_tuple17h6c448643801d07e8E
Ltmp996:
	.loc	29 483 24
	movq	%r15, -48(%rbp)
	.loc	29 455 14
	leaq	l___unnamed_9(%rip), %r15
Ltmp997:
	.loc	29 0 14 is_stmt 0
	leaq	-48(%rbp), %rsi
	.loc	29 455 14
	movq	%r14, %rdi
	movq	%r15, %rdx
	callq	__ZN4core3fmt8builders10DebugTuple5field17hc7b676d0e36b51d9E
	.loc	29 483 38 is_stmt 1
	movq	%r12, -48(%rbp)
	.loc	29 455 14
	leaq	l___unnamed_27(%rip), %rdx
	leaq	-48(%rbp), %rsi
	movq	%r14, %rdi
	callq	__ZN4core3fmt8builders10DebugTuple5field17hc7b676d0e36b51d9E
	.loc	29 483 43
	movq	%r13, -48(%rbp)
	leaq	-48(%rbp), %rsi
	.loc	29 455 14
	movq	%r14, %rdi
	movq	%r15, %rdx
Ltmp998:
LBB132_23:
	.loc	29 0 0 is_stmt 0
	callq	__ZN4core3fmt8builders10DebugTuple5field17hc7b676d0e36b51d9E
LBB132_24:
	movq	%rbx, -48(%rbp)
	leaq	l___unnamed_32(%rip), %rdx
	jmp	LBB132_36
LBB132_26:
Ltmp999:
	.loc	29 485 13 is_stmt 1
	addq	$8, %rbx
Ltmp1000:
	.loc	29 455 14
	leaq	l___unnamed_136(%rip), %rdx
	leaq	-72(%rbp), %r14
	movl	$3, %ecx
	jmp	LBB132_27
Ltmp1001:
LBB132_28:
	.loc	29 486 15
	addq	$8, %rbx
Ltmp1002:
	.loc	29 455 14
	leaq	l___unnamed_160(%rip), %rdx
	leaq	-72(%rbp), %r14
	movl	$5, %ecx
Ltmp1003:
LBB132_27:
	.loc	29 0 0 is_stmt 0
	movq	%r14, %rdi
	callq	__ZN4core3fmt9Formatter11debug_tuple17h6c448643801d07e8E
Ltmp1004:
	jmp	LBB132_31
LBB132_29:
Ltmp1005:
	.loc	29 487 21 is_stmt 1
	leaq	8(%rbx), %r15
	.loc	29 487 35 is_stmt 0
	addq	$24, %rbx
Ltmp1006:
	.loc	29 455 14 is_stmt 1
	leaq	l___unnamed_161(%rip), %rdx
	leaq	-72(%rbp), %r14
	movl	$11, %ecx
	movq	%r14, %rdi
	callq	__ZN4core3fmt9Formatter11debug_tuple17h6c448643801d07e8E
Ltmp1007:
	.loc	29 487 21
	movq	%r15, -48(%rbp)
	.loc	29 455 14
	leaq	l___unnamed_9(%rip), %rdx
	leaq	-48(%rbp), %rsi
	movq	%r14, %rdi
	jmp	LBB132_30
Ltmp1008:
LBB132_32:
	.loc	29 488 22
	leaq	8(%rbx), %r15
	.loc	29 488 36 is_stmt 0
	leaq	4(%rbx), %r12
	.loc	29 488 41
	leaq	24(%rbx), %r13
	.loc	29 488 55
	addq	$40, %rbx
Ltmp1009:
	.loc	29 455 14 is_stmt 1
	leaq	l___unnamed_141(%rip), %rdx
	leaq	-72(%rbp), %r14
	movl	$12, %ecx
	movq	%r14, %rdi
	callq	__ZN4core3fmt9Formatter11debug_tuple17h6c448643801d07e8E
Ltmp1010:
	.loc	29 488 22
	movq	%r15, -48(%rbp)
	.loc	29 455 14
	leaq	l___unnamed_9(%rip), %r15
Ltmp1011:
	.loc	29 0 14 is_stmt 0
	leaq	-48(%rbp), %rsi
	.loc	29 455 14
	movq	%r14, %rdi
	movq	%r15, %rdx
	callq	__ZN4core3fmt8builders10DebugTuple5field17hc7b676d0e36b51d9E
	.loc	29 488 36 is_stmt 1
	movq	%r12, -48(%rbp)
	.loc	29 455 14
	leaq	l___unnamed_27(%rip), %rdx
	leaq	-48(%rbp), %rsi
	movq	%r14, %rdi
	callq	__ZN4core3fmt8builders10DebugTuple5field17hc7b676d0e36b51d9E
	.loc	29 488 41
	movq	%r13, -48(%rbp)
	leaq	-48(%rbp), %rsi
	.loc	29 455 14
	movq	%r14, %rdi
	movq	%r15, %rdx
Ltmp1012:
LBB132_30:
	.loc	29 0 0 is_stmt 0
	callq	__ZN4core3fmt8builders10DebugTuple5field17hc7b676d0e36b51d9E
LBB132_31:
	movq	%rbx, -48(%rbp)
	leaq	l___unnamed_31(%rip), %rdx
	jmp	LBB132_36
LBB132_33:
Ltmp1013:
	.loc	29 489 13 is_stmt 1
	addq	$8, %rbx
Ltmp1014:
	.loc	29 455 14
	leaq	l___unnamed_137(%rip), %rdx
	leaq	-72(%rbp), %r14
	movl	$3, %ecx
	movq	%r14, %rdi
	callq	__ZN4core3fmt9Formatter11debug_tuple17h6c448643801d07e8E
Ltmp1015:
	.loc	29 489 13
	movq	%rbx, -48(%rbp)
	.loc	29 455 14
	leaq	l___unnamed_30(%rip), %rdx
	jmp	LBB132_36
Ltmp1016:
LBB132_34:
	.loc	29 490 16
	leaq	8(%rbx), %r15
	.loc	29 490 30 is_stmt 0
	addq	$24, %rbx
Ltmp1017:
	.loc	29 455 14 is_stmt 1
	leaq	l___unnamed_162(%rip), %rdx
	leaq	-72(%rbp), %r14
	movl	$6, %ecx
	movq	%r14, %rdi
	callq	__ZN4core3fmt9Formatter11debug_tuple17h6c448643801d07e8E
Ltmp1018:
	.loc	29 490 16
	movq	%r15, -48(%rbp)
	.loc	29 455 14
	leaq	l___unnamed_9(%rip), %rdx
	leaq	-48(%rbp), %rsi
	movq	%r14, %rdi
	jmp	LBB132_35
Ltmp1019:
LBB132_1:
	.loc	29 493 13
	leaq	4(%rbx), %r12
	.loc	29 494 13
	leaq	24(%rbx), %r13
	.loc	29 492 13
	leaq	8(%rbx), %r15
	.loc	29 495 13
	addq	$40, %rbx
Ltmp1020:
	.loc	29 455 14
	leaq	l___unnamed_142(%rip), %rdx
	leaq	-72(%rbp), %r14
	movl	$13, %ecx
	movq	%r14, %rdi
	callq	__ZN4core3fmt9Formatter11debug_tuple17h6c448643801d07e8E
Ltmp1021:
	.loc	29 492 13
	movq	%r15, -48(%rbp)
	.loc	29 455 14
	leaq	l___unnamed_9(%rip), %r15
	leaq	-48(%rbp), %rsi
	movq	%r14, %rdi
	movq	%r15, %rdx
	callq	__ZN4core3fmt8builders10DebugTuple5field17hc7b676d0e36b51d9E
	.loc	29 493 13
	movq	%r12, -48(%rbp)
	.loc	29 455 14
	leaq	l___unnamed_27(%rip), %rdx
	leaq	-48(%rbp), %rsi
	movq	%r14, %rdi
	callq	__ZN4core3fmt8builders10DebugTuple5field17hc7b676d0e36b51d9E
	.loc	29 494 13
	movq	%r13, -48(%rbp)
	leaq	-48(%rbp), %rsi
	.loc	29 455 14
	movq	%r14, %rdi
	movq	%r15, %rdx
Ltmp1022:
LBB132_35:
	.loc	29 0 0 is_stmt 0
	callq	__ZN4core3fmt8builders10DebugTuple5field17hc7b676d0e36b51d9E
	movq	%rbx, -48(%rbp)
	leaq	l___unnamed_29(%rip), %rdx
LBB132_36:
	leaq	-48(%rbp), %rsi
	movq	%r14, %rdi
LBB132_37:
	callq	__ZN4core3fmt8builders10DebugTuple5field17hc7b676d0e36b51d9E
	movq	%r14, %rdi
LBB132_38:
	callq	__ZN4core3fmt8builders10DebugTuple6finish17h9f206806f7096c33E
	.loc	29 455 19
	addq	$40, %rsp
	popq	%rbx
	popq	%r12
	popq	%r13
	popq	%r14
	popq	%r15
	popq	%rbp
	retq
Ltmp1023:
Lfunc_end132:
	.cfi_endproc
	.p2align	2, 0x90
	.data_region jt32
.set L132_0_set_2, LBB132_2-LJTI132_0
.set L132_0_set_3, LBB132_3-LJTI132_0
.set L132_0_set_4, LBB132_4-LJTI132_0
.set L132_0_set_5, LBB132_5-LJTI132_0
.set L132_0_set_6, LBB132_6-LJTI132_0
.set L132_0_set_7, LBB132_7-LJTI132_0
.set L132_0_set_8, LBB132_8-LJTI132_0
.set L132_0_set_9, LBB132_9-LJTI132_0
.set L132_0_set_10, LBB132_10-LJTI132_0
.set L132_0_set_11, LBB132_11-LJTI132_0
.set L132_0_set_12, LBB132_12-LJTI132_0
.set L132_0_set_13, LBB132_13-LJTI132_0
.set L132_0_set_14, LBB132_14-LJTI132_0
.set L132_0_set_15, LBB132_15-LJTI132_0
.set L132_0_set_16, LBB132_16-LJTI132_0
.set L132_0_set_18, LBB132_18-LJTI132_0
.set L132_0_set_19, LBB132_19-LJTI132_0
.set L132_0_set_20, LBB132_20-LJTI132_0
.set L132_0_set_21, LBB132_21-LJTI132_0
.set L132_0_set_22, LBB132_22-LJTI132_0
.set L132_0_set_25, LBB132_25-LJTI132_0
.set L132_0_set_26, LBB132_26-LJTI132_0
.set L132_0_set_28, LBB132_28-LJTI132_0
.set L132_0_set_29, LBB132_29-LJTI132_0
.set L132_0_set_32, LBB132_32-LJTI132_0
.set L132_0_set_33, LBB132_33-LJTI132_0
.set L132_0_set_34, LBB132_34-LJTI132_0
.set L132_0_set_1, LBB132_1-LJTI132_0
LJTI132_0:
	.long	L132_0_set_2
	.long	L132_0_set_3
	.long	L132_0_set_4
	.long	L132_0_set_5
	.long	L132_0_set_6
	.long	L132_0_set_7
	.long	L132_0_set_8
	.long	L132_0_set_9
	.long	L132_0_set_10
	.long	L132_0_set_11
	.long	L132_0_set_12
	.long	L132_0_set_13
	.long	L132_0_set_14
	.long	L132_0_set_15
	.long	L132_0_set_16
	.long	L132_0_set_18
	.long	L132_0_set_19
	.long	L132_0_set_20
	.long	L132_0_set_21
	.long	L132_0_set_22
	.long	L132_0_set_25
	.long	L132_0_set_26
	.long	L132_0_set_28
	.long	L132_0_set_29
	.long	L132_0_set_32
	.long	L132_0_set_33
	.long	L132_0_set_34
	.long	L132_0_set_1
	.end_data_region

	.section	__DATA,__const
	.p2align	3
l___unnamed_1:
	.quad	__ZN4core3ptr13drop_in_place17h0877a56d335f5affE
	.quad	16
	.quad	8
	.quad	__ZN91_$LT$std..panicking..begin_panic..PanicPayload$LT$A$GT$$u20$as$u20$core..panic..BoxMeUp$GT$8take_box17h2e23f7b9624339f1E
	.quad	__ZN91_$LT$std..panicking..begin_panic..PanicPayload$LT$A$GT$$u20$as$u20$core..panic..BoxMeUp$GT$3get17h3f2d155e1bf61c0cE

	.p2align	3
l___unnamed_2:
	.quad	__ZN4core3ptr13drop_in_place17h0877a56d335f5affE
	.quad	8
	.quad	8
	.quad	__ZN42_$LT$$RF$T$u20$as$u20$core..fmt..Debug$GT$3fmt17he8caae78b27b8446E

	.p2align	3
l___unnamed_3:
	.quad	__ZN4core3ptr13drop_in_place17h0877a56d335f5affE
	.quad	8
	.quad	8
	.quad	__ZN42_$LT$$RF$T$u20$as$u20$core..fmt..Debug$GT$3fmt17h94cc5f6140055b22E

	.p2align	3
l___unnamed_4:
	.quad	__ZN4core3ptr13drop_in_place17h0877a56d335f5affE
	.quad	8
	.quad	8
	.quad	__ZN42_$LT$$RF$T$u20$as$u20$core..fmt..Debug$GT$3fmt17h8b8fb43eb1892d3aE

	.p2align	3
l___unnamed_5:
	.quad	__ZN4core3ptr13drop_in_place17h0877a56d335f5affE
	.quad	8
	.quad	8
	.quad	__ZN42_$LT$$RF$T$u20$as$u20$core..fmt..Debug$GT$3fmt17hbfbab5824c11dba1E

	.p2align	3
l___unnamed_6:
	.quad	__ZN4core3ptr13drop_in_place17h0877a56d335f5affE
	.quad	8
	.quad	8
	.quad	__ZN42_$LT$$RF$T$u20$as$u20$core..fmt..Debug$GT$3fmt17h611c97b3f144c76aE

	.p2align	3
l___unnamed_7:
	.quad	__ZN4core3ptr13drop_in_place17h0877a56d335f5affE
	.quad	8
	.quad	8
	.quad	__ZN42_$LT$$RF$T$u20$as$u20$core..fmt..Debug$GT$3fmt17h31ee741d61678ed5E

	.section	__TEXT,__const
l___unnamed_59:
	.ascii	"called `Result::unwrap()` on an `Err` value"

	.section	__DATA,__const
	.p2align	3
l___unnamed_8:
	.quad	__ZN4core3ptr13drop_in_place17h0877a56d335f5affE
	.quad	16
	.quad	8
	.quad	__ZN57_$LT$core..str..Utf8Error$u20$as$u20$core..fmt..Debug$GT$3fmt17h8b3ce0811b1626a0E

	.section	__TEXT,__const
	.p2align	3
l___unnamed_33:
	.byte	0

	.section	__DATA,__const
	.p2align	3
l___unnamed_9:
	.quad	__ZN4core3ptr13drop_in_place17h0877a56d335f5affE
	.quad	8
	.quad	8
	.quad	__ZN42_$LT$$RF$T$u20$as$u20$core..fmt..Debug$GT$3fmt17h4f2958e1ce48c93fE

	.p2align	3
l___unnamed_10:
	.quad	__ZN4core3ptr13drop_in_place17h0877a56d335f5affE
	.quad	16
	.quad	8
	.quad	__ZN36_$LT$T$u20$as$u20$core..any..Any$GT$7type_id17h8dc7195ddbc4b32fE

	.section	__TEXT,__const
l___unnamed_163:
	.ascii	"1 element in sequence"

	.section	__DATA,__const
	.p2align	3
l___unnamed_34:
	.quad	l___unnamed_163
	.asciz	"\025\000\000\000\000\000\000"

	.section	__TEXT,__const
l___unnamed_164:
	.ascii	" elements in sequence"

	.section	__DATA,__const
	.p2align	3
l___unnamed_35:
	.quad	l___unnamed_33
	.space	8
	.quad	l___unnamed_164
	.asciz	"\025\000\000\000\000\000\000"

	.section	__TEXT,__literal16,16byte_literals
L___unnamed_165:
	.ascii	"1 element in map"

	.section	__DATA,__const
	.p2align	3
l___unnamed_36:
	.quad	L___unnamed_165
	.asciz	"\020\000\000\000\000\000\000"

	.section	__TEXT,__literal16,16byte_literals
L___unnamed_166:
	.ascii	" elements in map"

	.section	__DATA,__const
	.p2align	3
l___unnamed_37:
	.quad	l___unnamed_33
	.space	8
	.quad	L___unnamed_166
	.asciz	"\020\000\000\000\000\000\000"

	.section	__TEXT,__const
l___unnamed_38:
	.ascii	"anything at all"

	.section	__TEXT,__literal4,4byte_literals
L___unnamed_39:
	.ascii	"unit"

	.section	__TEXT,__const
l___unnamed_40:
	.ascii	"a boolean"

l___unnamed_41:
	.ascii	"a character"

	.section	__TEXT,__literal8,8byte_literals
L___unnamed_42:
	.ascii	"a string"

	.section	__TEXT,__const
l___unnamed_43:
	.ascii	"a borrowed string"

l___unnamed_44:
	.ascii	"a borrowed byte array"

l___unnamed_45:
	.ascii	"byte array"

l___unnamed_46:
	.ascii	"IP address"

l___unnamed_47:
	.ascii	"socket address"

l___unnamed_48:
	.ascii	"a borrowed path"

l___unnamed_49:
	.ascii	"path string"

l___unnamed_50:
	.ascii	"os string"

l___unnamed_51:
	.ascii	"`secs` or `nanos`"

l___unnamed_52:
	.ascii	"struct Duration"

l___unnamed_53:
	.ascii	"`secs_since_epoch` or `nanos_since_epoch`"

l___unnamed_54:
	.ascii	"struct SystemTime"

	.section	__TEXT,__literal16,16byte_literals
L___unnamed_55:
	.ascii	"`start` or `end`"

	.section	__TEXT,__const
l___unnamed_56:
	.ascii	"`Unbounded`, `Included` or `Excluded`"

l___unnamed_57:
	.ascii	"`Ok` or `Err`"

l___unnamed_167:
	.ascii	"/Users/yingyuhang/.cargo/registry/src/github.com-1ecc6299db9ec823/serde-1.0.114/src/de/utf8.rs"

	.section	__DATA,__const
	.p2align	3
l___unnamed_58:
	.quad	l___unnamed_167
	.asciz	"^\000\000\000\000\000\000\000,\000\000\000\031\000\000"

	.p2align	3
l___unnamed_60:
	.quad	l___unnamed_167
	.asciz	"^\000\000\000\000\000\000\000,\000\000\000/\000\000"

	.section	__TEXT,__const
l___unnamed_168:
	.ascii	"struct variant"

	.section	__DATA,__const
	.p2align	3
l___unnamed_76:
	.quad	l___unnamed_168
	.asciz	"\016\000\000\000\000\000\000"

	.section	__TEXT,__const
l___unnamed_169:
	.ascii	"tuple variant"

	.section	__DATA,__const
	.p2align	3
l___unnamed_75:
	.quad	l___unnamed_169
	.asciz	"\r\000\000\000\000\000\000"

	.section	__TEXT,__const
l___unnamed_170:
	.ascii	"newtype variant"

	.section	__DATA,__const
	.p2align	3
l___unnamed_74:
	.quad	l___unnamed_170
	.asciz	"\017\000\000\000\000\000\000"

	.section	__TEXT,__const
l___unnamed_171:
	.ascii	"unit variant"

	.section	__DATA,__const
	.p2align	3
l___unnamed_73:
	.quad	l___unnamed_171
	.asciz	"\f\000\000\000\000\000\000"

	.section	__TEXT,__literal4,4byte_literals
L___unnamed_172:
	.ascii	"enum"

	.section	__DATA,__const
	.p2align	3
l___unnamed_72:
	.quad	L___unnamed_172
	.asciz	"\004\000\000\000\000\000\000"

	.section	__TEXT,__const
l___unnamed_173:
	.ascii	"map"

	.section	__DATA,__const
	.p2align	3
l___unnamed_71:
	.quad	l___unnamed_173
	.asciz	"\003\000\000\000\000\000\000"

	.section	__TEXT,__literal8,8byte_literals
L___unnamed_174:
	.ascii	"sequence"

	.section	__DATA,__const
	.p2align	3
l___unnamed_70:
	.quad	L___unnamed_174
	.asciz	"\b\000\000\000\000\000\000"

	.section	__TEXT,__const
l___unnamed_175:
	.ascii	"newtype struct"

	.section	__DATA,__const
	.p2align	3
l___unnamed_69:
	.quad	l___unnamed_175
	.asciz	"\016\000\000\000\000\000\000"

	.section	__TEXT,__const
l___unnamed_176:
	.ascii	"Option value"

	.section	__DATA,__const
	.p2align	3
l___unnamed_68:
	.quad	l___unnamed_176
	.asciz	"\f\000\000\000\000\000\000"

	.section	__TEXT,__const
l___unnamed_177:
	.ascii	"unit value"

	.section	__DATA,__const
	.p2align	3
l___unnamed_67:
	.quad	l___unnamed_177
	.asciz	"\n\000\000\000\000\000\000"

	.p2align	3
l___unnamed_66:
	.quad	l___unnamed_45
	.asciz	"\n\000\000\000\000\000\000"

	.section	__TEXT,__const
l___unnamed_178:
	.ascii	"string "

	.section	__DATA,__const
	.p2align	3
l___unnamed_65:
	.quad	l___unnamed_178
	.asciz	"\007\000\000\000\000\000\000"

	.section	__TEXT,__const
l___unnamed_179:
	.ascii	"character `"

l___unnamed_180:
	.byte	96

	.section	__DATA,__const
	.p2align	3
l___unnamed_64:
	.quad	l___unnamed_179
	.asciz	"\013\000\000\000\000\000\000"
	.quad	l___unnamed_180
	.asciz	"\001\000\000\000\000\000\000"

	.section	__TEXT,__literal16,16byte_literals
L___unnamed_181:
	.ascii	"floating point `"

	.section	__DATA,__const
	.p2align	3
l___unnamed_63:
	.quad	L___unnamed_181
	.asciz	"\020\000\000\000\000\000\000"
	.quad	l___unnamed_180
	.asciz	"\001\000\000\000\000\000\000"

	.section	__TEXT,__const
l___unnamed_182:
	.ascii	"integer `"

	.section	__DATA,__const
	.p2align	3
l___unnamed_62:
	.quad	l___unnamed_182
	.asciz	"\t\000\000\000\000\000\000"
	.quad	l___unnamed_180
	.asciz	"\001\000\000\000\000\000\000"

	.section	__TEXT,__const
l___unnamed_183:
	.ascii	"boolean `"

	.section	__DATA,__const
	.p2align	3
l___unnamed_61:
	.quad	l___unnamed_183
	.asciz	"\t\000\000\000\000\000\000"
	.quad	l___unnamed_180
	.asciz	"\001\000\000\000\000\000\000"

	.section	__TEXT,__const
l___unnamed_184:
	.ascii	"one of "

	.section	__DATA,__const
	.p2align	3
l___unnamed_77:
	.quad	l___unnamed_184
	.asciz	"\007\000\000\000\000\000\000"

	.section	__TEXT,__const
l___unnamed_185:
	.ascii	", "

	.section	__DATA,__const
	.p2align	3
l___unnamed_78:
	.quad	l___unnamed_185
	.asciz	"\002\000\000\000\000\000\000"

	.p2align	3
l___unnamed_79:
	.quad	l___unnamed_180
	.asciz	"\001\000\000\000\000\000\000"
	.quad	l___unnamed_180
	.asciz	"\001\000\000\000\000\000\000"

	.section	__TEXT,__const
l___unnamed_186:
	.ascii	"` or `"

	.section	__DATA,__const
	.p2align	3
l___unnamed_80:
	.quad	l___unnamed_180
	.asciz	"\001\000\000\000\000\000\000"
	.quad	l___unnamed_186
	.asciz	"\006\000\000\000\000\000\000"
	.quad	l___unnamed_180
	.asciz	"\001\000\000\000\000\000\000"

	.section	__TEXT,__const
l___unnamed_187:
	.ascii	"/Users/yingyuhang/.cargo/registry/src/github.com-1ecc6299db9ec823/serde-1.0.114/src/de/mod.rs"

l___unnamed_81:
	.ascii	"explicit panic"

	.section	__DATA,__const
	.p2align	3
l___unnamed_82:
	.quad	l___unnamed_187
	.asciz	"]\000\000\000\000\000\000\000\325\b\000\000\022\000\000"

	.section	__TEXT,__const
l___unnamed_83:
	.ascii	"a byte array"

l___unnamed_84:
	.ascii	"any value"

l___unnamed_188:
	.ascii	"a type tag `"

l___unnamed_189:
	.ascii	"` or any other value"

	.section	__DATA,__const
	.p2align	3
l___unnamed_85:
	.quad	l___unnamed_188
	.asciz	"\f\000\000\000\000\000\000"
	.quad	l___unnamed_189
	.asciz	"\024\000\000\000\000\000\000"

	.section	__TEXT,__literal4,4byte_literals
L___unnamed_190:
	.ascii	" or "

	.section	__DATA,__const
	.p2align	3
l___unnamed_86:
	.quad	l___unnamed_33
	.space	8
	.quad	L___unnamed_190
	.asciz	"\004\000\000\000\000\000\000"

	.section	__TEXT,__const
l___unnamed_191:
	.ascii	", or other ignored fields"

	.section	__DATA,__const
	.p2align	3
l___unnamed_87:
	.quad	l___unnamed_33
	.space	8
	.quad	l___unnamed_185
	.asciz	"\002\000\000\000\000\000\000"
	.quad	l___unnamed_191
	.asciz	"\031\000\000\000\000\000\000"

	.section	__TEXT,__const
l___unnamed_192:
	.ascii	"unit variant "

l___unnamed_193:
	.space	2,58

	.section	__DATA,__const
	.p2align	3
l___unnamed_88:
	.quad	l___unnamed_192
	.asciz	"\r\000\000\000\000\000\000"
	.quad	l___unnamed_193
	.asciz	"\002\000\000\000\000\000\000"

	.section	__TEXT,__const
l___unnamed_97:
	.ascii	"an enum"

l___unnamed_96:
	.ascii	"a tuple struct"

l___unnamed_95:
	.ascii	"a tuple"

l___unnamed_94:
	.ascii	"a sequence"

l___unnamed_93:
	.ascii	"unit struct"

l___unnamed_92:
	.ascii	"an optional"

l___unnamed_91:
	.ascii	"a char"

l___unnamed_90:
	.ascii	"a float"

l___unnamed_89:
	.ascii	"an integer"

l___unnamed_98:
	.ascii	"not implemented"

l___unnamed_194:
	.ascii	"/Users/yingyuhang/.cargo/registry/src/github.com-1ecc6299db9ec823/serde-1.0.114/src/private/ser.rs"

	.section	__DATA,__const
	.p2align	3
l___unnamed_99:
	.quad	l___unnamed_194
	.asciz	"b\000\000\000\000\000\000\000c\001\000\000\t\000\000"

	.p2align	3
l___unnamed_100:
	.quad	l___unnamed_194
	.asciz	"b\000\000\000\000\000\000\000i\001\000\000\t\000\000"

	.section	__TEXT,__const
l___unnamed_101:
	.ascii	"Error"

l___unnamed_102:
	.ascii	"err"

	.section	__DATA,__const
	.p2align	3
l___unnamed_11:
	.quad	__ZN4core3ptr13drop_in_place17h0877a56d335f5affE
	.quad	8
	.quad	8
	.quad	__ZN42_$LT$$RF$T$u20$as$u20$core..fmt..Debug$GT$3fmt17h35775c0defef1f39E

	.section	__TEXT,__const
l___unnamed_103:
	.ascii	"IgnoredAny"

l___unnamed_104:
	.ascii	"i8"

l___unnamed_105:
	.ascii	"i16"

l___unnamed_106:
	.ascii	"i32"

l___unnamed_107:
	.ascii	"i64"

l___unnamed_108:
	.ascii	"isize"

l___unnamed_109:
	.ascii	"u8"

l___unnamed_110:
	.ascii	"u16"

l___unnamed_111:
	.ascii	"u32"

l___unnamed_112:
	.ascii	"u64"

l___unnamed_113:
	.ascii	"usize"

l___unnamed_114:
	.ascii	"f32"

l___unnamed_115:
	.ascii	"f64"

	.section	__TEXT,__literal4,4byte_literals
L___unnamed_116:
	.ascii	"i128"

L___unnamed_117:
	.ascii	"u128"

	.section	__TEXT,__literal8,8byte_literals
L___unnamed_118:
	.ascii	"a IpAddr"

	.section	__TEXT,__const
l___unnamed_195:
	.ascii	"V4"

l___unnamed_196:
	.ascii	"V6"

	.section	__DATA,__const
	.p2align	3
l___unnamed_197:
	.quad	l___unnamed_195
	.asciz	"\002\000\000\000\000\000\000"
	.quad	l___unnamed_196
	.asciz	"\002\000\000\000\000\000\000"

	.globl	__ZN5serde2de5impls73_$LT$impl$u20$serde..de..Deserialize$u20$for$u20$std..net..ip..IpAddr$GT$11deserialize8VARIANTS17h8a9df0782ab49456E
	.p2align	3
__ZN5serde2de5impls73_$LT$impl$u20$serde..de..Deserialize$u20$for$u20$std..net..ip..IpAddr$GT$11deserialize8VARIANTS17h8a9df0782ab49456E:
	.quad	l___unnamed_197
	.asciz	"\002\000\000\000\000\000\000"

	.section	__TEXT,__const
l___unnamed_119:
	.ascii	"`V4` or `V6`"

l___unnamed_120:
	.ascii	"IPv4 address"

l___unnamed_121:
	.ascii	"IPv6 address"

l___unnamed_122:
	.ascii	"a SocketAddr"

	.section	__DATA,__const
	.globl	__ZN5serde2de5impls79_$LT$impl$u20$serde..de..Deserialize$u20$for$u20$std..net..addr..SocketAddr$GT$11deserialize8VARIANTS17h4000d244384a99b8E
	.p2align	3
__ZN5serde2de5impls79_$LT$impl$u20$serde..de..Deserialize$u20$for$u20$std..net..addr..SocketAddr$GT$11deserialize8VARIANTS17h4000d244384a99b8E:
	.quad	l___unnamed_197
	.asciz	"\002\000\000\000\000\000\000"

	.section	__TEXT,__const
l___unnamed_123:
	.ascii	"IPv4 socket address"

l___unnamed_124:
	.ascii	"IPv6 socket address"

	.section	__TEXT,__literal4,4byte_literals
L___unnamed_198:
	.ascii	"Unix"

	.section	__TEXT,__const
l___unnamed_199:
	.ascii	"Windows"

	.section	__DATA,__const
	.p2align	3
l___unnamed_200:
	.quad	L___unnamed_198
	.asciz	"\004\000\000\000\000\000\000"
	.quad	l___unnamed_199
	.asciz	"\007\000\000\000\000\000\000"

	.globl	__ZN5serde2de5impls14OSSTR_VARIANTS17h03c799f745dfaca6E
	.p2align	3
__ZN5serde2de5impls14OSSTR_VARIANTS17h03c799f745dfaca6E:
	.quad	l___unnamed_200
	.asciz	"\002\000\000\000\000\000\000"

	.section	__TEXT,__const
l___unnamed_125:
	.ascii	"`Unix` or `Windows`"

l___unnamed_143:
	.ascii	"Other"

l___unnamed_142:
	.ascii	"StructVariant"

l___unnamed_141:
	.ascii	"TupleVariant"

l___unnamed_140:
	.ascii	"NewtypeVariant"

l___unnamed_139:
	.ascii	"UnitVariant"

	.section	__TEXT,__literal4,4byte_literals
L___unnamed_138:
	.ascii	"Enum"

	.section	__TEXT,__const
l___unnamed_137:
	.ascii	"Map"

l___unnamed_136:
	.ascii	"Seq"

l___unnamed_135:
	.ascii	"NewtypeStruct"

l___unnamed_134:
	.ascii	"Option"

	.section	__TEXT,__literal4,4byte_literals
L___unnamed_133:
	.ascii	"Unit"

	.section	__TEXT,__const
l___unnamed_132:
	.ascii	"Bytes"

	.section	__DATA,__const
	.p2align	3
l___unnamed_12:
	.quad	__ZN4core3ptr13drop_in_place17h0877a56d335f5affE
	.quad	8
	.quad	8
	.quad	__ZN42_$LT$$RF$T$u20$as$u20$core..fmt..Debug$GT$3fmt17hb4c7782e08d49ec1E

	.section	__TEXT,__const
l___unnamed_131:
	.ascii	"Str"

	.section	__TEXT,__literal4,4byte_literals
L___unnamed_130:
	.ascii	"Char"

	.section	__DATA,__const
	.p2align	3
l___unnamed_13:
	.quad	__ZN4core3ptr13drop_in_place17h0877a56d335f5affE
	.quad	8
	.quad	8
	.quad	__ZN42_$LT$$RF$T$u20$as$u20$core..fmt..Debug$GT$3fmt17h334cca15724704bcE

	.section	__TEXT,__const
l___unnamed_129:
	.ascii	"Float"

	.section	__DATA,__const
	.p2align	3
l___unnamed_14:
	.quad	__ZN4core3ptr13drop_in_place17h0877a56d335f5affE
	.quad	8
	.quad	8
	.quad	__ZN42_$LT$$RF$T$u20$as$u20$core..fmt..Debug$GT$3fmt17hfadd46babeffee1cE

	.section	__TEXT,__const
l___unnamed_128:
	.ascii	"Signed"

	.section	__DATA,__const
	.p2align	3
l___unnamed_15:
	.quad	__ZN4core3ptr13drop_in_place17h0877a56d335f5affE
	.quad	8
	.quad	8
	.quad	__ZN42_$LT$$RF$T$u20$as$u20$core..fmt..Debug$GT$3fmt17h1780001c5014600bE

	.section	__TEXT,__literal8,8byte_literals
L___unnamed_127:
	.ascii	"Unsigned"

	.section	__DATA,__const
	.p2align	3
l___unnamed_16:
	.quad	__ZN4core3ptr13drop_in_place17h0877a56d335f5affE
	.quad	8
	.quad	8
	.quad	__ZN42_$LT$$RF$T$u20$as$u20$core..fmt..Debug$GT$3fmt17heb9a324c7bbd9297E

	.section	__TEXT,__literal4,4byte_literals
L___unnamed_126:
	.ascii	"Bool"

	.section	__DATA,__const
	.p2align	3
l___unnamed_17:
	.quad	__ZN4core3ptr13drop_in_place17h0877a56d335f5affE
	.quad	8
	.quad	8
	.quad	__ZN42_$LT$$RF$T$u20$as$u20$core..fmt..Debug$GT$3fmt17h3d93bd2ad7f68443E

	.p2align	3
l___unnamed_18:
	.quad	__ZN4core3ptr13drop_in_place17h0877a56d335f5affE
	.quad	8
	.quad	8
	.quad	__ZN42_$LT$$RF$T$u20$as$u20$core..fmt..Debug$GT$3fmt17hcae4e28567d913a7E

	.p2align	3
l___unnamed_19:
	.quad	__ZN4core3ptr13drop_in_place17h0877a56d335f5affE
	.quad	8
	.quad	8
	.quad	__ZN42_$LT$$RF$T$u20$as$u20$core..fmt..Debug$GT$3fmt17hf6eca57603fe59e5E

	.section	__TEXT,__const
l___unnamed_158:
	.ascii	"Newtype"

	.section	__DATA,__const
	.p2align	3
l___unnamed_20:
	.quad	__ZN4core3ptr13drop_in_place17h0877a56d335f5affE
	.quad	8
	.quad	8
	.quad	__ZN42_$LT$$RF$T$u20$as$u20$core..fmt..Debug$GT$3fmt17ha247993b1d956318E

	.section	__TEXT,__literal4,4byte_literals
L___unnamed_157:
	.ascii	"Some"

L___unnamed_156:
	.ascii	"None"

	.section	__TEXT,__const
l___unnamed_155:
	.ascii	"ByteBuf"

	.section	__DATA,__const
	.p2align	3
l___unnamed_21:
	.quad	__ZN4core3ptr13drop_in_place17h0877a56d335f5affE
	.quad	8
	.quad	8
	.quad	__ZN42_$LT$$RF$T$u20$as$u20$core..fmt..Debug$GT$3fmt17h32746ff95ce53557E

	.section	__TEXT,__const
l___unnamed_154:
	.ascii	"String"

	.section	__DATA,__const
	.p2align	3
l___unnamed_22:
	.quad	__ZN4core3ptr13drop_in_place17h0877a56d335f5affE
	.quad	8
	.quad	8
	.quad	__ZN42_$LT$$RF$T$u20$as$u20$core..fmt..Debug$GT$3fmt17h13d50759f614286bE

	.section	__TEXT,__const
l___unnamed_153:
	.ascii	"F64"

l___unnamed_152:
	.ascii	"F32"

	.section	__DATA,__const
	.p2align	3
l___unnamed_23:
	.quad	__ZN4core3ptr13drop_in_place17h0877a56d335f5affE
	.quad	8
	.quad	8
	.quad	__ZN42_$LT$$RF$T$u20$as$u20$core..fmt..Debug$GT$3fmt17hbdedd4d3e505d932E

	.section	__TEXT,__const
l___unnamed_151:
	.ascii	"I64"

l___unnamed_150:
	.ascii	"I32"

	.section	__DATA,__const
	.p2align	3
l___unnamed_24:
	.quad	__ZN4core3ptr13drop_in_place17h0877a56d335f5affE
	.quad	8
	.quad	8
	.quad	__ZN42_$LT$$RF$T$u20$as$u20$core..fmt..Debug$GT$3fmt17hceedf27153126e6dE

	.section	__TEXT,__const
l___unnamed_149:
	.ascii	"I16"

	.section	__DATA,__const
	.p2align	3
l___unnamed_25:
	.quad	__ZN4core3ptr13drop_in_place17h0877a56d335f5affE
	.quad	8
	.quad	8
	.quad	__ZN42_$LT$$RF$T$u20$as$u20$core..fmt..Debug$GT$3fmt17h574ff52fe5ecfe13E

	.section	__TEXT,__const
l___unnamed_148:
	.ascii	"I8"

	.section	__DATA,__const
	.p2align	3
l___unnamed_26:
	.quad	__ZN4core3ptr13drop_in_place17h0877a56d335f5affE
	.quad	8
	.quad	8
	.quad	__ZN42_$LT$$RF$T$u20$as$u20$core..fmt..Debug$GT$3fmt17h268cd1520e5a4ce8E

	.section	__TEXT,__const
l___unnamed_147:
	.ascii	"U64"

l___unnamed_146:
	.ascii	"U32"

	.section	__DATA,__const
	.p2align	3
l___unnamed_27:
	.quad	__ZN4core3ptr13drop_in_place17h0877a56d335f5affE
	.quad	8
	.quad	8
	.quad	__ZN42_$LT$$RF$T$u20$as$u20$core..fmt..Debug$GT$3fmt17h3279030a39ba3de5E

	.section	__TEXT,__const
l___unnamed_145:
	.ascii	"U16"

	.section	__DATA,__const
	.p2align	3
l___unnamed_28:
	.quad	__ZN4core3ptr13drop_in_place17h0877a56d335f5affE
	.quad	8
	.quad	8
	.quad	__ZN42_$LT$$RF$T$u20$as$u20$core..fmt..Debug$GT$3fmt17h4dcb1798f3817d97E

	.section	__TEXT,__const
l___unnamed_144:
	.ascii	"U8"

	.section	__DATA,__const
	.p2align	3
l___unnamed_29:
	.quad	__ZN4core3ptr13drop_in_place17h0877a56d335f5affE
	.quad	8
	.quad	8
	.quad	__ZN42_$LT$$RF$T$u20$as$u20$core..fmt..Debug$GT$3fmt17hefdf76b3114796ffE

	.section	__TEXT,__const
l___unnamed_162:
	.ascii	"Struct"

	.section	__DATA,__const
	.p2align	3
l___unnamed_30:
	.quad	__ZN4core3ptr13drop_in_place17h0877a56d335f5affE
	.quad	8
	.quad	8
	.quad	__ZN42_$LT$$RF$T$u20$as$u20$core..fmt..Debug$GT$3fmt17h7e6d1b5ee752a18dE

	.p2align	3
l___unnamed_31:
	.quad	__ZN4core3ptr13drop_in_place17h0877a56d335f5affE
	.quad	8
	.quad	8
	.quad	__ZN42_$LT$$RF$T$u20$as$u20$core..fmt..Debug$GT$3fmt17h5f267e941ad7c336E

	.section	__TEXT,__const
l___unnamed_161:
	.ascii	"TupleStruct"

l___unnamed_160:
	.ascii	"Tuple"

	.section	__DATA,__const
	.p2align	3
l___unnamed_32:
	.quad	__ZN4core3ptr13drop_in_place17h0877a56d335f5affE
	.quad	8
	.quad	8
	.quad	__ZN42_$LT$$RF$T$u20$as$u20$core..fmt..Debug$GT$3fmt17h4eb5c62d9729621dE

	.section	__TEXT,__const
l___unnamed_159:
	.ascii	"UnitStruct"

	.section	__DATA,__const
Lsec_end0:
	.section	__TEXT,__text,regular,pure_instructions
Lsec_end1: