	.section	__TEXT,__text,regular,pure_instructions
	.macosx_version_min 10, 7
	.file	1 "/Users/yingyuhang/.cargo/registry/src/github.com-1ecc6299db9ec823/time-0.1.43/src/sys.rs"
	.file	2 "/Users/yingyuhang/.cargo/registry/src/github.com-1ecc6299db9ec823/time-0.1.43/src/lib.rs"
	.p2align	4, 0x90
__ZN36_$LT$T$u20$as$u20$core..any..Any$GT$7type_id17h89e028784008e310E:
Lfunc_begin0:
	.file	3 "/rustc/6c8927b0cf80ceee19386026cf9d7fd4fd9d486f/src/libcore/any.rs"
	.loc	3 109 0
	.cfi_startproc
	pushq	%rbp
	.cfi_def_cfa_offset 16
	.cfi_offset %rbp, -16
	movq	%rsp, %rbp
	.cfi_def_cfa_register %rbp
	movabsq	$9147559743429524724, %rax
Ltmp0:
	.loc	3 111 6 prologue_end
	popq	%rbp
	retq
Ltmp1:
Lfunc_end0:
	.cfi_endproc

	.p2align	4, 0x90
__ZN3std4sync4once4Once9call_once28_$u7b$$u7b$closure$u7d$$u7d$17h70c2bf36ed85d26eE:
Lfunc_begin1:
	.file	4 "/rustc/6c8927b0cf80ceee19386026cf9d7fd4fd9d486f/src/libstd/sync/once.rs"
	.loc	4 265 0
	.cfi_startproc
	pushq	%rbp
	.cfi_def_cfa_offset 16
	.cfi_offset %rbp, -16
	movq	%rsp, %rbp
	.cfi_def_cfa_register %rbp
Ltmp2:
	.loc	4 265 41 prologue_end
	movq	(%rdi), %rax
Ltmp3:
	.file	5 "/rustc/6c8927b0cf80ceee19386026cf9d7fd4fd9d486f/src/libcore/option.rs"
	.loc	5 385 13
	testb	$1, (%rax)
Ltmp4:
	.file	6 "/rustc/6c8927b0cf80ceee19386026cf9d7fd4fd9d486f/src/libcore/intrinsics.rs"
	.loc	6 2130 14
	movb	$0, (%rax)
Ltmp5:
	.loc	5 385 13
	je	LBB1_1
Ltmp6:
	.loc	1 360 21
	leaq	__ZN4time3sys5inner3mac4info4INFO17h58c48d2ae670867cE(%rip), %rdi
Ltmp7:
	popq	%rbp
	jmp	_mach_timebase_info
Ltmp8:
LBB1_1:
	.file	7 "/rustc/6c8927b0cf80ceee19386026cf9d7fd4fd9d486f/src/libcore/macros/mod.rs"
	.loc	7 10 9
	leaq	l___unnamed_15(%rip), %rdi
Ltmp9:
	leaq	l___unnamed_16(%rip), %rdx
	movl	$43, %esi
Ltmp10:
	callq	__ZN4core9panicking5panic17h383a6b80ea7021aaE
Ltmp11:
Lfunc_end1:
	.cfi_endproc
	.file	8 "/rustc/6c8927b0cf80ceee19386026cf9d7fd4fd9d486f/src/libcore/ptr/mod.rs"
	.file	9 "/rustc/6c8927b0cf80ceee19386026cf9d7fd4fd9d486f/src/libcore/mem/mod.rs"

	.p2align	4, 0x90
__ZN3std9panicking11begin_panic17hb2ff5062115317caE:
Lfunc_begin2:
	.file	10 "/rustc/6c8927b0cf80ceee19386026cf9d7fd4fd9d486f/src/libstd/panicking.rs"
	.loc	10 451 0
	.cfi_startproc
	pushq	%rbp
	.cfi_def_cfa_offset 16
	.cfi_offset %rbp, -16
	movq	%rsp, %rbp
	.cfi_def_cfa_register %rbp
	subq	$16, %rsp
Ltmp12:
	.loc	10 456 31 prologue_end
	movq	%rdi, -16(%rbp)
	movq	%rsi, -8(%rbp)
	.loc	10 456 61 is_stmt 0
	movq	%rdx, %rdi
Ltmp13:
	callq	__ZN4core5panic8Location6caller17hb284bf0993c43fcaE
Ltmp14:
	.loc	10 456 5
	leaq	l___unnamed_2(%rip), %rsi
	leaq	-16(%rbp), %rdi
	xorl	%edx, %edx
	movq	%rax, %rcx
	callq	__ZN3std9panicking20rust_panic_with_hook17h720143ee15fc80baE
Ltmp15:
Lfunc_end2:
	.cfi_endproc

	.p2align	4, 0x90
__ZN42_$LT$$RF$T$u20$as$u20$core..fmt..Debug$GT$3fmt17h14f166f32406529eE:
Lfunc_begin3:
	.file	11 "/rustc/6c8927b0cf80ceee19386026cf9d7fd4fd9d486f/src/libcore/fmt/mod.rs"
	.loc	11 2022 0 is_stmt 1
	.cfi_startproc
	pushq	%rbp
	.cfi_def_cfa_offset 16
	.cfi_offset %rbp, -16
	movq	%rsp, %rbp
	.cfi_def_cfa_register %rbp
	pushq	%r14
	pushq	%rbx
	.cfi_offset %rbx, -32
	.cfi_offset %r14, -24
	movq	%rsi, %rbx
Ltmp16:
	.loc	11 2022 71 prologue_end
	movq	(%rdi), %r14
Ltmp17:
	.file	12 "/rustc/6c8927b0cf80ceee19386026cf9d7fd4fd9d486f/src/libcore/fmt/num.rs"
	.loc	12 149 20
	movq	%rsi, %rdi
Ltmp18:
	callq	__ZN4core3fmt9Formatter15debug_lower_hex17hd07f6fde8d0365dfE
	.loc	12 149 17 is_stmt 0
	testb	%al, %al
	je	LBB3_1
Ltmp19:
	.loc	12 150 21 is_stmt 1
	movq	%r14, %rdi
	movq	%rbx, %rsi
	popq	%rbx
Ltmp20:
	popq	%r14
Ltmp21:
	popq	%rbp
	jmp	__ZN4core3fmt3num53_$LT$impl$u20$core..fmt..LowerHex$u20$for$u20$i32$GT$3fmt17hb7ffbd061f7948a2E
LBB3_1:
Ltmp22:
	.loc	12 151 27
	movq	%rbx, %rdi
	callq	__ZN4core3fmt9Formatter15debug_upper_hex17hf480c256a9c81c1eE
	.loc	12 154 21
	movq	%r14, %rdi
	movq	%rbx, %rsi
	.loc	12 151 24
	testb	%al, %al
	je	LBB3_4
Ltmp23:
	.loc	12 152 21
	popq	%rbx
Ltmp24:
	popq	%r14
Ltmp25:
	popq	%rbp
	jmp	__ZN4core3fmt3num53_$LT$impl$u20$core..fmt..UpperHex$u20$for$u20$i32$GT$3fmt17hbb8d8cd7e36208d7E
LBB3_4:
Ltmp26:
	.loc	12 154 21
	popq	%rbx
Ltmp27:
	popq	%r14
Ltmp28:
	popq	%rbp
	jmp	__ZN4core3fmt3num3imp52_$LT$impl$u20$core..fmt..Display$u20$for$u20$i32$GT$3fmt17h00ed7ff77f9da654E
Ltmp29:
Lfunc_end3:
	.cfi_endproc

	.p2align	4, 0x90
__ZN42_$LT$$RF$T$u20$as$u20$core..fmt..Debug$GT$3fmt17h172946e0362adc84E:
Lfunc_begin4:
	.loc	11 2022 0
	.cfi_startproc
	pushq	%rbp
	.cfi_def_cfa_offset 16
	.cfi_offset %rbp, -16
	movq	%rsp, %rbp
	.cfi_def_cfa_register %rbp
Ltmp30:
	.loc	11 2022 71 prologue_end
	movq	(%rdi), %rax
	.loc	11 2022 62 is_stmt 0
	movq	(%rax), %rdi
Ltmp31:
	.loc	11 2022 62
	popq	%rbp
	jmp	__ZN45_$LT$time..Tm$u20$as$u20$core..fmt..Debug$GT$3fmt17h8235f66ccda0c667E
Ltmp32:
Lfunc_end4:
	.cfi_endproc

	.p2align	4, 0x90
__ZN42_$LT$$RF$T$u20$as$u20$core..fmt..Debug$GT$3fmt17h1764c389b0abbfb1E:
Lfunc_begin5:
	.loc	11 2022 0 is_stmt 1
	.cfi_startproc
	pushq	%rbp
	.cfi_def_cfa_offset 16
	.cfi_offset %rbp, -16
	movq	%rsp, %rbp
	.cfi_def_cfa_register %rbp
	pushq	%r14
	pushq	%rbx
	.cfi_offset %rbx, -32
	.cfi_offset %r14, -24
	movq	%rsi, %rbx
Ltmp33:
	.loc	11 2022 71 prologue_end
	movq	(%rdi), %r14
Ltmp34:
	.loc	12 149 20
	movq	%rsi, %rdi
Ltmp35:
	callq	__ZN4core3fmt9Formatter15debug_lower_hex17hd07f6fde8d0365dfE
	.loc	12 149 17 is_stmt 0
	testb	%al, %al
	je	LBB5_1
Ltmp36:
	.loc	12 150 21 is_stmt 1
	movq	%r14, %rdi
	movq	%rbx, %rsi
	popq	%rbx
Ltmp37:
	popq	%r14
Ltmp38:
	popq	%rbp
	jmp	__ZN4core3fmt3num53_$LT$impl$u20$core..fmt..LowerHex$u20$for$u20$u64$GT$3fmt17hb1b2554e6a6ce90cE
LBB5_1:
Ltmp39:
	.loc	12 151 27
	movq	%rbx, %rdi
	callq	__ZN4core3fmt9Formatter15debug_upper_hex17hf480c256a9c81c1eE
	.loc	12 154 21
	movq	%r14, %rdi
	movq	%rbx, %rsi
	.loc	12 151 24
	testb	%al, %al
	je	LBB5_4
Ltmp40:
	.loc	12 152 21
	popq	%rbx
Ltmp41:
	popq	%r14
Ltmp42:
	popq	%rbp
	jmp	__ZN4core3fmt3num53_$LT$impl$u20$core..fmt..UpperHex$u20$for$u20$u64$GT$3fmt17h67a4ddf8c7fd5f2bE
LBB5_4:
Ltmp43:
	.loc	12 154 21
	popq	%rbx
Ltmp44:
	popq	%r14
Ltmp45:
	popq	%rbp
	jmp	__ZN4core3fmt3num3imp52_$LT$impl$u20$core..fmt..Display$u20$for$u20$u64$GT$3fmt17h3230c9bc78e30ed1E
Ltmp46:
Lfunc_end5:
	.cfi_endproc

	.p2align	4, 0x90
__ZN42_$LT$$RF$T$u20$as$u20$core..fmt..Debug$GT$3fmt17h1d71b5c4895fb1e3E:
Lfunc_begin6:
	.loc	11 2022 0
	.cfi_startproc
	pushq	%rbp
	.cfi_def_cfa_offset 16
	.cfi_offset %rbp, -16
	movq	%rsp, %rbp
	.cfi_def_cfa_register %rbp
Ltmp47:
	pushq	%r14
	pushq	%rbx
	subq	$32, %rsp
	.cfi_offset %rbx, -32
	.cfi_offset %r14, -24
	.loc	11 2022 71 prologue_end
	movq	(%rdi), %rbx
Ltmp48:
	.loc	1 383 63
	leaq	l___unnamed_17(%rip), %rdx
	leaq	-40(%rbp), %r14
	movl	$10, %ecx
	movq	%r14, %rdi
Ltmp49:
	callq	__ZN4core3fmt9Formatter12debug_struct17ha1a64e91d2a98458E
Ltmp50:
	.loc	1 384 33
	movq	%rbx, -24(%rbp)
	.loc	1 383 63
	leaq	l___unnamed_18(%rip), %rsi
	leaq	l___unnamed_9(%rip), %r8
	leaq	-24(%rbp), %rcx
	movl	$1, %edx
	movq	%r14, %rdi
	callq	__ZN4core3fmt8builders11DebugStruct5field17h6c54d35ac41bb1e6E
	movq	%r14, %rdi
	callq	__ZN4core3fmt8builders11DebugStruct6finish17h67ed49fd5e81bb24E
Ltmp51:
	.loc	11 2022 84
	addq	$32, %rsp
	popq	%rbx
	popq	%r14
	popq	%rbp
	retq
Ltmp52:
Lfunc_end6:
	.cfi_endproc

	.p2align	4, 0x90
__ZN42_$LT$$RF$T$u20$as$u20$core..fmt..Debug$GT$3fmt17h2788de0bd687d1d6E:
Lfunc_begin7:
	.loc	11 2022 0
	.cfi_startproc
	pushq	%rbp
	.cfi_def_cfa_offset 16
	.cfi_offset %rbp, -16
	movq	%rsp, %rbp
	.cfi_def_cfa_register %rbp
Ltmp53:
	.loc	11 2022 71 prologue_end
	movq	(%rdi), %rdi
Ltmp54:
	.loc	11 2022 62 is_stmt 0
	popq	%rbp
	jmp	__ZN41_$LT$char$u20$as$u20$core..fmt..Debug$GT$3fmt17hc4827edc88149effE
Ltmp55:
Lfunc_end7:
	.cfi_endproc

	.p2align	4, 0x90
__ZN42_$LT$$RF$T$u20$as$u20$core..fmt..Debug$GT$3fmt17h298ad2fa1cb0ab37E:
Lfunc_begin8:
	.loc	11 2022 0 is_stmt 1
	.cfi_startproc
	pushq	%rbp
	.cfi_def_cfa_offset 16
	.cfi_offset %rbp, -16
	movq	%rsp, %rbp
	.cfi_def_cfa_register %rbp
	pushq	%r14
	pushq	%rbx
	.cfi_offset %rbx, -32
	.cfi_offset %r14, -24
	movq	%rsi, %rbx
Ltmp56:
	.loc	11 2022 71 prologue_end
	movq	(%rdi), %r14
Ltmp57:
	.loc	12 149 20
	movq	%rsi, %rdi
Ltmp58:
	callq	__ZN4core3fmt9Formatter15debug_lower_hex17hd07f6fde8d0365dfE
	.loc	12 149 17 is_stmt 0
	testb	%al, %al
	je	LBB8_1
Ltmp59:
	.loc	12 150 21 is_stmt 1
	movq	%r14, %rdi
	movq	%rbx, %rsi
	popq	%rbx
Ltmp60:
	popq	%r14
Ltmp61:
	popq	%rbp
	jmp	__ZN4core3fmt3num53_$LT$impl$u20$core..fmt..LowerHex$u20$for$u20$i64$GT$3fmt17h4ef40751c6de7de0E
LBB8_1:
Ltmp62:
	.loc	12 151 27
	movq	%rbx, %rdi
	callq	__ZN4core3fmt9Formatter15debug_upper_hex17hf480c256a9c81c1eE
	.loc	12 154 21
	movq	%r14, %rdi
	movq	%rbx, %rsi
	.loc	12 151 24
	testb	%al, %al
	je	LBB8_4
Ltmp63:
	.loc	12 152 21
	popq	%rbx
Ltmp64:
	popq	%r14
Ltmp65:
	popq	%rbp
	jmp	__ZN4core3fmt3num53_$LT$impl$u20$core..fmt..UpperHex$u20$for$u20$i64$GT$3fmt17h98e190490afbae54E
LBB8_4:
Ltmp66:
	.loc	12 154 21
	popq	%rbx
Ltmp67:
	popq	%r14
Ltmp68:
	popq	%rbp
	jmp	__ZN4core3fmt3num3imp52_$LT$impl$u20$core..fmt..Display$u20$for$u20$i64$GT$3fmt17h310ed6661e8c983fE
Ltmp69:
Lfunc_end8:
	.cfi_endproc

	.p2align	4, 0x90
__ZN42_$LT$$RF$T$u20$as$u20$core..fmt..Debug$GT$3fmt17h987b73743396d2c2E:
Lfunc_begin9:
	.loc	11 2022 0
	.cfi_startproc
	pushq	%rbp
	.cfi_def_cfa_offset 16
	.cfi_offset %rbp, -16
	movq	%rsp, %rbp
	.cfi_def_cfa_register %rbp
Ltmp70:
	.loc	11 2022 71 prologue_end
	movq	(%rdi), %rdi
Ltmp71:
	.loc	11 2022 62 is_stmt 0
	popq	%rbp
	jmp	__ZN46_$LT$time..Fmt$u20$as$u20$core..fmt..Debug$GT$3fmt17hd4fb8a66ddb5ff1dE
Ltmp72:
Lfunc_end9:
	.cfi_endproc

	.p2align	4, 0x90
__ZN42_$LT$$RF$T$u20$as$u20$core..fmt..Debug$GT$3fmt17hbdfdda3686a670b9E:
Lfunc_begin10:
	.loc	11 2022 0 is_stmt 1
	.cfi_startproc
	pushq	%rbp
	.cfi_def_cfa_offset 16
	.cfi_offset %rbp, -16
	movq	%rsp, %rbp
	.cfi_def_cfa_register %rbp
	movq	%rsi, %rdi
Ltmp73:
	.loc	11 2219 9 prologue_end
	leaq	l___unnamed_19(%rip), %rsi
	movl	$2, %edx
	popq	%rbp
	jmp	__ZN4core3fmt9Formatter3pad17h426409b23b74b394E
Ltmp74:
Lfunc_end10:
	.cfi_endproc

	.p2align	4, 0x90
__ZN42_$LT$$RF$T$u20$as$u20$core..fmt..Debug$GT$3fmt17hd4eab2299db81453E:
Lfunc_begin11:
	.loc	11 2022 0
	.cfi_startproc
	pushq	%rbp
	.cfi_def_cfa_offset 16
	.cfi_offset %rbp, -16
	movq	%rsp, %rbp
	.cfi_def_cfa_register %rbp
	movq	%rsi, %rdx
Ltmp75:
	.loc	11 2022 71 prologue_end
	movq	(%rdi), %rax
	.loc	11 2022 62 is_stmt 0
	movq	(%rax), %rdi
Ltmp76:
	movq	8(%rax), %rsi
Ltmp77:
	.loc	11 2022 62
	popq	%rbp
	jmp	__ZN40_$LT$str$u20$as$u20$core..fmt..Debug$GT$3fmt17h5b42b6f497bd434cE
Ltmp78:
Lfunc_end11:
	.cfi_endproc

	.p2align	4, 0x90
__ZN44_$LT$$RF$T$u20$as$u20$core..fmt..Display$GT$3fmt17h080c4a41bb931208E:
Lfunc_begin12:
	.loc	11 2022 0 is_stmt 1
	.cfi_startproc
	pushq	%rbp
	.cfi_def_cfa_offset 16
	.cfi_offset %rbp, -16
	movq	%rsp, %rbp
	.cfi_def_cfa_register %rbp
Ltmp79:
	.loc	11 2022 71 prologue_end
	movq	(%rdi), %rdi
Ltmp80:
	.loc	11 2022 62 is_stmt 0
	popq	%rbp
	jmp	__ZN4time7display60_$LT$impl$u20$core..fmt..Display$u20$for$u20$time..TmFmt$GT$3fmt17hf2e21f568ec45d5dE
Ltmp81:
Lfunc_end12:
	.cfi_endproc

	.p2align	4, 0x90
__ZN44_$LT$$RF$T$u20$as$u20$core..fmt..Display$GT$3fmt17hac30e52e8e54b2bdE:
Lfunc_begin13:
	.loc	11 2022 0 is_stmt 1
	.cfi_startproc
	pushq	%rbp
	.cfi_def_cfa_offset 16
	.cfi_offset %rbp, -16
	movq	%rsp, %rbp
	.cfi_def_cfa_register %rbp
	movq	%rsi, %rdx
Ltmp82:
	.loc	11 2022 71 prologue_end
	movq	(%rdi), %rax
	movq	8(%rdi), %rsi
	.loc	11 2022 62 is_stmt 0
	movq	%rax, %rdi
Ltmp83:
	popq	%rbp
	jmp	__ZN42_$LT$str$u20$as$u20$core..fmt..Display$GT$3fmt17h6768afae62e94f93E
Ltmp84:
Lfunc_end13:
	.cfi_endproc

	.p2align	4, 0x90
__ZN4core3ops8function6FnOnce40call_once$u7b$$u7b$vtable.shim$u7d$$u7d$17h6f6576f9ecee25edE:
Lfunc_begin14:
	.file	13 "/rustc/6c8927b0cf80ceee19386026cf9d7fd4fd9d486f/src/libcore/ops/function.rs"
	.loc	13 233 0 is_stmt 1
	.cfi_startproc
	pushq	%rbp
	.cfi_def_cfa_offset 16
	.cfi_offset %rbp, -16
	movq	%rsp, %rbp
	.cfi_def_cfa_register %rbp
Ltmp85:
	.loc	13 233 5 prologue_end
	movq	(%rdi), %rax
Ltmp86:
	.loc	5 385 13
	testb	$1, (%rax)
Ltmp87:
	.loc	6 2130 14
	movb	$0, (%rax)
Ltmp88:
	.loc	5 385 13
	je	LBB14_1
Ltmp89:
	.loc	1 360 21
	leaq	__ZN4time3sys5inner3mac4info4INFO17h58c48d2ae670867cE(%rip), %rdi
Ltmp90:
	popq	%rbp
	jmp	_mach_timebase_info
Ltmp91:
LBB14_1:
	.loc	7 10 9
	leaq	l___unnamed_15(%rip), %rdi
Ltmp92:
	leaq	l___unnamed_16(%rip), %rdx
	movl	$43, %esi
Ltmp93:
	callq	__ZN4core9panicking5panic17h383a6b80ea7021aaE
Ltmp94:
Lfunc_end14:
	.cfi_endproc

	.p2align	4, 0x90
__ZN4core3ptr13drop_in_place17h01293111e1645fd7E:
Lfunc_begin15:
	.loc	8 184 0
	.cfi_startproc
	pushq	%rbp
	.cfi_def_cfa_offset 16
	.cfi_offset %rbp, -16
	movq	%rsp, %rbp
	.cfi_def_cfa_register %rbp
Ltmp95:
	.loc	8 184 1 prologue_end
	popq	%rbp
	retq
Ltmp96:
Lfunc_end15:
	.cfi_endproc

	.p2align	4, 0x90
__ZN4core3ptr13drop_in_place17hc083f1f8be006a8fE:
Lfunc_begin16:
	.loc	8 184 0
	.cfi_startproc
	.cfi_personality 155, _rust_eh_personality
	.cfi_lsda 16, Lexception0
	pushq	%rbp
	.cfi_def_cfa_offset 16
	.cfi_offset %rbp, -16
	movq	%rsp, %rbp
	.cfi_def_cfa_register %rbp
Ltmp100:
	pushq	%r15
	pushq	%r14
	pushq	%rbx
	pushq	%rax
	.cfi_offset %rbx, -40
	.cfi_offset %r14, -32
	.cfi_offset %r15, -24
	.loc	8 184 1 prologue_end
	cmpb	$2, (%rdi)
	jae	LBB16_1
Ltmp101:
	.loc	8 184 1 is_stmt 0
	addq	$8, %rsp
	popq	%rbx
	popq	%r14
	popq	%r15
	popq	%rbp
	retq
Ltmp102:
LBB16_1:
	.loc	8 0 1
	movq	%rdi, %r15
Ltmp103:
	.loc	8 184 1
	movq	8(%rdi), %rbx
Ltmp104:
	.loc	8 184 1
	movq	(%rbx), %rdi
	movq	8(%rbx), %rax
Ltmp97:
	callq	*(%rax)
Ltmp98:
Ltmp105:
	movq	8(%rbx), %rax
Ltmp106:
	.file	14 "/rustc/6c8927b0cf80ceee19386026cf9d7fd4fd9d486f/src/liballoc/alloc.rs"
	.loc	14 292 20 is_stmt 1
	movq	8(%rax), %rsi
Ltmp107:
	.loc	14 185 12
	testq	%rsi, %rsi
	.loc	14 185 9 is_stmt 0
	je	LBB16_4
Ltmp108:
	.loc	8 184 1 is_stmt 1
	movq	(%rbx), %rdi
Ltmp109:
	.loc	14 293 21
	movq	16(%rax), %rdx
Ltmp110:
	.loc	14 102 14
	callq	___rust_dealloc
Ltmp111:
LBB16_4:
	.loc	8 184 1
	movq	8(%r15), %rdi
Ltmp112:
	.loc	14 102 14
	movl	$24, %esi
	movl	$8, %edx
	addq	$8, %rsp
	popq	%rbx
	popq	%r14
	popq	%r15
Ltmp113:
	popq	%rbp
	jmp	___rust_dealloc
Ltmp114:
LBB16_6:
Ltmp99:
	.loc	14 0 14 is_stmt 0
	movq	%rax, %r14
Ltmp115:
	.loc	8 184 1 is_stmt 1
	movq	(%rbx), %rdi
	movq	8(%rbx), %rsi
	callq	__ZN5alloc5alloc8box_free17h96cb181c9faa70fdE
Ltmp116:
	.loc	8 184 1 is_stmt 0
	movq	8(%r15), %rdi
	callq	__ZN5alloc5alloc8box_free17hdff7560e7c4e8202E
	movq	%r14, %rdi
	callq	__Unwind_Resume
	ud2
Ltmp117:
Lfunc_end16:
	.cfi_endproc
	.section	__TEXT,__gcc_except_tab
	.p2align	2
GCC_except_table16:
Lexception0:
	.byte	255
	.byte	255
	.byte	1
	.uleb128 Lcst_end0-Lcst_begin0
Lcst_begin0:
	.uleb128 Ltmp97-Lfunc_begin16
	.uleb128 Ltmp98-Ltmp97
	.uleb128 Ltmp99-Lfunc_begin16
	.byte	0
	.uleb128 Ltmp98-Lfunc_begin16
	.uleb128 Lfunc_end16-Ltmp98
	.byte	0
	.byte	0
Lcst_end0:
	.p2align	2

	.section	__TEXT,__text,regular,pure_instructions
	.p2align	4, 0x90
__ZN4core3ptr13drop_in_place17he873d0ad7b93bdc6E:
Lfunc_begin17:
	.loc	8 184 0 is_stmt 1
	.cfi_startproc
	pushq	%rbp
	.cfi_def_cfa_offset 16
	.cfi_offset %rbp, -16
	movq	%rsp, %rbp
	.cfi_def_cfa_register %rbp
	movq	%rdi, %rax
Ltmp118:
	.loc	8 184 1 prologue_end
	movq	(%rdi), %rdi
Ltmp119:
	.file	15 "/rustc/6c8927b0cf80ceee19386026cf9d7fd4fd9d486f/src/liballoc/raw_vec.rs"
	.loc	15 507 16
	testq	%rdi, %rdi
Ltmp120:
	.loc	15 235 9
	je	LBB17_2
Ltmp121:
	.loc	8 0 0 is_stmt 0
	movq	8(%rax), %rsi
Ltmp122:
	.loc	15 235 9
	testq	%rsi, %rsi
	je	LBB17_2
Ltmp123:
	.loc	14 102 14 is_stmt 1
	movl	$1, %edx
	popq	%rbp
	jmp	___rust_dealloc
Ltmp124:
LBB17_2:
	.loc	8 184 1
	popq	%rbp
	retq
Ltmp125:
Lfunc_end17:
	.cfi_endproc

	.p2align	4, 0x90
__ZN4core3str6traits105_$LT$impl$u20$core..slice..SliceIndex$LT$str$GT$$u20$for$u20$core..ops..range..RangeFrom$LT$usize$GT$$GT$5index28_$u7b$$u7b$closure$u7d$$u7d$17h15a7fb8fde66efbeE:
Lfunc_begin18:
	.file	16 "/rustc/6c8927b0cf80ceee19386026cf9d7fd4fd9d486f/src/libcore/str/mod.rs"
	.loc	16 2071 0
	.cfi_startproc
	pushq	%rbp
	.cfi_def_cfa_offset 16
	.cfi_offset %rbp, -16
	movq	%rsp, %rbp
	.cfi_def_cfa_register %rbp
Ltmp126:
	.loc	16 2071 71 prologue_end
	movq	(%rdi), %rcx
	.loc	16 2071 78 is_stmt 0
	movq	8(%rdi), %rdx
	.loc	16 2071 71
	movq	(%rcx), %rax
	movq	8(%rcx), %rsi
	.loc	16 2071 78
	movq	(%rdx), %rdx
	.loc	16 2071 85
	movq	16(%rdi), %rcx
	movq	(%rcx), %rcx
	.loc	16 2071 47
	leaq	l___unnamed_20(%rip), %r8
	movq	%rax, %rdi
Ltmp127:
	callq	__ZN4core3str16slice_error_fail17ha125059561e5ce66E
Ltmp128:
Lfunc_end18:
	.cfi_endproc

	.p2align	4, 0x90
__ZN50_$LT$$RF$mut$u20$W$u20$as$u20$core..fmt..Write$GT$10write_char17h329d12ee7180ed2fE:
Lfunc_begin19:
	.loc	11 203 0 is_stmt 1
	.cfi_startproc
	pushq	%rbp
	.cfi_def_cfa_offset 16
	.cfi_offset %rbp, -16
	movq	%rsp, %rbp
	.cfi_def_cfa_register %rbp
	pushq	%r15
	pushq	%r14
	pushq	%r12
	pushq	%rbx
	subq	$16, %rsp
	.cfi_offset %rbx, -48
	.cfi_offset %r12, -40
	.cfi_offset %r14, -32
	.cfi_offset %r15, -24
	movl	%esi, %ebx
Ltmp129:
	.loc	11 204 9 prologue_end
	movq	(%rdi), %r15
Ltmp130:
	.file	17 "/rustc/6c8927b0cf80ceee19386026cf9d7fd4fd9d486f/src/libcore/char/methods.rs"
	.loc	17 1594 8
	cmpl	$128, %esi
	.loc	17 1594 5 is_stmt 0
	jae	LBB19_1
Ltmp131:
	.file	18 "/rustc/6c8927b0cf80ceee19386026cf9d7fd4fd9d486f/src/liballoc/vec.rs"
	.loc	18 1204 12 is_stmt 1
	movq	16(%r15), %rsi
	cmpq	8(%r15), %rsi
	.loc	18 1204 9 is_stmt 0
	jne	LBB19_19
Ltmp132:
	.file	19 "/rustc/6c8927b0cf80ceee19386026cf9d7fd4fd9d486f/src/libcore/num/mod.rs"
	.loc	19 3751 30 is_stmt 1
	movq	%rsi, %rax
	incq	%rax
Ltmp133:
	.loc	5 538 13
	je	LBB19_29
Ltmp134:
	.loc	15 408 28
	leaq	(%rsi,%rsi), %rcx
Ltmp135:
	.file	20 "/rustc/6c8927b0cf80ceee19386026cf9d7fd4fd9d486f/src/libcore/cmp.rs"
	.loc	20 1016 9
	cmpq	%rax, %rcx
	.loc	20 0 0 is_stmt 0
	cmovaq	%rcx, %rax
Ltmp136:
	cmpq	$8, %rax
	movl	$8, %r14d
	cmovaq	%rax, %r14
Ltmp137:
	.loc	15 235 40 is_stmt 1
	testq	%rsi, %rsi
	.loc	15 235 9 is_stmt 0
	je	LBB19_24
Ltmp138:
	.loc	15 429 46 is_stmt 1
	movq	(%r15), %rax
Ltmp139:
	.loc	15 493 25
	testq	%rax, %rax
Ltmp140:
	je	LBB19_24
Ltmp141:
	.loc	14 205 12
	cmpq	%r14, %rsi
Ltmp142:
	.loc	14 205 9 is_stmt 0
	je	LBB19_27
Ltmp143:
	.loc	14 124 14 is_stmt 1
	movl	$1, %edx
	movq	%rax, %rdi
Ltmp144:
	movq	%r14, %rcx
	callq	___rust_realloc
Ltmp145:
	.loc	14 0 14 is_stmt 0
	jmp	LBB19_27
Ltmp146:
LBB19_1:
	.file	21 "/rustc/6c8927b0cf80ceee19386026cf9d7fd4fd9d486f/src/liballoc/string.rs"
	.loc	21 1080 65 is_stmt 1
	movl	$0, -36(%rbp)
Ltmp147:
	.loc	17 1628 19
	movl	%ebx, %eax
Ltmp148:
	.loc	17 1596 15
	cmpl	$2048, %ebx
	.loc	17 1596 12 is_stmt 0
	jae	LBB19_2
Ltmp149:
	.loc	17 1628 19 is_stmt 1
	shrl	$6, %eax
	.loc	17 1628 13 is_stmt 0
	orb	$-64, %al
	movb	%al, -36(%rbp)
	.loc	17 1629 18 is_stmt 1
	andb	$63, %bl
Ltmp150:
	.loc	17 1629 13 is_stmt 0
	orb	$-128, %bl
	movb	%bl, -35(%rbp)
	movl	$2, %r12d
	jmp	LBB19_5
Ltmp151:
LBB19_19:
	.loc	18 854 19 is_stmt 1
	movq	(%r15), %rax
	jmp	LBB19_20
Ltmp152:
LBB19_2:
	.loc	17 1598 15
	cmpl	$65536, %ebx
	jae	LBB19_4
Ltmp153:
	.loc	17 1632 19
	shrl	$12, %eax
	.loc	17 1632 13 is_stmt 0
	orb	$-32, %al
	movb	%al, -36(%rbp)
	.loc	17 1633 19 is_stmt 1
	movl	%ebx, %eax
	shrl	$6, %eax
	.loc	17 1633 18 is_stmt 0
	andb	$63, %al
	.loc	17 1633 13
	orb	$-128, %al
	movb	%al, -35(%rbp)
	.loc	17 1634 18 is_stmt 1
	andb	$63, %bl
Ltmp154:
	.loc	17 1634 13 is_stmt 0
	orb	$-128, %bl
	movb	%bl, -34(%rbp)
	movl	$3, %r12d
	jmp	LBB19_5
Ltmp155:
LBB19_24:
	.loc	14 80 14 is_stmt 1
	movl	$1, %esi
Ltmp156:
	movq	%r14, %rdi
Ltmp157:
	callq	___rust_alloc
Ltmp158:
LBB19_27:
	.file	22 "/rustc/6c8927b0cf80ceee19386026cf9d7fd4fd9d486f/src/libcore/result.rs"
	.loc	22 611 13
	testq	%rax, %rax
	je	LBB19_30
Ltmp159:
	.loc	15 382 9
	movq	%rax, (%r15)
	.loc	15 383 9
	movq	%r14, 8(%r15)
Ltmp160:
	.loc	18 1208 45
	movq	16(%r15), %rsi
Ltmp161:
LBB19_20:
	.loc	8 901 51
	movb	%bl, (%rax,%rsi)
Ltmp162:
	.loc	18 1210 13
	incq	16(%r15)
	jmp	LBB19_17
Ltmp163:
LBB19_4:
	.loc	17 1637 19
	shrl	$18, %eax
	.loc	17 1637 13 is_stmt 0
	orb	$-16, %al
	movb	%al, -36(%rbp)
	.loc	17 1638 19 is_stmt 1
	movl	%ebx, %eax
	shrl	$12, %eax
	.loc	17 1638 18 is_stmt 0
	andb	$63, %al
	.loc	17 1638 13
	orb	$-128, %al
	movb	%al, -35(%rbp)
	.loc	17 1639 19 is_stmt 1
	movl	%ebx, %eax
	shrl	$6, %eax
	.loc	17 1639 18 is_stmt 0
	andb	$63, %al
	.loc	17 1639 13
	orb	$-128, %al
	movb	%al, -34(%rbp)
	.loc	17 1640 18 is_stmt 1
	andb	$63, %bl
Ltmp164:
	.loc	17 1640 13 is_stmt 0
	orb	$-128, %bl
	movb	%bl, -33(%rbp)
	movl	$4, %r12d
Ltmp165:
LBB19_5:
	.loc	15 309 12 is_stmt 1
	movq	8(%r15), %rsi
Ltmp166:
	.loc	18 504 26
	movq	16(%r15), %rbx
Ltmp167:
	.loc	19 3462 17
	movq	%rsi, %rax
	subq	%rbx, %rax
Ltmp168:
	.loc	15 373 9
	cmpq	%r12, %rax
Ltmp169:
	.loc	15 309 9
	jae	LBB19_6
Ltmp170:
	.loc	19 3751 30
	addq	%r12, %rbx
Ltmp171:
	.loc	5 538 13
	jb	LBB19_29
Ltmp172:
	.loc	15 408 28
	leaq	(%rsi,%rsi), %rax
Ltmp173:
	.loc	20 1016 9
	cmpq	%rbx, %rax
	.loc	20 0 0 is_stmt 0
	cmovaq	%rax, %rbx
Ltmp174:
	cmpq	$8, %rbx
	movl	$8, %r14d
	cmovaq	%rbx, %r14
Ltmp175:
	.loc	15 235 40 is_stmt 1
	testq	%rsi, %rsi
	.loc	15 235 9 is_stmt 0
	je	LBB19_10
Ltmp176:
	.loc	15 429 46 is_stmt 1
	movq	(%r15), %rdi
Ltmp177:
	.loc	15 493 25
	testq	%rdi, %rdi
	je	LBB19_10
Ltmp178:
	.loc	14 205 12
	cmpq	%r14, %rsi
	.loc	14 205 9 is_stmt 0
	je	LBB19_14
Ltmp179:
	.loc	14 124 14 is_stmt 1
	movl	$1, %edx
	movq	%r14, %rcx
	callq	___rust_realloc
Ltmp180:
	.loc	14 0 14 is_stmt 0
	jmp	LBB19_13
Ltmp181:
LBB19_6:
	.loc	18 854 19 is_stmt 1
	movq	(%r15), %rdi
Ltmp182:
	.loc	18 0 19 is_stmt 0
	jmp	LBB19_16
Ltmp183:
LBB19_10:
	.loc	14 80 14 is_stmt 1
	movl	$1, %esi
	movq	%r14, %rdi
	callq	___rust_alloc
Ltmp184:
LBB19_13:
	.loc	15 0 0 is_stmt 0
	movq	%rax, %rdi
Ltmp185:
LBB19_14:
	.loc	22 611 13 is_stmt 1
	testq	%rdi, %rdi
	je	LBB19_30
Ltmp186:
	.loc	15 382 9
	movq	%rdi, (%r15)
	.loc	15 383 9
	movq	%r14, 8(%r15)
Ltmp187:
	.loc	18 2198 23
	movq	16(%r15), %rbx
Ltmp188:
LBB19_16:
	.file	23 "/rustc/6c8927b0cf80ceee19386026cf9d7fd4fd9d486f/src/libcore/ptr/mut_ptr.rs"
	.loc	23 165 18
	addq	%rbx, %rdi
Ltmp189:
	.loc	23 0 18 is_stmt 0
	leaq	-36(%rbp), %rsi
Ltmp190:
	.loc	6 2130 14 is_stmt 1
	movq	%r12, %rdx
	callq	_memcpy
Ltmp191:
	.loc	18 2201 26
	addq	%r12, %rbx
Ltmp192:
	.loc	18 944 9
	movq	%rbx, 16(%r15)
Ltmp193:
LBB19_17:
	.loc	11 205 6
	xorl	%eax, %eax
	addq	$16, %rsp
	popq	%rbx
	popq	%r12
	popq	%r14
	popq	%r15
	popq	%rbp
	retq
LBB19_29:
Ltmp194:
	.loc	21 0 0 is_stmt 0
	callq	__ZN5alloc7raw_vec17capacity_overflow17h7526b10e27579d59E
Ltmp195:
LBB19_30:
	movl	$1, %esi
	movq	%r14, %rdi
	callq	__ZN5alloc5alloc18handle_alloc_error17h28974197717b8939E
Ltmp196:
Lfunc_end19:
	.cfi_endproc
	.file	24 "/rustc/6c8927b0cf80ceee19386026cf9d7fd4fd9d486f/src/libcore/slice/mod.rs"

	.p2align	4, 0x90
__ZN50_$LT$$RF$mut$u20$W$u20$as$u20$core..fmt..Write$GT$9write_fmt17h8c5dc3182a31975fE:
Lfunc_begin20:
	.loc	11 207 0 is_stmt 1
	.cfi_startproc
	pushq	%rbp
	.cfi_def_cfa_offset 16
	.cfi_offset %rbp, -16
	movq	%rsp, %rbp
	.cfi_def_cfa_register %rbp
	subq	$64, %rsp
Ltmp197:
	.loc	11 208 9 prologue_end
	movq	(%rdi), %rax
Ltmp198:
	.loc	11 0 9 is_stmt 0
	movq	%rax, -8(%rbp)
Ltmp199:
	.loc	11 193 26 is_stmt 1
	movq	40(%rsi), %rax
	movq	%rax, -16(%rbp)
	movq	32(%rsi), %rax
	movq	%rax, -24(%rbp)
	movq	24(%rsi), %rax
	movq	%rax, -32(%rbp)
	movq	16(%rsi), %rax
	movq	%rax, -40(%rbp)
	movq	(%rsi), %rax
	movq	8(%rsi), %rcx
	movq	%rcx, -48(%rbp)
	movq	%rax, -56(%rbp)
Ltmp200:
	.loc	11 193 9 is_stmt 0
	leaq	l___unnamed_3(%rip), %rsi
Ltmp201:
	.loc	11 0 9
	leaq	-8(%rbp), %rdi
Ltmp202:
	leaq	-56(%rbp), %rdx
	.loc	11 193 9
	callq	__ZN4core3fmt5write17h0f2c225c157771c1E
Ltmp203:
	.loc	11 209 6 is_stmt 1
	addq	$64, %rsp
	popq	%rbp
	retq
Ltmp204:
Lfunc_end20:
	.cfi_endproc

	.p2align	4, 0x90
__ZN50_$LT$$RF$mut$u20$W$u20$as$u20$core..fmt..Write$GT$9write_str17h7418a5f820dc7be9E:
Lfunc_begin21:
	.loc	11 199 0
	.cfi_startproc
	pushq	%rbp
	.cfi_def_cfa_offset 16
	.cfi_offset %rbp, -16
	movq	%rsp, %rbp
	.cfi_def_cfa_register %rbp
	pushq	%r15
	pushq	%r14
	pushq	%r13
	pushq	%r12
	pushq	%rbx
	pushq	%rax
	.cfi_offset %rbx, -56
	.cfi_offset %r12, -48
	.cfi_offset %r13, -40
	.cfi_offset %r14, -32
	.cfi_offset %r15, -24
	movq	%rdx, %r12
	movq	%rsi, %r14
Ltmp205:
	.loc	11 200 9 prologue_end
	movq	(%rdi), %r13
Ltmp206:
	.loc	15 309 12
	movq	8(%r13), %rsi
Ltmp207:
	.loc	18 504 26
	movq	16(%r13), %rbx
Ltmp208:
	.loc	19 3462 17
	movq	%rsi, %rax
	subq	%rbx, %rax
Ltmp209:
	.loc	15 373 9
	cmpq	%rdx, %rax
Ltmp210:
	.loc	15 309 9
	jae	LBB21_1
Ltmp211:
	.loc	19 3751 30
	addq	%r12, %rbx
Ltmp212:
	.loc	5 538 13
	jb	LBB21_12
Ltmp213:
	.loc	15 408 28
	leaq	(%rsi,%rsi), %rax
Ltmp214:
	.loc	20 1016 9
	cmpq	%rbx, %rax
	.loc	20 0 0 is_stmt 0
	cmovaq	%rax, %rbx
Ltmp215:
	cmpq	$8, %rbx
	movl	$8, %r15d
	cmovaq	%rbx, %r15
Ltmp216:
	.loc	15 235 40 is_stmt 1
	testq	%rsi, %rsi
	.loc	15 235 9 is_stmt 0
	je	LBB21_6
Ltmp217:
	.loc	15 429 46 is_stmt 1
	movq	(%r13), %rdi
Ltmp218:
	.loc	15 493 25
	testq	%rdi, %rdi
	je	LBB21_6
Ltmp219:
	.loc	14 205 12
	cmpq	%r15, %rsi
	.loc	14 205 9 is_stmt 0
	je	LBB21_10
Ltmp220:
	.loc	14 124 14 is_stmt 1
	movl	$1, %edx
	movq	%r15, %rcx
	callq	___rust_realloc
Ltmp221:
	.loc	14 0 14 is_stmt 0
	jmp	LBB21_9
Ltmp222:
LBB21_1:
	.loc	18 854 19 is_stmt 1
	movq	(%r13), %rdi
Ltmp223:
	.loc	18 0 19 is_stmt 0
	jmp	LBB21_2
Ltmp224:
LBB21_6:
	.loc	14 80 14 is_stmt 1
	movl	$1, %esi
	movq	%r15, %rdi
	callq	___rust_alloc
Ltmp225:
LBB21_9:
	.loc	15 0 0 is_stmt 0
	movq	%rax, %rdi
Ltmp226:
LBB21_10:
	.loc	22 611 13 is_stmt 1
	testq	%rdi, %rdi
	je	LBB21_13
Ltmp227:
	.loc	15 382 9
	movq	%rdi, (%r13)
	.loc	15 383 9
	movq	%r15, 8(%r13)
Ltmp228:
	.loc	18 2198 23
	movq	16(%r13), %rbx
Ltmp229:
LBB21_2:
	.loc	23 165 18
	addq	%rbx, %rdi
Ltmp230:
	.loc	6 2130 14
	movq	%r14, %rsi
	movq	%r12, %rdx
	callq	_memcpy
Ltmp231:
	.loc	18 2201 26
	addq	%r12, %rbx
Ltmp232:
	.loc	18 944 9
	movq	%rbx, 16(%r13)
Ltmp233:
	.loc	11 201 6
	xorl	%eax, %eax
	addq	$8, %rsp
	popq	%rbx
Ltmp234:
	popq	%r12
Ltmp235:
	popq	%r13
Ltmp236:
	popq	%r14
Ltmp237:
	popq	%r15
	popq	%rbp
	retq
LBB21_12:
Ltmp238:
	.loc	15 301 38
	callq	__ZN5alloc7raw_vec17capacity_overflow17h7526b10e27579d59E
Ltmp239:
LBB21_13:
	.loc	15 302 47
	movl	$1, %esi
	movq	%r15, %rdi
	callq	__ZN5alloc5alloc18handle_alloc_error17h28974197717b8939E
Ltmp240:
Lfunc_end21:
	.cfi_endproc

	.p2align	4, 0x90
__ZN5alloc5alloc8box_free17h96cb181c9faa70fdE:
Lfunc_begin22:
	.loc	14 290 0
	.cfi_startproc
	pushq	%rbp
	.cfi_def_cfa_offset 16
	.cfi_offset %rbp, -16
	movq	%rsp, %rbp
	.cfi_def_cfa_register %rbp
	movq	%rsi, %rax
Ltmp241:
	.loc	14 292 20 prologue_end
	movq	8(%rsi), %rsi
Ltmp242:
	.loc	14 185 12
	testq	%rsi, %rsi
	.loc	14 185 9 is_stmt 0
	je	LBB22_1
Ltmp243:
	.loc	14 293 21 is_stmt 1
	movq	16(%rax), %rdx
Ltmp244:
	.loc	14 102 14
	popq	%rbp
	jmp	___rust_dealloc
Ltmp245:
LBB22_1:
	.loc	14 297 2
	popq	%rbp
	retq
Ltmp246:
Lfunc_end22:
	.cfi_endproc

	.p2align	4, 0x90
__ZN5alloc5alloc8box_free17hdff7560e7c4e8202E:
Lfunc_begin23:
	.loc	14 290 0
	.cfi_startproc
	pushq	%rbp
	.cfi_def_cfa_offset 16
	.cfi_offset %rbp, -16
	movq	%rsp, %rbp
	.cfi_def_cfa_register %rbp
Ltmp247:
	.loc	14 102 14 prologue_end
	movl	$24, %esi
	movl	$8, %edx
	popq	%rbp
	jmp	___rust_dealloc
Ltmp248:
Lfunc_end23:
	.cfi_endproc

	.p2align	4, 0x90
__ZN91_$LT$std..panicking..begin_panic..PanicPayload$LT$A$GT$$u20$as$u20$core..panic..BoxMeUp$GT$3get17h246afd3a6483a714E:
Lfunc_begin24:
	.loc	10 482 0
	.cfi_startproc
	pushq	%rbp
	.cfi_def_cfa_offset 16
	.cfi_offset %rbp, -16
	movq	%rsp, %rbp
	.cfi_def_cfa_register %rbp
Ltmp249:
	.loc	10 484 17 prologue_end
	cmpq	$0, (%rdi)
	je	LBB24_2
Ltmp250:
	.loc	10 0 17 is_stmt 0
	movq	%rdi, %rax
Ltmp251:
	.loc	10 487 10 is_stmt 1
	leaq	l___unnamed_5(%rip), %rdx
	popq	%rbp
	retq
Ltmp252:
LBB24_2:
	.loc	10 485 25
	callq	__ZN3std7process5abort17hff53fa3bc108bcb5E
Ltmp253:
Lfunc_end24:
	.cfi_endproc

	.p2align	4, 0x90
__ZN91_$LT$std..panicking..begin_panic..PanicPayload$LT$A$GT$$u20$as$u20$core..panic..BoxMeUp$GT$8take_box17h4f01984c73f60c9fE:
Lfunc_begin25:
	.loc	10 469 0
	.cfi_startproc
	pushq	%rbp
	.cfi_def_cfa_offset 16
	.cfi_offset %rbp, -16
	movq	%rsp, %rbp
	.cfi_def_cfa_register %rbp
Ltmp254:
	pushq	%r14
	pushq	%rbx
	.cfi_offset %rbx, -32
	.cfi_offset %r14, -24
	.loc	6 2130 14 prologue_end
	movq	(%rdi), %rbx
Ltmp255:
	movq	8(%rdi), %r14
Ltmp256:
	.loc	6 2130 14 is_stmt 0
	movq	$0, (%rdi)
Ltmp257:
	.loc	10 476 17 is_stmt 1
	testq	%rbx, %rbx
	je	LBB25_3
Ltmp258:
	.loc	14 80 14
	movl	$16, %edi
Ltmp259:
	movl	$8, %esi
	callq	___rust_alloc
Ltmp260:
	.loc	14 278 9
	testq	%rax, %rax
	je	LBB25_4
Ltmp261:
	.file	25 "/rustc/6c8927b0cf80ceee19386026cf9d7fd4fd9d486f/src/liballoc/boxed.rs"
	.loc	25 176 13
	movq	%rbx, (%rax)
	movq	%r14, 8(%rax)
Ltmp262:
	.file	26 "/rustc/6c8927b0cf80ceee19386026cf9d7fd4fd9d486f/src/libcore/ptr/unique.rs"
	.loc	26 109 6
	leaq	l___unnamed_5(%rip), %rdx
Ltmp263:
	.loc	10 480 10
	popq	%rbx
Ltmp264:
	popq	%r14
Ltmp265:
	popq	%rbp
	retq
Ltmp266:
LBB25_3:
	.loc	10 477 25
	callq	__ZN3std7process5abort17hff53fa3bc108bcb5E
Ltmp267:
LBB25_4:
	.loc	14 279 19
	movl	$16, %edi
	movl	$8, %esi
	callq	__ZN5alloc5alloc18handle_alloc_error17h28974197717b8939E
Ltmp268:
Lfunc_end25:
	.cfi_endproc

	.globl	__ZN4time7display60_$LT$impl$u20$core..fmt..Display$u20$for$u20$time..TmFmt$GT$3fmt17hf2e21f568ec45d5dE
	.p2align	4, 0x90
__ZN4time7display60_$LT$impl$u20$core..fmt..Display$u20$for$u20$time..TmFmt$GT$3fmt17hf2e21f568ec45d5dE:
Lfunc_begin26:
	.file	27 "/Users/yingyuhang/.cargo/registry/src/github.com-1ecc6299db9ec823/time-0.1.43/src/display.rs"
	.loc	27 6 0
	.cfi_startproc
	.cfi_personality 155, _rust_eh_personality
	.cfi_lsda 16, Lexception1
	pushq	%rbp
	.cfi_def_cfa_offset 16
	.cfi_offset %rbp, -16
	movq	%rsp, %rbp
	.cfi_def_cfa_register %rbp
	pushq	%r15
	pushq	%r14
	pushq	%r13
	pushq	%r12
	pushq	%rbx
	subq	$200, %rsp
	.cfi_offset %rbx, -56
	.cfi_offset %r12, -48
	.cfi_offset %r13, -40
	.cfi_offset %r14, -32
	.cfi_offset %r15, -24
	movq	%rsi, %r15
Ltmp272:
	.loc	27 8 13 prologue_end
	movq	8(%rdi), %rax
	testq	%rax, %rax
	je	LBB26_9
Ltmp273:
	cmpl	$2, %eax
	je	LBB26_7
Ltmp274:
	.loc	27 24 20
	movq	(%rdi), %rcx
	movl	36(%rcx), %eax
	testl	%eax, %eax
	.loc	27 24 17 is_stmt 0
	je	LBB26_46
Ltmp275:
	.loc	27 30 29 is_stmt 1
	movq	%rcx, -160(%rbp)
	movq	$0, -152(%rbp)
	leaq	l___unnamed_21(%rip), %rcx
	movq	%rcx, -144(%rbp)
	movq	$17, -136(%rbp)
Ltmp276:
	.loc	27 34 35
	xorl	%ecx, %ecx
	testl	%eax, %eax
	setle	%cl
	.loc	27 34 32 is_stmt 0
	leal	43(%rcx,%rcx), %ecx
	.loc	27 0 0
	movl	%ecx, -48(%rbp)
Ltmp277:
	.loc	27 259 5 is_stmt 1
	jns	LBB26_6
Ltmp278:
	.loc	27 259 15 is_stmt 0
	cmpl	$-2147483648, %eax
	je	LBB26_53
Ltmp279:
	negl	%eax
Ltmp280:
LBB26_6:
	.loc	27 35 33 is_stmt 1
	movl	%eax, %eax
	movl	$2290649225, %ecx
	imulq	%rax, %rcx
	shrq	$37, %rcx
	movl	$2443359173, %edx
Ltmp281:
	.loc	27 36 29
	imulq	%rax, %rdx
	shrq	$43, %rdx
	movl	%edx, -240(%rbp)
Ltmp282:
	.loc	27 37 21
	imull	$-60, %edx, %eax
	addl	%ecx, %eax
Ltmp283:
	movl	%eax, -176(%rbp)
	leaq	-160(%rbp), %rax
Ltmp284:
	.loc	27 38 21
	movq	%rax, -112(%rbp)
	leaq	__ZN4time7display60_$LT$impl$u20$core..fmt..Display$u20$for$u20$time..TmFmt$GT$3fmt17hf2e21f568ec45d5dE(%rip), %rax
	movq	%rax, -104(%rbp)
	leaq	-48(%rbp), %rax
	movq	%rax, -96(%rbp)
	movq	__ZN43_$LT$char$u20$as$u20$core..fmt..Display$GT$3fmt17haf02f59875f30dd3E@GOTPCREL(%rip), %rax
	movq	%rax, -88(%rbp)
	leaq	-240(%rbp), %rax
	movq	%rax, -80(%rbp)
	movq	__ZN4core3fmt3num3imp52_$LT$impl$u20$core..fmt..Display$u20$for$u20$i32$GT$3fmt17h00ed7ff77f9da654E@GOTPCREL(%rip), %rax
	movq	%rax, -72(%rbp)
	leaq	-176(%rbp), %rcx
	movq	%rcx, -64(%rbp)
	movq	%rax, -56(%rbp)
Ltmp285:
	.loc	11 345 9
	leaq	l___unnamed_22(%rip), %rax
Ltmp286:
	movq	%rax, -224(%rbp)
	movq	$4, -216(%rbp)
	leaq	l___unnamed_23(%rip), %rax
Ltmp287:
	movq	%rax, -208(%rbp)
	movq	$4, -200(%rbp)
	leaq	-112(%rbp), %rax
	movq	%rax, -192(%rbp)
	movq	$4, -184(%rbp)
	leaq	-224(%rbp), %rsi
Ltmp288:
	.loc	27 38 21
	movq	%r15, %rdi
Ltmp289:
	callq	__ZN4core3fmt9Formatter9write_fmt17h742ca6aae87ad23cE
	jmp	LBB26_48
Ltmp290:
LBB26_7:
	.loc	27 22 27
	movq	(%rdi), %rdi
Ltmp291:
	.loc	2 443 12
	callq	__ZN4time2Tm11to_timespec17h973c877f4b209cc4E
Ltmp292:
	movl	%edx, %ebx
Ltmp293:
	.loc	2 387 5
	xorps	%xmm0, %xmm0
	movaps	%xmm0, -160(%rbp)
	movaps	%xmm0, -144(%rbp)
	movq	$0, -128(%rbp)
	movl	$0, -120(%rbp)
Ltmp294:
	.loc	1 295 23
	movq	%rax, -48(%rbp)
Ltmp295:
	.loc	6 2283 14
	movaps	%xmm0, -80(%rbp)
	movaps	%xmm0, -96(%rbp)
	movaps	%xmm0, -112(%rbp)
	movq	$0, -64(%rbp)
Ltmp296:
	.loc	6 0 14 is_stmt 0
	leaq	-48(%rbp), %rdi
	leaq	-112(%rbp), %rsi
Ltmp297:
	.loc	1 297 16 is_stmt 1
	callq	_localtime_r
Ltmp298:
	.loc	23 29 9
	testq	%rax, %rax
Ltmp299:
	.loc	1 297 13
	je	LBB26_51
Ltmp300:
	.loc	1 314 26
	movl	-72(%rbp), %eax
Ltmp301:
	.loc	1 245 26
	movaps	-112(%rbp), %xmm0
	.loc	1 249 26
	movaps	-96(%rbp), %xmm1
	.loc	1 245 9
	movaps	%xmm0, -160(%rbp)
	.loc	1 249 9
	movaps	%xmm1, -144(%rbp)
	.loc	1 253 28
	movl	-80(%rbp), %ecx
	.loc	1 253 9 is_stmt 0
	movl	%ecx, -128(%rbp)
	.loc	1 254 9 is_stmt 1
	movl	%eax, -124(%rbp)
Ltmp302:
	.loc	2 421 5
	movl	%ebx, -120(%rbp)
	leaq	-160(%rbp), %rax
Ltmp303:
	.loc	2 474 9
	movq	%rax, -112(%rbp)
	movq	$0, -104(%rbp)
	leaq	l___unnamed_24(%rip), %rax
	movq	%rax, -96(%rbp)
	movq	$2, -88(%rbp)
	jmp	LBB26_47
Ltmp304:
LBB26_9:
	.loc	27 9 33
	movq	24(%rdi), %r12
Ltmp305:
	.loc	24 3440 9
	testq	%r12, %r12
	.loc	24 3570 21
	je	LBB26_45
Ltmp306:
	.loc	27 0 0 is_stmt 0
	movq	16(%rdi), %rcx
Ltmp307:
	addq	%rcx, %r12
Ltmp308:
	movq	(%rdi), %r14
	jmp	LBB26_11
Ltmp309:
LBB26_37:
	shll	$6, %ecx
Ltmp310:
LBB26_40:
	orl	%ecx, %eax
Ltmp311:
	movl	%eax, %esi
Ltmp312:
LBB26_43:
	.loc	27 14 25 is_stmt 1
	movq	%r15, %rdi
	movq	%r14, %rdx
	callq	__ZN4time7display10parse_type17h896a39e835e24ee4E
Ltmp313:
	.loc	27 9 33
	movq	%r13, %rbx
Ltmp314:
	.loc	27 0 0 is_stmt 0
	testb	%al, %al
	jne	LBB26_15
Ltmp315:
LBB26_44:
	movq	%rbx, %rcx
Ltmp316:
	.loc	24 3440 9 is_stmt 1
	cmpq	%r12, %rbx
Ltmp317:
	.loc	24 3570 21
	je	LBB26_45
Ltmp318:
LBB26_11:
	.loc	23 165 18
	leaq	1(%rcx), %rbx
Ltmp319:
	.loc	16 519 13
	movzbl	(%rcx), %esi
Ltmp320:
	.loc	16 520 8
	testb	%sil, %sil
	.loc	16 520 5 is_stmt 0
	js	LBB26_16
Ltmp321:
	.loc	27 10 27 is_stmt 1
	cmpl	$37, %esi
	je	LBB26_28
Ltmp322:
LBB26_13:
	cmpl	$1114112, %esi
	je	LBB26_45
Ltmp323:
	.loc	27 16 25
	movq	%r15, %rdi
	callq	__ZN57_$LT$core..fmt..Formatter$u20$as$u20$core..fmt..Write$GT$10write_char17hee984fed855cf5c0E
	.loc	27 0 0 is_stmt 0
	testb	%al, %al
	je	LBB26_44
	jmp	LBB26_15
Ltmp324:
	.p2align	4, 0x90
LBB26_16:
	.loc	24 3440 9 is_stmt 1
	cmpq	%r12, %rbx
Ltmp325:
	.loc	24 3570 21
	je	LBB26_22
Ltmp326:
	.loc	16 508 15
	movzbl	1(%rcx), %eax
Ltmp327:
	.loc	23 165 18
	addq	$2, %rcx
Ltmp328:
	.loc	16 507 5
	andl	$63, %eax
Ltmp329:
	.loc	16 0 0 is_stmt 0
	movq	%rcx, %rbx
Ltmp330:
	movl	%esi, %ecx
	andl	$31, %ecx
Ltmp331:
	.loc	16 530 8 is_stmt 1
	cmpb	$-33, %sil
	.loc	16 530 5 is_stmt 0
	jbe	LBB26_23
Ltmp332:
LBB26_18:
	.loc	24 3440 9 is_stmt 1
	cmpq	%r12, %rbx
	.loc	24 3570 21
	je	LBB26_24
Ltmp333:
	.loc	16 508 15
	movzbl	(%rbx), %edi
Ltmp334:
	.loc	23 165 18
	incq	%rbx
Ltmp335:
	.loc	16 507 5
	andl	$63, %edi
	movq	%rbx, %rdx
Ltmp336:
	.loc	16 495 5
	shll	$6, %eax
Ltmp337:
	orl	%edi, %eax
Ltmp338:
	.loc	16 536 12
	cmpb	$-16, %sil
	.loc	16 536 9 is_stmt 0
	jb	LBB26_25
Ltmp339:
LBB26_20:
	.loc	24 3440 9 is_stmt 1
	cmpq	%r12, %rdx
	.loc	24 3570 21
	je	LBB26_26
Ltmp340:
	.loc	16 508 15
	movzbl	(%rdx), %esi
Ltmp341:
	.loc	23 165 18
	incq	%rdx
Ltmp342:
	.loc	16 507 5
	andl	$63, %esi
Ltmp343:
	.loc	16 0 0 is_stmt 0
	movq	%rdx, %rbx
Ltmp344:
	jmp	LBB26_27
Ltmp345:
LBB26_22:
	xorl	%eax, %eax
	movq	%r12, %rbx
Ltmp346:
	movl	%esi, %ecx
	andl	$31, %ecx
Ltmp347:
	.loc	16 530 8 is_stmt 1
	cmpb	$-33, %sil
	.loc	16 530 5 is_stmt 0
	ja	LBB26_18
Ltmp348:
LBB26_23:
	.loc	16 0 5
	shll	$6, %ecx
Ltmp349:
	orl	%ecx, %eax
Ltmp350:
	movl	%eax, %esi
Ltmp351:
	.loc	27 10 27 is_stmt 1
	cmpl	$37, %esi
	jne	LBB26_13
Ltmp352:
	.p2align	4, 0x90
LBB26_28:
	.loc	24 3440 9
	cmpq	%r12, %rbx
	.loc	24 3570 21
	je	LBB26_50
Ltmp353:
	.loc	23 165 18
	leaq	1(%rbx), %r13
Ltmp354:
	.loc	16 519 13
	movzbl	(%rbx), %esi
Ltmp355:
	.loc	16 520 8
	testb	%sil, %sil
	.loc	16 520 5 is_stmt 0
	jns	LBB26_43
Ltmp356:
	.loc	24 3440 9 is_stmt 1
	cmpq	%r12, %r13
Ltmp357:
	.loc	24 3570 21
	je	LBB26_36
Ltmp358:
	.loc	16 508 15
	movzbl	1(%rbx), %eax
Ltmp359:
	.loc	23 165 18
	addq	$2, %rbx
Ltmp360:
	.loc	16 507 5
	andl	$63, %eax
Ltmp361:
	.loc	16 0 0 is_stmt 0
	movq	%rbx, %r13
Ltmp362:
	movl	%esi, %ecx
	andl	$31, %ecx
Ltmp363:
	.loc	16 530 8 is_stmt 1
	cmpb	$-33, %sil
	.loc	16 530 5 is_stmt 0
	jbe	LBB26_37
	jmp	LBB26_32
Ltmp364:
LBB26_24:
	.loc	16 0 5
	xorl	%edi, %edi
	movq	%r12, %rdx
Ltmp365:
	.loc	16 495 5 is_stmt 1
	shll	$6, %eax
Ltmp366:
	orl	%edi, %eax
Ltmp367:
	.loc	16 536 12
	cmpb	$-16, %sil
	.loc	16 536 9 is_stmt 0
	jae	LBB26_20
Ltmp368:
LBB26_25:
	.loc	16 0 9
	shll	$12, %ecx
Ltmp369:
	orl	%ecx, %eax
Ltmp370:
	movl	%eax, %esi
Ltmp371:
	.loc	27 10 27 is_stmt 1
	cmpl	$37, %esi
	jne	LBB26_13
	jmp	LBB26_28
Ltmp372:
LBB26_36:
	.loc	27 0 27 is_stmt 0
	xorl	%eax, %eax
Ltmp373:
	movq	%r12, %r13
Ltmp374:
	movl	%esi, %ecx
	andl	$31, %ecx
Ltmp375:
	.loc	16 530 8 is_stmt 1
	cmpb	$-33, %sil
	.loc	16 530 5 is_stmt 0
	jbe	LBB26_37
Ltmp376:
LBB26_32:
	.loc	24 3440 9 is_stmt 1
	cmpq	%r12, %r13
	.loc	24 3570 21
	je	LBB26_38
Ltmp377:
	.loc	16 508 15
	movzbl	(%r13), %edi
Ltmp378:
	.loc	23 165 18
	incq	%r13
Ltmp379:
	.loc	16 507 5
	andl	$63, %edi
	movq	%r13, %rdx
Ltmp380:
	.loc	16 495 5
	shll	$6, %eax
Ltmp381:
	orl	%edi, %eax
Ltmp382:
	.loc	16 536 12
	cmpb	$-16, %sil
	.loc	16 536 9 is_stmt 0
	jb	LBB26_39
Ltmp383:
LBB26_34:
	.loc	24 3440 9 is_stmt 1
	cmpq	%r12, %rdx
	.loc	24 3570 21
	je	LBB26_41
Ltmp384:
	.loc	16 508 15
	movzbl	(%rdx), %esi
Ltmp385:
	.loc	23 165 18
	incq	%rdx
Ltmp386:
	.loc	16 507 5
	andl	$63, %esi
Ltmp387:
	.loc	16 0 0 is_stmt 0
	movq	%rdx, %r13
Ltmp388:
	jmp	LBB26_42
Ltmp389:
LBB26_26:
	xorl	%esi, %esi
Ltmp390:
LBB26_27:
	.loc	16 540 18 is_stmt 1
	andl	$7, %ecx
Ltmp391:
	shll	$18, %ecx
Ltmp392:
	.loc	16 495 5
	shll	$6, %eax
Ltmp393:
	orl	%ecx, %eax
Ltmp394:
	.loc	16 540 13
	orl	%esi, %eax
Ltmp395:
	.loc	16 0 13 is_stmt 0
	movl	%eax, %esi
Ltmp396:
	.loc	27 10 27 is_stmt 1
	cmpl	$37, %esi
	jne	LBB26_13
	jmp	LBB26_28
Ltmp397:
LBB26_38:
	.loc	27 0 27 is_stmt 0
	xorl	%edi, %edi
	movq	%r12, %rdx
Ltmp398:
	.loc	16 495 5 is_stmt 1
	shll	$6, %eax
Ltmp399:
	orl	%edi, %eax
Ltmp400:
	.loc	16 536 12
	cmpb	$-16, %sil
	.loc	16 536 9 is_stmt 0
	jae	LBB26_34
Ltmp401:
LBB26_39:
	.loc	16 0 9
	shll	$12, %ecx
Ltmp402:
	jmp	LBB26_40
Ltmp403:
LBB26_41:
	xorl	%esi, %esi
Ltmp404:
LBB26_42:
	.loc	16 540 18 is_stmt 1
	andl	$7, %ecx
Ltmp405:
	shll	$18, %ecx
Ltmp406:
	.loc	16 495 5
	shll	$6, %eax
Ltmp407:
	orl	%ecx, %eax
Ltmp408:
	.loc	16 540 13
	orl	%esi, %eax
Ltmp409:
	.loc	16 0 13 is_stmt 0
	movl	%eax, %esi
Ltmp410:
	.loc	5 385 13 is_stmt 1
	cmpl	$1114112, %eax
Ltmp411:
	jne	LBB26_43
Ltmp412:
LBB26_50:
	.loc	7 10 9
	leaq	l___unnamed_15(%rip), %rdi
	leaq	l___unnamed_25(%rip), %rdx
	movl	$43, %esi
	callq	__ZN4core9panicking5panic17h383a6b80ea7021aaE
Ltmp413:
LBB26_45:
	.loc	7 0 9 is_stmt 0
	xorl	%eax, %eax
	jmp	LBB26_49
Ltmp414:
LBB26_46:
	.loc	27 25 21 is_stmt 1
	movq	%rcx, -112(%rbp)
	movq	$0, -104(%rbp)
	leaq	l___unnamed_26(%rip), %rax
	movq	%rax, -96(%rbp)
	movq	$18, -88(%rbp)
Ltmp415:
LBB26_47:
	.loc	27 0 21 is_stmt 0
	leaq	-112(%rbp), %rdi
	movq	%r15, %rsi
	callq	__ZN4time7display60_$LT$impl$u20$core..fmt..Display$u20$for$u20$time..TmFmt$GT$3fmt17hf2e21f568ec45d5dE
Ltmp416:
LBB26_48:
LBB26_49:
	.loc	27 42 6 is_stmt 1
	addq	$200, %rsp
	popq	%rbx
	popq	%r12
	popq	%r13
	popq	%r14
	popq	%r15
Ltmp417:
	popq	%rbp
	retq
LBB26_15:
Ltmp418:
	.loc	27 0 6 is_stmt 0
	movb	$1, %al
	jmp	LBB26_49
Ltmp419:
LBB26_51:
	leaq	-240(%rbp), %rbx
Ltmp420:
	.loc	1 298 50 is_stmt 1
	movq	%rbx, %rdi
	callq	__ZN3std2io5error5Error13last_os_error17hc3bba933b5587d76E
Ltmp421:
	.loc	1 298 17 is_stmt 0
	movq	%rbx, -176(%rbp)
	movq	__ZN60_$LT$std..io..error..Error$u20$as$u20$core..fmt..Display$GT$3fmt17h3716551a80b2cfe9E@GOTPCREL(%rip), %rax
	movq	%rax, -168(%rbp)
Ltmp422:
	.loc	11 328 9 is_stmt 1
	leaq	l___unnamed_27(%rip), %rax
Ltmp423:
	movq	%rax, -224(%rbp)
	movq	$1, -216(%rbp)
	movq	$0, -208(%rbp)
	leaq	-176(%rbp), %rax
Ltmp424:
	movq	%rax, -192(%rbp)
	movq	$1, -184(%rbp)
Ltmp425:
Ltmp269:
	.loc	1 298 17
	leaq	l___unnamed_28(%rip), %rsi
	leaq	-224(%rbp), %rdi
	callq	__ZN3std9panicking15begin_panic_fmt17h8712912d987f10a1E
Ltmp270:
Ltmp426:
	.loc	1 0 17 is_stmt 0
	ud2
Ltmp427:
LBB26_53:
	.loc	27 259 15 is_stmt 1
	leaq	_str.6(%rip), %rdi
Ltmp428:
	leaq	l___unnamed_29(%rip), %rdx
	movl	$31, %esi
	callq	__ZN4core9panicking5panic17h383a6b80ea7021aaE
Ltmp429:
LBB26_54:
Ltmp271:
	.loc	27 0 15 is_stmt 0
	movq	%rax, %rbx
	leaq	-240(%rbp), %rdi
Ltmp430:
	.loc	1 298 17 is_stmt 1
	callq	__ZN4core3ptr13drop_in_place17hc083f1f8be006a8fE
	movq	%rbx, %rdi
	callq	__Unwind_Resume
	ud2
Ltmp431:
Lfunc_end26:
	.cfi_endproc
	.file	28 "/rustc/6c8927b0cf80ceee19386026cf9d7fd4fd9d486f/src/libcore/mem/maybe_uninit.rs"
	.section	__TEXT,__gcc_except_tab
	.p2align	2
GCC_except_table26:
Lexception1:
	.byte	255
	.byte	255
	.byte	1
	.uleb128 Lcst_end1-Lcst_begin1
Lcst_begin1:
	.uleb128 Lfunc_begin26-Lfunc_begin26
	.uleb128 Ltmp269-Lfunc_begin26
	.byte	0
	.byte	0
	.uleb128 Ltmp269-Lfunc_begin26
	.uleb128 Ltmp270-Ltmp269
	.uleb128 Ltmp271-Lfunc_begin26
	.byte	0
	.uleb128 Ltmp270-Lfunc_begin26
	.uleb128 Lfunc_end26-Ltmp270
	.byte	0
	.byte	0
Lcst_end1:
	.p2align	2

	.section	__TEXT,__text,regular,pure_instructions
	.p2align	4, 0x90
__ZN4time7display13iso_week_days17h19a31cd5eceb66adE:
Lfunc_begin27:
	.loc	27 54 0
	.cfi_startproc
	pushq	%rbp
	.cfi_def_cfa_offset 16
	.cfi_offset %rbp, -16
	movq	%rsp, %rbp
	.cfi_def_cfa_register %rbp
Ltmp432:
	.loc	27 67 13 prologue_end
	movl	%edi, %ecx
	subl	%esi, %ecx
	jo	LBB27_6
Ltmp433:
	addl	$4, %ecx
	jo	LBB27_7
Ltmp434:
	.loc	27 67 12 is_stmt 0
	addl	$378, %ecx
	jo	LBB27_8
Ltmp435:
	.loc	27 0 12
	movl	%edi, %eax
Ltmp436:
	.loc	27 67 12
	movslq	%ecx, %rcx
	imulq	$-1840700269, %rcx, %rdx
	shrq	$32, %rdx
	addl	%ecx, %edx
	movl	%edx, %esi
Ltmp437:
	shrl	$31, %esi
	sarl	$2, %edx
	addl	%esi, %edx
	leal	(,%rdx,8), %esi
	subl	%esi, %edx
	addl	%ecx, %edx
	.loc	27 67 5
	subl	%edx, %eax
Ltmp438:
	jo	LBB27_9
Ltmp439:
	addl	$4, %eax
	jo	LBB27_10
Ltmp440:
	decl	%eax
Ltmp441:
	.loc	27 69 2 is_stmt 1
	popq	%rbp
	retq
Ltmp442:
LBB27_6:
	.loc	27 67 13
	leaq	_str.3(%rip), %rdi
Ltmp443:
	leaq	l___unnamed_30(%rip), %rdx
	movl	$33, %esi
Ltmp444:
	callq	__ZN4core9panicking5panic17h383a6b80ea7021aaE
Ltmp445:
LBB27_7:
	leaq	_str.5(%rip), %rdi
Ltmp446:
	leaq	l___unnamed_30(%rip), %rdx
	movl	$28, %esi
Ltmp447:
	callq	__ZN4core9panicking5panic17h383a6b80ea7021aaE
Ltmp448:
LBB27_8:
	.loc	27 67 12 is_stmt 0
	leaq	_str.5(%rip), %rdi
Ltmp449:
	leaq	l___unnamed_31(%rip), %rdx
	movl	$28, %esi
Ltmp450:
	callq	__ZN4core9panicking5panic17h383a6b80ea7021aaE
Ltmp451:
LBB27_9:
	.loc	27 67 5
	leaq	_str.3(%rip), %rdi
	leaq	l___unnamed_32(%rip), %rdx
	movl	$33, %esi
	callq	__ZN4core9panicking5panic17h383a6b80ea7021aaE
Ltmp452:
LBB27_10:
	leaq	_str.5(%rip), %rdi
	leaq	l___unnamed_32(%rip), %rdx
	movl	$28, %esi
	callq	__ZN4core9panicking5panic17h383a6b80ea7021aaE
Ltmp453:
Lfunc_end27:
	.cfi_endproc

	.p2align	4, 0x90
__ZN4time7display8iso_week17h33478b9eb7361332E:
Lfunc_begin28:
	.loc	27 71 0 is_stmt 1
	.cfi_startproc
	pushq	%rbp
	.cfi_def_cfa_offset 16
	.cfi_offset %rbp, -16
	movq	%rsp, %rbp
	.cfi_def_cfa_register %rbp
	pushq	%r15
	pushq	%r14
	pushq	%r13
	pushq	%r12
	pushq	%rbx
	subq	$88, %rsp
	.cfi_offset %rbx, -56
	.cfi_offset %r12, -48
	.cfi_offset %r13, -40
	.cfi_offset %r14, -32
	.cfi_offset %r15, -24
	movl	%edx, %ebx
	movq	%rdi, -72(%rbp)
Ltmp454:
	.loc	27 72 20 prologue_end
	addl	$1900, %ebx
	jo	LBB28_23
Ltmp455:
	.loc	27 0 20 is_stmt 0
	movl	%r8d, %r13d
	movl	%ecx, %r12d
	movl	%esi, %r15d
Ltmp456:
	.loc	27 72 20
	movl	%ebx, -44(%rbp)
Ltmp457:
	.loc	27 73 20 is_stmt 1
	movl	%r8d, %edi
	movl	%ecx, %esi
	callq	__ZN4time7display13iso_week_days17h19a31cd5eceb66adE
Ltmp458:
	.loc	27 75 8
	testl	%eax, %eax
	.loc	27 75 5 is_stmt 0
	js	LBB28_8
Ltmp459:
	.loc	27 0 5
	movl	%eax, %r14d
Ltmp460:
	movl	$365, %eax
Ltmp461:
	.loc	27 46 5 is_stmt 1
	testb	$3, %bl
	jne	LBB28_4
Ltmp462:
	.loc	27 46 25 is_stmt 0
	imull	$-1030792151, %ebx, %eax
	addl	$85899344, %eax
	movl	%eax, %ecx
	rorl	$2, %ecx
	cmpl	$42949672, %ecx
	seta	%cl
	.loc	27 46 46
	rorl	$4, %eax
	cmpl	$10737419, %eax
	setb	%al
	.loc	27 46 24
	orb	%cl, %al
Ltmp463:
	.loc	27 50 5 is_stmt 1
	movzbl	%al, %eax
	addl	$365, %eax
Ltmp464:
LBB28_4:
	.loc	27 80 31
	subl	%eax, %r13d
	jo	LBB28_25
Ltmp465:
	.loc	27 80 17 is_stmt 0
	movl	%r13d, %edi
	movl	%r12d, %esi
	callq	__ZN4time7display13iso_week_days17h19a31cd5eceb66adE
Ltmp466:
	.loc	27 82 12 is_stmt 1
	testl	%eax, %eax
	.loc	27 82 9 is_stmt 0
	js	LBB28_13
Ltmp467:
	.loc	27 84 13 is_stmt 1
	incl	%ebx
	jo	LBB28_26
Ltmp468:
	movl	%ebx, -44(%rbp)
Ltmp469:
	.loc	27 0 13 is_stmt 0
	jmp	LBB28_12
Ltmp470:
LBB28_8:
	.loc	27 77 9 is_stmt 1
	decl	%ebx
Ltmp471:
	movl	%ebx, -44(%rbp)
	movl	$365, %eax
Ltmp472:
	.loc	27 46 5
	testb	$3, %bl
	jne	LBB28_10
Ltmp473:
	.loc	27 46 25 is_stmt 0
	imull	$-1030792151, %ebx, %eax
	addl	$85899344, %eax
	movl	%eax, %ecx
	rorl	$2, %ecx
	cmpl	$42949672, %ecx
	seta	%cl
	.loc	27 46 46
	rorl	$4, %eax
	cmpl	$10737419, %eax
	setb	%al
	.loc	27 46 24
	orb	%cl, %al
Ltmp474:
	.loc	27 50 5 is_stmt 1
	movzbl	%al, %eax
	addl	$365, %eax
Ltmp475:
LBB28_10:
	.loc	27 78 30
	addl	%eax, %r13d
	jo	LBB28_24
Ltmp476:
	.loc	27 78 16 is_stmt 0
	movl	%r13d, %edi
	movl	%r12d, %esi
	callq	__ZN4time7display13iso_week_days17h19a31cd5eceb66adE
Ltmp477:
LBB28_12:
	.loc	27 0 0
	movl	%eax, %r14d
Ltmp478:
LBB28_13:
	.loc	27 90 9 is_stmt 1
	cmpl	$103, %r15d
	je	LBB28_18
Ltmp479:
	cmpl	$86, %r15d
	je	LBB28_19
Ltmp480:
	cmpl	$71, %r15d
	jne	LBB28_16
Ltmp481:
	.loc	27 0 9 is_stmt 0
	leaq	-44(%rbp), %rax
Ltmp482:
	.loc	27 90 16
	movq	%rax, -64(%rbp)
	movq	__ZN4core3fmt3num3imp52_$LT$impl$u20$core..fmt..Display$u20$for$u20$i32$GT$3fmt17h00ed7ff77f9da654E@GOTPCREL(%rip), %rax
	movq	%rax, -56(%rbp)
Ltmp483:
	.loc	11 328 9 is_stmt 1
	leaq	l___unnamed_33(%rip), %rax
Ltmp484:
	movq	%rax, -120(%rbp)
	movq	$1, -112(%rbp)
	movq	$0, -104(%rbp)
	jmp	LBB28_21
Ltmp485:
LBB28_19:
	.loc	27 92 37
	movslq	%r14d, %rax
	imulq	$-1840700269, %rax, %rcx
	shrq	$32, %rcx
	addl	%ecx, %eax
	movl	%eax, %ecx
	sarl	$2, %ecx
	shrl	$31, %eax
	leal	1(%rcx,%rax), %eax
	movl	%eax, -48(%rbp)
	jmp	LBB28_20
Ltmp486:
LBB28_18:
	.loc	27 91 38
	movslq	%ebx, %rax
	imulq	$1374389535, %rax, %rcx
	movq	%rcx, %rdx
	shrq	$63, %rdx
	shrq	$32, %rcx
	sarl	$5, %ecx
	addl	%edx, %ecx
	imull	$100, %ecx, %ecx
	.loc	27 91 37 is_stmt 0
	negl	%ecx
	leal	100(%rax,%rcx), %eax
	cltq
	imulq	$1374389535, %rax, %rcx
	movq	%rcx, %rdx
	shrq	$63, %rdx
	shrq	$32, %rcx
	sarl	$5, %ecx
	addl	%edx, %ecx
	imull	$100, %ecx, %ecx
	subl	%ecx, %eax
	movl	%eax, -48(%rbp)
Ltmp487:
LBB28_20:
	.loc	27 0 37
	leaq	-48(%rbp), %rax
Ltmp488:
	movq	%rax, -64(%rbp)
	movq	__ZN4core3fmt3num3imp52_$LT$impl$u20$core..fmt..Display$u20$for$u20$i32$GT$3fmt17h00ed7ff77f9da654E@GOTPCREL(%rip), %rax
	movq	%rax, -56(%rbp)
Ltmp489:
	leaq	l___unnamed_33(%rip), %rax
Ltmp490:
	movq	%rax, -120(%rbp)
	movq	$1, -112(%rbp)
	leaq	l___unnamed_34(%rip), %rax
Ltmp491:
	movq	%rax, -104(%rbp)
	movq	$1, -96(%rbp)
Ltmp492:
LBB28_21:
	leaq	-64(%rbp), %rax
	movq	%rax, -88(%rbp)
	movq	$1, -80(%rbp)
	leaq	-120(%rbp), %rsi
	movq	-72(%rbp), %rdi
	callq	__ZN4core3fmt9Formatter9write_fmt17h742ca6aae87ad23cE
	jmp	LBB28_22
Ltmp493:
LBB28_16:
	xorl	%eax, %eax
Ltmp494:
LBB28_22:
	.loc	27 95 2 is_stmt 1
	addq	$88, %rsp
	popq	%rbx
	popq	%r12
	popq	%r13
	popq	%r14
	popq	%r15
Ltmp495:
	popq	%rbp
	retq
Ltmp496:
LBB28_23:
	.loc	27 72 20
	leaq	_str.5(%rip), %rdi
	leaq	l___unnamed_35(%rip), %rdx
	movl	$28, %esi
Ltmp497:
	callq	__ZN4core9panicking5panic17h383a6b80ea7021aaE
Ltmp498:
LBB28_25:
	.loc	27 80 31
	leaq	_str.3(%rip), %rdi
	leaq	l___unnamed_36(%rip), %rdx
	movl	$33, %esi
	callq	__ZN4core9panicking5panic17h383a6b80ea7021aaE
Ltmp499:
LBB28_26:
	.loc	27 84 13
	leaq	_str.5(%rip), %rdi
	leaq	l___unnamed_37(%rip), %rdx
	movl	$28, %esi
	callq	__ZN4core9panicking5panic17h383a6b80ea7021aaE
Ltmp500:
LBB28_24:
	.loc	27 78 30
	leaq	_str.5(%rip), %rdi
	leaq	l___unnamed_38(%rip), %rdx
	movl	$28, %esi
	callq	__ZN4core9panicking5panic17h383a6b80ea7021aaE
Ltmp501:
Lfunc_end28:
	.cfi_endproc

	.p2align	4, 0x90
__ZN4time7display10parse_type17h896a39e835e24ee4E:
Lfunc_begin29:
	.loc	27 97 0
	.cfi_startproc
	pushq	%rbp
	.cfi_def_cfa_offset 16
	.cfi_offset %rbp, -16
	movq	%rsp, %rbp
	.cfi_def_cfa_register %rbp
	pushq	%r15
	pushq	%r14
	pushq	%rbx
	subq	$120, %rsp
	.cfi_offset %rbx, -40
	.cfi_offset %r14, -32
	.cfi_offset %r15, -24
Ltmp502:
	.loc	27 99 9 prologue_end
	addl	$-37, %esi
Ltmp503:
	cmpl	$85, %esi
	ja	LBB29_146
Ltmp504:
	.loc	27 0 9 is_stmt 0
	movq	%rdx, %rbx
Ltmp505:
	movq	%rdi, %r14
Ltmp506:
	leaq	LJTI29_0(%rip), %rax
	movslq	(%rax,%rsi,4), %rcx
	addq	%rax, %rcx
	jmpq	*%rcx
Ltmp507:
LBB29_2:
	.loc	27 162 13 is_stmt 1
	movq	%r14, %rdi
	movl	$109, %esi
	movq	%rbx, %rdx
	callq	__ZN4time7display10parse_type17h896a39e835e24ee4E
	movb	$1, %r15b
	.loc	27 162 37 is_stmt 0
	testb	%al, %al
	jne	LBB29_111
Ltmp508:
	.loc	27 163 13 is_stmt 1
	leaq	l___unnamed_39(%rip), %rsi
	movl	$1, %edx
	movq	%r14, %rdi
	callq	__ZN4core3fmt9Formatter9write_str17h98e119ad25a8903eE
	.loc	27 163 31 is_stmt 0
	testb	%al, %al
	jne	LBB29_111
Ltmp509:
	.loc	27 164 13 is_stmt 1
	movq	%r14, %rdi
	movl	$100, %esi
	movq	%rbx, %rdx
	callq	__ZN4time7display10parse_type17h896a39e835e24ee4E
	.loc	27 164 37 is_stmt 0
	testb	%al, %al
	jne	LBB29_111
Ltmp510:
	.loc	27 165 13 is_stmt 1
	leaq	l___unnamed_39(%rip), %rsi
	movl	$1, %edx
	movq	%r14, %rdi
	callq	__ZN4core3fmt9Formatter9write_str17h98e119ad25a8903eE
	.loc	27 165 31 is_stmt 0
	testb	%al, %al
	jne	LBB29_111
Ltmp511:
	.loc	27 166 13 is_stmt 1
	movq	%r14, %rdi
	movl	$121, %esi
	jmp	LBB29_75
Ltmp512:
LBB29_7:
	.loc	27 217 13
	movq	%r14, %rdi
	movl	$72, %esi
	movq	%rbx, %rdx
	callq	__ZN4time7display10parse_type17h896a39e835e24ee4E
	movb	$1, %r15b
	.loc	27 217 37 is_stmt 0
	testb	%al, %al
	jne	LBB29_111
Ltmp513:
	.loc	27 218 13 is_stmt 1
	leaq	l___unnamed_40(%rip), %rsi
	movl	$1, %edx
	movq	%r14, %rdi
	callq	__ZN4core3fmt9Formatter9write_str17h98e119ad25a8903eE
	.loc	27 218 31 is_stmt 0
	testb	%al, %al
	jne	LBB29_111
Ltmp514:
	.loc	27 219 13 is_stmt 1
	movq	%r14, %rdi
	movl	$77, %esi
	movq	%rbx, %rdx
	callq	__ZN4time7display10parse_type17h896a39e835e24ee4E
	.loc	27 219 37 is_stmt 0
	testb	%al, %al
	jne	LBB29_111
Ltmp515:
	.loc	27 220 13 is_stmt 1
	leaq	l___unnamed_40(%rip), %rsi
	movl	$1, %edx
	movq	%r14, %rdi
	callq	__ZN4core3fmt9Formatter9write_str17h98e119ad25a8903eE
	.loc	27 220 31 is_stmt 0
	testb	%al, %al
	jne	LBB29_111
Ltmp516:
	.loc	27 221 13 is_stmt 1
	movq	%r14, %rdi
	movl	$83, %esi
	jmp	LBB29_75
Ltmp517:
LBB29_12:
	.loc	27 135 13
	movl	16(%rbx), %eax
	cmpq	$11, %rax
	ja	LBB29_147
Ltmp518:
	.loc	27 0 13 is_stmt 0
	leaq	l___unnamed_41(%rip), %rsi
	leaq	LJTI29_1(%rip), %rcx
	movslq	(%rcx,%rax,4), %rax
	addq	%rcx, %rax
	jmpq	*%rax
Ltmp519:
LBB29_14:
	leaq	l___unnamed_42(%rip), %rsi
	movl	$3, %edx
	jmp	LBB29_145
Ltmp520:
LBB29_15:
	.loc	27 179 16 is_stmt 1
	movl	20(%rbx), %edx
	movl	24(%rbx), %ecx
	movl	28(%rbx), %r8d
	movq	%r14, %rdi
	movl	$103, %esi
	jmp	LBB29_57
Ltmp521:
LBB29_16:
	.loc	27 246 27
	movl	36(%rbx), %eax
	xorl	%ecx, %ecx
	testl	%eax, %eax
	setle	%cl
	.loc	27 246 24 is_stmt 0
	leal	43(%rcx,%rcx), %ecx
	.loc	27 0 0
	movl	%ecx, -140(%rbp)
Ltmp522:
	.loc	27 259 5 is_stmt 1
	jns	LBB29_19
Ltmp523:
	.loc	27 259 15 is_stmt 0
	cmpl	$-2147483648, %eax
	je	LBB29_161
Ltmp524:
	negl	%eax
Ltmp525:
LBB29_19:
	.loc	27 247 25 is_stmt 1
	movl	%eax, %eax
	movl	$2290649225, %ecx
	imulq	%rax, %rcx
	shrq	$37, %rcx
	movl	$2443359173, %edx
Ltmp526:
	.loc	27 248 21
	imulq	%rax, %rdx
	shrq	$43, %rdx
	movl	%edx, -88(%rbp)
Ltmp527:
	.loc	27 249 13
	imull	$-60, %edx, %eax
	addl	%ecx, %eax
Ltmp528:
	movl	%eax, -144(%rbp)
	leaq	-140(%rbp), %rax
Ltmp529:
	.loc	27 250 13
	movq	%rax, -72(%rbp)
	movq	__ZN43_$LT$char$u20$as$u20$core..fmt..Display$GT$3fmt17haf02f59875f30dd3E@GOTPCREL(%rip), %rax
	movq	%rax, -64(%rbp)
	leaq	-88(%rbp), %rax
	movq	%rax, -56(%rbp)
	movq	__ZN4core3fmt3num3imp52_$LT$impl$u20$core..fmt..Display$u20$for$u20$i32$GT$3fmt17h00ed7ff77f9da654E@GOTPCREL(%rip), %rax
	movq	%rax, -48(%rbp)
	leaq	-144(%rbp), %rcx
	movq	%rcx, -40(%rbp)
	movq	%rax, -32(%rbp)
Ltmp530:
	.loc	11 345 9
	leaq	l___unnamed_43(%rip), %rax
Ltmp531:
	movq	%rax, -136(%rbp)
	movq	$3, -128(%rbp)
	leaq	l___unnamed_44(%rip), %rax
Ltmp532:
	movq	%rax, -120(%rbp)
	movq	$3, -112(%rbp)
	leaq	-72(%rbp), %rax
	movq	%rax, -104(%rbp)
	movq	$3, -96(%rbp)
	leaq	-136(%rbp), %rsi
	jmp	LBB29_110
Ltmp533:
LBB29_20:
	.loc	27 170 37
	addq	$40, %rbx
Ltmp534:
	.loc	27 170 16 is_stmt 0
	movq	%rbx, -136(%rbp)
	movq	__ZN4core3fmt3num3imp52_$LT$impl$u20$core..fmt..Display$u20$for$u20$i32$GT$3fmt17h00ed7ff77f9da654E@GOTPCREL(%rip), %rax
	movq	%rax, -128(%rbp)
Ltmp535:
	.loc	11 345 9 is_stmt 1
	leaq	l___unnamed_33(%rip), %rax
Ltmp536:
	movq	%rax, -72(%rbp)
	movq	$1, -64(%rbp)
	leaq	l___unnamed_45(%rip), %rax
Ltmp537:
	.loc	11 0 9 is_stmt 0
	jmp	LBB29_107
Ltmp538:
LBB29_21:
	.loc	27 215 34 is_stmt 1
	movq	%rbx, %rdi
	callq	__ZN4time2Tm11to_timespec17h973c877f4b209cc4E
	movq	%rax, -136(%rbp)
	movl	%edx, -128(%rbp)
	leaq	-136(%rbp), %rax
Ltmp539:
	.loc	27 215 16 is_stmt 0
	movq	%rax, -88(%rbp)
	movq	__ZN4core3fmt3num3imp52_$LT$impl$u20$core..fmt..Display$u20$for$u20$i64$GT$3fmt17h310ed6661e8c983fE@GOTPCREL(%rip), %rax
	jmp	LBB29_66
Ltmp540:
LBB29_22:
	.loc	27 110 13 is_stmt 1
	movl	24(%rbx), %eax
	cmpq	$6, %rax
	ja	LBB29_148
Ltmp541:
	.loc	27 0 13 is_stmt 0
	leaq	l___unnamed_46(%rip), %rsi
	leaq	LJTI29_3(%rip), %rcx
	movslq	(%rcx,%rax,4), %rax
	addq	%rcx, %rax
	jmpq	*%rax
Ltmp542:
LBB29_24:
	leaq	l___unnamed_47(%rip), %rsi
	movl	$3, %edx
	jmp	LBB29_145
Ltmp543:
LBB29_25:
	.loc	27 199 33 is_stmt 1
	cmpl	$12, 8(%rbx)
	.loc	27 199 30 is_stmt 0
	leaq	l___unnamed_48(%rip), %rax
	leaq	l___unnamed_49(%rip), %rsi
	jmp	LBB29_82
Ltmp544:
LBB29_26:
	.loc	27 206 13 is_stmt 1
	movq	%r14, %rdi
	movl	$73, %esi
	movq	%rbx, %rdx
	callq	__ZN4time7display10parse_type17h896a39e835e24ee4E
	movb	$1, %r15b
	.loc	27 206 37 is_stmt 0
	testb	%al, %al
	jne	LBB29_111
Ltmp545:
	.loc	27 207 13 is_stmt 1
	leaq	l___unnamed_40(%rip), %rsi
	movl	$1, %edx
	movq	%r14, %rdi
	callq	__ZN4core3fmt9Formatter9write_str17h98e119ad25a8903eE
	.loc	27 207 31 is_stmt 0
	testb	%al, %al
	jne	LBB29_111
Ltmp546:
	.loc	27 208 13 is_stmt 1
	movq	%r14, %rdi
	movl	$77, %esi
	movq	%rbx, %rdx
	callq	__ZN4time7display10parse_type17h896a39e835e24ee4E
	.loc	27 208 37 is_stmt 0
	testb	%al, %al
	jne	LBB29_111
Ltmp547:
	.loc	27 209 13 is_stmt 1
	leaq	l___unnamed_40(%rip), %rsi
	movl	$1, %edx
	movq	%r14, %rdi
	callq	__ZN4core3fmt9Formatter9write_str17h98e119ad25a8903eE
	.loc	27 209 31 is_stmt 0
	testb	%al, %al
	jne	LBB29_111
Ltmp548:
	.loc	27 210 13 is_stmt 1
	movq	%r14, %rdi
	movl	$83, %esi
	movq	%rbx, %rdx
	callq	__ZN4time7display10parse_type17h896a39e835e24ee4E
	.loc	27 210 37 is_stmt 0
	testb	%al, %al
	jne	LBB29_111
Ltmp549:
	.loc	27 211 13 is_stmt 1
	leaq	l___unnamed_50(%rip), %rsi
	movl	$1, %edx
	movq	%r14, %rdi
	callq	__ZN4core3fmt9Formatter9write_str17h98e119ad25a8903eE
	.loc	27 211 31 is_stmt 0
	testb	%al, %al
	jne	LBB29_111
Ltmp550:
	.loc	27 212 13 is_stmt 1
	movq	%r14, %rdi
	movl	$112, %esi
	jmp	LBB29_75
Ltmp551:
LBB29_33:
	.loc	27 229 16
	movl	20(%rbx), %edx
	movl	24(%rbx), %ecx
	movl	28(%rbx), %r8d
	movq	%r14, %rdi
	movl	$86, %esi
	jmp	LBB29_57
Ltmp552:
LBB29_34:
	.loc	27 224 38
	movl	28(%rbx), %eax
	subl	24(%rbx), %eax
	jo	LBB29_149
Ltmp553:
	.loc	27 224 37 is_stmt 0
	addl	$7, %eax
	jno	LBB29_43
Ltmp554:
	leaq	_str.5(%rip), %rdi
	leaq	l___unnamed_51(%rip), %rdx
	movl	$28, %esi
	callq	__ZN4core9panicking5panic17h383a6b80ea7021aaE
Ltmp555:
LBB29_37:
	.loc	27 168 37 is_stmt 1
	addq	$12, %rbx
Ltmp556:
	.loc	27 0 37 is_stmt 0
	jmp	LBB29_68
Ltmp557:
LBB29_38:
	.loc	27 197 16 is_stmt 1
	leaq	l___unnamed_52(%rip), %rsi
	.loc	27 0 0 is_stmt 0
	movl	$1, %edx
	jmp	LBB29_145
Ltmp558:
LBB29_39:
	.loc	27 238 49 is_stmt 1
	movl	24(%rbx), %ecx
	decl	%ecx
	jo	LBB29_150
Ltmp559:
	.loc	27 238 48 is_stmt 0
	addl	$7, %ecx
	jo	LBB29_151
Ltmp560:
	.loc	27 0 0
	movl	28(%rbx), %eax
	.loc	27 238 48
	movslq	%ecx, %rcx
	imulq	$-1840700269, %rcx, %rdx
	shrq	$32, %rdx
	addl	%ecx, %edx
	movl	%edx, %esi
	shrl	$31, %esi
	sarl	$2, %edx
	addl	%esi, %edx
	leal	(,%rdx,8), %esi
	subl	%esi, %edx
	addl	%ecx, %edx
	.loc	27 238 35
	subl	%edx, %eax
	jo	LBB29_152
Ltmp561:
	.loc	27 238 34
	addl	$7, %eax
	jo	LBB29_153
Ltmp562:
LBB29_43:
	.loc	27 0 0
	cltq
	imulq	$-1840700269, %rax, %rcx
	shrq	$32, %rcx
	addl	%ecx, %eax
	movl	%eax, %ecx
	shrl	$31, %ecx
	sarl	$2, %eax
	addl	%ecx, %eax
	jmp	LBB29_104
Ltmp563:
LBB29_44:
	.loc	27 169 36 is_stmt 1
	addq	$12, %rbx
Ltmp564:
	.loc	27 0 36 is_stmt 0
	jmp	LBB29_80
Ltmp565:
LBB29_45:
	.loc	27 180 37 is_stmt 1
	addq	$8, %rbx
Ltmp566:
	.loc	27 0 37 is_stmt 0
	jmp	LBB29_68
Ltmp567:
LBB29_46:
	.loc	27 201 13 is_stmt 1
	movq	%r14, %rdi
	movl	$72, %esi
	movq	%rbx, %rdx
	callq	__ZN4time7display10parse_type17h896a39e835e24ee4E
	movb	$1, %r15b
	.loc	27 201 37 is_stmt 0
	testb	%al, %al
	jne	LBB29_111
Ltmp568:
	.loc	27 202 13 is_stmt 1
	leaq	l___unnamed_40(%rip), %rsi
	movl	$1, %edx
	movq	%r14, %rdi
	callq	__ZN4core3fmt9Formatter9write_str17h98e119ad25a8903eE
	.loc	27 202 31 is_stmt 0
	testb	%al, %al
	jne	LBB29_111
Ltmp569:
	.loc	27 203 13 is_stmt 1
	movq	%r14, %rdi
	movl	$77, %esi
	jmp	LBB29_75
Ltmp570:
LBB29_49:
	.loc	27 196 37
	movl	16(%rbx), %eax
	incl	%eax
	jo	LBB29_154
Ltmp571:
	.loc	27 0 0 is_stmt 0
	movl	%eax, -88(%rbp)
	jmp	LBB29_105
Ltmp572:
LBB29_51:
	.loc	27 172 13 is_stmt 1
	movq	%r14, %rdi
	movl	$89, %esi
	movq	%rbx, %rdx
	callq	__ZN4time7display10parse_type17h896a39e835e24ee4E
	movb	$1, %r15b
	.loc	27 172 37 is_stmt 0
	testb	%al, %al
	jne	LBB29_111
Ltmp573:
	.loc	27 173 13 is_stmt 1
	leaq	l___unnamed_53(%rip), %rsi
	movl	$1, %edx
	movq	%r14, %rdi
	callq	__ZN4core3fmt9Formatter9write_str17h98e119ad25a8903eE
	.loc	27 173 31 is_stmt 0
	testb	%al, %al
	jne	LBB29_111
Ltmp574:
	.loc	27 174 13 is_stmt 1
	movq	%r14, %rdi
	movl	$109, %esi
	movq	%rbx, %rdx
	callq	__ZN4time7display10parse_type17h896a39e835e24ee4E
	.loc	27 174 37 is_stmt 0
	testb	%al, %al
	jne	LBB29_111
Ltmp575:
	.loc	27 175 13 is_stmt 1
	leaq	l___unnamed_53(%rip), %rsi
	movl	$1, %edx
	movq	%r14, %rdi
	callq	__ZN4core3fmt9Formatter9write_str17h98e119ad25a8903eE
	.loc	27 175 31 is_stmt 0
	testb	%al, %al
	jne	LBB29_111
Ltmp576:
	.loc	27 176 13 is_stmt 1
	movq	%r14, %rdi
	movl	$100, %esi
	jmp	LBB29_75
Ltmp577:
LBB29_56:
	.loc	27 178 16
	movl	20(%rbx), %edx
	movl	24(%rbx), %ecx
	movl	28(%rbx), %r8d
	movq	%r14, %rdi
	movl	$71, %esi
Ltmp578:
LBB29_57:
	.loc	27 0 0 is_stmt 0
	addq	$120, %rsp
	popq	%rbx
Ltmp579:
	popq	%r14
Ltmp580:
	popq	%r15
	popq	%rbp
	jmp	__ZN4time7display8iso_week17h33478b9eb7361332E
LBB29_58:
Ltmp581:
	.loc	27 182 25 is_stmt 1
	movl	8(%rbx), %eax
Ltmp582:
	.loc	27 183 16
	testl	%eax, %eax
	movl	$12, %ecx
	.loc	27 183 13 is_stmt 0
	cmovnel	%eax, %ecx
Ltmp583:
	.loc	27 184 25 is_stmt 1
	leal	-12(%rcx), %eax
	.loc	27 184 16 is_stmt 0
	cmpl	$12, %ecx
	.loc	27 184 13
	cmovlel	%ecx, %eax
Ltmp584:
	.loc	27 0 0
	movl	%eax, -88(%rbp)
	jmp	LBB29_105
Ltmp585:
LBB29_59:
	.loc	27 100 13 is_stmt 1
	movl	24(%rbx), %eax
	cmpq	$6, %rax
	ja	LBB29_155
Ltmp586:
	.loc	27 0 13 is_stmt 0
	leaq	l___unnamed_54(%rip), %rsi
	movl	$6, %edx
	leaq	LJTI29_4(%rip), %rcx
	movslq	(%rcx,%rax,4), %rax
	addq	%rcx, %rax
	jmpq	*%rax
Ltmp587:
LBB29_61:
	leaq	l___unnamed_55(%rip), %rsi
	jmp	LBB29_145
Ltmp588:
LBB29_62:
	movl	$1900, %eax
	.loc	27 149 37 is_stmt 1
	addl	20(%rbx), %eax
	jo	LBB29_156
Ltmp589:
	cltq
	imulq	$1374389535, %rax, %rax
	movq	%rax, %rcx
	shrq	$63, %rcx
	sarq	$37, %rax
	addl	%ecx, %eax
	jmp	LBB29_104
Ltmp590:
LBB29_64:
	.loc	27 253 16
	leaq	l___unnamed_56(%rip), %rsi
	.loc	27 0 0 is_stmt 0
	movl	$1, %edx
	jmp	LBB29_145
Ltmp591:
LBB29_65:
	.loc	2 527 9 is_stmt 1
	movq	%rbx, -136(%rbp)
	movq	$1, -128(%rbp)
	leaq	-136(%rbp), %rax
Ltmp592:
	.loc	27 252 16
	movq	%rax, -88(%rbp)
	leaq	__ZN4time7display60_$LT$impl$u20$core..fmt..Display$u20$for$u20$time..TmFmt$GT$3fmt17hf2e21f568ec45d5dE(%rip), %rax
Ltmp593:
LBB29_66:
	.loc	27 0 0 is_stmt 0
	movq	%rax, -80(%rbp)
Ltmp594:
	leaq	l___unnamed_33(%rip), %rax
Ltmp595:
	movq	%rax, -72(%rbp)
	movq	$1, -64(%rbp)
	movq	$0, -56(%rbp)
	leaq	-88(%rbp), %rax
Ltmp596:
	jmp	LBB29_109
Ltmp597:
LBB29_67:
	.loc	27 195 37 is_stmt 1
	addq	$4, %rbx
Ltmp598:
LBB29_68:
	.loc	27 0 0 is_stmt 0
	movq	%rbx, -136(%rbp)
	jmp	LBB29_106
Ltmp599:
LBB29_69:
	.loc	27 231 13 is_stmt 1
	movq	%r14, %rdi
	movl	$101, %esi
	movq	%rbx, %rdx
	callq	__ZN4time7display10parse_type17h896a39e835e24ee4E
	movb	$1, %r15b
	.loc	27 231 37 is_stmt 0
	testb	%al, %al
	jne	LBB29_111
Ltmp600:
	.loc	27 232 13 is_stmt 1
	leaq	l___unnamed_53(%rip), %rsi
	movl	$1, %edx
	movq	%r14, %rdi
	callq	__ZN4core3fmt9Formatter9write_str17h98e119ad25a8903eE
	.loc	27 232 31 is_stmt 0
	testb	%al, %al
	jne	LBB29_111
Ltmp601:
	.loc	27 233 13 is_stmt 1
	movq	%r14, %rdi
	movl	$98, %esi
	movq	%rbx, %rdx
	callq	__ZN4time7display10parse_type17h896a39e835e24ee4E
	.loc	27 233 37 is_stmt 0
	testb	%al, %al
	jne	LBB29_111
Ltmp602:
	.loc	27 234 13 is_stmt 1
	leaq	l___unnamed_53(%rip), %rsi
Ltmp603:
LBB29_73:
	.loc	27 0 0 is_stmt 0
	movl	$1, %edx
	movq	%r14, %rdi
	callq	__ZN4core3fmt9Formatter9write_str17h98e119ad25a8903eE
	testb	%al, %al
	jne	LBB29_111
Ltmp604:
	movq	%r14, %rdi
	movl	$89, %esi
Ltmp605:
LBB29_75:
	movq	%rbx, %rdx
	addq	$120, %rsp
	popq	%rbx
Ltmp606:
	popq	%r14
Ltmp607:
	popq	%r15
	popq	%rbp
	jmp	__ZN4time7display10parse_type17h896a39e835e24ee4E
LBB29_76:
Ltmp608:
	.loc	27 120 13 is_stmt 1
	movl	16(%rbx), %eax
	cmpq	$11, %rax
	ja	LBB29_157
Ltmp609:
	.loc	27 0 13 is_stmt 0
	leaq	l___unnamed_57(%rip), %rsi
	movl	$7, %edx
	leaq	LJTI29_2(%rip), %rcx
	movslq	(%rcx,%rax,4), %rax
	addq	%rcx, %rax
	jmpq	*%rax
Ltmp610:
LBB29_78:
	leaq	L___unnamed_58(%rip), %rsi
	jmp	LBB29_144
Ltmp611:
LBB29_79:
	.loc	27 188 36 is_stmt 1
	addq	$8, %rbx
Ltmp612:
LBB29_80:
	.loc	27 0 0 is_stmt 0
	movq	%rbx, -136(%rbp)
	jmp	LBB29_95
Ltmp613:
LBB29_81:
	.loc	27 198 33 is_stmt 1
	cmpl	$12, 8(%rbx)
	.loc	27 198 30 is_stmt 0
	leaq	l___unnamed_59(%rip), %rax
	leaq	l___unnamed_60(%rip), %rsi
Ltmp614:
LBB29_82:
	.loc	27 0 0
	cmovlq	%rax, %rsi
	movl	$2, %edx
	jmp	LBB29_145
Ltmp615:
LBB29_83:
	.loc	27 151 13 is_stmt 1
	movq	%r14, %rdi
	movl	$97, %esi
	movq	%rbx, %rdx
	callq	__ZN4time7display10parse_type17h896a39e835e24ee4E
	movb	$1, %r15b
	.loc	27 151 37 is_stmt 0
	testb	%al, %al
	jne	LBB29_111
Ltmp616:
	.loc	27 152 13 is_stmt 1
	leaq	l___unnamed_50(%rip), %rsi
	movl	$1, %edx
	movq	%r14, %rdi
	callq	__ZN4core3fmt9Formatter9write_str17h98e119ad25a8903eE
	.loc	27 152 31 is_stmt 0
	testb	%al, %al
	jne	LBB29_111
Ltmp617:
	.loc	27 153 13 is_stmt 1
	movq	%r14, %rdi
	movl	$98, %esi
	movq	%rbx, %rdx
	callq	__ZN4time7display10parse_type17h896a39e835e24ee4E
	.loc	27 153 37 is_stmt 0
	testb	%al, %al
	jne	LBB29_111
Ltmp618:
	.loc	27 154 13 is_stmt 1
	leaq	l___unnamed_50(%rip), %rsi
	movl	$1, %edx
	movq	%r14, %rdi
	callq	__ZN4core3fmt9Formatter9write_str17h98e119ad25a8903eE
	.loc	27 154 31 is_stmt 0
	testb	%al, %al
	jne	LBB29_111
Ltmp619:
	.loc	27 155 13 is_stmt 1
	movq	%r14, %rdi
	movl	$101, %esi
	movq	%rbx, %rdx
	callq	__ZN4time7display10parse_type17h896a39e835e24ee4E
	.loc	27 155 37 is_stmt 0
	testb	%al, %al
	jne	LBB29_111
Ltmp620:
	.loc	27 156 13 is_stmt 1
	leaq	l___unnamed_50(%rip), %rsi
	movl	$1, %edx
	movq	%r14, %rdi
	callq	__ZN4core3fmt9Formatter9write_str17h98e119ad25a8903eE
	.loc	27 156 31 is_stmt 0
	testb	%al, %al
	jne	LBB29_111
Ltmp621:
	.loc	27 157 13 is_stmt 1
	movq	%r14, %rdi
	movl	$84, %esi
	movq	%rbx, %rdx
	callq	__ZN4time7display10parse_type17h896a39e835e24ee4E
	.loc	27 157 37 is_stmt 0
	testb	%al, %al
	jne	LBB29_111
Ltmp622:
	.loc	27 158 13 is_stmt 1
	leaq	l___unnamed_50(%rip), %rsi
	jmp	LBB29_73
Ltmp623:
LBB29_91:
	.loc	27 240 34
	addq	$24, %rbx
Ltmp624:
	.loc	27 240 16 is_stmt 0
	movq	%rbx, -136(%rbp)
	jmp	LBB29_101
Ltmp625:
LBB29_92:
	.loc	27 187 37 is_stmt 1
	movl	28(%rbx), %eax
	incl	%eax
	jo	LBB29_158
Ltmp626:
	movl	%eax, -88(%rbp)
	leaq	-88(%rbp), %rax
Ltmp627:
	.loc	27 187 16 is_stmt 0
	movq	%rax, -136(%rbp)
	movq	__ZN4core3fmt3num3imp52_$LT$impl$u20$core..fmt..Display$u20$for$u20$i32$GT$3fmt17h00ed7ff77f9da654E@GOTPCREL(%rip), %rax
	movq	%rax, -128(%rbp)
Ltmp628:
	.loc	11 345 9 is_stmt 1
	leaq	l___unnamed_33(%rip), %rax
Ltmp629:
	movq	%rax, -72(%rbp)
	movq	$1, -64(%rbp)
	leaq	l___unnamed_61(%rip), %rax
Ltmp630:
	.loc	11 0 9 is_stmt 0
	jmp	LBB29_107
Ltmp631:
LBB29_94:
	.loc	27 190 25 is_stmt 1
	movl	8(%rbx), %eax
Ltmp632:
	.loc	27 191 16
	testl	%eax, %eax
	movl	$12, %ecx
	.loc	27 191 13 is_stmt 0
	cmovnel	%eax, %ecx
Ltmp633:
	.loc	27 192 25 is_stmt 1
	leal	-12(%rcx), %eax
	.loc	27 192 16 is_stmt 0
	cmpl	$12, %ecx
	.loc	27 192 13
	cmovlel	%ecx, %eax
	.loc	27 0 0
	movl	%eax, -88(%rbp)
	leaq	-88(%rbp), %rax
Ltmp634:
	.loc	27 193 13 is_stmt 1
	movq	%rax, -136(%rbp)
Ltmp635:
LBB29_95:
	.loc	27 0 0 is_stmt 0
	movq	__ZN4core3fmt3num3imp52_$LT$impl$u20$core..fmt..Display$u20$for$u20$i32$GT$3fmt17h00ed7ff77f9da654E@GOTPCREL(%rip), %rax
	movq	%rax, -128(%rbp)
Ltmp636:
	leaq	l___unnamed_33(%rip), %rax
Ltmp637:
	movq	%rax, -72(%rbp)
	movq	$1, -64(%rbp)
	leaq	l___unnamed_62(%rip), %rax
Ltmp638:
	jmp	LBB29_107
Ltmp639:
LBB29_96:
	movl	$1900, %eax
	.loc	27 241 34 is_stmt 1
	addl	20(%rbx), %eax
	jo	LBB29_159
Ltmp640:
	movl	%eax, -88(%rbp)
	jmp	LBB29_100
Ltmp641:
LBB29_98:
	.loc	27 244 33
	xorl	%eax, %eax
	cmpl	$0, 36(%rbx)
	sete	%al
	.loc	27 244 30 is_stmt 0
	leaq	l___unnamed_63(%rip), %rcx
	leaq	l___unnamed_64(%rip), %rsi
	cmoveq	%rcx, %rsi
	leaq	(%rax,%rax,2), %rdx
	jmp	LBB29_145
Ltmp642:
LBB29_99:
	.loc	27 226 21 is_stmt 1
	movl	24(%rbx), %eax
Ltmp643:
	.loc	27 227 35
	testl	%eax, %eax
	movl	$7, %ecx
	.loc	27 227 31 is_stmt 0
	cmovnel	%eax, %ecx
	.loc	27 0 0
	movl	%ecx, -88(%rbp)
Ltmp644:
LBB29_100:
	leaq	-88(%rbp), %rax
Ltmp645:
	movq	%rax, -136(%rbp)
Ltmp646:
LBB29_101:
	movq	__ZN4core3fmt3num3imp52_$LT$impl$u20$core..fmt..Display$u20$for$u20$i32$GT$3fmt17h00ed7ff77f9da654E@GOTPCREL(%rip), %rax
	movq	%rax, -128(%rbp)
Ltmp647:
	leaq	l___unnamed_33(%rip), %rax
Ltmp648:
	movq	%rax, -72(%rbp)
	movq	$1, -64(%rbp)
	movq	$0, -56(%rbp)
	jmp	LBB29_108
Ltmp649:
LBB29_102:
	movl	$1900, %eax
	.loc	27 242 37 is_stmt 1
	addl	20(%rbx), %eax
	jo	LBB29_160
Ltmp650:
	cltq
	imulq	$1374389535, %rax, %rcx
	movq	%rcx, %rdx
	shrq	$63, %rdx
	sarq	$37, %rcx
	addl	%edx, %ecx
	imull	$100, %ecx, %ecx
	subl	%ecx, %eax
Ltmp651:
LBB29_104:
	.loc	27 0 0 is_stmt 0
	movl	%eax, -88(%rbp)
Ltmp652:
LBB29_105:
	leaq	-88(%rbp), %rax
Ltmp653:
	movq	%rax, -136(%rbp)
Ltmp654:
LBB29_106:
	movq	__ZN4core3fmt3num3imp52_$LT$impl$u20$core..fmt..Display$u20$for$u20$i32$GT$3fmt17h00ed7ff77f9da654E@GOTPCREL(%rip), %rax
	movq	%rax, -128(%rbp)
Ltmp655:
	leaq	l___unnamed_33(%rip), %rax
Ltmp656:
	movq	%rax, -72(%rbp)
	movq	$1, -64(%rbp)
	leaq	l___unnamed_34(%rip), %rax
Ltmp657:
LBB29_107:
	movq	%rax, -56(%rbp)
	movq	$1, -48(%rbp)
Ltmp658:
LBB29_108:
	leaq	-136(%rbp), %rax
Ltmp659:
LBB29_109:
	movq	%rax, -40(%rbp)
	movq	$1, -32(%rbp)
	leaq	-72(%rbp), %rsi
Ltmp660:
LBB29_110:
	movq	%r14, %rdi
	callq	__ZN4core3fmt9Formatter9write_fmt17h742ca6aae87ad23cE
	movl	%eax, %r15d
Ltmp661:
LBB29_111:
	.loc	27 256 2 is_stmt 1
	movl	%r15d, %eax
	addq	$120, %rsp
	popq	%rbx
	popq	%r14
Ltmp662:
	popq	%r15
	popq	%rbp
	retq
LBB29_112:
Ltmp663:
	.loc	27 223 16
	leaq	l___unnamed_65(%rip), %rsi
	.loc	27 0 0 is_stmt 0
	movl	$1, %edx
	jmp	LBB29_145
Ltmp664:
LBB29_135:
	leaq	l___unnamed_66(%rip), %rsi
	movl	$3, %edx
	jmp	LBB29_145
Ltmp665:
LBB29_113:
	leaq	l___unnamed_67(%rip), %rsi
	movl	$3, %edx
	jmp	LBB29_145
Ltmp666:
LBB29_115:
	leaq	l___unnamed_68(%rip), %rsi
	movl	$3, %edx
	jmp	LBB29_145
Ltmp667:
LBB29_116:
	leaq	l___unnamed_69(%rip), %rsi
	movl	$3, %edx
	jmp	LBB29_145
Ltmp668:
LBB29_117:
	leaq	l___unnamed_70(%rip), %rsi
	movl	$3, %edx
	jmp	LBB29_145
Ltmp669:
LBB29_118:
	leaq	l___unnamed_71(%rip), %rsi
	movl	$3, %edx
	jmp	LBB29_145
Ltmp670:
LBB29_119:
	leaq	l___unnamed_72(%rip), %rsi
	movl	$3, %edx
	jmp	LBB29_145
Ltmp671:
LBB29_120:
	leaq	l___unnamed_73(%rip), %rsi
	movl	$3, %edx
	jmp	LBB29_145
Ltmp672:
LBB29_121:
	leaq	l___unnamed_74(%rip), %rsi
	movl	$3, %edx
	jmp	LBB29_145
Ltmp673:
LBB29_122:
	leaq	l___unnamed_75(%rip), %rsi
	movl	$3, %edx
	jmp	LBB29_145
Ltmp674:
LBB29_123:
	leaq	l___unnamed_76(%rip), %rsi
	movl	$3, %edx
	jmp	LBB29_145
Ltmp675:
LBB29_124:
	leaq	l___unnamed_77(%rip), %rsi
	movl	$3, %edx
	jmp	LBB29_145
Ltmp676:
LBB29_125:
	leaq	l___unnamed_78(%rip), %rsi
	movl	$3, %edx
	jmp	LBB29_145
Ltmp677:
LBB29_126:
	leaq	l___unnamed_79(%rip), %rsi
	movl	$3, %edx
	jmp	LBB29_145
Ltmp678:
LBB29_127:
	leaq	l___unnamed_80(%rip), %rsi
Ltmp679:
LBB29_128:
	movl	$3, %edx
	jmp	LBB29_145
Ltmp680:
LBB29_129:
	leaq	L___unnamed_81(%rip), %rsi
	jmp	LBB29_144
Ltmp681:
LBB29_130:
	leaq	l___unnamed_82(%rip), %rsi
	movl	$7, %edx
	jmp	LBB29_145
Ltmp682:
LBB29_131:
	leaq	l___unnamed_83(%rip), %rsi
	movl	$9, %edx
	jmp	LBB29_145
Ltmp683:
LBB29_132:
	leaq	l___unnamed_84(%rip), %rsi
	jmp	LBB29_145
Ltmp684:
LBB29_133:
	leaq	L___unnamed_85(%rip), %rsi
	jmp	LBB29_144
Ltmp685:
LBB29_134:
	leaq	L___unnamed_86(%rip), %rsi
	jmp	LBB29_144
Ltmp686:
LBB29_136:
	leaq	l___unnamed_87(%rip), %rsi
	jmp	LBB29_145
Ltmp687:
LBB29_137:
	leaq	l___unnamed_88(%rip), %rsi
	movl	$5, %edx
	jmp	LBB29_145
Ltmp688:
LBB29_138:
	leaq	l___unnamed_89(%rip), %rsi
	movl	$5, %edx
	jmp	LBB29_145
Ltmp689:
LBB29_139:
	leaq	l___unnamed_90(%rip), %rsi
	movl	$6, %edx
	jmp	LBB29_145
Ltmp690:
LBB29_140:
	leaq	L___unnamed_91(%rip), %rsi
	movl	$4, %edx
	jmp	LBB29_145
Ltmp691:
LBB29_141:
	leaq	L___unnamed_92(%rip), %rsi
	movl	$4, %edx
	jmp	LBB29_145
Ltmp692:
LBB29_142:
	leaq	l___unnamed_93(%rip), %rsi
	movl	$9, %edx
	jmp	LBB29_145
Ltmp693:
LBB29_143:
	leaq	L___unnamed_94(%rip), %rsi
Ltmp694:
LBB29_144:
	movl	$8, %edx
Ltmp695:
LBB29_145:
	movq	%r14, %rdi
	addq	$120, %rsp
	popq	%rbx
Ltmp696:
	popq	%r14
Ltmp697:
	popq	%r15
	popq	%rbp
	jmp	__ZN4core3fmt9Formatter9write_str17h98e119ad25a8903eE
LBB29_146:
	.loc	27 254 16 is_stmt 1
	leaq	l___unnamed_95(%rip), %rdi
	leaq	l___unnamed_96(%rip), %rdx
	movl	$40, %esi
	callq	__ZN3std9panicking11begin_panic17hb2ff5062115317caE
LBB29_147:
Ltmp698:
	.loc	27 147 19
	leaq	l___unnamed_95(%rip), %rdi
	leaq	l___unnamed_97(%rip), %rdx
	movl	$40, %esi
	callq	__ZN3std9panicking11begin_panic17hb2ff5062115317caE
Ltmp699:
LBB29_148:
	.loc	27 117 18
	leaq	l___unnamed_95(%rip), %rdi
	leaq	l___unnamed_98(%rip), %rdx
	movl	$40, %esi
	callq	__ZN3std9panicking11begin_panic17hb2ff5062115317caE
Ltmp700:
LBB29_149:
	.loc	27 224 38
	leaq	_str.3(%rip), %rdi
	leaq	l___unnamed_99(%rip), %rdx
	movl	$33, %esi
	callq	__ZN4core9panicking5panic17h383a6b80ea7021aaE
Ltmp701:
LBB29_150:
	.loc	27 238 49
	leaq	_str.3(%rip), %rdi
	leaq	l___unnamed_100(%rip), %rdx
	movl	$33, %esi
	callq	__ZN4core9panicking5panic17h383a6b80ea7021aaE
Ltmp702:
LBB29_151:
	.loc	27 238 48 is_stmt 0
	leaq	_str.5(%rip), %rdi
	leaq	l___unnamed_101(%rip), %rdx
	movl	$28, %esi
	callq	__ZN4core9panicking5panic17h383a6b80ea7021aaE
Ltmp703:
LBB29_152:
	.loc	27 238 35
	leaq	_str.3(%rip), %rdi
	leaq	l___unnamed_102(%rip), %rdx
	movl	$33, %esi
	callq	__ZN4core9panicking5panic17h383a6b80ea7021aaE
Ltmp704:
LBB29_153:
	.loc	27 238 34
	leaq	_str.5(%rip), %rdi
	leaq	l___unnamed_103(%rip), %rdx
	movl	$28, %esi
	callq	__ZN4core9panicking5panic17h383a6b80ea7021aaE
Ltmp705:
LBB29_154:
	.loc	27 196 37 is_stmt 1
	leaq	_str.5(%rip), %rdi
	leaq	l___unnamed_104(%rip), %rdx
	movl	$28, %esi
	callq	__ZN4core9panicking5panic17h383a6b80ea7021aaE
Ltmp706:
LBB29_155:
	.loc	27 107 18
	leaq	l___unnamed_95(%rip), %rdi
	leaq	l___unnamed_105(%rip), %rdx
	movl	$40, %esi
	callq	__ZN3std9panicking11begin_panic17hb2ff5062115317caE
Ltmp707:
LBB29_156:
	.loc	27 149 37
	leaq	_str.5(%rip), %rdi
	leaq	l___unnamed_106(%rip), %rdx
	movl	$28, %esi
	callq	__ZN4core9panicking5panic17h383a6b80ea7021aaE
Ltmp708:
LBB29_157:
	.loc	27 132 18
	leaq	l___unnamed_95(%rip), %rdi
	leaq	l___unnamed_107(%rip), %rdx
	movl	$40, %esi
	callq	__ZN3std9panicking11begin_panic17hb2ff5062115317caE
Ltmp709:
LBB29_158:
	.loc	27 187 37
	leaq	_str.5(%rip), %rdi
	leaq	l___unnamed_108(%rip), %rdx
	movl	$28, %esi
	callq	__ZN4core9panicking5panic17h383a6b80ea7021aaE
Ltmp710:
LBB29_159:
	.loc	27 241 34
	leaq	_str.5(%rip), %rdi
	leaq	l___unnamed_109(%rip), %rdx
	movl	$28, %esi
	callq	__ZN4core9panicking5panic17h383a6b80ea7021aaE
Ltmp711:
LBB29_160:
	.loc	27 242 37
	leaq	_str.5(%rip), %rdi
	leaq	l___unnamed_110(%rip), %rdx
	movl	$28, %esi
	callq	__ZN4core9panicking5panic17h383a6b80ea7021aaE
Ltmp712:
LBB29_161:
	.loc	27 259 15
	leaq	_str.6(%rip), %rdi
	leaq	l___unnamed_29(%rip), %rdx
	movl	$31, %esi
	callq	__ZN4core9panicking5panic17h383a6b80ea7021aaE
Ltmp713:
Lfunc_end29:
	.cfi_endproc
	.p2align	2, 0x90
	.data_region jt32
.set L29_0_set_64, LBB29_64-LJTI29_0
.set L29_0_set_146, LBB29_146-LJTI29_0
.set L29_0_set_65, LBB29_65-LJTI29_0
.set L29_0_set_59, LBB29_59-LJTI29_0
.set L29_0_set_76, LBB29_76-LJTI29_0
.set L29_0_set_62, LBB29_62-LJTI29_0
.set L29_0_set_2, LBB29_2-LJTI29_0
.set L29_0_set_51, LBB29_51-LJTI29_0
.set L29_0_set_56, LBB29_56-LJTI29_0
.set L29_0_set_45, LBB29_45-LJTI29_0
.set L29_0_set_58, LBB29_58-LJTI29_0
.set L29_0_set_67, LBB29_67-LJTI29_0
.set L29_0_set_81, LBB29_81-LJTI29_0
.set L29_0_set_46, LBB29_46-LJTI29_0
.set L29_0_set_68, LBB29_68-LJTI29_0
.set L29_0_set_7, LBB29_7-LJTI29_0
.set L29_0_set_34, LBB29_34-LJTI29_0
.set L29_0_set_33, LBB29_33-LJTI29_0
.set L29_0_set_39, LBB29_39-LJTI29_0
.set L29_0_set_96, LBB29_96-LJTI29_0
.set L29_0_set_98, LBB29_98-LJTI29_0
.set L29_0_set_22, LBB29_22-LJTI29_0
.set L29_0_set_12, LBB29_12-LJTI29_0
.set L29_0_set_83, LBB29_83-LJTI29_0
.set L29_0_set_37, LBB29_37-LJTI29_0
.set L29_0_set_44, LBB29_44-LJTI29_0
.set L29_0_set_20, LBB29_20-LJTI29_0
.set L29_0_set_15, LBB29_15-LJTI29_0
.set L29_0_set_92, LBB29_92-LJTI29_0
.set L29_0_set_79, LBB29_79-LJTI29_0
.set L29_0_set_94, LBB29_94-LJTI29_0
.set L29_0_set_49, LBB29_49-LJTI29_0
.set L29_0_set_38, LBB29_38-LJTI29_0
.set L29_0_set_25, LBB29_25-LJTI29_0
.set L29_0_set_26, LBB29_26-LJTI29_0
.set L29_0_set_21, LBB29_21-LJTI29_0
.set L29_0_set_112, LBB29_112-LJTI29_0
.set L29_0_set_99, LBB29_99-LJTI29_0
.set L29_0_set_69, LBB29_69-LJTI29_0
.set L29_0_set_91, LBB29_91-LJTI29_0
.set L29_0_set_102, LBB29_102-LJTI29_0
.set L29_0_set_16, LBB29_16-LJTI29_0
LJTI29_0:
	.long	L29_0_set_64
	.long	L29_0_set_146
	.long	L29_0_set_146
	.long	L29_0_set_146
	.long	L29_0_set_146
	.long	L29_0_set_146
	.long	L29_0_set_65
	.long	L29_0_set_146
	.long	L29_0_set_146
	.long	L29_0_set_146
	.long	L29_0_set_146
	.long	L29_0_set_146
	.long	L29_0_set_146
	.long	L29_0_set_146
	.long	L29_0_set_146
	.long	L29_0_set_146
	.long	L29_0_set_146
	.long	L29_0_set_146
	.long	L29_0_set_146
	.long	L29_0_set_146
	.long	L29_0_set_146
	.long	L29_0_set_146
	.long	L29_0_set_146
	.long	L29_0_set_146
	.long	L29_0_set_146
	.long	L29_0_set_146
	.long	L29_0_set_146
	.long	L29_0_set_146
	.long	L29_0_set_59
	.long	L29_0_set_76
	.long	L29_0_set_62
	.long	L29_0_set_2
	.long	L29_0_set_146
	.long	L29_0_set_51
	.long	L29_0_set_56
	.long	L29_0_set_45
	.long	L29_0_set_58
	.long	L29_0_set_146
	.long	L29_0_set_146
	.long	L29_0_set_146
	.long	L29_0_set_67
	.long	L29_0_set_146
	.long	L29_0_set_146
	.long	L29_0_set_81
	.long	L29_0_set_146
	.long	L29_0_set_46
	.long	L29_0_set_68
	.long	L29_0_set_7
	.long	L29_0_set_34
	.long	L29_0_set_33
	.long	L29_0_set_39
	.long	L29_0_set_7
	.long	L29_0_set_96
	.long	L29_0_set_98
	.long	L29_0_set_146
	.long	L29_0_set_146
	.long	L29_0_set_146
	.long	L29_0_set_146
	.long	L29_0_set_146
	.long	L29_0_set_146
	.long	L29_0_set_22
	.long	L29_0_set_12
	.long	L29_0_set_83
	.long	L29_0_set_37
	.long	L29_0_set_44
	.long	L29_0_set_20
	.long	L29_0_set_15
	.long	L29_0_set_12
	.long	L29_0_set_146
	.long	L29_0_set_92
	.long	L29_0_set_79
	.long	L29_0_set_94
	.long	L29_0_set_49
	.long	L29_0_set_38
	.long	L29_0_set_146
	.long	L29_0_set_25
	.long	L29_0_set_146
	.long	L29_0_set_26
	.long	L29_0_set_21
	.long	L29_0_set_112
	.long	L29_0_set_99
	.long	L29_0_set_69
	.long	L29_0_set_91
	.long	L29_0_set_2
	.long	L29_0_set_102
	.long	L29_0_set_16
.set L29_1_set_128, LBB29_128-LJTI29_1
.set L29_1_set_14, LBB29_14-LJTI29_1
.set L29_1_set_116, LBB29_116-LJTI29_1
.set L29_1_set_117, LBB29_117-LJTI29_1
.set L29_1_set_135, LBB29_135-LJTI29_1
.set L29_1_set_119, LBB29_119-LJTI29_1
.set L29_1_set_120, LBB29_120-LJTI29_1
.set L29_1_set_118, LBB29_118-LJTI29_1
.set L29_1_set_121, LBB29_121-LJTI29_1
.set L29_1_set_115, LBB29_115-LJTI29_1
.set L29_1_set_122, LBB29_122-LJTI29_1
.set L29_1_set_113, LBB29_113-LJTI29_1
LJTI29_1:
	.long	L29_1_set_128
	.long	L29_1_set_14
	.long	L29_1_set_116
	.long	L29_1_set_117
	.long	L29_1_set_135
	.long	L29_1_set_119
	.long	L29_1_set_120
	.long	L29_1_set_118
	.long	L29_1_set_121
	.long	L29_1_set_115
	.long	L29_1_set_122
	.long	L29_1_set_113
.set L29_2_set_145, LBB29_145-LJTI29_2
.set L29_2_set_78, LBB29_78-LJTI29_2
.set L29_2_set_137, LBB29_137-LJTI29_2
.set L29_2_set_138, LBB29_138-LJTI29_2
.set L29_2_set_135, LBB29_135-LJTI29_2
.set L29_2_set_140, LBB29_140-LJTI29_2
.set L29_2_set_141, LBB29_141-LJTI29_2
.set L29_2_set_139, LBB29_139-LJTI29_2
.set L29_2_set_142, LBB29_142-LJTI29_2
.set L29_2_set_136, LBB29_136-LJTI29_2
.set L29_2_set_143, LBB29_143-LJTI29_2
.set L29_2_set_134, LBB29_134-LJTI29_2
LJTI29_2:
	.long	L29_2_set_145
	.long	L29_2_set_78
	.long	L29_2_set_137
	.long	L29_2_set_138
	.long	L29_2_set_135
	.long	L29_2_set_140
	.long	L29_2_set_141
	.long	L29_2_set_139
	.long	L29_2_set_142
	.long	L29_2_set_136
	.long	L29_2_set_143
	.long	L29_2_set_134
.set L29_3_set_128, LBB29_128-LJTI29_3
.set L29_3_set_24, LBB29_24-LJTI29_3
.set L29_3_set_124, LBB29_124-LJTI29_3
.set L29_3_set_125, LBB29_125-LJTI29_3
.set L29_3_set_123, LBB29_123-LJTI29_3
.set L29_3_set_126, LBB29_126-LJTI29_3
.set L29_3_set_127, LBB29_127-LJTI29_3
LJTI29_3:
	.long	L29_3_set_128
	.long	L29_3_set_24
	.long	L29_3_set_124
	.long	L29_3_set_125
	.long	L29_3_set_123
	.long	L29_3_set_126
	.long	L29_3_set_127
.set L29_4_set_145, LBB29_145-LJTI29_4
.set L29_4_set_61, LBB29_61-LJTI29_4
.set L29_4_set_130, LBB29_130-LJTI29_4
.set L29_4_set_131, LBB29_131-LJTI29_4
.set L29_4_set_129, LBB29_129-LJTI29_4
.set L29_4_set_132, LBB29_132-LJTI29_4
.set L29_4_set_133, LBB29_133-LJTI29_4
LJTI29_4:
	.long	L29_4_set_145
	.long	L29_4_set_61
	.long	L29_4_set_130
	.long	L29_4_set_131
	.long	L29_4_set_129
	.long	L29_4_set_132
	.long	L29_4_set_133
	.end_data_region

	.globl	__ZN4time8duration8Duration8num_days17habdba2ad9353da3bE
	.p2align	4, 0x90
__ZN4time8duration8Duration8num_days17habdba2ad9353da3bE:
Lfunc_begin30:
	.file	29 "/Users/yingyuhang/.cargo/registry/src/github.com-1ecc6299db9ec823/time-0.1.43/src/duration.rs"
	.loc	29 149 0
	.cfi_startproc
	pushq	%rbp
	.cfi_def_cfa_offset 16
	.cfi_offset %rbp, -16
	movq	%rsp, %rbp
	.cfi_def_cfa_register %rbp
Ltmp714:
	.loc	29 168 12 prologue_end
	movq	(%rdi), %rcx
	testq	%rcx, %rcx
	sets	%al
	cmpl	$0, 8(%rdi)
	setg	%dl
	andb	%al, %dl
	movzbl	%dl, %eax
	addq	%rcx, %rax
	movabsq	$1749024623285053783, %rcx
Ltmp715:
	.loc	29 150 9
	imulq	%rcx
	movq	%rdx, %rax
	shrq	$63, %rax
	sarq	$13, %rdx
	addq	%rdx, %rax
	.loc	29 151 6
	popq	%rbp
	retq
Ltmp716:
Lfunc_end30:
	.cfi_endproc

	.globl	__ZN4time8duration8Duration11num_seconds17h74e1c30f54075211E
	.p2align	4, 0x90
__ZN4time8duration8Duration11num_seconds17h74e1c30f54075211E:
Lfunc_begin31:
	.loc	29 166 0
	.cfi_startproc
	pushq	%rbp
	.cfi_def_cfa_offset 16
	.cfi_offset %rbp, -16
	movq	%rsp, %rbp
	.cfi_def_cfa_register %rbp
Ltmp717:
	.loc	29 168 12 prologue_end
	movq	(%rdi), %rax
	testq	%rax, %rax
	js	LBB31_1
Ltmp718:
	.loc	29 0 0 is_stmt 0
	popq	%rbp
	retq
Ltmp719:
LBB31_1:
	.loc	29 168 29
	xorl	%ecx, %ecx
	cmpl	$0, 8(%rdi)
	setg	%cl
	.loc	29 168 12
	addq	%rcx, %rax
	.loc	29 0 0
	popq	%rbp
	retq
Ltmp720:
Lfunc_end31:
	.cfi_endproc

	.globl	__ZN4time8duration8Duration16num_milliseconds17h45c89d4a17cfd28bE
	.p2align	4, 0x90
__ZN4time8duration8Duration16num_milliseconds17h45c89d4a17cfd28bE:
Lfunc_begin32:
	.loc	29 187 0 is_stmt 1
	.cfi_startproc
	pushq	%rbp
	.cfi_def_cfa_offset 16
	.cfi_offset %rbp, -16
	movq	%rsp, %rbp
	.cfi_def_cfa_register %rbp
Ltmp721:
	.loc	29 168 12 prologue_end
	movq	(%rdi), %rax
	testq	%rax, %rax
	sets	%sil
	movl	8(%rdi), %ecx
	testl	%ecx, %ecx
	setg	%dl
	andb	%sil, %dl
	movzbl	%dl, %esi
	addq	%rax, %rsi
Ltmp722:
	.loc	29 190 25
	imulq	$1000, %rsi, %rax
	jo	LBB32_3
Ltmp723:
	.loc	29 179 12
	leal	-1000000000(%rcx), %esi
	testb	%dl, %dl
	cmovnel	%esi, %ecx
Ltmp724:
	.loc	29 191 26
	movslq	%ecx, %rcx
	imulq	$1125899907, %rcx, %rcx
	movq	%rcx, %rdx
	shrq	$63, %rdx
	sarq	$50, %rcx
	addl	%edx, %ecx
Ltmp725:
	.loc	29 192 21
	movslq	%ecx, %rcx
Ltmp726:
	.loc	29 192 9 is_stmt 0
	addq	%rcx, %rax
Ltmp727:
	jo	LBB32_4
Ltmp728:
	.loc	29 193 6 is_stmt 1
	popq	%rbp
	retq
Ltmp729:
LBB32_3:
	.loc	29 190 25
	leaq	_str.2(%rip), %rdi
Ltmp730:
	leaq	l___unnamed_111(%rip), %rdx
	movl	$33, %esi
	callq	__ZN4core9panicking5panic17h383a6b80ea7021aaE
LBB32_4:
Ltmp731:
	.loc	29 192 9
	leaq	_str.5(%rip), %rdi
Ltmp732:
	leaq	l___unnamed_112(%rip), %rdx
	movl	$28, %esi
	callq	__ZN4core9panicking5panic17h383a6b80ea7021aaE
Ltmp733:
Lfunc_end32:
	.cfi_endproc

	.globl	__ZN4time8duration8Duration16num_microseconds17h3967d9050102d45aE
	.p2align	4, 0x90
__ZN4time8duration8Duration16num_microseconds17h3967d9050102d45aE:
Lfunc_begin33:
	.loc	29 197 0
	.cfi_startproc
	pushq	%rbp
	.cfi_def_cfa_offset 16
	.cfi_offset %rbp, -16
	movq	%rsp, %rbp
	.cfi_def_cfa_register %rbp
Ltmp734:
	.loc	29 168 12 prologue_end
	movq	(%rdi), %rdx
	testq	%rdx, %rdx
	sets	%sil
	movl	8(%rdi), %eax
	testl	%eax, %eax
	setg	%cl
	andb	%sil, %cl
	movzbl	%cl, %esi
	addq	%rdx, %rsi
Ltmp735:
	.loc	19 1721 30
	imulq	$1000000, %rsi, %rdx
Ltmp736:
	.loc	29 198 25
	jno	LBB33_2
Ltmp737:
	.loc	29 0 25 is_stmt 0
	xorl	%eax, %eax
	.loc	29 201 6 is_stmt 1
	popq	%rbp
	retq
Ltmp738:
LBB33_2:
	.loc	29 179 12
	leal	-1000000000(%rax), %esi
	testb	%cl, %cl
	cmovnel	%esi, %eax
Ltmp739:
	.loc	29 199 26
	cltq
	imulq	$274877907, %rax, %rax
	movq	%rax, %rcx
	shrq	$63, %rcx
	sarq	$38, %rax
	addl	%ecx, %eax
Ltmp740:
	.loc	29 200 31
	movslq	%eax, %rcx
Ltmp741:
	.loc	19 755 30
	xorl	%eax, %eax
Ltmp742:
	.loc	19 1668 30
	addq	%rcx, %rdx
Ltmp743:
	.loc	19 755 30
	setno	%al
Ltmp744:
	.loc	29 201 6
	popq	%rbp
	retq
Ltmp745:
Lfunc_end33:
	.cfi_endproc

	.globl	__ZN4time8duration8Duration15num_nanoseconds17h35d338812d4fa711E
	.p2align	4, 0x90
__ZN4time8duration8Duration15num_nanoseconds17h35d338812d4fa711E:
Lfunc_begin34:
	.loc	29 205 0
	.cfi_startproc
	pushq	%rbp
	.cfi_def_cfa_offset 16
	.cfi_offset %rbp, -16
	movq	%rsp, %rbp
	.cfi_def_cfa_register %rbp
Ltmp746:
	.loc	29 168 12 prologue_end
	movq	(%rdi), %rdx
	testq	%rdx, %rdx
	sets	%sil
	movl	8(%rdi), %eax
	testl	%eax, %eax
	setg	%cl
	andb	%sil, %cl
	movzbl	%cl, %esi
	addq	%rdx, %rsi
Ltmp747:
	.loc	19 1721 30
	imulq	$1000000000, %rsi, %rdx
Ltmp748:
	.loc	29 206 25
	jno	LBB34_2
Ltmp749:
	.loc	29 0 25 is_stmt 0
	xorl	%eax, %eax
	.loc	29 209 6 is_stmt 1
	popq	%rbp
	retq
Ltmp750:
LBB34_2:
	.loc	29 179 12
	leal	-1000000000(%rax), %esi
	testb	%cl, %cl
	cmovnel	%esi, %eax
Ltmp751:
	.loc	29 208 31
	movslq	%eax, %rcx
Ltmp752:
	.loc	19 755 30
	xorl	%eax, %eax
Ltmp753:
	.loc	19 1668 30
	addq	%rcx, %rdx
Ltmp754:
	.loc	19 755 30
	setno	%al
Ltmp755:
	.loc	29 209 6
	popq	%rbp
	retq
Ltmp756:
Lfunc_end34:
	.cfi_endproc

	.globl	__ZN4time8duration8Duration11checked_add17h41eeb22f0353ea7dE
	.p2align	4, 0x90
__ZN4time8duration8Duration11checked_add17h41eeb22f0353ea7dE:
Lfunc_begin35:
	.loc	29 212 0
	.cfi_startproc
	pushq	%rbp
	.cfi_def_cfa_offset 16
	.cfi_offset %rbp, -16
	movq	%rsp, %rbp
	.cfi_def_cfa_register %rbp
	movq	%rdi, %rax
Ltmp757:
	.loc	29 213 33 prologue_end
	movq	(%rsi), %rcx
Ltmp758:
	.loc	19 1668 30
	addq	(%rdx), %rcx
Ltmp759:
	.loc	29 213 24
	jno	LBB35_13
Ltmp760:
LBB35_1:
	.loc	29 0 24 is_stmt 0
	xorl	%ecx, %ecx
	movq	%rcx, (%rax)
	.loc	29 223 6 is_stmt 1
	popq	%rbp
	retq
LBB35_13:
Ltmp761:
	.loc	29 214 25
	movl	8(%rsi), %esi
Ltmp762:
	addl	8(%rdx), %esi
	jo	LBB35_14
Ltmp763:
	.loc	29 215 12
	cmpl	$1000000000, %esi
	.loc	29 215 9 is_stmt 0
	jl	LBB35_6
Ltmp764:
	.loc	19 1668 30 is_stmt 1
	incq	%rcx
Ltmp765:
	.loc	29 217 20
	jo	LBB35_1
Ltmp766:
	.loc	29 0 20 is_stmt 0
	addl	$-1000000000, %esi
Ltmp767:
LBB35_6:
	movabsq	$-9223372036854776, %rdx
Ltmp768:
	.loc	20 1151 21 is_stmt 1
	xorl	%edi, %edi
	.loc	20 1151 24 is_stmt 0
	cmpq	%rdx, %rcx
	.loc	20 1151 21
	setne	%dil
	movl	$255, %edx
	cmovgel	%edi, %edx
Ltmp769:
	.loc	20 444 13 is_stmt 1
	cmpb	$-1, %dl
	je	LBB35_1
Ltmp770:
	testb	%dl, %dl
	jne	LBB35_9
Ltmp771:
	.loc	20 1151 24
	cmpl	$192000000, %esi
	jl	LBB35_1
Ltmp772:
LBB35_9:
	.loc	20 0 24 is_stmt 0
	movabsq	$9223372036854775, %rdx
Ltmp773:
	.loc	20 1151 21
	xorl	%edi, %edi
	.loc	20 1151 24
	cmpq	%rdx, %rcx
	.loc	20 1151 21
	setne	%dil
	movl	$255, %edx
	cmovgel	%edi, %edx
Ltmp774:
	.loc	20 444 13 is_stmt 1
	testb	%dl, %dl
	jne	LBB35_11
Ltmp775:
	.loc	20 1151 24
	cmpl	$807000000, %esi
	.loc	20 1151 21 is_stmt 0
	setne	%dl
Ltmp776:
	.loc	20 0 21
	jl	LBB35_12
Ltmp777:
LBB35_11:
	.loc	20 319 23 is_stmt 1
	cmpb	$1, %dl
Ltmp778:
	.loc	29 222 9
	je	LBB35_1
Ltmp779:
LBB35_12:
	.loc	29 222 47 is_stmt 0
	movq	%rcx, 8(%rax)
	movl	%esi, 16(%rax)
	movl	$1, %ecx
Ltmp780:
	.loc	29 0 0
	movq	%rcx, (%rax)
	.loc	29 223 6 is_stmt 1
	popq	%rbp
	retq
Ltmp781:
LBB35_14:
	.loc	29 214 25
	leaq	_str.5(%rip), %rdi
	leaq	l___unnamed_113(%rip), %rdx
Ltmp782:
	movl	$28, %esi
	callq	__ZN4core9panicking5panic17h383a6b80ea7021aaE
Ltmp783:
Lfunc_end35:
	.cfi_endproc

	.globl	__ZN4time8duration8Duration11checked_sub17hc29ef3607fa415aaE
	.p2align	4, 0x90
__ZN4time8duration8Duration11checked_sub17hc29ef3607fa415aaE:
Lfunc_begin36:
	.loc	29 226 0
	.cfi_startproc
	pushq	%rbp
	.cfi_def_cfa_offset 16
	.cfi_offset %rbp, -16
	movq	%rsp, %rbp
	.cfi_def_cfa_register %rbp
	movq	%rdi, %rax
Ltmp784:
	.loc	29 227 33 prologue_end
	movq	(%rsi), %rcx
Ltmp785:
	.loc	19 1695 30
	subq	(%rdx), %rcx
Ltmp786:
	.loc	29 227 24
	jo	LBB36_1
Ltmp787:
	.loc	29 228 25
	movl	8(%rsi), %esi
Ltmp788:
	subl	8(%rdx), %esi
	jo	LBB36_14
Ltmp789:
	.loc	29 229 12
	testl	%esi, %esi
	.loc	29 229 9 is_stmt 0
	jns	LBB36_6
Ltmp790:
	.loc	19 1695 30 is_stmt 1
	decq	%rcx
Ltmp791:
	.loc	29 231 20
	jo	LBB36_1
Ltmp792:
	.loc	29 0 20 is_stmt 0
	addl	$1000000000, %esi
Ltmp793:
LBB36_6:
	movabsq	$-9223372036854776, %rdx
Ltmp794:
	.loc	20 1151 21 is_stmt 1
	xorl	%edi, %edi
	.loc	20 1151 24 is_stmt 0
	cmpq	%rdx, %rcx
	.loc	20 1151 21
	setne	%dil
	movl	$255, %edx
	cmovgel	%edi, %edx
Ltmp795:
	.loc	20 444 13 is_stmt 1
	cmpb	$-1, %dl
	je	LBB36_1
Ltmp796:
	testb	%dl, %dl
	jne	LBB36_9
Ltmp797:
	.loc	20 1151 24
	cmpl	$192000000, %esi
	jl	LBB36_1
Ltmp798:
LBB36_9:
	.loc	20 0 24 is_stmt 0
	movabsq	$9223372036854775, %rdx
Ltmp799:
	.loc	20 1151 21
	xorl	%edi, %edi
	.loc	20 1151 24
	cmpq	%rdx, %rcx
	.loc	20 1151 21
	setne	%dil
	movl	$255, %edx
	cmovgel	%edi, %edx
Ltmp800:
	.loc	20 444 13 is_stmt 1
	testb	%dl, %dl
	jne	LBB36_11
Ltmp801:
	.loc	20 1151 24
	cmpl	$807000000, %esi
	.loc	20 1151 21 is_stmt 0
	setne	%dl
Ltmp802:
	.loc	20 0 21
	jl	LBB36_12
Ltmp803:
LBB36_11:
	.loc	20 319 23 is_stmt 1
	cmpb	$1, %dl
Ltmp804:
	.loc	29 236 9
	jne	LBB36_12
Ltmp805:
LBB36_1:
	.loc	29 0 9 is_stmt 0
	xorl	%ecx, %ecx
	movq	%rcx, (%rax)
	.loc	29 237 6 is_stmt 1
	popq	%rbp
	retq
LBB36_12:
Ltmp806:
	.loc	29 236 47
	movq	%rcx, 8(%rax)
	movl	%esi, 16(%rax)
	movl	$1, %ecx
Ltmp807:
	.loc	29 0 0 is_stmt 0
	movq	%rcx, (%rax)
	.loc	29 237 6 is_stmt 1
	popq	%rbp
	retq
Ltmp808:
LBB36_14:
	.loc	29 228 25
	leaq	_str.3(%rip), %rdi
	leaq	l___unnamed_114(%rip), %rdx
Ltmp809:
	movl	$33, %esi
	callq	__ZN4core9panicking5panic17h383a6b80ea7021aaE
Ltmp810:
Lfunc_end36:
	.cfi_endproc

	.globl	__ZN4time8duration8Duration8from_std17h7cf146638fda3e8dE
	.p2align	4, 0x90
__ZN4time8duration8Duration8from_std17h7cf146638fda3e8dE:
Lfunc_begin37:
	.loc	29 263 0
	.cfi_startproc
	pushq	%rbp
	.cfi_def_cfa_offset 16
	.cfi_offset %rbp, -16
	movq	%rsp, %rbp
	.cfi_def_cfa_register %rbp
	movq	%rdi, %rax
	movabsq	$9223372036854775, %rdi
	movl	$1, %ecx
Ltmp811:
	.loc	29 265 12 prologue_end
	cmpq	%rdi, %rsi
	.loc	29 265 9 is_stmt 0
	ja	LBB37_4
Ltmp812:
	.loc	20 444 13 is_stmt 1
	jne	LBB37_3
Ltmp813:
	cmpl	$807000001, %edx
	jl	LBB37_3
Ltmp814:
LBB37_4:
	.loc	29 0 0 is_stmt 0
	movq	%rcx, (%rax)
	.loc	29 276 6 is_stmt 1
	popq	%rbp
	retq
Ltmp815:
LBB37_3:
	.loc	29 275 9
	movq	%rsi, 8(%rax)
	movl	%edx, 16(%rax)
	xorl	%ecx, %ecx
Ltmp816:
	.loc	29 0 0 is_stmt 0
	movq	%rcx, (%rax)
	.loc	29 276 6 is_stmt 1
	popq	%rbp
	retq
Ltmp817:
Lfunc_end37:
	.cfi_endproc

	.globl	__ZN4time8duration8Duration6to_std17h36c7fb565acd8361E
	.p2align	4, 0x90
__ZN4time8duration8Duration6to_std17h36c7fb565acd8361E:
Lfunc_begin38:
	.loc	29 282 0
	.cfi_startproc
	pushq	%rbp
	.cfi_def_cfa_offset 16
	.cfi_offset %rbp, -16
	movq	%rsp, %rbp
	.cfi_def_cfa_register %rbp
	movq	%rdi, %rax
Ltmp818:
	.loc	29 283 12 prologue_end
	movq	(%rsi), %rcx
	testq	%rcx, %rcx
	.loc	29 283 9 is_stmt 0
	js	LBB38_1
Ltmp819:
	.loc	29 286 47 is_stmt 1
	movl	8(%rsi), %edx
Ltmp820:
	.file	30 "/rustc/6c8927b0cf80ceee19386026cf9d7fd4fd9d486f/src/libcore/time.rs"
	.loc	30 139 21
	movl	%edx, %esi
Ltmp821:
	shrl	$9, %esi
	imulq	$281475, %rsi, %rsi
	shrq	$39, %rsi
Ltmp822:
	.loc	19 3751 30
	addq	%rsi, %rcx
Ltmp823:
	.loc	30 139 21
	imull	$1000000000, %esi, %esi
Ltmp824:
	subl	%esi, %edx
Ltmp825:
	.loc	29 286 9
	movq	%rcx, 8(%rax)
	movl	%edx, 16(%rax)
	xorl	%ecx, %ecx
Ltmp826:
	.loc	29 284 20
	movq	%rcx, (%rax)
	.loc	29 287 6
	popq	%rbp
	retq
LBB38_1:
Ltmp827:
	.loc	29 0 6 is_stmt 0
	movl	$1, %ecx
	.loc	29 284 20 is_stmt 1
	movq	%rcx, (%rax)
	.loc	29 287 6
	popq	%rbp
	retq
Ltmp828:
Lfunc_end38:
	.cfi_endproc

	.globl	__ZN66_$LT$time..duration..Duration$u20$as$u20$core..ops..arith..Add$GT$3add17hfa88dd8cf194cd92E
	.p2align	4, 0x90
__ZN66_$LT$time..duration..Duration$u20$as$u20$core..ops..arith..Add$GT$3add17hfa88dd8cf194cd92E:
Lfunc_begin39:
	.loc	29 312 0
	.cfi_startproc
	pushq	%rbp
	.cfi_def_cfa_offset 16
	.cfi_offset %rbp, -16
	movq	%rsp, %rbp
	.cfi_def_cfa_register %rbp
	movq	%rdx, %r8
	movq	%rdi, %rax
Ltmp829:
	.loc	29 313 24 prologue_end
	addq	%rdx, %rax
Ltmp830:
	jo	LBB39_6
Ltmp831:
	.loc	29 0 24 is_stmt 0
	movl	%esi, %edx
Ltmp832:
	.loc	29 314 25 is_stmt 1
	addl	%ecx, %edx
Ltmp833:
	jo	LBB39_7
Ltmp834:
	.loc	29 315 12
	cmpl	$1000000000, %edx
	.loc	29 315 9 is_stmt 0
	jl	LBB39_5
Ltmp835:
	.loc	29 317 13 is_stmt 1
	incq	%rax
Ltmp836:
	jo	LBB39_8
Ltmp837:
	.loc	29 316 13
	addl	$-1000000000, %edx
Ltmp838:
LBB39_5:
	.loc	29 320 6
	popq	%rbp
	retq
Ltmp839:
LBB39_6:
	.loc	29 313 24
	leaq	_str.5(%rip), %rdi
	leaq	l___unnamed_115(%rip), %rdx
	movl	$28, %esi
Ltmp840:
	callq	__ZN4core9panicking5panic17h383a6b80ea7021aaE
Ltmp841:
LBB39_7:
	.loc	29 314 25
	leaq	_str.5(%rip), %rdi
	leaq	l___unnamed_116(%rip), %rdx
	movl	$28, %esi
	callq	__ZN4core9panicking5panic17h383a6b80ea7021aaE
Ltmp842:
LBB39_8:
	.loc	29 317 13
	leaq	_str.5(%rip), %rdi
	leaq	l___unnamed_117(%rip), %rdx
Ltmp843:
	movl	$28, %esi
	callq	__ZN4core9panicking5panic17h383a6b80ea7021aaE
Ltmp844:
Lfunc_end39:
	.cfi_endproc

	.globl	__ZN66_$LT$time..duration..Duration$u20$as$u20$core..ops..arith..Sub$GT$3sub17hc43b08dc55c0d9f6E
	.p2align	4, 0x90
__ZN66_$LT$time..duration..Duration$u20$as$u20$core..ops..arith..Sub$GT$3sub17hc43b08dc55c0d9f6E:
Lfunc_begin40:
	.loc	29 326 0
	.cfi_startproc
	pushq	%rbp
	.cfi_def_cfa_offset 16
	.cfi_offset %rbp, -16
	movq	%rsp, %rbp
	.cfi_def_cfa_register %rbp
	movq	%rdx, %r8
	movq	%rdi, %rax
Ltmp845:
	.loc	29 327 24 prologue_end
	subq	%rdx, %rax
Ltmp846:
	jo	LBB40_6
Ltmp847:
	.loc	29 0 24 is_stmt 0
	movl	%esi, %edx
Ltmp848:
	.loc	29 328 25 is_stmt 1
	subl	%ecx, %edx
Ltmp849:
	jo	LBB40_7
Ltmp850:
	.loc	29 329 12
	testl	%edx, %edx
	.loc	29 329 9 is_stmt 0
	js	LBB40_3
Ltmp851:
	.loc	29 334 6 is_stmt 1
	popq	%rbp
	retq
Ltmp852:
LBB40_3:
	.loc	29 331 13
	decq	%rax
Ltmp853:
	jo	LBB40_8
Ltmp854:
	.loc	29 330 13
	addl	$1000000000, %edx
Ltmp855:
	.loc	29 334 6
	popq	%rbp
	retq
Ltmp856:
LBB40_6:
	.loc	29 327 24
	leaq	_str.3(%rip), %rdi
	leaq	l___unnamed_118(%rip), %rdx
	movl	$33, %esi
Ltmp857:
	callq	__ZN4core9panicking5panic17h383a6b80ea7021aaE
Ltmp858:
LBB40_7:
	.loc	29 328 25
	leaq	_str.3(%rip), %rdi
	leaq	l___unnamed_119(%rip), %rdx
	movl	$33, %esi
	callq	__ZN4core9panicking5panic17h383a6b80ea7021aaE
Ltmp859:
LBB40_8:
	.loc	29 331 13
	leaq	_str.3(%rip), %rdi
	leaq	l___unnamed_120(%rip), %rdx
Ltmp860:
	movl	$33, %esi
	callq	__ZN4core9panicking5panic17h383a6b80ea7021aaE
Ltmp861:
Lfunc_end40:
	.cfi_endproc

	.globl	__ZN77_$LT$time..duration..Duration$u20$as$u20$core..ops..arith..Mul$LT$i32$GT$$GT$3mul17ha34100b5e871d9f3E
	.p2align	4, 0x90
__ZN77_$LT$time..duration..Duration$u20$as$u20$core..ops..arith..Mul$LT$i32$GT$$GT$3mul17ha34100b5e871d9f3E:
Lfunc_begin41:
	.loc	29 340 0
	.cfi_startproc
	pushq	%rbp
	.cfi_def_cfa_offset 16
	.cfi_offset %rbp, -16
	movq	%rsp, %rbp
	.cfi_def_cfa_register %rbp
Ltmp862:
	.loc	29 342 47 prologue_end
	movslq	%edx, %r8
	.loc	29 342 27 is_stmt 0
	movslq	%esi, %rcx
	imulq	%r8, %rcx
	movabsq	$1237940039285380275, %rdx
Ltmp863:
	.loc	29 448 6 is_stmt 1
	movq	%rcx, %rax
	imulq	%rdx
	movq	%rdi, %rax
Ltmp864:
	movq	%rdx, %rsi
Ltmp865:
	shrq	$63, %rsi
	sarq	$26, %rdx
	addq	%rsi, %rdx
	imulq	$1000000000, %rdx, %rdi
	movq	%rcx, %rsi
	subq	%rdi, %rsi
Ltmp866:
	.loc	29 440 14
	negq	%rdi
Ltmp867:
	.loc	29 441 15
	testq	%rsi, %rsi
	.loc	29 440 14
	leaq	1000000000(%rcx,%rdi), %rcx
Ltmp868:
	cmovnsq	%rsi, %rcx
Ltmp869:
	.loc	29 344 20
	imulq	%r8, %rax
Ltmp870:
	jo	LBB41_3
Ltmp871:
	.loc	29 431 19
	sarq	$63, %rsi
	addq	%rdx, %rsi
Ltmp872:
	.loc	29 344 20
	addq	%rsi, %rax
	jo	LBB41_4
Ltmp873:
	.loc	29 346 6
	movl	%ecx, %edx
	popq	%rbp
	retq
Ltmp874:
LBB41_3:
	.loc	29 344 20
	leaq	_str.2(%rip), %rdi
	leaq	l___unnamed_121(%rip), %rdx
	movl	$33, %esi
	callq	__ZN4core9panicking5panic17h383a6b80ea7021aaE
Ltmp875:
LBB41_4:
	leaq	_str.5(%rip), %rdi
	leaq	l___unnamed_121(%rip), %rdx
	movl	$28, %esi
Ltmp876:
	callq	__ZN4core9panicking5panic17h383a6b80ea7021aaE
Ltmp877:
Lfunc_end41:
	.cfi_endproc

	.globl	__ZN77_$LT$time..duration..Duration$u20$as$u20$core..ops..arith..Div$LT$i32$GT$$GT$3div17h275f87f94161258fE
	.p2align	4, 0x90
__ZN77_$LT$time..duration..Duration$u20$as$u20$core..ops..arith..Div$LT$i32$GT$$GT$3div17h275f87f94161258fE:
Lfunc_begin42:
	.loc	29 352 0
	.cfi_startproc
	pushq	%rbp
	.cfi_def_cfa_offset 16
	.cfi_offset %rbp, -16
	movq	%rsp, %rbp
	.cfi_def_cfa_register %rbp
Ltmp878:
	.loc	29 353 24 prologue_end
	testl	%edx, %edx
	je	LBB42_18
Ltmp879:
	.loc	29 0 24 is_stmt 0
	movl	%edx, %ecx
Ltmp880:
	movl	%esi, %r8d
Ltmp881:
	movabsq	$-9223372036854775808, %r10
	.loc	29 353 24
	cmpq	%r10, %rdi
	jne	LBB42_3
Ltmp882:
	cmpl	$-1, %ecx
	je	LBB42_19
Ltmp883:
LBB42_3:
	.loc	29 0 24
	movslq	%ecx, %rsi
	.loc	29 353 24
	movq	%rdi, %rax
	cqto
	idivq	%rsi
	movq	%rax, %r9
Ltmp884:
	.loc	29 354 33 is_stmt 1
	imulq	%rsi, %rax
	jo	LBB42_20
Ltmp885:
	.loc	29 354 21 is_stmt 0
	subq	%rax, %rdi
Ltmp886:
	jo	LBB42_21
Ltmp887:
	.loc	29 355 27 is_stmt 1
	imulq	$1000000000, %rdi, %rax
	jo	LBB42_22
Ltmp888:
	.loc	29 353 24
	cmpl	$-1, %ecx
Ltmp889:
	.loc	29 355 27
	jne	LBB42_8
Ltmp890:
	cmpq	%r10, %rax
	je	LBB42_23
Ltmp891:
LBB42_8:
	.loc	29 356 25
	cmpl	$-2147483648, %r8d
	jne	LBB42_10
Ltmp892:
	cmpl	$-1, %ecx
	je	LBB42_24
Ltmp893:
LBB42_10:
	.loc	29 355 27
	cqto
	idivq	%rsi
	movq	%rax, %rdi
Ltmp894:
	.loc	29 356 25
	movl	%r8d, %eax
	cltd
	idivl	%ecx
	addl	%eax, %edi
Ltmp895:
	jo	LBB42_25
Ltmp896:
	.loc	29 357 12
	cmpl	$1000000000, %edi
	.loc	29 357 9 is_stmt 0
	jl	LBB42_14
Ltmp897:
	.loc	29 359 13 is_stmt 1
	incq	%r9
Ltmp898:
	jo	LBB42_26
Ltmp899:
	.loc	29 358 13
	addl	$-1000000000, %edi
Ltmp900:
LBB42_17:
	.loc	29 366 6
	movq	%r9, %rax
	movl	%edi, %edx
	popq	%rbp
	retq
Ltmp901:
LBB42_14:
	.loc	29 361 12
	testl	%edi, %edi
	.loc	29 361 9 is_stmt 0
	jns	LBB42_17
Ltmp902:
	.loc	29 363 13 is_stmt 1
	decq	%r9
Ltmp903:
	jo	LBB42_27
Ltmp904:
	.loc	29 362 13
	addl	$1000000000, %edi
Ltmp905:
	.loc	29 366 6
	movq	%r9, %rax
	movl	%edi, %edx
	popq	%rbp
	retq
Ltmp906:
LBB42_18:
	.loc	29 353 24
	leaq	_str.0(%rip), %rdi
Ltmp907:
	leaq	l___unnamed_122(%rip), %rdx
Ltmp908:
	movl	$25, %esi
Ltmp909:
	callq	__ZN4core9panicking5panic17h383a6b80ea7021aaE
LBB42_19:
Ltmp910:
	leaq	_str.1(%rip), %rdi
Ltmp911:
	leaq	l___unnamed_122(%rip), %rdx
	movl	$31, %esi
	callq	__ZN4core9panicking5panic17h383a6b80ea7021aaE
Ltmp912:
LBB42_20:
	.loc	29 354 33
	leaq	_str.2(%rip), %rdi
Ltmp913:
	leaq	l___unnamed_123(%rip), %rdx
	movl	$33, %esi
	callq	__ZN4core9panicking5panic17h383a6b80ea7021aaE
Ltmp914:
LBB42_21:
	.loc	29 354 21 is_stmt 0
	leaq	_str.3(%rip), %rdi
	leaq	l___unnamed_124(%rip), %rdx
	movl	$33, %esi
	callq	__ZN4core9panicking5panic17h383a6b80ea7021aaE
Ltmp915:
LBB42_22:
	.loc	29 355 27 is_stmt 1
	leaq	_str.2(%rip), %rdi
Ltmp916:
	leaq	l___unnamed_125(%rip), %rdx
	movl	$33, %esi
	callq	__ZN4core9panicking5panic17h383a6b80ea7021aaE
Ltmp917:
LBB42_23:
	leaq	_str.1(%rip), %rdi
Ltmp918:
	leaq	l___unnamed_125(%rip), %rdx
	movl	$31, %esi
	callq	__ZN4core9panicking5panic17h383a6b80ea7021aaE
Ltmp919:
LBB42_24:
	.loc	29 356 25
	leaq	_str.1(%rip), %rdi
Ltmp920:
	leaq	l___unnamed_126(%rip), %rdx
	movl	$31, %esi
	callq	__ZN4core9panicking5panic17h383a6b80ea7021aaE
Ltmp921:
LBB42_25:
	leaq	_str.5(%rip), %rdi
	leaq	l___unnamed_126(%rip), %rdx
	movl	$28, %esi
	callq	__ZN4core9panicking5panic17h383a6b80ea7021aaE
Ltmp922:
LBB42_26:
	.loc	29 359 13
	leaq	_str.5(%rip), %rdi
Ltmp923:
	leaq	l___unnamed_127(%rip), %rdx
	movl	$28, %esi
	callq	__ZN4core9panicking5panic17h383a6b80ea7021aaE
Ltmp924:
LBB42_27:
	.loc	29 363 13
	leaq	_str.3(%rip), %rdi
Ltmp925:
	leaq	l___unnamed_128(%rip), %rdx
	movl	$33, %esi
	callq	__ZN4core9panicking5panic17h383a6b80ea7021aaE
Ltmp926:
Lfunc_end42:
	.cfi_endproc

	.globl	__ZN63_$LT$time..duration..Duration$u20$as$u20$core..fmt..Display$GT$3fmt17h02d3083134836b57E
	.p2align	4, 0x90
__ZN63_$LT$time..duration..Duration$u20$as$u20$core..fmt..Display$GT$3fmt17h02d3083134836b57E:
Lfunc_begin43:
	.loc	29 370 0
	.cfi_startproc
	pushq	%rbp
	.cfi_def_cfa_offset 16
	.cfi_offset %rbp, -16
	movq	%rsp, %rbp
	.cfi_def_cfa_register %rbp
	pushq	%r15
	pushq	%r14
	pushq	%r13
	pushq	%r12
	pushq	%rbx
	subq	$136, %rsp
	.cfi_offset %rbx, -56
	.cfi_offset %r12, -48
	.cfi_offset %r13, -40
	.cfi_offset %r14, -32
	.cfi_offset %r15, -24
	movq	%rsi, %r14
Ltmp927:
	.loc	29 373 30 prologue_end
	movq	(%rdi), %rbx
	.loc	29 0 0 is_stmt 0
	movl	8(%rdi), %ecx
	.loc	29 373 30
	testq	%rbx, %rbx
	.loc	29 373 27
	js	LBB43_2
Ltmp928:
	.loc	29 0 27
	xorl	%eax, %eax
	leaq	l___unnamed_64(%rip), %rdx
	jmp	LBB43_6
Ltmp929:
LBB43_2:
	movabsq	$-9223372036854775808, %rax
Ltmp930:
	.loc	29 301 12 is_stmt 1
	testl	%ecx, %ecx
	.loc	29 301 9 is_stmt 0
	je	LBB43_13
Ltmp931:
	.loc	29 0 0
	cmpq	%rax, %rbx
	.loc	29 304 30 is_stmt 1
	je	LBB43_16
Ltmp932:
	.loc	29 0 30 is_stmt 0
	movl	$1000000000, %esi
	.loc	29 304 53
	subl	%ecx, %esi
	jo	LBB43_17
Ltmp933:
	.loc	29 304 30
	notq	%rbx
Ltmp934:
	.loc	29 0 30
	leaq	l___unnamed_53(%rip), %rdx
	movl	$1, %eax
Ltmp935:
	movl	%esi, %ecx
Ltmp936:
	jmp	LBB43_6
Ltmp937:
LBB43_13:
	cmpq	%rax, %rbx
	.loc	29 302 30 is_stmt 1
	je	LBB43_15
Ltmp938:
	negq	%rbx
Ltmp939:
	.loc	29 0 30 is_stmt 0
	xorl	%ecx, %ecx
Ltmp940:
	leaq	l___unnamed_53(%rip), %rdx
	movl	$1, %eax
Ltmp941:
LBB43_6:
	.loc	29 373 14 is_stmt 1
	movq	%rbx, -152(%rbp)
	movl	%ecx, -144(%rbp)
	.loc	29 373 19 is_stmt 0
	movq	%rdx, -176(%rbp)
	movq	%rax, -168(%rbp)
	movabsq	$1749024623285053783, %rdx
Ltmp942:
	.loc	29 375 20 is_stmt 1
	movq	%rbx, %rax
	imulq	%rdx
	movq	%rdx, %rax
	shrq	$63, %rax
	sarq	$13, %rdx
	addq	%rax, %rdx
	movq	%rdx, -160(%rbp)
Ltmp943:
	.loc	29 376 31
	imulq	$86400, %rdx, %rdx
Ltmp944:
	.loc	29 376 20 is_stmt 0
	movq	%rbx, %rax
	subq	%rdx, %rax
	jo	LBB43_28
Ltmp945:
	movq	%rax, -136(%rbp)
Ltmp946:
	.loc	29 377 23 is_stmt 1
	addq	$86399, %rbx
	cmpq	$172799, %rbx
	setb	%r13b
Ltmp947:
	.loc	29 378 24
	testq	%rax, %rax
	setne	%r12b
	.loc	29 378 37 is_stmt 0
	testl	%ecx, %ecx
	setne	%r15b
Ltmp948:
	.loc	29 0 37
	leaq	-176(%rbp), %rax
Ltmp949:
	.loc	29 380 9 is_stmt 1
	movq	%rax, -128(%rbp)
	leaq	__ZN44_$LT$$RF$T$u20$as$u20$core..fmt..Display$GT$3fmt17hac30e52e8e54b2bdE(%rip), %rax
	movq	%rax, -120(%rbp)
Ltmp950:
	.loc	11 328 9
	leaq	l___unnamed_129(%rip), %rax
Ltmp951:
	movq	%rax, -96(%rbp)
	movq	$2, -88(%rbp)
	movq	$0, -80(%rbp)
	leaq	-128(%rbp), %rax
Ltmp952:
	movq	%rax, -64(%rbp)
	movq	$1, -56(%rbp)
	leaq	-96(%rbp), %rsi
Ltmp953:
	.loc	29 380 9
	movq	%r14, %rdi
Ltmp954:
	callq	__ZN4core3fmt9Formatter9write_fmt17h742ca6aae87ad23cE
	.loc	29 380 31 is_stmt 0
	testb	%al, %al
Ltmp955:
	je	LBB43_8
Ltmp956:
LBB43_24:
	.loc	29 0 31
	movb	$1, %al
	jmp	LBB43_27
Ltmp957:
LBB43_8:
	.loc	29 377 23 is_stmt 1
	cmpq	$172798, %rbx
Ltmp958:
	.loc	29 382 9
	jbe	LBB43_10
Ltmp959:
	.loc	29 0 9 is_stmt 0
	leaq	-160(%rbp), %rax
Ltmp960:
	.loc	29 383 13 is_stmt 1
	movq	%rax, -128(%rbp)
	movq	__ZN4core3fmt3num3imp52_$LT$impl$u20$core..fmt..Display$u20$for$u20$i64$GT$3fmt17h310ed6661e8c983fE@GOTPCREL(%rip), %rax
	movq	%rax, -120(%rbp)
Ltmp961:
	.loc	11 328 9
	leaq	l___unnamed_130(%rip), %rax
Ltmp962:
	movq	%rax, -96(%rbp)
	movq	$2, -88(%rbp)
	movq	$0, -80(%rbp)
	leaq	-128(%rbp), %rax
Ltmp963:
	movq	%rax, -64(%rbp)
	movq	$1, -56(%rbp)
	leaq	-96(%rbp), %rsi
Ltmp964:
	.loc	29 383 13
	movq	%r14, %rdi
	callq	__ZN4core3fmt9Formatter9write_fmt17h742ca6aae87ad23cE
	.loc	29 383 35 is_stmt 0
	testb	%al, %al
	jne	LBB43_24
Ltmp965:
LBB43_10:
	.loc	29 0 0
	orb	%r13b, %r15b
	orb	%r15b, %r12b
Ltmp966:
	.loc	29 385 9 is_stmt 1
	je	LBB43_26
Ltmp967:
	.loc	29 386 16
	movl	-144(%rbp), %ecx
	testl	%ecx, %ecx
	.loc	29 386 13 is_stmt 0
	je	LBB43_12
Ltmp968:
	.loc	29 389 47 is_stmt 1
	movslq	%ecx, %rax
	.loc	29 388 23
	imull	$1757569337, %ecx, %edx
	addl	$137408, %edx
	rorl	$6, %edx
	cmpl	$4294, %edx
	.loc	29 388 20 is_stmt 0
	jbe	LBB43_19
Ltmp969:
	.loc	29 390 23 is_stmt 1
	imull	$652835029, %ecx, %ecx
	addl	$17179864, %ecx
	rorl	$3, %ecx
	cmpl	$4294967, %ecx
	.loc	29 390 20 is_stmt 0
	jb	LBB43_25
Ltmp970:
	.loc	29 0 20
	leaq	-144(%rbp), %rax
	leaq	-136(%rbp), %rcx
Ltmp971:
	.loc	29 393 17 is_stmt 1
	movq	%rcx, -128(%rbp)
	movq	__ZN4core3fmt3num3imp52_$LT$impl$u20$core..fmt..Display$u20$for$u20$i64$GT$3fmt17h310ed6661e8c983fE@GOTPCREL(%rip), %rcx
	movq	%rcx, -120(%rbp)
	movq	%rax, -112(%rbp)
	movq	__ZN4core3fmt3num3imp52_$LT$impl$u20$core..fmt..Display$u20$for$u20$i32$GT$3fmt17h00ed7ff77f9da654E@GOTPCREL(%rip), %rax
Ltmp972:
	movq	%rax, -104(%rbp)
Ltmp973:
	.loc	11 345 9
	leaq	l___unnamed_131(%rip), %rax
Ltmp974:
	movq	%rax, -96(%rbp)
	movq	$3, -88(%rbp)
	leaq	l___unnamed_132(%rip), %rax
Ltmp975:
	.loc	11 0 9 is_stmt 0
	jmp	LBB43_22
Ltmp976:
LBB43_12:
	leaq	-136(%rbp), %rax
Ltmp977:
	.loc	29 387 17 is_stmt 1
	movq	%rax, -128(%rbp)
	movq	__ZN4core3fmt3num3imp52_$LT$impl$u20$core..fmt..Display$u20$for$u20$i64$GT$3fmt17h310ed6661e8c983fE@GOTPCREL(%rip), %rax
	movq	%rax, -120(%rbp)
Ltmp978:
	.loc	11 328 9
	leaq	l___unnamed_133(%rip), %rax
Ltmp979:
	movq	%rax, -96(%rbp)
	movq	$2, -88(%rbp)
	movq	$0, -80(%rbp)
	leaq	-128(%rbp), %rax
Ltmp980:
	movq	%rax, -64(%rbp)
	movq	$1, -56(%rbp)
	jmp	LBB43_23
Ltmp981:
LBB43_19:
	.loc	29 389 47
	imulq	$1125899907, %rax, %rax
	movq	%rax, %rcx
	shrq	$63, %rcx
	sarq	$50, %rax
	addl	%ecx, %eax
	movl	%eax, -44(%rbp)
	leaq	-136(%rbp), %rax
Ltmp982:
	.loc	29 389 17 is_stmt 0
	movq	%rax, -128(%rbp)
	movq	__ZN4core3fmt3num3imp52_$LT$impl$u20$core..fmt..Display$u20$for$u20$i64$GT$3fmt17h310ed6661e8c983fE@GOTPCREL(%rip), %rax
	movq	%rax, -120(%rbp)
	leaq	-44(%rbp), %rax
	movq	%rax, -112(%rbp)
	movq	__ZN4core3fmt3num3imp52_$LT$impl$u20$core..fmt..Display$u20$for$u20$i32$GT$3fmt17h00ed7ff77f9da654E@GOTPCREL(%rip), %rax
	movq	%rax, -104(%rbp)
Ltmp983:
	.loc	11 345 9 is_stmt 1
	leaq	l___unnamed_131(%rip), %rax
Ltmp984:
	movq	%rax, -96(%rbp)
	movq	$3, -88(%rbp)
	leaq	l___unnamed_134(%rip), %rax
Ltmp985:
	.loc	11 0 9 is_stmt 0
	jmp	LBB43_22
Ltmp986:
LBB43_25:
	.loc	29 391 47 is_stmt 1
	imulq	$274877907, %rax, %rax
	movq	%rax, %rcx
	shrq	$63, %rcx
	sarq	$38, %rax
	addl	%ecx, %eax
	movl	%eax, -44(%rbp)
	leaq	-136(%rbp), %rax
Ltmp987:
	.loc	29 391 17 is_stmt 0
	movq	%rax, -128(%rbp)
	movq	__ZN4core3fmt3num3imp52_$LT$impl$u20$core..fmt..Display$u20$for$u20$i64$GT$3fmt17h310ed6661e8c983fE@GOTPCREL(%rip), %rax
	movq	%rax, -120(%rbp)
	leaq	-44(%rbp), %rax
	movq	%rax, -112(%rbp)
	movq	__ZN4core3fmt3num3imp52_$LT$impl$u20$core..fmt..Display$u20$for$u20$i32$GT$3fmt17h00ed7ff77f9da654E@GOTPCREL(%rip), %rax
	movq	%rax, -104(%rbp)
Ltmp988:
	.loc	11 345 9 is_stmt 1
	leaq	l___unnamed_131(%rip), %rax
Ltmp989:
	movq	%rax, -96(%rbp)
	movq	$3, -88(%rbp)
	leaq	l___unnamed_135(%rip), %rax
Ltmp990:
LBB43_22:
	.loc	29 0 0 is_stmt 0
	movq	%rax, -80(%rbp)
	movq	$2, -72(%rbp)
	leaq	-128(%rbp), %rax
	movq	%rax, -64(%rbp)
	movq	$2, -56(%rbp)
Ltmp991:
LBB43_23:
	leaq	-96(%rbp), %rsi
	movq	%r14, %rdi
	callq	__ZN4core3fmt9Formatter9write_fmt17h742ca6aae87ad23cE
	testb	%al, %al
	jne	LBB43_24
Ltmp992:
LBB43_26:
	xorl	%eax, %eax
Ltmp993:
LBB43_27:
	.loc	29 397 6 is_stmt 1
	addq	$136, %rsp
	popq	%rbx
	popq	%r12
	popq	%r13
	popq	%r14
Ltmp994:
	popq	%r15
	popq	%rbp
	retq
LBB43_28:
Ltmp995:
	.loc	29 376 20
	leaq	_str.3(%rip), %rdi
Ltmp996:
	leaq	l___unnamed_136(%rip), %rdx
	movl	$33, %esi
	callq	__ZN4core9panicking5panic17h383a6b80ea7021aaE
Ltmp997:
LBB43_16:
	.loc	29 304 30
	leaq	_str.6(%rip), %rdi
Ltmp998:
	leaq	l___unnamed_137(%rip), %rdx
	movl	$31, %esi
	callq	__ZN4core9panicking5panic17h383a6b80ea7021aaE
Ltmp999:
LBB43_17:
	.loc	29 304 53 is_stmt 0
	leaq	_str.3(%rip), %rdi
Ltmp1000:
	leaq	l___unnamed_138(%rip), %rdx
	movl	$33, %esi
	callq	__ZN4core9panicking5panic17h383a6b80ea7021aaE
Ltmp1001:
LBB43_15:
	.loc	29 302 30 is_stmt 1
	leaq	_str.6(%rip), %rdi
Ltmp1002:
	leaq	l___unnamed_139(%rip), %rdx
	movl	$31, %esi
	callq	__ZN4core9panicking5panic17h383a6b80ea7021aaE
Ltmp1003:
Lfunc_end43:
	.cfi_endproc

	.globl	__ZN70_$LT$time..duration..OutOfRangeError$u20$as$u20$core..fmt..Display$GT$3fmt17hab1679f934a1d7b2E
	.p2align	4, 0x90
__ZN70_$LT$time..duration..OutOfRangeError$u20$as$u20$core..fmt..Display$GT$3fmt17hab1679f934a1d7b2E:
Lfunc_begin44:
	.loc	29 411 0
	.cfi_startproc
	pushq	%rbp
	.cfi_def_cfa_offset 16
	.cfi_offset %rbp, -16
	movq	%rsp, %rbp
	.cfi_def_cfa_register %rbp
	subq	$80, %rsp
	movq	%rsi, %rdi
Ltmp1004:
	.loc	29 412 25 prologue_end
	leaq	l___unnamed_140(%rip), %rax
	movq	%rax, -32(%rbp)
	movq	$57, -24(%rbp)
	leaq	-32(%rbp), %rax
Ltmp1005:
	.loc	29 412 9 is_stmt 0
	movq	%rax, -16(%rbp)
	leaq	__ZN44_$LT$$RF$T$u20$as$u20$core..fmt..Display$GT$3fmt17hac30e52e8e54b2bdE(%rip), %rax
	movq	%rax, -8(%rbp)
Ltmp1006:
	.loc	11 328 9 is_stmt 1
	leaq	l___unnamed_33(%rip), %rax
Ltmp1007:
	movq	%rax, -80(%rbp)
	movq	$1, -72(%rbp)
	movq	$0, -64(%rbp)
	leaq	-16(%rbp), %rax
Ltmp1008:
	movq	%rax, -48(%rbp)
	movq	$1, -40(%rbp)
	leaq	-80(%rbp), %rsi
Ltmp1009:
	.loc	29 412 9
	callq	__ZN4core3fmt9Formatter9write_fmt17h742ca6aae87ad23cE
Ltmp1010:
	.loc	29 413 6
	addq	$80, %rsp
	popq	%rbp
	retq
Ltmp1011:
Lfunc_end44:
	.cfi_endproc

	.globl	__ZN69_$LT$time..duration..OutOfRangeError$u20$as$u20$std..error..Error$GT$11description17h914d25ee984c8a9dE
	.p2align	4, 0x90
__ZN69_$LT$time..duration..OutOfRangeError$u20$as$u20$std..error..Error$GT$11description17h914d25ee984c8a9dE:
Lfunc_begin45:
	.loc	29 417 0
	.cfi_startproc
	pushq	%rbp
	.cfi_def_cfa_offset 16
	.cfi_offset %rbp, -16
	movq	%rsp, %rbp
	.cfi_def_cfa_register %rbp
Ltmp1012:
	.loc	29 419 6 prologue_end
	leaq	l___unnamed_140(%rip), %rax
	movl	$57, %edx
	popq	%rbp
	retq
Ltmp1013:
Lfunc_end45:
	.cfi_endproc

	.globl	__ZN4time5parse8strptime17h41583c481a302f31E
	.p2align	4, 0x90
__ZN4time5parse8strptime17h41583c481a302f31E:
Lfunc_begin46:
	.file	31 "/Users/yingyuhang/.cargo/registry/src/github.com-1ecc6299db9ec823/time-0.1.43/src/parse.rs"
	.loc	31 4 0
	.cfi_startproc
	pushq	%rbp
	.cfi_def_cfa_offset 16
	.cfi_offset %rbp, -16
	movq	%rsp, %rbp
	.cfi_def_cfa_register %rbp
	pushq	%r15
	pushq	%r14
	pushq	%r13
	pushq	%r12
	pushq	%rbx
	subq	$120, %rsp
	.cfi_offset %rbx, -56
	.cfi_offset %r12, -48
	.cfi_offset %r13, -40
	.cfi_offset %r14, -32
	.cfi_offset %r15, -24
	movq	%rdi, %r14
Ltmp1014:
	movq	%rsi, -56(%rbp)
	movq	%rdx, -48(%rbp)
Ltmp1015:
	.loc	31 5 18 prologue_end
	xorps	%xmm0, %xmm0
	movaps	%xmm0, -112(%rbp)
	movaps	%xmm0, -128(%rbp)
	movl	$0, -88(%rbp)
	movq	$0, -96(%rbp)
Ltmp1016:
	.loc	24 3440 9
	testq	%r8, %r8
	.loc	24 3570 21
	je	LBB46_21
Ltmp1017:
	.loc	24 0 21 is_stmt 0
	movq	%r8, %r15
Ltmp1018:
	addq	%rcx, %r15
Ltmp1019:
	leaq	-80(%rbp), %r12
	leaq	-56(%rbp), %r13
Ltmp1020:
	jmp	LBB46_2
Ltmp1021:
	.p2align	4, 0x90
LBB46_68:
	.file	32 "/rustc/6c8927b0cf80ceee19386026cf9d7fd4fd9d486f/src/libcore/ptr/const_ptr.rs"
	.loc	32 164 18 is_stmt 1
	addq	%rdi, %rsi
Ltmp1022:
	.loc	31 387 17
	movq	%rsi, -56(%rbp)
	movq	%rcx, -48(%rbp)
Ltmp1023:
LBB46_69:
	.loc	31 0 17 is_stmt 0
	movq	%rax, %rcx
Ltmp1024:
	.loc	24 3440 9 is_stmt 1
	cmpq	%r15, %rax
Ltmp1025:
	.loc	24 3570 21
	je	LBB46_21
Ltmp1026:
LBB46_2:
	.loc	23 165 18
	leaq	1(%rcx), %rax
Ltmp1027:
	.loc	16 519 13
	movzbl	(%rcx), %edx
Ltmp1028:
	.loc	16 520 8
	testb	%dl, %dl
	.loc	16 520 5 is_stmt 0
	js	LBB46_3
Ltmp1029:
	.loc	31 20 15 is_stmt 1
	cmpl	$37, %edx
	je	LBB46_47
Ltmp1030:
LBB46_20:
	cmpl	$1114112, %edx
	je	LBB46_21
Ltmp1031:
	.loc	31 384 11
	movq	-48(%rbp), %rcx
Ltmp1032:
	.loc	31 0 11 is_stmt 0
	movl	$10, %edi
Ltmp1033:
	.loc	24 3440 9 is_stmt 1
	testq	%rcx, %rcx
	.loc	24 3570 21
	je	LBB46_23
Ltmp1034:
	.loc	31 0 0 is_stmt 0
	movq	-56(%rbp), %rsi
Ltmp1035:
	.loc	16 519 13 is_stmt 1
	movzbl	(%rsi), %ebx
Ltmp1036:
	.loc	16 520 8
	testb	%bl, %bl
	.loc	16 520 5 is_stmt 0
	jns	LBB46_38
Ltmp1037:
	.loc	31 0 0
	leaq	(%rsi,%rcx), %r10
Ltmp1038:
	xorl	%r8d, %r8d
Ltmp1039:
	movq	%r10, %r11
Ltmp1040:
	.loc	24 3440 9 is_stmt 1
	cmpq	$1, %rcx
Ltmp1041:
	.loc	24 3570 21
	je	LBB46_27
Ltmp1042:
	.loc	23 165 18
	leaq	2(%rsi), %r11
Ltmp1043:
	.loc	16 508 15
	movzbl	1(%rsi), %r8d
	.loc	16 507 5
	andl	$63, %r8d
Ltmp1044:
LBB46_27:
	.loc	16 0 5 is_stmt 0
	movl	%ebx, %r9d
	andl	$31, %r9d
Ltmp1045:
	.loc	16 530 8 is_stmt 1
	cmpb	$-33, %bl
	.loc	16 530 5 is_stmt 0
	jbe	LBB46_28
Ltmp1046:
	.loc	16 0 5
	movq	%r12, %r13
Ltmp1047:
	.loc	24 3440 9 is_stmt 1
	cmpq	%r10, %r11
	.loc	24 3570 21
	je	LBB46_30
Ltmp1048:
	.loc	16 508 15
	movzbl	(%r11), %r12d
Ltmp1049:
	.loc	23 165 18
	incq	%r11
Ltmp1050:
	.loc	16 507 5
	andl	$63, %r12d
Ltmp1051:
	.loc	16 495 5
	shll	$6, %r8d
Ltmp1052:
	orl	%r12d, %r8d
Ltmp1053:
	.loc	16 536 12
	cmpb	$-16, %bl
	.loc	16 536 9 is_stmt 0
	jb	LBB46_33
Ltmp1054:
LBB46_34:
	.loc	24 3440 9 is_stmt 1
	cmpq	%r10, %r11
	movq	%r13, %r12
	.loc	24 3570 21
	je	LBB46_35
Ltmp1055:
	.loc	16 508 15
	movzbl	(%r11), %ebx
Ltmp1056:
	.loc	16 507 5
	andl	$63, %ebx
	jmp	LBB46_37
Ltmp1057:
	.p2align	4, 0x90
LBB46_3:
	.loc	24 3440 9
	cmpq	%r15, %rax
Ltmp1058:
	.loc	24 3570 21
	je	LBB46_4
Ltmp1059:
	.loc	16 508 15
	movzbl	1(%rcx), %esi
Ltmp1060:
	.loc	23 165 18
	addq	$2, %rcx
Ltmp1061:
	.loc	16 507 5
	andl	$63, %esi
Ltmp1062:
	.loc	16 0 0 is_stmt 0
	movq	%rcx, %rax
Ltmp1063:
	movl	%edx, %ecx
	andl	$31, %ecx
Ltmp1064:
	.loc	16 530 8 is_stmt 1
	cmpb	$-33, %dl
	.loc	16 530 5 is_stmt 0
	jbe	LBB46_7
Ltmp1065:
LBB46_9:
	.loc	24 3440 9 is_stmt 1
	cmpq	%r15, %rax
	.loc	24 3570 21
	je	LBB46_10
Ltmp1066:
	.loc	16 508 15
	movzbl	(%rax), %ebx
Ltmp1067:
	.loc	23 165 18
	incq	%rax
Ltmp1068:
	.loc	16 507 5
	andl	$63, %ebx
	movq	%rax, %rdi
Ltmp1069:
	.loc	16 495 5
	shll	$6, %esi
Ltmp1070:
	orl	%ebx, %esi
Ltmp1071:
	.loc	16 536 12
	cmpb	$-16, %dl
	.loc	16 536 9 is_stmt 0
	jb	LBB46_13
Ltmp1072:
LBB46_14:
	.loc	24 3440 9 is_stmt 1
	cmpq	%r15, %rdi
	.loc	24 3570 21
	je	LBB46_15
Ltmp1073:
	.loc	16 508 15
	movzbl	(%rdi), %edx
Ltmp1074:
	.loc	23 165 18
	incq	%rdi
Ltmp1075:
	.loc	16 507 5
	andl	$63, %edx
Ltmp1076:
	.loc	16 0 0 is_stmt 0
	movq	%rdi, %rax
Ltmp1077:
	jmp	LBB46_17
Ltmp1078:
LBB46_4:
	xorl	%esi, %esi
	movq	%r15, %rax
Ltmp1079:
	movl	%edx, %ecx
	andl	$31, %ecx
Ltmp1080:
	.loc	16 530 8 is_stmt 1
	cmpb	$-33, %dl
	.loc	16 530 5 is_stmt 0
	ja	LBB46_9
Ltmp1081:
LBB46_7:
	.loc	16 0 5
	shll	$6, %ecx
Ltmp1082:
	orl	%ecx, %esi
Ltmp1083:
	movl	%esi, %edx
Ltmp1084:
	.loc	31 20 15 is_stmt 1
	cmpl	$37, %edx
	jne	LBB46_20
	jmp	LBB46_47
Ltmp1085:
LBB46_28:
	.loc	31 0 15 is_stmt 0
	shll	$6, %r9d
Ltmp1086:
	orl	%r9d, %r8d
Ltmp1087:
	movl	%r8d, %ebx
Ltmp1088:
	jmp	LBB46_38
Ltmp1089:
LBB46_10:
	xorl	%ebx, %ebx
	movq	%r15, %rdi
Ltmp1090:
	.loc	16 495 5 is_stmt 1
	shll	$6, %esi
Ltmp1091:
	orl	%ebx, %esi
Ltmp1092:
	.loc	16 536 12
	cmpb	$-16, %dl
	.loc	16 536 9 is_stmt 0
	jae	LBB46_14
Ltmp1093:
LBB46_13:
	.loc	16 0 9
	shll	$12, %ecx
Ltmp1094:
	orl	%ecx, %esi
Ltmp1095:
	movl	%esi, %edx
Ltmp1096:
	.loc	31 20 15 is_stmt 1
	cmpl	$37, %edx
	jne	LBB46_20
	jmp	LBB46_47
Ltmp1097:
LBB46_15:
	.loc	31 0 15 is_stmt 0
	xorl	%edx, %edx
Ltmp1098:
LBB46_17:
	.loc	16 540 18 is_stmt 1
	andl	$7, %ecx
Ltmp1099:
	shll	$18, %ecx
Ltmp1100:
	.loc	16 495 5
	shll	$6, %esi
Ltmp1101:
	orl	%ecx, %esi
Ltmp1102:
	.loc	16 540 13
	orl	%edx, %esi
Ltmp1103:
	.loc	16 0 13 is_stmt 0
	movl	%esi, %edx
Ltmp1104:
	.loc	31 20 15 is_stmt 1
	cmpl	$37, %edx
	jne	LBB46_20
Ltmp1105:
	.p2align	4, 0x90
LBB46_47:
	.loc	24 3440 9
	cmpq	%r15, %rax
	.loc	24 3570 21
	je	LBB46_21
Ltmp1106:
	.loc	23 165 18
	leaq	1(%rax), %rbx
Ltmp1107:
	.loc	16 519 13
	movzbl	(%rax), %edx
Ltmp1108:
	.loc	16 520 8
	testb	%dl, %dl
	.loc	16 520 5 is_stmt 0
	jns	LBB46_64
Ltmp1109:
	.loc	24 3440 9 is_stmt 1
	cmpq	%r15, %rbx
Ltmp1110:
	.loc	24 3570 21
	je	LBB46_50
Ltmp1111:
	.loc	16 508 15
	movzbl	1(%rax), %ecx
Ltmp1112:
	.loc	23 165 18
	addq	$2, %rax
Ltmp1113:
	.loc	16 507 5
	andl	$63, %ecx
Ltmp1114:
	.loc	16 0 0 is_stmt 0
	movq	%rax, %rbx
Ltmp1115:
	movl	%edx, %eax
	andl	$31, %eax
Ltmp1116:
	.loc	16 530 8 is_stmt 1
	cmpb	$-33, %dl
	.loc	16 530 5 is_stmt 0
	jbe	LBB46_53
Ltmp1117:
LBB46_55:
	.loc	24 3440 9 is_stmt 1
	cmpq	%r15, %rbx
	.loc	24 3570 21
	je	LBB46_56
Ltmp1118:
	.loc	16 508 15
	movzbl	(%rbx), %edi
Ltmp1119:
	.loc	23 165 18
	incq	%rbx
Ltmp1120:
	.loc	16 507 5
	andl	$63, %edi
	movq	%rbx, %rsi
Ltmp1121:
	.loc	16 495 5
	shll	$6, %ecx
Ltmp1122:
	orl	%edi, %ecx
Ltmp1123:
	.loc	16 536 12
	cmpb	$-16, %dl
	.loc	16 536 9 is_stmt 0
	jb	LBB46_59
Ltmp1124:
LBB46_60:
	.loc	24 3440 9 is_stmt 1
	cmpq	%r15, %rsi
	.loc	24 3570 21
	je	LBB46_61
Ltmp1125:
	.loc	16 508 15
	movzbl	(%rsi), %edx
Ltmp1126:
	.loc	23 165 18
	incq	%rsi
Ltmp1127:
	.loc	16 507 5
	andl	$63, %edx
Ltmp1128:
	.loc	16 0 0 is_stmt 0
	movq	%rsi, %rbx
Ltmp1129:
	jmp	LBB46_63
Ltmp1130:
LBB46_50:
	xorl	%ecx, %ecx
	movq	%r15, %rbx
Ltmp1131:
	movl	%edx, %eax
	andl	$31, %eax
Ltmp1132:
	.loc	16 530 8 is_stmt 1
	cmpb	$-33, %dl
	.loc	16 530 5 is_stmt 0
	ja	LBB46_55
Ltmp1133:
LBB46_53:
	.loc	16 0 5
	shll	$6, %eax
Ltmp1134:
	jmp	LBB46_54
Ltmp1135:
LBB46_30:
	xorl	%r12d, %r12d
	movq	%r10, %r11
Ltmp1136:
	.loc	16 495 5 is_stmt 1
	shll	$6, %r8d
Ltmp1137:
	orl	%r12d, %r8d
Ltmp1138:
	.loc	16 536 12
	cmpb	$-16, %bl
	.loc	16 536 9 is_stmt 0
	jae	LBB46_34
Ltmp1139:
LBB46_33:
	.loc	16 0 9
	shll	$12, %r9d
Ltmp1140:
	orl	%r9d, %r8d
Ltmp1141:
	movl	%r8d, %ebx
Ltmp1142:
	movq	%r13, %r12
	leaq	-56(%rbp), %r13
	jmp	LBB46_38
Ltmp1143:
LBB46_56:
	xorl	%edi, %edi
	movq	%r15, %rsi
Ltmp1144:
	.loc	16 495 5 is_stmt 1
	shll	$6, %ecx
Ltmp1145:
	orl	%edi, %ecx
Ltmp1146:
	.loc	16 536 12
	cmpb	$-16, %dl
	.loc	16 536 9 is_stmt 0
	jae	LBB46_60
Ltmp1147:
LBB46_59:
	.loc	16 0 9
	shll	$12, %eax
Ltmp1148:
LBB46_54:
	orl	%eax, %ecx
Ltmp1149:
	movl	%ecx, %edx
Ltmp1150:
LBB46_64:
	.loc	31 23 17 is_stmt 1
	movq	%r12, %rdi
	movq	%r13, %rsi
	leaq	-128(%rbp), %rcx
	callq	__ZN4time5parse10parse_type17h7bb98a5de264be65E
Ltmp1151:
	.loc	22 1576 9
	movl	-80(%rbp), %edi
Ltmp1152:
	.loc	31 18 21
	movq	%rbx, %rax
Ltmp1153:
	.loc	31 23 48
	cmpl	$15, %edi
	je	LBB46_69
	jmp	LBB46_65
Ltmp1154:
LBB46_35:
	.loc	31 0 48 is_stmt 0
	xorl	%ebx, %ebx
Ltmp1155:
LBB46_37:
	leaq	-56(%rbp), %r13
Ltmp1156:
	.loc	16 540 18 is_stmt 1
	andl	$7, %r9d
Ltmp1157:
	shll	$18, %r9d
Ltmp1158:
	.loc	16 495 5
	shll	$6, %r8d
Ltmp1159:
	orl	%r9d, %r8d
Ltmp1160:
	.loc	16 540 13
	orl	%ebx, %r8d
Ltmp1161:
	.loc	16 0 13 is_stmt 0
	movl	%r8d, %ebx
Ltmp1162:
	.loc	16 690 13 is_stmt 1
	cmpl	$1114112, %r8d
Ltmp1163:
	je	LBB46_66
Ltmp1164:
	.p2align	4, 0x90
LBB46_38:
	.loc	31 386 16
	cmpl	%edx, %ebx
	.loc	31 386 13 is_stmt 0
	jne	LBB46_39
Ltmp1165:
	.loc	31 0 13
	movl	$1, %edi
Ltmp1166:
	.loc	17 1594 8 is_stmt 1
	cmpl	$128, %edx
	.loc	17 1594 5 is_stmt 0
	jb	LBB46_43
Ltmp1167:
	.loc	17 0 5
	movl	$2, %edi
	.loc	17 1596 15 is_stmt 1
	cmpl	$2048, %edx
	.loc	17 1596 12 is_stmt 0
	jb	LBB46_43
Ltmp1168:
	.loc	17 1598 15 is_stmt 1
	cmpl	$65536, %edx
	.loc	17 1598 12 is_stmt 0
	movl	$4, %edi
	sbbq	$0, %rdi
Ltmp1169:
LBB46_43:
	.loc	17 0 12
	movq	%rsi, -160(%rbp)
	movq	%rcx, -152(%rbp)
Ltmp1170:
	.loc	16 2070 18 is_stmt 1
	movq	%rdi, -136(%rbp)
	.loc	16 2070 25 is_stmt 0
	movq	%rcx, -144(%rbp)
Ltmp1171:
	.loc	16 2326 26 is_stmt 1
	subq	%rdi, %rcx
Ltmp1172:
	.loc	16 2326 12 is_stmt 0
	je	LBB46_68
Ltmp1173:
	.loc	16 2330 13 is_stmt 1
	jbe	LBB46_46
Ltmp1174:
	.loc	16 2332 25
	cmpb	$-65, (%rsi,%rdi)
	jg	LBB46_68
	jmp	LBB46_46
Ltmp1175:
LBB46_61:
	.loc	16 0 25 is_stmt 0
	xorl	%edx, %edx
Ltmp1176:
LBB46_63:
	.loc	16 540 18 is_stmt 1
	andl	$7, %eax
Ltmp1177:
	shll	$18, %eax
Ltmp1178:
	.loc	16 495 5
	shll	$6, %ecx
Ltmp1179:
	orl	%eax, %ecx
Ltmp1180:
	.loc	16 540 13
	orl	%edx, %ecx
Ltmp1181:
	.loc	16 0 13 is_stmt 0
	movl	%ecx, %edx
Ltmp1182:
	.loc	31 18 21 is_stmt 1
	movq	%rbx, %rax
Ltmp1183:
	.loc	31 22 20
	cmpl	$1114112, %ecx
Ltmp1184:
	je	LBB46_69
	jmp	LBB46_64
Ltmp1185:
LBB46_21:
	.loc	31 30 5
	movl	-88(%rbp), %eax
	movl	%eax, 44(%r14)
	movq	-96(%rbp), %rax
	movq	%rax, 36(%r14)
	movq	-104(%rbp), %rax
	movq	%rax, 28(%r14)
	movq	-112(%rbp), %rax
	movq	%rax, 20(%r14)
	movq	-128(%rbp), %rax
	movq	-120(%rbp), %rcx
	movq	%rcx, 12(%r14)
	movq	%rax, 4(%r14)
	movl	$0, (%r14)
	jmp	LBB46_67
LBB46_23:
Ltmp1186:
	.loc	31 0 5 is_stmt 0
	jmp	LBB46_66
Ltmp1187:
LBB46_39:
	.loc	31 390 17 is_stmt 1
	movl	%edx, %eax
Ltmp1188:
	shlq	$32, %rbx
Ltmp1189:
	orq	%rax, %rbx
Ltmp1190:
	.loc	31 0 17 is_stmt 0
	movl	$14, %edi
	jmp	LBB46_66
Ltmp1191:
LBB46_65:
	movq	-76(%rbp), %rbx
Ltmp1192:
LBB46_66:
	movl	%edi, 4(%r14)
	movq	%rbx, 8(%r14)
	movl	$1, (%r14)
Ltmp1193:
LBB46_67:
	.loc	31 31 2 is_stmt 1
	movq	%r14, %rax
	addq	$120, %rsp
	popq	%rbx
	popq	%r12
	popq	%r13
	popq	%r14
	popq	%r15
	popq	%rbp
	retq
LBB46_46:
Ltmp1194:
	.loc	31 0 2 is_stmt 0
	leaq	-160(%rbp), %rax
Ltmp1195:
	.loc	5 428 21 is_stmt 1
	movq	%rax, -80(%rbp)
	leaq	-136(%rbp), %rax
	movq	%rax, -72(%rbp)
	leaq	-144(%rbp), %rax
	movq	%rax, -64(%rbp)
	leaq	-80(%rbp), %rdi
Ltmp1196:
	callq	__ZN4core3str6traits105_$LT$impl$u20$core..slice..SliceIndex$LT$str$GT$$u20$for$u20$core..ops..range..RangeFrom$LT$usize$GT$$GT$5index28_$u7b$$u7b$closure$u7d$$u7d$17h15a7fb8fde66efbeE
Ltmp1197:
Lfunc_end46:
	.cfi_endproc

	.p2align	4, 0x90
__ZN4time5parse10parse_type17h7bb98a5de264be65E:
Lfunc_begin47:
	.loc	31 33 0
	.cfi_startproc
	.cfi_personality 155, _rust_eh_personality
	.cfi_lsda 16, Lexception2
	pushq	%rbp
	.cfi_def_cfa_offset 16
	.cfi_offset %rbp, -16
	movq	%rsp, %rbp
	.cfi_def_cfa_register %rbp
	pushq	%r15
	pushq	%r14
	pushq	%r13
	pushq	%r12
	pushq	%rbx
	subq	$216, %rsp
	.cfi_offset %rbx, -56
	.cfi_offset %r12, -48
	.cfi_offset %r13, -40
	.cfi_offset %r14, -32
	.cfi_offset %r15, -24
	movq	%rdi, %r15
Ltmp1201:
	.loc	31 35 9 prologue_end
	leal	-37(%rdx), %eax
	cmpl	$85, %eax
	ja	LBB47_219
Ltmp1202:
	.loc	31 0 9 is_stmt 0
	movq	%rcx, %r14
Ltmp1203:
	movq	%rsi, %r13
Ltmp1204:
	leaq	LJTI47_0(%rip), %rcx
	movslq	(%rcx,%rax,4), %rax
	addq	%rcx, %rax
	jmpq	*%rax
Ltmp1205:
LBB47_2:
	leaq	-72(%rbp), %r12
	.loc	31 101 13 is_stmt 1
	movq	%r12, %rdi
	movq	%r13, %rsi
	movl	$109, %edx
Ltmp1206:
	movq	%r14, %rcx
	callq	__ZN4time5parse10parse_type17h7bb98a5de264be65E
Ltmp1207:
	.loc	22 729 13
	movl	-72(%rbp), %eax
	cmpl	$15, %eax
	jne	LBB47_166
Ltmp1208:
	.loc	31 384 11
	movq	8(%r13), %rcx
Ltmp1209:
	.loc	31 0 11 is_stmt 0
	movl	$10, %eax
Ltmp1210:
	.loc	24 3440 9 is_stmt 1
	testq	%rcx, %rcx
	.loc	24 3570 21
	je	LBB47_167
Ltmp1211:
	.loc	31 0 0 is_stmt 0
	movq	(%r13), %rdx
Ltmp1212:
	.loc	16 519 13 is_stmt 1
	movzbl	(%rdx), %esi
Ltmp1213:
	.loc	16 520 8
	testb	%sil, %sil
	.loc	16 520 5 is_stmt 0
	jns	LBB47_332
Ltmp1214:
	.loc	31 0 0
	leaq	(%rdx,%rcx), %r8
Ltmp1215:
	xorl	%edi, %edi
Ltmp1216:
	movq	%r8, %r9
Ltmp1217:
	.loc	24 3440 9 is_stmt 1
	cmpq	$1, %rcx
Ltmp1218:
	.loc	24 3570 21
	je	LBB47_7
Ltmp1219:
	.loc	23 165 18
	leaq	2(%rdx), %r9
Ltmp1220:
	.loc	16 508 15
	movzbl	1(%rdx), %edi
	.loc	16 507 5
	andl	$63, %edi
Ltmp1221:
LBB47_7:
	.loc	16 0 5 is_stmt 0
	movl	%esi, %ebx
	andl	$31, %ebx
Ltmp1222:
	.loc	16 530 8 is_stmt 1
	cmpb	$-33, %sil
	.loc	16 530 5 is_stmt 0
	jbe	LBB47_310
Ltmp1223:
	.loc	24 3440 9 is_stmt 1
	cmpq	%r8, %r9
	.loc	24 3570 21
	je	LBB47_326
Ltmp1224:
	.loc	16 508 15
	movzbl	(%r9), %r10d
Ltmp1225:
	.loc	23 165 18
	incq	%r9
Ltmp1226:
	.loc	16 507 5
	andl	$63, %r10d
	jmp	LBB47_327
Ltmp1227:
LBB47_10:
	.loc	16 0 5 is_stmt 0
	leaq	-72(%rbp), %r12
	.loc	31 208 13 is_stmt 1
	movq	%r12, %rdi
	movq	%r13, %rsi
	movl	$72, %edx
Ltmp1228:
	movq	%r14, %rcx
	callq	__ZN4time5parse10parse_type17h7bb98a5de264be65E
Ltmp1229:
	.loc	22 729 13
	movl	-72(%rbp), %eax
	cmpl	$15, %eax
	jne	LBB47_166
Ltmp1230:
	.loc	31 384 11
	movq	8(%r13), %rcx
Ltmp1231:
	.loc	31 0 11 is_stmt 0
	movl	$10, %eax
Ltmp1232:
	.loc	24 3440 9 is_stmt 1
	testq	%rcx, %rcx
	.loc	24 3570 21
	je	LBB47_167
Ltmp1233:
	.loc	31 0 0 is_stmt 0
	movq	(%r13), %rdx
Ltmp1234:
	.loc	16 519 13 is_stmt 1
	movzbl	(%rdx), %esi
Ltmp1235:
	.loc	16 520 8
	testb	%sil, %sil
	.loc	16 520 5 is_stmt 0
	jns	LBB47_350
Ltmp1236:
	.loc	31 0 0
	leaq	(%rdx,%rcx), %r8
Ltmp1237:
	xorl	%edi, %edi
Ltmp1238:
	movq	%r8, %r9
Ltmp1239:
	.loc	24 3440 9 is_stmt 1
	cmpq	$1, %rcx
Ltmp1240:
	.loc	24 3570 21
	je	LBB47_15
Ltmp1241:
	.loc	23 165 18
	leaq	2(%rdx), %r9
Ltmp1242:
	.loc	16 508 15
	movzbl	1(%rdx), %edi
	.loc	16 507 5
	andl	$63, %edi
Ltmp1243:
LBB47_15:
	.loc	16 0 5 is_stmt 0
	movl	%esi, %ebx
	andl	$31, %ebx
Ltmp1244:
	.loc	16 530 8 is_stmt 1
	cmpb	$-33, %sil
	.loc	16 530 5 is_stmt 0
	jbe	LBB47_311
Ltmp1245:
	.loc	24 3440 9 is_stmt 1
	cmpq	%r8, %r9
	.loc	24 3570 21
	je	LBB47_344
Ltmp1246:
	.loc	16 508 15
	movzbl	(%r9), %r10d
Ltmp1247:
	.loc	23 165 18
	incq	%r9
Ltmp1248:
	.loc	16 507 5
	andl	$63, %r10d
	jmp	LBB47_345
Ltmp1249:
LBB47_18:
	.loc	31 0 0 is_stmt 0
	movq	8(%r13), %rax
Ltmp1250:
	.loc	24 1436 9 is_stmt 1
	cmpq	$3, %rax
Ltmp1251:
	jae	LBB47_22
Ltmp1252:
LBB47_111:
	.loc	31 0 0 is_stmt 0
	movl	$4, (%r15)
	jmp	LBB47_724
LBB47_20:
Ltmp1253:
	.loc	31 376 18 is_stmt 1
	movups	(%r13), %xmm0
Ltmp1254:
	.loc	31 0 18 is_stmt 0
	movaps	%xmm0, -208(%rbp)
Ltmp1255:
	.loc	31 319 11 is_stmt 1
	movl	$1, %esi
	movl	$2, %edx
Ltmp1256:
	movq	%r13, %rdi
	xorl	%ecx, %ecx
	callq	__ZN4time5parse16match_digits_i6417h53cc8d41fc9e7a1bE
	.loc	31 320 9
	testq	%rax, %rax
Ltmp1257:
	.loc	31 378 9
	je	LBB47_155
Ltmp1258:
	cmpl	$100, %edx
	jb	LBB47_129
	jmp	LBB47_155
Ltmp1259:
LBB47_22:
	.loc	31 0 0 is_stmt 0
	movq	(%r13), %rcx
Ltmp1260:
	leaq	l___unnamed_141(%rip), %rdx
Ltmp1261:
	.loc	32 331 9 is_stmt 1
	leaq	l___unnamed_41(%rip), %rsi
Ltmp1262:
	cmpq	%rsi, %rcx
Ltmp1263:
	.loc	24 6271 9
	je	LBB47_720
Ltmp1264:
	.loc	24 6276 13
	movzwl	(%rcx), %esi
Ltmp1265:
	xorl	$24906, %esi
	movzbl	2(%rcx), %edi
	xorl	$110, %edi
	orw	%si, %di
Ltmp1266:
	.loc	24 1436 9
	je	LBB47_720
Ltmp1267:
	.loc	24 0 9 is_stmt 0
	leaq	l___unnamed_141+24(%rip), %rdx
Ltmp1268:
	.loc	32 331 9 is_stmt 1
	leaq	l___unnamed_42(%rip), %rsi
Ltmp1269:
	cmpq	%rsi, %rcx
Ltmp1270:
	.loc	24 6271 9
	je	LBB47_720
Ltmp1271:
	.loc	24 6276 13
	movzwl	(%rcx), %esi
Ltmp1272:
	xorl	$25926, %esi
	movzbl	2(%rcx), %edi
	xorl	$98, %edi
	orw	%si, %di
Ltmp1273:
	.loc	24 1436 9
	je	LBB47_720
Ltmp1274:
	.loc	24 0 9 is_stmt 0
	leaq	l___unnamed_141+48(%rip), %rdx
Ltmp1275:
	.loc	32 331 9 is_stmt 1
	leaq	l___unnamed_69(%rip), %rsi
Ltmp1276:
	cmpq	%rsi, %rcx
Ltmp1277:
	.loc	24 6271 9
	je	LBB47_720
Ltmp1278:
	.loc	24 6276 13
	movzwl	(%rcx), %esi
Ltmp1279:
	xorl	$24909, %esi
	movzbl	2(%rcx), %edi
	xorl	$114, %edi
	orw	%si, %di
Ltmp1280:
	.loc	24 1436 9
	je	LBB47_720
Ltmp1281:
	.loc	24 0 9 is_stmt 0
	leaq	l___unnamed_141+72(%rip), %rdx
Ltmp1282:
	.loc	32 331 9 is_stmt 1
	leaq	l___unnamed_70(%rip), %rsi
Ltmp1283:
	cmpq	%rsi, %rcx
Ltmp1284:
	.loc	24 6271 9
	je	LBB47_720
Ltmp1285:
	.loc	24 6276 13
	movzwl	(%rcx), %esi
Ltmp1286:
	xorl	$28737, %esi
	movzbl	2(%rcx), %edi
	xorl	$114, %edi
	orw	%si, %di
Ltmp1287:
	.loc	24 1436 9
	je	LBB47_720
Ltmp1288:
	.loc	24 0 9 is_stmt 0
	leaq	l___unnamed_141+96(%rip), %rdx
Ltmp1289:
	.loc	32 331 9 is_stmt 1
	leaq	l___unnamed_66(%rip), %rsi
Ltmp1290:
	cmpq	%rsi, %rcx
Ltmp1291:
	.loc	24 6271 9
	je	LBB47_720
Ltmp1292:
	.loc	24 6276 13
	movzwl	(%rcx), %esi
Ltmp1293:
	xorl	$24909, %esi
	movzbl	2(%rcx), %edi
	xorl	$121, %edi
	orw	%si, %di
Ltmp1294:
	.loc	24 1436 9
	je	LBB47_720
Ltmp1295:
	.loc	24 0 9 is_stmt 0
	leaq	l___unnamed_141+120(%rip), %rdx
Ltmp1296:
	.loc	32 331 9 is_stmt 1
	leaq	l___unnamed_72(%rip), %rsi
Ltmp1297:
	cmpq	%rsi, %rcx
Ltmp1298:
	.loc	24 6271 9
	je	LBB47_720
Ltmp1299:
	.loc	24 6276 13
	movzwl	(%rcx), %esi
Ltmp1300:
	xorl	$30026, %esi
	movzbl	2(%rcx), %edi
	xorl	$110, %edi
	orw	%si, %di
Ltmp1301:
	.loc	24 1436 9
	je	LBB47_720
Ltmp1302:
	.loc	24 0 9 is_stmt 0
	leaq	l___unnamed_141+144(%rip), %rdx
Ltmp1303:
	.loc	32 331 9 is_stmt 1
	leaq	l___unnamed_73(%rip), %rsi
Ltmp1304:
	cmpq	%rsi, %rcx
Ltmp1305:
	.loc	24 6271 9
	je	LBB47_720
Ltmp1306:
	.loc	24 6276 13
	movzwl	(%rcx), %esi
Ltmp1307:
	xorl	$30026, %esi
	movzbl	2(%rcx), %edi
	xorl	$108, %edi
	orw	%si, %di
Ltmp1308:
	.loc	24 1436 9
	je	LBB47_720
Ltmp1309:
	.loc	24 0 9 is_stmt 0
	movq	%r13, %r9
Ltmp1310:
	movq	%r14, %r8
	movq	%r15, %rbx
	leaq	l___unnamed_141+168(%rip), %rdx
Ltmp1311:
	.loc	32 331 9 is_stmt 1
	leaq	l___unnamed_71(%rip), %rsi
Ltmp1312:
	cmpq	%rsi, %rcx
Ltmp1313:
	.loc	24 6271 9
	je	LBB47_719
Ltmp1314:
	.loc	24 6276 13
	movzwl	(%rcx), %esi
Ltmp1315:
	xorl	$30017, %esi
	movzbl	2(%rcx), %edi
	xorl	$103, %edi
	orw	%si, %di
Ltmp1316:
	.loc	24 0 13 is_stmt 0
	movq	%rbx, %r15
	movq	%r8, %r14
Ltmp1317:
	movq	%r9, %r13
Ltmp1318:
	.loc	24 1436 9 is_stmt 1
	je	LBB47_720
Ltmp1319:
	.loc	24 0 9 is_stmt 0
	leaq	l___unnamed_141+192(%rip), %rdx
Ltmp1320:
	.loc	32 331 9 is_stmt 1
	leaq	l___unnamed_74(%rip), %rsi
Ltmp1321:
	cmpq	%rsi, %rcx
Ltmp1322:
	.loc	24 6271 9
	je	LBB47_719
Ltmp1323:
	.loc	24 6276 13
	movzwl	(%rcx), %esi
Ltmp1324:
	xorl	$25939, %esi
	movzbl	2(%rcx), %edi
	xorl	$112, %edi
	orw	%si, %di
Ltmp1325:
	.loc	24 0 13 is_stmt 0
	movq	%rbx, %r15
	movq	%r8, %r14
	movq	%r9, %r13
Ltmp1326:
	.loc	24 1436 9 is_stmt 1
	je	LBB47_720
Ltmp1327:
	.loc	24 0 9 is_stmt 0
	leaq	l___unnamed_141+216(%rip), %rdx
Ltmp1328:
	.loc	32 331 9 is_stmt 1
	leaq	l___unnamed_68(%rip), %rsi
Ltmp1329:
	cmpq	%rsi, %rcx
Ltmp1330:
	.loc	24 6271 9
	je	LBB47_719
Ltmp1331:
	.loc	24 6276 13
	movzwl	(%rcx), %esi
Ltmp1332:
	xorl	$25423, %esi
	movzbl	2(%rcx), %edi
	xorl	$116, %edi
	orw	%si, %di
Ltmp1333:
	.loc	24 0 13 is_stmt 0
	movq	%rbx, %r15
	movq	%r8, %r14
	movq	%r9, %r13
Ltmp1334:
	.loc	24 1436 9 is_stmt 1
	je	LBB47_720
Ltmp1335:
	.loc	24 0 9 is_stmt 0
	leaq	l___unnamed_141+240(%rip), %rdx
Ltmp1336:
	.loc	32 331 9 is_stmt 1
	leaq	l___unnamed_75(%rip), %rsi
Ltmp1337:
	cmpq	%rsi, %rcx
Ltmp1338:
	.loc	24 6271 9
	je	LBB47_719
Ltmp1339:
	.loc	24 6276 13
	movzwl	(%rcx), %esi
Ltmp1340:
	xorl	$28494, %esi
	movzbl	2(%rcx), %edi
	xorl	$118, %edi
	orw	%si, %di
Ltmp1341:
	.loc	24 0 13 is_stmt 0
	movq	%rbx, %r15
	movq	%r8, %r14
	movq	%r9, %r13
Ltmp1342:
	.loc	24 1436 9 is_stmt 1
	je	LBB47_720
Ltmp1343:
	.loc	24 0 9 is_stmt 0
	leaq	l___unnamed_141+264(%rip), %rdx
Ltmp1344:
	.loc	32 331 9 is_stmt 1
	leaq	l___unnamed_67(%rip), %rsi
Ltmp1345:
	cmpq	%rsi, %rcx
Ltmp1346:
	.loc	24 6271 9
	je	LBB47_719
Ltmp1347:
	.loc	24 6276 13
	movzwl	(%rcx), %esi
Ltmp1348:
	xorl	$25924, %esi
	movzbl	2(%rcx), %edi
	xorl	$99, %edi
	orw	%si, %di
Ltmp1349:
	.loc	24 0 13 is_stmt 0
	movq	%rbx, %r15
	movq	%r8, %r14
	movq	%r9, %r13
Ltmp1350:
	.loc	24 1436 9 is_stmt 1
	jne	LBB47_111
	jmp	LBB47_720
Ltmp1351:
LBB47_46:
	.loc	31 376 18
	movups	(%r13), %xmm0
Ltmp1352:
	.loc	31 0 18 is_stmt 0
	movaps	%xmm0, -208(%rbp)
Ltmp1353:
	.loc	31 319 11 is_stmt 1
	movl	$1, %esi
	movl	$2, %edx
Ltmp1354:
	movq	%r13, %rdi
	xorl	%ecx, %ecx
	jmp	LBB47_83
Ltmp1355:
LBB47_47:
	.loc	31 376 18
	movups	(%r13), %xmm0
Ltmp1356:
	.loc	31 0 18 is_stmt 0
	movaps	%xmm0, -208(%rbp)
Ltmp1357:
	.loc	31 319 11 is_stmt 1
	movl	$1, %esi
	movl	$2, %edx
Ltmp1358:
	movq	%r13, %rdi
	movl	$1, %ecx
	jmp	LBB47_148
Ltmp1359:
LBB47_48:
	.loc	31 355 21
	movq	8(%r13), %r10
Ltmp1360:
	.loc	24 3440 9
	testq	%r10, %r10
	.loc	24 3570 21
	je	LBB47_298
Ltmp1361:
	.loc	24 0 21 is_stmt 0
	movq	%r15, -208(%rbp)
	movq	(%r13), %r9
Ltmp1362:
	leaq	(%r9,%r10), %r15
Ltmp1363:
	movl	$100000000, %edi
	xorl	%r12d, %r12d
	movq	%r9, %rdx
Ltmp1364:
	xorl	%ebx, %ebx
	movq	%r9, %r11
	movq	%r13, -240(%rbp)
Ltmp1365:
	.p2align	4, 0x90
LBB47_50:
	.loc	23 165 18 is_stmt 1
	leaq	1(%rdx), %rax
Ltmp1366:
	.loc	16 519 13
	movzbl	(%rdx), %ecx
Ltmp1367:
	.loc	16 520 8
	testb	%cl, %cl
	.loc	16 520 5 is_stmt 0
	js	LBB47_52
Ltmp1368:
	.loc	24 3522 21 is_stmt 1
	movq	%rax, %rdx
Ltmp1369:
	.loc	24 0 21 is_stmt 0
	jmp	LBB47_64
Ltmp1370:
LBB47_52:
	.loc	24 3440 9 is_stmt 1
	cmpq	%r15, %rax
Ltmp1371:
	.loc	24 3570 21
	je	LBB47_58
Ltmp1372:
	.loc	16 508 15
	movzbl	1(%rdx), %esi
Ltmp1373:
	.loc	23 165 18
	addq	$2, %rdx
Ltmp1374:
	.loc	16 507 5
	andl	$63, %esi
	movq	%rdx, %r8
	movl	%ecx, %eax
	andl	$31, %eax
Ltmp1375:
	.loc	16 530 8
	cmpb	$-33, %cl
	.loc	16 530 5 is_stmt 0
	jbe	LBB47_59
Ltmp1376:
LBB47_54:
	.loc	16 0 5
	movq	%r14, %r13
Ltmp1377:
	.loc	24 3440 9 is_stmt 1
	cmpq	%r15, %r8
	.loc	24 3570 21
	je	LBB47_60
Ltmp1378:
	.loc	16 508 15
	movzbl	(%r8), %r14d
Ltmp1379:
	.loc	23 165 18
	incq	%r8
Ltmp1380:
	.loc	16 507 5
	andl	$63, %r14d
Ltmp1381:
	.loc	16 0 0 is_stmt 0
	movq	%r8, %rdx
Ltmp1382:
	.loc	16 495 5 is_stmt 1
	shll	$6, %esi
Ltmp1383:
	orl	%r14d, %esi
Ltmp1384:
	.loc	16 536 12
	cmpb	$-16, %cl
	.loc	16 536 9 is_stmt 0
	jb	LBB47_61
Ltmp1385:
LBB47_56:
	.loc	24 3440 9 is_stmt 1
	cmpq	%r15, %r8
	.loc	24 3570 21
	je	LBB47_62
Ltmp1386:
	.loc	16 508 15
	movzbl	(%r8), %ecx
Ltmp1387:
	.loc	23 165 18
	incq	%r8
Ltmp1388:
	.loc	16 507 5
	andl	$63, %ecx
Ltmp1389:
	.loc	16 0 0 is_stmt 0
	movq	%r8, %rdx
Ltmp1390:
	jmp	LBB47_63
Ltmp1391:
LBB47_58:
	xorl	%esi, %esi
	movq	%rax, %rdx
	movq	%r15, %r8
	movl	%ecx, %eax
Ltmp1392:
	andl	$31, %eax
Ltmp1393:
	.loc	16 530 8 is_stmt 1
	cmpb	$-33, %cl
	.loc	16 530 5 is_stmt 0
	ja	LBB47_54
Ltmp1394:
LBB47_59:
	.loc	16 0 5
	shll	$6, %eax
Ltmp1395:
	orl	%eax, %esi
Ltmp1396:
	movl	%esi, %ecx
Ltmp1397:
	jmp	LBB47_64
Ltmp1398:
LBB47_60:
	xorl	%r14d, %r14d
	movq	%r15, %r8
Ltmp1399:
	.loc	16 495 5 is_stmt 1
	shll	$6, %esi
Ltmp1400:
	orl	%r14d, %esi
Ltmp1401:
	.loc	16 536 12
	cmpb	$-16, %cl
	.loc	16 536 9 is_stmt 0
	jae	LBB47_56
Ltmp1402:
LBB47_61:
	.loc	16 0 9
	shll	$12, %eax
Ltmp1403:
	orl	%eax, %esi
Ltmp1404:
	movl	%esi, %ecx
Ltmp1405:
	movq	%r13, %r14
Ltmp1406:
	movq	-240(%rbp), %r13
	jmp	LBB47_64
Ltmp1407:
LBB47_62:
	xorl	%ecx, %ecx
Ltmp1408:
LBB47_63:
	movq	%r13, %r14
Ltmp1409:
	.loc	16 540 18 is_stmt 1
	andl	$7, %eax
Ltmp1410:
	shll	$18, %eax
Ltmp1411:
	.loc	16 495 5
	shll	$6, %esi
Ltmp1412:
	orl	%eax, %esi
Ltmp1413:
	.loc	16 540 13
	orl	%ecx, %esi
Ltmp1414:
	.loc	16 0 13 is_stmt 0
	movl	%esi, %ecx
Ltmp1415:
	.loc	16 690 13 is_stmt 1
	cmpl	$1114112, %esi
Ltmp1416:
	.loc	16 0 13 is_stmt 0
	movq	-240(%rbp), %r13
	.loc	16 690 13
	je	LBB47_71
Ltmp1417:
	.p2align	4, 0x90
LBB47_64:
	.loc	16 0 13
	movq	%r9, -192(%rbp)
	movq	%r10, -184(%rbp)
Ltmp1418:
	.loc	16 2070 18 is_stmt 1
	movq	%rbx, -56(%rbp)
	.loc	16 2070 25 is_stmt 0
	movq	%r10, -72(%rbp)
Ltmp1419:
	.loc	16 2326 12 is_stmt 1
	testq	%rbx, %rbx
	je	LBB47_68
Ltmp1420:
	cmpq	%rbx, %r10
	je	LBB47_68
Ltmp1421:
	.loc	16 2330 13
	jbe	LBB47_773
Ltmp1422:
	.loc	16 2332 25
	cmpb	$-65, (%r9,%rbx)
Ltmp1423:
	.loc	16 2033 13
	jle	LBB47_773
Ltmp1424:
LBB47_68:
	.loc	32 164 18
	leaq	(%r9,%rbx), %rax
Ltmp1425:
	.loc	16 2057 23
	movq	%r10, %rsi
	subq	%rbx, %rsi
Ltmp1426:
	.loc	31 358 9
	movq	%rax, (%r13)
	movq	%rsi, 8(%r13)
	.loc	31 360 13
	addl	$-48, %ecx
Ltmp1427:
	cmpl	$9, %ecx
	ja	LBB47_71
Ltmp1428:
	.loc	31 363 26
	imull	%edi, %ecx
Ltmp1429:
	.loc	31 363 17 is_stmt 0
	addl	%ecx, %r12d
Ltmp1430:
	jo	LBB47_774
Ltmp1431:
	.loc	31 0 0
	subq	%r11, %rbx
Ltmp1432:
	addq	%rdx, %rbx
Ltmp1433:
	.loc	31 364 17 is_stmt 1
	movslq	%edi, %rax
	imulq	$1717986919, %rax, %rdi
Ltmp1434:
	movq	%rdi, %rax
	shrq	$63, %rax
	sarq	$34, %rdi
	addl	%eax, %edi
Ltmp1435:
	.loc	31 0 17 is_stmt 0
	movq	%rdx, %r11
Ltmp1436:
	.loc	24 3440 9 is_stmt 1
	cmpq	%rdx, %r15
	.loc	24 3570 21
	jne	LBB47_50
Ltmp1437:
LBB47_71:
	.loc	24 0 21 is_stmt 0
	movq	-208(%rbp), %r15
	.loc	31 116 13 is_stmt 1
	movl	%r12d, 40(%r14)
	jmp	LBB47_723
Ltmp1438:
LBB47_72:
	.loc	31 376 18
	movups	(%r13), %xmm0
Ltmp1439:
	.loc	31 0 18 is_stmt 0
	movaps	%xmm0, -208(%rbp)
Ltmp1440:
	.loc	31 319 11 is_stmt 1
	movl	$1, %esi
	movl	$1, %edx
Ltmp1441:
	movq	%r13, %rdi
	xorl	%ecx, %ecx
	callq	__ZN4time5parse16match_digits_i6417h53cc8d41fc9e7a1bE
	.loc	31 320 9
	testq	%rax, %rax
Ltmp1442:
	.loc	31 378 9
	je	LBB47_211
Ltmp1443:
	.loc	31 0 0 is_stmt 0
	leal	-1(%rdx), %eax
	.loc	31 378 9
	cmpl	$7, %eax
	jae	LBB47_211
Ltmp1444:
	.loc	31 0 9
	xorl	%eax, %eax
Ltmp1445:
	.loc	31 217 46 is_stmt 1
	cmpl	$7, %edx
	.loc	31 217 43 is_stmt 0
	cmovnel	%edx, %eax
	.loc	31 217 30
	movl	%eax, 24(%r14)
	jmp	LBB47_723
Ltmp1446:
LBB47_75:
	.loc	31 384 11 is_stmt 1
	movq	8(%r13), %rax
Ltmp1447:
	.loc	24 3440 9
	testq	%rax, %rax
	.loc	24 3570 21
	je	LBB47_424
Ltmp1448:
	.loc	31 0 0 is_stmt 0
	movq	(%r13), %rcx
Ltmp1449:
	.loc	16 519 13 is_stmt 1
	movzbl	(%rcx), %esi
Ltmp1450:
	.loc	16 520 8
	testb	%sil, %sil
	.loc	16 520 5 is_stmt 0
	jns	LBB47_368
Ltmp1451:
	.loc	31 0 0
	leaq	(%rcx,%rax), %r8
Ltmp1452:
	xorl	%edx, %edx
Ltmp1453:
	movq	%r8, %rbx
Ltmp1454:
	.loc	24 3440 9 is_stmt 1
	cmpq	$1, %rax
Ltmp1455:
	.loc	24 3570 21
	je	LBB47_79
Ltmp1456:
	.loc	23 165 18
	leaq	2(%rcx), %rbx
Ltmp1457:
	.loc	16 508 15
	movzbl	1(%rcx), %edx
	.loc	16 507 5
	andl	$63, %edx
Ltmp1458:
LBB47_79:
	.loc	16 0 5 is_stmt 0
	movl	%esi, %edi
	andl	$31, %edi
Ltmp1459:
	.loc	16 530 8 is_stmt 1
	cmpb	$-33, %sil
	.loc	16 530 5 is_stmt 0
	jbe	LBB47_312
Ltmp1460:
	.loc	24 3440 9 is_stmt 1
	cmpq	%r8, %rbx
	.loc	24 3570 21
	je	LBB47_362
Ltmp1461:
	.loc	16 508 15
	movzbl	(%rbx), %r9d
Ltmp1462:
	.loc	23 165 18
	incq	%rbx
Ltmp1463:
	.loc	16 507 5
	andl	$63, %r9d
	jmp	LBB47_363
Ltmp1464:
LBB47_82:
	.loc	31 376 18
	movups	(%r13), %xmm0
Ltmp1465:
	.loc	31 0 18 is_stmt 0
	movaps	%xmm0, -208(%rbp)
Ltmp1466:
	.loc	31 319 11 is_stmt 1
	movl	$1, %esi
	movl	$2, %edx
Ltmp1467:
	movq	%r13, %rdi
	movl	$1, %ecx
Ltmp1468:
LBB47_83:
	.loc	31 0 0 is_stmt 0
	callq	__ZN4time5parse16match_digits_i6417h53cc8d41fc9e7a1bE
	testq	%rax, %rax
	je	LBB47_86
Ltmp1469:
	leal	-1(%rdx), %eax
	cmpl	$31, %eax
	jae	LBB47_86
Ltmp1470:
	movl	%edx, 12(%r14)
	jmp	LBB47_723
Ltmp1471:
LBB47_86:
	movaps	-208(%rbp), %xmm0
	movups	%xmm0, (%r13)
	movl	$7, (%r15)
	jmp	LBB47_724
Ltmp1472:
LBB47_87:
	movq	8(%r13), %rax
Ltmp1473:
	.loc	24 1436 9 is_stmt 1
	cmpq	$2, %rax
Ltmp1474:
	jb	LBB47_88
Ltmp1475:
	.loc	31 0 0 is_stmt 0
	movq	(%r13), %rcx
Ltmp1476:
	leaq	l___unnamed_142(%rip), %rdx
Ltmp1477:
	.loc	32 331 9 is_stmt 1
	leaq	l___unnamed_59(%rip), %rsi
Ltmp1478:
	cmpq	%rsi, %rcx
Ltmp1479:
	.loc	24 6271 9
	je	LBB47_224
Ltmp1480:
	.loc	24 6276 13
	movzwl	(%rcx), %esi
Ltmp1481:
	cmpl	$28001, %esi
Ltmp1482:
	.loc	24 1436 9
	je	LBB47_224
Ltmp1483:
	.loc	24 0 9 is_stmt 0
	leaq	l___unnamed_142+24(%rip), %rdx
Ltmp1484:
	.loc	32 331 9 is_stmt 1
	leaq	l___unnamed_60(%rip), %rsi
Ltmp1485:
	cmpq	%rsi, %rcx
Ltmp1486:
	.loc	24 6271 9
	je	LBB47_224
Ltmp1487:
	.loc	24 6276 13
	movzwl	(%rcx), %esi
Ltmp1488:
	cmpl	$28016, %esi
Ltmp1489:
	.loc	24 1436 9
	jne	LBB47_88
Ltmp1490:
LBB47_224:
	.loc	31 310 19
	movl	16(%rdx), %edx
Ltmp1491:
	.loc	31 0 19 is_stmt 0
	movq	%rcx, -192(%rbp)
	movq	%rax, -184(%rbp)
Ltmp1492:
	.loc	16 2070 18 is_stmt 1
	movq	$2, -56(%rbp)
	.loc	16 2070 25 is_stmt 0
	movq	%rax, -72(%rbp)
Ltmp1493:
	.loc	16 2326 26 is_stmt 1
	cmpq	$2, %rax
	.loc	16 2326 12 is_stmt 0
	je	LBB47_226
Ltmp1494:
	.loc	16 2332 25 is_stmt 1
	cmpb	$-65, 2(%rcx)
Ltmp1495:
	.loc	16 2033 13
	jle	LBB47_773
Ltmp1496:
LBB47_226:
	.loc	32 164 18
	addq	$2, %rcx
Ltmp1497:
	.loc	16 2057 23
	addq	$-2, %rax
Ltmp1498:
	.loc	31 302 9
	movq	%rcx, (%r13)
	movq	%rax, 8(%r13)
Ltmp1499:
	.loc	31 170 26
	addl	8(%r14), %edx
Ltmp1500:
	jno	LBB47_235
Ltmp1501:
	leaq	_str.5(%rip), %rdi
	leaq	l___unnamed_143(%rip), %rdx
	movl	$28, %esi
	callq	__ZN4core9panicking5panic17h383a6b80ea7021aaE
Ltmp1502:
LBB47_89:
	.loc	31 0 0 is_stmt 0
	movq	8(%r13), %rax
Ltmp1503:
	.loc	24 1436 9 is_stmt 1
	cmpq	$2, %rax
Ltmp1504:
	jae	LBB47_228
Ltmp1505:
LBB47_88:
	.loc	31 0 0 is_stmt 0
	movl	$2, (%r15)
	jmp	LBB47_724
Ltmp1506:
LBB47_91:
	.loc	31 192 19 is_stmt 1
	movl	$1, %esi
	movl	$18, %edx
Ltmp1507:
	movq	%r13, %rdi
	xorl	%ecx, %ecx
	callq	__ZN4time5parse16match_digits_i6417h53cc8d41fc9e7a1bE
	.loc	31 193 17
	testq	%rax, %rax
	je	LBB47_299
Ltmp1508:
	.loc	1 284 23
	movq	%rdx, -88(%rbp)
Ltmp1509:
	.loc	6 2283 14
	xorps	%xmm0, %xmm0
	movaps	%xmm0, -112(%rbp)
	movaps	%xmm0, -128(%rbp)
	movaps	%xmm0, -144(%rbp)
	movq	$0, -96(%rbp)
Ltmp1510:
	.loc	6 0 14 is_stmt 0
	leaq	-88(%rbp), %rdi
	leaq	-144(%rbp), %rsi
Ltmp1511:
	.loc	1 286 16 is_stmt 1
	callq	_gmtime_r
Ltmp1512:
	.loc	23 29 9
	testq	%rax, %rax
Ltmp1513:
	.loc	1 286 13
	je	LBB47_775
Ltmp1514:
	.loc	1 245 26
	movaps	-144(%rbp), %xmm0
	.loc	1 249 26
	movaps	-128(%rbp), %xmm1
	.loc	1 253 28
	movl	-112(%rbp), %eax
Ltmp1515:
	.loc	31 194 21
	movups	%xmm0, (%r14)
	movups	%xmm1, 16(%r14)
	movl	%eax, 32(%r14)
	movq	$0, 36(%r14)
	jmp	LBB47_723
Ltmp1516:
LBB47_94:
	.loc	31 376 18
	movups	(%r13), %xmm0
Ltmp1517:
	.loc	31 0 18 is_stmt 0
	movaps	%xmm0, -208(%rbp)
Ltmp1518:
	.loc	31 319 11 is_stmt 1
	movl	$1, %esi
	movl	$2, %edx
Ltmp1519:
	movq	%r13, %rdi
	xorl	%ecx, %ecx
	callq	__ZN4time5parse16match_digits_i6417h53cc8d41fc9e7a1bE
	.loc	31 320 9
	testq	%rax, %rax
Ltmp1520:
	.loc	31 378 9
	je	LBB47_236
Ltmp1521:
	cmpl	$61, %edx
	jae	LBB47_236
Ltmp1522:
	.loc	31 202 30
	movl	%edx, (%r14)
	jmp	LBB47_723
Ltmp1523:
LBB47_97:
	.loc	31 376 18
	movups	(%r13), %xmm0
Ltmp1524:
	.loc	31 0 18 is_stmt 0
	movaps	%xmm0, -208(%rbp)
Ltmp1525:
	.loc	31 319 11 is_stmt 1
	movl	$1, %esi
	movl	$3, %edx
Ltmp1526:
	movq	%r13, %rdi
	xorl	%ecx, %ecx
	callq	__ZN4time5parse16match_digits_i6417h53cc8d41fc9e7a1bE
	.loc	31 320 9
	testq	%rax, %rax
Ltmp1527:
	.loc	31 378 9
	je	LBB47_237
Ltmp1528:
	.loc	31 0 0 is_stmt 0
	decl	%edx
	.loc	31 378 9
	cmpl	$366, %edx
	jae	LBB47_237
Ltmp1529:
	.loc	31 140 30 is_stmt 1
	movl	%edx, 28(%r14)
	jmp	LBB47_723
Ltmp1530:
LBB47_100:
	.loc	31 0 30 is_stmt 0
	leaq	-72(%rbp), %rdi
	.loc	31 178 13 is_stmt 1
	movq	%r13, %rsi
	movl	$72, %edx
Ltmp1531:
	movq	%r14, %rcx
	callq	__ZN4time5parse10parse_type17h7bb98a5de264be65E
Ltmp1532:
	.loc	22 729 13
	movl	-72(%rbp), %edx
	cmpl	$15, %edx
	jne	LBB47_238
Ltmp1533:
	.loc	31 384 11
	movq	8(%r13), %rax
Ltmp1534:
	.loc	31 0 11 is_stmt 0
	movl	$10, %edx
Ltmp1535:
	.loc	24 3440 9 is_stmt 1
	testq	%rax, %rax
	.loc	24 3570 21
	je	LBB47_301
Ltmp1536:
	.loc	31 0 0 is_stmt 0
	movq	(%r13), %rcx
Ltmp1537:
	.loc	16 519 13 is_stmt 1
	movzbl	(%rcx), %esi
Ltmp1538:
	.loc	16 520 8
	testb	%sil, %sil
	.loc	16 520 5 is_stmt 0
	jns	LBB47_431
Ltmp1539:
	.loc	31 0 0
	leaq	(%rcx,%rax), %r8
Ltmp1540:
	xorl	%edi, %edi
Ltmp1541:
	movq	%r8, %r9
Ltmp1542:
	.loc	24 3440 9 is_stmt 1
	cmpq	$1, %rax
Ltmp1543:
	.loc	24 3570 21
	je	LBB47_105
Ltmp1544:
	.loc	23 165 18
	leaq	2(%rcx), %r9
Ltmp1545:
	.loc	16 508 15
	movzbl	1(%rcx), %edi
	.loc	16 507 5
	andl	$63, %edi
Ltmp1546:
LBB47_105:
	.loc	16 0 5 is_stmt 0
	movl	%esi, %ebx
	andl	$31, %ebx
Ltmp1547:
	.loc	16 530 8 is_stmt 1
	cmpb	$-33, %sil
	.loc	16 530 5 is_stmt 0
	jbe	LBB47_321
Ltmp1548:
	.loc	24 3440 9 is_stmt 1
	cmpq	%r8, %r9
	.loc	24 3570 21
	je	LBB47_425
Ltmp1549:
	.loc	16 508 15
	movzbl	(%r9), %r10d
Ltmp1550:
	.loc	23 165 18
	incq	%r9
Ltmp1551:
	.loc	16 507 5
	andl	$63, %r10d
	jmp	LBB47_426
Ltmp1552:
LBB47_108:
	.loc	31 0 0 is_stmt 0
	movq	(%r13), %rax
	movq	8(%r13), %rcx
Ltmp1553:
	.loc	24 1436 9 is_stmt 1
	cmpq	$7, %rcx
Ltmp1554:
	jae	LBB47_240
Ltmp1555:
	.loc	24 0 9 is_stmt 0
	movb	$1, %r8b
	.loc	24 1436 9
	cmpq	$5, %rcx
Ltmp1556:
	jae	LBB47_245
Ltmp1557:
	.loc	24 0 9
	movb	$1, %r8b
	.loc	24 1436 9
	cmpq	$3, %rcx
Ltmp1558:
	jae	LBB47_249
	jmp	LBB47_111
Ltmp1559:
LBB47_112:
	.loc	24 0 9
	leaq	-72(%rbp), %r12
	.loc	31 183 13 is_stmt 1
	movq	%r12, %rdi
	movq	%r13, %rsi
	movl	$73, %edx
Ltmp1560:
	movq	%r14, %rcx
	callq	__ZN4time5parse10parse_type17h7bb98a5de264be65E
Ltmp1561:
	.loc	22 729 13
	movl	-72(%rbp), %eax
	cmpl	$15, %eax
	jne	LBB47_260
Ltmp1562:
	.loc	31 384 11
	movq	8(%r13), %rcx
Ltmp1563:
	.loc	31 0 11 is_stmt 0
	movl	$10, %eax
Ltmp1564:
	.loc	24 3440 9 is_stmt 1
	testq	%rcx, %rcx
	.loc	24 3570 21
	je	LBB47_302
Ltmp1565:
	.loc	31 0 0 is_stmt 0
	movq	(%r13), %rdx
Ltmp1566:
	.loc	16 519 13 is_stmt 1
	movzbl	(%rdx), %esi
Ltmp1567:
	.loc	16 520 8
	testb	%sil, %sil
	.loc	16 520 5 is_stmt 0
	jns	LBB47_442
Ltmp1568:
	.loc	31 0 0
	leaq	(%rdx,%rcx), %r8
Ltmp1569:
	xorl	%edi, %edi
Ltmp1570:
	movq	%r8, %r9
Ltmp1571:
	.loc	24 3440 9 is_stmt 1
	cmpq	$1, %rcx
Ltmp1572:
	.loc	24 3570 21
	je	LBB47_117
Ltmp1573:
	.loc	23 165 18
	leaq	2(%rdx), %r9
Ltmp1574:
	.loc	16 508 15
	movzbl	1(%rdx), %edi
	.loc	16 507 5
	andl	$63, %edi
Ltmp1575:
LBB47_117:
	.loc	16 0 5 is_stmt 0
	movl	%esi, %ebx
	andl	$31, %ebx
Ltmp1576:
	.loc	16 530 8 is_stmt 1
	cmpb	$-33, %sil
	.loc	16 530 5 is_stmt 0
	jbe	LBB47_322
Ltmp1577:
	.loc	24 3440 9 is_stmt 1
	cmpq	%r8, %r9
	.loc	24 3570 21
	je	LBB47_436
Ltmp1578:
	.loc	16 508 15
	movzbl	(%r9), %r10d
Ltmp1579:
	.loc	23 165 18
	incq	%r9
Ltmp1580:
	.loc	16 507 5
	andl	$63, %r10d
	jmp	LBB47_437
Ltmp1581:
LBB47_120:
	.loc	31 384 11
	movq	8(%r13), %rax
Ltmp1582:
	.loc	24 3440 9
	testq	%rax, %rax
	.loc	24 3570 21
	je	LBB47_424
Ltmp1583:
	.loc	31 0 0 is_stmt 0
	movq	(%r13), %rcx
Ltmp1584:
	.loc	16 519 13 is_stmt 1
	movzbl	(%rcx), %esi
Ltmp1585:
	.loc	16 520 8
	testb	%sil, %sil
	.loc	16 520 5 is_stmt 0
	jns	LBB47_376
Ltmp1586:
	.loc	31 0 0
	leaq	(%rcx,%rax), %r8
Ltmp1587:
	xorl	%edx, %edx
Ltmp1588:
	movq	%r8, %rbx
Ltmp1589:
	.loc	24 3440 9 is_stmt 1
	cmpq	$1, %rax
Ltmp1590:
	.loc	24 3570 21
	je	LBB47_124
Ltmp1591:
	.loc	23 165 18
	leaq	2(%rcx), %rbx
Ltmp1592:
	.loc	16 508 15
	movzbl	1(%rcx), %edx
	.loc	16 507 5
	andl	$63, %edx
Ltmp1593:
LBB47_124:
	.loc	16 0 5 is_stmt 0
	movl	%esi, %edi
	andl	$31, %edi
Ltmp1594:
	.loc	16 530 8 is_stmt 1
	cmpb	$-33, %sil
	.loc	16 530 5 is_stmt 0
	jbe	LBB47_313
Ltmp1595:
	.loc	24 3440 9 is_stmt 1
	cmpq	%r8, %rbx
	.loc	24 3570 21
	je	LBB47_370
Ltmp1596:
	.loc	16 508 15
	movzbl	(%rbx), %r9d
Ltmp1597:
	.loc	23 165 18
	incq	%rbx
Ltmp1598:
	.loc	16 507 5
	andl	$63, %r9d
	jmp	LBB47_371
Ltmp1599:
LBB47_127:
	.loc	31 319 11
	movl	$4, %esi
	movl	$4, %edx
Ltmp1600:
	movq	%r13, %rdi
	xorl	%ecx, %ecx
	callq	__ZN4time5parse16match_digits_i6417h53cc8d41fc9e7a1bE
	.loc	31 320 9
	testq	%rax, %rax
Ltmp1601:
	.loc	31 237 17
	je	LBB47_300
Ltmp1602:
	.loc	31 237 43 is_stmt 0
	addl	$-1900, %edx
Ltmp1603:
	jo	LBB47_777
Ltmp1604:
LBB47_129:
	.loc	31 0 0
	movl	%edx, 20(%r14)
	jmp	LBB47_723
Ltmp1605:
LBB47_130:
	.loc	31 384 11 is_stmt 1
	movq	8(%r13), %rax
Ltmp1606:
	.loc	24 3440 9
	testq	%rax, %rax
	.loc	24 3570 21
	je	LBB47_578
Ltmp1607:
	.loc	31 0 0 is_stmt 0
	movq	(%r13), %rcx
Ltmp1608:
	leaq	(%rcx,%rax), %r8
Ltmp1609:
	.loc	23 165 18 is_stmt 1
	leaq	1(%rcx), %r9
Ltmp1610:
	.loc	16 519 13
	movzbl	(%rcx), %edi
Ltmp1611:
	.loc	16 520 8
	testb	%dil, %dil
	.loc	16 520 5 is_stmt 0
	jns	LBB47_384
Ltmp1612:
	.loc	16 0 5
	xorl	%ebx, %ebx
Ltmp1613:
	movq	%r8, %rsi
Ltmp1614:
	.loc	24 3440 9 is_stmt 1
	cmpq	$1, %rax
Ltmp1615:
	.loc	24 3570 21
	je	LBB47_134
Ltmp1616:
	.loc	23 165 18
	leaq	2(%rcx), %rsi
Ltmp1617:
	.loc	16 508 15
	movzbl	1(%rcx), %ebx
	.loc	16 507 5
	andl	$63, %ebx
Ltmp1618:
LBB47_134:
	.loc	16 0 5 is_stmt 0
	movl	%edi, %edx
Ltmp1619:
	andl	$31, %edx
Ltmp1620:
	.loc	16 530 8 is_stmt 1
	cmpb	$-33, %dil
	.loc	16 530 5 is_stmt 0
	jbe	LBB47_314
Ltmp1621:
	.loc	24 3440 9 is_stmt 1
	cmpq	%r8, %rsi
	.loc	24 3570 21
	je	LBB47_378
Ltmp1622:
	.loc	16 508 15
	movzbl	(%rsi), %r10d
Ltmp1623:
	.loc	23 165 18
	incq	%rsi
Ltmp1624:
	.loc	16 507 5
	andl	$63, %r10d
	jmp	LBB47_379
Ltmp1625:
LBB47_137:
	.loc	31 0 0 is_stmt 0
	movq	8(%r13), %rax
Ltmp1626:
	.loc	24 1436 9 is_stmt 1
	cmpq	$6, %rax
Ltmp1627:
	jb	LBB47_138
Ltmp1628:
	.loc	31 0 0 is_stmt 0
	movq	(%r13), %rcx
Ltmp1629:
	movl	$6, %edx
Ltmp1630:
	leaq	l___unnamed_144(%rip), %rsi
Ltmp1631:
	.loc	32 331 9 is_stmt 1
	leaq	l___unnamed_54(%rip), %rdi
Ltmp1632:
	cmpq	%rdi, %rcx
Ltmp1633:
	.loc	24 6271 9
	je	LBB47_316
Ltmp1634:
	.loc	24 0 9 is_stmt 0
	movl	$1684960595, %edi
Ltmp1635:
	.loc	24 6276 13 is_stmt 1
	xorl	(%rcx), %edi
	movzwl	4(%rcx), %ebx
	xorl	$31073, %ebx
	orl	%edi, %ebx
Ltmp1636:
	.loc	24 1436 9
	je	LBB47_317
Ltmp1637:
	.loc	24 0 9 is_stmt 0
	leaq	l___unnamed_144+24(%rip), %rsi
Ltmp1638:
	.loc	32 331 9 is_stmt 1
	leaq	l___unnamed_55(%rip), %rdi
Ltmp1639:
	cmpq	%rdi, %rcx
Ltmp1640:
	.loc	24 6271 9
	je	LBB47_316
Ltmp1641:
	.loc	24 0 9 is_stmt 0
	movl	$1684959053, %edi
Ltmp1642:
	.loc	24 6276 13 is_stmt 1
	xorl	(%rcx), %edi
	movzwl	4(%rcx), %ebx
	xorl	$31073, %ebx
	orl	%edi, %ebx
Ltmp1643:
	.loc	24 1436 9
	je	LBB47_317
Ltmp1644:
	.loc	24 0 9 is_stmt 0
	movb	$1, %r8b
	.loc	24 1436 9
	cmpq	$7, %rax
Ltmp1645:
	jae	LBB47_400
Ltmp1646:
LBB47_266:
	.loc	24 0 9
	leaq	l___unnamed_144+120(%rip), %rsi
Ltmp1647:
	.loc	32 331 9 is_stmt 1
	leaq	l___unnamed_84(%rip), %rdx
Ltmp1648:
	cmpq	%rdx, %rcx
Ltmp1649:
	.loc	24 6271 9
	je	LBB47_316
Ltmp1650:
	.loc	24 0 9 is_stmt 0
	movl	$1684632134, %edx
Ltmp1651:
	.loc	24 6276 13 is_stmt 1
	xorl	(%rcx), %edx
	movzwl	4(%rcx), %edi
	xorl	$31073, %edi
	orl	%edx, %edi
Ltmp1652:
	.loc	31 310 11
	movl	$6, %edx
Ltmp1653:
	.loc	24 1436 9
	je	LBB47_317
Ltmp1654:
	testb	%r8b, %r8b
Ltmp1655:
	jne	LBB47_138
Ltmp1656:
	.loc	24 0 9 is_stmt 0
	movl	$8, %edx
	leaq	l___unnamed_144+144(%rip), %rsi
Ltmp1657:
	.loc	32 331 9 is_stmt 1
	leaq	L___unnamed_85(%rip), %rdi
Ltmp1658:
	cmpq	%rdi, %rcx
Ltmp1659:
	.loc	24 6271 9
	je	LBB47_317
Ltmp1660:
	.loc	24 0 9 is_stmt 0
	movabsq	$8746382394089824595, %rdi
Ltmp1661:
	.loc	24 6276 13 is_stmt 1
	cmpq	%rdi, (%rcx)
Ltmp1662:
	.loc	24 1436 9
	jne	LBB47_138
	jmp	LBB47_317
Ltmp1663:
LBB47_139:
	.loc	24 0 9 is_stmt 0
	leaq	-72(%rbp), %r12
	.loc	31 120 13 is_stmt 1
	movq	%r12, %rdi
	movq	%r13, %rsi
	movl	$89, %edx
Ltmp1664:
	movq	%r14, %rcx
	callq	__ZN4time5parse10parse_type17h7bb98a5de264be65E
Ltmp1665:
	.loc	22 729 13
	movl	-72(%rbp), %eax
	cmpl	$15, %eax
	jne	LBB47_166
Ltmp1666:
	.loc	31 384 11
	movq	8(%r13), %rcx
Ltmp1667:
	.loc	31 0 11 is_stmt 0
	movl	$10, %eax
Ltmp1668:
	.loc	24 3440 9 is_stmt 1
	testq	%rcx, %rcx
	.loc	24 3570 21
	je	LBB47_167
Ltmp1669:
	.loc	31 0 0 is_stmt 0
	movq	(%r13), %rdx
Ltmp1670:
	.loc	16 519 13 is_stmt 1
	movzbl	(%rdx), %esi
Ltmp1671:
	.loc	16 520 8
	testb	%sil, %sil
	.loc	16 520 5 is_stmt 0
	jns	LBB47_487
Ltmp1672:
	.loc	31 0 0
	leaq	(%rdx,%rcx), %r8
Ltmp1673:
	xorl	%edi, %edi
Ltmp1674:
	movq	%r8, %r9
Ltmp1675:
	.loc	24 3440 9 is_stmt 1
	cmpq	$1, %rcx
Ltmp1676:
	.loc	24 3570 21
	je	LBB47_144
Ltmp1677:
	.loc	23 165 18
	leaq	2(%rdx), %r9
Ltmp1678:
	.loc	16 508 15
	movzbl	1(%rdx), %edi
	.loc	16 507 5
	andl	$63, %edi
Ltmp1679:
LBB47_144:
	.loc	16 0 5 is_stmt 0
	movl	%esi, %ebx
	andl	$31, %ebx
Ltmp1680:
	.loc	16 530 8 is_stmt 1
	cmpb	$-33, %sil
	.loc	16 530 5 is_stmt 0
	jbe	LBB47_323
Ltmp1681:
	.loc	24 3440 9 is_stmt 1
	cmpq	%r8, %r9
	.loc	24 3570 21
	je	LBB47_481
Ltmp1682:
	.loc	16 508 15
	movzbl	(%r9), %r10d
Ltmp1683:
	.loc	23 165 18
	incq	%r9
Ltmp1684:
	.loc	16 507 5
	andl	$63, %r10d
	jmp	LBB47_482
Ltmp1685:
LBB47_147:
	.loc	31 376 18
	movups	(%r13), %xmm0
Ltmp1686:
	.loc	31 0 18 is_stmt 0
	movaps	%xmm0, -208(%rbp)
Ltmp1687:
	.loc	31 319 11 is_stmt 1
	movl	$1, %esi
	movl	$2, %edx
Ltmp1688:
	movq	%r13, %rdi
	xorl	%ecx, %ecx
Ltmp1689:
LBB47_148:
	.loc	31 0 0 is_stmt 0
	callq	__ZN4time5parse16match_digits_i6417h53cc8d41fc9e7a1bE
	testq	%rax, %rax
	je	LBB47_207
Ltmp1690:
	cmpl	$24, %edx
	jae	LBB47_207
Ltmp1691:
	movl	%edx, 8(%r14)
	jmp	LBB47_723
Ltmp1692:
LBB47_151:
	.loc	31 376 18 is_stmt 1
	movups	(%r13), %xmm0
Ltmp1693:
	.loc	31 0 18 is_stmt 0
	movaps	%xmm0, -208(%rbp)
Ltmp1694:
	.loc	31 319 11 is_stmt 1
	movl	$1, %esi
	movl	$2, %edx
Ltmp1695:
	movq	%r13, %rdi
	xorl	%ecx, %ecx
	callq	__ZN4time5parse16match_digits_i6417h53cc8d41fc9e7a1bE
	.loc	31 320 9
	testq	%rax, %rax
Ltmp1696:
	.loc	31 378 9
	je	LBB47_155
Ltmp1697:
	cmpl	$100, %edx
	jae	LBB47_155
Ltmp1698:
	.loc	31 86 40
	imull	$100, %edx, %eax
	addl	$-1900, %eax
	.loc	31 86 26 is_stmt 0
	addl	20(%r14), %eax
	jo	LBB47_778
Ltmp1699:
	movl	%eax, 20(%r14)
	jmp	LBB47_723
Ltmp1700:
LBB47_155:
	.loc	31 0 26
	movaps	-208(%rbp), %xmm0
	movups	%xmm0, (%r13)
	movl	$5, (%r15)
	jmp	LBB47_724
Ltmp1701:
LBB47_156:
	movq	8(%r13), %rax
Ltmp1702:
	.loc	24 1436 9 is_stmt 1
	cmpq	$3, %rax
Ltmp1703:
	jae	LBB47_271
Ltmp1704:
LBB47_138:
	.loc	31 0 0 is_stmt 0
	movl	$3, (%r15)
	jmp	LBB47_724
Ltmp1705:
LBB47_158:
	leaq	-72(%rbp), %r12
	.loc	31 222 13 is_stmt 1
	movq	%r12, %rdi
	movq	%r13, %rsi
	movl	$101, %edx
Ltmp1706:
	movq	%r14, %rcx
	callq	__ZN4time5parse10parse_type17h7bb98a5de264be65E
Ltmp1707:
	.loc	22 729 13
	movl	-72(%rbp), %eax
	cmpl	$15, %eax
	jne	LBB47_166
Ltmp1708:
	.loc	31 384 11
	movq	8(%r13), %rcx
Ltmp1709:
	.loc	31 0 11 is_stmt 0
	movl	$10, %eax
Ltmp1710:
	.loc	24 3440 9 is_stmt 1
	testq	%rcx, %rcx
	.loc	24 3570 21
	je	LBB47_167
Ltmp1711:
	.loc	31 0 0 is_stmt 0
	movq	(%r13), %rdx
Ltmp1712:
	.loc	16 519 13 is_stmt 1
	movzbl	(%rdx), %esi
Ltmp1713:
	.loc	16 520 8
	testb	%sil, %sil
	.loc	16 520 5 is_stmt 0
	jns	LBB47_504
Ltmp1714:
	.loc	31 0 0
	leaq	(%rdx,%rcx), %r8
Ltmp1715:
	xorl	%edi, %edi
Ltmp1716:
	movq	%r8, %r9
Ltmp1717:
	.loc	24 3440 9 is_stmt 1
	cmpq	$1, %rcx
Ltmp1718:
	.loc	24 3570 21
	je	LBB47_163
Ltmp1719:
	.loc	23 165 18
	leaq	2(%rdx), %r9
Ltmp1720:
	.loc	16 508 15
	movzbl	1(%rdx), %edi
	.loc	16 507 5
	andl	$63, %edi
Ltmp1721:
LBB47_163:
	.loc	16 0 5 is_stmt 0
	movl	%esi, %ebx
	andl	$31, %ebx
Ltmp1722:
	.loc	16 530 8 is_stmt 1
	cmpb	$-33, %sil
	.loc	16 530 5 is_stmt 0
	jbe	LBB47_324
Ltmp1723:
	.loc	24 3440 9 is_stmt 1
	cmpq	%r8, %r9
	.loc	24 3570 21
	je	LBB47_498
Ltmp1724:
	.loc	16 508 15
	movzbl	(%r9), %r10d
Ltmp1725:
	.loc	23 165 18
	incq	%r9
Ltmp1726:
	.loc	16 507 5
	andl	$63, %r10d
	jmp	LBB47_499
Ltmp1727:
LBB47_166:
	.loc	31 0 0 is_stmt 0
	movl	-68(%rbp), %ebx
Ltmp1728:
	movl	-64(%rbp), %esi
Ltmp1729:
	jmp	LBB47_516
Ltmp1730:
LBB47_167:
	jmp	LBB47_516
Ltmp1731:
LBB47_168:
	.loc	31 376 18 is_stmt 1
	movups	(%r13), %xmm0
Ltmp1732:
	.loc	31 0 18 is_stmt 0
	movaps	%xmm0, -208(%rbp)
Ltmp1733:
	.loc	31 319 11 is_stmt 1
	movl	$1, %esi
	movl	$2, %edx
Ltmp1734:
	movq	%r13, %rdi
	xorl	%ecx, %ecx
	callq	__ZN4time5parse16match_digits_i6417h53cc8d41fc9e7a1bE
	.loc	31 320 9
	testq	%rax, %rax
Ltmp1735:
	.loc	31 378 9
	je	LBB47_288
Ltmp1736:
	cmpl	$60, %edx
	jae	LBB47_288
Ltmp1737:
	.loc	31 158 30
	movl	%edx, 4(%r14)
	jmp	LBB47_723
Ltmp1738:
LBB47_171:
	.loc	31 376 18
	movups	(%r13), %xmm0
Ltmp1739:
	.loc	31 0 18 is_stmt 0
	movaps	%xmm0, -208(%rbp)
Ltmp1740:
	.loc	31 319 11 is_stmt 1
	movl	$1, %esi
	movl	$2, %edx
Ltmp1741:
	movq	%r13, %rdi
	xorl	%ecx, %ecx
	jmp	LBB47_204
Ltmp1742:
LBB47_172:
	.loc	31 301 8
	movq	(%r13), %r9
	movq	8(%r13), %r8
Ltmp1743:
	.loc	24 1436 9
	cmpq	$3, %r8
Ltmp1744:
	jae	LBB47_289
Ltmp1745:
LBB47_173:
	.loc	32 164 18
	leaq	(%r9,%r8), %r10
	xorl	%edx, %edx
Ltmp1746:
	.loc	31 254 32
	movq	%r9, %rdi
Ltmp1747:
	.p2align	4, 0x90
LBB47_174:
	.loc	24 3440 9
	cmpq	%rdi, %r10
	.loc	24 3570 21
	je	LBB47_191
Ltmp1748:
	.loc	23 165 18
	leaq	1(%rdi), %rbx
Ltmp1749:
	.loc	16 519 13
	movzbl	(%rdi), %eax
Ltmp1750:
	.loc	16 520 8
	testb	%al, %al
Ltmp1751:
	.loc	16 520 5 is_stmt 0
	jns	LBB47_189
Ltmp1752:
	.loc	24 3440 9 is_stmt 1
	cmpq	%r10, %rbx
Ltmp1753:
	.loc	24 3570 21
	je	LBB47_182
Ltmp1754:
	.loc	23 165 18
	leaq	2(%rdi), %rbx
Ltmp1755:
	.loc	16 508 15
	movzbl	1(%rdi), %ecx
	.loc	16 507 5
	andl	$63, %ecx
	movq	%rbx, %r11
	movl	%eax, %esi
	andl	$31, %esi
Ltmp1756:
	.loc	16 530 8
	cmpb	$-33, %al
	.loc	16 530 5 is_stmt 0
	jbe	LBB47_183
Ltmp1757:
LBB47_178:
	.loc	24 3440 9 is_stmt 1
	cmpq	%r10, %r11
	.loc	24 3570 21
	je	LBB47_184
Ltmp1758:
	.loc	16 508 15
	movzbl	(%r11), %r14d
Ltmp1759:
	.loc	23 165 18
	incq	%r11
Ltmp1760:
	.loc	16 507 5
	andl	$63, %r14d
Ltmp1761:
	.loc	16 0 0 is_stmt 0
	movq	%r11, %rbx
Ltmp1762:
	.loc	16 495 5 is_stmt 1
	shll	$6, %ecx
Ltmp1763:
	orl	%r14d, %ecx
Ltmp1764:
	.loc	16 536 12
	cmpb	$-16, %al
	.loc	16 536 9 is_stmt 0
	jb	LBB47_185
Ltmp1765:
LBB47_180:
	.loc	24 3440 9 is_stmt 1
	cmpq	%r10, %r11
	.loc	24 3570 21
	je	LBB47_187
Ltmp1766:
	.loc	16 508 15
	movzbl	(%r11), %eax
Ltmp1767:
	.loc	23 165 18
	incq	%r11
Ltmp1768:
	.loc	16 507 5
	andl	$63, %eax
Ltmp1769:
	.loc	16 0 0 is_stmt 0
	movq	%r11, %rbx
Ltmp1770:
	jmp	LBB47_188
Ltmp1771:
LBB47_182:
	xorl	%ecx, %ecx
	movq	%r10, %r11
	movl	%eax, %esi
	andl	$31, %esi
Ltmp1772:
	.loc	16 530 8 is_stmt 1
	cmpb	$-33, %al
	.loc	16 530 5 is_stmt 0
	ja	LBB47_178
Ltmp1773:
LBB47_183:
	.loc	16 0 5
	shll	$6, %esi
Ltmp1774:
	jmp	LBB47_186
Ltmp1775:
LBB47_184:
	xorl	%r14d, %r14d
	movq	%r10, %r11
Ltmp1776:
	.loc	16 495 5 is_stmt 1
	shll	$6, %ecx
Ltmp1777:
	orl	%r14d, %ecx
Ltmp1778:
	.loc	16 536 12
	cmpb	$-16, %al
	.loc	16 536 9 is_stmt 0
	jae	LBB47_180
Ltmp1779:
LBB47_185:
	.loc	16 0 9
	shll	$12, %esi
Ltmp1780:
LBB47_186:
	orl	%esi, %ecx
Ltmp1781:
	movl	%ecx, %eax
Ltmp1782:
	jmp	LBB47_189
Ltmp1783:
LBB47_187:
	xorl	%eax, %eax
Ltmp1784:
LBB47_188:
	.loc	16 540 18 is_stmt 1
	andl	$7, %esi
Ltmp1785:
	shll	$18, %esi
Ltmp1786:
	.loc	16 495 5
	shll	$6, %ecx
Ltmp1787:
	orl	%esi, %ecx
Ltmp1788:
	.loc	16 540 13
	orl	%eax, %ecx
Ltmp1789:
	.loc	16 0 13 is_stmt 0
	movl	%ecx, %eax
Ltmp1790:
	.loc	16 690 13 is_stmt 1
	cmpl	$1114112, %ecx
Ltmp1791:
	je	LBB47_191
Ltmp1792:
	.p2align	4, 0x90
LBB47_189:
	.loc	31 254 21
	cmpl	$32, %eax
	je	LBB47_305
Ltmp1793:
	.loc	31 0 0 is_stmt 0
	subq	%rdi, %rdx
Ltmp1794:
	addq	%rbx, %rdx
Ltmp1795:
	.loc	31 254 32
	movq	%rbx, %rdi
Ltmp1796:
	.loc	31 254 21
	cmpl	$1114112, %eax
	jne	LBB47_174
Ltmp1797:
LBB47_191:
	.loc	31 260 17 is_stmt 1
	leaq	l___unnamed_64(%rip), %rax
	movq	%rax, (%r13)
	movq	$0, 8(%r13)
	jmp	LBB47_723
Ltmp1798:
LBB47_192:
	.loc	31 0 17 is_stmt 0
	leaq	-72(%rbp), %r12
	.loc	31 90 13 is_stmt 1
	movq	%r12, %rdi
	movq	%r13, %rsi
	movl	$97, %edx
Ltmp1799:
	movq	%r14, %rcx
	callq	__ZN4time5parse10parse_type17h7bb98a5de264be65E
Ltmp1800:
	.loc	22 729 13
	movl	-72(%rbp), %eax
	cmpl	$15, %eax
	jne	LBB47_296
Ltmp1801:
	.loc	31 384 11
	movq	8(%r13), %rcx
Ltmp1802:
	.loc	31 0 11 is_stmt 0
	movl	$10, %eax
Ltmp1803:
	.loc	24 3440 9 is_stmt 1
	testq	%rcx, %rcx
	.loc	24 3570 21
	je	LBB47_304
Ltmp1804:
	.loc	31 0 0 is_stmt 0
	movq	(%r13), %rdx
Ltmp1805:
	.loc	16 519 13 is_stmt 1
	movzbl	(%rdx), %esi
Ltmp1806:
	.loc	16 520 8
	testb	%sil, %sil
	.loc	16 520 5 is_stmt 0
	jns	LBB47_526
Ltmp1807:
	.loc	31 0 0
	leaq	(%rdx,%rcx), %r8
Ltmp1808:
	xorl	%edi, %edi
Ltmp1809:
	movq	%r8, %r9
Ltmp1810:
	.loc	24 3440 9 is_stmt 1
	cmpq	$1, %rcx
Ltmp1811:
	.loc	24 3570 21
	je	LBB47_197
Ltmp1812:
	.loc	23 165 18
	leaq	2(%rdx), %r9
Ltmp1813:
	.loc	16 508 15
	movzbl	1(%rdx), %edi
	.loc	16 507 5
	andl	$63, %edi
Ltmp1814:
LBB47_197:
	.loc	16 0 5 is_stmt 0
	movl	%esi, %ebx
	andl	$31, %ebx
Ltmp1815:
	.loc	16 530 8 is_stmt 1
	cmpb	$-33, %sil
	.loc	16 530 5 is_stmt 0
	jbe	LBB47_325
Ltmp1816:
	.loc	24 3440 9 is_stmt 1
	cmpq	%r8, %r9
	.loc	24 3570 21
	je	LBB47_520
Ltmp1817:
	.loc	16 508 15
	movzbl	(%r9), %r10d
Ltmp1818:
	.loc	23 165 18
	incq	%r9
Ltmp1819:
	.loc	16 507 5
	andl	$63, %r10d
	jmp	LBB47_521
Ltmp1820:
LBB47_200:
	.loc	31 376 18
	movups	(%r13), %xmm0
Ltmp1821:
	.loc	31 0 18 is_stmt 0
	movaps	%xmm0, -208(%rbp)
Ltmp1822:
	.loc	31 319 11 is_stmt 1
	movl	$1, %esi
	movl	$2, %edx
Ltmp1823:
	movq	%r13, %rdi
	xorl	%ecx, %ecx
	callq	__ZN4time5parse16match_digits_i6417h53cc8d41fc9e7a1bE
	.loc	31 320 9
	testq	%rax, %rax
Ltmp1824:
	.loc	31 378 9
	je	LBB47_297
Ltmp1825:
	.loc	31 0 0 is_stmt 0
	decl	%edx
	.loc	31 378 9
	cmpl	$12, %edx
	jae	LBB47_297
Ltmp1826:
	.loc	31 164 30 is_stmt 1
	movl	%edx, 16(%r14)
	jmp	LBB47_723
Ltmp1827:
LBB47_203:
	.loc	31 376 18
	movups	(%r13), %xmm0
Ltmp1828:
	.loc	31 0 18 is_stmt 0
	movaps	%xmm0, -208(%rbp)
Ltmp1829:
	.loc	31 319 11 is_stmt 1
	movl	$1, %esi
	movl	$2, %edx
Ltmp1830:
	movq	%r13, %rdi
	movl	$1, %ecx
Ltmp1831:
LBB47_204:
	.loc	31 0 0 is_stmt 0
	callq	__ZN4time5parse16match_digits_i6417h53cc8d41fc9e7a1bE
	testq	%rax, %rax
	je	LBB47_207
Ltmp1832:
	leal	-1(%rdx), %eax
	cmpl	$12, %eax
	jae	LBB47_207
Ltmp1833:
	xorl	%eax, %eax
Ltmp1834:
	cmpl	$12, %edx
	cmovnel	%edx, %eax
	movl	%eax, 8(%r14)
	jmp	LBB47_723
Ltmp1835:
LBB47_207:
	movaps	-208(%rbp), %xmm0
	movups	%xmm0, (%r13)
	movl	$2, (%r15)
	jmp	LBB47_724
Ltmp1836:
LBB47_208:
	.loc	31 376 18 is_stmt 1
	movups	(%r13), %xmm0
Ltmp1837:
	.loc	31 0 18 is_stmt 0
	movaps	%xmm0, -208(%rbp)
Ltmp1838:
	.loc	31 319 11 is_stmt 1
	movl	$1, %esi
	movl	$1, %edx
Ltmp1839:
	movq	%r13, %rdi
	xorl	%ecx, %ecx
	callq	__ZN4time5parse16match_digits_i6417h53cc8d41fc9e7a1bE
	.loc	31 320 9
	testq	%rax, %rax
Ltmp1840:
	.loc	31 378 9
	je	LBB47_211
Ltmp1841:
	cmpl	$7, %edx
	jae	LBB47_211
Ltmp1842:
	.loc	31 231 30
	movl	%edx, 24(%r14)
	jmp	LBB47_723
Ltmp1843:
LBB47_211:
	.loc	31 0 30 is_stmt 0
	movaps	-208(%rbp), %xmm0
	movups	%xmm0, (%r13)
	movl	$6, (%r15)
	jmp	LBB47_724
Ltmp1844:
LBB47_212:
	.loc	31 384 11 is_stmt 1
	movq	8(%r13), %rax
Ltmp1845:
	.loc	24 3440 9
	testq	%rax, %rax
	.loc	24 3570 21
	je	LBB47_424
Ltmp1846:
	.loc	31 0 0 is_stmt 0
	movq	(%r13), %rcx
Ltmp1847:
	.loc	16 519 13 is_stmt 1
	movzbl	(%rcx), %esi
Ltmp1848:
	.loc	16 520 8
	testb	%sil, %sil
	.loc	16 520 5 is_stmt 0
	jns	LBB47_394
Ltmp1849:
	.loc	31 0 0
	leaq	(%rcx,%rax), %r8
Ltmp1850:
	xorl	%edx, %edx
Ltmp1851:
	movq	%r8, %rbx
Ltmp1852:
	.loc	24 3440 9 is_stmt 1
	cmpq	$1, %rax
Ltmp1853:
	.loc	24 3570 21
	je	LBB47_216
Ltmp1854:
	.loc	23 165 18
	leaq	2(%rcx), %rbx
Ltmp1855:
	.loc	16 508 15
	movzbl	1(%rcx), %edx
	.loc	16 507 5
	andl	$63, %edx
Ltmp1856:
LBB47_216:
	.loc	16 0 5 is_stmt 0
	movl	%esi, %edi
	andl	$31, %edi
Ltmp1857:
	.loc	16 530 8 is_stmt 1
	cmpb	$-33, %sil
	.loc	16 530 5 is_stmt 0
	jbe	LBB47_315
Ltmp1858:
	.loc	24 3440 9 is_stmt 1
	cmpq	%r8, %rbx
	.loc	24 3570 21
	je	LBB47_388
Ltmp1859:
	.loc	16 508 15
	movzbl	(%rbx), %r9d
Ltmp1860:
	.loc	23 165 18
	incq	%rbx
Ltmp1861:
	.loc	16 507 5
	andl	$63, %r9d
	jmp	LBB47_389
Ltmp1862:
LBB47_219:
	.loc	31 295 15
	movl	$13, (%r15)
	movl	%edx, 4(%r15)
	jmp	LBB47_724
Ltmp1863:
LBB47_228:
	.loc	31 0 0 is_stmt 0
	movq	(%r13), %rcx
Ltmp1864:
	leaq	l___unnamed_145(%rip), %rdx
Ltmp1865:
	.loc	32 331 9 is_stmt 1
	leaq	l___unnamed_48(%rip), %rsi
Ltmp1866:
	cmpq	%rsi, %rcx
Ltmp1867:
	.loc	24 6271 9
	je	LBB47_232
Ltmp1868:
	.loc	24 6276 13
	movzwl	(%rcx), %esi
Ltmp1869:
	cmpl	$19777, %esi
Ltmp1870:
	.loc	24 1436 9
	je	LBB47_232
Ltmp1871:
	.loc	24 0 9 is_stmt 0
	leaq	l___unnamed_145+24(%rip), %rdx
Ltmp1872:
	.loc	32 331 9 is_stmt 1
	leaq	l___unnamed_49(%rip), %rsi
Ltmp1873:
	cmpq	%rsi, %rcx
Ltmp1874:
	.loc	24 6271 9
	je	LBB47_232
Ltmp1875:
	.loc	24 6276 13
	movzwl	(%rcx), %esi
Ltmp1876:
	cmpl	$19792, %esi
Ltmp1877:
	.loc	24 1436 9
	jne	LBB47_88
Ltmp1878:
LBB47_232:
	.loc	31 310 19
	movl	16(%rdx), %edx
Ltmp1879:
	.loc	31 0 19 is_stmt 0
	movq	%rcx, -192(%rbp)
	movq	%rax, -184(%rbp)
Ltmp1880:
	.loc	16 2070 18 is_stmt 1
	movq	$2, -56(%rbp)
	.loc	16 2070 25 is_stmt 0
	movq	%rax, -72(%rbp)
Ltmp1881:
	.loc	16 2326 26 is_stmt 1
	cmpq	$2, %rax
	.loc	16 2326 12 is_stmt 0
	je	LBB47_234
Ltmp1882:
	.loc	16 2332 25 is_stmt 1
	cmpb	$-65, 2(%rcx)
Ltmp1883:
	.loc	16 2033 13
	jle	LBB47_773
Ltmp1884:
LBB47_234:
	.loc	32 164 18
	addq	$2, %rcx
Ltmp1885:
	.loc	16 2057 23
	addq	$-2, %rax
Ltmp1886:
	.loc	31 302 9
	movq	%rcx, (%r13)
	movq	%rax, 8(%r13)
Ltmp1887:
	.loc	31 174 26
	addl	8(%r14), %edx
Ltmp1888:
	jo	LBB47_780
Ltmp1889:
LBB47_235:
	.loc	31 0 0 is_stmt 0
	movl	%edx, 8(%r14)
	jmp	LBB47_723
Ltmp1890:
LBB47_236:
	movaps	-208(%rbp), %xmm0
Ltmp1891:
	.loc	31 379 16 is_stmt 1
	movups	%xmm0, (%r13)
Ltmp1892:
	.loc	31 203 25
	movl	$0, (%r15)
	jmp	LBB47_724
Ltmp1893:
LBB47_237:
	.loc	31 0 25 is_stmt 0
	movaps	-208(%rbp), %xmm0
Ltmp1894:
	.loc	31 379 16 is_stmt 1
	movups	%xmm0, (%r13)
Ltmp1895:
	.loc	31 141 25
	movl	$8, (%r15)
	jmp	LBB47_724
Ltmp1896:
LBB47_238:
	.loc	22 730 27
	movl	-68(%rbp), %ebx
Ltmp1897:
	movl	-64(%rbp), %esi
Ltmp1898:
LBB47_239:
	.loc	22 730 23 is_stmt 0
	movl	%edx, (%r15)
	jmp	LBB47_519
Ltmp1899:
LBB47_240:
	.loc	22 0 23
	movl	$7, %edx
Ltmp1900:
	leaq	l___unnamed_146(%rip), %rsi
Ltmp1901:
	.loc	32 331 9 is_stmt 1
	leaq	l___unnamed_57(%rip), %rdi
Ltmp1902:
	cmpq	%rdi, %rax
Ltmp1903:
	.loc	24 6271 9
	je	LBB47_414
Ltmp1904:
	.loc	24 0 9 is_stmt 0
	movl	$1970168138, %edi
Ltmp1905:
	.loc	24 6276 13 is_stmt 1
	xorl	(%rax), %edi
	movl	$2037539189, %ebx
	xorl	3(%rax), %ebx
	orl	%edi, %ebx
Ltmp1906:
	.loc	24 1436 9
	je	LBB47_414
Ltmp1907:
	cmpq	$8, %rcx
	setb	%r8b
Ltmp1908:
	jb	LBB47_245
Ltmp1909:
	.loc	24 0 9 is_stmt 0
	movl	$8, %edx
	leaq	l___unnamed_146+24(%rip), %rsi
Ltmp1910:
	.loc	32 331 9 is_stmt 1
	leaq	L___unnamed_58(%rip), %rdi
Ltmp1911:
	cmpq	%rdi, %rax
Ltmp1912:
	.loc	24 6271 9
	je	LBB47_414
Ltmp1913:
	.loc	24 0 9 is_stmt 0
	movabsq	$8751164182992414022, %rdi
Ltmp1914:
	.loc	24 6276 13 is_stmt 1
	cmpq	%rdi, (%rax)
Ltmp1915:
	.loc	24 1436 9
	je	LBB47_414
Ltmp1916:
LBB47_245:
	.loc	24 0 9 is_stmt 0
	movl	$5, %edx
	leaq	l___unnamed_146+48(%rip), %rsi
Ltmp1917:
	.loc	32 331 9 is_stmt 1
	leaq	l___unnamed_88(%rip), %rdi
Ltmp1918:
	cmpq	%rdi, %rax
Ltmp1919:
	.loc	24 6271 9
	je	LBB47_414
Ltmp1920:
	.loc	24 0 9 is_stmt 0
	movl	$1668440397, %edi
Ltmp1921:
	.loc	24 6276 13 is_stmt 1
	xorl	(%rax), %edi
	movzbl	4(%rax), %ebx
	xorl	$104, %ebx
	orl	%edi, %ebx
Ltmp1922:
	.loc	24 1436 9
	je	LBB47_414
Ltmp1923:
	.loc	24 0 9 is_stmt 0
	leaq	l___unnamed_146+72(%rip), %rsi
Ltmp1924:
	.loc	32 331 9 is_stmt 1
	leaq	l___unnamed_89(%rip), %rdi
Ltmp1925:
	cmpq	%rdi, %rax
Ltmp1926:
	.loc	24 6271 9
	je	LBB47_414
Ltmp1927:
	.loc	24 0 9 is_stmt 0
	movl	$1769107521, %edi
Ltmp1928:
	.loc	24 6276 13 is_stmt 1
	xorl	(%rax), %edi
	movzbl	4(%rax), %ebx
	xorl	$108, %ebx
	orl	%edi, %ebx
Ltmp1929:
	.loc	24 1436 9
	je	LBB47_414
Ltmp1930:
LBB47_249:
	.loc	24 0 9 is_stmt 0
	movl	$3, %edx
	leaq	l___unnamed_146+96(%rip), %rsi
Ltmp1931:
	.loc	32 331 9 is_stmt 1
	leaq	l___unnamed_66(%rip), %rdi
Ltmp1932:
	cmpq	%rdi, %rax
Ltmp1933:
	.loc	24 6271 9
	je	LBB47_414
Ltmp1934:
	.loc	24 6276 13
	movzwl	(%rax), %edi
Ltmp1935:
	xorl	$24909, %edi
	movzbl	2(%rax), %ebx
	xorl	$121, %ebx
	orw	%di, %bx
Ltmp1936:
	.loc	24 1436 9
	je	LBB47_414
Ltmp1937:
	cmpq	$4, %rcx
Ltmp1938:
	jae	LBB47_404
Ltmp1939:
LBB47_252:
	cmpq	$7, %rcx
Ltmp1940:
	jb	LBB47_255
Ltmp1941:
	.loc	24 0 9 is_stmt 0
	movl	$7, %edx
	leaq	l___unnamed_146+216(%rip), %rsi
Ltmp1942:
	.loc	32 331 9 is_stmt 1
	leaq	l___unnamed_87(%rip), %rdi
Ltmp1943:
	cmpq	%rdi, %rax
Ltmp1944:
	.loc	24 6271 9
	je	LBB47_414
Ltmp1945:
	.loc	24 0 9 is_stmt 0
	movl	$1869898575, %edi
Ltmp1946:
	.loc	24 6276 13 is_stmt 1
	xorl	(%rax), %edi
	movl	$1919246959, %ebx
	xorl	3(%rax), %ebx
	orl	%edi, %ebx
Ltmp1947:
	.loc	24 1436 9
	je	LBB47_414
Ltmp1948:
LBB47_255:
	testb	%r8b, %r8b
Ltmp1949:
	jne	LBB47_111
Ltmp1950:
	.loc	24 0 9 is_stmt 0
	movl	$8, %edx
	leaq	l___unnamed_146+240(%rip), %rsi
Ltmp1951:
	.loc	32 331 9 is_stmt 1
	leaq	L___unnamed_94(%rip), %rdi
Ltmp1952:
	cmpq	%rdi, %rax
Ltmp1953:
	.loc	24 6271 9
	je	LBB47_414
Ltmp1954:
	.loc	24 0 9 is_stmt 0
	movabsq	$8243102914963531076, %rdi
Ltmp1955:
	.loc	24 6276 13 is_stmt 1
	leaq	1247754(%rdi), %rbx
	cmpq	(%rax), %rbx
Ltmp1956:
	.loc	24 1436 9
	je	LBB47_414
Ltmp1957:
	.loc	24 0 9 is_stmt 0
	leaq	l___unnamed_146+264(%rip), %rsi
Ltmp1958:
	.loc	32 331 9 is_stmt 1
	leaq	L___unnamed_86(%rip), %rbx
Ltmp1959:
	cmpq	%rbx, %rax
Ltmp1960:
	.loc	24 6271 9
	je	LBB47_414
Ltmp1961:
	.loc	24 6276 13
	cmpq	(%rax), %rdi
Ltmp1962:
	.loc	24 1436 9
	jne	LBB47_111
	jmp	LBB47_414
Ltmp1963:
LBB47_260:
	.loc	22 730 27
	movl	-68(%rbp), %ebx
Ltmp1964:
	movl	-64(%rbp), %esi
Ltmp1965:
	.loc	22 0 27 is_stmt 0
	jmp	LBB47_454
Ltmp1966:
LBB47_271:
	movq	(%r13), %rcx
Ltmp1967:
	leaq	l___unnamed_147(%rip), %rdx
Ltmp1968:
	.loc	32 331 9 is_stmt 1
	leaq	l___unnamed_46(%rip), %rsi
Ltmp1969:
	cmpq	%rsi, %rcx
Ltmp1970:
	.loc	24 6271 9
	je	LBB47_285
Ltmp1971:
	.loc	24 6276 13
	movzwl	(%rcx), %esi
Ltmp1972:
	xorl	$30035, %esi
	movzbl	2(%rcx), %edi
	xorl	$110, %edi
	orw	%si, %di
Ltmp1973:
	.loc	24 1436 9
	je	LBB47_285
Ltmp1974:
	.loc	24 0 9 is_stmt 0
	leaq	l___unnamed_147+24(%rip), %rdx
Ltmp1975:
	.loc	32 331 9 is_stmt 1
	leaq	l___unnamed_47(%rip), %rsi
Ltmp1976:
	cmpq	%rsi, %rcx
Ltmp1977:
	.loc	24 6271 9
	je	LBB47_285
Ltmp1978:
	.loc	24 6276 13
	movzwl	(%rcx), %esi
Ltmp1979:
	xorl	$28493, %esi
	movzbl	2(%rcx), %edi
	xorl	$110, %edi
	orw	%si, %di
Ltmp1980:
	.loc	24 1436 9
	je	LBB47_285
Ltmp1981:
	.loc	24 0 9 is_stmt 0
	leaq	l___unnamed_147+48(%rip), %rdx
Ltmp1982:
	.loc	32 331 9 is_stmt 1
	leaq	l___unnamed_77(%rip), %rsi
Ltmp1983:
	cmpq	%rsi, %rcx
Ltmp1984:
	.loc	24 6271 9
	je	LBB47_285
Ltmp1985:
	.loc	24 6276 13
	movzwl	(%rcx), %esi
Ltmp1986:
	xorl	$30036, %esi
	movzbl	2(%rcx), %edi
	xorl	$101, %edi
	orw	%si, %di
Ltmp1987:
	.loc	24 1436 9
	je	LBB47_285
Ltmp1988:
	.loc	24 0 9 is_stmt 0
	leaq	l___unnamed_147+72(%rip), %rdx
Ltmp1989:
	.loc	32 331 9 is_stmt 1
	leaq	l___unnamed_78(%rip), %rsi
Ltmp1990:
	cmpq	%rsi, %rcx
Ltmp1991:
	.loc	24 6271 9
	je	LBB47_285
Ltmp1992:
	.loc	24 6276 13
	movzwl	(%rcx), %esi
Ltmp1993:
	xorl	$25943, %esi
	movzbl	2(%rcx), %edi
	xorl	$100, %edi
	orw	%si, %di
Ltmp1994:
	.loc	24 1436 9
	je	LBB47_285
Ltmp1995:
	.loc	24 0 9 is_stmt 0
	leaq	l___unnamed_147+96(%rip), %rdx
Ltmp1996:
	.loc	32 331 9 is_stmt 1
	leaq	l___unnamed_76(%rip), %rsi
Ltmp1997:
	cmpq	%rsi, %rcx
Ltmp1998:
	.loc	24 6271 9
	je	LBB47_285
Ltmp1999:
	.loc	24 6276 13
	movzwl	(%rcx), %esi
Ltmp2000:
	xorl	$26708, %esi
	movzbl	2(%rcx), %edi
	xorl	$117, %edi
	orw	%si, %di
Ltmp2001:
	.loc	24 1436 9
	je	LBB47_285
Ltmp2002:
	.loc	24 0 9 is_stmt 0
	leaq	l___unnamed_147+120(%rip), %rdx
Ltmp2003:
	.loc	32 331 9 is_stmt 1
	leaq	l___unnamed_79(%rip), %rsi
Ltmp2004:
	cmpq	%rsi, %rcx
Ltmp2005:
	.loc	24 6271 9
	je	LBB47_285
Ltmp2006:
	.loc	24 6276 13
	movzwl	(%rcx), %esi
Ltmp2007:
	xorl	$29254, %esi
	movzbl	2(%rcx), %edi
	xorl	$105, %edi
	orw	%si, %di
Ltmp2008:
	.loc	24 1436 9
	je	LBB47_285
Ltmp2009:
	.loc	24 0 9 is_stmt 0
	leaq	l___unnamed_147+144(%rip), %rdx
Ltmp2010:
	.loc	32 331 9 is_stmt 1
	leaq	l___unnamed_80(%rip), %rsi
Ltmp2011:
	cmpq	%rsi, %rcx
Ltmp2012:
	.loc	24 6271 9
	je	LBB47_285
Ltmp2013:
	.loc	24 6276 13
	movzwl	(%rcx), %esi
Ltmp2014:
	xorl	$24915, %esi
	movzbl	2(%rcx), %edi
	xorl	$116, %edi
	orw	%si, %di
Ltmp2015:
	.loc	24 1436 9
	jne	LBB47_138
Ltmp2016:
LBB47_285:
	.loc	31 310 19
	movl	16(%rdx), %edx
Ltmp2017:
	.loc	31 0 19 is_stmt 0
	movq	%rcx, -192(%rbp)
	movq	%rax, -184(%rbp)
Ltmp2018:
	.loc	16 2070 18 is_stmt 1
	movq	$3, -56(%rbp)
	.loc	16 2070 25 is_stmt 0
	movq	%rax, -72(%rbp)
Ltmp2019:
	.loc	16 2326 26 is_stmt 1
	cmpq	$3, %rax
	.loc	16 2326 12 is_stmt 0
	je	LBB47_287
Ltmp2020:
	.loc	16 2332 25 is_stmt 1
	cmpb	$-65, 3(%rcx)
Ltmp2021:
	.loc	16 2033 13
	jle	LBB47_773
Ltmp2022:
LBB47_287:
	.loc	32 164 18
	addq	$3, %rcx
Ltmp2023:
	.loc	16 2057 23
	addq	$-3, %rax
Ltmp2024:
	.loc	31 302 9
	movq	%rcx, (%r13)
	movq	%rax, 8(%r13)
Ltmp2025:
	.loc	31 52 26
	movl	%edx, 24(%r14)
	jmp	LBB47_723
Ltmp2026:
LBB47_288:
	.loc	31 0 26 is_stmt 0
	movaps	-208(%rbp), %xmm0
Ltmp2027:
	.loc	31 379 16 is_stmt 1
	movups	%xmm0, (%r13)
Ltmp2028:
	.loc	31 159 25
	movl	$1, (%r15)
	jmp	LBB47_724
Ltmp2029:
LBB47_289:
	.loc	32 331 9
	leaq	l___unnamed_63(%rip), %rax
Ltmp2030:
	cmpq	%rax, %r9
Ltmp2031:
	.loc	24 6271 9
	je	LBB47_293
Ltmp2032:
	.loc	24 6276 13
	movzwl	(%r9), %eax
Ltmp2033:
	xorl	$21589, %eax
	movzbl	2(%r9), %ecx
	xorl	$67, %ecx
	orw	%ax, %cx
Ltmp2034:
	.loc	24 1436 9
	je	LBB47_293
Ltmp2035:
	.loc	32 331 9
	leaq	l___unnamed_148(%rip), %rax
Ltmp2036:
	cmpq	%rax, %r9
Ltmp2037:
	.loc	24 6271 9
	je	LBB47_293
Ltmp2038:
	.loc	24 6276 13
	movzwl	(%r9), %eax
Ltmp2039:
	xorl	$19783, %eax
	movzbl	2(%r9), %ecx
	xorl	$84, %ecx
	orw	%ax, %cx
Ltmp2040:
	.loc	24 1436 9
	jne	LBB47_173
Ltmp2041:
LBB47_293:
	.loc	24 0 9 is_stmt 0
	movq	%r9, -192(%rbp)
	movq	%r8, -184(%rbp)
Ltmp2042:
	movq	$3, -56(%rbp)
	movq	%r8, -72(%rbp)
Ltmp2043:
	cmpq	$3, %r8
	je	LBB47_295
Ltmp2044:
	cmpb	$-65, 3(%r9)
	jle	LBB47_773
Ltmp2045:
LBB47_295:
	addq	$3, %r9
Ltmp2046:
	movq	%r9, (%r13)
	addq	$-3, %r8
Ltmp2047:
	movq	%r8, 8(%r13)
	movl	$0, 36(%r14)
	jmp	LBB47_723
Ltmp2048:
LBB47_296:
	.loc	22 730 27 is_stmt 1
	movl	-68(%rbp), %ebx
Ltmp2049:
	movl	-64(%rbp), %esi
Ltmp2050:
	.loc	22 0 27 is_stmt 0
	jmp	LBB47_538
Ltmp2051:
LBB47_297:
	movaps	-208(%rbp), %xmm0
Ltmp2052:
	.loc	31 379 16 is_stmt 1
	movups	%xmm0, (%r13)
Ltmp2053:
	.loc	31 165 25
	movl	$4, (%r15)
	jmp	LBB47_724
Ltmp2054:
LBB47_298:
	.loc	31 0 25 is_stmt 0
	xorl	%r12d, %r12d
Ltmp2055:
	.loc	31 116 13 is_stmt 1
	movl	%r12d, 40(%r14)
	jmp	LBB47_723
Ltmp2056:
LBB47_299:
	.loc	31 197 25
	movl	$11, (%r15)
	jmp	LBB47_724
Ltmp2057:
LBB47_300:
	.loc	31 238 25
	movl	$5, (%r15)
	jmp	LBB47_724
Ltmp2058:
LBB47_316:
	.loc	31 310 11
	movl	$6, %edx
Ltmp2059:
LBB47_317:
	.loc	31 310 19 is_stmt 0
	movl	16(%rsi), %esi
Ltmp2060:
	.loc	31 0 19
	movq	%rcx, -192(%rbp)
	movq	%rax, -184(%rbp)
Ltmp2061:
	.loc	16 2070 18 is_stmt 1
	movq	%rdx, -56(%rbp)
	.loc	16 2070 25 is_stmt 0
	movq	%rax, -72(%rbp)
Ltmp2062:
	.loc	16 2326 26 is_stmt 1
	subq	%rdx, %rax
Ltmp2063:
	.loc	16 2326 12 is_stmt 0
	je	LBB47_320
Ltmp2064:
	.loc	16 2330 13 is_stmt 1
	jbe	LBB47_773
Ltmp2065:
	.loc	16 2332 25
	cmpb	$-65, (%rcx,%rdx)
Ltmp2066:
	.loc	16 2033 13
	jle	LBB47_773
Ltmp2067:
LBB47_320:
	.loc	32 164 18
	addq	%rdx, %rcx
Ltmp2068:
	.loc	31 302 9
	movq	%rcx, (%r13)
	movq	%rax, 8(%r13)
Ltmp2069:
	.loc	31 42 26
	movl	%esi, 24(%r14)
	jmp	LBB47_723
Ltmp2070:
LBB47_301:
	.loc	22 730 23
	movl	%edx, (%r15)
	jmp	LBB47_519
Ltmp2071:
LBB47_302:
	.loc	22 0 23 is_stmt 0
	jmp	LBB47_454
Ltmp2072:
LBB47_304:
	jmp	LBB47_538
Ltmp2073:
LBB47_305:
	movq	%r9, -192(%rbp)
	movq	%r8, -184(%rbp)
Ltmp2074:
	.loc	16 2070 18 is_stmt 1
	movq	%rdx, -56(%rbp)
	.loc	16 2070 25 is_stmt 0
	movq	%r8, -72(%rbp)
Ltmp2075:
	.loc	16 2326 12 is_stmt 1
	testq	%rdx, %rdx
Ltmp2076:
	je	LBB47_309
Ltmp2077:
	cmpq	%rdx, %r8
	je	LBB47_309
Ltmp2078:
	.loc	16 2330 13
	jbe	LBB47_773
Ltmp2079:
	.loc	16 2332 25
	cmpb	$-65, (%r9,%rdx)
Ltmp2080:
	.loc	16 2033 13
	jle	LBB47_773
Ltmp2081:
LBB47_309:
	.loc	32 164 18
	addq	%rdx, %r9
Ltmp2082:
	.loc	16 2057 23
	subq	%rdx, %r8
Ltmp2083:
	.loc	31 256 25
	movq	%r9, (%r13)
	movq	%r8, 8(%r13)
	jmp	LBB47_723
Ltmp2084:
LBB47_310:
	.loc	31 0 25 is_stmt 0
	shll	$6, %ebx
Ltmp2085:
	jmp	LBB47_331
Ltmp2086:
LBB47_311:
	shll	$6, %ebx
Ltmp2087:
	jmp	LBB47_349
Ltmp2088:
LBB47_312:
	shll	$6, %edi
Ltmp2089:
	jmp	LBB47_367
Ltmp2090:
LBB47_313:
	shll	$6, %edi
Ltmp2091:
	jmp	LBB47_375
Ltmp2092:
LBB47_314:
	shll	$6, %edx
Ltmp2093:
	jmp	LBB47_383
Ltmp2094:
LBB47_315:
	shll	$6, %edi
Ltmp2095:
	jmp	LBB47_393
Ltmp2096:
LBB47_321:
	shll	$6, %ebx
Ltmp2097:
	jmp	LBB47_430
Ltmp2098:
LBB47_322:
	shll	$6, %ebx
Ltmp2099:
	jmp	LBB47_441
Ltmp2100:
LBB47_323:
	shll	$6, %ebx
Ltmp2101:
	jmp	LBB47_486
Ltmp2102:
LBB47_324:
	shll	$6, %ebx
Ltmp2103:
	jmp	LBB47_503
Ltmp2104:
LBB47_325:
	shll	$6, %ebx
Ltmp2105:
	jmp	LBB47_525
Ltmp2106:
LBB47_326:
	xorl	%r10d, %r10d
	movq	%r8, %r9
Ltmp2107:
LBB47_327:
	.loc	16 495 5 is_stmt 1
	shll	$6, %edi
Ltmp2108:
	orl	%r10d, %edi
Ltmp2109:
	.loc	16 536 12
	cmpb	$-16, %sil
	.loc	16 536 9 is_stmt 0
	jb	LBB47_330
Ltmp2110:
	.loc	24 3440 9 is_stmt 1
	cmpq	%r8, %r9
	.loc	24 3570 21
	je	LBB47_418
Ltmp2111:
	.loc	16 508 15
	movzbl	(%r9), %esi
Ltmp2112:
	.loc	16 507 5
	andl	$63, %esi
	jmp	LBB47_419
Ltmp2113:
LBB47_330:
	.loc	16 0 5 is_stmt 0
	shll	$12, %ebx
Ltmp2114:
LBB47_331:
	orl	%ebx, %edi
Ltmp2115:
	movl	%edi, %esi
Ltmp2116:
LBB47_332:
	.loc	31 386 16 is_stmt 1
	cmpl	$47, %esi
	.loc	31 386 13 is_stmt 0
	jne	LBB47_343
Ltmp2117:
	.loc	31 0 13
	movq	%rdx, -192(%rbp)
	incq	%rdx
Ltmp2118:
	movq	%rcx, -184(%rbp)
Ltmp2119:
	.loc	16 2070 18 is_stmt 1
	movq	$1, -224(%rbp)
	.loc	16 2070 25 is_stmt 0
	movq	%rcx, -88(%rbp)
Ltmp2120:
	.loc	16 2326 26 is_stmt 1
	cmpq	$1, %rcx
	.loc	16 2326 12 is_stmt 0
	je	LBB47_335
Ltmp2121:
	.loc	16 2332 25 is_stmt 1
	cmpb	$-65, (%rdx)
Ltmp2122:
	.loc	16 2033 13
	jle	LBB47_779
Ltmp2123:
LBB47_335:
	.loc	16 2057 23
	decq	%rcx
Ltmp2124:
	.loc	31 387 17
	movq	%rdx, (%r13)
	movq	%rcx, 8(%r13)
Ltmp2125:
	.loc	31 0 17 is_stmt 0
	leaq	-56(%rbp), %rdi
Ltmp2126:
	.loc	31 103 32 is_stmt 1
	movq	%r13, %rsi
Ltmp2127:
	movl	$100, %edx
Ltmp2128:
	movq	%r14, %rcx
Ltmp2129:
	callq	__ZN4time5parse10parse_type17h7bb98a5de264be65E
Ltmp2130:
	.loc	22 729 13
	movl	-56(%rbp), %eax
Ltmp2131:
	cmpl	$15, %eax
	jne	LBB47_517
Ltmp2132:
	.loc	31 384 11
	movq	8(%r13), %rcx
Ltmp2133:
	.loc	31 0 11 is_stmt 0
	movl	$10, %eax
Ltmp2134:
	.loc	24 3440 9 is_stmt 1
	testq	%rcx, %rcx
	.loc	24 3570 21
	je	LBB47_663
Ltmp2135:
	.loc	31 0 0 is_stmt 0
	movq	(%r13), %rdx
Ltmp2136:
	.loc	16 519 13 is_stmt 1
	movzbl	(%rdx), %esi
Ltmp2137:
	.loc	16 520 8
	testb	%sil, %sil
	.loc	16 520 5 is_stmt 0
	jns	LBB47_605
Ltmp2138:
	.loc	31 0 0
	leaq	(%rdx,%rcx), %r8
Ltmp2139:
	xorl	%edi, %edi
Ltmp2140:
	movq	%r8, %r9
Ltmp2141:
	.loc	24 3440 9 is_stmt 1
	cmpq	$1, %rcx
Ltmp2142:
	.loc	24 3570 21
	je	LBB47_340
Ltmp2143:
	.loc	23 165 18
	leaq	2(%rdx), %r9
Ltmp2144:
	.loc	16 508 15
	movzbl	1(%rdx), %edi
	.loc	16 507 5
	andl	$63, %edi
Ltmp2145:
LBB47_340:
	.loc	16 0 5 is_stmt 0
	movl	%esi, %ebx
	andl	$31, %ebx
Ltmp2146:
	.loc	16 530 8 is_stmt 1
	cmpb	$-33, %sil
	.loc	16 530 5 is_stmt 0
	jbe	LBB47_548
Ltmp2147:
	.loc	24 3440 9 is_stmt 1
	cmpq	%r8, %r9
	.loc	24 3570 21
	je	LBB47_599
Ltmp2148:
	.loc	16 508 15
	movzbl	(%r9), %r10d
Ltmp2149:
	.loc	23 165 18
	incq	%r9
Ltmp2150:
	.loc	16 507 5
	andl	$63, %r10d
	jmp	LBB47_600
Ltmp2151:
LBB47_343:
	.loc	16 0 5 is_stmt 0
	movl	$14, %eax
	movl	$47, %ebx
	jmp	LBB47_516
Ltmp2152:
LBB47_344:
	xorl	%r10d, %r10d
	movq	%r8, %r9
Ltmp2153:
LBB47_345:
	.loc	16 495 5 is_stmt 1
	shll	$6, %edi
Ltmp2154:
	orl	%r10d, %edi
Ltmp2155:
	.loc	16 536 12
	cmpb	$-16, %sil
	.loc	16 536 9 is_stmt 0
	jb	LBB47_348
Ltmp2156:
	.loc	24 3440 9 is_stmt 1
	cmpq	%r8, %r9
	.loc	24 3570 21
	je	LBB47_420
Ltmp2157:
	.loc	16 508 15
	movzbl	(%r9), %esi
Ltmp2158:
	.loc	16 507 5
	andl	$63, %esi
	jmp	LBB47_421
Ltmp2159:
LBB47_348:
	.loc	16 0 5 is_stmt 0
	shll	$12, %ebx
Ltmp2160:
LBB47_349:
	orl	%ebx, %edi
Ltmp2161:
	movl	%edi, %esi
Ltmp2162:
LBB47_350:
	.loc	31 386 16 is_stmt 1
	cmpl	$58, %esi
	.loc	31 386 13 is_stmt 0
	jne	LBB47_361
Ltmp2163:
	.loc	31 0 13
	movq	%rdx, -192(%rbp)
	incq	%rdx
Ltmp2164:
	movq	%rcx, -184(%rbp)
Ltmp2165:
	.loc	16 2070 18 is_stmt 1
	movq	$1, -224(%rbp)
	.loc	16 2070 25 is_stmt 0
	movq	%rcx, -88(%rbp)
Ltmp2166:
	.loc	16 2326 26 is_stmt 1
	cmpq	$1, %rcx
	.loc	16 2326 12 is_stmt 0
	je	LBB47_353
Ltmp2167:
	.loc	16 2332 25 is_stmt 1
	cmpb	$-65, (%rdx)
Ltmp2168:
	.loc	16 2033 13
	jle	LBB47_779
Ltmp2169:
LBB47_353:
	.loc	16 2057 23
	decq	%rcx
Ltmp2170:
	.loc	31 387 17
	movq	%rdx, (%r13)
	movq	%rcx, 8(%r13)
Ltmp2171:
	.loc	31 0 17 is_stmt 0
	leaq	-56(%rbp), %rdi
Ltmp2172:
	.loc	31 210 32 is_stmt 1
	movq	%r13, %rsi
Ltmp2173:
	movl	$77, %edx
Ltmp2174:
	movq	%r14, %rcx
Ltmp2175:
	callq	__ZN4time5parse10parse_type17h7bb98a5de264be65E
Ltmp2176:
	.loc	22 729 13
	movl	-56(%rbp), %eax
Ltmp2177:
	cmpl	$15, %eax
	jne	LBB47_517
Ltmp2178:
	.loc	31 384 11
	movq	8(%r13), %rcx
Ltmp2179:
	.loc	31 0 11 is_stmt 0
	movl	$10, %eax
Ltmp2180:
	.loc	24 3440 9 is_stmt 1
	testq	%rcx, %rcx
	.loc	24 3570 21
	je	LBB47_663
Ltmp2181:
	.loc	31 0 0 is_stmt 0
	movq	(%r13), %rdx
Ltmp2182:
	.loc	16 519 13 is_stmt 1
	movzbl	(%rdx), %esi
Ltmp2183:
	.loc	16 520 8
	testb	%sil, %sil
	.loc	16 520 5 is_stmt 0
	jns	LBB47_616
Ltmp2184:
	.loc	31 0 0
	leaq	(%rdx,%rcx), %r8
Ltmp2185:
	xorl	%edi, %edi
Ltmp2186:
	movq	%r8, %r9
Ltmp2187:
	.loc	24 3440 9 is_stmt 1
	cmpq	$1, %rcx
Ltmp2188:
	.loc	24 3570 21
	je	LBB47_358
Ltmp2189:
	.loc	23 165 18
	leaq	2(%rdx), %r9
Ltmp2190:
	.loc	16 508 15
	movzbl	1(%rdx), %edi
	.loc	16 507 5
	andl	$63, %edi
Ltmp2191:
LBB47_358:
	.loc	16 0 5 is_stmt 0
	movl	%esi, %ebx
	andl	$31, %ebx
Ltmp2192:
	.loc	16 530 8 is_stmt 1
	cmpb	$-33, %sil
	.loc	16 530 5 is_stmt 0
	jbe	LBB47_549
Ltmp2193:
	.loc	24 3440 9 is_stmt 1
	cmpq	%r8, %r9
	.loc	24 3570 21
	je	LBB47_610
Ltmp2194:
	.loc	16 508 15
	movzbl	(%r9), %r10d
Ltmp2195:
	.loc	23 165 18
	incq	%r9
Ltmp2196:
	.loc	16 507 5
	andl	$63, %r10d
	jmp	LBB47_611
Ltmp2197:
LBB47_361:
	.loc	16 0 5 is_stmt 0
	movl	$14, %eax
	movl	$58, %ebx
	jmp	LBB47_516
Ltmp2198:
LBB47_362:
	xorl	%r9d, %r9d
	movq	%r8, %rbx
Ltmp2199:
LBB47_363:
	.loc	16 495 5 is_stmt 1
	shll	$6, %edx
Ltmp2200:
	orl	%r9d, %edx
Ltmp2201:
	.loc	16 536 12
	cmpb	$-16, %sil
	.loc	16 536 9 is_stmt 0
	jb	LBB47_366
Ltmp2202:
	.loc	24 3440 9 is_stmt 1
	cmpq	%r8, %rbx
	.loc	24 3570 21
	je	LBB47_422
Ltmp2203:
	.loc	16 508 15
	movzbl	(%rbx), %esi
Ltmp2204:
	.loc	16 507 5
	andl	$63, %esi
	jmp	LBB47_423
Ltmp2205:
LBB47_366:
	.loc	16 0 5 is_stmt 0
	shll	$12, %edi
Ltmp2206:
LBB47_367:
	orl	%edi, %edx
Ltmp2207:
	movl	%edx, %esi
Ltmp2208:
LBB47_368:
	.loc	31 386 16 is_stmt 1
	cmpl	$10, %esi
	.loc	31 386 13 is_stmt 0
	je	LBB47_395
Ltmp2209:
	.loc	31 0 13
	movabsq	$42949672974, %rax
	jmp	LBB47_399
Ltmp2210:
LBB47_370:
	xorl	%r9d, %r9d
	movq	%r8, %rbx
Ltmp2211:
LBB47_371:
	.loc	16 495 5 is_stmt 1
	shll	$6, %edx
Ltmp2212:
	orl	%r9d, %edx
Ltmp2213:
	.loc	16 536 12
	cmpb	$-16, %sil
	.loc	16 536 9 is_stmt 0
	jb	LBB47_374
Ltmp2214:
	.loc	24 3440 9 is_stmt 1
	cmpq	%r8, %rbx
	.loc	24 3570 21
	je	LBB47_459
Ltmp2215:
	.loc	16 508 15
	movzbl	(%rbx), %esi
Ltmp2216:
	.loc	16 507 5
	andl	$63, %esi
	jmp	LBB47_460
Ltmp2217:
LBB47_374:
	.loc	16 0 5 is_stmt 0
	shll	$12, %edi
Ltmp2218:
LBB47_375:
	orl	%edi, %edx
Ltmp2219:
	movl	%edx, %esi
Ltmp2220:
LBB47_376:
	.loc	31 386 16 is_stmt 1
	cmpl	$37, %esi
	.loc	31 386 13 is_stmt 0
	je	LBB47_395
Ltmp2221:
	.loc	31 0 13
	movabsq	$158913789966, %rax
	jmp	LBB47_399
Ltmp2222:
LBB47_378:
	xorl	%r10d, %r10d
	movq	%r8, %rsi
Ltmp2223:
LBB47_379:
	.loc	16 495 5 is_stmt 1
	shll	$6, %ebx
Ltmp2224:
	orl	%r10d, %ebx
Ltmp2225:
	.loc	16 536 12
	cmpb	$-16, %dil
	.loc	16 536 9 is_stmt 0
	jb	LBB47_382
Ltmp2226:
	.loc	24 3440 9 is_stmt 1
	cmpq	%r8, %rsi
	.loc	24 3570 21
	je	LBB47_462
Ltmp2227:
	.loc	16 508 15
	movzbl	(%rsi), %esi
Ltmp2228:
	.loc	16 507 5
	andl	$63, %esi
	jmp	LBB47_463
Ltmp2229:
LBB47_382:
	.loc	16 0 5 is_stmt 0
	shll	$12, %edx
Ltmp2230:
LBB47_383:
	orl	%edx, %ebx
Ltmp2231:
	movl	%ebx, %edi
Ltmp2232:
LBB47_384:
	.loc	31 386 16 is_stmt 1
	cmpl	$90, %edi
	.loc	31 386 13 is_stmt 0
	jne	LBB47_464
Ltmp2233:
	.loc	31 0 13
	movq	%rcx, -192(%rbp)
	movq	%rax, -184(%rbp)
Ltmp2234:
	.loc	16 2070 18 is_stmt 1
	movq	$1, -56(%rbp)
	.loc	16 2070 25 is_stmt 0
	movq	%rax, -72(%rbp)
Ltmp2235:
	.loc	16 2326 26 is_stmt 1
	cmpq	$1, %rax
	.loc	16 2326 12 is_stmt 0
	je	LBB47_387
Ltmp2236:
	.loc	16 2332 25 is_stmt 1
	cmpb	$-65, (%r9)
Ltmp2237:
	.loc	16 2033 13
	jle	LBB47_773
Ltmp2238:
LBB47_387:
	.loc	16 2057 23
	decq	%rax
Ltmp2239:
	.loc	31 387 17
	movq	%r9, (%r13)
	movq	%rax, 8(%r13)
Ltmp2240:
	.loc	31 0 0 is_stmt 0
	movl	$0, 36(%r14)
	jmp	LBB47_723
Ltmp2241:
LBB47_388:
	xorl	%r9d, %r9d
	movq	%r8, %rbx
Ltmp2242:
LBB47_389:
	.loc	16 495 5 is_stmt 1
	shll	$6, %edx
Ltmp2243:
	orl	%r9d, %edx
Ltmp2244:
	.loc	16 536 12
	cmpb	$-16, %sil
	.loc	16 536 9 is_stmt 0
	jb	LBB47_392
Ltmp2245:
	.loc	24 3440 9 is_stmt 1
	cmpq	%r8, %rbx
	.loc	24 3570 21
	je	LBB47_545
Ltmp2246:
	.loc	16 508 15
	movzbl	(%rbx), %esi
Ltmp2247:
	.loc	16 507 5
	andl	$63, %esi
	jmp	LBB47_546
Ltmp2248:
LBB47_392:
	.loc	16 0 5 is_stmt 0
	shll	$12, %edi
Ltmp2249:
LBB47_393:
	orl	%edi, %edx
Ltmp2250:
	movl	%edx, %esi
Ltmp2251:
LBB47_394:
	.loc	31 386 16 is_stmt 1
	cmpl	$9, %esi
	.loc	31 386 13 is_stmt 0
	jne	LBB47_398
Ltmp2252:
LBB47_395:
	.loc	31 0 13
	movq	%rcx, -192(%rbp)
	incq	%rcx
Ltmp2253:
	movq	%rax, -184(%rbp)
Ltmp2254:
	movq	$1, -56(%rbp)
	movq	%rax, -72(%rbp)
Ltmp2255:
	cmpq	$1, %rax
	je	LBB47_397
Ltmp2256:
	cmpb	$-65, (%rcx)
	jle	LBB47_773
Ltmp2257:
LBB47_397:
	decq	%rax
Ltmp2258:
	movq	%rcx, (%r13)
	movq	%rax, 8(%r13)
	jmp	LBB47_723
Ltmp2259:
LBB47_398:
	movabsq	$38654705678, %rax
Ltmp2260:
LBB47_399:
	movq	%rax, (%r15)
	movl	%esi, 8(%r15)
	jmp	LBB47_724
Ltmp2261:
LBB47_400:
	movl	$7, %edx
	leaq	l___unnamed_144+48(%rip), %rsi
Ltmp2262:
	.loc	32 331 9 is_stmt 1
	leaq	l___unnamed_82(%rip), %rbx
Ltmp2263:
	cmpq	%rbx, %rcx
Ltmp2264:
	.loc	24 6271 9
	je	LBB47_317
Ltmp2265:
	.loc	24 0 9 is_stmt 0
	movl	$1936029012, %ebx
Ltmp2266:
	.loc	24 6276 13 is_stmt 1
	xorl	(%rcx), %ebx
	movl	$2036425843, %edi
	xorl	3(%rcx), %edi
	orl	%ebx, %edi
Ltmp2267:
	.loc	24 1436 9
	je	LBB47_317
Ltmp2268:
	cmpq	$9, %rax
Ltmp2269:
	jae	LBB47_594
Ltmp2270:
	cmpq	$8, %rax
Ltmp2271:
	jne	LBB47_266
	jmp	LBB47_596
Ltmp2272:
LBB47_404:
	.loc	24 0 9 is_stmt 0
	movl	$4, %edx
	leaq	l___unnamed_146+120(%rip), %rsi
Ltmp2273:
	.loc	32 331 9 is_stmt 1
	leaq	L___unnamed_91(%rip), %rdi
Ltmp2274:
	cmpq	%rdi, %rax
Ltmp2275:
	.loc	24 6271 9
	je	LBB47_414
Ltmp2276:
	.loc	24 6276 13
	cmpl	$1701737802, (%rax)
Ltmp2277:
	.loc	24 1436 9
	je	LBB47_414
Ltmp2278:
	.loc	24 0 9 is_stmt 0
	leaq	l___unnamed_146+144(%rip), %rsi
Ltmp2279:
	.loc	32 331 9 is_stmt 1
	leaq	L___unnamed_92(%rip), %rdi
Ltmp2280:
	cmpq	%rdi, %rax
Ltmp2281:
	.loc	24 6271 9
	je	LBB47_414
Ltmp2282:
	.loc	24 6276 13
	cmpl	$2037151050, (%rax)
Ltmp2283:
	.loc	24 1436 9
	je	LBB47_414
Ltmp2284:
	cmpq	$6, %rcx
Ltmp2285:
	jb	LBB47_252
Ltmp2286:
	.loc	24 0 9 is_stmt 0
	movl	$6, %edx
	leaq	l___unnamed_146+168(%rip), %rsi
Ltmp2287:
	.loc	32 331 9 is_stmt 1
	leaq	l___unnamed_90(%rip), %rdi
Ltmp2288:
	cmpq	%rdi, %rax
Ltmp2289:
	.loc	24 6271 9
	je	LBB47_414
Ltmp2290:
	.loc	24 0 9 is_stmt 0
	movl	$1969714497, %edi
Ltmp2291:
	.loc	24 6276 13 is_stmt 1
	xorl	(%rax), %edi
	movzwl	4(%rax), %ebx
	xorl	$29811, %ebx
	orl	%edi, %ebx
Ltmp2292:
	.loc	24 1436 9
	je	LBB47_414
Ltmp2293:
	cmpq	$9, %rcx
Ltmp2294:
	jb	LBB47_252
Ltmp2295:
	.loc	24 0 9 is_stmt 0
	movl	$9, %edx
	leaq	l___unnamed_146+192(%rip), %rsi
Ltmp2296:
	.loc	32 331 9 is_stmt 1
	leaq	l___unnamed_93(%rip), %rdi
Ltmp2297:
	cmpq	%rdi, %rax
Ltmp2298:
	.loc	24 6271 9
	je	LBB47_414
Ltmp2299:
	.loc	24 0 9 is_stmt 0
	movabsq	$7305521828061013331, %rdi
Ltmp2300:
	.loc	24 6276 13 is_stmt 1
	xorq	(%rax), %rdi
	movzbl	8(%rax), %ebx
	xorq	$114, %rbx
	orq	%rdi, %rbx
Ltmp2301:
	.loc	24 1436 9
	jne	LBB47_252
Ltmp2302:
LBB47_414:
	.loc	31 310 19
	movl	16(%rsi), %esi
Ltmp2303:
	.loc	31 0 19 is_stmt 0
	movq	%rax, -192(%rbp)
	movq	%rcx, -184(%rbp)
Ltmp2304:
	.loc	16 2070 18 is_stmt 1
	movq	%rdx, -56(%rbp)
	.loc	16 2070 25 is_stmt 0
	movq	%rcx, -72(%rbp)
Ltmp2305:
	.loc	16 2326 26 is_stmt 1
	subq	%rdx, %rcx
Ltmp2306:
	.loc	16 2326 12 is_stmt 0
	je	LBB47_417
Ltmp2307:
	.loc	16 2330 13 is_stmt 1
	jbe	LBB47_773
Ltmp2308:
	.loc	16 2332 25
	cmpb	$-65, (%rax,%rdx)
Ltmp2309:
	.loc	16 2033 13
	jle	LBB47_773
Ltmp2310:
LBB47_417:
	.loc	32 164 18
	addq	%rdx, %rax
Ltmp2311:
	.loc	31 302 9
	movq	%rax, (%r13)
	movq	%rcx, 8(%r13)
Ltmp2312:
	.loc	31 67 26
	movl	%esi, 16(%r14)
	jmp	LBB47_723
Ltmp2313:
LBB47_418:
	.loc	31 0 26 is_stmt 0
	xorl	%esi, %esi
Ltmp2314:
LBB47_419:
	.loc	16 540 18 is_stmt 1
	andl	$7, %ebx
Ltmp2315:
	shll	$18, %ebx
Ltmp2316:
	.loc	16 495 5
	shll	$6, %edi
Ltmp2317:
	orl	%ebx, %edi
Ltmp2318:
	.loc	16 540 13
	orl	%esi, %edi
Ltmp2319:
	.loc	16 0 13 is_stmt 0
	movl	%edi, %esi
Ltmp2320:
	.loc	16 690 13 is_stmt 1
	cmpl	$1114112, %edi
Ltmp2321:
	jne	LBB47_332
	jmp	LBB47_516
Ltmp2322:
LBB47_420:
	.loc	16 0 13 is_stmt 0
	xorl	%esi, %esi
Ltmp2323:
LBB47_421:
	.loc	16 540 18 is_stmt 1
	andl	$7, %ebx
Ltmp2324:
	shll	$18, %ebx
Ltmp2325:
	.loc	16 495 5
	shll	$6, %edi
Ltmp2326:
	orl	%ebx, %edi
Ltmp2327:
	.loc	16 540 13
	orl	%esi, %edi
Ltmp2328:
	.loc	16 0 13 is_stmt 0
	movl	%edi, %esi
Ltmp2329:
	.loc	16 690 13 is_stmt 1
	cmpl	$1114112, %edi
Ltmp2330:
	jne	LBB47_350
	jmp	LBB47_516
Ltmp2331:
LBB47_422:
	.loc	16 0 13 is_stmt 0
	xorl	%esi, %esi
Ltmp2332:
LBB47_423:
	.loc	16 540 18 is_stmt 1
	andl	$7, %edi
Ltmp2333:
	shll	$18, %edi
Ltmp2334:
	.loc	16 495 5
	shll	$6, %edx
Ltmp2335:
	orl	%edi, %edx
Ltmp2336:
	.loc	16 540 13
	orl	%esi, %edx
Ltmp2337:
	.loc	16 0 13 is_stmt 0
	movl	%edx, %esi
Ltmp2338:
	.loc	16 690 13 is_stmt 1
	cmpl	$1114112, %edx
Ltmp2339:
	jne	LBB47_368
	jmp	LBB47_424
Ltmp2340:
LBB47_425:
	.loc	16 0 13 is_stmt 0
	xorl	%r10d, %r10d
	movq	%r8, %r9
Ltmp2341:
LBB47_426:
	.loc	16 495 5 is_stmt 1
	shll	$6, %edi
Ltmp2342:
	orl	%r10d, %edi
Ltmp2343:
	.loc	16 536 12
	cmpb	$-16, %sil
	.loc	16 536 9 is_stmt 0
	jb	LBB47_429
Ltmp2344:
	.loc	24 3440 9 is_stmt 1
	cmpq	%r8, %r9
	.loc	24 3570 21
	je	LBB47_580
Ltmp2345:
	.loc	16 508 15
	movzbl	(%r9), %esi
Ltmp2346:
	.loc	16 507 5
	andl	$63, %esi
	jmp	LBB47_581
Ltmp2347:
LBB47_429:
	.loc	16 0 5 is_stmt 0
	shll	$12, %ebx
Ltmp2348:
LBB47_430:
	orl	%ebx, %edi
Ltmp2349:
	movl	%edi, %esi
Ltmp2350:
LBB47_431:
	.loc	31 386 16 is_stmt 1
	cmpl	$58, %esi
	.loc	31 386 13 is_stmt 0
	jne	LBB47_435
Ltmp2351:
	.loc	31 0 13
	movq	%rcx, -192(%rbp)
	incq	%rcx
Ltmp2352:
	movq	%rax, -184(%rbp)
Ltmp2353:
	.loc	16 2070 18 is_stmt 1
	movq	$1, -88(%rbp)
	.loc	16 2070 25 is_stmt 0
	movq	%rax, -56(%rbp)
Ltmp2354:
	.loc	16 2326 26 is_stmt 1
	cmpq	$1, %rax
	.loc	16 2326 12 is_stmt 0
	je	LBB47_434
Ltmp2355:
	.loc	16 2332 25 is_stmt 1
	cmpb	$-65, (%rcx)
Ltmp2356:
	.loc	16 2033 13
	jle	LBB47_785
Ltmp2357:
LBB47_434:
	.loc	16 2057 23
	decq	%rax
Ltmp2358:
	.loc	31 387 17
	movq	%rcx, (%r13)
	movq	%rax, 8(%r13)
Ltmp2359:
	.loc	31 180 32
	movq	%r15, %rdi
	movq	%r13, %rsi
Ltmp2360:
	movl	$77, %edx
	jmp	LBB47_686
Ltmp2361:
LBB47_435:
	.loc	31 0 32 is_stmt 0
	movl	$14, %edx
	movl	$58, %ebx
Ltmp2362:
	.loc	22 730 23 is_stmt 1
	movl	%edx, (%r15)
	jmp	LBB47_519
Ltmp2363:
LBB47_436:
	.loc	22 0 23 is_stmt 0
	xorl	%r10d, %r10d
	movq	%r8, %r9
Ltmp2364:
LBB47_437:
	.loc	16 495 5 is_stmt 1
	shll	$6, %edi
Ltmp2365:
	orl	%r10d, %edi
Ltmp2366:
	.loc	16 536 12
	cmpb	$-16, %sil
	.loc	16 536 9 is_stmt 0
	jb	LBB47_440
Ltmp2367:
	.loc	24 3440 9 is_stmt 1
	cmpq	%r8, %r9
	.loc	24 3570 21
	je	LBB47_582
Ltmp2368:
	.loc	16 508 15
	movzbl	(%r9), %esi
Ltmp2369:
	.loc	16 507 5
	andl	$63, %esi
	jmp	LBB47_583
Ltmp2370:
LBB47_440:
	.loc	16 0 5 is_stmt 0
	shll	$12, %ebx
Ltmp2371:
LBB47_441:
	orl	%ebx, %edi
Ltmp2372:
	movl	%edi, %esi
Ltmp2373:
LBB47_442:
	.loc	31 386 16 is_stmt 1
	cmpl	$58, %esi
	.loc	31 386 13 is_stmt 0
	jne	LBB47_453
Ltmp2374:
	.loc	31 0 13
	movq	%rdx, -192(%rbp)
	incq	%rdx
Ltmp2375:
	movq	%rcx, -184(%rbp)
Ltmp2376:
	.loc	16 2070 18 is_stmt 1
	movq	$1, -232(%rbp)
	.loc	16 2070 25 is_stmt 0
	movq	%rcx, -224(%rbp)
Ltmp2377:
	.loc	16 2326 26 is_stmt 1
	cmpq	$1, %rcx
	.loc	16 2326 12 is_stmt 0
	je	LBB47_445
Ltmp2378:
	.loc	16 2332 25 is_stmt 1
	cmpb	$-65, (%rdx)
Ltmp2379:
	.loc	16 2033 13
	jle	LBB47_786
Ltmp2380:
LBB47_445:
	.loc	16 2057 23
	decq	%rcx
Ltmp2381:
	.loc	31 387 17
	movq	%rdx, (%r13)
	movq	%rcx, 8(%r13)
Ltmp2382:
	.loc	31 0 17 is_stmt 0
	leaq	-56(%rbp), %rdi
Ltmp2383:
	.loc	31 185 32 is_stmt 1
	movq	%r13, %rsi
Ltmp2384:
	movl	$77, %edx
Ltmp2385:
	movq	%r14, %rcx
Ltmp2386:
	callq	__ZN4time5parse10parse_type17h7bb98a5de264be65E
Ltmp2387:
	.loc	22 729 13
	movl	-56(%rbp), %eax
Ltmp2388:
	cmpl	$15, %eax
	jne	LBB47_455
Ltmp2389:
	.loc	31 384 11
	movq	8(%r13), %rcx
Ltmp2390:
	.loc	31 0 11 is_stmt 0
	movl	$10, %eax
Ltmp2391:
	.loc	24 3440 9 is_stmt 1
	testq	%rcx, %rcx
	.loc	24 3570 21
	je	LBB47_458
Ltmp2392:
	.loc	31 0 0 is_stmt 0
	movq	(%r13), %rdx
Ltmp2393:
	.loc	16 519 13 is_stmt 1
	movzbl	(%rdx), %esi
Ltmp2394:
	.loc	16 520 8
	testb	%sil, %sil
	.loc	16 520 5 is_stmt 0
	jns	LBB47_652
Ltmp2395:
	.loc	31 0 0
	leaq	(%rdx,%rcx), %r8
Ltmp2396:
	xorl	%edi, %edi
Ltmp2397:
	movq	%r8, %r9
Ltmp2398:
	.loc	24 3440 9 is_stmt 1
	cmpq	$1, %rcx
Ltmp2399:
	.loc	24 3570 21
	je	LBB47_450
Ltmp2400:
	.loc	23 165 18
	leaq	2(%rdx), %r9
Ltmp2401:
	.loc	16 508 15
	movzbl	1(%rdx), %edi
	.loc	16 507 5
	andl	$63, %edi
Ltmp2402:
LBB47_450:
	.loc	16 0 5 is_stmt 0
	movl	%esi, %ebx
	andl	$31, %ebx
Ltmp2403:
	.loc	16 530 8 is_stmt 1
	cmpb	$-33, %sil
	.loc	16 530 5 is_stmt 0
	jbe	LBB47_590
Ltmp2404:
	.loc	24 3440 9 is_stmt 1
	cmpq	%r8, %r9
	.loc	24 3570 21
	je	LBB47_646
Ltmp2405:
	.loc	16 508 15
	movzbl	(%r9), %r10d
Ltmp2406:
	.loc	23 165 18
	incq	%r9
Ltmp2407:
	.loc	16 507 5
	andl	$63, %r10d
	jmp	LBB47_647
Ltmp2408:
LBB47_453:
	.loc	16 0 5 is_stmt 0
	movl	$14, %eax
	movl	$58, %ebx
Ltmp2409:
LBB47_454:
	.loc	22 730 23 is_stmt 1
	movl	%eax, -56(%rbp)
	movl	%ebx, -52(%rbp)
	movl	%esi, -48(%rbp)
Ltmp2410:
LBB47_455:
	.loc	22 730 27 is_stmt 0
	movl	-52(%rbp), %ebx
Ltmp2411:
	movl	-48(%rbp), %esi
Ltmp2412:
LBB47_456:
	.loc	22 730 23
	movl	%eax, -88(%rbp)
	movl	%ebx, -84(%rbp)
	movl	%esi, -80(%rbp)
Ltmp2413:
LBB47_457:
	.loc	22 730 27
	movl	-84(%rbp), %ebx
Ltmp2414:
	movl	-80(%rbp), %esi
Ltmp2415:
	.loc	22 0 27
	jmp	LBB47_518
Ltmp2416:
LBB47_458:
	jmp	LBB47_456
Ltmp2417:
LBB47_459:
	xorl	%esi, %esi
Ltmp2418:
LBB47_460:
	.loc	16 540 18 is_stmt 1
	andl	$7, %edi
Ltmp2419:
	shll	$18, %edi
Ltmp2420:
	.loc	16 495 5
	shll	$6, %edx
Ltmp2421:
	orl	%edi, %edx
Ltmp2422:
	.loc	16 540 13
	orl	%esi, %edx
Ltmp2423:
	.loc	16 0 13 is_stmt 0
	movl	%edx, %esi
Ltmp2424:
	.loc	16 690 13 is_stmt 1
	cmpl	$1114112, %edx
Ltmp2425:
	jne	LBB47_376
	jmp	LBB47_424
Ltmp2426:
LBB47_462:
	.loc	16 0 13 is_stmt 0
	xorl	%esi, %esi
Ltmp2427:
LBB47_463:
	.loc	16 540 18 is_stmt 1
	andl	$7, %edx
Ltmp2428:
	shll	$18, %edx
Ltmp2429:
	.loc	16 495 5
	shll	$6, %ebx
Ltmp2430:
	orl	%edx, %ebx
Ltmp2431:
	.loc	16 540 13
	orl	%esi, %ebx
Ltmp2432:
	.loc	16 0 13 is_stmt 0
	movl	%ebx, %edi
Ltmp2433:
	.loc	16 690 13 is_stmt 1
	cmpl	$1114112, %ebx
Ltmp2434:
	jne	LBB47_384
Ltmp2435:
LBB47_464:
	.loc	16 519 13
	movzbl	(%rcx), %edi
Ltmp2436:
	.loc	16 520 8
	testb	%dil, %dil
Ltmp2437:
	.loc	16 520 5 is_stmt 0
	jns	LBB47_477
Ltmp2438:
	.loc	16 0 5
	xorl	%ebx, %ebx
Ltmp2439:
	movq	%r8, %rsi
Ltmp2440:
	.loc	24 3440 9 is_stmt 1
	cmpq	$1, %rax
Ltmp2441:
	.loc	24 3570 21
	je	LBB47_467
Ltmp2442:
	.loc	23 165 18
	leaq	2(%rcx), %rsi
Ltmp2443:
	.loc	16 508 15
	movzbl	1(%rcx), %ebx
	.loc	16 507 5
	andl	$63, %ebx
Ltmp2444:
LBB47_467:
	.loc	16 0 5 is_stmt 0
	movl	%edi, %edx
	andl	$31, %edx
Ltmp2445:
	.loc	16 530 8 is_stmt 1
	cmpb	$-33, %dil
	.loc	16 530 5 is_stmt 0
	jbe	LBB47_470
Ltmp2446:
	.loc	24 3440 9 is_stmt 1
	cmpq	%r8, %rsi
	.loc	24 3570 21
	je	LBB47_471
Ltmp2447:
	.loc	16 508 15
	movzbl	(%rsi), %r10d
Ltmp2448:
	.loc	23 165 18
	incq	%rsi
Ltmp2449:
	.loc	16 507 5
	andl	$63, %r10d
	jmp	LBB47_472
Ltmp2450:
LBB47_470:
	.loc	16 0 5 is_stmt 0
	shll	$6, %edx
Ltmp2451:
	jmp	LBB47_476
Ltmp2452:
LBB47_471:
	xorl	%r10d, %r10d
	movq	%r8, %rsi
Ltmp2453:
LBB47_472:
	.loc	16 495 5 is_stmt 1
	shll	$6, %ebx
Ltmp2454:
	orl	%r10d, %ebx
Ltmp2455:
	.loc	16 536 12
	cmpb	$-16, %dil
	.loc	16 536 9 is_stmt 0
	jb	LBB47_475
Ltmp2456:
	.loc	24 3440 9 is_stmt 1
	cmpq	%r8, %rsi
	.loc	24 3570 21
	je	LBB47_551
Ltmp2457:
	.loc	16 508 15
	movzbl	(%rsi), %esi
Ltmp2458:
	.loc	16 507 5
	andl	$63, %esi
	jmp	LBB47_552
Ltmp2459:
LBB47_475:
	.loc	16 0 5 is_stmt 0
	shll	$12, %edx
Ltmp2460:
LBB47_476:
	orl	%edx, %ebx
Ltmp2461:
	movl	%ebx, %edi
Ltmp2462:
LBB47_477:
	.loc	31 386 16 is_stmt 1
	cmpl	$43, %edi
	.loc	31 386 13 is_stmt 0
	jne	LBB47_553
Ltmp2463:
	.loc	31 0 13
	movq	%rcx, -192(%rbp)
	movq	%rax, -184(%rbp)
Ltmp2464:
	.loc	16 2070 18 is_stmt 1
	movq	$1, -56(%rbp)
	.loc	16 2070 25 is_stmt 0
	movq	%rax, -72(%rbp)
Ltmp2465:
	.loc	16 2326 26 is_stmt 1
	cmpq	$1, %rax
	.loc	16 2326 12 is_stmt 0
	je	LBB47_480
Ltmp2466:
	.loc	16 2332 25 is_stmt 1
	cmpb	$-65, (%r9)
Ltmp2467:
	.loc	16 2033 13
	jle	LBB47_773
Ltmp2468:
LBB47_480:
	.loc	16 0 13 is_stmt 0
	movl	$1, %ebx
	jmp	LBB47_570
Ltmp2469:
LBB47_481:
	xorl	%r10d, %r10d
	movq	%r8, %r9
Ltmp2470:
LBB47_482:
	.loc	16 495 5 is_stmt 1
	shll	$6, %edi
Ltmp2471:
	orl	%r10d, %edi
Ltmp2472:
	.loc	16 536 12
	cmpb	$-16, %sil
	.loc	16 536 9 is_stmt 0
	jb	LBB47_485
Ltmp2473:
	.loc	24 3440 9 is_stmt 1
	cmpq	%r8, %r9
	.loc	24 3570 21
	je	LBB47_584
Ltmp2474:
	.loc	16 508 15
	movzbl	(%r9), %esi
Ltmp2475:
	.loc	16 507 5
	andl	$63, %esi
	jmp	LBB47_585
Ltmp2476:
LBB47_485:
	.loc	16 0 5 is_stmt 0
	shll	$12, %ebx
Ltmp2477:
LBB47_486:
	orl	%ebx, %edi
Ltmp2478:
	movl	%edi, %esi
Ltmp2479:
LBB47_487:
	.loc	31 386 16 is_stmt 1
	cmpl	$45, %esi
	.loc	31 386 13 is_stmt 0
	jne	LBB47_515
Ltmp2480:
	.loc	31 0 13
	movq	%rdx, -192(%rbp)
	incq	%rdx
Ltmp2481:
	movq	%rcx, -184(%rbp)
Ltmp2482:
	.loc	16 2070 18 is_stmt 1
	movq	$1, -224(%rbp)
	.loc	16 2070 25 is_stmt 0
	movq	%rcx, -88(%rbp)
Ltmp2483:
	.loc	16 2326 26 is_stmt 1
	cmpq	$1, %rcx
	.loc	16 2326 12 is_stmt 0
	je	LBB47_490
Ltmp2484:
	.loc	16 2332 25 is_stmt 1
	cmpb	$-65, (%rdx)
Ltmp2485:
	.loc	16 2033 13
	jle	LBB47_779
Ltmp2486:
LBB47_490:
	.loc	16 2057 23
	decq	%rcx
Ltmp2487:
	.loc	31 387 17
	movq	%rdx, (%r13)
	movq	%rcx, 8(%r13)
Ltmp2488:
	.loc	31 0 17 is_stmt 0
	leaq	-56(%rbp), %rdi
Ltmp2489:
	.loc	31 122 32 is_stmt 1
	movq	%r13, %rsi
Ltmp2490:
	movl	$109, %edx
Ltmp2491:
	movq	%r14, %rcx
Ltmp2492:
	callq	__ZN4time5parse10parse_type17h7bb98a5de264be65E
Ltmp2493:
	.loc	22 729 13
	movl	-56(%rbp), %eax
Ltmp2494:
	cmpl	$15, %eax
	jne	LBB47_517
Ltmp2495:
	.loc	31 384 11
	movq	8(%r13), %rcx
Ltmp2496:
	.loc	31 0 11 is_stmt 0
	movl	$10, %eax
Ltmp2497:
	.loc	24 3440 9 is_stmt 1
	testq	%rcx, %rcx
	.loc	24 3570 21
	je	LBB47_663
Ltmp2498:
	.loc	31 0 0 is_stmt 0
	movq	(%r13), %rdx
Ltmp2499:
	.loc	16 519 13 is_stmt 1
	movzbl	(%rdx), %esi
Ltmp2500:
	.loc	16 520 8
	testb	%sil, %sil
	.loc	16 520 5 is_stmt 0
	jns	LBB47_671
Ltmp2501:
	.loc	31 0 0
	leaq	(%rdx,%rcx), %r8
Ltmp2502:
	xorl	%edi, %edi
Ltmp2503:
	movq	%r8, %r9
Ltmp2504:
	.loc	24 3440 9 is_stmt 1
	cmpq	$1, %rcx
Ltmp2505:
	.loc	24 3570 21
	je	LBB47_495
Ltmp2506:
	.loc	23 165 18
	leaq	2(%rdx), %r9
Ltmp2507:
	.loc	16 508 15
	movzbl	1(%rdx), %edi
	.loc	16 507 5
	andl	$63, %edi
Ltmp2508:
LBB47_495:
	.loc	16 0 5 is_stmt 0
	movl	%esi, %ebx
	andl	$31, %ebx
Ltmp2509:
	.loc	16 530 8 is_stmt 1
	cmpb	$-33, %sil
	.loc	16 530 5 is_stmt 0
	jbe	LBB47_591
Ltmp2510:
	.loc	24 3440 9 is_stmt 1
	cmpq	%r8, %r9
	.loc	24 3570 21
	je	LBB47_665
Ltmp2511:
	.loc	16 508 15
	movzbl	(%r9), %r10d
Ltmp2512:
	.loc	23 165 18
	incq	%r9
Ltmp2513:
	.loc	16 507 5
	andl	$63, %r10d
	jmp	LBB47_666
Ltmp2514:
LBB47_498:
	.loc	16 0 5 is_stmt 0
	xorl	%r10d, %r10d
	movq	%r8, %r9
Ltmp2515:
LBB47_499:
	.loc	16 495 5 is_stmt 1
	shll	$6, %edi
Ltmp2516:
	orl	%r10d, %edi
Ltmp2517:
	.loc	16 536 12
	cmpb	$-16, %sil
	.loc	16 536 9 is_stmt 0
	jb	LBB47_502
Ltmp2518:
	.loc	24 3440 9 is_stmt 1
	cmpq	%r8, %r9
	.loc	24 3570 21
	je	LBB47_586
Ltmp2519:
	.loc	16 508 15
	movzbl	(%r9), %esi
Ltmp2520:
	.loc	16 507 5
	andl	$63, %esi
	jmp	LBB47_587
Ltmp2521:
LBB47_502:
	.loc	16 0 5 is_stmt 0
	shll	$12, %ebx
Ltmp2522:
LBB47_503:
	orl	%ebx, %edi
Ltmp2523:
	movl	%edi, %esi
Ltmp2524:
LBB47_504:
	.loc	31 386 16 is_stmt 1
	cmpl	$45, %esi
	.loc	31 386 13 is_stmt 0
	jne	LBB47_515
Ltmp2525:
	.loc	31 0 13
	movq	%rdx, -192(%rbp)
	incq	%rdx
Ltmp2526:
	movq	%rcx, -184(%rbp)
Ltmp2527:
	.loc	16 2070 18 is_stmt 1
	movq	$1, -224(%rbp)
	.loc	16 2070 25 is_stmt 0
	movq	%rcx, -88(%rbp)
Ltmp2528:
	.loc	16 2326 26 is_stmt 1
	cmpq	$1, %rcx
	.loc	16 2326 12 is_stmt 0
	je	LBB47_507
Ltmp2529:
	.loc	16 2332 25 is_stmt 1
	cmpb	$-65, (%rdx)
Ltmp2530:
	.loc	16 2033 13
	jle	LBB47_779
Ltmp2531:
LBB47_507:
	.loc	16 2057 23
	decq	%rcx
Ltmp2532:
	.loc	31 387 17
	movq	%rdx, (%r13)
	movq	%rcx, 8(%r13)
Ltmp2533:
	.loc	31 0 17 is_stmt 0
	leaq	-56(%rbp), %rdi
Ltmp2534:
	.loc	31 224 32 is_stmt 1
	movq	%r13, %rsi
Ltmp2535:
	movl	$98, %edx
Ltmp2536:
	movq	%r14, %rcx
Ltmp2537:
	callq	__ZN4time5parse10parse_type17h7bb98a5de264be65E
Ltmp2538:
	.loc	22 729 13
	movl	-56(%rbp), %eax
Ltmp2539:
	cmpl	$15, %eax
	jne	LBB47_517
Ltmp2540:
	.loc	31 384 11
	movq	8(%r13), %rcx
Ltmp2541:
	.loc	31 0 11 is_stmt 0
	movl	$10, %eax
Ltmp2542:
	.loc	24 3440 9 is_stmt 1
	testq	%rcx, %rcx
	.loc	24 3570 21
	je	LBB47_663
Ltmp2543:
	.loc	31 0 0 is_stmt 0
	movq	(%r13), %rdx
Ltmp2544:
	.loc	16 519 13 is_stmt 1
	movzbl	(%rdx), %esi
Ltmp2545:
	.loc	16 520 8
	testb	%sil, %sil
	.loc	16 520 5 is_stmt 0
	jns	LBB47_681
Ltmp2546:
	.loc	31 0 0
	leaq	(%rdx,%rcx), %r8
Ltmp2547:
	xorl	%edi, %edi
Ltmp2548:
	movq	%r8, %r9
Ltmp2549:
	.loc	24 3440 9 is_stmt 1
	cmpq	$1, %rcx
Ltmp2550:
	.loc	24 3570 21
	je	LBB47_512
Ltmp2551:
	.loc	23 165 18
	leaq	2(%rdx), %r9
Ltmp2552:
	.loc	16 508 15
	movzbl	1(%rdx), %edi
	.loc	16 507 5
	andl	$63, %edi
Ltmp2553:
LBB47_512:
	.loc	16 0 5 is_stmt 0
	movl	%esi, %ebx
	andl	$31, %ebx
Ltmp2554:
	.loc	16 530 8 is_stmt 1
	cmpb	$-33, %sil
	.loc	16 530 5 is_stmt 0
	jbe	LBB47_592
Ltmp2555:
	.loc	24 3440 9 is_stmt 1
	cmpq	%r8, %r9
	.loc	24 3570 21
	je	LBB47_675
Ltmp2556:
	.loc	16 508 15
	movzbl	(%r9), %r10d
Ltmp2557:
	.loc	23 165 18
	incq	%r9
Ltmp2558:
	.loc	16 507 5
	andl	$63, %r10d
	jmp	LBB47_676
Ltmp2559:
LBB47_515:
	.loc	16 0 5 is_stmt 0
	movl	$14, %eax
	movl	$45, %ebx
Ltmp2560:
LBB47_516:
	movl	%eax, -56(%rbp)
	movl	%ebx, -52(%rbp)
	movl	%esi, -48(%rbp)
Ltmp2561:
LBB47_517:
	movl	-52(%rbp), %ebx
Ltmp2562:
	movl	-48(%rbp), %esi
Ltmp2563:
LBB47_518:
	movl	%eax, (%r15)
Ltmp2564:
LBB47_519:
	movl	%ebx, 4(%r15)
	movl	%esi, 8(%r15)
	jmp	LBB47_724
Ltmp2565:
LBB47_520:
	xorl	%r10d, %r10d
	movq	%r8, %r9
Ltmp2566:
LBB47_521:
	.loc	16 495 5 is_stmt 1
	shll	$6, %edi
Ltmp2567:
	orl	%r10d, %edi
Ltmp2568:
	.loc	16 536 12
	cmpb	$-16, %sil
	.loc	16 536 9 is_stmt 0
	jb	LBB47_524
Ltmp2569:
	.loc	24 3440 9 is_stmt 1
	cmpq	%r8, %r9
	.loc	24 3570 21
	je	LBB47_588
Ltmp2570:
	.loc	16 508 15
	movzbl	(%r9), %esi
Ltmp2571:
	.loc	16 507 5
	andl	$63, %esi
	jmp	LBB47_589
Ltmp2572:
LBB47_524:
	.loc	16 0 5 is_stmt 0
	shll	$12, %ebx
Ltmp2573:
LBB47_525:
	orl	%ebx, %edi
Ltmp2574:
	movl	%edi, %esi
Ltmp2575:
LBB47_526:
	.loc	31 386 16 is_stmt 1
	cmpl	$32, %esi
	.loc	31 386 13 is_stmt 0
	jne	LBB47_537
Ltmp2576:
	.loc	31 0 13
	movq	%rdx, -192(%rbp)
	incq	%rdx
Ltmp2577:
	movq	%rcx, -184(%rbp)
Ltmp2578:
	.loc	16 2070 18 is_stmt 1
	movq	$1, -248(%rbp)
	.loc	16 2070 25 is_stmt 0
	movq	%rcx, -232(%rbp)
Ltmp2579:
	.loc	16 2326 26 is_stmt 1
	cmpq	$1, %rcx
	.loc	16 2326 12 is_stmt 0
	je	LBB47_529
Ltmp2580:
	.loc	16 2332 25 is_stmt 1
	cmpb	$-65, (%rdx)
Ltmp2581:
	.loc	16 2033 13
	jle	LBB47_787
Ltmp2582:
LBB47_529:
	.loc	16 2057 23
	decq	%rcx
Ltmp2583:
	.loc	31 387 17
	movq	%rdx, (%r13)
	movq	%rcx, 8(%r13)
Ltmp2584:
	.loc	31 0 17 is_stmt 0
	leaq	-56(%rbp), %rdi
Ltmp2585:
	.loc	31 92 32 is_stmt 1
	movq	%r13, %rsi
Ltmp2586:
	movl	$98, %edx
Ltmp2587:
	movq	%r14, %rcx
Ltmp2588:
	callq	__ZN4time5parse10parse_type17h7bb98a5de264be65E
Ltmp2589:
	.loc	22 729 13
	movl	-56(%rbp), %eax
Ltmp2590:
	cmpl	$15, %eax
	jne	LBB47_539
Ltmp2591:
	.loc	31 384 11
	movq	8(%r13), %rcx
Ltmp2592:
	.loc	31 0 11 is_stmt 0
	movl	$10, %eax
Ltmp2593:
	.loc	24 3440 9 is_stmt 1
	testq	%rcx, %rcx
	.loc	24 3570 21
	je	LBB47_544
Ltmp2594:
	.loc	31 0 0 is_stmt 0
	movq	(%r13), %rdx
Ltmp2595:
	.loc	16 519 13 is_stmt 1
	movzbl	(%rdx), %esi
Ltmp2596:
	.loc	16 520 8
	testb	%sil, %sil
	.loc	16 520 5 is_stmt 0
	jns	LBB47_694
Ltmp2597:
	.loc	31 0 0
	leaq	(%rdx,%rcx), %r8
Ltmp2598:
	xorl	%edi, %edi
Ltmp2599:
	movq	%r8, %r9
Ltmp2600:
	.loc	24 3440 9 is_stmt 1
	cmpq	$1, %rcx
Ltmp2601:
	.loc	24 3570 21
	je	LBB47_534
Ltmp2602:
	.loc	23 165 18
	leaq	2(%rdx), %r9
Ltmp2603:
	.loc	16 508 15
	movzbl	1(%rdx), %edi
	.loc	16 507 5
	andl	$63, %edi
Ltmp2604:
LBB47_534:
	.loc	16 0 5 is_stmt 0
	movl	%esi, %ebx
	andl	$31, %ebx
Ltmp2605:
	.loc	16 530 8 is_stmt 1
	cmpb	$-33, %sil
	.loc	16 530 5 is_stmt 0
	jbe	LBB47_593
Ltmp2606:
	.loc	24 3440 9 is_stmt 1
	cmpq	%r8, %r9
	.loc	24 3570 21
	je	LBB47_688
Ltmp2607:
	.loc	16 508 15
	movzbl	(%r9), %r10d
Ltmp2608:
	.loc	23 165 18
	incq	%r9
Ltmp2609:
	.loc	16 507 5
	andl	$63, %r10d
	jmp	LBB47_689
Ltmp2610:
LBB47_537:
	.loc	16 0 5 is_stmt 0
	movl	$14, %eax
	movl	$32, %ebx
Ltmp2611:
LBB47_538:
	.loc	22 730 23 is_stmt 1
	movl	%eax, -56(%rbp)
	movl	%ebx, -52(%rbp)
	movl	%esi, -48(%rbp)
Ltmp2612:
LBB47_539:
	.loc	22 730 27 is_stmt 0
	movl	-52(%rbp), %ebx
Ltmp2613:
	movl	-48(%rbp), %esi
Ltmp2614:
LBB47_540:
	.loc	22 730 23
	movl	%eax, -88(%rbp)
	movl	%ebx, -84(%rbp)
	movl	%esi, -80(%rbp)
Ltmp2615:
LBB47_541:
	.loc	22 730 27
	movl	-84(%rbp), %ebx
Ltmp2616:
	movl	-80(%rbp), %esi
Ltmp2617:
LBB47_542:
	.loc	22 730 23
	movl	%eax, -224(%rbp)
	movl	%ebx, -220(%rbp)
	movl	%esi, -216(%rbp)
Ltmp2618:
LBB47_543:
	.loc	22 730 27
	movl	-220(%rbp), %ebx
Ltmp2619:
	movl	-216(%rbp), %esi
Ltmp2620:
	.loc	22 0 27
	jmp	LBB47_518
Ltmp2621:
LBB47_544:
	jmp	LBB47_540
Ltmp2622:
LBB47_545:
	xorl	%esi, %esi
Ltmp2623:
LBB47_546:
	.loc	16 540 18 is_stmt 1
	andl	$7, %edi
Ltmp2624:
	shll	$18, %edi
Ltmp2625:
	.loc	16 495 5
	shll	$6, %edx
Ltmp2626:
	orl	%edi, %edx
Ltmp2627:
	.loc	16 540 13
	orl	%esi, %edx
Ltmp2628:
	.loc	16 0 13 is_stmt 0
	movl	%edx, %esi
Ltmp2629:
	.loc	16 690 13 is_stmt 1
	cmpl	$1114112, %edx
Ltmp2630:
	jne	LBB47_394
Ltmp2631:
LBB47_424:
	.loc	31 0 0 is_stmt 0
	movl	$10, (%r15)
	jmp	LBB47_724
Ltmp2632:
LBB47_548:
	shll	$6, %ebx
Ltmp2633:
	jmp	LBB47_604
Ltmp2634:
LBB47_549:
	shll	$6, %ebx
Ltmp2635:
	jmp	LBB47_615
Ltmp2636:
LBB47_551:
	xorl	%esi, %esi
Ltmp2637:
LBB47_552:
	.loc	16 540 18 is_stmt 1
	andl	$7, %edx
Ltmp2638:
	shll	$18, %edx
Ltmp2639:
	.loc	16 495 5
	shll	$6, %ebx
Ltmp2640:
	orl	%edx, %ebx
Ltmp2641:
	.loc	16 540 13
	orl	%esi, %ebx
Ltmp2642:
	.loc	16 0 13 is_stmt 0
	movl	%ebx, %edi
Ltmp2643:
	.loc	16 690 13 is_stmt 1
	cmpl	$1114112, %ebx
Ltmp2644:
	jne	LBB47_477
Ltmp2645:
LBB47_553:
	.loc	16 519 13
	movzbl	(%rcx), %edi
Ltmp2646:
	.loc	16 520 8
	testb	%dil, %dil
Ltmp2647:
	.loc	16 520 5 is_stmt 0
	jns	LBB47_566
Ltmp2648:
	.loc	16 0 5
	xorl	%esi, %esi
Ltmp2649:
	movq	%r8, %rbx
Ltmp2650:
	.loc	24 3440 9 is_stmt 1
	cmpq	$1, %rax
Ltmp2651:
	.loc	24 3570 21
	je	LBB47_556
Ltmp2652:
	.loc	23 165 18
	leaq	2(%rcx), %rbx
Ltmp2653:
	.loc	16 508 15
	movzbl	1(%rcx), %esi
	.loc	16 507 5
	andl	$63, %esi
Ltmp2654:
LBB47_556:
	.loc	16 0 5 is_stmt 0
	movl	%edi, %edx
	andl	$31, %edx
Ltmp2655:
	.loc	16 530 8 is_stmt 1
	cmpb	$-33, %dil
	.loc	16 530 5 is_stmt 0
	jbe	LBB47_559
Ltmp2656:
	.loc	24 3440 9 is_stmt 1
	cmpq	%r8, %rbx
	.loc	24 3570 21
	je	LBB47_560
Ltmp2657:
	.loc	16 508 15
	movzbl	(%rbx), %r9d
Ltmp2658:
	.loc	23 165 18
	incq	%rbx
Ltmp2659:
	.loc	16 507 5
	andl	$63, %r9d
	jmp	LBB47_561
Ltmp2660:
LBB47_559:
	.loc	16 0 5 is_stmt 0
	shll	$6, %edx
Ltmp2661:
	jmp	LBB47_565
Ltmp2662:
LBB47_560:
	xorl	%r9d, %r9d
	movq	%r8, %rbx
Ltmp2663:
LBB47_561:
	.loc	16 495 5 is_stmt 1
	shll	$6, %esi
Ltmp2664:
	orl	%r9d, %esi
Ltmp2665:
	.loc	16 536 12
	cmpb	$-16, %dil
	.loc	16 536 9 is_stmt 0
	jb	LBB47_564
Ltmp2666:
	.loc	24 3440 9 is_stmt 1
	cmpq	%r8, %rbx
	.loc	24 3570 21
	je	LBB47_639
Ltmp2667:
	.loc	16 508 15
	movzbl	(%rbx), %edi
Ltmp2668:
	.loc	16 507 5
	andl	$63, %edi
	jmp	LBB47_640
Ltmp2669:
LBB47_564:
	.loc	16 0 5 is_stmt 0
	shll	$12, %edx
Ltmp2670:
LBB47_565:
	orl	%edx, %esi
Ltmp2671:
	movl	%esi, %edi
Ltmp2672:
LBB47_566:
	.loc	31 386 16 is_stmt 1
	cmpl	$45, %edi
	.loc	31 386 13 is_stmt 0
	jne	LBB47_578
Ltmp2673:
	.loc	31 0 13
	movq	%rcx, -192(%rbp)
	incq	%rcx
Ltmp2674:
	movq	%rax, -184(%rbp)
Ltmp2675:
	.loc	16 2070 18 is_stmt 1
	movq	$1, -56(%rbp)
	.loc	16 2070 25 is_stmt 0
	movq	%rax, -72(%rbp)
Ltmp2676:
	.loc	16 2326 26 is_stmt 1
	cmpq	$1, %rax
	.loc	16 2326 12 is_stmt 0
	je	LBB47_569
Ltmp2677:
	.loc	16 2332 25 is_stmt 1
	cmpb	$-65, (%rcx)
Ltmp2678:
	.loc	16 2033 13
	jle	LBB47_773
Ltmp2679:
LBB47_569:
	.loc	16 0 13 is_stmt 0
	movl	$-1, %ebx
	movq	%rcx, %r9
Ltmp2680:
LBB47_570:
	movq	%r9, (%r13)
	decq	%rax
	movq	%rax, 8(%r13)
Ltmp2681:
	.loc	31 319 11 is_stmt 1
	movl	$2, %esi
	movl	$2, %edx
	movq	%r13, %rdi
	xorl	%ecx, %ecx
	callq	__ZN4time5parse16match_digits_i6417h53cc8d41fc9e7a1bE
	.loc	31 320 9
	testq	%rax, %rax
Ltmp2682:
	.loc	31 277 21
	je	LBB47_578
Ltmp2683:
	.loc	31 0 0 is_stmt 0
	movq	%rdx, %r12
Ltmp2684:
	.loc	31 384 11 is_stmt 1
	movq	8(%r13), %rax
Ltmp2685:
	.loc	24 3440 9
	testq	%rax, %rax
	.loc	24 3570 21
	je	LBB47_631
Ltmp2686:
	.loc	31 0 0 is_stmt 0
	movq	(%r13), %rcx
Ltmp2687:
	.loc	16 519 13 is_stmt 1
	movzbl	(%rcx), %esi
Ltmp2688:
	.loc	16 520 8
	testb	%sil, %sil
	.loc	16 520 5 is_stmt 0
	jns	LBB47_627
Ltmp2689:
	.loc	31 0 0
	leaq	(%rcx,%rax), %r8
Ltmp2690:
	xorl	%edx, %edx
Ltmp2691:
	movq	%r8, %r9
Ltmp2692:
	.loc	24 3440 9 is_stmt 1
	cmpq	$1, %rax
Ltmp2693:
	.loc	24 3570 21
	je	LBB47_575
Ltmp2694:
	.loc	23 165 18
	leaq	2(%rcx), %r9
Ltmp2695:
	.loc	16 508 15
	movzbl	1(%rcx), %edx
	.loc	16 507 5
	andl	$63, %edx
Ltmp2696:
LBB47_575:
	.loc	16 0 5 is_stmt 0
	movl	%esi, %edi
	andl	$31, %edi
Ltmp2697:
	.loc	16 530 8 is_stmt 1
	cmpb	$-33, %sil
	.loc	16 530 5 is_stmt 0
	jbe	LBB47_579
Ltmp2698:
	.loc	24 3440 9 is_stmt 1
	cmpq	%r8, %r9
	.loc	24 3570 21
	je	LBB47_621
Ltmp2699:
	.loc	16 508 15
	movzbl	(%r9), %r10d
Ltmp2700:
	.loc	23 165 18
	incq	%r9
Ltmp2701:
	.loc	16 507 5
	andl	$63, %r10d
	jmp	LBB47_622
Ltmp2702:
LBB47_579:
	.loc	16 0 5 is_stmt 0
	shll	$6, %edi
Ltmp2703:
	jmp	LBB47_626
Ltmp2704:
LBB47_580:
	xorl	%esi, %esi
Ltmp2705:
LBB47_581:
	.loc	16 540 18 is_stmt 1
	andl	$7, %ebx
Ltmp2706:
	shll	$18, %ebx
Ltmp2707:
	.loc	16 495 5
	shll	$6, %edi
Ltmp2708:
	orl	%ebx, %edi
Ltmp2709:
	.loc	16 540 13
	orl	%esi, %edi
Ltmp2710:
	.loc	16 0 13 is_stmt 0
	movl	%edi, %esi
Ltmp2711:
	.loc	16 690 13 is_stmt 1
	cmpl	$1114112, %edi
Ltmp2712:
	je	LBB47_239
	jmp	LBB47_431
Ltmp2713:
LBB47_582:
	.loc	16 0 13 is_stmt 0
	xorl	%esi, %esi
Ltmp2714:
LBB47_583:
	.loc	16 540 18 is_stmt 1
	andl	$7, %ebx
Ltmp2715:
	shll	$18, %ebx
Ltmp2716:
	.loc	16 495 5
	shll	$6, %edi
Ltmp2717:
	orl	%ebx, %edi
Ltmp2718:
	.loc	16 540 13
	orl	%esi, %edi
Ltmp2719:
	.loc	16 0 13 is_stmt 0
	movl	%edi, %esi
Ltmp2720:
	.loc	16 690 13 is_stmt 1
	cmpl	$1114112, %edi
Ltmp2721:
	jne	LBB47_442
	jmp	LBB47_454
Ltmp2722:
LBB47_584:
	.loc	16 0 13 is_stmt 0
	xorl	%esi, %esi
Ltmp2723:
LBB47_585:
	.loc	16 540 18 is_stmt 1
	andl	$7, %ebx
Ltmp2724:
	shll	$18, %ebx
Ltmp2725:
	.loc	16 495 5
	shll	$6, %edi
Ltmp2726:
	orl	%ebx, %edi
Ltmp2727:
	.loc	16 540 13
	orl	%esi, %edi
Ltmp2728:
	.loc	16 0 13 is_stmt 0
	movl	%edi, %esi
Ltmp2729:
	.loc	16 690 13 is_stmt 1
	cmpl	$1114112, %edi
Ltmp2730:
	jne	LBB47_487
	jmp	LBB47_516
Ltmp2731:
LBB47_586:
	.loc	16 0 13 is_stmt 0
	xorl	%esi, %esi
Ltmp2732:
LBB47_587:
	.loc	16 540 18 is_stmt 1
	andl	$7, %ebx
Ltmp2733:
	shll	$18, %ebx
Ltmp2734:
	.loc	16 495 5
	shll	$6, %edi
Ltmp2735:
	orl	%ebx, %edi
Ltmp2736:
	.loc	16 540 13
	orl	%esi, %edi
Ltmp2737:
	.loc	16 0 13 is_stmt 0
	movl	%edi, %esi
Ltmp2738:
	.loc	16 690 13 is_stmt 1
	cmpl	$1114112, %edi
Ltmp2739:
	jne	LBB47_504
	jmp	LBB47_516
Ltmp2740:
LBB47_588:
	.loc	16 0 13 is_stmt 0
	xorl	%esi, %esi
Ltmp2741:
LBB47_589:
	.loc	16 540 18 is_stmt 1
	andl	$7, %ebx
Ltmp2742:
	shll	$18, %ebx
Ltmp2743:
	.loc	16 495 5
	shll	$6, %edi
Ltmp2744:
	orl	%ebx, %edi
Ltmp2745:
	.loc	16 540 13
	orl	%esi, %edi
Ltmp2746:
	.loc	16 0 13 is_stmt 0
	movl	%edi, %esi
Ltmp2747:
	.loc	16 690 13 is_stmt 1
	cmpl	$1114112, %edi
Ltmp2748:
	jne	LBB47_526
	jmp	LBB47_538
Ltmp2749:
LBB47_590:
	.loc	16 0 13 is_stmt 0
	shll	$6, %ebx
Ltmp2750:
	jmp	LBB47_651
Ltmp2751:
LBB47_591:
	shll	$6, %ebx
Ltmp2752:
	jmp	LBB47_670
Ltmp2753:
LBB47_592:
	shll	$6, %ebx
Ltmp2754:
	jmp	LBB47_680
Ltmp2755:
LBB47_593:
	shll	$6, %ebx
Ltmp2756:
	jmp	LBB47_693
Ltmp2757:
LBB47_594:
	movl	$9, %edx
	leaq	l___unnamed_144+72(%rip), %rsi
Ltmp2758:
	.loc	32 331 9 is_stmt 1
	leaq	l___unnamed_83(%rip), %rdi
Ltmp2759:
	cmpq	%rdi, %rcx
Ltmp2760:
	.loc	24 6271 9
	je	LBB47_317
Ltmp2761:
	.loc	24 0 9 is_stmt 0
	movabsq	$7017860998831039831, %rdi
Ltmp2762:
	.loc	24 6276 13 is_stmt 1
	xorq	(%rcx), %rdi
	movzbl	8(%rcx), %ebx
	xorq	$121, %rbx
	orq	%rdi, %rbx
Ltmp2763:
	.loc	24 1436 9
	je	LBB47_317
Ltmp2764:
LBB47_596:
	.loc	24 0 9 is_stmt 0
	movl	$8, %edx
	leaq	l___unnamed_144+96(%rip), %rsi
Ltmp2765:
	.loc	32 331 9 is_stmt 1
	leaq	L___unnamed_81(%rip), %rdi
Ltmp2766:
	cmpq	%rdi, %rcx
Ltmp2767:
	.loc	24 6271 9
	je	LBB47_317
Ltmp2768:
	.loc	24 0 9 is_stmt 0
	movabsq	$8746382398334527572, %rdi
Ltmp2769:
	.loc	24 6276 13 is_stmt 1
	cmpq	%rdi, (%rcx)
Ltmp2770:
	.loc	24 1436 9
	je	LBB47_317
Ltmp2771:
	.loc	24 0 9 is_stmt 0
	xorl	%r8d, %r8d
	jmp	LBB47_266
Ltmp2772:
LBB47_599:
	xorl	%r10d, %r10d
	movq	%r8, %r9
Ltmp2773:
LBB47_600:
	.loc	16 495 5 is_stmt 1
	shll	$6, %edi
Ltmp2774:
	orl	%r10d, %edi
Ltmp2775:
	.loc	16 536 12
	cmpb	$-16, %sil
	.loc	16 536 9 is_stmt 0
	jb	LBB47_603
Ltmp2776:
	.loc	24 3440 9 is_stmt 1
	cmpq	%r8, %r9
	.loc	24 3570 21
	je	LBB47_642
Ltmp2777:
	.loc	16 508 15
	movzbl	(%r9), %esi
Ltmp2778:
	.loc	16 507 5
	andl	$63, %esi
	jmp	LBB47_643
Ltmp2779:
LBB47_603:
	.loc	16 0 5 is_stmt 0
	shll	$12, %ebx
Ltmp2780:
LBB47_604:
	orl	%ebx, %edi
Ltmp2781:
	movl	%edi, %esi
Ltmp2782:
LBB47_605:
	.loc	31 386 16 is_stmt 1
	cmpl	$47, %esi
	.loc	31 386 13 is_stmt 0
	jne	LBB47_609
Ltmp2783:
	.loc	31 0 13
	movq	%rdx, -192(%rbp)
	incq	%rdx
Ltmp2784:
	movq	%rcx, -184(%rbp)
Ltmp2785:
	.loc	16 2070 18 is_stmt 1
	movq	$1, -88(%rbp)
	.loc	16 2070 25 is_stmt 0
	movq	%rcx, -72(%rbp)
Ltmp2786:
	.loc	16 2326 26 is_stmt 1
	cmpq	$1, %rcx
	.loc	16 2326 12 is_stmt 0
	je	LBB47_608
Ltmp2787:
	.loc	16 2332 25 is_stmt 1
	cmpb	$-65, (%rdx)
Ltmp2788:
	.loc	16 2033 13
	jle	LBB47_788
Ltmp2789:
LBB47_608:
	.loc	16 2057 23
	decq	%rcx
Ltmp2790:
	.loc	31 387 17
	movq	%rdx, (%r13)
	movq	%rcx, 8(%r13)
Ltmp2791:
	.loc	31 105 32
	movq	%r15, %rdi
	movq	%r13, %rsi
Ltmp2792:
	movl	$121, %edx
Ltmp2793:
	.loc	31 0 32 is_stmt 0
	jmp	LBB47_686
Ltmp2794:
LBB47_609:
	movl	$14, %eax
	movl	$47, %ebx
	jmp	LBB47_518
Ltmp2795:
LBB47_610:
	xorl	%r10d, %r10d
	movq	%r8, %r9
Ltmp2796:
LBB47_611:
	.loc	16 495 5 is_stmt 1
	shll	$6, %edi
Ltmp2797:
	orl	%r10d, %edi
Ltmp2798:
	.loc	16 536 12
	cmpb	$-16, %sil
	.loc	16 536 9 is_stmt 0
	jb	LBB47_614
Ltmp2799:
	.loc	24 3440 9 is_stmt 1
	cmpq	%r8, %r9
	.loc	24 3570 21
	je	LBB47_644
Ltmp2800:
	.loc	16 508 15
	movzbl	(%r9), %esi
Ltmp2801:
	.loc	16 507 5
	andl	$63, %esi
	jmp	LBB47_645
Ltmp2802:
LBB47_614:
	.loc	16 0 5 is_stmt 0
	shll	$12, %ebx
Ltmp2803:
LBB47_615:
	orl	%ebx, %edi
Ltmp2804:
	movl	%edi, %esi
Ltmp2805:
LBB47_616:
	.loc	31 386 16 is_stmt 1
	cmpl	$58, %esi
	.loc	31 386 13 is_stmt 0
	jne	LBB47_620
Ltmp2806:
	.loc	31 0 13
	movq	%rdx, -192(%rbp)
	incq	%rdx
Ltmp2807:
	movq	%rcx, -184(%rbp)
Ltmp2808:
	.loc	16 2070 18 is_stmt 1
	movq	$1, -88(%rbp)
	.loc	16 2070 25 is_stmt 0
	movq	%rcx, -72(%rbp)
Ltmp2809:
	.loc	16 2326 26 is_stmt 1
	cmpq	$1, %rcx
	.loc	16 2326 12 is_stmt 0
	je	LBB47_619
Ltmp2810:
	.loc	16 2332 25 is_stmt 1
	cmpb	$-65, (%rdx)
Ltmp2811:
	.loc	16 2033 13
	jle	LBB47_788
Ltmp2812:
LBB47_619:
	.loc	16 2057 23
	decq	%rcx
Ltmp2813:
	.loc	31 387 17
	movq	%rdx, (%r13)
	movq	%rcx, 8(%r13)
Ltmp2814:
	.loc	31 212 32
	movq	%r15, %rdi
	movq	%r13, %rsi
Ltmp2815:
	movl	$83, %edx
Ltmp2816:
	.loc	31 0 32 is_stmt 0
	jmp	LBB47_686
Ltmp2817:
LBB47_620:
	movl	$14, %eax
	movl	$58, %ebx
	jmp	LBB47_518
Ltmp2818:
LBB47_621:
	xorl	%r10d, %r10d
	movq	%r8, %r9
Ltmp2819:
LBB47_622:
	.loc	16 495 5 is_stmt 1
	shll	$6, %edx
Ltmp2820:
	orl	%r10d, %edx
Ltmp2821:
	.loc	16 536 12
	cmpb	$-16, %sil
	.loc	16 536 9 is_stmt 0
	jb	LBB47_625
Ltmp2822:
	.loc	24 3440 9 is_stmt 1
	cmpq	%r8, %r9
	.loc	24 3570 21
	je	LBB47_707
Ltmp2823:
	.loc	16 508 15
	movzbl	(%r9), %esi
Ltmp2824:
	.loc	16 507 5
	andl	$63, %esi
	jmp	LBB47_708
Ltmp2825:
LBB47_625:
	.loc	16 0 5 is_stmt 0
	shll	$12, %edi
Ltmp2826:
LBB47_626:
	orl	%edi, %edx
Ltmp2827:
	movl	%edx, %esi
Ltmp2828:
LBB47_627:
	.loc	31 386 16 is_stmt 1
	cmpl	$58, %esi
	.loc	31 386 13 is_stmt 0
	jne	LBB47_631
Ltmp2829:
	.loc	31 0 13
	movq	%rcx, -192(%rbp)
	incq	%rcx
Ltmp2830:
	movq	%rax, -184(%rbp)
Ltmp2831:
	.loc	16 2070 18 is_stmt 1
	movq	$1, -56(%rbp)
	.loc	16 2070 25 is_stmt 0
	movq	%rax, -72(%rbp)
Ltmp2832:
	.loc	16 2326 26 is_stmt 1
	cmpq	$1, %rax
	.loc	16 2326 12 is_stmt 0
	je	LBB47_630
Ltmp2833:
	.loc	16 2332 25 is_stmt 1
	cmpb	$-65, (%rcx)
Ltmp2834:
	.loc	16 2033 13
	jle	LBB47_773
Ltmp2835:
LBB47_630:
	.loc	16 2057 23
	decq	%rax
Ltmp2836:
	.loc	31 387 17
	movq	%rcx, (%r13)
	movq	%rax, 8(%r13)
Ltmp2837:
LBB47_631:
	.loc	31 319 11
	movl	$2, %esi
	movl	$2, %edx
	movq	%r13, %rdi
	xorl	%ecx, %ecx
	callq	__ZN4time5parse16match_digits_i6417h53cc8d41fc9e7a1bE
	.loc	31 320 9
	testq	%rax, %rax
Ltmp2838:
	.loc	31 286 21
	je	LBB47_578
Ltmp2839:
	.loc	31 290 40
	imull	$60, %r12d, %eax
	jo	LBB47_781
Ltmp2840:
	imull	$60, %eax, %eax
	jo	LBB47_781
Ltmp2841:
	.loc	31 290 58 is_stmt 0
	imull	$60, %edx, %ecx
	jo	LBB47_782
Ltmp2842:
	.loc	31 290 39
	addl	%ecx, %eax
	jo	LBB47_783
Ltmp2843:
	.loc	31 290 32
	imull	%eax, %ebx
Ltmp2844:
	jo	LBB47_784
Ltmp2845:
	.loc	31 290 17
	movl	%ebx, 36(%r14)
	jmp	LBB47_723
Ltmp2846:
LBB47_639:
	.loc	31 0 17
	xorl	%edi, %edi
Ltmp2847:
LBB47_640:
	.loc	16 540 18 is_stmt 1
	andl	$7, %edx
Ltmp2848:
	shll	$18, %edx
Ltmp2849:
	.loc	16 495 5
	shll	$6, %esi
Ltmp2850:
	orl	%edx, %esi
Ltmp2851:
	.loc	16 540 13
	orl	%edi, %esi
Ltmp2852:
	.loc	16 0 13 is_stmt 0
	movl	%esi, %edi
Ltmp2853:
	.loc	16 690 13 is_stmt 1
	cmpl	$1114112, %esi
Ltmp2854:
	jne	LBB47_566
Ltmp2855:
LBB47_578:
	.loc	31 0 0 is_stmt 0
	movl	$9, (%r15)
	jmp	LBB47_724
Ltmp2856:
LBB47_642:
	xorl	%esi, %esi
Ltmp2857:
LBB47_643:
	.loc	16 540 18 is_stmt 1
	andl	$7, %ebx
Ltmp2858:
	shll	$18, %ebx
Ltmp2859:
	.loc	16 495 5
	shll	$6, %edi
Ltmp2860:
	orl	%ebx, %edi
Ltmp2861:
	.loc	16 540 13
	orl	%esi, %edi
Ltmp2862:
	.loc	16 0 13 is_stmt 0
	movl	%edi, %esi
Ltmp2863:
	.loc	16 690 13 is_stmt 1
	cmpl	$1114112, %edi
Ltmp2864:
	je	LBB47_518
	jmp	LBB47_605
Ltmp2865:
LBB47_644:
	.loc	16 0 13 is_stmt 0
	xorl	%esi, %esi
Ltmp2866:
LBB47_645:
	.loc	16 540 18 is_stmt 1
	andl	$7, %ebx
Ltmp2867:
	shll	$18, %ebx
Ltmp2868:
	.loc	16 495 5
	shll	$6, %edi
Ltmp2869:
	orl	%ebx, %edi
Ltmp2870:
	.loc	16 540 13
	orl	%esi, %edi
Ltmp2871:
	.loc	16 0 13 is_stmt 0
	movl	%edi, %esi
Ltmp2872:
	.loc	16 690 13 is_stmt 1
	cmpl	$1114112, %edi
Ltmp2873:
	je	LBB47_518
	jmp	LBB47_616
Ltmp2874:
LBB47_646:
	.loc	16 0 13 is_stmt 0
	xorl	%r10d, %r10d
	movq	%r8, %r9
Ltmp2875:
LBB47_647:
	.loc	16 495 5 is_stmt 1
	shll	$6, %edi
Ltmp2876:
	orl	%r10d, %edi
Ltmp2877:
	.loc	16 536 12
	cmpb	$-16, %sil
	.loc	16 536 9 is_stmt 0
	jb	LBB47_650
Ltmp2878:
	.loc	24 3440 9 is_stmt 1
	cmpq	%r8, %r9
	.loc	24 3570 21
	je	LBB47_709
Ltmp2879:
	.loc	16 508 15
	movzbl	(%r9), %esi
Ltmp2880:
	.loc	16 507 5
	andl	$63, %esi
	jmp	LBB47_710
Ltmp2881:
LBB47_650:
	.loc	16 0 5 is_stmt 0
	shll	$12, %ebx
Ltmp2882:
LBB47_651:
	orl	%ebx, %edi
Ltmp2883:
	movl	%edi, %esi
Ltmp2884:
LBB47_652:
	.loc	31 386 16 is_stmt 1
	cmpl	$58, %esi
	.loc	31 386 13 is_stmt 0
	jne	LBB47_664
Ltmp2885:
	.loc	31 0 13
	movq	%rdx, -192(%rbp)
	incq	%rdx
Ltmp2886:
	movq	%rcx, -184(%rbp)
Ltmp2887:
	.loc	16 2070 18 is_stmt 1
	movq	$1, -224(%rbp)
	.loc	16 2070 25 is_stmt 0
	movq	%rcx, -72(%rbp)
Ltmp2888:
	.loc	16 2326 26 is_stmt 1
	cmpq	$1, %rcx
	.loc	16 2326 12 is_stmt 0
	je	LBB47_655
Ltmp2889:
	.loc	16 2332 25 is_stmt 1
	cmpb	$-65, (%rdx)
Ltmp2890:
	.loc	16 2033 13
	jle	LBB47_789
Ltmp2891:
LBB47_655:
	.loc	16 2057 23
	decq	%rcx
Ltmp2892:
	.loc	31 387 17
	movq	%rdx, (%r13)
	movq	%rcx, 8(%r13)
Ltmp2893:
	.loc	31 0 17 is_stmt 0
	leaq	-88(%rbp), %rdi
Ltmp2894:
	.loc	31 187 32 is_stmt 1
	movq	%r13, %rsi
Ltmp2895:
	movl	$83, %edx
Ltmp2896:
	movq	%r14, %rcx
Ltmp2897:
	callq	__ZN4time5parse10parse_type17h7bb98a5de264be65E
Ltmp2898:
	.loc	22 729 13
	movl	-88(%rbp), %eax
Ltmp2899:
	cmpl	$15, %eax
	jne	LBB47_457
Ltmp2900:
	.loc	31 384 11
	movq	8(%r13), %rcx
Ltmp2901:
	.loc	31 0 11 is_stmt 0
	movl	$10, %eax
Ltmp2902:
	.loc	24 3440 9 is_stmt 1
	testq	%rcx, %rcx
	.loc	24 3570 21
	je	LBB47_663
Ltmp2903:
	.loc	31 0 0 is_stmt 0
	movq	(%r13), %rdx
Ltmp2904:
	.loc	16 519 13 is_stmt 1
	movzbl	(%rdx), %esi
Ltmp2905:
	.loc	16 520 8
	testb	%sil, %sil
	.loc	16 520 5 is_stmt 0
	jns	LBB47_731
Ltmp2906:
	.loc	31 0 0
	leaq	(%rdx,%rcx), %r8
Ltmp2907:
	xorl	%edi, %edi
Ltmp2908:
	movq	%r8, %r9
Ltmp2909:
	.loc	24 3440 9 is_stmt 1
	cmpq	$1, %rcx
Ltmp2910:
	.loc	24 3570 21
	je	LBB47_660
Ltmp2911:
	.loc	23 165 18
	leaq	2(%rdx), %r9
Ltmp2912:
	.loc	16 508 15
	movzbl	1(%rdx), %edi
	.loc	16 507 5
	andl	$63, %edi
Ltmp2913:
LBB47_660:
	.loc	16 0 5 is_stmt 0
	movl	%esi, %ebx
	andl	$31, %ebx
Ltmp2914:
	.loc	16 530 8 is_stmt 1
	cmpb	$-33, %sil
	.loc	16 530 5 is_stmt 0
	jbe	LBB47_717
Ltmp2915:
	.loc	24 3440 9 is_stmt 1
	cmpq	%r8, %r9
	.loc	24 3570 21
	je	LBB47_725
Ltmp2916:
	.loc	16 508 15
	movzbl	(%r9), %r10d
Ltmp2917:
	.loc	23 165 18
	incq	%r9
Ltmp2918:
	.loc	16 507 5
	andl	$63, %r10d
	jmp	LBB47_726
Ltmp2919:
LBB47_663:
	.loc	16 0 5 is_stmt 0
	jmp	LBB47_518
Ltmp2920:
LBB47_664:
	movl	$14, %eax
	movl	$58, %ebx
	jmp	LBB47_456
Ltmp2921:
LBB47_665:
	xorl	%r10d, %r10d
	movq	%r8, %r9
Ltmp2922:
LBB47_666:
	.loc	16 495 5 is_stmt 1
	shll	$6, %edi
Ltmp2923:
	orl	%r10d, %edi
Ltmp2924:
	.loc	16 536 12
	cmpb	$-16, %sil
	.loc	16 536 9 is_stmt 0
	jb	LBB47_669
Ltmp2925:
	.loc	24 3440 9 is_stmt 1
	cmpq	%r8, %r9
	.loc	24 3570 21
	je	LBB47_711
Ltmp2926:
	.loc	16 508 15
	movzbl	(%r9), %esi
Ltmp2927:
	.loc	16 507 5
	andl	$63, %esi
	jmp	LBB47_712
Ltmp2928:
LBB47_669:
	.loc	16 0 5 is_stmt 0
	shll	$12, %ebx
Ltmp2929:
LBB47_670:
	orl	%ebx, %edi
Ltmp2930:
	movl	%edi, %esi
Ltmp2931:
LBB47_671:
	.loc	31 386 16 is_stmt 1
	cmpl	$45, %esi
	.loc	31 386 13 is_stmt 0
	jne	LBB47_687
Ltmp2932:
	.loc	31 0 13
	movq	%rdx, -192(%rbp)
	incq	%rdx
Ltmp2933:
	movq	%rcx, -184(%rbp)
Ltmp2934:
	.loc	16 2070 18 is_stmt 1
	movq	$1, -88(%rbp)
	.loc	16 2070 25 is_stmt 0
	movq	%rcx, -72(%rbp)
Ltmp2935:
	.loc	16 2326 26 is_stmt 1
	cmpq	$1, %rcx
	.loc	16 2326 12 is_stmt 0
	je	LBB47_674
Ltmp2936:
	.loc	16 2332 25 is_stmt 1
	cmpb	$-65, (%rdx)
Ltmp2937:
	.loc	16 2033 13
	jle	LBB47_788
Ltmp2938:
LBB47_674:
	.loc	16 2057 23
	decq	%rcx
Ltmp2939:
	.loc	31 387 17
	movq	%rdx, (%r13)
	movq	%rcx, 8(%r13)
Ltmp2940:
	.loc	31 124 32
	movq	%r15, %rdi
	movq	%r13, %rsi
Ltmp2941:
	movl	$100, %edx
Ltmp2942:
	.loc	31 0 32 is_stmt 0
	jmp	LBB47_686
Ltmp2943:
LBB47_675:
	xorl	%r10d, %r10d
	movq	%r8, %r9
Ltmp2944:
LBB47_676:
	.loc	16 495 5 is_stmt 1
	shll	$6, %edi
Ltmp2945:
	orl	%r10d, %edi
Ltmp2946:
	.loc	16 536 12
	cmpb	$-16, %sil
	.loc	16 536 9 is_stmt 0
	jb	LBB47_679
Ltmp2947:
	.loc	24 3440 9 is_stmt 1
	cmpq	%r8, %r9
	.loc	24 3570 21
	je	LBB47_713
Ltmp2948:
	.loc	16 508 15
	movzbl	(%r9), %esi
Ltmp2949:
	.loc	16 507 5
	andl	$63, %esi
	jmp	LBB47_714
Ltmp2950:
LBB47_679:
	.loc	16 0 5 is_stmt 0
	shll	$12, %ebx
Ltmp2951:
LBB47_680:
	orl	%ebx, %edi
Ltmp2952:
	movl	%edi, %esi
Ltmp2953:
LBB47_681:
	.loc	31 386 16 is_stmt 1
	cmpl	$45, %esi
	.loc	31 386 13 is_stmt 0
	jne	LBB47_687
Ltmp2954:
	.loc	31 0 13
	movq	%rdx, -192(%rbp)
	incq	%rdx
Ltmp2955:
	movq	%rcx, -184(%rbp)
Ltmp2956:
	.loc	16 2070 18 is_stmt 1
	movq	$1, -88(%rbp)
	.loc	16 2070 25 is_stmt 0
	movq	%rcx, -72(%rbp)
Ltmp2957:
	.loc	16 2326 26 is_stmt 1
	cmpq	$1, %rcx
	.loc	16 2326 12 is_stmt 0
	je	LBB47_684
Ltmp2958:
	.loc	16 2332 25 is_stmt 1
	cmpb	$-65, (%rdx)
Ltmp2959:
	.loc	16 2033 13
	jle	LBB47_788
Ltmp2960:
LBB47_684:
	.loc	16 2057 23
	decq	%rcx
Ltmp2961:
	.loc	31 387 17
	movq	%rdx, (%r13)
	movq	%rcx, 8(%r13)
Ltmp2962:
	.loc	31 226 32
	movq	%r15, %rdi
	movq	%r13, %rsi
Ltmp2963:
LBB47_685:
	.loc	31 0 0 is_stmt 0
	movl	$89, %edx
Ltmp2964:
LBB47_686:
	movq	%r14, %rcx
	addq	$216, %rsp
	popq	%rbx
	popq	%r12
	popq	%r13
	popq	%r14
Ltmp2965:
	popq	%r15
	popq	%rbp
	jmp	__ZN4time5parse10parse_type17h7bb98a5de264be65E
LBB47_687:
Ltmp2966:
	movl	$14, %eax
	movl	$45, %ebx
	jmp	LBB47_518
Ltmp2967:
LBB47_688:
	xorl	%r10d, %r10d
	movq	%r8, %r9
Ltmp2968:
LBB47_689:
	.loc	16 495 5 is_stmt 1
	shll	$6, %edi
Ltmp2969:
	orl	%r10d, %edi
Ltmp2970:
	.loc	16 536 12
	cmpb	$-16, %sil
	.loc	16 536 9 is_stmt 0
	jb	LBB47_692
Ltmp2971:
	.loc	24 3440 9 is_stmt 1
	cmpq	%r8, %r9
	.loc	24 3570 21
	je	LBB47_715
Ltmp2972:
	.loc	16 508 15
	movzbl	(%r9), %esi
Ltmp2973:
	.loc	16 507 5
	andl	$63, %esi
	jmp	LBB47_716
Ltmp2974:
LBB47_692:
	.loc	16 0 5 is_stmt 0
	shll	$12, %ebx
Ltmp2975:
LBB47_693:
	orl	%ebx, %edi
Ltmp2976:
	movl	%edi, %esi
Ltmp2977:
LBB47_694:
	.loc	31 386 16 is_stmt 1
	cmpl	$32, %esi
	.loc	31 386 13 is_stmt 0
	jne	LBB47_705
Ltmp2978:
	.loc	31 0 13
	movq	%rdx, -192(%rbp)
	incq	%rdx
Ltmp2979:
	movq	%rcx, -184(%rbp)
Ltmp2980:
	.loc	16 2070 18 is_stmt 1
	movq	$1, -232(%rbp)
	.loc	16 2070 25 is_stmt 0
	movq	%rcx, -72(%rbp)
Ltmp2981:
	.loc	16 2326 26 is_stmt 1
	cmpq	$1, %rcx
	.loc	16 2326 12 is_stmt 0
	je	LBB47_697
Ltmp2982:
	.loc	16 2332 25 is_stmt 1
	cmpb	$-65, (%rdx)
Ltmp2983:
	.loc	16 2033 13
	jle	LBB47_790
Ltmp2984:
LBB47_697:
	.loc	16 2057 23
	decq	%rcx
Ltmp2985:
	.loc	31 387 17
	movq	%rdx, (%r13)
	movq	%rcx, 8(%r13)
Ltmp2986:
	.loc	31 0 17 is_stmt 0
	leaq	-88(%rbp), %rdi
Ltmp2987:
	.loc	31 94 32 is_stmt 1
	movq	%r13, %rsi
Ltmp2988:
	movl	$101, %edx
Ltmp2989:
	movq	%r14, %rcx
Ltmp2990:
	callq	__ZN4time5parse10parse_type17h7bb98a5de264be65E
Ltmp2991:
	.loc	22 729 13
	movl	-88(%rbp), %eax
Ltmp2992:
	cmpl	$15, %eax
	jne	LBB47_541
Ltmp2993:
	.loc	31 384 11
	movq	8(%r13), %rcx
Ltmp2994:
	.loc	31 0 11 is_stmt 0
	movl	$10, %eax
Ltmp2995:
	.loc	24 3440 9 is_stmt 1
	testq	%rcx, %rcx
	.loc	24 3570 21
	je	LBB47_706
Ltmp2996:
	.loc	31 0 0 is_stmt 0
	movq	(%r13), %rdx
Ltmp2997:
	.loc	16 519 13 is_stmt 1
	movzbl	(%rdx), %esi
Ltmp2998:
	.loc	16 520 8
	testb	%sil, %sil
	.loc	16 520 5 is_stmt 0
	jns	LBB47_742
Ltmp2999:
	.loc	31 0 0
	leaq	(%rdx,%rcx), %r8
Ltmp3000:
	xorl	%edi, %edi
Ltmp3001:
	movq	%r8, %r9
Ltmp3002:
	.loc	24 3440 9 is_stmt 1
	cmpq	$1, %rcx
Ltmp3003:
	.loc	24 3570 21
	je	LBB47_702
Ltmp3004:
	.loc	23 165 18
	leaq	2(%rdx), %r9
Ltmp3005:
	.loc	16 508 15
	movzbl	1(%rdx), %edi
	.loc	16 507 5
	andl	$63, %edi
Ltmp3006:
LBB47_702:
	.loc	16 0 5 is_stmt 0
	movl	%esi, %ebx
	andl	$31, %ebx
Ltmp3007:
	.loc	16 530 8 is_stmt 1
	cmpb	$-33, %sil
	.loc	16 530 5 is_stmt 0
	jbe	LBB47_718
Ltmp3008:
	.loc	24 3440 9 is_stmt 1
	cmpq	%r8, %r9
	.loc	24 3570 21
	je	LBB47_736
Ltmp3009:
	.loc	16 508 15
	movzbl	(%r9), %r10d
Ltmp3010:
	.loc	23 165 18
	incq	%r9
Ltmp3011:
	.loc	16 507 5
	andl	$63, %r10d
	jmp	LBB47_737
Ltmp3012:
LBB47_705:
	.loc	16 0 5 is_stmt 0
	movl	$14, %eax
	movl	$32, %ebx
	jmp	LBB47_540
Ltmp3013:
LBB47_706:
	jmp	LBB47_542
Ltmp3014:
LBB47_707:
	xorl	%esi, %esi
Ltmp3015:
LBB47_708:
	.loc	16 540 18 is_stmt 1
	andl	$7, %edi
Ltmp3016:
	shll	$18, %edi
Ltmp3017:
	.loc	16 495 5
	shll	$6, %edx
Ltmp3018:
	orl	%edi, %edx
Ltmp3019:
	.loc	16 540 13
	orl	%esi, %edx
Ltmp3020:
	.loc	16 0 13 is_stmt 0
	movl	%edx, %esi
Ltmp3021:
	.loc	16 690 13 is_stmt 1
	cmpl	$1114112, %edx
Ltmp3022:
	jne	LBB47_627
	jmp	LBB47_631
Ltmp3023:
LBB47_709:
	.loc	16 0 13 is_stmt 0
	xorl	%esi, %esi
Ltmp3024:
LBB47_710:
	.loc	16 540 18 is_stmt 1
	andl	$7, %ebx
Ltmp3025:
	shll	$18, %ebx
Ltmp3026:
	.loc	16 495 5
	shll	$6, %edi
Ltmp3027:
	orl	%ebx, %edi
Ltmp3028:
	.loc	16 540 13
	orl	%esi, %edi
Ltmp3029:
	.loc	16 0 13 is_stmt 0
	movl	%edi, %esi
Ltmp3030:
	.loc	16 690 13 is_stmt 1
	cmpl	$1114112, %edi
Ltmp3031:
	je	LBB47_456
	jmp	LBB47_652
Ltmp3032:
LBB47_711:
	.loc	16 0 13 is_stmt 0
	xorl	%esi, %esi
Ltmp3033:
LBB47_712:
	.loc	16 540 18 is_stmt 1
	andl	$7, %ebx
Ltmp3034:
	shll	$18, %ebx
Ltmp3035:
	.loc	16 495 5
	shll	$6, %edi
Ltmp3036:
	orl	%ebx, %edi
Ltmp3037:
	.loc	16 540 13
	orl	%esi, %edi
Ltmp3038:
	.loc	16 0 13 is_stmt 0
	movl	%edi, %esi
Ltmp3039:
	.loc	16 690 13 is_stmt 1
	cmpl	$1114112, %edi
Ltmp3040:
	je	LBB47_518
	jmp	LBB47_671
Ltmp3041:
LBB47_713:
	.loc	16 0 13 is_stmt 0
	xorl	%esi, %esi
Ltmp3042:
LBB47_714:
	.loc	16 540 18 is_stmt 1
	andl	$7, %ebx
Ltmp3043:
	shll	$18, %ebx
Ltmp3044:
	.loc	16 495 5
	shll	$6, %edi
Ltmp3045:
	orl	%ebx, %edi
Ltmp3046:
	.loc	16 540 13
	orl	%esi, %edi
Ltmp3047:
	.loc	16 0 13 is_stmt 0
	movl	%edi, %esi
Ltmp3048:
	.loc	16 690 13 is_stmt 1
	cmpl	$1114112, %edi
Ltmp3049:
	je	LBB47_518
	jmp	LBB47_681
Ltmp3050:
LBB47_715:
	.loc	16 0 13 is_stmt 0
	xorl	%esi, %esi
Ltmp3051:
LBB47_716:
	.loc	16 540 18 is_stmt 1
	andl	$7, %ebx
Ltmp3052:
	shll	$18, %ebx
Ltmp3053:
	.loc	16 495 5
	shll	$6, %edi
Ltmp3054:
	orl	%ebx, %edi
Ltmp3055:
	.loc	16 540 13
	orl	%esi, %edi
Ltmp3056:
	.loc	16 0 13 is_stmt 0
	movl	%edi, %esi
Ltmp3057:
	.loc	16 690 13 is_stmt 1
	cmpl	$1114112, %edi
Ltmp3058:
	je	LBB47_540
	jmp	LBB47_694
Ltmp3059:
LBB47_717:
	.loc	16 0 13 is_stmt 0
	shll	$6, %ebx
Ltmp3060:
	jmp	LBB47_730
Ltmp3061:
LBB47_718:
	shll	$6, %ebx
Ltmp3062:
	jmp	LBB47_741
Ltmp3063:
LBB47_719:
	movq	%rbx, %r15
	movq	%r8, %r14
	movq	%r9, %r13
Ltmp3064:
LBB47_720:
	.loc	31 310 19 is_stmt 1
	movl	16(%rdx), %edx
Ltmp3065:
	.loc	31 0 19 is_stmt 0
	movq	%rcx, -192(%rbp)
	movq	%rax, -184(%rbp)
Ltmp3066:
	.loc	16 2070 18 is_stmt 1
	movq	$3, -56(%rbp)
	.loc	16 2070 25 is_stmt 0
	movq	%rax, -72(%rbp)
Ltmp3067:
	.loc	16 2326 26 is_stmt 1
	cmpq	$3, %rax
	.loc	16 2326 12 is_stmt 0
	je	LBB47_722
Ltmp3068:
	.loc	16 2332 25 is_stmt 1
	cmpb	$-65, 3(%rcx)
Ltmp3069:
	.loc	16 2033 13
	jle	LBB47_773
Ltmp3070:
LBB47_722:
	.loc	32 164 18
	addq	$3, %rcx
Ltmp3071:
	.loc	16 2057 23
	addq	$-3, %rax
Ltmp3072:
	.loc	31 302 9
	movq	%rcx, (%r13)
	movq	%rax, 8(%r13)
Ltmp3073:
	.loc	31 82 26
	movl	%edx, 16(%r14)
Ltmp3074:
LBB47_723:
	.loc	31 0 0 is_stmt 0
	movl	$15, (%r15)
LBB47_724:
	.loc	31 297 2 is_stmt 1
	addq	$216, %rsp
	popq	%rbx
	popq	%r12
	popq	%r13
	popq	%r14
	popq	%r15
	popq	%rbp
	retq
LBB47_725:
Ltmp3075:
	.loc	31 0 2 is_stmt 0
	xorl	%r10d, %r10d
	movq	%r8, %r9
Ltmp3076:
LBB47_726:
	.loc	16 495 5 is_stmt 1
	shll	$6, %edi
Ltmp3077:
	orl	%r10d, %edi
Ltmp3078:
	.loc	16 536 12
	cmpb	$-16, %sil
	.loc	16 536 9 is_stmt 0
	jb	LBB47_729
Ltmp3079:
	.loc	24 3440 9 is_stmt 1
	cmpq	%r8, %r9
	.loc	24 3570 21
	je	LBB47_755
Ltmp3080:
	.loc	16 508 15
	movzbl	(%r9), %esi
Ltmp3081:
	.loc	16 507 5
	andl	$63, %esi
	jmp	LBB47_756
Ltmp3082:
LBB47_729:
	.loc	16 0 5 is_stmt 0
	shll	$12, %ebx
Ltmp3083:
LBB47_730:
	orl	%ebx, %edi
Ltmp3084:
	movl	%edi, %esi
Ltmp3085:
LBB47_731:
	.loc	31 386 16 is_stmt 1
	cmpl	$32, %esi
	.loc	31 386 13 is_stmt 0
	jne	LBB47_735
Ltmp3086:
	.loc	31 0 13
	movq	%rdx, -192(%rbp)
	incq	%rdx
Ltmp3087:
	movq	%rcx, -184(%rbp)
Ltmp3088:
	.loc	16 2070 18 is_stmt 1
	movq	$1, -56(%rbp)
	.loc	16 2070 25 is_stmt 0
	movq	%rcx, -72(%rbp)
Ltmp3089:
	.loc	16 2326 26 is_stmt 1
	cmpq	$1, %rcx
	.loc	16 2326 12 is_stmt 0
	je	LBB47_734
Ltmp3090:
	.loc	16 2332 25 is_stmt 1
	cmpb	$-65, (%rdx)
Ltmp3091:
	.loc	16 2033 13
	jle	LBB47_791
Ltmp3092:
LBB47_734:
	.loc	16 2057 23
	decq	%rcx
Ltmp3093:
	.loc	31 387 17
	movq	%rdx, (%r13)
	movq	%rcx, 8(%r13)
Ltmp3094:
	.loc	31 189 32
	movq	%r15, %rdi
	movq	%r13, %rsi
Ltmp3095:
	movl	$112, %edx
Ltmp3096:
	.loc	31 0 32 is_stmt 0
	jmp	LBB47_686
Ltmp3097:
LBB47_735:
	movl	$14, %eax
	movl	$32, %ebx
	jmp	LBB47_518
Ltmp3098:
LBB47_736:
	xorl	%r10d, %r10d
	movq	%r8, %r9
Ltmp3099:
LBB47_737:
	.loc	16 495 5 is_stmt 1
	shll	$6, %edi
Ltmp3100:
	orl	%r10d, %edi
Ltmp3101:
	.loc	16 536 12
	cmpb	$-16, %sil
	.loc	16 536 9 is_stmt 0
	jb	LBB47_740
Ltmp3102:
	.loc	24 3440 9 is_stmt 1
	cmpq	%r8, %r9
	.loc	24 3570 21
	je	LBB47_757
Ltmp3103:
	.loc	16 508 15
	movzbl	(%r9), %esi
Ltmp3104:
	.loc	16 507 5
	andl	$63, %esi
	jmp	LBB47_758
Ltmp3105:
LBB47_740:
	.loc	16 0 5 is_stmt 0
	shll	$12, %ebx
Ltmp3106:
LBB47_741:
	orl	%ebx, %edi
Ltmp3107:
	movl	%edi, %esi
Ltmp3108:
LBB47_742:
	.loc	31 386 16 is_stmt 1
	cmpl	$32, %esi
	.loc	31 386 13 is_stmt 0
	jne	LBB47_753
Ltmp3109:
	.loc	31 0 13
	movq	%rdx, -192(%rbp)
	incq	%rdx
Ltmp3110:
	movq	%rcx, -184(%rbp)
Ltmp3111:
	.loc	16 2070 18 is_stmt 1
	movq	$1, -56(%rbp)
	.loc	16 2070 25 is_stmt 0
	movq	%rcx, -72(%rbp)
Ltmp3112:
	.loc	16 2326 26 is_stmt 1
	cmpq	$1, %rcx
	.loc	16 2326 12 is_stmt 0
	je	LBB47_745
Ltmp3113:
	.loc	16 2332 25 is_stmt 1
	cmpb	$-65, (%rdx)
Ltmp3114:
	.loc	16 2033 13
	jle	LBB47_791
Ltmp3115:
LBB47_745:
	.loc	16 2057 23
	decq	%rcx
Ltmp3116:
	.loc	16 0 23 is_stmt 0
	movq	%r13, %rbx
Ltmp3117:
	.loc	31 387 17 is_stmt 1
	movq	%rdx, (%r13)
	movq	%rcx, 8(%r13)
Ltmp3118:
	.loc	31 0 17 is_stmt 0
	leaq	-224(%rbp), %rdi
Ltmp3119:
	.loc	31 96 32 is_stmt 1
	movq	%r13, %rsi
Ltmp3120:
	movl	$84, %edx
Ltmp3121:
	movq	%r14, %rcx
Ltmp3122:
	callq	__ZN4time5parse10parse_type17h7bb98a5de264be65E
Ltmp3123:
	.loc	22 729 13
	movl	-224(%rbp), %eax
Ltmp3124:
	cmpl	$15, %eax
	jne	LBB47_543
Ltmp3125:
	.loc	22 0 13 is_stmt 0
	movq	%r15, %rdi
Ltmp3126:
	.loc	31 384 11 is_stmt 1
	movq	8(%rbx), %rcx
Ltmp3127:
	.loc	31 0 11 is_stmt 0
	movl	$10, %eax
Ltmp3128:
	.loc	24 3440 9 is_stmt 1
	testq	%rcx, %rcx
	.loc	24 3570 21
	je	LBB47_754
Ltmp3129:
	.loc	24 0 21 is_stmt 0
	movq	%rbx, %r13
Ltmp3130:
	movq	(%rbx), %rdx
Ltmp3131:
	.loc	16 519 13 is_stmt 1
	movzbl	(%rdx), %esi
Ltmp3132:
	.loc	16 520 8
	testb	%sil, %sil
	.loc	16 520 5 is_stmt 0
	jns	LBB47_766
Ltmp3133:
	.loc	31 0 0
	leaq	(%rdx,%rcx), %r8
Ltmp3134:
	xorl	%r11d, %r11d
Ltmp3135:
	movq	%r8, %r9
Ltmp3136:
	.loc	24 3440 9 is_stmt 1
	cmpq	$1, %rcx
Ltmp3137:
	.loc	24 3570 21
	je	LBB47_750
Ltmp3138:
	.loc	23 165 18
	leaq	2(%rdx), %r9
Ltmp3139:
	.loc	16 508 15
	movzbl	1(%rdx), %r11d
	.loc	16 507 5
	andl	$63, %r11d
Ltmp3140:
LBB47_750:
	.loc	16 0 5 is_stmt 0
	movl	%esi, %ebx
	andl	$31, %ebx
Ltmp3141:
	.loc	16 530 8 is_stmt 1
	cmpb	$-33, %sil
	.loc	16 530 5 is_stmt 0
	jbe	LBB47_759
Ltmp3142:
	.loc	24 3440 9 is_stmt 1
	cmpq	%r8, %r9
	.loc	24 3570 21
	je	LBB47_760
Ltmp3143:
	.loc	16 508 15
	movzbl	(%r9), %r10d
Ltmp3144:
	.loc	23 165 18
	incq	%r9
Ltmp3145:
	.loc	16 507 5
	andl	$63, %r10d
	jmp	LBB47_761
Ltmp3146:
LBB47_753:
	.loc	16 0 5 is_stmt 0
	movl	$14, %eax
	movl	$32, %ebx
	jmp	LBB47_542
Ltmp3147:
LBB47_754:
	movq	%rdi, %r15
	jmp	LBB47_518
Ltmp3148:
LBB47_755:
	xorl	%esi, %esi
Ltmp3149:
LBB47_756:
	.loc	16 540 18 is_stmt 1
	andl	$7, %ebx
Ltmp3150:
	shll	$18, %ebx
Ltmp3151:
	.loc	16 495 5
	shll	$6, %edi
Ltmp3152:
	orl	%ebx, %edi
Ltmp3153:
	.loc	16 540 13
	orl	%esi, %edi
Ltmp3154:
	.loc	16 0 13 is_stmt 0
	movl	%edi, %esi
Ltmp3155:
	.loc	16 690 13 is_stmt 1
	cmpl	$1114112, %edi
Ltmp3156:
	je	LBB47_518
	jmp	LBB47_731
Ltmp3157:
LBB47_757:
	.loc	16 0 13 is_stmt 0
	xorl	%esi, %esi
Ltmp3158:
LBB47_758:
	.loc	16 540 18 is_stmt 1
	andl	$7, %ebx
Ltmp3159:
	shll	$18, %ebx
Ltmp3160:
	.loc	16 495 5
	shll	$6, %edi
Ltmp3161:
	orl	%ebx, %edi
Ltmp3162:
	.loc	16 540 13
	orl	%esi, %edi
Ltmp3163:
	.loc	16 0 13 is_stmt 0
	movl	%edi, %esi
Ltmp3164:
	.loc	16 690 13 is_stmt 1
	cmpl	$1114112, %edi
Ltmp3165:
	je	LBB47_542
	jmp	LBB47_742
Ltmp3166:
LBB47_759:
	.loc	16 0 13 is_stmt 0
	shll	$6, %ebx
Ltmp3167:
	jmp	LBB47_765
Ltmp3168:
LBB47_760:
	xorl	%r10d, %r10d
	movq	%r8, %r9
Ltmp3169:
LBB47_761:
	.loc	16 495 5 is_stmt 1
	shll	$6, %r11d
Ltmp3170:
	orl	%r10d, %r11d
Ltmp3171:
	.loc	16 536 12
	cmpb	$-16, %sil
	.loc	16 536 9 is_stmt 0
	jb	LBB47_764
Ltmp3172:
	.loc	24 3440 9 is_stmt 1
	cmpq	%r8, %r9
	.loc	24 3570 21
	je	LBB47_771
Ltmp3173:
	.loc	16 508 15
	movzbl	(%r9), %esi
Ltmp3174:
	.loc	16 507 5
	andl	$63, %esi
	jmp	LBB47_772
Ltmp3175:
LBB47_764:
	.loc	16 0 5 is_stmt 0
	shll	$12, %ebx
Ltmp3176:
LBB47_765:
	orl	%ebx, %r11d
Ltmp3177:
	movl	%r11d, %esi
Ltmp3178:
LBB47_766:
	.loc	31 386 16 is_stmt 1
	cmpl	$32, %esi
	.loc	31 386 13 is_stmt 0
	jne	LBB47_770
Ltmp3179:
	.loc	31 0 13
	movq	%rdx, -192(%rbp)
	incq	%rdx
Ltmp3180:
	movq	%rcx, -184(%rbp)
Ltmp3181:
	.loc	16 2070 18 is_stmt 1
	movq	$1, -56(%rbp)
	.loc	16 2070 25 is_stmt 0
	movq	%rcx, -72(%rbp)
Ltmp3182:
	.loc	16 2326 26 is_stmt 1
	cmpq	$1, %rcx
	.loc	16 2326 12 is_stmt 0
	je	LBB47_769
Ltmp3183:
	.loc	16 2332 25 is_stmt 1
	cmpb	$-65, (%rdx)
Ltmp3184:
	.loc	16 2033 13
	jle	LBB47_791
Ltmp3185:
LBB47_769:
	.loc	16 2057 23
	decq	%rcx
Ltmp3186:
	.loc	16 0 23 is_stmt 0
	movq	%r13, %rsi
Ltmp3187:
	.loc	31 387 17 is_stmt 1
	movq	%rdx, (%r13)
	movq	%rcx, 8(%r13)
Ltmp3188:
	.loc	31 0 17 is_stmt 0
	jmp	LBB47_685
Ltmp3189:
LBB47_770:
	movl	$14, %eax
	movl	$32, %ebx
	movq	%rdi, %r15
	jmp	LBB47_518
Ltmp3190:
LBB47_771:
	xorl	%esi, %esi
Ltmp3191:
LBB47_772:
	.loc	16 540 18 is_stmt 1
	andl	$7, %ebx
Ltmp3192:
	shll	$18, %ebx
Ltmp3193:
	.loc	16 495 5
	shll	$6, %r11d
Ltmp3194:
	orl	%ebx, %r11d
Ltmp3195:
	.loc	16 540 13
	orl	%esi, %r11d
Ltmp3196:
	.loc	16 0 13 is_stmt 0
	movl	%r11d, %esi
Ltmp3197:
	.loc	16 690 13 is_stmt 1
	cmpl	$1114112, %r11d
Ltmp3198:
	.loc	16 0 13 is_stmt 0
	movq	%rdi, %r15
	.loc	16 690 13
	je	LBB47_518
	jmp	LBB47_766
Ltmp3199:
LBB47_773:
	.loc	16 0 13
	leaq	-192(%rbp), %rax
Ltmp3200:
	movq	%rax, -144(%rbp)
	leaq	-56(%rbp), %rax
	movq	%rax, -136(%rbp)
	leaq	-72(%rbp), %rax
	movq	%rax, -128(%rbp)
	leaq	-144(%rbp), %rdi
	callq	__ZN4core3str6traits105_$LT$impl$u20$core..slice..SliceIndex$LT$str$GT$$u20$for$u20$core..ops..range..RangeFrom$LT$usize$GT$$GT$5index28_$u7b$$u7b$closure$u7d$$u7d$17h15a7fb8fde66efbeE
Ltmp3201:
LBB47_774:
	.loc	31 363 17 is_stmt 1
	leaq	_str.5(%rip), %rdi
Ltmp3202:
	leaq	l___unnamed_149(%rip), %rdx
Ltmp3203:
	movl	$28, %esi
	callq	__ZN4core9panicking5panic17h383a6b80ea7021aaE
Ltmp3204:
LBB47_775:
	.loc	31 0 17 is_stmt 0
	leaq	-72(%rbp), %rbx
Ltmp3205:
	.loc	1 287 47 is_stmt 1
	movq	%rbx, %rdi
	callq	__ZN3std2io5error5Error13last_os_error17hc3bba933b5587d76E
Ltmp3206:
	.loc	1 287 17 is_stmt 0
	movq	%rbx, -56(%rbp)
	movq	__ZN60_$LT$std..io..error..Error$u20$as$u20$core..fmt..Display$GT$3fmt17h3716551a80b2cfe9E@GOTPCREL(%rip), %rax
	movq	%rax, -48(%rbp)
Ltmp3207:
	.loc	11 328 9 is_stmt 1
	leaq	l___unnamed_150(%rip), %rax
Ltmp3208:
	movq	%rax, -192(%rbp)
	movq	$1, -184(%rbp)
	movq	$0, -176(%rbp)
	leaq	-56(%rbp), %rax
Ltmp3209:
	movq	%rax, -160(%rbp)
	movq	$1, -152(%rbp)
Ltmp3210:
Ltmp1198:
	.loc	1 287 17
	leaq	l___unnamed_151(%rip), %rsi
	leaq	-192(%rbp), %rdi
	callq	__ZN3std9panicking15begin_panic_fmt17h8712912d987f10a1E
Ltmp1199:
Ltmp3211:
	.loc	1 0 17 is_stmt 0
	ud2
Ltmp3212:
LBB47_777:
	.loc	31 237 43 is_stmt 1
	leaq	_str.3(%rip), %rdi
	leaq	l___unnamed_152(%rip), %rdx
	movl	$33, %esi
	callq	__ZN4core9panicking5panic17h383a6b80ea7021aaE
Ltmp3213:
LBB47_778:
	.loc	31 86 26
	leaq	_str.5(%rip), %rdi
	leaq	l___unnamed_153(%rip), %rdx
Ltmp3214:
	movl	$28, %esi
	callq	__ZN4core9panicking5panic17h383a6b80ea7021aaE
Ltmp3215:
LBB47_779:
	.loc	31 0 26 is_stmt 0
	leaq	-192(%rbp), %rax
Ltmp3216:
	movq	%rax, -144(%rbp)
	leaq	-224(%rbp), %rax
	movq	%rax, -136(%rbp)
	leaq	-88(%rbp), %rax
	movq	%rax, -128(%rbp)
	leaq	-144(%rbp), %rdi
	callq	__ZN4core3str6traits105_$LT$impl$u20$core..slice..SliceIndex$LT$str$GT$$u20$for$u20$core..ops..range..RangeFrom$LT$usize$GT$$GT$5index28_$u7b$$u7b$closure$u7d$$u7d$17h15a7fb8fde66efbeE
Ltmp3217:
LBB47_780:
	.loc	31 174 26 is_stmt 1
	leaq	_str.5(%rip), %rdi
	leaq	l___unnamed_154(%rip), %rdx
	movl	$28, %esi
	callq	__ZN4core9panicking5panic17h383a6b80ea7021aaE
Ltmp3218:
LBB47_781:
	.loc	31 290 40
	leaq	_str.2(%rip), %rdi
	leaq	l___unnamed_155(%rip), %rdx
	movl	$33, %esi
	callq	__ZN4core9panicking5panic17h383a6b80ea7021aaE
Ltmp3219:
LBB47_782:
	.loc	31 290 58 is_stmt 0
	leaq	_str.2(%rip), %rdi
	leaq	l___unnamed_156(%rip), %rdx
Ltmp3220:
	movl	$33, %esi
	callq	__ZN4core9panicking5panic17h383a6b80ea7021aaE
Ltmp3221:
LBB47_783:
	.loc	31 290 39
	leaq	_str.5(%rip), %rdi
	leaq	l___unnamed_157(%rip), %rdx
Ltmp3222:
	movl	$28, %esi
	callq	__ZN4core9panicking5panic17h383a6b80ea7021aaE
Ltmp3223:
LBB47_784:
	.loc	31 290 32
	leaq	_str.2(%rip), %rdi
	leaq	l___unnamed_158(%rip), %rdx
Ltmp3224:
	movl	$33, %esi
	callq	__ZN4core9panicking5panic17h383a6b80ea7021aaE
Ltmp3225:
LBB47_785:
	.loc	31 0 32
	leaq	-192(%rbp), %rax
Ltmp3226:
	.loc	5 428 21 is_stmt 1
	movq	%rax, -144(%rbp)
	leaq	-88(%rbp), %rax
	movq	%rax, -136(%rbp)
	leaq	-56(%rbp), %rax
Ltmp3227:
	.loc	31 0 0 is_stmt 0
	movq	%rax, -128(%rbp)
	leaq	-144(%rbp), %rdi
	callq	__ZN4core3str6traits105_$LT$impl$u20$core..slice..SliceIndex$LT$str$GT$$u20$for$u20$core..ops..range..RangeFrom$LT$usize$GT$$GT$5index28_$u7b$$u7b$closure$u7d$$u7d$17h15a7fb8fde66efbeE
Ltmp3228:
LBB47_786:
	leaq	-192(%rbp), %rax
Ltmp3229:
	.loc	5 428 21
	movq	%rax, -144(%rbp)
	leaq	-232(%rbp), %rax
	movq	%rax, -136(%rbp)
	leaq	-224(%rbp), %rax
Ltmp3230:
	.loc	31 0 0
	movq	%rax, -128(%rbp)
	leaq	-144(%rbp), %rdi
	callq	__ZN4core3str6traits105_$LT$impl$u20$core..slice..SliceIndex$LT$str$GT$$u20$for$u20$core..ops..range..RangeFrom$LT$usize$GT$$GT$5index28_$u7b$$u7b$closure$u7d$$u7d$17h15a7fb8fde66efbeE
Ltmp3231:
LBB47_787:
	leaq	-192(%rbp), %rax
Ltmp3232:
	.loc	5 428 21
	movq	%rax, -144(%rbp)
	leaq	-248(%rbp), %rax
	movq	%rax, -136(%rbp)
	leaq	-232(%rbp), %rax
Ltmp3233:
	.loc	31 0 0
	movq	%rax, -128(%rbp)
	leaq	-144(%rbp), %rdi
	callq	__ZN4core3str6traits105_$LT$impl$u20$core..slice..SliceIndex$LT$str$GT$$u20$for$u20$core..ops..range..RangeFrom$LT$usize$GT$$GT$5index28_$u7b$$u7b$closure$u7d$$u7d$17h15a7fb8fde66efbeE
Ltmp3234:
LBB47_788:
	leaq	-192(%rbp), %rax
Ltmp3235:
	movq	%rax, -144(%rbp)
	leaq	-88(%rbp), %rax
	movq	%rax, -136(%rbp)
	movq	%r12, -128(%rbp)
	leaq	-144(%rbp), %rdi
	callq	__ZN4core3str6traits105_$LT$impl$u20$core..slice..SliceIndex$LT$str$GT$$u20$for$u20$core..ops..range..RangeFrom$LT$usize$GT$$GT$5index28_$u7b$$u7b$closure$u7d$$u7d$17h15a7fb8fde66efbeE
Ltmp3236:
LBB47_789:
	leaq	-192(%rbp), %rax
Ltmp3237:
	.loc	5 428 21
	movq	%rax, -144(%rbp)
	leaq	-224(%rbp), %rax
Ltmp3238:
	.loc	31 0 0
	movq	%rax, -136(%rbp)
	movq	%r12, -128(%rbp)
	leaq	-144(%rbp), %rdi
	callq	__ZN4core3str6traits105_$LT$impl$u20$core..slice..SliceIndex$LT$str$GT$$u20$for$u20$core..ops..range..RangeFrom$LT$usize$GT$$GT$5index28_$u7b$$u7b$closure$u7d$$u7d$17h15a7fb8fde66efbeE
Ltmp3239:
LBB47_790:
	leaq	-192(%rbp), %rax
Ltmp3240:
	.loc	5 428 21
	movq	%rax, -144(%rbp)
	leaq	-232(%rbp), %rax
Ltmp3241:
	.loc	31 0 0
	movq	%rax, -136(%rbp)
	movq	%r12, -128(%rbp)
	leaq	-144(%rbp), %rdi
	callq	__ZN4core3str6traits105_$LT$impl$u20$core..slice..SliceIndex$LT$str$GT$$u20$for$u20$core..ops..range..RangeFrom$LT$usize$GT$$GT$5index28_$u7b$$u7b$closure$u7d$$u7d$17h15a7fb8fde66efbeE
Ltmp3242:
LBB47_791:
	leaq	-192(%rbp), %rax
Ltmp3243:
	movq	%rax, -144(%rbp)
	leaq	-56(%rbp), %rax
	movq	%rax, -136(%rbp)
	movq	%r12, -128(%rbp)
	leaq	-144(%rbp), %rdi
	callq	__ZN4core3str6traits105_$LT$impl$u20$core..slice..SliceIndex$LT$str$GT$$u20$for$u20$core..ops..range..RangeFrom$LT$usize$GT$$GT$5index28_$u7b$$u7b$closure$u7d$$u7d$17h15a7fb8fde66efbeE
Ltmp3244:
LBB47_792:
Ltmp1200:
	movq	%rax, %rbx
	leaq	-72(%rbp), %rdi
Ltmp3245:
	.loc	1 287 17 is_stmt 1
	callq	__ZN4core3ptr13drop_in_place17hc083f1f8be006a8fE
	movq	%rbx, %rdi
	callq	__Unwind_Resume
	ud2
Ltmp3246:
Lfunc_end47:
	.cfi_endproc
	.p2align	2, 0x90
	.data_region jt32
.set L47_0_set_120, LBB47_120-LJTI47_0
.set L47_0_set_219, LBB47_219-LJTI47_0
.set L47_0_set_137, LBB47_137-LJTI47_0
.set L47_0_set_108, LBB47_108-LJTI47_0
.set L47_0_set_151, LBB47_151-LJTI47_0
.set L47_0_set_2, LBB47_2-LJTI47_0
.set L47_0_set_139, LBB47_139-LJTI47_0
.set L47_0_set_147, LBB47_147-LJTI47_0
.set L47_0_set_171, LBB47_171-LJTI47_0
.set L47_0_set_168, LBB47_168-LJTI47_0
.set L47_0_set_87, LBB47_87-LJTI47_0
.set L47_0_set_100, LBB47_100-LJTI47_0
.set L47_0_set_94, LBB47_94-LJTI47_0
.set L47_0_set_10, LBB47_10-LJTI47_0
.set L47_0_set_127, LBB47_127-LJTI47_0
.set L47_0_set_172, LBB47_172-LJTI47_0
.set L47_0_set_156, LBB47_156-LJTI47_0
.set L47_0_set_18, LBB47_18-LJTI47_0
.set L47_0_set_192, LBB47_192-LJTI47_0
.set L47_0_set_46, LBB47_46-LJTI47_0
.set L47_0_set_82, LBB47_82-LJTI47_0
.set L47_0_set_48, LBB47_48-LJTI47_0
.set L47_0_set_97, LBB47_97-LJTI47_0
.set L47_0_set_47, LBB47_47-LJTI47_0
.set L47_0_set_203, LBB47_203-LJTI47_0
.set L47_0_set_200, LBB47_200-LJTI47_0
.set L47_0_set_75, LBB47_75-LJTI47_0
.set L47_0_set_89, LBB47_89-LJTI47_0
.set L47_0_set_112, LBB47_112-LJTI47_0
.set L47_0_set_91, LBB47_91-LJTI47_0
.set L47_0_set_212, LBB47_212-LJTI47_0
.set L47_0_set_72, LBB47_72-LJTI47_0
.set L47_0_set_158, LBB47_158-LJTI47_0
.set L47_0_set_208, LBB47_208-LJTI47_0
.set L47_0_set_20, LBB47_20-LJTI47_0
.set L47_0_set_130, LBB47_130-LJTI47_0
LJTI47_0:
	.long	L47_0_set_120
	.long	L47_0_set_219
	.long	L47_0_set_219
	.long	L47_0_set_219
	.long	L47_0_set_219
	.long	L47_0_set_219
	.long	L47_0_set_219
	.long	L47_0_set_219
	.long	L47_0_set_219
	.long	L47_0_set_219
	.long	L47_0_set_219
	.long	L47_0_set_219
	.long	L47_0_set_219
	.long	L47_0_set_219
	.long	L47_0_set_219
	.long	L47_0_set_219
	.long	L47_0_set_219
	.long	L47_0_set_219
	.long	L47_0_set_219
	.long	L47_0_set_219
	.long	L47_0_set_219
	.long	L47_0_set_219
	.long	L47_0_set_219
	.long	L47_0_set_219
	.long	L47_0_set_219
	.long	L47_0_set_219
	.long	L47_0_set_219
	.long	L47_0_set_219
	.long	L47_0_set_137
	.long	L47_0_set_108
	.long	L47_0_set_151
	.long	L47_0_set_2
	.long	L47_0_set_219
	.long	L47_0_set_139
	.long	L47_0_set_219
	.long	L47_0_set_147
	.long	L47_0_set_171
	.long	L47_0_set_219
	.long	L47_0_set_219
	.long	L47_0_set_219
	.long	L47_0_set_168
	.long	L47_0_set_219
	.long	L47_0_set_219
	.long	L47_0_set_87
	.long	L47_0_set_219
	.long	L47_0_set_100
	.long	L47_0_set_94
	.long	L47_0_set_10
	.long	L47_0_set_219
	.long	L47_0_set_219
	.long	L47_0_set_219
	.long	L47_0_set_10
	.long	L47_0_set_127
	.long	L47_0_set_172
	.long	L47_0_set_219
	.long	L47_0_set_219
	.long	L47_0_set_219
	.long	L47_0_set_219
	.long	L47_0_set_219
	.long	L47_0_set_219
	.long	L47_0_set_156
	.long	L47_0_set_18
	.long	L47_0_set_192
	.long	L47_0_set_46
	.long	L47_0_set_82
	.long	L47_0_set_48
	.long	L47_0_set_219
	.long	L47_0_set_18
	.long	L47_0_set_219
	.long	L47_0_set_97
	.long	L47_0_set_47
	.long	L47_0_set_203
	.long	L47_0_set_200
	.long	L47_0_set_75
	.long	L47_0_set_219
	.long	L47_0_set_89
	.long	L47_0_set_219
	.long	L47_0_set_112
	.long	L47_0_set_91
	.long	L47_0_set_212
	.long	L47_0_set_72
	.long	L47_0_set_158
	.long	L47_0_set_208
	.long	L47_0_set_2
	.long	L47_0_set_20
	.long	L47_0_set_130
	.end_data_region
	.file	33 "/rustc/6c8927b0cf80ceee19386026cf9d7fd4fd9d486f/src/libcore/str/pattern.rs"
	.file	34 "/rustc/6c8927b0cf80ceee19386026cf9d7fd4fd9d486f/src/libcore/iter/traits/iterator.rs"
	.section	__TEXT,__gcc_except_tab
	.p2align	2
GCC_except_table47:
Lexception2:
	.byte	255
	.byte	255
	.byte	1
	.uleb128 Lcst_end2-Lcst_begin2
Lcst_begin2:
	.uleb128 Lfunc_begin47-Lfunc_begin47
	.uleb128 Ltmp1198-Lfunc_begin47
	.byte	0
	.byte	0
	.uleb128 Ltmp1198-Lfunc_begin47
	.uleb128 Ltmp1199-Ltmp1198
	.uleb128 Ltmp1200-Lfunc_begin47
	.byte	0
	.uleb128 Ltmp1199-Lfunc_begin47
	.uleb128 Lfunc_end47-Ltmp1199
	.byte	0
	.byte	0
Lcst_end2:
	.p2align	2

	.section	__TEXT,__text,regular,pure_instructions
	.p2align	4, 0x90
__ZN4time5parse16match_digits_i6417h53cc8d41fc9e7a1bE:
Lfunc_begin48:
	.loc	31 325 0
	.cfi_startproc
	pushq	%rbp
	.cfi_def_cfa_offset 16
	.cfi_offset %rbp, -16
	movq	%rsp, %rbp
	.cfi_def_cfa_register %rbp
	pushq	%r15
	pushq	%r14
	pushq	%r13
	pushq	%r12
	pushq	%rbx
	subq	$328, %rsp
	.cfi_offset %rbx, -56
	.cfi_offset %r12, -48
	.cfi_offset %r13, -40
	.cfi_offset %r14, -32
	.cfi_offset %r15, -24
	movq	%rdx, %r13
Ltmp3247:
	.loc	31 328 5 prologue_end
	testl	%ecx, %ecx
	je	LBB48_59
Ltmp3248:
	.loc	31 0 5 is_stmt 0
	movq	%rsi, -216(%rbp)
Ltmp3249:
	movq	%r13, -64(%rbp)
Ltmp3250:
	.loc	31 330 18 is_stmt 1
	movq	(%rdi), %rsi
	movq	%rdi, -72(%rbp)
Ltmp3251:
	movq	8(%rdi), %rdx
Ltmp3252:
	.loc	33 867 9
	leaq	l___unnamed_50(%rip), %rcx
Ltmp3253:
	.loc	33 0 9 is_stmt 0
	leaq	-208(%rbp), %rdi
	.loc	33 867 9
	movl	$1, %r8d
	movq	%rdx, -56(%rbp)
Ltmp3254:
	callq	__ZN4core3str7pattern11StrSearcher3new17hb3e2f8082f620422E
Ltmp3255:
	.loc	33 0 0
	movq	-176(%rbp), %r10
Ltmp3256:
	movq	-168(%rbp), %r8
Ltmp3257:
	movq	-208(%rbp), %r12
	movq	-200(%rbp), %rsi
Ltmp3258:
	movq	%r8, %rax
	subq	$1, %rax
	movq	%rax, -336(%rbp)
	setb	%al
	cmpq	%r8, %rsi
	sete	%r9b
	orb	%al, %r9b
Ltmp3259:
	leaq	(%r12,%r8), %r15
Ltmp3260:
	leaq	(%r12,%rsi), %rax
	movq	%rax, -232(%rbp)
Ltmp3261:
	leaq	1(%r12,%r8), %rdi
Ltmp3262:
	leaq	2(%r12,%r8), %rax
	movq	%rax, -352(%rbp)
Ltmp3263:
	movq	-192(%rbp), %rax
Ltmp3264:
	.loc	33 1321 17 is_stmt 1
	movq	-136(%rbp), %r14
Ltmp3265:
	.loc	33 246 9
	movq	%r14, %rcx
	subq	%r8, %rcx
	movq	%rcx, -296(%rbp)
Ltmp3266:
	.loc	33 0 0 is_stmt 0
	movq	-184(%rbp), %r11
Ltmp3267:
	movq	-144(%rbp), %rcx
	movq	%rcx, -320(%rbp)
Ltmp3268:
	leaq	-1(%r11), %rcx
	movq	%rcx, -304(%rbp)
Ltmp3269:
	.loc	33 1323 21 is_stmt 1
	movq	-120(%rbp), %rcx
	movq	%rcx, -80(%rbp)
Ltmp3270:
	.loc	33 246 9
	leaq	(%r12,%r14), %rcx
	movq	%rcx, -240(%rbp)
	movq	%rax, -104(%rbp)
	addq	%r8, %rax
	movq	%rax, -344(%rbp)
	movq	%r10, -224(%rbp)
	movq	%rdi, -312(%rbp)
Ltmp3271:
LBB48_2:
	.loc	33 971 17
	movb	-152(%rbp), %bl
	movq	%r14, -88(%rbp)
	jmp	LBB48_6
Ltmp3272:
LBB48_3:
	.loc	33 0 17 is_stmt 0
	shll	$6, %r14d
Ltmp3273:
LBB48_4:
	orl	%r14d, %r10d
Ltmp3274:
	movl	%r10d, %edx
Ltmp3275:
	movq	-88(%rbp), %r14
	movq	-224(%rbp), %r10
	movl	%r13d, %r9d
Ltmp3276:
	.p2align	4, 0x90
LBB48_5:
	.loc	33 970 32 is_stmt 1
	testb	%cl, %cl
Ltmp3277:
	.loc	33 974 26
	je	LBB48_60
Ltmp3278:
LBB48_6:
	.loc	33 0 26 is_stmt 0
	movl	%ebx, %ecx
	testq	%r10, %r10
Ltmp3279:
	.loc	33 968 13 is_stmt 1
	jne	LBB48_24
Ltmp3280:
	.loc	33 970 32
	testb	%cl, %cl
	sete	%bl
Ltmp3281:
	.loc	33 0 32 is_stmt 0
	movq	%r12, -256(%rbp)
	movq	%rsi, -248(%rbp)
Ltmp3282:
	.loc	16 2070 18 is_stmt 1
	movq	%r8, -360(%rbp)
	.loc	16 2070 25 is_stmt 0
	movq	%rsi, -96(%rbp)
Ltmp3283:
	.loc	16 2326 12 is_stmt 1
	testb	%r9b, %r9b
	jne	LBB48_10
Ltmp3284:
	.loc	24 0 0 is_stmt 0
	cmpq	%r8, %rsi
Ltmp3285:
	.loc	16 2330 13 is_stmt 1
	jbe	LBB48_126
Ltmp3286:
	.loc	16 2332 25
	cmpb	$-65, (%r15)
Ltmp3287:
	.loc	16 2033 13
	jle	LBB48_126
Ltmp3288:
LBB48_10:
	.loc	16 0 13 is_stmt 0
	movl	$1114112, %edx
Ltmp3289:
	cmpq	%r8, %rsi
Ltmp3290:
	.loc	24 3570 21 is_stmt 1
	je	LBB48_5
Ltmp3291:
	.loc	16 519 13
	movzbl	(%r15), %edx
Ltmp3292:
	.loc	16 520 8
	testb	%dl, %dl
	.loc	16 520 5 is_stmt 0
	jns	LBB48_5
Ltmp3293:
	.loc	16 0 5
	movl	%r9d, %r13d
	movq	-232(%rbp), %r9
Ltmp3294:
	cmpq	%r9, %rdi
Ltmp3295:
	.loc	24 3570 21 is_stmt 1
	je	LBB48_14
Ltmp3296:
	.loc	16 508 15
	movzbl	(%rdi), %r10d
	.loc	16 507 5
	andl	$63, %r10d
	movq	-352(%rbp), %r9
	movl	%edx, %r14d
	andl	$31, %r14d
Ltmp3297:
	.loc	16 530 8
	cmpb	$-33, %dl
	.loc	16 530 5 is_stmt 0
	jbe	LBB48_3
	jmp	LBB48_15
Ltmp3298:
LBB48_14:
	.loc	16 0 5
	xorl	%r10d, %r10d
	movl	%edx, %r14d
	andl	$31, %r14d
Ltmp3299:
	.loc	16 530 8
	cmpb	$-33, %dl
	.loc	16 530 5
	jbe	LBB48_3
Ltmp3300:
LBB48_15:
	.loc	16 0 5
	movq	-232(%rbp), %rdi
Ltmp3301:
	.loc	24 3440 9 is_stmt 1
	cmpq	%rdi, %r9
	.loc	24 3570 21
	je	LBB48_17
Ltmp3302:
	.loc	16 508 15
	movzbl	(%r9), %eax
Ltmp3303:
	.loc	23 165 18
	incq	%r9
Ltmp3304:
	.loc	16 507 5
	andl	$63, %eax
	jmp	LBB48_18
Ltmp3305:
LBB48_17:
	.loc	16 0 5 is_stmt 0
	xorl	%eax, %eax
	movq	%rdi, %r9
Ltmp3306:
LBB48_18:
	.loc	16 495 5 is_stmt 1
	shll	$6, %r10d
Ltmp3307:
	orl	%eax, %r10d
Ltmp3308:
	.loc	16 536 12
	cmpb	$-16, %dl
	movq	-312(%rbp), %rdi
	.loc	16 536 9 is_stmt 0
	jb	LBB48_21
Ltmp3309:
	.loc	24 3440 9 is_stmt 1
	cmpq	-232(%rbp), %r9
	.loc	24 3570 21
	je	LBB48_22
Ltmp3310:
	.loc	16 508 15
	movzbl	(%r9), %eax
	.loc	16 507 5
	andl	$63, %eax
	jmp	LBB48_23
Ltmp3311:
LBB48_21:
	.loc	16 0 5 is_stmt 0
	shll	$12, %r14d
Ltmp3312:
	jmp	LBB48_4
Ltmp3313:
LBB48_22:
	xorl	%eax, %eax
Ltmp3314:
LBB48_23:
	movl	%r13d, %r9d
Ltmp3315:
	.loc	16 540 18 is_stmt 1
	andl	$7, %r14d
Ltmp3316:
	shll	$18, %r14d
Ltmp3317:
	.loc	16 495 5
	shll	$6, %r10d
Ltmp3318:
	orl	%r14d, %r10d
Ltmp3319:
	.loc	16 540 13
	orl	%eax, %r10d
Ltmp3320:
	.loc	16 0 13 is_stmt 0
	movl	%r10d, %edx
Ltmp3321:
	movq	-88(%rbp), %r14
	movq	-224(%rbp), %r10
	jmp	LBB48_5
Ltmp3322:
	.p2align	4, 0x90
LBB48_24:
	.loc	33 971 17 is_stmt 1
	movb	%cl, -152(%rbp)
Ltmp3323:
	.loc	33 988 20
	cmpq	%rsi, %r14
	.loc	33 988 17 is_stmt 0
	je	LBB48_79
Ltmp3324:
	.loc	33 1307 48 is_stmt 1
	leaq	-1(%r14,%r11), %rdi
Ltmp3325:
	.loc	24 3090 12
	cmpq	%rsi, %rdi
	movq	-80(%rbp), %rcx
Ltmp3326:
	.loc	33 1308 17
	jae	LBB48_80
Ltmp3327:
	.loc	33 0 0 is_stmt 0
	leaq	(%r14,%r11), %r13
Ltmp3328:
	movq	-152(%rbp), %rax
	leaq	(%rax,%r14), %rdx
	movq	%rdx, -288(%rbp)
Ltmp3329:
	.loc	33 991 31 is_stmt 1
	cmpq	$-1, %rcx
	movb	%r9b, -41(%rbp)
Ltmp3330:
	.loc	33 1308 17
	je	LBB48_43
Ltmp3331:
	.loc	33 0 17 is_stmt 0
	movq	%r11, %rdx
	subq	%rax, %rdx
	movq	%rdx, -328(%rbp)
	movq	%rcx, %r9
	movq	%r14, %rcx
	movq	-104(%rbp), %rdx
	movq	%r13, -88(%rbp)
	jmp	LBB48_30
Ltmp3332:
	.p2align	4, 0x90
LBB48_28:
	xorl	%r9d, %r9d
	.loc	33 1307 48 is_stmt 1
	movq	%r13, %rcx
Ltmp3333:
LBB48_29:
	.loc	33 0 48 is_stmt 0
	movq	-304(%rbp), %rax
	.loc	33 1307 48
	leaq	(%rcx,%rax), %rdi
Ltmp3334:
	.loc	24 3090 12 is_stmt 1
	cmpq	%rsi, %rdi
Ltmp3335:
	.loc	33 1308 17
	jae	LBB48_66
Ltmp3336:
LBB48_30:
	.loc	33 1315 41
	cmpq	%rcx, %r14
	.loc	33 1315 13 is_stmt 0
	jne	LBB48_65
Ltmp3337:
	.loc	33 1287 9 is_stmt 1
	movzbl	(%r12,%rdi), %eax
	movq	-320(%rbp), %rcx
	btq	%rax, %rcx
Ltmp3338:
	.loc	33 1320 13
	jae	LBB48_28
Ltmp3339:
	.loc	33 1330 17
	cmpq	%r9, %r8
	movq	%r9, %rbx
	cmovaq	%r8, %rbx
	movq	-296(%rbp), %rax
Ltmp3340:
	.loc	33 1331 13
	leaq	(%rax,%rbx), %rcx
	leaq	(%rdx,%rbx), %rax
	leaq	(%r14,%rbx), %rdi
Ltmp3341:
	.p2align	4, 0x90
LBB48_33:
	.loc	20 1136 52
	cmpq	%r11, %rbx
Ltmp3342:
	.file	35 "/rustc/6c8927b0cf80ceee19386026cf9d7fd4fd9d486f/src/libcore/iter/range.rs"
	.loc	35 505 9
	jae	LBB48_37
Ltmp3343:
	.loc	33 1332 33
	cmpq	%rsi, %rdi
	jae	LBB48_127
Ltmp3344:
	.loc	33 1332 20 is_stmt 0
	movzbl	(%rax), %edx
	.loc	33 1332 17
	incq	%rcx
	incq	%rax
	incq	%rdi
	movq	-240(%rbp), %r13
	.loc	33 1332 20
	cmpb	(%r13,%rbx), %dl
Ltmp3345:
	.loc	19 3013 26 is_stmt 1
	leaq	1(%rbx), %rbx
Ltmp3346:
	.loc	33 1332 17
	je	LBB48_33
Ltmp3347:
	.loc	33 0 17 is_stmt 0
	xorl	%r9d, %r9d
	movq	-104(%rbp), %rdx
	movq	-88(%rbp), %r13
	jmp	LBB48_29
Ltmp3348:
	.p2align	4, 0x90
LBB48_37:
	movq	%r8, %rdi
	movq	-104(%rbp), %rdx
	movq	-88(%rbp), %r13
Ltmp3349:
	.p2align	4, 0x90
LBB48_38:
	.loc	20 1136 52 is_stmt 1
	cmpq	%rdi, %r9
Ltmp3350:
	.loc	35 589 9
	jae	LBB48_58
Ltmp3351:
	.loc	19 3055 26
	decq	%rdi
Ltmp3352:
	.loc	33 1344 20
	cmpq	%r11, %rdi
	jae	LBB48_129
Ltmp3353:
	.loc	33 1344 42 is_stmt 0
	leaq	(%rdi,%r14), %rcx
	.loc	33 1344 33
	cmpq	%rsi, %rcx
	jae	LBB48_130
Ltmp3354:
	.loc	33 1344 20
	movzbl	(%rdx,%rdi), %eax
	cmpb	(%r12,%rcx), %al
	.loc	33 1344 17
	je	LBB48_38
Ltmp3355:
	.loc	33 0 17
	movq	-328(%rbp), %r9
	movq	-288(%rbp), %rcx
	jmp	LBB48_29
Ltmp3356:
LBB48_43:
	movq	%r14, %rcx
	jmp	LBB48_46
Ltmp3357:
LBB48_44:
	movq	-288(%rbp), %rcx
Ltmp3358:
	.p2align	4, 0x90
LBB48_45:
	movq	-304(%rbp), %rax
	.loc	33 1307 48 is_stmt 1
	leaq	(%rcx,%rax), %rdi
Ltmp3359:
	.loc	24 3090 12
	cmpq	%rsi, %rdi
Ltmp3360:
	.loc	33 1308 17
	jae	LBB48_76
Ltmp3361:
LBB48_46:
	.loc	33 1315 41
	cmpq	%rcx, %r14
	.loc	33 1315 13 is_stmt 0
	jne	LBB48_67
Ltmp3362:
	.loc	33 1287 9 is_stmt 1
	movzbl	(%r12,%rdi), %eax
	movq	-320(%rbp), %rcx
	btq	%rax, %rcx
Ltmp3363:
	.loc	33 1307 48
	movq	%r13, %rcx
Ltmp3364:
	.loc	33 1320 13
	jae	LBB48_45
Ltmp3365:
	.loc	33 0 0 is_stmt 0
	xorl	%eax, %eax
	movq	-344(%rbp), %rbx
	movq	%r14, %rcx
Ltmp3366:
	.p2align	4, 0x90
LBB48_49:
	leaq	(%r8,%rax), %rdi
Ltmp3367:
	.loc	20 1136 52 is_stmt 1
	cmpq	%r11, %rdi
Ltmp3368:
	.loc	35 505 9
	jae	LBB48_52
Ltmp3369:
