	.section	__TEXT,__text,regular,pure_instructions
	.macosx_version_min 10, 7
	.file	1 "/Users/yingyuhang/.cargo/registry/src/github.com-1ecc6299db9ec823/time-0.1.43/src/sys.rs"
	.file	2 "/Users/yingyuhang/.cargo/registry/src/github.com-1ecc6299db9ec823/time-0.1.43/src/lib.rs"
	.p2align	4, 0x90
__ZN36_$LT$T$u20$as$u20$core..any..Any$GT$7type_id17h9d691a95d4ec1293E:
Lfunc_begin0:
	.file	3 "/rustc/a74d1862d4d87a56244958416fd05976c58ca1a8/src/libcore/any.rs"
	.loc	3 109 0
	.cfi_startproc
	pushq	%rbp
	.cfi_def_cfa_offset 16
	.cfi_offset %rbp, -16
	movq	%rsp, %rbp
	.cfi_def_cfa_register %rbp
	movabsq	$1229646359891580772, %rax
Ltmp0:
	.loc	3 111 6 prologue_end
	popq	%rbp
	retq
Ltmp1:
Lfunc_end0:
	.cfi_endproc

	.p2align	4, 0x90
__ZN3std4sync4once4Once9call_once28_$u7b$$u7b$closure$u7d$$u7d$17h02bd943026f8ba07E:
Lfunc_begin1:
	.file	4 "/rustc/a74d1862d4d87a56244958416fd05976c58ca1a8/src/libstd/sync/once.rs"
	.loc	4 264 0
	.cfi_startproc
	pushq	%rbp
	.cfi_def_cfa_offset 16
	.cfi_offset %rbp, -16
	movq	%rsp, %rbp
	.cfi_def_cfa_register %rbp
Ltmp2:
	.loc	4 264 41 prologue_end
	movq	(%rdi), %rax
Ltmp3:
	.file	5 "/rustc/a74d1862d4d87a56244958416fd05976c58ca1a8/src/libcore/option.rs"
	.loc	5 387 13
	testb	$1, (%rax)
Ltmp4:
	.file	6 "/rustc/a74d1862d4d87a56244958416fd05976c58ca1a8/src/libcore/intrinsics.rs"
	.loc	6 2058 5
	movb	$0, (%rax)
Ltmp5:
	.loc	5 387 13
	je	LBB1_1
Ltmp6:
	.loc	1 360 21
	leaq	__ZN4time3sys5inner3mac4info4INFO17h5c3a3589d7ccc303E(%rip), %rdi
Ltmp7:
	popq	%rbp
	jmp	_mach_timebase_info
Ltmp8:
LBB1_1:
	.file	7 "/rustc/a74d1862d4d87a56244958416fd05976c58ca1a8/src/libcore/macros/mod.rs"
	.loc	7 10 9
	leaq	l___unnamed_15(%rip), %rdi
Ltmp9:
	leaq	l___unnamed_16(%rip), %rdx
	movl	$43, %esi
Ltmp10:
	callq	__ZN4core9panicking5panic17h736ee47a631475c0E
Ltmp11:
Lfunc_end1:
	.cfi_endproc
	.file	8 "/rustc/a74d1862d4d87a56244958416fd05976c58ca1a8/src/libcore/ptr/mod.rs"
	.file	9 "/rustc/a74d1862d4d87a56244958416fd05976c58ca1a8/src/libcore/mem/mod.rs"

	.p2align	4, 0x90
__ZN3std9panicking11begin_panic17h8954d6459a510673E:
Lfunc_begin2:
	.file	10 "/rustc/a74d1862d4d87a56244958416fd05976c58ca1a8/src/libstd/panicking.rs"
	.loc	10 399 0
	.cfi_startproc
	pushq	%rbp
	.cfi_def_cfa_offset 16
	.cfi_offset %rbp, -16
	movq	%rsp, %rbp
	.cfi_def_cfa_register %rbp
	subq	$16, %rsp
Ltmp12:
	.loc	10 404 31 prologue_end
	movq	%rdi, -16(%rbp)
	movq	%rsi, -8(%rbp)
	.loc	10 404 61 is_stmt 0
	movq	%rdx, %rdi
Ltmp13:
	callq	__ZN4core5panic8Location6caller17hf55c9a52d6249cfcE
Ltmp14:
	.loc	10 404 5
	leaq	l___unnamed_2(%rip), %rsi
	leaq	-16(%rbp), %rdi
	xorl	%edx, %edx
	movq	%rax, %rcx
	callq	__ZN3std9panicking20rust_panic_with_hook17hf8b9378dd2e7986aE
Ltmp15:
Lfunc_end2:
	.cfi_endproc

	.p2align	4, 0x90
__ZN42_$LT$$RF$T$u20$as$u20$core..fmt..Debug$GT$3fmt17h1c652a2e725a2784E:
Lfunc_begin3:
	.file	11 "/rustc/a74d1862d4d87a56244958416fd05976c58ca1a8/src/libcore/fmt/mod.rs"
	.loc	11 1973 0 is_stmt 1
	.cfi_startproc
	pushq	%rbp
	.cfi_def_cfa_offset 16
	.cfi_offset %rbp, -16
	movq	%rsp, %rbp
	.cfi_def_cfa_register %rbp
Ltmp16:
	.loc	11 1973 71 prologue_end
	movq	(%rdi), %rdi
Ltmp17:
	.loc	11 1973 62 is_stmt 0
	popq	%rbp
	jmp	__ZN41_$LT$char$u20$as$u20$core..fmt..Debug$GT$3fmt17haa902be045284592E
Ltmp18:
Lfunc_end3:
	.cfi_endproc

	.p2align	4, 0x90
__ZN42_$LT$$RF$T$u20$as$u20$core..fmt..Debug$GT$3fmt17h370bcfbe6adebdc5E:
Lfunc_begin4:
	.loc	11 1973 0 is_stmt 1
	.cfi_startproc
	pushq	%rbp
	.cfi_def_cfa_offset 16
	.cfi_offset %rbp, -16
	movq	%rsp, %rbp
	.cfi_def_cfa_register %rbp
Ltmp19:
	.loc	11 1973 71 prologue_end
	movq	(%rdi), %rax
	.loc	11 1973 62 is_stmt 0
	movq	(%rax), %rdi
Ltmp20:
	.loc	11 1973 62
	popq	%rbp
	jmp	__ZN45_$LT$time..Tm$u20$as$u20$core..fmt..Debug$GT$3fmt17h67d6d1c4e2e3aa8aE
Ltmp21:
Lfunc_end4:
	.cfi_endproc

	.p2align	4, 0x90
__ZN42_$LT$$RF$T$u20$as$u20$core..fmt..Debug$GT$3fmt17h868524cec3f2edb2E:
Lfunc_begin5:
	.loc	11 1973 0 is_stmt 1
	.cfi_startproc
	pushq	%rbp
	.cfi_def_cfa_offset 16
	.cfi_offset %rbp, -16
	movq	%rsp, %rbp
	.cfi_def_cfa_register %rbp
	pushq	%r14
	pushq	%rbx
	.cfi_offset %rbx, -32
	.cfi_offset %r14, -24
	movq	%rsi, %rbx
Ltmp22:
	.loc	11 1973 71 prologue_end
	movq	(%rdi), %r14
Ltmp23:
	.file	12 "/rustc/a74d1862d4d87a56244958416fd05976c58ca1a8/src/libcore/fmt/num.rs"
	.loc	12 149 20
	movq	%rsi, %rdi
Ltmp24:
	callq	__ZN4core3fmt9Formatter15debug_lower_hex17h8530fbaeba13f4d9E
	.loc	12 149 17 is_stmt 0
	testb	%al, %al
	je	LBB5_1
Ltmp25:
	.loc	12 150 21 is_stmt 1
	movq	%r14, %rdi
	movq	%rbx, %rsi
	popq	%rbx
Ltmp26:
	popq	%r14
Ltmp27:
	popq	%rbp
	jmp	__ZN4core3fmt3num53_$LT$impl$u20$core..fmt..LowerHex$u20$for$u20$i64$GT$3fmt17ha8bb237a95553570E
LBB5_1:
Ltmp28:
	.loc	12 151 27
	movq	%rbx, %rdi
	callq	__ZN4core3fmt9Formatter15debug_upper_hex17hf8fda15ec43a1e68E
	.loc	12 154 21
	movq	%r14, %rdi
	movq	%rbx, %rsi
	.loc	12 151 24
	testb	%al, %al
	je	LBB5_4
Ltmp29:
	.loc	12 152 21
	popq	%rbx
Ltmp30:
	popq	%r14
Ltmp31:
	popq	%rbp
	jmp	__ZN4core3fmt3num53_$LT$impl$u20$core..fmt..UpperHex$u20$for$u20$i64$GT$3fmt17h13194bd83ca37803E
LBB5_4:
Ltmp32:
	.loc	12 154 21
	popq	%rbx
Ltmp33:
	popq	%r14
Ltmp34:
	popq	%rbp
	jmp	__ZN4core3fmt3num3imp52_$LT$impl$u20$core..fmt..Display$u20$for$u20$i64$GT$3fmt17h6a5170735d6294a5E
Ltmp35:
Lfunc_end5:
	.cfi_endproc

	.p2align	4, 0x90
__ZN42_$LT$$RF$T$u20$as$u20$core..fmt..Debug$GT$3fmt17h97ba9aaeef1f5d26E:
Lfunc_begin6:
	.loc	11 1973 0
	.cfi_startproc
	pushq	%rbp
	.cfi_def_cfa_offset 16
	.cfi_offset %rbp, -16
	movq	%rsp, %rbp
	.cfi_def_cfa_register %rbp
	movq	%rsi, %rdx
Ltmp36:
	.loc	11 1973 71 prologue_end
	movq	(%rdi), %rax
	.loc	11 1973 62 is_stmt 0
	movq	(%rax), %rdi
Ltmp37:
	movq	8(%rax), %rsi
Ltmp38:
	.loc	11 1973 62
	popq	%rbp
	jmp	__ZN40_$LT$str$u20$as$u20$core..fmt..Debug$GT$3fmt17h2760aab2290546fcE
Ltmp39:
Lfunc_end6:
	.cfi_endproc

	.p2align	4, 0x90
__ZN42_$LT$$RF$T$u20$as$u20$core..fmt..Debug$GT$3fmt17h9eb36c81dfe0092bE:
Lfunc_begin7:
	.loc	11 1973 0 is_stmt 1
	.cfi_startproc
	pushq	%rbp
	.cfi_def_cfa_offset 16
	.cfi_offset %rbp, -16
	movq	%rsp, %rbp
	.cfi_def_cfa_register %rbp
Ltmp40:
	.loc	11 1973 71 prologue_end
	movq	(%rdi), %rdi
Ltmp41:
	.loc	11 1973 62 is_stmt 0
	popq	%rbp
	jmp	__ZN46_$LT$time..Fmt$u20$as$u20$core..fmt..Debug$GT$3fmt17h0ca282085b917058E
Ltmp42:
Lfunc_end7:
	.cfi_endproc

	.p2align	4, 0x90
__ZN42_$LT$$RF$T$u20$as$u20$core..fmt..Debug$GT$3fmt17ha02519d347001ebaE:
Lfunc_begin8:
	.loc	11 1973 0 is_stmt 1
	.cfi_startproc
	pushq	%rbp
	.cfi_def_cfa_offset 16
	.cfi_offset %rbp, -16
	movq	%rsp, %rbp
	.cfi_def_cfa_register %rbp
	movq	%rsi, %rdi
Ltmp43:
	.loc	11 2170 9 prologue_end
	leaq	l___unnamed_17(%rip), %rsi
	movl	$2, %edx
	popq	%rbp
	jmp	__ZN4core3fmt9Formatter3pad17he4a76f49c06ce69bE
Ltmp44:
Lfunc_end8:
	.cfi_endproc

	.p2align	4, 0x90
__ZN42_$LT$$RF$T$u20$as$u20$core..fmt..Debug$GT$3fmt17hb847aa3783fee8f1E:
Lfunc_begin9:
	.loc	11 1973 0
	.cfi_startproc
	pushq	%rbp
	.cfi_def_cfa_offset 16
	.cfi_offset %rbp, -16
	movq	%rsp, %rbp
	.cfi_def_cfa_register %rbp
	pushq	%r14
	pushq	%rbx
	.cfi_offset %rbx, -32
	.cfi_offset %r14, -24
	movq	%rsi, %rbx
Ltmp45:
	.loc	11 1973 71 prologue_end
	movq	(%rdi), %r14
Ltmp46:
	.loc	12 149 20
	movq	%rsi, %rdi
Ltmp47:
	callq	__ZN4core3fmt9Formatter15debug_lower_hex17h8530fbaeba13f4d9E
	.loc	12 149 17 is_stmt 0
	testb	%al, %al
	je	LBB9_1
Ltmp48:
	.loc	12 150 21 is_stmt 1
	movq	%r14, %rdi
	movq	%rbx, %rsi
	popq	%rbx
Ltmp49:
	popq	%r14
Ltmp50:
	popq	%rbp
	jmp	__ZN4core3fmt3num53_$LT$impl$u20$core..fmt..LowerHex$u20$for$u20$u64$GT$3fmt17h45355469eb7ddf8bE
LBB9_1:
Ltmp51:
	.loc	12 151 27
	movq	%rbx, %rdi
	callq	__ZN4core3fmt9Formatter15debug_upper_hex17hf8fda15ec43a1e68E
	.loc	12 154 21
	movq	%r14, %rdi
	movq	%rbx, %rsi
	.loc	12 151 24
	testb	%al, %al
	je	LBB9_4
Ltmp52:
	.loc	12 152 21
	popq	%rbx
Ltmp53:
	popq	%r14
Ltmp54:
	popq	%rbp
	jmp	__ZN4core3fmt3num53_$LT$impl$u20$core..fmt..UpperHex$u20$for$u20$u64$GT$3fmt17ha26765e3e26c1816E
LBB9_4:
Ltmp55:
	.loc	12 154 21
	popq	%rbx
Ltmp56:
	popq	%r14
Ltmp57:
	popq	%rbp
	jmp	__ZN4core3fmt3num3imp52_$LT$impl$u20$core..fmt..Display$u20$for$u20$u64$GT$3fmt17hb00db9d5e1e54df6E
Ltmp58:
Lfunc_end9:
	.cfi_endproc

	.p2align	4, 0x90
__ZN42_$LT$$RF$T$u20$as$u20$core..fmt..Debug$GT$3fmt17hc7cb59adfb3783f8E:
Lfunc_begin10:
	.loc	11 1973 0
	.cfi_startproc
	pushq	%rbp
	.cfi_def_cfa_offset 16
	.cfi_offset %rbp, -16
	movq	%rsp, %rbp
	.cfi_def_cfa_register %rbp
	pushq	%r14
	pushq	%rbx
	.cfi_offset %rbx, -32
	.cfi_offset %r14, -24
	movq	%rsi, %rbx
Ltmp59:
	.loc	11 1973 71 prologue_end
	movq	(%rdi), %r14
Ltmp60:
	.loc	12 149 20
	movq	%rsi, %rdi
Ltmp61:
	callq	__ZN4core3fmt9Formatter15debug_lower_hex17h8530fbaeba13f4d9E
	.loc	12 149 17 is_stmt 0
	testb	%al, %al
	je	LBB10_1
Ltmp62:
	.loc	12 150 21 is_stmt 1
	movq	%r14, %rdi
	movq	%rbx, %rsi
	popq	%rbx
Ltmp63:
	popq	%r14
Ltmp64:
	popq	%rbp
	jmp	__ZN4core3fmt3num53_$LT$impl$u20$core..fmt..LowerHex$u20$for$u20$i32$GT$3fmt17h45ae8797392b15d4E
LBB10_1:
Ltmp65:
	.loc	12 151 27
	movq	%rbx, %rdi
	callq	__ZN4core3fmt9Formatter15debug_upper_hex17hf8fda15ec43a1e68E
	.loc	12 154 21
	movq	%r14, %rdi
	movq	%rbx, %rsi
	.loc	12 151 24
	testb	%al, %al
	je	LBB10_4
Ltmp66:
	.loc	12 152 21
	popq	%rbx
Ltmp67:
	popq	%r14
Ltmp68:
	popq	%rbp
	jmp	__ZN4core3fmt3num53_$LT$impl$u20$core..fmt..UpperHex$u20$for$u20$i32$GT$3fmt17h7218a38926162563E
LBB10_4:
Ltmp69:
	.loc	12 154 21
	popq	%rbx
Ltmp70:
	popq	%r14
Ltmp71:
	popq	%rbp
	jmp	__ZN4core3fmt3num3imp52_$LT$impl$u20$core..fmt..Display$u20$for$u20$i32$GT$3fmt17he2ccc2060d52a2ceE
Ltmp72:
Lfunc_end10:
	.cfi_endproc

	.p2align	4, 0x90
__ZN42_$LT$$RF$T$u20$as$u20$core..fmt..Debug$GT$3fmt17hf1826c3ce7667d53E:
Lfunc_begin11:
	.loc	11 1973 0
	.cfi_startproc
	pushq	%rbp
	.cfi_def_cfa_offset 16
	.cfi_offset %rbp, -16
	movq	%rsp, %rbp
	.cfi_def_cfa_register %rbp
Ltmp73:
	pushq	%r14
	pushq	%rbx
	subq	$32, %rsp
	.cfi_offset %rbx, -32
	.cfi_offset %r14, -24
	.loc	11 1973 71 prologue_end
	movq	(%rdi), %rbx
Ltmp74:
	.loc	1 383 63
	leaq	l___unnamed_18(%rip), %rdx
	leaq	-40(%rbp), %r14
	movl	$10, %ecx
	movq	%r14, %rdi
Ltmp75:
	callq	__ZN4core3fmt9Formatter12debug_struct17h985c0158d1fc7193E
Ltmp76:
	.loc	1 384 33
	movq	%rbx, -24(%rbp)
	.loc	1 383 63
	leaq	l___unnamed_19(%rip), %rsi
	leaq	l___unnamed_9(%rip), %r8
	leaq	-24(%rbp), %rcx
	movl	$1, %edx
	movq	%r14, %rdi
	callq	__ZN4core3fmt8builders11DebugStruct5field17h9c15dc155278eed2E
	movq	%r14, %rdi
	callq	__ZN4core3fmt8builders11DebugStruct6finish17h26808393f3fed630E
Ltmp77:
	.loc	11 1973 84
	addq	$32, %rsp
	popq	%rbx
	popq	%r14
	popq	%rbp
	retq
Ltmp78:
Lfunc_end11:
	.cfi_endproc

	.p2align	4, 0x90
__ZN44_$LT$$RF$T$u20$as$u20$core..fmt..Display$GT$3fmt17h18611ae9c160f39cE:
Lfunc_begin12:
	.loc	11 1973 0
	.cfi_startproc
	pushq	%rbp
	.cfi_def_cfa_offset 16
	.cfi_offset %rbp, -16
	movq	%rsp, %rbp
	.cfi_def_cfa_register %rbp
	movq	%rsi, %rdx
Ltmp79:
	.loc	11 1973 71 prologue_end
	movq	(%rdi), %rax
	movq	8(%rdi), %rsi
	.loc	11 1973 62 is_stmt 0
	movq	%rax, %rdi
Ltmp80:
	popq	%rbp
	jmp	__ZN42_$LT$str$u20$as$u20$core..fmt..Display$GT$3fmt17hd4dee1c1c4ccf892E
Ltmp81:
Lfunc_end12:
	.cfi_endproc

	.p2align	4, 0x90
__ZN44_$LT$$RF$T$u20$as$u20$core..fmt..Display$GT$3fmt17hf60b2528f40adc07E:
Lfunc_begin13:
	.loc	11 1973 0 is_stmt 1
	.cfi_startproc
	pushq	%rbp
	.cfi_def_cfa_offset 16
	.cfi_offset %rbp, -16
	movq	%rsp, %rbp
	.cfi_def_cfa_register %rbp
Ltmp82:
	.loc	11 1973 71 prologue_end
	movq	(%rdi), %rdi
Ltmp83:
	.loc	11 1973 62 is_stmt 0
	popq	%rbp
	jmp	__ZN4time7display60_$LT$impl$u20$core..fmt..Display$u20$for$u20$time..TmFmt$GT$3fmt17h52c0ea1f20840d77E
Ltmp84:
Lfunc_end13:
	.cfi_endproc

	.p2align	4, 0x90
__ZN4core3ops8function6FnOnce40call_once$u7b$$u7b$vtable.shim$u7d$$u7d$17hf8bce038beff4ce3E:
Lfunc_begin14:
	.file	13 "/rustc/a74d1862d4d87a56244958416fd05976c58ca1a8/src/libcore/ops/function.rs"
	.loc	13 232 0 is_stmt 1
	.cfi_startproc
	pushq	%rbp
	.cfi_def_cfa_offset 16
	.cfi_offset %rbp, -16
	movq	%rsp, %rbp
	.cfi_def_cfa_register %rbp
Ltmp85:
	.loc	13 232 5 prologue_end
	movq	(%rdi), %rax
Ltmp86:
	.loc	5 387 13
	testb	$1, (%rax)
Ltmp87:
	.loc	6 2058 5
	movb	$0, (%rax)
Ltmp88:
	.loc	5 387 13
	je	LBB14_1
Ltmp89:
	.loc	1 360 21
	leaq	__ZN4time3sys5inner3mac4info4INFO17h5c3a3589d7ccc303E(%rip), %rdi
Ltmp90:
	popq	%rbp
	jmp	_mach_timebase_info
Ltmp91:
LBB14_1:
	.loc	7 10 9
	leaq	l___unnamed_15(%rip), %rdi
Ltmp92:
	leaq	l___unnamed_16(%rip), %rdx
	movl	$43, %esi
Ltmp93:
	callq	__ZN4core9panicking5panic17h736ee47a631475c0E
Ltmp94:
Lfunc_end14:
	.cfi_endproc

	.p2align	4, 0x90
__ZN4core3ptr13drop_in_place17h1d0bd4f15ce0f88cE:
Lfunc_begin15:
	.loc	8 178 0
	.cfi_startproc
	pushq	%rbp
	.cfi_def_cfa_offset 16
	.cfi_offset %rbp, -16
	movq	%rsp, %rbp
	.cfi_def_cfa_register %rbp
Ltmp95:
	.loc	8 178 1 prologue_end
	popq	%rbp
	retq
Ltmp96:
Lfunc_end15:
	.cfi_endproc

	.p2align	4, 0x90
__ZN4core3ptr13drop_in_place17h291397e45ddc074bE:
Lfunc_begin16:
	.loc	8 178 0
	.cfi_startproc
	pushq	%rbp
	.cfi_def_cfa_offset 16
	.cfi_offset %rbp, -16
	movq	%rsp, %rbp
	.cfi_def_cfa_register %rbp
	movq	%rdi, %rax
Ltmp97:
	.loc	8 178 1 prologue_end
	movq	(%rdi), %rdi
Ltmp98:
	.file	14 "/rustc/a74d1862d4d87a56244958416fd05976c58ca1a8/src/liballoc/raw_vec.rs"
	.loc	14 532 16
	testq	%rdi, %rdi
Ltmp99:
	.loc	14 200 9
	je	LBB16_2
Ltmp100:
	.loc	8 0 0 is_stmt 0
	movq	8(%rax), %rsi
Ltmp101:
	.loc	14 200 9
	testq	%rsi, %rsi
	je	LBB16_2
Ltmp102:
	.file	15 "/rustc/a74d1862d4d87a56244958416fd05976c58ca1a8/src/liballoc/alloc.rs"
	.loc	15 102 5 is_stmt 1
	movl	$1, %edx
	popq	%rbp
	jmp	___rust_dealloc
Ltmp103:
LBB16_2:
	.loc	8 178 1
	popq	%rbp
	retq
Ltmp104:
Lfunc_end16:
	.cfi_endproc

	.p2align	4, 0x90
__ZN4core3ptr13drop_in_place17h34bad5a43b19ceebE:
Lfunc_begin17:
	.loc	8 178 0
	.cfi_startproc
	.cfi_personality 155, _rust_eh_personality
	.cfi_lsda 16, Lexception0
	pushq	%rbp
	.cfi_def_cfa_offset 16
	.cfi_offset %rbp, -16
	movq	%rsp, %rbp
	.cfi_def_cfa_register %rbp
Ltmp108:
	pushq	%r15
	pushq	%r14
	pushq	%rbx
	pushq	%rax
	.cfi_offset %rbx, -40
	.cfi_offset %r14, -32
	.cfi_offset %r15, -24
	.loc	8 178 1 prologue_end
	cmpb	$2, (%rdi)
	jae	LBB17_1
Ltmp109:
	.loc	8 178 1 is_stmt 0
	addq	$8, %rsp
	popq	%rbx
	popq	%r14
	popq	%r15
	popq	%rbp
	retq
Ltmp110:
LBB17_1:
	.loc	8 0 1
	movq	%rdi, %r15
Ltmp111:
	.loc	8 178 1
	movq	8(%rdi), %rbx
Ltmp112:
	.loc	8 178 1
	movq	(%rbx), %rdi
	movq	8(%rbx), %rax
Ltmp105:
	callq	*(%rax)
Ltmp106:
Ltmp113:
	movq	8(%rbx), %rax
Ltmp114:
	.loc	15 282 16 is_stmt 1
	movq	8(%rax), %rsi
Ltmp115:
	.loc	15 185 12
	testq	%rsi, %rsi
	.loc	15 185 9 is_stmt 0
	je	LBB17_4
Ltmp116:
	.loc	8 178 1 is_stmt 1
	movq	(%rbx), %rdi
Ltmp117:
	.loc	15 283 17
	movq	16(%rax), %rdx
Ltmp118:
	.loc	15 102 5
	callq	___rust_dealloc
Ltmp119:
LBB17_4:
	.loc	8 178 1
	movq	8(%r15), %rdi
Ltmp120:
	.loc	15 102 5
	movl	$24, %esi
	movl	$8, %edx
	addq	$8, %rsp
	popq	%rbx
	popq	%r14
	popq	%r15
Ltmp121:
	popq	%rbp
	jmp	___rust_dealloc
Ltmp122:
LBB17_6:
Ltmp107:
	.loc	15 0 5 is_stmt 0
	movq	%rax, %r14
Ltmp123:
	.loc	8 178 1 is_stmt 1
	movq	(%rbx), %rdi
	movq	8(%rbx), %rsi
	callq	__ZN5alloc5alloc8box_free17h9e751d3ae3a098f2E
Ltmp124:
	.loc	8 178 1 is_stmt 0
	movq	8(%r15), %rdi
	callq	__ZN5alloc5alloc8box_free17h6f0c19cc7ab6afd8E
	movq	%r14, %rdi
	callq	__Unwind_Resume
	ud2
Ltmp125:
Lfunc_end17:
	.cfi_endproc
	.section	__TEXT,__gcc_except_tab
	.p2align	2
GCC_except_table17:
Lexception0:
	.byte	255
	.byte	255
	.byte	1
	.uleb128 Lcst_end0-Lcst_begin0
Lcst_begin0:
	.uleb128 Ltmp105-Lfunc_begin17
	.uleb128 Ltmp106-Ltmp105
	.uleb128 Ltmp107-Lfunc_begin17
	.byte	0
	.uleb128 Ltmp106-Lfunc_begin17
	.uleb128 Lfunc_end17-Ltmp106
	.byte	0
	.byte	0
Lcst_end0:
	.p2align	2

	.section	__TEXT,__text,regular,pure_instructions
	.p2align	4, 0x90
__ZN4core3str6traits105_$LT$impl$u20$core..slice..SliceIndex$LT$str$GT$$u20$for$u20$core..ops..range..RangeFrom$LT$usize$GT$$GT$5index28_$u7b$$u7b$closure$u7d$$u7d$17h0dd8f8b02a460f64E:
Lfunc_begin18:
	.file	16 "/rustc/a74d1862d4d87a56244958416fd05976c58ca1a8/src/libcore/str/mod.rs"
	.loc	16 2052 0 is_stmt 1
	.cfi_startproc
	pushq	%rbp
	.cfi_def_cfa_offset 16
	.cfi_offset %rbp, -16
	movq	%rsp, %rbp
	.cfi_def_cfa_register %rbp
Ltmp126:
	.loc	16 2052 71 prologue_end
	movq	(%rdi), %rcx
	.loc	16 2052 78 is_stmt 0
	movq	8(%rdi), %rdx
	.loc	16 2052 71
	movq	(%rcx), %rax
	movq	8(%rcx), %rsi
	.loc	16 2052 78
	movq	(%rdx), %rdx
	.loc	16 2052 85
	movq	16(%rdi), %rcx
	movq	(%rcx), %rcx
	.loc	16 2052 47
	leaq	l___unnamed_20(%rip), %r8
	movq	%rax, %rdi
Ltmp127:
	callq	__ZN4core3str16slice_error_fail17h6b29707aec812690E
Ltmp128:
Lfunc_end18:
	.cfi_endproc

	.p2align	4, 0x90
__ZN50_$LT$$RF$mut$u20$W$u20$as$u20$core..fmt..Write$GT$10write_char17hb74a7846898ab2b9E:
Lfunc_begin19:
	.loc	11 203 0 is_stmt 1
	.cfi_startproc
	pushq	%rbp
	.cfi_def_cfa_offset 16
	.cfi_offset %rbp, -16
	movq	%rsp, %rbp
	.cfi_def_cfa_register %rbp
	pushq	%r15
	pushq	%r14
	pushq	%r12
	pushq	%rbx
	subq	$16, %rsp
	.cfi_offset %rbx, -48
	.cfi_offset %r12, -40
	.cfi_offset %r14, -32
	.cfi_offset %r15, -24
	movl	%esi, %ebx
Ltmp129:
	.loc	11 204 9 prologue_end
	movq	(%rdi), %r15
Ltmp130:
	.file	17 "/rustc/a74d1862d4d87a56244958416fd05976c58ca1a8/src/libcore/char/methods.rs"
	.loc	17 360 12
	cmpl	$128, %esi
	.loc	17 360 9 is_stmt 0
	jae	LBB19_1
Ltmp131:
	.file	18 "/rustc/a74d1862d4d87a56244958416fd05976c58ca1a8/src/liballoc/vec.rs"
	.loc	18 1200 12 is_stmt 1
	movq	16(%r15), %rsi
Ltmp132:
	cmpq	8(%r15), %rsi
	.loc	18 1200 9 is_stmt 0
	jne	LBB19_22
Ltmp133:
	.file	19 "/rustc/a74d1862d4d87a56244958416fd05976c58ca1a8/src/libcore/num/mod.rs"
	.loc	19 3632 30 is_stmt 1
	movq	%rsi, %r14
	incq	%r14
Ltmp134:
	.loc	5 540 13
	je	LBB19_35
Ltmp135:
	.loc	14 414 26
	leaq	(%rsi,%rsi), %rax
Ltmp136:
	.file	20 "/rustc/a74d1862d4d87a56244958416fd05976c58ca1a8/src/libcore/cmp.rs"
	.loc	20 1017 9
	cmpq	%r14, %rax
	.loc	20 0 0 is_stmt 0
	cmovaq	%rax, %r14
Ltmp137:
	.loc	14 200 40 is_stmt 1
	testq	%rsi, %rsi
	.loc	14 200 9 is_stmt 0
	je	LBB19_29
Ltmp138:
	.loc	14 420 57 is_stmt 1
	movq	(%r15), %rax
Ltmp139:
	.loc	14 489 25
	testq	%rax, %rax
	je	LBB19_29
Ltmp140:
	.loc	15 205 12
	cmpq	%r14, %rsi
	.loc	15 205 9 is_stmt 0
	je	LBB19_32
Ltmp141:
	.loc	15 124 5 is_stmt 1
	movl	$1, %edx
	movq	%rax, %rdi
Ltmp142:
	movq	%r14, %rcx
	callq	___rust_realloc
Ltmp143:
	.file	21 "/rustc/a74d1862d4d87a56244958416fd05976c58ca1a8/src/libcore/result.rs"
	.loc	21 611 13
	testq	%rax, %rax
	jne	LBB19_33
	jmp	LBB19_36
Ltmp144:
LBB19_1:
	.file	22 "/rustc/a74d1862d4d87a56244958416fd05976c58ca1a8/src/liballoc/string.rs"
	.loc	22 1099 65
	movl	$0, -36(%rbp)
Ltmp145:
	.loc	17 443 23
	movl	%ebx, %eax
Ltmp146:
	.loc	17 362 19
	cmpl	$2048, %ebx
	.loc	17 362 16 is_stmt 0
	jae	LBB19_2
Ltmp147:
	.loc	17 443 23 is_stmt 1
	shrl	$6, %eax
	.loc	17 443 22 is_stmt 0
	andb	$31, %al
	.loc	17 443 17
	orb	$-64, %al
	movb	%al, -36(%rbp)
	.loc	17 444 22 is_stmt 1
	andb	$63, %bl
Ltmp148:
	.loc	17 444 17 is_stmt 0
	orb	$-128, %bl
	movb	%bl, -35(%rbp)
	movl	$2, %r14d
	jmp	LBB19_5
Ltmp149:
LBB19_22:
	.loc	18 850 19 is_stmt 1
	movq	(%r15), %rax
	jmp	LBB19_23
Ltmp150:
LBB19_2:
	.loc	17 364 19
	cmpl	$65536, %ebx
	jae	LBB19_4
Ltmp151:
	.loc	17 447 23
	shrl	$12, %eax
	.loc	17 447 22 is_stmt 0
	andb	$15, %al
	.loc	17 447 17
	orb	$-32, %al
	movb	%al, -36(%rbp)
	.loc	17 448 23 is_stmt 1
	movl	%ebx, %eax
	shrl	$6, %eax
	.loc	17 448 22 is_stmt 0
	andb	$63, %al
	.loc	17 448 17
	orb	$-128, %al
	movb	%al, -35(%rbp)
	.loc	17 449 22 is_stmt 1
	andb	$63, %bl
Ltmp152:
	.loc	17 449 17 is_stmt 0
	orb	$-128, %bl
	movb	%bl, -34(%rbp)
	movl	$3, %r14d
	jmp	LBB19_5
Ltmp153:
LBB19_29:
	.loc	15 170 16 is_stmt 1
	testq	%r14, %r14
	.loc	15 170 13 is_stmt 0
	je	LBB19_30
Ltmp154:
	.loc	15 80 5 is_stmt 1
	movl	$1, %esi
Ltmp155:
	movq	%r14, %rdi
Ltmp156:
	callq	___rust_alloc
Ltmp157:
LBB19_32:
	.loc	21 611 13
	testq	%rax, %rax
	je	LBB19_36
Ltmp158:
LBB19_33:
	.loc	18 1204 45
	movq	16(%r15), %rsi
	jmp	LBB19_34
Ltmp159:
LBB19_4:
	.loc	17 452 23
	shrl	$18, %eax
	.loc	17 452 17 is_stmt 0
	orb	$-16, %al
	movb	%al, -36(%rbp)
	.loc	17 453 23 is_stmt 1
	movl	%ebx, %eax
	shrl	$12, %eax
	.loc	17 453 22 is_stmt 0
	andb	$63, %al
	.loc	17 453 17
	orb	$-128, %al
	movb	%al, -35(%rbp)
	.loc	17 454 23 is_stmt 1
	movl	%ebx, %eax
	shrl	$6, %eax
	.loc	17 454 22 is_stmt 0
	andb	$63, %al
	.loc	17 454 17
	orb	$-128, %al
	movb	%al, -34(%rbp)
	.loc	17 455 22 is_stmt 1
	andb	$63, %bl
Ltmp160:
	.loc	17 455 17 is_stmt 0
	orb	$-128, %bl
	movb	%bl, -33(%rbp)
	movl	$4, %r14d
Ltmp161:
LBB19_5:
	.loc	14 280 12 is_stmt 1
	movq	8(%r15), %rsi
Ltmp162:
	.loc	18 500 26
	movq	16(%r15), %rbx
Ltmp163:
	.loc	19 3343 17
	movq	%rsi, %rax
	subq	%rbx, %rax
Ltmp164:
	.loc	14 378 9
	cmpq	%r14, %rax
Ltmp165:
	.loc	14 280 9
	jae	LBB19_6
Ltmp166:
	.loc	19 3632 30
	movq	%rbx, %r12
	addq	%r14, %r12
Ltmp167:
	.loc	5 540 13
	jb	LBB19_35
Ltmp168:
	.loc	14 414 26
	leaq	(%rsi,%rsi), %rax
Ltmp169:
	.loc	20 1017 9
	cmpq	%r12, %rax
	.loc	20 0 0 is_stmt 0
	cmovaq	%rax, %r12
Ltmp170:
	.loc	14 200 40 is_stmt 1
	testq	%rsi, %rsi
	.loc	14 200 9 is_stmt 0
	je	LBB19_12
Ltmp171:
	.loc	14 420 57 is_stmt 1
	movq	(%r15), %rdi
Ltmp172:
	.loc	14 489 25
	testq	%rdi, %rdi
	je	LBB19_12
Ltmp173:
	.loc	15 205 12
	cmpq	%r12, %rsi
	.loc	15 205 9 is_stmt 0
	je	LBB19_16
Ltmp174:
	.loc	15 124 5 is_stmt 1
	movl	$1, %edx
	movq	%r12, %rcx
	callq	___rust_realloc
Ltmp175:
	.loc	15 0 5 is_stmt 0
	jmp	LBB19_15
Ltmp176:
LBB19_6:
	.loc	18 850 19 is_stmt 1
	movq	(%r15), %rdi
Ltmp177:
	.loc	18 0 19 is_stmt 0
	jmp	LBB19_19
Ltmp178:
LBB19_12:
	.loc	15 170 16 is_stmt 1
	testq	%r12, %r12
	.loc	15 170 13 is_stmt 0
	je	LBB19_13
Ltmp179:
	.loc	15 80 5 is_stmt 1
	movl	$1, %esi
	movq	%r12, %rdi
	callq	___rust_alloc
Ltmp180:
LBB19_15:
	.loc	14 0 0 is_stmt 0
	movq	%rax, %rdi
Ltmp181:
LBB19_16:
	.loc	21 611 13 is_stmt 1
	testq	%rdi, %rdi
	je	LBB19_38
Ltmp182:
	.loc	18 2176 23
	movq	16(%r15), %rbx
	jmp	LBB19_18
Ltmp183:
LBB19_30:
	.loc	18 0 23 is_stmt 0
	movl	$1, %eax
Ltmp184:
LBB19_34:
	.loc	14 387 9 is_stmt 1
	movq	%rax, (%r15)
	.loc	14 388 9
	movq	%r14, 8(%r15)
Ltmp185:
LBB19_23:
	.loc	8 836 42
	movb	%bl, (%rax,%rsi)
Ltmp186:
	.loc	18 1206 13
	incq	16(%r15)
	jmp	LBB19_20
Ltmp187:
LBB19_13:
	.loc	18 0 13 is_stmt 0
	movl	$1, %edi
Ltmp188:
LBB19_18:
	.loc	14 387 9 is_stmt 1
	movq	%rdi, (%r15)
	.loc	14 388 9
	movq	%r12, 8(%r15)
Ltmp189:
LBB19_19:
	.file	23 "/rustc/a74d1862d4d87a56244958416fd05976c58ca1a8/src/libcore/ptr/mut_ptr.rs"
	.loc	23 152 9
	addq	%rbx, %rdi
Ltmp190:
	.loc	23 0 9 is_stmt 0
	leaq	-36(%rbp), %rsi
Ltmp191:
	.loc	6 2058 5 is_stmt 1
	movq	%r14, %rdx
	callq	_memcpy
Ltmp192:
	.loc	18 2179 26
	addq	%r14, %rbx
Ltmp193:
	.loc	18 940 9
	movq	%rbx, 16(%r15)
Ltmp194:
LBB19_20:
	.loc	11 205 6
	xorl	%eax, %eax
	addq	$16, %rsp
	popq	%rbx
	popq	%r12
	popq	%r14
	popq	%r15
	popq	%rbp
	retq
LBB19_35:
Ltmp195:
	.loc	22 0 0 is_stmt 0
	callq	__ZN5alloc7raw_vec17capacity_overflow17h023f34f5bc34c61fE
Ltmp196:
LBB19_36:
	.loc	14 269 47 is_stmt 1
	movl	$1, %esi
	movq	%r14, %rdi
	callq	__ZN5alloc5alloc18handle_alloc_error17hbc0ab0ed90816c07E
Ltmp197:
LBB19_38:
	.loc	14 269 47 is_stmt 0
	movl	$1, %esi
	movq	%r12, %rdi
	callq	__ZN5alloc5alloc18handle_alloc_error17hbc0ab0ed90816c07E
Ltmp198:
Lfunc_end19:
	.cfi_endproc
	.file	24 "/rustc/a74d1862d4d87a56244958416fd05976c58ca1a8/src/libcore/slice/mod.rs"

	.p2align	4, 0x90
__ZN50_$LT$$RF$mut$u20$W$u20$as$u20$core..fmt..Write$GT$9write_fmt17h9f315287b61f88c8E:
Lfunc_begin20:
	.loc	11 207 0 is_stmt 1
	.cfi_startproc
	pushq	%rbp
	.cfi_def_cfa_offset 16
	.cfi_offset %rbp, -16
	movq	%rsp, %rbp
	.cfi_def_cfa_register %rbp
	subq	$64, %rsp
Ltmp199:
	.loc	11 208 9 prologue_end
	movq	(%rdi), %rax
	movq	%rax, -8(%rbp)
Ltmp200:
	.loc	11 193 26
	movq	40(%rsi), %rax
	movq	%rax, -16(%rbp)
	movq	32(%rsi), %rax
	movq	%rax, -24(%rbp)
	movq	24(%rsi), %rax
	movq	%rax, -32(%rbp)
	movq	16(%rsi), %rax
	movq	%rax, -40(%rbp)
	movq	(%rsi), %rax
	movq	8(%rsi), %rcx
	movq	%rcx, -48(%rbp)
	movq	%rax, -56(%rbp)
	.loc	11 193 9 is_stmt 0
	leaq	l___unnamed_3(%rip), %rsi
Ltmp201:
	.loc	11 0 9
	leaq	-8(%rbp), %rdi
Ltmp202:
	leaq	-56(%rbp), %rdx
	.loc	11 193 9
	callq	__ZN4core3fmt5write17h26bd57c1fd6e9c98E
Ltmp203:
	.loc	11 209 6 is_stmt 1
	addq	$64, %rsp
	popq	%rbp
	retq
Ltmp204:
Lfunc_end20:
	.cfi_endproc

	.p2align	4, 0x90
__ZN50_$LT$$RF$mut$u20$W$u20$as$u20$core..fmt..Write$GT$9write_str17h3660f870d9131065E:
Lfunc_begin21:
	.loc	11 199 0
	.cfi_startproc
	pushq	%rbp
	.cfi_def_cfa_offset 16
	.cfi_offset %rbp, -16
	movq	%rsp, %rbp
	.cfi_def_cfa_register %rbp
	pushq	%r15
	pushq	%r14
	pushq	%r13
	pushq	%r12
	pushq	%rbx
	pushq	%rax
	.cfi_offset %rbx, -56
	.cfi_offset %r12, -48
	.cfi_offset %r13, -40
	.cfi_offset %r14, -32
	.cfi_offset %r15, -24
	movq	%rdx, %r15
Ltmp205:
	movq	%rsi, %r14
Ltmp206:
	.loc	11 200 9 prologue_end
	movq	(%rdi), %r13
Ltmp207:
	.loc	14 280 12
	movq	8(%r13), %rsi
Ltmp208:
	.loc	18 500 26
	movq	16(%r13), %rbx
Ltmp209:
	.loc	19 3343 17
	movq	%rsi, %rax
	subq	%rbx, %rax
Ltmp210:
	.loc	14 378 9
	cmpq	%rdx, %rax
Ltmp211:
	.loc	14 280 9
	jae	LBB21_1
Ltmp212:
	.loc	19 3632 30
	movq	%rbx, %r12
	addq	%r15, %r12
Ltmp213:
	.loc	5 540 13
	jb	LBB21_15
Ltmp214:
	.loc	14 414 26
	leaq	(%rsi,%rsi), %rax
Ltmp215:
	.loc	20 1017 9
	cmpq	%r12, %rax
	.loc	20 0 0 is_stmt 0
	cmovaq	%rax, %r12
Ltmp216:
	.loc	14 200 40 is_stmt 1
	testq	%rsi, %rsi
	.loc	14 200 9 is_stmt 0
	je	LBB21_8
Ltmp217:
	.loc	14 420 57 is_stmt 1
	movq	(%r13), %rdi
Ltmp218:
	.loc	14 489 25
	testq	%rdi, %rdi
	je	LBB21_8
Ltmp219:
	.loc	15 205 12
	cmpq	%r12, %rsi
	.loc	15 205 9 is_stmt 0
	je	LBB21_12
Ltmp220:
	.loc	15 124 5 is_stmt 1
	movl	$1, %edx
	movq	%r12, %rcx
	callq	___rust_realloc
Ltmp221:
	.loc	15 0 5 is_stmt 0
	jmp	LBB21_11
Ltmp222:
LBB21_1:
	.loc	18 850 19 is_stmt 1
	movq	(%r13), %rdi
Ltmp223:
	.loc	18 0 19 is_stmt 0
	jmp	LBB21_2
Ltmp224:
LBB21_8:
	.loc	15 170 16 is_stmt 1
	testq	%r12, %r12
	.loc	15 170 13 is_stmt 0
	je	LBB21_9
Ltmp225:
	.loc	15 80 5 is_stmt 1
	movl	$1, %esi
	movq	%r12, %rdi
	callq	___rust_alloc
Ltmp226:
LBB21_11:
	.loc	14 0 0 is_stmt 0
	movq	%rax, %rdi
Ltmp227:
LBB21_12:
	.loc	21 611 13 is_stmt 1
	testq	%rdi, %rdi
	je	LBB21_16
Ltmp228:
	.loc	18 2176 23
	movq	16(%r13), %rbx
	jmp	LBB21_14
Ltmp229:
LBB21_9:
	.loc	18 0 23 is_stmt 0
	movl	$1, %edi
Ltmp230:
LBB21_14:
	.loc	14 387 9 is_stmt 1
	movq	%rdi, (%r13)
	.loc	14 388 9
	movq	%r12, 8(%r13)
Ltmp231:
LBB21_2:
	.loc	23 152 9
	addq	%rbx, %rdi
Ltmp232:
	.loc	6 2058 5
	movq	%r14, %rsi
	movq	%r15, %rdx
	callq	_memcpy
Ltmp233:
	.loc	18 2179 26
	addq	%r15, %rbx
Ltmp234:
	.loc	18 940 9
	movq	%rbx, 16(%r13)
Ltmp235:
	.loc	11 201 6
	xorl	%eax, %eax
	addq	$8, %rsp
	popq	%rbx
Ltmp236:
	popq	%r12
	popq	%r13
Ltmp237:
	popq	%r14
Ltmp238:
	popq	%r15
Ltmp239:
	popq	%rbp
	retq
LBB21_15:
Ltmp240:
	.loc	14 268 38
	callq	__ZN5alloc7raw_vec17capacity_overflow17h023f34f5bc34c61fE
Ltmp241:
LBB21_16:
	.loc	14 269 47
	movl	$1, %esi
	movq	%r12, %rdi
	callq	__ZN5alloc5alloc18handle_alloc_error17hbc0ab0ed90816c07E
Ltmp242:
Lfunc_end21:
	.cfi_endproc

	.p2align	4, 0x90
__ZN5alloc5alloc8box_free17h6f0c19cc7ab6afd8E:
Lfunc_begin22:
	.loc	15 281 0
	.cfi_startproc
	pushq	%rbp
	.cfi_def_cfa_offset 16
	.cfi_offset %rbp, -16
	movq	%rsp, %rbp
	.cfi_def_cfa_register %rbp
Ltmp243:
	.loc	15 102 5 prologue_end
	movl	$24, %esi
	movl	$8, %edx
	popq	%rbp
	jmp	___rust_dealloc
Ltmp244:
Lfunc_end22:
	.cfi_endproc

	.p2align	4, 0x90
__ZN5alloc5alloc8box_free17h9e751d3ae3a098f2E:
Lfunc_begin23:
	.loc	15 281 0
	.cfi_startproc
	pushq	%rbp
	.cfi_def_cfa_offset 16
	.cfi_offset %rbp, -16
	movq	%rsp, %rbp
	.cfi_def_cfa_register %rbp
	movq	%rsi, %rax
Ltmp245:
	.loc	15 282 16 prologue_end
	movq	8(%rsi), %rsi
Ltmp246:
	.loc	15 185 12
	testq	%rsi, %rsi
	.loc	15 185 9 is_stmt 0
	je	LBB23_1
Ltmp247:
	.loc	15 283 17 is_stmt 1
	movq	16(%rax), %rdx
Ltmp248:
	.loc	15 102 5
	popq	%rbp
	jmp	___rust_dealloc
Ltmp249:
LBB23_1:
	.loc	15 286 2
	popq	%rbp
	retq
Ltmp250:
Lfunc_end23:
	.cfi_endproc

	.p2align	4, 0x90
__ZN91_$LT$std..panicking..begin_panic..PanicPayload$LT$A$GT$$u20$as$u20$core..panic..BoxMeUp$GT$3get17ha50df4574487cf55E:
Lfunc_begin24:
	.loc	10 430 0
	.cfi_startproc
	pushq	%rbp
	.cfi_def_cfa_offset 16
	.cfi_offset %rbp, -16
	movq	%rsp, %rbp
	.cfi_def_cfa_register %rbp
Ltmp251:
	.loc	10 432 17 prologue_end
	cmpq	$0, (%rdi)
	je	LBB24_2
Ltmp252:
	.loc	10 0 17 is_stmt 0
	movq	%rdi, %rax
Ltmp253:
	.loc	10 435 10 is_stmt 1
	leaq	l___unnamed_5(%rip), %rdx
	popq	%rbp
	retq
Ltmp254:
LBB24_2:
	.loc	10 433 25
	callq	__ZN3std7process5abort17h4dccaf05298ce780E
Ltmp255:
Lfunc_end24:
	.cfi_endproc

	.p2align	4, 0x90
__ZN91_$LT$std..panicking..begin_panic..PanicPayload$LT$A$GT$$u20$as$u20$core..panic..BoxMeUp$GT$8take_box17hb73efcf2a7c4e64bE:
Lfunc_begin25:
	.loc	10 417 0
	.cfi_startproc
	pushq	%rbp
	.cfi_def_cfa_offset 16
	.cfi_offset %rbp, -16
	movq	%rsp, %rbp
	.cfi_def_cfa_register %rbp
Ltmp256:
	pushq	%r14
	pushq	%rbx
	.cfi_offset %rbx, -32
	.cfi_offset %r14, -24
Ltmp257:
	.loc	6 2058 5 prologue_end
	movq	(%rdi), %rbx
Ltmp258:
	movq	8(%rdi), %r14
Ltmp259:
	.loc	6 2058 5 is_stmt 0
	movq	$0, (%rdi)
Ltmp260:
	.loc	10 424 17 is_stmt 1
	testq	%rbx, %rbx
	je	LBB25_3
Ltmp261:
	.loc	15 80 5
	movl	$16, %edi
Ltmp262:
	movl	$8, %esi
	callq	___rust_alloc
Ltmp263:
	.loc	15 269 9
	testq	%rax, %rax
	je	LBB25_4
Ltmp264:
	.file	25 "/rustc/a74d1862d4d87a56244958416fd05976c58ca1a8/src/liballoc/boxed.rs"
	.loc	25 174 13
	movq	%rbx, (%rax)
	movq	%r14, 8(%rax)
Ltmp265:
	.file	26 "/rustc/a74d1862d4d87a56244958416fd05976c58ca1a8/src/libcore/ptr/unique.rs"
	.loc	26 108 6
	leaq	l___unnamed_5(%rip), %rdx
Ltmp266:
	.loc	10 428 10
	popq	%rbx
Ltmp267:
	popq	%r14
Ltmp268:
	popq	%rbp
	retq
Ltmp269:
LBB25_3:
	.loc	10 425 25
	callq	__ZN3std7process5abort17h4dccaf05298ce780E
Ltmp270:
LBB25_4:
	.loc	15 270 19
	movl	$16, %edi
	movl	$8, %esi
	callq	__ZN5alloc5alloc18handle_alloc_error17hbc0ab0ed90816c07E
Ltmp271:
Lfunc_end25:
	.cfi_endproc

	.globl	__ZN4time7display60_$LT$impl$u20$core..fmt..Display$u20$for$u20$time..TmFmt$GT$3fmt17h52c0ea1f20840d77E
	.p2align	4, 0x90
__ZN4time7display60_$LT$impl$u20$core..fmt..Display$u20$for$u20$time..TmFmt$GT$3fmt17h52c0ea1f20840d77E:
Lfunc_begin26:
	.file	27 "/Users/yingyuhang/.cargo/registry/src/github.com-1ecc6299db9ec823/time-0.1.43/src/display.rs"
	.loc	27 6 0
	.cfi_startproc
	.cfi_personality 155, _rust_eh_personality
	.cfi_lsda 16, Lexception1
	pushq	%rbp
	.cfi_def_cfa_offset 16
	.cfi_offset %rbp, -16
	movq	%rsp, %rbp
	.cfi_def_cfa_register %rbp
	pushq	%r15
	pushq	%r14
	pushq	%r13
	pushq	%r12
	pushq	%rbx
	subq	$184, %rsp
	.cfi_offset %rbx, -56
	.cfi_offset %r12, -48
	.cfi_offset %r13, -40
	.cfi_offset %r14, -32
	.cfi_offset %r15, -24
	movq	%rsi, %r14
Ltmp275:
	movq	%rdi, %r15
Ltmp276:
	.loc	27 8 13 prologue_end
	movq	8(%rdi), %rax
	testq	%rax, %rax
	je	LBB26_9
Ltmp277:
	cmpq	$2, %rax
	je	LBB26_7
Ltmp278:
	.loc	27 24 20
	movq	(%r15), %rcx
	movl	36(%rcx), %eax
Ltmp279:
	testl	%eax, %eax
	.loc	27 24 17 is_stmt 0
	je	LBB26_45
Ltmp280:
	.loc	27 30 29 is_stmt 1
	movq	%rcx, -224(%rbp)
	movq	$0, -216(%rbp)
	leaq	l___unnamed_21(%rip), %rcx
	movq	%rcx, -208(%rbp)
	movq	$17, -200(%rbp)
Ltmp281:
	.loc	27 34 35
	xorl	%ecx, %ecx
	testl	%eax, %eax
	setle	%cl
	.loc	27 34 32 is_stmt 0
	leal	43(%rcx,%rcx), %ecx
	.loc	27 0 0
	movl	%ecx, -52(%rbp)
Ltmp282:
	.loc	27 259 5 is_stmt 1
	jns	LBB26_6
Ltmp283:
	.loc	27 259 15 is_stmt 0
	cmpl	$-2147483648, %eax
	je	LBB26_56
Ltmp284:
	negl	%eax
Ltmp285:
LBB26_6:
	.loc	27 35 33 is_stmt 1
	movl	%eax, %eax
	movl	$2290649225, %ecx
	imulq	%rax, %rcx
	shrq	$37, %rcx
Ltmp286:
	.loc	27 0 33 is_stmt 0
	movl	$2443359173, %edx
Ltmp287:
	.loc	27 36 29 is_stmt 1
	imulq	%rax, %rdx
	shrq	$43, %rdx
Ltmp288:
	movl	%edx, -192(%rbp)
Ltmp289:
	.loc	27 37 21
	imull	$-60, %edx, %eax
	addl	%ecx, %eax
Ltmp290:
	movl	%eax, -48(%rbp)
	leaq	-224(%rbp), %rax
Ltmp291:
	.loc	27 38 21
	movq	%rax, -128(%rbp)
	leaq	__ZN4time7display60_$LT$impl$u20$core..fmt..Display$u20$for$u20$time..TmFmt$GT$3fmt17h52c0ea1f20840d77E(%rip), %rax
	movq	%rax, -120(%rbp)
	leaq	-52(%rbp), %rax
	movq	%rax, -112(%rbp)
	movq	__ZN43_$LT$char$u20$as$u20$core..fmt..Display$GT$3fmt17h6751376c1412eca9E@GOTPCREL(%rip), %rax
	movq	%rax, -104(%rbp)
	leaq	-192(%rbp), %rax
	movq	%rax, -96(%rbp)
	movq	__ZN4core3fmt3num3imp52_$LT$impl$u20$core..fmt..Display$u20$for$u20$i32$GT$3fmt17he2ccc2060d52a2ceE@GOTPCREL(%rip), %rax
	movq	%rax, -88(%rbp)
	leaq	-48(%rbp), %rcx
	movq	%rcx, -80(%rbp)
	movq	%rax, -72(%rbp)
Ltmp292:
	.loc	11 345 9
	leaq	l___unnamed_22(%rip), %rax
Ltmp293:
	movq	%rax, -176(%rbp)
	movq	$4, -168(%rbp)
	leaq	l___unnamed_23(%rip), %rax
Ltmp294:
	movq	%rax, -160(%rbp)
	movq	$4, -152(%rbp)
	leaq	-128(%rbp), %rax
	movq	%rax, -144(%rbp)
	movq	$4, -136(%rbp)
	leaq	-176(%rbp), %rsi
Ltmp295:
	.loc	27 38 21
	movq	%r14, %rdi
	callq	__ZN4core3fmt9Formatter9write_fmt17h3dc2bf45afed3069E
	jmp	LBB26_47
Ltmp296:
LBB26_7:
	.loc	27 22 27
	movq	(%r15), %rdi
Ltmp297:
	.loc	2 443 12
	callq	__ZN4time2Tm11to_timespec17h4d8ca1275501b8f5E
Ltmp298:
	movl	%edx, %ebx
Ltmp299:
	.loc	1 295 23
	movq	%rax, -48(%rbp)
Ltmp300:
	.loc	6 2205 5
	xorps	%xmm0, %xmm0
	movaps	%xmm0, -96(%rbp)
	movaps	%xmm0, -112(%rbp)
	movaps	%xmm0, -128(%rbp)
	movq	$0, -80(%rbp)
Ltmp301:
	.loc	6 0 5 is_stmt 0
	leaq	-48(%rbp), %rdi
	leaq	-128(%rbp), %r15
Ltmp302:
	.loc	1 297 16 is_stmt 1
	movq	%r15, %rsi
	callq	_localtime_r
Ltmp303:
	.loc	23 28 9
	testq	%rax, %rax
Ltmp304:
	.loc	1 297 13
	je	LBB26_54
Ltmp305:
	.loc	1 314 26
	movl	-88(%rbp), %eax
Ltmp306:
	.loc	1 245 26
	movaps	-128(%rbp), %xmm0
	.loc	1 249 26
	movaps	-112(%rbp), %xmm1
	.loc	1 253 28
	movl	-96(%rbp), %ecx
Ltmp307:
	.loc	2 422 5
	movaps	%xmm0, -128(%rbp)
	movaps	%xmm1, -112(%rbp)
	movl	%ecx, -96(%rbp)
	movl	%eax, -92(%rbp)
	movl	%ebx, -88(%rbp)
Ltmp308:
	.loc	2 474 9
	movq	%r15, -176(%rbp)
	movq	$0, -168(%rbp)
	leaq	l___unnamed_24(%rip), %rax
Ltmp309:
	movq	%rax, -160(%rbp)
	movq	$2, -152(%rbp)
	leaq	-176(%rbp), %rdi
	jmp	LBB26_46
Ltmp310:
LBB26_9:
	.loc	27 9 33
	movq	24(%r15), %r12
Ltmp311:
	.loc	24 3179 9
	testq	%r12, %r12
	.loc	24 3303 21
	je	LBB26_49
Ltmp312:
	.loc	27 0 0 is_stmt 0
	movq	16(%r15), %rcx
Ltmp313:
	addq	%rcx, %r12
Ltmp314:
	.loc	23 152 9 is_stmt 1
	leaq	1(%rcx), %rbx
Ltmp315:
	.loc	16 519 13
	movzbl	(%rcx), %esi
Ltmp316:
	.loc	16 520 8
	testb	%sil, %sil
	.loc	16 520 5 is_stmt 0
	jns	LBB26_16
	jmp	LBB26_19
Ltmp317:
LBB26_11:
	.loc	16 0 5
	shll	$6, %ecx
Ltmp318:
LBB26_12:
	orl	%ecx, %eax
Ltmp319:
	movl	%eax, %esi
Ltmp320:
LBB26_13:
	.loc	27 14 64 is_stmt 1
	movq	(%r15), %rdx
	.loc	27 14 25 is_stmt 0
	movq	%r14, %rdi
	callq	__ZN4time7display10parse_type17h3b81845bd3211e28E
Ltmp321:
	.loc	27 9 33 is_stmt 1
	movq	%r13, %rbx
Ltmp322:
	.loc	27 14 72
	testb	%al, %al
	jne	LBB26_53
Ltmp323:
LBB26_14:
	.loc	27 0 72 is_stmt 0
	movq	%rbx, %rcx
Ltmp324:
	.loc	24 3179 9 is_stmt 1
	cmpq	%r12, %rbx
	.loc	24 3303 21
	je	LBB26_49
Ltmp325:
	.loc	23 152 9
	leaq	1(%rcx), %rbx
Ltmp326:
	.loc	16 519 13
	movzbl	(%rcx), %esi
Ltmp327:
	.loc	16 520 8
	testb	%sil, %sil
	.loc	16 520 5 is_stmt 0
	js	LBB26_19
Ltmp328:
LBB26_16:
	.loc	27 10 27 is_stmt 1
	cmpl	$37, %esi
	je	LBB26_27
Ltmp329:
LBB26_17:
	cmpl	$1114112, %esi
	je	LBB26_49
Ltmp330:
	.loc	27 16 25
	movq	%r14, %rdi
	callq	__ZN57_$LT$core..fmt..Formatter$u20$as$u20$core..fmt..Write$GT$10write_char17h3b1c8fe2b30b815fE
	.loc	27 16 43 is_stmt 0
	testb	%al, %al
	je	LBB26_14
	jmp	LBB26_53
Ltmp331:
	.p2align	4, 0x90
LBB26_19:
	.loc	24 3179 9 is_stmt 1
	cmpq	%r12, %rbx
	.loc	24 3303 21
	je	LBB26_25
Ltmp332:
	.loc	16 508 15
	movzbl	1(%rcx), %eax
Ltmp333:
	.loc	23 152 9
	addq	$2, %rcx
Ltmp334:
	.loc	16 507 5
	andl	$63, %eax
Ltmp335:
	.loc	16 0 0 is_stmt 0
	movq	%rcx, %rbx
Ltmp336:
	movl	%esi, %ecx
	andl	$31, %ecx
Ltmp337:
	.loc	16 530 8 is_stmt 1
	cmpb	$-33, %sil
	.loc	16 530 5 is_stmt 0
	jbe	LBB26_26
Ltmp338:
LBB26_21:
	.loc	24 3179 9 is_stmt 1
	cmpq	%r12, %rbx
	.loc	24 3303 21
	je	LBB26_35
Ltmp339:
	.loc	16 508 15
	movzbl	(%rbx), %edi
Ltmp340:
	.loc	23 152 9
	incq	%rbx
Ltmp341:
	.loc	16 507 5
	andl	$63, %edi
	movq	%rbx, %rdx
Ltmp342:
	.loc	16 495 5
	shll	$6, %eax
	orl	%edi, %eax
Ltmp343:
	.loc	16 536 12
	cmpb	$-16, %sil
	.loc	16 536 9 is_stmt 0
	jb	LBB26_36
Ltmp344:
LBB26_23:
	.loc	24 3179 9 is_stmt 1
	cmpq	%r12, %rdx
	.loc	24 3303 21
	je	LBB26_38
Ltmp345:
	.loc	16 508 15
	movzbl	(%rdx), %esi
Ltmp346:
	.loc	23 152 9
	incq	%rdx
Ltmp347:
	.loc	16 507 5
	andl	$63, %esi
Ltmp348:
	.loc	16 0 0 is_stmt 0
	movq	%rdx, %rbx
	jmp	LBB26_39
Ltmp349:
LBB26_25:
	xorl	%eax, %eax
	movq	%r12, %rbx
Ltmp350:
	movl	%esi, %ecx
	andl	$31, %ecx
Ltmp351:
	.loc	16 530 8 is_stmt 1
	cmpb	$-33, %sil
	.loc	16 530 5 is_stmt 0
	ja	LBB26_21
Ltmp352:
LBB26_26:
	.loc	16 0 5
	shll	$6, %ecx
Ltmp353:
	orl	%ecx, %eax
Ltmp354:
	movl	%eax, %esi
Ltmp355:
	.loc	27 10 27 is_stmt 1
	cmpl	$37, %esi
	jne	LBB26_17
Ltmp356:
	.p2align	4, 0x90
LBB26_27:
	.loc	24 3179 9
	cmpq	%r12, %rbx
	.loc	24 3303 21
	je	LBB26_44
Ltmp357:
	.loc	23 152 9
	leaq	1(%rbx), %r13
Ltmp358:
	.loc	16 519 13
	movzbl	(%rbx), %esi
Ltmp359:
	.loc	16 520 8
	testb	%sil, %sil
	.loc	16 520 5 is_stmt 0
	jns	LBB26_13
Ltmp360:
	.loc	24 3179 9 is_stmt 1
	cmpq	%r12, %r13
	.loc	24 3303 21
	je	LBB26_37
Ltmp361:
	.loc	16 508 15
	movzbl	1(%rbx), %eax
Ltmp362:
	.loc	23 152 9
	addq	$2, %rbx
Ltmp363:
	.loc	16 507 5
	andl	$63, %eax
Ltmp364:
	.loc	16 0 0 is_stmt 0
	movq	%rbx, %r13
Ltmp365:
	movl	%esi, %ecx
	andl	$31, %ecx
Ltmp366:
	.loc	16 530 8 is_stmt 1
	cmpb	$-33, %sil
	.loc	16 530 5 is_stmt 0
	jbe	LBB26_11
Ltmp367:
LBB26_31:
	.loc	24 3179 9 is_stmt 1
	cmpq	%r12, %r13
	.loc	24 3303 21
	je	LBB26_40
Ltmp368:
	.loc	16 508 15
	movzbl	(%r13), %edi
Ltmp369:
	.loc	23 152 9
	incq	%r13
Ltmp370:
	.loc	16 507 5
	andl	$63, %edi
	movq	%r13, %rdx
Ltmp371:
	.loc	16 495 5
	shll	$6, %eax
	orl	%edi, %eax
Ltmp372:
	.loc	16 536 12
	cmpb	$-16, %sil
	.loc	16 536 9 is_stmt 0
	jb	LBB26_41
Ltmp373:
LBB26_33:
	.loc	24 3179 9 is_stmt 1
	cmpq	%r12, %rdx
	.loc	24 3303 21
	je	LBB26_42
Ltmp374:
	.loc	16 508 15
	movzbl	(%rdx), %esi
Ltmp375:
	.loc	23 152 9
	incq	%rdx
Ltmp376:
	.loc	16 507 5
	andl	$63, %esi
Ltmp377:
	.loc	16 0 0 is_stmt 0
	movq	%rdx, %r13
	jmp	LBB26_43
Ltmp378:
LBB26_35:
	xorl	%edi, %edi
	movq	%r12, %rdx
Ltmp379:
	.loc	16 495 5 is_stmt 1
	shll	$6, %eax
	orl	%edi, %eax
Ltmp380:
	.loc	16 536 12
	cmpb	$-16, %sil
	.loc	16 536 9 is_stmt 0
	jae	LBB26_23
Ltmp381:
LBB26_36:
	.loc	16 0 9
	shll	$12, %ecx
Ltmp382:
	orl	%ecx, %eax
Ltmp383:
	movl	%eax, %esi
Ltmp384:
	.loc	27 10 27 is_stmt 1
	cmpl	$37, %esi
	jne	LBB26_17
	jmp	LBB26_27
Ltmp385:
LBB26_37:
	.loc	27 0 27 is_stmt 0
	xorl	%eax, %eax
Ltmp386:
	movq	%r12, %r13
Ltmp387:
	movl	%esi, %ecx
	andl	$31, %ecx
Ltmp388:
	.loc	16 530 8 is_stmt 1
	cmpb	$-33, %sil
	.loc	16 530 5 is_stmt 0
	ja	LBB26_31
	jmp	LBB26_11
Ltmp389:
LBB26_38:
	.loc	16 0 5
	xorl	%esi, %esi
Ltmp390:
LBB26_39:
	.loc	16 540 18 is_stmt 1
	andl	$7, %ecx
Ltmp391:
	shll	$18, %ecx
Ltmp392:
	.loc	16 495 5
	shll	$6, %eax
Ltmp393:
	orl	%ecx, %eax
Ltmp394:
	.loc	16 540 13
	orl	%esi, %eax
Ltmp395:
	.loc	16 0 13 is_stmt 0
	movl	%eax, %esi
Ltmp396:
	.loc	27 10 27 is_stmt 1
	cmpl	$37, %esi
	jne	LBB26_17
	jmp	LBB26_27
Ltmp397:
LBB26_40:
	.loc	27 0 27 is_stmt 0
	xorl	%edi, %edi
	movq	%r12, %rdx
Ltmp398:
	.loc	16 495 5 is_stmt 1
	shll	$6, %eax
	orl	%edi, %eax
Ltmp399:
	.loc	16 536 12
	cmpb	$-16, %sil
	.loc	16 536 9 is_stmt 0
	jae	LBB26_33
Ltmp400:
LBB26_41:
	.loc	16 0 9
	shll	$12, %ecx
Ltmp401:
	jmp	LBB26_12
Ltmp402:
LBB26_42:
	xorl	%esi, %esi
Ltmp403:
LBB26_43:
	.loc	16 540 18 is_stmt 1
	andl	$7, %ecx
Ltmp404:
	shll	$18, %ecx
Ltmp405:
	.loc	16 495 5
	shll	$6, %eax
Ltmp406:
	orl	%ecx, %eax
Ltmp407:
	.loc	16 540 13
	orl	%esi, %eax
Ltmp408:
	.loc	16 0 13 is_stmt 0
	movl	%eax, %esi
Ltmp409:
	.loc	5 387 13 is_stmt 1
	cmpl	$1114112, %eax
Ltmp410:
	jne	LBB26_13
Ltmp411:
LBB26_44:
	.loc	7 10 9
	leaq	l___unnamed_15(%rip), %rdi
	leaq	l___unnamed_25(%rip), %rdx
	movl	$43, %esi
	callq	__ZN4core9panicking5panic17h736ee47a631475c0E
Ltmp412:
LBB26_49:
	.loc	7 0 9 is_stmt 0
	xorl	%eax, %eax
	jmp	LBB26_48
Ltmp413:
LBB26_45:
	.loc	27 25 21 is_stmt 1
	movq	%rcx, -128(%rbp)
	movq	$0, -120(%rbp)
	leaq	l___unnamed_26(%rip), %rax
	movq	%rax, -112(%rbp)
	movq	$18, -104(%rbp)
	leaq	-128(%rbp), %rdi
Ltmp414:
LBB26_46:
	.loc	27 0 0 is_stmt 0
	movq	%r14, %rsi
	callq	__ZN4time7display60_$LT$impl$u20$core..fmt..Display$u20$for$u20$time..TmFmt$GT$3fmt17h52c0ea1f20840d77E
Ltmp415:
LBB26_47:
LBB26_48:
	.loc	27 42 6 is_stmt 1
	addq	$184, %rsp
	popq	%rbx
	popq	%r12
	popq	%r13
	popq	%r14
Ltmp416:
	popq	%r15
	popq	%rbp
	retq
LBB26_53:
Ltmp417:
	.loc	27 0 6 is_stmt 0
	movb	$1, %al
	jmp	LBB26_48
Ltmp418:
LBB26_54:
	leaq	-224(%rbp), %rbx
Ltmp419:
	.loc	1 298 50 is_stmt 1
	movq	%rbx, %rdi
	callq	__ZN3std2io5error5Error13last_os_error17h5c14d716e3637a11E
Ltmp420:
	.loc	1 298 17 is_stmt 0
	movq	%rbx, -192(%rbp)
	movq	__ZN60_$LT$std..io..error..Error$u20$as$u20$core..fmt..Display$GT$3fmt17hd5a23906ccc4fffdE@GOTPCREL(%rip), %rax
	movq	%rax, -184(%rbp)
Ltmp421:
	.loc	11 328 9 is_stmt 1
	leaq	l___unnamed_27(%rip), %rax
Ltmp422:
	movq	%rax, -176(%rbp)
	movq	$1, -168(%rbp)
	movq	$0, -160(%rbp)
	leaq	-192(%rbp), %rax
Ltmp423:
	movq	%rax, -144(%rbp)
	movq	$1, -136(%rbp)
Ltmp424:
Ltmp272:
	.loc	1 298 17
	leaq	l___unnamed_28(%rip), %rsi
	leaq	-176(%rbp), %rdi
	callq	__ZN3std9panicking15begin_panic_fmt17h2e6dba6f5c07d155E
Ltmp273:
Ltmp425:
	.loc	1 0 17 is_stmt 0
	ud2
Ltmp426:
LBB26_56:
	.loc	27 259 15 is_stmt 1
	leaq	_str.6(%rip), %rdi
	leaq	l___unnamed_29(%rip), %rdx
	movl	$31, %esi
	callq	__ZN4core9panicking5panic17h736ee47a631475c0E
Ltmp427:
LBB26_57:
Ltmp274:
	.loc	27 0 15 is_stmt 0
	movq	%rax, %rbx
	leaq	-224(%rbp), %rdi
Ltmp428:
	.loc	1 298 17 is_stmt 1
	callq	__ZN4core3ptr13drop_in_place17h34bad5a43b19ceebE
	movq	%rbx, %rdi
	callq	__Unwind_Resume
	ud2
Ltmp429:
Lfunc_end26:
	.cfi_endproc
	.file	28 "/rustc/a74d1862d4d87a56244958416fd05976c58ca1a8/src/libcore/mem/maybe_uninit.rs"
	.section	__TEXT,__gcc_except_tab
	.p2align	2
GCC_except_table26:
Lexception1:
	.byte	255
	.byte	255
	.byte	1
	.uleb128 Lcst_end1-Lcst_begin1
Lcst_begin1:
	.uleb128 Lfunc_begin26-Lfunc_begin26
	.uleb128 Ltmp272-Lfunc_begin26
	.byte	0
	.byte	0
	.uleb128 Ltmp272-Lfunc_begin26
	.uleb128 Ltmp273-Ltmp272
	.uleb128 Ltmp274-Lfunc_begin26
	.byte	0
	.uleb128 Ltmp273-Lfunc_begin26
	.uleb128 Lfunc_end26-Ltmp273
	.byte	0
	.byte	0
Lcst_end1:
	.p2align	2

	.section	__TEXT,__text,regular,pure_instructions
	.p2align	4, 0x90
__ZN4time7display13iso_week_days17h6cb2e8a3486234f3E:
Lfunc_begin27:
	.loc	27 54 0
	.cfi_startproc
	pushq	%rbp
	.cfi_def_cfa_offset 16
	.cfi_offset %rbp, -16
	movq	%rsp, %rbp
	.cfi_def_cfa_register %rbp
Ltmp430:
	.loc	27 67 13 prologue_end
	movl	%edi, %ecx
	subl	%esi, %ecx
	jo	LBB27_6
Ltmp431:
	addl	$4, %ecx
	jo	LBB27_7
Ltmp432:
	.loc	27 67 12 is_stmt 0
	addl	$378, %ecx
	jo	LBB27_8
Ltmp433:
	.loc	27 0 12
	movl	%edi, %eax
Ltmp434:
	.loc	27 67 12
	movslq	%ecx, %rcx
	imulq	$-1840700269, %rcx, %rdx
	shrq	$32, %rdx
	addl	%ecx, %edx
	movl	%edx, %esi
Ltmp435:
	shrl	$31, %esi
	sarl	$2, %edx
	addl	%esi, %edx
	leal	(,%rdx,8), %esi
	subl	%esi, %edx
	addl	%ecx, %edx
	.loc	27 67 5
	subl	%edx, %eax
Ltmp436:
	jo	LBB27_9
Ltmp437:
	addl	$4, %eax
	jo	LBB27_10
Ltmp438:
	decl	%eax
Ltmp439:
	.loc	27 69 2 is_stmt 1
	popq	%rbp
	retq
Ltmp440:
LBB27_6:
	.loc	27 67 13
	leaq	_str.0(%rip), %rdi
Ltmp441:
	leaq	l___unnamed_30(%rip), %rdx
	movl	$33, %esi
Ltmp442:
	callq	__ZN4core9panicking5panic17h736ee47a631475c0E
Ltmp443:
LBB27_7:
	leaq	_str.5(%rip), %rdi
Ltmp444:
	leaq	l___unnamed_30(%rip), %rdx
	movl	$28, %esi
Ltmp445:
	callq	__ZN4core9panicking5panic17h736ee47a631475c0E
Ltmp446:
LBB27_8:
	.loc	27 67 12 is_stmt 0
	leaq	_str.5(%rip), %rdi
Ltmp447:
	leaq	l___unnamed_31(%rip), %rdx
	movl	$28, %esi
Ltmp448:
	callq	__ZN4core9panicking5panic17h736ee47a631475c0E
Ltmp449:
LBB27_9:
	.loc	27 67 5
	leaq	_str.0(%rip), %rdi
	leaq	l___unnamed_32(%rip), %rdx
	movl	$33, %esi
	callq	__ZN4core9panicking5panic17h736ee47a631475c0E
Ltmp450:
LBB27_10:
	leaq	_str.5(%rip), %rdi
	leaq	l___unnamed_32(%rip), %rdx
	movl	$28, %esi
	callq	__ZN4core9panicking5panic17h736ee47a631475c0E
Ltmp451:
Lfunc_end27:
	.cfi_endproc

	.p2align	4, 0x90
__ZN4time7display8iso_week17hc0f399593512afabE:
Lfunc_begin28:
	.loc	27 71 0 is_stmt 1
	.cfi_startproc
	pushq	%rbp
	.cfi_def_cfa_offset 16
	.cfi_offset %rbp, -16
	movq	%rsp, %rbp
	.cfi_def_cfa_register %rbp
	pushq	%r15
	pushq	%r14
	pushq	%r13
	pushq	%r12
	pushq	%rbx
	subq	$88, %rsp
	.cfi_offset %rbx, -56
	.cfi_offset %r12, -48
	.cfi_offset %r13, -40
	.cfi_offset %r14, -32
	.cfi_offset %r15, -24
	movl	%edx, %ebx
	movq	%rdi, -72(%rbp)
Ltmp452:
	.loc	27 72 20 prologue_end
	addl	$1900, %ebx
	jo	LBB28_23
Ltmp453:
	.loc	27 0 20 is_stmt 0
	movl	%r8d, %r13d
	movl	%ecx, %r12d
	movl	%esi, %r15d
Ltmp454:
	.loc	27 72 20
	movl	%ebx, -44(%rbp)
Ltmp455:
	.loc	27 73 20 is_stmt 1
	movl	%r8d, %edi
	movl	%ecx, %esi
	callq	__ZN4time7display13iso_week_days17h6cb2e8a3486234f3E
Ltmp456:
	.loc	27 75 8
	testl	%eax, %eax
	.loc	27 75 5 is_stmt 0
	js	LBB28_8
Ltmp457:
	.loc	27 0 5
	movl	%eax, %r14d
Ltmp458:
	movl	$365, %eax
Ltmp459:
	.loc	27 46 5 is_stmt 1
	testb	$3, %bl
	jne	LBB28_4
Ltmp460:
	.loc	27 46 26 is_stmt 0
	movslq	%ebx, %rax
	imulq	$1374389535, %rax, %rax
	movq	%rax, %rcx
	sarq	$37, %rcx
	movq	%rax, %rdx
	shrq	$63, %rdx
	addl	%edx, %ecx
	imull	$100, %ecx, %ecx
	.loc	27 46 25
	cmpl	%ecx, %ebx
	setne	%cl
	.loc	27 46 47
	sarq	$39, %rax
	addl	%edx, %eax
	imull	$400, %eax, %eax
	.loc	27 46 46
	cmpl	%eax, %ebx
	sete	%al
	.loc	27 46 24
	orb	%cl, %al
Ltmp461:
	.loc	27 50 5 is_stmt 1
	movzbl	%al, %eax
	addl	$365, %eax
Ltmp462:
LBB28_4:
	.loc	27 80 31
	subl	%eax, %r13d
	jo	LBB28_25
Ltmp463:
	.loc	27 80 17 is_stmt 0
	movl	%r13d, %edi
	movl	%r12d, %esi
	callq	__ZN4time7display13iso_week_days17h6cb2e8a3486234f3E
Ltmp464:
	.loc	27 82 12 is_stmt 1
	testl	%eax, %eax
	.loc	27 82 9 is_stmt 0
	js	LBB28_13
Ltmp465:
	.loc	27 84 13 is_stmt 1
	incl	%ebx
Ltmp466:
	jo	LBB28_26
Ltmp467:
	movl	%ebx, -44(%rbp)
	jmp	LBB28_12
Ltmp468:
LBB28_8:
	.loc	27 77 9
	decl	%ebx
Ltmp469:
	movl	%ebx, -44(%rbp)
	movl	$365, %eax
Ltmp470:
	.loc	27 46 5
	testb	$3, %bl
	jne	LBB28_10
Ltmp471:
	.loc	27 46 26 is_stmt 0
	movslq	%ebx, %rax
	imulq	$1374389535, %rax, %rax
	movq	%rax, %rcx
	sarq	$37, %rcx
	movq	%rax, %rdx
	shrq	$63, %rdx
	addl	%edx, %ecx
	imull	$100, %ecx, %ecx
	.loc	27 46 25
	cmpl	%ecx, %ebx
	setne	%cl
	.loc	27 46 47
	sarq	$39, %rax
	addl	%edx, %eax
	imull	$400, %eax, %eax
	.loc	27 46 46
	cmpl	%eax, %ebx
	sete	%al
	.loc	27 46 24
	orb	%cl, %al
Ltmp472:
	.loc	27 50 5 is_stmt 1
	movzbl	%al, %eax
	addl	$365, %eax
Ltmp473:
LBB28_10:
	.loc	27 78 30
	addl	%eax, %r13d
	jo	LBB28_24
Ltmp474:
	.loc	27 78 16 is_stmt 0
	movl	%r13d, %edi
	movl	%r12d, %esi
	callq	__ZN4time7display13iso_week_days17h6cb2e8a3486234f3E
Ltmp475:
LBB28_12:
	.loc	27 0 0
	movl	%eax, %r14d
Ltmp476:
LBB28_13:
	.loc	27 90 9 is_stmt 1
	cmpl	$103, %r15d
	je	LBB28_18
Ltmp477:
	cmpl	$86, %r15d
	je	LBB28_19
Ltmp478:
	cmpl	$71, %r15d
	jne	LBB28_16
Ltmp479:
	.loc	27 0 9 is_stmt 0
	leaq	-120(%rbp), %rsi
	leaq	-64(%rbp), %rax
	leaq	-44(%rbp), %rcx
Ltmp480:
	.loc	27 90 16
	movq	%rcx, -64(%rbp)
	movq	__ZN4core3fmt3num3imp52_$LT$impl$u20$core..fmt..Display$u20$for$u20$i32$GT$3fmt17he2ccc2060d52a2ceE@GOTPCREL(%rip), %rcx
	movq	%rcx, -56(%rbp)
Ltmp481:
	.loc	11 328 9 is_stmt 1
	leaq	l___unnamed_33(%rip), %rcx
Ltmp482:
	movq	%rcx, -120(%rbp)
	movq	$1, -112(%rbp)
	movq	$0, -104(%rbp)
	jmp	LBB28_21
Ltmp483:
LBB28_19:
	.loc	11 0 9 is_stmt 0
	leaq	-120(%rbp), %rsi
	leaq	-64(%rbp), %rax
	.loc	27 92 37 is_stmt 1
	movslq	%r14d, %rcx
	imulq	$-1840700269, %rcx, %rdx
	shrq	$32, %rdx
	addl	%edx, %ecx
	movl	%ecx, %edx
	sarl	$2, %edx
	shrl	$31, %ecx
	leal	1(%rdx,%rcx), %ecx
	movl	%ecx, -48(%rbp)
	jmp	LBB28_20
Ltmp484:
LBB28_18:
	.loc	27 0 37 is_stmt 0
	leaq	-120(%rbp), %rsi
	leaq	-64(%rbp), %rax
Ltmp485:
	.loc	27 91 38 is_stmt 1
	movslq	%ebx, %rcx
	imulq	$1374389535, %rcx, %rdx
	movq	%rdx, %rdi
	shrq	$63, %rdi
	shrq	$32, %rdx
	sarl	$5, %edx
	addl	%edi, %edx
	imull	$100, %edx, %edx
	.loc	27 91 37 is_stmt 0
	negl	%edx
	leal	100(%rcx,%rdx), %ecx
	movslq	%ecx, %rcx
	imulq	$1374389535, %rcx, %rdx
	movq	%rdx, %rdi
	shrq	$63, %rdi
	shrq	$32, %rdx
	sarl	$5, %edx
	addl	%edi, %edx
	imull	$100, %edx, %edx
	subl	%edx, %ecx
	movl	%ecx, -48(%rbp)
Ltmp486:
LBB28_20:
	.loc	27 0 37
	leaq	-48(%rbp), %rcx
Ltmp487:
	movq	%rcx, -64(%rbp)
	movq	__ZN4core3fmt3num3imp52_$LT$impl$u20$core..fmt..Display$u20$for$u20$i32$GT$3fmt17he2ccc2060d52a2ceE@GOTPCREL(%rip), %rcx
	movq	%rcx, -56(%rbp)
Ltmp488:
	leaq	l___unnamed_33(%rip), %rcx
Ltmp489:
	movq	%rcx, -120(%rbp)
	movq	$1, -112(%rbp)
	leaq	l___unnamed_34(%rip), %rcx
Ltmp490:
	movq	%rcx, -104(%rbp)
	movq	$1, -96(%rbp)
Ltmp491:
LBB28_21:
	movq	%rax, -88(%rbp)
	movq	$1, -80(%rbp)
	movq	-72(%rbp), %rdi
	callq	__ZN4core3fmt9Formatter9write_fmt17h3dc2bf45afed3069E
	jmp	LBB28_22
Ltmp492:
LBB28_16:
	xorl	%eax, %eax
Ltmp493:
LBB28_22:
	.loc	27 95 2 is_stmt 1
	addq	$88, %rsp
	popq	%rbx
	popq	%r12
	popq	%r13
	popq	%r14
	popq	%r15
Ltmp494:
	popq	%rbp
	retq
Ltmp495:
LBB28_23:
	.loc	27 72 20
	leaq	_str.5(%rip), %rdi
	leaq	l___unnamed_35(%rip), %rdx
	movl	$28, %esi
Ltmp496:
	callq	__ZN4core9panicking5panic17h736ee47a631475c0E
Ltmp497:
LBB28_25:
	.loc	27 80 31
	leaq	_str.0(%rip), %rdi
	leaq	l___unnamed_36(%rip), %rdx
	movl	$33, %esi
	callq	__ZN4core9panicking5panic17h736ee47a631475c0E
Ltmp498:
LBB28_26:
	.loc	27 84 13
	leaq	_str.5(%rip), %rdi
	leaq	l___unnamed_37(%rip), %rdx
	movl	$28, %esi
	callq	__ZN4core9panicking5panic17h736ee47a631475c0E
Ltmp499:
LBB28_24:
	.loc	27 78 30
	leaq	_str.5(%rip), %rdi
	leaq	l___unnamed_38(%rip), %rdx
	movl	$28, %esi
	callq	__ZN4core9panicking5panic17h736ee47a631475c0E
Ltmp500:
Lfunc_end28:
	.cfi_endproc

	.p2align	4, 0x90
__ZN4time7display10parse_type17h3b81845bd3211e28E:
Lfunc_begin29:
	.loc	27 97 0
	.cfi_startproc
	pushq	%rbp
	.cfi_def_cfa_offset 16
	.cfi_offset %rbp, -16
	movq	%rsp, %rbp
	.cfi_def_cfa_register %rbp
	pushq	%r15
	pushq	%r14
	pushq	%rbx
	subq	$120, %rsp
	.cfi_offset %rbx, -40
	.cfi_offset %r14, -32
	.cfi_offset %r15, -24
Ltmp501:
	.loc	27 99 9 prologue_end
	addl	$-37, %esi
Ltmp502:
	cmpl	$85, %esi
	ja	LBB29_146
Ltmp503:
	.loc	27 0 9 is_stmt 0
	movq	%rdx, %rbx
Ltmp504:
	movq	%rdi, %r14
Ltmp505:
	leaq	LJTI29_0(%rip), %rax
	movslq	(%rax,%rsi,4), %rcx
	addq	%rax, %rcx
	jmpq	*%rcx
Ltmp506:
LBB29_2:
	.loc	27 162 13 is_stmt 1
	movq	%r14, %rdi
	movl	$109, %esi
	movq	%rbx, %rdx
	callq	__ZN4time7display10parse_type17h3b81845bd3211e28E
	movb	$1, %r15b
	.loc	27 162 37 is_stmt 0
	testb	%al, %al
	jne	LBB29_111
Ltmp507:
	.loc	27 163 13 is_stmt 1
	leaq	l___unnamed_39(%rip), %rsi
	movl	$1, %edx
	movq	%r14, %rdi
	callq	__ZN4core3fmt9Formatter9write_str17h957ea9717e49073dE
	.loc	27 163 31 is_stmt 0
	testb	%al, %al
	jne	LBB29_111
Ltmp508:
	.loc	27 164 13 is_stmt 1
	movq	%r14, %rdi
	movl	$100, %esi
	movq	%rbx, %rdx
	callq	__ZN4time7display10parse_type17h3b81845bd3211e28E
	.loc	27 164 37 is_stmt 0
	testb	%al, %al
	jne	LBB29_111
Ltmp509:
	.loc	27 165 13 is_stmt 1
	leaq	l___unnamed_39(%rip), %rsi
	movl	$1, %edx
	movq	%r14, %rdi
	callq	__ZN4core3fmt9Formatter9write_str17h957ea9717e49073dE
	.loc	27 165 31 is_stmt 0
	testb	%al, %al
	jne	LBB29_111
Ltmp510:
	.loc	27 166 13 is_stmt 1
	movq	%r14, %rdi
	movl	$121, %esi
	jmp	LBB29_75
Ltmp511:
LBB29_7:
	.loc	27 217 13
	movq	%r14, %rdi
	movl	$72, %esi
	movq	%rbx, %rdx
	callq	__ZN4time7display10parse_type17h3b81845bd3211e28E
	movb	$1, %r15b
	.loc	27 217 37 is_stmt 0
	testb	%al, %al
	jne	LBB29_111
Ltmp512:
	.loc	27 218 13 is_stmt 1
	leaq	l___unnamed_40(%rip), %rsi
	movl	$1, %edx
	movq	%r14, %rdi
	callq	__ZN4core3fmt9Formatter9write_str17h957ea9717e49073dE
	.loc	27 218 31 is_stmt 0
	testb	%al, %al
	jne	LBB29_111
Ltmp513:
	.loc	27 219 13 is_stmt 1
	movq	%r14, %rdi
	movl	$77, %esi
	movq	%rbx, %rdx
	callq	__ZN4time7display10parse_type17h3b81845bd3211e28E
	.loc	27 219 37 is_stmt 0
	testb	%al, %al
	jne	LBB29_111
Ltmp514:
	.loc	27 220 13 is_stmt 1
	leaq	l___unnamed_40(%rip), %rsi
	movl	$1, %edx
	movq	%r14, %rdi
	callq	__ZN4core3fmt9Formatter9write_str17h957ea9717e49073dE
	.loc	27 220 31 is_stmt 0
	testb	%al, %al
	jne	LBB29_111
Ltmp515:
	.loc	27 221 13 is_stmt 1
	movq	%r14, %rdi
	movl	$83, %esi
	jmp	LBB29_75
Ltmp516:
LBB29_12:
	.loc	27 135 13
	movl	16(%rbx), %eax
	cmpq	$11, %rax
	ja	LBB29_147
Ltmp517:
	.loc	27 0 13 is_stmt 0
	leaq	l___unnamed_41(%rip), %rsi
	leaq	LJTI29_1(%rip), %rcx
	movslq	(%rcx,%rax,4), %rax
	addq	%rcx, %rax
	jmpq	*%rax
Ltmp518:
LBB29_14:
	leaq	l___unnamed_42(%rip), %rsi
	movl	$3, %edx
	jmp	LBB29_145
Ltmp519:
LBB29_15:
	.loc	27 179 16 is_stmt 1
	movl	20(%rbx), %edx
	movl	24(%rbx), %ecx
	movl	28(%rbx), %r8d
	movq	%r14, %rdi
	movl	$103, %esi
	jmp	LBB29_57
Ltmp520:
LBB29_16:
	.loc	27 246 27
	movl	36(%rbx), %eax
Ltmp521:
	xorl	%ecx, %ecx
	testl	%eax, %eax
	setle	%cl
	.loc	27 246 24 is_stmt 0
	leal	43(%rcx,%rcx), %ecx
	.loc	27 0 0
	movl	%ecx, -140(%rbp)
Ltmp522:
	.loc	27 259 5 is_stmt 1
	jns	LBB29_19
Ltmp523:
	.loc	27 259 15 is_stmt 0
	cmpl	$-2147483648, %eax
	je	LBB29_161
Ltmp524:
	negl	%eax
Ltmp525:
LBB29_19:
	.loc	27 247 25 is_stmt 1
	movl	%eax, %eax
	movl	$2290649225, %ecx
	imulq	%rax, %rcx
	shrq	$37, %rcx
Ltmp526:
	.loc	27 0 25 is_stmt 0
	movl	$2443359173, %edx
Ltmp527:
	.loc	27 248 21 is_stmt 1
	imulq	%rax, %rdx
	shrq	$43, %rdx
Ltmp528:
	movl	%edx, -88(%rbp)
Ltmp529:
	.loc	27 249 13
	imull	$-60, %edx, %eax
	addl	%ecx, %eax
Ltmp530:
	movl	%eax, -144(%rbp)
	leaq	-140(%rbp), %rax
Ltmp531:
	.loc	27 250 13
	movq	%rax, -72(%rbp)
	movq	__ZN43_$LT$char$u20$as$u20$core..fmt..Display$GT$3fmt17h6751376c1412eca9E@GOTPCREL(%rip), %rax
	movq	%rax, -64(%rbp)
	leaq	-88(%rbp), %rax
	movq	%rax, -56(%rbp)
	movq	__ZN4core3fmt3num3imp52_$LT$impl$u20$core..fmt..Display$u20$for$u20$i32$GT$3fmt17he2ccc2060d52a2ceE@GOTPCREL(%rip), %rax
	movq	%rax, -48(%rbp)
	leaq	-144(%rbp), %rcx
	movq	%rcx, -40(%rbp)
	movq	%rax, -32(%rbp)
Ltmp532:
	.loc	11 345 9
	leaq	l___unnamed_43(%rip), %rax
Ltmp533:
	movq	%rax, -136(%rbp)
	movq	$3, -128(%rbp)
	leaq	l___unnamed_44(%rip), %rax
Ltmp534:
	movq	%rax, -120(%rbp)
	movq	$3, -112(%rbp)
	leaq	-72(%rbp), %rax
	movq	%rax, -104(%rbp)
	movq	$3, -96(%rbp)
	leaq	-136(%rbp), %rsi
	jmp	LBB29_110
Ltmp535:
LBB29_20:
	.loc	27 170 37
	addq	$40, %rbx
Ltmp536:
	.loc	27 170 16 is_stmt 0
	movq	%rbx, -136(%rbp)
	movq	__ZN4core3fmt3num3imp52_$LT$impl$u20$core..fmt..Display$u20$for$u20$i32$GT$3fmt17he2ccc2060d52a2ceE@GOTPCREL(%rip), %rax
	movq	%rax, -128(%rbp)
Ltmp537:
	.loc	11 345 9 is_stmt 1
	leaq	l___unnamed_33(%rip), %rax
Ltmp538:
	movq	%rax, -72(%rbp)
	movq	$1, -64(%rbp)
	leaq	l___unnamed_45(%rip), %rax
Ltmp539:
	.loc	11 0 9 is_stmt 0
	jmp	LBB29_107
Ltmp540:
LBB29_21:
	.loc	27 215 34 is_stmt 1
	movq	%rbx, %rdi
	callq	__ZN4time2Tm11to_timespec17h4d8ca1275501b8f5E
	movq	%rax, -136(%rbp)
	movl	%edx, -128(%rbp)
	leaq	-136(%rbp), %rax
Ltmp541:
	.loc	27 215 16 is_stmt 0
	movq	%rax, -88(%rbp)
	movq	__ZN4core3fmt3num3imp52_$LT$impl$u20$core..fmt..Display$u20$for$u20$i64$GT$3fmt17h6a5170735d6294a5E@GOTPCREL(%rip), %rax
	jmp	LBB29_66
Ltmp542:
LBB29_22:
	.loc	27 110 13 is_stmt 1
	movl	24(%rbx), %eax
	cmpq	$6, %rax
	ja	LBB29_148
Ltmp543:
	.loc	27 0 13 is_stmt 0
	leaq	l___unnamed_46(%rip), %rsi
	leaq	LJTI29_3(%rip), %rcx
	movslq	(%rcx,%rax,4), %rax
	addq	%rcx, %rax
	jmpq	*%rax
Ltmp544:
LBB29_24:
	leaq	l___unnamed_47(%rip), %rsi
	movl	$3, %edx
	jmp	LBB29_145
Ltmp545:
LBB29_25:
	.loc	27 199 33 is_stmt 1
	cmpl	$12, 8(%rbx)
	.loc	27 199 30 is_stmt 0
	leaq	l___unnamed_48(%rip), %rax
	leaq	l___unnamed_49(%rip), %rsi
	jmp	LBB29_82
Ltmp546:
LBB29_26:
	.loc	27 206 13 is_stmt 1
	movq	%r14, %rdi
	movl	$73, %esi
	movq	%rbx, %rdx
	callq	__ZN4time7display10parse_type17h3b81845bd3211e28E
	movb	$1, %r15b
	.loc	27 206 37 is_stmt 0
	testb	%al, %al
	jne	LBB29_111
Ltmp547:
	.loc	27 207 13 is_stmt 1
	leaq	l___unnamed_40(%rip), %rsi
	movl	$1, %edx
	movq	%r14, %rdi
	callq	__ZN4core3fmt9Formatter9write_str17h957ea9717e49073dE
	.loc	27 207 31 is_stmt 0
	testb	%al, %al
	jne	LBB29_111
Ltmp548:
	.loc	27 208 13 is_stmt 1
	movq	%r14, %rdi
	movl	$77, %esi
	movq	%rbx, %rdx
	callq	__ZN4time7display10parse_type17h3b81845bd3211e28E
	.loc	27 208 37 is_stmt 0
	testb	%al, %al
	jne	LBB29_111
Ltmp549:
	.loc	27 209 13 is_stmt 1
	leaq	l___unnamed_40(%rip), %rsi
	movl	$1, %edx
	movq	%r14, %rdi
	callq	__ZN4core3fmt9Formatter9write_str17h957ea9717e49073dE
	.loc	27 209 31 is_stmt 0
	testb	%al, %al
	jne	LBB29_111
Ltmp550:
	.loc	27 210 13 is_stmt 1
	movq	%r14, %rdi
	movl	$83, %esi
	movq	%rbx, %rdx
	callq	__ZN4time7display10parse_type17h3b81845bd3211e28E
	.loc	27 210 37 is_stmt 0
	testb	%al, %al
	jne	LBB29_111
Ltmp551:
	.loc	27 211 13 is_stmt 1
	leaq	l___unnamed_50(%rip), %rsi
	movl	$1, %edx
	movq	%r14, %rdi
	callq	__ZN4core3fmt9Formatter9write_str17h957ea9717e49073dE
	.loc	27 211 31 is_stmt 0
	testb	%al, %al
	jne	LBB29_111
Ltmp552:
	.loc	27 212 13 is_stmt 1
	movq	%r14, %rdi
	movl	$112, %esi
	jmp	LBB29_75
Ltmp553:
LBB29_33:
	.loc	27 229 16
	movl	20(%rbx), %edx
	movl	24(%rbx), %ecx
	movl	28(%rbx), %r8d
	movq	%r14, %rdi
	movl	$86, %esi
	jmp	LBB29_57
Ltmp554:
LBB29_34:
	.loc	27 224 38
	movl	28(%rbx), %eax
	subl	24(%rbx), %eax
	jo	LBB29_149
Ltmp555:
	.loc	27 224 37 is_stmt 0
	addl	$7, %eax
	jno	LBB29_43
Ltmp556:
	leaq	_str.5(%rip), %rdi
	leaq	l___unnamed_51(%rip), %rdx
	movl	$28, %esi
	callq	__ZN4core9panicking5panic17h736ee47a631475c0E
Ltmp557:
LBB29_37:
	.loc	27 168 37 is_stmt 1
	addq	$12, %rbx
Ltmp558:
	.loc	27 0 37 is_stmt 0
	jmp	LBB29_68
Ltmp559:
LBB29_38:
	.loc	27 197 16 is_stmt 1
	leaq	l___unnamed_52(%rip), %rsi
	.loc	27 0 0 is_stmt 0
	movl	$1, %edx
	jmp	LBB29_145
Ltmp560:
LBB29_39:
	.loc	27 238 49 is_stmt 1
	movl	24(%rbx), %ecx
	decl	%ecx
	jo	LBB29_150
Ltmp561:
	.loc	27 238 48 is_stmt 0
	addl	$7, %ecx
	jo	LBB29_151
Ltmp562:
	.loc	27 0 0
	movl	28(%rbx), %eax
	.loc	27 238 48
	movslq	%ecx, %rcx
	imulq	$-1840700269, %rcx, %rdx
	shrq	$32, %rdx
	addl	%ecx, %edx
	movl	%edx, %esi
	shrl	$31, %esi
	sarl	$2, %edx
	addl	%esi, %edx
	leal	(,%rdx,8), %esi
	subl	%esi, %edx
	addl	%ecx, %edx
	.loc	27 238 35
	subl	%edx, %eax
	jo	LBB29_152
Ltmp563:
	.loc	27 238 34
	addl	$7, %eax
	jo	LBB29_153
Ltmp564:
LBB29_43:
	.loc	27 0 0
	cltq
	imulq	$-1840700269, %rax, %rcx
	shrq	$32, %rcx
	addl	%ecx, %eax
	movl	%eax, %ecx
	shrl	$31, %ecx
	sarl	$2, %eax
	addl	%ecx, %eax
	jmp	LBB29_104
Ltmp565:
LBB29_44:
	.loc	27 169 36 is_stmt 1
	addq	$12, %rbx
Ltmp566:
	.loc	27 0 36 is_stmt 0
	jmp	LBB29_80
Ltmp567:
LBB29_45:
	.loc	27 180 37 is_stmt 1
	addq	$8, %rbx
Ltmp568:
	.loc	27 0 37 is_stmt 0
	jmp	LBB29_68
Ltmp569:
LBB29_46:
	.loc	27 201 13 is_stmt 1
	movq	%r14, %rdi
	movl	$72, %esi
	movq	%rbx, %rdx
	callq	__ZN4time7display10parse_type17h3b81845bd3211e28E
	movb	$1, %r15b
	.loc	27 201 37 is_stmt 0
	testb	%al, %al
	jne	LBB29_111
Ltmp570:
	.loc	27 202 13 is_stmt 1
	leaq	l___unnamed_40(%rip), %rsi
	movl	$1, %edx
	movq	%r14, %rdi
	callq	__ZN4core3fmt9Formatter9write_str17h957ea9717e49073dE
	.loc	27 202 31 is_stmt 0
	testb	%al, %al
	jne	LBB29_111
Ltmp571:
	.loc	27 203 13 is_stmt 1
	movq	%r14, %rdi
	movl	$77, %esi
	jmp	LBB29_75
Ltmp572:
LBB29_49:
	.loc	27 196 37
	movl	16(%rbx), %eax
	incl	%eax
	jo	LBB29_154
Ltmp573:
	.loc	27 0 0 is_stmt 0
	movl	%eax, -88(%rbp)
	jmp	LBB29_105
Ltmp574:
LBB29_51:
	.loc	27 172 13 is_stmt 1
	movq	%r14, %rdi
	movl	$89, %esi
	movq	%rbx, %rdx
	callq	__ZN4time7display10parse_type17h3b81845bd3211e28E
	movb	$1, %r15b
	.loc	27 172 37 is_stmt 0
	testb	%al, %al
	jne	LBB29_111
Ltmp575:
	.loc	27 173 13 is_stmt 1
	leaq	l___unnamed_53(%rip), %rsi
	movl	$1, %edx
	movq	%r14, %rdi
	callq	__ZN4core3fmt9Formatter9write_str17h957ea9717e49073dE
	.loc	27 173 31 is_stmt 0
	testb	%al, %al
	jne	LBB29_111
Ltmp576:
	.loc	27 174 13 is_stmt 1
	movq	%r14, %rdi
	movl	$109, %esi
	movq	%rbx, %rdx
	callq	__ZN4time7display10parse_type17h3b81845bd3211e28E
	.loc	27 174 37 is_stmt 0
	testb	%al, %al
	jne	LBB29_111
Ltmp577:
	.loc	27 175 13 is_stmt 1
	leaq	l___unnamed_53(%rip), %rsi
	movl	$1, %edx
	movq	%r14, %rdi
	callq	__ZN4core3fmt9Formatter9write_str17h957ea9717e49073dE
	.loc	27 175 31 is_stmt 0
	testb	%al, %al
	jne	LBB29_111
Ltmp578:
	.loc	27 176 13 is_stmt 1
	movq	%r14, %rdi
	movl	$100, %esi
	jmp	LBB29_75
Ltmp579:
LBB29_56:
	.loc	27 178 16
	movl	20(%rbx), %edx
	movl	24(%rbx), %ecx
	movl	28(%rbx), %r8d
	movq	%r14, %rdi
	movl	$71, %esi
Ltmp580:
LBB29_57:
	.loc	27 0 0 is_stmt 0
	addq	$120, %rsp
	popq	%rbx
Ltmp581:
	popq	%r14
Ltmp582:
	popq	%r15
	popq	%rbp
	jmp	__ZN4time7display8iso_week17hc0f399593512afabE
LBB29_58:
Ltmp583:
	.loc	27 182 25 is_stmt 1
	movl	8(%rbx), %eax
Ltmp584:
	.loc	27 183 16
	testl	%eax, %eax
	movl	$12, %ecx
	.loc	27 183 13 is_stmt 0
	cmovnel	%eax, %ecx
Ltmp585:
	.loc	27 184 25 is_stmt 1
	leal	-12(%rcx), %eax
	.loc	27 184 16 is_stmt 0
	cmpl	$12, %ecx
	.loc	27 184 13
	cmovlel	%ecx, %eax
Ltmp586:
	.loc	27 0 0
	movl	%eax, -88(%rbp)
	jmp	LBB29_105
Ltmp587:
LBB29_59:
	.loc	27 100 13 is_stmt 1
	movl	24(%rbx), %eax
	cmpq	$6, %rax
	ja	LBB29_155
Ltmp588:
	.loc	27 0 13 is_stmt 0
	leaq	l___unnamed_54(%rip), %rsi
	movl	$6, %edx
	leaq	LJTI29_4(%rip), %rcx
	movslq	(%rcx,%rax,4), %rax
	addq	%rcx, %rax
	jmpq	*%rax
Ltmp589:
LBB29_61:
	leaq	l___unnamed_55(%rip), %rsi
	jmp	LBB29_145
Ltmp590:
LBB29_62:
	movl	$1900, %eax
	.loc	27 149 37 is_stmt 1
	addl	20(%rbx), %eax
	jo	LBB29_156
Ltmp591:
	cltq
	imulq	$1374389535, %rax, %rax
	movq	%rax, %rcx
	shrq	$63, %rcx
	sarq	$37, %rax
	addl	%ecx, %eax
	jmp	LBB29_104
Ltmp592:
LBB29_64:
	.loc	27 253 16
	leaq	l___unnamed_56(%rip), %rsi
	.loc	27 0 0 is_stmt 0
	movl	$1, %edx
	jmp	LBB29_145
Ltmp593:
LBB29_65:
	.loc	2 527 9 is_stmt 1
	movq	%rbx, -136(%rbp)
	movq	$1, -128(%rbp)
	leaq	-136(%rbp), %rax
Ltmp594:
	.loc	27 252 16
	movq	%rax, -88(%rbp)
	leaq	__ZN4time7display60_$LT$impl$u20$core..fmt..Display$u20$for$u20$time..TmFmt$GT$3fmt17h52c0ea1f20840d77E(%rip), %rax
Ltmp595:
LBB29_66:
	.loc	27 0 0 is_stmt 0
	movq	%rax, -80(%rbp)
Ltmp596:
	leaq	l___unnamed_33(%rip), %rax
Ltmp597:
	movq	%rax, -72(%rbp)
	movq	$1, -64(%rbp)
	movq	$0, -56(%rbp)
	leaq	-88(%rbp), %rax
Ltmp598:
	jmp	LBB29_109
Ltmp599:
LBB29_67:
	.loc	27 195 37 is_stmt 1
	addq	$4, %rbx
Ltmp600:
LBB29_68:
	.loc	27 0 0 is_stmt 0
	movq	%rbx, -136(%rbp)
	jmp	LBB29_106
Ltmp601:
LBB29_69:
	.loc	27 231 13 is_stmt 1
	movq	%r14, %rdi
	movl	$101, %esi
	movq	%rbx, %rdx
	callq	__ZN4time7display10parse_type17h3b81845bd3211e28E
	movb	$1, %r15b
	.loc	27 231 37 is_stmt 0
	testb	%al, %al
	jne	LBB29_111
Ltmp602:
	.loc	27 232 13 is_stmt 1
	leaq	l___unnamed_53(%rip), %rsi
	movl	$1, %edx
	movq	%r14, %rdi
	callq	__ZN4core3fmt9Formatter9write_str17h957ea9717e49073dE
	.loc	27 232 31 is_stmt 0
	testb	%al, %al
	jne	LBB29_111
Ltmp603:
	.loc	27 233 13 is_stmt 1
	movq	%r14, %rdi
	movl	$98, %esi
	movq	%rbx, %rdx
	callq	__ZN4time7display10parse_type17h3b81845bd3211e28E
	.loc	27 233 37 is_stmt 0
	testb	%al, %al
	jne	LBB29_111
Ltmp604:
	.loc	27 234 13 is_stmt 1
	leaq	l___unnamed_53(%rip), %rsi
Ltmp605:
LBB29_73:
	.loc	27 0 0 is_stmt 0
	movl	$1, %edx
	movq	%r14, %rdi
	callq	__ZN4core3fmt9Formatter9write_str17h957ea9717e49073dE
	testb	%al, %al
	jne	LBB29_111
Ltmp606:
	movq	%r14, %rdi
	movl	$89, %esi
Ltmp607:
LBB29_75:
	movq	%rbx, %rdx
	addq	$120, %rsp
	popq	%rbx
Ltmp608:
	popq	%r14
Ltmp609:
	popq	%r15
	popq	%rbp
	jmp	__ZN4time7display10parse_type17h3b81845bd3211e28E
LBB29_76:
Ltmp610:
	.loc	27 120 13 is_stmt 1
	movl	16(%rbx), %eax
	cmpq	$11, %rax
	ja	LBB29_157
Ltmp611:
	.loc	27 0 13 is_stmt 0
	leaq	l___unnamed_57(%rip), %rsi
	movl	$7, %edx
	leaq	LJTI29_2(%rip), %rcx
	movslq	(%rcx,%rax,4), %rax
	addq	%rcx, %rax
	jmpq	*%rax
Ltmp612:
LBB29_78:
	leaq	L___unnamed_58(%rip), %rsi
	jmp	LBB29_144
Ltmp613:
LBB29_79:
	.loc	27 188 36 is_stmt 1
	addq	$8, %rbx
Ltmp614:
LBB29_80:
	.loc	27 0 0 is_stmt 0
	movq	%rbx, -136(%rbp)
	jmp	LBB29_95
Ltmp615:
LBB29_81:
	.loc	27 198 33 is_stmt 1
	cmpl	$12, 8(%rbx)
	.loc	27 198 30 is_stmt 0
	leaq	l___unnamed_59(%rip), %rax
	leaq	l___unnamed_60(%rip), %rsi
Ltmp616:
LBB29_82:
	.loc	27 0 0
	cmovlq	%rax, %rsi
	movl	$2, %edx
	jmp	LBB29_145
Ltmp617:
LBB29_83:
	.loc	27 151 13 is_stmt 1
	movq	%r14, %rdi
	movl	$97, %esi
	movq	%rbx, %rdx
	callq	__ZN4time7display10parse_type17h3b81845bd3211e28E
	movb	$1, %r15b
	.loc	27 151 37 is_stmt 0
	testb	%al, %al
	jne	LBB29_111
Ltmp618:
	.loc	27 152 13 is_stmt 1
	leaq	l___unnamed_50(%rip), %rsi
	movl	$1, %edx
	movq	%r14, %rdi
	callq	__ZN4core3fmt9Formatter9write_str17h957ea9717e49073dE
	.loc	27 152 31 is_stmt 0
	testb	%al, %al
	jne	LBB29_111
Ltmp619:
	.loc	27 153 13 is_stmt 1
	movq	%r14, %rdi
	movl	$98, %esi
	movq	%rbx, %rdx
	callq	__ZN4time7display10parse_type17h3b81845bd3211e28E
	.loc	27 153 37 is_stmt 0
	testb	%al, %al
	jne	LBB29_111
Ltmp620:
	.loc	27 154 13 is_stmt 1
	leaq	l___unnamed_50(%rip), %rsi
	movl	$1, %edx
	movq	%r14, %rdi
	callq	__ZN4core3fmt9Formatter9write_str17h957ea9717e49073dE
	.loc	27 154 31 is_stmt 0
	testb	%al, %al
	jne	LBB29_111
Ltmp621:
	.loc	27 155 13 is_stmt 1
	movq	%r14, %rdi
	movl	$101, %esi
	movq	%rbx, %rdx
	callq	__ZN4time7display10parse_type17h3b81845bd3211e28E
	.loc	27 155 37 is_stmt 0
	testb	%al, %al
	jne	LBB29_111
Ltmp622:
	.loc	27 156 13 is_stmt 1
	leaq	l___unnamed_50(%rip), %rsi
	movl	$1, %edx
	movq	%r14, %rdi
	callq	__ZN4core3fmt9Formatter9write_str17h957ea9717e49073dE
	.loc	27 156 31 is_stmt 0
	testb	%al, %al
	jne	LBB29_111
Ltmp623:
	.loc	27 157 13 is_stmt 1
	movq	%r14, %rdi
	movl	$84, %esi
	movq	%rbx, %rdx
	callq	__ZN4time7display10parse_type17h3b81845bd3211e28E
	.loc	27 157 37 is_stmt 0
	testb	%al, %al
	jne	LBB29_111
Ltmp624:
	.loc	27 158 13 is_stmt 1
	leaq	l___unnamed_50(%rip), %rsi
	jmp	LBB29_73
Ltmp625:
LBB29_91:
	.loc	27 240 34
	addq	$24, %rbx
Ltmp626:
	.loc	27 240 16 is_stmt 0
	movq	%rbx, -136(%rbp)
	jmp	LBB29_101
Ltmp627:
LBB29_92:
	.loc	27 187 37 is_stmt 1
	movl	28(%rbx), %eax
	incl	%eax
	jo	LBB29_158
Ltmp628:
	movl	%eax, -88(%rbp)
	leaq	-88(%rbp), %rax
Ltmp629:
	.loc	27 187 16 is_stmt 0
	movq	%rax, -136(%rbp)
	movq	__ZN4core3fmt3num3imp52_$LT$impl$u20$core..fmt..Display$u20$for$u20$i32$GT$3fmt17he2ccc2060d52a2ceE@GOTPCREL(%rip), %rax
	movq	%rax, -128(%rbp)
Ltmp630:
	.loc	11 345 9 is_stmt 1
	leaq	l___unnamed_33(%rip), %rax
Ltmp631:
	movq	%rax, -72(%rbp)
	movq	$1, -64(%rbp)
	leaq	l___unnamed_61(%rip), %rax
Ltmp632:
	.loc	11 0 9 is_stmt 0
	jmp	LBB29_107
Ltmp633:
LBB29_94:
	.loc	27 190 25 is_stmt 1
	movl	8(%rbx), %eax
Ltmp634:
	.loc	27 191 16
	testl	%eax, %eax
	movl	$12, %ecx
	.loc	27 191 13 is_stmt 0
	cmovnel	%eax, %ecx
Ltmp635:
	.loc	27 192 25 is_stmt 1
	leal	-12(%rcx), %eax
	.loc	27 192 16 is_stmt 0
	cmpl	$12, %ecx
	.loc	27 192 13
	cmovlel	%ecx, %eax
	.loc	27 0 0
	movl	%eax, -88(%rbp)
	leaq	-88(%rbp), %rax
Ltmp636:
	.loc	27 193 13 is_stmt 1
	movq	%rax, -136(%rbp)
Ltmp637:
LBB29_95:
	.loc	27 0 0 is_stmt 0
	movq	__ZN4core3fmt3num3imp52_$LT$impl$u20$core..fmt..Display$u20$for$u20$i32$GT$3fmt17he2ccc2060d52a2ceE@GOTPCREL(%rip), %rax
	movq	%rax, -128(%rbp)
Ltmp638:
	leaq	l___unnamed_33(%rip), %rax
Ltmp639:
	movq	%rax, -72(%rbp)
	movq	$1, -64(%rbp)
	leaq	l___unnamed_62(%rip), %rax
Ltmp640:
	jmp	LBB29_107
Ltmp641:
LBB29_96:
	movl	$1900, %eax
	.loc	27 241 34 is_stmt 1
	addl	20(%rbx), %eax
	jo	LBB29_159
Ltmp642:
	movl	%eax, -88(%rbp)
	jmp	LBB29_100
Ltmp643:
LBB29_98:
	.loc	27 244 33
	xorl	%eax, %eax
	cmpl	$0, 36(%rbx)
	sete	%al
	.loc	27 244 30 is_stmt 0
	leaq	l___unnamed_63(%rip), %rcx
	leaq	l___unnamed_64(%rip), %rsi
	cmoveq	%rcx, %rsi
	leaq	(%rax,%rax,2), %rdx
	jmp	LBB29_145
Ltmp644:
LBB29_99:
	.loc	27 226 21 is_stmt 1
	movl	24(%rbx), %eax
Ltmp645:
	.loc	27 227 35
	testl	%eax, %eax
	movl	$7, %ecx
	.loc	27 227 31 is_stmt 0
	cmovnel	%eax, %ecx
	.loc	27 0 0
	movl	%ecx, -88(%rbp)
Ltmp646:
LBB29_100:
	leaq	-88(%rbp), %rax
Ltmp647:
	movq	%rax, -136(%rbp)
Ltmp648:
LBB29_101:
	movq	__ZN4core3fmt3num3imp52_$LT$impl$u20$core..fmt..Display$u20$for$u20$i32$GT$3fmt17he2ccc2060d52a2ceE@GOTPCREL(%rip), %rax
	movq	%rax, -128(%rbp)
Ltmp649:
	leaq	l___unnamed_33(%rip), %rax
Ltmp650:
	movq	%rax, -72(%rbp)
	movq	$1, -64(%rbp)
	movq	$0, -56(%rbp)
	jmp	LBB29_108
Ltmp651:
LBB29_102:
	movl	$1900, %eax
	.loc	27 242 37 is_stmt 1
	addl	20(%rbx), %eax
	jo	LBB29_160
Ltmp652:
	cltq
	imulq	$1374389535, %rax, %rcx
	movq	%rcx, %rdx
	shrq	$63, %rdx
	sarq	$37, %rcx
	addl	%edx, %ecx
	imull	$100, %ecx, %ecx
	subl	%ecx, %eax
Ltmp653:
LBB29_104:
	.loc	27 0 0 is_stmt 0
	movl	%eax, -88(%rbp)
Ltmp654:
LBB29_105:
	leaq	-88(%rbp), %rax
Ltmp655:
	movq	%rax, -136(%rbp)
Ltmp656:
LBB29_106:
	movq	__ZN4core3fmt3num3imp52_$LT$impl$u20$core..fmt..Display$u20$for$u20$i32$GT$3fmt17he2ccc2060d52a2ceE@GOTPCREL(%rip), %rax
	movq	%rax, -128(%rbp)
Ltmp657:
	leaq	l___unnamed_33(%rip), %rax
Ltmp658:
	movq	%rax, -72(%rbp)
	movq	$1, -64(%rbp)
	leaq	l___unnamed_34(%rip), %rax
Ltmp659:
LBB29_107:
	movq	%rax, -56(%rbp)
	movq	$1, -48(%rbp)
Ltmp660:
LBB29_108:
	leaq	-136(%rbp), %rax
Ltmp661:
LBB29_109:
	movq	%rax, -40(%rbp)
	movq	$1, -32(%rbp)
	leaq	-72(%rbp), %rsi
Ltmp662:
LBB29_110:
	movq	%r14, %rdi
	callq	__ZN4core3fmt9Formatter9write_fmt17h3dc2bf45afed3069E
	movl	%eax, %r15d
Ltmp663:
LBB29_111:
	.loc	27 256 2 is_stmt 1
	movl	%r15d, %eax
	addq	$120, %rsp
	popq	%rbx
	popq	%r14
Ltmp664:
	popq	%r15
	popq	%rbp
	retq
LBB29_112:
Ltmp665:
	.loc	27 223 16
	leaq	l___unnamed_65(%rip), %rsi
	.loc	27 0 0 is_stmt 0
	movl	$1, %edx
	jmp	LBB29_145
Ltmp666:
LBB29_135:
	leaq	l___unnamed_66(%rip), %rsi
	movl	$3, %edx
	jmp	LBB29_145
Ltmp667:
LBB29_113:
	leaq	l___unnamed_67(%rip), %rsi
	movl	$3, %edx
	jmp	LBB29_145
Ltmp668:
LBB29_115:
	leaq	l___unnamed_68(%rip), %rsi
	movl	$3, %edx
	jmp	LBB29_145
Ltmp669:
LBB29_116:
	leaq	l___unnamed_69(%rip), %rsi
	movl	$3, %edx
	jmp	LBB29_145
Ltmp670:
LBB29_117:
	leaq	l___unnamed_70(%rip), %rsi
	movl	$3, %edx
	jmp	LBB29_145
Ltmp671:
LBB29_118:
	leaq	l___unnamed_71(%rip), %rsi
	movl	$3, %edx
	jmp	LBB29_145
Ltmp672:
LBB29_119:
	leaq	l___unnamed_72(%rip), %rsi
	movl	$3, %edx
	jmp	LBB29_145
Ltmp673:
LBB29_120:
	leaq	l___unnamed_73(%rip), %rsi
	movl	$3, %edx
	jmp	LBB29_145
Ltmp674:
LBB29_121:
	leaq	l___unnamed_74(%rip), %rsi
	movl	$3, %edx
	jmp	LBB29_145
Ltmp675:
LBB29_122:
	leaq	l___unnamed_75(%rip), %rsi
	movl	$3, %edx
	jmp	LBB29_145
Ltmp676:
LBB29_123:
	leaq	l___unnamed_76(%rip), %rsi
	movl	$3, %edx
	jmp	LBB29_145
Ltmp677:
LBB29_124:
	leaq	l___unnamed_77(%rip), %rsi
	movl	$3, %edx
	jmp	LBB29_145
Ltmp678:
LBB29_125:
	leaq	l___unnamed_78(%rip), %rsi
	movl	$3, %edx
	jmp	LBB29_145
Ltmp679:
LBB29_126:
	leaq	l___unnamed_79(%rip), %rsi
	movl	$3, %edx
	jmp	LBB29_145
Ltmp680:
LBB29_127:
	leaq	l___unnamed_80(%rip), %rsi
Ltmp681:
LBB29_128:
	movl	$3, %edx
	jmp	LBB29_145
Ltmp682:
LBB29_129:
	leaq	L___unnamed_81(%rip), %rsi
	jmp	LBB29_144
Ltmp683:
LBB29_130:
	leaq	l___unnamed_82(%rip), %rsi
	movl	$7, %edx
	jmp	LBB29_145
Ltmp684:
LBB29_131:
	leaq	l___unnamed_83(%rip), %rsi
	movl	$9, %edx
	jmp	LBB29_145
Ltmp685:
LBB29_132:
	leaq	l___unnamed_84(%rip), %rsi
	jmp	LBB29_145
Ltmp686:
LBB29_133:
	leaq	L___unnamed_85(%rip), %rsi
	jmp	LBB29_144
Ltmp687:
LBB29_134:
	leaq	L___unnamed_86(%rip), %rsi
	jmp	LBB29_144
Ltmp688:
LBB29_136:
	leaq	l___unnamed_87(%rip), %rsi
	jmp	LBB29_145
Ltmp689:
LBB29_137:
	leaq	l___unnamed_88(%rip), %rsi
	movl	$5, %edx
	jmp	LBB29_145
Ltmp690:
LBB29_138:
	leaq	l___unnamed_89(%rip), %rsi
	movl	$5, %edx
	jmp	LBB29_145
Ltmp691:
LBB29_139:
	leaq	l___unnamed_90(%rip), %rsi
	movl	$6, %edx
	jmp	LBB29_145
Ltmp692:
LBB29_140:
	leaq	L___unnamed_91(%rip), %rsi
	movl	$4, %edx
	jmp	LBB29_145
Ltmp693:
LBB29_141:
	leaq	L___unnamed_92(%rip), %rsi
	movl	$4, %edx
	jmp	LBB29_145
Ltmp694:
LBB29_142:
	leaq	l___unnamed_93(%rip), %rsi
	movl	$9, %edx
	jmp	LBB29_145
Ltmp695:
LBB29_143:
	leaq	L___unnamed_94(%rip), %rsi
Ltmp696:
LBB29_144:
	movl	$8, %edx
Ltmp697:
LBB29_145:
	movq	%r14, %rdi
	addq	$120, %rsp
	popq	%rbx
Ltmp698:
	popq	%r14
Ltmp699:
	popq	%r15
	popq	%rbp
	jmp	__ZN4core3fmt9Formatter9write_str17h957ea9717e49073dE
LBB29_146:
	.loc	27 254 16 is_stmt 1
	leaq	l___unnamed_95(%rip), %rdi
	leaq	l___unnamed_96(%rip), %rdx
	movl	$40, %esi
	callq	__ZN3std9panicking11begin_panic17h8954d6459a510673E
LBB29_147:
Ltmp700:
	.loc	27 147 19
	leaq	l___unnamed_95(%rip), %rdi
	leaq	l___unnamed_97(%rip), %rdx
	movl	$40, %esi
	callq	__ZN3std9panicking11begin_panic17h8954d6459a510673E
Ltmp701:
LBB29_148:
	.loc	27 117 18
	leaq	l___unnamed_95(%rip), %rdi
	leaq	l___unnamed_98(%rip), %rdx
	movl	$40, %esi
	callq	__ZN3std9panicking11begin_panic17h8954d6459a510673E
Ltmp702:
LBB29_149:
	.loc	27 224 38
	leaq	_str.0(%rip), %rdi
	leaq	l___unnamed_99(%rip), %rdx
	movl	$33, %esi
	callq	__ZN4core9panicking5panic17h736ee47a631475c0E
Ltmp703:
LBB29_150:
	.loc	27 238 49
	leaq	_str.0(%rip), %rdi
	leaq	l___unnamed_100(%rip), %rdx
	movl	$33, %esi
	callq	__ZN4core9panicking5panic17h736ee47a631475c0E
Ltmp704:
LBB29_151:
	.loc	27 238 48 is_stmt 0
	leaq	_str.5(%rip), %rdi
	leaq	l___unnamed_101(%rip), %rdx
	movl	$28, %esi
	callq	__ZN4core9panicking5panic17h736ee47a631475c0E
Ltmp705:
LBB29_152:
	.loc	27 238 35
	leaq	_str.0(%rip), %rdi
	leaq	l___unnamed_102(%rip), %rdx
	movl	$33, %esi
	callq	__ZN4core9panicking5panic17h736ee47a631475c0E
Ltmp706:
LBB29_153:
	.loc	27 238 34
	leaq	_str.5(%rip), %rdi
	leaq	l___unnamed_103(%rip), %rdx
	movl	$28, %esi
	callq	__ZN4core9panicking5panic17h736ee47a631475c0E
Ltmp707:
LBB29_154:
	.loc	27 196 37 is_stmt 1
	leaq	_str.5(%rip), %rdi
	leaq	l___unnamed_104(%rip), %rdx
	movl	$28, %esi
	callq	__ZN4core9panicking5panic17h736ee47a631475c0E
Ltmp708:
LBB29_155:
	.loc	27 107 18
	leaq	l___unnamed_95(%rip), %rdi
	leaq	l___unnamed_105(%rip), %rdx
	movl	$40, %esi
	callq	__ZN3std9panicking11begin_panic17h8954d6459a510673E
Ltmp709:
LBB29_156:
	.loc	27 149 37
	leaq	_str.5(%rip), %rdi
	leaq	l___unnamed_106(%rip), %rdx
	movl	$28, %esi
	callq	__ZN4core9panicking5panic17h736ee47a631475c0E
Ltmp710:
LBB29_157:
	.loc	27 132 18
	leaq	l___unnamed_95(%rip), %rdi
	leaq	l___unnamed_107(%rip), %rdx
	movl	$40, %esi
	callq	__ZN3std9panicking11begin_panic17h8954d6459a510673E
Ltmp711:
LBB29_158:
	.loc	27 187 37
	leaq	_str.5(%rip), %rdi
	leaq	l___unnamed_108(%rip), %rdx
	movl	$28, %esi
	callq	__ZN4core9panicking5panic17h736ee47a631475c0E
Ltmp712:
LBB29_159:
	.loc	27 241 34
	leaq	_str.5(%rip), %rdi
	leaq	l___unnamed_109(%rip), %rdx
	movl	$28, %esi
	callq	__ZN4core9panicking5panic17h736ee47a631475c0E
Ltmp713:
LBB29_160:
	.loc	27 242 37
	leaq	_str.5(%rip), %rdi
	leaq	l___unnamed_110(%rip), %rdx
	movl	$28, %esi
	callq	__ZN4core9panicking5panic17h736ee47a631475c0E
Ltmp714:
LBB29_161:
	.loc	27 259 15
	leaq	_str.6(%rip), %rdi
	leaq	l___unnamed_29(%rip), %rdx
	movl	$31, %esi
	callq	__ZN4core9panicking5panic17h736ee47a631475c0E
Ltmp715:
Lfunc_end29:
	.cfi_endproc
	.p2align	2, 0x90
	.data_region jt32
.set L29_0_set_64, LBB29_64-LJTI29_0
.set L29_0_set_146, LBB29_146-LJTI29_0
.set L29_0_set_65, LBB29_65-LJTI29_0
.set L29_0_set_59, LBB29_59-LJTI29_0
.set L29_0_set_76, LBB29_76-LJTI29_0
.set L29_0_set_62, LBB29_62-LJTI29_0
.set L29_0_set_2, LBB29_2-LJTI29_0
.set L29_0_set_51, LBB29_51-LJTI29_0
.set L29_0_set_56, LBB29_56-LJTI29_0
.set L29_0_set_45, LBB29_45-LJTI29_0
.set L29_0_set_58, LBB29_58-LJTI29_0
.set L29_0_set_67, LBB29_67-LJTI29_0
.set L29_0_set_81, LBB29_81-LJTI29_0
.set L29_0_set_46, LBB29_46-LJTI29_0
.set L29_0_set_68, LBB29_68-LJTI29_0
.set L29_0_set_7, LBB29_7-LJTI29_0
.set L29_0_set_34, LBB29_34-LJTI29_0
.set L29_0_set_33, LBB29_33-LJTI29_0
.set L29_0_set_39, LBB29_39-LJTI29_0
.set L29_0_set_96, LBB29_96-LJTI29_0
.set L29_0_set_98, LBB29_98-LJTI29_0
.set L29_0_set_22, LBB29_22-LJTI29_0
.set L29_0_set_12, LBB29_12-LJTI29_0
.set L29_0_set_83, LBB29_83-LJTI29_0
.set L29_0_set_37, LBB29_37-LJTI29_0
.set L29_0_set_44, LBB29_44-LJTI29_0
.set L29_0_set_20, LBB29_20-LJTI29_0
.set L29_0_set_15, LBB29_15-LJTI29_0
.set L29_0_set_92, LBB29_92-LJTI29_0
.set L29_0_set_79, LBB29_79-LJTI29_0
.set L29_0_set_94, LBB29_94-LJTI29_0
.set L29_0_set_49, LBB29_49-LJTI29_0
.set L29_0_set_38, LBB29_38-LJTI29_0
.set L29_0_set_25, LBB29_25-LJTI29_0
.set L29_0_set_26, LBB29_26-LJTI29_0
.set L29_0_set_21, LBB29_21-LJTI29_0
.set L29_0_set_112, LBB29_112-LJTI29_0
.set L29_0_set_99, LBB29_99-LJTI29_0
.set L29_0_set_69, LBB29_69-LJTI29_0
.set L29_0_set_91, LBB29_91-LJTI29_0
.set L29_0_set_102, LBB29_102-LJTI29_0
.set L29_0_set_16, LBB29_16-LJTI29_0
LJTI29_0:
	.long	L29_0_set_64
	.long	L29_0_set_146
	.long	L29_0_set_146
	.long	L29_0_set_146
	.long	L29_0_set_146
	.long	L29_0_set_146
	.long	L29_0_set_65
	.long	L29_0_set_146
	.long	L29_0_set_146
	.long	L29_0_set_146
	.long	L29_0_set_146
	.long	L29_0_set_146
	.long	L29_0_set_146
	.long	L29_0_set_146
	.long	L29_0_set_146
	.long	L29_0_set_146
	.long	L29_0_set_146
	.long	L29_0_set_146
	.long	L29_0_set_146
	.long	L29_0_set_146
	.long	L29_0_set_146
	.long	L29_0_set_146
	.long	L29_0_set_146
	.long	L29_0_set_146
	.long	L29_0_set_146
	.long	L29_0_set_146
	.long	L29_0_set_146
	.long	L29_0_set_146
	.long	L29_0_set_59
	.long	L29_0_set_76
	.long	L29_0_set_62
	.long	L29_0_set_2
	.long	L29_0_set_146
	.long	L29_0_set_51
	.long	L29_0_set_56
	.long	L29_0_set_45
	.long	L29_0_set_58
	.long	L29_0_set_146
	.long	L29_0_set_146
	.long	L29_0_set_146
	.long	L29_0_set_67
	.long	L29_0_set_146
	.long	L29_0_set_146
	.long	L29_0_set_81
	.long	L29_0_set_146
	.long	L29_0_set_46
	.long	L29_0_set_68
	.long	L29_0_set_7
	.long	L29_0_set_34
	.long	L29_0_set_33
	.long	L29_0_set_39
	.long	L29_0_set_7
	.long	L29_0_set_96
	.long	L29_0_set_98
	.long	L29_0_set_146
	.long	L29_0_set_146
	.long	L29_0_set_146
	.long	L29_0_set_146
	.long	L29_0_set_146
	.long	L29_0_set_146
	.long	L29_0_set_22
	.long	L29_0_set_12
	.long	L29_0_set_83
	.long	L29_0_set_37
	.long	L29_0_set_44
	.long	L29_0_set_20
	.long	L29_0_set_15
	.long	L29_0_set_12
	.long	L29_0_set_146
	.long	L29_0_set_92
	.long	L29_0_set_79
	.long	L29_0_set_94
	.long	L29_0_set_49
	.long	L29_0_set_38
	.long	L29_0_set_146
	.long	L29_0_set_25
	.long	L29_0_set_146
	.long	L29_0_set_26
	.long	L29_0_set_21
	.long	L29_0_set_112
	.long	L29_0_set_99
	.long	L29_0_set_69
	.long	L29_0_set_91
	.long	L29_0_set_2
	.long	L29_0_set_102
	.long	L29_0_set_16
.set L29_1_set_128, LBB29_128-LJTI29_1
.set L29_1_set_14, LBB29_14-LJTI29_1
.set L29_1_set_116, LBB29_116-LJTI29_1
.set L29_1_set_117, LBB29_117-LJTI29_1
.set L29_1_set_135, LBB29_135-LJTI29_1
.set L29_1_set_119, LBB29_119-LJTI29_1
.set L29_1_set_120, LBB29_120-LJTI29_1
.set L29_1_set_118, LBB29_118-LJTI29_1
.set L29_1_set_121, LBB29_121-LJTI29_1
.set L29_1_set_115, LBB29_115-LJTI29_1
.set L29_1_set_122, LBB29_122-LJTI29_1
.set L29_1_set_113, LBB29_113-LJTI29_1
LJTI29_1:
	.long	L29_1_set_128
	.long	L29_1_set_14
	.long	L29_1_set_116
	.long	L29_1_set_117
	.long	L29_1_set_135
	.long	L29_1_set_119
	.long	L29_1_set_120
	.long	L29_1_set_118
	.long	L29_1_set_121
	.long	L29_1_set_115
	.long	L29_1_set_122
	.long	L29_1_set_113
.set L29_2_set_145, LBB29_145-LJTI29_2
.set L29_2_set_78, LBB29_78-LJTI29_2
.set L29_2_set_137, LBB29_137-LJTI29_2
.set L29_2_set_138, LBB29_138-LJTI29_2
.set L29_2_set_135, LBB29_135-LJTI29_2
.set L29_2_set_140, LBB29_140-LJTI29_2
.set L29_2_set_141, LBB29_141-LJTI29_2
.set L29_2_set_139, LBB29_139-LJTI29_2
.set L29_2_set_142, LBB29_142-LJTI29_2
.set L29_2_set_136, LBB29_136-LJTI29_2
.set L29_2_set_143, LBB29_143-LJTI29_2
.set L29_2_set_134, LBB29_134-LJTI29_2
LJTI29_2:
	.long	L29_2_set_145
	.long	L29_2_set_78
	.long	L29_2_set_137
	.long	L29_2_set_138
	.long	L29_2_set_135
	.long	L29_2_set_140
	.long	L29_2_set_141
	.long	L29_2_set_139
	.long	L29_2_set_142
	.long	L29_2_set_136
	.long	L29_2_set_143
	.long	L29_2_set_134
.set L29_3_set_128, LBB29_128-LJTI29_3
.set L29_3_set_24, LBB29_24-LJTI29_3
.set L29_3_set_124, LBB29_124-LJTI29_3
.set L29_3_set_125, LBB29_125-LJTI29_3
.set L29_3_set_123, LBB29_123-LJTI29_3
.set L29_3_set_126, LBB29_126-LJTI29_3
.set L29_3_set_127, LBB29_127-LJTI29_3
LJTI29_3:
	.long	L29_3_set_128
	.long	L29_3_set_24
	.long	L29_3_set_124
	.long	L29_3_set_125
	.long	L29_3_set_123
	.long	L29_3_set_126
	.long	L29_3_set_127
.set L29_4_set_145, LBB29_145-LJTI29_4
.set L29_4_set_61, LBB29_61-LJTI29_4
.set L29_4_set_130, LBB29_130-LJTI29_4
.set L29_4_set_131, LBB29_131-LJTI29_4
.set L29_4_set_129, LBB29_129-LJTI29_4
.set L29_4_set_132, LBB29_132-LJTI29_4
.set L29_4_set_133, LBB29_133-LJTI29_4
LJTI29_4:
	.long	L29_4_set_145
	.long	L29_4_set_61
	.long	L29_4_set_130
	.long	L29_4_set_131
	.long	L29_4_set_129
	.long	L29_4_set_132
	.long	L29_4_set_133
	.end_data_region

	.globl	__ZN4time8duration8Duration8num_days17h739964ba2b21f60fE
	.p2align	4, 0x90
__ZN4time8duration8Duration8num_days17h739964ba2b21f60fE:
Lfunc_begin30:
	.file	29 "/Users/yingyuhang/.cargo/registry/src/github.com-1ecc6299db9ec823/time-0.1.43/src/duration.rs"
	.loc	29 149 0
	.cfi_startproc
	pushq	%rbp
	.cfi_def_cfa_offset 16
	.cfi_offset %rbp, -16
	movq	%rsp, %rbp
	.cfi_def_cfa_register %rbp
Ltmp716:
	.loc	29 168 12 prologue_end
	movq	(%rdi), %rax
	testq	%rax, %rax
	jns	LBB30_2
Ltmp717:
	.loc	29 168 29 is_stmt 0
	xorl	%ecx, %ecx
	cmpl	$0, 8(%rdi)
	setg	%cl
	.loc	29 168 12
	addq	%rcx, %rax
Ltmp718:
LBB30_2:
	.loc	29 0 12
	movabsq	$1749024623285053783, %rcx
	.loc	29 150 9 is_stmt 1
	imulq	%rcx
	movq	%rdx, %rax
	shrq	$63, %rax
	sarq	$13, %rdx
	addq	%rdx, %rax
	.loc	29 151 6
	popq	%rbp
	retq
Ltmp719:
Lfunc_end30:
	.cfi_endproc

	.globl	__ZN4time8duration8Duration11num_seconds17h5acc0e055ac2592bE
	.p2align	4, 0x90
__ZN4time8duration8Duration11num_seconds17h5acc0e055ac2592bE:
Lfunc_begin31:
	.loc	29 166 0
	.cfi_startproc
	pushq	%rbp
	.cfi_def_cfa_offset 16
	.cfi_offset %rbp, -16
	movq	%rsp, %rbp
	.cfi_def_cfa_register %rbp
Ltmp720:
	.loc	29 168 12 prologue_end
	movq	(%rdi), %rax
	testq	%rax, %rax
	js	LBB31_1
Ltmp721:
	.loc	29 0 0 is_stmt 0
	popq	%rbp
	retq
Ltmp722:
LBB31_1:
	.loc	29 168 29
	xorl	%ecx, %ecx
	cmpl	$0, 8(%rdi)
	setg	%cl
	.loc	29 168 12
	addq	%rcx, %rax
	.loc	29 0 0
	popq	%rbp
	retq
Ltmp723:
Lfunc_end31:
	.cfi_endproc

	.globl	__ZN4time8duration8Duration16num_milliseconds17ha7b2c754b0dc8275E
	.p2align	4, 0x90
__ZN4time8duration8Duration16num_milliseconds17ha7b2c754b0dc8275E:
Lfunc_begin32:
	.loc	29 187 0 is_stmt 1
	.cfi_startproc
	pushq	%rbp
	.cfi_def_cfa_offset 16
	.cfi_offset %rbp, -16
	movq	%rsp, %rbp
	.cfi_def_cfa_register %rbp
Ltmp724:
	.loc	29 168 12 prologue_end
	movq	(%rdi), %rcx
	movq	%rcx, %rax
	testq	%rcx, %rcx
	jns	LBB32_2
Ltmp725:
	.loc	29 168 29 is_stmt 0
	xorl	%eax, %eax
	cmpl	$0, 8(%rdi)
	setg	%al
	.loc	29 168 12
	addq	%rcx, %rax
Ltmp726:
LBB32_2:
	.loc	29 190 25 is_stmt 1
	imulq	$1000, %rax, %rax
	jo	LBB32_5
Ltmp727:
	.loc	29 191 26
	movl	8(%rdi), %edx
Ltmp728:
	.loc	29 179 12
	leal	-1000000000(%rdx), %esi
	.loc	29 179 29 is_stmt 0
	testl	%edx, %edx
	.loc	29 179 12
	cmovlel	%edx, %esi
Ltmp729:
	.loc	29 168 12 is_stmt 1
	testq	%rcx, %rcx
Ltmp730:
	.loc	29 179 12
	cmovnsl	%edx, %esi
Ltmp731:
	.loc	29 191 26
	movslq	%esi, %rcx
	imulq	$1125899907, %rcx, %rcx
	movq	%rcx, %rdx
	shrq	$63, %rdx
	sarq	$50, %rcx
	addl	%edx, %ecx
Ltmp732:
	.loc	29 192 21
	movslq	%ecx, %rcx
Ltmp733:
	.loc	29 192 9 is_stmt 0
	addq	%rcx, %rax
Ltmp734:
	jo	LBB32_6
Ltmp735:
	.loc	29 193 6 is_stmt 1
	popq	%rbp
	retq
Ltmp736:
LBB32_5:
	.loc	29 190 25
	leaq	_str.3(%rip), %rdi
Ltmp737:
	leaq	l___unnamed_111(%rip), %rdx
	movl	$33, %esi
	callq	__ZN4core9panicking5panic17h736ee47a631475c0E
LBB32_6:
Ltmp738:
	.loc	29 192 9
	leaq	_str.5(%rip), %rdi
Ltmp739:
	leaq	l___unnamed_112(%rip), %rdx
	movl	$28, %esi
	callq	__ZN4core9panicking5panic17h736ee47a631475c0E
Ltmp740:
Lfunc_end32:
	.cfi_endproc

	.globl	__ZN4time8duration8Duration16num_microseconds17h60ecc84ed52d3283E
	.p2align	4, 0x90
__ZN4time8duration8Duration16num_microseconds17h60ecc84ed52d3283E:
Lfunc_begin33:
	.loc	29 197 0
	.cfi_startproc
	pushq	%rbp
	.cfi_def_cfa_offset 16
	.cfi_offset %rbp, -16
	movq	%rsp, %rbp
	.cfi_def_cfa_register %rbp
Ltmp741:
	.loc	29 168 12 prologue_end
	movq	(%rdi), %rax
	movq	%rax, %rcx
	testq	%rax, %rax
	js	LBB33_1
Ltmp742:
	.loc	19 1660 30
	imulq	$1000000, %rcx, %rdx
Ltmp743:
	.loc	29 198 25
	jno	LBB33_4
Ltmp744:
LBB33_3:
	.loc	29 0 25 is_stmt 0
	xorl	%eax, %eax
	.loc	29 201 6 is_stmt 1
	popq	%rbp
	retq
Ltmp745:
LBB33_1:
	.loc	29 168 29
	xorl	%ecx, %ecx
	cmpl	$0, 8(%rdi)
	setg	%cl
	.loc	29 168 12 is_stmt 0
	addq	%rax, %rcx
Ltmp746:
	.loc	19 1660 30 is_stmt 1
	imulq	$1000000, %rcx, %rdx
Ltmp747:
	.loc	29 198 25
	jo	LBB33_3
Ltmp748:
LBB33_4:
	.loc	29 199 26
	movl	8(%rdi), %ecx
Ltmp749:
	.loc	29 179 12
	leal	-1000000000(%rcx), %esi
	.loc	29 179 29 is_stmt 0
	testl	%ecx, %ecx
	.loc	29 179 12
	cmovlel	%ecx, %esi
Ltmp750:
	.loc	29 168 12 is_stmt 1
	testq	%rax, %rax
Ltmp751:
	.loc	29 179 12
	cmovnsl	%ecx, %esi
Ltmp752:
	.loc	29 199 26
	movslq	%esi, %rax
	imulq	$274877907, %rax, %rax
	movq	%rax, %rcx
	shrq	$63, %rcx
	sarq	$38, %rax
	addl	%ecx, %eax
Ltmp753:
	.loc	29 200 31
	movslq	%eax, %rcx
Ltmp754:
	.loc	19 747 30
	xorl	%eax, %eax
Ltmp755:
	.loc	19 1607 30
	addq	%rcx, %rdx
Ltmp756:
	.loc	19 747 30
	setno	%al
Ltmp757:
	.loc	29 201 6
	popq	%rbp
	retq
Ltmp758:
Lfunc_end33:
	.cfi_endproc

	.globl	__ZN4time8duration8Duration15num_nanoseconds17h532bbbe5e2bd1caeE
	.p2align	4, 0x90
__ZN4time8duration8Duration15num_nanoseconds17h532bbbe5e2bd1caeE:
Lfunc_begin34:
	.loc	29 205 0
	.cfi_startproc
	pushq	%rbp
	.cfi_def_cfa_offset 16
	.cfi_offset %rbp, -16
	movq	%rsp, %rbp
	.cfi_def_cfa_register %rbp
Ltmp759:
	.loc	29 168 12 prologue_end
	movq	(%rdi), %rax
	movq	%rax, %rcx
	testq	%rax, %rax
	js	LBB34_1
Ltmp760:
	.loc	19 1660 30
	imulq	$1000000000, %rcx, %rdx
Ltmp761:
	.loc	29 206 25
	jno	LBB34_4
Ltmp762:
LBB34_3:
	.loc	29 0 25 is_stmt 0
	xorl	%eax, %eax
	.loc	29 209 6 is_stmt 1
	popq	%rbp
	retq
Ltmp763:
LBB34_1:
	.loc	29 168 29
	xorl	%ecx, %ecx
	cmpl	$0, 8(%rdi)
	setg	%cl
	.loc	29 168 12 is_stmt 0
	addq	%rax, %rcx
Ltmp764:
	.loc	19 1660 30 is_stmt 1
	imulq	$1000000000, %rcx, %rdx
Ltmp765:
	.loc	29 206 25
	jo	LBB34_3
Ltmp766:
LBB34_4:
	.loc	29 207 26
	movl	8(%rdi), %ecx
Ltmp767:
	.loc	29 179 12
	leal	-1000000000(%rcx), %esi
	.loc	29 179 29 is_stmt 0
	testl	%ecx, %ecx
	.loc	29 179 12
	cmovlel	%ecx, %esi
Ltmp768:
	.loc	29 168 12 is_stmt 1
	testq	%rax, %rax
Ltmp769:
	.loc	29 179 12
	cmovnsl	%ecx, %esi
Ltmp770:
	.loc	29 208 31
	movslq	%esi, %rcx
Ltmp771:
	.loc	19 747 30
	xorl	%eax, %eax
Ltmp772:
	.loc	19 1607 30
	addq	%rcx, %rdx
Ltmp773:
	.loc	19 747 30
	setno	%al
Ltmp774:
	.loc	29 209 6
	popq	%rbp
	retq
Ltmp775:
Lfunc_end34:
	.cfi_endproc

	.globl	__ZN4time8duration8Duration11checked_add17h6d1c2fe7c0aeea04E
	.p2align	4, 0x90
__ZN4time8duration8Duration11checked_add17h6d1c2fe7c0aeea04E:
Lfunc_begin35:
	.loc	29 212 0
	.cfi_startproc
	pushq	%rbp
	.cfi_def_cfa_offset 16
	.cfi_offset %rbp, -16
	movq	%rsp, %rbp
	.cfi_def_cfa_register %rbp
	movq	%rdi, %rax
Ltmp776:
	.loc	29 213 33 prologue_end
	movq	(%rsi), %rcx
Ltmp777:
	.loc	19 1607 30
	addq	(%rdx), %rcx
Ltmp778:
	.loc	29 213 24
	jno	LBB35_1
Ltmp779:
LBB35_13:
	.loc	29 0 24 is_stmt 0
	xorl	%ecx, %ecx
	movq	%rcx, (%rax)
	.loc	29 223 6 is_stmt 1
	popq	%rbp
	retq
LBB35_1:
Ltmp780:
	.loc	29 214 25
	movl	8(%rsi), %esi
Ltmp781:
	addl	8(%rdx), %esi
Ltmp782:
	jo	LBB35_12
Ltmp783:
	.loc	29 215 12
	cmpl	$1000000000, %esi
	.loc	29 215 9 is_stmt 0
	jl	LBB35_5
Ltmp784:
	.loc	19 1607 30 is_stmt 1
	incq	%rcx
Ltmp785:
	.loc	29 217 20
	jo	LBB35_13
Ltmp786:
	.loc	29 0 20 is_stmt 0
	addl	$-1000000000, %esi
Ltmp787:
LBB35_5:
	movabsq	$-9223372036854776, %rdx
Ltmp788:
	.loc	20 1152 21 is_stmt 1
	xorl	%edi, %edi
	.loc	20 1152 24 is_stmt 0
	cmpq	%rdx, %rcx
	.loc	20 1152 21
	setne	%dil
	movl	$255, %edx
	cmovgel	%edi, %edx
Ltmp789:
	.loc	20 445 13 is_stmt 1
	cmpb	$-1, %dl
	je	LBB35_13
Ltmp790:
	testb	%dl, %dl
	jne	LBB35_8
Ltmp791:
	.loc	20 1152 24
	cmpl	$192000000, %esi
	jl	LBB35_13
Ltmp792:
LBB35_8:
	.loc	20 0 24 is_stmt 0
	movabsq	$9223372036854775, %rdx
Ltmp793:
	.loc	20 1152 21
	xorl	%edi, %edi
	.loc	20 1152 24
	cmpq	%rdx, %rcx
	.loc	20 1152 21
	setne	%dil
	movl	$255, %edx
	cmovgel	%edi, %edx
Ltmp794:
	.loc	20 445 13 is_stmt 1
	testb	%dl, %dl
	jne	LBB35_10
Ltmp795:
	.loc	20 1152 24
	cmpl	$807000000, %esi
	.loc	20 1152 21 is_stmt 0
	setne	%dl
Ltmp796:
	.loc	20 0 21
	jl	LBB35_11
Ltmp797:
LBB35_10:
	.loc	20 320 23 is_stmt 1
	cmpb	$1, %dl
Ltmp798:
	.loc	29 222 9
	je	LBB35_13
Ltmp799:
LBB35_11:
	.loc	29 222 47 is_stmt 0
	movq	%rcx, 8(%rax)
	movl	%esi, 16(%rax)
	movl	$1, %ecx
Ltmp800:
	.loc	29 0 0
	movq	%rcx, (%rax)
	.loc	29 223 6 is_stmt 1
	popq	%rbp
	retq
Ltmp801:
LBB35_12:
	.loc	29 214 25
	leaq	_str.5(%rip), %rdi
	leaq	l___unnamed_113(%rip), %rdx
Ltmp802:
	movl	$28, %esi
	callq	__ZN4core9panicking5panic17h736ee47a631475c0E
Ltmp803:
Lfunc_end35:
	.cfi_endproc

	.globl	__ZN4time8duration8Duration11checked_sub17h04d7b32b565a93c4E
	.p2align	4, 0x90
__ZN4time8duration8Duration11checked_sub17h04d7b32b565a93c4E:
Lfunc_begin36:
	.loc	29 226 0
	.cfi_startproc
	pushq	%rbp
	.cfi_def_cfa_offset 16
	.cfi_offset %rbp, -16
	movq	%rsp, %rbp
	.cfi_def_cfa_register %rbp
	movq	%rdi, %rax
Ltmp804:
	.loc	29 227 33 prologue_end
	movq	(%rsi), %rcx
Ltmp805:
	.loc	19 1634 30
	subq	(%rdx), %rcx
Ltmp806:
	.loc	29 227 24
	jo	LBB36_13
Ltmp807:
	.loc	29 228 25
	movl	8(%rsi), %esi
Ltmp808:
	subl	8(%rdx), %esi
Ltmp809:
	jo	LBB36_12
Ltmp810:
	.loc	29 229 12
	testl	%esi, %esi
	.loc	29 229 9 is_stmt 0
	jns	LBB36_5
Ltmp811:
	.loc	19 1634 30 is_stmt 1
	decq	%rcx
Ltmp812:
	.loc	29 231 20
	jo	LBB36_13
Ltmp813:
	.loc	29 0 20 is_stmt 0
	addl	$1000000000, %esi
Ltmp814:
LBB36_5:
	movabsq	$-9223372036854776, %rdx
Ltmp815:
	.loc	20 1152 21 is_stmt 1
	xorl	%edi, %edi
	.loc	20 1152 24 is_stmt 0
	cmpq	%rdx, %rcx
	.loc	20 1152 21
	setne	%dil
	movl	$255, %edx
	cmovgel	%edi, %edx
Ltmp816:
	.loc	20 445 13 is_stmt 1
	cmpb	$-1, %dl
	je	LBB36_13
Ltmp817:
	testb	%dl, %dl
	jne	LBB36_8
Ltmp818:
	.loc	20 1152 24
	cmpl	$192000000, %esi
	jl	LBB36_13
Ltmp819:
LBB36_8:
	.loc	20 0 24 is_stmt 0
	movabsq	$9223372036854775, %rdx
Ltmp820:
	.loc	20 1152 21
	xorl	%edi, %edi
	.loc	20 1152 24
	cmpq	%rdx, %rcx
	.loc	20 1152 21
	setne	%dil
	movl	$255, %edx
	cmovgel	%edi, %edx
Ltmp821:
	.loc	20 445 13 is_stmt 1
	testb	%dl, %dl
	jne	LBB36_10
Ltmp822:
	.loc	20 1152 24
	cmpl	$807000000, %esi
	.loc	20 1152 21 is_stmt 0
	setne	%dl
Ltmp823:
	.loc	20 0 21
	jl	LBB36_11
Ltmp824:
LBB36_10:
	.loc	20 320 23 is_stmt 1
	cmpb	$1, %dl
Ltmp825:
	.loc	29 236 9
	jne	LBB36_11
Ltmp826:
LBB36_13:
	.loc	29 0 9 is_stmt 0
	xorl	%ecx, %ecx
	movq	%rcx, (%rax)
	.loc	29 237 6 is_stmt 1
	popq	%rbp
	retq
LBB36_11:
Ltmp827:
	.loc	29 236 47
	movq	%rcx, 8(%rax)
	movl	%esi, 16(%rax)
	movl	$1, %ecx
Ltmp828:
	.loc	29 0 0 is_stmt 0
	movq	%rcx, (%rax)
	.loc	29 237 6 is_stmt 1
	popq	%rbp
	retq
Ltmp829:
LBB36_12:
	.loc	29 228 25
	leaq	_str.0(%rip), %rdi
	leaq	l___unnamed_114(%rip), %rdx
Ltmp830:
	movl	$33, %esi
	callq	__ZN4core9panicking5panic17h736ee47a631475c0E
Ltmp831:
Lfunc_end36:
	.cfi_endproc

	.globl	__ZN4time8duration8Duration8from_std17h3422a9de81a3ad81E
	.p2align	4, 0x90
__ZN4time8duration8Duration8from_std17h3422a9de81a3ad81E:
Lfunc_begin37:
	.loc	29 263 0
	.cfi_startproc
	pushq	%rbp
	.cfi_def_cfa_offset 16
	.cfi_offset %rbp, -16
	movq	%rsp, %rbp
	.cfi_def_cfa_register %rbp
	movq	%rdi, %rax
	movabsq	$9223372036854775, %rdi
	movl	$1, %ecx
Ltmp832:
	.loc	29 265 12 prologue_end
	cmpq	%rdi, %rsi
	.loc	29 265 9 is_stmt 0
	ja	LBB37_4
Ltmp833:
	.loc	20 445 13 is_stmt 1
	jne	LBB37_3
Ltmp834:
	cmpl	$807000000, %edx
	jle	LBB37_3
Ltmp835:
LBB37_4:
	.loc	29 0 0 is_stmt 0
	movq	%rcx, (%rax)
	.loc	29 276 6 is_stmt 1
	popq	%rbp
	retq
LBB37_3:
Ltmp836:
	.loc	29 275 9
	movq	%rsi, 8(%rax)
	movl	%edx, 16(%rax)
	xorl	%ecx, %ecx
Ltmp837:
	.loc	29 0 0 is_stmt 0
	movq	%rcx, (%rax)
	.loc	29 276 6 is_stmt 1
	popq	%rbp
	retq
Ltmp838:
Lfunc_end37:
	.cfi_endproc

	.globl	__ZN4time8duration8Duration6to_std17h8b4ba6fafde1340fE
	.p2align	4, 0x90
__ZN4time8duration8Duration6to_std17h8b4ba6fafde1340fE:
Lfunc_begin38:
	.loc	29 282 0
	.cfi_startproc
	pushq	%rbp
	.cfi_def_cfa_offset 16
	.cfi_offset %rbp, -16
	movq	%rsp, %rbp
	.cfi_def_cfa_register %rbp
	movq	%rdi, %rax
Ltmp839:
	.loc	29 283 12 prologue_end
	movq	(%rsi), %rcx
Ltmp840:
	testq	%rcx, %rcx
	.loc	29 283 9 is_stmt 0
	js	LBB38_1
Ltmp841:
	.loc	29 286 47 is_stmt 1
	movl	8(%rsi), %edx
Ltmp842:
	.file	30 "/rustc/a74d1862d4d87a56244958416fd05976c58ca1a8/src/libcore/time.rs"
	.loc	30 137 21
	movl	%edx, %esi
Ltmp843:
	shrl	$9, %esi
	imulq	$281475, %rsi, %rsi
	shrq	$39, %rsi
Ltmp844:
	.loc	19 3632 30
	addq	%rsi, %rcx
Ltmp845:
	.loc	30 137 21
	imull	$1000000000, %esi, %esi
Ltmp846:
	subl	%esi, %edx
Ltmp847:
	.loc	29 286 9
	movq	%rcx, 8(%rax)
	movl	%edx, 16(%rax)
	xorl	%ecx, %ecx
Ltmp848:
	movq	%rcx, (%rax)
	.loc	29 287 6
	popq	%rbp
	retq
LBB38_1:
Ltmp849:
	.loc	29 0 6 is_stmt 0
	movl	$1, %ecx
	.loc	29 286 9 is_stmt 1
	movq	%rcx, (%rax)
	.loc	29 287 6
	popq	%rbp
	retq
Ltmp850:
Lfunc_end38:
	.cfi_endproc

	.globl	__ZN66_$LT$time..duration..Duration$u20$as$u20$core..ops..arith..Add$GT$3add17h6bf2a45208a9d415E
	.p2align	4, 0x90
__ZN66_$LT$time..duration..Duration$u20$as$u20$core..ops..arith..Add$GT$3add17h6bf2a45208a9d415E:
Lfunc_begin39:
	.loc	29 312 0
	.cfi_startproc
	pushq	%rbp
	.cfi_def_cfa_offset 16
	.cfi_offset %rbp, -16
	movq	%rsp, %rbp
	.cfi_def_cfa_register %rbp
	movq	%rdx, %r8
Ltmp851:
	movq	%rdi, %rax
Ltmp852:
	.loc	29 313 24 prologue_end
	addq	%rdx, %rax
Ltmp853:
	jo	LBB39_6
Ltmp854:
	.loc	29 0 24 is_stmt 0
	movl	%esi, %edx
Ltmp855:
	.loc	29 314 25 is_stmt 1
	addl	%ecx, %edx
Ltmp856:
	jo	LBB39_7
Ltmp857:
	.loc	29 315 12
	cmpl	$1000000000, %edx
	.loc	29 315 9 is_stmt 0
	jl	LBB39_5
Ltmp858:
	.loc	29 317 13 is_stmt 1
	incq	%rax
Ltmp859:
	jo	LBB39_8
Ltmp860:
	.loc	29 316 13
	addl	$-1000000000, %edx
Ltmp861:
LBB39_5:
	.loc	29 320 6
	popq	%rbp
	retq
Ltmp862:
LBB39_6:
	.loc	29 313 24
	leaq	_str.5(%rip), %rdi
	leaq	l___unnamed_115(%rip), %rdx
	movl	$28, %esi
Ltmp863:
	callq	__ZN4core9panicking5panic17h736ee47a631475c0E
Ltmp864:
LBB39_7:
	.loc	29 314 25
	leaq	_str.5(%rip), %rdi
	leaq	l___unnamed_116(%rip), %rdx
	movl	$28, %esi
	callq	__ZN4core9panicking5panic17h736ee47a631475c0E
Ltmp865:
LBB39_8:
	.loc	29 317 13
	leaq	_str.5(%rip), %rdi
	leaq	l___unnamed_117(%rip), %rdx
Ltmp866:
	movl	$28, %esi
	callq	__ZN4core9panicking5panic17h736ee47a631475c0E
Ltmp867:
Lfunc_end39:
	.cfi_endproc

	.globl	__ZN66_$LT$time..duration..Duration$u20$as$u20$core..ops..arith..Sub$GT$3sub17h0eb48b6528d69efeE
	.p2align	4, 0x90
__ZN66_$LT$time..duration..Duration$u20$as$u20$core..ops..arith..Sub$GT$3sub17h0eb48b6528d69efeE:
Lfunc_begin40:
	.loc	29 326 0
	.cfi_startproc
	pushq	%rbp
	.cfi_def_cfa_offset 16
	.cfi_offset %rbp, -16
	movq	%rsp, %rbp
	.cfi_def_cfa_register %rbp
	movq	%rdx, %r8
Ltmp868:
	movq	%rdi, %rax
Ltmp869:
	.loc	29 327 24 prologue_end
	subq	%rdx, %rax
Ltmp870:
	jo	LBB40_6
Ltmp871:
	.loc	29 0 24 is_stmt 0
	movl	%esi, %edx
Ltmp872:
	.loc	29 328 25 is_stmt 1
	subl	%ecx, %edx
Ltmp873:
	jo	LBB40_7
Ltmp874:
	.loc	29 329 12
	testl	%edx, %edx
	.loc	29 329 9 is_stmt 0
	js	LBB40_3
Ltmp875:
	.loc	29 334 6 is_stmt 1
	popq	%rbp
	retq
Ltmp876:
LBB40_3:
	.loc	29 331 13
	decq	%rax
Ltmp877:
	jo	LBB40_8
Ltmp878:
	.loc	29 330 13
	addl	$1000000000, %edx
Ltmp879:
	.loc	29 334 6
	popq	%rbp
	retq
Ltmp880:
LBB40_6:
	.loc	29 327 24
	leaq	_str.0(%rip), %rdi
	leaq	l___unnamed_118(%rip), %rdx
	movl	$33, %esi
Ltmp881:
	callq	__ZN4core9panicking5panic17h736ee47a631475c0E
Ltmp882:
LBB40_7:
	.loc	29 328 25
	leaq	_str.0(%rip), %rdi
	leaq	l___unnamed_119(%rip), %rdx
	movl	$33, %esi
	callq	__ZN4core9panicking5panic17h736ee47a631475c0E
Ltmp883:
LBB40_8:
	.loc	29 331 13
	leaq	_str.0(%rip), %rdi
	leaq	l___unnamed_120(%rip), %rdx
Ltmp884:
	movl	$33, %esi
	callq	__ZN4core9panicking5panic17h736ee47a631475c0E
Ltmp885:
Lfunc_end40:
	.cfi_endproc

	.globl	__ZN77_$LT$time..duration..Duration$u20$as$u20$core..ops..arith..Mul$LT$i32$GT$$GT$3mul17h51135d39c01c5c9bE
	.p2align	4, 0x90
__ZN77_$LT$time..duration..Duration$u20$as$u20$core..ops..arith..Mul$LT$i32$GT$$GT$3mul17h51135d39c01c5c9bE:
Lfunc_begin41:
	.loc	29 340 0
	.cfi_startproc
	pushq	%rbp
	.cfi_def_cfa_offset 16
	.cfi_offset %rbp, -16
	movq	%rsp, %rbp
	.cfi_def_cfa_register %rbp
Ltmp886:
	.loc	29 342 47 prologue_end
	movslq	%edx, %r8
	.loc	29 342 27 is_stmt 0
	movslq	%esi, %rcx
	imulq	%r8, %rcx
Ltmp887:
	.loc	29 0 27
	movabsq	$1237940039285380275, %rdx
Ltmp888:
	.loc	29 448 6 is_stmt 1
	movq	%rcx, %rax
	imulq	%rdx
	movq	%rdi, %rax
Ltmp889:
	movq	%rdx, %rsi
Ltmp890:
	shrq	$63, %rsi
	sarq	$26, %rdx
	addq	%rsi, %rdx
	imulq	$1000000000, %rdx, %rdi
	movq	%rcx, %rsi
	subq	%rdi, %rsi
Ltmp891:
	.loc	29 440 14
	negq	%rdi
Ltmp892:
	.loc	29 441 15
	testq	%rsi, %rsi
	.loc	29 440 14
	leaq	1000000000(%rcx,%rdi), %rcx
Ltmp893:
	cmovnsq	%rsi, %rcx
Ltmp894:
	.loc	29 344 20
	imulq	%r8, %rax
Ltmp895:
	jo	LBB41_3
Ltmp896:
	.loc	29 431 19
	sarq	$63, %rsi
	addq	%rdx, %rsi
Ltmp897:
	.loc	29 344 20
	addq	%rsi, %rax
	jo	LBB41_4
Ltmp898:
	.loc	29 346 6
	movl	%ecx, %edx
	popq	%rbp
	retq
Ltmp899:
LBB41_3:
	.loc	29 344 20
	leaq	_str.3(%rip), %rdi
	leaq	l___unnamed_121(%rip), %rdx
	movl	$33, %esi
	callq	__ZN4core9panicking5panic17h736ee47a631475c0E
Ltmp900:
LBB41_4:
	leaq	_str.5(%rip), %rdi
	leaq	l___unnamed_121(%rip), %rdx
	movl	$28, %esi
Ltmp901:
	callq	__ZN4core9panicking5panic17h736ee47a631475c0E
Ltmp902:
Lfunc_end41:
	.cfi_endproc

	.globl	__ZN77_$LT$time..duration..Duration$u20$as$u20$core..ops..arith..Div$LT$i32$GT$$GT$3div17h470e783cd8f3b858E
	.p2align	4, 0x90
__ZN77_$LT$time..duration..Duration$u20$as$u20$core..ops..arith..Div$LT$i32$GT$$GT$3div17h470e783cd8f3b858E:
Lfunc_begin42:
	.loc	29 352 0
	.cfi_startproc
	pushq	%rbp
	.cfi_def_cfa_offset 16
	.cfi_offset %rbp, -16
	movq	%rsp, %rbp
	.cfi_def_cfa_register %rbp
Ltmp903:
	.loc	29 353 24 prologue_end
	testl	%edx, %edx
	je	LBB42_18
Ltmp904:
	.loc	29 0 24 is_stmt 0
	movl	%edx, %ecx
Ltmp905:
	movl	%esi, %r8d
Ltmp906:
	movabsq	$-9223372036854775808, %r10
	.loc	29 353 24
	cmpq	%r10, %rdi
	jne	LBB42_3
Ltmp907:
	cmpl	$-1, %ecx
	je	LBB42_19
Ltmp908:
LBB42_3:
	.loc	29 0 24
	movslq	%ecx, %rsi
	.loc	29 353 24
	movq	%rdi, %rax
	cqto
	idivq	%rsi
	movq	%rax, %r9
Ltmp909:
	.loc	29 354 33 is_stmt 1
	imulq	%rsi, %rax
	jo	LBB42_20
Ltmp910:
	.loc	29 354 21 is_stmt 0
	subq	%rax, %rdi
Ltmp911:
	jo	LBB42_21
Ltmp912:
	.loc	29 355 27 is_stmt 1
	imulq	$1000000000, %rdi, %rax
	jo	LBB42_22
Ltmp913:
	.loc	29 353 24
	cmpl	$-1, %ecx
Ltmp914:
	.loc	29 355 27
	jne	LBB42_8
Ltmp915:
	cmpq	%r10, %rax
	je	LBB42_23
Ltmp916:
LBB42_8:
	.loc	29 356 25
	cmpl	$-2147483648, %r8d
	jne	LBB42_10
Ltmp917:
	cmpl	$-1, %ecx
	je	LBB42_24
Ltmp918:
LBB42_10:
	.loc	29 355 27
	cqto
	idivq	%rsi
	movq	%rax, %rdi
Ltmp919:
	.loc	29 356 25
	movl	%r8d, %eax
	cltd
	idivl	%ecx
	addl	%eax, %edi
Ltmp920:
	jo	LBB42_25
Ltmp921:
	.loc	29 357 12
	cmpl	$1000000000, %edi
	.loc	29 357 9 is_stmt 0
	jl	LBB42_14
Ltmp922:
	.loc	29 359 13 is_stmt 1
	incq	%r9
Ltmp923:
	jo	LBB42_26
Ltmp924:
	.loc	29 358 13
	addl	$-1000000000, %edi
Ltmp925:
	.loc	29 366 6
	movq	%r9, %rax
	movl	%edi, %edx
	popq	%rbp
	retq
Ltmp926:
LBB42_14:
	.loc	29 361 12
	testl	%edi, %edi
	.loc	29 361 9 is_stmt 0
	js	LBB42_15
Ltmp927:
	.loc	29 366 6 is_stmt 1
	movq	%r9, %rax
	movl	%edi, %edx
	popq	%rbp
	retq
Ltmp928:
LBB42_15:
	.loc	29 363 13
	decq	%r9
Ltmp929:
	jo	LBB42_27
Ltmp930:
	.loc	29 362 13
	addl	$1000000000, %edi
Ltmp931:
	.loc	29 366 6
	movq	%r9, %rax
	movl	%edi, %edx
	popq	%rbp
	retq
Ltmp932:
LBB42_18:
	.loc	29 353 24
	leaq	_str.1(%rip), %rdi
Ltmp933:
	leaq	l___unnamed_122(%rip), %rdx
Ltmp934:
	movl	$25, %esi
Ltmp935:
	callq	__ZN4core9panicking5panic17h736ee47a631475c0E
LBB42_19:
Ltmp936:
	leaq	_str.2(%rip), %rdi
Ltmp937:
	leaq	l___unnamed_122(%rip), %rdx
	movl	$31, %esi
	callq	__ZN4core9panicking5panic17h736ee47a631475c0E
Ltmp938:
LBB42_20:
	.loc	29 354 33
	leaq	_str.3(%rip), %rdi
Ltmp939:
	leaq	l___unnamed_123(%rip), %rdx
	movl	$33, %esi
	callq	__ZN4core9panicking5panic17h736ee47a631475c0E
Ltmp940:
LBB42_21:
	.loc	29 354 21 is_stmt 0
	leaq	_str.0(%rip), %rdi
	leaq	l___unnamed_124(%rip), %rdx
	movl	$33, %esi
	callq	__ZN4core9panicking5panic17h736ee47a631475c0E
Ltmp941:
LBB42_22:
	.loc	29 355 27 is_stmt 1
	leaq	_str.3(%rip), %rdi
Ltmp942:
	leaq	l___unnamed_125(%rip), %rdx
	movl	$33, %esi
	callq	__ZN4core9panicking5panic17h736ee47a631475c0E
Ltmp943:
LBB42_23:
	leaq	_str.2(%rip), %rdi
Ltmp944:
	leaq	l___unnamed_125(%rip), %rdx
	movl	$31, %esi
	callq	__ZN4core9panicking5panic17h736ee47a631475c0E
Ltmp945:
LBB42_24:
	.loc	29 356 25
	leaq	_str.2(%rip), %rdi
Ltmp946:
	leaq	l___unnamed_126(%rip), %rdx
	movl	$31, %esi
	callq	__ZN4core9panicking5panic17h736ee47a631475c0E
Ltmp947:
LBB42_25:
	leaq	_str.5(%rip), %rdi
	leaq	l___unnamed_126(%rip), %rdx
	movl	$28, %esi
	callq	__ZN4core9panicking5panic17h736ee47a631475c0E
Ltmp948:
LBB42_26:
	.loc	29 359 13
	leaq	_str.5(%rip), %rdi
Ltmp949:
	leaq	l___unnamed_127(%rip), %rdx
	movl	$28, %esi
	callq	__ZN4core9panicking5panic17h736ee47a631475c0E
Ltmp950:
LBB42_27:
	.loc	29 363 13
	leaq	_str.0(%rip), %rdi
Ltmp951:
	leaq	l___unnamed_128(%rip), %rdx
	movl	$33, %esi
	callq	__ZN4core9panicking5panic17h736ee47a631475c0E
Ltmp952:
Lfunc_end42:
	.cfi_endproc

	.globl	__ZN63_$LT$time..duration..Duration$u20$as$u20$core..fmt..Display$GT$3fmt17h596def14af35479cE
	.p2align	4, 0x90
__ZN63_$LT$time..duration..Duration$u20$as$u20$core..fmt..Display$GT$3fmt17h596def14af35479cE:
Lfunc_begin43:
	.loc	29 370 0
	.cfi_startproc
	pushq	%rbp
	.cfi_def_cfa_offset 16
	.cfi_offset %rbp, -16
	movq	%rsp, %rbp
	.cfi_def_cfa_register %rbp
	pushq	%r15
	pushq	%r14
	pushq	%r13
	pushq	%r12
	pushq	%rbx
	subq	$136, %rsp
	.cfi_offset %rbx, -56
	.cfi_offset %r12, -48
	.cfi_offset %r13, -40
	.cfi_offset %r14, -32
	.cfi_offset %r15, -24
	movq	%rsi, %r14
Ltmp953:
	.loc	29 373 30 prologue_end
	movq	(%rdi), %rbx
Ltmp954:
	.loc	29 0 0 is_stmt 0
	movl	8(%rdi), %ecx
Ltmp955:
	.loc	29 373 30
	testq	%rbx, %rbx
	.loc	29 373 27
	js	LBB43_2
Ltmp956:
	.loc	29 0 27
	xorl	%eax, %eax
	leaq	l___unnamed_64(%rip), %rdx
	jmp	LBB43_8
Ltmp957:
LBB43_2:
	movabsq	$-9223372036854775808, %rax
Ltmp958:
	.loc	29 301 12 is_stmt 1
	testl	%ecx, %ecx
	.loc	29 301 9 is_stmt 0
	je	LBB43_6
Ltmp959:
	.loc	29 0 0
	cmpq	%rax, %rbx
	.loc	29 304 30 is_stmt 1
	je	LBB43_26
Ltmp960:
	.loc	29 0 30 is_stmt 0
	movl	$1000000000, %esi
	.loc	29 304 53
	subl	%ecx, %esi
	jo	LBB43_27
Ltmp961:
	.loc	29 304 30
	notq	%rbx
Ltmp962:
	.loc	29 0 30
	leaq	l___unnamed_53(%rip), %rdx
	movl	$1, %eax
Ltmp963:
	movl	%esi, %ecx
Ltmp964:
	jmp	LBB43_8
Ltmp965:
LBB43_6:
	cmpq	%rax, %rbx
	.loc	29 302 30 is_stmt 1
	je	LBB43_28
Ltmp966:
	negq	%rbx
Ltmp967:
	.loc	29 0 30 is_stmt 0
	xorl	%ecx, %ecx
Ltmp968:
	leaq	l___unnamed_53(%rip), %rdx
	movl	$1, %eax
Ltmp969:
LBB43_8:
	.loc	29 373 14 is_stmt 1
	movq	%rbx, -152(%rbp)
	movl	%ecx, -144(%rbp)
	.loc	29 373 19 is_stmt 0
	movq	%rdx, -176(%rbp)
	movq	%rax, -168(%rbp)
	movabsq	$1749024623285053783, %rdx
Ltmp970:
	.loc	29 375 20 is_stmt 1
	movq	%rbx, %rax
	imulq	%rdx
	movq	%rdx, %rax
	shrq	$63, %rax
	sarq	$13, %rdx
	addq	%rax, %rdx
Ltmp971:
	movq	%rdx, -160(%rbp)
Ltmp972:
	.loc	29 376 31
	imulq	$86400, %rdx, %rdx
Ltmp973:
	.loc	29 376 20 is_stmt 0
	movq	%rbx, %rax
	subq	%rdx, %rax
Ltmp974:
	jo	LBB43_25
Ltmp975:
	movq	%rax, -136(%rbp)
Ltmp976:
	.loc	29 377 23 is_stmt 1
	addq	$86399, %rbx
	cmpq	$172799, %rbx
	setb	%r13b
Ltmp977:
	.loc	29 378 24
	testq	%rax, %rax
	setne	%r12b
	.loc	29 378 37 is_stmt 0
	testl	%ecx, %ecx
	setne	%r15b
	leaq	-176(%rbp), %rax
Ltmp978:
	.loc	29 380 9 is_stmt 1
	movq	%rax, -128(%rbp)
	leaq	__ZN44_$LT$$RF$T$u20$as$u20$core..fmt..Display$GT$3fmt17h18611ae9c160f39cE(%rip), %rax
	movq	%rax, -120(%rbp)
Ltmp979:
	.loc	11 328 9
	leaq	l___unnamed_129(%rip), %rax
Ltmp980:
	movq	%rax, -96(%rbp)
	movq	$2, -88(%rbp)
	movq	$0, -80(%rbp)
	leaq	-128(%rbp), %rax
Ltmp981:
	movq	%rax, -64(%rbp)
	movq	$1, -56(%rbp)
	leaq	-96(%rbp), %rsi
Ltmp982:
	.loc	29 380 9
	movq	%r14, %rdi
Ltmp983:
	callq	__ZN4core3fmt9Formatter9write_fmt17h3dc2bf45afed3069E
	.loc	29 380 31 is_stmt 0
	testb	%al, %al
	je	LBB43_11
Ltmp984:
LBB43_10:
	.loc	29 0 31
	movb	$1, %al
	jmp	LBB43_21
Ltmp985:
LBB43_11:
	.loc	29 377 23 is_stmt 1
	cmpq	$172799, %rbx
Ltmp986:
	.loc	29 382 9
	jb	LBB43_13
Ltmp987:
	.loc	29 0 9 is_stmt 0
	leaq	-160(%rbp), %rax
Ltmp988:
	.loc	29 383 13 is_stmt 1
	movq	%rax, -128(%rbp)
	movq	__ZN4core3fmt3num3imp52_$LT$impl$u20$core..fmt..Display$u20$for$u20$i64$GT$3fmt17h6a5170735d6294a5E@GOTPCREL(%rip), %rax
	movq	%rax, -120(%rbp)
Ltmp989:
	.loc	11 328 9
	leaq	l___unnamed_130(%rip), %rax
Ltmp990:
	movq	%rax, -96(%rbp)
	movq	$2, -88(%rbp)
	movq	$0, -80(%rbp)
	leaq	-128(%rbp), %rax
Ltmp991:
	movq	%rax, -64(%rbp)
	movq	$1, -56(%rbp)
	leaq	-96(%rbp), %rsi
Ltmp992:
	.loc	29 383 13
	movq	%r14, %rdi
	callq	__ZN4core3fmt9Formatter9write_fmt17h3dc2bf45afed3069E
	.loc	29 383 35 is_stmt 0
	testb	%al, %al
	jne	LBB43_10
Ltmp993:
LBB43_13:
	.loc	29 0 35
	orb	%r13b, %r15b
	orb	%r15b, %r12b
	.loc	29 385 9 is_stmt 1
	je	LBB43_20
Ltmp994:
	.loc	29 386 16
	movl	-144(%rbp), %eax
	testl	%eax, %eax
	.loc	29 386 13 is_stmt 0
	je	LBB43_22
Ltmp995:
	.loc	29 389 47 is_stmt 1
	movslq	%eax, %rcx
	imulq	$1125899907, %rcx, %rdx
	movq	%rdx, %rsi
	shrq	$63, %rsi
	sarq	$50, %rdx
	addl	%esi, %edx
	imull	$1000000, %edx, %esi
	.loc	29 388 23
	cmpl	%esi, %eax
	.loc	29 388 20 is_stmt 0
	je	LBB43_23
Ltmp996:
	.loc	29 391 47 is_stmt 1
	imulq	$274877907, %rcx, %rcx
	movq	%rcx, %rdx
	shrq	$63, %rdx
	sarq	$38, %rcx
	addl	%edx, %ecx
	imull	$1000, %ecx, %edx
	.loc	29 390 23
	cmpl	%edx, %eax
	.loc	29 390 20 is_stmt 0
	je	LBB43_24
Ltmp997:
	.loc	29 0 20
	leaq	-144(%rbp), %rax
Ltmp998:
	leaq	-136(%rbp), %rcx
Ltmp999:
	.loc	29 393 17 is_stmt 1
	movq	%rcx, -128(%rbp)
	movq	__ZN4core3fmt3num3imp52_$LT$impl$u20$core..fmt..Display$u20$for$u20$i64$GT$3fmt17h6a5170735d6294a5E@GOTPCREL(%rip), %rcx
	movq	%rcx, -120(%rbp)
	movq	%rax, -112(%rbp)
	movq	__ZN4core3fmt3num3imp52_$LT$impl$u20$core..fmt..Display$u20$for$u20$i32$GT$3fmt17he2ccc2060d52a2ceE@GOTPCREL(%rip), %rax
Ltmp1000:
	movq	%rax, -104(%rbp)
Ltmp1001:
	.loc	11 345 9
	leaq	l___unnamed_131(%rip), %rax
Ltmp1002:
	movq	%rax, -96(%rbp)
	movq	$3, -88(%rbp)
	leaq	l___unnamed_132(%rip), %rax
Ltmp1003:
	.loc	11 0 9 is_stmt 0
	jmp	LBB43_18
Ltmp1004:
LBB43_22:
	leaq	-136(%rbp), %rax
Ltmp1005:
	.loc	29 387 17 is_stmt 1
	movq	%rax, -128(%rbp)
	movq	__ZN4core3fmt3num3imp52_$LT$impl$u20$core..fmt..Display$u20$for$u20$i64$GT$3fmt17h6a5170735d6294a5E@GOTPCREL(%rip), %rax
	movq	%rax, -120(%rbp)
Ltmp1006:
	.loc	11 328 9
	leaq	l___unnamed_133(%rip), %rax
Ltmp1007:
	movq	%rax, -96(%rbp)
	movq	$2, -88(%rbp)
	movq	$0, -80(%rbp)
	leaq	-128(%rbp), %rax
Ltmp1008:
	movq	%rax, -64(%rbp)
	movq	$1, -56(%rbp)
	jmp	LBB43_19
Ltmp1009:
LBB43_23:
	.loc	29 389 47
	movl	%edx, -44(%rbp)
	leaq	-136(%rbp), %rax
Ltmp1010:
	.loc	29 389 17 is_stmt 0
	movq	%rax, -128(%rbp)
	movq	__ZN4core3fmt3num3imp52_$LT$impl$u20$core..fmt..Display$u20$for$u20$i64$GT$3fmt17h6a5170735d6294a5E@GOTPCREL(%rip), %rax
	movq	%rax, -120(%rbp)
	leaq	-44(%rbp), %rax
	movq	%rax, -112(%rbp)
	movq	__ZN4core3fmt3num3imp52_$LT$impl$u20$core..fmt..Display$u20$for$u20$i32$GT$3fmt17he2ccc2060d52a2ceE@GOTPCREL(%rip), %rax
	movq	%rax, -104(%rbp)
Ltmp1011:
	.loc	11 345 9 is_stmt 1
	leaq	l___unnamed_131(%rip), %rax
Ltmp1012:
	movq	%rax, -96(%rbp)
	movq	$3, -88(%rbp)
	leaq	l___unnamed_134(%rip), %rax
Ltmp1013:
	.loc	11 0 9 is_stmt 0
	jmp	LBB43_18
Ltmp1014:
LBB43_24:
	.loc	29 391 47 is_stmt 1
	movl	%ecx, -44(%rbp)
	leaq	-136(%rbp), %rax
Ltmp1015:
	.loc	29 391 17 is_stmt 0
	movq	%rax, -128(%rbp)
	movq	__ZN4core3fmt3num3imp52_$LT$impl$u20$core..fmt..Display$u20$for$u20$i64$GT$3fmt17h6a5170735d6294a5E@GOTPCREL(%rip), %rax
	movq	%rax, -120(%rbp)
	leaq	-44(%rbp), %rax
	movq	%rax, -112(%rbp)
	movq	__ZN4core3fmt3num3imp52_$LT$impl$u20$core..fmt..Display$u20$for$u20$i32$GT$3fmt17he2ccc2060d52a2ceE@GOTPCREL(%rip), %rax
	movq	%rax, -104(%rbp)
Ltmp1016:
	.loc	11 345 9 is_stmt 1
	leaq	l___unnamed_131(%rip), %rax
Ltmp1017:
	movq	%rax, -96(%rbp)
	movq	$3, -88(%rbp)
	leaq	l___unnamed_135(%rip), %rax
Ltmp1018:
LBB43_18:
	.loc	29 0 0 is_stmt 0
	movq	%rax, -80(%rbp)
	movq	$2, -72(%rbp)
	leaq	-128(%rbp), %rax
	movq	%rax, -64(%rbp)
	movq	$2, -56(%rbp)
Ltmp1019:
LBB43_19:
	leaq	-96(%rbp), %rsi
	movq	%r14, %rdi
	callq	__ZN4core3fmt9Formatter9write_fmt17h3dc2bf45afed3069E
	testb	%al, %al
	jne	LBB43_10
Ltmp1020:
LBB43_20:
	xorl	%eax, %eax
Ltmp1021:
LBB43_21:
	.loc	29 397 6 is_stmt 1
	addq	$136, %rsp
	popq	%rbx
	popq	%r12
	popq	%r13
	popq	%r14
Ltmp1022:
	popq	%r15
	popq	%rbp
	retq
LBB43_25:
Ltmp1023:
	.loc	29 376 20
	leaq	_str.0(%rip), %rdi
Ltmp1024:
	leaq	l___unnamed_136(%rip), %rdx
	movl	$33, %esi
	callq	__ZN4core9panicking5panic17h736ee47a631475c0E
Ltmp1025:
LBB43_26:
	.loc	29 304 30
	leaq	_str.6(%rip), %rdi
Ltmp1026:
	leaq	l___unnamed_137(%rip), %rdx
	movl	$31, %esi
	callq	__ZN4core9panicking5panic17h736ee47a631475c0E
Ltmp1027:
LBB43_27:
	.loc	29 304 53 is_stmt 0
	leaq	_str.0(%rip), %rdi
Ltmp1028:
	leaq	l___unnamed_138(%rip), %rdx
	movl	$33, %esi
	callq	__ZN4core9panicking5panic17h736ee47a631475c0E
Ltmp1029:
LBB43_28:
	.loc	29 302 30 is_stmt 1
	leaq	_str.6(%rip), %rdi
Ltmp1030:
	leaq	l___unnamed_139(%rip), %rdx
	movl	$31, %esi
	callq	__ZN4core9panicking5panic17h736ee47a631475c0E
Ltmp1031:
Lfunc_end43:
	.cfi_endproc

	.globl	__ZN70_$LT$time..duration..OutOfRangeError$u20$as$u20$core..fmt..Display$GT$3fmt17ha0bacb6658d8c241E
	.p2align	4, 0x90
__ZN70_$LT$time..duration..OutOfRangeError$u20$as$u20$core..fmt..Display$GT$3fmt17ha0bacb6658d8c241E:
Lfunc_begin44:
	.loc	29 411 0
	.cfi_startproc
	pushq	%rbp
	.cfi_def_cfa_offset 16
	.cfi_offset %rbp, -16
	movq	%rsp, %rbp
	.cfi_def_cfa_register %rbp
	subq	$80, %rsp
	movq	%rsi, %rdi
Ltmp1032:
	.loc	29 412 25 prologue_end
	leaq	l___unnamed_140(%rip), %rax
	movq	%rax, -32(%rbp)
	movq	$57, -24(%rbp)
	leaq	-32(%rbp), %rax
Ltmp1033:
	.loc	29 412 9 is_stmt 0
	movq	%rax, -16(%rbp)
	leaq	__ZN44_$LT$$RF$T$u20$as$u20$core..fmt..Display$GT$3fmt17h18611ae9c160f39cE(%rip), %rax
	movq	%rax, -8(%rbp)
Ltmp1034:
	.loc	11 328 9 is_stmt 1
	leaq	l___unnamed_33(%rip), %rax
Ltmp1035:
	movq	%rax, -80(%rbp)
	movq	$1, -72(%rbp)
	movq	$0, -64(%rbp)
	leaq	-16(%rbp), %rax
Ltmp1036:
	movq	%rax, -48(%rbp)
	movq	$1, -40(%rbp)
	leaq	-80(%rbp), %rsi
Ltmp1037:
	.loc	29 412 9
	callq	__ZN4core3fmt9Formatter9write_fmt17h3dc2bf45afed3069E
Ltmp1038:
	.loc	29 413 6
	addq	$80, %rsp
	popq	%rbp
	retq
Ltmp1039:
Lfunc_end44:
	.cfi_endproc

	.globl	__ZN69_$LT$time..duration..OutOfRangeError$u20$as$u20$std..error..Error$GT$11description17h31bc7bcd79755701E
	.p2align	4, 0x90
__ZN69_$LT$time..duration..OutOfRangeError$u20$as$u20$std..error..Error$GT$11description17h31bc7bcd79755701E:
Lfunc_begin45:
	.loc	29 417 0
	.cfi_startproc
	pushq	%rbp
	.cfi_def_cfa_offset 16
	.cfi_offset %rbp, -16
	movq	%rsp, %rbp
	.cfi_def_cfa_register %rbp
Ltmp1040:
	.loc	29 419 6 prologue_end
	leaq	l___unnamed_140(%rip), %rax
	movl	$57, %edx
	popq	%rbp
	retq
Ltmp1041:
Lfunc_end45:
	.cfi_endproc

	.globl	__ZN4time5parse8strptime17h2ebf5a84cafd5541E
	.p2align	4, 0x90
__ZN4time5parse8strptime17h2ebf5a84cafd5541E:
Lfunc_begin46:
	.file	31 "/Users/yingyuhang/.cargo/registry/src/github.com-1ecc6299db9ec823/time-0.1.43/src/parse.rs"
	.loc	31 4 0
	.cfi_startproc
	pushq	%rbp
	.cfi_def_cfa_offset 16
	.cfi_offset %rbp, -16
	movq	%rsp, %rbp
	.cfi_def_cfa_register %rbp
	pushq	%r15
	pushq	%r14
	pushq	%r13
	pushq	%r12
	pushq	%rbx
	subq	$120, %rsp
	.cfi_offset %rbx, -56
	.cfi_offset %r12, -48
	.cfi_offset %r13, -40
	.cfi_offset %r14, -32
	.cfi_offset %r15, -24
	movq	%rdi, %r14
Ltmp1042:
	movq	%rsi, -56(%rbp)
	movq	%rdx, -48(%rbp)
Ltmp1043:
	.loc	31 5 18 prologue_end
	xorps	%xmm0, %xmm0
	movaps	%xmm0, -112(%rbp)
	movaps	%xmm0, -128(%rbp)
	movl	$0, -88(%rbp)
	movq	$0, -96(%rbp)
Ltmp1044:
	.loc	24 3179 9
	testq	%r8, %r8
	.loc	24 3303 21
	je	LBB46_21
Ltmp1045:
	.loc	24 0 21 is_stmt 0
	movq	%r8, %r15
Ltmp1046:
	addq	%rcx, %r15
Ltmp1047:
	leaq	-80(%rbp), %r12
	leaq	-56(%rbp), %r13
Ltmp1048:
	.loc	23 152 9 is_stmt 1
	leaq	1(%rcx), %rax
Ltmp1049:
	.loc	16 519 13
	movzbl	(%rcx), %edx
Ltmp1050:
	.loc	16 520 8
	testb	%dl, %dl
	.loc	16 520 5 is_stmt 0
	jns	LBB46_19
	jmp	LBB46_3
Ltmp1051:
	.p2align	4, 0x90
LBB46_68:
	.file	32 "/rustc/a74d1862d4d87a56244958416fd05976c58ca1a8/src/libcore/ptr/const_ptr.rs"
	.loc	32 158 9 is_stmt 1
	addq	%rdi, %rsi
Ltmp1052:
	.loc	31 387 17
	movq	%rsi, -56(%rbp)
	movq	%rcx, -48(%rbp)
Ltmp1053:
LBB46_69:
	.loc	31 0 17 is_stmt 0
	movq	%rax, %rcx
Ltmp1054:
	.loc	24 3179 9 is_stmt 1
	cmpq	%r15, %rax
	.loc	24 3303 21
	je	LBB46_21
Ltmp1055:
	.loc	23 152 9
	leaq	1(%rcx), %rax
Ltmp1056:
	.loc	16 519 13
	movzbl	(%rcx), %edx
Ltmp1057:
	.loc	16 520 8
	testb	%dl, %dl
	.loc	16 520 5 is_stmt 0
	js	LBB46_3
Ltmp1058:
LBB46_19:
	.loc	31 20 15 is_stmt 1
	cmpl	$37, %edx
	je	LBB46_49
Ltmp1059:
LBB46_20:
	cmpl	$1114112, %edx
	je	LBB46_21
Ltmp1060:
	.loc	31 384 11
	movq	-48(%rbp), %rcx
Ltmp1061:
	.loc	31 0 11 is_stmt 0
	movl	$10, %edi
Ltmp1062:
	.loc	24 3179 9 is_stmt 1
	testq	%rcx, %rcx
	.loc	24 3303 21
	je	LBB46_23
Ltmp1063:
	.loc	31 0 0 is_stmt 0
	movq	-56(%rbp), %rsi
Ltmp1064:
	.loc	16 519 13 is_stmt 1
	movzbl	(%rsi), %ebx
Ltmp1065:
	.loc	16 520 8
	testb	%bl, %bl
	.loc	16 520 5 is_stmt 0
	jns	LBB46_38
Ltmp1066:
	.loc	31 0 0
	leaq	(%rsi,%rcx), %r10
Ltmp1067:
	xorl	%r8d, %r8d
Ltmp1068:
	movq	%r10, %r11
Ltmp1069:
	.loc	24 3179 9 is_stmt 1
	cmpq	$1, %rcx
	.loc	24 3303 21
	je	LBB46_27
Ltmp1070:
	.loc	23 152 9
	leaq	2(%rsi), %r11
Ltmp1071:
	.loc	16 508 15
	movzbl	1(%rsi), %r8d
	.loc	16 507 5
	andl	$63, %r8d
Ltmp1072:
LBB46_27:
	.loc	16 0 0 is_stmt 0
	movl	%ebx, %r9d
	andl	$31, %r9d
Ltmp1073:
	.loc	16 530 8 is_stmt 1
	cmpb	$-33, %bl
	.loc	16 530 5 is_stmt 0
	jbe	LBB46_28
Ltmp1074:
	.loc	16 0 5
	movq	%r12, %r13
Ltmp1075:
	.loc	24 3179 9 is_stmt 1
	cmpq	%r10, %r11
	.loc	24 3303 21
	je	LBB46_30
Ltmp1076:
	.loc	16 508 15
	movzbl	(%r11), %r12d
Ltmp1077:
	.loc	23 152 9
	incq	%r11
Ltmp1078:
	.loc	16 507 5
	andl	$63, %r12d
Ltmp1079:
	.loc	16 495 5
	shll	$6, %r8d
	orl	%r12d, %r8d
Ltmp1080:
	.loc	16 536 12
	cmpb	$-16, %bl
	.loc	16 536 9 is_stmt 0
	jb	LBB46_33
Ltmp1081:
LBB46_34:
	.loc	24 3179 9 is_stmt 1
	cmpq	%r10, %r11
	movq	%r13, %r12
	.loc	24 3303 21
	je	LBB46_35
Ltmp1082:
	.loc	16 508 15
	movzbl	(%r11), %ebx
Ltmp1083:
	.loc	16 507 5
	andl	$63, %ebx
	jmp	LBB46_37
Ltmp1084:
	.p2align	4, 0x90
LBB46_3:
	.loc	24 3179 9
	cmpq	%r15, %rax
	.loc	24 3303 21
	je	LBB46_4
Ltmp1085:
	.loc	16 508 15
	movzbl	1(%rcx), %esi
Ltmp1086:
	.loc	23 152 9
	addq	$2, %rcx
Ltmp1087:
	.loc	16 507 5
	andl	$63, %esi
Ltmp1088:
	.loc	16 0 0 is_stmt 0
	movq	%rcx, %rax
Ltmp1089:
	movl	%edx, %ecx
	andl	$31, %ecx
Ltmp1090:
	.loc	16 530 8 is_stmt 1
	cmpb	$-33, %dl
	.loc	16 530 5 is_stmt 0
	jbe	LBB46_7
Ltmp1091:
LBB46_9:
	.loc	24 3179 9 is_stmt 1
	cmpq	%r15, %rax
	.loc	24 3303 21
	je	LBB46_10
Ltmp1092:
	.loc	16 508 15
	movzbl	(%rax), %ebx
Ltmp1093:
	.loc	23 152 9
	incq	%rax
Ltmp1094:
	.loc	16 507 5
	andl	$63, %ebx
	movq	%rax, %rdi
Ltmp1095:
	.loc	16 495 5
	shll	$6, %esi
	orl	%ebx, %esi
Ltmp1096:
	.loc	16 536 12
	cmpb	$-16, %dl
	.loc	16 536 9 is_stmt 0
	jb	LBB46_13
Ltmp1097:
LBB46_14:
	.loc	24 3179 9 is_stmt 1
	cmpq	%r15, %rdi
	.loc	24 3303 21
	je	LBB46_15
Ltmp1098:
	.loc	16 508 15
	movzbl	(%rdi), %edx
Ltmp1099:
	.loc	23 152 9
	incq	%rdi
Ltmp1100:
	.loc	16 507 5
	andl	$63, %edx
Ltmp1101:
	.loc	16 0 0 is_stmt 0
	movq	%rdi, %rax
	jmp	LBB46_17
Ltmp1102:
LBB46_4:
	xorl	%esi, %esi
	movq	%r15, %rax
Ltmp1103:
	movl	%edx, %ecx
	andl	$31, %ecx
Ltmp1104:
	.loc	16 530 8 is_stmt 1
	cmpb	$-33, %dl
	.loc	16 530 5 is_stmt 0
	ja	LBB46_9
Ltmp1105:
LBB46_7:
	.loc	16 0 5
	shll	$6, %ecx
Ltmp1106:
	orl	%ecx, %esi
Ltmp1107:
	movl	%esi, %edx
Ltmp1108:
	.loc	31 20 15 is_stmt 1
	cmpl	$37, %edx
	jne	LBB46_20
Ltmp1109:
	.p2align	4, 0x90
LBB46_49:
	.loc	24 3179 9
	cmpq	%r15, %rax
	.loc	24 3303 21
	je	LBB46_21
Ltmp1110:
	.loc	23 152 9
	leaq	1(%rax), %rbx
Ltmp1111:
	.loc	16 519 13
	movzbl	(%rax), %edx
Ltmp1112:
	.loc	16 520 8
	testb	%dl, %dl
	.loc	16 520 5 is_stmt 0
	jns	LBB46_66
Ltmp1113:
	.loc	24 3179 9 is_stmt 1
	cmpq	%r15, %rbx
	.loc	24 3303 21
	je	LBB46_52
Ltmp1114:
	.loc	16 508 15
	movzbl	1(%rax), %ecx
Ltmp1115:
	.loc	23 152 9
	addq	$2, %rax
Ltmp1116:
	.loc	16 507 5
	andl	$63, %ecx
Ltmp1117:
	.loc	16 0 0 is_stmt 0
	movq	%rax, %rbx
Ltmp1118:
	movl	%edx, %eax
	andl	$31, %eax
Ltmp1119:
	.loc	16 530 8 is_stmt 1
	cmpb	$-33, %dl
	.loc	16 530 5 is_stmt 0
	jbe	LBB46_55
Ltmp1120:
LBB46_57:
	.loc	24 3179 9 is_stmt 1
	cmpq	%r15, %rbx
	.loc	24 3303 21
	je	LBB46_58
Ltmp1121:
	.loc	16 508 15
	movzbl	(%rbx), %edi
Ltmp1122:
	.loc	23 152 9
	incq	%rbx
Ltmp1123:
	.loc	16 507 5
	andl	$63, %edi
	movq	%rbx, %rsi
Ltmp1124:
	.loc	16 495 5
	shll	$6, %ecx
	orl	%edi, %ecx
Ltmp1125:
	.loc	16 536 12
	cmpb	$-16, %dl
	.loc	16 536 9 is_stmt 0
	jb	LBB46_61
Ltmp1126:
LBB46_62:
	.loc	24 3179 9 is_stmt 1
	cmpq	%r15, %rsi
	.loc	24 3303 21
	je	LBB46_63
Ltmp1127:
	.loc	16 508 15
	movzbl	(%rsi), %edx
Ltmp1128:
	.loc	23 152 9
	incq	%rsi
Ltmp1129:
	.loc	16 507 5
	andl	$63, %edx
Ltmp1130:
	.loc	16 0 0 is_stmt 0
	movq	%rsi, %rbx
	jmp	LBB46_65
Ltmp1131:
LBB46_28:
	shll	$6, %r9d
Ltmp1132:
	orl	%r9d, %r8d
Ltmp1133:
	movl	%r8d, %ebx
Ltmp1134:
	.loc	31 386 16 is_stmt 1
	cmpl	%edx, %ebx
	je	LBB46_42
	jmp	LBB46_39
Ltmp1135:
LBB46_10:
	.loc	31 0 16 is_stmt 0
	xorl	%ebx, %ebx
	movq	%r15, %rdi
Ltmp1136:
	.loc	16 495 5 is_stmt 1
	shll	$6, %esi
	orl	%ebx, %esi
Ltmp1137:
	.loc	16 536 12
	cmpb	$-16, %dl
	.loc	16 536 9 is_stmt 0
	jae	LBB46_14
Ltmp1138:
LBB46_13:
	.loc	16 0 9
	shll	$12, %ecx
Ltmp1139:
	orl	%ecx, %esi
Ltmp1140:
	movl	%esi, %edx
Ltmp1141:
	.loc	31 20 15 is_stmt 1
	cmpl	$37, %edx
	jne	LBB46_20
	jmp	LBB46_49
Ltmp1142:
LBB46_52:
	.loc	31 0 15 is_stmt 0
	xorl	%ecx, %ecx
Ltmp1143:
	movq	%r15, %rbx
Ltmp1144:
	movl	%edx, %eax
	andl	$31, %eax
Ltmp1145:
	.loc	16 530 8 is_stmt 1
	cmpb	$-33, %dl
	.loc	16 530 5 is_stmt 0
	ja	LBB46_57
Ltmp1146:
LBB46_55:
	.loc	16 0 5
	shll	$6, %eax
Ltmp1147:
	jmp	LBB46_56
Ltmp1148:
LBB46_15:
	xorl	%edx, %edx
Ltmp1149:
LBB46_17:
	.loc	16 540 18 is_stmt 1
	andl	$7, %ecx
Ltmp1150:
	shll	$18, %ecx
Ltmp1151:
	.loc	16 495 5
	shll	$6, %esi
Ltmp1152:
	orl	%ecx, %esi
Ltmp1153:
	.loc	16 540 13
	orl	%edx, %esi
Ltmp1154:
	.loc	16 0 13 is_stmt 0
	movl	%esi, %edx
Ltmp1155:
	.loc	31 20 15 is_stmt 1
	cmpl	$37, %edx
	jne	LBB46_20
	jmp	LBB46_49
Ltmp1156:
LBB46_30:
	.loc	31 0 15 is_stmt 0
	xorl	%r12d, %r12d
	movq	%r10, %r11
Ltmp1157:
	.loc	16 495 5 is_stmt 1
	shll	$6, %r8d
	orl	%r12d, %r8d
Ltmp1158:
	.loc	16 536 12
	cmpb	$-16, %bl
	.loc	16 536 9 is_stmt 0
	jae	LBB46_34
Ltmp1159:
LBB46_33:
	.loc	16 0 9
	shll	$12, %r9d
Ltmp1160:
	orl	%r9d, %r8d
Ltmp1161:
	movl	%r8d, %ebx
Ltmp1162:
	movq	%r13, %r12
	leaq	-56(%rbp), %r13
Ltmp1163:
	.loc	31 386 16 is_stmt 1
	cmpl	%edx, %ebx
	je	LBB46_42
	jmp	LBB46_39
Ltmp1164:
LBB46_58:
	.loc	31 0 16 is_stmt 0
	xorl	%edi, %edi
	movq	%r15, %rsi
Ltmp1165:
	.loc	16 495 5 is_stmt 1
	shll	$6, %ecx
	orl	%edi, %ecx
Ltmp1166:
	.loc	16 536 12
	cmpb	$-16, %dl
	.loc	16 536 9 is_stmt 0
	jae	LBB46_62
Ltmp1167:
LBB46_61:
	.loc	16 0 9
	shll	$12, %eax
Ltmp1168:
LBB46_56:
	orl	%eax, %ecx
Ltmp1169:
	movl	%ecx, %edx
Ltmp1170:
LBB46_66:
	.loc	31 23 17 is_stmt 1
	movq	%r12, %rdi
	movq	%r13, %rsi
	leaq	-128(%rbp), %rcx
	callq	__ZN4time5parse10parse_type17h60011e472063ce47E
Ltmp1171:
	.loc	21 1548 9
	movl	-80(%rbp), %edi
Ltmp1172:
	.loc	31 18 21
	movq	%rbx, %rax
Ltmp1173:
	.loc	31 23 48
	cmpl	$15, %edi
	je	LBB46_69
	jmp	LBB46_67
Ltmp1174:
LBB46_35:
	.loc	31 0 48 is_stmt 0
	xorl	%ebx, %ebx
Ltmp1175:
LBB46_37:
	leaq	-56(%rbp), %r13
Ltmp1176:
	.loc	16 540 18 is_stmt 1
	andl	$7, %r9d
Ltmp1177:
	shll	$18, %r9d
Ltmp1178:
	.loc	16 495 5
	shll	$6, %r8d
Ltmp1179:
	orl	%r9d, %r8d
Ltmp1180:
	.loc	16 540 13
	orl	%ebx, %r8d
Ltmp1181:
	.loc	16 0 13 is_stmt 0
	movl	%r8d, %ebx
Ltmp1182:
	.loc	16 693 13 is_stmt 1
	cmpl	$1114112, %r8d
Ltmp1183:
	je	LBB46_40
Ltmp1184:
	.p2align	4, 0x90
LBB46_38:
	.loc	31 386 16
	cmpl	%edx, %ebx
	.loc	31 386 13 is_stmt 0
	jne	LBB46_39
Ltmp1185:
LBB46_42:
	.loc	31 0 13
	movl	$1, %edi
Ltmp1186:
	.loc	17 360 12 is_stmt 1
	cmpl	$128, %edx
	.loc	17 360 9 is_stmt 0
	jb	LBB46_45
Ltmp1187:
	.loc	17 0 9
	movl	$2, %edi
	.loc	17 362 19 is_stmt 1
	cmpl	$2048, %edx
	.loc	17 362 16 is_stmt 0
	jb	LBB46_45
Ltmp1188:
	.loc	17 364 19 is_stmt 1
	cmpl	$65536, %edx
	.loc	17 364 16 is_stmt 0
	movl	$4, %edi
	sbbq	$0, %rdi
Ltmp1189:
LBB46_45:
	.loc	17 0 16
	movq	%rsi, -160(%rbp)
	movq	%rcx, -152(%rbp)
Ltmp1190:
	.loc	16 2051 18 is_stmt 1
	movq	%rdi, -136(%rbp)
	.loc	16 2051 25 is_stmt 0
	movq	%rcx, -144(%rbp)
Ltmp1191:
	.loc	16 2303 26 is_stmt 1
	subq	%rdi, %rcx
	.loc	16 2303 12 is_stmt 0
	je	LBB46_68
Ltmp1192:
	.loc	16 2307 13 is_stmt 1
	jbe	LBB46_48
Ltmp1193:
	.loc	16 2309 25
	cmpb	$-65, (%rsi,%rdi)
	jg	LBB46_68
	jmp	LBB46_48
Ltmp1194:
LBB46_63:
	.loc	16 0 25 is_stmt 0
	xorl	%edx, %edx
Ltmp1195:
LBB46_65:
	.loc	16 540 18 is_stmt 1
	andl	$7, %eax
Ltmp1196:
	shll	$18, %eax
Ltmp1197:
	.loc	16 495 5
	shll	$6, %ecx
Ltmp1198:
	orl	%eax, %ecx
Ltmp1199:
	.loc	16 540 13
	orl	%edx, %ecx
Ltmp1200:
	.loc	16 0 13 is_stmt 0
	movl	%ecx, %edx
Ltmp1201:
	.loc	31 18 21 is_stmt 1
	movq	%rbx, %rax
Ltmp1202:
	.loc	31 22 20
	cmpl	$1114112, %ecx
Ltmp1203:
	je	LBB46_69
	jmp	LBB46_66
Ltmp1204:
LBB46_21:
	.loc	31 30 5
	movl	-88(%rbp), %eax
	movl	%eax, 44(%r14)
	movq	-96(%rbp), %rax
	movq	%rax, 36(%r14)
	movq	-104(%rbp), %rax
	movq	%rax, 28(%r14)
	movq	-112(%rbp), %rax
	movq	%rax, 20(%r14)
	movq	-128(%rbp), %rax
	movq	-120(%rbp), %rcx
	movq	%rcx, 12(%r14)
	movq	%rax, 4(%r14)
	xorl	%eax, %eax
	jmp	LBB46_41
LBB46_23:
Ltmp1205:
	.loc	31 0 5 is_stmt 0
	jmp	LBB46_40
Ltmp1206:
LBB46_39:
	.loc	31 390 17 is_stmt 1
	movl	%edx, %eax
Ltmp1207:
	shlq	$32, %rbx
Ltmp1208:
	orq	%rax, %rbx
Ltmp1209:
	.loc	31 0 17 is_stmt 0
	movl	$14, %edi
	jmp	LBB46_40
Ltmp1210:
LBB46_67:
	movq	-76(%rbp), %rbx
Ltmp1211:
LBB46_40:
	movl	%edi, 4(%r14)
	movq	%rbx, 8(%r14)
	movl	$1, %eax
Ltmp1212:
LBB46_41:
	movl	%eax, (%r14)
Ltmp1213:
	.loc	31 31 2 is_stmt 1
	movq	%r14, %rax
	addq	$120, %rsp
	popq	%rbx
	popq	%r12
	popq	%r13
	popq	%r14
	popq	%r15
	popq	%rbp
	retq
LBB46_48:
Ltmp1214:
	.loc	31 0 2 is_stmt 0
	leaq	-160(%rbp), %rax
Ltmp1215:
	.loc	5 430 21 is_stmt 1
	movq	%rax, -80(%rbp)
	leaq	-136(%rbp), %rax
	movq	%rax, -72(%rbp)
	leaq	-144(%rbp), %rax
	movq	%rax, -64(%rbp)
	leaq	-80(%rbp), %rdi
Ltmp1216:
	callq	__ZN4core3str6traits105_$LT$impl$u20$core..slice..SliceIndex$LT$str$GT$$u20$for$u20$core..ops..range..RangeFrom$LT$usize$GT$$GT$5index28_$u7b$$u7b$closure$u7d$$u7d$17h0dd8f8b02a460f64E
Ltmp1217:
Lfunc_end46:
	.cfi_endproc

	.p2align	4, 0x90
__ZN4time5parse10parse_type17h60011e472063ce47E:
Lfunc_begin47:
	.loc	31 33 0
	.cfi_startproc
	.cfi_personality 155, _rust_eh_personality
	.cfi_lsda 16, Lexception2
	pushq	%rbp
	.cfi_def_cfa_offset 16
	.cfi_offset %rbp, -16
	movq	%rsp, %rbp
	.cfi_def_cfa_register %rbp
	pushq	%r15
	pushq	%r14
	pushq	%r13
	pushq	%r12
	pushq	%rbx
	subq	$216, %rsp
	.cfi_offset %rbx, -56
	.cfi_offset %r12, -48
	.cfi_offset %r13, -40
	.cfi_offset %r14, -32
	.cfi_offset %r15, -24
Ltmp1221:
	movq	%rdi, %r15
Ltmp1222:
	.loc	31 35 9 prologue_end
	leal	-37(%rdx), %eax
	cmpl	$85, %eax
	ja	LBB47_214
Ltmp1223:
	.loc	31 0 9 is_stmt 0
	movq	%rcx, %r13
Ltmp1224:
	movq	%rsi, %r14
Ltmp1225:
	leaq	LJTI47_0(%rip), %rcx
	movslq	(%rcx,%rax,4), %rax
	addq	%rcx, %rax
	jmpq	*%rax
Ltmp1226:
LBB47_2:
	leaq	-72(%rbp), %r12
	.loc	31 101 13 is_stmt 1
	movq	%r12, %rdi
	movq	%r14, %rsi
	movl	$109, %edx
Ltmp1227:
	movq	%r13, %rcx
	callq	__ZN4time5parse10parse_type17h60011e472063ce47E
Ltmp1228:
	.loc	21 729 13
	movl	-72(%rbp), %eax
Ltmp1229:
	cmpl	$15, %eax
	jne	LBB47_163
Ltmp1230:
	.loc	31 384 11
	movq	8(%r14), %rcx
Ltmp1231:
	.loc	31 0 11 is_stmt 0
	movl	$10, %eax
Ltmp1232:
	.loc	24 3179 9 is_stmt 1
	testq	%rcx, %rcx
	.loc	24 3303 21
	je	LBB47_164
Ltmp1233:
	.loc	31 0 0 is_stmt 0
	movq	(%r14), %rdx
Ltmp1234:
	.loc	16 519 13 is_stmt 1
	movzbl	(%rdx), %esi
Ltmp1235:
	.loc	16 520 8
	testb	%sil, %sil
	.loc	16 520 5 is_stmt 0
	jns	LBB47_327
Ltmp1236:
	.loc	31 0 0
	leaq	(%rdx,%rcx), %r8
Ltmp1237:
	xorl	%edi, %edi
Ltmp1238:
	movq	%r8, %r9
Ltmp1239:
	.loc	24 3179 9 is_stmt 1
	cmpq	$1, %rcx
	.loc	24 3303 21
	je	LBB47_7
Ltmp1240:
	.loc	23 152 9
	leaq	2(%rdx), %r9
Ltmp1241:
	.loc	16 508 15
	movzbl	1(%rdx), %edi
	.loc	16 507 5
	andl	$63, %edi
Ltmp1242:
LBB47_7:
	.loc	16 0 0 is_stmt 0
	movl	%esi, %ebx
	andl	$31, %ebx
Ltmp1243:
	.loc	16 530 8 is_stmt 1
	cmpb	$-33, %sil
	.loc	16 530 5 is_stmt 0
	jbe	LBB47_306
Ltmp1244:
	.loc	24 3179 9 is_stmt 1
	cmpq	%r8, %r9
	.loc	24 3303 21
	je	LBB47_322
Ltmp1245:
	.loc	16 508 15
	movzbl	(%r9), %r10d
Ltmp1246:
	.loc	23 152 9
	incq	%r9
Ltmp1247:
	.loc	16 507 5
	andl	$63, %r10d
Ltmp1248:
	.loc	16 495 5
	shll	$6, %edi
	orl	%r10d, %edi
Ltmp1249:
	.loc	16 536 12
	cmpb	$-16, %sil
	.loc	16 536 9 is_stmt 0
	jb	LBB47_325
Ltmp1250:
LBB47_323:
	.loc	24 3179 9 is_stmt 1
	cmpq	%r8, %r9
	.loc	24 3303 21
	je	LBB47_409
Ltmp1251:
	.loc	16 508 15
	movzbl	(%r9), %esi
Ltmp1252:
	.loc	16 507 5
	andl	$63, %esi
	jmp	LBB47_410
Ltmp1253:
LBB47_10:
	.loc	16 0 5 is_stmt 0
	leaq	-72(%rbp), %r12
	.loc	31 208 13 is_stmt 1
	movq	%r12, %rdi
	movq	%r14, %rsi
	movl	$72, %edx
Ltmp1254:
	movq	%r13, %rcx
	callq	__ZN4time5parse10parse_type17h60011e472063ce47E
Ltmp1255:
	.loc	21 729 13
	movl	-72(%rbp), %eax
Ltmp1256:
	cmpl	$15, %eax
	jne	LBB47_163
Ltmp1257:
	.loc	31 384 11
	movq	8(%r14), %rcx
Ltmp1258:
	.loc	31 0 11 is_stmt 0
	movl	$10, %eax
Ltmp1259:
	.loc	24 3179 9 is_stmt 1
	testq	%rcx, %rcx
	.loc	24 3303 21
	je	LBB47_164
Ltmp1260:
	.loc	31 0 0 is_stmt 0
	movq	(%r14), %rdx
Ltmp1261:
	.loc	16 519 13 is_stmt 1
	movzbl	(%rdx), %esi
Ltmp1262:
	.loc	16 520 8
	testb	%sil, %sil
	.loc	16 520 5 is_stmt 0
	jns	LBB47_344
Ltmp1263:
	.loc	31 0 0
	leaq	(%rdx,%rcx), %r8
Ltmp1264:
	xorl	%edi, %edi
Ltmp1265:
	movq	%r8, %r9
Ltmp1266:
	.loc	24 3179 9 is_stmt 1
	cmpq	$1, %rcx
	.loc	24 3303 21
	je	LBB47_15
Ltmp1267:
	.loc	23 152 9
	leaq	2(%rdx), %r9
Ltmp1268:
	.loc	16 508 15
	movzbl	1(%rdx), %edi
	.loc	16 507 5
	andl	$63, %edi
Ltmp1269:
LBB47_15:
	.loc	16 0 0 is_stmt 0
	movl	%esi, %ebx
	andl	$31, %ebx
Ltmp1270:
	.loc	16 530 8 is_stmt 1
	cmpb	$-33, %sil
	.loc	16 530 5 is_stmt 0
	jbe	LBB47_307
Ltmp1271:
	.loc	24 3179 9 is_stmt 1
	cmpq	%r8, %r9
	.loc	24 3303 21
	je	LBB47_339
Ltmp1272:
	.loc	16 508 15
	movzbl	(%r9), %r10d
Ltmp1273:
	.loc	23 152 9
	incq	%r9
Ltmp1274:
	.loc	16 507 5
	andl	$63, %r10d
Ltmp1275:
	.loc	16 495 5
	shll	$6, %edi
	orl	%r10d, %edi
Ltmp1276:
	.loc	16 536 12
	cmpb	$-16, %sil
	.loc	16 536 9 is_stmt 0
	jb	LBB47_342
Ltmp1277:
LBB47_340:
	.loc	24 3179 9 is_stmt 1
	cmpq	%r8, %r9
	.loc	24 3303 21
	je	LBB47_411
Ltmp1278:
	.loc	16 508 15
	movzbl	(%r9), %esi
Ltmp1279:
	.loc	16 507 5
	andl	$63, %esi
	jmp	LBB47_412
Ltmp1280:
LBB47_18:
	.loc	31 0 0 is_stmt 0
	movq	8(%r14), %rax
Ltmp1281:
	.loc	24 1430 9 is_stmt 1
	cmpq	$3, %rax
Ltmp1282:
	jae	LBB47_22
Ltmp1283:
LBB47_109:
	.loc	31 0 0 is_stmt 0
	movl	$4, (%r15)
	jmp	LBB47_504
Ltmp1284:
LBB47_20:
	.loc	31 376 18 is_stmt 1
	movups	(%r14), %xmm0
Ltmp1285:
	.loc	31 0 18 is_stmt 0
	movaps	%xmm0, -208(%rbp)
Ltmp1286:
	.loc	31 319 11 is_stmt 1
	movl	$1, %esi
	movl	$2, %edx
Ltmp1287:
	movq	%r14, %rdi
	xorl	%ecx, %ecx
	callq	__ZN4time5parse16match_digits_i6417hb424fd3ff42a455cE
	.loc	31 320 9
	testq	%rax, %rax
Ltmp1288:
	.loc	31 378 9
	je	LBB47_152
Ltmp1289:
	cmpl	$100, %edx
	jb	LBB47_127
	jmp	LBB47_152
Ltmp1290:
LBB47_22:
	.loc	31 0 0 is_stmt 0
	movq	(%r14), %rcx
Ltmp1291:
	leaq	l___unnamed_141(%rip), %rdx
Ltmp1292:
	.loc	24 5863 12 is_stmt 1
	leaq	l___unnamed_41(%rip), %rsi
Ltmp1293:
	cmpq	%rsi, %rcx
	.loc	24 5863 9 is_stmt 0
	je	LBB47_696
Ltmp1294:
	.loc	24 5868 13 is_stmt 1
	movzwl	(%rcx), %esi
Ltmp1295:
	xorl	$24906, %esi
	movzbl	2(%rcx), %edi
	xorl	$110, %edi
	orw	%si, %di
Ltmp1296:
	.loc	24 1430 9
	je	LBB47_696
Ltmp1297:
	.loc	24 0 9 is_stmt 0
	leaq	l___unnamed_141+24(%rip), %rdx
Ltmp1298:
	.loc	24 5863 12 is_stmt 1
	leaq	l___unnamed_42(%rip), %rsi
Ltmp1299:
	cmpq	%rsi, %rcx
	.loc	24 5863 9 is_stmt 0
	je	LBB47_696
Ltmp1300:
	.loc	24 5868 13 is_stmt 1
	movzwl	(%rcx), %esi
Ltmp1301:
	xorl	$25926, %esi
	movzbl	2(%rcx), %edi
	xorl	$98, %edi
	orw	%si, %di
Ltmp1302:
	.loc	24 1430 9
	je	LBB47_696
Ltmp1303:
	.loc	24 0 9 is_stmt 0
	leaq	l___unnamed_141+48(%rip), %rdx
Ltmp1304:
	.loc	24 5863 12 is_stmt 1
	leaq	l___unnamed_69(%rip), %rsi
Ltmp1305:
	cmpq	%rsi, %rcx
	.loc	24 5863 9 is_stmt 0
	je	LBB47_696
Ltmp1306:
	.loc	24 5868 13 is_stmt 1
	movzwl	(%rcx), %esi
Ltmp1307:
	xorl	$24909, %esi
	movzbl	2(%rcx), %edi
	xorl	$114, %edi
	orw	%si, %di
Ltmp1308:
	.loc	24 1430 9
	je	LBB47_696
Ltmp1309:
	.loc	24 0 9 is_stmt 0
	leaq	l___unnamed_141+72(%rip), %rdx
Ltmp1310:
	.loc	24 5863 12 is_stmt 1
	leaq	l___unnamed_70(%rip), %rsi
Ltmp1311:
	cmpq	%rsi, %rcx
	.loc	24 5863 9 is_stmt 0
	je	LBB47_696
Ltmp1312:
	.loc	24 5868 13 is_stmt 1
	movzwl	(%rcx), %esi
Ltmp1313:
	xorl	$28737, %esi
	movzbl	2(%rcx), %edi
	xorl	$114, %edi
	orw	%si, %di
Ltmp1314:
	.loc	24 1430 9
	je	LBB47_696
Ltmp1315:
	.loc	24 0 9 is_stmt 0
	leaq	l___unnamed_141+96(%rip), %rdx
Ltmp1316:
	.loc	24 5863 12 is_stmt 1
	leaq	l___unnamed_66(%rip), %rsi
Ltmp1317:
	cmpq	%rsi, %rcx
	.loc	24 5863 9 is_stmt 0
	je	LBB47_696
Ltmp1318:
	.loc	24 5868 13 is_stmt 1
	movzwl	(%rcx), %esi
Ltmp1319:
	xorl	$24909, %esi
	movzbl	2(%rcx), %edi
	xorl	$121, %edi
	orw	%si, %di
Ltmp1320:
	.loc	24 1430 9
	je	LBB47_696
Ltmp1321:
	.loc	24 0 9 is_stmt 0
	leaq	l___unnamed_141+120(%rip), %rdx
Ltmp1322:
	.loc	24 5863 12 is_stmt 1
	leaq	l___unnamed_72(%rip), %rsi
Ltmp1323:
	cmpq	%rsi, %rcx
	.loc	24 5863 9 is_stmt 0
	je	LBB47_696
Ltmp1324:
	.loc	24 5868 13 is_stmt 1
	movzwl	(%rcx), %esi
Ltmp1325:
	xorl	$30026, %esi
	movzbl	2(%rcx), %edi
	xorl	$110, %edi
	orw	%si, %di
Ltmp1326:
	.loc	24 1430 9
	je	LBB47_696
Ltmp1327:
	.loc	24 0 9 is_stmt 0
	leaq	l___unnamed_141+144(%rip), %rdx
Ltmp1328:
	.loc	24 5863 12 is_stmt 1
	leaq	l___unnamed_73(%rip), %rsi
Ltmp1329:
	cmpq	%rsi, %rcx
	.loc	24 5863 9 is_stmt 0
	je	LBB47_696
Ltmp1330:
	.loc	24 5868 13 is_stmt 1
	movzwl	(%rcx), %esi
Ltmp1331:
	xorl	$30026, %esi
	movzbl	2(%rcx), %edi
	xorl	$108, %edi
	orw	%si, %di
Ltmp1332:
	.loc	24 1430 9
	je	LBB47_696
Ltmp1333:
	.loc	24 0 9 is_stmt 0
	movq	%r13, %r9
	movq	%r14, %r8
Ltmp1334:
	movq	%r15, %rbx
	leaq	l___unnamed_141+168(%rip), %rdx
Ltmp1335:
	.loc	24 5863 12 is_stmt 1
	leaq	l___unnamed_71(%rip), %rsi
Ltmp1336:
	cmpq	%rsi, %rcx
	.loc	24 5863 9 is_stmt 0
	je	LBB47_695
Ltmp1337:
	.loc	24 5868 13 is_stmt 1
	movzwl	(%rcx), %esi
Ltmp1338:
	xorl	$30017, %esi
	movzbl	2(%rcx), %edi
	xorl	$103, %edi
	orw	%si, %di
Ltmp1339:
	.loc	24 0 13 is_stmt 0
	movq	%rbx, %r15
	movq	%r8, %r14
Ltmp1340:
	movq	%r9, %r13
Ltmp1341:
	.loc	24 1430 9 is_stmt 1
	je	LBB47_696
Ltmp1342:
	.loc	24 0 9 is_stmt 0
	leaq	l___unnamed_141+192(%rip), %rdx
Ltmp1343:
	.loc	24 5863 12 is_stmt 1
	leaq	l___unnamed_74(%rip), %rsi
Ltmp1344:
	cmpq	%rsi, %rcx
	.loc	24 5863 9 is_stmt 0
	je	LBB47_695
Ltmp1345:
	.loc	24 5868 13 is_stmt 1
	movzwl	(%rcx), %esi
Ltmp1346:
	xorl	$25939, %esi
	movzbl	2(%rcx), %edi
	xorl	$112, %edi
	orw	%si, %di
Ltmp1347:
	.loc	24 0 13 is_stmt 0
	movq	%rbx, %r15
	movq	%r8, %r14
	movq	%r9, %r13
Ltmp1348:
	.loc	24 1430 9 is_stmt 1
	je	LBB47_696
Ltmp1349:
	.loc	24 0 9 is_stmt 0
	leaq	l___unnamed_141+216(%rip), %rdx
Ltmp1350:
	.loc	24 5863 12 is_stmt 1
	leaq	l___unnamed_68(%rip), %rsi
Ltmp1351:
	cmpq	%rsi, %rcx
	.loc	24 5863 9 is_stmt 0
	je	LBB47_695
Ltmp1352:
	.loc	24 5868 13 is_stmt 1
	movzwl	(%rcx), %esi
Ltmp1353:
	xorl	$25423, %esi
	movzbl	2(%rcx), %edi
	xorl	$116, %edi
	orw	%si, %di
Ltmp1354:
	.loc	24 0 13 is_stmt 0
	movq	%rbx, %r15
	movq	%r8, %r14
	movq	%r9, %r13
Ltmp1355:
	.loc	24 1430 9 is_stmt 1
	je	LBB47_696
Ltmp1356:
	.loc	24 0 9 is_stmt 0
	leaq	l___unnamed_141+240(%rip), %rdx
Ltmp1357:
	.loc	24 5863 12 is_stmt 1
	leaq	l___unnamed_75(%rip), %rsi
Ltmp1358:
	cmpq	%rsi, %rcx
	.loc	24 5863 9 is_stmt 0
	je	LBB47_695
Ltmp1359:
	.loc	24 5868 13 is_stmt 1
	movzwl	(%rcx), %esi
Ltmp1360:
	xorl	$28494, %esi
	movzbl	2(%rcx), %edi
	xorl	$118, %edi
	orw	%si, %di
Ltmp1361:
	.loc	24 0 13 is_stmt 0
	movq	%rbx, %r15
	movq	%r8, %r14
	movq	%r9, %r13
Ltmp1362:
	.loc	24 1430 9 is_stmt 1
	je	LBB47_696
Ltmp1363:
	.loc	24 0 9 is_stmt 0
	leaq	l___unnamed_141+264(%rip), %rdx
Ltmp1364:
	.loc	24 5863 12 is_stmt 1
	leaq	l___unnamed_67(%rip), %rsi
Ltmp1365:
	cmpq	%rsi, %rcx
	.loc	24 5863 9 is_stmt 0
	je	LBB47_695
Ltmp1366:
	.loc	24 5868 13 is_stmt 1
	movzwl	(%rcx), %esi
Ltmp1367:
	xorl	$25924, %esi
	movzbl	2(%rcx), %edi
	xorl	$99, %edi
	orw	%si, %di
Ltmp1368:
	.loc	24 0 13 is_stmt 0
	movq	%rbx, %r15
	movq	%r8, %r14
Ltmp1369:
	movq	%r9, %r13
Ltmp1370:
	.loc	24 1430 9 is_stmt 1
	jne	LBB47_109
	jmp	LBB47_696
Ltmp1371:
LBB47_46:
	.loc	31 376 18
	movups	(%r14), %xmm0
Ltmp1372:
	.loc	31 0 18 is_stmt 0
	movaps	%xmm0, -208(%rbp)
Ltmp1373:
	.loc	31 319 11 is_stmt 1
	movl	$1, %esi
	movl	$2, %edx
Ltmp1374:
	movq	%r14, %rdi
	xorl	%ecx, %ecx
Ltmp1375:
	.loc	31 0 0 is_stmt 0
	callq	__ZN4time5parse16match_digits_i6417hb424fd3ff42a455cE
	testq	%rax, %rax
	jne	LBB47_82
	jmp	LBB47_84
Ltmp1376:
LBB47_47:
	.loc	31 376 18 is_stmt 1
	movups	(%r14), %xmm0
Ltmp1377:
	.loc	31 0 18 is_stmt 0
	movaps	%xmm0, -208(%rbp)
Ltmp1378:
	.loc	31 319 11 is_stmt 1
	movl	$1, %esi
	movl	$2, %edx
Ltmp1379:
	movq	%r14, %rdi
	movl	$1, %ecx
Ltmp1380:
	.loc	31 0 0 is_stmt 0
	callq	__ZN4time5parse16match_digits_i6417hb424fd3ff42a455cE
	testq	%rax, %rax
	jne	LBB47_146
	jmp	LBB47_202
Ltmp1381:
LBB47_48:
	movq	%r13, -240(%rbp)
Ltmp1382:
	movq	%r15, -208(%rbp)
Ltmp1383:
	.loc	31 355 21 is_stmt 1
	movq	8(%r14), %r10
Ltmp1384:
	.loc	24 3179 9
	testq	%r10, %r10
	.loc	24 3303 21
	je	LBB47_293
Ltmp1385:
	.loc	31 0 0 is_stmt 0
	movq	(%r14), %r13
Ltmp1386:
	leaq	(%r13,%r10), %r15
	movl	$100000000, %edi
	xorl	%eax, %eax
	movq	%r13, %r11
	xorl	%ebx, %ebx
	movq	%r13, %r9
Ltmp1387:
	.p2align	4, 0x90
LBB47_50:
	.loc	23 152 9 is_stmt 1
	leaq	1(%r11), %rdx
Ltmp1388:
	.loc	16 519 13
	movzbl	(%r11), %ecx
Ltmp1389:
	.loc	16 520 8
	testb	%cl, %cl
	.loc	16 520 5 is_stmt 0
	js	LBB47_52
Ltmp1390:
	.loc	24 3258 21 is_stmt 1
	movq	%rdx, %r11
Ltmp1391:
	.loc	24 0 21 is_stmt 0
	jmp	LBB47_64
Ltmp1392:
LBB47_52:
	.loc	24 3179 9 is_stmt 1
	cmpq	%r15, %rdx
	.loc	24 3303 21
	je	LBB47_58
Ltmp1393:
	.loc	16 508 15
	movzbl	1(%r11), %esi
Ltmp1394:
	.loc	23 152 9
	addq	$2, %r11
Ltmp1395:
	.loc	16 507 5
	andl	$63, %esi
	movq	%r11, %r8
Ltmp1396:
	.loc	16 0 0 is_stmt 0
	movl	%ecx, %r12d
	andl	$31, %r12d
Ltmp1397:
	.loc	16 530 8 is_stmt 1
	cmpb	$-33, %cl
	.loc	16 530 5 is_stmt 0
	jbe	LBB47_59
Ltmp1398:
LBB47_54:
	.loc	16 0 5
	movq	%r14, %rdx
Ltmp1399:
	.loc	24 3179 9 is_stmt 1
	cmpq	%r15, %r8
	.loc	24 3303 21
	je	LBB47_60
Ltmp1400:
	.loc	16 508 15
	movzbl	(%r8), %r14d
Ltmp1401:
	.loc	23 152 9
	incq	%r8
Ltmp1402:
	.loc	16 507 5
	andl	$63, %r14d
Ltmp1403:
	.loc	16 0 0 is_stmt 0
	movq	%r8, %r11
Ltmp1404:
	.loc	16 495 5 is_stmt 1
	shll	$6, %esi
	orl	%r14d, %esi
Ltmp1405:
	.loc	16 536 12
	cmpb	$-16, %cl
	.loc	16 536 9 is_stmt 0
	jb	LBB47_61
Ltmp1406:
LBB47_56:
	.loc	24 3179 9 is_stmt 1
	cmpq	%r15, %r8
	.loc	24 3303 21
	je	LBB47_62
Ltmp1407:
	.loc	16 508 15
	movzbl	(%r8), %ecx
Ltmp1408:
	.loc	23 152 9
	incq	%r8
Ltmp1409:
	.loc	16 507 5
	andl	$63, %ecx
Ltmp1410:
	.loc	16 0 0 is_stmt 0
	movq	%r8, %r11
	jmp	LBB47_63
Ltmp1411:
LBB47_58:
	xorl	%esi, %esi
	movq	%rdx, %r11
	movq	%r15, %r8
Ltmp1412:
	movl	%ecx, %r12d
	andl	$31, %r12d
Ltmp1413:
	.loc	16 530 8 is_stmt 1
	cmpb	$-33, %cl
	.loc	16 530 5 is_stmt 0
	ja	LBB47_54
Ltmp1414:
LBB47_59:
	.loc	16 0 5
	shll	$6, %r12d
Ltmp1415:
	orl	%r12d, %esi
Ltmp1416:
	movl	%esi, %ecx
Ltmp1417:
	jmp	LBB47_64
Ltmp1418:
LBB47_60:
	xorl	%r14d, %r14d
Ltmp1419:
	movq	%r15, %r8
Ltmp1420:
	.loc	16 495 5 is_stmt 1
	shll	$6, %esi
	orl	%r14d, %esi
Ltmp1421:
	.loc	16 536 12
	cmpb	$-16, %cl
	.loc	16 536 9 is_stmt 0
	jae	LBB47_56
Ltmp1422:
LBB47_61:
	.loc	16 0 9
	shll	$12, %r12d
Ltmp1423:
	orl	%r12d, %esi
Ltmp1424:
	movl	%esi, %ecx
Ltmp1425:
	movq	%rdx, %r14
	jmp	LBB47_64
Ltmp1426:
LBB47_62:
	xorl	%ecx, %ecx
Ltmp1427:
LBB47_63:
	movq	%rdx, %r14
Ltmp1428:
	.loc	16 540 18 is_stmt 1
	andl	$7, %r12d
Ltmp1429:
	shll	$18, %r12d
Ltmp1430:
	.loc	16 495 5
	shll	$6, %esi
Ltmp1431:
	orl	%r12d, %esi
Ltmp1432:
	.loc	16 540 13
	orl	%ecx, %esi
Ltmp1433:
	.loc	16 0 13 is_stmt 0
	movl	%esi, %ecx
Ltmp1434:
	.loc	16 693 13 is_stmt 1
	cmpl	$1114112, %esi
Ltmp1435:
	je	LBB47_294
Ltmp1436:
	.p2align	4, 0x90
LBB47_64:
	.loc	16 0 13 is_stmt 0
	movq	%r13, -192(%rbp)
	movq	%r10, -184(%rbp)
Ltmp1437:
	.loc	16 2051 18 is_stmt 1
	movq	%rbx, -56(%rbp)
	.loc	16 2051 25 is_stmt 0
	movq	%r10, -72(%rbp)
Ltmp1438:
	.loc	16 2303 12 is_stmt 1
	testq	%rbx, %rbx
	je	LBB47_68
Ltmp1439:
	cmpq	%rbx, %r10
	je	LBB47_68
Ltmp1440:
	.loc	16 2307 13
	jbe	LBB47_744
Ltmp1441:
	.loc	16 2309 25
	cmpb	$-65, (%r13,%rbx)
Ltmp1442:
	.loc	16 2021 13
	jle	LBB47_744
Ltmp1443:
LBB47_68:
	.loc	32 158 9
	leaq	(%r13,%rbx), %rdx
Ltmp1444:
	.loc	16 2040 23
	movq	%r10, %rsi
	subq	%rbx, %rsi
Ltmp1445:
	.loc	31 358 9
	movq	%rdx, (%r14)
	movq	%rsi, 8(%r14)
	.loc	31 360 13
	addl	$-48, %ecx
Ltmp1446:
	cmpl	$9, %ecx
	ja	LBB47_294
Ltmp1447:
	.loc	31 363 26
	imull	%edi, %ecx
Ltmp1448:
	.loc	31 363 17 is_stmt 0
	addl	%ecx, %eax
Ltmp1449:
	jo	LBB47_745
Ltmp1450:
	.loc	31 0 0
	subq	%r9, %rbx
Ltmp1451:
	addq	%r11, %rbx
Ltmp1452:
	.loc	31 364 17 is_stmt 1
	movslq	%edi, %rcx
	imulq	$1717986919, %rcx, %rdi
Ltmp1453:
	movq	%rdi, %rcx
	shrq	$63, %rcx
	sarq	$34, %rdi
	addl	%ecx, %edi
Ltmp1454:
	.loc	31 0 17 is_stmt 0
	movq	%r11, %r9
Ltmp1455:
	.loc	24 3179 9 is_stmt 1
	cmpq	%r11, %r15
	.loc	24 3303 21
	jne	LBB47_50
	jmp	LBB47_294
Ltmp1456:
LBB47_71:
	.loc	31 376 18
	movups	(%r14), %xmm0
Ltmp1457:
	.loc	31 0 18 is_stmt 0
	movaps	%xmm0, -208(%rbp)
Ltmp1458:
	.loc	31 319 11 is_stmt 1
	movl	$1, %esi
	movl	$1, %edx
Ltmp1459:
	movq	%r14, %rdi
	xorl	%ecx, %ecx
	callq	__ZN4time5parse16match_digits_i6417hb424fd3ff42a455cE
	.loc	31 320 9
	testq	%rax, %rax
Ltmp1460:
	.loc	31 378 9
	je	LBB47_206
Ltmp1461:
	.loc	31 0 0 is_stmt 0
	leal	-1(%rdx), %eax
	.loc	31 378 9
	cmpl	$7, %eax
	jae	LBB47_206
Ltmp1462:
	.loc	31 0 9
	xorl	%eax, %eax
Ltmp1463:
	.loc	31 217 46 is_stmt 1
	cmpl	$7, %edx
	.loc	31 217 43 is_stmt 0
	cmovnel	%edx, %eax
	.loc	31 217 30
	movl	%eax, 24(%r13)
Ltmp1464:
	.loc	31 0 0
	movl	$15, (%r15)
	jmp	LBB47_504
Ltmp1465:
LBB47_74:
	.loc	31 384 11 is_stmt 1
	movq	8(%r14), %rax
Ltmp1466:
	.loc	24 3179 9
	testq	%rax, %rax
	.loc	24 3303 21
	je	LBB47_531
Ltmp1467:
	.loc	31 0 0 is_stmt 0
	movq	(%r14), %rcx
Ltmp1468:
	.loc	16 519 13 is_stmt 1
	movzbl	(%rcx), %esi
Ltmp1469:
	.loc	16 520 8
	testb	%sil, %sil
	.loc	16 520 5 is_stmt 0
	jns	LBB47_361
Ltmp1470:
	.loc	31 0 0
	leaq	(%rcx,%rax), %r8
Ltmp1471:
	xorl	%edx, %edx
Ltmp1472:
	movq	%r8, %rbx
Ltmp1473:
	.loc	24 3179 9 is_stmt 1
	cmpq	$1, %rax
	.loc	24 3303 21
	je	LBB47_78
Ltmp1474:
	.loc	23 152 9
	leaq	2(%rcx), %rbx
Ltmp1475:
	.loc	16 508 15
	movzbl	1(%rcx), %edx
	.loc	16 507 5
	andl	$63, %edx
Ltmp1476:
LBB47_78:
	.loc	16 0 0 is_stmt 0
	movl	%esi, %edi
	andl	$31, %edi
Ltmp1477:
	.loc	16 530 8 is_stmt 1
	cmpb	$-33, %sil
	.loc	16 530 5 is_stmt 0
	jbe	LBB47_308
Ltmp1478:
	.loc	24 3179 9 is_stmt 1
	cmpq	%r8, %rbx
	.loc	24 3303 21
	je	LBB47_356
Ltmp1479:
	.loc	16 508 15
	movzbl	(%rbx), %r9d
Ltmp1480:
	.loc	23 152 9
	incq	%rbx
Ltmp1481:
	.loc	16 507 5
	andl	$63, %r9d
Ltmp1482:
	.loc	16 495 5
	shll	$6, %edx
	orl	%r9d, %edx
Ltmp1483:
	.loc	16 536 12
	cmpb	$-16, %sil
	.loc	16 536 9 is_stmt 0
	jb	LBB47_359
Ltmp1484:
LBB47_357:
	.loc	24 3179 9 is_stmt 1
	cmpq	%r8, %rbx
	.loc	24 3303 21
	je	LBB47_413
Ltmp1485:
	.loc	16 508 15
	movzbl	(%rbx), %esi
Ltmp1486:
	.loc	16 507 5
	andl	$63, %esi
	jmp	LBB47_414
Ltmp1487:
LBB47_81:
	.loc	31 376 18
	movups	(%r14), %xmm0
Ltmp1488:
	.loc	31 0 18 is_stmt 0
	movaps	%xmm0, -208(%rbp)
Ltmp1489:
	.loc	31 319 11 is_stmt 1
	movl	$1, %esi
	movl	$2, %edx
Ltmp1490:
	movq	%r14, %rdi
	movl	$1, %ecx
Ltmp1491:
	.loc	31 0 0 is_stmt 0
	callq	__ZN4time5parse16match_digits_i6417hb424fd3ff42a455cE
	testq	%rax, %rax
	je	LBB47_84
Ltmp1492:
LBB47_82:
	leal	-1(%rdx), %eax
	cmpl	$31, %eax
	jae	LBB47_84
Ltmp1493:
	movl	%edx, 12(%r13)
	movl	$15, (%r15)
	jmp	LBB47_504
Ltmp1494:
LBB47_84:
	movaps	-208(%rbp), %xmm0
	movups	%xmm0, (%r14)
	movl	$7, (%r15)
	jmp	LBB47_504
Ltmp1495:
LBB47_85:
	movq	8(%r14), %rax
Ltmp1496:
	.loc	24 1430 9 is_stmt 1
	cmpq	$2, %rax
Ltmp1497:
	jb	LBB47_86
Ltmp1498:
	.loc	31 0 0 is_stmt 0
	movq	(%r14), %rcx
Ltmp1499:
	leaq	l___unnamed_142(%rip), %rdx
Ltmp1500:
	.loc	24 5863 12 is_stmt 1
	leaq	l___unnamed_59(%rip), %rsi
Ltmp1501:
	cmpq	%rsi, %rcx
	.loc	24 5863 9 is_stmt 0
	je	LBB47_219
Ltmp1502:
	.loc	24 5868 13 is_stmt 1
	movzwl	(%rcx), %esi
Ltmp1503:
	cmpl	$28001, %esi
Ltmp1504:
	.loc	24 1430 9
	je	LBB47_219
Ltmp1505:
	.loc	24 0 9 is_stmt 0
	leaq	l___unnamed_142+24(%rip), %rdx
Ltmp1506:
	.loc	24 5863 12 is_stmt 1
	leaq	l___unnamed_60(%rip), %rsi
Ltmp1507:
	cmpq	%rsi, %rcx
	.loc	24 5863 9 is_stmt 0
	je	LBB47_219
Ltmp1508:
	.loc	24 5868 13 is_stmt 1
	movzwl	(%rcx), %esi
Ltmp1509:
	cmpl	$28016, %esi
Ltmp1510:
	.loc	24 1430 9
	jne	LBB47_86
Ltmp1511:
LBB47_219:
	.loc	31 310 19
	movl	16(%rdx), %edx
Ltmp1512:
	.loc	31 0 19 is_stmt 0
	movq	%rcx, -192(%rbp)
	movq	%rax, -184(%rbp)
Ltmp1513:
	.loc	16 2051 18 is_stmt 1
	movq	$2, -56(%rbp)
	.loc	16 2051 25 is_stmt 0
	movq	%rax, -72(%rbp)
Ltmp1514:
	.loc	16 2303 26 is_stmt 1
	cmpq	$2, %rax
	.loc	16 2303 12 is_stmt 0
	je	LBB47_221
Ltmp1515:
	.loc	16 2309 25 is_stmt 1
	cmpb	$-65, 2(%rcx)
Ltmp1516:
	.loc	16 2021 13
	jle	LBB47_744
Ltmp1517:
LBB47_221:
	.loc	32 158 9
	addq	$2, %rcx
Ltmp1518:
	.loc	16 2040 23
	addq	$-2, %rax
Ltmp1519:
	.loc	31 302 9
	movq	%rcx, (%r14)
	movq	%rax, 8(%r14)
Ltmp1520:
	.loc	31 170 26
	addl	8(%r13), %edx
	jno	LBB47_230
Ltmp1521:
	leaq	_str.5(%rip), %rdi
	leaq	l___unnamed_143(%rip), %rdx
	movl	$28, %esi
	callq	__ZN4core9panicking5panic17h736ee47a631475c0E
Ltmp1522:
LBB47_87:
	.loc	31 0 0 is_stmt 0
	movq	8(%r14), %rax
Ltmp1523:
	.loc	24 1430 9 is_stmt 1
	cmpq	$2, %rax
Ltmp1524:
	jae	LBB47_223
Ltmp1525:
LBB47_86:
	.loc	31 0 0 is_stmt 0
	movl	$2, (%r15)
	jmp	LBB47_504
Ltmp1526:
LBB47_89:
	.loc	31 192 19 is_stmt 1
	movl	$1, %esi
	movl	$18, %edx
Ltmp1527:
	movq	%r14, %rdi
	xorl	%ecx, %ecx
	callq	__ZN4time5parse16match_digits_i6417hb424fd3ff42a455cE
	.loc	31 193 17
	testq	%rax, %rax
	je	LBB47_295
Ltmp1528:
	.loc	1 284 23
	movq	%rdx, -88(%rbp)
Ltmp1529:
	.loc	6 2205 5
	xorps	%xmm0, %xmm0
	movaps	%xmm0, -112(%rbp)
	movaps	%xmm0, -128(%rbp)
	movaps	%xmm0, -144(%rbp)
	movq	$0, -96(%rbp)
Ltmp1530:
	.loc	6 0 5 is_stmt 0
	leaq	-88(%rbp), %rdi
	leaq	-144(%rbp), %rsi
Ltmp1531:
	.loc	1 286 16 is_stmt 1
	callq	_gmtime_r
Ltmp1532:
	.loc	23 28 9
	testq	%rax, %rax
Ltmp1533:
	.loc	1 286 13
	je	LBB47_746
Ltmp1534:
	.loc	1 245 26
	movaps	-144(%rbp), %xmm0
	.loc	1 249 26
	movaps	-128(%rbp), %xmm1
	.loc	1 253 28
	movl	-112(%rbp), %eax
Ltmp1535:
	.loc	31 194 21
	movups	%xmm0, (%r13)
	movups	%xmm1, 16(%r13)
	movl	%eax, 32(%r13)
	movq	$0, 36(%r13)
Ltmp1536:
	.loc	31 0 0 is_stmt 0
	movl	$15, (%r15)
	jmp	LBB47_504
Ltmp1537:
LBB47_92:
	.loc	31 376 18 is_stmt 1
	movups	(%r14), %xmm0
Ltmp1538:
	.loc	31 0 18 is_stmt 0
	movaps	%xmm0, -208(%rbp)
Ltmp1539:
	.loc	31 319 11 is_stmt 1
	movl	$1, %esi
	movl	$2, %edx
Ltmp1540:
	movq	%r14, %rdi
	xorl	%ecx, %ecx
	callq	__ZN4time5parse16match_digits_i6417hb424fd3ff42a455cE
	.loc	31 320 9
	testq	%rax, %rax
Ltmp1541:
	.loc	31 378 9
	je	LBB47_231
Ltmp1542:
	cmpl	$61, %edx
	jae	LBB47_231
Ltmp1543:
	.loc	31 202 30
	movl	%edx, (%r13)
Ltmp1544:
	.loc	31 0 0 is_stmt 0
	movl	$15, (%r15)
	jmp	LBB47_504
Ltmp1545:
LBB47_95:
	.loc	31 376 18 is_stmt 1
	movups	(%r14), %xmm0
Ltmp1546:
	.loc	31 0 18 is_stmt 0
	movaps	%xmm0, -208(%rbp)
Ltmp1547:
	.loc	31 319 11 is_stmt 1
	movl	$1, %esi
	movl	$3, %edx
Ltmp1548:
	movq	%r14, %rdi
	xorl	%ecx, %ecx
	callq	__ZN4time5parse16match_digits_i6417hb424fd3ff42a455cE
	.loc	31 320 9
	testq	%rax, %rax
Ltmp1549:
	.loc	31 378 9
	je	LBB47_232
Ltmp1550:
	.loc	31 0 0 is_stmt 0
	decl	%edx
Ltmp1551:
	.loc	31 378 9
	cmpl	$366, %edx
	jae	LBB47_232
Ltmp1552:
	.loc	31 140 30 is_stmt 1
	movl	%edx, 28(%r13)
Ltmp1553:
	.loc	31 0 0 is_stmt 0
	movl	$15, (%r15)
	jmp	LBB47_504
Ltmp1554:
LBB47_98:
	leaq	-72(%rbp), %rdi
	.loc	31 178 13 is_stmt 1
	movq	%r14, %rsi
	movl	$72, %edx
Ltmp1555:
	movq	%r13, %rcx
	callq	__ZN4time5parse10parse_type17h60011e472063ce47E
Ltmp1556:
	.loc	21 729 13
	movl	-72(%rbp), %edx
Ltmp1557:
	cmpl	$15, %edx
	jne	LBB47_233
Ltmp1558:
	.loc	31 384 11
	movq	8(%r14), %rax
Ltmp1559:
	.loc	31 0 11 is_stmt 0
	movl	$10, %edx
Ltmp1560:
	.loc	24 3179 9 is_stmt 1
	testq	%rax, %rax
	.loc	24 3303 21
	je	LBB47_297
Ltmp1561:
	.loc	31 0 0 is_stmt 0
	movq	(%r14), %rcx
Ltmp1562:
	.loc	16 519 13 is_stmt 1
	movzbl	(%rcx), %esi
Ltmp1563:
	.loc	16 520 8
	testb	%sil, %sil
	.loc	16 520 5 is_stmt 0
	jns	LBB47_420
Ltmp1564:
	.loc	31 0 0
	leaq	(%rcx,%rax), %r8
Ltmp1565:
	xorl	%edi, %edi
Ltmp1566:
	movq	%r8, %r9
Ltmp1567:
	.loc	24 3179 9 is_stmt 1
	cmpq	$1, %rax
	.loc	24 3303 21
	je	LBB47_103
Ltmp1568:
	.loc	23 152 9
	leaq	2(%rcx), %r9
Ltmp1569:
	.loc	16 508 15
	movzbl	1(%rcx), %edi
	.loc	16 507 5
	andl	$63, %edi
Ltmp1570:
LBB47_103:
	.loc	16 0 0 is_stmt 0
	movl	%esi, %ebx
	andl	$31, %ebx
Ltmp1571:
	.loc	16 530 8 is_stmt 1
	cmpb	$-33, %sil
	.loc	16 530 5 is_stmt 0
	jbe	LBB47_317
Ltmp1572:
	.loc	24 3179 9 is_stmt 1
	cmpq	%r8, %r9
	.loc	24 3303 21
	je	LBB47_415
Ltmp1573:
	.loc	16 508 15
	movzbl	(%r9), %r10d
Ltmp1574:
	.loc	23 152 9
	incq	%r9
Ltmp1575:
	.loc	16 507 5
	andl	$63, %r10d
Ltmp1576:
	.loc	16 495 5
	shll	$6, %edi
	orl	%r10d, %edi
Ltmp1577:
	.loc	16 536 12
	cmpb	$-16, %sil
	.loc	16 536 9 is_stmt 0
	jb	LBB47_418
Ltmp1578:
LBB47_416:
	.loc	24 3179 9 is_stmt 1
	cmpq	%r8, %r9
	.loc	24 3303 21
	je	LBB47_562
Ltmp1579:
	.loc	16 508 15
	movzbl	(%r9), %esi
Ltmp1580:
	.loc	16 507 5
	andl	$63, %esi
	jmp	LBB47_563
Ltmp1581:
LBB47_106:
	.loc	31 0 0 is_stmt 0
	movq	(%r14), %rax
Ltmp1582:
	movq	8(%r14), %rcx
Ltmp1583:
	.loc	24 1430 9 is_stmt 1
	cmpq	$7, %rcx
Ltmp1584:
	jae	LBB47_235
Ltmp1585:
	.loc	24 0 9 is_stmt 0
	movb	$1, %r8b
	.loc	24 1430 9
	cmpq	$5, %rcx
	jae	LBB47_240
Ltmp1586:
	.loc	24 0 9
	movb	$1, %r8b
	.loc	24 1430 9
	cmpq	$3, %rcx
	jae	LBB47_244
	jmp	LBB47_109
Ltmp1587:
LBB47_110:
	.loc	24 0 9
	leaq	-72(%rbp), %r12
	.loc	31 183 13 is_stmt 1
	movq	%r12, %rdi
	movq	%r14, %rsi
	movl	$73, %edx
Ltmp1588:
	movq	%r13, %rcx
	callq	__ZN4time5parse10parse_type17h60011e472063ce47E
Ltmp1589:
	.loc	21 729 13
	movl	-72(%rbp), %eax
Ltmp1590:
	cmpl	$15, %eax
	jne	LBB47_255
Ltmp1591:
	.loc	31 384 11
	movq	8(%r14), %rcx
Ltmp1592:
	.loc	31 0 11 is_stmt 0
	movl	$10, %eax
Ltmp1593:
	.loc	24 3179 9 is_stmt 1
	testq	%rcx, %rcx
	.loc	24 3303 21
	je	LBB47_298
Ltmp1594:
	.loc	31 0 0 is_stmt 0
	movq	(%r14), %rdx
Ltmp1595:
	.loc	16 519 13 is_stmt 1
	movzbl	(%rdx), %esi
Ltmp1596:
	.loc	16 520 8
	testb	%sil, %sil
	.loc	16 520 5 is_stmt 0
	jns	LBB47_430
Ltmp1597:
	.loc	31 0 0
	leaq	(%rdx,%rcx), %r8
Ltmp1598:
	xorl	%edi, %edi
Ltmp1599:
	movq	%r8, %r9
Ltmp1600:
	.loc	24 3179 9 is_stmt 1
	cmpq	$1, %rcx
	.loc	24 3303 21
	je	LBB47_115
Ltmp1601:
	.loc	23 152 9
	leaq	2(%rdx), %r9
Ltmp1602:
	.loc	16 508 15
	movzbl	1(%rdx), %edi
	.loc	16 507 5
	andl	$63, %edi
Ltmp1603:
LBB47_115:
	.loc	16 0 0 is_stmt 0
	movl	%esi, %ebx
	andl	$31, %ebx
Ltmp1604:
	.loc	16 530 8 is_stmt 1
	cmpb	$-33, %sil
	.loc	16 530 5 is_stmt 0
	jbe	LBB47_318
Ltmp1605:
	.loc	24 3179 9 is_stmt 1
	cmpq	%r8, %r9
	.loc	24 3303 21
	je	LBB47_425
Ltmp1606:
	.loc	16 508 15
	movzbl	(%r9), %r10d
Ltmp1607:
	.loc	23 152 9
	incq	%r9
Ltmp1608:
	.loc	16 507 5
	andl	$63, %r10d
Ltmp1609:
	.loc	16 495 5
	shll	$6, %edi
	orl	%r10d, %edi
Ltmp1610:
	.loc	16 536 12
	cmpb	$-16, %sil
	.loc	16 536 9 is_stmt 0
	jb	LBB47_428
Ltmp1611:
LBB47_426:
	.loc	24 3179 9 is_stmt 1
	cmpq	%r8, %r9
	.loc	24 3303 21
	je	LBB47_564
Ltmp1612:
	.loc	16 508 15
	movzbl	(%r9), %esi
Ltmp1613:
	.loc	16 507 5
	andl	$63, %esi
	jmp	LBB47_565
Ltmp1614:
LBB47_118:
	.loc	31 384 11
	movq	8(%r14), %rax
Ltmp1615:
	.loc	24 3179 9
	testq	%rax, %rax
	.loc	24 3303 21
	je	LBB47_531
Ltmp1616:
	.loc	31 0 0 is_stmt 0
	movq	(%r14), %rcx
Ltmp1617:
	.loc	16 519 13 is_stmt 1
	movzbl	(%rcx), %esi
Ltmp1618:
	.loc	16 520 8
	testb	%sil, %sil
	.loc	16 520 5 is_stmt 0
	jns	LBB47_368
Ltmp1619:
	.loc	31 0 0
	leaq	(%rcx,%rax), %r8
Ltmp1620:
	xorl	%edx, %edx
Ltmp1621:
	movq	%r8, %rbx
Ltmp1622:
	.loc	24 3179 9 is_stmt 1
	cmpq	$1, %rax
	.loc	24 3303 21
	je	LBB47_122
Ltmp1623:
	.loc	23 152 9
	leaq	2(%rcx), %rbx
Ltmp1624:
	.loc	16 508 15
	movzbl	1(%rcx), %edx
	.loc	16 507 5
	andl	$63, %edx
Ltmp1625:
LBB47_122:
	.loc	16 0 0 is_stmt 0
	movl	%esi, %edi
	andl	$31, %edi
Ltmp1626:
	.loc	16 530 8 is_stmt 1
	cmpb	$-33, %sil
	.loc	16 530 5 is_stmt 0
	jbe	LBB47_309
Ltmp1627:
	.loc	24 3179 9 is_stmt 1
	cmpq	%r8, %rbx
	.loc	24 3303 21
	je	LBB47_363
Ltmp1628:
	.loc	16 508 15
	movzbl	(%rbx), %r9d
Ltmp1629:
	.loc	23 152 9
	incq	%rbx
Ltmp1630:
	.loc	16 507 5
	andl	$63, %r9d
Ltmp1631:
	.loc	16 495 5
	shll	$6, %edx
	orl	%r9d, %edx
Ltmp1632:
	.loc	16 536 12
	cmpb	$-16, %sil
	.loc	16 536 9 is_stmt 0
	jb	LBB47_366
Ltmp1633:
LBB47_364:
	.loc	24 3179 9 is_stmt 1
	cmpq	%r8, %rbx
	.loc	24 3303 21
	je	LBB47_447
Ltmp1634:
	.loc	16 508 15
	movzbl	(%rbx), %esi
Ltmp1635:
	.loc	16 507 5
	andl	$63, %esi
	jmp	LBB47_448
Ltmp1636:
LBB47_125:
	.loc	31 319 11
	movl	$4, %esi
	movl	$4, %edx
Ltmp1637:
	movq	%r14, %rdi
	xorl	%ecx, %ecx
	callq	__ZN4time5parse16match_digits_i6417hb424fd3ff42a455cE
	.loc	31 320 9
	testq	%rax, %rax
Ltmp1638:
	.loc	31 237 17
	je	LBB47_296
Ltmp1639:
	.loc	31 237 43 is_stmt 0
	addl	$-1900, %edx
Ltmp1640:
	jo	LBB47_748
Ltmp1641:
LBB47_127:
	.loc	31 0 0
	movl	%edx, 20(%r13)
	movl	$15, (%r15)
	jmp	LBB47_504
Ltmp1642:
LBB47_128:
	.loc	31 384 11 is_stmt 1
	movq	8(%r14), %rax
Ltmp1643:
	.loc	24 3179 9
	testq	%rax, %rax
	.loc	24 3303 21
	je	LBB47_560
Ltmp1644:
	.loc	31 0 0 is_stmt 0
	movq	(%r14), %rcx
Ltmp1645:
	leaq	(%rcx,%rax), %r8
Ltmp1646:
	.loc	23 152 9 is_stmt 1
	leaq	1(%rcx), %r9
Ltmp1647:
	.loc	16 519 13
	movzbl	(%rcx), %edi
Ltmp1648:
	.loc	16 520 8
	testb	%dil, %dil
	.loc	16 520 5 is_stmt 0
	jns	LBB47_375
Ltmp1649:
	.loc	16 0 5
	xorl	%ebx, %ebx
Ltmp1650:
	movq	%r8, %rsi
Ltmp1651:
	.loc	24 3179 9 is_stmt 1
	cmpq	$1, %rax
	.loc	24 3303 21
	je	LBB47_132
Ltmp1652:
	.loc	23 152 9
	leaq	2(%rcx), %rsi
Ltmp1653:
	.loc	16 508 15
	movzbl	1(%rcx), %ebx
	.loc	16 507 5
	andl	$63, %ebx
Ltmp1654:
LBB47_132:
	.loc	16 0 0 is_stmt 0
	movl	%edi, %edx
Ltmp1655:
	andl	$31, %edx
Ltmp1656:
	.loc	16 530 8 is_stmt 1
	cmpb	$-33, %dil
	.loc	16 530 5 is_stmt 0
	jbe	LBB47_310
Ltmp1657:
	.loc	24 3179 9 is_stmt 1
	cmpq	%r8, %rsi
	.loc	24 3303 21
	je	LBB47_370
Ltmp1658:
	.loc	16 508 15
	movzbl	(%rsi), %r10d
Ltmp1659:
	.loc	23 152 9
	incq	%rsi
Ltmp1660:
	.loc	16 507 5
	andl	$63, %r10d
Ltmp1661:
	.loc	16 495 5
	shll	$6, %ebx
	orl	%r10d, %ebx
Ltmp1662:
	.loc	16 536 12
	cmpb	$-16, %dil
	.loc	16 536 9 is_stmt 0
	jb	LBB47_373
Ltmp1663:
LBB47_371:
	.loc	24 3179 9 is_stmt 1
	cmpq	%r8, %rsi
	.loc	24 3303 21
	je	LBB47_449
Ltmp1664:
	.loc	16 508 15
	movzbl	(%rsi), %esi
	.loc	16 507 5
	andl	$63, %esi
	jmp	LBB47_450
Ltmp1665:
LBB47_135:
	.loc	31 0 0 is_stmt 0
	movq	8(%r14), %rax
Ltmp1666:
	.loc	24 1430 9 is_stmt 1
	cmpq	$6, %rax
Ltmp1667:
	jb	LBB47_136
Ltmp1668:
	.loc	31 0 0 is_stmt 0
	movq	(%r14), %rcx
Ltmp1669:
	movl	$6, %edx
Ltmp1670:
	leaq	l___unnamed_144(%rip), %rsi
Ltmp1671:
	.loc	24 5863 12 is_stmt 1
	leaq	l___unnamed_54(%rip), %rdi
Ltmp1672:
	cmpq	%rdi, %rcx
	.loc	24 5863 9 is_stmt 0
	je	LBB47_312
Ltmp1673:
	.loc	24 0 9
	movl	$1684960595, %edi
Ltmp1674:
	.loc	24 5868 13 is_stmt 1
	xorl	(%rcx), %edi
	movzwl	4(%rcx), %ebx
	xorl	$31073, %ebx
	orl	%edi, %ebx
Ltmp1675:
	.loc	24 1430 9
	je	LBB47_313
Ltmp1676:
	.loc	24 0 9 is_stmt 0
	leaq	l___unnamed_144+24(%rip), %rsi
Ltmp1677:
	.loc	24 5863 12 is_stmt 1
	leaq	l___unnamed_55(%rip), %rdi
Ltmp1678:
	cmpq	%rdi, %rcx
	.loc	24 5863 9 is_stmt 0
	je	LBB47_312
Ltmp1679:
	.loc	24 0 9
	movl	$1684959053, %edi
Ltmp1680:
	.loc	24 5868 13 is_stmt 1
	xorl	(%rcx), %edi
	movzwl	4(%rcx), %ebx
	xorl	$31073, %ebx
	orl	%edi, %ebx
Ltmp1681:
	.loc	24 1430 9
	je	LBB47_313
Ltmp1682:
	.loc	24 0 9 is_stmt 0
	movb	$1, %r8b
	.loc	24 1430 9
	cmpq	$7, %rax
Ltmp1683:
	jae	LBB47_391
Ltmp1684:
LBB47_261:
	.loc	24 0 9
	leaq	l___unnamed_144+120(%rip), %rsi
Ltmp1685:
	.loc	24 5863 12 is_stmt 1
	leaq	l___unnamed_84(%rip), %rdx
Ltmp1686:
	cmpq	%rdx, %rcx
	.loc	24 5863 9 is_stmt 0
	je	LBB47_312
Ltmp1687:
LBB47_262:
	.loc	24 0 9
	movl	$1684632134, %edx
Ltmp1688:
	.loc	24 5868 13 is_stmt 1
	xorl	(%rcx), %edx
	movzwl	4(%rcx), %edi
	xorl	$31073, %edi
	orl	%edx, %edi
Ltmp1689:
	.loc	31 310 11
	movl	$6, %edx
Ltmp1690:
	.loc	24 1430 9
	je	LBB47_313
Ltmp1691:
	testb	%r8b, %r8b
Ltmp1692:
	jne	LBB47_136
Ltmp1693:
	.loc	24 0 9 is_stmt 0
	movl	$8, %edx
	leaq	l___unnamed_144+144(%rip), %rsi
Ltmp1694:
	.loc	24 5863 12 is_stmt 1
	leaq	L___unnamed_85(%rip), %rdi
Ltmp1695:
	cmpq	%rdi, %rcx
	.loc	24 5863 9 is_stmt 0
	je	LBB47_313
Ltmp1696:
	.loc	24 0 9
	movabsq	$8746382394089824595, %rdi
Ltmp1697:
	.loc	24 5868 13 is_stmt 1
	cmpq	%rdi, (%rcx)
Ltmp1698:
	.loc	24 1430 9
	jne	LBB47_136
	jmp	LBB47_313
Ltmp1699:
LBB47_137:
	.loc	24 0 9 is_stmt 0
	leaq	-72(%rbp), %r12
	.loc	31 120 13 is_stmt 1
	movq	%r12, %rdi
	movq	%r14, %rsi
	movl	$89, %edx
Ltmp1700:
	movq	%r13, %rcx
	callq	__ZN4time5parse10parse_type17h60011e472063ce47E
Ltmp1701:
	.loc	21 729 13
	movl	-72(%rbp), %eax
Ltmp1702:
	cmpl	$15, %eax
	jne	LBB47_163
Ltmp1703:
	.loc	31 384 11
	movq	8(%r14), %rcx
Ltmp1704:
	.loc	31 0 11 is_stmt 0
	movl	$10, %eax
Ltmp1705:
	.loc	24 3179 9 is_stmt 1
	testq	%rcx, %rcx
	.loc	24 3303 21
	je	LBB47_164
Ltmp1706:
	.loc	31 0 0 is_stmt 0
	movq	(%r14), %rdx
Ltmp1707:
	.loc	16 519 13 is_stmt 1
	movzbl	(%rdx), %esi
Ltmp1708:
	.loc	16 520 8
	testb	%sil, %sil
	.loc	16 520 5 is_stmt 0
	jns	LBB47_471
Ltmp1709:
	.loc	31 0 0
	leaq	(%rdx,%rcx), %r8
Ltmp1710:
	xorl	%edi, %edi
Ltmp1711:
	movq	%r8, %r9
Ltmp1712:
	.loc	24 3179 9 is_stmt 1
	cmpq	$1, %rcx
	.loc	24 3303 21
	je	LBB47_142
Ltmp1713:
	.loc	23 152 9
	leaq	2(%rdx), %r9
Ltmp1714:
	.loc	16 508 15
	movzbl	1(%rdx), %edi
	.loc	16 507 5
	andl	$63, %edi
Ltmp1715:
LBB47_142:
	.loc	16 0 0 is_stmt 0
	movl	%esi, %ebx
	andl	$31, %ebx
Ltmp1716:
	.loc	16 530 8 is_stmt 1
	cmpb	$-33, %sil
	.loc	16 530 5 is_stmt 0
	jbe	LBB47_319
Ltmp1717:
	.loc	24 3179 9 is_stmt 1
	cmpq	%r8, %r9
	.loc	24 3303 21
	je	LBB47_466
Ltmp1718:
	.loc	16 508 15
	movzbl	(%r9), %r10d
Ltmp1719:
	.loc	23 152 9
	incq	%r9
Ltmp1720:
	.loc	16 507 5
	andl	$63, %r10d
Ltmp1721:
	.loc	16 495 5
	shll	$6, %edi
	orl	%r10d, %edi
Ltmp1722:
	.loc	16 536 12
	cmpb	$-16, %sil
	.loc	16 536 9 is_stmt 0
	jb	LBB47_469
Ltmp1723:
LBB47_467:
	.loc	24 3179 9 is_stmt 1
	cmpq	%r8, %r9
	.loc	24 3303 21
	je	LBB47_566
Ltmp1724:
	.loc	16 508 15
	movzbl	(%r9), %esi
Ltmp1725:
	.loc	16 507 5
	andl	$63, %esi
	jmp	LBB47_567
Ltmp1726:
LBB47_145:
	.loc	31 376 18
	movups	(%r14), %xmm0
Ltmp1727:
	.loc	31 0 18 is_stmt 0
	movaps	%xmm0, -208(%rbp)
Ltmp1728:
	.loc	31 319 11 is_stmt 1
	movl	$1, %esi
	movl	$2, %edx
Ltmp1729:
	movq	%r14, %rdi
	xorl	%ecx, %ecx
Ltmp1730:
	.loc	31 0 0 is_stmt 0
	callq	__ZN4time5parse16match_digits_i6417hb424fd3ff42a455cE
	testq	%rax, %rax
	je	LBB47_202
Ltmp1731:
LBB47_146:
	cmpl	$24, %edx
	jae	LBB47_202
Ltmp1732:
	movl	%edx, 8(%r13)
	movl	$15, (%r15)
	jmp	LBB47_504
Ltmp1733:
LBB47_148:
	.loc	31 376 18 is_stmt 1
	movups	(%r14), %xmm0
Ltmp1734:
	.loc	31 0 18 is_stmt 0
	movaps	%xmm0, -208(%rbp)
Ltmp1735:
	.loc	31 319 11 is_stmt 1
	movl	$1, %esi
	movl	$2, %edx
Ltmp1736:
	movq	%r14, %rdi
	xorl	%ecx, %ecx
	callq	__ZN4time5parse16match_digits_i6417hb424fd3ff42a455cE
	.loc	31 320 9
	testq	%rax, %rax
Ltmp1737:
	.loc	31 378 9
	je	LBB47_152
Ltmp1738:
	cmpl	$100, %edx
	jae	LBB47_152
Ltmp1739:
	.loc	31 86 40
	imull	$100, %edx, %eax
	addl	$-1900, %eax
	.loc	31 86 26 is_stmt 0
	addl	20(%r13), %eax
	jo	LBB47_749
Ltmp1740:
	movl	%eax, 20(%r13)
Ltmp1741:
	.loc	31 0 0
	movl	$15, (%r15)
	jmp	LBB47_504
Ltmp1742:
LBB47_152:
	movaps	-208(%rbp), %xmm0
	movups	%xmm0, (%r14)
	movl	$5, (%r15)
	jmp	LBB47_504
Ltmp1743:
LBB47_153:
	movq	8(%r14), %rax
Ltmp1744:
	.loc	24 1430 9 is_stmt 1
	cmpq	$3, %rax
Ltmp1745:
	jae	LBB47_266
Ltmp1746:
LBB47_136:
	.loc	31 0 0 is_stmt 0
	movl	$3, (%r15)
	jmp	LBB47_504
Ltmp1747:
LBB47_155:
	leaq	-72(%rbp), %r12
	.loc	31 222 13 is_stmt 1
	movq	%r12, %rdi
	movq	%r14, %rsi
	movl	$101, %edx
Ltmp1748:
	movq	%r13, %rcx
	callq	__ZN4time5parse10parse_type17h60011e472063ce47E
Ltmp1749:
	.loc	21 729 13
	movl	-72(%rbp), %eax
Ltmp1750:
	cmpl	$15, %eax
	jne	LBB47_163
Ltmp1751:
	.loc	31 384 11
	movq	8(%r14), %rcx
Ltmp1752:
	.loc	31 0 11 is_stmt 0
	movl	$10, %eax
Ltmp1753:
	.loc	24 3179 9 is_stmt 1
	testq	%rcx, %rcx
	.loc	24 3303 21
	je	LBB47_164
Ltmp1754:
	.loc	31 0 0 is_stmt 0
	movq	(%r14), %rdx
Ltmp1755:
	.loc	16 519 13 is_stmt 1
	movzbl	(%rdx), %esi
Ltmp1756:
	.loc	16 520 8
	testb	%sil, %sil
	.loc	16 520 5 is_stmt 0
	jns	LBB47_487
Ltmp1757:
	.loc	31 0 0
	leaq	(%rdx,%rcx), %r8
Ltmp1758:
	xorl	%edi, %edi
Ltmp1759:
	movq	%r8, %r9
Ltmp1760:
	.loc	24 3179 9 is_stmt 1
	cmpq	$1, %rcx
	.loc	24 3303 21
	je	LBB47_160
Ltmp1761:
	.loc	23 152 9
	leaq	2(%rdx), %r9
Ltmp1762:
	.loc	16 508 15
	movzbl	1(%rdx), %edi
	.loc	16 507 5
	andl	$63, %edi
Ltmp1763:
LBB47_160:
	.loc	16 0 0 is_stmt 0
	movl	%esi, %ebx
	andl	$31, %ebx
Ltmp1764:
	.loc	16 530 8 is_stmt 1
	cmpb	$-33, %sil
	.loc	16 530 5 is_stmt 0
	jbe	LBB47_320
Ltmp1765:
	.loc	24 3179 9 is_stmt 1
	cmpq	%r8, %r9
	.loc	24 3303 21
	je	LBB47_482
Ltmp1766:
	.loc	16 508 15
	movzbl	(%r9), %r10d
Ltmp1767:
	.loc	23 152 9
	incq	%r9
Ltmp1768:
	.loc	16 507 5
	andl	$63, %r10d
Ltmp1769:
	.loc	16 495 5
	shll	$6, %edi
	orl	%r10d, %edi
Ltmp1770:
	.loc	16 536 12
	cmpb	$-16, %sil
	.loc	16 536 9 is_stmt 0
	jb	LBB47_485
Ltmp1771:
LBB47_483:
	.loc	24 3179 9 is_stmt 1
	cmpq	%r8, %r9
	.loc	24 3303 21
	je	LBB47_568
Ltmp1772:
	.loc	16 508 15
	movzbl	(%r9), %esi
Ltmp1773:
	.loc	16 507 5
	andl	$63, %esi
	jmp	LBB47_569
Ltmp1774:
LBB47_163:
	.loc	31 0 0 is_stmt 0
	movl	-68(%rbp), %ebx
Ltmp1775:
	movl	-64(%rbp), %esi
Ltmp1776:
	jmp	LBB47_499
Ltmp1777:
LBB47_164:
	jmp	LBB47_499
Ltmp1778:
LBB47_165:
	.loc	31 376 18 is_stmt 1
	movups	(%r14), %xmm0
Ltmp1779:
	.loc	31 0 18 is_stmt 0
	movaps	%xmm0, -208(%rbp)
Ltmp1780:
	.loc	31 319 11 is_stmt 1
	movl	$1, %esi
	movl	$2, %edx
Ltmp1781:
	movq	%r14, %rdi
	xorl	%ecx, %ecx
	callq	__ZN4time5parse16match_digits_i6417hb424fd3ff42a455cE
	.loc	31 320 9
	testq	%rax, %rax
Ltmp1782:
	.loc	31 378 9
	je	LBB47_283
Ltmp1783:
	cmpl	$60, %edx
	jae	LBB47_283
Ltmp1784:
	.loc	31 158 30
	movl	%edx, 4(%r13)
Ltmp1785:
	.loc	31 0 0 is_stmt 0
	movl	$15, (%r15)
	jmp	LBB47_504
Ltmp1786:
LBB47_168:
	.loc	31 376 18 is_stmt 1
	movups	(%r14), %xmm0
Ltmp1787:
	.loc	31 0 18 is_stmt 0
	movaps	%xmm0, -208(%rbp)
Ltmp1788:
	.loc	31 319 11 is_stmt 1
	movl	$1, %esi
	movl	$2, %edx
Ltmp1789:
	movq	%r14, %rdi
	xorl	%ecx, %ecx
Ltmp1790:
	.loc	31 0 0 is_stmt 0
	callq	__ZN4time5parse16match_digits_i6417hb424fd3ff42a455cE
	testq	%rax, %rax
	jne	LBB47_200
	jmp	LBB47_202
Ltmp1791:
LBB47_169:
	.loc	31 301 8 is_stmt 1
	movq	(%r14), %r9
Ltmp1792:
	movq	8(%r14), %r8
Ltmp1793:
	.loc	24 1430 9
	cmpq	$3, %r8
Ltmp1794:
	jae	LBB47_284
Ltmp1795:
LBB47_170:
	.loc	32 158 9
	leaq	(%r9,%r8), %r10
	xorl	%edx, %edx
Ltmp1796:
	.loc	31 254 32
	movq	%r9, %rdi
Ltmp1797:
	.p2align	4, 0x90
LBB47_171:
	.loc	24 3179 9
	cmpq	%rdi, %r10
	.loc	24 3303 21
	je	LBB47_187
Ltmp1798:
	.loc	23 152 9
	leaq	1(%rdi), %rbx
Ltmp1799:
	.loc	16 519 13
	movzbl	(%rdi), %eax
Ltmp1800:
	.loc	16 520 8
	testb	%al, %al
	.loc	16 520 5 is_stmt 0
	js	LBB47_173
Ltmp1801:
LBB47_185:
	.loc	31 254 21 is_stmt 1
	cmpl	$32, %eax
	je	LBB47_301
Ltmp1802:
LBB47_186:
	.loc	31 0 0 is_stmt 0
	subq	%rdi, %rdx
	addq	%rbx, %rdx
Ltmp1803:
	.loc	31 254 32
	movq	%rbx, %rdi
Ltmp1804:
	.loc	31 254 21
	cmpl	$1114112, %eax
	jne	LBB47_171
	jmp	LBB47_187
Ltmp1805:
LBB47_173:
	.loc	24 3179 9 is_stmt 1
	cmpq	%r10, %rbx
	.loc	24 3303 21
	je	LBB47_179
Ltmp1806:
	.loc	23 152 9
	leaq	2(%rdi), %rbx
Ltmp1807:
	.loc	16 508 15
	movzbl	1(%rdi), %ecx
	.loc	16 507 5
	andl	$63, %ecx
	movq	%rbx, %r11
Ltmp1808:
	.loc	16 0 0 is_stmt 0
	movl	%eax, %esi
	andl	$31, %esi
Ltmp1809:
	.loc	16 530 8 is_stmt 1
	cmpb	$-33, %al
	.loc	16 530 5 is_stmt 0
	jbe	LBB47_180
Ltmp1810:
LBB47_175:
	.loc	16 0 5
	movq	%r14, %r12
Ltmp1811:
	.loc	24 3179 9 is_stmt 1
	cmpq	%r10, %r11
	.loc	24 3303 21
	je	LBB47_181
Ltmp1812:
	.loc	16 508 15
	movzbl	(%r11), %r14d
Ltmp1813:
	.loc	23 152 9
	incq	%r11
Ltmp1814:
	.loc	16 507 5
	andl	$63, %r14d
Ltmp1815:
	.loc	16 0 0 is_stmt 0
	movq	%r11, %rbx
Ltmp1816:
	.loc	16 495 5 is_stmt 1
	shll	$6, %ecx
	orl	%r14d, %ecx
Ltmp1817:
	.loc	16 536 12
	cmpb	$-16, %al
	.loc	16 536 9 is_stmt 0
	jb	LBB47_182
Ltmp1818:
LBB47_177:
	.loc	24 3179 9 is_stmt 1
	cmpq	%r10, %r11
	.loc	24 3303 21
	je	LBB47_183
Ltmp1819:
	.loc	16 508 15
	movzbl	(%r11), %eax
Ltmp1820:
	.loc	23 152 9
	incq	%r11
Ltmp1821:
	.loc	16 507 5
	andl	$63, %eax
Ltmp1822:
	.loc	16 0 0 is_stmt 0
	movq	%r11, %rbx
	jmp	LBB47_184
Ltmp1823:
LBB47_179:
	xorl	%ecx, %ecx
	movq	%r10, %r11
Ltmp1824:
	movl	%eax, %esi
	andl	$31, %esi
Ltmp1825:
	.loc	16 530 8 is_stmt 1
	cmpb	$-33, %al
	.loc	16 530 5 is_stmt 0
	ja	LBB47_175
Ltmp1826:
LBB47_180:
	.loc	16 0 5
	shll	$6, %esi
Ltmp1827:
	orl	%esi, %ecx
Ltmp1828:
	movl	%ecx, %eax
Ltmp1829:
	.loc	31 254 21 is_stmt 1
	cmpl	$32, %eax
	jne	LBB47_186
	jmp	LBB47_301
Ltmp1830:
LBB47_181:
	.loc	31 0 21 is_stmt 0
	xorl	%r14d, %r14d
	movq	%r10, %r11
Ltmp1831:
	.loc	16 495 5 is_stmt 1
	shll	$6, %ecx
	orl	%r14d, %ecx
Ltmp1832:
	.loc	16 536 12
	cmpb	$-16, %al
	.loc	16 536 9 is_stmt 0
	jae	LBB47_177
Ltmp1833:
LBB47_182:
	.loc	16 0 9
	shll	$12, %esi
Ltmp1834:
	orl	%esi, %ecx
Ltmp1835:
	movl	%ecx, %eax
Ltmp1836:
	movq	%r12, %r14
	.loc	31 254 21 is_stmt 1
	cmpl	$32, %eax
	jne	LBB47_186
	jmp	LBB47_301
Ltmp1837:
LBB47_183:
	.loc	31 0 21 is_stmt 0
	xorl	%eax, %eax
Ltmp1838:
LBB47_184:
	movq	%r12, %r14
Ltmp1839:
	.loc	16 540 18 is_stmt 1
	andl	$7, %esi
Ltmp1840:
	shll	$18, %esi
Ltmp1841:
	.loc	16 495 5
	shll	$6, %ecx
Ltmp1842:
	orl	%esi, %ecx
Ltmp1843:
	.loc	16 540 13
	orl	%eax, %ecx
Ltmp1844:
	.loc	16 0 13 is_stmt 0
	movl	%ecx, %eax
Ltmp1845:
	.loc	16 693 13 is_stmt 1
	cmpl	$1114112, %ecx
Ltmp1846:
	jne	LBB47_185
Ltmp1847:
LBB47_187:
	.loc	31 260 17
	leaq	l___unnamed_64(%rip), %rax
	movq	%rax, (%r14)
	movq	$0, 8(%r14)
	.loc	31 0 0 is_stmt 0
	movl	$15, (%r15)
	jmp	LBB47_504
Ltmp1848:
LBB47_188:
	leaq	-72(%rbp), %r12
	.loc	31 90 13 is_stmt 1
	movq	%r12, %rdi
	movq	%r14, %rsi
	movl	$97, %edx
Ltmp1849:
	movq	%r13, %rcx
	callq	__ZN4time5parse10parse_type17h60011e472063ce47E
Ltmp1850:
	.loc	21 729 13
	movl	-72(%rbp), %eax
Ltmp1851:
	cmpl	$15, %eax
	jne	LBB47_291
Ltmp1852:
	.loc	31 384 11
	movq	8(%r14), %rcx
Ltmp1853:
	.loc	31 0 11 is_stmt 0
	movl	$10, %eax
Ltmp1854:
	.loc	24 3179 9 is_stmt 1
	testq	%rcx, %rcx
	.loc	24 3303 21
	je	LBB47_300
Ltmp1855:
	.loc	31 0 0 is_stmt 0
	movq	(%r14), %rdx
Ltmp1856:
	.loc	16 519 13 is_stmt 1
	movzbl	(%rdx), %esi
Ltmp1857:
	.loc	16 520 8
	testb	%sil, %sil
	.loc	16 520 5 is_stmt 0
	jns	LBB47_510
Ltmp1858:
	.loc	31 0 0
	leaq	(%rdx,%rcx), %r8
Ltmp1859:
	xorl	%edi, %edi
Ltmp1860:
	movq	%r8, %r9
Ltmp1861:
	.loc	24 3179 9 is_stmt 1
	cmpq	$1, %rcx
	.loc	24 3303 21
	je	LBB47_193
Ltmp1862:
	.loc	23 152 9
	leaq	2(%rdx), %r9
Ltmp1863:
	.loc	16 508 15
	movzbl	1(%rdx), %edi
	.loc	16 507 5
	andl	$63, %edi
Ltmp1864:
LBB47_193:
	.loc	16 0 0 is_stmt 0
	movl	%esi, %ebx
	andl	$31, %ebx
Ltmp1865:
	.loc	16 530 8 is_stmt 1
	cmpb	$-33, %sil
	.loc	16 530 5 is_stmt 0
	jbe	LBB47_321
Ltmp1866:
	.loc	24 3179 9 is_stmt 1
	cmpq	%r8, %r9
	.loc	24 3303 21
	je	LBB47_505
Ltmp1867:
	.loc	16 508 15
	movzbl	(%r9), %r10d
Ltmp1868:
	.loc	23 152 9
	incq	%r9
Ltmp1869:
	.loc	16 507 5
	andl	$63, %r10d
Ltmp1870:
	.loc	16 495 5
	shll	$6, %edi
	orl	%r10d, %edi
Ltmp1871:
	.loc	16 536 12
	cmpb	$-16, %sil
	.loc	16 536 9 is_stmt 0
	jb	LBB47_508
Ltmp1872:
LBB47_506:
	.loc	24 3179 9 is_stmt 1
	cmpq	%r8, %r9
	.loc	24 3303 21
	je	LBB47_570
Ltmp1873:
	.loc	16 508 15
	movzbl	(%r9), %esi
Ltmp1874:
	.loc	16 507 5
	andl	$63, %esi
	jmp	LBB47_571
Ltmp1875:
LBB47_196:
	.loc	31 376 18
	movups	(%r14), %xmm0
Ltmp1876:
	.loc	31 0 18 is_stmt 0
	movaps	%xmm0, -208(%rbp)
Ltmp1877:
	.loc	31 319 11 is_stmt 1
	movl	$1, %esi
	movl	$2, %edx
Ltmp1878:
	movq	%r14, %rdi
	xorl	%ecx, %ecx
	callq	__ZN4time5parse16match_digits_i6417hb424fd3ff42a455cE
	.loc	31 320 9
	testq	%rax, %rax
Ltmp1879:
	.loc	31 378 9
	je	LBB47_292
Ltmp1880:
	.loc	31 0 0 is_stmt 0
	decl	%edx
Ltmp1881:
	.loc	31 378 9
	cmpl	$12, %edx
	jae	LBB47_292
Ltmp1882:
	.loc	31 164 30 is_stmt 1
	movl	%edx, 16(%r13)
Ltmp1883:
	.loc	31 0 0 is_stmt 0
	movl	$15, (%r15)
	jmp	LBB47_504
Ltmp1884:
LBB47_199:
	.loc	31 376 18 is_stmt 1
	movups	(%r14), %xmm0
Ltmp1885:
	.loc	31 0 18 is_stmt 0
	movaps	%xmm0, -208(%rbp)
Ltmp1886:
	.loc	31 319 11 is_stmt 1
	movl	$1, %esi
	movl	$2, %edx
Ltmp1887:
	movq	%r14, %rdi
	movl	$1, %ecx
Ltmp1888:
	.loc	31 0 0 is_stmt 0
	callq	__ZN4time5parse16match_digits_i6417hb424fd3ff42a455cE
	testq	%rax, %rax
	je	LBB47_202
Ltmp1889:
LBB47_200:
	leal	-1(%rdx), %eax
	cmpl	$12, %eax
	jae	LBB47_202
Ltmp1890:
	xorl	%eax, %eax
	cmpl	$12, %edx
	cmovnel	%edx, %eax
	movl	%eax, 8(%r13)
	movl	$15, (%r15)
	jmp	LBB47_504
Ltmp1891:
LBB47_202:
	movaps	-208(%rbp), %xmm0
	movups	%xmm0, (%r14)
	movl	$2, (%r15)
	jmp	LBB47_504
Ltmp1892:
LBB47_203:
	.loc	31 376 18 is_stmt 1
	movups	(%r14), %xmm0
Ltmp1893:
	.loc	31 0 18 is_stmt 0
	movaps	%xmm0, -208(%rbp)
Ltmp1894:
	.loc	31 319 11 is_stmt 1
	movl	$1, %esi
	movl	$1, %edx
Ltmp1895:
	movq	%r14, %rdi
	xorl	%ecx, %ecx
	callq	__ZN4time5parse16match_digits_i6417hb424fd3ff42a455cE
	.loc	31 320 9
	testq	%rax, %rax
Ltmp1896:
	.loc	31 378 9
	je	LBB47_206
Ltmp1897:
	cmpl	$7, %edx
	jae	LBB47_206
Ltmp1898:
	.loc	31 231 30
	movl	%edx, 24(%r13)
Ltmp1899:
	.loc	31 0 0 is_stmt 0
	movl	$15, (%r15)
	jmp	LBB47_504
Ltmp1900:
LBB47_206:
	movaps	-208(%rbp), %xmm0
	movups	%xmm0, (%r14)
	movl	$6, (%r15)
	jmp	LBB47_504
Ltmp1901:
LBB47_207:
	.loc	31 384 11 is_stmt 1
	movq	8(%r14), %rax
Ltmp1902:
	.loc	24 3179 9
	testq	%rax, %rax
	.loc	24 3303 21
	je	LBB47_531
Ltmp1903:
	.loc	31 0 0 is_stmt 0
	movq	(%r14), %rcx
Ltmp1904:
	.loc	16 519 13 is_stmt 1
	movzbl	(%rcx), %esi
Ltmp1905:
	.loc	16 520 8
	testb	%sil, %sil
	.loc	16 520 5 is_stmt 0
	jns	LBB47_385
Ltmp1906:
	.loc	31 0 0
	leaq	(%rcx,%rax), %r8
Ltmp1907:
	xorl	%edx, %edx
Ltmp1908:
	movq	%r8, %rbx
Ltmp1909:
	.loc	24 3179 9 is_stmt 1
	cmpq	$1, %rax
	.loc	24 3303 21
	je	LBB47_211
Ltmp1910:
	.loc	23 152 9
	leaq	2(%rcx), %rbx
Ltmp1911:
	.loc	16 508 15
	movzbl	1(%rcx), %edx
	.loc	16 507 5
	andl	$63, %edx
Ltmp1912:
LBB47_211:
	.loc	16 0 0 is_stmt 0
	movl	%esi, %edi
	andl	$31, %edi
Ltmp1913:
	.loc	16 530 8 is_stmt 1
	cmpb	$-33, %sil
	.loc	16 530 5 is_stmt 0
	jbe	LBB47_311
Ltmp1914:
	.loc	24 3179 9 is_stmt 1
	cmpq	%r8, %rbx
	.loc	24 3303 21
	je	LBB47_380
Ltmp1915:
	.loc	16 508 15
	movzbl	(%rbx), %r9d
Ltmp1916:
	.loc	23 152 9
	incq	%rbx
Ltmp1917:
	.loc	16 507 5
	andl	$63, %r9d
Ltmp1918:
	.loc	16 495 5
	shll	$6, %edx
	orl	%r9d, %edx
Ltmp1919:
	.loc	16 536 12
	cmpb	$-16, %sil
	.loc	16 536 9 is_stmt 0
	jb	LBB47_383
Ltmp1920:
LBB47_381:
	.loc	24 3179 9 is_stmt 1
	cmpq	%r8, %rbx
	.loc	24 3303 21
	je	LBB47_529
Ltmp1921:
	.loc	16 508 15
	movzbl	(%rbx), %esi
Ltmp1922:
	.loc	16 507 5
	andl	$63, %esi
	jmp	LBB47_530
Ltmp1923:
LBB47_214:
	.loc	31 295 15
	movl	$13, (%r15)
	movl	%edx, 4(%r15)
	jmp	LBB47_504
Ltmp1924:
LBB47_223:
	.loc	31 0 0 is_stmt 0
	movq	(%r14), %rcx
Ltmp1925:
	leaq	l___unnamed_145(%rip), %rdx
Ltmp1926:
	.loc	24 5863 12 is_stmt 1
	leaq	l___unnamed_48(%rip), %rsi
Ltmp1927:
	cmpq	%rsi, %rcx
	.loc	24 5863 9 is_stmt 0
	je	LBB47_227
Ltmp1928:
	.loc	24 5868 13 is_stmt 1
	movzwl	(%rcx), %esi
Ltmp1929:
	cmpl	$19777, %esi
Ltmp1930:
	.loc	24 1430 9
	je	LBB47_227
Ltmp1931:
	.loc	24 0 9 is_stmt 0
	leaq	l___unnamed_145+24(%rip), %rdx
Ltmp1932:
	.loc	24 5863 12 is_stmt 1
	leaq	l___unnamed_49(%rip), %rsi
Ltmp1933:
	cmpq	%rsi, %rcx
	.loc	24 5863 9 is_stmt 0
	je	LBB47_227
Ltmp1934:
	.loc	24 5868 13 is_stmt 1
	movzwl	(%rcx), %esi
Ltmp1935:
	cmpl	$19792, %esi
Ltmp1936:
	.loc	24 1430 9
	jne	LBB47_86
Ltmp1937:
LBB47_227:
	.loc	31 310 19
	movl	16(%rdx), %edx
Ltmp1938:
	.loc	31 0 19 is_stmt 0
	movq	%rcx, -192(%rbp)
	movq	%rax, -184(%rbp)
Ltmp1939:
	.loc	16 2051 18 is_stmt 1
	movq	$2, -56(%rbp)
	.loc	16 2051 25 is_stmt 0
	movq	%rax, -72(%rbp)
Ltmp1940:
	.loc	16 2303 26 is_stmt 1
	cmpq	$2, %rax
	.loc	16 2303 12 is_stmt 0
	je	LBB47_229
Ltmp1941:
	.loc	16 2309 25 is_stmt 1
	cmpb	$-65, 2(%rcx)
Ltmp1942:
	.loc	16 2021 13
	jle	LBB47_744
Ltmp1943:
LBB47_229:
	.loc	32 158 9
	addq	$2, %rcx
Ltmp1944:
	.loc	16 2040 23
	addq	$-2, %rax
Ltmp1945:
	.loc	31 302 9
	movq	%rcx, (%r14)
	movq	%rax, 8(%r14)
Ltmp1946:
	.loc	31 174 26
	addl	8(%r13), %edx
	jo	LBB47_751
Ltmp1947:
LBB47_230:
	.loc	31 0 0 is_stmt 0
	movl	%edx, 8(%r13)
	movl	$15, (%r15)
	jmp	LBB47_504
Ltmp1948:
LBB47_231:
	movaps	-208(%rbp), %xmm0
Ltmp1949:
	.loc	31 379 16 is_stmt 1
	movups	%xmm0, (%r14)
Ltmp1950:
	.loc	31 203 25
	movl	$0, (%r15)
	jmp	LBB47_504
Ltmp1951:
LBB47_232:
	.loc	31 0 25 is_stmt 0
	movaps	-208(%rbp), %xmm0
Ltmp1952:
	.loc	31 379 16 is_stmt 1
	movups	%xmm0, (%r14)
Ltmp1953:
	.loc	31 141 25
	movl	$8, (%r15)
	jmp	LBB47_504
Ltmp1954:
LBB47_233:
	.loc	21 730 27
	movl	-68(%rbp), %ebx
Ltmp1955:
	movl	-64(%rbp), %esi
Ltmp1956:
LBB47_234:
	.loc	21 730 23 is_stmt 0
	movl	%edx, (%r15)
	jmp	LBB47_502
Ltmp1957:
LBB47_235:
	.loc	21 0 23
	movl	$7, %edx
Ltmp1958:
	leaq	l___unnamed_146(%rip), %rsi
Ltmp1959:
	.loc	24 5863 12 is_stmt 1
	leaq	l___unnamed_57(%rip), %rdi
Ltmp1960:
	cmpq	%rdi, %rax
	.loc	24 5863 9 is_stmt 0
	je	LBB47_405
Ltmp1961:
	.loc	24 0 9
	movl	$1970168138, %edi
Ltmp1962:
	.loc	24 5868 13 is_stmt 1
	xorl	(%rax), %edi
	movl	$2037539189, %ebx
	xorl	3(%rax), %ebx
	orl	%edi, %ebx
Ltmp1963:
	.loc	24 1430 9
	je	LBB47_405
Ltmp1964:
	cmpq	$8, %rcx
	setb	%r8b
Ltmp1965:
	jb	LBB47_240
Ltmp1966:
	.loc	24 0 9 is_stmt 0
	movl	$8, %edx
	leaq	l___unnamed_146+24(%rip), %rsi
Ltmp1967:
	.loc	24 5863 12 is_stmt 1
	leaq	L___unnamed_58(%rip), %rdi
Ltmp1968:
	cmpq	%rdi, %rax
	.loc	24 5863 9 is_stmt 0
	je	LBB47_405
Ltmp1969:
	.loc	24 0 9
	movabsq	$8751164182992414022, %rdi
Ltmp1970:
	.loc	24 5868 13 is_stmt 1
	cmpq	%rdi, (%rax)
Ltmp1971:
	.loc	24 1430 9
	je	LBB47_405
Ltmp1972:
LBB47_240:
	.loc	24 0 9 is_stmt 0
	movl	$5, %edx
	leaq	l___unnamed_146+48(%rip), %rsi
Ltmp1973:
	.loc	24 5863 12 is_stmt 1
	leaq	l___unnamed_88(%rip), %rdi
Ltmp1974:
	cmpq	%rdi, %rax
	.loc	24 5863 9 is_stmt 0
	je	LBB47_405
Ltmp1975:
	.loc	24 0 9
	movl	$1668440397, %edi
Ltmp1976:
	.loc	24 5868 13 is_stmt 1
	xorl	(%rax), %edi
	movzbl	4(%rax), %ebx
	xorl	$104, %ebx
	orl	%edi, %ebx
Ltmp1977:
	.loc	24 1430 9
	je	LBB47_405
Ltmp1978:
	.loc	24 0 9 is_stmt 0
	leaq	l___unnamed_146+72(%rip), %rsi
Ltmp1979:
	.loc	24 5863 12 is_stmt 1
	leaq	l___unnamed_89(%rip), %rdi
Ltmp1980:
	cmpq	%rdi, %rax
	.loc	24 5863 9 is_stmt 0
	je	LBB47_405
Ltmp1981:
	.loc	24 0 9
	movl	$1769107521, %edi
Ltmp1982:
	.loc	24 5868 13 is_stmt 1
	xorl	(%rax), %edi
	movzbl	4(%rax), %ebx
	xorl	$108, %ebx
	orl	%edi, %ebx
Ltmp1983:
	.loc	24 1430 9
	je	LBB47_405
Ltmp1984:
LBB47_244:
	.loc	24 0 9 is_stmt 0
	movl	$3, %edx
	leaq	l___unnamed_146+96(%rip), %rsi
Ltmp1985:
	.loc	24 5863 12 is_stmt 1
	leaq	l___unnamed_66(%rip), %rdi
Ltmp1986:
	cmpq	%rdi, %rax
	.loc	24 5863 9 is_stmt 0
	je	LBB47_405
Ltmp1987:
	.loc	24 5868 13 is_stmt 1
	movzwl	(%rax), %edi
Ltmp1988:
	xorl	$24909, %edi
	movzbl	2(%rax), %ebx
	xorl	$121, %ebx
	orw	%di, %bx
Ltmp1989:
	.loc	24 1430 9
	je	LBB47_405
Ltmp1990:
	cmpq	$4, %rcx
Ltmp1991:
	jae	LBB47_395
Ltmp1992:
LBB47_247:
	cmpq	$7, %rcx
Ltmp1993:
	jb	LBB47_250
Ltmp1994:
	.loc	24 0 9 is_stmt 0
	movl	$7, %edx
	leaq	l___unnamed_146+216(%rip), %rsi
Ltmp1995:
	.loc	24 5863 12 is_stmt 1
	leaq	l___unnamed_87(%rip), %rdi
Ltmp1996:
	cmpq	%rdi, %rax
	.loc	24 5863 9 is_stmt 0
	je	LBB47_405
Ltmp1997:
	.loc	24 0 9
	movl	$1869898575, %edi
Ltmp1998:
	.loc	24 5868 13 is_stmt 1
	xorl	(%rax), %edi
	movl	$1919246959, %ebx
	xorl	3(%rax), %ebx
	orl	%edi, %ebx
Ltmp1999:
	.loc	24 1430 9
	je	LBB47_405
Ltmp2000:
LBB47_250:
	testb	%r8b, %r8b
Ltmp2001:
	jne	LBB47_109
Ltmp2002:
	.loc	24 0 9 is_stmt 0
	movl	$8, %edx
	leaq	l___unnamed_146+240(%rip), %rsi
Ltmp2003:
	.loc	24 5863 12 is_stmt 1
	leaq	L___unnamed_94(%rip), %rdi
Ltmp2004:
	cmpq	%rdi, %rax
	.loc	24 5863 9 is_stmt 0
	je	LBB47_405
Ltmp2005:
	.loc	24 0 9
	movabsq	$8243102914963531076, %rdi
Ltmp2006:
	.loc	24 5868 13 is_stmt 1
	leaq	1247754(%rdi), %rbx
	cmpq	(%rax), %rbx
Ltmp2007:
	.loc	24 1430 9
	je	LBB47_405
Ltmp2008:
	.loc	24 0 9 is_stmt 0
	leaq	l___unnamed_146+264(%rip), %rsi
Ltmp2009:
	.loc	24 5863 12 is_stmt 1
	leaq	L___unnamed_86(%rip), %rbx
Ltmp2010:
	cmpq	%rbx, %rax
	.loc	24 5863 9 is_stmt 0
	je	LBB47_405
Ltmp2011:
	.loc	24 5868 13 is_stmt 1
	cmpq	(%rax), %rdi
Ltmp2012:
	.loc	24 1430 9
	jne	LBB47_109
	jmp	LBB47_405
Ltmp2013:
LBB47_255:
	.loc	21 730 27
	movl	-68(%rbp), %ebx
Ltmp2014:
	movl	-64(%rbp), %esi
Ltmp2015:
	.loc	21 0 27 is_stmt 0
	jmp	LBB47_442
Ltmp2016:
LBB47_266:
	movq	(%r14), %rcx
Ltmp2017:
	leaq	l___unnamed_147(%rip), %rdx
Ltmp2018:
	.loc	24 5863 12 is_stmt 1
	leaq	l___unnamed_46(%rip), %rsi
Ltmp2019:
	cmpq	%rsi, %rcx
	.loc	24 5863 9 is_stmt 0
	je	LBB47_280
Ltmp2020:
	.loc	24 5868 13 is_stmt 1
	movzwl	(%rcx), %esi
Ltmp2021:
	xorl	$30035, %esi
	movzbl	2(%rcx), %edi
	xorl	$110, %edi
	orw	%si, %di
Ltmp2022:
	.loc	24 1430 9
	je	LBB47_280
Ltmp2023:
	.loc	24 0 9 is_stmt 0
	leaq	l___unnamed_147+24(%rip), %rdx
Ltmp2024:
	.loc	24 5863 12 is_stmt 1
	leaq	l___unnamed_47(%rip), %rsi
Ltmp2025:
	cmpq	%rsi, %rcx
	.loc	24 5863 9 is_stmt 0
	je	LBB47_280
Ltmp2026:
	.loc	24 5868 13 is_stmt 1
	movzwl	(%rcx), %esi
Ltmp2027:
	xorl	$28493, %esi
	movzbl	2(%rcx), %edi
	xorl	$110, %edi
	orw	%si, %di
Ltmp2028:
	.loc	24 1430 9
	je	LBB47_280
Ltmp2029:
	.loc	24 0 9 is_stmt 0
	leaq	l___unnamed_147+48(%rip), %rdx
Ltmp2030:
	.loc	24 5863 12 is_stmt 1
	leaq	l___unnamed_77(%rip), %rsi
Ltmp2031:
	cmpq	%rsi, %rcx
	.loc	24 5863 9 is_stmt 0
	je	LBB47_280
Ltmp2032:
	.loc	24 5868 13 is_stmt 1
	movzwl	(%rcx), %esi
Ltmp2033:
	xorl	$30036, %esi
	movzbl	2(%rcx), %edi
	xorl	$101, %edi
	orw	%si, %di
Ltmp2034:
	.loc	24 1430 9
	je	LBB47_280
Ltmp2035:
	.loc	24 0 9 is_stmt 0
	leaq	l___unnamed_147+72(%rip), %rdx
Ltmp2036:
	.loc	24 5863 12 is_stmt 1
	leaq	l___unnamed_78(%rip), %rsi
Ltmp2037:
	cmpq	%rsi, %rcx
	.loc	24 5863 9 is_stmt 0
	je	LBB47_280
Ltmp2038:
	.loc	24 5868 13 is_stmt 1
	movzwl	(%rcx), %esi
Ltmp2039:
	xorl	$25943, %esi
	movzbl	2(%rcx), %edi
	xorl	$100, %edi
	orw	%si, %di
Ltmp2040:
	.loc	24 1430 9
	je	LBB47_280
Ltmp2041:
	.loc	24 0 9 is_stmt 0
	leaq	l___unnamed_147+96(%rip), %rdx
Ltmp2042:
	.loc	24 5863 12 is_stmt 1
	leaq	l___unnamed_76(%rip), %rsi
Ltmp2043:
	cmpq	%rsi, %rcx
	.loc	24 5863 9 is_stmt 0
	je	LBB47_280
Ltmp2044:
	.loc	24 5868 13 is_stmt 1
	movzwl	(%rcx), %esi
Ltmp2045:
	xorl	$26708, %esi
	movzbl	2(%rcx), %edi
	xorl	$117, %edi
	orw	%si, %di
Ltmp2046:
	.loc	24 1430 9
	je	LBB47_280
Ltmp2047:
	.loc	24 0 9 is_stmt 0
	leaq	l___unnamed_147+120(%rip), %rdx
Ltmp2048:
	.loc	24 5863 12 is_stmt 1
	leaq	l___unnamed_79(%rip), %rsi
Ltmp2049:
	cmpq	%rsi, %rcx
	.loc	24 5863 9 is_stmt 0
	je	LBB47_280
Ltmp2050:
	.loc	24 5868 13 is_stmt 1
	movzwl	(%rcx), %esi
Ltmp2051:
	xorl	$29254, %esi
	movzbl	2(%rcx), %edi
	xorl	$105, %edi
	orw	%si, %di
Ltmp2052:
	.loc	24 1430 9
	je	LBB47_280
Ltmp2053:
	.loc	24 0 9 is_stmt 0
	leaq	l___unnamed_147+144(%rip), %rdx
Ltmp2054:
	.loc	24 5863 12 is_stmt 1
	leaq	l___unnamed_80(%rip), %rsi
Ltmp2055:
	cmpq	%rsi, %rcx
	.loc	24 5863 9 is_stmt 0
	je	LBB47_280
Ltmp2056:
	.loc	24 5868 13 is_stmt 1
	movzwl	(%rcx), %esi
Ltmp2057:
	xorl	$24915, %esi
	movzbl	2(%rcx), %edi
	xorl	$116, %edi
	orw	%si, %di
Ltmp2058:
	.loc	24 1430 9
	jne	LBB47_136
Ltmp2059:
LBB47_280:
	.loc	31 310 19
	movl	16(%rdx), %edx
Ltmp2060:
	.loc	31 0 19 is_stmt 0
	movq	%rcx, -192(%rbp)
	movq	%rax, -184(%rbp)
Ltmp2061:
	.loc	16 2051 18 is_stmt 1
	movq	$3, -56(%rbp)
	.loc	16 2051 25 is_stmt 0
	movq	%rax, -72(%rbp)
Ltmp2062:
	.loc	16 2303 26 is_stmt 1
	cmpq	$3, %rax
	.loc	16 2303 12 is_stmt 0
	je	LBB47_282
Ltmp2063:
	.loc	16 2309 25 is_stmt 1
	cmpb	$-65, 3(%rcx)
Ltmp2064:
	.loc	16 2021 13
	jle	LBB47_744
Ltmp2065:
LBB47_282:
	.loc	32 158 9
	addq	$3, %rcx
Ltmp2066:
	.loc	16 2040 23
	addq	$-3, %rax
Ltmp2067:
	.loc	31 302 9
	movq	%rcx, (%r14)
	movq	%rax, 8(%r14)
Ltmp2068:
	.loc	31 52 26
	movl	%edx, 24(%r13)
Ltmp2069:
	.loc	31 0 0 is_stmt 0
	movl	$15, (%r15)
	jmp	LBB47_504
Ltmp2070:
LBB47_283:
	movaps	-208(%rbp), %xmm0
Ltmp2071:
	.loc	31 379 16 is_stmt 1
	movups	%xmm0, (%r14)
Ltmp2072:
	.loc	31 159 25
	movl	$1, (%r15)
	jmp	LBB47_504
Ltmp2073:
LBB47_284:
	.loc	24 5863 12
	leaq	l___unnamed_63(%rip), %rax
Ltmp2074:
	cmpq	%rax, %r9
	.loc	24 5863 9 is_stmt 0
	je	LBB47_288
Ltmp2075:
	.loc	24 5868 13 is_stmt 1
	movzwl	(%r9), %eax
Ltmp2076:
	xorl	$21589, %eax
	movzbl	2(%r9), %ecx
	xorl	$67, %ecx
	orw	%ax, %cx
Ltmp2077:
	.loc	24 1430 9
	je	LBB47_288
Ltmp2078:
	.loc	24 5863 12
	leaq	l___unnamed_148(%rip), %rax
Ltmp2079:
	cmpq	%rax, %r9
Ltmp2080:
	.loc	24 5863 9 is_stmt 0
	je	LBB47_288
Ltmp2081:
	.loc	24 5868 13 is_stmt 1
	movzwl	(%r9), %eax
Ltmp2082:
	xorl	$19783, %eax
	movzbl	2(%r9), %ecx
	xorl	$84, %ecx
	orw	%ax, %cx
Ltmp2083:
	.loc	24 1430 9
	jne	LBB47_170
Ltmp2084:
LBB47_288:
	.loc	24 0 9 is_stmt 0
	movq	%r9, -192(%rbp)
	movq	%r8, -184(%rbp)
Ltmp2085:
	movq	$3, -56(%rbp)
	movq	%r8, -72(%rbp)
Ltmp2086:
	cmpq	$3, %r8
	je	LBB47_290
Ltmp2087:
	cmpb	$-65, 3(%r9)
	jle	LBB47_744
Ltmp2088:
LBB47_290:
	addq	$3, %r9
	movq	%r9, (%r14)
	addq	$-3, %r8
	movq	%r8, 8(%r14)
	jmp	LBB47_379
Ltmp2089:
LBB47_291:
	.loc	21 730 27 is_stmt 1
	movl	-68(%rbp), %ebx
Ltmp2090:
	movl	-64(%rbp), %esi
Ltmp2091:
	.loc	21 0 27 is_stmt 0
	jmp	LBB47_522
Ltmp2092:
LBB47_292:
	movaps	-208(%rbp), %xmm0
Ltmp2093:
	.loc	31 379 16 is_stmt 1
	movups	%xmm0, (%r14)
Ltmp2094:
	.loc	31 165 25
	movl	$4, (%r15)
	jmp	LBB47_504
Ltmp2095:
LBB47_293:
	.loc	31 0 25 is_stmt 0
	xorl	%eax, %eax
Ltmp2096:
LBB47_294:
	movq	-240(%rbp), %rcx
	.loc	31 116 13 is_stmt 1
	movl	%eax, 40(%rcx)
	movq	-208(%rbp), %rax
Ltmp2097:
	.loc	31 117 13
	movl	$15, (%rax)
	jmp	LBB47_504
Ltmp2098:
LBB47_295:
	.loc	31 197 25
	movl	$11, (%r15)
	jmp	LBB47_504
Ltmp2099:
LBB47_296:
	.loc	31 238 25
	movl	$5, (%r15)
	jmp	LBB47_504
Ltmp2100:
LBB47_297:
	.loc	21 730 23
	movl	%edx, (%r15)
	jmp	LBB47_502
Ltmp2101:
LBB47_298:
	.loc	21 0 23 is_stmt 0
	jmp	LBB47_442
Ltmp2102:
LBB47_300:
	jmp	LBB47_522
Ltmp2103:
LBB47_301:
	movq	%r9, -192(%rbp)
	movq	%r8, -184(%rbp)
Ltmp2104:
	.loc	16 2051 18 is_stmt 1
	movq	%rdx, -56(%rbp)
	.loc	16 2051 25 is_stmt 0
	movq	%r8, -72(%rbp)
Ltmp2105:
	.loc	16 2303 12 is_stmt 1
	testq	%rdx, %rdx
Ltmp2106:
	je	LBB47_305
Ltmp2107:
	cmpq	%rdx, %r8
	je	LBB47_305
Ltmp2108:
	.loc	16 2307 13
	jbe	LBB47_744
Ltmp2109:
	.loc	16 2309 25
	cmpb	$-65, (%r9,%rdx)
Ltmp2110:
	.loc	16 2021 13
	jle	LBB47_744
Ltmp2111:
LBB47_305:
	.loc	32 158 9
	addq	%rdx, %r9
Ltmp2112:
	.loc	16 2040 23
	subq	%rdx, %r8
Ltmp2113:
	.loc	31 256 25
	movq	%r9, (%r14)
	movq	%r8, 8(%r14)
Ltmp2114:
	.loc	31 0 0 is_stmt 0
	movl	$15, (%r15)
	jmp	LBB47_504
Ltmp2115:
LBB47_306:
	shll	$6, %ebx
Ltmp2116:
	jmp	LBB47_326
Ltmp2117:
LBB47_307:
	shll	$6, %ebx
Ltmp2118:
	jmp	LBB47_343
Ltmp2119:
LBB47_308:
	shll	$6, %edi
Ltmp2120:
	jmp	LBB47_360
Ltmp2121:
LBB47_309:
	shll	$6, %edi
Ltmp2122:
	jmp	LBB47_367
Ltmp2123:
LBB47_310:
	shll	$6, %edx
Ltmp2124:
	jmp	LBB47_374
Ltmp2125:
LBB47_311:
	shll	$6, %edi
Ltmp2126:
	jmp	LBB47_384
Ltmp2127:
LBB47_317:
	shll	$6, %ebx
Ltmp2128:
	jmp	LBB47_419
Ltmp2129:
LBB47_318:
	shll	$6, %ebx
Ltmp2130:
	jmp	LBB47_429
Ltmp2131:
LBB47_319:
	shll	$6, %ebx
Ltmp2132:
	jmp	LBB47_470
Ltmp2133:
LBB47_320:
	shll	$6, %ebx
Ltmp2134:
	jmp	LBB47_486
Ltmp2135:
LBB47_321:
	shll	$6, %ebx
Ltmp2136:
	jmp	LBB47_509
Ltmp2137:
LBB47_322:
	xorl	%r10d, %r10d
	movq	%r8, %r9
Ltmp2138:
	.loc	16 495 5 is_stmt 1
	shll	$6, %edi
	orl	%r10d, %edi
Ltmp2139:
	.loc	16 536 12
	cmpb	$-16, %sil
	.loc	16 536 9 is_stmt 0
	jae	LBB47_323
Ltmp2140:
LBB47_325:
	.loc	16 0 9
	shll	$12, %ebx
Ltmp2141:
LBB47_326:
	orl	%ebx, %edi
Ltmp2142:
	movl	%edi, %esi
Ltmp2143:
LBB47_327:
	.loc	31 386 16 is_stmt 1
	cmpl	$47, %esi
	.loc	31 386 13 is_stmt 0
	jne	LBB47_338
Ltmp2144:
	.loc	31 0 13
	movq	%rdx, -192(%rbp)
	incq	%rdx
Ltmp2145:
	movq	%rcx, -184(%rbp)
Ltmp2146:
	.loc	16 2051 18 is_stmt 1
	movq	$1, -224(%rbp)
	.loc	16 2051 25 is_stmt 0
	movq	%rcx, -88(%rbp)
Ltmp2147:
	.loc	16 2303 12 is_stmt 1
	cmpq	$1, %rcx
	je	LBB47_330
Ltmp2148:
	.loc	16 2309 25
	cmpb	$-65, (%rdx)
Ltmp2149:
	.loc	16 2021 13
	jle	LBB47_750
Ltmp2150:
LBB47_330:
	.loc	16 2040 23
	decq	%rcx
Ltmp2151:
	.loc	31 387 17
	movq	%rdx, (%r14)
	movq	%rcx, 8(%r14)
Ltmp2152:
	.loc	31 0 17 is_stmt 0
	leaq	-56(%rbp), %rdi
Ltmp2153:
	.loc	31 103 32 is_stmt 1
	movq	%r14, %rsi
Ltmp2154:
	movl	$100, %edx
	movq	%r13, %rcx
Ltmp2155:
	callq	__ZN4time5parse10parse_type17h60011e472063ce47E
Ltmp2156:
	.loc	21 729 13
	movl	-56(%rbp), %eax
Ltmp2157:
	cmpl	$15, %eax
	jne	LBB47_500
Ltmp2158:
	.loc	31 384 11
	movq	8(%r14), %rcx
Ltmp2159:
	.loc	31 0 11 is_stmt 0
	movl	$10, %eax
Ltmp2160:
	.loc	24 3179 9 is_stmt 1
	testq	%rcx, %rcx
	.loc	24 3303 21
	je	LBB47_642
Ltmp2161:
	.loc	31 0 0 is_stmt 0
	movq	(%r14), %rdx
Ltmp2162:
	.loc	16 519 13 is_stmt 1
	movzbl	(%rdx), %esi
Ltmp2163:
	.loc	16 520 8
	testb	%sil, %sil
	.loc	16 520 5 is_stmt 0
	jns	LBB47_587
Ltmp2164:
	.loc	31 0 0
	leaq	(%rdx,%rcx), %r8
Ltmp2165:
	xorl	%edi, %edi
Ltmp2166:
	movq	%r8, %r9
Ltmp2167:
	.loc	24 3179 9 is_stmt 1
	cmpq	$1, %rcx
	.loc	24 3303 21
	je	LBB47_335
Ltmp2168:
	.loc	23 152 9
	leaq	2(%rdx), %r9
Ltmp2169:
	.loc	16 508 15
	movzbl	1(%rdx), %edi
	.loc	16 507 5
	andl	$63, %edi
Ltmp2170:
LBB47_335:
	.loc	16 0 0 is_stmt 0
	movl	%esi, %ebx
	andl	$31, %ebx
Ltmp2171:
	.loc	16 530 8 is_stmt 1
	cmpb	$-33, %sil
	.loc	16 530 5 is_stmt 0
	jbe	LBB47_532
Ltmp2172:
	.loc	24 3179 9 is_stmt 1
	cmpq	%r8, %r9
	.loc	24 3303 21
	je	LBB47_582
Ltmp2173:
	.loc	16 508 15
	movzbl	(%r9), %r10d
Ltmp2174:
	.loc	23 152 9
	incq	%r9
Ltmp2175:
	.loc	16 507 5
	andl	$63, %r10d
Ltmp2176:
	.loc	16 495 5
	shll	$6, %edi
	orl	%r10d, %edi
Ltmp2177:
	.loc	16 536 12
	cmpb	$-16, %sil
	.loc	16 536 9 is_stmt 0
	jb	LBB47_585
Ltmp2178:
LBB47_583:
	.loc	24 3179 9 is_stmt 1
	cmpq	%r8, %r9
	.loc	24 3303 21
	je	LBB47_622
Ltmp2179:
	.loc	16 508 15
	movzbl	(%r9), %esi
Ltmp2180:
	.loc	16 507 5
	andl	$63, %esi
	jmp	LBB47_623
Ltmp2181:
LBB47_338:
	.loc	16 0 5 is_stmt 0
	movl	$14, %eax
	movl	$47, %ebx
	jmp	LBB47_499
Ltmp2182:
LBB47_339:
	xorl	%r10d, %r10d
	movq	%r8, %r9
Ltmp2183:
	.loc	16 495 5 is_stmt 1
	shll	$6, %edi
	orl	%r10d, %edi
Ltmp2184:
	.loc	16 536 12
	cmpb	$-16, %sil
	.loc	16 536 9 is_stmt 0
	jae	LBB47_340
Ltmp2185:
LBB47_342:
	.loc	16 0 9
	shll	$12, %ebx
Ltmp2186:
LBB47_343:
	orl	%ebx, %edi
Ltmp2187:
	movl	%edi, %esi
Ltmp2188:
LBB47_344:
	.loc	31 386 16 is_stmt 1
	cmpl	$58, %esi
	.loc	31 386 13 is_stmt 0
	jne	LBB47_355
Ltmp2189:
	.loc	31 0 13
	movq	%rdx, -192(%rbp)
	incq	%rdx
Ltmp2190:
	movq	%rcx, -184(%rbp)
Ltmp2191:
	.loc	16 2051 18 is_stmt 1
	movq	$1, -224(%rbp)
	.loc	16 2051 25 is_stmt 0
	movq	%rcx, -88(%rbp)
Ltmp2192:
	.loc	16 2303 12 is_stmt 1
	cmpq	$1, %rcx
	je	LBB47_347
Ltmp2193:
	.loc	16 2309 25
	cmpb	$-65, (%rdx)
Ltmp2194:
	.loc	16 2021 13
	jle	LBB47_750
Ltmp2195:
LBB47_347:
	.loc	16 2040 23
	decq	%rcx
Ltmp2196:
	.loc	31 387 17
	movq	%rdx, (%r14)
	movq	%rcx, 8(%r14)
Ltmp2197:
	.loc	31 0 17 is_stmt 0
	leaq	-56(%rbp), %rdi
Ltmp2198:
	.loc	31 210 32 is_stmt 1
	movq	%r14, %rsi
Ltmp2199:
	movl	$77, %edx
	movq	%r13, %rcx
Ltmp2200:
	callq	__ZN4time5parse10parse_type17h60011e472063ce47E
Ltmp2201:
	.loc	21 729 13
	movl	-56(%rbp), %eax
Ltmp2202:
	cmpl	$15, %eax
	jne	LBB47_500
Ltmp2203:
	.loc	31 384 11
	movq	8(%r14), %rcx
Ltmp2204:
	.loc	31 0 11 is_stmt 0
	movl	$10, %eax
Ltmp2205:
	.loc	24 3179 9 is_stmt 1
	testq	%rcx, %rcx
	.loc	24 3303 21
	je	LBB47_642
Ltmp2206:
	.loc	31 0 0 is_stmt 0
	movq	(%r14), %rdx
Ltmp2207:
	.loc	16 519 13 is_stmt 1
	movzbl	(%rdx), %esi
Ltmp2208:
	.loc	16 520 8
	testb	%sil, %sil
	.loc	16 520 5 is_stmt 0
	jns	LBB47_597
Ltmp2209:
	.loc	31 0 0
	leaq	(%rdx,%rcx), %r8
Ltmp2210:
	xorl	%edi, %edi
Ltmp2211:
	movq	%r8, %r9
Ltmp2212:
	.loc	24 3179 9 is_stmt 1
	cmpq	$1, %rcx
	.loc	24 3303 21
	je	LBB47_352
Ltmp2213:
	.loc	23 152 9
	leaq	2(%rdx), %r9
Ltmp2214:
	.loc	16 508 15
	movzbl	1(%rdx), %edi
	.loc	16 507 5
	andl	$63, %edi
Ltmp2215:
LBB47_352:
	.loc	16 0 0 is_stmt 0
	movl	%esi, %ebx
	andl	$31, %ebx
Ltmp2216:
	.loc	16 530 8 is_stmt 1
	cmpb	$-33, %sil
	.loc	16 530 5 is_stmt 0
	jbe	LBB47_533
Ltmp2217:
	.loc	24 3179 9 is_stmt 1
	cmpq	%r8, %r9
	.loc	24 3303 21
	je	LBB47_592
Ltmp2218:
	.loc	16 508 15
	movzbl	(%r9), %r10d
Ltmp2219:
	.loc	23 152 9
	incq	%r9
Ltmp2220:
	.loc	16 507 5
	andl	$63, %r10d
Ltmp2221:
	.loc	16 495 5
	shll	$6, %edi
	orl	%r10d, %edi
Ltmp2222:
	.loc	16 536 12
	cmpb	$-16, %sil
	.loc	16 536 9 is_stmt 0
	jb	LBB47_595
Ltmp2223:
LBB47_593:
	.loc	24 3179 9 is_stmt 1
	cmpq	%r8, %r9
	.loc	24 3303 21
	je	LBB47_624
Ltmp2224:
	.loc	16 508 15
	movzbl	(%r9), %esi
Ltmp2225:
	.loc	16 507 5
	andl	$63, %esi
	jmp	LBB47_625
Ltmp2226:
LBB47_355:
	.loc	16 0 5 is_stmt 0
	movl	$14, %eax
	movl	$58, %ebx
	jmp	LBB47_499
Ltmp2227:
LBB47_356:
	xorl	%r9d, %r9d
	movq	%r8, %rbx
Ltmp2228:
	.loc	16 495 5 is_stmt 1
	shll	$6, %edx
	orl	%r9d, %edx
Ltmp2229:
	.loc	16 536 12
	cmpb	$-16, %sil
	.loc	16 536 9 is_stmt 0
	jae	LBB47_357
Ltmp2230:
LBB47_359:
	.loc	16 0 9
	shll	$12, %edi
Ltmp2231:
LBB47_360:
	orl	%edi, %edx
Ltmp2232:
	movl	%edx, %esi
Ltmp2233:
LBB47_361:
	.loc	31 386 16 is_stmt 1
	cmpl	$10, %esi
	.loc	31 386 13 is_stmt 0
	je	LBB47_386
Ltmp2234:
	.loc	31 0 13
	movabsq	$42949672974, %rax
	jmp	LBB47_390
Ltmp2235:
LBB47_363:
	xorl	%r9d, %r9d
	movq	%r8, %rbx
Ltmp2236:
	.loc	16 495 5 is_stmt 1
	shll	$6, %edx
	orl	%r9d, %edx
Ltmp2237:
	.loc	16 536 12
	cmpb	$-16, %sil
	.loc	16 536 9 is_stmt 0
	jae	LBB47_364
Ltmp2238:
LBB47_366:
	.loc	16 0 9
	shll	$12, %edi
Ltmp2239:
LBB47_367:
	orl	%edi, %edx
Ltmp2240:
	movl	%edx, %esi
Ltmp2241:
LBB47_368:
	.loc	31 386 16 is_stmt 1
	cmpl	$37, %esi
	.loc	31 386 13 is_stmt 0
	je	LBB47_386
Ltmp2242:
	.loc	31 0 13
	movabsq	$158913789966, %rax
	jmp	LBB47_390
Ltmp2243:
LBB47_370:
	xorl	%r10d, %r10d
	movq	%r8, %rsi
Ltmp2244:
	.loc	16 495 5 is_stmt 1
	shll	$6, %ebx
	orl	%r10d, %ebx
Ltmp2245:
	.loc	16 536 12
	cmpb	$-16, %dil
	.loc	16 536 9 is_stmt 0
	jae	LBB47_371
Ltmp2246:
LBB47_373:
	.loc	16 0 9
	shll	$12, %edx
Ltmp2247:
LBB47_374:
	orl	%edx, %ebx
Ltmp2248:
	movl	%ebx, %edi
Ltmp2249:
LBB47_375:
	.loc	31 386 16 is_stmt 1
	cmpl	$90, %edi
	.loc	31 386 13 is_stmt 0
	jne	LBB47_451
Ltmp2250:
	.loc	31 0 13
	movq	%rcx, -192(%rbp)
	movq	%rax, -184(%rbp)
Ltmp2251:
	.loc	16 2051 18 is_stmt 1
	movq	$1, -56(%rbp)
	.loc	16 2051 25 is_stmt 0
	movq	%rax, -72(%rbp)
Ltmp2252:
	.loc	16 2303 12 is_stmt 1
	cmpq	$1, %rax
	je	LBB47_378
Ltmp2253:
	.loc	16 2309 25
	cmpb	$-65, (%r9)
Ltmp2254:
	.loc	16 2021 13
	jle	LBB47_744
Ltmp2255:
LBB47_378:
	.loc	16 2040 23
	decq	%rax
Ltmp2256:
	.loc	31 387 17
	movq	%r9, (%r14)
	movq	%rax, 8(%r14)
Ltmp2257:
LBB47_379:
	.loc	31 0 0 is_stmt 0
	movl	$0, 36(%r13)
	movl	$15, (%r15)
	jmp	LBB47_504
Ltmp2258:
LBB47_380:
	xorl	%r9d, %r9d
	movq	%r8, %rbx
Ltmp2259:
	.loc	16 495 5 is_stmt 1
	shll	$6, %edx
	orl	%r9d, %edx
Ltmp2260:
	.loc	16 536 12
	cmpb	$-16, %sil
	.loc	16 536 9 is_stmt 0
	jae	LBB47_381
Ltmp2261:
LBB47_383:
	.loc	16 0 9
	shll	$12, %edi
Ltmp2262:
LBB47_384:
	orl	%edi, %edx
Ltmp2263:
	movl	%edx, %esi
Ltmp2264:
LBB47_385:
	.loc	31 386 16 is_stmt 1
	cmpl	$9, %esi
	.loc	31 386 13 is_stmt 0
	jne	LBB47_389
Ltmp2265:
LBB47_386:
	.loc	31 0 13
	movq	%rcx, -192(%rbp)
	incq	%rcx
Ltmp2266:
	movq	%rax, -184(%rbp)
Ltmp2267:
	movq	$1, -56(%rbp)
	movq	%rax, -72(%rbp)
Ltmp2268:
	cmpq	$1, %rax
	je	LBB47_388
Ltmp2269:
	cmpb	$-65, (%rcx)
	jle	LBB47_744
Ltmp2270:
LBB47_388:
	decq	%rax
Ltmp2271:
	movq	%rcx, (%r14)
	movq	%rax, 8(%r14)
	movl	$15, (%r15)
	jmp	LBB47_504
Ltmp2272:
LBB47_389:
	movabsq	$38654705678, %rax
Ltmp2273:
LBB47_390:
	movq	%rax, (%r15)
	jmp	LBB47_503
Ltmp2274:
LBB47_391:
	movl	$7, %edx
	leaq	l___unnamed_144+48(%rip), %rsi
Ltmp2275:
	.loc	24 5863 12 is_stmt 1
	leaq	l___unnamed_82(%rip), %rbx
Ltmp2276:
	cmpq	%rbx, %rcx
	.loc	24 5863 9 is_stmt 0
	je	LBB47_313
Ltmp2277:
	.loc	24 0 9
	movl	$1936029012, %ebx
Ltmp2278:
	.loc	24 5868 13 is_stmt 1
	xorl	(%rcx), %ebx
	movl	$2036425843, %edi
	xorl	3(%rcx), %edi
	orl	%ebx, %edi
Ltmp2279:
	.loc	24 1430 9
	je	LBB47_313
Ltmp2280:
	cmpq	$9, %rax
Ltmp2281:
	jae	LBB47_576
Ltmp2282:
	cmpq	$8, %rax
Ltmp2283:
	jne	LBB47_261
	jmp	LBB47_578
Ltmp2284:
LBB47_395:
	.loc	24 0 9 is_stmt 0
	movl	$4, %edx
	leaq	l___unnamed_146+120(%rip), %rsi
Ltmp2285:
	.loc	24 5863 12 is_stmt 1
	leaq	L___unnamed_91(%rip), %rdi
Ltmp2286:
	cmpq	%rdi, %rax
	.loc	24 5863 9 is_stmt 0
	je	LBB47_405
Ltmp2287:
	.loc	24 5868 13 is_stmt 1
	cmpl	$1701737802, (%rax)
Ltmp2288:
	.loc	24 1430 9
	je	LBB47_405
Ltmp2289:
	.loc	24 0 9 is_stmt 0
	leaq	l___unnamed_146+144(%rip), %rsi
Ltmp2290:
	.loc	24 5863 12 is_stmt 1
	leaq	L___unnamed_92(%rip), %rdi
Ltmp2291:
	cmpq	%rdi, %rax
	.loc	24 5863 9 is_stmt 0
	je	LBB47_405
Ltmp2292:
	.loc	24 5868 13 is_stmt 1
	cmpl	$2037151050, (%rax)
Ltmp2293:
	.loc	24 1430 9
	je	LBB47_405
Ltmp2294:
	cmpq	$6, %rcx
Ltmp2295:
	jb	LBB47_247
Ltmp2296:
	.loc	24 0 9 is_stmt 0
	movl	$6, %edx
	leaq	l___unnamed_146+168(%rip), %rsi
Ltmp2297:
	.loc	24 5863 12 is_stmt 1
	leaq	l___unnamed_90(%rip), %rdi
Ltmp2298:
	cmpq	%rdi, %rax
	.loc	24 5863 9 is_stmt 0
	je	LBB47_405
Ltmp2299:
	.loc	24 0 9
	movl	$1969714497, %edi
Ltmp2300:
	.loc	24 5868 13 is_stmt 1
	xorl	(%rax), %edi
	movzwl	4(%rax), %ebx
	xorl	$29811, %ebx
	orl	%edi, %ebx
Ltmp2301:
	.loc	24 1430 9
	je	LBB47_405
Ltmp2302:
	cmpq	$9, %rcx
Ltmp2303:
	jb	LBB47_247
Ltmp2304:
	.loc	24 0 9 is_stmt 0
	movl	$9, %edx
	leaq	l___unnamed_146+192(%rip), %rsi
Ltmp2305:
	.loc	24 5863 12 is_stmt 1
	leaq	l___unnamed_93(%rip), %rdi
Ltmp2306:
	cmpq	%rdi, %rax
	.loc	24 5863 9 is_stmt 0
	je	LBB47_405
Ltmp2307:
	.loc	24 0 9
	movabsq	$7305521828061013331, %rdi
Ltmp2308:
	.loc	24 5868 13 is_stmt 1
	xorq	(%rax), %rdi
	movzbl	8(%rax), %ebx
	xorq	$114, %rbx
	orq	%rdi, %rbx
Ltmp2309:
	.loc	24 1430 9
	jne	LBB47_247
Ltmp2310:
LBB47_405:
	.loc	31 310 19
	movl	16(%rsi), %esi
Ltmp2311:
	.loc	31 0 19 is_stmt 0
	movq	%rax, -192(%rbp)
	movq	%rcx, -184(%rbp)
Ltmp2312:
	.loc	16 2051 18 is_stmt 1
	movq	%rdx, -56(%rbp)
	.loc	16 2051 25 is_stmt 0
	movq	%rcx, -72(%rbp)
Ltmp2313:
	.loc	16 2303 26 is_stmt 1
	subq	%rdx, %rcx
	.loc	16 2303 12 is_stmt 0
	je	LBB47_408
Ltmp2314:
	.loc	16 2307 13 is_stmt 1
	jbe	LBB47_744
Ltmp2315:
	.loc	16 2309 25
	cmpb	$-65, (%rax,%rdx)
Ltmp2316:
	.loc	16 2021 13
	jle	LBB47_744
Ltmp2317:
LBB47_408:
	.loc	32 158 9
	addq	%rdx, %rax
Ltmp2318:
	.loc	31 302 9
	movq	%rax, (%r14)
	movq	%rcx, 8(%r14)
Ltmp2319:
	.loc	31 67 26
	movl	%esi, 16(%r13)
Ltmp2320:
	.loc	31 0 0 is_stmt 0
	movl	$15, (%r15)
	jmp	LBB47_504
Ltmp2321:
LBB47_409:
	xorl	%esi, %esi
Ltmp2322:
LBB47_410:
	.loc	16 540 18 is_stmt 1
	andl	$7, %ebx
Ltmp2323:
	shll	$18, %ebx
Ltmp2324:
	.loc	16 495 5
	shll	$6, %edi
Ltmp2325:
	orl	%ebx, %edi
Ltmp2326:
	.loc	16 540 13
	orl	%esi, %edi
Ltmp2327:
	.loc	16 0 13 is_stmt 0
	movl	%edi, %esi
Ltmp2328:
	.loc	16 693 13 is_stmt 1
	cmpl	$1114112, %edi
Ltmp2329:
	jne	LBB47_327
	jmp	LBB47_499
Ltmp2330:
LBB47_411:
	.loc	16 0 13 is_stmt 0
	xorl	%esi, %esi
Ltmp2331:
LBB47_412:
	.loc	16 540 18 is_stmt 1
	andl	$7, %ebx
Ltmp2332:
	shll	$18, %ebx
Ltmp2333:
	.loc	16 495 5
	shll	$6, %edi
Ltmp2334:
	orl	%ebx, %edi
Ltmp2335:
	.loc	16 540 13
	orl	%esi, %edi
Ltmp2336:
	.loc	16 0 13 is_stmt 0
	movl	%edi, %esi
Ltmp2337:
	.loc	16 693 13 is_stmt 1
	cmpl	$1114112, %edi
Ltmp2338:
	jne	LBB47_344
	jmp	LBB47_499
Ltmp2339:
LBB47_413:
	.loc	16 0 13 is_stmt 0
	xorl	%esi, %esi
Ltmp2340:
LBB47_414:
	.loc	16 540 18 is_stmt 1
	andl	$7, %edi
Ltmp2341:
	shll	$18, %edi
Ltmp2342:
	.loc	16 495 5
	shll	$6, %edx
Ltmp2343:
	orl	%edi, %edx
Ltmp2344:
	.loc	16 540 13
	orl	%esi, %edx
Ltmp2345:
	.loc	16 0 13 is_stmt 0
	movl	%edx, %esi
Ltmp2346:
	.loc	16 693 13 is_stmt 1
	cmpl	$1114112, %edx
Ltmp2347:
	jne	LBB47_361
	jmp	LBB47_531
Ltmp2348:
LBB47_415:
	.loc	16 0 13 is_stmt 0
	xorl	%r10d, %r10d
	movq	%r8, %r9
Ltmp2349:
	.loc	16 495 5 is_stmt 1
	shll	$6, %edi
	orl	%r10d, %edi
Ltmp2350:
	.loc	16 536 12
	cmpb	$-16, %sil
	.loc	16 536 9 is_stmt 0
	jae	LBB47_416
Ltmp2351:
LBB47_418:
	.loc	16 0 9
	shll	$12, %ebx
Ltmp2352:
LBB47_419:
	orl	%ebx, %edi
Ltmp2353:
	movl	%edi, %esi
Ltmp2354:
LBB47_420:
	.loc	31 386 16 is_stmt 1
	cmpl	$58, %esi
	.loc	31 386 13 is_stmt 0
	jne	LBB47_424
Ltmp2355:
	.loc	31 0 13
	movq	%rcx, -192(%rbp)
	incq	%rcx
Ltmp2356:
	movq	%rax, -184(%rbp)
Ltmp2357:
	.loc	16 2051 18 is_stmt 1
	movq	$1, -88(%rbp)
	.loc	16 2051 25 is_stmt 0
	movq	%rax, -56(%rbp)
Ltmp2358:
	.loc	16 2303 12 is_stmt 1
	cmpq	$1, %rax
	je	LBB47_423
Ltmp2359:
	.loc	16 2309 25
	cmpb	$-65, (%rcx)
Ltmp2360:
	.loc	16 2021 13
	jle	LBB47_756
Ltmp2361:
LBB47_423:
	.loc	16 2040 23
	decq	%rax
Ltmp2362:
	.loc	31 387 17
	movq	%rcx, (%r14)
	movq	%rax, 8(%r14)
Ltmp2363:
	.loc	31 180 32
	movq	%r15, %rdi
	movq	%r14, %rsi
Ltmp2364:
	movl	$77, %edx
	jmp	LBB47_663
Ltmp2365:
LBB47_424:
	.loc	31 0 32 is_stmt 0
	movl	$14, %edx
	movl	$58, %ebx
Ltmp2366:
	.loc	21 730 23 is_stmt 1
	movl	%edx, (%r15)
	jmp	LBB47_502
Ltmp2367:
LBB47_425:
	.loc	21 0 23 is_stmt 0
	xorl	%r10d, %r10d
	movq	%r8, %r9
Ltmp2368:
	.loc	16 495 5 is_stmt 1
	shll	$6, %edi
	orl	%r10d, %edi
Ltmp2369:
	.loc	16 536 12
	cmpb	$-16, %sil
	.loc	16 536 9 is_stmt 0
	jae	LBB47_426
Ltmp2370:
LBB47_428:
	.loc	16 0 9
	shll	$12, %ebx
Ltmp2371:
LBB47_429:
	orl	%ebx, %edi
Ltmp2372:
	movl	%edi, %esi
Ltmp2373:
LBB47_430:
	.loc	31 386 16 is_stmt 1
	cmpl	$58, %esi
	.loc	31 386 13 is_stmt 0
	jne	LBB47_441
Ltmp2374:
	.loc	31 0 13
	movq	%rdx, -192(%rbp)
	incq	%rdx
Ltmp2375:
	movq	%rcx, -184(%rbp)
Ltmp2376:
	.loc	16 2051 18 is_stmt 1
	movq	$1, -232(%rbp)
	.loc	16 2051 25 is_stmt 0
	movq	%rcx, -224(%rbp)
Ltmp2377:
	.loc	16 2303 12 is_stmt 1
	cmpq	$1, %rcx
	je	LBB47_433
Ltmp2378:
	.loc	16 2309 25
	cmpb	$-65, (%rdx)
Ltmp2379:
	.loc	16 2021 13
	jle	LBB47_757
Ltmp2380:
LBB47_433:
	.loc	16 2040 23
	decq	%rcx
Ltmp2381:
	.loc	31 387 17
	movq	%rdx, (%r14)
	movq	%rcx, 8(%r14)
Ltmp2382:
	.loc	31 0 17 is_stmt 0
	leaq	-56(%rbp), %rdi
Ltmp2383:
	.loc	31 185 32 is_stmt 1
	movq	%r14, %rsi
Ltmp2384:
	movl	$77, %edx
	movq	%r13, %rcx
Ltmp2385:
	callq	__ZN4time5parse10parse_type17h60011e472063ce47E
Ltmp2386:
	.loc	21 729 13
	movl	-56(%rbp), %eax
Ltmp2387:
	cmpl	$15, %eax
	jne	LBB47_443
Ltmp2388:
	.loc	31 384 11
	movq	8(%r14), %rcx
Ltmp2389:
	.loc	31 0 11 is_stmt 0
	movl	$10, %eax
Ltmp2390:
	.loc	24 3179 9 is_stmt 1
	testq	%rcx, %rcx
	.loc	24 3303 21
	je	LBB47_446
Ltmp2391:
	.loc	31 0 0 is_stmt 0
	movq	(%r14), %rdx
Ltmp2392:
	.loc	16 519 13 is_stmt 1
	movzbl	(%rdx), %esi
Ltmp2393:
	.loc	16 520 8
	testb	%sil, %sil
	.loc	16 520 5 is_stmt 0
	jns	LBB47_631
Ltmp2394:
	.loc	31 0 0
	leaq	(%rdx,%rcx), %r8
Ltmp2395:
	xorl	%edi, %edi
Ltmp2396:
	movq	%r8, %r9
Ltmp2397:
	.loc	24 3179 9 is_stmt 1
	cmpq	$1, %rcx
	.loc	24 3303 21
	je	LBB47_438
Ltmp2398:
	.loc	23 152 9
	leaq	2(%rdx), %r9
Ltmp2399:
	.loc	16 508 15
	movzbl	1(%rdx), %edi
	.loc	16 507 5
	andl	$63, %edi
Ltmp2400:
LBB47_438:
	.loc	16 0 0 is_stmt 0
	movl	%esi, %ebx
	andl	$31, %ebx
Ltmp2401:
	.loc	16 530 8 is_stmt 1
	cmpb	$-33, %sil
	.loc	16 530 5 is_stmt 0
	jbe	LBB47_572
Ltmp2402:
	.loc	24 3179 9 is_stmt 1
	cmpq	%r8, %r9
	.loc	24 3303 21
	je	LBB47_626
Ltmp2403:
	.loc	16 508 15
	movzbl	(%r9), %r10d
Ltmp2404:
	.loc	23 152 9
	incq	%r9
Ltmp2405:
	.loc	16 507 5
	andl	$63, %r10d
Ltmp2406:
	.loc	16 495 5
	shll	$6, %edi
	orl	%r10d, %edi
Ltmp2407:
	.loc	16 536 12
	cmpb	$-16, %sil
	.loc	16 536 9 is_stmt 0
	jb	LBB47_629
Ltmp2408:
LBB47_627:
	.loc	24 3179 9 is_stmt 1
	cmpq	%r8, %r9
	.loc	24 3303 21
	je	LBB47_685
Ltmp2409:
	.loc	16 508 15
	movzbl	(%r9), %esi
Ltmp2410:
	.loc	16 507 5
	andl	$63, %esi
	jmp	LBB47_686
Ltmp2411:
LBB47_441:
	.loc	16 0 5 is_stmt 0
	movl	$14, %eax
	movl	$58, %ebx
Ltmp2412:
LBB47_442:
	.loc	21 730 23 is_stmt 1
	movl	%eax, -56(%rbp)
	movl	%ebx, -52(%rbp)
	movl	%esi, -48(%rbp)
Ltmp2413:
LBB47_443:
	.loc	21 730 27 is_stmt 0
	movl	-52(%rbp), %ebx
Ltmp2414:
	movl	-48(%rbp), %esi
Ltmp2415:
LBB47_444:
	.loc	21 730 23
	movl	%eax, -88(%rbp)
	movl	%ebx, -84(%rbp)
	movl	%esi, -80(%rbp)
Ltmp2416:
LBB47_445:
	.loc	21 730 27
	movl	-84(%rbp), %ebx
Ltmp2417:
	movl	-80(%rbp), %esi
Ltmp2418:
	.loc	21 0 27
	jmp	LBB47_501
Ltmp2419:
LBB47_446:
	jmp	LBB47_444
Ltmp2420:
LBB47_447:
	xorl	%esi, %esi
Ltmp2421:
LBB47_448:
	.loc	16 540 18 is_stmt 1
	andl	$7, %edi
Ltmp2422:
	shll	$18, %edi
Ltmp2423:
	.loc	16 495 5
	shll	$6, %edx
Ltmp2424:
	orl	%edi, %edx
Ltmp2425:
	.loc	16 540 13
	orl	%esi, %edx
Ltmp2426:
	.loc	16 0 13 is_stmt 0
	movl	%edx, %esi
Ltmp2427:
	.loc	16 693 13 is_stmt 1
	cmpl	$1114112, %edx
Ltmp2428:
	jne	LBB47_368
	jmp	LBB47_531
Ltmp2429:
LBB47_449:
	.loc	16 0 13 is_stmt 0
	xorl	%esi, %esi
Ltmp2430:
LBB47_450:
	.loc	16 540 18 is_stmt 1
	andl	$7, %edx
Ltmp2431:
	shll	$18, %edx
Ltmp2432:
	.loc	16 495 5
	shll	$6, %ebx
Ltmp2433:
	orl	%edx, %ebx
Ltmp2434:
	.loc	16 540 13
	orl	%esi, %ebx
Ltmp2435:
	.loc	16 0 13 is_stmt 0
	movl	%ebx, %edi
Ltmp2436:
	.loc	16 693 13 is_stmt 1
	cmpl	$1114112, %ebx
Ltmp2437:
	jne	LBB47_375
Ltmp2438:
LBB47_451:
	.loc	16 519 13
	movzbl	(%rcx), %edi
Ltmp2439:
	.loc	16 520 8
	testb	%dil, %dil
Ltmp2440:
	.loc	16 520 5 is_stmt 0
	jns	LBB47_463
Ltmp2441:
	.loc	16 0 5
	xorl	%ebx, %ebx
Ltmp2442:
	movq	%r8, %rsi
Ltmp2443:
	.loc	24 3179 9 is_stmt 1
	cmpq	$1, %rax
	.loc	24 3303 21
	je	LBB47_454
Ltmp2444:
	.loc	23 152 9
	leaq	2(%rcx), %rsi
Ltmp2445:
	.loc	16 508 15
	movzbl	1(%rcx), %ebx
	.loc	16 507 5
	andl	$63, %ebx
Ltmp2446:
LBB47_454:
	.loc	16 0 0 is_stmt 0
	movl	%edi, %edx
	andl	$31, %edx
Ltmp2447:
	.loc	16 530 8 is_stmt 1
	cmpb	$-33, %dil
	.loc	16 530 5 is_stmt 0
	jbe	LBB47_457
Ltmp2448:
	.loc	24 3179 9 is_stmt 1
	cmpq	%r8, %rsi
	.loc	24 3303 21
	je	LBB47_458
Ltmp2449:
	.loc	16 508 15
	movzbl	(%rsi), %r10d
Ltmp2450:
	.loc	23 152 9
	incq	%rsi
Ltmp2451:
	.loc	16 507 5
	andl	$63, %r10d
Ltmp2452:
	.loc	16 495 5
	shll	$6, %ebx
	orl	%r10d, %ebx
Ltmp2453:
	.loc	16 536 12
	cmpb	$-16, %dil
	.loc	16 536 9 is_stmt 0
	jb	LBB47_461
Ltmp2454:
LBB47_459:
	.loc	24 3179 9 is_stmt 1
	cmpq	%r8, %rsi
	.loc	24 3303 21
	je	LBB47_534
Ltmp2455:
	.loc	16 508 15
	movzbl	(%rsi), %esi
	.loc	16 507 5
	andl	$63, %esi
	jmp	LBB47_535
Ltmp2456:
LBB47_457:
	.loc	16 0 5 is_stmt 0
	shll	$6, %edx
Ltmp2457:
	jmp	LBB47_462
Ltmp2458:
LBB47_458:
	xorl	%r10d, %r10d
	movq	%r8, %rsi
Ltmp2459:
	.loc	16 495 5 is_stmt 1
	shll	$6, %ebx
	orl	%r10d, %ebx
Ltmp2460:
	.loc	16 536 12
	cmpb	$-16, %dil
	.loc	16 536 9 is_stmt 0
	jae	LBB47_459
Ltmp2461:
LBB47_461:
	.loc	16 0 9
	shll	$12, %edx
Ltmp2462:
LBB47_462:
	orl	%edx, %ebx
Ltmp2463:
	movl	%ebx, %edi
Ltmp2464:
LBB47_463:
	.loc	31 386 16 is_stmt 1
	cmpl	$43, %edi
	.loc	31 386 13 is_stmt 0
	jne	LBB47_536
Ltmp2465:
	.loc	31 0 13
	movq	%rcx, -192(%rbp)
	movq	%rax, -184(%rbp)
Ltmp2466:
	.loc	16 2051 18 is_stmt 1
	movq	$1, -56(%rbp)
	.loc	16 2051 25 is_stmt 0
	movq	%rax, -72(%rbp)
	movl	$1, %ebx
Ltmp2467:
	.loc	16 2303 12 is_stmt 1
	cmpq	$1, %rax
	je	LBB47_552
Ltmp2468:
	.loc	16 2309 25
	cmpb	$-65, (%r9)
Ltmp2469:
	.loc	16 2021 13
	jg	LBB47_552
	jmp	LBB47_744
Ltmp2470:
LBB47_466:
	.loc	16 0 13 is_stmt 0
	xorl	%r10d, %r10d
	movq	%r8, %r9
Ltmp2471:
	.loc	16 495 5 is_stmt 1
	shll	$6, %edi
	orl	%r10d, %edi
Ltmp2472:
	.loc	16 536 12
	cmpb	$-16, %sil
	.loc	16 536 9 is_stmt 0
	jae	LBB47_467
Ltmp2473:
LBB47_469:
	.loc	16 0 9
	shll	$12, %ebx
Ltmp2474:
LBB47_470:
	orl	%ebx, %edi
Ltmp2475:
	movl	%edi, %esi
Ltmp2476:
LBB47_471:
	.loc	31 386 16 is_stmt 1
	cmpl	$45, %esi
	.loc	31 386 13 is_stmt 0
	jne	LBB47_498
Ltmp2477:
	.loc	31 0 13
	movq	%rdx, -192(%rbp)
	incq	%rdx
Ltmp2478:
	movq	%rcx, -184(%rbp)
Ltmp2479:
	.loc	16 2051 18 is_stmt 1
	movq	$1, -224(%rbp)
	.loc	16 2051 25 is_stmt 0
	movq	%rcx, -88(%rbp)
Ltmp2480:
	.loc	16 2303 12 is_stmt 1
	cmpq	$1, %rcx
	je	LBB47_474
Ltmp2481:
	.loc	16 2309 25
	cmpb	$-65, (%rdx)
Ltmp2482:
	.loc	16 2021 13
	jle	LBB47_750
Ltmp2483:
LBB47_474:
	.loc	16 2040 23
	decq	%rcx
Ltmp2484:
	.loc	31 387 17
	movq	%rdx, (%r14)
	movq	%rcx, 8(%r14)
Ltmp2485:
	.loc	31 0 17 is_stmt 0
	leaq	-56(%rbp), %rdi
Ltmp2486:
	.loc	31 122 32 is_stmt 1
	movq	%r14, %rsi
Ltmp2487:
	movl	$109, %edx
	movq	%r13, %rcx
Ltmp2488:
	callq	__ZN4time5parse10parse_type17h60011e472063ce47E
Ltmp2489:
	.loc	21 729 13
	movl	-56(%rbp), %eax
Ltmp2490:
	cmpl	$15, %eax
	jne	LBB47_500
Ltmp2491:
	.loc	31 384 11
	movq	8(%r14), %rcx
Ltmp2492:
	.loc	31 0 11 is_stmt 0
	movl	$10, %eax
Ltmp2493:
	.loc	24 3179 9 is_stmt 1
	testq	%rcx, %rcx
	.loc	24 3303 21
	je	LBB47_642
Ltmp2494:
	.loc	31 0 0 is_stmt 0
	movq	(%r14), %rdx
Ltmp2495:
	.loc	16 519 13 is_stmt 1
	movzbl	(%rdx), %esi
Ltmp2496:
	.loc	16 520 8
	testb	%sil, %sil
	.loc	16 520 5 is_stmt 0
	jns	LBB47_649
Ltmp2497:
	.loc	31 0 0
	leaq	(%rdx,%rcx), %r8
Ltmp2498:
	xorl	%edi, %edi
Ltmp2499:
	movq	%r8, %r9
Ltmp2500:
	.loc	24 3179 9 is_stmt 1
	cmpq	$1, %rcx
	.loc	24 3303 21
	je	LBB47_479
Ltmp2501:
	.loc	23 152 9
	leaq	2(%rdx), %r9
Ltmp2502:
	.loc	16 508 15
	movzbl	1(%rdx), %edi
	.loc	16 507 5
	andl	$63, %edi
Ltmp2503:
LBB47_479:
	.loc	16 0 0 is_stmt 0
	movl	%esi, %ebx
	andl	$31, %ebx
Ltmp2504:
	.loc	16 530 8 is_stmt 1
	cmpb	$-33, %sil
	.loc	16 530 5 is_stmt 0
	jbe	LBB47_573
Ltmp2505:
	.loc	24 3179 9 is_stmt 1
	cmpq	%r8, %r9
	.loc	24 3303 21
	je	LBB47_644
Ltmp2506:
	.loc	16 508 15
	movzbl	(%r9), %r10d
Ltmp2507:
	.loc	23 152 9
	incq	%r9
Ltmp2508:
	.loc	16 507 5
	andl	$63, %r10d
Ltmp2509:
	.loc	16 495 5
	shll	$6, %edi
	orl	%r10d, %edi
Ltmp2510:
	.loc	16 536 12
	cmpb	$-16, %sil
	.loc	16 536 9 is_stmt 0
	jb	LBB47_647
Ltmp2511:
LBB47_645:
	.loc	24 3179 9 is_stmt 1
	cmpq	%r8, %r9
	.loc	24 3303 21
	je	LBB47_687
Ltmp2512:
	.loc	16 508 15
	movzbl	(%r9), %esi
Ltmp2513:
	.loc	16 507 5
	andl	$63, %esi
	jmp	LBB47_688
Ltmp2514:
LBB47_482:
	.loc	16 0 5 is_stmt 0
	xorl	%r10d, %r10d
	movq	%r8, %r9
Ltmp2515:
	.loc	16 495 5 is_stmt 1
	shll	$6, %edi
	orl	%r10d, %edi
Ltmp2516:
	.loc	16 536 12
	cmpb	$-16, %sil
	.loc	16 536 9 is_stmt 0
	jae	LBB47_483
Ltmp2517:
LBB47_485:
	.loc	16 0 9
	shll	$12, %ebx
Ltmp2518:
LBB47_486:
	orl	%ebx, %edi
Ltmp2519:
	movl	%edi, %esi
Ltmp2520:
LBB47_487:
	.loc	31 386 16 is_stmt 1
	cmpl	$45, %esi
	.loc	31 386 13 is_stmt 0
	jne	LBB47_498
Ltmp2521:
	.loc	31 0 13
	movq	%rdx, -192(%rbp)
	incq	%rdx
Ltmp2522:
	movq	%rcx, -184(%rbp)
Ltmp2523:
	.loc	16 2051 18 is_stmt 1
	movq	$1, -224(%rbp)
	.loc	16 2051 25 is_stmt 0
	movq	%rcx, -88(%rbp)
Ltmp2524:
	.loc	16 2303 12 is_stmt 1
	cmpq	$1, %rcx
	je	LBB47_490
Ltmp2525:
	.loc	16 2309 25
	cmpb	$-65, (%rdx)
Ltmp2526:
	.loc	16 2021 13
	jle	LBB47_750
Ltmp2527:
LBB47_490:
	.loc	16 2040 23
	decq	%rcx
Ltmp2528:
	.loc	31 387 17
	movq	%rdx, (%r14)
	movq	%rcx, 8(%r14)
Ltmp2529:
	.loc	31 0 17 is_stmt 0
	leaq	-56(%rbp), %rdi
Ltmp2530:
	.loc	31 224 32 is_stmt 1
	movq	%r14, %rsi
Ltmp2531:
	movl	$98, %edx
	movq	%r13, %rcx
Ltmp2532:
	callq	__ZN4time5parse10parse_type17h60011e472063ce47E
Ltmp2533:
	.loc	21 729 13
	movl	-56(%rbp), %eax
Ltmp2534:
	cmpl	$15, %eax
	jne	LBB47_500
Ltmp2535:
	.loc	31 384 11
	movq	8(%r14), %rcx
Ltmp2536:
	.loc	31 0 11 is_stmt 0
	movl	$10, %eax
Ltmp2537:
	.loc	24 3179 9 is_stmt 1
	testq	%rcx, %rcx
	.loc	24 3303 21
	je	LBB47_642
Ltmp2538:
	.loc	31 0 0 is_stmt 0
	movq	(%r14), %rdx
Ltmp2539:
	.loc	16 519 13 is_stmt 1
	movzbl	(%rdx), %esi
Ltmp2540:
	.loc	16 520 8
	testb	%sil, %sil
	.loc	16 520 5 is_stmt 0
	jns	LBB47_658
Ltmp2541:
	.loc	31 0 0
	leaq	(%rdx,%rcx), %r8
Ltmp2542:
	xorl	%edi, %edi
Ltmp2543:
	movq	%r8, %r9
Ltmp2544:
	.loc	24 3179 9 is_stmt 1
	cmpq	$1, %rcx
	.loc	24 3303 21
	je	LBB47_495
Ltmp2545:
	.loc	23 152 9
	leaq	2(%rdx), %r9
Ltmp2546:
	.loc	16 508 15
	movzbl	1(%rdx), %edi
	.loc	16 507 5
	andl	$63, %edi
Ltmp2547:
LBB47_495:
	.loc	16 0 0 is_stmt 0
	movl	%esi, %ebx
	andl	$31, %ebx
Ltmp2548:
	.loc	16 530 8 is_stmt 1
	cmpb	$-33, %sil
	.loc	16 530 5 is_stmt 0
	jbe	LBB47_574
Ltmp2549:
	.loc	24 3179 9 is_stmt 1
	cmpq	%r8, %r9
	.loc	24 3303 21
	je	LBB47_653
Ltmp2550:
	.loc	16 508 15
	movzbl	(%r9), %r10d
Ltmp2551:
	.loc	23 152 9
	incq	%r9
Ltmp2552:
	.loc	16 507 5
	andl	$63, %r10d
Ltmp2553:
	.loc	16 495 5
	shll	$6, %edi
	orl	%r10d, %edi
Ltmp2554:
	.loc	16 536 12
	cmpb	$-16, %sil
	.loc	16 536 9 is_stmt 0
	jb	LBB47_656
Ltmp2555:
LBB47_654:
	.loc	24 3179 9 is_stmt 1
	cmpq	%r8, %r9
	.loc	24 3303 21
	je	LBB47_689
Ltmp2556:
	.loc	16 508 15
	movzbl	(%r9), %esi
Ltmp2557:
	.loc	16 507 5
	andl	$63, %esi
	jmp	LBB47_690
Ltmp2558:
LBB47_498:
	.loc	16 0 5 is_stmt 0
	movl	$14, %eax
	movl	$45, %ebx
Ltmp2559:
LBB47_499:
	movl	%eax, -56(%rbp)
	movl	%ebx, -52(%rbp)
	movl	%esi, -48(%rbp)
Ltmp2560:
LBB47_500:
	movl	-52(%rbp), %ebx
Ltmp2561:
	movl	-48(%rbp), %esi
Ltmp2562:
LBB47_501:
	movl	%eax, (%r15)
Ltmp2563:
LBB47_502:
	movl	%ebx, 4(%r15)
Ltmp2564:
LBB47_503:
	movl	%esi, 8(%r15)
Ltmp2565:
LBB47_504:
	.loc	31 297 2 is_stmt 1
	addq	$216, %rsp
	popq	%rbx
	popq	%r12
	popq	%r13
	popq	%r14
	popq	%r15
	popq	%rbp
	retq
LBB47_505:
Ltmp2566:
	.loc	31 0 2 is_stmt 0
	xorl	%r10d, %r10d
	movq	%r8, %r9
Ltmp2567:
	.loc	16 495 5 is_stmt 1
	shll	$6, %edi
	orl	%r10d, %edi
Ltmp2568:
	.loc	16 536 12
	cmpb	$-16, %sil
	.loc	16 536 9 is_stmt 0
	jae	LBB47_506
Ltmp2569:
LBB47_508:
	.loc	16 0 9
	shll	$12, %ebx
Ltmp2570:
LBB47_509:
	orl	%ebx, %edi
Ltmp2571:
	movl	%edi, %esi
Ltmp2572:
LBB47_510:
	.loc	31 386 16 is_stmt 1
	cmpl	$32, %esi
	.loc	31 386 13 is_stmt 0
	jne	LBB47_521
Ltmp2573:
	.loc	31 0 13
	movq	%rdx, -192(%rbp)
	incq	%rdx
Ltmp2574:
	movq	%rcx, -184(%rbp)
Ltmp2575:
	.loc	16 2051 18 is_stmt 1
	movq	$1, -248(%rbp)
	.loc	16 2051 25 is_stmt 0
	movq	%rcx, -232(%rbp)
Ltmp2576:
	.loc	16 2303 12 is_stmt 1
	cmpq	$1, %rcx
	je	LBB47_513
Ltmp2577:
	.loc	16 2309 25
	cmpb	$-65, (%rdx)
Ltmp2578:
	.loc	16 2021 13
	jle	LBB47_758
Ltmp2579:
LBB47_513:
	.loc	16 2040 23
	decq	%rcx
Ltmp2580:
	.loc	31 387 17
	movq	%rdx, (%r14)
	movq	%rcx, 8(%r14)
Ltmp2581:
	.loc	31 0 17 is_stmt 0
	leaq	-56(%rbp), %rdi
Ltmp2582:
	.loc	31 92 32 is_stmt 1
	movq	%r14, %rsi
Ltmp2583:
	movl	$98, %edx
	movq	%r13, %rcx
Ltmp2584:
	callq	__ZN4time5parse10parse_type17h60011e472063ce47E
Ltmp2585:
	.loc	21 729 13
	movl	-56(%rbp), %eax
Ltmp2586:
	cmpl	$15, %eax
	jne	LBB47_523
Ltmp2587:
	.loc	31 384 11
	movq	8(%r14), %rcx
Ltmp2588:
	.loc	31 0 11 is_stmt 0
	movl	$10, %eax
Ltmp2589:
	.loc	24 3179 9 is_stmt 1
	testq	%rcx, %rcx
	.loc	24 3303 21
	je	LBB47_528
Ltmp2590:
	.loc	31 0 0 is_stmt 0
	movq	(%r14), %rdx
Ltmp2591:
	.loc	16 519 13 is_stmt 1
	movzbl	(%rdx), %esi
Ltmp2592:
	.loc	16 520 8
	testb	%sil, %sil
	.loc	16 520 5 is_stmt 0
	jns	LBB47_670
Ltmp2593:
	.loc	31 0 0
	leaq	(%rdx,%rcx), %r8
Ltmp2594:
	xorl	%edi, %edi
Ltmp2595:
	movq	%r8, %r9
Ltmp2596:
	.loc	24 3179 9 is_stmt 1
	cmpq	$1, %rcx
	.loc	24 3303 21
	je	LBB47_518
Ltmp2597:
	.loc	23 152 9
	leaq	2(%rdx), %r9
Ltmp2598:
	.loc	16 508 15
	movzbl	1(%rdx), %edi
	.loc	16 507 5
	andl	$63, %edi
Ltmp2599:
LBB47_518:
	.loc	16 0 0 is_stmt 0
	movl	%esi, %ebx
	andl	$31, %ebx
Ltmp2600:
	.loc	16 530 8 is_stmt 1
	cmpb	$-33, %sil
	.loc	16 530 5 is_stmt 0
	jbe	LBB47_575
Ltmp2601:
	.loc	24 3179 9 is_stmt 1
	cmpq	%r8, %r9
	.loc	24 3303 21
	je	LBB47_665
Ltmp2602:
	.loc	16 508 15
	movzbl	(%r9), %r10d
Ltmp2603:
	.loc	23 152 9
	incq	%r9
Ltmp2604:
	.loc	16 507 5
	andl	$63, %r10d
Ltmp2605:
	.loc	16 495 5
	shll	$6, %edi
	orl	%r10d, %edi
Ltmp2606:
	.loc	16 536 12
	cmpb	$-16, %sil
	.loc	16 536 9 is_stmt 0
	jb	LBB47_668
Ltmp2607:
LBB47_666:
	.loc	24 3179 9 is_stmt 1
	cmpq	%r8, %r9
	.loc	24 3303 21
	je	LBB47_691
Ltmp2608:
	.loc	16 508 15
	movzbl	(%r9), %esi
Ltmp2609:
	.loc	16 507 5
	andl	$63, %esi
	jmp	LBB47_692
Ltmp2610:
LBB47_521:
	.loc	16 0 5 is_stmt 0
	movl	$14, %eax
	movl	$32, %ebx
Ltmp2611:
LBB47_522:
	.loc	21 730 23 is_stmt 1
	movl	%eax, -56(%rbp)
	movl	%ebx, -52(%rbp)
	movl	%esi, -48(%rbp)
Ltmp2612:
LBB47_523:
	.loc	21 730 27 is_stmt 0
	movl	-52(%rbp), %ebx
Ltmp2613:
	movl	-48(%rbp), %esi
Ltmp2614:
LBB47_524:
	.loc	21 730 23
	movl	%eax, -88(%rbp)
	movl	%ebx, -84(%rbp)
	movl	%esi, -80(%rbp)
Ltmp2615:
LBB47_525:
	.loc	21 730 27
	movl	-84(%rbp), %ebx
Ltmp2616:
	movl	-80(%rbp), %esi
Ltmp2617:
LBB47_526:
	.loc	21 730 23
	movl	%eax, -224(%rbp)
	movl	%ebx, -220(%rbp)
	movl	%esi, -216(%rbp)
Ltmp2618:
LBB47_527:
	.loc	21 730 27
	movl	-220(%rbp), %ebx
Ltmp2619:
	movl	-216(%rbp), %esi
Ltmp2620:
	.loc	21 0 27
	jmp	LBB47_501
Ltmp2621:
LBB47_528:
	jmp	LBB47_524
Ltmp2622:
LBB47_529:
	xorl	%esi, %esi
Ltmp2623:
LBB47_530:
	.loc	16 540 18 is_stmt 1
	andl	$7, %edi
Ltmp2624:
	shll	$18, %edi
Ltmp2625:
	.loc	16 495 5
	shll	$6, %edx
Ltmp2626:
	orl	%edi, %edx
Ltmp2627:
	.loc	16 540 13
	orl	%esi, %edx
Ltmp2628:
	.loc	16 0 13 is_stmt 0
	movl	%edx, %esi
Ltmp2629:
	.loc	16 693 13 is_stmt 1
	cmpl	$1114112, %edx
Ltmp2630:
	jne	LBB47_385
Ltmp2631:
LBB47_531:
	.loc	31 0 0 is_stmt 0
	movl	$10, (%r15)
	jmp	LBB47_504
Ltmp2632:
LBB47_532:
	shll	$6, %ebx
Ltmp2633:
	jmp	LBB47_586
Ltmp2634:
LBB47_533:
	shll	$6, %ebx
Ltmp2635:
	jmp	LBB47_596
Ltmp2636:
LBB47_534:
	xorl	%esi, %esi
Ltmp2637:
LBB47_535:
	.loc	16 540 18 is_stmt 1
	andl	$7, %edx
Ltmp2638:
	shll	$18, %edx
Ltmp2639:
	.loc	16 495 5
	shll	$6, %ebx
Ltmp2640:
	orl	%edx, %ebx
Ltmp2641:
	.loc	16 540 13
	orl	%esi, %ebx
Ltmp2642:
	.loc	16 0 13 is_stmt 0
	movl	%ebx, %edi
Ltmp2643:
	.loc	16 693 13 is_stmt 1
	cmpl	$1114112, %ebx
Ltmp2644:
	jne	LBB47_463
Ltmp2645:
LBB47_536:
	.loc	16 519 13
	movzbl	(%rcx), %edi
Ltmp2646:
	.loc	16 520 8
	testb	%dil, %dil
Ltmp2647:
	.loc	16 520 5 is_stmt 0
	jns	LBB47_548
Ltmp2648:
	.loc	16 0 5
	xorl	%esi, %esi
Ltmp2649:
	movq	%r8, %rbx
Ltmp2650:
	.loc	24 3179 9 is_stmt 1
	cmpq	$1, %rax
	.loc	24 3303 21
	je	LBB47_539
Ltmp2651:
	.loc	23 152 9
	leaq	2(%rcx), %rbx
Ltmp2652:
	.loc	16 508 15
	movzbl	1(%rcx), %esi
	.loc	16 507 5
	andl	$63, %esi
Ltmp2653:
LBB47_539:
	.loc	16 0 0 is_stmt 0
	movl	%edi, %edx
	andl	$31, %edx
Ltmp2654:
	.loc	16 530 8 is_stmt 1
	cmpb	$-33, %dil
	.loc	16 530 5 is_stmt 0
	jbe	LBB47_542
Ltmp2655:
	.loc	24 3179 9 is_stmt 1
	cmpq	%r8, %rbx
	.loc	24 3303 21
	je	LBB47_543
Ltmp2656:
	.loc	16 508 15
	movzbl	(%rbx), %r9d
Ltmp2657:
	.loc	23 152 9
	incq	%rbx
Ltmp2658:
	.loc	16 507 5
	andl	$63, %r9d
Ltmp2659:
	.loc	16 495 5
	shll	$6, %esi
	orl	%r9d, %esi
Ltmp2660:
	.loc	16 536 12
	cmpb	$-16, %dil
	.loc	16 536 9 is_stmt 0
	jb	LBB47_546
Ltmp2661:
LBB47_544:
	.loc	24 3179 9 is_stmt 1
	cmpq	%r8, %rbx
	.loc	24 3303 21
	je	LBB47_619
Ltmp2662:
	.loc	16 508 15
	movzbl	(%rbx), %edi
Ltmp2663:
	.loc	16 507 5
	andl	$63, %edi
	jmp	LBB47_620
Ltmp2664:
LBB47_542:
	.loc	16 0 5 is_stmt 0
	shll	$6, %edx
Ltmp2665:
	jmp	LBB47_547
Ltmp2666:
LBB47_543:
	xorl	%r9d, %r9d
	movq	%r8, %rbx
Ltmp2667:
	.loc	16 495 5 is_stmt 1
	shll	$6, %esi
	orl	%r9d, %esi
Ltmp2668:
	.loc	16 536 12
	cmpb	$-16, %dil
	.loc	16 536 9 is_stmt 0
	jae	LBB47_544
Ltmp2669:
LBB47_546:
	.loc	16 0 9
	shll	$12, %edx
Ltmp2670:
LBB47_547:
	orl	%edx, %esi
Ltmp2671:
	movl	%esi, %edi
Ltmp2672:
LBB47_548:
	.loc	31 386 16 is_stmt 1
	cmpl	$45, %edi
	.loc	31 386 13 is_stmt 0
	jne	LBB47_560
Ltmp2673:
	.loc	31 0 13
	movq	%rcx, -192(%rbp)
	incq	%rcx
Ltmp2674:
	movq	%rax, -184(%rbp)
Ltmp2675:
	.loc	16 2051 18 is_stmt 1
	movq	$1, -56(%rbp)
	.loc	16 2051 25 is_stmt 0
	movq	%rax, -72(%rbp)
	movl	$-1, %ebx
Ltmp2676:
	.loc	16 2303 12 is_stmt 1
	cmpq	$1, %rax
	jne	LBB47_551
Ltmp2677:
	.loc	16 0 12 is_stmt 0
	movq	%rcx, %r9
	jmp	LBB47_552
Ltmp2678:
LBB47_551:
	.loc	16 2309 25 is_stmt 1
	cmpb	$-65, (%rcx)
	movq	%rcx, %r9
Ltmp2679:
	.loc	16 2021 13
	jle	LBB47_744
Ltmp2680:
LBB47_552:
	.loc	31 0 0 is_stmt 0
	movq	%r9, (%r14)
	decq	%rax
	movq	%rax, 8(%r14)
Ltmp2681:
	.loc	31 319 11 is_stmt 1
	movl	$2, %esi
	movl	$2, %edx
	movq	%r14, %rdi
	xorl	%ecx, %ecx
	callq	__ZN4time5parse16match_digits_i6417hb424fd3ff42a455cE
	.loc	31 320 9
	testq	%rax, %rax
Ltmp2682:
	.loc	31 277 21
	je	LBB47_560
Ltmp2683:
	.loc	31 0 0 is_stmt 0
	movq	%rdx, %r12
Ltmp2684:
	.loc	31 384 11 is_stmt 1
	movq	8(%r14), %rax
Ltmp2685:
	.loc	24 3179 9
	testq	%rax, %rax
	.loc	24 3303 21
	je	LBB47_611
Ltmp2686:
	.loc	31 0 0 is_stmt 0
	movq	(%r14), %rcx
Ltmp2687:
	.loc	16 519 13 is_stmt 1
	movzbl	(%rcx), %esi
Ltmp2688:
	.loc	16 520 8
	testb	%sil, %sil
	.loc	16 520 5 is_stmt 0
	jns	LBB47_607
Ltmp2689:
	.loc	31 0 0
	leaq	(%rcx,%rax), %r8
Ltmp2690:
	xorl	%edx, %edx
Ltmp2691:
	movq	%r8, %r9
Ltmp2692:
	.loc	24 3179 9 is_stmt 1
	cmpq	$1, %rax
	.loc	24 3303 21
	je	LBB47_557
Ltmp2693:
	.loc	23 152 9
	leaq	2(%rcx), %r9
Ltmp2694:
	.loc	16 508 15
	movzbl	1(%rcx), %edx
	.loc	16 507 5
	andl	$63, %edx
Ltmp2695:
LBB47_557:
	.loc	16 0 0 is_stmt 0
	movl	%esi, %edi
	andl	$31, %edi
Ltmp2696:
	.loc	16 530 8 is_stmt 1
	cmpb	$-33, %sil
	.loc	16 530 5 is_stmt 0
	jbe	LBB47_561
Ltmp2697:
	.loc	24 3179 9 is_stmt 1
	cmpq	%r8, %r9
	.loc	24 3303 21
	je	LBB47_602
Ltmp2698:
	.loc	16 508 15
	movzbl	(%r9), %r10d
Ltmp2699:
	.loc	23 152 9
	incq	%r9
Ltmp2700:
	.loc	16 507 5
	andl	$63, %r10d
Ltmp2701:
	.loc	16 495 5
	shll	$6, %edx
	orl	%r10d, %edx
Ltmp2702:
	.loc	16 536 12
	cmpb	$-16, %sil
	.loc	16 536 9 is_stmt 0
	jb	LBB47_605
Ltmp2703:
LBB47_603:
	.loc	24 3179 9 is_stmt 1
	cmpq	%r8, %r9
	.loc	24 3303 21
	je	LBB47_683
Ltmp2704:
	.loc	16 508 15
	movzbl	(%r9), %esi
Ltmp2705:
	.loc	16 507 5
	andl	$63, %esi
	jmp	LBB47_684
Ltmp2706:
LBB47_561:
	.loc	16 0 5 is_stmt 0
	shll	$6, %edi
Ltmp2707:
	jmp	LBB47_606
Ltmp2708:
LBB47_562:
	xorl	%esi, %esi
Ltmp2709:
LBB47_563:
	.loc	16 540 18 is_stmt 1
	andl	$7, %ebx
Ltmp2710:
	shll	$18, %ebx
Ltmp2711:
	.loc	16 495 5
	shll	$6, %edi
Ltmp2712:
	orl	%ebx, %edi
Ltmp2713:
	.loc	16 540 13
	orl	%esi, %edi
Ltmp2714:
	.loc	16 0 13 is_stmt 0
	movl	%edi, %esi
Ltmp2715:
	.loc	16 693 13 is_stmt 1
	cmpl	$1114112, %edi
Ltmp2716:
	je	LBB47_234
	jmp	LBB47_420
Ltmp2717:
LBB47_564:
	.loc	16 0 13 is_stmt 0
	xorl	%esi, %esi
Ltmp2718:
LBB47_565:
	.loc	16 540 18 is_stmt 1
	andl	$7, %ebx
Ltmp2719:
	shll	$18, %ebx
Ltmp2720:
	.loc	16 495 5
	shll	$6, %edi
Ltmp2721:
	orl	%ebx, %edi
Ltmp2722:
	.loc	16 540 13
	orl	%esi, %edi
Ltmp2723:
	.loc	16 0 13 is_stmt 0
	movl	%edi, %esi
Ltmp2724:
	.loc	16 693 13 is_stmt 1
	cmpl	$1114112, %edi
Ltmp2725:
	jne	LBB47_430
	jmp	LBB47_442
Ltmp2726:
LBB47_566:
	.loc	16 0 13 is_stmt 0
	xorl	%esi, %esi
Ltmp2727:
LBB47_567:
	.loc	16 540 18 is_stmt 1
	andl	$7, %ebx
Ltmp2728:
	shll	$18, %ebx
Ltmp2729:
	.loc	16 495 5
	shll	$6, %edi
Ltmp2730:
	orl	%ebx, %edi
Ltmp2731:
	.loc	16 540 13
	orl	%esi, %edi
Ltmp2732:
	.loc	16 0 13 is_stmt 0
	movl	%edi, %esi
Ltmp2733:
	.loc	16 693 13 is_stmt 1
	cmpl	$1114112, %edi
Ltmp2734:
	jne	LBB47_471
	jmp	LBB47_499
Ltmp2735:
LBB47_568:
	.loc	16 0 13 is_stmt 0
	xorl	%esi, %esi
Ltmp2736:
LBB47_569:
	.loc	16 540 18 is_stmt 1
	andl	$7, %ebx
Ltmp2737:
	shll	$18, %ebx
Ltmp2738:
	.loc	16 495 5
	shll	$6, %edi
Ltmp2739:
	orl	%ebx, %edi
Ltmp2740:
	.loc	16 540 13
	orl	%esi, %edi
Ltmp2741:
	.loc	16 0 13 is_stmt 0
	movl	%edi, %esi
Ltmp2742:
	.loc	16 693 13 is_stmt 1
	cmpl	$1114112, %edi
Ltmp2743:
	jne	LBB47_487
	jmp	LBB47_499
Ltmp2744:
LBB47_570:
	.loc	16 0 13 is_stmt 0
	xorl	%esi, %esi
Ltmp2745:
LBB47_571:
	.loc	16 540 18 is_stmt 1
	andl	$7, %ebx
Ltmp2746:
	shll	$18, %ebx
Ltmp2747:
	.loc	16 495 5
	shll	$6, %edi
Ltmp2748:
	orl	%ebx, %edi
Ltmp2749:
	.loc	16 540 13
	orl	%esi, %edi
Ltmp2750:
	.loc	16 0 13 is_stmt 0
	movl	%edi, %esi
Ltmp2751:
	.loc	16 693 13 is_stmt 1
	cmpl	$1114112, %edi
Ltmp2752:
	jne	LBB47_510
	jmp	LBB47_522
Ltmp2753:
LBB47_572:
	.loc	16 0 13 is_stmt 0
	shll	$6, %ebx
Ltmp2754:
	jmp	LBB47_630
Ltmp2755:
LBB47_573:
	shll	$6, %ebx
Ltmp2756:
	jmp	LBB47_648
Ltmp2757:
LBB47_574:
	shll	$6, %ebx
Ltmp2758:
	jmp	LBB47_657
Ltmp2759:
LBB47_575:
	shll	$6, %ebx
Ltmp2760:
	jmp	LBB47_669
Ltmp2761:
LBB47_576:
	movl	$9, %edx
	leaq	l___unnamed_144+72(%rip), %rsi
Ltmp2762:
	.loc	24 5863 12 is_stmt 1
	leaq	l___unnamed_83(%rip), %rdi
Ltmp2763:
	cmpq	%rdi, %rcx
	.loc	24 5863 9 is_stmt 0
	je	LBB47_313
Ltmp2764:
	.loc	24 0 9
	movabsq	$7017860998831039831, %rdi
Ltmp2765:
	.loc	24 5868 13 is_stmt 1
	xorq	(%rcx), %rdi
	movzbl	8(%rcx), %ebx
	xorq	$121, %rbx
	orq	%rdi, %rbx
Ltmp2766:
	.loc	24 1430 9
	je	LBB47_313
Ltmp2767:
LBB47_578:
	.loc	24 0 9 is_stmt 0
	movl	$8, %edx
	leaq	l___unnamed_144+96(%rip), %rsi
Ltmp2768:
	.loc	24 5863 12 is_stmt 1
	leaq	L___unnamed_81(%rip), %rdi
Ltmp2769:
	cmpq	%rdi, %rcx
	.loc	24 5863 9 is_stmt 0
	je	LBB47_313
Ltmp2770:
	.loc	24 0 9
	movabsq	$8746382398334527572, %rdi
Ltmp2771:
	.loc	24 5868 13 is_stmt 1
	cmpq	%rdi, (%rcx)
Ltmp2772:
	.loc	24 1430 9
	je	LBB47_313
Ltmp2773:
	.loc	24 0 9 is_stmt 0
	xorl	%r8d, %r8d
Ltmp2774:
	leaq	l___unnamed_144+120(%rip), %rsi
Ltmp2775:
	.loc	24 5863 12 is_stmt 1
	leaq	l___unnamed_84(%rip), %rdx
Ltmp2776:
	cmpq	%rdx, %rcx
	.loc	24 5863 9 is_stmt 0
	jne	LBB47_262
Ltmp2777:
LBB47_312:
	.loc	31 310 11 is_stmt 1
	movl	$6, %edx
Ltmp2778:
LBB47_313:
	.loc	31 310 19 is_stmt 0
	movl	16(%rsi), %esi
Ltmp2779:
	.loc	31 0 19
	movq	%rcx, -192(%rbp)
	movq	%rax, -184(%rbp)
Ltmp2780:
	.loc	16 2051 18 is_stmt 1
	movq	%rdx, -56(%rbp)
	.loc	16 2051 25 is_stmt 0
	movq	%rax, -72(%rbp)
Ltmp2781:
	.loc	16 2303 26 is_stmt 1
	subq	%rdx, %rax
	.loc	16 2303 12 is_stmt 0
	je	LBB47_316
Ltmp2782:
	.loc	16 2307 13 is_stmt 1
	jbe	LBB47_744
Ltmp2783:
	.loc	16 2309 25
	cmpb	$-65, (%rcx,%rdx)
Ltmp2784:
	.loc	16 2021 13
	jle	LBB47_744
Ltmp2785:
LBB47_316:
	.loc	32 158 9
	addq	%rdx, %rcx
Ltmp2786:
	.loc	31 302 9
	movq	%rcx, (%r14)
	movq	%rax, 8(%r14)
Ltmp2787:
	.loc	31 42 26
	movl	%esi, 24(%r13)
Ltmp2788:
	.loc	31 0 0 is_stmt 0
	movl	$15, (%r15)
	jmp	LBB47_504
Ltmp2789:
LBB47_582:
	xorl	%r10d, %r10d
	movq	%r8, %r9
Ltmp2790:
	.loc	16 495 5 is_stmt 1
	shll	$6, %edi
	orl	%r10d, %edi
Ltmp2791:
	.loc	16 536 12
	cmpb	$-16, %sil
	.loc	16 536 9 is_stmt 0
	jae	LBB47_583
Ltmp2792:
LBB47_585:
	.loc	16 0 9
	shll	$12, %ebx
Ltmp2793:
LBB47_586:
	orl	%ebx, %edi
Ltmp2794:
	movl	%edi, %esi
Ltmp2795:
LBB47_587:
	.loc	31 386 16 is_stmt 1
	cmpl	$47, %esi
	.loc	31 386 13 is_stmt 0
	jne	LBB47_591
Ltmp2796:
	.loc	31 0 13
	movq	%rdx, -192(%rbp)
	incq	%rdx
Ltmp2797:
	movq	%rcx, -184(%rbp)
Ltmp2798:
	.loc	16 2051 18 is_stmt 1
	movq	$1, -88(%rbp)
	.loc	16 2051 25 is_stmt 0
	movq	%rcx, -72(%rbp)
Ltmp2799:
	.loc	16 2303 12 is_stmt 1
	cmpq	$1, %rcx
	je	LBB47_590
Ltmp2800:
	.loc	16 2309 25
	cmpb	$-65, (%rdx)
Ltmp2801:
	.loc	16 2021 13
	jle	LBB47_759
Ltmp2802:
LBB47_590:
	.loc	16 2040 23
	decq	%rcx
Ltmp2803:
	.loc	31 387 17
	movq	%rdx, (%r14)
	movq	%rcx, 8(%r14)
Ltmp2804:
	.loc	31 105 32
	movq	%r15, %rdi
	movq	%r14, %rsi
Ltmp2805:
	movl	$121, %edx
	jmp	LBB47_663
Ltmp2806:
LBB47_591:
	.loc	31 0 32 is_stmt 0
	movl	$14, %eax
	movl	$47, %ebx
	jmp	LBB47_501
Ltmp2807:
LBB47_592:
	xorl	%r10d, %r10d
	movq	%r8, %r9
Ltmp2808:
	.loc	16 495 5 is_stmt 1
	shll	$6, %edi
	orl	%r10d, %edi
Ltmp2809:
	.loc	16 536 12
	cmpb	$-16, %sil
	.loc	16 536 9 is_stmt 0
	jae	LBB47_593
Ltmp2810:
LBB47_595:
	.loc	16 0 9
	shll	$12, %ebx
Ltmp2811:
LBB47_596:
	orl	%ebx, %edi
Ltmp2812:
	movl	%edi, %esi
Ltmp2813:
LBB47_597:
	.loc	31 386 16 is_stmt 1
	cmpl	$58, %esi
	.loc	31 386 13 is_stmt 0
	jne	LBB47_601
Ltmp2814:
	.loc	31 0 13
	movq	%rdx, -192(%rbp)
	incq	%rdx
Ltmp2815:
	movq	%rcx, -184(%rbp)
Ltmp2816:
	.loc	16 2051 18 is_stmt 1
	movq	$1, -88(%rbp)
	.loc	16 2051 25 is_stmt 0
	movq	%rcx, -72(%rbp)
Ltmp2817:
	.loc	16 2303 12 is_stmt 1
	cmpq	$1, %rcx
	je	LBB47_600
Ltmp2818:
	.loc	16 2309 25
	cmpb	$-65, (%rdx)
Ltmp2819:
	.loc	16 2021 13
	jle	LBB47_759
Ltmp2820:
LBB47_600:
	.loc	16 2040 23
	decq	%rcx
Ltmp2821:
	.loc	31 387 17
	movq	%rdx, (%r14)
	movq	%rcx, 8(%r14)
Ltmp2822:
	.loc	31 212 32
	movq	%r15, %rdi
	movq	%r14, %rsi
Ltmp2823:
	movl	$83, %edx
	jmp	LBB47_663
Ltmp2824:
LBB47_601:
	.loc	31 0 32 is_stmt 0
	movl	$14, %eax
	movl	$58, %ebx
	jmp	LBB47_501
Ltmp2825:
LBB47_602:
	xorl	%r10d, %r10d
	movq	%r8, %r9
Ltmp2826:
	.loc	16 495 5 is_stmt 1
	shll	$6, %edx
	orl	%r10d, %edx
Ltmp2827:
	.loc	16 536 12
	cmpb	$-16, %sil
	.loc	16 536 9 is_stmt 0
	jae	LBB47_603
Ltmp2828:
LBB47_605:
	.loc	16 0 9
	shll	$12, %edi
Ltmp2829:
LBB47_606:
	orl	%edi, %edx
Ltmp2830:
	movl	%edx, %esi
Ltmp2831:
LBB47_607:
	.loc	31 386 16 is_stmt 1
	cmpl	$58, %esi
	.loc	31 386 13 is_stmt 0
	jne	LBB47_611
Ltmp2832:
	.loc	31 0 13
	movq	%rcx, -192(%rbp)
	incq	%rcx
Ltmp2833:
	movq	%rax, -184(%rbp)
Ltmp2834:
	.loc	16 2051 18 is_stmt 1
	movq	$1, -56(%rbp)
	.loc	16 2051 25 is_stmt 0
	movq	%rax, -72(%rbp)
Ltmp2835:
	.loc	16 2303 12 is_stmt 1
	cmpq	$1, %rax
	je	LBB47_610
Ltmp2836:
	.loc	16 2309 25
	cmpb	$-65, (%rcx)
Ltmp2837:
	.loc	16 2021 13
	jle	LBB47_744
Ltmp2838:
LBB47_610:
	.loc	16 2040 23
	decq	%rax
Ltmp2839:
	.loc	31 387 17
	movq	%rcx, (%r14)
	movq	%rax, 8(%r14)
Ltmp2840:
LBB47_611:
	.loc	31 319 11
	movl	$2, %esi
	movl	$2, %edx
	movq	%r14, %rdi
	xorl	%ecx, %ecx
	callq	__ZN4time5parse16match_digits_i6417hb424fd3ff42a455cE
	.loc	31 320 9
	testq	%rax, %rax
Ltmp2841:
	.loc	31 286 21
	je	LBB47_560
Ltmp2842:
	.loc	31 290 40
	imull	$60, %r12d, %eax
	jo	LBB47_752
Ltmp2843:
	imull	$60, %eax, %eax
	jo	LBB47_752
Ltmp2844:
	.loc	31 290 58 is_stmt 0
	imull	$60, %edx, %ecx
	jo	LBB47_753
Ltmp2845:
	.loc	31 290 39
	addl	%ecx, %eax
	jo	LBB47_754
Ltmp2846:
	.loc	31 290 32
	imull	%eax, %ebx
Ltmp2847:
	jo	LBB47_755
Ltmp2848:
	.loc	31 290 17
	movl	%ebx, 36(%r13)
Ltmp2849:
	.loc	31 0 0
	movl	$15, (%r15)
	jmp	LBB47_504
Ltmp2850:
LBB47_619:
	xorl	%edi, %edi
Ltmp2851:
LBB47_620:
	.loc	16 540 18 is_stmt 1
	andl	$7, %edx
Ltmp2852:
	shll	$18, %edx
Ltmp2853:
	.loc	16 495 5
	shll	$6, %esi
Ltmp2854:
	orl	%edx, %esi
Ltmp2855:
	.loc	16 540 13
	orl	%edi, %esi
Ltmp2856:
	.loc	16 0 13 is_stmt 0
	movl	%esi, %edi
Ltmp2857:
	.loc	16 693 13 is_stmt 1
	cmpl	$1114112, %esi
Ltmp2858:
	jne	LBB47_548
Ltmp2859:
LBB47_560:
	.loc	31 0 0 is_stmt 0
	movl	$9, (%r15)
	jmp	LBB47_504
Ltmp2860:
LBB47_622:
	xorl	%esi, %esi
Ltmp2861:
LBB47_623:
	.loc	16 540 18 is_stmt 1
	andl	$7, %ebx
Ltmp2862:
	shll	$18, %ebx
Ltmp2863:
	.loc	16 495 5
	shll	$6, %edi
Ltmp2864:
	orl	%ebx, %edi
Ltmp2865:
	.loc	16 540 13
	orl	%esi, %edi
Ltmp2866:
	.loc	16 0 13 is_stmt 0
	movl	%edi, %esi
Ltmp2867:
	.loc	16 693 13 is_stmt 1
	cmpl	$1114112, %edi
Ltmp2868:
	je	LBB47_501
	jmp	LBB47_587
Ltmp2869:
LBB47_624:
	.loc	16 0 13 is_stmt 0
	xorl	%esi, %esi
Ltmp2870:
LBB47_625:
	.loc	16 540 18 is_stmt 1
	andl	$7, %ebx
Ltmp2871:
	shll	$18, %ebx
Ltmp2872:
	.loc	16 495 5
	shll	$6, %edi
Ltmp2873:
	orl	%ebx, %edi
Ltmp2874:
	.loc	16 540 13
	orl	%esi, %edi
Ltmp2875:
	.loc	16 0 13 is_stmt 0
	movl	%edi, %esi
Ltmp2876:
	.loc	16 693 13 is_stmt 1
	cmpl	$1114112, %edi
Ltmp2877:
	je	LBB47_501
	jmp	LBB47_597
Ltmp2878:
LBB47_626:
	.loc	16 0 13 is_stmt 0
	xorl	%r10d, %r10d
	movq	%r8, %r9
Ltmp2879:
	.loc	16 495 5 is_stmt 1
	shll	$6, %edi
	orl	%r10d, %edi
Ltmp2880:
	.loc	16 536 12
	cmpb	$-16, %sil
	.loc	16 536 9 is_stmt 0
	jae	LBB47_627
Ltmp2881:
LBB47_629:
	.loc	16 0 9
	shll	$12, %ebx
Ltmp2882:
LBB47_630:
	orl	%ebx, %edi
Ltmp2883:
	movl	%edi, %esi
Ltmp2884:
LBB47_631:
	.loc	31 386 16 is_stmt 1
	cmpl	$58, %esi
	.loc	31 386 13 is_stmt 0
	jne	LBB47_643
Ltmp2885:
	.loc	31 0 13
	movq	%rdx, -192(%rbp)
	incq	%rdx
Ltmp2886:
	movq	%rcx, -184(%rbp)
Ltmp2887:
	.loc	16 2051 18 is_stmt 1
	movq	$1, -224(%rbp)
	.loc	16 2051 25 is_stmt 0
	movq	%rcx, -72(%rbp)
Ltmp2888:
	.loc	16 2303 12 is_stmt 1
	cmpq	$1, %rcx
	je	LBB47_634
Ltmp2889:
	.loc	16 2309 25
	cmpb	$-65, (%rdx)
Ltmp2890:
	.loc	16 2021 13
	jle	LBB47_760
Ltmp2891:
LBB47_634:
	.loc	16 2040 23
	decq	%rcx
Ltmp2892:
	.loc	31 387 17
	movq	%rdx, (%r14)
	movq	%rcx, 8(%r14)
Ltmp2893:
	.loc	31 0 17 is_stmt 0
	leaq	-88(%rbp), %rdi
Ltmp2894:
	.loc	31 187 32 is_stmt 1
	movq	%r14, %rsi
Ltmp2895:
	movl	$83, %edx
	movq	%r13, %rcx
Ltmp2896:
	callq	__ZN4time5parse10parse_type17h60011e472063ce47E
Ltmp2897:
	.loc	21 729 13
	movl	-88(%rbp), %eax
Ltmp2898:
	cmpl	$15, %eax
	jne	LBB47_445
Ltmp2899:
	.loc	31 384 11
	movq	8(%r14), %rcx
Ltmp2900:
	.loc	31 0 11 is_stmt 0
	movl	$10, %eax
Ltmp2901:
	.loc	24 3179 9 is_stmt 1
	testq	%rcx, %rcx
	.loc	24 3303 21
	je	LBB47_642
Ltmp2902:
	.loc	31 0 0 is_stmt 0
	movq	(%r14), %rdx
Ltmp2903:
	.loc	16 519 13 is_stmt 1
	movzbl	(%rdx), %esi
Ltmp2904:
	.loc	16 520 8
	testb	%sil, %sil
	.loc	16 520 5 is_stmt 0
	jns	LBB47_704
Ltmp2905:
	.loc	31 0 0
	leaq	(%rdx,%rcx), %r8
Ltmp2906:
	xorl	%edi, %edi
Ltmp2907:
	movq	%r8, %r9
Ltmp2908:
	.loc	24 3179 9 is_stmt 1
	cmpq	$1, %rcx
	.loc	24 3303 21
	je	LBB47_639
Ltmp2909:
	.loc	23 152 9
	leaq	2(%rdx), %r9
Ltmp2910:
	.loc	16 508 15
	movzbl	1(%rdx), %edi
	.loc	16 507 5
	andl	$63, %edi
Ltmp2911:
LBB47_639:
	.loc	16 0 0 is_stmt 0
	movl	%esi, %ebx
	andl	$31, %ebx
Ltmp2912:
	.loc	16 530 8 is_stmt 1
	cmpb	$-33, %sil
	.loc	16 530 5 is_stmt 0
	jbe	LBB47_693
Ltmp2913:
	.loc	24 3179 9 is_stmt 1
	cmpq	%r8, %r9
	.loc	24 3303 21
	je	LBB47_699
Ltmp2914:
	.loc	16 508 15
	movzbl	(%r9), %r10d
Ltmp2915:
	.loc	23 152 9
	incq	%r9
Ltmp2916:
	.loc	16 507 5
	andl	$63, %r10d
Ltmp2917:
	.loc	16 495 5
	shll	$6, %edi
	orl	%r10d, %edi
Ltmp2918:
	.loc	16 536 12
	cmpb	$-16, %sil
	.loc	16 536 9 is_stmt 0
	jb	LBB47_702
Ltmp2919:
LBB47_700:
	.loc	24 3179 9 is_stmt 1
	cmpq	%r8, %r9
	.loc	24 3303 21
	je	LBB47_727
Ltmp2920:
	.loc	16 508 15
	movzbl	(%r9), %esi
Ltmp2921:
	.loc	16 507 5
	andl	$63, %esi
	jmp	LBB47_728
Ltmp2922:
LBB47_642:
	.loc	16 0 5 is_stmt 0
	jmp	LBB47_501
Ltmp2923:
LBB47_643:
	movl	$14, %eax
	movl	$58, %ebx
	jmp	LBB47_444
Ltmp2924:
LBB47_644:
	xorl	%r10d, %r10d
	movq	%r8, %r9
Ltmp2925:
	.loc	16 495 5 is_stmt 1
	shll	$6, %edi
	orl	%r10d, %edi
Ltmp2926:
	.loc	16 536 12
	cmpb	$-16, %sil
	.loc	16 536 9 is_stmt 0
	jae	LBB47_645
Ltmp2927:
LBB47_647:
	.loc	16 0 9
	shll	$12, %ebx
Ltmp2928:
LBB47_648:
	orl	%ebx, %edi
Ltmp2929:
	movl	%edi, %esi
Ltmp2930:
LBB47_649:
	.loc	31 386 16 is_stmt 1
	cmpl	$45, %esi
	.loc	31 386 13 is_stmt 0
	jne	LBB47_664
Ltmp2931:
	.loc	31 0 13
	movq	%rdx, -192(%rbp)
	incq	%rdx
Ltmp2932:
	movq	%rcx, -184(%rbp)
Ltmp2933:
	.loc	16 2051 18 is_stmt 1
	movq	$1, -88(%rbp)
	.loc	16 2051 25 is_stmt 0
	movq	%rcx, -72(%rbp)
Ltmp2934:
	.loc	16 2303 12 is_stmt 1
	cmpq	$1, %rcx
	je	LBB47_652
Ltmp2935:
	.loc	16 2309 25
	cmpb	$-65, (%rdx)
Ltmp2936:
	.loc	16 2021 13
	jle	LBB47_759
Ltmp2937:
LBB47_652:
	.loc	16 2040 23
	decq	%rcx
Ltmp2938:
	.loc	31 387 17
	movq	%rdx, (%r14)
	movq	%rcx, 8(%r14)
Ltmp2939:
	.loc	31 124 32
	movq	%r15, %rdi
	movq	%r14, %rsi
Ltmp2940:
	movl	$100, %edx
	jmp	LBB47_663
Ltmp2941:
LBB47_653:
	.loc	31 0 32 is_stmt 0
	xorl	%r10d, %r10d
	movq	%r8, %r9
Ltmp2942:
	.loc	16 495 5 is_stmt 1
	shll	$6, %edi
	orl	%r10d, %edi
Ltmp2943:
	.loc	16 536 12
	cmpb	$-16, %sil
	.loc	16 536 9 is_stmt 0
	jae	LBB47_654
Ltmp2944:
LBB47_656:
	.loc	16 0 9
	shll	$12, %ebx
Ltmp2945:
LBB47_657:
	orl	%ebx, %edi
Ltmp2946:
	movl	%edi, %esi
Ltmp2947:
LBB47_658:
	.loc	31 386 16 is_stmt 1
	cmpl	$45, %esi
	.loc	31 386 13 is_stmt 0
	jne	LBB47_664
Ltmp2948:
	.loc	31 0 13
	movq	%rdx, -192(%rbp)
	incq	%rdx
Ltmp2949:
	movq	%rcx, -184(%rbp)
Ltmp2950:
	.loc	16 2051 18 is_stmt 1
	movq	$1, -88(%rbp)
	.loc	16 2051 25 is_stmt 0
	movq	%rcx, -72(%rbp)
Ltmp2951:
	.loc	16 2303 12 is_stmt 1
	cmpq	$1, %rcx
	je	LBB47_661
Ltmp2952:
	.loc	16 2309 25
	cmpb	$-65, (%rdx)
Ltmp2953:
	.loc	16 2021 13
	jle	LBB47_759
Ltmp2954:
LBB47_661:
	.loc	16 2040 23
	decq	%rcx
Ltmp2955:
	.loc	31 387 17
	movq	%rdx, (%r14)
	movq	%rcx, 8(%r14)
Ltmp2956:
	.loc	31 226 32
	movq	%r15, %rdi
	movq	%r14, %rsi
Ltmp2957:
LBB47_662:
	.loc	31 0 0 is_stmt 0
	movl	$89, %edx
Ltmp2958:
LBB47_663:
	movq	%r13, %rcx
	addq	$216, %rsp
	popq	%rbx
	popq	%r12
	popq	%r13
Ltmp2959:
	popq	%r14
	popq	%r15
	popq	%rbp
	jmp	__ZN4time5parse10parse_type17h60011e472063ce47E
LBB47_664:
Ltmp2960:
	movl	$14, %eax
	movl	$45, %ebx
	jmp	LBB47_501
Ltmp2961:
LBB47_665:
	xorl	%r10d, %r10d
	movq	%r8, %r9
Ltmp2962:
	.loc	16 495 5 is_stmt 1
	shll	$6, %edi
	orl	%r10d, %edi
Ltmp2963:
	.loc	16 536 12
	cmpb	$-16, %sil
	.loc	16 536 9 is_stmt 0
	jae	LBB47_666
Ltmp2964:
LBB47_668:
	.loc	16 0 9
	shll	$12, %ebx
Ltmp2965:
LBB47_669:
	orl	%ebx, %edi
Ltmp2966:
	movl	%edi, %esi
Ltmp2967:
LBB47_670:
	.loc	31 386 16 is_stmt 1
	cmpl	$32, %esi
	.loc	31 386 13 is_stmt 0
	jne	LBB47_681
Ltmp2968:
	.loc	31 0 13
	movq	%rdx, -192(%rbp)
	incq	%rdx
Ltmp2969:
	movq	%rcx, -184(%rbp)
Ltmp2970:
	.loc	16 2051 18 is_stmt 1
	movq	$1, -232(%rbp)
	.loc	16 2051 25 is_stmt 0
	movq	%rcx, -72(%rbp)
Ltmp2971:
	.loc	16 2303 12 is_stmt 1
	cmpq	$1, %rcx
	je	LBB47_673
Ltmp2972:
	.loc	16 2309 25
	cmpb	$-65, (%rdx)
Ltmp2973:
	.loc	16 2021 13
	jle	LBB47_761
Ltmp2974:
LBB47_673:
	.loc	16 2040 23
	decq	%rcx
Ltmp2975:
	.loc	31 387 17
	movq	%rdx, (%r14)
	movq	%rcx, 8(%r14)
Ltmp2976:
	.loc	31 0 17 is_stmt 0
	leaq	-88(%rbp), %rdi
Ltmp2977:
	.loc	31 94 32 is_stmt 1
	movq	%r14, %rsi
Ltmp2978:
	movl	$101, %edx
	movq	%r13, %rcx
Ltmp2979:
	callq	__ZN4time5parse10parse_type17h60011e472063ce47E
Ltmp2980:
	.loc	21 729 13
	movl	-88(%rbp), %eax
Ltmp2981:
	cmpl	$15, %eax
	jne	LBB47_525
Ltmp2982:
	.loc	31 384 11
	movq	8(%r14), %rcx
Ltmp2983:
	.loc	31 0 11 is_stmt 0
	movl	$10, %eax
Ltmp2984:
	.loc	24 3179 9 is_stmt 1
	testq	%rcx, %rcx
	.loc	24 3303 21
	je	LBB47_682
Ltmp2985:
	.loc	31 0 0 is_stmt 0
	movq	(%r14), %rdx
Ltmp2986:
	.loc	16 519 13 is_stmt 1
	movzbl	(%rdx), %esi
Ltmp2987:
	.loc	16 520 8
	testb	%sil, %sil
	.loc	16 520 5 is_stmt 0
	jns	LBB47_714
Ltmp2988:
	.loc	31 0 0
	leaq	(%rdx,%rcx), %r8
Ltmp2989:
	xorl	%edi, %edi
Ltmp2990:
	movq	%r8, %r9
Ltmp2991:
	.loc	24 3179 9 is_stmt 1
	cmpq	$1, %rcx
	.loc	24 3303 21
	je	LBB47_678
Ltmp2992:
	.loc	23 152 9
	leaq	2(%rdx), %r9
Ltmp2993:
	.loc	16 508 15
	movzbl	1(%rdx), %edi
	.loc	16 507 5
	andl	$63, %edi
Ltmp2994:
LBB47_678:
	.loc	16 0 0 is_stmt 0
	movl	%esi, %ebx
	andl	$31, %ebx
Ltmp2995:
	.loc	16 530 8 is_stmt 1
	cmpb	$-33, %sil
	.loc	16 530 5 is_stmt 0
	jbe	LBB47_694
Ltmp2996:
	.loc	24 3179 9 is_stmt 1
	cmpq	%r8, %r9
	.loc	24 3303 21
	je	LBB47_709
Ltmp2997:
	.loc	16 508 15
	movzbl	(%r9), %r10d
Ltmp2998:
	.loc	23 152 9
	incq	%r9
Ltmp2999:
	.loc	16 507 5
	andl	$63, %r10d
Ltmp3000:
	.loc	16 495 5
	shll	$6, %edi
	orl	%r10d, %edi
Ltmp3001:
	.loc	16 536 12
	cmpb	$-16, %sil
	.loc	16 536 9 is_stmt 0
	jb	LBB47_712
Ltmp3002:
LBB47_710:
	.loc	24 3179 9 is_stmt 1
	cmpq	%r8, %r9
	.loc	24 3303 21
	je	LBB47_729
Ltmp3003:
	.loc	16 508 15
	movzbl	(%r9), %esi
Ltmp3004:
	.loc	16 507 5
	andl	$63, %esi
	jmp	LBB47_730
Ltmp3005:
LBB47_681:
	.loc	16 0 5 is_stmt 0
	movl	$14, %eax
	movl	$32, %ebx
	jmp	LBB47_524
Ltmp3006:
LBB47_682:
	jmp	LBB47_526
Ltmp3007:
LBB47_683:
	xorl	%esi, %esi
Ltmp3008:
LBB47_684:
	.loc	16 540 18 is_stmt 1
	andl	$7, %edi
Ltmp3009:
	shll	$18, %edi
Ltmp3010:
	.loc	16 495 5
	shll	$6, %edx
Ltmp3011:
	orl	%edi, %edx
Ltmp3012:
	.loc	16 540 13
	orl	%esi, %edx
Ltmp3013:
	.loc	16 0 13 is_stmt 0
	movl	%edx, %esi
Ltmp3014:
	.loc	16 693 13 is_stmt 1
	cmpl	$1114112, %edx
Ltmp3015:
	jne	LBB47_607
	jmp	LBB47_611
Ltmp3016:
LBB47_685:
	.loc	16 0 13 is_stmt 0
	xorl	%esi, %esi
Ltmp3017:
LBB47_686:
	.loc	16 540 18 is_stmt 1
	andl	$7, %ebx
Ltmp3018:
	shll	$18, %ebx
Ltmp3019:
	.loc	16 495 5
	shll	$6, %edi
Ltmp3020:
	orl	%ebx, %edi
Ltmp3021:
	.loc	16 540 13
	orl	%esi, %edi
Ltmp3022:
	.loc	16 0 13 is_stmt 0
	movl	%edi, %esi
Ltmp3023:
	.loc	16 693 13 is_stmt 1
	cmpl	$1114112, %edi
Ltmp3024:
	je	LBB47_444
	jmp	LBB47_631
Ltmp3025:
LBB47_687:
	.loc	16 0 13 is_stmt 0
	xorl	%esi, %esi
Ltmp3026:
LBB47_688:
	.loc	16 540 18 is_stmt 1
	andl	$7, %ebx
Ltmp3027:
	shll	$18, %ebx
Ltmp3028:
	.loc	16 495 5
	shll	$6, %edi
Ltmp3029:
	orl	%ebx, %edi
Ltmp3030:
	.loc	16 540 13
	orl	%esi, %edi
Ltmp3031:
	.loc	16 0 13 is_stmt 0
	movl	%edi, %esi
Ltmp3032:
	.loc	16 693 13 is_stmt 1
	cmpl	$1114112, %edi
Ltmp3033:
	je	LBB47_501
	jmp	LBB47_649
Ltmp3034:
LBB47_689:
	.loc	16 0 13 is_stmt 0
	xorl	%esi, %esi
Ltmp3035:
LBB47_690:
	.loc	16 540 18 is_stmt 1
	andl	$7, %ebx
Ltmp3036:
	shll	$18, %ebx
Ltmp3037:
	.loc	16 495 5
	shll	$6, %edi
Ltmp3038:
	orl	%ebx, %edi
Ltmp3039:
	.loc	16 540 13
	orl	%esi, %edi
Ltmp3040:
	.loc	16 0 13 is_stmt 0
	movl	%edi, %esi
Ltmp3041:
	.loc	16 693 13 is_stmt 1
	cmpl	$1114112, %edi
Ltmp3042:
	je	LBB47_501
	jmp	LBB47_658
Ltmp3043:
LBB47_691:
	.loc	16 0 13 is_stmt 0
	xorl	%esi, %esi
Ltmp3044:
LBB47_692:
	.loc	16 540 18 is_stmt 1
	andl	$7, %ebx
Ltmp3045:
	shll	$18, %ebx
Ltmp3046:
	.loc	16 495 5
	shll	$6, %edi
Ltmp3047:
	orl	%ebx, %edi
Ltmp3048:
	.loc	16 540 13
	orl	%esi, %edi
Ltmp3049:
	.loc	16 0 13 is_stmt 0
	movl	%edi, %esi
Ltmp3050:
	.loc	16 693 13 is_stmt 1
	cmpl	$1114112, %edi
Ltmp3051:
	je	LBB47_524
	jmp	LBB47_670
Ltmp3052:
LBB47_693:
	.loc	16 0 13 is_stmt 0
	shll	$6, %ebx
Ltmp3053:
	jmp	LBB47_703
Ltmp3054:
LBB47_694:
	shll	$6, %ebx
Ltmp3055:
	jmp	LBB47_713
Ltmp3056:
LBB47_695:
	movq	%rbx, %r15
	movq	%r8, %r14
Ltmp3057:
	movq	%r9, %r13
Ltmp3058:
LBB47_696:
	.loc	31 310 19 is_stmt 1
	movl	16(%rdx), %edx
Ltmp3059:
	.loc	31 0 19 is_stmt 0
	movq	%rcx, -192(%rbp)
	movq	%rax, -184(%rbp)
Ltmp3060:
	.loc	16 2051 18 is_stmt 1
	movq	$3, -56(%rbp)
	.loc	16 2051 25 is_stmt 0
	movq	%rax, -72(%rbp)
Ltmp3061:
	.loc	16 2303 26 is_stmt 1
	cmpq	$3, %rax
	.loc	16 2303 12 is_stmt 0
	je	LBB47_698
Ltmp3062:
	.loc	16 2309 25 is_stmt 1
	cmpb	$-65, 3(%rcx)
Ltmp3063:
	.loc	16 2021 13
	jle	LBB47_744
Ltmp3064:
LBB47_698:
	.loc	32 158 9
	addq	$3, %rcx
Ltmp3065:
	.loc	16 2040 23
	addq	$-3, %rax
Ltmp3066:
	.loc	31 302 9
	movq	%rcx, (%r14)
	movq	%rax, 8(%r14)
Ltmp3067:
	.loc	31 82 26
	movl	%edx, 16(%r13)
Ltmp3068:
	.loc	31 0 0 is_stmt 0
	movl	$15, (%r15)
	jmp	LBB47_504
Ltmp3069:
LBB47_699:
	xorl	%r10d, %r10d
	movq	%r8, %r9
Ltmp3070:
	.loc	16 495 5 is_stmt 1
	shll	$6, %edi
	orl	%r10d, %edi
Ltmp3071:
	.loc	16 536 12
	cmpb	$-16, %sil
	.loc	16 536 9 is_stmt 0
	jae	LBB47_700
Ltmp3072:
LBB47_702:
	.loc	16 0 9
	shll	$12, %ebx
Ltmp3073:
LBB47_703:
	orl	%ebx, %edi
Ltmp3074:
	movl	%edi, %esi
Ltmp3075:
LBB47_704:
	.loc	31 386 16 is_stmt 1
	cmpl	$32, %esi
	.loc	31 386 13 is_stmt 0
	jne	LBB47_708
Ltmp3076:
	.loc	31 0 13
	movq	%rdx, -192(%rbp)
	incq	%rdx
Ltmp3077:
	movq	%rcx, -184(%rbp)
Ltmp3078:
	.loc	16 2051 18 is_stmt 1
	movq	$1, -56(%rbp)
	.loc	16 2051 25 is_stmt 0
	movq	%rcx, -72(%rbp)
Ltmp3079:
	.loc	16 2303 12 is_stmt 1
	cmpq	$1, %rcx
	je	LBB47_707
Ltmp3080:
	.loc	16 2309 25
	cmpb	$-65, (%rdx)
Ltmp3081:
	.loc	16 2021 13
	jle	LBB47_762
Ltmp3082:
LBB47_707:
	.loc	16 2040 23
	decq	%rcx
Ltmp3083:
	.loc	31 387 17
	movq	%rdx, (%r14)
	movq	%rcx, 8(%r14)
Ltmp3084:
	.loc	31 189 32
	movq	%r15, %rdi
	movq	%r14, %rsi
Ltmp3085:
	movl	$112, %edx
	jmp	LBB47_663
Ltmp3086:
LBB47_708:
	.loc	31 0 32 is_stmt 0
	movl	$14, %eax
	movl	$32, %ebx
	jmp	LBB47_501
Ltmp3087:
LBB47_709:
	xorl	%r10d, %r10d
	movq	%r8, %r9
Ltmp3088:
	.loc	16 495 5 is_stmt 1
	shll	$6, %edi
	orl	%r10d, %edi
Ltmp3089:
	.loc	16 536 12
	cmpb	$-16, %sil
	.loc	16 536 9 is_stmt 0
	jae	LBB47_710
Ltmp3090:
LBB47_712:
	.loc	16 0 9
	shll	$12, %ebx
Ltmp3091:
LBB47_713:
	orl	%ebx, %edi
Ltmp3092:
	movl	%edi, %esi
Ltmp3093:
LBB47_714:
	.loc	31 386 16 is_stmt 1
	cmpl	$32, %esi
	.loc	31 386 13 is_stmt 0
	jne	LBB47_725
Ltmp3094:
	.loc	31 0 13
	movq	%rdx, -192(%rbp)
	incq	%rdx
Ltmp3095:
	movq	%rcx, -184(%rbp)
Ltmp3096:
	.loc	16 2051 18 is_stmt 1
	movq	$1, -56(%rbp)
	.loc	16 2051 25 is_stmt 0
	movq	%rcx, -72(%rbp)
Ltmp3097:
	.loc	16 2303 12 is_stmt 1
	cmpq	$1, %rcx
	je	LBB47_717
Ltmp3098:
	.loc	16 2309 25
	cmpb	$-65, (%rdx)
Ltmp3099:
	.loc	16 2021 13
	jle	LBB47_762
Ltmp3100:
LBB47_717:
	.loc	16 2040 23
	decq	%rcx
Ltmp3101:
	.loc	16 0 23 is_stmt 0
	movq	%r14, %rbx
Ltmp3102:
	.loc	31 387 17 is_stmt 1
	movq	%rdx, (%r14)
	movq	%rcx, 8(%r14)
Ltmp3103:
	.loc	31 0 17 is_stmt 0
	leaq	-224(%rbp), %rdi
Ltmp3104:
	.loc	31 96 32 is_stmt 1
	movq	%r14, %rsi
Ltmp3105:
	movl	$84, %edx
	movq	%r13, %rcx
Ltmp3106:
	callq	__ZN4time5parse10parse_type17h60011e472063ce47E
Ltmp3107:
	.loc	21 729 13
	movl	-224(%rbp), %eax
Ltmp3108:
	cmpl	$15, %eax
	jne	LBB47_527
Ltmp3109:
	.loc	21 0 13 is_stmt 0
	movq	%r15, %rdi
Ltmp3110:
	.loc	31 384 11 is_stmt 1
	movq	8(%rbx), %rcx
Ltmp3111:
	.loc	31 0 11 is_stmt 0
	movl	$10, %eax
Ltmp3112:
	.loc	24 3179 9 is_stmt 1
	testq	%rcx, %rcx
	.loc	24 3303 21
	je	LBB47_726
Ltmp3113:
	.loc	24 0 21 is_stmt 0
	movq	%rbx, %r14
Ltmp3114:
	movq	(%rbx), %rdx
Ltmp3115:
	.loc	16 519 13 is_stmt 1
	movzbl	(%rdx), %esi
Ltmp3116:
	.loc	16 520 8
	testb	%sil, %sil
	.loc	16 520 5 is_stmt 0
	jns	LBB47_737
Ltmp3117:
	.loc	31 0 0
	leaq	(%rdx,%rcx), %r8
Ltmp3118:
	xorl	%r11d, %r11d
Ltmp3119:
	movq	%r8, %r9
Ltmp3120:
	.loc	24 3179 9 is_stmt 1
	cmpq	$1, %rcx
	.loc	24 3303 21
	je	LBB47_722
Ltmp3121:
	.loc	23 152 9
	leaq	2(%rdx), %r9
Ltmp3122:
	.loc	16 508 15
	movzbl	1(%rdx), %r11d
	.loc	16 507 5
	andl	$63, %r11d
Ltmp3123:
LBB47_722:
	.loc	16 0 0 is_stmt 0
	movl	%esi, %ebx
	andl	$31, %ebx
Ltmp3124:
	.loc	16 530 8 is_stmt 1
	cmpb	$-33, %sil
	.loc	16 530 5 is_stmt 0
	jbe	LBB47_731
Ltmp3125:
	.loc	24 3179 9 is_stmt 1
	cmpq	%r8, %r9
	.loc	24 3303 21
	je	LBB47_732
Ltmp3126:
	.loc	16 508 15
	movzbl	(%r9), %r10d
Ltmp3127:
	.loc	23 152 9
	incq	%r9
Ltmp3128:
	.loc	16 507 5
	andl	$63, %r10d
Ltmp3129:
	.loc	16 495 5
	shll	$6, %r11d
	orl	%r10d, %r11d
Ltmp3130:
	.loc	16 536 12
	cmpb	$-16, %sil
	.loc	16 536 9 is_stmt 0
	jb	LBB47_735
Ltmp3131:
LBB47_733:
	.loc	24 3179 9 is_stmt 1
	cmpq	%r8, %r9
	.loc	24 3303 21
	je	LBB47_742
Ltmp3132:
	.loc	16 508 15
	movzbl	(%r9), %esi
Ltmp3133:
	.loc	16 507 5
	andl	$63, %esi
	jmp	LBB47_743
Ltmp3134:
LBB47_725:
	.loc	16 0 5 is_stmt 0
	movl	$14, %eax
	movl	$32, %ebx
	jmp	LBB47_526
Ltmp3135:
LBB47_726:
	movq	%rdi, %r15
	jmp	LBB47_501
Ltmp3136:
LBB47_727:
	xorl	%esi, %esi
Ltmp3137:
LBB47_728:
	.loc	16 540 18 is_stmt 1
	andl	$7, %ebx
Ltmp3138:
	shll	$18, %ebx
Ltmp3139:
	.loc	16 495 5
	shll	$6, %edi
Ltmp3140:
	orl	%ebx, %edi
Ltmp3141:
	.loc	16 540 13
	orl	%esi, %edi
Ltmp3142:
	.loc	16 0 13 is_stmt 0
	movl	%edi, %esi
Ltmp3143:
	.loc	16 693 13 is_stmt 1
	cmpl	$1114112, %edi
Ltmp3144:
	je	LBB47_501
	jmp	LBB47_704
Ltmp3145:
LBB47_729:
	.loc	16 0 13 is_stmt 0
	xorl	%esi, %esi
Ltmp3146:
LBB47_730:
	.loc	16 540 18 is_stmt 1
	andl	$7, %ebx
Ltmp3147:
	shll	$18, %ebx
Ltmp3148:
	.loc	16 495 5
	shll	$6, %edi
Ltmp3149:
	orl	%ebx, %edi
Ltmp3150:
	.loc	16 540 13
	orl	%esi, %edi
Ltmp3151:
	.loc	16 0 13 is_stmt 0
	movl	%edi, %esi
Ltmp3152:
	.loc	16 693 13 is_stmt 1
	cmpl	$1114112, %edi
Ltmp3153:
	je	LBB47_526
	jmp	LBB47_714
Ltmp3154:
LBB47_731:
	.loc	16 0 13 is_stmt 0
	shll	$6, %ebx
Ltmp3155:
	jmp	LBB47_736
Ltmp3156:
LBB47_732:
	xorl	%r10d, %r10d
	movq	%r8, %r9
Ltmp3157:
	.loc	16 495 5 is_stmt 1
	shll	$6, %r11d
	orl	%r10d, %r11d
Ltmp3158:
	.loc	16 536 12
	cmpb	$-16, %sil
	.loc	16 536 9 is_stmt 0
	jae	LBB47_733
Ltmp3159:
LBB47_735:
	.loc	16 0 9
	shll	$12, %ebx
Ltmp3160:
LBB47_736:
	orl	%ebx, %r11d
Ltmp3161:
	movl	%r11d, %esi
Ltmp3162:
LBB47_737:
	.loc	31 386 16 is_stmt 1
	cmpl	$32, %esi
	.loc	31 386 13 is_stmt 0
	jne	LBB47_741
Ltmp3163:
	.loc	31 0 13
	movq	%rdx, -192(%rbp)
	incq	%rdx
Ltmp3164:
	movq	%rcx, -184(%rbp)
Ltmp3165:
	.loc	16 2051 18 is_stmt 1
	movq	$1, -56(%rbp)
	.loc	16 2051 25 is_stmt 0
	movq	%rcx, -72(%rbp)
Ltmp3166:
	.loc	16 2303 12 is_stmt 1
	cmpq	$1, %rcx
	je	LBB47_740
Ltmp3167:
	.loc	16 2309 25
	cmpb	$-65, (%rdx)
Ltmp3168:
	.loc	16 2021 13
	jle	LBB47_762
Ltmp3169:
LBB47_740:
	.loc	16 2040 23
	decq	%rcx
Ltmp3170:
	.loc	16 0 23 is_stmt 0
	movq	%r14, %rsi
Ltmp3171:
	.loc	31 387 17 is_stmt 1
	movq	%rdx, (%r14)
	movq	%rcx, 8(%r14)
	jmp	LBB47_662
Ltmp3172:
LBB47_741:
	.loc	31 0 17 is_stmt 0
	movl	$14, %eax
	movl	$32, %ebx
	movq	%rdi, %r15
	jmp	LBB47_501
Ltmp3173:
LBB47_742:
	xorl	%esi, %esi
Ltmp3174:
LBB47_743:
	.loc	16 540 18 is_stmt 1
	andl	$7, %ebx
Ltmp3175:
	shll	$18, %ebx
Ltmp3176:
	.loc	16 495 5
	shll	$6, %r11d
Ltmp3177:
	orl	%ebx, %r11d
Ltmp3178:
	.loc	16 540 13
	orl	%esi, %r11d
Ltmp3179:
	.loc	16 0 13 is_stmt 0
	movl	%r11d, %esi
Ltmp3180:
	.loc	16 693 13 is_stmt 1
	cmpl	$1114112, %r11d
Ltmp3181:
	.loc	16 0 13 is_stmt 0
	movq	%rdi, %r15
	.loc	16 693 13
	je	LBB47_501
	jmp	LBB47_737
Ltmp3182:
LBB47_744:
	.loc	16 0 13
	leaq	-192(%rbp), %rax
	movq	%rax, -144(%rbp)
	leaq	-56(%rbp), %rax
	movq	%rax, -136(%rbp)
	leaq	-72(%rbp), %rax
	movq	%rax, -128(%rbp)
	leaq	-144(%rbp), %rdi
	callq	__ZN4core3str6traits105_$LT$impl$u20$core..slice..SliceIndex$LT$str$GT$$u20$for$u20$core..ops..range..RangeFrom$LT$usize$GT$$GT$5index28_$u7b$$u7b$closure$u7d$$u7d$17h0dd8f8b02a460f64E
Ltmp3183:
LBB47_745:
	.loc	31 363 17 is_stmt 1
	leaq	_str.5(%rip), %rdi
Ltmp3184:
	leaq	l___unnamed_149(%rip), %rdx
	movl	$28, %esi
	callq	__ZN4core9panicking5panic17h736ee47a631475c0E
Ltmp3185:
LBB47_746:
	.loc	31 0 17 is_stmt 0
	leaq	-72(%rbp), %rbx
Ltmp3186:
	.loc	1 287 47 is_stmt 1
	movq	%rbx, %rdi
	callq	__ZN3std2io5error5Error13last_os_error17h5c14d716e3637a11E
Ltmp3187:
	.loc	1 287 17 is_stmt 0
	movq	%rbx, -56(%rbp)
	movq	__ZN60_$LT$std..io..error..Error$u20$as$u20$core..fmt..Display$GT$3fmt17hd5a23906ccc4fffdE@GOTPCREL(%rip), %rax
	movq	%rax, -48(%rbp)
Ltmp3188:
	.loc	11 328 9 is_stmt 1
	leaq	l___unnamed_150(%rip), %rax
Ltmp3189:
	movq	%rax, -192(%rbp)
	movq	$1, -184(%rbp)
	movq	$0, -176(%rbp)
	leaq	-56(%rbp), %rax
Ltmp3190:
	movq	%rax, -160(%rbp)
	movq	$1, -152(%rbp)
Ltmp3191:
Ltmp1218:
	.loc	1 287 17
	leaq	l___unnamed_151(%rip), %rsi
	leaq	-192(%rbp), %rdi
	callq	__ZN3std9panicking15begin_panic_fmt17h2e6dba6f5c07d155E
Ltmp1219:
Ltmp3192:
	.loc	1 0 17 is_stmt 0
	ud2
Ltmp3193:
LBB47_748:
	.loc	31 237 43 is_stmt 1
	leaq	_str.0(%rip), %rdi
	leaq	l___unnamed_152(%rip), %rdx
	movl	$33, %esi
	callq	__ZN4core9panicking5panic17h736ee47a631475c0E
Ltmp3194:
LBB47_749:
	.loc	31 86 26
	leaq	_str.5(%rip), %rdi
	leaq	l___unnamed_153(%rip), %rdx
Ltmp3195:
	movl	$28, %esi
	callq	__ZN4core9panicking5panic17h736ee47a631475c0E
Ltmp3196:
LBB47_750:
	.loc	31 0 26 is_stmt 0
	leaq	-192(%rbp), %rax
	movq	%rax, -144(%rbp)
	leaq	-224(%rbp), %rax
	movq	%rax, -136(%rbp)
	leaq	-88(%rbp), %rax
	movq	%rax, -128(%rbp)
	leaq	-144(%rbp), %rdi
	callq	__ZN4core3str6traits105_$LT$impl$u20$core..slice..SliceIndex$LT$str$GT$$u20$for$u20$core..ops..range..RangeFrom$LT$usize$GT$$GT$5index28_$u7b$$u7b$closure$u7d$$u7d$17h0dd8f8b02a460f64E
Ltmp3197:
LBB47_751:
	.loc	31 174 26 is_stmt 1
	leaq	_str.5(%rip), %rdi
	leaq	l___unnamed_154(%rip), %rdx
	movl	$28, %esi
	callq	__ZN4core9panicking5panic17h736ee47a631475c0E
Ltmp3198:
LBB47_752:
	.loc	31 290 40
	leaq	_str.3(%rip), %rdi
	leaq	l___unnamed_155(%rip), %rdx
	movl	$33, %esi
	callq	__ZN4core9panicking5panic17h736ee47a631475c0E
Ltmp3199:
LBB47_753:
	.loc	31 290 58 is_stmt 0
	leaq	_str.3(%rip), %rdi
	leaq	l___unnamed_156(%rip), %rdx
Ltmp3200:
	movl	$33, %esi
	callq	__ZN4core9panicking5panic17h736ee47a631475c0E
Ltmp3201:
LBB47_754:
	.loc	31 290 39
	leaq	_str.5(%rip), %rdi
	leaq	l___unnamed_157(%rip), %rdx
Ltmp3202:
	movl	$28, %esi
	callq	__ZN4core9panicking5panic17h736ee47a631475c0E
Ltmp3203:
LBB47_755:
	.loc	31 290 32
	leaq	_str.3(%rip), %rdi
	leaq	l___unnamed_158(%rip), %rdx
Ltmp3204:
	movl	$33, %esi
	callq	__ZN4core9panicking5panic17h736ee47a631475c0E
Ltmp3205:
LBB47_756:
	.loc	31 0 32
	leaq	-192(%rbp), %rax
Ltmp3206:
	.loc	5 430 21 is_stmt 1
	movq	%rax, -144(%rbp)
	leaq	-88(%rbp), %rax
	movq	%rax, -136(%rbp)
	leaq	-56(%rbp), %rax
Ltmp3207:
	.loc	31 0 0 is_stmt 0
	movq	%rax, -128(%rbp)
	leaq	-144(%rbp), %rdi
	callq	__ZN4core3str6traits105_$LT$impl$u20$core..slice..SliceIndex$LT$str$GT$$u20$for$u20$core..ops..range..RangeFrom$LT$usize$GT$$GT$5index28_$u7b$$u7b$closure$u7d$$u7d$17h0dd8f8b02a460f64E
Ltmp3208:
LBB47_757:
	leaq	-192(%rbp), %rax
Ltmp3209:
	.loc	5 430 21
	movq	%rax, -144(%rbp)
	leaq	-232(%rbp), %rax
	movq	%rax, -136(%rbp)
	leaq	-224(%rbp), %rax
Ltmp3210:
	.loc	31 0 0
	movq	%rax, -128(%rbp)
	leaq	-144(%rbp), %rdi
	callq	__ZN4core3str6traits105_$LT$impl$u20$core..slice..SliceIndex$LT$str$GT$$u20$for$u20$core..ops..range..RangeFrom$LT$usize$GT$$GT$5index28_$u7b$$u7b$closure$u7d$$u7d$17h0dd8f8b02a460f64E
Ltmp3211:
LBB47_758:
	leaq	-192(%rbp), %rax
Ltmp3212:
	.loc	5 430 21
	movq	%rax, -144(%rbp)
	leaq	-248(%rbp), %rax
	movq	%rax, -136(%rbp)
	leaq	-232(%rbp), %rax
Ltmp3213:
	.loc	31 0 0
	movq	%rax, -128(%rbp)
	leaq	-144(%rbp), %rdi
	callq	__ZN4core3str6traits105_$LT$impl$u20$core..slice..SliceIndex$LT$str$GT$$u20$for$u20$core..ops..range..RangeFrom$LT$usize$GT$$GT$5index28_$u7b$$u7b$closure$u7d$$u7d$17h0dd8f8b02a460f64E
Ltmp3214:
LBB47_759:
	leaq	-192(%rbp), %rax
	movq	%rax, -144(%rbp)
	leaq	-88(%rbp), %rax
	movq	%rax, -136(%rbp)
	movq	%r12, -128(%rbp)
	leaq	-144(%rbp), %rdi
	callq	__ZN4core3str6traits105_$LT$impl$u20$core..slice..SliceIndex$LT$str$GT$$u20$for$u20$core..ops..range..RangeFrom$LT$usize$GT$$GT$5index28_$u7b$$u7b$closure$u7d$$u7d$17h0dd8f8b02a460f64E
Ltmp3215:
LBB47_760:
	leaq	-192(%rbp), %rax
Ltmp3216:
	.loc	5 430 21
	movq	%rax, -144(%rbp)
	leaq	-224(%rbp), %rax
Ltmp3217:
	.loc	31 0 0
	movq	%rax, -136(%rbp)
	movq	%r12, -128(%rbp)
	leaq	-144(%rbp), %rdi
	callq	__ZN4core3str6traits105_$LT$impl$u20$core..slice..SliceIndex$LT$str$GT$$u20$for$u20$core..ops..range..RangeFrom$LT$usize$GT$$GT$5index28_$u7b$$u7b$closure$u7d$$u7d$17h0dd8f8b02a460f64E
Ltmp3218:
LBB47_761:
	leaq	-192(%rbp), %rax
Ltmp3219:
	.loc	5 430 21
	movq	%rax, -144(%rbp)
	leaq	-232(%rbp), %rax
Ltmp3220:
	.loc	31 0 0
	movq	%rax, -136(%rbp)
	movq	%r12, -128(%rbp)
	leaq	-144(%rbp), %rdi
	callq	__ZN4core3str6traits105_$LT$impl$u20$core..slice..SliceIndex$LT$str$GT$$u20$for$u20$core..ops..range..RangeFrom$LT$usize$GT$$GT$5index28_$u7b$$u7b$closure$u7d$$u7d$17h0dd8f8b02a460f64E
Ltmp3221:
LBB47_762:
	leaq	-192(%rbp), %rax
	movq	%rax, -144(%rbp)
	leaq	-56(%rbp), %rax
	movq	%rax, -136(%rbp)
	movq	%r12, -128(%rbp)
	leaq	-144(%rbp), %rdi
	callq	__ZN4core3str6traits105_$LT$impl$u20$core..slice..SliceIndex$LT$str$GT$$u20$for$u20$core..ops..range..RangeFrom$LT$usize$GT$$GT$5index28_$u7b$$u7b$closure$u7d$$u7d$17h0dd8f8b02a460f64E
Ltmp3222:
LBB47_763:
Ltmp1220:
	movq	%rax, %rbx
	leaq	-72(%rbp), %rdi
Ltmp3223:
	.loc	1 287 17 is_stmt 1
	callq	__ZN4core3ptr13drop_in_place17h34bad5a43b19ceebE
	movq	%rbx, %rdi
	callq	__Unwind_Resume
	ud2
Ltmp3224:
Lfunc_end47:
	.cfi_endproc
	.p2align	2, 0x90
	.data_region jt32
.set L47_0_set_118, LBB47_118-LJTI47_0
.set L47_0_set_214, LBB47_214-LJTI47_0
.set L47_0_set_135, LBB47_135-LJTI47_0
.set L47_0_set_106, LBB47_106-LJTI47_0
.set L47_0_set_148, LBB47_148-LJTI47_0
.set L47_0_set_2, LBB47_2-LJTI47_0
.set L47_0_set_137, LBB47_137-LJTI47_0
.set L47_0_set_145, LBB47_145-LJTI47_0
.set L47_0_set_168, LBB47_168-LJTI47_0
.set L47_0_set_165, LBB47_165-LJTI47_0
.set L47_0_set_85, LBB47_85-LJTI47_0
.set L47_0_set_98, LBB47_98-LJTI47_0
.set L47_0_set_92, LBB47_92-LJTI47_0
.set L47_0_set_10, LBB47_10-LJTI47_0
.set L47_0_set_125, LBB47_125-LJTI47_0
.set L47_0_set_169, LBB47_169-LJTI47_0
.set L47_0_set_153, LBB47_153-LJTI47_0
.set L47_0_set_18, LBB47_18-LJTI47_0
.set L47_0_set_188, LBB47_188-LJTI47_0
.set L47_0_set_46, LBB47_46-LJTI47_0
.set L47_0_set_81, LBB47_81-LJTI47_0
.set L47_0_set_48, LBB47_48-LJTI47_0
.set L47_0_set_95, LBB47_95-LJTI47_0
.set L47_0_set_47, LBB47_47-LJTI47_0
.set L47_0_set_199, LBB47_199-LJTI47_0
.set L47_0_set_196, LBB47_196-LJTI47_0
.set L47_0_set_74, LBB47_74-LJTI47_0
.set L47_0_set_87, LBB47_87-LJTI47_0
.set L47_0_set_110, LBB47_110-LJTI47_0
.set L47_0_set_89, LBB47_89-LJTI47_0
.set L47_0_set_207, LBB47_207-LJTI47_0
.set L47_0_set_71, LBB47_71-LJTI47_0
.set L47_0_set_155, LBB47_155-LJTI47_0
.set L47_0_set_203, LBB47_203-LJTI47_0
.set L47_0_set_20, LBB47_20-LJTI47_0
.set L47_0_set_128, LBB47_128-LJTI47_0
LJTI47_0:
	.long	L47_0_set_118
	.long	L47_0_set_214
	.long	L47_0_set_214
	.long	L47_0_set_214
	.long	L47_0_set_214
	.long	L47_0_set_214
	.long	L47_0_set_214
	.long	L47_0_set_214
	.long	L47_0_set_214
	.long	L47_0_set_214
	.long	L47_0_set_214
	.long	L47_0_set_214
	.long	L47_0_set_214
	.long	L47_0_set_214
	.long	L47_0_set_214
	.long	L47_0_set_214
	.long	L47_0_set_214
	.long	L47_0_set_214
	.long	L47_0_set_214
	.long	L47_0_set_214
	.long	L47_0_set_214
	.long	L47_0_set_214
	.long	L47_0_set_214
	.long	L47_0_set_214
	.long	L47_0_set_214
	.long	L47_0_set_214
	.long	L47_0_set_214
	.long	L47_0_set_214
	.long	L47_0_set_135
	.long	L47_0_set_106
	.long	L47_0_set_148
	.long	L47_0_set_2
	.long	L47_0_set_214
	.long	L47_0_set_137
	.long	L47_0_set_214
	.long	L47_0_set_145
	.long	L47_0_set_168
	.long	L47_0_set_214
	.long	L47_0_set_214
	.long	L47_0_set_214
	.long	L47_0_set_165
	.long	L47_0_set_214
	.long	L47_0_set_214
	.long	L47_0_set_85
	.long	L47_0_set_214
	.long	L47_0_set_98
	.long	L47_0_set_92
	.long	L47_0_set_10
	.long	L47_0_set_214
	.long	L47_0_set_214
	.long	L47_0_set_214
	.long	L47_0_set_10
	.long	L47_0_set_125
	.long	L47_0_set_169
	.long	L47_0_set_214
	.long	L47_0_set_214
	.long	L47_0_set_214
	.long	L47_0_set_214
	.long	L47_0_set_214
	.long	L47_0_set_214
	.long	L47_0_set_153
	.long	L47_0_set_18
	.long	L47_0_set_188
	.long	L47_0_set_46
	.long	L47_0_set_81
	.long	L47_0_set_48
	.long	L47_0_set_214
	.long	L47_0_set_18
	.long	L47_0_set_214
	.long	L47_0_set_95
	.long	L47_0_set_47
	.long	L47_0_set_199
	.long	L47_0_set_196
	.long	L47_0_set_74
	.long	L47_0_set_214
	.long	L47_0_set_87
	.long	L47_0_set_214
	.long	L47_0_set_110
	.long	L47_0_set_89
	.long	L47_0_set_207
	.long	L47_0_set_71
	.long	L47_0_set_155
	.long	L47_0_set_203
	.long	L47_0_set_2
	.long	L47_0_set_20
	.long	L47_0_set_128
	.end_data_region
	.file	33 "/rustc/a74d1862d4d87a56244958416fd05976c58ca1a8/src/libcore/str/pattern.rs"
	.file	34 "/rustc/a74d1862d4d87a56244958416fd05976c58ca1a8/src/libcore/iter/traits/iterator.rs"
	.section	__TEXT,__gcc_except_tab
	.p2align	2
GCC_except_table47:
Lexception2:
	.byte	255
	.byte	255
	.byte	1
	.uleb128 Lcst_end2-Lcst_begin2
Lcst_begin2:
	.uleb128 Lfunc_begin47-Lfunc_begin47
	.uleb128 Ltmp1218-Lfunc_begin47
	.byte	0
	.byte	0
	.uleb128 Ltmp1218-Lfunc_begin47
	.uleb128 Ltmp1219-Ltmp1218
	.uleb128 Ltmp1220-Lfunc_begin47
	.byte	0
	.uleb128 Ltmp1219-Lfunc_begin47
	.uleb128 Lfunc_end47-Ltmp1219
	.byte	0
	.byte	0
Lcst_end2:
	.p2align	2

	.section	__TEXT,__text,regular,pure_instructions
	.p2align	4, 0x90
__ZN4time5parse16match_digits_i6417hb424fd3ff42a455cE:
Lfunc_begin48:
	.loc	31 325 0
	.cfi_startproc
	pushq	%rbp
	.cfi_def_cfa_offset 16
	.cfi_offset %rbp, -16
	movq	%rsp, %rbp
	.cfi_def_cfa_register %rbp
	pushq	%r15
	pushq	%r14
	pushq	%r13
	pushq	%r12
	pushq	%rbx
	subq	$328, %rsp
	.cfi_offset %rbx, -56
	.cfi_offset %r12, -48
	.cfi_offset %r13, -40
	.cfi_offset %r14, -32
	.cfi_offset %r15, -24
	movq	%rdx, %r13
Ltmp3225:
	.loc	31 328 5 prologue_end
	testl	%ecx, %ecx
	je	LBB48_58
Ltmp3226:
	.loc	31 0 5 is_stmt 0
	movq	%rsi, -216(%rbp)
Ltmp3227:
	movq	%r13, -64(%rbp)
Ltmp3228:
	.loc	31 330 18 is_stmt 1
	movq	(%rdi), %rsi
Ltmp3229:
	.loc	31 0 18 is_stmt 0
	movq	%rdi, -72(%rbp)
Ltmp3230:
	.loc	31 330 18
	movq	8(%rdi), %rdx
Ltmp3231:
	.loc	33 830 9 is_stmt 1
	leaq	l___unnamed_50(%rip), %rcx
Ltmp3232:
	.loc	33 0 9 is_stmt 0
	leaq	-208(%rbp), %rdi
	.loc	33 830 9
	movl	$1, %r8d
	movq	%rdx, -56(%rbp)
Ltmp3233:
	callq	__ZN4core3str7pattern11StrSearcher3new17hf20175b25b057116E
Ltmp3234:
	.loc	33 931 13 is_stmt 1
	movq	-176(%rbp), %r10
Ltmp3235:
	.loc	33 0 0 is_stmt 0
	movq	-168(%rbp), %r8
Ltmp3236:
	movq	-208(%rbp), %r12
Ltmp3237:
	movq	-200(%rbp), %rsi
Ltmp3238:
	movq	%r8, %rax
	subq	$1, %rax
	movq	%rax, -336(%rbp)
	setb	%al
	cmpq	%r8, %rsi
	sete	%r9b
	orb	%al, %r9b
Ltmp3239:
	leaq	(%r12,%r8), %r15
Ltmp3240:
	leaq	(%r12,%rsi), %rax
	movq	%rax, -232(%rbp)
Ltmp3241:
	leaq	1(%r12,%r8), %rdi
Ltmp3242:
	leaq	2(%r12,%r8), %rax
	movq	%rax, -352(%rbp)
Ltmp3243:
	movq	-192(%rbp), %rax
Ltmp3244:
	.loc	33 1284 17 is_stmt 1
	movq	-136(%rbp), %r14
Ltmp3245:
	.loc	33 209 9
	movq	%r14, %rcx
	subq	%r8, %rcx
	movq	%rcx, -296(%rbp)
Ltmp3246:
	.loc	33 0 0 is_stmt 0
	movq	-184(%rbp), %r11
Ltmp3247:
	movq	-144(%rbp), %rcx
Ltmp3248:
	movq	%rcx, -320(%rbp)
Ltmp3249:
	leaq	-1(%r11), %rcx
	movq	%rcx, -304(%rbp)
Ltmp3250:
	.loc	33 1286 21 is_stmt 1
	movq	-120(%rbp), %rcx
	movq	%rcx, -80(%rbp)
Ltmp3251:
	.loc	33 209 9
	leaq	(%r12,%r14), %rcx
	movq	%rcx, -240(%rbp)
	movq	%rax, -104(%rbp)
	addq	%r8, %rax
Ltmp3252:
	.loc	33 0 9 is_stmt 0
	movq	%rax, -344(%rbp)
	movq	%r10, -224(%rbp)
	movq	%rdi, -312(%rbp)
Ltmp3253:
LBB48_2:
	.loc	33 934 17 is_stmt 1
	movb	-152(%rbp), %bl
	movq	%r14, -88(%rbp)
Ltmp3254:
	.loc	33 0 17 is_stmt 0
	movl	%ebx, %ecx
Ltmp3255:
	testq	%r10, %r10
Ltmp3256:
	.loc	33 931 13 is_stmt 1
	je	LBB48_11
Ltmp3257:
	.p2align	4, 0x90
LBB48_3:
	.loc	33 934 17
	movb	%cl, -152(%rbp)
Ltmp3258:
	.loc	33 951 20
	cmpq	%rsi, %r14
	.loc	33 951 17 is_stmt 0
	je	LBB48_78
Ltmp3259:
	.loc	33 1270 48 is_stmt 1
	leaq	-1(%r14,%r11), %rdi
Ltmp3260:
	.loc	24 2851 12
	cmpq	%rsi, %rdi
	movq	-80(%rbp), %rcx
Ltmp3261:
	.loc	33 1271 17
	jae	LBB48_79
Ltmp3262:
	.loc	33 0 0 is_stmt 0
	leaq	(%r14,%r11), %r13
Ltmp3263:
	movq	-152(%rbp), %rax
	leaq	(%rax,%r14), %rdx
	movq	%rdx, -288(%rbp)
Ltmp3264:
	.loc	33 954 31 is_stmt 1
	cmpq	$-1, %rcx
	movb	%r9b, -41(%rbp)
Ltmp3265:
	.loc	33 1271 17
	je	LBB48_42
Ltmp3266:
	.loc	33 0 17 is_stmt 0
	movq	%r11, %rdx
	subq	%rax, %rdx
	movq	%rdx, -328(%rbp)
	movq	%rcx, %r9
	movq	%r14, %rcx
	movq	-104(%rbp), %rdx
	movq	%r13, -88(%rbp)
Ltmp3267:
	.loc	33 1278 41 is_stmt 1
	cmpq	%rcx, %r14
	.loc	33 1278 13 is_stmt 0
