	.section	__TEXT,__text,regular,pure_instructions
	.macosx_version_min 10, 7
	.globl	__ZN11unicode_xid6tables16derived_property12XID_Continue17h5bfb4c33e831b70bE
	.p2align	4, 0x90
__ZN11unicode_xid6tables16derived_property12XID_Continue17h5bfb4c33e831b70bE:
Lfunc_begin0:
	.file	1 "/Users/yingyuhang/.cargo/registry/src/github.com-1ecc6299db9ec823/unicode-xid-0.2.1/src/tables.rs"
	.loc	1 780 0
	.cfi_startproc
	pushq	%rbp
	.cfi_def_cfa_offset 16
	.cfi_offset %rbp, -16
	movq	%rsp, %rbp
	.cfi_def_cfa_register %rbp
Ltmp0:
	xorl	%eax, %eax
Ltmp1:
	.loc	1 28 12 prologue_end
	cmpl	$43052, %edi
	movl	$368, %ecx
Ltmp2:
	.file	2 "/rustc/a74d1862d4d87a56244958416fd05976c58ca1a8/src/libcore/slice/mod.rs"
	.loc	2 1555 20
	cmovbq	%rax, %rcx
Ltmp3:
	.loc	2 1554 23
	leaq	l___unnamed_1(%rip), %rax
Ltmp4:
	.loc	1 28 12
	cmpl	%edi, 1472(%rax,%rcx,8)
Ltmp5:
	.loc	2 1550 23
	leaq	184(%rcx), %rdx
Ltmp6:
	.loc	2 1555 20
	cmovaq	%rcx, %rdx
Ltmp7:
	.loc	1 28 12
	cmpl	%edi, 736(%rax,%rdx,8)
Ltmp8:
	.loc	2 1550 23
	leaq	92(%rdx), %rcx
Ltmp9:
	.loc	2 1555 20
	cmovaq	%rdx, %rcx
Ltmp10:
	.loc	1 28 12
	cmpl	%edi, 368(%rax,%rcx,8)
Ltmp11:
	.loc	2 1550 23
	leaq	46(%rcx), %rdx
Ltmp12:
	.loc	2 1555 20
	cmovaq	%rcx, %rdx
Ltmp13:
	.loc	1 28 12
	cmpl	%edi, 184(%rax,%rdx,8)
Ltmp14:
	.loc	2 1550 23
	leaq	23(%rdx), %rcx
Ltmp15:
	.loc	2 1555 20
	cmovaq	%rdx, %rcx
Ltmp16:
	.loc	1 28 12
	cmpl	%edi, 96(%rax,%rcx,8)
Ltmp17:
	.loc	2 1550 23
	leaq	12(%rcx), %rdx
Ltmp18:
	.loc	2 1555 20
	cmovaq	%rcx, %rdx
Ltmp19:
	.loc	1 28 12
	cmpl	%edi, 48(%rax,%rdx,8)
Ltmp20:
	.loc	2 1550 23
	leaq	6(%rdx), %rcx
Ltmp21:
	.loc	2 1555 20
	cmovaq	%rdx, %rcx
Ltmp22:
	.loc	1 28 12
	cmpl	%edi, 24(%rax,%rcx,8)
Ltmp23:
	.loc	2 1550 23
	leaq	3(%rcx), %rdx
Ltmp24:
	.loc	2 1555 20
	cmovaq	%rcx, %rdx
Ltmp25:
	.loc	1 28 12
	cmpl	%edi, 8(%rax,%rdx,8)
Ltmp26:
	.loc	2 1550 23
	leaq	1(%rdx), %rcx
Ltmp27:
	.loc	2 1555 20
	cmovaq	%rdx, %rcx
Ltmp28:
	.loc	1 28 12
	cmpl	%edi, 8(%rax,%rcx,8)
Ltmp29:
	.loc	2 1550 23
	leaq	1(%rcx), %rdx
Ltmp30:
	.loc	2 1555 20
	cmovaq	%rcx, %rdx
Ltmp31:
	.loc	1 28 12
	cmpl	%edi, (%rax,%rdx,8)
	setbe	%cl
	.loc	1 28 9 is_stmt 0
	cmpl	%edi, 4(%rax,%rdx,8)
	setae	%al
Ltmp32:
	.file	3 "/rustc/a74d1862d4d87a56244958416fd05976c58ca1a8/src/libcore/cmp.rs"
	.loc	3 320 23 is_stmt 1
	andb	%cl, %al
Ltmp33:
	.loc	1 782 6
	popq	%rbp
	retq
Ltmp34:
Lfunc_end0:
	.cfi_endproc

	.globl	__ZN11unicode_xid6tables16derived_property9XID_Start17h293381e07de22a10E
	.p2align	4, 0x90
__ZN11unicode_xid6tables16derived_property9XID_Start17h293381e07de22a10E:
Lfunc_begin1:
	.loc	1 1416 0
	.cfi_startproc
	pushq	%rbp
	.cfi_def_cfa_offset 16
	.cfi_offset %rbp, -16
	movq	%rsp, %rbp
	.cfi_def_cfa_register %rbp
Ltmp35:
	xorl	%eax, %eax
Ltmp36:
	.loc	1 28 12 prologue_end
	cmpl	$43020, %edi
	movl	$314, %ecx
Ltmp37:
	.loc	2 1555 20
	cmovbq	%rax, %rcx
Ltmp38:
	.loc	2 1554 23
	leaq	l___unnamed_2(%rip), %rax
Ltmp39:
	.loc	1 28 12
	cmpl	%edi, 1256(%rax,%rcx,8)
Ltmp40:
	.loc	2 1550 23
	leaq	157(%rcx), %rdx
Ltmp41:
	.loc	2 1555 20
	cmovaq	%rcx, %rdx
Ltmp42:
	.loc	1 28 12
	cmpl	%edi, 632(%rax,%rdx,8)
Ltmp43:
	.loc	2 1550 23
	leaq	79(%rdx), %rcx
Ltmp44:
	.loc	2 1555 20
	cmovaq	%rdx, %rcx
Ltmp45:
	.loc	1 28 12
	cmpl	%edi, 312(%rax,%rcx,8)
Ltmp46:
	.loc	2 1550 23
	leaq	39(%rcx), %rdx
Ltmp47:
	.loc	2 1555 20
	cmovaq	%rcx, %rdx
Ltmp48:
	.loc	1 28 12
	cmpl	%edi, 160(%rax,%rdx,8)
Ltmp49:
	.loc	2 1550 23
	leaq	20(%rdx), %rcx
Ltmp50:
	.loc	2 1555 20
	cmovaq	%rdx, %rcx
Ltmp51:
	.loc	1 28 12
	cmpl	%edi, 80(%rax,%rcx,8)
Ltmp52:
	.loc	2 1550 23
	leaq	10(%rcx), %rdx
Ltmp53:
	.loc	2 1555 20
	cmovaq	%rcx, %rdx
Ltmp54:
	.loc	1 28 12
	cmpl	%edi, 40(%rax,%rdx,8)
Ltmp55:
	.loc	2 1550 23
	leaq	5(%rdx), %rcx
Ltmp56:
	.loc	2 1555 20
	cmovaq	%rdx, %rcx
Ltmp57:
	.loc	1 28 12
	cmpl	%edi, 16(%rax,%rcx,8)
Ltmp58:
	.loc	2 1550 23
	leaq	2(%rcx), %rdx
Ltmp59:
	.loc	2 1555 20
	cmovaq	%rcx, %rdx
Ltmp60:
	.loc	1 28 12
	cmpl	%edi, 8(%rax,%rdx,8)
Ltmp61:
	.loc	2 1550 23
	leaq	1(%rdx), %rcx
Ltmp62:
	.loc	2 1555 20
	cmovaq	%rdx, %rcx
Ltmp63:
	.loc	1 28 12
	cmpl	%edi, 8(%rax,%rcx,8)
Ltmp64:
	.loc	2 1550 23
	leaq	1(%rcx), %rdx
Ltmp65:
	.loc	2 1555 20
	cmovaq	%rcx, %rdx
Ltmp66:
	.loc	1 28 12
	cmpl	%edi, (%rax,%rdx,8)
	setbe	%cl
	.loc	1 28 9 is_stmt 0
	cmpl	%edi, 4(%rax,%rdx,8)
	setae	%al
Ltmp67:
	.loc	3 320 23 is_stmt 1
	andb	%cl, %al
Ltmp68:
	.loc	1 1418 6
	popq	%rbp
	retq
Ltmp69:
Lfunc_end1:
	.cfi_endproc

	.section	__TEXT,__const
	.p2align	2
l___unnamed_1:
	.asciz	"0\000\000\0009\000\000\000A\000\000\000Z\000\000\000_\000\000\000_\000\000\000a\000\000\000z\000\000\000\252\000\000\000\252\000\000\000\265\000\000\000\265\000\000\000\267\000\000\000\267\000\000\000\272\000\000\000\272\000\000\000\300\000\000\000\326\000\000\000\330\000\000\000\366\000\000\000\370\000\000\000\301\002\000\000\306\002\000\000\321\002\000\000\340\002\000\000\344\002\000\000\354\002\000\000\354\002\000\000\356\002\000\000\356\002\000\000\000\003\000\000t\003\000\000v\003\000\000w\003\000\000{\003\000\000}\003\000\000\177\003\000\000\177\003\000\000\206\003\000\000\212\003\000\000\214\003\000\000\214\003\000\000\216\003\000\000\241\003\000\000\243\003\000\000\365\003\000\000\367\003\000\000\201\004\000\000\203\004\000\000\207\004\000\000\212\004\000\000/\005\000\0001\005\000\000V\005\000\000Y\005\000\000Y\005\000\000`\005\000\000\210\005\000\000\221\005\000\000\275\005\000\000\277\005\000\000\277\005\000\000\301\005\000\000\302\005\000\000\304\005\000\000\305\005\000\000\307\005\000\000\307\005\000\000\320\005\000\000\352\005\000\000\357\005\000\000\362\005\000\000\020\006\000\000\032\006\000\000 \006\000\000i\006\000\000n\006\000\000\323\006\000\000\325\006\000\000\334\006\000\000\337\006\000\000\350\006\000\000\352\006\000\000\374\006\000\000\377\006\000\000\377\006\000\000\020\007\000\000J\007\000\000M\007\000\000\261\007\000\000\300\007\000\000\365\007\000\000\372\007\000\000\372\007\000\000\375\007\000\000\375\007\000\000\000\b\000\000-\b\000\000@\b\000\000[\b\000\000`\b\000\000j\b\000\000\240\b\000\000\264\b\000\000\266\b\000\000\307\b\000\000\323\b\000\000\341\b\000\000\343\b\000\000c\t\000\000f\t\000\000o\t\000\000q\t\000\000\203\t\000\000\205\t\000\000\214\t\000\000\217\t\000\000\220\t\000\000\223\t\000\000\250\t\000\000\252\t\000\000\260\t\000\000\262\t\000\000\262\t\000\000\266\t\000\000\271\t\000\000\274\t\000\000\304\t\000\000\307\t\000\000\310\t\000\000\313\t\000\000\316\t\000\000\327\t\000\000\327\t\000\000\334\t\000\000\335\t\000\000\337\t\000\000\343\t\000\000\346\t\000\000\361\t\000\000\374\t\000\000\374\t\000\000\376\t\000\000\376\t\000\000\001\n\000\000\003\n\000\000\005\n\000\000\n\n\000\000\017\n\000\000\020\n\000\000\023\n\000\000(\n\000\000*\n\000\0000\n\000\0002\n\000\0003\n\000\0005\n\000\0006\n\000\0008\n\000\0009\n\000\000<\n\000\000<\n\000\000>\n\000\000B\n\000\000G\n\000\000H\n\000\000K\n\000\000M\n\000\000Q\n\000\000Q\n\000\000Y\n\000\000\\\n\000\000^\n\000\000^\n\000\000f\n\000\000u\n\000\000\201\n\000\000\203\n\000\000\205\n\000\000\215\n\000\000\217\n\000\000\221\n\000\000\223\n\000\000\250\n\000\000\252\n\000\000\260\n\000\000\262\n\000\000\263\n\000\000\265\n\000\000\271\n\000\000\274\n\000\000\305\n\000\000\307\n\000\000\311\n\000\000\313\n\000\000\315\n\000\000\320\n\000\000\320\n\000\000\340\n\000\000\343\n\000\000\346\n\000\000\357\n\000\000\371\n\000\000\377\n\000\000\001\013\000\000\003\013\000\000\005\013\000\000\f\013\000\000\017\013\000\000\020\013\000\000\023\013\000\000(\013\000\000*\013\000\0000\013\000\0002\013\000\0003\013\000\0005\013\000\0009\013\000\000<\013\000\000D\013\000\000G\013\000\000H\013\000\000K\013\000\000M\013\000\000U\013\000\000W\013\000\000\\\013\000\000]\013\000\000_\013\000\000c\013\000\000f\013\000\000o\013\000\000q\013\000\000q\013\000\000\202\013\000\000\203\013\000\000\205\013\000\000\212\013\000\000\216\013\000\000\220\013\000\000\222\013\000\000\225\013\000\000\231\013\000\000\232\013\000\000\234\013\000\000\234\013\000\000\236\013\000\000\237\013\000\000\243\013\000\000\244\013\000\000\250\013\000\000\252\013\000\000\256\013\000\000\271\013\000\000\276\013\000\000\302\013\000\000\306\013\000\000\310\013\000\000\312\013\000\000\315\013\000\000\320\013\000\000\320\013\000\000\327\013\000\000\327\013\000\000\346\013\000\000\357\013\000\000\000\f\000\000\f\f\000\000\016\f\000\000\020\f\000\000\022\f\000\000(\f\000\000*\f\000\0009\f\000\000=\f\000\000D\f\000\000F\f\000\000H\f\000\000J\f\000\000M\f\000\000U\f\000\000V\f\000\000X\f\000\000Z\f\000\000`\f\000\000c\f\000\000f\f\000\000o\f\000\000\200\f\000\000\203\f\000\000\205\f\000\000\214\f\000\000\216\f\000\000\220\f\000\000\222\f\000\000\250\f\000\000\252\f\000\000\263\f\000\000\265\f\000\000\271\f\000\000\274\f\000\000\304\f\000\000\306\f\000\000\310\f\000\000\312\f\000\000\315\f\000\000\325\f\000\000\326\f\000\000\336\f\000\000\336\f\000\000\340\f\000\000\343\f\000\000\346\f\000\000\357\f\000\000\361\f\000\000\362\f\000\000\000\r\000\000\f\r\000\000\016\r\000\000\020\r\000\000\022\r\000\000D\r\000\000F\r\000\000H\r\000\000J\r\000\000N\r\000\000T\r\000\000W\r\000\000_\r\000\000c\r\000\000f\r\000\000o\r\000\000z\r\000\000\177\r\000\000\201\r\000\000\203\r\000\000\205\r\000\000\226\r\000\000\232\r\000\000\261\r\000\000\263\r\000\000\273\r\000\000\275\r\000\000\275\r\000\000\300\r\000\000\306\r\000\000\312\r\000\000\312\r\000\000\317\r\000\000\324\r\000\000\326\r\000\000\326\r\000\000\330\r\000\000\337\r\000\000\346\r\000\000\357\r\000\000\362\r\000\000\363\r\000\000\001\016\000\000:\016\000\000@\016\000\000N\016\000\000P\016\000\000Y\016\000\000\201\016\000\000\202\016\000\000\204\016\000\000\204\016\000\000\206\016\000\000\212\016\000\000\214\016\000\000\243\016\000\000\245\016\000\000\245\016\000\000\247\016\000\000\275\016\000\000\300\016\000\000\304\016\000\000\306\016\000\000\306\016\000\000\310\016\000\000\315\016\000\000\320\016\000\000\331\016\000\000\334\016\000\000\337\016\000\000\000\017\000\000\000\017\000\000\030\017\000\000\031\017\000\000 \017\000\000)\017\000\0005\017\000\0005\017\000\0007\017\000\0007\017\000\0009\017\000\0009\017\000\000>\017\000\000G\017\000\000I\017\000\000l\017\000\000q\017\000\000\204\017\000\000\206\017\000\000\227\017\000\000\231\017\000\000\274\017\000\000\306\017\000\000\306\017\000\000\000\020\000\000I\020\000\000P\020\000\000\235\020\000\000\240\020\000\000\305\020\000\000\307\020\000\000\307\020\000\000\315\020\000\000\315\020\000\000\320\020\000\000\372\020\000\000\374\020\000\000H\022\000\000J\022\000\000M\022\000\000P\022\000\000V\022\000\000X\022\000\000X\022\000\000Z\022\000\000]\022\000\000`\022\000\000\210\022\000\000\212\022\000\000\215\022\000\000\220\022\000\000\260\022\000\000\262\022\000\000\265\022\000\000\270\022\000\000\276\022\000\000\300\022\000\000\300\022\000\000\302\022\000\000\305\022\000\000\310\022\000\000\326\022\000\000\330\022\000\000\020\023\000\000\022\023\000\000\025\023\000\000\030\023\000\000Z\023\000\000]\023\000\000_\023\000\000i\023\000\000q\023\000\000\200\023\000\000\217\023\000\000\240\023\000\000\365\023\000\000\370\023\000\000\375\023\000\000\001\024\000\000l\026\000\000o\026\000\000\177\026\000\000\201\026\000\000\232\026\000\000\240\026\000\000\352\026\000\000\356\026\000\000\370\026\000\000\000\027\000\000\f\027\000\000\016\027\000\000\024\027\000\000 \027\000\0004\027\000\000@\027\000\000S\027\000\000`\027\000\000l\027\000\000n\027\000\000p\027\000\000r\027\000\000s\027\000\000\200\027\000\000\323\027\000\000\327\027\000\000\327\027\000\000\334\027\000\000\335\027\000\000\340\027\000\000\351\027\000\000\013\030\000\000\r\030\000\000\020\030\000\000\031\030\000\000 \030\000\000x\030\000\000\200\030\000\000\252\030\000\000\260\030\000\000\365\030\000\000\000\031\000\000\036\031\000\000 \031\000\000+\031\000\0000\031\000\000;\031\000\000F\031\000\000m\031\000\000p\031\000\000t\031\000\000\200\031\000\000\253\031\000\000\260\031\000\000\311\031\000\000\320\031\000\000\332\031\000\000\000\032\000\000\033\032\000\000 \032\000\000^\032\000\000`\032\000\000|\032\000\000\177\032\000\000\211\032\000\000\220\032\000\000\231\032\000\000\247\032\000\000\247\032\000\000\260\032\000\000\275\032\000\000\277\032\000\000\300\032\000\000\000\033\000\000K\033\000\000P\033\000\000Y\033\000\000k\033\000\000s\033\000\000\200\033\000\000\363\033\000\000\000\034\000\0007\034\000\000@\034\000\000I\034\000\000M\034\000\000}\034\000\000\200\034\000\000\210\034\000\000\220\034\000\000\272\034\000\000\275\034\000\000\277\034\000\000\320\034\000\000\322\034\000\000\324\034\000\000\372\034\000\000\000\035\000\000\371\035\000\000\373\035\000\000\025\037\000\000\030\037\000\000\035\037\000\000 \037\000\000E\037\000\000H\037\000\000M\037\000\000P\037\000\000W\037\000\000Y\037\000\000Y\037\000\000[\037\000\000[\037\000\000]\037\000\000]\037\000\000_\037\000\000}\037\000\000\200\037\000\000\264\037\000\000\266\037\000\000\274\037\000\000\276\037\000\000\276\037\000\000\302\037\000\000\304\037\000\000\306\037\000\000\314\037\000\000\320\037\000\000\323\037\000\000\326\037\000\000\333\037\000\000\340\037\000\000\354\037\000\000\362\037\000\000\364\037\000\000\366\037\000\000\374\037\000\000? \000\000@ \000\000T \000\000T \000\000q \000\000q \000\000\177 \000\000\177 \000\000\220 \000\000\234 \000\000\320 \000\000\334 \000\000\341 \000\000\341 \000\000\345 \000\000\360 \000\000\002!\000\000\002!\000\000\007!\000\000\007!\000\000\n!\000\000\023!\000\000\025!\000\000\025!\000\000\030!\000\000\035!\000\000$!\000\000$!\000\000&!\000\000&!\000\000(!\000\000(!\000\000*!\000\0009!\000\000<!\000\000?!\000\000E!\000\000I!\000\000N!\000\000N!\000\000`!\000\000\210!\000\000\000,\000\000.,\000\0000,\000\000^,\000\000`,\000\000\344,\000\000\353,\000\000\363,\000\000\000-\000\000%-\000\000'-\000\000'-\000\000--\000\000--\000\0000-\000\000g-\000\000o-\000\000o-\000\000\177-\000\000\226-\000\000\240-\000\000\246-\000\000\250-\000\000\256-\000\000\260-\000\000\266-\000\000\270-\000\000\276-\000\000\300-\000\000\306-\000\000\310-\000\000\316-\000\000\320-\000\000\326-\000\000\330-\000\000\336-\000\000\340-\000\000\377-\000\000\0050\000\000\0070\000\000!0\000\000/0\000\00010\000\00050\000\00080\000\000<0\000\000A0\000\000\2260\000\000\2310\000\000\2320\000\000\2350\000\000\2370\000\000\2410\000\000\3720\000\000\3740\000\000\3770\000\000\0051\000\000/1\000\00011\000\000\2161\000\000\2401\000\000\2771\000\000\3601\000\000\3771\000\000\0004\000\000\277M\000\000\000N\000\000\374\237\000\000\000\240\000\000\214\244\000\000\320\244\000\000\375\244\000\000\000\245\000\000\f\246\000\000\020\246\000\000+\246\000\000@\246\000\000o\246\000\000t\246\000\000}\246\000\000\177\246\000\000\361\246\000\000\027\247\000\000\037\247\000\000\"\247\000\000\210\247\000\000\213\247\000\000\277\247\000\000\302\247\000\000\312\247\000\000\365\247\000\000'\250\000\000,\250\000\000,\250\000\000@\250\000\000s\250\000\000\200\250\000\000\305\250\000\000\320\250\000\000\331\250\000\000\340\250\000\000\367\250\000\000\373\250\000\000\373\250\000\000\375\250\000\000-\251\000\0000\251\000\000S\251\000\000`\251\000\000|\251\000\000\200\251\000\000\300\251\000\000\317\251\000\000\331\251\000\000\340\251\000\000\376\251\000\000\000\252\000\0006\252\000\000@\252\000\000M\252\000\000P\252\000\000Y\252\000\000`\252\000\000v\252\000\000z\252\000\000\302\252\000\000\333\252\000\000\335\252\000\000\340\252\000\000\357\252\000\000\362\252\000\000\366\252\000\000\001\253\000\000\006\253\000\000\t\253\000\000\016\253\000\000\021\253\000\000\026\253\000\000 \253\000\000&\253\000\000(\253\000\000.\253\000\0000\253\000\000Z\253\000\000\\\253\000\000i\253\000\000p\253\000\000\352\253\000\000\354\253\000\000\355\253\000\000\360\253\000\000\371\253\000\000\000\254\000\000\243\327\000\000\260\327\000\000\306\327\000\000\313\327\000\000\373\327\000\000\000\371\000\000m\372\000\000p\372\000\000\331\372\000\000\000\373\000\000\006\373\000\000\023\373\000\000\027\373\000\000\035\373\000\000(\373\000\000*\373\000\0006\373\000\0008\373\000\000<\373\000\000>\373\000\000>\373\000\000@\373\000\000A\373\000\000C\373\000\000D\373\000\000F\373\000\000\261\373\000\000\323\373\000\000]\374\000\000d\374\000\000=\375\000\000P\375\000\000\217\375\000\000\222\375\000\000\307\375\000\000\360\375\000\000\371\375\000\000\000\376\000\000\017\376\000\000 \376\000\000/\376\000\0003\376\000\0004\376\000\000M\376\000\000O\376\000\000q\376\000\000q\376\000\000s\376\000\000s\376\000\000w\376\000\000w\376\000\000y\376\000\000y\376\000\000{\376\000\000{\376\000\000}\376\000\000}\376\000\000\177\376\000\000\374\376\000\000\020\377\000\000\031\377\000\000!\377\000\000:\377\000\000?\377\000\000?\377\000\000A\377\000\000Z\377\000\000f\377\000\000\276\377\000\000\302\377\000\000\307\377\000\000\312\377\000\000\317\377\000\000\322\377\000\000\327\377\000\000\332\377\000\000\334\377\000\000\000\000\001\000\013\000\001\000\r\000\001\000&\000\001\000(\000\001\000:\000\001\000<\000\001\000=\000\001\000?\000\001\000M\000\001\000P\000\001\000]\000\001\000\200\000\001\000\372\000\001\000@\001\001\000t\001\001\000\375\001\001\000\375\001\001\000\200\002\001\000\234\002\001\000\240\002\001\000\320\002\001\000\340\002\001\000\340\002\001\000\000\003\001\000\037\003\001\000-\003\001\000J\003\001\000P\003\001\000z\003\001\000\200\003\001\000\235\003\001\000\240\003\001\000\303\003\001\000\310\003\001\000\317\003\001\000\321\003\001\000\325\003\001\000\000\004\001\000\235\004\001\000\240\004\001\000\251\004\001\000\260\004\001\000\323\004\001\000\330\004\001\000\373\004\001\000\000\005\001\000'\005\001\0000\005\001\000c\005\001\000\000\006\001\0006\007\001\000@\007\001\000U\007\001\000`\007\001\000g\007\001\000\000\b\001\000\005\b\001\000\b\b\001\000\b\b\001\000\n\b\001\0005\b\001\0007\b\001\0008\b\001\000<\b\001\000<\b\001\000?\b\001\000U\b\001\000`\b\001\000v\b\001\000\200\b\001\000\236\b\001\000\340\b\001\000\362\b\001\000\364\b\001\000\365\b\001\000\000\t\001\000\025\t\001\000 \t\001\0009\t\001\000\200\t\001\000\267\t\001\000\276\t\001\000\277\t\001\000\000\n\001\000\003\n\001\000\005\n\001\000\006\n\001\000\f\n\001\000\023\n\001\000\025\n\001\000\027\n\001\000\031\n\001\0005\n\001\0008\n\001\000:\n\001\000?\n\001\000?\n\001\000`\n\001\000|\n\001\000\200\n\001\000\234\n\001\000\300\n\001\000\307\n\001\000\311\n\001\000\346\n\001\000\000\013\001\0005\013\001\000@\013\001\000U\013\001\000`\013\001\000r\013\001\000\200\013\001\000\221\013\001\000\000\f\001\000H\f\001\000\200\f\001\000\262\f\001\000\300\f\001\000\362\f\001\000\000\r\001\000'\r\001\0000\r\001\0009\r\001\000\200\016\001\000\251\016\001\000\253\016\001\000\254\016\001\000\260\016\001\000\261\016\001\000\000\017\001\000\034\017\001\000'\017\001\000'\017\001\0000\017\001\000P\017\001\000\260\017\001\000\304\017\001\000\340\017\001\000\366\017\001\000\000\020\001\000F\020\001\000f\020\001\000o\020\001\000\177\020\001\000\272\020\001\000\320\020\001\000\350\020\001\000\360\020\001\000\371\020\001\000\000\021\001\0004\021\001\0006\021\001\000?\021\001\000D\021\001\000G\021\001\000P\021\001\000s\021\001\000v\021\001\000v\021\001\000\200\021\001\000\304\021\001\000\311\021\001\000\314\021\001\000\316\021\001\000\332\021\001\000\334\021\001\000\334\021\001\000\000\022\001\000\021\022\001\000\023\022\001\0007\022\001\000>\022\001\000>\022\001\000\200\022\001\000\206\022\001\000\210\022\001\000\210\022\001\000\212\022\001\000\215\022\001\000\217\022\001\000\235\022\001\000\237\022\001\000\250\022\001\000\260\022\001\000\352\022\001\000\360\022\001\000\371\022\001\000\000\023\001\000\003\023\001\000\005\023\001\000\f\023\001\000\017\023\001\000\020\023\001\000\023\023\001\000(\023\001\000*\023\001\0000\023\001\0002\023\001\0003\023\001\0005\023\001\0009\023\001\000;\023\001\000D\023\001\000G\023\001\000H\023\001\000K\023\001\000M\023\001\000P\023\001\000P\023\001\000W\023\001\000W\023\001\000]\023\001\000c\023\001\000f\023\001\000l\023\001\000p\023\001\000t\023\001\000\000\024\001\000J\024\001\000P\024\001\000Y\024\001\000^\024\001\000a\024\001\000\200\024\001\000\305\024\001\000\307\024\001\000\307\024\001\000\320\024\001\000\331\024\001\000\200\025\001\000\265\025\001\000\270\025\001\000\300\025\001\000\330\025\001\000\335\025\001\000\000\026\001\000@\026\001\000D\026\001\000D\026\001\000P\026\001\000Y\026\001\000\200\026\001\000\270\026\001\000\300\026\001\000\311\026\001\000\000\027\001\000\032\027\001\000\035\027\001\000+\027\001\0000\027\001\0009\027\001\000\000\030\001\000:\030\001\000\240\030\001\000\351\030\001\000\377\030\001\000\006\031\001\000\t\031\001\000\t\031\001\000\f\031\001\000\023\031\001\000\025\031\001\000\026\031\001\000\030\031\001\0005\031\001\0007\031\001\0008\031\001\000;\031\001\000C\031\001\000P\031\001\000Y\031\001\000\240\031\001\000\247\031\001\000\252\031\001\000\327\031\001\000\332\031\001\000\341\031\001\000\343\031\001\000\344\031\001\000\000\032\001\000>\032\001\000G\032\001\000G\032\001\000P\032\001\000\231\032\001\000\235\032\001\000\235\032\001\000\300\032\001\000\370\032\001\000\000\034\001\000\b\034\001\000\n\034\001\0006\034\001\0008\034\001\000@\034\001\000P\034\001\000Y\034\001\000r\034\001\000\217\034\001\000\222\034\001\000\247\034\001\000\251\034\001\000\266\034\001\000\000\035\001\000\006\035\001\000\b\035\001\000\t\035\001\000\013\035\001\0006\035\001\000:\035\001\000:\035\001\000<\035\001\000=\035\001\000?\035\001\000G\035\001\000P\035\001\000Y\035\001\000`\035\001\000e\035\001\000g\035\001\000h\035\001\000j\035\001\000\216\035\001\000\220\035\001\000\221\035\001\000\223\035\001\000\230\035\001\000\240\035\001\000\251\035\001\000\340\036\001\000\366\036\001\000\260\037\001\000\260\037\001\000\000 \001\000\231#\001\000\000$\001\000n$\001\000\200$\001\000C%\001\000\0000\001\000.4\001\000\000D\001\000FF\001\000\000h\001\0008j\001\000@j\001\000^j\001\000`j\001\000ij\001\000\320j\001\000\355j\001\000\360j\001\000\364j\001\000\000k\001\0006k\001\000@k\001\000Ck\001\000Pk\001\000Yk\001\000ck\001\000wk\001\000}k\001\000\217k\001\000@n\001\000\177n\001\000\000o\001\000Jo\001\000Oo\001\000\207o\001\000\217o\001\000\237o\001\000\340o\001\000\341o\001\000\343o\001\000\344o\001\000\360o\001\000\361o\001\000\000p\001\000\367\207\001\000\000\210\001\000\325\214\001\000\000\215\001\000\b\215\001\000\000\260\001\000\036\261\001\000P\261\001\000R\261\001\000d\261\001\000g\261\001\000p\261\001\000\373\262\001\000\000\274\001\000j\274\001\000p\274\001\000|\274\001\000\200\274\001\000\210\274\001\000\220\274\001\000\231\274\001\000\235\274\001\000\236\274\001\000e\321\001\000i\321\001\000m\321\001\000r\321\001\000{\321\001\000\202\321\001\000\205\321\001\000\213\321\001\000\252\321\001\000\255\321\001\000B\322\001\000D\322\001\000\000\324\001\000T\324\001\000V\324\001\000\234\324\001\000\236\324\001\000\237\324\001\000\242\324\001\000\242\324\001\000\245\324\001\000\246\324\001\000\251\324\001\000\254\324\001\000\256\324\001\000\271\324\001\000\273\324\001\000\273\324\001\000\275\324\001\000\303\324\001\000\305\324\001\000\005\325\001\000\007\325\001\000\n\325\001\000\r\325\001\000\024\325\001\000\026\325\001\000\034\325\001\000\036\325\001\0009\325\001\000;\325\001\000>\325\001\000@\325\001\000D\325\001\000F\325\001\000F\325\001\000J\325\001\000P\325\001\000R\325\001\000\245\326\001\000\250\326\001\000\300\326\001\000\302\326\001\000\332\326\001\000\334\326\001\000\372\326\001\000\374\326\001\000\024\327\001\000\026\327\001\0004\327\001\0006\327\001\000N\327\001\000P\327\001\000n\327\001\000p\327\001\000\210\327\001\000\212\327\001\000\250\327\001\000\252\327\001\000\302\327\001\000\304\327\001\000\313\327\001\000\316\327\001\000\377\327\001\000\000\332\001\0006\332\001\000;\332\001\000l\332\001\000u\332\001\000u\332\001\000\204\332\001\000\204\332\001\000\233\332\001\000\237\332\001\000\241\332\001\000\257\332\001\000\000\340\001\000\006\340\001\000\b\340\001\000\030\340\001\000\033\340\001\000!\340\001\000#\340\001\000$\340\001\000&\340\001\000*\340\001\000\000\341\001\000,\341\001\0000\341\001\000=\341\001\000@\341\001\000I\341\001\000N\341\001\000N\341\001\000\300\342\001\000\371\342\001\000\000\350\001\000\304\350\001\000\320\350\001\000\326\350\001\000\000\351\001\000K\351\001\000P\351\001\000Y\351\001\000\000\356\001\000\003\356\001\000\005\356\001\000\037\356\001\000!\356\001\000\"\356\001\000$\356\001\000$\356\001\000'\356\001\000'\356\001\000)\356\001\0002\356\001\0004\356\001\0007\356\001\0009\356\001\0009\356\001\000;\356\001\000;\356\001\000B\356\001\000B\356\001\000G\356\001\000G\356\001\000I\356\001\000I\356\001\000K\356\001\000K\356\001\000M\356\001\000O\356\001\000Q\356\001\000R\356\001\000T\356\001\000T\356\001\000W\356\001\000W\356\001\000Y\356\001\000Y\356\001\000[\356\001\000[\356\001\000]\356\001\000]\356\001\000_\356\001\000_\356\001\000a\356\001\000b\356\001\000d\356\001\000d\356\001\000g\356\001\000j\356\001\000l\356\001\000r\356\001\000t\356\001\000w\356\001\000y\356\001\000|\356\001\000~\356\001\000~\356\001\000\200\356\001\000\211\356\001\000\213\356\001\000\233\356\001\000\241\356\001\000\243\356\001\000\245\356\001\000\251\356\001\000\253\356\001\000\273\356\001\000\360\373\001\000\371\373\001\000\000\000\002\000\335\246\002\000\000\247\002\0004\267\002\000@\267\002\000\035\270\002\000 \270\002\000\241\316\002\000\260\316\002\000\340\353\002\000\000\370\002\000\035\372\002\000\000\000\003\000J\023\003\000\000\001\016\000\357\001\016"

	.p2align	2
l___unnamed_2:
	.asciz	"A\000\000\000Z\000\000\000a\000\000\000z\000\000\000\252\000\000\000\252\000\000\000\265\000\000\000\265\000\000\000\272\000\000\000\272\000\000\000\300\000\000\000\326\000\000\000\330\000\000\000\366\000\000\000\370\000\000\000\301\002\000\000\306\002\000\000\321\002\000\000\340\002\000\000\344\002\000\000\354\002\000\000\354\002\000\000\356\002\000\000\356\002\000\000p\003\000\000t\003\000\000v\003\000\000w\003\000\000{\003\000\000}\003\000\000\177\003\000\000\177\003\000\000\206\003\000\000\206\003\000\000\210\003\000\000\212\003\000\000\214\003\000\000\214\003\000\000\216\003\000\000\241\003\000\000\243\003\000\000\365\003\000\000\367\003\000\000\201\004\000\000\212\004\000\000/\005\000\0001\005\000\000V\005\000\000Y\005\000\000Y\005\000\000`\005\000\000\210\005\000\000\320\005\000\000\352\005\000\000\357\005\000\000\362\005\000\000 \006\000\000J\006\000\000n\006\000\000o\006\000\000q\006\000\000\323\006\000\000\325\006\000\000\325\006\000\000\345\006\000\000\346\006\000\000\356\006\000\000\357\006\000\000\372\006\000\000\374\006\000\000\377\006\000\000\377\006\000\000\020\007\000\000\020\007\000\000\022\007\000\000/\007\000\000M\007\000\000\245\007\000\000\261\007\000\000\261\007\000\000\312\007\000\000\352\007\000\000\364\007\000\000\365\007\000\000\372\007\000\000\372\007\000\000\000\b\000\000\025\b\000\000\032\b\000\000\032\b\000\000$\b\000\000$\b\000\000(\b\000\000(\b\000\000@\b\000\000X\b\000\000`\b\000\000j\b\000\000\240\b\000\000\264\b\000\000\266\b\000\000\307\b\000\000\004\t\000\0009\t\000\000=\t\000\000=\t\000\000P\t\000\000P\t\000\000X\t\000\000a\t\000\000q\t\000\000\200\t\000\000\205\t\000\000\214\t\000\000\217\t\000\000\220\t\000\000\223\t\000\000\250\t\000\000\252\t\000\000\260\t\000\000\262\t\000\000\262\t\000\000\266\t\000\000\271\t\000\000\275\t\000\000\275\t\000\000\316\t\000\000\316\t\000\000\334\t\000\000\335\t\000\000\337\t\000\000\341\t\000\000\360\t\000\000\361\t\000\000\374\t\000\000\374\t\000\000\005\n\000\000\n\n\000\000\017\n\000\000\020\n\000\000\023\n\000\000(\n\000\000*\n\000\0000\n\000\0002\n\000\0003\n\000\0005\n\000\0006\n\000\0008\n\000\0009\n\000\000Y\n\000\000\\\n\000\000^\n\000\000^\n\000\000r\n\000\000t\n\000\000\205\n\000\000\215\n\000\000\217\n\000\000\221\n\000\000\223\n\000\000\250\n\000\000\252\n\000\000\260\n\000\000\262\n\000\000\263\n\000\000\265\n\000\000\271\n\000\000\275\n\000\000\275\n\000\000\320\n\000\000\320\n\000\000\340\n\000\000\341\n\000\000\371\n\000\000\371\n\000\000\005\013\000\000\f\013\000\000\017\013\000\000\020\013\000\000\023\013\000\000(\013\000\000*\013\000\0000\013\000\0002\013\000\0003\013\000\0005\013\000\0009\013\000\000=\013\000\000=\013\000\000\\\013\000\000]\013\000\000_\013\000\000a\013\000\000q\013\000\000q\013\000\000\203\013\000\000\203\013\000\000\205\013\000\000\212\013\000\000\216\013\000\000\220\013\000\000\222\013\000\000\225\013\000\000\231\013\000\000\232\013\000\000\234\013\000\000\234\013\000\000\236\013\000\000\237\013\000\000\243\013\000\000\244\013\000\000\250\013\000\000\252\013\000\000\256\013\000\000\271\013\000\000\320\013\000\000\320\013\000\000\005\f\000\000\f\f\000\000\016\f\000\000\020\f\000\000\022\f\000\000(\f\000\000*\f\000\0009\f\000\000=\f\000\000=\f\000\000X\f\000\000Z\f\000\000`\f\000\000a\f\000\000\200\f\000\000\200\f\000\000\205\f\000\000\214\f\000\000\216\f\000\000\220\f\000\000\222\f\000\000\250\f\000\000\252\f\000\000\263\f\000\000\265\f\000\000\271\f\000\000\275\f\000\000\275\f\000\000\336\f\000\000\336\f\000\000\340\f\000\000\341\f\000\000\361\f\000\000\362\f\000\000\004\r\000\000\f\r\000\000\016\r\000\000\020\r\000\000\022\r\000\000:\r\000\000=\r\000\000=\r\000\000N\r\000\000N\r\000\000T\r\000\000V\r\000\000_\r\000\000a\r\000\000z\r\000\000\177\r\000\000\205\r\000\000\226\r\000\000\232\r\000\000\261\r\000\000\263\r\000\000\273\r\000\000\275\r\000\000\275\r\000\000\300\r\000\000\306\r\000\000\001\016\000\0000\016\000\0002\016\000\0002\016\000\000@\016\000\000F\016\000\000\201\016\000\000\202\016\000\000\204\016\000\000\204\016\000\000\206\016\000\000\212\016\000\000\214\016\000\000\243\016\000\000\245\016\000\000\245\016\000\000\247\016\000\000\260\016\000\000\262\016\000\000\262\016\000\000\275\016\000\000\275\016\000\000\300\016\000\000\304\016\000\000\306\016\000\000\306\016\000\000\334\016\000\000\337\016\000\000\000\017\000\000\000\017\000\000@\017\000\000G\017\000\000I\017\000\000l\017\000\000\210\017\000\000\214\017\000\000\000\020\000\000*\020\000\000?\020\000\000?\020\000\000P\020\000\000U\020\000\000Z\020\000\000]\020\000\000a\020\000\000a\020\000\000e\020\000\000f\020\000\000n\020\000\000p\020\000\000u\020\000\000\201\020\000\000\216\020\000\000\216\020\000\000\240\020\000\000\305\020\000\000\307\020\000\000\307\020\000\000\315\020\000\000\315\020\000\000\320\020\000\000\372\020\000\000\374\020\000\000H\022\000\000J\022\000\000M\022\000\000P\022\000\000V\022\000\000X\022\000\000X\022\000\000Z\022\000\000]\022\000\000`\022\000\000\210\022\000\000\212\022\000\000\215\022\000\000\220\022\000\000\260\022\000\000\262\022\000\000\265\022\000\000\270\022\000\000\276\022\000\000\300\022\000\000\300\022\000\000\302\022\000\000\305\022\000\000\310\022\000\000\326\022\000\000\330\022\000\000\020\023\000\000\022\023\000\000\025\023\000\000\030\023\000\000Z\023\000\000\200\023\000\000\217\023\000\000\240\023\000\000\365\023\000\000\370\023\000\000\375\023\000\000\001\024\000\000l\026\000\000o\026\000\000\177\026\000\000\201\026\000\000\232\026\000\000\240\026\000\000\352\026\000\000\356\026\000\000\370\026\000\000\000\027\000\000\f\027\000\000\016\027\000\000\021\027\000\000 \027\000\0001\027\000\000@\027\000\000Q\027\000\000`\027\000\000l\027\000\000n\027\000\000p\027\000\000\200\027\000\000\263\027\000\000\327\027\000\000\327\027\000\000\334\027\000\000\334\027\000\000 \030\000\000x\030\000\000\200\030\000\000\250\030\000\000\252\030\000\000\252\030\000\000\260\030\000\000\365\030\000\000\000\031\000\000\036\031\000\000P\031\000\000m\031\000\000p\031\000\000t\031\000\000\200\031\000\000\253\031\000\000\260\031\000\000\311\031\000\000\000\032\000\000\026\032\000\000 \032\000\000T\032\000\000\247\032\000\000\247\032\000\000\005\033\000\0003\033\000\000E\033\000\000K\033\000\000\203\033\000\000\240\033\000\000\256\033\000\000\257\033\000\000\272\033\000\000\345\033\000\000\000\034\000\000#\034\000\000M\034\000\000O\034\000\000Z\034\000\000}\034\000\000\200\034\000\000\210\034\000\000\220\034\000\000\272\034\000\000\275\034\000\000\277\034\000\000\351\034\000\000\354\034\000\000\356\034\000\000\363\034\000\000\365\034\000\000\366\034\000\000\372\034\000\000\372\034\000\000\000\035\000\000\277\035\000\000\000\036\000\000\025\037\000\000\030\037\000\000\035\037\000\000 \037\000\000E\037\000\000H\037\000\000M\037\000\000P\037\000\000W\037\000\000Y\037\000\000Y\037\000\000[\037\000\000[\037\000\000]\037\000\000]\037\000\000_\037\000\000}\037\000\000\200\037\000\000\264\037\000\000\266\037\000\000\274\037\000\000\276\037\000\000\276\037\000\000\302\037\000\000\304\037\000\000\306\037\000\000\314\037\000\000\320\037\000\000\323\037\000\000\326\037\000\000\333\037\000\000\340\037\000\000\354\037\000\000\362\037\000\000\364\037\000\000\366\037\000\000\374\037\000\000q \000\000q \000\000\177 \000\000\177 \000\000\220 \000\000\234 \000\000\002!\000\000\002!\000\000\007!\000\000\007!\000\000\n!\000\000\023!\000\000\025!\000\000\025!\000\000\030!\000\000\035!\000\000$!\000\000$!\000\000&!\000\000&!\000\000(!\000\000(!\000\000*!\000\0009!\000\000<!\000\000?!\000\000E!\000\000I!\000\000N!\000\000N!\000\000`!\000\000\210!\000\000\000,\000\000.,\000\0000,\000\000^,\000\000`,\000\000\344,\000\000\353,\000\000\356,\000\000\362,\000\000\363,\000\000\000-\000\000%-\000\000'-\000\000'-\000\000--\000\000--\000\0000-\000\000g-\000\000o-\000\000o-\000\000\200-\000\000\226-\000\000\240-\000\000\246-\000\000\250-\000\000\256-\000\000\260-\000\000\266-\000\000\270-\000\000\276-\000\000\300-\000\000\306-\000\000\310-\000\000\316-\000\000\320-\000\000\326-\000\000\330-\000\000\336-\000\000\0050\000\000\0070\000\000!0\000\000)0\000\00010\000\00050\000\00080\000\000<0\000\000A0\000\000\2260\000\000\2350\000\000\2370\000\000\2410\000\000\3720\000\000\3740\000\000\3770\000\000\0051\000\000/1\000\00011\000\000\2161\000\000\2401\000\000\2771\000\000\3601\000\000\3771\000\000\0004\000\000\277M\000\000\000N\000\000\374\237\000\000\000\240\000\000\214\244\000\000\320\244\000\000\375\244\000\000\000\245\000\000\f\246\000\000\020\246\000\000\037\246\000\000*\246\000\000+\246\000\000@\246\000\000n\246\000\000\177\246\000\000\235\246\000\000\240\246\000\000\357\246\000\000\027\247\000\000\037\247\000\000\"\247\000\000\210\247\000\000\213\247\000\000\277\247\000\000\302\247\000\000\312\247\000\000\365\247\000\000\001\250\000\000\003\250\000\000\005\250\000\000\007\250\000\000\n\250\000\000\f\250\000\000\"\250\000\000@\250\000\000s\250\000\000\202\250\000\000\263\250\000\000\362\250\000\000\367\250\000\000\373\250\000\000\373\250\000\000\375\250\000\000\376\250\000\000\n\251\000\000%\251\000\0000\251\000\000F\251\000\000`\251\000\000|\251\000\000\204\251\000\000\262\251\000\000\317\251\000\000\317\251\000\000\340\251\000\000\344\251\000\000\346\251\000\000\357\251\000\000\372\251\000\000\376\251\000\000\000\252\000\000(\252\000\000@\252\000\000B\252\000\000D\252\000\000K\252\000\000`\252\000\000v\252\000\000z\252\000\000z\252\000\000~\252\000\000\257\252\000\000\261\252\000\000\261\252\000\000\265\252\000\000\266\252\000\000\271\252\000\000\275\252\000\000\300\252\000\000\300\252\000\000\302\252\000\000\302\252\000\000\333\252\000\000\335\252\000\000\340\252\000\000\352\252\000\000\362\252\000\000\364\252\000\000\001\253\000\000\006\253\000\000\t\253\000\000\016\253\000\000\021\253\000\000\026\253\000\000 \253\000\000&\253\000\000(\253\000\000.\253\000\0000\253\000\000Z\253\000\000\\\253\000\000i\253\000\000p\253\000\000\342\253\000\000\000\254\000\000\243\327\000\000\260\327\000\000\306\327\000\000\313\327\000\000\373\327\000\000\000\371\000\000m\372\000\000p\372\000\000\331\372\000\000\000\373\000\000\006\373\000\000\023\373\000\000\027\373\000\000\035\373\000\000\035\373\000\000\037\373\000\000(\373\000\000*\373\000\0006\373\000\0008\373\000\000<\373\000\000>\373\000\000>\373\000\000@\373\000\000A\373\000\000C\373\000\000D\373\000\000F\373\000\000\261\373\000\000\323\373\000\000]\374\000\000d\374\000\000=\375\000\000P\375\000\000\217\375\000\000\222\375\000\000\307\375\000\000\360\375\000\000\371\375\000\000q\376\000\000q\376\000\000s\376\000\000s\376\000\000w\376\000\000w\376\000\000y\376\000\000y\376\000\000{\376\000\000{\376\000\000}\376\000\000}\376\000\000\177\376\000\000\374\376\000\000!\377\000\000:\377\000\000A\377\000\000Z\377\000\000f\377\000\000\235\377\000\000\240\377\000\000\276\377\000\000\302\377\000\000\307\377\000\000\312\377\000\000\317\377\000\000\322\377\000\000\327\377\000\000\332\377\000\000\334\377\000\000\000\000\001\000\013\000\001\000\r\000\001\000&\000\001\000(\000\001\000:\000\001\000<\000\001\000=\000\001\000?\000\001\000M\000\001\000P\000\001\000]\000\001\000\200\000\001\000\372\000\001\000@\001\001\000t\001\001\000\200\002\001\000\234\002\001\000\240\002\001\000\320\002\001\000\000\003\001\000\037\003\001\000-\003\001\000J\003\001\000P\003\001\000u\003\001\000\200\003\001\000\235\003\001\000\240\003\001\000\303\003\001\000\310\003\001\000\317\003\001\000\321\003\001\000\325\003\001\000\000\004\001\000\235\004\001\000\260\004\001\000\323\004\001\000\330\004\001\000\373\004\001\000\000\005\001\000'\005\001\0000\005\001\000c\005\001\000\000\006\001\0006\007\001\000@\007\001\000U\007\001\000`\007\001\000g\007\001\000\000\b\001\000\005\b\001\000\b\b\001\000\b\b\001\000\n\b\001\0005\b\001\0007\b\001\0008\b\001\000<\b\001\000<\b\001\000?\b\001\000U\b\001\000`\b\001\000v\b\001\000\200\b\001\000\236\b\001\000\340\b\001\000\362\b\001\000\364\b\001\000\365\b\001\000\000\t\001\000\025\t\001\000 \t\001\0009\t\001\000\200\t\001\000\267\t\001\000\276\t\001\000\277\t\001\000\000\n\001\000\000\n\001\000\020\n\001\000\023\n\001\000\025\n\001\000\027\n\001\000\031\n\001\0005\n\001\000`\n\001\000|\n\001\000\200\n\001\000\234\n\001\000\300\n\001\000\307\n\001\000\311\n\001\000\344\n\001\000\000\013\001\0005\013\001\000@\013\001\000U\013\001\000`\013\001\000r\013\001\000\200\013\001\000\221\013\001\000\000\f\001\000H\f\001\000\200\f\001\000\262\f\001\000\300\f\001\000\362\f\001\000\000\r\001\000#\r\001\000\200\016\001\000\251\016\001\000\260\016\001\000\261\016\001\000\000\017\001\000\034\017\001\000'\017\001\000'\017\001\0000\017\001\000E\017\001\000\260\017\001\000\304\017\001\000\340\017\001\000\366\017\001\000\003\020\001\0007\020\001\000\203\020\001\000\257\020\001\000\320\020\001\000\350\020\001\000\003\021\001\000&\021\001\000D\021\001\000D\021\001\000G\021\001\000G\021\001\000P\021\001\000r\021\001\000v\021\001\000v\021\001\000\203\021\001\000\262\021\001\000\301\021\001\000\304\021\001\000\332\021\001\000\332\021\001\000\334\021\001\000\334\021\001\000\000\022\001\000\021\022\001\000\023\022\001\000+\022\001\000\200\022\001\000\206\022\001\000\210\022\001\000\210\022\001\000\212\022\001\000\215\022\001\000\217\022\001\000\235\022\001\000\237\022\001\000\250\022\001\000\260\022\001\000\336\022\001\000\005\023\001\000\f\023\001\000\017\023\001\000\020\023\001\000\023\023\001\000(\023\001\000*\023\001\0000\023\001\0002\023\001\0003\023\001\0005\023\001\0009\023\001\000=\023\001\000=\023\001\000P\023\001\000P\023\001\000]\023\001\000a\023\001\000\000\024\001\0004\024\001\000G\024\001\000J\024\001\000_\024\001\000a\024\001\000\200\024\001\000\257\024\001\000\304\024\001\000\305\024\001\000\307\024\001\000\307\024\001\000\200\025\001\000\256\025\001\000\330\025\001\000\333\025\001\000\000\026\001\000/\026\001\000D\026\001\000D\026\001\000\200\026\001\000\252\026\001\000\270\026\001\000\270\026\001\000\000\027\001\000\032\027\001\000\000\030\001\000+\030\001\000\240\030\001\000\337\030\001\000\377\030\001\000\006\031\001\000\t\031\001\000\t\031\001\000\f\031\001\000\023\031\001\000\025\031\001\000\026\031\001\000\030\031\001\000/\031\001\000?\031\001\000?\031\001\000A\031\001\000A\031\001\000\240\031\001\000\247\031\001\000\252\031\001\000\320\031\001\000\341\031\001\000\341\031\001\000\343\031\001\000\343\031\001\000\000\032\001\000\000\032\001\000\013\032\001\0002\032\001\000:\032\001\000:\032\001\000P\032\001\000P\032\001\000\\\032\001\000\211\032\001\000\235\032\001\000\235\032\001\000\300\032\001\000\370\032\001\000\000\034\001\000\b\034\001\000\n\034\001\000.\034\001\000@\034\001\000@\034\001\000r\034\001\000\217\034\001\000\000\035\001\000\006\035\001\000\b\035\001\000\t\035\001\000\013\035\001\0000\035\001\000F\035\001\000F\035\001\000`\035\001\000e\035\001\000g\035\001\000h\035\001\000j\035\001\000\211\035\001\000\230\035\001\000\230\035\001\000\340\036\001\000\362\036\001\000\260\037\001\000\260\037\001\000\000 \001\000\231#\001\000\000$\001\000n$\001\000\200$\001\000C%\001\000\0000\001\000.4\001\000\000D\001\000FF\001\000\000h\001\0008j\001\000@j\001\000^j\001\000\320j\001\000\355j\001\000\000k\001\000/k\001\000@k\001\000Ck\001\000ck\001\000wk\001\000}k\001\000\217k\001\000@n\001\000\177n\001\000\000o\001\000Jo\001\000Po\001\000Po\001\000\223o\001\000\237o\001\000\340o\001\000\341o\001\000\343o\001\000\343o\001\000\000p\001\000\367\207\001\000\000\210\001\000\325\214\001\000\000\215\001\000\b\215\001\000\000\260\001\000\036\261\001\000P\261\001\000R\261\001\000d\261\001\000g\261\001\000p\261\001\000\373\262\001\000\000\274\001\000j\274\001\000p\274\001\000|\274\001\000\200\274\001\000\210\274\001\000\220\274\001\000\231\274\001\000\000\324\001\000T\324\001\000V\324\001\000\234\324\001\000\236\324\001\000\237\324\001\000\242\324\001\000\242\324\001\000\245\324\001\000\246\324\001\000\251\324\001\000\254\324\001\000\256\324\001\000\271\324\001\000\273\324\001\000\273\324\001\000\275\324\001\000\303\324\001\000\305\324\001\000\005\325\001\000\007\325\001\000\n\325\001\000\r\325\001\000\024\325\001\000\026\325\001\000\034\325\001\000\036\325\001\0009\325\001\000;\325\001\000>\325\001\000@\325\001\000D\325\001\000F\325\001\000F\325\001\000J\325\001\000P\325\001\000R\325\001\000\245\326\001\000\250\326\001\000\300\326\001\000\302\326\001\000\332\326\001\000\334\326\001\000\372\326\001\000\374\326\001\000\024\327\001\000\026\327\001\0004\327\001\0006\327\001\000N\327\001\000P\327\001\000n\327\001\000p\327\001\000\210\327\001\000\212\327\001\000\250\327\001\000\252\327\001\000\302\327\001\000\304\327\001\000\313\327\001\000\000\341\001\000,\341\001\0007\341\001\000=\341\001\000N\341\001\000N\341\001\000\300\342\001\000\353\342\001\000\000\350\001\000\304\350\001\000\000\351\001\000C\351\001\000K\351\001\000K\351\001\000\000\356\001\000\003\356\001\000\005\356\001\000\037\356\001\000!\356\001\000\"\356\001\000$\356\001\000$\356\001\000'\356\001\000'\356\001\000)\356\001\0002\356\001\0004\356\001\0007\356\001\0009\356\001\0009\356\001\000;\356\001\000;\356\001\000B\356\001\000B\356\001\000G\356\001\000G\356\001\000I\356\001\000I\356\001\000K\356\001\000K\356\001\000M\356\001\000O\356\001\000Q\356\001\000R\356\001\000T\356\001\000T\356\001\000W\356\001\000W\356\001\000Y\356\001\000Y\356\001\000[\356\001\000[\356\001\000]\356\001\000]\356\001\000_\356\001\000_\356\001\000a\356\001\000b\356\001\000d\356\001\000d\356\001\000g\356\001\000j\356\001\000l\356\001\000r\356\001\000t\356\001\000w\356\001\000y\356\001\000|\356\001\000~\356\001\000~\356\001\000\200\356\001\000\211\356\001\000\213\356\001\000\233\356\001\000\241\356\001\000\243\356\001\000\245\356\001\000\251\356\001\000\253\356\001\000\273\356\001\000\000\000\002\000\335\246\002\000\000\247\002\0004\267\002\000@\267\002\000\035\270\002\000 \270\002\000\241\316\002\000\260\316\002\000\340\353\002\000\000\370\002\000\035\372\002\000\000\000\003\000J\023\003"

	.section	__TEXT,__text,regular,pure_instructions
Lsec_end0: