	.section	__TEXT,__text,regular,pure_instructions
	.macosx_version_min 10, 7
	.p2align	4, 0x90
__ZN101_$LT$core..ops..range..RangeTo$LT$usize$GT$$u20$as$u20$core..slice..SliceIndex$LT$$u5b$T$u5d$$GT$$GT$5index17h64c7d890f86d863eE:
	.cfi_startproc
	pushq	%rbp
	.cfi_def_cfa_offset 16
	.cfi_offset %rbp, -16
	movq	%rsp, %rbp
	.cfi_def_cfa_register %rbp
	subq	$64, %rsp
	movq	$0, -16(%rbp)
	movq	%rdi, -8(%rbp)
	movq	-16(%rbp), %rdi
	movq	-8(%rbp), %rax
	movq	%rsi, -24(%rbp)
	movq	%rax, %rsi
	movq	-24(%rbp), %rax
	movq	%rdx, -32(%rbp)
	movq	%rax, %rdx
	movq	-32(%rbp), %r8
	movq	%rcx, -40(%rbp)
	movq	%r8, %rcx
	movq	-40(%rbp), %r8
	callq	__ZN99_$LT$core..ops..range..Range$LT$usize$GT$$u20$as$u20$core..slice..SliceIndex$LT$$u5b$T$u5d$$GT$$GT$5index17h6a2dfa150760104fE
	movq	%rax, -48(%rbp)
	movq	%rdx, -56(%rbp)
	movq	-48(%rbp), %rax
	movq	-56(%rbp), %rdx
	addq	$64, %rsp
	popq	%rbp
	retq
	.cfi_endproc

	.p2align	4, 0x90
__ZN101_$LT$core..ops..range..RangeTo$LT$usize$GT$$u20$as$u20$core..slice..SliceIndex$LT$$u5b$T$u5d$$GT$$GT$9index_mut17h5606c036a430cd5eE:
	.cfi_startproc
	pushq	%rbp
	.cfi_def_cfa_offset 16
	.cfi_offset %rbp, -16
	movq	%rsp, %rbp
	.cfi_def_cfa_register %rbp
	subq	$64, %rsp
	movq	$0, -16(%rbp)
	movq	%rdi, -8(%rbp)
	movq	-16(%rbp), %rdi
	movq	-8(%rbp), %rax
	movq	%rsi, -24(%rbp)
	movq	%rax, %rsi
	movq	-24(%rbp), %rax
	movq	%rdx, -32(%rbp)
	movq	%rax, %rdx
	movq	-32(%rbp), %r8
	movq	%rcx, -40(%rbp)
	movq	%r8, %rcx
	movq	-40(%rbp), %r8
	callq	__ZN99_$LT$core..ops..range..Range$LT$usize$GT$$u20$as$u20$core..slice..SliceIndex$LT$$u5b$T$u5d$$GT$$GT$9index_mut17h169d629c7a9e6065E
	movq	%rax, -48(%rbp)
	movq	%rdx, -56(%rbp)
	movq	-48(%rbp), %rax
	movq	-56(%rbp), %rdx
	addq	$64, %rsp
	popq	%rbp
	retq
	.cfi_endproc

	.p2align	4, 0x90
__ZN105_$LT$std..ffi..os_str..OsString$u20$as$u20$core..ops..index..Index$LT$core..ops..range..RangeFull$GT$$GT$5index17h5fe7c094e4d71666E:
	.cfi_startproc
	pushq	%rbp
	.cfi_def_cfa_offset 16
	.cfi_offset %rbp, -16
	movq	%rsp, %rbp
	.cfi_def_cfa_register %rbp
	subq	$48, %rsp
	movq	%rsi, -8(%rbp)
	callq	__ZN3std10sys_common12os_str_bytes3Buf8as_slice17hbf44349fc1af3016E
	movq	%rax, -16(%rbp)
	movq	%rdx, -24(%rbp)
	movq	-16(%rbp), %rdi
	movq	-24(%rbp), %rsi
	callq	__ZN3std3ffi6os_str5OsStr10from_inner17h300ad53cb781bcaaE
	movq	%rax, -32(%rbp)
	movq	%rdx, -40(%rbp)
	movq	-32(%rbp), %rax
	movq	-40(%rbp), %rdx
	addq	$48, %rsp
	popq	%rbp
	retq
	.cfi_endproc

	.p2align	4, 0x90
__ZN112_$LT$alloc..collections..btree..map..IntoIter$LT$K$C$V$GT$$u20$as$u20$core..iter..traits..iterator..Iterator$GT$4next17h39b91aca21c621cdE:
	.cfi_startproc
	pushq	%rbp
	.cfi_def_cfa_offset 16
	.cfi_offset %rbp, -16
	movq	%rsp, %rbp
	.cfi_def_cfa_register %rbp
	subq	$96, %rsp
	movq	%rdi, %rax
	cmpq	$0, 64(%rsi)
	movq	%rsi, -56(%rbp)
	movq	%rdi, -64(%rbp)
	movq	%rax, -72(%rbp)
	je	LBB3_2
	movq	-56(%rbp), %rax
	movq	64(%rax), %rcx
	subq	$1, %rcx
	movq	%rcx, 64(%rax)
	movq	%rax, %rdi
	callq	__ZN4core6option15Option$LT$T$GT$6as_mut17h82dd72e7e962df7eE
	movq	%rax, -80(%rbp)
	jmp	LBB3_3
LBB3_2:
	movq	-64(%rbp), %rax
	movq	$0, (%rax)
	jmp	LBB3_6
LBB3_3:
	leaq	l___unnamed_1(%rip), %rax
	movq	-80(%rbp), %rdi
	movq	%rax, %rsi
	callq	__ZN4core6option15Option$LT$T$GT$6unwrap17hab7b3577fbcd1544E
	movq	%rax, -88(%rbp)
	leaq	-48(%rbp), %rdi
	movq	-88(%rbp), %rsi
	callq	__ZN5alloc11collections5btree8navigate263_$LT$impl$u20$alloc..collections..btree..node..Handle$LT$alloc..collections..btree..node..NodeRef$LT$alloc..collections..btree..node..marker..Owned$C$K$C$V$C$alloc..collections..btree..node..marker..Leaf$GT$$C$alloc..collections..btree..node..marker..Edge$GT$$GT$14next_unchecked17h06a12a1a55d4dba2E
	movq	-64(%rbp), %rax
	leaq	-48(%rbp), %rcx
	movq	%rax, %rdi
	movq	%rcx, %rsi
	movl	$48, %edx
	callq	_memcpy
LBB3_6:
	movq	-72(%rbp), %rax
	addq	$96, %rsp
	popq	%rbp
	retq
	.cfi_endproc

	.p2align	4, 0x90
__ZN115_$LT$alloc..collections..btree..map..BTreeMap$LT$K$C$V$GT$$u20$as$u20$core..iter..traits..collect..IntoIterator$GT$9into_iter17h8ab273cbc90b3fd0E:
	.cfi_startproc
	pushq	%rbp
	.cfi_def_cfa_offset 16
	.cfi_offset %rbp, -16
	movq	%rsp, %rbp
	.cfi_def_cfa_register %rbp
	subq	$464, %rsp
	movq	%rdi, %rax
	movq	(%rsi), %rcx
	movq	%rcx, -408(%rbp)
	movq	8(%rsi), %rcx
	movq	%rcx, -400(%rbp)
	movq	16(%rsi), %rcx
	movq	%rcx, -392(%rbp)
	movq	-408(%rbp), %rcx
	movq	%rcx, -24(%rbp)
	movq	-400(%rbp), %rcx
	movq	%rcx, -16(%rbp)
	movq	-392(%rbp), %rcx
	movq	%rcx, -8(%rbp)
	movq	-24(%rbp), %rcx
	movq	%rcx, -432(%rbp)
	movq	-16(%rbp), %rcx
	movq	%rcx, -424(%rbp)
	movq	-8(%rbp), %rcx
	movq	%rcx, -416(%rbp)
	movq	%rdi, -440(%rbp)
	movq	%rax, -448(%rbp)
	leaq	-432(%rbp), %rax
	movq	%rax, -456(%rbp)
	movq	-456(%rbp), %rdi
	callq	__ZN4core6option15Option$LT$T$GT$4take17h05bc3431b213f5edE
	movq	%rdx, -376(%rbp)
	movq	%rax, -384(%rbp)
	xorl	%eax, %eax
	movl	%eax, %ecx
	cmpq	$0, -384(%rbp)
	movl	$1, %edx
	cmovbeq	%rcx, %rdx
	cmpq	$1, %rdx
	je	LBB4_5
	movq	$0, -80(%rbp)
	movq	$0, -48(%rbp)
	movq	-88(%rbp), %rax
	movq	-440(%rbp), %rcx
	movq	%rax, (%rcx)
	movq	-80(%rbp), %rax
	movq	%rax, 8(%rcx)
	movq	-72(%rbp), %rax
	movq	%rax, 16(%rcx)
	movq	-64(%rbp), %rax
	movq	%rax, 24(%rcx)
	movq	-56(%rbp), %rax
	movq	%rax, 32(%rcx)
	movq	-48(%rbp), %rax
	movq	%rax, 40(%rcx)
	movq	-40(%rbp), %rax
	movq	%rax, 48(%rcx)
	movq	-32(%rbp), %rax
	movq	%rax, 56(%rcx)
	movq	$0, 64(%rcx)
	jmp	LBB4_9
LBB4_5:
	movq	-384(%rbp), %rsi
	movq	-376(%rbp), %rdx
	leaq	-240(%rbp), %rdi
	callq	__ZN5alloc11collections5btree4node17Root$LT$K$C$V$GT$8into_ref17h7fc8e013ed177e2eE
	leaq	-304(%rbp), %rdi
	leaq	-240(%rbp), %rsi
	callq	__ZN5alloc11collections5btree3map17full_range_search17h253db37ea08e39a5E
	movq	-304(%rbp), %rax
	movq	%rax, -368(%rbp)
	movq	-296(%rbp), %rax
	movq	%rax, -360(%rbp)
	movq	-288(%rbp), %rax
	movq	%rax, -352(%rbp)
	movq	-280(%rbp), %rax
	movq	%rax, -344(%rbp)
	movq	-272(%rbp), %rax
	movq	%rax, -336(%rbp)
	movq	-264(%rbp), %rax
	movq	%rax, -328(%rbp)
	movq	-256(%rbp), %rax
	movq	%rax, -320(%rbp)
	movq	-248(%rbp), %rax
	movq	%rax, -312(%rbp)
	movq	-368(%rbp), %rax
	movq	%rax, -184(%rbp)
	movq	-360(%rbp), %rax
	movq	%rax, -176(%rbp)
	movq	-352(%rbp), %rax
	movq	%rax, -168(%rbp)
	movq	-344(%rbp), %rax
	movq	%rax, -160(%rbp)
	movq	-184(%rbp), %rax
	movq	%rax, -216(%rbp)
	movq	-176(%rbp), %rax
	movq	%rax, -208(%rbp)
	movq	-168(%rbp), %rax
	movq	%rax, -200(%rbp)
	movq	-160(%rbp), %rax
	movq	%rax, -192(%rbp)
	movq	-336(%rbp), %rax
	movq	%rax, -120(%rbp)
	movq	-328(%rbp), %rax
	movq	%rax, -112(%rbp)
	movq	-320(%rbp), %rax
	movq	%rax, -104(%rbp)
	movq	-312(%rbp), %rax
	movq	%rax, -96(%rbp)
	movq	-120(%rbp), %rax
	movq	%rax, -152(%rbp)
	movq	-112(%rbp), %rax
	movq	%rax, -144(%rbp)
	movq	-104(%rbp), %rax
	movq	%rax, -136(%rbp)
	movq	-96(%rbp), %rax
	movq	%rax, -128(%rbp)
	leaq	-432(%rbp), %rax
	movq	%rax, -464(%rbp)
	movq	-464(%rbp), %rax
	movq	16(%rax), %rcx
	movq	-216(%rbp), %rdx
	movq	-440(%rbp), %rsi
	movq	%rdx, (%rsi)
	movq	-208(%rbp), %rdx
	movq	%rdx, 8(%rsi)
	movq	-200(%rbp), %rdx
	movq	%rdx, 16(%rsi)
	movq	-192(%rbp), %rdx
	movq	%rdx, 24(%rsi)
	movq	-152(%rbp), %rdx
	movq	%rdx, 32(%rsi)
	movq	-144(%rbp), %rdx
	movq	%rdx, 40(%rsi)
	movq	-136(%rbp), %rdx
	movq	%rdx, 48(%rsi)
	movq	-128(%rbp), %rdx
	movq	%rdx, 56(%rsi)
	movq	%rcx, 64(%rsi)
LBB4_9:
	movq	-448(%rbp), %rax
	addq	$464, %rsp
	popq	%rbp
	retq
	.cfi_endproc

	.p2align	4, 0x90
__ZN119_$LT$core..ptr..non_null..NonNull$LT$T$GT$$u20$as$u20$core..convert..From$LT$core..ptr..unique..Unique$LT$T$GT$$GT$$GT$4from17h6ae1f902b7c69c84E:
	.cfi_startproc
	pushq	%rbp
	.cfi_def_cfa_offset 16
	.cfi_offset %rbp, -16
	movq	%rsp, %rbp
	.cfi_def_cfa_register %rbp
	subq	$16, %rsp
	callq	__ZN4core3ptr6unique15Unique$LT$T$GT$6as_ptr17h70d741d2b90e6b3cE
	movq	%rax, -8(%rbp)
	movq	-8(%rbp), %rdi
	callq	__ZN4core3ptr8non_null16NonNull$LT$T$GT$13new_unchecked17hb5f072193df64002E
	movq	%rax, -16(%rbp)
	movq	-16(%rbp), %rax
	addq	$16, %rsp
	popq	%rbp
	retq
	.cfi_endproc

	.p2align	4, 0x90
__ZN119_$LT$core..ptr..non_null..NonNull$LT$T$GT$$u20$as$u20$core..convert..From$LT$core..ptr..unique..Unique$LT$T$GT$$GT$$GT$4from17hf0e32e15c07c841eE:
	.cfi_startproc
	pushq	%rbp
	.cfi_def_cfa_offset 16
	.cfi_offset %rbp, -16
	movq	%rsp, %rbp
	.cfi_def_cfa_register %rbp
	subq	$16, %rsp
	callq	__ZN4core3ptr6unique15Unique$LT$T$GT$6as_ptr17hdb97a2a7007fb868E
	movq	%rax, -8(%rbp)
	movq	-8(%rbp), %rdi
	callq	__ZN4core3ptr8non_null16NonNull$LT$T$GT$13new_unchecked17hfc051782ff11e254E
	movq	%rax, -16(%rbp)
	movq	-16(%rbp), %rax
	addq	$16, %rsp
	popq	%rbp
	retq
	.cfi_endproc

	.p2align	4, 0x90
__ZN166_$LT$$LT$alloc..collections..btree..map..IntoIter$LT$K$C$V$GT$$u20$as$u20$core..ops..drop..Drop$GT$..drop..DropGuard$LT$K$C$V$GT$$u20$as$u20$core..ops..drop..Drop$GT$4drop17h26cc3d2aa2e17bfeE:
	.cfi_startproc
	pushq	%rbp
	.cfi_def_cfa_offset 16
	.cfi_offset %rbp, -16
	movq	%rsp, %rbp
	.cfi_def_cfa_register %rbp
	subq	$368, %rsp
	movq	%rdi, -368(%rbp)
LBB7_1:
	movq	-368(%rbp), %rax
	movq	(%rax), %rsi
	leaq	-360(%rbp), %rdi
	callq	__ZN112_$LT$alloc..collections..btree..map..IntoIter$LT$K$C$V$GT$$u20$as$u20$core..iter..traits..iterator..Iterator$GT$4next17h39b91aca21c621cdE
	xorl	%eax, %eax
	movl	%eax, %ecx
	cmpq	$0, -360(%rbp)
	movl	$1, %edx
	cmovbeq	%rcx, %rdx
	cmpq	$1, %rdx
	je	LBB7_4
	leaq	-360(%rbp), %rdi
	callq	__ZN4core3ptr13drop_in_place17h6ad1eca66289a33fE
	jmp	LBB7_5
LBB7_4:
	leaq	-360(%rbp), %rdi
	callq	__ZN4core3ptr13drop_in_place17h6ad1eca66289a33fE
	jmp	LBB7_6
LBB7_5:
	movq	-368(%rbp), %rax
	movq	(%rax), %rcx
	leaq	-232(%rbp), %rdi
	movq	%rcx, %rsi
	callq	__ZN4core3ptr4read17h80f71ed116f148faE
	jmp	LBB7_7
LBB7_6:
	jmp	LBB7_1
LBB7_7:
	movq	-232(%rbp), %rax
	movq	%rax, -32(%rbp)
	movq	-224(%rbp), %rax
	movq	%rax, -24(%rbp)
	movq	-216(%rbp), %rax
	movq	%rax, -16(%rbp)
	movq	-208(%rbp), %rax
	movq	%rax, -8(%rbp)
	leaq	-264(%rbp), %rdi
	leaq	-32(%rbp), %rsi
	callq	__ZN4core6option15Option$LT$T$GT$14unwrap_or_else17hb753e7892dfdd7eaE
	leaq	-288(%rbp), %rdi
	leaq	-264(%rbp), %rsi
	callq	__ZN5alloc11collections5btree4node25Handle$LT$Node$C$Type$GT$9into_node17h23c76c995cb89ef2E
	leaq	-312(%rbp), %rdi
	leaq	-288(%rbp), %rsi
	callq	__ZN5alloc11collections5btree4node40NodeRef$LT$BorrowType$C$K$C$V$C$Type$GT$11forget_type17hb33bddfec844286bE
	jmp	LBB7_11
LBB7_11:
	movq	-312(%rbp), %rax
	movq	%rax, -168(%rbp)
	movq	-304(%rbp), %rax
	movq	%rax, -160(%rbp)
	movq	-296(%rbp), %rax
	movq	%rax, -152(%rbp)
	leaq	-200(%rbp), %rdi
	leaq	-168(%rbp), %rsi
	callq	__ZN5alloc11collections5btree4node127NodeRef$LT$alloc..collections..btree..node..marker..Owned$C$K$C$V$C$alloc..collections..btree..node..marker..LeafOrInternal$GT$21deallocate_and_ascend17ha0dc5d2b6808c53fE
	xorl	%eax, %eax
	movl	%eax, %ecx
	cmpq	$0, -192(%rbp)
	movl	$1, %edx
	cmovbeq	%rcx, %rdx
	cmpq	$1, %rdx
	je	LBB7_14
	addq	$368, %rsp
	popq	%rbp
	retq
LBB7_14:
	movq	-200(%rbp), %rax
	movq	%rax, -144(%rbp)
	movq	-192(%rbp), %rax
	movq	%rax, -136(%rbp)
	movq	-184(%rbp), %rax
	movq	%rax, -128(%rbp)
	movq	-176(%rbp), %rax
	movq	%rax, -120(%rbp)
	movq	-144(%rbp), %rax
	movq	%rax, -64(%rbp)
	movq	-136(%rbp), %rax
	movq	%rax, -56(%rbp)
	movq	-128(%rbp), %rax
	movq	%rax, -48(%rbp)
	movq	-120(%rbp), %rax
	movq	%rax, -40(%rbp)
	leaq	-88(%rbp), %rdi
	leaq	-64(%rbp), %rsi
	callq	__ZN5alloc11collections5btree4node25Handle$LT$Node$C$Type$GT$9into_node17h2327653f408bc657E
	leaq	-112(%rbp), %rdi
	leaq	-88(%rbp), %rsi
	callq	__ZN5alloc11collections5btree4node40NodeRef$LT$BorrowType$C$K$C$V$C$Type$GT$11forget_type17h0d4594357ec2a7ffE
	movq	-112(%rbp), %rax
	movq	%rax, -312(%rbp)
	movq	-104(%rbp), %rax
	movq	%rax, -304(%rbp)
	movq	-96(%rbp), %rax
	movq	%rax, -296(%rbp)
	jmp	LBB7_11
	.cfi_endproc

	.p2align	4, 0x90
__ZN36_$LT$T$u20$as$u20$core..any..Any$GT$7type_id17h7625b27caa0604b5E:
	.cfi_startproc
	pushq	%rbp
	.cfi_def_cfa_offset 16
	.cfi_offset %rbp, -16
	movq	%rsp, %rbp
	.cfi_def_cfa_register %rbp
	subq	$16, %rsp
	movq	%rdi, -8(%rbp)
	callq	__ZN4core3any6TypeId2of17h0244110bcb80894aE
	movq	%rax, -16(%rbp)
	movq	-16(%rbp), %rax
	addq	$16, %rsp
	popq	%rbp
	retq
	.cfi_endproc

	.p2align	4, 0x90
__ZN3std10sys_common12os_str_bytes3Buf8as_slice17hbf44349fc1af3016E:
	.cfi_startproc
	pushq	%rbp
	.cfi_def_cfa_offset 16
	.cfi_offset %rbp, -16
	movq	%rsp, %rbp
	.cfi_def_cfa_register %rbp
	subq	$48, %rsp
	callq	__ZN68_$LT$alloc..vec..Vec$LT$T$GT$$u20$as$u20$core..ops..deref..Deref$GT$5deref17hcd64c9368a0af21fE
	movq	%rax, -24(%rbp)
	movq	%rdx, -32(%rbp)
	movq	-24(%rbp), %rax
	movq	%rax, -16(%rbp)
	movq	-32(%rbp), %rcx
	movq	%rcx, -8(%rbp)
	movq	-16(%rbp), %rax
	movq	-8(%rbp), %rdx
	movq	%rax, -40(%rbp)
	movq	%rdx, -48(%rbp)
	movq	-40(%rbp), %rax
	movq	-48(%rbp), %rdx
	addq	$48, %rsp
	popq	%rbp
	retq
	.cfi_endproc

	.p2align	4, 0x90
__ZN3std10sys_common12os_str_bytes5Slice13from_u8_slice17he50070a432366072E:
	.cfi_startproc
	pushq	%rbp
	.cfi_def_cfa_offset 16
	.cfi_offset %rbp, -16
	movq	%rsp, %rbp
	.cfi_def_cfa_register %rbp
	subq	$32, %rsp
	movq	%rdi, -16(%rbp)
	movq	%rsi, -8(%rbp)
	movq	-16(%rbp), %rax
	movq	-8(%rbp), %rdx
	movq	%rax, -24(%rbp)
	movq	%rdx, -32(%rbp)
	movq	-24(%rbp), %rax
	movq	-32(%rbp), %rdx
	addq	$32, %rsp
	popq	%rbp
	retq
	.cfi_endproc

	.p2align	4, 0x90
__ZN3std10sys_common12os_str_bytes5Slice8from_str17h0befa86e3b26d122E:
	.cfi_startproc
	pushq	%rbp
	.cfi_def_cfa_offset 16
	.cfi_offset %rbp, -16
	movq	%rsp, %rbp
	.cfi_def_cfa_register %rbp
	subq	$48, %rsp
	movq	%rdi, -16(%rbp)
	movq	%rsi, -8(%rbp)
	movq	-16(%rbp), %rdi
	movq	-8(%rbp), %rsi
	movq	%rdi, -24(%rbp)
	movq	%rsi, -32(%rbp)
	movq	-24(%rbp), %rdi
	movq	-32(%rbp), %rsi
	callq	__ZN3std10sys_common12os_str_bytes5Slice13from_u8_slice17he50070a432366072E
	movq	%rax, -40(%rbp)
	movq	%rdx, -48(%rbp)
	movq	-40(%rbp), %rax
	movq	-48(%rbp), %rdx
	addq	$48, %rsp
	popq	%rbp
	retq
	.cfi_endproc

	.private_extern	__ZN3std2rt10lang_start17h063951ef05304295E
	.globl	__ZN3std2rt10lang_start17h063951ef05304295E
	.p2align	4, 0x90
__ZN3std2rt10lang_start17h063951ef05304295E:
	.cfi_startproc
	pushq	%rbp
	.cfi_def_cfa_offset 16
	.cfi_offset %rbp, -16
	movq	%rsp, %rbp
	.cfi_def_cfa_register %rbp
	subq	$32, %rsp
	leaq	l___unnamed_2(%rip), %rax
	movq	%rdi, -8(%rbp)
	leaq	-8(%rbp), %rcx
	movq	%rcx, %rdi
	movq	%rsi, -16(%rbp)
	movq	%rax, %rsi
	movq	-16(%rbp), %rax
	movq	%rdx, -24(%rbp)
	movq	%rax, %rdx
	movq	-24(%rbp), %rcx
	callq	__ZN3std2rt19lang_start_internal17hbbd10965adc92ae7E
	movq	%rax, -32(%rbp)
	movq	-32(%rbp), %rax
	addq	$32, %rsp
	popq	%rbp
	retq
	.cfi_endproc

	.p2align	4, 0x90
__ZN3std2rt10lang_start28_$u7b$$u7b$closure$u7d$$u7d$17h312124556226ad84E:
	.cfi_startproc
	pushq	%rbp
	.cfi_def_cfa_offset 16
	.cfi_offset %rbp, -16
	movq	%rsp, %rbp
	.cfi_def_cfa_register %rbp
	subq	$16, %rsp
	callq	*(%rdi)
	callq	__ZN54_$LT$$LP$$RP$$u20$as$u20$std..process..Termination$GT$6report17h69bd11e5475e5fedE
	movl	%eax, -4(%rbp)
	movl	-4(%rbp), %eax
	addq	$16, %rsp
	popq	%rbp
	retq
	.cfi_endproc

	.p2align	4, 0x90
__ZN3std3env3var17h48d64d7671710647E:
Lfunc_begin0:
	.cfi_startproc
	.cfi_personality 155, _rust_eh_personality
	.cfi_lsda 16, Lexception0
	pushq	%rbp
	.cfi_def_cfa_offset 16
	.cfi_offset %rbp, -16
	movq	%rsp, %rbp
	.cfi_def_cfa_register %rbp
	subq	$64, %rsp
	movq	%rdi, %rax
	movq	%rsi, -32(%rbp)
	movq	%rdx, -24(%rbp)
Ltmp0:
	leaq	-32(%rbp), %rcx
	movq	%rdi, -40(%rbp)
	movq	%rcx, %rdi
	movq	%rax, -48(%rbp)
	callq	__ZN55_$LT$$RF$T$u20$as$u20$core..convert..AsRef$LT$U$GT$$GT$6as_ref17heca8710043bdb605E
Ltmp1:
	movq	%rdx, -56(%rbp)
	movq	%rax, -64(%rbp)
	jmp	LBB14_2
LBB14_1:
	movq	-16(%rbp), %rdi
	callq	__Unwind_Resume
	ud2
LBB14_2:
Ltmp2:
	movq	-40(%rbp), %rdi
	movq	-64(%rbp), %rsi
	movq	-56(%rbp), %rdx
	callq	__ZN3std3env4_var17h5f49b4c5e0582abcE
Ltmp3:
	jmp	LBB14_4
LBB14_3:
	jmp	LBB14_1
LBB14_4:
	jmp	LBB14_5
LBB14_5:
	movq	-48(%rbp), %rax
	addq	$64, %rsp
	popq	%rbp
	retq
LBB14_6:
Ltmp4:
	movq	%rax, -16(%rbp)
	movl	%edx, -8(%rbp)
	jmp	LBB14_3
Lfunc_end0:
	.cfi_endproc
	.section	__TEXT,__gcc_except_tab
	.p2align	2
GCC_except_table14:
Lexception0:
	.byte	255
	.byte	255
	.byte	1
	.uleb128 Lcst_end0-Lcst_begin0
Lcst_begin0:
	.uleb128 Ltmp0-Lfunc_begin0
	.uleb128 Ltmp1-Ltmp0
	.uleb128 Ltmp4-Lfunc_begin0
	.byte	0
	.uleb128 Ltmp1-Lfunc_begin0
	.uleb128 Ltmp2-Ltmp1
	.byte	0
	.byte	0
	.uleb128 Ltmp2-Lfunc_begin0
	.uleb128 Ltmp3-Ltmp2
	.uleb128 Ltmp4-Lfunc_begin0
	.byte	0
Lcst_end0:
	.p2align	2

	.section	__TEXT,__text,regular,pure_instructions
	.p2align	4, 0x90
__ZN3std3env6var_os17hf9531ef618f9152cE:
Lfunc_begin1:
	.cfi_startproc
	.cfi_personality 155, _rust_eh_personality
	.cfi_lsda 16, Lexception1
	pushq	%rbp
	.cfi_def_cfa_offset 16
	.cfi_offset %rbp, -16
	movq	%rsp, %rbp
	.cfi_def_cfa_register %rbp
	subq	$64, %rsp
	movq	%rdi, %rax
	movq	%rsi, -32(%rbp)
	movq	%rdx, -24(%rbp)
Ltmp5:
	leaq	-32(%rbp), %rcx
	movq	%rdi, -40(%rbp)
	movq	%rcx, %rdi
	movq	%rax, -48(%rbp)
	callq	__ZN55_$LT$$RF$T$u20$as$u20$core..convert..AsRef$LT$U$GT$$GT$6as_ref17heca8710043bdb605E
Ltmp6:
	movq	%rdx, -56(%rbp)
	movq	%rax, -64(%rbp)
	jmp	LBB15_2
LBB15_1:
	movq	-16(%rbp), %rdi
	callq	__Unwind_Resume
	ud2
LBB15_2:
Ltmp7:
	movq	-40(%rbp), %rdi
	movq	-64(%rbp), %rsi
	movq	-56(%rbp), %rdx
	callq	__ZN3std3env7_var_os17hc628b18a701aa4a3E
Ltmp8:
	jmp	LBB15_4
LBB15_3:
	jmp	LBB15_1
LBB15_4:
	jmp	LBB15_5
LBB15_5:
	movq	-48(%rbp), %rax
	addq	$64, %rsp
	popq	%rbp
	retq
LBB15_6:
Ltmp9:
	movq	%rax, -16(%rbp)
	movl	%edx, -8(%rbp)
	jmp	LBB15_3
Lfunc_end1:
	.cfi_endproc
	.section	__TEXT,__gcc_except_tab
	.p2align	2
GCC_except_table15:
Lexception1:
	.byte	255
	.byte	255
	.byte	1
	.uleb128 Lcst_end1-Lcst_begin1
Lcst_begin1:
	.uleb128 Ltmp5-Lfunc_begin1
	.uleb128 Ltmp6-Ltmp5
	.uleb128 Ltmp9-Lfunc_begin1
	.byte	0
	.uleb128 Ltmp6-Lfunc_begin1
	.uleb128 Ltmp7-Ltmp6
	.byte	0
	.byte	0
	.uleb128 Ltmp7-Lfunc_begin1
	.uleb128 Ltmp8-Ltmp7
	.uleb128 Ltmp9-Lfunc_begin1
	.byte	0
Lcst_end1:
	.p2align	2

	.section	__TEXT,__text,regular,pure_instructions
	.p2align	4, 0x90
__ZN3std3ffi6os_str5OsStr10from_inner17h300ad53cb781bcaaE:
	.cfi_startproc
	pushq	%rbp
	.cfi_def_cfa_offset 16
	.cfi_offset %rbp, -16
	movq	%rsp, %rbp
	.cfi_def_cfa_register %rbp
	movq	%rdi, %rax
	movq	%rsi, %rdx
	popq	%rbp
	retq
	.cfi_endproc

	.p2align	4, 0x90
__ZN3std3ffi6os_str85_$LT$impl$u20$core..convert..AsRef$LT$std..ffi..os_str..OsStr$GT$$u20$for$u20$str$GT$6as_ref17h3129f4e510bc3cb8E:
	.cfi_startproc
	pushq	%rbp
	.cfi_def_cfa_offset 16
	.cfi_offset %rbp, -16
	movq	%rsp, %rbp
	.cfi_def_cfa_register %rbp
	subq	$32, %rsp
	callq	__ZN3std10sys_common12os_str_bytes5Slice8from_str17h0befa86e3b26d122E
	movq	%rax, -8(%rbp)
	movq	%rdx, -16(%rbp)
	movq	-8(%rbp), %rdi
	movq	-16(%rbp), %rsi
	callq	__ZN3std3ffi6os_str5OsStr10from_inner17h300ad53cb781bcaaE
	movq	%rax, -24(%rbp)
	movq	%rdx, -32(%rbp)
	movq	-24(%rbp), %rax
	movq	-32(%rbp), %rdx
	addq	$32, %rsp
	popq	%rbp
	retq
	.cfi_endproc

	.p2align	4, 0x90
__ZN3std3sys4unix7process14process_common8ExitCode6as_i3217h3236ef8f681aba6bE:
	.cfi_startproc
	pushq	%rbp
	.cfi_def_cfa_offset 16
	.cfi_offset %rbp, -16
	movq	%rsp, %rbp
	.cfi_def_cfa_register %rbp
	movzbl	(%rdi), %eax
	popq	%rbp
	retq
	.cfi_endproc

	.p2align	4, 0x90
__ZN3std7process7Command3arg17h1f9850a4074174a5E:
Lfunc_begin2:
	.cfi_startproc
	.cfi_personality 155, _rust_eh_personality
	.cfi_lsda 16, Lexception2
	pushq	%rbp
	.cfi_def_cfa_offset 16
	.cfi_offset %rbp, -16
	movq	%rsp, %rbp
	.cfi_def_cfa_register %rbp
	subq	$64, %rsp
	movq	%rsi, -32(%rbp)
	movq	%rdx, -24(%rbp)
	movq	%rdi, %rax
Ltmp10:
	leaq	-32(%rbp), %rcx
	movq	%rdi, -40(%rbp)
	movq	%rcx, %rdi
	movq	%rax, -48(%rbp)
	callq	__ZN55_$LT$$RF$T$u20$as$u20$core..convert..AsRef$LT$U$GT$$GT$6as_ref17heca8710043bdb605E
Ltmp11:
	movq	%rdx, -56(%rbp)
	movq	%rax, -64(%rbp)
	jmp	LBB19_2
LBB19_1:
	movq	-16(%rbp), %rdi
	callq	__Unwind_Resume
	ud2
LBB19_2:
Ltmp12:
	movq	-48(%rbp), %rdi
	movq	-64(%rbp), %rsi
	movq	-56(%rbp), %rdx
	callq	__ZN3std3sys4unix7process14process_common7Command3arg17he3b985033bebdb87E
Ltmp13:
	jmp	LBB19_4
LBB19_3:
	jmp	LBB19_1
LBB19_4:
	jmp	LBB19_5
LBB19_5:
	movq	-40(%rbp), %rax
	addq	$64, %rsp
	popq	%rbp
	retq
LBB19_6:
Ltmp14:
	movq	%rax, -16(%rbp)
	movl	%edx, -8(%rbp)
	jmp	LBB19_3
Lfunc_end2:
	.cfi_endproc
	.section	__TEXT,__gcc_except_tab
	.p2align	2
GCC_except_table19:
Lexception2:
	.byte	255
	.byte	255
	.byte	1
	.uleb128 Lcst_end2-Lcst_begin2
Lcst_begin2:
	.uleb128 Ltmp10-Lfunc_begin2
	.uleb128 Ltmp11-Ltmp10
	.uleb128 Ltmp14-Lfunc_begin2
	.byte	0
	.uleb128 Ltmp11-Lfunc_begin2
	.uleb128 Ltmp12-Ltmp11
	.byte	0
	.byte	0
	.uleb128 Ltmp12-Lfunc_begin2
	.uleb128 Ltmp13-Ltmp12
	.uleb128 Ltmp14-Lfunc_begin2
	.byte	0
Lcst_end2:
	.p2align	2

	.section	__TEXT,__text,regular,pure_instructions
	.p2align	4, 0x90
__ZN3std7process7Command3new17hca035ae9cc19caf6E:
Lfunc_begin3:
	.cfi_startproc
	.cfi_personality 155, _rust_eh_personality
	.cfi_lsda 16, Lexception3
	pushq	%rbp
	.cfi_def_cfa_offset 16
	.cfi_offset %rbp, -16
	movq	%rsp, %rbp
	.cfi_def_cfa_register %rbp
	subq	$256, %rsp
	movq	%rdi, %rax
	movq	%rsi, -216(%rbp)
	movq	%rdx, -208(%rbp)
Ltmp15:
	leaq	-216(%rbp), %rcx
	movq	%rdi, -224(%rbp)
	movq	%rcx, %rdi
	movq	%rax, -232(%rbp)
	callq	__ZN55_$LT$$RF$T$u20$as$u20$core..convert..AsRef$LT$U$GT$$GT$6as_ref17heca8710043bdb605E
Ltmp16:
	movq	%rdx, -240(%rbp)
	movq	%rax, -248(%rbp)
	jmp	LBB20_2
LBB20_1:
	movq	-16(%rbp), %rdi
	callq	__Unwind_Resume
	ud2
LBB20_2:
Ltmp17:
	leaq	-200(%rbp), %rdi
	movq	-248(%rbp), %rsi
	movq	-240(%rbp), %rdx
	callq	__ZN3std3sys4unix7process14process_common7Command3new17h6b51c4bb5fada643E
Ltmp18:
	jmp	LBB20_4
LBB20_3:
	jmp	LBB20_1
LBB20_4:
	movq	-224(%rbp), %rax
	leaq	-200(%rbp), %rcx
	movq	%rax, %rdi
	movq	%rcx, %rsi
	movl	$184, %edx
	callq	_memcpy
	movq	-232(%rbp), %rax
	addq	$256, %rsp
	popq	%rbp
	retq
LBB20_6:
Ltmp19:
	movq	%rax, -16(%rbp)
	movl	%edx, -8(%rbp)
	jmp	LBB20_3
Lfunc_end3:
	.cfi_endproc
	.section	__TEXT,__gcc_except_tab
	.p2align	2
GCC_except_table20:
Lexception3:
	.byte	255
	.byte	255
	.byte	1
	.uleb128 Lcst_end3-Lcst_begin3
Lcst_begin3:
	.uleb128 Ltmp15-Lfunc_begin3
	.uleb128 Ltmp16-Ltmp15
	.uleb128 Ltmp19-Lfunc_begin3
	.byte	0
	.uleb128 Ltmp16-Lfunc_begin3
	.uleb128 Ltmp17-Ltmp16
	.byte	0
	.byte	0
	.uleb128 Ltmp17-Lfunc_begin3
	.uleb128 Ltmp18-Ltmp17
	.uleb128 Ltmp19-Lfunc_begin3
	.byte	0
	.uleb128 Ltmp18-Lfunc_begin3
	.uleb128 Lfunc_end3-Ltmp18
	.byte	0
	.byte	0
Lcst_end3:
	.p2align	2

	.section	__TEXT,__text,regular,pure_instructions
	.p2align	4, 0x90
__ZN3std7process7Command3new17hef7b240cec9e35eaE:
Lfunc_begin4:
	.cfi_startproc
	.cfi_personality 155, _rust_eh_personality
	.cfi_lsda 16, Lexception4
	pushq	%rbp
	.cfi_def_cfa_offset 16
	.cfi_offset %rbp, -16
	movq	%rsp, %rbp
	.cfi_def_cfa_register %rbp
	subq	$240, %rsp
	movq	%rdi, %rax
Ltmp20:
	movq	%rdi, -208(%rbp)
	movq	%rsi, %rdi
	movq	%rsi, -216(%rbp)
	movq	%rax, -224(%rbp)
	callq	__ZN98_$LT$std..ffi..os_str..OsString$u20$as$u20$core..convert..AsRef$LT$std..ffi..os_str..OsStr$GT$$GT$6as_ref17h2aebe32b866cae48E
Ltmp21:
	movq	%rdx, -232(%rbp)
	movq	%rax, -240(%rbp)
	jmp	LBB21_2
LBB21_1:
	movq	-16(%rbp), %rdi
	callq	__Unwind_Resume
	ud2
LBB21_2:
Ltmp22:
	leaq	-200(%rbp), %rdi
	movq	-240(%rbp), %rsi
	movq	-232(%rbp), %rdx
	callq	__ZN3std3sys4unix7process14process_common7Command3new17h6b51c4bb5fada643E
Ltmp23:
	jmp	LBB21_4
LBB21_3:
	movq	-216(%rbp), %rdi
	callq	__ZN4core3ptr13drop_in_place17hf6e72c79ba3a5cb6E
	jmp	LBB21_1
LBB21_4:
	movq	-208(%rbp), %rax
	leaq	-200(%rbp), %rcx
	movq	%rax, %rdi
	movq	%rcx, %rsi
	movl	$184, %edx
	callq	_memcpy
	movq	-216(%rbp), %rdi
	callq	__ZN4core3ptr13drop_in_place17hf6e72c79ba3a5cb6E
	movq	-224(%rbp), %rax
	addq	$240, %rsp
	popq	%rbp
	retq
LBB21_6:
Ltmp24:
	movq	%rax, -16(%rbp)
	movl	%edx, -8(%rbp)
	jmp	LBB21_3
Lfunc_end4:
	.cfi_endproc
	.section	__TEXT,__gcc_except_tab
	.p2align	2
GCC_except_table21:
Lexception4:
	.byte	255
	.byte	255
	.byte	1
	.uleb128 Lcst_end4-Lcst_begin4
Lcst_begin4:
	.uleb128 Ltmp20-Lfunc_begin4
	.uleb128 Ltmp21-Ltmp20
	.uleb128 Ltmp24-Lfunc_begin4
	.byte	0
	.uleb128 Ltmp21-Lfunc_begin4
	.uleb128 Ltmp22-Ltmp21
	.byte	0
	.byte	0
	.uleb128 Ltmp22-Lfunc_begin4
	.uleb128 Ltmp23-Ltmp22
	.uleb128 Ltmp24-Lfunc_begin4
	.byte	0
	.uleb128 Ltmp23-Lfunc_begin4
	.uleb128 Lfunc_end4-Ltmp23
	.byte	0
	.byte	0
Lcst_end4:
	.p2align	2

	.section	__TEXT,__text,regular,pure_instructions
	.p2align	4, 0x90
__ZN3std9panicking11begin_panic17h10f5f9e23cc5c1a4E:
Lfunc_begin5:
	.cfi_startproc
	.cfi_personality 155, _rust_eh_personality
	.cfi_lsda 16, Lexception5
	pushq	%rbp
	.cfi_def_cfa_offset 16
	.cfi_offset %rbp, -16
	movq	%rsp, %rbp
	.cfi_def_cfa_register %rbp
	subq	$80, %rsp
	movb	$0, -17(%rbp)
	movb	$1, -17(%rbp)
	movb	$0, -17(%rbp)
Ltmp25:
	movq	%rdx, -48(%rbp)
	callq	__ZN3std9panicking11begin_panic21PanicPayload$LT$A$GT$3new17h6eecc62697e3dd7bE
Ltmp26:
	movq	%rdx, -56(%rbp)
	movq	%rax, -64(%rbp)
	jmp	LBB22_2
LBB22_1:
	movq	-16(%rbp), %rdi
	callq	__Unwind_Resume
	ud2
LBB22_2:
	movq	-64(%rbp), %rax
	movq	%rax, -40(%rbp)
	movq	-56(%rbp), %rcx
	movq	%rcx, -32(%rbp)
	leaq	-40(%rbp), %rdi
Ltmp28:
	movq	-48(%rbp), %rdx
	movq	%rdi, -72(%rbp)
	movq	%rdx, %rdi
	callq	__ZN4core5panic8Location6caller17hb284bf0993c43fcaE
Ltmp29:
	movq	%rax, -80(%rbp)
	jmp	LBB22_4
LBB22_3:
	jmp	LBB22_6
LBB22_4:
Ltmp30:
	leaq	l___unnamed_3(%rip), %rsi
	xorl	%eax, %eax
	movl	%eax, %edx
	movq	-72(%rbp), %rdi
	movq	-80(%rbp), %rcx
	callq	__ZN3std9panicking20rust_panic_with_hook17h720143ee15fc80baE
Ltmp31:
	jmp	LBB22_9
LBB22_5:
	movb	$0, -17(%rbp)
	jmp	LBB22_1
LBB22_6:
	testb	$1, -17(%rbp)
	jne	LBB22_5
	jmp	LBB22_1
LBB22_7:
Ltmp27:
	movq	%rax, -16(%rbp)
	movl	%edx, -8(%rbp)
	jmp	LBB22_6
LBB22_8:
Ltmp32:
	movq	%rax, -16(%rbp)
	movl	%edx, -8(%rbp)
	jmp	LBB22_3
LBB22_9:
	ud2
Lfunc_end5:
	.cfi_endproc
	.section	__TEXT,__gcc_except_tab
	.p2align	2
GCC_except_table22:
Lexception5:
	.byte	255
	.byte	255
	.byte	1
	.uleb128 Lcst_end5-Lcst_begin5
Lcst_begin5:
	.uleb128 Ltmp25-Lfunc_begin5
	.uleb128 Ltmp26-Ltmp25
	.uleb128 Ltmp27-Lfunc_begin5
	.byte	0
	.uleb128 Ltmp26-Lfunc_begin5
	.uleb128 Ltmp28-Ltmp26
	.byte	0
	.byte	0
	.uleb128 Ltmp28-Lfunc_begin5
	.uleb128 Ltmp31-Ltmp28
	.uleb128 Ltmp32-Lfunc_begin5
	.byte	0
Lcst_end5:
	.p2align	2

	.section	__TEXT,__text,regular,pure_instructions
	.p2align	4, 0x90
__ZN3std9panicking11begin_panic21PanicPayload$LT$A$GT$3new17h6eecc62697e3dd7bE:
	.cfi_startproc
	pushq	%rbp
	.cfi_def_cfa_offset 16
	.cfi_offset %rbp, -16
	movq	%rsp, %rbp
	.cfi_def_cfa_register %rbp
	subq	$32, %rsp
	movq	%rdi, -16(%rbp)
	movq	%rsi, -8(%rbp)
	movq	-16(%rbp), %rax
	movq	-8(%rbp), %rcx
	movq	%rax, -32(%rbp)
	movq	%rcx, -24(%rbp)
	movq	-32(%rbp), %rax
	movq	-24(%rbp), %rdx
	addq	$32, %rsp
	popq	%rbp
	retq
	.cfi_endproc

	.p2align	4, 0x90
__ZN44_$LT$$RF$T$u20$as$u20$core..fmt..Display$GT$3fmt17h1ff2b65870c79ceaE:
	.cfi_startproc
	pushq	%rbp
	.cfi_def_cfa_offset 16
	.cfi_offset %rbp, -16
	movq	%rsp, %rbp
	.cfi_def_cfa_register %rbp
	subq	$16, %rsp
	movq	(%rdi), %rax
	movq	8(%rdi), %rcx
	movq	%rax, %rdi
	movq	%rsi, -8(%rbp)
	movq	%rcx, %rsi
	movq	-8(%rbp), %rdx
	callq	__ZN42_$LT$str$u20$as$u20$core..fmt..Display$GT$3fmt17h6768afae62e94f93E
	movb	%al, -9(%rbp)
	movb	-9(%rbp), %al
	andb	$1, %al
	movzbl	%al, %eax
	addq	$16, %rsp
	popq	%rbp
	retq
	.cfi_endproc

	.p2align	4, 0x90
__ZN4core10intrinsics19copy_nonoverlapping17h0605329208009229E:
	.cfi_startproc
	pushq	%rbp
	.cfi_def_cfa_offset 16
	.cfi_offset %rbp, -16
	movq	%rsp, %rbp
	.cfi_def_cfa_register %rbp
	subq	$16, %rsp
	shlq	$0, %rdx
	movq	%rdi, -8(%rbp)
	movq	%rsi, %rdi
	movq	-8(%rbp), %rsi
	callq	_memcpy
	addq	$16, %rsp
	popq	%rbp
	retq
	.cfi_endproc

	.p2align	4, 0x90
__ZN4core10intrinsics19copy_nonoverlapping17h0edc42072524e22aE:
	.cfi_startproc
	pushq	%rbp
	.cfi_def_cfa_offset 16
	.cfi_offset %rbp, -16
	movq	%rsp, %rbp
	.cfi_def_cfa_register %rbp
	subq	$16, %rsp
	shlq	$4, %rdx
	movq	%rdi, -8(%rbp)
	movq	%rsi, %rdi
	movq	-8(%rbp), %rsi
	callq	_memcpy
	addq	$16, %rsp
	popq	%rbp
	retq
	.cfi_endproc

	.p2align	4, 0x90
__ZN4core10intrinsics19copy_nonoverlapping17h422911922be3acaeE:
	.cfi_startproc
	pushq	%rbp
	.cfi_def_cfa_offset 16
	.cfi_offset %rbp, -16
	movq	%rsp, %rbp
	.cfi_def_cfa_register %rbp
	subq	$16, %rsp
	imulq	$24, %rdx, %rdx
	movq	%rdi, -8(%rbp)
	movq	%rsi, %rdi
	movq	-8(%rbp), %rsi
	callq	_memcpy
	addq	$16, %rsp
	popq	%rbp
	retq
	.cfi_endproc

	.p2align	4, 0x90
__ZN4core10intrinsics19copy_nonoverlapping17h5d59e729f8833d01E:
	.cfi_startproc
	pushq	%rbp
	.cfi_def_cfa_offset 16
	.cfi_offset %rbp, -16
	movq	%rsp, %rbp
	.cfi_def_cfa_register %rbp
	subq	$16, %rsp
	imulq	$24, %rdx, %rdx
	movq	%rdi, -8(%rbp)
	movq	%rsi, %rdi
	movq	-8(%rbp), %rsi
	callq	_memcpy
	addq	$16, %rsp
	popq	%rbp
	retq
	.cfi_endproc

	.p2align	4, 0x90
__ZN4core10intrinsics19copy_nonoverlapping17h611aaedf27598fbbE:
	.cfi_startproc
	pushq	%rbp
	.cfi_def_cfa_offset 16
	.cfi_offset %rbp, -16
	movq	%rsp, %rbp
	.cfi_def_cfa_register %rbp
	subq	$16, %rsp
	imulq	$24, %rdx, %rdx
	movq	%rdi, -8(%rbp)
	movq	%rsi, %rdi
	movq	-8(%rbp), %rsi
	callq	_memcpy
	addq	$16, %rsp
	popq	%rbp
	retq
	.cfi_endproc

	.p2align	4, 0x90
__ZN4core10intrinsics19copy_nonoverlapping17h6384d678c55e6206E:
	.cfi_startproc
	pushq	%rbp
	.cfi_def_cfa_offset 16
	.cfi_offset %rbp, -16
	movq	%rsp, %rbp
	.cfi_def_cfa_register %rbp
	subq	$16, %rsp
	shlq	$5, %rdx
	movq	%rdi, -8(%rbp)
	movq	%rsi, %rdi
	movq	-8(%rbp), %rsi
	callq	_memcpy
	addq	$16, %rsp
	popq	%rbp
	retq
	.cfi_endproc

	.p2align	4, 0x90
__ZN4core10intrinsics19copy_nonoverlapping17h7e3af1904470667eE:
	.cfi_startproc
	pushq	%rbp
	.cfi_def_cfa_offset 16
	.cfi_offset %rbp, -16
	movq	%rsp, %rbp
	.cfi_def_cfa_register %rbp
	subq	$16, %rsp
	imulq	$24, %rdx, %rdx
	movq	%rdi, -8(%rbp)
	movq	%rsi, %rdi
	movq	-8(%rbp), %rsi
	callq	_memcpy
	addq	$16, %rsp
	popq	%rbp
	retq
	.cfi_endproc

	.p2align	4, 0x90
__ZN4core10intrinsics19copy_nonoverlapping17h90a94d93b54c2387E:
	.cfi_startproc
	pushq	%rbp
	.cfi_def_cfa_offset 16
	.cfi_offset %rbp, -16
	movq	%rsp, %rbp
	.cfi_def_cfa_register %rbp
	subq	$16, %rsp
	shlq	$4, %rdx
	movq	%rdi, -8(%rbp)
	movq	%rsi, %rdi
	movq	-8(%rbp), %rsi
	callq	_memcpy
	addq	$16, %rsp
	popq	%rbp
	retq
	.cfi_endproc

	.p2align	4, 0x90
__ZN4core10intrinsics19copy_nonoverlapping17hbce9f52901fdf9b4E:
	.cfi_startproc
	pushq	%rbp
	.cfi_def_cfa_offset 16
	.cfi_offset %rbp, -16
	movq	%rsp, %rbp
	.cfi_def_cfa_register %rbp
	subq	$16, %rsp
	imulq	$24, %rdx, %rdx
	movq	%rdi, -8(%rbp)
	movq	%rsi, %rdi
	movq	-8(%rbp), %rsi
	callq	_memcpy
	addq	$16, %rsp
	popq	%rbp
	retq
	.cfi_endproc

	.p2align	4, 0x90
__ZN4core10intrinsics19copy_nonoverlapping17hec8575186892a96cE:
	.cfi_startproc
	pushq	%rbp
	.cfi_def_cfa_offset 16
	.cfi_offset %rbp, -16
	movq	%rsp, %rbp
	.cfi_def_cfa_register %rbp
	subq	$16, %rsp
	shlq	$5, %rdx
	movq	%rdi, -8(%rbp)
	movq	%rsi, %rdi
	movq	-8(%rbp), %rsi
	callq	_memcpy
	addq	$16, %rsp
	popq	%rbp
	retq
	.cfi_endproc

	.p2align	4, 0x90
__ZN4core3any6TypeId2of17h0244110bcb80894aE:
	.cfi_startproc
	pushq	%rbp
	.cfi_def_cfa_offset 16
	.cfi_offset %rbp, -16
	movq	%rsp, %rbp
	.cfi_def_cfa_register %rbp
	subq	$24, %rsp
	movabsq	$9147559743429524724, %rax
	movq	%rax, -8(%rbp)
	movq	-8(%rbp), %rax
	movq	%rax, -24(%rbp)
	movq	-24(%rbp), %rax
	movq	%rax, -16(%rbp)
	movq	-16(%rbp), %rax
	addq	$24, %rsp
	popq	%rbp
	retq
	.cfi_endproc

	.p2align	4, 0x90
__ZN4core3cmp5impls69_$LT$impl$u20$core..cmp..PartialEq$LT$$RF$B$GT$$u20$for$u20$$RF$A$GT$2eq17h2af3cf9135cb9a13E:
	.cfi_startproc
	pushq	%rbp
	.cfi_def_cfa_offset 16
	.cfi_offset %rbp, -16
	movq	%rsp, %rbp
	.cfi_def_cfa_register %rbp
	subq	$16, %rsp
	movq	(%rdi), %rax
	movq	8(%rdi), %rcx
	movq	(%rsi), %rdx
	movq	8(%rsi), %rsi
	movq	%rax, %rdi
	movq	%rsi, -8(%rbp)
	movq	%rcx, %rsi
	movq	-8(%rbp), %rcx
	callq	__ZN4core5slice81_$LT$impl$u20$core..cmp..PartialEq$LT$$u5b$B$u5d$$GT$$u20$for$u20$$u5b$A$u5d$$GT$2eq17hc0c0f89332efb4eeE
	movb	%al, -9(%rbp)
	movb	-9(%rbp), %al
	andb	$1, %al
	movzbl	%al, %eax
	addq	$16, %rsp
	popq	%rbp
	retq
	.cfi_endproc

	.p2align	4, 0x90
__ZN4core3cmp5impls69_$LT$impl$u20$core..cmp..PartialEq$LT$$RF$B$GT$$u20$for$u20$$RF$A$GT$2ne17h61a035d4d91ab4ccE:
	.cfi_startproc
	pushq	%rbp
	.cfi_def_cfa_offset 16
	.cfi_offset %rbp, -16
	movq	%rsp, %rbp
	.cfi_def_cfa_register %rbp
	subq	$16, %rsp
	movq	(%rdi), %rax
	movq	8(%rdi), %rcx
	movq	(%rsi), %rdx
	movq	8(%rsi), %rsi
	movq	%rax, %rdi
	movq	%rsi, -8(%rbp)
	movq	%rcx, %rsi
	movq	-8(%rbp), %rcx
	callq	__ZN4core3str6traits54_$LT$impl$u20$core..cmp..PartialEq$u20$for$u20$str$GT$2ne17h156746777fd3f005E
	movb	%al, -9(%rbp)
	movb	-9(%rbp), %al
	andb	$1, %al
	movzbl	%al, %eax
	addq	$16, %rsp
	popq	%rbp
	retq
	.cfi_endproc

	.p2align	4, 0x90
__ZN4core3fmt10ArgumentV13new17h320b329fbd94913cE:
	.cfi_startproc
	pushq	%rbp
	.cfi_def_cfa_offset 16
	.cfi_offset %rbp, -16
	movq	%rsp, %rbp
	.cfi_def_cfa_register %rbp
	subq	$56, %rsp
	movq	%rsi, -16(%rbp)
	movq	-16(%rbp), %rax
	movq	%rdi, -40(%rbp)
	movq	%rax, -48(%rbp)
	movq	-40(%rbp), %rax
	movq	%rax, -8(%rbp)
	movq	-8(%rbp), %rcx
	movq	%rcx, -56(%rbp)
	movq	-56(%rbp), %rax
	movq	%rax, -32(%rbp)
	movq	-48(%rbp), %rcx
	movq	%rcx, -24(%rbp)
	movq	-32(%rbp), %rax
	movq	-24(%rbp), %rdx
	addq	$56, %rsp
	popq	%rbp
	retq
	.cfi_endproc

	.p2align	4, 0x90
__ZN4core3fmt10ArgumentV13new17h40b03b9a9729d050E:
	.cfi_startproc
	pushq	%rbp
	.cfi_def_cfa_offset 16
	.cfi_offset %rbp, -16
	movq	%rsp, %rbp
	.cfi_def_cfa_register %rbp
	subq	$56, %rsp
	movq	%rsi, -16(%rbp)
	movq	-16(%rbp), %rax
	movq	%rdi, -40(%rbp)
	movq	%rax, -48(%rbp)
	movq	-40(%rbp), %rax
	movq	%rax, -8(%rbp)
	movq	-8(%rbp), %rcx
	movq	%rcx, -56(%rbp)
	movq	-56(%rbp), %rax
	movq	%rax, -32(%rbp)
	movq	-48(%rbp), %rcx
	movq	%rcx, -24(%rbp)
	movq	-32(%rbp), %rax
	movq	-24(%rbp), %rdx
	addq	$56, %rsp
	popq	%rbp
	retq
	.cfi_endproc

	.p2align	4, 0x90
__ZN4core3fmt10ArgumentV13new17hc49d021bc2a935acE:
	.cfi_startproc
	pushq	%rbp
	.cfi_def_cfa_offset 16
	.cfi_offset %rbp, -16
	movq	%rsp, %rbp
	.cfi_def_cfa_register %rbp
	subq	$56, %rsp
	movq	%rsi, -16(%rbp)
	movq	-16(%rbp), %rax
	movq	%rdi, -40(%rbp)
	movq	%rax, -48(%rbp)
	movq	-40(%rbp), %rax
	movq	%rax, -8(%rbp)
	movq	-8(%rbp), %rcx
	movq	%rcx, -56(%rbp)
	movq	-56(%rbp), %rax
	movq	%rax, -32(%rbp)
	movq	-48(%rbp), %rcx
	movq	%rcx, -24(%rbp)
	movq	-32(%rbp), %rax
	movq	-24(%rbp), %rdx
	addq	$56, %rsp
	popq	%rbp
	retq
	.cfi_endproc

	.p2align	4, 0x90
__ZN4core3fmt9Arguments6new_v117h21ac6b13baa6b795E:
	.cfi_startproc
	pushq	%rbp
	.cfi_def_cfa_offset 16
	.cfi_offset %rbp, -16
	movq	%rsp, %rbp
	.cfi_def_cfa_register %rbp
	subq	$16, %rsp
	movq	%rdi, %rax
	movq	$0, -16(%rbp)
	movq	%rsi, (%rdi)
	movq	%rdx, 8(%rdi)
	movq	-16(%rbp), %rdx
	movq	-8(%rbp), %rsi
	movq	%rdx, 16(%rdi)
	movq	%rsi, 24(%rdi)
	movq	%rcx, 32(%rdi)
	movq	%r8, 40(%rdi)
	addq	$16, %rsp
	popq	%rbp
	retq
	.cfi_endproc

	.p2align	4, 0x90
__ZN4core3mem11size_of_val17h738a867f88cc8837E:
	.cfi_startproc
	pushq	%rbp
	.cfi_def_cfa_offset 16
	.cfi_offset %rbp, -16
	movq	%rsp, %rbp
	.cfi_def_cfa_register %rbp
	subq	$16, %rsp
	shlq	$0, %rsi
	movq	%rsi, -8(%rbp)
	movq	-8(%rbp), %rax
	movq	%rax, -16(%rbp)
	movq	-16(%rbp), %rax
	addq	$16, %rsp
	popq	%rbp
	retq
	.cfi_endproc

	.p2align	4, 0x90
__ZN4core3mem4drop17h1f962841feb47014E:
	.cfi_startproc
	pushq	%rbp
	.cfi_def_cfa_offset 16
	.cfi_offset %rbp, -16
	movq	%rsp, %rbp
	.cfi_def_cfa_register %rbp
	callq	__ZN4core3ptr13drop_in_place17h38737a986e49f1b6E
	popq	%rbp
	retq
	.cfi_endproc

	.p2align	4, 0x90
__ZN4core3mem4drop17hfa17a0682030c3afE:
	.cfi_startproc
	pushq	%rbp
	.cfi_def_cfa_offset 16
	.cfi_offset %rbp, -16
	movq	%rsp, %rbp
	.cfi_def_cfa_register %rbp
	callq	__ZN4core3ptr13drop_in_place17h504cc3bd0ba10ac9E
	popq	%rbp
	retq
	.cfi_endproc

	.p2align	4, 0x90
__ZN4core3mem4swap17h4de19a60163e5ee9E:
	.cfi_startproc
	pushq	%rbp
	.cfi_def_cfa_offset 16
	.cfi_offset %rbp, -16
	movq	%rsp, %rbp
	.cfi_def_cfa_register %rbp
	callq	__ZN4core3ptr23swap_nonoverlapping_one17h2370d5413f880704E
	popq	%rbp
	retq
	.cfi_endproc

	.p2align	4, 0x90
__ZN4core3mem4swap17hf959eb648362be63E:
	.cfi_startproc
	pushq	%rbp
	.cfi_def_cfa_offset 16
	.cfi_offset %rbp, -16
	movq	%rsp, %rbp
	.cfi_def_cfa_register %rbp
	callq	__ZN4core3ptr23swap_nonoverlapping_one17h6946883eabb1f3deE
	popq	%rbp
	retq
	.cfi_endproc

	.p2align	4, 0x90
__ZN4core3mem4take17h970a0dd34c84faacE:
	.cfi_startproc
	pushq	%rbp
	.cfi_def_cfa_offset 16
	.cfi_offset %rbp, -16
	movq	%rsp, %rbp
	.cfi_def_cfa_register %rbp
	subq	$48, %rsp
	movq	%rdi, -8(%rbp)
	callq	__ZN72_$LT$core..option..Option$LT$T$GT$$u20$as$u20$core..default..Default$GT$7default17h821ec59be4af90c9E
	movq	%rax, -16(%rbp)
	movq	%rdx, -24(%rbp)
	movq	-8(%rbp), %rdi
	movq	-16(%rbp), %rsi
	movq	-24(%rbp), %rdx
	callq	__ZN4core3mem7replace17hb766ff48d83ee91cE
	movq	%rax, -32(%rbp)
	movq	%rdx, -40(%rbp)
	movq	-32(%rbp), %rax
	movq	-40(%rbp), %rdx
	addq	$48, %rsp
	popq	%rbp
	retq
	.cfi_endproc

	.p2align	4, 0x90
__ZN4core3mem4take17ha03271668793247dE:
	.cfi_startproc
	pushq	%rbp
	.cfi_def_cfa_offset 16
	.cfi_offset %rbp, -16
	movq	%rsp, %rbp
	.cfi_def_cfa_register %rbp
	subq	$48, %rsp
	movq	%rdi, -8(%rbp)
	callq	__ZN72_$LT$core..option..Option$LT$T$GT$$u20$as$u20$core..default..Default$GT$7default17hac25e142c1b8baa2E
	movq	%rax, -16(%rbp)
	movq	%rdx, -24(%rbp)
	movq	-8(%rbp), %rdi
	movq	-16(%rbp), %rsi
	movq	-24(%rbp), %rdx
	callq	__ZN4core3mem7replace17h4dda163a9708802fE
	movq	%rax, -32(%rbp)
	movq	%rdx, -40(%rbp)
	movq	-32(%rbp), %rax
	movq	-40(%rbp), %rdx
	addq	$48, %rsp
	popq	%rbp
	retq
	.cfi_endproc

	.p2align	4, 0x90
__ZN4core3mem6forget17hecf5157d42a473a8E:
	.cfi_startproc
	pushq	%rbp
	.cfi_def_cfa_offset 16
	.cfi_offset %rbp, -16
	movq	%rsp, %rbp
	.cfi_def_cfa_register %rbp
	pushq	%rax
	movq	%rdi, -8(%rbp)
	addq	$8, %rsp
	popq	%rbp
	retq
	.cfi_endproc

	.p2align	4, 0x90
__ZN4core3mem7replace17h4dda163a9708802fE:
Lfunc_begin6:
	.cfi_startproc
	.cfi_personality 155, _rust_eh_personality
	.cfi_lsda 16, Lexception6
	pushq	%rbp
	.cfi_def_cfa_offset 16
	.cfi_offset %rbp, -16
	movq	%rsp, %rbp
	.cfi_def_cfa_register %rbp
	subq	$32, %rsp
	movq	%rsi, -32(%rbp)
	movq	%rdx, -24(%rbp)
Ltmp33:
	leaq	-32(%rbp), %rsi
	callq	__ZN4core3mem4swap17hf959eb648362be63E
Ltmp34:
	jmp	LBB50_2
LBB50_1:
	movq	-16(%rbp), %rdi
	callq	__Unwind_Resume
	ud2
LBB50_2:
	movq	-32(%rbp), %rax
	movq	-24(%rbp), %rdx
	addq	$32, %rsp
	popq	%rbp
	retq
LBB50_3:
	jmp	LBB50_1
LBB50_4:
Ltmp35:
	movq	%rax, -16(%rbp)
	movl	%edx, -8(%rbp)
	jmp	LBB50_3
Lfunc_end6:
	.cfi_endproc
	.section	__TEXT,__gcc_except_tab
	.p2align	2
GCC_except_table50:
Lexception6:
	.byte	255
	.byte	255
	.byte	1
	.uleb128 Lcst_end6-Lcst_begin6
Lcst_begin6:
	.uleb128 Ltmp33-Lfunc_begin6
	.uleb128 Ltmp34-Ltmp33
	.uleb128 Ltmp35-Lfunc_begin6
	.byte	0
	.uleb128 Ltmp34-Lfunc_begin6
	.uleb128 Lfunc_end6-Ltmp34
	.byte	0
	.byte	0
Lcst_end6:
	.p2align	2

	.section	__TEXT,__text,regular,pure_instructions
	.p2align	4, 0x90
__ZN4core3mem7replace17hb766ff48d83ee91cE:
Lfunc_begin7:
	.cfi_startproc
	.cfi_personality 155, _rust_eh_personality
	.cfi_lsda 16, Lexception7
	pushq	%rbp
	.cfi_def_cfa_offset 16
	.cfi_offset %rbp, -16
	movq	%rsp, %rbp
	.cfi_def_cfa_register %rbp
	subq	$32, %rsp
	movq	%rsi, -32(%rbp)
	movq	%rdx, -24(%rbp)
Ltmp36:
	leaq	-32(%rbp), %rsi
	callq	__ZN4core3mem4swap17h4de19a60163e5ee9E
Ltmp37:
	jmp	LBB51_2
LBB51_1:
	movq	-16(%rbp), %rdi
	callq	__Unwind_Resume
	ud2
LBB51_2:
	movq	-32(%rbp), %rax
	movq	-24(%rbp), %rdx
	addq	$32, %rsp
	popq	%rbp
	retq
LBB51_3:
	jmp	LBB51_1
LBB51_4:
Ltmp38:
	movq	%rax, -16(%rbp)
	movl	%edx, -8(%rbp)
	jmp	LBB51_3
Lfunc_end7:
	.cfi_endproc
	.section	__TEXT,__gcc_except_tab
	.p2align	2
GCC_except_table51:
Lexception7:
	.byte	255
	.byte	255
	.byte	1
	.uleb128 Lcst_end7-Lcst_begin7
Lcst_begin7:
	.uleb128 Ltmp36-Lfunc_begin7
	.uleb128 Ltmp37-Ltmp36
	.uleb128 Ltmp38-Lfunc_begin7
	.byte	0
	.uleb128 Ltmp37-Lfunc_begin7
	.uleb128 Lfunc_end7-Ltmp37
	.byte	0
	.byte	0
Lcst_end7:
	.p2align	2

	.section	__TEXT,__text,regular,pure_instructions
	.p2align	4, 0x90
__ZN4core3num12NonZeroUsize13new_unchecked17h7dc00af74d9b5c65E:
	.cfi_startproc
	pushq	%rbp
	.cfi_def_cfa_offset 16
	.cfi_offset %rbp, -16
	movq	%rsp, %rbp
	.cfi_def_cfa_register %rbp
	pushq	%rax
	movq	%rdi, -8(%rbp)
	movq	-8(%rbp), %rax
	addq	$8, %rsp
	popq	%rbp
	retq
	.cfi_endproc

	.p2align	4, 0x90
__ZN4core3num12NonZeroUsize3get17h0feddfd397a747d5E:
	.cfi_startproc
	pushq	%rbp
	.cfi_def_cfa_offset 16
	.cfi_offset %rbp, -16
	movq	%rsp, %rbp
	.cfi_def_cfa_register %rbp
	movq	%rdi, %rax
	popq	%rbp
	retq
	.cfi_endproc

	.p2align	4, 0x90
__ZN4core3ops8function6FnOnce40call_once$u7b$$u7b$vtable.shim$u7d$$u7d$17hfcf33722207fd981E:
	.cfi_startproc
	pushq	%rbp
	.cfi_def_cfa_offset 16
	.cfi_offset %rbp, -16
	movq	%rsp, %rbp
	.cfi_def_cfa_register %rbp
	subq	$16, %rsp
	movq	(%rdi), %rdi
	callq	__ZN4core3ops8function6FnOnce9call_once17hafb3a29771980843E
	movl	%eax, -12(%rbp)
	movl	-12(%rbp), %eax
	addq	$16, %rsp
	popq	%rbp
	retq
	.cfi_endproc

	.p2align	4, 0x90
__ZN4core3ops8function6FnOnce9call_once17hafb3a29771980843E:
Lfunc_begin8:
	.cfi_startproc
	.cfi_personality 155, _rust_eh_personality
	.cfi_lsda 16, Lexception8
	pushq	%rbp
	.cfi_def_cfa_offset 16
	.cfi_offset %rbp, -16
	movq	%rsp, %rbp
	.cfi_def_cfa_register %rbp
	subq	$48, %rsp
	movq	%rdi, -32(%rbp)
Ltmp39:
	leaq	-32(%rbp), %rdi
	callq	__ZN3std2rt10lang_start28_$u7b$$u7b$closure$u7d$$u7d$17h312124556226ad84E
Ltmp40:
	movl	%eax, -36(%rbp)
	jmp	LBB55_1
LBB55_1:
	jmp	LBB55_2
LBB55_2:
	movl	-36(%rbp), %eax
	addq	$48, %rsp
	popq	%rbp
	retq
LBB55_3:
	jmp	LBB55_4
LBB55_4:
	movq	-16(%rbp), %rdi
	callq	__Unwind_Resume
	ud2
LBB55_5:
Ltmp41:
	movq	%rax, -16(%rbp)
	movl	%edx, -8(%rbp)
	jmp	LBB55_3
Lfunc_end8:
	.cfi_endproc
	.section	__TEXT,__gcc_except_tab
	.p2align	2
GCC_except_table55:
Lexception8:
	.byte	255
	.byte	255
	.byte	1
	.uleb128 Lcst_end8-Lcst_begin8
Lcst_begin8:
	.uleb128 Ltmp39-Lfunc_begin8
	.uleb128 Ltmp40-Ltmp39
	.uleb128 Ltmp41-Lfunc_begin8
	.byte	0
	.uleb128 Ltmp40-Lfunc_begin8
	.uleb128 Lfunc_end8-Ltmp40
	.byte	0
	.byte	0
Lcst_end8:
	.p2align	2

	.section	__TEXT,__text,regular,pure_instructions
	.p2align	4, 0x90
__ZN4core3ptr13drop_in_place17h02ef0074b48e6f52E:
	.cfi_startproc
	pushq	%rbp
	.cfi_def_cfa_offset 16
	.cfi_offset %rbp, -16
	movq	%rsp, %rbp
	.cfi_def_cfa_register %rbp
	subq	$16, %rsp
	callq	__ZN4core3ptr13drop_in_place17hb5619a4e205e01d4E
	addq	$16, %rsp
	popq	%rbp
	retq
	.cfi_endproc

	.p2align	4, 0x90
__ZN4core3ptr13drop_in_place17h0c160122e8b87b70E:
	.cfi_startproc
	pushq	%rbp
	.cfi_def_cfa_offset 16
	.cfi_offset %rbp, -16
	movq	%rsp, %rbp
	.cfi_def_cfa_register %rbp
	subq	$16, %rsp
	callq	__ZN4core3ptr13drop_in_place17hb5619a4e205e01d4E
	addq	$16, %rsp
	popq	%rbp
	retq
	.cfi_endproc

	.p2align	4, 0x90
__ZN4core3ptr13drop_in_place17h0f88e54268343a52E:
	.cfi_startproc
	pushq	%rbp
	.cfi_def_cfa_offset 16
	.cfi_offset %rbp, -16
	movq	%rsp, %rbp
	.cfi_def_cfa_register %rbp
	subq	$16, %rsp
	callq	__ZN77_$LT$alloc..raw_vec..RawVec$LT$T$C$A$GT$$u20$as$u20$core..ops..drop..Drop$GT$4drop17h6885db44e4db19b4E
	addq	$16, %rsp
	popq	%rbp
	retq
	.cfi_endproc

	.p2align	4, 0x90
__ZN4core3ptr13drop_in_place17h232836675672b6adE:
Lfunc_begin9:
	.cfi_startproc
	.cfi_personality 155, _rust_eh_personality
	.cfi_lsda 16, Lexception9
	pushq	%rbp
	.cfi_def_cfa_offset 16
	.cfi_offset %rbp, -16
	movq	%rsp, %rbp
	.cfi_def_cfa_register %rbp
	subq	$32, %rsp
Ltmp42:
	movq	%rdi, -32(%rbp)
	callq	__ZN66_$LT$alloc..vec..Vec$LT$T$GT$$u20$as$u20$core..ops..drop..Drop$GT$4drop17h78d453898b5d9830E
Ltmp43:
	jmp	LBB59_4
LBB59_1:
	movq	-16(%rbp), %rdi
	callq	__Unwind_Resume
	ud2
LBB59_2:
	addq	$32, %rsp
	popq	%rbp
	retq
LBB59_3:
	movq	-32(%rbp), %rax
	movq	%rax, %rdi
	callq	__ZN4core3ptr13drop_in_place17h46a0a0dc9fde34aeE
	jmp	LBB59_1
LBB59_4:
	movq	-32(%rbp), %rax
	movq	%rax, %rdi
	callq	__ZN4core3ptr13drop_in_place17h46a0a0dc9fde34aeE
	jmp	LBB59_2
LBB59_5:
Ltmp44:
	movq	%rax, -16(%rbp)
	movl	%edx, -8(%rbp)
	jmp	LBB59_3
Lfunc_end9:
	.cfi_endproc
	.section	__TEXT,__gcc_except_tab
	.p2align	2
GCC_except_table59:
Lexception9:
	.byte	255
	.byte	255
	.byte	1
	.uleb128 Lcst_end9-Lcst_begin9
Lcst_begin9:
	.uleb128 Ltmp42-Lfunc_begin9
	.uleb128 Ltmp43-Ltmp42
	.uleb128 Ltmp44-Lfunc_begin9
	.byte	0
	.uleb128 Ltmp43-Lfunc_begin9
	.uleb128 Lfunc_end9-Ltmp43
	.byte	0
	.byte	0
Lcst_end9:
	.p2align	2

	.section	__TEXT,__text,regular,pure_instructions
	.p2align	4, 0x90
__ZN4core3ptr13drop_in_place17h2dafc9bd6bc7c4d6E:
	.cfi_startproc
	pushq	%rbp
	.cfi_def_cfa_offset 16
	.cfi_offset %rbp, -16
	movq	%rsp, %rbp
	.cfi_def_cfa_register %rbp
	subq	$16, %rsp
	cmpq	$0, (%rdi)
	movq	%rdi, -16(%rbp)
	je	LBB60_2
	jmp	LBB60_3
LBB60_1:
	addq	$16, %rsp
	popq	%rbp
	retq
LBB60_2:
	movq	-16(%rbp), %rax
	addq	$8, %rax
	movq	%rax, %rdi
	callq	__ZN4core3ptr13drop_in_place17h0c160122e8b87b70E
	jmp	LBB60_1
LBB60_3:
	movq	-16(%rbp), %rax
	addq	$8, %rax
	movq	%rax, %rdi
	callq	__ZN4core3ptr13drop_in_place17h02ef0074b48e6f52E
	jmp	LBB60_1
	.cfi_endproc

	.p2align	4, 0x90
__ZN4core3ptr13drop_in_place17h2ebcd330967bbbf2E:
	.cfi_startproc
	pushq	%rbp
	.cfi_def_cfa_offset 16
	.cfi_offset %rbp, -16
	movq	%rsp, %rbp
	.cfi_def_cfa_register %rbp
	subq	$32, %rsp
	movq	%rdi, -32(%rbp)
	jmp	LBB61_2
LBB61_1:
	addq	$32, %rsp
	popq	%rbp
	retq
LBB61_2:
	movq	-32(%rbp), %rax
	movq	(%rax), %rdi
	movq	8(%rax), %rsi
	callq	__ZN5alloc5alloc8box_free17h6bdb3d00d347b6e1E
	jmp	LBB61_1
	.cfi_endproc

	.p2align	4, 0x90
__ZN4core3ptr13drop_in_place17h3036018cdc107d84E:
	.cfi_startproc
	pushq	%rbp
	.cfi_def_cfa_offset 16
	.cfi_offset %rbp, -16
	movq	%rsp, %rbp
	.cfi_def_cfa_register %rbp
	subq	$16, %rsp
	callq	*(%rsi)
	addq	$16, %rsp
	popq	%rbp
	retq
	.cfi_endproc

	.p2align	4, 0x90
__ZN4core3ptr13drop_in_place17h317a399a6467386bE:
Lfunc_begin10:
	.cfi_startproc
	.cfi_personality 155, _rust_eh_personality
	.cfi_lsda 16, Lexception10
	pushq	%rbp
	.cfi_def_cfa_offset 16
	.cfi_offset %rbp, -16
	movq	%rsp, %rbp
	.cfi_def_cfa_register %rbp
	subq	$64, %rsp
	xorl	%eax, %eax
	testb	$1, %al
	movq	%rdi, -56(%rbp)
	movq	%rsi, -64(%rbp)
	jne	LBB63_7
	jmp	LBB63_12
LBB63_1:
	addq	$64, %rsp
	popq	%rbp
	retq
LBB63_2:
	movq	-16(%rbp), %rdi
	callq	__Unwind_Resume
	ud2
LBB63_3:
	movq	-40(%rbp), %rax
	shlq	$4, %rax
	movq	-56(%rbp), %rcx
	addq	%rax, %rcx
	movq	-40(%rbp), %rax
	addq	$1, %rax
	movq	%rax, -40(%rbp)
	movq	%rcx, %rdi
	callq	__ZN4core3ptr13drop_in_place17h39b1d09cdb74b5f6E
LBB63_4:
	movq	-64(%rbp), %rax
	cmpq	%rax, -40(%rbp)
	je	LBB63_2
	jmp	LBB63_3
LBB63_5:
	movq	-40(%rbp), %rax
	movq	%rax, %rcx
	shlq	$4, %rcx
	movq	-56(%rbp), %rdx
	addq	%rcx, %rdx
	incq	%rax
	movq	%rax, -40(%rbp)
Ltmp48:
	movq	%rdx, %rdi
	callq	__ZN4core3ptr13drop_in_place17h39b1d09cdb74b5f6E
Ltmp49:
	jmp	LBB63_6
LBB63_6:
	movq	-64(%rbp), %rax
	cmpq	%rax, -40(%rbp)
	je	LBB63_1
	jmp	LBB63_5
LBB63_7:
	movq	$0, -40(%rbp)
	jmp	LBB63_6
LBB63_8:
	movq	-32(%rbp), %rdi
	movq	-32(%rbp), %rax
	addq	$16, %rax
	movq	%rax, -32(%rbp)
	callq	__ZN4core3ptr13drop_in_place17h39b1d09cdb74b5f6E
LBB63_9:
	movq	-32(%rbp), %rax
	cmpq	-24(%rbp), %rax
	je	LBB63_2
	jmp	LBB63_8
LBB63_10:
	movq	-32(%rbp), %rax
	movq	%rax, %rcx
	addq	$16, %rcx
	movq	%rcx, -32(%rbp)
Ltmp45:
	movq	%rax, %rdi
	callq	__ZN4core3ptr13drop_in_place17h39b1d09cdb74b5f6E
Ltmp46:
	jmp	LBB63_11
LBB63_11:
	movq	-32(%rbp), %rax
	cmpq	-24(%rbp), %rax
	je	LBB63_1
	jmp	LBB63_10
LBB63_12:
	movq	-56(%rbp), %rax
	movq	%rax, -32(%rbp)
	movq	-64(%rbp), %rax
	shlq	$4, %rax
	addq	-32(%rbp), %rax
	movq	%rax, -24(%rbp)
	jmp	LBB63_11
LBB63_13:
Ltmp47:
	movq	%rax, -16(%rbp)
	movl	%edx, -8(%rbp)
	jmp	LBB63_9
LBB63_14:
Ltmp50:
	movq	%rax, -16(%rbp)
	movl	%edx, -8(%rbp)
	jmp	LBB63_4
Lfunc_end10:
	.cfi_endproc
	.section	__TEXT,__gcc_except_tab
	.p2align	2
GCC_except_table63:
Lexception10:
	.byte	255
	.byte	255
	.byte	1
	.uleb128 Lcst_end10-Lcst_begin10
Lcst_begin10:
	.uleb128 Lfunc_begin10-Lfunc_begin10
	.uleb128 Ltmp48-Lfunc_begin10
	.byte	0
	.byte	0
	.uleb128 Ltmp48-Lfunc_begin10
	.uleb128 Ltmp49-Ltmp48
	.uleb128 Ltmp50-Lfunc_begin10
	.byte	0
	.uleb128 Ltmp49-Lfunc_begin10
	.uleb128 Ltmp45-Ltmp49
	.byte	0
	.byte	0
	.uleb128 Ltmp45-Lfunc_begin10
	.uleb128 Ltmp46-Ltmp45
	.uleb128 Ltmp47-Lfunc_begin10
	.byte	0
Lcst_end10:
	.p2align	2

	.section	__TEXT,__text,regular,pure_instructions
	.p2align	4, 0x90
__ZN4core3ptr13drop_in_place17h31b4ba6a013283b5E:
	.cfi_startproc
	pushq	%rbp
	.cfi_def_cfa_offset 16
	.cfi_offset %rbp, -16
	movq	%rsp, %rbp
	.cfi_def_cfa_register %rbp
	subq	$16, %rsp
	xorl	%eax, %eax
	movl	%eax, %ecx
	cmpq	$0, (%rdi)
	movl	$1, %edx
	cmovbeq	%rcx, %rdx
	cmpq	$0, %rdx
	movq	%rdi, -16(%rbp)
	jne	LBB64_2
LBB64_1:
	addq	$16, %rsp
	popq	%rbp
	retq
LBB64_2:
	movq	-16(%rbp), %rax
	movq	%rax, %rdi
	callq	__ZN4core3ptr13drop_in_place17hdde4d7039d2d5d2eE
	jmp	LBB64_1
	.cfi_endproc

	.p2align	4, 0x90
__ZN4core3ptr13drop_in_place17h38737a986e49f1b6E:
	.cfi_startproc
	pushq	%rbp
	.cfi_def_cfa_offset 16
	.cfi_offset %rbp, -16
	movq	%rsp, %rbp
	.cfi_def_cfa_register %rbp
	subq	$16, %rsp
	callq	__ZN95_$LT$alloc..collections..btree..map..IntoIter$LT$K$C$V$GT$$u20$as$u20$core..ops..drop..Drop$GT$4drop17h671fe5a05eb35633E
	addq	$16, %rsp
	popq	%rbp
	retq
	.cfi_endproc

	.p2align	4, 0x90
__ZN4core3ptr13drop_in_place17h39b1d09cdb74b5f6E:
Lfunc_begin11:
	.cfi_startproc
	.cfi_personality 155, _rust_eh_personality
	.cfi_lsda 16, Lexception11
	pushq	%rbp
	.cfi_def_cfa_offset 16
	.cfi_offset %rbp, -16
	movq	%rsp, %rbp
	.cfi_def_cfa_register %rbp
	subq	$32, %rsp
	movq	(%rdi), %rax
	movq	8(%rdi), %rcx
	movq	(%rcx), %rcx
Ltmp51:
	movq	%rdi, -32(%rbp)
	movq	%rax, %rdi
	callq	*%rcx
Ltmp52:
	jmp	LBB66_3
LBB66_1:
	addq	$32, %rsp
	popq	%rbp
	retq
LBB66_2:
	movq	-16(%rbp), %rdi
	callq	__Unwind_Resume
	ud2
LBB66_3:
	movq	-32(%rbp), %rax
	movq	(%rax), %rdi
	movq	8(%rax), %rsi
	callq	__ZN5alloc5alloc8box_free17h3881572f4349bb2aE
	jmp	LBB66_1
LBB66_4:
	movq	-32(%rbp), %rax
	movq	(%rax), %rdi
	movq	8(%rax), %rsi
	callq	__ZN5alloc5alloc8box_free17h3881572f4349bb2aE
	jmp	LBB66_2
LBB66_5:
Ltmp53:
	movq	%rax, -16(%rbp)
	movl	%edx, -8(%rbp)
	jmp	LBB66_4
Lfunc_end11:
	.cfi_endproc
	.section	__TEXT,__gcc_except_tab
	.p2align	2
GCC_except_table66:
Lexception11:
	.byte	255
	.byte	255
	.byte	1
	.uleb128 Lcst_end11-Lcst_begin11
Lcst_begin11:
	.uleb128 Ltmp51-Lfunc_begin11
	.uleb128 Ltmp52-Ltmp51
	.uleb128 Ltmp53-Lfunc_begin11
	.byte	0
	.uleb128 Ltmp52-Lfunc_begin11
	.uleb128 Lfunc_end11-Ltmp52
	.byte	0
	.byte	0
Lcst_end11:
	.p2align	2

	.section	__TEXT,__text,regular,pure_instructions
	.p2align	4, 0x90
__ZN4core3ptr13drop_in_place17h43a7eb57f19709dbE:
	.cfi_startproc
	pushq	%rbp
	.cfi_def_cfa_offset 16
	.cfi_offset %rbp, -16
	movq	%rsp, %rbp
	.cfi_def_cfa_register %rbp
	subq	$16, %rsp
	callq	__ZN4core3ptr13drop_in_place17h5f10c425ee3bb6e4E
	addq	$16, %rsp
	popq	%rbp
	retq
	.cfi_endproc

	.p2align	4, 0x90
__ZN4core3ptr13drop_in_place17h446af4c3422ef035E:
	.cfi_startproc
	pushq	%rbp
	.cfi_def_cfa_offset 16
	.cfi_offset %rbp, -16
	movq	%rsp, %rbp
	.cfi_def_cfa_register %rbp
	subq	$16, %rsp
	xorl	%eax, %eax
	movl	%eax, %ecx
	cmpq	$0, (%rdi)
	movl	$1, %edx
	cmovbeq	%rcx, %rdx
	cmpq	$0, %rdx
	movq	%rdi, -16(%rbp)
	jne	LBB68_2
LBB68_1:
	addq	$16, %rsp
	popq	%rbp
	retq
LBB68_2:
	movq	-16(%rbp), %rax
	movq	%rax, %rdi
	callq	__ZN4core3ptr13drop_in_place17hf6e72c79ba3a5cb6E
	jmp	LBB68_1
	.cfi_endproc

	.p2align	4, 0x90
__ZN4core3ptr13drop_in_place17h4572de8cbf17b2dcE:
Lfunc_begin12:
	.cfi_startproc
	.cfi_personality 155, _rust_eh_personality
	.cfi_lsda 16, Lexception12
	pushq	%rbp
	.cfi_def_cfa_offset 16
	.cfi_offset %rbp, -16
	movq	%rsp, %rbp
	.cfi_def_cfa_register %rbp
	subq	$32, %rsp
Ltmp54:
	movq	%rdi, -32(%rbp)
	callq	__ZN4core3ptr13drop_in_place17hfc6423fc53486806E
Ltmp55:
	jmp	LBB69_18
LBB69_1:
	movq	-16(%rbp), %rdi
	callq	__Unwind_Resume
	ud2
LBB69_2:
	addq	$32, %rsp
	popq	%rbp
	retq
LBB69_3:
	movq	-32(%rbp), %rax
	addq	$168, %rax
	movq	%rax, %rdi
	callq	__ZN4core3ptr13drop_in_place17h6ccc5209e0939291E
	jmp	LBB69_1
LBB69_4:
	movq	-32(%rbp), %rax
	addq	$160, %rax
	movq	%rax, %rdi
	callq	__ZN4core3ptr13drop_in_place17h6ccc5209e0939291E
	jmp	LBB69_3
LBB69_5:
	movq	-32(%rbp), %rax
	addq	$152, %rax
	movq	%rax, %rdi
	callq	__ZN4core3ptr13drop_in_place17h6ccc5209e0939291E
	jmp	LBB69_4
LBB69_6:
	movq	-32(%rbp), %rax
	addq	$112, %rax
	movq	%rax, %rdi
	callq	__ZN4core3ptr13drop_in_place17h8eae628a99353254E
	jmp	LBB69_5
LBB69_7:
	movq	-32(%rbp), %rax
	addq	$96, %rax
	movq	%rax, %rdi
	callq	__ZN4core3ptr13drop_in_place17hf514507fcc828414E
	jmp	LBB69_6
LBB69_8:
	movq	-32(%rbp), %rax
	addq	$64, %rax
	movq	%rax, %rdi
	callq	__ZN4core3ptr13drop_in_place17h8172ace6f25d0bcdE
	jmp	LBB69_7
LBB69_9:
	movq	-32(%rbp), %rax
	addq	$40, %rax
	movq	%rax, %rdi
	callq	__ZN4core3ptr13drop_in_place17he510b44ce3a90de6E
	jmp	LBB69_8
LBB69_10:
	movq	-32(%rbp), %rax
	addq	$16, %rax
	movq	%rax, %rdi
	callq	__ZN4core3ptr13drop_in_place17h232836675672b6adE
	jmp	LBB69_9
LBB69_11:
	movq	-32(%rbp), %rax
	addq	$168, %rax
	movq	%rax, %rdi
	callq	__ZN4core3ptr13drop_in_place17h6ccc5209e0939291E
	jmp	LBB69_2
LBB69_12:
	movq	-32(%rbp), %rax
	addq	$160, %rax
Ltmp75:
	movq	%rax, %rdi
	callq	__ZN4core3ptr13drop_in_place17h6ccc5209e0939291E
Ltmp76:
	jmp	LBB69_11
LBB69_13:
	movq	-32(%rbp), %rax
	addq	$152, %rax
Ltmp72:
	movq	%rax, %rdi
	callq	__ZN4core3ptr13drop_in_place17h6ccc5209e0939291E
Ltmp73:
	jmp	LBB69_12
LBB69_14:
	movq	-32(%rbp), %rax
	addq	$112, %rax
Ltmp69:
	movq	%rax, %rdi
	callq	__ZN4core3ptr13drop_in_place17h8eae628a99353254E
Ltmp70:
	jmp	LBB69_13
LBB69_15:
	movq	-32(%rbp), %rax
	addq	$96, %rax
Ltmp66:
	movq	%rax, %rdi
	callq	__ZN4core3ptr13drop_in_place17hf514507fcc828414E
Ltmp67:
	jmp	LBB69_14
LBB69_16:
	movq	-32(%rbp), %rax
	addq	$64, %rax
Ltmp63:
	movq	%rax, %rdi
	callq	__ZN4core3ptr13drop_in_place17h8172ace6f25d0bcdE
Ltmp64:
	jmp	LBB69_15
LBB69_17:
	movq	-32(%rbp), %rax
	addq	$40, %rax
Ltmp60:
	movq	%rax, %rdi
	callq	__ZN4core3ptr13drop_in_place17he510b44ce3a90de6E
Ltmp61:
	jmp	LBB69_16
LBB69_18:
	movq	-32(%rbp), %rax
	addq	$16, %rax
Ltmp57:
	movq	%rax, %rdi
	callq	__ZN4core3ptr13drop_in_place17h232836675672b6adE
Ltmp58:
	jmp	LBB69_17
LBB69_19:
Ltmp56:
	movq	%rax, -16(%rbp)
	movl	%edx, -8(%rbp)
	jmp	LBB69_10
LBB69_20:
Ltmp59:
	movq	%rax, -16(%rbp)
	movl	%edx, -8(%rbp)
	jmp	LBB69_9
LBB69_21:
Ltmp62:
	movq	%rax, -16(%rbp)
	movl	%edx, -8(%rbp)
	jmp	LBB69_8
LBB69_22:
Ltmp65:
	movq	%rax, -16(%rbp)
	movl	%edx, -8(%rbp)
	jmp	LBB69_7
LBB69_23:
Ltmp68:
	movq	%rax, -16(%rbp)
	movl	%edx, -8(%rbp)
	jmp	LBB69_6
LBB69_24:
Ltmp71:
	movq	%rax, -16(%rbp)
	movl	%edx, -8(%rbp)
	jmp	LBB69_5
LBB69_25:
Ltmp74:
	movq	%rax, -16(%rbp)
	movl	%edx, -8(%rbp)
	jmp	LBB69_4
LBB69_26:
Ltmp77:
	movq	%rax, -16(%rbp)
	movl	%edx, -8(%rbp)
	jmp	LBB69_3
Lfunc_end12:
	.cfi_endproc
	.section	__TEXT,__gcc_except_tab
	.p2align	2
GCC_except_table69:
Lexception12:
	.byte	255
	.byte	255
	.byte	1
	.uleb128 Lcst_end12-Lcst_begin12
Lcst_begin12:
	.uleb128 Ltmp54-Lfunc_begin12
	.uleb128 Ltmp55-Ltmp54
	.uleb128 Ltmp56-Lfunc_begin12
	.byte	0
	.uleb128 Ltmp55-Lfunc_begin12
	.uleb128 Ltmp75-Ltmp55
	.byte	0
	.byte	0
	.uleb128 Ltmp75-Lfunc_begin12
	.uleb128 Ltmp76-Ltmp75
	.uleb128 Ltmp77-Lfunc_begin12
	.byte	0
	.uleb128 Ltmp72-Lfunc_begin12
	.uleb128 Ltmp73-Ltmp72
	.uleb128 Ltmp74-Lfunc_begin12
	.byte	0
	.uleb128 Ltmp69-Lfunc_begin12
	.uleb128 Ltmp70-Ltmp69
	.uleb128 Ltmp71-Lfunc_begin12
	.byte	0
	.uleb128 Ltmp66-Lfunc_begin12
	.uleb128 Ltmp67-Ltmp66
	.uleb128 Ltmp68-Lfunc_begin12
	.byte	0
	.uleb128 Ltmp63-Lfunc_begin12
	.uleb128 Ltmp64-Ltmp63
	.uleb128 Ltmp65-Lfunc_begin12
	.byte	0
	.uleb128 Ltmp60-Lfunc_begin12
	.uleb128 Ltmp61-Ltmp60
	.uleb128 Ltmp62-Lfunc_begin12
	.byte	0
	.uleb128 Ltmp57-Lfunc_begin12
	.uleb128 Ltmp58-Ltmp57
	.uleb128 Ltmp59-Lfunc_begin12
	.byte	0
Lcst_end12:
	.p2align	2

	.section	__TEXT,__text,regular,pure_instructions
	.p2align	4, 0x90
__ZN4core3ptr13drop_in_place17h4688b9115fb9ea71E:
	.cfi_startproc
	pushq	%rbp
	.cfi_def_cfa_offset 16
	.cfi_offset %rbp, -16
	movq	%rsp, %rbp
	.cfi_def_cfa_register %rbp
	subq	$16, %rsp
	callq	__ZN4core3ptr13drop_in_place17hb5619a4e205e01d4E
	addq	$16, %rsp
	popq	%rbp
	retq
	.cfi_endproc

	.p2align	4, 0x90
__ZN4core3ptr13drop_in_place17h46a0a0dc9fde34aeE:
	.cfi_startproc
	pushq	%rbp
	.cfi_def_cfa_offset 16
	.cfi_offset %rbp, -16
	movq	%rsp, %rbp
	.cfi_def_cfa_register %rbp
	subq	$16, %rsp
	callq	__ZN77_$LT$alloc..raw_vec..RawVec$LT$T$C$A$GT$$u20$as$u20$core..ops..drop..Drop$GT$4drop17h9a732290921a7f21E
	addq	$16, %rsp
	popq	%rbp
	retq
	.cfi_endproc

	.p2align	4, 0x90
__ZN4core3ptr13drop_in_place17h480029dba45c78f7E:
	.cfi_startproc
	pushq	%rbp
	.cfi_def_cfa_offset 16
	.cfi_offset %rbp, -16
	movq	%rsp, %rbp
	.cfi_def_cfa_register %rbp
	subq	$16, %rsp
	xorl	%eax, %eax
	movl	%eax, %ecx
	cmpq	$0, (%rdi)
	movl	$1, %edx
	cmovbeq	%rcx, %rdx
	cmpq	$0, %rdx
	movq	%rdi, -16(%rbp)
	jne	LBB72_2
LBB72_1:
	addq	$16, %rsp
	popq	%rbp
	retq
LBB72_2:
	movq	-16(%rbp), %rax
	movq	%rax, %rdi
	callq	__ZN4core3ptr13drop_in_place17h0c160122e8b87b70E
	jmp	LBB72_1
	.cfi_endproc

	.p2align	4, 0x90
__ZN4core3ptr13drop_in_place17h48a08a9baec87508E:
	.cfi_startproc
	pushq	%rbp
	.cfi_def_cfa_offset 16
	.cfi_offset %rbp, -16
	movq	%rsp, %rbp
	.cfi_def_cfa_register %rbp
	pushq	%rax
	addq	$8, %rsp
	popq	%rbp
	retq
	.cfi_endproc

	.p2align	4, 0x90
__ZN4core3ptr13drop_in_place17h4ab3a684a8b68017E:
Lfunc_begin13:
	.cfi_startproc
	.cfi_personality 155, _rust_eh_personality
	.cfi_lsda 16, Lexception13
	pushq	%rbp
	.cfi_def_cfa_offset 16
	.cfi_offset %rbp, -16
	movq	%rsp, %rbp
	.cfi_def_cfa_register %rbp
	subq	$32, %rsp
Ltmp78:
	movq	%rdi, -32(%rbp)
	callq	__ZN66_$LT$alloc..vec..Vec$LT$T$GT$$u20$as$u20$core..ops..drop..Drop$GT$4drop17h1ae84c4ee772ac84E
Ltmp79:
	jmp	LBB74_4
LBB74_1:
	movq	-16(%rbp), %rdi
	callq	__Unwind_Resume
	ud2
LBB74_2:
	addq	$32, %rsp
	popq	%rbp
	retq
LBB74_3:
	movq	-32(%rbp), %rax
	movq	%rax, %rdi
	callq	__ZN4core3ptr13drop_in_place17h9e11cf14e16a8a5cE
	jmp	LBB74_1
LBB74_4:
	movq	-32(%rbp), %rax
	movq	%rax, %rdi
	callq	__ZN4core3ptr13drop_in_place17h9e11cf14e16a8a5cE
	jmp	LBB74_2
LBB74_5:
Ltmp80:
	movq	%rax, -16(%rbp)
	movl	%edx, -8(%rbp)
	jmp	LBB74_3
Lfunc_end13:
	.cfi_endproc
	.section	__TEXT,__gcc_except_tab
	.p2align	2
GCC_except_table74:
Lexception13:
	.byte	255
	.byte	255
	.byte	1
	.uleb128 Lcst_end13-Lcst_begin13
Lcst_begin13:
	.uleb128 Ltmp78-Lfunc_begin13
	.uleb128 Ltmp79-Ltmp78
	.uleb128 Ltmp80-Lfunc_begin13
	.byte	0
	.uleb128 Ltmp79-Lfunc_begin13
	.uleb128 Lfunc_end13-Ltmp79
	.byte	0
	.byte	0
Lcst_end13:
	.p2align	2

	.section	__TEXT,__text,regular,pure_instructions
	.p2align	4, 0x90
__ZN4core3ptr13drop_in_place17h504cc3bd0ba10ac9E:
Lfunc_begin14:
	.cfi_startproc
	.cfi_personality 155, _rust_eh_personality
	.cfi_lsda 16, Lexception14
	pushq	%rbp
	.cfi_def_cfa_offset 16
	.cfi_offset %rbp, -16
	movq	%rsp, %rbp
	.cfi_def_cfa_register %rbp
	subq	$32, %rsp
Ltmp81:
	movq	%rdi, -32(%rbp)
	callq	__ZN4core3ptr13drop_in_place17hf6e72c79ba3a5cb6E
Ltmp82:
	jmp	LBB75_4
LBB75_1:
	movq	-16(%rbp), %rdi
	callq	__Unwind_Resume
	ud2
LBB75_2:
	addq	$32, %rsp
	popq	%rbp
	retq
LBB75_3:
	movq	-32(%rbp), %rax
	addq	$24, %rax
	movq	%rax, %rdi
	callq	__ZN4core3ptr13drop_in_place17h446af4c3422ef035E
	jmp	LBB75_1
LBB75_4:
	movq	-32(%rbp), %rax
	addq	$24, %rax
	movq	%rax, %rdi
	callq	__ZN4core3ptr13drop_in_place17h446af4c3422ef035E
	jmp	LBB75_2
LBB75_5:
Ltmp83:
	movq	%rax, -16(%rbp)
	movl	%edx, -8(%rbp)
	jmp	LBB75_3
Lfunc_end14:
	.cfi_endproc
	.section	__TEXT,__gcc_except_tab
	.p2align	2
GCC_except_table75:
Lexception14:
	.byte	255
	.byte	255
	.byte	1
	.uleb128 Lcst_end14-Lcst_begin14
Lcst_begin14:
	.uleb128 Ltmp81-Lfunc_begin14
	.uleb128 Ltmp82-Ltmp81
	.uleb128 Ltmp83-Lfunc_begin14
	.byte	0
	.uleb128 Ltmp82-Lfunc_begin14
	.uleb128 Lfunc_end14-Ltmp82
	.byte	0
	.byte	0
Lcst_end14:
	.p2align	2

	.section	__TEXT,__text,regular,pure_instructions
	.p2align	4, 0x90
__ZN4core3ptr13drop_in_place17h5f10c425ee3bb6e4E:
	.cfi_startproc
	pushq	%rbp
	.cfi_def_cfa_offset 16
	.cfi_offset %rbp, -16
	movq	%rsp, %rbp
	.cfi_def_cfa_register %rbp
	subq	$16, %rsp
	movb	(%rdi), %al
	subb	$1, %al
	movq	%rdi, -16(%rbp)
	ja	LBB76_2
	jmp	LBB76_1
LBB76_1:
	addq	$16, %rsp
	popq	%rbp
	retq
LBB76_2:
	movq	-16(%rbp), %rax
	addq	$8, %rax
	movq	%rax, %rdi
	callq	__ZN4core3ptr13drop_in_place17h78f1c0e5ab1d9ad0E
	jmp	LBB76_1
	.cfi_endproc

	.p2align	4, 0x90
__ZN4core3ptr13drop_in_place17h6260450d37a7c3bdE:
	.cfi_startproc
	pushq	%rbp
	.cfi_def_cfa_offset 16
	.cfi_offset %rbp, -16
	movq	%rsp, %rbp
	.cfi_def_cfa_register %rbp
	pushq	%rax
	addq	$8, %rsp
	popq	%rbp
	retq
	.cfi_endproc

	.p2align	4, 0x90
__ZN4core3ptr13drop_in_place17h6356f65db8a5e041E:
Lfunc_begin15:
	.cfi_startproc
	.cfi_personality 155, _rust_eh_personality
	.cfi_lsda 16, Lexception15
	pushq	%rbp
	.cfi_def_cfa_offset 16
	.cfi_offset %rbp, -16
	movq	%rsp, %rbp
	.cfi_def_cfa_register %rbp
	subq	$32, %rsp
	movq	(%rdi), %rax
	movq	8(%rdi), %rcx
	movq	(%rcx), %rcx
Ltmp84:
	movq	%rdi, -32(%rbp)
	movq	%rax, %rdi
	callq	*%rcx
Ltmp85:
	jmp	LBB78_3
LBB78_1:
	addq	$32, %rsp
	popq	%rbp
	retq
LBB78_2:
	movq	-16(%rbp), %rdi
	callq	__Unwind_Resume
	ud2
LBB78_3:
	movq	-32(%rbp), %rax
	movq	(%rax), %rdi
	movq	8(%rax), %rsi
	callq	__ZN5alloc5alloc8box_free17hd154797e08376d46E
	jmp	LBB78_1
LBB78_4:
	movq	-32(%rbp), %rax
	movq	(%rax), %rdi
	movq	8(%rax), %rsi
	callq	__ZN5alloc5alloc8box_free17hd154797e08376d46E
	jmp	LBB78_2
LBB78_5:
Ltmp86:
	movq	%rax, -16(%rbp)
	movl	%edx, -8(%rbp)
	jmp	LBB78_4
Lfunc_end15:
	.cfi_endproc
	.section	__TEXT,__gcc_except_tab
	.p2align	2
GCC_except_table78:
Lexception15:
	.byte	255
	.byte	255
	.byte	1
	.uleb128 Lcst_end15-Lcst_begin15
Lcst_begin15:
	.uleb128 Ltmp84-Lfunc_begin15
	.uleb128 Ltmp85-Ltmp84
	.uleb128 Ltmp86-Lfunc_begin15
	.byte	0
	.uleb128 Ltmp85-Lfunc_begin15
	.uleb128 Lfunc_end15-Ltmp85
	.byte	0
	.byte	0
Lcst_end15:
	.p2align	2

	.section	__TEXT,__text,regular,pure_instructions
	.p2align	4, 0x90
__ZN4core3ptr13drop_in_place17h685afcb29e5bb052E:
Lfunc_begin16:
	.cfi_startproc
	.cfi_personality 155, _rust_eh_personality
	.cfi_lsda 16, Lexception16
	pushq	%rbp
	.cfi_def_cfa_offset 16
	.cfi_offset %rbp, -16
	movq	%rsp, %rbp
	.cfi_def_cfa_register %rbp
	subq	$64, %rsp
	xorl	%eax, %eax
	testb	$1, %al
	movq	%rdi, -56(%rbp)
	movq	%rsi, -64(%rbp)
	jne	LBB79_7
	jmp	LBB79_12
LBB79_1:
	addq	$64, %rsp
	popq	%rbp
	retq
LBB79_2:
	movq	-16(%rbp), %rdi
	callq	__Unwind_Resume
	ud2
LBB79_3:
	movq	-40(%rbp), %rax
	shlq	$4, %rax
	movq	-56(%rbp), %rcx
	addq	%rax, %rcx
	movq	-40(%rbp), %rax
	addq	$1, %rax
	movq	%rax, -40(%rbp)
	movq	%rcx, %rdi
	callq	__ZN4core3ptr13drop_in_place17hfc6423fc53486806E
LBB79_4:
	movq	-64(%rbp), %rax
	cmpq	%rax, -40(%rbp)
	je	LBB79_2
	jmp	LBB79_3
LBB79_5:
	movq	-40(%rbp), %rax
	movq	%rax, %rcx
	shlq	$4, %rcx
	movq	-56(%rbp), %rdx
	addq	%rcx, %rdx
	incq	%rax
	movq	%rax, -40(%rbp)
Ltmp90:
	movq	%rdx, %rdi
	callq	__ZN4core3ptr13drop_in_place17hfc6423fc53486806E
Ltmp91:
	jmp	LBB79_6
LBB79_6:
	movq	-64(%rbp), %rax
	cmpq	%rax, -40(%rbp)
	je	LBB79_1
	jmp	LBB79_5
LBB79_7:
	movq	$0, -40(%rbp)
	jmp	LBB79_6
LBB79_8:
	movq	-32(%rbp), %rdi
	movq	-32(%rbp), %rax
	addq	$16, %rax
	movq	%rax, -32(%rbp)
	callq	__ZN4core3ptr13drop_in_place17hfc6423fc53486806E
LBB79_9:
	movq	-32(%rbp), %rax
	cmpq	-24(%rbp), %rax
	je	LBB79_2
	jmp	LBB79_8
LBB79_10:
	movq	-32(%rbp), %rax
	movq	%rax, %rcx
	addq	$16, %rcx
	movq	%rcx, -32(%rbp)
Ltmp87:
	movq	%rax, %rdi
	callq	__ZN4core3ptr13drop_in_place17hfc6423fc53486806E
Ltmp88:
	jmp	LBB79_11
LBB79_11:
	movq	-32(%rbp), %rax
	cmpq	-24(%rbp), %rax
	je	LBB79_1
	jmp	LBB79_10
LBB79_12:
	movq	-56(%rbp), %rax
	movq	%rax, -32(%rbp)
	movq	-64(%rbp), %rax
	shlq	$4, %rax
	addq	-32(%rbp), %rax
	movq	%rax, -24(%rbp)
	jmp	LBB79_11
LBB79_13:
Ltmp89:
	movq	%rax, -16(%rbp)
	movl	%edx, -8(%rbp)
	jmp	LBB79_9
LBB79_14:
Ltmp92:
	movq	%rax, -16(%rbp)
	movl	%edx, -8(%rbp)
	jmp	LBB79_4
Lfunc_end16:
	.cfi_endproc
	.section	__TEXT,__gcc_except_tab
	.p2align	2
GCC_except_table79:
Lexception16:
	.byte	255
	.byte	255
	.byte	1
	.uleb128 Lcst_end16-Lcst_begin16
Lcst_begin16:
	.uleb128 Lfunc_begin16-Lfunc_begin16
	.uleb128 Ltmp90-Lfunc_begin16
	.byte	0
	.byte	0
	.uleb128 Ltmp90-Lfunc_begin16
	.uleb128 Ltmp91-Ltmp90
	.uleb128 Ltmp92-Lfunc_begin16
	.byte	0
	.uleb128 Ltmp91-Lfunc_begin16
	.uleb128 Ltmp87-Ltmp91
	.byte	0
	.byte	0
	.uleb128 Ltmp87-Lfunc_begin16
	.uleb128 Ltmp88-Ltmp87
	.uleb128 Ltmp89-Lfunc_begin16
	.byte	0
Lcst_end16:
	.p2align	2

	.section	__TEXT,__text,regular,pure_instructions
	.p2align	4, 0x90
__ZN4core3ptr13drop_in_place17h6ad1eca66289a33fE:
	.cfi_startproc
	pushq	%rbp
	.cfi_def_cfa_offset 16
	.cfi_offset %rbp, -16
	movq	%rsp, %rbp
	.cfi_def_cfa_register %rbp
	subq	$16, %rsp
	xorl	%eax, %eax
	movl	%eax, %ecx
	cmpq	$0, (%rdi)
	movl	$1, %edx
	cmovbeq	%rcx, %rdx
	cmpq	$0, %rdx
	movq	%rdi, -16(%rbp)
	jne	LBB80_2
LBB80_1:
	addq	$16, %rsp
	popq	%rbp
	retq
LBB80_2:
	movq	-16(%rbp), %rax
	movq	%rax, %rdi
	callq	__ZN4core3ptr13drop_in_place17h504cc3bd0ba10ac9E
	jmp	LBB80_1
	.cfi_endproc

	.p2align	4, 0x90
__ZN4core3ptr13drop_in_place17h6ccc5209e0939291E:
	.cfi_startproc
	pushq	%rbp
	.cfi_def_cfa_offset 16
	.cfi_offset %rbp, -16
	movq	%rsp, %rbp
	.cfi_def_cfa_register %rbp
	subq	$16, %rsp
	xorl	%eax, %eax
	movl	%eax, %ecx
	movl	(%rdi), %eax
	subl	$4, %eax
	cmpl	$0, %eax
	movl	$1, %edx
	cmovbeq	%rcx, %rdx
	cmpq	$0, %rdx
	movq	%rdi, -16(%rbp)
	jne	LBB81_2
LBB81_1:
	addq	$16, %rsp
	popq	%rbp
	retq
LBB81_2:
	movq	-16(%rbp), %rdi
	callq	__ZN4core3ptr13drop_in_place17h86105e82050d5625E
	jmp	LBB81_1
	.cfi_endproc

	.p2align	4, 0x90
__ZN4core3ptr13drop_in_place17h78f1c0e5ab1d9ad0E:
Lfunc_begin17:
	.cfi_startproc
	.cfi_personality 155, _rust_eh_personality
	.cfi_lsda 16, Lexception17
	pushq	%rbp
	.cfi_def_cfa_offset 16
	.cfi_offset %rbp, -16
	movq	%rsp, %rbp
	.cfi_def_cfa_register %rbp
	subq	$32, %rsp
	movq	(%rdi), %rax
Ltmp93:
	movq	%rdi, -32(%rbp)
	movq	%rax, %rdi
	callq	__ZN4core3ptr13drop_in_place17h9b92ade873ca8486E
Ltmp94:
	jmp	LBB82_3
LBB82_1:
	addq	$32, %rsp
	popq	%rbp
	retq
LBB82_2:
	movq	-16(%rbp), %rdi
	callq	__Unwind_Resume
	ud2
LBB82_3:
	movq	-32(%rbp), %rax
	movq	(%rax), %rdi
	callq	__ZN5alloc5alloc8box_free17h018e070837e358a1E
	jmp	LBB82_1
LBB82_4:
	movq	-32(%rbp), %rax
	movq	(%rax), %rdi
	callq	__ZN5alloc5alloc8box_free17h018e070837e358a1E
	jmp	LBB82_2
LBB82_5:
Ltmp95:
	movq	%rax, -16(%rbp)
	movl	%edx, -8(%rbp)
	jmp	LBB82_4
Lfunc_end17:
	.cfi_endproc
	.section	__TEXT,__gcc_except_tab
	.p2align	2
GCC_except_table82:
Lexception17:
	.byte	255
	.byte	255
	.byte	1
	.uleb128 Lcst_end17-Lcst_begin17
Lcst_begin17:
	.uleb128 Ltmp93-Lfunc_begin17
	.uleb128 Ltmp94-Ltmp93
	.uleb128 Ltmp95-Lfunc_begin17
	.byte	0
	.uleb128 Ltmp94-Lfunc_begin17
	.uleb128 Lfunc_end17-Ltmp94
	.byte	0
	.byte	0
Lcst_end17:
	.p2align	2

	.section	__TEXT,__text,regular,pure_instructions
	.p2align	4, 0x90
__ZN4core3ptr13drop_in_place17h7bc93f689c8159cdE:
	.cfi_startproc
	pushq	%rbp
	.cfi_def_cfa_offset 16
	.cfi_offset %rbp, -16
	movq	%rsp, %rbp
	.cfi_def_cfa_register %rbp
	subq	$16, %rsp
	callq	__ZN77_$LT$alloc..raw_vec..RawVec$LT$T$C$A$GT$$u20$as$u20$core..ops..drop..Drop$GT$4drop17h553628e98e1e2d0bE
	addq	$16, %rsp
	popq	%rbp
	retq
	.cfi_endproc

	.p2align	4, 0x90
__ZN4core3ptr13drop_in_place17h8172ace6f25d0bcdE:
	.cfi_startproc
	pushq	%rbp
	.cfi_def_cfa_offset 16
	.cfi_offset %rbp, -16
	movq	%rsp, %rbp
	.cfi_def_cfa_register %rbp
	subq	$16, %rsp
	callq	__ZN4core3ptr13drop_in_place17hb5c91af98f50cd7cE
	addq	$16, %rsp
	popq	%rbp
	retq
	.cfi_endproc

	.p2align	4, 0x90
__ZN4core3ptr13drop_in_place17h86105e82050d5625E:
	.cfi_startproc
	pushq	%rbp
	.cfi_def_cfa_offset 16
	.cfi_offset %rbp, -16
	movq	%rsp, %rbp
	.cfi_def_cfa_register %rbp
	subq	$16, %rsp
	movl	(%rdi), %eax
	subl	$2, %eax
	movq	%rdi, -16(%rbp)
	ja	LBB85_2
	jmp	LBB85_1
LBB85_1:
	addq	$16, %rsp
	popq	%rbp
	retq
LBB85_2:
	movq	-16(%rbp), %rax
	addq	$4, %rax
	movq	%rax, %rdi
	callq	__ZN4core3ptr13drop_in_place17hee50a80b9c6f52ddE
	jmp	LBB85_1
	.cfi_endproc

	.p2align	4, 0x90
__ZN4core3ptr13drop_in_place17h8eae628a99353254E:
Lfunc_begin18:
	.cfi_startproc
	.cfi_personality 155, _rust_eh_personality
	.cfi_lsda 16, Lexception18
	pushq	%rbp
	.cfi_def_cfa_offset 16
	.cfi_offset %rbp, -16
	movq	%rsp, %rbp
	.cfi_def_cfa_register %rbp
	subq	$32, %rsp
Ltmp96:
	movq	%rdi, -32(%rbp)
	callq	__ZN66_$LT$alloc..vec..Vec$LT$T$GT$$u20$as$u20$core..ops..drop..Drop$GT$4drop17h62e9f5427ed4d4daE
Ltmp97:
	jmp	LBB86_4
LBB86_1:
	movq	-16(%rbp), %rdi
	callq	__Unwind_Resume
	ud2
LBB86_2:
	addq	$32, %rsp
	popq	%rbp
	retq
LBB86_3:
	movq	-32(%rbp), %rax
	movq	%rax, %rdi
	callq	__ZN4core3ptr13drop_in_place17h7bc93f689c8159cdE
	jmp	LBB86_1
LBB86_4:
	movq	-32(%rbp), %rax
	movq	%rax, %rdi
	callq	__ZN4core3ptr13drop_in_place17h7bc93f689c8159cdE
	jmp	LBB86_2
LBB86_5:
Ltmp98:
	movq	%rax, -16(%rbp)
	movl	%edx, -8(%rbp)
	jmp	LBB86_3
Lfunc_end18:
	.cfi_endproc
	.section	__TEXT,__gcc_except_tab
	.p2align	2
GCC_except_table86:
Lexception18:
	.byte	255
	.byte	255
	.byte	1
	.uleb128 Lcst_end18-Lcst_begin18
Lcst_begin18:
	.uleb128 Ltmp96-Lfunc_begin18
	.uleb128 Ltmp97-Ltmp96
	.uleb128 Ltmp98-Lfunc_begin18
	.byte	0
	.uleb128 Ltmp97-Lfunc_begin18
	.uleb128 Lfunc_end18-Ltmp97
	.byte	0
	.byte	0
Lcst_end18:
	.p2align	2

	.section	__TEXT,__text,regular,pure_instructions
	.p2align	4, 0x90
__ZN4core3ptr13drop_in_place17h9b92ade873ca8486E:
	.cfi_startproc
	pushq	%rbp
	.cfi_def_cfa_offset 16
	.cfi_offset %rbp, -16
	movq	%rsp, %rbp
	.cfi_def_cfa_register %rbp
	subq	$16, %rsp
	callq	__ZN4core3ptr13drop_in_place17ha3d504b95e0de400E
	addq	$16, %rsp
	popq	%rbp
	retq
	.cfi_endproc

	.p2align	4, 0x90
__ZN4core3ptr13drop_in_place17h9e11cf14e16a8a5cE:
	.cfi_startproc
	pushq	%rbp
	.cfi_def_cfa_offset 16
	.cfi_offset %rbp, -16
	movq	%rsp, %rbp
	.cfi_def_cfa_register %rbp
	subq	$16, %rsp
	callq	__ZN77_$LT$alloc..raw_vec..RawVec$LT$T$C$A$GT$$u20$as$u20$core..ops..drop..Drop$GT$4drop17h62dec19febe45e70E
	addq	$16, %rsp
	popq	%rbp
	retq
	.cfi_endproc

	.p2align	4, 0x90
__ZN4core3ptr13drop_in_place17ha3d504b95e0de400E:
Lfunc_begin19:
	.cfi_startproc
	.cfi_personality 155, _rust_eh_personality
	.cfi_lsda 16, Lexception19
	pushq	%rbp
	.cfi_def_cfa_offset 16
	.cfi_offset %rbp, -16
	movq	%rsp, %rbp
	.cfi_def_cfa_register %rbp
	subq	$32, %rsp
	movq	(%rdi), %rax
	movq	8(%rdi), %rcx
	movq	(%rcx), %rcx
Ltmp99:
	movq	%rdi, -32(%rbp)
	movq	%rax, %rdi
	callq	*%rcx
Ltmp100:
	jmp	LBB89_3
LBB89_1:
	addq	$32, %rsp
	popq	%rbp
	retq
LBB89_2:
	movq	-16(%rbp), %rdi
	callq	__Unwind_Resume
	ud2
LBB89_3:
	movq	-32(%rbp), %rax
	movq	(%rax), %rdi
	movq	8(%rax), %rsi
	callq	__ZN5alloc5alloc8box_free17hf8653b8ceaa691d4E
	jmp	LBB89_1
LBB89_4:
	movq	-32(%rbp), %rax
	movq	(%rax), %rdi
	movq	8(%rax), %rsi
	callq	__ZN5alloc5alloc8box_free17hf8653b8ceaa691d4E
	jmp	LBB89_2
LBB89_5:
Ltmp101:
	movq	%rax, -16(%rbp)
	movl	%edx, -8(%rbp)
	jmp	LBB89_4
Lfunc_end19:
	.cfi_endproc
	.section	__TEXT,__gcc_except_tab
	.p2align	2
GCC_except_table89:
Lexception19:
	.byte	255
	.byte	255
	.byte	1
	.uleb128 Lcst_end19-Lcst_begin19
Lcst_begin19:
	.uleb128 Ltmp99-Lfunc_begin19
	.uleb128 Ltmp100-Ltmp99
	.uleb128 Ltmp101-Lfunc_begin19
	.byte	0
	.uleb128 Ltmp100-Lfunc_begin19
	.uleb128 Lfunc_end19-Ltmp100
	.byte	0
	.byte	0
Lcst_end19:
	.p2align	2

	.section	__TEXT,__text,regular,pure_instructions
	.p2align	4, 0x90
__ZN4core3ptr13drop_in_place17hb5619a4e205e01d4E:
Lfunc_begin20:
	.cfi_startproc
	.cfi_personality 155, _rust_eh_personality
	.cfi_lsda 16, Lexception20
	pushq	%rbp
	.cfi_def_cfa_offset 16
	.cfi_offset %rbp, -16
	movq	%rsp, %rbp
	.cfi_def_cfa_register %rbp
	subq	$32, %rsp
Ltmp102:
	movq	%rdi, -32(%rbp)
	callq	__ZN66_$LT$alloc..vec..Vec$LT$T$GT$$u20$as$u20$core..ops..drop..Drop$GT$4drop17h51eabc4438c65f3bE
Ltmp103:
	jmp	LBB90_4
LBB90_1:
	movq	-16(%rbp), %rdi
	callq	__Unwind_Resume
	ud2
LBB90_2:
	addq	$32, %rsp
	popq	%rbp
	retq
LBB90_3:
	movq	-32(%rbp), %rax
	movq	%rax, %rdi
	callq	__ZN4core3ptr13drop_in_place17h0f88e54268343a52E
	jmp	LBB90_1
LBB90_4:
	movq	-32(%rbp), %rax
	movq	%rax, %rdi
	callq	__ZN4core3ptr13drop_in_place17h0f88e54268343a52E
	jmp	LBB90_2
LBB90_5:
Ltmp104:
	movq	%rax, -16(%rbp)
	movl	%edx, -8(%rbp)
	jmp	LBB90_3
Lfunc_end20:
	.cfi_endproc
	.section	__TEXT,__gcc_except_tab
	.p2align	2
GCC_except_table90:
Lexception20:
	.byte	255
	.byte	255
	.byte	1
	.uleb128 Lcst_end20-Lcst_begin20
Lcst_begin20:
	.uleb128 Ltmp102-Lfunc_begin20
	.uleb128 Ltmp103-Ltmp102
	.uleb128 Ltmp104-Lfunc_begin20
	.byte	0
	.uleb128 Ltmp103-Lfunc_begin20
	.uleb128 Lfunc_end20-Ltmp103
	.byte	0
	.byte	0
Lcst_end20:
	.p2align	2

	.section	__TEXT,__text,regular,pure_instructions
	.p2align	4, 0x90
__ZN4core3ptr13drop_in_place17hb5c91af98f50cd7cE:
	.cfi_startproc
	pushq	%rbp
	.cfi_def_cfa_offset 16
	.cfi_offset %rbp, -16
	movq	%rsp, %rbp
	.cfi_def_cfa_register %rbp
	subq	$16, %rsp
	callq	__ZN95_$LT$alloc..collections..btree..map..BTreeMap$LT$K$C$V$GT$$u20$as$u20$core..ops..drop..Drop$GT$4drop17h25db99d6959c2edbE
	addq	$16, %rsp
	popq	%rbp
	retq
	.cfi_endproc

	.p2align	4, 0x90
__ZN4core3ptr13drop_in_place17hba6a17b057a1f2beE:
	.cfi_startproc
	pushq	%rbp
	.cfi_def_cfa_offset 16
	.cfi_offset %rbp, -16
	movq	%rsp, %rbp
	.cfi_def_cfa_register %rbp
	subq	$16, %rsp
	callq	__ZN166_$LT$$LT$alloc..collections..btree..map..IntoIter$LT$K$C$V$GT$$u20$as$u20$core..ops..drop..Drop$GT$..drop..DropGuard$LT$K$C$V$GT$$u20$as$u20$core..ops..drop..Drop$GT$4drop17h26cc3d2aa2e17bfeE
	addq	$16, %rsp
	popq	%rbp
	retq
	.cfi_endproc

	.p2align	4, 0x90
__ZN4core3ptr13drop_in_place17hbaf8bd7eb52e6d1dE:
	.cfi_startproc
	pushq	%rbp
	.cfi_def_cfa_offset 16
	.cfi_offset %rbp, -16
	movq	%rsp, %rbp
	.cfi_def_cfa_register %rbp
	subq	$16, %rsp
	callq	*(%rsi)
	addq	$16, %rsp
	popq	%rbp
	retq
	.cfi_endproc

	.p2align	4, 0x90
__ZN4core3ptr13drop_in_place17hc51d8fb5a1183201E:
	.cfi_startproc
	pushq	%rbp
	.cfi_def_cfa_offset 16
	.cfi_offset %rbp, -16
	movq	%rsp, %rbp
	.cfi_def_cfa_register %rbp
	subq	$16, %rsp
	callq	__ZN4core3ptr13drop_in_place17h4572de8cbf17b2dcE
	addq	$16, %rsp
	popq	%rbp
	retq
	.cfi_endproc

	.p2align	4, 0x90
__ZN4core3ptr13drop_in_place17hdc60b940f3bab8d1E:
	.cfi_startproc
	pushq	%rbp
	.cfi_def_cfa_offset 16
	.cfi_offset %rbp, -16
	movq	%rsp, %rbp
	.cfi_def_cfa_register %rbp
	subq	$16, %rsp
	xorl	%eax, %eax
	movl	%eax, %ecx
	cmpq	$0, (%rdi)
	movl	$1, %edx
	cmovbeq	%rcx, %rdx
	cmpq	$0, %rdx
	movq	%rdi, -16(%rbp)
	jne	LBB95_2
LBB95_1:
	addq	$16, %rsp
	popq	%rbp
	retq
LBB95_2:
	movq	-16(%rbp), %rax
	movq	%rax, %rdi
	callq	__ZN4core3ptr13drop_in_place17hf6e72c79ba3a5cb6E
	jmp	LBB95_1
	.cfi_endproc

	.p2align	4, 0x90
__ZN4core3ptr13drop_in_place17hdde4d7039d2d5d2eE:
Lfunc_begin21:
	.cfi_startproc
	.cfi_personality 155, _rust_eh_personality
	.cfi_lsda 16, Lexception21
	pushq	%rbp
	.cfi_def_cfa_offset 16
	.cfi_offset %rbp, -16
	movq	%rsp, %rbp
	.cfi_def_cfa_register %rbp
	subq	$32, %rsp
Ltmp105:
	movq	%rdi, -32(%rbp)
	callq	__ZN4core3ptr13drop_in_place17hb5619a4e205e01d4E
Ltmp106:
	jmp	LBB96_4
LBB96_1:
	movq	-16(%rbp), %rdi
	callq	__Unwind_Resume
	ud2
LBB96_2:
	addq	$32, %rsp
	popq	%rbp
	retq
LBB96_3:
	movq	-32(%rbp), %rax
	addq	$24, %rax
	movq	%rax, %rdi
	callq	__ZN4core3ptr13drop_in_place17hb5619a4e205e01d4E
	jmp	LBB96_1
LBB96_4:
	movq	-32(%rbp), %rax
	addq	$24, %rax
	movq	%rax, %rdi
	callq	__ZN4core3ptr13drop_in_place17hb5619a4e205e01d4E
	jmp	LBB96_2
LBB96_5:
Ltmp107:
	movq	%rax, -16(%rbp)
	movl	%edx, -8(%rbp)
	jmp	LBB96_3
Lfunc_end21:
	.cfi_endproc
	.section	__TEXT,__gcc_except_tab
	.p2align	2
GCC_except_table96:
Lexception21:
	.byte	255
	.byte	255
	.byte	1
	.uleb128 Lcst_end21-Lcst_begin21
Lcst_begin21:
	.uleb128 Ltmp105-Lfunc_begin21
	.uleb128 Ltmp106-Ltmp105
	.uleb128 Ltmp107-Lfunc_begin21
	.byte	0
	.uleb128 Ltmp106-Lfunc_begin21
	.uleb128 Lfunc_end21-Ltmp106
	.byte	0
	.byte	0
Lcst_end21:
	.p2align	2

	.section	__TEXT,__text,regular,pure_instructions
	.p2align	4, 0x90
__ZN4core3ptr13drop_in_place17hdf3af81faea8b253E:
	.cfi_startproc
	pushq	%rbp
	.cfi_def_cfa_offset 16
	.cfi_offset %rbp, -16
	movq	%rsp, %rbp
	.cfi_def_cfa_register %rbp
	subq	$16, %rsp
	callq	*(%rsi)
	addq	$16, %rsp
	popq	%rbp
	retq
	.cfi_endproc

	.p2align	4, 0x90
__ZN4core3ptr13drop_in_place17he4e5a1bc8158795dE:
	.cfi_startproc
	pushq	%rbp
	.cfi_def_cfa_offset 16
	.cfi_offset %rbp, -16
	movq	%rsp, %rbp
	.cfi_def_cfa_register %rbp
	pushq	%rax
	addq	$8, %rsp
	popq	%rbp
	retq
	.cfi_endproc

	.p2align	4, 0x90
__ZN4core3ptr13drop_in_place17he510b44ce3a90de6E:
	.cfi_startproc
	pushq	%rbp
	.cfi_def_cfa_offset 16
	.cfi_offset %rbp, -16
	movq	%rsp, %rbp
	.cfi_def_cfa_register %rbp
	subq	$16, %rsp
	callq	__ZN4core3ptr13drop_in_place17h4ab3a684a8b68017E
	addq	$16, %rsp
	popq	%rbp
	retq
	.cfi_endproc

	.p2align	4, 0x90
__ZN4core3ptr13drop_in_place17hee50a80b9c6f52ddE:
	.cfi_startproc
	pushq	%rbp
	.cfi_def_cfa_offset 16
	.cfi_offset %rbp, -16
	movq	%rsp, %rbp
	.cfi_def_cfa_register %rbp
	subq	$16, %rsp
	callq	__ZN70_$LT$std..sys..unix..fd..FileDesc$u20$as$u20$core..ops..drop..Drop$GT$4drop17h633394f1cf9da1c8E
	addq	$16, %rsp
	popq	%rbp
	retq
	.cfi_endproc

	.p2align	4, 0x90
__ZN4core3ptr13drop_in_place17hf2f8c514ecd67b3eE:
	.cfi_startproc
	pushq	%rbp
	.cfi_def_cfa_offset 16
	.cfi_offset %rbp, -16
	movq	%rsp, %rbp
	.cfi_def_cfa_register %rbp
	subq	$16, %rsp
	cmpq	$0, (%rdi)
	movq	%rdi, -16(%rbp)
	je	LBB101_2
	jmp	LBB101_3
LBB101_1:
	addq	$16, %rsp
	popq	%rbp
	retq
LBB101_2:
	movq	-16(%rbp), %rax
	addq	$8, %rax
	movq	%rax, %rdi
	callq	__ZN4core3ptr13drop_in_place17h0c160122e8b87b70E
	jmp	LBB101_1
LBB101_3:
	movq	-16(%rbp), %rax
	addq	$8, %rax
	movq	%rax, %rdi
	callq	__ZN4core3ptr13drop_in_place17hdc60b940f3bab8d1E
	jmp	LBB101_1
	.cfi_endproc

	.p2align	4, 0x90
__ZN4core3ptr13drop_in_place17hf514507fcc828414E:
	.cfi_startproc
	pushq	%rbp
	.cfi_def_cfa_offset 16
	.cfi_offset %rbp, -16
	movq	%rsp, %rbp
	.cfi_def_cfa_register %rbp
	subq	$16, %rsp
	xorl	%eax, %eax
	movl	%eax, %ecx
	cmpq	$0, (%rdi)
	movl	$1, %edx
	cmovbeq	%rcx, %rdx
	cmpq	$0, %rdx
	movq	%rdi, -16(%rbp)
	jne	LBB102_2
LBB102_1:
	addq	$16, %rsp
	popq	%rbp
	retq
LBB102_2:
	movq	-16(%rbp), %rdi
	callq	__ZN4core3ptr13drop_in_place17hfc6423fc53486806E
	jmp	LBB102_1
	.cfi_endproc

	.p2align	4, 0x90
__ZN4core3ptr13drop_in_place17hf6e72c79ba3a5cb6E:
	.cfi_startproc
	pushq	%rbp
	.cfi_def_cfa_offset 16
	.cfi_offset %rbp, -16
	movq	%rsp, %rbp
	.cfi_def_cfa_register %rbp
	subq	$16, %rsp
	callq	__ZN4core3ptr13drop_in_place17h4688b9115fb9ea71E
	addq	$16, %rsp
	popq	%rbp
	retq
	.cfi_endproc

	.p2align	4, 0x90
__ZN4core3ptr13drop_in_place17hf7836b32fc4bb64fE:
	.cfi_startproc
	pushq	%rbp
	.cfi_def_cfa_offset 16
	.cfi_offset %rbp, -16
	movq	%rsp, %rbp
	.cfi_def_cfa_register %rbp
	subq	$16, %rsp
	cmpq	$0, (%rdi)
	movq	%rdi, -16(%rbp)
	je	LBB104_2
	jmp	LBB104_3
LBB104_1:
	addq	$16, %rsp
	popq	%rbp
	retq
LBB104_2:
	movq	-16(%rbp), %rax
	addq	$8, %rax
	movq	%rax, %rdi
	callq	__ZN4core3ptr13drop_in_place17hdde4d7039d2d5d2eE
	jmp	LBB104_1
LBB104_3:
	movq	-16(%rbp), %rax
	addq	$8, %rax
	movq	%rax, %rdi
	callq	__ZN4core3ptr13drop_in_place17h43a7eb57f19709dbE
	jmp	LBB104_1
	.cfi_endproc

	.p2align	4, 0x90
__ZN4core3ptr13drop_in_place17hfc6423fc53486806E:
Lfunc_begin22:
	.cfi_startproc
	.cfi_personality 155, _rust_eh_personality
	.cfi_lsda 16, Lexception22
	pushq	%rbp
	.cfi_def_cfa_offset 16
	.cfi_offset %rbp, -16
	movq	%rsp, %rbp
	.cfi_def_cfa_register %rbp
	subq	$32, %rsp
Ltmp108:
	movq	%rdi, -32(%rbp)
	callq	__ZN66_$LT$std..ffi..c_str..CString$u20$as$u20$core..ops..drop..Drop$GT$4drop17hc8f135fb333745bcE
Ltmp109:
	jmp	LBB105_4
LBB105_1:
	movq	-16(%rbp), %rdi
	callq	__Unwind_Resume
	ud2
LBB105_2:
	addq	$32, %rsp
	popq	%rbp
	retq
LBB105_3:
	movq	-32(%rbp), %rax
	movq	%rax, %rdi
	callq	__ZN4core3ptr13drop_in_place17h2ebcd330967bbbf2E
	jmp	LBB105_1
LBB105_4:
	movq	-32(%rbp), %rax
	movq	%rax, %rdi
	callq	__ZN4core3ptr13drop_in_place17h2ebcd330967bbbf2E
	jmp	LBB105_2
LBB105_5:
Ltmp110:
	movq	%rax, -16(%rbp)
	movl	%edx, -8(%rbp)
	jmp	LBB105_3
Lfunc_end22:
	.cfi_endproc
	.section	__TEXT,__gcc_except_tab
	.p2align	2
GCC_except_table105:
Lexception22:
	.byte	255
	.byte	255
	.byte	1
	.uleb128 Lcst_end22-Lcst_begin22
Lcst_begin22:
	.uleb128 Ltmp108-Lfunc_begin22
	.uleb128 Ltmp109-Ltmp108
	.uleb128 Ltmp110-Lfunc_begin22
	.byte	0
	.uleb128 Ltmp109-Lfunc_begin22
	.uleb128 Lfunc_end22-Ltmp109
	.byte	0
	.byte	0
Lcst_end22:
	.p2align	2

	.section	__TEXT,__text,regular,pure_instructions
	.p2align	4, 0x90
__ZN4core3ptr19swap_nonoverlapping17h588788f03b80e56aE:
	.cfi_startproc
	pushq	%rbp
	.cfi_def_cfa_offset 16
	.cfi_offset %rbp, -16
	movq	%rsp, %rbp
	.cfi_def_cfa_register %rbp
	subq	$48, %rsp
	movq	$16, -8(%rbp)
	movq	-8(%rbp), %rax
	movq	%rdx, -16(%rbp)
	movq	%rdi, -24(%rbp)
	movq	%rsi, -32(%rbp)
	movq	%rax, -40(%rbp)
	movq	-40(%rbp), %rax
	movq	-16(%rbp), %rcx
	imulq	%rcx, %rax
	movq	-24(%rbp), %rdi
	movq	-32(%rbp), %rsi
	movq	%rax, %rdx
	callq	__ZN4core3ptr25swap_nonoverlapping_bytes17hec772a5eb7752a6cE
	addq	$48, %rsp
	popq	%rbp
	retq
	.cfi_endproc

	.p2align	4, 0x90
__ZN4core3ptr19swap_nonoverlapping17h6be37f02c57e39b7E:
	.cfi_startproc
	pushq	%rbp
	.cfi_def_cfa_offset 16
	.cfi_offset %rbp, -16
	movq	%rsp, %rbp
	.cfi_def_cfa_register %rbp
	subq	$48, %rsp
	movq	$16, -8(%rbp)
	movq	-8(%rbp), %rax
	movq	%rdx, -16(%rbp)
	movq	%rdi, -24(%rbp)
	movq	%rsi, -32(%rbp)
	movq	%rax, -40(%rbp)
	movq	-40(%rbp), %rax
	movq	-16(%rbp), %rcx
	imulq	%rcx, %rax
	movq	-24(%rbp), %rdi
	movq	-32(%rbp), %rsi
	movq	%rax, %rdx
	callq	__ZN4core3ptr25swap_nonoverlapping_bytes17hec772a5eb7752a6cE
	addq	$48, %rsp
	popq	%rbp
	retq
	.cfi_endproc

	.p2align	4, 0x90
__ZN4core3ptr20slice_from_raw_parts17h036f656c84bd604dE:
	.cfi_startproc
	pushq	%rbp
	.cfi_def_cfa_offset 16
	.cfi_offset %rbp, -16
	movq	%rsp, %rbp
	.cfi_def_cfa_register %rbp
	subq	$32, %rsp
	movq	%rdi, -16(%rbp)
	movq	%rsi, -8(%rbp)
	movq	-16(%rbp), %rax
	movq	-8(%rbp), %rcx
	movq	%rax, -32(%rbp)
	movq	%rcx, -24(%rbp)
	movq	-32(%rbp), %rax
	movq	-24(%rbp), %rdx
	addq	$32, %rsp
	popq	%rbp
	retq
	.cfi_endproc

	.p2align	4, 0x90
__ZN4core3ptr20slice_from_raw_parts17h1e168d4dc43f4d46E:
	.cfi_startproc
	pushq	%rbp
	.cfi_def_cfa_offset 16
	.cfi_offset %rbp, -16
	movq	%rsp, %rbp
	.cfi_def_cfa_register %rbp
	subq	$32, %rsp
	movq	%rdi, -16(%rbp)
	movq	%rsi, -8(%rbp)
	movq	-16(%rbp), %rax
	movq	-8(%rbp), %rcx
	movq	%rax, -32(%rbp)
	movq	%rcx, -24(%rbp)
	movq	-32(%rbp), %rax
	movq	-24(%rbp), %rdx
	addq	$32, %rsp
	popq	%rbp
	retq
	.cfi_endproc

	.p2align	4, 0x90
__ZN4core3ptr20slice_from_raw_parts17hebb8ba7ea2db10b0E:
	.cfi_startproc
	pushq	%rbp
	.cfi_def_cfa_offset 16
	.cfi_offset %rbp, -16
	movq	%rsp, %rbp
	.cfi_def_cfa_register %rbp
	subq	$32, %rsp
	movq	%rdi, -16(%rbp)
	movq	%rsi, -8(%rbp)
	movq	-16(%rbp), %rax
	movq	-8(%rbp), %rcx
	movq	%rax, -32(%rbp)
	movq	%rcx, -24(%rbp)
	movq	-32(%rbp), %rax
	movq	-24(%rbp), %rdx
	addq	$32, %rsp
	popq	%rbp
	retq
	.cfi_endproc

	.p2align	4, 0x90
__ZN4core3ptr23swap_nonoverlapping_one17h2370d5413f880704E:
Lfunc_begin23:
	.cfi_startproc
	.cfi_personality 155, _rust_eh_personality
	.cfi_lsda 16, Lexception23
	pushq	%rbp
	.cfi_def_cfa_offset 16
	.cfi_offset %rbp, -16
	movq	%rsp, %rbp
	.cfi_def_cfa_register %rbp
	subq	$80, %rsp
	movb	$0, -25(%rbp)
	movq	$16, -8(%rbp)
	movq	-8(%rbp), %rax
	movq	%rdi, -40(%rbp)
	movq	%rsi, -48(%rbp)
	movq	%rax, -56(%rbp)
	jmp	LBB111_2
LBB111_1:
	movq	-24(%rbp), %rdi
	callq	__Unwind_Resume
	ud2
LBB111_2:
	movq	-56(%rbp), %rax
	cmpq	$32, %rax
	jb	LBB111_4
	movq	-40(%rbp), %rdi
	movq	-48(%rbp), %rsi
	movl	$1, %edx
	callq	__ZN4core3ptr19swap_nonoverlapping17h588788f03b80e56aE
	jmp	LBB111_8
LBB111_4:
	movb	$1, -25(%rbp)
	movq	-40(%rbp), %rdi
	callq	__ZN4core3ptr4read17hb7af8fbed3ed354fE
	movq	%rax, -64(%rbp)
	movq	%rdx, -72(%rbp)
Ltmp111:
	movl	$1, %edx
	movq	-48(%rbp), %rdi
	movq	-40(%rbp), %rsi
	callq	__ZN4core10intrinsics19copy_nonoverlapping17h0edc42072524e22aE
Ltmp112:
	jmp	LBB111_6
LBB111_6:
	movb	$0, -25(%rbp)
Ltmp113:
	movq	-48(%rbp), %rdi
	movq	-64(%rbp), %rsi
	movq	-72(%rbp), %rdx
	callq	__ZN4core3ptr5write17hd8bbb0338047a552E
Ltmp114:
	jmp	LBB111_7
LBB111_7:
	movb	$0, -25(%rbp)
	jmp	LBB111_9
LBB111_8:
	jmp	LBB111_9
LBB111_9:
	addq	$80, %rsp
	popq	%rbp
	retq
LBB111_10:
	movb	$0, -25(%rbp)
	jmp	LBB111_1
LBB111_11:
	testb	$1, -25(%rbp)
	jne	LBB111_10
	jmp	LBB111_1
LBB111_12:
Ltmp115:
	movq	%rax, -24(%rbp)
	movl	%edx, -16(%rbp)
	jmp	LBB111_11
Lfunc_end23:
	.cfi_endproc
	.section	__TEXT,__gcc_except_tab
	.p2align	2
GCC_except_table111:
Lexception23:
	.byte	255
	.byte	255
	.byte	1
	.uleb128 Lcst_end23-Lcst_begin23
Lcst_begin23:
	.uleb128 Lfunc_begin23-Lfunc_begin23
	.uleb128 Ltmp111-Lfunc_begin23
	.byte	0
	.byte	0
	.uleb128 Ltmp111-Lfunc_begin23
	.uleb128 Ltmp114-Ltmp111
	.uleb128 Ltmp115-Lfunc_begin23
	.byte	0
Lcst_end23:
	.p2align	2

	.section	__TEXT,__text,regular,pure_instructions
	.p2align	4, 0x90
__ZN4core3ptr23swap_nonoverlapping_one17h6946883eabb1f3deE:
Lfunc_begin24:
	.cfi_startproc
	.cfi_personality 155, _rust_eh_personality
	.cfi_lsda 16, Lexception24
	pushq	%rbp
	.cfi_def_cfa_offset 16
	.cfi_offset %rbp, -16
	movq	%rsp, %rbp
	.cfi_def_cfa_register %rbp
	subq	$80, %rsp
	movb	$0, -25(%rbp)
	movq	$16, -8(%rbp)
	movq	-8(%rbp), %rax
	movq	%rdi, -40(%rbp)
	movq	%rsi, -48(%rbp)
	movq	%rax, -56(%rbp)
	jmp	LBB112_2
LBB112_1:
	movq	-24(%rbp), %rdi
	callq	__Unwind_Resume
	ud2
LBB112_2:
	movq	-56(%rbp), %rax
	cmpq	$32, %rax
	jb	LBB112_4
	movq	-40(%rbp), %rdi
	movq	-48(%rbp), %rsi
	movl	$1, %edx
	callq	__ZN4core3ptr19swap_nonoverlapping17h6be37f02c57e39b7E
	jmp	LBB112_8
LBB112_4:
	movb	$1, -25(%rbp)
	movq	-40(%rbp), %rdi
	callq	__ZN4core3ptr4read17h0db59dab05fa796eE
	movq	%rax, -64(%rbp)
	movq	%rdx, -72(%rbp)
Ltmp116:
	movl	$1, %edx
	movq	-48(%rbp), %rdi
	movq	-40(%rbp), %rsi
	callq	__ZN4core10intrinsics19copy_nonoverlapping17h90a94d93b54c2387E
Ltmp117:
	jmp	LBB112_6
LBB112_6:
	movb	$0, -25(%rbp)
Ltmp118:
	movq	-48(%rbp), %rdi
	movq	-64(%rbp), %rsi
	movq	-72(%rbp), %rdx
	callq	__ZN4core3ptr5write17h2b6ca73e44f8505dE
Ltmp119:
	jmp	LBB112_7
LBB112_7:
	movb	$0, -25(%rbp)
	jmp	LBB112_9
LBB112_8:
	jmp	LBB112_9
LBB112_9:
	addq	$80, %rsp
	popq	%rbp
	retq
LBB112_10:
	movb	$0, -25(%rbp)
	jmp	LBB112_1
LBB112_11:
	testb	$1, -25(%rbp)
	jne	LBB112_10
	jmp	LBB112_1
LBB112_12:
Ltmp120:
	movq	%rax, -24(%rbp)
	movl	%edx, -16(%rbp)
	jmp	LBB112_11
Lfunc_end24:
	.cfi_endproc
	.section	__TEXT,__gcc_except_tab
	.p2align	2
GCC_except_table112:
Lexception24:
	.byte	255
	.byte	255
	.byte	1
	.uleb128 Lcst_end24-Lcst_begin24
Lcst_begin24:
	.uleb128 Lfunc_begin24-Lfunc_begin24
	.uleb128 Ltmp116-Lfunc_begin24
	.byte	0
	.byte	0
	.uleb128 Ltmp116-Lfunc_begin24
	.uleb128 Ltmp119-Ltmp116
	.uleb128 Ltmp120-Lfunc_begin24
	.byte	0
Lcst_end24:
	.p2align	2

	.section	__TEXT,__text,regular,pure_instructions
	.p2align	4, 0x90
__ZN4core3ptr24slice_from_raw_parts_mut17h6a27c415c8740e30E:
	.cfi_startproc
	pushq	%rbp
	.cfi_def_cfa_offset 16
	.cfi_offset %rbp, -16
	movq	%rsp, %rbp
	.cfi_def_cfa_register %rbp
	subq	$32, %rsp
	movq	%rdi, -16(%rbp)
	movq	%rsi, -8(%rbp)
	movq	-16(%rbp), %rax
	movq	-8(%rbp), %rcx
	movq	%rax, -32(%rbp)
	movq	%rcx, -24(%rbp)
	movq	-32(%rbp), %rax
	movq	-24(%rbp), %rdx
	addq	$32, %rsp
	popq	%rbp
	retq
	.cfi_endproc

	.p2align	4, 0x90
__ZN4core3ptr24slice_from_raw_parts_mut17h9fbaa6710583a2daE:
	.cfi_startproc
	pushq	%rbp
	.cfi_def_cfa_offset 16
	.cfi_offset %rbp, -16
	movq	%rsp, %rbp
	.cfi_def_cfa_register %rbp
	subq	$32, %rsp
	movq	%rdi, -16(%rbp)
	movq	%rsi, -8(%rbp)
	movq	-16(%rbp), %rax
	movq	-8(%rbp), %rcx
	movq	%rax, -32(%rbp)
	movq	%rcx, -24(%rbp)
	movq	-32(%rbp), %rax
	movq	-24(%rbp), %rdx
	addq	$32, %rsp
	popq	%rbp
	retq
	.cfi_endproc

	.p2align	4, 0x90
__ZN4core3ptr24slice_from_raw_parts_mut17hba0860a2cc5354b3E:
	.cfi_startproc
	pushq	%rbp
	.cfi_def_cfa_offset 16
	.cfi_offset %rbp, -16
	movq	%rsp, %rbp
	.cfi_def_cfa_register %rbp
	subq	$32, %rsp
	movq	%rdi, -16(%rbp)
	movq	%rsi, -8(%rbp)
	movq	-16(%rbp), %rax
	movq	-8(%rbp), %rcx
	movq	%rax, -32(%rbp)
	movq	%rcx, -24(%rbp)
	movq	-32(%rbp), %rax
	movq	-24(%rbp), %rdx
	addq	$32, %rsp
	popq	%rbp
	retq
	.cfi_endproc

	.p2align	4, 0x90
__ZN4core3ptr24slice_from_raw_parts_mut17hebef53d5713c7e00E:
	.cfi_startproc
	pushq	%rbp
	.cfi_def_cfa_offset 16
	.cfi_offset %rbp, -16
	movq	%rsp, %rbp
	.cfi_def_cfa_register %rbp
	subq	$32, %rsp
	movq	%rdi, -16(%rbp)
	movq	%rsi, -8(%rbp)
	movq	-16(%rbp), %rax
	movq	-8(%rbp), %rcx
	movq	%rax, -32(%rbp)
	movq	%rcx, -24(%rbp)
	movq	-32(%rbp), %rax
	movq	-24(%rbp), %rdx
	addq	$32, %rsp
	popq	%rbp
	retq
	.cfi_endproc

	.p2align	4, 0x90
__ZN4core3ptr25swap_nonoverlapping_bytes17hec772a5eb7752a6cE:
	.cfi_startproc
	pushq	%rbp
	.cfi_def_cfa_offset 16
	.cfi_offset %rbp, -16
	movq	%rsp, %rbp
	.cfi_def_cfa_register %rbp
	andq	$-32, %rsp
	subq	$224, %rsp
	movq	$32, 200(%rsp)
	movq	200(%rsp), %rax
	movq	%rdi, 104(%rsp)
	movq	%rsi, 96(%rsp)
	movq	%rdx, 88(%rsp)
	movq	%rax, 80(%rsp)
	movq	$0, 120(%rsp)
LBB117_2:
	movq	80(%rsp), %rax
	addq	120(%rsp), %rax
	movq	88(%rsp), %rcx
	cmpq	%rcx, %rax
	jbe	LBB117_4
	movq	88(%rsp), %rax
	cmpq	%rax, 120(%rsp)
	jb	LBB117_13
	jmp	LBB117_12
LBB117_4:
	jmp	LBB117_6
LBB117_6:
	leaq	128(%rsp), %rax
	movq	120(%rsp), %rsi
	movq	104(%rsp), %rdi
	movq	%rax, 72(%rsp)
	callq	__ZN4core3ptr7mut_ptr31_$LT$impl$u20$$BP$mut$u20$T$GT$3add17h91d15050058871a7E
	movq	%rax, 64(%rsp)
	movq	120(%rsp), %rsi
	movq	96(%rsp), %rdi
	callq	__ZN4core3ptr7mut_ptr31_$LT$impl$u20$$BP$mut$u20$T$GT$3add17h91d15050058871a7E
	movq	%rax, 56(%rsp)
	movq	64(%rsp), %rdi
	movq	72(%rsp), %rsi
	movq	80(%rsp), %rdx
	callq	__ZN4core10intrinsics19copy_nonoverlapping17h0605329208009229E
	movq	56(%rsp), %rdi
	movq	64(%rsp), %rsi
	movq	80(%rsp), %rdx
	callq	__ZN4core10intrinsics19copy_nonoverlapping17h0605329208009229E
	movq	72(%rsp), %rdi
	movq	56(%rsp), %rsi
	movq	80(%rsp), %rdx
	callq	__ZN4core10intrinsics19copy_nonoverlapping17h0605329208009229E
	movq	80(%rsp), %rax
	addq	120(%rsp), %rax
	movq	%rax, 120(%rsp)
	jmp	LBB117_2
LBB117_12:
	jmp	LBB117_21
LBB117_13:
	movq	88(%rsp), %rax
	subq	120(%rsp), %rax
	leaq	168(%rsp), %rcx
	movq	%rax, 48(%rsp)
	movq	%rcx, 40(%rsp)
	movq	40(%rsp), %rax
	movq	120(%rsp), %rsi
	movq	104(%rsp), %rdi
	movq	%rax, 32(%rsp)
	callq	__ZN4core3ptr7mut_ptr31_$LT$impl$u20$$BP$mut$u20$T$GT$3add17h91d15050058871a7E
	movq	%rax, 24(%rsp)
	movq	120(%rsp), %rsi
	movq	96(%rsp), %rdi
	callq	__ZN4core3ptr7mut_ptr31_$LT$impl$u20$$BP$mut$u20$T$GT$3add17h91d15050058871a7E
	movq	%rax, 16(%rsp)
	movq	24(%rsp), %rdi
	movq	32(%rsp), %rsi
	movq	48(%rsp), %rdx
	callq	__ZN4core10intrinsics19copy_nonoverlapping17h0605329208009229E
	movq	16(%rsp), %rdi
	movq	24(%rsp), %rsi
	movq	48(%rsp), %rdx
	callq	__ZN4core10intrinsics19copy_nonoverlapping17h0605329208009229E
	movq	32(%rsp), %rdi
	movq	16(%rsp), %rsi
	movq	48(%rsp), %rdx
	callq	__ZN4core10intrinsics19copy_nonoverlapping17h0605329208009229E
	jmp	LBB117_21
LBB117_21:
	movq	%rbp, %rsp
	popq	%rbp
	retq
	.cfi_endproc

	.p2align	4, 0x90
__ZN4core3ptr4read17h0db59dab05fa796eE:
	.cfi_startproc
	pushq	%rbp
	.cfi_def_cfa_offset 16
	.cfi_offset %rbp, -16
	movq	%rsp, %rbp
	.cfi_def_cfa_register %rbp
	subq	$64, %rsp
	movq	-16(%rbp), %rax
	movq	-8(%rbp), %rcx
	movq	%rcx, -24(%rbp)
	movq	%rax, -32(%rbp)
	movq	%rdi, -40(%rbp)
	leaq	-32(%rbp), %rax
	movq	%rax, -48(%rbp)
	movq	-40(%rbp), %rdi
	movq	-48(%rbp), %rsi
	movl	$1, %edx
	callq	__ZN4core10intrinsics19copy_nonoverlapping17h90a94d93b54c2387E
	movq	-32(%rbp), %rax
	movq	-24(%rbp), %rdx
	movq	%rax, -56(%rbp)
	movq	%rdx, -64(%rbp)
	movq	-56(%rbp), %rax
	movq	-64(%rbp), %rdx
	addq	$64, %rsp
	popq	%rbp
	retq
	.cfi_endproc

	.p2align	4, 0x90
__ZN4core3ptr4read17h71314a36534a8d08E:
	.cfi_startproc
	pushq	%rbp
	.cfi_def_cfa_offset 16
	.cfi_offset %rbp, -16
	movq	%rsp, %rbp
	.cfi_def_cfa_register %rbp
	subq	$112, %rsp
	movq	%rdi, %rax
	movq	%rsi, -80(%rbp)
	movq	%rdi, -88(%rbp)
	movq	%rax, -96(%rbp)
	leaq	-72(%rbp), %rax
	movq	%rax, -104(%rbp)
	movq	-80(%rbp), %rdi
	movq	-104(%rbp), %rsi
	movl	$1, %edx
	callq	__ZN4core10intrinsics19copy_nonoverlapping17h7e3af1904470667eE
	movq	-72(%rbp), %rax
	movq	%rax, -48(%rbp)
	movq	-64(%rbp), %rax
	movq	%rax, -40(%rbp)
	movq	-56(%rbp), %rax
	movq	%rax, -32(%rbp)
	movq	-48(%rbp), %rax
	movq	%rax, -24(%rbp)
	movq	-40(%rbp), %rax
	movq	%rax, -16(%rbp)
	movq	-32(%rbp), %rax
	movq	%rax, -8(%rbp)
	movq	-24(%rbp), %rax
	movq	-88(%rbp), %rcx
	movq	%rax, (%rcx)
	movq	-16(%rbp), %rax
	movq	%rax, 8(%rcx)
	movq	-8(%rbp), %rax
	movq	%rax, 16(%rcx)
	movq	-96(%rbp), %rax
	addq	$112, %rsp
	popq	%rbp
	retq
	.cfi_endproc

	.p2align	4, 0x90
__ZN4core3ptr4read17h77411f2cf273c0a4E:
	.cfi_startproc
	pushq	%rbp
	.cfi_def_cfa_offset 16
	.cfi_offset %rbp, -16
	movq	%rsp, %rbp
	.cfi_def_cfa_register %rbp
	subq	$112, %rsp
	movq	%rdi, %rax
	movq	%rsi, -80(%rbp)
	movq	%rdi, -88(%rbp)
	movq	%rax, -96(%rbp)
	leaq	-72(%rbp), %rax
	movq	%rax, -104(%rbp)
	movq	-80(%rbp), %rdi
	movq	-104(%rbp), %rsi
	movl	$1, %edx
	callq	__ZN4core10intrinsics19copy_nonoverlapping17h422911922be3acaeE
	movq	-72(%rbp), %rax
	movq	%rax, -48(%rbp)
	movq	-64(%rbp), %rax
	movq	%rax, -40(%rbp)
	movq	-56(%rbp), %rax
	movq	%rax, -32(%rbp)
	movq	-48(%rbp), %rax
	movq	%rax, -24(%rbp)
	movq	-40(%rbp), %rax
	movq	%rax, -16(%rbp)
	movq	-32(%rbp), %rax
	movq	%rax, -8(%rbp)
	movq	-24(%rbp), %rax
	movq	-88(%rbp), %rcx
	movq	%rax, (%rcx)
	movq	-16(%rbp), %rax
	movq	%rax, 8(%rcx)
	movq	-8(%rbp), %rax
	movq	%rax, 16(%rcx)
	movq	-96(%rbp), %rax
	addq	$112, %rsp
	popq	%rbp
	retq
	.cfi_endproc

	.p2align	4, 0x90
__ZN4core3ptr4read17h80f71ed116f148faE:
	.cfi_startproc
	pushq	%rbp
	.cfi_def_cfa_offset 16
	.cfi_offset %rbp, -16
	movq	%rsp, %rbp
	.cfi_def_cfa_register %rbp
	subq	$128, %rsp
	movq	%rdi, %rax
	movq	%rsi, -104(%rbp)
	movq	%rdi, -112(%rbp)
	movq	%rax, -120(%rbp)
	leaq	-96(%rbp), %rax
	movq	%rax, -128(%rbp)
	movq	-104(%rbp), %rdi
	movq	-128(%rbp), %rsi
	movl	$1, %edx
	callq	__ZN4core10intrinsics19copy_nonoverlapping17h6384d678c55e6206E
	movq	-96(%rbp), %rax
	movq	%rax, -64(%rbp)
	movq	-88(%rbp), %rax
	movq	%rax, -56(%rbp)
	movq	-80(%rbp), %rax
	movq	%rax, -48(%rbp)
	movq	-72(%rbp), %rax
	movq	%rax, -40(%rbp)
	movq	-64(%rbp), %rax
	movq	%rax, -32(%rbp)
	movq	-56(%rbp), %rax
	movq	%rax, -24(%rbp)
	movq	-48(%rbp), %rax
	movq	%rax, -16(%rbp)
	movq	-40(%rbp), %rax
	movq	%rax, -8(%rbp)
	movq	-32(%rbp), %rax
	movq	-112(%rbp), %rcx
	movq	%rax, (%rcx)
	movq	-24(%rbp), %rax
	movq	%rax, 8(%rcx)
	movq	-16(%rbp), %rax
	movq	%rax, 16(%rcx)
	movq	-8(%rbp), %rax
	movq	%rax, 24(%rcx)
	movq	-120(%rbp), %rax
	addq	$128, %rsp
	popq	%rbp
	retq
	.cfi_endproc

	.p2align	4, 0x90
__ZN4core3ptr4read17h980d10acae4f3ff1E:
	.cfi_startproc
	pushq	%rbp
	.cfi_def_cfa_offset 16
	.cfi_offset %rbp, -16
	movq	%rsp, %rbp
	.cfi_def_cfa_register %rbp
	subq	$112, %rsp
	movq	%rdi, %rax
	movq	%rsi, -80(%rbp)
	movq	%rdi, -88(%rbp)
	movq	%rax, -96(%rbp)
	leaq	-72(%rbp), %rax
	movq	%rax, -104(%rbp)
	movq	-80(%rbp), %rdi
	movq	-104(%rbp), %rsi
	movl	$1, %edx
	callq	__ZN4core10intrinsics19copy_nonoverlapping17h5d59e729f8833d01E
	movq	-72(%rbp), %rax
	movq	%rax, -48(%rbp)
	movq	-64(%rbp), %rax
	movq	%rax, -40(%rbp)
	movq	-56(%rbp), %rax
	movq	%rax, -32(%rbp)
	movq	-48(%rbp), %rax
	movq	%rax, -24(%rbp)
	movq	-40(%rbp), %rax
	movq	%rax, -16(%rbp)
	movq	-32(%rbp), %rax
	movq	%rax, -8(%rbp)
	movq	-24(%rbp), %rax
	movq	-88(%rbp), %rcx
	movq	%rax, (%rcx)
	movq	-16(%rbp), %rax
	movq	%rax, 8(%rcx)
	movq	-8(%rbp), %rax
	movq	%rax, 16(%rcx)
	movq	-96(%rbp), %rax
	addq	$112, %rsp
	popq	%rbp
	retq
	.cfi_endproc

	.p2align	4, 0x90
__ZN4core3ptr4read17hb7af8fbed3ed354fE:
	.cfi_startproc
	pushq	%rbp
	.cfi_def_cfa_offset 16
	.cfi_offset %rbp, -16
	movq	%rsp, %rbp
	.cfi_def_cfa_register %rbp
	subq	$64, %rsp
	movq	-16(%rbp), %rax
	movq	-8(%rbp), %rcx
	movq	%rcx, -24(%rbp)
	movq	%rax, -32(%rbp)
	movq	%rdi, -40(%rbp)
	jmp	LBB123_2
LBB123_2:
	movq	-40(%rbp), %rdi
	leaq	-32(%rbp), %rsi
	movl	$1, %edx
	callq	__ZN4core10intrinsics19copy_nonoverlapping17h0edc42072524e22aE
	movq	-32(%rbp), %rax
	movq	-24(%rbp), %rdx
	movq	%rax, -48(%rbp)
	movq	%rdx, -56(%rbp)
	movq	-48(%rbp), %rax
	movq	-56(%rbp), %rdx
	addq	$64, %rsp
	popq	%rbp
	retq
	.cfi_endproc

	.p2align	4, 0x90
__ZN4core3ptr4read17hc0e99c357760b5a6E:
	.cfi_startproc
	pushq	%rbp
	.cfi_def_cfa_offset 16
	.cfi_offset %rbp, -16
	movq	%rsp, %rbp
	.cfi_def_cfa_register %rbp
	subq	$112, %rsp
	movq	%rdi, %rax
	movq	%rsi, -80(%rbp)
	movq	%rdi, -88(%rbp)
	movq	%rax, -96(%rbp)
	leaq	-72(%rbp), %rax
	movq	%rax, -104(%rbp)
	movq	-80(%rbp), %rdi
	movq	-104(%rbp), %rsi
	movl	$1, %edx
	callq	__ZN4core10intrinsics19copy_nonoverlapping17h611aaedf27598fbbE
	movq	-72(%rbp), %rax
	movq	%rax, -48(%rbp)
	movq	-64(%rbp), %rax
	movq	%rax, -40(%rbp)
	movq	-56(%rbp), %rax
	movq	%rax, -32(%rbp)
	movq	-48(%rbp), %rax
	movq	%rax, -24(%rbp)
	movq	-40(%rbp), %rax
	movq	%rax, -16(%rbp)
	movq	-32(%rbp), %rax
	movq	%rax, -8(%rbp)
	movq	-24(%rbp), %rax
	movq	-88(%rbp), %rcx
	movq	%rax, (%rcx)
	movq	-16(%rbp), %rax
	movq	%rax, 8(%rcx)
	movq	-8(%rbp), %rax
	movq	%rax, 16(%rcx)
	movq	-96(%rbp), %rax
	addq	$112, %rsp
	popq	%rbp
	retq
	.cfi_endproc

	.p2align	4, 0x90
__ZN4core3ptr4read17hc47721e8125e1bcfE:
	.cfi_startproc
	pushq	%rbp
	.cfi_def_cfa_offset 16
	.cfi_offset %rbp, -16
	movq	%rsp, %rbp
	.cfi_def_cfa_register %rbp
	subq	$112, %rsp
	movq	%rdi, %rax
	movq	%rsi, -80(%rbp)
	movq	%rdi, -88(%rbp)
	movq	%rax, -96(%rbp)
	leaq	-72(%rbp), %rax
	movq	%rax, -104(%rbp)
	movq	-80(%rbp), %rdi
	movq	-104(%rbp), %rsi
	movl	$1, %edx
	callq	__ZN4core10intrinsics19copy_nonoverlapping17hbce9f52901fdf9b4E
	movq	-72(%rbp), %rax
	movq	%rax, -48(%rbp)
	movq	-64(%rbp), %rax
	movq	%rax, -40(%rbp)
	movq	-56(%rbp), %rax
	movq	%rax, -32(%rbp)
	movq	-48(%rbp), %rax
	movq	%rax, -24(%rbp)
	movq	-40(%rbp), %rax
	movq	%rax, -16(%rbp)
	movq	-32(%rbp), %rax
	movq	%rax, -8(%rbp)
	movq	-24(%rbp), %rax
	movq	-88(%rbp), %rcx
	movq	%rax, (%rcx)
	movq	-16(%rbp), %rax
	movq	%rax, 8(%rcx)
	movq	-8(%rbp), %rax
	movq	%rax, 16(%rcx)
	movq	-96(%rbp), %rax
	addq	$112, %rsp
	popq	%rbp
	retq
	.cfi_endproc

	.p2align	4, 0x90
__ZN4core3ptr4read17hff3792620f4ef4b2E:
	.cfi_startproc
	pushq	%rbp
	.cfi_def_cfa_offset 16
	.cfi_offset %rbp, -16
	movq	%rsp, %rbp
	.cfi_def_cfa_register %rbp
	subq	$128, %rsp
	movq	%rdi, %rax
	movq	%rsi, -104(%rbp)
	movq	%rdi, -112(%rbp)
	movq	%rax, -120(%rbp)
	leaq	-96(%rbp), %rax
	movq	%rax, -128(%rbp)
	movq	-104(%rbp), %rdi
	movq	-128(%rbp), %rsi
	movl	$1, %edx
	callq	__ZN4core10intrinsics19copy_nonoverlapping17hec8575186892a96cE
	movq	-96(%rbp), %rax
	movq	%rax, -64(%rbp)
	movq	-88(%rbp), %rax
	movq	%rax, -56(%rbp)
	movq	-80(%rbp), %rax
	movq	%rax, -48(%rbp)
	movq	-72(%rbp), %rax
	movq	%rax, -40(%rbp)
	movq	-64(%rbp), %rax
	movq	%rax, -32(%rbp)
	movq	-56(%rbp), %rax
	movq	%rax, -24(%rbp)
	movq	-48(%rbp), %rax
	movq	%rax, -16(%rbp)
	movq	-40(%rbp), %rax
	movq	%rax, -8(%rbp)
	movq	-32(%rbp), %rax
	movq	-112(%rbp), %rcx
	movq	%rax, (%rcx)
	movq	-24(%rbp), %rax
	movq	%rax, 8(%rcx)
	movq	-16(%rbp), %rax
	movq	%rax, 16(%rcx)
	movq	-8(%rbp), %rax
	movq	%rax, 24(%rcx)
	movq	-120(%rbp), %rax
	addq	$128, %rsp
	popq	%rbp
	retq
	.cfi_endproc

	.p2align	4, 0x90
__ZN4core3ptr5write17h08382f17a50d2056E:
	.cfi_startproc
	pushq	%rbp
	.cfi_def_cfa_offset 16
	.cfi_offset %rbp, -16
	movq	%rsp, %rbp
	.cfi_def_cfa_register %rbp
	pushq	%rax
	movq	(%rsi), %rax
	movq	%rax, (%rdi)
	movq	8(%rsi), %rax
	movq	%rax, 8(%rdi)
	movq	16(%rsi), %rax
	movq	%rax, 16(%rdi)
	movq	24(%rsi), %rax
	movq	%rax, 24(%rdi)
	addq	$8, %rsp
	popq	%rbp
	retq
	.cfi_endproc

	.p2align	4, 0x90
__ZN4core3ptr5write17h2b6ca73e44f8505dE:
	.cfi_startproc
	pushq	%rbp
	.cfi_def_cfa_offset 16
	.cfi_offset %rbp, -16
	movq	%rsp, %rbp
	.cfi_def_cfa_register %rbp
	pushq	%rax
	movq	%rsi, (%rdi)
	movq	%rdx, 8(%rdi)
	addq	$8, %rsp
	popq	%rbp
	retq
	.cfi_endproc

	.p2align	4, 0x90
__ZN4core3ptr5write17hd8bbb0338047a552E:
	.cfi_startproc
	pushq	%rbp
	.cfi_def_cfa_offset 16
	.cfi_offset %rbp, -16
	movq	%rsp, %rbp
	.cfi_def_cfa_register %rbp
	pushq	%rax
	movq	%rsi, (%rdi)
	movq	%rdx, 8(%rdi)
	addq	$8, %rsp
	popq	%rbp
	retq
	.cfi_endproc

	.p2align	4, 0x90
__ZN4core3ptr6unique15Unique$LT$T$GT$13new_unchecked17h679f84288abc6ec7E:
	.cfi_startproc
	pushq	%rbp
	.cfi_def_cfa_offset 16
	.cfi_offset %rbp, -16
	movq	%rsp, %rbp
	.cfi_def_cfa_register %rbp
	subq	$16, %rsp
	movq	%rdi, -16(%rbp)
	movq	-16(%rbp), %rax
	addq	$16, %rsp
	popq	%rbp
	retq
	.cfi_endproc

	.p2align	4, 0x90
__ZN4core3ptr6unique15Unique$LT$T$GT$4cast17h14ab27b372241635E:
	.cfi_startproc
	pushq	%rbp
	.cfi_def_cfa_offset 16
	.cfi_offset %rbp, -16
	movq	%rsp, %rbp
	.cfi_def_cfa_register %rbp
	subq	$16, %rsp
	callq	__ZN4core3ptr6unique15Unique$LT$T$GT$6as_ptr17hdb97a2a7007fb868E
	movq	%rax, -8(%rbp)
	movq	-8(%rbp), %rdi
	callq	__ZN4core3ptr6unique15Unique$LT$T$GT$13new_unchecked17h679f84288abc6ec7E
	movq	%rax, -16(%rbp)
	movq	-16(%rbp), %rax
	addq	$16, %rsp
	popq	%rbp
	retq
	.cfi_endproc

	.p2align	4, 0x90
__ZN4core3ptr6unique15Unique$LT$T$GT$4cast17h1efecadb7bd3c190E:
	.cfi_startproc
	pushq	%rbp
	.cfi_def_cfa_offset 16
	.cfi_offset %rbp, -16
	movq	%rsp, %rbp
	.cfi_def_cfa_register %rbp
	subq	$16, %rsp
	callq	__ZN4core3ptr6unique15Unique$LT$T$GT$6as_ptr17he83ae26c8facc0a6E
	movq	%rax, -8(%rbp)
	movq	-8(%rbp), %rax
	movq	%rax, %rdi
	callq	__ZN4core3ptr6unique15Unique$LT$T$GT$13new_unchecked17h679f84288abc6ec7E
	movq	%rax, -16(%rbp)
	movq	-16(%rbp), %rax
	addq	$16, %rsp
	popq	%rbp
	retq
	.cfi_endproc

	.p2align	4, 0x90
__ZN4core3ptr6unique15Unique$LT$T$GT$4cast17h20e842db1b2209b2E:
	.cfi_startproc
	pushq	%rbp
	.cfi_def_cfa_offset 16
	.cfi_offset %rbp, -16
	movq	%rsp, %rbp
	.cfi_def_cfa_register %rbp
	subq	$16, %rsp
	callq	__ZN4core3ptr6unique15Unique$LT$T$GT$6as_ptr17hb43ee35acc0425f9E
	movq	%rax, -8(%rbp)
	movq	-8(%rbp), %rax
	movq	%rax, %rdi
	callq	__ZN4core3ptr6unique15Unique$LT$T$GT$13new_unchecked17h679f84288abc6ec7E
	movq	%rax, -16(%rbp)
	movq	-16(%rbp), %rax
	addq	$16, %rsp
	popq	%rbp
	retq
	.cfi_endproc

	.p2align	4, 0x90
__ZN4core3ptr6unique15Unique$LT$T$GT$4cast17h34720e4341fa8b95E:
	.cfi_startproc
	pushq	%rbp
	.cfi_def_cfa_offset 16
	.cfi_offset %rbp, -16
	movq	%rsp, %rbp
	.cfi_def_cfa_register %rbp
	subq	$16, %rsp
	callq	__ZN4core3ptr6unique15Unique$LT$T$GT$6as_ptr17h555ba90021ae11b4E
	movq	%rax, -8(%rbp)
	movq	-8(%rbp), %rax
	movq	%rax, %rdi
	callq	__ZN4core3ptr6unique15Unique$LT$T$GT$13new_unchecked17h679f84288abc6ec7E
	movq	%rax, -16(%rbp)
	movq	-16(%rbp), %rax
	addq	$16, %rsp
	popq	%rbp
	retq
	.cfi_endproc

	.p2align	4, 0x90
__ZN4core3ptr6unique15Unique$LT$T$GT$4cast17h40e5165aaea8c532E:
	.cfi_startproc
	pushq	%rbp
	.cfi_def_cfa_offset 16
	.cfi_offset %rbp, -16
	movq	%rsp, %rbp
	.cfi_def_cfa_register %rbp
	subq	$16, %rsp
	callq	__ZN4core3ptr6unique15Unique$LT$T$GT$6as_ptr17hfca570c944404d05E
	movq	%rax, -8(%rbp)
	movq	-8(%rbp), %rax
	movq	%rax, %rdi
	callq	__ZN4core3ptr6unique15Unique$LT$T$GT$13new_unchecked17h679f84288abc6ec7E
	movq	%rax, -16(%rbp)
	movq	-16(%rbp), %rax
	addq	$16, %rsp
	popq	%rbp
	retq
	.cfi_endproc

	.p2align	4, 0x90
__ZN4core3ptr6unique15Unique$LT$T$GT$4cast17h43811372d569448aE:
	.cfi_startproc
	pushq	%rbp
	.cfi_def_cfa_offset 16
	.cfi_offset %rbp, -16
	movq	%rsp, %rbp
	.cfi_def_cfa_register %rbp
	subq	$16, %rsp
	callq	__ZN4core3ptr6unique15Unique$LT$T$GT$6as_ptr17h905001f387782b68E
	movq	%rax, -8(%rbp)
	movq	-8(%rbp), %rax
	movq	%rax, %rdi
	callq	__ZN4core3ptr6unique15Unique$LT$T$GT$13new_unchecked17h679f84288abc6ec7E
	movq	%rax, -16(%rbp)
	movq	-16(%rbp), %rax
	addq	$16, %rsp
	popq	%rbp
	retq
	.cfi_endproc

	.p2align	4, 0x90
__ZN4core3ptr6unique15Unique$LT$T$GT$4cast17h985b6e205623bf24E:
	.cfi_startproc
	pushq	%rbp
	.cfi_def_cfa_offset 16
	.cfi_offset %rbp, -16
	movq	%rsp, %rbp
	.cfi_def_cfa_register %rbp
	subq	$16, %rsp
	callq	__ZN4core3ptr6unique15Unique$LT$T$GT$6as_ptr17h4381b177e0e2ba31E
	movq	%rax, -8(%rbp)
	movq	-8(%rbp), %rax
	movq	%rax, %rdi
	callq	__ZN4core3ptr6unique15Unique$LT$T$GT$13new_unchecked17h679f84288abc6ec7E
	movq	%rax, -16(%rbp)
	movq	-16(%rbp), %rax
	addq	$16, %rsp
	popq	%rbp
	retq
	.cfi_endproc

	.p2align	4, 0x90
__ZN4core3ptr6unique15Unique$LT$T$GT$4cast17ha3fc0cb34aa37cbeE:
	.cfi_startproc
	pushq	%rbp
	.cfi_def_cfa_offset 16
	.cfi_offset %rbp, -16
	movq	%rsp, %rbp
	.cfi_def_cfa_register %rbp
	subq	$16, %rsp
	callq	__ZN4core3ptr6unique15Unique$LT$T$GT$6as_ptr17h1928ce4fdf14084fE
	movq	%rax, -8(%rbp)
	movq	-8(%rbp), %rax
	movq	%rax, %rdi
	callq	__ZN4core3ptr6unique15Unique$LT$T$GT$13new_unchecked17h679f84288abc6ec7E
	movq	%rax, -16(%rbp)
	movq	-16(%rbp), %rax
	addq	$16, %rsp
	popq	%rbp
	retq
	.cfi_endproc

	.p2align	4, 0x90
__ZN4core3ptr6unique15Unique$LT$T$GT$4cast17hf6f89fa7db3d0000E:
	.cfi_startproc
	pushq	%rbp
	.cfi_def_cfa_offset 16
	.cfi_offset %rbp, -16
	movq	%rsp, %rbp
	.cfi_def_cfa_register %rbp
	subq	$16, %rsp
	callq	__ZN4core3ptr6unique15Unique$LT$T$GT$6as_ptr17he7d50ff606addc6aE
	movq	%rax, -8(%rbp)
	movq	-8(%rbp), %rax
	movq	%rax, %rdi
	callq	__ZN4core3ptr6unique15Unique$LT$T$GT$13new_unchecked17h679f84288abc6ec7E
	movq	%rax, -16(%rbp)
	movq	-16(%rbp), %rax
	addq	$16, %rsp
	popq	%rbp
	retq
	.cfi_endproc

	.p2align	4, 0x90
__ZN4core3ptr6unique15Unique$LT$T$GT$6as_ptr17h1928ce4fdf14084fE:
	.cfi_startproc
	pushq	%rbp
	.cfi_def_cfa_offset 16
	.cfi_offset %rbp, -16
	movq	%rsp, %rbp
	.cfi_def_cfa_register %rbp
	movq	%rdi, %rax
	popq	%rbp
	retq
	.cfi_endproc

	.p2align	4, 0x90
__ZN4core3ptr6unique15Unique$LT$T$GT$6as_ptr17h4381b177e0e2ba31E:
	.cfi_startproc
	pushq	%rbp
	.cfi_def_cfa_offset 16
	.cfi_offset %rbp, -16
	movq	%rsp, %rbp
	.cfi_def_cfa_register %rbp
	movq	%rdi, %rax
	movq	%rsi, %rdx
	popq	%rbp
	retq
	.cfi_endproc

	.p2align	4, 0x90
__ZN4core3ptr6unique15Unique$LT$T$GT$6as_ptr17h555ba90021ae11b4E:
	.cfi_startproc
	pushq	%rbp
	.cfi_def_cfa_offset 16
	.cfi_offset %rbp, -16
	movq	%rsp, %rbp
	.cfi_def_cfa_register %rbp
	movq	%rdi, %rax
	popq	%rbp
	retq
	.cfi_endproc

	.p2align	4, 0x90
__ZN4core3ptr6unique15Unique$LT$T$GT$6as_ptr17h70d741d2b90e6b3cE:
	.cfi_startproc
	pushq	%rbp
	.cfi_def_cfa_offset 16
	.cfi_offset %rbp, -16
	movq	%rsp, %rbp
	.cfi_def_cfa_register %rbp
	movq	%rdi, %rax
	popq	%rbp
	retq
	.cfi_endproc

	.p2align	4, 0x90
__ZN4core3ptr6unique15Unique$LT$T$GT$6as_ptr17h905001f387782b68E:
	.cfi_startproc
	pushq	%rbp
	.cfi_def_cfa_offset 16
	.cfi_offset %rbp, -16
	movq	%rsp, %rbp
	.cfi_def_cfa_register %rbp
	movq	%rdi, %rax
	movq	%rsi, %rdx
	popq	%rbp
	retq
	.cfi_endproc

	.p2align	4, 0x90
__ZN4core3ptr6unique15Unique$LT$T$GT$6as_ptr17hb43ee35acc0425f9E:
	.cfi_startproc
	pushq	%rbp
	.cfi_def_cfa_offset 16
	.cfi_offset %rbp, -16
	movq	%rsp, %rbp
	.cfi_def_cfa_register %rbp
	movq	%rdi, %rax
	popq	%rbp
	retq
	.cfi_endproc

	.p2align	4, 0x90
__ZN4core3ptr6unique15Unique$LT$T$GT$6as_ptr17hdb97a2a7007fb868E:
	.cfi_startproc
	pushq	%rbp
	.cfi_def_cfa_offset 16
	.cfi_offset %rbp, -16
	movq	%rsp, %rbp
	.cfi_def_cfa_register %rbp
	movq	%rdi, %rax
	popq	%rbp
	retq
	.cfi_endproc

	.p2align	4, 0x90
__ZN4core3ptr6unique15Unique$LT$T$GT$6as_ptr17he7d50ff606addc6aE:
	.cfi_startproc
	pushq	%rbp
	.cfi_def_cfa_offset 16
	.cfi_offset %rbp, -16
	movq	%rsp, %rbp
	.cfi_def_cfa_register %rbp
	movq	%rdi, %rax
	movq	%rsi, %rdx
	popq	%rbp
	retq
	.cfi_endproc

	.p2align	4, 0x90
__ZN4core3ptr6unique15Unique$LT$T$GT$6as_ptr17he83ae26c8facc0a6E:
	.cfi_startproc
	pushq	%rbp
	.cfi_def_cfa_offset 16
	.cfi_offset %rbp, -16
	movq	%rsp, %rbp
	.cfi_def_cfa_register %rbp
	movq	%rdi, %rax
	popq	%rbp
	retq
	.cfi_endproc

	.p2align	4, 0x90
__ZN4core3ptr6unique15Unique$LT$T$GT$6as_ptr17hfca570c944404d05E:
	.cfi_startproc
	pushq	%rbp
	.cfi_def_cfa_offset 16
	.cfi_offset %rbp, -16
	movq	%rsp, %rbp
	.cfi_def_cfa_register %rbp
	movq	%rdi, %rax
	movq	%rsi, %rdx
	popq	%rbp
	retq
	.cfi_endproc

	.p2align	4, 0x90
__ZN4core3ptr6unique15Unique$LT$T$GT$6as_ref17h3ea32a0b1fb6b9e6E:
	.cfi_startproc
	pushq	%rbp
	.cfi_def_cfa_offset 16
	.cfi_offset %rbp, -16
	movq	%rsp, %rbp
	.cfi_def_cfa_register %rbp
	subq	$16, %rsp
	movq	(%rdi), %rax
	movq	8(%rdi), %rsi
	movq	%rax, %rdi
	callq	__ZN4core3ptr6unique15Unique$LT$T$GT$6as_ptr17hfca570c944404d05E
	movq	%rax, -8(%rbp)
	movq	%rdx, -16(%rbp)
	movq	-8(%rbp), %rax
	movq	-16(%rbp), %rdx
	addq	$16, %rsp
	popq	%rbp
	retq
	.cfi_endproc

	.p2align	4, 0x90
__ZN4core3ptr6unique15Unique$LT$T$GT$6as_ref17h40bfc781c166fa58E:
	.cfi_startproc
	pushq	%rbp
	.cfi_def_cfa_offset 16
	.cfi_offset %rbp, -16
	movq	%rsp, %rbp
	.cfi_def_cfa_register %rbp
	subq	$16, %rsp
	movq	(%rdi), %rdi
	callq	__ZN4core3ptr6unique15Unique$LT$T$GT$6as_ptr17he83ae26c8facc0a6E
	movq	%rax, -8(%rbp)
	movq	-8(%rbp), %rax
	addq	$16, %rsp
	popq	%rbp
	retq
	.cfi_endproc

	.p2align	4, 0x90
__ZN4core3ptr6unique15Unique$LT$T$GT$6as_ref17h5201e6da36373483E:
	.cfi_startproc
	pushq	%rbp
	.cfi_def_cfa_offset 16
	.cfi_offset %rbp, -16
	movq	%rsp, %rbp
	.cfi_def_cfa_register %rbp
	subq	$16, %rsp
	movq	(%rdi), %rax
	movq	8(%rdi), %rsi
	movq	%rax, %rdi
	callq	__ZN4core3ptr6unique15Unique$LT$T$GT$6as_ptr17h905001f387782b68E
	movq	%rax, -8(%rbp)
	movq	%rdx, -16(%rbp)
	movq	-8(%rbp), %rax
	movq	-16(%rbp), %rdx
	addq	$16, %rsp
	popq	%rbp
	retq
	.cfi_endproc

	.p2align	4, 0x90
__ZN4core3ptr6unique15Unique$LT$T$GT$6as_ref17h70c451d63c66cec5E:
	.cfi_startproc
	pushq	%rbp
	.cfi_def_cfa_offset 16
	.cfi_offset %rbp, -16
	movq	%rsp, %rbp
	.cfi_def_cfa_register %rbp
	subq	$16, %rsp
	movq	(%rdi), %rax
	movq	8(%rdi), %rsi
	movq	%rax, %rdi
	callq	__ZN4core3ptr6unique15Unique$LT$T$GT$6as_ptr17he7d50ff606addc6aE
	movq	%rax, -8(%rbp)
	movq	%rdx, -16(%rbp)
	movq	-8(%rbp), %rax
	movq	-16(%rbp), %rdx
	addq	$16, %rsp
	popq	%rbp
	retq
	.cfi_endproc

	.p2align	4, 0x90
__ZN4core3ptr6unique15Unique$LT$T$GT$6as_ref17h8c79bc84d972ecfaE:
	.cfi_startproc
	pushq	%rbp
	.cfi_def_cfa_offset 16
	.cfi_offset %rbp, -16
	movq	%rsp, %rbp
	.cfi_def_cfa_register %rbp
	subq	$16, %rsp
	movq	(%rdi), %rax
	movq	8(%rdi), %rsi
	movq	%rax, %rdi
	callq	__ZN4core3ptr6unique15Unique$LT$T$GT$6as_ptr17h4381b177e0e2ba31E
	movq	%rax, -8(%rbp)
	movq	%rdx, -16(%rbp)
	movq	-8(%rbp), %rax
	movq	-16(%rbp), %rdx
	addq	$16, %rsp
	popq	%rbp
	retq
	.cfi_endproc

	.p2align	4, 0x90
__ZN4core3ptr7mut_ptr31_$LT$impl$u20$$BP$mut$u20$T$GT$3add17h91d15050058871a7E:
	.cfi_startproc
	pushq	%rbp
	.cfi_def_cfa_offset 16
	.cfi_offset %rbp, -16
	movq	%rsp, %rbp
	.cfi_def_cfa_register %rbp
	subq	$16, %rsp
	callq	__ZN4core3ptr7mut_ptr31_$LT$impl$u20$$BP$mut$u20$T$GT$6offset17h0a5e26a2bf3d17b8E
	movq	%rax, -8(%rbp)
	movq	-8(%rbp), %rax
	addq	$16, %rsp
	popq	%rbp
	retq
	.cfi_endproc

	.p2align	4, 0x90
__ZN4core3ptr7mut_ptr31_$LT$impl$u20$$BP$mut$u20$T$GT$6offset17h0a5e26a2bf3d17b8E:
	.cfi_startproc
	pushq	%rbp
	.cfi_def_cfa_offset 16
	.cfi_offset %rbp, -16
	movq	%rsp, %rbp
	.cfi_def_cfa_register %rbp
	subq	$16, %rsp
	addq	%rsi, %rdi
	movq	%rdi, -8(%rbp)
	movq	-8(%rbp), %rax
	movq	%rax, -16(%rbp)
	movq	-16(%rbp), %rax
	addq	$16, %rsp
	popq	%rbp
	retq
	.cfi_endproc

	.p2align	4, 0x90
__ZN4core3ptr7mut_ptr31_$LT$impl$u20$$BP$mut$u20$T$GT$7is_null17h1d0e4a64b2f917aeE:
	.cfi_startproc
	pushq	%rbp
	.cfi_def_cfa_offset 16
	.cfi_offset %rbp, -16
	movq	%rsp, %rbp
	.cfi_def_cfa_register %rbp
	pushq	%rax
	movq	%rdi, -8(%rbp)
	movq	-8(%rbp), %rax
	cmpq	$0, %rax
	sete	%cl
	andb	$1, %cl
	movzbl	%cl, %edx
	movl	%edx, %eax
	addq	$8, %rsp
	popq	%rbp
	retq
	.cfi_endproc

	.p2align	4, 0x90
__ZN4core3ptr7mut_ptr31_$LT$impl$u20$$BP$mut$u20$T$GT$7is_null17h67d2190b6c9c9ea3E:
	.cfi_startproc
	pushq	%rbp
	.cfi_def_cfa_offset 16
	.cfi_offset %rbp, -16
	movq	%rsp, %rbp
	.cfi_def_cfa_register %rbp
	pushq	%rax
	movq	%rdi, -8(%rbp)
	movq	-8(%rbp), %rax
	cmpq	$0, %rax
	sete	%cl
	andb	$1, %cl
	movzbl	%cl, %edx
	movl	%edx, %eax
	addq	$8, %rsp
	popq	%rbp
	retq
	.cfi_endproc

	.p2align	4, 0x90
__ZN4core3ptr7mut_ptr31_$LT$impl$u20$$BP$mut$u20$T$GT$7is_null17hab2267698dedc155E:
	.cfi_startproc
	pushq	%rbp
	.cfi_def_cfa_offset 16
	.cfi_offset %rbp, -16
	movq	%rsp, %rbp
	.cfi_def_cfa_register %rbp
	pushq	%rax
	movq	%rdi, -8(%rbp)
	movq	-8(%rbp), %rax
	cmpq	$0, %rax
	sete	%cl
	andb	$1, %cl
	movzbl	%cl, %edx
	movl	%edx, %eax
	addq	$8, %rsp
	popq	%rbp
	retq
	.cfi_endproc

	.p2align	4, 0x90
__ZN4core3ptr7mut_ptr31_$LT$impl$u20$$BP$mut$u20$T$GT$7is_null17hbebc3656568f750cE:
	.cfi_startproc
	pushq	%rbp
	.cfi_def_cfa_offset 16
	.cfi_offset %rbp, -16
	movq	%rsp, %rbp
	.cfi_def_cfa_register %rbp
	pushq	%rax
	movq	%rdi, -8(%rbp)
	movq	-8(%rbp), %rax
	cmpq	$0, %rax
	sete	%cl
	andb	$1, %cl
	movzbl	%cl, %edx
	movl	%edx, %eax
	addq	$8, %rsp
	popq	%rbp
	retq
	.cfi_endproc

	.p2align	4, 0x90
__ZN4core3ptr7mut_ptr31_$LT$impl$u20$$BP$mut$u20$T$GT$7is_null17hc250fb467d7173ddE:
	.cfi_startproc
	pushq	%rbp
	.cfi_def_cfa_offset 16
	.cfi_offset %rbp, -16
	movq	%rsp, %rbp
	.cfi_def_cfa_register %rbp
	pushq	%rax
	movq	%rdi, -8(%rbp)
	jmp	LBB161_1
LBB161_1:
	movq	-8(%rbp), %rax
	cmpq	$0, %rax
	sete	%cl
	andb	$1, %cl
	movzbl	%cl, %edx
	movl	%edx, %eax
	addq	$8, %rsp
	popq	%rbp
	retq
	.cfi_endproc

	.p2align	4, 0x90
__ZN4core3ptr7mut_ptr41_$LT$impl$u20$$BP$mut$u20$$u5b$T$u5d$$GT$10as_mut_ptr17h7b90ca81525441b7E:
	.cfi_startproc
	pushq	%rbp
	.cfi_def_cfa_offset 16
	.cfi_offset %rbp, -16
	movq	%rsp, %rbp
	.cfi_def_cfa_register %rbp
	movq	%rdi, %rax
	popq	%rbp
	retq
	.cfi_endproc

	.p2align	4, 0x90
__ZN4core3ptr8non_null16NonNull$LT$T$GT$13new_unchecked17hb5f072193df64002E:
	.cfi_startproc
	pushq	%rbp
	.cfi_def_cfa_offset 16
	.cfi_offset %rbp, -16
	movq	%rsp, %rbp
	.cfi_def_cfa_register %rbp
	pushq	%rax
	movq	%rdi, -8(%rbp)
	movq	-8(%rbp), %rax
	addq	$8, %rsp
	popq	%rbp
	retq
	.cfi_endproc

	.p2align	4, 0x90
__ZN4core3ptr8non_null16NonNull$LT$T$GT$13new_unchecked17hfc051782ff11e254E:
	.cfi_startproc
	pushq	%rbp
	.cfi_def_cfa_offset 16
	.cfi_offset %rbp, -16
	movq	%rsp, %rbp
	.cfi_def_cfa_register %rbp
	pushq	%rax
	movq	%rdi, -8(%rbp)
	movq	-8(%rbp), %rax
	addq	$8, %rsp
	popq	%rbp
	retq
	.cfi_endproc

	.p2align	4, 0x90
__ZN4core3ptr8non_null16NonNull$LT$T$GT$3new17h40896a5fe3f8ae47E:
	.cfi_startproc
	pushq	%rbp
	.cfi_def_cfa_offset 16
	.cfi_offset %rbp, -16
	movq	%rsp, %rbp
	.cfi_def_cfa_register %rbp
	subq	$32, %rsp
	movq	%rdi, -16(%rbp)
	callq	__ZN4core3ptr7mut_ptr31_$LT$impl$u20$$BP$mut$u20$T$GT$7is_null17hab2267698dedc155E
	movb	%al, -17(%rbp)
	movb	-17(%rbp), %al
	xorb	$-1, %al
	testb	$1, %al
	jne	LBB165_3
	movq	$0, -8(%rbp)
	jmp	LBB165_5
LBB165_3:
	movq	-16(%rbp), %rdi
	callq	__ZN4core3ptr8non_null16NonNull$LT$T$GT$13new_unchecked17hb5f072193df64002E
	movq	%rax, -32(%rbp)
	movq	-32(%rbp), %rax
	movq	%rax, -8(%rbp)
LBB165_5:
	movq	-8(%rbp), %rax
	addq	$32, %rsp
	popq	%rbp
	retq
	.cfi_endproc

	.p2align	4, 0x90
__ZN4core3ptr8non_null16NonNull$LT$T$GT$3new17haff9945203304ea6E:
	.cfi_startproc
	pushq	%rbp
	.cfi_def_cfa_offset 16
	.cfi_offset %rbp, -16
	movq	%rsp, %rbp
	.cfi_def_cfa_register %rbp
	subq	$32, %rsp
	movq	%rdi, -16(%rbp)
	callq	__ZN4core3ptr7mut_ptr31_$LT$impl$u20$$BP$mut$u20$T$GT$7is_null17hc250fb467d7173ddE
	movb	%al, -17(%rbp)
	movb	-17(%rbp), %al
	xorb	$-1, %al
	testb	$1, %al
	jne	LBB166_3
	movq	$0, -8(%rbp)
	jmp	LBB166_5
LBB166_3:
	movq	-16(%rbp), %rdi
	callq	__ZN4core3ptr8non_null16NonNull$LT$T$GT$13new_unchecked17hfc051782ff11e254E
	movq	%rax, -32(%rbp)
	movq	-32(%rbp), %rax
	movq	%rax, -8(%rbp)
LBB166_5:
	movq	-8(%rbp), %rax
	addq	$32, %rsp
	popq	%rbp
	retq
	.cfi_endproc

	.p2align	4, 0x90
__ZN4core3ptr8non_null16NonNull$LT$T$GT$4cast17hd7a714585968ecccE:
	.cfi_startproc
	pushq	%rbp
	.cfi_def_cfa_offset 16
	.cfi_offset %rbp, -16
	movq	%rsp, %rbp
	.cfi_def_cfa_register %rbp
	subq	$16, %rsp
	callq	__ZN4core3ptr8non_null16NonNull$LT$T$GT$6as_ptr17h2f6f50bb8f9da73dE
	movq	%rax, -8(%rbp)
	movq	-8(%rbp), %rax
	movq	%rax, %rdi
	callq	__ZN4core3ptr8non_null16NonNull$LT$T$GT$13new_unchecked17hfc051782ff11e254E
	movq	%rax, -16(%rbp)
	movq	-16(%rbp), %rax
	addq	$16, %rsp
	popq	%rbp
	retq
	.cfi_endproc

	.p2align	4, 0x90
__ZN4core3ptr8non_null16NonNull$LT$T$GT$6as_ptr17h2f6f50bb8f9da73dE:
	.cfi_startproc
	pushq	%rbp
	.cfi_def_cfa_offset 16
	.cfi_offset %rbp, -16
	movq	%rsp, %rbp
	.cfi_def_cfa_register %rbp
	movq	%rdi, %rax
	popq	%rbp
	retq
	.cfi_endproc

	.p2align	4, 0x90
__ZN4core3ptr8non_null16NonNull$LT$T$GT$6as_ptr17h40c1848d44a8cb07E:
	.cfi_startproc
	pushq	%rbp
	.cfi_def_cfa_offset 16
	.cfi_offset %rbp, -16
	movq	%rsp, %rbp
	.cfi_def_cfa_register %rbp
	movq	%rdi, %rax
	popq	%rbp
	retq
	.cfi_endproc

	.p2align	4, 0x90
__ZN4core3ptr8non_null16NonNull$LT$T$GT$6as_ref17hcddc8912280d710aE:
	.cfi_startproc
	pushq	%rbp
	.cfi_def_cfa_offset 16
	.cfi_offset %rbp, -16
	movq	%rsp, %rbp
	.cfi_def_cfa_register %rbp
	subq	$16, %rsp
	movq	(%rdi), %rdi
	callq	__ZN4core3ptr8non_null16NonNull$LT$T$GT$6as_ptr17h2f6f50bb8f9da73dE
	movq	%rax, -8(%rbp)
	movq	-8(%rbp), %rax
	addq	$16, %rsp
	popq	%rbp
	retq
	.cfi_endproc

	.p2align	4, 0x90
__ZN4core3ptr9const_ptr33_$LT$impl$u20$$BP$const$u20$T$GT$13guaranteed_eq17hf48afa2a69d285ddE:
	.cfi_startproc
	pushq	%rbp
	.cfi_def_cfa_offset 16
	.cfi_offset %rbp, -16
	movq	%rsp, %rbp
	.cfi_def_cfa_register %rbp
	subq	$2, %rsp
	cmpq	%rsi, %rdi
	sete	%al
	andb	$1, %al
	movb	%al, -1(%rbp)
	movb	-1(%rbp), %al
	movb	%al, -2(%rbp)
	movb	-2(%rbp), %al
	andb	$1, %al
	movzbl	%al, %eax
	addq	$2, %rsp
	popq	%rbp
	retq
	.cfi_endproc

	.p2align	4, 0x90
__ZN4core3ptr9const_ptr33_$LT$impl$u20$$BP$const$u20$T$GT$3add17h19499c60d40cb92bE:
	.cfi_startproc
	pushq	%rbp
	.cfi_def_cfa_offset 16
	.cfi_offset %rbp, -16
	movq	%rsp, %rbp
	.cfi_def_cfa_register %rbp
	subq	$16, %rsp
	callq	__ZN4core3ptr9const_ptr33_$LT$impl$u20$$BP$const$u20$T$GT$6offset17h52fe684e8ba6f55dE
	movq	%rax, -8(%rbp)
	movq	-8(%rbp), %rax
	addq	$16, %rsp
	popq	%rbp
	retq
	.cfi_endproc

	.p2align	4, 0x90
__ZN4core3ptr9const_ptr33_$LT$impl$u20$$BP$const$u20$T$GT$3add17h6f754760bdec89abE:
	.cfi_startproc
	pushq	%rbp
	.cfi_def_cfa_offset 16
	.cfi_offset %rbp, -16
	movq	%rsp, %rbp
	.cfi_def_cfa_register %rbp
	subq	$16, %rsp
	callq	__ZN4core3ptr9const_ptr33_$LT$impl$u20$$BP$const$u20$T$GT$6offset17h2e3473c6b7c3c259E
	movq	%rax, -8(%rbp)
	movq	-8(%rbp), %rax
	addq	$16, %rsp
	popq	%rbp
	retq
	.cfi_endproc

	.p2align	4, 0x90
__ZN4core3ptr9const_ptr33_$LT$impl$u20$$BP$const$u20$T$GT$3add17h908a7ed241bd72e3E:
	.cfi_startproc
	pushq	%rbp
	.cfi_def_cfa_offset 16
	.cfi_offset %rbp, -16
	movq	%rsp, %rbp
	.cfi_def_cfa_register %rbp
	subq	$16, %rsp
	callq	__ZN4core3ptr9const_ptr33_$LT$impl$u20$$BP$const$u20$T$GT$6offset17h8f44bd88b80f6c26E
	movq	%rax, -8(%rbp)
	movq	-8(%rbp), %rax
	addq	$16, %rsp
	popq	%rbp
	retq
	.cfi_endproc

	.p2align	4, 0x90
__ZN4core3ptr9const_ptr33_$LT$impl$u20$$BP$const$u20$T$GT$3add17hf06875e1d8b693caE:
	.cfi_startproc
	pushq	%rbp
	.cfi_def_cfa_offset 16
	.cfi_offset %rbp, -16
	movq	%rsp, %rbp
	.cfi_def_cfa_register %rbp
	subq	$16, %rsp
	callq	__ZN4core3ptr9const_ptr33_$LT$impl$u20$$BP$const$u20$T$GT$6offset17hf79f338e58966fc8E
	movq	%rax, -8(%rbp)
	movq	-8(%rbp), %rax
	addq	$16, %rsp
	popq	%rbp
	retq
	.cfi_endproc

	.p2align	4, 0x90
__ZN4core3ptr9const_ptr33_$LT$impl$u20$$BP$const$u20$T$GT$6offset17h2e3473c6b7c3c259E:
	.cfi_startproc
	pushq	%rbp
	.cfi_def_cfa_offset 16
	.cfi_offset %rbp, -16
	movq	%rsp, %rbp
	.cfi_def_cfa_register %rbp
	subq	$16, %rsp
	addq	%rsi, %rdi
	movq	%rdi, -8(%rbp)
	movq	-8(%rbp), %rax
	movq	%rax, -16(%rbp)
	movq	-16(%rbp), %rax
	addq	$16, %rsp
	popq	%rbp
	retq
	.cfi_endproc

	.p2align	4, 0x90
__ZN4core3ptr9const_ptr33_$LT$impl$u20$$BP$const$u20$T$GT$6offset17h52fe684e8ba6f55dE:
	.cfi_startproc
	pushq	%rbp
	.cfi_def_cfa_offset 16
	.cfi_offset %rbp, -16
	movq	%rsp, %rbp
	.cfi_def_cfa_register %rbp
	subq	$16, %rsp
	imulq	$24, %rsi, %rax
	addq	%rax, %rdi
	movq	%rdi, -8(%rbp)
	movq	-8(%rbp), %rax
	movq	%rax, -16(%rbp)
	movq	-16(%rbp), %rax
	addq	$16, %rsp
	popq	%rbp
	retq
	.cfi_endproc

	.p2align	4, 0x90
__ZN4core3ptr9const_ptr33_$LT$impl$u20$$BP$const$u20$T$GT$6offset17h8f44bd88b80f6c26E:
	.cfi_startproc
	pushq	%rbp
	.cfi_def_cfa_offset 16
	.cfi_offset %rbp, -16
	movq	%rsp, %rbp
	.cfi_def_cfa_register %rbp
	subq	$16, %rsp
	shlq	$3, %rsi
	addq	%rsi, %rdi
	movq	%rdi, -8(%rbp)
	movq	-8(%rbp), %rax
	movq	%rax, -16(%rbp)
	movq	-16(%rbp), %rax
	addq	$16, %rsp
	popq	%rbp
	retq
	.cfi_endproc

	.p2align	4, 0x90
__ZN4core3ptr9const_ptr33_$LT$impl$u20$$BP$const$u20$T$GT$6offset17hf79f338e58966fc8E:
	.cfi_startproc
	pushq	%rbp
	.cfi_def_cfa_offset 16
	.cfi_offset %rbp, -16
	movq	%rsp, %rbp
	.cfi_def_cfa_register %rbp
	subq	$16, %rsp
	imulq	$24, %rsi, %rax
	addq	%rax, %rdi
	movq	%rdi, -8(%rbp)
	movq	-8(%rbp), %rax
	movq	%rax, -16(%rbp)
	movq	-16(%rbp), %rax
	addq	$16, %rsp
	popq	%rbp
	retq
	.cfi_endproc

	.p2align	4, 0x90
__ZN4core3ptr9const_ptr43_$LT$impl$u20$$BP$const$u20$$u5b$T$u5d$$GT$6as_ptr17h04de7005884f4f1dE:
	.cfi_startproc
	pushq	%rbp
	.cfi_def_cfa_offset 16
	.cfi_offset %rbp, -16
	movq	%rsp, %rbp
	.cfi_def_cfa_register %rbp
	movq	%rdi, %rax
	popq	%rbp
	retq
	.cfi_endproc

	.p2align	4, 0x90
__ZN4core3ptr9const_ptr43_$LT$impl$u20$$BP$const$u20$$u5b$T$u5d$$GT$6as_ptr17h15934bd12d08b1b1E:
	.cfi_startproc
	pushq	%rbp
	.cfi_def_cfa_offset 16
	.cfi_offset %rbp, -16
	movq	%rsp, %rbp
	.cfi_def_cfa_register %rbp
	movq	%rdi, %rax
	popq	%rbp
	retq
	.cfi_endproc

	.p2align	4, 0x90
__ZN4core3ptr9const_ptr43_$LT$impl$u20$$BP$const$u20$$u5b$T$u5d$$GT$6as_ptr17h4e6633be42a31775E:
	.cfi_startproc
	pushq	%rbp
	.cfi_def_cfa_offset 16
	.cfi_offset %rbp, -16
	movq	%rsp, %rbp
	.cfi_def_cfa_register %rbp
	movq	%rdi, %rax
	popq	%rbp
	retq
	.cfi_endproc

	.p2align	4, 0x90
__ZN4core3ptr9const_ptr43_$LT$impl$u20$$BP$const$u20$$u5b$T$u5d$$GT$6as_ptr17h914315eba61b496fE:
	.cfi_startproc
	pushq	%rbp
	.cfi_def_cfa_offset 16
	.cfi_offset %rbp, -16
	movq	%rsp, %rbp
	.cfi_def_cfa_register %rbp
	movq	%rdi, %rax
	popq	%rbp
	retq
	.cfi_endproc

	.p2align	4, 0x90
__ZN4core3str19from_utf8_unchecked17h56eaa99efba7adf0E:
	.cfi_startproc
	pushq	%rbp
	.cfi_def_cfa_offset 16
	.cfi_offset %rbp, -16
	movq	%rsp, %rbp
	.cfi_def_cfa_register %rbp
	movq	%rdi, %rax
	movq	%rsi, %rdx
	popq	%rbp
	retq
	.cfi_endproc

	.p2align	4, 0x90
__ZN4core3str21_$LT$impl$u20$str$GT$11starts_with17h144944aade03ce9bE:
	.cfi_startproc
	pushq	%rbp
	.cfi_def_cfa_offset 16
	.cfi_offset %rbp, -16
	movq	%rsp, %rbp
	.cfi_def_cfa_register %rbp
	subq	$32, %rsp
	movq	%rdi, -8(%rbp)
	movq	%rdx, %rdi
	movq	%rsi, -16(%rbp)
	movq	%rcx, %rsi
	movq	-8(%rbp), %rdx
	movq	-16(%rbp), %rcx
	callq	__ZN55_$LT$$RF$str$u20$as$u20$core..str..pattern..Pattern$GT$12is_prefix_of17hecac73ab8c1da16fE
	movb	%al, -17(%rbp)
	movb	-17(%rbp), %al
	andb	$1, %al
	movzbl	%al, %eax
	addq	$32, %rsp
	popq	%rbp
	retq
	.cfi_endproc

	.p2align	4, 0x90
__ZN4core3str21_$LT$impl$u20$str$GT$13get_unchecked17h9ceb7b16595c695dE:
	.cfi_startproc
	pushq	%rbp
	.cfi_def_cfa_offset 16
	.cfi_offset %rbp, -16
	movq	%rsp, %rbp
	.cfi_def_cfa_register %rbp
	subq	$32, %rsp
	movq	%rdi, -8(%rbp)
	movq	%rdx, %rdi
	movq	%rsi, -16(%rbp)
	movq	%rcx, %rsi
	movq	-8(%rbp), %rdx
	movq	-16(%rbp), %rcx
	callq	__ZN4core3str6traits101_$LT$impl$u20$core..slice..SliceIndex$LT$str$GT$$u20$for$u20$core..ops..range..Range$LT$usize$GT$$GT$13get_unchecked17ha4ef68a5e9fbd8b8E
	movq	%rax, -24(%rbp)
	movq	%rdx, -32(%rbp)
	movq	-24(%rbp), %rax
	movq	-32(%rbp), %rdx
	addq	$32, %rsp
	popq	%rbp
	retq
	.cfi_endproc

	.p2align	4, 0x90
__ZN4core3str21_$LT$impl$u20$str$GT$3len17h2234f0a0515501d1E:
	.cfi_startproc
	pushq	%rbp
	.cfi_def_cfa_offset 16
	.cfi_offset %rbp, -16
	movq	%rsp, %rbp
	.cfi_def_cfa_register %rbp
	subq	$48, %rsp
	movq	%rdi, -16(%rbp)
	movq	%rsi, -8(%rbp)
	movq	-16(%rbp), %rdi
	movq	-8(%rbp), %rsi
	movq	%rdi, -24(%rbp)
	movq	%rsi, -32(%rbp)
	movq	-24(%rbp), %rdi
	movq	-32(%rbp), %rsi
	callq	__ZN4core5slice29_$LT$impl$u20$$u5b$T$u5d$$GT$3len17h7ca0c9a821dd2de7E
	movq	%rax, -40(%rbp)
	movq	-40(%rbp), %rax
	addq	$48, %rsp
	popq	%rbp
	retq
	.cfi_endproc

	.p2align	4, 0x90
__ZN4core3str21_$LT$impl$u20$str$GT$5parse17h66993a3b44c43e6aE:
	.cfi_startproc
	pushq	%rbp
	.cfi_def_cfa_offset 16
	.cfi_offset %rbp, -16
	movq	%rsp, %rbp
	.cfi_def_cfa_register %rbp
	subq	$16, %rsp
	callq	__ZN4core3num52_$LT$impl$u20$core..str..FromStr$u20$for$u20$u32$GT$8from_str17h7755800c3765c881E
	movq	%rax, -8(%rbp)
	movq	-8(%rbp), %rax
	movq	%rax, -16(%rbp)
	movq	-16(%rbp), %rax
	addq	$16, %rsp
	popq	%rbp
	retq
	.cfi_endproc

	.p2align	4, 0x90
__ZN4core3str21_$LT$impl$u20$str$GT$5split17h940f97ec6b96e2faE:
Lfunc_begin25:
	.cfi_startproc
	.cfi_personality 155, _rust_eh_personality
	.cfi_lsda 16, Lexception25
	pushq	%rbp
	.cfi_def_cfa_offset 16
	.cfi_offset %rbp, -16
	movq	%rsp, %rbp
	.cfi_def_cfa_register %rbp
	subq	$208, %rsp
	movq	%rdi, %rax
	movb	$0, -17(%rbp)
	movb	$1, -17(%rbp)
Ltmp121:
	movq	%rdi, -152(%rbp)
	movq	%rsi, %rdi
	movq	%rsi, -160(%rbp)
	movq	%rdx, %rsi
	movl	%ecx, -164(%rbp)
	movq	%rdx, -176(%rbp)
	movq	%rax, -184(%rbp)
	callq	__ZN4core3str21_$LT$impl$u20$str$GT$3len17h2234f0a0515501d1E
Ltmp122:
	movq	%rax, -192(%rbp)
	jmp	LBB189_2
LBB189_1:
	movq	-16(%rbp), %rdi
	callq	__Unwind_Resume
	ud2
LBB189_2:
	movb	$0, -17(%rbp)
Ltmp123:
	leaq	-72(%rbp), %rdi
	movl	-164(%rbp), %esi
	movq	-160(%rbp), %rdx
	movq	-176(%rbp), %rcx
	callq	__ZN52_$LT$char$u20$as$u20$core..str..pattern..Pattern$GT$13into_searcher17h24e591bcc49aa7f0E
Ltmp124:
	jmp	LBB189_3
LBB189_3:
	movq	$0, -144(%rbp)
	movq	-192(%rbp), %rax
	movq	%rax, -136(%rbp)
	leaq	-144(%rbp), %rcx
	movq	%rcx, %rdx
	addq	$16, %rdx
	leaq	-72(%rbp), %rsi
	movq	%rdx, %rdi
	movl	$48, %edx
	movq	%rcx, -200(%rbp)
	callq	_memcpy
	movb	$1, -80(%rbp)
	movb	$0, -79(%rbp)
	movq	-152(%rbp), %rax
	movq	-200(%rbp), %rcx
	movq	%rax, %rdi
	movq	%rcx, %rsi
	movl	$72, %edx
	callq	_memcpy
	movq	-184(%rbp), %rax
	addq	$208, %rsp
	popq	%rbp
	retq
LBB189_4:
	movb	$0, -17(%rbp)
	jmp	LBB189_1
LBB189_5:
	testb	$1, -17(%rbp)
	jne	LBB189_4
	jmp	LBB189_1
LBB189_6:
Ltmp125:
	movq	%rax, -16(%rbp)
	movl	%edx, -8(%rbp)
	jmp	LBB189_5
Lfunc_end25:
	.cfi_endproc
	.section	__TEXT,__gcc_except_tab
	.p2align	2
GCC_except_table189:
Lexception25:
	.byte	255
	.byte	255
	.byte	1
	.uleb128 Lcst_end25-Lcst_begin25
Lcst_begin25:
	.uleb128 Ltmp121-Lfunc_begin25
	.uleb128 Ltmp122-Ltmp121
	.uleb128 Ltmp125-Lfunc_begin25
	.byte	0
	.uleb128 Ltmp122-Lfunc_begin25
	.uleb128 Ltmp123-Ltmp122
	.byte	0
	.byte	0
	.uleb128 Ltmp123-Lfunc_begin25
	.uleb128 Ltmp124-Ltmp123
	.uleb128 Ltmp125-Lfunc_begin25
	.byte	0
	.uleb128 Ltmp124-Lfunc_begin25
	.uleb128 Lfunc_end25-Ltmp124
	.byte	0
	.byte	0
Lcst_end25:
	.p2align	2

	.section	__TEXT,__text,regular,pure_instructions
	.p2align	4, 0x90
__ZN4core3str22SplitInternal$LT$P$GT$4next17he3c5fc985b706a80E:
	.cfi_startproc
	pushq	%rbp
	.cfi_def_cfa_offset 16
	.cfi_offset %rbp, -16
	movq	%rsp, %rbp
	.cfi_def_cfa_register %rbp
	subq	$112, %rsp
	testb	$1, 65(%rdi)
	movq	%rdi, -64(%rbp)
	jne	LBB190_2
	movq	-64(%rbp), %rax
	addq	$16, %rax
	movq	%rax, %rdi
	callq	__ZN81_$LT$core..str..pattern..CharSearcher$u20$as$u20$core..str..pattern..Searcher$GT$8haystack17h31a07d977e09b1bbE
	movq	%rax, -72(%rbp)
	movq	%rdx, -80(%rbp)
	jmp	LBB190_4
LBB190_2:
	movq	$0, -56(%rbp)
LBB190_3:
	movq	-56(%rbp), %rax
	movq	-48(%rbp), %rdx
	addq	$112, %rsp
	popq	%rbp
	retq
LBB190_4:
	movq	-64(%rbp), %rax
	addq	$16, %rax
	leaq	-40(%rbp), %rdi
	movq	%rax, %rsi
	callq	__ZN81_$LT$core..str..pattern..CharSearcher$u20$as$u20$core..str..pattern..Searcher$GT$10next_match17h1faad8d2b524f709E
	movq	-40(%rbp), %rax
	testq	%rax, %rax
	je	LBB190_6
	jmp	LBB190_12
LBB190_12:
	jmp	LBB190_8
LBB190_6:
	movq	-64(%rbp), %rdi
	callq	__ZN4core3str22SplitInternal$LT$P$GT$7get_end17hc7a96a9fbe7aebd8E
	movq	%rdx, -48(%rbp)
	movq	%rax, -56(%rbp)
	jmp	LBB190_10
	ud2
LBB190_8:
	movq	-32(%rbp), %rax
	movq	-24(%rbp), %rcx
	movq	-64(%rbp), %rdx
	movq	(%rdx), %rsi
	movq	%rsi, -16(%rbp)
	movq	%rax, -8(%rbp)
	movq	-16(%rbp), %rdx
	movq	-8(%rbp), %rax
	movq	-72(%rbp), %rdi
	movq	-80(%rbp), %rsi
	movq	%rcx, -88(%rbp)
	movq	%rax, %rcx
	callq	__ZN4core3str21_$LT$impl$u20$str$GT$13get_unchecked17h9ceb7b16595c695dE
	movq	%rax, -96(%rbp)
	movq	%rdx, -104(%rbp)
	movq	-64(%rbp), %rax
	movq	-88(%rbp), %rcx
	movq	%rcx, (%rax)
	movq	-96(%rbp), %rdx
	movq	%rdx, -56(%rbp)
	movq	-104(%rbp), %rsi
	movq	%rsi, -48(%rbp)
	jmp	LBB190_11
LBB190_10:
	jmp	LBB190_11
LBB190_11:
	jmp	LBB190_3
	.cfi_endproc

	.p2align	4, 0x90
__ZN4core3str22SplitInternal$LT$P$GT$7get_end17hc7a96a9fbe7aebd8E:
	.cfi_startproc
	pushq	%rbp
	.cfi_def_cfa_offset 16
	.cfi_offset %rbp, -16
	movq	%rsp, %rbp
	.cfi_def_cfa_register %rbp
	subq	$80, %rsp
	movb	65(%rdi), %al
	xorb	$-1, %al
	testb	$1, %al
	movq	%rdi, -48(%rbp)
	jne	LBB191_3
	jmp	LBB191_2
LBB191_1:
	movb	$1, -18(%rbp)
	jmp	LBB191_4
LBB191_2:
	movb	$0, -18(%rbp)
	jmp	LBB191_4
LBB191_3:
	movq	-48(%rbp), %rax
	testb	$1, 64(%rax)
	jne	LBB191_5
	jmp	LBB191_7
LBB191_4:
	testb	$1, -18(%rbp)
	jne	LBB191_10
	jmp	LBB191_9
LBB191_5:
	movb	$1, -17(%rbp)
	jmp	LBB191_8
LBB191_6:
	movb	$0, -17(%rbp)
	jmp	LBB191_8
LBB191_7:
	movq	-48(%rbp), %rax
	movq	8(%rax), %rcx
	subq	(%rax), %rcx
	cmpq	$0, %rcx
	ja	LBB191_5
	jmp	LBB191_6
LBB191_8:
	testb	$1, -17(%rbp)
	jne	LBB191_1
	jmp	LBB191_2
LBB191_9:
	movq	$0, -40(%rbp)
	jmp	LBB191_13
LBB191_10:
	movq	-48(%rbp), %rax
	movb	$1, 65(%rax)
	addq	$16, %rax
	movq	%rax, %rdi
	callq	__ZN81_$LT$core..str..pattern..CharSearcher$u20$as$u20$core..str..pattern..Searcher$GT$8haystack17h31a07d977e09b1bbE
	movq	%rax, -56(%rbp)
	movq	%rdx, -64(%rbp)
	movq	-48(%rbp), %rax
	movq	(%rax), %rcx
	movq	8(%rax), %rdx
	movq	%rcx, -16(%rbp)
	movq	%rdx, -8(%rbp)
	movq	-16(%rbp), %rdx
	movq	-8(%rbp), %rcx
	movq	-56(%rbp), %rdi
	movq	-64(%rbp), %rsi
	callq	__ZN4core3str21_$LT$impl$u20$str$GT$13get_unchecked17h9ceb7b16595c695dE
	movq	%rax, -72(%rbp)
	movq	%rdx, -80(%rbp)
	movq	-72(%rbp), %rax
	movq	%rax, -40(%rbp)
	movq	-80(%rbp), %rcx
	movq	%rcx, -32(%rbp)
LBB191_13:
	movq	-40(%rbp), %rax
	movq	-32(%rbp), %rdx
	addq	$80, %rsp
	popq	%rbp
	retq
	.cfi_endproc

	.p2align	4, 0x90
__ZN4core3str23from_utf8_unchecked_mut17hdc31ae8b9b041fe2E:
	.cfi_startproc
	pushq	%rbp
	.cfi_def_cfa_offset 16
	.cfi_offset %rbp, -16
	movq	%rsp, %rbp
	.cfi_def_cfa_register %rbp
	movq	%rdi, %rax
	movq	%rsi, %rdx
	popq	%rbp
	retq
	.cfi_endproc

	.p2align	4, 0x90
__ZN4core3str6traits101_$LT$impl$u20$core..slice..SliceIndex$LT$str$GT$$u20$for$u20$core..ops..range..Range$LT$usize$GT$$GT$13get_unchecked17ha4ef68a5e9fbd8b8E:
	.cfi_startproc
	pushq	%rbp
	.cfi_def_cfa_offset 16
	.cfi_offset %rbp, -16
	movq	%rsp, %rbp
	.cfi_def_cfa_register %rbp
	subq	$48, %rsp
	movq	%rdi, -8(%rbp)
	movq	%rdx, %rdi
	movq	%rsi, -16(%rbp)
	movq	%rcx, %rsi
	callq	__ZN4core3ptr9const_ptr43_$LT$impl$u20$$BP$const$u20$$u5b$T$u5d$$GT$6as_ptr17h4e6633be42a31775E
	movq	%rax, -24(%rbp)
	movq	-24(%rbp), %rdi
	movq	-8(%rbp), %rsi
	callq	__ZN4core3ptr9const_ptr33_$LT$impl$u20$$BP$const$u20$T$GT$3add17h6f754760bdec89abE
	movq	%rax, -32(%rbp)
	movq	-16(%rbp), %rax
	movq	-8(%rbp), %rcx
	subq	%rcx, %rax
	movq	-32(%rbp), %rdi
	movq	%rax, %rsi
	callq	__ZN4core3ptr20slice_from_raw_parts17h036f656c84bd604dE
	movq	%rax, -40(%rbp)
	movq	%rdx, -48(%rbp)
	movq	-40(%rbp), %rax
	movq	-48(%rbp), %rdx
	addq	$48, %rsp
	popq	%rbp
	retq
	.cfi_endproc

	.p2align	4, 0x90
__ZN4core3str6traits54_$LT$impl$u20$core..cmp..PartialEq$u20$for$u20$str$GT$2eq17hd5bac6c8f72073a4E:
	.cfi_startproc
	pushq	%rbp
	.cfi_def_cfa_offset 16
	.cfi_offset %rbp, -16
	movq	%rsp, %rbp
	.cfi_def_cfa_register %rbp
	subq	$96, %rsp
	movq	%rdi, -32(%rbp)
	movq	%rsi, -24(%rbp)
	movq	-32(%rbp), %rax
	movq	-24(%rbp), %rsi
	movq	%rsi, -56(%rbp)
	movq	%rax, -64(%rbp)
	movq	%rdx, -72(%rbp)
	movq	%rcx, -80(%rbp)
	movq	-72(%rbp), %rax
	movq	%rax, -16(%rbp)
	movq	-80(%rbp), %rcx
	movq	%rcx, -8(%rbp)
	movq	-16(%rbp), %rdx
	movq	-8(%rbp), %rsi
	movq	%rsi, -40(%rbp)
	movq	%rdx, -48(%rbp)
	leaq	-64(%rbp), %rdi
	leaq	-48(%rbp), %rsi
	callq	__ZN4core3cmp5impls69_$LT$impl$u20$core..cmp..PartialEq$LT$$RF$B$GT$$u20$for$u20$$RF$A$GT$2eq17h2af3cf9135cb9a13E
	movb	%al, -81(%rbp)
	movb	-81(%rbp), %al
	andb	$1, %al
	movzbl	%al, %eax
	addq	$96, %rsp
	popq	%rbp
	retq
	.cfi_endproc

	.p2align	4, 0x90
__ZN4core3str6traits54_$LT$impl$u20$core..cmp..PartialEq$u20$for$u20$str$GT$2ne17h156746777fd3f005E:
	.cfi_startproc
	pushq	%rbp
	.cfi_def_cfa_offset 16
	.cfi_offset %rbp, -16
	movq	%rsp, %rbp
	.cfi_def_cfa_register %rbp
	subq	$16, %rsp
	callq	__ZN4core3str6traits54_$LT$impl$u20$core..cmp..PartialEq$u20$for$u20$str$GT$2eq17hd5bac6c8f72073a4E
	movb	%al, -1(%rbp)
	movb	-1(%rbp), %al
	xorb	$-1, %al
	andb	$1, %al
	movzbl	%al, %eax
	addq	$16, %rsp
	popq	%rbp
	retq
	.cfi_endproc

	.p2align	4, 0x90
__ZN4core4char7methods15encode_utf8_raw17h2677d557195272a8E:
	.cfi_startproc
	pushq	%rbp
	.cfi_def_cfa_offset 16
	.cfi_offset %rbp, -16
	movq	%rsp, %rbp
	.cfi_def_cfa_register %rbp
	subq	$320, %rsp
	movl	%edi, -172(%rbp)
	movl	-172(%rbp), %edi
	movq	%rsi, -184(%rbp)
	movq	%rdx, -192(%rbp)
	callq	__ZN4core4char7methods8len_utf817h7d0877c5660c203cE
	movq	%rax, -168(%rbp)
	leaq	l___unnamed_4(%rip), %rax
	movq	-168(%rbp), %rcx
	movq	-184(%rbp), %rdi
	movq	-192(%rbp), %rsi
	movq	%rax, %rdx
	movq	%rcx, -200(%rbp)
	callq	__ZN4core5slice77_$LT$impl$u20$core..ops..index..IndexMut$LT$I$GT$$u20$for$u20$$u5b$T$u5d$$GT$9index_mut17h17f4cbd6baac53eaE
	movq	%rax, -208(%rbp)
	movq	%rdx, -216(%rbp)
	movq	-200(%rbp), %rax
	movq	%rax, -160(%rbp)
	movq	-208(%rbp), %rcx
	movq	%rcx, -152(%rbp)
	movq	-216(%rbp), %rdx
	movq	%rdx, -144(%rbp)
	movq	-160(%rbp), %rsi
	decq	%rsi
	movq	%rsi, %rdi
	subq	$3, %rdi
	movq	%rsi, -224(%rbp)
	ja	LBB196_4
	leaq	LJTI196_0(%rip), %rax
	movq	-224(%rbp), %rcx
	movslq	(%rax,%rcx,4), %rdx
	addq	%rax, %rdx
	jmpq	*%rdx
LBB196_3:
	cmpq	$1, -144(%rbp)
	jae	LBB196_8
LBB196_4:
	movq	l___unnamed_5(%rip), %rax
	movq	-184(%rbp), %rdi
	movq	-192(%rbp), %rsi
	movq	%rax, -232(%rbp)
	callq	__ZN4core5slice29_$LT$impl$u20$$u5b$T$u5d$$GT$3len17h7ca0c9a821dd2de7E
	movq	%rax, -16(%rbp)
	jmp	LBB196_12
LBB196_5:
	cmpq	$2, -144(%rbp)
	jae	LBB196_9
	jmp	LBB196_4
LBB196_6:
	cmpq	$3, -144(%rbp)
	jae	LBB196_10
	jmp	LBB196_4
LBB196_7:
	cmpq	$4, -144(%rbp)
	jae	LBB196_11
	jmp	LBB196_4
LBB196_8:
	movq	-152(%rbp), %rax
	movl	-172(%rbp), %ecx
	movb	%cl, (%rax)
	jmp	LBB196_17
LBB196_9:
	movq	-152(%rbp), %rax
	movq	-152(%rbp), %rcx
	movl	-172(%rbp), %edx
	shrl	$6, %edx
	andl	$31, %edx
	orb	$-64, %dl
	movb	%dl, (%rax)
	movl	-172(%rbp), %esi
	andl	$63, %esi
	orb	$-128, %sil
	movb	%sil, 1(%rcx)
	jmp	LBB196_17
LBB196_10:
	movq	-152(%rbp), %rax
	movq	-152(%rbp), %rcx
	movq	-152(%rbp), %rdx
	movl	-172(%rbp), %esi
	shrl	$12, %esi
	andl	$15, %esi
	orb	$-32, %sil
	movb	%sil, (%rax)
	movl	-172(%rbp), %edi
	shrl	$6, %edi
	andl	$63, %edi
	orb	$-128, %dil
	movb	%dil, 1(%rcx)
	movl	-172(%rbp), %r8d
	andl	$63, %r8d
	orb	$-128, %r8b
	movb	%r8b, 2(%rdx)
	jmp	LBB196_17
LBB196_11:
	movq	-152(%rbp), %rax
	movq	-152(%rbp), %rcx
	movq	-152(%rbp), %rdx
	movq	-152(%rbp), %rsi
	movl	-172(%rbp), %edi
	shrl	$18, %edi
	andl	$7, %edi
	orb	$-16, %dil
	movb	%dil, (%rax)
	movl	-172(%rbp), %r8d
	shrl	$12, %r8d
	andl	$63, %r8d
	orb	$-128, %r8b
	movb	%r8b, 1(%rcx)
	movl	-172(%rbp), %r9d
	shrl	$6, %r9d
	andl	$63, %r9d
	orb	$-128, %r9b
	movb	%r9b, 2(%rdx)
	movl	-172(%rbp), %r10d
	andl	$63, %r10d
	orb	$-128, %r10b
	movb	%r10b, 3(%rsi)
	jmp	LBB196_17
LBB196_12:
	movq	__ZN4core3fmt3num3imp54_$LT$impl$u20$core..fmt..Display$u20$for$u20$usize$GT$3fmt17h12ea2856299c9b06E@GOTPCREL(%rip), %rsi
	leaq	-168(%rbp), %rax
	movq	%rax, -40(%rbp)
	leaq	-172(%rbp), %rax
	movq	%rax, -32(%rbp)
	leaq	-16(%rbp), %rax
	movq	%rax, -24(%rbp)
	movq	-40(%rbp), %rdi
	movq	-32(%rbp), %rax
	movq	-24(%rbp), %rcx
	movq	%rax, -240(%rbp)
	movq	%rcx, -248(%rbp)
	callq	__ZN4core3fmt10ArgumentV13new17h40b03b9a9729d050E
	movq	%rax, -256(%rbp)
	movq	%rdx, -264(%rbp)
	movq	__ZN4core3fmt3num53_$LT$impl$u20$core..fmt..UpperHex$u20$for$u20$u32$GT$3fmt17h7bd10b5f3c9584f1E@GOTPCREL(%rip), %rsi
	movq	-240(%rbp), %rdi
	callq	__ZN4core3fmt10ArgumentV13new17h320b329fbd94913cE
	movq	%rax, -272(%rbp)
	movq	%rdx, -280(%rbp)
	movq	__ZN4core3fmt3num3imp54_$LT$impl$u20$core..fmt..Display$u20$for$u20$usize$GT$3fmt17h12ea2856299c9b06E@GOTPCREL(%rip), %rsi
	movq	-248(%rbp), %rdi
	callq	__ZN4core3fmt10ArgumentV13new17h40b03b9a9729d050E
	movq	%rax, -288(%rbp)
	movq	%rdx, -296(%rbp)
	movq	-256(%rbp), %rax
	movq	%rax, -88(%rbp)
	movq	-264(%rbp), %rcx
	movq	%rcx, -80(%rbp)
	movq	-272(%rbp), %rdx
	movq	%rdx, -72(%rbp)
	movq	-280(%rbp), %rsi
	movq	%rsi, -64(%rbp)
	movq	-288(%rbp), %rdi
	movq	%rdi, -56(%rbp)
	movq	-296(%rbp), %r8
	movq	%r8, -48(%rbp)
	leaq	-88(%rbp), %r9
	leaq	-136(%rbp), %rdi
	movq	-232(%rbp), %rsi
	movl	$3, %r10d
	movq	%r10, %rdx
	movq	%r9, %rcx
	movq	%r10, %r8
	callq	__ZN4core3fmt9Arguments6new_v117h21ac6b13baa6b795E
	leaq	l___unnamed_6(%rip), %rsi
	leaq	-136(%rbp), %rdi
	callq	__ZN4core9panicking9panic_fmt17hfce5b7173905fc53E
LBB196_17:
	leaq	l___unnamed_7(%rip), %rax
	movq	-168(%rbp), %rcx
	movq	%rcx, -8(%rbp)
	movq	-8(%rbp), %rdx
	movq	-184(%rbp), %rdi
	movq	-192(%rbp), %rsi
	movq	%rax, %rcx
	callq	__ZN4core5slice77_$LT$impl$u20$core..ops..index..IndexMut$LT$I$GT$$u20$for$u20$$u5b$T$u5d$$GT$9index_mut17he869c5cd18184852E
	movq	%rax, -304(%rbp)
	movq	%rdx, -312(%rbp)
	movq	-304(%rbp), %rax
	movq	-312(%rbp), %rdx
	addq	$320, %rsp
	popq	%rbp
	retq
	.cfi_endproc
	.p2align	2, 0x90
	.data_region jt32
.set L196_0_set_3, LBB196_3-LJTI196_0
.set L196_0_set_5, LBB196_5-LJTI196_0
.set L196_0_set_6, LBB196_6-LJTI196_0
.set L196_0_set_7, LBB196_7-LJTI196_0
LJTI196_0:
	.long	L196_0_set_3
	.long	L196_0_set_5
	.long	L196_0_set_6
	.long	L196_0_set_7
	.end_data_region

	.p2align	4, 0x90
__ZN4core4char7methods22_$LT$impl$u20$char$GT$11encode_utf817h96525c6df742480eE:
	.cfi_startproc
	pushq	%rbp
	.cfi_def_cfa_offset 16
	.cfi_offset %rbp, -16
	movq	%rsp, %rbp
	.cfi_def_cfa_register %rbp
	subq	$32, %rsp
	callq	__ZN4core4char7methods15encode_utf8_raw17h2677d557195272a8E
	movq	%rax, -8(%rbp)
	movq	%rdx, -16(%rbp)
	movq	-8(%rbp), %rdi
	movq	-16(%rbp), %rsi
	callq	__ZN4core3str23from_utf8_unchecked_mut17hdc31ae8b9b041fe2E
	movq	%rax, -24(%rbp)
	movq	%rdx, -32(%rbp)
	movq	-24(%rbp), %rax
	movq	-32(%rbp), %rdx
	addq	$32, %rsp
	popq	%rbp
	retq
	.cfi_endproc

	.p2align	4, 0x90
__ZN4core4char7methods8len_utf817h7d0877c5660c203cE:
	.cfi_startproc
	pushq	%rbp
	.cfi_def_cfa_offset 16
	.cfi_offset %rbp, -16
	movq	%rsp, %rbp
	.cfi_def_cfa_register %rbp
	subq	$16, %rsp
	cmpl	$128, %edi
	movl	%edi, -12(%rbp)
	jb	LBB198_2
	movl	-12(%rbp), %eax
	cmpl	$2048, %eax
	jb	LBB198_4
	jmp	LBB198_3
LBB198_2:
	movq	$1, -8(%rbp)
	jmp	LBB198_9
LBB198_3:
	movl	-12(%rbp), %eax
	cmpl	$65536, %eax
	jb	LBB198_6
	jmp	LBB198_5
LBB198_4:
	movq	$2, -8(%rbp)
	jmp	LBB198_8
LBB198_5:
	movq	$4, -8(%rbp)
	jmp	LBB198_7
LBB198_6:
	movq	$3, -8(%rbp)
LBB198_7:
	jmp	LBB198_8
LBB198_8:
	jmp	LBB198_9
LBB198_9:
	movq	-8(%rbp), %rax
	addq	$16, %rsp
	popq	%rbp
	retq
	.cfi_endproc

	.p2align	4, 0x90
__ZN4core4iter6traits8iterator8Iterator3nth17hbc392ca8501ff87aE:
	.cfi_startproc
	pushq	%rbp
	.cfi_def_cfa_offset 16
	.cfi_offset %rbp, -16
	movq	%rsp, %rbp
	.cfi_def_cfa_register %rbp
	subq	$80, %rsp
	movq	%rsi, -56(%rbp)
	movq	%rdi, -64(%rbp)
LBB199_1:
	movq	-64(%rbp), %rdi
	callq	__ZN84_$LT$core..str..Split$LT$P$GT$$u20$as$u20$core..iter..traits..iterator..Iterator$GT$4next17h8657228f55de763cE
	movq	%rdx, -24(%rbp)
	movq	%rax, -32(%rbp)
	xorl	%eax, %eax
	movl	%eax, %ecx
	cmpq	$0, -32(%rbp)
	movl	$1, %edx
	cmovbeq	%rcx, %rdx
	cmpq	$1, %rdx
	je	LBB199_4
	jmp	LBB199_9
LBB199_4:
	movq	-32(%rbp), %rax
	movq	-24(%rbp), %rcx
	cmpq	$0, -56(%rbp)
	movq	%rax, -72(%rbp)
	movq	%rcx, -80(%rbp)
	je	LBB199_6
	movq	-56(%rbp), %rax
	subq	$1, %rax
	movq	%rax, -56(%rbp)
	jmp	LBB199_8
LBB199_6:
	movq	-72(%rbp), %rax
	movq	%rax, -48(%rbp)
	movq	-80(%rbp), %rcx
	movq	%rcx, -40(%rbp)
LBB199_7:
	movq	-48(%rbp), %rax
	movq	-40(%rbp), %rdx
	addq	$80, %rsp
	popq	%rbp
	retq
LBB199_8:
	jmp	LBB199_1
LBB199_9:
	movq	$0, -48(%rbp)
	jmp	LBB199_7
	.cfi_endproc

	.p2align	4, 0x90
__ZN4core5alloc6layout10size_align17h20d4f2b7244fadcdE:
	.cfi_startproc
	pushq	%rbp
	.cfi_def_cfa_offset 16
	.cfi_offset %rbp, -16
	movq	%rsp, %rbp
	.cfi_def_cfa_register %rbp
	subq	$48, %rsp
	movq	$544, -16(%rbp)
	movq	-16(%rbp), %rax
	movq	%rax, -40(%rbp)
	movq	$8, -8(%rbp)
	movq	-8(%rbp), %rax
	movq	%rax, -48(%rbp)
	movq	-40(%rbp), %rax
	movq	%rax, -32(%rbp)
	movq	-48(%rbp), %rcx
	movq	%rcx, -24(%rbp)
	movq	-32(%rbp), %rax
	movq	-24(%rbp), %rdx
	addq	$48, %rsp
	popq	%rbp
	retq
	.cfi_endproc

	.p2align	4, 0x90
__ZN4core5alloc6layout10size_align17haf4b3777b29c082fE:
	.cfi_startproc
	pushq	%rbp
	.cfi_def_cfa_offset 16
	.cfi_offset %rbp, -16
	movq	%rsp, %rbp
	.cfi_def_cfa_register %rbp
	subq	$48, %rsp
	movq	$640, -16(%rbp)
	movq	-16(%rbp), %rax
	movq	%rax, -40(%rbp)
	movq	$8, -8(%rbp)
	movq	-8(%rbp), %rax
	movq	%rax, -48(%rbp)
	movq	-40(%rbp), %rax
	movq	%rax, -32(%rbp)
	movq	-48(%rbp), %rcx
	movq	%rcx, -24(%rbp)
	movq	-32(%rbp), %rax
	movq	-24(%rbp), %rdx
	addq	$48, %rsp
	popq	%rbp
	retq
	.cfi_endproc

	.p2align	4, 0x90
__ZN4core5alloc6layout6Layout25from_size_align_unchecked17h465b9801fc2d048dE:
	.cfi_startproc
	pushq	%rbp
	.cfi_def_cfa_offset 16
	.cfi_offset %rbp, -16
	movq	%rsp, %rbp
	.cfi_def_cfa_register %rbp
	subq	$32, %rsp
	movq	%rdi, -24(%rbp)
	movq	%rsi, %rdi
	callq	__ZN4core3num12NonZeroUsize13new_unchecked17h7dc00af74d9b5c65E
	movq	%rax, -32(%rbp)
	movq	-24(%rbp), %rax
	movq	%rax, -16(%rbp)
	movq	-32(%rbp), %rcx
	movq	%rcx, -8(%rbp)
	movq	-16(%rbp), %rax
	movq	-8(%rbp), %rdx
	addq	$32, %rsp
	popq	%rbp
	retq
	.cfi_endproc

	.p2align	4, 0x90
__ZN4core5alloc6layout6Layout3new17h5c70817143d64cbcE:
	.cfi_startproc
	pushq	%rbp
	.cfi_def_cfa_offset 16
	.cfi_offset %rbp, -16
	movq	%rsp, %rbp
	.cfi_def_cfa_register %rbp
	subq	$32, %rsp
	callq	__ZN4core5alloc6layout10size_align17h20d4f2b7244fadcdE
	movq	%rax, -8(%rbp)
	movq	%rdx, -16(%rbp)
	movq	-8(%rbp), %rdi
	movq	-16(%rbp), %rsi
	callq	__ZN4core5alloc6layout6Layout25from_size_align_unchecked17h465b9801fc2d048dE
	movq	%rax, -24(%rbp)
	movq	%rdx, -32(%rbp)
	movq	-24(%rbp), %rax
	movq	-32(%rbp), %rdx
	addq	$32, %rsp
	popq	%rbp
	retq
	.cfi_endproc

	.p2align	4, 0x90
__ZN4core5alloc6layout6Layout3new17hd67d8546e2851f7eE:
	.cfi_startproc
	pushq	%rbp
	.cfi_def_cfa_offset 16
	.cfi_offset %rbp, -16
	movq	%rsp, %rbp
	.cfi_def_cfa_register %rbp
	subq	$32, %rsp
	callq	__ZN4core5alloc6layout10size_align17haf4b3777b29c082fE
	movq	%rax, -8(%rbp)
	movq	%rdx, -16(%rbp)
	movq	-8(%rbp), %rdi
	movq	-16(%rbp), %rsi
	callq	__ZN4core5alloc6layout6Layout25from_size_align_unchecked17h465b9801fc2d048dE
	movq	%rax, -24(%rbp)
	movq	%rdx, -32(%rbp)
	movq	-24(%rbp), %rax
	movq	-32(%rbp), %rdx
	addq	$32, %rsp
	popq	%rbp
	retq
	.cfi_endproc

	.p2align	4, 0x90
__ZN4core5alloc6layout6Layout4size17h24d274f07a571b9dE:
	.cfi_startproc
	pushq	%rbp
	.cfi_def_cfa_offset 16
	.cfi_offset %rbp, -16
	movq	%rsp, %rbp
	.cfi_def_cfa_register %rbp
	movq	(%rdi), %rax
	popq	%rbp
	retq
	.cfi_endproc

	.p2align	4, 0x90
__ZN4core5alloc6layout6Layout5align17h0d1820c948aa7b89E:
	.cfi_startproc
	pushq	%rbp
	.cfi_def_cfa_offset 16
	.cfi_offset %rbp, -16
	movq	%rsp, %rbp
	.cfi_def_cfa_register %rbp
	subq	$16, %rsp
	movq	8(%rdi), %rdi
	callq	__ZN4core3num12NonZeroUsize3get17h0feddfd397a747d5E
	movq	%rax, -8(%rbp)
	movq	-8(%rbp), %rax
	addq	$16, %rsp
	popq	%rbp
	retq
	.cfi_endproc

	.p2align	4, 0x90
__ZN4core5alloc6layout6Layout8dangling17h2faed12fac97efcdE:
	.cfi_startproc
	pushq	%rbp
	.cfi_def_cfa_offset 16
	.cfi_offset %rbp, -16
	movq	%rsp, %rbp
	.cfi_def_cfa_register %rbp
	subq	$16, %rsp
	callq	__ZN4core5alloc6layout6Layout5align17h0d1820c948aa7b89E
	movq	%rax, -8(%rbp)
	movq	-8(%rbp), %rdi
	callq	__ZN4core3ptr8non_null16NonNull$LT$T$GT$13new_unchecked17hfc051782ff11e254E
	movq	%rax, -16(%rbp)
	movq	-16(%rbp), %rax
	addq	$16, %rsp
	popq	%rbp
	retq
	.cfi_endproc

	.p2align	4, 0x90
__ZN4core5slice14from_raw_parts17h20d7dcfb9a46a9b1E:
	.cfi_startproc
	pushq	%rbp
	.cfi_def_cfa_offset 16
	.cfi_offset %rbp, -16
	movq	%rsp, %rbp
	.cfi_def_cfa_register %rbp
	subq	$16, %rsp
	callq	__ZN4core3ptr20slice_from_raw_parts17h1e168d4dc43f4d46E
	movq	%rax, -8(%rbp)
	movq	%rdx, -16(%rbp)
	movq	-8(%rbp), %rax
	movq	-16(%rbp), %rdx
	addq	$16, %rsp
	popq	%rbp
	retq
	.cfi_endproc

	.p2align	4, 0x90
__ZN4core5slice14from_raw_parts17h55973811e9051df4E:
	.cfi_startproc
	pushq	%rbp
	.cfi_def_cfa_offset 16
	.cfi_offset %rbp, -16
	movq	%rsp, %rbp
	.cfi_def_cfa_register %rbp
	subq	$16, %rsp
	callq	__ZN4core3ptr20slice_from_raw_parts17h036f656c84bd604dE
	movq	%rax, -8(%rbp)
	movq	%rdx, -16(%rbp)
	movq	-8(%rbp), %rax
	movq	-16(%rbp), %rdx
	addq	$16, %rsp
	popq	%rbp
	retq
	.cfi_endproc

	.p2align	4, 0x90
__ZN4core5slice14from_raw_parts17he07f11acc2355a38E:
	.cfi_startproc
	pushq	%rbp
	.cfi_def_cfa_offset 16
	.cfi_offset %rbp, -16
	movq	%rsp, %rbp
	.cfi_def_cfa_register %rbp
	subq	$16, %rsp
	callq	__ZN4core3ptr20slice_from_raw_parts17hebb8ba7ea2db10b0E
	movq	%rax, -8(%rbp)
	movq	%rdx, -16(%rbp)
	movq	-8(%rbp), %rax
	movq	-16(%rbp), %rdx
	addq	$16, %rsp
	popq	%rbp
	retq
	.cfi_endproc

	.p2align	4, 0x90
__ZN4core5slice29_$LT$impl$u20$$u5b$T$u5d$$GT$11starts_with17h8297af70c6c4c14cE:
	.cfi_startproc
	pushq	%rbp
	.cfi_def_cfa_offset 16
	.cfi_offset %rbp, -16
	movq	%rsp, %rbp
	.cfi_def_cfa_register %rbp
	subq	$112, %rsp
	movq	%rdx, -48(%rbp)
	movq	%rcx, -40(%rbp)
	movq	-48(%rbp), %rax
	movq	-40(%rbp), %rcx
	movq	%rdi, -56(%rbp)
	movq	%rax, %rdi
	movq	%rsi, -64(%rbp)
	movq	%rcx, %rsi
	callq	__ZN4core5slice29_$LT$impl$u20$$u5b$T$u5d$$GT$3len17h7ca0c9a821dd2de7E
	movq	%rax, -72(%rbp)
	movq	-56(%rbp), %rdi
	movq	-64(%rbp), %rsi
	callq	__ZN4core5slice29_$LT$impl$u20$$u5b$T$u5d$$GT$3len17h7ca0c9a821dd2de7E
	movq	%rax, -80(%rbp)
	jmp	LBB211_6
LBB211_2:
	movb	$1, -25(%rbp)
	jmp	LBB211_5
LBB211_3:
	movb	$0, -25(%rbp)
	jmp	LBB211_5
LBB211_4:
	leaq	l___unnamed_8(%rip), %rax
	movq	-72(%rbp), %rcx
	movq	%rcx, -8(%rbp)
	movq	-8(%rbp), %rdx
	movq	-56(%rbp), %rdi
	movq	-64(%rbp), %rsi
	movq	%rax, %rcx
	callq	__ZN4core5slice74_$LT$impl$u20$core..ops..index..Index$LT$I$GT$$u20$for$u20$$u5b$T$u5d$$GT$5index17h498a6a715d665c25E
	movq	%rax, -88(%rbp)
	movq	%rdx, -96(%rbp)
	jmp	LBB211_7
LBB211_5:
	movb	-25(%rbp), %al
	andb	$1, %al
	movzbl	%al, %eax
	addq	$112, %rsp
	popq	%rbp
	retq
LBB211_6:
	movq	-80(%rbp), %rax
	movq	-72(%rbp), %rcx
	cmpq	%rcx, %rax
	jae	LBB211_4
	jmp	LBB211_3
LBB211_7:
	movq	-88(%rbp), %rax
	movq	%rax, -24(%rbp)
	movq	-96(%rbp), %rcx
	movq	%rcx, -16(%rbp)
	leaq	-48(%rbp), %rdi
	leaq	-24(%rbp), %rsi
	callq	__ZN4core3cmp5impls69_$LT$impl$u20$core..cmp..PartialEq$LT$$RF$B$GT$$u20$for$u20$$RF$A$GT$2eq17h2af3cf9135cb9a13E
	movb	%al, -97(%rbp)
	movb	-97(%rbp), %al
	testb	$1, %al
	jne	LBB211_2
	jmp	LBB211_3
	.cfi_endproc

	.p2align	4, 0x90
__ZN4core5slice29_$LT$impl$u20$$u5b$T$u5d$$GT$13get_unchecked17h30d3d05ac767cffaE:
	.cfi_startproc
	pushq	%rbp
	.cfi_def_cfa_offset 16
	.cfi_offset %rbp, -16
	movq	%rsp, %rbp
	.cfi_def_cfa_register %rbp
	subq	$32, %rsp
	movq	%rdi, -8(%rbp)
	movq	%rdx, %rdi
	movq	-8(%rbp), %rax
	movq	%rsi, -16(%rbp)
	movq	%rax, %rsi
	movq	-16(%rbp), %rdx
	callq	__ZN68_$LT$usize$u20$as$u20$core..slice..SliceIndex$LT$$u5b$T$u5d$$GT$$GT$13get_unchecked17hf3c928e13cdd0f5aE
	movq	%rax, -24(%rbp)
	movq	-24(%rbp), %rax
	addq	$32, %rsp
	popq	%rbp
	retq
	.cfi_endproc

	.p2align	4, 0x90
__ZN4core5slice29_$LT$impl$u20$$u5b$T$u5d$$GT$13get_unchecked17h374a78c2c63cebc4E:
	.cfi_startproc
	pushq	%rbp
	.cfi_def_cfa_offset 16
	.cfi_offset %rbp, -16
	movq	%rsp, %rbp
	.cfi_def_cfa_register %rbp
	subq	$32, %rsp
	movq	%rdi, -8(%rbp)
	movq	%rdx, %rdi
	movq	-8(%rbp), %rax
	movq	%rsi, -16(%rbp)
	movq	%rax, %rsi
	movq	-16(%rbp), %rdx
	callq	__ZN68_$LT$usize$u20$as$u20$core..slice..SliceIndex$LT$$u5b$T$u5d$$GT$$GT$13get_unchecked17he912d3eff741aca8E
	movq	%rax, -24(%rbp)
	movq	-24(%rbp), %rax
	addq	$32, %rsp
	popq	%rbp
	retq
	.cfi_endproc

	.p2align	4, 0x90
__ZN4core5slice29_$LT$impl$u20$$u5b$T$u5d$$GT$13get_unchecked17h7ab2fc7e42a25e3cE:
	.cfi_startproc
	pushq	%rbp
	.cfi_def_cfa_offset 16
	.cfi_offset %rbp, -16
	movq	%rsp, %rbp
	.cfi_def_cfa_register %rbp
	subq	$32, %rsp
	movq	%rdi, -8(%rbp)
	movq	%rdx, %rdi
	movq	-8(%rbp), %rax
	movq	%rsi, -16(%rbp)
	movq	%rax, %rsi
	movq	-16(%rbp), %rdx
	callq	__ZN68_$LT$usize$u20$as$u20$core..slice..SliceIndex$LT$$u5b$T$u5d$$GT$$GT$13get_unchecked17h5721d7b7320362f8E
	movq	%rax, -24(%rbp)
	movq	-24(%rbp), %rax
	addq	$32, %rsp
	popq	%rbp
	retq
	.cfi_endproc

	.p2align	4, 0x90
__ZN4core5slice29_$LT$impl$u20$$u5b$T$u5d$$GT$13get_unchecked17hb127cb5ca25e4770E:
	.cfi_startproc
	pushq	%rbp
	.cfi_def_cfa_offset 16
	.cfi_offset %rbp, -16
	movq	%rsp, %rbp
	.cfi_def_cfa_register %rbp
	subq	$32, %rsp
	movq	%rdi, -8(%rbp)
	movq	%rdx, %rdi
	movq	-8(%rbp), %rax
	movq	%rsi, -16(%rbp)
	movq	%rax, %rsi
	movq	-16(%rbp), %rdx
	callq	__ZN68_$LT$usize$u20$as$u20$core..slice..SliceIndex$LT$$u5b$T$u5d$$GT$$GT$13get_unchecked17hebd9919234c1d068E
	movq	%rax, -24(%rbp)
	movq	-24(%rbp), %rax
	addq	$32, %rsp
	popq	%rbp
	retq
	.cfi_endproc

	.p2align	4, 0x90
__ZN4core5slice29_$LT$impl$u20$$u5b$T$u5d$$GT$17get_unchecked_mut17h728a24140b7a709dE:
	.cfi_startproc
	pushq	%rbp
	.cfi_def_cfa_offset 16
	.cfi_offset %rbp, -16
	movq	%rsp, %rbp
	.cfi_def_cfa_register %rbp
	subq	$32, %rsp
	movq	%rdi, -8(%rbp)
	movq	%rdx, %rdi
	movq	-8(%rbp), %rax
	movq	%rsi, -16(%rbp)
	movq	%rax, %rsi
	movq	-16(%rbp), %rdx
	callq	__ZN68_$LT$usize$u20$as$u20$core..slice..SliceIndex$LT$$u5b$T$u5d$$GT$$GT$17get_unchecked_mut17hae9d37bd15df0ecaE
	movq	%rax, -24(%rbp)
	movq	-24(%rbp), %rax
	addq	$32, %rsp
	popq	%rbp
	retq
	.cfi_endproc

	.p2align	4, 0x90
__ZN4core5slice29_$LT$impl$u20$$u5b$T$u5d$$GT$3get17h65aecd6dcced4b59E:
	.cfi_startproc
	pushq	%rbp
	.cfi_def_cfa_offset 16
	.cfi_offset %rbp, -16
	movq	%rsp, %rbp
	.cfi_def_cfa_register %rbp
	subq	$32, %rsp
	movq	%rdi, -8(%rbp)
	movq	%rdx, %rdi
	movq	%rsi, -16(%rbp)
	movq	%rcx, %rsi
	movq	-8(%rbp), %rdx
	movq	-16(%rbp), %rcx
	callq	__ZN99_$LT$core..ops..range..Range$LT$usize$GT$$u20$as$u20$core..slice..SliceIndex$LT$$u5b$T$u5d$$GT$$GT$3get17h328b3af6bd5de127E
	movq	%rax, -24(%rbp)
	movq	%rdx, -32(%rbp)
	movq	-24(%rbp), %rax
	movq	-32(%rbp), %rdx
	addq	$32, %rsp
	popq	%rbp
	retq
	.cfi_endproc

	.p2align	4, 0x90
__ZN4core5slice29_$LT$impl$u20$$u5b$T$u5d$$GT$3len17h7ca0c9a821dd2de7E:
	.cfi_startproc
	pushq	%rbp
	.cfi_def_cfa_offset 16
	.cfi_offset %rbp, -16
	movq	%rsp, %rbp
	.cfi_def_cfa_register %rbp
	subq	$16, %rsp
	movq	%rdi, -16(%rbp)
	movq	%rsi, -8(%rbp)
	movq	-8(%rbp), %rax
	addq	$16, %rsp
	popq	%rbp
	retq
	.cfi_endproc

	.p2align	4, 0x90
__ZN4core5slice29_$LT$impl$u20$$u5b$T$u5d$$GT$6as_ptr17h8ad3b77aae418736E:
	.cfi_startproc
	pushq	%rbp
	.cfi_def_cfa_offset 16
	.cfi_offset %rbp, -16
	movq	%rsp, %rbp
	.cfi_def_cfa_register %rbp
	movq	%rdi, %rax
	popq	%rbp
	retq
	.cfi_endproc

	.p2align	4, 0x90
__ZN4core5slice74_$LT$impl$u20$core..ops..index..Index$LT$I$GT$$u20$for$u20$$u5b$T$u5d$$GT$5index17h498a6a715d665c25E:
	.cfi_startproc
	pushq	%rbp
	.cfi_def_cfa_offset 16
	.cfi_offset %rbp, -16
	movq	%rsp, %rbp
	.cfi_def_cfa_register %rbp
	subq	$32, %rsp
	movq	%rdi, -8(%rbp)
	movq	%rdx, %rdi
	movq	-8(%rbp), %rax
	movq	%rsi, -16(%rbp)
	movq	%rax, %rsi
	movq	-16(%rbp), %rdx
	callq	__ZN101_$LT$core..ops..range..RangeTo$LT$usize$GT$$u20$as$u20$core..slice..SliceIndex$LT$$u5b$T$u5d$$GT$$GT$5index17h64c7d890f86d863eE
	movq	%rax, -24(%rbp)
	movq	%rdx, -32(%rbp)
	movq	-24(%rbp), %rax
	movq	-32(%rbp), %rdx
	addq	$32, %rsp
	popq	%rbp
	retq
	.cfi_endproc

	.p2align	4, 0x90
__ZN4core5slice74_$LT$impl$u20$core..ops..index..Index$LT$I$GT$$u20$for$u20$$u5b$T$u5d$$GT$5index17hb5656bec4c7333aaE:
	.cfi_startproc
	pushq	%rbp
	.cfi_def_cfa_offset 16
	.cfi_offset %rbp, -16
	movq	%rsp, %rbp
	.cfi_def_cfa_register %rbp
	subq	$32, %rsp
	movq	%rdi, -8(%rbp)
	movq	%rdx, %rdi
	movq	%rsi, -16(%rbp)
	movq	%rcx, %rsi
	movq	-8(%rbp), %rdx
	movq	-16(%rbp), %rcx
	callq	__ZN99_$LT$core..ops..range..Range$LT$usize$GT$$u20$as$u20$core..slice..SliceIndex$LT$$u5b$T$u5d$$GT$$GT$5index17h6a2dfa150760104fE
	movq	%rax, -24(%rbp)
	movq	%rdx, -32(%rbp)
	movq	-24(%rbp), %rax
	movq	-32(%rbp), %rdx
	addq	$32, %rsp
	popq	%rbp
	retq
	.cfi_endproc

	.p2align	4, 0x90
__ZN4core5slice77_$LT$impl$u20$core..ops..index..IndexMut$LT$I$GT$$u20$for$u20$$u5b$T$u5d$$GT$9index_mut17h17f4cbd6baac53eaE:
	.cfi_startproc
	pushq	%rbp
	.cfi_def_cfa_offset 16
	.cfi_offset %rbp, -16
	movq	%rsp, %rbp
	.cfi_def_cfa_register %rbp
	subq	$16, %rsp
	callq	__ZN90_$LT$core..ops..range..RangeFull$u20$as$u20$core..slice..SliceIndex$LT$$u5b$T$u5d$$GT$$GT$9index_mut17h9cefc3deef236261E
	movq	%rax, -8(%rbp)
	movq	%rdx, -16(%rbp)
	movq	-8(%rbp), %rax
	movq	-16(%rbp), %rdx
	addq	$16, %rsp
	popq	%rbp
	retq
	.cfi_endproc

	.p2align	4, 0x90
__ZN4core5slice77_$LT$impl$u20$core..ops..index..IndexMut$LT$I$GT$$u20$for$u20$$u5b$T$u5d$$GT$9index_mut17he869c5cd18184852E:
	.cfi_startproc
	pushq	%rbp
	.cfi_def_cfa_offset 16
	.cfi_offset %rbp, -16
	movq	%rsp, %rbp
	.cfi_def_cfa_register %rbp
	subq	$32, %rsp
	movq	%rdi, -8(%rbp)
	movq	%rdx, %rdi
	movq	-8(%rbp), %rax
	movq	%rsi, -16(%rbp)
	movq	%rax, %rsi
	movq	-16(%rbp), %rdx
	callq	__ZN101_$LT$core..ops..range..RangeTo$LT$usize$GT$$u20$as$u20$core..slice..SliceIndex$LT$$u5b$T$u5d$$GT$$GT$9index_mut17h5606c036a430cd5eE
	movq	%rax, -24(%rbp)
	movq	%rdx, -32(%rbp)
	movq	-24(%rbp), %rax
	movq	-32(%rbp), %rdx
	addq	$32, %rsp
	popq	%rbp
	retq
	.cfi_endproc

	.p2align	4, 0x90
__ZN4core5slice81_$LT$impl$u20$core..cmp..PartialEq$LT$$u5b$B$u5d$$GT$$u20$for$u20$$u5b$A$u5d$$GT$2eq17hc0c0f89332efb4eeE:
	.cfi_startproc
	pushq	%rbp
	.cfi_def_cfa_offset 16
	.cfi_offset %rbp, -16
	movq	%rsp, %rbp
	.cfi_def_cfa_register %rbp
	subq	$16, %rsp
	callq	__ZN68_$LT$$u5b$A$u5d$$u20$as$u20$core..slice..SlicePartialEq$LT$A$GT$$GT$5equal17h04e1b0bf133df29eE
	movb	%al, -1(%rbp)
	movb	-1(%rbp), %al
	andb	$1, %al
	movzbl	%al, %eax
	addq	$16, %rsp
	popq	%rbp
	retq
	.cfi_endproc

	.p2align	4, 0x90
__ZN4core6option15Option$LT$T$GT$14unwrap_or_else17h7a4668211e9bd4d2E:
Lfunc_begin26:
	.cfi_startproc
	.cfi_personality 155, _rust_eh_personality
	.cfi_lsda 16, Lexception26
	pushq	%rbp
	.cfi_def_cfa_offset 16
	.cfi_offset %rbp, -16
	movq	%rsp, %rbp
	.cfi_def_cfa_register %rbp
	subq	$80, %rsp
	movq	%rdi, %rax
	movb	$0, -17(%rbp)
	movb	$1, -17(%rbp)
	movq	8(%rsi), %rcx
	testq	%rcx, %rcx
	setne	%dl
	movzbl	%dl, %r8d
	movl	%r8d, %ecx
	movq	%rsi, -64(%rbp)
	movq	%rdi, -72(%rbp)
	movq	%rax, -80(%rbp)
	je	LBB225_1
	jmp	LBB225_10
LBB225_10:
	jmp	LBB225_3
LBB225_1:
	movb	$0, -17(%rbp)
Ltmp126:
	movq	-72(%rbp), %rdi
	callq	__ZN5alloc11collections5btree16unwrap_unchecked28_$u7b$$u7b$closure$u7d$$u7d$17ha1984752283fbbddE
Ltmp127:
	jmp	LBB225_4
	ud2
LBB225_3:
	movq	-64(%rbp), %rax
	movq	(%rax), %rcx
	movq	%rcx, -56(%rbp)
	movq	8(%rax), %rcx
	movq	%rcx, -48(%rbp)
	movq	16(%rax), %rcx
	movq	%rcx, -40(%rbp)
	movq	24(%rax), %rcx
	movq	%rcx, -32(%rbp)
	movq	-56(%rbp), %rcx
	movq	-72(%rbp), %rdx
	movq	%rcx, (%rdx)
	movq	-48(%rbp), %rcx
	movq	%rcx, 8(%rdx)
	movq	-40(%rbp), %rcx
	movq	%rcx, 16(%rdx)
	movq	-32(%rbp), %rcx
	movq	%rcx, 24(%rdx)
	jmp	LBB225_8
LBB225_4:
	jmp	LBB225_8
LBB225_5:
	movq	-80(%rbp), %rax
	addq	$80, %rsp
	popq	%rbp
	retq
LBB225_6:
	movq	-16(%rbp), %rdi
	callq	__Unwind_Resume
	ud2
LBB225_7:
	movb	$0, -17(%rbp)
	jmp	LBB225_5
LBB225_8:
	testb	$1, -17(%rbp)
	jne	LBB225_7
	jmp	LBB225_5
LBB225_9:
Ltmp128:
	movq	%rax, -16(%rbp)
	movl	%edx, -8(%rbp)
	jmp	LBB225_6
Lfunc_end26:
	.cfi_endproc
	.section	__TEXT,__gcc_except_tab
	.p2align	2
GCC_except_table225:
Lexception26:
	.byte	255
	.byte	255
	.byte	1
	.uleb128 Lcst_end26-Lcst_begin26
Lcst_begin26:
	.uleb128 Ltmp126-Lfunc_begin26
	.uleb128 Ltmp127-Ltmp126
	.uleb128 Ltmp128-Lfunc_begin26
	.byte	0
	.uleb128 Ltmp127-Lfunc_begin26
	.uleb128 Lfunc_end26-Ltmp127
	.byte	0
	.byte	0
Lcst_end26:
	.p2align	2

	.section	__TEXT,__text,regular,pure_instructions
	.p2align	4, 0x90
__ZN4core6option15Option$LT$T$GT$14unwrap_or_else17hb753e7892dfdd7eaE:
Lfunc_begin27:
	.cfi_startproc
	.cfi_personality 155, _rust_eh_personality
	.cfi_lsda 16, Lexception27
	pushq	%rbp
	.cfi_def_cfa_offset 16
	.cfi_offset %rbp, -16
	movq	%rsp, %rbp
	.cfi_def_cfa_register %rbp
	subq	$80, %rsp
	movq	%rdi, %rax
	movb	$0, -17(%rbp)
	movb	$1, -17(%rbp)
	movq	8(%rsi), %rcx
	testq	%rcx, %rcx
	setne	%dl
	movzbl	%dl, %r8d
	movl	%r8d, %ecx
	movq	%rsi, -64(%rbp)
	movq	%rdi, -72(%rbp)
	movq	%rax, -80(%rbp)
	je	LBB226_1
	jmp	LBB226_10
LBB226_10:
	jmp	LBB226_3
LBB226_1:
	movb	$0, -17(%rbp)
Ltmp129:
	movq	-72(%rbp), %rdi
	callq	__ZN5alloc11collections5btree16unwrap_unchecked28_$u7b$$u7b$closure$u7d$$u7d$17h79e4bc62509c72ffE
Ltmp130:
	jmp	LBB226_4
	ud2
LBB226_3:
	movq	-64(%rbp), %rax
	movq	(%rax), %rcx
	movq	%rcx, -56(%rbp)
	movq	8(%rax), %rcx
	movq	%rcx, -48(%rbp)
	movq	16(%rax), %rcx
	movq	%rcx, -40(%rbp)
	movq	24(%rax), %rcx
	movq	%rcx, -32(%rbp)
	movq	-56(%rbp), %rcx
	movq	-72(%rbp), %rdx
	movq	%rcx, (%rdx)
	movq	-48(%rbp), %rcx
	movq	%rcx, 8(%rdx)
	movq	-40(%rbp), %rcx
	movq	%rcx, 16(%rdx)
	movq	-32(%rbp), %rcx
	movq	%rcx, 24(%rdx)
	jmp	LBB226_8
LBB226_4:
	jmp	LBB226_8
LBB226_5:
	movq	-80(%rbp), %rax
	addq	$80, %rsp
	popq	%rbp
	retq
LBB226_6:
	movq	-16(%rbp), %rdi
	callq	__Unwind_Resume
	ud2
LBB226_7:
	movb	$0, -17(%rbp)
	jmp	LBB226_5
LBB226_8:
	testb	$1, -17(%rbp)
	jne	LBB226_7
	jmp	LBB226_5
LBB226_9:
Ltmp131:
	movq	%rax, -16(%rbp)
	movl	%edx, -8(%rbp)
	jmp	LBB226_6
Lfunc_end27:
	.cfi_endproc
	.section	__TEXT,__gcc_except_tab
	.p2align	2
GCC_except_table226:
Lexception27:
	.byte	255
	.byte	255
	.byte	1
	.uleb128 Lcst_end27-Lcst_begin27
Lcst_begin27:
	.uleb128 Ltmp129-Lfunc_begin27
	.uleb128 Ltmp130-Ltmp129
	.uleb128 Ltmp131-Lfunc_begin27
	.byte	0
	.uleb128 Ltmp130-Lfunc_begin27
	.uleb128 Lfunc_end27-Ltmp130
	.byte	0
	.byte	0
Lcst_end27:
	.p2align	2

	.section	__TEXT,__text,regular,pure_instructions
	.p2align	4, 0x90
__ZN4core6option15Option$LT$T$GT$3map17h9199a99136daefe6E:
Lfunc_begin28:
	.cfi_startproc
	.cfi_personality 155, _rust_eh_personality
	.cfi_lsda 16, Lexception28
	pushq	%rbp
	.cfi_def_cfa_offset 16
	.cfi_offset %rbp, -16
	movq	%rsp, %rbp
	.cfi_def_cfa_register %rbp
	subq	$80, %rsp
	movq	%rdi, -64(%rbp)
	movq	%rsi, -56(%rbp)
	movb	$0, -17(%rbp)
	movb	$1, -17(%rbp)
	movq	-64(%rbp), %rax
	testq	%rax, %rax
	setne	%cl
	movzbl	%cl, %edx
	movl	%edx, %eax
	je	LBB227_1
	jmp	LBB227_10
LBB227_10:
	jmp	LBB227_3
LBB227_1:
	movb	$2, -41(%rbp)
	jmp	LBB227_8
	ud2
LBB227_3:
	movq	-64(%rbp), %rax
	movq	-56(%rbp), %rcx
	movb	$0, -17(%rbp)
	movq	%rax, -40(%rbp)
	movq	%rcx, -32(%rbp)
	movq	-40(%rbp), %rdi
	movq	-32(%rbp), %rsi
Ltmp132:
	callq	__ZN18build_script_build19rustc_minor_nightly28_$u7b$$u7b$closure$u7d$$u7d$17h8c018c1a16cf0796E
Ltmp133:
	movb	%al, -65(%rbp)
	jmp	LBB227_4
LBB227_4:
	movb	-65(%rbp), %al
	andb	$1, %al
	movb	%al, -41(%rbp)
	jmp	LBB227_8
LBB227_5:
	movb	-41(%rbp), %al
	addq	$80, %rsp
	popq	%rbp
	retq
LBB227_6:
	movq	-16(%rbp), %rdi
	callq	__Unwind_Resume
	ud2
LBB227_7:
	movb	$0, -17(%rbp)
	jmp	LBB227_5
LBB227_8:
	testb	$1, -17(%rbp)
	jne	LBB227_7
	jmp	LBB227_5
LBB227_9:
Ltmp134:
	movq	%rax, -16(%rbp)
	movl	%edx, -8(%rbp)
	jmp	LBB227_6
Lfunc_end28:
	.cfi_endproc
	.section	__TEXT,__gcc_except_tab
	.p2align	2
GCC_except_table227:
Lexception28:
	.byte	255
	.byte	255
	.byte	1
	.uleb128 Lcst_end28-Lcst_begin28
Lcst_begin28:
	.uleb128 Ltmp132-Lfunc_begin28
	.uleb128 Ltmp133-Ltmp132
	.uleb128 Ltmp134-Lfunc_begin28
	.byte	0
	.uleb128 Ltmp133-Lfunc_begin28
	.uleb128 Lfunc_end28-Ltmp133
	.byte	0
	.byte	0
Lcst_end28:
	.p2align	2

	.section	__TEXT,__text,regular,pure_instructions
	.p2align	4, 0x90
__ZN4core6option15Option$LT$T$GT$4take17h05bc3431b213f5edE:
	.cfi_startproc
	pushq	%rbp
	.cfi_def_cfa_offset 16
	.cfi_offset %rbp, -16
	movq	%rsp, %rbp
	.cfi_def_cfa_register %rbp
	subq	$16, %rsp
	callq	__ZN4core3mem4take17ha03271668793247dE
	movq	%rax, -8(%rbp)
	movq	%rdx, -16(%rbp)
	movq	-8(%rbp), %rax
	movq	-16(%rbp), %rdx
	addq	$16, %rsp
	popq	%rbp
	retq
	.cfi_endproc

	.p2align	4, 0x90
__ZN4core6option15Option$LT$T$GT$4take17h51908d196a1c9c05E:
	.cfi_startproc
	pushq	%rbp
	.cfi_def_cfa_offset 16
	.cfi_offset %rbp, -16
	movq	%rsp, %rbp
	.cfi_def_cfa_register %rbp
	subq	$16, %rsp
	callq	__ZN4core3mem4take17h970a0dd34c84faacE
	movq	%rax, -8(%rbp)
	movq	%rdx, -16(%rbp)
	movq	-8(%rbp), %rax
	movq	-16(%rbp), %rdx
	addq	$16, %rsp
	popq	%rbp
	retq
	.cfi_endproc

	.p2align	4, 0x90
__ZN4core6option15Option$LT$T$GT$5ok_or17hb5dbea2c8e85e853E:
	.cfi_startproc
	pushq	%rbp
	.cfi_def_cfa_offset 16
	.cfi_offset %rbp, -16
	movq	%rsp, %rbp
	.cfi_def_cfa_register %rbp
	subq	$56, %rsp
	movq	%rdi, -56(%rbp)
	movq	%rsi, -48(%rbp)
	movb	$0, -17(%rbp)
	movb	$1, -17(%rbp)
	movq	-56(%rbp), %rax
	testq	%rax, %rax
	setne	%cl
	movzbl	%cl, %edx
	movl	%edx, %eax
	je	LBB230_1
	jmp	LBB230_7
LBB230_7:
	jmp	LBB230_3
LBB230_1:
	movb	$0, -17(%rbp)
	movq	$0, -40(%rbp)
	jmp	LBB230_4
	ud2
LBB230_3:
	movq	-56(%rbp), %rax
	movq	-48(%rbp), %rcx
	movq	%rax, -40(%rbp)
	movq	%rcx, -32(%rbp)
LBB230_4:
	testb	$1, -17(%rbp)
	jne	LBB230_6
LBB230_5:
	movq	-40(%rbp), %rax
	movq	-32(%rbp), %rdx
	addq	$56, %rsp
	popq	%rbp
	retq
LBB230_6:
	movb	$0, -17(%rbp)
	jmp	LBB230_5
	.cfi_endproc

	.p2align	4, 0x90
__ZN4core6option15Option$LT$T$GT$5ok_or17hb5eaeaaf73203f32E:
	.cfi_startproc
	pushq	%rbp
	.cfi_def_cfa_offset 16
	.cfi_offset %rbp, -16
	movq	%rsp, %rbp
	.cfi_def_cfa_register %rbp
	subq	$40, %rsp
	movq	%rdi, -40(%rbp)
	movb	$0, -17(%rbp)
	movb	$1, -17(%rbp)
	movq	-40(%rbp), %rax
	testq	%rax, %rax
	setne	%cl
	movzbl	%cl, %edx
	movl	%edx, %eax
	je	LBB231_1
	jmp	LBB231_7
LBB231_7:
	jmp	LBB231_3
LBB231_1:
	movb	$0, -17(%rbp)
	movq	$0, -32(%rbp)
	jmp	LBB231_4
	ud2
LBB231_3:
	movq	-40(%rbp), %rax
	movq	%rax, -32(%rbp)
LBB231_4:
	testb	$1, -17(%rbp)
	jne	LBB231_6
LBB231_5:
	movq	-32(%rbp), %rax
	addq	$40, %rsp
	popq	%rbp
	retq
LBB231_6:
	movb	$0, -17(%rbp)
	jmp	LBB231_5
	.cfi_endproc

	.p2align	4, 0x90
__ZN4core6option15Option$LT$T$GT$6as_mut17h82dd72e7e962df7eE:
	.cfi_startproc
	pushq	%rbp
	.cfi_def_cfa_offset 16
	.cfi_offset %rbp, -16
	movq	%rsp, %rbp
	.cfi_def_cfa_register %rbp
	subq	$16, %rsp
	movq	8(%rdi), %rax
	testq	%rax, %rax
	setne	%cl
	movzbl	%cl, %edx
	movl	%edx, %eax
	movq	%rdi, -16(%rbp)
	je	LBB232_1
	jmp	LBB232_5
LBB232_5:
	jmp	LBB232_3
LBB232_1:
	movq	$0, -8(%rbp)
	jmp	LBB232_4
	ud2
LBB232_3:
	movq	-16(%rbp), %rax
	movq	%rax, -8(%rbp)
LBB232_4:
	movq	-8(%rbp), %rax
	addq	$16, %rsp
	popq	%rbp
	retq
	.cfi_endproc

	.p2align	4, 0x90
__ZN4core6option15Option$LT$T$GT$6expect17h39910d3836743dd2E:
Lfunc_begin29:
	.cfi_startproc
	.cfi_personality 155, _rust_eh_personality
	.cfi_lsda 16, Lexception29
	pushq	%rbp
	.cfi_def_cfa_offset 16
	.cfi_offset %rbp, -16
	movq	%rsp, %rbp
	.cfi_def_cfa_register %rbp
	subq	$48, %rsp
	movl	%edi, -24(%rbp)
	movb	%sil, -20(%rbp)
	movb	-20(%rbp), %al
	addb	$-2, %al
	setne	%sil
	movzbl	%sil, %edi
	movl	%edi, %r9d
	movq	%r8, -32(%rbp)
	movq	%rcx, -40(%rbp)
	movq	%rdx, -48(%rbp)
	je	LBB233_1
	jmp	LBB233_7
LBB233_7:
	jmp	LBB233_3
LBB233_1:
Ltmp135:
	movq	-48(%rbp), %rdi
	movq	-40(%rbp), %rsi
	movq	-32(%rbp), %rdx
	callq	__ZN4core6option13expect_failed17h7591ba70e88f159aE
Ltmp136:
	jmp	LBB233_5
	ud2
LBB233_3:
	movl	-24(%rbp), %eax
	movb	-20(%rbp), %dl
	addq	$48, %rsp
	popq	%rbp
	retq
LBB233_4:
	movq	-16(%rbp), %rdi
	callq	__Unwind_Resume
	ud2
LBB233_5:
	ud2
LBB233_6:
Ltmp137:
	movq	%rax, -16(%rbp)
	movl	%edx, -8(%rbp)
	jmp	LBB233_4
Lfunc_end29:
	.cfi_endproc
	.section	__TEXT,__gcc_except_tab
	.p2align	2
GCC_except_table233:
Lexception29:
	.byte	255
	.byte	255
	.byte	1
	.uleb128 Lcst_end29-Lcst_begin29
Lcst_begin29:
	.uleb128 Ltmp135-Lfunc_begin29
	.uleb128 Ltmp136-Ltmp135
	.uleb128 Ltmp137-Lfunc_begin29
	.byte	0
	.uleb128 Ltmp136-Lfunc_begin29
	.uleb128 Lfunc_end29-Ltmp136
	.byte	0
	.byte	0
Lcst_end29:
	.p2align	2

	.section	__TEXT,__text,regular,pure_instructions
	.p2align	4, 0x90
__ZN4core6option15Option$LT$T$GT$6unwrap17h6176b92c16f07afbE:
Lfunc_begin30:
	.cfi_startproc
	.cfi_personality 155, _rust_eh_personality
	.cfi_lsda 16, Lexception30
	pushq	%rbp
	.cfi_def_cfa_offset 16
	.cfi_offset %rbp, -16
	movq	%rsp, %rbp
	.cfi_def_cfa_register %rbp
	subq	$48, %rsp
	movq	%rdi, %rax
	movq	(%rsi), %rcx
	testq	%rcx, %rcx
	setne	%r8b
	movzbl	%r8b, %r9d
	movl	%r9d, %ecx
	movq	%rdx, -24(%rbp)
	movq	%rsi, -32(%rbp)
	movq	%rdi, -40(%rbp)
	movq	%rax, -48(%rbp)
	je	LBB234_1
	jmp	LBB234_7
LBB234_7:
	jmp	LBB234_3
LBB234_1:
Ltmp138:
	leaq	l___unnamed_9(%rip), %rdi
	movl	$43, %esi
	movq	-24(%rbp), %rdx
	callq	__ZN4core9panicking5panic17h383a6b80ea7021aaE
Ltmp139:
	jmp	LBB234_5
	ud2
LBB234_3:
	movq	-32(%rbp), %rax
	movq	-40(%rbp), %rcx
	movq	%rcx, %rdi
	movq	%rax, %rsi
	movl	$56, %edx
	callq	_memcpy
	movq	-48(%rbp), %rax
	addq	$48, %rsp
	popq	%rbp
	retq
LBB234_4:
	movq	-16(%rbp), %rdi
	callq	__Unwind_Resume
	ud2
LBB234_5:
	ud2
LBB234_6:
Ltmp140:
	movq	%rax, -16(%rbp)
	movl	%edx, -8(%rbp)
	jmp	LBB234_4
Lfunc_end30:
	.cfi_endproc
	.section	__TEXT,__gcc_except_tab
	.p2align	2
GCC_except_table234:
Lexception30:
	.byte	255
	.byte	255
	.byte	1
	.uleb128 Lcst_end30-Lcst_begin30
Lcst_begin30:
	.uleb128 Ltmp138-Lfunc_begin30
	.uleb128 Ltmp139-Ltmp138
	.uleb128 Ltmp140-Lfunc_begin30
	.byte	0
	.uleb128 Ltmp139-Lfunc_begin30
	.uleb128 Lfunc_end30-Ltmp139
	.byte	0
	.byte	0
Lcst_end30:
	.p2align	2

	.section	__TEXT,__text,regular,pure_instructions
	.p2align	4, 0x90
__ZN4core6option15Option$LT$T$GT$6unwrap17haad1edbac79cc804E:
Lfunc_begin31:
	.cfi_startproc
	.cfi_personality 155, _rust_eh_personality
	.cfi_lsda 16, Lexception31
	pushq	%rbp
	.cfi_def_cfa_offset 16
	.cfi_offset %rbp, -16
	movq	%rsp, %rbp
	.cfi_def_cfa_register %rbp
	subq	$48, %rsp
	movq	%rdi, %rax
	movq	(%rsi), %rcx
	testq	%rcx, %rcx
	setne	%r8b
	movzbl	%r8b, %r9d
	movl	%r9d, %ecx
	movq	%rdx, -24(%rbp)
	movq	%rsi, -32(%rbp)
	movq	%rdi, -40(%rbp)
	movq	%rax, -48(%rbp)
	je	LBB235_1
	jmp	LBB235_7
LBB235_7:
	jmp	LBB235_3
LBB235_1:
Ltmp141:
	leaq	l___unnamed_9(%rip), %rdi
	movl	$43, %esi
	movq	-24(%rbp), %rdx
	callq	__ZN4core9panicking5panic17h383a6b80ea7021aaE
Ltmp142:
	jmp	LBB235_5
	ud2
LBB235_3:
	movq	-32(%rbp), %rax
	movq	(%rax), %rcx
	movq	-40(%rbp), %rdx
	movq	%rcx, (%rdx)
	movq	8(%rax), %rcx
	movq	%rcx, 8(%rdx)
	movq	16(%rax), %rcx
	movq	%rcx, 16(%rdx)
	movq	-48(%rbp), %rax
	addq	$48, %rsp
	popq	%rbp
	retq
LBB235_4:
	movq	-16(%rbp), %rdi
	callq	__Unwind_Resume
	ud2
LBB235_5:
	ud2
LBB235_6:
Ltmp143:
	movq	%rax, -16(%rbp)
	movl	%edx, -8(%rbp)
	jmp	LBB235_4
Lfunc_end31:
	.cfi_endproc
	.section	__TEXT,__gcc_except_tab
	.p2align	2
GCC_except_table235:
Lexception31:
	.byte	255
	.byte	255
	.byte	1
	.uleb128 Lcst_end31-Lcst_begin31
Lcst_begin31:
	.uleb128 Ltmp141-Lfunc_begin31
	.uleb128 Ltmp142-Ltmp141
	.uleb128 Ltmp143-Lfunc_begin31
	.byte	0
	.uleb128 Ltmp142-Lfunc_begin31
	.uleb128 Lfunc_end31-Ltmp142
	.byte	0
	.byte	0
Lcst_end31:
	.p2align	2

	.section	__TEXT,__text,regular,pure_instructions
	.p2align	4, 0x90
__ZN4core6option15Option$LT$T$GT$6unwrap17hab7b3577fbcd1544E:
Lfunc_begin32:
	.cfi_startproc
	.cfi_personality 155, _rust_eh_personality
	.cfi_lsda 16, Lexception32
	pushq	%rbp
	.cfi_def_cfa_offset 16
	.cfi_offset %rbp, -16
	movq	%rsp, %rbp
	.cfi_def_cfa_register %rbp
	subq	$32, %rsp
	movq	%rdi, -24(%rbp)
	movq	-24(%rbp), %rax
	testq	%rax, %rax
	setne	%cl
	movzbl	%cl, %edx
	movl	%edx, %eax
	movq	%rsi, -32(%rbp)
	je	LBB236_1
	jmp	LBB236_7
LBB236_7:
	jmp	LBB236_3
LBB236_1:
Ltmp144:
	leaq	l___unnamed_9(%rip), %rdi
	movl	$43, %esi
	movq	-32(%rbp), %rdx
	callq	__ZN4core9panicking5panic17h383a6b80ea7021aaE
Ltmp145:
	jmp	LBB236_5
	ud2
LBB236_3:
	movq	-24(%rbp), %rax
	addq	$32, %rsp
	popq	%rbp
	retq
LBB236_4:
	movq	-16(%rbp), %rdi
	callq	__Unwind_Resume
	ud2
LBB236_5:
	ud2
LBB236_6:
Ltmp146:
	movq	%rax, -16(%rbp)
	movl	%edx, -8(%rbp)
	jmp	LBB236_4
Lfunc_end32:
	.cfi_endproc
	.section	__TEXT,__gcc_except_tab
	.p2align	2
GCC_except_table236:
Lexception32:
	.byte	255
	.byte	255
	.byte	1
	.uleb128 Lcst_end32-Lcst_begin32
Lcst_begin32:
	.uleb128 Ltmp144-Lfunc_begin32
	.uleb128 Ltmp145-Ltmp144
	.uleb128 Ltmp146-Lfunc_begin32
	.byte	0
	.uleb128 Ltmp145-Lfunc_begin32
	.uleb128 Lfunc_end32-Ltmp145
	.byte	0
	.byte	0
Lcst_end32:
	.p2align	2

	.section	__TEXT,__text,regular,pure_instructions
	.p2align	4, 0x90
__ZN4core6option15Option$LT$T$GT$7is_none17h6cd6007b94aa14f7E:
	.cfi_startproc
	pushq	%rbp
	.cfi_def_cfa_offset 16
	.cfi_offset %rbp, -16
	movq	%rsp, %rbp
	.cfi_def_cfa_register %rbp
	subq	$16, %rsp
	callq	__ZN4core6option15Option$LT$T$GT$7is_some17hb47d4fa31ed6870fE
	movb	%al, -1(%rbp)
	movb	-1(%rbp), %al
	xorb	$-1, %al
	andb	$1, %al
	movzbl	%al, %eax
	addq	$16, %rsp
	popq	%rbp
	retq
	.cfi_endproc

	.p2align	4, 0x90
__ZN4core6option15Option$LT$T$GT$7is_none17h9769ac16d3c62e34E:
	.cfi_startproc
	pushq	%rbp
	.cfi_def_cfa_offset 16
	.cfi_offset %rbp, -16
	movq	%rsp, %rbp
	.cfi_def_cfa_register %rbp
	subq	$16, %rsp
	callq	__ZN4core6option15Option$LT$T$GT$7is_some17h3d06cf0fba4b614aE
	movb	%al, -1(%rbp)
	movb	-1(%rbp), %al
	xorb	$-1, %al
	andb	$1, %al
	movzbl	%al, %eax
	addq	$16, %rsp
	popq	%rbp
	retq
	.cfi_endproc

	.p2align	4, 0x90
__ZN4core6option15Option$LT$T$GT$7is_some17h3d06cf0fba4b614aE:
	.cfi_startproc
	pushq	%rbp
	.cfi_def_cfa_offset 16
	.cfi_offset %rbp, -16
	movq	%rsp, %rbp
	.cfi_def_cfa_register %rbp
	subq	$1, %rsp
	xorl	%eax, %eax
	movl	%eax, %ecx
	cmpq	$0, (%rdi)
	movl	$1, %edx
	cmovbeq	%rcx, %rdx
	cmpq	$1, %rdx
	je	LBB239_2
	movb	$0, -1(%rbp)
	jmp	LBB239_3
LBB239_2:
	movb	$1, -1(%rbp)
LBB239_3:
	movb	-1(%rbp), %al
	andb	$1, %al
	movzbl	%al, %eax
	addq	$1, %rsp
	popq	%rbp
	retq
	.cfi_endproc

	.p2align	4, 0x90
__ZN4core6option15Option$LT$T$GT$7is_some17hb47d4fa31ed6870fE:
	.cfi_startproc
	pushq	%rbp
	.cfi_def_cfa_offset 16
	.cfi_offset %rbp, -16
	movq	%rsp, %rbp
	.cfi_def_cfa_register %rbp
	subq	$1, %rsp
	xorl	%eax, %eax
	movl	%eax, %ecx
	cmpq	$0, (%rdi)
	movl	$1, %edx
	cmovbeq	%rcx, %rdx
	cmpq	$1, %rdx
	je	LBB240_2
	movb	$0, -1(%rbp)
	jmp	LBB240_3
LBB240_2:
	movb	$1, -1(%rbp)
LBB240_3:
	movb	-1(%rbp), %al
	andb	$1, %al
	movzbl	%al, %eax
	addq	$1, %rsp
	popq	%rbp
	retq
	.cfi_endproc

	.p2align	4, 0x90
__ZN4core6option15Option$LT$T$GT$9unwrap_or17hddaf6f759e27ca2cE:
	.cfi_startproc
	pushq	%rbp
	.cfi_def_cfa_offset 16
	.cfi_offset %rbp, -16
	movq	%rsp, %rbp
	.cfi_def_cfa_register %rbp
	subq	$24, %rsp
	movb	%dil, -19(%rbp)
	movb	$0, -17(%rbp)
	movb	$1, -17(%rbp)
	movb	-19(%rbp), %al
	addb	$-2, %al
	setne	%cl
	movzbl	%cl, %edx
	movl	%edx, %r8d
	movb	%sil, -20(%rbp)
	je	LBB241_1
	jmp	LBB241_7
LBB241_7:
	jmp	LBB241_3
LBB241_1:
	movb	$0, -17(%rbp)
	movb	-20(%rbp), %al
	andb	$1, %al
	movb	%al, -18(%rbp)
	jmp	LBB241_6
	ud2
LBB241_3:
	movb	-19(%rbp), %al
	andb	$1, %al
	movb	%al, -18(%rbp)
	jmp	LBB241_6
LBB241_4:
	movb	-18(%rbp), %al
	andb	$1, %al
	movzbl	%al, %eax
	addq	$24, %rsp
	popq	%rbp
	retq
LBB241_5:
	movb	$0, -17(%rbp)
	jmp	LBB241_4
LBB241_6:
	testb	$1, -17(%rbp)
	jne	LBB241_5
	jmp	LBB241_4
	.cfi_endproc

	.p2align	4, 0x90
__ZN4core6result19Result$LT$T$C$E$GT$2ok17h0773941b3587987aE:
	.cfi_startproc
	pushq	%rbp
	.cfi_def_cfa_offset 16
	.cfi_offset %rbp, -16
	movq	%rsp, %rbp
	.cfi_def_cfa_register %rbp
	subq	$88, %rsp
	movq	%rdi, %rax
	movq	(%rsi), %rcx
	testq	%rcx, %rcx
	movq	%rsi, -72(%rbp)
	movq	%rdi, -80(%rbp)
	movq	%rax, -88(%rbp)
	je	LBB242_3
	jmp	LBB242_7
LBB242_7:
	movq	-80(%rbp), %rax
	movq	$0, 8(%rax)
	jmp	LBB242_6
	ud2
LBB242_3:
	movq	-72(%rbp), %rax
	movq	8(%rax), %rcx
	movq	%rcx, -64(%rbp)
	movq	16(%rax), %rcx
	movq	%rcx, -56(%rbp)
	movq	24(%rax), %rcx
	movq	%rcx, -48(%rbp)
	movq	32(%rax), %rcx
	movq	%rcx, -40(%rbp)
	movq	-64(%rbp), %rcx
	movq	%rcx, -32(%rbp)
	movq	-56(%rbp), %rcx
	movq	%rcx, -24(%rbp)
	movq	-48(%rbp), %rcx
	movq	%rcx, -16(%rbp)
	movq	-40(%rbp), %rcx
	movq	%rcx, -8(%rbp)
	movq	-32(%rbp), %rcx
	movq	-80(%rbp), %rdx
	movq	%rcx, (%rdx)
	movq	-24(%rbp), %rcx
	movq	%rcx, 8(%rdx)
	movq	-16(%rbp), %rcx
	movq	%rcx, 16(%rdx)
	movq	-8(%rbp), %rcx
	movq	%rcx, 24(%rdx)
	jmp	LBB242_6
LBB242_4:
	movq	-88(%rbp), %rax
	addq	$88, %rsp
	popq	%rbp
	retq
LBB242_5:
	jmp	LBB242_4
LBB242_6:
	movq	-72(%rbp), %rax
	cmpq	$0, (%rax)
	je	LBB242_4
	jmp	LBB242_5
	.cfi_endproc

	.p2align	4, 0x90
__ZN4core6result19Result$LT$T$C$E$GT$2ok17h61d1e3f57cd409f4E:
	.cfi_startproc
	pushq	%rbp
	.cfi_def_cfa_offset 16
	.cfi_offset %rbp, -16
	movq	%rsp, %rbp
	.cfi_def_cfa_register %rbp
	subq	$160, %rsp
	movq	%rdi, %rax
	movq	(%rsi), %rcx
	testq	%rcx, %rcx
	movq	%rsi, -120(%rbp)
	movq	%rdi, -128(%rbp)
	movq	%rax, -136(%rbp)
	je	LBB243_3
	jmp	LBB243_7
LBB243_7:
	movq	-128(%rbp), %rax
	movq	$0, (%rax)
	jmp	LBB243_6
	ud2
LBB243_3:
	movq	-120(%rbp), %rax
	addq	$8, %rax
	leaq	-112(%rbp), %rcx
	movq	%rcx, %rdx
	movq	%rdx, %rdi
	movq	%rax, %rsi
	movl	$56, %eax
	movq	%rax, %rdx
	movq	%rcx, -144(%rbp)
	movq	%rax, -152(%rbp)
	callq	_memcpy
	leaq	-56(%rbp), %rax
	movq	%rax, %rcx
	movq	-144(%rbp), %rdx
	movq	%rcx, %rdi
	movq	%rdx, %rsi
	movq	-152(%rbp), %rdx
	movq	%rax, -160(%rbp)
	callq	_memcpy
	movq	-128(%rbp), %rax
	movq	-160(%rbp), %rcx
	movq	%rax, %rdi
	movq	%rcx, %rsi
	movq	-152(%rbp), %rdx
	callq	_memcpy
	jmp	LBB243_6
LBB243_4:
	movq	-136(%rbp), %rax
	addq	$160, %rsp
	popq	%rbp
	retq
LBB243_5:
	movq	-120(%rbp), %rdi
	callq	__ZN4core3ptr13drop_in_place17hf7836b32fc4bb64fE
	jmp	LBB243_4
LBB243_6:
	movq	-120(%rbp), %rax
	cmpq	$0, (%rax)
	je	LBB243_4
	jmp	LBB243_5
	.cfi_endproc

	.p2align	4, 0x90
__ZN4core6result19Result$LT$T$C$E$GT$2ok17h92cde29bda340f8fE:
	.cfi_startproc
	pushq	%rbp
	.cfi_def_cfa_offset 16
	.cfi_offset %rbp, -16
	movq	%rsp, %rbp
	.cfi_def_cfa_register %rbp
	subq	$80, %rsp
	movq	%rdi, %rax
	movq	(%rsi), %rcx
	testq	%rcx, %rcx
	movq	%rsi, -56(%rbp)
	movq	%rdi, -64(%rbp)
	movq	%rax, -72(%rbp)
	je	LBB244_3
	jmp	LBB244_7
LBB244_7:
	movq	-64(%rbp), %rax
	movq	$0, (%rax)
	jmp	LBB244_6
	ud2
LBB244_3:
	movq	-56(%rbp), %rax
	movq	8(%rax), %rcx
	movq	%rcx, -48(%rbp)
	movq	16(%rax), %rcx
	movq	%rcx, -40(%rbp)
	movq	24(%rax), %rcx
	movq	%rcx, -32(%rbp)
	movq	-48(%rbp), %rcx
	movq	%rcx, -24(%rbp)
	movq	-40(%rbp), %rcx
	movq	%rcx, -16(%rbp)
	movq	-32(%rbp), %rcx
	movq	%rcx, -8(%rbp)
	movq	-24(%rbp), %rcx
	movq	-64(%rbp), %rdx
	movq	%rcx, (%rdx)
	movq	-16(%rbp), %rcx
	movq	%rcx, 8(%rdx)
	movq	-8(%rbp), %rcx
	movq	%rcx, 16(%rdx)
	jmp	LBB244_6
LBB244_4:
	movq	-72(%rbp), %rax
	addq	$80, %rsp
	popq	%rbp
	retq
LBB244_5:
	movq	-56(%rbp), %rdi
	callq	__ZN4core3ptr13drop_in_place17h2dafc9bd6bc7c4d6E
	jmp	LBB244_4
LBB244_6:
	movq	-56(%rbp), %rax
	cmpq	$0, (%rax)
	je	LBB244_4
	jmp	LBB244_5
	.cfi_endproc

	.p2align	4, 0x90
__ZN4core6result19Result$LT$T$C$E$GT$2ok17hba4cdeeefa55b803E:
	.cfi_startproc
	pushq	%rbp
	.cfi_def_cfa_offset 16
	.cfi_offset %rbp, -16
	movq	%rsp, %rbp
	.cfi_def_cfa_register %rbp
	subq	$24, %rsp
	movq	(%rdi), %rax
	testq	%rax, %rax
	movq	%rdi, -24(%rbp)
	je	LBB245_3
	jmp	LBB245_7
LBB245_7:
	movq	$0, -16(%rbp)
	jmp	LBB245_6
	ud2
LBB245_3:
	movq	-24(%rbp), %rax
	movq	8(%rax), %rcx
	movq	16(%rax), %rdx
	movq	%rcx, -16(%rbp)
	movq	%rdx, -8(%rbp)
	jmp	LBB245_6
LBB245_4:
	movq	-16(%rbp), %rax
	movq	-8(%rbp), %rdx
	addq	$24, %rsp
	popq	%rbp
	retq
LBB245_5:
	jmp	LBB245_4
LBB245_6:
	movq	-24(%rbp), %rax
	cmpq	$0, (%rax)
	je	LBB245_4
	jmp	LBB245_5
	.cfi_endproc

	.p2align	4, 0x90
__ZN4core6result19Result$LT$T$C$E$GT$2ok17he15240a9b5e5971dE:
	.cfi_startproc
	pushq	%rbp
	.cfi_def_cfa_offset 16
	.cfi_offset %rbp, -16
	movq	%rsp, %rbp
	.cfi_def_cfa_register %rbp
	subq	$24, %rsp
	movq	%rdi, -16(%rbp)
	movq	-16(%rbp), %rax
	movq	%rax, -24(%rbp)
	movzbl	-24(%rbp), %ecx
	movl	%ecx, %eax
	testb	$1, %al
	je	LBB246_3
	jmp	LBB246_7
LBB246_7:
	movl	$0, -8(%rbp)
	jmp	LBB246_6
	ud2
LBB246_3:
	movl	-20(%rbp), %eax
	movl	%eax, -4(%rbp)
	movl	$1, -8(%rbp)
	jmp	LBB246_6
LBB246_4:
	movl	-8(%rbp), %eax
	movl	-4(%rbp), %edx
	addq	$24, %rsp
	popq	%rbp
	retq
LBB246_5:
	jmp	LBB246_4
LBB246_6:
	movb	-24(%rbp), %al
	andb	$1, %al
	movzbl	%al, %ecx
	movl	%ecx, %edx
	cmpq	$0, %rdx
	je	LBB246_4
	jmp	LBB246_5
	.cfi_endproc

	.p2align	4, 0x90
__ZN4core6result19Result$LT$T$C$E$GT$5is_ok17h8af04a8668711fefE:
	.cfi_startproc
	pushq	%rbp
	.cfi_def_cfa_offset 16
	.cfi_offset %rbp, -16
	movq	%rsp, %rbp
	.cfi_def_cfa_register %rbp
	subq	$1, %rsp
	cmpq	$0, (%rdi)
	je	LBB247_2
	movb	$0, -1(%rbp)
	jmp	LBB247_3
LBB247_2:
	movb	$1, -1(%rbp)
LBB247_3:
	movb	-1(%rbp), %al
	andb	$1, %al
	movzbl	%al, %eax
	addq	$1, %rsp
	popq	%rbp
	retq
	.cfi_endproc

	.p2align	4, 0x90
__ZN4core7convert3num66_$LT$impl$u20$core..convert..From$LT$u16$GT$$u20$for$u20$usize$GT$4from17hf375ad87c3f53c58E:
	.cfi_startproc
	pushq	%rbp
	.cfi_def_cfa_offset 16
	.cfi_offset %rbp, -16
	movq	%rsp, %rbp
	.cfi_def_cfa_register %rbp
	movzwl	%di, %eax
	popq	%rbp
	retq
	.cfi_endproc

	.p2align	4, 0x90
__ZN50_$LT$T$u20$as$u20$core..convert..From$LT$T$GT$$GT$4from17hf831dbc522acd286E:
	.cfi_startproc
	pushq	%rbp
	.cfi_def_cfa_offset 16
	.cfi_offset %rbp, -16
	movq	%rsp, %rbp
	.cfi_def_cfa_register %rbp
	popq	%rbp
	retq
	.cfi_endproc

	.p2align	4, 0x90
__ZN50_$LT$T$u20$as$u20$core..convert..From$LT$T$GT$$GT$4from17hff3a747ec3629577E:
	.cfi_startproc
	pushq	%rbp
	.cfi_def_cfa_offset 16
	.cfi_offset %rbp, -16
	movq	%rsp, %rbp
	.cfi_def_cfa_register %rbp
	popq	%rbp
	retq
	.cfi_endproc

	.p2align	4, 0x90
__ZN50_$LT$T$u20$as$u20$core..convert..Into$LT$U$GT$$GT$4into17hfb12b04d43608501E:
	.cfi_startproc
	pushq	%rbp
	.cfi_def_cfa_offset 16
	.cfi_offset %rbp, -16
	movq	%rsp, %rbp
	.cfi_def_cfa_register %rbp
	subq	$16, %rsp
	callq	__ZN119_$LT$core..ptr..non_null..NonNull$LT$T$GT$$u20$as$u20$core..convert..From$LT$core..ptr..unique..Unique$LT$T$GT$$GT$$GT$4from17hf0e32e15c07c841eE
	movq	%rax, -8(%rbp)
	movq	-8(%rbp), %rax
	addq	$16, %rsp
	popq	%rbp
	retq
	.cfi_endproc

	.p2align	4, 0x90
__ZN52_$LT$char$u20$as$u20$core..str..pattern..Pattern$GT$13into_searcher17h24e591bcc49aa7f0E:
	.cfi_startproc
	pushq	%rbp
	.cfi_def_cfa_offset 16
	.cfi_offset %rbp, -16
	movq	%rsp, %rbp
	.cfi_def_cfa_register %rbp
	subq	$96, %rsp
	movq	%rdi, %rax
	leaq	-8(%rbp), %r8
	xorl	%r9d, %r9d
	movq	%rdi, -16(%rbp)
	movq	%r8, %rdi
	movl	%esi, -20(%rbp)
	movl	%r9d, %esi
	movl	$4, %r10d
	movq	%rdx, -32(%rbp)
	movq	%r10, %rdx
	movq	%rcx, -40(%rbp)
	movq	%rax, -48(%rbp)
	movq	%r8, -56(%rbp)
	movq	%r10, -64(%rbp)
	callq	_memset
	movq	-56(%rbp), %rax
	movl	-20(%rbp), %edi
	movq	%rax, %rsi
	movq	-64(%rbp), %rdx
	callq	__ZN4core4char7methods22_$LT$impl$u20$char$GT$11encode_utf817h96525c6df742480eE
	movq	%rax, -72(%rbp)
	movq	%rdx, -80(%rbp)
	movq	-72(%rbp), %rdi
	movq	-80(%rbp), %rsi
	callq	__ZN4core3str21_$LT$impl$u20$str$GT$3len17h2234f0a0515501d1E
	movq	%rax, -88(%rbp)
	movq	-32(%rbp), %rdi
	movq	-40(%rbp), %rsi
	callq	__ZN4core3str21_$LT$impl$u20$str$GT$3len17h2234f0a0515501d1E
	movq	%rax, -96(%rbp)
	movl	-8(%rbp), %eax
	movl	%eax, -4(%rbp)
	movq	-16(%rbp), %rcx
	movq	-32(%rbp), %rdx
	movq	%rdx, (%rcx)
	movq	-40(%rbp), %rsi
	movq	%rsi, 8(%rcx)
	movq	$0, 16(%rcx)
	movq	-96(%rbp), %rdi
	movq	%rdi, 24(%rcx)
	movl	-20(%rbp), %eax
	movl	%eax, 40(%rcx)
	movq	-88(%rbp), %r8
	movq	%r8, 32(%rcx)
	movl	-4(%rbp), %r9d
	movl	%r9d, 44(%rcx)
	movq	-48(%rbp), %r10
	movq	%r10, %rax
	addq	$96, %rsp
	popq	%rbp
	retq
	.cfi_endproc

	.p2align	4, 0x90
__ZN54_$LT$$LP$$RP$$u20$as$u20$std..process..Termination$GT$6report17h69bd11e5475e5fedE:
	.cfi_startproc
	pushq	%rbp
	.cfi_def_cfa_offset 16
	.cfi_offset %rbp, -16
	movq	%rsp, %rbp
	.cfi_def_cfa_register %rbp
	subq	$16, %rsp
	xorl	%edi, %edi
	callq	__ZN68_$LT$std..process..ExitCode$u20$as$u20$std..process..Termination$GT$6report17h075cd7cb1d82636bE
	movl	%eax, -4(%rbp)
	movl	-4(%rbp), %eax
	addq	$16, %rsp
	popq	%rbp
	retq
	.cfi_endproc

	.p2align	4, 0x90
__ZN55_$LT$$RF$T$u20$as$u20$core..convert..AsRef$LT$U$GT$$GT$6as_ref17heca8710043bdb605E:
	.cfi_startproc
	pushq	%rbp
	.cfi_def_cfa_offset 16
	.cfi_offset %rbp, -16
	movq	%rsp, %rbp
	.cfi_def_cfa_register %rbp
	subq	$16, %rsp
	movq	(%rdi), %rax
	movq	8(%rdi), %rsi
	movq	%rax, %rdi
	callq	__ZN3std3ffi6os_str85_$LT$impl$u20$core..convert..AsRef$LT$std..ffi..os_str..OsStr$GT$$u20$for$u20$str$GT$6as_ref17h3129f4e510bc3cb8E
	movq	%rax, -8(%rbp)
	movq	%rdx, -16(%rbp)
	movq	-8(%rbp), %rax
	movq	-16(%rbp), %rdx
	addq	$16, %rsp
	popq	%rbp
	retq
	.cfi_endproc

	.p2align	4, 0x90
__ZN55_$LT$$RF$str$u20$as$u20$core..str..pattern..Pattern$GT$12is_prefix_of17hecac73ab8c1da16fE:
	.cfi_startproc
	pushq	%rbp
	.cfi_def_cfa_offset 16
	.cfi_offset %rbp, -16
	movq	%rsp, %rbp
	.cfi_def_cfa_register %rbp
	subq	$96, %rsp
	movq	%rdx, -32(%rbp)
	movq	%rcx, -24(%rbp)
	movq	-32(%rbp), %rax
	movq	-24(%rbp), %rcx
	movq	%rdi, -40(%rbp)
	movq	%rsi, -48(%rbp)
	movq	%rax, -56(%rbp)
	movq	%rcx, -64(%rbp)
	movq	-40(%rbp), %rax
	movq	%rax, -16(%rbp)
	movq	-48(%rbp), %rcx
	movq	%rcx, -8(%rbp)
	movq	-16(%rbp), %rdx
	movq	-8(%rbp), %rcx
	movq	%rdx, -72(%rbp)
	movq	%rcx, -80(%rbp)
	movq	-56(%rbp), %rdi
	movq	-64(%rbp), %rsi
	movq	-72(%rbp), %rdx
	movq	-80(%rbp), %rcx
	callq	__ZN4core5slice29_$LT$impl$u20$$u5b$T$u5d$$GT$11starts_with17h8297af70c6c4c14cE
	movb	%al, -81(%rbp)
	movb	-81(%rbp), %al
	andb	$1, %al
	movzbl	%al, %eax
	addq	$96, %rsp
	popq	%rbp
	retq
	.cfi_endproc

	.p2align	4, 0x90
__ZN5alloc11collections5btree16unwrap_unchecked28_$u7b$$u7b$closure$u7d$$u7d$17h79e4bc62509c72ffE:
	.cfi_startproc
	pushq	%rbp
	.cfi_def_cfa_offset 16
	.cfi_offset %rbp, -16
	movq	%rsp, %rbp
	.cfi_def_cfa_register %rbp
	ud2
	.cfi_endproc

	.p2align	4, 0x90
__ZN5alloc11collections5btree16unwrap_unchecked28_$u7b$$u7b$closure$u7d$$u7d$17ha1984752283fbbddE:
	.cfi_startproc
	pushq	%rbp
	.cfi_def_cfa_offset 16
	.cfi_offset %rbp, -16
	movq	%rsp, %rbp
	.cfi_def_cfa_register %rbp
	ud2
	.cfi_endproc

	.p2align	4, 0x90
__ZN5alloc11collections5btree3map17full_range_search17h253db37ea08e39a5E:
	.cfi_startproc
	pushq	%rbp
	.cfi_def_cfa_offset 16
	.cfi_offset %rbp, -16
	movq	%rsp, %rbp
	.cfi_def_cfa_register %rbp
	subq	$832, %rsp
	movq	%rdi, %rax
	leaq	-760(%rbp), %rcx
	movq	%rdi, -768(%rbp)
	movq	%rcx, %rdi
	movq	%rsi, -776(%rbp)
	movq	%rax, -784(%rbp)
	callq	__ZN4core3ptr4read17h77411f2cf273c0a4E
	movq	-776(%rbp), %rax
	movq	(%rax), %rcx
	movq	%rcx, -736(%rbp)
	movq	8(%rax), %rcx
	movq	%rcx, -728(%rbp)
	movq	16(%rax), %rcx
	movq	%rcx, -720(%rbp)
LBB258_2:
	movq	-760(%rbp), %rax
	movq	%rax, -680(%rbp)
	movq	-752(%rbp), %rax
	movq	%rax, -672(%rbp)
	movq	-744(%rbp), %rax
	movq	%rax, -664(%rbp)
	leaq	-712(%rbp), %rdi
	leaq	-680(%rbp), %rsi
	callq	__ZN5alloc11collections5btree4node40NodeRef$LT$BorrowType$C$K$C$V$C$Type$GT$10first_edge17h7afb4c3a4968aa83E
	movq	-736(%rbp), %rax
	movq	%rax, -624(%rbp)
	movq	-728(%rbp), %rax
	movq	%rax, -616(%rbp)
	movq	-720(%rbp), %rax
	movq	%rax, -608(%rbp)
	leaq	-656(%rbp), %rdi
	leaq	-624(%rbp), %rsi
	callq	__ZN5alloc11collections5btree4node40NodeRef$LT$BorrowType$C$K$C$V$C$Type$GT$9last_edge17hefcc7f7d61a78155E
	movq	-712(%rbp), %rax
	movq	%rax, -480(%rbp)
	movq	-704(%rbp), %rax
	movq	%rax, -472(%rbp)
	movq	-696(%rbp), %rax
	movq	%rax, -464(%rbp)
	movq	-688(%rbp), %rax
	movq	%rax, -456(%rbp)
	leaq	-520(%rbp), %rdi
	leaq	-480(%rbp), %rsi
	callq	__ZN5alloc11collections5btree4node151Handle$LT$alloc..collections..btree..node..NodeRef$LT$BorrowType$C$K$C$V$C$alloc..collections..btree..node..marker..LeafOrInternal$GT$$C$HandleType$GT$5force17hb5448edb27413fbcE
	movq	-656(%rbp), %rax
	movq	%rax, -408(%rbp)
	movq	-648(%rbp), %rax
	movq	%rax, -400(%rbp)
	movq	-640(%rbp), %rax
	movq	%rax, -392(%rbp)
	movq	-632(%rbp), %rax
	movq	%rax, -384(%rbp)
	leaq	-448(%rbp), %rdi
	leaq	-408(%rbp), %rsi
	callq	__ZN5alloc11collections5btree4node151Handle$LT$alloc..collections..btree..node..NodeRef$LT$BorrowType$C$K$C$V$C$alloc..collections..btree..node..marker..LeafOrInternal$GT$$C$HandleType$GT$5force17hb5448edb27413fbcE
	movq	-488(%rbp), %rax
	movq	%rax, -568(%rbp)
	movq	-496(%rbp), %rax
	movq	%rax, -576(%rbp)
	movq	-504(%rbp), %rax
	movq	%rax, -584(%rbp)
	movq	-520(%rbp), %rax
	movq	-512(%rbp), %rcx
	movq	%rcx, -592(%rbp)
	movq	%rax, -600(%rbp)
	movq	-416(%rbp), %rax
	movq	%rax, -528(%rbp)
	movq	-424(%rbp), %rax
	movq	%rax, -536(%rbp)
	movq	-432(%rbp), %rax
	movq	%rax, -544(%rbp)
	movq	-448(%rbp), %rax
	movq	-440(%rbp), %rcx
	movq	%rcx, -552(%rbp)
	movq	%rax, -560(%rbp)
	movq	-600(%rbp), %rax
	testq	%rax, %rax
	movq	%rax, -792(%rbp)
	je	LBB258_7
	jmp	LBB258_16
LBB258_16:
	movq	-792(%rbp), %rax
	subq	$1, %rax
	je	LBB258_9
	jmp	LBB258_8
LBB258_7:
	cmpq	$0, -560(%rbp)
	je	LBB258_10
LBB258_8:
	movq	l___unnamed_10(%rip), %rax
	movq	l___unnamed_11(%rip), %rcx
	movq	%rcx, -8(%rbp)
	movq	-8(%rbp), %rdi
	leaq	__ZN44_$LT$$RF$T$u20$as$u20$core..fmt..Display$GT$3fmt17h1ff2b65870c79ceaE(%rip), %rsi
	movq	%rax, -800(%rbp)
	callq	__ZN4core3fmt10ArgumentV13new17hc49d021bc2a935acE
	movq	%rax, -808(%rbp)
	movq	%rdx, -816(%rbp)
	jmp	LBB258_14
LBB258_9:
	cmpq	$1, -560(%rbp)
	je	LBB258_11
	jmp	LBB258_8
LBB258_10:
	movq	-592(%rbp), %rax
	movq	%rax, -376(%rbp)
	movq	-584(%rbp), %rax
	movq	%rax, -368(%rbp)
	movq	-576(%rbp), %rax
	movq	%rax, -360(%rbp)
	movq	-568(%rbp), %rax
	movq	%rax, -352(%rbp)
	movq	-552(%rbp), %rax
	movq	%rax, -344(%rbp)
	movq	-544(%rbp), %rax
	movq	%rax, -336(%rbp)
	movq	-536(%rbp), %rax
	movq	%rax, -328(%rbp)
	movq	-528(%rbp), %rax
	movq	%rax, -320(%rbp)
	movq	-376(%rbp), %rax
	movq	%rax, -312(%rbp)
	movq	-368(%rbp), %rax
	movq	%rax, -304(%rbp)
	movq	-360(%rbp), %rax
	movq	%rax, -296(%rbp)
	movq	-352(%rbp), %rax
	movq	%rax, -288(%rbp)
	movq	-344(%rbp), %rax
	movq	%rax, -280(%rbp)
	movq	-336(%rbp), %rax
	movq	%rax, -272(%rbp)
	movq	-328(%rbp), %rax
	movq	%rax, -264(%rbp)
	movq	-320(%rbp), %rax
	movq	%rax, -256(%rbp)
	movq	-312(%rbp), %rax
	movq	-768(%rbp), %rcx
	movq	%rax, (%rcx)
	movq	-304(%rbp), %rax
	movq	%rax, 8(%rcx)
	movq	-296(%rbp), %rax
	movq	%rax, 16(%rcx)
	movq	-288(%rbp), %rax
	movq	%rax, 24(%rcx)
	movq	-280(%rbp), %rax
	movq	%rax, 32(%rcx)
	movq	-272(%rbp), %rax
	movq	%rax, 40(%rcx)
	movq	-264(%rbp), %rax
	movq	%rax, 48(%rcx)
	movq	-256(%rbp), %rax
	movq	%rax, 56(%rcx)
	movq	-784(%rbp), %rax
	addq	$832, %rsp
	popq	%rbp
	retq
LBB258_11:
	movq	-592(%rbp), %rax
	movq	%rax, -248(%rbp)
	movq	-584(%rbp), %rax
	movq	%rax, -240(%rbp)
	movq	-576(%rbp), %rax
	movq	%rax, -232(%rbp)
	movq	-568(%rbp), %rax
	movq	%rax, -224(%rbp)
	movq	-552(%rbp), %rax
	movq	%rax, -216(%rbp)
	movq	-544(%rbp), %rax
	movq	%rax, -208(%rbp)
	movq	-536(%rbp), %rax
	movq	%rax, -200(%rbp)
	movq	-528(%rbp), %rax
	movq	%rax, -192(%rbp)
	movq	-248(%rbp), %rax
	movq	%rax, -160(%rbp)
	movq	-240(%rbp), %rax
	movq	%rax, -152(%rbp)
	movq	-232(%rbp), %rax
	movq	%rax, -144(%rbp)
	movq	-224(%rbp), %rax
	movq	%rax, -136(%rbp)
	leaq	-184(%rbp), %rdi
	leaq	-160(%rbp), %rsi
	callq	__ZN5alloc11collections5btree4node180Handle$LT$alloc..collections..btree..node..NodeRef$LT$BorrowType$C$K$C$V$C$alloc..collections..btree..node..marker..Internal$GT$$C$alloc..collections..btree..node..marker..Edge$GT$7descend17h2379981e18590942E
	movq	-184(%rbp), %rax
	movq	%rax, -760(%rbp)
	movq	-176(%rbp), %rax
	movq	%rax, -752(%rbp)
	movq	-168(%rbp), %rax
	movq	%rax, -744(%rbp)
	movq	-216(%rbp), %rax
	movq	%rax, -104(%rbp)
	movq	-208(%rbp), %rax
	movq	%rax, -96(%rbp)
	movq	-200(%rbp), %rax
	movq	%rax, -88(%rbp)
	movq	-192(%rbp), %rax
	movq	%rax, -80(%rbp)
	leaq	-128(%rbp), %rdi
	leaq	-104(%rbp), %rsi
	callq	__ZN5alloc11collections5btree4node180Handle$LT$alloc..collections..btree..node..NodeRef$LT$BorrowType$C$K$C$V$C$alloc..collections..btree..node..marker..Internal$GT$$C$alloc..collections..btree..node..marker..Edge$GT$7descend17h2379981e18590942E
	movq	-128(%rbp), %rax
	movq	%rax, -736(%rbp)
	movq	-120(%rbp), %rax
	movq	%rax, -728(%rbp)
	movq	-112(%rbp), %rax
	movq	%rax, -720(%rbp)
	jmp	LBB258_2
LBB258_14:
	movq	-808(%rbp), %rax
	movq	%rax, -24(%rbp)
	movq	-816(%rbp), %rcx
	movq	%rcx, -16(%rbp)
	leaq	-24(%rbp), %rdx
	leaq	-72(%rbp), %rdi
	movq	-800(%rbp), %rsi
	movl	$1, %r8d
	movq	%rdx, -824(%rbp)
	movq	%r8, %rdx
	movq	-824(%rbp), %rcx
	callq	__ZN4core3fmt9Arguments6new_v117h21ac6b13baa6b795E
	leaq	l___unnamed_6(%rip), %rsi
	leaq	-72(%rbp), %rdi
	callq	__ZN4core9panicking9panic_fmt17hfce5b7173905fc53E
	.cfi_endproc

	.p2align	4, 0x90
__ZN5alloc11collections5btree4node104Handle$LT$alloc..collections..btree..node..NodeRef$LT$BorrowType$C$K$C$V$C$NodeType$GT$$C$HandleType$GT$8reborrow17hb56fbdc377b034adE:
	.cfi_startproc
	pushq	%rbp
	.cfi_def_cfa_offset 16
	.cfi_offset %rbp, -16
	movq	%rsp, %rbp
	.cfi_def_cfa_register %rbp
	subq	$64, %rsp
	movq	%rdi, %rax
	movq	%rsi, %rcx
	leaq	-32(%rbp), %rdx
	movq	%rdi, -40(%rbp)
	movq	%rdx, %rdi
	movq	%rsi, -48(%rbp)
	movq	%rcx, %rsi
	movq	%rax, -56(%rbp)
	callq	__ZN5alloc11collections5btree4node40NodeRef$LT$BorrowType$C$K$C$V$C$Type$GT$8reborrow17h3a1cae4e27748942E
	movq	-48(%rbp), %rax
	movq	24(%rax), %rcx
	movq	-32(%rbp), %rdx
	movq	-40(%rbp), %rsi
	movq	%rdx, (%rsi)
	movq	-24(%rbp), %rdx
	movq	%rdx, 8(%rsi)
	movq	-16(%rbp), %rdx
	movq	%rdx, 16(%rsi)
	movq	%rcx, 24(%rsi)
	movq	-56(%rbp), %rax
	addq	$64, %rsp
	popq	%rbp
	retq
	.cfi_endproc

	.p2align	4, 0x90
__ZN5alloc11collections5btree4node127NodeRef$LT$alloc..collections..btree..node..marker..Owned$C$K$C$V$C$alloc..collections..btree..node..marker..LeafOrInternal$GT$21deallocate_and_ascend17ha0dc5d2b6808c53fE:
	.cfi_startproc
	pushq	%rbp
	.cfi_def_cfa_offset 16
	.cfi_offset %rbp, -16
	movq	%rsp, %rbp
	.cfi_def_cfa_register %rbp
	subq	$128, %rsp
	movq	%rdi, %rax
	movq	(%rsi), %rcx
	movq	8(%rsi), %rdx
	movq	(%rsi), %r8
	movq	%r8, -48(%rbp)
	movq	8(%rsi), %r8
	movq	%r8, -40(%rbp)
	movq	16(%rsi), %rsi
	movq	%rsi, -32(%rbp)
	leaq	-88(%rbp), %rsi
	movq	%rdi, -96(%rbp)
	movq	%rsi, %rdi
	leaq	-48(%rbp), %rsi
	movq	%rax, -104(%rbp)
	movq	%rcx, -112(%rbp)
	movq	%rdx, -120(%rbp)
	callq	__ZN5alloc11collections5btree4node40NodeRef$LT$BorrowType$C$K$C$V$C$Type$GT$6ascend17hc09aea175d8f3e39E
	movq	-96(%rbp), %rdi
	leaq	-88(%rbp), %rsi
	callq	__ZN4core6result19Result$LT$T$C$E$GT$2ok17h0773941b3587987aE
	movq	-120(%rbp), %rdi
	callq	__ZN4core3ptr8non_null16NonNull$LT$T$GT$4cast17hd7a714585968ecccE
	movq	%rax, -128(%rbp)
	movq	-112(%rbp), %rax
	cmpq	$0, %rax
	ja	LBB260_5
	callq	__ZN4core5alloc6layout6Layout3new17h5c70817143d64cbcE
	movq	%rdx, -8(%rbp)
	movq	%rax, -16(%rbp)
	jmp	LBB260_6
LBB260_5:
	callq	__ZN4core5alloc6layout6Layout3new17hd67d8546e2851f7eE
	movq	%rdx, -8(%rbp)
	movq	%rax, -16(%rbp)
LBB260_6:
	movq	-16(%rbp), %rdx
	movq	-8(%rbp), %rcx
	leaq	-24(%rbp), %rdi
	movq	-128(%rbp), %rsi
	callq	__ZN62_$LT$alloc..alloc..Global$u20$as$u20$core..alloc..AllocRef$GT$7dealloc17h09b15319db2ba86fE
	movq	-104(%rbp), %rax
	addq	$128, %rsp
	popq	%rbp
	retq
	.cfi_endproc

	.p2align	4, 0x90
__ZN5alloc11collections5btree4node137Handle$LT$alloc..collections..btree..node..NodeRef$LT$BorrowType$C$K$C$V$C$NodeType$GT$$C$alloc..collections..btree..node..marker..KV$GT$10right_edge17h95766002d7f4a9f8E:
	.cfi_startproc
	pushq	%rbp
	.cfi_def_cfa_offset 16
	.cfi_offset %rbp, -16
	movq	%rsp, %rbp
	.cfi_def_cfa_register %rbp
	subq	$32, %rsp
	movq	%rdi, %rax
	movq	(%rsi), %rcx
	movq	%rcx, -24(%rbp)
	movq	8(%rsi), %rcx
	movq	%rcx, -16(%rbp)
	movq	16(%rsi), %rcx
	movq	%rcx, -8(%rbp)
	movq	24(%rsi), %rcx
	addq	$1, %rcx
	leaq	-24(%rbp), %rsi
	movq	%rcx, %rdx
	movq	%rax, -32(%rbp)
	callq	__ZN5alloc11collections5btree4node139Handle$LT$alloc..collections..btree..node..NodeRef$LT$BorrowType$C$K$C$V$C$NodeType$GT$$C$alloc..collections..btree..node..marker..Edge$GT$8new_edge17h0ed3a36e835aaa04E
	movq	-32(%rbp), %rax
	addq	$32, %rsp
	popq	%rbp
	retq
	.cfi_endproc

	.p2align	4, 0x90
__ZN5alloc11collections5btree4node137Handle$LT$alloc..collections..btree..node..NodeRef$LT$BorrowType$C$K$C$V$C$NodeType$GT$$C$alloc..collections..btree..node..marker..KV$GT$10right_edge17he457a6e79d57846eE:
	.cfi_startproc
	pushq	%rbp
	.cfi_def_cfa_offset 16
	.cfi_offset %rbp, -16
	movq	%rsp, %rbp
	.cfi_def_cfa_register %rbp
	subq	$32, %rsp
	movq	%rdi, %rax
	movq	(%rsi), %rcx
	movq	%rcx, -24(%rbp)
	movq	8(%rsi), %rcx
	movq	%rcx, -16(%rbp)
	movq	16(%rsi), %rcx
	movq	%rcx, -8(%rbp)
	movq	24(%rsi), %rcx
	addq	$1, %rcx
	leaq	-24(%rbp), %rsi
	movq	%rcx, %rdx
	movq	%rax, -32(%rbp)
	callq	__ZN5alloc11collections5btree4node139Handle$LT$alloc..collections..btree..node..NodeRef$LT$BorrowType$C$K$C$V$C$NodeType$GT$$C$alloc..collections..btree..node..marker..Edge$GT$8new_edge17h4485b33747ba4527E
	movq	-32(%rbp), %rax
	addq	$32, %rsp
	popq	%rbp
	retq
	.cfi_endproc

	.p2align	4, 0x90
__ZN5alloc11collections5btree4node137Handle$LT$alloc..collections..btree..node..NodeRef$LT$BorrowType$C$K$C$V$C$NodeType$GT$$C$alloc..collections..btree..node..marker..KV$GT$6new_kv17h51f26b0dde753cf3E:
	.cfi_startproc
	pushq	%rbp
	.cfi_def_cfa_offset 16
	.cfi_offset %rbp, -16
	movq	%rsp, %rbp
	.cfi_def_cfa_register %rbp
	subq	$24, %rsp
	movq	%rdi, %rax
	movq	(%rsi), %rcx
	movq	%rcx, -24(%rbp)
	movq	8(%rsi), %rcx
	movq	%rcx, -16(%rbp)
	movq	16(%rsi), %rcx
	movq	%rcx, -8(%rbp)
	movq	-24(%rbp), %rcx
	movq	%rcx, (%rdi)
	movq	-16(%rbp), %rcx
	movq	%rcx, 8(%rdi)
	movq	-8(%rbp), %rcx
	movq	%rcx, 16(%rdi)
	movq	%rdx, 24(%rdi)
	addq	$24, %rsp
	popq	%rbp
	retq
	.cfi_endproc

	.p2align	4, 0x90
__ZN5alloc11collections5btree4node139Handle$LT$alloc..collections..btree..node..NodeRef$LT$BorrowType$C$K$C$V$C$NodeType$GT$$C$alloc..collections..btree..node..marker..Edge$GT$8new_edge17h0ed3a36e835aaa04E:
	.cfi_startproc
	pushq	%rbp
	.cfi_def_cfa_offset 16
	.cfi_offset %rbp, -16
	movq	%rsp, %rbp
	.cfi_def_cfa_register %rbp
	subq	$24, %rsp
	movq	%rdi, %rax
	movq	(%rsi), %rcx
	movq	%rcx, -24(%rbp)
	movq	8(%rsi), %rcx
	movq	%rcx, -16(%rbp)
	movq	16(%rsi), %rcx
	movq	%rcx, -8(%rbp)
	movq	-24(%rbp), %rcx
	movq	%rcx, (%rdi)
	movq	-16(%rbp), %rcx
	movq	%rcx, 8(%rdi)
	movq	-8(%rbp), %rcx
	movq	%rcx, 16(%rdi)
	movq	%rdx, 24(%rdi)
	addq	$24, %rsp
	popq	%rbp
	retq
	.cfi_endproc

	.p2align	4, 0x90
__ZN5alloc11collections5btree4node139Handle$LT$alloc..collections..btree..node..NodeRef$LT$BorrowType$C$K$C$V$C$NodeType$GT$$C$alloc..collections..btree..node..marker..Edge$GT$8new_edge17h4485b33747ba4527E:
	.cfi_startproc
	pushq	%rbp
	.cfi_def_cfa_offset 16
	.cfi_offset %rbp, -16
	movq	%rsp, %rbp
	.cfi_def_cfa_register %rbp
	subq	$24, %rsp
	movq	%rdi, %rax
	movq	(%rsi), %rcx
	movq	%rcx, -24(%rbp)
	movq	8(%rsi), %rcx
	movq	%rcx, -16(%rbp)
	movq	16(%rsi), %rcx
	movq	%rcx, -8(%rbp)
	movq	-24(%rbp), %rcx
	movq	%rcx, (%rdi)
	movq	-16(%rbp), %rcx
	movq	%rcx, 8(%rdi)
	movq	-8(%rbp), %rcx
	movq	%rcx, 16(%rdi)
	movq	%rdx, 24(%rdi)
	addq	$24, %rsp
	popq	%rbp
	retq
	.cfi_endproc

	.p2align	4, 0x90
__ZN5alloc11collections5btree4node139Handle$LT$alloc..collections..btree..node..NodeRef$LT$BorrowType$C$K$C$V$C$NodeType$GT$$C$alloc..collections..btree..node..marker..Edge$GT$8new_edge17h90b698292183c46bE:
	.cfi_startproc
	pushq	%rbp
	.cfi_def_cfa_offset 16
	.cfi_offset %rbp, -16
	movq	%rsp, %rbp
	.cfi_def_cfa_register %rbp
	subq	$24, %rsp
	movq	%rdi, %rax
	movq	(%rsi), %rcx
	movq	%rcx, -24(%rbp)
	movq	8(%rsi), %rcx
	movq	%rcx, -16(%rbp)
	movq	16(%rsi), %rcx
	movq	%rcx, -8(%rbp)
	movq	-24(%rbp), %rcx
	movq	%rcx, (%rdi)
	movq	-16(%rbp), %rcx
	movq	%rcx, 8(%rdi)
	movq	-8(%rbp), %rcx
	movq	%rcx, 16(%rdi)
	movq	%rdx, 24(%rdi)
	addq	$24, %rsp
	popq	%rbp
	retq
	.cfi_endproc

	.p2align	4, 0x90
__ZN5alloc11collections5btree4node139Handle$LT$alloc..collections..btree..node..NodeRef$LT$BorrowType$C$K$C$V$C$NodeType$GT$$C$alloc..collections..btree..node..marker..Edge$GT$8right_kv17h3abf52b2138c48e4E:
	.cfi_startproc
	pushq	%rbp
	.cfi_def_cfa_offset 16
	.cfi_offset %rbp, -16
	movq	%rsp, %rbp
	.cfi_def_cfa_register %rbp
	subq	$128, %rsp
	movq	%rdi, %rax
	movq	24(%rsi), %rcx
	movq	%rsi, %rdx
	movq	%rdi, -96(%rbp)
	movq	%rdx, %rdi
	movq	%rsi, -104(%rbp)
	movq	%rax, -112(%rbp)
	movq	%rcx, -120(%rbp)
	callq	__ZN5alloc11collections5btree4node40NodeRef$LT$BorrowType$C$K$C$V$C$Type$GT$3len17h5a498125c9f7c4bbE
	movq	%rax, -128(%rbp)
	movq	-120(%rbp), %rax
	movq	-128(%rbp), %rcx
	cmpq	%rcx, %rax
	jb	LBB267_3
	movq	-104(%rbp), %rax
	movq	(%rax), %rcx
	movq	%rcx, -32(%rbp)
	movq	8(%rax), %rcx
	movq	%rcx, -24(%rbp)
	movq	16(%rax), %rcx
	movq	%rcx, -16(%rbp)
	movq	24(%rax), %rcx
	movq	%rcx, -8(%rbp)
	movq	-32(%rbp), %rcx
	movq	-96(%rbp), %rdx
	movq	%rcx, 8(%rdx)
	movq	-24(%rbp), %rcx
	movq	%rcx, 16(%rdx)
	movq	-16(%rbp), %rcx
	movq	%rcx, 24(%rdx)
	movq	-8(%rbp), %rcx
	movq	%rcx, 32(%rdx)
	movq	$1, (%rdx)
	jmp	LBB267_5
LBB267_3:
	movq	-104(%rbp), %rax
	movq	(%rax), %rcx
	movq	%rcx, -56(%rbp)
	movq	8(%rax), %rcx
	movq	%rcx, -48(%rbp)
	movq	16(%rax), %rcx
	movq	%rcx, -40(%rbp)
	movq	24(%rax), %rdx
	leaq	-88(%rbp), %rdi
	leaq	-56(%rbp), %rsi
	callq	__ZN5alloc11collections5btree4node137Handle$LT$alloc..collections..btree..node..NodeRef$LT$BorrowType$C$K$C$V$C$NodeType$GT$$C$alloc..collections..btree..node..marker..KV$GT$6new_kv17h51f26b0dde753cf3E
	movq	-88(%rbp), %rax
	movq	-96(%rbp), %rcx
	movq	%rax, 8(%rcx)
	movq	-80(%rbp), %rax
	movq	%rax, 16(%rcx)
	movq	-72(%rbp), %rax
	movq	%rax, 24(%rcx)
	movq	-64(%rbp), %rax
	movq	%rax, 32(%rcx)
	movq	$0, (%rcx)
LBB267_5:
	movq	-112(%rbp), %rax
	addq	$128, %rsp
	popq	%rbp
	retq
	.cfi_endproc

	.p2align	4, 0x90
__ZN5alloc11collections5btree4node151Handle$LT$alloc..collections..btree..node..NodeRef$LT$BorrowType$C$K$C$V$C$alloc..collections..btree..node..marker..LeafOrInternal$GT$$C$HandleType$GT$5force17hb5448edb27413fbcE:
	.cfi_startproc
	pushq	%rbp
	.cfi_def_cfa_offset 16
	.cfi_offset %rbp, -16
	movq	%rsp, %rbp
	.cfi_def_cfa_register %rbp
	subq	$256, %rsp
	movq	%rdi, %rax
	movq	(%rsi), %rcx
	movq	%rcx, -200(%rbp)
	movq	8(%rsi), %rcx
	movq	%rcx, -192(%rbp)
	movq	16(%rsi), %rcx
	movq	%rcx, -184(%rbp)
	leaq	-232(%rbp), %rcx
	movq	%rdi, -240(%rbp)
	movq	%rcx, %rdi
	leaq	-200(%rbp), %rcx
	movq	%rsi, -248(%rbp)
	movq	%rcx, %rsi
	movq	%rax, -256(%rbp)
	callq	__ZN5alloc11collections5btree4node91NodeRef$LT$BorrowType$C$K$C$V$C$alloc..collections..btree..node..marker..LeafOrInternal$GT$5force17h9715416fc47b1942E
	movq	-232(%rbp), %rax
	testq	%rax, %rax
	je	LBB268_4
	jmp	LBB268_6
LBB268_6:
	movq	-224(%rbp), %rax
	movq	%rax, -88(%rbp)
	movq	-216(%rbp), %rax
	movq	%rax, -80(%rbp)
	movq	-208(%rbp), %rax
	movq	%rax, -72(%rbp)
	movq	-88(%rbp), %rax
	movq	%rax, -32(%rbp)
	movq	-80(%rbp), %rax
	movq	%rax, -24(%rbp)
	movq	-72(%rbp), %rax
	movq	%rax, -16(%rbp)
	movq	-248(%rbp), %rax
	movq	24(%rax), %rcx
	movq	-32(%rbp), %rdx
	movq	%rdx, -64(%rbp)
	movq	-24(%rbp), %rdx
	movq	%rdx, -56(%rbp)
	movq	-16(%rbp), %rdx
	movq	%rdx, -48(%rbp)
	movq	%rcx, -40(%rbp)
	movq	-64(%rbp), %rcx
	movq	-240(%rbp), %rdx
	movq	%rcx, 8(%rdx)
	movq	-56(%rbp), %rcx
	movq	%rcx, 16(%rdx)
	movq	-48(%rbp), %rcx
	movq	%rcx, 24(%rdx)
	movq	-40(%rbp), %rcx
	movq	%rcx, 32(%rdx)
	movq	$1, (%rdx)
	jmp	LBB268_5
	ud2
LBB268_4:
	movq	-224(%rbp), %rax
	movq	%rax, -176(%rbp)
	movq	-216(%rbp), %rax
	movq	%rax, -168(%rbp)
	movq	-208(%rbp), %rax
	movq	%rax, -160(%rbp)
	movq	-176(%rbp), %rax
	movq	%rax, -120(%rbp)
	movq	-168(%rbp), %rax
	movq	%rax, -112(%rbp)
	movq	-160(%rbp), %rax
	movq	%rax, -104(%rbp)
	movq	-248(%rbp), %rax
	movq	24(%rax), %rcx
	movq	-120(%rbp), %rdx
	movq	%rdx, -152(%rbp)
	movq	-112(%rbp), %rdx
	movq	%rdx, -144(%rbp)
	movq	-104(%rbp), %rdx
	movq	%rdx, -136(%rbp)
	movq	%rcx, -128(%rbp)
	movq	-152(%rbp), %rcx
	movq	-240(%rbp), %rdx
	movq	%rcx, 8(%rdx)
	movq	-144(%rbp), %rcx
	movq	%rcx, 16(%rdx)
	movq	-136(%rbp), %rcx
	movq	%rcx, 24(%rdx)
	movq	-128(%rbp), %rcx
	movq	%rcx, 32(%rdx)
	movq	$0, (%rdx)
LBB268_5:
	movq	-256(%rbp), %rax
	addq	$256, %rsp
	popq	%rbp
	retq
	.cfi_endproc

	.p2align	4, 0x90
__ZN5alloc11collections5btree4node151Handle$LT$alloc..collections..btree..node..NodeRef$LT$BorrowType$C$K$C$V$C$alloc..collections..btree..node..marker..LeafOrInternal$GT$$C$HandleType$GT$5force17he7fed0129a8a84e6E:
	.cfi_startproc
	pushq	%rbp
	.cfi_def_cfa_offset 16
	.cfi_offset %rbp, -16
	movq	%rsp, %rbp
	.cfi_def_cfa_register %rbp
	subq	$256, %rsp
	movq	%rdi, %rax
	movq	(%rsi), %rcx
	movq	%rcx, -200(%rbp)
	movq	8(%rsi), %rcx
	movq	%rcx, -192(%rbp)
	movq	16(%rsi), %rcx
	movq	%rcx, -184(%rbp)
	leaq	-232(%rbp), %rcx
	movq	%rdi, -240(%rbp)
	movq	%rcx, %rdi
	leaq	-200(%rbp), %rcx
	movq	%rsi, -248(%rbp)
	movq	%rcx, %rsi
	movq	%rax, -256(%rbp)
	callq	__ZN5alloc11collections5btree4node91NodeRef$LT$BorrowType$C$K$C$V$C$alloc..collections..btree..node..marker..LeafOrInternal$GT$5force17h9715416fc47b1942E
	movq	-232(%rbp), %rax
	testq	%rax, %rax
	je	LBB269_4
	jmp	LBB269_6
LBB269_6:
	movq	-224(%rbp), %rax
	movq	%rax, -88(%rbp)
	movq	-216(%rbp), %rax
	movq	%rax, -80(%rbp)
	movq	-208(%rbp), %rax
	movq	%rax, -72(%rbp)
	movq	-88(%rbp), %rax
	movq	%rax, -32(%rbp)
	movq	-80(%rbp), %rax
	movq	%rax, -24(%rbp)
	movq	-72(%rbp), %rax
	movq	%rax, -16(%rbp)
	movq	-248(%rbp), %rax
	movq	24(%rax), %rcx
	movq	-32(%rbp), %rdx
	movq	%rdx, -64(%rbp)
	movq	-24(%rbp), %rdx
	movq	%rdx, -56(%rbp)
	movq	-16(%rbp), %rdx
	movq	%rdx, -48(%rbp)
	movq	%rcx, -40(%rbp)
	movq	-64(%rbp), %rcx
	movq	-240(%rbp), %rdx
	movq	%rcx, 8(%rdx)
	movq	-56(%rbp), %rcx
	movq	%rcx, 16(%rdx)
	movq	-48(%rbp), %rcx
	movq	%rcx, 24(%rdx)
	movq	-40(%rbp), %rcx
	movq	%rcx, 32(%rdx)
	movq	$1, (%rdx)
	jmp	LBB269_5
	ud2
LBB269_4:
	movq	-224(%rbp), %rax
	movq	%rax, -176(%rbp)
	movq	-216(%rbp), %rax
	movq	%rax, -168(%rbp)
	movq	-208(%rbp), %rax
	movq	%rax, -160(%rbp)
	movq	-176(%rbp), %rax
	movq	%rax, -120(%rbp)
	movq	-168(%rbp), %rax
	movq	%rax, -112(%rbp)
	movq	-160(%rbp), %rax
	movq	%rax, -104(%rbp)
	movq	-248(%rbp), %rax
	movq	24(%rax), %rcx
	movq	-120(%rbp), %rdx
	movq	%rdx, -152(%rbp)
	movq	-112(%rbp), %rdx
	movq	%rdx, -144(%rbp)
	movq	-104(%rbp), %rdx
	movq	%rdx, -136(%rbp)
	movq	%rcx, -128(%rbp)
	movq	-152(%rbp), %rcx
	movq	-240(%rbp), %rdx
	movq	%rcx, 8(%rdx)
	movq	-144(%rbp), %rcx
	movq	%rcx, 16(%rdx)
	movq	-136(%rbp), %rcx
	movq	%rcx, 24(%rdx)
	movq	-128(%rbp), %rcx
	movq	%rcx, 32(%rdx)
	movq	$0, (%rdx)
LBB269_5:
	movq	-256(%rbp), %rax
	addq	$256, %rsp
	popq	%rbp
	retq
	.cfi_endproc

	.p2align	4, 0x90
__ZN5alloc11collections5btree4node173Handle$LT$alloc..collections..btree..node..NodeRef$LT$alloc..collections..btree..node..marker..Immut$C$K$C$V$C$NodeType$GT$$C$alloc..collections..btree..node..marker..KV$GT$7into_kv17h1fb027bc470defe5E:
	.cfi_startproc
	pushq	%rbp
	.cfi_def_cfa_offset 16
	.cfi_offset %rbp, -16
	movq	%rsp, %rbp
	.cfi_def_cfa_register %rbp
	subq	$112, %rsp
	movq	(%rdi), %rax
	movq	%rax, -24(%rbp)
	movq	8(%rdi), %rax
	movq	%rax, -16(%rbp)
	movq	16(%rdi), %rax
	movq	%rax, -8(%rbp)
	leaq	-56(%rbp), %rax
	movq	%rdi, -80(%rbp)
	movq	%rax, %rdi
	leaq	-24(%rbp), %rsi
	callq	__ZN5alloc11collections5btree4node76NodeRef$LT$alloc..collections..btree..node..marker..Immut$C$K$C$V$C$Type$GT$11into_slices17hbab41c2271fd49ceE
	movq	-56(%rbp), %rdi
	movq	-48(%rbp), %rsi
	movq	-40(%rbp), %rax
	movq	-32(%rbp), %rcx
	movq	-80(%rbp), %rdx
	movq	24(%rdx), %rdx
	movq	%rax, -88(%rbp)
	movq	%rcx, -96(%rbp)
	callq	__ZN4core5slice29_$LT$impl$u20$$u5b$T$u5d$$GT$13get_unchecked17h374a78c2c63cebc4E
	movq	%rax, -104(%rbp)
	movq	-80(%rbp), %rax
	movq	24(%rax), %rdx
	movq	-88(%rbp), %rdi
	movq	-96(%rbp), %rsi
	callq	__ZN4core5slice29_$LT$impl$u20$$u5b$T$u5d$$GT$13get_unchecked17h7ab2fc7e42a25e3cE
	movq	%rax, -112(%rbp)
	movq	-104(%rbp), %rax
	movq	%rax, -72(%rbp)
	movq	-112(%rbp), %rcx
	movq	%rcx, -64(%rbp)
	movq	-72(%rbp), %rax
	movq	-64(%rbp), %rdx
	addq	$112, %rsp
	popq	%rbp
	retq
	.cfi_endproc

	.p2align	4, 0x90
__ZN5alloc11collections5btree4node176Handle$LT$alloc..collections..btree..node..NodeRef$LT$BorrowType$C$K$C$V$C$alloc..collections..btree..node..marker..Leaf$GT$$C$alloc..collections..btree..node..marker..Edge$GT$16forget_node_type17ha81b52577e6d4b0dE:
	.cfi_startproc
	pushq	%rbp
	.cfi_def_cfa_offset 16
	.cfi_offset %rbp, -16
	movq	%rsp, %rbp
	.cfi_def_cfa_register %rbp
	subq	$80, %rsp
	movq	%rdi, %rax
	movq	(%rsi), %rcx
	movq	%rcx, -24(%rbp)
	movq	8(%rsi), %rcx
	movq	%rcx, -16(%rbp)
	movq	16(%rsi), %rcx
	movq	%rcx, -8(%rbp)
	leaq	-48(%rbp), %rcx
	movq	%rdi, -56(%rbp)
	movq	%rcx, %rdi
	leaq	-24(%rbp), %rcx
	movq	%rsi, -64(%rbp)
	movq	%rcx, %rsi
	movq	%rax, -72(%rbp)
	callq	__ZN5alloc11collections5btree4node40NodeRef$LT$BorrowType$C$K$C$V$C$Type$GT$11forget_type17hb33bddfec844286bE
	movq	-64(%rbp), %rax
	movq	24(%rax), %rdx
	movq	-56(%rbp), %rdi
	leaq	-48(%rbp), %rsi
	callq	__ZN5alloc11collections5btree4node139Handle$LT$alloc..collections..btree..node..NodeRef$LT$BorrowType$C$K$C$V$C$NodeType$GT$$C$alloc..collections..btree..node..marker..Edge$GT$8new_edge17h90b698292183c46bE
	movq	-72(%rbp), %rax
	addq	$80, %rsp
	popq	%rbp
	retq
	.cfi_endproc

	.p2align	4, 0x90
__ZN5alloc11collections5btree4node17Root$LT$K$C$V$GT$8into_ref17h7fc8e013ed177e2eE:
	.cfi_startproc
	pushq	%rbp
	.cfi_def_cfa_offset 16
	.cfi_offset %rbp, -16
	movq	%rsp, %rbp
	.cfi_def_cfa_register %rbp
	subq	$48, %rsp
	movq	%rdi, %rax
	movq	%rsi, -16(%rbp)
	movq	%rdx, -8(%rbp)
	movq	-8(%rbp), %rcx
	leaq	-16(%rbp), %rdx
	movq	%rdi, -24(%rbp)
	movq	%rdx, %rdi
	movq	%rax, -32(%rbp)
	movq	%rcx, -40(%rbp)
	callq	__ZN5alloc11collections5btree4node22BoxedNode$LT$K$C$V$GT$6as_ptr17h03a193475a2fc2c3E
	movq	%rax, -48(%rbp)
	jmp	LBB272_2
LBB272_2:
	movq	-24(%rbp), %rax
	movq	-40(%rbp), %rcx
	movq	%rcx, (%rax)
	movq	-48(%rbp), %rdx
	movq	%rdx, 8(%rax)
	movq	$0, 16(%rax)
	movq	-32(%rbp), %rax
	addq	$48, %rsp
	popq	%rbp
	retq
	.cfi_endproc

	.p2align	4, 0x90
__ZN5alloc11collections5btree4node180Handle$LT$alloc..collections..btree..node..NodeRef$LT$BorrowType$C$K$C$V$C$alloc..collections..btree..node..marker..Internal$GT$$C$alloc..collections..btree..node..marker..Edge$GT$16forget_node_type17ha04e636b7dd207bdE:
	.cfi_startproc
	pushq	%rbp
	.cfi_def_cfa_offset 16
	.cfi_offset %rbp, -16
	movq	%rsp, %rbp
	.cfi_def_cfa_register %rbp
	subq	$80, %rsp
	movq	%rdi, %rax
	movq	(%rsi), %rcx
	movq	%rcx, -24(%rbp)
	movq	8(%rsi), %rcx
	movq	%rcx, -16(%rbp)
	movq	16(%rsi), %rcx
	movq	%rcx, -8(%rbp)
	leaq	-48(%rbp), %rcx
	movq	%rdi, -56(%rbp)
	movq	%rcx, %rdi
	leaq	-24(%rbp), %rcx
	movq	%rsi, -64(%rbp)
	movq	%rcx, %rsi
	movq	%rax, -72(%rbp)
	callq	__ZN5alloc11collections5btree4node40NodeRef$LT$BorrowType$C$K$C$V$C$Type$GT$11forget_type17h0d4594357ec2a7ffE
	movq	-64(%rbp), %rax
	movq	24(%rax), %rdx
	movq	-56(%rbp), %rdi
	leaq	-48(%rbp), %rsi
	callq	__ZN5alloc11collections5btree4node139Handle$LT$alloc..collections..btree..node..NodeRef$LT$BorrowType$C$K$C$V$C$NodeType$GT$$C$alloc..collections..btree..node..marker..Edge$GT$8new_edge17h90b698292183c46bE
	movq	-72(%rbp), %rax
	addq	$80, %rsp
	popq	%rbp
	retq
	.cfi_endproc

	.p2align	4, 0x90
__ZN5alloc11collections5btree4node180Handle$LT$alloc..collections..btree..node..NodeRef$LT$BorrowType$C$K$C$V$C$alloc..collections..btree..node..marker..Internal$GT$$C$alloc..collections..btree..node..marker..Edge$GT$7descend17h2379981e18590942E:
	.cfi_startproc
	pushq	%rbp
	.cfi_def_cfa_offset 16
	.cfi_offset %rbp, -16
	movq	%rsp, %rbp
	.cfi_def_cfa_register %rbp
	subq	$80, %rsp
	movq	%rdi, %rax
	movq	(%rsi), %rcx
	subq	$1, %rcx
	movq	%rsi, %rdx
	movq	%rdi, -16(%rbp)
	movq	%rdx, %rdi
	movq	%rsi, -24(%rbp)
	movq	%rax, -32(%rbp)
	movq	%rcx, -40(%rbp)
	callq	__ZN5alloc11collections5btree4node85NodeRef$LT$BorrowType$C$K$C$V$C$alloc..collections..btree..node..marker..Internal$GT$11as_internal17h4f79e95f7a7ee12bE
	movq	%rax, -48(%rbp)
	movq	-48(%rbp), %rax
	addq	$544, %rax
	movq	-24(%rbp), %rcx
	movq	24(%rcx), %rdx
	movq	%rax, %rdi
	movl	$12, %esi
	callq	__ZN4core5slice29_$LT$impl$u20$$u5b$T$u5d$$GT$13get_unchecked17h30d3d05ac767cffaE
	movq	%rax, -56(%rbp)
	movq	-56(%rbp), %rax
	movq	%rax, -64(%rbp)
	movq	-64(%rbp), %rdi
	callq	__ZN5alloc11collections5btree4node22BoxedNode$LT$K$C$V$GT$6as_ptr17h03a193475a2fc2c3E
	movq	%rax, -72(%rbp)
	movq	-24(%rbp), %rax
	movq	16(%rax), %rcx
	movq	-16(%rbp), %rdx
	movq	-40(%rbp), %rsi
	movq	%rsi, (%rdx)
	movq	-72(%rbp), %rdi
	movq	%rdi, 8(%rdx)
	movq	%rcx, 16(%rdx)
	movq	-32(%rbp), %rax
	addq	$80, %rsp
	popq	%rbp
	retq
	.cfi_endproc

	.p2align	4, 0x90
__ZN5alloc11collections5btree4node22BoxedNode$LT$K$C$V$GT$6as_ptr17h03a193475a2fc2c3E:
	.cfi_startproc
	pushq	%rbp
	.cfi_def_cfa_offset 16
	.cfi_offset %rbp, -16
	movq	%rsp, %rbp
	.cfi_def_cfa_register %rbp
	subq	$16, %rsp
	movq	(%rdi), %rdi
	callq	__ZN119_$LT$core..ptr..non_null..NonNull$LT$T$GT$$u20$as$u20$core..convert..From$LT$core..ptr..unique..Unique$LT$T$GT$$GT$$GT$4from17h6ae1f902b7c69c84E
	movq	%rax, -8(%rbp)
	movq	-8(%rbp), %rax
	addq	$16, %rsp
	popq	%rbp
	retq
	.cfi_endproc

	.p2align	4, 0x90
__ZN5alloc11collections5btree4node25Handle$LT$Node$C$Type$GT$9into_node17h2327653f408bc657E:
	.cfi_startproc
	pushq	%rbp
	.cfi_def_cfa_offset 16
	.cfi_offset %rbp, -16
	movq	%rsp, %rbp
	.cfi_def_cfa_register %rbp
	movq	%rdi, %rax
	movq	(%rsi), %rcx
	movq	%rcx, (%rdi)
	movq	8(%rsi), %rcx
	movq	%rcx, 8(%rdi)
	movq	16(%rsi), %rcx
	movq	%rcx, 16(%rdi)
	popq	%rbp
	retq
	.cfi_endproc

	.p2align	4, 0x90
__ZN5alloc11collections5btree4node25Handle$LT$Node$C$Type$GT$9into_node17h23c76c995cb89ef2E:
	.cfi_startproc
	pushq	%rbp
	.cfi_def_cfa_offset 16
	.cfi_offset %rbp, -16
	movq	%rsp, %rbp
	.cfi_def_cfa_register %rbp
	movq	%rdi, %rax
	movq	(%rsi), %rcx
	movq	%rcx, (%rdi)
	movq	8(%rsi), %rcx
	movq	%rcx, 8(%rdi)
	movq	16(%rsi), %rcx
	movq	%rcx, 16(%rdi)
	popq	%rbp
	retq
	.cfi_endproc

	.p2align	4, 0x90
__ZN5alloc11collections5btree4node25Handle$LT$Node$C$Type$GT$9into_node17hd5bfb93ab1f4b71aE:
	.cfi_startproc
	pushq	%rbp
	.cfi_def_cfa_offset 16
	.cfi_offset %rbp, -16
	movq	%rsp, %rbp
	.cfi_def_cfa_register %rbp
	movq	%rdi, %rax
	movq	(%rsi), %rcx
	movq	%rcx, (%rdi)
	movq	8(%rsi), %rcx
	movq	%rcx, 8(%rdi)
	movq	16(%rsi), %rcx
	movq	%rcx, 16(%rdi)
	popq	%rbp
	retq
	.cfi_endproc

	.p2align	4, 0x90
__ZN5alloc11collections5btree4node40NodeRef$LT$BorrowType$C$K$C$V$C$Type$GT$10first_edge17h013ccc7a240454ceE:
	.cfi_startproc
	pushq	%rbp
	.cfi_def_cfa_offset 16
	.cfi_offset %rbp, -16
	movq	%rsp, %rbp
	.cfi_def_cfa_register %rbp
	subq	$32, %rsp
	movq	%rdi, %rax
	xorl	%ecx, %ecx
	movl	%ecx, %edx
	movq	(%rsi), %r8
	movq	%r8, -24(%rbp)
	movq	8(%rsi), %r8
	movq	%r8, -16(%rbp)
	movq	16(%rsi), %rsi
	movq	%rsi, -8(%rbp)
	leaq	-24(%rbp), %rsi
	movq	%rax, -32(%rbp)
	callq	__ZN5alloc11collections5btree4node139Handle$LT$alloc..collections..btree..node..NodeRef$LT$BorrowType$C$K$C$V$C$NodeType$GT$$C$alloc..collections..btree..node..marker..Edge$GT$8new_edge17h4485b33747ba4527E
	movq	-32(%rbp), %rax
	addq	$32, %rsp
	popq	%rbp
	retq
	.cfi_endproc

	.p2align	4, 0x90
__ZN5alloc11collections5btree4node40NodeRef$LT$BorrowType$C$K$C$V$C$Type$GT$10first_edge17h221f4c432935d02eE:
	.cfi_startproc
	pushq	%rbp
	.cfi_def_cfa_offset 16
	.cfi_offset %rbp, -16
	movq	%rsp, %rbp
	.cfi_def_cfa_register %rbp
	subq	$32, %rsp
	movq	%rdi, %rax
	xorl	%ecx, %ecx
	movl	%ecx, %edx
	movq	(%rsi), %r8
	movq	%r8, -24(%rbp)
	movq	8(%rsi), %r8
	movq	%r8, -16(%rbp)
	movq	16(%rsi), %rsi
	movq	%rsi, -8(%rbp)
	leaq	-24(%rbp), %rsi
	movq	%rax, -32(%rbp)
	callq	__ZN5alloc11collections5btree4node139Handle$LT$alloc..collections..btree..node..NodeRef$LT$BorrowType$C$K$C$V$C$NodeType$GT$$C$alloc..collections..btree..node..marker..Edge$GT$8new_edge17h0ed3a36e835aaa04E
	movq	-32(%rbp), %rax
	addq	$32, %rsp
	popq	%rbp
	retq
	.cfi_endproc

	.p2align	4, 0x90
__ZN5alloc11collections5btree4node40NodeRef$LT$BorrowType$C$K$C$V$C$Type$GT$10first_edge17h7afb4c3a4968aa83E:
	.cfi_startproc
	pushq	%rbp
	.cfi_def_cfa_offset 16
	.cfi_offset %rbp, -16
	movq	%rsp, %rbp
	.cfi_def_cfa_register %rbp
	subq	$32, %rsp
	movq	%rdi, %rax
	xorl	%ecx, %ecx
	movl	%ecx, %edx
	movq	(%rsi), %r8
	movq	%r8, -24(%rbp)
	movq	8(%rsi), %r8
	movq	%r8, -16(%rbp)
	movq	16(%rsi), %rsi
	movq	%rsi, -8(%rbp)
	leaq	-24(%rbp), %rsi
	movq	%rax, -32(%rbp)
	callq	__ZN5alloc11collections5btree4node139Handle$LT$alloc..collections..btree..node..NodeRef$LT$BorrowType$C$K$C$V$C$NodeType$GT$$C$alloc..collections..btree..node..marker..Edge$GT$8new_edge17h90b698292183c46bE
	movq	-32(%rbp), %rax
	addq	$32, %rsp
	popq	%rbp
	retq
	.cfi_endproc

	.p2align	4, 0x90
__ZN5alloc11collections5btree4node40NodeRef$LT$BorrowType$C$K$C$V$C$Type$GT$11forget_type17h0d4594357ec2a7ffE:
	.cfi_startproc
	pushq	%rbp
	.cfi_def_cfa_offset 16
	.cfi_offset %rbp, -16
	movq	%rsp, %rbp
	.cfi_def_cfa_register %rbp
	pushq	%rax
	movq	%rdi, %rax
	movq	(%rsi), %rcx
	movq	8(%rsi), %rdx
	movq	16(%rsi), %rsi
	movq	%rcx, (%rdi)
	movq	%rdx, 8(%rdi)
	movq	%rsi, 16(%rdi)
	addq	$8, %rsp
	popq	%rbp
	retq
	.cfi_endproc

	.p2align	4, 0x90
__ZN5alloc11collections5btree4node40NodeRef$LT$BorrowType$C$K$C$V$C$Type$GT$11forget_type17hb33bddfec844286bE:
	.cfi_startproc
	pushq	%rbp
	.cfi_def_cfa_offset 16
	.cfi_offset %rbp, -16
	movq	%rsp, %rbp
	.cfi_def_cfa_register %rbp
	pushq	%rax
	movq	%rdi, %rax
	movq	(%rsi), %rcx
	movq	8(%rsi), %rdx
	movq	16(%rsi), %rsi
	movq	%rcx, (%rdi)
	movq	%rdx, 8(%rdi)
	movq	%rsi, 16(%rdi)
	addq	$8, %rsp
	popq	%rbp
	retq
	.cfi_endproc

	.p2align	4, 0x90
__ZN5alloc11collections5btree4node40NodeRef$LT$BorrowType$C$K$C$V$C$Type$GT$3len17h5a498125c9f7c4bbE:
	.cfi_startproc
	pushq	%rbp
	.cfi_def_cfa_offset 16
	.cfi_offset %rbp, -16
	movq	%rsp, %rbp
	.cfi_def_cfa_register %rbp
	subq	$16, %rsp
	callq	__ZN5alloc11collections5btree4node40NodeRef$LT$BorrowType$C$K$C$V$C$Type$GT$7as_leaf17h5358f659fe1a914fE
	movq	%rax, -8(%rbp)
	movq	-8(%rbp), %rax
	movzwl	10(%rax), %ecx
	movl	%ecx, %eax
	addq	$16, %rsp
	popq	%rbp
	retq
	.cfi_endproc

	.p2align	4, 0x90
__ZN5alloc11collections5btree4node40NodeRef$LT$BorrowType$C$K$C$V$C$Type$GT$3len17h99a168c511a4a27dE:
	.cfi_startproc
	pushq	%rbp
	.cfi_def_cfa_offset 16
	.cfi_offset %rbp, -16
	movq	%rsp, %rbp
	.cfi_def_cfa_register %rbp
	subq	$16, %rsp
	callq	__ZN5alloc11collections5btree4node40NodeRef$LT$BorrowType$C$K$C$V$C$Type$GT$7as_leaf17hec846431d54fed04E
	movq	%rax, -8(%rbp)
	movq	-8(%rbp), %rax
	movzwl	10(%rax), %ecx
	movl	%ecx, %eax
	addq	$16, %rsp
	popq	%rbp
	retq
	.cfi_endproc

	.p2align	4, 0x90
__ZN5alloc11collections5btree4node40NodeRef$LT$BorrowType$C$K$C$V$C$Type$GT$6ascend17hc09aea175d8f3e39E:
	.cfi_startproc
	pushq	%rbp
	.cfi_def_cfa_offset 16
	.cfi_offset %rbp, -16
	movq	%rsp, %rbp
	.cfi_def_cfa_register %rbp
	subq	$160, %rsp
	movq	%rdi, %rax
	movq	%rdi, -104(%rbp)
	movq	%rsi, %rdi
	movq	%rsi, -112(%rbp)
	movq	%rax, -120(%rbp)
	callq	__ZN5alloc11collections5btree4node40NodeRef$LT$BorrowType$C$K$C$V$C$Type$GT$7as_leaf17h5358f659fe1a914fE
	movq	%rax, -128(%rbp)
	movq	-128(%rbp), %rax
	movq	(%rax), %rcx
	movq	%rcx, %rdi
	callq	__ZN4core3ptr8non_null16NonNull$LT$T$GT$3new17h40896a5fe3f8ae47E
	movq	%rax, -96(%rbp)
	xorl	%eax, %eax
	movl	%eax, %ecx
	cmpq	$0, -96(%rbp)
	movl	$1, %edx
	cmovbeq	%rcx, %rdx
	cmpq	$1, %rdx
	je	LBB286_4
	movq	-112(%rbp), %rax
	movq	(%rax), %rcx
	movq	%rcx, -24(%rbp)
	movq	8(%rax), %rcx
	movq	%rcx, -16(%rbp)
	movq	16(%rax), %rcx
	movq	%rcx, -8(%rbp)
	movq	-24(%rbp), %rcx
	movq	-104(%rbp), %rdx
	movq	%rcx, 8(%rdx)
	movq	-16(%rbp), %rcx
	movq	%rcx, 16(%rdx)
	movq	-8(%rbp), %rcx
	movq	%rcx, 24(%rdx)
	movq	$1, (%rdx)
	jmp	LBB286_8
LBB286_4:
	movq	-96(%rbp), %rax
	movq	-112(%rbp), %rcx
	movq	(%rcx), %rdx
	addq	$1, %rdx
	movq	16(%rcx), %rsi
	movq	%rdx, -56(%rbp)
	movq	%rax, -48(%rbp)
	movq	%rsi, -40(%rbp)
	movq	%rcx, %rdi
	callq	__ZN5alloc11collections5btree4node40NodeRef$LT$BorrowType$C$K$C$V$C$Type$GT$7as_leaf17h5358f659fe1a914fE
	movq	%rax, -136(%rbp)
	movq	-136(%rbp), %rax
	addq	$8, %rax
	movq	%rax, -144(%rbp)
	movq	-144(%rbp), %rax
	movzwl	(%rax), %edi
	callq	__ZN4core7convert3num66_$LT$impl$u20$core..convert..From$LT$u16$GT$$u20$for$u20$usize$GT$4from17hf375ad87c3f53c58E
	movq	%rax, -152(%rbp)
	movq	-56(%rbp), %rax
	movq	%rax, -88(%rbp)
	movq	-48(%rbp), %rax
	movq	%rax, -80(%rbp)
	movq	-40(%rbp), %rax
	movq	%rax, -72(%rbp)
	movq	-152(%rbp), %rax
	movq	%rax, -64(%rbp)
	movq	-88(%rbp), %rcx
	movq	-104(%rbp), %rdx
	movq	%rcx, 8(%rdx)
	movq	-80(%rbp), %rcx
	movq	%rcx, 16(%rdx)
	movq	-72(%rbp), %rcx
	movq	%rcx, 24(%rdx)
	movq	-64(%rbp), %rcx
	movq	%rcx, 32(%rdx)
	movq	$0, (%rdx)
LBB286_8:
	movq	-120(%rbp), %rax
	addq	$160, %rsp
	popq	%rbp
	retq
	.cfi_endproc

	.p2align	4, 0x90
__ZN5alloc11collections5btree4node40NodeRef$LT$BorrowType$C$K$C$V$C$Type$GT$7as_leaf17h5358f659fe1a914fE:
	.cfi_startproc
	pushq	%rbp
	.cfi_def_cfa_offset 16
	.cfi_offset %rbp, -16
	movq	%rsp, %rbp
	.cfi_def_cfa_register %rbp
	subq	$16, %rsp
	addq	$8, %rdi
	callq	__ZN4core3ptr8non_null16NonNull$LT$T$GT$6as_ref17hcddc8912280d710aE
	movq	%rax, -8(%rbp)
	movq	-8(%rbp), %rax
	addq	$16, %rsp
	popq	%rbp
	retq
	.cfi_endproc

	.p2align	4, 0x90
__ZN5alloc11collections5btree4node40NodeRef$LT$BorrowType$C$K$C$V$C$Type$GT$7as_leaf17hec846431d54fed04E:
	.cfi_startproc
	pushq	%rbp
	.cfi_def_cfa_offset 16
	.cfi_offset %rbp, -16
	movq	%rsp, %rbp
	.cfi_def_cfa_register %rbp
	subq	$16, %rsp
	addq	$8, %rdi
	callq	__ZN4core3ptr8non_null16NonNull$LT$T$GT$6as_ref17hcddc8912280d710aE
	movq	%rax, -8(%rbp)
	movq	-8(%rbp), %rax
	addq	$16, %rsp
	popq	%rbp
	retq
	.cfi_endproc

	.p2align	4, 0x90
__ZN5alloc11collections5btree4node40NodeRef$LT$BorrowType$C$K$C$V$C$Type$GT$8reborrow17h3a1cae4e27748942E:
	.cfi_startproc
	pushq	%rbp
	.cfi_def_cfa_offset 16
	.cfi_offset %rbp, -16
	movq	%rsp, %rbp
	.cfi_def_cfa_register %rbp
	pushq	%rax
	movq	%rdi, %rax
	movq	(%rsi), %rcx
	movq	8(%rsi), %rdx
	movq	16(%rsi), %rsi
	movq	%rcx, (%rdi)
	movq	%rdx, 8(%rdi)
	movq	%rsi, 16(%rdi)
	addq	$8, %rsp
	popq	%rbp
	retq
	.cfi_endproc

	.p2align	4, 0x90
__ZN5alloc11collections5btree4node40NodeRef$LT$BorrowType$C$K$C$V$C$Type$GT$9last_edge17hefcc7f7d61a78155E:
	.cfi_startproc
	pushq	%rbp
	.cfi_def_cfa_offset 16
	.cfi_offset %rbp, -16
	movq	%rsp, %rbp
	.cfi_def_cfa_register %rbp
	subq	$64, %rsp
	movq	%rdi, %rax
	movq	%rdi, -32(%rbp)
	movq	%rsi, %rdi
	movq	%rsi, -40(%rbp)
	movq	%rax, -48(%rbp)
	callq	__ZN5alloc11collections5btree4node40NodeRef$LT$BorrowType$C$K$C$V$C$Type$GT$3len17h5a498125c9f7c4bbE
	movq	%rax, -56(%rbp)
	movq	-40(%rbp), %rax
	movq	(%rax), %rcx
	movq	%rcx, -24(%rbp)
	movq	8(%rax), %rcx
	movq	%rcx, -16(%rbp)
	movq	16(%rax), %rcx
	movq	%rcx, -8(%rbp)
	movq	-32(%rbp), %rdi
	leaq	-24(%rbp), %rsi
	movq	-56(%rbp), %rdx
	callq	__ZN5alloc11collections5btree4node139Handle$LT$alloc..collections..btree..node..NodeRef$LT$BorrowType$C$K$C$V$C$NodeType$GT$$C$alloc..collections..btree..node..marker..Edge$GT$8new_edge17h90b698292183c46bE
	movq	-48(%rbp), %rax
	addq	$64, %rsp
	popq	%rbp
	retq
	.cfi_endproc

	.p2align	4, 0x90
__ZN5alloc11collections5btree4node76NodeRef$LT$alloc..collections..btree..node..marker..Immut$C$K$C$V$C$Type$GT$11into_slices17hbab41c2271fd49ceE:
	.cfi_startproc
	pushq	%rbp
	.cfi_def_cfa_offset 16
	.cfi_offset %rbp, -16
	movq	%rsp, %rbp
	.cfi_def_cfa_register %rbp
	subq	$128, %rsp
	movq	%rdi, %rax
	leaq	-72(%rbp), %rcx
	movq	%rdi, -80(%rbp)
	movq	%rcx, %rdi
	movq	%rsi, -88(%rbp)
	movq	%rax, -96(%rbp)
	callq	__ZN4core3ptr4read17hc0e99c357760b5a6E
	movq	-72(%rbp), %rax
	movq	%rax, -48(%rbp)
	movq	-64(%rbp), %rax
	movq	%rax, -40(%rbp)
	movq	-56(%rbp), %rax
	movq	%rax, -32(%rbp)
	leaq	-48(%rbp), %rdi
	callq	__ZN5alloc11collections5btree4node76NodeRef$LT$alloc..collections..btree..node..marker..Immut$C$K$C$V$C$Type$GT$14into_key_slice17h1ef3dd69502cf690E
	movq	%rax, -104(%rbp)
	movq	%rdx, -112(%rbp)
	movq	-88(%rbp), %rax
	movq	(%rax), %rcx
	movq	%rcx, -24(%rbp)
	movq	8(%rax), %rcx
	movq	%rcx, -16(%rbp)
	movq	16(%rax), %rcx
	movq	%rcx, -8(%rbp)
	leaq	-24(%rbp), %rdi
	callq	__ZN5alloc11collections5btree4node76NodeRef$LT$alloc..collections..btree..node..marker..Immut$C$K$C$V$C$Type$GT$14into_val_slice17h8bea2e23a00d3e00E
	movq	%rax, -120(%rbp)
	movq	%rdx, -128(%rbp)
	movq	-80(%rbp), %rax
	movq	-104(%rbp), %rcx
	movq	%rcx, (%rax)
	movq	-112(%rbp), %rdx
	movq	%rdx, 8(%rax)
	movq	-120(%rbp), %rsi
	movq	%rsi, 16(%rax)
	movq	-128(%rbp), %rdi
	movq	%rdi, 24(%rax)
	movq	-96(%rbp), %rax
	addq	$128, %rsp
	popq	%rbp
	retq
	.cfi_endproc

	.p2align	4, 0x90
__ZN5alloc11collections5btree4node76NodeRef$LT$alloc..collections..btree..node..marker..Immut$C$K$C$V$C$Type$GT$14into_key_slice17h1ef3dd69502cf690E:
	.cfi_startproc
	pushq	%rbp
	.cfi_def_cfa_offset 16
	.cfi_offset %rbp, -16
	movq	%rsp, %rbp
	.cfi_def_cfa_register %rbp
	subq	$48, %rsp
	movq	%rdi, -8(%rbp)
	callq	__ZN5alloc11collections5btree4node40NodeRef$LT$BorrowType$C$K$C$V$C$Type$GT$7as_leaf17hec846431d54fed04E
	movq	%rax, -16(%rbp)
	movq	-16(%rbp), %rax
	addq	$16, %rax
	movq	%rax, -24(%rbp)
	movq	-8(%rbp), %rdi
	callq	__ZN5alloc11collections5btree4node40NodeRef$LT$BorrowType$C$K$C$V$C$Type$GT$3len17h99a168c511a4a27dE
	movq	%rax, -32(%rbp)
	movq	-24(%rbp), %rdi
	movq	-32(%rbp), %rsi
	callq	__ZN4core5slice14from_raw_parts17h20d7dcfb9a46a9b1E
	movq	%rax, -40(%rbp)
	movq	%rdx, -48(%rbp)
	movq	-40(%rbp), %rax
	movq	-48(%rbp), %rdx
	addq	$48, %rsp
	popq	%rbp
	retq
	.cfi_endproc

	.p2align	4, 0x90
__ZN5alloc11collections5btree4node76NodeRef$LT$alloc..collections..btree..node..marker..Immut$C$K$C$V$C$Type$GT$14into_val_slice17h8bea2e23a00d3e00E:
	.cfi_startproc
	pushq	%rbp
	.cfi_def_cfa_offset 16
	.cfi_offset %rbp, -16
	movq	%rsp, %rbp
	.cfi_def_cfa_register %rbp
	subq	$48, %rsp
	movq	%rdi, -8(%rbp)
	callq	__ZN5alloc11collections5btree4node40NodeRef$LT$BorrowType$C$K$C$V$C$Type$GT$7as_leaf17hec846431d54fed04E
	movq	%rax, -16(%rbp)
	movq	-16(%rbp), %rax
	addq	$280, %rax
	movq	%rax, -24(%rbp)
	movq	-8(%rbp), %rdi
	callq	__ZN5alloc11collections5btree4node40NodeRef$LT$BorrowType$C$K$C$V$C$Type$GT$3len17h99a168c511a4a27dE
	movq	%rax, -32(%rbp)
	movq	-24(%rbp), %rdi
	movq	-32(%rbp), %rsi
	callq	__ZN4core5slice14from_raw_parts17he07f11acc2355a38E
	movq	%rax, -40(%rbp)
	movq	%rdx, -48(%rbp)
	movq	-40(%rbp), %rax
	movq	-48(%rbp), %rdx
	addq	$48, %rsp
	popq	%rbp
	retq
	.cfi_endproc

	.p2align	4, 0x90
__ZN5alloc11collections5btree4node85NodeRef$LT$BorrowType$C$K$C$V$C$alloc..collections..btree..node..marker..Internal$GT$11as_internal17h4f79e95f7a7ee12bE:
	.cfi_startproc
	pushq	%rbp
	.cfi_def_cfa_offset 16
	.cfi_offset %rbp, -16
	movq	%rsp, %rbp
	.cfi_def_cfa_register %rbp
	subq	$16, %rsp
	movq	8(%rdi), %rdi
	callq	__ZN4core3ptr8non_null16NonNull$LT$T$GT$6as_ptr17h2f6f50bb8f9da73dE
	movq	%rax, -8(%rbp)
	movq	-8(%rbp), %rax
	addq	$16, %rsp
	popq	%rbp
	retq
	.cfi_endproc

	.p2align	4, 0x90
__ZN5alloc11collections5btree4node91NodeRef$LT$BorrowType$C$K$C$V$C$alloc..collections..btree..node..marker..LeafOrInternal$GT$5force17h9715416fc47b1942E:
	.cfi_startproc
	pushq	%rbp
	.cfi_def_cfa_offset 16
	.cfi_offset %rbp, -16
	movq	%rsp, %rbp
	.cfi_def_cfa_register %rbp
	subq	$88, %rsp
	movq	%rdi, %rax
	cmpq	$0, (%rsi)
	movq	%rsi, -72(%rbp)
	movq	%rdi, -80(%rbp)
	movq	%rax, -88(%rbp)
	je	LBB295_2
	movq	-72(%rbp), %rax
	movq	(%rax), %rcx
	movq	8(%rax), %rdx
	movq	16(%rax), %rsi
	movq	%rcx, -32(%rbp)
	movq	%rdx, -24(%rbp)
	movq	%rsi, -16(%rbp)
	movq	-32(%rbp), %rcx
	movq	-80(%rbp), %rdx
	movq	%rcx, 8(%rdx)
	movq	-24(%rbp), %rcx
	movq	%rcx, 16(%rdx)
	movq	-16(%rbp), %rcx
	movq	%rcx, 24(%rdx)
	movq	$1, (%rdx)
	jmp	LBB295_3
LBB295_2:
	movq	-72(%rbp), %rax
	movq	(%rax), %rcx
	movq	8(%rax), %rdx
	movq	16(%rax), %rsi
	movq	%rcx, -64(%rbp)
	movq	%rdx, -56(%rbp)
	movq	%rsi, -48(%rbp)
	movq	-64(%rbp), %rcx
	movq	-80(%rbp), %rdx
	movq	%rcx, 8(%rdx)
	movq	-56(%rbp), %rcx
	movq	%rcx, 16(%rdx)
	movq	-48(%rbp), %rcx
	movq	%rcx, 24(%rdx)
	movq	$0, (%rdx)
LBB295_3:
	movq	-88(%rbp), %rax
	addq	$88, %rsp
	popq	%rbp
	retq
	.cfi_endproc

	.p2align	4, 0x90
__ZN5alloc11collections5btree8navigate142_$LT$impl$u20$alloc..collections..btree..node..NodeRef$LT$BorrowType$C$K$C$V$C$alloc..collections..btree..node..marker..LeafOrInternal$GT$$GT$15first_leaf_edge17h26429cba8a412d8dE:
	.cfi_startproc
	pushq	%rbp
	.cfi_def_cfa_offset 16
	.cfi_offset %rbp, -16
	movq	%rsp, %rbp
	.cfi_def_cfa_register %rbp
	subq	$256, %rsp
	movq	%rdi, %rax
	movq	(%rsi), %rcx
	movq	%rcx, -232(%rbp)
	movq	8(%rsi), %rcx
	movq	%rcx, -224(%rbp)
	movq	16(%rsi), %rcx
	movq	%rcx, -216(%rbp)
	movq	%rdi, -240(%rbp)
	movq	%rax, -248(%rbp)
LBB296_1:
	movq	-232(%rbp), %rax
	movq	%rax, -176(%rbp)
	movq	-224(%rbp), %rax
	movq	%rax, -168(%rbp)
	movq	-216(%rbp), %rax
	movq	%rax, -160(%rbp)
	leaq	-208(%rbp), %rdi
	leaq	-176(%rbp), %rsi
	callq	__ZN5alloc11collections5btree4node91NodeRef$LT$BorrowType$C$K$C$V$C$alloc..collections..btree..node..marker..LeafOrInternal$GT$5force17h9715416fc47b1942E
	movq	-208(%rbp), %rax
	testq	%rax, %rax
	je	LBB296_5
	jmp	LBB296_9
LBB296_9:
	movq	-200(%rbp), %rax
	movq	%rax, -104(%rbp)
	movq	-192(%rbp), %rax
	movq	%rax, -96(%rbp)
	movq	-184(%rbp), %rax
	movq	%rax, -88(%rbp)
	movq	-104(%rbp), %rax
	movq	%rax, -24(%rbp)
	movq	-96(%rbp), %rax
	movq	%rax, -16(%rbp)
	movq	-88(%rbp), %rax
	movq	%rax, -8(%rbp)
	leaq	-56(%rbp), %rdi
	leaq	-24(%rbp), %rsi
	callq	__ZN5alloc11collections5btree4node40NodeRef$LT$BorrowType$C$K$C$V$C$Type$GT$10first_edge17h221f4c432935d02eE
	jmp	LBB296_7
	ud2
LBB296_5:
	movq	-200(%rbp), %rax
	movq	%rax, -152(%rbp)
	movq	-192(%rbp), %rax
	movq	%rax, -144(%rbp)
	movq	-184(%rbp), %rax
	movq	%rax, -136(%rbp)
	movq	-152(%rbp), %rax
	movq	%rax, -128(%rbp)
	movq	-144(%rbp), %rax
	movq	%rax, -120(%rbp)
	movq	-136(%rbp), %rax
	movq	%rax, -112(%rbp)
	movq	-240(%rbp), %rdi
	leaq	-128(%rbp), %rsi
	callq	__ZN5alloc11collections5btree4node40NodeRef$LT$BorrowType$C$K$C$V$C$Type$GT$10first_edge17h013ccc7a240454ceE
	movq	-248(%rbp), %rax
	addq	$256, %rsp
	popq	%rbp
	retq
LBB296_7:
	leaq	-80(%rbp), %rdi
	leaq	-56(%rbp), %rsi
	callq	__ZN5alloc11collections5btree4node180Handle$LT$alloc..collections..btree..node..NodeRef$LT$BorrowType$C$K$C$V$C$alloc..collections..btree..node..marker..Internal$GT$$C$alloc..collections..btree..node..marker..Edge$GT$7descend17h2379981e18590942E
	movq	-80(%rbp), %rax
	movq	%rax, -232(%rbp)
	movq	-72(%rbp), %rax
	movq	%rax, -224(%rbp)
	movq	-64(%rbp), %rax
	movq	%rax, -216(%rbp)
	jmp	LBB296_1
	.cfi_endproc

	.p2align	4, 0x90
__ZN5alloc11collections5btree8navigate235_$LT$impl$u20$alloc..collections..btree..node..Handle$LT$alloc..collections..btree..node..NodeRef$LT$BorrowType$C$K$C$V$C$alloc..collections..btree..node..marker..LeafOrInternal$GT$$C$alloc..collections..btree..node..marker..KV$GT$$GT$14next_leaf_edge17h16f282d52067e4a4E:
	.cfi_startproc
	pushq	%rbp
	.cfi_def_cfa_offset 16
	.cfi_offset %rbp, -16
	movq	%rsp, %rbp
	.cfi_def_cfa_register %rbp
	subq	$304, %rsp
	movq	%rdi, %rax
	movq	(%rsi), %rcx
	movq	%rcx, -248(%rbp)
	movq	8(%rsi), %rcx
	movq	%rcx, -240(%rbp)
	movq	16(%rsi), %rcx
	movq	%rcx, -232(%rbp)
	movq	24(%rsi), %rcx
	movq	%rcx, -224(%rbp)
	leaq	-288(%rbp), %rcx
	movq	%rdi, -296(%rbp)
	movq	%rcx, %rdi
	leaq	-248(%rbp), %rsi
	movq	%rax, -304(%rbp)
	callq	__ZN5alloc11collections5btree4node151Handle$LT$alloc..collections..btree..node..NodeRef$LT$BorrowType$C$K$C$V$C$alloc..collections..btree..node..marker..LeafOrInternal$GT$$C$HandleType$GT$5force17he7fed0129a8a84e6E
	movq	-288(%rbp), %rax
	testq	%rax, %rax
	je	LBB297_4
	jmp	LBB297_10
LBB297_10:
	movq	-280(%rbp), %rax
	movq	%rax, -152(%rbp)
	movq	-272(%rbp), %rax
	movq	%rax, -144(%rbp)
	movq	-264(%rbp), %rax
	movq	%rax, -136(%rbp)
	movq	-256(%rbp), %rax
	movq	%rax, -128(%rbp)
	movq	-152(%rbp), %rax
	movq	%rax, -88(%rbp)
	movq	-144(%rbp), %rax
	movq	%rax, -80(%rbp)
	movq	-136(%rbp), %rax
	movq	%rax, -72(%rbp)
	movq	-128(%rbp), %rax
	movq	%rax, -64(%rbp)
	leaq	-120(%rbp), %rdi
	leaq	-88(%rbp), %rsi
	callq	__ZN5alloc11collections5btree4node137Handle$LT$alloc..collections..btree..node..NodeRef$LT$BorrowType$C$K$C$V$C$NodeType$GT$$C$alloc..collections..btree..node..marker..KV$GT$10right_edge17h95766002d7f4a9f8E
	jmp	LBB297_6
	ud2
LBB297_4:
	movq	-280(%rbp), %rax
	movq	%rax, -216(%rbp)
	movq	-272(%rbp), %rax
	movq	%rax, -208(%rbp)
	movq	-264(%rbp), %rax
	movq	%rax, -200(%rbp)
	movq	-256(%rbp), %rax
	movq	%rax, -192(%rbp)
	movq	-216(%rbp), %rax
	movq	%rax, -184(%rbp)
	movq	-208(%rbp), %rax
	movq	%rax, -176(%rbp)
	movq	-200(%rbp), %rax
	movq	%rax, -168(%rbp)
	movq	-192(%rbp), %rax
	movq	%rax, -160(%rbp)
	movq	-296(%rbp), %rdi
	leaq	-184(%rbp), %rsi
	callq	__ZN5alloc11collections5btree4node137Handle$LT$alloc..collections..btree..node..NodeRef$LT$BorrowType$C$K$C$V$C$NodeType$GT$$C$alloc..collections..btree..node..marker..KV$GT$10right_edge17he457a6e79d57846eE
	jmp	LBB297_9
LBB297_6:
	movq	-120(%rbp), %rax
	movq	%rax, -32(%rbp)
	movq	-112(%rbp), %rax
	movq	%rax, -24(%rbp)
	movq	-104(%rbp), %rax
	movq	%rax, -16(%rbp)
	movq	-96(%rbp), %rax
	movq	%rax, -8(%rbp)
	leaq	-56(%rbp), %rdi
	leaq	-32(%rbp), %rsi
	callq	__ZN5alloc11collections5btree4node180Handle$LT$alloc..collections..btree..node..NodeRef$LT$BorrowType$C$K$C$V$C$alloc..collections..btree..node..marker..Internal$GT$$C$alloc..collections..btree..node..marker..Edge$GT$7descend17h2379981e18590942E
	movq	-296(%rbp), %rdi
	leaq	-56(%rbp), %rsi
	callq	__ZN5alloc11collections5btree8navigate142_$LT$impl$u20$alloc..collections..btree..node..NodeRef$LT$BorrowType$C$K$C$V$C$alloc..collections..btree..node..marker..LeafOrInternal$GT$$GT$15first_leaf_edge17h26429cba8a412d8dE
	jmp	LBB297_9
LBB297_9:
	movq	-304(%rbp), %rax
	addq	$304, %rsp
	popq	%rbp
	retq
	.cfi_endproc

	.p2align	4, 0x90
__ZN5alloc11collections5btree8navigate25next_kv_unchecked_dealloc17hcf62948471808ebdE:
	.cfi_startproc
	pushq	%rbp
	.cfi_def_cfa_offset 16
	.cfi_offset %rbp, -16
	movq	%rsp, %rbp
	.cfi_def_cfa_register %rbp
	subq	$400, %rsp
	movq	%rdi, %rax
	movq	(%rsi), %rcx
	movq	%rcx, -352(%rbp)
	movq	8(%rsi), %rcx
	movq	%rcx, -344(%rbp)
	movq	16(%rsi), %rcx
	movq	%rcx, -336(%rbp)
	movq	24(%rsi), %rcx
	movq	%rcx, -328(%rbp)
	leaq	-384(%rbp), %rcx
	movq	%rdi, -392(%rbp)
	movq	%rcx, %rdi
	leaq	-352(%rbp), %rsi
	movq	%rax, -400(%rbp)
	callq	__ZN5alloc11collections5btree4node176Handle$LT$alloc..collections..btree..node..NodeRef$LT$BorrowType$C$K$C$V$C$alloc..collections..btree..node..marker..Leaf$GT$$C$alloc..collections..btree..node..marker..Edge$GT$16forget_node_type17ha81b52577e6d4b0dE
	jmp	LBB298_2
LBB298_2:
	movq	-384(%rbp), %rax
	movq	%rax, -248(%rbp)
	movq	-376(%rbp), %rax
	movq	%rax, -240(%rbp)
	movq	-368(%rbp), %rax
	movq	%rax, -232(%rbp)
	movq	-360(%rbp), %rax
	movq	%rax, -224(%rbp)
	leaq	-288(%rbp), %rdi
	leaq	-248(%rbp), %rsi
	callq	__ZN5alloc11collections5btree4node139Handle$LT$alloc..collections..btree..node..NodeRef$LT$BorrowType$C$K$C$V$C$NodeType$GT$$C$alloc..collections..btree..node..marker..Edge$GT$8right_kv17h3abf52b2138c48e4E
	movq	-288(%rbp), %rax
	testq	%rax, %rax
	je	LBB298_6
	jmp	LBB298_11
LBB298_11:
	movq	-280(%rbp), %rax
	movq	%rax, -216(%rbp)
	movq	-272(%rbp), %rax
	movq	%rax, -208(%rbp)
	movq	-264(%rbp), %rax
	movq	%rax, -200(%rbp)
	movq	-256(%rbp), %rax
	movq	%rax, -192(%rbp)
	movq	-216(%rbp), %rax
	movq	%rax, -128(%rbp)
	movq	-208(%rbp), %rax
	movq	%rax, -120(%rbp)
	movq	-200(%rbp), %rax
	movq	%rax, -112(%rbp)
	movq	-192(%rbp), %rax
	movq	%rax, -104(%rbp)
	leaq	-152(%rbp), %rdi
	leaq	-128(%rbp), %rsi
	callq	__ZN5alloc11collections5btree4node25Handle$LT$Node$C$Type$GT$9into_node17hd5bfb93ab1f4b71aE
	jmp	LBB298_7
	ud2
LBB298_6:
	movq	-280(%rbp), %rax
	movq	-392(%rbp), %rcx
	movq	%rax, (%rcx)
	movq	-272(%rbp), %rax
	movq	%rax, 8(%rcx)
	movq	-264(%rbp), %rax
	movq	%rax, 16(%rcx)
	movq	-256(%rbp), %rax
	movq	%rax, 24(%rcx)
	movq	-400(%rbp), %rax
	addq	$400, %rsp
	popq	%rbp
	retq
LBB298_7:
	leaq	-184(%rbp), %rdi
	leaq	-152(%rbp), %rsi
	callq	__ZN5alloc11collections5btree4node127NodeRef$LT$alloc..collections..btree..node..marker..Owned$C$K$C$V$C$alloc..collections..btree..node..marker..LeafOrInternal$GT$21deallocate_and_ascend17ha0dc5d2b6808c53fE
	movq	-184(%rbp), %rax
	movq	%rax, -64(%rbp)
	movq	-176(%rbp), %rax
	movq	%rax, -56(%rbp)
	movq	-168(%rbp), %rax
	movq	%rax, -48(%rbp)
	movq	-160(%rbp), %rax
	movq	%rax, -40(%rbp)
	movq	-64(%rbp), %rax
	movq	%rax, -32(%rbp)
	movq	-56(%rbp), %rax
	movq	%rax, -24(%rbp)
	movq	-48(%rbp), %rax
	movq	%rax, -16(%rbp)
	movq	-40(%rbp), %rax
	movq	%rax, -8(%rbp)
	leaq	-96(%rbp), %rdi
	leaq	-32(%rbp), %rsi
	callq	__ZN4core6option15Option$LT$T$GT$14unwrap_or_else17h7a4668211e9bd4d2E
	leaq	-320(%rbp), %rdi
	leaq	-96(%rbp), %rsi
	callq	__ZN5alloc11collections5btree4node180Handle$LT$alloc..collections..btree..node..NodeRef$LT$BorrowType$C$K$C$V$C$alloc..collections..btree..node..marker..Internal$GT$$C$alloc..collections..btree..node..marker..Edge$GT$16forget_node_type17ha04e636b7dd207bdE
	movq	-320(%rbp), %rax
	movq	%rax, -384(%rbp)
	movq	-312(%rbp), %rax
	movq	%rax, -376(%rbp)
	movq	-304(%rbp), %rax
	movq	%rax, -368(%rbp)
	movq	-296(%rbp), %rax
	movq	%rax, -360(%rbp)
	jmp	LBB298_2
	.cfi_endproc

	.p2align	4, 0x90
__ZN5alloc11collections5btree8navigate263_$LT$impl$u20$alloc..collections..btree..node..Handle$LT$alloc..collections..btree..node..NodeRef$LT$alloc..collections..btree..node..marker..Owned$C$K$C$V$C$alloc..collections..btree..node..marker..Leaf$GT$$C$alloc..collections..btree..node..marker..Edge$GT$$GT$14next_unchecked17h06a12a1a55d4dba2E:
	.cfi_startproc
	pushq	%rbp
	.cfi_def_cfa_offset 16
	.cfi_offset %rbp, -16
	movq	%rsp, %rbp
	.cfi_def_cfa_register %rbp
	subq	$16, %rsp
	movq	%rdi, %rax
	movq	%rax, -16(%rbp)
	callq	__ZN5alloc11collections5btree8navigate7replace17h3cae28eb6ddfdadeE
	movq	-16(%rbp), %rax
	addq	$16, %rsp
	popq	%rbp
	retq
	.cfi_endproc

	.p2align	4, 0x90
__ZN5alloc11collections5btree8navigate263_$LT$impl$u20$alloc..collections..btree..node..Handle$LT$alloc..collections..btree..node..NodeRef$LT$alloc..collections..btree..node..marker..Owned$C$K$C$V$C$alloc..collections..btree..node..marker..Leaf$GT$$C$alloc..collections..btree..node..marker..Edge$GT$$GT$14next_unchecked28_$u7b$$u7b$closure$u7d$$u7d$17h7f9e1062deed413eE:
Lfunc_begin33:
	.cfi_startproc
	.cfi_personality 155, _rust_eh_personality
	.cfi_lsda 16, Lexception33
	pushq	%rbp
	.cfi_def_cfa_offset 16
	.cfi_offset %rbp, -16
	movq	%rsp, %rbp
	.cfi_def_cfa_register %rbp
	subq	$384, %rsp
	movq	%rdi, %rax
	movq	(%rsi), %rcx
	movq	%rcx, -320(%rbp)
	movq	8(%rsi), %rcx
	movq	%rcx, -312(%rbp)
	movq	16(%rsi), %rcx
	movq	%rcx, -304(%rbp)
	movq	24(%rsi), %rcx
	movq	%rcx, -296(%rbp)
	leaq	-352(%rbp), %rcx
	movq	%rdi, -360(%rbp)
	movq	%rcx, %rdi
	leaq	-320(%rbp), %rsi
	movq	%rax, -368(%rbp)
	callq	__ZN5alloc11collections5btree8navigate25next_kv_unchecked_dealloc17hcf62948471808ebdE
	jmp	LBB300_2
LBB300_1:
	movq	-16(%rbp), %rdi
	callq	__Unwind_Resume
	ud2
LBB300_2:
	leaq	-264(%rbp), %rdi
	leaq	-352(%rbp), %rsi
	callq	__ZN5alloc11collections5btree4node104Handle$LT$alloc..collections..btree..node..NodeRef$LT$BorrowType$C$K$C$V$C$NodeType$GT$$C$HandleType$GT$8reborrow17hb56fbdc377b034adE
	leaq	-264(%rbp), %rdi
	callq	__ZN5alloc11collections5btree4node173Handle$LT$alloc..collections..btree..node..NodeRef$LT$alloc..collections..btree..node..marker..Immut$C$K$C$V$C$NodeType$GT$$C$alloc..collections..btree..node..marker..KV$GT$7into_kv17h1fb027bc470defe5E
	movq	%rax, -376(%rbp)
	movq	-376(%rbp), %rax
	leaq	-288(%rbp), %rdi
	movq	%rax, %rsi
	callq	__ZN4core3ptr4read17hc47721e8125e1bcfE
Ltmp147:
	leaq	-208(%rbp), %rdi
	leaq	-352(%rbp), %rsi
	callq	__ZN5alloc11collections5btree4node104Handle$LT$alloc..collections..btree..node..NodeRef$LT$BorrowType$C$K$C$V$C$NodeType$GT$$C$HandleType$GT$8reborrow17hb56fbdc377b034adE
Ltmp148:
	jmp	LBB300_6
LBB300_6:
Ltmp149:
	leaq	-208(%rbp), %rdi
	callq	__ZN5alloc11collections5btree4node173Handle$LT$alloc..collections..btree..node..NodeRef$LT$alloc..collections..btree..node..marker..Immut$C$K$C$V$C$NodeType$GT$$C$alloc..collections..btree..node..marker..KV$GT$7into_kv17h1fb027bc470defe5E
Ltmp150:
	movq	%rdx, -384(%rbp)
	jmp	LBB300_8
LBB300_7:
	leaq	-288(%rbp), %rdi
	callq	__ZN4core3ptr13drop_in_place17hf6e72c79ba3a5cb6E
	jmp	LBB300_1
LBB300_8:
Ltmp151:
	leaq	-232(%rbp), %rdi
	movq	-384(%rbp), %rsi
	callq	__ZN4core3ptr4read17h71314a36534a8d08E
Ltmp152:
	jmp	LBB300_9
LBB300_9:
	movq	-328(%rbp), %rax
	movq	%rax, -120(%rbp)
	movq	-336(%rbp), %rax
	movq	%rax, -128(%rbp)
	movq	-352(%rbp), %rax
	movq	-344(%rbp), %rcx
	movq	%rcx, -136(%rbp)
	movq	%rax, -144(%rbp)
Ltmp154:
	leaq	-176(%rbp), %rdi
	leaq	-144(%rbp), %rsi
	callq	__ZN5alloc11collections5btree8navigate235_$LT$impl$u20$alloc..collections..btree..node..Handle$LT$alloc..collections..btree..node..NodeRef$LT$BorrowType$C$K$C$V$C$alloc..collections..btree..node..marker..LeafOrInternal$GT$$C$alloc..collections..btree..node..marker..KV$GT$$GT$14next_leaf_edge17h16f282d52067e4a4E
Ltmp155:
	jmp	LBB300_10
LBB300_10:
	movq	-288(%rbp), %rax
	movq	%rax, -64(%rbp)
	movq	-280(%rbp), %rax
	movq	%rax, -56(%rbp)
	movq	-272(%rbp), %rax
	movq	%rax, -48(%rbp)
	movq	-232(%rbp), %rax
	movq	%rax, -40(%rbp)
	movq	-224(%rbp), %rax
	movq	%rax, -32(%rbp)
	movq	-216(%rbp), %rax
	movq	%rax, -24(%rbp)
	movq	-64(%rbp), %rax
	movq	%rax, -112(%rbp)
	movq	-56(%rbp), %rax
	movq	%rax, -104(%rbp)
	movq	-48(%rbp), %rax
	movq	%rax, -96(%rbp)
	movq	-40(%rbp), %rax
	movq	%rax, -88(%rbp)
	movq	-32(%rbp), %rax
	movq	%rax, -80(%rbp)
	movq	-24(%rbp), %rax
	movq	%rax, -72(%rbp)
	movq	-176(%rbp), %rax
	movq	-360(%rbp), %rcx
	movq	%rax, (%rcx)
	movq	-168(%rbp), %rax
	movq	%rax, 8(%rcx)
	movq	-160(%rbp), %rax
	movq	%rax, 16(%rcx)
	movq	-152(%rbp), %rax
	movq	%rax, 24(%rcx)
	addq	$32, %rcx
	leaq	-112(%rbp), %rax
	movq	%rcx, %rdi
	movq	%rax, %rsi
	movl	$48, %edx
	callq	_memcpy
	movq	-368(%rbp), %rax
	addq	$384, %rsp
	popq	%rbp
	retq
LBB300_11:
	leaq	-232(%rbp), %rdi
	callq	__ZN4core3ptr13drop_in_place17h446af4c3422ef035E
	jmp	LBB300_7
LBB300_12:
Ltmp153:
	movq	%rax, -16(%rbp)
	movl	%edx, -8(%rbp)
	jmp	LBB300_7
LBB300_13:
Ltmp156:
	movq	%rax, -16(%rbp)
	movl	%edx, -8(%rbp)
	jmp	LBB300_11
Lfunc_end33:
	.cfi_endproc
	.section	__TEXT,__gcc_except_tab
	.p2align	2
GCC_except_table300:
Lexception33:
	.byte	255
	.byte	255
	.byte	1
	.uleb128 Lcst_end33-Lcst_begin33
Lcst_begin33:
	.uleb128 Lfunc_begin33-Lfunc_begin33
	.uleb128 Ltmp147-Lfunc_begin33
	.byte	0
	.byte	0
	.uleb128 Ltmp147-Lfunc_begin33
	.uleb128 Ltmp150-Ltmp147
	.uleb128 Ltmp153-Lfunc_begin33
	.byte	0
	.uleb128 Ltmp150-Lfunc_begin33
	.uleb128 Ltmp151-Ltmp150
	.byte	0
	.byte	0
	.uleb128 Ltmp151-Lfunc_begin33
	.uleb128 Ltmp152-Ltmp151
	.uleb128 Ltmp153-Lfunc_begin33
	.byte	0
	.uleb128 Ltmp154-Lfunc_begin33
	.uleb128 Ltmp155-Ltmp154
	.uleb128 Ltmp156-Lfunc_begin33
	.byte	0
	.uleb128 Ltmp155-Lfunc_begin33
	.uleb128 Lfunc_end33-Ltmp155
	.byte	0
	.byte	0
Lcst_end33:
	.p2align	2

	.section	__TEXT,__text,regular,pure_instructions
	.p2align	4, 0x90
__ZN5alloc11collections5btree8navigate7replace17h3cae28eb6ddfdadeE:
Lfunc_begin34:
	.cfi_startproc
	.cfi_personality 155, _rust_eh_personality
	.cfi_lsda 16, Lexception34
	pushq	%rbp
	.cfi_def_cfa_offset 16
	.cfi_offset %rbp, -16
	movq	%rsp, %rbp
	.cfi_def_cfa_register %rbp
	subq	$288, %rsp
	movq	%rdi, %rax
	movb	$0, -17(%rbp)
	movb	$0, -18(%rbp)
	movb	$1, -18(%rbp)
Ltmp157:
	leaq	-264(%rbp), %rcx
	movq	%rdi, -272(%rbp)
	movq	%rcx, %rdi
	movq	%rsi, -280(%rbp)
	movq	%rax, -288(%rbp)
	callq	__ZN4core3ptr4read17hff3792620f4ef4b2E
Ltmp158:
	jmp	LBB301_2
LBB301_1:
	movq	-16(%rbp), %rdi
	callq	__Unwind_Resume
	ud2
LBB301_2:
	movb	$0, -18(%rbp)
	movq	-240(%rbp), %rax
	movq	%rax, -64(%rbp)
	movq	-248(%rbp), %rax
	movq	%rax, -72(%rbp)
	movq	-264(%rbp), %rax
	movq	-256(%rbp), %rcx
	movq	%rcx, -80(%rbp)
	movq	%rax, -88(%rbp)
	movq	-64(%rbp), %rax
	movq	%rax, -96(%rbp)
	movq	-72(%rbp), %rax
	movq	%rax, -104(%rbp)
	movq	-88(%rbp), %rax
	movq	-80(%rbp), %rcx
	movq	%rcx, -112(%rbp)
	movq	%rax, -120(%rbp)
Ltmp159:
	leaq	-200(%rbp), %rdi
	leaq	-120(%rbp), %rsi
	callq	__ZN5alloc11collections5btree8navigate263_$LT$impl$u20$alloc..collections..btree..node..Handle$LT$alloc..collections..btree..node..NodeRef$LT$alloc..collections..btree..node..marker..Owned$C$K$C$V$C$alloc..collections..btree..node..marker..Leaf$GT$$C$alloc..collections..btree..node..marker..Edge$GT$$GT$14next_unchecked28_$u7b$$u7b$closure$u7d$$u7d$17h7f9e1062deed413eE
Ltmp160:
	jmp	LBB301_3
LBB301_3:
	movb	$1, -17(%rbp)
	movq	-176(%rbp), %rax
	movq	%rax, -208(%rbp)
	movq	-184(%rbp), %rax
	movq	%rax, -216(%rbp)
	movq	-200(%rbp), %rax
	movq	-192(%rbp), %rcx
	movq	%rcx, -224(%rbp)
	movq	%rax, -232(%rbp)
	movq	-128(%rbp), %rax
	movq	-272(%rbp), %rcx
	movq	%rax, 40(%rcx)
	movq	-136(%rbp), %rax
	movq	%rax, 32(%rcx)
	movq	-144(%rbp), %rax
	movq	%rax, 24(%rcx)
	movq	-152(%rbp), %rax
	movq	%rax, 16(%rcx)
	movq	-168(%rbp), %rax
	movq	-160(%rbp), %rdx
	movq	%rdx, 8(%rcx)
	movq	%rax, (%rcx)
	movb	$0, -17(%rbp)
	movq	-208(%rbp), %rax
	movq	%rax, -32(%rbp)
	movq	-216(%rbp), %rax
	movq	%rax, -40(%rbp)
	movq	-232(%rbp), %rax
	movq	-224(%rbp), %rdx
	movq	%rdx, -48(%rbp)
	movq	%rax, -56(%rbp)
Ltmp162:
	leaq	-56(%rbp), %rsi
	movq	-280(%rbp), %rdi
	callq	__ZN4core3ptr5write17h08382f17a50d2056E
Ltmp163:
	jmp	LBB301_5
LBB301_4:
	testb	$1, -17(%rbp)
	jne	LBB301_9
	jmp	LBB301_8
LBB301_5:
	movb	$0, -17(%rbp)
	movq	-288(%rbp), %rax
	addq	$288, %rsp
	popq	%rbp
	retq
LBB301_6:
	movq	-272(%rbp), %rdi
	callq	__ZN4core3ptr13drop_in_place17h504cc3bd0ba10ac9E
	jmp	LBB301_4
LBB301_7:
	movb	$0, -18(%rbp)
	jmp	LBB301_1
LBB301_8:
	testb	$1, -18(%rbp)
	jne	LBB301_7
	jmp	LBB301_1
LBB301_9:
	movb	$0, -17(%rbp)
	jmp	LBB301_8
LBB301_10:
Ltmp161:
	movq	%rax, -16(%rbp)
	movl	%edx, -8(%rbp)
	jmp	LBB301_8
LBB301_11:
Ltmp164:
	movq	%rax, -16(%rbp)
	movl	%edx, -8(%rbp)
	jmp	LBB301_6
Lfunc_end34:
	.cfi_endproc
	.section	__TEXT,__gcc_except_tab
	.p2align	2
GCC_except_table301:
Lexception34:
	.byte	255
	.byte	255
	.byte	1
	.uleb128 Lcst_end34-Lcst_begin34
Lcst_begin34:
	.uleb128 Ltmp157-Lfunc_begin34
	.uleb128 Ltmp158-Ltmp157
	.uleb128 Ltmp161-Lfunc_begin34
	.byte	0
	.uleb128 Ltmp158-Lfunc_begin34
	.uleb128 Ltmp159-Ltmp158
	.byte	0
	.byte	0
	.uleb128 Ltmp159-Lfunc_begin34
	.uleb128 Ltmp160-Ltmp159
	.uleb128 Ltmp161-Lfunc_begin34
	.byte	0
	.uleb128 Ltmp162-Lfunc_begin34
	.uleb128 Ltmp163-Ltmp162
	.uleb128 Ltmp164-Lfunc_begin34
	.byte	0
	.uleb128 Ltmp163-Lfunc_begin34
	.uleb128 Lfunc_end34-Ltmp163
	.byte	0
	.byte	0
Lcst_end34:
	.p2align	2

	.section	__TEXT,__text,regular,pure_instructions
	.p2align	4, 0x90
__ZN5alloc3vec12Vec$LT$T$GT$10as_mut_ptr17h4805872c55eabcbeE:
	.cfi_startproc
	pushq	%rbp
	.cfi_def_cfa_offset 16
	.cfi_offset %rbp, -16
	movq	%rsp, %rbp
	.cfi_def_cfa_register %rbp
	subq	$16, %rsp
	callq	__ZN5alloc7raw_vec19RawVec$LT$T$C$A$GT$3ptr17h557f853be063f1f8E
	movq	%rax, -8(%rbp)
	movq	-8(%rbp), %rdi
	callq	__ZN4core3ptr7mut_ptr31_$LT$impl$u20$$BP$mut$u20$T$GT$7is_null17h1d0e4a64b2f917aeE
	movq	-8(%rbp), %rax
	addq	$16, %rsp
	popq	%rbp
	retq
	.cfi_endproc

	.p2align	4, 0x90
__ZN5alloc3vec12Vec$LT$T$GT$10as_mut_ptr17h498d728a66bf2c1dE:
	.cfi_startproc
	pushq	%rbp
	.cfi_def_cfa_offset 16
	.cfi_offset %rbp, -16
	movq	%rsp, %rbp
	.cfi_def_cfa_register %rbp
	subq	$16, %rsp
	callq	__ZN5alloc7raw_vec19RawVec$LT$T$C$A$GT$3ptr17h23a2efebfa946de4E
	movq	%rax, -8(%rbp)
	movq	-8(%rbp), %rdi
	callq	__ZN4core3ptr7mut_ptr31_$LT$impl$u20$$BP$mut$u20$T$GT$7is_null17hbebc3656568f750cE
	movq	-8(%rbp), %rax
	addq	$16, %rsp
	popq	%rbp
	retq
	.cfi_endproc

	.p2align	4, 0x90
__ZN5alloc3vec12Vec$LT$T$GT$10as_mut_ptr17had941e84b7dd4a34E:
	.cfi_startproc
	pushq	%rbp
	.cfi_def_cfa_offset 16
	.cfi_offset %rbp, -16
	movq	%rsp, %rbp
	.cfi_def_cfa_register %rbp
	subq	$16, %rsp
	callq	__ZN5alloc7raw_vec19RawVec$LT$T$C$A$GT$3ptr17he2cadf7dc4f60380E
	movq	%rax, -8(%rbp)
	movq	-8(%rbp), %rdi
	callq	__ZN4core3ptr7mut_ptr31_$LT$impl$u20$$BP$mut$u20$T$GT$7is_null17h67d2190b6c9c9ea3E
	movq	-8(%rbp), %rax
	addq	$16, %rsp
	popq	%rbp
	retq
	.cfi_endproc

	.p2align	4, 0x90
__ZN5alloc3vec12Vec$LT$T$GT$10as_mut_ptr17hec4dbfc47237f3f5E:
	.cfi_startproc
	pushq	%rbp
	.cfi_def_cfa_offset 16
	.cfi_offset %rbp, -16
	movq	%rsp, %rbp
	.cfi_def_cfa_register %rbp
	subq	$16, %rsp
	callq	__ZN5alloc7raw_vec19RawVec$LT$T$C$A$GT$3ptr17he6ef4e27c0422fe1E
	movq	%rax, -8(%rbp)
	movq	-8(%rbp), %rdi
	callq	__ZN4core3ptr7mut_ptr31_$LT$impl$u20$$BP$mut$u20$T$GT$7is_null17hc250fb467d7173ddE
	movq	-8(%rbp), %rax
	addq	$16, %rsp
	popq	%rbp
	retq
	.cfi_endproc

	.p2align	4, 0x90
__ZN5alloc3vec12Vec$LT$T$GT$6as_ptr17h6a0b59f68d957a38E:
	.cfi_startproc
	pushq	%rbp
	.cfi_def_cfa_offset 16
	.cfi_offset %rbp, -16
	movq	%rsp, %rbp
	.cfi_def_cfa_register %rbp
	subq	$16, %rsp
	callq	__ZN5alloc7raw_vec19RawVec$LT$T$C$A$GT$3ptr17he6ef4e27c0422fe1E
	movq	%rax, -8(%rbp)
	movq	-8(%rbp), %rdi
	callq	__ZN4core3ptr7mut_ptr31_$LT$impl$u20$$BP$mut$u20$T$GT$7is_null17hc250fb467d7173ddE
	movq	-8(%rbp), %rax
	addq	$16, %rsp
	popq	%rbp
	retq
	.cfi_endproc

	.p2align	4, 0x90
__ZN5alloc5alloc12alloc_zeroed17hcde5d7ae754f179aE:
	.cfi_startproc
	pushq	%rbp
	.cfi_def_cfa_offset 16
	.cfi_offset %rbp, -16
	movq	%rsp, %rbp
	.cfi_def_cfa_register %rbp
	subq	$48, %rsp
	movq	%rdi, -16(%rbp)
	movq	%rsi, -8(%rbp)
	leaq	-16(%rbp), %rdi
	callq	__ZN4core5alloc6layout6Layout4size17h24d274f07a571b9dE
	movq	%rax, -24(%rbp)
	leaq	-16(%rbp), %rdi
	callq	__ZN4core5alloc6layout6Layout5align17h0d1820c948aa7b89E
	movq	%rax, -32(%rbp)
	movq	-24(%rbp), %rdi
	movq	-32(%rbp), %rsi
	callq	___rust_alloc_zeroed
	movq	%rax, -40(%rbp)
	movq	-40(%rbp), %rax
	addq	$48, %rsp
	popq	%rbp
	retq
	.cfi_endproc

	.p2align	4, 0x90
__ZN5alloc5alloc15exchange_malloc17hd86299a56072b88aE:
	.cfi_startproc
	pushq	%rbp
	.cfi_def_cfa_offset 16
	.cfi_offset %rbp, -16
	movq	%rsp, %rbp
	.cfi_def_cfa_register %rbp
	subq	$48, %rsp
	callq	__ZN4core5alloc6layout6Layout25from_size_align_unchecked17h465b9801fc2d048dE
	movq	%rax, -32(%rbp)
	movq	%rdx, -40(%rbp)
	leaq	-8(%rbp), %rdi
	xorl	%ecx, %ecx
	movq	-32(%rbp), %rsi
	movq	-40(%rbp), %rdx
	callq	__ZN62_$LT$alloc..alloc..Global$u20$as$u20$core..alloc..AllocRef$GT$5alloc17h756482d12b28243aE
	movq	%rdx, -16(%rbp)
	movq	%rax, -24(%rbp)
	movq	-24(%rbp), %rax
	testq	%rax, %rax
	sete	%cl
	movzbl	%cl, %edx
	movl	%edx, %eax
	jne	LBB308_5
	jmp	LBB308_7
LBB308_7:
	movq	-32(%rbp), %rdi
	movq	-40(%rbp), %rsi
	callq	__ZN5alloc5alloc18handle_alloc_error17h28974197717b8939E
	ud2
LBB308_5:
	movq	-24(%rbp), %rdi
	callq	__ZN4core3ptr8non_null16NonNull$LT$T$GT$6as_ptr17h40c1848d44a8cb07E
	movq	%rax, -48(%rbp)
	movq	-48(%rbp), %rax
	addq	$48, %rsp
	popq	%rbp
	retq
	.cfi_endproc

	.p2align	4, 0x90
__ZN5alloc5alloc5alloc17hf38a3067cc43f1e4E:
	.cfi_startproc
	pushq	%rbp
	.cfi_def_cfa_offset 16
	.cfi_offset %rbp, -16
	movq	%rsp, %rbp
	.cfi_def_cfa_register %rbp
	subq	$48, %rsp
	movq	%rdi, -16(%rbp)
	movq	%rsi, -8(%rbp)
	leaq	-16(%rbp), %rdi
	callq	__ZN4core5alloc6layout6Layout4size17h24d274f07a571b9dE
	movq	%rax, -24(%rbp)
	leaq	-16(%rbp), %rdi
	callq	__ZN4core5alloc6layout6Layout5align17h0d1820c948aa7b89E
	movq	%rax, -32(%rbp)
	movq	-24(%rbp), %rdi
	movq	-32(%rbp), %rsi
	callq	___rust_alloc
	movq	%rax, -40(%rbp)
	movq	-40(%rbp), %rax
	addq	$48, %rsp
	popq	%rbp
	retq
	.cfi_endproc

	.p2align	4, 0x90
__ZN5alloc5alloc7dealloc17hec91a384480d784aE:
	.cfi_startproc
	pushq	%rbp
	.cfi_def_cfa_offset 16
	.cfi_offset %rbp, -16
	movq	%rsp, %rbp
	.cfi_def_cfa_register %rbp
	subq	$48, %rsp
	movq	%rsi, -16(%rbp)
	movq	%rdx, -8(%rbp)
	leaq	-16(%rbp), %rax
	movq	%rdi, -24(%rbp)
	movq	%rax, %rdi
	callq	__ZN4core5alloc6layout6Layout4size17h24d274f07a571b9dE
	movq	%rax, -32(%rbp)
	leaq	-16(%rbp), %rdi
	callq	__ZN4core5alloc6layout6Layout5align17h0d1820c948aa7b89E
	movq	%rax, -40(%rbp)
	movq	-24(%rbp), %rdi
	movq	-32(%rbp), %rsi
	movq	-40(%rbp), %rdx
	callq	___rust_dealloc
	addq	$48, %rsp
	popq	%rbp
	retq
	.cfi_endproc

	.p2align	4, 0x90
__ZN5alloc5alloc8box_free17h018e070837e358a1E:
	.cfi_startproc
	pushq	%rbp
	.cfi_def_cfa_offset 16
	.cfi_offset %rbp, -16
	movq	%rsp, %rbp
	.cfi_def_cfa_register %rbp
	subq	$80, %rsp
	movq	%rdi, -32(%rbp)
	leaq	-32(%rbp), %rdi
	callq	__ZN4core3ptr6unique15Unique$LT$T$GT$6as_ref17h40bfc781c166fa58E
	movq	$24, -16(%rbp)
	movq	-16(%rbp), %rdi
	movq	%rdi, -40(%rbp)
	leaq	-32(%rbp), %rdi
	callq	__ZN4core3ptr6unique15Unique$LT$T$GT$6as_ref17h40bfc781c166fa58E
	movq	$8, -8(%rbp)
	movq	-8(%rbp), %rsi
	movq	%rsi, -48(%rbp)
	movq	-40(%rbp), %rdi
	movq	-48(%rbp), %rsi
	callq	__ZN4core5alloc6layout6Layout25from_size_align_unchecked17h465b9801fc2d048dE
	movq	%rax, -56(%rbp)
	movq	%rdx, -64(%rbp)
	movq	-32(%rbp), %rdi
	callq	__ZN4core3ptr6unique15Unique$LT$T$GT$4cast17h1efecadb7bd3c190E
	movq	%rax, -72(%rbp)
	movq	-72(%rbp), %rdi
	callq	__ZN50_$LT$T$u20$as$u20$core..convert..Into$LT$U$GT$$GT$4into17hfb12b04d43608501E
	movq	%rax, -80(%rbp)
	leaq	-24(%rbp), %rdi
	movq	-80(%rbp), %rsi
	movq	-56(%rbp), %rdx
	movq	-64(%rbp), %rcx
	callq	__ZN62_$LT$alloc..alloc..Global$u20$as$u20$core..alloc..AllocRef$GT$7dealloc17h09b15319db2ba86fE
	addq	$80, %rsp
	popq	%rbp
	retq
	.cfi_endproc

	.p2align	4, 0x90
__ZN5alloc5alloc8box_free17h3881572f4349bb2aE:
	.cfi_startproc
	pushq	%rbp
	.cfi_def_cfa_offset 16
	.cfi_offset %rbp, -16
	movq	%rsp, %rbp
	.cfi_def_cfa_register %rbp
	subq	$112, %rsp
	movq	%rdi, -40(%rbp)
	movq	%rsi, -32(%rbp)
	leaq	-40(%rbp), %rdi
	callq	__ZN4core3ptr6unique15Unique$LT$T$GT$6as_ref17h70c451d63c66cec5E
	movq	%rdx, -48(%rbp)
	movq	-48(%rbp), %rax
	movq	8(%rax), %rcx
	movq	%rcx, -16(%rbp)
	movq	-16(%rbp), %rdi
	movq	%rdi, -56(%rbp)
	leaq	-40(%rbp), %rdi
	callq	__ZN4core3ptr6unique15Unique$LT$T$GT$6as_ref17h70c451d63c66cec5E
	movq	%rdx, -64(%rbp)
	movq	-64(%rbp), %rax
	movq	16(%rax), %rcx
	movq	%rcx, -8(%rbp)
	movq	-8(%rbp), %rsi
	movq	%rsi, -72(%rbp)
	movq	-56(%rbp), %rdi
	movq	-72(%rbp), %rsi
	callq	__ZN4core5alloc6layout6Layout25from_size_align_unchecked17h465b9801fc2d048dE
	movq	%rax, -80(%rbp)
	movq	%rdx, -88(%rbp)
	movq	-40(%rbp), %rdi
	movq	-32(%rbp), %rsi
	callq	__ZN4core3ptr6unique15Unique$LT$T$GT$4cast17hf6f89fa7db3d0000E
	movq	%rax, -96(%rbp)
	movq	-96(%rbp), %rdi
	callq	__ZN50_$LT$T$u20$as$u20$core..convert..Into$LT$U$GT$$GT$4into17hfb12b04d43608501E
	movq	%rax, -104(%rbp)
	leaq	-24(%rbp), %rdi
	movq	-104(%rbp), %rsi
	movq	-80(%rbp), %rdx
	movq	-88(%rbp), %rcx
	callq	__ZN62_$LT$alloc..alloc..Global$u20$as$u20$core..alloc..AllocRef$GT$7dealloc17h09b15319db2ba86fE
	addq	$112, %rsp
	popq	%rbp
	retq
	.cfi_endproc

	.p2align	4, 0x90
__ZN5alloc5alloc8box_free17h6bdb3d00d347b6e1E:
	.cfi_startproc
	pushq	%rbp
	.cfi_def_cfa_offset 16
	.cfi_offset %rbp, -16
	movq	%rsp, %rbp
	.cfi_def_cfa_register %rbp
	subq	$96, %rsp
	movq	%rdi, -40(%rbp)
	movq	%rsi, -32(%rbp)
	leaq	-40(%rbp), %rdi
	callq	__ZN4core3ptr6unique15Unique$LT$T$GT$6as_ref17h8c79bc84d972ecfaE
	movq	%rdx, -48(%rbp)
	movq	-48(%rbp), %rax
	shlq	$0, %rax
	movq	%rax, -16(%rbp)
	movq	-16(%rbp), %rdi
	movq	%rdi, -56(%rbp)
	leaq	-40(%rbp), %rdi
	callq	__ZN4core3ptr6unique15Unique$LT$T$GT$6as_ref17h8c79bc84d972ecfaE
	movq	$1, -8(%rbp)
	movq	-8(%rbp), %rsi
	movq	%rsi, -64(%rbp)
	movq	-56(%rbp), %rdi
	movq	-64(%rbp), %rsi
	callq	__ZN4core5alloc6layout6Layout25from_size_align_unchecked17h465b9801fc2d048dE
	movq	%rax, -72(%rbp)
	movq	%rdx, -80(%rbp)
	movq	-40(%rbp), %rdi
	movq	-32(%rbp), %rsi
	callq	__ZN4core3ptr6unique15Unique$LT$T$GT$4cast17h985b6e205623bf24E
	movq	%rax, -88(%rbp)
	movq	-88(%rbp), %rdi
	callq	__ZN50_$LT$T$u20$as$u20$core..convert..Into$LT$U$GT$$GT$4into17hfb12b04d43608501E
	movq	%rax, -96(%rbp)
	leaq	-24(%rbp), %rdi
	movq	-96(%rbp), %rsi
	movq	-72(%rbp), %rdx
	movq	-80(%rbp), %rcx
	callq	__ZN62_$LT$alloc..alloc..Global$u20$as$u20$core..alloc..AllocRef$GT$7dealloc17h09b15319db2ba86fE
	addq	$96, %rsp
	popq	%rbp
	retq
	.cfi_endproc

	.p2align	4, 0x90
__ZN5alloc5alloc8box_free17hd154797e08376d46E:
	.cfi_startproc
	pushq	%rbp
	.cfi_def_cfa_offset 16
	.cfi_offset %rbp, -16
	movq	%rsp, %rbp
	.cfi_def_cfa_register %rbp
	subq	$112, %rsp
	movq	%rdi, -40(%rbp)
	movq	%rsi, -32(%rbp)
	leaq	-40(%rbp), %rdi
	callq	__ZN4core3ptr6unique15Unique$LT$T$GT$6as_ref17h5201e6da36373483E
	movq	%rdx, -48(%rbp)
	movq	-48(%rbp), %rax
	movq	8(%rax), %rcx
	movq	%rcx, -16(%rbp)
	movq	-16(%rbp), %rdi
	movq	%rdi, -56(%rbp)
	leaq	-40(%rbp), %rdi
	callq	__ZN4core3ptr6unique15Unique$LT$T$GT$6as_ref17h5201e6da36373483E
	movq	%rdx, -64(%rbp)
	movq	-64(%rbp), %rax
	movq	16(%rax), %rcx
	movq	%rcx, -8(%rbp)
	movq	-8(%rbp), %rsi
	movq	%rsi, -72(%rbp)
	movq	-56(%rbp), %rdi
	movq	-72(%rbp), %rsi
	callq	__ZN4core5alloc6layout6Layout25from_size_align_unchecked17h465b9801fc2d048dE
	movq	%rax, -80(%rbp)
	movq	%rdx, -88(%rbp)
	movq	-40(%rbp), %rdi
	movq	-32(%rbp), %rsi
	callq	__ZN4core3ptr6unique15Unique$LT$T$GT$4cast17h43811372d569448aE
	movq	%rax, -96(%rbp)
	movq	-96(%rbp), %rdi
	callq	__ZN50_$LT$T$u20$as$u20$core..convert..Into$LT$U$GT$$GT$4into17hfb12b04d43608501E
	movq	%rax, -104(%rbp)
	leaq	-24(%rbp), %rdi
	movq	-104(%rbp), %rsi
	movq	-80(%rbp), %rdx
	movq	-88(%rbp), %rcx
	callq	__ZN62_$LT$alloc..alloc..Global$u20$as$u20$core..alloc..AllocRef$GT$7dealloc17h09b15319db2ba86fE
	addq	$112, %rsp
	popq	%rbp
	retq
	.cfi_endproc

	.p2align	4, 0x90
__ZN5alloc5alloc8box_free17hf8653b8ceaa691d4E:
	.cfi_startproc
	pushq	%rbp
