	.section	__TEXT,__text,regular,pure_instructions
	.macosx_version_min 10, 7
	.p2align	4, 0x90
__ZN100_$LT$alloc..string..String$u20$as$u20$core..ops..index..Index$LT$core..ops..range..RangeFull$GT$$GT$5index17h4526b21595350005E:
Lfunc_begin0:
	.file	1 "/rustc/6c8927b0cf80ceee19386026cf9d7fd4fd9d486f/src/liballoc/string.rs"
	.loc	1 2063 0
	.cfi_startproc
	pushq	%rbp
	.cfi_def_cfa_offset 16
	.cfi_offset %rbp, -16
	movq	%rsp, %rbp
	.cfi_def_cfa_register %rbp
	subq	$64, %rsp
	movq	%rdi, -16(%rbp)
	movq	%rsi, -24(%rbp)
Ltmp0:
	.loc	1 2064 43 prologue_end
	callq	__ZN68_$LT$alloc..vec..Vec$LT$T$GT$$u20$as$u20$core..ops..deref..Deref$GT$5deref17h51815a26df272f90E
	movq	%rax, -32(%rbp)
	movq	%rdx, -40(%rbp)
	.loc	1 0 43 is_stmt 0
	movq	-32(%rbp), %rdi
	movq	-40(%rbp), %rsi
	.loc	1 2064 18
	callq	__ZN4core3str19from_utf8_unchecked17hf7287c1229505c83E
	movq	%rax, -48(%rbp)
	movq	%rdx, -56(%rbp)
	.loc	1 0 18
	movq	-48(%rbp), %rax
	movq	-56(%rbp), %rdx
	.loc	1 2065 6 is_stmt 1
	addq	$64, %rsp
	popq	%rbp
	retq
Ltmp1:
Lfunc_end0:
	.cfi_endproc

	.p2align	4, 0x90
__ZN101_$LT$core..ops..range..RangeTo$LT$usize$GT$$u20$as$u20$core..slice..SliceIndex$LT$$u5b$T$u5d$$GT$$GT$5index17h91c5c7f483eab20fE:
Lfunc_begin1:
	.file	2 "/rustc/6c8927b0cf80ceee19386026cf9d7fd4fd9d486f/src/libcore/slice/mod.rs"
	.loc	2 3213 0
	.cfi_startproc
	pushq	%rbp
	.cfi_def_cfa_offset 16
	.cfi_offset %rbp, -16
	movq	%rsp, %rbp
	.cfi_def_cfa_register %rbp
	subq	$80, %rsp
	movq	%rdi, -24(%rbp)
	movq	%rsi, -16(%rbp)
	movq	%rdx, -8(%rbp)
Ltmp2:
	.loc	2 3214 9 prologue_end
	movq	$0, -40(%rbp)
	movq	%rdi, -32(%rbp)
	movq	-40(%rbp), %rdi
	movq	-32(%rbp), %rax
	movq	%rsi, -48(%rbp)
	movq	%rax, %rsi
	movq	-48(%rbp), %rax
	movq	%rdx, -56(%rbp)
	movq	%rax, %rdx
	movq	-56(%rbp), %r8
	movq	%rcx, -64(%rbp)
	movq	%r8, %rcx
	movq	-64(%rbp), %r8
	callq	__ZN99_$LT$core..ops..range..Range$LT$usize$GT$$u20$as$u20$core..slice..SliceIndex$LT$$u5b$T$u5d$$GT$$GT$5index17h20baa5a4b723722eE
	movq	%rax, -72(%rbp)
	movq	%rdx, -80(%rbp)
	.loc	2 0 9 is_stmt 0
	movq	-72(%rbp), %rax
	movq	-80(%rbp), %rdx
	.loc	2 3215 6 is_stmt 1
	addq	$80, %rsp
	popq	%rbp
	retq
Ltmp3:
Lfunc_end1:
	.cfi_endproc

	.p2align	4, 0x90
__ZN101_$LT$core..ops..range..RangeTo$LT$usize$GT$$u20$as$u20$core..slice..SliceIndex$LT$$u5b$T$u5d$$GT$$GT$9index_mut17h59f9df6c32f10583E:
Lfunc_begin2:
	.loc	2 3218 0
	.cfi_startproc
	pushq	%rbp
	.cfi_def_cfa_offset 16
	.cfi_offset %rbp, -16
	movq	%rsp, %rbp
	.cfi_def_cfa_register %rbp
	subq	$80, %rsp
	movq	%rdi, -24(%rbp)
	movq	%rsi, -16(%rbp)
	movq	%rdx, -8(%rbp)
Ltmp4:
	.loc	2 3219 9 prologue_end
	movq	$0, -40(%rbp)
	movq	%rdi, -32(%rbp)
	movq	-40(%rbp), %rdi
	movq	-32(%rbp), %rax
	movq	%rsi, -48(%rbp)
	movq	%rax, %rsi
	movq	-48(%rbp), %rax
	movq	%rdx, -56(%rbp)
	movq	%rax, %rdx
	movq	-56(%rbp), %r8
	movq	%rcx, -64(%rbp)
	movq	%r8, %rcx
	movq	-64(%rbp), %r8
	callq	__ZN99_$LT$core..ops..range..Range$LT$usize$GT$$u20$as$u20$core..slice..SliceIndex$LT$$u5b$T$u5d$$GT$$GT$9index_mut17hec174171cd0b4184E
	movq	%rax, -72(%rbp)
	movq	%rdx, -80(%rbp)
	.loc	2 0 9 is_stmt 0
	movq	-72(%rbp), %rax
	movq	-80(%rbp), %rdx
	.loc	2 3220 6 is_stmt 1
	addq	$80, %rsp
	popq	%rbp
	retq
Ltmp5:
Lfunc_end2:
	.cfi_endproc

	.p2align	4, 0x90
__ZN105_$LT$std..ffi..os_str..OsString$u20$as$u20$core..ops..index..Index$LT$core..ops..range..RangeFull$GT$$GT$5index17h0cc976f80a1594e0E:
Lfunc_begin3:
	.file	3 "/rustc/6c8927b0cf80ceee19386026cf9d7fd4fd9d486f/src/libstd/ffi/os_str.rs"
	.loc	3 378 0
	.cfi_startproc
	pushq	%rbp
	.cfi_def_cfa_offset 16
	.cfi_offset %rbp, -16
	movq	%rsp, %rbp
	.cfi_def_cfa_register %rbp
	subq	$64, %rsp
	movq	%rdi, -16(%rbp)
	movq	%rsi, -24(%rbp)
Ltmp6:
	.loc	3 379 27 prologue_end
	callq	__ZN3std10sys_common12os_str_bytes3Buf8as_slice17haa0fd7519fe61fd8E
	movq	%rax, -32(%rbp)
	movq	%rdx, -40(%rbp)
	.loc	3 0 27 is_stmt 0
	movq	-32(%rbp), %rdi
	movq	-40(%rbp), %rsi
	.loc	3 379 9
	callq	__ZN3std3ffi6os_str5OsStr10from_inner17h3367d707e7ba02b3E
	movq	%rax, -48(%rbp)
	movq	%rdx, -56(%rbp)
	.loc	3 0 9
	movq	-48(%rbp), %rax
	movq	-56(%rbp), %rdx
	.loc	3 380 6 is_stmt 1
	addq	$64, %rsp
	popq	%rbp
	retq
Ltmp7:
Lfunc_end3:
	.cfi_endproc

	.p2align	4, 0x90
__ZN112_$LT$alloc..collections..btree..map..IntoIter$LT$K$C$V$GT$$u20$as$u20$core..iter..traits..iterator..Iterator$GT$4next17hc5803d759d77ebf0E:
Lfunc_begin4:
	.file	4 "/rustc/6c8927b0cf80ceee19386026cf9d7fd4fd9d486f/src/liballoc/collections/btree/map.rs"
	.loc	4 1486 0
	.cfi_startproc
	pushq	%rbp
	.cfi_def_cfa_offset 16
	.cfi_offset %rbp, -16
	movq	%rsp, %rbp
	.cfi_def_cfa_register %rbp
	subq	$96, %rsp
	movq	%rdi, %rax
	movq	%rsi, -8(%rbp)
Ltmp8:
	.loc	4 1487 12 prologue_end
	cmpq	$0, 64(%rsi)
	movq	%rsi, -64(%rbp)
	movq	%rdi, -72(%rbp)
	movq	%rax, -80(%rbp)
	.loc	4 1487 9 is_stmt 0
	je	LBB4_2
	.loc	4 0 9
	movq	-64(%rbp), %rax
	.loc	4 1490 13 is_stmt 1
	movq	64(%rax), %rcx
	subq	$1, %rcx
	movq	%rcx, 64(%rax)
	.loc	4 1491 27
	movq	%rax, %rdi
	callq	__ZN4core6option15Option$LT$T$GT$6as_mut17ha983a8600851dcdbE
	movq	%rax, -88(%rbp)
	jmp	LBB4_3
LBB4_2:
	.loc	4 0 27 is_stmt 0
	movq	-72(%rbp), %rax
	.loc	4 1488 13 is_stmt 1
	movq	$0, (%rax)
	.loc	4 1487 9
	jmp	LBB4_6
LBB4_3:
	.loc	4 0 9 is_stmt 0
	leaq	l___unnamed_3(%rip), %rax
	movq	-88(%rbp), %rdi
	.loc	4 1491 27 is_stmt 1
	movq	%rax, %rsi
	callq	__ZN4core6option15Option$LT$T$GT$6unwrap17h204da5a834fb16e0E
	movq	%rax, -96(%rbp)
	leaq	-56(%rbp), %rdi
	movq	-96(%rbp), %rsi
	callq	__ZN5alloc11collections5btree8navigate263_$LT$impl$u20$alloc..collections..btree..node..Handle$LT$alloc..collections..btree..node..NodeRef$LT$alloc..collections..btree..node..marker..Owned$C$K$C$V$C$alloc..collections..btree..node..marker..Leaf$GT$$C$alloc..collections..btree..node..marker..Edge$GT$$GT$14next_unchecked17h1257406746af3ae2E
	.loc	4 0 27 is_stmt 0
	movq	-72(%rbp), %rax
	.loc	4 1491 13
	leaq	-56(%rbp), %rcx
	movq	%rax, %rdi
	movq	%rcx, %rsi
	movl	$48, %edx
	callq	_memcpy
LBB4_6:
	.loc	4 0 13
	movq	-80(%rbp), %rax
	.loc	4 1493 6 is_stmt 1
	addq	$96, %rsp
	popq	%rbp
	retq
Ltmp9:
Lfunc_end4:
	.cfi_endproc

	.p2align	4, 0x90
__ZN115_$LT$alloc..collections..btree..map..BTreeMap$LT$K$C$V$GT$$u20$as$u20$core..iter..traits..collect..IntoIterator$GT$9into_iter17h890c17550c42168eE:
Lfunc_begin5:
	.loc	4 1430 0
	.cfi_startproc
	pushq	%rbp
	.cfi_def_cfa_offset 16
	.cfi_offset %rbp, -16
	movq	%rsp, %rbp
	.cfi_def_cfa_register %rbp
	subq	$496, %rsp
	movq	%rdi, %rax
Ltmp10:
	.loc	4 1431 40 prologue_end
	movq	(%rsi), %rcx
	movq	%rcx, -440(%rbp)
	movq	8(%rsi), %rcx
	movq	%rcx, -432(%rbp)
	movq	16(%rsi), %rcx
	movq	%rcx, -424(%rbp)
Ltmp11:
	.file	5 "/rustc/6c8927b0cf80ceee19386026cf9d7fd4fd9d486f/src/libcore/mem/manually_drop.rs"
	.loc	5 83 24
	movq	-440(%rbp), %rcx
	movq	%rcx, -40(%rbp)
	movq	-432(%rbp), %rcx
	movq	%rcx, -32(%rbp)
	movq	-424(%rbp), %rcx
	movq	%rcx, -24(%rbp)
	.loc	5 83 9 is_stmt 0
	movq	-40(%rbp), %rcx
	movq	%rcx, -464(%rbp)
	movq	-32(%rbp), %rcx
	movq	%rcx, -456(%rbp)
	movq	-24(%rbp), %rcx
	movq	%rcx, -448(%rbp)
	movq	%rdi, -472(%rbp)
	movq	%rax, -480(%rbp)
Ltmp12:
	.loc	5 0 9
	leaq	-464(%rbp), %rax
	movq	%rax, -8(%rbp)
	movq	%rax, -488(%rbp)
Ltmp13:
	movq	-488(%rbp), %rdi
Ltmp14:
	.loc	4 1432 29 is_stmt 1
	callq	__ZN4core6option15Option$LT$T$GT$4take17hb9ec5308fa0ed99aE
Ltmp15:
	movq	%rdx, -408(%rbp)
	movq	%rax, -416(%rbp)
	.loc	4 0 29 is_stmt 0
	xorl	%eax, %eax
	movl	%eax, %ecx
	.loc	4 1432 16
	cmpq	$0, -416(%rbp)
	movl	$1, %edx
	cmovbeq	%rcx, %rdx
	cmpq	$1, %rdx
	je	LBB5_5
	.loc	4 1437 31 is_stmt 1
	movq	$0, -112(%rbp)
	.loc	4 1437 43 is_stmt 0
	movq	$0, -80(%rbp)
	.loc	4 1437 13
	movq	-120(%rbp), %rax
	movq	-472(%rbp), %rcx
	movq	%rax, (%rcx)
	movq	-112(%rbp), %rax
	movq	%rax, 8(%rcx)
	movq	-104(%rbp), %rax
	movq	%rax, 16(%rcx)
	movq	-96(%rbp), %rax
	movq	%rax, 24(%rcx)
	movq	-88(%rbp), %rax
	movq	%rax, 32(%rcx)
	movq	-80(%rbp), %rax
	movq	%rax, 40(%rcx)
	movq	-72(%rbp), %rax
	movq	%rax, 48(%rcx)
	movq	-64(%rbp), %rax
	movq	%rax, 56(%rcx)
	movq	$0, 64(%rcx)
	.loc	4 1432 9 is_stmt 1
	jmp	LBB5_9
LBB5_5:
	.loc	4 1432 21 is_stmt 0
	movq	-416(%rbp), %rax
	movq	-408(%rbp), %rcx
	movq	%rax, -56(%rbp)
	movq	%rcx, -48(%rbp)
Ltmp16:
	.loc	4 1433 44 is_stmt 1
	leaq	-272(%rbp), %rdi
	movq	%rax, %rsi
	movq	%rcx, %rdx
	callq	__ZN5alloc11collections5btree4node17Root$LT$K$C$V$GT$8into_ref17h59e38a22a22b7a47E
	.loc	4 1433 26 is_stmt 0
	leaq	-336(%rbp), %rdi
	leaq	-272(%rbp), %rsi
	callq	__ZN5alloc11collections5btree3map17full_range_search17h29ad5a9cd4bb127bE
	.loc	4 1433 18
	movq	-336(%rbp), %rax
	movq	%rax, -400(%rbp)
	movq	-328(%rbp), %rax
	movq	%rax, -392(%rbp)
	movq	-320(%rbp), %rax
	movq	%rax, -384(%rbp)
	movq	-312(%rbp), %rax
	movq	%rax, -376(%rbp)
	.loc	4 1433 21
	movq	-304(%rbp), %rax
	movq	%rax, -368(%rbp)
	movq	-296(%rbp), %rax
	movq	%rax, -360(%rbp)
	movq	-288(%rbp), %rax
	movq	%rax, -352(%rbp)
	movq	-280(%rbp), %rax
	movq	%rax, -344(%rbp)
Ltmp17:
	.loc	4 1435 36 is_stmt 1
	movq	-400(%rbp), %rax
	movq	%rax, -216(%rbp)
	movq	-392(%rbp), %rax
	movq	%rax, -208(%rbp)
	movq	-384(%rbp), %rax
	movq	%rax, -200(%rbp)
	movq	-376(%rbp), %rax
	movq	%rax, -192(%rbp)
	.loc	4 1435 31 is_stmt 0
	movq	-216(%rbp), %rax
	movq	%rax, -248(%rbp)
	movq	-208(%rbp), %rax
	movq	%rax, -240(%rbp)
	movq	-200(%rbp), %rax
	movq	%rax, -232(%rbp)
	movq	-192(%rbp), %rax
	movq	%rax, -224(%rbp)
	.loc	4 1435 51
	movq	-368(%rbp), %rax
	movq	%rax, -152(%rbp)
	movq	-360(%rbp), %rax
	movq	%rax, -144(%rbp)
	movq	-352(%rbp), %rax
	movq	%rax, -136(%rbp)
	movq	-344(%rbp), %rax
	movq	%rax, -128(%rbp)
	.loc	4 1435 46
	movq	-152(%rbp), %rax
	movq	%rax, -184(%rbp)
	movq	-144(%rbp), %rax
	movq	%rax, -176(%rbp)
	movq	-136(%rbp), %rax
	movq	%rax, -168(%rbp)
	movq	-128(%rbp), %rax
	movq	%rax, -160(%rbp)
	leaq	-464(%rbp), %rax
	movq	%rax, -16(%rbp)
	movq	%rax, -496(%rbp)
	.loc	4 0 46
	movq	-496(%rbp), %rax
	.loc	4 1435 63
	movq	16(%rax), %rcx
	.loc	4 1435 13
	movq	-248(%rbp), %rdx
	movq	-472(%rbp), %rsi
	movq	%rdx, (%rsi)
	movq	-240(%rbp), %rdx
	movq	%rdx, 8(%rsi)
	movq	-232(%rbp), %rdx
	movq	%rdx, 16(%rsi)
	movq	-224(%rbp), %rdx
	movq	%rdx, 24(%rsi)
	movq	-184(%rbp), %rdx
	movq	%rdx, 32(%rsi)
	movq	-176(%rbp), %rdx
	movq	%rdx, 40(%rsi)
	movq	-168(%rbp), %rdx
	movq	%rdx, 48(%rsi)
	movq	-160(%rbp), %rdx
	movq	%rdx, 56(%rsi)
	movq	%rcx, 64(%rsi)
Ltmp18:
LBB5_9:
	.loc	4 0 13
	movq	-480(%rbp), %rax
	.loc	4 1439 6 is_stmt 1
	addq	$496, %rsp
	popq	%rbp
	retq
Ltmp19:
Lfunc_end5:
	.cfi_endproc

	.p2align	4, 0x90
__ZN119_$LT$core..ptr..non_null..NonNull$LT$T$GT$$u20$as$u20$core..convert..From$LT$core..ptr..unique..Unique$LT$T$GT$$GT$$GT$4from17h0edc730df8f44268E:
Lfunc_begin6:
	.file	6 "/rustc/6c8927b0cf80ceee19386026cf9d7fd4fd9d486f/src/libcore/ptr/non_null.rs"
	.loc	6 329 0
	.cfi_startproc
	pushq	%rbp
	.cfi_def_cfa_offset 16
	.cfi_offset %rbp, -16
	movq	%rsp, %rbp
	.cfi_def_cfa_register %rbp
	subq	$32, %rsp
	movq	%rdi, -8(%rbp)
Ltmp20:
	.loc	6 332 41 prologue_end
	callq	__ZN4core3ptr6unique15Unique$LT$T$GT$6as_ptr17h0dc5ee48c3104fe9E
	movq	%rax, -16(%rbp)
	.loc	6 0 41 is_stmt 0
	movq	-16(%rbp), %rdi
	.loc	6 332 18
	callq	__ZN4core3ptr8non_null16NonNull$LT$T$GT$13new_unchecked17hb364db7f4e7ea21dE
	movq	%rax, -24(%rbp)
	.loc	6 0 18
	movq	-24(%rbp), %rax
	.loc	6 333 6 is_stmt 1
	addq	$32, %rsp
	popq	%rbp
	retq
Ltmp21:
Lfunc_end6:
	.cfi_endproc

	.p2align	4, 0x90
__ZN119_$LT$core..ptr..non_null..NonNull$LT$T$GT$$u20$as$u20$core..convert..From$LT$core..ptr..unique..Unique$LT$T$GT$$GT$$GT$4from17h1147e97b2e995821E:
Lfunc_begin7:
	.loc	6 329 0
	.cfi_startproc
	pushq	%rbp
	.cfi_def_cfa_offset 16
	.cfi_offset %rbp, -16
	movq	%rsp, %rbp
	.cfi_def_cfa_register %rbp
	subq	$32, %rsp
	movq	%rdi, -8(%rbp)
Ltmp22:
	.loc	6 332 41 prologue_end
	callq	__ZN4core3ptr6unique15Unique$LT$T$GT$6as_ptr17ha059980d508bc501E
	movq	%rax, -16(%rbp)
	.loc	6 0 41 is_stmt 0
	movq	-16(%rbp), %rdi
	.loc	6 332 18
	callq	__ZN4core3ptr8non_null16NonNull$LT$T$GT$13new_unchecked17h87f00c7b11c75d66E
	movq	%rax, -24(%rbp)
	.loc	6 0 18
	movq	-24(%rbp), %rax
	.loc	6 333 6 is_stmt 1
	addq	$32, %rsp
	popq	%rbp
	retq
Ltmp23:
Lfunc_end7:
	.cfi_endproc

	.p2align	4, 0x90
__ZN166_$LT$$LT$alloc..collections..btree..map..IntoIter$LT$K$C$V$GT$$u20$as$u20$core..ops..drop..Drop$GT$..drop..DropGuard$LT$K$C$V$GT$$u20$as$u20$core..ops..drop..Drop$GT$4drop17hc5e755a130dd7299E:
Lfunc_begin8:
	.loc	4 1448 0
	.cfi_startproc
	pushq	%rbp
	.cfi_def_cfa_offset 16
	.cfi_offset %rbp, -16
	movq	%rsp, %rbp
	.cfi_def_cfa_register %rbp
	subq	$384, %rsp
	movq	%rdi, -40(%rbp)
	movq	%rdi, -376(%rbp)
LBB8_1:
	movq	-376(%rbp), %rax
Ltmp24:
	.loc	4 1451 37 prologue_end
	movq	(%rax), %rsi
	leaq	-368(%rbp), %rdi
	callq	__ZN112_$LT$alloc..collections..btree..map..IntoIter$LT$K$C$V$GT$$u20$as$u20$core..iter..traits..iterator..Iterator$GT$4next17hc5803d759d77ebf0E
	.loc	4 0 37 is_stmt 0
	xorl	%eax, %eax
	movl	%eax, %ecx
	.loc	4 1451 27
	cmpq	$0, -368(%rbp)
	movl	$1, %edx
	cmovbeq	%rcx, %rdx
	cmpq	$1, %rdx
	je	LBB8_4
	.loc	4 1451 52
	leaq	-368(%rbp), %rdi
	callq	__ZN4core3ptr13drop_in_place17ha8a72fa0deeb5728E
	jmp	LBB8_5
LBB8_4:
	leaq	-368(%rbp), %rdi
	callq	__ZN4core3ptr13drop_in_place17ha8a72fa0deeb5728E
	jmp	LBB8_6
LBB8_5:
	.loc	4 0 52
	movq	-376(%rbp), %rax
	.loc	4 1455 52 is_stmt 1
	movq	(%rax), %rcx
	.loc	4 1455 42 is_stmt 0
	leaq	-240(%rbp), %rdi
	movq	%rcx, %rsi
	callq	__ZN4core3ptr4read17hb99bef9ff067f558E
	jmp	LBB8_7
LBB8_6:
	.loc	4 1451 17 is_stmt 1
	jmp	LBB8_1
LBB8_7:
Ltmp25:
	.file	7 "/rustc/6c8927b0cf80ceee19386026cf9d7fd4fd9d486f/src/liballoc/collections/btree/mod.rs"
	.loc	7 18 5
	movq	-240(%rbp), %rax
	movq	%rax, -32(%rbp)
	movq	-232(%rbp), %rax
	movq	%rax, -24(%rbp)
	movq	-224(%rbp), %rax
	movq	%rax, -16(%rbp)
	movq	-216(%rbp), %rax
	movq	%rax, -8(%rbp)
	leaq	-272(%rbp), %rdi
	leaq	-32(%rbp), %rsi
	callq	__ZN4core6option15Option$LT$T$GT$14unwrap_or_else17h927c9ea64616dcb9E
Ltmp26:
	.loc	4 1455 25
	leaq	-296(%rbp), %rdi
	leaq	-272(%rbp), %rsi
	callq	__ZN5alloc11collections5btree4node25Handle$LT$Node$C$Type$GT$9into_node17h6dfee63655339158E
	leaq	-320(%rbp), %rdi
	leaq	-296(%rbp), %rsi
	callq	__ZN5alloc11collections5btree4node40NodeRef$LT$BorrowType$C$K$C$V$C$Type$GT$11forget_type17hb9542c70e6918c1fE
Ltmp27:
	.loc	4 1456 21
	jmp	LBB8_11
LBB8_11:
	.loc	4 1456 46 is_stmt 0
	movq	-320(%rbp), %rax
	movq	%rax, -176(%rbp)
	movq	-312(%rbp), %rax
	movq	%rax, -168(%rbp)
	movq	-304(%rbp), %rax
	movq	%rax, -160(%rbp)
	leaq	-208(%rbp), %rdi
	leaq	-176(%rbp), %rsi
	callq	__ZN5alloc11collections5btree4node127NodeRef$LT$alloc..collections..btree..node..marker..Owned$C$K$C$V$C$alloc..collections..btree..node..marker..LeafOrInternal$GT$21deallocate_and_ascend17h5a2dbb55c3bde34aE
	.loc	4 0 46
	xorl	%eax, %eax
	movl	%eax, %ecx
	.loc	4 1456 31
	cmpq	$0, -200(%rbp)
	movl	$1, %edx
	cmovbeq	%rcx, %rdx
	cmpq	$1, %rdx
	je	LBB8_14
Ltmp28:
	.loc	4 1460 14 is_stmt 1
	addq	$384, %rsp
	popq	%rbp
	retq
LBB8_14:
Ltmp29:
	.loc	4 1456 36
	movq	-208(%rbp), %rax
	movq	%rax, -152(%rbp)
	movq	-200(%rbp), %rax
	movq	%rax, -144(%rbp)
	movq	-192(%rbp), %rax
	movq	%rax, -136(%rbp)
	movq	-184(%rbp), %rax
	movq	%rax, -128(%rbp)
Ltmp30:
	.loc	4 1457 32
	movq	-152(%rbp), %rax
	movq	%rax, -72(%rbp)
	movq	-144(%rbp), %rax
	movq	%rax, -64(%rbp)
	movq	-136(%rbp), %rax
	movq	%rax, -56(%rbp)
	movq	-128(%rbp), %rax
	movq	%rax, -48(%rbp)
	leaq	-96(%rbp), %rdi
	leaq	-72(%rbp), %rsi
	callq	__ZN5alloc11collections5btree4node25Handle$LT$Node$C$Type$GT$9into_node17habe6c25f7ebdad91E
	leaq	-120(%rbp), %rdi
	leaq	-96(%rbp), %rsi
	callq	__ZN5alloc11collections5btree4node40NodeRef$LT$BorrowType$C$K$C$V$C$Type$GT$11forget_type17h24cd7f3437795f65E
	.loc	4 1457 25 is_stmt 0
	movq	-120(%rbp), %rax
	movq	%rax, -320(%rbp)
	movq	-112(%rbp), %rax
	movq	%rax, -312(%rbp)
	movq	-104(%rbp), %rax
	movq	%rax, -304(%rbp)
Ltmp31:
	.loc	4 1456 21 is_stmt 1
	jmp	LBB8_11
Ltmp32:
Lfunc_end8:
	.cfi_endproc

	.p2align	4, 0x90
__ZN3std10sys_common12os_str_bytes3Buf8as_slice17haa0fd7519fe61fd8E:
Lfunc_begin9:
	.file	8 "/rustc/6c8927b0cf80ceee19386026cf9d7fd4fd9d486f/src/libstd/sys_common/os_str_bytes.rs"
	.loc	8 108 0
	.cfi_startproc
	pushq	%rbp
	.cfi_def_cfa_offset 16
	.cfi_offset %rbp, -16
	movq	%rsp, %rbp
	.cfi_def_cfa_register %rbp
	subq	$64, %rsp
	movq	%rdi, -24(%rbp)
Ltmp33:
	.loc	8 112 34 prologue_end
	callq	__ZN68_$LT$alloc..vec..Vec$LT$T$GT$$u20$as$u20$core..ops..deref..Deref$GT$5deref17h51815a26df272f90E
	movq	%rax, -32(%rbp)
	movq	%rdx, -40(%rbp)
	.loc	8 0 34 is_stmt 0
	movq	-32(%rbp), %rax
	.loc	8 112 18
	movq	%rax, -16(%rbp)
	movq	-40(%rbp), %rcx
	movq	%rcx, -8(%rbp)
	movq	-16(%rbp), %rax
	movq	-8(%rbp), %rdx
	movq	%rax, -48(%rbp)
	movq	%rdx, -56(%rbp)
	.loc	8 0 18
	movq	-48(%rbp), %rax
	movq	-56(%rbp), %rdx
	.loc	8 113 6 is_stmt 1
	addq	$64, %rsp
	popq	%rbp
	retq
Ltmp34:
Lfunc_end9:
	.cfi_endproc

	.p2align	4, 0x90
__ZN3std10sys_common12os_str_bytes5Slice13from_u8_slice17h3319c8e55f9226c7E:
Lfunc_begin10:
	.loc	8 155 0
	.cfi_startproc
	pushq	%rbp
	.cfi_def_cfa_offset 16
	.cfi_offset %rbp, -16
	movq	%rsp, %rbp
	.cfi_def_cfa_register %rbp
	subq	$48, %rsp
	movq	%rdi, -32(%rbp)
	movq	%rsi, -24(%rbp)
Ltmp35:
	.loc	8 156 18 prologue_end
	movq	%rdi, -16(%rbp)
	movq	%rsi, -8(%rbp)
	movq	-16(%rbp), %rax
	movq	-8(%rbp), %rdx
	movq	%rax, -40(%rbp)
	movq	%rdx, -48(%rbp)
	.loc	8 0 18 is_stmt 0
	movq	-40(%rbp), %rax
	movq	-48(%rbp), %rdx
	.loc	8 157 6 is_stmt 1
	addq	$48, %rsp
	popq	%rbp
	retq
Ltmp36:
Lfunc_end10:
	.cfi_endproc

	.p2align	4, 0x90
__ZN3std10sys_common12os_str_bytes5Slice8from_str17h11614fc3a5bc240eE:
Lfunc_begin11:
	.loc	8 160 0
	.cfi_startproc
	pushq	%rbp
	.cfi_def_cfa_offset 16
	.cfi_offset %rbp, -16
	movq	%rsp, %rbp
	.cfi_def_cfa_register %rbp
	subq	$80, %rsp
	movq	%rdi, -48(%rbp)
	movq	%rsi, -40(%rbp)
	movq	%rdi, -16(%rbp)
	movq	%rsi, -8(%rbp)
Ltmp37:
	.file	9 "/rustc/6c8927b0cf80ceee19386026cf9d7fd4fd9d486f/src/libcore/str/mod.rs"
	.loc	9 2359 18 prologue_end
	movq	%rdi, -32(%rbp)
	movq	%rsi, -24(%rbp)
	movq	-32(%rbp), %rdi
	movq	-24(%rbp), %rsi
	movq	%rdi, -56(%rbp)
	movq	%rsi, -64(%rbp)
Ltmp38:
	.loc	9 0 18 is_stmt 0
	movq	-56(%rbp), %rdi
	movq	-64(%rbp), %rsi
	.loc	8 161 9 is_stmt 1
	callq	__ZN3std10sys_common12os_str_bytes5Slice13from_u8_slice17h3319c8e55f9226c7E
	movq	%rax, -72(%rbp)
	movq	%rdx, -80(%rbp)
	.loc	8 0 9 is_stmt 0
	movq	-72(%rbp), %rax
	movq	-80(%rbp), %rdx
	.loc	8 162 6 is_stmt 1
	addq	$80, %rsp
	popq	%rbp
	retq
Ltmp39:
Lfunc_end11:
	.cfi_endproc

	.private_extern	__ZN3std2rt10lang_start17hd0d70d9f200f3391E
	.globl	__ZN3std2rt10lang_start17hd0d70d9f200f3391E
	.p2align	4, 0x90
__ZN3std2rt10lang_start17hd0d70d9f200f3391E:
Lfunc_begin12:
	.file	10 "/rustc/6c8927b0cf80ceee19386026cf9d7fd4fd9d486f/src/libstd/rt.rs"
	.loc	10 62 0
	.cfi_startproc
	pushq	%rbp
	.cfi_def_cfa_offset 16
	.cfi_offset %rbp, -16
	movq	%rsp, %rbp
	.cfi_def_cfa_register %rbp
	subq	$64, %rsp
	leaq	l___unnamed_1(%rip), %rax
	movq	%rdi, -24(%rbp)
	movq	%rsi, -16(%rbp)
	movq	%rdx, -8(%rbp)
Ltmp40:
	.loc	10 67 26 prologue_end
	movq	%rdi, -32(%rbp)
	.loc	10 67 25 is_stmt 0
	leaq	-32(%rbp), %rcx
	.loc	10 67 5
	movq	%rcx, %rdi
	movq	%rsi, -40(%rbp)
	movq	%rax, %rsi
	movq	-40(%rbp), %rax
	movq	%rdx, -48(%rbp)
	movq	%rax, %rdx
	movq	-48(%rbp), %rcx
	callq	__ZN3std2rt19lang_start_internal17hbbd10965adc92ae7E
	movq	%rax, -56(%rbp)
	.loc	10 0 5
	movq	-56(%rbp), %rax
	.loc	10 68 2 is_stmt 1
	addq	$64, %rsp
	popq	%rbp
	retq
Ltmp41:
Lfunc_end12:
	.cfi_endproc

	.p2align	4, 0x90
__ZN3std2rt10lang_start28_$u7b$$u7b$closure$u7d$$u7d$17ha970edee604c3ca4E:
Lfunc_begin13:
	.loc	10 67 0
	.cfi_startproc
	pushq	%rbp
	.cfi_def_cfa_offset 16
	.cfi_offset %rbp, -16
	movq	%rsp, %rbp
	.cfi_def_cfa_register %rbp
	subq	$16, %rsp
	movq	%rdi, -8(%rbp)
Ltmp42:
	.loc	10 67 34 prologue_end
	callq	*(%rdi)
	callq	__ZN54_$LT$$LP$$RP$$u20$as$u20$std..process..Termination$GT$6report17h610ec1db96a554bcE
	movl	%eax, -12(%rbp)
	.loc	10 0 34 is_stmt 0
	movl	-12(%rbp), %eax
	.loc	10 67 49
	addq	$16, %rsp
	popq	%rbp
	retq
Ltmp43:
Lfunc_end13:
	.cfi_endproc

	.p2align	4, 0x90
__ZN3std3env3var17h90102b30986eb090E:
Lfunc_begin14:
	.file	11 "/rustc/6c8927b0cf80ceee19386026cf9d7fd4fd9d486f/src/libstd/env.rs"
	.loc	11 211 0 is_stmt 1
	.cfi_startproc
	.cfi_personality 155, _rust_eh_personality
	.cfi_lsda 16, Lexception0
	pushq	%rbp
	.cfi_def_cfa_offset 16
	.cfi_offset %rbp, -16
	movq	%rsp, %rbp
	.cfi_def_cfa_register %rbp
	subq	$64, %rsp
	movq	%rdi, %rax
	movq	%rsi, -32(%rbp)
	movq	%rdx, -24(%rbp)
Ltmp44:
	leaq	-32(%rbp), %rcx
	movq	%rdi, -40(%rbp)
Ltmp49:
	.loc	11 212 10 prologue_end
	movq	%rcx, %rdi
	movq	%rax, -48(%rbp)
	callq	__ZN55_$LT$$RF$T$u20$as$u20$core..convert..AsRef$LT$U$GT$$GT$6as_ref17h12667528f3dacac6E
Ltmp45:
	movq	%rdx, -56(%rbp)
	movq	%rax, -64(%rbp)
	jmp	LBB14_2
LBB14_1:
	.loc	11 211 1
	movq	-16(%rbp), %rdi
	callq	__Unwind_Resume
	ud2
LBB14_2:
Ltmp46:
	.loc	11 0 1 is_stmt 0
	movq	-40(%rbp), %rdi
	movq	-64(%rbp), %rsi
	movq	-56(%rbp), %rdx
	.loc	11 212 5 is_stmt 1
	callq	__ZN3std3env4_var17h5f49b4c5e0582abcE
Ltmp47:
	jmp	LBB14_4
LBB14_3:
	.loc	11 213 1
	jmp	LBB14_1
LBB14_4:
	jmp	LBB14_5
LBB14_5:
	.loc	11 0 1 is_stmt 0
	movq	-48(%rbp), %rax
	.loc	11 213 2
	addq	$64, %rsp
	popq	%rbp
	retq
Ltmp50:
LBB14_6:
Ltmp48:
	.loc	11 0 2
	movq	%rax, -16(%rbp)
	movl	%edx, -8(%rbp)
	jmp	LBB14_3
Lfunc_end14:
	.cfi_endproc
	.section	__TEXT,__gcc_except_tab
	.p2align	2
GCC_except_table14:
Lexception0:
	.byte	255
	.byte	255
	.byte	1
	.uleb128 Lcst_end0-Lcst_begin0
Lcst_begin0:
	.uleb128 Ltmp44-Lfunc_begin14
	.uleb128 Ltmp45-Ltmp44
	.uleb128 Ltmp48-Lfunc_begin14
	.byte	0
	.uleb128 Ltmp45-Lfunc_begin14
	.uleb128 Ltmp46-Ltmp45
	.byte	0
	.byte	0
	.uleb128 Ltmp46-Lfunc_begin14
	.uleb128 Ltmp47-Ltmp46
	.uleb128 Ltmp48-Lfunc_begin14
	.byte	0
Lcst_end0:
	.p2align	2

	.section	__TEXT,__text,regular,pure_instructions
	.p2align	4, 0x90
__ZN3std3env6var_os17h73a0e72507cd2b5dE:
Lfunc_begin15:
	.loc	11 245 0 is_stmt 1
	.cfi_startproc
	.cfi_personality 155, _rust_eh_personality
	.cfi_lsda 16, Lexception1
	pushq	%rbp
	.cfi_def_cfa_offset 16
	.cfi_offset %rbp, -16
	movq	%rsp, %rbp
	.cfi_def_cfa_register %rbp
	subq	$64, %rsp
	movq	%rdi, %rax
	movq	%rsi, -32(%rbp)
	movq	%rdx, -24(%rbp)
Ltmp51:
	leaq	-32(%rbp), %rcx
	movq	%rdi, -40(%rbp)
Ltmp56:
	.loc	11 246 13 prologue_end
	movq	%rcx, %rdi
	movq	%rax, -48(%rbp)
	callq	__ZN55_$LT$$RF$T$u20$as$u20$core..convert..AsRef$LT$U$GT$$GT$6as_ref17h12667528f3dacac6E
Ltmp52:
	movq	%rdx, -56(%rbp)
	movq	%rax, -64(%rbp)
	jmp	LBB15_2
LBB15_1:
	.loc	11 245 1
	movq	-16(%rbp), %rdi
	callq	__Unwind_Resume
	ud2
LBB15_2:
Ltmp53:
	.loc	11 0 1 is_stmt 0
	movq	-40(%rbp), %rdi
	movq	-64(%rbp), %rsi
	movq	-56(%rbp), %rdx
	.loc	11 246 5 is_stmt 1
	callq	__ZN3std3env7_var_os17hc628b18a701aa4a3E
Ltmp54:
	jmp	LBB15_4
LBB15_3:
	.loc	11 247 1
	jmp	LBB15_1
LBB15_4:
	jmp	LBB15_5
LBB15_5:
	.loc	11 0 1 is_stmt 0
	movq	-48(%rbp), %rax
	.loc	11 247 2
	addq	$64, %rsp
	popq	%rbp
	retq
Ltmp57:
LBB15_6:
Ltmp55:
	.loc	11 0 2
	movq	%rax, -16(%rbp)
	movl	%edx, -8(%rbp)
	jmp	LBB15_3
Lfunc_end15:
	.cfi_endproc
	.section	__TEXT,__gcc_except_tab
	.p2align	2
GCC_except_table15:
Lexception1:
	.byte	255
	.byte	255
	.byte	1
	.uleb128 Lcst_end1-Lcst_begin1
Lcst_begin1:
	.uleb128 Ltmp51-Lfunc_begin15
	.uleb128 Ltmp52-Ltmp51
	.uleb128 Ltmp55-Lfunc_begin15
	.byte	0
	.uleb128 Ltmp52-Lfunc_begin15
	.uleb128 Ltmp53-Ltmp52
	.byte	0
	.byte	0
	.uleb128 Ltmp53-Lfunc_begin15
	.uleb128 Ltmp54-Ltmp53
	.uleb128 Ltmp55-Lfunc_begin15
	.byte	0
Lcst_end1:
	.p2align	2

	.section	__TEXT,__text,regular,pure_instructions
	.p2align	4, 0x90
__ZN3std3ffi6os_str5OsStr10from_inner17h3367d707e7ba02b3E:
Lfunc_begin16:
	.loc	3 528 0 is_stmt 1
	.cfi_startproc
	pushq	%rbp
	.cfi_def_cfa_offset 16
	.cfi_offset %rbp, -16
	movq	%rsp, %rbp
	.cfi_def_cfa_register %rbp
	subq	$16, %rsp
	movq	%rdi, -16(%rbp)
	movq	%rsi, -8(%rbp)
Ltmp58:
	.loc	3 532 6 prologue_end
	movq	%rdi, %rax
	movq	%rsi, %rdx
	addq	$16, %rsp
	popq	%rbp
	retq
Ltmp59:
Lfunc_end16:
	.cfi_endproc

	.p2align	4, 0x90
__ZN3std3ffi6os_str85_$LT$impl$u20$core..convert..AsRef$LT$std..ffi..os_str..OsStr$GT$$u20$for$u20$str$GT$6as_ref17h90157c403a2a55f4E:
Lfunc_begin17:
	.loc	3 1157 0
	.cfi_startproc
	pushq	%rbp
	.cfi_def_cfa_offset 16
	.cfi_offset %rbp, -16
	movq	%rsp, %rbp
	.cfi_def_cfa_register %rbp
	subq	$48, %rsp
	movq	%rdi, -16(%rbp)
	movq	%rsi, -8(%rbp)
Ltmp60:
	.loc	3 1158 27 prologue_end
	callq	__ZN3std10sys_common12os_str_bytes5Slice8from_str17h11614fc3a5bc240eE
	movq	%rax, -24(%rbp)
	movq	%rdx, -32(%rbp)
	.loc	3 0 27 is_stmt 0
	movq	-24(%rbp), %rdi
	movq	-32(%rbp), %rsi
	.loc	3 1158 9
	callq	__ZN3std3ffi6os_str5OsStr10from_inner17h3367d707e7ba02b3E
	movq	%rax, -40(%rbp)
	movq	%rdx, -48(%rbp)
	.loc	3 0 9
	movq	-40(%rbp), %rax
	movq	-48(%rbp), %rdx
	.loc	3 1159 6 is_stmt 1
	addq	$48, %rsp
	popq	%rbp
	retq
Ltmp61:
Lfunc_end17:
	.cfi_endproc

	.p2align	4, 0x90
__ZN3std3sys4unix7process14process_common8ExitCode6as_i3217h29b8f21251d702e3E:
Lfunc_begin18:
	.file	12 "/rustc/6c8927b0cf80ceee19386026cf9d7fd4fd9d486f/src/libstd/sys/unix/process/process_common.rs"
	.loc	12 398 0
	.cfi_startproc
	pushq	%rbp
	.cfi_def_cfa_offset 16
	.cfi_offset %rbp, -16
	movq	%rsp, %rbp
	.cfi_def_cfa_register %rbp
	pushq	%rax
	movq	%rdi, -8(%rbp)
Ltmp62:
	.loc	12 399 9 prologue_end
	movzbl	(%rdi), %eax
	.loc	12 400 6
	addq	$8, %rsp
	popq	%rbp
	retq
Ltmp63:
Lfunc_end18:
	.cfi_endproc

	.p2align	4, 0x90
__ZN3std7process7Command3arg17h570589fbe2823a67E:
Lfunc_begin19:
	.file	13 "/rustc/6c8927b0cf80ceee19386026cf9d7fd4fd9d486f/src/libstd/process.rs"
	.loc	13 541 0
	.cfi_startproc
	.cfi_personality 155, _rust_eh_personality
	.cfi_lsda 16, Lexception2
	pushq	%rbp
	.cfi_def_cfa_offset 16
	.cfi_offset %rbp, -16
	movq	%rsp, %rbp
	.cfi_def_cfa_register %rbp
	subq	$80, %rsp
	movq	%rsi, -40(%rbp)
	movq	%rdx, -32(%rbp)
	movq	%rdi, -24(%rbp)
Ltmp69:
	.loc	13 542 9 prologue_end
	movq	%rdi, %rax
Ltmp64:
	leaq	-40(%rbp), %rcx
	movq	%rdi, -48(%rbp)
	.loc	13 542 24 is_stmt 0
	movq	%rcx, %rdi
	movq	%rax, -56(%rbp)
	callq	__ZN55_$LT$$RF$T$u20$as$u20$core..convert..AsRef$LT$U$GT$$GT$6as_ref17h12667528f3dacac6E
Ltmp65:
	movq	%rdx, -64(%rbp)
	movq	%rax, -72(%rbp)
	jmp	LBB19_2
LBB19_1:
	.loc	13 541 5 is_stmt 1
	movq	-16(%rbp), %rdi
	callq	__Unwind_Resume
	ud2
LBB19_2:
Ltmp66:
	.loc	13 0 5 is_stmt 0
	movq	-56(%rbp), %rdi
	movq	-72(%rbp), %rsi
	movq	-64(%rbp), %rdx
	.loc	13 542 9 is_stmt 1
	callq	__ZN3std3sys4unix7process14process_common7Command3arg17he3b985033bebdb87E
Ltmp67:
	jmp	LBB19_4
LBB19_3:
	.loc	13 544 5
	jmp	LBB19_1
LBB19_4:
	jmp	LBB19_5
LBB19_5:
	.loc	13 0 5 is_stmt 0
	movq	-48(%rbp), %rax
	.loc	13 544 6
	addq	$80, %rsp
	popq	%rbp
	retq
Ltmp70:
LBB19_6:
Ltmp68:
	.loc	13 0 6
	movq	%rax, -16(%rbp)
	movl	%edx, -8(%rbp)
	jmp	LBB19_3
Lfunc_end19:
	.cfi_endproc
	.section	__TEXT,__gcc_except_tab
	.p2align	2
GCC_except_table19:
Lexception2:
	.byte	255
	.byte	255
	.byte	1
	.uleb128 Lcst_end2-Lcst_begin2
Lcst_begin2:
	.uleb128 Ltmp64-Lfunc_begin19
	.uleb128 Ltmp65-Ltmp64
	.uleb128 Ltmp68-Lfunc_begin19
	.byte	0
	.uleb128 Ltmp65-Lfunc_begin19
	.uleb128 Ltmp66-Ltmp65
	.byte	0
	.byte	0
	.uleb128 Ltmp66-Lfunc_begin19
	.uleb128 Ltmp67-Ltmp66
	.uleb128 Ltmp68-Lfunc_begin19
	.byte	0
Lcst_end2:
	.p2align	2

	.section	__TEXT,__text,regular,pure_instructions
	.p2align	4, 0x90
__ZN3std7process7Command3new17hc70a24912f148dbcE:
Lfunc_begin20:
	.loc	13 500 0 is_stmt 1
	.cfi_startproc
	.cfi_personality 155, _rust_eh_personality
	.cfi_lsda 16, Lexception3
	pushq	%rbp
	.cfi_def_cfa_offset 16
	.cfi_offset %rbp, -16
	movq	%rsp, %rbp
	.cfi_def_cfa_register %rbp
	subq	$240, %rsp
	movq	%rdi, %rax
Ltmp71:
	movq	%rdi, -208(%rbp)
Ltmp76:
	.loc	13 501 44 prologue_end
	movq	%rsi, %rdi
	movq	%rsi, -216(%rbp)
Ltmp77:
	.loc	13 0 44 is_stmt 0
	movq	%rax, -224(%rbp)
	.loc	13 501 44
	callq	__ZN98_$LT$std..ffi..os_str..OsString$u20$as$u20$core..convert..AsRef$LT$std..ffi..os_str..OsStr$GT$$GT$6as_ref17h3755d5fc3587df2dE
Ltmp72:
	movq	%rdx, -232(%rbp)
	movq	%rax, -240(%rbp)
	jmp	LBB20_2
Ltmp78:
LBB20_1:
	.loc	13 500 5 is_stmt 1
	movq	-16(%rbp), %rdi
	callq	__Unwind_Resume
	ud2
Ltmp79:
LBB20_2:
Ltmp73:
	.loc	13 0 5 is_stmt 0
	leaq	-200(%rbp), %rdi
	movq	-240(%rbp), %rsi
	movq	-232(%rbp), %rdx
	.loc	13 501 26 is_stmt 1
	callq	__ZN3std3sys4unix7process14process_common7Command3new17h6b51c4bb5fada643E
Ltmp74:
	jmp	LBB20_4
Ltmp80:
LBB20_3:
	.loc	13 0 26 is_stmt 0
	movq	-216(%rbp), %rdi
	.loc	13 502 5 is_stmt 1
	callq	__ZN4core3ptr13drop_in_place17h8c779680a7cf135eE
	jmp	LBB20_1
Ltmp81:
LBB20_4:
	.loc	13 0 5 is_stmt 0
	movq	-208(%rbp), %rax
	.loc	13 501 9 is_stmt 1
	leaq	-200(%rbp), %rcx
	movq	%rax, %rdi
	movq	%rcx, %rsi
	movl	$184, %edx
	callq	_memcpy
	movq	-216(%rbp), %rdi
	.loc	13 502 5
	callq	__ZN4core3ptr13drop_in_place17h8c779680a7cf135eE
Ltmp82:
	.loc	13 0 5 is_stmt 0
	movq	-224(%rbp), %rax
	.loc	13 502 6
	addq	$240, %rsp
	popq	%rbp
	retq
Ltmp83:
LBB20_6:
Ltmp75:
	.loc	13 0 6
	movq	%rax, -16(%rbp)
	movl	%edx, -8(%rbp)
	jmp	LBB20_3
Lfunc_end20:
	.cfi_endproc
	.section	__TEXT,__gcc_except_tab
	.p2align	2
GCC_except_table20:
Lexception3:
	.byte	255
	.byte	255
	.byte	1
	.uleb128 Lcst_end3-Lcst_begin3
Lcst_begin3:
	.uleb128 Ltmp71-Lfunc_begin20
	.uleb128 Ltmp72-Ltmp71
	.uleb128 Ltmp75-Lfunc_begin20
	.byte	0
	.uleb128 Ltmp72-Lfunc_begin20
	.uleb128 Ltmp73-Ltmp72
	.byte	0
	.byte	0
	.uleb128 Ltmp73-Lfunc_begin20
	.uleb128 Ltmp74-Ltmp73
	.uleb128 Ltmp75-Lfunc_begin20
	.byte	0
	.uleb128 Ltmp74-Lfunc_begin20
	.uleb128 Lfunc_end20-Ltmp74
	.byte	0
	.byte	0
Lcst_end3:
	.p2align	2

	.section	__TEXT,__text,regular,pure_instructions
	.p2align	4, 0x90
__ZN44_$LT$$RF$T$u20$as$u20$core..fmt..Display$GT$3fmt17h01f26c1500f94707E:
Lfunc_begin21:
	.file	14 "/rustc/6c8927b0cf80ceee19386026cf9d7fd4fd9d486f/src/libcore/fmt/mod.rs"
	.loc	14 2022 0 is_stmt 1
	.cfi_startproc
	pushq	%rbp
	.cfi_def_cfa_offset 16
	.cfi_offset %rbp, -16
	movq	%rsp, %rbp
	.cfi_def_cfa_register %rbp
	subq	$32, %rsp
	movq	%rdi, -16(%rbp)
	movq	%rsi, -8(%rbp)
Ltmp84:
	.loc	14 2022 71 prologue_end
	movq	(%rdi), %rax
	movq	8(%rdi), %rcx
	.loc	14 2022 62 is_stmt 0
	movq	%rax, %rdi
	movq	%rsi, -24(%rbp)
	movq	%rcx, %rsi
	movq	-24(%rbp), %rdx
	callq	__ZN42_$LT$str$u20$as$u20$core..fmt..Display$GT$3fmt17h6768afae62e94f93E
	movb	%al, -25(%rbp)
	.loc	14 0 62
	movb	-25(%rbp), %al
	.loc	14 2022 84
	andb	$1, %al
	movzbl	%al, %eax
	addq	$32, %rsp
	popq	%rbp
	retq
Ltmp85:
Lfunc_end21:
	.cfi_endproc

	.p2align	4, 0x90
__ZN4core10intrinsics19copy_nonoverlapping17h0c0cb4f9abf4d761E:
Lfunc_begin22:
	.file	15 "/rustc/6c8927b0cf80ceee19386026cf9d7fd4fd9d486f/src/libcore/intrinsics.rs"
	.loc	15 2114 0 is_stmt 1
	.cfi_startproc
	pushq	%rbp
	.cfi_def_cfa_offset 16
	.cfi_offset %rbp, -16
	movq	%rsp, %rbp
	.cfi_def_cfa_register %rbp
	subq	$32, %rsp
	movq	%rdi, -24(%rbp)
	movq	%rsi, -16(%rbp)
	movq	%rdx, -8(%rbp)
Ltmp86:
	.loc	15 2130 14 prologue_end
	shlq	$0, %rdx
	movq	%rdi, -32(%rbp)
	movq	%rsi, %rdi
	movq	-32(%rbp), %rsi
	callq	_memcpy
	.loc	15 2131 2
	addq	$32, %rsp
	popq	%rbp
	retq
Ltmp87:
Lfunc_end22:
	.cfi_endproc

	.p2align	4, 0x90
__ZN4core10intrinsics19copy_nonoverlapping17h0e0ce874199e7b6bE:
Lfunc_begin23:
	.loc	15 2114 0
	.cfi_startproc
	pushq	%rbp
	.cfi_def_cfa_offset 16
	.cfi_offset %rbp, -16
	movq	%rsp, %rbp
	.cfi_def_cfa_register %rbp
	subq	$32, %rsp
	movq	%rdi, -24(%rbp)
	movq	%rsi, -16(%rbp)
	movq	%rdx, -8(%rbp)
Ltmp88:
	.loc	15 2130 14 prologue_end
	imulq	$24, %rdx, %rdx
	movq	%rdi, -32(%rbp)
	movq	%rsi, %rdi
	movq	-32(%rbp), %rsi
	callq	_memcpy
	.loc	15 2131 2
	addq	$32, %rsp
	popq	%rbp
	retq
Ltmp89:
Lfunc_end23:
	.cfi_endproc

	.p2align	4, 0x90
__ZN4core10intrinsics19copy_nonoverlapping17h1d5131aeb0824077E:
Lfunc_begin24:
	.loc	15 2114 0
	.cfi_startproc
	pushq	%rbp
	.cfi_def_cfa_offset 16
	.cfi_offset %rbp, -16
	movq	%rsp, %rbp
	.cfi_def_cfa_register %rbp
	subq	$32, %rsp
	movq	%rdi, -24(%rbp)
	movq	%rsi, -16(%rbp)
	movq	%rdx, -8(%rbp)
Ltmp90:
	.loc	15 2130 14 prologue_end
	imulq	$24, %rdx, %rdx
	movq	%rdi, -32(%rbp)
	movq	%rsi, %rdi
	movq	-32(%rbp), %rsi
	callq	_memcpy
	.loc	15 2131 2
	addq	$32, %rsp
	popq	%rbp
	retq
Ltmp91:
Lfunc_end24:
	.cfi_endproc

	.p2align	4, 0x90
__ZN4core10intrinsics19copy_nonoverlapping17h343197de03efd43eE:
Lfunc_begin25:
	.loc	15 2114 0
	.cfi_startproc
	pushq	%rbp
	.cfi_def_cfa_offset 16
	.cfi_offset %rbp, -16
	movq	%rsp, %rbp
	.cfi_def_cfa_register %rbp
	subq	$32, %rsp
	movq	%rdi, -24(%rbp)
	movq	%rsi, -16(%rbp)
	movq	%rdx, -8(%rbp)
Ltmp92:
	.loc	15 2130 14 prologue_end
	shlq	$5, %rdx
	movq	%rdi, -32(%rbp)
	movq	%rsi, %rdi
	movq	-32(%rbp), %rsi
	callq	_memcpy
	.loc	15 2131 2
	addq	$32, %rsp
	popq	%rbp
	retq
Ltmp93:
Lfunc_end25:
	.cfi_endproc

	.p2align	4, 0x90
__ZN4core10intrinsics19copy_nonoverlapping17h3ae2d0627bc235f1E:
Lfunc_begin26:
	.loc	15 2114 0
	.cfi_startproc
	pushq	%rbp
	.cfi_def_cfa_offset 16
	.cfi_offset %rbp, -16
	movq	%rsp, %rbp
	.cfi_def_cfa_register %rbp
	subq	$32, %rsp
	movq	%rdi, -24(%rbp)
	movq	%rsi, -16(%rbp)
	movq	%rdx, -8(%rbp)
Ltmp94:
	.loc	15 2130 14 prologue_end
	imulq	$24, %rdx, %rdx
	movq	%rdi, -32(%rbp)
	movq	%rsi, %rdi
	movq	-32(%rbp), %rsi
	callq	_memcpy
	.loc	15 2131 2
	addq	$32, %rsp
	popq	%rbp
	retq
Ltmp95:
Lfunc_end26:
	.cfi_endproc

	.p2align	4, 0x90
__ZN4core10intrinsics19copy_nonoverlapping17h51f62261236b82c1E:
Lfunc_begin27:
	.loc	15 2114 0
	.cfi_startproc
	pushq	%rbp
	.cfi_def_cfa_offset 16
	.cfi_offset %rbp, -16
	movq	%rsp, %rbp
	.cfi_def_cfa_register %rbp
	subq	$32, %rsp
	movq	%rdi, -24(%rbp)
	movq	%rsi, -16(%rbp)
	movq	%rdx, -8(%rbp)
Ltmp96:
	.loc	15 2130 14 prologue_end
	imulq	$24, %rdx, %rdx
	movq	%rdi, -32(%rbp)
	movq	%rsi, %rdi
	movq	-32(%rbp), %rsi
	callq	_memcpy
	.loc	15 2131 2
	addq	$32, %rsp
	popq	%rbp
	retq
Ltmp97:
Lfunc_end27:
	.cfi_endproc

	.p2align	4, 0x90
__ZN4core10intrinsics19copy_nonoverlapping17haff8d83086b0bb13E:
Lfunc_begin28:
	.loc	15 2114 0
	.cfi_startproc
	pushq	%rbp
	.cfi_def_cfa_offset 16
	.cfi_offset %rbp, -16
	movq	%rsp, %rbp
	.cfi_def_cfa_register %rbp
	subq	$32, %rsp
	movq	%rdi, -24(%rbp)
	movq	%rsi, -16(%rbp)
	movq	%rdx, -8(%rbp)
Ltmp98:
	.loc	15 2130 14 prologue_end
	imulq	$24, %rdx, %rdx
	movq	%rdi, -32(%rbp)
	movq	%rsi, %rdi
	movq	-32(%rbp), %rsi
	callq	_memcpy
	.loc	15 2131 2
	addq	$32, %rsp
	popq	%rbp
	retq
Ltmp99:
Lfunc_end28:
	.cfi_endproc

	.p2align	4, 0x90
__ZN4core10intrinsics19copy_nonoverlapping17hba59a36f647a70c9E:
Lfunc_begin29:
	.loc	15 2114 0
	.cfi_startproc
	pushq	%rbp
	.cfi_def_cfa_offset 16
	.cfi_offset %rbp, -16
	movq	%rsp, %rbp
	.cfi_def_cfa_register %rbp
	subq	$32, %rsp
	movq	%rdi, -24(%rbp)
	movq	%rsi, -16(%rbp)
	movq	%rdx, -8(%rbp)
Ltmp100:
	.loc	15 2130 14 prologue_end
	shlq	$5, %rdx
	movq	%rdi, -32(%rbp)
	movq	%rsi, %rdi
	movq	-32(%rbp), %rsi
	callq	_memcpy
	.loc	15 2131 2
	addq	$32, %rsp
	popq	%rbp
	retq
Ltmp101:
Lfunc_end29:
	.cfi_endproc

	.p2align	4, 0x90
__ZN4core10intrinsics19copy_nonoverlapping17he3e000198841d243E:
Lfunc_begin30:
	.loc	15 2114 0
	.cfi_startproc
	pushq	%rbp
	.cfi_def_cfa_offset 16
	.cfi_offset %rbp, -16
	movq	%rsp, %rbp
	.cfi_def_cfa_register %rbp
	subq	$32, %rsp
	movq	%rdi, -24(%rbp)
	movq	%rsi, -16(%rbp)
	movq	%rdx, -8(%rbp)
Ltmp102:
	.loc	15 2130 14 prologue_end
	shlq	$4, %rdx
	movq	%rdi, -32(%rbp)
	movq	%rsi, %rdi
	movq	-32(%rbp), %rsi
	callq	_memcpy
	.loc	15 2131 2
	addq	$32, %rsp
	popq	%rbp
	retq
Ltmp103:
Lfunc_end30:
	.cfi_endproc

	.p2align	4, 0x90
__ZN4core3cmp5impls69_$LT$impl$u20$core..cmp..PartialEq$LT$$RF$B$GT$$u20$for$u20$$RF$A$GT$2eq17hc50343f7e43dffc6E:
Lfunc_begin31:
	.file	16 "/rustc/6c8927b0cf80ceee19386026cf9d7fd4fd9d486f/src/libcore/cmp.rs"
	.loc	16 1218 0
	.cfi_startproc
	pushq	%rbp
	.cfi_def_cfa_offset 16
	.cfi_offset %rbp, -16
	movq	%rsp, %rbp
	.cfi_def_cfa_register %rbp
	subq	$32, %rsp
	movq	%rdi, -16(%rbp)
	movq	%rsi, -8(%rbp)
Ltmp104:
	.loc	16 1219 27 prologue_end
	movq	(%rdi), %rax
	movq	8(%rdi), %rcx
	.loc	16 1219 34 is_stmt 0
	movq	(%rsi), %rdx
	movq	8(%rsi), %rsi
	.loc	16 1219 13
	movq	%rax, %rdi
	movq	%rsi, -24(%rbp)
	movq	%rcx, %rsi
	movq	-24(%rbp), %rcx
	callq	__ZN4core5slice81_$LT$impl$u20$core..cmp..PartialEq$LT$$u5b$B$u5d$$GT$$u20$for$u20$$u5b$A$u5d$$GT$2eq17hc8ffe32f3142ea17E
	movb	%al, -25(%rbp)
	.loc	16 0 13
	movb	-25(%rbp), %al
	.loc	16 1220 10 is_stmt 1
	andb	$1, %al
	movzbl	%al, %eax
	addq	$32, %rsp
	popq	%rbp
	retq
Ltmp105:
Lfunc_end31:
	.cfi_endproc

	.p2align	4, 0x90
__ZN4core3cmp5impls69_$LT$impl$u20$core..cmp..PartialEq$LT$$RF$B$GT$$u20$for$u20$$RF$A$GT$2ne17heb9f76a8529065e2E:
Lfunc_begin32:
	.loc	16 1222 0
	.cfi_startproc
	pushq	%rbp
	.cfi_def_cfa_offset 16
	.cfi_offset %rbp, -16
	movq	%rsp, %rbp
	.cfi_def_cfa_register %rbp
	subq	$32, %rsp
	movq	%rdi, -16(%rbp)
	movq	%rsi, -8(%rbp)
Ltmp106:
	.loc	16 1223 27 prologue_end
	movq	(%rdi), %rax
	movq	8(%rdi), %rcx
	.loc	16 1223 34 is_stmt 0
	movq	(%rsi), %rdx
	movq	8(%rsi), %rsi
	.loc	16 1223 13
	movq	%rax, %rdi
	movq	%rsi, -24(%rbp)
	movq	%rcx, %rsi
	movq	-24(%rbp), %rcx
	callq	__ZN4core3str6traits54_$LT$impl$u20$core..cmp..PartialEq$u20$for$u20$str$GT$2ne17h478f438b80fc1622E
	movb	%al, -25(%rbp)
	.loc	16 0 13
	movb	-25(%rbp), %al
	.loc	16 1224 10 is_stmt 1
	andb	$1, %al
	movzbl	%al, %eax
	addq	$32, %rsp
	popq	%rbp
	retq
Ltmp107:
Lfunc_end32:
	.cfi_endproc

	.p2align	4, 0x90
__ZN4core3fmt10ArgumentV13new17h46575f640af11023E:
Lfunc_begin33:
	.loc	14 281 0
	.cfi_startproc
	pushq	%rbp
	.cfi_def_cfa_offset 16
	.cfi_offset %rbp, -16
	movq	%rsp, %rbp
	.cfi_def_cfa_register %rbp
	subq	$72, %rsp
	movq	%rdi, -32(%rbp)
	movq	%rsi, -24(%rbp)
Ltmp108:
	.loc	14 290 42 prologue_end
	movq	%rsi, -16(%rbp)
	movq	-16(%rbp), %rax
	movq	%rdi, -56(%rbp)
	movq	%rax, -64(%rbp)
	.loc	14 0 42 is_stmt 0
	movq	-56(%rbp), %rax
	.loc	14 290 68
	movq	%rax, -8(%rbp)
	movq	-8(%rbp), %rcx
	movq	%rcx, -72(%rbp)
	.loc	14 0 68
	movq	-72(%rbp), %rax
	.loc	14 290 18
	movq	%rax, -48(%rbp)
	movq	-64(%rbp), %rcx
	movq	%rcx, -40(%rbp)
	.loc	14 291 6 is_stmt 1
	movq	-48(%rbp), %rax
	movq	-40(%rbp), %rdx
	addq	$72, %rsp
	popq	%rbp
	retq
Ltmp109:
Lfunc_end33:
	.cfi_endproc

	.p2align	4, 0x90
__ZN4core3fmt10ArgumentV13new17h73a651d8608fd207E:
Lfunc_begin34:
	.loc	14 281 0
	.cfi_startproc
	pushq	%rbp
	.cfi_def_cfa_offset 16
	.cfi_offset %rbp, -16
	movq	%rsp, %rbp
	.cfi_def_cfa_register %rbp
	subq	$72, %rsp
	movq	%rdi, -32(%rbp)
	movq	%rsi, -24(%rbp)
Ltmp110:
	.loc	14 290 42 prologue_end
	movq	%rsi, -16(%rbp)
	movq	-16(%rbp), %rax
	movq	%rdi, -56(%rbp)
	movq	%rax, -64(%rbp)
	.loc	14 0 42 is_stmt 0
	movq	-56(%rbp), %rax
	.loc	14 290 68
	movq	%rax, -8(%rbp)
	movq	-8(%rbp), %rcx
	movq	%rcx, -72(%rbp)
	.loc	14 0 68
	movq	-72(%rbp), %rax
	.loc	14 290 18
	movq	%rax, -48(%rbp)
	movq	-64(%rbp), %rcx
	movq	%rcx, -40(%rbp)
	.loc	14 291 6 is_stmt 1
	movq	-48(%rbp), %rax
	movq	-40(%rbp), %rdx
	addq	$72, %rsp
	popq	%rbp
	retq
Ltmp111:
Lfunc_end34:
	.cfi_endproc

	.p2align	4, 0x90
__ZN4core3fmt10ArgumentV13new17hfa1a88c66f34cea4E:
Lfunc_begin35:
	.loc	14 281 0
	.cfi_startproc
	pushq	%rbp
	.cfi_def_cfa_offset 16
	.cfi_offset %rbp, -16
	movq	%rsp, %rbp
	.cfi_def_cfa_register %rbp
	subq	$72, %rsp
	movq	%rdi, -32(%rbp)
	movq	%rsi, -24(%rbp)
Ltmp112:
	.loc	14 290 42 prologue_end
	movq	%rsi, -16(%rbp)
	movq	-16(%rbp), %rax
	movq	%rdi, -56(%rbp)
	movq	%rax, -64(%rbp)
	.loc	14 0 42 is_stmt 0
	movq	-56(%rbp), %rax
	.loc	14 290 68
	movq	%rax, -8(%rbp)
	movq	-8(%rbp), %rcx
	movq	%rcx, -72(%rbp)
	.loc	14 0 68
	movq	-72(%rbp), %rax
	.loc	14 290 18
	movq	%rax, -48(%rbp)
	movq	-64(%rbp), %rcx
	movq	%rcx, -40(%rbp)
	.loc	14 291 6 is_stmt 1
	movq	-48(%rbp), %rax
	movq	-40(%rbp), %rdx
	addq	$72, %rsp
	popq	%rbp
	retq
Ltmp113:
Lfunc_end35:
	.cfi_endproc

	.p2align	4, 0x90
__ZN4core3fmt9Arguments6new_v117h0797c3e8933a828cE:
Lfunc_begin36:
	.loc	14 327 0
	.cfi_startproc
	pushq	%rbp
	.cfi_def_cfa_offset 16
	.cfi_offset %rbp, -16
	movq	%rsp, %rbp
	.cfi_def_cfa_register %rbp
	subq	$48, %rsp
	movq	%rdi, %rax
	movq	%rsi, -32(%rbp)
	movq	%rdx, -24(%rbp)
	movq	%rcx, -16(%rbp)
	movq	%r8, -8(%rbp)
Ltmp114:
	.loc	14 328 34 prologue_end
	movq	$0, -48(%rbp)
	.loc	14 328 9 is_stmt 0
	movq	%rsi, (%rdi)
	movq	%rdx, 8(%rdi)
	movq	-48(%rbp), %rdx
	movq	-40(%rbp), %rsi
	movq	%rdx, 16(%rdi)
	movq	%rsi, 24(%rdi)
	movq	%rcx, 32(%rdi)
	movq	%r8, 40(%rdi)
	.loc	14 329 6 is_stmt 1
	addq	$48, %rsp
	popq	%rbp
	retq
Ltmp115:
Lfunc_end36:
	.cfi_endproc

	.p2align	4, 0x90
__ZN4core3mem11size_of_val17h36693585459350c3E:
Lfunc_begin37:
	.file	17 "/rustc/6c8927b0cf80ceee19386026cf9d7fd4fd9d486f/src/libcore/mem/mod.rs"
	.loc	17 335 0
	.cfi_startproc
	pushq	%rbp
	.cfi_def_cfa_offset 16
	.cfi_offset %rbp, -16
	movq	%rsp, %rbp
	.cfi_def_cfa_register %rbp
	subq	$32, %rsp
	movq	%rdi, -24(%rbp)
	movq	%rsi, -16(%rbp)
Ltmp116:
	.loc	17 336 5 prologue_end
	shlq	$0, %rsi
	movq	%rsi, -8(%rbp)
	movq	-8(%rbp), %rax
	movq	%rax, -32(%rbp)
	.loc	17 0 5 is_stmt 0
	movq	-32(%rbp), %rax
	.loc	17 337 2 is_stmt 1
	addq	$32, %rsp
	popq	%rbp
	retq
Ltmp117:
Lfunc_end37:
	.cfi_endproc

	.p2align	4, 0x90
__ZN4core3mem4drop17h064a7f12910b5259E:
Lfunc_begin38:
	.loc	17 883 0
	.cfi_startproc
	pushq	%rbp
	.cfi_def_cfa_offset 16
	.cfi_offset %rbp, -16
	movq	%rsp, %rbp
	.cfi_def_cfa_register %rbp
Ltmp118:
	.loc	17 883 24 prologue_end
	callq	__ZN4core3ptr13drop_in_place17h3ce9d09cd8de90e5E
Ltmp119:
	.loc	17 883 25 is_stmt 0
	popq	%rbp
	retq
Ltmp120:
Lfunc_end38:
	.cfi_endproc

	.p2align	4, 0x90
__ZN4core3mem4drop17h7b1b5d8dc1201534E:
Lfunc_begin39:
	.loc	17 883 0 is_stmt 1
	.cfi_startproc
	pushq	%rbp
	.cfi_def_cfa_offset 16
	.cfi_offset %rbp, -16
	movq	%rsp, %rbp
	.cfi_def_cfa_register %rbp
Ltmp121:
	.loc	17 883 24 prologue_end
	callq	__ZN4core3ptr13drop_in_place17h9784219d30694ff4E
Ltmp122:
	.loc	17 883 25 is_stmt 0
	popq	%rbp
	retq
Ltmp123:
Lfunc_end39:
	.cfi_endproc

	.p2align	4, 0x90
__ZN4core3mem4swap17hec1c617c3eb46044E:
Lfunc_begin40:
	.loc	17 686 0 is_stmt 1
	.cfi_startproc
	pushq	%rbp
	.cfi_def_cfa_offset 16
	.cfi_offset %rbp, -16
	movq	%rsp, %rbp
	.cfi_def_cfa_register %rbp
	subq	$16, %rsp
	movq	%rdi, -16(%rbp)
	movq	%rsi, -8(%rbp)
Ltmp124:
	.loc	17 690 9 prologue_end
	callq	__ZN4core3ptr23swap_nonoverlapping_one17h2a8400362914f27fE
	.loc	17 692 2
	addq	$16, %rsp
	popq	%rbp
	retq
Ltmp125:
Lfunc_end40:
	.cfi_endproc

	.p2align	4, 0x90
__ZN4core3mem4take17hd801250044ba78b6E:
Lfunc_begin41:
	.loc	17 750 0
	.cfi_startproc
	pushq	%rbp
	.cfi_def_cfa_offset 16
	.cfi_offset %rbp, -16
	movq	%rsp, %rbp
	.cfi_def_cfa_register %rbp
	subq	$48, %rsp
	movq	%rdi, -8(%rbp)
	movq	%rdi, -16(%rbp)
Ltmp126:
	.loc	17 751 19 prologue_end
	callq	__ZN72_$LT$core..option..Option$LT$T$GT$$u20$as$u20$core..default..Default$GT$7default17h4c00855d9895cc2fE
	movq	%rax, -24(%rbp)
	movq	%rdx, -32(%rbp)
	.loc	17 0 19 is_stmt 0
	movq	-16(%rbp), %rdi
	movq	-24(%rbp), %rsi
	movq	-32(%rbp), %rdx
	.loc	17 751 5
	callq	__ZN4core3mem7replace17he063ce434afc8993E
	movq	%rax, -40(%rbp)
	movq	%rdx, -48(%rbp)
	.loc	17 0 5
	movq	-40(%rbp), %rax
	movq	-48(%rbp), %rdx
	.loc	17 752 2 is_stmt 1
	addq	$48, %rsp
	popq	%rbp
	retq
Ltmp127:
Lfunc_end41:
	.cfi_endproc

	.p2align	4, 0x90
__ZN4core3mem6forget17h062dc8f198a673d4E:
Lfunc_begin42:
	.loc	17 147 0
	.cfi_startproc
	pushq	%rbp
	.cfi_def_cfa_offset 16
	.cfi_offset %rbp, -16
	movq	%rsp, %rbp
	.cfi_def_cfa_register %rbp
	subq	$24, %rsp
	movq	%rdi, -24(%rbp)
	movq	%rdi, -8(%rbp)
Ltmp128:
	.loc	5 83 9 prologue_end
	movq	%rdi, -16(%rbp)
Ltmp129:
	.loc	17 149 2
	addq	$24, %rsp
	popq	%rbp
	retq
Ltmp130:
Lfunc_end42:
	.cfi_endproc

	.p2align	4, 0x90
__ZN4core3mem7replace17he063ce434afc8993E:
Lfunc_begin43:
	.loc	17 814 0
	.cfi_startproc
	.cfi_personality 155, _rust_eh_personality
	.cfi_lsda 16, Lexception4
	pushq	%rbp
	.cfi_def_cfa_offset 16
	.cfi_offset %rbp, -16
	movq	%rsp, %rbp
	.cfi_def_cfa_register %rbp
	subq	$48, %rsp
	movq	%rsi, -40(%rbp)
	movq	%rdx, -32(%rbp)
	movq	%rdi, -24(%rbp)
Ltmp131:
	leaq	-40(%rbp), %rsi
Ltmp134:
	.loc	17 815 5 prologue_end
	callq	__ZN4core3mem4swap17hec1c617c3eb46044E
Ltmp132:
	jmp	LBB43_2
LBB43_1:
	.loc	17 814 1
	movq	-16(%rbp), %rdi
	callq	__Unwind_Resume
	ud2
LBB43_2:
	.loc	17 816 5
	movq	-40(%rbp), %rax
	movq	-32(%rbp), %rdx
	.loc	17 817 2
	addq	$48, %rsp
	popq	%rbp
	retq
LBB43_3:
	.loc	17 817 1 is_stmt 0
	jmp	LBB43_1
Ltmp135:
LBB43_4:
Ltmp133:
	.loc	17 0 1
	movq	%rax, -16(%rbp)
	movl	%edx, -8(%rbp)
	jmp	LBB43_3
Lfunc_end43:
	.cfi_endproc
	.section	__TEXT,__gcc_except_tab
	.p2align	2
GCC_except_table43:
Lexception4:
	.byte	255
	.byte	255
	.byte	1
	.uleb128 Lcst_end4-Lcst_begin4
Lcst_begin4:
	.uleb128 Ltmp131-Lfunc_begin43
	.uleb128 Ltmp132-Ltmp131
	.uleb128 Ltmp133-Lfunc_begin43
	.byte	0
	.uleb128 Ltmp132-Lfunc_begin43
	.uleb128 Lfunc_end43-Ltmp132
	.byte	0
	.byte	0
Lcst_end4:
	.p2align	2

	.section	__TEXT,__text,regular,pure_instructions
	.p2align	4, 0x90
__ZN4core3num12NonZeroUsize13new_unchecked17hf9236e5289cf5116E:
Lfunc_begin44:
	.file	18 "/rustc/6c8927b0cf80ceee19386026cf9d7fd4fd9d486f/src/libcore/num/mod.rs"
	.loc	18 83 0 is_stmt 1
	.cfi_startproc
	pushq	%rbp
	.cfi_def_cfa_offset 16
	.cfi_offset %rbp, -16
	movq	%rsp, %rbp
	.cfi_def_cfa_register %rbp
	subq	$16, %rsp
	movq	%rdi, -8(%rbp)
Ltmp136:
	.loc	18 85 30 prologue_end
	movq	%rdi, -16(%rbp)
	.loc	18 86 18
	movq	-16(%rbp), %rax
	addq	$16, %rsp
	popq	%rbp
	retq
Ltmp137:
Lfunc_end44:
	.cfi_endproc

	.p2align	4, 0x90
__ZN4core3num12NonZeroUsize3get17h7cf5163478ab8129E:
Lfunc_begin45:
	.loc	18 105 0
	.cfi_startproc
	pushq	%rbp
	.cfi_def_cfa_offset 16
	.cfi_offset %rbp, -16
	movq	%rsp, %rbp
	.cfi_def_cfa_register %rbp
	pushq	%rax
	movq	%rdi, -8(%rbp)
Ltmp138:
	.loc	18 107 18 prologue_end
	movq	%rdi, %rax
	addq	$8, %rsp
	popq	%rbp
	retq
Ltmp139:
Lfunc_end45:
	.cfi_endproc

	.p2align	4, 0x90
__ZN4core3ops8function6FnOnce40call_once$u7b$$u7b$vtable.shim$u7d$$u7d$17hc72eb0bbd67f16a6E:
Lfunc_begin46:
	.file	19 "/rustc/6c8927b0cf80ceee19386026cf9d7fd4fd9d486f/src/libcore/ops/function.rs"
	.loc	19 233 0
	.cfi_startproc
	pushq	%rbp
	.cfi_def_cfa_offset 16
	.cfi_offset %rbp, -16
	movq	%rsp, %rbp
	.cfi_def_cfa_register %rbp
	subq	$32, %rsp
	movq	%rdi, -8(%rbp)
Ltmp140:
	.loc	19 233 5 prologue_end
	movq	(%rdi), %rdi
	callq	__ZN4core3ops8function6FnOnce9call_once17h34fd3bdbb66ab746E
	movl	%eax, -20(%rbp)
	.loc	19 0 5 is_stmt 0
	movl	-20(%rbp), %eax
	.loc	19 233 5
	addq	$32, %rsp
	popq	%rbp
	retq
Ltmp141:
Lfunc_end46:
	.cfi_endproc

	.p2align	4, 0x90
__ZN4core3ops8function6FnOnce9call_once17h34fd3bdbb66ab746E:
Lfunc_begin47:
	.loc	19 233 0 is_stmt 1
	.cfi_startproc
	.cfi_personality 155, _rust_eh_personality
	.cfi_lsda 16, Lexception5
	pushq	%rbp
	.cfi_def_cfa_offset 16
	.cfi_offset %rbp, -16
	movq	%rsp, %rbp
	.cfi_def_cfa_register %rbp
	subq	$48, %rsp
	movq	%rdi, -32(%rbp)
Ltmp142:
	leaq	-32(%rbp), %rdi
Ltmp145:
	.loc	19 233 5 prologue_end
	callq	__ZN3std2rt10lang_start28_$u7b$$u7b$closure$u7d$$u7d$17ha970edee604c3ca4E
Ltmp143:
	movl	%eax, -36(%rbp)
	jmp	LBB47_1
LBB47_1:
	jmp	LBB47_2
LBB47_2:
	.loc	19 0 5 is_stmt 0
	movl	-36(%rbp), %eax
	.loc	19 233 5
	addq	$48, %rsp
	popq	%rbp
	retq
LBB47_3:
	jmp	LBB47_4
LBB47_4:
	movq	-16(%rbp), %rdi
	callq	__Unwind_Resume
	ud2
Ltmp146:
LBB47_5:
Ltmp144:
	.loc	19 0 5
	movq	%rax, -16(%rbp)
	movl	%edx, -8(%rbp)
	jmp	LBB47_3
Lfunc_end47:
	.cfi_endproc
	.section	__TEXT,__gcc_except_tab
	.p2align	2
GCC_except_table47:
Lexception5:
	.byte	255
	.byte	255
	.byte	1
	.uleb128 Lcst_end5-Lcst_begin5
Lcst_begin5:
	.uleb128 Ltmp142-Lfunc_begin47
	.uleb128 Ltmp143-Ltmp142
	.uleb128 Ltmp144-Lfunc_begin47
	.byte	0
	.uleb128 Ltmp143-Lfunc_begin47
	.uleb128 Lfunc_end47-Ltmp143
	.byte	0
	.byte	0
Lcst_end5:
	.p2align	2

	.section	__TEXT,__text,regular,pure_instructions
	.p2align	4, 0x90
__ZN4core3ptr13drop_in_place17h0d08b0290a8ec9f0E:
Lfunc_begin48:
	.file	20 "/rustc/6c8927b0cf80ceee19386026cf9d7fd4fd9d486f/src/libcore/ptr/mod.rs"
	.loc	20 184 0 is_stmt 1
	.cfi_startproc
	pushq	%rbp
	.cfi_def_cfa_offset 16
	.cfi_offset %rbp, -16
	movq	%rsp, %rbp
	.cfi_def_cfa_register %rbp
	subq	$16, %rsp
	movq	%rdi, -8(%rbp)
Ltmp147:
	.loc	20 184 1 prologue_end
	addq	$16, %rsp
	popq	%rbp
	retq
Ltmp148:
Lfunc_end48:
	.cfi_endproc

	.p2align	4, 0x90
__ZN4core3ptr13drop_in_place17h0e23404b416501c8E:
Lfunc_begin49:
	.loc	20 184 0
	.cfi_startproc
	.cfi_personality 155, _rust_eh_personality
	.cfi_lsda 16, Lexception6
	pushq	%rbp
	.cfi_def_cfa_offset 16
	.cfi_offset %rbp, -16
	movq	%rsp, %rbp
	.cfi_def_cfa_register %rbp
	subq	$48, %rsp
	movq	%rdi, -24(%rbp)
Ltmp149:
	movq	%rdi, -40(%rbp)
Ltmp152:
	.loc	20 184 1 prologue_end
	callq	__ZN4core3ptr13drop_in_place17h18ff6b47778bcfd7E
Ltmp150:
	jmp	LBB49_4
LBB49_1:
	movq	-16(%rbp), %rdi
	callq	__Unwind_Resume
	ud2
LBB49_2:
	addq	$48, %rsp
	popq	%rbp
	retq
LBB49_3:
	.loc	20 0 1 is_stmt 0
	movq	-40(%rbp), %rax
	.loc	20 184 1
	addq	$24, %rax
	movq	%rax, %rdi
	callq	__ZN4core3ptr13drop_in_place17h18ff6b47778bcfd7E
	jmp	LBB49_1
LBB49_4:
	.loc	20 0 1
	movq	-40(%rbp), %rax
	.loc	20 184 1
	addq	$24, %rax
	movq	%rax, %rdi
	callq	__ZN4core3ptr13drop_in_place17h18ff6b47778bcfd7E
	jmp	LBB49_2
Ltmp153:
LBB49_5:
Ltmp151:
	.loc	20 0 1
	movq	%rax, -16(%rbp)
	movl	%edx, -8(%rbp)
	jmp	LBB49_3
Lfunc_end49:
	.cfi_endproc
	.section	__TEXT,__gcc_except_tab
	.p2align	2
GCC_except_table49:
Lexception6:
	.byte	255
	.byte	255
	.byte	1
	.uleb128 Lcst_end6-Lcst_begin6
Lcst_begin6:
	.uleb128 Ltmp149-Lfunc_begin49
	.uleb128 Ltmp150-Ltmp149
	.uleb128 Ltmp151-Lfunc_begin49
	.byte	0
	.uleb128 Ltmp150-Lfunc_begin49
	.uleb128 Lfunc_end49-Ltmp150
	.byte	0
	.byte	0
Lcst_end6:
	.p2align	2

	.section	__TEXT,__text,regular,pure_instructions
	.p2align	4, 0x90
__ZN4core3ptr13drop_in_place17h155f2ea186066f21E:
Lfunc_begin50:
	.loc	20 184 0 is_stmt 1
	.cfi_startproc
	.cfi_personality 155, _rust_eh_personality
	.cfi_lsda 16, Lexception7
	pushq	%rbp
	.cfi_def_cfa_offset 16
	.cfi_offset %rbp, -16
	movq	%rsp, %rbp
	.cfi_def_cfa_register %rbp
	subq	$48, %rsp
	movq	%rdi, -24(%rbp)
Ltmp157:
	.loc	20 184 1 prologue_end
	movq	(%rdi), %rax
	movq	8(%rdi), %rcx
	movq	(%rcx), %rcx
Ltmp154:
	movq	%rdi, -40(%rbp)
	movq	%rax, %rdi
	callq	*%rcx
Ltmp155:
	jmp	LBB50_3
LBB50_1:
	addq	$48, %rsp
	popq	%rbp
	retq
LBB50_2:
	movq	-16(%rbp), %rdi
	callq	__Unwind_Resume
	ud2
LBB50_3:
	.loc	20 0 1 is_stmt 0
	movq	-40(%rbp), %rax
	.loc	20 184 1
	movq	(%rax), %rdi
	movq	8(%rax), %rsi
	callq	__ZN5alloc5alloc8box_free17ha90fe6541494b8c2E
	jmp	LBB50_1
LBB50_4:
	.loc	20 0 1
	movq	-40(%rbp), %rax
	.loc	20 184 1
	movq	(%rax), %rdi
	movq	8(%rax), %rsi
	callq	__ZN5alloc5alloc8box_free17ha90fe6541494b8c2E
	jmp	LBB50_2
Ltmp158:
LBB50_5:
Ltmp156:
	.loc	20 0 1
	movq	%rax, -16(%rbp)
	movl	%edx, -8(%rbp)
	jmp	LBB50_4
Lfunc_end50:
	.cfi_endproc
	.section	__TEXT,__gcc_except_tab
	.p2align	2
GCC_except_table50:
Lexception7:
	.byte	255
	.byte	255
	.byte	1
	.uleb128 Lcst_end7-Lcst_begin7
Lcst_begin7:
	.uleb128 Ltmp154-Lfunc_begin50
	.uleb128 Ltmp155-Ltmp154
	.uleb128 Ltmp156-Lfunc_begin50
	.byte	0
	.uleb128 Ltmp155-Lfunc_begin50
	.uleb128 Lfunc_end50-Ltmp155
	.byte	0
	.byte	0
Lcst_end7:
	.p2align	2

	.section	__TEXT,__text,regular,pure_instructions
	.p2align	4, 0x90
__ZN4core3ptr13drop_in_place17h18ff6b47778bcfd7E:
Lfunc_begin51:
	.loc	20 184 0 is_stmt 1
	.cfi_startproc
	.cfi_personality 155, _rust_eh_personality
	.cfi_lsda 16, Lexception8
	pushq	%rbp
	.cfi_def_cfa_offset 16
	.cfi_offset %rbp, -16
	movq	%rsp, %rbp
	.cfi_def_cfa_register %rbp
	subq	$48, %rsp
	movq	%rdi, -24(%rbp)
Ltmp159:
	movq	%rdi, -40(%rbp)
Ltmp162:
	.loc	20 184 1 prologue_end
	callq	__ZN66_$LT$alloc..vec..Vec$LT$T$GT$$u20$as$u20$core..ops..drop..Drop$GT$4drop17h2b4e3ef718f788f0E
Ltmp160:
	jmp	LBB51_4
LBB51_1:
	movq	-16(%rbp), %rdi
	callq	__Unwind_Resume
	ud2
LBB51_2:
	addq	$48, %rsp
	popq	%rbp
	retq
LBB51_3:
	.loc	20 0 1 is_stmt 0
	movq	-40(%rbp), %rax
	.loc	20 184 1
	movq	%rax, %rdi
	callq	__ZN4core3ptr13drop_in_place17h64b8f06031158e79E
	jmp	LBB51_1
LBB51_4:
	.loc	20 0 1
	movq	-40(%rbp), %rax
	.loc	20 184 1
	movq	%rax, %rdi
	callq	__ZN4core3ptr13drop_in_place17h64b8f06031158e79E
	jmp	LBB51_2
Ltmp163:
LBB51_5:
Ltmp161:
	.loc	20 0 1
	movq	%rax, -16(%rbp)
	movl	%edx, -8(%rbp)
	jmp	LBB51_3
Lfunc_end51:
	.cfi_endproc
	.section	__TEXT,__gcc_except_tab
	.p2align	2
GCC_except_table51:
Lexception8:
	.byte	255
	.byte	255
	.byte	1
	.uleb128 Lcst_end8-Lcst_begin8
Lcst_begin8:
	.uleb128 Ltmp159-Lfunc_begin51
	.uleb128 Ltmp160-Ltmp159
	.uleb128 Ltmp161-Lfunc_begin51
	.byte	0
	.uleb128 Ltmp160-Lfunc_begin51
	.uleb128 Lfunc_end51-Ltmp160
	.byte	0
	.byte	0
Lcst_end8:
	.p2align	2

	.section	__TEXT,__text,regular,pure_instructions
	.p2align	4, 0x90
__ZN4core3ptr13drop_in_place17h22cb7c22f0a2c652E:
Lfunc_begin52:
	.loc	20 184 0 is_stmt 1
	.cfi_startproc
	pushq	%rbp
	.cfi_def_cfa_offset 16
	.cfi_offset %rbp, -16
	movq	%rsp, %rbp
	.cfi_def_cfa_register %rbp
	subq	$16, %rsp
	movq	%rdi, -8(%rbp)
Ltmp164:
	.loc	20 184 1 prologue_end
	callq	__ZN77_$LT$alloc..raw_vec..RawVec$LT$T$C$A$GT$$u20$as$u20$core..ops..drop..Drop$GT$4drop17h62bdd55b162e03c5E
	addq	$16, %rsp
	popq	%rbp
	retq
Ltmp165:
Lfunc_end52:
	.cfi_endproc

	.p2align	4, 0x90
__ZN4core3ptr13drop_in_place17h253983cad8fdeae1E:
Lfunc_begin53:
	.loc	20 184 0
	.cfi_startproc
	.cfi_personality 155, _rust_eh_personality
	.cfi_lsda 16, Lexception9
	pushq	%rbp
	.cfi_def_cfa_offset 16
	.cfi_offset %rbp, -16
	movq	%rsp, %rbp
	.cfi_def_cfa_register %rbp
	subq	$48, %rsp
	movq	%rdi, -24(%rbp)
Ltmp166:
	movq	%rdi, -40(%rbp)
Ltmp169:
	.loc	20 184 1 prologue_end
	callq	__ZN66_$LT$alloc..vec..Vec$LT$T$GT$$u20$as$u20$core..ops..drop..Drop$GT$4drop17h02e206cdb2bdad4eE
Ltmp167:
	jmp	LBB53_4
LBB53_1:
	movq	-16(%rbp), %rdi
	callq	__Unwind_Resume
	ud2
LBB53_2:
	addq	$48, %rsp
	popq	%rbp
	retq
LBB53_3:
	.loc	20 0 1 is_stmt 0
	movq	-40(%rbp), %rax
	.loc	20 184 1
	movq	%rax, %rdi
	callq	__ZN4core3ptr13drop_in_place17hddc1ef6b2573c349E
	jmp	LBB53_1
LBB53_4:
	.loc	20 0 1
	movq	-40(%rbp), %rax
	.loc	20 184 1
	movq	%rax, %rdi
	callq	__ZN4core3ptr13drop_in_place17hddc1ef6b2573c349E
	jmp	LBB53_2
Ltmp170:
LBB53_5:
Ltmp168:
	.loc	20 0 1
	movq	%rax, -16(%rbp)
	movl	%edx, -8(%rbp)
	jmp	LBB53_3
Lfunc_end53:
	.cfi_endproc
	.section	__TEXT,__gcc_except_tab
	.p2align	2
GCC_except_table53:
Lexception9:
	.byte	255
	.byte	255
	.byte	1
	.uleb128 Lcst_end9-Lcst_begin9
Lcst_begin9:
	.uleb128 Ltmp166-Lfunc_begin53
	.uleb128 Ltmp167-Ltmp166
	.uleb128 Ltmp168-Lfunc_begin53
	.byte	0
	.uleb128 Ltmp167-Lfunc_begin53
	.uleb128 Lfunc_end53-Ltmp167
	.byte	0
	.byte	0
Lcst_end9:
	.p2align	2

	.section	__TEXT,__text,regular,pure_instructions
	.p2align	4, 0x90
__ZN4core3ptr13drop_in_place17h25865c5420955cabE:
Lfunc_begin54:
	.loc	20 184 0 is_stmt 1
	.cfi_startproc
	.cfi_personality 155, _rust_eh_personality
	.cfi_lsda 16, Lexception10
	pushq	%rbp
	.cfi_def_cfa_offset 16
	.cfi_offset %rbp, -16
	movq	%rsp, %rbp
	.cfi_def_cfa_register %rbp
	subq	$48, %rsp
	movq	%rdi, -24(%rbp)
Ltmp171:
	movq	%rdi, -40(%rbp)
Ltmp195:
	.loc	20 184 1 prologue_end
	callq	__ZN4core3ptr13drop_in_place17hada8191deb9d4a37E
Ltmp172:
	jmp	LBB54_18
LBB54_1:
	movq	-16(%rbp), %rdi
	callq	__Unwind_Resume
	ud2
LBB54_2:
	addq	$48, %rsp
	popq	%rbp
	retq
LBB54_3:
	.loc	20 0 1 is_stmt 0
	movq	-40(%rbp), %rax
	.loc	20 184 1
	addq	$168, %rax
	movq	%rax, %rdi
	callq	__ZN4core3ptr13drop_in_place17ha265aeab2433d0f4E
	jmp	LBB54_1
LBB54_4:
	.loc	20 0 1
	movq	-40(%rbp), %rax
	.loc	20 184 1
	addq	$160, %rax
	movq	%rax, %rdi
	callq	__ZN4core3ptr13drop_in_place17ha265aeab2433d0f4E
	jmp	LBB54_3
LBB54_5:
	.loc	20 0 1
	movq	-40(%rbp), %rax
	.loc	20 184 1
	addq	$152, %rax
	movq	%rax, %rdi
	callq	__ZN4core3ptr13drop_in_place17ha265aeab2433d0f4E
	jmp	LBB54_4
LBB54_6:
	.loc	20 0 1
	movq	-40(%rbp), %rax
	.loc	20 184 1
	addq	$112, %rax
	movq	%rax, %rdi
	callq	__ZN4core3ptr13drop_in_place17h3a4bf933cfae4bb9E
	jmp	LBB54_5
LBB54_7:
	.loc	20 0 1
	movq	-40(%rbp), %rax
	.loc	20 184 1
	addq	$96, %rax
	movq	%rax, %rdi
	callq	__ZN4core3ptr13drop_in_place17hdae37ac1298c2be9E
	jmp	LBB54_6
LBB54_8:
	.loc	20 0 1
	movq	-40(%rbp), %rax
	.loc	20 184 1
	addq	$64, %rax
	movq	%rax, %rdi
	callq	__ZN4core3ptr13drop_in_place17h2becd32a156cafd7E
	jmp	LBB54_7
LBB54_9:
	.loc	20 0 1
	movq	-40(%rbp), %rax
	.loc	20 184 1
	addq	$40, %rax
	movq	%rax, %rdi
	callq	__ZN4core3ptr13drop_in_place17hb5de529e3a9c00a7E
	jmp	LBB54_8
LBB54_10:
	.loc	20 0 1
	movq	-40(%rbp), %rax
	.loc	20 184 1
	addq	$16, %rax
	movq	%rax, %rdi
	callq	__ZN4core3ptr13drop_in_place17h253983cad8fdeae1E
	jmp	LBB54_9
LBB54_11:
	.loc	20 0 1
	movq	-40(%rbp), %rax
	.loc	20 184 1
	addq	$168, %rax
	movq	%rax, %rdi
	callq	__ZN4core3ptr13drop_in_place17ha265aeab2433d0f4E
	jmp	LBB54_2
LBB54_12:
	.loc	20 0 1
	movq	-40(%rbp), %rax
	.loc	20 184 1
	addq	$160, %rax
Ltmp192:
	movq	%rax, %rdi
	callq	__ZN4core3ptr13drop_in_place17ha265aeab2433d0f4E
Ltmp193:
	jmp	LBB54_11
LBB54_13:
	.loc	20 0 1
	movq	-40(%rbp), %rax
	.loc	20 184 1
	addq	$152, %rax
Ltmp189:
	movq	%rax, %rdi
	callq	__ZN4core3ptr13drop_in_place17ha265aeab2433d0f4E
Ltmp190:
	jmp	LBB54_12
LBB54_14:
	.loc	20 0 1
	movq	-40(%rbp), %rax
	.loc	20 184 1
	addq	$112, %rax
Ltmp186:
	movq	%rax, %rdi
	callq	__ZN4core3ptr13drop_in_place17h3a4bf933cfae4bb9E
Ltmp187:
	jmp	LBB54_13
LBB54_15:
	.loc	20 0 1
	movq	-40(%rbp), %rax
	.loc	20 184 1
	addq	$96, %rax
Ltmp183:
	movq	%rax, %rdi
	callq	__ZN4core3ptr13drop_in_place17hdae37ac1298c2be9E
Ltmp184:
	jmp	LBB54_14
LBB54_16:
	.loc	20 0 1
	movq	-40(%rbp), %rax
	.loc	20 184 1
	addq	$64, %rax
Ltmp180:
	movq	%rax, %rdi
	callq	__ZN4core3ptr13drop_in_place17h2becd32a156cafd7E
Ltmp181:
	jmp	LBB54_15
LBB54_17:
	.loc	20 0 1
	movq	-40(%rbp), %rax
	.loc	20 184 1
	addq	$40, %rax
Ltmp177:
	movq	%rax, %rdi
	callq	__ZN4core3ptr13drop_in_place17hb5de529e3a9c00a7E
Ltmp178:
	jmp	LBB54_16
LBB54_18:
	.loc	20 0 1
	movq	-40(%rbp), %rax
	.loc	20 184 1
	addq	$16, %rax
Ltmp174:
	movq	%rax, %rdi
	callq	__ZN4core3ptr13drop_in_place17h253983cad8fdeae1E
Ltmp175:
	jmp	LBB54_17
Ltmp196:
LBB54_19:
Ltmp173:
	.loc	20 0 1
	movq	%rax, -16(%rbp)
	movl	%edx, -8(%rbp)
	jmp	LBB54_10
LBB54_20:
Ltmp176:
	movq	%rax, -16(%rbp)
	movl	%edx, -8(%rbp)
	jmp	LBB54_9
LBB54_21:
Ltmp179:
	movq	%rax, -16(%rbp)
	movl	%edx, -8(%rbp)
	jmp	LBB54_8
LBB54_22:
Ltmp182:
	movq	%rax, -16(%rbp)
	movl	%edx, -8(%rbp)
	jmp	LBB54_7
LBB54_23:
Ltmp185:
	movq	%rax, -16(%rbp)
	movl	%edx, -8(%rbp)
	jmp	LBB54_6
LBB54_24:
Ltmp188:
	movq	%rax, -16(%rbp)
	movl	%edx, -8(%rbp)
	jmp	LBB54_5
LBB54_25:
Ltmp191:
	movq	%rax, -16(%rbp)
	movl	%edx, -8(%rbp)
	jmp	LBB54_4
LBB54_26:
Ltmp194:
	movq	%rax, -16(%rbp)
	movl	%edx, -8(%rbp)
	jmp	LBB54_3
Lfunc_end54:
	.cfi_endproc
	.section	__TEXT,__gcc_except_tab
	.p2align	2
GCC_except_table54:
Lexception10:
	.byte	255
	.byte	255
	.byte	1
	.uleb128 Lcst_end10-Lcst_begin10
Lcst_begin10:
	.uleb128 Ltmp171-Lfunc_begin54
	.uleb128 Ltmp172-Ltmp171
	.uleb128 Ltmp173-Lfunc_begin54
	.byte	0
	.uleb128 Ltmp172-Lfunc_begin54
	.uleb128 Ltmp192-Ltmp172
	.byte	0
	.byte	0
	.uleb128 Ltmp192-Lfunc_begin54
	.uleb128 Ltmp193-Ltmp192
	.uleb128 Ltmp194-Lfunc_begin54
	.byte	0
	.uleb128 Ltmp189-Lfunc_begin54
	.uleb128 Ltmp190-Ltmp189
	.uleb128 Ltmp191-Lfunc_begin54
	.byte	0
	.uleb128 Ltmp186-Lfunc_begin54
	.uleb128 Ltmp187-Ltmp186
	.uleb128 Ltmp188-Lfunc_begin54
	.byte	0
	.uleb128 Ltmp183-Lfunc_begin54
	.uleb128 Ltmp184-Ltmp183
	.uleb128 Ltmp185-Lfunc_begin54
	.byte	0
	.uleb128 Ltmp180-Lfunc_begin54
	.uleb128 Ltmp181-Ltmp180
	.uleb128 Ltmp182-Lfunc_begin54
	.byte	0
	.uleb128 Ltmp177-Lfunc_begin54
	.uleb128 Ltmp178-Ltmp177
	.uleb128 Ltmp179-Lfunc_begin54
	.byte	0
	.uleb128 Ltmp174-Lfunc_begin54
	.uleb128 Ltmp175-Ltmp174
	.uleb128 Ltmp176-Lfunc_begin54
	.byte	0
Lcst_end10:
	.p2align	2

	.section	__TEXT,__text,regular,pure_instructions
	.p2align	4, 0x90
__ZN4core3ptr13drop_in_place17h2becd32a156cafd7E:
Lfunc_begin55:
	.loc	20 184 0 is_stmt 1
	.cfi_startproc
	pushq	%rbp
	.cfi_def_cfa_offset 16
	.cfi_offset %rbp, -16
	movq	%rsp, %rbp
	.cfi_def_cfa_register %rbp
	subq	$16, %rsp
	movq	%rdi, -8(%rbp)
Ltmp197:
	.loc	20 184 1 prologue_end
	callq	__ZN4core3ptr13drop_in_place17hac45671eb01bbbdfE
	addq	$16, %rsp
	popq	%rbp
	retq
Ltmp198:
Lfunc_end55:
	.cfi_endproc

	.p2align	4, 0x90
__ZN4core3ptr13drop_in_place17h2de003187ca684f5E:
Lfunc_begin56:
	.loc	20 184 0
	.cfi_startproc
	pushq	%rbp
	.cfi_def_cfa_offset 16
	.cfi_offset %rbp, -16
	movq	%rsp, %rbp
	.cfi_def_cfa_register %rbp
	subq	$16, %rsp
	movq	%rdi, -8(%rbp)
Ltmp199:
	.loc	20 184 1 prologue_end
	callq	__ZN166_$LT$$LT$alloc..collections..btree..map..IntoIter$LT$K$C$V$GT$$u20$as$u20$core..ops..drop..Drop$GT$..drop..DropGuard$LT$K$C$V$GT$$u20$as$u20$core..ops..drop..Drop$GT$4drop17hc5e755a130dd7299E
	addq	$16, %rsp
	popq	%rbp
	retq
Ltmp200:
Lfunc_end56:
	.cfi_endproc

	.p2align	4, 0x90
__ZN4core3ptr13drop_in_place17h3a4bf933cfae4bb9E:
Lfunc_begin57:
	.loc	20 184 0
	.cfi_startproc
	.cfi_personality 155, _rust_eh_personality
	.cfi_lsda 16, Lexception11
	pushq	%rbp
	.cfi_def_cfa_offset 16
	.cfi_offset %rbp, -16
	movq	%rsp, %rbp
	.cfi_def_cfa_register %rbp
	subq	$48, %rsp
	movq	%rdi, -24(%rbp)
Ltmp201:
	movq	%rdi, -40(%rbp)
Ltmp204:
	.loc	20 184 1 prologue_end
	callq	__ZN66_$LT$alloc..vec..Vec$LT$T$GT$$u20$as$u20$core..ops..drop..Drop$GT$4drop17hf544fab00c074e05E
Ltmp202:
	jmp	LBB57_4
LBB57_1:
	movq	-16(%rbp), %rdi
	callq	__Unwind_Resume
	ud2
LBB57_2:
	addq	$48, %rsp
	popq	%rbp
	retq
LBB57_3:
	.loc	20 0 1 is_stmt 0
	movq	-40(%rbp), %rax
	.loc	20 184 1
	movq	%rax, %rdi
	callq	__ZN4core3ptr13drop_in_place17hff3f468caaba79cfE
	jmp	LBB57_1
LBB57_4:
	.loc	20 0 1
	movq	-40(%rbp), %rax
	.loc	20 184 1
	movq	%rax, %rdi
	callq	__ZN4core3ptr13drop_in_place17hff3f468caaba79cfE
	jmp	LBB57_2
Ltmp205:
LBB57_5:
Ltmp203:
	.loc	20 0 1
	movq	%rax, -16(%rbp)
	movl	%edx, -8(%rbp)
	jmp	LBB57_3
Lfunc_end57:
	.cfi_endproc
	.section	__TEXT,__gcc_except_tab
	.p2align	2
GCC_except_table57:
Lexception11:
	.byte	255
	.byte	255
	.byte	1
	.uleb128 Lcst_end11-Lcst_begin11
Lcst_begin11:
	.uleb128 Ltmp201-Lfunc_begin57
	.uleb128 Ltmp202-Ltmp201
	.uleb128 Ltmp203-Lfunc_begin57
	.byte	0
	.uleb128 Ltmp202-Lfunc_begin57
	.uleb128 Lfunc_end57-Ltmp202
	.byte	0
	.byte	0
Lcst_end11:
	.p2align	2

	.section	__TEXT,__text,regular,pure_instructions
	.p2align	4, 0x90
__ZN4core3ptr13drop_in_place17h3a6d747001530b17E:
Lfunc_begin58:
	.loc	20 184 0 is_stmt 1
	.cfi_startproc
	pushq	%rbp
	.cfi_def_cfa_offset 16
	.cfi_offset %rbp, -16
	movq	%rsp, %rbp
	.cfi_def_cfa_register %rbp
	subq	$32, %rsp
	movq	%rdi, -8(%rbp)
Ltmp206:
	.loc	20 184 1 prologue_end
	movb	(%rdi), %al
	subb	$1, %al
	movq	%rdi, -24(%rbp)
	ja	LBB58_2
	jmp	LBB58_1
LBB58_1:
	addq	$32, %rsp
	popq	%rbp
	retq
LBB58_2:
	.loc	20 0 1 is_stmt 0
	movq	-24(%rbp), %rax
	.loc	20 184 1
	addq	$8, %rax
	movq	%rax, %rdi
	callq	__ZN4core3ptr13drop_in_place17h6a81e1ebe1160d24E
	jmp	LBB58_1
Ltmp207:
Lfunc_end58:
	.cfi_endproc

	.p2align	4, 0x90
__ZN4core3ptr13drop_in_place17h3ce9d09cd8de90e5E:
Lfunc_begin59:
	.loc	20 184 0 is_stmt 1
	.cfi_startproc
	pushq	%rbp
	.cfi_def_cfa_offset 16
	.cfi_offset %rbp, -16
	movq	%rsp, %rbp
	.cfi_def_cfa_register %rbp
	subq	$16, %rsp
	movq	%rdi, -8(%rbp)
Ltmp208:
	.loc	20 184 1 prologue_end
	callq	__ZN95_$LT$alloc..collections..btree..map..IntoIter$LT$K$C$V$GT$$u20$as$u20$core..ops..drop..Drop$GT$4drop17h7e46bfb70b87fe17E
	addq	$16, %rsp
	popq	%rbp
	retq
Ltmp209:
Lfunc_end59:
	.cfi_endproc

	.p2align	4, 0x90
__ZN4core3ptr13drop_in_place17h52ebe01f396f0f17E:
Lfunc_begin60:
	.loc	20 184 0
	.cfi_startproc
	.cfi_personality 155, _rust_eh_personality
	.cfi_lsda 16, Lexception12
	pushq	%rbp
	.cfi_def_cfa_offset 16
	.cfi_offset %rbp, -16
	movq	%rsp, %rbp
	.cfi_def_cfa_register %rbp
	subq	$48, %rsp
	movq	%rdi, -24(%rbp)
Ltmp213:
	.loc	20 184 1 prologue_end
	movq	(%rdi), %rax
	movq	8(%rdi), %rcx
	movq	(%rcx), %rcx
Ltmp210:
	movq	%rdi, -40(%rbp)
	movq	%rax, %rdi
	callq	*%rcx
Ltmp211:
	jmp	LBB60_3
LBB60_1:
	addq	$48, %rsp
	popq	%rbp
	retq
LBB60_2:
	movq	-16(%rbp), %rdi
	callq	__Unwind_Resume
	ud2
LBB60_3:
	.loc	20 0 1 is_stmt 0
	movq	-40(%rbp), %rax
	.loc	20 184 1
	movq	(%rax), %rdi
	movq	8(%rax), %rsi
	callq	__ZN5alloc5alloc8box_free17h00775f35014ac2bbE
	jmp	LBB60_1
LBB60_4:
	.loc	20 0 1
	movq	-40(%rbp), %rax
	.loc	20 184 1
	movq	(%rax), %rdi
	movq	8(%rax), %rsi
	callq	__ZN5alloc5alloc8box_free17h00775f35014ac2bbE
	jmp	LBB60_2
Ltmp214:
LBB60_5:
Ltmp212:
	.loc	20 0 1
	movq	%rax, -16(%rbp)
	movl	%edx, -8(%rbp)
	jmp	LBB60_4
Lfunc_end60:
	.cfi_endproc
	.section	__TEXT,__gcc_except_tab
	.p2align	2
GCC_except_table60:
Lexception12:
	.byte	255
	.byte	255
	.byte	1
	.uleb128 Lcst_end12-Lcst_begin12
Lcst_begin12:
	.uleb128 Ltmp210-Lfunc_begin60
	.uleb128 Ltmp211-Ltmp210
	.uleb128 Ltmp212-Lfunc_begin60
	.byte	0
	.uleb128 Ltmp211-Lfunc_begin60
	.uleb128 Lfunc_end60-Ltmp211
	.byte	0
	.byte	0
Lcst_end12:
	.p2align	2

	.section	__TEXT,__text,regular,pure_instructions
	.p2align	4, 0x90
__ZN4core3ptr13drop_in_place17h53d7e0fcff5dcdbdE:
Lfunc_begin61:
	.loc	20 184 0 is_stmt 1
	.cfi_startproc
	pushq	%rbp
	.cfi_def_cfa_offset 16
	.cfi_offset %rbp, -16
	movq	%rsp, %rbp
	.cfi_def_cfa_register %rbp
	subq	$16, %rsp
	movq	%rdi, -8(%rbp)
Ltmp215:
	.loc	20 184 1 prologue_end
	callq	__ZN4core3ptr13drop_in_place17h155f2ea186066f21E
	addq	$16, %rsp
	popq	%rbp
	retq
Ltmp216:
Lfunc_end61:
	.cfi_endproc

	.p2align	4, 0x90
__ZN4core3ptr13drop_in_place17h602244405f41f460E:
Lfunc_begin62:
	.loc	20 184 0
	.cfi_startproc
	pushq	%rbp
	.cfi_def_cfa_offset 16
	.cfi_offset %rbp, -16
	movq	%rsp, %rbp
	.cfi_def_cfa_register %rbp
	subq	$32, %rsp
	xorl	%eax, %eax
	movl	%eax, %ecx
	movq	%rdi, -8(%rbp)
Ltmp217:
	.loc	20 184 1 prologue_end
	cmpq	$0, (%rdi)
	movl	$1, %edx
	cmovbeq	%rcx, %rdx
	cmpq	$0, %rdx
	movq	%rdi, -24(%rbp)
	jne	LBB62_2
LBB62_1:
	addq	$32, %rsp
	popq	%rbp
	retq
LBB62_2:
	.loc	20 0 1 is_stmt 0
	movq	-24(%rbp), %rax
	.loc	20 184 1
	movq	%rax, %rdi
	callq	__ZN4core3ptr13drop_in_place17h8c779680a7cf135eE
	jmp	LBB62_1
Ltmp218:
Lfunc_end62:
	.cfi_endproc

	.p2align	4, 0x90
__ZN4core3ptr13drop_in_place17h64b8f06031158e79E:
Lfunc_begin63:
	.loc	20 184 0 is_stmt 1
	.cfi_startproc
	pushq	%rbp
	.cfi_def_cfa_offset 16
	.cfi_offset %rbp, -16
	movq	%rsp, %rbp
	.cfi_def_cfa_register %rbp
	subq	$16, %rsp
	movq	%rdi, -8(%rbp)
Ltmp219:
	.loc	20 184 1 prologue_end
	callq	__ZN77_$LT$alloc..raw_vec..RawVec$LT$T$C$A$GT$$u20$as$u20$core..ops..drop..Drop$GT$4drop17haf2b0f2ec308eeb2E
	addq	$16, %rsp
	popq	%rbp
	retq
Ltmp220:
Lfunc_end63:
	.cfi_endproc

	.p2align	4, 0x90
__ZN4core3ptr13drop_in_place17h6a81e1ebe1160d24E:
Lfunc_begin64:
	.loc	20 184 0
	.cfi_startproc
	.cfi_personality 155, _rust_eh_personality
	.cfi_lsda 16, Lexception13
	pushq	%rbp
	.cfi_def_cfa_offset 16
	.cfi_offset %rbp, -16
	movq	%rsp, %rbp
	.cfi_def_cfa_register %rbp
	subq	$48, %rsp
	movq	%rdi, -24(%rbp)
Ltmp224:
	.loc	20 184 1 prologue_end
	movq	(%rdi), %rax
Ltmp221:
	movq	%rdi, -40(%rbp)
	movq	%rax, %rdi
	callq	__ZN4core3ptr13drop_in_place17h53d7e0fcff5dcdbdE
Ltmp222:
	jmp	LBB64_3
LBB64_1:
	addq	$48, %rsp
	popq	%rbp
	retq
LBB64_2:
	movq	-16(%rbp), %rdi
	callq	__Unwind_Resume
	ud2
LBB64_3:
	.loc	20 0 1 is_stmt 0
	movq	-40(%rbp), %rax
	.loc	20 184 1
	movq	(%rax), %rdi
	callq	__ZN5alloc5alloc8box_free17hee80fe9d215773e0E
	jmp	LBB64_1
LBB64_4:
	.loc	20 0 1
	movq	-40(%rbp), %rax
	.loc	20 184 1
	movq	(%rax), %rdi
	callq	__ZN5alloc5alloc8box_free17hee80fe9d215773e0E
	jmp	LBB64_2
Ltmp225:
LBB64_5:
Ltmp223:
	.loc	20 0 1
	movq	%rax, -16(%rbp)
	movl	%edx, -8(%rbp)
	jmp	LBB64_4
Lfunc_end64:
	.cfi_endproc
	.section	__TEXT,__gcc_except_tab
	.p2align	2
GCC_except_table64:
Lexception13:
	.byte	255
	.byte	255
	.byte	1
	.uleb128 Lcst_end13-Lcst_begin13
Lcst_begin13:
	.uleb128 Ltmp221-Lfunc_begin64
	.uleb128 Ltmp222-Ltmp221
	.uleb128 Ltmp223-Lfunc_begin64
	.byte	0
	.uleb128 Ltmp222-Lfunc_begin64
	.uleb128 Lfunc_end64-Ltmp222
	.byte	0
	.byte	0
Lcst_end13:
	.p2align	2

	.section	__TEXT,__text,regular,pure_instructions
	.p2align	4, 0x90
__ZN4core3ptr13drop_in_place17h714ecd0c9eea2b9bE:
Lfunc_begin65:
	.loc	20 184 0 is_stmt 1
	.cfi_startproc
	.cfi_personality 155, _rust_eh_personality
	.cfi_lsda 16, Lexception14
	pushq	%rbp
	.cfi_def_cfa_offset 16
	.cfi_offset %rbp, -16
	movq	%rsp, %rbp
	.cfi_def_cfa_register %rbp
	subq	$80, %rsp
	xorl	%eax, %eax
	movq	%rdi, -32(%rbp)
	movq	%rsi, -24(%rbp)
Ltmp232:
	.loc	20 184 1 prologue_end
	testb	$1, %al
	movq	%rdi, -72(%rbp)
	movq	%rsi, -80(%rbp)
	jne	LBB65_7
	jmp	LBB65_12
LBB65_1:
	addq	$80, %rsp
	popq	%rbp
	retq
LBB65_2:
	movq	-16(%rbp), %rdi
	callq	__Unwind_Resume
	ud2
LBB65_3:
	movq	-56(%rbp), %rax
	shlq	$4, %rax
	movq	-72(%rbp), %rcx
	addq	%rax, %rcx
	movq	-56(%rbp), %rax
	addq	$1, %rax
	movq	%rax, -56(%rbp)
	movq	%rcx, %rdi
	callq	__ZN4core3ptr13drop_in_place17h52ebe01f396f0f17E
LBB65_4:
	.loc	20 0 1 is_stmt 0
	movq	-80(%rbp), %rax
	.loc	20 184 1
	cmpq	%rax, -56(%rbp)
	je	LBB65_2
	jmp	LBB65_3
LBB65_5:
	movq	-56(%rbp), %rax
	movq	%rax, %rcx
	shlq	$4, %rcx
	movq	-72(%rbp), %rdx
	addq	%rcx, %rdx
	incq	%rax
	movq	%rax, -56(%rbp)
Ltmp229:
	movq	%rdx, %rdi
	callq	__ZN4core3ptr13drop_in_place17h52ebe01f396f0f17E
Ltmp230:
	jmp	LBB65_6
LBB65_6:
	.loc	20 0 1
	movq	-80(%rbp), %rax
	.loc	20 184 1
	cmpq	%rax, -56(%rbp)
	je	LBB65_1
	jmp	LBB65_5
LBB65_7:
	movq	$0, -56(%rbp)
	jmp	LBB65_6
LBB65_8:
	movq	-48(%rbp), %rdi
	movq	-48(%rbp), %rax
	addq	$16, %rax
	movq	%rax, -48(%rbp)
	callq	__ZN4core3ptr13drop_in_place17h52ebe01f396f0f17E
LBB65_9:
	movq	-48(%rbp), %rax
	cmpq	-40(%rbp), %rax
	je	LBB65_2
	jmp	LBB65_8
LBB65_10:
	movq	-48(%rbp), %rax
	movq	%rax, %rcx
	addq	$16, %rcx
	movq	%rcx, -48(%rbp)
Ltmp226:
	movq	%rax, %rdi
	callq	__ZN4core3ptr13drop_in_place17h52ebe01f396f0f17E
Ltmp227:
	jmp	LBB65_11
LBB65_11:
	movq	-48(%rbp), %rax
	cmpq	-40(%rbp), %rax
	je	LBB65_1
	jmp	LBB65_10
LBB65_12:
	.loc	20 0 1
	movq	-72(%rbp), %rax
	.loc	20 184 1
	movq	%rax, -48(%rbp)
	movq	-80(%rbp), %rax
	shlq	$4, %rax
	addq	-48(%rbp), %rax
	movq	%rax, -40(%rbp)
	jmp	LBB65_11
Ltmp233:
LBB65_13:
Ltmp228:
	.loc	20 0 1
	movq	%rax, -16(%rbp)
	movl	%edx, -8(%rbp)
	jmp	LBB65_9
LBB65_14:
Ltmp231:
	movq	%rax, -16(%rbp)
	movl	%edx, -8(%rbp)
	jmp	LBB65_4
Lfunc_end65:
	.cfi_endproc
	.section	__TEXT,__gcc_except_tab
	.p2align	2
GCC_except_table65:
Lexception14:
	.byte	255
	.byte	255
	.byte	1
	.uleb128 Lcst_end14-Lcst_begin14
Lcst_begin14:
	.uleb128 Lfunc_begin65-Lfunc_begin65
	.uleb128 Ltmp229-Lfunc_begin65
	.byte	0
	.byte	0
	.uleb128 Ltmp229-Lfunc_begin65
	.uleb128 Ltmp230-Ltmp229
	.uleb128 Ltmp231-Lfunc_begin65
	.byte	0
	.uleb128 Ltmp230-Lfunc_begin65
	.uleb128 Ltmp226-Ltmp230
	.byte	0
	.byte	0
	.uleb128 Ltmp226-Lfunc_begin65
	.uleb128 Ltmp227-Ltmp226
	.uleb128 Ltmp228-Lfunc_begin65
	.byte	0
Lcst_end14:
	.p2align	2

	.section	__TEXT,__text,regular,pure_instructions
	.p2align	4, 0x90
__ZN4core3ptr13drop_in_place17h87bb59bb61813cceE:
Lfunc_begin66:
	.loc	20 184 0 is_stmt 1
	.cfi_startproc
	pushq	%rbp
	.cfi_def_cfa_offset 16
	.cfi_offset %rbp, -16
	movq	%rsp, %rbp
	.cfi_def_cfa_register %rbp
	subq	$32, %rsp
	xorl	%eax, %eax
	movl	%eax, %ecx
	movq	%rdi, -8(%rbp)
Ltmp234:
	.loc	20 184 1 prologue_end
	cmpq	$0, (%rdi)
	movl	$1, %edx
	cmovbeq	%rcx, %rdx
	cmpq	$0, %rdx
	movq	%rdi, -24(%rbp)
	jne	LBB66_2
LBB66_1:
	addq	$32, %rsp
	popq	%rbp
	retq
LBB66_2:
	.loc	20 0 1 is_stmt 0
	movq	-24(%rbp), %rax
	.loc	20 184 1
	movq	%rax, %rdi
	callq	__ZN4core3ptr13drop_in_place17h8c779680a7cf135eE
	jmp	LBB66_1
Ltmp235:
Lfunc_end66:
	.cfi_endproc

	.p2align	4, 0x90
__ZN4core3ptr13drop_in_place17h8ba33132a99a107dE:
Lfunc_begin67:
	.loc	20 184 0 is_stmt 1
	.cfi_startproc
	pushq	%rbp
	.cfi_def_cfa_offset 16
	.cfi_offset %rbp, -16
	movq	%rsp, %rbp
	.cfi_def_cfa_register %rbp
	subq	$48, %rsp
	movq	%rdi, -24(%rbp)
	movq	%rdi, -40(%rbp)
Ltmp236:
	.loc	20 184 1 prologue_end
	jmp	LBB67_2
LBB67_1:
	addq	$48, %rsp
	popq	%rbp
	retq
LBB67_2:
	.loc	20 0 1 is_stmt 0
	movq	-40(%rbp), %rax
	.loc	20 184 1
	movq	(%rax), %rdi
	movq	8(%rax), %rsi
	callq	__ZN5alloc5alloc8box_free17h2a6e1809233d9410E
	jmp	LBB67_1
Ltmp237:
Lfunc_end67:
	.cfi_endproc

	.p2align	4, 0x90
__ZN4core3ptr13drop_in_place17h8c779680a7cf135eE:
Lfunc_begin68:
	.loc	20 184 0 is_stmt 1
	.cfi_startproc
	pushq	%rbp
	.cfi_def_cfa_offset 16
	.cfi_offset %rbp, -16
	movq	%rsp, %rbp
	.cfi_def_cfa_register %rbp
	subq	$16, %rsp
	movq	%rdi, -8(%rbp)
Ltmp238:
	.loc	20 184 1 prologue_end
	callq	__ZN4core3ptr13drop_in_place17hb0544dea28bf069bE
	addq	$16, %rsp
	popq	%rbp
	retq
Ltmp239:
Lfunc_end68:
	.cfi_endproc

	.p2align	4, 0x90
__ZN4core3ptr13drop_in_place17h92ff9d60b8d033c2E:
Lfunc_begin69:
	.loc	20 184 0
	.cfi_startproc
	.cfi_personality 155, _rust_eh_personality
	.cfi_lsda 16, Lexception15
	pushq	%rbp
	.cfi_def_cfa_offset 16
	.cfi_offset %rbp, -16
	movq	%rsp, %rbp
	.cfi_def_cfa_register %rbp
	subq	$80, %rsp
	xorl	%eax, %eax
	movq	%rdi, -32(%rbp)
	movq	%rsi, -24(%rbp)
Ltmp246:
	.loc	20 184 1 prologue_end
	testb	$1, %al
	movq	%rdi, -72(%rbp)
	movq	%rsi, -80(%rbp)
	jne	LBB69_7
	jmp	LBB69_12
LBB69_1:
	addq	$80, %rsp
	popq	%rbp
	retq
LBB69_2:
	movq	-16(%rbp), %rdi
	callq	__Unwind_Resume
	ud2
LBB69_3:
	movq	-56(%rbp), %rax
	shlq	$4, %rax
	movq	-72(%rbp), %rcx
	addq	%rax, %rcx
	movq	-56(%rbp), %rax
	addq	$1, %rax
	movq	%rax, -56(%rbp)
	movq	%rcx, %rdi
	callq	__ZN4core3ptr13drop_in_place17hada8191deb9d4a37E
LBB69_4:
	.loc	20 0 1 is_stmt 0
	movq	-80(%rbp), %rax
	.loc	20 184 1
	cmpq	%rax, -56(%rbp)
	je	LBB69_2
	jmp	LBB69_3
LBB69_5:
	movq	-56(%rbp), %rax
	movq	%rax, %rcx
	shlq	$4, %rcx
	movq	-72(%rbp), %rdx
	addq	%rcx, %rdx
	incq	%rax
	movq	%rax, -56(%rbp)
Ltmp243:
	movq	%rdx, %rdi
	callq	__ZN4core3ptr13drop_in_place17hada8191deb9d4a37E
Ltmp244:
	jmp	LBB69_6
LBB69_6:
	.loc	20 0 1
	movq	-80(%rbp), %rax
	.loc	20 184 1
	cmpq	%rax, -56(%rbp)
	je	LBB69_1
	jmp	LBB69_5
LBB69_7:
	movq	$0, -56(%rbp)
	jmp	LBB69_6
LBB69_8:
	movq	-48(%rbp), %rdi
	movq	-48(%rbp), %rax
	addq	$16, %rax
	movq	%rax, -48(%rbp)
	callq	__ZN4core3ptr13drop_in_place17hada8191deb9d4a37E
LBB69_9:
	movq	-48(%rbp), %rax
	cmpq	-40(%rbp), %rax
	je	LBB69_2
	jmp	LBB69_8
LBB69_10:
	movq	-48(%rbp), %rax
	movq	%rax, %rcx
	addq	$16, %rcx
	movq	%rcx, -48(%rbp)
Ltmp240:
	movq	%rax, %rdi
	callq	__ZN4core3ptr13drop_in_place17hada8191deb9d4a37E
Ltmp241:
	jmp	LBB69_11
LBB69_11:
	movq	-48(%rbp), %rax
	cmpq	-40(%rbp), %rax
	je	LBB69_1
	jmp	LBB69_10
LBB69_12:
	.loc	20 0 1
	movq	-72(%rbp), %rax
	.loc	20 184 1
	movq	%rax, -48(%rbp)
	movq	-80(%rbp), %rax
	shlq	$4, %rax
	addq	-48(%rbp), %rax
	movq	%rax, -40(%rbp)
	jmp	LBB69_11
Ltmp247:
LBB69_13:
Ltmp242:
	.loc	20 0 1
	movq	%rax, -16(%rbp)
	movl	%edx, -8(%rbp)
	jmp	LBB69_9
LBB69_14:
Ltmp245:
	movq	%rax, -16(%rbp)
	movl	%edx, -8(%rbp)
	jmp	LBB69_4
Lfunc_end69:
	.cfi_endproc
	.section	__TEXT,__gcc_except_tab
	.p2align	2
GCC_except_table69:
Lexception15:
	.byte	255
	.byte	255
	.byte	1
	.uleb128 Lcst_end15-Lcst_begin15
Lcst_begin15:
	.uleb128 Lfunc_begin69-Lfunc_begin69
	.uleb128 Ltmp243-Lfunc_begin69
	.byte	0
	.byte	0
	.uleb128 Ltmp243-Lfunc_begin69
	.uleb128 Ltmp244-Ltmp243
	.uleb128 Ltmp245-Lfunc_begin69
	.byte	0
	.uleb128 Ltmp244-Lfunc_begin69
	.uleb128 Ltmp240-Ltmp244
	.byte	0
	.byte	0
	.uleb128 Ltmp240-Lfunc_begin69
	.uleb128 Ltmp241-Ltmp240
	.uleb128 Ltmp242-Lfunc_begin69
	.byte	0
Lcst_end15:
	.p2align	2

	.section	__TEXT,__text,regular,pure_instructions
	.p2align	4, 0x90
__ZN4core3ptr13drop_in_place17h968b1e348e03c07aE:
Lfunc_begin70:
	.loc	20 184 0 is_stmt 1
	.cfi_startproc
	pushq	%rbp
	.cfi_def_cfa_offset 16
	.cfi_offset %rbp, -16
	movq	%rsp, %rbp
	.cfi_def_cfa_register %rbp
	subq	$16, %rsp
	movq	%rdi, -8(%rbp)
Ltmp248:
	.loc	20 184 1 prologue_end
	callq	__ZN4core3ptr13drop_in_place17h25865c5420955cabE
	addq	$16, %rsp
	popq	%rbp
	retq
Ltmp249:
Lfunc_end70:
	.cfi_endproc

	.p2align	4, 0x90
__ZN4core3ptr13drop_in_place17h9784219d30694ff4E:
Lfunc_begin71:
	.loc	20 184 0
	.cfi_startproc
	.cfi_personality 155, _rust_eh_personality
	.cfi_lsda 16, Lexception16
	pushq	%rbp
	.cfi_def_cfa_offset 16
	.cfi_offset %rbp, -16
	movq	%rsp, %rbp
	.cfi_def_cfa_register %rbp
	subq	$48, %rsp
	movq	%rdi, -24(%rbp)
Ltmp250:
	movq	%rdi, -40(%rbp)
Ltmp253:
	.loc	20 184 1 prologue_end
	callq	__ZN4core3ptr13drop_in_place17h8c779680a7cf135eE
Ltmp251:
	jmp	LBB71_4
LBB71_1:
	movq	-16(%rbp), %rdi
	callq	__Unwind_Resume
	ud2
LBB71_2:
	addq	$48, %rsp
	popq	%rbp
	retq
LBB71_3:
	.loc	20 0 1 is_stmt 0
	movq	-40(%rbp), %rax
	.loc	20 184 1
	addq	$24, %rax
	movq	%rax, %rdi
	callq	__ZN4core3ptr13drop_in_place17h602244405f41f460E
	jmp	LBB71_1
LBB71_4:
	.loc	20 0 1
	movq	-40(%rbp), %rax
	.loc	20 184 1
	addq	$24, %rax
	movq	%rax, %rdi
	callq	__ZN4core3ptr13drop_in_place17h602244405f41f460E
	jmp	LBB71_2
Ltmp254:
LBB71_5:
Ltmp252:
	.loc	20 0 1
	movq	%rax, -16(%rbp)
	movl	%edx, -8(%rbp)
	jmp	LBB71_3
Lfunc_end71:
	.cfi_endproc
	.section	__TEXT,__gcc_except_tab
	.p2align	2
GCC_except_table71:
Lexception16:
	.byte	255
	.byte	255
	.byte	1
	.uleb128 Lcst_end16-Lcst_begin16
Lcst_begin16:
	.uleb128 Ltmp250-Lfunc_begin71
	.uleb128 Ltmp251-Ltmp250
	.uleb128 Ltmp252-Lfunc_begin71
	.byte	0
	.uleb128 Ltmp251-Lfunc_begin71
	.uleb128 Lfunc_end71-Ltmp251
	.byte	0
	.byte	0
Lcst_end16:
	.p2align	2

	.section	__TEXT,__text,regular,pure_instructions
	.p2align	4, 0x90
__ZN4core3ptr13drop_in_place17ha265aeab2433d0f4E:
Lfunc_begin72:
	.loc	20 184 0 is_stmt 1
	.cfi_startproc
	pushq	%rbp
	.cfi_def_cfa_offset 16
	.cfi_offset %rbp, -16
	movq	%rsp, %rbp
	.cfi_def_cfa_register %rbp
	subq	$32, %rsp
	xorl	%eax, %eax
	movl	%eax, %ecx
	movq	%rdi, -8(%rbp)
Ltmp255:
	.loc	20 184 1 prologue_end
	movl	(%rdi), %eax
	subl	$4, %eax
	cmpl	$0, %eax
	movl	$1, %edx
	cmovbeq	%rcx, %rdx
	cmpq	$0, %rdx
	movq	%rdi, -24(%rbp)
	jne	LBB72_2
LBB72_1:
	addq	$32, %rsp
	popq	%rbp
	retq
LBB72_2:
	.loc	20 0 1 is_stmt 0
	movq	-24(%rbp), %rdi
	.loc	20 184 1
	callq	__ZN4core3ptr13drop_in_place17hf7f79b958e69f3a5E
	jmp	LBB72_1
Ltmp256:
Lfunc_end72:
	.cfi_endproc

	.p2align	4, 0x90
__ZN4core3ptr13drop_in_place17ha8a72fa0deeb5728E:
Lfunc_begin73:
	.loc	20 184 0 is_stmt 1
	.cfi_startproc
	pushq	%rbp
	.cfi_def_cfa_offset 16
	.cfi_offset %rbp, -16
	movq	%rsp, %rbp
	.cfi_def_cfa_register %rbp
	subq	$32, %rsp
	xorl	%eax, %eax
	movl	%eax, %ecx
	movq	%rdi, -8(%rbp)
Ltmp257:
	.loc	20 184 1 prologue_end
	cmpq	$0, (%rdi)
	movl	$1, %edx
	cmovbeq	%rcx, %rdx
	cmpq	$0, %rdx
	movq	%rdi, -24(%rbp)
	jne	LBB73_2
LBB73_1:
	addq	$32, %rsp
	popq	%rbp
	retq
LBB73_2:
	.loc	20 0 1 is_stmt 0
	movq	-24(%rbp), %rax
	.loc	20 184 1
	movq	%rax, %rdi
	callq	__ZN4core3ptr13drop_in_place17h9784219d30694ff4E
	jmp	LBB73_1
Ltmp258:
Lfunc_end73:
	.cfi_endproc

	.p2align	4, 0x90
__ZN4core3ptr13drop_in_place17hac45671eb01bbbdfE:
Lfunc_begin74:
	.loc	20 184 0 is_stmt 1
	.cfi_startproc
	pushq	%rbp
	.cfi_def_cfa_offset 16
	.cfi_offset %rbp, -16
	movq	%rsp, %rbp
	.cfi_def_cfa_register %rbp
	subq	$16, %rsp
	movq	%rdi, -8(%rbp)
Ltmp259:
	.loc	20 184 1 prologue_end
	callq	__ZN95_$LT$alloc..collections..btree..map..BTreeMap$LT$K$C$V$GT$$u20$as$u20$core..ops..drop..Drop$GT$4drop17hc89c783063b64ca5E
	addq	$16, %rsp
	popq	%rbp
	retq
Ltmp260:
Lfunc_end74:
	.cfi_endproc

	.p2align	4, 0x90
__ZN4core3ptr13drop_in_place17hada8191deb9d4a37E:
Lfunc_begin75:
	.loc	20 184 0
	.cfi_startproc
	.cfi_personality 155, _rust_eh_personality
	.cfi_lsda 16, Lexception17
	pushq	%rbp
	.cfi_def_cfa_offset 16
	.cfi_offset %rbp, -16
	movq	%rsp, %rbp
	.cfi_def_cfa_register %rbp
	subq	$48, %rsp
	movq	%rdi, -24(%rbp)
Ltmp261:
	movq	%rdi, -40(%rbp)
Ltmp264:
	.loc	20 184 1 prologue_end
	callq	__ZN66_$LT$std..ffi..c_str..CString$u20$as$u20$core..ops..drop..Drop$GT$4drop17h0074b8c75d318313E
Ltmp262:
	jmp	LBB75_4
LBB75_1:
	movq	-16(%rbp), %rdi
	callq	__Unwind_Resume
	ud2
LBB75_2:
	addq	$48, %rsp
	popq	%rbp
	retq
LBB75_3:
	.loc	20 0 1 is_stmt 0
	movq	-40(%rbp), %rax
	.loc	20 184 1
	movq	%rax, %rdi
	callq	__ZN4core3ptr13drop_in_place17h8ba33132a99a107dE
	jmp	LBB75_1
LBB75_4:
	.loc	20 0 1
	movq	-40(%rbp), %rax
	.loc	20 184 1
	movq	%rax, %rdi
	callq	__ZN4core3ptr13drop_in_place17h8ba33132a99a107dE
	jmp	LBB75_2
Ltmp265:
LBB75_5:
Ltmp263:
	.loc	20 0 1
	movq	%rax, -16(%rbp)
	movl	%edx, -8(%rbp)
	jmp	LBB75_3
Lfunc_end75:
	.cfi_endproc
	.section	__TEXT,__gcc_except_tab
	.p2align	2
GCC_except_table75:
Lexception17:
	.byte	255
	.byte	255
	.byte	1
	.uleb128 Lcst_end17-Lcst_begin17
Lcst_begin17:
	.uleb128 Ltmp261-Lfunc_begin75
	.uleb128 Ltmp262-Ltmp261
	.uleb128 Ltmp263-Lfunc_begin75
	.byte	0
	.uleb128 Ltmp262-Lfunc_begin75
	.uleb128 Lfunc_end75-Ltmp262
	.byte	0
	.byte	0
Lcst_end17:
	.p2align	2

	.section	__TEXT,__text,regular,pure_instructions
	.p2align	4, 0x90
__ZN4core3ptr13drop_in_place17hb0544dea28bf069bE:
Lfunc_begin76:
	.loc	20 184 0 is_stmt 1
	.cfi_startproc
	pushq	%rbp
	.cfi_def_cfa_offset 16
	.cfi_offset %rbp, -16
	movq	%rsp, %rbp
	.cfi_def_cfa_register %rbp
	subq	$16, %rsp
	movq	%rdi, -8(%rbp)
Ltmp266:
	.loc	20 184 1 prologue_end
	callq	__ZN4core3ptr13drop_in_place17h18ff6b47778bcfd7E
	addq	$16, %rsp
	popq	%rbp
	retq
Ltmp267:
Lfunc_end76:
	.cfi_endproc

	.p2align	4, 0x90
__ZN4core3ptr13drop_in_place17hb1c02296f1efa101E:
Lfunc_begin77:
	.loc	20 184 0
	.cfi_startproc
	pushq	%rbp
	.cfi_def_cfa_offset 16
	.cfi_offset %rbp, -16
	movq	%rsp, %rbp
	.cfi_def_cfa_register %rbp
	subq	$32, %rsp
	movq	%rdi, -8(%rbp)
Ltmp268:
	.loc	20 184 1 prologue_end
	cmpq	$0, (%rdi)
	movq	%rdi, -24(%rbp)
	je	LBB77_2
	jmp	LBB77_3
LBB77_1:
	addq	$32, %rsp
	popq	%rbp
	retq
LBB77_2:
	.loc	20 0 1 is_stmt 0
	movq	-24(%rbp), %rax
	.loc	20 184 1
	addq	$8, %rax
	movq	%rax, %rdi
	callq	__ZN4core3ptr13drop_in_place17h0e23404b416501c8E
	jmp	LBB77_1
LBB77_3:
	.loc	20 0 1
	movq	-24(%rbp), %rax
	.loc	20 184 1
	addq	$8, %rax
	movq	%rax, %rdi
	callq	__ZN4core3ptr13drop_in_place17hc6fd6e2b9106f807E
	jmp	LBB77_1
Ltmp269:
Lfunc_end77:
	.cfi_endproc

	.p2align	4, 0x90
__ZN4core3ptr13drop_in_place17hb5de529e3a9c00a7E:
Lfunc_begin78:
	.loc	20 184 0 is_stmt 1
	.cfi_startproc
	pushq	%rbp
	.cfi_def_cfa_offset 16
	.cfi_offset %rbp, -16
	movq	%rsp, %rbp
	.cfi_def_cfa_register %rbp
	subq	$16, %rsp
	movq	%rdi, -8(%rbp)
Ltmp270:
	.loc	20 184 1 prologue_end
	callq	__ZN4core3ptr13drop_in_place17hbd30de07169d9126E
	addq	$16, %rsp
	popq	%rbp
	retq
Ltmp271:
Lfunc_end78:
	.cfi_endproc

	.p2align	4, 0x90
__ZN4core3ptr13drop_in_place17hbd30de07169d9126E:
Lfunc_begin79:
	.loc	20 184 0
	.cfi_startproc
	.cfi_personality 155, _rust_eh_personality
	.cfi_lsda 16, Lexception18
	pushq	%rbp
	.cfi_def_cfa_offset 16
	.cfi_offset %rbp, -16
	movq	%rsp, %rbp
	.cfi_def_cfa_register %rbp
	subq	$48, %rsp
	movq	%rdi, -24(%rbp)
Ltmp272:
	movq	%rdi, -40(%rbp)
Ltmp275:
	.loc	20 184 1 prologue_end
	callq	__ZN66_$LT$alloc..vec..Vec$LT$T$GT$$u20$as$u20$core..ops..drop..Drop$GT$4drop17h8652ab3494b7c422E
Ltmp273:
	jmp	LBB79_4
LBB79_1:
	movq	-16(%rbp), %rdi
	callq	__Unwind_Resume
	ud2
LBB79_2:
	addq	$48, %rsp
	popq	%rbp
	retq
LBB79_3:
	.loc	20 0 1 is_stmt 0
	movq	-40(%rbp), %rax
	.loc	20 184 1
	movq	%rax, %rdi
	callq	__ZN4core3ptr13drop_in_place17h22cb7c22f0a2c652E
	jmp	LBB79_1
LBB79_4:
	.loc	20 0 1
	movq	-40(%rbp), %rax
	.loc	20 184 1
	movq	%rax, %rdi
	callq	__ZN4core3ptr13drop_in_place17h22cb7c22f0a2c652E
	jmp	LBB79_2
Ltmp276:
LBB79_5:
Ltmp274:
	.loc	20 0 1
	movq	%rax, -16(%rbp)
	movl	%edx, -8(%rbp)
	jmp	LBB79_3
Lfunc_end79:
	.cfi_endproc
	.section	__TEXT,__gcc_except_tab
	.p2align	2
GCC_except_table79:
Lexception18:
	.byte	255
	.byte	255
	.byte	1
	.uleb128 Lcst_end18-Lcst_begin18
Lcst_begin18:
	.uleb128 Ltmp272-Lfunc_begin79
	.uleb128 Ltmp273-Ltmp272
	.uleb128 Ltmp274-Lfunc_begin79
	.byte	0
	.uleb128 Ltmp273-Lfunc_begin79
	.uleb128 Lfunc_end79-Ltmp273
	.byte	0
	.byte	0
Lcst_end18:
	.p2align	2

	.section	__TEXT,__text,regular,pure_instructions
	.p2align	4, 0x90
__ZN4core3ptr13drop_in_place17hc6fd6e2b9106f807E:
Lfunc_begin80:
	.loc	20 184 0 is_stmt 1
	.cfi_startproc
	pushq	%rbp
	.cfi_def_cfa_offset 16
	.cfi_offset %rbp, -16
	movq	%rsp, %rbp
	.cfi_def_cfa_register %rbp
	subq	$16, %rsp
	movq	%rdi, -8(%rbp)
Ltmp277:
	.loc	20 184 1 prologue_end
	callq	__ZN4core3ptr13drop_in_place17h3a6d747001530b17E
	addq	$16, %rsp
	popq	%rbp
	retq
Ltmp278:
Lfunc_end80:
	.cfi_endproc

	.p2align	4, 0x90
__ZN4core3ptr13drop_in_place17hcad687c58a83900aE:
Lfunc_begin81:
	.loc	20 184 0
	.cfi_startproc
	pushq	%rbp
	.cfi_def_cfa_offset 16
	.cfi_offset %rbp, -16
	movq	%rsp, %rbp
	.cfi_def_cfa_register %rbp
	subq	$16, %rsp
	movq	%rdi, -8(%rbp)
Ltmp279:
	.loc	20 184 1 prologue_end
	callq	__ZN70_$LT$std..sys..unix..fd..FileDesc$u20$as$u20$core..ops..drop..Drop$GT$4drop17h633394f1cf9da1c8E
	addq	$16, %rsp
	popq	%rbp
	retq
Ltmp280:
Lfunc_end81:
	.cfi_endproc

	.p2align	4, 0x90
__ZN4core3ptr13drop_in_place17hcb83e83a771ac4e2E:
Lfunc_begin82:
	.loc	20 184 0
	.cfi_startproc
	pushq	%rbp
	.cfi_def_cfa_offset 16
	.cfi_offset %rbp, -16
	movq	%rsp, %rbp
	.cfi_def_cfa_register %rbp
	subq	$32, %rsp
	movq	%rdi, -16(%rbp)
	movq	%rsi, -8(%rbp)
Ltmp281:
	.loc	20 184 1 prologue_end
	callq	*(%rsi)
	addq	$32, %rsp
	popq	%rbp
	retq
Ltmp282:
Lfunc_end82:
	.cfi_endproc

	.p2align	4, 0x90
__ZN4core3ptr13drop_in_place17hdae37ac1298c2be9E:
Lfunc_begin83:
	.loc	20 184 0
	.cfi_startproc
	pushq	%rbp
	.cfi_def_cfa_offset 16
	.cfi_offset %rbp, -16
	movq	%rsp, %rbp
	.cfi_def_cfa_register %rbp
	subq	$32, %rsp
	xorl	%eax, %eax
	movl	%eax, %ecx
	movq	%rdi, -8(%rbp)
Ltmp283:
	.loc	20 184 1 prologue_end
	cmpq	$0, (%rdi)
	movl	$1, %edx
	cmovbeq	%rcx, %rdx
	cmpq	$0, %rdx
	movq	%rdi, -24(%rbp)
	jne	LBB83_2
LBB83_1:
	addq	$32, %rsp
	popq	%rbp
	retq
LBB83_2:
	.loc	20 0 1 is_stmt 0
	movq	-24(%rbp), %rdi
	.loc	20 184 1
	callq	__ZN4core3ptr13drop_in_place17hada8191deb9d4a37E
	jmp	LBB83_1
Ltmp284:
Lfunc_end83:
	.cfi_endproc

	.p2align	4, 0x90
__ZN4core3ptr13drop_in_place17hddc1ef6b2573c349E:
Lfunc_begin84:
	.loc	20 184 0 is_stmt 1
	.cfi_startproc
	pushq	%rbp
	.cfi_def_cfa_offset 16
	.cfi_offset %rbp, -16
	movq	%rsp, %rbp
	.cfi_def_cfa_register %rbp
	subq	$16, %rsp
	movq	%rdi, -8(%rbp)
Ltmp285:
	.loc	20 184 1 prologue_end
	callq	__ZN77_$LT$alloc..raw_vec..RawVec$LT$T$C$A$GT$$u20$as$u20$core..ops..drop..Drop$GT$4drop17hfed1675d3ed68bafE
	addq	$16, %rsp
	popq	%rbp
	retq
Ltmp286:
Lfunc_end84:
	.cfi_endproc

	.p2align	4, 0x90
__ZN4core3ptr13drop_in_place17he0bee331bb14d55fE:
Lfunc_begin85:
	.loc	20 184 0
	.cfi_startproc
	pushq	%rbp
	.cfi_def_cfa_offset 16
	.cfi_offset %rbp, -16
	movq	%rsp, %rbp
	.cfi_def_cfa_register %rbp
	subq	$32, %rsp
	movq	%rdi, -16(%rbp)
	movq	%rsi, -8(%rbp)
Ltmp287:
	.loc	20 184 1 prologue_end
	callq	*(%rsi)
	addq	$32, %rsp
	popq	%rbp
	retq
Ltmp288:
Lfunc_end85:
	.cfi_endproc

	.p2align	4, 0x90
__ZN4core3ptr13drop_in_place17hf76de47349023e54E:
Lfunc_begin86:
	.loc	20 184 0
	.cfi_startproc
	pushq	%rbp
	.cfi_def_cfa_offset 16
	.cfi_offset %rbp, -16
	movq	%rsp, %rbp
	.cfi_def_cfa_register %rbp
	subq	$16, %rsp
	movq	%rdi, -8(%rbp)
Ltmp289:
	.loc	20 184 1 prologue_end
	callq	__ZN4core3ptr13drop_in_place17h18ff6b47778bcfd7E
	addq	$16, %rsp
	popq	%rbp
	retq
Ltmp290:
Lfunc_end86:
	.cfi_endproc

	.p2align	4, 0x90
__ZN4core3ptr13drop_in_place17hf7f79b958e69f3a5E:
Lfunc_begin87:
	.loc	20 184 0
	.cfi_startproc
	pushq	%rbp
	.cfi_def_cfa_offset 16
	.cfi_offset %rbp, -16
	movq	%rsp, %rbp
	.cfi_def_cfa_register %rbp
	subq	$32, %rsp
	movq	%rdi, -8(%rbp)
Ltmp291:
	.loc	20 184 1 prologue_end
	movl	(%rdi), %eax
	subl	$2, %eax
	movq	%rdi, -24(%rbp)
	ja	LBB87_2
	jmp	LBB87_1
LBB87_1:
	addq	$32, %rsp
	popq	%rbp
	retq
LBB87_2:
	.loc	20 0 1 is_stmt 0
	movq	-24(%rbp), %rax
	.loc	20 184 1
	addq	$4, %rax
	movq	%rax, %rdi
	callq	__ZN4core3ptr13drop_in_place17hcad687c58a83900aE
	jmp	LBB87_1
Ltmp292:
Lfunc_end87:
	.cfi_endproc

	.p2align	4, 0x90
__ZN4core3ptr13drop_in_place17hff3f468caaba79cfE:
Lfunc_begin88:
	.loc	20 184 0 is_stmt 1
	.cfi_startproc
	pushq	%rbp
	.cfi_def_cfa_offset 16
	.cfi_offset %rbp, -16
	movq	%rsp, %rbp
	.cfi_def_cfa_register %rbp
	subq	$16, %rsp
	movq	%rdi, -8(%rbp)
Ltmp293:
	.loc	20 184 1 prologue_end
	callq	__ZN77_$LT$alloc..raw_vec..RawVec$LT$T$C$A$GT$$u20$as$u20$core..ops..drop..Drop$GT$4drop17h9887a6de53e4ca1aE
	addq	$16, %rsp
	popq	%rbp
	retq
Ltmp294:
Lfunc_end88:
	.cfi_endproc

	.p2align	4, 0x90
__ZN4core3ptr19swap_nonoverlapping17h73f9185e47bee323E:
Lfunc_begin89:
	.loc	20 430 0
	.cfi_startproc
	pushq	%rbp
	.cfi_def_cfa_offset 16
	.cfi_offset %rbp, -16
	movq	%rsp, %rbp
	.cfi_def_cfa_register %rbp
	subq	$96, %rsp
	movq	%rdi, -56(%rbp)
	movq	%rsi, -48(%rbp)
	movq	%rdx, -40(%rbp)
Ltmp295:
	.loc	20 440 13 prologue_end
	movq	%rdi, -32(%rbp)
Ltmp296:
	.loc	20 441 13
	movq	%rsi, -24(%rbp)
Ltmp297:
	.loc	17 310 5
	movq	$16, -8(%rbp)
	movq	-8(%rbp), %rax
	movq	%rdx, -64(%rbp)
	movq	%rdi, -72(%rbp)
	movq	%rsi, -80(%rbp)
	movq	%rax, -88(%rbp)
Ltmp298:
	.loc	17 0 5 is_stmt 0
	movq	-88(%rbp), %rax
	movq	-64(%rbp), %rcx
	.loc	20 442 15 is_stmt 1
	imulq	%rcx, %rax
	movq	%rax, -16(%rbp)
	movq	-72(%rbp), %rdi
	movq	-80(%rbp), %rsi
Ltmp299:
	.loc	20 445 14
	movq	%rax, %rdx
	callq	__ZN4core3ptr25swap_nonoverlapping_bytes17h34e4318b4e207048E
Ltmp300:
	.loc	20 446 2
	addq	$96, %rsp
	popq	%rbp
	retq
Ltmp301:
Lfunc_end89:
	.cfi_endproc

	.p2align	4, 0x90
__ZN4core3ptr20slice_from_raw_parts17h203cf55c6a80e2beE:
Lfunc_begin90:
	.loc	20 264 0
	.cfi_startproc
	pushq	%rbp
	.cfi_def_cfa_offset 16
	.cfi_offset %rbp, -16
	movq	%rsp, %rbp
	.cfi_def_cfa_register %rbp
	subq	$48, %rsp
	movq	%rdi, -16(%rbp)
	movq	%rsi, -8(%rbp)
Ltmp302:
	.loc	20 268 26 prologue_end
	movq	%rdi, -32(%rbp)
	movq	%rsi, -24(%rbp)
	.loc	20 268 14 is_stmt 0
	movq	-32(%rbp), %rax
	movq	-24(%rbp), %rcx
	movq	%rax, -48(%rbp)
	movq	%rcx, -40(%rbp)
	movq	-48(%rbp), %rax
	movq	-40(%rbp), %rdx
	.loc	20 269 2 is_stmt 1
	addq	$48, %rsp
	popq	%rbp
	retq
Ltmp303:
Lfunc_end90:
	.cfi_endproc

	.p2align	4, 0x90
__ZN4core3ptr20slice_from_raw_parts17h523104dd2aed63f9E:
Lfunc_begin91:
	.loc	20 264 0
	.cfi_startproc
	pushq	%rbp
	.cfi_def_cfa_offset 16
	.cfi_offset %rbp, -16
	movq	%rsp, %rbp
	.cfi_def_cfa_register %rbp
	subq	$48, %rsp
	movq	%rdi, -16(%rbp)
	movq	%rsi, -8(%rbp)
Ltmp304:
	.loc	20 268 26 prologue_end
	movq	%rdi, -32(%rbp)
	movq	%rsi, -24(%rbp)
	.loc	20 268 14 is_stmt 0
	movq	-32(%rbp), %rax
	movq	-24(%rbp), %rcx
	movq	%rax, -48(%rbp)
	movq	%rcx, -40(%rbp)
	movq	-48(%rbp), %rax
	movq	-40(%rbp), %rdx
	.loc	20 269 2 is_stmt 1
	addq	$48, %rsp
	popq	%rbp
	retq
Ltmp305:
Lfunc_end91:
	.cfi_endproc

	.p2align	4, 0x90
__ZN4core3ptr20slice_from_raw_parts17hbd94ad3127ccd184E:
Lfunc_begin92:
	.loc	20 264 0
	.cfi_startproc
	pushq	%rbp
	.cfi_def_cfa_offset 16
	.cfi_offset %rbp, -16
	movq	%rsp, %rbp
	.cfi_def_cfa_register %rbp
	subq	$48, %rsp
	movq	%rdi, -16(%rbp)
	movq	%rsi, -8(%rbp)
Ltmp306:
	.loc	20 268 26 prologue_end
	movq	%rdi, -32(%rbp)
	movq	%rsi, -24(%rbp)
	.loc	20 268 14 is_stmt 0
	movq	-32(%rbp), %rax
	movq	-24(%rbp), %rcx
	movq	%rax, -48(%rbp)
	movq	%rcx, -40(%rbp)
	movq	-48(%rbp), %rax
	movq	-40(%rbp), %rdx
	.loc	20 269 2 is_stmt 1
	addq	$48, %rsp
	popq	%rbp
	retq
Ltmp307:
Lfunc_end92:
	.cfi_endproc

	.p2align	4, 0x90
__ZN4core3ptr23swap_nonoverlapping_one17h2a8400362914f27fE:
Lfunc_begin93:
	.loc	20 449 0
	.cfi_startproc
	.cfi_personality 155, _rust_eh_personality
	.cfi_lsda 16, Lexception19
	pushq	%rbp
	.cfi_def_cfa_offset 16
	.cfi_offset %rbp, -16
	movq	%rsp, %rbp
	.cfi_def_cfa_register %rbp
	subq	$112, %rsp
	movq	%rdi, -56(%rbp)
	movq	%rsi, -48(%rbp)
Ltmp313:
	.loc	20 452 8 prologue_end
	movb	$0, -57(%rbp)
Ltmp314:
	.loc	17 310 5
	movq	$16, -8(%rbp)
	movq	-8(%rbp), %rax
	movq	%rdi, -72(%rbp)
	movq	%rsi, -80(%rbp)
	movq	%rax, -88(%rbp)
Ltmp315:
	.loc	20 452 8
	jmp	LBB93_2
LBB93_1:
	.loc	20 449 1
	movq	-24(%rbp), %rdi
	callq	__Unwind_Resume
	ud2
LBB93_2:
	.loc	20 0 1 is_stmt 0
	movq	-88(%rbp), %rax
	.loc	20 452 8 is_stmt 1
	cmpq	$32, %rax
	.loc	20 452 5 is_stmt 0
	jb	LBB93_4
	.loc	20 0 5
	movq	-72(%rbp), %rdi
	movq	-80(%rbp), %rsi
	.loc	20 462 18 is_stmt 1
	movl	$1, %edx
	callq	__ZN4core3ptr19swap_nonoverlapping17h73f9185e47bee323E
	jmp	LBB93_8
LBB93_4:
	.loc	20 456 21
	movb	$1, -57(%rbp)
	movq	-72(%rbp), %rdi
	callq	__ZN4core3ptr4read17h2dcdce072b9e2e2fE
	movq	%rax, -40(%rbp)
	movq	%rdx, -32(%rbp)
	movq	%rax, -96(%rbp)
	movq	%rdx, -104(%rbp)
Ltmp308:
	.loc	20 0 21 is_stmt 0
	movl	$1, %edx
	movq	-80(%rbp), %rdi
	movq	-72(%rbp), %rsi
Ltmp316:
	.loc	20 457 13 is_stmt 1
	callq	__ZN4core10intrinsics19copy_nonoverlapping17he3e000198841d243E
Ltmp309:
	jmp	LBB93_6
LBB93_6:
	.loc	20 458 22
	movb	$0, -57(%rbp)
Ltmp310:
	movq	-80(%rbp), %rdi
	movq	-96(%rbp), %rsi
	movq	-104(%rbp), %rdx
	.loc	20 458 13 is_stmt 0
	callq	__ZN4core3ptr5write17hedc9e5dab0ff3cfbE
Ltmp311:
	jmp	LBB93_7
Ltmp317:
LBB93_7:
	.loc	20 459 9 is_stmt 1
	movb	$0, -57(%rbp)
	.loc	20 452 5
	jmp	LBB93_9
LBB93_8:
	jmp	LBB93_9
LBB93_9:
	.loc	20 464 2
	addq	$112, %rsp
	popq	%rbp
	retq
LBB93_10:
	.loc	20 459 9
	movb	$0, -57(%rbp)
	jmp	LBB93_1
LBB93_11:
	testb	$1, -57(%rbp)
	jne	LBB93_10
	jmp	LBB93_1
Ltmp318:
LBB93_12:
Ltmp312:
	.loc	20 0 9 is_stmt 0
	movq	%rax, -24(%rbp)
	movl	%edx, -16(%rbp)
	jmp	LBB93_11
Lfunc_end93:
	.cfi_endproc
	.section	__TEXT,__gcc_except_tab
	.p2align	2
GCC_except_table93:
Lexception19:
	.byte	255
	.byte	255
	.byte	1
	.uleb128 Lcst_end19-Lcst_begin19
Lcst_begin19:
	.uleb128 Lfunc_begin93-Lfunc_begin93
	.uleb128 Ltmp308-Lfunc_begin93
	.byte	0
	.byte	0
	.uleb128 Ltmp308-Lfunc_begin93
	.uleb128 Ltmp311-Ltmp308
	.uleb128 Ltmp312-Lfunc_begin93
	.byte	0
Lcst_end19:
	.p2align	2

	.section	__TEXT,__text,regular,pure_instructions
	.p2align	4, 0x90
__ZN4core3ptr24slice_from_raw_parts_mut17h2c78bab0f76cfaa6E:
Lfunc_begin94:
	.loc	20 300 0 is_stmt 1
	.cfi_startproc
	pushq	%rbp
	.cfi_def_cfa_offset 16
	.cfi_offset %rbp, -16
	movq	%rsp, %rbp
	.cfi_def_cfa_register %rbp
	subq	$48, %rsp
	movq	%rdi, -16(%rbp)
	movq	%rsi, -8(%rbp)
Ltmp319:
	.loc	20 303 26 prologue_end
	movq	%rdi, -32(%rbp)
	movq	%rsi, -24(%rbp)
	.loc	20 303 14 is_stmt 0
	movq	-32(%rbp), %rax
	movq	-24(%rbp), %rcx
	movq	%rax, -48(%rbp)
	movq	%rcx, -40(%rbp)
	movq	-48(%rbp), %rax
	movq	-40(%rbp), %rdx
	.loc	20 304 2 is_stmt 1
	addq	$48, %rsp
	popq	%rbp
	retq
Ltmp320:
Lfunc_end94:
	.cfi_endproc

	.p2align	4, 0x90
__ZN4core3ptr24slice_from_raw_parts_mut17h5251f83456a1e358E:
Lfunc_begin95:
	.loc	20 300 0
	.cfi_startproc
	pushq	%rbp
	.cfi_def_cfa_offset 16
	.cfi_offset %rbp, -16
	movq	%rsp, %rbp
	.cfi_def_cfa_register %rbp
	subq	$48, %rsp
	movq	%rdi, -16(%rbp)
	movq	%rsi, -8(%rbp)
Ltmp321:
	.loc	20 303 26 prologue_end
	movq	%rdi, -32(%rbp)
	movq	%rsi, -24(%rbp)
	.loc	20 303 14 is_stmt 0
	movq	-32(%rbp), %rax
	movq	-24(%rbp), %rcx
	movq	%rax, -48(%rbp)
	movq	%rcx, -40(%rbp)
	movq	-48(%rbp), %rax
	movq	-40(%rbp), %rdx
	.loc	20 304 2 is_stmt 1
	addq	$48, %rsp
	popq	%rbp
	retq
Ltmp322:
Lfunc_end95:
	.cfi_endproc

	.p2align	4, 0x90
__ZN4core3ptr24slice_from_raw_parts_mut17he6b1a2a973cc0194E:
Lfunc_begin96:
	.loc	20 300 0
	.cfi_startproc
	pushq	%rbp
	.cfi_def_cfa_offset 16
	.cfi_offset %rbp, -16
	movq	%rsp, %rbp
	.cfi_def_cfa_register %rbp
	subq	$48, %rsp
	movq	%rdi, -16(%rbp)
	movq	%rsi, -8(%rbp)
Ltmp323:
	.loc	20 303 26 prologue_end
	movq	%rdi, -32(%rbp)
	movq	%rsi, -24(%rbp)
	.loc	20 303 14 is_stmt 0
	movq	-32(%rbp), %rax
	movq	-24(%rbp), %rcx
	movq	%rax, -48(%rbp)
	movq	%rcx, -40(%rbp)
	movq	-48(%rbp), %rax
	movq	-40(%rbp), %rdx
	.loc	20 304 2 is_stmt 1
	addq	$48, %rsp
	popq	%rbp
	retq
Ltmp324:
Lfunc_end96:
	.cfi_endproc

	.p2align	4, 0x90
__ZN4core3ptr24slice_from_raw_parts_mut17hffe4f4cb6bae7738E:
Lfunc_begin97:
	.loc	20 300 0
	.cfi_startproc
	pushq	%rbp
	.cfi_def_cfa_offset 16
	.cfi_offset %rbp, -16
	movq	%rsp, %rbp
	.cfi_def_cfa_register %rbp
	subq	$48, %rsp
	movq	%rdi, -16(%rbp)
	movq	%rsi, -8(%rbp)
Ltmp325:
	.loc	20 303 26 prologue_end
	movq	%rdi, -32(%rbp)
	movq	%rsi, -24(%rbp)
	.loc	20 303 14 is_stmt 0
	movq	-32(%rbp), %rax
	movq	-24(%rbp), %rcx
	movq	%rax, -48(%rbp)
	movq	%rcx, -40(%rbp)
	movq	-48(%rbp), %rax
	movq	-40(%rbp), %rdx
	.loc	20 304 2 is_stmt 1
	addq	$48, %rsp
	popq	%rbp
	retq
Ltmp326:
Lfunc_end97:
	.cfi_endproc

	.p2align	4, 0x90
__ZN4core3ptr25swap_nonoverlapping_bytes17h34e4318b4e207048E:
Lfunc_begin98:
	.loc	20 467 0
	.cfi_startproc
	pushq	%rbp
	.cfi_def_cfa_offset 16
	.cfi_offset %rbp, -16
	movq	%rsp, %rbp
	.cfi_def_cfa_register %rbp
	andq	$-32, %rsp
	subq	$352, %rsp
	movq	%rdi, 208(%rsp)
	movq	%rsi, 216(%rsp)
	movq	%rdx, 224(%rsp)
Ltmp327:
	.loc	17 310 5 prologue_end
	movq	$32, 296(%rsp)
	movq	296(%rsp), %rax
Ltmp328:
	.loc	20 478 22
	movq	%rax, 232(%rsp)
	movq	%rdi, 104(%rsp)
	movq	%rsi, 96(%rsp)
	movq	%rdx, 88(%rsp)
	movq	%rax, 80(%rsp)
Ltmp329:
	.loc	20 483 17
	movq	$0, 120(%rsp)
LBB98_2:
	.loc	20 0 17 is_stmt 0
	movq	80(%rsp), %rax
Ltmp330:
	.loc	20 484 11 is_stmt 1
	addq	120(%rsp), %rax
	movq	88(%rsp), %rcx
	cmpq	%rcx, %rax
	.loc	20 484 5 is_stmt 0
	jbe	LBB98_4
	.loc	20 0 5
	movq	88(%rsp), %rax
	.loc	20 509 8 is_stmt 1
	cmpq	%rax, 120(%rsp)
	.loc	20 509 5 is_stmt 0
	jb	LBB98_13
	jmp	LBB98_12
LBB98_4:
	.loc	20 0 5
	leaq	128(%rsp), %rax
	movq	%rax, 304(%rsp)
	movq	%rax, 312(%rsp)
Ltmp331:
	.loc	20 488 17 is_stmt 1
	leaq	128(%rsp), %rax
	movq	%rax, 240(%rsp)
Ltmp332:
	.loc	20 497 27
	movq	120(%rsp), %rsi
	movq	104(%rsp), %rdi
	movq	%rax, 72(%rsp)
	.loc	20 497 21 is_stmt 0
	callq	__ZN4core3ptr7mut_ptr31_$LT$impl$u20$$BP$mut$u20$T$GT$3add17hc43db428640174c6E
	movq	%rax, 248(%rsp)
	movq	%rax, 64(%rsp)
Ltmp333:
	.loc	20 498 27 is_stmt 1
	movq	120(%rsp), %rsi
	movq	96(%rsp), %rdi
	.loc	20 498 21 is_stmt 0
	callq	__ZN4core3ptr7mut_ptr31_$LT$impl$u20$$BP$mut$u20$T$GT$3add17hc43db428640174c6E
	movq	%rax, 256(%rsp)
	movq	%rax, 56(%rsp)
	.loc	20 0 21
	movq	64(%rsp), %rdi
	movq	72(%rsp), %rsi
	movq	80(%rsp), %rdx
Ltmp334:
	.loc	20 502 13 is_stmt 1
	callq	__ZN4core10intrinsics19copy_nonoverlapping17h0c0cb4f9abf4d761E
	.loc	20 0 13 is_stmt 0
	movq	56(%rsp), %rdi
	movq	64(%rsp), %rsi
	movq	80(%rsp), %rdx
	.loc	20 503 13 is_stmt 1
	callq	__ZN4core10intrinsics19copy_nonoverlapping17h0c0cb4f9abf4d761E
	.loc	20 0 13 is_stmt 0
	movq	72(%rsp), %rdi
	movq	56(%rsp), %rsi
	movq	80(%rsp), %rdx
	.loc	20 504 13 is_stmt 1
	callq	__ZN4core10intrinsics19copy_nonoverlapping17h0c0cb4f9abf4d761E
Ltmp335:
	.loc	20 0 13 is_stmt 0
	movq	80(%rsp), %rax
	.loc	20 506 9 is_stmt 1
	addq	120(%rsp), %rax
	movq	%rax, 120(%rsp)
Ltmp336:
	.loc	20 484 5
	jmp	LBB98_2
LBB98_12:
	.loc	20 509 5
	jmp	LBB98_21
LBB98_13:
	.loc	20 0 5 is_stmt 0
	movq	88(%rsp), %rax
Ltmp337:
	.loc	20 512 19 is_stmt 1
	subq	120(%rsp), %rax
	movq	%rax, 264(%rsp)
	leaq	176(%rsp), %rcx
	movq	%rcx, 320(%rsp)
	movq	%rcx, 328(%rsp)
	movq	%rax, 48(%rsp)
	movq	%rcx, 40(%rsp)
	.loc	20 0 19 is_stmt 0
	movq	40(%rsp), %rax
Ltmp338:
	.loc	20 514 17 is_stmt 1
	movq	%rax, 272(%rsp)
Ltmp339:
	.loc	20 518 27
	movq	120(%rsp), %rsi
	movq	104(%rsp), %rdi
	movq	%rax, 32(%rsp)
	.loc	20 518 21 is_stmt 0
	callq	__ZN4core3ptr7mut_ptr31_$LT$impl$u20$$BP$mut$u20$T$GT$3add17hc43db428640174c6E
	movq	%rax, 280(%rsp)
	movq	%rax, 24(%rsp)
Ltmp340:
	.loc	20 519 27 is_stmt 1
	movq	120(%rsp), %rsi
	movq	96(%rsp), %rdi
	.loc	20 519 21 is_stmt 0
	callq	__ZN4core3ptr7mut_ptr31_$LT$impl$u20$$BP$mut$u20$T$GT$3add17hc43db428640174c6E
	movq	%rax, 288(%rsp)
	movq	%rax, 16(%rsp)
	.loc	20 0 21
	movq	24(%rsp), %rdi
	movq	32(%rsp), %rsi
	movq	48(%rsp), %rdx
Ltmp341:
	.loc	20 521 13 is_stmt 1
	callq	__ZN4core10intrinsics19copy_nonoverlapping17h0c0cb4f9abf4d761E
	.loc	20 0 13 is_stmt 0
	movq	16(%rsp), %rdi
	movq	24(%rsp), %rsi
	movq	48(%rsp), %rdx
	.loc	20 522 13 is_stmt 1
	callq	__ZN4core10intrinsics19copy_nonoverlapping17h0c0cb4f9abf4d761E
	.loc	20 0 13 is_stmt 0
	movq	32(%rsp), %rdi
	movq	16(%rsp), %rsi
	movq	48(%rsp), %rdx
	.loc	20 523 13 is_stmt 1
	callq	__ZN4core10intrinsics19copy_nonoverlapping17h0c0cb4f9abf4d761E
Ltmp342:
	.loc	20 509 5
	jmp	LBB98_21
Ltmp343:
LBB98_21:
	.loc	20 526 2
	movq	%rbp, %rsp
	popq	%rbp
	retq
Ltmp344:
Lfunc_end98:
	.cfi_endproc

	.p2align	4, 0x90
__ZN4core3ptr4read17h2dcdce072b9e2e2fE:
Lfunc_begin99:
	.loc	20 692 0
	.cfi_startproc
	pushq	%rbp
	.cfi_def_cfa_offset 16
	.cfi_offset %rbp, -16
	movq	%rsp, %rbp
	.cfi_def_cfa_register %rbp
	subq	$128, %rsp
	movq	%rdi, -72(%rbp)
Ltmp345:
	.file	21 "/rustc/6c8927b0cf80ceee19386026cf9d7fd4fd9d486f/src/libcore/mem/maybe_uninit.rs"
	.loc	21 272 6 prologue_end
	movq	-64(%rbp), %rax
	movq	-56(%rbp), %rcx
Ltmp346:
	.loc	20 694 19
	movq	%rcx, -80(%rbp)
	movq	%rax, -88(%rbp)
	movq	%rdi, -96(%rbp)
	.loc	20 0 19 is_stmt 0
	leaq	-88(%rbp), %rax
	movq	%rax, -16(%rbp)
	movq	%rax, -8(%rbp)
	movq	%rax, -104(%rbp)
	movq	-96(%rbp), %rdi
	movq	-104(%rbp), %rsi
Ltmp347:
	.loc	20 702 9 is_stmt 1
	movl	$1, %edx
	callq	__ZN4core10intrinsics19copy_nonoverlapping17he3e000198841d243E
	.loc	20 703 9
	movq	-88(%rbp), %rax
	movq	-80(%rbp), %rcx
	movq	%rax, -48(%rbp)
	movq	%rcx, -40(%rbp)
	movq	%rax, -32(%rbp)
	movq	%rcx, -24(%rbp)
	movq	%rax, -112(%rbp)
	movq	%rcx, -120(%rbp)
Ltmp348:
	.loc	20 0 9 is_stmt 0
	movq	-112(%rbp), %rax
	movq	-120(%rbp), %rdx
	.loc	20 705 2 is_stmt 1
	addq	$128, %rsp
	popq	%rbp
	retq
Ltmp349:
Lfunc_end99:
	.cfi_endproc

	.p2align	4, 0x90
__ZN4core3ptr4read17h5d5c4f01e2f4980dE:
Lfunc_begin100:
	.loc	20 692 0
	.cfi_startproc
	pushq	%rbp
	.cfi_def_cfa_offset 16
	.cfi_offset %rbp, -16
	movq	%rsp, %rbp
	.cfi_def_cfa_register %rbp
	subq	$128, %rsp
	movq	%rdi, %rax
	movq	%rsi, -48(%rbp)
	movq	%rsi, -104(%rbp)
	movq	%rdi, -112(%rbp)
	movq	%rax, -120(%rbp)
	leaq	-96(%rbp), %rax
	movq	%rax, -16(%rbp)
	movq	%rax, -8(%rbp)
	movq	%rax, -128(%rbp)
	movq	-104(%rbp), %rdi
	movq	-128(%rbp), %rsi
Ltmp350:
	.loc	20 702 9 prologue_end
	movl	$1, %edx
	callq	__ZN4core10intrinsics19copy_nonoverlapping17h3ae2d0627bc235f1E
	.loc	20 703 9
	movq	-96(%rbp), %rax
	movq	%rax, -72(%rbp)
	movq	-88(%rbp), %rax
	movq	%rax, -64(%rbp)
	movq	-80(%rbp), %rax
	movq	%rax, -56(%rbp)
Ltmp351:
	.loc	21 501 38
	movq	-72(%rbp), %rax
	movq	%rax, -40(%rbp)
	movq	-64(%rbp), %rax
	movq	%rax, -32(%rbp)
	movq	-56(%rbp), %rax
	movq	%rax, -24(%rbp)
Ltmp352:
	.loc	5 101 9
	movq	-40(%rbp), %rax
	movq	-112(%rbp), %rcx
	movq	%rax, (%rcx)
	movq	-32(%rbp), %rax
	movq	%rax, 8(%rcx)
	movq	-24(%rbp), %rax
	movq	%rax, 16(%rcx)
Ltmp353:
	.loc	5 0 9 is_stmt 0
	movq	-120(%rbp), %rax
	.loc	20 705 2 is_stmt 1
	addq	$128, %rsp
	popq	%rbp
	retq
Ltmp354:
Lfunc_end100:
	.cfi_endproc

	.p2align	4, 0x90
__ZN4core3ptr4read17h910b99ae17a69c89E:
Lfunc_begin101:
	.loc	20 692 0
	.cfi_startproc
	pushq	%rbp
	.cfi_def_cfa_offset 16
	.cfi_offset %rbp, -16
	movq	%rsp, %rbp
	.cfi_def_cfa_register %rbp
	subq	$160, %rsp
	movq	%rdi, %rax
	movq	%rsi, -56(%rbp)
	movq	%rsi, -128(%rbp)
	movq	%rdi, -136(%rbp)
	movq	%rax, -144(%rbp)
	leaq	-120(%rbp), %rax
	movq	%rax, -16(%rbp)
	movq	%rax, -8(%rbp)
	movq	%rax, -152(%rbp)
	movq	-128(%rbp), %rdi
	movq	-152(%rbp), %rsi
Ltmp355:
	.loc	20 702 9 prologue_end
	movl	$1, %edx
	callq	__ZN4core10intrinsics19copy_nonoverlapping17h343197de03efd43eE
	.loc	20 703 9
	movq	-120(%rbp), %rax
	movq	%rax, -88(%rbp)
	movq	-112(%rbp), %rax
	movq	%rax, -80(%rbp)
	movq	-104(%rbp), %rax
	movq	%rax, -72(%rbp)
	movq	-96(%rbp), %rax
	movq	%rax, -64(%rbp)
Ltmp356:
	.loc	21 501 38
	movq	-88(%rbp), %rax
	movq	%rax, -48(%rbp)
	movq	-80(%rbp), %rax
	movq	%rax, -40(%rbp)
	movq	-72(%rbp), %rax
	movq	%rax, -32(%rbp)
	movq	-64(%rbp), %rax
	movq	%rax, -24(%rbp)
Ltmp357:
	.loc	5 101 9
	movq	-48(%rbp), %rax
	movq	-136(%rbp), %rcx
	movq	%rax, (%rcx)
	movq	-40(%rbp), %rax
	movq	%rax, 8(%rcx)
	movq	-32(%rbp), %rax
	movq	%rax, 16(%rcx)
	movq	-24(%rbp), %rax
	movq	%rax, 24(%rcx)
Ltmp358:
	.loc	5 0 9 is_stmt 0
	movq	-144(%rbp), %rax
	.loc	20 705 2 is_stmt 1
	addq	$160, %rsp
	popq	%rbp
	retq
Ltmp359:
Lfunc_end101:
	.cfi_endproc

	.p2align	4, 0x90
__ZN4core3ptr4read17hb99bef9ff067f558E:
Lfunc_begin102:
	.loc	20 692 0
	.cfi_startproc
	pushq	%rbp
	.cfi_def_cfa_offset 16
	.cfi_offset %rbp, -16
	movq	%rsp, %rbp
	.cfi_def_cfa_register %rbp
	subq	$160, %rsp
	movq	%rdi, %rax
	movq	%rsi, -56(%rbp)
	movq	%rsi, -128(%rbp)
	movq	%rdi, -136(%rbp)
	movq	%rax, -144(%rbp)
	leaq	-120(%rbp), %rax
	movq	%rax, -16(%rbp)
	movq	%rax, -8(%rbp)
	movq	%rax, -152(%rbp)
	movq	-128(%rbp), %rdi
	movq	-152(%rbp), %rsi
Ltmp360:
	.loc	20 702 9 prologue_end
	movl	$1, %edx
	callq	__ZN4core10intrinsics19copy_nonoverlapping17hba59a36f647a70c9E
	.loc	20 703 9
	movq	-120(%rbp), %rax
	movq	%rax, -88(%rbp)
	movq	-112(%rbp), %rax
	movq	%rax, -80(%rbp)
	movq	-104(%rbp), %rax
	movq	%rax, -72(%rbp)
	movq	-96(%rbp), %rax
	movq	%rax, -64(%rbp)
Ltmp361:
	.loc	21 501 38
	movq	-88(%rbp), %rax
	movq	%rax, -48(%rbp)
	movq	-80(%rbp), %rax
	movq	%rax, -40(%rbp)
	movq	-72(%rbp), %rax
	movq	%rax, -32(%rbp)
	movq	-64(%rbp), %rax
	movq	%rax, -24(%rbp)
Ltmp362:
	.loc	5 101 9
	movq	-48(%rbp), %rax
	movq	-136(%rbp), %rcx
	movq	%rax, (%rcx)
	movq	-40(%rbp), %rax
	movq	%rax, 8(%rcx)
	movq	-32(%rbp), %rax
	movq	%rax, 16(%rcx)
	movq	-24(%rbp), %rax
	movq	%rax, 24(%rcx)
Ltmp363:
	.loc	5 0 9 is_stmt 0
	movq	-144(%rbp), %rax
	.loc	20 705 2 is_stmt 1
	addq	$160, %rsp
	popq	%rbp
	retq
Ltmp364:
Lfunc_end102:
	.cfi_endproc

	.p2align	4, 0x90
__ZN4core3ptr4read17hd4ac4093818193e1E:
Lfunc_begin103:
	.loc	20 692 0
	.cfi_startproc
	pushq	%rbp
	.cfi_def_cfa_offset 16
	.cfi_offset %rbp, -16
	movq	%rsp, %rbp
	.cfi_def_cfa_register %rbp
	subq	$128, %rsp
	movq	%rdi, %rax
	movq	%rsi, -48(%rbp)
	movq	%rsi, -104(%rbp)
	movq	%rdi, -112(%rbp)
	movq	%rax, -120(%rbp)
	leaq	-96(%rbp), %rax
	movq	%rax, -16(%rbp)
	movq	%rax, -8(%rbp)
	movq	%rax, -128(%rbp)
	movq	-104(%rbp), %rdi
	movq	-128(%rbp), %rsi
Ltmp365:
	.loc	20 702 9 prologue_end
	movl	$1, %edx
	callq	__ZN4core10intrinsics19copy_nonoverlapping17h1d5131aeb0824077E
	.loc	20 703 9
	movq	-96(%rbp), %rax
	movq	%rax, -72(%rbp)
	movq	-88(%rbp), %rax
	movq	%rax, -64(%rbp)
	movq	-80(%rbp), %rax
	movq	%rax, -56(%rbp)
Ltmp366:
	.loc	21 501 38
	movq	-72(%rbp), %rax
	movq	%rax, -40(%rbp)
	movq	-64(%rbp), %rax
	movq	%rax, -32(%rbp)
	movq	-56(%rbp), %rax
	movq	%rax, -24(%rbp)
Ltmp367:
	.loc	5 101 9
	movq	-40(%rbp), %rax
	movq	-112(%rbp), %rcx
	movq	%rax, (%rcx)
	movq	-32(%rbp), %rax
	movq	%rax, 8(%rcx)
	movq	-24(%rbp), %rax
	movq	%rax, 16(%rcx)
Ltmp368:
	.loc	5 0 9 is_stmt 0
	movq	-120(%rbp), %rax
	.loc	20 705 2 is_stmt 1
	addq	$128, %rsp
	popq	%rbp
	retq
Ltmp369:
Lfunc_end103:
	.cfi_endproc

	.p2align	4, 0x90
__ZN4core3ptr4read17hd7a071143c293637E:
Lfunc_begin104:
	.loc	20 692 0
	.cfi_startproc
	pushq	%rbp
	.cfi_def_cfa_offset 16
	.cfi_offset %rbp, -16
	movq	%rsp, %rbp
	.cfi_def_cfa_register %rbp
	subq	$128, %rsp
	movq	%rdi, %rax
	movq	%rsi, -48(%rbp)
	movq	%rsi, -104(%rbp)
	movq	%rdi, -112(%rbp)
	movq	%rax, -120(%rbp)
	leaq	-96(%rbp), %rax
	movq	%rax, -16(%rbp)
	movq	%rax, -8(%rbp)
	movq	%rax, -128(%rbp)
	movq	-104(%rbp), %rdi
	movq	-128(%rbp), %rsi
Ltmp370:
	.loc	20 702 9 prologue_end
	movl	$1, %edx
	callq	__ZN4core10intrinsics19copy_nonoverlapping17h51f62261236b82c1E
	.loc	20 703 9
	movq	-96(%rbp), %rax
	movq	%rax, -72(%rbp)
	movq	-88(%rbp), %rax
	movq	%rax, -64(%rbp)
	movq	-80(%rbp), %rax
	movq	%rax, -56(%rbp)
Ltmp371:
	.loc	21 501 38
	movq	-72(%rbp), %rax
	movq	%rax, -40(%rbp)
	movq	-64(%rbp), %rax
	movq	%rax, -32(%rbp)
	movq	-56(%rbp), %rax
	movq	%rax, -24(%rbp)
Ltmp372:
	.loc	5 101 9
	movq	-40(%rbp), %rax
	movq	-112(%rbp), %rcx
	movq	%rax, (%rcx)
	movq	-32(%rbp), %rax
	movq	%rax, 8(%rcx)
	movq	-24(%rbp), %rax
	movq	%rax, 16(%rcx)
Ltmp373:
	.loc	5 0 9 is_stmt 0
	movq	-120(%rbp), %rax
	.loc	20 705 2 is_stmt 1
	addq	$128, %rsp
	popq	%rbp
	retq
Ltmp374:
Lfunc_end104:
	.cfi_endproc

	.p2align	4, 0x90
__ZN4core3ptr4read17he7792ccb79337bd9E:
Lfunc_begin105:
	.loc	20 692 0
	.cfi_startproc
	pushq	%rbp
	.cfi_def_cfa_offset 16
	.cfi_offset %rbp, -16
	movq	%rsp, %rbp
	.cfi_def_cfa_register %rbp
	subq	$128, %rsp
	movq	%rdi, %rax
	movq	%rsi, -48(%rbp)
	movq	%rsi, -104(%rbp)
	movq	%rdi, -112(%rbp)
	movq	%rax, -120(%rbp)
	leaq	-96(%rbp), %rax
	movq	%rax, -16(%rbp)
	movq	%rax, -8(%rbp)
	movq	%rax, -128(%rbp)
	movq	-104(%rbp), %rdi
	movq	-128(%rbp), %rsi
Ltmp375:
	.loc	20 702 9 prologue_end
	movl	$1, %edx
	callq	__ZN4core10intrinsics19copy_nonoverlapping17h0e0ce874199e7b6bE
	.loc	20 703 9
	movq	-96(%rbp), %rax
	movq	%rax, -72(%rbp)
	movq	-88(%rbp), %rax
	movq	%rax, -64(%rbp)
	movq	-80(%rbp), %rax
	movq	%rax, -56(%rbp)
Ltmp376:
	.loc	21 501 38
	movq	-72(%rbp), %rax
	movq	%rax, -40(%rbp)
	movq	-64(%rbp), %rax
	movq	%rax, -32(%rbp)
	movq	-56(%rbp), %rax
	movq	%rax, -24(%rbp)
Ltmp377:
	.loc	5 101 9
	movq	-40(%rbp), %rax
	movq	-112(%rbp), %rcx
	movq	%rax, (%rcx)
	movq	-32(%rbp), %rax
	movq	%rax, 8(%rcx)
	movq	-24(%rbp), %rax
	movq	%rax, 16(%rcx)
Ltmp378:
	.loc	5 0 9 is_stmt 0
	movq	-120(%rbp), %rax
	.loc	20 705 2 is_stmt 1
	addq	$128, %rsp
	popq	%rbp
	retq
Ltmp379:
Lfunc_end105:
	.cfi_endproc

	.p2align	4, 0x90
__ZN4core3ptr4read17he7a770eafb483898E:
Lfunc_begin106:
	.loc	20 692 0
	.cfi_startproc
	pushq	%rbp
	.cfi_def_cfa_offset 16
	.cfi_offset %rbp, -16
	movq	%rsp, %rbp
	.cfi_def_cfa_register %rbp
	subq	$128, %rsp
	movq	%rdi, %rax
	movq	%rsi, -48(%rbp)
	movq	%rsi, -104(%rbp)
	movq	%rdi, -112(%rbp)
	movq	%rax, -120(%rbp)
	leaq	-96(%rbp), %rax
	movq	%rax, -16(%rbp)
	movq	%rax, -8(%rbp)
	movq	%rax, -128(%rbp)
	movq	-104(%rbp), %rdi
	movq	-128(%rbp), %rsi
Ltmp380:
	.loc	20 702 9 prologue_end
	movl	$1, %edx
	callq	__ZN4core10intrinsics19copy_nonoverlapping17haff8d83086b0bb13E
	.loc	20 703 9
	movq	-96(%rbp), %rax
	movq	%rax, -72(%rbp)
	movq	-88(%rbp), %rax
	movq	%rax, -64(%rbp)
	movq	-80(%rbp), %rax
	movq	%rax, -56(%rbp)
Ltmp381:
	.loc	21 501 38
	movq	-72(%rbp), %rax
	movq	%rax, -40(%rbp)
	movq	-64(%rbp), %rax
	movq	%rax, -32(%rbp)
	movq	-56(%rbp), %rax
	movq	%rax, -24(%rbp)
Ltmp382:
	.loc	5 101 9
	movq	-40(%rbp), %rax
	movq	-112(%rbp), %rcx
	movq	%rax, (%rcx)
	movq	-32(%rbp), %rax
	movq	%rax, 8(%rcx)
	movq	-24(%rbp), %rax
	movq	%rax, 16(%rcx)
Ltmp383:
	.loc	5 0 9 is_stmt 0
	movq	-120(%rbp), %rax
	.loc	20 705 2 is_stmt 1
	addq	$128, %rsp
	popq	%rbp
	retq
Ltmp384:
Lfunc_end106:
	.cfi_endproc

	.p2align	4, 0x90
__ZN4core3ptr5write17h9424a8ea3cef9894E:
Lfunc_begin107:
	.loc	20 895 0
	.cfi_startproc
	pushq	%rbp
	.cfi_def_cfa_offset 16
	.cfi_offset %rbp, -16
	movq	%rsp, %rbp
	.cfi_def_cfa_register %rbp
	subq	$16, %rsp
	movq	%rdi, -8(%rbp)
Ltmp385:
	.loc	20 901 51 prologue_end
	movq	(%rsi), %rax
	movq	%rax, (%rdi)
	movq	8(%rsi), %rax
	movq	%rax, 8(%rdi)
	movq	16(%rsi), %rax
	movq	%rax, 16(%rdi)
	movq	24(%rsi), %rax
	movq	%rax, 24(%rdi)
	.loc	20 902 2
	addq	$16, %rsp
	popq	%rbp
	retq
Ltmp386:
Lfunc_end107:
	.cfi_endproc

	.p2align	4, 0x90
__ZN4core3ptr5write17hedc9e5dab0ff3cfbE:
Lfunc_begin108:
	.loc	20 895 0
	.cfi_startproc
	pushq	%rbp
	.cfi_def_cfa_offset 16
	.cfi_offset %rbp, -16
	movq	%rsp, %rbp
	.cfi_def_cfa_register %rbp
	subq	$32, %rsp
	movq	%rdi, -24(%rbp)
	movq	%rsi, -16(%rbp)
	movq	%rdx, -8(%rbp)
Ltmp387:
	.loc	20 901 51 prologue_end
	movq	%rsi, (%rdi)
	movq	%rdx, 8(%rdi)
	.loc	20 902 2
	addq	$32, %rsp
	popq	%rbp
	retq
Ltmp388:
Lfunc_end108:
	.cfi_endproc

	.p2align	4, 0x90
__ZN4core3ptr6unique15Unique$LT$T$GT$13new_unchecked17h117c427491a8506eE:
Lfunc_begin109:
	.file	22 "/rustc/6c8927b0cf80ceee19386026cf9d7fd4fd9d486f/src/libcore/ptr/unique.rs"
	.loc	22 89 0
	.cfi_startproc
	pushq	%rbp
	.cfi_def_cfa_offset 16
	.cfi_offset %rbp, -16
	movq	%rsp, %rbp
	.cfi_def_cfa_register %rbp
	subq	$24, %rsp
	movq	%rdi, -8(%rbp)
Ltmp389:
	.loc	22 91 18 prologue_end
	movq	%rdi, -24(%rbp)
	.loc	22 92 6
	movq	-24(%rbp), %rax
	addq	$24, %rsp
	popq	%rbp
	retq
Ltmp390:
Lfunc_end109:
	.cfi_endproc

	.p2align	4, 0x90
__ZN4core3ptr6unique15Unique$LT$T$GT$4cast17h0f460515f11c8214E:
Lfunc_begin110:
	.loc	22 137 0
	.cfi_startproc
	pushq	%rbp
	.cfi_def_cfa_offset 16
	.cfi_offset %rbp, -16
	movq	%rsp, %rbp
	.cfi_def_cfa_register %rbp
	subq	$32, %rsp
	movq	%rdi, -8(%rbp)
Ltmp391:
	.loc	22 141 40 prologue_end
	callq	__ZN4core3ptr6unique15Unique$LT$T$GT$6as_ptr17h0dc5ee48c3104fe9E
	movq	%rax, -16(%rbp)
	.loc	22 0 40 is_stmt 0
	movq	-16(%rbp), %rdi
	.loc	22 141 18
	callq	__ZN4core3ptr6unique15Unique$LT$T$GT$13new_unchecked17h117c427491a8506eE
	movq	%rax, -24(%rbp)
	.loc	22 0 18
	movq	-24(%rbp), %rax
	.loc	22 142 6 is_stmt 1
	addq	$32, %rsp
	popq	%rbp
	retq
Ltmp392:
Lfunc_end110:
	.cfi_endproc

	.p2align	4, 0x90
__ZN4core3ptr6unique15Unique$LT$T$GT$4cast17h3ba2ca81ba8b4999E:
Lfunc_begin111:
	.loc	22 137 0
	.cfi_startproc
	pushq	%rbp
	.cfi_def_cfa_offset 16
	.cfi_offset %rbp, -16
	movq	%rsp, %rbp
	.cfi_def_cfa_register %rbp
	subq	$32, %rsp
	movq	%rdi, -8(%rbp)
Ltmp393:
	.loc	22 141 40 prologue_end
	callq	__ZN4core3ptr6unique15Unique$LT$T$GT$6as_ptr17he8e387909f5118b3E
	movq	%rax, -16(%rbp)
	.loc	22 0 40 is_stmt 0
	movq	-16(%rbp), %rax
	.loc	22 141 18
	movq	%rax, %rdi
	callq	__ZN4core3ptr6unique15Unique$LT$T$GT$13new_unchecked17h117c427491a8506eE
	movq	%rax, -24(%rbp)
	.loc	22 0 18
	movq	-24(%rbp), %rax
	.loc	22 142 6 is_stmt 1
	addq	$32, %rsp
	popq	%rbp
	retq
Ltmp394:
Lfunc_end111:
	.cfi_endproc

	.p2align	4, 0x90
__ZN4core3ptr6unique15Unique$LT$T$GT$4cast17h57f8bf57be407163E:
Lfunc_begin112:
	.loc	22 137 0
	.cfi_startproc
	pushq	%rbp
	.cfi_def_cfa_offset 16
	.cfi_offset %rbp, -16
	movq	%rsp, %rbp
	.cfi_def_cfa_register %rbp
	subq	$32, %rsp
	movq	%rdi, -16(%rbp)
	movq	%rsi, -8(%rbp)
Ltmp395:
	.loc	22 141 40 prologue_end
	callq	__ZN4core3ptr6unique15Unique$LT$T$GT$6as_ptr17h7c3a90d4aa3ef142E
	movq	%rax, -24(%rbp)
	.loc	22 0 40 is_stmt 0
	movq	-24(%rbp), %rax
	.loc	22 141 18
	movq	%rax, %rdi
	callq	__ZN4core3ptr6unique15Unique$LT$T$GT$13new_unchecked17h117c427491a8506eE
	movq	%rax, -32(%rbp)
	.loc	22 0 18
	movq	-32(%rbp), %rax
	.loc	22 142 6 is_stmt 1
	addq	$32, %rsp
	popq	%rbp
	retq
Ltmp396:
Lfunc_end112:
	.cfi_endproc

	.p2align	4, 0x90
__ZN4core3ptr6unique15Unique$LT$T$GT$4cast17ha24737c7758c2ef6E:
Lfunc_begin113:
	.loc	22 137 0
	.cfi_startproc
	pushq	%rbp
	.cfi_def_cfa_offset 16
	.cfi_offset %rbp, -16
	movq	%rsp, %rbp
	.cfi_def_cfa_register %rbp
	subq	$32, %rsp
	movq	%rdi, -8(%rbp)
Ltmp397:
	.loc	22 141 40 prologue_end
	callq	__ZN4core3ptr6unique15Unique$LT$T$GT$6as_ptr17h846d039b4fb005d8E
	movq	%rax, -16(%rbp)
	.loc	22 0 40 is_stmt 0
	movq	-16(%rbp), %rax
	.loc	22 141 18
	movq	%rax, %rdi
	callq	__ZN4core3ptr6unique15Unique$LT$T$GT$13new_unchecked17h117c427491a8506eE
	movq	%rax, -24(%rbp)
	.loc	22 0 18
	movq	-24(%rbp), %rax
	.loc	22 142 6 is_stmt 1
	addq	$32, %rsp
	popq	%rbp
	retq
Ltmp398:
Lfunc_end113:
	.cfi_endproc

	.p2align	4, 0x90
__ZN4core3ptr6unique15Unique$LT$T$GT$4cast17hccf82650591e034bE:
Lfunc_begin114:
	.loc	22 137 0
	.cfi_startproc
	pushq	%rbp
	.cfi_def_cfa_offset 16
	.cfi_offset %rbp, -16
	movq	%rsp, %rbp
	.cfi_def_cfa_register %rbp
	subq	$32, %rsp
	movq	%rdi, -8(%rbp)
Ltmp399:
	.loc	22 141 40 prologue_end
	callq	__ZN4core3ptr6unique15Unique$LT$T$GT$6as_ptr17h01a1b9f5ddd32154E
	movq	%rax, -16(%rbp)
	.loc	22 0 40 is_stmt 0
	movq	-16(%rbp), %rax
	.loc	22 141 18
	movq	%rax, %rdi
	callq	__ZN4core3ptr6unique15Unique$LT$T$GT$13new_unchecked17h117c427491a8506eE
	movq	%rax, -24(%rbp)
	.loc	22 0 18
	movq	-24(%rbp), %rax
	.loc	22 142 6 is_stmt 1
	addq	$32, %rsp
	popq	%rbp
	retq
Ltmp400:
Lfunc_end114:
	.cfi_endproc

	.p2align	4, 0x90
__ZN4core3ptr6unique15Unique$LT$T$GT$4cast17hd4673b0e75598e11E:
Lfunc_begin115:
	.loc	22 137 0
	.cfi_startproc
	pushq	%rbp
	.cfi_def_cfa_offset 16
	.cfi_offset %rbp, -16
	movq	%rsp, %rbp
	.cfi_def_cfa_register %rbp
	subq	$32, %rsp
	movq	%rdi, -8(%rbp)
Ltmp401:
	.loc	22 141 40 prologue_end
	callq	__ZN4core3ptr6unique15Unique$LT$T$GT$6as_ptr17h47cf83751595dbeaE
	movq	%rax, -16(%rbp)
	.loc	22 0 40 is_stmt 0
	movq	-16(%rbp), %rax
	.loc	22 141 18
	movq	%rax, %rdi
	callq	__ZN4core3ptr6unique15Unique$LT$T$GT$13new_unchecked17h117c427491a8506eE
	movq	%rax, -24(%rbp)
	.loc	22 0 18
	movq	-24(%rbp), %rax
	.loc	22 142 6 is_stmt 1
	addq	$32, %rsp
	popq	%rbp
	retq
Ltmp402:
Lfunc_end115:
	.cfi_endproc

	.p2align	4, 0x90
__ZN4core3ptr6unique15Unique$LT$T$GT$4cast17hf5148ef229b84e60E:
Lfunc_begin116:
	.loc	22 137 0
	.cfi_startproc
	pushq	%rbp
	.cfi_def_cfa_offset 16
	.cfi_offset %rbp, -16
	movq	%rsp, %rbp
	.cfi_def_cfa_register %rbp
	subq	$32, %rsp
	movq	%rdi, -16(%rbp)
	movq	%rsi, -8(%rbp)
Ltmp403:
	.loc	22 141 40 prologue_end
	callq	__ZN4core3ptr6unique15Unique$LT$T$GT$6as_ptr17h99cef33bdb7ecd0cE
	movq	%rax, -24(%rbp)
	.loc	22 0 40 is_stmt 0
	movq	-24(%rbp), %rax
	.loc	22 141 18
	movq	%rax, %rdi
	callq	__ZN4core3ptr6unique15Unique$LT$T$GT$13new_unchecked17h117c427491a8506eE
	movq	%rax, -32(%rbp)
	.loc	22 0 18
	movq	-32(%rbp), %rax
	.loc	22 142 6 is_stmt 1
	addq	$32, %rsp
	popq	%rbp
	retq
Ltmp404:
Lfunc_end116:
	.cfi_endproc

	.p2align	4, 0x90
__ZN4core3ptr6unique15Unique$LT$T$GT$4cast17hf58d603d5dc0beb9E:
Lfunc_begin117:
	.loc	22 137 0
	.cfi_startproc
	pushq	%rbp
	.cfi_def_cfa_offset 16
	.cfi_offset %rbp, -16
	movq	%rsp, %rbp
	.cfi_def_cfa_register %rbp
	subq	$32, %rsp
	movq	%rdi, -16(%rbp)
	movq	%rsi, -8(%rbp)
Ltmp405:
	.loc	22 141 40 prologue_end
	callq	__ZN4core3ptr6unique15Unique$LT$T$GT$6as_ptr17h2b539ed9e6ab6270E
	movq	%rax, -24(%rbp)
	.loc	22 0 40 is_stmt 0
	movq	-24(%rbp), %rax
	.loc	22 141 18
	movq	%rax, %rdi
	callq	__ZN4core3ptr6unique15Unique$LT$T$GT$13new_unchecked17h117c427491a8506eE
	movq	%rax, -32(%rbp)
	.loc	22 0 18
	movq	-32(%rbp), %rax
	.loc	22 142 6 is_stmt 1
	addq	$32, %rsp
	popq	%rbp
	retq
Ltmp406:
Lfunc_end117:
	.cfi_endproc

	.p2align	4, 0x90
__ZN4core3ptr6unique15Unique$LT$T$GT$6as_ptr17h01a1b9f5ddd32154E:
Lfunc_begin118:
	.loc	22 107 0
	.cfi_startproc
	pushq	%rbp
	.cfi_def_cfa_offset 16
	.cfi_offset %rbp, -16
	movq	%rsp, %rbp
	.cfi_def_cfa_register %rbp
	pushq	%rax
	movq	%rdi, -8(%rbp)
Ltmp407:
	.loc	22 109 6 prologue_end
	movq	%rdi, %rax
	addq	$8, %rsp
	popq	%rbp
	retq
Ltmp408:
Lfunc_end118:
	.cfi_endproc

	.p2align	4, 0x90
__ZN4core3ptr6unique15Unique$LT$T$GT$6as_ptr17h0dc5ee48c3104fe9E:
Lfunc_begin119:
	.loc	22 107 0
	.cfi_startproc
	pushq	%rbp
	.cfi_def_cfa_offset 16
	.cfi_offset %rbp, -16
	movq	%rsp, %rbp
	.cfi_def_cfa_register %rbp
	pushq	%rax
	movq	%rdi, -8(%rbp)
Ltmp409:
	.loc	22 109 6 prologue_end
	movq	%rdi, %rax
	addq	$8, %rsp
	popq	%rbp
	retq
Ltmp410:
Lfunc_end119:
	.cfi_endproc

	.p2align	4, 0x90
__ZN4core3ptr6unique15Unique$LT$T$GT$6as_ptr17h2b539ed9e6ab6270E:
Lfunc_begin120:
	.loc	22 107 0
	.cfi_startproc
	pushq	%rbp
	.cfi_def_cfa_offset 16
	.cfi_offset %rbp, -16
	movq	%rsp, %rbp
	.cfi_def_cfa_register %rbp
	subq	$16, %rsp
	movq	%rdi, -16(%rbp)
	movq	%rsi, -8(%rbp)
Ltmp411:
	.loc	22 109 6 prologue_end
	movq	%rdi, %rax
	movq	%rsi, %rdx
	addq	$16, %rsp
	popq	%rbp
	retq
Ltmp412:
Lfunc_end120:
	.cfi_endproc

	.p2align	4, 0x90
__ZN4core3ptr6unique15Unique$LT$T$GT$6as_ptr17h47cf83751595dbeaE:
Lfunc_begin121:
	.loc	22 107 0
	.cfi_startproc
	pushq	%rbp
	.cfi_def_cfa_offset 16
	.cfi_offset %rbp, -16
	movq	%rsp, %rbp
	.cfi_def_cfa_register %rbp
	pushq	%rax
	movq	%rdi, -8(%rbp)
Ltmp413:
	.loc	22 109 6 prologue_end
	movq	%rdi, %rax
	addq	$8, %rsp
	popq	%rbp
	retq
Ltmp414:
Lfunc_end121:
	.cfi_endproc

	.p2align	4, 0x90
__ZN4core3ptr6unique15Unique$LT$T$GT$6as_ptr17h7c3a90d4aa3ef142E:
Lfunc_begin122:
	.loc	22 107 0
	.cfi_startproc
	pushq	%rbp
	.cfi_def_cfa_offset 16
	.cfi_offset %rbp, -16
	movq	%rsp, %rbp
	.cfi_def_cfa_register %rbp
	subq	$16, %rsp
	movq	%rdi, -16(%rbp)
	movq	%rsi, -8(%rbp)
Ltmp415:
	.loc	22 109 6 prologue_end
	movq	%rdi, %rax
	movq	%rsi, %rdx
	addq	$16, %rsp
	popq	%rbp
	retq
Ltmp416:
Lfunc_end122:
	.cfi_endproc

	.p2align	4, 0x90
__ZN4core3ptr6unique15Unique$LT$T$GT$6as_ptr17h846d039b4fb005d8E:
Lfunc_begin123:
	.loc	22 107 0
	.cfi_startproc
	pushq	%rbp
	.cfi_def_cfa_offset 16
	.cfi_offset %rbp, -16
	movq	%rsp, %rbp
	.cfi_def_cfa_register %rbp
	pushq	%rax
	movq	%rdi, -8(%rbp)
Ltmp417:
	.loc	22 109 6 prologue_end
	movq	%rdi, %rax
	addq	$8, %rsp
	popq	%rbp
	retq
Ltmp418:
Lfunc_end123:
	.cfi_endproc

	.p2align	4, 0x90
__ZN4core3ptr6unique15Unique$LT$T$GT$6as_ptr17h99cef33bdb7ecd0cE:
Lfunc_begin124:
	.loc	22 107 0
	.cfi_startproc
	pushq	%rbp
	.cfi_def_cfa_offset 16
	.cfi_offset %rbp, -16
	movq	%rsp, %rbp
	.cfi_def_cfa_register %rbp
	subq	$16, %rsp
	movq	%rdi, -16(%rbp)
	movq	%rsi, -8(%rbp)
Ltmp419:
	.loc	22 109 6 prologue_end
	movq	%rdi, %rax
	movq	%rsi, %rdx
	addq	$16, %rsp
	popq	%rbp
	retq
Ltmp420:
Lfunc_end124:
	.cfi_endproc

	.p2align	4, 0x90
__ZN4core3ptr6unique15Unique$LT$T$GT$6as_ptr17ha059980d508bc501E:
Lfunc_begin125:
	.loc	22 107 0
	.cfi_startproc
	pushq	%rbp
	.cfi_def_cfa_offset 16
	.cfi_offset %rbp, -16
	movq	%rsp, %rbp
	.cfi_def_cfa_register %rbp
	pushq	%rax
	movq	%rdi, -8(%rbp)
Ltmp421:
	.loc	22 109 6 prologue_end
	movq	%rdi, %rax
	addq	$8, %rsp
	popq	%rbp
	retq
Ltmp422:
Lfunc_end125:
	.cfi_endproc

	.p2align	4, 0x90
__ZN4core3ptr6unique15Unique$LT$T$GT$6as_ptr17he8e387909f5118b3E:
Lfunc_begin126:
	.loc	22 107 0
	.cfi_startproc
	pushq	%rbp
	.cfi_def_cfa_offset 16
	.cfi_offset %rbp, -16
	movq	%rsp, %rbp
	.cfi_def_cfa_register %rbp
	pushq	%rax
	movq	%rdi, -8(%rbp)
Ltmp423:
	.loc	22 109 6 prologue_end
	movq	%rdi, %rax
	addq	$8, %rsp
	popq	%rbp
	retq
Ltmp424:
Lfunc_end126:
	.cfi_endproc

	.p2align	4, 0x90
__ZN4core3ptr6unique15Unique$LT$T$GT$6as_ref17h644f968161447156E:
Lfunc_begin127:
	.loc	22 117 0
	.cfi_startproc
	pushq	%rbp
	.cfi_def_cfa_offset 16
	.cfi_offset %rbp, -16
	movq	%rsp, %rbp
	.cfi_def_cfa_register %rbp
	subq	$16, %rsp
	movq	%rdi, -8(%rbp)
Ltmp425:
	.loc	22 120 20 prologue_end
	movq	(%rdi), %rdi
	callq	__ZN4core3ptr6unique15Unique$LT$T$GT$6as_ptr17h01a1b9f5ddd32154E
	movq	%rax, -16(%rbp)
	.loc	22 0 20 is_stmt 0
	movq	-16(%rbp), %rax
	.loc	22 121 6 is_stmt 1
	addq	$16, %rsp
	popq	%rbp
	retq
Ltmp426:
Lfunc_end127:
	.cfi_endproc

	.p2align	4, 0x90
__ZN4core3ptr6unique15Unique$LT$T$GT$6as_ref17h7421803b8469e402E:
Lfunc_begin128:
	.loc	22 117 0
	.cfi_startproc
	pushq	%rbp
	.cfi_def_cfa_offset 16
	.cfi_offset %rbp, -16
	movq	%rsp, %rbp
	.cfi_def_cfa_register %rbp
	subq	$32, %rsp
	movq	%rdi, -8(%rbp)
Ltmp427:
	.loc	22 120 20 prologue_end
	movq	(%rdi), %rax
	movq	8(%rdi), %rsi
	movq	%rax, %rdi
	callq	__ZN4core3ptr6unique15Unique$LT$T$GT$6as_ptr17h2b539ed9e6ab6270E
	movq	%rax, -16(%rbp)
	movq	%rdx, -24(%rbp)
	.loc	22 0 20 is_stmt 0
	movq	-16(%rbp), %rax
	movq	-24(%rbp), %rdx
	.loc	22 121 6 is_stmt 1
	addq	$32, %rsp
	popq	%rbp
	retq
Ltmp428:
Lfunc_end128:
	.cfi_endproc

	.p2align	4, 0x90
__ZN4core3ptr6unique15Unique$LT$T$GT$6as_ref17h7d82828962747ca8E:
Lfunc_begin129:
	.loc	22 117 0
	.cfi_startproc
	pushq	%rbp
	.cfi_def_cfa_offset 16
	.cfi_offset %rbp, -16
	movq	%rsp, %rbp
	.cfi_def_cfa_register %rbp
	subq	$32, %rsp
	movq	%rdi, -8(%rbp)
Ltmp429:
	.loc	22 120 20 prologue_end
	movq	(%rdi), %rax
	movq	8(%rdi), %rsi
	movq	%rax, %rdi
	callq	__ZN4core3ptr6unique15Unique$LT$T$GT$6as_ptr17h99cef33bdb7ecd0cE
	movq	%rax, -16(%rbp)
	movq	%rdx, -24(%rbp)
	.loc	22 0 20 is_stmt 0
	movq	-16(%rbp), %rax
	movq	-24(%rbp), %rdx
	.loc	22 121 6 is_stmt 1
	addq	$32, %rsp
	popq	%rbp
	retq
Ltmp430:
Lfunc_end129:
	.cfi_endproc

	.p2align	4, 0x90
__ZN4core3ptr6unique15Unique$LT$T$GT$6as_ref17hd978b3174342cff1E:
Lfunc_begin130:
	.loc	22 117 0
	.cfi_startproc
	pushq	%rbp
	.cfi_def_cfa_offset 16
	.cfi_offset %rbp, -16
	movq	%rsp, %rbp
	.cfi_def_cfa_register %rbp
	subq	$32, %rsp
	movq	%rdi, -8(%rbp)
Ltmp431:
	.loc	22 120 20 prologue_end
	movq	(%rdi), %rax
	movq	8(%rdi), %rsi
	movq	%rax, %rdi
	callq	__ZN4core3ptr6unique15Unique$LT$T$GT$6as_ptr17h7c3a90d4aa3ef142E
	movq	%rax, -16(%rbp)
	movq	%rdx, -24(%rbp)
	.loc	22 0 20 is_stmt 0
	movq	-16(%rbp), %rax
	movq	-24(%rbp), %rdx
	.loc	22 121 6 is_stmt 1
	addq	$32, %rsp
	popq	%rbp
	retq
Ltmp432:
Lfunc_end130:
	.cfi_endproc

	.p2align	4, 0x90
__ZN4core3ptr7mut_ptr31_$LT$impl$u20$$BP$mut$u20$T$GT$3add17hc43db428640174c6E:
Lfunc_begin131:
	.file	23 "/rustc/6c8927b0cf80ceee19386026cf9d7fd4fd9d486f/src/libcore/ptr/mut_ptr.rs"
	.loc	23 529 0
	.cfi_startproc
	pushq	%rbp
	.cfi_def_cfa_offset 16
	.cfi_offset %rbp, -16
	movq	%rsp, %rbp
	.cfi_def_cfa_register %rbp
	subq	$32, %rsp
	movq	%rdi, -16(%rbp)
	movq	%rsi, -8(%rbp)
Ltmp433:
	.loc	23 534 18 prologue_end
	callq	__ZN4core3ptr7mut_ptr31_$LT$impl$u20$$BP$mut$u20$T$GT$6offset17h1e7774389edc3de1E
	movq	%rax, -24(%rbp)
	.loc	23 0 18 is_stmt 0
	movq	-24(%rbp), %rax
	.loc	23 535 6 is_stmt 1
	addq	$32, %rsp
	popq	%rbp
	retq
Ltmp434:
Lfunc_end131:
	.cfi_endproc

	.p2align	4, 0x90
__ZN4core3ptr7mut_ptr31_$LT$impl$u20$$BP$mut$u20$T$GT$6offset17h1e7774389edc3de1E:
Lfunc_begin132:
	.loc	23 158 0
	.cfi_startproc
	pushq	%rbp
	.cfi_def_cfa_offset 16
	.cfi_offset %rbp, -16
	movq	%rsp, %rbp
	.cfi_def_cfa_register %rbp
	subq	$32, %rsp
	movq	%rdi, -24(%rbp)
	movq	%rsi, -16(%rbp)
Ltmp435:
	.loc	23 165 18 prologue_end
	addq	%rsi, %rdi
	movq	%rdi, -8(%rbp)
	movq	-8(%rbp), %rax
	movq	%rax, -32(%rbp)
	.loc	23 0 18 is_stmt 0
	movq	-32(%rbp), %rax
	.loc	23 166 6 is_stmt 1
	addq	$32, %rsp
	popq	%rbp
	retq
Ltmp436:
Lfunc_end132:
	.cfi_endproc

	.p2align	4, 0x90
__ZN4core3ptr7mut_ptr31_$LT$impl$u20$$BP$mut$u20$T$GT$7is_null17h4a9df7567dee323eE:
Lfunc_begin133:
	.loc	23 26 0
	.cfi_startproc
	pushq	%rbp
	.cfi_def_cfa_offset 16
	.cfi_offset %rbp, -16
	movq	%rsp, %rbp
	.cfi_def_cfa_register %rbp
	subq	$16, %rsp
	movq	%rdi, -8(%rbp)
	movq	%rdi, -16(%rbp)
	movq	-16(%rbp), %rax
Ltmp437:
	.loc	23 29 9 prologue_end
	cmpq	$0, %rax
	sete	%cl
	.loc	23 30 6
	andb	$1, %cl
	movzbl	%cl, %edx
	movl	%edx, %eax
	addq	$16, %rsp
	popq	%rbp
	retq
Ltmp438:
Lfunc_end133:
	.cfi_endproc

	.p2align	4, 0x90
__ZN4core3ptr7mut_ptr31_$LT$impl$u20$$BP$mut$u20$T$GT$7is_null17h8a4496ed4f9a1f9cE:
Lfunc_begin134:
	.loc	23 26 0
	.cfi_startproc
	pushq	%rbp
	.cfi_def_cfa_offset 16
	.cfi_offset %rbp, -16
	movq	%rsp, %rbp
	.cfi_def_cfa_register %rbp
	subq	$16, %rsp
	movq	%rdi, -8(%rbp)
	movq	%rdi, -16(%rbp)
	movq	-16(%rbp), %rax
Ltmp439:
	.loc	23 29 9 prologue_end
	cmpq	$0, %rax
	sete	%cl
	.loc	23 30 6
	andb	$1, %cl
	movzbl	%cl, %edx
	movl	%edx, %eax
	addq	$16, %rsp
	popq	%rbp
	retq
Ltmp440:
Lfunc_end134:
	.cfi_endproc

	.p2align	4, 0x90
__ZN4core3ptr7mut_ptr31_$LT$impl$u20$$BP$mut$u20$T$GT$7is_null17hb35d24d502159c85E:
Lfunc_begin135:
	.loc	23 26 0
	.cfi_startproc
	pushq	%rbp
	.cfi_def_cfa_offset 16
	.cfi_offset %rbp, -16
	movq	%rsp, %rbp
	.cfi_def_cfa_register %rbp
	subq	$16, %rsp
	movq	%rdi, -8(%rbp)
	movq	%rdi, -16(%rbp)
	movq	-16(%rbp), %rax
Ltmp441:
	.loc	23 29 9 prologue_end
	cmpq	$0, %rax
	sete	%cl
	.loc	23 30 6
	andb	$1, %cl
	movzbl	%cl, %edx
	movl	%edx, %eax
	addq	$16, %rsp
	popq	%rbp
	retq
Ltmp442:
Lfunc_end135:
	.cfi_endproc

	.p2align	4, 0x90
__ZN4core3ptr7mut_ptr31_$LT$impl$u20$$BP$mut$u20$T$GT$7is_null17hcf9c465a9a034e7dE:
Lfunc_begin136:
	.loc	23 26 0
	.cfi_startproc
	pushq	%rbp
	.cfi_def_cfa_offset 16
	.cfi_offset %rbp, -16
	movq	%rsp, %rbp
	.cfi_def_cfa_register %rbp
	subq	$16, %rsp
	movq	%rdi, -8(%rbp)
	movq	%rdi, -16(%rbp)
	movq	-16(%rbp), %rax
Ltmp443:
	.loc	23 29 9 prologue_end
	cmpq	$0, %rax
	sete	%cl
	.loc	23 30 6
	andb	$1, %cl
	movzbl	%cl, %edx
	movl	%edx, %eax
	addq	$16, %rsp
	popq	%rbp
	retq
Ltmp444:
Lfunc_end136:
	.cfi_endproc

	.p2align	4, 0x90
__ZN4core3ptr7mut_ptr31_$LT$impl$u20$$BP$mut$u20$T$GT$7is_null17hfd0754e1081afcfbE:
Lfunc_begin137:
	.loc	23 26 0
	.cfi_startproc
	pushq	%rbp
	.cfi_def_cfa_offset 16
	.cfi_offset %rbp, -16
	movq	%rsp, %rbp
	.cfi_def_cfa_register %rbp
	subq	$16, %rsp
	movq	%rdi, -8(%rbp)
	movq	%rdi, -16(%rbp)
	movq	-16(%rbp), %rax
Ltmp445:
	.loc	23 29 9 prologue_end
	cmpq	$0, %rax
	sete	%cl
	.loc	23 30 6
	andb	$1, %cl
	movzbl	%cl, %edx
	movl	%edx, %eax
	addq	$16, %rsp
	popq	%rbp
	retq
Ltmp446:
Lfunc_end137:
	.cfi_endproc

	.p2align	4, 0x90
__ZN4core3ptr7mut_ptr41_$LT$impl$u20$$BP$mut$u20$$u5b$T$u5d$$GT$10as_mut_ptr17h36d778b357327ce1E:
Lfunc_begin138:
	.loc	23 1051 0
	.cfi_startproc
	pushq	%rbp
	.cfi_def_cfa_offset 16
	.cfi_offset %rbp, -16
	movq	%rsp, %rbp
	.cfi_def_cfa_register %rbp
	subq	$16, %rsp
	movq	%rdi, -16(%rbp)
	movq	%rsi, -8(%rbp)
Ltmp447:
	.loc	23 1053 6 prologue_end
	movq	%rdi, %rax
	addq	$16, %rsp
	popq	%rbp
	retq
Ltmp448:
Lfunc_end138:
	.cfi_endproc

	.p2align	4, 0x90
__ZN4core3ptr8non_null16NonNull$LT$T$GT$13new_unchecked17h87f00c7b11c75d66E:
Lfunc_begin139:
	.loc	6 90 0
	.cfi_startproc
	pushq	%rbp
	.cfi_def_cfa_offset 16
	.cfi_offset %rbp, -16
	movq	%rsp, %rbp
	.cfi_def_cfa_register %rbp
	subq	$16, %rsp
	movq	%rdi, -8(%rbp)
Ltmp449:
	.loc	6 92 18 prologue_end
	movq	%rdi, -16(%rbp)
	.loc	6 93 6
	movq	-16(%rbp), %rax
	addq	$16, %rsp
	popq	%rbp
	retq
Ltmp450:
Lfunc_end139:
	.cfi_endproc

	.p2align	4, 0x90
__ZN4core3ptr8non_null16NonNull$LT$T$GT$13new_unchecked17hb364db7f4e7ea21dE:
Lfunc_begin140:
	.loc	6 90 0
	.cfi_startproc
	pushq	%rbp
	.cfi_def_cfa_offset 16
	.cfi_offset %rbp, -16
	movq	%rsp, %rbp
	.cfi_def_cfa_register %rbp
	subq	$16, %rsp
	movq	%rdi, -8(%rbp)
Ltmp451:
	.loc	6 92 18 prologue_end
	movq	%rdi, -16(%rbp)
	.loc	6 93 6
	movq	-16(%rbp), %rax
	addq	$16, %rsp
	popq	%rbp
	retq
Ltmp452:
Lfunc_end140:
	.cfi_endproc

	.p2align	4, 0x90
__ZN4core3ptr8non_null16NonNull$LT$T$GT$3new17h8fae07e078c14b7eE:
Lfunc_begin141:
	.loc	6 98 0
	.cfi_startproc
	pushq	%rbp
	.cfi_def_cfa_offset 16
	.cfi_offset %rbp, -16
	movq	%rsp, %rbp
	.cfi_def_cfa_register %rbp
	subq	$48, %rsp
	movq	%rdi, -8(%rbp)
	movq	%rdi, -24(%rbp)
Ltmp453:
	.loc	6 99 13 prologue_end
	callq	__ZN4core3ptr7mut_ptr31_$LT$impl$u20$$BP$mut$u20$T$GT$7is_null17hcf9c465a9a034e7dE
	movb	%al, -25(%rbp)
	.loc	6 0 13 is_stmt 0
	movb	-25(%rbp), %al
	.loc	6 99 12
	xorb	$-1, %al
	.loc	6 99 9
	testb	$1, %al
	jne	LBB141_3
	.loc	6 103 13 is_stmt 1
	movq	$0, -16(%rbp)
	.loc	6 99 9
	jmp	LBB141_5
LBB141_3:
	.loc	6 0 9 is_stmt 0
	movq	-24(%rbp), %rdi
	.loc	6 101 27 is_stmt 1
	callq	__ZN4core3ptr8non_null16NonNull$LT$T$GT$13new_unchecked17h87f00c7b11c75d66E
	movq	%rax, -40(%rbp)
	.loc	6 0 27 is_stmt 0
	movq	-40(%rbp), %rax
	.loc	6 101 13
	movq	%rax, -16(%rbp)
LBB141_5:
	.loc	6 105 6 is_stmt 1
	movq	-16(%rbp), %rax
	addq	$48, %rsp
	popq	%rbp
	retq
Ltmp454:
Lfunc_end141:
	.cfi_endproc

	.p2align	4, 0x90
__ZN4core3ptr8non_null16NonNull$LT$T$GT$4cast17h619f879d224f53aeE:
Lfunc_begin142:
	.loc	6 145 0
	.cfi_startproc
	pushq	%rbp
	.cfi_def_cfa_offset 16
	.cfi_offset %rbp, -16
	movq	%rsp, %rbp
	.cfi_def_cfa_register %rbp
	subq	$32, %rsp
	movq	%rdi, -8(%rbp)
Ltmp455:
	.loc	6 147 41 prologue_end
	callq	__ZN4core3ptr8non_null16NonNull$LT$T$GT$6as_ptr17hc661f1c2eda9eb60E
	movq	%rax, -16(%rbp)
	.loc	6 0 41 is_stmt 0
	movq	-16(%rbp), %rax
	.loc	6 147 18
	movq	%rax, %rdi
	callq	__ZN4core3ptr8non_null16NonNull$LT$T$GT$13new_unchecked17hb364db7f4e7ea21dE
	movq	%rax, -24(%rbp)
	.loc	6 0 18
	movq	-24(%rbp), %rax
	.loc	6 148 6 is_stmt 1
	addq	$32, %rsp
	popq	%rbp
	retq
Ltmp456:
Lfunc_end142:
	.cfi_endproc

	.p2align	4, 0x90
__ZN4core3ptr8non_null16NonNull$LT$T$GT$6as_ptr17h78169ed385cb556cE:
Lfunc_begin143:
	.loc	6 111 0
	.cfi_startproc
	pushq	%rbp
	.cfi_def_cfa_offset 16
	.cfi_offset %rbp, -16
	movq	%rsp, %rbp
	.cfi_def_cfa_register %rbp
	pushq	%rax
	movq	%rdi, -8(%rbp)
Ltmp457:
	.loc	6 113 6 prologue_end
	movq	%rdi, %rax
	addq	$8, %rsp
	popq	%rbp
	retq
Ltmp458:
Lfunc_end143:
	.cfi_endproc

	.p2align	4, 0x90
__ZN4core3ptr8non_null16NonNull$LT$T$GT$6as_ptr17hc661f1c2eda9eb60E:
Lfunc_begin144:
	.loc	6 111 0
	.cfi_startproc
	pushq	%rbp
	.cfi_def_cfa_offset 16
	.cfi_offset %rbp, -16
	movq	%rsp, %rbp
	.cfi_def_cfa_register %rbp
	pushq	%rax
	movq	%rdi, -8(%rbp)
Ltmp459:
	.loc	6 113 6 prologue_end
	movq	%rdi, %rax
	addq	$8, %rsp
	popq	%rbp
	retq
Ltmp460:
Lfunc_end144:
	.cfi_endproc

	.p2align	4, 0x90
__ZN4core3ptr8non_null16NonNull$LT$T$GT$6as_ref17hd502e4899fc51fdcE:
Lfunc_begin145:
	.loc	6 122 0
	.cfi_startproc
	pushq	%rbp
	.cfi_def_cfa_offset 16
	.cfi_offset %rbp, -16
	movq	%rsp, %rbp
	.cfi_def_cfa_register %rbp
	subq	$16, %rsp
	movq	%rdi, -8(%rbp)
Ltmp461:
	.loc	6 125 20 prologue_end
	movq	(%rdi), %rdi
	callq	__ZN4core3ptr8non_null16NonNull$LT$T$GT$6as_ptr17hc661f1c2eda9eb60E
	movq	%rax, -16(%rbp)
	.loc	6 0 20 is_stmt 0
	movq	-16(%rbp), %rax
	.loc	6 126 6 is_stmt 1
	addq	$16, %rsp
	popq	%rbp
	retq
Ltmp462:
Lfunc_end145:
	.cfi_endproc

	.p2align	4, 0x90
__ZN4core3ptr9const_ptr33_$LT$impl$u20$$BP$const$u20$T$GT$13guaranteed_eq17h04e71834f7287b24E:
Lfunc_begin146:
	.file	24 "/rustc/6c8927b0cf80ceee19386026cf9d7fd4fd9d486f/src/libcore/ptr/const_ptr.rs"
	.loc	24 327 0
	.cfi_startproc
	pushq	%rbp
	.cfi_def_cfa_offset 16
	.cfi_offset %rbp, -16
	movq	%rsp, %rbp
	.cfi_def_cfa_register %rbp
	subq	$32, %rsp
	movq	%rdi, -24(%rbp)
	movq	%rsi, -16(%rbp)
Ltmp463:
	.loc	24 331 9 prologue_end
	cmpq	%rsi, %rdi
	sete	%al
	andb	$1, %al
	movb	%al, -1(%rbp)
	movb	-1(%rbp), %al
	movb	%al, -25(%rbp)
	.loc	24 0 9 is_stmt 0
	movb	-25(%rbp), %al
	.loc	24 332 6 is_stmt 1
	andb	$1, %al
	movzbl	%al, %eax
	addq	$32, %rsp
	popq	%rbp
	retq
Ltmp464:
Lfunc_end146:
	.cfi_endproc

	.p2align	4, 0x90
__ZN4core3ptr9const_ptr33_$LT$impl$u20$$BP$const$u20$T$GT$3add17h1000be15d506463fE:
Lfunc_begin147:
	.loc	24 473 0
	.cfi_startproc
	pushq	%rbp
	.cfi_def_cfa_offset 16
	.cfi_offset %rbp, -16
	movq	%rsp, %rbp
	.cfi_def_cfa_register %rbp
	subq	$32, %rsp
	movq	%rdi, -16(%rbp)
	movq	%rsi, -8(%rbp)
Ltmp465:
	.loc	24 478 18 prologue_end
	callq	__ZN4core3ptr9const_ptr33_$LT$impl$u20$$BP$const$u20$T$GT$6offset17hf1a68d109cc9f2fbE
	movq	%rax, -24(%rbp)
	.loc	24 0 18 is_stmt 0
	movq	-24(%rbp), %rax
	.loc	24 479 6 is_stmt 1
	addq	$32, %rsp
	popq	%rbp
	retq
Ltmp466:
Lfunc_end147:
	.cfi_endproc

	.p2align	4, 0x90
__ZN4core3ptr9const_ptr33_$LT$impl$u20$$BP$const$u20$T$GT$3add17h324a8d7ded0d3a8dE:
Lfunc_begin148:
	.loc	24 473 0
	.cfi_startproc
	pushq	%rbp
	.cfi_def_cfa_offset 16
	.cfi_offset %rbp, -16
	movq	%rsp, %rbp
	.cfi_def_cfa_register %rbp
	subq	$32, %rsp
	movq	%rdi, -16(%rbp)
	movq	%rsi, -8(%rbp)
Ltmp467:
	.loc	24 478 18 prologue_end
	callq	__ZN4core3ptr9const_ptr33_$LT$impl$u20$$BP$const$u20$T$GT$6offset17ha8886495829b5938E
	movq	%rax, -24(%rbp)
	.loc	24 0 18 is_stmt 0
	movq	-24(%rbp), %rax
	.loc	24 479 6 is_stmt 1
	addq	$32, %rsp
	popq	%rbp
	retq
Ltmp468:
Lfunc_end148:
	.cfi_endproc

	.p2align	4, 0x90
__ZN4core3ptr9const_ptr33_$LT$impl$u20$$BP$const$u20$T$GT$3add17h48d035aed451cd44E:
Lfunc_begin149:
	.loc	24 473 0
	.cfi_startproc
	pushq	%rbp
	.cfi_def_cfa_offset 16
	.cfi_offset %rbp, -16
	movq	%rsp, %rbp
	.cfi_def_cfa_register %rbp
	subq	$32, %rsp
	movq	%rdi, -16(%rbp)
	movq	%rsi, -8(%rbp)
Ltmp469:
	.loc	24 478 18 prologue_end
	callq	__ZN4core3ptr9const_ptr33_$LT$impl$u20$$BP$const$u20$T$GT$6offset17h5b0aaf451d1c61dcE
	movq	%rax, -24(%rbp)
	.loc	24 0 18 is_stmt 0
	movq	-24(%rbp), %rax
	.loc	24 479 6 is_stmt 1
	addq	$32, %rsp
	popq	%rbp
	retq
Ltmp470:
Lfunc_end149:
	.cfi_endproc

	.p2align	4, 0x90
__ZN4core3ptr9const_ptr33_$LT$impl$u20$$BP$const$u20$T$GT$3add17hefbe838eb6abbce0E:
Lfunc_begin150:
	.loc	24 473 0
	.cfi_startproc
	pushq	%rbp
	.cfi_def_cfa_offset 16
	.cfi_offset %rbp, -16
	movq	%rsp, %rbp
	.cfi_def_cfa_register %rbp
	subq	$32, %rsp
	movq	%rdi, -16(%rbp)
	movq	%rsi, -8(%rbp)
Ltmp471:
	.loc	24 478 18 prologue_end
	callq	__ZN4core3ptr9const_ptr33_$LT$impl$u20$$BP$const$u20$T$GT$6offset17h5db05c3ba0cd8638E
	movq	%rax, -24(%rbp)
	.loc	24 0 18 is_stmt 0
	movq	-24(%rbp), %rax
	.loc	24 479 6 is_stmt 1
	addq	$32, %rsp
	popq	%rbp
	retq
Ltmp472:
Lfunc_end150:
	.cfi_endproc

	.p2align	4, 0x90
__ZN4core3ptr9const_ptr33_$LT$impl$u20$$BP$const$u20$T$GT$6offset17h5b0aaf451d1c61dcE:
Lfunc_begin151:
	.loc	24 159 0
	.cfi_startproc
	pushq	%rbp
	.cfi_def_cfa_offset 16
	.cfi_offset %rbp, -16
	movq	%rsp, %rbp
	.cfi_def_cfa_register %rbp
	subq	$32, %rsp
	movq	%rdi, -24(%rbp)
	movq	%rsi, -16(%rbp)
Ltmp473:
	.loc	24 164 18 prologue_end
	addq	%rsi, %rdi
	movq	%rdi, -8(%rbp)
	movq	-8(%rbp), %rax
	movq	%rax, -32(%rbp)
	.loc	24 0 18 is_stmt 0
	movq	-32(%rbp), %rax
	.loc	24 165 6 is_stmt 1
	addq	$32, %rsp
	popq	%rbp
	retq
Ltmp474:
Lfunc_end151:
	.cfi_endproc

	.p2align	4, 0x90
__ZN4core3ptr9const_ptr33_$LT$impl$u20$$BP$const$u20$T$GT$6offset17h5db05c3ba0cd8638E:
Lfunc_begin152:
	.loc	24 159 0
	.cfi_startproc
	pushq	%rbp
	.cfi_def_cfa_offset 16
	.cfi_offset %rbp, -16
	movq	%rsp, %rbp
	.cfi_def_cfa_register %rbp
	subq	$32, %rsp
	movq	%rdi, -24(%rbp)
	movq	%rsi, -16(%rbp)
Ltmp475:
	.loc	24 164 18 prologue_end
	shlq	$3, %rsi
	addq	%rsi, %rdi
	movq	%rdi, -8(%rbp)
	movq	-8(%rbp), %rax
	movq	%rax, -32(%rbp)
	.loc	24 0 18 is_stmt 0
	movq	-32(%rbp), %rax
	.loc	24 165 6 is_stmt 1
	addq	$32, %rsp
	popq	%rbp
	retq
Ltmp476:
Lfunc_end152:
	.cfi_endproc

	.p2align	4, 0x90
__ZN4core3ptr9const_ptr33_$LT$impl$u20$$BP$const$u20$T$GT$6offset17ha8886495829b5938E:
Lfunc_begin153:
	.loc	24 159 0
	.cfi_startproc
	pushq	%rbp
	.cfi_def_cfa_offset 16
	.cfi_offset %rbp, -16
	movq	%rsp, %rbp
	.cfi_def_cfa_register %rbp
	subq	$32, %rsp
	movq	%rdi, -24(%rbp)
	movq	%rsi, -16(%rbp)
Ltmp477:
	.loc	24 164 18 prologue_end
	imulq	$24, %rsi, %rax
	addq	%rax, %rdi
	movq	%rdi, -8(%rbp)
	movq	-8(%rbp), %rax
	movq	%rax, -32(%rbp)
	.loc	24 0 18 is_stmt 0
	movq	-32(%rbp), %rax
	.loc	24 165 6 is_stmt 1
	addq	$32, %rsp
	popq	%rbp
	retq
Ltmp478:
Lfunc_end153:
	.cfi_endproc

	.p2align	4, 0x90
__ZN4core3ptr9const_ptr33_$LT$impl$u20$$BP$const$u20$T$GT$6offset17hf1a68d109cc9f2fbE:
Lfunc_begin154:
	.loc	24 159 0
	.cfi_startproc
	pushq	%rbp
	.cfi_def_cfa_offset 16
	.cfi_offset %rbp, -16
	movq	%rsp, %rbp
	.cfi_def_cfa_register %rbp
	subq	$32, %rsp
	movq	%rdi, -24(%rbp)
	movq	%rsi, -16(%rbp)
Ltmp479:
	.loc	24 164 18 prologue_end
	imulq	$24, %rsi, %rax
	addq	%rax, %rdi
	movq	%rdi, -8(%rbp)
	movq	-8(%rbp), %rax
	movq	%rax, -32(%rbp)
	.loc	24 0 18 is_stmt 0
	movq	-32(%rbp), %rax
	.loc	24 165 6 is_stmt 1
	addq	$32, %rsp
	popq	%rbp
	retq
Ltmp480:
Lfunc_end154:
	.cfi_endproc

	.p2align	4, 0x90
__ZN4core3ptr9const_ptr43_$LT$impl$u20$$BP$const$u20$$u5b$T$u5d$$GT$6as_ptr17h42fd855ba5626387E:
Lfunc_begin155:
	.loc	24 845 0
	.cfi_startproc
	pushq	%rbp
	.cfi_def_cfa_offset 16
	.cfi_offset %rbp, -16
	movq	%rsp, %rbp
	.cfi_def_cfa_register %rbp
	subq	$16, %rsp
	movq	%rdi, -16(%rbp)
	movq	%rsi, -8(%rbp)
Ltmp481:
	.loc	24 847 6 prologue_end
	movq	%rdi, %rax
	addq	$16, %rsp
	popq	%rbp
	retq
Ltmp482:
Lfunc_end155:
	.cfi_endproc

	.p2align	4, 0x90
__ZN4core3ptr9const_ptr43_$LT$impl$u20$$BP$const$u20$$u5b$T$u5d$$GT$6as_ptr17h6286bf5405f47442E:
Lfunc_begin156:
	.loc	24 845 0
	.cfi_startproc
	pushq	%rbp
	.cfi_def_cfa_offset 16
	.cfi_offset %rbp, -16
	movq	%rsp, %rbp
	.cfi_def_cfa_register %rbp
	subq	$16, %rsp
	movq	%rdi, -16(%rbp)
	movq	%rsi, -8(%rbp)
Ltmp483:
	.loc	24 847 6 prologue_end
	movq	%rdi, %rax
	addq	$16, %rsp
	popq	%rbp
	retq
Ltmp484:
Lfunc_end156:
	.cfi_endproc

	.p2align	4, 0x90
__ZN4core3ptr9const_ptr43_$LT$impl$u20$$BP$const$u20$$u5b$T$u5d$$GT$6as_ptr17hc30bc7cec713b2e0E:
Lfunc_begin157:
	.loc	24 845 0
	.cfi_startproc
	pushq	%rbp
	.cfi_def_cfa_offset 16
	.cfi_offset %rbp, -16
	movq	%rsp, %rbp
	.cfi_def_cfa_register %rbp
	subq	$16, %rsp
	movq	%rdi, -16(%rbp)
	movq	%rsi, -8(%rbp)
Ltmp485:
	.loc	24 847 6 prologue_end
	movq	%rdi, %rax
	addq	$16, %rsp
	popq	%rbp
	retq
Ltmp486:
Lfunc_end157:
	.cfi_endproc

	.p2align	4, 0x90
__ZN4core3ptr9const_ptr43_$LT$impl$u20$$BP$const$u20$$u5b$T$u5d$$GT$6as_ptr17hc5a1cf40e9ff7e89E:
Lfunc_begin158:
	.loc	24 845 0
	.cfi_startproc
	pushq	%rbp
	.cfi_def_cfa_offset 16
	.cfi_offset %rbp, -16
	movq	%rsp, %rbp
	.cfi_def_cfa_register %rbp
	subq	$16, %rsp
	movq	%rdi, -16(%rbp)
	movq	%rsi, -8(%rbp)
Ltmp487:
	.loc	24 847 6 prologue_end
	movq	%rdi, %rax
	addq	$16, %rsp
	popq	%rbp
	retq
Ltmp488:
Lfunc_end158:
	.cfi_endproc

	.p2align	4, 0x90
__ZN4core3str19from_utf8_unchecked17hf7287c1229505c83E:
Lfunc_begin159:
	.loc	9 417 0
	.cfi_startproc
	pushq	%rbp
	.cfi_def_cfa_offset 16
	.cfi_offset %rbp, -16
	movq	%rsp, %rbp
	.cfi_def_cfa_register %rbp
	subq	$16, %rsp
	movq	%rdi, -16(%rbp)
	movq	%rsi, -8(%rbp)
Ltmp489:
	.loc	9 423 2 prologue_end
	movq	%rdi, %rax
	movq	%rsi, %rdx
	addq	$16, %rsp
	popq	%rbp
	retq
Ltmp490:
Lfunc_end159:
	.cfi_endproc

	.p2align	4, 0x90
__ZN4core3str21_$LT$impl$u20$str$GT$11starts_with17h08ab9e0f2eadbc6fE:
Lfunc_begin160:
	.loc	9 3086 0
	.cfi_startproc
	pushq	%rbp
	.cfi_def_cfa_offset 16
	.cfi_offset %rbp, -16
	movq	%rsp, %rbp
	.cfi_def_cfa_register %rbp
	subq	$64, %rsp
	movq	%rdi, -32(%rbp)
	movq	%rsi, -24(%rbp)
	movq	%rdx, -16(%rbp)
	movq	%rcx, -8(%rbp)
	movq	%rdi, -40(%rbp)
Ltmp491:
	.loc	9 3087 9 prologue_end
	movq	%rdx, %rdi
	movq	%rsi, -48(%rbp)
	movq	%rcx, %rsi
	movq	-40(%rbp), %rdx
	movq	-48(%rbp), %rcx
	callq	__ZN55_$LT$$RF$str$u20$as$u20$core..str..pattern..Pattern$GT$12is_prefix_of17h5d214d5e887f58deE
	movb	%al, -49(%rbp)
	.loc	9 0 9 is_stmt 0
	movb	-49(%rbp), %al
	.loc	9 3088 6 is_stmt 1
	andb	$1, %al
	movzbl	%al, %eax
	addq	$64, %rsp
	popq	%rbp
	retq
Ltmp492:
Lfunc_end160:
	.cfi_endproc

	.p2align	4, 0x90
__ZN4core3str21_$LT$impl$u20$str$GT$13get_unchecked17h9a6ed8a99b2fbbb6E:
Lfunc_begin161:
	.loc	9 2533 0
	.cfi_startproc
	pushq	%rbp
	.cfi_def_cfa_offset 16
	.cfi_offset %rbp, -16
	movq	%rsp, %rbp
	.cfi_def_cfa_register %rbp
	subq	$64, %rsp
	movq	%rdi, -32(%rbp)
	movq	%rsi, -24(%rbp)
	movq	%rdx, -16(%rbp)
	movq	%rcx, -8(%rbp)
	movq	%rdi, -40(%rbp)
Ltmp493:
	.loc	9 2537 20 prologue_end
	movq	%rdx, %rdi
	movq	%rsi, -48(%rbp)
	movq	%rcx, %rsi
	movq	-40(%rbp), %rdx
	movq	-48(%rbp), %rcx
	callq	__ZN4core3str6traits101_$LT$impl$u20$core..slice..SliceIndex$LT$str$GT$$u20$for$u20$core..ops..range..Range$LT$usize$GT$$GT$13get_unchecked17hdd8165fdef191214E
	movq	%rax, -56(%rbp)
	movq	%rdx, -64(%rbp)
	.loc	9 0 20 is_stmt 0
	movq	-56(%rbp), %rax
	movq	-64(%rbp), %rdx
	.loc	9 2538 6 is_stmt 1
	addq	$64, %rsp
	popq	%rbp
	retq
Ltmp494:
Lfunc_end161:
	.cfi_endproc

	.p2align	4, 0x90
__ZN4core3str21_$LT$impl$u20$str$GT$3len17h93531804e2407600E:
Lfunc_begin162:
	.loc	9 2273 0
	.cfi_startproc
	pushq	%rbp
	.cfi_def_cfa_offset 16
	.cfi_offset %rbp, -16
	movq	%rsp, %rbp
	.cfi_def_cfa_register %rbp
	subq	$80, %rsp
	movq	%rdi, -48(%rbp)
	movq	%rsi, -40(%rbp)
	movq	%rdi, -16(%rbp)
	movq	%rsi, -8(%rbp)
Ltmp495:
	.loc	9 2359 18 prologue_end
	movq	%rdi, -32(%rbp)
	movq	%rsi, -24(%rbp)
	movq	-32(%rbp), %rdi
	movq	-24(%rbp), %rsi
	movq	%rdi, -56(%rbp)
	movq	%rsi, -64(%rbp)
Ltmp496:
	.loc	9 0 18 is_stmt 0
	movq	-56(%rbp), %rdi
	movq	-64(%rbp), %rsi
	.loc	9 2274 9 is_stmt 1
	callq	__ZN4core5slice29_$LT$impl$u20$$u5b$T$u5d$$GT$3len17h6b4b184221af13daE
	movq	%rax, -72(%rbp)
	.loc	9 0 9 is_stmt 0
	movq	-72(%rbp), %rax
	.loc	9 2275 6 is_stmt 1
	addq	$80, %rsp
	popq	%rbp
	retq
Ltmp497:
Lfunc_end162:
	.cfi_endproc

	.p2align	4, 0x90
__ZN4core3str21_$LT$impl$u20$str$GT$5split17h2f801f2511d92ca6E:
Lfunc_begin163:
	.loc	9 3320 0
	.cfi_startproc
	.cfi_personality 155, _rust_eh_personality
	.cfi_lsda 16, Lexception20
	pushq	%rbp
	.cfi_def_cfa_offset 16
	.cfi_offset %rbp, -16
	movq	%rsp, %rbp
	.cfi_def_cfa_register %rbp
	subq	$224, %rsp
	movq	%rdi, %rax
	movq	%rsi, -40(%rbp)
	movq	%rdx, -32(%rbp)
	movl	%ecx, -20(%rbp)
Ltmp503:
	.loc	9 3321 15 prologue_end
	movb	$0, -41(%rbp)
	movb	$1, -41(%rbp)
Ltmp498:
	movq	%rdi, -176(%rbp)
	.loc	9 3323 18
	movq	%rsi, %rdi
	movq	%rsi, -184(%rbp)
	movq	%rdx, %rsi
	movl	%ecx, -188(%rbp)
	movq	%rdx, -200(%rbp)
	movq	%rax, -208(%rbp)
	callq	__ZN4core3str21_$LT$impl$u20$str$GT$3len17h93531804e2407600E
Ltmp499:
	movq	%rax, -216(%rbp)
	jmp	LBB163_2
LBB163_1:
	.loc	9 3320 5
	movq	-16(%rbp), %rdi
	callq	__Unwind_Resume
	ud2
LBB163_2:
	.loc	9 3324 22
	movb	$0, -41(%rbp)
Ltmp500:
	leaq	-96(%rbp), %rdi
	movl	-188(%rbp), %esi
	movq	-184(%rbp), %rdx
	movq	-200(%rbp), %rcx
	callq	__ZN52_$LT$char$u20$as$u20$core..str..pattern..Pattern$GT$13into_searcher17h2795564a69d2aacdE
Ltmp501:
	jmp	LBB163_3
LBB163_3:
	.loc	9 3321 15
	movq	$0, -168(%rbp)
	movq	-216(%rbp), %rax
	movq	%rax, -160(%rbp)
	leaq	-168(%rbp), %rcx
	movq	%rcx, %rdx
	addq	$16, %rdx
	leaq	-96(%rbp), %rsi
	movq	%rdx, %rdi
	movl	$48, %edx
	movq	%rcx, -224(%rbp)
	callq	_memcpy
	movb	$1, -104(%rbp)
	movb	$0, -103(%rbp)
	movq	-176(%rbp), %rax
	movq	-224(%rbp), %rcx
	.loc	9 3321 9 is_stmt 0
	movq	%rax, %rdi
	movq	%rcx, %rsi
	movl	$72, %edx
	callq	_memcpy
	movq	-208(%rbp), %rax
	.loc	9 3328 6 is_stmt 1
	addq	$224, %rsp
	popq	%rbp
	retq
LBB163_4:
	.loc	9 3328 5 is_stmt 0
	movb	$0, -41(%rbp)
	jmp	LBB163_1
LBB163_5:
	testb	$1, -41(%rbp)
	jne	LBB163_4
	jmp	LBB163_1
Ltmp504:
LBB163_6:
Ltmp502:
	.loc	9 0 5
	movq	%rax, -16(%rbp)
	movl	%edx, -8(%rbp)
	jmp	LBB163_5
Lfunc_end163:
	.cfi_endproc
	.section	__TEXT,__gcc_except_tab
	.p2align	2
GCC_except_table163:
Lexception20:
	.byte	255
	.byte	255
	.byte	1
	.uleb128 Lcst_end20-Lcst_begin20
Lcst_begin20:
	.uleb128 Ltmp498-Lfunc_begin163
	.uleb128 Ltmp499-Ltmp498
	.uleb128 Ltmp502-Lfunc_begin163
	.byte	0
	.uleb128 Ltmp499-Lfunc_begin163
	.uleb128 Ltmp500-Ltmp499
	.byte	0
	.byte	0
	.uleb128 Ltmp500-Lfunc_begin163
	.uleb128 Ltmp501-Ltmp500
	.uleb128 Ltmp502-Lfunc_begin163
	.byte	0
	.uleb128 Ltmp501-Lfunc_begin163
	.uleb128 Lfunc_end163-Ltmp501
	.byte	0
	.byte	0
Lcst_end20:
	.p2align	2

	.section	__TEXT,__text,regular,pure_instructions
	.p2align	4, 0x90
__ZN4core3str22SplitInternal$LT$P$GT$4next17h6f59fb4bf0d1c2ccE:
Lfunc_begin164:
	.loc	9 1118 0 is_stmt 1
	.cfi_startproc
	pushq	%rbp
	.cfi_def_cfa_offset 16
	.cfi_offset %rbp, -16
	movq	%rsp, %rbp
	.cfi_def_cfa_register %rbp
	subq	$160, %rsp
	movq	%rdi, -56(%rbp)
Ltmp505:
	.loc	9 1119 9 prologue_end
	testb	$1, 65(%rdi)
	movq	%rdi, -120(%rbp)
	jne	LBB164_2
	.loc	9 0 9 is_stmt 0
	movq	-120(%rbp), %rax
	.loc	9 1123 24 is_stmt 1
	addq	$16, %rax
	movq	%rax, %rdi
	callq	__ZN81_$LT$core..str..pattern..CharSearcher$u20$as$u20$core..str..pattern..Searcher$GT$8haystack17h3dc2054bca51551cE
	movq	%rax, -48(%rbp)
	movq	%rdx, -40(%rbp)
	movq	%rax, -128(%rbp)
	movq	%rdx, -136(%rbp)
	jmp	LBB164_4
LBB164_2:
	.loc	9 1120 20
	movq	$0, -112(%rbp)
LBB164_3:
	.loc	9 1133 6
	movq	-112(%rbp), %rax
	movq	-104(%rbp), %rdx
	addq	$160, %rsp
	popq	%rbp
	retq
LBB164_4:
	.loc	9 0 6 is_stmt 0
	movq	-120(%rbp), %rax
Ltmp506:
	.loc	9 1124 15 is_stmt 1
	addq	$16, %rax
	leaq	-96(%rbp), %rdi
	movq	%rax, %rsi
	callq	__ZN81_$LT$core..str..pattern..CharSearcher$u20$as$u20$core..str..pattern..Searcher$GT$10next_match17hca0af7380bdb97f6E
	.loc	9 1126 13
	movq	-96(%rbp), %rax
	testq	%rax, %rax
	je	LBB164_6
	jmp	LBB164_12
LBB164_12:
	jmp	LBB164_8
LBB164_6:
	.loc	9 0 13 is_stmt 0
	movq	-120(%rbp), %rdi
	.loc	9 1131 21 is_stmt 1
	callq	__ZN4core3str22SplitInternal$LT$P$GT$7get_end17hf4a0e5d7f0c4297cE
	movq	%rdx, -104(%rbp)
	movq	%rax, -112(%rbp)
	jmp	LBB164_10
	.loc	9 1124 15
	ud2
LBB164_8:
	.loc	9 1126 19
	movq	-88(%rbp), %rax
	movq	%rax, -32(%rbp)
	.loc	9 1126 22 is_stmt 0
	movq	-80(%rbp), %rcx
	movq	%rcx, -24(%rbp)
	movq	-120(%rbp), %rdx
Ltmp507:
	.loc	9 1127 50 is_stmt 1
	movq	(%rdx), %rsi
	movq	%rsi, -72(%rbp)
	movq	%rax, -64(%rbp)
	.loc	9 1127 27 is_stmt 0
	movq	-72(%rbp), %rdx
	movq	-64(%rbp), %rax
	movq	-128(%rbp), %rdi
	movq	-136(%rbp), %rsi
	movq	%rcx, -144(%rbp)
	movq	%rax, %rcx
	callq	__ZN4core3str21_$LT$impl$u20$str$GT$13get_unchecked17h9a6ed8a99b2fbbb6E
	movq	%rax, -16(%rbp)
	movq	%rdx, -8(%rbp)
	movq	%rax, -152(%rbp)
	movq	%rdx, -160(%rbp)
	.loc	9 0 27
	movq	-120(%rbp), %rax
	movq	-144(%rbp), %rcx
Ltmp508:
	.loc	9 1128 17 is_stmt 1
	movq	%rcx, (%rax)
	movq	-152(%rbp), %rdx
	.loc	9 1129 17
	movq	%rdx, -112(%rbp)
	movq	-160(%rbp), %rsi
	movq	%rsi, -104(%rbp)
Ltmp509:
	.loc	9 1124 9
	jmp	LBB164_11
LBB164_10:
	jmp	LBB164_11
Ltmp510:
LBB164_11:
	.loc	9 1133 6
	jmp	LBB164_3
Ltmp511:
Lfunc_end164:
	.cfi_endproc

	.p2align	4, 0x90
__ZN4core3str22SplitInternal$LT$P$GT$7get_end17hf4a0e5d7f0c4297cE:
Lfunc_begin165:
	.loc	9 1104 0
	.cfi_startproc
	pushq	%rbp
	.cfi_def_cfa_offset 16
	.cfi_offset %rbp, -16
	movq	%rsp, %rbp
	.cfi_def_cfa_register %rbp
	subq	$112, %rsp
	movq	%rdi, -24(%rbp)
Ltmp512:
	.loc	9 1105 13 prologue_end
	movb	65(%rdi), %al
	.loc	9 1105 12 is_stmt 0
	xorb	$-1, %al
	testb	$1, %al
	movq	%rdi, -72(%rbp)
	jne	LBB165_3
	jmp	LBB165_2
LBB165_1:
	movb	$1, -42(%rbp)
	jmp	LBB165_4
LBB165_2:
	movb	$0, -42(%rbp)
	jmp	LBB165_4
LBB165_3:
	.loc	9 0 12
	movq	-72(%rbp), %rax
	.loc	9 1105 30
	testb	$1, 64(%rax)
	jne	LBB165_5
	jmp	LBB165_7
LBB165_4:
	.loc	9 1105 9
	testb	$1, -42(%rbp)
	jne	LBB165_10
	jmp	LBB165_9
LBB165_5:
	.loc	9 1105 30
	movb	$1, -41(%rbp)
	jmp	LBB165_8
LBB165_6:
	movb	$0, -41(%rbp)
	jmp	LBB165_8
LBB165_7:
	.loc	9 0 30
	movq	-72(%rbp), %rax
	.loc	9 1105 60
	movq	8(%rax), %rcx
	subq	(%rax), %rcx
	cmpq	$0, %rcx
	.loc	9 1105 30
	ja	LBB165_5
	jmp	LBB165_6
LBB165_8:
	.loc	9 1105 12
	testb	$1, -41(%rbp)
	jne	LBB165_1
	jmp	LBB165_2
LBB165_9:
	.loc	9 1113 13 is_stmt 1
	movq	$0, -64(%rbp)
	.loc	9 1105 9
	jmp	LBB165_13
LBB165_10:
	.loc	9 0 9 is_stmt 0
	movq	-72(%rbp), %rax
	.loc	9 1106 13 is_stmt 1
	movb	$1, 65(%rax)
	.loc	9 1109 30
	addq	$16, %rax
	movq	%rax, %rdi
	callq	__ZN81_$LT$core..str..pattern..CharSearcher$u20$as$u20$core..str..pattern..Searcher$GT$8haystack17h3dc2054bca51551cE
	movq	%rax, -80(%rbp)
	movq	%rdx, -88(%rbp)
	.loc	9 0 30 is_stmt 0
	movq	-72(%rbp), %rax
	.loc	9 1109 68
	movq	(%rax), %rcx
	.loc	9 1109 80
	movq	8(%rax), %rdx
	.loc	9 1109 68
	movq	%rcx, -40(%rbp)
	movq	%rdx, -32(%rbp)
	.loc	9 1109 30
	movq	-40(%rbp), %rdx
	movq	-32(%rbp), %rcx
	movq	-80(%rbp), %rdi
	movq	-88(%rbp), %rsi
	callq	__ZN4core3str21_$LT$impl$u20$str$GT$13get_unchecked17h9a6ed8a99b2fbbb6E
	movq	%rax, -16(%rbp)
	movq	%rdx, -8(%rbp)
	movq	%rax, -96(%rbp)
	movq	%rdx, -104(%rbp)
	.loc	9 0 30
	movq	-96(%rbp), %rax
Ltmp513:
	.loc	9 1110 17 is_stmt 1
	movq	%rax, -64(%rbp)
	movq	-104(%rbp), %rcx
	movq	%rcx, -56(%rbp)
Ltmp514:
LBB165_13:
	.loc	9 1115 6
	movq	-64(%rbp), %rax
	movq	-56(%rbp), %rdx
	addq	$112, %rsp
	popq	%rbp
	retq
Ltmp515:
Lfunc_end165:
	.cfi_endproc

	.p2align	4, 0x90
__ZN4core3str23from_utf8_unchecked_mut17h0611f02cb5ab9950E:
Lfunc_begin166:
	.loc	9 444 0
	.cfi_startproc
	pushq	%rbp
	.cfi_def_cfa_offset 16
	.cfi_offset %rbp, -16
	movq	%rsp, %rbp
	.cfi_def_cfa_register %rbp
	subq	$16, %rsp
	movq	%rdi, -16(%rbp)
	movq	%rsi, -8(%rbp)
Ltmp516:
	.loc	9 450 2 prologue_end
	movq	%rdi, %rax
	movq	%rsi, %rdx
	addq	$16, %rsp
	popq	%rbp
	retq
Ltmp517:
Lfunc_end166:
	.cfi_endproc

	.p2align	4, 0x90
__ZN4core3str6traits101_$LT$impl$u20$core..slice..SliceIndex$LT$str$GT$$u20$for$u20$core..ops..range..Range$LT$usize$GT$$GT$13get_unchecked17hdd8165fdef191214E:
Lfunc_begin167:
	.loc	9 1907 0
	.cfi_startproc
	pushq	%rbp
	.cfi_def_cfa_offset 16
	.cfi_offset %rbp, -16
	movq	%rsp, %rbp
	.cfi_def_cfa_register %rbp
	subq	$112, %rsp
	movq	%rdi, -64(%rbp)
	movq	%rsi, -56(%rbp)
	movq	%rdx, -48(%rbp)
	movq	%rcx, -40(%rbp)
Ltmp518:
	.loc	9 1908 25 prologue_end
	movq	%rdx, -32(%rbp)
	movq	%rcx, -24(%rbp)
	movq	%rdi, -72(%rbp)
Ltmp519:
	.loc	9 1911 32
	movq	%rdx, %rdi
	movq	%rsi, -80(%rbp)
	movq	%rcx, %rsi
	callq	__ZN4core3ptr9const_ptr43_$LT$impl$u20$$BP$const$u20$$u5b$T$u5d$$GT$6as_ptr17hc30bc7cec713b2e0E
	movq	%rax, -88(%rbp)
	.loc	9 0 32 is_stmt 0
	movq	-88(%rbp), %rdi
	movq	-72(%rbp), %rsi
	.loc	9 1911 32
	callq	__ZN4core3ptr9const_ptr33_$LT$impl$u20$$BP$const$u20$T$GT$3add17h48d035aed451cd44E
	movq	%rax, -16(%rbp)
	movq	%rax, -96(%rbp)
	.loc	9 0 32
	movq	-80(%rbp), %rax
	movq	-72(%rbp), %rcx
Ltmp520:
	.loc	9 1912 23 is_stmt 1
	subq	%rcx, %rax
	movq	%rax, -8(%rbp)
	movq	-96(%rbp), %rdi
Ltmp521:
	.loc	9 1913 13
	movq	%rax, %rsi
	callq	__ZN4core3ptr20slice_from_raw_parts17h523104dd2aed63f9E
	movq	%rax, -104(%rbp)
	movq	%rdx, -112(%rbp)
Ltmp522:
	.loc	9 0 13 is_stmt 0
	movq	-104(%rbp), %rax
	movq	-112(%rbp), %rdx
	.loc	9 1914 10 is_stmt 1
	addq	$112, %rsp
	popq	%rbp
	retq
Ltmp523:
Lfunc_end167:
	.cfi_endproc

	.p2align	4, 0x90
__ZN4core3str6traits54_$LT$impl$u20$core..cmp..PartialEq$u20$for$u20$str$GT$2eq17h8b57260ae4e22ec9E:
Lfunc_begin168:
	.loc	9 1742 0
	.cfi_startproc
	pushq	%rbp
	.cfi_def_cfa_offset 16
	.cfi_offset %rbp, -16
	movq	%rsp, %rbp
	.cfi_def_cfa_register %rbp
	subq	$160, %rsp
	movq	%rdi, -96(%rbp)
	movq	%rsi, -88(%rbp)
	movq	%rdx, -80(%rbp)
	movq	%rcx, -72(%rbp)
	movq	%rdi, -48(%rbp)
	movq	%rsi, -40(%rbp)
Ltmp524:
	.loc	9 2359 18 prologue_end
	movq	%rdi, -64(%rbp)
	movq	%rsi, -56(%rbp)
	movq	-64(%rbp), %rax
	movq	-56(%rbp), %rsi
Ltmp525:
	.loc	9 1743 13
	movq	%rsi, -120(%rbp)
	movq	%rax, -128(%rbp)
	movq	%rdx, -136(%rbp)
	movq	%rcx, -144(%rbp)
	.loc	9 0 13 is_stmt 0
	movq	-136(%rbp), %rax
	movq	%rax, -16(%rbp)
	movq	-144(%rbp), %rcx
	movq	%rcx, -8(%rbp)
Ltmp526:
	.loc	9 2359 18 is_stmt 1
	movq	%rax, -32(%rbp)
	movq	%rcx, -24(%rbp)
	movq	-32(%rbp), %rdx
	movq	-24(%rbp), %rsi
Ltmp527:
	.loc	9 1743 32
	movq	%rsi, -104(%rbp)
	movq	%rdx, -112(%rbp)
	.loc	9 1743 13 is_stmt 0
	leaq	-128(%rbp), %rdi
	leaq	-112(%rbp), %rsi
	callq	__ZN4core3cmp5impls69_$LT$impl$u20$core..cmp..PartialEq$LT$$RF$B$GT$$u20$for$u20$$RF$A$GT$2eq17hc50343f7e43dffc6E
	movb	%al, -145(%rbp)
	.loc	9 0 13
	movb	-145(%rbp), %al
	.loc	9 1744 10 is_stmt 1
	andb	$1, %al
	movzbl	%al, %eax
	addq	$160, %rsp
	popq	%rbp
	retq
Ltmp528:
Lfunc_end168:
	.cfi_endproc

	.p2align	4, 0x90
__ZN4core3str6traits54_$LT$impl$u20$core..cmp..PartialEq$u20$for$u20$str$GT$2ne17h478f438b80fc1622E:
Lfunc_begin169:
	.loc	9 1746 0
	.cfi_startproc
	pushq	%rbp
	.cfi_def_cfa_offset 16
	.cfi_offset %rbp, -16
	movq	%rsp, %rbp
	.cfi_def_cfa_register %rbp
	subq	$48, %rsp
	movq	%rdi, -32(%rbp)
	movq	%rsi, -24(%rbp)
	movq	%rdx, -16(%rbp)
	movq	%rcx, -8(%rbp)
Ltmp529:
	.loc	9 1747 14 prologue_end
	callq	__ZN4core3str6traits54_$LT$impl$u20$core..cmp..PartialEq$u20$for$u20$str$GT$2eq17h8b57260ae4e22ec9E
	movb	%al, -33(%rbp)
	.loc	9 0 14 is_stmt 0
	movb	-33(%rbp), %al
	.loc	9 1747 13
	xorb	$-1, %al
	.loc	9 1748 10 is_stmt 1
	andb	$1, %al
	movzbl	%al, %eax
	addq	$48, %rsp
	popq	%rbp
	retq
Ltmp530:
Lfunc_end169:
	.cfi_endproc

	.p2align	4, 0x90
__ZN4core3str6traits66_$LT$impl$u20$core..ops..index..Index$LT$I$GT$$u20$for$u20$str$GT$5index17ha9f5e9a6291e1254E:
Lfunc_begin170:
	.loc	9 1777 0
	.cfi_startproc
	pushq	%rbp
	.cfi_def_cfa_offset 16
	.cfi_offset %rbp, -16
	movq	%rsp, %rbp
	.cfi_def_cfa_register %rbp
	subq	$48, %rsp
	movq	%rdi, -24(%rbp)
	movq	%rsi, -16(%rbp)
Ltmp531:
	.loc	9 1778 13 prologue_end
	callq	__ZN4core3str6traits92_$LT$impl$u20$core..slice..SliceIndex$LT$str$GT$$u20$for$u20$core..ops..range..RangeFull$GT$5index17hb81f260dffa1ed88E
	movq	%rax, -32(%rbp)
	movq	%rdx, -40(%rbp)
	.loc	9 0 13 is_stmt 0
	movq	-32(%rbp), %rax
	movq	-40(%rbp), %rdx
	.loc	9 1779 10 is_stmt 1
	addq	$48, %rsp
	popq	%rbp
	retq
Ltmp532:
Lfunc_end170:
	.cfi_endproc

	.p2align	4, 0x90
__ZN4core3str6traits92_$LT$impl$u20$core..slice..SliceIndex$LT$str$GT$$u20$for$u20$core..ops..range..RangeFull$GT$5index17hb81f260dffa1ed88E:
Lfunc_begin171:
	.loc	9 1832 0
	.cfi_startproc
	pushq	%rbp
	.cfi_def_cfa_offset 16
	.cfi_offset %rbp, -16
	movq	%rsp, %rbp
	.cfi_def_cfa_register %rbp
	subq	$32, %rsp
	movq	%rdi, -16(%rbp)
	movq	%rsi, -8(%rbp)
Ltmp533:
	.loc	9 1834 10 prologue_end
	movq	%rdi, %rax
	movq	%rdx, -32(%rbp)
	movq	%rsi, %rdx
	addq	$32, %rsp
	popq	%rbp
	retq
Ltmp534:
Lfunc_end171:
	.cfi_endproc

	.p2align	4, 0x90
__ZN4core4char7methods15encode_utf8_raw17heff7edb5adcfa529E:
Lfunc_begin172:
	.file	25 "/rustc/6c8927b0cf80ceee19386026cf9d7fd4fd9d486f/src/libcore/char/methods.rs"
	.loc	25 1621 0
	.cfi_startproc
	pushq	%rbp
	.cfi_def_cfa_offset 16
	.cfi_offset %rbp, -16
	movq	%rsp, %rbp
	.cfi_def_cfa_register %rbp
	subq	$432, %rsp
	movl	%edi, -292(%rbp)
	movq	%rsi, -120(%rbp)
	movq	%rdx, -112(%rbp)
Ltmp535:
	.loc	25 1622 24 prologue_end
	movl	-292(%rbp), %edi
	movq	%rsi, -304(%rbp)
	movq	%rdx, -312(%rbp)
	.loc	25 1622 15 is_stmt 0
	callq	__ZN4core4char7methods8len_utf817h7a71fa72ba782459E
	movq	%rax, -288(%rbp)
	.loc	25 0 15
	leaq	l___unnamed_4(%rip), %rax
Ltmp536:
	.loc	25 1623 12 is_stmt 1
	movq	-288(%rbp), %rcx
	movq	-304(%rbp), %rdi
	movq	-312(%rbp), %rsi
	.loc	25 1623 22 is_stmt 0
	movq	%rax, %rdx
	movq	%rcx, -320(%rbp)
	callq	__ZN4core5slice77_$LT$impl$u20$core..ops..index..IndexMut$LT$I$GT$$u20$for$u20$$u5b$T$u5d$$GT$9index_mut17h194c8312bfd936c8E
	movq	%rax, -328(%rbp)
	movq	%rdx, -336(%rbp)
	.loc	25 0 22
	movq	-320(%rbp), %rax
	.loc	25 1623 11
	movq	%rax, -280(%rbp)
	movq	-328(%rbp), %rcx
	movq	%rcx, -272(%rbp)
	movq	-336(%rbp), %rdx
	movq	%rdx, -264(%rbp)
	.loc	25 1624 10 is_stmt 1
	movq	-280(%rbp), %rsi
	decq	%rsi
	movq	%rsi, %rdi
	subq	$3, %rdi
	movq	%rsi, -344(%rbp)
	ja	LBB172_4
	.loc	25 0 10 is_stmt 0
	leaq	LJTI172_0(%rip), %rax
	movq	-344(%rbp), %rcx
	movslq	(%rax,%rcx,4), %rdx
	addq	%rax, %rdx
	jmpq	*%rdx
LBB172_3:
	.loc	25 1624 13
	cmpq	$1, -264(%rbp)
	jae	LBB172_8
LBB172_4:
	.loc	25 1643 13 is_stmt 1
	movq	l___unnamed_5(%rip), %rax
	movq	-304(%rbp), %rdi
	movq	-312(%rbp), %rsi
	movq	%rax, -352(%rbp)
	.loc	25 1646 13
	callq	__ZN4core5slice29_$LT$impl$u20$$u5b$T$u5d$$GT$3len17h6b4b184221af13daE
	movq	%rax, -136(%rbp)
	jmp	LBB172_12
LBB172_5:
	.loc	25 1627 13
	cmpq	$2, -264(%rbp)
	jae	LBB172_9
	jmp	LBB172_4
LBB172_6:
	.loc	25 1631 13
	cmpq	$3, -264(%rbp)
	jae	LBB172_10
	jmp	LBB172_4
LBB172_7:
	.loc	25 1636 13
	cmpq	$4, -264(%rbp)
	jae	LBB172_11
	jmp	LBB172_4
LBB172_8:
	.loc	25 1624 14
	movq	-272(%rbp), %rax
	movq	%rax, -32(%rbp)
Ltmp537:
	.loc	25 1625 18
	movl	-292(%rbp), %ecx
	.loc	25 1625 13 is_stmt 0
	movb	%cl, (%rax)
Ltmp538:
	.loc	25 1623 5 is_stmt 1
	jmp	LBB172_17
LBB172_9:
	.loc	25 1627 14
	movq	-272(%rbp), %rax
	movq	%rax, -48(%rbp)
	.loc	25 1627 17 is_stmt 0
	movq	-272(%rbp), %rcx
	movq	%rcx, %rdx
	addq	$1, %rdx
	movq	%rdx, -40(%rbp)
Ltmp539:
	.loc	25 1628 19 is_stmt 1
	movl	-292(%rbp), %esi
	shrl	$6, %esi
	.loc	25 1628 18 is_stmt 0
	andl	$31, %esi
	.loc	25 1628 13
	orb	$-64, %sil
	movb	%sil, (%rax)
	.loc	25 1629 19 is_stmt 1
	movl	-292(%rbp), %edi
	.loc	25 1629 18 is_stmt 0
	andl	$63, %edi
	.loc	25 1629 13
	orb	$-128, %dil
	movb	%dil, 1(%rcx)
Ltmp540:
	.loc	25 1623 5 is_stmt 1
	jmp	LBB172_17
LBB172_10:
	.loc	25 1631 14
	movq	-272(%rbp), %rax
	movq	%rax, -72(%rbp)
	.loc	25 1631 17 is_stmt 0
	movq	-272(%rbp), %rcx
	movq	%rcx, %rdx
	addq	$1, %rdx
	movq	%rdx, -64(%rbp)
	.loc	25 1631 20
	movq	-272(%rbp), %rdx
	movq	%rdx, %rsi
	addq	$2, %rsi
	movq	%rsi, -56(%rbp)
Ltmp541:
	.loc	25 1632 19 is_stmt 1
	movl	-292(%rbp), %edi
	shrl	$12, %edi
	.loc	25 1632 18 is_stmt 0
	andl	$15, %edi
	.loc	25 1632 13
	orb	$-32, %dil
	movb	%dil, (%rax)
	.loc	25 1633 19 is_stmt 1
	movl	-292(%rbp), %r8d
	shrl	$6, %r8d
	.loc	25 1633 18 is_stmt 0
	andl	$63, %r8d
	.loc	25 1633 13
	orb	$-128, %r8b
	movb	%r8b, 1(%rcx)
	.loc	25 1634 19 is_stmt 1
	movl	-292(%rbp), %r9d
	.loc	25 1634 18 is_stmt 0
	andl	$63, %r9d
	.loc	25 1634 13
	orb	$-128, %r9b
	movb	%r9b, 2(%rdx)
Ltmp542:
	.loc	25 1623 5 is_stmt 1
	jmp	LBB172_17
LBB172_11:
	.loc	25 1636 14
	movq	-272(%rbp), %rax
	movq	%rax, -104(%rbp)
	.loc	25 1636 17 is_stmt 0
	movq	-272(%rbp), %rcx
	movq	%rcx, %rdx
	addq	$1, %rdx
	movq	%rdx, -96(%rbp)
	.loc	25 1636 20
	movq	-272(%rbp), %rdx
	movq	%rdx, %rsi
	addq	$2, %rsi
	movq	%rsi, -88(%rbp)
	.loc	25 1636 23
	movq	-272(%rbp), %rsi
	movq	%rsi, %rdi
	addq	$3, %rdi
	movq	%rdi, -80(%rbp)
Ltmp543:
	.loc	25 1637 19 is_stmt 1
	movl	-292(%rbp), %r8d
	shrl	$18, %r8d
	.loc	25 1637 18 is_stmt 0
	andl	$7, %r8d
	.loc	25 1637 13
	orb	$-16, %r8b
	movb	%r8b, (%rax)
	.loc	25 1638 19 is_stmt 1
	movl	-292(%rbp), %r9d
	shrl	$12, %r9d
	.loc	25 1638 18 is_stmt 0
	andl	$63, %r9d
	.loc	25 1638 13
	orb	$-128, %r9b
	movb	%r9b, 1(%rcx)
	.loc	25 1639 19 is_stmt 1
	movl	-292(%rbp), %r10d
	shrl	$6, %r10d
	.loc	25 1639 18 is_stmt 0
	andl	$63, %r10d
	.loc	25 1639 13
	orb	$-128, %r10b
	movb	%r10b, 2(%rdx)
	.loc	25 1640 19 is_stmt 1
	movl	-292(%rbp), %r11d
	.loc	25 1640 18 is_stmt 0
	andl	$63, %r11d
	.loc	25 1640 13
	orb	$-128, %r11b
	movb	%r11b, 3(%rsi)
Ltmp544:
	.loc	25 1623 5 is_stmt 1
	jmp	LBB172_17
LBB172_12:
	.loc	25 0 5 is_stmt 0
	movq	__ZN4core3fmt3num3imp54_$LT$impl$u20$core..fmt..Display$u20$for$u20$usize$GT$3fmt17h12ea2856299c9b06E@GOTPCREL(%rip), %rsi
	.file	26 "/rustc/6c8927b0cf80ceee19386026cf9d7fd4fd9d486f/src/libcore/macros/mod.rs"
	.loc	26 19 38 is_stmt 1
	leaq	-288(%rbp), %rax
	movq	%rax, -160(%rbp)
	leaq	-292(%rbp), %rax
	movq	%rax, -152(%rbp)
	leaq	-136(%rbp), %rax
	movq	%rax, -144(%rbp)
	.loc	25 1644 13
	movq	-160(%rbp), %rax
	movq	%rax, -24(%rbp)
	.loc	25 1645 13
	movq	-152(%rbp), %rcx
	movq	%rcx, -16(%rbp)
	.loc	25 1646 13
	movq	-144(%rbp), %rdx
	movq	%rdx, -8(%rbp)
Ltmp545:
	.loc	26 19 38
	movq	%rax, %rdi
	movq	%rcx, -360(%rbp)
	movq	%rdx, -368(%rbp)
	callq	__ZN4core3fmt10ArgumentV13new17h46575f640af11023E
	movq	%rax, -376(%rbp)
	movq	%rdx, -384(%rbp)
	.loc	26 0 38 is_stmt 0
	movq	__ZN4core3fmt3num53_$LT$impl$u20$core..fmt..UpperHex$u20$for$u20$u32$GT$3fmt17h7bd10b5f3c9584f1E@GOTPCREL(%rip), %rsi
	movq	-360(%rbp), %rdi
	.loc	26 19 38
	callq	__ZN4core3fmt10ArgumentV13new17hfa1a88c66f34cea4E
	movq	%rax, -392(%rbp)
	movq	%rdx, -400(%rbp)
	.loc	26 0 38
	movq	__ZN4core3fmt3num3imp54_$LT$impl$u20$core..fmt..Display$u20$for$u20$usize$GT$3fmt17h12ea2856299c9b06E@GOTPCREL(%rip), %rsi
	movq	-368(%rbp), %rdi
	.loc	26 19 38
	callq	__ZN4core3fmt10ArgumentV13new17h46575f640af11023E
	movq	%rax, -408(%rbp)
	movq	%rdx, -416(%rbp)
	.loc	26 0 38
	movq	-376(%rbp), %rax
	.loc	26 19 38
	movq	%rax, -208(%rbp)
	movq	-384(%rbp), %rcx
	movq	%rcx, -200(%rbp)
	movq	-392(%rbp), %rdx
	movq	%rdx, -192(%rbp)
	movq	-400(%rbp), %rsi
	movq	%rsi, -184(%rbp)
	movq	-408(%rbp), %rdi
	movq	%rdi, -176(%rbp)
	movq	-416(%rbp), %r8
	movq	%r8, -168(%rbp)
Ltmp546:
	.loc	26 19 38
	leaq	-208(%rbp), %r9
	leaq	-256(%rbp), %rdi
	movq	-352(%rbp), %rsi
	movl	$3, %r10d
	movq	%r10, %rdx
	movq	%r9, %rcx
	movq	%r10, %r8
	callq	__ZN4core3fmt9Arguments6new_v117h0797c3e8933a828cE
	.loc	26 19 9
	leaq	l___unnamed_6(%rip), %rsi
	leaq	-256(%rbp), %rdi
	callq	__ZN4core9panicking9panic_fmt17hfce5b7173905fc53E
LBB172_17:
	.loc	26 0 9
	leaq	l___unnamed_7(%rip), %rax
	.loc	25 1649 16 is_stmt 1
	movq	-288(%rbp), %rcx
	.loc	25 1649 14 is_stmt 0
	movq	%rcx, -128(%rbp)
	.loc	25 1649 10
	movq	-128(%rbp), %rdx
	movq	-304(%rbp), %rdi
	movq	-312(%rbp), %rsi
	movq	%rax, %rcx
	callq	__ZN4core5slice77_$LT$impl$u20$core..ops..index..IndexMut$LT$I$GT$$u20$for$u20$$u5b$T$u5d$$GT$9index_mut17h48bb07661534b650E
	movq	%rax, -424(%rbp)
	movq	%rdx, -432(%rbp)
Ltmp547:
	.loc	25 0 10
	movq	-424(%rbp), %rax
	movq	-432(%rbp), %rdx
	.loc	25 1650 2 is_stmt 1
	addq	$432, %rsp
	popq	%rbp
	retq
Ltmp548:
Lfunc_end172:
	.cfi_endproc
	.p2align	2, 0x90
	.data_region jt32
.set L172_0_set_3, LBB172_3-LJTI172_0
.set L172_0_set_5, LBB172_5-LJTI172_0
.set L172_0_set_6, LBB172_6-LJTI172_0
.set L172_0_set_7, LBB172_7-LJTI172_0
LJTI172_0:
	.long	L172_0_set_3
	.long	L172_0_set_5
	.long	L172_0_set_6
	.long	L172_0_set_7
	.end_data_region

	.p2align	4, 0x90
__ZN4core4char7methods22_$LT$impl$u20$char$GT$11encode_utf817he9f5ec44f27e7626E:
Lfunc_begin173:
	.loc	25 642 0
	.cfi_startproc
	pushq	%rbp
	.cfi_def_cfa_offset 16
	.cfi_offset %rbp, -16
	movq	%rsp, %rbp
	.cfi_def_cfa_register %rbp
	subq	$64, %rsp
	movl	%edi, -20(%rbp)
	movq	%rsi, -16(%rbp)
	movq	%rdx, -8(%rbp)
Ltmp549:
	.loc	25 644 42 prologue_end
	callq	__ZN4core4char7methods15encode_utf8_raw17heff7edb5adcfa529E
	movq	%rax, -32(%rbp)
	movq	%rdx, -40(%rbp)
	.loc	25 0 42 is_stmt 0
	movq	-32(%rbp), %rdi
	movq	-40(%rbp), %rsi
	.loc	25 644 18
	callq	__ZN4core3str23from_utf8_unchecked_mut17h0611f02cb5ab9950E
	movq	%rax, -48(%rbp)
	movq	%rdx, -56(%rbp)
	.loc	25 0 18
	movq	-48(%rbp), %rax
	movq	-56(%rbp), %rdx
	.loc	25 645 6 is_stmt 1
	addq	$64, %rsp
	popq	%rbp
	retq
Ltmp550:
Lfunc_end173:
	.cfi_endproc

	.p2align	4, 0x90
__ZN4core4char7methods8len_utf817h7a71fa72ba782459E:
Lfunc_begin174:
	.loc	25 1593 0
	.cfi_startproc
	pushq	%rbp
	.cfi_def_cfa_offset 16
	.cfi_offset %rbp, -16
	movq	%rsp, %rbp
	.cfi_def_cfa_register %rbp
	subq	$24, %rsp
	movl	%edi, -4(%rbp)
Ltmp551:
	.loc	25 1594 8 prologue_end
	cmpl	$128, %edi
	movl	%edi, -20(%rbp)
	.loc	25 1594 5 is_stmt 0
	jb	LBB174_2
	.loc	25 0 5
	movl	-20(%rbp), %eax
	.loc	25 1596 15 is_stmt 1
	cmpl	$2048, %eax
	.loc	25 1596 12 is_stmt 0
	jb	LBB174_4
	jmp	LBB174_3
LBB174_2:
	.loc	25 1595 9 is_stmt 1
	movq	$1, -16(%rbp)
	.loc	25 1594 5
	jmp	LBB174_9
LBB174_3:
	.loc	25 0 5 is_stmt 0
	movl	-20(%rbp), %eax
	.loc	25 1598 15 is_stmt 1
	cmpl	$65536, %eax
	.loc	25 1598 12 is_stmt 0
	jb	LBB174_6
	jmp	LBB174_5
LBB174_4:
	.loc	25 1597 9 is_stmt 1
	movq	$2, -16(%rbp)
	.loc	25 1596 12
	jmp	LBB174_8
LBB174_5:
	.loc	25 1601 9
	movq	$4, -16(%rbp)
	.loc	25 1598 12
	jmp	LBB174_7
LBB174_6:
	.loc	25 1599 9
	movq	$3, -16(%rbp)
LBB174_7:
	.loc	25 1596 12
	jmp	LBB174_8
LBB174_8:
	.loc	25 1594 5
	jmp	LBB174_9
LBB174_9:
	.loc	25 1603 2
	movq	-16(%rbp), %rax
	addq	$24, %rsp
	popq	%rbp
	retq
Ltmp552:
Lfunc_end174:
	.cfi_endproc

	.p2align	4, 0x90
__ZN4core5alloc6layout10size_align17h3ab121da9c34ed46E:
Lfunc_begin175:
	.file	27 "/rustc/6c8927b0cf80ceee19386026cf9d7fd4fd9d486f/src/libcore/alloc/layout.rs"
	.loc	27 7 0
	.cfi_startproc
	pushq	%rbp
	.cfi_def_cfa_offset 16
	.cfi_offset %rbp, -16
	movq	%rsp, %rbp
	.cfi_def_cfa_register %rbp
	subq	$48, %rsp
Ltmp553:
	.loc	17 310 5 prologue_end
	movq	$640, -16(%rbp)
	movq	-16(%rbp), %rax
	movq	%rax, -40(%rbp)
Ltmp554:
	.loc	17 451 5
	movq	$8, -8(%rbp)
	movq	-8(%rbp), %rax
	movq	%rax, -48(%rbp)
Ltmp555:
	.loc	17 0 5 is_stmt 0
	movq	-40(%rbp), %rax
	.loc	27 8 5 is_stmt 1
	movq	%rax, -32(%rbp)
	movq	-48(%rbp), %rcx
	movq	%rcx, -24(%rbp)
	.loc	27 9 2
	movq	-32(%rbp), %rax
	movq	-24(%rbp), %rdx
	addq	$48, %rsp
	popq	%rbp
	retq
Ltmp556:
Lfunc_end175:
	.cfi_endproc

	.p2align	4, 0x90
__ZN4core5alloc6layout10size_align17he2e253ab4ddebb31E:
Lfunc_begin176:
	.loc	27 7 0
	.cfi_startproc
	pushq	%rbp
	.cfi_def_cfa_offset 16
	.cfi_offset %rbp, -16
	movq	%rsp, %rbp
	.cfi_def_cfa_register %rbp
	subq	$48, %rsp
Ltmp557:
	.loc	17 310 5 prologue_end
	movq	$544, -16(%rbp)
	movq	-16(%rbp), %rax
	movq	%rax, -40(%rbp)
Ltmp558:
	.loc	17 451 5
	movq	$8, -8(%rbp)
	movq	-8(%rbp), %rax
	movq	%rax, -48(%rbp)
Ltmp559:
	.loc	17 0 5 is_stmt 0
	movq	-40(%rbp), %rax
	.loc	27 8 5 is_stmt 1
	movq	%rax, -32(%rbp)
	movq	-48(%rbp), %rcx
	movq	%rcx, -24(%rbp)
	.loc	27 9 2
	movq	-32(%rbp), %rax
	movq	-24(%rbp), %rdx
	addq	$48, %rsp
	popq	%rbp
	retq
Ltmp560:
Lfunc_end176:
	.cfi_endproc

	.p2align	4, 0x90
__ZN4core5alloc6layout6Layout25from_size_align_unchecked17h3b4b8fa5b514d4aeE:
Lfunc_begin177:
	.loc	27 92 0
	.cfi_startproc
	pushq	%rbp
	.cfi_def_cfa_offset 16
	.cfi_offset %rbp, -16
	movq	%rsp, %rbp
	.cfi_def_cfa_register %rbp
	subq	$48, %rsp
	movq	%rdi, -16(%rbp)
	movq	%rsi, -8(%rbp)
	movq	%rdi, -40(%rbp)
Ltmp561:
	.loc	27 94 48 prologue_end
	movq	%rsi, %rdi
	callq	__ZN4core3num12NonZeroUsize13new_unchecked17hf9236e5289cf5116E
	movq	%rax, -48(%rbp)
	.loc	27 0 48 is_stmt 0
	movq	-40(%rbp), %rax
	.loc	27 94 9
	movq	%rax, -32(%rbp)
	movq	-48(%rbp), %rcx
	movq	%rcx, -24(%rbp)
	.loc	27 95 6 is_stmt 1
	movq	-32(%rbp), %rax
	movq	-24(%rbp), %rdx
	addq	$48, %rsp
	popq	%rbp
	retq
Ltmp562:
Lfunc_end177:
	.cfi_endproc

	.p2align	4, 0x90
__ZN4core5alloc6layout6Layout3new17h5976bfc2c3154e4eE:
Lfunc_begin178:
	.loc	27 117 0
	.cfi_startproc
	pushq	%rbp
	.cfi_def_cfa_offset 16
	.cfi_offset %rbp, -16
	movq	%rsp, %rbp
	.cfi_def_cfa_register %rbp
	subq	$48, %rsp
Ltmp563:
	.loc	27 118 29 prologue_end
	callq	__ZN4core5alloc6layout10size_align17he2e253ab4ddebb31E
	movq	%rax, -24(%rbp)
	movq	%rdx, -32(%rbp)
	.loc	27 0 29 is_stmt 0
	movq	-24(%rbp), %rax
	.loc	27 118 14
	movq	%rax, -16(%rbp)
	movq	-32(%rbp), %rcx
	.loc	27 118 20
	movq	%rcx, -8(%rbp)
Ltmp564:
	.loc	27 123 18 is_stmt 1
	movq	%rax, %rdi
	movq	%rcx, %rsi
	callq	__ZN4core5alloc6layout6Layout25from_size_align_unchecked17h3b4b8fa5b514d4aeE
	movq	%rax, -40(%rbp)
	movq	%rdx, -48(%rbp)
Ltmp565:
	.loc	27 0 18 is_stmt 0
	movq	-40(%rbp), %rax
	movq	-48(%rbp), %rdx
	.loc	27 124 6 is_stmt 1
	addq	$48, %rsp
	popq	%rbp
	retq
Ltmp566:
Lfunc_end178:
	.cfi_endproc

	.p2align	4, 0x90
__ZN4core5alloc6layout6Layout3new17ha5a45e510e7f62c3E:
Lfunc_begin179:
	.loc	27 117 0
	.cfi_startproc
	pushq	%rbp
	.cfi_def_cfa_offset 16
	.cfi_offset %rbp, -16
	movq	%rsp, %rbp
	.cfi_def_cfa_register %rbp
	subq	$48, %rsp
Ltmp567:
	.loc	27 118 29 prologue_end
	callq	__ZN4core5alloc6layout10size_align17h3ab121da9c34ed46E
	movq	%rax, -24(%rbp)
	movq	%rdx, -32(%rbp)
	.loc	27 0 29 is_stmt 0
	movq	-24(%rbp), %rax
	.loc	27 118 14
	movq	%rax, -16(%rbp)
	movq	-32(%rbp), %rcx
	.loc	27 118 20
	movq	%rcx, -8(%rbp)
Ltmp568:
	.loc	27 123 18 is_stmt 1
	movq	%rax, %rdi
	movq	%rcx, %rsi
	callq	__ZN4core5alloc6layout6Layout25from_size_align_unchecked17h3b4b8fa5b514d4aeE
	movq	%rax, -40(%rbp)
	movq	%rdx, -48(%rbp)
Ltmp569:
	.loc	27 0 18 is_stmt 0
	movq	-40(%rbp), %rax
	movq	-48(%rbp), %rdx
	.loc	27 124 6 is_stmt 1
	addq	$48, %rsp
	popq	%rbp
	retq
Ltmp570:
Lfunc_end179:
	.cfi_endproc

	.p2align	4, 0x90
__ZN4core5alloc6layout6Layout4size17h1c667dc97b34e2ebE:
Lfunc_begin180:
	.loc	27 101 0
	.cfi_startproc
	pushq	%rbp
	.cfi_def_cfa_offset 16
	.cfi_offset %rbp, -16
	movq	%rsp, %rbp
	.cfi_def_cfa_register %rbp
	pushq	%rax
	movq	%rdi, -8(%rbp)
Ltmp571:
	.loc	27 102 9 prologue_end
	movq	(%rdi), %rax
	.loc	27 103 6
	addq	$8, %rsp
	popq	%rbp
	retq
Ltmp572:
Lfunc_end180:
	.cfi_endproc

	.p2align	4, 0x90
__ZN4core5alloc6layout6Layout5align17h720489a5f5931f09E:
Lfunc_begin181:
	.loc	27 109 0
	.cfi_startproc
	pushq	%rbp
	.cfi_def_cfa_offset 16
	.cfi_offset %rbp, -16
	movq	%rsp, %rbp
	.cfi_def_cfa_register %rbp
	subq	$16, %rsp
	movq	%rdi, -8(%rbp)
Ltmp573:
	.loc	27 110 9 prologue_end
	movq	8(%rdi), %rdi
	callq	__ZN4core3num12NonZeroUsize3get17h7cf5163478ab8129E
	movq	%rax, -16(%rbp)
	.loc	27 0 9 is_stmt 0
	movq	-16(%rbp), %rax
	.loc	27 111 6 is_stmt 1
	addq	$16, %rsp
	popq	%rbp
	retq
Ltmp574:
Lfunc_end181:
	.cfi_endproc

	.p2align	4, 0x90
__ZN4core5slice14from_raw_parts17h163a07612a42ed52E:
Lfunc_begin182:
	.loc	2 6094 0
	.cfi_startproc
	pushq	%rbp
	.cfi_def_cfa_offset 16
	.cfi_offset %rbp, -16
	movq	%rsp, %rbp
	.cfi_def_cfa_register %rbp
	subq	$32, %rsp
	movq	%rdi, -16(%rbp)
	movq	%rsi, -8(%rbp)
Ltmp575:
	.loc	2 6101 16 prologue_end
	callq	__ZN4core3ptr20slice_from_raw_parts17hbd94ad3127ccd184E
	movq	%rax, -24(%rbp)
	movq	%rdx, -32(%rbp)
	.loc	2 0 16 is_stmt 0
	movq	-24(%rbp), %rax
	movq	-32(%rbp), %rdx
	.loc	2 6102 2 is_stmt 1
	addq	$32, %rsp
	popq	%rbp
	retq
Ltmp576:
Lfunc_end182:
	.cfi_endproc

	.p2align	4, 0x90
__ZN4core5slice14from_raw_parts17h53cd18aa4c898af9E:
Lfunc_begin183:
	.loc	2 6094 0
	.cfi_startproc
	pushq	%rbp
	.cfi_def_cfa_offset 16
	.cfi_offset %rbp, -16
	movq	%rsp, %rbp
	.cfi_def_cfa_register %rbp
	subq	$32, %rsp
	movq	%rdi, -16(%rbp)
	movq	%rsi, -8(%rbp)
Ltmp577:
	.loc	2 6101 16 prologue_end
	callq	__ZN4core3ptr20slice_from_raw_parts17h523104dd2aed63f9E
	movq	%rax, -24(%rbp)
	movq	%rdx, -32(%rbp)
	.loc	2 0 16 is_stmt 0
	movq	-24(%rbp), %rax
	movq	-32(%rbp), %rdx
	.loc	2 6102 2 is_stmt 1
	addq	$32, %rsp
	popq	%rbp
	retq
Ltmp578:
Lfunc_end183:
	.cfi_endproc

	.p2align	4, 0x90
__ZN4core5slice14from_raw_parts17hff47ff242707e1a6E:
Lfunc_begin184:
	.loc	2 6094 0
	.cfi_startproc
	pushq	%rbp
	.cfi_def_cfa_offset 16
	.cfi_offset %rbp, -16
	movq	%rsp, %rbp
	.cfi_def_cfa_register %rbp
	subq	$32, %rsp
	movq	%rdi, -16(%rbp)
	movq	%rsi, -8(%rbp)
Ltmp579:
	.loc	2 6101 16 prologue_end
	callq	__ZN4core3ptr20slice_from_raw_parts17h203cf55c6a80e2beE
	movq	%rax, -24(%rbp)
	movq	%rdx, -32(%rbp)
	.loc	2 0 16 is_stmt 0
	movq	-24(%rbp), %rax
	movq	-32(%rbp), %rdx
	.loc	2 6102 2 is_stmt 1
	addq	$32, %rsp
	popq	%rbp
	retq
Ltmp580:
Lfunc_end184:
	.cfi_endproc

	.p2align	4, 0x90
__ZN4core5slice29_$LT$impl$u20$$u5b$T$u5d$$GT$11starts_with17h33d31f25c591a571E:
Lfunc_begin185:
	.loc	2 1431 0
	.cfi_startproc
	pushq	%rbp
	.cfi_def_cfa_offset 16
	.cfi_offset %rbp, -16
	movq	%rsp, %rbp
	.cfi_def_cfa_register %rbp
	subq	$128, %rsp
	movq	%rdx, -72(%rbp)
	movq	%rcx, -64(%rbp)
	movq	%rdi, -24(%rbp)
	movq	%rsi, -16(%rbp)
Ltmp581:
	.loc	2 1435 17 prologue_end
	movq	-72(%rbp), %rax
	movq	-64(%rbp), %rcx
	movq	%rdi, -80(%rbp)
	movq	%rax, %rdi
	movq	%rsi, -88(%rbp)
	movq	%rcx, %rsi
	callq	__ZN4core5slice29_$LT$impl$u20$$u5b$T$u5d$$GT$3len17h6b4b184221af13daE
	movq	%rax, -8(%rbp)
	movq	%rax, -96(%rbp)
	.loc	2 0 17 is_stmt 0
	movq	-80(%rbp), %rdi
	movq	-88(%rbp), %rsi
Ltmp582:
	.loc	2 1436 9 is_stmt 1
	callq	__ZN4core5slice29_$LT$impl$u20$$u5b$T$u5d$$GT$3len17h6b4b184221af13daE
	movq	%rax, -104(%rbp)
	jmp	LBB185_6
LBB185_2:
	movb	$1, -49(%rbp)
	jmp	LBB185_5
LBB185_3:
	movb	$0, -49(%rbp)
	jmp	LBB185_5
LBB185_4:
	.loc	2 0 9 is_stmt 0
	leaq	l___unnamed_8(%rip), %rax
	movq	-96(%rbp), %rcx
	.loc	2 1436 44
	movq	%rcx, -32(%rbp)
	.loc	2 1436 39
	movq	-32(%rbp), %rdx
	movq	-80(%rbp), %rdi
	movq	-88(%rbp), %rsi
	movq	%rax, %rcx
	callq	__ZN4core5slice74_$LT$impl$u20$core..ops..index..Index$LT$I$GT$$u20$for$u20$$u5b$T$u5d$$GT$5index17h31658e09dc408307E
	movq	%rax, -112(%rbp)
	movq	%rdx, -120(%rbp)
	jmp	LBB185_7
Ltmp583:
LBB185_5:
	.loc	2 1437 6 is_stmt 1
	movb	-49(%rbp), %al
	andb	$1, %al
	movzbl	%al, %eax
	addq	$128, %rsp
	popq	%rbp
	retq
LBB185_6:
	.loc	2 0 6 is_stmt 0
	movq	-104(%rbp), %rax
	movq	-96(%rbp), %rcx
Ltmp584:
	.loc	2 1436 9 is_stmt 1
	cmpq	%rcx, %rax
	jae	LBB185_4
	jmp	LBB185_3
LBB185_7:
	.loc	2 0 9 is_stmt 0
	movq	-112(%rbp), %rax
	.loc	2 1436 38
	movq	%rax, -48(%rbp)
	movq	-120(%rbp), %rcx
	movq	%rcx, -40(%rbp)
	.loc	2 1436 28
	leaq	-72(%rbp), %rdi
	leaq	-48(%rbp), %rsi
	callq	__ZN4core3cmp5impls69_$LT$impl$u20$core..cmp..PartialEq$LT$$RF$B$GT$$u20$for$u20$$RF$A$GT$2eq17hc50343f7e43dffc6E
	movb	%al, -121(%rbp)
	.loc	2 0 28
	movb	-121(%rbp), %al
	.loc	2 1436 9
	testb	$1, %al
	jne	LBB185_2
	jmp	LBB185_3
Ltmp585:
Lfunc_end185:
	.cfi_endproc

	.p2align	4, 0x90
__ZN4core5slice29_$LT$impl$u20$$u5b$T$u5d$$GT$13get_unchecked17h12484d9b4117ea96E:
Lfunc_begin186:
	.loc	2 309 0 is_stmt 1
	.cfi_startproc
	pushq	%rbp
	.cfi_def_cfa_offset 16
	.cfi_offset %rbp, -16
	movq	%rsp, %rbp
	.cfi_def_cfa_register %rbp
	subq	$48, %rsp
	movq	%rdi, -24(%rbp)
	movq	%rsi, -16(%rbp)
	movq	%rdx, -8(%rbp)
	movq	%rdi, -32(%rbp)
Ltmp586:
	.loc	2 316 20 prologue_end
	movq	%rdx, %rdi
	movq	-32(%rbp), %rax
	movq	%rsi, -40(%rbp)
	movq	%rax, %rsi
	movq	-40(%rbp), %rdx
	callq	__ZN68_$LT$usize$u20$as$u20$core..slice..SliceIndex$LT$$u5b$T$u5d$$GT$$GT$13get_unchecked17ha06bc6b13a46f1dbE
	movq	%rax, -48(%rbp)
	.loc	2 0 20 is_stmt 0
	movq	-48(%rbp), %rax
	.loc	2 317 6 is_stmt 1
	addq	$48, %rsp
	popq	%rbp
	retq
Ltmp587:
Lfunc_end186:
	.cfi_endproc

	.p2align	4, 0x90
__ZN4core5slice29_$LT$impl$u20$$u5b$T$u5d$$GT$13get_unchecked17hb7aef0acd2394e79E:
Lfunc_begin187:
	.loc	2 309 0
	.cfi_startproc
	pushq	%rbp
	.cfi_def_cfa_offset 16
	.cfi_offset %rbp, -16
	movq	%rsp, %rbp
	.cfi_def_cfa_register %rbp
	subq	$48, %rsp
	movq	%rdi, -24(%rbp)
	movq	%rsi, -16(%rbp)
	movq	%rdx, -8(%rbp)
	movq	%rdi, -32(%rbp)
Ltmp588:
	.loc	2 316 20 prologue_end
	movq	%rdx, %rdi
	movq	-32(%rbp), %rax
	movq	%rsi, -40(%rbp)
	movq	%rax, %rsi
	movq	-40(%rbp), %rdx
	callq	__ZN68_$LT$usize$u20$as$u20$core..slice..SliceIndex$LT$$u5b$T$u5d$$GT$$GT$13get_unchecked17h30874b4919397dfbE
	movq	%rax, -48(%rbp)
	.loc	2 0 20 is_stmt 0
	movq	-48(%rbp), %rax
	.loc	2 317 6 is_stmt 1
	addq	$48, %rsp
	popq	%rbp
	retq
Ltmp589:
Lfunc_end187:
	.cfi_endproc

	.p2align	4, 0x90
__ZN4core5slice29_$LT$impl$u20$$u5b$T$u5d$$GT$13get_unchecked17hb9e2a9afd02439f1E:
Lfunc_begin188:
	.loc	2 309 0
	.cfi_startproc
	pushq	%rbp
	.cfi_def_cfa_offset 16
	.cfi_offset %rbp, -16
	movq	%rsp, %rbp
	.cfi_def_cfa_register %rbp
	subq	$48, %rsp
	movq	%rdi, -24(%rbp)
	movq	%rsi, -16(%rbp)
	movq	%rdx, -8(%rbp)
	movq	%rdi, -32(%rbp)
Ltmp590:
	.loc	2 316 20 prologue_end
	movq	%rdx, %rdi
	movq	-32(%rbp), %rax
	movq	%rsi, -40(%rbp)
	movq	%rax, %rsi
	movq	-40(%rbp), %rdx
	callq	__ZN68_$LT$usize$u20$as$u20$core..slice..SliceIndex$LT$$u5b$T$u5d$$GT$$GT$13get_unchecked17ha021801d1db4cfa1E
	movq	%rax, -48(%rbp)
	.loc	2 0 20 is_stmt 0
	movq	-48(%rbp), %rax
	.loc	2 317 6 is_stmt 1
	addq	$48, %rsp
	popq	%rbp
	retq
Ltmp591:
Lfunc_end188:
	.cfi_endproc

	.p2align	4, 0x90
__ZN4core5slice29_$LT$impl$u20$$u5b$T$u5d$$GT$13get_unchecked17heef1dd61e8a76bf0E:
Lfunc_begin189:
	.loc	2 309 0
	.cfi_startproc
	pushq	%rbp
	.cfi_def_cfa_offset 16
	.cfi_offset %rbp, -16
	movq	%rsp, %rbp
	.cfi_def_cfa_register %rbp
	subq	$48, %rsp
	movq	%rdi, -24(%rbp)
	movq	%rsi, -16(%rbp)
	movq	%rdx, -8(%rbp)
	movq	%rdi, -32(%rbp)
Ltmp592:
	.loc	2 316 20 prologue_end
	movq	%rdx, %rdi
	movq	-32(%rbp), %rax
	movq	%rsi, -40(%rbp)
	movq	%rax, %rsi
	movq	-40(%rbp), %rdx
	callq	__ZN68_$LT$usize$u20$as$u20$core..slice..SliceIndex$LT$$u5b$T$u5d$$GT$$GT$13get_unchecked17h76d9c4a1cfba8459E
	movq	%rax, -48(%rbp)
	.loc	2 0 20 is_stmt 0
	movq	-48(%rbp), %rax
	.loc	2 317 6 is_stmt 1
	addq	$48, %rsp
	popq	%rbp
	retq
Ltmp593:
Lfunc_end189:
	.cfi_endproc

	.p2align	4, 0x90
__ZN4core5slice29_$LT$impl$u20$$u5b$T$u5d$$GT$17get_unchecked_mut17hdde7055773471c2eE:
Lfunc_begin190:
	.loc	2 343 0
	.cfi_startproc
	pushq	%rbp
	.cfi_def_cfa_offset 16
	.cfi_offset %rbp, -16
	movq	%rsp, %rbp
	.cfi_def_cfa_register %rbp
	subq	$48, %rsp
	movq	%rdi, -24(%rbp)
	movq	%rsi, -16(%rbp)
	movq	%rdx, -8(%rbp)
	movq	%rdi, -32(%rbp)
Ltmp594:
	.loc	2 350 24 prologue_end
	movq	%rdx, %rdi
	movq	-32(%rbp), %rax
	movq	%rsi, -40(%rbp)
	movq	%rax, %rsi
	movq	-40(%rbp), %rdx
	callq	__ZN68_$LT$usize$u20$as$u20$core..slice..SliceIndex$LT$$u5b$T$u5d$$GT$$GT$17get_unchecked_mut17hb1023f9e79a8406bE
	movq	%rax, -48(%rbp)
	.loc	2 0 24 is_stmt 0
	movq	-48(%rbp), %rax
	.loc	2 351 6 is_stmt 1
	addq	$48, %rsp
	popq	%rbp
	retq
Ltmp595:
Lfunc_end190:
	.cfi_endproc

	.p2align	4, 0x90
__ZN4core5slice29_$LT$impl$u20$$u5b$T$u5d$$GT$3get17hdacbd7d8f04031faE:
Lfunc_begin191:
	.loc	2 256 0
	.cfi_startproc
	pushq	%rbp
	.cfi_def_cfa_offset 16
	.cfi_offset %rbp, -16
	movq	%rsp, %rbp
	.cfi_def_cfa_register %rbp
	subq	$64, %rsp
	movq	%rdi, -32(%rbp)
	movq	%rsi, -24(%rbp)
	movq	%rdx, -16(%rbp)
	movq	%rcx, -8(%rbp)
	movq	%rdi, -40(%rbp)
Ltmp596:
	.loc	2 260 9 prologue_end
	movq	%rdx, %rdi
	movq	%rsi, -48(%rbp)
	movq	%rcx, %rsi
	movq	-40(%rbp), %rdx
	movq	-48(%rbp), %rcx
	callq	__ZN99_$LT$core..ops..range..Range$LT$usize$GT$$u20$as$u20$core..slice..SliceIndex$LT$$u5b$T$u5d$$GT$$GT$3get17hfb5ba2ab5ce1b42aE
	movq	%rax, -56(%rbp)
	movq	%rdx, -64(%rbp)
	.loc	2 0 9 is_stmt 0
	movq	-56(%rbp), %rax
	movq	-64(%rbp), %rdx
	.loc	2 261 6 is_stmt 1
	addq	$64, %rsp
	popq	%rbp
	retq
Ltmp597:
Lfunc_end191:
	.cfi_endproc

	.p2align	4, 0x90
__ZN4core5slice29_$LT$impl$u20$$u5b$T$u5d$$GT$3len17h6b4b184221af13daE:
Lfunc_begin192:
	.loc	2 72 0
	.cfi_startproc
	pushq	%rbp
	.cfi_def_cfa_offset 16
	.cfi_offset %rbp, -16
	movq	%rsp, %rbp
	.cfi_def_cfa_register %rbp
	subq	$32, %rsp
	movq	%rdi, -16(%rbp)
	movq	%rsi, -8(%rbp)
Ltmp598:
	.loc	2 73 18 prologue_end
	movq	%rdi, -32(%rbp)
	movq	%rsi, -24(%rbp)
	movq	-24(%rbp), %rax
	.loc	2 74 6
	addq	$32, %rsp
	popq	%rbp
	retq
Ltmp599:
Lfunc_end192:
	.cfi_endproc

	.p2align	4, 0x90
__ZN4core5slice29_$LT$impl$u20$$u5b$T$u5d$$GT$6as_ptr17h5d101cd24b4a935dE:
Lfunc_begin193:
	.loc	2 382 0
	.cfi_startproc
	pushq	%rbp
	.cfi_def_cfa_offset 16
	.cfi_offset %rbp, -16
	movq	%rsp, %rbp
	.cfi_def_cfa_register %rbp
	subq	$16, %rsp
	movq	%rdi, -16(%rbp)
	movq	%rsi, -8(%rbp)
Ltmp600:
	.loc	2 384 6 prologue_end
	movq	%rdi, %rax
	addq	$16, %rsp
	popq	%rbp
	retq
Ltmp601:
Lfunc_end193:
	.cfi_endproc

	.p2align	4, 0x90
__ZN4core5slice74_$LT$impl$u20$core..ops..index..Index$LT$I$GT$$u20$for$u20$$u5b$T$u5d$$GT$5index17h31658e09dc408307E:
Lfunc_begin194:
	.loc	2 2958 0
	.cfi_startproc
	pushq	%rbp
	.cfi_def_cfa_offset 16
	.cfi_offset %rbp, -16
	movq	%rsp, %rbp
	.cfi_def_cfa_register %rbp
	subq	$64, %rsp
	movq	%rdi, -24(%rbp)
	movq	%rsi, -16(%rbp)
	movq	%rdx, -8(%rbp)
	movq	%rdi, -32(%rbp)
Ltmp602:
	.loc	2 2959 9 prologue_end
	movq	%rdx, %rdi
	movq	-32(%rbp), %rax
	movq	%rsi, -40(%rbp)
	movq	%rax, %rsi
	movq	-40(%rbp), %rdx
	callq	__ZN101_$LT$core..ops..range..RangeTo$LT$usize$GT$$u20$as$u20$core..slice..SliceIndex$LT$$u5b$T$u5d$$GT$$GT$5index17h91c5c7f483eab20fE
	movq	%rax, -48(%rbp)
	movq	%rdx, -56(%rbp)
	.loc	2 0 9 is_stmt 0
	movq	-48(%rbp), %rax
	movq	-56(%rbp), %rdx
	.loc	2 2960 6 is_stmt 1
	addq	$64, %rsp
	popq	%rbp
	retq
Ltmp603:
Lfunc_end194:
	.cfi_endproc

	.p2align	4, 0x90
__ZN4core5slice74_$LT$impl$u20$core..ops..index..Index$LT$I$GT$$u20$for$u20$$u5b$T$u5d$$GT$5index17hf415833a48fadaeaE:
Lfunc_begin195:
	.loc	2 2958 0
	.cfi_startproc
	pushq	%rbp
	.cfi_def_cfa_offset 16
	.cfi_offset %rbp, -16
	movq	%rsp, %rbp
	.cfi_def_cfa_register %rbp
	subq	$64, %rsp
	movq	%rdi, -32(%rbp)
	movq	%rsi, -24(%rbp)
	movq	%rdx, -16(%rbp)
	movq	%rcx, -8(%rbp)
	movq	%rdi, -40(%rbp)
Ltmp604:
	.loc	2 2959 9 prologue_end
	movq	%rdx, %rdi
	movq	%rsi, -48(%rbp)
	movq	%rcx, %rsi
	movq	-40(%rbp), %rdx
	movq	-48(%rbp), %rcx
	callq	__ZN99_$LT$core..ops..range..Range$LT$usize$GT$$u20$as$u20$core..slice..SliceIndex$LT$$u5b$T$u5d$$GT$$GT$5index17h20baa5a4b723722eE
	movq	%rax, -56(%rbp)
	movq	%rdx, -64(%rbp)
	.loc	2 0 9 is_stmt 0
	movq	-56(%rbp), %rax
	movq	-64(%rbp), %rdx
	.loc	2 2960 6 is_stmt 1
	addq	$64, %rsp
	popq	%rbp
	retq
Ltmp605:
Lfunc_end195:
	.cfi_endproc

	.p2align	4, 0x90
__ZN4core5slice77_$LT$impl$u20$core..ops..index..IndexMut$LT$I$GT$$u20$for$u20$$u5b$T$u5d$$GT$9index_mut17h194c8312bfd936c8E:
Lfunc_begin196:
	.loc	2 2969 0
	.cfi_startproc
	pushq	%rbp
	.cfi_def_cfa_offset 16
	.cfi_offset %rbp, -16
	movq	%rsp, %rbp
	.cfi_def_cfa_register %rbp
	subq	$48, %rsp
	movq	%rdi, -24(%rbp)
	movq	%rsi, -16(%rbp)
Ltmp606:
	.loc	2 2970 9 prologue_end
	callq	__ZN90_$LT$core..ops..range..RangeFull$u20$as$u20$core..slice..SliceIndex$LT$$u5b$T$u5d$$GT$$GT$9index_mut17h19a1e9f54a528b80E
	movq	%rax, -32(%rbp)
	movq	%rdx, -40(%rbp)
	.loc	2 0 9 is_stmt 0
	movq	-32(%rbp), %rax
	movq	-40(%rbp), %rdx
	.loc	2 2971 6 is_stmt 1
	addq	$48, %rsp
	popq	%rbp
	retq
Ltmp607:
Lfunc_end196:
	.cfi_endproc

	.p2align	4, 0x90
__ZN4core5slice77_$LT$impl$u20$core..ops..index..IndexMut$LT$I$GT$$u20$for$u20$$u5b$T$u5d$$GT$9index_mut17h48bb07661534b650E:
Lfunc_begin197:
	.loc	2 2969 0
	.cfi_startproc
	pushq	%rbp
	.cfi_def_cfa_offset 16
	.cfi_offset %rbp, -16
	movq	%rsp, %rbp
	.cfi_def_cfa_register %rbp
	subq	$64, %rsp
	movq	%rdi, -24(%rbp)
	movq	%rsi, -16(%rbp)
	movq	%rdx, -8(%rbp)
	movq	%rdi, -32(%rbp)
Ltmp608:
	.loc	2 2970 9 prologue_end
	movq	%rdx, %rdi
	movq	-32(%rbp), %rax
	movq	%rsi, -40(%rbp)
	movq	%rax, %rsi
	movq	-40(%rbp), %rdx
	callq	__ZN101_$LT$core..ops..range..RangeTo$LT$usize$GT$$u20$as$u20$core..slice..SliceIndex$LT$$u5b$T$u5d$$GT$$GT$9index_mut17h59f9df6c32f10583E
	movq	%rax, -48(%rbp)
	movq	%rdx, -56(%rbp)
	.loc	2 0 9 is_stmt 0
	movq	-48(%rbp), %rax
	movq	-56(%rbp), %rdx
	.loc	2 2971 6 is_stmt 1
	addq	$64, %rsp
	popq	%rbp
	retq
Ltmp609:
Lfunc_end197:
	.cfi_endproc

	.p2align	4, 0x90
__ZN4core5slice81_$LT$impl$u20$core..cmp..PartialEq$LT$$u5b$B$u5d$$GT$$u20$for$u20$$u5b$A$u5d$$GT$2eq17hc8ffe32f3142ea17E:
Lfunc_begin198:
	.loc	2 6187 0
	.cfi_startproc
	pushq	%rbp
	.cfi_def_cfa_offset 16
	.cfi_offset %rbp, -16
	movq	%rsp, %rbp
	.cfi_def_cfa_register %rbp
	subq	$48, %rsp
	movq	%rdi, -32(%rbp)
	movq	%rsi, -24(%rbp)
	movq	%rdx, -16(%rbp)
	movq	%rcx, -8(%rbp)
Ltmp610:
	.loc	2 6188 9 prologue_end
	callq	__ZN68_$LT$$u5b$A$u5d$$u20$as$u20$core..slice..SlicePartialEq$LT$A$GT$$GT$5equal17h389ea6199bc3dfe4E
	movb	%al, -33(%rbp)
	.loc	2 0 9 is_stmt 0
	movb	-33(%rbp), %al
	.loc	2 6189 6 is_stmt 1
	andb	$1, %al
	movzbl	%al, %eax
	addq	$48, %rsp
	popq	%rbp
	retq
Ltmp611:
Lfunc_end198:
	.cfi_endproc

	.p2align	4, 0x90
__ZN4core6option15Option$LT$T$GT$14unwrap_or_else17h74a2c9eb8144b3b9E:
Lfunc_begin199:
	.file	28 "/rustc/6c8927b0cf80ceee19386026cf9d7fd4fd9d486f/src/libcore/option.rs"
	.loc	28 425 0
	.cfi_startproc
	.cfi_personality 155, _rust_eh_personality
	.cfi_lsda 16, Lexception21
	pushq	%rbp
	.cfi_def_cfa_offset 16
	.cfi_offset %rbp, -16
	movq	%rsp, %rbp
	.cfi_def_cfa_register %rbp
	subq	$96, %rsp
	movq	%rdi, %rax
Ltmp615:
	.loc	28 427 13 prologue_end
	movb	$0, -25(%rbp)
	movb	$1, -25(%rbp)
	movq	8(%rsi), %rcx
	testq	%rcx, %rcx
	setne	%dl
	movzbl	%dl, %r8d
	movl	%r8d, %ecx
	movq	%rsi, -72(%rbp)
Ltmp616:
	.loc	28 0 13 is_stmt 0
	movq	%rdi, -80(%rbp)
	movq	%rax, -88(%rbp)
	.loc	28 427 13
	je	LBB199_1
	jmp	LBB199_10
Ltmp617:
LBB199_10:
	jmp	LBB199_3
Ltmp618:
LBB199_1:
	.loc	28 428 21 is_stmt 1
	movb	$0, -25(%rbp)
Ltmp612:
	movq	-80(%rbp), %rdi
	callq	__ZN5alloc11collections5btree16unwrap_unchecked28_$u7b$$u7b$closure$u7d$$u7d$17hb16f16aed4b90214E
Ltmp613:
	jmp	LBB199_4
Ltmp619:
	.loc	28 426 15
	ud2
LBB199_3:
Ltmp620:
	.loc	28 0 15 is_stmt 0
	movq	-72(%rbp), %rax
	.loc	28 427 18 is_stmt 1
	movq	(%rax), %rcx
	movq	%rcx, -64(%rbp)
	movq	8(%rax), %rcx
	movq	%rcx, -56(%rbp)
	movq	16(%rax), %rcx
	movq	%rcx, -48(%rbp)
	movq	24(%rax), %rcx
	movq	%rcx, -40(%rbp)
Ltmp621:
	.loc	28 427 24 is_stmt 0
	movq	-64(%rbp), %rcx
	movq	-80(%rbp), %rdx
	movq	%rcx, (%rdx)
	movq	-56(%rbp), %rcx
	movq	%rcx, 8(%rdx)
	movq	-48(%rbp), %rcx
	movq	%rcx, 16(%rdx)
	movq	-40(%rbp), %rcx
	movq	%rcx, 24(%rdx)
Ltmp622:
	.loc	28 426 9 is_stmt 1
	jmp	LBB199_8
Ltmp623:
LBB199_4:
	jmp	LBB199_8
Ltmp624:
LBB199_5:
	.loc	28 0 9 is_stmt 0
	movq	-88(%rbp), %rax
	.loc	28 430 6 is_stmt 1
	addq	$96, %rsp
	popq	%rbp
	retq
Ltmp625:
LBB199_6:
	.loc	28 425 5
	movq	-16(%rbp), %rdi
	callq	__Unwind_Resume
	ud2
Ltmp626:
LBB199_7:
	.loc	28 430 5
	movb	$0, -25(%rbp)
	jmp	LBB199_5
Ltmp627:
LBB199_8:
	testb	$1, -25(%rbp)
	jne	LBB199_7
	jmp	LBB199_5
Ltmp628:
LBB199_9:
Ltmp614:
	.loc	28 0 5 is_stmt 0
	movq	%rax, -16(%rbp)
	movl	%edx, -8(%rbp)
	jmp	LBB199_6
Lfunc_end199:
	.cfi_endproc
	.section	__TEXT,__gcc_except_tab
	.p2align	2
GCC_except_table199:
Lexception21:
	.byte	255
	.byte	255
	.byte	1
	.uleb128 Lcst_end21-Lcst_begin21
Lcst_begin21:
	.uleb128 Ltmp612-Lfunc_begin199
	.uleb128 Ltmp613-Ltmp612
	.uleb128 Ltmp614-Lfunc_begin199
	.byte	0
	.uleb128 Ltmp613-Lfunc_begin199
	.uleb128 Lfunc_end199-Ltmp613
	.byte	0
	.byte	0
Lcst_end21:
	.p2align	2

	.section	__TEXT,__text,regular,pure_instructions
	.p2align	4, 0x90
__ZN4core6option15Option$LT$T$GT$14unwrap_or_else17h927c9ea64616dcb9E:
Lfunc_begin200:
	.loc	28 425 0 is_stmt 1
	.cfi_startproc
	.cfi_personality 155, _rust_eh_personality
	.cfi_lsda 16, Lexception22
	pushq	%rbp
	.cfi_def_cfa_offset 16
	.cfi_offset %rbp, -16
	movq	%rsp, %rbp
	.cfi_def_cfa_register %rbp
	subq	$96, %rsp
	movq	%rdi, %rax
Ltmp632:
	.loc	28 427 13 prologue_end
	movb	$0, -25(%rbp)
	movb	$1, -25(%rbp)
	movq	8(%rsi), %rcx
	testq	%rcx, %rcx
	setne	%dl
	movzbl	%dl, %r8d
	movl	%r8d, %ecx
	movq	%rsi, -72(%rbp)
Ltmp633:
	.loc	28 0 13 is_stmt 0
	movq	%rdi, -80(%rbp)
	movq	%rax, -88(%rbp)
	.loc	28 427 13
	je	LBB200_1
	jmp	LBB200_10
Ltmp634:
LBB200_10:
	jmp	LBB200_3
Ltmp635:
LBB200_1:
	.loc	28 428 21 is_stmt 1
	movb	$0, -25(%rbp)
Ltmp629:
	movq	-80(%rbp), %rdi
	callq	__ZN5alloc11collections5btree16unwrap_unchecked28_$u7b$$u7b$closure$u7d$$u7d$17h42a975346f7a1108E
Ltmp630:
	jmp	LBB200_4
Ltmp636:
	.loc	28 426 15
	ud2
LBB200_3:
Ltmp637:
	.loc	28 0 15 is_stmt 0
	movq	-72(%rbp), %rax
	.loc	28 427 18 is_stmt 1
	movq	(%rax), %rcx
	movq	%rcx, -64(%rbp)
	movq	8(%rax), %rcx
	movq	%rcx, -56(%rbp)
	movq	16(%rax), %rcx
	movq	%rcx, -48(%rbp)
	movq	24(%rax), %rcx
	movq	%rcx, -40(%rbp)
Ltmp638:
	.loc	28 427 24 is_stmt 0
	movq	-64(%rbp), %rcx
	movq	-80(%rbp), %rdx
	movq	%rcx, (%rdx)
	movq	-56(%rbp), %rcx
	movq	%rcx, 8(%rdx)
	movq	-48(%rbp), %rcx
	movq	%rcx, 16(%rdx)
	movq	-40(%rbp), %rcx
	movq	%rcx, 24(%rdx)
Ltmp639:
	.loc	28 426 9 is_stmt 1
	jmp	LBB200_8
Ltmp640:
LBB200_4:
	jmp	LBB200_8
Ltmp641:
LBB200_5:
	.loc	28 0 9 is_stmt 0
	movq	-88(%rbp), %rax
	.loc	28 430 6 is_stmt 1
	addq	$96, %rsp
	popq	%rbp
	retq
Ltmp642:
LBB200_6:
	.loc	28 425 5
	movq	-16(%rbp), %rdi
	callq	__Unwind_Resume
	ud2
Ltmp643:
LBB200_7:
	.loc	28 430 5
	movb	$0, -25(%rbp)
	jmp	LBB200_5
Ltmp644:
LBB200_8:
	testb	$1, -25(%rbp)
	jne	LBB200_7
	jmp	LBB200_5
Ltmp645:
LBB200_9:
Ltmp631:
	.loc	28 0 5 is_stmt 0
	movq	%rax, -16(%rbp)
	movl	%edx, -8(%rbp)
	jmp	LBB200_6
Lfunc_end200:
	.cfi_endproc
	.section	__TEXT,__gcc_except_tab
	.p2align	2
GCC_except_table200:
Lexception22:
	.byte	255
	.byte	255
	.byte	1
	.uleb128 Lcst_end22-Lcst_begin22
Lcst_begin22:
	.uleb128 Ltmp629-Lfunc_begin200
	.uleb128 Ltmp630-Ltmp629
	.uleb128 Ltmp631-Lfunc_begin200
	.byte	0
	.uleb128 Ltmp630-Lfunc_begin200
	.uleb128 Lfunc_end200-Ltmp630
	.byte	0
	.byte	0
Lcst_end22:
	.p2align	2

	.section	__TEXT,__text,regular,pure_instructions
	.p2align	4, 0x90
__ZN4core6option15Option$LT$T$GT$4take17hb9ec5308fa0ed99aE:
Lfunc_begin201:
	.loc	28 891 0 is_stmt 1
	.cfi_startproc
	pushq	%rbp
	.cfi_def_cfa_offset 16
	.cfi_offset %rbp, -16
	movq	%rsp, %rbp
	.cfi_def_cfa_register %rbp
	subq	$32, %rsp
	movq	%rdi, -8(%rbp)
Ltmp646:
	.loc	28 892 9 prologue_end
	callq	__ZN4core3mem4take17hd801250044ba78b6E
	movq	%rax, -16(%rbp)
	movq	%rdx, -24(%rbp)
	.loc	28 0 9 is_stmt 0
	movq	-16(%rbp), %rax
	movq	-24(%rbp), %rdx
	.loc	28 893 6 is_stmt 1
	addq	$32, %rsp
	popq	%rbp
	retq
Ltmp647:
Lfunc_end201:
	.cfi_endproc

	.p2align	4, 0x90
__ZN4core6option15Option$LT$T$GT$5ok_or17hb415210f5df0a22cE:
Lfunc_begin202:
	.loc	28 536 0
	.cfi_startproc
	pushq	%rbp
	.cfi_def_cfa_offset 16
	.cfi_offset %rbp, -16
	movq	%rsp, %rbp
	.cfi_def_cfa_register %rbp
	subq	$80, %rsp
	movq	%rdi, -80(%rbp)
	movq	%rsi, -72(%rbp)
Ltmp648:
	.loc	28 538 13 prologue_end
	movb	$0, -41(%rbp)
	movb	$1, -41(%rbp)
	movq	-80(%rbp), %rax
	testq	%rax, %rax
	setne	%cl
	movzbl	%cl, %edx
	movl	%edx, %eax
	je	LBB202_1
	jmp	LBB202_7
LBB202_7:
	jmp	LBB202_3
LBB202_1:
	.loc	28 539 25
	movb	$0, -41(%rbp)
	.loc	28 539 21 is_stmt 0
	movq	$0, -64(%rbp)
	.loc	28 537 9 is_stmt 1
	jmp	LBB202_4
	.loc	28 537 15 is_stmt 0
	ud2
LBB202_3:
	.loc	28 538 18 is_stmt 1
	movq	-80(%rbp), %rax
	movq	-72(%rbp), %rcx
	movq	%rax, -32(%rbp)
	movq	%rcx, -24(%rbp)
Ltmp649:
	.loc	28 538 24 is_stmt 0
	movq	%rax, -64(%rbp)
	movq	%rcx, -56(%rbp)
Ltmp650:
LBB202_4:
	.loc	28 541 5 is_stmt 1
	testb	$1, -41(%rbp)
	jne	LBB202_6
LBB202_5:
	.loc	28 541 6 is_stmt 0
	movq	-64(%rbp), %rax
	movq	-56(%rbp), %rdx
	addq	$80, %rsp
	popq	%rbp
	retq
LBB202_6:
	.loc	28 541 5
	movb	$0, -41(%rbp)
	jmp	LBB202_5
Ltmp651:
Lfunc_end202:
	.cfi_endproc

	.p2align	4, 0x90
__ZN4core6option15Option$LT$T$GT$6as_mut17ha983a8600851dcdbE:
Lfunc_begin203:
	.loc	28 287 0 is_stmt 1
	.cfi_startproc
	pushq	%rbp
	.cfi_def_cfa_offset 16
	.cfi_offset %rbp, -16
	movq	%rsp, %rbp
	.cfi_def_cfa_register %rbp
	subq	$32, %rsp
	movq	%rdi, -16(%rbp)
Ltmp652:
	.loc	28 289 13 prologue_end
	movq	8(%rdi), %rax
	testq	%rax, %rax
	setne	%cl
	movzbl	%cl, %edx
	movl	%edx, %eax
	movq	%rdi, -32(%rbp)
	je	LBB203_1
	jmp	LBB203_5
LBB203_5:
	jmp	LBB203_3
LBB203_1:
	.loc	28 290 21
	movq	$0, -24(%rbp)
	.loc	28 288 9
	jmp	LBB203_4
	.loc	28 288 15 is_stmt 0
	ud2
LBB203_3:
	.loc	28 0 15
	movq	-32(%rbp), %rax
	.loc	28 289 18 is_stmt 1
	movq	%rax, -8(%rbp)
Ltmp653:
	.loc	28 289 32 is_stmt 0
	movq	%rax, -24(%rbp)
Ltmp654:
LBB203_4:
	.loc	28 292 6 is_stmt 1
	movq	-24(%rbp), %rax
	addq	$32, %rsp
	popq	%rbp
	retq
Ltmp655:
Lfunc_end203:
	.cfi_endproc

	.p2align	4, 0x90
__ZN4core6option15Option$LT$T$GT$6unwrap17h204da5a834fb16e0E:
Lfunc_begin204:
	.loc	28 383 0
	.cfi_startproc
	.cfi_personality 155, _rust_eh_personality
	.cfi_lsda 16, Lexception23
	pushq	%rbp
	.cfi_def_cfa_offset 16
	.cfi_offset %rbp, -16
	movq	%rsp, %rbp
	.cfi_def_cfa_register %rbp
	subq	$48, %rsp
	movq	%rdi, -32(%rbp)
Ltmp659:
	.loc	28 385 13 prologue_end
	movq	-32(%rbp), %rax
	testq	%rax, %rax
	setne	%cl
	movzbl	%cl, %edx
	movl	%edx, %eax
	movq	%rsi, -40(%rbp)
	je	LBB204_1
	jmp	LBB204_7
LBB204_7:
	jmp	LBB204_3
LBB204_1:
Ltmp656:
	.loc	26 10 9
	leaq	l___unnamed_9(%rip), %rdi
	movl	$43, %esi
	movq	-40(%rbp), %rdx
	callq	__ZN4core9panicking5panic17h383a6b80ea7021aaE
Ltmp657:
	jmp	LBB204_5
	.loc	28 384 15
	ud2
LBB204_3:
	.loc	28 385 18
	movq	-32(%rbp), %rax
	movq	%rax, -24(%rbp)
	.loc	28 388 6
	addq	$48, %rsp
	popq	%rbp
	retq
LBB204_4:
	.loc	28 383 5
	movq	-16(%rbp), %rdi
	callq	__Unwind_Resume
	ud2
Ltmp660:
LBB204_5:
	.loc	28 0 5 is_stmt 0
	ud2
LBB204_6:
Ltmp658:
	movq	%rax, -16(%rbp)
	movl	%edx, -8(%rbp)
	jmp	LBB204_4
Lfunc_end204:
	.cfi_endproc
	.section	__TEXT,__gcc_except_tab
	.p2align	2
GCC_except_table204:
Lexception23:
	.byte	255
	.byte	255
	.byte	1
	.uleb128 Lcst_end23-Lcst_begin23
Lcst_begin23:
	.uleb128 Ltmp656-Lfunc_begin204
	.uleb128 Ltmp657-Ltmp656
	.uleb128 Ltmp658-Lfunc_begin204
	.byte	0
	.uleb128 Ltmp657-Lfunc_begin204
	.uleb128 Lfunc_end204-Ltmp657
	.byte	0
	.byte	0
Lcst_end23:
	.p2align	2

	.section	__TEXT,__text,regular,pure_instructions
	.p2align	4, 0x90
__ZN4core6result19Result$LT$T$C$E$GT$2ok17h9931f1690c30f39eE:
Lfunc_begin205:
	.file	29 "/rustc/6c8927b0cf80ceee19386026cf9d7fd4fd9d486f/src/libcore/result.rs"
	.loc	29 394 0 is_stmt 1
	.cfi_startproc
	pushq	%rbp
	.cfi_def_cfa_offset 16
	.cfi_offset %rbp, -16
	movq	%rsp, %rbp
	.cfi_def_cfa_register %rbp
	subq	$32, %rsp
	movq	%rdi, -24(%rbp)
	movq	-24(%rbp), %rax
	movq	%rax, -32(%rbp)
Ltmp661:
	.loc	29 396 13 prologue_end
	movzbl	-32(%rbp), %ecx
	movl	%ecx, %eax
	testb	$1, %al
	je	LBB205_3
	jmp	LBB205_7
LBB205_7:
	.loc	29 397 23
	movl	$0, -16(%rbp)
	.loc	29 395 9
	jmp	LBB205_6
	.loc	29 395 15 is_stmt 0
	ud2
LBB205_3:
	.loc	29 396 16 is_stmt 1
	movl	-28(%rbp), %eax
	movl	%eax, -4(%rbp)
Ltmp662:
	.loc	29 396 22 is_stmt 0
	movl	%eax, -12(%rbp)
	movl	$1, -16(%rbp)
Ltmp663:
	.loc	29 399 5 is_stmt 1
	jmp	LBB205_6
LBB205_4:
	.loc	29 399 6 is_stmt 0
	movl	-16(%rbp), %eax
	movl	-12(%rbp), %edx
	addq	$32, %rsp
	popq	%rbp
	retq
LBB205_5:
	.loc	29 399 5
	jmp	LBB205_4
LBB205_6:
	movb	-32(%rbp), %al
	andb	$1, %al
	movzbl	%al, %ecx
	movl	%ecx, %edx
	cmpq	$0, %rdx
	je	LBB205_4
	jmp	LBB205_5
Ltmp664:
Lfunc_end205:
	.cfi_endproc

	.p2align	4, 0x90
__ZN4core6result19Result$LT$T$C$E$GT$2ok17ha5e00b402026ae3dE:
Lfunc_begin206:
	.loc	29 394 0 is_stmt 1
	.cfi_startproc
	pushq	%rbp
	.cfi_def_cfa_offset 16
	.cfi_offset %rbp, -16
	movq	%rsp, %rbp
	.cfi_def_cfa_register %rbp
	subq	$88, %rsp
	movq	%rdi, %rax
Ltmp665:
	.loc	29 396 13 prologue_end
	movq	(%rsi), %rcx
	testq	%rcx, %rcx
	movq	%rsi, -72(%rbp)
Ltmp666:
	.loc	29 0 13 is_stmt 0
	movq	%rdi, -80(%rbp)
	movq	%rax, -88(%rbp)
	.loc	29 396 13
	je	LBB206_3
	jmp	LBB206_7
Ltmp667:
LBB206_7:
	.loc	29 0 13
	movq	-80(%rbp), %rax
	.loc	29 397 23 is_stmt 1
	movq	$0, 8(%rax)
	.loc	29 395 9
	jmp	LBB206_6
Ltmp668:
	.loc	29 395 15 is_stmt 0
	ud2
LBB206_3:
Ltmp669:
	.loc	29 0 15
	movq	-72(%rbp), %rax
	.loc	29 396 16 is_stmt 1
	movq	8(%rax), %rcx
	movq	%rcx, -64(%rbp)
	movq	16(%rax), %rcx
	movq	%rcx, -56(%rbp)
	movq	24(%rax), %rcx
	movq	%rcx, -48(%rbp)
	movq	32(%rax), %rcx
	movq	%rcx, -40(%rbp)
Ltmp670:
	.loc	29 396 27 is_stmt 0
	movq	-64(%rbp), %rcx
	movq	%rcx, -32(%rbp)
	movq	-56(%rbp), %rcx
	movq	%rcx, -24(%rbp)
	movq	-48(%rbp), %rcx
	movq	%rcx, -16(%rbp)
	movq	-40(%rbp), %rcx
	movq	%rcx, -8(%rbp)
	.loc	29 396 22
	movq	-32(%rbp), %rcx
	movq	-80(%rbp), %rdx
	movq	%rcx, (%rdx)
	movq	-24(%rbp), %rcx
	movq	%rcx, 8(%rdx)
	movq	-16(%rbp), %rcx
	movq	%rcx, 16(%rdx)
	movq	-8(%rbp), %rcx
	movq	%rcx, 24(%rdx)
Ltmp671:
	.loc	29 399 5 is_stmt 1
	jmp	LBB206_6
Ltmp672:
LBB206_4:
	.loc	29 0 5 is_stmt 0
	movq	-88(%rbp), %rax
	.loc	29 399 6
	addq	$88, %rsp
	popq	%rbp
	retq
Ltmp673:
LBB206_5:
	.loc	29 399 5
	jmp	LBB206_4
Ltmp674:
LBB206_6:
	.loc	29 0 5
	movq	-72(%rbp), %rax
	.loc	29 399 5
	cmpq	$0, (%rax)
	je	LBB206_4
	jmp	LBB206_5
Ltmp675:
Lfunc_end206:
	.cfi_endproc

	.p2align	4, 0x90
__ZN4core6result19Result$LT$T$C$E$GT$6unwrap17h45a1be54f2dde7e9E:
Lfunc_begin207:
	.loc	29 1002 0 is_stmt 1
	.cfi_startproc
	.cfi_personality 155, _rust_eh_personality
	.cfi_lsda 16, Lexception24
	pushq	%rbp
	.cfi_def_cfa_offset 16
	.cfi_offset %rbp, -16
	movq	%rsp, %rbp
	.cfi_def_cfa_register %rbp
	subq	$80, %rsp
Ltmp679:
	movq	%rdi, %rax
Ltmp680:
	.loc	29 1004 13 prologue_end
	movq	(%rsi), %rcx
	testq	%rcx, %rcx
	movq	%rdx, -48(%rbp)
	movq	%rsi, -56(%rbp)
Ltmp681:
	.loc	29 0 13 is_stmt 0
	movq	%rdi, -64(%rbp)
Ltmp682:
	movq	%rax, -72(%rbp)
	.loc	29 1004 13
	je	LBB207_3
	jmp	LBB207_8
Ltmp683:
LBB207_8:
	.loc	29 0 13
	movq	-56(%rbp), %rax
	.loc	29 1005 17 is_stmt 1
	movq	24(%rax), %rcx
	movq	%rcx, -24(%rbp)
	movq	8(%rax), %rcx
	movq	16(%rax), %rdx
	movq	%rdx, -32(%rbp)
	movq	%rcx, -40(%rbp)
Ltmp676:
Ltmp684:
	.loc	29 1005 23 is_stmt 0
	leaq	l___unnamed_10(%rip), %rdi
	leaq	l___unnamed_2(%rip), %rcx
	movl	$43, %esi
	leaq	-40(%rbp), %rdx
	movq	-48(%rbp), %r8
	callq	__ZN4core6result13unwrap_failed17hc193898ef513e81fE
Ltmp677:
	jmp	LBB207_6
Ltmp685:
	.loc	29 1003 15 is_stmt 1
	ud2
LBB207_3:
Ltmp686:
	.loc	29 0 15 is_stmt 0
	movq	-56(%rbp), %rax
	.loc	29 1004 16 is_stmt 1
	movq	8(%rax), %rcx
	movq	-64(%rbp), %rdx
	movq	%rcx, (%rdx)
	movq	16(%rax), %rcx
	movq	%rcx, 8(%rdx)
	movq	24(%rax), %rcx
	movq	%rcx, 16(%rdx)
	movq	-72(%rbp), %rax
	.loc	29 1007 6
	addq	$80, %rsp
	popq	%rbp
	retq
Ltmp687:
LBB207_4:
	.loc	29 1002 5
	movq	-16(%rbp), %rdi
	callq	__Unwind_Resume
	ud2
Ltmp688:
LBB207_5:
	.loc	29 1005 86
	leaq	-40(%rbp), %rdi
	callq	__ZN4core3ptr13drop_in_place17h87bb59bb61813cceE
	jmp	LBB207_4
Ltmp689:
LBB207_6:
	.loc	29 0 86 is_stmt 0
	ud2
Ltmp690:
LBB207_7:
Ltmp678:
	movq	%rax, -16(%rbp)
	movl	%edx, -8(%rbp)
	jmp	LBB207_5
Lfunc_end207:
	.cfi_endproc
	.section	__TEXT,__gcc_except_tab
	.p2align	2
GCC_except_table207:
Lexception24:
	.byte	255
	.byte	255
	.byte	1
	.uleb128 Lcst_end24-Lcst_begin24
Lcst_begin24:
	.uleb128 Ltmp676-Lfunc_begin207
	.uleb128 Ltmp677-Ltmp676
	.uleb128 Ltmp678-Lfunc_begin207
	.byte	0
	.uleb128 Ltmp677-Lfunc_begin207
	.uleb128 Lfunc_end207-Ltmp677
	.byte	0
	.byte	0
Lcst_end24:
	.p2align	2

	.section	__TEXT,__text,regular,pure_instructions
	.p2align	4, 0x90
__ZN4core7convert3num66_$LT$impl$u20$core..convert..From$LT$u16$GT$$u20$for$u20$usize$GT$4from17h49492f8ef020ea10E:
Lfunc_begin208:
	.file	30 "/rustc/6c8927b0cf80ceee19386026cf9d7fd4fd9d486f/src/libcore/convert/num.rs"
	.loc	30 51 0 is_stmt 1
	.cfi_startproc
	pushq	%rbp
	.cfi_def_cfa_offset 16
	.cfi_offset %rbp, -16
	movq	%rsp, %rbp
	.cfi_def_cfa_register %rbp
	subq	$2, %rsp
	movw	%di, -2(%rbp)
Ltmp691:
	.loc	30 52 17 prologue_end
	movzwl	%di, %eax
	.loc	30 53 14
	addq	$2, %rsp
	popq	%rbp
	retq
Ltmp692:
Lfunc_end208:
	.cfi_endproc

	.p2align	4, 0x90
__ZN50_$LT$T$u20$as$u20$core..convert..From$LT$T$GT$$GT$4from17ha9b10a6fed8863d9E:
Lfunc_begin209:
	.file	31 "/rustc/6c8927b0cf80ceee19386026cf9d7fd4fd9d486f/src/libcore/convert/mod.rs"
	.loc	31 570 0
	.cfi_startproc
	pushq	%rbp
	.cfi_def_cfa_offset 16
	.cfi_offset %rbp, -16
	movq	%rsp, %rbp
	.cfi_def_cfa_register %rbp
	pushq	%rax
Ltmp693:
	.loc	31 572 6 prologue_end
	addq	$8, %rsp
	popq	%rbp
	retq
Ltmp694:
Lfunc_end209:
	.cfi_endproc

	.p2align	4, 0x90
__ZN50_$LT$T$u20$as$u20$core..convert..Into$LT$U$GT$$GT$4into17h8eec0e3bfbe00802E:
Lfunc_begin210:
	.loc	31 562 0
	.cfi_startproc
	pushq	%rbp
	.cfi_def_cfa_offset 16
	.cfi_offset %rbp, -16
	movq	%rsp, %rbp
	.cfi_def_cfa_register %rbp
	subq	$16, %rsp
	movq	%rdi, -8(%rbp)
Ltmp695:
	.loc	31 563 9 prologue_end
	callq	__ZN119_$LT$core..ptr..non_null..NonNull$LT$T$GT$$u20$as$u20$core..convert..From$LT$core..ptr..unique..Unique$LT$T$GT$$GT$$GT$4from17h0edc730df8f44268E
	movq	%rax, -16(%rbp)
	.loc	31 0 9 is_stmt 0
	movq	-16(%rbp), %rax
	.loc	31 564 6 is_stmt 1
	addq	$16, %rsp
	popq	%rbp
	retq
Ltmp696:
Lfunc_end210:
	.cfi_endproc

	.p2align	4, 0x90
__ZN52_$LT$char$u20$as$u20$core..str..pattern..Pattern$GT$13into_searcher17h2795564a69d2aacdE:
Lfunc_begin211:
	.file	32 "/rustc/6c8927b0cf80ceee19386026cf9d7fd4fd9d486f/src/libcore/str/pattern.rs"
	.loc	32 535 0
	.cfi_startproc
	pushq	%rbp
	.cfi_def_cfa_offset 16
	.cfi_offset %rbp, -16
	movq	%rsp, %rbp
	.cfi_def_cfa_register %rbp
	subq	$128, %rsp
	movq	%rdi, %rax
	leaq	-36(%rbp), %r8
	xorl	%r9d, %r9d
	movl	%esi, -28(%rbp)
	movq	%rdx, -24(%rbp)
	movq	%rcx, -16(%rbp)
Ltmp697:
	movq	%rdi, -48(%rbp)
Ltmp698:
	.loc	32 536 32 prologue_end
	movq	%r8, %rdi
	movl	%esi, -52(%rbp)
	movl	%r9d, %esi
	movl	$4, %r10d
	movq	%rdx, -64(%rbp)
	movq	%r10, %rdx
	movq	%rcx, -72(%rbp)
	movq	%rax, -80(%rbp)
	movq	%r8, -88(%rbp)
Ltmp699:
	.loc	32 0 32 is_stmt 0
	movq	%r10, -96(%rbp)
	.loc	32 536 32
	callq	_memset
	movq	-88(%rbp), %rax
	movl	-52(%rbp), %edi
Ltmp700:
	.loc	32 537 25 is_stmt 1
	movq	%rax, %rsi
	movq	-96(%rbp), %rdx
	callq	__ZN4core4char7methods22_$LT$impl$u20$char$GT$11encode_utf817he9f5ec44f27e7626E
	movq	%rax, -104(%rbp)
	movq	%rdx, -112(%rbp)
Ltmp701:
	.loc	32 0 25 is_stmt 0
	movq	-104(%rbp), %rdi
	movq	-112(%rbp), %rsi
	.loc	32 537 25
	callq	__ZN4core3str21_$LT$impl$u20$str$GT$3len17h93531804e2407600E
	movq	%rax, -8(%rbp)
	movq	%rax, -120(%rbp)
Ltmp702:
	.loc	32 0 25
	movq	-64(%rbp), %rdi
	movq	-72(%rbp), %rsi
Ltmp703:
	.loc	32 541 26 is_stmt 1
	callq	__ZN4core3str21_$LT$impl$u20$str$GT$3len17h93531804e2407600E
	movq	%rax, -128(%rbp)
Ltmp704:
	.loc	32 544 13
	movl	-36(%rbp), %eax
	movl	%eax, -32(%rbp)
	movq	-48(%rbp), %rcx
	movq	-64(%rbp), %rdx
	.loc	32 538 9
	movq	%rdx, (%rcx)
	movq	-72(%rbp), %rsi
	movq	%rsi, 8(%rcx)
	movq	$0, 16(%rcx)
	movq	-128(%rbp), %rdi
	movq	%rdi, 24(%rcx)
	movl	-52(%rbp), %eax
	movl	%eax, 40(%rcx)
	movq	-120(%rbp), %r8
	movq	%r8, 32(%rcx)
	movl	-32(%rbp), %r9d
	movl	%r9d, 44(%rcx)
	movq	-80(%rbp), %r10
Ltmp705:
	.loc	32 546 6
	movq	%r10, %rax
	addq	$128, %rsp
	popq	%rbp
	retq
Ltmp706:
Lfunc_end211:
	.cfi_endproc

	.p2align	4, 0x90
__ZN54_$LT$$LP$$RP$$u20$as$u20$std..process..Termination$GT$6report17h610ec1db96a554bcE:
Lfunc_begin212:
	.loc	13 1667 0
	.cfi_startproc
	pushq	%rbp
	.cfi_def_cfa_offset 16
	.cfi_offset %rbp, -16
	movq	%rsp, %rbp
	.cfi_def_cfa_register %rbp
	subq	$16, %rsp
	xorl	%edi, %edi
Ltmp707:
	.loc	13 1668 9 prologue_end
	callq	__ZN68_$LT$std..process..ExitCode$u20$as$u20$std..process..Termination$GT$6report17hb16b18db66b59833E
	movl	%eax, -12(%rbp)
	.loc	13 0 9 is_stmt 0
	movl	-12(%rbp), %eax
	.loc	13 1669 6 is_stmt 1
	addq	$16, %rsp
	popq	%rbp
	retq
Ltmp708:
Lfunc_end212:
	.cfi_endproc

	.p2align	4, 0x90
__ZN55_$LT$$RF$T$u20$as$u20$core..convert..AsRef$LT$U$GT$$GT$6as_ref17h12667528f3dacac6E:
Lfunc_begin213:
	.loc	31 513 0
	.cfi_startproc
	pushq	%rbp
	.cfi_def_cfa_offset 16
	.cfi_offset %rbp, -16
	movq	%rsp, %rbp
	.cfi_def_cfa_register %rbp
	subq	$32, %rsp
	movq	%rdi, -8(%rbp)
Ltmp709:
	.loc	31 514 33 prologue_end
	movq	(%rdi), %rax
	movq	8(%rdi), %rsi
	.loc	31 514 9 is_stmt 0
	movq	%rax, %rdi
	callq	__ZN3std3ffi6os_str85_$LT$impl$u20$core..convert..AsRef$LT$std..ffi..os_str..OsStr$GT$$u20$for$u20$str$GT$6as_ref17h90157c403a2a55f4E
	movq	%rax, -16(%rbp)
	movq	%rdx, -24(%rbp)
	.loc	31 0 9
	movq	-16(%rbp), %rax
	movq	-24(%rbp), %rdx
	.loc	31 515 6 is_stmt 1
	addq	$32, %rsp
	popq	%rbp
	retq
Ltmp710:
Lfunc_end213:
	.cfi_endproc

	.p2align	4, 0x90
__ZN55_$LT$$RF$str$u20$as$u20$core..str..pattern..Pattern$GT$12is_prefix_of17h5d214d5e887f58deE:
Lfunc_begin214:
	.loc	32 872 0
	.cfi_startproc
	pushq	%rbp
	.cfi_def_cfa_offset 16
	.cfi_offset %rbp, -16
	movq	%rsp, %rbp
	.cfi_def_cfa_register %rbp
	subq	$160, %rsp
	movq	%rdi, -96(%rbp)
	movq	%rsi, -88(%rbp)
	movq	%rdx, -80(%rbp)
	movq	%rcx, -72(%rbp)
	movq	%rdx, -48(%rbp)
	movq	%rcx, -40(%rbp)
Ltmp711:
	.loc	9 2359 18 prologue_end
	movq	%rdx, -64(%rbp)
	movq	%rcx, -56(%rbp)
	movq	-64(%rbp), %rax
	movq	-56(%rbp), %rcx
	movq	%rdi, -104(%rbp)
	movq	%rsi, -112(%rbp)
	movq	%rax, -120(%rbp)
	movq	%rcx, -128(%rbp)
Ltmp712:
	.loc	9 0 18 is_stmt 0
	movq	-104(%rbp), %rax
	movq	%rax, -16(%rbp)
	movq	-112(%rbp), %rcx
	movq	%rcx, -8(%rbp)
Ltmp713:
	.loc	9 2359 18
	movq	%rax, -32(%rbp)
	movq	%rcx, -24(%rbp)
	movq	-32(%rbp), %rdx
	movq	-24(%rbp), %rcx
	movq	%rdx, -136(%rbp)
	movq	%rcx, -144(%rbp)
Ltmp714:
	.loc	9 0 18
	movq	-120(%rbp), %rdi
	movq	-128(%rbp), %rsi
	movq	-136(%rbp), %rdx
	movq	-144(%rbp), %rcx
	.loc	32 873 9 is_stmt 1
	callq	__ZN4core5slice29_$LT$impl$u20$$u5b$T$u5d$$GT$11starts_with17h33d31f25c591a571E
	movb	%al, -145(%rbp)
	.loc	32 0 9 is_stmt 0
	movb	-145(%rbp), %al
	.loc	32 874 6 is_stmt 1
	andb	$1, %al
	movzbl	%al, %eax
	addq	$160, %rsp
	popq	%rbp
	retq
Ltmp715:
Lfunc_end214:
	.cfi_endproc

	.p2align	4, 0x90
__ZN5alloc11collections5btree16unwrap_unchecked28_$u7b$$u7b$closure$u7d$$u7d$17h42a975346f7a1108E:
Lfunc_begin215:
	.loc	7 18 0
	.cfi_startproc
	pushq	%rbp
	.cfi_def_cfa_offset 16
	.cfi_offset %rbp, -16
	movq	%rsp, %rbp
	.cfi_def_cfa_register %rbp
	pushq	%rax
Ltmp716:
	.loc	7 23 17 prologue_end
	ud2
Ltmp717:
Lfunc_end215:
	.cfi_endproc

	.p2align	4, 0x90
__ZN5alloc11collections5btree16unwrap_unchecked28_$u7b$$u7b$closure$u7d$$u7d$17hb16f16aed4b90214E:
Lfunc_begin216:
	.loc	7 18 0
	.cfi_startproc
	pushq	%rbp
	.cfi_def_cfa_offset 16
	.cfi_offset %rbp, -16
	movq	%rsp, %rbp
	.cfi_def_cfa_register %rbp
	pushq	%rax
Ltmp718:
	.loc	7 23 17 prologue_end
	ud2
Ltmp719:
Lfunc_end216:
	.cfi_endproc

	.p2align	4, 0x90
__ZN5alloc11collections5btree3map17full_range_search17h29ad5a9cd4bb127bE:
Lfunc_begin217:
	.loc	4 2039 0
	.cfi_startproc
	pushq	%rbp
	.cfi_def_cfa_offset 16
	.cfi_offset %rbp, -16
	movq	%rsp, %rbp
	.cfi_def_cfa_register %rbp
	subq	$832, %rsp
	movq	%rdi, %rax
Ltmp720:
	.loc	4 2047 33 prologue_end
	leaq	-768(%rbp), %rcx
Ltmp721:
	.loc	4 0 33 is_stmt 0
	movq	%rdi, -776(%rbp)
	.loc	4 2047 33
	movq	%rcx, %rdi
	movq	%rsi, -784(%rbp)
Ltmp722:
	.loc	4 0 33
	movq	%rax, -792(%rbp)
	.loc	4 2047 33
	callq	__ZN4core3ptr4read17hd4ac4093818193e1E
Ltmp723:
	.loc	4 0 33
	movq	-784(%rbp), %rax
Ltmp724:
	.loc	4 2048 24 is_stmt 1
	movq	(%rax), %rcx
	movq	%rcx, -744(%rbp)
	movq	8(%rax), %rcx
	movq	%rcx, -736(%rbp)
	movq	16(%rax), %rcx
	movq	%rcx, -728(%rbp)
Ltmp725:
LBB217_2:
	.loc	4 2050 21
	movq	-768(%rbp), %rax
	movq	%rax, -688(%rbp)
	movq	-760(%rbp), %rax
	movq	%rax, -680(%rbp)
	movq	-752(%rbp), %rax
	movq	%rax, -672(%rbp)
	leaq	-720(%rbp), %rdi
	leaq	-688(%rbp), %rsi
	callq	__ZN5alloc11collections5btree4node40NodeRef$LT$BorrowType$C$K$C$V$C$Type$GT$10first_edge17h1ef50258757db799E
Ltmp726:
	.loc	4 2051 20
	movq	-744(%rbp), %rax
	movq	%rax, -632(%rbp)
	movq	-736(%rbp), %rax
	movq	%rax, -624(%rbp)
	movq	-728(%rbp), %rax
	movq	%rax, -616(%rbp)
	leaq	-664(%rbp), %rdi
	leaq	-632(%rbp), %rsi
	callq	__ZN5alloc11collections5btree4node40NodeRef$LT$BorrowType$C$K$C$V$C$Type$GT$9last_edge17h5a7fe18055270240E
Ltmp727:
	.loc	4 2052 16
	movq	-720(%rbp), %rax
	movq	%rax, -488(%rbp)
	movq	-712(%rbp), %rax
	movq	%rax, -480(%rbp)
	movq	-704(%rbp), %rax
	movq	%rax, -472(%rbp)
	movq	-696(%rbp), %rax
	movq	%rax, -464(%rbp)
	leaq	-528(%rbp), %rdi
	leaq	-488(%rbp), %rsi
	callq	__ZN5alloc11collections5btree4node151Handle$LT$alloc..collections..btree..node..NodeRef$LT$BorrowType$C$K$C$V$C$alloc..collections..btree..node..marker..LeafOrInternal$GT$$C$HandleType$GT$5force17hb8f089a149d40227E
Ltmp728:
	.loc	4 2052 31 is_stmt 0
	movq	-664(%rbp), %rax
	movq	%rax, -416(%rbp)
	movq	-656(%rbp), %rax
	movq	%rax, -408(%rbp)
	movq	-648(%rbp), %rax
	movq	%rax, -400(%rbp)
	movq	-640(%rbp), %rax
	movq	%rax, -392(%rbp)
	leaq	-456(%rbp), %rdi
	leaq	-416(%rbp), %rsi
	callq	__ZN5alloc11collections5btree4node151Handle$LT$alloc..collections..btree..node..NodeRef$LT$BorrowType$C$K$C$V$C$alloc..collections..btree..node..marker..LeafOrInternal$GT$$C$HandleType$GT$5force17hb8f089a149d40227E
Ltmp729:
	.loc	4 2052 15
	movq	-496(%rbp), %rax
	movq	%rax, -576(%rbp)
	movq	-504(%rbp), %rax
	movq	%rax, -584(%rbp)
	movq	-512(%rbp), %rax
	movq	%rax, -592(%rbp)
	movq	-528(%rbp), %rax
	movq	-520(%rbp), %rcx
	movq	%rcx, -600(%rbp)
	movq	%rax, -608(%rbp)
	movq	-424(%rbp), %rax
	movq	%rax, -536(%rbp)
	movq	-432(%rbp), %rax
	movq	%rax, -544(%rbp)
	movq	-440(%rbp), %rax
	movq	%rax, -552(%rbp)
	movq	-456(%rbp), %rax
	movq	-448(%rbp), %rcx
	movq	%rcx, -560(%rbp)
	movq	%rax, -568(%rbp)
	.loc	4 2053 14 is_stmt 1
	movq	-608(%rbp), %rax
	testq	%rax, %rax
	movq	%rax, -800(%rbp)
	je	LBB217_7
	jmp	LBB217_16
Ltmp730:
LBB217_16:
	.loc	4 0 14 is_stmt 0
	movq	-800(%rbp), %rax
	.loc	4 2053 14
	subq	$1, %rax
	je	LBB217_9
	jmp	LBB217_8
Ltmp731:
LBB217_7:
	.loc	4 2053 23
	cmpq	$0, -568(%rbp)
	je	LBB217_10
Ltmp732:
LBB217_8:
	.loc	26 548 16 is_stmt 1
	movq	l___unnamed_11(%rip), %rax
	.loc	4 2060 31
	movq	l___unnamed_12(%rip), %rcx
	.loc	26 19 38
	movq	%rcx, -16(%rbp)
	.loc	4 2060 31
	movq	-16(%rbp), %rcx
	movq	%rcx, -8(%rbp)
Ltmp733:
	.loc	26 19 38
	movq	%rcx, %rdi
	leaq	__ZN44_$LT$$RF$T$u20$as$u20$core..fmt..Display$GT$3fmt17h01f26c1500f94707E(%rip), %rsi
	movq	%rax, -808(%rbp)
	callq	__ZN4core3fmt10ArgumentV13new17h73a651d8608fd207E
	movq	%rax, -816(%rbp)
	movq	%rdx, -824(%rbp)
	jmp	LBB217_14
Ltmp734:
LBB217_9:
	.loc	4 2056 33
	cmpq	$1, -568(%rbp)
	je	LBB217_11
	jmp	LBB217_8
Ltmp735:
LBB217_10:
	.loc	4 2053 19
	movq	-600(%rbp), %rax
	movq	%rax, -384(%rbp)
	movq	-592(%rbp), %rax
	movq	%rax, -376(%rbp)
	movq	-584(%rbp), %rax
	movq	%rax, -368(%rbp)
	movq	-576(%rbp), %rax
	movq	%rax, -360(%rbp)
	.loc	4 2053 28 is_stmt 0
	movq	-560(%rbp), %rax
	movq	%rax, -352(%rbp)
	movq	-552(%rbp), %rax
	movq	%rax, -344(%rbp)
	movq	-544(%rbp), %rax
	movq	%rax, -336(%rbp)
	movq	-536(%rbp), %rax
	movq	%rax, -328(%rbp)
Ltmp736:
	.loc	4 2054 25 is_stmt 1
	movq	-384(%rbp), %rax
	movq	%rax, -320(%rbp)
	movq	-376(%rbp), %rax
	movq	%rax, -312(%rbp)
	movq	-368(%rbp), %rax
	movq	%rax, -304(%rbp)
	movq	-360(%rbp), %rax
	movq	%rax, -296(%rbp)
	.loc	4 2054 28 is_stmt 0
	movq	-352(%rbp), %rax
	movq	%rax, -288(%rbp)
	movq	-344(%rbp), %rax
	movq	%rax, -280(%rbp)
	movq	-336(%rbp), %rax
	movq	%rax, -272(%rbp)
	movq	-328(%rbp), %rax
	movq	%rax, -264(%rbp)
	.loc	4 2054 24
	movq	-320(%rbp), %rax
	movq	-776(%rbp), %rcx
	movq	%rax, (%rcx)
	movq	-312(%rbp), %rax
	movq	%rax, 8(%rcx)
	movq	-304(%rbp), %rax
	movq	%rax, 16(%rcx)
	movq	-296(%rbp), %rax
	movq	%rax, 24(%rcx)
	movq	-288(%rbp), %rax
	movq	%rax, 32(%rcx)
	movq	-280(%rbp), %rax
	movq	%rax, 40(%rcx)
	movq	-272(%rbp), %rax
	movq	%rax, 48(%rcx)
	movq	-264(%rbp), %rax
	movq	%rax, 56(%rcx)
	movq	-792(%rbp), %rax
Ltmp737:
	.loc	4 2063 2 is_stmt 1
	addq	$832, %rsp
	popq	%rbp
	retq
Ltmp738:
LBB217_11:
	.loc	4 2056 23
	movq	-600(%rbp), %rax
	movq	%rax, -256(%rbp)
	movq	-592(%rbp), %rax
	movq	%rax, -248(%rbp)
	movq	-584(%rbp), %rax
	movq	%rax, -240(%rbp)
	movq	-576(%rbp), %rax
	movq	%rax, -232(%rbp)
	.loc	4 2056 42 is_stmt 0
	movq	-560(%rbp), %rax
	movq	%rax, -224(%rbp)
	movq	-552(%rbp), %rax
	movq	%rax, -216(%rbp)
	movq	-544(%rbp), %rax
	movq	%rax, -208(%rbp)
	movq	-536(%rbp), %rax
	movq	%rax, -200(%rbp)
Ltmp739:
	.loc	4 2057 28 is_stmt 1
	movq	-256(%rbp), %rax
	movq	%rax, -168(%rbp)
	movq	-248(%rbp), %rax
	movq	%rax, -160(%rbp)
	movq	-240(%rbp), %rax
	movq	%rax, -152(%rbp)
	movq	-232(%rbp), %rax
	movq	%rax, -144(%rbp)
	leaq	-192(%rbp), %rdi
	leaq	-168(%rbp), %rsi
	callq	__ZN5alloc11collections5btree4node180Handle$LT$alloc..collections..btree..node..NodeRef$LT$BorrowType$C$K$C$V$C$alloc..collections..btree..node..marker..Internal$GT$$C$alloc..collections..btree..node..marker..Edge$GT$7descend17h24c226fa7ac603ffE
Ltmp740:
	.loc	4 2057 17 is_stmt 0
	movq	-192(%rbp), %rax
	movq	%rax, -768(%rbp)
	movq	-184(%rbp), %rax
	movq	%rax, -760(%rbp)
	movq	-176(%rbp), %rax
	movq	%rax, -752(%rbp)
	.loc	4 2058 28 is_stmt 1
	movq	-224(%rbp), %rax
	movq	%rax, -112(%rbp)
	movq	-216(%rbp), %rax
	movq	%rax, -104(%rbp)
	movq	-208(%rbp), %rax
	movq	%rax, -96(%rbp)
	movq	-200(%rbp), %rax
	movq	%rax, -88(%rbp)
	leaq	-136(%rbp), %rdi
	leaq	-112(%rbp), %rsi
	callq	__ZN5alloc11collections5btree4node180Handle$LT$alloc..collections..btree..node..NodeRef$LT$BorrowType$C$K$C$V$C$alloc..collections..btree..node..marker..Internal$GT$$C$alloc..collections..btree..node..marker..Edge$GT$7descend17h24c226fa7ac603ffE
Ltmp741:
	.loc	4 2058 17 is_stmt 0
	movq	-136(%rbp), %rax
	movq	%rax, -744(%rbp)
	movq	-128(%rbp), %rax
	movq	%rax, -736(%rbp)
	movq	-120(%rbp), %rax
	movq	%rax, -728(%rbp)
Ltmp742:
	.loc	4 2049 5 is_stmt 1
	jmp	LBB217_2
Ltmp743:
LBB217_14:
	.loc	4 0 5 is_stmt 0
	movq	-816(%rbp), %rax
Ltmp744:
	.loc	26 19 38 is_stmt 1
	movq	%rax, -32(%rbp)
	movq	-824(%rbp), %rcx
	movq	%rcx, -24(%rbp)
Ltmp745:
	.loc	26 19 38 is_stmt 0
	leaq	-32(%rbp), %rdx
	leaq	-80(%rbp), %rdi
	movq	-808(%rbp), %rsi
	movl	$1, %r8d
	movq	%rdx, -832(%rbp)
	movq	%r8, %rdx
	movq	-832(%rbp), %rcx
	callq	__ZN4core3fmt9Arguments6new_v117h0797c3e8933a828cE
Ltmp746:
	.loc	26 19 9
	leaq	l___unnamed_6(%rip), %rsi
	leaq	-80(%rbp), %rdi
	callq	__ZN4core9panicking9panic_fmt17hfce5b7173905fc53E
Ltmp747:
Lfunc_end217:
	.cfi_endproc

	.p2align	4, 0x90
__ZN5alloc11collections5btree4node104Handle$LT$alloc..collections..btree..node..NodeRef$LT$BorrowType$C$K$C$V$C$NodeType$GT$$C$HandleType$GT$8reborrow17hc72550fad9430238E:
Lfunc_begin218:
	.file	33 "/rustc/6c8927b0cf80ceee19386026cf9d7fd4fd9d486f/src/liballoc/collections/btree/node.rs"
	.loc	33 781 0 is_stmt 1
	.cfi_startproc
	pushq	%rbp
	.cfi_def_cfa_offset 16
	.cfi_offset %rbp, -16
	movq	%rsp, %rbp
	.cfi_def_cfa_register %rbp
	subq	$64, %rsp
	movq	%rdi, %rax
	movq	%rsi, -8(%rbp)
Ltmp748:
	.loc	33 783 24 prologue_end
	movq	%rsi, %rcx
	leaq	-40(%rbp), %rdx
	movq	%rdi, -48(%rbp)
	movq	%rdx, %rdi
	movq	%rsi, -56(%rbp)
	movq	%rcx, %rsi
	movq	%rax, -64(%rbp)
	callq	__ZN5alloc11collections5btree4node40NodeRef$LT$BorrowType$C$K$C$V$C$Type$GT$8reborrow17hb02100ccf7258b4cE
	.loc	33 0 24 is_stmt 0
	movq	-56(%rbp), %rax
	.loc	33 783 51
	movq	24(%rax), %rcx
	.loc	33 783 9
	movq	-40(%rbp), %rdx
	movq	-48(%rbp), %rsi
	movq	%rdx, (%rsi)
	movq	-32(%rbp), %rdx
	movq	%rdx, 8(%rsi)
	movq	-24(%rbp), %rdx
	movq	%rdx, 16(%rsi)
	movq	%rcx, 24(%rsi)
	movq	-64(%rbp), %rax
	.loc	33 784 6 is_stmt 1
	addq	$64, %rsp
	popq	%rbp
	retq
Ltmp749:
Lfunc_end218:
	.cfi_endproc

	.p2align	4, 0x90
__ZN5alloc11collections5btree4node127NodeRef$LT$alloc..collections..btree..node..marker..Owned$C$K$C$V$C$alloc..collections..btree..node..marker..LeafOrInternal$GT$21deallocate_and_ascend17h5a2dbb55c3bde34aE:
Lfunc_begin219:
	.loc	33 395 0
	.cfi_startproc
	pushq	%rbp
	.cfi_def_cfa_offset 16
	.cfi_offset %rbp, -16
	movq	%rsp, %rbp
	.cfi_def_cfa_register %rbp
	subq	$144, %rsp
	movq	%rdi, %rax
Ltmp750:
	.loc	33 398 22 prologue_end
	movq	(%rsi), %rcx
	movq	%rcx, -16(%rbp)
Ltmp751:
	.loc	33 399 20
	movq	8(%rsi), %rdx
	movq	%rdx, -8(%rbp)
Ltmp752:
	.loc	33 400 19
	movq	(%rsi), %r8
	movq	%r8, -64(%rbp)
	movq	8(%rsi), %r8
	movq	%r8, -56(%rbp)
	movq	16(%rsi), %rsi
Ltmp753:
	movq	%rsi, -48(%rbp)
	leaq	-104(%rbp), %rsi
	movq	%rdi, -112(%rbp)
Ltmp754:
	movq	%rsi, %rdi
	leaq	-64(%rbp), %rsi
	movq	%rax, -120(%rbp)
	movq	%rcx, -128(%rbp)
	movq	%rdx, -136(%rbp)
	callq	__ZN5alloc11collections5btree4node40NodeRef$LT$BorrowType$C$K$C$V$C$Type$GT$6ascend17h0447d15e086befbaE
Ltmp755:
	.loc	33 0 19 is_stmt 0
	movq	-112(%rbp), %rdi
	.loc	33 400 19
	leaq	-104(%rbp), %rsi
	callq	__ZN4core6result19Result$LT$T$C$E$GT$2ok17ha5e00b402026ae3dE
	.loc	33 0 19
	movq	-136(%rbp), %rdi
Ltmp756:
	.loc	33 403 17 is_stmt 1
	callq	__ZN4core3ptr8non_null16NonNull$LT$T$GT$4cast17h619f879d224f53aeE
	movq	%rax, -144(%rbp)
	.loc	33 0 17 is_stmt 0
	movq	-128(%rbp), %rax
	.loc	33 404 20 is_stmt 1
	cmpq	$0, %rax
	.loc	33 404 17 is_stmt 0
	ja	LBB219_5
	.loc	33 407 21 is_stmt 1
	callq	__ZN4core5alloc6layout6Layout3new17h5976bfc2c3154e4eE
	movq	%rdx, -24(%rbp)
	movq	%rax, -32(%rbp)
	jmp	LBB219_6
LBB219_5:
	.loc	33 405 21
	callq	__ZN4core5alloc6layout6Layout3new17ha5a45e510e7f62c3E
	movq	%rdx, -24(%rbp)
	movq	%rax, -32(%rbp)
LBB219_6:
	.loc	33 402 13
	movq	-32(%rbp), %rdx
	movq	-24(%rbp), %rcx
	leaq	-40(%rbp), %rdi
	movq	-144(%rbp), %rsi
	callq	__ZN62_$LT$alloc..alloc..Global$u20$as$u20$core..alloc..AllocRef$GT$7dealloc17h9404bb4eb579d9eaE
Ltmp757:
	.loc	33 0 13 is_stmt 0
	movq	-120(%rbp), %rax
	.loc	33 412 6 is_stmt 1
	addq	$144, %rsp
	popq	%rbp
	retq
Ltmp758:
Lfunc_end219:
	.cfi_endproc

	.p2align	4, 0x90
__ZN5alloc11collections5btree4node137Handle$LT$alloc..collections..btree..node..NodeRef$LT$BorrowType$C$K$C$V$C$NodeType$GT$$C$alloc..collections..btree..node..marker..KV$GT$10right_edge17hc22a9b8e98a0934eE:
Lfunc_begin220:
	.loc	33 756 0
	.cfi_startproc
	pushq	%rbp
	.cfi_def_cfa_offset 16
	.cfi_offset %rbp, -16
	movq	%rsp, %rbp
	.cfi_def_cfa_register %rbp
	subq	$32, %rsp
	movq	%rdi, %rax
Ltmp759:
	.loc	33 757 35 prologue_end
	movq	(%rsi), %rcx
	movq	%rcx, -24(%rbp)
	movq	8(%rsi), %rcx
	movq	%rcx, -16(%rbp)
	movq	16(%rsi), %rcx
	movq	%rcx, -8(%rbp)
	.loc	33 757 46 is_stmt 0
	movq	24(%rsi), %rcx
	addq	$1, %rcx
	.loc	33 757 18
	leaq	-24(%rbp), %rsi
Ltmp760:
	movq	%rcx, %rdx
	movq	%rax, -32(%rbp)
	callq	__ZN5alloc11collections5btree4node139Handle$LT$alloc..collections..btree..node..NodeRef$LT$BorrowType$C$K$C$V$C$NodeType$GT$$C$alloc..collections..btree..node..marker..Edge$GT$8new_edge17hd9d99d520200d05fE
	.loc	33 0 18
	movq	-32(%rbp), %rax
	.loc	33 758 6 is_stmt 1
	addq	$32, %rsp
	popq	%rbp
	retq
Ltmp761:
Lfunc_end220:
	.cfi_endproc

	.p2align	4, 0x90
__ZN5alloc11collections5btree4node137Handle$LT$alloc..collections..btree..node..NodeRef$LT$BorrowType$C$K$C$V$C$NodeType$GT$$C$alloc..collections..btree..node..marker..KV$GT$10right_edge17he7e25ae216cd67dcE:
Lfunc_begin221:
	.loc	33 756 0
	.cfi_startproc
	pushq	%rbp
	.cfi_def_cfa_offset 16
	.cfi_offset %rbp, -16
	movq	%rsp, %rbp
	.cfi_def_cfa_register %rbp
	subq	$32, %rsp
	movq	%rdi, %rax
Ltmp762:
	.loc	33 757 35 prologue_end
	movq	(%rsi), %rcx
	movq	%rcx, -24(%rbp)
	movq	8(%rsi), %rcx
	movq	%rcx, -16(%rbp)
	movq	16(%rsi), %rcx
	movq	%rcx, -8(%rbp)
	.loc	33 757 46 is_stmt 0
	movq	24(%rsi), %rcx
	addq	$1, %rcx
	.loc	33 757 18
	leaq	-24(%rbp), %rsi
Ltmp763:
	movq	%rcx, %rdx
	movq	%rax, -32(%rbp)
	callq	__ZN5alloc11collections5btree4node139Handle$LT$alloc..collections..btree..node..NodeRef$LT$BorrowType$C$K$C$V$C$NodeType$GT$$C$alloc..collections..btree..node..marker..Edge$GT$8new_edge17h26f50fdd392fd99aE
	.loc	33 0 18
	movq	-32(%rbp), %rax
	.loc	33 758 6 is_stmt 1
	addq	$32, %rsp
	popq	%rbp
	retq
Ltmp764:
Lfunc_end221:
	.cfi_endproc

	.p2align	4, 0x90
__ZN5alloc11collections5btree4node137Handle$LT$alloc..collections..btree..node..NodeRef$LT$BorrowType$C$K$C$V$C$NodeType$GT$$C$alloc..collections..btree..node..marker..KV$GT$6new_kv17h653d31ebd16c2feeE:
Lfunc_begin222:
	.loc	33 746 0
	.cfi_startproc
	pushq	%rbp
	.cfi_def_cfa_offset 16
	.cfi_offset %rbp, -16
	movq	%rsp, %rbp
	.cfi_def_cfa_register %rbp
	subq	$32, %rsp
	movq	%rdi, %rax
Ltmp765:
	movq	%rdx, -8(%rbp)
Ltmp766:
	.loc	33 749 18 prologue_end
	movq	(%rsi), %rcx
	movq	%rcx, -32(%rbp)
	movq	8(%rsi), %rcx
	movq	%rcx, -24(%rbp)
	movq	16(%rsi), %rcx
	movq	%rcx, -16(%rbp)
	.loc	33 749 9 is_stmt 0
	movq	-32(%rbp), %rcx
	movq	%rcx, (%rdi)
	movq	-24(%rbp), %rcx
	movq	%rcx, 8(%rdi)
	movq	-16(%rbp), %rcx
	movq	%rcx, 16(%rdi)
	movq	%rdx, 24(%rdi)
	.loc	33 750 6 is_stmt 1
	addq	$32, %rsp
	popq	%rbp
	retq
Ltmp767:
Lfunc_end222:
	.cfi_endproc

	.p2align	4, 0x90
__ZN5alloc11collections5btree4node139Handle$LT$alloc..collections..btree..node..NodeRef$LT$BorrowType$C$K$C$V$C$NodeType$GT$$C$alloc..collections..btree..node..marker..Edge$GT$8new_edge17h26f50fdd392fd99aE:
Lfunc_begin223:
	.loc	33 809 0
	.cfi_startproc
	pushq	%rbp
	.cfi_def_cfa_offset 16
	.cfi_offset %rbp, -16
	movq	%rsp, %rbp
	.cfi_def_cfa_register %rbp
	subq	$32, %rsp
	movq	%rdi, %rax
Ltmp768:
	movq	%rdx, -8(%rbp)
Ltmp769:
	.loc	33 812 18 prologue_end
	movq	(%rsi), %rcx
	movq	%rcx, -32(%rbp)
	movq	8(%rsi), %rcx
	movq	%rcx, -24(%rbp)
	movq	16(%rsi), %rcx
	movq	%rcx, -16(%rbp)
	.loc	33 812 9 is_stmt 0
	movq	-32(%rbp), %rcx
	movq	%rcx, (%rdi)
	movq	-24(%rbp), %rcx
	movq	%rcx, 8(%rdi)
	movq	-16(%rbp), %rcx
	movq	%rcx, 16(%rdi)
	movq	%rdx, 24(%rdi)
	.loc	33 813 6 is_stmt 1
	addq	$32, %rsp
	popq	%rbp
	retq
Ltmp770:
Lfunc_end223:
	.cfi_endproc

	.p2align	4, 0x90
__ZN5alloc11collections5btree4node139Handle$LT$alloc..collections..btree..node..NodeRef$LT$BorrowType$C$K$C$V$C$NodeType$GT$$C$alloc..collections..btree..node..marker..Edge$GT$8new_edge17ha19fe4417075849fE:
Lfunc_begin224:
	.loc	33 809 0
	.cfi_startproc
	pushq	%rbp
	.cfi_def_cfa_offset 16
	.cfi_offset %rbp, -16
	movq	%rsp, %rbp
	.cfi_def_cfa_register %rbp
	subq	$32, %rsp
	movq	%rdi, %rax
Ltmp771:
	movq	%rdx, -8(%rbp)
Ltmp772:
	.loc	33 812 18 prologue_end
	movq	(%rsi), %rcx
	movq	%rcx, -32(%rbp)
	movq	8(%rsi), %rcx
	movq	%rcx, -24(%rbp)
	movq	16(%rsi), %rcx
	movq	%rcx, -16(%rbp)
	.loc	33 812 9 is_stmt 0
	movq	-32(%rbp), %rcx
	movq	%rcx, (%rdi)
	movq	-24(%rbp), %rcx
	movq	%rcx, 8(%rdi)
	movq	-16(%rbp), %rcx
	movq	%rcx, 16(%rdi)
	movq	%rdx, 24(%rdi)
	.loc	33 813 6 is_stmt 1
	addq	$32, %rsp
	popq	%rbp
	retq
Ltmp773:
Lfunc_end224:
	.cfi_endproc

	.p2align	4, 0x90
__ZN5alloc11collections5btree4node139Handle$LT$alloc..collections..btree..node..NodeRef$LT$BorrowType$C$K$C$V$C$NodeType$GT$$C$alloc..collections..btree..node..marker..Edge$GT$8new_edge17hd9d99d520200d05fE:
Lfunc_begin225:
	.loc	33 809 0
	.cfi_startproc
	pushq	%rbp
	.cfi_def_cfa_offset 16
	.cfi_offset %rbp, -16
	movq	%rsp, %rbp
	.cfi_def_cfa_register %rbp
	subq	$32, %rsp
	movq	%rdi, %rax
Ltmp774:
	movq	%rdx, -8(%rbp)
Ltmp775:
	.loc	33 812 18 prologue_end
	movq	(%rsi), %rcx
	movq	%rcx, -32(%rbp)
	movq	8(%rsi), %rcx
	movq	%rcx, -24(%rbp)
	movq	16(%rsi), %rcx
	movq	%rcx, -16(%rbp)
	.loc	33 812 9 is_stmt 0
	movq	-32(%rbp), %rcx
	movq	%rcx, (%rdi)
	movq	-24(%rbp), %rcx
	movq	%rcx, 8(%rdi)
	movq	-16(%rbp), %rcx
	movq	%rcx, 16(%rdi)
	movq	%rdx, 24(%rdi)
	.loc	33 813 6 is_stmt 1
	addq	$32, %rsp
	popq	%rbp
	retq
Ltmp776:
Lfunc_end225:
	.cfi_endproc

	.p2align	4, 0x90
__ZN5alloc11collections5btree4node139Handle$LT$alloc..collections..btree..node..NodeRef$LT$BorrowType$C$K$C$V$C$NodeType$GT$$C$alloc..collections..btree..node..marker..Edge$GT$8right_kv17h876b798ef9b6118dE:
Lfunc_begin226:
	.loc	33 823 0
	.cfi_startproc
	pushq	%rbp
	.cfi_def_cfa_offset 16
	.cfi_offset %rbp, -16
	movq	%rsp, %rbp
	.cfi_def_cfa_register %rbp
	subq	$128, %rsp
	movq	%rdi, %rax
Ltmp777:
	.loc	33 824 12 prologue_end
	movq	24(%rsi), %rcx
	.loc	33 824 23 is_stmt 0
	movq	%rsi, %rdx
	movq	%rdi, -96(%rbp)
	movq	%rdx, %rdi
	movq	%rsi, -104(%rbp)
Ltmp778:
	.loc	33 0 23
	movq	%rax, -112(%rbp)
	movq	%rcx, -120(%rbp)
	.loc	33 824 23
	callq	__ZN5alloc11collections5btree4node40NodeRef$LT$BorrowType$C$K$C$V$C$Type$GT$3len17h03fd274f33e9a91eE
	movq	%rax, -128(%rbp)
Ltmp779:
	.loc	33 0 23
	movq	-120(%rbp), %rax
	movq	-128(%rbp), %rcx
	.loc	33 824 12
	cmpq	%rcx, %rax
	.loc	33 824 9
	jb	LBB226_3
Ltmp780:
	.loc	33 0 9
	movq	-104(%rbp), %rax
	.loc	33 827 17 is_stmt 1
	movq	(%rax), %rcx
	movq	%rcx, -32(%rbp)
	movq	8(%rax), %rcx
	movq	%rcx, -24(%rbp)
	movq	16(%rax), %rcx
	movq	%rcx, -16(%rbp)
	movq	24(%rax), %rcx
	movq	%rcx, -8(%rbp)
	.loc	33 827 13 is_stmt 0
	movq	-32(%rbp), %rcx
	movq	-96(%rbp), %rdx
	movq	%rcx, 8(%rdx)
	movq	-24(%rbp), %rcx
	movq	%rcx, 16(%rdx)
	movq	-16(%rbp), %rcx
	movq	%rcx, 24(%rdx)
	movq	-8(%rbp), %rcx
	movq	%rcx, 32(%rdx)
	movq	$1, (%rdx)
	.loc	33 824 9 is_stmt 1
	jmp	LBB226_5
Ltmp781:
LBB226_3:
	.loc	33 0 9 is_stmt 0
	movq	-104(%rbp), %rax
	.loc	33 825 40 is_stmt 1
	movq	(%rax), %rcx
	movq	%rcx, -56(%rbp)
	movq	8(%rax), %rcx
	movq	%rcx, -48(%rbp)
	movq	16(%rax), %rcx
	movq	%rcx, -40(%rbp)
	.loc	33 825 51 is_stmt 0
	movq	24(%rax), %rdx
	.loc	33 825 25
	leaq	-88(%rbp), %rdi
	leaq	-56(%rbp), %rsi
	callq	__ZN5alloc11collections5btree4node137Handle$LT$alloc..collections..btree..node..NodeRef$LT$BorrowType$C$K$C$V$C$NodeType$GT$$C$alloc..collections..btree..node..marker..KV$GT$6new_kv17h653d31ebd16c2feeE
Ltmp782:
	.loc	33 825 13
	movq	-88(%rbp), %rax
	movq	-96(%rbp), %rcx
	movq	%rax, 8(%rcx)
	movq	-80(%rbp), %rax
	movq	%rax, 16(%rcx)
	movq	-72(%rbp), %rax
	movq	%rax, 24(%rcx)
	movq	-64(%rbp), %rax
	movq	%rax, 32(%rcx)
	movq	$0, (%rcx)
Ltmp783:
LBB226_5:
	.loc	33 0 13
	movq	-112(%rbp), %rax
	.loc	33 829 6 is_stmt 1
	addq	$128, %rsp
	popq	%rbp
	retq
Ltmp784:
Lfunc_end226:
	.cfi_endproc

	.p2align	4, 0x90
__ZN5alloc11collections5btree4node151Handle$LT$alloc..collections..btree..node..NodeRef$LT$BorrowType$C$K$C$V$C$alloc..collections..btree..node..marker..LeafOrInternal$GT$$C$HandleType$GT$5force17h6db5e73cc7a18b63E:
Lfunc_begin227:
	.loc	33 1393 0
	.cfi_startproc
	pushq	%rbp
	.cfi_def_cfa_offset 16
	.cfi_offset %rbp, -16
	movq	%rsp, %rbp
	.cfi_def_cfa_register %rbp
	subq	$256, %rsp
	movq	%rdi, %rax
Ltmp785:
	.loc	33 1399 15 prologue_end
	movq	(%rsi), %rcx
	movq	%rcx, -200(%rbp)
	movq	8(%rsi), %rcx
	movq	%rcx, -192(%rbp)
	movq	16(%rsi), %rcx
	movq	%rcx, -184(%rbp)
	leaq	-232(%rbp), %rcx
	movq	%rdi, -240(%rbp)
	movq	%rcx, %rdi
	leaq	-200(%rbp), %rcx
	movq	%rsi, -248(%rbp)
Ltmp786:
	movq	%rcx, %rsi
	movq	%rax, -256(%rbp)
	callq	__ZN5alloc11collections5btree4node91NodeRef$LT$BorrowType$C$K$C$V$C$alloc..collections..btree..node..marker..LeafOrInternal$GT$5force17h4835fd3e865710a2E
Ltmp787:
	.loc	33 1400 13
	movq	-232(%rbp), %rax
	testq	%rax, %rax
	je	LBB227_4
	jmp	LBB227_6
Ltmp788:
LBB227_6:
	.loc	33 1403 35
	movq	-224(%rbp), %rax
	movq	%rax, -88(%rbp)
	movq	-216(%rbp), %rax
	movq	%rax, -80(%rbp)
	movq	-208(%rbp), %rax
	movq	%rax, -72(%rbp)
Ltmp789:
	.loc	33 1404 48
	movq	-88(%rbp), %rax
	movq	%rax, -32(%rbp)
	movq	-80(%rbp), %rax
	movq	%rax, -24(%rbp)
	movq	-72(%rbp), %rax
	movq	%rax, -16(%rbp)
	movq	-248(%rbp), %rax
	.loc	33 1404 59 is_stmt 0
	movq	24(%rax), %rcx
	.loc	33 1404 39
	movq	-32(%rbp), %rdx
	movq	%rdx, -64(%rbp)
	movq	-24(%rbp), %rdx
	movq	%rdx, -56(%rbp)
	movq	-16(%rbp), %rdx
	movq	%rdx, -48(%rbp)
	movq	%rcx, -40(%rbp)
	.loc	33 1404 17
	movq	-64(%rbp), %rcx
	movq	-240(%rbp), %rdx
	movq	%rcx, 8(%rdx)
	movq	-56(%rbp), %rcx
	movq	%rcx, 16(%rdx)
	movq	-48(%rbp), %rcx
	movq	%rcx, 24(%rdx)
	movq	-40(%rbp), %rcx
	movq	%rcx, 32(%rdx)
	movq	$1, (%rdx)
Ltmp790:
	.loc	33 1399 9 is_stmt 1
	jmp	LBB227_5
Ltmp791:
	.loc	33 1399 15 is_stmt 0
	ud2
LBB227_4:
Ltmp792:
	.loc	33 1400 31 is_stmt 1
	movq	-224(%rbp), %rax
	movq	%rax, -176(%rbp)
	movq	-216(%rbp), %rax
	movq	%rax, -168(%rbp)
	movq	-208(%rbp), %rax
	movq	%rax, -160(%rbp)
Ltmp793:
	.loc	33 1401 44
	movq	-176(%rbp), %rax
	movq	%rax, -120(%rbp)
	movq	-168(%rbp), %rax
	movq	%rax, -112(%rbp)
	movq	-160(%rbp), %rax
	movq	%rax, -104(%rbp)
	movq	-248(%rbp), %rax
	.loc	33 1401 55 is_stmt 0
	movq	24(%rax), %rcx
	.loc	33 1401 35
	movq	-120(%rbp), %rdx
	movq	%rdx, -152(%rbp)
	movq	-112(%rbp), %rdx
	movq	%rdx, -144(%rbp)
	movq	-104(%rbp), %rdx
	movq	%rdx, -136(%rbp)
	movq	%rcx, -128(%rbp)
	.loc	33 1401 17
	movq	-152(%rbp), %rcx
	movq	-240(%rbp), %rdx
	movq	%rcx, 8(%rdx)
	movq	-144(%rbp), %rcx
	movq	%rcx, 16(%rdx)
	movq	-136(%rbp), %rcx
	movq	%rcx, 24(%rdx)
	movq	-128(%rbp), %rcx
	movq	%rcx, 32(%rdx)
	movq	$0, (%rdx)
Ltmp794:
LBB227_5:
	.loc	33 0 17
	movq	-256(%rbp), %rax
	.loc	33 1407 6 is_stmt 1
	addq	$256, %rsp
	popq	%rbp
	retq
Ltmp795:
Lfunc_end227:
	.cfi_endproc

	.p2align	4, 0x90
__ZN5alloc11collections5btree4node151Handle$LT$alloc..collections..btree..node..NodeRef$LT$BorrowType$C$K$C$V$C$alloc..collections..btree..node..marker..LeafOrInternal$GT$$C$HandleType$GT$5force17hb8f089a149d40227E:
Lfunc_begin228:
	.loc	33 1393 0
	.cfi_startproc
	pushq	%rbp
	.cfi_def_cfa_offset 16
	.cfi_offset %rbp, -16
	movq	%rsp, %rbp
	.cfi_def_cfa_register %rbp
	subq	$256, %rsp
	movq	%rdi, %rax
Ltmp796:
	.loc	33 1399 15 prologue_end
	movq	(%rsi), %rcx
	movq	%rcx, -200(%rbp)
	movq	8(%rsi), %rcx
	movq	%rcx, -192(%rbp)
	movq	16(%rsi), %rcx
	movq	%rcx, -184(%rbp)
	leaq	-232(%rbp), %rcx
	movq	%rdi, -240(%rbp)
	movq	%rcx, %rdi
	leaq	-200(%rbp), %rcx
	movq	%rsi, -248(%rbp)
Ltmp797:
	movq	%rcx, %rsi
	movq	%rax, -256(%rbp)
	callq	__ZN5alloc11collections5btree4node91NodeRef$LT$BorrowType$C$K$C$V$C$alloc..collections..btree..node..marker..LeafOrInternal$GT$5force17h4835fd3e865710a2E
Ltmp798:
	.loc	33 1400 13
	movq	-232(%rbp), %rax
	testq	%rax, %rax
	je	LBB228_4
	jmp	LBB228_6
Ltmp799:
LBB228_6:
	.loc	33 1403 35
	movq	-224(%rbp), %rax
	movq	%rax, -88(%rbp)
	movq	-216(%rbp), %rax
	movq	%rax, -80(%rbp)
	movq	-208(%rbp), %rax
	movq	%rax, -72(%rbp)
Ltmp800:
	.loc	33 1404 48
	movq	-88(%rbp), %rax
	movq	%rax, -32(%rbp)
	movq	-80(%rbp), %rax
	movq	%rax, -24(%rbp)
	movq	-72(%rbp), %rax
	movq	%rax, -16(%rbp)
	movq	-248(%rbp), %rax
	.loc	33 1404 59 is_stmt 0
	movq	24(%rax), %rcx
	.loc	33 1404 39
	movq	-32(%rbp), %rdx
	movq	%rdx, -64(%rbp)
	movq	-24(%rbp), %rdx
	movq	%rdx, -56(%rbp)
	movq	-16(%rbp), %rdx
	movq	%rdx, -48(%rbp)
	movq	%rcx, -40(%rbp)
	.loc	33 1404 17
	movq	-64(%rbp), %rcx
	movq	-240(%rbp), %rdx
	movq	%rcx, 8(%rdx)
	movq	-56(%rbp), %rcx
	movq	%rcx, 16(%rdx)
	movq	-48(%rbp), %rcx
	movq	%rcx, 24(%rdx)
	movq	-40(%rbp), %rcx
	movq	%rcx, 32(%rdx)
	movq	$1, (%rdx)
Ltmp801:
	.loc	33 1399 9 is_stmt 1
	jmp	LBB228_5
Ltmp802:
	.loc	33 1399 15 is_stmt 0
	ud2
LBB228_4:
Ltmp803:
	.loc	33 1400 31 is_stmt 1
	movq	-224(%rbp), %rax
	movq	%rax, -176(%rbp)
	movq	-216(%rbp), %rax
	movq	%rax, -168(%rbp)
	movq	-208(%rbp), %rax
	movq	%rax, -160(%rbp)
Ltmp804:
	.loc	33 1401 44
	movq	-176(%rbp), %rax
	movq	%rax, -120(%rbp)
	movq	-168(%rbp), %rax
	movq	%rax, -112(%rbp)
	movq	-160(%rbp), %rax
	movq	%rax, -104(%rbp)
	movq	-248(%rbp), %rax
	.loc	33 1401 55 is_stmt 0
	movq	24(%rax), %rcx
	.loc	33 1401 35
	movq	-120(%rbp), %rdx
	movq	%rdx, -152(%rbp)
	movq	-112(%rbp), %rdx
	movq	%rdx, -144(%rbp)
	movq	-104(%rbp), %rdx
	movq	%rdx, -136(%rbp)
	movq	%rcx, -128(%rbp)
	.loc	33 1401 17
	movq	-152(%rbp), %rcx
	movq	-240(%rbp), %rdx
	movq	%rcx, 8(%rdx)
	movq	-144(%rbp), %rcx
	movq	%rcx, 16(%rdx)
	movq	-136(%rbp), %rcx
	movq	%rcx, 24(%rdx)
	movq	-128(%rbp), %rcx
	movq	%rcx, 32(%rdx)
	movq	$0, (%rdx)
Ltmp805:
LBB228_5:
	.loc	33 0 17
	movq	-256(%rbp), %rax
	.loc	33 1407 6 is_stmt 1
	addq	$256, %rsp
	popq	%rbp
	retq
Ltmp806:
Lfunc_end228:
	.cfi_endproc

	.p2align	4, 0x90
__ZN5alloc11collections5btree4node173Handle$LT$alloc..collections..btree..node..NodeRef$LT$alloc..collections..btree..node..marker..Immut$C$K$C$V$C$NodeType$GT$$C$alloc..collections..btree..node..marker..KV$GT$7into_kv17h3927333757808fa2E:
Lfunc_begin229:
	.loc	33 982 0
	.cfi_startproc
	pushq	%rbp
	.cfi_def_cfa_offset 16
	.cfi_offset %rbp, -16
	movq	%rsp, %rbp
	.cfi_def_cfa_register %rbp
	subq	$144, %rsp
Ltmp807:
	.loc	33 984 32 prologue_end
	movq	(%rdi), %rax
	movq	%rax, -56(%rbp)
	movq	8(%rdi), %rax
	movq	%rax, -48(%rbp)
	movq	16(%rdi), %rax
	movq	%rax, -40(%rbp)
	leaq	-88(%rbp), %rax
	movq	%rdi, -112(%rbp)
Ltmp808:
	movq	%rax, %rdi
	leaq	-56(%rbp), %rsi
	callq	__ZN5alloc11collections5btree4node76NodeRef$LT$alloc..collections..btree..node..marker..Immut$C$K$C$V$C$Type$GT$11into_slices17heab80f4696daf117E
Ltmp809:
	.loc	33 984 18 is_stmt 0
	movq	-88(%rbp), %rax
	movq	-80(%rbp), %rcx
	movq	%rax, -32(%rbp)
	movq	%rcx, -24(%rbp)
	.loc	33 984 24
	movq	-72(%rbp), %rdx
	movq	-64(%rbp), %rsi
	movq	%rdx, -16(%rbp)
	movq	%rsi, -8(%rbp)
	movq	-112(%rbp), %rdi
Ltmp810:
	.loc	33 985 33 is_stmt 1
	movq	24(%rdi), %r8
	.loc	33 985 14 is_stmt 0
	movq	%rax, %rdi
	movq	%rsi, -120(%rbp)
	movq	%rcx, %rsi
	movq	%rdx, -128(%rbp)
	movq	%r8, %rdx
	callq	__ZN4core5slice29_$LT$impl$u20$$u5b$T$u5d$$GT$13get_unchecked17hb9e2a9afd02439f1E
	movq	%rax, -136(%rbp)
Ltmp811:
	.loc	33 0 14
	movq	-112(%rbp), %rax
	.loc	33 985 63
	movq	24(%rax), %rdx
	movq	-128(%rbp), %rdi
	movq	-120(%rbp), %rsi
	.loc	33 985 44
	callq	__ZN4core5slice29_$LT$impl$u20$$u5b$T$u5d$$GT$13get_unchecked17hb7aef0acd2394e79E
	movq	%rax, -144(%rbp)
Ltmp812:
	.loc	33 0 44
	movq	-136(%rbp), %rax
	.loc	33 985 13
	movq	%rax, -104(%rbp)
	movq	-144(%rbp), %rcx
	movq	%rcx, -96(%rbp)
Ltmp813:
	.loc	33 987 6 is_stmt 1
	movq	-104(%rbp), %rax
	movq	-96(%rbp), %rdx
	addq	$144, %rsp
	popq	%rbp
	retq
Ltmp814:
Lfunc_end229:
	.cfi_endproc

	.p2align	4, 0x90
__ZN5alloc11collections5btree4node176Handle$LT$alloc..collections..btree..node..NodeRef$LT$BorrowType$C$K$C$V$C$alloc..collections..btree..node..marker..Leaf$GT$$C$alloc..collections..btree..node..marker..Edge$GT$16forget_node_type17he09a8052f27df13cE:
Lfunc_begin230:
	.loc	33 1366 0
	.cfi_startproc
	pushq	%rbp
	.cfi_def_cfa_offset 16
	.cfi_offset %rbp, -16
	movq	%rsp, %rbp
	.cfi_def_cfa_register %rbp
	subq	$80, %rsp
	movq	%rdi, %rax
Ltmp815:
	.loc	33 1369 35 prologue_end
	movq	(%rsi), %rcx
	movq	%rcx, -24(%rbp)
	movq	8(%rsi), %rcx
	movq	%rcx, -16(%rbp)
	movq	16(%rsi), %rcx
	movq	%rcx, -8(%rbp)
	leaq	-48(%rbp), %rcx
	movq	%rdi, -56(%rbp)
	movq	%rcx, %rdi
	leaq	-24(%rbp), %rcx
	movq	%rsi, -64(%rbp)
Ltmp816:
	movq	%rcx, %rsi
	movq	%rax, -72(%rbp)
	callq	__ZN5alloc11collections5btree4node40NodeRef$LT$BorrowType$C$K$C$V$C$Type$GT$11forget_type17hb9542c70e6918c1fE
Ltmp817:
	.loc	33 0 35 is_stmt 0
	movq	-64(%rbp), %rax
	.loc	33 1369 60
	movq	24(%rax), %rdx
	movq	-56(%rbp), %rdi
	.loc	33 1369 18
	leaq	-48(%rbp), %rsi
	callq	__ZN5alloc11collections5btree4node139Handle$LT$alloc..collections..btree..node..NodeRef$LT$BorrowType$C$K$C$V$C$NodeType$GT$$C$alloc..collections..btree..node..marker..Edge$GT$8new_edge17ha19fe4417075849fE
Ltmp818:
	.loc	33 0 18
	movq	-72(%rbp), %rax
	.loc	33 1370 6 is_stmt 1
	addq	$80, %rsp
	popq	%rbp
	retq
Ltmp819:
Lfunc_end230:
	.cfi_endproc

	.p2align	4, 0x90
__ZN5alloc11collections5btree4node17Root$LT$K$C$V$GT$8into_ref17h59e38a22a22b7a47E:
Lfunc_begin231:
	.loc	33 184 0
	.cfi_startproc
	pushq	%rbp
	.cfi_def_cfa_offset 16
	.cfi_offset %rbp, -16
	movq	%rsp, %rbp
	.cfi_def_cfa_register %rbp
	subq	$48, %rsp
	movq	%rdi, %rax
	movq	%rsi, -16(%rbp)
	movq	%rdx, -8(%rbp)
Ltmp820:
	.loc	33 186 21 prologue_end
	movq	-8(%rbp), %rcx
	.loc	33 187 19
	leaq	-16(%rbp), %rdx
Ltmp821:
	.loc	33 0 19 is_stmt 0
	movq	%rdi, -24(%rbp)
	.loc	33 187 19
	movq	%rdx, %rdi
	movq	%rax, -32(%rbp)
	movq	%rcx, -40(%rbp)
	callq	__ZN5alloc11collections5btree4node22BoxedNode$LT$K$C$V$GT$6as_ptr17hc4b5ee44ac43fd01E
Ltmp822:
	.loc	33 0 19
	movq	%rax, -48(%rbp)
	.loc	33 188 19 is_stmt 1
	jmp	LBB231_2
LBB231_2:
	.loc	33 0 19 is_stmt 0
	movq	-24(%rbp), %rax
	movq	-40(%rbp), %rcx
	.loc	33 185 9 is_stmt 1
	movq	%rcx, (%rax)
	movq	-48(%rbp), %rdx
	movq	%rdx, 8(%rax)
	movq	$0, 16(%rax)
	movq	-32(%rbp), %rax
	.loc	33 191 6
	addq	$48, %rsp
	popq	%rbp
	retq
Ltmp823:
Lfunc_end231:
	.cfi_endproc

	.p2align	4, 0x90
__ZN5alloc11collections5btree4node180Handle$LT$alloc..collections..btree..node..NodeRef$LT$BorrowType$C$K$C$V$C$alloc..collections..btree..node..marker..Internal$GT$$C$alloc..collections..btree..node..marker..Edge$GT$16forget_node_type17h5e6371003ef12e1aE:
Lfunc_begin232:
	.loc	33 1374 0
	.cfi_startproc
	pushq	%rbp
	.cfi_def_cfa_offset 16
	.cfi_offset %rbp, -16
	movq	%rsp, %rbp
	.cfi_def_cfa_register %rbp
	subq	$80, %rsp
	movq	%rdi, %rax
Ltmp824:
	.loc	33 1377 35 prologue_end
	movq	(%rsi), %rcx
	movq	%rcx, -24(%rbp)
	movq	8(%rsi), %rcx
	movq	%rcx, -16(%rbp)
	movq	16(%rsi), %rcx
	movq	%rcx, -8(%rbp)
	leaq	-48(%rbp), %rcx
	movq	%rdi, -56(%rbp)
	movq	%rcx, %rdi
	leaq	-24(%rbp), %rcx
	movq	%rsi, -64(%rbp)
Ltmp825:
	movq	%rcx, %rsi
	movq	%rax, -72(%rbp)
	callq	__ZN5alloc11collections5btree4node40NodeRef$LT$BorrowType$C$K$C$V$C$Type$GT$11forget_type17h24cd7f3437795f65E
Ltmp826:
	.loc	33 0 35 is_stmt 0
	movq	-64(%rbp), %rax
	.loc	33 1377 60
	movq	24(%rax), %rdx
	movq	-56(%rbp), %rdi
	.loc	33 1377 18
	leaq	-48(%rbp), %rsi
	callq	__ZN5alloc11collections5btree4node139Handle$LT$alloc..collections..btree..node..NodeRef$LT$BorrowType$C$K$C$V$C$NodeType$GT$$C$alloc..collections..btree..node..marker..Edge$GT$8new_edge17ha19fe4417075849fE
Ltmp827:
	.loc	33 0 18
	movq	-72(%rbp), %rax
	.loc	33 1378 6 is_stmt 1
	addq	$80, %rsp
	popq	%rbp
	retq
Ltmp828:
Lfunc_end232:
	.cfi_endproc

	.p2align	4, 0x90
__ZN5alloc11collections5btree4node180Handle$LT$alloc..collections..btree..node..NodeRef$LT$BorrowType$C$K$C$V$C$alloc..collections..btree..node..marker..Internal$GT$$C$alloc..collections..btree..node..marker..Edge$GT$7descend17h24c226fa7ac603ffE:
Lfunc_begin233:
	.loc	33 969 0
	.cfi_startproc
	pushq	%rbp
	.cfi_def_cfa_offset 16
	.cfi_offset %rbp, -16
	movq	%rsp, %rbp
	.cfi_def_cfa_register %rbp
	subq	$96, %rsp
	movq	%rdi, %rax
Ltmp829:
	.loc	33 971 21 prologue_end
	movq	(%rsi), %rcx
	subq	$1, %rcx
	.loc	33 973 20
	movq	%rsi, %rdx
	movq	%rdi, -32(%rbp)
	movq	%rdx, %rdi
	movq	%rsi, -40(%rbp)
Ltmp830:
	.loc	33 0 20 is_stmt 0
	movq	%rax, -48(%rbp)
	movq	%rcx, -56(%rbp)
	.loc	33 973 20
	callq	__ZN5alloc11collections5btree4node85NodeRef$LT$BorrowType$C$K$C$V$C$alloc..collections..btree..node..marker..Internal$GT$11as_internal17h674b5cf35f813b32E
	movq	%rax, -64(%rbp)
Ltmp831:
	.loc	33 0 20
	movq	-64(%rbp), %rax
	.loc	33 973 20
	addq	$544, %rax
	movq	-40(%rbp), %rcx
	.loc	33 973 64
	movq	24(%rcx), %rdx
	.loc	33 973 20
	movq	%rax, %rdi
	movl	$12, %esi
	callq	__ZN4core5slice29_$LT$impl$u20$$u5b$T$u5d$$GT$13get_unchecked17h12484d9b4117ea96E
	movq	%rax, -72(%rbp)
Ltmp832:
	.loc	33 0 20
	movq	-72(%rbp), %rax
	movq	%rax, -16(%rbp)
	movq	%rax, -8(%rbp)
	movq	%rax, -80(%rbp)
Ltmp833:
	movq	-80(%rbp), %rdi
	.loc	33 973 17
	callq	__ZN5alloc11collections5btree4node22BoxedNode$LT$K$C$V$GT$6as_ptr17hc4b5ee44ac43fd01E
	movq	%rax, -88(%rbp)
Ltmp834:
	.loc	33 0 17
	movq	-40(%rbp), %rax
	.loc	33 975 19 is_stmt 1
	movq	16(%rax), %rcx
	movq	-32(%rbp), %rdx
	movq	-56(%rbp), %rsi
	.loc	33 970 9
	movq	%rsi, (%rdx)
	movq	-88(%rbp), %rdi
	movq	%rdi, 8(%rdx)
	movq	%rcx, 16(%rdx)
	movq	-48(%rbp), %rax
	.loc	33 978 6
	addq	$96, %rsp
	popq	%rbp
	retq
Ltmp835:
Lfunc_end233:
	.cfi_endproc

	.p2align	4, 0x90
__ZN5alloc11collections5btree4node22BoxedNode$LT$K$C$V$GT$6as_ptr17hc4b5ee44ac43fd01E:
Lfunc_begin234:
	.loc	33 138 0
	.cfi_startproc
	pushq	%rbp
	.cfi_def_cfa_offset 16
	.cfi_offset %rbp, -16
	movq	%rsp, %rbp
	.cfi_def_cfa_register %rbp
	subq	$16, %rsp
	movq	%rdi, -8(%rbp)
Ltmp836:
	.loc	33 139 23 prologue_end
	movq	(%rdi), %rdi
	.loc	33 139 9 is_stmt 0
	callq	__ZN119_$LT$core..ptr..non_null..NonNull$LT$T$GT$$u20$as$u20$core..convert..From$LT$core..ptr..unique..Unique$LT$T$GT$$GT$$GT$4from17h1147e97b2e995821E
	movq	%rax, -16(%rbp)
	.loc	33 0 9
	movq	-16(%rbp), %rax
	.loc	33 140 6 is_stmt 1
	addq	$16, %rsp
	popq	%rbp
	retq
Ltmp837:
Lfunc_end234:
	.cfi_endproc

	.p2align	4, 0x90
__ZN5alloc11collections5btree4node25Handle$LT$Node$C$Type$GT$9into_node17h6dfee63655339158E:
Lfunc_begin235:
	.loc	33 733 0
	.cfi_startproc
	pushq	%rbp
	.cfi_def_cfa_offset 16
	.cfi_offset %rbp, -16
	movq	%rsp, %rbp
	.cfi_def_cfa_register %rbp
	movq	%rdi, %rax
Ltmp838:
	.loc	33 734 9 prologue_end
	movq	(%rsi), %rcx
	movq	%rcx, (%rdi)
	movq	8(%rsi), %rcx
	movq	%rcx, 8(%rdi)
	movq	16(%rsi), %rcx
	movq	%rcx, 16(%rdi)
	.loc	33 735 6
	popq	%rbp
	retq
Ltmp839:
Lfunc_end235:
	.cfi_endproc

	.p2align	4, 0x90
__ZN5alloc11collections5btree4node25Handle$LT$Node$C$Type$GT$9into_node17habe6c25f7ebdad91E:
Lfunc_begin236:
	.loc	33 733 0
	.cfi_startproc
	pushq	%rbp
	.cfi_def_cfa_offset 16
	.cfi_offset %rbp, -16
	movq	%rsp, %rbp
	.cfi_def_cfa_register %rbp
	movq	%rdi, %rax
Ltmp840:
	.loc	33 734 9 prologue_end
	movq	(%rsi), %rcx
	movq	%rcx, (%rdi)
	movq	8(%rsi), %rcx
	movq	%rcx, 8(%rdi)
	movq	16(%rsi), %rcx
	movq	%rcx, 16(%rdi)
	.loc	33 735 6
	popq	%rbp
	retq
Ltmp841:
Lfunc_end236:
	.cfi_endproc

	.p2align	4, 0x90
__ZN5alloc11collections5btree4node25Handle$LT$Node$C$Type$GT$9into_node17hd293cc503d4aa458E:
Lfunc_begin237:
	.loc	33 733 0
	.cfi_startproc
	pushq	%rbp
	.cfi_def_cfa_offset 16
	.cfi_offset %rbp, -16
	movq	%rsp, %rbp
	.cfi_def_cfa_register %rbp
	movq	%rdi, %rax
Ltmp842:
	.loc	33 734 9 prologue_end
	movq	(%rsi), %rcx
	movq	%rcx, (%rdi)
	movq	8(%rsi), %rcx
	movq	%rcx, 8(%rdi)
	movq	16(%rsi), %rcx
	movq	%rcx, 16(%rdi)
	.loc	33 735 6
	popq	%rbp
	retq
Ltmp843:
Lfunc_end237:
	.cfi_endproc

	.p2align	4, 0x90
__ZN5alloc11collections5btree4node40NodeRef$LT$BorrowType$C$K$C$V$C$Type$GT$10first_edge17h1ef50258757db799E:
Lfunc_begin238:
	.loc	33 367 0
	.cfi_startproc
	pushq	%rbp
	.cfi_def_cfa_offset 16
	.cfi_offset %rbp, -16
	movq	%rsp, %rbp
	.cfi_def_cfa_register %rbp
	subq	$32, %rsp
	movq	%rdi, %rax
	xorl	%ecx, %ecx
	movl	%ecx, %edx
Ltmp844:
	.loc	33 368 35 prologue_end
	movq	(%rsi), %r8
	movq	%r8, -24(%rbp)
	movq	8(%rsi), %r8
	movq	%r8, -16(%rbp)
	movq	16(%rsi), %rsi
Ltmp845:
	movq	%rsi, -8(%rbp)
	.loc	33 368 18 is_stmt 0
	leaq	-24(%rbp), %rsi
	movq	%rax, -32(%rbp)
	callq	__ZN5alloc11collections5btree4node139Handle$LT$alloc..collections..btree..node..NodeRef$LT$BorrowType$C$K$C$V$C$NodeType$GT$$C$alloc..collections..btree..node..marker..Edge$GT$8new_edge17ha19fe4417075849fE
	.loc	33 0 18
	movq	-32(%rbp), %rax
	.loc	33 369 6 is_stmt 1
	addq	$32, %rsp
	popq	%rbp
	retq
Ltmp846:
Lfunc_end238:
	.cfi_endproc

	.p2align	4, 0x90
__ZN5alloc11collections5btree4node40NodeRef$LT$BorrowType$C$K$C$V$C$Type$GT$10first_edge17h4c44943f345c069eE:
Lfunc_begin239:
	.loc	33 367 0
	.cfi_startproc
	pushq	%rbp
	.cfi_def_cfa_offset 16
	.cfi_offset %rbp, -16
	movq	%rsp, %rbp
	.cfi_def_cfa_register %rbp
	subq	$32, %rsp
	movq	%rdi, %rax
	xorl	%ecx, %ecx
	movl	%ecx, %edx
Ltmp847:
	.loc	33 368 35 prologue_end
	movq	(%rsi), %r8
	movq	%r8, -24(%rbp)
	movq	8(%rsi), %r8
	movq	%r8, -16(%rbp)
	movq	16(%rsi), %rsi
Ltmp848:
	movq	%rsi, -8(%rbp)
	.loc	33 368 18 is_stmt 0
	leaq	-24(%rbp), %rsi
	movq	%rax, -32(%rbp)
	callq	__ZN5alloc11collections5btree4node139Handle$LT$alloc..collections..btree..node..NodeRef$LT$BorrowType$C$K$C$V$C$NodeType$GT$$C$alloc..collections..btree..node..marker..Edge$GT$8new_edge17h26f50fdd392fd99aE
	.loc	33 0 18
	movq	-32(%rbp), %rax
	.loc	33 369 6 is_stmt 1
	addq	$32, %rsp
	popq	%rbp
	retq
Ltmp849:
Lfunc_end239:
	.cfi_endproc

	.p2align	4, 0x90
__ZN5alloc11collections5btree4node40NodeRef$LT$BorrowType$C$K$C$V$C$Type$GT$10first_edge17hf9e0e9490a70710bE:
Lfunc_begin240:
	.loc	33 367 0
	.cfi_startproc
	pushq	%rbp
	.cfi_def_cfa_offset 16
	.cfi_offset %rbp, -16
	movq	%rsp, %rbp
	.cfi_def_cfa_register %rbp
	subq	$32, %rsp
	movq	%rdi, %rax
	xorl	%ecx, %ecx
	movl	%ecx, %edx
Ltmp850:
	.loc	33 368 35 prologue_end
	movq	(%rsi), %r8
	movq	%r8, -24(%rbp)
	movq	8(%rsi), %r8
	movq	%r8, -16(%rbp)
	movq	16(%rsi), %rsi
Ltmp851:
	movq	%rsi, -8(%rbp)
	.loc	33 368 18 is_stmt 0
	leaq	-24(%rbp), %rsi
	movq	%rax, -32(%rbp)
	callq	__ZN5alloc11collections5btree4node139Handle$LT$alloc..collections..btree..node..NodeRef$LT$BorrowType$C$K$C$V$C$NodeType$GT$$C$alloc..collections..btree..node..marker..Edge$GT$8new_edge17hd9d99d520200d05fE
	.loc	33 0 18
	movq	-32(%rbp), %rax
	.loc	33 369 6 is_stmt 1
	addq	$32, %rsp
	popq	%rbp
	retq
Ltmp852:
Lfunc_end240:
	.cfi_endproc

	.p2align	4, 0x90
__ZN5alloc11collections5btree4node40NodeRef$LT$BorrowType$C$K$C$V$C$Type$GT$11forget_type17h24cd7f3437795f65E:
Lfunc_begin241:
	.loc	33 310 0
	.cfi_startproc
	pushq	%rbp
	.cfi_def_cfa_offset 16
	.cfi_offset %rbp, -16
	movq	%rsp, %rbp
	.cfi_def_cfa_register %rbp
	pushq	%rax
	movq	%rdi, %rax
Ltmp853:
	.loc	33 311 27 prologue_end
	movq	(%rsi), %rcx
	.loc	33 311 46 is_stmt 0
	movq	8(%rsi), %rdx
	.loc	33 311 63
	movq	16(%rsi), %rsi
Ltmp854:
	.loc	33 311 9
	movq	%rcx, (%rdi)
	movq	%rdx, 8(%rdi)
	movq	%rsi, 16(%rdi)
	.loc	33 312 6 is_stmt 1
	addq	$8, %rsp
	popq	%rbp
	retq
Ltmp855:
Lfunc_end241:
	.cfi_endproc

	.p2align	4, 0x90
__ZN5alloc11collections5btree4node40NodeRef$LT$BorrowType$C$K$C$V$C$Type$GT$11forget_type17hb9542c70e6918c1fE:
Lfunc_begin242:
	.loc	33 310 0
	.cfi_startproc
	pushq	%rbp
	.cfi_def_cfa_offset 16
	.cfi_offset %rbp, -16
	movq	%rsp, %rbp
	.cfi_def_cfa_register %rbp
	pushq	%rax
	movq	%rdi, %rax
Ltmp856:
	.loc	33 311 27 prologue_end
	movq	(%rsi), %rcx
	.loc	33 311 46 is_stmt 0
	movq	8(%rsi), %rdx
	.loc	33 311 63
	movq	16(%rsi), %rsi
Ltmp857:
	.loc	33 311 9
	movq	%rcx, (%rdi)
	movq	%rdx, 8(%rdi)
	movq	%rsi, 16(%rdi)
	.loc	33 312 6 is_stmt 1
	addq	$8, %rsp
	popq	%rbp
	retq
Ltmp858:
Lfunc_end242:
	.cfi_endproc

	.p2align	4, 0x90
__ZN5alloc11collections5btree4node40NodeRef$LT$BorrowType$C$K$C$V$C$Type$GT$3len17h03fd274f33e9a91eE:
Lfunc_begin243:
	.loc	33 298 0
	.cfi_startproc
	pushq	%rbp
	.cfi_def_cfa_offset 16
	.cfi_offset %rbp, -16
	movq	%rsp, %rbp
	.cfi_def_cfa_register %rbp
	subq	$16, %rsp
	movq	%rdi, -8(%rbp)
Ltmp859:
	.loc	33 299 9 prologue_end
	callq	__ZN5alloc11collections5btree4node40NodeRef$LT$BorrowType$C$K$C$V$C$Type$GT$7as_leaf17h2c3ecf052fb584e3E
	movq	%rax, -16(%rbp)
	.loc	33 0 9 is_stmt 0
	movq	-16(%rbp), %rax
	.loc	33 299 9
	movzwl	10(%rax), %ecx
	movl	%ecx, %eax
	.loc	33 300 6 is_stmt 1
	addq	$16, %rsp
	popq	%rbp
	retq
Ltmp860:
Lfunc_end243:
	.cfi_endproc

	.p2align	4, 0x90
__ZN5alloc11collections5btree4node40NodeRef$LT$BorrowType$C$K$C$V$C$Type$GT$3len17haf8d392190d7a092E:
Lfunc_begin244:
	.loc	33 298 0
	.cfi_startproc
	pushq	%rbp
	.cfi_def_cfa_offset 16
	.cfi_offset %rbp, -16
	movq	%rsp, %rbp
	.cfi_def_cfa_register %rbp
	subq	$16, %rsp
	movq	%rdi, -8(%rbp)
Ltmp861:
	.loc	33 299 9 prologue_end
	callq	__ZN5alloc11collections5btree4node40NodeRef$LT$BorrowType$C$K$C$V$C$Type$GT$7as_leaf17h40cd4f9e1da77a26E
	movq	%rax, -16(%rbp)
	.loc	33 0 9 is_stmt 0
	movq	-16(%rbp), %rax
	.loc	33 299 9
	movzwl	10(%rax), %ecx
	movl	%ecx, %eax
	.loc	33 300 6 is_stmt 1
	addq	$16, %rsp
	popq	%rbp
	retq
Ltmp862:
Lfunc_end244:
	.cfi_endproc

	.p2align	4, 0x90
__ZN5alloc11collections5btree4node40NodeRef$LT$BorrowType$C$K$C$V$C$Type$GT$6ascend17h0447d15e086befbaE:
Lfunc_begin245:
	.loc	33 347 0
	.cfi_startproc
	pushq	%rbp
	.cfi_def_cfa_offset 16
	.cfi_offset %rbp, -16
	movq	%rsp, %rbp
	.cfi_def_cfa_register %rbp
	subq	$192, %rsp
	movq	%rdi, %rax
Ltmp863:
	movq	%rdi, -136(%rbp)
Ltmp864:
	.loc	33 350 30 prologue_end
	movq	%rsi, %rdi
	movq	%rsi, -144(%rbp)
Ltmp865:
	.loc	33 0 30 is_stmt 0
	movq	%rax, -152(%rbp)
	.loc	33 350 30
	callq	__ZN5alloc11collections5btree4node40NodeRef$LT$BorrowType$C$K$C$V$C$Type$GT$7as_leaf17h2c3ecf052fb584e3E
	movq	%rax, -160(%rbp)
Ltmp866:
	.loc	33 0 30
	movq	-160(%rbp), %rax
	.loc	33 350 30
	movq	(%rax), %rcx
	movq	%rcx, -32(%rbp)
Ltmp867:
	.loc	33 351 33 is_stmt 1
	movq	%rcx, %rdi
	callq	__ZN4core3ptr8non_null16NonNull$LT$T$GT$3new17h8fae07e078c14b7eE
	movq	%rax, -128(%rbp)
Ltmp868:
	.loc	33 0 33 is_stmt 0
	xorl	%eax, %eax
	movl	%eax, %ecx
	.loc	33 351 16
	cmpq	$0, -128(%rbp)
	movl	$1, %edx
	cmovbeq	%rcx, %rdx
	cmpq	$1, %rdx
	je	LBB245_4
Ltmp869:
	.loc	33 0 16
	movq	-144(%rbp), %rax
	.loc	33 363 17 is_stmt 1
	movq	(%rax), %rcx
	movq	%rcx, -56(%rbp)
	movq	8(%rax), %rcx
	movq	%rcx, -48(%rbp)
	movq	16(%rax), %rcx
	movq	%rcx, -40(%rbp)
	.loc	33 363 13 is_stmt 0
	movq	-56(%rbp), %rcx
	movq	-136(%rbp), %rdx
	movq	%rcx, 8(%rdx)
	movq	-48(%rbp), %rcx
	movq	%rcx, 16(%rdx)
	movq	-40(%rbp), %rcx
	movq	%rcx, 24(%rdx)
	movq	$1, (%rdx)
	.loc	33 351 9 is_stmt 1
	jmp	LBB245_8
Ltmp870:
LBB245_4:
	.loc	33 351 21 is_stmt 0
	movq	-128(%rbp), %rax
	movq	%rax, -24(%rbp)
	movq	-144(%rbp), %rcx
Ltmp871:
	.loc	33 354 29 is_stmt 1
	movq	(%rcx), %rdx
	addq	$1, %rdx
	.loc	33 356 27
	movq	16(%rcx), %rsi
	.loc	33 353 23
	movq	%rdx, -88(%rbp)
	movq	%rax, -80(%rbp)
	movq	%rsi, -72(%rbp)
	.loc	33 359 44
	movq	%rcx, %rdi
	callq	__ZN5alloc11collections5btree4node40NodeRef$LT$BorrowType$C$K$C$V$C$Type$GT$7as_leaf17h2c3ecf052fb584e3E
	movq	%rax, -168(%rbp)
Ltmp872:
	.loc	33 0 44 is_stmt 0
	movq	-168(%rbp), %rax
	.loc	33 359 44
	addq	$8, %rax
	movq	%rax, -16(%rbp)
	movq	%rax, -8(%rbp)
	movq	%rax, -176(%rbp)
Ltmp873:
	.loc	33 0 44
	movq	-176(%rbp), %rax
	.loc	33 359 31
	movzwl	(%rax), %edi
	callq	__ZN4core7convert3num66_$LT$impl$u20$core..convert..From$LT$u16$GT$$u20$for$u20$usize$GT$4from17h49492f8ef020ea10E
	movq	%rax, -184(%rbp)
Ltmp874:
	.loc	33 352 16 is_stmt 1
	movq	-88(%rbp), %rax
	movq	%rax, -120(%rbp)
	movq	-80(%rbp), %rax
	movq	%rax, -112(%rbp)
	movq	-72(%rbp), %rax
	movq	%rax, -104(%rbp)
	movq	-184(%rbp), %rax
	movq	%rax, -96(%rbp)
	.loc	33 352 13 is_stmt 0
	movq	-120(%rbp), %rcx
	movq	-136(%rbp), %rdx
	movq	%rcx, 8(%rdx)
	movq	-112(%rbp), %rcx
	movq	%rcx, 16(%rdx)
	movq	-104(%rbp), %rcx
	movq	%rcx, 24(%rdx)
	movq	-96(%rbp), %rcx
	movq	%rcx, 32(%rdx)
	movq	$0, (%rdx)
Ltmp875:
LBB245_8:
	.loc	33 0 13
	movq	-152(%rbp), %rax
	.loc	33 365 6 is_stmt 1
	addq	$192, %rsp
	popq	%rbp
	retq
Ltmp876:
Lfunc_end245:
	.cfi_endproc

	.p2align	4, 0x90
__ZN5alloc11collections5btree4node40NodeRef$LT$BorrowType$C$K$C$V$C$Type$GT$7as_leaf17h2c3ecf052fb584e3E:
Lfunc_begin246:
	.loc	33 323 0
	.cfi_startproc
	pushq	%rbp
	.cfi_def_cfa_offset 16
	.cfi_offset %rbp, -16
	movq	%rsp, %rbp
	.cfi_def_cfa_register %rbp
	subq	$16, %rsp
	movq	%rdi, -8(%rbp)
Ltmp877:
	.loc	33 327 18 prologue_end
	addq	$8, %rdi
	callq	__ZN4core3ptr8non_null16NonNull$LT$T$GT$6as_ref17hd502e4899fc51fdcE
	movq	%rax, -16(%rbp)
	.loc	33 0 18 is_stmt 0
	movq	-16(%rbp), %rax
	.loc	33 328 6 is_stmt 1
	addq	$16, %rsp
	popq	%rbp
	retq
Ltmp878:
Lfunc_end246:
	.cfi_endproc

	.p2align	4, 0x90
__ZN5alloc11collections5btree4node40NodeRef$LT$BorrowType$C$K$C$V$C$Type$GT$7as_leaf17h40cd4f9e1da77a26E:
Lfunc_begin247:
	.loc	33 323 0
	.cfi_startproc
	pushq	%rbp
	.cfi_def_cfa_offset 16
	.cfi_offset %rbp, -16
	movq	%rsp, %rbp
	.cfi_def_cfa_register %rbp
	subq	$16, %rsp
	movq	%rdi, -8(%rbp)
Ltmp879:
	.loc	33 327 18 prologue_end
	addq	$8, %rdi
	callq	__ZN4core3ptr8non_null16NonNull$LT$T$GT$6as_ref17hd502e4899fc51fdcE
	movq	%rax, -16(%rbp)
	.loc	33 0 18 is_stmt 0
	movq	-16(%rbp), %rax
	.loc	33 328 6 is_stmt 1
	addq	$16, %rsp
	popq	%rbp
	retq
Ltmp880:
Lfunc_end247:
	.cfi_endproc

	.p2align	4, 0x90
__ZN5alloc11collections5btree4node40NodeRef$LT$BorrowType$C$K$C$V$C$Type$GT$8reborrow17hb02100ccf7258b4cE:
Lfunc_begin248:
	.loc	33 315 0
	.cfi_startproc
	pushq	%rbp
	.cfi_def_cfa_offset 16
	.cfi_offset %rbp, -16
	movq	%rsp, %rbp
	.cfi_def_cfa_register %rbp
	subq	$16, %rsp
	movq	%rdi, %rax
	movq	%rsi, -8(%rbp)
Ltmp881:
	.loc	33 316 27 prologue_end
	movq	(%rsi), %rcx
	.loc	33 316 46 is_stmt 0
	movq	8(%rsi), %rdx
	.loc	33 316 63
	movq	16(%rsi), %rsi
	.loc	33 316 9
	movq	%rcx, (%rdi)
	movq	%rdx, 8(%rdi)
	movq	%rsi, 16(%rdi)
	.loc	33 317 6 is_stmt 1
	addq	$16, %rsp
	popq	%rbp
	retq
Ltmp882:
Lfunc_end248:
	.cfi_endproc

	.p2align	4, 0x90
__ZN5alloc11collections5btree4node40NodeRef$LT$BorrowType$C$K$C$V$C$Type$GT$9last_edge17h5a7fe18055270240E:
Lfunc_begin249:
	.loc	33 371 0
	.cfi_startproc
	pushq	%rbp
	.cfi_def_cfa_offset 16
	.cfi_offset %rbp, -16
	movq	%rsp, %rbp
	.cfi_def_cfa_register %rbp
	subq	$64, %rsp
	movq	%rdi, %rax
Ltmp883:
	movq	%rdi, -40(%rbp)
Ltmp884:
	.loc	33 372 19 prologue_end
	movq	%rsi, %rdi
	movq	%rsi, -48(%rbp)
Ltmp885:
	.loc	33 0 19 is_stmt 0
	movq	%rax, -56(%rbp)
	.loc	33 372 19
	callq	__ZN5alloc11collections5btree4node40NodeRef$LT$BorrowType$C$K$C$V$C$Type$GT$3len17h03fd274f33e9a91eE
	movq	%rax, -8(%rbp)
	movq	%rax, -64(%rbp)
Ltmp886:
	.loc	33 0 19
	movq	-48(%rbp), %rax
Ltmp887:
	.loc	33 373 35 is_stmt 1
	movq	(%rax), %rcx
	movq	%rcx, -32(%rbp)
	movq	8(%rax), %rcx
	movq	%rcx, -24(%rbp)
	movq	16(%rax), %rcx
	movq	%rcx, -16(%rbp)
	movq	-40(%rbp), %rdi
	.loc	33 373 18 is_stmt 0
	leaq	-32(%rbp), %rsi
	movq	-64(%rbp), %rdx
	callq	__ZN5alloc11collections5btree4node139Handle$LT$alloc..collections..btree..node..NodeRef$LT$BorrowType$C$K$C$V$C$NodeType$GT$$C$alloc..collections..btree..node..marker..Edge$GT$8new_edge17ha19fe4417075849fE
Ltmp888:
	.loc	33 0 18
	movq	-56(%rbp), %rax
	.loc	33 374 6 is_stmt 1
	addq	$64, %rsp
	popq	%rbp
	retq
Ltmp889:
Lfunc_end249:
	.cfi_endproc

	.p2align	4, 0x90
__ZN5alloc11collections5btree4node76NodeRef$LT$alloc..collections..btree..node..marker..Immut$C$K$C$V$C$Type$GT$11into_slices17heab80f4696daf117E:
Lfunc_begin250:
	.loc	33 470 0
	.cfi_startproc
	pushq	%rbp
	.cfi_def_cfa_offset 16
	.cfi_offset %rbp, -16
	movq	%rsp, %rbp
	.cfi_def_cfa_register %rbp
	subq	$128, %rsp
	movq	%rdi, %rax
Ltmp890:
	.loc	33 472 26 prologue_end
	leaq	-72(%rbp), %rcx
Ltmp891:
	.loc	33 0 26 is_stmt 0
	movq	%rdi, -80(%rbp)
	.loc	33 472 26
	movq	%rcx, %rdi
	movq	%rsi, -88(%rbp)
Ltmp892:
	.loc	33 0 26
	movq	%rax, -96(%rbp)
	.loc	33 472 26
	callq	__ZN4core3ptr4read17hd7a071143c293637E
Ltmp893:
	.loc	33 473 10 is_stmt 1
	movq	-72(%rbp), %rax
	movq	%rax, -48(%rbp)
	movq	-64(%rbp), %rax
	movq	%rax, -40(%rbp)
	movq	-56(%rbp), %rax
	movq	%rax, -32(%rbp)
	leaq	-48(%rbp), %rdi
	callq	__ZN5alloc11collections5btree4node76NodeRef$LT$alloc..collections..btree..node..marker..Immut$C$K$C$V$C$Type$GT$14into_key_slice17h3dac2fbb3fbf8bddE
	movq	%rax, -104(%rbp)
	movq	%rdx, -112(%rbp)
Ltmp894:
	.loc	33 0 10 is_stmt 0
	movq	-88(%rbp), %rax
	.loc	33 473 30
	movq	(%rax), %rcx
	movq	%rcx, -24(%rbp)
	movq	8(%rax), %rcx
	movq	%rcx, -16(%rbp)
	movq	16(%rax), %rcx
	movq	%rcx, -8(%rbp)
	leaq	-24(%rbp), %rdi
	callq	__ZN5alloc11collections5btree4node76NodeRef$LT$alloc..collections..btree..node..marker..Immut$C$K$C$V$C$Type$GT$14into_val_slice17h41b9920bca17dcbeE
	movq	%rax, -120(%rbp)
	movq	%rdx, -128(%rbp)
Ltmp895:
	.loc	33 0 30
	movq	-80(%rbp), %rax
	movq	-104(%rbp), %rcx
	.loc	33 473 9
	movq	%rcx, (%rax)
	movq	-112(%rbp), %rdx
	movq	%rdx, 8(%rax)
	movq	-120(%rbp), %rsi
	movq	%rsi, 16(%rax)
	movq	-128(%rbp), %rdi
	movq	%rdi, 24(%rax)
	movq	-96(%rbp), %rax
Ltmp896:
	.loc	33 474 6 is_stmt 1
	addq	$128, %rsp
	popq	%rbp
	retq
Ltmp897:
Lfunc_end250:
	.cfi_endproc

	.p2align	4, 0x90
__ZN5alloc11collections5btree4node76NodeRef$LT$alloc..collections..btree..node..marker..Immut$C$K$C$V$C$Type$GT$14into_key_slice17h3dac2fbb3fbf8bddE:
Lfunc_begin251:
	.loc	33 462 0
	.cfi_startproc
	pushq	%rbp
	.cfi_def_cfa_offset 16
	.cfi_offset %rbp, -16
	movq	%rsp, %rbp
	.cfi_def_cfa_register %rbp
	subq	$64, %rsp
	movq	%rdi, -24(%rbp)
Ltmp898:
	.loc	33 463 64 prologue_end
