	.section	__TEXT,__text,regular,pure_instructions
	.macosx_version_min 10, 7
	.intel_syntax noprefix
	.p2align	4, 0x90
__ZN5alloc7raw_vec19RawVec$LT$T$C$A$GT$11allocate_in28_$u7b$$u7b$closure$u7d$$u7d$17h53906f9743bdf02eE:
	.cfi_startproc
	push	rbp
	.cfi_def_cfa_offset 16
	.cfi_offset rbp, -16
	mov	rbp, rsp
	.cfi_def_cfa_register rbp
	call	__ZN5alloc5alloc18handle_alloc_error17hbc0ab0ed90816c07E
	.cfi_endproc

	.globl	__ZN9addr2line9path_push17h86096bcd6c5298c7E
	.p2align	4, 0x90
__ZN9addr2line9path_push17h86096bcd6c5298c7E:
	.cfi_startproc
	push	rbp
	.cfi_def_cfa_offset 16
	.cfi_offset rbp, -16
	mov	rbp, rsp
	.cfi_def_cfa_register rbp
	push	r15
	push	r14
	push	r13
	push	r12
	push	rbx
	push	rax
	.cfi_offset rbx, -56
	.cfi_offset r12, -48
	.cfi_offset r13, -40
	.cfi_offset r14, -32
	.cfi_offset r15, -24
	mov	r14, rdx
	mov	r15, rsi
	mov	r12, rdi
	test	rdx, rdx
	je	LBB1_2
	cmp	byte ptr [r15], 47
	jne	LBB1_2
	mov	esi, 1
	mov	rdi, r14
	call	___rust_alloc
	test	rax, rax
	je	LBB1_41
	mov	rbx, rax
	mov	rdi, rax
	mov	rsi, r15
	mov	rdx, r14
	call	_memcpy
	mov	rdi, qword ptr [r12]
	test	rdi, rdi
	je	LBB1_10
	mov	rsi, qword ptr [r12 + 8]
	test	rsi, rsi
	je	LBB1_10
	mov	edx, 1
	call	___rust_dealloc
LBB1_10:
	mov	qword ptr [r12], rbx
	mov	qword ptr [r12 + 8], r14
	mov	qword ptr [r12 + 16], r14
	jmp	LBB1_11
LBB1_2:
	mov	rbx, qword ptr [r12 + 16]
	test	rbx, rbx
	je	LBB1_4
	mov	rax, qword ptr [r12]
	cmp	byte ptr [rbx + rax - 1], 47
	je	LBB1_24
LBB1_4:
	cmp	rbx, qword ptr [r12 + 8]
	jne	LBB1_5
	mov	r13, rbx
	inc	r13
	je	LBB1_39
	lea	rax, [rbx + rbx]
	cmp	rax, r13
	cmova	r13, rax
	test	rbx, rbx
	je	LBB1_17
	mov	rax, qword ptr [r12]
	test	rax, rax
	je	LBB1_17
	cmp	rbx, r13
	je	LBB1_20
	mov	edx, 1
	mov	rdi, rax
	mov	rsi, rbx
	mov	rcx, r13
	call	___rust_realloc
	test	rax, rax
	jne	LBB1_21
	jmp	LBB1_40
LBB1_5:
	mov	rax, qword ptr [r12]
	jmp	LBB1_23
LBB1_17:
	test	r13, r13
	je	LBB1_18
	mov	esi, 1
	mov	rdi, r13
	call	___rust_alloc
LBB1_20:
	test	rax, rax
	je	LBB1_40
LBB1_21:
	mov	rbx, qword ptr [r12 + 16]
	jmp	LBB1_22
LBB1_18:
	mov	eax, 1
LBB1_22:
	mov	qword ptr [r12], rax
	mov	qword ptr [r12 + 8], r13
LBB1_23:
	mov	byte ptr [rax + rbx], 47
	mov	rbx, qword ptr [r12 + 16]
	inc	rbx
	mov	qword ptr [r12 + 16], rbx
LBB1_24:
	mov	rsi, qword ptr [r12 + 8]
	mov	rax, rsi
	sub	rax, rbx
	cmp	rax, r14
	jae	LBB1_25
	mov	r13, rbx
	add	r13, r14
	jb	LBB1_39
	lea	rax, [rsi + rsi]
	cmp	rax, r13
	cmova	r13, rax
	test	rsi, rsi
	je	LBB1_32
	mov	rdi, qword ptr [r12]
	test	rdi, rdi
	je	LBB1_32
	cmp	rsi, r13
	je	LBB1_36
	mov	edx, 1
	mov	rcx, r13
	call	___rust_realloc
	jmp	LBB1_35
LBB1_25:
	mov	rdi, qword ptr [r12]
	jmp	LBB1_26
LBB1_32:
	test	r13, r13
	je	LBB1_33
	mov	esi, 1
	mov	rdi, r13
	call	___rust_alloc
LBB1_35:
	mov	rdi, rax
LBB1_36:
	test	rdi, rdi
	je	LBB1_40
	mov	rbx, qword ptr [r12 + 16]
	jmp	LBB1_38
LBB1_33:
	mov	edi, 1
LBB1_38:
	mov	qword ptr [r12], rdi
	mov	qword ptr [r12 + 8], r13
LBB1_26:
	add	rdi, rbx
	mov	rsi, r15
	mov	rdx, r14
	call	_memcpy
	add	rbx, r14
	mov	qword ptr [r12 + 16], rbx
LBB1_11:
	add	rsp, 8
	pop	rbx
	pop	r12
	pop	r13
	pop	r14
	pop	r15
	pop	rbp
	ret
LBB1_39:
	call	__ZN5alloc7raw_vec17capacity_overflow17h023f34f5bc34c61fE
LBB1_40:
	mov	esi, 1
	mov	rdi, r13
	call	__ZN5alloc5alloc18handle_alloc_error17hbc0ab0ed90816c07E
LBB1_41:
	mov	esi, 1
	mov	rdi, r14
	call	__ZN5alloc7raw_vec19RawVec$LT$T$C$A$GT$11allocate_in28_$u7b$$u7b$closure$u7d$$u7d$17h53906f9743bdf02eE
	.cfi_endproc

	.globl	__ZN9addr2line8demangle17h73fb053c5d71af3dE
	.p2align	4, 0x90
__ZN9addr2line8demangle17h73fb053c5d71af3dE:
	.cfi_startproc
	push	rbp
	.cfi_def_cfa_offset 16
	.cfi_offset rbp, -16
	mov	rbp, rsp
	.cfi_def_cfa_register rbp
	mov	rax, rdi
	mov	qword ptr [rdi], 0
	pop	rbp
	ret
	.cfi_endproc

	.globl	__ZN9addr2line13demangle_auto17he3674abe2855bce9E
	.p2align	4, 0x90
__ZN9addr2line13demangle_auto17he3674abe2855bce9E:
	.cfi_startproc
	push	rbp
	.cfi_def_cfa_offset 16
	.cfi_offset rbp, -16
	mov	rbp, rsp
	.cfi_def_cfa_register rbp
	mov	rax, rdi
	movups	xmm0, xmmword ptr [rsi]
	movups	xmm1, xmmword ptr [rsi + 16]
	movups	xmmword ptr [rdi], xmm0
	movups	xmmword ptr [rdi + 16], xmm1
	pop	rbp
	ret
	.cfi_endproc


.subsections_via_symbols
