	.section	__TEXT,__text,regular,pure_instructions
	.macosx_version_min 10, 7
	.globl	__ZN9addr2line9path_push17hbc29e0b95523a8dbE
	.p2align	4, 0x90
__ZN9addr2line9path_push17hbc29e0b95523a8dbE:
	.cfi_startproc
	pushq	%rbp
	.cfi_def_cfa_offset 16
	.cfi_offset %rbp, -16
	movq	%rsp, %rbp
	.cfi_def_cfa_register %rbp
	pushq	%r15
	pushq	%r14
	pushq	%r13
	pushq	%r12
	pushq	%rbx
	pushq	%rax
	.cfi_offset %rbx, -56
	.cfi_offset %r12, -48
	.cfi_offset %r13, -40
	.cfi_offset %r14, -32
	.cfi_offset %r15, -24
	movq	%rdx, %r14
	movq	%rsi, %r15
	movq	%rdi, %r12
	testq	%rdx, %rdx
	je	LBB0_2
	cmpb	$47, (%r15)
	jne	LBB0_2
	movl	$1, %esi
	movq	%r14, %rdi
	callq	___rust_alloc
	testq	%rax, %rax
	je	LBB0_35
	movq	%rax, %rbx
	movq	%rax, %rdi
	movq	%r15, %rsi
	movq	%r14, %rdx
	callq	_memcpy
	movq	(%r12), %rdi
	testq	%rdi, %rdi
	je	LBB0_10
	movq	8(%r12), %rsi
	testq	%rsi, %rsi
	je	LBB0_10
	movl	$1, %edx
	callq	___rust_dealloc
LBB0_10:
	movq	%rbx, (%r12)
	movq	%r14, 8(%r12)
	movq	%r14, 16(%r12)
	jmp	LBB0_11
LBB0_2:
	movq	16(%r12), %rbx
	testq	%rbx, %rbx
	je	LBB0_4
	movq	(%r12), %rax
	cmpb	$47, -1(%rbx,%rax)
	je	LBB0_21
LBB0_4:
	cmpq	8(%r12), %rbx
	jne	LBB0_5
	movq	%rbx, %rax
	incq	%rax
	je	LBB0_33
	leaq	(%rbx,%rbx), %rcx
	cmpq	%rax, %rcx
	cmovaq	%rcx, %rax
	cmpq	$8, %rax
	movl	$8, %r13d
	cmovaq	%rax, %r13
	testq	%rbx, %rbx
	je	LBB0_15
	movq	(%r12), %rax
	testq	%rax, %rax
	je	LBB0_15
	cmpq	%r13, %rbx
	je	LBB0_18
	movl	$1, %edx
	movq	%rax, %rdi
	movq	%rbx, %rsi
	movq	%r13, %rcx
	callq	___rust_realloc
	jmp	LBB0_18
LBB0_5:
	movq	(%r12), %rax
	jmp	LBB0_20
LBB0_15:
	movl	$1, %esi
	movq	%r13, %rdi
	callq	___rust_alloc
LBB0_18:
	testq	%rax, %rax
	je	LBB0_34
	movq	%rax, (%r12)
	movq	%r13, 8(%r12)
	movq	16(%r12), %rbx
LBB0_20:
	movb	$47, (%rax,%rbx)
	movq	16(%r12), %rbx
	incq	%rbx
	movq	%rbx, 16(%r12)
LBB0_21:
	movq	8(%r12), %rsi
	movq	%rsi, %rax
	subq	%rbx, %rax
	cmpq	%r14, %rax
	jae	LBB0_22
	addq	%r14, %rbx
	jb	LBB0_33
	leaq	(%rsi,%rsi), %rax
	cmpq	%rbx, %rax
	cmovaq	%rax, %rbx
	cmpq	$8, %rbx
	movl	$8, %r13d
	cmovaq	%rbx, %r13
	testq	%rsi, %rsi
	je	LBB0_27
	movq	(%r12), %rdi
	testq	%rdi, %rdi
	je	LBB0_27
	cmpq	%r13, %rsi
	je	LBB0_31
	movl	$1, %edx
	movq	%r13, %rcx
	callq	___rust_realloc
	jmp	LBB0_30
LBB0_22:
	movq	(%r12), %rdi
	jmp	LBB0_23
LBB0_27:
	movl	$1, %esi
	movq	%r13, %rdi
	callq	___rust_alloc
LBB0_30:
	movq	%rax, %rdi
LBB0_31:
	testq	%rdi, %rdi
	je	LBB0_34
	movq	%rdi, (%r12)
	movq	%r13, 8(%r12)
	movq	16(%r12), %rbx
LBB0_23:
	addq	%rbx, %rdi
	movq	%r15, %rsi
	movq	%r14, %rdx
	callq	_memcpy
	addq	%r14, %rbx
	movq	%rbx, 16(%r12)
LBB0_11:
	addq	$8, %rsp
	popq	%rbx
	popq	%r12
	popq	%r13
	popq	%r14
	popq	%r15
	popq	%rbp
	retq
LBB0_33:
	callq	__ZN5alloc7raw_vec17capacity_overflow17h7526b10e27579d59E
LBB0_34:
	movl	$1, %esi
	movq	%r13, %rdi
	callq	__ZN5alloc5alloc18handle_alloc_error17h28974197717b8939E
LBB0_35:
	movl	$1, %esi
	movq	%r14, %rdi
	callq	__ZN5alloc5alloc18handle_alloc_error17h28974197717b8939E
	.cfi_endproc

	.globl	__ZN9addr2line8demangle17h8f64202067f5bc2aE
	.p2align	4, 0x90
__ZN9addr2line8demangle17h8f64202067f5bc2aE:
	.cfi_startproc
	pushq	%rbp
	.cfi_def_cfa_offset 16
	.cfi_offset %rbp, -16
	movq	%rsp, %rbp
	.cfi_def_cfa_register %rbp
	movq	%rdi, %rax
	movq	$0, (%rdi)
	popq	%rbp
	retq
	.cfi_endproc

	.globl	__ZN9addr2line13demangle_auto17h9caada42ad0c2756E
	.p2align	4, 0x90
__ZN9addr2line13demangle_auto17h9caada42ad0c2756E:
	.cfi_startproc
	pushq	%rbp
	.cfi_def_cfa_offset 16
	.cfi_offset %rbp, -16
	movq	%rsp, %rbp
	.cfi_def_cfa_register %rbp
	movq	%rdi, %rax
	movups	(%rsi), %xmm0
	movups	16(%rsi), %xmm1
	movups	%xmm0, (%rdi)
	movups	%xmm1, 16(%rdi)
	popq	%rbp
	retq
	.cfi_endproc

.subsections_via_symbols
