	.section	__TEXT,__text,regular,pure_instructions
	.macosx_version_min 10, 7
	.p2align	4, 0x90
__ZN112_$LT$alloc..collections..btree..map..IntoIter$LT$K$C$V$GT$$u20$as$u20$core..iter..traits..iterator..Iterator$GT$4next17hf2a6c89dd2682443E:
	.cfi_startproc
	pushq	%rbp
	.cfi_def_cfa_offset 16
	.cfi_offset %rbp, -16
	movq	%rsp, %rbp
	.cfi_def_cfa_register %rbp
	pushq	%r15
	pushq	%r14
	pushq	%r13
	pushq	%r12
	pushq	%rbx
	subq	$136, %rsp
	.cfi_offset %rbx, -56
	.cfi_offset %r12, -48
	.cfi_offset %r13, -40
	.cfi_offset %r14, -32
	.cfi_offset %r15, -24
	movq	%rsi, %r12
	movq	%rdi, %rsi
	movq	64(%r12), %rax
	testq	%rax, %rax
	je	LBB0_21
	decq	%rax
	movq	%rax, 64(%r12)
	movq	8(%r12), %rax
	testq	%rax, %rax
	cmoveq	%rax, %r12
	je	LBB0_23
	movq	(%r12), %rax
	movq	8(%r12), %rdi
	movq	16(%r12), %r8
	movq	24(%r12), %r13
	movzwl	10(%rdi), %ecx
	cmpq	%rcx, %r13
	jae	LBB0_4
	movq	%rax, %rbx
	jmp	LBB0_10
LBB0_21:
	movq	$0, (%rsi)
	jmp	LBB0_22
LBB0_4:
	movq	%r8, -48(%rbp)
	movq	%rsi, -56(%rbp)
	movl	$544, %r15d
	movq	(%rdi), %r14
	testq	%r14, %r14
	je	LBB0_6
	.p2align	4, 0x90
LBB0_7:
	leaq	1(%rax), %rbx
	movzwl	8(%rdi), %r13d
LBB0_8:
	testq	%rax, %rax
	movl	$640, %esi
	cmoveq	%r15, %rsi
	movl	$8, %edx
	callq	___rust_dealloc
	movzwl	10(%r14), %ecx
	movq	%rbx, %rax
	movq	%r14, %rdi
	cmpq	%rcx, %r13
	jb	LBB0_9
	movq	(%rdi), %r14
	testq	%r14, %r14
	jne	LBB0_7
LBB0_6:
	movq	%rax, %rbx
	xorl	%r14d, %r14d
	jmp	LBB0_8
LBB0_9:
	movq	%r14, %rdi
	movq	-56(%rbp), %rsi
	movq	-48(%rbp), %r8
LBB0_10:
	leaq	(,%r13,2), %rax
	addq	%r13, %rax
	movq	32(%rdi,%rax,8), %rcx
	movq	%rcx, -128(%rbp)
	vmovups	16(%rdi,%rax,8), %xmm0
	vmovaps	%xmm0, -144(%rbp)
	movq	296(%rdi,%rax,8), %rcx
	movq	%rcx, -160(%rbp)
	vmovups	280(%rdi,%rax,8), %xmm0
	vmovaps	%xmm0, -176(%rbp)
	testq	%rbx, %rbx
	je	LBB0_11
	movq	%rbx, %rax
	movq	552(%rdi,%r13,8), %rdi
	decq	%rax
	je	LBB0_13
	addq	$-2, %rbx
	movq	%rax, %rcx
	andq	$7, %rcx
	je	LBB0_18
	xorl	%edx, %edx
	.p2align	4, 0x90
LBB0_16:
	movq	544(%rdi), %rdi
	incq	%rdx
	cmpq	%rdx, %rcx
	jne	LBB0_16
	subq	%rdx, %rax
LBB0_18:
	xorl	%r13d, %r13d
	cmpq	$7, %rbx
	jb	LBB0_20
	.p2align	4, 0x90
LBB0_19:
	movq	544(%rdi), %rcx
	movq	544(%rcx), %rcx
	movq	544(%rcx), %rcx
	movq	544(%rcx), %rcx
	movq	544(%rcx), %rcx
	movq	544(%rcx), %rcx
	movq	544(%rcx), %rcx
	movq	544(%rcx), %rdi
	addq	$-8, %rax
	jne	LBB0_19
	jmp	LBB0_20
LBB0_11:
	incq	%r13
	jmp	LBB0_20
LBB0_13:
	xorl	%r13d, %r13d
LBB0_20:
	movq	-128(%rbp), %rax
	vmovaps	-144(%rbp), %xmm0
	vmovaps	%xmm0, -112(%rbp)
	movq	%rax, -96(%rbp)
	vmovaps	-176(%rbp), %xmm0
	vmovups	%xmm0, -88(%rbp)
	movq	-160(%rbp), %rax
	movq	%rax, -72(%rbp)
	vmovups	-112(%rbp), %xmm0
	vmovups	%xmm0, (%rsi)
	movq	-96(%rbp), %rax
	movq	%rax, 16(%rsi)
	movq	-88(%rbp), %rax
	movq	%rax, 24(%rsi)
	movq	-96(%rbp), %rax
	movq	%rax, 16(%rsi)
	vmovups	-88(%rbp), %xmm0
	vmovups	%xmm0, 24(%rsi)
	movq	-72(%rbp), %rax
	movq	%rax, 40(%rsi)
	movq	$0, (%r12)
	movq	%rdi, 8(%r12)
	movq	%r8, 16(%r12)
	movq	%r13, 24(%r12)
LBB0_22:
	addq	$136, %rsp
	popq	%rbx
	popq	%r12
	popq	%r13
	popq	%r14
	popq	%r15
	popq	%rbp
	retq
LBB0_23:
	leaq	l___unnamed_1(%rip), %rdi
	leaq	l___unnamed_2(%rip), %rdx
	movl	$43, %esi
	callq	__ZN4core9panicking5panic17h736ee47a631475c0E
	.cfi_endproc

	.section	__TEXT,__literal16,16byte_literals
	.p2align	4
LCPI1_0:
	.quad	28
	.quad	28
	.section	__TEXT,__text,regular,pure_instructions
	.p2align	4, 0x90
__ZN3std2io5Write9write_all17h5d69126ddde1fdddE:
Lfunc_begin0:
	.cfi_startproc
	.cfi_personality 155, _rust_eh_personality
	.cfi_lsda 16, Lexception0
	pushq	%rbp
	.cfi_def_cfa_offset 16
	.cfi_offset %rbp, -16
	movq	%rsp, %rbp
	.cfi_def_cfa_register %rbp
	pushq	%r15
	pushq	%r14
	pushq	%r13
	pushq	%r12
	pushq	%rbx
	subq	$56, %rsp
	.cfi_offset %rbx, -56
	.cfi_offset %r12, -48
	.cfi_offset %r13, -40
	.cfi_offset %r14, -32
	.cfi_offset %r15, -24
	movq	%rdi, -48(%rbp)
	testq	%rcx, %rcx
	je	LBB1_23
	movq	%rcx, %r15
	movq	%rdx, %rbx
	movq	%rsi, %r12
	leaq	-64(%rbp), %r13
	leaq	-72(%rbp), %r14
	jmp	LBB1_2
	.p2align	4, 0x90
LBB1_21:
	movq	-56(%rbp), %rdi
	movl	$24, %esi
	movl	$8, %edx
	callq	___rust_dealloc
	movq	%r14, %r13
	movq	%r12, %r14
	movq	%rbx, %r12
	movq	-80(%rbp), %rbx
LBB1_22:
	testq	%r15, %r15
	je	LBB1_23
LBB1_2:
	movq	%r14, %rdi
	movq	%r12, %rsi
	movq	%rbx, %rdx
	movq	%r15, %rcx
	callq	__ZN59_$LT$std..process..ChildStdin$u20$as$u20$std..io..Write$GT$5write17h1bac9a206e5e2d39E
	cmpq	$1, -72(%rbp)
	jne	LBB1_3
Ltmp5:
	movq	%r13, %rdi
	callq	__ZN3std2io5error5Error4kind17ha6420639421e330eE
Ltmp6:
	cmpb	$15, %al
	jne	LBB1_15
	cmpq	$0, -72(%rbp)
	je	LBB1_22
	cmpb	$2, -64(%rbp)
	jb	LBB1_22
	movq	%rbx, -80(%rbp)
	movq	%r12, %rbx
	movq	%r14, %r12
	movq	%r13, %r14
	movq	-56(%rbp), %r13
	movq	(%r13), %rdi
	movq	8(%r13), %rax
Ltmp8:
	callq	*(%rax)
Ltmp9:
	movq	8(%r13), %rax
	movq	8(%rax), %rsi
	testq	%rsi, %rsi
	je	LBB1_21
	movq	(%r13), %rdi
	movq	16(%rax), %rdx
	callq	___rust_dealloc
	jmp	LBB1_21
	.p2align	4, 0x90
LBB1_3:
	movq	-64(%rbp), %rdi
	testq	%rdi, %rdi
	je	LBB1_4
	movq	%r15, %rax
	subq	%rdi, %rax
	jb	LBB1_10
	addq	%rdi, %rbx
	movq	%rax, %r15
	testq	%r15, %r15
	jne	LBB1_2
LBB1_23:
	movq	-48(%rbp), %rax
	movb	$3, (%rax)
	jmp	LBB1_24
LBB1_4:
	movl	$28, %edi
	movl	$1, %esi
	callq	___rust_alloc
	testq	%rax, %rax
	je	LBB1_29
	movq	%rax, %rbx
	vmovups	l___unnamed_3+12(%rip), %xmm0
	vmovups	%xmm0, 12(%rax)
	vmovups	l___unnamed_3(%rip), %xmm0
	vmovups	%xmm0, (%rax)
	movl	$24, %edi
	movl	$8, %esi
	callq	___rust_alloc
	testq	%rax, %rax
	je	LBB1_30
	movq	%rbx, (%rax)
	vmovaps	LCPI1_0(%rip), %xmm0
	vmovups	%xmm0, 8(%rax)
Ltmp2:
	leaq	l___unnamed_4(%rip), %rcx
	leaq	-96(%rbp), %rdi
	movl	$14, %esi
	movq	%rax, %rdx
	callq	__ZN3std2io5error5Error4_new17h7c6c803135aa1561E
Ltmp3:
	vmovups	-96(%rbp), %xmm0
	jmp	LBB1_8
LBB1_15:
	vmovups	(%r13), %xmm0
LBB1_8:
	movq	-48(%rbp), %rax
	vmovups	%xmm0, (%rax)
LBB1_24:
	addq	$56, %rsp
	popq	%rbx
	popq	%r12
	popq	%r13
	popq	%r14
	popq	%r15
	popq	%rbp
	retq
LBB1_10:
Ltmp0:
	leaq	l___unnamed_5(%rip), %rdx
	movq	%r15, %rsi
	callq	__ZN4core5slice22slice_index_order_fail17h85b430a3a039f0a8E
Ltmp1:
	ud2
LBB1_29:
	movl	$28, %edi
	movl	$1, %esi
	callq	__ZN5alloc7raw_vec19RawVec$LT$T$C$A$GT$11allocate_in28_$u7b$$u7b$closure$u7d$$u7d$17h4db379887edff23fE
LBB1_30:
	movl	$24, %edi
	movl	$8, %esi
	callq	__ZN5alloc5alloc18handle_alloc_error17hbc0ab0ed90816c07E
LBB1_26:
Ltmp4:
	jmp	LBB1_27
LBB1_31:
Ltmp10:
	movq	%rax, %rbx
	movq	(%r13), %rdi
	movq	8(%r13), %rsi
	callq	__ZN5alloc5alloc8box_free17h60ba51d8addc7fdeE
	movq	-56(%rbp), %rdi
	callq	__ZN5alloc5alloc8box_free17h4c7dac560e6bb77aE
	movq	%rbx, %rdi
	callq	__Unwind_Resume
	ud2
LBB1_25:
Ltmp7:
LBB1_27:
	movq	%rax, %rbx
	leaq	-72(%rbp), %rdi
	callq	__ZN4core3ptr13drop_in_place17h4f8ced47749a129cE
	movq	%rbx, %rdi
	callq	__Unwind_Resume
	ud2
Lfunc_end0:
	.cfi_endproc
	.section	__TEXT,__gcc_except_tab
	.p2align	2
GCC_except_table1:
Lexception0:
	.byte	255
	.byte	255
	.byte	1
	.uleb128 Lcst_end0-Lcst_begin0
Lcst_begin0:
	.uleb128 Lfunc_begin0-Lfunc_begin0
	.uleb128 Ltmp5-Lfunc_begin0
	.byte	0
	.byte	0
	.uleb128 Ltmp5-Lfunc_begin0
	.uleb128 Ltmp6-Ltmp5
	.uleb128 Ltmp7-Lfunc_begin0
	.byte	0
	.uleb128 Ltmp8-Lfunc_begin0
	.uleb128 Ltmp9-Ltmp8
	.uleb128 Ltmp10-Lfunc_begin0
	.byte	0
	.uleb128 Ltmp2-Lfunc_begin0
	.uleb128 Ltmp1-Ltmp2
	.uleb128 Ltmp4-Lfunc_begin0
	.byte	0
	.uleb128 Ltmp1-Lfunc_begin0
	.uleb128 Lfunc_end0-Ltmp1
	.byte	0
	.byte	0
Lcst_end0:
	.p2align	2

	.section	__TEXT,__text,regular,pure_instructions
	.p2align	4, 0x90
__ZN3std5error5Error5cause17h886704b262798e4aE:
	.cfi_startproc
	pushq	%rbp
	.cfi_def_cfa_offset 16
	.cfi_offset %rbp, -16
	movq	%rsp, %rbp
	.cfi_def_cfa_register %rbp
	xorl	%eax, %eax
	popq	%rbp
	retq
	.cfi_endproc

	.p2align	4, 0x90
__ZN3std5error5Error5cause17hd7404becf9de0972E:
	.cfi_startproc
	pushq	%rbp
	.cfi_def_cfa_offset 16
	.cfi_offset %rbp, -16
	movq	%rsp, %rbp
	.cfi_def_cfa_register %rbp
	xorl	%eax, %eax
	popq	%rbp
	retq
	.cfi_endproc

	.p2align	4, 0x90
__ZN3std5error5Error5cause17hfa872941de6a72a8E:
	.cfi_startproc
	pushq	%rbp
	.cfi_def_cfa_offset 16
	.cfi_offset %rbp, -16
	movq	%rsp, %rbp
	.cfi_def_cfa_register %rbp
	xorl	%eax, %eax
	popq	%rbp
	retq
	.cfi_endproc

	.p2align	4, 0x90
__ZN3std5error5Error7type_id17h3821d16a9d9f57a5E:
	.cfi_startproc
	pushq	%rbp
	.cfi_def_cfa_offset 16
	.cfi_offset %rbp, -16
	movq	%rsp, %rbp
	.cfi_def_cfa_register %rbp
	movabsq	$2636681851839236296, %rax
	popq	%rbp
	retq
	.cfi_endproc

	.p2align	4, 0x90
__ZN3std5error5Error7type_id17h851e0b75d7190d74E:
	.cfi_startproc
	pushq	%rbp
	.cfi_def_cfa_offset 16
	.cfi_offset %rbp, -16
	movq	%rsp, %rbp
	.cfi_def_cfa_register %rbp
	movabsq	$-9190556156156697329, %rax
	popq	%rbp
	retq
	.cfi_endproc

	.p2align	4, 0x90
__ZN3std5error5Error7type_id17h9bf696a1afcdc778E:
	.cfi_startproc
	pushq	%rbp
	.cfi_def_cfa_offset 16
	.cfi_offset %rbp, -16
	movq	%rsp, %rbp
	.cfi_def_cfa_register %rbp
	movabsq	$8488455371893940907, %rax
	popq	%rbp
	retq
	.cfi_endproc

	.p2align	4, 0x90
__ZN3std5error5Error7type_id17hc01d521799d82c65E:
	.cfi_startproc
	pushq	%rbp
	.cfi_def_cfa_offset 16
	.cfi_offset %rbp, -16
	movq	%rsp, %rbp
	.cfi_def_cfa_register %rbp
	movabsq	$2376535997521683092, %rax
	popq	%rbp
	retq
	.cfi_endproc

	.p2align	4, 0x90
__ZN3std5error5Error9backtrace17h0a2b4e96cc8ee493E:
	.cfi_startproc
	pushq	%rbp
	.cfi_def_cfa_offset 16
	.cfi_offset %rbp, -16
	movq	%rsp, %rbp
	.cfi_def_cfa_register %rbp
	xorl	%eax, %eax
	popq	%rbp
	retq
	.cfi_endproc

	.p2align	4, 0x90
__ZN3std5error5Error9backtrace17h0f97d53e0becb11dE:
	.cfi_startproc
	pushq	%rbp
	.cfi_def_cfa_offset 16
	.cfi_offset %rbp, -16
	movq	%rsp, %rbp
	.cfi_def_cfa_register %rbp
	xorl	%eax, %eax
	popq	%rbp
	retq
	.cfi_endproc

	.p2align	4, 0x90
__ZN3std5error5Error9backtrace17h4d03c03941473657E:
	.cfi_startproc
	pushq	%rbp
	.cfi_def_cfa_offset 16
	.cfi_offset %rbp, -16
	movq	%rsp, %rbp
	.cfi_def_cfa_register %rbp
	xorl	%eax, %eax
	popq	%rbp
	retq
	.cfi_endproc

	.p2align	4, 0x90
__ZN42_$LT$$RF$T$u20$as$u20$core..fmt..Debug$GT$3fmt17h01e16f06e3e5463eE:
	.cfi_startproc
	pushq	%rbp
	.cfi_def_cfa_offset 16
	.cfi_offset %rbp, -16
	movq	%rsp, %rbp
	.cfi_def_cfa_register %rbp
	movq	(%rdi), %rdi
	popq	%rbp
	jmp	__ZN62_$LT$autocfg..error..ErrorKind$u20$as$u20$core..fmt..Debug$GT$3fmt17h826008734138f7d6E
	.cfi_endproc

	.p2align	4, 0x90
__ZN42_$LT$$RF$T$u20$as$u20$core..fmt..Debug$GT$3fmt17h0e1ca5d4ac3c1e27E:
	.cfi_startproc
	pushq	%rbp
	.cfi_def_cfa_offset 16
	.cfi_offset %rbp, -16
	movq	%rsp, %rbp
	.cfi_def_cfa_register %rbp
	pushq	%r14
	pushq	%rbx
	subq	$32, %rsp
	.cfi_offset %rbx, -32
	.cfi_offset %r14, -24
	movq	(%rdi), %rbx
	cmpq	$0, (%rbx)
	je	LBB13_2
	leaq	-48(%rbp), %r14
	leaq	L___unnamed_6(%rip), %rdx
	movl	$4, %ecx
	movq	%r14, %rdi
	callq	__ZN4core3fmt9Formatter11debug_tuple17h15ca25ad759edd1cE
	movq	%rbx, -24(%rbp)
	leaq	l___unnamed_7(%rip), %rdx
	leaq	-24(%rbp), %rsi
	movq	%r14, %rdi
	callq	__ZN4core3fmt8builders10DebugTuple5field17hf36121153a94f236E
	jmp	LBB13_3
LBB13_2:
	leaq	-48(%rbp), %r14
	leaq	L___unnamed_8(%rip), %rdx
	movl	$4, %ecx
	movq	%r14, %rdi
	callq	__ZN4core3fmt9Formatter11debug_tuple17h15ca25ad759edd1cE
LBB13_3:
	movq	%r14, %rdi
	callq	__ZN4core3fmt8builders10DebugTuple6finish17h68acf09c6f6593f2E
	addq	$32, %rsp
	popq	%rbx
	popq	%r14
	popq	%rbp
	retq
	.cfi_endproc

	.p2align	4, 0x90
__ZN42_$LT$$RF$T$u20$as$u20$core..fmt..Debug$GT$3fmt17h2cc7756244b57203E:
	.cfi_startproc
	pushq	%rbp
	.cfi_def_cfa_offset 16
	.cfi_offset %rbp, -16
	movq	%rsp, %rbp
	.cfi_def_cfa_register %rbp
	pushq	%r14
	pushq	%rbx
	subq	$32, %rsp
	.cfi_offset %rbx, -32
	.cfi_offset %r14, -24
	movq	(%rdi), %rbx
	cmpq	$0, (%rbx)
	je	LBB14_2
	leaq	-48(%rbp), %r14
	leaq	L___unnamed_6(%rip), %rdx
	movl	$4, %ecx
	movq	%r14, %rdi
	callq	__ZN4core3fmt9Formatter11debug_tuple17h15ca25ad759edd1cE
	movq	%rbx, -24(%rbp)
	leaq	l___unnamed_9(%rip), %rdx
	leaq	-24(%rbp), %rsi
	movq	%r14, %rdi
	callq	__ZN4core3fmt8builders10DebugTuple5field17hf36121153a94f236E
	jmp	LBB14_3
LBB14_2:
	leaq	-48(%rbp), %r14
	leaq	L___unnamed_8(%rip), %rdx
	movl	$4, %ecx
	movq	%r14, %rdi
	callq	__ZN4core3fmt9Formatter11debug_tuple17h15ca25ad759edd1cE
LBB14_3:
	movq	%r14, %rdi
	callq	__ZN4core3fmt8builders10DebugTuple6finish17h68acf09c6f6593f2E
	addq	$32, %rsp
	popq	%rbx
	popq	%r14
	popq	%rbp
	retq
	.cfi_endproc

	.p2align	4, 0x90
__ZN42_$LT$$RF$T$u20$as$u20$core..fmt..Debug$GT$3fmt17h368343d4c81180a2E:
	.cfi_startproc
	pushq	%rbp
	.cfi_def_cfa_offset 16
	.cfi_offset %rbp, -16
	movq	%rsp, %rbp
	.cfi_def_cfa_register %rbp
	pushq	%r14
	pushq	%rbx
	.cfi_offset %rbx, -32
	.cfi_offset %r14, -24
	movq	%rsi, %rbx
	movq	(%rdi), %r14
	movq	%rsi, %rdi
	callq	__ZN4core3fmt9Formatter15debug_lower_hex17h8530fbaeba13f4d9E
	testb	%al, %al
	je	LBB15_1
	movq	%r14, %rdi
	movq	%rbx, %rsi
	popq	%rbx
	popq	%r14
	popq	%rbp
	jmp	__ZN4core3fmt3num55_$LT$impl$u20$core..fmt..LowerHex$u20$for$u20$usize$GT$3fmt17hbf7dc8c1d7fa021dE
LBB15_1:
	movq	%rbx, %rdi
	callq	__ZN4core3fmt9Formatter15debug_upper_hex17hf8fda15ec43a1e68E
	movq	%r14, %rdi
	movq	%rbx, %rsi
	testb	%al, %al
	je	LBB15_4
	popq	%rbx
	popq	%r14
	popq	%rbp
	jmp	__ZN4core3fmt3num55_$LT$impl$u20$core..fmt..UpperHex$u20$for$u20$usize$GT$3fmt17hf20a4f369caf234bE
LBB15_4:
	popq	%rbx
	popq	%r14
	popq	%rbp
	jmp	__ZN4core3fmt3num3imp54_$LT$impl$u20$core..fmt..Display$u20$for$u20$usize$GT$3fmt17h89ce3155a90f2edfE
	.cfi_endproc

	.p2align	4, 0x90
__ZN42_$LT$$RF$T$u20$as$u20$core..fmt..Debug$GT$3fmt17h3b37d394ebcb4573E:
	.cfi_startproc
	pushq	%rbp
	.cfi_def_cfa_offset 16
	.cfi_offset %rbp, -16
	movq	%rsp, %rbp
	.cfi_def_cfa_register %rbp
	movq	(%rdi), %rdi
	popq	%rbp
	jmp	__ZN57_$LT$core..str..Utf8Error$u20$as$u20$core..fmt..Debug$GT$3fmt17h1ecfb3cce2e619e0E
	.cfi_endproc

	.p2align	4, 0x90
__ZN42_$LT$$RF$T$u20$as$u20$core..fmt..Debug$GT$3fmt17h46c7c9a354a5ace3E:
	.cfi_startproc
	pushq	%rbp
	.cfi_def_cfa_offset 16
	.cfi_offset %rbp, -16
	movq	%rsp, %rbp
	.cfi_def_cfa_register %rbp
	pushq	%r15
	pushq	%r14
	pushq	%r12
	pushq	%rbx
	subq	$32, %rsp
	.cfi_offset %rbx, -48
	.cfi_offset %r12, -40
	.cfi_offset %r14, -32
	.cfi_offset %r15, -24
	movq	(%rdi), %rbx
	leaq	l___unnamed_10(%rip), %rdx
	leaq	-56(%rbp), %r15
	movl	$7, %ecx
	movq	%r15, %rdi
	callq	__ZN4core3fmt9Formatter12debug_struct17h985c0158d1fc7193E
	movq	%rbx, -40(%rbp)
	leaq	8(%rbx), %r12
	addq	$16, %rbx
	leaq	l___unnamed_11(%rip), %rsi
	leaq	l___unnamed_12(%rip), %r14
	leaq	-40(%rbp), %rcx
	movl	$5, %edx
	movq	%r15, %rdi
	movq	%r14, %r8
	callq	__ZN4core3fmt8builders11DebugStruct5field17h9c15dc155278eed2E
	movq	%r12, -40(%rbp)
	leaq	l___unnamed_13(%rip), %rsi
	leaq	-40(%rbp), %rcx
	movl	$5, %edx
	movq	%r15, %rdi
	movq	%r14, %r8
	callq	__ZN4core3fmt8builders11DebugStruct5field17h9c15dc155278eed2E
	movq	%rbx, -40(%rbp)
	leaq	l___unnamed_14(%rip), %rsi
	leaq	-40(%rbp), %rcx
	movl	$5, %edx
	movq	%r15, %rdi
	movq	%r14, %r8
	callq	__ZN4core3fmt8builders11DebugStruct5field17h9c15dc155278eed2E
	movq	%r15, %rdi
	callq	__ZN4core3fmt8builders11DebugStruct6finish17h26808393f3fed630E
	addq	$32, %rsp
	popq	%rbx
	popq	%r12
	popq	%r14
	popq	%r15
	popq	%rbp
	retq
	.cfi_endproc

	.p2align	4, 0x90
__ZN42_$LT$$RF$T$u20$as$u20$core..fmt..Debug$GT$3fmt17h55c4d04573eaddfdE:
	.cfi_startproc
	pushq	%rbp
	.cfi_def_cfa_offset 16
	.cfi_offset %rbp, -16
	movq	%rsp, %rbp
	.cfi_def_cfa_register %rbp
	movq	(%rdi), %rdi
	popq	%rbp
	jmp	__ZN63_$LT$std..ffi..os_str..OsString$u20$as$u20$core..fmt..Debug$GT$3fmt17h4501f882522330f8E
	.cfi_endproc

	.p2align	4, 0x90
__ZN42_$LT$$RF$T$u20$as$u20$core..fmt..Debug$GT$3fmt17h782fb73f874939d6E:
	.cfi_startproc
	pushq	%rbp
	.cfi_def_cfa_offset 16
	.cfi_offset %rbp, -16
	movq	%rsp, %rbp
	.cfi_def_cfa_register %rbp
	movq	%rsi, %rdx
	movq	(%rdi), %rax
	movq	(%rax), %rdi
	movq	8(%rax), %rsi
	popq	%rbp
	jmp	__ZN40_$LT$str$u20$as$u20$core..fmt..Debug$GT$3fmt17h2760aab2290546fcE
	.cfi_endproc

	.p2align	4, 0x90
__ZN42_$LT$$RF$T$u20$as$u20$core..fmt..Debug$GT$3fmt17h78ae82905fd99670E:
	.cfi_startproc
	pushq	%rbp
	.cfi_def_cfa_offset 16
	.cfi_offset %rbp, -16
	movq	%rsp, %rbp
	.cfi_def_cfa_register %rbp
	movq	%rsi, %rdx
	movq	(%rdi), %rax
	movq	(%rax), %rdi
	movq	16(%rax), %rsi
	popq	%rbp
	jmp	__ZN40_$LT$str$u20$as$u20$core..fmt..Debug$GT$3fmt17h2760aab2290546fcE
	.cfi_endproc

	.p2align	4, 0x90
__ZN42_$LT$$RF$T$u20$as$u20$core..fmt..Debug$GT$3fmt17h80b3581319d225dcE:
	.cfi_startproc
	pushq	%rbp
	.cfi_def_cfa_offset 16
	.cfi_offset %rbp, -16
	movq	%rsp, %rbp
	.cfi_def_cfa_register %rbp
	movq	(%rdi), %rdi
	popq	%rbp
	jmp	__ZN61_$LT$core..num..ParseIntError$u20$as$u20$core..fmt..Debug$GT$3fmt17h44c3304f11241241E
	.cfi_endproc

	.p2align	4, 0x90
__ZN42_$LT$$RF$T$u20$as$u20$core..fmt..Debug$GT$3fmt17hb64e47f9af8d475dE:
	.cfi_startproc
	pushq	%rbp
	.cfi_def_cfa_offset 16
	.cfi_offset %rbp, -16
	movq	%rsp, %rbp
	.cfi_def_cfa_register %rbp
	pushq	%r15
	pushq	%r14
	pushq	%r13
	pushq	%r12
	pushq	%rbx
	subq	$24, %rsp
	.cfi_offset %rbx, -56
	.cfi_offset %r12, -48
	.cfi_offset %r13, -40
	.cfi_offset %r14, -32
	.cfi_offset %r15, -24
	movq	(%rdi), %rax
	movq	(%rax), %r13
	movq	16(%rax), %rbx
	leaq	-64(%rbp), %rdi
	callq	__ZN4core3fmt9Formatter10debug_list17hd054f0986422feb9E
	testq	%rbx, %rbx
	je	LBB22_3
	shlq	$3, %rbx
	leaq	(%rbx,%rbx,2), %rbx
	leaq	l___unnamed_15(%rip), %r14
	leaq	-64(%rbp), %r15
	leaq	-48(%rbp), %r12
	.p2align	4, 0x90
LBB22_2:
	movq	%r13, -48(%rbp)
	addq	$24, %r13
	movq	%r15, %rdi
	movq	%r12, %rsi
	movq	%r14, %rdx
	callq	__ZN4core3fmt8builders9DebugList5entry17h5c0dec54538196dfE
	addq	$-24, %rbx
	jne	LBB22_2
LBB22_3:
	leaq	-64(%rbp), %rdi
	callq	__ZN4core3fmt8builders9DebugList6finish17h3635bd6af9b1c5a6E
	addq	$24, %rsp
	popq	%rbx
	popq	%r12
	popq	%r13
	popq	%r14
	popq	%r15
	popq	%rbp
	retq
	.cfi_endproc

	.p2align	4, 0x90
__ZN42_$LT$$RF$T$u20$as$u20$core..fmt..Debug$GT$3fmt17hb95b9bc508f7190fE:
	.cfi_startproc
	pushq	%rbp
	.cfi_def_cfa_offset 16
	.cfi_offset %rbp, -16
	movq	%rsp, %rbp
	.cfi_def_cfa_register %rbp
	movq	(%rdi), %rdi
	popq	%rbp
	jmp	__ZN58_$LT$std..io..error..Error$u20$as$u20$core..fmt..Debug$GT$3fmt17h3350f3f53e0cee4cE
	.cfi_endproc

	.p2align	4, 0x90
__ZN42_$LT$$RF$T$u20$as$u20$core..fmt..Debug$GT$3fmt17hdd9bfc22f41f866eE:
	.cfi_startproc
	pushq	%rbp
	.cfi_def_cfa_offset 16
	.cfi_offset %rbp, -16
	movq	%rsp, %rbp
	.cfi_def_cfa_register %rbp
	movq	(%rdi), %rdi
	popq	%rbp
	jmp	__ZN43_$LT$bool$u20$as$u20$core..fmt..Display$GT$3fmt17hf36463fa8b480ab4E
	.cfi_endproc

	.p2align	4, 0x90
__ZN42_$LT$$RF$T$u20$as$u20$core..fmt..Debug$GT$3fmt17he7196147848e4b5dE:
	.cfi_startproc
	pushq	%rbp
	.cfi_def_cfa_offset 16
	.cfi_offset %rbp, -16
	movq	%rsp, %rbp
	.cfi_def_cfa_register %rbp
	movq	(%rdi), %rdi
	popq	%rbp
	jmp	__ZN55_$LT$std..path..PathBuf$u20$as$u20$core..fmt..Debug$GT$3fmt17h92c5eba17174a69fE
	.cfi_endproc

	.p2align	4, 0x90
__ZN44_$LT$$RF$T$u20$as$u20$core..fmt..Display$GT$3fmt17hebc820d3180ae72dE:
	.cfi_startproc
	pushq	%rbp
	.cfi_def_cfa_offset 16
	.cfi_offset %rbp, -16
	movq	%rsp, %rbp
	.cfi_def_cfa_register %rbp
	movq	%rsi, %rdx
	movq	(%rdi), %rax
	movq	8(%rdi), %rsi
	movq	%rax, %rdi
	popq	%rbp
	jmp	__ZN42_$LT$str$u20$as$u20$core..fmt..Display$GT$3fmt17hd4dee1c1c4ccf892E
	.cfi_endproc

	.p2align	4, 0x90
__ZN4core3ptr13drop_in_place17h01c14b5e490a79e1E:
	.cfi_startproc
	pushq	%rbp
	.cfi_def_cfa_offset 16
	.cfi_offset %rbp, -16
	movq	%rsp, %rbp
	.cfi_def_cfa_register %rbp
	popq	%rbp
	retq
	.cfi_endproc

	.p2align	4, 0x90
__ZN4core3ptr13drop_in_place17h13df6fee417d4db7E:
Lfunc_begin1:
	.cfi_startproc
	.cfi_personality 155, _rust_eh_personality
	.cfi_lsda 16, Lexception1
	pushq	%rbp
	.cfi_def_cfa_offset 16
	.cfi_offset %rbp, -16
	movq	%rsp, %rbp
	.cfi_def_cfa_register %rbp
	pushq	%r15
	pushq	%r14
	pushq	%rbx
	pushq	%rax
	.cfi_offset %rbx, -40
	.cfi_offset %r14, -32
	.cfi_offset %r15, -24
	cmpb	$2, (%rdi)
	jae	LBB28_1
	addq	$8, %rsp
	popq	%rbx
	popq	%r14
	popq	%r15
	popq	%rbp
	retq
LBB28_1:
	movq	%rdi, %r15
	movq	8(%rdi), %rbx
	movq	(%rbx), %rdi
	movq	8(%rbx), %rax
Ltmp11:
	callq	*(%rax)
Ltmp12:
	movq	8(%rbx), %rax
	movq	8(%rax), %rsi
	testq	%rsi, %rsi
	je	LBB28_4
	movq	(%rbx), %rdi
	movq	16(%rax), %rdx
	callq	___rust_dealloc
LBB28_4:
	movq	8(%r15), %rdi
	movl	$24, %esi
	movl	$8, %edx
	addq	$8, %rsp
	popq	%rbx
	popq	%r14
	popq	%r15
	popq	%rbp
	jmp	___rust_dealloc
LBB28_6:
Ltmp13:
	movq	%rax, %r14
	movq	(%rbx), %rdi
	movq	8(%rbx), %rsi
	callq	__ZN5alloc5alloc8box_free17h60ba51d8addc7fdeE
	movq	8(%r15), %rdi
	callq	__ZN5alloc5alloc8box_free17h4c7dac560e6bb77aE
	movq	%r14, %rdi
	callq	__Unwind_Resume
	ud2
Lfunc_end1:
	.cfi_endproc
	.section	__TEXT,__gcc_except_tab
	.p2align	2
GCC_except_table28:
Lexception1:
	.byte	255
	.byte	255
	.byte	1
	.uleb128 Lcst_end1-Lcst_begin1
Lcst_begin1:
	.uleb128 Ltmp11-Lfunc_begin1
	.uleb128 Ltmp12-Ltmp11
	.uleb128 Ltmp13-Lfunc_begin1
	.byte	0
	.uleb128 Ltmp12-Lfunc_begin1
	.uleb128 Lfunc_end1-Ltmp12
	.byte	0
	.byte	0
Lcst_end1:
	.p2align	2

	.section	__TEXT,__text,regular,pure_instructions
	.p2align	4, 0x90
__ZN4core3ptr13drop_in_place17h1503c8b117f2fa61E:
	.cfi_startproc
	pushq	%rbp
	.cfi_def_cfa_offset 16
	.cfi_offset %rbp, -16
	movq	%rsp, %rbp
	.cfi_def_cfa_register %rbp
	pushq	%r15
	pushq	%r14
	pushq	%rbx
	pushq	%rax
	.cfi_offset %rbx, -40
	.cfi_offset %r14, -32
	.cfi_offset %r15, -24
	movq	%rdi, %r14
	movq	(%rdi), %rdi
	testq	%rdi, %rdi
	je	LBB29_3
	movq	8(%r14), %rsi
	testq	%rsi, %rsi
	je	LBB29_3
	movl	$1, %edx
	callq	___rust_dealloc
LBB29_3:
	movq	24(%r14), %rdi
	testq	%rdi, %rdi
	je	LBB29_6
	movq	32(%r14), %rsi
	testq	%rsi, %rsi
	je	LBB29_6
	movl	$1, %edx
	callq	___rust_dealloc
LBB29_6:
	movq	72(%r14), %rdi
	testq	%rdi, %rdi
	je	LBB29_7
	movq	80(%r14), %rsi
	testq	%rsi, %rsi
	je	LBB29_7
	movl	$1, %edx
	callq	___rust_dealloc
LBB29_7:
	movq	96(%r14), %rbx
	testq	%rbx, %rbx
	je	LBB29_18
	movq	112(%r14), %rax
	testq	%rax, %rax
	je	LBB29_15
	leaq	(%rax,%rax,2), %rax
	leaq	(%rbx,%rax,8), %r15
	movq	(%rbx), %rdi
	testq	%rdi, %rdi
	jne	LBB29_11
	.p2align	4, 0x90
LBB29_13:
	addq	$24, %rbx
	cmpq	%r15, %rbx
	je	LBB29_14
LBB29_10:
	movq	(%rbx), %rdi
	testq	%rdi, %rdi
	je	LBB29_13
LBB29_11:
	movq	8(%rbx), %rsi
	testq	%rsi, %rsi
	je	LBB29_13
	movl	$1, %edx
	callq	___rust_dealloc
	addq	$24, %rbx
	cmpq	%r15, %rbx
	jne	LBB29_10
LBB29_14:
	movq	96(%r14), %rbx
LBB29_15:
	movq	104(%r14), %rax
	testq	%rax, %rax
	je	LBB29_18
	testq	%rbx, %rbx
	je	LBB29_18
	shlq	$3, %rax
	leaq	(%rax,%rax,2), %rsi
	testq	%rsi, %rsi
	je	LBB29_18
	movl	$8, %edx
	movq	%rbx, %rdi
	addq	$8, %rsp
	popq	%rbx
	popq	%r14
	popq	%r15
	popq	%rbp
	jmp	___rust_dealloc
LBB29_18:
	addq	$8, %rsp
	popq	%rbx
	popq	%r14
	popq	%r15
	popq	%rbp
	retq
	.cfi_endproc

	.p2align	4, 0x90
__ZN4core3ptr13drop_in_place17h1a026fa8f0b008e4E:
	.cfi_startproc
	pushq	%rbp
	.cfi_def_cfa_offset 16
	.cfi_offset %rbp, -16
	movq	%rsp, %rbp
	.cfi_def_cfa_register %rbp
	cmpl	$0, (%rdi)
	je	LBB30_1
	addq	$4, %rdi
	popq	%rbp
	jmp	__ZN70_$LT$std..sys..unix..fd..FileDesc$u20$as$u20$core..ops..drop..Drop$GT$4drop17hf5fce2bf4d9f8deaE
LBB30_1:
	popq	%rbp
	retq
	.cfi_endproc

	.p2align	4, 0x90
__ZN4core3ptr13drop_in_place17h344bbcc8dac09da4E:
	.cfi_startproc
	pushq	%rbp
	.cfi_def_cfa_offset 16
	.cfi_offset %rbp, -16
	movq	%rsp, %rbp
	.cfi_def_cfa_register %rbp
	pushq	%r15
	pushq	%r14
	pushq	%rbx
	pushq	%rax
	.cfi_offset %rbx, -40
	.cfi_offset %r14, -32
	.cfi_offset %r15, -24
	movq	%rdi, %r14
	movq	(%rdi), %rbx
	movq	16(%rdi), %rax
	testq	%rax, %rax
	je	LBB31_7
	leaq	(%rax,%rax,2), %rax
	leaq	(%rbx,%rax,8), %r15
	movq	(%rbx), %rdi
	testq	%rdi, %rdi
	jne	LBB31_3
	.p2align	4, 0x90
LBB31_5:
	addq	$24, %rbx
	cmpq	%r15, %rbx
	je	LBB31_6
LBB31_2:
	movq	(%rbx), %rdi
	testq	%rdi, %rdi
	je	LBB31_5
LBB31_3:
	movq	8(%rbx), %rsi
	testq	%rsi, %rsi
	je	LBB31_5
	movl	$1, %edx
	callq	___rust_dealloc
	addq	$24, %rbx
	cmpq	%r15, %rbx
	jne	LBB31_2
LBB31_6:
	movq	(%r14), %rbx
LBB31_7:
	movq	8(%r14), %rax
	testq	%rax, %rax
	je	LBB31_10
	testq	%rbx, %rbx
	je	LBB31_10
	shlq	$3, %rax
	leaq	(%rax,%rax,2), %rsi
	testq	%rsi, %rsi
	je	LBB31_10
	movl	$8, %edx
	movq	%rbx, %rdi
	addq	$8, %rsp
	popq	%rbx
	popq	%r14
	popq	%r15
	popq	%rbp
	jmp	___rust_dealloc
LBB31_10:
	addq	$8, %rsp
	popq	%rbx
	popq	%r14
	popq	%r15
	popq	%rbp
	retq
	.cfi_endproc

	.p2align	4, 0x90
__ZN4core3ptr13drop_in_place17h3621df5835529ab0E:
	.cfi_startproc
	pushq	%rbp
	.cfi_def_cfa_offset 16
	.cfi_offset %rbp, -16
	movq	%rsp, %rbp
	.cfi_def_cfa_register %rbp
	pushq	%r15
	pushq	%r14
	pushq	%rbx
	pushq	%rax
	.cfi_offset %rbx, -40
	.cfi_offset %r14, -32
	.cfi_offset %r15, -24
	movq	(%rdi), %rbx
	testq	%rbx, %rbx
	je	LBB32_11
	movq	%rdi, %r14
	movq	16(%rdi), %rax
	testq	%rax, %rax
	je	LBB32_8
	leaq	(%rax,%rax,2), %rax
	leaq	(%rbx,%rax,8), %r15
	movq	(%rbx), %rdi
	testq	%rdi, %rdi
	jne	LBB32_4
	.p2align	4, 0x90
LBB32_6:
	addq	$24, %rbx
	cmpq	%r15, %rbx
	je	LBB32_7
LBB32_3:
	movq	(%rbx), %rdi
	testq	%rdi, %rdi
	je	LBB32_6
LBB32_4:
	movq	8(%rbx), %rsi
	testq	%rsi, %rsi
	je	LBB32_6
	movl	$1, %edx
	callq	___rust_dealloc
	addq	$24, %rbx
	cmpq	%r15, %rbx
	jne	LBB32_3
LBB32_7:
	movq	(%r14), %rbx
LBB32_8:
	movq	8(%r14), %rax
	testq	%rax, %rax
	je	LBB32_11
	testq	%rbx, %rbx
	je	LBB32_11
	shlq	$3, %rax
	leaq	(%rax,%rax,2), %rsi
	testq	%rsi, %rsi
	je	LBB32_11
	movl	$8, %edx
	movq	%rbx, %rdi
	addq	$8, %rsp
	popq	%rbx
	popq	%r14
	popq	%r15
	popq	%rbp
	jmp	___rust_dealloc
LBB32_11:
	addq	$8, %rsp
	popq	%rbx
	popq	%r14
	popq	%r15
	popq	%rbp
	retq
	.cfi_endproc

	.p2align	4, 0x90
__ZN4core3ptr13drop_in_place17h36dfe49c41b45b33E:
	.cfi_startproc
	pushq	%rbp
	.cfi_def_cfa_offset 16
	.cfi_offset %rbp, -16
	movq	%rsp, %rbp
	.cfi_def_cfa_register %rbp
	cmpl	$3, (%rdi)
	jne	LBB33_1
	addq	$4, %rdi
	popq	%rbp
	jmp	__ZN70_$LT$std..sys..unix..fd..FileDesc$u20$as$u20$core..ops..drop..Drop$GT$4drop17hf5fce2bf4d9f8deaE
LBB33_1:
	popq	%rbp
	retq
	.cfi_endproc

	.p2align	4, 0x90
__ZN4core3ptr13drop_in_place17h381d3b4a25fe0dddE:
Lfunc_begin2:
	.cfi_startproc
	.cfi_personality 155, _rust_eh_personality
	.cfi_lsda 16, Lexception2
	pushq	%rbp
	.cfi_def_cfa_offset 16
	.cfi_offset %rbp, -16
	movq	%rsp, %rbp
	.cfi_def_cfa_register %rbp
	pushq	%r14
	pushq	%rbx
	.cfi_offset %rbx, -32
	.cfi_offset %r14, -24
	movq	%rdi, %rbx
	movq	(%rdi), %rdi
	movq	8(%rbx), %rax
Ltmp14:
	callq	*(%rax)
Ltmp15:
	movq	8(%rbx), %rax
	movq	8(%rax), %rsi
	testq	%rsi, %rsi
	je	LBB34_2
	movq	(%rbx), %rdi
	movq	16(%rax), %rdx
	popq	%rbx
	popq	%r14
	popq	%rbp
	jmp	___rust_dealloc
LBB34_2:
	popq	%rbx
	popq	%r14
	popq	%rbp
	retq
LBB34_3:
Ltmp16:
	movq	%rax, %r14
	movq	(%rbx), %rdi
	movq	8(%rbx), %rsi
	callq	__ZN5alloc5alloc8box_free17h60ba51d8addc7fdeE
	movq	%r14, %rdi
	callq	__Unwind_Resume
	ud2
Lfunc_end2:
	.cfi_endproc
	.section	__TEXT,__gcc_except_tab
	.p2align	2
GCC_except_table34:
Lexception2:
	.byte	255
	.byte	255
	.byte	1
	.uleb128 Lcst_end2-Lcst_begin2
Lcst_begin2:
	.uleb128 Ltmp14-Lfunc_begin2
	.uleb128 Ltmp15-Ltmp14
	.uleb128 Ltmp16-Lfunc_begin2
	.byte	0
	.uleb128 Ltmp15-Lfunc_begin2
	.uleb128 Lfunc_end2-Ltmp15
	.byte	0
	.byte	0
Lcst_end2:
	.p2align	2

	.section	__TEXT,__text,regular,pure_instructions
	.p2align	4, 0x90
__ZN4core3ptr13drop_in_place17h3da4fec5da26dce0E:
	.cfi_startproc
	pushq	%rbp
	.cfi_def_cfa_offset 16
	.cfi_offset %rbp, -16
	movq	%rsp, %rbp
	.cfi_def_cfa_register %rbp
	movq	%rdi, %rax
	movq	(%rdi), %rdi
	testq	%rdi, %rdi
	je	LBB35_2
	movq	8(%rax), %rsi
	testq	%rsi, %rsi
	je	LBB35_2
	movl	$1, %edx
	popq	%rbp
	jmp	___rust_dealloc
LBB35_2:
	popq	%rbp
	retq
	.cfi_endproc

	.p2align	4, 0x90
__ZN4core3ptr13drop_in_place17h4c7a01b7336a6f29E:
	.cfi_startproc
	pushq	%rbp
	.cfi_def_cfa_offset 16
	.cfi_offset %rbp, -16
	movq	%rsp, %rbp
	.cfi_def_cfa_register %rbp
	testq	%rsi, %rsi
	je	LBB36_3
	testq	%rdi, %rdi
	je	LBB36_3
	shlq	$4, %rsi
	je	LBB36_3
	movl	$8, %edx
	popq	%rbp
	jmp	___rust_dealloc
LBB36_3:
	popq	%rbp
	retq
	.cfi_endproc

	.p2align	4, 0x90
__ZN4core3ptr13drop_in_place17h4f8ced47749a129cE:
Lfunc_begin3:
	.cfi_startproc
	.cfi_personality 155, _rust_eh_personality
	.cfi_lsda 16, Lexception3
	pushq	%rbp
	.cfi_def_cfa_offset 16
	.cfi_offset %rbp, -16
	movq	%rsp, %rbp
	.cfi_def_cfa_register %rbp
	pushq	%r15
	pushq	%r14
	pushq	%rbx
	pushq	%rax
	.cfi_offset %rbx, -40
	.cfi_offset %r14, -32
	.cfi_offset %r15, -24
	cmpq	$0, (%rdi)
	je	LBB37_6
	movq	%rdi, %rbx
	cmpb	$2, 8(%rdi)
	jae	LBB37_2
LBB37_6:
	addq	$8, %rsp
	popq	%rbx
	popq	%r14
	popq	%r15
	popq	%rbp
	retq
LBB37_2:
	movq	16(%rbx), %r15
	movq	(%r15), %rdi
	movq	8(%r15), %rax
Ltmp17:
	callq	*(%rax)
Ltmp18:
	movq	8(%r15), %rax
	movq	8(%rax), %rsi
	testq	%rsi, %rsi
	je	LBB37_5
	movq	(%r15), %rdi
	movq	16(%rax), %rdx
	callq	___rust_dealloc
LBB37_5:
	movq	16(%rbx), %rdi
	movl	$24, %esi
	movl	$8, %edx
	addq	$8, %rsp
	popq	%rbx
	popq	%r14
	popq	%r15
	popq	%rbp
	jmp	___rust_dealloc
LBB37_7:
Ltmp19:
	movq	%rax, %r14
	movq	(%r15), %rdi
	movq	8(%r15), %rsi
	callq	__ZN5alloc5alloc8box_free17h60ba51d8addc7fdeE
	movq	16(%rbx), %rdi
	callq	__ZN5alloc5alloc8box_free17h4c7dac560e6bb77aE
	movq	%r14, %rdi
	callq	__Unwind_Resume
	ud2
Lfunc_end3:
	.cfi_endproc
	.section	__TEXT,__gcc_except_tab
	.p2align	2
GCC_except_table37:
Lexception3:
	.byte	255
	.byte	255
	.byte	1
	.uleb128 Lcst_end3-Lcst_begin3
Lcst_begin3:
	.uleb128 Ltmp17-Lfunc_begin3
	.uleb128 Ltmp18-Ltmp17
	.uleb128 Ltmp19-Lfunc_begin3
	.byte	0
	.uleb128 Ltmp18-Lfunc_begin3
	.uleb128 Lfunc_end3-Ltmp18
	.byte	0
	.byte	0
Lcst_end3:
	.p2align	2

	.section	__TEXT,__text,regular,pure_instructions
	.p2align	4, 0x90
__ZN4core3ptr13drop_in_place17h68000c5bca2927bdE:
	.cfi_startproc
	pushq	%rbp
	.cfi_def_cfa_offset 16
	.cfi_offset %rbp, -16
	movq	%rsp, %rbp
	.cfi_def_cfa_register %rbp
	movq	%rdi, %rax
	movq	(%rdi), %rdi
	testq	%rdi, %rdi
	je	LBB38_2
	movq	8(%rax), %rsi
	testq	%rsi, %rsi
	je	LBB38_2
	movl	$1, %edx
	popq	%rbp
	jmp	___rust_dealloc
LBB38_2:
	popq	%rbp
	retq
	.cfi_endproc

	.p2align	4, 0x90
__ZN4core3ptr13drop_in_place17h899b2aac86761ab1E:
	.cfi_startproc
	pushq	%rbp
	.cfi_def_cfa_offset 16
	.cfi_offset %rbp, -16
	movq	%rsp, %rbp
	.cfi_def_cfa_register %rbp
	movq	(%rdi), %rax
	testq	%rax, %rax
	je	LBB39_2
	movb	$0, (%rax)
	movq	8(%rdi), %rsi
	testq	%rsi, %rsi
	je	LBB39_2
	movq	(%rdi), %rdi
	movl	$1, %edx
	popq	%rbp
	jmp	___rust_dealloc
LBB39_2:
	popq	%rbp
	retq
	.cfi_endproc

	.p2align	4, 0x90
__ZN4core3ptr13drop_in_place17h961919faea797330E:
Lfunc_begin4:
	.cfi_startproc
	.cfi_personality 155, _rust_eh_personality
	.cfi_lsda 16, Lexception4
	pushq	%rbp
	.cfi_def_cfa_offset 16
	.cfi_offset %rbp, -16
	movq	%rsp, %rbp
	.cfi_def_cfa_register %rbp
	pushq	%r15
	pushq	%r14
	pushq	%rbx
	pushq	%rax
	.cfi_offset %rbx, -40
	.cfi_offset %r14, -32
	.cfi_offset %r15, -24
	cmpb	$0, (%rdi)
	jne	LBB40_6
	movq	%rdi, %rbx
	cmpb	$2, 8(%rdi)
	jae	LBB40_2
LBB40_6:
	addq	$8, %rsp
	popq	%rbx
	popq	%r14
	popq	%r15
	popq	%rbp
	retq
LBB40_2:
	movq	16(%rbx), %r15
	movq	(%r15), %rdi
	movq	8(%r15), %rax
Ltmp20:
	callq	*(%rax)
Ltmp21:
	movq	8(%r15), %rax
	movq	8(%rax), %rsi
	testq	%rsi, %rsi
	je	LBB40_5
	movq	(%r15), %rdi
	movq	16(%rax), %rdx
	callq	___rust_dealloc
LBB40_5:
	movq	16(%rbx), %rdi
	movl	$24, %esi
	movl	$8, %edx
	addq	$8, %rsp
	popq	%rbx
	popq	%r14
	popq	%r15
	popq	%rbp
	jmp	___rust_dealloc
LBB40_7:
Ltmp22:
	movq	%rax, %r14
	movq	(%r15), %rdi
	movq	8(%r15), %rsi
	callq	__ZN5alloc5alloc8box_free17h60ba51d8addc7fdeE
	movq	16(%rbx), %rdi
	callq	__ZN5alloc5alloc8box_free17h4c7dac560e6bb77aE
	movq	%r14, %rdi
	callq	__Unwind_Resume
	ud2
Lfunc_end4:
	.cfi_endproc
	.section	__TEXT,__gcc_except_tab
	.p2align	2
GCC_except_table40:
Lexception4:
	.byte	255
	.byte	255
	.byte	1
	.uleb128 Lcst_end4-Lcst_begin4
Lcst_begin4:
	.uleb128 Ltmp20-Lfunc_begin4
	.uleb128 Ltmp21-Ltmp20
	.uleb128 Ltmp22-Lfunc_begin4
	.byte	0
	.uleb128 Ltmp21-Lfunc_begin4
	.uleb128 Lfunc_end4-Ltmp21
	.byte	0
	.byte	0
Lcst_end4:
	.p2align	2

	.section	__TEXT,__text,regular,pure_instructions
	.p2align	4, 0x90
__ZN4core3ptr13drop_in_place17h984bae87a5762607E:
	.cfi_startproc
	pushq	%rbp
	.cfi_def_cfa_offset 16
	.cfi_offset %rbp, -16
	movq	%rsp, %rbp
	.cfi_def_cfa_register %rbp
	pushq	%rbx
	pushq	%rax
	.cfi_offset %rbx, -24
	movq	%rdi, %rbx
	movq	(%rdi), %rdi
	testq	%rdi, %rdi
	je	LBB41_3
	movq	8(%rbx), %rsi
	testq	%rsi, %rsi
	je	LBB41_3
	movl	$1, %edx
	callq	___rust_dealloc
LBB41_3:
	movq	24(%rbx), %rdi
	testq	%rdi, %rdi
	je	LBB41_5
	movq	32(%rbx), %rsi
	testq	%rsi, %rsi
	je	LBB41_5
	movl	$1, %edx
	addq	$8, %rsp
	popq	%rbx
	popq	%rbp
	jmp	___rust_dealloc
LBB41_5:
	addq	$8, %rsp
	popq	%rbx
	popq	%rbp
	retq
	.cfi_endproc

	.p2align	4, 0x90
__ZN4core3ptr13drop_in_place17h9fe656a91ead3d52E:
	.cfi_startproc
	pushq	%rbp
	.cfi_def_cfa_offset 16
	.cfi_offset %rbp, -16
	movq	%rsp, %rbp
	.cfi_def_cfa_register %rbp
	popq	%rbp
	jmp	__ZN70_$LT$std..sys..unix..fd..FileDesc$u20$as$u20$core..ops..drop..Drop$GT$4drop17hf5fce2bf4d9f8deaE
	.cfi_endproc

	.p2align	4, 0x90
__ZN4core3ptr13drop_in_place17ha9853063c8bc2de5E:
Lfunc_begin5:
	.cfi_startproc
	.cfi_personality 155, _rust_eh_personality
	.cfi_lsda 16, Lexception5
	pushq	%rbp
	.cfi_def_cfa_offset 16
	.cfi_offset %rbp, -16
	movq	%rsp, %rbp
	.cfi_def_cfa_register %rbp
	pushq	%r15
	pushq	%r14
	pushq	%r13
	pushq	%r12
	pushq	%rbx
	pushq	%rax
	.cfi_offset %rbx, -56
	.cfi_offset %r12, -48
	.cfi_offset %r13, -40
	.cfi_offset %r14, -32
	.cfi_offset %r15, -24
	movq	%rdi, %r14
	movq	(%rdi), %rbx
	movq	16(%rdi), %r12
	testq	%r12, %r12
	je	LBB43_7
	shlq	$4, %r12
	leaq	(%rbx,%r12), %r15
	addq	$-16, %r12
	addq	$16, %rbx
	jmp	LBB43_2
	.p2align	4, 0x90
LBB43_5:
	addq	$-16, %r12
	addq	$16, %rbx
	addq	$16, %r13
	cmpq	%r15, %r13
	je	LBB43_6
LBB43_2:
	movq	-16(%rbx), %rdi
	movq	-8(%rbx), %rax
Ltmp23:
	callq	*(%rax)
Ltmp24:
	leaq	-16(%rbx), %r13
	movq	8(%r13), %rax
	movq	8(%rax), %rsi
	testq	%rsi, %rsi
	je	LBB43_5
	movq	-16(%rbx), %rdi
	movq	16(%rax), %rdx
	callq	___rust_dealloc
	jmp	LBB43_5
LBB43_6:
	movq	(%r14), %rbx
LBB43_7:
	movq	8(%r14), %rsi
	testq	%rsi, %rsi
	je	LBB43_14
	testq	%rbx, %rbx
	je	LBB43_14
	shlq	$4, %rsi
	je	LBB43_14
	movl	$8, %edx
	movq	%rbx, %rdi
	addq	$8, %rsp
	popq	%rbx
	popq	%r12
	popq	%r13
	popq	%r14
	popq	%r15
	popq	%rbp
	jmp	___rust_dealloc
LBB43_14:
	addq	$8, %rsp
	popq	%rbx
	popq	%r12
	popq	%r13
	popq	%r14
	popq	%r15
	popq	%rbp
	retq
LBB43_11:
Ltmp25:
	movq	%rax, %r15
	movq	-16(%rbx), %rdi
	movq	-8(%rbx), %rsi
	callq	__ZN5alloc5alloc8box_free17h60ba51d8addc7fdeE
	testq	%r12, %r12
	je	LBB43_16
	.p2align	4, 0x90
LBB43_12:
Ltmp26:
	movq	%rbx, %rdi
	callq	__ZN4core3ptr13drop_in_place17h381d3b4a25fe0dddE
Ltmp27:
	addq	$16, %rbx
	addq	$-16, %r12
	jne	LBB43_12
	jmp	LBB43_16
LBB43_15:
Ltmp28:
	movq	%rax, %r15
LBB43_16:
	movq	(%r14), %rdi
	movq	8(%r14), %rsi
	callq	__ZN4core3ptr13drop_in_place17h4c7a01b7336a6f29E
	movq	%r15, %rdi
	callq	__Unwind_Resume
	ud2
Lfunc_end5:
	.cfi_endproc
	.section	__TEXT,__gcc_except_tab
	.p2align	2
GCC_except_table43:
Lexception5:
	.byte	255
	.byte	255
	.byte	1
	.uleb128 Lcst_end5-Lcst_begin5
Lcst_begin5:
	.uleb128 Ltmp23-Lfunc_begin5
	.uleb128 Ltmp24-Ltmp23
	.uleb128 Ltmp25-Lfunc_begin5
	.byte	0
	.uleb128 Ltmp26-Lfunc_begin5
	.uleb128 Ltmp27-Ltmp26
	.uleb128 Ltmp28-Lfunc_begin5
	.byte	0
	.uleb128 Ltmp27-Lfunc_begin5
	.uleb128 Lfunc_end5-Ltmp27
	.byte	0
	.byte	0
Lcst_end5:
	.p2align	2

	.section	__TEXT,__text,regular,pure_instructions
	.p2align	4, 0x90
__ZN4core3ptr13drop_in_place17hb826c33b131ef9a5E:
Lfunc_begin6:
	.cfi_startproc
	.cfi_personality 155, _rust_eh_personality
	.cfi_lsda 16, Lexception6
	pushq	%rbp
	.cfi_def_cfa_offset 16
	.cfi_offset %rbp, -16
	movq	%rsp, %rbp
	.cfi_def_cfa_register %rbp
	pushq	%r15
	pushq	%r14
	pushq	%r13
	pushq	%r12
	pushq	%rbx
	subq	$120, %rsp
	.cfi_offset %rbx, -56
	.cfi_offset %r12, -48
	.cfi_offset %r13, -40
	.cfi_offset %r14, -32
	.cfi_offset %r15, -24
	movq	%rdi, %r14
	movq	(%rdi), %rax
	movb	$0, (%rax)
	movq	8(%rdi), %rsi
	testq	%rsi, %rsi
	je	LBB44_2
	movq	(%r14), %rdi
	movl	$1, %edx
	callq	___rust_dealloc
LBB44_2:
	movq	16(%r14), %rbx
	movq	32(%r14), %r15
	testq	%r15, %r15
	je	LBB44_8
	shlq	$4, %r15
	addq	%rbx, %r15
	jmp	LBB44_4
	.p2align	4, 0x90
LBB44_6:
	addq	$16, %rbx
	cmpq	%r15, %rbx
	je	LBB44_7
LBB44_4:
	movq	(%rbx), %rax
	movb	$0, (%rax)
	movq	8(%rbx), %rsi
	testq	%rsi, %rsi
	je	LBB44_6
	movq	(%rbx), %rdi
	movl	$1, %edx
	callq	___rust_dealloc
	jmp	LBB44_6
LBB44_7:
	movq	16(%r14), %rbx
LBB44_8:
	movq	24(%r14), %rsi
	testq	%rsi, %rsi
	je	LBB44_12
	testq	%rbx, %rbx
	je	LBB44_12
	shlq	$4, %rsi
	je	LBB44_12
	movl	$8, %edx
	movq	%rbx, %rdi
	callq	___rust_dealloc
LBB44_12:
	movq	48(%r14), %rsi
	testq	%rsi, %rsi
	je	LBB44_16
	movq	40(%r14), %rdi
	testq	%rdi, %rdi
	je	LBB44_16
	shlq	$3, %rsi
	testq	%rsi, %rsi
	je	LBB44_16
	movl	$8, %edx
	callq	___rust_dealloc
LBB44_16:
	movq	64(%r14), %rcx
	testq	%rcx, %rcx
	je	LBB44_17
	movq	72(%r14), %rdi
	movq	80(%r14), %rax
	movzwl	10(%rcx), %edx
	testq	%rdi, %rdi
	je	LBB44_32
	movb	$1, %bl
	movq	%rcx, %rsi
	.p2align	4, 0x90
LBB44_36:
	testb	$1, %bl
	je	LBB44_33
	cmpq	$1, %rdi
	setne	%bl
	movq	544(%rcx), %rcx
	movq	544(%rsi,%rdx,8), %rsi
	movzwl	10(%rsi), %edx
	decq	%rdi
	jne	LBB44_36
	jmp	LBB44_38
LBB44_17:
	movq	$0, -104(%rbp)
	movq	$0, -72(%rbp)
	xorl	%eax, %eax
	jmp	LBB44_39
LBB44_32:
	movq	%rcx, %rsi
LBB44_38:
	movq	$0, -112(%rbp)
	movq	%rcx, -104(%rbp)
	vxorps	%xmm0, %xmm0, %xmm0
	vmovups	%xmm0, -96(%rbp)
	movq	$0, -80(%rbp)
	movq	%rsi, -72(%rbp)
	movq	$0, -64(%rbp)
	movq	%rdx, -56(%rbp)
LBB44_39:
	movq	%rax, -48(%rbp)
Ltmp31:
	leaq	-160(%rbp), %rdi
	leaq	-112(%rbp), %rsi
	callq	__ZN112_$LT$alloc..collections..btree..map..IntoIter$LT$K$C$V$GT$$u20$as$u20$core..iter..traits..iterator..Iterator$GT$4next17hf2a6c89dd2682443E
Ltmp32:
	movq	-160(%rbp), %rdi
	testq	%rdi, %rdi
	je	LBB44_50
	leaq	-160(%rbp), %r15
	leaq	-112(%rbp), %r12
	.p2align	4, 0x90
LBB44_42:
	movq	-136(%rbp), %rbx
	movq	-128(%rbp), %r13
	testq	%rdi, %rdi
	je	LBB44_45
	movq	-152(%rbp), %rsi
	testq	%rsi, %rsi
	je	LBB44_45
	movl	$1, %edx
	callq	___rust_dealloc
LBB44_45:
	testq	%rbx, %rbx
	je	LBB44_48
	testq	%r13, %r13
	je	LBB44_48
	movl	$1, %edx
	movq	%rbx, %rdi
	movq	%r13, %rsi
	callq	___rust_dealloc
LBB44_48:
Ltmp34:
	movq	%r15, %rdi
	movq	%r12, %rsi
	callq	__ZN112_$LT$alloc..collections..btree..map..IntoIter$LT$K$C$V$GT$$u20$as$u20$core..iter..traits..iterator..Iterator$GT$4next17hf2a6c89dd2682443E
Ltmp35:
	movq	-160(%rbp), %rdi
	testq	%rdi, %rdi
	jne	LBB44_42
LBB44_50:
	movq	-104(%rbp), %rdi
	testq	%rdi, %rdi
	je	LBB44_27
	movq	-112(%rbp), %rax
	movl	$544, %r15d
	.p2align	4, 0x90
LBB44_52:
	movq	(%rdi), %r12
	xorl	%ebx, %ebx
	testq	%r12, %r12
	setne	%bl
	addq	%rax, %rbx
	testq	%rax, %rax
	movl	$640, %esi
	cmoveq	%r15, %rsi
	movl	$8, %edx
	callq	___rust_dealloc
	movq	%rbx, %rax
	movq	%r12, %rdi
	testq	%r12, %r12
	jne	LBB44_52
LBB44_27:
	movq	96(%r14), %rax
	testq	%rax, %rax
	je	LBB44_30
	movb	$0, (%rax)
	movq	104(%r14), %rsi
	testq	%rsi, %rsi
	je	LBB44_30
	movq	96(%r14), %rdi
	movl	$1, %edx
	callq	___rust_dealloc
LBB44_30:
	leaq	112(%r14), %rdi
Ltmp37:
	callq	__ZN4core3ptr13drop_in_place17ha9853063c8bc2de5E
Ltmp38:
	cmpl	$3, 152(%r14)
	jne	LBB44_23
	leaq	156(%r14), %rdi
Ltmp40:
	callq	__ZN70_$LT$std..sys..unix..fd..FileDesc$u20$as$u20$core..ops..drop..Drop$GT$4drop17hf5fce2bf4d9f8deaE
Ltmp41:
LBB44_23:
	cmpl	$3, 160(%r14)
	jne	LBB44_21
	leaq	164(%r14), %rdi
Ltmp43:
	callq	__ZN70_$LT$std..sys..unix..fd..FileDesc$u20$as$u20$core..ops..drop..Drop$GT$4drop17hf5fce2bf4d9f8deaE
Ltmp44:
LBB44_21:
	cmpl	$3, 168(%r14)
	jne	LBB44_59
	addq	$172, %r14
	movq	%r14, %rdi
	addq	$120, %rsp
	popq	%rbx
	popq	%r12
	popq	%r13
	popq	%r14
	popq	%r15
	popq	%rbp
	jmp	__ZN70_$LT$std..sys..unix..fd..FileDesc$u20$as$u20$core..ops..drop..Drop$GT$4drop17hf5fce2bf4d9f8deaE
LBB44_59:
	addq	$120, %rsp
	popq	%rbx
	popq	%r12
	popq	%r13
	popq	%r14
	popq	%r15
	popq	%rbp
	retq
LBB44_33:
	leaq	__ZN44_$LT$$RF$T$u20$as$u20$core..fmt..Display$GT$3fmt17hebc820d3180ae72dE(%rip), %rax
	vmovq	%rax, %xmm0
	leaq	l___unnamed_16(%rip), %rax
	vmovq	%rax, %xmm1
	vpunpcklqdq	%xmm0, %xmm1, %xmm0
	vmovdqa	%xmm0, -160(%rbp)
	leaq	l___unnamed_17(%rip), %rax
	movq	%rax, -112(%rbp)
	movq	$1, -104(%rbp)
	movq	$0, -96(%rbp)
	leaq	-160(%rbp), %rax
	movq	%rax, -80(%rbp)
	movq	$1, -72(%rbp)
Ltmp29:
	leaq	l___unnamed_18(%rip), %rsi
	leaq	-112(%rbp), %rdi
	callq	__ZN4core9panicking9panic_fmt17hab6ef1464e9720aaE
Ltmp30:
	ud2
LBB44_58:
Ltmp45:
	movq	%rax, %rbx
	jmp	LBB44_20
LBB44_18:
Ltmp42:
	movq	%rax, %rbx
	jmp	LBB44_19
LBB44_54:
Ltmp33:
	jmp	LBB44_55
LBB44_57:
Ltmp39:
	movq	%rax, %rbx
	jmp	LBB44_56
LBB44_53:
Ltmp36:
LBB44_55:
	movq	%rax, %rbx
	leaq	96(%r14), %rdi
	callq	__ZN4core3ptr13drop_in_place17h899b2aac86761ab1E
	leaq	112(%r14), %rdi
	callq	__ZN4core3ptr13drop_in_place17ha9853063c8bc2de5E
LBB44_56:
	leaq	152(%r14), %rdi
	callq	__ZN4core3ptr13drop_in_place17h36dfe49c41b45b33E
LBB44_19:
	leaq	160(%r14), %rdi
	callq	__ZN4core3ptr13drop_in_place17h36dfe49c41b45b33E
LBB44_20:
	addq	$168, %r14
	movq	%r14, %rdi
	callq	__ZN4core3ptr13drop_in_place17h36dfe49c41b45b33E
	movq	%rbx, %rdi
	callq	__Unwind_Resume
	ud2
Lfunc_end6:
	.cfi_endproc
	.section	__TEXT,__gcc_except_tab
	.p2align	2
GCC_except_table44:
Lexception6:
	.byte	255
	.byte	255
	.byte	1
	.uleb128 Lcst_end6-Lcst_begin6
Lcst_begin6:
	.uleb128 Ltmp31-Lfunc_begin6
	.uleb128 Ltmp32-Ltmp31
	.uleb128 Ltmp33-Lfunc_begin6
	.byte	0
	.uleb128 Ltmp34-Lfunc_begin6
	.uleb128 Ltmp35-Ltmp34
	.uleb128 Ltmp36-Lfunc_begin6
	.byte	0
	.uleb128 Ltmp37-Lfunc_begin6
	.uleb128 Ltmp38-Ltmp37
	.uleb128 Ltmp39-Lfunc_begin6
	.byte	0
	.uleb128 Ltmp40-Lfunc_begin6
	.uleb128 Ltmp41-Ltmp40
	.uleb128 Ltmp42-Lfunc_begin6
	.byte	0
	.uleb128 Ltmp43-Lfunc_begin6
	.uleb128 Ltmp44-Ltmp43
	.uleb128 Ltmp45-Lfunc_begin6
	.byte	0
	.uleb128 Ltmp44-Lfunc_begin6
	.uleb128 Ltmp29-Ltmp44
	.byte	0
	.byte	0
	.uleb128 Ltmp29-Lfunc_begin6
	.uleb128 Ltmp30-Ltmp29
	.uleb128 Ltmp33-Lfunc_begin6
	.byte	0
	.uleb128 Ltmp30-Lfunc_begin6
	.uleb128 Lfunc_end6-Ltmp30
	.byte	0
	.byte	0
Lcst_end6:
	.p2align	2

	.section	__TEXT,__text,regular,pure_instructions
	.p2align	4, 0x90
__ZN4core3ptr13drop_in_place17hd03d57fbff1896faE:
	.cfi_startproc
	pushq	%rbp
	.cfi_def_cfa_offset 16
	.cfi_offset %rbp, -16
	movq	%rsp, %rbp
	.cfi_def_cfa_register %rbp
	movq	%rdi, %rax
	movq	(%rdi), %rdi
	testq	%rdi, %rdi
	je	LBB45_2
	movq	8(%rax), %rsi
	testq	%rsi, %rsi
	je	LBB45_2
	movl	$1, %edx
	popq	%rbp
	jmp	___rust_dealloc
LBB45_2:
	popq	%rbp
	retq
	.cfi_endproc

	.p2align	4, 0x90
__ZN4core3ptr13drop_in_place17hf6ba34a99c7b45c0E:
Lfunc_begin7:
	.cfi_startproc
	.cfi_personality 155, _rust_eh_personality
	.cfi_lsda 16, Lexception7
	pushq	%rbp
	.cfi_def_cfa_offset 16
	.cfi_offset %rbp, -16
	movq	%rsp, %rbp
	.cfi_def_cfa_register %rbp
	pushq	%r14
	pushq	%rbx
	.cfi_offset %rbx, -32
	.cfi_offset %r14, -24
	movq	%rdi, %rbx
	cmpl	$0, 12(%rdi)
	je	LBB46_2
	leaq	16(%rbx), %rdi
Ltmp46:
	callq	__ZN70_$LT$std..sys..unix..fd..FileDesc$u20$as$u20$core..ops..drop..Drop$GT$4drop17hf5fce2bf4d9f8deaE
Ltmp47:
LBB46_2:
	cmpl	$0, 20(%rbx)
	je	LBB46_3
	leaq	24(%rbx), %rdi
Ltmp49:
	callq	__ZN70_$LT$std..sys..unix..fd..FileDesc$u20$as$u20$core..ops..drop..Drop$GT$4drop17hf5fce2bf4d9f8deaE
Ltmp50:
LBB46_3:
	cmpl	$0, 28(%rbx)
	je	LBB46_4
	addq	$32, %rbx
	movq	%rbx, %rdi
	popq	%rbx
	popq	%r14
	popq	%rbp
	jmp	__ZN70_$LT$std..sys..unix..fd..FileDesc$u20$as$u20$core..ops..drop..Drop$GT$4drop17hf5fce2bf4d9f8deaE
LBB46_4:
	popq	%rbx
	popq	%r14
	popq	%rbp
	retq
LBB46_8:
Ltmp51:
	movq	%rax, %r14
	jmp	LBB46_7
LBB46_6:
Ltmp48:
	movq	%rax, %r14
	leaq	20(%rbx), %rdi
	callq	__ZN4core3ptr13drop_in_place17h1a026fa8f0b008e4E
LBB46_7:
	addq	$28, %rbx
	movq	%rbx, %rdi
	callq	__ZN4core3ptr13drop_in_place17h1a026fa8f0b008e4E
	movq	%r14, %rdi
	callq	__Unwind_Resume
	ud2
Lfunc_end7:
	.cfi_endproc
	.section	__TEXT,__gcc_except_tab
	.p2align	2
GCC_except_table46:
Lexception7:
	.byte	255
	.byte	255
	.byte	1
	.uleb128 Lcst_end7-Lcst_begin7
Lcst_begin7:
	.uleb128 Ltmp46-Lfunc_begin7
	.uleb128 Ltmp47-Ltmp46
	.uleb128 Ltmp48-Lfunc_begin7
	.byte	0
	.uleb128 Ltmp49-Lfunc_begin7
	.uleb128 Ltmp50-Ltmp49
	.uleb128 Ltmp51-Lfunc_begin7
	.byte	0
	.uleb128 Ltmp50-Lfunc_begin7
	.uleb128 Lfunc_end7-Ltmp50
	.byte	0
	.byte	0
Lcst_end7:
	.p2align	2

	.section	__TEXT,__text,regular,pure_instructions
	.p2align	4, 0x90
__ZN4core3str6traits103_$LT$impl$u20$core..slice..SliceIndex$LT$str$GT$$u20$for$u20$core..ops..range..RangeTo$LT$usize$GT$$GT$5index28_$u7b$$u7b$closure$u7d$$u7d$17hf9f89b19f6b22fe7E:
	.cfi_startproc
	pushq	%rbp
	.cfi_def_cfa_offset 16
	.cfi_offset %rbp, -16
	movq	%rsp, %rbp
	.cfi_def_cfa_register %rbp
	movq	%rsi, %rcx
	movq	(%rdi), %rax
	movq	8(%rdi), %rsi
	leaq	l___unnamed_19(%rip), %r8
	movq	%rax, %rdi
	xorl	%edx, %edx
	callq	__ZN4core3str16slice_error_fail17h6b29707aec812690E
	.cfi_endproc

	.p2align	4, 0x90
__ZN4core3str6traits105_$LT$impl$u20$core..slice..SliceIndex$LT$str$GT$$u20$for$u20$core..ops..range..RangeFrom$LT$usize$GT$$GT$5index28_$u7b$$u7b$closure$u7d$$u7d$17hf7945ab20db51e8fE:
	.cfi_startproc
	pushq	%rbp
	.cfi_def_cfa_offset 16
	.cfi_offset %rbp, -16
	movq	%rsp, %rbp
	.cfi_def_cfa_register %rbp
	movq	(%rdi), %rcx
	movq	8(%rdi), %rdx
	movq	(%rcx), %rax
	movq	8(%rcx), %rsi
	movq	(%rdx), %rdx
	movq	16(%rdi), %rcx
	movq	(%rcx), %rcx
	leaq	l___unnamed_20(%rip), %r8
	movq	%rax, %rdi
	callq	__ZN4core3str16slice_error_fail17h6b29707aec812690E
	.cfi_endproc

	.p2align	4, 0x90
__ZN5alloc5alloc8box_free17h4c7dac560e6bb77aE:
	.cfi_startproc
	pushq	%rbp
	.cfi_def_cfa_offset 16
	.cfi_offset %rbp, -16
	movq	%rsp, %rbp
	.cfi_def_cfa_register %rbp
	movl	$24, %esi
	movl	$8, %edx
	popq	%rbp
	jmp	___rust_dealloc
	.cfi_endproc

	.p2align	4, 0x90
__ZN5alloc5alloc8box_free17h60ba51d8addc7fdeE:
	.cfi_startproc
	pushq	%rbp
	.cfi_def_cfa_offset 16
	.cfi_offset %rbp, -16
	movq	%rsp, %rbp
	.cfi_def_cfa_register %rbp
	movq	%rsi, %rax
	movq	8(%rsi), %rsi
	testq	%rsi, %rsi
	je	LBB50_1
	movq	16(%rax), %rdx
	popq	%rbp
	jmp	___rust_dealloc
LBB50_1:
	popq	%rbp
	retq
	.cfi_endproc

	.p2align	4, 0x90
__ZN5alloc7raw_vec19RawVec$LT$T$C$A$GT$11allocate_in28_$u7b$$u7b$closure$u7d$$u7d$17h4db379887edff23fE:
	.cfi_startproc
	pushq	%rbp
	.cfi_def_cfa_offset 16
	.cfi_offset %rbp, -16
	movq	%rsp, %rbp
	.cfi_def_cfa_register %rbp
	callq	__ZN5alloc5alloc18handle_alloc_error17hbc0ab0ed90816c07E
	.cfi_endproc

	.p2align	4, 0x90
__ZN60_$LT$alloc..string..String$u20$as$u20$core..fmt..Display$GT$3fmt17h4c6fc2b9ff0414a4E:
	.cfi_startproc
	pushq	%rbp
	.cfi_def_cfa_offset 16
	.cfi_offset %rbp, -16
	movq	%rsp, %rbp
	.cfi_def_cfa_register %rbp
	movq	%rsi, %rdx
	movq	(%rdi), %rax
	movq	16(%rdi), %rsi
	movq	%rax, %rdi
	popq	%rbp
	jmp	__ZN42_$LT$str$u20$as$u20$core..fmt..Display$GT$3fmt17hd4dee1c1c4ccf892E
	.cfi_endproc

	.p2align	4, 0x90
__ZN85_$LT$core..str..SplitN$LT$P$GT$$u20$as$u20$core..iter..traits..iterator..Iterator$GT$4next17he926730097b4779eE:
	.cfi_startproc
	pushq	%rbp
	.cfi_def_cfa_offset 16
	.cfi_offset %rbp, -16
	movq	%rsp, %rbp
	.cfi_def_cfa_register %rbp
	pushq	%r15
	pushq	%r14
	pushq	%r13
	pushq	%r12
	pushq	%rbx
	subq	$24, %rsp
	.cfi_offset %rbx, -56
	.cfi_offset %r12, -48
	.cfi_offset %r13, -40
	.cfi_offset %r14, -32
	.cfi_offset %r15, -24
	movq	72(%rdi), %rax
	testq	%rax, %rax
	je	LBB53_1
	movq	%rdi, %rbx
	cmpq	$1, %rax
	jne	LBB53_3
	movq	$0, 72(%rbx)
LBB53_18:
	cmpb	$0, 65(%rbx)
	jne	LBB53_1
LBB53_19:
	cmpb	$0, 64(%rbx)
	je	LBB53_23
	movq	(%rbx), %rax
	movq	8(%rbx), %r15
	jmp	LBB53_24
LBB53_3:
	decq	%rax
	movq	%rax, 72(%rbx)
	cmpb	$0, 65(%rbx)
	je	LBB53_4
LBB53_1:
	xorl	%eax, %eax
LBB53_25:
	movq	%r15, %rdx
	addq	$24, %rsp
	popq	%rbx
	popq	%r12
	popq	%r13
	popq	%r14
	popq	%r15
	popq	%rbp
	retq
LBB53_4:
	movq	32(%rbx), %rsi
	movq	40(%rbx), %rax
	movq	%rax, %rdx
	subq	%rsi, %rdx
	jb	LBB53_18
	cmpq	%rax, 24(%rbx)
	jb	LBB53_18
	movq	16(%rbx), %rcx
	movq	48(%rbx), %rax
	movq	%rcx, -56(%rbp)
	addq	%rcx, %rsi
	movzbl	59(%rax,%rbx), %edi
	callq	__ZN4core5slice6memchr6memchr17h319ffdabcbdf42caE
	cmpq	$1, %rax
	jne	LBB53_17
	leaq	60(%rbx), %rax
	movq	%rax, -48(%rbp)
	.p2align	4, 0x90
LBB53_8:
	movq	32(%rbx), %rax
	movq	48(%rbx), %r12
	leaq	(%rdx,%rax), %r13
	addq	$1, %r13
	movq	%r13, 32(%rbx)
	movq	%r13, %r15
	subq	%r12, %r15
	jae	LBB53_10
	movq	24(%rbx), %r14
	movq	40(%rbx), %rax
	movq	%rax, %rdx
	subq	%r13, %rdx
	jae	LBB53_15
	jmp	LBB53_18
	.p2align	4, 0x90
LBB53_10:
	movq	24(%rbx), %r14
	cmpq	%r13, %r14
	jb	LBB53_14
	cmpq	$5, %r12
	jae	LBB53_26
	movq	16(%rbx), %rdi
	addq	%r15, %rdi
	cmpq	-48(%rbp), %rdi
	je	LBB53_21
	movq	-48(%rbp), %rsi
	movq	%r12, %rdx
	callq	_bcmp
	testl	%eax, %eax
	je	LBB53_21
LBB53_14:
	movq	40(%rbx), %rax
	movq	%rax, %rdx
	subq	%r13, %rdx
	jb	LBB53_18
LBB53_15:
	cmpq	%rax, %r14
	jb	LBB53_18
	addq	16(%rbx), %r13
	movzbl	59(%r12,%rbx), %edi
	movq	%r13, %rsi
	callq	__ZN4core5slice6memchr6memchr17h319ffdabcbdf42caE
	cmpq	$1, %rax
	je	LBB53_8
LBB53_17:
	movq	40(%rbx), %rax
	movq	%rax, 32(%rbx)
	cmpb	$0, 65(%rbx)
	jne	LBB53_1
	jmp	LBB53_19
LBB53_23:
	movq	(%rbx), %rax
	movq	8(%rbx), %r15
	cmpq	%rax, %r15
	je	LBB53_1
LBB53_24:
	movb	$1, 65(%rbx)
	subq	%rax, %r15
	addq	16(%rbx), %rax
	jmp	LBB53_25
LBB53_21:
	movq	(%rbx), %rcx
	movq	-56(%rbp), %rax
	addq	%rcx, %rax
	subq	%rcx, %r15
	movq	%r13, (%rbx)
	jmp	LBB53_25
LBB53_26:
	leaq	l___unnamed_21(%rip), %rdx
	movl	$4, %esi
	movq	%r12, %rdi
	callq	__ZN4core5slice20slice_index_len_fail17h550a313151a85135E
	.cfi_endproc

	.p2align	4, 0x90
__ZN97_$LT$core..iter..adapters..Map$LT$I$C$F$GT$$u20$as$u20$core..iter..traits..iterator..Iterator$GT$4next17h14dd55d5788a02c0E:
	.cfi_startproc
	pushq	%rbp
	.cfi_def_cfa_offset 16
	.cfi_offset %rbp, -16
	movq	%rsp, %rbp
	.cfi_def_cfa_register %rbp
	pushq	%r15
	pushq	%r14
	pushq	%r13
	pushq	%r12
	pushq	%rbx
	subq	$24, %rsp
	.cfi_offset %rbx, -56
	.cfi_offset %r12, -48
	.cfi_offset %r13, -40
	.cfi_offset %r14, -32
	.cfi_offset %r15, -24
	movq	%rsi, %rbx
	movq	%rdi, -48(%rbp)
	leaq	60(%rsi), %rax
	movq	%rax, -56(%rbp)
	.p2align	4, 0x90
LBB54_1:
	cmpb	$0, 65(%rbx)
	jne	LBB54_28
	movq	32(%rbx), %r14
	movq	40(%rbx), %rdx
	cmpq	%r14, %rdx
	jb	LBB54_7
	cmpq	%rdx, 24(%rbx)
	jb	LBB54_7
	movq	16(%rbx), %rsi
	movq	48(%rbx), %r13
	movq	%rsi, -64(%rbp)
	.p2align	4, 0x90
LBB54_5:
	addq	%r14, %rsi
	subq	%r14, %rdx
	movzbl	59(%r13,%rbx), %edi
	callq	__ZN4core5slice6memchr6memchr17h319ffdabcbdf42caE
	cmpq	$1, %rax
	jne	LBB54_6
	movq	32(%rbx), %rax
	movq	48(%rbx), %r13
	leaq	(%rdx,%rax), %r14
	addq	$1, %r14
	movq	%r14, 32(%rbx)
	movq	%r14, %r15
	subq	%r13, %r15
	jae	LBB54_12
	movq	24(%rbx), %r12
	movq	40(%rbx), %rdx
	cmpq	%r14, %rdx
	jae	LBB54_17
	jmp	LBB54_7
	.p2align	4, 0x90
LBB54_12:
	movq	24(%rbx), %r12
	cmpq	%r14, %r12
	jb	LBB54_16
	cmpq	$5, %r13
	jae	LBB54_27
	movq	16(%rbx), %rdi
	addq	%r15, %rdi
	cmpq	-56(%rbp), %rdi
	je	LBB54_21
	movq	-56(%rbp), %rsi
	movq	%r13, %rdx
	callq	_bcmp
	testl	%eax, %eax
	je	LBB54_21
LBB54_16:
	movq	40(%rbx), %rdx
	cmpq	%r14, %rdx
	jb	LBB54_7
LBB54_17:
	cmpq	%rdx, %r12
	jb	LBB54_7
	movq	16(%rbx), %rsi
	jmp	LBB54_5
LBB54_6:
	movq	40(%rbx), %rax
	movq	%rax, 32(%rbx)
LBB54_7:
	cmpb	$0, 65(%rbx)
	jne	LBB54_28
	cmpb	$0, 64(%rbx)
	je	LBB54_19
	movq	(%rbx), %rdi
	movq	8(%rbx), %r15
	jmp	LBB54_20
	.p2align	4, 0x90
LBB54_19:
	movq	(%rbx), %rdi
	movq	8(%rbx), %r15
	cmpq	%rdi, %r15
	je	LBB54_28
LBB54_20:
	movb	$1, 65(%rbx)
	subq	%rdi, %r15
	addq	16(%rbx), %rdi
	movq	%r15, %rsi
	callq	__ZN4core3str21_$LT$impl$u20$str$GT$4trim17h4716d9ca121ae897E
	testq	%rdx, %rdx
	je	LBB54_1
LBB54_23:
	movq	%rax, %r12
	testq	%rax, %rax
	je	LBB54_1
	jmp	LBB54_24
LBB54_21:
	movq	(%rbx), %rax
	movq	-64(%rbp), %rdi
	addq	%rax, %rdi
	subq	%rax, %r15
	movq	%r14, (%rbx)
	movq	%r15, %rsi
	callq	__ZN4core3str21_$LT$impl$u20$str$GT$4trim17h4716d9ca121ae897E
	testq	%rdx, %rdx
	jne	LBB54_23
	jmp	LBB54_1
LBB54_28:
	movq	-48(%rbp), %rax
	movq	$0, (%rax)
	jmp	LBB54_26
LBB54_24:
	movq	%rdx, %r14
	movl	$1, %esi
	movq	%rdx, %rdi
	callq	___rust_alloc
	testq	%rax, %rax
	je	LBB54_29
	movq	%rax, %rbx
	movq	%rax, %rdi
	movq	%r12, %rsi
	movq	%r14, %rdx
	callq	_memcpy
	movq	-48(%rbp), %rax
	movq	%rbx, (%rax)
	movq	%r14, 8(%rax)
	movq	%r14, 16(%rax)
LBB54_26:
	addq	$24, %rsp
	popq	%rbx
	popq	%r12
	popq	%r13
	popq	%r14
	popq	%r15
	popq	%rbp
	retq
LBB54_27:
	leaq	l___unnamed_21(%rip), %rdx
	movl	$4, %esi
	movq	%r13, %rdi
	callq	__ZN4core5slice20slice_index_len_fail17h550a313151a85135E
LBB54_29:
	movl	$1, %esi
	movq	%r14, %rdi
	callq	__ZN5alloc7raw_vec19RawVec$LT$T$C$A$GT$11allocate_in28_$u7b$$u7b$closure$u7d$$u7d$17h4db379887edff23fE
	.cfi_endproc

	.globl	__ZN59_$LT$autocfg..error..Error$u20$as$u20$std..error..Error$GT$11description17hb7913103f64bc738E
	.p2align	4, 0x90
__ZN59_$LT$autocfg..error..Error$u20$as$u20$std..error..Error$GT$11description17hb7913103f64bc738E:
	.cfi_startproc
	pushq	%rbp
	.cfi_def_cfa_offset 16
	.cfi_offset %rbp, -16
	movq	%rsp, %rbp
	.cfi_def_cfa_register %rbp
	leaq	l___unnamed_22(%rip), %rax
	movl	$13, %edx
	popq	%rbp
	retq
	.cfi_endproc

	.globl	__ZN59_$LT$autocfg..error..Error$u20$as$u20$std..error..Error$GT$5cause17hd9fd3791172e4056E
	.p2align	4, 0x90
__ZN59_$LT$autocfg..error..Error$u20$as$u20$std..error..Error$GT$5cause17hd9fd3791172e4056E:
	.cfi_startproc
	pushq	%rbp
	.cfi_def_cfa_offset 16
	.cfi_offset %rbp, -16
	movq	%rsp, %rbp
	.cfi_def_cfa_register %rbp
	movzbl	(%rdi), %ecx
	xorl	%eax, %eax
	leaq	LJTI56_0(%rip), %rdx
	movslq	(%rdx,%rcx,4), %rcx
	addq	%rdx, %rcx
	jmpq	*%rcx
LBB56_1:
	addq	$8, %rdi
	leaq	l___unnamed_23(%rip), %rdx
	jmp	LBB56_4
LBB56_2:
	incq	%rdi
	leaq	l___unnamed_24(%rip), %rdx
	jmp	LBB56_4
LBB56_3:
	addq	$8, %rdi
	leaq	l___unnamed_25(%rip), %rdx
LBB56_4:
	movq	%rdi, %rax
LBB56_5:
	popq	%rbp
	retq
	.cfi_endproc
	.p2align	2, 0x90
	.data_region jt32
.set L56_0_set_1, LBB56_1-LJTI56_0
.set L56_0_set_2, LBB56_2-LJTI56_0
.set L56_0_set_3, LBB56_3-LJTI56_0
.set L56_0_set_5, LBB56_5-LJTI56_0
LJTI56_0:
	.long	L56_0_set_1
	.long	L56_0_set_2
	.long	L56_0_set_3
	.long	L56_0_set_5
	.end_data_region

	.globl	__ZN60_$LT$autocfg..error..Error$u20$as$u20$core..fmt..Display$GT$3fmt17h00a0668c47ea398dE
	.p2align	4, 0x90
__ZN60_$LT$autocfg..error..Error$u20$as$u20$core..fmt..Display$GT$3fmt17h00a0668c47ea398dE:
	.cfi_startproc
	pushq	%rbp
	.cfi_def_cfa_offset 16
	.cfi_offset %rbp, -16
	movq	%rsp, %rbp
	.cfi_def_cfa_register %rbp
	movq	%rsi, %rdx
	movzbl	(%rdi), %eax
	leaq	LJTI57_0(%rip), %rcx
	movslq	(%rcx,%rax,4), %rax
	addq	%rcx, %rax
	jmpq	*%rax
LBB57_2:
	addq	$8, %rdi
	movq	%rdx, %rsi
	popq	%rbp
	jmp	__ZN60_$LT$std..io..error..Error$u20$as$u20$core..fmt..Display$GT$3fmt17hd5a23906ccc4fffdE
LBB57_4:
	addq	$8, %rdi
	movq	%rdx, %rsi
	popq	%rbp
	jmp	__ZN59_$LT$core..str..Utf8Error$u20$as$u20$core..fmt..Display$GT$3fmt17h9024978efc80f5caE
LBB57_1:
	movq	8(%rdi), %rax
	movq	16(%rdi), %rsi
	movq	%rax, %rdi
	popq	%rbp
	jmp	__ZN42_$LT$str$u20$as$u20$core..fmt..Display$GT$3fmt17hd4dee1c1c4ccf892E
LBB57_3:
	incq	%rdi
	movq	%rdx, %rsi
	popq	%rbp
	jmp	__ZN63_$LT$core..num..ParseIntError$u20$as$u20$core..fmt..Display$GT$3fmt17heb1569ad65640c9bE
	.cfi_endproc
	.p2align	2, 0x90
	.data_region jt32
.set L57_0_set_2, LBB57_2-LJTI57_0
.set L57_0_set_3, LBB57_3-LJTI57_0
.set L57_0_set_4, LBB57_4-LJTI57_0
.set L57_0_set_1, LBB57_1-LJTI57_0
LJTI57_0:
	.long	L57_0_set_2
	.long	L57_0_set_3
	.long	L57_0_set_4
	.long	L57_0_set_1
	.end_data_region

	.globl	__ZN7autocfg5error7from_io17h292174c6f44c083dE
	.p2align	4, 0x90
__ZN7autocfg5error7from_io17h292174c6f44c083dE:
	.cfi_startproc
	pushq	%rbp
	.cfi_def_cfa_offset 16
	.cfi_offset %rbp, -16
	movq	%rsp, %rbp
	.cfi_def_cfa_register %rbp
	subq	$23, %rsp
	movq	%rdi, %rax
	vmovups	(%rsi), %xmm0
	vmovups	%xmm0, -16(%rbp)
	movb	$0, (%rdi)
	vmovups	-23(%rbp), %xmm0
	vmovups	%xmm0, 1(%rdi)
	movq	-8(%rbp), %rcx
	movq	%rcx, 16(%rdi)
	addq	$23, %rsp
	popq	%rbp
	retq
	.cfi_endproc

	.globl	__ZN7autocfg5error8from_str17h77f2e8b8af939d91E
	.p2align	4, 0x90
__ZN7autocfg5error8from_str17h77f2e8b8af939d91E:
	.cfi_startproc
	pushq	%rbp
	.cfi_def_cfa_offset 16
	.cfi_offset %rbp, -16
	movq	%rsp, %rbp
	.cfi_def_cfa_register %rbp
	movq	%rdi, %rax
	movb	$3, (%rdi)
	movq	%rsi, 8(%rdi)
	movq	%rdx, 16(%rdi)
	popq	%rbp
	retq
	.cfi_endproc

	.section	__TEXT,__literal16,16byte_literals
	.p2align	4
LCPI60_0:
	.quad	1
	.quad	3
LCPI60_1:
	.quad	1
	.quad	2
	.section	__TEXT,__text,regular,pure_instructions
	.globl	__ZN7autocfg7version7Version10from_rustc17hccfb6ccd999e5ec6E
	.p2align	4, 0x90
__ZN7autocfg7version7Version10from_rustc17hccfb6ccd999e5ec6E:
Lfunc_begin8:
	.cfi_startproc
	.cfi_personality 155, _rust_eh_personality
	.cfi_lsda 16, Lexception8
	pushq	%rbp
	.cfi_def_cfa_offset 16
	.cfi_offset %rbp, -16
	movq	%rsp, %rbp
	.cfi_def_cfa_register %rbp
	pushq	%r15
	pushq	%r14
	pushq	%r13
	pushq	%r12
	pushq	%rbx
	subq	$376, %rsp
	.cfi_offset %rbx, -56
	.cfi_offset %r12, -48
	.cfi_offset %r13, -40
	.cfi_offset %r14, -32
	.cfi_offset %r15, -24
	movq	%rdi, %r12
	movq	%rsi, %rdi
	movq	%rdx, %rsi
	callq	__ZN87_$LT$std..path..Path$u20$as$u20$core..convert..AsRef$LT$std..ffi..os_str..OsStr$GT$$GT$6as_ref17h08e5bd9171057244E
	leaq	-312(%rbp), %rdi
	movq	%rax, %rsi
	callq	__ZN3std3sys4unix7process14process_common7Command3new17hcd746a384cbb0b47E
Ltmp52:
	leaq	l___unnamed_26(%rip), %rdi
	movl	$9, %esi
	callq	__ZN95_$LT$std..ffi..os_str..OsStr$u20$as$u20$core..convert..AsRef$LT$std..ffi..os_str..OsStr$GT$$GT$6as_ref17h446c7b9305eed47bE
Ltmp53:
Ltmp54:
	leaq	-312(%rbp), %rdi
	movq	%rax, %rsi
	callq	__ZN3std3sys4unix7process14process_common7Command3arg17hc476c471a9efd12bE
Ltmp55:
Ltmp56:
	leaq	l___unnamed_27(%rip), %rdi
	movl	$9, %esi
	callq	__ZN95_$LT$std..ffi..os_str..OsStr$u20$as$u20$core..convert..AsRef$LT$std..ffi..os_str..OsStr$GT$$GT$6as_ref17h446c7b9305eed47bE
Ltmp57:
Ltmp58:
	leaq	-312(%rbp), %rdi
	movq	%rax, %rsi
	callq	__ZN3std3sys4unix7process14process_common7Command3arg17hc476c471a9efd12bE
Ltmp59:
Ltmp60:
	leaq	-376(%rbp), %rdi
	leaq	-312(%rbp), %rsi
	callq	__ZN3std7process7Command6output17h3119df81721f3b73E
Ltmp61:
	cmpq	$1, -376(%rbp)
	jne	LBB60_7
	vmovups	-368(%rbp), %xmm0
	movb	$0, 8(%r12)
	vmovups	%xmm0, 16(%r12)
	movq	$1, (%r12)
	leaq	-312(%rbp), %rdi
	callq	__ZN4core3ptr13drop_in_place17hb826c33b131ef9a5E
	jmp	LBB60_102
LBB60_7:
	movb	-368(%rbp), %al
	movl	-367(%rbp), %ecx
	movzbl	-361(%rbp), %edx
	movzwl	-363(%rbp), %esi
	vmovups	-360(%rbp), %xmm0
	vmovups	-344(%rbp), %ymm1
	vmovups	%ymm1, -416(%rbp)
	movb	%al, -112(%rbp)
	movw	%si, -107(%rbp)
	movb	%dl, -105(%rbp)
	movl	%ecx, -111(%rbp)
	vmovups	%xmm0, -104(%rbp)
	vmovups	%ymm1, -88(%rbp)
Ltmp63:
	leaq	-312(%rbp), %rdi
	vzeroupper
	callq	__ZN4core3ptr13drop_in_place17hb826c33b131ef9a5E
Ltmp64:
	leaq	-64(%rbp), %rdi
Ltmp65:
	callq	__ZN3std7process10ExitStatus7success17h2b8b99214fbc7387E
Ltmp66:
	testb	%al, %al
	je	LBB60_10
	movq	-112(%rbp), %rsi
	movq	-96(%rbp), %rdx
Ltmp67:
	leaq	-312(%rbp), %rdi
	callq	__ZN4core3str9from_utf817he06957962f38305fE
Ltmp68:
	movq	-304(%rbp), %rcx
	cmpq	$1, -312(%rbp)
	movq	-296(%rbp), %rax
	jne	LBB60_15
	movq	%rcx, 16(%r12)
	movq	%rax, 24(%r12)
	vmovaps	LCPI60_1(%rip), %xmm0
	vmovups	%xmm0, (%r12)
	movq	-112(%rbp), %rdi
	testq	%rdi, %rdi
	jne	LBB60_97
	jmp	LBB60_99
LBB60_10:
	movb	$3, 8(%r12)
	leaq	l___unnamed_28(%rip), %rax
	movq	%rax, 16(%r12)
	movq	$23, 24(%r12)
	movq	$1, (%r12)
	movq	-112(%rbp), %rdi
	testq	%rdi, %rdi
	je	LBB60_99
LBB60_97:
	movq	-104(%rbp), %rsi
	testq	%rsi, %rsi
	je	LBB60_99
	movl	$1, %edx
	callq	___rust_dealloc
LBB60_99:
	movq	-88(%rbp), %rdi
	testq	%rdi, %rdi
	je	LBB60_102
	movq	-80(%rbp), %rsi
	testq	%rsi, %rsi
	je	LBB60_102
	movl	$1, %edx
	callq	___rust_dealloc
LBB60_102:
	movq	%r12, %rax
	addq	$376, %rsp
	popq	%rbx
	popq	%r12
	popq	%r13
	popq	%r14
	popq	%r15
	popq	%rbp
	retq
LBB60_15:
	movq	%r12, -48(%rbp)
	movq	$0, -312(%rbp)
	movq	%rax, -304(%rbp)
	movq	%rcx, -296(%rbp)
	movq	%rax, -288(%rbp)
	movq	$0, -280(%rbp)
	movq	%rax, -272(%rbp)
	movq	$1, -264(%rbp)
	movabsq	$42949672970, %rax
	movq	%rax, -256(%rbp)
	movw	$0, -248(%rbp)
	xorl	%r12d, %r12d
	leaq	l___unnamed_29(%rip), %rsi
	movabsq	$4207896288998221170, %rdi
	xorl	%eax, %eax
	testb	%al, %al
	jne	LBB60_18
	jmp	LBB60_19
	.p2align	4, 0x90
LBB60_16:
	movb	-247(%rbp), %al
	testb	%al, %al
	jne	LBB60_18
LBB60_19:
	movq	-272(%rbp), %rax
	movq	%rax, %rdx
	subq	%r12, %rdx
	jb	LBB60_34
	cmpq	%rax, -288(%rbp)
	jb	LBB60_34
	movq	-296(%rbp), %r15
	movq	-264(%rbp), %rax
	addq	%r15, %r12
	leaq	-312(%rbp), %rcx
	movzbl	59(%rax,%rcx), %edi
Ltmp69:
	movq	%r12, %rsi
	callq	__ZN4core5slice6memchr6memchr17h319ffdabcbdf42caE
Ltmp70:
	.p2align	4, 0x90
LBB60_22:
	cmpq	$1, %rax
	jne	LBB60_23
	movq	-280(%rbp), %rax
	movq	-264(%rbp), %rbx
	leaq	(%rdx,%rax), %r12
	addq	$1, %r12
	movq	%r12, -280(%rbp)
	movq	%r12, %r13
	subq	%rbx, %r13
	jae	LBB60_26
	movq	-288(%rbp), %r14
	movq	-272(%rbp), %rax
	movq	%rax, %rdx
	subq	%r12, %rdx
	jae	LBB60_37
	jmp	LBB60_33
	.p2align	4, 0x90
LBB60_26:
	movq	-288(%rbp), %r14
	cmpq	%r12, %r14
	jb	LBB60_32
	cmpq	$5, %rbx
	jae	LBB60_28
	movq	-296(%rbp), %rdi
	addq	%r13, %rdi
	leaq	-252(%rbp), %rax
	cmpq	%rax, %rdi
	je	LBB60_41
	leaq	-252(%rbp), %rsi
	movq	%rbx, %rdx
	callq	_bcmp
	testl	%eax, %eax
	je	LBB60_41
LBB60_32:
	movq	-272(%rbp), %rax
	movq	%rax, %rdx
	subq	%r12, %rdx
	jb	LBB60_33
LBB60_37:
	cmpq	%rax, %r14
	jb	LBB60_33
	addq	-296(%rbp), %r12
	leaq	-312(%rbp), %rax
	movzbl	59(%rbx,%rax), %edi
Ltmp74:
	movq	%r12, %rsi
	callq	__ZN4core5slice6memchr6memchr17h319ffdabcbdf42caE
Ltmp75:
	jmp	LBB60_22
	.p2align	4, 0x90
LBB60_23:
	movq	-272(%rbp), %r12
	movq	%r12, -280(%rbp)
LBB60_33:
	leaq	l___unnamed_29(%rip), %rsi
	movabsq	$4207896288998221170, %rdi
LBB60_34:
	cmpb	$0, -247(%rbp)
	je	LBB60_35
LBB60_18:
	xorl	%r15d, %r15d
	testq	%r15, %r15
	je	LBB60_67
LBB60_46:
	cmpq	$9, %rdx
	jb	LBB60_16
	cmpq	%rsi, %r15
	je	LBB60_49
	movq	(%r15), %rax
	xorq	%rdi, %rax
	movzbl	8(%r15), %ecx
	xorq	$32, %rcx
	orq	%rax, %rcx
	jne	LBB60_16
	jmp	LBB60_49
	.p2align	4, 0x90
LBB60_35:
	cmpb	$0, -248(%rbp)
	je	LBB60_39
	movq	-312(%rbp), %r15
	movq	-304(%rbp), %r13
	jmp	LBB60_40
LBB60_39:
	movq	-312(%rbp), %r15
	movq	-304(%rbp), %r13
	cmpq	%r15, %r13
	je	LBB60_18
LBB60_40:
	movb	$1, -247(%rbp)
	subq	%r15, %r13
	addq	-296(%rbp), %r15
	testq	%r13, %r13
	je	LBB60_43
LBB60_44:
	leaq	-1(%r13), %rdx
	cmpb	$13, -1(%r15,%r13)
	cmovneq	%r13, %rdx
	testq	%r15, %r15
	jne	LBB60_46
	jmp	LBB60_67
LBB60_41:
	movq	-312(%rbp), %rax
	addq	%rax, %r15
	subq	%rax, %r13
	movq	%r12, -312(%rbp)
	leaq	l___unnamed_29(%rip), %rsi
	movabsq	$4207896288998221170, %rdi
	testq	%r13, %r13
	jne	LBB60_44
LBB60_43:
	xorl	%edx, %edx
	testq	%r15, %r15
	jne	LBB60_46
LBB60_67:
	movq	-48(%rbp), %r12
	movb	$3, 8(%r12)
	leaq	l___unnamed_30(%rip), %rax
	movq	%rax, 16(%r12)
	movq	$28, 24(%r12)
	movq	$1, (%r12)
	movq	-112(%rbp), %rdi
	testq	%rdi, %rdi
	jne	LBB60_97
	jmp	LBB60_99
LBB60_49:
	movq	%r15, -416(%rbp)
	movq	%rdx, -408(%rbp)
	movq	$9, -120(%rbp)
	movq	%rdx, -128(%rbp)
	cmpq	$9, %rdx
	je	LBB60_52
	cmpb	$-65, 9(%r15)
	jle	LBB60_51
LBB60_52:
	addq	$9, %r15
	addq	$-9, %rdx
	movq	%r15, -312(%rbp)
	movq	%rdx, -304(%rbp)
	movq	$0, -296(%rbp)
	movq	%rdx, -288(%rbp)
	movabsq	$193273528365, %rax
	movq	%rax, -272(%rbp)
	movq	$1, -280(%rbp)
	movl	$1, %r13d
	xorl	%ebx, %ebx
	movq	%r15, %rsi
	movq	%rdx, -56(%rbp)
	movq	-48(%rbp), %r12
	.p2align	4, 0x90
LBB60_53:
	addq	%rbx, %rsi
	subq	%rbx, %rdx
	leaq	-312(%rbp), %rax
	movzbl	43(%r13,%rax), %edi
Ltmp79:
	callq	__ZN4core5slice6memchr6memchr17h319ffdabcbdf42caE
Ltmp80:
	cmpq	$1, %rax
	jne	LBB60_55
	movq	-296(%rbp), %rax
	movq	-280(%rbp), %r13
	leaq	(%rdx,%rax), %rbx
	addq	$1, %rbx
	movq	%rbx, -296(%rbp)
	movq	%rbx, %r12
	subq	%r13, %r12
	jae	LBB60_59
	movq	-304(%rbp), %r14
	movq	-288(%rbp), %rdx
	cmpq	%rbx, %rdx
	movq	-48(%rbp), %r12
	jae	LBB60_65
	jmp	LBB60_56
	.p2align	4, 0x90
LBB60_59:
	movq	-304(%rbp), %r14
	cmpq	%rbx, %r14
	jb	LBB60_64
	cmpq	$5, %r13
	jae	LBB60_61
	movq	-312(%rbp), %rdi
	addq	%r12, %rdi
	leaq	-268(%rbp), %rax
	cmpq	%rax, %rdi
	je	LBB60_68
	leaq	-268(%rbp), %rsi
	movq	%r13, %rdx
	callq	_bcmp
	testl	%eax, %eax
	je	LBB60_68
LBB60_64:
	movq	-288(%rbp), %rdx
	cmpq	%rbx, %rdx
	movq	-48(%rbp), %r12
	jb	LBB60_56
LBB60_65:
	cmpq	%rdx, %r14
	jb	LBB60_56
	movq	-312(%rbp), %rsi
	jmp	LBB60_53
LBB60_55:
	movq	-288(%rbp), %rax
	movq	%rax, -296(%rbp)
LBB60_56:
	movq	-56(%rbp), %rax
LBB60_74:
	movq	$0, -312(%rbp)
	movq	%rax, -304(%rbp)
	movq	%r15, -296(%rbp)
	movq	%rax, -288(%rbp)
	movq	$0, -280(%rbp)
	movq	%rax, -272(%rbp)
	movq	$1, -264(%rbp)
	movabsq	$197568495662, %rax
	movq	%rax, -256(%rbp)
	movw	$1, -248(%rbp)
	movq	$3, -240(%rbp)
Ltmp86:
	leaq	-312(%rbp), %rdi
	callq	__ZN85_$LT$core..str..SplitN$LT$P$GT$$u20$as$u20$core..iter..traits..iterator..Iterator$GT$4next17he926730097b4779eE
Ltmp87:
	movq	%rax, %r14
	testq	%rax, %rax
	je	LBB60_76
	movq	%rdx, %r13
Ltmp88:
	leaq	-312(%rbp), %rdi
	callq	__ZN85_$LT$core..str..SplitN$LT$P$GT$$u20$as$u20$core..iter..traits..iterator..Iterator$GT$4next17he926730097b4779eE
	movq	%rdx, -48(%rbp)
Ltmp89:
	movq	%rax, %rbx
	testq	%rax, %rax
	je	LBB60_81
Ltmp90:
	leaq	-312(%rbp), %rdi
	callq	__ZN85_$LT$core..str..SplitN$LT$P$GT$$u20$as$u20$core..iter..traits..iterator..Iterator$GT$4next17he926730097b4779eE
	movq	%rdx, -56(%rbp)
Ltmp91:
	movq	%rax, %r15
	testq	%rax, %rax
	je	LBB60_84
Ltmp92:
	leaq	-376(%rbp), %rdi
	movq	%r14, %rsi
	movq	%r13, %rdx
	callq	__ZN4core3num54_$LT$impl$u20$core..str..FromStr$u20$for$u20$usize$GT$8from_str17hde79bf6128128228E
Ltmp93:
	cmpb	$1, -376(%rbp)
	jne	LBB60_89
	movzbl	-375(%rbp), %eax
	shlq	$8, %rax
	orq	$1, %rax
	movq	%rax, 8(%r12)
	movl	-120(%rbp), %eax
	movl	-117(%rbp), %ecx
	jmp	LBB60_88
LBB60_76:
	leaq	l___unnamed_31(%rip), %rax
	jmp	LBB60_77
LBB60_81:
	leaq	l___unnamed_32(%rip), %rax
	jmp	LBB60_77
LBB60_68:
	movq	%r15, -312(%rbp)
	movq	-56(%rbp), %rax
	movq	%rax, -304(%rbp)
	testq	%r12, %r12
	je	LBB60_73
	cmpq	%r12, %rax
	je	LBB60_73
	jbe	LBB60_72
	cmpb	$-65, (%r15,%r12)
	jle	LBB60_72
LBB60_73:
	movq	%r12, %rax
	movq	-48(%rbp), %r12
	jmp	LBB60_74
LBB60_84:
	leaq	l___unnamed_33(%rip), %rax
LBB60_77:
	movq	%rax, 16(%r12)
	movq	$21, 24(%r12)
	vmovaps	LCPI60_0(%rip), %xmm0
	vmovups	%xmm0, (%r12)
	movq	-112(%rbp), %rdi
	testq	%rdi, %rdi
	jne	LBB60_97
	jmp	LBB60_99
LBB60_89:
	movq	-368(%rbp), %r14
Ltmp95:
	leaq	-376(%rbp), %rdi
	movq	%rbx, %rsi
	movq	-48(%rbp), %rdx
	callq	__ZN4core3num54_$LT$impl$u20$core..str..FromStr$u20$for$u20$usize$GT$8from_str17hde79bf6128128228E
Ltmp96:
	cmpb	$1, -376(%rbp)
	jne	LBB60_92
	movzbl	-375(%rbp), %eax
	shlq	$8, %rax
	orq	$1, %rax
	movq	%rax, 8(%r12)
	movl	-128(%rbp), %eax
	movl	-125(%rbp), %ecx
	jmp	LBB60_88
LBB60_92:
	movq	-368(%rbp), %rbx
Ltmp98:
	leaq	-376(%rbp), %rdi
	movq	%r15, %rsi
	movq	-56(%rbp), %rdx
	callq	__ZN4core3num54_$LT$impl$u20$core..str..FromStr$u20$for$u20$usize$GT$8from_str17hde79bf6128128228E
Ltmp99:
	cmpb	$1, -376(%rbp)
	jne	LBB60_95
	movzbl	-375(%rbp), %eax
	shlq	$8, %rax
	orq	$1, %rax
	movq	%rax, 8(%r12)
	movl	-416(%rbp), %eax
	movl	-413(%rbp), %ecx
LBB60_88:
	movl	%eax, 17(%r12)
	movl	%ecx, 20(%r12)
	movq	$1, (%r12)
	movq	-112(%rbp), %rdi
	testq	%rdi, %rdi
	jne	LBB60_97
	jmp	LBB60_99
LBB60_95:
	movq	-368(%rbp), %rax
	movq	%r14, 8(%r12)
	movq	%rbx, 16(%r12)
	movq	%rax, 24(%r12)
	movq	$0, (%r12)
	movq	-112(%rbp), %rdi
	testq	%rdi, %rdi
	jne	LBB60_97
	jmp	LBB60_99
LBB60_28:
Ltmp72:
	leaq	l___unnamed_21(%rip), %rdx
	movl	$4, %esi
	movq	%rbx, %rdi
	callq	__ZN4core5slice20slice_index_len_fail17h550a313151a85135E
Ltmp73:
	jmp	LBB60_29
LBB60_61:
Ltmp84:
	leaq	l___unnamed_21(%rip), %rdx
	movl	$4, %esi
	movq	%r13, %rdi
	callq	__ZN4core5slice20slice_index_len_fail17h550a313151a85135E
Ltmp85:
LBB60_29:
	ud2
LBB60_51:
	leaq	-416(%rbp), %rax
	movq	%rax, -376(%rbp)
	leaq	-120(%rbp), %rax
	movq	%rax, -368(%rbp)
	leaq	-128(%rbp), %rax
	movq	%rax, -360(%rbp)
Ltmp77:
	leaq	-376(%rbp), %rdi
	callq	__ZN4core3str6traits105_$LT$impl$u20$core..slice..SliceIndex$LT$str$GT$$u20$for$u20$core..ops..range..RangeFrom$LT$usize$GT$$GT$5index28_$u7b$$u7b$closure$u7d$$u7d$17hf7945ab20db51e8fE
Ltmp78:
	jmp	LBB60_29
LBB60_72:
Ltmp82:
	leaq	-312(%rbp), %rdi
	movq	%r12, %rsi
	callq	__ZN4core3str6traits103_$LT$impl$u20$core..slice..SliceIndex$LT$str$GT$$u20$for$u20$core..ops..range..RangeTo$LT$usize$GT$$GT$5index28_$u7b$$u7b$closure$u7d$$u7d$17hf9f89b19f6b22fe7E
Ltmp83:
	jmp	LBB60_29
LBB60_111:
Ltmp100:
	jmp	LBB60_109
LBB60_110:
Ltmp97:
	jmp	LBB60_109
LBB60_107:
Ltmp71:
	jmp	LBB60_109
LBB60_105:
Ltmp81:
	jmp	LBB60_109
LBB60_108:
Ltmp94:
	jmp	LBB60_109
LBB60_106:
Ltmp76:
LBB60_109:
	movq	%rax, %rbx
	leaq	-112(%rbp), %rdi
	callq	__ZN4core3ptr13drop_in_place17h984bae87a5762607E
	movq	%rbx, %rdi
	callq	__Unwind_Resume
	ud2
LBB60_103:
Ltmp62:
	movq	%rax, %rbx
	leaq	-312(%rbp), %rdi
	callq	__ZN4core3ptr13drop_in_place17hb826c33b131ef9a5E
	movq	%rbx, %rdi
	callq	__Unwind_Resume
	ud2
Lfunc_end8:
	.cfi_endproc
	.section	__TEXT,__gcc_except_tab
	.p2align	2
GCC_except_table60:
Lexception8:
	.byte	255
	.byte	255
	.byte	1
	.uleb128 Lcst_end8-Lcst_begin8
Lcst_begin8:
	.uleb128 Lfunc_begin8-Lfunc_begin8
	.uleb128 Ltmp52-Lfunc_begin8
	.byte	0
	.byte	0
	.uleb128 Ltmp52-Lfunc_begin8
	.uleb128 Ltmp61-Ltmp52
	.uleb128 Ltmp62-Lfunc_begin8
	.byte	0
	.uleb128 Ltmp61-Lfunc_begin8
	.uleb128 Ltmp63-Ltmp61
	.byte	0
	.byte	0
	.uleb128 Ltmp63-Lfunc_begin8
	.uleb128 Ltmp68-Ltmp63
	.uleb128 Ltmp94-Lfunc_begin8
	.byte	0
	.uleb128 Ltmp69-Lfunc_begin8
	.uleb128 Ltmp70-Ltmp69
	.uleb128 Ltmp71-Lfunc_begin8
	.byte	0
	.uleb128 Ltmp74-Lfunc_begin8
	.uleb128 Ltmp75-Ltmp74
	.uleb128 Ltmp76-Lfunc_begin8
	.byte	0
	.uleb128 Ltmp79-Lfunc_begin8
	.uleb128 Ltmp80-Ltmp79
	.uleb128 Ltmp81-Lfunc_begin8
	.byte	0
	.uleb128 Ltmp86-Lfunc_begin8
	.uleb128 Ltmp93-Ltmp86
	.uleb128 Ltmp94-Lfunc_begin8
	.byte	0
	.uleb128 Ltmp95-Lfunc_begin8
	.uleb128 Ltmp96-Ltmp95
	.uleb128 Ltmp97-Lfunc_begin8
	.byte	0
	.uleb128 Ltmp98-Lfunc_begin8
	.uleb128 Ltmp99-Ltmp98
	.uleb128 Ltmp100-Lfunc_begin8
	.byte	0
	.uleb128 Ltmp72-Lfunc_begin8
	.uleb128 Ltmp83-Ltmp72
	.uleb128 Ltmp94-Lfunc_begin8
	.byte	0
	.uleb128 Ltmp83-Lfunc_begin8
	.uleb128 Lfunc_end8-Ltmp83
	.byte	0
	.byte	0
Lcst_end8:
	.p2align	2

	.section	__TEXT,__text,regular,pure_instructions
	.globl	__ZN7autocfg4emit17h6e55bfbfc5decc9cE
	.p2align	4, 0x90
__ZN7autocfg4emit17h6e55bfbfc5decc9cE:
	.cfi_startproc
	pushq	%rbp
	.cfi_def_cfa_offset 16
	.cfi_offset %rbp, -16
	movq	%rsp, %rbp
	.cfi_def_cfa_register %rbp
	subq	$80, %rsp
	movq	%rdi, -16(%rbp)
	movq	%rsi, -8(%rbp)
	leaq	-16(%rbp), %rax
	movq	%rax, -32(%rbp)
	leaq	__ZN44_$LT$$RF$T$u20$as$u20$core..fmt..Display$GT$3fmt17hebc820d3180ae72dE(%rip), %rax
	movq	%rax, -24(%rbp)
	leaq	l___unnamed_34(%rip), %rax
	movq	%rax, -80(%rbp)
	movq	$2, -72(%rbp)
	movq	$0, -64(%rbp)
	leaq	-32(%rbp), %rax
	movq	%rax, -48(%rbp)
	movq	$1, -40(%rbp)
	leaq	-80(%rbp), %rdi
	callq	__ZN3std2io5stdio6_print17hdea2154009b9e479E
	addq	$80, %rsp
	popq	%rbp
	retq
	.cfi_endproc

	.globl	__ZN7autocfg10rerun_path17h04450369d1619857E
	.p2align	4, 0x90
__ZN7autocfg10rerun_path17h04450369d1619857E:
	.cfi_startproc
	pushq	%rbp
	.cfi_def_cfa_offset 16
	.cfi_offset %rbp, -16
	movq	%rsp, %rbp
	.cfi_def_cfa_register %rbp
	subq	$80, %rsp
	movq	%rdi, -16(%rbp)
	movq	%rsi, -8(%rbp)
	leaq	-16(%rbp), %rax
	movq	%rax, -32(%rbp)
	leaq	__ZN44_$LT$$RF$T$u20$as$u20$core..fmt..Display$GT$3fmt17hebc820d3180ae72dE(%rip), %rax
	movq	%rax, -24(%rbp)
	leaq	l___unnamed_35(%rip), %rax
	movq	%rax, -80(%rbp)
	movq	$2, -72(%rbp)
	movq	$0, -64(%rbp)
	leaq	-32(%rbp), %rax
	movq	%rax, -48(%rbp)
	movq	$1, -40(%rbp)
	leaq	-80(%rbp), %rdi
	callq	__ZN3std2io5stdio6_print17hdea2154009b9e479E
	addq	$80, %rsp
	popq	%rbp
	retq
	.cfi_endproc

	.globl	__ZN7autocfg9rerun_env17h15e85ea103bbb687E
	.p2align	4, 0x90
__ZN7autocfg9rerun_env17h15e85ea103bbb687E:
	.cfi_startproc
	pushq	%rbp
	.cfi_def_cfa_offset 16
	.cfi_offset %rbp, -16
	movq	%rsp, %rbp
	.cfi_def_cfa_register %rbp
	subq	$80, %rsp
	movq	%rdi, -16(%rbp)
	movq	%rsi, -8(%rbp)
	leaq	-16(%rbp), %rax
	movq	%rax, -32(%rbp)
	leaq	__ZN44_$LT$$RF$T$u20$as$u20$core..fmt..Display$GT$3fmt17hebc820d3180ae72dE(%rip), %rax
	movq	%rax, -24(%rbp)
	leaq	l___unnamed_36(%rip), %rax
	movq	%rax, -80(%rbp)
	movq	$2, -72(%rbp)
	movq	$0, -64(%rbp)
	leaq	-32(%rbp), %rax
	movq	%rax, -48(%rbp)
	movq	$1, -40(%rbp)
	leaq	-80(%rbp), %rdi
	callq	__ZN3std2io5stdio6_print17hdea2154009b9e479E
	addq	$80, %rsp
	popq	%rbp
	retq
	.cfi_endproc

	.globl	__ZN7autocfg3new17ha443865bae682d93E
	.p2align	4, 0x90
__ZN7autocfg3new17ha443865bae682d93E:
Lfunc_begin9:
	.cfi_startproc
	.cfi_personality 155, _rust_eh_personality
	.cfi_lsda 16, Lexception9
	pushq	%rbp
	.cfi_def_cfa_offset 16
	.cfi_offset %rbp, -16
	movq	%rsp, %rbp
	.cfi_def_cfa_register %rbp
	pushq	%rbx
	subq	$168, %rsp
	.cfi_offset %rbx, -24
	movq	%rdi, %rbx
	leaq	-168(%rbp), %rdi
	callq	__ZN7autocfg7AutoCfg3new17h19e4ab1b88a57c26E
	cmpq	$1, -168(%rbp)
	je	LBB64_1
	vmovups	-160(%rbp), %ymm0
	vmovups	-128(%rbp), %ymm1
	vmovups	-96(%rbp), %ymm2
	vmovups	-64(%rbp), %ymm3
	vmovups	%ymm3, 96(%rbx)
	vmovups	%ymm2, 64(%rbx)
	vmovups	%ymm1, 32(%rbx)
	vmovups	%ymm0, (%rbx)
	movq	%rbx, %rax
	addq	$168, %rsp
	popq	%rbx
	popq	%rbp
	vzeroupper
	retq
LBB64_1:
	movq	-144(%rbp), %rax
	movq	%rax, -16(%rbp)
	vmovups	-160(%rbp), %xmm0
	vmovaps	%xmm0, -32(%rbp)
Ltmp101:
	leaq	l___unnamed_37(%rip), %rdi
	leaq	l___unnamed_38(%rip), %rcx
	leaq	l___unnamed_39(%rip), %r8
	leaq	-32(%rbp), %rdx
	movl	$43, %esi
	callq	__ZN4core6result13unwrap_failed17hb5a510096a5fc85fE
Ltmp102:
	ud2
LBB64_3:
Ltmp103:
	movq	%rax, %rbx
	leaq	-32(%rbp), %rdi
	callq	__ZN4core3ptr13drop_in_place17h961919faea797330E
	movq	%rbx, %rdi
	callq	__Unwind_Resume
	ud2
Lfunc_end9:
	.cfi_endproc
	.section	__TEXT,__gcc_except_tab
	.p2align	2
GCC_except_table64:
Lexception9:
	.byte	255
	.byte	255
	.byte	1
	.uleb128 Lcst_end9-Lcst_begin9
Lcst_begin9:
	.uleb128 Lfunc_begin9-Lfunc_begin9
	.uleb128 Ltmp101-Lfunc_begin9
	.byte	0
	.byte	0
	.uleb128 Ltmp101-Lfunc_begin9
	.uleb128 Ltmp102-Ltmp101
	.uleb128 Ltmp103-Lfunc_begin9
	.byte	0
	.uleb128 Ltmp102-Lfunc_begin9
	.uleb128 Lfunc_end9-Ltmp102
	.byte	0
	.byte	0
Lcst_end9:
	.p2align	2

	.section	__TEXT,__literal16,16byte_literals
	.p2align	4
LCPI65_0:
	.quad	1
	.quad	1
	.section	__TEXT,__text,regular,pure_instructions
	.globl	__ZN7autocfg7AutoCfg3new17h19e4ab1b88a57c26E
	.p2align	4, 0x90
__ZN7autocfg7AutoCfg3new17h19e4ab1b88a57c26E:
Lfunc_begin10:
	.cfi_startproc
	.cfi_personality 155, _rust_eh_personality
	.cfi_lsda 16, Lexception10
	pushq	%rbp
	.cfi_def_cfa_offset 16
	.cfi_offset %rbp, -16
	movq	%rsp, %rbp
	.cfi_def_cfa_register %rbp
	pushq	%r15
	pushq	%r14
	pushq	%r13
	pushq	%r12
	pushq	%rbx
	subq	$760, %rsp
	.cfi_offset %rbx, -56
	.cfi_offset %r12, -48
	.cfi_offset %r13, -40
	.cfi_offset %r14, -32
	.cfi_offset %r15, -24
	movq	%rdi, %r15
	leaq	l___unnamed_40(%rip), %rsi
	leaq	-648(%rbp), %rdi
	movl	$7, %edx
	callq	__ZN3std3env7_var_os17hc8b7303001145450E
	cmpq	$0, -648(%rbp)
	je	LBB65_4
	movq	-632(%rbp), %rax
	movq	%rax, -512(%rbp)
	vmovups	-648(%rbp), %xmm0
	vmovaps	%xmm0, -528(%rbp)
Ltmp104:
	leaq	l___unnamed_41(%rip), %rsi
	leaq	-336(%rbp), %rdi
	movl	$5, %edx
	callq	__ZN3std3env7_var_os17hc8b7303001145450E
Ltmp105:
	cmpq	$0, -336(%rbp)
	je	LBB65_5
	movq	-320(%rbp), %rax
	movq	%rax, -576(%rbp)
	vmovups	-336(%rbp), %xmm0
	vmovaps	%xmm0, -592(%rbp)
	jmp	LBB65_6
LBB65_4:
	movb	$3, 8(%r15)
	leaq	l___unnamed_42(%rip), %rax
	movq	%rax, 16(%r15)
	movq	$21, 24(%r15)
	movq	$1, (%r15)
	jmp	LBB65_14
LBB65_5:
Ltmp106:
	leaq	l___unnamed_43(%rip), %rsi
	leaq	-592(%rbp), %rdi
	movl	$5, %edx
	callq	__ZN3std3ffi6os_str5OsStr12to_os_string17h0f25a8abb1fb4b72E
Ltmp107:
LBB65_6:
	movq	-576(%rbp), %rdx
	movq	%rdx, -480(%rbp)
	vmovaps	-592(%rbp), %xmm0
	vmovaps	%xmm0, -496(%rbp)
	movq	-496(%rbp), %r12
Ltmp109:
	leaq	-336(%rbp), %rdi
	movq	%r12, %rsi
	callq	__ZN7autocfg7version7Version10from_rustc17hccfb6ccd999e5ec6E
Ltmp110:
	cmpq	$1, -336(%rbp)
	leaq	-328(%rbp), %rax
	jne	LBB65_15
	movq	16(%rax), %rcx
	movq	%rcx, 24(%r15)
	vmovups	(%rax), %xmm0
	vmovups	%xmm0, 8(%r15)
	movq	$1, (%r15)
	movb	$1, %bl
	movq	-488(%rbp), %rsi
	testq	%rsi, %rsi
	je	LBB65_10
LBB65_9:
	movl	$1, %edx
	movq	%r12, %rdi
	callq	___rust_dealloc
LBB65_10:
	testb	%bl, %bl
	je	LBB65_14
	movq	-528(%rbp), %rdi
	testq	%rdi, %rdi
	je	LBB65_14
	movq	-520(%rbp), %rsi
	testq	%rsi, %rsi
	je	LBB65_14
	movl	$1, %edx
	callq	___rust_dealloc
LBB65_14:
	movq	%r15, %rax
	addq	$760, %rsp
	popq	%rbx
	popq	%r12
	popq	%r13
	popq	%r14
	popq	%r15
	popq	%rbp
	vzeroupper
	retq
LBB65_15:
	movq	16(%rax), %rcx
	movq	%rcx, -608(%rbp)
	vmovups	(%rax), %xmm0
	vmovaps	%xmm0, -624(%rbp)
	movq	-512(%rbp), %rdx
	movq	%rdx, -544(%rbp)
	vmovaps	-528(%rbp), %xmm0
	vmovaps	%xmm0, -560(%rbp)
	movq	-560(%rbp), %r14
Ltmp112:
	leaq	-336(%rbp), %rdi
	movq	%r14, %rsi
	callq	__ZN3std3sys4unix2fs4stat17h709171f0f643fc66E
Ltmp113:
	cmpq	$1, -336(%rbp)
	movb	-328(%rbp), %cl
	movl	-327(%rbp), %eax
	movl	%eax, -96(%rbp)
	movl	-324(%rbp), %eax
	movl	%eax, -93(%rbp)
	movb	-320(%rbp), %al
	movl	-319(%rbp), %edx
	movl	%edx, -176(%rbp)
	movl	-316(%rbp), %edx
	movl	%edx, -173(%rbp)
	jne	LBB65_20
	movl	-96(%rbp), %edx
	movl	-93(%rbp), %esi
	movl	%edx, -120(%rbp)
	movl	%esi, -117(%rbp)
	movl	-176(%rbp), %edx
	movl	-173(%rbp), %esi
	movl	%edx, -144(%rbp)
	movl	%esi, -141(%rbp)
	movb	$0, 8(%r15)
	movl	-64(%rbp), %edx
	movl	-61(%rbp), %esi
	movl	%edx, 9(%r15)
	movl	%esi, 12(%r15)
	movb	%cl, 16(%r15)
	movl	-120(%rbp), %ecx
	movl	-117(%rbp), %edx
	movl	%ecx, 17(%r15)
	movl	%edx, 20(%r15)
	movb	%al, 24(%r15)
	movl	-144(%rbp), %eax
	movl	-141(%rbp), %ecx
	movl	%eax, 25(%r15)
	movl	%ecx, 28(%r15)
	movq	$1, (%r15)
	movq	-552(%rbp), %rsi
	testq	%rsi, %rsi
	je	LBB65_19
LBB65_18:
	movl	$1, %edx
	movq	%r14, %rdi
	callq	___rust_dealloc
LBB65_19:
	xorl	%ebx, %ebx
	movq	-488(%rbp), %rsi
	testq	%rsi, %rsi
	jne	LBB65_9
	jmp	LBB65_10
LBB65_20:
	movb	-312(%rbp), %dl
	movl	-311(%rbp), %esi
	movl	%esi, -144(%rbp)
	movl	-308(%rbp), %esi
	vmovups	-304(%rbp), %ymm0
	vmovups	%ymm0, -464(%rbp)
	vmovups	-272(%rbp), %ymm0
	vmovups	%ymm0, -432(%rbp)
	vmovups	-240(%rbp), %ymm0
	vmovups	%ymm0, -400(%rbp)
	vmovups	-216(%rbp), %ymm0
	vmovups	%ymm0, -376(%rbp)
	movl	%esi, -141(%rbp)
	movl	-96(%rbp), %esi
	movl	-93(%rbp), %edi
	movl	%esi, -64(%rbp)
	movl	%edi, -61(%rbp)
	movl	-176(%rbp), %esi
	movl	-173(%rbp), %edi
	movl	%edi, -117(%rbp)
	movl	%esi, -120(%rbp)
	movb	%cl, -792(%rbp)
	movl	-64(%rbp), %ecx
	movl	-61(%rbp), %esi
	movl	%esi, -788(%rbp)
	movl	%ecx, -791(%rbp)
	movb	%al, -784(%rbp)
	movl	-120(%rbp), %eax
	movl	-117(%rbp), %ecx
	movl	%ecx, -780(%rbp)
	movl	%eax, -783(%rbp)
	movb	%dl, -776(%rbp)
	movl	-144(%rbp), %eax
	movl	-141(%rbp), %ecx
	movl	%ecx, -772(%rbp)
	movl	%eax, -775(%rbp)
	vmovups	-464(%rbp), %ymm0
	vmovups	-432(%rbp), %ymm1
	vmovups	-400(%rbp), %ymm2
	vmovups	-376(%rbp), %ymm3
	vmovups	%ymm3, -680(%rbp)
	vmovups	%ymm2, -704(%rbp)
	vmovups	%ymm1, -736(%rbp)
	vmovups	%ymm0, -768(%rbp)
Ltmp114:
	leaq	-792(%rbp), %rdi
	vzeroupper
	callq	__ZN3std2fs8Metadata6is_dir17he79804b975b4e0b0E
Ltmp115:
	testb	%al, %al
	je	LBB65_25
Ltmp116:
	leaq	-792(%rbp), %rdi
	callq	__ZN3std2fs8Metadata11permissions17h439b02509b43d767E
Ltmp117:
	movw	%ax, -336(%rbp)
Ltmp118:
	leaq	-336(%rbp), %rdi
	callq	__ZN3std2fs11Permissions8readonly17hcd83236e959d4e2bE
Ltmp119:
	testb	%al, %al
	je	LBB65_26
LBB65_25:
	movb	$3, 8(%r15)
	leaq	l___unnamed_44(%rip), %rax
	movq	%rax, 16(%r15)
	movq	$39, 24(%r15)
	movq	$1, (%r15)
	movq	-552(%rbp), %rsi
	testq	%rsi, %rsi
	jne	LBB65_18
	jmp	LBB65_19
LBB65_26:
Ltmp120:
	leaq	l___unnamed_45(%rip), %rsi
	leaq	-464(%rbp), %rdi
	movl	$6, %edx
	callq	__ZN3std3env7_var_os17hc8b7303001145450E
Ltmp121:
Ltmp122:
	leaq	L___unnamed_46(%rip), %rsi
	leaq	-336(%rbp), %rdi
	movl	$4, %edx
	callq	__ZN3std3env7_var_os17hc8b7303001145450E
Ltmp123:
	movq	-464(%rbp), %rax
	testq	%rax, %rax
	sete	%cl
	movq	-336(%rbp), %rdi
	testq	%rdi, %rdi
	setne	%dl
	movb	$1, %bl
	cmpb	%dl, %cl
	je	LBB65_33
	xorl	%ebx, %ebx
	testq	%rax, %rax
	je	LBB65_33
	testq	%rdi, %rdi
	je	LBB65_33
Ltmp125:
	leaq	-464(%rbp), %rdi
	leaq	-336(%rbp), %rsi
	callq	__ZN67_$LT$std..ffi..os_str..OsString$u20$as$u20$core..cmp..PartialEq$GT$2eq17hc675b98d8f3af042E
Ltmp126:
	movl	%eax, %ebx
	xorb	$1, %bl
	movq	-336(%rbp), %rdi
LBB65_33:
	testq	%rdi, %rdi
	je	LBB65_36
	movq	-328(%rbp), %rsi
	testq	%rsi, %rsi
	je	LBB65_36
	movl	$1, %edx
	callq	___rust_dealloc
LBB65_36:
	movq	-464(%rbp), %rdi
	testq	%rdi, %rdi
	je	LBB65_39
	movq	-456(%rbp), %rsi
	testq	%rsi, %rsi
	je	LBB65_39
	movl	$1, %edx
	callq	___rust_dealloc
LBB65_39:
	testb	%bl, %bl
	je	LBB65_45
Ltmp128:
	leaq	l___unnamed_47(%rip), %rsi
	leaq	-336(%rbp), %rdi
	movl	$9, %edx
	callq	__ZN3std3env4_var17heb54e5eb7997d7b3E
Ltmp129:
	movq	-328(%rbp), %rbx
	cmpq	$1, -336(%rbp)
	jne	LBB65_46
	testq	%rbx, %rbx
	je	LBB65_45
	movq	-320(%rbp), %rsi
	testq	%rsi, %rsi
	je	LBB65_45
	movl	$1, %edx
	movq	%rbx, %rdi
	callq	___rust_dealloc
	jmp	LBB65_45
LBB65_46:
	vmovups	-320(%rbp), %xmm0
	vmovaps	%xmm0, -144(%rbp)
	testq	%rbx, %rbx
	je	LBB65_45
	movq	%rbx, -120(%rbp)
	vmovaps	-144(%rbp), %xmm0
	vmovups	%xmm0, -112(%rbp)
	movq	-104(%rbp), %rax
	movq	$0, -464(%rbp)
	movq	%rax, -456(%rbp)
	movq	%rbx, -448(%rbp)
	movq	%rax, -440(%rbp)
	movq	$0, -432(%rbp)
	movq	%rax, -424(%rbp)
	movq	$1, -416(%rbp)
	movabsq	$137438953504, %rax
	movq	%rax, -408(%rbp)
	movw	$1, -400(%rbp)
Ltmp131:
	leaq	-96(%rbp), %rdi
	leaq	-464(%rbp), %rsi
	callq	__ZN97_$LT$core..iter..adapters..Map$LT$I$C$F$GT$$u20$as$u20$core..iter..traits..iterator..Iterator$GT$4next17h14dd55d5788a02c0E
Ltmp132:
	cmpq	$0, -96(%rbp)
	je	LBB65_75
	movq	%rbx, -568(%rbp)
	movq	-80(%rbp), %rax
	movq	%rax, -320(%rbp)
	vmovups	-96(%rbp), %xmm0
	vmovaps	%xmm0, -336(%rbp)
	movl	$24, %edi
	movl	$8, %esi
	callq	___rust_alloc
	testq	%rax, %rax
	je	LBB65_109
	movq	-320(%rbp), %rcx
	vmovaps	-336(%rbp), %xmm0
	vmovups	%xmm0, (%rax)
	movq	%rcx, 16(%rax)
	movq	%rax, -64(%rbp)
	vmovaps	LCPI65_0(%rip), %xmm0
	vmovups	%xmm0, -56(%rbp)
	movq	-400(%rbp), %rax
	movq	%rax, -272(%rbp)
	vmovups	-464(%rbp), %ymm0
	vmovups	-432(%rbp), %ymm1
	vmovups	%ymm1, -304(%rbp)
	vmovups	%ymm0, -336(%rbp)
	movl	$1, %r12d
	leaq	-176(%rbp), %r13
	leaq	-336(%rbp), %rbx
	jmp	LBB65_53
LBB65_51:
	movq	-64(%rbp), %rdi
	leaq	1(%r12), %r14
LBB65_52:
	leaq	(%r12,%r12,2), %rax
	vmovaps	-96(%rbp), %xmm0
	movq	-80(%rbp), %rcx
	movq	%rcx, 16(%rdi,%rax,8)
	vmovups	%xmm0, (%rdi,%rax,8)
	movq	%r14, -48(%rbp)
	movq	%r14, %r12
LBB65_53:
Ltmp134:
	movq	%r13, %rdi
	movq	%rbx, %rsi
	vzeroupper
	callq	__ZN97_$LT$core..iter..adapters..Map$LT$I$C$F$GT$$u20$as$u20$core..iter..traits..iterator..Iterator$GT$4next17h14dd55d5788a02c0E
Ltmp135:
	cmpq	$0, -176(%rbp)
	je	LBB65_74
	movq	-160(%rbp), %rax
	movq	%rax, -80(%rbp)
	vmovups	-176(%rbp), %xmm0
	vmovaps	%xmm0, -96(%rbp)
	cmpq	%r12, -56(%rbp)
	jne	LBB65_51
	movq	%r12, %r14
	incq	%r14
	je	LBB65_106
	leaq	(%r12,%r12), %rax
	cmpq	%r14, %rax
	cmovbeq	%r14, %rax
	xorl	%esi, %esi
	movl	$24, %ecx
	mulq	%rcx
	movq	%rax, %rbx
	seto	%cl
	setno	%al
	movq	%r12, %rdi
	testq	%r12, %r12
	je	LBB65_59
	movq	-64(%rbp), %rdi
LBB65_59:
	testb	%cl, %cl
	jne	LBB65_106
	testq	%rdi, %rdi
	je	LBB65_64
	leaq	(,%r12,8), %rax
	leaq	(%rax,%rax,2), %rsi
	cmpq	%rbx, %rsi
	je	LBB65_70
	testq	%rsi, %rsi
	je	LBB65_66
	movl	$8, %edx
	movq	%rbx, %rcx
	callq	___rust_realloc
	jmp	LBB65_69
LBB65_64:
	movb	%al, %sil
	shlq	$3, %rsi
	testq	%rbx, %rbx
	jne	LBB65_68
	movq	%rsi, %rdi
	testq	%rdi, %rdi
	jne	LBB65_71
	jmp	LBB65_108
LBB65_66:
	testq	%rbx, %rbx
	je	LBB65_72
	movl	$8, %esi
LBB65_68:
	movq	%rbx, %rdi
	callq	___rust_alloc
LBB65_69:
	movq	%rax, %rdi
LBB65_70:
	testq	%rdi, %rdi
	je	LBB65_108
LBB65_71:
	movq	%rdi, -64(%rbp)
	movq	%rbx, %rax
	movabsq	$-6148914691236517205, %rcx
	mulq	%rcx
	shrq	$4, %rdx
	movq	%rdx, -56(%rbp)
	leaq	-336(%rbp), %rbx
	jmp	LBB65_52
LBB65_72:
	movl	$8, %edi
	jmp	LBB65_71
LBB65_45:
	movq	$0, -120(%rbp)
LBB65_78:
	movq	-544(%rbp), %rax
	movq	%rax, -48(%rbp)
	vmovaps	-560(%rbp), %xmm0
	vmovaps	%xmm0, -64(%rbp)
	movq	-480(%rbp), %rax
	vmovaps	-496(%rbp), %xmm0
	vmovaps	%xmm0, -176(%rbp)
	movq	%rax, -160(%rbp)
	movq	-608(%rbp), %rax
	movq	%rax, -80(%rbp)
	vmovaps	-624(%rbp), %xmm0
	vmovaps	%xmm0, -96(%rbp)
Ltmp140:
	leaq	l___unnamed_45(%rip), %rsi
	leaq	-464(%rbp), %rdi
	movl	$6, %edx
	callq	__ZN3std3env7_var_os17hc8b7303001145450E
Ltmp141:
	movq	-48(%rbp), %rax
	movq	%rax, -320(%rbp)
	vmovaps	-64(%rbp), %xmm0
	vmovaps	%xmm0, -336(%rbp)
	vmovaps	-176(%rbp), %xmm0
	vmovups	%xmm0, -312(%rbp)
	movq	-160(%rbp), %rax
	movq	%rax, -296(%rbp)
	vmovaps	-96(%rbp), %xmm0
	vmovaps	%xmm0, -288(%rbp)
	movq	-80(%rbp), %rax
	movq	%rax, -272(%rbp)
	vmovups	-464(%rbp), %xmm0
	vmovups	%xmm0, -264(%rbp)
	movq	-448(%rbp), %rax
	movq	%rax, -248(%rbp)
	movb	$0, -216(%rbp)
	movq	-104(%rbp), %rax
	movq	%rax, -224(%rbp)
	vmovups	-120(%rbp), %xmm0
	vmovaps	%xmm0, -240(%rbp)
Ltmp143:
	leaq	-464(%rbp), %rdi
	leaq	-336(%rbp), %rsi
	callq	__ZN7autocfg7AutoCfg5probe17ha88a39aca5c993f3E
Ltmp144:
	movb	-464(%rbp), %al
	cmpb	$1, %al
	setne	%bl
	cmpb	$0, -463(%rbp)
	setne	%r14b
	testb	%al, %al
	je	LBB65_87
	cmpb	$0, -456(%rbp)
	jne	LBB65_87
	cmpb	$2, -448(%rbp)
	jb	LBB65_87
	movq	-440(%rbp), %r12
	movq	(%r12), %rdi
	movq	8(%r12), %rax
Ltmp145:
	callq	*(%rax)
Ltmp146:
	movq	8(%r12), %rax
	movq	8(%rax), %rsi
	testq	%rsi, %rsi
	je	LBB65_86
	movq	(%r12), %rdi
	movq	16(%rax), %rdx
	callq	___rust_dealloc
LBB65_86:
	movl	$24, %esi
	movl	$8, %edx
	movq	%r12, %rdi
	callq	___rust_dealloc
LBB65_87:
	andb	%r14b, %bl
	jne	LBB65_105
	movb	$1, -216(%rbp)
Ltmp148:
	leaq	-464(%rbp), %rdi
	leaq	-336(%rbp), %rsi
	callq	__ZN7autocfg7AutoCfg5probe17ha88a39aca5c993f3E
Ltmp149:
	movb	-464(%rbp), %al
	cmpb	$1, %al
	setne	%bl
	cmpb	$0, -463(%rbp)
	setne	%r14b
	testb	%al, %al
	je	LBB65_96
	cmpb	$0, -456(%rbp)
	jne	LBB65_96
	cmpb	$2, -448(%rbp)
	jb	LBB65_96
	movq	-440(%rbp), %r12
	movq	(%r12), %rdi
	movq	8(%r12), %rax
Ltmp150:
	callq	*(%rax)
Ltmp151:
	movq	8(%r12), %rax
	movq	8(%rax), %rsi
	testq	%rsi, %rsi
	je	LBB65_95
	movq	(%r12), %rdi
	movq	16(%rax), %rdx
	callq	___rust_dealloc
LBB65_95:
	movl	$24, %esi
	movl	$8, %edx
	movq	%r12, %rdi
	callq	___rust_dealloc
LBB65_96:
	andb	%r14b, %bl
	jne	LBB65_105
	movb	$0, -216(%rbp)
Ltmp153:
	callq	__ZN3std2io5stdio6stderr17hb910cf11fe2fd9d1E
Ltmp154:
	movq	%rax, -96(%rbp)
Ltmp155:
	leaq	l___unnamed_48(%rip), %rdx
	leaq	-464(%rbp), %rdi
	leaq	-96(%rbp), %rsi
	movl	$43, %ecx
	callq	__ZN57_$LT$std..io..stdio..Stderr$u20$as$u20$std..io..Write$GT$9write_all17h88c7457e00121bcbE
Ltmp156:
	movb	-464(%rbp), %al
	cmpb	$3, %al
	ja	LBB65_101
	cmpb	$2, %al
	jne	LBB65_105
LBB65_101:
	movq	-456(%rbp), %rbx
	movq	(%rbx), %rdi
	movq	8(%rbx), %rax
Ltmp158:
	callq	*(%rax)
Ltmp159:
	movq	8(%rbx), %rax
	movq	8(%rax), %rsi
	testq	%rsi, %rsi
	je	LBB65_104
	movq	(%rbx), %rdi
	movq	16(%rax), %rdx
	callq	___rust_dealloc
LBB65_104:
	movl	$24, %esi
	movl	$8, %edx
	movq	%rbx, %rdi
	callq	___rust_dealloc
LBB65_105:
	vmovups	-336(%rbp), %ymm0
	vmovups	-272(%rbp), %ymm1
	vmovups	-240(%rbp), %ymm2
	vmovups	%ymm2, 104(%r15)
	vmovups	%ymm1, 72(%r15)
	vmovups	-304(%rbp), %ymm1
	vmovups	%ymm1, 40(%r15)
	vmovups	%ymm0, 8(%r15)
	movq	$0, (%r15)
	jmp	LBB65_14
LBB65_74:
	movq	-64(%rbp), %r14
	leaq	-56(%rbp), %rax
	vmovups	(%rax), %xmm0
	vmovaps	%xmm0, -336(%rbp)
	movq	-568(%rbp), %rbx
	movq	-112(%rbp), %rsi
	testq	%rsi, %rsi
	je	LBB65_77
LBB65_76:
	movl	$1, %edx
	movq	%rbx, %rdi
	callq	___rust_dealloc
LBB65_77:
	movq	%r14, -120(%rbp)
	vmovaps	-336(%rbp), %xmm0
	vmovups	%xmm0, -112(%rbp)
	jmp	LBB65_78
LBB65_75:
	vxorps	%xmm0, %xmm0, %xmm0
	vmovaps	%xmm0, -336(%rbp)
	movl	$8, %r14d
	movq	-112(%rbp), %rsi
	testq	%rsi, %rsi
	jne	LBB65_76
	jmp	LBB65_77
LBB65_106:
Ltmp137:
	callq	__ZN5alloc7raw_vec17capacity_overflow17h023f34f5bc34c61fE
Ltmp138:
	ud2
LBB65_108:
	movl	$8, %esi
	movq	%rbx, %rdi
	callq	__ZN5alloc5alloc18handle_alloc_error17hbc0ab0ed90816c07E
LBB65_109:
	movl	$24, %edi
	movl	$8, %esi
	callq	__ZN5alloc7raw_vec19RawVec$LT$T$C$A$GT$11allocate_in28_$u7b$$u7b$closure$u7d$$u7d$17h4db379887edff23fE
LBB65_110:
Ltmp139:
	movq	%rax, %r14
	leaq	-96(%rbp), %rdi
	callq	__ZN4core3ptr13drop_in_place17h3da4fec5da26dce0E
	jmp	LBB65_124
LBB65_111:
Ltmp152:
	jmp	LBB65_114
LBB65_112:
Ltmp160:
	movq	%rax, %r14
	movq	(%rbx), %rdi
	movq	8(%rbx), %rsi
	callq	__ZN5alloc5alloc8box_free17h60ba51d8addc7fdeE
	movq	%rbx, %rdi
	jmp	LBB65_115
LBB65_113:
Ltmp147:
LBB65_114:
	movq	%rax, %r14
	movq	(%r12), %rdi
	movq	8(%r12), %rsi
	callq	__ZN5alloc5alloc8box_free17h60ba51d8addc7fdeE
	movq	%r12, %rdi
LBB65_115:
	callq	__ZN5alloc5alloc8box_free17h4c7dac560e6bb77aE
	jmp	LBB65_122
LBB65_116:
Ltmp133:
	movq	%rax, %r14
	jmp	LBB65_125
LBB65_117:
Ltmp127:
	movq	%rax, %r14
	leaq	-336(%rbp), %rdi
	callq	__ZN4core3ptr13drop_in_place17hd03d57fbff1896faE
	jmp	LBB65_120
LBB65_118:
Ltmp142:
	movq	%rax, %r14
	leaq	-176(%rbp), %rdi
	callq	__ZN4core3ptr13drop_in_place17h3da4fec5da26dce0E
	leaq	-64(%rbp), %rdi
	callq	__ZN4core3ptr13drop_in_place17h3da4fec5da26dce0E
	leaq	-120(%rbp), %rdi
	callq	__ZN4core3ptr13drop_in_place17h3621df5835529ab0E
	movq	%r14, %rdi
	callq	__Unwind_Resume
	ud2
LBB65_119:
Ltmp124:
	movq	%rax, %r14
LBB65_120:
	leaq	-464(%rbp), %rdi
	callq	__ZN4core3ptr13drop_in_place17hd03d57fbff1896faE
	jmp	LBB65_128
LBB65_121:
Ltmp157:
	movq	%rax, %r14
LBB65_122:
	leaq	-336(%rbp), %rdi
	callq	__ZN4core3ptr13drop_in_place17h1503c8b117f2fa61E
	movq	%r14, %rdi
	callq	__Unwind_Resume
	ud2
LBB65_123:
Ltmp136:
	movq	%rax, %r14
LBB65_124:
	leaq	-64(%rbp), %rdi
	callq	__ZN4core3ptr13drop_in_place17h344bbcc8dac09da4E
LBB65_125:
	leaq	-120(%rbp), %rdi
	callq	__ZN4core3ptr13drop_in_place17h3da4fec5da26dce0E
	jmp	LBB65_128
LBB65_126:
Ltmp111:
	movq	%rax, %r14
	leaq	-496(%rbp), %rdi
	callq	__ZN4core3ptr13drop_in_place17h3da4fec5da26dce0E
	jmp	LBB65_130
LBB65_127:
Ltmp130:
	movq	%rax, %r14
LBB65_128:
	leaq	-560(%rbp), %rdi
	callq	__ZN4core3ptr13drop_in_place17h3da4fec5da26dce0E
	leaq	-496(%rbp), %rdi
	callq	__ZN4core3ptr13drop_in_place17h3da4fec5da26dce0E
	movq	%r14, %rdi
	callq	__Unwind_Resume
	ud2
LBB65_129:
Ltmp108:
	movq	%rax, %r14
LBB65_130:
	leaq	-528(%rbp), %rdi
	callq	__ZN4core3ptr13drop_in_place17h3da4fec5da26dce0E
	movq	%r14, %rdi
	callq	__Unwind_Resume
	ud2
Lfunc_end10:
	.cfi_endproc
	.section	__TEXT,__gcc_except_tab
	.p2align	2
GCC_except_table65:
Lexception10:
	.byte	255
	.byte	255
	.byte	1
	.uleb128 Lcst_end10-Lcst_begin10
Lcst_begin10:
	.uleb128 Lfunc_begin10-Lfunc_begin10
	.uleb128 Ltmp104-Lfunc_begin10
	.byte	0
	.byte	0
	.uleb128 Ltmp104-Lfunc_begin10
	.uleb128 Ltmp107-Ltmp104
	.uleb128 Ltmp108-Lfunc_begin10
	.byte	0
	.uleb128 Ltmp109-Lfunc_begin10
	.uleb128 Ltmp110-Ltmp109
	.uleb128 Ltmp111-Lfunc_begin10
	.byte	0
	.uleb128 Ltmp112-Lfunc_begin10
	.uleb128 Ltmp121-Ltmp112
	.uleb128 Ltmp130-Lfunc_begin10
	.byte	0
	.uleb128 Ltmp122-Lfunc_begin10
	.uleb128 Ltmp123-Ltmp122
	.uleb128 Ltmp124-Lfunc_begin10
	.byte	0
	.uleb128 Ltmp125-Lfunc_begin10
	.uleb128 Ltmp126-Ltmp125
	.uleb128 Ltmp127-Lfunc_begin10
	.byte	0
	.uleb128 Ltmp128-Lfunc_begin10
	.uleb128 Ltmp129-Ltmp128
	.uleb128 Ltmp130-Lfunc_begin10
	.byte	0
	.uleb128 Ltmp131-Lfunc_begin10
	.uleb128 Ltmp132-Ltmp131
	.uleb128 Ltmp133-Lfunc_begin10
	.byte	0
	.uleb128 Ltmp134-Lfunc_begin10
	.uleb128 Ltmp135-Ltmp134
	.uleb128 Ltmp136-Lfunc_begin10
	.byte	0
	.uleb128 Ltmp140-Lfunc_begin10
	.uleb128 Ltmp141-Ltmp140
	.uleb128 Ltmp142-Lfunc_begin10
	.byte	0
	.uleb128 Ltmp143-Lfunc_begin10
	.uleb128 Ltmp144-Ltmp143
	.uleb128 Ltmp157-Lfunc_begin10
	.byte	0
	.uleb128 Ltmp145-Lfunc_begin10
	.uleb128 Ltmp146-Ltmp145
	.uleb128 Ltmp147-Lfunc_begin10
	.byte	0
	.uleb128 Ltmp148-Lfunc_begin10
	.uleb128 Ltmp149-Ltmp148
	.uleb128 Ltmp157-Lfunc_begin10
	.byte	0
	.uleb128 Ltmp150-Lfunc_begin10
	.uleb128 Ltmp151-Ltmp150
	.uleb128 Ltmp152-Lfunc_begin10
	.byte	0
	.uleb128 Ltmp153-Lfunc_begin10
	.uleb128 Ltmp156-Ltmp153
	.uleb128 Ltmp157-Lfunc_begin10
	.byte	0
	.uleb128 Ltmp158-Lfunc_begin10
	.uleb128 Ltmp159-Ltmp158
	.uleb128 Ltmp160-Lfunc_begin10
	.byte	0
	.uleb128 Ltmp137-Lfunc_begin10
	.uleb128 Ltmp138-Ltmp137
	.uleb128 Ltmp139-Lfunc_begin10
	.byte	0
	.uleb128 Ltmp138-Lfunc_begin10
	.uleb128 Lfunc_end10-Ltmp138
	.byte	0
	.byte	0
Lcst_end10:
	.p2align	2

	.section	__TEXT,__text,regular,pure_instructions
	.globl	__ZN7autocfg7AutoCfg19probe_rustc_version17h577fead98b656b4aE
	.p2align	4, 0x90
__ZN7autocfg7AutoCfg19probe_rustc_version17h577fead98b656b4aE:
	.cfi_startproc
	pushq	%rbp
	.cfi_def_cfa_offset 16
	.cfi_offset %rbp, -16
	movq	%rsp, %rbp
	.cfi_def_cfa_register %rbp
	xorl	%eax, %eax
	cmpq	%rsi, 48(%rdi)
	setne	%al
	movl	$255, %ecx
	cmovbl	%ecx, %eax
	testb	%al, %al
	jne	LBB66_3
	xorl	%eax, %eax
	cmpq	%rdx, 56(%rdi)
	setne	%al
	cmovbl	%ecx, %eax
	testb	%al, %al
	je	LBB66_2
LBB66_3:
	cmpb	$-1, %al
	setne	%al
	popq	%rbp
	retq
LBB66_2:
	cmpq	$0, 64(%rdi)
	setne	%al
	cmpb	$-1, %al
	setne	%al
	popq	%rbp
	retq
	.cfi_endproc

	.globl	__ZN7autocfg7AutoCfg18emit_rustc_version17h0453c8f549b08d87E
	.p2align	4, 0x90
__ZN7autocfg7AutoCfg18emit_rustc_version17h0453c8f549b08d87E:
Lfunc_begin11:
	.cfi_startproc
	.cfi_personality 155, _rust_eh_personality
	.cfi_lsda 16, Lexception11
	pushq	%rbp
	.cfi_def_cfa_offset 16
	.cfi_offset %rbp, -16
	movq	%rsp, %rbp
	.cfi_def_cfa_register %rbp
	pushq	%r14
	pushq	%rbx
	subq	$144, %rsp
	.cfi_offset %rbx, -32
	.cfi_offset %r14, -24
	movq	%rsi, -24(%rbp)
	movq	%rdx, -32(%rbp)
	xorl	%eax, %eax
	cmpq	%rsi, 48(%rdi)
	setne	%al
	movl	$255, %ecx
	cmovbl	%ecx, %eax
	testb	%al, %al
	jne	LBB67_2
	xorl	%eax, %eax
	cmpq	%rdx, 56(%rdi)
	setne	%al
	cmovbl	%ecx, %eax
	testb	%al, %al
	je	LBB67_3
LBB67_2:
	cmpb	$-1, %al
	je	LBB67_6
LBB67_3:
	leaq	-24(%rbp), %rax
	movq	%rax, -112(%rbp)
	movq	__ZN4core3fmt3num3imp54_$LT$impl$u20$core..fmt..Display$u20$for$u20$usize$GT$3fmt17h89ce3155a90f2edfE@GOTPCREL(%rip), %rax
	movq	%rax, -104(%rbp)
	leaq	-32(%rbp), %rcx
	movq	%rcx, -96(%rbp)
	movq	%rax, -88(%rbp)
	leaq	l___unnamed_49(%rip), %rax
	movq	%rax, -80(%rbp)
	movq	$2, -72(%rbp)
	movq	$0, -64(%rbp)
	leaq	-112(%rbp), %r14
	movq	%r14, -48(%rbp)
	movq	$2, -40(%rbp)
	leaq	-136(%rbp), %rdi
	leaq	-80(%rbp), %rsi
	callq	__ZN5alloc3fmt6format17hef4b691705b449e4E
	movq	-136(%rbp), %rbx
	movq	-120(%rbp), %rax
	movq	%rbx, -152(%rbp)
	movq	%rax, -144(%rbp)
	leaq	-152(%rbp), %rax
	movq	%rax, -112(%rbp)
	leaq	__ZN44_$LT$$RF$T$u20$as$u20$core..fmt..Display$GT$3fmt17hebc820d3180ae72dE(%rip), %rax
	movq	%rax, -104(%rbp)
	leaq	l___unnamed_34(%rip), %rax
	movq	%rax, -80(%rbp)
	movq	$2, -72(%rbp)
	movq	$0, -64(%rbp)
	movq	%r14, -48(%rbp)
	movq	$1, -40(%rbp)
Ltmp161:
	leaq	-80(%rbp), %rdi
	callq	__ZN3std2io5stdio6_print17hdea2154009b9e479E
Ltmp162:
	movq	-128(%rbp), %rsi
	testq	%rsi, %rsi
	je	LBB67_6
	movl	$1, %edx
	movq	%rbx, %rdi
	callq	___rust_dealloc
LBB67_6:
	addq	$144, %rsp
	popq	%rbx
	popq	%r14
	popq	%rbp
	retq
LBB67_7:
Ltmp163:
	movq	%rax, %rbx
	leaq	-136(%rbp), %rdi
	callq	__ZN4core3ptr13drop_in_place17h3da4fec5da26dce0E
	movq	%rbx, %rdi
	callq	__Unwind_Resume
	ud2
Lfunc_end11:
	.cfi_endproc
	.section	__TEXT,__gcc_except_tab
	.p2align	2
GCC_except_table67:
Lexception11:
	.byte	255
	.byte	255
	.byte	1
	.uleb128 Lcst_end11-Lcst_begin11
Lcst_begin11:
	.uleb128 Lfunc_begin11-Lfunc_begin11
	.uleb128 Ltmp161-Lfunc_begin11
	.byte	0
	.byte	0
	.uleb128 Ltmp161-Lfunc_begin11
	.uleb128 Ltmp162-Ltmp161
	.uleb128 Ltmp163-Lfunc_begin11
	.byte	0
	.uleb128 Ltmp162-Lfunc_begin11
	.uleb128 Lfunc_end11-Ltmp162
	.byte	0
	.byte	0
Lcst_end11:
	.p2align	2

	.section	__TEXT,__text,regular,pure_instructions
	.p2align	4, 0x90
__ZN7autocfg7AutoCfg5probe17h21a3170e4a113fe3E:
Lfunc_begin12:
	.cfi_startproc
	.cfi_personality 155, _rust_eh_personality
	.cfi_lsda 16, Lexception12
	pushq	%rbp
	.cfi_def_cfa_offset 16
	.cfi_offset %rbp, -16
	movq	%rsp, %rbp
	.cfi_def_cfa_register %rbp
	pushq	%r15
	pushq	%r14
	pushq	%r13
	pushq	%r12
	pushq	%rbx
	subq	$472, %rsp
	.cfi_offset %rbx, -56
	.cfi_offset %r12, -48
	.cfi_offset %r13, -40
	.cfi_offset %r14, -32
	.cfi_offset %r15, -24
	movq	%rdx, -120(%rbp)
	movq	%rsi, %r12
	movq	%rdi, %r15
	movl	$1, %eax
	lock		xaddq	%rax, __ZN7autocfg7AutoCfg5probe2ID17hc95c64e4c7d1bdeaE(%rip)
	movq	%rax, -320(%rbp)
	leaq	24(%rsi), %rdi
Ltmp164:
	callq	__ZN90_$LT$std..path..PathBuf$u20$as$u20$core..convert..AsRef$LT$std..ffi..os_str..OsStr$GT$$GT$6as_ref17haeabe10b3c5713c9E
Ltmp165:
Ltmp166:
	leaq	-304(%rbp), %rdi
	movq	%rax, %rsi
	callq	__ZN3std3sys4unix7process14process_common7Command3new17hcd746a384cbb0b47E
Ltmp167:
	vmovups	-152(%rbp), %ymm0
	vmovups	%ymm0, -360(%rbp)
	vmovups	-176(%rbp), %ymm0
	vmovups	%ymm0, -384(%rbp)
	vmovups	-304(%rbp), %ymm0
	vmovups	-272(%rbp), %ymm1
	vmovups	-240(%rbp), %ymm2
	vmovups	-208(%rbp), %ymm3
	vmovups	%ymm3, -416(%rbp)
	vmovups	%ymm2, -448(%rbp)
	vmovups	%ymm1, -480(%rbp)
	vmovups	%ymm0, -512(%rbp)
Ltmp168:
	leaq	l___unnamed_50(%rip), %rsi
	leaq	-512(%rbp), %rdi
	movl	$12, %edx
	vzeroupper
	callq	__ZN3std3sys4unix7process14process_common7Command3arg17hc476c471a9efd12bE
Ltmp169:
	leaq	-320(%rbp), %rax
	movq	%rax, -104(%rbp)
	movq	__ZN4core3fmt3num3imp54_$LT$impl$u20$core..fmt..Display$u20$for$u20$usize$GT$3fmt17h89ce3155a90f2edfE@GOTPCREL(%rip), %rax
	movq	%rax, -96(%rbp)
	leaq	l___unnamed_51(%rip), %rax
	movq	%rax, -304(%rbp)
	movq	$1, -296(%rbp)
	movq	$0, -288(%rbp)
	leaq	-104(%rbp), %rax
	movq	%rax, -312(%rbp)
	movq	%rax, -272(%rbp)
	movq	$1, -264(%rbp)
Ltmp170:
	leaq	-88(%rbp), %rdi
	leaq	-304(%rbp), %rsi
	callq	__ZN5alloc3fmt6format17hef4b691705b449e4E
Ltmp171:
	vmovups	-88(%rbp), %xmm0
	vmovaps	%xmm0, -304(%rbp)
	movq	-72(%rbp), %rdx
	movq	%rdx, -288(%rbp)
	movq	-304(%rbp), %rbx
Ltmp172:
	leaq	-512(%rbp), %rdi
	movq	%rbx, %rsi
	callq	__ZN3std3sys4unix7process14process_common7Command3arg17hc476c471a9efd12bE
Ltmp173:
	movq	-296(%rbp), %rsi
	testq	%rsi, %rsi
	je	LBB68_7
	movl	$1, %edx
	movq	%rbx, %rdi
	callq	___rust_dealloc
LBB68_7:
Ltmp175:
	leaq	L___unnamed_52(%rip), %rsi
	leaq	-512(%rbp), %rdi
	movl	$16, %edx
	callq	__ZN3std3sys4unix7process14process_common7Command3arg17hc476c471a9efd12bE
Ltmp176:
Ltmp177:
	leaq	l___unnamed_53(%rip), %rsi
	leaq	-512(%rbp), %rdi
	movl	$9, %edx
	callq	__ZN3std3sys4unix7process14process_common7Command3arg17hc476c471a9efd12bE
Ltmp178:
Ltmp179:
	movq	%r12, %rdi
	callq	__ZN90_$LT$std..path..PathBuf$u20$as$u20$core..convert..AsRef$LT$std..ffi..os_str..OsStr$GT$$GT$6as_ref17haeabe10b3c5713c9E
Ltmp180:
Ltmp181:
	leaq	-512(%rbp), %rdi
	movq	%rax, %rsi
	callq	__ZN3std3sys4unix7process14process_common7Command3arg17hc476c471a9efd12bE
Ltmp182:
Ltmp183:
	leaq	l___unnamed_54(%rip), %rsi
	leaq	-512(%rbp), %rdi
	movl	$14, %edx
	callq	__ZN3std3sys4unix7process14process_common7Command3arg17hc476c471a9efd12bE
Ltmp184:
	movq	96(%r12), %r14
	testq	%r14, %r14
	je	LBB68_18
	movq	112(%r12), %rax
	testq	%rax, %rax
	je	LBB68_18
	leaq	(%rax,%rax,2), %rax
	leaq	(%r14,%rax,8), %r13
	leaq	-512(%rbp), %rbx
	.p2align	4, 0x90
LBB68_15:
	movq	(%r14), %rdi
	movq	16(%r14), %rsi
Ltmp185:
	callq	__ZN95_$LT$std..ffi..os_str..OsStr$u20$as$u20$core..convert..AsRef$LT$std..ffi..os_str..OsStr$GT$$GT$6as_ref17h446c7b9305eed47bE
Ltmp186:
Ltmp187:
	movq	%rbx, %rdi
	movq	%rax, %rsi
	callq	__ZN3std3sys4unix7process14process_common7Command3arg17hc476c471a9efd12bE
Ltmp188:
	addq	$24, %r14
	cmpq	%r13, %r14
	jne	LBB68_15
LBB68_18:
	cmpq	$0, 72(%r12)
	movq	-120(%rbp), %rbx
	je	LBB68_21
Ltmp190:
	leaq	L___unnamed_55(%rip), %rsi
	leaq	-512(%rbp), %rdi
	movl	$8, %edx
	callq	__ZN3std3sys4unix7process14process_common7Command3arg17hc476c471a9efd12bE
Ltmp191:
	movq	72(%r12), %rsi
	movq	88(%r12), %rdx
Ltmp192:
	leaq	-512(%rbp), %rdi
	callq	__ZN3std3sys4unix7process14process_common7Command3arg17hc476c471a9efd12bE
Ltmp193:
LBB68_21:
Ltmp194:
	leaq	l___unnamed_56(%rip), %rsi
	leaq	-512(%rbp), %rdi
	movl	$1, %edx
	callq	__ZN3std3sys4unix7process14process_common7Command3arg17hc476c471a9efd12bE
Ltmp195:
Ltmp196:
	callq	__ZN3std7process5Stdio5piped17hd1af72b86ccf8a8eE
Ltmp197:
Ltmp198:
	leaq	-512(%rbp), %rdi
	movl	%eax, %esi
	callq	__ZN3std3sys4unix7process14process_common7Command5stdin17h7766ebac1f5b6d00E
Ltmp199:
Ltmp200:
	leaq	-304(%rbp), %rdi
	leaq	-512(%rbp), %rsi
	callq	__ZN3std7process7Command5spawn17hf2971800d3316042E
Ltmp201:
	cmpl	$1, -304(%rbp)
	jne	LBB68_27
	movb	-296(%rbp), %al
	movq	-288(%rbp), %rcx
	movl	-295(%rbp), %edx
	movl	%edx, -48(%rbp)
	movl	-292(%rbp), %edx
	movl	%edx, -45(%rbp)
	movb	$0, 8(%r15)
	movl	-104(%rbp), %edx
	movl	-101(%rbp), %esi
	movl	%edx, 9(%r15)
	movl	%esi, 12(%r15)
	movb	%al, 16(%r15)
	movl	-48(%rbp), %eax
	movl	-45(%rbp), %edx
	movl	%eax, 17(%r15)
	movl	%edx, 20(%r15)
	movq	%rcx, 24(%r15)
	movb	$1, (%r15)
	jmp	LBB68_44
LBB68_27:
	movl	-300(%rbp), %eax
	movb	-296(%rbp), %cl
	movl	-295(%rbp), %edx
	movl	%edx, -104(%rbp)
	movl	-292(%rbp), %edx
	movl	%edx, -101(%rbp)
	movb	-288(%rbp), %dl
	movl	-287(%rbp), %esi
	movl	%esi, -48(%rbp)
	movl	-284(%rbp), %esi
	movl	%esi, -45(%rbp)
	vmovups	-280(%rbp), %xmm0
	movl	%eax, -88(%rbp)
	movb	%cl, -84(%rbp)
	movl	-104(%rbp), %eax
	movl	-101(%rbp), %ecx
	movl	%eax, -83(%rbp)
	movl	%ecx, -80(%rbp)
	movb	%dl, -76(%rbp)
	movl	-48(%rbp), %eax
	movl	-45(%rbp), %ecx
	movl	%ecx, -72(%rbp)
	movl	%eax, -75(%rbp)
	vmovups	%xmm0, -68(%rbp)
	movq	-76(%rbp), %rcx
	movq	%rcx, %rax
	shrq	$32, %rax
	movq	$0, -76(%rbp)
	movl	%ecx, -304(%rbp)
	movl	%eax, -300(%rbp)
	testl	%ecx, %ecx
	je	LBB68_60
	leaq	-60(%rbp), %r13
	movl	%eax, -52(%rbp)
	cmpb	$0, 120(%r12)
	je	LBB68_31
Ltmp202:
	leaq	l___unnamed_57(%rip), %rdx
	leaq	-304(%rbp), %r12
	leaq	-52(%rbp), %rsi
	movl	$11, %ecx
	movq	%r12, %rdi
	callq	__ZN3std2io5Write9write_all17h5d69126ddde1fdddE
Ltmp203:
	movb	-304(%rbp), %al
	cmpb	$3, %al
	jne	LBB68_37
LBB68_31:
	movq	(%rbx), %r14
	movq	16(%rbx), %rcx
Ltmp204:
	leaq	-304(%rbp), %r12
	leaq	-52(%rbp), %rsi
	movq	%r12, %rdi
	movq	%r14, %rdx
	callq	__ZN3std2io5Write9write_all17h5d69126ddde1fdddE
Ltmp205:
	movb	-304(%rbp), %al
	cmpb	$3, %al
	jne	LBB68_37
	movl	-52(%rbp), %eax
	movl	%eax, -304(%rbp)
Ltmp209:
	leaq	-304(%rbp), %rdi
	callq	__ZN70_$LT$std..sys..unix..fd..FileDesc$u20$as$u20$core..ops..drop..Drop$GT$4drop17hf5fce2bf4d9f8deaE
Ltmp210:
Ltmp211:
	leaq	-304(%rbp), %rdi
	leaq	-88(%rbp), %rsi
	callq	__ZN3std7process5Child4wait17h81375565a41361c6E
Ltmp212:
	cmpl	$1, -304(%rbp)
	jne	LBB68_50
	movb	-296(%rbp), %al
	movq	-288(%rbp), %rcx
	movl	-295(%rbp), %edx
	movl	%edx, -48(%rbp)
	movl	-292(%rbp), %edx
	movl	%edx, -45(%rbp)
	movb	$0, 8(%r15)
	movl	-104(%rbp), %edx
	movl	-101(%rbp), %esi
	movl	%edx, 9(%r15)
	movl	%esi, 12(%r15)
	movb	%al, 16(%r15)
	movl	-48(%rbp), %eax
	movl	-45(%rbp), %edx
	movl	%eax, 17(%r15)
	movl	%edx, 20(%r15)
	movq	%rcx, 24(%r15)
	movb	$1, (%r15)
	cmpl	$0, -76(%rbp)
	jne	LBB68_39
	jmp	LBB68_40
LBB68_37:
	leaq	-48(%rbp), %rcx
	movq	8(%r12), %rdx
	movl	1(%r12), %esi
	movl	4(%r12), %edi
	movl	%edi, 3(%rcx)
	movl	%esi, (%rcx)
	movb	$0, 8(%r15)
	movq	-312(%rbp), %rdi
	movl	(%rdi), %esi
	movl	3(%rdi), %edi
	movl	%esi, 9(%r15)
	movl	%edi, 12(%r15)
	movb	%al, 16(%r15)
	movl	(%rcx), %eax
	movl	3(%rcx), %ecx
	movl	%eax, 17(%r15)
	movl	%ecx, 20(%r15)
	movq	%rdx, 24(%r15)
	movb	$1, (%r15)
Ltmp207:
	leaq	-52(%rbp), %rdi
	callq	__ZN70_$LT$std..sys..unix..fd..FileDesc$u20$as$u20$core..ops..drop..Drop$GT$4drop17hf5fce2bf4d9f8deaE
Ltmp208:
	cmpl	$0, -76(%rbp)
	je	LBB68_40
LBB68_39:
	leaq	-72(%rbp), %rdi
Ltmp230:
	callq	__ZN70_$LT$std..sys..unix..fd..FileDesc$u20$as$u20$core..ops..drop..Drop$GT$4drop17hf5fce2bf4d9f8deaE
Ltmp231:
LBB68_40:
	cmpl	$0, -68(%rbp)
	je	LBB68_42
	leaq	-64(%rbp), %rdi
Ltmp235:
	callq	__ZN70_$LT$std..sys..unix..fd..FileDesc$u20$as$u20$core..ops..drop..Drop$GT$4drop17hf5fce2bf4d9f8deaE
Ltmp236:
LBB68_42:
	cmpl	$0, -60(%rbp)
	je	LBB68_44
	leaq	-56(%rbp), %rdi
Ltmp240:
	callq	__ZN70_$LT$std..sys..unix..fd..FileDesc$u20$as$u20$core..ops..drop..Drop$GT$4drop17hf5fce2bf4d9f8deaE
Ltmp241:
LBB68_44:
Ltmp249:
	leaq	-512(%rbp), %rdi
	callq	__ZN4core3ptr13drop_in_place17hb826c33b131ef9a5E
Ltmp250:
	movq	(%rbx), %rdi
	testq	%rdi, %rdi
	je	LBB68_49
	movq	8(%rbx), %rsi
	testq	%rsi, %rsi
	je	LBB68_49
	movl	$1, %edx
LBB68_48:
	callq	___rust_dealloc
LBB68_49:
	addq	$472, %rsp
	popq	%rbx
	popq	%r12
	popq	%r13
	popq	%r14
	popq	%r15
	popq	%rbp
	retq
LBB68_50:
	movl	-300(%rbp), %eax
	movl	%eax, -108(%rbp)
Ltmp213:
	leaq	-108(%rbp), %rdi
	callq	__ZN3std7process10ExitStatus7success17h2b8b99214fbc7387E
Ltmp214:
	movb	%al, 1(%r15)
	movb	$0, (%r15)
	cmpl	$0, -76(%rbp)
	je	LBB68_53
	leaq	-72(%rbp), %rdi
Ltmp216:
	callq	__ZN70_$LT$std..sys..unix..fd..FileDesc$u20$as$u20$core..ops..drop..Drop$GT$4drop17hf5fce2bf4d9f8deaE
Ltmp217:
LBB68_53:
	cmpl	$0, -68(%rbp)
	je	LBB68_55
	leaq	-64(%rbp), %rdi
Ltmp221:
	callq	__ZN70_$LT$std..sys..unix..fd..FileDesc$u20$as$u20$core..ops..drop..Drop$GT$4drop17hf5fce2bf4d9f8deaE
Ltmp222:
LBB68_55:
	cmpl	$0, -60(%rbp)
	je	LBB68_57
	leaq	-56(%rbp), %rdi
Ltmp226:
	callq	__ZN70_$LT$std..sys..unix..fd..FileDesc$u20$as$u20$core..ops..drop..Drop$GT$4drop17hf5fce2bf4d9f8deaE
Ltmp227:
LBB68_57:
Ltmp228:
	leaq	-512(%rbp), %rdi
	callq	__ZN4core3ptr13drop_in_place17hb826c33b131ef9a5E
Ltmp229:
	movq	8(%rbx), %rsi
	testq	%rsi, %rsi
	je	LBB68_49
	movl	$1, %edx
	movq	%r14, %rdi
	jmp	LBB68_48
LBB68_60:
Ltmp243:
	leaq	l___unnamed_58(%rip), %rdi
	leaq	l___unnamed_59(%rip), %rdx
	movl	$11, %esi
	callq	__ZN4core6option13expect_failed17h68bd601d867bb8d1E
Ltmp244:
	ud2
LBB68_62:
Ltmp245:
	movq	%rax, %rbx
Ltmp246:
	leaq	-304(%rbp), %rdi
	callq	__ZN4core3ptr13drop_in_place17h1a026fa8f0b008e4E
Ltmp247:
	jmp	LBB68_72
LBB68_63:
Ltmp223:
	movq	%rax, %rbx
	jmp	LBB68_65
LBB68_64:
Ltmp218:
	movq	%rax, %rbx
Ltmp219:
	leaq	-68(%rbp), %rdi
	callq	__ZN4core3ptr13drop_in_place17h1a026fa8f0b008e4E
Ltmp220:
LBB68_65:
Ltmp224:
	movq	%r13, %rdi
	callq	__ZN4core3ptr13drop_in_place17h1a026fa8f0b008e4E
Ltmp225:
	jmp	LBB68_78
LBB68_66:
Ltmp237:
	movq	%rax, %rbx
	jmp	LBB68_68
LBB68_67:
Ltmp232:
	movq	%rax, %rbx
Ltmp233:
	leaq	-68(%rbp), %rdi
	callq	__ZN4core3ptr13drop_in_place17h1a026fa8f0b008e4E
Ltmp234:
LBB68_68:
Ltmp238:
	movq	%r13, %rdi
	callq	__ZN4core3ptr13drop_in_place17h1a026fa8f0b008e4E
Ltmp239:
	jmp	LBB68_78
LBB68_69:
Ltmp248:
	movq	%rax, %rbx
	jmp	LBB68_72
LBB68_70:
Ltmp215:
	movq	%rax, %rbx
	jmp	LBB68_72
LBB68_71:
Ltmp206:
	movq	%rax, %rbx
	leaq	-52(%rbp), %rdi
	callq	__ZN4core3ptr13drop_in_place17h9fe656a91ead3d52E
LBB68_72:
	leaq	-88(%rbp), %rdi
	callq	__ZN4core3ptr13drop_in_place17hf6ba34a99c7b45c0E
	jmp	LBB68_78
LBB68_73:
Ltmp174:
	movq	%rax, %rbx
	leaq	-304(%rbp), %rdi
	callq	__ZN4core3ptr13drop_in_place17h3da4fec5da26dce0E
	jmp	LBB68_78
LBB68_74:
Ltmp251:
	movq	%rax, %rbx
	jmp	LBB68_79
LBB68_75:
Ltmp242:
	jmp	LBB68_77
LBB68_76:
Ltmp189:
LBB68_77:
	movq	%rax, %rbx
LBB68_78:
	leaq	-512(%rbp), %rdi
	callq	__ZN4core3ptr13drop_in_place17hb826c33b131ef9a5E
LBB68_79:
	movq	-120(%rbp), %rdi
	callq	__ZN4core3ptr13drop_in_place17h3da4fec5da26dce0E
	movq	%rbx, %rdi
	callq	__Unwind_Resume
	ud2
Lfunc_end12:
	.cfi_endproc
	.section	__TEXT,__gcc_except_tab
	.p2align	2
GCC_except_table68:
Lexception12:
	.byte	255
	.byte	255
	.byte	1
	.uleb128 Lcst_end12-Lcst_begin12
Lcst_begin12:
	.uleb128 Ltmp164-Lfunc_begin12
	.uleb128 Ltmp167-Ltmp164
	.uleb128 Ltmp251-Lfunc_begin12
	.byte	0
	.uleb128 Ltmp168-Lfunc_begin12
	.uleb128 Ltmp171-Ltmp168
	.uleb128 Ltmp242-Lfunc_begin12
	.byte	0
	.uleb128 Ltmp172-Lfunc_begin12
	.uleb128 Ltmp173-Ltmp172
	.uleb128 Ltmp174-Lfunc_begin12
	.byte	0
	.uleb128 Ltmp175-Lfunc_begin12
	.uleb128 Ltmp184-Ltmp175
	.uleb128 Ltmp242-Lfunc_begin12
	.byte	0
	.uleb128 Ltmp185-Lfunc_begin12
	.uleb128 Ltmp188-Ltmp185
	.uleb128 Ltmp189-Lfunc_begin12
	.byte	0
	.uleb128 Ltmp190-Lfunc_begin12
	.uleb128 Ltmp201-Ltmp190
	.uleb128 Ltmp242-Lfunc_begin12
	.byte	0
	.uleb128 Ltmp202-Lfunc_begin12
	.uleb128 Ltmp205-Ltmp202
	.uleb128 Ltmp206-Lfunc_begin12
	.byte	0
	.uleb128 Ltmp209-Lfunc_begin12
	.uleb128 Ltmp212-Ltmp209
	.uleb128 Ltmp215-Lfunc_begin12
	.byte	0
	.uleb128 Ltmp207-Lfunc_begin12
	.uleb128 Ltmp208-Ltmp207
	.uleb128 Ltmp248-Lfunc_begin12
	.byte	0
	.uleb128 Ltmp230-Lfunc_begin12
	.uleb128 Ltmp231-Ltmp230
	.uleb128 Ltmp232-Lfunc_begin12
	.byte	0
	.uleb128 Ltmp235-Lfunc_begin12
	.uleb128 Ltmp236-Ltmp235
	.uleb128 Ltmp237-Lfunc_begin12
	.byte	0
	.uleb128 Ltmp240-Lfunc_begin12
	.uleb128 Ltmp241-Ltmp240
	.uleb128 Ltmp242-Lfunc_begin12
	.byte	0
	.uleb128 Ltmp249-Lfunc_begin12
	.uleb128 Ltmp250-Ltmp249
	.uleb128 Ltmp251-Lfunc_begin12
	.byte	0
	.uleb128 Ltmp213-Lfunc_begin12
	.uleb128 Ltmp214-Ltmp213
	.uleb128 Ltmp215-Lfunc_begin12
	.byte	0
	.uleb128 Ltmp216-Lfunc_begin12
	.uleb128 Ltmp217-Ltmp216
	.uleb128 Ltmp218-Lfunc_begin12
	.byte	0
	.uleb128 Ltmp221-Lfunc_begin12
	.uleb128 Ltmp222-Ltmp221
	.uleb128 Ltmp223-Lfunc_begin12
	.byte	0
	.uleb128 Ltmp226-Lfunc_begin12
	.uleb128 Ltmp227-Ltmp226
	.uleb128 Ltmp242-Lfunc_begin12
	.byte	0
	.uleb128 Ltmp228-Lfunc_begin12
	.uleb128 Ltmp229-Ltmp228
	.uleb128 Ltmp251-Lfunc_begin12
	.byte	0
	.uleb128 Ltmp243-Lfunc_begin12
	.uleb128 Ltmp244-Ltmp243
	.uleb128 Ltmp245-Lfunc_begin12
	.byte	0
	.uleb128 Ltmp246-Lfunc_begin12
	.uleb128 Ltmp247-Ltmp246
	.uleb128 Ltmp248-Lfunc_begin12
	.byte	0
	.uleb128 Ltmp219-Lfunc_begin12
	.uleb128 Ltmp239-Ltmp219
	.uleb128 Ltmp242-Lfunc_begin12
	.byte	0
	.uleb128 Ltmp239-Lfunc_begin12
	.uleb128 Lfunc_end12-Ltmp239
	.byte	0
	.byte	0
Lcst_end12:
	.p2align	2

	.section	__TEXT,__text,regular,pure_instructions
	.p2align	4, 0x90
__ZN7autocfg7AutoCfg5probe17ha88a39aca5c993f3E:
Lfunc_begin13:
	.cfi_startproc
	.cfi_personality 155, _rust_eh_personality
	.cfi_lsda 16, Lexception13
	pushq	%rbp
	.cfi_def_cfa_offset 16
	.cfi_offset %rbp, -16
	movq	%rsp, %rbp
	.cfi_def_cfa_register %rbp
	pushq	%r15
	pushq	%r14
	pushq	%r13
	pushq	%r12
	pushq	%rbx
	subq	$472, %rsp
	.cfi_offset %rbx, -56
	.cfi_offset %r12, -48
	.cfi_offset %r13, -40
	.cfi_offset %r14, -32
	.cfi_offset %r15, -24
	movq	%rsi, %r13
	movq	%rdi, %r14
	movl	$1, %eax
	lock		xaddq	%rax, __ZN7autocfg7AutoCfg5probe2ID17hc95c64e4c7d1bdeaE(%rip)
	movq	%rax, -320(%rbp)
	leaq	24(%rsi), %rdi
Ltmp252:
	callq	__ZN90_$LT$std..path..PathBuf$u20$as$u20$core..convert..AsRef$LT$std..ffi..os_str..OsStr$GT$$GT$6as_ref17haeabe10b3c5713c9E
Ltmp253:
Ltmp254:
	leaq	-304(%rbp), %rdi
	movq	%rax, %rsi
	callq	__ZN3std3sys4unix7process14process_common7Command3new17hcd746a384cbb0b47E
Ltmp255:
	vmovups	-152(%rbp), %ymm0
	vmovups	%ymm0, -360(%rbp)
	vmovups	-176(%rbp), %ymm0
	vmovups	%ymm0, -384(%rbp)
	vmovups	-304(%rbp), %ymm0
	vmovups	-272(%rbp), %ymm1
	vmovups	-240(%rbp), %ymm2
	vmovups	-208(%rbp), %ymm3
	vmovups	%ymm3, -416(%rbp)
	vmovups	%ymm2, -448(%rbp)
	vmovups	%ymm1, -480(%rbp)
	vmovups	%ymm0, -512(%rbp)
Ltmp256:
	leaq	l___unnamed_50(%rip), %rsi
	leaq	-512(%rbp), %rdi
	movl	$12, %edx
	vzeroupper
	callq	__ZN3std3sys4unix7process14process_common7Command3arg17hc476c471a9efd12bE
Ltmp257:
	leaq	-320(%rbp), %rax
	movq	%rax, -104(%rbp)
	movq	__ZN4core3fmt3num3imp54_$LT$impl$u20$core..fmt..Display$u20$for$u20$usize$GT$3fmt17h89ce3155a90f2edfE@GOTPCREL(%rip), %rax
	movq	%rax, -96(%rbp)
	leaq	l___unnamed_51(%rip), %rax
	movq	%rax, -304(%rbp)
	movq	$1, -296(%rbp)
	movq	$0, -288(%rbp)
	leaq	-104(%rbp), %rax
	movq	%rax, -312(%rbp)
	movq	%rax, -272(%rbp)
	movq	$1, -264(%rbp)
Ltmp258:
	leaq	-88(%rbp), %rdi
	leaq	-304(%rbp), %rsi
	callq	__ZN5alloc3fmt6format17hef4b691705b449e4E
Ltmp259:
	vmovups	-88(%rbp), %xmm0
	vmovaps	%xmm0, -304(%rbp)
	movq	-72(%rbp), %rdx
	movq	%rdx, -288(%rbp)
	movq	-304(%rbp), %rbx
Ltmp260:
	leaq	-512(%rbp), %rdi
	movq	%rbx, %rsi
	callq	__ZN3std3sys4unix7process14process_common7Command3arg17hc476c471a9efd12bE
Ltmp261:
	movq	-296(%rbp), %rsi
	testq	%rsi, %rsi
	je	LBB69_7
	movl	$1, %edx
	movq	%rbx, %rdi
	callq	___rust_dealloc
LBB69_7:
Ltmp263:
	leaq	L___unnamed_52(%rip), %rsi
	leaq	-512(%rbp), %rdi
	movl	$16, %edx
	callq	__ZN3std3sys4unix7process14process_common7Command3arg17hc476c471a9efd12bE
Ltmp264:
Ltmp265:
	leaq	l___unnamed_53(%rip), %rsi
	leaq	-512(%rbp), %rdi
	movl	$9, %edx
	callq	__ZN3std3sys4unix7process14process_common7Command3arg17hc476c471a9efd12bE
Ltmp266:
Ltmp267:
	movq	%r13, %rdi
	callq	__ZN90_$LT$std..path..PathBuf$u20$as$u20$core..convert..AsRef$LT$std..ffi..os_str..OsStr$GT$$GT$6as_ref17haeabe10b3c5713c9E
Ltmp268:
Ltmp269:
	leaq	-512(%rbp), %rdi
	movq	%rax, %rsi
	callq	__ZN3std3sys4unix7process14process_common7Command3arg17hc476c471a9efd12bE
Ltmp270:
Ltmp271:
	leaq	l___unnamed_54(%rip), %rsi
	leaq	-512(%rbp), %rdi
	movl	$14, %edx
	callq	__ZN3std3sys4unix7process14process_common7Command3arg17hc476c471a9efd12bE
Ltmp272:
	movq	96(%r13), %rbx
	testq	%rbx, %rbx
	je	LBB69_18
	movq	112(%r13), %rax
	testq	%rax, %rax
	je	LBB69_18
	leaq	(%rax,%rax,2), %rax
	leaq	(%rbx,%rax,8), %r15
	leaq	-512(%rbp), %r12
	.p2align	4, 0x90
LBB69_15:
	movq	(%rbx), %rdi
	movq	16(%rbx), %rsi
Ltmp273:
	callq	__ZN95_$LT$std..ffi..os_str..OsStr$u20$as$u20$core..convert..AsRef$LT$std..ffi..os_str..OsStr$GT$$GT$6as_ref17h446c7b9305eed47bE
Ltmp274:
Ltmp275:
	movq	%r12, %rdi
	movq	%rax, %rsi
	callq	__ZN3std3sys4unix7process14process_common7Command3arg17hc476c471a9efd12bE
Ltmp276:
	addq	$24, %rbx
	cmpq	%r15, %rbx
	jne	LBB69_15
LBB69_18:
	cmpq	$0, 72(%r13)
	je	LBB69_21
Ltmp278:
	leaq	L___unnamed_55(%rip), %rsi
	leaq	-512(%rbp), %rdi
	movl	$8, %edx
	callq	__ZN3std3sys4unix7process14process_common7Command3arg17hc476c471a9efd12bE
Ltmp279:
	movq	72(%r13), %rsi
	movq	88(%r13), %rdx
Ltmp280:
	leaq	-512(%rbp), %rdi
	callq	__ZN3std3sys4unix7process14process_common7Command3arg17hc476c471a9efd12bE
Ltmp281:
LBB69_21:
Ltmp282:
	leaq	l___unnamed_56(%rip), %rsi
	leaq	-512(%rbp), %rdi
	movl	$1, %edx
	callq	__ZN3std3sys4unix7process14process_common7Command3arg17hc476c471a9efd12bE
Ltmp283:
Ltmp284:
	callq	__ZN3std7process5Stdio5piped17hd1af72b86ccf8a8eE
Ltmp285:
Ltmp286:
	leaq	-512(%rbp), %rdi
	movl	%eax, %esi
	callq	__ZN3std3sys4unix7process14process_common7Command5stdin17h7766ebac1f5b6d00E
Ltmp287:
Ltmp288:
	leaq	-304(%rbp), %rdi
	leaq	-512(%rbp), %rsi
	callq	__ZN3std7process7Command5spawn17hf2971800d3316042E
Ltmp289:
	cmpl	$1, -304(%rbp)
	jne	LBB69_27
	movb	-296(%rbp), %al
	movq	-288(%rbp), %rcx
	movl	-295(%rbp), %edx
	movl	%edx, -48(%rbp)
	movl	-292(%rbp), %edx
	movl	%edx, -45(%rbp)
	movb	$0, 8(%r14)
	movl	-104(%rbp), %edx
	movl	-101(%rbp), %esi
	movl	%edx, 9(%r14)
	movl	%esi, 12(%r14)
	movb	%al, 16(%r14)
	movl	-48(%rbp), %eax
	movl	-45(%rbp), %edx
	movl	%eax, 17(%r14)
	movl	%edx, 20(%r14)
	movq	%rcx, 24(%r14)
	movb	$1, (%r14)
	jmp	LBB69_44
LBB69_27:
	movl	-300(%rbp), %eax
	movb	-296(%rbp), %cl
	movl	-295(%rbp), %edx
	movl	%edx, -104(%rbp)
	movl	-292(%rbp), %edx
	movl	%edx, -101(%rbp)
	movb	-288(%rbp), %dl
	movl	-287(%rbp), %esi
	movl	%esi, -48(%rbp)
	movl	-284(%rbp), %esi
	movl	%esi, -45(%rbp)
	vmovups	-280(%rbp), %xmm0
	movl	%eax, -88(%rbp)
	movb	%cl, -84(%rbp)
	movl	-104(%rbp), %eax
	movl	-101(%rbp), %ecx
	movl	%eax, -83(%rbp)
	movl	%ecx, -80(%rbp)
	movb	%dl, -76(%rbp)
	movl	-48(%rbp), %eax
	movl	-45(%rbp), %ecx
	movl	%ecx, -72(%rbp)
	movl	%eax, -75(%rbp)
	vmovups	%xmm0, -68(%rbp)
	movq	-76(%rbp), %rcx
	movq	%rcx, %rax
	shrq	$32, %rax
	movq	$0, -76(%rbp)
	movl	%ecx, -304(%rbp)
	movl	%eax, -300(%rbp)
	testl	%ecx, %ecx
	je	LBB69_54
	leaq	-68(%rbp), %r12
	leaq	-60(%rbp), %r15
	movl	%eax, -52(%rbp)
	cmpb	$0, 120(%r13)
	je	LBB69_31
Ltmp290:
	leaq	l___unnamed_57(%rip), %rdx
	leaq	-304(%rbp), %rbx
	leaq	-52(%rbp), %rsi
	movl	$11, %ecx
	movq	%rbx, %rdi
	callq	__ZN3std2io5Write9write_all17h5d69126ddde1fdddE
Ltmp291:
	movb	-304(%rbp), %al
	cmpb	$3, %al
	jne	LBB69_37
LBB69_31:
Ltmp292:
	leaq	l___unnamed_60(%rip), %rdx
	leaq	-304(%rbp), %rbx
	leaq	-52(%rbp), %rsi
	movq	%rbx, %rdi
	xorl	%ecx, %ecx
	callq	__ZN3std2io5Write9write_all17h5d69126ddde1fdddE
Ltmp293:
	movb	-304(%rbp), %al
	cmpb	$3, %al
	jne	LBB69_37
	movl	-52(%rbp), %eax
	movl	%eax, -304(%rbp)
Ltmp297:
	leaq	-304(%rbp), %rdi
	callq	__ZN70_$LT$std..sys..unix..fd..FileDesc$u20$as$u20$core..ops..drop..Drop$GT$4drop17hf5fce2bf4d9f8deaE
Ltmp298:
Ltmp299:
	leaq	-304(%rbp), %rdi
	leaq	-88(%rbp), %rsi
	callq	__ZN3std7process5Child4wait17h81375565a41361c6E
Ltmp300:
	cmpl	$1, -304(%rbp)
	jne	LBB69_46
	movb	-296(%rbp), %al
	movq	-288(%rbp), %rcx
	movl	-295(%rbp), %edx
	movl	%edx, -48(%rbp)
	movl	-292(%rbp), %edx
	movl	%edx, -45(%rbp)
	movb	$0, 8(%r14)
	movl	-104(%rbp), %edx
	movl	-101(%rbp), %esi
	movl	%edx, 9(%r14)
	movl	%esi, 12(%r14)
	movb	%al, 16(%r14)
	movl	-48(%rbp), %eax
	movl	-45(%rbp), %edx
	movl	%eax, 17(%r14)
	movl	%edx, 20(%r14)
	movq	%rcx, 24(%r14)
	movb	$1, (%r14)
	cmpl	$0, -76(%rbp)
	jne	LBB69_39
	jmp	LBB69_40
LBB69_37:
	leaq	-48(%rbp), %rcx
	movq	8(%rbx), %rdx
	movl	1(%rbx), %esi
	movl	4(%rbx), %edi
	movl	%edi, 3(%rcx)
	movl	%esi, (%rcx)
	movb	$0, 8(%r14)
	movq	-312(%rbp), %rdi
	movl	(%rdi), %esi
	movl	3(%rdi), %edi
	movl	%esi, 9(%r14)
	movl	%edi, 12(%r14)
	movb	%al, 16(%r14)
	movl	(%rcx), %eax
	movl	3(%rcx), %ecx
	movl	%eax, 17(%r14)
	movl	%ecx, 20(%r14)
	movq	%rdx, 24(%r14)
	movb	$1, (%r14)
Ltmp295:
	leaq	-52(%rbp), %rdi
	callq	__ZN70_$LT$std..sys..unix..fd..FileDesc$u20$as$u20$core..ops..drop..Drop$GT$4drop17hf5fce2bf4d9f8deaE
Ltmp296:
	cmpl	$0, -76(%rbp)
	je	LBB69_40
LBB69_39:
	leaq	-72(%rbp), %rdi
Ltmp318:
	callq	__ZN70_$LT$std..sys..unix..fd..FileDesc$u20$as$u20$core..ops..drop..Drop$GT$4drop17hf5fce2bf4d9f8deaE
Ltmp319:
LBB69_40:
	cmpl	$0, -68(%rbp)
	je	LBB69_42
	leaq	-64(%rbp), %rdi
Ltmp323:
	callq	__ZN70_$LT$std..sys..unix..fd..FileDesc$u20$as$u20$core..ops..drop..Drop$GT$4drop17hf5fce2bf4d9f8deaE
Ltmp324:
LBB69_42:
	cmpl	$0, -60(%rbp)
	je	LBB69_44
	leaq	-56(%rbp), %rdi
Ltmp328:
	callq	__ZN70_$LT$std..sys..unix..fd..FileDesc$u20$as$u20$core..ops..drop..Drop$GT$4drop17hf5fce2bf4d9f8deaE
Ltmp329:
LBB69_44:
Ltmp337:
	leaq	-512(%rbp), %rdi
	callq	__ZN4core3ptr13drop_in_place17hb826c33b131ef9a5E
Ltmp338:
LBB69_45:
	addq	$472, %rsp
	popq	%rbx
	popq	%r12
	popq	%r13
	popq	%r14
	popq	%r15
	popq	%rbp
	retq
LBB69_46:
	movl	-300(%rbp), %eax
	movl	%eax, -108(%rbp)
Ltmp301:
	leaq	-108(%rbp), %rdi
	callq	__ZN3std7process10ExitStatus7success17h2b8b99214fbc7387E
Ltmp302:
	movb	%al, 1(%r14)
	movb	$0, (%r14)
	cmpl	$0, -76(%rbp)
	je	LBB69_49
	leaq	-72(%rbp), %rdi
Ltmp304:
	callq	__ZN70_$LT$std..sys..unix..fd..FileDesc$u20$as$u20$core..ops..drop..Drop$GT$4drop17hf5fce2bf4d9f8deaE
Ltmp305:
LBB69_49:
	cmpl	$0, -68(%rbp)
	je	LBB69_51
	leaq	-64(%rbp), %rdi
Ltmp309:
	callq	__ZN70_$LT$std..sys..unix..fd..FileDesc$u20$as$u20$core..ops..drop..Drop$GT$4drop17hf5fce2bf4d9f8deaE
Ltmp310:
LBB69_51:
	cmpl	$0, -60(%rbp)
	je	LBB69_53
	leaq	-56(%rbp), %rdi
Ltmp314:
	callq	__ZN70_$LT$std..sys..unix..fd..FileDesc$u20$as$u20$core..ops..drop..Drop$GT$4drop17hf5fce2bf4d9f8deaE
Ltmp315:
LBB69_53:
Ltmp316:
	leaq	-512(%rbp), %rdi
	callq	__ZN4core3ptr13drop_in_place17hb826c33b131ef9a5E
Ltmp317:
	jmp	LBB69_45
LBB69_54:
Ltmp331:
	leaq	l___unnamed_58(%rip), %rdi
	leaq	l___unnamed_59(%rip), %rdx
	movl	$11, %esi
	callq	__ZN4core6option13expect_failed17h68bd601d867bb8d1E
Ltmp332:
	ud2
LBB69_56:
Ltmp333:
	movq	%rax, %rbx
Ltmp334:
	leaq	-304(%rbp), %rdi
	callq	__ZN4core3ptr13drop_in_place17h1a026fa8f0b008e4E
Ltmp335:
	jmp	LBB69_66
LBB69_57:
Ltmp311:
	movq	%rax, %rbx
	jmp	LBB69_59
LBB69_58:
Ltmp306:
	movq	%rax, %rbx
Ltmp307:
	movq	%r12, %rdi
	callq	__ZN4core3ptr13drop_in_place17h1a026fa8f0b008e4E
Ltmp308:
LBB69_59:
Ltmp312:
	movq	%r15, %rdi
	callq	__ZN4core3ptr13drop_in_place17h1a026fa8f0b008e4E
Ltmp313:
	jmp	LBB69_72
LBB69_60:
Ltmp325:
	movq	%rax, %rbx
	jmp	LBB69_62
LBB69_61:
Ltmp320:
	movq	%rax, %rbx
Ltmp321:
	movq	%r12, %rdi
	callq	__ZN4core3ptr13drop_in_place17h1a026fa8f0b008e4E
Ltmp322:
LBB69_62:
Ltmp326:
	movq	%r15, %rdi
	callq	__ZN4core3ptr13drop_in_place17h1a026fa8f0b008e4E
Ltmp327:
	jmp	LBB69_72
LBB69_63:
Ltmp336:
	movq	%rax, %rbx
	jmp	LBB69_66
LBB69_64:
Ltmp303:
	movq	%rax, %rbx
	jmp	LBB69_66
LBB69_65:
Ltmp294:
	movq	%rax, %rbx
	leaq	-52(%rbp), %rdi
	callq	__ZN4core3ptr13drop_in_place17h9fe656a91ead3d52E
LBB69_66:
	leaq	-88(%rbp), %rdi
	callq	__ZN4core3ptr13drop_in_place17hf6ba34a99c7b45c0E
	jmp	LBB69_72
LBB69_67:
Ltmp262:
	movq	%rax, %rbx
	leaq	-304(%rbp), %rdi
	callq	__ZN4core3ptr13drop_in_place17h3da4fec5da26dce0E
	jmp	LBB69_72
LBB69_68:
Ltmp339:
	movq	%rax, %rbx
	movq	%rbx, %rdi
	callq	__Unwind_Resume
	ud2
LBB69_69:
Ltmp330:
	jmp	LBB69_71
LBB69_70:
Ltmp277:
LBB69_71:
	movq	%rax, %rbx
LBB69_72:
	leaq	-512(%rbp), %rdi
	callq	__ZN4core3ptr13drop_in_place17hb826c33b131ef9a5E
	movq	%rbx, %rdi
	callq	__Unwind_Resume
	ud2
Lfunc_end13:
	.cfi_endproc
	.section	__TEXT,__gcc_except_tab
	.p2align	2
GCC_except_table69:
Lexception13:
	.byte	255
	.byte	255
	.byte	1
	.uleb128 Lcst_end13-Lcst_begin13
Lcst_begin13:
	.uleb128 Ltmp252-Lfunc_begin13
	.uleb128 Ltmp255-Ltmp252
	.uleb128 Ltmp339-Lfunc_begin13
	.byte	0
	.uleb128 Ltmp256-Lfunc_begin13
	.uleb128 Ltmp259-Ltmp256
	.uleb128 Ltmp330-Lfunc_begin13
	.byte	0
	.uleb128 Ltmp260-Lfunc_begin13
	.uleb128 Ltmp261-Ltmp260
	.uleb128 Ltmp262-Lfunc_begin13
	.byte	0
	.uleb128 Ltmp263-Lfunc_begin13
	.uleb128 Ltmp272-Ltmp263
	.uleb128 Ltmp330-Lfunc_begin13
	.byte	0
	.uleb128 Ltmp273-Lfunc_begin13
	.uleb128 Ltmp276-Ltmp273
	.uleb128 Ltmp277-Lfunc_begin13
	.byte	0
	.uleb128 Ltmp278-Lfunc_begin13
	.uleb128 Ltmp289-Ltmp278
	.uleb128 Ltmp330-Lfunc_begin13
	.byte	0
	.uleb128 Ltmp290-Lfunc_begin13
	.uleb128 Ltmp293-Ltmp290
	.uleb128 Ltmp294-Lfunc_begin13
	.byte	0
	.uleb128 Ltmp297-Lfunc_begin13
	.uleb128 Ltmp300-Ltmp297
	.uleb128 Ltmp303-Lfunc_begin13
	.byte	0
	.uleb128 Ltmp295-Lfunc_begin13
	.uleb128 Ltmp296-Ltmp295
	.uleb128 Ltmp336-Lfunc_begin13
	.byte	0
	.uleb128 Ltmp318-Lfunc_begin13
	.uleb128 Ltmp319-Ltmp318
	.uleb128 Ltmp320-Lfunc_begin13
	.byte	0
	.uleb128 Ltmp323-Lfunc_begin13
	.uleb128 Ltmp324-Ltmp323
	.uleb128 Ltmp325-Lfunc_begin13
	.byte	0
	.uleb128 Ltmp328-Lfunc_begin13
	.uleb128 Ltmp329-Ltmp328
	.uleb128 Ltmp330-Lfunc_begin13
	.byte	0
	.uleb128 Ltmp337-Lfunc_begin13
	.uleb128 Ltmp338-Ltmp337
	.uleb128 Ltmp339-Lfunc_begin13
	.byte	0
	.uleb128 Ltmp301-Lfunc_begin13
	.uleb128 Ltmp302-Ltmp301
	.uleb128 Ltmp303-Lfunc_begin13
	.byte	0
	.uleb128 Ltmp304-Lfunc_begin13
	.uleb128 Ltmp305-Ltmp304
	.uleb128 Ltmp306-Lfunc_begin13
	.byte	0
	.uleb128 Ltmp309-Lfunc_begin13
	.uleb128 Ltmp310-Ltmp309
	.uleb128 Ltmp311-Lfunc_begin13
	.byte	0
	.uleb128 Ltmp314-Lfunc_begin13
	.uleb128 Ltmp315-Ltmp314
	.uleb128 Ltmp330-Lfunc_begin13
	.byte	0
	.uleb128 Ltmp316-Lfunc_begin13
	.uleb128 Ltmp317-Ltmp316
	.uleb128 Ltmp339-Lfunc_begin13
	.byte	0
	.uleb128 Ltmp331-Lfunc_begin13
	.uleb128 Ltmp332-Ltmp331
	.uleb128 Ltmp333-Lfunc_begin13
	.byte	0
	.uleb128 Ltmp334-Lfunc_begin13
	.uleb128 Ltmp335-Ltmp334
	.uleb128 Ltmp336-Lfunc_begin13
	.byte	0
	.uleb128 Ltmp307-Lfunc_begin13
	.uleb128 Ltmp327-Ltmp307
	.uleb128 Ltmp330-Lfunc_begin13
	.byte	0
	.uleb128 Ltmp327-Lfunc_begin13
	.uleb128 Lfunc_end13-Ltmp327
	.byte	0
	.byte	0
Lcst_end13:
	.p2align	2

	.section	__TEXT,__text,regular,pure_instructions
	.globl	__ZN7autocfg7AutoCfg19probe_sysroot_crate17h83b2579c47f72040E
	.p2align	4, 0x90
__ZN7autocfg7AutoCfg19probe_sysroot_crate17h83b2579c47f72040E:
Lfunc_begin14:
	.cfi_startproc
	.cfi_personality 155, _rust_eh_personality
	.cfi_lsda 16, Lexception14
	pushq	%rbp
	.cfi_def_cfa_offset 16
	.cfi_offset %rbp, -16
	movq	%rsp, %rbp
	.cfi_def_cfa_register %rbp
	pushq	%r15
	pushq	%r14
	pushq	%rbx
	subq	$104, %rsp
	.cfi_offset %rbx, -40
	.cfi_offset %r14, -32
	.cfi_offset %r15, -24
	movq	%rdi, %r14
	movq	%rsi, -88(%rbp)
	movq	%rdx, -80(%rbp)
	leaq	-88(%rbp), %rax
	movq	%rax, -104(%rbp)
	leaq	__ZN44_$LT$$RF$T$u20$as$u20$core..fmt..Display$GT$3fmt17hebc820d3180ae72dE(%rip), %rax
	movq	%rax, -96(%rbp)
	leaq	l___unnamed_61(%rip), %rax
	movq	%rax, -72(%rbp)
	movq	$2, -64(%rbp)
	movq	$0, -56(%rbp)
	leaq	-104(%rbp), %rax
	movq	%rax, -40(%rbp)
	movq	$1, -32(%rbp)
	leaq	-128(%rbp), %rbx
	leaq	-72(%rbp), %rsi
	movq	%rbx, %rdi
	callq	__ZN5alloc3fmt6format17hef4b691705b449e4E
	leaq	-72(%rbp), %rdi
	movq	%r14, %rsi
	movq	%rbx, %rdx
	callq	__ZN7autocfg7AutoCfg5probe17h21a3170e4a113fe3E
	movb	-72(%rbp), %al
	cmpb	$1, %al
	setne	%bl
	cmpb	$0, -71(%rbp)
	setne	%r15b
	testb	%al, %al
	je	LBB70_7
	cmpb	$0, -64(%rbp)
	jne	LBB70_7
	cmpb	$2, -56(%rbp)
	jb	LBB70_7
	movq	-48(%rbp), %r14
	movq	(%r14), %rdi
	movq	8(%r14), %rax
Ltmp340:
	callq	*(%rax)
Ltmp341:
	movq	8(%r14), %rax
	movq	8(%rax), %rsi
	testq	%rsi, %rsi
	je	LBB70_6
	movq	(%r14), %rdi
	movq	16(%rax), %rdx
	callq	___rust_dealloc
LBB70_6:
	movl	$24, %esi
	movl	$8, %edx
	movq	%r14, %rdi
	callq	___rust_dealloc
LBB70_7:
	andb	%r15b, %bl
	movl	%ebx, %eax
	addq	$104, %rsp
	popq	%rbx
	popq	%r14
	popq	%r15
	popq	%rbp
	retq
LBB70_8:
Ltmp342:
	movq	%rax, %rbx
	movq	(%r14), %rdi
	movq	8(%r14), %rsi
	callq	__ZN5alloc5alloc8box_free17h60ba51d8addc7fdeE
	movq	%r14, %rdi
	callq	__ZN5alloc5alloc8box_free17h4c7dac560e6bb77aE
	movq	%rbx, %rdi
	callq	__Unwind_Resume
	ud2
Lfunc_end14:
	.cfi_endproc
	.section	__TEXT,__gcc_except_tab
	.p2align	2
GCC_except_table70:
Lexception14:
	.byte	255
	.byte	255
	.byte	1
	.uleb128 Lcst_end14-Lcst_begin14
Lcst_begin14:
	.uleb128 Lfunc_begin14-Lfunc_begin14
	.uleb128 Ltmp340-Lfunc_begin14
	.byte	0
	.byte	0
	.uleb128 Ltmp340-Lfunc_begin14
	.uleb128 Ltmp341-Ltmp340
	.uleb128 Ltmp342-Lfunc_begin14
	.byte	0
	.uleb128 Ltmp341-Lfunc_begin14
	.uleb128 Lfunc_end14-Ltmp341
	.byte	0
	.byte	0
Lcst_end14:
	.p2align	2

	.section	__TEXT,__text,regular,pure_instructions
	.globl	__ZN7autocfg7AutoCfg18emit_sysroot_crate17hcf5414efea1f260bE
	.p2align	4, 0x90
__ZN7autocfg7AutoCfg18emit_sysroot_crate17hcf5414efea1f260bE:
Lfunc_begin15:
	.cfi_startproc
	.cfi_personality 155, _rust_eh_personality
	.cfi_lsda 16, Lexception15
	pushq	%rbp
	.cfi_def_cfa_offset 16
	.cfi_offset %rbp, -16
	movq	%rsp, %rbp
	.cfi_def_cfa_register %rbp
	pushq	%r15
	pushq	%r14
	pushq	%r12
	pushq	%rbx
	subq	$128, %rsp
	.cfi_offset %rbx, -48
	.cfi_offset %r12, -40
	.cfi_offset %r14, -32
	.cfi_offset %r15, -24
	movq	%rdx, %r14
	movq	%rsi, %rbx
	callq	__ZN7autocfg7AutoCfg19probe_sysroot_crate17h83b2579c47f72040E
	testb	%al, %al
	je	LBB71_8
	leaq	-80(%rbp), %r15
	movq	%r15, %rdi
	movq	%rbx, %rsi
	movq	%r14, %rdx
	callq	__ZN7autocfg6mangle17h08245580bb23c2e8E
	movq	%r15, -48(%rbp)
	leaq	__ZN60_$LT$alloc..string..String$u20$as$u20$core..fmt..Display$GT$3fmt17h4c6fc2b9ff0414a4E(%rip), %rax
	movq	%rax, -40(%rbp)
	leaq	l___unnamed_62(%rip), %rax
	movq	%rax, -128(%rbp)
	movq	$1, -120(%rbp)
	movq	$0, -112(%rbp)
	leaq	-48(%rbp), %r12
	movq	%r12, -96(%rbp)
	movq	$1, -88(%rbp)
Ltmp343:
	leaq	-152(%rbp), %r14
	leaq	-128(%rbp), %rsi
	movq	%r14, %rdi
	callq	__ZN5alloc3fmt6format17hef4b691705b449e4E
Ltmp344:
	movq	-80(%rbp), %rdi
	testq	%rdi, %rdi
	je	LBB71_5
	movq	-72(%rbp), %rsi
	testq	%rsi, %rsi
	je	LBB71_5
	movl	$1, %edx
	callq	___rust_dealloc
LBB71_5:
	vmovups	-152(%rbp), %xmm0
	vmovaps	%xmm0, -80(%rbp)
	movq	-136(%rbp), %rax
	movq	%rax, -64(%rbp)
	movq	-80(%rbp), %rbx
	movq	%rbx, -48(%rbp)
	movq	%rax, -40(%rbp)
	movq	%r12, -152(%rbp)
	leaq	__ZN44_$LT$$RF$T$u20$as$u20$core..fmt..Display$GT$3fmt17hebc820d3180ae72dE(%rip), %rax
	movq	%rax, -144(%rbp)
	leaq	l___unnamed_34(%rip), %rax
	movq	%rax, -128(%rbp)
	movq	$2, -120(%rbp)
	movq	$0, -112(%rbp)
	movq	%r14, -96(%rbp)
	movq	$1, -88(%rbp)
Ltmp346:
	leaq	-128(%rbp), %rdi
	callq	__ZN3std2io5stdio6_print17hdea2154009b9e479E
Ltmp347:
	movq	-72(%rbp), %rsi
	testq	%rsi, %rsi
	je	LBB71_8
	movl	$1, %edx
	movq	%rbx, %rdi
	callq	___rust_dealloc
LBB71_8:
	addq	$128, %rsp
	popq	%rbx
	popq	%r12
	popq	%r14
	popq	%r15
	popq	%rbp
	retq
LBB71_11:
Ltmp348:
	jmp	LBB71_10
LBB71_9:
Ltmp345:
LBB71_10:
	movq	%rax, %rbx
	movq	%r15, %rdi
	callq	__ZN4core3ptr13drop_in_place17h3da4fec5da26dce0E
	movq	%rbx, %rdi
	callq	__Unwind_Resume
	ud2
Lfunc_end15:
	.cfi_endproc
	.section	__TEXT,__gcc_except_tab
	.p2align	2
GCC_except_table71:
Lexception15:
	.byte	255
	.byte	255
	.byte	1
	.uleb128 Lcst_end15-Lcst_begin15
Lcst_begin15:
	.uleb128 Lfunc_begin15-Lfunc_begin15
	.uleb128 Ltmp343-Lfunc_begin15
	.byte	0
	.byte	0
	.uleb128 Ltmp343-Lfunc_begin15
	.uleb128 Ltmp344-Ltmp343
	.uleb128 Ltmp345-Lfunc_begin15
	.byte	0
	.uleb128 Ltmp346-Lfunc_begin15
	.uleb128 Ltmp347-Ltmp346
	.uleb128 Ltmp348-Lfunc_begin15
	.byte	0
	.uleb128 Ltmp347-Lfunc_begin15
	.uleb128 Lfunc_end15-Ltmp347
	.byte	0
	.byte	0
Lcst_end15:
	.p2align	2

	.section	__TEXT,__text,regular,pure_instructions
	.globl	__ZN7autocfg7AutoCfg10probe_path17hcab5a97948cf8c6aE
	.p2align	4, 0x90
__ZN7autocfg7AutoCfg10probe_path17hcab5a97948cf8c6aE:
Lfunc_begin16:
	.cfi_startproc
	.cfi_personality 155, _rust_eh_personality
	.cfi_lsda 16, Lexception16
	pushq	%rbp
	.cfi_def_cfa_offset 16
	.cfi_offset %rbp, -16
	movq	%rsp, %rbp
	.cfi_def_cfa_register %rbp
	pushq	%r15
	pushq	%r14
	pushq	%rbx
	subq	$104, %rsp
	.cfi_offset %rbx, -40
	.cfi_offset %r14, -32
	.cfi_offset %r15, -24
	movq	%rdi, %r14
	movq	%rsi, -88(%rbp)
	movq	%rdx, -80(%rbp)
	leaq	-88(%rbp), %rax
	movq	%rax, -104(%rbp)
	leaq	__ZN44_$LT$$RF$T$u20$as$u20$core..fmt..Display$GT$3fmt17hebc820d3180ae72dE(%rip), %rax
	movq	%rax, -96(%rbp)
	leaq	l___unnamed_63(%rip), %rax
	movq	%rax, -72(%rbp)
	movq	$2, -64(%rbp)
	movq	$0, -56(%rbp)
	leaq	-104(%rbp), %rax
	movq	%rax, -40(%rbp)
	movq	$1, -32(%rbp)
	leaq	-128(%rbp), %rbx
	leaq	-72(%rbp), %rsi
	movq	%rbx, %rdi
	callq	__ZN5alloc3fmt6format17hef4b691705b449e4E
	leaq	-72(%rbp), %rdi
	movq	%r14, %rsi
	movq	%rbx, %rdx
	callq	__ZN7autocfg7AutoCfg5probe17h21a3170e4a113fe3E
	movb	-72(%rbp), %al
	cmpb	$1, %al
	setne	%bl
	cmpb	$0, -71(%rbp)
	setne	%r15b
	testb	%al, %al
	je	LBB72_7
	cmpb	$0, -64(%rbp)
	jne	LBB72_7
	cmpb	$2, -56(%rbp)
	jb	LBB72_7
	movq	-48(%rbp), %r14
	movq	(%r14), %rdi
	movq	8(%r14), %rax
Ltmp349:
	callq	*(%rax)
Ltmp350:
	movq	8(%r14), %rax
	movq	8(%rax), %rsi
	testq	%rsi, %rsi
	je	LBB72_6
	movq	(%r14), %rdi
	movq	16(%rax), %rdx
	callq	___rust_dealloc
LBB72_6:
	movl	$24, %esi
	movl	$8, %edx
	movq	%r14, %rdi
	callq	___rust_dealloc
LBB72_7:
	andb	%r15b, %bl
	movl	%ebx, %eax
	addq	$104, %rsp
	popq	%rbx
	popq	%r14
	popq	%r15
	popq	%rbp
	retq
LBB72_8:
Ltmp351:
	movq	%rax, %rbx
	movq	(%r14), %rdi
	movq	8(%r14), %rsi
	callq	__ZN5alloc5alloc8box_free17h60ba51d8addc7fdeE
	movq	%r14, %rdi
	callq	__ZN5alloc5alloc8box_free17h4c7dac560e6bb77aE
	movq	%rbx, %rdi
	callq	__Unwind_Resume
	ud2
Lfunc_end16:
	.cfi_endproc
	.section	__TEXT,__gcc_except_tab
	.p2align	2
GCC_except_table72:
Lexception16:
	.byte	255
	.byte	255
	.byte	1
	.uleb128 Lcst_end16-Lcst_begin16
Lcst_begin16:
	.uleb128 Lfunc_begin16-Lfunc_begin16
	.uleb128 Ltmp349-Lfunc_begin16
	.byte	0
	.byte	0
	.uleb128 Ltmp349-Lfunc_begin16
	.uleb128 Ltmp350-Ltmp349
	.uleb128 Ltmp351-Lfunc_begin16
	.byte	0
	.uleb128 Ltmp350-Lfunc_begin16
	.uleb128 Lfunc_end16-Ltmp350
	.byte	0
	.byte	0
Lcst_end16:
	.p2align	2

	.section	__TEXT,__text,regular,pure_instructions
	.globl	__ZN7autocfg7AutoCfg13emit_has_path17h1642403a260b5ea5E
	.p2align	4, 0x90
__ZN7autocfg7AutoCfg13emit_has_path17h1642403a260b5ea5E:
Lfunc_begin17:
	.cfi_startproc
	.cfi_personality 155, _rust_eh_personality
	.cfi_lsda 16, Lexception17
	pushq	%rbp
	.cfi_def_cfa_offset 16
	.cfi_offset %rbp, -16
	movq	%rsp, %rbp
	.cfi_def_cfa_register %rbp
	pushq	%r15
	pushq	%r14
	pushq	%r12
	pushq	%rbx
	subq	$128, %rsp
	.cfi_offset %rbx, -48
	.cfi_offset %r12, -40
	.cfi_offset %r14, -32
	.cfi_offset %r15, -24
	movq	%rdx, %r14
	movq	%rsi, %rbx
	callq	__ZN7autocfg7AutoCfg10probe_path17hcab5a97948cf8c6aE
	testb	%al, %al
	je	LBB73_8
	leaq	-80(%rbp), %r15
	movq	%r15, %rdi
	movq	%rbx, %rsi
	movq	%r14, %rdx
	callq	__ZN7autocfg6mangle17h08245580bb23c2e8E
	movq	%r15, -48(%rbp)
	leaq	__ZN60_$LT$alloc..string..String$u20$as$u20$core..fmt..Display$GT$3fmt17h4c6fc2b9ff0414a4E(%rip), %rax
	movq	%rax, -40(%rbp)
	leaq	l___unnamed_62(%rip), %rax
	movq	%rax, -128(%rbp)
	movq	$1, -120(%rbp)
	movq	$0, -112(%rbp)
	leaq	-48(%rbp), %r12
	movq	%r12, -96(%rbp)
	movq	$1, -88(%rbp)
Ltmp352:
	leaq	-152(%rbp), %r14
	leaq	-128(%rbp), %rsi
	movq	%r14, %rdi
	callq	__ZN5alloc3fmt6format17hef4b691705b449e4E
Ltmp353:
	movq	-80(%rbp), %rdi
	testq	%rdi, %rdi
	je	LBB73_5
	movq	-72(%rbp), %rsi
	testq	%rsi, %rsi
	je	LBB73_5
	movl	$1, %edx
	callq	___rust_dealloc
LBB73_5:
	vmovups	-152(%rbp), %xmm0
	vmovaps	%xmm0, -80(%rbp)
	movq	-136(%rbp), %rax
	movq	%rax, -64(%rbp)
	movq	-80(%rbp), %rbx
	movq	%rbx, -48(%rbp)
	movq	%rax, -40(%rbp)
	movq	%r12, -152(%rbp)
	leaq	__ZN44_$LT$$RF$T$u20$as$u20$core..fmt..Display$GT$3fmt17hebc820d3180ae72dE(%rip), %rax
	movq	%rax, -144(%rbp)
	leaq	l___unnamed_34(%rip), %rax
	movq	%rax, -128(%rbp)
	movq	$2, -120(%rbp)
	movq	$0, -112(%rbp)
	movq	%r14, -96(%rbp)
	movq	$1, -88(%rbp)
Ltmp355:
	leaq	-128(%rbp), %rdi
	callq	__ZN3std2io5stdio6_print17hdea2154009b9e479E
Ltmp356:
	movq	-72(%rbp), %rsi
	testq	%rsi, %rsi
	je	LBB73_8
	movl	$1, %edx
	movq	%rbx, %rdi
	callq	___rust_dealloc
LBB73_8:
	addq	$128, %rsp
	popq	%rbx
	popq	%r12
	popq	%r14
	popq	%r15
	popq	%rbp
	retq
LBB73_11:
Ltmp357:
	jmp	LBB73_10
LBB73_9:
Ltmp354:
LBB73_10:
	movq	%rax, %rbx
	movq	%r15, %rdi
	callq	__ZN4core3ptr13drop_in_place17h3da4fec5da26dce0E
	movq	%rbx, %rdi
	callq	__Unwind_Resume
	ud2
Lfunc_end17:
	.cfi_endproc
	.section	__TEXT,__gcc_except_tab
	.p2align	2
GCC_except_table73:
Lexception17:
	.byte	255
	.byte	255
	.byte	1
	.uleb128 Lcst_end17-Lcst_begin17
Lcst_begin17:
	.uleb128 Lfunc_begin17-Lfunc_begin17
	.uleb128 Ltmp352-Lfunc_begin17
	.byte	0
	.byte	0
	.uleb128 Ltmp352-Lfunc_begin17
	.uleb128 Ltmp353-Ltmp352
	.uleb128 Ltmp354-Lfunc_begin17
	.byte	0
	.uleb128 Ltmp355-Lfunc_begin17
	.uleb128 Ltmp356-Ltmp355
	.uleb128 Ltmp357-Lfunc_begin17
	.byte	0
	.uleb128 Ltmp356-Lfunc_begin17
	.uleb128 Lfunc_end17-Ltmp356
	.byte	0
	.byte	0
Lcst_end17:
	.p2align	2

	.section	__TEXT,__text,regular,pure_instructions
	.globl	__ZN7autocfg7AutoCfg13emit_path_cfg17hf4af9e8b40552c42E
	.p2align	4, 0x90
__ZN7autocfg7AutoCfg13emit_path_cfg17hf4af9e8b40552c42E:
	.cfi_startproc
	pushq	%rbp
	.cfi_def_cfa_offset 16
	.cfi_offset %rbp, -16
	movq	%rsp, %rbp
	.cfi_def_cfa_register %rbp
	pushq	%r14
	pushq	%rbx
	subq	$80, %rsp
	.cfi_offset %rbx, -32
	.cfi_offset %r14, -24
	movq	%r8, %r14
	movq	%rcx, %rbx
	callq	__ZN7autocfg7AutoCfg10probe_path17hcab5a97948cf8c6aE
	testb	%al, %al
	je	LBB74_2
	movq	%rbx, -32(%rbp)
	movq	%r14, -24(%rbp)
	leaq	-32(%rbp), %rax
	movq	%rax, -48(%rbp)
	leaq	__ZN44_$LT$$RF$T$u20$as$u20$core..fmt..Display$GT$3fmt17hebc820d3180ae72dE(%rip), %rax
	movq	%rax, -40(%rbp)
	leaq	l___unnamed_34(%rip), %rax
	movq	%rax, -96(%rbp)
	movq	$2, -88(%rbp)
	movq	$0, -80(%rbp)
	leaq	-48(%rbp), %rax
	movq	%rax, -64(%rbp)
	movq	$1, -56(%rbp)
	leaq	-96(%rbp), %rdi
	callq	__ZN3std2io5stdio6_print17hdea2154009b9e479E
LBB74_2:
	addq	$80, %rsp
	popq	%rbx
	popq	%r14
	popq	%rbp
	retq
	.cfi_endproc

	.globl	__ZN7autocfg7AutoCfg11probe_trait17hc7a5f56e39409176E
	.p2align	4, 0x90
__ZN7autocfg7AutoCfg11probe_trait17hc7a5f56e39409176E:
Lfunc_begin18:
	.cfi_startproc
	.cfi_personality 155, _rust_eh_personality
	.cfi_lsda 16, Lexception18
	pushq	%rbp
	.cfi_def_cfa_offset 16
	.cfi_offset %rbp, -16
	movq	%rsp, %rbp
	.cfi_def_cfa_register %rbp
	pushq	%r15
	pushq	%r14
	pushq	%rbx
	subq	$104, %rsp
	.cfi_offset %rbx, -40
	.cfi_offset %r14, -32
	.cfi_offset %r15, -24
	movq	%rdi, %r14
	movq	%rsi, -88(%rbp)
	movq	%rdx, -80(%rbp)
	leaq	-88(%rbp), %rax
	movq	%rax, -104(%rbp)
	leaq	__ZN44_$LT$$RF$T$u20$as$u20$core..fmt..Display$GT$3fmt17hebc820d3180ae72dE(%rip), %rax
	movq	%rax, -96(%rbp)
	leaq	l___unnamed_64(%rip), %rax
	movq	%rax, -72(%rbp)
	movq	$2, -64(%rbp)
	movq	$0, -56(%rbp)
	leaq	-104(%rbp), %rax
	movq	%rax, -40(%rbp)
	movq	$1, -32(%rbp)
	leaq	-128(%rbp), %rbx
	leaq	-72(%rbp), %rsi
	movq	%rbx, %rdi
	callq	__ZN5alloc3fmt6format17hef4b691705b449e4E
	leaq	-72(%rbp), %rdi
	movq	%r14, %rsi
	movq	%rbx, %rdx
	callq	__ZN7autocfg7AutoCfg5probe17h21a3170e4a113fe3E
	movb	-72(%rbp), %al
	cmpb	$1, %al
	setne	%bl
	cmpb	$0, -71(%rbp)
	setne	%r15b
	testb	%al, %al
	je	LBB75_7
	cmpb	$0, -64(%rbp)
	jne	LBB75_7
	cmpb	$2, -56(%rbp)
	jb	LBB75_7
	movq	-48(%rbp), %r14
	movq	(%r14), %rdi
	movq	8(%r14), %rax
Ltmp358:
	callq	*(%rax)
Ltmp359:
	movq	8(%r14), %rax
	movq	8(%rax), %rsi
	testq	%rsi, %rsi
	je	LBB75_6
	movq	(%r14), %rdi
	movq	16(%rax), %rdx
	callq	___rust_dealloc
LBB75_6:
	movl	$24, %esi
	movl	$8, %edx
	movq	%r14, %rdi
	callq	___rust_dealloc
LBB75_7:
	andb	%r15b, %bl
	movl	%ebx, %eax
	addq	$104, %rsp
	popq	%rbx
	popq	%r14
	popq	%r15
	popq	%rbp
	retq
LBB75_8:
Ltmp360:
	movq	%rax, %rbx
	movq	(%r14), %rdi
	movq	8(%r14), %rsi
	callq	__ZN5alloc5alloc8box_free17h60ba51d8addc7fdeE
	movq	%r14, %rdi
	callq	__ZN5alloc5alloc8box_free17h4c7dac560e6bb77aE
	movq	%rbx, %rdi
	callq	__Unwind_Resume
	ud2
Lfunc_end18:
	.cfi_endproc
	.section	__TEXT,__gcc_except_tab
	.p2align	2
GCC_except_table75:
Lexception18:
	.byte	255
	.byte	255
	.byte	1
	.uleb128 Lcst_end18-Lcst_begin18
Lcst_begin18:
	.uleb128 Lfunc_begin18-Lfunc_begin18
	.uleb128 Ltmp358-Lfunc_begin18
	.byte	0
	.byte	0
	.uleb128 Ltmp358-Lfunc_begin18
	.uleb128 Ltmp359-Ltmp358
	.uleb128 Ltmp360-Lfunc_begin18
	.byte	0
	.uleb128 Ltmp359-Lfunc_begin18
	.uleb128 Lfunc_end18-Ltmp359
	.byte	0
	.byte	0
Lcst_end18:
	.p2align	2

	.section	__TEXT,__text,regular,pure_instructions
	.globl	__ZN7autocfg7AutoCfg14emit_has_trait17h1a613d595f7ac09aE
	.p2align	4, 0x90
__ZN7autocfg7AutoCfg14emit_has_trait17h1a613d595f7ac09aE:
Lfunc_begin19:
	.cfi_startproc
	.cfi_personality 155, _rust_eh_personality
	.cfi_lsda 16, Lexception19
	pushq	%rbp
	.cfi_def_cfa_offset 16
	.cfi_offset %rbp, -16
	movq	%rsp, %rbp
	.cfi_def_cfa_register %rbp
	pushq	%r15
	pushq	%r14
	pushq	%r12
	pushq	%rbx
	subq	$128, %rsp
	.cfi_offset %rbx, -48
	.cfi_offset %r12, -40
	.cfi_offset %r14, -32
	.cfi_offset %r15, -24
	movq	%rdx, %r14
	movq	%rsi, %rbx
	callq	__ZN7autocfg7AutoCfg11probe_trait17hc7a5f56e39409176E
	testb	%al, %al
	je	LBB76_8
	leaq	-80(%rbp), %r15
	movq	%r15, %rdi
	movq	%rbx, %rsi
	movq	%r14, %rdx
	callq	__ZN7autocfg6mangle17h08245580bb23c2e8E
	movq	%r15, -48(%rbp)
	leaq	__ZN60_$LT$alloc..string..String$u20$as$u20$core..fmt..Display$GT$3fmt17h4c6fc2b9ff0414a4E(%rip), %rax
	movq	%rax, -40(%rbp)
	leaq	l___unnamed_62(%rip), %rax
	movq	%rax, -128(%rbp)
	movq	$1, -120(%rbp)
	movq	$0, -112(%rbp)
	leaq	-48(%rbp), %r12
	movq	%r12, -96(%rbp)
	movq	$1, -88(%rbp)
Ltmp361:
	leaq	-152(%rbp), %r14
	leaq	-128(%rbp), %rsi
	movq	%r14, %rdi
	callq	__ZN5alloc3fmt6format17hef4b691705b449e4E
Ltmp362:
	movq	-80(%rbp), %rdi
	testq	%rdi, %rdi
	je	LBB76_5
	movq	-72(%rbp), %rsi
	testq	%rsi, %rsi
	je	LBB76_5
	movl	$1, %edx
	callq	___rust_dealloc
LBB76_5:
	vmovups	-152(%rbp), %xmm0
	vmovaps	%xmm0, -80(%rbp)
	movq	-136(%rbp), %rax
	movq	%rax, -64(%rbp)
	movq	-80(%rbp), %rbx
	movq	%rbx, -48(%rbp)
	movq	%rax, -40(%rbp)
	movq	%r12, -152(%rbp)
	leaq	__ZN44_$LT$$RF$T$u20$as$u20$core..fmt..Display$GT$3fmt17hebc820d3180ae72dE(%rip), %rax
	movq	%rax, -144(%rbp)
	leaq	l___unnamed_34(%rip), %rax
	movq	%rax, -128(%rbp)
	movq	$2, -120(%rbp)
	movq	$0, -112(%rbp)
	movq	%r14, -96(%rbp)
	movq	$1, -88(%rbp)
Ltmp364:
	leaq	-128(%rbp), %rdi
	callq	__ZN3std2io5stdio6_print17hdea2154009b9e479E
Ltmp365:
	movq	-72(%rbp), %rsi
	testq	%rsi, %rsi
	je	LBB76_8
	movl	$1, %edx
	movq	%rbx, %rdi
	callq	___rust_dealloc
LBB76_8:
	addq	$128, %rsp
	popq	%rbx
	popq	%r12
	popq	%r14
	popq	%r15
	popq	%rbp
	retq
LBB76_11:
Ltmp366:
	jmp	LBB76_10
LBB76_9:
Ltmp363:
LBB76_10:
	movq	%rax, %rbx
	movq	%r15, %rdi
	callq	__ZN4core3ptr13drop_in_place17h3da4fec5da26dce0E
	movq	%rbx, %rdi
	callq	__Unwind_Resume
	ud2
Lfunc_end19:
	.cfi_endproc
	.section	__TEXT,__gcc_except_tab
	.p2align	2
GCC_except_table76:
Lexception19:
	.byte	255
	.byte	255
	.byte	1
	.uleb128 Lcst_end19-Lcst_begin19
Lcst_begin19:
	.uleb128 Lfunc_begin19-Lfunc_begin19
	.uleb128 Ltmp361-Lfunc_begin19
	.byte	0
	.byte	0
	.uleb128 Ltmp361-Lfunc_begin19
	.uleb128 Ltmp362-Ltmp361
	.uleb128 Ltmp363-Lfunc_begin19
	.byte	0
	.uleb128 Ltmp364-Lfunc_begin19
	.uleb128 Ltmp365-Ltmp364
	.uleb128 Ltmp366-Lfunc_begin19
	.byte	0
	.uleb128 Ltmp365-Lfunc_begin19
	.uleb128 Lfunc_end19-Ltmp365
	.byte	0
	.byte	0
Lcst_end19:
	.p2align	2

	.section	__TEXT,__text,regular,pure_instructions
	.globl	__ZN7autocfg7AutoCfg14emit_trait_cfg17hb9808b4df259fd29E
	.p2align	4, 0x90
__ZN7autocfg7AutoCfg14emit_trait_cfg17hb9808b4df259fd29E:
	.cfi_startproc
	pushq	%rbp
	.cfi_def_cfa_offset 16
	.cfi_offset %rbp, -16
	movq	%rsp, %rbp
	.cfi_def_cfa_register %rbp
	pushq	%r14
	pushq	%rbx
	subq	$80, %rsp
	.cfi_offset %rbx, -32
	.cfi_offset %r14, -24
	movq	%r8, %r14
	movq	%rcx, %rbx
	callq	__ZN7autocfg7AutoCfg11probe_trait17hc7a5f56e39409176E
	testb	%al, %al
	je	LBB77_2
	movq	%rbx, -32(%rbp)
	movq	%r14, -24(%rbp)
	leaq	-32(%rbp), %rax
	movq	%rax, -48(%rbp)
	leaq	__ZN44_$LT$$RF$T$u20$as$u20$core..fmt..Display$GT$3fmt17hebc820d3180ae72dE(%rip), %rax
	movq	%rax, -40(%rbp)
	leaq	l___unnamed_34(%rip), %rax
	movq	%rax, -96(%rbp)
	movq	$2, -88(%rbp)
	movq	$0, -80(%rbp)
	leaq	-48(%rbp), %rax
	movq	%rax, -64(%rbp)
	movq	$1, -56(%rbp)
	leaq	-96(%rbp), %rdi
	callq	__ZN3std2io5stdio6_print17hdea2154009b9e479E
LBB77_2:
	addq	$80, %rsp
	popq	%rbx
	popq	%r14
	popq	%rbp
	retq
	.cfi_endproc

	.globl	__ZN7autocfg7AutoCfg10probe_type17h95644bf680850b2aE
	.p2align	4, 0x90
__ZN7autocfg7AutoCfg10probe_type17h95644bf680850b2aE:
Lfunc_begin20:
	.cfi_startproc
	.cfi_personality 155, _rust_eh_personality
	.cfi_lsda 16, Lexception20
	pushq	%rbp
	.cfi_def_cfa_offset 16
	.cfi_offset %rbp, -16
	movq	%rsp, %rbp
	.cfi_def_cfa_register %rbp
	pushq	%r15
	pushq	%r14
	pushq	%rbx
	subq	$104, %rsp
	.cfi_offset %rbx, -40
	.cfi_offset %r14, -32
	.cfi_offset %r15, -24
	movq	%rdi, %r14
	movq	%rsi, -88(%rbp)
	movq	%rdx, -80(%rbp)
	leaq	-88(%rbp), %rax
	movq	%rax, -104(%rbp)
	leaq	__ZN44_$LT$$RF$T$u20$as$u20$core..fmt..Display$GT$3fmt17hebc820d3180ae72dE(%rip), %rax
	movq	%rax, -96(%rbp)
	leaq	l___unnamed_65(%rip), %rax
	movq	%rax, -72(%rbp)
	movq	$2, -64(%rbp)
	movq	$0, -56(%rbp)
	leaq	-104(%rbp), %rax
	movq	%rax, -40(%rbp)
	movq	$1, -32(%rbp)
	leaq	-128(%rbp), %rbx
	leaq	-72(%rbp), %rsi
	movq	%rbx, %rdi
	callq	__ZN5alloc3fmt6format17hef4b691705b449e4E
	leaq	-72(%rbp), %rdi
	movq	%r14, %rsi
	movq	%rbx, %rdx
	callq	__ZN7autocfg7AutoCfg5probe17h21a3170e4a113fe3E
	movb	-72(%rbp), %al
	cmpb	$1, %al
	setne	%bl
	cmpb	$0, -71(%rbp)
	setne	%r15b
	testb	%al, %al
	je	LBB78_7
	cmpb	$0, -64(%rbp)
	jne	LBB78_7
	cmpb	$2, -56(%rbp)
	jb	LBB78_7
	movq	-48(%rbp), %r14
	movq	(%r14), %rdi
	movq	8(%r14), %rax
Ltmp367:
	callq	*(%rax)
Ltmp368:
	movq	8(%r14), %rax
	movq	8(%rax), %rsi
	testq	%rsi, %rsi
	je	LBB78_6
	movq	(%r14), %rdi
	movq	16(%rax), %rdx
	callq	___rust_dealloc
LBB78_6:
	movl	$24, %esi
	movl	$8, %edx
	movq	%r14, %rdi
	callq	___rust_dealloc
LBB78_7:
	andb	%r15b, %bl
	movl	%ebx, %eax
	addq	$104, %rsp
	popq	%rbx
	popq	%r14
	popq	%r15
	popq	%rbp
	retq
LBB78_8:
Ltmp369:
	movq	%rax, %rbx
	movq	(%r14), %rdi
	movq	8(%r14), %rsi
	callq	__ZN5alloc5alloc8box_free17h60ba51d8addc7fdeE
	movq	%r14, %rdi
	callq	__ZN5alloc5alloc8box_free17h4c7dac560e6bb77aE
	movq	%rbx, %rdi
	callq	__Unwind_Resume
	ud2
Lfunc_end20:
	.cfi_endproc
	.section	__TEXT,__gcc_except_tab
	.p2align	2
GCC_except_table78:
Lexception20:
	.byte	255
	.byte	255
	.byte	1
	.uleb128 Lcst_end20-Lcst_begin20
Lcst_begin20:
	.uleb128 Lfunc_begin20-Lfunc_begin20
	.uleb128 Ltmp367-Lfunc_begin20
	.byte	0
	.byte	0
	.uleb128 Ltmp367-Lfunc_begin20
	.uleb128 Ltmp368-Ltmp367
	.uleb128 Ltmp369-Lfunc_begin20
	.byte	0
	.uleb128 Ltmp368-Lfunc_begin20
	.uleb128 Lfunc_end20-Ltmp368
	.byte	0
	.byte	0
Lcst_end20:
	.p2align	2

	.section	__TEXT,__text,regular,pure_instructions
	.globl	__ZN7autocfg7AutoCfg13emit_has_type17h209d2444e21f3faeE
	.p2align	4, 0x90
__ZN7autocfg7AutoCfg13emit_has_type17h209d2444e21f3faeE:
Lfunc_begin21:
	.cfi_startproc
	.cfi_personality 155, _rust_eh_personality
	.cfi_lsda 16, Lexception21
	pushq	%rbp
	.cfi_def_cfa_offset 16
	.cfi_offset %rbp, -16
	movq	%rsp, %rbp
	.cfi_def_cfa_register %rbp
	pushq	%r15
	pushq	%r14
	pushq	%r12
	pushq	%rbx
	subq	$128, %rsp
	.cfi_offset %rbx, -48
	.cfi_offset %r12, -40
	.cfi_offset %r14, -32
	.cfi_offset %r15, -24
	movq	%rdx, %r14
	movq	%rsi, %rbx
	callq	__ZN7autocfg7AutoCfg10probe_type17h95644bf680850b2aE
	testb	%al, %al
	je	LBB79_8
	leaq	-80(%rbp), %r15
	movq	%r15, %rdi
	movq	%rbx, %rsi
	movq	%r14, %rdx
	callq	__ZN7autocfg6mangle17h08245580bb23c2e8E
	movq	%r15, -48(%rbp)
	leaq	__ZN60_$LT$alloc..string..String$u20$as$u20$core..fmt..Display$GT$3fmt17h4c6fc2b9ff0414a4E(%rip), %rax
	movq	%rax, -40(%rbp)
	leaq	l___unnamed_62(%rip), %rax
	movq	%rax, -128(%rbp)
	movq	$1, -120(%rbp)
	movq	$0, -112(%rbp)
	leaq	-48(%rbp), %r12
	movq	%r12, -96(%rbp)
	movq	$1, -88(%rbp)
Ltmp370:
	leaq	-152(%rbp), %r14
	leaq	-128(%rbp), %rsi
	movq	%r14, %rdi
	callq	__ZN5alloc3fmt6format17hef4b691705b449e4E
Ltmp371:
	movq	-80(%rbp), %rdi
	testq	%rdi, %rdi
	je	LBB79_5
	movq	-72(%rbp), %rsi
	testq	%rsi, %rsi
	je	LBB79_5
	movl	$1, %edx
	callq	___rust_dealloc
LBB79_5:
	vmovups	-152(%rbp), %xmm0
	vmovaps	%xmm0, -80(%rbp)
	movq	-136(%rbp), %rax
	movq	%rax, -64(%rbp)
	movq	-80(%rbp), %rbx
	movq	%rbx, -48(%rbp)
	movq	%rax, -40(%rbp)
	movq	%r12, -152(%rbp)
	leaq	__ZN44_$LT$$RF$T$u20$as$u20$core..fmt..Display$GT$3fmt17hebc820d3180ae72dE(%rip), %rax
	movq	%rax, -144(%rbp)
	leaq	l___unnamed_34(%rip), %rax
	movq	%rax, -128(%rbp)
	movq	$2, -120(%rbp)
	movq	$0, -112(%rbp)
	movq	%r14, -96(%rbp)
	movq	$1, -88(%rbp)
Ltmp373:
	leaq	-128(%rbp), %rdi
	callq	__ZN3std2io5stdio6_print17hdea2154009b9e479E
Ltmp374:
	movq	-72(%rbp), %rsi
	testq	%rsi, %rsi
	je	LBB79_8
	movl	$1, %edx
	movq	%rbx, %rdi
	callq	___rust_dealloc
LBB79_8:
	addq	$128, %rsp
	popq	%rbx
	popq	%r12
	popq	%r14
	popq	%r15
	popq	%rbp
	retq
LBB79_11:
Ltmp375:
	jmp	LBB79_10
LBB79_9:
Ltmp372:
LBB79_10:
	movq	%rax, %rbx
	movq	%r15, %rdi
	callq	__ZN4core3ptr13drop_in_place17h3da4fec5da26dce0E
	movq	%rbx, %rdi
	callq	__Unwind_Resume
	ud2
Lfunc_end21:
	.cfi_endproc
	.section	__TEXT,__gcc_except_tab
	.p2align	2
GCC_except_table79:
Lexception21:
	.byte	255
	.byte	255
	.byte	1
	.uleb128 Lcst_end21-Lcst_begin21
Lcst_begin21:
	.uleb128 Lfunc_begin21-Lfunc_begin21
	.uleb128 Ltmp370-Lfunc_begin21
	.byte	0
	.byte	0
	.uleb128 Ltmp370-Lfunc_begin21
	.uleb128 Ltmp371-Ltmp370
	.uleb128 Ltmp372-Lfunc_begin21
	.byte	0
	.uleb128 Ltmp373-Lfunc_begin21
	.uleb128 Ltmp374-Ltmp373
	.uleb128 Ltmp375-Lfunc_begin21
	.byte	0
	.uleb128 Ltmp374-Lfunc_begin21
	.uleb128 Lfunc_end21-Ltmp374
	.byte	0
	.byte	0
Lcst_end21:
	.p2align	2

	.section	__TEXT,__text,regular,pure_instructions
	.globl	__ZN7autocfg7AutoCfg13emit_type_cfg17h23a23424e08456deE
	.p2align	4, 0x90
__ZN7autocfg7AutoCfg13emit_type_cfg17h23a23424e08456deE:
	.cfi_startproc
	pushq	%rbp
	.cfi_def_cfa_offset 16
	.cfi_offset %rbp, -16
	movq	%rsp, %rbp
	.cfi_def_cfa_register %rbp
	pushq	%r14
	pushq	%rbx
	subq	$80, %rsp
	.cfi_offset %rbx, -32
	.cfi_offset %r14, -24
	movq	%r8, %r14
	movq	%rcx, %rbx
	callq	__ZN7autocfg7AutoCfg10probe_type17h95644bf680850b2aE
	testb	%al, %al
	je	LBB80_2
	movq	%rbx, -32(%rbp)
	movq	%r14, -24(%rbp)
	leaq	-32(%rbp), %rax
	movq	%rax, -48(%rbp)
	leaq	__ZN44_$LT$$RF$T$u20$as$u20$core..fmt..Display$GT$3fmt17hebc820d3180ae72dE(%rip), %rax
	movq	%rax, -40(%rbp)
	leaq	l___unnamed_34(%rip), %rax
	movq	%rax, -96(%rbp)
	movq	$2, -88(%rbp)
	movq	$0, -80(%rbp)
	leaq	-48(%rbp), %rax
	movq	%rax, -64(%rbp)
	movq	$1, -56(%rbp)
	leaq	-96(%rbp), %rdi
	callq	__ZN3std2io5stdio6_print17hdea2154009b9e479E
LBB80_2:
	addq	$80, %rsp
	popq	%rbx
	popq	%r14
	popq	%rbp
	retq
	.cfi_endproc

	.globl	__ZN7autocfg7AutoCfg16probe_expression17ha30b2f711ef10485E
	.p2align	4, 0x90
__ZN7autocfg7AutoCfg16probe_expression17ha30b2f711ef10485E:
Lfunc_begin22:
	.cfi_startproc
	.cfi_personality 155, _rust_eh_personality
	.cfi_lsda 16, Lexception22
	pushq	%rbp
	.cfi_def_cfa_offset 16
	.cfi_offset %rbp, -16
	movq	%rsp, %rbp
	.cfi_def_cfa_register %rbp
	pushq	%r15
	pushq	%r14
	pushq	%rbx
	subq	$104, %rsp
	.cfi_offset %rbx, -40
	.cfi_offset %r14, -32
	.cfi_offset %r15, -24
	movq	%rdi, %r14
	movq	%rsi, -88(%rbp)
	movq	%rdx, -80(%rbp)
	leaq	-88(%rbp), %rax
	movq	%rax, -104(%rbp)
	leaq	__ZN44_$LT$$RF$T$u20$as$u20$core..fmt..Display$GT$3fmt17hebc820d3180ae72dE(%rip), %rax
	movq	%rax, -96(%rbp)
	leaq	l___unnamed_66(%rip), %rax
	movq	%rax, -72(%rbp)
	movq	$2, -64(%rbp)
	movq	$0, -56(%rbp)
	leaq	-104(%rbp), %rax
	movq	%rax, -40(%rbp)
	movq	$1, -32(%rbp)
	leaq	-128(%rbp), %rbx
	leaq	-72(%rbp), %rsi
	movq	%rbx, %rdi
	callq	__ZN5alloc3fmt6format17hef4b691705b449e4E
	leaq	-72(%rbp), %rdi
	movq	%r14, %rsi
	movq	%rbx, %rdx
	callq	__ZN7autocfg7AutoCfg5probe17h21a3170e4a113fe3E
	movb	-72(%rbp), %al
	cmpb	$1, %al
	setne	%bl
	cmpb	$0, -71(%rbp)
	setne	%r15b
	testb	%al, %al
	je	LBB81_7
	cmpb	$0, -64(%rbp)
	jne	LBB81_7
	cmpb	$2, -56(%rbp)
	jb	LBB81_7
	movq	-48(%rbp), %r14
	movq	(%r14), %rdi
	movq	8(%r14), %rax
Ltmp376:
	callq	*(%rax)
Ltmp377:
	movq	8(%r14), %rax
	movq	8(%rax), %rsi
	testq	%rsi, %rsi
	je	LBB81_6
	movq	(%r14), %rdi
	movq	16(%rax), %rdx
	callq	___rust_dealloc
LBB81_6:
	movl	$24, %esi
	movl	$8, %edx
	movq	%r14, %rdi
	callq	___rust_dealloc
LBB81_7:
	andb	%r15b, %bl
	movl	%ebx, %eax
	addq	$104, %rsp
	popq	%rbx
	popq	%r14
	popq	%r15
	popq	%rbp
	retq
LBB81_8:
Ltmp378:
	movq	%rax, %rbx
	movq	(%r14), %rdi
	movq	8(%r14), %rsi
	callq	__ZN5alloc5alloc8box_free17h60ba51d8addc7fdeE
	movq	%r14, %rdi
	callq	__ZN5alloc5alloc8box_free17h4c7dac560e6bb77aE
	movq	%rbx, %rdi
	callq	__Unwind_Resume
	ud2
Lfunc_end22:
	.cfi_endproc
	.section	__TEXT,__gcc_except_tab
	.p2align	2
GCC_except_table81:
Lexception22:
	.byte	255
	.byte	255
	.byte	1
	.uleb128 Lcst_end22-Lcst_begin22
Lcst_begin22:
	.uleb128 Lfunc_begin22-Lfunc_begin22
	.uleb128 Ltmp376-Lfunc_begin22
	.byte	0
	.byte	0
	.uleb128 Ltmp376-Lfunc_begin22
	.uleb128 Ltmp377-Ltmp376
	.uleb128 Ltmp378-Lfunc_begin22
	.byte	0
	.uleb128 Ltmp377-Lfunc_begin22
	.uleb128 Lfunc_end22-Ltmp377
	.byte	0
	.byte	0
Lcst_end22:
	.p2align	2

	.section	__TEXT,__text,regular,pure_instructions
	.globl	__ZN7autocfg7AutoCfg19emit_expression_cfg17hac8c79d3dcfda678E
	.p2align	4, 0x90
__ZN7autocfg7AutoCfg19emit_expression_cfg17hac8c79d3dcfda678E:
	.cfi_startproc
	pushq	%rbp
	.cfi_def_cfa_offset 16
	.cfi_offset %rbp, -16
	movq	%rsp, %rbp
	.cfi_def_cfa_register %rbp
	pushq	%r14
	pushq	%rbx
	subq	$80, %rsp
	.cfi_offset %rbx, -32
	.cfi_offset %r14, -24
	movq	%r8, %r14
	movq	%rcx, %rbx
	callq	__ZN7autocfg7AutoCfg16probe_expression17ha30b2f711ef10485E
	testb	%al, %al
	je	LBB82_2
	movq	%rbx, -32(%rbp)
	movq	%r14, -24(%rbp)
	leaq	-32(%rbp), %rax
	movq	%rax, -48(%rbp)
	leaq	__ZN44_$LT$$RF$T$u20$as$u20$core..fmt..Display$GT$3fmt17hebc820d3180ae72dE(%rip), %rax
	movq	%rax, -40(%rbp)
	leaq	l___unnamed_34(%rip), %rax
	movq	%rax, -96(%rbp)
	movq	$2, -88(%rbp)
	movq	$0, -80(%rbp)
	leaq	-48(%rbp), %rax
	movq	%rax, -64(%rbp)
	movq	$1, -56(%rbp)
	leaq	-96(%rbp), %rdi
	callq	__ZN3std2io5stdio6_print17hdea2154009b9e479E
LBB82_2:
	addq	$80, %rsp
	popq	%rbx
	popq	%r14
	popq	%rbp
	retq
	.cfi_endproc

	.globl	__ZN7autocfg7AutoCfg14probe_constant17h12507c7a24d847e8E
	.p2align	4, 0x90
__ZN7autocfg7AutoCfg14probe_constant17h12507c7a24d847e8E:
Lfunc_begin23:
	.cfi_startproc
	.cfi_personality 155, _rust_eh_personality
	.cfi_lsda 16, Lexception23
	pushq	%rbp
	.cfi_def_cfa_offset 16
	.cfi_offset %rbp, -16
	movq	%rsp, %rbp
	.cfi_def_cfa_register %rbp
	pushq	%r15
	pushq	%r14
	pushq	%rbx
	subq	$104, %rsp
	.cfi_offset %rbx, -40
	.cfi_offset %r14, -32
	.cfi_offset %r15, -24
	movq	%rdi, %r14
	movq	%rsi, -88(%rbp)
	movq	%rdx, -80(%rbp)
	leaq	-88(%rbp), %rax
	movq	%rax, -104(%rbp)
	leaq	__ZN44_$LT$$RF$T$u20$as$u20$core..fmt..Display$GT$3fmt17hebc820d3180ae72dE(%rip), %rax
	movq	%rax, -96(%rbp)
	leaq	l___unnamed_67(%rip), %rax
	movq	%rax, -72(%rbp)
	movq	$2, -64(%rbp)
	movq	$0, -56(%rbp)
	leaq	-104(%rbp), %rax
	movq	%rax, -40(%rbp)
	movq	$1, -32(%rbp)
	leaq	-128(%rbp), %rbx
	leaq	-72(%rbp), %rsi
	movq	%rbx, %rdi
	callq	__ZN5alloc3fmt6format17hef4b691705b449e4E
	leaq	-72(%rbp), %rdi
	movq	%r14, %rsi
	movq	%rbx, %rdx
	callq	__ZN7autocfg7AutoCfg5probe17h21a3170e4a113fe3E
	movb	-72(%rbp), %al
	cmpb	$1, %al
	setne	%bl
	cmpb	$0, -71(%rbp)
	setne	%r15b
	testb	%al, %al
	je	LBB83_7
	cmpb	$0, -64(%rbp)
	jne	LBB83_7
	cmpb	$2, -56(%rbp)
	jb	LBB83_7
	movq	-48(%rbp), %r14
	movq	(%r14), %rdi
	movq	8(%r14), %rax
Ltmp379:
	callq	*(%rax)
Ltmp380:
	movq	8(%r14), %rax
	movq	8(%rax), %rsi
	testq	%rsi, %rsi
	je	LBB83_6
	movq	(%r14), %rdi
	movq	16(%rax), %rdx
	callq	___rust_dealloc
LBB83_6:
	movl	$24, %esi
	movl	$8, %edx
	movq	%r14, %rdi
	callq	___rust_dealloc
LBB83_7:
	andb	%r15b, %bl
	movl	%ebx, %eax
	addq	$104, %rsp
	popq	%rbx
	popq	%r14
	popq	%r15
	popq	%rbp
	retq
LBB83_8:
Ltmp381:
	movq	%rax, %rbx
	movq	(%r14), %rdi
	movq	8(%r14), %rsi
	callq	__ZN5alloc5alloc8box_free17h60ba51d8addc7fdeE
	movq	%r14, %rdi
	callq	__ZN5alloc5alloc8box_free17h4c7dac560e6bb77aE
	movq	%rbx, %rdi
	callq	__Unwind_Resume
	ud2
Lfunc_end23:
	.cfi_endproc
	.section	__TEXT,__gcc_except_tab
	.p2align	2
GCC_except_table83:
Lexception23:
	.byte	255
	.byte	255
	.byte	1
	.uleb128 Lcst_end23-Lcst_begin23
Lcst_begin23:
	.uleb128 Lfunc_begin23-Lfunc_begin23
	.uleb128 Ltmp379-Lfunc_begin23
	.byte	0
	.byte	0
	.uleb128 Ltmp379-Lfunc_begin23
	.uleb128 Ltmp380-Ltmp379
	.uleb128 Ltmp381-Lfunc_begin23
	.byte	0
	.uleb128 Ltmp380-Lfunc_begin23
	.uleb128 Lfunc_end23-Ltmp380
	.byte	0
	.byte	0
Lcst_end23:
	.p2align	2

	.section	__TEXT,__text,regular,pure_instructions
	.globl	__ZN7autocfg7AutoCfg17emit_constant_cfg17hfdc3c1e935ffa7c8E
	.p2align	4, 0x90
__ZN7autocfg7AutoCfg17emit_constant_cfg17hfdc3c1e935ffa7c8E:
	.cfi_startproc
	pushq	%rbp
	.cfi_def_cfa_offset 16
	.cfi_offset %rbp, -16
	movq	%rsp, %rbp
	.cfi_def_cfa_register %rbp
	pushq	%r14
	pushq	%rbx
	subq	$80, %rsp
	.cfi_offset %rbx, -32
	.cfi_offset %r14, -24
	movq	%r8, %r14
	movq	%rcx, %rbx
	callq	__ZN7autocfg7AutoCfg14probe_constant17h12507c7a24d847e8E
	testb	%al, %al
	je	LBB84_2
	movq	%rbx, -32(%rbp)
	movq	%r14, -24(%rbp)
	leaq	-32(%rbp), %rax
	movq	%rax, -48(%rbp)
	leaq	__ZN44_$LT$$RF$T$u20$as$u20$core..fmt..Display$GT$3fmt17hebc820d3180ae72dE(%rip), %rax
	movq	%rax, -40(%rbp)
	leaq	l___unnamed_34(%rip), %rax
	movq	%rax, -96(%rbp)
	movq	$2, -88(%rbp)
	movq	$0, -80(%rbp)
	leaq	-48(%rbp), %rax
	movq	%rax, -64(%rbp)
	movq	$1, -56(%rbp)
	leaq	-96(%rbp), %rdi
	callq	__ZN3std2io5stdio6_print17hdea2154009b9e479E
LBB84_2:
	addq	$80, %rsp
	popq	%rbx
	popq	%r14
	popq	%rbp
	retq
	.cfi_endproc

	.p2align	4, 0x90
__ZN7autocfg6mangle17h08245580bb23c2e8E:
Lfunc_begin24:
	.cfi_startproc
	.cfi_personality 155, _rust_eh_personality
	.cfi_lsda 16, Lexception24
	pushq	%rbp
	.cfi_def_cfa_offset 16
	.cfi_offset %rbp, -16
	movq	%rsp, %rbp
	.cfi_def_cfa_register %rbp
	pushq	%r15
	pushq	%r14
	pushq	%r13
	pushq	%r12
	pushq	%rbx
	subq	$56, %rsp
	.cfi_offset %rbx, -56
	.cfi_offset %r12, -48
	.cfi_offset %r13, -40
	.cfi_offset %r14, -32
	.cfi_offset %r15, -24
	movq	%rdx, %r14
	movq	%rsi, %r15
	movq	%rdi, %rbx
	movq	$1, -72(%rbp)
	vxorps	%xmm0, %xmm0, %xmm0
	vmovups	%xmm0, -64(%rbp)
	leaq	3(%rdx), %r12
	shrq	$2, %r12
	movq	%rdi, -80(%rbp)
	je	LBB85_1
	movl	$1, %esi
	movq	%r12, %rdi
	callq	___rust_alloc
	testq	%rax, %rax
	je	LBB85_64
	movq	%rax, %rdi
	movq	%rax, -72(%rbp)
	movq	%r12, -64(%rbp)
	testq	%r14, %r14
	jne	LBB85_5
	jmp	LBB85_34
LBB85_1:
	movl	$1, %edi
	testq	%r14, %r14
	je	LBB85_34
LBB85_5:
	addq	%r15, %r14
	xorl	%r8d, %r8d
	movq	%r14, -88(%rbp)
	leaq	1(%r15), %rax
	movzbl	(%r15), %ecx
	testb	%cl, %cl
	jns	LBB85_7
	jmp	LBB85_8
	.p2align	4, 0x90
LBB85_31:
	movq	%r12, %r13
	movq	%r14, %r12
	leaq	(%r15,%r8), %rbx
LBB85_32:
	addq	%rdi, %r8
	movq	%rdi, %r14
	movq	%r8, %rdi
	leaq	-44(%rbp), %rsi
	movq	%r15, %rdx
	callq	_memcpy
	movq	%r14, %rdi
	movq	%rbx, -56(%rbp)
	movq	%rbx, %r8
	movq	-96(%rbp), %r15
	movq	%r12, %r14
	movq	%r13, %r12
	cmpq	%r14, %r15
	je	LBB85_34
LBB85_6:
	leaq	1(%r15), %rax
	movzbl	(%r15), %ecx
	testb	%cl, %cl
	js	LBB85_8
LBB85_7:
	movq	%rax, %r15
	jmp	LBB85_23
	.p2align	4, 0x90
LBB85_8:
	cmpq	%r14, %rax
	je	LBB85_9
	movzbl	1(%r15), %eax
	addq	$2, %r15
	andl	$63, %eax
	movl	%ecx, %edx
	andl	$31, %edx
	cmpb	$-33, %cl
	jbe	LBB85_12
LBB85_14:
	cmpq	%r14, %r15
	je	LBB85_15
	movzbl	(%r15), %esi
	incq	%r15
	andl	$63, %esi
	shll	$6, %eax
	orl	%esi, %eax
	cmpb	$-16, %cl
	jb	LBB85_18
LBB85_19:
	cmpq	%r14, %r15
	je	LBB85_20
	movzbl	(%r15), %ecx
	incq	%r15
	andl	$63, %ecx
	jmp	LBB85_22
LBB85_9:
	xorl	%eax, %eax
	movq	%r14, %r15
	movl	%ecx, %edx
	andl	$31, %edx
	cmpb	$-33, %cl
	ja	LBB85_14
LBB85_12:
	shll	$6, %edx
	jmp	LBB85_13
LBB85_15:
	xorl	%esi, %esi
	movq	%r14, %r15
	shll	$6, %eax
	orl	%esi, %eax
	cmpb	$-16, %cl
	jae	LBB85_19
LBB85_18:
	shll	$12, %edx
LBB85_13:
	orl	%edx, %eax
	movl	%eax, %ecx
	jmp	LBB85_23
LBB85_20:
	xorl	%ecx, %ecx
	movq	%r14, %r15
LBB85_22:
	andl	$7, %edx
	shll	$18, %edx
	shll	$6, %eax
	orl	%edx, %eax
	orl	%ecx, %eax
	movl	%eax, %ecx
	cmpl	$1114112, %eax
	je	LBB85_34
	.p2align	4, 0x90
LBB85_23:
	movl	%ecx, %edx
	andl	$-33, %edx
	addl	$-65, %edx
	leal	-48(%rcx), %eax
	movl	%ecx, %ebx
	cmpl	$26, %edx
	jb	LBB85_25
	movl	$95, %ebx
LBB85_25:
	cmpl	$10, %eax
	cmovbl	%ecx, %ebx
	cmpl	$128, %ebx
	jae	LBB85_26
	movq	-64(%rbp), %r12
	cmpq	%r12, %r8
	jne	LBB85_50
	movq	%r8, %r12
	incq	%r12
	je	LBB85_63
	leaq	(%r8,%r8), %rax
	cmpq	%r12, %rax
	cmovaq	%rax, %r12
	testq	%r8, %r8
	je	LBB85_57
	movq	-72(%rbp), %rdi
	testq	%rdi, %rdi
	je	LBB85_57
	cmpq	%r12, %r8
	je	LBB85_61
	movl	$1, %edx
	movq	%r8, %rsi
	movq	%r12, %rcx
	movq	%r8, %r13
	callq	___rust_realloc
	jmp	LBB85_60
	.p2align	4, 0x90
LBB85_26:
	movl	$0, -44(%rbp)
	cmpl	$2048, %ebx
	movq	%r15, -96(%rbp)
	movl	%ebx, %eax
	jae	LBB85_27
	shrl	$6, %eax
	andb	$31, %al
	orb	$-64, %al
	movb	%al, -44(%rbp)
	andb	$63, %bl
	orb	$-128, %bl
	movb	%bl, -43(%rbp)
	movl	$2, %r15d
	movq	%r12, %rax
	subq	%r8, %rax
	cmpq	%r15, %rax
	jae	LBB85_31
LBB85_35:
	movq	%r8, %rbx
	addq	%r15, %rbx
	jb	LBB85_46
	leaq	(%r12,%r12), %r13
	cmpq	%rbx, %r13
	cmovbeq	%rbx, %r13
	testq	%r12, %r12
	je	LBB85_40
	movq	-72(%rbp), %rdi
	testq	%rdi, %rdi
	je	LBB85_40
	cmpq	%r13, %r12
	je	LBB85_44
	movl	$1, %edx
	movq	%r12, %rsi
	movq	%r13, %rcx
	movq	%r8, %r12
	callq	___rust_realloc
	jmp	LBB85_43
	.p2align	4, 0x90
LBB85_50:
	movq	-72(%rbp), %rdi
	jmp	LBB85_51
	.p2align	4, 0x90
LBB85_27:
	cmpl	$65536, %ebx
	jae	LBB85_29
	shrl	$12, %eax
	andb	$15, %al
	orb	$-32, %al
	movb	%al, -44(%rbp)
	movl	%ebx, %eax
	shrl	$6, %eax
	andb	$63, %al
	orb	$-128, %al
	movb	%al, -43(%rbp)
	andb	$63, %bl
	orb	$-128, %bl
	movb	%bl, -42(%rbp)
	movl	$3, %r15d
	movq	%r12, %rax
	subq	%r8, %rax
	cmpq	%r15, %rax
	jae	LBB85_31
	jmp	LBB85_35
LBB85_57:
	testq	%r12, %r12
	je	LBB85_58
	movl	$1, %esi
	movq	%r12, %rdi
	movq	%r8, %r13
	callq	___rust_alloc
LBB85_60:
	movq	%r13, %r8
	movq	%rax, %rdi
LBB85_61:
	testq	%rdi, %rdi
	jne	LBB85_62
	jmp	LBB85_64
LBB85_40:
	testq	%r13, %r13
	je	LBB85_41
	movl	$1, %esi
	movq	%r13, %rdi
	movq	%r8, %r12
	callq	___rust_alloc
LBB85_43:
	movq	%r12, %r8
	movq	%rax, %rdi
LBB85_44:
	testq	%rdi, %rdi
	jne	LBB85_45
	jmp	LBB85_48
LBB85_29:
	shrl	$18, %eax
	orb	$-16, %al
	movb	%al, -44(%rbp)
	movl	%ebx, %eax
	shrl	$12, %eax
	andb	$63, %al
	orb	$-128, %al
	movb	%al, -43(%rbp)
	movl	%ebx, %eax
	shrl	$6, %eax
	andb	$63, %al
	orb	$-128, %al
	movb	%al, -42(%rbp)
	andb	$63, %bl
	orb	$-128, %bl
	movb	%bl, -41(%rbp)
	movl	$4, %r15d
	movq	%r12, %rax
	subq	%r8, %rax
	cmpq	%r15, %rax
	jae	LBB85_31
	jmp	LBB85_35
LBB85_58:
	movl	$1, %edi
LBB85_62:
	movq	%rdi, -72(%rbp)
	movq	%r12, -64(%rbp)
LBB85_51:
	movb	%bl, (%rdi,%r8)
	incq	%r8
	movq	%r8, -56(%rbp)
	cmpq	%r14, %r15
	jne	LBB85_6
	jmp	LBB85_34
LBB85_41:
	movl	$1, %edi
LBB85_45:
	movq	%rdi, -72(%rbp)
	movq	%r13, -64(%rbp)
	movq	-88(%rbp), %r12
	jmp	LBB85_32
LBB85_34:
	movq	-56(%rbp), %rax
	movq	-80(%rbp), %rcx
	movq	%rax, 16(%rcx)
	vmovups	-72(%rbp), %xmm0
	vmovups	%xmm0, (%rcx)
	addq	$56, %rsp
	popq	%rbx
	popq	%r12
	popq	%r13
	popq	%r14
	popq	%r15
	popq	%rbp
	retq
LBB85_63:
Ltmp384:
	callq	__ZN5alloc7raw_vec17capacity_overflow17h023f34f5bc34c61fE
Ltmp385:
	jmp	LBB85_47
LBB85_46:
Ltmp382:
	callq	__ZN5alloc7raw_vec17capacity_overflow17h023f34f5bc34c61fE
Ltmp383:
LBB85_47:
	ud2
LBB85_64:
	movl	$1, %esi
	movq	%r12, %rdi
	callq	__ZN5alloc5alloc18handle_alloc_error17hbc0ab0ed90816c07E
LBB85_48:
	movl	$1, %esi
	movq	%r13, %rdi
	callq	__ZN5alloc5alloc18handle_alloc_error17hbc0ab0ed90816c07E
LBB85_65:
Ltmp386:
	movq	%rax, %rbx
	leaq	-72(%rbp), %rdi
	callq	__ZN4core3ptr13drop_in_place17h3da4fec5da26dce0E
	movq	%rbx, %rdi
	callq	__Unwind_Resume
	ud2
Lfunc_end24:
	.cfi_endproc
	.section	__TEXT,__gcc_except_tab
	.p2align	2
GCC_except_table85:
Lexception24:
	.byte	255
	.byte	255
	.byte	1
	.uleb128 Lcst_end24-Lcst_begin24
Lcst_begin24:
	.uleb128 Lfunc_begin24-Lfunc_begin24
	.uleb128 Ltmp384-Lfunc_begin24
	.byte	0
	.byte	0
	.uleb128 Ltmp384-Lfunc_begin24
	.uleb128 Ltmp383-Ltmp384
	.uleb128 Ltmp386-Lfunc_begin24
	.byte	0
	.uleb128 Ltmp383-Lfunc_begin24
	.uleb128 Lfunc_end24-Ltmp383
	.byte	0
	.byte	0
Lcst_end24:
	.p2align	2

	.section	__TEXT,__text,regular,pure_instructions
	.globl	__ZN58_$LT$autocfg..error..Error$u20$as$u20$core..fmt..Debug$GT$3fmt17h6f141e6bb6d6f274E
	.p2align	4, 0x90
__ZN58_$LT$autocfg..error..Error$u20$as$u20$core..fmt..Debug$GT$3fmt17h6f141e6bb6d6f274E:
	.cfi_startproc
	pushq	%rbp
	.cfi_def_cfa_offset 16
	.cfi_offset %rbp, -16
	movq	%rsp, %rbp
	.cfi_def_cfa_register %rbp
	pushq	%r14
	pushq	%rbx
	subq	$32, %rsp
	.cfi_offset %rbx, -32
	.cfi_offset %r14, -24
	movq	%rdi, %rbx
	leaq	l___unnamed_68(%rip), %rdx
	leaq	-40(%rbp), %r14
	movl	$5, %ecx
	movq	%r14, %rdi
	callq	__ZN4core3fmt9Formatter12debug_struct17h985c0158d1fc7193E
	movq	%rbx, -24(%rbp)
	leaq	L___unnamed_69(%rip), %rsi
	leaq	l___unnamed_70(%rip), %r8
	leaq	-24(%rbp), %rcx
	movl	$4, %edx
	movq	%r14, %rdi
	callq	__ZN4core3fmt8builders11DebugStruct5field17h9c15dc155278eed2E
	movq	%r14, %rdi
	callq	__ZN4core3fmt8builders11DebugStruct6finish17h26808393f3fed630E
	addq	$32, %rsp
	popq	%rbx
	popq	%r14
	popq	%rbp
	retq
	.cfi_endproc

	.globl	__ZN62_$LT$autocfg..error..ErrorKind$u20$as$u20$core..fmt..Debug$GT$3fmt17h826008734138f7d6E
	.p2align	4, 0x90
__ZN62_$LT$autocfg..error..ErrorKind$u20$as$u20$core..fmt..Debug$GT$3fmt17h826008734138f7d6E:
	.cfi_startproc
	pushq	%rbp
	.cfi_def_cfa_offset 16
	.cfi_offset %rbp, -16
	movq	%rsp, %rbp
	.cfi_def_cfa_register %rbp
	pushq	%r14
	pushq	%rbx
	subq	$32, %rsp
	.cfi_offset %rbx, -32
	.cfi_offset %r14, -24
	movq	%rdi, %rbx
	movzbl	(%rdi), %eax
	leaq	LJTI87_0(%rip), %rcx
	movslq	(%rcx,%rax,4), %rax
	addq	%rcx, %rax
	jmpq	*%rax
LBB87_2:
	addq	$8, %rbx
	leaq	-48(%rbp), %r14
	leaq	l___unnamed_71(%rip), %rdx
	movl	$2, %ecx
	movq	%r14, %rdi
	callq	__ZN4core3fmt9Formatter11debug_tuple17h15ca25ad759edd1cE
	leaq	-24(%rbp), %rsi
	movq	%rbx, -24(%rbp)
	leaq	l___unnamed_72(%rip), %rdx
	jmp	LBB87_5
LBB87_4:
	addq	$8, %rbx
	leaq	-48(%rbp), %r14
	leaq	L___unnamed_73(%rip), %rdx
	movl	$4, %ecx
	movq	%r14, %rdi
	callq	__ZN4core3fmt9Formatter11debug_tuple17h15ca25ad759edd1cE
	leaq	-24(%rbp), %rsi
	movq	%rbx, -24(%rbp)
	leaq	l___unnamed_74(%rip), %rdx
	jmp	LBB87_5
LBB87_1:
	addq	$8, %rbx
	leaq	-48(%rbp), %r14
	leaq	l___unnamed_75(%rip), %rdx
	movl	$5, %ecx
	movq	%r14, %rdi
	callq	__ZN4core3fmt9Formatter11debug_tuple17h15ca25ad759edd1cE
	leaq	-24(%rbp), %rsi
	movq	%rbx, -24(%rbp)
	leaq	l___unnamed_76(%rip), %rdx
	jmp	LBB87_5
LBB87_3:
	incq	%rbx
	leaq	-48(%rbp), %r14
	leaq	l___unnamed_77(%rip), %rdx
	movl	$3, %ecx
	movq	%r14, %rdi
	callq	__ZN4core3fmt9Formatter11debug_tuple17h15ca25ad759edd1cE
	leaq	-24(%rbp), %rsi
	movq	%rbx, -24(%rbp)
	leaq	l___unnamed_78(%rip), %rdx
LBB87_5:
	movq	%r14, %rdi
	callq	__ZN4core3fmt8builders10DebugTuple5field17hf36121153a94f236E
	movq	%r14, %rdi
	callq	__ZN4core3fmt8builders10DebugTuple6finish17h68acf09c6f6593f2E
	addq	$32, %rsp
	popq	%rbx
	popq	%r14
	popq	%rbp
	retq
	.cfi_endproc
	.p2align	2, 0x90
	.data_region jt32
.set L87_0_set_2, LBB87_2-LJTI87_0
.set L87_0_set_3, LBB87_3-LJTI87_0
.set L87_0_set_4, LBB87_4-LJTI87_0
.set L87_0_set_1, LBB87_1-LJTI87_0
LJTI87_0:
	.long	L87_0_set_2
	.long	L87_0_set_3
	.long	L87_0_set_4
	.long	L87_0_set_1
	.end_data_region

	.globl	__ZN62_$LT$autocfg..version..Version$u20$as$u20$core..fmt..Debug$GT$3fmt17had402ee2ee70beeaE
	.p2align	4, 0x90
__ZN62_$LT$autocfg..version..Version$u20$as$u20$core..fmt..Debug$GT$3fmt17had402ee2ee70beeaE:
	.cfi_startproc
	pushq	%rbp
	.cfi_def_cfa_offset 16
	.cfi_offset %rbp, -16
	movq	%rsp, %rbp
	.cfi_def_cfa_register %rbp
	pushq	%r15
	pushq	%r14
	pushq	%r12
	pushq	%rbx
	subq	$32, %rsp
	.cfi_offset %rbx, -48
	.cfi_offset %r12, -40
	.cfi_offset %r14, -32
	.cfi_offset %r15, -24
	movq	%rdi, %rbx
	leaq	l___unnamed_10(%rip), %rdx
	leaq	-56(%rbp), %r14
	movl	$7, %ecx
	movq	%r14, %rdi
	callq	__ZN4core3fmt9Formatter12debug_struct17h985c0158d1fc7193E
	movq	%rbx, -40(%rbp)
	leaq	8(%rbx), %r15
	addq	$16, %rbx
	leaq	l___unnamed_11(%rip), %rsi
	leaq	l___unnamed_12(%rip), %r12
	leaq	-40(%rbp), %rcx
	movl	$5, %edx
	movq	%r14, %rdi
	movq	%r12, %r8
	callq	__ZN4core3fmt8builders11DebugStruct5field17h9c15dc155278eed2E
	movq	%r15, -40(%rbp)
	leaq	l___unnamed_13(%rip), %rsi
	leaq	-40(%rbp), %rcx
	movl	$5, %edx
	movq	%r14, %rdi
	movq	%r12, %r8
	callq	__ZN4core3fmt8builders11DebugStruct5field17h9c15dc155278eed2E
	movq	%rbx, -40(%rbp)
	leaq	l___unnamed_14(%rip), %rsi
	leaq	-40(%rbp), %rcx
	movl	$5, %edx
	movq	%r14, %rdi
	movq	%r12, %r8
	callq	__ZN4core3fmt8builders11DebugStruct5field17h9c15dc155278eed2E
	movq	%r14, %rdi
	callq	__ZN4core3fmt8builders11DebugStruct6finish17h26808393f3fed630E
	addq	$32, %rsp
	popq	%rbx
	popq	%r12
	popq	%r14
	popq	%r15
	popq	%rbp
	retq
	.cfi_endproc

	.globl	__ZN53_$LT$autocfg..AutoCfg$u20$as$u20$core..fmt..Debug$GT$3fmt17hdd2cac3f9ca37effE
	.p2align	4, 0x90
__ZN53_$LT$autocfg..AutoCfg$u20$as$u20$core..fmt..Debug$GT$3fmt17hdd2cac3f9ca37effE:
	.cfi_startproc
	pushq	%rbp
	.cfi_def_cfa_offset 16
	.cfi_offset %rbp, -16
	movq	%rsp, %rbp
	.cfi_def_cfa_register %rbp
	pushq	%r15
	pushq	%r14
	pushq	%r13
	pushq	%r12
	pushq	%rbx
	subq	$40, %rsp
	.cfi_offset %rbx, -56
	.cfi_offset %r12, -48
	.cfi_offset %r13, -40
	.cfi_offset %r14, -32
	.cfi_offset %r15, -24
	movq	%rdi, %rbx
	leaq	l___unnamed_79(%rip), %rdx
	leaq	-80(%rbp), %r14
	movl	$7, %ecx
	movq	%r14, %rdi
	callq	__ZN4core3fmt9Formatter12debug_struct17h985c0158d1fc7193E
	movq	%rbx, -48(%rbp)
	leaq	24(%rbx), %r15
	leaq	48(%rbx), %r12
	leaq	72(%rbx), %r13
	leaq	120(%rbx), %rax
	movq	%rax, -56(%rbp)
	leaq	96(%rbx), %rax
	movq	%rax, -64(%rbp)
	leaq	l___unnamed_80(%rip), %rsi
	leaq	l___unnamed_81(%rip), %rbx
	leaq	-48(%rbp), %rcx
	movl	$7, %edx
	movq	%r14, %rdi
	movq	%rbx, %r8
	callq	__ZN4core3fmt8builders11DebugStruct5field17h9c15dc155278eed2E
	movq	%r15, -48(%rbp)
	leaq	l___unnamed_43(%rip), %rsi
	leaq	-48(%rbp), %rcx
	movl	$5, %edx
	movq	%r14, %rdi
	movq	%rbx, %r8
	callq	__ZN4core3fmt8builders11DebugStruct5field17h9c15dc155278eed2E
	movq	%r12, -48(%rbp)
	leaq	l___unnamed_82(%rip), %rsi
	leaq	l___unnamed_83(%rip), %r8
	leaq	-48(%rbp), %rcx
	movl	$13, %edx
	movq	%r14, %rdi
	callq	__ZN4core3fmt8builders11DebugStruct5field17h9c15dc155278eed2E
	movq	%r13, -48(%rbp)
	leaq	l___unnamed_84(%rip), %rsi
	leaq	l___unnamed_85(%rip), %r8
	leaq	-48(%rbp), %rcx
	movl	$6, %edx
	movq	%r14, %rdi
	callq	__ZN4core3fmt8builders11DebugStruct5field17h9c15dc155278eed2E
	movq	-56(%rbp), %rax
	movq	%rax, -48(%rbp)
	leaq	l___unnamed_86(%rip), %rsi
	leaq	l___unnamed_87(%rip), %r8
	leaq	-48(%rbp), %rcx
	movl	$6, %edx
	movq	%r14, %rdi
	callq	__ZN4core3fmt8builders11DebugStruct5field17h9c15dc155278eed2E
	movq	-64(%rbp), %rax
	movq	%rax, -48(%rbp)
	leaq	l___unnamed_88(%rip), %rsi
	leaq	l___unnamed_89(%rip), %r8
	leaq	-48(%rbp), %rcx
	movl	$9, %edx
	movq	%r14, %rdi
	callq	__ZN4core3fmt8builders11DebugStruct5field17h9c15dc155278eed2E
	movq	%r14, %rdi
	callq	__ZN4core3fmt8builders11DebugStruct6finish17h26808393f3fed630E
	addq	$40, %rsp
	popq	%rbx
	popq	%r12
	popq	%r13
	popq	%r14
	popq	%r15
	popq	%rbp
	retq
	.cfi_endproc

	.section	__TEXT,__const
l___unnamed_90:
	.ascii	"/rustc/a74d1862d4d87a56244958416fd05976c58ca1a8/src/liballoc/collections/btree/map.rs"

	.section	__DATA,__const
	.p2align	3
l___unnamed_2:
	.quad	l___unnamed_90
	.asciz	"U\000\000\000\000\000\000\000C\006\000\000\033\000\000"

	.section	__TEXT,__const
l___unnamed_91:
	.ascii	"/rustc/a74d1862d4d87a56244958416fd05976c58ca1a8/src/libstd/io/mod.rs"

	.section	__DATA,__const
	.p2align	3
l___unnamed_5:
	.quad	l___unnamed_91
	.asciz	"D\000\000\000\000\000\000\000}\005\000\000!\000\000"

	.section	__TEXT,__const
l___unnamed_3:
	.ascii	"failed to write whole buffer"

	.section	__DATA,__const
	.p2align	3
l___unnamed_4:
	.quad	__ZN4core3ptr13drop_in_place17h68000c5bca2927bdE
	.quad	24
	.quad	8
	.quad	__ZN3std5error5Error5cause17hd7404becf9de0972E
	.quad	__ZN3std5error5Error7type_id17h3821d16a9d9f57a5E
	.quad	__ZN3std5error5Error9backtrace17h0a2b4e96cc8ee493E
	.quad	__ZN243_$LT$std..error..$LT$impl$u20$core..convert..From$LT$alloc..string..String$GT$$u20$for$u20$alloc..boxed..Box$LT$dyn$u20$std..error..Error$u2b$core..marker..Sync$u2b$core..marker..Send$GT$$GT$..from..StringError$u20$as$u20$std..error..Error$GT$11description17h532dfd63416e1aedE
	.quad	__ZN3std5error5Error5cause17hd7404becf9de0972E
	.quad	__ZN244_$LT$std..error..$LT$impl$u20$core..convert..From$LT$alloc..string..String$GT$$u20$for$u20$alloc..boxed..Box$LT$dyn$u20$std..error..Error$u2b$core..marker..Sync$u2b$core..marker..Send$GT$$GT$..from..StringError$u20$as$u20$core..fmt..Display$GT$3fmt17h1c8bbca769487be5E
	.quad	__ZN242_$LT$std..error..$LT$impl$u20$core..convert..From$LT$alloc..string..String$GT$$u20$for$u20$alloc..boxed..Box$LT$dyn$u20$std..error..Error$u2b$core..marker..Sync$u2b$core..marker..Send$GT$$GT$..from..StringError$u20$as$u20$core..fmt..Debug$GT$3fmt17he86ff336ef1c0758E

	.p2align	3
l___unnamed_15:
	.quad	__ZN4core3ptr13drop_in_place17h01c14b5e490a79e1E
	.quad	8
	.quad	8
	.quad	__ZN42_$LT$$RF$T$u20$as$u20$core..fmt..Debug$GT$3fmt17h78ae82905fd99670E

	.section	__TEXT,__const
l___unnamed_92:
	.ascii	"/rustc/a74d1862d4d87a56244958416fd05976c58ca1a8/src/libcore/str/mod.rs"

	.section	__DATA,__const
	.p2align	3
l___unnamed_19:
	.quad	l___unnamed_92
	.asciz	"F\000\000\000\000\000\000\000\303\007\000\000/\000\000"

	.p2align	3
l___unnamed_20:
	.quad	l___unnamed_92
	.asciz	"F\000\000\000\000\000\000\000\004\b\000\000/\000\000"

	.section	__TEXT,__const
l___unnamed_93:
	.ascii	"/rustc/a74d1862d4d87a56244958416fd05976c58ca1a8/src/libcore/macros/mod.rs"

	.section	__DATA,__const
	.p2align	3
l___unnamed_18:
	.quad	l___unnamed_93
	.asciz	"I\000\000\000\000\000\000\000\020\000\000\000\t\000\000"

	.section	__TEXT,__const
	.p2align	3
l___unnamed_60:
	.byte	0

l___unnamed_1:
	.ascii	"called `Option::unwrap()` on a `None` value"

l___unnamed_37:
	.ascii	"called `Result::unwrap()` on an `Err` value"

	.section	__DATA,__const
	.p2align	3
l___unnamed_38:
	.quad	__ZN4core3ptr13drop_in_place17h961919faea797330E
	.quad	24
	.quad	8
	.quad	__ZN58_$LT$autocfg..error..Error$u20$as$u20$core..fmt..Debug$GT$3fmt17h6f141e6bb6d6f274E

	.section	__TEXT,__const
l___unnamed_94:
	.ascii	"internal error: entered unreachable code: "

	.section	__DATA,__const
	.p2align	3
l___unnamed_17:
	.quad	l___unnamed_94
	.asciz	"*\000\000\000\000\000\000"

	.section	__TEXT,__const
l___unnamed_95:
	.ascii	"BTreeMap has different depths"

	.section	__DATA,__const
	.p2align	3
l___unnamed_16:
	.quad	l___unnamed_95
	.asciz	"\035\000\000\000\000\000\000"

	.section	__TEXT,__literal4,4byte_literals
L___unnamed_6:
	.ascii	"Some"

	.section	__DATA,__const
	.p2align	3
l___unnamed_9:
	.quad	__ZN4core3ptr13drop_in_place17h01c14b5e490a79e1E
	.quad	8
	.quad	8
	.quad	__ZN42_$LT$$RF$T$u20$as$u20$core..fmt..Debug$GT$3fmt17h55c4d04573eaddfdE

	.section	__TEXT,__literal4,4byte_literals
L___unnamed_8:
	.ascii	"None"

	.section	__DATA,__const
	.p2align	3
l___unnamed_7:
	.quad	__ZN4core3ptr13drop_in_place17h01c14b5e490a79e1E
	.quad	8
	.quad	8
	.quad	__ZN42_$LT$$RF$T$u20$as$u20$core..fmt..Debug$GT$3fmt17hb64e47f9af8d475dE

	.section	__TEXT,__const
l___unnamed_96:
	.ascii	"/rustc/a74d1862d4d87a56244958416fd05976c58ca1a8/src/libcore/str/pattern.rs"

	.section	__DATA,__const
	.p2align	3
l___unnamed_21:
	.quad	l___unnamed_96
	.asciz	"J\000\000\000\000\000\000\000\213\001\000\000&\000\000"

	.section	__TEXT,__const
l___unnamed_22:
	.ascii	"AutoCfg error"

	.section	__DATA,__const
	.p2align	3
l___unnamed_25:
	.quad	__ZN4core3ptr13drop_in_place17h01c14b5e490a79e1E
	.quad	16
	.quad	8
	.quad	__ZN3std5error5Error5cause17h886704b262798e4aE
	.quad	__ZN3std5error5Error7type_id17h9bf696a1afcdc778E
	.quad	__ZN3std5error5Error9backtrace17h0f97d53e0becb11dE
	.quad	__ZN58_$LT$core..str..Utf8Error$u20$as$u20$std..error..Error$GT$11description17h63fe6471b1b501b8E
	.quad	__ZN3std5error5Error5cause17h886704b262798e4aE
	.quad	__ZN59_$LT$core..str..Utf8Error$u20$as$u20$core..fmt..Display$GT$3fmt17h9024978efc80f5caE
	.quad	__ZN57_$LT$core..str..Utf8Error$u20$as$u20$core..fmt..Debug$GT$3fmt17h1ecfb3cce2e619e0E

	.p2align	3
l___unnamed_24:
	.quad	__ZN4core3ptr13drop_in_place17h01c14b5e490a79e1E
	.quad	1
	.quad	1
	.quad	__ZN3std5error5Error5cause17hfa872941de6a72a8E
	.quad	__ZN3std5error5Error7type_id17hc01d521799d82c65E
	.quad	__ZN3std5error5Error9backtrace17h4d03c03941473657E
	.quad	__ZN62_$LT$core..num..ParseIntError$u20$as$u20$std..error..Error$GT$11description17h7db25ff46335987dE
	.quad	__ZN3std5error5Error5cause17hfa872941de6a72a8E
	.quad	__ZN63_$LT$core..num..ParseIntError$u20$as$u20$core..fmt..Display$GT$3fmt17heb1569ad65640c9bE
	.quad	__ZN61_$LT$core..num..ParseIntError$u20$as$u20$core..fmt..Debug$GT$3fmt17h44c3304f11241241E

	.p2align	3
l___unnamed_23:
	.quad	__ZN4core3ptr13drop_in_place17h13df6fee417d4db7E
	.quad	16
	.quad	8
	.quad	__ZN59_$LT$std..io..error..Error$u20$as$u20$std..error..Error$GT$6source17heb35b7a261b5c7e2E
	.quad	__ZN3std5error5Error7type_id17h851e0b75d7190d74E
	.quad	__ZN3std5error5Error9backtrace17h0f97d53e0becb11dE
	.quad	__ZN59_$LT$std..io..error..Error$u20$as$u20$std..error..Error$GT$11description17h1d09041c379fa5ffE
	.quad	__ZN59_$LT$std..io..error..Error$u20$as$u20$std..error..Error$GT$5cause17h0ca71f10a9ec1d55E
	.quad	__ZN60_$LT$std..io..error..Error$u20$as$u20$core..fmt..Display$GT$3fmt17hd5a23906ccc4fffdE
	.quad	__ZN58_$LT$std..io..error..Error$u20$as$u20$core..fmt..Debug$GT$3fmt17h3350f3f53e0cee4cE

	.section	__TEXT,__const
l___unnamed_26:
	.ascii	"--version"

l___unnamed_27:
	.ascii	"--verbose"

l___unnamed_28:
	.ascii	"could not execute rustc"

l___unnamed_29:
	.ascii	"release: "

l___unnamed_31:
	.ascii	"missing major version"

l___unnamed_32:
	.ascii	"missing minor version"

l___unnamed_33:
	.ascii	"missing patch version"

l___unnamed_30:
	.ascii	"could not find rustc release"

	.section	__TEXT,__literal16,16byte_literals
L___unnamed_97:
	.ascii	"cargo:rustc-cfg="

	.section	__TEXT,__const
l___unnamed_98:
	.byte	10

	.section	__DATA,__const
	.p2align	3
l___unnamed_34:
	.quad	L___unnamed_97
	.asciz	"\020\000\000\000\000\000\000"
	.quad	l___unnamed_98
	.asciz	"\001\000\000\000\000\000\000"

	.section	__TEXT,__const
l___unnamed_99:
	.ascii	"cargo:rerun-if-changed="

	.section	__DATA,__const
	.p2align	3
l___unnamed_35:
	.quad	l___unnamed_99
	.asciz	"\027\000\000\000\000\000\000"
	.quad	l___unnamed_98
	.asciz	"\001\000\000\000\000\000\000"

	.section	__TEXT,__const
l___unnamed_100:
	.ascii	"cargo:rerun-if-env-changed="

	.section	__DATA,__const
	.p2align	3
l___unnamed_36:
	.quad	l___unnamed_100
	.asciz	"\033\000\000\000\000\000\000"
	.quad	l___unnamed_98
	.asciz	"\001\000\000\000\000\000\000"

	.section	__TEXT,__const
l___unnamed_101:
	.ascii	"/Users/yingyuhang/.cargo/registry/src/github.com-1ecc6299db9ec823/autocfg-1.0.0/src/lib.rs"

	.section	__DATA,__const
	.p2align	3
l___unnamed_39:
	.quad	l___unnamed_101
	.asciz	"Z\000\000\000\000\000\000\000\200\000\000\000\005\000\000"

	.section	__TEXT,__const
l___unnamed_40:
	.ascii	"OUT_DIR"

l___unnamed_42:
	.ascii	"no OUT_DIR specified!"

l___unnamed_41:
	.ascii	"RUSTC"

l___unnamed_44:
	.ascii	"output path is not a writable directory"

l___unnamed_45:
	.ascii	"TARGET"

	.section	__TEXT,__literal4,4byte_literals
L___unnamed_46:
	.ascii	"HOST"

	.section	__TEXT,__const
l___unnamed_47:
	.ascii	"RUSTFLAGS"

l___unnamed_48:
	.ascii	"warning: autocfg could not probe for `std`\n"

l___unnamed_43:
	.ascii	"rustc"

l___unnamed_102:
	.ascii	"rustc_"

l___unnamed_103:
	.byte	95

	.section	__DATA,__const
	.p2align	3
l___unnamed_49:
	.quad	l___unnamed_102
	.asciz	"\006\000\000\000\000\000\000"
	.quad	l___unnamed_103
	.asciz	"\001\000\000\000\000\000\000"

	.section	__TEXT,__const
l___unnamed_50:
	.ascii	"--crate-name"

l___unnamed_104:
	.ascii	"probe"

	.section	__DATA,__const
	.p2align	3
l___unnamed_51:
	.quad	l___unnamed_104
	.asciz	"\005\000\000\000\000\000\000"

	.section	__TEXT,__literal16,16byte_literals
L___unnamed_52:
	.ascii	"--crate-type=lib"

	.section	__TEXT,__const
l___unnamed_53:
	.ascii	"--out-dir"

l___unnamed_54:
	.ascii	"--emit=llvm-ir"

	.section	__TEXT,__literal8,8byte_literals
L___unnamed_55:
	.ascii	"--target"

	.section	__TEXT,__const
l___unnamed_56:
	.byte	45

l___unnamed_58:
	.ascii	"rustc stdin"

	.section	__DATA,__const
	.p2align	3
l___unnamed_59:
	.quad	l___unnamed_101
	.asciz	"Z\000\000\000\000\000\000\000\371\000\000\000\031\000\000"

	.section	__TEXT,__const
l___unnamed_57:
	.ascii	"#![no_std]\n"

	.globl	__ZN7autocfg7AutoCfg5probe2ID17hc95c64e4c7d1bdeaE
.zerofill __DATA,__common,__ZN7autocfg7AutoCfg5probe2ID17hc95c64e4c7d1bdeaE,8,3
l___unnamed_105:
	.ascii	"extern crate "

l___unnamed_106:
	.ascii	" as probe;"

	.section	__DATA,__const
	.p2align	3
l___unnamed_61:
	.quad	l___unnamed_105
	.asciz	"\r\000\000\000\000\000\000"
	.quad	l___unnamed_106
	.asciz	"\n\000\000\000\000\000\000"

	.section	__TEXT,__literal4,4byte_literals
L___unnamed_107:
	.ascii	"has_"

	.section	__DATA,__const
	.p2align	3
l___unnamed_62:
	.quad	L___unnamed_107
	.asciz	"\004\000\000\000\000\000\000"

	.section	__TEXT,__literal8,8byte_literals
L___unnamed_108:
	.ascii	"pub use "

	.section	__TEXT,__const
l___unnamed_109:
	.byte	59

	.section	__DATA,__const
	.p2align	3
l___unnamed_63:
	.quad	L___unnamed_108
	.asciz	"\b\000\000\000\000\000\000"
	.quad	l___unnamed_109
	.asciz	"\001\000\000\000\000\000\000"

	.section	__TEXT,__const
l___unnamed_110:
	.ascii	"pub trait Probe: "

l___unnamed_111:
	.ascii	" + Sized {}"

	.section	__DATA,__const
	.p2align	3
l___unnamed_64:
	.quad	l___unnamed_110
	.asciz	"\021\000\000\000\000\000\000"
	.quad	l___unnamed_111
	.asciz	"\013\000\000\000\000\000\000"

	.section	__TEXT,__const
l___unnamed_112:
	.ascii	"pub type Probe = "

	.section	__DATA,__const
	.p2align	3
l___unnamed_65:
	.quad	l___unnamed_112
	.asciz	"\021\000\000\000\000\000\000"
	.quad	l___unnamed_109
	.asciz	"\001\000\000\000\000\000\000"

	.section	__TEXT,__const
l___unnamed_113:
	.ascii	"pub fn probe() { let _ = "

l___unnamed_114:
	.ascii	"; }"

	.section	__DATA,__const
	.p2align	3
l___unnamed_66:
	.quad	l___unnamed_113
	.asciz	"\031\000\000\000\000\000\000"
	.quad	l___unnamed_114
	.asciz	"\003\000\000\000\000\000\000"

	.section	__TEXT,__const
l___unnamed_115:
	.ascii	"pub const PROBE: () = ((), "

	.section	__TEXT,__literal4,4byte_literals
L___unnamed_116:
	.ascii	").0;"

	.section	__DATA,__const
	.p2align	3
l___unnamed_67:
	.quad	l___unnamed_115
	.asciz	"\033\000\000\000\000\000\000"
	.quad	L___unnamed_116
	.asciz	"\004\000\000\000\000\000\000"

	.section	__TEXT,__const
l___unnamed_68:
	.ascii	"Error"

	.section	__TEXT,__literal4,4byte_literals
L___unnamed_69:
	.ascii	"kind"

	.section	__DATA,__const
	.p2align	3
l___unnamed_70:
	.quad	__ZN4core3ptr13drop_in_place17h01c14b5e490a79e1E
	.quad	8
	.quad	8
	.quad	__ZN42_$LT$$RF$T$u20$as$u20$core..fmt..Debug$GT$3fmt17h01e16f06e3e5463eE

	.section	__TEXT,__const
l___unnamed_75:
	.ascii	"Other"

	.section	__DATA,__const
	.p2align	3
l___unnamed_76:
	.quad	__ZN4core3ptr13drop_in_place17h01c14b5e490a79e1E
	.quad	8
	.quad	8
	.quad	__ZN42_$LT$$RF$T$u20$as$u20$core..fmt..Debug$GT$3fmt17h782fb73f874939d6E

	.section	__TEXT,__literal4,4byte_literals
L___unnamed_73:
	.ascii	"Utf8"

	.section	__DATA,__const
	.p2align	3
l___unnamed_74:
	.quad	__ZN4core3ptr13drop_in_place17h01c14b5e490a79e1E
	.quad	8
	.quad	8
	.quad	__ZN42_$LT$$RF$T$u20$as$u20$core..fmt..Debug$GT$3fmt17h3b37d394ebcb4573E

	.section	__TEXT,__const
l___unnamed_77:
	.ascii	"Num"

	.section	__DATA,__const
	.p2align	3
l___unnamed_78:
	.quad	__ZN4core3ptr13drop_in_place17h01c14b5e490a79e1E
	.quad	8
	.quad	8
	.quad	__ZN42_$LT$$RF$T$u20$as$u20$core..fmt..Debug$GT$3fmt17h80b3581319d225dcE

	.section	__TEXT,__const
l___unnamed_71:
	.ascii	"Io"

	.section	__DATA,__const
	.p2align	3
l___unnamed_72:
	.quad	__ZN4core3ptr13drop_in_place17h01c14b5e490a79e1E
	.quad	8
	.quad	8
	.quad	__ZN42_$LT$$RF$T$u20$as$u20$core..fmt..Debug$GT$3fmt17hb95b9bc508f7190fE

	.section	__TEXT,__const
l___unnamed_10:
	.ascii	"Version"

l___unnamed_11:
	.ascii	"major"

	.section	__DATA,__const
	.p2align	3
l___unnamed_12:
	.quad	__ZN4core3ptr13drop_in_place17h01c14b5e490a79e1E
	.quad	8
	.quad	8
	.quad	__ZN42_$LT$$RF$T$u20$as$u20$core..fmt..Debug$GT$3fmt17h368343d4c81180a2E

	.section	__TEXT,__const
l___unnamed_13:
	.ascii	"minor"

l___unnamed_14:
	.ascii	"patch"

l___unnamed_79:
	.ascii	"AutoCfg"

l___unnamed_80:
	.ascii	"out_dir"

	.section	__DATA,__const
	.p2align	3
l___unnamed_81:
	.quad	__ZN4core3ptr13drop_in_place17h01c14b5e490a79e1E
	.quad	8
	.quad	8
	.quad	__ZN42_$LT$$RF$T$u20$as$u20$core..fmt..Debug$GT$3fmt17he7196147848e4b5dE

	.section	__TEXT,__const
l___unnamed_82:
	.ascii	"rustc_version"

	.section	__DATA,__const
	.p2align	3
l___unnamed_83:
	.quad	__ZN4core3ptr13drop_in_place17h01c14b5e490a79e1E
	.quad	8
	.quad	8
	.quad	__ZN42_$LT$$RF$T$u20$as$u20$core..fmt..Debug$GT$3fmt17h46c7c9a354a5ace3E

	.section	__TEXT,__const
l___unnamed_84:
	.ascii	"target"

	.section	__DATA,__const
	.p2align	3
l___unnamed_85:
	.quad	__ZN4core3ptr13drop_in_place17h01c14b5e490a79e1E
	.quad	8
	.quad	8
	.quad	__ZN42_$LT$$RF$T$u20$as$u20$core..fmt..Debug$GT$3fmt17h2cc7756244b57203E

	.section	__TEXT,__const
l___unnamed_86:
	.ascii	"no_std"

	.section	__DATA,__const
	.p2align	3
l___unnamed_87:
	.quad	__ZN4core3ptr13drop_in_place17h01c14b5e490a79e1E
	.quad	8
	.quad	8
	.quad	__ZN42_$LT$$RF$T$u20$as$u20$core..fmt..Debug$GT$3fmt17hdd9bfc22f41f866eE

	.section	__TEXT,__const
l___unnamed_88:
	.ascii	"rustflags"

	.section	__DATA,__const
	.p2align	3
l___unnamed_89:
	.quad	__ZN4core3ptr13drop_in_place17h01c14b5e490a79e1E
	.quad	8
	.quad	8
	.quad	__ZN42_$LT$$RF$T$u20$as$u20$core..fmt..Debug$GT$3fmt17h0e1ca5d4ac3c1e27E


.subsections_via_symbols
