	.section	__TEXT,__text,regular,pure_instructions
	.macosx_version_min 10, 7
	.globl	__ZN100_$LT$core..iter..adapters..Filter$LT$I$C$P$GT$$u20$as$u20$core..iter..traits..iterator..Iterator$GT$4next17h7e05a741f27fb003E
	.p2align	4, 0x90
__ZN100_$LT$core..iter..adapters..Filter$LT$I$C$P$GT$$u20$as$u20$core..iter..traits..iterator..Iterator$GT$4next17h7e05a741f27fb003E:
	.cfi_startproc
	pushq	%rbp
	.cfi_def_cfa_offset 16
	.cfi_offset %rbp, -16
	movq	%rsp, %rbp
	.cfi_def_cfa_register %rbp
	subq	$32, %rsp
	movq	%rdi, %rax
	movq	%rdi, -8(%rbp)
	movq	%rax, %rdi
	movq	-8(%rbp), %rsi
	callq	__ZN4core4iter6traits8iterator8Iterator4find17hb99c5c5a7324310dE
	movq	%rax, -16(%rbp)
	movq	%rdx, -24(%rbp)
	movq	-16(%rbp), %rax
	movq	-24(%rbp), %rdx
	addq	$32, %rsp
	popq	%rbp
	retq
	.cfi_endproc

	.globl	__ZN100_$LT$core..iter..adapters..Filter$LT$I$C$P$GT$$u20$as$u20$core..iter..traits..iterator..Iterator$GT$9size_hint17h9878d746ab237ca8E
	.p2align	4, 0x90
__ZN100_$LT$core..iter..adapters..Filter$LT$I$C$P$GT$$u20$as$u20$core..iter..traits..iterator..Iterator$GT$9size_hint17h9878d746ab237ca8E:
	.cfi_startproc
	pushq	%rbp
	.cfi_def_cfa_offset 16
	.cfi_offset %rbp, -16
	movq	%rsp, %rbp
	.cfi_def_cfa_register %rbp
	subq	$48, %rsp
	movq	%rdi, %rax
	leaq	-24(%rbp), %rcx
	movq	%rdi, -32(%rbp)
	movq	%rcx, %rdi
	movq	%rax, -40(%rbp)
	callq	__ZN97_$LT$core..iter..adapters..Map$LT$I$C$F$GT$$u20$as$u20$core..iter..traits..iterator..Iterator$GT$9size_hint17haea3cd881e663f12E
	movq	-16(%rbp), %rax
	movq	-8(%rbp), %rcx
	movq	-32(%rbp), %rdx
	movq	$0, (%rdx)
	movq	%rax, 8(%rdx)
	movq	%rcx, 16(%rdx)
	movq	-40(%rbp), %rax
	addq	$48, %rsp
	popq	%rbp
	retq
	.cfi_endproc

	.globl	__ZN101_$LT$core..ops..range..RangeTo$LT$usize$GT$$u20$as$u20$core..slice..SliceIndex$LT$$u5b$T$u5d$$GT$$GT$5index17hab3366c442364646E
	.p2align	4, 0x90
__ZN101_$LT$core..ops..range..RangeTo$LT$usize$GT$$u20$as$u20$core..slice..SliceIndex$LT$$u5b$T$u5d$$GT$$GT$5index17hab3366c442364646E:
	.cfi_startproc
	pushq	%rbp
	.cfi_def_cfa_offset 16
	.cfi_offset %rbp, -16
	movq	%rsp, %rbp
	.cfi_def_cfa_register %rbp
	subq	$64, %rsp
	movq	$0, -16(%rbp)
	movq	%rdi, -8(%rbp)
	movq	-16(%rbp), %rdi
	movq	-8(%rbp), %rax
	movq	%rsi, -24(%rbp)
	movq	%rax, %rsi
	movq	-24(%rbp), %rax
	movq	%rdx, -32(%rbp)
	movq	%rax, %rdx
	movq	-32(%rbp), %r8
	movq	%rcx, -40(%rbp)
	movq	%r8, %rcx
	movq	-40(%rbp), %r8
	callq	__ZN99_$LT$core..ops..range..Range$LT$usize$GT$$u20$as$u20$core..slice..SliceIndex$LT$$u5b$T$u5d$$GT$$GT$5index17h28487bfb867fb564E
	movq	%rax, -48(%rbp)
	movq	%rdx, -56(%rbp)
	movq	-48(%rbp), %rax
	movq	-56(%rbp), %rdx
	addq	$64, %rsp
	popq	%rbp
	retq
	.cfi_endproc

	.globl	__ZN101_$LT$core..ops..range..RangeTo$LT$usize$GT$$u20$as$u20$core..slice..SliceIndex$LT$$u5b$T$u5d$$GT$$GT$9index_mut17h9bd0129b45c050aeE
	.p2align	4, 0x90
__ZN101_$LT$core..ops..range..RangeTo$LT$usize$GT$$u20$as$u20$core..slice..SliceIndex$LT$$u5b$T$u5d$$GT$$GT$9index_mut17h9bd0129b45c050aeE:
	.cfi_startproc
	pushq	%rbp
	.cfi_def_cfa_offset 16
	.cfi_offset %rbp, -16
	movq	%rsp, %rbp
	.cfi_def_cfa_register %rbp
	subq	$64, %rsp
	movq	$0, -16(%rbp)
	movq	%rdi, -8(%rbp)
	movq	-16(%rbp), %rdi
	movq	-8(%rbp), %rax
	movq	%rsi, -24(%rbp)
	movq	%rax, %rsi
	movq	-24(%rbp), %rax
	movq	%rdx, -32(%rbp)
	movq	%rax, %rdx
	movq	-32(%rbp), %r8
	movq	%rcx, -40(%rbp)
	movq	%r8, %rcx
	movq	-40(%rbp), %r8
	callq	__ZN99_$LT$core..ops..range..Range$LT$usize$GT$$u20$as$u20$core..slice..SliceIndex$LT$$u5b$T$u5d$$GT$$GT$9index_mut17hd109dffbb2b14fc3E
	movq	%rax, -48(%rbp)
	movq	%rdx, -56(%rbp)
	movq	-48(%rbp), %rax
	movq	-56(%rbp), %rdx
	addq	$64, %rsp
	popq	%rbp
	retq
	.cfi_endproc

	.globl	__ZN103_$LT$core..ops..range..RangeFrom$LT$usize$GT$$u20$as$u20$core..slice..SliceIndex$LT$$u5b$T$u5d$$GT$$GT$13get_unchecked17h49052fa9c71f36f3E
	.p2align	4, 0x90
__ZN103_$LT$core..ops..range..RangeFrom$LT$usize$GT$$u20$as$u20$core..slice..SliceIndex$LT$$u5b$T$u5d$$GT$$GT$13get_unchecked17h49052fa9c71f36f3E:
	.cfi_startproc
	pushq	%rbp
	.cfi_def_cfa_offset 16
	.cfi_offset %rbp, -16
	movq	%rsp, %rbp
	.cfi_def_cfa_register %rbp
	subq	$64, %rsp
	movq	%rdi, -24(%rbp)
	movq	%rsi, %rdi
	movq	%rsi, -32(%rbp)
	movq	%rdx, %rsi
	movq	%rdx, -40(%rbp)
	callq	__ZN4core3ptr9const_ptr43_$LT$impl$u20$$BP$const$u20$$u5b$T$u5d$$GT$3len17h7975436351d9aaeeE
	movq	%rax, -48(%rbp)
	movq	-24(%rbp), %rax
	movq	%rax, -16(%rbp)
	movq	-48(%rbp), %rcx
	movq	%rcx, -8(%rbp)
	movq	-16(%rbp), %rdi
	movq	-8(%rbp), %rsi
	movq	-32(%rbp), %rdx
	movq	-40(%rbp), %rcx
	callq	__ZN99_$LT$core..ops..range..Range$LT$usize$GT$$u20$as$u20$core..slice..SliceIndex$LT$$u5b$T$u5d$$GT$$GT$13get_unchecked17h733cd466ec8b5244E
	movq	%rax, -56(%rbp)
	movq	%rdx, -64(%rbp)
	movq	-56(%rbp), %rax
	movq	-64(%rbp), %rdx
	addq	$64, %rsp
	popq	%rbp
	retq
	.cfi_endproc

	.globl	__ZN103_$LT$core..ops..range..RangeFrom$LT$usize$GT$$u20$as$u20$core..slice..SliceIndex$LT$$u5b$T$u5d$$GT$$GT$5index17h7a604f39849a7d84E
	.p2align	4, 0x90
__ZN103_$LT$core..ops..range..RangeFrom$LT$usize$GT$$u20$as$u20$core..slice..SliceIndex$LT$$u5b$T$u5d$$GT$$GT$5index17h7a604f39849a7d84E:
	.cfi_startproc
	pushq	%rbp
	.cfi_def_cfa_offset 16
	.cfi_offset %rbp, -16
	movq	%rsp, %rbp
	.cfi_def_cfa_register %rbp
	subq	$64, %rsp
	movq	%rdi, -8(%rbp)
	movq	%rsi, %rdi
	movq	%rsi, -16(%rbp)
	movq	%rdx, %rsi
	movq	%rdx, -24(%rbp)
	movq	%rcx, -32(%rbp)
	callq	__ZN4core5slice29_$LT$impl$u20$$u5b$T$u5d$$GT$3len17h1041e332438f20aaE
	movq	%rax, -40(%rbp)
	movq	-8(%rbp), %rax
	movq	-40(%rbp), %rcx
	cmpq	%rcx, %rax
	ja	LBB5_3
	movq	-8(%rbp), %rdi
	movq	-16(%rbp), %rsi
	movq	-24(%rbp), %rdx
	callq	__ZN103_$LT$core..ops..range..RangeFrom$LT$usize$GT$$u20$as$u20$core..slice..SliceIndex$LT$$u5b$T$u5d$$GT$$GT$13get_unchecked17h49052fa9c71f36f3E
	movq	%rax, -48(%rbp)
	movq	%rdx, -56(%rbp)
	jmp	LBB5_5
LBB5_3:
	movq	-16(%rbp), %rdi
	movq	-24(%rbp), %rsi
	callq	__ZN4core5slice29_$LT$impl$u20$$u5b$T$u5d$$GT$3len17h1041e332438f20aaE
	movq	%rax, -64(%rbp)
	movq	-8(%rbp), %rdi
	movq	-64(%rbp), %rsi
	movq	-32(%rbp), %rdx
	callq	__ZN4core5slice26slice_start_index_len_fail17h787e2f1bbfc1d2f3E
LBB5_5:
	movq	-48(%rbp), %rax
	movq	-56(%rbp), %rdx
	addq	$64, %rsp
	popq	%rbp
	retq
	.cfi_endproc

	.p2align	4, 0x90
__ZN105_$LT$std..ffi..os_str..OsString$u20$as$u20$core..ops..index..Index$LT$core..ops..range..RangeFull$GT$$GT$5index17h5be8c8379b3340e6E:
	.cfi_startproc
	pushq	%rbp
	.cfi_def_cfa_offset 16
	.cfi_offset %rbp, -16
	movq	%rsp, %rbp
	.cfi_def_cfa_register %rbp
	subq	$48, %rsp
	movq	%rsi, -8(%rbp)
	callq	__ZN3std10sys_common12os_str_bytes3Buf8as_slice17h4cb57a272aa663b0E
	movq	%rax, -16(%rbp)
	movq	%rdx, -24(%rbp)
	movq	-16(%rbp), %rdi
	movq	-24(%rbp), %rsi
	callq	__ZN3std3ffi6os_str5OsStr10from_inner17h0c50d268ce0236b2E
	movq	%rax, -32(%rbp)
	movq	%rdx, -40(%rbp)
	movq	-32(%rbp), %rax
	movq	-40(%rbp), %rdx
	addq	$48, %rsp
	popq	%rbp
	retq
	.cfi_endproc

	.globl	__ZN109_$LT$alloc..vec..Vec$LT$T$GT$$u20$as$u20$alloc..vec..SpecExtend$LT$$RF$T$C$core..slice..Iter$LT$T$GT$$GT$$GT$11spec_extend17hbcb0a87f92653d07E
	.p2align	4, 0x90
__ZN109_$LT$alloc..vec..Vec$LT$T$GT$$u20$as$u20$alloc..vec..SpecExtend$LT$$RF$T$C$core..slice..Iter$LT$T$GT$$GT$$GT$11spec_extend17hbcb0a87f92653d07E:
	.cfi_startproc
	pushq	%rbp
	.cfi_def_cfa_offset 16
	.cfi_offset %rbp, -16
	movq	%rsp, %rbp
	.cfi_def_cfa_register %rbp
	subq	$112, %rsp
	movq	%rsi, -16(%rbp)
	movq	%rdx, -8(%rbp)
	leaq	-16(%rbp), %rax
	movq	%rdi, -24(%rbp)
	movq	%rax, %rdi
	callq	__ZN4core5slice13Iter$LT$T$GT$8as_slice17h3230eec133679504E
	movq	%rax, -32(%rbp)
	movq	%rdx, -40(%rbp)
	movq	-32(%rbp), %rdi
	movq	-40(%rbp), %rsi
	callq	__ZN4core5slice29_$LT$impl$u20$$u5b$T$u5d$$GT$3len17h1041e332438f20aaE
	movq	%rax, -48(%rbp)
	movq	-24(%rbp), %rdi
	movq	-48(%rbp), %rsi
	callq	__ZN5alloc3vec12Vec$LT$T$GT$7reserve17h5ff56b9d2aeb79a0E
	movq	-24(%rbp), %rdi
	callq	__ZN5alloc3vec12Vec$LT$T$GT$3len17h1c0391a0f0948230E
	movq	%rax, -56(%rbp)
	movq	-24(%rbp), %rdi
	callq	__ZN5alloc3vec12Vec$LT$T$GT$10as_mut_ptr17h6f4e3202288e3a9cE
	movq	%rax, -64(%rbp)
	movq	-64(%rbp), %rdi
	movq	-56(%rbp), %rsi
	callq	__ZN4core3ptr7mut_ptr31_$LT$impl$u20$$BP$mut$u20$T$GT$3add17hfc409736c3bda690E
	movq	%rax, -72(%rbp)
	movq	-32(%rbp), %rdi
	movq	-40(%rbp), %rsi
	callq	__ZN4core5slice29_$LT$impl$u20$$u5b$T$u5d$$GT$3len17h1041e332438f20aaE
	movq	%rax, -80(%rbp)
	movq	-72(%rbp), %rdi
	movq	-80(%rbp), %rsi
	callq	__ZN4core5slice18from_raw_parts_mut17h8bdd510747e63619E
	movq	%rax, -88(%rbp)
	movq	%rdx, -96(%rbp)
	movq	-88(%rbp), %rdi
	movq	-96(%rbp), %rsi
	movq	-32(%rbp), %rdx
	movq	-40(%rbp), %rcx
	callq	__ZN4core5slice29_$LT$impl$u20$$u5b$T$u5d$$GT$15copy_from_slice17hdfa8bf059712ede6E
	movq	-32(%rbp), %rdi
	movq	-40(%rbp), %rsi
	callq	__ZN4core5slice29_$LT$impl$u20$$u5b$T$u5d$$GT$3len17h1041e332438f20aaE
	movq	%rax, -104(%rbp)
	movq	-56(%rbp), %rax
	movq	-104(%rbp), %rcx
	addq	%rcx, %rax
	movq	-24(%rbp), %rdi
	movq	%rax, %rsi
	callq	__ZN5alloc3vec12Vec$LT$T$GT$7set_len17h3f6c36e5c04fae4fE
	addq	$112, %rsp
	popq	%rbp
	retq
	.cfi_endproc

	.globl	__ZN112_$LT$alloc..collections..btree..map..IntoIter$LT$K$C$V$GT$$u20$as$u20$core..iter..traits..iterator..Iterator$GT$4next17hb9fa795585bf407cE
	.p2align	4, 0x90
__ZN112_$LT$alloc..collections..btree..map..IntoIter$LT$K$C$V$GT$$u20$as$u20$core..iter..traits..iterator..Iterator$GT$4next17hb9fa795585bf407cE:
	.cfi_startproc
	pushq	%rbp
	.cfi_def_cfa_offset 16
	.cfi_offset %rbp, -16
	movq	%rsp, %rbp
	.cfi_def_cfa_register %rbp
	subq	$96, %rsp
	movq	%rdi, %rax
	cmpq	$0, 64(%rsi)
	movq	%rsi, -56(%rbp)
	movq	%rdi, -64(%rbp)
	movq	%rax, -72(%rbp)
	je	LBB8_2
	movq	-56(%rbp), %rax
	movq	64(%rax), %rcx
	subq	$1, %rcx
	movq	%rcx, 64(%rax)
	movq	%rax, %rdi
	callq	__ZN4core6option15Option$LT$T$GT$6as_mut17h0b7ffc0180470d98E
	movq	%rax, -80(%rbp)
	jmp	LBB8_3
LBB8_2:
	movq	-64(%rbp), %rax
	movq	$0, (%rax)
	jmp	LBB8_6
LBB8_3:
	leaq	l___unnamed_1(%rip), %rax
	movq	-80(%rbp), %rdi
	movq	%rax, %rsi
	callq	__ZN4core6option15Option$LT$T$GT$6unwrap17h8e57fc4b94b8ad27E
	movq	%rax, -88(%rbp)
	leaq	-48(%rbp), %rdi
	movq	-88(%rbp), %rsi
	callq	__ZN5alloc11collections5btree8navigate263_$LT$impl$u20$alloc..collections..btree..node..Handle$LT$alloc..collections..btree..node..NodeRef$LT$alloc..collections..btree..node..marker..Owned$C$K$C$V$C$alloc..collections..btree..node..marker..Leaf$GT$$C$alloc..collections..btree..node..marker..Edge$GT$$GT$14next_unchecked17h77f1394fce735f6dE
	movq	-64(%rbp), %rax
	leaq	-48(%rbp), %rcx
	movq	%rax, %rdi
	movq	%rcx, %rsi
	movl	$48, %edx
	callq	_memcpy
LBB8_6:
	movq	-72(%rbp), %rax
	addq	$96, %rsp
	popq	%rbp
	retq
	.cfi_endproc

	.globl	__ZN115_$LT$alloc..collections..btree..map..BTreeMap$LT$K$C$V$GT$$u20$as$u20$core..iter..traits..collect..IntoIterator$GT$9into_iter17hb0e8b4f024dbd3d7E
	.p2align	4, 0x90
__ZN115_$LT$alloc..collections..btree..map..BTreeMap$LT$K$C$V$GT$$u20$as$u20$core..iter..traits..collect..IntoIterator$GT$9into_iter17hb0e8b4f024dbd3d7E:
	.cfi_startproc
	pushq	%rbp
	.cfi_def_cfa_offset 16
	.cfi_offset %rbp, -16
	movq	%rsp, %rbp
	.cfi_def_cfa_register %rbp
	subq	$464, %rsp
	movq	%rdi, %rax
	movq	(%rsi), %rcx
	movq	%rcx, -408(%rbp)
	movq	8(%rsi), %rcx
	movq	%rcx, -400(%rbp)
	movq	16(%rsi), %rcx
	movq	%rcx, -392(%rbp)
	movq	-408(%rbp), %rcx
	movq	%rcx, -24(%rbp)
	movq	-400(%rbp), %rcx
	movq	%rcx, -16(%rbp)
	movq	-392(%rbp), %rcx
	movq	%rcx, -8(%rbp)
	movq	-24(%rbp), %rcx
	movq	%rcx, -432(%rbp)
	movq	-16(%rbp), %rcx
	movq	%rcx, -424(%rbp)
	movq	-8(%rbp), %rcx
	movq	%rcx, -416(%rbp)
	movq	%rdi, -440(%rbp)
	movq	%rax, -448(%rbp)
	leaq	-432(%rbp), %rax
	movq	%rax, -456(%rbp)
	movq	-456(%rbp), %rdi
	callq	__ZN4core6option15Option$LT$T$GT$4take17h1b39ab69ba8a46ceE
	movq	%rdx, -376(%rbp)
	movq	%rax, -384(%rbp)
	xorl	%eax, %eax
	movl	%eax, %ecx
	cmpq	$0, -384(%rbp)
	movl	$1, %edx
	cmovbeq	%rcx, %rdx
	cmpq	$1, %rdx
	je	LBB9_5
	movq	$0, -80(%rbp)
	movq	$0, -48(%rbp)
	movq	-88(%rbp), %rax
	movq	-440(%rbp), %rcx
	movq	%rax, (%rcx)
	movq	-80(%rbp), %rax
	movq	%rax, 8(%rcx)
	movq	-72(%rbp), %rax
	movq	%rax, 16(%rcx)
	movq	-64(%rbp), %rax
	movq	%rax, 24(%rcx)
	movq	-56(%rbp), %rax
	movq	%rax, 32(%rcx)
	movq	-48(%rbp), %rax
	movq	%rax, 40(%rcx)
	movq	-40(%rbp), %rax
	movq	%rax, 48(%rcx)
	movq	-32(%rbp), %rax
	movq	%rax, 56(%rcx)
	movq	$0, 64(%rcx)
	jmp	LBB9_9
LBB9_5:
	movq	-384(%rbp), %rsi
	movq	-376(%rbp), %rdx
	leaq	-240(%rbp), %rdi
	callq	__ZN5alloc11collections5btree4node17Root$LT$K$C$V$GT$8into_ref17h2d8a046141648b60E
	leaq	-304(%rbp), %rdi
	leaq	-240(%rbp), %rsi
	callq	__ZN5alloc11collections5btree3map17full_range_search17hdb81b65d1f314de9E
	movq	-304(%rbp), %rax
	movq	%rax, -368(%rbp)
	movq	-296(%rbp), %rax
	movq	%rax, -360(%rbp)
	movq	-288(%rbp), %rax
	movq	%rax, -352(%rbp)
	movq	-280(%rbp), %rax
	movq	%rax, -344(%rbp)
	movq	-272(%rbp), %rax
	movq	%rax, -336(%rbp)
	movq	-264(%rbp), %rax
	movq	%rax, -328(%rbp)
	movq	-256(%rbp), %rax
	movq	%rax, -320(%rbp)
	movq	-248(%rbp), %rax
	movq	%rax, -312(%rbp)
	movq	-368(%rbp), %rax
	movq	%rax, -184(%rbp)
	movq	-360(%rbp), %rax
	movq	%rax, -176(%rbp)
	movq	-352(%rbp), %rax
	movq	%rax, -168(%rbp)
	movq	-344(%rbp), %rax
	movq	%rax, -160(%rbp)
	movq	-184(%rbp), %rax
	movq	%rax, -216(%rbp)
	movq	-176(%rbp), %rax
	movq	%rax, -208(%rbp)
	movq	-168(%rbp), %rax
	movq	%rax, -200(%rbp)
	movq	-160(%rbp), %rax
	movq	%rax, -192(%rbp)
	movq	-336(%rbp), %rax
	movq	%rax, -120(%rbp)
	movq	-328(%rbp), %rax
	movq	%rax, -112(%rbp)
	movq	-320(%rbp), %rax
	movq	%rax, -104(%rbp)
	movq	-312(%rbp), %rax
	movq	%rax, -96(%rbp)
	movq	-120(%rbp), %rax
	movq	%rax, -152(%rbp)
	movq	-112(%rbp), %rax
	movq	%rax, -144(%rbp)
	movq	-104(%rbp), %rax
	movq	%rax, -136(%rbp)
	movq	-96(%rbp), %rax
	movq	%rax, -128(%rbp)
	leaq	-432(%rbp), %rax
	movq	%rax, -464(%rbp)
	movq	-464(%rbp), %rax
	movq	16(%rax), %rcx
	movq	-216(%rbp), %rdx
	movq	-440(%rbp), %rsi
	movq	%rdx, (%rsi)
	movq	-208(%rbp), %rdx
	movq	%rdx, 8(%rsi)
	movq	-200(%rbp), %rdx
	movq	%rdx, 16(%rsi)
	movq	-192(%rbp), %rdx
	movq	%rdx, 24(%rsi)
	movq	-152(%rbp), %rdx
	movq	%rdx, 32(%rsi)
	movq	-144(%rbp), %rdx
	movq	%rdx, 40(%rsi)
	movq	-136(%rbp), %rdx
	movq	%rdx, 48(%rsi)
	movq	-128(%rbp), %rdx
	movq	%rdx, 56(%rsi)
	movq	%rcx, 64(%rsi)
LBB9_9:
	movq	-448(%rbp), %rax
	addq	$464, %rsp
	popq	%rbp
	retq
	.cfi_endproc

	.globl	__ZN119_$LT$core..ptr..non_null..NonNull$LT$T$GT$$u20$as$u20$core..convert..From$LT$core..ptr..unique..Unique$LT$T$GT$$GT$$GT$4from17h320e618e7ecf8041E
	.p2align	4, 0x90
__ZN119_$LT$core..ptr..non_null..NonNull$LT$T$GT$$u20$as$u20$core..convert..From$LT$core..ptr..unique..Unique$LT$T$GT$$GT$$GT$4from17h320e618e7ecf8041E:
	.cfi_startproc
	pushq	%rbp
	.cfi_def_cfa_offset 16
	.cfi_offset %rbp, -16
	movq	%rsp, %rbp
	.cfi_def_cfa_register %rbp
	subq	$16, %rsp
	callq	__ZN4core3ptr6unique15Unique$LT$T$GT$6as_ptr17h1e1317169feaa176E
	movq	%rax, -8(%rbp)
	movq	-8(%rbp), %rdi
	callq	__ZN4core3ptr8non_null16NonNull$LT$T$GT$13new_unchecked17h518c6266731d5d2aE
	movq	%rax, -16(%rbp)
	movq	-16(%rbp), %rax
	addq	$16, %rsp
	popq	%rbp
	retq
	.cfi_endproc

	.globl	__ZN119_$LT$core..ptr..non_null..NonNull$LT$T$GT$$u20$as$u20$core..convert..From$LT$core..ptr..unique..Unique$LT$T$GT$$GT$$GT$4from17h8cb7073e2fb58332E
	.p2align	4, 0x90
__ZN119_$LT$core..ptr..non_null..NonNull$LT$T$GT$$u20$as$u20$core..convert..From$LT$core..ptr..unique..Unique$LT$T$GT$$GT$$GT$4from17h8cb7073e2fb58332E:
	.cfi_startproc
	pushq	%rbp
	.cfi_def_cfa_offset 16
	.cfi_offset %rbp, -16
	movq	%rsp, %rbp
	.cfi_def_cfa_register %rbp
	subq	$16, %rsp
	callq	__ZN4core3ptr6unique15Unique$LT$T$GT$6as_ptr17hbfb463f3d59ac79aE
	movq	%rax, -8(%rbp)
	movq	-8(%rbp), %rdi
	callq	__ZN4core3ptr8non_null16NonNull$LT$T$GT$13new_unchecked17h713c269e83c0d938E
	movq	%rax, -16(%rbp)
	movq	-16(%rbp), %rax
	addq	$16, %rsp
	popq	%rbp
	retq
	.cfi_endproc

	.globl	__ZN166_$LT$$LT$alloc..collections..btree..map..IntoIter$LT$K$C$V$GT$$u20$as$u20$core..ops..drop..Drop$GT$..drop..DropGuard$LT$K$C$V$GT$$u20$as$u20$core..ops..drop..Drop$GT$4drop17h8b88e3ff4d29b3d5E
	.p2align	4, 0x90
__ZN166_$LT$$LT$alloc..collections..btree..map..IntoIter$LT$K$C$V$GT$$u20$as$u20$core..ops..drop..Drop$GT$..drop..DropGuard$LT$K$C$V$GT$$u20$as$u20$core..ops..drop..Drop$GT$4drop17h8b88e3ff4d29b3d5E:
	.cfi_startproc
	pushq	%rbp
	.cfi_def_cfa_offset 16
	.cfi_offset %rbp, -16
	movq	%rsp, %rbp
	.cfi_def_cfa_register %rbp
	subq	$368, %rsp
	movq	%rdi, -368(%rbp)
LBB12_1:
	movq	-368(%rbp), %rax
	movq	(%rax), %rsi
	leaq	-360(%rbp), %rdi
	callq	__ZN112_$LT$alloc..collections..btree..map..IntoIter$LT$K$C$V$GT$$u20$as$u20$core..iter..traits..iterator..Iterator$GT$4next17hb9fa795585bf407cE
	xorl	%eax, %eax
	movl	%eax, %ecx
	cmpq	$0, -360(%rbp)
	movl	$1, %edx
	cmovbeq	%rcx, %rdx
	cmpq	$1, %rdx
	je	LBB12_4
	leaq	-360(%rbp), %rdi
	callq	__ZN4core3ptr13drop_in_place17hf4629bc92bb9e572E
	jmp	LBB12_5
LBB12_4:
	leaq	-360(%rbp), %rdi
	callq	__ZN4core3ptr13drop_in_place17hf4629bc92bb9e572E
	jmp	LBB12_6
LBB12_5:
	movq	-368(%rbp), %rax
	movq	(%rax), %rcx
	leaq	-232(%rbp), %rdi
	movq	%rcx, %rsi
	callq	__ZN4core3ptr4read17hde4f45ed31dc9193E
	jmp	LBB12_7
LBB12_6:
	jmp	LBB12_1
LBB12_7:
	movq	-232(%rbp), %rax
	movq	%rax, -32(%rbp)
	movq	-224(%rbp), %rax
	movq	%rax, -24(%rbp)
	movq	-216(%rbp), %rax
	movq	%rax, -16(%rbp)
	movq	-208(%rbp), %rax
	movq	%rax, -8(%rbp)
	leaq	-264(%rbp), %rdi
	leaq	-32(%rbp), %rsi
	callq	__ZN4core6option15Option$LT$T$GT$14unwrap_or_else17he3b1ddc8873d0713E
	leaq	-288(%rbp), %rdi
	leaq	-264(%rbp), %rsi
	callq	__ZN5alloc11collections5btree4node25Handle$LT$Node$C$Type$GT$9into_node17hcf8fb98b6d36cf02E
	leaq	-312(%rbp), %rdi
	leaq	-288(%rbp), %rsi
	callq	__ZN5alloc11collections5btree4node40NodeRef$LT$BorrowType$C$K$C$V$C$Type$GT$11forget_type17h25ef875d30acaf02E
	jmp	LBB12_11
LBB12_11:
	movq	-312(%rbp), %rax
	movq	%rax, -168(%rbp)
	movq	-304(%rbp), %rax
	movq	%rax, -160(%rbp)
	movq	-296(%rbp), %rax
	movq	%rax, -152(%rbp)
	leaq	-200(%rbp), %rdi
	leaq	-168(%rbp), %rsi
	callq	__ZN5alloc11collections5btree4node127NodeRef$LT$alloc..collections..btree..node..marker..Owned$C$K$C$V$C$alloc..collections..btree..node..marker..LeafOrInternal$GT$21deallocate_and_ascend17hada7ee0e5b7cad5fE
	xorl	%eax, %eax
	movl	%eax, %ecx
	cmpq	$0, -192(%rbp)
	movl	$1, %edx
	cmovbeq	%rcx, %rdx
	cmpq	$1, %rdx
	je	LBB12_14
	addq	$368, %rsp
	popq	%rbp
	retq
LBB12_14:
	movq	-200(%rbp), %rax
	movq	%rax, -144(%rbp)
	movq	-192(%rbp), %rax
	movq	%rax, -136(%rbp)
	movq	-184(%rbp), %rax
	movq	%rax, -128(%rbp)
	movq	-176(%rbp), %rax
	movq	%rax, -120(%rbp)
	movq	-144(%rbp), %rax
	movq	%rax, -64(%rbp)
	movq	-136(%rbp), %rax
	movq	%rax, -56(%rbp)
	movq	-128(%rbp), %rax
	movq	%rax, -48(%rbp)
	movq	-120(%rbp), %rax
	movq	%rax, -40(%rbp)
	leaq	-88(%rbp), %rdi
	leaq	-64(%rbp), %rsi
	callq	__ZN5alloc11collections5btree4node25Handle$LT$Node$C$Type$GT$9into_node17h9945c28c6cd88609E
	leaq	-112(%rbp), %rdi
	leaq	-88(%rbp), %rsi
	callq	__ZN5alloc11collections5btree4node40NodeRef$LT$BorrowType$C$K$C$V$C$Type$GT$11forget_type17h488f94949d64b9faE
	movq	-112(%rbp), %rax
	movq	%rax, -312(%rbp)
	movq	-104(%rbp), %rax
	movq	%rax, -304(%rbp)
	movq	-96(%rbp), %rax
	movq	%rax, -296(%rbp)
	jmp	LBB12_11
	.cfi_endproc

	.p2align	4, 0x90
__ZN3std10sys_common12os_str_bytes3Buf8as_slice17h4cb57a272aa663b0E:
	.cfi_startproc
	pushq	%rbp
	.cfi_def_cfa_offset 16
	.cfi_offset %rbp, -16
	movq	%rsp, %rbp
	.cfi_def_cfa_register %rbp
	subq	$48, %rsp
	callq	__ZN68_$LT$alloc..vec..Vec$LT$T$GT$$u20$as$u20$core..ops..deref..Deref$GT$5deref17h299c5416faace153E
	movq	%rax, -24(%rbp)
	movq	%rdx, -32(%rbp)
	movq	-24(%rbp), %rax
	movq	%rax, -16(%rbp)
	movq	-32(%rbp), %rcx
	movq	%rcx, -8(%rbp)
	movq	-16(%rbp), %rax
	movq	-8(%rbp), %rdx
	movq	%rax, -40(%rbp)
	movq	%rdx, -48(%rbp)
	movq	-40(%rbp), %rax
	movq	-48(%rbp), %rdx
	addq	$48, %rsp
	popq	%rbp
	retq
	.cfi_endproc

	.p2align	4, 0x90
__ZN3std10sys_common12os_str_bytes5Slice13from_u8_slice17hc275508a95cdacc6E:
	.cfi_startproc
	pushq	%rbp
	.cfi_def_cfa_offset 16
	.cfi_offset %rbp, -16
	movq	%rsp, %rbp
	.cfi_def_cfa_register %rbp
	subq	$32, %rsp
	movq	%rdi, -16(%rbp)
	movq	%rsi, -8(%rbp)
	movq	-16(%rbp), %rax
	movq	-8(%rbp), %rdx
	movq	%rax, -24(%rbp)
	movq	%rdx, -32(%rbp)
	movq	-24(%rbp), %rax
	movq	-32(%rbp), %rdx
	addq	$32, %rsp
	popq	%rbp
	retq
	.cfi_endproc

	.p2align	4, 0x90
__ZN3std10sys_common12os_str_bytes5Slice8from_str17hd021e28cb4e5ca50E:
	.cfi_startproc
	pushq	%rbp
	.cfi_def_cfa_offset 16
	.cfi_offset %rbp, -16
	movq	%rsp, %rbp
	.cfi_def_cfa_register %rbp
	subq	$48, %rsp
	movq	%rdi, -16(%rbp)
	movq	%rsi, -8(%rbp)
	movq	-16(%rbp), %rdi
	movq	-8(%rbp), %rsi
	movq	%rdi, -24(%rbp)
	movq	%rsi, -32(%rbp)
	movq	-24(%rbp), %rdi
	movq	-32(%rbp), %rsi
	callq	__ZN3std10sys_common12os_str_bytes5Slice13from_u8_slice17hc275508a95cdacc6E
	movq	%rax, -40(%rbp)
	movq	%rdx, -48(%rbp)
	movq	-40(%rbp), %rax
	movq	-48(%rbp), %rdx
	addq	$48, %rsp
	popq	%rbp
	retq
	.cfi_endproc

	.p2align	4, 0x90
__ZN3std2fs8Metadata17h3fb8b51230026cbdE:
	.cfi_startproc
	pushq	%rbp
	.cfi_def_cfa_offset 16
	.cfi_offset %rbp, -16
	movq	%rsp, %rbp
	.cfi_def_cfa_register %rbp
	subq	$16, %rsp
	movq	%rdi, %rax
	movl	$144, %edx
	movq	%rax, -8(%rbp)
	callq	_memcpy
	movq	-8(%rbp), %rax
	addq	$16, %rsp
	popq	%rbp
	retq
	.cfi_endproc

	.globl	__ZN3std2fs8metadata17hec15f85144a7b007E
	.p2align	4, 0x90
__ZN3std2fs8metadata17hec15f85144a7b007E:
Lfunc_begin0:
	.cfi_startproc
	.cfi_personality 155, _rust_eh_personality
	.cfi_lsda 16, Lexception0
	pushq	%rbp
	.cfi_def_cfa_offset 16
	.cfi_offset %rbp, -16
	movq	%rsp, %rbp
	.cfi_def_cfa_register %rbp
	subq	$208, %rsp
	movq	%rdi, %rax
	movq	%rsi, -176(%rbp)
Ltmp0:
	leaq	-176(%rbp), %rcx
	movq	%rdi, -184(%rbp)
	movq	%rcx, %rdi
	movq	%rax, -192(%rbp)
	callq	__ZN55_$LT$$RF$T$u20$as$u20$core..convert..AsRef$LT$U$GT$$GT$6as_ref17h2f7a9c1ed709a5b0E
Ltmp1:
	movq	%rdx, -200(%rbp)
	movq	%rax, -208(%rbp)
	jmp	LBB17_2
LBB17_1:
	movq	-16(%rbp), %rdi
	callq	__Unwind_Resume
	ud2
LBB17_2:
Ltmp2:
	leaq	-168(%rbp), %rdi
	movq	-208(%rbp), %rsi
	movq	-200(%rbp), %rdx
	callq	__ZN3std3sys4unix2fs4stat17hfe531d9a8f5ece5bE
Ltmp3:
	jmp	LBB17_4
LBB17_3:
	jmp	LBB17_1
LBB17_4:
Ltmp4:
	leaq	-168(%rbp), %rsi
	movq	-184(%rbp), %rdi
	callq	__ZN4core6result19Result$LT$T$C$E$GT$3map17ha9f46b12ac1d9a87E
Ltmp5:
	jmp	LBB17_5
LBB17_5:
	jmp	LBB17_6
LBB17_6:
	movq	-192(%rbp), %rax
	addq	$208, %rsp
	popq	%rbp
	retq
LBB17_7:
Ltmp6:
	movq	%rax, -16(%rbp)
	movl	%edx, -8(%rbp)
	jmp	LBB17_3
Lfunc_end0:
	.cfi_endproc
	.section	__TEXT,__gcc_except_tab
	.p2align	2
GCC_except_table17:
Lexception0:
	.byte	255
	.byte	255
	.byte	1
	.uleb128 Lcst_end0-Lcst_begin0
Lcst_begin0:
	.uleb128 Ltmp0-Lfunc_begin0
	.uleb128 Ltmp1-Ltmp0
	.uleb128 Ltmp6-Lfunc_begin0
	.byte	0
	.uleb128 Ltmp1-Lfunc_begin0
	.uleb128 Ltmp2-Ltmp1
	.byte	0
	.byte	0
	.uleb128 Ltmp2-Lfunc_begin0
	.uleb128 Ltmp5-Ltmp2
	.uleb128 Ltmp6-Lfunc_begin0
	.byte	0
Lcst_end0:
	.p2align	2

	.section	__TEXT,__text,regular,pure_instructions
	.globl	__ZN3std2io5Write9write_all17hf1af013619b16632E
	.p2align	4, 0x90
__ZN3std2io5Write9write_all17hf1af013619b16632E:
Lfunc_begin1:
	.cfi_startproc
	.cfi_personality 155, _rust_eh_personality
	.cfi_lsda 16, Lexception1
	pushq	%rbp
	.cfi_def_cfa_offset 16
	.cfi_offset %rbp, -16
	movq	%rsp, %rbp
	.cfi_def_cfa_register %rbp
	subq	$192, %rsp
	movq	%rdi, %rax
	movq	%rdx, -136(%rbp)
	movq	%rcx, -128(%rbp)
	movb	$0, -17(%rbp)
	movq	%rsi, -144(%rbp)
	movq	%rdi, -152(%rbp)
	movq	%rax, -160(%rbp)
LBB18_1:
	movq	-136(%rbp), %rdi
	movq	-128(%rbp), %rsi
	callq	__ZN4core5slice29_$LT$impl$u20$$u5b$T$u5d$$GT$8is_empty17h92fa020e06f8b8feE
	movb	%al, -161(%rbp)
	jmp	LBB18_3
LBB18_2:
	movq	-16(%rbp), %rdi
	callq	__Unwind_Resume
	ud2
LBB18_3:
	movb	-161(%rbp), %al
	xorb	$-1, %al
	testb	$1, %al
	jne	LBB18_5
	movq	-152(%rbp), %rax
	movb	$3, (%rax)
	jmp	LBB18_10
LBB18_5:
	movq	-136(%rbp), %rdx
	movq	-128(%rbp), %rcx
	movb	$1, -17(%rbp)
	leaq	-120(%rbp), %rdi
	movq	-144(%rbp), %rsi
	callq	__ZN59_$LT$std..process..ChildStdin$u20$as$u20$std..io..Write$GT$5write17hcaa25870728ab701E
	movq	-120(%rbp), %rax
	testq	%rax, %rax
	je	LBB18_7
	jmp	LBB18_28
LBB18_28:
	jmp	LBB18_15
LBB18_7:
	cmpq	$0, -112(%rbp)
	je	LBB18_9
	jmp	LBB18_13
	ud2
LBB18_9:
Ltmp13:
	leaq	l___unnamed_2(%rip), %rdx
	leaq	-96(%rbp), %rdi
	movl	$14, %esi
	movl	$28, %ecx
	callq	__ZN3std2io5error5Error3new17he0bedb6535cdc6b1E
Ltmp14:
	jmp	LBB18_11
LBB18_10:
	movq	-160(%rbp), %rax
	addq	$192, %rsp
	popq	%rbp
	retq
LBB18_11:
	movq	-96(%rbp), %rax
	movq	-152(%rbp), %rcx
	movq	%rax, (%rcx)
	movq	-88(%rbp), %rax
	movq	%rax, 8(%rcx)
LBB18_12:
	movb	$0, -17(%rbp)
	jmp	LBB18_10
LBB18_13:
	movq	-112(%rbp), %rax
	movq	-136(%rbp), %rdi
	movq	-128(%rbp), %rsi
	movq	%rax, -80(%rbp)
	movq	-80(%rbp), %rdx
Ltmp11:
	leaq	l___unnamed_3(%rip), %rcx
	callq	__ZN4core5slice74_$LT$impl$u20$core..ops..index..Index$LT$I$GT$$u20$for$u20$$u5b$T$u5d$$GT$5index17h34421b2a2cd35144E
Ltmp12:
	movq	%rdx, -176(%rbp)
	movq	%rax, -184(%rbp)
	jmp	LBB18_14
LBB18_14:
	movq	-184(%rbp), %rax
	movq	%rax, -136(%rbp)
	movq	-176(%rbp), %rax
	movq	%rax, -128(%rbp)
	jmp	LBB18_26
LBB18_15:
	leaq	-112(%rbp), %rax
	movq	%rax, -72(%rbp)
	movq	-72(%rbp), %rdi
Ltmp7:
	callq	__ZN3std2io5error5Error4kind17hd9a6c08a173f0df0E
Ltmp8:
	movb	%al, -185(%rbp)
	jmp	LBB18_16
LBB18_16:
	movb	-185(%rbp), %al
	movb	%al, -57(%rbp)
	movq	l___unnamed_4(%rip), %rsi
Ltmp9:
	leaq	-57(%rbp), %rdi
	callq	__ZN66_$LT$std..io..error..ErrorKind$u20$as$u20$core..cmp..PartialEq$GT$2eq17h6c5c3d0ed110a91aE
Ltmp10:
	movb	%al, -186(%rbp)
	jmp	LBB18_17
LBB18_17:
	movb	-186(%rbp), %al
	testb	$1, %al
	jne	LBB18_18
	jmp	LBB18_19
LBB18_18:
	jmp	LBB18_26
LBB18_19:
	movb	$0, -17(%rbp)
	movq	-112(%rbp), %rax
	movq	%rax, -56(%rbp)
	movq	-104(%rbp), %rax
	movq	%rax, -48(%rbp)
	movq	-56(%rbp), %rax
	movq	%rax, -40(%rbp)
	movq	-48(%rbp), %rax
	movq	%rax, -32(%rbp)
	movq	-40(%rbp), %rax
	movq	-152(%rbp), %rcx
	movq	%rax, (%rcx)
	movq	-32(%rbp), %rax
	movq	%rax, 8(%rcx)
	jmp	LBB18_12
LBB18_20:
	testb	$1, -17(%rbp)
	je	LBB18_2
	movb	$0, -17(%rbp)
	leaq	-120(%rbp), %rax
	addq	$8, %rax
	movq	%rax, %rdi
	callq	__ZN4core3ptr13drop_in_place17h567ad759a8e8c794E
	jmp	LBB18_2
LBB18_22:
	cmpq	$1, -120(%rbp)
	je	LBB18_20
	jmp	LBB18_2
LBB18_23:
	movb	$0, -17(%rbp)
	jmp	LBB18_1
LBB18_24:
	testb	$1, -17(%rbp)
	je	LBB18_23
	movb	$0, -17(%rbp)
	leaq	-120(%rbp), %rax
	addq	$8, %rax
	movq	%rax, %rdi
	callq	__ZN4core3ptr13drop_in_place17h567ad759a8e8c794E
	jmp	LBB18_23
LBB18_26:
	cmpq	$1, -120(%rbp)
	je	LBB18_24
	jmp	LBB18_23
LBB18_27:
Ltmp15:
	movq	%rax, -16(%rbp)
	movl	%edx, -8(%rbp)
	jmp	LBB18_22
Lfunc_end1:
	.cfi_endproc
	.section	__TEXT,__gcc_except_tab
	.p2align	2
GCC_except_table18:
Lexception1:
	.byte	255
	.byte	255
	.byte	1
	.uleb128 Lcst_end1-Lcst_begin1
Lcst_begin1:
	.uleb128 Lfunc_begin1-Lfunc_begin1
	.uleb128 Ltmp13-Lfunc_begin1
	.byte	0
	.byte	0
	.uleb128 Ltmp13-Lfunc_begin1
	.uleb128 Ltmp10-Ltmp13
	.uleb128 Ltmp15-Lfunc_begin1
	.byte	0
	.uleb128 Ltmp10-Lfunc_begin1
	.uleb128 Lfunc_end1-Ltmp10
	.byte	0
	.byte	0
Lcst_end1:
	.p2align	2

	.section	__TEXT,__text,regular,pure_instructions
	.globl	__ZN3std2io5error5Error3new17he0bedb6535cdc6b1E
	.p2align	4, 0x90
__ZN3std2io5error5Error3new17he0bedb6535cdc6b1E:
	.cfi_startproc
	pushq	%rbp
	.cfi_def_cfa_offset 16
	.cfi_offset %rbp, -16
	movq	%rsp, %rbp
	.cfi_def_cfa_register %rbp
	subq	$48, %rsp
	movq	%rdi, %rax
	movq	%rdi, -8(%rbp)
	movq	%rdx, %rdi
	movb	%sil, -9(%rbp)
	movq	%rcx, %rsi
	movq	%rax, -24(%rbp)
	callq	__ZN50_$LT$T$u20$as$u20$core..convert..Into$LT$U$GT$$GT$4into17hf8c43f5f269c54b8E
	movq	%rax, -32(%rbp)
	movq	%rdx, -40(%rbp)
	movq	-8(%rbp), %rdi
	movb	-9(%rbp), %al
	movzbl	%al, %esi
	movq	-32(%rbp), %rdx
	movq	-40(%rbp), %rcx
	callq	__ZN3std2io5error5Error4_new17hb256250a216f5df7E
	movq	-24(%rbp), %rax
	addq	$48, %rsp
	popq	%rbp
	retq
	.cfi_endproc

	.globl	__ZN3std3env3var17hcfec445197cc4ce1E
	.p2align	4, 0x90
__ZN3std3env3var17hcfec445197cc4ce1E:
Lfunc_begin2:
	.cfi_startproc
	.cfi_personality 155, _rust_eh_personality
	.cfi_lsda 16, Lexception2
	pushq	%rbp
	.cfi_def_cfa_offset 16
	.cfi_offset %rbp, -16
	movq	%rsp, %rbp
	.cfi_def_cfa_register %rbp
	subq	$64, %rsp
	movq	%rdi, %rax
	movq	%rsi, -32(%rbp)
	movq	%rdx, -24(%rbp)
Ltmp16:
	leaq	-32(%rbp), %rcx
	movq	%rdi, -40(%rbp)
	movq	%rcx, %rdi
	movq	%rax, -48(%rbp)
	callq	__ZN55_$LT$$RF$T$u20$as$u20$core..convert..AsRef$LT$U$GT$$GT$6as_ref17h6ce00e579c43e855E
Ltmp17:
	movq	%rdx, -56(%rbp)
	movq	%rax, -64(%rbp)
	jmp	LBB20_2
LBB20_1:
	movq	-16(%rbp), %rdi
	callq	__Unwind_Resume
	ud2
LBB20_2:
Ltmp18:
	movq	-40(%rbp), %rdi
	movq	-64(%rbp), %rsi
	movq	-56(%rbp), %rdx
	callq	__ZN3std3env4_var17h5f49b4c5e0582abcE
Ltmp19:
	jmp	LBB20_4
LBB20_3:
	jmp	LBB20_1
LBB20_4:
	jmp	LBB20_5
LBB20_5:
	movq	-48(%rbp), %rax
	addq	$64, %rsp
	popq	%rbp
	retq
LBB20_6:
Ltmp20:
	movq	%rax, -16(%rbp)
	movl	%edx, -8(%rbp)
	jmp	LBB20_3
Lfunc_end2:
	.cfi_endproc
	.section	__TEXT,__gcc_except_tab
	.p2align	2
GCC_except_table20:
Lexception2:
	.byte	255
	.byte	255
	.byte	1
	.uleb128 Lcst_end2-Lcst_begin2
Lcst_begin2:
	.uleb128 Ltmp16-Lfunc_begin2
	.uleb128 Ltmp17-Ltmp16
	.uleb128 Ltmp20-Lfunc_begin2
	.byte	0
	.uleb128 Ltmp17-Lfunc_begin2
	.uleb128 Ltmp18-Ltmp17
	.byte	0
	.byte	0
	.uleb128 Ltmp18-Lfunc_begin2
	.uleb128 Ltmp19-Ltmp18
	.uleb128 Ltmp20-Lfunc_begin2
	.byte	0
Lcst_end2:
	.p2align	2

	.section	__TEXT,__text,regular,pure_instructions
	.globl	__ZN3std3env6var_os17hda1177bc38e1a9d3E
	.p2align	4, 0x90
__ZN3std3env6var_os17hda1177bc38e1a9d3E:
Lfunc_begin3:
	.cfi_startproc
	.cfi_personality 155, _rust_eh_personality
	.cfi_lsda 16, Lexception3
	pushq	%rbp
	.cfi_def_cfa_offset 16
	.cfi_offset %rbp, -16
	movq	%rsp, %rbp
	.cfi_def_cfa_register %rbp
	subq	$64, %rsp
	movq	%rdi, %rax
	movq	%rsi, -32(%rbp)
	movq	%rdx, -24(%rbp)
Ltmp21:
	leaq	-32(%rbp), %rcx
	movq	%rdi, -40(%rbp)
	movq	%rcx, %rdi
	movq	%rax, -48(%rbp)
	callq	__ZN55_$LT$$RF$T$u20$as$u20$core..convert..AsRef$LT$U$GT$$GT$6as_ref17h6ce00e579c43e855E
Ltmp22:
	movq	%rdx, -56(%rbp)
	movq	%rax, -64(%rbp)
	jmp	LBB21_2
LBB21_1:
	movq	-16(%rbp), %rdi
	callq	__Unwind_Resume
	ud2
LBB21_2:
Ltmp23:
	movq	-40(%rbp), %rdi
	movq	-64(%rbp), %rsi
	movq	-56(%rbp), %rdx
	callq	__ZN3std3env7_var_os17hc628b18a701aa4a3E
Ltmp24:
	jmp	LBB21_4
LBB21_3:
	jmp	LBB21_1
LBB21_4:
	jmp	LBB21_5
LBB21_5:
	movq	-48(%rbp), %rax
	addq	$64, %rsp
	popq	%rbp
	retq
LBB21_6:
Ltmp25:
	movq	%rax, -16(%rbp)
	movl	%edx, -8(%rbp)
	jmp	LBB21_3
Lfunc_end3:
	.cfi_endproc
	.section	__TEXT,__gcc_except_tab
	.p2align	2
GCC_except_table21:
Lexception3:
	.byte	255
	.byte	255
	.byte	1
	.uleb128 Lcst_end3-Lcst_begin3
Lcst_begin3:
	.uleb128 Ltmp21-Lfunc_begin3
	.uleb128 Ltmp22-Ltmp21
	.uleb128 Ltmp25-Lfunc_begin3
	.byte	0
	.uleb128 Ltmp22-Lfunc_begin3
	.uleb128 Ltmp23-Ltmp22
	.byte	0
	.byte	0
	.uleb128 Ltmp23-Lfunc_begin3
	.uleb128 Ltmp24-Ltmp23
	.uleb128 Ltmp25-Lfunc_begin3
	.byte	0
Lcst_end3:
	.p2align	2

	.section	__TEXT,__text,regular,pure_instructions
	.p2align	4, 0x90
__ZN3std3ffi6os_str103_$LT$impl$u20$core..convert..AsRef$LT$std..ffi..os_str..OsStr$GT$$u20$for$u20$alloc..string..String$GT$6as_ref17h2b0f97cce06f16cdE:
	.cfi_startproc
	pushq	%rbp
	.cfi_def_cfa_offset 16
	.cfi_offset %rbp, -16
	movq	%rsp, %rbp
	.cfi_def_cfa_register %rbp
	subq	$32, %rsp
	callq	__ZN65_$LT$alloc..string..String$u20$as$u20$core..ops..deref..Deref$GT$5deref17h08e6fcdd1bcc661bE
	movq	%rax, -8(%rbp)
	movq	%rdx, -16(%rbp)
	movq	-8(%rbp), %rdi
	movq	-16(%rbp), %rsi
	callq	__ZN3std3ffi6os_str85_$LT$impl$u20$core..convert..AsRef$LT$std..ffi..os_str..OsStr$GT$$u20$for$u20$str$GT$6as_ref17h8e6dafc8f6e504beE
	movq	%rax, -24(%rbp)
	movq	%rdx, -32(%rbp)
	movq	-24(%rbp), %rax
	movq	-32(%rbp), %rdx
	addq	$32, %rsp
	popq	%rbp
	retq
	.cfi_endproc

	.p2align	4, 0x90
__ZN3std3ffi6os_str5OsStr10from_inner17h0c50d268ce0236b2E:
	.cfi_startproc
	pushq	%rbp
	.cfi_def_cfa_offset 16
	.cfi_offset %rbp, -16
	movq	%rsp, %rbp
	.cfi_def_cfa_register %rbp
	movq	%rdi, %rax
	movq	%rsi, %rdx
	popq	%rbp
	retq
	.cfi_endproc

	.p2align	4, 0x90
__ZN3std3ffi6os_str85_$LT$impl$u20$core..convert..AsRef$LT$std..ffi..os_str..OsStr$GT$$u20$for$u20$str$GT$6as_ref17h8e6dafc8f6e504beE:
	.cfi_startproc
	pushq	%rbp
	.cfi_def_cfa_offset 16
	.cfi_offset %rbp, -16
	movq	%rsp, %rbp
	.cfi_def_cfa_register %rbp
	subq	$32, %rsp
	callq	__ZN3std10sys_common12os_str_bytes5Slice8from_str17hd021e28cb4e5ca50E
	movq	%rax, -8(%rbp)
	movq	%rdx, -16(%rbp)
	movq	-8(%rbp), %rdi
	movq	-16(%rbp), %rsi
	callq	__ZN3std3ffi6os_str5OsStr10from_inner17h0c50d268ce0236b2E
	movq	%rax, -24(%rbp)
	movq	%rdx, -32(%rbp)
	movq	-24(%rbp), %rax
	movq	-32(%rbp), %rdx
	addq	$32, %rsp
	popq	%rbp
	retq
	.cfi_endproc

	.globl	__ZN3std4path4Path3new17h4de46ac06895415fE
	.p2align	4, 0x90
__ZN3std4path4Path3new17h4de46ac06895415fE:
	.cfi_startproc
	pushq	%rbp
	.cfi_def_cfa_offset 16
	.cfi_offset %rbp, -16
	movq	%rsp, %rbp
	.cfi_def_cfa_register %rbp
	subq	$16, %rsp
	callq	__ZN98_$LT$std..ffi..os_str..OsString$u20$as$u20$core..convert..AsRef$LT$std..ffi..os_str..OsStr$GT$$GT$6as_ref17ha4902b02f67c4c7eE
	movq	%rax, -8(%rbp)
	movq	%rdx, -16(%rbp)
	movq	-8(%rbp), %rax
	movq	-16(%rbp), %rdx
	addq	$16, %rsp
	popq	%rbp
	retq
	.cfi_endproc

	.p2align	4, 0x90
__ZN3std5error161_$LT$impl$u20$core..convert..From$LT$$RF$str$GT$$u20$for$u20$alloc..boxed..Box$LT$dyn$u20$std..error..Error$u2b$core..marker..Sync$u2b$core..marker..Send$GT$$GT$4from17h09a27d34221bc438E:
	.cfi_startproc
	pushq	%rbp
	.cfi_def_cfa_offset 16
	.cfi_offset %rbp, -16
	movq	%rsp, %rbp
	.cfi_def_cfa_register %rbp
	subq	$64, %rsp
	leaq	-24(%rbp), %rax
	movq	%rdi, -32(%rbp)
	movq	%rax, %rdi
	movq	-32(%rbp), %rax
	movq	%rsi, -40(%rbp)
	movq	%rax, %rsi
	movq	-40(%rbp), %rdx
	callq	__ZN76_$LT$alloc..string..String$u20$as$u20$core..convert..From$LT$$RF$str$GT$$GT$4from17hb1495455c8d6be05E
	leaq	-24(%rbp), %rdi
	callq	__ZN3std5error175_$LT$impl$u20$core..convert..From$LT$alloc..string..String$GT$$u20$for$u20$alloc..boxed..Box$LT$dyn$u20$std..error..Error$u2b$core..marker..Sync$u2b$core..marker..Send$GT$$GT$4from17h6fe0b12940482f9fE
	movq	%rax, -48(%rbp)
	movq	%rdx, -56(%rbp)
	movq	-48(%rbp), %rax
	movq	-56(%rbp), %rdx
	addq	$64, %rsp
	popq	%rbp
	retq
	.cfi_endproc

	.p2align	4, 0x90
__ZN3std5error175_$LT$impl$u20$core..convert..From$LT$alloc..string..String$GT$$u20$for$u20$alloc..boxed..Box$LT$dyn$u20$std..error..Error$u2b$core..marker..Sync$u2b$core..marker..Send$GT$$GT$4from17h6fe0b12940482f9fE:
	.cfi_startproc
	pushq	%rbp
	.cfi_def_cfa_offset 16
	.cfi_offset %rbp, -16
	movq	%rsp, %rbp
	.cfi_def_cfa_register %rbp
	subq	$64, %rsp
	movq	(%rdi), %rax
	movq	%rax, -24(%rbp)
	movq	8(%rdi), %rax
	movq	%rax, -16(%rbp)
	movq	16(%rdi), %rax
	movq	%rax, -8(%rbp)
	movq	-24(%rbp), %rax
	movq	%rax, -48(%rbp)
	movq	-16(%rbp), %rax
	movq	%rax, -40(%rbp)
	movq	-8(%rbp), %rax
	movq	%rax, -32(%rbp)
	movl	$24, %edi
	movl	$8, %esi
	callq	__ZN5alloc5alloc15exchange_malloc17h06c14cd372f9e68cE
	movq	%rax, %rcx
	movq	-48(%rbp), %rdx
	movq	%rdx, (%rax)
	movq	-40(%rbp), %rdx
	movq	%rdx, 8(%rax)
	movq	-32(%rbp), %rdx
	movq	%rdx, 16(%rax)
	movq	%rcx, -56(%rbp)
	leaq	l___unnamed_5(%rip), %rdx
	movq	-56(%rbp), %rax
	addq	$64, %rsp
	popq	%rbp
	retq
	.cfi_endproc

	.globl	__ZN3std5error5Error5cause17h4e1867f270b55d46E
	.p2align	4, 0x90
__ZN3std5error5Error5cause17h4e1867f270b55d46E:
	.cfi_startproc
	pushq	%rbp
	.cfi_def_cfa_offset 16
	.cfi_offset %rbp, -16
	movq	%rsp, %rbp
	.cfi_def_cfa_register %rbp
	subq	$16, %rsp
	callq	__ZN3std5error5Error6source17h6f670f196973c100E
	movq	%rax, -8(%rbp)
	movq	%rdx, -16(%rbp)
	movq	-8(%rbp), %rax
	movq	-16(%rbp), %rdx
	addq	$16, %rsp
	popq	%rbp
	retq
	.cfi_endproc

	.globl	__ZN3std5error5Error5cause17h9c56cb2e012b224fE
	.p2align	4, 0x90
__ZN3std5error5Error5cause17h9c56cb2e012b224fE:
	.cfi_startproc
	pushq	%rbp
	.cfi_def_cfa_offset 16
	.cfi_offset %rbp, -16
	movq	%rsp, %rbp
	.cfi_def_cfa_register %rbp
	subq	$16, %rsp
	callq	__ZN3std5error5Error6source17h2878b5127cf744ceE
	movq	%rax, -8(%rbp)
	movq	%rdx, -16(%rbp)
	movq	-8(%rbp), %rax
	movq	-16(%rbp), %rdx
	addq	$16, %rsp
	popq	%rbp
	retq
	.cfi_endproc

	.globl	__ZN3std5error5Error5cause17hc2b201d0650fcab2E
	.p2align	4, 0x90
__ZN3std5error5Error5cause17hc2b201d0650fcab2E:
	.cfi_startproc
	pushq	%rbp
	.cfi_def_cfa_offset 16
	.cfi_offset %rbp, -16
	movq	%rsp, %rbp
	.cfi_def_cfa_register %rbp
	subq	$16, %rsp
	callq	__ZN3std5error5Error6source17h9ef8d0152013b518E
	movq	%rax, -8(%rbp)
	movq	%rdx, -16(%rbp)
	movq	-8(%rbp), %rax
	movq	-16(%rbp), %rdx
	addq	$16, %rsp
	popq	%rbp
	retq
	.cfi_endproc

	.globl	__ZN3std5error5Error6source17h2878b5127cf744ceE
	.p2align	4, 0x90
__ZN3std5error5Error6source17h2878b5127cf744ceE:
	.cfi_startproc
	pushq	%rbp
	.cfi_def_cfa_offset 16
	.cfi_offset %rbp, -16
	movq	%rsp, %rbp
	.cfi_def_cfa_register %rbp
	subq	$16, %rsp
	movq	$0, -16(%rbp)
	movq	-16(%rbp), %rax
	movq	-8(%rbp), %rdx
	addq	$16, %rsp
	popq	%rbp
	retq
	.cfi_endproc

	.globl	__ZN3std5error5Error6source17h6f670f196973c100E
	.p2align	4, 0x90
__ZN3std5error5Error6source17h6f670f196973c100E:
	.cfi_startproc
	pushq	%rbp
	.cfi_def_cfa_offset 16
	.cfi_offset %rbp, -16
	movq	%rsp, %rbp
	.cfi_def_cfa_register %rbp
	subq	$16, %rsp
	movq	$0, -16(%rbp)
	movq	-16(%rbp), %rax
	movq	-8(%rbp), %rdx
	addq	$16, %rsp
	popq	%rbp
	retq
	.cfi_endproc

	.globl	__ZN3std5error5Error6source17h9ef8d0152013b518E
	.p2align	4, 0x90
__ZN3std5error5Error6source17h9ef8d0152013b518E:
	.cfi_startproc
	pushq	%rbp
	.cfi_def_cfa_offset 16
	.cfi_offset %rbp, -16
	movq	%rsp, %rbp
	.cfi_def_cfa_register %rbp
	subq	$16, %rsp
	movq	$0, -16(%rbp)
	movq	-16(%rbp), %rax
	movq	-8(%rbp), %rdx
	addq	$16, %rsp
	popq	%rbp
	retq
	.cfi_endproc

	.globl	__ZN3std5error5Error7type_id17h0592717db36e710eE
	.p2align	4, 0x90
__ZN3std5error5Error7type_id17h0592717db36e710eE:
	.cfi_startproc
	pushq	%rbp
	.cfi_def_cfa_offset 16
	.cfi_offset %rbp, -16
	movq	%rsp, %rbp
	.cfi_def_cfa_register %rbp
	subq	$16, %rsp
	movq	%rdi, -8(%rbp)
	callq	__ZN4core3any6TypeId2of17h67842bbadb057f9aE
	movq	%rax, -16(%rbp)
	movq	-16(%rbp), %rax
	addq	$16, %rsp
	popq	%rbp
	retq
	.cfi_endproc

	.globl	__ZN3std5error5Error7type_id17h066f3247c0054628E
	.p2align	4, 0x90
__ZN3std5error5Error7type_id17h066f3247c0054628E:
	.cfi_startproc
	pushq	%rbp
	.cfi_def_cfa_offset 16
	.cfi_offset %rbp, -16
	movq	%rsp, %rbp
	.cfi_def_cfa_register %rbp
	subq	$16, %rsp
	movq	%rdi, -8(%rbp)
	callq	__ZN4core3any6TypeId2of17he5a2cae4608fbd63E
	movq	%rax, -16(%rbp)
	movq	-16(%rbp), %rax
	addq	$16, %rsp
	popq	%rbp
	retq
	.cfi_endproc

	.globl	__ZN3std5error5Error7type_id17ha58f4b11d3580710E
	.p2align	4, 0x90
__ZN3std5error5Error7type_id17ha58f4b11d3580710E:
	.cfi_startproc
	pushq	%rbp
	.cfi_def_cfa_offset 16
	.cfi_offset %rbp, -16
	movq	%rsp, %rbp
	.cfi_def_cfa_register %rbp
	subq	$16, %rsp
	movq	%rdi, -8(%rbp)
	callq	__ZN4core3any6TypeId2of17hedb3818ec5805d1fE
	movq	%rax, -16(%rbp)
	movq	-16(%rbp), %rax
	addq	$16, %rsp
	popq	%rbp
	retq
	.cfi_endproc

	.globl	__ZN3std5error5Error7type_id17hcb07dbf9b79463a1E
	.p2align	4, 0x90
__ZN3std5error5Error7type_id17hcb07dbf9b79463a1E:
	.cfi_startproc
	pushq	%rbp
	.cfi_def_cfa_offset 16
	.cfi_offset %rbp, -16
	movq	%rsp, %rbp
	.cfi_def_cfa_register %rbp
	subq	$16, %rsp
	movq	%rdi, -8(%rbp)
	callq	__ZN4core3any6TypeId2of17h8cdbfb7671c71271E
	movq	%rax, -16(%rbp)
	movq	-16(%rbp), %rax
	addq	$16, %rsp
	popq	%rbp
	retq
	.cfi_endproc

	.globl	__ZN3std5error5Error9backtrace17h3328172b3c2abf62E
	.p2align	4, 0x90
__ZN3std5error5Error9backtrace17h3328172b3c2abf62E:
	.cfi_startproc
	pushq	%rbp
	.cfi_def_cfa_offset 16
	.cfi_offset %rbp, -16
	movq	%rsp, %rbp
	.cfi_def_cfa_register %rbp
	xorl	%eax, %eax
	popq	%rbp
	retq
	.cfi_endproc

	.globl	__ZN3std5error5Error9backtrace17h6407858bb4852580E
	.p2align	4, 0x90
__ZN3std5error5Error9backtrace17h6407858bb4852580E:
	.cfi_startproc
	pushq	%rbp
	.cfi_def_cfa_offset 16
	.cfi_offset %rbp, -16
	movq	%rsp, %rbp
	.cfi_def_cfa_register %rbp
	xorl	%eax, %eax
	popq	%rbp
	retq
	.cfi_endproc

	.globl	__ZN3std5error5Error9backtrace17h6d91ec190f473304E
	.p2align	4, 0x90
__ZN3std5error5Error9backtrace17h6d91ec190f473304E:
	.cfi_startproc
	pushq	%rbp
	.cfi_def_cfa_offset 16
	.cfi_offset %rbp, -16
	movq	%rsp, %rbp
	.cfi_def_cfa_register %rbp
	xorl	%eax, %eax
	popq	%rbp
	retq
	.cfi_endproc

	.globl	__ZN3std5error5Error9backtrace17he1ad6cdf64f5d9b8E
	.p2align	4, 0x90
__ZN3std5error5Error9backtrace17he1ad6cdf64f5d9b8E:
	.cfi_startproc
	pushq	%rbp
	.cfi_def_cfa_offset 16
	.cfi_offset %rbp, -16
	movq	%rsp, %rbp
	.cfi_def_cfa_register %rbp
	xorl	%eax, %eax
	popq	%rbp
	retq
	.cfi_endproc

	.globl	__ZN3std7process7Command3arg17h3a3b3cc80923e803E
	.p2align	4, 0x90
__ZN3std7process7Command3arg17h3a3b3cc80923e803E:
Lfunc_begin4:
	.cfi_startproc
	.cfi_personality 155, _rust_eh_personality
	.cfi_lsda 16, Lexception4
	pushq	%rbp
	.cfi_def_cfa_offset 16
	.cfi_offset %rbp, -16
	movq	%rsp, %rbp
	.cfi_def_cfa_register %rbp
	subq	$64, %rsp
	movq	%rsi, -24(%rbp)
	movq	%rdi, %rax
Ltmp26:
	leaq	-24(%rbp), %rcx
	movq	%rdi, -32(%rbp)
	movq	%rcx, %rdi
	movq	%rax, -40(%rbp)
	callq	__ZN55_$LT$$RF$T$u20$as$u20$core..convert..AsRef$LT$U$GT$$GT$6as_ref17h6a2318254bd7c6ebE
Ltmp27:
	movq	%rdx, -48(%rbp)
	movq	%rax, -56(%rbp)
	jmp	LBB42_2
LBB42_1:
	movq	-16(%rbp), %rdi
	callq	__Unwind_Resume
	ud2
LBB42_2:
Ltmp28:
	movq	-40(%rbp), %rdi
	movq	-56(%rbp), %rsi
	movq	-48(%rbp), %rdx
	callq	__ZN3std3sys4unix7process14process_common7Command3arg17he3b985033bebdb87E
Ltmp29:
	jmp	LBB42_4
LBB42_3:
	jmp	LBB42_1
LBB42_4:
	jmp	LBB42_5
LBB42_5:
	movq	-32(%rbp), %rax
	addq	$64, %rsp
	popq	%rbp
	retq
LBB42_6:
Ltmp30:
	movq	%rax, -16(%rbp)
	movl	%edx, -8(%rbp)
	jmp	LBB42_3
Lfunc_end4:
	.cfi_endproc
	.section	__TEXT,__gcc_except_tab
	.p2align	2
GCC_except_table42:
Lexception4:
	.byte	255
	.byte	255
	.byte	1
	.uleb128 Lcst_end4-Lcst_begin4
Lcst_begin4:
	.uleb128 Ltmp26-Lfunc_begin4
	.uleb128 Ltmp27-Ltmp26
	.uleb128 Ltmp30-Lfunc_begin4
	.byte	0
	.uleb128 Ltmp27-Lfunc_begin4
	.uleb128 Ltmp28-Ltmp27
	.byte	0
	.byte	0
	.uleb128 Ltmp28-Lfunc_begin4
	.uleb128 Ltmp29-Ltmp28
	.uleb128 Ltmp30-Lfunc_begin4
	.byte	0
Lcst_end4:
	.p2align	2

	.section	__TEXT,__text,regular,pure_instructions
	.globl	__ZN3std7process7Command3arg17h51f561b0b9929305E
	.p2align	4, 0x90
__ZN3std7process7Command3arg17h51f561b0b9929305E:
Lfunc_begin5:
	.cfi_startproc
	.cfi_personality 155, _rust_eh_personality
	.cfi_lsda 16, Lexception5
	pushq	%rbp
	.cfi_def_cfa_offset 16
	.cfi_offset %rbp, -16
	movq	%rsp, %rbp
	.cfi_def_cfa_register %rbp
	subq	$64, %rsp
	movq	%rdi, %rax
Ltmp31:
	movq	%rdi, -24(%rbp)
	movq	%rsi, %rdi
	movq	%rsi, -32(%rbp)
	movq	%rax, -40(%rbp)
	callq	__ZN3std3ffi6os_str103_$LT$impl$u20$core..convert..AsRef$LT$std..ffi..os_str..OsStr$GT$$u20$for$u20$alloc..string..String$GT$6as_ref17h2b0f97cce06f16cdE
Ltmp32:
	movq	%rdx, -48(%rbp)
	movq	%rax, -56(%rbp)
	jmp	LBB43_2
LBB43_1:
	movq	-16(%rbp), %rdi
	callq	__Unwind_Resume
	ud2
LBB43_2:
Ltmp33:
	movq	-40(%rbp), %rdi
	movq	-56(%rbp), %rsi
	movq	-48(%rbp), %rdx
	callq	__ZN3std3sys4unix7process14process_common7Command3arg17he3b985033bebdb87E
Ltmp34:
	jmp	LBB43_4
LBB43_3:
	movq	-32(%rbp), %rdi
	callq	__ZN4core3ptr13drop_in_place17h3afe773b0b93019dE
	jmp	LBB43_1
LBB43_4:
	movq	-32(%rbp), %rdi
	callq	__ZN4core3ptr13drop_in_place17h3afe773b0b93019dE
	movq	-24(%rbp), %rax
	addq	$64, %rsp
	popq	%rbp
	retq
LBB43_6:
Ltmp35:
	movq	%rax, -16(%rbp)
	movl	%edx, -8(%rbp)
	jmp	LBB43_3
Lfunc_end5:
	.cfi_endproc
	.section	__TEXT,__gcc_except_tab
	.p2align	2
GCC_except_table43:
Lexception5:
	.byte	255
	.byte	255
	.byte	1
	.uleb128 Lcst_end5-Lcst_begin5
Lcst_begin5:
	.uleb128 Ltmp31-Lfunc_begin5
	.uleb128 Ltmp32-Ltmp31
	.uleb128 Ltmp35-Lfunc_begin5
	.byte	0
	.uleb128 Ltmp32-Lfunc_begin5
	.uleb128 Ltmp33-Ltmp32
	.byte	0
	.byte	0
	.uleb128 Ltmp33-Lfunc_begin5
	.uleb128 Ltmp34-Ltmp33
	.uleb128 Ltmp35-Lfunc_begin5
	.byte	0
	.uleb128 Ltmp34-Lfunc_begin5
	.uleb128 Lfunc_end5-Ltmp34
	.byte	0
	.byte	0
Lcst_end5:
	.p2align	2

	.section	__TEXT,__text,regular,pure_instructions
	.globl	__ZN3std7process7Command3arg17h769a71c67166780eE
	.p2align	4, 0x90
__ZN3std7process7Command3arg17h769a71c67166780eE:
Lfunc_begin6:
	.cfi_startproc
	.cfi_personality 155, _rust_eh_personality
	.cfi_lsda 16, Lexception6
	pushq	%rbp
	.cfi_def_cfa_offset 16
	.cfi_offset %rbp, -16
	movq	%rsp, %rbp
	.cfi_def_cfa_register %rbp
	subq	$64, %rsp
	movq	%rsi, -32(%rbp)
	movq	%rdx, -24(%rbp)
	movq	%rdi, %rax
Ltmp36:
	leaq	-32(%rbp), %rcx
	movq	%rdi, -40(%rbp)
	movq	%rcx, %rdi
	movq	%rax, -48(%rbp)
	callq	__ZN55_$LT$$RF$T$u20$as$u20$core..convert..AsRef$LT$U$GT$$GT$6as_ref17h6ce00e579c43e855E
Ltmp37:
	movq	%rdx, -56(%rbp)
	movq	%rax, -64(%rbp)
	jmp	LBB44_2
LBB44_1:
	movq	-16(%rbp), %rdi
	callq	__Unwind_Resume
	ud2
LBB44_2:
Ltmp38:
	movq	-48(%rbp), %rdi
	movq	-64(%rbp), %rsi
	movq	-56(%rbp), %rdx
	callq	__ZN3std3sys4unix7process14process_common7Command3arg17he3b985033bebdb87E
Ltmp39:
	jmp	LBB44_4
LBB44_3:
	jmp	LBB44_1
LBB44_4:
	jmp	LBB44_5
LBB44_5:
	movq	-40(%rbp), %rax
	addq	$64, %rsp
	popq	%rbp
	retq
LBB44_6:
Ltmp40:
	movq	%rax, -16(%rbp)
	movl	%edx, -8(%rbp)
	jmp	LBB44_3
Lfunc_end6:
	.cfi_endproc
	.section	__TEXT,__gcc_except_tab
	.p2align	2
GCC_except_table44:
Lexception6:
	.byte	255
	.byte	255
	.byte	1
	.uleb128 Lcst_end6-Lcst_begin6
Lcst_begin6:
	.uleb128 Ltmp36-Lfunc_begin6
	.uleb128 Ltmp37-Ltmp36
	.uleb128 Ltmp40-Lfunc_begin6
	.byte	0
	.uleb128 Ltmp37-Lfunc_begin6
	.uleb128 Ltmp38-Ltmp37
	.byte	0
	.byte	0
	.uleb128 Ltmp38-Lfunc_begin6
	.uleb128 Ltmp39-Ltmp38
	.uleb128 Ltmp40-Lfunc_begin6
	.byte	0
Lcst_end6:
	.p2align	2

	.section	__TEXT,__text,regular,pure_instructions
	.globl	__ZN3std7process7Command3arg17hded6f6e5bee53478E
	.p2align	4, 0x90
__ZN3std7process7Command3arg17hded6f6e5bee53478E:
Lfunc_begin7:
	.cfi_startproc
	.cfi_personality 155, _rust_eh_personality
	.cfi_lsda 16, Lexception7
	pushq	%rbp
	.cfi_def_cfa_offset 16
	.cfi_offset %rbp, -16
	movq	%rsp, %rbp
	.cfi_def_cfa_register %rbp
	subq	$64, %rsp
	movq	%rsi, -24(%rbp)
	movq	%rdi, %rax
Ltmp41:
	leaq	-24(%rbp), %rcx
	movq	%rdi, -32(%rbp)
	movq	%rcx, %rdi
	movq	%rax, -40(%rbp)
	callq	__ZN55_$LT$$RF$T$u20$as$u20$core..convert..AsRef$LT$U$GT$$GT$6as_ref17h3245c1ba51f01729E
Ltmp42:
	movq	%rdx, -48(%rbp)
	movq	%rax, -56(%rbp)
	jmp	LBB45_2
LBB45_1:
	movq	-16(%rbp), %rdi
	callq	__Unwind_Resume
	ud2
LBB45_2:
Ltmp43:
	movq	-40(%rbp), %rdi
	movq	-56(%rbp), %rsi
	movq	-48(%rbp), %rdx
	callq	__ZN3std3sys4unix7process14process_common7Command3arg17he3b985033bebdb87E
Ltmp44:
	jmp	LBB45_4
LBB45_3:
	jmp	LBB45_1
LBB45_4:
	jmp	LBB45_5
LBB45_5:
	movq	-32(%rbp), %rax
	addq	$64, %rsp
	popq	%rbp
	retq
LBB45_6:
Ltmp45:
	movq	%rax, -16(%rbp)
	movl	%edx, -8(%rbp)
	jmp	LBB45_3
Lfunc_end7:
	.cfi_endproc
	.section	__TEXT,__gcc_except_tab
	.p2align	2
GCC_except_table45:
Lexception7:
	.byte	255
	.byte	255
	.byte	1
	.uleb128 Lcst_end7-Lcst_begin7
Lcst_begin7:
	.uleb128 Ltmp41-Lfunc_begin7
	.uleb128 Ltmp42-Ltmp41
	.uleb128 Ltmp45-Lfunc_begin7
	.byte	0
	.uleb128 Ltmp42-Lfunc_begin7
	.uleb128 Ltmp43-Ltmp42
	.byte	0
	.byte	0
	.uleb128 Ltmp43-Lfunc_begin7
	.uleb128 Ltmp44-Ltmp43
	.uleb128 Ltmp45-Lfunc_begin7
	.byte	0
Lcst_end7:
	.p2align	2

	.section	__TEXT,__text,regular,pure_instructions
	.globl	__ZN3std7process7Command3arg17hf7891f96c80e0bc7E
	.p2align	4, 0x90
__ZN3std7process7Command3arg17hf7891f96c80e0bc7E:
Lfunc_begin8:
	.cfi_startproc
	.cfi_personality 155, _rust_eh_personality
	.cfi_lsda 16, Lexception8
	pushq	%rbp
	.cfi_def_cfa_offset 16
	.cfi_offset %rbp, -16
	movq	%rsp, %rbp
	.cfi_def_cfa_register %rbp
	subq	$64, %rsp
	movq	%rsi, -32(%rbp)
	movq	%rdx, -24(%rbp)
	movq	%rdi, %rax
Ltmp46:
	leaq	-32(%rbp), %rcx
	movq	%rdi, -40(%rbp)
	movq	%rcx, %rdi
	movq	%rax, -48(%rbp)
	callq	__ZN55_$LT$$RF$T$u20$as$u20$core..convert..AsRef$LT$U$GT$$GT$6as_ref17h6b30a1fe21edb35cE
Ltmp47:
	movq	%rdx, -56(%rbp)
	movq	%rax, -64(%rbp)
	jmp	LBB46_2
LBB46_1:
	movq	-16(%rbp), %rdi
	callq	__Unwind_Resume
	ud2
LBB46_2:
Ltmp48:
	movq	-48(%rbp), %rdi
	movq	-64(%rbp), %rsi
	movq	-56(%rbp), %rdx
	callq	__ZN3std3sys4unix7process14process_common7Command3arg17he3b985033bebdb87E
Ltmp49:
	jmp	LBB46_4
LBB46_3:
	jmp	LBB46_1
LBB46_4:
	jmp	LBB46_5
LBB46_5:
	movq	-40(%rbp), %rax
	addq	$64, %rsp
	popq	%rbp
	retq
LBB46_6:
Ltmp50:
	movq	%rax, -16(%rbp)
	movl	%edx, -8(%rbp)
	jmp	LBB46_3
Lfunc_end8:
	.cfi_endproc
	.section	__TEXT,__gcc_except_tab
	.p2align	2
GCC_except_table46:
Lexception8:
	.byte	255
	.byte	255
	.byte	1
	.uleb128 Lcst_end8-Lcst_begin8
Lcst_begin8:
	.uleb128 Ltmp46-Lfunc_begin8
	.uleb128 Ltmp47-Ltmp46
	.uleb128 Ltmp50-Lfunc_begin8
	.byte	0
	.uleb128 Ltmp47-Lfunc_begin8
	.uleb128 Ltmp48-Ltmp47
	.byte	0
	.byte	0
	.uleb128 Ltmp48-Lfunc_begin8
	.uleb128 Ltmp49-Ltmp48
	.uleb128 Ltmp50-Lfunc_begin8
	.byte	0
Lcst_end8:
	.p2align	2

	.section	__TEXT,__text,regular,pure_instructions
	.globl	__ZN3std7process7Command3new17hac5e76793faef08cE
	.p2align	4, 0x90
__ZN3std7process7Command3new17hac5e76793faef08cE:
Lfunc_begin9:
	.cfi_startproc
	.cfi_personality 155, _rust_eh_personality
	.cfi_lsda 16, Lexception9
	pushq	%rbp
	.cfi_def_cfa_offset 16
	.cfi_offset %rbp, -16
	movq	%rsp, %rbp
	.cfi_def_cfa_register %rbp
	subq	$240, %rsp
	movq	%rdi, %rax
	movq	%rsi, -208(%rbp)
Ltmp51:
	leaq	-208(%rbp), %rcx
	movq	%rdi, -216(%rbp)
	movq	%rcx, %rdi
	movq	%rax, -224(%rbp)
	callq	__ZN55_$LT$$RF$T$u20$as$u20$core..convert..AsRef$LT$U$GT$$GT$6as_ref17h3245c1ba51f01729E
Ltmp52:
	movq	%rdx, -232(%rbp)
	movq	%rax, -240(%rbp)
	jmp	LBB47_2
LBB47_1:
	movq	-16(%rbp), %rdi
	callq	__Unwind_Resume
	ud2
LBB47_2:
Ltmp53:
	leaq	-200(%rbp), %rdi
	movq	-240(%rbp), %rsi
	movq	-232(%rbp), %rdx
	callq	__ZN3std3sys4unix7process14process_common7Command3new17h6b51c4bb5fada643E
Ltmp54:
	jmp	LBB47_4
LBB47_3:
	jmp	LBB47_1
LBB47_4:
	movq	-216(%rbp), %rax
	leaq	-200(%rbp), %rcx
	movq	%rax, %rdi
	movq	%rcx, %rsi
	movl	$184, %edx
	callq	_memcpy
	movq	-224(%rbp), %rax
	addq	$240, %rsp
	popq	%rbp
	retq
LBB47_6:
Ltmp55:
	movq	%rax, -16(%rbp)
	movl	%edx, -8(%rbp)
	jmp	LBB47_3
Lfunc_end9:
	.cfi_endproc
	.section	__TEXT,__gcc_except_tab
	.p2align	2
GCC_except_table47:
Lexception9:
	.byte	255
	.byte	255
	.byte	1
	.uleb128 Lcst_end9-Lcst_begin9
Lcst_begin9:
	.uleb128 Ltmp51-Lfunc_begin9
	.uleb128 Ltmp52-Ltmp51
	.uleb128 Ltmp55-Lfunc_begin9
	.byte	0
	.uleb128 Ltmp52-Lfunc_begin9
	.uleb128 Ltmp53-Ltmp52
	.byte	0
	.byte	0
	.uleb128 Ltmp53-Lfunc_begin9
	.uleb128 Ltmp54-Ltmp53
	.uleb128 Ltmp55-Lfunc_begin9
	.byte	0
	.uleb128 Ltmp54-Lfunc_begin9
	.uleb128 Lfunc_end9-Ltmp54
	.byte	0
	.byte	0
Lcst_end9:
	.p2align	2

	.section	__TEXT,__text,regular,pure_instructions
	.globl	__ZN3std7process7Command3new17hce545d46eb422adfE
	.p2align	4, 0x90
__ZN3std7process7Command3new17hce545d46eb422adfE:
Lfunc_begin10:
	.cfi_startproc
	.cfi_personality 155, _rust_eh_personality
	.cfi_lsda 16, Lexception10
	pushq	%rbp
	.cfi_def_cfa_offset 16
	.cfi_offset %rbp, -16
	movq	%rsp, %rbp
	.cfi_def_cfa_register %rbp
	subq	$256, %rsp
	movq	%rdi, %rax
	movq	%rsi, -216(%rbp)
	movq	%rdx, -208(%rbp)
Ltmp56:
	leaq	-216(%rbp), %rcx
	movq	%rdi, -224(%rbp)
	movq	%rcx, %rdi
	movq	%rax, -232(%rbp)
	callq	__ZN55_$LT$$RF$T$u20$as$u20$core..convert..AsRef$LT$U$GT$$GT$6as_ref17ha70a05e367c719e5E
Ltmp57:
	movq	%rdx, -240(%rbp)
	movq	%rax, -248(%rbp)
	jmp	LBB48_2
LBB48_1:
	movq	-16(%rbp), %rdi
	callq	__Unwind_Resume
	ud2
LBB48_2:
Ltmp58:
	leaq	-200(%rbp), %rdi
	movq	-248(%rbp), %rsi
	movq	-240(%rbp), %rdx
	callq	__ZN3std3sys4unix7process14process_common7Command3new17h6b51c4bb5fada643E
Ltmp59:
	jmp	LBB48_4
LBB48_3:
	jmp	LBB48_1
LBB48_4:
	movq	-224(%rbp), %rax
	leaq	-200(%rbp), %rcx
	movq	%rax, %rdi
	movq	%rcx, %rsi
	movl	$184, %edx
	callq	_memcpy
	movq	-232(%rbp), %rax
	addq	$256, %rsp
	popq	%rbp
	retq
LBB48_6:
Ltmp60:
	movq	%rax, -16(%rbp)
	movl	%edx, -8(%rbp)
	jmp	LBB48_3
Lfunc_end10:
	.cfi_endproc
	.section	__TEXT,__gcc_except_tab
	.p2align	2
GCC_except_table48:
Lexception10:
	.byte	255
	.byte	255
	.byte	1
	.uleb128 Lcst_end10-Lcst_begin10
Lcst_begin10:
	.uleb128 Ltmp56-Lfunc_begin10
	.uleb128 Ltmp57-Ltmp56
	.uleb128 Ltmp60-Lfunc_begin10
	.byte	0
	.uleb128 Ltmp57-Lfunc_begin10
	.uleb128 Ltmp58-Ltmp57
	.byte	0
	.byte	0
	.uleb128 Ltmp58-Lfunc_begin10
	.uleb128 Ltmp59-Ltmp58
	.uleb128 Ltmp60-Lfunc_begin10
	.byte	0
	.uleb128 Ltmp59-Lfunc_begin10
	.uleb128 Lfunc_end10-Ltmp59
	.byte	0
	.byte	0
Lcst_end10:
	.p2align	2

	.section	__TEXT,__text,regular,pure_instructions
	.globl	__ZN3std7process7Command4args17h18abb2bffd7586ddE
	.p2align	4, 0x90
__ZN3std7process7Command4args17h18abb2bffd7586ddE:
Lfunc_begin11:
	.cfi_startproc
	.cfi_personality 155, _rust_eh_personality
	.cfi_lsda 16, Lexception11
	pushq	%rbp
	.cfi_def_cfa_offset 16
	.cfi_offset %rbp, -16
	movq	%rsp, %rbp
	.cfi_def_cfa_register %rbp
	subq	$112, %rsp
	movb	$0, -17(%rbp)
	movq	%rdi, -64(%rbp)
	movq	%rsi, %rdi
	callq	__ZN4core5array98_$LT$impl$u20$core..iter..traits..collect..IntoIterator$u20$for$u20$$RF$$u5b$T$u3b$$u20$N$u5d$$GT$9into_iter17h3ba9aa295d54af30E
	movq	%rax, -72(%rbp)
	movq	%rdx, -80(%rbp)
	jmp	LBB49_2
LBB49_1:
	movq	-16(%rbp), %rdi
	callq	__Unwind_Resume
	ud2
LBB49_2:
	movq	-72(%rbp), %rax
	movq	%rax, -56(%rbp)
	movq	-80(%rbp), %rcx
	movq	%rcx, -48(%rbp)
LBB49_3:
Ltmp61:
	leaq	-56(%rbp), %rdi
	callq	__ZN85_$LT$core..slice..Iter$LT$T$GT$$u20$as$u20$core..iter..traits..iterator..Iterator$GT$4next17h5b60e9932a05f3a9E
Ltmp62:
	movq	%rax, -88(%rbp)
	jmp	LBB49_5
LBB49_4:
	jmp	LBB49_1
LBB49_5:
	movq	-88(%rbp), %rax
	movq	%rax, -40(%rbp)
	movq	-40(%rbp), %rcx
	testq	%rcx, %rcx
	setne	%dl
	movzbl	%dl, %esi
	movl	%esi, %ecx
	je	LBB49_6
	jmp	LBB49_18
LBB49_18:
	jmp	LBB49_8
LBB49_6:
	movb	$0, -17(%rbp)
	jmp	LBB49_13
	ud2
LBB49_8:
	movq	-40(%rbp), %rax
	movb	$1, -17(%rbp)
	movb	$0, -17(%rbp)
	movq	%rax, -32(%rbp)
Ltmp64:
	leaq	-32(%rbp), %rdi
	callq	__ZN55_$LT$$RF$T$u20$as$u20$core..convert..AsRef$LT$U$GT$$GT$6as_ref17h9ae09bbcaa358003E
Ltmp65:
	movq	%rdx, -96(%rbp)
	movq	%rax, -104(%rbp)
	jmp	LBB49_9
LBB49_9:
Ltmp66:
	movq	-64(%rbp), %rdi
	movq	-104(%rbp), %rsi
	movq	-96(%rbp), %rdx
	callq	__ZN3std7process7Command3arg17hf7891f96c80e0bc7E
Ltmp67:
	jmp	LBB49_11
LBB49_10:
	jmp	LBB49_15
LBB49_11:
	jmp	LBB49_12
LBB49_12:
	movb	$0, -17(%rbp)
	jmp	LBB49_3
LBB49_13:
	movq	-64(%rbp), %rax
	addq	$112, %rsp
	popq	%rbp
	retq
LBB49_14:
	movb	$0, -17(%rbp)
	jmp	LBB49_4
LBB49_15:
	testb	$1, -17(%rbp)
	jne	LBB49_14
	jmp	LBB49_4
LBB49_16:
Ltmp63:
	movq	%rax, -16(%rbp)
	movl	%edx, -8(%rbp)
	jmp	LBB49_15
LBB49_17:
Ltmp68:
	movq	%rax, -16(%rbp)
	movl	%edx, -8(%rbp)
	jmp	LBB49_10
Lfunc_end11:
	.cfi_endproc
	.section	__TEXT,__gcc_except_tab
	.p2align	2
GCC_except_table49:
Lexception11:
	.byte	255
	.byte	255
	.byte	1
	.uleb128 Lcst_end11-Lcst_begin11
Lcst_begin11:
	.uleb128 Lfunc_begin11-Lfunc_begin11
	.uleb128 Ltmp61-Lfunc_begin11
	.byte	0
	.byte	0
	.uleb128 Ltmp61-Lfunc_begin11
	.uleb128 Ltmp62-Ltmp61
	.uleb128 Ltmp63-Lfunc_begin11
	.byte	0
	.uleb128 Ltmp64-Lfunc_begin11
	.uleb128 Ltmp67-Ltmp64
	.uleb128 Ltmp68-Lfunc_begin11
	.byte	0
Lcst_end11:
	.p2align	2

	.section	__TEXT,__text,regular,pure_instructions
	.globl	__ZN3std7process7Command4args17h20c0fa01bd685b93E
	.p2align	4, 0x90
__ZN3std7process7Command4args17h20c0fa01bd685b93E:
Lfunc_begin12:
	.cfi_startproc
	.cfi_personality 155, _rust_eh_personality
	.cfi_lsda 16, Lexception12
	pushq	%rbp
	.cfi_def_cfa_offset 16
	.cfi_offset %rbp, -16
	movq	%rsp, %rbp
	.cfi_def_cfa_register %rbp
	subq	$112, %rsp
	movb	$0, -17(%rbp)
	movq	%rdi, -64(%rbp)
	movq	%rsi, %rdi
	callq	__ZN90_$LT$$RF$alloc..vec..Vec$LT$T$GT$$u20$as$u20$core..iter..traits..collect..IntoIterator$GT$9into_iter17h52c1d7a023f397ccE
	movq	%rax, -72(%rbp)
	movq	%rdx, -80(%rbp)
	jmp	LBB50_2
LBB50_1:
	movq	-16(%rbp), %rdi
	callq	__Unwind_Resume
	ud2
LBB50_2:
	movq	-72(%rbp), %rax
	movq	%rax, -56(%rbp)
	movq	-80(%rbp), %rcx
	movq	%rcx, -48(%rbp)
LBB50_3:
Ltmp69:
	leaq	-56(%rbp), %rdi
	callq	__ZN85_$LT$core..slice..Iter$LT$T$GT$$u20$as$u20$core..iter..traits..iterator..Iterator$GT$4next17h5d12c92dbc7f1476E
Ltmp70:
	movq	%rax, -88(%rbp)
	jmp	LBB50_5
LBB50_4:
	jmp	LBB50_1
LBB50_5:
	movq	-88(%rbp), %rax
	movq	%rax, -40(%rbp)
	movq	-40(%rbp), %rcx
	testq	%rcx, %rcx
	setne	%dl
	movzbl	%dl, %esi
	movl	%esi, %ecx
	je	LBB50_6
	jmp	LBB50_18
LBB50_18:
	jmp	LBB50_8
LBB50_6:
	movb	$0, -17(%rbp)
	jmp	LBB50_13
	ud2
LBB50_8:
	movq	-40(%rbp), %rax
	movb	$1, -17(%rbp)
	movb	$0, -17(%rbp)
	movq	%rax, -32(%rbp)
Ltmp72:
	leaq	-32(%rbp), %rdi
	callq	__ZN55_$LT$$RF$T$u20$as$u20$core..convert..AsRef$LT$U$GT$$GT$6as_ref17h6dfb8e8a73d873b2E
Ltmp73:
	movq	%rdx, -96(%rbp)
	movq	%rax, -104(%rbp)
	jmp	LBB50_9
LBB50_9:
Ltmp74:
	movq	-64(%rbp), %rdi
	movq	-104(%rbp), %rsi
	movq	-96(%rbp), %rdx
	callq	__ZN3std7process7Command3arg17hf7891f96c80e0bc7E
Ltmp75:
	jmp	LBB50_11
LBB50_10:
	jmp	LBB50_15
LBB50_11:
	jmp	LBB50_12
LBB50_12:
	movb	$0, -17(%rbp)
	jmp	LBB50_3
LBB50_13:
	movq	-64(%rbp), %rax
	addq	$112, %rsp
	popq	%rbp
	retq
LBB50_14:
	movb	$0, -17(%rbp)
	jmp	LBB50_4
LBB50_15:
	testb	$1, -17(%rbp)
	jne	LBB50_14
	jmp	LBB50_4
LBB50_16:
Ltmp71:
	movq	%rax, -16(%rbp)
	movl	%edx, -8(%rbp)
	jmp	LBB50_15
LBB50_17:
Ltmp76:
	movq	%rax, -16(%rbp)
	movl	%edx, -8(%rbp)
	jmp	LBB50_10
Lfunc_end12:
	.cfi_endproc
	.section	__TEXT,__gcc_except_tab
	.p2align	2
GCC_except_table50:
Lexception12:
	.byte	255
	.byte	255
	.byte	1
	.uleb128 Lcst_end12-Lcst_begin12
Lcst_begin12:
	.uleb128 Lfunc_begin12-Lfunc_begin12
	.uleb128 Ltmp69-Lfunc_begin12
	.byte	0
	.byte	0
	.uleb128 Ltmp69-Lfunc_begin12
	.uleb128 Ltmp70-Ltmp69
	.uleb128 Ltmp71-Lfunc_begin12
	.byte	0
	.uleb128 Ltmp72-Lfunc_begin12
	.uleb128 Ltmp75-Ltmp72
	.uleb128 Ltmp76-Lfunc_begin12
	.byte	0
Lcst_end12:
	.p2align	2

	.section	__TEXT,__text,regular,pure_instructions
	.globl	__ZN3std7process7Command5stdin17hdebfe15a328f2110E
	.p2align	4, 0x90
__ZN3std7process7Command5stdin17hdebfe15a328f2110E:
	.cfi_startproc
	pushq	%rbp
	.cfi_def_cfa_offset 16
	.cfi_offset %rbp, -16
	movq	%rsp, %rbp
	.cfi_def_cfa_register %rbp
	subq	$32, %rsp
	movq	%rdi, %rax
	movq	%rdi, -8(%rbp)
	movl	%esi, %edi
	movl	%edx, %esi
	movq	%rax, -16(%rbp)
	callq	__ZN50_$LT$T$u20$as$u20$core..convert..Into$LT$U$GT$$GT$4into17hda7b522dd3cf22feE
	movl	%eax, -20(%rbp)
	movl	%edx, -24(%rbp)
	movq	-16(%rbp), %rdi
	movl	-20(%rbp), %esi
	movl	-24(%rbp), %edx
	callq	__ZN3std3sys4unix7process14process_common7Command5stdin17h66af3813a79bcef8E
	movq	-8(%rbp), %rax
	addq	$32, %rsp
	popq	%rbp
	retq
	.cfi_endproc

	.p2align	4, 0x90
__ZN41_$LT$bool$u20$as$u20$core..fmt..Debug$GT$3fmt17h0ebd1a672d60d97cE:
	.cfi_startproc
	pushq	%rbp
	.cfi_def_cfa_offset 16
	.cfi_offset %rbp, -16
	movq	%rsp, %rbp
	.cfi_def_cfa_register %rbp
	subq	$16, %rsp
	callq	__ZN43_$LT$bool$u20$as$u20$core..fmt..Display$GT$3fmt17hd78396651a24cfbbE
	movb	%al, -1(%rbp)
	movb	-1(%rbp), %al
	andb	$1, %al
	movzbl	%al, %eax
	addq	$16, %rsp
	popq	%rbp
	retq
	.cfi_endproc

	.globl	__ZN42_$LT$$RF$T$u20$as$u20$core..fmt..Debug$GT$3fmt17h04fa0f15c889c9cbE
	.p2align	4, 0x90
__ZN42_$LT$$RF$T$u20$as$u20$core..fmt..Debug$GT$3fmt17h04fa0f15c889c9cbE:
	.cfi_startproc
	pushq	%rbp
	.cfi_def_cfa_offset 16
	.cfi_offset %rbp, -16
	movq	%rsp, %rbp
	.cfi_def_cfa_register %rbp
	subq	$16, %rsp
	movq	(%rdi), %rdi
	callq	__ZN61_$LT$alloc..vec..Vec$LT$T$GT$$u20$as$u20$core..fmt..Debug$GT$3fmt17h3c153658d548f84eE
	movb	%al, -1(%rbp)
	movb	-1(%rbp), %al
	andb	$1, %al
	movzbl	%al, %eax
	addq	$16, %rsp
	popq	%rbp
	retq
	.cfi_endproc

	.globl	__ZN42_$LT$$RF$T$u20$as$u20$core..fmt..Debug$GT$3fmt17h1284c86aac517ecbE
	.p2align	4, 0x90
__ZN42_$LT$$RF$T$u20$as$u20$core..fmt..Debug$GT$3fmt17h1284c86aac517ecbE:
	.cfi_startproc
	pushq	%rbp
	.cfi_def_cfa_offset 16
	.cfi_offset %rbp, -16
	movq	%rsp, %rbp
	.cfi_def_cfa_register %rbp
	subq	$16, %rsp
	movq	(%rdi), %rdi
	callq	__ZN66_$LT$core..option..Option$LT$T$GT$$u20$as$u20$core..fmt..Debug$GT$3fmt17h99e427b47a9f87caE
	movb	%al, -1(%rbp)
	movb	-1(%rbp), %al
	andb	$1, %al
	movzbl	%al, %eax
	addq	$16, %rsp
	popq	%rbp
	retq
	.cfi_endproc

	.globl	__ZN42_$LT$$RF$T$u20$as$u20$core..fmt..Debug$GT$3fmt17h354c9dfdab448048E
	.p2align	4, 0x90
__ZN42_$LT$$RF$T$u20$as$u20$core..fmt..Debug$GT$3fmt17h354c9dfdab448048E:
	.cfi_startproc
	pushq	%rbp
	.cfi_def_cfa_offset 16
	.cfi_offset %rbp, -16
	movq	%rsp, %rbp
	.cfi_def_cfa_register %rbp
	subq	$16, %rsp
	movq	(%rdi), %rdi
	callq	__ZN55_$LT$std..path..PathBuf$u20$as$u20$core..fmt..Debug$GT$3fmt17h45fffc43ad501558E
	movb	%al, -1(%rbp)
	movb	-1(%rbp), %al
	andb	$1, %al
	movzbl	%al, %eax
	addq	$16, %rsp
	popq	%rbp
	retq
	.cfi_endproc

	.globl	__ZN42_$LT$$RF$T$u20$as$u20$core..fmt..Debug$GT$3fmt17h55cc6c0c6709a19bE
	.p2align	4, 0x90
__ZN42_$LT$$RF$T$u20$as$u20$core..fmt..Debug$GT$3fmt17h55cc6c0c6709a19bE:
	.cfi_startproc
	pushq	%rbp
	.cfi_def_cfa_offset 16
	.cfi_offset %rbp, -16
	movq	%rsp, %rbp
	.cfi_def_cfa_register %rbp
	subq	$16, %rsp
	movq	(%rdi), %rdi
	callq	__ZN58_$LT$alloc..string..String$u20$as$u20$core..fmt..Debug$GT$3fmt17h5a69a67951301766E
	movb	%al, -1(%rbp)
	movb	-1(%rbp), %al
	andb	$1, %al
	movzbl	%al, %eax
	addq	$16, %rsp
	popq	%rbp
	retq
	.cfi_endproc

	.globl	__ZN42_$LT$$RF$T$u20$as$u20$core..fmt..Debug$GT$3fmt17h7d52df9b48a56ffcE
	.p2align	4, 0x90
__ZN42_$LT$$RF$T$u20$as$u20$core..fmt..Debug$GT$3fmt17h7d52df9b48a56ffcE:
	.cfi_startproc
	pushq	%rbp
	.cfi_def_cfa_offset 16
	.cfi_offset %rbp, -16
	movq	%rsp, %rbp
	.cfi_def_cfa_register %rbp
	subq	$16, %rsp
	movq	(%rdi), %rdi
	callq	__ZN4core3fmt3num52_$LT$impl$u20$core..fmt..Debug$u20$for$u20$usize$GT$3fmt17h1fb81819e56c0c73E
	movb	%al, -1(%rbp)
	movb	-1(%rbp), %al
	andb	$1, %al
	movzbl	%al, %eax
	addq	$16, %rsp
	popq	%rbp
	retq
	.cfi_endproc

	.globl	__ZN42_$LT$$RF$T$u20$as$u20$core..fmt..Debug$GT$3fmt17h881b5db96894130aE
	.p2align	4, 0x90
__ZN42_$LT$$RF$T$u20$as$u20$core..fmt..Debug$GT$3fmt17h881b5db96894130aE:
	.cfi_startproc
	pushq	%rbp
	.cfi_def_cfa_offset 16
	.cfi_offset %rbp, -16
	movq	%rsp, %rbp
	.cfi_def_cfa_register %rbp
	subq	$16, %rsp
	movq	(%rdi), %rdi
	callq	__ZN61_$LT$core..num..ParseIntError$u20$as$u20$core..fmt..Debug$GT$3fmt17h0d00db8c35397686E
	movb	%al, -1(%rbp)
	movb	-1(%rbp), %al
	andb	$1, %al
	movzbl	%al, %eax
	addq	$16, %rsp
	popq	%rbp
	retq
	.cfi_endproc

	.globl	__ZN42_$LT$$RF$T$u20$as$u20$core..fmt..Debug$GT$3fmt17h93e6caa442223cecE
	.p2align	4, 0x90
__ZN42_$LT$$RF$T$u20$as$u20$core..fmt..Debug$GT$3fmt17h93e6caa442223cecE:
	.cfi_startproc
	pushq	%rbp
	.cfi_def_cfa_offset 16
	.cfi_offset %rbp, -16
	movq	%rsp, %rbp
	.cfi_def_cfa_register %rbp
	subq	$16, %rsp
	movq	(%rdi), %rdi
	callq	__ZN63_$LT$std..ffi..os_str..OsString$u20$as$u20$core..fmt..Debug$GT$3fmt17h7836a5cc1a04a487E
	movb	%al, -1(%rbp)
	movb	-1(%rbp), %al
	andb	$1, %al
	movzbl	%al, %eax
	addq	$16, %rsp
	popq	%rbp
	retq
	.cfi_endproc

	.globl	__ZN42_$LT$$RF$T$u20$as$u20$core..fmt..Debug$GT$3fmt17h9a125057433833bdE
	.p2align	4, 0x90
__ZN42_$LT$$RF$T$u20$as$u20$core..fmt..Debug$GT$3fmt17h9a125057433833bdE:
	.cfi_startproc
	pushq	%rbp
	.cfi_def_cfa_offset 16
	.cfi_offset %rbp, -16
	movq	%rsp, %rbp
	.cfi_def_cfa_register %rbp
	subq	$16, %rsp
	movq	(%rdi), %rdi
	callq	__ZN41_$LT$bool$u20$as$u20$core..fmt..Debug$GT$3fmt17h0ebd1a672d60d97cE
	movb	%al, -1(%rbp)
	movb	-1(%rbp), %al
	andb	$1, %al
	movzbl	%al, %eax
	addq	$16, %rsp
	popq	%rbp
	retq
	.cfi_endproc

	.globl	__ZN42_$LT$$RF$T$u20$as$u20$core..fmt..Debug$GT$3fmt17hac1403810c6fdefcE
	.p2align	4, 0x90
__ZN42_$LT$$RF$T$u20$as$u20$core..fmt..Debug$GT$3fmt17hac1403810c6fdefcE:
	.cfi_startproc
	pushq	%rbp
	.cfi_def_cfa_offset 16
	.cfi_offset %rbp, -16
	movq	%rsp, %rbp
	.cfi_def_cfa_register %rbp
	subq	$16, %rsp
	movq	(%rdi), %rdi
	callq	__ZN66_$LT$core..option..Option$LT$T$GT$$u20$as$u20$core..fmt..Debug$GT$3fmt17h80264b8da5232d66E
	movb	%al, -1(%rbp)
	movb	-1(%rbp), %al
	andb	$1, %al
	movzbl	%al, %eax
	addq	$16, %rsp
	popq	%rbp
	retq
	.cfi_endproc

	.globl	__ZN42_$LT$$RF$T$u20$as$u20$core..fmt..Debug$GT$3fmt17hb00a1a75b0d97445E
	.p2align	4, 0x90
__ZN42_$LT$$RF$T$u20$as$u20$core..fmt..Debug$GT$3fmt17hb00a1a75b0d97445E:
	.cfi_startproc
	pushq	%rbp
	.cfi_def_cfa_offset 16
	.cfi_offset %rbp, -16
	movq	%rsp, %rbp
	.cfi_def_cfa_register %rbp
	subq	$16, %rsp
	movq	(%rdi), %rax
	movq	8(%rdi), %rcx
	movq	%rax, %rdi
	movq	%rsi, -8(%rbp)
	movq	%rcx, %rsi
	movq	-8(%rbp), %rdx
	callq	__ZN40_$LT$str$u20$as$u20$core..fmt..Debug$GT$3fmt17h5b42b6f497bd434cE
	movb	%al, -9(%rbp)
	movb	-9(%rbp), %al
	andb	$1, %al
	movzbl	%al, %eax
	addq	$16, %rsp
	popq	%rbp
	retq
	.cfi_endproc

	.globl	__ZN42_$LT$$RF$T$u20$as$u20$core..fmt..Debug$GT$3fmt17hb4700ce0eef0de5eE
	.p2align	4, 0x90
__ZN42_$LT$$RF$T$u20$as$u20$core..fmt..Debug$GT$3fmt17hb4700ce0eef0de5eE:
	.cfi_startproc
	pushq	%rbp
	.cfi_def_cfa_offset 16
	.cfi_offset %rbp, -16
	movq	%rsp, %rbp
	.cfi_def_cfa_register %rbp
	subq	$16, %rsp
	movq	(%rdi), %rdi
	callq	__ZN57_$LT$core..str..Utf8Error$u20$as$u20$core..fmt..Debug$GT$3fmt17h8b3ce0811b1626a0E
	movb	%al, -1(%rbp)
	movb	-1(%rbp), %al
	andb	$1, %al
	movzbl	%al, %eax
	addq	$16, %rsp
	popq	%rbp
	retq
	.cfi_endproc

	.globl	__ZN42_$LT$$RF$T$u20$as$u20$core..fmt..Debug$GT$3fmt17hbb4fcc57e02ce721E
	.p2align	4, 0x90
__ZN42_$LT$$RF$T$u20$as$u20$core..fmt..Debug$GT$3fmt17hbb4fcc57e02ce721E:
	.cfi_startproc
	pushq	%rbp
	.cfi_def_cfa_offset 16
	.cfi_offset %rbp, -16
	movq	%rsp, %rbp
	.cfi_def_cfa_register %rbp
	subq	$16, %rsp
	movq	(%rdi), %rdi
	callq	__ZN58_$LT$std..io..error..Error$u20$as$u20$core..fmt..Debug$GT$3fmt17hd2ddac42b4f82396E
	movb	%al, -1(%rbp)
	movb	-1(%rbp), %al
	andb	$1, %al
	movzbl	%al, %eax
	addq	$16, %rsp
	popq	%rbp
	retq
	.cfi_endproc

	.globl	__ZN42_$LT$$RF$T$u20$as$u20$core..fmt..Debug$GT$3fmt17hd331b625594d4e8cE
	.p2align	4, 0x90
__ZN42_$LT$$RF$T$u20$as$u20$core..fmt..Debug$GT$3fmt17hd331b625594d4e8cE:
	.cfi_startproc
	pushq	%rbp
	.cfi_def_cfa_offset 16
	.cfi_offset %rbp, -16
	movq	%rsp, %rbp
	.cfi_def_cfa_register %rbp
	subq	$16, %rsp
	movq	(%rdi), %rdi
	callq	__ZN42_$LT$$RF$T$u20$as$u20$core..fmt..Debug$GT$3fmt17hb00a1a75b0d97445E
	movb	%al, -1(%rbp)
	movb	-1(%rbp), %al
	andb	$1, %al
	movzbl	%al, %eax
	addq	$16, %rsp
	popq	%rbp
	retq
	.cfi_endproc

	.globl	__ZN42_$LT$$RF$T$u20$as$u20$core..fmt..Debug$GT$3fmt17he4c5d6dbf12c5817E
	.p2align	4, 0x90
__ZN42_$LT$$RF$T$u20$as$u20$core..fmt..Debug$GT$3fmt17he4c5d6dbf12c5817E:
	.cfi_startproc
	pushq	%rbp
	.cfi_def_cfa_offset 16
	.cfi_offset %rbp, -16
	movq	%rsp, %rbp
	.cfi_def_cfa_register %rbp
	subq	$16, %rsp
	movq	(%rdi), %rdi
	callq	__ZN62_$LT$autocfg..error..ErrorKind$u20$as$u20$core..fmt..Debug$GT$3fmt17he024891105f25a4eE
	movb	%al, -1(%rbp)
	movb	-1(%rbp), %al
	andb	$1, %al
	movzbl	%al, %eax
	addq	$16, %rsp
	popq	%rbp
	retq
	.cfi_endproc

	.globl	__ZN42_$LT$$RF$T$u20$as$u20$core..fmt..Debug$GT$3fmt17hf9ebda94897a632eE
	.p2align	4, 0x90
__ZN42_$LT$$RF$T$u20$as$u20$core..fmt..Debug$GT$3fmt17hf9ebda94897a632eE:
	.cfi_startproc
	pushq	%rbp
	.cfi_def_cfa_offset 16
	.cfi_offset %rbp, -16
	movq	%rsp, %rbp
	.cfi_def_cfa_register %rbp
	subq	$16, %rsp
	movq	(%rdi), %rdi
	callq	__ZN62_$LT$autocfg..version..Version$u20$as$u20$core..fmt..Debug$GT$3fmt17h885d189b760d9d77E
	movb	%al, -1(%rbp)
	movb	-1(%rbp), %al
	andb	$1, %al
	movzbl	%al, %eax
	addq	$16, %rsp
	popq	%rbp
	retq
	.cfi_endproc

	.globl	__ZN44_$LT$$RF$T$u20$as$u20$core..fmt..Display$GT$3fmt17h2033c953ae24e214E
	.p2align	4, 0x90
__ZN44_$LT$$RF$T$u20$as$u20$core..fmt..Display$GT$3fmt17h2033c953ae24e214E:
	.cfi_startproc
	pushq	%rbp
	.cfi_def_cfa_offset 16
	.cfi_offset %rbp, -16
	movq	%rsp, %rbp
	.cfi_def_cfa_register %rbp
	subq	$16, %rsp
	movq	(%rdi), %rax
	movq	8(%rdi), %rcx
	movq	%rax, %rdi
	movq	%rsi, -8(%rbp)
	movq	%rcx, %rsi
	movq	-8(%rbp), %rdx
	callq	__ZN42_$LT$str$u20$as$u20$core..fmt..Display$GT$3fmt17h6768afae62e94f93E
	movb	%al, -9(%rbp)
	movb	-9(%rbp), %al
	andb	$1, %al
	movzbl	%al, %eax
	addq	$16, %rsp
	popq	%rbp
	retq
	.cfi_endproc

	.p2align	4, 0x90
__ZN47_$LT$str$u20$as$u20$alloc..string..ToString$GT$9to_string17h2e97d852e4c8277eE:
	.cfi_startproc
	pushq	%rbp
	.cfi_def_cfa_offset 16
	.cfi_offset %rbp, -16
	movq	%rsp, %rbp
	.cfi_def_cfa_register %rbp
	subq	$16, %rsp
	movq	%rdi, %rax
	movq	%rax, -8(%rbp)
	callq	__ZN76_$LT$alloc..string..String$u20$as$u20$core..convert..From$LT$$RF$str$GT$$GT$4from17hb1495455c8d6be05E
	movq	-8(%rbp), %rax
	addq	$16, %rsp
	popq	%rbp
	retq
	.cfi_endproc

	.globl	__ZN48_$LT$$u5b$T$u5d$$u20$as$u20$core..fmt..Debug$GT$3fmt17h4cd54a8150a2a747E
	.p2align	4, 0x90
__ZN48_$LT$$u5b$T$u5d$$u20$as$u20$core..fmt..Debug$GT$3fmt17h4cd54a8150a2a747E:
	.cfi_startproc
	pushq	%rbp
	.cfi_def_cfa_offset 16
	.cfi_offset %rbp, -16
	movq	%rsp, %rbp
	.cfi_def_cfa_register %rbp
	subq	$64, %rsp
	leaq	-16(%rbp), %rax
	movq	%rdi, -24(%rbp)
	movq	%rax, %rdi
	movq	%rsi, -32(%rbp)
	movq	%rdx, %rsi
	callq	__ZN4core3fmt9Formatter10debug_list17h113a4e31f24f00d7E
	movq	-24(%rbp), %rdi
	movq	-32(%rbp), %rsi
	callq	__ZN4core5slice29_$LT$impl$u20$$u5b$T$u5d$$GT$4iter17hf0a9a846e2e9658dE
	movq	%rax, -40(%rbp)
	movq	%rdx, -48(%rbp)
	leaq	-16(%rbp), %rdi
	movq	-40(%rbp), %rsi
	movq	-48(%rbp), %rdx
	callq	__ZN4core3fmt8builders9DebugList7entries17ha6559036665e2ce8E
	movq	%rax, -56(%rbp)
	movq	-56(%rbp), %rdi
	callq	__ZN4core3fmt8builders9DebugList6finish17h1537bc92ee1acb1cE
	movb	%al, -57(%rbp)
	movb	-57(%rbp), %al
	andb	$1, %al
	movzbl	%al, %eax
	addq	$64, %rsp
	popq	%rbp
	retq
	.cfi_endproc

	.globl	__ZN4core10intrinsics11write_bytes17h5e00d06073702d7cE
	.p2align	4, 0x90
__ZN4core10intrinsics11write_bytes17h5e00d06073702d7cE:
	.cfi_startproc
	pushq	%rbp
	.cfi_def_cfa_offset 16
	.cfi_offset %rbp, -16
	movq	%rsp, %rbp
	.cfi_def_cfa_register %rbp
	shlq	$0, %rdx
	movzbl	%sil, %esi
	callq	_memset
	popq	%rbp
	retq
	.cfi_endproc

	.globl	__ZN4core10intrinsics19copy_nonoverlapping17h1c8eaa857ef70d36E
	.p2align	4, 0x90
__ZN4core10intrinsics19copy_nonoverlapping17h1c8eaa857ef70d36E:
	.cfi_startproc
	pushq	%rbp
	.cfi_def_cfa_offset 16
	.cfi_offset %rbp, -16
	movq	%rsp, %rbp
	.cfi_def_cfa_register %rbp
	subq	$16, %rsp
	shlq	$5, %rdx
	movq	%rdi, -8(%rbp)
	movq	%rsi, %rdi
	movq	-8(%rbp), %rsi
	callq	_memcpy
	addq	$16, %rsp
	popq	%rbp
	retq
	.cfi_endproc

	.globl	__ZN4core10intrinsics19copy_nonoverlapping17h3e54dd1337f97515E
	.p2align	4, 0x90
__ZN4core10intrinsics19copy_nonoverlapping17h3e54dd1337f97515E:
	.cfi_startproc
	pushq	%rbp
	.cfi_def_cfa_offset 16
	.cfi_offset %rbp, -16
	movq	%rsp, %rbp
	.cfi_def_cfa_register %rbp
	subq	$16, %rsp
	imulq	$24, %rdx, %rdx
	movq	%rdi, -8(%rbp)
	movq	%rsi, %rdi
	movq	-8(%rbp), %rsi
	callq	_memcpy
	addq	$16, %rsp
	popq	%rbp
	retq
	.cfi_endproc

	.globl	__ZN4core10intrinsics19copy_nonoverlapping17h476c7fb58911cb27E
	.p2align	4, 0x90
__ZN4core10intrinsics19copy_nonoverlapping17h476c7fb58911cb27E:
	.cfi_startproc
	pushq	%rbp
	.cfi_def_cfa_offset 16
	.cfi_offset %rbp, -16
	movq	%rsp, %rbp
	.cfi_def_cfa_register %rbp
	subq	$16, %rsp
	shlq	$0, %rdx
	movq	%rdi, -8(%rbp)
	movq	%rsi, %rdi
	movq	-8(%rbp), %rsi
	callq	_memcpy
	addq	$16, %rsp
	popq	%rbp
	retq
	.cfi_endproc

	.globl	__ZN4core10intrinsics19copy_nonoverlapping17h6e102c3b6183f6daE
	.p2align	4, 0x90
__ZN4core10intrinsics19copy_nonoverlapping17h6e102c3b6183f6daE:
	.cfi_startproc
	pushq	%rbp
	.cfi_def_cfa_offset 16
	.cfi_offset %rbp, -16
	movq	%rsp, %rbp
	.cfi_def_cfa_register %rbp
	subq	$16, %rsp
	shlq	$4, %rdx
	movq	%rdi, -8(%rbp)
	movq	%rsi, %rdi
	movq	-8(%rbp), %rsi
	callq	_memcpy
	addq	$16, %rsp
	popq	%rbp
	retq
	.cfi_endproc

	.globl	__ZN4core10intrinsics19copy_nonoverlapping17h70ea0519db8bffddE
	.p2align	4, 0x90
__ZN4core10intrinsics19copy_nonoverlapping17h70ea0519db8bffddE:
	.cfi_startproc
	pushq	%rbp
	.cfi_def_cfa_offset 16
	.cfi_offset %rbp, -16
	movq	%rsp, %rbp
	.cfi_def_cfa_register %rbp
	subq	$16, %rsp
	imulq	$24, %rdx, %rdx
	movq	%rdi, -8(%rbp)
	movq	%rsi, %rdi
	movq	-8(%rbp), %rsi
	callq	_memcpy
	addq	$16, %rsp
	popq	%rbp
	retq
	.cfi_endproc

	.globl	__ZN4core10intrinsics19copy_nonoverlapping17h7c086a431ade4368E
	.p2align	4, 0x90
__ZN4core10intrinsics19copy_nonoverlapping17h7c086a431ade4368E:
	.cfi_startproc
	pushq	%rbp
	.cfi_def_cfa_offset 16
	.cfi_offset %rbp, -16
	movq	%rsp, %rbp
	.cfi_def_cfa_register %rbp
	subq	$16, %rsp
	shlq	$5, %rdx
	movq	%rdi, -8(%rbp)
	movq	%rsi, %rdi
	movq	-8(%rbp), %rsi
	callq	_memcpy
	addq	$16, %rsp
	popq	%rbp
	retq
	.cfi_endproc

	.globl	__ZN4core10intrinsics19copy_nonoverlapping17hc2b084134b882072E
	.p2align	4, 0x90
__ZN4core10intrinsics19copy_nonoverlapping17hc2b084134b882072E:
	.cfi_startproc
	pushq	%rbp
	.cfi_def_cfa_offset 16
	.cfi_offset %rbp, -16
	movq	%rsp, %rbp
	.cfi_def_cfa_register %rbp
	subq	$16, %rsp
	imulq	$24, %rdx, %rdx
	movq	%rdi, -8(%rbp)
	movq	%rsi, %rdi
	movq	-8(%rbp), %rsi
	callq	_memcpy
	addq	$16, %rsp
	popq	%rbp
	retq
	.cfi_endproc

	.globl	__ZN4core10intrinsics19copy_nonoverlapping17hc453868a42ec910dE
	.p2align	4, 0x90
__ZN4core10intrinsics19copy_nonoverlapping17hc453868a42ec910dE:
	.cfi_startproc
	pushq	%rbp
	.cfi_def_cfa_offset 16
	.cfi_offset %rbp, -16
	movq	%rsp, %rbp
	.cfi_def_cfa_register %rbp
	subq	$16, %rsp
	imulq	$24, %rdx, %rdx
	movq	%rdi, -8(%rbp)
	movq	%rsi, %rdi
	movq	-8(%rbp), %rsi
	callq	_memcpy
	addq	$16, %rsp
	popq	%rbp
	retq
	.cfi_endproc

	.globl	__ZN4core10intrinsics19copy_nonoverlapping17hc98047355ae4ea29E
	.p2align	4, 0x90
__ZN4core10intrinsics19copy_nonoverlapping17hc98047355ae4ea29E:
	.cfi_startproc
	pushq	%rbp
	.cfi_def_cfa_offset 16
	.cfi_offset %rbp, -16
	movq	%rsp, %rbp
	.cfi_def_cfa_register %rbp
	subq	$16, %rsp
	shlq	$3, %rdx
	movq	%rdi, -8(%rbp)
	movq	%rsi, %rdi
	movq	-8(%rbp), %rsi
	callq	_memcpy
	addq	$16, %rsp
	popq	%rbp
	retq
	.cfi_endproc

	.globl	__ZN4core10intrinsics19copy_nonoverlapping17hd3f991986b371192E
	.p2align	4, 0x90
__ZN4core10intrinsics19copy_nonoverlapping17hd3f991986b371192E:
	.cfi_startproc
	pushq	%rbp
	.cfi_def_cfa_offset 16
	.cfi_offset %rbp, -16
	movq	%rsp, %rbp
	.cfi_def_cfa_register %rbp
	subq	$16, %rsp
	imulq	$24, %rdx, %rdx
	movq	%rdi, -8(%rbp)
	movq	%rsi, %rdi
	movq	-8(%rbp), %rsi
	callq	_memcpy
	addq	$16, %rsp
	popq	%rbp
	retq
	.cfi_endproc

	.globl	__ZN4core3any6TypeId2of17h67842bbadb057f9aE
	.p2align	4, 0x90
__ZN4core3any6TypeId2of17h67842bbadb057f9aE:
	.cfi_startproc
	pushq	%rbp
	.cfi_def_cfa_offset 16
	.cfi_offset %rbp, -16
	movq	%rsp, %rbp
	.cfi_def_cfa_register %rbp
	subq	$24, %rsp
	movabsq	$7508826005076360610, %rax
	movq	%rax, -8(%rbp)
	movq	-8(%rbp), %rax
	movq	%rax, -24(%rbp)
	movq	-24(%rbp), %rax
	movq	%rax, -16(%rbp)
	movq	-16(%rbp), %rax
	addq	$24, %rsp
	popq	%rbp
	retq
	.cfi_endproc

	.globl	__ZN4core3any6TypeId2of17h8cdbfb7671c71271E
	.p2align	4, 0x90
__ZN4core3any6TypeId2of17h8cdbfb7671c71271E:
	.cfi_startproc
	pushq	%rbp
	.cfi_def_cfa_offset 16
	.cfi_offset %rbp, -16
	movq	%rsp, %rbp
	.cfi_def_cfa_register %rbp
	subq	$24, %rsp
	movabsq	$-2185102286780352927, %rax
	movq	%rax, -8(%rbp)
	movq	-8(%rbp), %rax
	movq	%rax, -24(%rbp)
	movq	-24(%rbp), %rax
	movq	%rax, -16(%rbp)
	movq	-16(%rbp), %rax
	addq	$24, %rsp
	popq	%rbp
	retq
	.cfi_endproc

	.globl	__ZN4core3any6TypeId2of17he5a2cae4608fbd63E
	.p2align	4, 0x90
__ZN4core3any6TypeId2of17he5a2cae4608fbd63E:
	.cfi_startproc
	pushq	%rbp
	.cfi_def_cfa_offset 16
	.cfi_offset %rbp, -16
	movq	%rsp, %rbp
	.cfi_def_cfa_register %rbp
	subq	$24, %rsp
	movabsq	$1350198158756948483, %rax
	movq	%rax, -8(%rbp)
	movq	-8(%rbp), %rax
	movq	%rax, -24(%rbp)
	movq	-24(%rbp), %rax
	movq	%rax, -16(%rbp)
	movq	-16(%rbp), %rax
	addq	$24, %rsp
	popq	%rbp
	retq
	.cfi_endproc

	.globl	__ZN4core3any6TypeId2of17hedb3818ec5805d1fE
	.p2align	4, 0x90
__ZN4core3any6TypeId2of17hedb3818ec5805d1fE:
	.cfi_startproc
	pushq	%rbp
	.cfi_def_cfa_offset 16
	.cfi_offset %rbp, -16
	movq	%rsp, %rbp
	.cfi_def_cfa_register %rbp
	subq	$24, %rsp
	movabsq	$-2072573660368484727, %rax
	movq	%rax, -8(%rbp)
	movq	-8(%rbp), %rax
	movq	%rax, -24(%rbp)
	movq	-24(%rbp), %rax
	movq	%rax, -16(%rbp)
	movq	-16(%rbp), %rax
	addq	$24, %rsp
	popq	%rbp
	retq
	.cfi_endproc

	.globl	__ZN4core3cmp3Ord3max17h11e447e9fe09df96E
	.p2align	4, 0x90
__ZN4core3cmp3Ord3max17h11e447e9fe09df96E:
	.cfi_startproc
	pushq	%rbp
	.cfi_def_cfa_offset 16
	.cfi_offset %rbp, -16
	movq	%rsp, %rbp
	.cfi_def_cfa_register %rbp
	subq	$16, %rsp
	callq	__ZN4core3cmp6max_by17h0f188b9804004fcbE
	movq	%rax, -8(%rbp)
	movq	-8(%rbp), %rax
	addq	$16, %rsp
	popq	%rbp
	retq
	.cfi_endproc

	.globl	__ZN4core3cmp3max17h42af0b0d9157a0ecE
	.p2align	4, 0x90
__ZN4core3cmp3max17h42af0b0d9157a0ecE:
	.cfi_startproc
	pushq	%rbp
	.cfi_def_cfa_offset 16
	.cfi_offset %rbp, -16
	movq	%rsp, %rbp
	.cfi_def_cfa_register %rbp
	subq	$16, %rsp
	callq	__ZN4core3cmp3Ord3max17h11e447e9fe09df96E
	movq	%rax, -8(%rbp)
	movq	-8(%rbp), %rax
	addq	$16, %rsp
	popq	%rbp
	retq
	.cfi_endproc

	.p2align	4, 0x90
__ZN4core3cmp5impls50_$LT$impl$u20$core..cmp..Ord$u20$for$u20$usize$GT$3cmp17h91ec5a7680486469E:
	.cfi_startproc
	pushq	%rbp
	.cfi_def_cfa_offset 16
	.cfi_offset %rbp, -16
	movq	%rsp, %rbp
	.cfi_def_cfa_register %rbp
	subq	$24, %rsp
	movq	(%rdi), %rax
	cmpq	(%rsi), %rax
	movq	%rdi, -16(%rbp)
	movq	%rsi, -24(%rbp)
	jb	LBB88_2
	movq	-16(%rbp), %rax
	movq	(%rax), %rcx
	movq	-24(%rbp), %rdx
	cmpq	(%rdx), %rcx
	je	LBB88_4
	jmp	LBB88_3
LBB88_2:
	movb	$-1, -1(%rbp)
	jmp	LBB88_6
LBB88_3:
	movb	$1, -1(%rbp)
	jmp	LBB88_5
LBB88_4:
	movb	$0, -1(%rbp)
LBB88_5:
	jmp	LBB88_6
LBB88_6:
	movb	-1(%rbp), %al
	addq	$24, %rsp
	popq	%rbp
	retq
	.cfi_endproc

	.p2align	4, 0x90
__ZN4core3cmp5impls57_$LT$impl$u20$core..cmp..PartialOrd$u20$for$u20$usize$GT$11partial_cmp17hf93be50c35528063E:
	.cfi_startproc
	pushq	%rbp
	.cfi_def_cfa_offset 16
	.cfi_offset %rbp, -16
	movq	%rsp, %rbp
	.cfi_def_cfa_register %rbp
	subq	$16, %rsp
	callq	__ZN4core3cmp5impls50_$LT$impl$u20$core..cmp..Ord$u20$for$u20$usize$GT$3cmp17h91ec5a7680486469E
	movb	%al, -2(%rbp)
	movb	-2(%rbp), %al
	movb	%al, -1(%rbp)
	movb	-1(%rbp), %al
	addq	$16, %rsp
	popq	%rbp
	retq
	.cfi_endproc

	.globl	__ZN4core3cmp5impls69_$LT$impl$u20$core..cmp..PartialEq$LT$$RF$B$GT$$u20$for$u20$$RF$A$GT$2eq17ha35144a67717ff40E
	.p2align	4, 0x90
__ZN4core3cmp5impls69_$LT$impl$u20$core..cmp..PartialEq$LT$$RF$B$GT$$u20$for$u20$$RF$A$GT$2eq17ha35144a67717ff40E:
	.cfi_startproc
	pushq	%rbp
	.cfi_def_cfa_offset 16
	.cfi_offset %rbp, -16
	movq	%rsp, %rbp
	.cfi_def_cfa_register %rbp
	subq	$16, %rsp
	movq	(%rdi), %rax
	movq	8(%rdi), %rcx
	movq	(%rsi), %rdx
	movq	8(%rsi), %rsi
	movq	%rax, %rdi
	movq	%rsi, -8(%rbp)
	movq	%rcx, %rsi
	movq	-8(%rbp), %rcx
	callq	__ZN4core5slice81_$LT$impl$u20$core..cmp..PartialEq$LT$$u5b$B$u5d$$GT$$u20$for$u20$$u5b$A$u5d$$GT$2eq17hea46870b3841f234E
	movb	%al, -9(%rbp)
	movb	-9(%rbp), %al
	andb	$1, %al
	movzbl	%al, %eax
	addq	$16, %rsp
	popq	%rbp
	retq
	.cfi_endproc

	.globl	__ZN4core3cmp6max_by17h0f188b9804004fcbE
	.p2align	4, 0x90
__ZN4core3cmp6max_by17h0f188b9804004fcbE:
Lfunc_begin13:
	.cfi_startproc
	.cfi_personality 155, _rust_eh_personality
	.cfi_lsda 16, Lexception13
	pushq	%rbp
	.cfi_def_cfa_offset 16
	.cfi_offset %rbp, -16
	movq	%rsp, %rbp
	.cfi_def_cfa_register %rbp
	subq	$80, %rsp
	movq	%rdi, -72(%rbp)
	movq	%rsi, -64(%rbp)
	movb	$0, -18(%rbp)
	movb	$0, -17(%rbp)
	movb	$1, -18(%rbp)
	movb	$1, -17(%rbp)
	leaq	-72(%rbp), %rax
	movq	%rax, -40(%rbp)
	leaq	-64(%rbp), %rax
	movq	%rax, -32(%rbp)
	movq	-40(%rbp), %rdi
	movq	-32(%rbp), %rsi
Ltmp77:
	callq	__ZN4core3ops8function6FnOnce9call_once17h7e58123d603c4465E
Ltmp78:
	movb	%al, -73(%rbp)
	jmp	LBB91_2
LBB91_1:
	movq	-16(%rbp), %rdi
	callq	__Unwind_Resume
	ud2
LBB91_2:
	movb	-73(%rbp), %al
	movb	%al, -41(%rbp)
	movsbq	-41(%rbp), %rcx
	incq	%rcx
	subq	$2, %rcx
	jb	LBB91_7
	jmp	LBB91_15
LBB91_15:
	jmp	LBB91_5
LBB91_3:
	testb	$1, -18(%rbp)
	jne	LBB91_11
	jmp	LBB91_1
LBB91_4:
	movb	$0, -17(%rbp)
	jmp	LBB91_3
LBB91_5:
	movb	$0, -18(%rbp)
	movq	-72(%rbp), %rax
	movq	%rax, -56(%rbp)
	jmp	LBB91_8
	ud2
LBB91_7:
	movb	$0, -17(%rbp)
	movq	-64(%rbp), %rax
	movq	%rax, -56(%rbp)
LBB91_8:
	testb	$1, -17(%rbp)
	jne	LBB91_12
LBB91_9:
	testb	$1, -18(%rbp)
	jne	LBB91_13
LBB91_10:
	movq	-56(%rbp), %rax
	addq	$80, %rsp
	popq	%rbp
	retq
LBB91_11:
	movb	$0, -18(%rbp)
	jmp	LBB91_1
LBB91_12:
	movb	$0, -17(%rbp)
	jmp	LBB91_9
LBB91_13:
	movb	$0, -18(%rbp)
	jmp	LBB91_10
LBB91_14:
Ltmp79:
	movq	%rax, -16(%rbp)
	movl	%edx, -8(%rbp)
	jmp	LBB91_4
Lfunc_end13:
	.cfi_endproc
	.section	__TEXT,__gcc_except_tab
	.p2align	2
GCC_except_table91:
Lexception13:
	.byte	255
	.byte	255
	.byte	1
	.uleb128 Lcst_end13-Lcst_begin13
Lcst_begin13:
	.uleb128 Ltmp77-Lfunc_begin13
	.uleb128 Ltmp78-Ltmp77
	.uleb128 Ltmp79-Lfunc_begin13
	.byte	0
	.uleb128 Ltmp78-Lfunc_begin13
	.uleb128 Lfunc_end13-Ltmp78
	.byte	0
	.byte	0
Lcst_end13:
	.p2align	2

	.section	__TEXT,__text,regular,pure_instructions
	.globl	__ZN4core3cmp8Ordering9then_with17he53ecab08c38fbcbE
	.p2align	4, 0x90
__ZN4core3cmp8Ordering9then_with17he53ecab08c38fbcbE:
	.cfi_startproc
	pushq	%rbp
	.cfi_def_cfa_offset 16
	.cfi_offset %rbp, -16
	movq	%rsp, %rbp
	.cfi_def_cfa_register %rbp
	subq	$64, %rsp
	movb	%dil, -42(%rbp)
	movb	$0, -1(%rbp)
	movb	$1, -1(%rbp)
	movsbq	-42(%rbp), %rax
	cmpq	$0, %rax
	movq	%rsi, -56(%rbp)
	je	LBB92_2
	movb	-42(%rbp), %al
	movb	%al, -41(%rbp)
	jmp	LBB92_6
LBB92_2:
	movb	$0, -1(%rbp)
	movq	-56(%rbp), %rax
	movq	(%rax), %rcx
	movq	%rcx, -40(%rbp)
	movq	8(%rax), %rcx
	movq	%rcx, -32(%rbp)
	movq	16(%rax), %rcx
	movq	%rcx, -24(%rbp)
	movq	24(%rax), %rcx
	movq	%rcx, -16(%rbp)
	leaq	-40(%rbp), %rdi
	callq	__ZN67_$LT$autocfg..version..Version$u20$as$u20$core..cmp..PartialOrd$GT$2ge28_$u7b$$u7b$closure$u7d$$u7d$17h32426f621842778dE
	movb	%al, -41(%rbp)
	jmp	LBB92_6
LBB92_4:
	movb	-41(%rbp), %al
	addq	$64, %rsp
	popq	%rbp
	retq
LBB92_5:
	movb	$0, -1(%rbp)
	jmp	LBB92_4
LBB92_6:
	testb	$1, -1(%rbp)
	jne	LBB92_5
	jmp	LBB92_4
	.cfi_endproc

	.globl	__ZN4core3cmp8Ordering9then_with17hfb4add3a9f58174dE
	.p2align	4, 0x90
__ZN4core3cmp8Ordering9then_with17hfb4add3a9f58174dE:
	.cfi_startproc
	pushq	%rbp
	.cfi_def_cfa_offset 16
	.cfi_offset %rbp, -16
	movq	%rsp, %rbp
	.cfi_def_cfa_register %rbp
	subq	$32, %rsp
	movb	%dil, -3(%rbp)
	movb	$0, -1(%rbp)
	movb	$1, -1(%rbp)
	movsbq	-3(%rbp), %rax
	cmpq	$0, %rax
	movq	%rdx, -16(%rbp)
	movq	%rsi, -24(%rbp)
	je	LBB93_2
	movb	-3(%rbp), %al
	movb	%al, -2(%rbp)
	jmp	LBB93_6
LBB93_2:
	movb	$0, -1(%rbp)
	movq	-24(%rbp), %rdi
	movq	-16(%rbp), %rsi
	callq	__ZN67_$LT$autocfg..version..Version$u20$as$u20$core..cmp..PartialOrd$GT$2ge28_$u7b$$u7b$closure$u7d$$u7d$28_$u7b$$u7b$closure$u7d$$u7d$17hed71be3cb8cb55b8E
	movb	%al, -2(%rbp)
	jmp	LBB93_6
LBB93_4:
	movb	-2(%rbp), %al
	addq	$32, %rsp
	popq	%rbp
	retq
LBB93_5:
	movb	$0, -1(%rbp)
	jmp	LBB93_4
LBB93_6:
	testb	$1, -1(%rbp)
	jne	LBB93_5
	jmp	LBB93_4
	.cfi_endproc

	.globl	__ZN4core3cmp9PartialEq2ne17h2596cd9e5a831ec3E
	.p2align	4, 0x90
__ZN4core3cmp9PartialEq2ne17h2596cd9e5a831ec3E:
	.cfi_startproc
	pushq	%rbp
	.cfi_def_cfa_offset 16
	.cfi_offset %rbp, -16
	movq	%rsp, %rbp
	.cfi_def_cfa_register %rbp
	subq	$16, %rsp
	callq	__ZN60_$LT$core..cmp..Ordering$u20$as$u20$core..cmp..PartialEq$GT$2eq17h4b5564ee5c6092edE
	movb	%al, -1(%rbp)
	movb	-1(%rbp), %al
	xorb	$-1, %al
	andb	$1, %al
	movzbl	%al, %eax
	addq	$16, %rsp
	popq	%rbp
	retq
	.cfi_endproc

	.globl	__ZN4core3cmp9PartialEq2ne17he09c59e7c7227062E
	.p2align	4, 0x90
__ZN4core3cmp9PartialEq2ne17he09c59e7c7227062E:
	.cfi_startproc
	pushq	%rbp
	.cfi_def_cfa_offset 16
	.cfi_offset %rbp, -16
	movq	%rsp, %rbp
	.cfi_def_cfa_register %rbp
	subq	$16, %rsp
	callq	__ZN67_$LT$std..ffi..os_str..OsString$u20$as$u20$core..cmp..PartialEq$GT$2eq17h6aa038918fa6c071E
	movb	%al, -1(%rbp)
	movb	-1(%rbp), %al
	xorb	$-1, %al
	andb	$1, %al
	movzbl	%al, %eax
	addq	$16, %rsp
	popq	%rbp
	retq
	.cfi_endproc

	.globl	__ZN4core3fmt10ArgumentV13new17h0c7c78f090a54ae3E
	.p2align	4, 0x90
__ZN4core3fmt10ArgumentV13new17h0c7c78f090a54ae3E:
	.cfi_startproc
	pushq	%rbp
	.cfi_def_cfa_offset 16
	.cfi_offset %rbp, -16
	movq	%rsp, %rbp
	.cfi_def_cfa_register %rbp
	subq	$56, %rsp
	movq	%rsi, -16(%rbp)
	movq	-16(%rbp), %rax
	movq	%rdi, -40(%rbp)
	movq	%rax, -48(%rbp)
	movq	-40(%rbp), %rax
	movq	%rax, -8(%rbp)
	movq	-8(%rbp), %rcx
	movq	%rcx, -56(%rbp)
	movq	-56(%rbp), %rax
	movq	%rax, -32(%rbp)
	movq	-48(%rbp), %rcx
	movq	%rcx, -24(%rbp)
	movq	-32(%rbp), %rax
	movq	-24(%rbp), %rdx
	addq	$56, %rsp
	popq	%rbp
	retq
	.cfi_endproc

	.globl	__ZN4core3fmt10ArgumentV13new17h81ebc2040350d24aE
	.p2align	4, 0x90
__ZN4core3fmt10ArgumentV13new17h81ebc2040350d24aE:
	.cfi_startproc
	pushq	%rbp
	.cfi_def_cfa_offset 16
	.cfi_offset %rbp, -16
	movq	%rsp, %rbp
	.cfi_def_cfa_register %rbp
	subq	$56, %rsp
	movq	%rsi, -16(%rbp)
	movq	-16(%rbp), %rax
	movq	%rdi, -40(%rbp)
	movq	%rax, -48(%rbp)
	movq	-40(%rbp), %rax
	movq	%rax, -8(%rbp)
	movq	-8(%rbp), %rcx
	movq	%rcx, -56(%rbp)
	movq	-56(%rbp), %rax
	movq	%rax, -32(%rbp)
	movq	-48(%rbp), %rcx
	movq	%rcx, -24(%rbp)
	movq	-32(%rbp), %rax
	movq	-24(%rbp), %rdx
	addq	$56, %rsp
	popq	%rbp
	retq
	.cfi_endproc

	.globl	__ZN4core3fmt10ArgumentV13new17h9c7ec082a608ef70E
	.p2align	4, 0x90
__ZN4core3fmt10ArgumentV13new17h9c7ec082a608ef70E:
	.cfi_startproc
	pushq	%rbp
	.cfi_def_cfa_offset 16
	.cfi_offset %rbp, -16
	movq	%rsp, %rbp
	.cfi_def_cfa_register %rbp
	subq	$56, %rsp
	movq	%rsi, -16(%rbp)
	movq	-16(%rbp), %rax
	movq	%rdi, -40(%rbp)
	movq	%rax, -48(%rbp)
	movq	-40(%rbp), %rax
	movq	%rax, -8(%rbp)
	movq	-8(%rbp), %rcx
	movq	%rcx, -56(%rbp)
	movq	-56(%rbp), %rax
	movq	%rax, -32(%rbp)
	movq	-48(%rbp), %rcx
	movq	%rcx, -24(%rbp)
	movq	-32(%rbp), %rax
	movq	-24(%rbp), %rdx
	addq	$56, %rsp
	popq	%rbp
	retq
	.cfi_endproc

	.globl	__ZN4core3fmt10ArgumentV13new17hc065b80d7291817aE
	.p2align	4, 0x90
__ZN4core3fmt10ArgumentV13new17hc065b80d7291817aE:
	.cfi_startproc
	pushq	%rbp
	.cfi_def_cfa_offset 16
	.cfi_offset %rbp, -16
	movq	%rsp, %rbp
	.cfi_def_cfa_register %rbp
	subq	$56, %rsp
	movq	%rsi, -16(%rbp)
	movq	-16(%rbp), %rax
	movq	%rdi, -40(%rbp)
	movq	%rax, -48(%rbp)
	movq	-40(%rbp), %rax
	movq	%rax, -8(%rbp)
	movq	-8(%rbp), %rcx
	movq	%rcx, -56(%rbp)
	movq	-56(%rbp), %rax
	movq	%rax, -32(%rbp)
	movq	-48(%rbp), %rcx
	movq	%rcx, -24(%rbp)
	movq	-32(%rbp), %rax
	movq	-24(%rbp), %rdx
	addq	$56, %rsp
	popq	%rbp
	retq
	.cfi_endproc

	.globl	__ZN4core3fmt10ArgumentV13new17hdf3435140f3b58e4E
	.p2align	4, 0x90
__ZN4core3fmt10ArgumentV13new17hdf3435140f3b58e4E:
	.cfi_startproc
	pushq	%rbp
	.cfi_def_cfa_offset 16
	.cfi_offset %rbp, -16
	movq	%rsp, %rbp
	.cfi_def_cfa_register %rbp
	subq	$56, %rsp
	movq	%rsi, -16(%rbp)
	movq	-16(%rbp), %rax
	movq	%rdi, -40(%rbp)
	movq	%rax, -48(%rbp)
	movq	-40(%rbp), %rax
	movq	%rax, -8(%rbp)
	movq	-8(%rbp), %rcx
	movq	%rcx, -56(%rbp)
	movq	-56(%rbp), %rax
	movq	%rax, -32(%rbp)
	movq	-48(%rbp), %rcx
	movq	%rcx, -24(%rbp)
	movq	-32(%rbp), %rax
	movq	-24(%rbp), %rdx
	addq	$56, %rsp
	popq	%rbp
	retq
	.cfi_endproc

	.globl	__ZN4core3fmt10ArgumentV13new17hfaaab584cdd0d654E
	.p2align	4, 0x90
__ZN4core3fmt10ArgumentV13new17hfaaab584cdd0d654E:
	.cfi_startproc
	pushq	%rbp
	.cfi_def_cfa_offset 16
	.cfi_offset %rbp, -16
	movq	%rsp, %rbp
	.cfi_def_cfa_register %rbp
	subq	$56, %rsp
	movq	%rsi, -16(%rbp)
	movq	-16(%rbp), %rax
	movq	%rdi, -40(%rbp)
	movq	%rax, -48(%rbp)
	movq	-40(%rbp), %rax
	movq	%rax, -8(%rbp)
	movq	-8(%rbp), %rcx
	movq	%rcx, -56(%rbp)
	movq	-56(%rbp), %rax
	movq	%rax, -32(%rbp)
	movq	-48(%rbp), %rcx
	movq	%rcx, -24(%rbp)
	movq	-32(%rbp), %rax
	movq	-24(%rbp), %rdx
	addq	$56, %rsp
	popq	%rbp
	retq
	.cfi_endproc

	.p2align	4, 0x90
__ZN4core3fmt3num52_$LT$impl$u20$core..fmt..Debug$u20$for$u20$usize$GT$3fmt17h1fb81819e56c0c73E:
	.cfi_startproc
	pushq	%rbp
	.cfi_def_cfa_offset 16
	.cfi_offset %rbp, -16
	movq	%rsp, %rbp
	.cfi_def_cfa_register %rbp
	subq	$32, %rsp
	movq	%rdi, -16(%rbp)
	movq	%rsi, %rdi
	movq	%rsi, -24(%rbp)
	callq	__ZN4core3fmt9Formatter15debug_lower_hex17hd07f6fde8d0365dfE
	movb	%al, -25(%rbp)
	movb	-25(%rbp), %al
	testb	$1, %al
	jne	LBB102_3
	jmp	LBB102_2
LBB102_2:
	movq	-24(%rbp), %rdi
	callq	__ZN4core3fmt9Formatter15debug_upper_hex17hf480c256a9c81c1eE
	movb	%al, -26(%rbp)
	jmp	LBB102_5
LBB102_3:
	movq	-16(%rbp), %rdi
	movq	-24(%rbp), %rsi
	callq	__ZN4core3fmt3num55_$LT$impl$u20$core..fmt..LowerHex$u20$for$u20$usize$GT$3fmt17hc47c170655f2f8b1E
	andb	$1, %al
	movb	%al, -1(%rbp)
	jmp	LBB102_11
LBB102_5:
	movb	-26(%rbp), %al
	testb	$1, %al
	jne	LBB102_7
	jmp	LBB102_6
LBB102_6:
	movq	-16(%rbp), %rdi
	movq	-24(%rbp), %rsi
	callq	__ZN4core3fmt3num3imp54_$LT$impl$u20$core..fmt..Display$u20$for$u20$usize$GT$3fmt17h12ea2856299c9b06E
	andb	$1, %al
	movb	%al, -1(%rbp)
	jmp	LBB102_9
LBB102_7:
	movq	-16(%rbp), %rdi
	movq	-24(%rbp), %rsi
	callq	__ZN4core3fmt3num55_$LT$impl$u20$core..fmt..UpperHex$u20$for$u20$usize$GT$3fmt17he5a77a1ce12f6c22E
	andb	$1, %al
	movb	%al, -1(%rbp)
	jmp	LBB102_10
LBB102_9:
	jmp	LBB102_10
LBB102_10:
	jmp	LBB102_11
LBB102_11:
	movb	-1(%rbp), %al
	andb	$1, %al
	movzbl	%al, %eax
	addq	$32, %rsp
	popq	%rbp
	retq
	.cfi_endproc

	.globl	__ZN4core3fmt8builders9DebugList7entries17ha6559036665e2ce8E
	.p2align	4, 0x90
__ZN4core3fmt8builders9DebugList7entries17ha6559036665e2ce8E:
Lfunc_begin14:
	.cfi_startproc
	.cfi_personality 155, _rust_eh_personality
	.cfi_lsda 16, Lexception14
	pushq	%rbp
	.cfi_def_cfa_offset 16
	.cfi_offset %rbp, -16
	movq	%rsp, %rbp
	.cfi_def_cfa_register %rbp
	subq	$96, %rsp
	movb	$0, -17(%rbp)
	movq	%rdi, -64(%rbp)
	movq	%rsi, %rdi
	movq	%rdx, %rsi
	callq	__ZN63_$LT$I$u20$as$u20$core..iter..traits..collect..IntoIterator$GT$9into_iter17he5efe096d8dd1ea8E
	movq	%rax, -72(%rbp)
	movq	%rdx, -80(%rbp)
	jmp	LBB103_2
LBB103_1:
	movq	-16(%rbp), %rdi
	callq	__Unwind_Resume
	ud2
LBB103_2:
	movq	-72(%rbp), %rax
	movq	%rax, -56(%rbp)
	movq	-80(%rbp), %rcx
	movq	%rcx, -48(%rbp)
LBB103_3:
Ltmp80:
	leaq	-56(%rbp), %rdi
	callq	__ZN85_$LT$core..slice..Iter$LT$T$GT$$u20$as$u20$core..iter..traits..iterator..Iterator$GT$4next17h5d12c92dbc7f1476E
Ltmp81:
	movq	%rax, -88(%rbp)
	jmp	LBB103_5
LBB103_4:
	jmp	LBB103_1
LBB103_5:
	movq	-88(%rbp), %rax
	movq	%rax, -40(%rbp)
	movq	-40(%rbp), %rcx
	testq	%rcx, %rcx
	setne	%dl
	movzbl	%dl, %esi
	movl	%esi, %ecx
	je	LBB103_6
	jmp	LBB103_17
LBB103_17:
	jmp	LBB103_8
LBB103_6:
	movb	$0, -17(%rbp)
	jmp	LBB103_12
	ud2
LBB103_8:
	movq	-40(%rbp), %rax
	movb	$1, -17(%rbp)
	movb	$0, -17(%rbp)
	movq	%rax, -32(%rbp)
Ltmp83:
	leaq	l___unnamed_6(%rip), %rdx
	leaq	-32(%rbp), %rsi
	movq	-64(%rbp), %rdi
	callq	__ZN4core3fmt8builders9DebugList5entry17h2dea26f6c644471aE
Ltmp84:
	jmp	LBB103_9
LBB103_9:
	jmp	LBB103_11
LBB103_10:
	jmp	LBB103_14
LBB103_11:
	movb	$0, -17(%rbp)
	jmp	LBB103_3
LBB103_12:
	movq	-64(%rbp), %rax
	addq	$96, %rsp
	popq	%rbp
	retq
LBB103_13:
	movb	$0, -17(%rbp)
	jmp	LBB103_4
LBB103_14:
	testb	$1, -17(%rbp)
	jne	LBB103_13
	jmp	LBB103_4
LBB103_15:
Ltmp82:
	movq	%rax, -16(%rbp)
	movl	%edx, -8(%rbp)
	jmp	LBB103_14
LBB103_16:
Ltmp85:
	movq	%rax, -16(%rbp)
	movl	%edx, -8(%rbp)
	jmp	LBB103_10
Lfunc_end14:
	.cfi_endproc
	.section	__TEXT,__gcc_except_tab
	.p2align	2
GCC_except_table103:
Lexception14:
	.byte	255
	.byte	255
	.byte	1
	.uleb128 Lcst_end14-Lcst_begin14
Lcst_begin14:
	.uleb128 Lfunc_begin14-Lfunc_begin14
	.uleb128 Ltmp80-Lfunc_begin14
	.byte	0
	.byte	0
	.uleb128 Ltmp80-Lfunc_begin14
	.uleb128 Ltmp81-Ltmp80
	.uleb128 Ltmp82-Lfunc_begin14
	.byte	0
	.uleb128 Ltmp83-Lfunc_begin14
	.uleb128 Ltmp84-Ltmp83
	.uleb128 Ltmp85-Lfunc_begin14
	.byte	0
Lcst_end14:
	.p2align	2

	.section	__TEXT,__text,regular,pure_instructions
	.p2align	4, 0x90
__ZN4core3fmt9Arguments6new_v117h4e29e58f10347145E:
	.cfi_startproc
	pushq	%rbp
	.cfi_def_cfa_offset 16
	.cfi_offset %rbp, -16
	movq	%rsp, %rbp
	.cfi_def_cfa_register %rbp
	subq	$16, %rsp
	movq	%rdi, %rax
	movq	$0, -16(%rbp)
	movq	%rsi, (%rdi)
	movq	%rdx, 8(%rdi)
	movq	-16(%rbp), %rdx
	movq	-8(%rbp), %rsi
	movq	%rdx, 16(%rdi)
	movq	%rsi, 24(%rdi)
	movq	%rcx, 32(%rdi)
	movq	%r8, 40(%rdi)
	addq	$16, %rsp
	popq	%rbp
	retq
	.cfi_endproc

	.globl	__ZN4core3mem11size_of_val17h082eae7037911bcaE
	.p2align	4, 0x90
__ZN4core3mem11size_of_val17h082eae7037911bcaE:
	.cfi_startproc
	pushq	%rbp
	.cfi_def_cfa_offset 16
	.cfi_offset %rbp, -16
	movq	%rsp, %rbp
	.cfi_def_cfa_register %rbp
	subq	$16, %rsp
	shlq	$0, %rsi
	movq	%rsi, -8(%rbp)
	movq	-8(%rbp), %rax
	movq	%rax, -16(%rbp)
	movq	-16(%rbp), %rax
	addq	$16, %rsp
	popq	%rbp
	retq
	.cfi_endproc

	.globl	__ZN4core3mem4drop17h06ca246286951538E
	.p2align	4, 0x90
__ZN4core3mem4drop17h06ca246286951538E:
	.cfi_startproc
	pushq	%rbp
	.cfi_def_cfa_offset 16
	.cfi_offset %rbp, -16
	movq	%rsp, %rbp
	.cfi_def_cfa_register %rbp
	subq	$16, %rsp
	movl	%edi, -4(%rbp)
	leaq	-4(%rbp), %rdi
	callq	__ZN4core3ptr13drop_in_place17hf68d32cfa4136f7cE
	addq	$16, %rsp
	popq	%rbp
	retq
	.cfi_endproc

	.globl	__ZN4core3mem4drop17h2e30ec5a4d4f6f88E
	.p2align	4, 0x90
__ZN4core3mem4drop17h2e30ec5a4d4f6f88E:
	.cfi_startproc
	pushq	%rbp
	.cfi_def_cfa_offset 16
	.cfi_offset %rbp, -16
	movq	%rsp, %rbp
	.cfi_def_cfa_register %rbp
	callq	__ZN4core3ptr13drop_in_place17h4fb115f41df4790eE
	popq	%rbp
	retq
	.cfi_endproc

	.globl	__ZN4core3mem4drop17h3b336d8456daadbfE
	.p2align	4, 0x90
__ZN4core3mem4drop17h3b336d8456daadbfE:
	.cfi_startproc
	pushq	%rbp
	.cfi_def_cfa_offset 16
	.cfi_offset %rbp, -16
	movq	%rsp, %rbp
	.cfi_def_cfa_register %rbp
	callq	__ZN4core3ptr13drop_in_place17h67c806d61d61f513E
	popq	%rbp
	retq
	.cfi_endproc

	.globl	__ZN4core3mem4swap17h4ea8f706535fb675E
	.p2align	4, 0x90
__ZN4core3mem4swap17h4ea8f706535fb675E:
	.cfi_startproc
	pushq	%rbp
	.cfi_def_cfa_offset 16
	.cfi_offset %rbp, -16
	movq	%rsp, %rbp
	.cfi_def_cfa_register %rbp
	callq	__ZN4core3ptr23swap_nonoverlapping_one17h8e567760be0db330E
	popq	%rbp
	retq
	.cfi_endproc

	.globl	__ZN4core3mem4swap17hadf5ee1e212e5de1E
	.p2align	4, 0x90
__ZN4core3mem4swap17hadf5ee1e212e5de1E:
	.cfi_startproc
	pushq	%rbp
	.cfi_def_cfa_offset 16
	.cfi_offset %rbp, -16
	movq	%rsp, %rbp
	.cfi_def_cfa_register %rbp
	callq	__ZN4core3ptr23swap_nonoverlapping_one17h17af36fa752ae87aE
	popq	%rbp
	retq
	.cfi_endproc

	.globl	__ZN4core3mem4take17h131925b07cf47c90E
	.p2align	4, 0x90
__ZN4core3mem4take17h131925b07cf47c90E:
	.cfi_startproc
	pushq	%rbp
	.cfi_def_cfa_offset 16
	.cfi_offset %rbp, -16
	movq	%rsp, %rbp
	.cfi_def_cfa_register %rbp
	subq	$48, %rsp
	movq	%rdi, -8(%rbp)
	callq	__ZN72_$LT$core..option..Option$LT$T$GT$$u20$as$u20$core..default..Default$GT$7default17hb077f71b0da7ada5E
	movq	%rax, -16(%rbp)
	movq	%rdx, -24(%rbp)
	movq	-8(%rbp), %rdi
	movq	-16(%rbp), %rsi
	movq	-24(%rbp), %rdx
	callq	__ZN4core3mem7replace17h8e92150d595e34a8E
	movq	%rax, -32(%rbp)
	movq	%rdx, -40(%rbp)
	movq	-32(%rbp), %rax
	movq	-40(%rbp), %rdx
	addq	$48, %rsp
	popq	%rbp
	retq
	.cfi_endproc

	.globl	__ZN4core3mem4take17h3b16cf90904efe6dE
	.p2align	4, 0x90
__ZN4core3mem4take17h3b16cf90904efe6dE:
	.cfi_startproc
	pushq	%rbp
	.cfi_def_cfa_offset 16
	.cfi_offset %rbp, -16
	movq	%rsp, %rbp
	.cfi_def_cfa_register %rbp
	subq	$32, %rsp
	movq	%rdi, -8(%rbp)
	callq	__ZN72_$LT$core..option..Option$LT$T$GT$$u20$as$u20$core..default..Default$GT$7default17hc1f0baf498e585d9E
	movl	%eax, -12(%rbp)
	movl	%edx, -16(%rbp)
	movq	-8(%rbp), %rdi
	movl	-12(%rbp), %esi
	movl	-16(%rbp), %edx
	callq	__ZN4core3mem7replace17h828f2624796e91a4E
	movl	%eax, -20(%rbp)
	movl	%edx, -24(%rbp)
	movl	-20(%rbp), %eax
	movl	-24(%rbp), %edx
	addq	$32, %rsp
	popq	%rbp
	retq
	.cfi_endproc

	.globl	__ZN4core3mem6forget17h9531257d5bb610caE
	.p2align	4, 0x90
__ZN4core3mem6forget17h9531257d5bb610caE:
	.cfi_startproc
	pushq	%rbp
	.cfi_def_cfa_offset 16
	.cfi_offset %rbp, -16
	movq	%rsp, %rbp
	.cfi_def_cfa_register %rbp
	pushq	%rax
	movq	%rdi, -8(%rbp)
	addq	$8, %rsp
	popq	%rbp
	retq
	.cfi_endproc

	.globl	__ZN4core3mem7replace17h828f2624796e91a4E
	.p2align	4, 0x90
__ZN4core3mem7replace17h828f2624796e91a4E:
Lfunc_begin15:
	.cfi_startproc
	.cfi_personality 155, _rust_eh_personality
	.cfi_lsda 16, Lexception15
	pushq	%rbp
	.cfi_def_cfa_offset 16
	.cfi_offset %rbp, -16
	movq	%rsp, %rbp
	.cfi_def_cfa_register %rbp
	subq	$32, %rsp
	movl	%esi, -24(%rbp)
	movl	%edx, -20(%rbp)
Ltmp86:
	leaq	-24(%rbp), %rsi
	callq	__ZN4core3mem4swap17hadf5ee1e212e5de1E
Ltmp87:
	jmp	LBB114_2
LBB114_1:
	movq	-16(%rbp), %rdi
	callq	__Unwind_Resume
	ud2
LBB114_2:
	movl	-24(%rbp), %eax
	movl	-20(%rbp), %edx
	addq	$32, %rsp
	popq	%rbp
	retq
LBB114_3:
	leaq	-24(%rbp), %rdi
	callq	__ZN4core3ptr13drop_in_place17h77c967c6abcc0a9bE
	jmp	LBB114_1
LBB114_4:
Ltmp88:
	movq	%rax, -16(%rbp)
	movl	%edx, -8(%rbp)
	jmp	LBB114_3
Lfunc_end15:
	.cfi_endproc
	.section	__TEXT,__gcc_except_tab
	.p2align	2
GCC_except_table114:
Lexception15:
	.byte	255
	.byte	255
	.byte	1
	.uleb128 Lcst_end15-Lcst_begin15
Lcst_begin15:
	.uleb128 Ltmp86-Lfunc_begin15
	.uleb128 Ltmp87-Ltmp86
	.uleb128 Ltmp88-Lfunc_begin15
	.byte	0
	.uleb128 Ltmp87-Lfunc_begin15
	.uleb128 Lfunc_end15-Ltmp87
	.byte	0
	.byte	0
Lcst_end15:
	.p2align	2

	.section	__TEXT,__text,regular,pure_instructions
	.globl	__ZN4core3mem7replace17h8e92150d595e34a8E
	.p2align	4, 0x90
__ZN4core3mem7replace17h8e92150d595e34a8E:
Lfunc_begin16:
	.cfi_startproc
	.cfi_personality 155, _rust_eh_personality
	.cfi_lsda 16, Lexception16
	pushq	%rbp
	.cfi_def_cfa_offset 16
	.cfi_offset %rbp, -16
	movq	%rsp, %rbp
	.cfi_def_cfa_register %rbp
	subq	$32, %rsp
	movq	%rsi, -32(%rbp)
	movq	%rdx, -24(%rbp)
Ltmp89:
	leaq	-32(%rbp), %rsi
	callq	__ZN4core3mem4swap17h4ea8f706535fb675E
Ltmp90:
	jmp	LBB115_2
LBB115_1:
	movq	-16(%rbp), %rdi
	callq	__Unwind_Resume
	ud2
LBB115_2:
	movq	-32(%rbp), %rax
	movq	-24(%rbp), %rdx
	addq	$32, %rsp
	popq	%rbp
	retq
LBB115_3:
	jmp	LBB115_1
LBB115_4:
Ltmp91:
	movq	%rax, -16(%rbp)
	movl	%edx, -8(%rbp)
	jmp	LBB115_3
Lfunc_end16:
	.cfi_endproc
	.section	__TEXT,__gcc_except_tab
	.p2align	2
GCC_except_table115:
Lexception16:
	.byte	255
	.byte	255
	.byte	1
	.uleb128 Lcst_end16-Lcst_begin16
Lcst_begin16:
	.uleb128 Ltmp89-Lfunc_begin16
	.uleb128 Ltmp90-Ltmp89
	.uleb128 Ltmp91-Lfunc_begin16
	.byte	0
	.uleb128 Ltmp90-Lfunc_begin16
	.uleb128 Lfunc_end16-Ltmp90
	.byte	0
	.byte	0
Lcst_end16:
	.p2align	2

	.section	__TEXT,__text,regular,pure_instructions
	.p2align	4, 0x90
__ZN4core3num12NonZeroUsize13new_unchecked17h78bc2e535ee767e7E:
	.cfi_startproc
	pushq	%rbp
	.cfi_def_cfa_offset 16
	.cfi_offset %rbp, -16
	movq	%rsp, %rbp
	.cfi_def_cfa_register %rbp
	pushq	%rax
	movq	%rdi, -8(%rbp)
	movq	-8(%rbp), %rax
	addq	$8, %rsp
	popq	%rbp
	retq
	.cfi_endproc

	.p2align	4, 0x90
__ZN4core3num12NonZeroUsize3get17h4c5ce553404d3d4cE:
	.cfi_startproc
	pushq	%rbp
	.cfi_def_cfa_offset 16
	.cfi_offset %rbp, -16
	movq	%rsp, %rbp
	.cfi_def_cfa_register %rbp
	movq	%rdi, %rax
	popq	%rbp
	retq
	.cfi_endproc

	.p2align	4, 0x90
__ZN4core3num23_$LT$impl$u20$usize$GT$10count_ones17hf1c74e6f578a437fE:
	.cfi_startproc
	pushq	%rbp
	.cfi_def_cfa_offset 16
	.cfi_offset %rbp, -16
	movq	%rsp, %rbp
	.cfi_def_cfa_register %rbp
	subq	$16, %rsp
	movq	%rdi, %rax
	shrq	%rax
	movabsq	$6148914691236517205, %rcx
	andq	%rcx, %rax
	subq	%rax, %rdi
	movabsq	$3689348814741910323, %rax
	movq	%rdi, %rcx
	andq	%rax, %rcx
	shrq	$2, %rdi
	andq	%rax, %rdi
	addq	%rdi, %rcx
	movq	%rcx, %rax
	shrq	$4, %rax
	addq	%rax, %rcx
	movabsq	$1085102592571150095, %rax
	andq	%rax, %rcx
	movabsq	$72340172838076673, %rax
	imulq	%rax, %rcx
	shrq	$56, %rcx
	movq	%rcx, -8(%rbp)
	movq	-8(%rbp), %rax
	movq	%rax, -16(%rbp)
	movq	-16(%rbp), %rax
	movl	%eax, %ecx
	movl	%ecx, %eax
	addq	$16, %rsp
	popq	%rbp
	retq
	.cfi_endproc

	.p2align	4, 0x90
__ZN4core3num23_$LT$impl$u20$usize$GT$11checked_add17h8263cc10fd48c6eeE:
	.cfi_startproc
	pushq	%rbp
	.cfi_def_cfa_offset 16
	.cfi_offset %rbp, -16
	movq	%rsp, %rbp
	.cfi_def_cfa_register %rbp
	subq	$48, %rsp
	callq	__ZN4core3num23_$LT$impl$u20$usize$GT$15overflowing_add17he94e8e77f404d576E
	movq	%rax, -32(%rbp)
	movb	%dl, -33(%rbp)
	movb	-33(%rbp), %al
	andb	$1, %al
	movb	%al, -1(%rbp)
	movb	-1(%rbp), %al
	movb	%al, -34(%rbp)
	movb	-34(%rbp), %al
	testb	$1, %al
	jne	LBB119_4
	jmp	LBB119_3
LBB119_3:
	movq	-32(%rbp), %rax
	movq	%rax, -16(%rbp)
	movq	$1, -24(%rbp)
	jmp	LBB119_5
LBB119_4:
	movq	$0, -24(%rbp)
LBB119_5:
	movq	-24(%rbp), %rax
	movq	-16(%rbp), %rdx
	addq	$48, %rsp
	popq	%rbp
	retq
	.cfi_endproc

	.p2align	4, 0x90
__ZN4core3num23_$LT$impl$u20$usize$GT$11checked_mul17h64d84777a9353215E:
	.cfi_startproc
	pushq	%rbp
	.cfi_def_cfa_offset 16
	.cfi_offset %rbp, -16
	movq	%rsp, %rbp
	.cfi_def_cfa_register %rbp
	subq	$48, %rsp
	callq	__ZN4core3num23_$LT$impl$u20$usize$GT$15overflowing_mul17hbe7e25a831b3fc56E
	movq	%rax, -32(%rbp)
	movb	%dl, -33(%rbp)
	movb	-33(%rbp), %al
	andb	$1, %al
	movb	%al, -1(%rbp)
	movb	-1(%rbp), %al
	movb	%al, -34(%rbp)
	movb	-34(%rbp), %al
	testb	$1, %al
	jne	LBB120_4
	jmp	LBB120_3
LBB120_3:
	movq	-32(%rbp), %rax
	movq	%rax, -16(%rbp)
	movq	$1, -24(%rbp)
	jmp	LBB120_5
LBB120_4:
	movq	$0, -24(%rbp)
LBB120_5:
	movq	-24(%rbp), %rax
	movq	-16(%rbp), %rdx
	addq	$48, %rsp
	popq	%rbp
	retq
	.cfi_endproc

	.p2align	4, 0x90
__ZN4core3num23_$LT$impl$u20$usize$GT$12wrapping_add17h384e4cab9f725646E:
	.cfi_startproc
	pushq	%rbp
	.cfi_def_cfa_offset 16
	.cfi_offset %rbp, -16
	movq	%rsp, %rbp
	.cfi_def_cfa_register %rbp
	subq	$16, %rsp
	addq	%rsi, %rdi
	movq	%rdi, -8(%rbp)
	movq	-8(%rbp), %rax
	movq	%rax, -16(%rbp)
	movq	-16(%rbp), %rax
	addq	$16, %rsp
	popq	%rbp
	retq
	.cfi_endproc

	.p2align	4, 0x90
__ZN4core3num23_$LT$impl$u20$usize$GT$12wrapping_sub17h3fab2682449dc06dE:
	.cfi_startproc
	pushq	%rbp
	.cfi_def_cfa_offset 16
	.cfi_offset %rbp, -16
	movq	%rsp, %rbp
	.cfi_def_cfa_register %rbp
	subq	$16, %rsp
	subq	%rsi, %rdi
	movq	%rdi, -8(%rbp)
	movq	-8(%rbp), %rax
	movq	%rax, -16(%rbp)
	movq	-16(%rbp), %rax
	addq	$16, %rsp
	popq	%rbp
	retq
	.cfi_endproc

	.p2align	4, 0x90
__ZN4core3num23_$LT$impl$u20$usize$GT$14saturating_add17h3f4e7bd470ec19aaE:
	.cfi_startproc
	pushq	%rbp
	.cfi_def_cfa_offset 16
	.cfi_offset %rbp, -16
	movq	%rsp, %rbp
	.cfi_def_cfa_register %rbp
	subq	$16, %rsp
	addq	%rsi, %rdi
	movq	$-1, %rax
	cmovbq	%rax, %rdi
	movq	%rdi, -8(%rbp)
	movq	-8(%rbp), %rax
	movq	%rax, -16(%rbp)
	movq	-16(%rbp), %rax
	addq	$16, %rsp
	popq	%rbp
	retq
	.cfi_endproc

	.p2align	4, 0x90
__ZN4core3num23_$LT$impl$u20$usize$GT$15is_power_of_two17h5ad689742b7aa5f0E:
	.cfi_startproc
	pushq	%rbp
	.cfi_def_cfa_offset 16
	.cfi_offset %rbp, -16
	movq	%rsp, %rbp
	.cfi_def_cfa_register %rbp
	subq	$16, %rsp
	callq	__ZN4core3num23_$LT$impl$u20$usize$GT$10count_ones17hf1c74e6f578a437fE
	movl	%eax, -4(%rbp)
	movl	-4(%rbp), %eax
	cmpl	$1, %eax
	sete	%cl
	andb	$1, %cl
	movzbl	%cl, %eax
	addq	$16, %rsp
	popq	%rbp
	retq
	.cfi_endproc

	.p2align	4, 0x90
__ZN4core3num23_$LT$impl$u20$usize$GT$15overflowing_add17he94e8e77f404d576E:
	.cfi_startproc
	pushq	%rbp
	.cfi_def_cfa_offset 16
	.cfi_offset %rbp, -16
	movq	%rsp, %rbp
	.cfi_def_cfa_register %rbp
	subq	$48, %rsp
	addq	%rsi, %rdi
	setb	%al
	andb	$1, %al
	movq	%rdi, -16(%rbp)
	movb	%al, -8(%rbp)
	movq	-16(%rbp), %rcx
	movb	-8(%rbp), %al
	movq	%rcx, -40(%rbp)
	movb	%al, -41(%rbp)
	movq	-40(%rbp), %rax
	movq	%rax, -32(%rbp)
	movb	-41(%rbp), %cl
	andb	$1, %cl
	movb	%cl, -24(%rbp)
	movq	-32(%rbp), %rax
	movb	-24(%rbp), %dl
	addq	$48, %rsp
	popq	%rbp
	retq
	.cfi_endproc

	.p2align	4, 0x90
__ZN4core3num23_$LT$impl$u20$usize$GT$15overflowing_mul17hbe7e25a831b3fc56E:
	.cfi_startproc
	pushq	%rbp
	.cfi_def_cfa_offset 16
	.cfi_offset %rbp, -16
	movq	%rsp, %rbp
	.cfi_def_cfa_register %rbp
	subq	$48, %rsp
	movq	%rdi, %rax
	mulq	%rsi
	seto	%cl
	andb	$1, %cl
	movq	%rax, -16(%rbp)
	movb	%cl, -8(%rbp)
	movq	-16(%rbp), %rax
	movb	-8(%rbp), %cl
	movq	%rax, -40(%rbp)
	movb	%cl, -41(%rbp)
	movq	-40(%rbp), %rax
	movq	%rax, -32(%rbp)
	movb	-41(%rbp), %cl
	andb	$1, %cl
	movb	%cl, -24(%rbp)
	movq	-32(%rbp), %rax
	movb	-24(%rbp), %dl
	addq	$48, %rsp
	popq	%rbp
	retq
	.cfi_endproc

	.p2align	4, 0x90
__ZN4core3ops8function5FnMut8call_mut17hb4f07bd79213c361E:
	.cfi_startproc
	pushq	%rbp
	.cfi_def_cfa_offset 16
	.cfi_offset %rbp, -16
	movq	%rsp, %rbp
	.cfi_def_cfa_register %rbp
	subq	$48, %rsp
	movq	%rsi, -16(%rbp)
	movq	%rdx, -8(%rbp)
	movq	-16(%rbp), %rax
	movq	-8(%rbp), %rsi
	movq	%rdi, -24(%rbp)
	movq	%rax, %rdi
	callq	__ZN4core3str21_$LT$impl$u20$str$GT$4trim17h22e429c571f2fe87E
	movq	%rax, -32(%rbp)
	movq	%rdx, -40(%rbp)
	movq	-32(%rbp), %rax
	movq	-40(%rbp), %rdx
	addq	$48, %rsp
	popq	%rbp
	retq
	.cfi_endproc

	.p2align	4, 0x90
__ZN4core3ops8function5FnMut8call_mut17he7c4c1f6d945d451E:
	.cfi_startproc
	pushq	%rbp
	.cfi_def_cfa_offset 16
	.cfi_offset %rbp, -16
	movq	%rsp, %rbp
	.cfi_def_cfa_register %rbp
	subq	$32, %rsp
	movq	%rdi, %rax
	movq	%rdx, -16(%rbp)
	movq	%rcx, -8(%rbp)
	movq	-16(%rbp), %rsi
	movq	-8(%rbp), %rdx
	movq	%rax, -24(%rbp)
	callq	__ZN47_$LT$str$u20$as$u20$alloc..string..ToString$GT$9to_string17h2e97d852e4c8277eE
	movq	-24(%rbp), %rax
	addq	$32, %rsp
	popq	%rbp
	retq
	.cfi_endproc

	.globl	__ZN4core3ops8function5impls79_$LT$impl$u20$core..ops..function..FnMut$LT$A$GT$$u20$for$u20$$RF$mut$u20$F$GT$8call_mut17h7336c1bc9e875d59E
	.p2align	4, 0x90
__ZN4core3ops8function5impls79_$LT$impl$u20$core..ops..function..FnMut$LT$A$GT$$u20$for$u20$$RF$mut$u20$F$GT$8call_mut17h7336c1bc9e875d59E:
	.cfi_startproc
	pushq	%rbp
	.cfi_def_cfa_offset 16
	.cfi_offset %rbp, -16
	movq	%rsp, %rbp
	.cfi_def_cfa_register %rbp
	subq	$16, %rsp
	movq	%rsi, -8(%rbp)
	movq	(%rdi), %rdi
	movq	-8(%rbp), %rax
	movq	%rax, %rsi
	callq	__ZN7autocfg7AutoCfg8with_dir28_$u7b$$u7b$closure$u7d$$u7d$28_$u7b$$u7b$closure$u7d$$u7d$17hddbbeb957bff3fb2E
	movb	%al, -9(%rbp)
	movb	-9(%rbp), %al
	andb	$1, %al
	movzbl	%al, %eax
	addq	$16, %rsp
	popq	%rbp
	retq
	.cfi_endproc

	.globl	__ZN4core3ops8function5impls80_$LT$impl$u20$core..ops..function..FnOnce$LT$A$GT$$u20$for$u20$$RF$mut$u20$F$GT$9call_once17hdecd6b87873b86adE
	.p2align	4, 0x90
__ZN4core3ops8function5impls80_$LT$impl$u20$core..ops..function..FnOnce$LT$A$GT$$u20$for$u20$$RF$mut$u20$F$GT$9call_once17hdecd6b87873b86adE:
	.cfi_startproc
	pushq	%rbp
	.cfi_def_cfa_offset 16
	.cfi_offset %rbp, -16
	movq	%rsp, %rbp
	.cfi_def_cfa_register %rbp
	subq	$32, %rsp
	movq	%rsi, -16(%rbp)
	movq	%rdx, -8(%rbp)
	movq	-16(%rbp), %rax
	movq	-8(%rbp), %rdx
	movq	%rax, %rsi
	callq	__ZN95_$LT$core..str..LinesAnyMap$u20$as$u20$core..ops..function..FnMut$LT$$LP$$RF$str$C$$RP$$GT$$GT$8call_mut17ha98f4a8c70c4cf39E
	movq	%rax, -24(%rbp)
	movq	%rdx, -32(%rbp)
	movq	-24(%rbp), %rax
	movq	-32(%rbp), %rdx
	addq	$32, %rsp
	popq	%rbp
	retq
	.cfi_endproc

	.globl	__ZN4core3ops8function5impls80_$LT$impl$u20$core..ops..function..FnOnce$LT$A$GT$$u20$for$u20$$RF$mut$u20$F$GT$9call_once17he8e7cb82dfe842e0E
	.p2align	4, 0x90
__ZN4core3ops8function5impls80_$LT$impl$u20$core..ops..function..FnOnce$LT$A$GT$$u20$for$u20$$RF$mut$u20$F$GT$9call_once17he8e7cb82dfe842e0E:
	.cfi_startproc
	pushq	%rbp
	.cfi_def_cfa_offset 16
	.cfi_offset %rbp, -16
	movq	%rsp, %rbp
	.cfi_def_cfa_register %rbp
	subq	$32, %rsp
	movq	%rdi, %rax
	movq	%rdx, -16(%rbp)
	movq	%rcx, -8(%rbp)
	movq	-16(%rbp), %rcx
	movq	-8(%rbp), %rdx
	movq	%rdx, -24(%rbp)
	movq	%rcx, %rdx
	movq	-24(%rbp), %rcx
	movq	%rax, -32(%rbp)
	callq	__ZN4core3ops8function5FnMut8call_mut17he7c4c1f6d945d451E
	movq	-32(%rbp), %rax
	addq	$32, %rsp
	popq	%rbp
	retq
	.cfi_endproc

	.p2align	4, 0x90
__ZN4core3ops8function6FnOnce9call_once17h724ca5d355fe1ddaE:
	.cfi_startproc
	pushq	%rbp
	.cfi_def_cfa_offset 16
	.cfi_offset %rbp, -16
	movq	%rsp, %rbp
	.cfi_def_cfa_register %rbp
	subq	$32, %rsp
	movq	%rdi, %rax
	movq	(%rsi), %rcx
	movq	%rcx, -16(%rbp)
	movq	8(%rsi), %rcx
	movq	%rcx, -8(%rbp)
	leaq	-16(%rbp), %rcx
	movq	%rcx, %rsi
	movq	%rax, -24(%rbp)
	callq	__ZN7autocfg5error9from_utf817h906ea94a91a1837cE
	movq	-24(%rbp), %rax
	addq	$32, %rsp
	popq	%rbp
	retq
	.cfi_endproc

	.p2align	4, 0x90
__ZN4core3ops8function6FnOnce9call_once17h78b60aee6833dcceE:
	.cfi_startproc
	pushq	%rbp
	.cfi_def_cfa_offset 16
	.cfi_offset %rbp, -16
	movq	%rsp, %rbp
	.cfi_def_cfa_register %rbp
	subq	$16, %rsp
	movq	%rdi, %rax
	movb	%sil, -1(%rbp)
	movzbl	-1(%rbp), %esi
	movq	%rax, -16(%rbp)
	callq	__ZN7autocfg5error8from_num17h7f0b7889cbd47c4fE
	movq	-16(%rbp), %rax
	addq	$16, %rsp
	popq	%rbp
	retq
	.cfi_endproc

	.p2align	4, 0x90
__ZN4core3ops8function6FnOnce9call_once17h7e58123d603c4465E:
	.cfi_startproc
	pushq	%rbp
	.cfi_def_cfa_offset 16
	.cfi_offset %rbp, -16
	movq	%rsp, %rbp
	.cfi_def_cfa_register %rbp
	subq	$32, %rsp
	movq	%rdi, -16(%rbp)
	movq	%rsi, -8(%rbp)
	movq	-16(%rbp), %rdi
	movq	-8(%rbp), %rsi
	callq	__ZN4core3cmp5impls50_$LT$impl$u20$core..cmp..Ord$u20$for$u20$usize$GT$3cmp17h91ec5a7680486469E
	movb	%al, -17(%rbp)
	movb	-17(%rbp), %al
	addq	$32, %rsp
	popq	%rbp
	retq
	.cfi_endproc

	.p2align	4, 0x90
__ZN4core3ops8function6FnOnce9call_once17hc0ef81e365a817a8E:
	.cfi_startproc
	pushq	%rbp
	.cfi_def_cfa_offset 16
	.cfi_offset %rbp, -16
	movq	%rsp, %rbp
	.cfi_def_cfa_register %rbp
	subq	$176, %rsp
	movq	%rdi, %rax
	leaq	-144(%rbp), %rcx
	movq	%rcx, %rdx
	movq	%rdi, -152(%rbp)
	movq	%rdx, %rdi
	movl	$144, %edx
	movq	%rax, -160(%rbp)
	movq	%rcx, -168(%rbp)
	callq	_memcpy
	movq	-168(%rbp), %rax
	movq	-152(%rbp), %rdi
	movq	%rax, %rsi
	callq	__ZN3std2fs8Metadata17h3fb8b51230026cbdE
	movq	-160(%rbp), %rax
	addq	$176, %rsp
	popq	%rbp
	retq
	.cfi_endproc

	.p2align	4, 0x90
__ZN4core3ops8function6FnOnce9call_once17hcfd44d65406318c9E:
	.cfi_startproc
	pushq	%rbp
	.cfi_def_cfa_offset 16
	.cfi_offset %rbp, -16
	movq	%rsp, %rbp
	.cfi_def_cfa_register %rbp
	subq	$32, %rsp
	movq	%rdi, %rax
	movq	(%rsi), %rcx
	movq	%rcx, -16(%rbp)
	movq	8(%rsi), %rcx
	movq	%rcx, -8(%rbp)
	leaq	-16(%rbp), %rcx
	movq	%rcx, %rsi
	movq	%rax, -24(%rbp)
	callq	__ZN7autocfg5error7from_io17hb06d976724559217E
	movq	-24(%rbp), %rax
	addq	$32, %rsp
	popq	%rbp
	retq
	.cfi_endproc

	.p2align	4, 0x90
__ZN4core3ptr13drop_in_place17h00123a3d91f47799E:
	.cfi_startproc
	pushq	%rbp
	.cfi_def_cfa_offset 16
	.cfi_offset %rbp, -16
	movq	%rsp, %rbp
	.cfi_def_cfa_register %rbp
	pushq	%rax
	addq	$8, %rsp
	popq	%rbp
	retq
	.cfi_endproc

	.p2align	4, 0x90
__ZN4core3ptr13drop_in_place17h0092c84277afc169E:
	.cfi_startproc
	pushq	%rbp
	.cfi_def_cfa_offset 16
	.cfi_offset %rbp, -16
	movq	%rsp, %rbp
	.cfi_def_cfa_register %rbp
	pushq	%rax
	addq	$8, %rsp
	popq	%rbp
	retq
	.cfi_endproc

	.p2align	4, 0x90
__ZN4core3ptr13drop_in_place17h02925edc9a454987E:
	.cfi_startproc
	pushq	%rbp
	.cfi_def_cfa_offset 16
	.cfi_offset %rbp, -16
	movq	%rsp, %rbp
	.cfi_def_cfa_register %rbp
	pushq	%rax
	addq	$8, %rsp
	popq	%rbp
	retq
	.cfi_endproc

	.globl	__ZN4core3ptr13drop_in_place17h034e40f67d36438fE
	.p2align	4, 0x90
__ZN4core3ptr13drop_in_place17h034e40f67d36438fE:
	.cfi_startproc
	pushq	%rbp
	.cfi_def_cfa_offset 16
	.cfi_offset %rbp, -16
	movq	%rsp, %rbp
	.cfi_def_cfa_register %rbp
	subq	$16, %rsp
	callq	__ZN4core3ptr13drop_in_place17h352d0f802ee3cee3E
	addq	$16, %rsp
	popq	%rbp
	retq
	.cfi_endproc

	.globl	__ZN4core3ptr13drop_in_place17h03c3b981f286755cE
	.p2align	4, 0x90
__ZN4core3ptr13drop_in_place17h03c3b981f286755cE:
	.cfi_startproc
	pushq	%rbp
	.cfi_def_cfa_offset 16
	.cfi_offset %rbp, -16
	movq	%rsp, %rbp
	.cfi_def_cfa_register %rbp
	subq	$16, %rsp
	callq	__ZN4core3ptr13drop_in_place17h034e40f67d36438fE
	addq	$16, %rsp
	popq	%rbp
	retq
	.cfi_endproc

	.globl	__ZN4core3ptr13drop_in_place17h0949f954981ffea5E
	.p2align	4, 0x90
__ZN4core3ptr13drop_in_place17h0949f954981ffea5E:
	.cfi_startproc
	pushq	%rbp
	.cfi_def_cfa_offset 16
	.cfi_offset %rbp, -16
	movq	%rsp, %rbp
	.cfi_def_cfa_register %rbp
	subq	$16, %rsp
	movl	(%rdi), %eax
	movl	%eax, %ecx
	cmpq	$0, %rcx
	movq	%rdi, -16(%rbp)
	jne	LBB142_2
LBB142_1:
	addq	$16, %rsp
	popq	%rbp
	retq
LBB142_2:
	movq	-16(%rbp), %rax
	addq	$4, %rax
	movq	%rax, %rdi
	callq	__ZN4core3ptr13drop_in_place17h37f250c30256e7bdE
	jmp	LBB142_1
	.cfi_endproc

	.globl	__ZN4core3ptr13drop_in_place17h0a0cd4f5243a4198E
	.p2align	4, 0x90
__ZN4core3ptr13drop_in_place17h0a0cd4f5243a4198E:
Lfunc_begin17:
	.cfi_startproc
	.cfi_personality 155, _rust_eh_personality
	.cfi_lsda 16, Lexception17
	pushq	%rbp
	.cfi_def_cfa_offset 16
	.cfi_offset %rbp, -16
	movq	%rsp, %rbp
	.cfi_def_cfa_register %rbp
	subq	$32, %rsp
Ltmp92:
	movq	%rdi, -32(%rbp)
	callq	__ZN4core3ptr13drop_in_place17h8c73ffaa3c4fc0ddE
Ltmp93:
	jmp	LBB143_18
LBB143_1:
	movq	-16(%rbp), %rdi
	callq	__Unwind_Resume
	ud2
LBB143_2:
	addq	$32, %rsp
	popq	%rbp
	retq
LBB143_3:
	movq	-32(%rbp), %rax
	addq	$168, %rax
	movq	%rax, %rdi
	callq	__ZN4core3ptr13drop_in_place17h38af44284dd9a1fbE
	jmp	LBB143_1
LBB143_4:
	movq	-32(%rbp), %rax
	addq	$160, %rax
	movq	%rax, %rdi
	callq	__ZN4core3ptr13drop_in_place17h38af44284dd9a1fbE
	jmp	LBB143_3
LBB143_5:
	movq	-32(%rbp), %rax
	addq	$152, %rax
	movq	%rax, %rdi
	callq	__ZN4core3ptr13drop_in_place17h38af44284dd9a1fbE
	jmp	LBB143_4
LBB143_6:
	movq	-32(%rbp), %rax
	addq	$112, %rax
	movq	%rax, %rdi
	callq	__ZN4core3ptr13drop_in_place17h10c65fa77cb55141E
	jmp	LBB143_5
LBB143_7:
	movq	-32(%rbp), %rax
	addq	$96, %rax
	movq	%rax, %rdi
	callq	__ZN4core3ptr13drop_in_place17hc71ae6fb639f278cE
	jmp	LBB143_6
LBB143_8:
	movq	-32(%rbp), %rax
	addq	$64, %rax
	movq	%rax, %rdi
	callq	__ZN4core3ptr13drop_in_place17he2c59a3c18553abcE
	jmp	LBB143_7
LBB143_9:
	movq	-32(%rbp), %rax
	addq	$40, %rax
	movq	%rax, %rdi
	callq	__ZN4core3ptr13drop_in_place17h9b93e35c23bd7e10E
	jmp	LBB143_8
LBB143_10:
	movq	-32(%rbp), %rax
	addq	$16, %rax
	movq	%rax, %rdi
	callq	__ZN4core3ptr13drop_in_place17hd2a84c9a4898bf26E
	jmp	LBB143_9
LBB143_11:
	movq	-32(%rbp), %rax
	addq	$168, %rax
	movq	%rax, %rdi
	callq	__ZN4core3ptr13drop_in_place17h38af44284dd9a1fbE
	jmp	LBB143_2
LBB143_12:
	movq	-32(%rbp), %rax
	addq	$160, %rax
Ltmp113:
	movq	%rax, %rdi
	callq	__ZN4core3ptr13drop_in_place17h38af44284dd9a1fbE
Ltmp114:
	jmp	LBB143_11
LBB143_13:
	movq	-32(%rbp), %rax
	addq	$152, %rax
Ltmp110:
	movq	%rax, %rdi
	callq	__ZN4core3ptr13drop_in_place17h38af44284dd9a1fbE
Ltmp111:
	jmp	LBB143_12
LBB143_14:
	movq	-32(%rbp), %rax
	addq	$112, %rax
Ltmp107:
	movq	%rax, %rdi
	callq	__ZN4core3ptr13drop_in_place17h10c65fa77cb55141E
Ltmp108:
	jmp	LBB143_13
LBB143_15:
	movq	-32(%rbp), %rax
	addq	$96, %rax
Ltmp104:
	movq	%rax, %rdi
	callq	__ZN4core3ptr13drop_in_place17hc71ae6fb639f278cE
Ltmp105:
	jmp	LBB143_14
LBB143_16:
	movq	-32(%rbp), %rax
	addq	$64, %rax
Ltmp101:
	movq	%rax, %rdi
	callq	__ZN4core3ptr13drop_in_place17he2c59a3c18553abcE
Ltmp102:
	jmp	LBB143_15
LBB143_17:
	movq	-32(%rbp), %rax
	addq	$40, %rax
Ltmp98:
	movq	%rax, %rdi
	callq	__ZN4core3ptr13drop_in_place17h9b93e35c23bd7e10E
Ltmp99:
	jmp	LBB143_16
LBB143_18:
	movq	-32(%rbp), %rax
	addq	$16, %rax
Ltmp95:
	movq	%rax, %rdi
	callq	__ZN4core3ptr13drop_in_place17hd2a84c9a4898bf26E
Ltmp96:
	jmp	LBB143_17
LBB143_19:
Ltmp94:
	movq	%rax, -16(%rbp)
	movl	%edx, -8(%rbp)
	jmp	LBB143_10
LBB143_20:
Ltmp97:
	movq	%rax, -16(%rbp)
	movl	%edx, -8(%rbp)
	jmp	LBB143_9
LBB143_21:
Ltmp100:
	movq	%rax, -16(%rbp)
	movl	%edx, -8(%rbp)
	jmp	LBB143_8
LBB143_22:
Ltmp103:
	movq	%rax, -16(%rbp)
	movl	%edx, -8(%rbp)
	jmp	LBB143_7
LBB143_23:
Ltmp106:
	movq	%rax, -16(%rbp)
	movl	%edx, -8(%rbp)
	jmp	LBB143_6
LBB143_24:
Ltmp109:
	movq	%rax, -16(%rbp)
	movl	%edx, -8(%rbp)
	jmp	LBB143_5
LBB143_25:
Ltmp112:
	movq	%rax, -16(%rbp)
	movl	%edx, -8(%rbp)
	jmp	LBB143_4
LBB143_26:
Ltmp115:
	movq	%rax, -16(%rbp)
	movl	%edx, -8(%rbp)
	jmp	LBB143_3
Lfunc_end17:
	.cfi_endproc
	.section	__TEXT,__gcc_except_tab
	.p2align	2
GCC_except_table143:
Lexception17:
	.byte	255
	.byte	255
	.byte	1
	.uleb128 Lcst_end17-Lcst_begin17
Lcst_begin17:
	.uleb128 Ltmp92-Lfunc_begin17
	.uleb128 Ltmp93-Ltmp92
	.uleb128 Ltmp94-Lfunc_begin17
	.byte	0
	.uleb128 Ltmp93-Lfunc_begin17
	.uleb128 Ltmp113-Ltmp93
	.byte	0
	.byte	0
	.uleb128 Ltmp113-Lfunc_begin17
	.uleb128 Ltmp114-Ltmp113
	.uleb128 Ltmp115-Lfunc_begin17
	.byte	0
	.uleb128 Ltmp110-Lfunc_begin17
	.uleb128 Ltmp111-Ltmp110
	.uleb128 Ltmp112-Lfunc_begin17
	.byte	0
	.uleb128 Ltmp107-Lfunc_begin17
	.uleb128 Ltmp108-Ltmp107
	.uleb128 Ltmp109-Lfunc_begin17
	.byte	0
	.uleb128 Ltmp104-Lfunc_begin17
	.uleb128 Ltmp105-Ltmp104
	.uleb128 Ltmp106-Lfunc_begin17
	.byte	0
	.uleb128 Ltmp101-Lfunc_begin17
	.uleb128 Ltmp102-Ltmp101
	.uleb128 Ltmp103-Lfunc_begin17
	.byte	0
	.uleb128 Ltmp98-Lfunc_begin17
	.uleb128 Ltmp99-Ltmp98
	.uleb128 Ltmp100-Lfunc_begin17
	.byte	0
	.uleb128 Ltmp95-Lfunc_begin17
	.uleb128 Ltmp96-Ltmp95
	.uleb128 Ltmp97-Lfunc_begin17
	.byte	0
Lcst_end17:
	.p2align	2

	.section	__TEXT,__text,regular,pure_instructions
	.globl	__ZN4core3ptr13drop_in_place17h0b1f101177e3bc39E
	.p2align	4, 0x90
__ZN4core3ptr13drop_in_place17h0b1f101177e3bc39E:
	.cfi_startproc
	pushq	%rbp
	.cfi_def_cfa_offset 16
	.cfi_offset %rbp, -16
	movq	%rsp, %rbp
	.cfi_def_cfa_register %rbp
	subq	$32, %rsp
	movq	%rdi, -32(%rbp)
	jmp	LBB144_2
LBB144_1:
	addq	$32, %rsp
	popq	%rbp
	retq
LBB144_2:
	movq	-32(%rbp), %rax
	movq	(%rax), %rdi
	movq	8(%rax), %rsi
	callq	__ZN5alloc5alloc8box_free17h3a8277a13fec313bE
	jmp	LBB144_1
	.cfi_endproc

	.globl	__ZN4core3ptr13drop_in_place17h0b5ff8436c80e8aaE
	.p2align	4, 0x90
__ZN4core3ptr13drop_in_place17h0b5ff8436c80e8aaE:
	.cfi_startproc
	pushq	%rbp
	.cfi_def_cfa_offset 16
	.cfi_offset %rbp, -16
	movq	%rsp, %rbp
	.cfi_def_cfa_register %rbp
	subq	$16, %rsp
	xorl	%eax, %eax
	movl	%eax, %ecx
	movb	(%rdi), %dl
	subb	$3, %dl
	cmpb	$0, %dl
	movl	$1, %esi
	cmovbeq	%rcx, %rsi
	cmpq	$0, %rsi
	movq	%rdi, -16(%rbp)
	jne	LBB145_2
LBB145_1:
	addq	$16, %rsp
	popq	%rbp
	retq
LBB145_2:
	movq	-16(%rbp), %rax
	movq	%rax, %rdi
	callq	__ZN4core3ptr13drop_in_place17h567ad759a8e8c794E
	jmp	LBB145_1
	.cfi_endproc

	.globl	__ZN4core3ptr13drop_in_place17h10c65fa77cb55141E
	.p2align	4, 0x90
__ZN4core3ptr13drop_in_place17h10c65fa77cb55141E:
Lfunc_begin18:
	.cfi_startproc
	.cfi_personality 155, _rust_eh_personality
	.cfi_lsda 16, Lexception18
	pushq	%rbp
	.cfi_def_cfa_offset 16
	.cfi_offset %rbp, -16
	movq	%rsp, %rbp
	.cfi_def_cfa_register %rbp
	subq	$32, %rsp
Ltmp116:
	movq	%rdi, -32(%rbp)
	callq	__ZN66_$LT$alloc..vec..Vec$LT$T$GT$$u20$as$u20$core..ops..drop..Drop$GT$4drop17he0b1a46d92e4d88eE
Ltmp117:
	jmp	LBB146_4
LBB146_1:
	movq	-16(%rbp), %rdi
	callq	__Unwind_Resume
	ud2
LBB146_2:
	addq	$32, %rsp
	popq	%rbp
	retq
LBB146_3:
	movq	-32(%rbp), %rax
	movq	%rax, %rdi
	callq	__ZN4core3ptr13drop_in_place17ha198102ad06dcac7E
	jmp	LBB146_1
LBB146_4:
	movq	-32(%rbp), %rax
	movq	%rax, %rdi
	callq	__ZN4core3ptr13drop_in_place17ha198102ad06dcac7E
	jmp	LBB146_2
LBB146_5:
Ltmp118:
	movq	%rax, -16(%rbp)
	movl	%edx, -8(%rbp)
	jmp	LBB146_3
Lfunc_end18:
	.cfi_endproc
	.section	__TEXT,__gcc_except_tab
	.p2align	2
GCC_except_table146:
Lexception18:
	.byte	255
	.byte	255
	.byte	1
	.uleb128 Lcst_end18-Lcst_begin18
Lcst_begin18:
	.uleb128 Ltmp116-Lfunc_begin18
	.uleb128 Ltmp117-Ltmp116
	.uleb128 Ltmp118-Lfunc_begin18
	.byte	0
	.uleb128 Ltmp117-Lfunc_begin18
	.uleb128 Lfunc_end18-Ltmp117
	.byte	0
	.byte	0
Lcst_end18:
	.p2align	2

	.section	__TEXT,__text,regular,pure_instructions
	.p2align	4, 0x90
__ZN4core3ptr13drop_in_place17h183027926021ab78E:
	.cfi_startproc
	pushq	%rbp
	.cfi_def_cfa_offset 16
	.cfi_offset %rbp, -16
	movq	%rsp, %rbp
	.cfi_def_cfa_register %rbp
	pushq	%rax
	addq	$8, %rsp
	popq	%rbp
	retq
	.cfi_endproc

	.globl	__ZN4core3ptr13drop_in_place17h1c94706ff70dde8eE
	.p2align	4, 0x90
__ZN4core3ptr13drop_in_place17h1c94706ff70dde8eE:
	.cfi_startproc
	pushq	%rbp
	.cfi_def_cfa_offset 16
	.cfi_offset %rbp, -16
	movq	%rsp, %rbp
	.cfi_def_cfa_register %rbp
	subq	$32, %rsp
	movzbl	(%rdi), %eax
	movl	%eax, %ecx
	testq	%rcx, %rcx
	movq	%rdi, -16(%rbp)
	movq	%rcx, -24(%rbp)
	je	LBB148_2
	jmp	LBB148_3
LBB148_3:
	movq	-24(%rbp), %rax
	decq	%rax
	subq	$1, %rax
	ja	LBB148_1
	jmp	LBB148_1
LBB148_1:
	addq	$32, %rsp
	popq	%rbp
	retq
LBB148_2:
	movq	-16(%rbp), %rax
	addq	$8, %rax
	movq	%rax, %rdi
	callq	__ZN4core3ptr13drop_in_place17h567ad759a8e8c794E
	jmp	LBB148_1
	.cfi_endproc

	.globl	__ZN4core3ptr13drop_in_place17h23d7f5c265444295E
	.p2align	4, 0x90
__ZN4core3ptr13drop_in_place17h23d7f5c265444295E:
	.cfi_startproc
	pushq	%rbp
	.cfi_def_cfa_offset 16
	.cfi_offset %rbp, -16
	movq	%rsp, %rbp
	.cfi_def_cfa_register %rbp
	subq	$16, %rsp
	callq	__ZN4core3ptr13drop_in_place17ha6a9dcf07712336cE
	addq	$16, %rsp
	popq	%rbp
	retq
	.cfi_endproc

	.globl	__ZN4core3ptr13drop_in_place17h2772c38bae8aa3a5E
	.p2align	4, 0x90
__ZN4core3ptr13drop_in_place17h2772c38bae8aa3a5E:
	.cfi_startproc
	pushq	%rbp
	.cfi_def_cfa_offset 16
	.cfi_offset %rbp, -16
	movq	%rsp, %rbp
	.cfi_def_cfa_register %rbp
	subq	$16, %rsp
	xorl	%eax, %eax
	movl	%eax, %ecx
	cmpq	$0, (%rdi)
	movl	$1, %edx
	cmovbeq	%rcx, %rdx
	cmpq	$0, %rdx
	movq	%rdi, -16(%rbp)
	jne	LBB150_2
LBB150_1:
	addq	$16, %rsp
	popq	%rbp
	retq
LBB150_2:
	movq	-16(%rbp), %rax
	movq	%rax, %rdi
	callq	__ZN4core3ptr13drop_in_place17h034e40f67d36438fE
	jmp	LBB150_1
	.cfi_endproc

	.globl	__ZN4core3ptr13drop_in_place17h2826d490134aa2d3E
	.p2align	4, 0x90
__ZN4core3ptr13drop_in_place17h2826d490134aa2d3E:
	.cfi_startproc
	pushq	%rbp
	.cfi_def_cfa_offset 16
	.cfi_offset %rbp, -16
	movq	%rsp, %rbp
	.cfi_def_cfa_register %rbp
	subq	$16, %rsp
	callq	*(%rsi)
	addq	$16, %rsp
	popq	%rbp
	retq
	.cfi_endproc

	.p2align	4, 0x90
__ZN4core3ptr13drop_in_place17h2baa9365d5c14862E:
	.cfi_startproc
	pushq	%rbp
	.cfi_def_cfa_offset 16
	.cfi_offset %rbp, -16
	movq	%rsp, %rbp
	.cfi_def_cfa_register %rbp
	pushq	%rax
	addq	$8, %rsp
	popq	%rbp
	retq
	.cfi_endproc

	.p2align	4, 0x90
__ZN4core3ptr13drop_in_place17h307de4fa01e4f21aE:
	.cfi_startproc
	pushq	%rbp
	.cfi_def_cfa_offset 16
	.cfi_offset %rbp, -16
	movq	%rsp, %rbp
	.cfi_def_cfa_register %rbp
	pushq	%rax
	addq	$8, %rsp
	popq	%rbp
	retq
	.cfi_endproc

	.globl	__ZN4core3ptr13drop_in_place17h30817b6fb23bde15E
	.p2align	4, 0x90
__ZN4core3ptr13drop_in_place17h30817b6fb23bde15E:
Lfunc_begin19:
	.cfi_startproc
	.cfi_personality 155, _rust_eh_personality
	.cfi_lsda 16, Lexception19
	pushq	%rbp
	.cfi_def_cfa_offset 16
	.cfi_offset %rbp, -16
	movq	%rsp, %rbp
	.cfi_def_cfa_register %rbp
	subq	$32, %rsp
Ltmp119:
	movq	%rdi, -32(%rbp)
	callq	__ZN4core3ptr13drop_in_place17h03c3b981f286755cE
Ltmp120:
	jmp	LBB154_8
LBB154_1:
	movq	-16(%rbp), %rdi
	callq	__Unwind_Resume
	ud2
LBB154_2:
	addq	$32, %rsp
	popq	%rbp
	retq
LBB154_3:
	movq	-32(%rbp), %rax
	addq	$96, %rax
	movq	%rax, %rdi
	callq	__ZN4core3ptr13drop_in_place17hf374455a90b87af2E
	jmp	LBB154_1
LBB154_4:
	movq	-32(%rbp), %rax
	addq	$72, %rax
	movq	%rax, %rdi
	callq	__ZN4core3ptr13drop_in_place17h2772c38bae8aa3a5E
	jmp	LBB154_3
LBB154_5:
	movq	-32(%rbp), %rax
	addq	$24, %rax
	movq	%rax, %rdi
	callq	__ZN4core3ptr13drop_in_place17h03c3b981f286755cE
	jmp	LBB154_4
LBB154_6:
	movq	-32(%rbp), %rax
	addq	$96, %rax
	movq	%rax, %rdi
	callq	__ZN4core3ptr13drop_in_place17hf374455a90b87af2E
	jmp	LBB154_2
LBB154_7:
	movq	-32(%rbp), %rax
	addq	$72, %rax
Ltmp125:
	movq	%rax, %rdi
	callq	__ZN4core3ptr13drop_in_place17h2772c38bae8aa3a5E
Ltmp126:
	jmp	LBB154_6
LBB154_8:
	movq	-32(%rbp), %rax
	addq	$24, %rax
Ltmp122:
	movq	%rax, %rdi
	callq	__ZN4core3ptr13drop_in_place17h03c3b981f286755cE
Ltmp123:
	jmp	LBB154_7
LBB154_9:
Ltmp121:
	movq	%rax, -16(%rbp)
	movl	%edx, -8(%rbp)
	jmp	LBB154_5
LBB154_10:
Ltmp124:
	movq	%rax, -16(%rbp)
	movl	%edx, -8(%rbp)
	jmp	LBB154_4
LBB154_11:
Ltmp127:
	movq	%rax, -16(%rbp)
	movl	%edx, -8(%rbp)
	jmp	LBB154_3
Lfunc_end19:
	.cfi_endproc
	.section	__TEXT,__gcc_except_tab
	.p2align	2
GCC_except_table154:
Lexception19:
	.byte	255
	.byte	255
	.byte	1
	.uleb128 Lcst_end19-Lcst_begin19
Lcst_begin19:
	.uleb128 Ltmp119-Lfunc_begin19
	.uleb128 Ltmp120-Ltmp119
	.uleb128 Ltmp121-Lfunc_begin19
	.byte	0
	.uleb128 Ltmp120-Lfunc_begin19
	.uleb128 Ltmp125-Ltmp120
	.byte	0
	.byte	0
	.uleb128 Ltmp125-Lfunc_begin19
	.uleb128 Ltmp126-Ltmp125
	.uleb128 Ltmp127-Lfunc_begin19
	.byte	0
	.uleb128 Ltmp122-Lfunc_begin19
	.uleb128 Ltmp123-Ltmp122
	.uleb128 Ltmp124-Lfunc_begin19
	.byte	0
Lcst_end19:
	.p2align	2

	.section	__TEXT,__text,regular,pure_instructions
	.globl	__ZN4core3ptr13drop_in_place17h352d0f802ee3cee3E
	.p2align	4, 0x90
__ZN4core3ptr13drop_in_place17h352d0f802ee3cee3E:
	.cfi_startproc
	pushq	%rbp
	.cfi_def_cfa_offset 16
	.cfi_offset %rbp, -16
	movq	%rsp, %rbp
	.cfi_def_cfa_register %rbp
	subq	$16, %rsp
	callq	__ZN4core3ptr13drop_in_place17he4901ba7381cd424E
	addq	$16, %rsp
	popq	%rbp
	retq
	.cfi_endproc

	.globl	__ZN4core3ptr13drop_in_place17h354e583a0a419cacE
	.p2align	4, 0x90
__ZN4core3ptr13drop_in_place17h354e583a0a419cacE:
Lfunc_begin20:
	.cfi_startproc
	.cfi_personality 155, _rust_eh_personality
	.cfi_lsda 16, Lexception20
	pushq	%rbp
	.cfi_def_cfa_offset 16
	.cfi_offset %rbp, -16
	movq	%rsp, %rbp
	.cfi_def_cfa_register %rbp
	subq	$32, %rsp
	movq	(%rdi), %rax
Ltmp128:
	movq	%rdi, -32(%rbp)
	movq	%rax, %rdi
	callq	__ZN4core3ptr13drop_in_place17h23d7f5c265444295E
Ltmp129:
	jmp	LBB156_3
LBB156_1:
	addq	$32, %rsp
	popq	%rbp
	retq
LBB156_2:
	movq	-16(%rbp), %rdi
	callq	__Unwind_Resume
	ud2
LBB156_3:
	movq	-32(%rbp), %rax
	movq	(%rax), %rdi
	callq	__ZN5alloc5alloc8box_free17h3f89ba3c0282bae7E
	jmp	LBB156_1
LBB156_4:
	movq	-32(%rbp), %rax
	movq	(%rax), %rdi
	callq	__ZN5alloc5alloc8box_free17h3f89ba3c0282bae7E
	jmp	LBB156_2
LBB156_5:
Ltmp130:
	movq	%rax, -16(%rbp)
	movl	%edx, -8(%rbp)
	jmp	LBB156_4
Lfunc_end20:
	.cfi_endproc
	.section	__TEXT,__gcc_except_tab
	.p2align	2
GCC_except_table156:
Lexception20:
	.byte	255
	.byte	255
	.byte	1
	.uleb128 Lcst_end20-Lcst_begin20
Lcst_begin20:
	.uleb128 Ltmp128-Lfunc_begin20
	.uleb128 Ltmp129-Ltmp128
	.uleb128 Ltmp130-Lfunc_begin20
	.byte	0
	.uleb128 Ltmp129-Lfunc_begin20
	.uleb128 Lfunc_end20-Ltmp129
	.byte	0
	.byte	0
Lcst_end20:
	.p2align	2

	.section	__TEXT,__text,regular,pure_instructions
	.globl	__ZN4core3ptr13drop_in_place17h37f250c30256e7bdE
	.p2align	4, 0x90
__ZN4core3ptr13drop_in_place17h37f250c30256e7bdE:
	.cfi_startproc
	pushq	%rbp
	.cfi_def_cfa_offset 16
	.cfi_offset %rbp, -16
	movq	%rsp, %rbp
	.cfi_def_cfa_register %rbp
	subq	$16, %rsp
	callq	__ZN4core3ptr13drop_in_place17he19dff5b3435c4a9E
	addq	$16, %rsp
	popq	%rbp
	retq
	.cfi_endproc

	.globl	__ZN4core3ptr13drop_in_place17h38af44284dd9a1fbE
	.p2align	4, 0x90
__ZN4core3ptr13drop_in_place17h38af44284dd9a1fbE:
	.cfi_startproc
	pushq	%rbp
	.cfi_def_cfa_offset 16
	.cfi_offset %rbp, -16
	movq	%rsp, %rbp
	.cfi_def_cfa_register %rbp
	subq	$16, %rsp
	xorl	%eax, %eax
	movl	%eax, %ecx
	movl	(%rdi), %eax
	subl	$4, %eax
	cmpl	$0, %eax
	movl	$1, %edx
	cmovbeq	%rcx, %rdx
	cmpq	$0, %rdx
	movq	%rdi, -16(%rbp)
	jne	LBB158_2
LBB158_1:
	addq	$16, %rsp
	popq	%rbp
	retq
LBB158_2:
	movq	-16(%rbp), %rdi
	callq	__ZN4core3ptr13drop_in_place17h994127adeb60dc05E
	jmp	LBB158_1
	.cfi_endproc

	.globl	__ZN4core3ptr13drop_in_place17h3afe773b0b93019dE
	.p2align	4, 0x90
__ZN4core3ptr13drop_in_place17h3afe773b0b93019dE:
	.cfi_startproc
	pushq	%rbp
	.cfi_def_cfa_offset 16
	.cfi_offset %rbp, -16
	movq	%rsp, %rbp
	.cfi_def_cfa_register %rbp
	subq	$16, %rsp
	callq	__ZN4core3ptr13drop_in_place17he4901ba7381cd424E
	addq	$16, %rsp
	popq	%rbp
	retq
	.cfi_endproc

	.globl	__ZN4core3ptr13drop_in_place17h428e87c1d2c3cab6E
	.p2align	4, 0x90
__ZN4core3ptr13drop_in_place17h428e87c1d2c3cab6E:
	.cfi_startproc
	pushq	%rbp
	.cfi_def_cfa_offset 16
	.cfi_offset %rbp, -16
	movq	%rsp, %rbp
	.cfi_def_cfa_register %rbp
	subq	$16, %rsp
	callq	__ZN4core3ptr13drop_in_place17h0a0cd4f5243a4198E
	addq	$16, %rsp
	popq	%rbp
	retq
	.cfi_endproc

	.globl	__ZN4core3ptr13drop_in_place17h4e3eb782bf41ea5eE
	.p2align	4, 0x90
__ZN4core3ptr13drop_in_place17h4e3eb782bf41ea5eE:
Lfunc_begin21:
	.cfi_startproc
	.cfi_personality 155, _rust_eh_personality
	.cfi_lsda 16, Lexception21
	pushq	%rbp
	.cfi_def_cfa_offset 16
	.cfi_offset %rbp, -16
	movq	%rsp, %rbp
	.cfi_def_cfa_register %rbp
	subq	$64, %rsp
	xorl	%eax, %eax
	testb	$1, %al
	movq	%rdi, -56(%rbp)
	movq	%rsi, -64(%rbp)
	jne	LBB161_7
	jmp	LBB161_12
LBB161_1:
	addq	$64, %rsp
	popq	%rbp
	retq
LBB161_2:
	movq	-16(%rbp), %rdi
	callq	__Unwind_Resume
	ud2
LBB161_3:
	movq	-40(%rbp), %rax
	shlq	$4, %rax
	movq	-56(%rbp), %rcx
	addq	%rax, %rcx
	movq	-40(%rbp), %rax
	addq	$1, %rax
	movq	%rax, -40(%rbp)
	movq	%rcx, %rdi
	callq	__ZN4core3ptr13drop_in_place17hf40c2675ee619d64E
LBB161_4:
	movq	-64(%rbp), %rax
	cmpq	%rax, -40(%rbp)
	je	LBB161_2
	jmp	LBB161_3
LBB161_5:
	movq	-40(%rbp), %rax
	movq	%rax, %rcx
	shlq	$4, %rcx
	movq	-56(%rbp), %rdx
	addq	%rcx, %rdx
	incq	%rax
	movq	%rax, -40(%rbp)
Ltmp134:
	movq	%rdx, %rdi
	callq	__ZN4core3ptr13drop_in_place17hf40c2675ee619d64E
Ltmp135:
	jmp	LBB161_6
LBB161_6:
	movq	-64(%rbp), %rax
	cmpq	%rax, -40(%rbp)
	je	LBB161_1
	jmp	LBB161_5
LBB161_7:
	movq	$0, -40(%rbp)
	jmp	LBB161_6
LBB161_8:
	movq	-32(%rbp), %rdi
	movq	-32(%rbp), %rax
	addq	$16, %rax
	movq	%rax, -32(%rbp)
	callq	__ZN4core3ptr13drop_in_place17hf40c2675ee619d64E
LBB161_9:
	movq	-32(%rbp), %rax
	cmpq	-24(%rbp), %rax
	je	LBB161_2
	jmp	LBB161_8
LBB161_10:
	movq	-32(%rbp), %rax
	movq	%rax, %rcx
	addq	$16, %rcx
	movq	%rcx, -32(%rbp)
Ltmp131:
	movq	%rax, %rdi
	callq	__ZN4core3ptr13drop_in_place17hf40c2675ee619d64E
Ltmp132:
	jmp	LBB161_11
LBB161_11:
	movq	-32(%rbp), %rax
	cmpq	-24(%rbp), %rax
	je	LBB161_1
	jmp	LBB161_10
LBB161_12:
	movq	-56(%rbp), %rax
	movq	%rax, -32(%rbp)
	movq	-64(%rbp), %rax
	shlq	$4, %rax
	addq	-32(%rbp), %rax
	movq	%rax, -24(%rbp)
	jmp	LBB161_11
LBB161_13:
Ltmp133:
	movq	%rax, -16(%rbp)
	movl	%edx, -8(%rbp)
	jmp	LBB161_9
LBB161_14:
Ltmp136:
	movq	%rax, -16(%rbp)
	movl	%edx, -8(%rbp)
	jmp	LBB161_4
Lfunc_end21:
	.cfi_endproc
	.section	__TEXT,__gcc_except_tab
	.p2align	2
GCC_except_table161:
Lexception21:
	.byte	255
	.byte	255
	.byte	1
	.uleb128 Lcst_end21-Lcst_begin21
Lcst_begin21:
	.uleb128 Lfunc_begin21-Lfunc_begin21
	.uleb128 Ltmp134-Lfunc_begin21
	.byte	0
	.byte	0
	.uleb128 Ltmp134-Lfunc_begin21
	.uleb128 Ltmp135-Ltmp134
	.uleb128 Ltmp136-Lfunc_begin21
	.byte	0
	.uleb128 Ltmp135-Lfunc_begin21
	.uleb128 Ltmp131-Ltmp135
	.byte	0
	.byte	0
	.uleb128 Ltmp131-Lfunc_begin21
	.uleb128 Ltmp132-Ltmp131
	.uleb128 Ltmp133-Lfunc_begin21
	.byte	0
Lcst_end21:
	.p2align	2

	.section	__TEXT,__text,regular,pure_instructions
	.globl	__ZN4core3ptr13drop_in_place17h4fb115f41df4790eE
	.p2align	4, 0x90
__ZN4core3ptr13drop_in_place17h4fb115f41df4790eE:
Lfunc_begin22:
	.cfi_startproc
	.cfi_personality 155, _rust_eh_personality
	.cfi_lsda 16, Lexception22
	pushq	%rbp
	.cfi_def_cfa_offset 16
	.cfi_offset %rbp, -16
	movq	%rsp, %rbp
	.cfi_def_cfa_register %rbp
	subq	$32, %rsp
Ltmp137:
	movq	%rdi, -32(%rbp)
	callq	__ZN4core3ptr13drop_in_place17h034e40f67d36438fE
Ltmp138:
	jmp	LBB162_4
LBB162_1:
	movq	-16(%rbp), %rdi
	callq	__Unwind_Resume
	ud2
LBB162_2:
	addq	$32, %rsp
	popq	%rbp
	retq
LBB162_3:
	movq	-32(%rbp), %rax
	addq	$24, %rax
	movq	%rax, %rdi
	callq	__ZN4core3ptr13drop_in_place17h2772c38bae8aa3a5E
	jmp	LBB162_1
LBB162_4:
	movq	-32(%rbp), %rax
	addq	$24, %rax
	movq	%rax, %rdi
	callq	__ZN4core3ptr13drop_in_place17h2772c38bae8aa3a5E
	jmp	LBB162_2
LBB162_5:
Ltmp139:
	movq	%rax, -16(%rbp)
	movl	%edx, -8(%rbp)
	jmp	LBB162_3
Lfunc_end22:
	.cfi_endproc
	.section	__TEXT,__gcc_except_tab
	.p2align	2
GCC_except_table162:
Lexception22:
	.byte	255
	.byte	255
	.byte	1
	.uleb128 Lcst_end22-Lcst_begin22
Lcst_begin22:
	.uleb128 Ltmp137-Lfunc_begin22
	.uleb128 Ltmp138-Ltmp137
	.uleb128 Ltmp139-Lfunc_begin22
	.byte	0
	.uleb128 Ltmp138-Lfunc_begin22
	.uleb128 Lfunc_end22-Ltmp138
	.byte	0
	.byte	0
Lcst_end22:
	.p2align	2

	.section	__TEXT,__text,regular,pure_instructions
	.globl	__ZN4core3ptr13drop_in_place17h54d6103dab737dafE
	.p2align	4, 0x90
__ZN4core3ptr13drop_in_place17h54d6103dab737dafE:
	.cfi_startproc
	pushq	%rbp
	.cfi_def_cfa_offset 16
	.cfi_offset %rbp, -16
	movq	%rsp, %rbp
	.cfi_def_cfa_register %rbp
	subq	$16, %rsp
	callq	__ZN77_$LT$alloc..raw_vec..RawVec$LT$T$C$A$GT$$u20$as$u20$core..ops..drop..Drop$GT$4drop17h03b8b3b8d3a7f018E
	addq	$16, %rsp
	popq	%rbp
	retq
	.cfi_endproc

	.globl	__ZN4core3ptr13drop_in_place17h55eb8c87a0e39ab6E
	.p2align	4, 0x90
__ZN4core3ptr13drop_in_place17h55eb8c87a0e39ab6E:
Lfunc_begin23:
	.cfi_startproc
	.cfi_personality 155, _rust_eh_personality
	.cfi_lsda 16, Lexception23
	pushq	%rbp
	.cfi_def_cfa_offset 16
	.cfi_offset %rbp, -16
	movq	%rsp, %rbp
	.cfi_def_cfa_register %rbp
	subq	$64, %rsp
	xorl	%eax, %eax
	testb	$1, %al
	movq	%rdi, -56(%rbp)
	movq	%rsi, -64(%rbp)
	jne	LBB164_7
	jmp	LBB164_12
LBB164_1:
	addq	$64, %rsp
	popq	%rbp
	retq
LBB164_2:
	movq	-16(%rbp), %rdi
	callq	__Unwind_Resume
	ud2
LBB164_3:
	movq	-40(%rbp), %rax
	shlq	$4, %rax
	movq	-56(%rbp), %rcx
	addq	%rax, %rcx
	movq	-40(%rbp), %rax
	addq	$1, %rax
	movq	%rax, -40(%rbp)
	movq	%rcx, %rdi
	callq	__ZN4core3ptr13drop_in_place17h8c73ffaa3c4fc0ddE
LBB164_4:
	movq	-64(%rbp), %rax
	cmpq	%rax, -40(%rbp)
	je	LBB164_2
	jmp	LBB164_3
LBB164_5:
	movq	-40(%rbp), %rax
	movq	%rax, %rcx
	shlq	$4, %rcx
	movq	-56(%rbp), %rdx
	addq	%rcx, %rdx
	incq	%rax
	movq	%rax, -40(%rbp)
Ltmp143:
	movq	%rdx, %rdi
	callq	__ZN4core3ptr13drop_in_place17h8c73ffaa3c4fc0ddE
Ltmp144:
	jmp	LBB164_6
LBB164_6:
	movq	-64(%rbp), %rax
	cmpq	%rax, -40(%rbp)
	je	LBB164_1
	jmp	LBB164_5
LBB164_7:
	movq	$0, -40(%rbp)
	jmp	LBB164_6
LBB164_8:
	movq	-32(%rbp), %rdi
	movq	-32(%rbp), %rax
	addq	$16, %rax
	movq	%rax, -32(%rbp)
	callq	__ZN4core3ptr13drop_in_place17h8c73ffaa3c4fc0ddE
LBB164_9:
	movq	-32(%rbp), %rax
	cmpq	-24(%rbp), %rax
	je	LBB164_2
	jmp	LBB164_8
LBB164_10:
	movq	-32(%rbp), %rax
	movq	%rax, %rcx
	addq	$16, %rcx
	movq	%rcx, -32(%rbp)
Ltmp140:
	movq	%rax, %rdi
	callq	__ZN4core3ptr13drop_in_place17h8c73ffaa3c4fc0ddE
Ltmp141:
	jmp	LBB164_11
LBB164_11:
	movq	-32(%rbp), %rax
	cmpq	-24(%rbp), %rax
	je	LBB164_1
	jmp	LBB164_10
LBB164_12:
	movq	-56(%rbp), %rax
	movq	%rax, -32(%rbp)
	movq	-64(%rbp), %rax
	shlq	$4, %rax
	addq	-32(%rbp), %rax
	movq	%rax, -24(%rbp)
	jmp	LBB164_11
LBB164_13:
Ltmp142:
	movq	%rax, -16(%rbp)
	movl	%edx, -8(%rbp)
	jmp	LBB164_9
LBB164_14:
Ltmp145:
	movq	%rax, -16(%rbp)
	movl	%edx, -8(%rbp)
	jmp	LBB164_4
Lfunc_end23:
	.cfi_endproc
	.section	__TEXT,__gcc_except_tab
	.p2align	2
GCC_except_table164:
Lexception23:
	.byte	255
	.byte	255
	.byte	1
	.uleb128 Lcst_end23-Lcst_begin23
Lcst_begin23:
	.uleb128 Lfunc_begin23-Lfunc_begin23
	.uleb128 Ltmp143-Lfunc_begin23
	.byte	0
	.byte	0
	.uleb128 Ltmp143-Lfunc_begin23
	.uleb128 Ltmp144-Ltmp143
	.uleb128 Ltmp145-Lfunc_begin23
	.byte	0
	.uleb128 Ltmp144-Lfunc_begin23
	.uleb128 Ltmp140-Ltmp144
	.byte	0
	.byte	0
	.uleb128 Ltmp140-Lfunc_begin23
	.uleb128 Ltmp141-Ltmp140
	.uleb128 Ltmp142-Lfunc_begin23
	.byte	0
Lcst_end23:
	.p2align	2

	.section	__TEXT,__text,regular,pure_instructions
	.globl	__ZN4core3ptr13drop_in_place17h567ad759a8e8c794E
	.p2align	4, 0x90
__ZN4core3ptr13drop_in_place17h567ad759a8e8c794E:
	.cfi_startproc
	pushq	%rbp
	.cfi_def_cfa_offset 16
	.cfi_offset %rbp, -16
	movq	%rsp, %rbp
	.cfi_def_cfa_register %rbp
	subq	$16, %rsp
	callq	__ZN4core3ptr13drop_in_place17h5e0eae1de15316a8E
	addq	$16, %rsp
	popq	%rbp
	retq
	.cfi_endproc

	.globl	__ZN4core3ptr13drop_in_place17h5e0eae1de15316a8E
	.p2align	4, 0x90
__ZN4core3ptr13drop_in_place17h5e0eae1de15316a8E:
	.cfi_startproc
	pushq	%rbp
	.cfi_def_cfa_offset 16
	.cfi_offset %rbp, -16
	movq	%rsp, %rbp
	.cfi_def_cfa_register %rbp
	subq	$16, %rsp
	movb	(%rdi), %al
	subb	$1, %al
	movq	%rdi, -16(%rbp)
	ja	LBB166_2
	jmp	LBB166_1
LBB166_1:
	addq	$16, %rsp
	popq	%rbp
	retq
LBB166_2:
	movq	-16(%rbp), %rax
	addq	$8, %rax
	movq	%rax, %rdi
	callq	__ZN4core3ptr13drop_in_place17h354e583a0a419cacE
	jmp	LBB166_1
	.cfi_endproc

	.globl	__ZN4core3ptr13drop_in_place17h67c806d61d61f513E
	.p2align	4, 0x90
__ZN4core3ptr13drop_in_place17h67c806d61d61f513E:
	.cfi_startproc
	pushq	%rbp
	.cfi_def_cfa_offset 16
	.cfi_offset %rbp, -16
	movq	%rsp, %rbp
	.cfi_def_cfa_register %rbp
	subq	$16, %rsp
	callq	__ZN95_$LT$alloc..collections..btree..map..IntoIter$LT$K$C$V$GT$$u20$as$u20$core..ops..drop..Drop$GT$4drop17hf592d96d451efbd5E
	addq	$16, %rsp
	popq	%rbp
	retq
	.cfi_endproc

	.p2align	4, 0x90
__ZN4core3ptr13drop_in_place17h692325fa2c62592cE:
	.cfi_startproc
	pushq	%rbp
	.cfi_def_cfa_offset 16
	.cfi_offset %rbp, -16
	movq	%rsp, %rbp
	.cfi_def_cfa_register %rbp
	pushq	%rax
	addq	$8, %rsp
	popq	%rbp
	retq
	.cfi_endproc

	.globl	__ZN4core3ptr13drop_in_place17h734ff1051a3d6d2cE
	.p2align	4, 0x90
__ZN4core3ptr13drop_in_place17h734ff1051a3d6d2cE:
Lfunc_begin24:
	.cfi_startproc
	.cfi_personality 155, _rust_eh_personality
	.cfi_lsda 16, Lexception24
	pushq	%rbp
	.cfi_def_cfa_offset 16
	.cfi_offset %rbp, -16
	movq	%rsp, %rbp
	.cfi_def_cfa_register %rbp
	subq	$32, %rsp
Ltmp146:
	movq	%rdi, -32(%rbp)
	callq	__ZN66_$LT$alloc..vec..Vec$LT$T$GT$$u20$as$u20$core..ops..drop..Drop$GT$4drop17ha8b66df9167ef04fE
Ltmp147:
	jmp	LBB169_4
LBB169_1:
	movq	-16(%rbp), %rdi
	callq	__Unwind_Resume
	ud2
LBB169_2:
	addq	$32, %rsp
	popq	%rbp
	retq
LBB169_3:
	movq	-32(%rbp), %rax
	movq	%rax, %rdi
	callq	__ZN4core3ptr13drop_in_place17hbd75677d7253287fE
	jmp	LBB169_1
LBB169_4:
	movq	-32(%rbp), %rax
	movq	%rax, %rdi
	callq	__ZN4core3ptr13drop_in_place17hbd75677d7253287fE
	jmp	LBB169_2
LBB169_5:
Ltmp148:
	movq	%rax, -16(%rbp)
	movl	%edx, -8(%rbp)
	jmp	LBB169_3
Lfunc_end24:
	.cfi_endproc
	.section	__TEXT,__gcc_except_tab
	.p2align	2
GCC_except_table169:
Lexception24:
	.byte	255
	.byte	255
	.byte	1
	.uleb128 Lcst_end24-Lcst_begin24
Lcst_begin24:
	.uleb128 Ltmp146-Lfunc_begin24
	.uleb128 Ltmp147-Ltmp146
	.uleb128 Ltmp148-Lfunc_begin24
	.byte	0
	.uleb128 Ltmp147-Lfunc_begin24
	.uleb128 Lfunc_end24-Ltmp147
	.byte	0
	.byte	0
Lcst_end24:
	.p2align	2

	.section	__TEXT,__text,regular,pure_instructions
	.globl	__ZN4core3ptr13drop_in_place17h766b1c2b2ba97f0cE
	.p2align	4, 0x90
__ZN4core3ptr13drop_in_place17h766b1c2b2ba97f0cE:
	.cfi_startproc
	pushq	%rbp
	.cfi_def_cfa_offset 16
	.cfi_offset %rbp, -16
	movq	%rsp, %rbp
	.cfi_def_cfa_register %rbp
	subq	$16, %rsp
	callq	__ZN77_$LT$alloc..raw_vec..RawVec$LT$T$C$A$GT$$u20$as$u20$core..ops..drop..Drop$GT$4drop17h504255592b16676bE
	addq	$16, %rsp
	popq	%rbp
	retq
	.cfi_endproc

	.globl	__ZN4core3ptr13drop_in_place17h77c967c6abcc0a9bE
	.p2align	4, 0x90
__ZN4core3ptr13drop_in_place17h77c967c6abcc0a9bE:
	.cfi_startproc
	pushq	%rbp
	.cfi_def_cfa_offset 16
	.cfi_offset %rbp, -16
	movq	%rsp, %rbp
	.cfi_def_cfa_register %rbp
	subq	$16, %rsp
	movl	(%rdi), %eax
	movl	%eax, %ecx
	cmpq	$0, %rcx
	movq	%rdi, -16(%rbp)
	jne	LBB171_2
LBB171_1:
	addq	$16, %rsp
	popq	%rbp
	retq
LBB171_2:
	movq	-16(%rbp), %rax
	addq	$4, %rax
	movq	%rax, %rdi
	callq	__ZN4core3ptr13drop_in_place17hf68d32cfa4136f7cE
	jmp	LBB171_1
	.cfi_endproc

	.globl	__ZN4core3ptr13drop_in_place17h79ce4c74ffa70b04E
	.p2align	4, 0x90
__ZN4core3ptr13drop_in_place17h79ce4c74ffa70b04E:
	.cfi_startproc
	pushq	%rbp
	.cfi_def_cfa_offset 16
	.cfi_offset %rbp, -16
	movq	%rsp, %rbp
	.cfi_def_cfa_register %rbp
	subq	$16, %rsp
	callq	__ZN77_$LT$alloc..raw_vec..RawVec$LT$T$C$A$GT$$u20$as$u20$core..ops..drop..Drop$GT$4drop17h79f374cba51913d5E
	addq	$16, %rsp
	popq	%rbp
	retq
	.cfi_endproc

	.globl	__ZN4core3ptr13drop_in_place17h7cf564c9376b0eacE
	.p2align	4, 0x90
__ZN4core3ptr13drop_in_place17h7cf564c9376b0eacE:
	.cfi_startproc
	pushq	%rbp
	.cfi_def_cfa_offset 16
	.cfi_offset %rbp, -16
	movq	%rsp, %rbp
	.cfi_def_cfa_register %rbp
	subq	$16, %rsp
	callq	*(%rsi)
	addq	$16, %rsp
	popq	%rbp
	retq
	.cfi_endproc

	.globl	__ZN4core3ptr13drop_in_place17h8c73ffaa3c4fc0ddE
	.p2align	4, 0x90
__ZN4core3ptr13drop_in_place17h8c73ffaa3c4fc0ddE:
Lfunc_begin25:
	.cfi_startproc
	.cfi_personality 155, _rust_eh_personality
	.cfi_lsda 16, Lexception25
	pushq	%rbp
	.cfi_def_cfa_offset 16
	.cfi_offset %rbp, -16
	movq	%rsp, %rbp
	.cfi_def_cfa_register %rbp
	subq	$32, %rsp
Ltmp149:
	movq	%rdi, -32(%rbp)
	callq	__ZN66_$LT$std..ffi..c_str..CString$u20$as$u20$core..ops..drop..Drop$GT$4drop17h3cdd5b5a4d27a8e6E
Ltmp150:
	jmp	LBB174_4
LBB174_1:
	movq	-16(%rbp), %rdi
	callq	__Unwind_Resume
	ud2
LBB174_2:
	addq	$32, %rsp
	popq	%rbp
	retq
LBB174_3:
	movq	-32(%rbp), %rax
	movq	%rax, %rdi
	callq	__ZN4core3ptr13drop_in_place17h0b1f101177e3bc39E
	jmp	LBB174_1
LBB174_4:
	movq	-32(%rbp), %rax
	movq	%rax, %rdi
	callq	__ZN4core3ptr13drop_in_place17h0b1f101177e3bc39E
	jmp	LBB174_2
LBB174_5:
Ltmp151:
	movq	%rax, -16(%rbp)
	movl	%edx, -8(%rbp)
	jmp	LBB174_3
Lfunc_end25:
	.cfi_endproc
	.section	__TEXT,__gcc_except_tab
	.p2align	2
GCC_except_table174:
Lexception25:
	.byte	255
	.byte	255
	.byte	1
	.uleb128 Lcst_end25-Lcst_begin25
Lcst_begin25:
	.uleb128 Ltmp149-Lfunc_begin25
	.uleb128 Ltmp150-Ltmp149
	.uleb128 Ltmp151-Lfunc_begin25
	.byte	0
	.uleb128 Ltmp150-Lfunc_begin25
	.uleb128 Lfunc_end25-Ltmp150
	.byte	0
	.byte	0
Lcst_end25:
	.p2align	2

	.section	__TEXT,__text,regular,pure_instructions
	.globl	__ZN4core3ptr13drop_in_place17h8c915807eb175236E
	.p2align	4, 0x90
__ZN4core3ptr13drop_in_place17h8c915807eb175236E:
	.cfi_startproc
	pushq	%rbp
	.cfi_def_cfa_offset 16
	.cfi_offset %rbp, -16
	movq	%rsp, %rbp
	.cfi_def_cfa_register %rbp
	subq	$16, %rsp
	callq	__ZN4core3ptr13drop_in_place17he19dff5b3435c4a9E
	addq	$16, %rsp
	popq	%rbp
	retq
	.cfi_endproc

	.p2align	4, 0x90
__ZN4core3ptr13drop_in_place17h8e20046a9905074eE:
	.cfi_startproc
	pushq	%rbp
	.cfi_def_cfa_offset 16
	.cfi_offset %rbp, -16
	movq	%rsp, %rbp
	.cfi_def_cfa_register %rbp
	pushq	%rax
	addq	$8, %rsp
	popq	%rbp
	retq
	.cfi_endproc

	.p2align	4, 0x90
__ZN4core3ptr13drop_in_place17h91008fc135372ec8E:
	.cfi_startproc
	pushq	%rbp
	.cfi_def_cfa_offset 16
	.cfi_offset %rbp, -16
	movq	%rsp, %rbp
	.cfi_def_cfa_register %rbp
	pushq	%rax
	addq	$8, %rsp
	popq	%rbp
	retq
	.cfi_endproc

	.globl	__ZN4core3ptr13drop_in_place17h92ae2c1169e5f363E
	.p2align	4, 0x90
__ZN4core3ptr13drop_in_place17h92ae2c1169e5f363E:
	.cfi_startproc
	pushq	%rbp
	.cfi_def_cfa_offset 16
	.cfi_offset %rbp, -16
	movq	%rsp, %rbp
	.cfi_def_cfa_register %rbp
	subq	$16, %rsp
	movl	(%rdi), %eax
	movl	%eax, %ecx
	cmpq	$0, %rcx
	movq	%rdi, -16(%rbp)
	jne	LBB178_2
LBB178_1:
	addq	$16, %rsp
	popq	%rbp
	retq
LBB178_2:
	movq	-16(%rbp), %rax
	addq	$4, %rax
	movq	%rax, %rdi
	callq	__ZN4core3ptr13drop_in_place17h8c915807eb175236E
	jmp	LBB178_1
	.cfi_endproc

	.globl	__ZN4core3ptr13drop_in_place17h994127adeb60dc05E
	.p2align	4, 0x90
__ZN4core3ptr13drop_in_place17h994127adeb60dc05E:
	.cfi_startproc
	pushq	%rbp
	.cfi_def_cfa_offset 16
	.cfi_offset %rbp, -16
	movq	%rsp, %rbp
	.cfi_def_cfa_register %rbp
	subq	$16, %rsp
	movl	(%rdi), %eax
	subl	$2, %eax
	movq	%rdi, -16(%rbp)
	ja	LBB179_2
	jmp	LBB179_1
LBB179_1:
	addq	$16, %rsp
	popq	%rbp
	retq
LBB179_2:
	movq	-16(%rbp), %rax
	addq	$4, %rax
	movq	%rax, %rdi
	callq	__ZN4core3ptr13drop_in_place17he3f15d672da4be09E
	jmp	LBB179_1
	.cfi_endproc

	.globl	__ZN4core3ptr13drop_in_place17h9b93e35c23bd7e10E
	.p2align	4, 0x90
__ZN4core3ptr13drop_in_place17h9b93e35c23bd7e10E:
	.cfi_startproc
	pushq	%rbp
	.cfi_def_cfa_offset 16
	.cfi_offset %rbp, -16
	movq	%rsp, %rbp
	.cfi_def_cfa_register %rbp
	subq	$16, %rsp
	callq	__ZN4core3ptr13drop_in_place17hcd500cc86470521eE
	addq	$16, %rsp
	popq	%rbp
	retq
	.cfi_endproc

	.p2align	4, 0x90
__ZN4core3ptr13drop_in_place17h9dc2dc682af67218E:
	.cfi_startproc
	pushq	%rbp
	.cfi_def_cfa_offset 16
	.cfi_offset %rbp, -16
	movq	%rsp, %rbp
	.cfi_def_cfa_register %rbp
	pushq	%rax
	addq	$8, %rsp
	popq	%rbp
	retq
	.cfi_endproc

	.globl	__ZN4core3ptr13drop_in_place17ha198102ad06dcac7E
	.p2align	4, 0x90
__ZN4core3ptr13drop_in_place17ha198102ad06dcac7E:
	.cfi_startproc
	pushq	%rbp
	.cfi_def_cfa_offset 16
	.cfi_offset %rbp, -16
	movq	%rsp, %rbp
	.cfi_def_cfa_register %rbp
	subq	$16, %rsp
	callq	__ZN77_$LT$alloc..raw_vec..RawVec$LT$T$C$A$GT$$u20$as$u20$core..ops..drop..Drop$GT$4drop17h147ad5dab5da9538E
	addq	$16, %rsp
	popq	%rbp
	retq
	.cfi_endproc

	.globl	__ZN4core3ptr13drop_in_place17ha6a9dcf07712336cE
	.p2align	4, 0x90
__ZN4core3ptr13drop_in_place17ha6a9dcf07712336cE:
Lfunc_begin26:
	.cfi_startproc
	.cfi_personality 155, _rust_eh_personality
	.cfi_lsda 16, Lexception26
	pushq	%rbp
	.cfi_def_cfa_offset 16
	.cfi_offset %rbp, -16
	movq	%rsp, %rbp
	.cfi_def_cfa_register %rbp
	subq	$32, %rsp
	movq	(%rdi), %rax
	movq	8(%rdi), %rcx
	movq	(%rcx), %rcx
Ltmp152:
	movq	%rdi, -32(%rbp)
	movq	%rax, %rdi
	callq	*%rcx
Ltmp153:
	jmp	LBB183_3
LBB183_1:
	addq	$32, %rsp
	popq	%rbp
	retq
LBB183_2:
	movq	-16(%rbp), %rdi
	callq	__Unwind_Resume
	ud2
LBB183_3:
	movq	-32(%rbp), %rax
	movq	(%rax), %rdi
	movq	8(%rax), %rsi
	callq	__ZN5alloc5alloc8box_free17haebbe28b209457adE
	jmp	LBB183_1
LBB183_4:
	movq	-32(%rbp), %rax
	movq	(%rax), %rdi
	movq	8(%rax), %rsi
	callq	__ZN5alloc5alloc8box_free17haebbe28b209457adE
	jmp	LBB183_2
LBB183_5:
Ltmp154:
	movq	%rax, -16(%rbp)
	movl	%edx, -8(%rbp)
	jmp	LBB183_4
Lfunc_end26:
	.cfi_endproc
	.section	__TEXT,__gcc_except_tab
	.p2align	2
GCC_except_table183:
Lexception26:
	.byte	255
	.byte	255
	.byte	1
	.uleb128 Lcst_end26-Lcst_begin26
Lcst_begin26:
	.uleb128 Ltmp152-Lfunc_begin26
	.uleb128 Ltmp153-Ltmp152
	.uleb128 Ltmp154-Lfunc_begin26
	.byte	0
	.uleb128 Ltmp153-Lfunc_begin26
	.uleb128 Lfunc_end26-Ltmp153
	.byte	0
	.byte	0
Lcst_end26:
	.p2align	2

	.section	__TEXT,__text,regular,pure_instructions
	.globl	__ZN4core3ptr13drop_in_place17hb47833a813185af6E
	.p2align	4, 0x90
__ZN4core3ptr13drop_in_place17hb47833a813185af6E:
Lfunc_begin27:
	.cfi_startproc
	.cfi_personality 155, _rust_eh_personality
	.cfi_lsda 16, Lexception27
	pushq	%rbp
	.cfi_def_cfa_offset 16
	.cfi_offset %rbp, -16
	movq	%rsp, %rbp
	.cfi_def_cfa_register %rbp
	subq	$32, %rsp
Ltmp155:
	movq	%rdi, -32(%rbp)
	callq	__ZN4core3ptr13drop_in_place17he4901ba7381cd424E
Ltmp156:
	jmp	LBB184_4
LBB184_1:
	movq	-16(%rbp), %rdi
	callq	__Unwind_Resume
	ud2
LBB184_2:
	addq	$32, %rsp
	popq	%rbp
	retq
LBB184_3:
	movq	-32(%rbp), %rax
	addq	$24, %rax
	movq	%rax, %rdi
	callq	__ZN4core3ptr13drop_in_place17he4901ba7381cd424E
	jmp	LBB184_1
LBB184_4:
	movq	-32(%rbp), %rax
	addq	$24, %rax
	movq	%rax, %rdi
	callq	__ZN4core3ptr13drop_in_place17he4901ba7381cd424E
	jmp	LBB184_2
LBB184_5:
Ltmp157:
	movq	%rax, -16(%rbp)
	movl	%edx, -8(%rbp)
	jmp	LBB184_3
Lfunc_end27:
	.cfi_endproc
	.section	__TEXT,__gcc_except_tab
	.p2align	2
GCC_except_table184:
Lexception27:
	.byte	255
	.byte	255
	.byte	1
	.uleb128 Lcst_end27-Lcst_begin27
Lcst_begin27:
	.uleb128 Ltmp155-Lfunc_begin27
	.uleb128 Ltmp156-Ltmp155
	.uleb128 Ltmp157-Lfunc_begin27
	.byte	0
	.uleb128 Ltmp156-Lfunc_begin27
	.uleb128 Lfunc_end27-Ltmp156
	.byte	0
	.byte	0
Lcst_end27:
	.p2align	2

	.section	__TEXT,__text,regular,pure_instructions
	.p2align	4, 0x90
__ZN4core3ptr13drop_in_place17hb65e7a2a8d7a1cc1E:
	.cfi_startproc
	pushq	%rbp
	.cfi_def_cfa_offset 16
	.cfi_offset %rbp, -16
	movq	%rsp, %rbp
	.cfi_def_cfa_register %rbp
	pushq	%rax
	addq	$8, %rsp
	popq	%rbp
	retq
	.cfi_endproc

	.globl	__ZN4core3ptr13drop_in_place17hbc86b14604f11ed3E
	.p2align	4, 0x90
__ZN4core3ptr13drop_in_place17hbc86b14604f11ed3E:
	.cfi_startproc
	pushq	%rbp
	.cfi_def_cfa_offset 16
	.cfi_offset %rbp, -16
	movq	%rsp, %rbp
	.cfi_def_cfa_register %rbp
	subq	$16, %rsp
	cmpq	$0, (%rdi)
	movq	%rdi, -16(%rbp)
	je	LBB186_2
	jmp	LBB186_3
LBB186_1:
	addq	$16, %rsp
	popq	%rbp
	retq
LBB186_2:
	movq	-16(%rbp), %rax
	addq	$8, %rax
	movq	%rax, %rdi
	callq	__ZN4core3ptr13drop_in_place17h3afe773b0b93019dE
	jmp	LBB186_1
LBB186_3:
	movq	-16(%rbp), %rax
	addq	$8, %rax
	movq	%rax, %rdi
	callq	__ZN4core3ptr13drop_in_place17he149743e1aa993eeE
	jmp	LBB186_1
	.cfi_endproc

	.globl	__ZN4core3ptr13drop_in_place17hbd75677d7253287fE
	.p2align	4, 0x90
__ZN4core3ptr13drop_in_place17hbd75677d7253287fE:
	.cfi_startproc
	pushq	%rbp
	.cfi_def_cfa_offset 16
	.cfi_offset %rbp, -16
	movq	%rsp, %rbp
	.cfi_def_cfa_register %rbp
	subq	$16, %rsp
	callq	__ZN77_$LT$alloc..raw_vec..RawVec$LT$T$C$A$GT$$u20$as$u20$core..ops..drop..Drop$GT$4drop17h9e6bdddc667f0546E
	addq	$16, %rsp
	popq	%rbp
	retq
	.cfi_endproc

	.globl	__ZN4core3ptr13drop_in_place17hc2ff5f430a2f0314E
	.p2align	4, 0x90
__ZN4core3ptr13drop_in_place17hc2ff5f430a2f0314E:
Lfunc_begin28:
	.cfi_startproc
	.cfi_personality 155, _rust_eh_personality
	.cfi_lsda 16, Lexception28
	pushq	%rbp
	.cfi_def_cfa_offset 16
	.cfi_offset %rbp, -16
	movq	%rsp, %rbp
	.cfi_def_cfa_register %rbp
	subq	$32, %rsp
	movq	%rdi, %rax
	addq	$12, %rax
Ltmp158:
	movq	%rdi, -32(%rbp)
	movq	%rax, %rdi
	callq	__ZN4core3ptr13drop_in_place17h77c967c6abcc0a9bE
Ltmp159:
	jmp	LBB188_6
LBB188_1:
	movq	-16(%rbp), %rdi
	callq	__Unwind_Resume
	ud2
LBB188_2:
	addq	$32, %rsp
	popq	%rbp
	retq
LBB188_3:
	movq	-32(%rbp), %rax
	addq	$28, %rax
	movq	%rax, %rdi
	callq	__ZN4core3ptr13drop_in_place17h0949f954981ffea5E
	jmp	LBB188_1
LBB188_4:
	movq	-32(%rbp), %rax
	addq	$20, %rax
	movq	%rax, %rdi
	callq	__ZN4core3ptr13drop_in_place17h92ae2c1169e5f363E
	jmp	LBB188_3
LBB188_5:
	movq	-32(%rbp), %rax
	addq	$28, %rax
	movq	%rax, %rdi
	callq	__ZN4core3ptr13drop_in_place17h0949f954981ffea5E
	jmp	LBB188_2
LBB188_6:
	movq	-32(%rbp), %rax
	addq	$20, %rax
Ltmp161:
	movq	%rax, %rdi
	callq	__ZN4core3ptr13drop_in_place17h92ae2c1169e5f363E
Ltmp162:
	jmp	LBB188_5
LBB188_7:
Ltmp160:
	movq	%rax, -16(%rbp)
	movl	%edx, -8(%rbp)
	jmp	LBB188_4
LBB188_8:
Ltmp163:
	movq	%rax, -16(%rbp)
	movl	%edx, -8(%rbp)
	jmp	LBB188_3
Lfunc_end28:
	.cfi_endproc
	.section	__TEXT,__gcc_except_tab
	.p2align	2
GCC_except_table188:
Lexception28:
	.byte	255
	.byte	255
	.byte	1
	.uleb128 Lcst_end28-Lcst_begin28
Lcst_begin28:
	.uleb128 Ltmp158-Lfunc_begin28
	.uleb128 Ltmp159-Ltmp158
	.uleb128 Ltmp160-Lfunc_begin28
	.byte	0
	.uleb128 Ltmp159-Lfunc_begin28
	.uleb128 Ltmp161-Ltmp159
	.byte	0
	.byte	0
	.uleb128 Ltmp161-Lfunc_begin28
	.uleb128 Ltmp162-Ltmp161
	.uleb128 Ltmp163-Lfunc_begin28
	.byte	0
Lcst_end28:
	.p2align	2

	.section	__TEXT,__text,regular,pure_instructions
	.globl	__ZN4core3ptr13drop_in_place17hc71ae6fb639f278cE
	.p2align	4, 0x90
__ZN4core3ptr13drop_in_place17hc71ae6fb639f278cE:
	.cfi_startproc
	pushq	%rbp
	.cfi_def_cfa_offset 16
	.cfi_offset %rbp, -16
	movq	%rsp, %rbp
	.cfi_def_cfa_register %rbp
	subq	$16, %rsp
	xorl	%eax, %eax
	movl	%eax, %ecx
	cmpq	$0, (%rdi)
	movl	$1, %edx
	cmovbeq	%rcx, %rdx
	cmpq	$0, %rdx
	movq	%rdi, -16(%rbp)
	jne	LBB189_2
LBB189_1:
	addq	$16, %rsp
	popq	%rbp
	retq
LBB189_2:
	movq	-16(%rbp), %rdi
	callq	__ZN4core3ptr13drop_in_place17h8c73ffaa3c4fc0ddE
	jmp	LBB189_1
	.cfi_endproc

	.p2align	4, 0x90
__ZN4core3ptr13drop_in_place17hca4db36221c9eb6eE:
	.cfi_startproc
	pushq	%rbp
	.cfi_def_cfa_offset 16
	.cfi_offset %rbp, -16
	movq	%rsp, %rbp
	.cfi_def_cfa_register %rbp
	pushq	%rax
	addq	$8, %rsp
	popq	%rbp
	retq
	.cfi_endproc

	.globl	__ZN4core3ptr13drop_in_place17hcd500cc86470521eE
	.p2align	4, 0x90
__ZN4core3ptr13drop_in_place17hcd500cc86470521eE:
Lfunc_begin29:
	.cfi_startproc
	.cfi_personality 155, _rust_eh_personality
	.cfi_lsda 16, Lexception29
	pushq	%rbp
	.cfi_def_cfa_offset 16
	.cfi_offset %rbp, -16
	movq	%rsp, %rbp
	.cfi_def_cfa_register %rbp
	subq	$32, %rsp
Ltmp164:
	movq	%rdi, -32(%rbp)
	callq	__ZN66_$LT$alloc..vec..Vec$LT$T$GT$$u20$as$u20$core..ops..drop..Drop$GT$4drop17hf8e37acf96cf1a19E
Ltmp165:
	jmp	LBB191_4
LBB191_1:
	movq	-16(%rbp), %rdi
	callq	__Unwind_Resume
	ud2
LBB191_2:
	addq	$32, %rsp
	popq	%rbp
	retq
LBB191_3:
	movq	-32(%rbp), %rax
	movq	%rax, %rdi
	callq	__ZN4core3ptr13drop_in_place17h79ce4c74ffa70b04E
	jmp	LBB191_1
LBB191_4:
	movq	-32(%rbp), %rax
	movq	%rax, %rdi
	callq	__ZN4core3ptr13drop_in_place17h79ce4c74ffa70b04E
	jmp	LBB191_2
LBB191_5:
Ltmp166:
	movq	%rax, -16(%rbp)
	movl	%edx, -8(%rbp)
	jmp	LBB191_3
Lfunc_end29:
	.cfi_endproc
	.section	__TEXT,__gcc_except_tab
	.p2align	2
GCC_except_table191:
Lexception29:
	.byte	255
	.byte	255
	.byte	1
	.uleb128 Lcst_end29-Lcst_begin29
Lcst_begin29:
	.uleb128 Ltmp164-Lfunc_begin29
	.uleb128 Ltmp165-Ltmp164
	.uleb128 Ltmp166-Lfunc_begin29
	.byte	0
	.uleb128 Ltmp165-Lfunc_begin29
	.uleb128 Lfunc_end29-Ltmp165
	.byte	0
	.byte	0
Lcst_end29:
	.p2align	2

	.section	__TEXT,__text,regular,pure_instructions
	.globl	__ZN4core3ptr13drop_in_place17hd2a84c9a4898bf26E
	.p2align	4, 0x90
__ZN4core3ptr13drop_in_place17hd2a84c9a4898bf26E:
Lfunc_begin30:
	.cfi_startproc
	.cfi_personality 155, _rust_eh_personality
	.cfi_lsda 16, Lexception30
	pushq	%rbp
	.cfi_def_cfa_offset 16
	.cfi_offset %rbp, -16
	movq	%rsp, %rbp
	.cfi_def_cfa_register %rbp
	subq	$32, %rsp
Ltmp167:
	movq	%rdi, -32(%rbp)
	callq	__ZN66_$LT$alloc..vec..Vec$LT$T$GT$$u20$as$u20$core..ops..drop..Drop$GT$4drop17hf57a345951ea9ac3E
Ltmp168:
	jmp	LBB192_4
LBB192_1:
	movq	-16(%rbp), %rdi
	callq	__Unwind_Resume
	ud2
LBB192_2:
	addq	$32, %rsp
	popq	%rbp
	retq
LBB192_3:
	movq	-32(%rbp), %rax
	movq	%rax, %rdi
	callq	__ZN4core3ptr13drop_in_place17h54d6103dab737dafE
	jmp	LBB192_1
LBB192_4:
	movq	-32(%rbp), %rax
	movq	%rax, %rdi
	callq	__ZN4core3ptr13drop_in_place17h54d6103dab737dafE
	jmp	LBB192_2
LBB192_5:
Ltmp169:
	movq	%rax, -16(%rbp)
	movl	%edx, -8(%rbp)
	jmp	LBB192_3
Lfunc_end30:
	.cfi_endproc
	.section	__TEXT,__gcc_except_tab
	.p2align	2
GCC_except_table192:
Lexception30:
	.byte	255
	.byte	255
	.byte	1
	.uleb128 Lcst_end30-Lcst_begin30
Lcst_begin30:
	.uleb128 Ltmp167-Lfunc_begin30
	.uleb128 Ltmp168-Ltmp167
	.uleb128 Ltmp169-Lfunc_begin30
	.byte	0
	.uleb128 Ltmp168-Lfunc_begin30
	.uleb128 Lfunc_end30-Ltmp168
	.byte	0
	.byte	0
Lcst_end30:
	.p2align	2

	.section	__TEXT,__text,regular,pure_instructions
	.p2align	4, 0x90
__ZN4core3ptr13drop_in_place17hd4970bf4632c18fcE:
	.cfi_startproc
	pushq	%rbp
	.cfi_def_cfa_offset 16
	.cfi_offset %rbp, -16
	movq	%rsp, %rbp
	.cfi_def_cfa_register %rbp
	pushq	%rax
	addq	$8, %rsp
	popq	%rbp
	retq
	.cfi_endproc

	.p2align	4, 0x90
__ZN4core3ptr13drop_in_place17hd86fc1c7a543b6d0E:
	.cfi_startproc
	pushq	%rbp
	.cfi_def_cfa_offset 16
	.cfi_offset %rbp, -16
	movq	%rsp, %rbp
	.cfi_def_cfa_register %rbp
	pushq	%rax
	addq	$8, %rsp
	popq	%rbp
	retq
	.cfi_endproc

	.globl	__ZN4core3ptr13drop_in_place17hd9a1c88a0473968fE
	.p2align	4, 0x90
__ZN4core3ptr13drop_in_place17hd9a1c88a0473968fE:
	.cfi_startproc
	pushq	%rbp
	.cfi_def_cfa_offset 16
	.cfi_offset %rbp, -16
	movq	%rsp, %rbp
	.cfi_def_cfa_register %rbp
	subq	$16, %rsp
	callq	__ZN166_$LT$$LT$alloc..collections..btree..map..IntoIter$LT$K$C$V$GT$$u20$as$u20$core..ops..drop..Drop$GT$..drop..DropGuard$LT$K$C$V$GT$$u20$as$u20$core..ops..drop..Drop$GT$4drop17h8b88e3ff4d29b3d5E
	addq	$16, %rsp
	popq	%rbp
	retq
	.cfi_endproc

	.globl	__ZN4core3ptr13drop_in_place17hdb3968087e3e6769E
	.p2align	4, 0x90
__ZN4core3ptr13drop_in_place17hdb3968087e3e6769E:
Lfunc_begin31:
	.cfi_startproc
	.cfi_personality 155, _rust_eh_personality
	.cfi_lsda 16, Lexception31
	pushq	%rbp
	.cfi_def_cfa_offset 16
	.cfi_offset %rbp, -16
	movq	%rsp, %rbp
	.cfi_def_cfa_register %rbp
	subq	$64, %rsp
	xorl	%eax, %eax
	testb	$1, %al
	movq	%rdi, -56(%rbp)
	movq	%rsi, -64(%rbp)
	jne	LBB196_7
	jmp	LBB196_12
LBB196_1:
	addq	$64, %rsp
	popq	%rbp
	retq
LBB196_2:
	movq	-16(%rbp), %rdi
	callq	__Unwind_Resume
	ud2
LBB196_3:
	imulq	$24, -40(%rbp), %rax
	movq	-56(%rbp), %rcx
	addq	%rax, %rcx
	movq	-40(%rbp), %rax
	addq	$1, %rax
	movq	%rax, -40(%rbp)
	movq	%rcx, %rdi
	callq	__ZN4core3ptr13drop_in_place17h3afe773b0b93019dE
LBB196_4:
	movq	-64(%rbp), %rax
	cmpq	%rax, -40(%rbp)
	je	LBB196_2
	jmp	LBB196_3
LBB196_5:
	movq	-40(%rbp), %rax
	leaq	(%rax,%rax,2), %rcx
	movq	-56(%rbp), %rdx
	leaq	(%rdx,%rcx,8), %rdi
	incq	%rax
	movq	%rax, -40(%rbp)
Ltmp173:
	callq	__ZN4core3ptr13drop_in_place17h3afe773b0b93019dE
Ltmp174:
	jmp	LBB196_6
LBB196_6:
	movq	-64(%rbp), %rax
	cmpq	%rax, -40(%rbp)
	je	LBB196_1
	jmp	LBB196_5
LBB196_7:
	movq	$0, -40(%rbp)
	jmp	LBB196_6
LBB196_8:
	movq	-32(%rbp), %rdi
	movq	-32(%rbp), %rax
	addq	$24, %rax
	movq	%rax, -32(%rbp)
	callq	__ZN4core3ptr13drop_in_place17h3afe773b0b93019dE
LBB196_9:
	movq	-32(%rbp), %rax
	cmpq	-24(%rbp), %rax
	je	LBB196_2
	jmp	LBB196_8
LBB196_10:
	movq	-32(%rbp), %rax
	movq	%rax, %rcx
	addq	$24, %rcx
	movq	%rcx, -32(%rbp)
Ltmp170:
	movq	%rax, %rdi
	callq	__ZN4core3ptr13drop_in_place17h3afe773b0b93019dE
Ltmp171:
	jmp	LBB196_11
LBB196_11:
	movq	-32(%rbp), %rax
	cmpq	-24(%rbp), %rax
	je	LBB196_1
	jmp	LBB196_10
LBB196_12:
	movq	-56(%rbp), %rax
	movq	%rax, -32(%rbp)
	movq	-64(%rbp), %rax
	imulq	$24, %rax, %rcx
	addq	-32(%rbp), %rcx
	movq	%rcx, -24(%rbp)
	jmp	LBB196_11
LBB196_13:
Ltmp172:
	movq	%rax, -16(%rbp)
	movl	%edx, -8(%rbp)
	jmp	LBB196_9
LBB196_14:
Ltmp175:
	movq	%rax, -16(%rbp)
	movl	%edx, -8(%rbp)
	jmp	LBB196_4
Lfunc_end31:
	.cfi_endproc
	.section	__TEXT,__gcc_except_tab
	.p2align	2
GCC_except_table196:
Lexception31:
	.byte	255
	.byte	255
	.byte	1
	.uleb128 Lcst_end31-Lcst_begin31
Lcst_begin31:
	.uleb128 Lfunc_begin31-Lfunc_begin31
	.uleb128 Ltmp173-Lfunc_begin31
	.byte	0
	.byte	0
	.uleb128 Ltmp173-Lfunc_begin31
	.uleb128 Ltmp174-Ltmp173
	.uleb128 Ltmp175-Lfunc_begin31
	.byte	0
	.uleb128 Ltmp174-Lfunc_begin31
	.uleb128 Ltmp170-Ltmp174
	.byte	0
	.byte	0
	.uleb128 Ltmp170-Lfunc_begin31
	.uleb128 Ltmp171-Ltmp170
	.uleb128 Ltmp172-Lfunc_begin31
	.byte	0
Lcst_end31:
	.p2align	2

	.section	__TEXT,__text,regular,pure_instructions
	.globl	__ZN4core3ptr13drop_in_place17hde512fd4750f8041E
	.p2align	4, 0x90
__ZN4core3ptr13drop_in_place17hde512fd4750f8041E:
	.cfi_startproc
	pushq	%rbp
	.cfi_def_cfa_offset 16
	.cfi_offset %rbp, -16
	movq	%rsp, %rbp
	.cfi_def_cfa_register %rbp
	subq	$16, %rsp
	callq	__ZN4core3ptr13drop_in_place17h3afe773b0b93019dE
	addq	$16, %rsp
	popq	%rbp
	retq
	.cfi_endproc

	.p2align	4, 0x90
__ZN4core3ptr13drop_in_place17hde63691b59754317E:
	.cfi_startproc
	pushq	%rbp
	.cfi_def_cfa_offset 16
	.cfi_offset %rbp, -16
	movq	%rsp, %rbp
	.cfi_def_cfa_register %rbp
	pushq	%rax
	addq	$8, %rsp
	popq	%rbp
	retq
	.cfi_endproc

	.globl	__ZN4core3ptr13drop_in_place17hdf5db5c6b6677206E
	.p2align	4, 0x90
__ZN4core3ptr13drop_in_place17hdf5db5c6b6677206E:
	.cfi_startproc
	pushq	%rbp
	.cfi_def_cfa_offset 16
	.cfi_offset %rbp, -16
	movq	%rsp, %rbp
	.cfi_def_cfa_register %rbp
	subq	$16, %rsp
	xorl	%eax, %eax
	movl	%eax, %ecx
	cmpq	$0, (%rdi)
	movl	$1, %edx
	cmovbeq	%rcx, %rdx
	cmpq	$0, %rdx
	movq	%rdi, -16(%rbp)
	jne	LBB199_2
LBB199_1:
	addq	$16, %rsp
	popq	%rbp
	retq
LBB199_2:
	movq	-16(%rbp), %rax
	movq	%rax, %rdi
	callq	__ZN4core3ptr13drop_in_place17h3afe773b0b93019dE
	jmp	LBB199_1
	.cfi_endproc

	.globl	__ZN4core3ptr13drop_in_place17he149743e1aa993eeE
	.p2align	4, 0x90
__ZN4core3ptr13drop_in_place17he149743e1aa993eeE:
	.cfi_startproc
	pushq	%rbp
	.cfi_def_cfa_offset 16
	.cfi_offset %rbp, -16
	movq	%rsp, %rbp
	.cfi_def_cfa_register %rbp
	subq	$16, %rsp
	xorl	%eax, %eax
	movl	%eax, %ecx
	cmpq	$0, (%rdi)
	movl	$1, %edx
	cmovbeq	%rcx, %rdx
	cmpq	$0, %rdx
	movq	%rdi, -16(%rbp)
	jne	LBB200_2
LBB200_1:
	addq	$16, %rsp
	popq	%rbp
	retq
LBB200_2:
	movq	-16(%rbp), %rax
	movq	%rax, %rdi
	callq	__ZN4core3ptr13drop_in_place17h034e40f67d36438fE
	jmp	LBB200_1
	.cfi_endproc

	.globl	__ZN4core3ptr13drop_in_place17he19dff5b3435c4a9E
	.p2align	4, 0x90
__ZN4core3ptr13drop_in_place17he19dff5b3435c4a9E:
	.cfi_startproc
	pushq	%rbp
	.cfi_def_cfa_offset 16
	.cfi_offset %rbp, -16
	movq	%rsp, %rbp
	.cfi_def_cfa_register %rbp
	subq	$16, %rsp
	callq	__ZN4core3ptr13drop_in_place17he3f15d672da4be09E
	addq	$16, %rsp
	popq	%rbp
	retq
	.cfi_endproc

	.globl	__ZN4core3ptr13drop_in_place17he2c59a3c18553abcE
	.p2align	4, 0x90
__ZN4core3ptr13drop_in_place17he2c59a3c18553abcE:
	.cfi_startproc
	pushq	%rbp
	.cfi_def_cfa_offset 16
	.cfi_offset %rbp, -16
	movq	%rsp, %rbp
	.cfi_def_cfa_register %rbp
	subq	$16, %rsp
	callq	__ZN4core3ptr13drop_in_place17hfbb85d8fcecb9539E
	addq	$16, %rsp
	popq	%rbp
	retq
	.cfi_endproc

	.globl	__ZN4core3ptr13drop_in_place17he3f15d672da4be09E
	.p2align	4, 0x90
__ZN4core3ptr13drop_in_place17he3f15d672da4be09E:
	.cfi_startproc
	pushq	%rbp
	.cfi_def_cfa_offset 16
	.cfi_offset %rbp, -16
	movq	%rsp, %rbp
	.cfi_def_cfa_register %rbp
	subq	$16, %rsp
	callq	__ZN70_$LT$std..sys..unix..fd..FileDesc$u20$as$u20$core..ops..drop..Drop$GT$4drop17h633394f1cf9da1c8E
	addq	$16, %rsp
	popq	%rbp
	retq
	.cfi_endproc

	.globl	__ZN4core3ptr13drop_in_place17he4901ba7381cd424E
	.p2align	4, 0x90
__ZN4core3ptr13drop_in_place17he4901ba7381cd424E:
Lfunc_begin32:
	.cfi_startproc
	.cfi_personality 155, _rust_eh_personality
	.cfi_lsda 16, Lexception32
	pushq	%rbp
	.cfi_def_cfa_offset 16
	.cfi_offset %rbp, -16
	movq	%rsp, %rbp
	.cfi_def_cfa_register %rbp
	subq	$32, %rsp
Ltmp176:
	movq	%rdi, -32(%rbp)
	callq	__ZN66_$LT$alloc..vec..Vec$LT$T$GT$$u20$as$u20$core..ops..drop..Drop$GT$4drop17h3cc305e95f8ed258E
Ltmp177:
	jmp	LBB204_4
LBB204_1:
	movq	-16(%rbp), %rdi
	callq	__Unwind_Resume
	ud2
LBB204_2:
	addq	$32, %rsp
	popq	%rbp
	retq
LBB204_3:
	movq	-32(%rbp), %rax
	movq	%rax, %rdi
	callq	__ZN4core3ptr13drop_in_place17h766b1c2b2ba97f0cE
	jmp	LBB204_1
LBB204_4:
	movq	-32(%rbp), %rax
	movq	%rax, %rdi
	callq	__ZN4core3ptr13drop_in_place17h766b1c2b2ba97f0cE
	jmp	LBB204_2
LBB204_5:
Ltmp178:
	movq	%rax, -16(%rbp)
	movl	%edx, -8(%rbp)
	jmp	LBB204_3
Lfunc_end32:
	.cfi_endproc
	.section	__TEXT,__gcc_except_tab
	.p2align	2
GCC_except_table204:
Lexception32:
	.byte	255
	.byte	255
	.byte	1
	.uleb128 Lcst_end32-Lcst_begin32
Lcst_begin32:
	.uleb128 Ltmp176-Lfunc_begin32
	.uleb128 Ltmp177-Ltmp176
	.uleb128 Ltmp178-Lfunc_begin32
	.byte	0
	.uleb128 Ltmp177-Lfunc_begin32
	.uleb128 Lfunc_end32-Ltmp177
	.byte	0
	.byte	0
Lcst_end32:
	.p2align	2

	.section	__TEXT,__text,regular,pure_instructions
	.globl	__ZN4core3ptr13drop_in_place17hf20b42bff9b3e47cE
	.p2align	4, 0x90
__ZN4core3ptr13drop_in_place17hf20b42bff9b3e47cE:
	.cfi_startproc
	pushq	%rbp
	.cfi_def_cfa_offset 16
	.cfi_offset %rbp, -16
	movq	%rsp, %rbp
	.cfi_def_cfa_register %rbp
	subq	$16, %rsp
	callq	__ZN4core3ptr13drop_in_place17h1c94706ff70dde8eE
	addq	$16, %rsp
	popq	%rbp
	retq
	.cfi_endproc

	.p2align	4, 0x90
__ZN4core3ptr13drop_in_place17hf24034fbf21f349cE:
	.cfi_startproc
	pushq	%rbp
	.cfi_def_cfa_offset 16
	.cfi_offset %rbp, -16
	movq	%rsp, %rbp
	.cfi_def_cfa_register %rbp
	pushq	%rax
	addq	$8, %rsp
	popq	%rbp
	retq
	.cfi_endproc

	.globl	__ZN4core3ptr13drop_in_place17hf374455a90b87af2E
	.p2align	4, 0x90
__ZN4core3ptr13drop_in_place17hf374455a90b87af2E:
	.cfi_startproc
	pushq	%rbp
	.cfi_def_cfa_offset 16
	.cfi_offset %rbp, -16
	movq	%rsp, %rbp
	.cfi_def_cfa_register %rbp
	subq	$16, %rsp
	xorl	%eax, %eax
	movl	%eax, %ecx
	cmpq	$0, (%rdi)
	movl	$1, %edx
	cmovbeq	%rcx, %rdx
	cmpq	$0, %rdx
	movq	%rdi, -16(%rbp)
	jne	LBB207_2
LBB207_1:
	addq	$16, %rsp
	popq	%rbp
	retq
LBB207_2:
	movq	-16(%rbp), %rax
	movq	%rax, %rdi
	callq	__ZN4core3ptr13drop_in_place17h734ff1051a3d6d2cE
	jmp	LBB207_1
	.cfi_endproc

	.globl	__ZN4core3ptr13drop_in_place17hf40c2675ee619d64E
	.p2align	4, 0x90
__ZN4core3ptr13drop_in_place17hf40c2675ee619d64E:
Lfunc_begin33:
	.cfi_startproc
	.cfi_personality 155, _rust_eh_personality
	.cfi_lsda 16, Lexception33
	pushq	%rbp
	.cfi_def_cfa_offset 16
	.cfi_offset %rbp, -16
	movq	%rsp, %rbp
	.cfi_def_cfa_register %rbp
	subq	$32, %rsp
	movq	(%rdi), %rax
	movq	8(%rdi), %rcx
	movq	(%rcx), %rcx
Ltmp179:
	movq	%rdi, -32(%rbp)
	movq	%rax, %rdi
	callq	*%rcx
Ltmp180:
	jmp	LBB208_3
LBB208_1:
	addq	$32, %rsp
	popq	%rbp
	retq
LBB208_2:
	movq	-16(%rbp), %rdi
	callq	__Unwind_Resume
	ud2
LBB208_3:
	movq	-32(%rbp), %rax
	movq	(%rax), %rdi
	movq	8(%rax), %rsi
	callq	__ZN5alloc5alloc8box_free17ha6083c2edda4369fE
	jmp	LBB208_1
LBB208_4:
	movq	-32(%rbp), %rax
	movq	(%rax), %rdi
	movq	8(%rax), %rsi
	callq	__ZN5alloc5alloc8box_free17ha6083c2edda4369fE
	jmp	LBB208_2
LBB208_5:
Ltmp181:
	movq	%rax, -16(%rbp)
	movl	%edx, -8(%rbp)
	jmp	LBB208_4
Lfunc_end33:
	.cfi_endproc
	.section	__TEXT,__gcc_except_tab
	.p2align	2
GCC_except_table208:
Lexception33:
	.byte	255
	.byte	255
	.byte	1
	.uleb128 Lcst_end33-Lcst_begin33
Lcst_begin33:
	.uleb128 Ltmp179-Lfunc_begin33
	.uleb128 Ltmp180-Ltmp179
	.uleb128 Ltmp181-Lfunc_begin33
	.byte	0
	.uleb128 Ltmp180-Lfunc_begin33
	.uleb128 Lfunc_end33-Ltmp180
	.byte	0
	.byte	0
Lcst_end33:
	.p2align	2

	.section	__TEXT,__text,regular,pure_instructions
	.globl	__ZN4core3ptr13drop_in_place17hf433b5054f291115E
	.p2align	4, 0x90
__ZN4core3ptr13drop_in_place17hf433b5054f291115E:
	.cfi_startproc
	pushq	%rbp
	.cfi_def_cfa_offset 16
	.cfi_offset %rbp, -16
	movq	%rsp, %rbp
	.cfi_def_cfa_register %rbp
	subq	$16, %rsp
	movb	(%rdi), %al
	andb	$1, %al
	movzbl	%al, %ecx
	movl	%ecx, %edx
	cmpq	$0, %rdx
	movq	%rdi, -16(%rbp)
	jne	LBB209_2
LBB209_1:
	addq	$16, %rsp
	popq	%rbp
	retq
LBB209_2:
	movq	-16(%rbp), %rax
	addq	$8, %rax
	movq	%rax, %rdi
	callq	__ZN4core3ptr13drop_in_place17hf20b42bff9b3e47cE
	jmp	LBB209_1
	.cfi_endproc

	.globl	__ZN4core3ptr13drop_in_place17hf4629bc92bb9e572E
	.p2align	4, 0x90
__ZN4core3ptr13drop_in_place17hf4629bc92bb9e572E:
	.cfi_startproc
	pushq	%rbp
	.cfi_def_cfa_offset 16
	.cfi_offset %rbp, -16
	movq	%rsp, %rbp
	.cfi_def_cfa_register %rbp
	subq	$16, %rsp
	xorl	%eax, %eax
	movl	%eax, %ecx
	cmpq	$0, (%rdi)
	movl	$1, %edx
	cmovbeq	%rcx, %rdx
	cmpq	$0, %rdx
	movq	%rdi, -16(%rbp)
	jne	LBB210_2
LBB210_1:
	addq	$16, %rsp
	popq	%rbp
	retq
LBB210_2:
	movq	-16(%rbp), %rax
	movq	%rax, %rdi
	callq	__ZN4core3ptr13drop_in_place17h4fb115f41df4790eE
	jmp	LBB210_1
	.cfi_endproc

	.p2align	4, 0x90
__ZN4core3ptr13drop_in_place17hf60d28aeb7d760a9E:
	.cfi_startproc
	pushq	%rbp
	.cfi_def_cfa_offset 16
	.cfi_offset %rbp, -16
	movq	%rsp, %rbp
	.cfi_def_cfa_register %rbp
	pushq	%rax
	addq	$8, %rsp
	popq	%rbp
	retq
	.cfi_endproc

	.globl	__ZN4core3ptr13drop_in_place17hf68d32cfa4136f7cE
	.p2align	4, 0x90
__ZN4core3ptr13drop_in_place17hf68d32cfa4136f7cE:
	.cfi_startproc
	pushq	%rbp
	.cfi_def_cfa_offset 16
	.cfi_offset %rbp, -16
	movq	%rsp, %rbp
	.cfi_def_cfa_register %rbp
	subq	$16, %rsp
	callq	__ZN4core3ptr13drop_in_place17he19dff5b3435c4a9E
	addq	$16, %rsp
	popq	%rbp
	retq
	.cfi_endproc

	.globl	__ZN4core3ptr13drop_in_place17hfbb85d8fcecb9539E
	.p2align	4, 0x90
__ZN4core3ptr13drop_in_place17hfbb85d8fcecb9539E:
	.cfi_startproc
	pushq	%rbp
	.cfi_def_cfa_offset 16
	.cfi_offset %rbp, -16
	movq	%rsp, %rbp
	.cfi_def_cfa_register %rbp
	subq	$16, %rsp
	callq	__ZN95_$LT$alloc..collections..btree..map..BTreeMap$LT$K$C$V$GT$$u20$as$u20$core..ops..drop..Drop$GT$4drop17hc19b6af4fba1c50dE
	addq	$16, %rsp
	popq	%rbp
	retq
	.cfi_endproc

	.globl	__ZN4core3ptr19swap_nonoverlapping17h484ba2ad150832ceE
	.p2align	4, 0x90
__ZN4core3ptr19swap_nonoverlapping17h484ba2ad150832ceE:
	.cfi_startproc
	pushq	%rbp
	.cfi_def_cfa_offset 16
	.cfi_offset %rbp, -16
	movq	%rsp, %rbp
	.cfi_def_cfa_register %rbp
	subq	$48, %rsp
	movq	$16, -8(%rbp)
	movq	-8(%rbp), %rax
	movq	%rdx, -16(%rbp)
	movq	%rdi, -24(%rbp)
	movq	%rsi, -32(%rbp)
	movq	%rax, -40(%rbp)
	movq	-40(%rbp), %rax
	movq	-16(%rbp), %rcx
	imulq	%rcx, %rax
	movq	-24(%rbp), %rdi
	movq	-32(%rbp), %rsi
	movq	%rax, %rdx
	callq	__ZN4core3ptr25swap_nonoverlapping_bytes17h5682228f108d6666E
	addq	$48, %rsp
	popq	%rbp
	retq
	.cfi_endproc

	.globl	__ZN4core3ptr19swap_nonoverlapping17h58f7b0048b9130bbE
	.p2align	4, 0x90
__ZN4core3ptr19swap_nonoverlapping17h58f7b0048b9130bbE:
	.cfi_startproc
	pushq	%rbp
	.cfi_def_cfa_offset 16
	.cfi_offset %rbp, -16
	movq	%rsp, %rbp
	.cfi_def_cfa_register %rbp
	subq	$48, %rsp
	movq	$8, -8(%rbp)
	movq	-8(%rbp), %rax
	movq	%rdx, -16(%rbp)
	movq	%rdi, -24(%rbp)
	movq	%rsi, -32(%rbp)
	movq	%rax, -40(%rbp)
	movq	-40(%rbp), %rax
	movq	-16(%rbp), %rcx
	imulq	%rcx, %rax
	movq	-24(%rbp), %rdi
	movq	-32(%rbp), %rsi
	movq	%rax, %rdx
	callq	__ZN4core3ptr25swap_nonoverlapping_bytes17h5682228f108d6666E
	addq	$48, %rsp
	popq	%rbp
	retq
	.cfi_endproc

	.globl	__ZN4core3ptr20slice_from_raw_parts17h220a7a25cb6fbe47E
	.p2align	4, 0x90
__ZN4core3ptr20slice_from_raw_parts17h220a7a25cb6fbe47E:
	.cfi_startproc
	pushq	%rbp
	.cfi_def_cfa_offset 16
	.cfi_offset %rbp, -16
	movq	%rsp, %rbp
	.cfi_def_cfa_register %rbp
	subq	$32, %rsp
	movq	%rdi, -16(%rbp)
	movq	%rsi, -8(%rbp)
	movq	-16(%rbp), %rax
	movq	-8(%rbp), %rcx
	movq	%rax, -32(%rbp)
	movq	%rcx, -24(%rbp)
	movq	-32(%rbp), %rax
	movq	-24(%rbp), %rdx
	addq	$32, %rsp
	popq	%rbp
	retq
	.cfi_endproc

	.globl	__ZN4core3ptr20slice_from_raw_parts17h9d841b0526891f45E
	.p2align	4, 0x90
__ZN4core3ptr20slice_from_raw_parts17h9d841b0526891f45E:
	.cfi_startproc
	pushq	%rbp
	.cfi_def_cfa_offset 16
	.cfi_offset %rbp, -16
	movq	%rsp, %rbp
	.cfi_def_cfa_register %rbp
	subq	$32, %rsp
	movq	%rdi, -16(%rbp)
	movq	%rsi, -8(%rbp)
	movq	-16(%rbp), %rax
	movq	-8(%rbp), %rcx
	movq	%rax, -32(%rbp)
	movq	%rcx, -24(%rbp)
	movq	-32(%rbp), %rax
	movq	-24(%rbp), %rdx
	addq	$32, %rsp
	popq	%rbp
	retq
	.cfi_endproc

	.globl	__ZN4core3ptr20slice_from_raw_parts17hc738fad50ef81e1cE
	.p2align	4, 0x90
__ZN4core3ptr20slice_from_raw_parts17hc738fad50ef81e1cE:
	.cfi_startproc
	pushq	%rbp
	.cfi_def_cfa_offset 16
	.cfi_offset %rbp, -16
	movq	%rsp, %rbp
	.cfi_def_cfa_register %rbp
	subq	$32, %rsp
	movq	%rdi, -16(%rbp)
	movq	%rsi, -8(%rbp)
	movq	-16(%rbp), %rax
	movq	-8(%rbp), %rcx
	movq	%rax, -32(%rbp)
	movq	%rcx, -24(%rbp)
	movq	-32(%rbp), %rax
	movq	-24(%rbp), %rdx
	addq	$32, %rsp
	popq	%rbp
	retq
	.cfi_endproc

	.globl	__ZN4core3ptr20slice_from_raw_parts17hdcd0c70cac9b946aE
	.p2align	4, 0x90
__ZN4core3ptr20slice_from_raw_parts17hdcd0c70cac9b946aE:
	.cfi_startproc
	pushq	%rbp
	.cfi_def_cfa_offset 16
	.cfi_offset %rbp, -16
	movq	%rsp, %rbp
	.cfi_def_cfa_register %rbp
	subq	$32, %rsp
	movq	%rdi, -16(%rbp)
	movq	%rsi, -8(%rbp)
	movq	-16(%rbp), %rax
	movq	-8(%rbp), %rcx
	movq	%rax, -32(%rbp)
	movq	%rcx, -24(%rbp)
	movq	-32(%rbp), %rax
	movq	-24(%rbp), %rdx
	addq	$32, %rsp
	popq	%rbp
	retq
	.cfi_endproc

	.globl	__ZN4core3ptr23swap_nonoverlapping_one17h17af36fa752ae87aE
	.p2align	4, 0x90
__ZN4core3ptr23swap_nonoverlapping_one17h17af36fa752ae87aE:
Lfunc_begin34:
	.cfi_startproc
	.cfi_personality 155, _rust_eh_personality
	.cfi_lsda 16, Lexception34
	pushq	%rbp
	.cfi_def_cfa_offset 16
	.cfi_offset %rbp, -16
	movq	%rsp, %rbp
	.cfi_def_cfa_register %rbp
	subq	$80, %rsp
	movb	$0, -25(%rbp)
	movq	$8, -8(%rbp)
	movq	-8(%rbp), %rax
	movq	%rdi, -56(%rbp)
	movq	%rsi, -64(%rbp)
	movq	%rax, -72(%rbp)
	jmp	LBB220_2
LBB220_1:
	movq	-24(%rbp), %rdi
	callq	__Unwind_Resume
	ud2
LBB220_2:
	movq	-72(%rbp), %rax
	cmpq	$32, %rax
	jb	LBB220_4
	movq	-56(%rbp), %rdi
	movq	-64(%rbp), %rsi
	movl	$1, %edx
	callq	__ZN4core3ptr19swap_nonoverlapping17h58f7b0048b9130bbE
	jmp	LBB220_8
LBB220_4:
	movb	$1, -25(%rbp)
	movq	-56(%rbp), %rdi
	callq	__ZN4core3ptr4read17he48020f3242016c6E
	movl	%edx, -36(%rbp)
	movl	%eax, -40(%rbp)
Ltmp182:
	movl	$1, %edx
	movq	-64(%rbp), %rdi
	movq	-56(%rbp), %rsi
	callq	__ZN4core10intrinsics19copy_nonoverlapping17hc98047355ae4ea29E
Ltmp183:
	jmp	LBB220_6
LBB220_6:
	movb	$0, -25(%rbp)
	movl	-40(%rbp), %esi
	movl	-36(%rbp), %edx
Ltmp184:
	movq	-64(%rbp), %rdi
	callq	__ZN4core3ptr5write17hb924dc8bee63ae9fE
Ltmp185:
	jmp	LBB220_7
LBB220_7:
	movb	$0, -25(%rbp)
	jmp	LBB220_9
LBB220_8:
	jmp	LBB220_9
LBB220_9:
	addq	$80, %rsp
	popq	%rbp
	retq
LBB220_10:
	movb	$0, -25(%rbp)
	leaq	-40(%rbp), %rdi
	callq	__ZN4core3ptr13drop_in_place17h77c967c6abcc0a9bE
	jmp	LBB220_1
LBB220_11:
	testb	$1, -25(%rbp)
	jne	LBB220_10
	jmp	LBB220_1
LBB220_12:
Ltmp186:
	movq	%rax, -24(%rbp)
	movl	%edx, -16(%rbp)
	jmp	LBB220_11
Lfunc_end34:
	.cfi_endproc
	.section	__TEXT,__gcc_except_tab
	.p2align	2
GCC_except_table220:
Lexception34:
	.byte	255
	.byte	255
	.byte	1
	.uleb128 Lcst_end34-Lcst_begin34
Lcst_begin34:
	.uleb128 Lfunc_begin34-Lfunc_begin34
	.uleb128 Ltmp182-Lfunc_begin34
	.byte	0
	.byte	0
	.uleb128 Ltmp182-Lfunc_begin34
	.uleb128 Ltmp185-Ltmp182
	.uleb128 Ltmp186-Lfunc_begin34
	.byte	0
	.uleb128 Ltmp185-Lfunc_begin34
	.uleb128 Lfunc_end34-Ltmp185
	.byte	0
	.byte	0
Lcst_end34:
	.p2align	2

	.section	__TEXT,__text,regular,pure_instructions
	.globl	__ZN4core3ptr23swap_nonoverlapping_one17h8e567760be0db330E
	.p2align	4, 0x90
__ZN4core3ptr23swap_nonoverlapping_one17h8e567760be0db330E:
Lfunc_begin35:
	.cfi_startproc
	.cfi_personality 155, _rust_eh_personality
	.cfi_lsda 16, Lexception35
	pushq	%rbp
	.cfi_def_cfa_offset 16
	.cfi_offset %rbp, -16
	movq	%rsp, %rbp
	.cfi_def_cfa_register %rbp
	subq	$80, %rsp
	movb	$0, -25(%rbp)
	movq	$16, -8(%rbp)
	movq	-8(%rbp), %rax
	movq	%rdi, -40(%rbp)
	movq	%rsi, -48(%rbp)
	movq	%rax, -56(%rbp)
	jmp	LBB221_2
LBB221_1:
	movq	-24(%rbp), %rdi
	callq	__Unwind_Resume
	ud2
LBB221_2:
	movq	-56(%rbp), %rax
	cmpq	$32, %rax
	jb	LBB221_4
	movq	-40(%rbp), %rdi
	movq	-48(%rbp), %rsi
	movl	$1, %edx
	callq	__ZN4core3ptr19swap_nonoverlapping17h484ba2ad150832ceE
	jmp	LBB221_8
LBB221_4:
	movb	$1, -25(%rbp)
	movq	-40(%rbp), %rdi
	callq	__ZN4core3ptr4read17h7f2e805f397c0b8bE
	movq	%rax, -64(%rbp)
	movq	%rdx, -72(%rbp)
Ltmp187:
	movl	$1, %edx
	movq	-48(%rbp), %rdi
	movq	-40(%rbp), %rsi
	callq	__ZN4core10intrinsics19copy_nonoverlapping17h6e102c3b6183f6daE
Ltmp188:
	jmp	LBB221_6
LBB221_6:
	movb	$0, -25(%rbp)
Ltmp189:
	movq	-48(%rbp), %rdi
	movq	-64(%rbp), %rsi
	movq	-72(%rbp), %rdx
	callq	__ZN4core3ptr5write17h832da0f326ddb83bE
Ltmp190:
	jmp	LBB221_7
LBB221_7:
	movb	$0, -25(%rbp)
	jmp	LBB221_9
LBB221_8:
	jmp	LBB221_9
LBB221_9:
	addq	$80, %rsp
	popq	%rbp
	retq
LBB221_10:
	movb	$0, -25(%rbp)
	jmp	LBB221_1
LBB221_11:
	testb	$1, -25(%rbp)
	jne	LBB221_10
	jmp	LBB221_1
LBB221_12:
Ltmp191:
	movq	%rax, -24(%rbp)
	movl	%edx, -16(%rbp)
	jmp	LBB221_11
Lfunc_end35:
	.cfi_endproc
	.section	__TEXT,__gcc_except_tab
	.p2align	2
GCC_except_table221:
Lexception35:
	.byte	255
	.byte	255
	.byte	1
	.uleb128 Lcst_end35-Lcst_begin35
Lcst_begin35:
	.uleb128 Lfunc_begin35-Lfunc_begin35
	.uleb128 Ltmp187-Lfunc_begin35
	.byte	0
	.byte	0
	.uleb128 Ltmp187-Lfunc_begin35
	.uleb128 Ltmp190-Ltmp187
	.uleb128 Ltmp191-Lfunc_begin35
	.byte	0
Lcst_end35:
	.p2align	2

	.section	__TEXT,__text,regular,pure_instructions
	.globl	__ZN4core3ptr24slice_from_raw_parts_mut17h03390900eb0af960E
	.p2align	4, 0x90
__ZN4core3ptr24slice_from_raw_parts_mut17h03390900eb0af960E:
	.cfi_startproc
	pushq	%rbp
	.cfi_def_cfa_offset 16
	.cfi_offset %rbp, -16
	movq	%rsp, %rbp
	.cfi_def_cfa_register %rbp
	subq	$32, %rsp
	movq	%rdi, -16(%rbp)
	movq	%rsi, -8(%rbp)
	movq	-16(%rbp), %rax
	movq	-8(%rbp), %rcx
	movq	%rax, -32(%rbp)
	movq	%rcx, -24(%rbp)
	movq	-32(%rbp), %rax
	movq	-24(%rbp), %rdx
	addq	$32, %rsp
	popq	%rbp
	retq
	.cfi_endproc

	.globl	__ZN4core3ptr24slice_from_raw_parts_mut17h1f02caf1601c3c71E
	.p2align	4, 0x90
__ZN4core3ptr24slice_from_raw_parts_mut17h1f02caf1601c3c71E:
	.cfi_startproc
	pushq	%rbp
	.cfi_def_cfa_offset 16
	.cfi_offset %rbp, -16
	movq	%rsp, %rbp
	.cfi_def_cfa_register %rbp
	subq	$32, %rsp
	movq	%rdi, -16(%rbp)
	movq	%rsi, -8(%rbp)
	movq	-16(%rbp), %rax
	movq	-8(%rbp), %rcx
	movq	%rax, -32(%rbp)
	movq	%rcx, -24(%rbp)
	movq	-32(%rbp), %rax
	movq	-24(%rbp), %rdx
	addq	$32, %rsp
	popq	%rbp
	retq
	.cfi_endproc

	.globl	__ZN4core3ptr24slice_from_raw_parts_mut17h21e387ec7375f9a0E
	.p2align	4, 0x90
__ZN4core3ptr24slice_from_raw_parts_mut17h21e387ec7375f9a0E:
	.cfi_startproc
	pushq	%rbp
	.cfi_def_cfa_offset 16
	.cfi_offset %rbp, -16
	movq	%rsp, %rbp
	.cfi_def_cfa_register %rbp
	subq	$32, %rsp
	movq	%rdi, -16(%rbp)
	movq	%rsi, -8(%rbp)
	movq	-16(%rbp), %rax
	movq	-8(%rbp), %rcx
	movq	%rax, -32(%rbp)
	movq	%rcx, -24(%rbp)
	movq	-32(%rbp), %rax
	movq	-24(%rbp), %rdx
	addq	$32, %rsp
	popq	%rbp
	retq
	.cfi_endproc

	.globl	__ZN4core3ptr24slice_from_raw_parts_mut17h3b59b546e8a81caaE
	.p2align	4, 0x90
__ZN4core3ptr24slice_from_raw_parts_mut17h3b59b546e8a81caaE:
	.cfi_startproc
	pushq	%rbp
	.cfi_def_cfa_offset 16
	.cfi_offset %rbp, -16
	movq	%rsp, %rbp
	.cfi_def_cfa_register %rbp
	subq	$32, %rsp
	movq	%rdi, -16(%rbp)
	movq	%rsi, -8(%rbp)
	movq	-16(%rbp), %rax
	movq	-8(%rbp), %rcx
	movq	%rax, -32(%rbp)
	movq	%rcx, -24(%rbp)
	movq	-32(%rbp), %rax
	movq	-24(%rbp), %rdx
	addq	$32, %rsp
	popq	%rbp
	retq
	.cfi_endproc

	.globl	__ZN4core3ptr24slice_from_raw_parts_mut17hb8ca50a5aad5c39bE
	.p2align	4, 0x90
__ZN4core3ptr24slice_from_raw_parts_mut17hb8ca50a5aad5c39bE:
	.cfi_startproc
	pushq	%rbp
	.cfi_def_cfa_offset 16
	.cfi_offset %rbp, -16
	movq	%rsp, %rbp
	.cfi_def_cfa_register %rbp
	subq	$32, %rsp
	movq	%rdi, -16(%rbp)
	movq	%rsi, -8(%rbp)
	movq	-16(%rbp), %rax
	movq	-8(%rbp), %rcx
	movq	%rax, -32(%rbp)
	movq	%rcx, -24(%rbp)
	movq	-32(%rbp), %rax
	movq	-24(%rbp), %rdx
	addq	$32, %rsp
	popq	%rbp
	retq
	.cfi_endproc

	.p2align	4, 0x90
__ZN4core3ptr25swap_nonoverlapping_bytes17h5682228f108d6666E:
	.cfi_startproc
	pushq	%rbp
	.cfi_def_cfa_offset 16
	.cfi_offset %rbp, -16
	movq	%rsp, %rbp
	.cfi_def_cfa_register %rbp
	andq	$-32, %rsp
	subq	$224, %rsp
	movq	$32, 200(%rsp)
	movq	200(%rsp), %rax
	movq	%rdi, 104(%rsp)
	movq	%rsi, 96(%rsp)
	movq	%rdx, 88(%rsp)
	movq	%rax, 80(%rsp)
	movq	$0, 120(%rsp)
LBB227_2:
	movq	80(%rsp), %rax
	addq	120(%rsp), %rax
	movq	88(%rsp), %rcx
	cmpq	%rcx, %rax
	jbe	LBB227_4
	movq	88(%rsp), %rax
	cmpq	%rax, 120(%rsp)
	jb	LBB227_13
	jmp	LBB227_12
LBB227_4:
	jmp	LBB227_6
LBB227_6:
	leaq	128(%rsp), %rax
	movq	120(%rsp), %rsi
	movq	104(%rsp), %rdi
	movq	%rax, 72(%rsp)
	callq	__ZN4core3ptr7mut_ptr31_$LT$impl$u20$$BP$mut$u20$T$GT$3add17hfc409736c3bda690E
	movq	%rax, 64(%rsp)
	movq	120(%rsp), %rsi
	movq	96(%rsp), %rdi
	callq	__ZN4core3ptr7mut_ptr31_$LT$impl$u20$$BP$mut$u20$T$GT$3add17hfc409736c3bda690E
	movq	%rax, 56(%rsp)
	movq	64(%rsp), %rdi
	movq	72(%rsp), %rsi
	movq	80(%rsp), %rdx
	callq	__ZN4core10intrinsics19copy_nonoverlapping17h476c7fb58911cb27E
	movq	56(%rsp), %rdi
	movq	64(%rsp), %rsi
	movq	80(%rsp), %rdx
	callq	__ZN4core10intrinsics19copy_nonoverlapping17h476c7fb58911cb27E
	movq	72(%rsp), %rdi
	movq	56(%rsp), %rsi
	movq	80(%rsp), %rdx
	callq	__ZN4core10intrinsics19copy_nonoverlapping17h476c7fb58911cb27E
	movq	80(%rsp), %rax
	addq	120(%rsp), %rax
	movq	%rax, 120(%rsp)
	jmp	LBB227_2
LBB227_12:
	jmp	LBB227_21
LBB227_13:
	movq	88(%rsp), %rax
	subq	120(%rsp), %rax
	leaq	168(%rsp), %rcx
	movq	%rax, 48(%rsp)
	movq	%rcx, 40(%rsp)
	movq	40(%rsp), %rax
	movq	120(%rsp), %rsi
	movq	104(%rsp), %rdi
	movq	%rax, 32(%rsp)
	callq	__ZN4core3ptr7mut_ptr31_$LT$impl$u20$$BP$mut$u20$T$GT$3add17hfc409736c3bda690E
	movq	%rax, 24(%rsp)
	movq	120(%rsp), %rsi
	movq	96(%rsp), %rdi
	callq	__ZN4core3ptr7mut_ptr31_$LT$impl$u20$$BP$mut$u20$T$GT$3add17hfc409736c3bda690E
	movq	%rax, 16(%rsp)
	movq	24(%rsp), %rdi
	movq	32(%rsp), %rsi
	movq	48(%rsp), %rdx
	callq	__ZN4core10intrinsics19copy_nonoverlapping17h476c7fb58911cb27E
	movq	16(%rsp), %rdi
	movq	24(%rsp), %rsi
	movq	48(%rsp), %rdx
	callq	__ZN4core10intrinsics19copy_nonoverlapping17h476c7fb58911cb27E
	movq	32(%rsp), %rdi
	movq	16(%rsp), %rsi
	movq	48(%rsp), %rdx
	callq	__ZN4core10intrinsics19copy_nonoverlapping17h476c7fb58911cb27E
	jmp	LBB227_21
LBB227_21:
	movq	%rbp, %rsp
	popq	%rbp
	retq
	.cfi_endproc

	.globl	__ZN4core3ptr4read17h2d17fe8916cf5f1eE
	.p2align	4, 0x90
__ZN4core3ptr4read17h2d17fe8916cf5f1eE:
	.cfi_startproc
	pushq	%rbp
	.cfi_def_cfa_offset 16
	.cfi_offset %rbp, -16
	movq	%rsp, %rbp
	.cfi_def_cfa_register %rbp
	subq	$112, %rsp
	movq	%rdi, %rax
	movq	%rsi, -80(%rbp)
	movq	%rdi, -88(%rbp)
	movq	%rax, -96(%rbp)
	leaq	-72(%rbp), %rax
	movq	%rax, -104(%rbp)
	movq	-80(%rbp), %rdi
	movq	-104(%rbp), %rsi
	movl	$1, %edx
	callq	__ZN4core10intrinsics19copy_nonoverlapping17h70ea0519db8bffddE
	movq	-72(%rbp), %rax
	movq	%rax, -48(%rbp)
	movq	-64(%rbp), %rax
	movq	%rax, -40(%rbp)
	movq	-56(%rbp), %rax
	movq	%rax, -32(%rbp)
	movq	-48(%rbp), %rax
	movq	%rax, -24(%rbp)
	movq	-40(%rbp), %rax
	movq	%rax, -16(%rbp)
	movq	-32(%rbp), %rax
	movq	%rax, -8(%rbp)
	movq	-24(%rbp), %rax
	movq	-88(%rbp), %rcx
	movq	%rax, (%rcx)
	movq	-16(%rbp), %rax
	movq	%rax, 8(%rcx)
	movq	-8(%rbp), %rax
	movq	%rax, 16(%rcx)
	movq	-96(%rbp), %rax
	addq	$112, %rsp
	popq	%rbp
	retq
	.cfi_endproc

	.globl	__ZN4core3ptr4read17h2e96a0950142038aE
	.p2align	4, 0x90
__ZN4core3ptr4read17h2e96a0950142038aE:
	.cfi_startproc
	pushq	%rbp
	.cfi_def_cfa_offset 16
	.cfi_offset %rbp, -16
	movq	%rsp, %rbp
	.cfi_def_cfa_register %rbp
	subq	$112, %rsp
	movq	%rdi, %rax
	movq	%rsi, -80(%rbp)
	movq	%rdi, -88(%rbp)
	movq	%rax, -96(%rbp)
	leaq	-72(%rbp), %rax
	movq	%rax, -104(%rbp)
	movq	-80(%rbp), %rdi
	movq	-104(%rbp), %rsi
	movl	$1, %edx
	callq	__ZN4core10intrinsics19copy_nonoverlapping17h3e54dd1337f97515E
	movq	-72(%rbp), %rax
	movq	%rax, -48(%rbp)
	movq	-64(%rbp), %rax
	movq	%rax, -40(%rbp)
	movq	-56(%rbp), %rax
	movq	%rax, -32(%rbp)
	movq	-48(%rbp), %rax
	movq	%rax, -24(%rbp)
	movq	-40(%rbp), %rax
	movq	%rax, -16(%rbp)
	movq	-32(%rbp), %rax
	movq	%rax, -8(%rbp)
	movq	-24(%rbp), %rax
	movq	-88(%rbp), %rcx
	movq	%rax, (%rcx)
	movq	-16(%rbp), %rax
	movq	%rax, 8(%rcx)
	movq	-8(%rbp), %rax
	movq	%rax, 16(%rcx)
	movq	-96(%rbp), %rax
	addq	$112, %rsp
	popq	%rbp
	retq
	.cfi_endproc

	.globl	__ZN4core3ptr4read17h457fe459a7dff38fE
	.p2align	4, 0x90
__ZN4core3ptr4read17h457fe459a7dff38fE:
	.cfi_startproc
	pushq	%rbp
	.cfi_def_cfa_offset 16
	.cfi_offset %rbp, -16
	movq	%rsp, %rbp
	.cfi_def_cfa_register %rbp
	subq	$112, %rsp
	movq	%rdi, %rax
	movq	%rsi, -80(%rbp)
	movq	%rdi, -88(%rbp)
	movq	%rax, -96(%rbp)
	leaq	-72(%rbp), %rax
	movq	%rax, -104(%rbp)
	movq	-80(%rbp), %rdi
	movq	-104(%rbp), %rsi
	movl	$1, %edx
	callq	__ZN4core10intrinsics19copy_nonoverlapping17hc2b084134b882072E
	movq	-72(%rbp), %rax
	movq	%rax, -48(%rbp)
	movq	-64(%rbp), %rax
	movq	%rax, -40(%rbp)
	movq	-56(%rbp), %rax
	movq	%rax, -32(%rbp)
	movq	-48(%rbp), %rax
	movq	%rax, -24(%rbp)
	movq	-40(%rbp), %rax
	movq	%rax, -16(%rbp)
	movq	-32(%rbp), %rax
	movq	%rax, -8(%rbp)
	movq	-24(%rbp), %rax
	movq	-88(%rbp), %rcx
	movq	%rax, (%rcx)
	movq	-16(%rbp), %rax
	movq	%rax, 8(%rcx)
	movq	-8(%rbp), %rax
	movq	%rax, 16(%rcx)
	movq	-96(%rbp), %rax
	addq	$112, %rsp
	popq	%rbp
	retq
	.cfi_endproc

	.globl	__ZN4core3ptr4read17h7f2e805f397c0b8bE
	.p2align	4, 0x90
__ZN4core3ptr4read17h7f2e805f397c0b8bE:
	.cfi_startproc
	pushq	%rbp
	.cfi_def_cfa_offset 16
	.cfi_offset %rbp, -16
	movq	%rsp, %rbp
	.cfi_def_cfa_register %rbp
	subq	$64, %rsp
	movq	-16(%rbp), %rax
	movq	-8(%rbp), %rcx
	movq	%rcx, -24(%rbp)
	movq	%rax, -32(%rbp)
	movq	%rdi, -40(%rbp)
	leaq	-32(%rbp), %rax
	movq	%rax, -48(%rbp)
	movq	-40(%rbp), %rdi
	movq	-48(%rbp), %rsi
	movl	$1, %edx
	callq	__ZN4core10intrinsics19copy_nonoverlapping17h6e102c3b6183f6daE
	movq	-32(%rbp), %rax
	movq	-24(%rbp), %rdx
	movq	%rax, -56(%rbp)
	movq	%rdx, -64(%rbp)
	movq	-56(%rbp), %rax
	movq	-64(%rbp), %rdx
	addq	$64, %rsp
	popq	%rbp
	retq
	.cfi_endproc

	.globl	__ZN4core3ptr4read17h808e343f16fbf266E
	.p2align	4, 0x90
__ZN4core3ptr4read17h808e343f16fbf266E:
	.cfi_startproc
	pushq	%rbp
	.cfi_def_cfa_offset 16
	.cfi_offset %rbp, -16
	movq	%rsp, %rbp
	.cfi_def_cfa_register %rbp
	subq	$112, %rsp
	movq	%rdi, %rax
	movq	%rsi, -80(%rbp)
	movq	%rdi, -88(%rbp)
	movq	%rax, -96(%rbp)
	leaq	-72(%rbp), %rax
	movq	%rax, -104(%rbp)
	movq	-80(%rbp), %rdi
	movq	-104(%rbp), %rsi
	movl	$1, %edx
	callq	__ZN4core10intrinsics19copy_nonoverlapping17hc453868a42ec910dE
	movq	-72(%rbp), %rax
	movq	%rax, -48(%rbp)
	movq	-64(%rbp), %rax
	movq	%rax, -40(%rbp)
	movq	-56(%rbp), %rax
	movq	%rax, -32(%rbp)
	movq	-48(%rbp), %rax
	movq	%rax, -24(%rbp)
	movq	-40(%rbp), %rax
	movq	%rax, -16(%rbp)
	movq	-32(%rbp), %rax
	movq	%rax, -8(%rbp)
	movq	-24(%rbp), %rax
	movq	-88(%rbp), %rcx
	movq	%rax, (%rcx)
	movq	-16(%rbp), %rax
	movq	%rax, 8(%rcx)
	movq	-8(%rbp), %rax
	movq	%rax, 16(%rcx)
	movq	-96(%rbp), %rax
	addq	$112, %rsp
	popq	%rbp
	retq
	.cfi_endproc

	.globl	__ZN4core3ptr4read17hbf5c4e0f780e3321E
	.p2align	4, 0x90
__ZN4core3ptr4read17hbf5c4e0f780e3321E:
	.cfi_startproc
	pushq	%rbp
	.cfi_def_cfa_offset 16
	.cfi_offset %rbp, -16
	movq	%rsp, %rbp
	.cfi_def_cfa_register %rbp
	subq	$128, %rsp
	movq	%rdi, %rax
	movq	%rsi, -104(%rbp)
	movq	%rdi, -112(%rbp)
	movq	%rax, -120(%rbp)
	leaq	-96(%rbp), %rax
	movq	%rax, -128(%rbp)
	movq	-104(%rbp), %rdi
	movq	-128(%rbp), %rsi
	movl	$1, %edx
	callq	__ZN4core10intrinsics19copy_nonoverlapping17h7c086a431ade4368E
	movq	-96(%rbp), %rax
	movq	%rax, -64(%rbp)
	movq	-88(%rbp), %rax
	movq	%rax, -56(%rbp)
	movq	-80(%rbp), %rax
	movq	%rax, -48(%rbp)
	movq	-72(%rbp), %rax
	movq	%rax, -40(%rbp)
	movq	-64(%rbp), %rax
	movq	%rax, -32(%rbp)
	movq	-56(%rbp), %rax
	movq	%rax, -24(%rbp)
	movq	-48(%rbp), %rax
	movq	%rax, -16(%rbp)
	movq	-40(%rbp), %rax
	movq	%rax, -8(%rbp)
	movq	-32(%rbp), %rax
	movq	-112(%rbp), %rcx
	movq	%rax, (%rcx)
	movq	-24(%rbp), %rax
	movq	%rax, 8(%rcx)
	movq	-16(%rbp), %rax
	movq	%rax, 16(%rcx)
	movq	-8(%rbp), %rax
	movq	%rax, 24(%rcx)
	movq	-120(%rbp), %rax
	addq	$128, %rsp
	popq	%rbp
	retq
	.cfi_endproc

	.globl	__ZN4core3ptr4read17hde4f45ed31dc9193E
	.p2align	4, 0x90
__ZN4core3ptr4read17hde4f45ed31dc9193E:
	.cfi_startproc
	pushq	%rbp
	.cfi_def_cfa_offset 16
	.cfi_offset %rbp, -16
	movq	%rsp, %rbp
	.cfi_def_cfa_register %rbp
	subq	$128, %rsp
	movq	%rdi, %rax
	movq	%rsi, -104(%rbp)
	movq	%rdi, -112(%rbp)
	movq	%rax, -120(%rbp)
	leaq	-96(%rbp), %rax
	movq	%rax, -128(%rbp)
	movq	-104(%rbp), %rdi
	movq	-128(%rbp), %rsi
	movl	$1, %edx
	callq	__ZN4core10intrinsics19copy_nonoverlapping17h1c8eaa857ef70d36E
	movq	-96(%rbp), %rax
	movq	%rax, -64(%rbp)
	movq	-88(%rbp), %rax
	movq	%rax, -56(%rbp)
	movq	-80(%rbp), %rax
	movq	%rax, -48(%rbp)
	movq	-72(%rbp), %rax
	movq	%rax, -40(%rbp)
	movq	-64(%rbp), %rax
	movq	%rax, -32(%rbp)
	movq	-56(%rbp), %rax
	movq	%rax, -24(%rbp)
	movq	-48(%rbp), %rax
	movq	%rax, -16(%rbp)
	movq	-40(%rbp), %rax
	movq	%rax, -8(%rbp)
	movq	-32(%rbp), %rax
	movq	-112(%rbp), %rcx
	movq	%rax, (%rcx)
	movq	-24(%rbp), %rax
	movq	%rax, 8(%rcx)
	movq	-16(%rbp), %rax
	movq	%rax, 16(%rcx)
	movq	-8(%rbp), %rax
	movq	%rax, 24(%rcx)
	movq	-120(%rbp), %rax
	addq	$128, %rsp
	popq	%rbp
	retq
	.cfi_endproc

	.globl	__ZN4core3ptr4read17he48020f3242016c6E
	.p2align	4, 0x90
__ZN4core3ptr4read17he48020f3242016c6E:
	.cfi_startproc
	pushq	%rbp
	.cfi_def_cfa_offset 16
	.cfi_offset %rbp, -16
	movq	%rsp, %rbp
	.cfi_def_cfa_register %rbp
	subq	$32, %rsp
	movl	-8(%rbp), %eax
	movl	-4(%rbp), %ecx
	movl	%ecx, -12(%rbp)
	movl	%eax, -16(%rbp)
	movq	%rdi, -24(%rbp)
	jmp	LBB235_2
LBB235_2:
	movq	-24(%rbp), %rdi
	leaq	-16(%rbp), %rsi
	movl	$1, %edx
	callq	__ZN4core10intrinsics19copy_nonoverlapping17hc98047355ae4ea29E
	movl	-16(%rbp), %eax
	movl	-12(%rbp), %edx
	movl	%eax, -28(%rbp)
	movl	%edx, -32(%rbp)
	movl	-28(%rbp), %eax
	movl	-32(%rbp), %edx
	addq	$32, %rsp
	popq	%rbp
	retq
	.cfi_endproc

	.globl	__ZN4core3ptr4read17hef5d9568a0ed5223E
	.p2align	4, 0x90
__ZN4core3ptr4read17hef5d9568a0ed5223E:
	.cfi_startproc
	pushq	%rbp
	.cfi_def_cfa_offset 16
	.cfi_offset %rbp, -16
	movq	%rsp, %rbp
	.cfi_def_cfa_register %rbp
	subq	$112, %rsp
	movq	%rdi, %rax
	movq	%rsi, -80(%rbp)
	movq	%rdi, -88(%rbp)
	movq	%rax, -96(%rbp)
	leaq	-72(%rbp), %rax
	movq	%rax, -104(%rbp)
	movq	-80(%rbp), %rdi
	movq	-104(%rbp), %rsi
	movl	$1, %edx
	callq	__ZN4core10intrinsics19copy_nonoverlapping17hd3f991986b371192E
	movq	-72(%rbp), %rax
	movq	%rax, -48(%rbp)
	movq	-64(%rbp), %rax
	movq	%rax, -40(%rbp)
	movq	-56(%rbp), %rax
	movq	%rax, -32(%rbp)
	movq	-48(%rbp), %rax
	movq	%rax, -24(%rbp)
	movq	-40(%rbp), %rax
	movq	%rax, -16(%rbp)
	movq	-32(%rbp), %rax
	movq	%rax, -8(%rbp)
	movq	-24(%rbp), %rax
	movq	-88(%rbp), %rcx
	movq	%rax, (%rcx)
	movq	-16(%rbp), %rax
	movq	%rax, 8(%rcx)
	movq	-8(%rbp), %rax
	movq	%rax, 16(%rcx)
	movq	-96(%rbp), %rax
	addq	$112, %rsp
	popq	%rbp
	retq
	.cfi_endproc

	.globl	__ZN4core3ptr5write17h3bc761128720ffa1E
	.p2align	4, 0x90
__ZN4core3ptr5write17h3bc761128720ffa1E:
	.cfi_startproc
	pushq	%rbp
	.cfi_def_cfa_offset 16
	.cfi_offset %rbp, -16
	movq	%rsp, %rbp
	.cfi_def_cfa_register %rbp
	pushq	%rax
	movb	%sil, (%rdi)
	addq	$8, %rsp
	popq	%rbp
	retq
	.cfi_endproc

	.globl	__ZN4core3ptr5write17h832da0f326ddb83bE
	.p2align	4, 0x90
__ZN4core3ptr5write17h832da0f326ddb83bE:
	.cfi_startproc
	pushq	%rbp
	.cfi_def_cfa_offset 16
	.cfi_offset %rbp, -16
	movq	%rsp, %rbp
	.cfi_def_cfa_register %rbp
	pushq	%rax
	movq	%rsi, (%rdi)
	movq	%rdx, 8(%rdi)
	addq	$8, %rsp
	popq	%rbp
	retq
	.cfi_endproc

	.globl	__ZN4core3ptr5write17h93dbe2c0bfd8e3beE
	.p2align	4, 0x90
__ZN4core3ptr5write17h93dbe2c0bfd8e3beE:
	.cfi_startproc
	pushq	%rbp
	.cfi_def_cfa_offset 16
	.cfi_offset %rbp, -16
	movq	%rsp, %rbp
	.cfi_def_cfa_register %rbp
	pushq	%rax
	movq	(%rsi), %rax
	movq	%rax, (%rdi)
	movq	8(%rsi), %rax
	movq	%rax, 8(%rdi)
	movq	16(%rsi), %rax
	movq	%rax, 16(%rdi)
	addq	$8, %rsp
	popq	%rbp
	retq
	.cfi_endproc

	.globl	__ZN4core3ptr5write17h982032aeb1258741E
	.p2align	4, 0x90
__ZN4core3ptr5write17h982032aeb1258741E:
	.cfi_startproc
	pushq	%rbp
	.cfi_def_cfa_offset 16
	.cfi_offset %rbp, -16
	movq	%rsp, %rbp
	.cfi_def_cfa_register %rbp
	pushq	%rax
	movq	(%rsi), %rax
	movq	%rax, (%rdi)
	movq	8(%rsi), %rax
	movq	%rax, 8(%rdi)
	movq	16(%rsi), %rax
	movq	%rax, 16(%rdi)
	movq	24(%rsi), %rax
	movq	%rax, 24(%rdi)
	addq	$8, %rsp
	popq	%rbp
	retq
	.cfi_endproc

	.globl	__ZN4core3ptr5write17hb924dc8bee63ae9fE
	.p2align	4, 0x90
__ZN4core3ptr5write17hb924dc8bee63ae9fE:
	.cfi_startproc
	pushq	%rbp
	.cfi_def_cfa_offset 16
	.cfi_offset %rbp, -16
	movq	%rsp, %rbp
	.cfi_def_cfa_register %rbp
	pushq	%rax
	movl	%esi, (%rdi)
	movl	%edx, 4(%rdi)
	addq	$8, %rsp
	popq	%rbp
	retq
	.cfi_endproc

	.globl	__ZN4core3ptr6unique15Unique$LT$T$GT$13new_unchecked17h37080877d8c610d4E
	.p2align	4, 0x90
__ZN4core3ptr6unique15Unique$LT$T$GT$13new_unchecked17h37080877d8c610d4E:
	.cfi_startproc
	pushq	%rbp
	.cfi_def_cfa_offset 16
	.cfi_offset %rbp, -16
	movq	%rsp, %rbp
	.cfi_def_cfa_register %rbp
	subq	$16, %rsp
	movq	%rdi, -16(%rbp)
	movq	-16(%rbp), %rax
	addq	$16, %rsp
	popq	%rbp
	retq
	.cfi_endproc

	.globl	__ZN4core3ptr6unique15Unique$LT$T$GT$13new_unchecked17h6da0668de5be31b4E
	.p2align	4, 0x90
__ZN4core3ptr6unique15Unique$LT$T$GT$13new_unchecked17h6da0668de5be31b4E:
	.cfi_startproc
	pushq	%rbp
	.cfi_def_cfa_offset 16
	.cfi_offset %rbp, -16
	movq	%rsp, %rbp
	.cfi_def_cfa_register %rbp
	subq	$16, %rsp
	movq	%rdi, -16(%rbp)
	movq	-16(%rbp), %rax
	addq	$16, %rsp
	popq	%rbp
	retq
	.cfi_endproc

	.globl	__ZN4core3ptr6unique15Unique$LT$T$GT$4cast17h34f21fc51d3ec21dE
	.p2align	4, 0x90
__ZN4core3ptr6unique15Unique$LT$T$GT$4cast17h34f21fc51d3ec21dE:
	.cfi_startproc
	pushq	%rbp
	.cfi_def_cfa_offset 16
	.cfi_offset %rbp, -16
	movq	%rsp, %rbp
	.cfi_def_cfa_register %rbp
	subq	$16, %rsp
	callq	__ZN4core3ptr6unique15Unique$LT$T$GT$6as_ptr17hbfb463f3d59ac79aE
	movq	%rax, -8(%rbp)
	movq	-8(%rbp), %rdi
	callq	__ZN4core3ptr6unique15Unique$LT$T$GT$13new_unchecked17h6da0668de5be31b4E
	movq	%rax, -16(%rbp)
	movq	-16(%rbp), %rax
	addq	$16, %rsp
	popq	%rbp
	retq
	.cfi_endproc

	.globl	__ZN4core3ptr6unique15Unique$LT$T$GT$4cast17h55abf2291d8a2860E
	.p2align	4, 0x90
__ZN4core3ptr6unique15Unique$LT$T$GT$4cast17h55abf2291d8a2860E:
	.cfi_startproc
	pushq	%rbp
	.cfi_def_cfa_offset 16
	.cfi_offset %rbp, -16
	movq	%rsp, %rbp
	.cfi_def_cfa_register %rbp
	subq	$16, %rsp
	callq	__ZN4core3ptr6unique15Unique$LT$T$GT$6as_ptr17hee5dd8f29a690febE
	movq	%rax, -8(%rbp)
	movq	-8(%rbp), %rax
	movq	%rax, %rdi
	callq	__ZN4core3ptr6unique15Unique$LT$T$GT$13new_unchecked17h6da0668de5be31b4E
	movq	%rax, -16(%rbp)
	movq	-16(%rbp), %rax
	addq	$16, %rsp
	popq	%rbp
	retq
	.cfi_endproc

	.globl	__ZN4core3ptr6unique15Unique$LT$T$GT$4cast17h5df1a7d737120095E
	.p2align	4, 0x90
__ZN4core3ptr6unique15Unique$LT$T$GT$4cast17h5df1a7d737120095E:
	.cfi_startproc
	pushq	%rbp
	.cfi_def_cfa_offset 16
	.cfi_offset %rbp, -16
	movq	%rsp, %rbp
	.cfi_def_cfa_register %rbp
	subq	$16, %rsp
	callq	__ZN4core3ptr6unique15Unique$LT$T$GT$6as_ptr17h4492682eee3ccafbE
	movq	%rax, -8(%rbp)
	movq	-8(%rbp), %rax
	movq	%rax, %rdi
	callq	__ZN4core3ptr6unique15Unique$LT$T$GT$13new_unchecked17h6da0668de5be31b4E
	movq	%rax, -16(%rbp)
	movq	-16(%rbp), %rax
	addq	$16, %rsp
	popq	%rbp
	retq
	.cfi_endproc

	.globl	__ZN4core3ptr6unique15Unique$LT$T$GT$4cast17h630cb65a86738204E
	.p2align	4, 0x90
__ZN4core3ptr6unique15Unique$LT$T$GT$4cast17h630cb65a86738204E:
	.cfi_startproc
	pushq	%rbp
	.cfi_def_cfa_offset 16
	.cfi_offset %rbp, -16
	movq	%rsp, %rbp
	.cfi_def_cfa_register %rbp
	subq	$16, %rsp
	callq	__ZN4core3ptr6unique15Unique$LT$T$GT$6as_ptr17h36a51d7fa2059c0cE
	movq	%rax, -8(%rbp)
	movq	-8(%rbp), %rax
	movq	%rax, %rdi
	callq	__ZN4core3ptr6unique15Unique$LT$T$GT$13new_unchecked17h6da0668de5be31b4E
	movq	%rax, -16(%rbp)
	movq	-16(%rbp), %rax
	addq	$16, %rsp
	popq	%rbp
	retq
	.cfi_endproc

	.globl	__ZN4core3ptr6unique15Unique$LT$T$GT$4cast17h6696610aff60dd7dE
	.p2align	4, 0x90
__ZN4core3ptr6unique15Unique$LT$T$GT$4cast17h6696610aff60dd7dE:
	.cfi_startproc
	pushq	%rbp
	.cfi_def_cfa_offset 16
	.cfi_offset %rbp, -16
	movq	%rsp, %rbp
	.cfi_def_cfa_register %rbp
	subq	$16, %rsp
	callq	__ZN4core3ptr6unique15Unique$LT$T$GT$6as_ptr17he716bce0825c0410E
	movq	%rax, -8(%rbp)
	movq	-8(%rbp), %rax
	movq	%rax, %rdi
	callq	__ZN4core3ptr6unique15Unique$LT$T$GT$13new_unchecked17h6da0668de5be31b4E
	movq	%rax, -16(%rbp)
	movq	-16(%rbp), %rax
	addq	$16, %rsp
	popq	%rbp
	retq
	.cfi_endproc

	.globl	__ZN4core3ptr6unique15Unique$LT$T$GT$4cast17h86a3fc7fb1ccb80bE
	.p2align	4, 0x90
__ZN4core3ptr6unique15Unique$LT$T$GT$4cast17h86a3fc7fb1ccb80bE:
	.cfi_startproc
	pushq	%rbp
	.cfi_def_cfa_offset 16
	.cfi_offset %rbp, -16
	movq	%rsp, %rbp
	.cfi_def_cfa_register %rbp
	subq	$16, %rsp
	callq	__ZN4core3ptr6unique15Unique$LT$T$GT$6as_ptr17h6c29f1169a572defE
	movq	%rax, -8(%rbp)
	movq	-8(%rbp), %rax
	movq	%rax, %rdi
	callq	__ZN4core3ptr6unique15Unique$LT$T$GT$13new_unchecked17h6da0668de5be31b4E
	movq	%rax, -16(%rbp)
	movq	-16(%rbp), %rax
	addq	$16, %rsp
	popq	%rbp
	retq
	.cfi_endproc

	.globl	__ZN4core3ptr6unique15Unique$LT$T$GT$4cast17h9866b359e7d51532E
	.p2align	4, 0x90
__ZN4core3ptr6unique15Unique$LT$T$GT$4cast17h9866b359e7d51532E:
	.cfi_startproc
	pushq	%rbp
	.cfi_def_cfa_offset 16
	.cfi_offset %rbp, -16
	movq	%rsp, %rbp
	.cfi_def_cfa_register %rbp
	subq	$16, %rsp
	callq	__ZN4core3ptr6unique15Unique$LT$T$GT$6as_ptr17h8e99d32906d4918eE
	movq	%rax, -8(%rbp)
	movq	-8(%rbp), %rax
	movq	%rax, %rdi
	callq	__ZN4core3ptr6unique15Unique$LT$T$GT$13new_unchecked17h6da0668de5be31b4E
	movq	%rax, -16(%rbp)
	movq	-16(%rbp), %rax
	addq	$16, %rsp
	popq	%rbp
	retq
	.cfi_endproc

	.globl	__ZN4core3ptr6unique15Unique$LT$T$GT$4cast17h9aa9e6c070486f37E
	.p2align	4, 0x90
__ZN4core3ptr6unique15Unique$LT$T$GT$4cast17h9aa9e6c070486f37E:
	.cfi_startproc
	pushq	%rbp
	.cfi_def_cfa_offset 16
	.cfi_offset %rbp, -16
	movq	%rsp, %rbp
	.cfi_def_cfa_register %rbp
	subq	$16, %rsp
	callq	__ZN4core3ptr6unique15Unique$LT$T$GT$6as_ptr17h970729e96d02d95dE
	movq	%rax, -8(%rbp)
	movq	-8(%rbp), %rax
	movq	%rax, %rdi
	callq	__ZN4core3ptr6unique15Unique$LT$T$GT$13new_unchecked17h6da0668de5be31b4E
	movq	%rax, -16(%rbp)
	movq	-16(%rbp), %rax
	addq	$16, %rsp
	popq	%rbp
	retq
	.cfi_endproc

	.globl	__ZN4core3ptr6unique15Unique$LT$T$GT$4cast17he4f89325866dc998E
	.p2align	4, 0x90
__ZN4core3ptr6unique15Unique$LT$T$GT$4cast17he4f89325866dc998E:
	.cfi_startproc
	pushq	%rbp
	.cfi_def_cfa_offset 16
	.cfi_offset %rbp, -16
	movq	%rsp, %rbp
	.cfi_def_cfa_register %rbp
	subq	$16, %rsp
	callq	__ZN4core3ptr6unique15Unique$LT$T$GT$6as_ptr17h5e829e4c16642c79E
	movq	%rax, -8(%rbp)
	movq	-8(%rbp), %rax
	movq	%rax, %rdi
	callq	__ZN4core3ptr6unique15Unique$LT$T$GT$13new_unchecked17h6da0668de5be31b4E
	movq	%rax, -16(%rbp)
	movq	-16(%rbp), %rax
	addq	$16, %rsp
	popq	%rbp
	retq
	.cfi_endproc

	.globl	__ZN4core3ptr6unique15Unique$LT$T$GT$6as_ptr17h1e1317169feaa176E
	.p2align	4, 0x90
__ZN4core3ptr6unique15Unique$LT$T$GT$6as_ptr17h1e1317169feaa176E:
	.cfi_startproc
	pushq	%rbp
	.cfi_def_cfa_offset 16
	.cfi_offset %rbp, -16
	movq	%rsp, %rbp
	.cfi_def_cfa_register %rbp
	movq	%rdi, %rax
	popq	%rbp
	retq
	.cfi_endproc

	.globl	__ZN4core3ptr6unique15Unique$LT$T$GT$6as_ptr17h36a51d7fa2059c0cE
	.p2align	4, 0x90
__ZN4core3ptr6unique15Unique$LT$T$GT$6as_ptr17h36a51d7fa2059c0cE:
	.cfi_startproc
	pushq	%rbp
	.cfi_def_cfa_offset 16
	.cfi_offset %rbp, -16
	movq	%rsp, %rbp
	.cfi_def_cfa_register %rbp
	movq	%rdi, %rax
	movq	%rsi, %rdx
	popq	%rbp
	retq
	.cfi_endproc

	.globl	__ZN4core3ptr6unique15Unique$LT$T$GT$6as_ptr17h4492682eee3ccafbE
	.p2align	4, 0x90
__ZN4core3ptr6unique15Unique$LT$T$GT$6as_ptr17h4492682eee3ccafbE:
	.cfi_startproc
	pushq	%rbp
	.cfi_def_cfa_offset 16
	.cfi_offset %rbp, -16
	movq	%rsp, %rbp
	.cfi_def_cfa_register %rbp
	movq	%rdi, %rax
	movq	%rsi, %rdx
	popq	%rbp
	retq
	.cfi_endproc

	.globl	__ZN4core3ptr6unique15Unique$LT$T$GT$6as_ptr17h5e829e4c16642c79E
	.p2align	4, 0x90
__ZN4core3ptr6unique15Unique$LT$T$GT$6as_ptr17h5e829e4c16642c79E:
	.cfi_startproc
	pushq	%rbp
	.cfi_def_cfa_offset 16
	.cfi_offset %rbp, -16
	movq	%rsp, %rbp
	.cfi_def_cfa_register %rbp
	movq	%rdi, %rax
	movq	%rsi, %rdx
	popq	%rbp
	retq
	.cfi_endproc

	.globl	__ZN4core3ptr6unique15Unique$LT$T$GT$6as_ptr17h6c29f1169a572defE
	.p2align	4, 0x90
__ZN4core3ptr6unique15Unique$LT$T$GT$6as_ptr17h6c29f1169a572defE:
	.cfi_startproc
	pushq	%rbp
	.cfi_def_cfa_offset 16
	.cfi_offset %rbp, -16
	movq	%rsp, %rbp
	.cfi_def_cfa_register %rbp
	movq	%rdi, %rax
	popq	%rbp
	retq
	.cfi_endproc

	.globl	__ZN4core3ptr6unique15Unique$LT$T$GT$6as_ptr17h8e99d32906d4918eE
	.p2align	4, 0x90
__ZN4core3ptr6unique15Unique$LT$T$GT$6as_ptr17h8e99d32906d4918eE:
	.cfi_startproc
	pushq	%rbp
	.cfi_def_cfa_offset 16
	.cfi_offset %rbp, -16
	movq	%rsp, %rbp
	.cfi_def_cfa_register %rbp
	movq	%rdi, %rax
	popq	%rbp
	retq
	.cfi_endproc

	.globl	__ZN4core3ptr6unique15Unique$LT$T$GT$6as_ptr17h970729e96d02d95dE
	.p2align	4, 0x90
__ZN4core3ptr6unique15Unique$LT$T$GT$6as_ptr17h970729e96d02d95dE:
	.cfi_startproc
	pushq	%rbp
	.cfi_def_cfa_offset 16
	.cfi_offset %rbp, -16
	movq	%rsp, %rbp
	.cfi_def_cfa_register %rbp
	movq	%rdi, %rax
	popq	%rbp
	retq
	.cfi_endproc

	.globl	__ZN4core3ptr6unique15Unique$LT$T$GT$6as_ptr17hbfb463f3d59ac79aE
	.p2align	4, 0x90
__ZN4core3ptr6unique15Unique$LT$T$GT$6as_ptr17hbfb463f3d59ac79aE:
	.cfi_startproc
	pushq	%rbp
	.cfi_def_cfa_offset 16
	.cfi_offset %rbp, -16
	movq	%rsp, %rbp
	.cfi_def_cfa_register %rbp
	movq	%rdi, %rax
	popq	%rbp
	retq
	.cfi_endproc

	.globl	__ZN4core3ptr6unique15Unique$LT$T$GT$6as_ptr17he716bce0825c0410E
	.p2align	4, 0x90
__ZN4core3ptr6unique15Unique$LT$T$GT$6as_ptr17he716bce0825c0410E:
	.cfi_startproc
	pushq	%rbp
	.cfi_def_cfa_offset 16
	.cfi_offset %rbp, -16
	movq	%rsp, %rbp
	.cfi_def_cfa_register %rbp
	movq	%rdi, %rax
	popq	%rbp
	retq
	.cfi_endproc

	.globl	__ZN4core3ptr6unique15Unique$LT$T$GT$6as_ptr17hee5dd8f29a690febE
	.p2align	4, 0x90
__ZN4core3ptr6unique15Unique$LT$T$GT$6as_ptr17hee5dd8f29a690febE:
	.cfi_startproc
	pushq	%rbp
	.cfi_def_cfa_offset 16
	.cfi_offset %rbp, -16
	movq	%rsp, %rbp
	.cfi_def_cfa_register %rbp
	movq	%rdi, %rax
	popq	%rbp
	retq
	.cfi_endproc

	.globl	__ZN4core3ptr6unique15Unique$LT$T$GT$6as_ref17h2bd694b8b235566bE
	.p2align	4, 0x90
__ZN4core3ptr6unique15Unique$LT$T$GT$6as_ref17h2bd694b8b235566bE:
	.cfi_startproc
	pushq	%rbp
	.cfi_def_cfa_offset 16
	.cfi_offset %rbp, -16
	movq	%rsp, %rbp
	.cfi_def_cfa_register %rbp
	subq	$16, %rsp
	movq	(%rdi), %rdi
	callq	__ZN4core3ptr6unique15Unique$LT$T$GT$6as_ptr17hee5dd8f29a690febE
	movq	%rax, -8(%rbp)
	movq	-8(%rbp), %rax
	addq	$16, %rsp
	popq	%rbp
	retq
	.cfi_endproc

	.globl	__ZN4core3ptr6unique15Unique$LT$T$GT$6as_ref17h340ada560192b129E
	.p2align	4, 0x90
__ZN4core3ptr6unique15Unique$LT$T$GT$6as_ref17h340ada560192b129E:
	.cfi_startproc
	pushq	%rbp
	.cfi_def_cfa_offset 16
	.cfi_offset %rbp, -16
	movq	%rsp, %rbp
	.cfi_def_cfa_register %rbp
	subq	$16, %rsp
	movq	(%rdi), %rax
	movq	8(%rdi), %rsi
	movq	%rax, %rdi
	callq	__ZN4core3ptr6unique15Unique$LT$T$GT$6as_ptr17h36a51d7fa2059c0cE
	movq	%rax, -8(%rbp)
	movq	%rdx, -16(%rbp)
	movq	-8(%rbp), %rax
	movq	-16(%rbp), %rdx
	addq	$16, %rsp
	popq	%rbp
	retq
	.cfi_endproc

	.globl	__ZN4core3ptr6unique15Unique$LT$T$GT$6as_ref17he4f0f060502af6baE
	.p2align	4, 0x90
__ZN4core3ptr6unique15Unique$LT$T$GT$6as_ref17he4f0f060502af6baE:
	.cfi_startproc
	pushq	%rbp
	.cfi_def_cfa_offset 16
	.cfi_offset %rbp, -16
	movq	%rsp, %rbp
	.cfi_def_cfa_register %rbp
	subq	$16, %rsp
	movq	(%rdi), %rax
	movq	8(%rdi), %rsi
	movq	%rax, %rdi
	callq	__ZN4core3ptr6unique15Unique$LT$T$GT$6as_ptr17h4492682eee3ccafbE
	movq	%rax, -8(%rbp)
	movq	%rdx, -16(%rbp)
	movq	-8(%rbp), %rax
	movq	-16(%rbp), %rdx
	addq	$16, %rsp
	popq	%rbp
	retq
	.cfi_endproc

	.globl	__ZN4core3ptr6unique15Unique$LT$T$GT$6as_ref17hec5c6540721210d2E
	.p2align	4, 0x90
__ZN4core3ptr6unique15Unique$LT$T$GT$6as_ref17hec5c6540721210d2E:
	.cfi_startproc
	pushq	%rbp
	.cfi_def_cfa_offset 16
	.cfi_offset %rbp, -16
	movq	%rsp, %rbp
	.cfi_def_cfa_register %rbp
	subq	$16, %rsp
	movq	(%rdi), %rax
	movq	8(%rdi), %rsi
	movq	%rax, %rdi
	callq	__ZN4core3ptr6unique15Unique$LT$T$GT$6as_ptr17h5e829e4c16642c79E
	movq	%rax, -8(%rbp)
	movq	%rdx, -16(%rbp)
	movq	-8(%rbp), %rax
	movq	-16(%rbp), %rdx
	addq	$16, %rsp
	popq	%rbp
	retq
	.cfi_endproc

	.globl	__ZN4core3ptr6unique15Unique$LT$T$GT$8dangling17h283e3a4b019ee1caE
	.p2align	4, 0x90
__ZN4core3ptr6unique15Unique$LT$T$GT$8dangling17h283e3a4b019ee1caE:
	.cfi_startproc
	pushq	%rbp
	.cfi_def_cfa_offset 16
	.cfi_offset %rbp, -16
	movq	%rsp, %rbp
	.cfi_def_cfa_register %rbp
	subq	$32, %rsp
	movq	$1, -8(%rbp)
	movq	-8(%rbp), %rdi
	movq	%rdi, -16(%rbp)
	movq	-16(%rbp), %rdi
	callq	__ZN4core3ptr6unique15Unique$LT$T$GT$13new_unchecked17h6da0668de5be31b4E
	movq	%rax, -24(%rbp)
	movq	-24(%rbp), %rax
	addq	$32, %rsp
	popq	%rbp
	retq
	.cfi_endproc

	.globl	__ZN4core3ptr6unique15Unique$LT$T$GT$8dangling17h6f8b6221c4f2f73eE
	.p2align	4, 0x90
__ZN4core3ptr6unique15Unique$LT$T$GT$8dangling17h6f8b6221c4f2f73eE:
	.cfi_startproc
	pushq	%rbp
	.cfi_def_cfa_offset 16
	.cfi_offset %rbp, -16
	movq	%rsp, %rbp
	.cfi_def_cfa_register %rbp
	subq	$32, %rsp
	movq	$8, -8(%rbp)
	movq	-8(%rbp), %rdi
	movq	%rdi, -16(%rbp)
	movq	-16(%rbp), %rdi
	callq	__ZN4core3ptr6unique15Unique$LT$T$GT$13new_unchecked17h37080877d8c610d4E
	movq	%rax, -24(%rbp)
	movq	-24(%rbp), %rax
	addq	$32, %rsp
	popq	%rbp
	retq
	.cfi_endproc

	.globl	__ZN4core3ptr7mut_ptr31_$LT$impl$u20$$BP$mut$u20$T$GT$11write_bytes17hf56cbeba3a710d9fE
	.p2align	4, 0x90
__ZN4core3ptr7mut_ptr31_$LT$impl$u20$$BP$mut$u20$T$GT$11write_bytes17hf56cbeba3a710d9fE:
	.cfi_startproc
	pushq	%rbp
	.cfi_def_cfa_offset 16
	.cfi_offset %rbp, -16
	movq	%rsp, %rbp
	.cfi_def_cfa_register %rbp
	movzbl	%sil, %esi
	callq	__ZN4core10intrinsics11write_bytes17h5e00d06073702d7cE
	popq	%rbp
	retq
	.cfi_endproc

	.globl	__ZN4core3ptr7mut_ptr31_$LT$impl$u20$$BP$mut$u20$T$GT$3add17hbdc786d1a974eb04E
	.p2align	4, 0x90
__ZN4core3ptr7mut_ptr31_$LT$impl$u20$$BP$mut$u20$T$GT$3add17hbdc786d1a974eb04E:
	.cfi_startproc
	pushq	%rbp
	.cfi_def_cfa_offset 16
	.cfi_offset %rbp, -16
	movq	%rsp, %rbp
	.cfi_def_cfa_register %rbp
	subq	$16, %rsp
	callq	__ZN4core3ptr7mut_ptr31_$LT$impl$u20$$BP$mut$u20$T$GT$6offset17h14ae96075ce49801E
	movq	%rax, -8(%rbp)
	movq	-8(%rbp), %rax
	addq	$16, %rsp
	popq	%rbp
	retq
	.cfi_endproc

	.globl	__ZN4core3ptr7mut_ptr31_$LT$impl$u20$$BP$mut$u20$T$GT$3add17hfc409736c3bda690E
	.p2align	4, 0x90
__ZN4core3ptr7mut_ptr31_$LT$impl$u20$$BP$mut$u20$T$GT$3add17hfc409736c3bda690E:
	.cfi_startproc
	pushq	%rbp
	.cfi_def_cfa_offset 16
	.cfi_offset %rbp, -16
	movq	%rsp, %rbp
	.cfi_def_cfa_register %rbp
	subq	$16, %rsp
	callq	__ZN4core3ptr7mut_ptr31_$LT$impl$u20$$BP$mut$u20$T$GT$6offset17h8f21506fa0e9bc7dE
	movq	%rax, -8(%rbp)
	movq	-8(%rbp), %rax
	addq	$16, %rsp
	popq	%rbp
	retq
	.cfi_endproc

	.globl	__ZN4core3ptr7mut_ptr31_$LT$impl$u20$$BP$mut$u20$T$GT$6offset17h14ae96075ce49801E
	.p2align	4, 0x90
__ZN4core3ptr7mut_ptr31_$LT$impl$u20$$BP$mut$u20$T$GT$6offset17h14ae96075ce49801E:
	.cfi_startproc
	pushq	%rbp
	.cfi_def_cfa_offset 16
	.cfi_offset %rbp, -16
	movq	%rsp, %rbp
	.cfi_def_cfa_register %rbp
	subq	$16, %rsp
	imulq	$24, %rsi, %rax
	addq	%rax, %rdi
	movq	%rdi, -8(%rbp)
	movq	-8(%rbp), %rax
	movq	%rax, -16(%rbp)
	movq	-16(%rbp), %rax
	addq	$16, %rsp
	popq	%rbp
	retq
	.cfi_endproc

	.globl	__ZN4core3ptr7mut_ptr31_$LT$impl$u20$$BP$mut$u20$T$GT$6offset17h8f21506fa0e9bc7dE
	.p2align	4, 0x90
__ZN4core3ptr7mut_ptr31_$LT$impl$u20$$BP$mut$u20$T$GT$6offset17h8f21506fa0e9bc7dE:
	.cfi_startproc
	pushq	%rbp
	.cfi_def_cfa_offset 16
	.cfi_offset %rbp, -16
	movq	%rsp, %rbp
	.cfi_def_cfa_register %rbp
	subq	$16, %rsp
	addq	%rsi, %rdi
	movq	%rdi, -8(%rbp)
	movq	-8(%rbp), %rax
	movq	%rax, -16(%rbp)
	movq	-16(%rbp), %rax
	addq	$16, %rsp
	popq	%rbp
	retq
	.cfi_endproc

	.globl	__ZN4core3ptr7mut_ptr31_$LT$impl$u20$$BP$mut$u20$T$GT$6offset17haba2a84f044aa34fE
	.p2align	4, 0x90
__ZN4core3ptr7mut_ptr31_$LT$impl$u20$$BP$mut$u20$T$GT$6offset17haba2a84f044aa34fE:
	.cfi_startproc
	pushq	%rbp
	.cfi_def_cfa_offset 16
	.cfi_offset %rbp, -16
	movq	%rsp, %rbp
	.cfi_def_cfa_register %rbp
	subq	$16, %rsp
	shlq	$4, %rsi
	addq	%rsi, %rdi
	movq	%rdi, -8(%rbp)
	movq	-8(%rbp), %rax
	movq	%rax, -16(%rbp)
	movq	-16(%rbp), %rax
	addq	$16, %rsp
	popq	%rbp
	retq
	.cfi_endproc

	.globl	__ZN4core3ptr7mut_ptr31_$LT$impl$u20$$BP$mut$u20$T$GT$7is_null17h1a5d51b1ee9eb857E
	.p2align	4, 0x90
__ZN4core3ptr7mut_ptr31_$LT$impl$u20$$BP$mut$u20$T$GT$7is_null17h1a5d51b1ee9eb857E:
	.cfi_startproc
	pushq	%rbp
	.cfi_def_cfa_offset 16
	.cfi_offset %rbp, -16
	movq	%rsp, %rbp
	.cfi_def_cfa_register %rbp
	pushq	%rax
	movq	%rdi, -8(%rbp)
	movq	-8(%rbp), %rax
	cmpq	$0, %rax
	sete	%cl
	andb	$1, %cl
	movzbl	%cl, %edx
	movl	%edx, %eax
	addq	$8, %rsp
	popq	%rbp
	retq
	.cfi_endproc

	.globl	__ZN4core3ptr7mut_ptr31_$LT$impl$u20$$BP$mut$u20$T$GT$7is_null17h275dbddac8d8e677E
	.p2align	4, 0x90
__ZN4core3ptr7mut_ptr31_$LT$impl$u20$$BP$mut$u20$T$GT$7is_null17h275dbddac8d8e677E:
	.cfi_startproc
	pushq	%rbp
	.cfi_def_cfa_offset 16
	.cfi_offset %rbp, -16
	movq	%rsp, %rbp
	.cfi_def_cfa_register %rbp
	pushq	%rax
	movq	%rdi, -8(%rbp)
	movq	-8(%rbp), %rax
	cmpq	$0, %rax
	sete	%cl
	andb	$1, %cl
	movzbl	%cl, %edx
	movl	%edx, %eax
	addq	$8, %rsp
	popq	%rbp
	retq
	.cfi_endproc

	.globl	__ZN4core3ptr7mut_ptr31_$LT$impl$u20$$BP$mut$u20$T$GT$7is_null17h358b6fd7ff8c345dE
	.p2align	4, 0x90
__ZN4core3ptr7mut_ptr31_$LT$impl$u20$$BP$mut$u20$T$GT$7is_null17h358b6fd7ff8c345dE:
	.cfi_startproc
	pushq	%rbp
	.cfi_def_cfa_offset 16
	.cfi_offset %rbp, -16
	movq	%rsp, %rbp
	.cfi_def_cfa_register %rbp
	pushq	%rax
	movq	%rdi, -8(%rbp)
	jmp	LBB277_1
LBB277_1:
	movq	-8(%rbp), %rax
	cmpq	$0, %rax
	sete	%cl
	andb	$1, %cl
	movzbl	%cl, %edx
	movl	%edx, %eax
	addq	$8, %rsp
	popq	%rbp
	retq
	.cfi_endproc

	.globl	__ZN4core3ptr7mut_ptr31_$LT$impl$u20$$BP$mut$u20$T$GT$7is_null17h878e18b46b41ec8dE
	.p2align	4, 0x90
__ZN4core3ptr7mut_ptr31_$LT$impl$u20$$BP$mut$u20$T$GT$7is_null17h878e18b46b41ec8dE:
	.cfi_startproc
	pushq	%rbp
	.cfi_def_cfa_offset 16
	.cfi_offset %rbp, -16
	movq	%rsp, %rbp
	.cfi_def_cfa_register %rbp
	pushq	%rax
	movq	%rdi, -8(%rbp)
	movq	-8(%rbp), %rax
	cmpq	$0, %rax
	sete	%cl
	andb	$1, %cl
	movzbl	%cl, %edx
	movl	%edx, %eax
	addq	$8, %rsp
	popq	%rbp
	retq
	.cfi_endproc

	.globl	__ZN4core3ptr7mut_ptr31_$LT$impl$u20$$BP$mut$u20$T$GT$7is_null17haf3ae1b0898859bfE
	.p2align	4, 0x90
__ZN4core3ptr7mut_ptr31_$LT$impl$u20$$BP$mut$u20$T$GT$7is_null17haf3ae1b0898859bfE:
	.cfi_startproc
	pushq	%rbp
	.cfi_def_cfa_offset 16
	.cfi_offset %rbp, -16
	movq	%rsp, %rbp
	.cfi_def_cfa_register %rbp
	pushq	%rax
	movq	%rdi, -8(%rbp)
	movq	-8(%rbp), %rax
	cmpq	$0, %rax
	sete	%cl
	andb	$1, %cl
	movzbl	%cl, %edx
	movl	%edx, %eax
	addq	$8, %rsp
	popq	%rbp
	retq
	.cfi_endproc

	.globl	__ZN4core3ptr7mut_ptr31_$LT$impl$u20$$BP$mut$u20$T$GT$7is_null17hc6253fe1281ab9e6E
	.p2align	4, 0x90
__ZN4core3ptr7mut_ptr31_$LT$impl$u20$$BP$mut$u20$T$GT$7is_null17hc6253fe1281ab9e6E:
	.cfi_startproc
	pushq	%rbp
	.cfi_def_cfa_offset 16
	.cfi_offset %rbp, -16
	movq	%rsp, %rbp
	.cfi_def_cfa_register %rbp
	pushq	%rax
	movq	%rdi, -8(%rbp)
	movq	-8(%rbp), %rax
	cmpq	$0, %rax
	sete	%cl
	andb	$1, %cl
	movzbl	%cl, %edx
	movl	%edx, %eax
	addq	$8, %rsp
	popq	%rbp
	retq
	.cfi_endproc

	.globl	__ZN4core3ptr7mut_ptr31_$LT$impl$u20$$BP$mut$u20$T$GT$7is_null17hec07cf81e0b7a852E
	.p2align	4, 0x90
__ZN4core3ptr7mut_ptr31_$LT$impl$u20$$BP$mut$u20$T$GT$7is_null17hec07cf81e0b7a852E:
	.cfi_startproc
	pushq	%rbp
	.cfi_def_cfa_offset 16
	.cfi_offset %rbp, -16
	movq	%rsp, %rbp
	.cfi_def_cfa_register %rbp
	pushq	%rax
	movq	%rdi, -8(%rbp)
	movq	-8(%rbp), %rax
	cmpq	$0, %rax
	sete	%cl
	andb	$1, %cl
	movzbl	%cl, %edx
	movl	%edx, %eax
	addq	$8, %rsp
	popq	%rbp
	retq
	.cfi_endproc

	.globl	__ZN4core3ptr7mut_ptr41_$LT$impl$u20$$BP$mut$u20$$u5b$T$u5d$$GT$10as_mut_ptr17hc612ae36d56ff138E
	.p2align	4, 0x90
__ZN4core3ptr7mut_ptr41_$LT$impl$u20$$BP$mut$u20$$u5b$T$u5d$$GT$10as_mut_ptr17hc612ae36d56ff138E:
	.cfi_startproc
	pushq	%rbp
	.cfi_def_cfa_offset 16
	.cfi_offset %rbp, -16
	movq	%rsp, %rbp
	.cfi_def_cfa_register %rbp
	movq	%rdi, %rax
	popq	%rbp
	retq
	.cfi_endproc

	.globl	__ZN4core3ptr8non_null16NonNull$LT$T$GT$13new_unchecked17h39b941c52e08059fE
	.p2align	4, 0x90
__ZN4core3ptr8non_null16NonNull$LT$T$GT$13new_unchecked17h39b941c52e08059fE:
	.cfi_startproc
	pushq	%rbp
	.cfi_def_cfa_offset 16
	.cfi_offset %rbp, -16
	movq	%rsp, %rbp
	.cfi_def_cfa_register %rbp
	pushq	%rax
	movq	%rdi, -8(%rbp)
	movq	-8(%rbp), %rax
	addq	$8, %rsp
	popq	%rbp
	retq
	.cfi_endproc

	.globl	__ZN4core3ptr8non_null16NonNull$LT$T$GT$13new_unchecked17h518c6266731d5d2aE
	.p2align	4, 0x90
__ZN4core3ptr8non_null16NonNull$LT$T$GT$13new_unchecked17h518c6266731d5d2aE:
	.cfi_startproc
	pushq	%rbp
	.cfi_def_cfa_offset 16
	.cfi_offset %rbp, -16
	movq	%rsp, %rbp
	.cfi_def_cfa_register %rbp
	pushq	%rax
	movq	%rdi, -8(%rbp)
	movq	-8(%rbp), %rax
	addq	$8, %rsp
	popq	%rbp
	retq
	.cfi_endproc

	.globl	__ZN4core3ptr8non_null16NonNull$LT$T$GT$13new_unchecked17h713c269e83c0d938E
	.p2align	4, 0x90
__ZN4core3ptr8non_null16NonNull$LT$T$GT$13new_unchecked17h713c269e83c0d938E:
	.cfi_startproc
	pushq	%rbp
	.cfi_def_cfa_offset 16
	.cfi_offset %rbp, -16
	movq	%rsp, %rbp
	.cfi_def_cfa_register %rbp
	pushq	%rax
	movq	%rdi, -8(%rbp)
	movq	-8(%rbp), %rax
	addq	$8, %rsp
	popq	%rbp
	retq
	.cfi_endproc

	.globl	__ZN4core3ptr8non_null16NonNull$LT$T$GT$13new_unchecked17hb6bf4a2564ad5e04E
	.p2align	4, 0x90
__ZN4core3ptr8non_null16NonNull$LT$T$GT$13new_unchecked17hb6bf4a2564ad5e04E:
	.cfi_startproc
	pushq	%rbp
	.cfi_def_cfa_offset 16
	.cfi_offset %rbp, -16
	movq	%rsp, %rbp
	.cfi_def_cfa_register %rbp
	pushq	%rax
	movq	%rdi, -8(%rbp)
	movq	-8(%rbp), %rax
	addq	$8, %rsp
	popq	%rbp
	retq
	.cfi_endproc

	.globl	__ZN4core3ptr8non_null16NonNull$LT$T$GT$3new17h265bbc36c0f8aa4aE
	.p2align	4, 0x90
__ZN4core3ptr8non_null16NonNull$LT$T$GT$3new17h265bbc36c0f8aa4aE:
	.cfi_startproc
	pushq	%rbp
	.cfi_def_cfa_offset 16
	.cfi_offset %rbp, -16
	movq	%rsp, %rbp
	.cfi_def_cfa_register %rbp
	subq	$32, %rsp
	movq	%rdi, -16(%rbp)
	callq	__ZN4core3ptr7mut_ptr31_$LT$impl$u20$$BP$mut$u20$T$GT$7is_null17h358b6fd7ff8c345dE
	movb	%al, -17(%rbp)
	movb	-17(%rbp), %al
	xorb	$-1, %al
	testb	$1, %al
	jne	LBB287_3
	movq	$0, -8(%rbp)
	jmp	LBB287_5
LBB287_3:
	movq	-16(%rbp), %rdi
	callq	__ZN4core3ptr8non_null16NonNull$LT$T$GT$13new_unchecked17h713c269e83c0d938E
	movq	%rax, -32(%rbp)
	movq	-32(%rbp), %rax
	movq	%rax, -8(%rbp)
LBB287_5:
	movq	-8(%rbp), %rax
	addq	$32, %rsp
	popq	%rbp
	retq
	.cfi_endproc

	.globl	__ZN4core3ptr8non_null16NonNull$LT$T$GT$3new17hfffbaf13a48f9890E
	.p2align	4, 0x90
__ZN4core3ptr8non_null16NonNull$LT$T$GT$3new17hfffbaf13a48f9890E:
	.cfi_startproc
	pushq	%rbp
	.cfi_def_cfa_offset 16
	.cfi_offset %rbp, -16
	movq	%rsp, %rbp
	.cfi_def_cfa_register %rbp
	subq	$32, %rsp
	movq	%rdi, -16(%rbp)
	callq	__ZN4core3ptr7mut_ptr31_$LT$impl$u20$$BP$mut$u20$T$GT$7is_null17h275dbddac8d8e677E
	movb	%al, -17(%rbp)
	movb	-17(%rbp), %al
	xorb	$-1, %al
	testb	$1, %al
	jne	LBB288_3
	movq	$0, -8(%rbp)
	jmp	LBB288_5
LBB288_3:
	movq	-16(%rbp), %rdi
	callq	__ZN4core3ptr8non_null16NonNull$LT$T$GT$13new_unchecked17h518c6266731d5d2aE
	movq	%rax, -32(%rbp)
	movq	-32(%rbp), %rax
	movq	%rax, -8(%rbp)
LBB288_5:
	movq	-8(%rbp), %rax
	addq	$32, %rsp
	popq	%rbp
	retq
	.cfi_endproc

	.globl	__ZN4core3ptr8non_null16NonNull$LT$T$GT$4cast17h34366c191ea718d0E
	.p2align	4, 0x90
__ZN4core3ptr8non_null16NonNull$LT$T$GT$4cast17h34366c191ea718d0E:
	.cfi_startproc
	pushq	%rbp
	.cfi_def_cfa_offset 16
	.cfi_offset %rbp, -16
	movq	%rsp, %rbp
	.cfi_def_cfa_register %rbp
	subq	$16, %rsp
	callq	__ZN4core3ptr8non_null16NonNull$LT$T$GT$6as_ptr17hbf98dd87e7a3cdc7E
	movq	%rax, -8(%rbp)
	movq	-8(%rbp), %rax
	movq	%rax, %rdi
	callq	__ZN4core3ptr8non_null16NonNull$LT$T$GT$13new_unchecked17h713c269e83c0d938E
	movq	%rax, -16(%rbp)
	movq	-16(%rbp), %rax
	addq	$16, %rsp
	popq	%rbp
	retq
	.cfi_endproc

	.globl	__ZN4core3ptr8non_null16NonNull$LT$T$GT$4cast17hb99520deec1a4a48E
	.p2align	4, 0x90
__ZN4core3ptr8non_null16NonNull$LT$T$GT$4cast17hb99520deec1a4a48E:
	.cfi_startproc
	pushq	%rbp
	.cfi_def_cfa_offset 16
	.cfi_offset %rbp, -16
	movq	%rsp, %rbp
	.cfi_def_cfa_register %rbp
	subq	$16, %rsp
	callq	__ZN4core3ptr8non_null16NonNull$LT$T$GT$6as_ptr17he6853bfc395295c1E
	movq	%rax, -8(%rbp)
	movq	-8(%rbp), %rax
	movq	%rax, %rdi
	callq	__ZN4core3ptr8non_null16NonNull$LT$T$GT$13new_unchecked17h39b941c52e08059fE
	movq	%rax, -16(%rbp)
	movq	-16(%rbp), %rax
	addq	$16, %rsp
	popq	%rbp
	retq
	.cfi_endproc

	.globl	__ZN4core3ptr8non_null16NonNull$LT$T$GT$4cast17hfac7525bcacb9f12E
	.p2align	4, 0x90
__ZN4core3ptr8non_null16NonNull$LT$T$GT$4cast17hfac7525bcacb9f12E:
	.cfi_startproc
	pushq	%rbp
	.cfi_def_cfa_offset 16
	.cfi_offset %rbp, -16
	movq	%rsp, %rbp
	.cfi_def_cfa_register %rbp
	subq	$16, %rsp
	callq	__ZN4core3ptr8non_null16NonNull$LT$T$GT$6as_ptr17he6853bfc395295c1E
	movq	%rax, -8(%rbp)
	movq	-8(%rbp), %rdi
	callq	__ZN4core3ptr8non_null16NonNull$LT$T$GT$13new_unchecked17h713c269e83c0d938E
	movq	%rax, -16(%rbp)
	movq	-16(%rbp), %rax
	addq	$16, %rsp
	popq	%rbp
	retq
	.cfi_endproc

	.globl	__ZN4core3ptr8non_null16NonNull$LT$T$GT$6as_ptr17hb6a9d2cabf2e2f77E
	.p2align	4, 0x90
__ZN4core3ptr8non_null16NonNull$LT$T$GT$6as_ptr17hb6a9d2cabf2e2f77E:
	.cfi_startproc
	pushq	%rbp
	.cfi_def_cfa_offset 16
	.cfi_offset %rbp, -16
	movq	%rsp, %rbp
	.cfi_def_cfa_register %rbp
	movq	%rdi, %rax
	popq	%rbp
	retq
	.cfi_endproc

	.globl	__ZN4core3ptr8non_null16NonNull$LT$T$GT$6as_ptr17hbf98dd87e7a3cdc7E
	.p2align	4, 0x90
__ZN4core3ptr8non_null16NonNull$LT$T$GT$6as_ptr17hbf98dd87e7a3cdc7E:
	.cfi_startproc
	pushq	%rbp
	.cfi_def_cfa_offset 16
	.cfi_offset %rbp, -16
	movq	%rsp, %rbp
	.cfi_def_cfa_register %rbp
	movq	%rdi, %rax
	popq	%rbp
	retq
	.cfi_endproc

	.globl	__ZN4core3ptr8non_null16NonNull$LT$T$GT$6as_ptr17he6853bfc395295c1E
	.p2align	4, 0x90
__ZN4core3ptr8non_null16NonNull$LT$T$GT$6as_ptr17he6853bfc395295c1E:
	.cfi_startproc
	pushq	%rbp
	.cfi_def_cfa_offset 16
	.cfi_offset %rbp, -16
	movq	%rsp, %rbp
	.cfi_def_cfa_register %rbp
	movq	%rdi, %rax
	popq	%rbp
	retq
	.cfi_endproc

	.globl	__ZN4core3ptr8non_null16NonNull$LT$T$GT$6as_ptr17hff4a3b96ef0767f3E
	.p2align	4, 0x90
__ZN4core3ptr8non_null16NonNull$LT$T$GT$6as_ptr17hff4a3b96ef0767f3E:
	.cfi_startproc
	pushq	%rbp
	.cfi_def_cfa_offset 16
	.cfi_offset %rbp, -16
	movq	%rsp, %rbp
	.cfi_def_cfa_register %rbp
	movq	%rdi, %rax
	popq	%rbp
	retq
	.cfi_endproc

	.globl	__ZN4core3ptr8non_null16NonNull$LT$T$GT$6as_ref17hb77fb927d48a4714E
	.p2align	4, 0x90
__ZN4core3ptr8non_null16NonNull$LT$T$GT$6as_ref17hb77fb927d48a4714E:
	.cfi_startproc
	pushq	%rbp
	.cfi_def_cfa_offset 16
	.cfi_offset %rbp, -16
	movq	%rsp, %rbp
	.cfi_def_cfa_register %rbp
	subq	$16, %rsp
	movq	(%rdi), %rdi
	callq	__ZN4core3ptr8non_null16NonNull$LT$T$GT$6as_ptr17hbf98dd87e7a3cdc7E
	movq	%rax, -8(%rbp)
	movq	-8(%rbp), %rax
	addq	$16, %rsp
	popq	%rbp
	retq
	.cfi_endproc

	.globl	__ZN4core3ptr9const_ptr33_$LT$impl$u20$$BP$const$u20$T$GT$12wrapping_add17h1435275ccce37764E
	.p2align	4, 0x90
__ZN4core3ptr9const_ptr33_$LT$impl$u20$$BP$const$u20$T$GT$12wrapping_add17h1435275ccce37764E:
	.cfi_startproc
	pushq	%rbp
	.cfi_def_cfa_offset 16
	.cfi_offset %rbp, -16
	movq	%rsp, %rbp
	.cfi_def_cfa_register %rbp
	subq	$16, %rsp
	callq	__ZN4core3ptr9const_ptr33_$LT$impl$u20$$BP$const$u20$T$GT$15wrapping_offset17h68f61dc904c263ceE
	movq	%rax, -8(%rbp)
	movq	-8(%rbp), %rax
	addq	$16, %rsp
	popq	%rbp
	retq
	.cfi_endproc

	.globl	__ZN4core3ptr9const_ptr33_$LT$impl$u20$$BP$const$u20$T$GT$13guaranteed_eq17h63a7e2370ebfacb0E
	.p2align	4, 0x90
__ZN4core3ptr9const_ptr33_$LT$impl$u20$$BP$const$u20$T$GT$13guaranteed_eq17h63a7e2370ebfacb0E:
	.cfi_startproc
	pushq	%rbp
	.cfi_def_cfa_offset 16
	.cfi_offset %rbp, -16
	movq	%rsp, %rbp
	.cfi_def_cfa_register %rbp
	subq	$2, %rsp
	cmpq	%rsi, %rdi
	sete	%al
	andb	$1, %al
	movb	%al, -1(%rbp)
	movb	-1(%rbp), %al
	movb	%al, -2(%rbp)
	movb	-2(%rbp), %al
	andb	$1, %al
	movzbl	%al, %eax
	addq	$2, %rsp
	popq	%rbp
	retq
	.cfi_endproc

	.globl	__ZN4core3ptr9const_ptr33_$LT$impl$u20$$BP$const$u20$T$GT$15wrapping_offset17h68f61dc904c263ceE
	.p2align	4, 0x90
__ZN4core3ptr9const_ptr33_$LT$impl$u20$$BP$const$u20$T$GT$15wrapping_offset17h68f61dc904c263ceE:
	.cfi_startproc
	pushq	%rbp
	.cfi_def_cfa_offset 16
	.cfi_offset %rbp, -16
	movq	%rsp, %rbp
	.cfi_def_cfa_register %rbp
	subq	$16, %rsp
	addq	%rsi, %rdi
	movq	%rdi, -8(%rbp)
	movq	-8(%rbp), %rax
	movq	%rax, -16(%rbp)
	movq	-16(%rbp), %rax
	addq	$16, %rsp
	popq	%rbp
	retq
	.cfi_endproc

	.globl	__ZN4core3ptr9const_ptr33_$LT$impl$u20$$BP$const$u20$T$GT$3add17h053b3f70b4954f1bE
	.p2align	4, 0x90
__ZN4core3ptr9const_ptr33_$LT$impl$u20$$BP$const$u20$T$GT$3add17h053b3f70b4954f1bE:
	.cfi_startproc
	pushq	%rbp
	.cfi_def_cfa_offset 16
	.cfi_offset %rbp, -16
	movq	%rsp, %rbp
	.cfi_def_cfa_register %rbp
	subq	$16, %rsp
	callq	__ZN4core3ptr9const_ptr33_$LT$impl$u20$$BP$const$u20$T$GT$6offset17he7a1f01a9d86ea82E
	movq	%rax, -8(%rbp)
	movq	-8(%rbp), %rax
	addq	$16, %rsp
	popq	%rbp
	retq
	.cfi_endproc

	.globl	__ZN4core3ptr9const_ptr33_$LT$impl$u20$$BP$const$u20$T$GT$3add17h13686b277bfff626E
	.p2align	4, 0x90
__ZN4core3ptr9const_ptr33_$LT$impl$u20$$BP$const$u20$T$GT$3add17h13686b277bfff626E:
	.cfi_startproc
	pushq	%rbp
	.cfi_def_cfa_offset 16
	.cfi_offset %rbp, -16
	movq	%rsp, %rbp
	.cfi_def_cfa_register %rbp
	subq	$16, %rsp
	callq	__ZN4core3ptr9const_ptr33_$LT$impl$u20$$BP$const$u20$T$GT$6offset17h4a86a54a8e6739b6E
	movq	%rax, -8(%rbp)
	movq	-8(%rbp), %rax
	addq	$16, %rsp
	popq	%rbp
	retq
	.cfi_endproc

	.globl	__ZN4core3ptr9const_ptr33_$LT$impl$u20$$BP$const$u20$T$GT$3add17h15ea3f0be2d18f7cE
	.p2align	4, 0x90
__ZN4core3ptr9const_ptr33_$LT$impl$u20$$BP$const$u20$T$GT$3add17h15ea3f0be2d18f7cE:
	.cfi_startproc
	pushq	%rbp
	.cfi_def_cfa_offset 16
	.cfi_offset %rbp, -16
	movq	%rsp, %rbp
	.cfi_def_cfa_register %rbp
	subq	$16, %rsp
	callq	__ZN4core3ptr9const_ptr33_$LT$impl$u20$$BP$const$u20$T$GT$6offset17h1747252172e1a684E
	movq	%rax, -8(%rbp)
	movq	-8(%rbp), %rax
	addq	$16, %rsp
	popq	%rbp
	retq
	.cfi_endproc

	.globl	__ZN4core3ptr9const_ptr33_$LT$impl$u20$$BP$const$u20$T$GT$3add17h769d7619a95facb8E
	.p2align	4, 0x90
__ZN4core3ptr9const_ptr33_$LT$impl$u20$$BP$const$u20$T$GT$3add17h769d7619a95facb8E:
	.cfi_startproc
	pushq	%rbp
	.cfi_def_cfa_offset 16
	.cfi_offset %rbp, -16
	movq	%rsp, %rbp
	.cfi_def_cfa_register %rbp
	subq	$16, %rsp
	callq	__ZN4core3ptr9const_ptr33_$LT$impl$u20$$BP$const$u20$T$GT$6offset17hed27a0f3e443d60eE
	movq	%rax, -8(%rbp)
	movq	-8(%rbp), %rax
	addq	$16, %rsp
	popq	%rbp
	retq
	.cfi_endproc

	.globl	__ZN4core3ptr9const_ptr33_$LT$impl$u20$$BP$const$u20$T$GT$3add17hb12448ea2dfa6d15E
	.p2align	4, 0x90
__ZN4core3ptr9const_ptr33_$LT$impl$u20$$BP$const$u20$T$GT$3add17hb12448ea2dfa6d15E:
	.cfi_startproc
	pushq	%rbp
	.cfi_def_cfa_offset 16
	.cfi_offset %rbp, -16
	movq	%rsp, %rbp
	.cfi_def_cfa_register %rbp
	subq	$16, %rsp
	callq	__ZN4core3ptr9const_ptr33_$LT$impl$u20$$BP$const$u20$T$GT$6offset17hdec5ba2cfe49140bE
	movq	%rax, -8(%rbp)
	movq	-8(%rbp), %rax
	addq	$16, %rsp
	popq	%rbp
	retq
	.cfi_endproc

	.globl	__ZN4core3ptr9const_ptr33_$LT$impl$u20$$BP$const$u20$T$GT$3add17hf5cd3f66cd2f709bE
	.p2align	4, 0x90
__ZN4core3ptr9const_ptr33_$LT$impl$u20$$BP$const$u20$T$GT$3add17hf5cd3f66cd2f709bE:
	.cfi_startproc
	pushq	%rbp
	.cfi_def_cfa_offset 16
	.cfi_offset %rbp, -16
	movq	%rsp, %rbp
	.cfi_def_cfa_register %rbp
	subq	$16, %rsp
	callq	__ZN4core3ptr9const_ptr33_$LT$impl$u20$$BP$const$u20$T$GT$6offset17hf3d5161e7bd86497E
	movq	%rax, -8(%rbp)
	movq	-8(%rbp), %rax
	addq	$16, %rsp
	popq	%rbp
	retq
	.cfi_endproc

	.globl	__ZN4core3ptr9const_ptr33_$LT$impl$u20$$BP$const$u20$T$GT$6offset17h1747252172e1a684E
	.p2align	4, 0x90
__ZN4core3ptr9const_ptr33_$LT$impl$u20$$BP$const$u20$T$GT$6offset17h1747252172e1a684E:
	.cfi_startproc
	pushq	%rbp
	.cfi_def_cfa_offset 16
	.cfi_offset %rbp, -16
	movq	%rsp, %rbp
	.cfi_def_cfa_register %rbp
	subq	$16, %rsp
	shlq	$3, %rsi
	addq	%rsi, %rdi
	movq	%rdi, -8(%rbp)
	movq	-8(%rbp), %rax
	movq	%rax, -16(%rbp)
	movq	-16(%rbp), %rax
	addq	$16, %rsp
	popq	%rbp
	retq
	.cfi_endproc

	.globl	__ZN4core3ptr9const_ptr33_$LT$impl$u20$$BP$const$u20$T$GT$6offset17h4a86a54a8e6739b6E
	.p2align	4, 0x90
__ZN4core3ptr9const_ptr33_$LT$impl$u20$$BP$const$u20$T$GT$6offset17h4a86a54a8e6739b6E:
	.cfi_startproc
	pushq	%rbp
	.cfi_def_cfa_offset 16
	.cfi_offset %rbp, -16
	movq	%rsp, %rbp
	.cfi_def_cfa_register %rbp
	subq	$16, %rsp
	imulq	$24, %rsi, %rax
	addq	%rax, %rdi
	movq	%rdi, -8(%rbp)
	movq	-8(%rbp), %rax
	movq	%rax, -16(%rbp)
	movq	-16(%rbp), %rax
	addq	$16, %rsp
	popq	%rbp
	retq
	.cfi_endproc

	.globl	__ZN4core3ptr9const_ptr33_$LT$impl$u20$$BP$const$u20$T$GT$6offset17hdec5ba2cfe49140bE
	.p2align	4, 0x90
__ZN4core3ptr9const_ptr33_$LT$impl$u20$$BP$const$u20$T$GT$6offset17hdec5ba2cfe49140bE:
	.cfi_startproc
	pushq	%rbp
	.cfi_def_cfa_offset 16
	.cfi_offset %rbp, -16
	movq	%rsp, %rbp
	.cfi_def_cfa_register %rbp
	subq	$16, %rsp
	imulq	$24, %rsi, %rax
	addq	%rax, %rdi
	movq	%rdi, -8(%rbp)
	movq	-8(%rbp), %rax
	movq	%rax, -16(%rbp)
	movq	-16(%rbp), %rax
	addq	$16, %rsp
	popq	%rbp
	retq
	.cfi_endproc

	.globl	__ZN4core3ptr9const_ptr33_$LT$impl$u20$$BP$const$u20$T$GT$6offset17he7a1f01a9d86ea82E
	.p2align	4, 0x90
__ZN4core3ptr9const_ptr33_$LT$impl$u20$$BP$const$u20$T$GT$6offset17he7a1f01a9d86ea82E:
	.cfi_startproc
	pushq	%rbp
	.cfi_def_cfa_offset 16
	.cfi_offset %rbp, -16
	movq	%rsp, %rbp
	.cfi_def_cfa_register %rbp
	subq	$16, %rsp
	addq	%rsi, %rdi
	movq	%rdi, -8(%rbp)
	movq	-8(%rbp), %rax
	movq	%rax, -16(%rbp)
	movq	-16(%rbp), %rax
	addq	$16, %rsp
	popq	%rbp
	retq
	.cfi_endproc

	.globl	__ZN4core3ptr9const_ptr33_$LT$impl$u20$$BP$const$u20$T$GT$6offset17hed27a0f3e443d60eE
	.p2align	4, 0x90
__ZN4core3ptr9const_ptr33_$LT$impl$u20$$BP$const$u20$T$GT$6offset17hed27a0f3e443d60eE:
	.cfi_startproc
	pushq	%rbp
	.cfi_def_cfa_offset 16
	.cfi_offset %rbp, -16
	movq	%rsp, %rbp
	.cfi_def_cfa_register %rbp
	subq	$16, %rsp
	shlq	$4, %rsi
	addq	%rsi, %rdi
	movq	%rdi, -8(%rbp)
	movq	-8(%rbp), %rax
	movq	%rax, -16(%rbp)
	movq	-16(%rbp), %rax
	addq	$16, %rsp
	popq	%rbp
	retq
	.cfi_endproc

	.globl	__ZN4core3ptr9const_ptr33_$LT$impl$u20$$BP$const$u20$T$GT$6offset17hf3d5161e7bd86497E
	.p2align	4, 0x90
__ZN4core3ptr9const_ptr33_$LT$impl$u20$$BP$const$u20$T$GT$6offset17hf3d5161e7bd86497E:
	.cfi_startproc
	pushq	%rbp
	.cfi_def_cfa_offset 16
	.cfi_offset %rbp, -16
	movq	%rsp, %rbp
	.cfi_def_cfa_register %rbp
	subq	$16, %rsp
	imulq	$24, %rsi, %rax
	addq	%rax, %rdi
	movq	%rdi, -8(%rbp)
	movq	-8(%rbp), %rax
	movq	%rax, -16(%rbp)
	movq	-16(%rbp), %rax
	addq	$16, %rsp
	popq	%rbp
	retq
	.cfi_endproc

	.globl	__ZN4core3ptr9const_ptr33_$LT$impl$u20$$BP$const$u20$T$GT$7is_null17h210f9ecd63b36048E
	.p2align	4, 0x90
__ZN4core3ptr9const_ptr33_$LT$impl$u20$$BP$const$u20$T$GT$7is_null17h210f9ecd63b36048E:
	.cfi_startproc
	pushq	%rbp
	.cfi_def_cfa_offset 16
	.cfi_offset %rbp, -16
	movq	%rsp, %rbp
	.cfi_def_cfa_register %rbp
	pushq	%rax
	movq	%rdi, -8(%rbp)
	movq	-8(%rbp), %rax
	cmpq	$0, %rax
	sete	%cl
	andb	$1, %cl
	movzbl	%cl, %edx
	movl	%edx, %eax
	addq	$8, %rsp
	popq	%rbp
	retq
	.cfi_endproc

	.globl	__ZN4core3ptr9const_ptr33_$LT$impl$u20$$BP$const$u20$T$GT$7is_null17h62aaddefce6c0ea8E
	.p2align	4, 0x90
__ZN4core3ptr9const_ptr33_$LT$impl$u20$$BP$const$u20$T$GT$7is_null17h62aaddefce6c0ea8E:
	.cfi_startproc
	pushq	%rbp
	.cfi_def_cfa_offset 16
	.cfi_offset %rbp, -16
	movq	%rsp, %rbp
	.cfi_def_cfa_register %rbp
	pushq	%rax
	movq	%rdi, -8(%rbp)
	jmp	LBB313_1
LBB313_1:
	movq	-8(%rbp), %rax
	cmpq	$0, %rax
	sete	%cl
	andb	$1, %cl
	movzbl	%cl, %edx
	movl	%edx, %eax
	addq	$8, %rsp
	popq	%rbp
	retq
	.cfi_endproc

	.globl	__ZN4core3ptr9const_ptr33_$LT$impl$u20$$BP$const$u20$T$GT$7is_null17hb8283b8884c4761eE
	.p2align	4, 0x90
__ZN4core3ptr9const_ptr33_$LT$impl$u20$$BP$const$u20$T$GT$7is_null17hb8283b8884c4761eE:
	.cfi_startproc
	pushq	%rbp
	.cfi_def_cfa_offset 16
	.cfi_offset %rbp, -16
	movq	%rsp, %rbp
	.cfi_def_cfa_register %rbp
	pushq	%rax
	movq	%rdi, -8(%rbp)
	movq	-8(%rbp), %rax
	cmpq	$0, %rax
	sete	%cl
	andb	$1, %cl
	movzbl	%cl, %edx
	movl	%edx, %eax
	addq	$8, %rsp
	popq	%rbp
	retq
	.cfi_endproc

	.globl	__ZN4core3ptr9const_ptr43_$LT$impl$u20$$BP$const$u20$$u5b$T$u5d$$GT$3len17h7975436351d9aaeeE
	.p2align	4, 0x90
__ZN4core3ptr9const_ptr43_$LT$impl$u20$$BP$const$u20$$u5b$T$u5d$$GT$3len17h7975436351d9aaeeE:
	.cfi_startproc
	pushq	%rbp
	.cfi_def_cfa_offset 16
	.cfi_offset %rbp, -16
	movq	%rsp, %rbp
	.cfi_def_cfa_register %rbp
	subq	$16, %rsp
	movq	%rdi, -16(%rbp)
	movq	%rsi, -8(%rbp)
	movq	-8(%rbp), %rax
	addq	$16, %rsp
	popq	%rbp
	retq
	.cfi_endproc

	.globl	__ZN4core3ptr9const_ptr43_$LT$impl$u20$$BP$const$u20$$u5b$T$u5d$$GT$6as_ptr17h095c810c2956b774E
	.p2align	4, 0x90
__ZN4core3ptr9const_ptr43_$LT$impl$u20$$BP$const$u20$$u5b$T$u5d$$GT$6as_ptr17h095c810c2956b774E:
	.cfi_startproc
	pushq	%rbp
	.cfi_def_cfa_offset 16
	.cfi_offset %rbp, -16
	movq	%rsp, %rbp
	.cfi_def_cfa_register %rbp
	movq	%rdi, %rax
	popq	%rbp
	retq
	.cfi_endproc

	.globl	__ZN4core3ptr9const_ptr43_$LT$impl$u20$$BP$const$u20$$u5b$T$u5d$$GT$6as_ptr17h4df36e5a530065efE
	.p2align	4, 0x90
__ZN4core3ptr9const_ptr43_$LT$impl$u20$$BP$const$u20$$u5b$T$u5d$$GT$6as_ptr17h4df36e5a530065efE:
	.cfi_startproc
	pushq	%rbp
	.cfi_def_cfa_offset 16
	.cfi_offset %rbp, -16
	movq	%rsp, %rbp
	.cfi_def_cfa_register %rbp
	movq	%rdi, %rax
	popq	%rbp
	retq
	.cfi_endproc

	.globl	__ZN4core3ptr9const_ptr43_$LT$impl$u20$$BP$const$u20$$u5b$T$u5d$$GT$6as_ptr17h63e6bd80f9618cc4E
	.p2align	4, 0x90
__ZN4core3ptr9const_ptr43_$LT$impl$u20$$BP$const$u20$$u5b$T$u5d$$GT$6as_ptr17h63e6bd80f9618cc4E:
	.cfi_startproc
	pushq	%rbp
	.cfi_def_cfa_offset 16
	.cfi_offset %rbp, -16
	movq	%rsp, %rbp
	.cfi_def_cfa_register %rbp
	movq	%rdi, %rax
	popq	%rbp
	retq
	.cfi_endproc

	.globl	__ZN4core3ptr9const_ptr43_$LT$impl$u20$$BP$const$u20$$u5b$T$u5d$$GT$6as_ptr17hc5e3d7626534f392E
	.p2align	4, 0x90
__ZN4core3ptr9const_ptr43_$LT$impl$u20$$BP$const$u20$$u5b$T$u5d$$GT$6as_ptr17hc5e3d7626534f392E:
	.cfi_startproc
	pushq	%rbp
	.cfi_def_cfa_offset 16
	.cfi_offset %rbp, -16
	movq	%rsp, %rbp
	.cfi_def_cfa_register %rbp
	movq	%rdi, %rax
	popq	%rbp
	retq
	.cfi_endproc

	.p2align	4, 0x90
__ZN4core3str11unwrap_or_017h89b13d54260e6228E:
	.cfi_startproc
	pushq	%rbp
	.cfi_def_cfa_offset 16
	.cfi_offset %rbp, -16
	movq	%rsp, %rbp
	.cfi_def_cfa_register %rbp
	subq	$16, %rsp
	movq	%rdi, -16(%rbp)
	movq	-16(%rbp), %rax
	testq	%rax, %rax
	setne	%cl
	movzbl	%cl, %edx
	movl	%edx, %eax
	je	LBB320_1
	jmp	LBB320_5
LBB320_5:
	jmp	LBB320_3
LBB320_1:
	movb	$0, -1(%rbp)
	jmp	LBB320_4
	ud2
LBB320_3:
	movq	-16(%rbp), %rax
	movb	(%rax), %cl
	movb	%cl, -1(%rbp)
LBB320_4:
	movb	-1(%rbp), %al
	addq	$16, %rsp
	popq	%rbp
	retq
	.cfi_endproc

	.globl	__ZN4core3str15next_code_point17h4e3cb37518e44abbE
	.p2align	4, 0x90
__ZN4core3str15next_code_point17h4e3cb37518e44abbE:
	.cfi_startproc
	pushq	%rbp
	.cfi_def_cfa_offset 16
	.cfi_offset %rbp, -16
	movq	%rsp, %rbp
	.cfi_def_cfa_register %rbp
	subq	$112, %rsp
	movq	%rdi, -32(%rbp)
	callq	__ZN85_$LT$core..slice..Iter$LT$T$GT$$u20$as$u20$core..iter..traits..iterator..Iterator$GT$4next17h37da34810ca2e8d6E
	movq	%rax, -40(%rbp)
	movq	-40(%rbp), %rdi
	callq	__ZN69_$LT$core..option..Option$LT$T$GT$$u20$as$u20$core..ops..try..Try$GT$11into_result17h022d3259332b3a81E
	movq	%rax, -16(%rbp)
	movq	-16(%rbp), %rax
	testq	%rax, %rax
	sete	%cl
	movzbl	%cl, %edx
	movl	%edx, %eax
	jne	LBB321_3
	jmp	LBB321_28
LBB321_28:
	jmp	LBB321_5
LBB321_3:
	movq	-16(%rbp), %rax
	movb	(%rax), %cl
	cmpb	$-128, %cl
	movb	%cl, -41(%rbp)
	jb	LBB321_11
	jmp	LBB321_10
	ud2
LBB321_5:
	callq	__ZN50_$LT$T$u20$as$u20$core..convert..From$LT$T$GT$$GT$4from17h06bcc9bf0315c034E
	jmp	LBB321_7
LBB321_6:
	movl	-24(%rbp), %eax
	movl	-20(%rbp), %edx
	addq	$112, %rsp
	popq	%rbp
	retq
LBB321_7:
	callq	__ZN69_$LT$core..option..Option$LT$T$GT$$u20$as$u20$core..ops..try..Try$GT$10from_error17h0fa622168eedeaeeE
	movl	%edx, -20(%rbp)
	movl	%eax, -24(%rbp)
	jmp	LBB321_9
LBB321_9:
	jmp	LBB321_6
LBB321_10:
	movb	-41(%rbp), %al
	movzbl	%al, %edi
	movl	$2, %esi
	callq	__ZN4core3str15utf8_first_byte17ha6e30d99498112c7E
	movl	%eax, -48(%rbp)
	jmp	LBB321_12
LBB321_11:
	movb	-41(%rbp), %al
	movzbl	%al, %ecx
	movl	%ecx, -20(%rbp)
	movl	$1, -24(%rbp)
	jmp	LBB321_9
LBB321_12:
	movq	-32(%rbp), %rdi
	callq	__ZN85_$LT$core..slice..Iter$LT$T$GT$$u20$as$u20$core..iter..traits..iterator..Iterator$GT$4next17h37da34810ca2e8d6E
	movq	%rax, -56(%rbp)
	movq	-56(%rbp), %rdi
	callq	__ZN4core3str11unwrap_or_017h89b13d54260e6228E
	movb	%al, -57(%rbp)
	movl	-48(%rbp), %edi
	movb	-57(%rbp), %al
	movzbl	%al, %esi
	callq	__ZN4core3str18utf8_acc_cont_byte17hcb680d54500e7599E
	movl	%eax, -4(%rbp)
	movb	-41(%rbp), %al
	cmpb	$-32, %al
	jae	LBB321_17
	jmp	LBB321_27
LBB321_17:
	movq	-32(%rbp), %rdi
	callq	__ZN85_$LT$core..slice..Iter$LT$T$GT$$u20$as$u20$core..iter..traits..iterator..Iterator$GT$4next17h37da34810ca2e8d6E
	movq	%rax, -72(%rbp)
	movq	-72(%rbp), %rdi
	callq	__ZN4core3str11unwrap_or_017h89b13d54260e6228E
	movb	%al, -73(%rbp)
	movb	-57(%rbp), %al
	andb	$63, %al
	movzbl	%al, %edi
	movb	-73(%rbp), %al
	movzbl	%al, %esi
	callq	__ZN4core3str18utf8_acc_cont_byte17hcb680d54500e7599E
	movl	%eax, -80(%rbp)
	movl	-48(%rbp), %eax
	shll	$12, %eax
	movl	-80(%rbp), %ecx
	orl	%ecx, %eax
	movl	%eax, -4(%rbp)
	movb	-41(%rbp), %dl
	cmpb	$-16, %dl
	jae	LBB321_22
	jmp	LBB321_26
LBB321_22:
	movq	-32(%rbp), %rdi
	callq	__ZN85_$LT$core..slice..Iter$LT$T$GT$$u20$as$u20$core..iter..traits..iterator..Iterator$GT$4next17h37da34810ca2e8d6E
	movq	%rax, -88(%rbp)
	movq	-88(%rbp), %rdi
	callq	__ZN4core3str11unwrap_or_017h89b13d54260e6228E
	movb	%al, -89(%rbp)
	movl	-48(%rbp), %eax
	andl	$7, %eax
	shll	$18, %eax
	movl	-80(%rbp), %edi
	movb	-89(%rbp), %cl
	movzbl	%cl, %esi
	movl	%eax, -96(%rbp)
	callq	__ZN4core3str18utf8_acc_cont_byte17hcb680d54500e7599E
	movl	%eax, -100(%rbp)
	movl	-96(%rbp), %eax
	movl	-100(%rbp), %ecx
	orl	%ecx, %eax
	movl	%eax, -4(%rbp)
LBB321_26:
	jmp	LBB321_27
LBB321_27:
	movl	-4(%rbp), %eax
	movl	%eax, -20(%rbp)
	movl	$1, -24(%rbp)
	jmp	LBB321_6
	.cfi_endproc

	.p2align	4, 0x90
__ZN4core3str15utf8_first_byte17ha6e30d99498112c7E:
	.cfi_startproc
	pushq	%rbp
	.cfi_def_cfa_offset 16
	.cfi_offset %rbp, -16
	movq	%rsp, %rbp
	.cfi_def_cfa_register %rbp
	andb	$7, %sil
	movb	%sil, %cl
	movb	$127, %al
	shrb	%cl, %al
	andb	%al, %dil
	movzbl	%dil, %eax
	popq	%rbp
	retq
	.cfi_endproc

	.p2align	4, 0x90
__ZN4core3str18utf8_acc_cont_byte17hcb680d54500e7599E:
	.cfi_startproc
	pushq	%rbp
	.cfi_def_cfa_offset 16
	.cfi_offset %rbp, -16
	movq	%rsp, %rbp
	.cfi_def_cfa_register %rbp
	shll	$6, %edi
	andb	$63, %sil
	movzbl	%sil, %eax
	orl	%eax, %edi
	movl	%edi, %eax
	popq	%rbp
	retq
	.cfi_endproc

	.p2align	4, 0x90
__ZN4core3str19from_utf8_unchecked17h116c0700203ebfc2E:
	.cfi_startproc
	pushq	%rbp
	.cfi_def_cfa_offset 16
	.cfi_offset %rbp, -16
	movq	%rsp, %rbp
	.cfi_def_cfa_register %rbp
	movq	%rdi, %rax
	movq	%rsi, %rdx
	popq	%rbp
	retq
	.cfi_endproc

	.globl	__ZN4core3str21_$LT$impl$u20$str$GT$11starts_with17h70c6afa19d2546feE
	.p2align	4, 0x90
__ZN4core3str21_$LT$impl$u20$str$GT$11starts_with17h70c6afa19d2546feE:
	.cfi_startproc
	pushq	%rbp
	.cfi_def_cfa_offset 16
	.cfi_offset %rbp, -16
	movq	%rsp, %rbp
	.cfi_def_cfa_register %rbp
	subq	$32, %rsp
	movq	%rdi, -8(%rbp)
	movq	%rdx, %rdi
	movq	%rsi, -16(%rbp)
	movq	%rcx, %rsi
	movq	-8(%rbp), %rdx
	movq	-16(%rbp), %rcx
	callq	__ZN55_$LT$$RF$str$u20$as$u20$core..str..pattern..Pattern$GT$12is_prefix_of17h7b7b4e786b143811E
	movb	%al, -17(%rbp)
	movb	-17(%rbp), %al
	andb	$1, %al
	movzbl	%al, %eax
	addq	$32, %rsp
	popq	%rbp
	retq
	.cfi_endproc

	.globl	__ZN4core3str21_$LT$impl$u20$str$GT$13get_unchecked17hb184e39f4a61051bE
	.p2align	4, 0x90
__ZN4core3str21_$LT$impl$u20$str$GT$13get_unchecked17hb184e39f4a61051bE:
	.cfi_startproc
	pushq	%rbp
	.cfi_def_cfa_offset 16
	.cfi_offset %rbp, -16
	movq	%rsp, %rbp
	.cfi_def_cfa_register %rbp
	subq	$32, %rsp
	movq	%rdi, -8(%rbp)
	movq	%rdx, %rdi
	movq	%rsi, -16(%rbp)
	movq	%rcx, %rsi
	movq	-8(%rbp), %rdx
	movq	-16(%rbp), %rcx
	callq	__ZN4core3str6traits101_$LT$impl$u20$core..slice..SliceIndex$LT$str$GT$$u20$for$u20$core..ops..range..Range$LT$usize$GT$$GT$13get_unchecked17hd1274adc32d7acd2E
	movq	%rax, -24(%rbp)
	movq	%rdx, -32(%rbp)
	movq	-24(%rbp), %rax
	movq	-32(%rbp), %rdx
	addq	$32, %rsp
	popq	%rbp
	retq
	.cfi_endproc

	.p2align	4, 0x90
__ZN4core3str21_$LT$impl$u20$str$GT$16is_char_boundary17h5ba01331e6e63f34E:
	.cfi_startproc
	pushq	%rbp
	.cfi_def_cfa_offset 16
	.cfi_offset %rbp, -16
	movq	%rsp, %rbp
	.cfi_def_cfa_register %rbp
	subq	$80, %rsp
	cmpq	$0, %rdx
	movq	%rdi, -40(%rbp)
	movq	%rsi, -48(%rbp)
	movq	%rdx, -56(%rbp)
	jne	LBB327_3
LBB327_1:
	movb	$1, -25(%rbp)
	jmp	LBB327_4
LBB327_2:
	movb	$0, -25(%rbp)
	jmp	LBB327_4
LBB327_3:
	movq	-40(%rbp), %rdi
	movq	-48(%rbp), %rsi
	callq	__ZN4core3str21_$LT$impl$u20$str$GT$3len17hd0559c8525ffe45aE
	movq	%rax, -64(%rbp)
	jmp	LBB327_5
LBB327_4:
	testb	$1, -25(%rbp)
	jne	LBB327_7
	jmp	LBB327_6
LBB327_5:
	movq	-56(%rbp), %rax
	movq	-64(%rbp), %rcx
	cmpq	%rcx, %rax
	je	LBB327_1
	jmp	LBB327_2
LBB327_6:
	movq	-40(%rbp), %rax
	movq	%rax, -16(%rbp)
	movq	-48(%rbp), %rcx
	movq	%rcx, -8(%rbp)
	movq	-16(%rbp), %rdi
	movq	-8(%rbp), %rsi
	movq	%rdi, -72(%rbp)
	movq	%rsi, -80(%rbp)
	jmp	LBB327_9
LBB327_7:
	movb	$1, -26(%rbp)
LBB327_8:
	movb	-26(%rbp), %al
	andb	$1, %al
	movzbl	%al, %eax
	addq	$80, %rsp
	popq	%rbp
	retq
LBB327_9:
	movq	-72(%rbp), %rdi
	movq	-80(%rbp), %rsi
	movq	-56(%rbp), %rdx
	callq	__ZN4core5slice29_$LT$impl$u20$$u5b$T$u5d$$GT$3get17h14e27d1562ba9cadE
	movq	%rax, -24(%rbp)
	movq	-24(%rbp), %rax
	testq	%rax, %rax
	setne	%cl
	movzbl	%cl, %edx
	movl	%edx, %eax
	je	LBB327_13
	jmp	LBB327_15
LBB327_15:
	movq	-24(%rbp), %rax
	cmpb	$-64, (%rax)
	setge	%cl
	andb	$1, %cl
	movb	%cl, -26(%rbp)
	jmp	LBB327_14
	ud2
LBB327_13:
	movb	$0, -26(%rbp)
LBB327_14:
	jmp	LBB327_8
	.cfi_endproc

	.globl	__ZN4core3str21_$LT$impl$u20$str$GT$16split_terminator17h59f09bab059f9ee9E
	.p2align	4, 0x90
__ZN4core3str21_$LT$impl$u20$str$GT$16split_terminator17h59f09bab059f9ee9E:
	.cfi_startproc
	pushq	%rbp
	.cfi_def_cfa_offset 16
	.cfi_offset %rbp, -16
	movq	%rsp, %rbp
	.cfi_def_cfa_register %rbp
	subq	$176, %rsp
	movq	%rdi, %rax
	leaq	-72(%rbp), %r8
	movq	%rdi, -152(%rbp)
	movq	%r8, %rdi
	movq	%rax, -160(%rbp)
	callq	__ZN4core3str21_$LT$impl$u20$str$GT$5split17h43ad874ede69dfffE
	movq	-72(%rbp), %rax
	movq	%rax, -144(%rbp)
	movq	-64(%rbp), %rax
	movq	%rax, -136(%rbp)
	leaq	-144(%rbp), %rax
	movq	%rax, %rcx
	addq	$16, %rcx
	leaq	-72(%rbp), %rdx
	addq	$16, %rdx
	movq	%rcx, %rdi
	movq	%rdx, %rsi
	movl	$48, %edx
	movq	%rax, -168(%rbp)
	callq	_memcpy
	movb	$0, -80(%rbp)
	movb	-7(%rbp), %r8b
	andb	$1, %r8b
	movb	%r8b, -79(%rbp)
	movq	-152(%rbp), %rax
	movq	-168(%rbp), %rcx
	movq	%rax, %rdi
	movq	%rcx, %rsi
	movl	$72, %edx
	callq	_memcpy
	movq	-160(%rbp), %rax
	addq	$176, %rsp
	popq	%rbp
	retq
	.cfi_endproc

	.p2align	4, 0x90
__ZN4core3str21_$LT$impl$u20$str$GT$3len17hd0559c8525ffe45aE:
	.cfi_startproc
	pushq	%rbp
	.cfi_def_cfa_offset 16
	.cfi_offset %rbp, -16
	movq	%rsp, %rbp
	.cfi_def_cfa_register %rbp
	subq	$48, %rsp
	movq	%rdi, -16(%rbp)
	movq	%rsi, -8(%rbp)
	movq	-16(%rbp), %rdi
	movq	-8(%rbp), %rsi
	movq	%rdi, -24(%rbp)
	movq	%rsi, -32(%rbp)
	movq	-24(%rbp), %rdi
	movq	-32(%rbp), %rsi
	callq	__ZN4core5slice29_$LT$impl$u20$$u5b$T$u5d$$GT$3len17h1041e332438f20aaE
	movq	%rax, -40(%rbp)
	movq	-40(%rbp), %rax
	addq	$48, %rsp
	popq	%rbp
	retq
	.cfi_endproc

	.globl	__ZN4core3str21_$LT$impl$u20$str$GT$4find17hd35c4c8100bee82aE
	.p2align	4, 0x90
__ZN4core3str21_$LT$impl$u20$str$GT$4find17hd35c4c8100bee82aE:
Lfunc_begin36:
	.cfi_startproc
	.cfi_personality 155, _rust_eh_personality
	.cfi_lsda 16, Lexception36
	pushq	%rbp
	.cfi_def_cfa_offset 16
	.cfi_offset %rbp, -16
	movq	%rsp, %rbp
	.cfi_def_cfa_register %rbp
	subq	$128, %rsp
	leaq	-72(%rbp), %rax
	movq	%rdi, -104(%rbp)
	movq	%rax, %rdi
	movq	%rsi, -112(%rbp)
	movl	%edx, %esi
	movq	-104(%rbp), %rdx
	movq	-112(%rbp), %rcx
	callq	__ZN52_$LT$char$u20$as$u20$core..str..pattern..Pattern$GT$13into_searcher17hb677ba9ca955ddaeE
	jmp	LBB330_2
LBB330_1:
	movq	-16(%rbp), %rdi
	callq	__Unwind_Resume
	ud2
LBB330_2:
Ltmp192:
	leaq	-96(%rbp), %rdi
	leaq	-72(%rbp), %rsi
	callq	__ZN81_$LT$core..str..pattern..CharSearcher$u20$as$u20$core..str..pattern..Searcher$GT$10next_match17h807f47e410491971E
Ltmp193:
	jmp	LBB330_4
LBB330_3:
	jmp	LBB330_1
LBB330_4:
Ltmp194:
	leaq	-96(%rbp), %rdi
	callq	__ZN4core6option15Option$LT$T$GT$3map17h4fa17a3f85ccf124E
Ltmp195:
	movq	%rdx, -120(%rbp)
	movq	%rax, -128(%rbp)
	jmp	LBB330_5
LBB330_5:
	movq	-128(%rbp), %rax
	movq	-120(%rbp), %rdx
	addq	$128, %rsp
	popq	%rbp
	retq
LBB330_7:
Ltmp196:
	movq	%rax, -16(%rbp)
	movl	%edx, -8(%rbp)
	jmp	LBB330_3
Lfunc_end36:
	.cfi_endproc
	.section	__TEXT,__gcc_except_tab
	.p2align	2
GCC_except_table330:
Lexception36:
	.byte	255
	.byte	255
	.byte	1
	.uleb128 Lcst_end36-Lcst_begin36
Lcst_begin36:
	.uleb128 Lfunc_begin36-Lfunc_begin36
	.uleb128 Ltmp192-Lfunc_begin36
	.byte	0
	.byte	0
	.uleb128 Ltmp192-Lfunc_begin36
	.uleb128 Ltmp195-Ltmp192
	.uleb128 Ltmp196-Lfunc_begin36
	.byte	0
Lcst_end36:
	.p2align	2

	.section	__TEXT,__text,regular,pure_instructions
	.globl	__ZN4core3str21_$LT$impl$u20$str$GT$4find28_$u7b$$u7b$closure$u7d$$u7d$17h8f12428b4e5088b3E
	.p2align	4, 0x90
__ZN4core3str21_$LT$impl$u20$str$GT$4find28_$u7b$$u7b$closure$u7d$$u7d$17h8f12428b4e5088b3E:
	.cfi_startproc
	pushq	%rbp
	.cfi_def_cfa_offset 16
	.cfi_offset %rbp, -16
	movq	%rsp, %rbp
	.cfi_def_cfa_register %rbp
	movq	%rdi, %rax
	popq	%rbp
	retq
	.cfi_endproc

	.p2align	4, 0x90
__ZN4core3str21_$LT$impl$u20$str$GT$5chars17hb04196b672e4e6c5E:
	.cfi_startproc
	pushq	%rbp
	.cfi_def_cfa_offset 16
	.cfi_offset %rbp, -16
	movq	%rsp, %rbp
	.cfi_def_cfa_register %rbp
	subq	$64, %rsp
	movq	%rdi, -16(%rbp)
	movq	%rsi, -8(%rbp)
	movq	-16(%rbp), %rdi
	movq	-8(%rbp), %rsi
	movq	%rdi, -40(%rbp)
	movq	%rsi, -48(%rbp)
	movq	-40(%rbp), %rdi
	movq	-48(%rbp), %rsi
	callq	__ZN4core5slice29_$LT$impl$u20$$u5b$T$u5d$$GT$4iter17hbfd12de83142af9aE
	movq	%rax, -56(%rbp)
	movq	%rdx, -64(%rbp)
	movq	-56(%rbp), %rax
	movq	%rax, -32(%rbp)
	movq	-64(%rbp), %rcx
	movq	%rcx, -24(%rbp)
	movq	-32(%rbp), %rax
	movq	-24(%rbp), %rdx
	addq	$64, %rsp
	popq	%rbp
	retq
	.cfi_endproc

	.p2align	4, 0x90
__ZN4core3str21_$LT$impl$u20$str$GT$5lines17h3cb29fae5734d102E:
	.cfi_startproc
	pushq	%rbp
	.cfi_def_cfa_offset 16
	.cfi_offset %rbp, -16
	movq	%rsp, %rbp
	.cfi_def_cfa_register %rbp
	subq	$160, %rsp
	movq	%rdi, %rax
	leaq	-72(%rbp), %rcx
	movq	%rdi, -152(%rbp)
	movq	%rcx, %rdi
	movl	$10, %ecx
	movq	%rax, -160(%rbp)
	callq	__ZN4core3str21_$LT$impl$u20$str$GT$16split_terminator17h59f09bab059f9ee9E
	leaq	-144(%rbp), %rdi
	leaq	-72(%rbp), %rsi
	callq	__ZN4core4iter6traits8iterator8Iterator3map17h53af8f932193f814E
	movq	-152(%rbp), %rax
	leaq	-144(%rbp), %rcx
	movq	%rax, %rdi
	movq	%rcx, %rsi
	movl	$72, %edx
	callq	_memcpy
	movq	-160(%rbp), %rax
	addq	$160, %rsp
	popq	%rbp
	retq
	.cfi_endproc

	.globl	__ZN4core3str21_$LT$impl$u20$str$GT$5parse17h8602020f22ca9f87E
	.p2align	4, 0x90
__ZN4core3str21_$LT$impl$u20$str$GT$5parse17h8602020f22ca9f87E:
	.cfi_startproc
	pushq	%rbp
	.cfi_def_cfa_offset 16
	.cfi_offset %rbp, -16
	movq	%rsp, %rbp
	.cfi_def_cfa_register %rbp
	subq	$16, %rsp
	movq	%rdi, %rax
	movq	%rax, -8(%rbp)
	callq	__ZN4core3num54_$LT$impl$u20$core..str..FromStr$u20$for$u20$usize$GT$8from_str17h58600e175285cb47E
	movq	-8(%rbp), %rax
	addq	$16, %rsp
	popq	%rbp
	retq
	.cfi_endproc

	.globl	__ZN4core3str21_$LT$impl$u20$str$GT$5split17h43ad874ede69dfffE
	.p2align	4, 0x90
__ZN4core3str21_$LT$impl$u20$str$GT$5split17h43ad874ede69dfffE:
Lfunc_begin37:
	.cfi_startproc
	.cfi_personality 155, _rust_eh_personality
	.cfi_lsda 16, Lexception37
	pushq	%rbp
	.cfi_def_cfa_offset 16
	.cfi_offset %rbp, -16
	movq	%rsp, %rbp
	.cfi_def_cfa_register %rbp
	subq	$208, %rsp
	movq	%rdi, %rax
	movb	$0, -17(%rbp)
	movb	$1, -17(%rbp)
Ltmp197:
	movq	%rdi, -152(%rbp)
	movq	%rsi, %rdi
	movq	%rsi, -160(%rbp)
	movq	%rdx, %rsi
	movl	%ecx, -164(%rbp)
	movq	%rdx, -176(%rbp)
	movq	%rax, -184(%rbp)
	callq	__ZN4core3str21_$LT$impl$u20$str$GT$3len17hd0559c8525ffe45aE
Ltmp198:
	movq	%rax, -192(%rbp)
	jmp	LBB335_2
LBB335_1:
	movq	-16(%rbp), %rdi
	callq	__Unwind_Resume
	ud2
LBB335_2:
	movb	$0, -17(%rbp)
Ltmp199:
	leaq	-72(%rbp), %rdi
	movl	-164(%rbp), %esi
	movq	-160(%rbp), %rdx
	movq	-176(%rbp), %rcx
	callq	__ZN52_$LT$char$u20$as$u20$core..str..pattern..Pattern$GT$13into_searcher17hb677ba9ca955ddaeE
Ltmp200:
	jmp	LBB335_3
LBB335_3:
	movq	$0, -144(%rbp)
	movq	-192(%rbp), %rax
	movq	%rax, -136(%rbp)
	leaq	-144(%rbp), %rcx
	movq	%rcx, %rdx
	addq	$16, %rdx
	leaq	-72(%rbp), %rsi
	movq	%rdx, %rdi
	movl	$48, %edx
	movq	%rcx, -200(%rbp)
	callq	_memcpy
	movb	$1, -80(%rbp)
	movb	$0, -79(%rbp)
	movq	-152(%rbp), %rax
	movq	-200(%rbp), %rcx
	movq	%rax, %rdi
	movq	%rcx, %rsi
	movl	$72, %edx
	callq	_memcpy
	movq	-184(%rbp), %rax
	addq	$208, %rsp
	popq	%rbp
	retq
LBB335_4:
	movb	$0, -17(%rbp)
	jmp	LBB335_1
LBB335_5:
	testb	$1, -17(%rbp)
	jne	LBB335_4
	jmp	LBB335_1
LBB335_6:
Ltmp201:
	movq	%rax, -16(%rbp)
	movl	%edx, -8(%rbp)
	jmp	LBB335_5
Lfunc_end37:
	.cfi_endproc
	.section	__TEXT,__gcc_except_tab
	.p2align	2
GCC_except_table335:
Lexception37:
	.byte	255
	.byte	255
	.byte	1
	.uleb128 Lcst_end37-Lcst_begin37
Lcst_begin37:
	.uleb128 Ltmp197-Lfunc_begin37
	.uleb128 Ltmp198-Ltmp197
	.uleb128 Ltmp201-Lfunc_begin37
	.byte	0
	.uleb128 Ltmp198-Lfunc_begin37
	.uleb128 Ltmp199-Ltmp198
	.byte	0
	.byte	0
	.uleb128 Ltmp199-Lfunc_begin37
	.uleb128 Ltmp200-Ltmp199
	.uleb128 Ltmp201-Lfunc_begin37
	.byte	0
	.uleb128 Ltmp200-Lfunc_begin37
	.uleb128 Lfunc_end37-Ltmp200
	.byte	0
	.byte	0
Lcst_end37:
	.p2align	2

	.section	__TEXT,__text,regular,pure_instructions
	.globl	__ZN4core3str21_$LT$impl$u20$str$GT$6splitn17hf8ee28819524c622E
	.p2align	4, 0x90
__ZN4core3str21_$LT$impl$u20$str$GT$6splitn17hf8ee28819524c622E:
	.cfi_startproc
	pushq	%rbp
	.cfi_def_cfa_offset 16
	.cfi_offset %rbp, -16
	movq	%rsp, %rbp
	.cfi_def_cfa_register %rbp
	subq	$272, %rsp
	movq	%rdi, %rax
	leaq	-72(%rbp), %r9
	movq	%rdi, -232(%rbp)
	movq	%r9, %rdi
	movq	%rcx, -240(%rbp)
	movl	%r8d, %ecx
	movq	%rax, -248(%rbp)
	callq	__ZN4core3str21_$LT$impl$u20$str$GT$5split17h43ad874ede69dfffE
	leaq	-72(%rbp), %rax
	leaq	-144(%rbp), %rcx
	movq	%rcx, %rdx
	movq	%rdx, %rdi
	movq	%rax, %rsi
	movl	$72, %eax
	movq	%rax, %rdx
	movq	%rcx, -256(%rbp)
	movq	%rax, -264(%rbp)
	callq	_memcpy
	leaq	-224(%rbp), %rax
	movq	%rax, %rcx
	movq	-256(%rbp), %rdx
	movq	%rcx, %rdi
	movq	%rdx, %rsi
	movq	-264(%rbp), %rdx
	movq	%rax, -272(%rbp)
	callq	_memcpy
	movq	-240(%rbp), %rax
	movq	%rax, -152(%rbp)
	movq	-232(%rbp), %rcx
	movq	-272(%rbp), %rdx
	movq	%rcx, %rdi
	movq	%rdx, %rsi
	movl	$80, %edx
	callq	_memcpy
	movq	-248(%rbp), %rax
	addq	$272, %rsp
	popq	%rbp
	retq
	.cfi_endproc

	.p2align	4, 0x90
__ZN4core3str21_$LT$impl$u20$str$GT$8is_empty17h66ee8f50507e6ca3E:
	.cfi_startproc
	pushq	%rbp
	.cfi_def_cfa_offset 16
	.cfi_offset %rbp, -16
	movq	%rsp, %rbp
	.cfi_def_cfa_register %rbp
	subq	$16, %rsp
	callq	__ZN4core3str21_$LT$impl$u20$str$GT$3len17hd0559c8525ffe45aE
	movq	%rax, -8(%rbp)
	movq	-8(%rbp), %rax
	cmpq	$0, %rax
	sete	%cl
	andb	$1, %cl
	movzbl	%cl, %edx
	movl	%edx, %eax
	addq	$16, %rsp
	popq	%rbp
	retq
	.cfi_endproc

	.globl	__ZN4core3str22SplitInternal$LT$P$GT$4next17h076f3ed09451f545E
	.p2align	4, 0x90
__ZN4core3str22SplitInternal$LT$P$GT$4next17h076f3ed09451f545E:
	.cfi_startproc
	pushq	%rbp
	.cfi_def_cfa_offset 16
	.cfi_offset %rbp, -16
	movq	%rsp, %rbp
	.cfi_def_cfa_register %rbp
	subq	$112, %rsp
	testb	$1, 65(%rdi)
	movq	%rdi, -64(%rbp)
	jne	LBB338_2
	movq	-64(%rbp), %rax
	addq	$16, %rax
	movq	%rax, %rdi
	callq	__ZN81_$LT$core..str..pattern..CharSearcher$u20$as$u20$core..str..pattern..Searcher$GT$8haystack17h8bbd63f120322b31E
	movq	%rax, -72(%rbp)
	movq	%rdx, -80(%rbp)
	jmp	LBB338_4
LBB338_2:
	movq	$0, -56(%rbp)
LBB338_3:
	movq	-56(%rbp), %rax
	movq	-48(%rbp), %rdx
	addq	$112, %rsp
	popq	%rbp
	retq
LBB338_4:
	movq	-64(%rbp), %rax
	addq	$16, %rax
	leaq	-40(%rbp), %rdi
	movq	%rax, %rsi
	callq	__ZN81_$LT$core..str..pattern..CharSearcher$u20$as$u20$core..str..pattern..Searcher$GT$10next_match17h807f47e410491971E
	movq	-40(%rbp), %rax
	testq	%rax, %rax
	je	LBB338_6
	jmp	LBB338_12
LBB338_12:
	jmp	LBB338_8
LBB338_6:
	movq	-64(%rbp), %rdi
	callq	__ZN4core3str22SplitInternal$LT$P$GT$7get_end17ha4ba68b8bb10060fE
	movq	%rdx, -48(%rbp)
	movq	%rax, -56(%rbp)
	jmp	LBB338_10
	ud2
LBB338_8:
	movq	-32(%rbp), %rax
	movq	-24(%rbp), %rcx
	movq	-64(%rbp), %rdx
	movq	(%rdx), %rsi
	movq	%rsi, -16(%rbp)
	movq	%rax, -8(%rbp)
	movq	-16(%rbp), %rdx
	movq	-8(%rbp), %rax
	movq	-72(%rbp), %rdi
	movq	-80(%rbp), %rsi
	movq	%rcx, -88(%rbp)
	movq	%rax, %rcx
	callq	__ZN4core3str21_$LT$impl$u20$str$GT$13get_unchecked17hb184e39f4a61051bE
	movq	%rax, -96(%rbp)
	movq	%rdx, -104(%rbp)
	movq	-64(%rbp), %rax
	movq	-88(%rbp), %rcx
	movq	%rcx, (%rax)
	movq	-96(%rbp), %rdx
	movq	%rdx, -56(%rbp)
	movq	-104(%rbp), %rsi
	movq	%rsi, -48(%rbp)
	jmp	LBB338_11
LBB338_10:
	jmp	LBB338_11
LBB338_11:
	jmp	LBB338_3
	.cfi_endproc

	.globl	__ZN4core3str22SplitInternal$LT$P$GT$7get_end17ha4ba68b8bb10060fE
	.p2align	4, 0x90
__ZN4core3str22SplitInternal$LT$P$GT$7get_end17ha4ba68b8bb10060fE:
	.cfi_startproc
	pushq	%rbp
	.cfi_def_cfa_offset 16
	.cfi_offset %rbp, -16
	movq	%rsp, %rbp
	.cfi_def_cfa_register %rbp
	subq	$80, %rsp
	movb	65(%rdi), %al
	xorb	$-1, %al
	testb	$1, %al
	movq	%rdi, -48(%rbp)
	jne	LBB339_3
	jmp	LBB339_2
LBB339_1:
	movb	$1, -18(%rbp)
	jmp	LBB339_4
LBB339_2:
	movb	$0, -18(%rbp)
	jmp	LBB339_4
LBB339_3:
	movq	-48(%rbp), %rax
	testb	$1, 64(%rax)
	jne	LBB339_5
	jmp	LBB339_7
LBB339_4:
	testb	$1, -18(%rbp)
	jne	LBB339_10
	jmp	LBB339_9
LBB339_5:
	movb	$1, -17(%rbp)
	jmp	LBB339_8
LBB339_6:
	movb	$0, -17(%rbp)
	jmp	LBB339_8
LBB339_7:
	movq	-48(%rbp), %rax
	movq	8(%rax), %rcx
	subq	(%rax), %rcx
	cmpq	$0, %rcx
	ja	LBB339_5
	jmp	LBB339_6
LBB339_8:
	testb	$1, -17(%rbp)
	jne	LBB339_1
	jmp	LBB339_2
LBB339_9:
	movq	$0, -40(%rbp)
	jmp	LBB339_13
LBB339_10:
	movq	-48(%rbp), %rax
	movb	$1, 65(%rax)
	addq	$16, %rax
	movq	%rax, %rdi
	callq	__ZN81_$LT$core..str..pattern..CharSearcher$u20$as$u20$core..str..pattern..Searcher$GT$8haystack17h8bbd63f120322b31E
	movq	%rax, -56(%rbp)
	movq	%rdx, -64(%rbp)
	movq	-48(%rbp), %rax
	movq	(%rax), %rcx
	movq	8(%rax), %rdx
	movq	%rcx, -16(%rbp)
	movq	%rdx, -8(%rbp)
	movq	-16(%rbp), %rdx
	movq	-8(%rbp), %rcx
	movq	-56(%rbp), %rdi
	movq	-64(%rbp), %rsi
	callq	__ZN4core3str21_$LT$impl$u20$str$GT$13get_unchecked17hb184e39f4a61051bE
	movq	%rax, -72(%rbp)
	movq	%rdx, -80(%rbp)
	movq	-72(%rbp), %rax
	movq	%rax, -40(%rbp)
	movq	-80(%rbp), %rcx
	movq	%rcx, -32(%rbp)
LBB339_13:
	movq	-40(%rbp), %rax
	movq	-32(%rbp), %rdx
	addq	$80, %rsp
	popq	%rbp
	retq
	.cfi_endproc

	.globl	__ZN4core3str23SplitNInternal$LT$P$GT$4next17h7b1cbc4cb8c4e20eE
	.p2align	4, 0x90
__ZN4core3str23SplitNInternal$LT$P$GT$4next17h7b1cbc4cb8c4e20eE:
	.cfi_startproc
	pushq	%rbp
	.cfi_def_cfa_offset 16
	.cfi_offset %rbp, -16
	movq	%rsp, %rbp
	.cfi_def_cfa_register %rbp
	subq	$32, %rsp
	movq	72(%rdi), %rax
	testq	%rax, %rax
	movq	%rdi, -24(%rbp)
	movq	%rax, -32(%rbp)
	je	LBB340_2
	jmp	LBB340_7
LBB340_7:
	movq	-32(%rbp), %rax
	subq	$1, %rax
	je	LBB340_3
	jmp	LBB340_1
LBB340_1:
	movq	-24(%rbp), %rax
	movq	72(%rax), %rcx
	decq	%rcx
	movq	%rcx, 72(%rax)
	movq	%rax, %rdi
	callq	__ZN4core3str22SplitInternal$LT$P$GT$4next17h076f3ed09451f545E
	movq	%rdx, -8(%rbp)
	movq	%rax, -16(%rbp)
	jmp	LBB340_5
LBB340_2:
	movq	$0, -16(%rbp)
	jmp	LBB340_6
LBB340_3:
	movq	-24(%rbp), %rax
	movq	$0, 72(%rax)
	movq	%rax, %rdi
	callq	__ZN4core3str22SplitInternal$LT$P$GT$7get_end17ha4ba68b8bb10060fE
	movq	%rdx, -8(%rbp)
	movq	%rax, -16(%rbp)
	jmp	LBB340_6
LBB340_5:
	jmp	LBB340_6
LBB340_6:
	movq	-16(%rbp), %rax
	movq	-8(%rbp), %rdx
	addq	$32, %rsp
	popq	%rbp
	retq
	.cfi_endproc

	.p2align	4, 0x90
__ZN4core3str23from_utf8_unchecked_mut17h87d02d4ce7bff2feE:
	.cfi_startproc
	pushq	%rbp
	.cfi_def_cfa_offset 16
	.cfi_offset %rbp, -16
	movq	%rsp, %rbp
	.cfi_def_cfa_register %rbp
	movq	%rdi, %rax
	movq	%rsi, %rdx
	popq	%rbp
	retq
	.cfi_endproc

	.p2align	4, 0x90
__ZN4core3str6traits101_$LT$impl$u20$core..slice..SliceIndex$LT$str$GT$$u20$for$u20$core..ops..range..Range$LT$usize$GT$$GT$13get_unchecked17hd1274adc32d7acd2E:
	.cfi_startproc
	pushq	%rbp
	.cfi_def_cfa_offset 16
	.cfi_offset %rbp, -16
	movq	%rsp, %rbp
	.cfi_def_cfa_register %rbp
	subq	$48, %rsp
	movq	%rdi, -8(%rbp)
	movq	%rdx, %rdi
	movq	%rsi, -16(%rbp)
	movq	%rcx, %rsi
	callq	__ZN4core3ptr9const_ptr43_$LT$impl$u20$$BP$const$u20$$u5b$T$u5d$$GT$6as_ptr17h4df36e5a530065efE
	movq	%rax, -24(%rbp)
	movq	-24(%rbp), %rdi
	movq	-8(%rbp), %rsi
	callq	__ZN4core3ptr9const_ptr33_$LT$impl$u20$$BP$const$u20$T$GT$3add17h053b3f70b4954f1bE
	movq	%rax, -32(%rbp)
	movq	-16(%rbp), %rax
	movq	-8(%rbp), %rcx
	subq	%rcx, %rax
	movq	-32(%rbp), %rdi
	movq	%rax, %rsi
	callq	__ZN4core3ptr20slice_from_raw_parts17h220a7a25cb6fbe47E
	movq	%rax, -40(%rbp)
	movq	%rdx, -48(%rbp)
	movq	-40(%rbp), %rax
	movq	-48(%rbp), %rdx
	addq	$48, %rsp
	popq	%rbp
	retq
	.cfi_endproc

	.p2align	4, 0x90
__ZN4core3str6traits101_$LT$impl$u20$core..slice..SliceIndex$LT$str$GT$$u20$for$u20$core..ops..range..Range$LT$usize$GT$$GT$3get17h9a99fe8110095d4aE:
	.cfi_startproc
	pushq	%rbp
	.cfi_def_cfa_offset 16
	.cfi_offset %rbp, -16
	movq	%rsp, %rbp
	.cfi_def_cfa_register %rbp
	subq	$80, %rsp
	cmpq	%rsi, %rdi
	movq	%rdi, -32(%rbp)
	movq	%rsi, -40(%rbp)
	movq	%rdx, -48(%rbp)
	movq	%rcx, -56(%rbp)
	jbe	LBB343_7
	jmp	LBB343_6
LBB343_1:
	movb	$1, -2(%rbp)
	jmp	LBB343_4
LBB343_2:
	movb	$0, -2(%rbp)
	jmp	LBB343_4
LBB343_3:
	movq	-48(%rbp), %rdi
	movq	-56(%rbp), %rsi
	movq	-40(%rbp), %rdx
	callq	__ZN4core3str21_$LT$impl$u20$str$GT$16is_char_boundary17h5ba01331e6e63f34E
	movb	%al, -57(%rbp)
	jmp	LBB343_10
LBB343_4:
	testb	$1, -2(%rbp)
	jne	LBB343_12
	jmp	LBB343_11
LBB343_5:
	movb	$1, -1(%rbp)
	jmp	LBB343_8
LBB343_6:
	movb	$0, -1(%rbp)
	jmp	LBB343_8
LBB343_7:
	movq	-48(%rbp), %rdi
	movq	-56(%rbp), %rsi
	movq	-32(%rbp), %rdx
	callq	__ZN4core3str21_$LT$impl$u20$str$GT$16is_char_boundary17h5ba01331e6e63f34E
	movb	%al, -58(%rbp)
	jmp	LBB343_9
LBB343_8:
	testb	$1, -1(%rbp)
	jne	LBB343_3
	jmp	LBB343_2
LBB343_9:
	movb	-58(%rbp), %al
	testb	$1, %al
	jne	LBB343_5
	jmp	LBB343_6
LBB343_10:
	movb	-57(%rbp), %al
	testb	$1, %al
	jne	LBB343_1
	jmp	LBB343_2
LBB343_11:
	movq	$0, -24(%rbp)
	jmp	LBB343_14
LBB343_12:
	movq	-32(%rbp), %rdi
	movq	-40(%rbp), %rsi
	movq	-48(%rbp), %rdx
	movq	-56(%rbp), %rcx
	callq	__ZN4core3str6traits101_$LT$impl$u20$core..slice..SliceIndex$LT$str$GT$$u20$for$u20$core..ops..range..Range$LT$usize$GT$$GT$13get_unchecked17hd1274adc32d7acd2E
	movq	%rax, -72(%rbp)
	movq	%rdx, -80(%rbp)
	movq	-72(%rbp), %rax
	movq	%rax, -24(%rbp)
	movq	-80(%rbp), %rcx
	movq	%rcx, -16(%rbp)
LBB343_14:
	movq	-24(%rbp), %rax
	movq	-16(%rbp), %rdx
	addq	$80, %rsp
	popq	%rbp
	retq
	.cfi_endproc

	.p2align	4, 0x90
__ZN4core3str6traits101_$LT$impl$u20$core..slice..SliceIndex$LT$str$GT$$u20$for$u20$core..ops..range..Range$LT$usize$GT$$GT$5index17hf48a2b957b2d2197E:
	.cfi_startproc
	pushq	%rbp
	.cfi_def_cfa_offset 16
	.cfi_offset %rbp, -16
	movq	%rsp, %rbp
	.cfi_def_cfa_register %rbp
	subq	$112, %rsp
	movq	%rdx, -72(%rbp)
	movq	%rcx, -64(%rbp)
	movq	%rdi, -40(%rbp)
	movq	%rsi, -32(%rbp)
	movq	-40(%rbp), %rax
	movq	%rax, -56(%rbp)
	movq	-32(%rbp), %rax
	movq	%rax, -48(%rbp)
	movq	-72(%rbp), %rdx
	movq	-64(%rbp), %rcx
	movq	%r8, -80(%rbp)
	callq	__ZN4core3str6traits101_$LT$impl$u20$core..slice..SliceIndex$LT$str$GT$$u20$for$u20$core..ops..range..Range$LT$usize$GT$$GT$3get17h9a99fe8110095d4aE
	movq	%rax, -88(%rbp)
	movq	%rdx, -96(%rbp)
	leaq	-72(%rbp), %rax
	movq	%rax, -24(%rbp)
	leaq	-56(%rbp), %rax
	movq	%rax, -16(%rbp)
	leaq	-48(%rbp), %rax
	movq	%rax, -8(%rbp)
	movq	-88(%rbp), %rdi
	movq	-96(%rbp), %rsi
	leaq	-24(%rbp), %rdx
	callq	__ZN4core6option15Option$LT$T$GT$14unwrap_or_else17hc50378382d3bf70fE
	movq	%rax, -104(%rbp)
	movq	%rdx, -112(%rbp)
	movq	-104(%rbp), %rax
	movq	-112(%rbp), %rdx
	addq	$112, %rsp
	popq	%rbp
	retq
	.cfi_endproc

