	.section	__TEXT,__text,regular,pure_instructions
	.macosx_version_min 10, 7
	.p2align	4, 0x90
__ZN112_$LT$alloc..collections..btree..map..IntoIter$LT$K$C$V$GT$$u20$as$u20$core..iter..traits..iterator..Iterator$GT$4next17h596f1f5f827296d1E:
	.cfi_startproc
	pushq	%rbp
	.cfi_def_cfa_offset 16
	.cfi_offset %rbp, -16
	movq	%rsp, %rbp
	.cfi_def_cfa_register %rbp
	pushq	%r15
	pushq	%r14
	pushq	%r13
	pushq	%r12
	pushq	%rbx
	subq	$248, %rsp
	.cfi_offset %rbx, -56
	.cfi_offset %r12, -48
	.cfi_offset %r13, -40
	.cfi_offset %r14, -32
	.cfi_offset %r15, -24
	movq	%rdi, %r9
	movq	64(%rsi), %rax
	testq	%rax, %rax
	je	LBB0_21
	movq	%rsi, %r12
	decq	%rax
	movq	%rax, 64(%rsi)
	movq	8(%rsi), %rax
	testq	%rax, %rax
	cmoveq	%rax, %r12
	je	LBB0_23
	movq	(%r12), %rcx
	movq	8(%r12), %rax
	movq	16(%r12), %r10
	movq	24(%r12), %r13
	movzwl	10(%rax), %edx
	cmpq	%rdx, %r13
	jae	LBB0_4
	movq	%rcx, %rbx
	jmp	LBB0_10
LBB0_21:
	movq	$2, 16(%r9)
	jmp	LBB0_22
LBB0_4:
	movq	%r10, -48(%rbp)
	movq	%r9, -56(%rbp)
	movl	$1336, %r15d
	jmp	LBB0_5
	.p2align	4, 0x90
LBB0_7:
	leaq	1(%rcx), %rbx
	movzwl	8(%rax), %r13d
LBB0_8:
	testq	%rcx, %rcx
	movl	$1432, %esi
	cmoveq	%r15, %rsi
	movl	$8, %edx
	movq	%rax, %rdi
	callq	___rust_dealloc
	movzwl	10(%r14), %edx
	movq	%rbx, %rcx
	movq	%r14, %rax
	cmpq	%rdx, %r13
	jb	LBB0_9
LBB0_5:
	movq	(%rax), %r14
	testq	%r14, %r14
	jne	LBB0_7
	xorl	%r14d, %r14d
	jmp	LBB0_8
LBB0_9:
	movq	%r14, %rax
	movq	-56(%rbp), %r9
	movq	-48(%rbp), %r10
LBB0_10:
	imulq	$112, %r13, %rcx
	leaq	104(%rax,%rcx), %rsi
	movq	16(%rax,%r13,8), %r8
	leaq	-168(%rbp), %rdi
	movl	$14, %ecx
	rep;movsq (%rsi), %es:(%rdi)
	testq	%rbx, %rbx
	je	LBB0_11
	movq	%rbx, %rcx
	movq	1344(%rax,%r13,8), %rax
	decq	%rcx
	je	LBB0_13
	addq	$-2, %rbx
	movq	%rcx, %rdx
	andq	$7, %rdx
	je	LBB0_18
	xorl	%esi, %esi
	.p2align	4, 0x90
LBB0_16:
	movq	1336(%rax), %rax
	incq	%rsi
	cmpq	%rsi, %rdx
	jne	LBB0_16
	subq	%rsi, %rcx
LBB0_18:
	xorl	%r13d, %r13d
	cmpq	$7, %rbx
	jb	LBB0_20
	.p2align	4, 0x90
LBB0_19:
	movq	1336(%rax), %rax
	movq	1336(%rax), %rax
	movq	1336(%rax), %rax
	movq	1336(%rax), %rax
	movq	1336(%rax), %rax
	movq	1336(%rax), %rax
	movq	1336(%rax), %rax
	movq	1336(%rax), %rax
	addq	$-8, %rcx
	jne	LBB0_19
	jmp	LBB0_20
LBB0_11:
	incq	%r13
	jmp	LBB0_20
LBB0_13:
	xorl	%r13d, %r13d
LBB0_20:
	leaq	-280(%rbp), %rdx
	leaq	-168(%rbp), %rsi
	movl	$14, %ecx
	movq	%rdx, %rdi
	rep;movsq (%rsi), %es:(%rdi)
	movq	$0, (%r12)
	movq	%rax, 8(%r12)
	movq	%r10, 16(%r12)
	movq	%r13, 24(%r12)
	movq	%r8, (%r9)
	addq	$8, %r9
	movl	$14, %ecx
	movq	%r9, %rdi
	movq	%rdx, %rsi
	rep;movsq (%rsi), %es:(%rdi)
LBB0_22:
	addq	$248, %rsp
	popq	%rbx
	popq	%r12
	popq	%r13
	popq	%r14
	popq	%r15
	popq	%rbp
	retq
LBB0_23:
	leaq	l___unnamed_1(%rip), %rdi
	leaq	l___unnamed_2(%rip), %rdx
	movl	$43, %esi
	callq	__ZN4core9panicking5panic17h383a6b80ea7021aaE
	.cfi_endproc

	.p2align	4, 0x90
__ZN36_$LT$T$u20$as$u20$core..any..Any$GT$7type_id17hfcbf279e8e24f503E:
	.cfi_startproc
	pushq	%rbp
	.cfi_def_cfa_offset 16
	.cfi_offset %rbp, -16
	movq	%rsp, %rbp
	.cfi_def_cfa_register %rbp
	movabsq	$9147559743429524724, %rax
	popq	%rbp
	retq
	.cfi_endproc

	.p2align	4, 0x90
__ZN3std4sync4once4Once9call_once28_$u7b$$u7b$closure$u7d$$u7d$17hcc336c6e85db325bE:
Lfunc_begin0:
	.cfi_startproc
	.cfi_personality 155, _rust_eh_personality
	.cfi_lsda 16, Lexception0
	pushq	%rbp
	.cfi_def_cfa_offset 16
	.cfi_offset %rbp, -16
	movq	%rsp, %rbp
	.cfi_def_cfa_register %rbp
	pushq	%r15
	pushq	%r14
	pushq	%rbx
	subq	$24, %rsp
	.cfi_offset %rbx, -40
	.cfi_offset %r14, -32
	.cfi_offset %r15, -24
	movq	(%rdi), %rax
	testb	$1, (%rax)
	movb	$0, (%rax)
	je	LBB2_10
	movl	$64, %edi
	movl	$8, %esi
	callq	___rust_alloc
	testq	%rax, %rax
	je	LBB2_11
	movq	%rax, %rbx
Ltmp0:
	movq	%rax, %rdi
	callq	__ZN3std10sys_common5mutex5Mutex3new17hfec750c2ce1161a9E
Ltmp1:
	movq	%rbx, -40(%rbp)
Ltmp3:
	callq	__ZN3std10sys_common6poison4Flag3new17hd7ec4e2336668a12E
Ltmp4:
	movl	%eax, %r14d
	leaq	-40(%rbp), %r15
	movq	%r15, %rdi
	callq	_pthread_mutexattr_init
	movq	%r15, %rdi
	xorl	%esi, %esi
	callq	_pthread_mutexattr_settype
	movq	%rbx, %rdi
	movq	%r15, %rsi
	callq	_pthread_mutex_init
	movq	%r15, %rdi
	callq	_pthread_mutexattr_destroy
	movl	$16, %edi
	movl	$8, %esi
	callq	___rust_alloc
	testq	%rax, %rax
	je	LBB2_5
	movq	%rbx, (%rax)
	movb	%r14b, 8(%rax)
	movl	-40(%rbp), %ecx
	movl	-37(%rbp), %edx
	movl	%edx, 12(%rax)
	movl	%ecx, 9(%rax)
	movq	%rax, __ZN9backtrace4lock4LOCK17hec43058c01ffef76E(%rip)
	addq	$24, %rsp
	popq	%rbx
	popq	%r14
	popq	%r15
	popq	%rbp
	retq
LBB2_10:
	leaq	l___unnamed_1(%rip), %rdi
	leaq	l___unnamed_3(%rip), %rdx
	movl	$43, %esi
	callq	__ZN4core9panicking5panic17h383a6b80ea7021aaE
LBB2_11:
	movl	$64, %edi
	movl	$8, %esi
	callq	__ZN5alloc5alloc18handle_alloc_error17h28974197717b8939E
LBB2_5:
	movl	$16, %edi
	movl	$8, %esi
	callq	__ZN5alloc5alloc18handle_alloc_error17h28974197717b8939E
LBB2_8:
Ltmp5:
	movq	%rax, %r14
	leaq	-40(%rbp), %rdi
	callq	__ZN4core3ptr13drop_in_place17h5753dccb01403a47E
	jmp	LBB2_7
LBB2_6:
Ltmp2:
	movq	%rax, %r14
	movq	%rbx, %rdi
	callq	__ZN5alloc5alloc8box_free17hceb63f359902e0e5E
LBB2_7:
	movq	%r14, %rdi
	callq	__Unwind_Resume
	ud2
Lfunc_end0:
	.cfi_endproc
	.section	__TEXT,__gcc_except_tab
	.p2align	2
GCC_except_table2:
Lexception0:
	.byte	255
	.byte	255
	.byte	1
	.uleb128 Lcst_end0-Lcst_begin0
Lcst_begin0:
	.uleb128 Ltmp0-Lfunc_begin0
	.uleb128 Ltmp1-Ltmp0
	.uleb128 Ltmp2-Lfunc_begin0
	.byte	0
	.uleb128 Ltmp3-Lfunc_begin0
	.uleb128 Ltmp4-Ltmp3
	.uleb128 Ltmp5-Lfunc_begin0
	.byte	0
	.uleb128 Ltmp4-Lfunc_begin0
	.uleb128 Lfunc_end0-Ltmp4
	.byte	0
	.byte	0
Lcst_end0:
	.p2align	2

	.section	__TEXT,__text,regular,pure_instructions
	.p2align	4, 0x90
__ZN3std9panicking11begin_panic17h7b43677736edcd15E:
	.cfi_startproc
	pushq	%rbp
	.cfi_def_cfa_offset 16
	.cfi_offset %rbp, -16
	movq	%rsp, %rbp
	.cfi_def_cfa_register %rbp
	subq	$16, %rsp
	movq	%rdi, -16(%rbp)
	movq	%rsi, -8(%rbp)
	movq	%rdx, %rdi
	callq	__ZN4core5panic8Location6caller17hb284bf0993c43fcaE
	leaq	l___unnamed_4(%rip), %rsi
	leaq	-16(%rbp), %rdi
	xorl	%edx, %edx
	movq	%rax, %rcx
	callq	__ZN3std9panicking20rust_panic_with_hook17h720143ee15fc80baE
	.cfi_endproc

	.p2align	4, 0x90
__ZN42_$LT$$RF$T$u20$as$u20$core..fmt..Debug$GT$3fmt17h40b1a40e3ca275ecE:
	.cfi_startproc
	pushq	%rbp
	.cfi_def_cfa_offset 16
	.cfi_offset %rbp, -16
	movq	%rsp, %rbp
	.cfi_def_cfa_register %rbp
	pushq	%r14
	pushq	%rbx
	.cfi_offset %rbx, -32
	.cfi_offset %r14, -24
	movq	%rsi, %rbx
	movq	(%rdi), %r14
	movq	%rsi, %rdi
	callq	__ZN4core3fmt9Formatter15debug_lower_hex17hd07f6fde8d0365dfE
	testb	%al, %al
	je	LBB4_1
	movq	%r14, %rdi
	movq	%rbx, %rsi
	popq	%rbx
	popq	%r14
	popq	%rbp
	jmp	__ZN4core3fmt3num52_$LT$impl$u20$core..fmt..LowerHex$u20$for$u20$u8$GT$3fmt17h35609b3cfed2e613E
LBB4_1:
	movq	%rbx, %rdi
	callq	__ZN4core3fmt9Formatter15debug_upper_hex17hf480c256a9c81c1eE
	movq	%r14, %rdi
	movq	%rbx, %rsi
	testb	%al, %al
	je	LBB4_4
	popq	%rbx
	popq	%r14
	popq	%rbp
	jmp	__ZN4core3fmt3num52_$LT$impl$u20$core..fmt..UpperHex$u20$for$u20$u8$GT$3fmt17hdec4e64a988d6129E
LBB4_4:
	popq	%rbx
	popq	%r14
	popq	%rbp
	jmp	__ZN4core3fmt3num3imp51_$LT$impl$u20$core..fmt..Display$u20$for$u20$u8$GT$3fmt17hac49effbf87f075dE
	.cfi_endproc

	.p2align	4, 0x90
__ZN42_$LT$$RF$T$u20$as$u20$core..fmt..Debug$GT$3fmt17h8a655a362b95ba35E:
	.cfi_startproc
	pushq	%rbp
	.cfi_def_cfa_offset 16
	.cfi_offset %rbp, -16
	movq	%rsp, %rbp
	.cfi_def_cfa_register %rbp
	movq	%rsi, %rdx
	movq	(%rdi), %rax
	movq	(%rax), %rdi
	movq	8(%rax), %rsi
	popq	%rbp
	jmp	__ZN52_$LT$std..path..Path$u20$as$u20$core..fmt..Debug$GT$3fmt17h0488430099ef4577E
	.cfi_endproc

	.p2align	4, 0x90
__ZN42_$LT$$RF$T$u20$as$u20$core..fmt..Debug$GT$3fmt17h8dd95493c6f15f8bE:
	.cfi_startproc
	pushq	%rbp
	.cfi_def_cfa_offset 16
	.cfi_offset %rbp, -16
	movq	%rsp, %rbp
	.cfi_def_cfa_register %rbp
	pushq	%r15
	pushq	%r14
	pushq	%r13
	pushq	%r12
	pushq	%rbx
	subq	$24, %rsp
	.cfi_offset %rbx, -56
	.cfi_offset %r12, -48
	.cfi_offset %r13, -40
	.cfi_offset %r14, -32
	.cfi_offset %r15, -24
	movq	(%rdi), %rax
	movq	(%rax), %rbx
	movq	8(%rax), %r13
	leaq	-64(%rbp), %rdi
	callq	__ZN4core3fmt9Formatter10debug_list17h113a4e31f24f00d7E
	testq	%r13, %r13
	je	LBB6_3
	leaq	l___unnamed_5(%rip), %r14
	leaq	-64(%rbp), %r15
	leaq	-48(%rbp), %r12
	.p2align	4, 0x90
LBB6_2:
	movq	%rbx, -48(%rbp)
	incq	%rbx
	movq	%r15, %rdi
	movq	%r12, %rsi
	movq	%r14, %rdx
	callq	__ZN4core3fmt8builders9DebugList5entry17h2dea26f6c644471aE
	decq	%r13
	jne	LBB6_2
LBB6_3:
	leaq	-64(%rbp), %rdi
	callq	__ZN4core3fmt8builders9DebugList6finish17h1537bc92ee1acb1cE
	addq	$24, %rsp
	popq	%rbx
	popq	%r12
	popq	%r13
	popq	%r14
	popq	%r15
	popq	%rbp
	retq
	.cfi_endproc

	.section	__TEXT,__literal16,16byte_literals
	.p2align	4
LCPI7_0:
	.quad	1
	.quad	18
	.section	__TEXT,__text,regular,pure_instructions
	.p2align	4, 0x90
__ZN42_$LT$$RF$T$u20$as$u20$core..fmt..Debug$GT$3fmt17h9514d3fd1895278bE:
	.cfi_startproc
	pushq	%rbp
	.cfi_def_cfa_offset 16
	.cfi_offset %rbp, -16
	movq	%rsp, %rbp
	.cfi_def_cfa_register %rbp
	pushq	%r15
	pushq	%r14
	pushq	%rbx
	subq	$24, %rsp
	.cfi_offset %rbx, -40
	.cfi_offset %r14, -32
	.cfi_offset %r15, -24
	movq	%rsi, %rbx
	movq	(%rdi), %rax
	movq	(%rax), %r15
	movups	(%rsi), %xmm0
	movaps	%xmm0, -48(%rbp)
	movl	48(%rsi), %r14d
	movq	%rsi, %rdi
	callq	__ZN4core3fmt9Formatter9alternate17hd77eec28e879e5edE
	movl	48(%rbx), %ecx
	testb	%al, %al
	je	LBB7_3
	orl	$8, %ecx
	movl	%ecx, 48(%rbx)
	cmpq	$1, (%rbx)
	je	LBB7_3
	movaps	LCPI7_0(%rip), %xmm0
	movups	%xmm0, (%rbx)
LBB7_3:
	orl	$4, %ecx
	movl	%ecx, 48(%rbx)
	movq	%r15, -32(%rbp)
	leaq	-32(%rbp), %rdi
	movq	%rbx, %rsi
	callq	__ZN4core3fmt3num55_$LT$impl$u20$core..fmt..LowerHex$u20$for$u20$usize$GT$3fmt17hc47c170655f2f8b1E
	movaps	-48(%rbp), %xmm0
	movups	%xmm0, (%rbx)
	movl	%r14d, 48(%rbx)
	addq	$24, %rsp
	popq	%rbx
	popq	%r14
	popq	%r15
	popq	%rbp
	retq
	.cfi_endproc

	.p2align	4, 0x90
__ZN42_$LT$$RF$T$u20$as$u20$core..fmt..Debug$GT$3fmt17h99d6042506490a1eE:
	.cfi_startproc
	pushq	%rbp
	.cfi_def_cfa_offset 16
	.cfi_offset %rbp, -16
	movq	%rsp, %rbp
	.cfi_def_cfa_register %rbp
	movq	%rsi, %rdx
	movq	(%rdi), %rax
	movq	8(%rdi), %rsi
	movq	%rax, %rdi
	popq	%rbp
	jmp	__ZN52_$LT$std..path..Path$u20$as$u20$core..fmt..Debug$GT$3fmt17h0488430099ef4577E
	.cfi_endproc

	.p2align	4, 0x90
__ZN42_$LT$$RF$T$u20$as$u20$core..fmt..Debug$GT$3fmt17ha461e950e75bcd37E:
	.cfi_startproc
	pushq	%rbp
	.cfi_def_cfa_offset 16
	.cfi_offset %rbp, -16
	movq	%rsp, %rbp
	.cfi_def_cfa_register %rbp
	pushq	%r15
	pushq	%r14
	pushq	%r13
	pushq	%r12
	pushq	%rbx
	subq	$24, %rsp
	.cfi_offset %rbx, -56
	.cfi_offset %r12, -48
	.cfi_offset %r13, -40
	.cfi_offset %r14, -32
	.cfi_offset %r15, -24
	movq	(%rdi), %rax
	movq	(%rax), %rbx
	movq	8(%rax), %r13
	leaq	-64(%rbp), %rdi
	callq	__ZN4core3fmt9Formatter10debug_list17h113a4e31f24f00d7E
	testq	%r13, %r13
	je	LBB9_3
	addq	%r13, %r13
	leaq	l___unnamed_6(%rip), %r14
	leaq	-64(%rbp), %r15
	leaq	-48(%rbp), %r12
	.p2align	4, 0x90
LBB9_2:
	movq	%rbx, -48(%rbp)
	addq	$2, %rbx
	movq	%r15, %rdi
	movq	%r12, %rsi
	movq	%r14, %rdx
	callq	__ZN4core3fmt8builders9DebugList5entry17h2dea26f6c644471aE
	addq	$-2, %r13
	jne	LBB9_2
LBB9_3:
	leaq	-64(%rbp), %rdi
	callq	__ZN4core3fmt8builders9DebugList6finish17h1537bc92ee1acb1cE
	addq	$24, %rsp
	popq	%rbx
	popq	%r12
	popq	%r13
	popq	%r14
	popq	%r15
	popq	%rbp
	retq
	.cfi_endproc

	.p2align	4, 0x90
__ZN42_$LT$$RF$T$u20$as$u20$core..fmt..Debug$GT$3fmt17hb2e524b458ad1254E:
	.cfi_startproc
	pushq	%rbp
	.cfi_def_cfa_offset 16
	.cfi_offset %rbp, -16
	movq	%rsp, %rbp
	.cfi_def_cfa_register %rbp
	movq	(%rdi), %rdi
	popq	%rbp
	jmp	__ZN69_$LT$backtrace..symbolize..SymbolName$u20$as$u20$core..fmt..Debug$GT$3fmt17hd867171237107528E
	.cfi_endproc

	.p2align	4, 0x90
__ZN42_$LT$$RF$T$u20$as$u20$core..fmt..Debug$GT$3fmt17hd0dfef0edccb0836E:
	.cfi_startproc
	pushq	%rbp
	.cfi_def_cfa_offset 16
	.cfi_offset %rbp, -16
	movq	%rsp, %rbp
	.cfi_def_cfa_register %rbp
	pushq	%r14
	pushq	%rbx
	.cfi_offset %rbx, -32
	.cfi_offset %r14, -24
	movq	%rsi, %rbx
	movq	(%rdi), %r14
	movq	%rsi, %rdi
	callq	__ZN4core3fmt9Formatter15debug_lower_hex17hd07f6fde8d0365dfE
	testb	%al, %al
	je	LBB11_1
	movq	%r14, %rdi
	movq	%rbx, %rsi
	popq	%rbx
	popq	%r14
	popq	%rbp
	jmp	__ZN4core3fmt3num53_$LT$impl$u20$core..fmt..LowerHex$u20$for$u20$u32$GT$3fmt17h019ba2b9dd60d385E
LBB11_1:
	movq	%rbx, %rdi
	callq	__ZN4core3fmt9Formatter15debug_upper_hex17hf480c256a9c81c1eE
	movq	%r14, %rdi
	movq	%rbx, %rsi
	testb	%al, %al
	je	LBB11_4
	popq	%rbx
	popq	%r14
	popq	%rbp
	jmp	__ZN4core3fmt3num53_$LT$impl$u20$core..fmt..UpperHex$u20$for$u20$u32$GT$3fmt17h7bd10b5f3c9584f1E
LBB11_4:
	popq	%rbx
	popq	%r14
	popq	%rbp
	jmp	__ZN4core3fmt3num3imp52_$LT$impl$u20$core..fmt..Display$u20$for$u20$u32$GT$3fmt17hb70882cf65fd1a66E
	.cfi_endproc

	.p2align	4, 0x90
__ZN42_$LT$$RF$T$u20$as$u20$core..fmt..Debug$GT$3fmt17hdaf5cfa60fa0a87cE:
	.cfi_startproc
	pushq	%rbp
	.cfi_def_cfa_offset 16
	.cfi_offset %rbp, -16
	movq	%rsp, %rbp
	.cfi_def_cfa_register %rbp
	pushq	%r14
	pushq	%rbx
	.cfi_offset %rbx, -32
	.cfi_offset %r14, -24
	movq	%rsi, %rbx
	movq	(%rdi), %r14
	movq	%rsi, %rdi
	callq	__ZN4core3fmt9Formatter15debug_lower_hex17hd07f6fde8d0365dfE
	testb	%al, %al
	je	LBB12_1
	movq	%r14, %rdi
	movq	%rbx, %rsi
	popq	%rbx
	popq	%r14
	popq	%rbp
	jmp	__ZN4core3fmt3num53_$LT$impl$u20$core..fmt..LowerHex$u20$for$u20$u16$GT$3fmt17h7067c16dc119bdc6E
LBB12_1:
	movq	%rbx, %rdi
	callq	__ZN4core3fmt9Formatter15debug_upper_hex17hf480c256a9c81c1eE
	movq	%r14, %rdi
	movq	%rbx, %rsi
	testb	%al, %al
	je	LBB12_4
	popq	%rbx
	popq	%r14
	popq	%rbp
	jmp	__ZN4core3fmt3num53_$LT$impl$u20$core..fmt..UpperHex$u20$for$u20$u16$GT$3fmt17hb4f6c786d08c2f96E
LBB12_4:
	popq	%rbx
	popq	%r14
	popq	%rbp
	jmp	__ZN4core3fmt3num3imp52_$LT$impl$u20$core..fmt..Display$u20$for$u20$u16$GT$3fmt17h5ce1a50c193bc52eE
	.cfi_endproc

	.p2align	4, 0x90
__ZN44_$LT$$RF$T$u20$as$u20$core..fmt..Display$GT$3fmt17h40cabe6795daf26dE:
	.cfi_startproc
	pushq	%rbp
	.cfi_def_cfa_offset 16
	.cfi_offset %rbp, -16
	movq	%rsp, %rbp
	.cfi_def_cfa_register %rbp
	movq	%rsi, %rdx
	movq	(%rdi), %rax
	movq	8(%rdi), %rsi
	movq	%rax, %rdi
	popq	%rbp
	jmp	__ZN42_$LT$str$u20$as$u20$core..fmt..Display$GT$3fmt17h6768afae62e94f93E
	.cfi_endproc

	.p2align	4, 0x90
__ZN4core3fmt3num50_$LT$impl$u20$core..fmt..Debug$u20$for$u20$u32$GT$3fmt17h1ea6d626882ea7ffE:
	.cfi_startproc
	pushq	%rbp
	.cfi_def_cfa_offset 16
	.cfi_offset %rbp, -16
	movq	%rsp, %rbp
	.cfi_def_cfa_register %rbp
	pushq	%r14
	pushq	%rbx
	.cfi_offset %rbx, -32
	.cfi_offset %r14, -24
	movq	%rsi, %rbx
	movq	%rdi, %r14
	movq	%rsi, %rdi
	callq	__ZN4core3fmt9Formatter15debug_lower_hex17hd07f6fde8d0365dfE
	testb	%al, %al
	je	LBB14_1
	movq	%r14, %rdi
	movq	%rbx, %rsi
	popq	%rbx
	popq	%r14
	popq	%rbp
	jmp	__ZN4core3fmt3num53_$LT$impl$u20$core..fmt..LowerHex$u20$for$u20$u32$GT$3fmt17h019ba2b9dd60d385E
LBB14_1:
	movq	%rbx, %rdi
	callq	__ZN4core3fmt9Formatter15debug_upper_hex17hf480c256a9c81c1eE
	movq	%r14, %rdi
	movq	%rbx, %rsi
	testb	%al, %al
	je	LBB14_4
	popq	%rbx
	popq	%r14
	popq	%rbp
	jmp	__ZN4core3fmt3num53_$LT$impl$u20$core..fmt..UpperHex$u20$for$u20$u32$GT$3fmt17h7bd10b5f3c9584f1E
LBB14_4:
	popq	%rbx
	popq	%r14
	popq	%rbp
	jmp	__ZN4core3fmt3num3imp52_$LT$impl$u20$core..fmt..Display$u20$for$u20$u32$GT$3fmt17hb70882cf65fd1a66E
	.cfi_endproc

	.p2align	4, 0x90
__ZN4core3ops8function6FnOnce40call_once$u7b$$u7b$vtable.shim$u7d$$u7d$17h2463690df0f52b45E:
Lfunc_begin1:
	.cfi_startproc
	.cfi_personality 155, _rust_eh_personality
	.cfi_lsda 16, Lexception1
	pushq	%rbp
	.cfi_def_cfa_offset 16
	.cfi_offset %rbp, -16
	movq	%rsp, %rbp
	.cfi_def_cfa_register %rbp
	pushq	%r14
	pushq	%rbx
	subq	$32, %rsp
	.cfi_offset %rbx, -32
	.cfi_offset %r14, -24
	movq	%rdi, %r14
	movq	%rsi, -48(%rbp)
	leaq	-40(%rbp), %rax
	movq	(%rdx), %rcx
	movq	8(%rdx), %rdi
	movq	%rcx, -40(%rbp)
	movq	%rdi, -32(%rbp)
	movq	16(%rdx), %rcx
	movq	%rcx, -24(%rbp)
Ltmp6:
	movq	%r14, %rdi
	movq	%rax, %rdx
	callq	__ZN66_$LT$backtrace..capture..Backtrace$u20$as$u20$core..fmt..Debug$GT$3fmt28_$u7b$$u7b$closure$u7d$$u7d$17hb5975cb432a4cf8fE
Ltmp7:
	movl	%eax, %ebx
	movq	%r14, %rdi
	callq	__ZN4core3ptr13drop_in_place17hf412b0dd091a4590E
	movl	%ebx, %eax
	addq	$32, %rsp
	popq	%rbx
	popq	%r14
	popq	%rbp
	retq
LBB15_2:
Ltmp8:
	movq	%rax, %rbx
	movq	%r14, %rdi
	callq	__ZN4core3ptr13drop_in_place17hf412b0dd091a4590E
	movq	%rbx, %rdi
	callq	__Unwind_Resume
	ud2
Lfunc_end1:
	.cfi_endproc
	.section	__TEXT,__gcc_except_tab
	.p2align	2
GCC_except_table15:
Lexception1:
	.byte	255
	.byte	255
	.byte	1
	.uleb128 Lcst_end1-Lcst_begin1
Lcst_begin1:
	.uleb128 Ltmp6-Lfunc_begin1
	.uleb128 Ltmp7-Ltmp6
	.uleb128 Ltmp8-Lfunc_begin1
	.byte	0
	.uleb128 Ltmp7-Lfunc_begin1
	.uleb128 Lfunc_end1-Ltmp7
	.byte	0
	.byte	0
Lcst_end1:
	.p2align	2

	.section	__TEXT,__text,regular,pure_instructions
	.p2align	4, 0x90
__ZN4core3ops8function6FnOnce40call_once$u7b$$u7b$vtable.shim$u7d$$u7d$17h618ec046c2ad71bbE:
	.cfi_startproc
	pushq	%rbp
	.cfi_def_cfa_offset 16
	.cfi_offset %rbp, -16
	movq	%rsp, %rbp
	.cfi_def_cfa_register %rbp
	subq	$16, %rsp
	movq	(%rdi), %rax
	movq	%rax, -8(%rbp)
	leaq	-8(%rbp), %rdi
	callq	__ZN9backtrace7capture9Backtrace7resolve28_$u7b$$u7b$closure$u7d$$u7d$17h61a96cd668e6a527E
	addq	$16, %rsp
	popq	%rbp
	retq
	.cfi_endproc

	.p2align	4, 0x90
__ZN4core3ops8function6FnOnce40call_once$u7b$$u7b$vtable.shim$u7d$$u7d$17h64e772ee06033cf1E:
	.cfi_startproc
	pushq	%rbp
	.cfi_def_cfa_offset 16
	.cfi_offset %rbp, -16
	movq	%rsp, %rbp
	.cfi_def_cfa_register %rbp
	subq	$16, %rsp
	movq	(%rdi), %rax
	movq	%rax, -8(%rbp)
	leaq	-8(%rbp), %rdi
	callq	__ZN3std4sync4once4Once9call_once28_$u7b$$u7b$closure$u7d$$u7d$17hcc336c6e85db325bE
	addq	$16, %rsp
	popq	%rbp
	retq
	.cfi_endproc

	.p2align	4, 0x90
__ZN4core3ops8function6FnOnce40call_once$u7b$$u7b$vtable.shim$u7d$$u7d$17h893528180071d4c9E:
	.cfi_startproc
	pushq	%rbp
	.cfi_def_cfa_offset 16
	.cfi_offset %rbp, -16
	movq	%rsp, %rbp
	.cfi_def_cfa_register %rbp
	callq	__ZN9backtrace7capture9Backtrace6create28_$u7b$$u7b$closure$u7d$$u7d$17h8225571f40ce2f6aE
	movb	$1, %al
	popq	%rbp
	retq
	.cfi_endproc

	.p2align	4, 0x90
__ZN4core3ptr13drop_in_place17h0334f139cc8c565fE:
	.cfi_startproc
	pushq	%rbp
	.cfi_def_cfa_offset 16
	.cfi_offset %rbp, -16
	movq	%rsp, %rbp
	.cfi_def_cfa_register %rbp
	movq	%rdi, %rax
	movq	(%rdi), %rdi
	testq	%rdi, %rdi
	je	LBB19_2
	movq	8(%rax), %rsi
	testq	%rsi, %rsi
	je	LBB19_2
	movl	$1, %edx
	popq	%rbp
	jmp	___rust_dealloc
LBB19_2:
	popq	%rbp
	retq
	.cfi_endproc

	.p2align	4, 0x90
__ZN4core3ptr13drop_in_place17h058d6fb37dfa7560E:
	.cfi_startproc
	pushq	%rbp
	.cfi_def_cfa_offset 16
	.cfi_offset %rbp, -16
	movq	%rsp, %rbp
	.cfi_def_cfa_register %rbp
	movq	%rdi, %rax
	movq	(%rdi), %rdi
	testq	%rdi, %rdi
	je	LBB20_2
	movq	8(%rax), %rsi
	testq	%rsi, %rsi
	je	LBB20_2
	movl	$1, %edx
	popq	%rbp
	jmp	___rust_dealloc
LBB20_2:
	popq	%rbp
	retq
	.cfi_endproc

	.p2align	4, 0x90
__ZN4core3ptr13drop_in_place17h05a96d0916380b47E:
Lfunc_begin2:
	.cfi_startproc
	.cfi_personality 155, _rust_eh_personality
	.cfi_lsda 16, Lexception2
	pushq	%rbp
	.cfi_def_cfa_offset 16
	.cfi_offset %rbp, -16
	movq	%rsp, %rbp
	.cfi_def_cfa_register %rbp
	pushq	%r14
	pushq	%rbx
	.cfi_offset %rbx, -32
	.cfi_offset %r14, -24
	movq	%rdi, %rbx
	movq	8(%rdi), %rsi
	testq	%rsi, %rsi
	je	LBB21_4
	movq	(%rbx), %rdi
	testq	%rdi, %rdi
	je	LBB21_4
	shlq	$5, %rsi
	je	LBB21_4
	movl	$8, %edx
	callq	___rust_dealloc
LBB21_4:
	leaq	24(%rbx), %rdi
Ltmp9:
	callq	__ZN4core3ptr13drop_in_place17he3110f7711fc3911E
Ltmp10:
	movq	296(%rbx), %rax
	testq	%rax, %rax
	je	LBB21_8
	movq	288(%rbx), %rdi
	testq	%rdi, %rdi
	je	LBB21_8
	shlq	$3, %rax
	leaq	(%rax,%rax,2), %rsi
	testq	%rsi, %rsi
	je	LBB21_8
	movl	$8, %edx
	popq	%rbx
	popq	%r14
	popq	%rbp
	jmp	___rust_dealloc
LBB21_8:
	popq	%rbx
	popq	%r14
	popq	%rbp
	retq
LBB21_9:
Ltmp11:
	movq	%rax, %r14
	addq	$256, %rbx
	movq	%rbx, %rdi
	callq	__ZN4core3ptr13drop_in_place17hba7831cd21470949E
	movq	%r14, %rdi
	callq	__Unwind_Resume
	ud2
Lfunc_end2:
	.cfi_endproc
	.section	__TEXT,__gcc_except_tab
	.p2align	2
GCC_except_table21:
Lexception2:
	.byte	255
	.byte	255
	.byte	1
	.uleb128 Lcst_end2-Lcst_begin2
Lcst_begin2:
	.uleb128 Ltmp9-Lfunc_begin2
	.uleb128 Ltmp10-Ltmp9
	.uleb128 Ltmp11-Lfunc_begin2
	.byte	0
	.uleb128 Ltmp10-Lfunc_begin2
	.uleb128 Lfunc_end2-Ltmp10
	.byte	0
	.byte	0
Lcst_end2:
	.p2align	2

	.section	__TEXT,__text,regular,pure_instructions
	.p2align	4, 0x90
__ZN4core3ptr13drop_in_place17h05ba033c2b9b26dfE:
Lfunc_begin3:
	.cfi_startproc
	.cfi_personality 155, _rust_eh_personality
	.cfi_lsda 16, Lexception3
	pushq	%rbp
	.cfi_def_cfa_offset 16
	.cfi_offset %rbp, -16
	movq	%rsp, %rbp
	.cfi_def_cfa_register %rbp
	pushq	%r15
	pushq	%r14
	pushq	%rbx
	pushq	%rax
	.cfi_offset %rbx, -40
	.cfi_offset %r14, -32
	.cfi_offset %r15, -24
	movq	%rdi, %r14
	movq	8(%rdi), %rsi
	testq	%rsi, %rsi
	je	LBB22_4
	movq	(%r14), %rdi
	testq	%rdi, %rdi
	je	LBB22_4
	shlq	$5, %rsi
	je	LBB22_4
	movl	$8, %edx
	callq	___rust_dealloc
LBB22_4:
	leaq	24(%r14), %rdi
Ltmp12:
	callq	__ZN4core3ptr13drop_in_place17he3110f7711fc3911E
Ltmp13:
	movq	296(%r14), %rax
	testq	%rax, %rax
	je	LBB22_9
	movq	288(%r14), %rdi
	testq	%rdi, %rdi
	je	LBB22_9
	shlq	$3, %rax
	leaq	(%rax,%rax,2), %rsi
	testq	%rsi, %rsi
	je	LBB22_9
	movl	$8, %edx
	callq	___rust_dealloc
LBB22_9:
	movq	312(%r14), %rdi
	movq	320(%r14), %rsi
	callq	_munmap
	movq	328(%r14), %rbx
	movq	344(%r14), %rax
	testq	%rax, %rax
	je	LBB22_16
	leaq	(%rax,%rax,2), %rax
	leaq	(%rbx,%rax,8), %r15
	jmp	LBB22_11
	.p2align	4, 0x90
LBB22_14:
	addq	$24, %rbx
	cmpq	%r15, %rbx
	je	LBB22_15
LBB22_11:
	movq	(%rbx), %rdi
	testq	%rdi, %rdi
	je	LBB22_14
	movq	8(%rbx), %rsi
	testq	%rsi, %rsi
	je	LBB22_14
	movl	$1, %edx
	callq	___rust_dealloc
	jmp	LBB22_14
LBB22_15:
	movq	328(%r14), %rbx
LBB22_16:
	movq	336(%r14), %rax
	testq	%rax, %rax
	je	LBB22_19
	testq	%rbx, %rbx
	je	LBB22_19
	shlq	$3, %rax
	leaq	(%rax,%rax,2), %rsi
	testq	%rsi, %rsi
	je	LBB22_19
	movl	$8, %edx
	movq	%rbx, %rdi
	addq	$8, %rsp
	popq	%rbx
	popq	%r14
	popq	%r15
	popq	%rbp
	jmp	___rust_dealloc
LBB22_19:
	addq	$8, %rsp
	popq	%rbx
	popq	%r14
	popq	%r15
	popq	%rbp
	retq
LBB22_20:
Ltmp14:
	movq	%rax, %rbx
	leaq	256(%r14), %rdi
	callq	__ZN4core3ptr13drop_in_place17hba7831cd21470949E
	movq	312(%r14), %rdi
	movq	320(%r14), %rsi
	callq	__ZN4core3ptr13drop_in_place17had729a7f492222ecE
	addq	$328, %r14
	movq	%r14, %rdi
	callq	__ZN4core3ptr13drop_in_place17h2fb4e438ffb6a608E
	movq	%rbx, %rdi
	callq	__Unwind_Resume
	ud2
Lfunc_end3:
	.cfi_endproc
	.section	__TEXT,__gcc_except_tab
	.p2align	2
GCC_except_table22:
Lexception3:
	.byte	255
	.byte	255
	.byte	1
	.uleb128 Lcst_end3-Lcst_begin3
Lcst_begin3:
	.uleb128 Ltmp12-Lfunc_begin3
	.uleb128 Ltmp13-Ltmp12
	.uleb128 Ltmp14-Lfunc_begin3
	.byte	0
	.uleb128 Ltmp13-Lfunc_begin3
	.uleb128 Lfunc_end3-Ltmp13
	.byte	0
	.byte	0
Lcst_end3:
	.p2align	2

	.section	__TEXT,__text,regular,pure_instructions
	.p2align	4, 0x90
__ZN4core3ptr13drop_in_place17h0c01958b7e1b961aE:
	.cfi_startproc
	pushq	%rbp
	.cfi_def_cfa_offset 16
	.cfi_offset %rbp, -16
	movq	%rsp, %rbp
	.cfi_def_cfa_register %rbp
	movq	8(%rdi), %rax
	testq	%rax, %rax
	je	LBB23_3
	movq	(%rdi), %rdi
	testq	%rdi, %rdi
	je	LBB23_3
	shlq	$3, %rax
	leaq	(%rax,%rax,2), %rsi
	testq	%rsi, %rsi
	je	LBB23_3
	movl	$8, %edx
	popq	%rbp
	jmp	___rust_dealloc
LBB23_3:
	popq	%rbp
	retq
	.cfi_endproc

	.p2align	4, 0x90
__ZN4core3ptr13drop_in_place17h0cea8405bc95e93cE:
	.cfi_startproc
	pushq	%rbp
	.cfi_def_cfa_offset 16
	.cfi_offset %rbp, -16
	movq	%rsp, %rbp
	.cfi_def_cfa_register %rbp
	cmpl	$2, (%rdi)
	jne	LBB24_2
	popq	%rbp
	retq
LBB24_2:
	popq	%rbp
	jmp	__ZN4core3ptr13drop_in_place17h48dcc8e9104b20bdE
	.cfi_endproc

	.p2align	4, 0x90
__ZN4core3ptr13drop_in_place17h10e17f129f079219E:
	.cfi_startproc
	pushq	%rbp
	.cfi_def_cfa_offset 16
	.cfi_offset %rbp, -16
	movq	%rsp, %rbp
	.cfi_def_cfa_register %rbp
	cmpl	$46, 168(%rdi)
	jne	LBB25_2
	popq	%rbp
	retq
LBB25_2:
	popq	%rbp
	jmp	__ZN4core3ptr13drop_in_place17ha9b4a8e836f0b099E
	.cfi_endproc

	.p2align	4, 0x90
__ZN4core3ptr13drop_in_place17h11efdd0a4ca5f661E:
	.cfi_startproc
	pushq	%rbp
	.cfi_def_cfa_offset 16
	.cfi_offset %rbp, -16
	movq	%rsp, %rbp
	.cfi_def_cfa_register %rbp
	popq	%rbp
	retq
	.cfi_endproc

	.p2align	4, 0x90
__ZN4core3ptr13drop_in_place17h17280480975ef499E:
Lfunc_begin4:
	.cfi_startproc
	.cfi_personality 155, _rust_eh_personality
	.cfi_lsda 16, Lexception4
	pushq	%rbp
	.cfi_def_cfa_offset 16
	.cfi_offset %rbp, -16
	movq	%rsp, %rbp
	.cfi_def_cfa_register %rbp
	pushq	%r15
	pushq	%r14
	pushq	%rbx
	pushq	%rax
	.cfi_offset %rbx, -40
	.cfi_offset %r14, -32
	.cfi_offset %r15, -24
	movq	__ZN9backtrace9symbolize5gimli5Cache11with_global14MAPPINGS_CACHE17h5a732e73362948c7E(%rip), %rbx
	testq	%rbx, %rbx
	je	LBB27_28
	movq	__ZN9backtrace9symbolize5gimli5Cache11with_global14MAPPINGS_CACHE17h5a732e73362948c7E+16(%rip), %rax
	testq	%rax, %rax
	je	LBB27_12
	imulq	$56, %rax, %r14
	addq	%rbx, %r14
	jmp	LBB27_3
	.p2align	4, 0x90
LBB27_10:
	addq	$56, %rbx
	cmpq	%r14, %rbx
	je	LBB27_11
LBB27_3:
	movq	(%rbx), %rdi
	testq	%rdi, %rdi
	je	LBB27_6
	movq	8(%rbx), %rsi
	testq	%rsi, %rsi
	je	LBB27_6
	movl	$1, %edx
	callq	___rust_dealloc
LBB27_6:
	movq	32(%rbx), %rsi
	testq	%rsi, %rsi
	je	LBB27_10
	movq	24(%rbx), %rdi
	testq	%rdi, %rdi
	je	LBB27_10
	shlq	$4, %rsi
	je	LBB27_10
	movl	$8, %edx
	callq	___rust_dealloc
	jmp	LBB27_10
LBB27_11:
	movq	__ZN9backtrace9symbolize5gimli5Cache11with_global14MAPPINGS_CACHE17h5a732e73362948c7E(%rip), %rbx
LBB27_12:
	movq	__ZN9backtrace9symbolize5gimli5Cache11with_global14MAPPINGS_CACHE17h5a732e73362948c7E+8(%rip), %rax
	testq	%rax, %rax
	je	LBB27_16
	testq	%rbx, %rbx
	je	LBB27_16
	imulq	$56, %rax, %rsi
	testq	%rsi, %rsi
	je	LBB27_16
	movl	$8, %edx
	movq	%rbx, %rdi
	callq	___rust_dealloc
LBB27_16:
	movq	__ZN9backtrace9symbolize5gimli5Cache11with_global14MAPPINGS_CACHE17h5a732e73362948c7E+24(%rip), %rdi
	imulq	$360, __ZN9backtrace9symbolize5gimli5Cache11with_global14MAPPINGS_CACHE17h5a732e73362948c7E+40(%rip), %rbx
	.p2align	4, 0x90
LBB27_21:
	testq	%rbx, %rbx
	je	LBB27_22
	leaq	360(%rdi), %r15
	addq	$8, %rdi
	addq	$-360, %rbx
Ltmp15:
	callq	__ZN4core3ptr13drop_in_place17h05ba033c2b9b26dfE
Ltmp16:
	movq	%r15, %rdi
	jmp	LBB27_21
LBB27_22:
	movq	__ZN9backtrace9symbolize5gimli5Cache11with_global14MAPPINGS_CACHE17h5a732e73362948c7E+32(%rip), %rax
	testq	%rax, %rax
	je	LBB27_28
	movq	__ZN9backtrace9symbolize5gimli5Cache11with_global14MAPPINGS_CACHE17h5a732e73362948c7E+24(%rip), %rdi
	testq	%rdi, %rdi
	je	LBB27_28
	imulq	$360, %rax, %rsi
	testq	%rsi, %rsi
	je	LBB27_28
	movl	$8, %edx
	addq	$8, %rsp
	popq	%rbx
	popq	%r14
	popq	%r15
	popq	%rbp
	jmp	___rust_dealloc
LBB27_28:
	addq	$8, %rsp
	popq	%rbx
	popq	%r14
	popq	%r15
	popq	%rbp
	retq
LBB27_17:
Ltmp17:
	movq	%rax, %r14
	testq	%rbx, %rbx
	je	LBB27_27
LBB27_18:
Ltmp18:
	movq	%r15, %rdi
	callq	__ZN4core3ptr13drop_in_place17h1868a6a683965eabE
Ltmp19:
	addq	$360, %r15
	addq	$-360, %rbx
	jne	LBB27_18
LBB27_27:
	movq	__ZN9backtrace9symbolize5gimli5Cache11with_global14MAPPINGS_CACHE17h5a732e73362948c7E+24(%rip), %rdi
	movq	__ZN9backtrace9symbolize5gimli5Cache11with_global14MAPPINGS_CACHE17h5a732e73362948c7E+32(%rip), %rsi
	callq	__ZN4core3ptr13drop_in_place17h229d8ce8fec1ccb4E
	movq	%r14, %rdi
	callq	__Unwind_Resume
	ud2
LBB27_26:
Ltmp20:
	movq	%rax, %r14
	jmp	LBB27_27
Lfunc_end4:
	.cfi_endproc
	.section	__TEXT,__gcc_except_tab
	.p2align	2
GCC_except_table27:
Lexception4:
	.byte	255
	.byte	255
	.byte	1
	.uleb128 Lcst_end4-Lcst_begin4
Lcst_begin4:
	.uleb128 Ltmp15-Lfunc_begin4
	.uleb128 Ltmp16-Ltmp15
	.uleb128 Ltmp17-Lfunc_begin4
	.byte	0
	.uleb128 Ltmp18-Lfunc_begin4
	.uleb128 Ltmp19-Ltmp18
	.uleb128 Ltmp20-Lfunc_begin4
	.byte	0
	.uleb128 Ltmp19-Lfunc_begin4
	.uleb128 Lfunc_end4-Ltmp19
	.byte	0
	.byte	0
Lcst_end4:
	.p2align	2

	.section	__TEXT,__text,regular,pure_instructions
	.p2align	4, 0x90
__ZN4core3ptr13drop_in_place17h1868a6a683965eabE:
	.cfi_startproc
	pushq	%rbp
	.cfi_def_cfa_offset 16
	.cfi_offset %rbp, -16
	movq	%rsp, %rbp
	.cfi_def_cfa_register %rbp
	addq	$8, %rdi
	popq	%rbp
	jmp	__ZN4core3ptr13drop_in_place17h05ba033c2b9b26dfE
	.cfi_endproc

	.p2align	4, 0x90
__ZN4core3ptr13drop_in_place17h199a90e9f2d03915E:
	.cfi_startproc
	pushq	%rbp
	.cfi_def_cfa_offset 16
	.cfi_offset %rbp, -16
	movq	%rsp, %rbp
	.cfi_def_cfa_register %rbp
	pushq	%r15
	pushq	%r14
	pushq	%r12
	pushq	%rbx
	.cfi_offset %rbx, -48
	.cfi_offset %r12, -40
	.cfi_offset %r14, -32
	.cfi_offset %r15, -24
	movq	8(%rdi), %rax
	testq	%rax, %rax
	je	LBB29_9
	movq	%rdi, %r14
	movq	(%rdi), %r12
	shlq	$3, %rax
	leaq	(%rax,%rax,8), %r15
	xorl	%ebx, %ebx
	jmp	LBB29_2
	.p2align	4, 0x90
LBB29_7:
	addq	$72, %rbx
	cmpq	%rbx, %r15
	je	LBB29_8
LBB29_2:
	cmpq	$0, 8(%r12,%rbx)
	jne	LBB29_7
	movq	48(%r12,%rbx), %rax
	shlq	$3, %rax
	leaq	(%rax,%rax,4), %rsi
	testq	%rsi, %rsi
	je	LBB29_5
	movq	40(%r12,%rbx), %rdi
	movl	$8, %edx
	callq	___rust_dealloc
LBB29_5:
	movq	64(%r12,%rbx), %rsi
	shlq	$5, %rsi
	je	LBB29_7
	movq	56(%r12,%rbx), %rdi
	movl	$8, %edx
	callq	___rust_dealloc
	jmp	LBB29_7
LBB29_8:
	movq	8(%r14), %rax
	shlq	$3, %rax
	leaq	(%rax,%rax,8), %rsi
	testq	%rsi, %rsi
	je	LBB29_9
	movq	(%r14), %rdi
	movl	$8, %edx
	popq	%rbx
	popq	%r12
	popq	%r14
	popq	%r15
	popq	%rbp
	jmp	___rust_dealloc
LBB29_9:
	popq	%rbx
	popq	%r12
	popq	%r14
	popq	%r15
	popq	%rbp
	retq
	.cfi_endproc

	.p2align	4, 0x90
__ZN4core3ptr13drop_in_place17h1e65f90a35ac3d26E:
	.cfi_startproc
	pushq	%rbp
	.cfi_def_cfa_offset 16
	.cfi_offset %rbp, -16
	movq	%rsp, %rbp
	.cfi_def_cfa_register %rbp
	movq	1048(%rdi), %rax
	lock		decq	(%rax)
	jne	LBB30_1
	addq	$1048, %rdi
	##MEMBARRIER
	popq	%rbp
	jmp	__ZN5alloc4sync12Arc$LT$T$GT$9drop_slow17h2cd67dc6c465807cE
LBB30_1:
	popq	%rbp
	retq
	.cfi_endproc

	.p2align	4, 0x90
__ZN4core3ptr13drop_in_place17h20bfb88616f9105eE:
	.cfi_startproc
	pushq	%rbp
	.cfi_def_cfa_offset 16
	.cfi_offset %rbp, -16
	movq	%rsp, %rbp
	.cfi_def_cfa_register %rbp
	pushq	%r15
	pushq	%r14
	pushq	%r12
	pushq	%rbx
	.cfi_offset %rbx, -48
	.cfi_offset %r12, -40
	.cfi_offset %r14, -32
	.cfi_offset %r15, -24
	movq	%rdi, %r14
	movq	(%rdi), %r12
	movq	16(%rdi), %rax
	testq	%rax, %rax
	je	LBB31_9
	shlq	$3, %rax
	leaq	(%rax,%rax,8), %r15
	xorl	%ebx, %ebx
	jmp	LBB31_2
	.p2align	4, 0x90
LBB31_7:
	addq	$72, %rbx
	cmpq	%rbx, %r15
	je	LBB31_8
LBB31_2:
	cmpq	$0, 8(%r12,%rbx)
	jne	LBB31_7
	movq	48(%r12,%rbx), %rax
	shlq	$3, %rax
	leaq	(%rax,%rax,4), %rsi
	testq	%rsi, %rsi
	je	LBB31_5
	movq	40(%r12,%rbx), %rdi
	movl	$8, %edx
	callq	___rust_dealloc
LBB31_5:
	movq	64(%r12,%rbx), %rsi
	shlq	$5, %rsi
	je	LBB31_7
	movq	56(%r12,%rbx), %rdi
	movl	$8, %edx
	callq	___rust_dealloc
	jmp	LBB31_7
LBB31_8:
	movq	(%r14), %r12
LBB31_9:
	movq	8(%r14), %rax
	testq	%rax, %rax
	je	LBB31_12
	testq	%r12, %r12
	je	LBB31_12
	shlq	$3, %rax
	leaq	(%rax,%rax,8), %rsi
	testq	%rsi, %rsi
	je	LBB31_12
	movl	$8, %edx
	movq	%r12, %rdi
	popq	%rbx
	popq	%r12
	popq	%r14
	popq	%r15
	popq	%rbp
	jmp	___rust_dealloc
LBB31_12:
	popq	%rbx
	popq	%r12
	popq	%r14
	popq	%r15
	popq	%rbp
	retq
	.cfi_endproc

	.p2align	4, 0x90
__ZN4core3ptr13drop_in_place17h229d8ce8fec1ccb4E:
	.cfi_startproc
	pushq	%rbp
	.cfi_def_cfa_offset 16
	.cfi_offset %rbp, -16
	movq	%rsp, %rbp
	.cfi_def_cfa_register %rbp
	testq	%rsi, %rsi
	je	LBB32_3
	testq	%rdi, %rdi
	je	LBB32_3
	imulq	$360, %rsi, %rsi
	testq	%rsi, %rsi
	je	LBB32_3
	movl	$8, %edx
	popq	%rbp
	jmp	___rust_dealloc
LBB32_3:
	popq	%rbp
	retq
	.cfi_endproc

	.p2align	4, 0x90
__ZN4core3ptr13drop_in_place17h255f3eb6524012a0E:
	.cfi_startproc
	pushq	%rbp
	.cfi_def_cfa_offset 16
	.cfi_offset %rbp, -16
	movq	%rsp, %rbp
	.cfi_def_cfa_register %rbp
	movq	(%rdi), %rax
	lock		decq	(%rax)
	jne	LBB33_1
	##MEMBARRIER
	popq	%rbp
	jmp	__ZN5alloc4sync12Arc$LT$T$GT$9drop_slow17h2cd67dc6c465807cE
LBB33_1:
	popq	%rbp
	retq
	.cfi_endproc

	.p2align	4, 0x90
__ZN4core3ptr13drop_in_place17h286f949f14b4083fE:
	.cfi_startproc
	pushq	%rbp
	.cfi_def_cfa_offset 16
	.cfi_offset %rbp, -16
	movq	%rsp, %rbp
	.cfi_def_cfa_register %rbp
	pushq	%r14
	pushq	%rbx
	.cfi_offset %rbx, -32
	.cfi_offset %r14, -24
	movq	%rdi, %rbx
	cmpb	$0, 8(%rdi)
	jne	LBB34_4
	movq	(%rbx), %r14
	movq	__ZN3std9panicking11panic_count18GLOBAL_PANIC_COUNT17h5754c1d48a496461E@GOTPCREL(%rip), %rax
	movq	(%rax), %rax
	testq	%rax, %rax
	jne	LBB34_2
LBB34_4:
	movq	(%rbx), %rax
	movq	(%rax), %rdi
	popq	%rbx
	popq	%r14
	popq	%rbp
	jmp	_pthread_mutex_unlock
LBB34_2:
	callq	__ZN3std9panicking11panic_count17is_zero_slow_path17ha588394117c50e3dE
	testb	%al, %al
	jne	LBB34_4
	movb	$1, 8(%r14)
	jmp	LBB34_4
	.cfi_endproc

	.p2align	4, 0x90
__ZN4core3ptr13drop_in_place17h29686f723fabb1a6E:
	.cfi_startproc
	pushq	%rbp
	.cfi_def_cfa_offset 16
	.cfi_offset %rbp, -16
	movq	%rsp, %rbp
	.cfi_def_cfa_register %rbp
	movq	8(%rdi), %rsi
	testq	%rsi, %rsi
	je	LBB35_3
	movq	(%rdi), %rdi
	testq	%rdi, %rdi
	je	LBB35_3
	shlq	$3, %rsi
	testq	%rsi, %rsi
	je	LBB35_3
	movl	$8, %edx
	popq	%rbp
	jmp	___rust_dealloc
LBB35_3:
	popq	%rbp
	retq
	.cfi_endproc

	.p2align	4, 0x90
__ZN4core3ptr13drop_in_place17h2a3586351bf4e206E:
	.cfi_startproc
	pushq	%rbp
	.cfi_def_cfa_offset 16
	.cfi_offset %rbp, -16
	movq	%rsp, %rbp
	.cfi_def_cfa_register %rbp
	cmpl	$2, (%rdi)
	jne	LBB36_2
	popq	%rbp
	retq
LBB36_2:
	popq	%rbp
	jmp	__ZN4core3ptr13drop_in_place17h40725718a23aa66fE
	.cfi_endproc

	.p2align	4, 0x90
__ZN4core3ptr13drop_in_place17h2fb4e438ffb6a608E:
	.cfi_startproc
	pushq	%rbp
	.cfi_def_cfa_offset 16
	.cfi_offset %rbp, -16
	movq	%rsp, %rbp
	.cfi_def_cfa_register %rbp
	pushq	%r15
	pushq	%r14
	pushq	%rbx
	pushq	%rax
	.cfi_offset %rbx, -40
	.cfi_offset %r14, -32
	.cfi_offset %r15, -24
	movq	%rdi, %r14
	movq	(%rdi), %rbx
	movq	16(%rdi), %rax
	testq	%rax, %rax
	je	LBB37_7
	leaq	(%rax,%rax,2), %rax
	leaq	(%rbx,%rax,8), %r15
	jmp	LBB37_2
	.p2align	4, 0x90
LBB37_5:
	addq	$24, %rbx
	cmpq	%r15, %rbx
	je	LBB37_6
LBB37_2:
	movq	(%rbx), %rdi
	testq	%rdi, %rdi
	je	LBB37_5
	movq	8(%rbx), %rsi
	testq	%rsi, %rsi
	je	LBB37_5
	movl	$1, %edx
	callq	___rust_dealloc
	jmp	LBB37_5
LBB37_6:
	movq	(%r14), %rbx
LBB37_7:
	movq	8(%r14), %rax
	testq	%rax, %rax
	je	LBB37_10
	testq	%rbx, %rbx
	je	LBB37_10
	shlq	$3, %rax
	leaq	(%rax,%rax,2), %rsi
	testq	%rsi, %rsi
	je	LBB37_10
	movl	$8, %edx
	movq	%rbx, %rdi
	addq	$8, %rsp
	popq	%rbx
	popq	%r14
	popq	%r15
	popq	%rbp
	jmp	___rust_dealloc
LBB37_10:
	addq	$8, %rsp
	popq	%rbx
	popq	%r14
	popq	%r15
	popq	%rbp
	retq
	.cfi_endproc

	.p2align	4, 0x90
__ZN4core3ptr13drop_in_place17h3e42d7ab33a69cb8E:
	.cfi_startproc
	pushq	%rbp
	.cfi_def_cfa_offset 16
	.cfi_offset %rbp, -16
	movq	%rsp, %rbp
	.cfi_def_cfa_register %rbp
	pushq	%r15
	pushq	%r14
	pushq	%rbx
	pushq	%rax
	.cfi_offset %rbx, -40
	.cfi_offset %r14, -32
	.cfi_offset %r15, -24
	movq	8(%rdi), %rax
	testq	%rax, %rax
	je	LBB38_7
	movq	%rdi, %r14
	movq	(%rdi), %rbx
	leaq	(%rax,%rax,2), %rax
	leaq	(%rbx,%rax,8), %r15
	jmp	LBB38_2
	.p2align	4, 0x90
LBB38_5:
	addq	$24, %rbx
	cmpq	%r15, %rbx
	je	LBB38_6
LBB38_2:
	movq	(%rbx), %rdi
	testq	%rdi, %rdi
	je	LBB38_5
	movq	8(%rbx), %rsi
	testq	%rsi, %rsi
	je	LBB38_5
	movl	$1, %edx
	callq	___rust_dealloc
	jmp	LBB38_5
LBB38_6:
	movq	8(%r14), %rax
	shlq	$3, %rax
	leaq	(%rax,%rax,2), %rsi
	testq	%rsi, %rsi
	je	LBB38_7
	movq	(%r14), %rdi
	movl	$8, %edx
	addq	$8, %rsp
	popq	%rbx
	popq	%r14
	popq	%r15
	popq	%rbp
	jmp	___rust_dealloc
LBB38_7:
	addq	$8, %rsp
	popq	%rbx
	popq	%r14
	popq	%r15
	popq	%rbp
	retq
	.cfi_endproc

	.p2align	4, 0x90
__ZN4core3ptr13drop_in_place17h40725718a23aa66fE:
	.cfi_startproc
	pushq	%rbp
	.cfi_def_cfa_offset 16
	.cfi_offset %rbp, -16
	movq	%rsp, %rbp
	.cfi_def_cfa_register %rbp
	pushq	%r15
	pushq	%r14
	pushq	%r12
	pushq	%rbx
	.cfi_offset %rbx, -48
	.cfi_offset %r12, -40
	.cfi_offset %r14, -32
	.cfi_offset %r15, -24
	cmpq	$0, (%rdi)
	je	LBB39_1
LBB39_15:
	popq	%rbx
	popq	%r12
	popq	%r14
	popq	%r15
	popq	%rbp
	retq
LBB39_1:
	movq	%rdi, %r14
	movq	16(%rdi), %rax
	testq	%rax, %rax
	je	LBB39_9
	movq	8(%r14), %rbx
	leaq	(%rax,%rax,2), %rax
	leaq	(%rbx,%rax,8), %r15
	jmp	LBB39_3
	.p2align	4, 0x90
LBB39_6:
	addq	$24, %rbx
	cmpq	%r15, %rbx
	je	LBB39_7
LBB39_3:
	movq	(%rbx), %rdi
	testq	%rdi, %rdi
	je	LBB39_6
	movq	8(%rbx), %rsi
	testq	%rsi, %rsi
	je	LBB39_6
	movl	$1, %edx
	callq	___rust_dealloc
	jmp	LBB39_6
LBB39_7:
	movq	16(%r14), %rax
	shlq	$3, %rax
	leaq	(%rax,%rax,2), %rsi
	testq	%rsi, %rsi
	je	LBB39_9
	movq	8(%r14), %rdi
	movl	$8, %edx
	callq	___rust_dealloc
LBB39_9:
	movq	32(%r14), %r15
	testq	%r15, %r15
	je	LBB39_15
	movq	24(%r14), %r12
	shlq	$5, %r15
	xorl	%ebx, %ebx
	jmp	LBB39_11
	.p2align	4, 0x90
LBB39_13:
	addq	$32, %rbx
	cmpq	%rbx, %r15
	je	LBB39_14
LBB39_11:
	movq	24(%r12,%rbx), %rax
	shlq	$3, %rax
	leaq	(%rax,%rax,2), %rsi
	testq	%rsi, %rsi
	je	LBB39_13
	movq	16(%r12,%rbx), %rdi
	movl	$8, %edx
	callq	___rust_dealloc
	jmp	LBB39_13
LBB39_14:
	movq	32(%r14), %rsi
	shlq	$5, %rsi
	je	LBB39_15
	movq	24(%r14), %rdi
	movl	$8, %edx
	popq	%rbx
	popq	%r12
	popq	%r14
	popq	%r15
	popq	%rbp
	jmp	___rust_dealloc
	.cfi_endproc

	.p2align	4, 0x90
__ZN4core3ptr13drop_in_place17h48dcc8e9104b20bdE:
	.cfi_startproc
	pushq	%rbp
	.cfi_def_cfa_offset 16
	.cfi_offset %rbp, -16
	movq	%rsp, %rbp
	.cfi_def_cfa_register %rbp
	pushq	%r15
	pushq	%r14
	pushq	%r12
	pushq	%rbx
	.cfi_offset %rbx, -48
	.cfi_offset %r12, -40
	.cfi_offset %r14, -32
	.cfi_offset %r15, -24
	cmpq	$0, (%rdi)
	je	LBB40_1
LBB40_12:
	popq	%rbx
	popq	%r12
	popq	%r14
	popq	%r15
	popq	%rbp
	retq
LBB40_1:
	movq	%rdi, %r14
	movq	16(%rdi), %rax
	testq	%rax, %rax
	je	LBB40_11
	movq	8(%r14), %r12
	shlq	$3, %rax
	leaq	(%rax,%rax,8), %r15
	xorl	%ebx, %ebx
	jmp	LBB40_3
	.p2align	4, 0x90
LBB40_8:
	addq	$72, %rbx
	cmpq	%rbx, %r15
	je	LBB40_9
LBB40_3:
	cmpq	$0, 8(%r12,%rbx)
	jne	LBB40_8
	movq	48(%r12,%rbx), %rax
	shlq	$3, %rax
	leaq	(%rax,%rax,4), %rsi
	testq	%rsi, %rsi
	je	LBB40_6
	movq	40(%r12,%rbx), %rdi
	movl	$8, %edx
	callq	___rust_dealloc
LBB40_6:
	movq	64(%r12,%rbx), %rsi
	shlq	$5, %rsi
	je	LBB40_8
	movq	56(%r12,%rbx), %rdi
	movl	$8, %edx
	callq	___rust_dealloc
	jmp	LBB40_8
LBB40_9:
	movq	16(%r14), %rax
	shlq	$3, %rax
	leaq	(%rax,%rax,8), %rsi
	testq	%rsi, %rsi
	je	LBB40_11
	movq	8(%r14), %rdi
	movl	$8, %edx
	callq	___rust_dealloc
LBB40_11:
	movq	32(%r14), %rax
	shlq	$3, %rax
	leaq	(%rax,%rax,2), %rsi
	testq	%rsi, %rsi
	je	LBB40_12
	movq	24(%r14), %rdi
	movl	$8, %edx
	popq	%rbx
	popq	%r12
	popq	%r14
	popq	%r15
	popq	%rbp
	jmp	___rust_dealloc
	.cfi_endproc

	.p2align	4, 0x90
__ZN4core3ptr13drop_in_place17h549a3eee91cbdb85E:
	.cfi_startproc
	pushq	%rbp
	.cfi_def_cfa_offset 16
	.cfi_offset %rbp, -16
	movq	%rsp, %rbp
	.cfi_def_cfa_register %rbp
	movq	8(%rdi), %rsi
	testq	%rsi, %rsi
	je	LBB41_3
	movq	(%rdi), %rdi
	testq	%rdi, %rdi
	je	LBB41_3
	shlq	$4, %rsi
	je	LBB41_3
	movl	$8, %edx
	popq	%rbp
	jmp	___rust_dealloc
LBB41_3:
	popq	%rbp
	retq
	.cfi_endproc

	.p2align	4, 0x90
__ZN4core3ptr13drop_in_place17h55b48aa34ed72becE:
	.cfi_startproc
	pushq	%rbp
	.cfi_def_cfa_offset 16
	.cfi_offset %rbp, -16
	movq	%rsp, %rbp
	.cfi_def_cfa_register %rbp
	movq	8(%rdi), %rsi
	testq	%rsi, %rsi
	je	LBB42_3
	movq	(%rdi), %rdi
	testq	%rdi, %rdi
	je	LBB42_3
	shlq	$5, %rsi
	je	LBB42_3
	movl	$8, %edx
	popq	%rbp
	jmp	___rust_dealloc
LBB42_3:
	popq	%rbp
	retq
	.cfi_endproc

	.p2align	4, 0x90
__ZN4core3ptr13drop_in_place17h5753dccb01403a47E:
	.cfi_startproc
	pushq	%rbp
	.cfi_def_cfa_offset 16
	.cfi_offset %rbp, -16
	movq	%rsp, %rbp
	.cfi_def_cfa_register %rbp
	movq	(%rdi), %rdi
	movl	$64, %esi
	movl	$8, %edx
	popq	%rbp
	jmp	___rust_dealloc
	.cfi_endproc

	.p2align	4, 0x90
__ZN4core3ptr13drop_in_place17h5a3d44666caa0789E:
	.cfi_startproc
	pushq	%rbp
	.cfi_def_cfa_offset 16
	.cfi_offset %rbp, -16
	movq	%rsp, %rbp
	.cfi_def_cfa_register %rbp
	pushq	%r15
	pushq	%r14
	pushq	%r13
	pushq	%r12
	pushq	%rbx
	pushq	%rax
	.cfi_offset %rbx, -56
	.cfi_offset %r12, -48
	.cfi_offset %r13, -40
	.cfi_offset %r14, -32
	.cfi_offset %r15, -24
	movq	(%rdi), %r15
	movq	16(%rdi), %r12
	testq	%r12, %r12
	je	LBB44_19
	movq	%rdi, -48(%rbp)
	shlq	$6, %r12
	addq	%r15, %r12
	jmp	LBB44_2
	.p2align	4, 0x90
LBB44_17:
	cmpq	%r12, %r15
	je	LBB44_18
LBB44_2:
	movq	%r15, %r13
	addq	$64, %r15
	movq	40(%r13), %rbx
	testq	%rbx, %rbx
	je	LBB44_17
	movq	56(%r13), %rax
	testq	%rax, %rax
	je	LBB44_13
	leaq	(%rax,%rax,8), %rax
	leaq	(%rbx,%rax,8), %r14
	jmp	LBB44_5
	.p2align	4, 0x90
LBB44_11:
	addq	$72, %rbx
	cmpq	%r14, %rbx
	je	LBB44_12
LBB44_5:
	movq	(%rbx), %rdi
	testq	%rdi, %rdi
	je	LBB44_8
	movq	8(%rbx), %rsi
	testq	%rsi, %rsi
	je	LBB44_8
	movl	$1, %edx
	callq	___rust_dealloc
LBB44_8:
	movq	40(%rbx), %rdi
	testq	%rdi, %rdi
	je	LBB44_11
	movq	48(%rbx), %rsi
	testq	%rsi, %rsi
	je	LBB44_11
	movl	$1, %edx
	callq	___rust_dealloc
	jmp	LBB44_11
	.p2align	4, 0x90
LBB44_12:
	movq	40(%r13), %rbx
LBB44_13:
	movq	48(%r13), %rax
	testq	%rax, %rax
	je	LBB44_17
	testq	%rbx, %rbx
	je	LBB44_17
	shlq	$3, %rax
	leaq	(%rax,%rax,8), %rsi
	testq	%rsi, %rsi
	je	LBB44_17
	movl	$8, %edx
	movq	%rbx, %rdi
	callq	___rust_dealloc
	jmp	LBB44_17
LBB44_18:
	movq	-48(%rbp), %rdi
	movq	(%rdi), %r15
LBB44_19:
	movq	8(%rdi), %rsi
	testq	%rsi, %rsi
	je	LBB44_22
	testq	%r15, %r15
	je	LBB44_22
	shlq	$6, %rsi
	je	LBB44_22
	movl	$8, %edx
	movq	%r15, %rdi
	addq	$8, %rsp
	popq	%rbx
	popq	%r12
	popq	%r13
	popq	%r14
	popq	%r15
	popq	%rbp
	jmp	___rust_dealloc
LBB44_22:
	addq	$8, %rsp
	popq	%rbx
	popq	%r12
	popq	%r13
	popq	%r14
	popq	%r15
	popq	%rbp
	retq
	.cfi_endproc

	.p2align	4, 0x90
__ZN4core3ptr13drop_in_place17h60c77407c0d460a4E:
	.cfi_startproc
	testb	%dil, %dil
	jne	LBB45_2
	retq
LBB45_2:
	pushq	%rbp
	.cfi_def_cfa_offset 16
	.cfi_offset %rbp, -16
	movq	%rsp, %rbp
	.cfi_def_cfa_register %rbp
	leaq	l___unnamed_7(%rip), %rdi
	leaq	l___unnamed_8(%rip), %rdx
	movl	$42, %esi
	callq	__ZN3std9panicking11begin_panic17h7b43677736edcd15E
	.cfi_endproc

	.p2align	4, 0x90
__ZN4core3ptr13drop_in_place17h75a8d771b0b344f7E:
	.cfi_startproc
	pushq	%rbp
	.cfi_def_cfa_offset 16
	.cfi_offset %rbp, -16
	movq	%rsp, %rbp
	.cfi_def_cfa_register %rbp
	pushq	%r15
	pushq	%r14
	pushq	%rbx
	pushq	%rax
	.cfi_offset %rbx, -40
	.cfi_offset %r14, -32
	.cfi_offset %r15, -24
	movq	%rdi, %r14
	movq	(%rdi), %rbx
	movq	16(%rdi), %rax
	testq	%rax, %rax
	je	LBB46_11
	imulq	$56, %rax, %r15
	addq	%rbx, %r15
	jmp	LBB46_2
	.p2align	4, 0x90
LBB46_9:
	addq	$56, %rbx
	cmpq	%r15, %rbx
	je	LBB46_10
LBB46_2:
	movq	(%rbx), %rdi
	testq	%rdi, %rdi
	je	LBB46_5
	movq	8(%rbx), %rsi
	testq	%rsi, %rsi
	je	LBB46_5
	movl	$1, %edx
	callq	___rust_dealloc
LBB46_5:
	movq	32(%rbx), %rsi
	testq	%rsi, %rsi
	je	LBB46_9
	movq	24(%rbx), %rdi
	testq	%rdi, %rdi
	je	LBB46_9
	shlq	$4, %rsi
	je	LBB46_9
	movl	$8, %edx
	callq	___rust_dealloc
	jmp	LBB46_9
LBB46_10:
	movq	(%r14), %rbx
LBB46_11:
	movq	8(%r14), %rax
	testq	%rax, %rax
	je	LBB46_14
	testq	%rbx, %rbx
	je	LBB46_14
	imulq	$56, %rax, %rsi
	testq	%rsi, %rsi
	je	LBB46_14
	movl	$8, %edx
	movq	%rbx, %rdi
	addq	$8, %rsp
	popq	%rbx
	popq	%r14
	popq	%r15
	popq	%rbp
	jmp	___rust_dealloc
LBB46_14:
	addq	$8, %rsp
	popq	%rbx
	popq	%r14
	popq	%r15
	popq	%rbp
	retq
	.cfi_endproc

	.p2align	4, 0x90
__ZN4core3ptr13drop_in_place17h76f80689fc0d19daE:
	.cfi_startproc
	pushq	%rbp
	.cfi_def_cfa_offset 16
	.cfi_offset %rbp, -16
	movq	%rsp, %rbp
	.cfi_def_cfa_register %rbp
	pushq	%rbx
	pushq	%rax
	.cfi_offset %rbx, -24
	movq	%rdi, %rbx
	movq	(%rdi), %rdi
	testq	%rdi, %rdi
	je	LBB47_6
	movq	8(%rbx), %rsi
	testq	%rsi, %rsi
	je	LBB47_3
	movl	$1, %edx
	callq	___rust_dealloc
LBB47_3:
	movq	32(%rbx), %rsi
	testq	%rsi, %rsi
	je	LBB47_6
	movq	24(%rbx), %rdi
	testq	%rdi, %rdi
	je	LBB47_6
	shlq	$4, %rsi
	je	LBB47_6
	movl	$8, %edx
	addq	$8, %rsp
	popq	%rbx
	popq	%rbp
	jmp	___rust_dealloc
LBB47_6:
	addq	$8, %rsp
	popq	%rbx
	popq	%rbp
	retq
	.cfi_endproc

	.p2align	4, 0x90
__ZN4core3ptr13drop_in_place17h78180e5425832c0cE:
	.cfi_startproc
	pushq	%rbp
	.cfi_def_cfa_offset 16
	.cfi_offset %rbp, -16
	movq	%rsp, %rbp
	.cfi_def_cfa_register %rbp
	pushq	%rbx
	pushq	%rax
	.cfi_offset %rbx, -24
	cmpq	$0, 8(%rdi)
	je	LBB48_1
LBB48_4:
	addq	$8, %rsp
	popq	%rbx
	popq	%rbp
	retq
LBB48_1:
	movq	%rdi, %rbx
	movq	48(%rdi), %rax
	shlq	$3, %rax
	leaq	(%rax,%rax,4), %rsi
	testq	%rsi, %rsi
	je	LBB48_3
	movq	40(%rbx), %rdi
	movl	$8, %edx
	callq	___rust_dealloc
LBB48_3:
	movq	64(%rbx), %rsi
	shlq	$5, %rsi
	je	LBB48_4
	movq	56(%rbx), %rdi
	movl	$8, %edx
	addq	$8, %rsp
	popq	%rbx
	popq	%rbp
	jmp	___rust_dealloc
	.cfi_endproc

	.p2align	4, 0x90
__ZN4core3ptr13drop_in_place17h7c6051aa47e799a6E:
	.cfi_startproc
	pushq	%rbp
	.cfi_def_cfa_offset 16
	.cfi_offset %rbp, -16
	movq	%rsp, %rbp
	.cfi_def_cfa_register %rbp
	popq	%rbp
	jmp	__ZN70_$LT$std..sys..unix..fd..FileDesc$u20$as$u20$core..ops..drop..Drop$GT$4drop17h633394f1cf9da1c8E
	.cfi_endproc

	.p2align	4, 0x90
__ZN4core3ptr13drop_in_place17h7d141148ca5f31a8E:
	.cfi_startproc
	pushq	%rbp
	.cfi_def_cfa_offset 16
	.cfi_offset %rbp, -16
	movq	%rsp, %rbp
	.cfi_def_cfa_register %rbp
	cmpq	$0, (%rdi)
	je	LBB50_3
	movq	%rdi, %rax
	movq	8(%rdi), %rdi
	testq	%rdi, %rdi
	je	LBB50_3
	movq	16(%rax), %rsi
	testq	%rsi, %rsi
	je	LBB50_3
	movl	$1, %edx
	popq	%rbp
	jmp	___rust_dealloc
LBB50_3:
	popq	%rbp
	retq
	.cfi_endproc

	.p2align	4, 0x90
__ZN4core3ptr13drop_in_place17h815b2b1b34f18f3bE:
	.cfi_startproc
	pushq	%rbp
	.cfi_def_cfa_offset 16
	.cfi_offset %rbp, -16
	movq	%rsp, %rbp
	.cfi_def_cfa_register %rbp
	cmpl	$3, 72(%rdi)
	je	LBB51_3
	movq	32(%rdi), %rsi
	testq	%rsi, %rsi
	je	LBB51_3
	shlq	$3, %rsi
	testq	%rsi, %rsi
	je	LBB51_3
	movq	24(%rdi), %rdi
	movl	$8, %edx
	popq	%rbp
	jmp	___rust_dealloc
LBB51_3:
	popq	%rbp
	retq
	.cfi_endproc

	.p2align	4, 0x90
__ZN4core3ptr13drop_in_place17h82acf9ff09597ab1E:
	.cfi_startproc
	pushq	%rbp
	.cfi_def_cfa_offset 16
	.cfi_offset %rbp, -16
	movq	%rsp, %rbp
	.cfi_def_cfa_register %rbp
	movq	24(%rdi), %rax
	shlq	$3, %rax
	leaq	(%rax,%rax,2), %rsi
	testq	%rsi, %rsi
	je	LBB52_1
	movq	16(%rdi), %rdi
	movl	$8, %edx
	popq	%rbp
	jmp	___rust_dealloc
LBB52_1:
	popq	%rbp
	retq
	.cfi_endproc

	.p2align	4, 0x90
__ZN4core3ptr13drop_in_place17h88233275be00d4efE:
	.cfi_startproc
	pushq	%rbp
	.cfi_def_cfa_offset 16
	.cfi_offset %rbp, -16
	movq	%rsp, %rbp
	.cfi_def_cfa_register %rbp
	movq	8(%rdi), %rax
	testq	%rax, %rax
	je	LBB53_3
	movq	(%rdi), %rdi
	testq	%rdi, %rdi
	je	LBB53_3
	shlq	$3, %rax
	leaq	(%rax,%rax,4), %rsi
	testq	%rsi, %rsi
	je	LBB53_3
	movl	$8, %edx
	popq	%rbp
	jmp	___rust_dealloc
LBB53_3:
	popq	%rbp
	retq
	.cfi_endproc

	.p2align	4, 0x90
__ZN4core3ptr13drop_in_place17h996b444e064b9453E:
	.cfi_startproc
	pushq	%rbp
	.cfi_def_cfa_offset 16
	.cfi_offset %rbp, -16
	movq	%rsp, %rbp
	.cfi_def_cfa_register %rbp
	pushq	%r15
	pushq	%r14
	pushq	%rbx
	pushq	%rax
	.cfi_offset %rbx, -40
	.cfi_offset %r14, -32
	.cfi_offset %r15, -24
	movq	%rdi, %r14
	movq	(%rdi), %rbx
	movq	16(%rdi), %rax
	testq	%rax, %rax
	je	LBB54_7
	leaq	(%rax,%rax,2), %rax
	leaq	(%rbx,%rax,8), %r15
	jmp	LBB54_2
	.p2align	4, 0x90
LBB54_5:
	addq	$24, %rbx
	cmpq	%r15, %rbx
	je	LBB54_6
LBB54_2:
	movq	(%rbx), %rdi
	testq	%rdi, %rdi
	je	LBB54_5
	movq	8(%rbx), %rsi
	testq	%rsi, %rsi
	je	LBB54_5
	movl	$1, %edx
	callq	___rust_dealloc
	jmp	LBB54_5
LBB54_6:
	movq	(%r14), %rbx
LBB54_7:
	movq	8(%r14), %rax
	testq	%rax, %rax
	je	LBB54_10
	testq	%rbx, %rbx
	je	LBB54_10
	shlq	$3, %rax
	leaq	(%rax,%rax,2), %rsi
	testq	%rsi, %rsi
	je	LBB54_10
	movl	$8, %edx
	movq	%rbx, %rdi
	addq	$8, %rsp
	popq	%rbx
	popq	%r14
	popq	%r15
	popq	%rbp
	jmp	___rust_dealloc
LBB54_10:
	addq	$8, %rsp
	popq	%rbx
	popq	%r14
	popq	%r15
	popq	%rbp
	retq
	.cfi_endproc

	.p2align	4, 0x90
__ZN4core3ptr13drop_in_place17h99ae6c94a6a2bdb9E:
	.cfi_startproc
	pushq	%rbp
	.cfi_def_cfa_offset 16
	.cfi_offset %rbp, -16
	movq	%rsp, %rbp
	.cfi_def_cfa_register %rbp
	pushq	%r15
	pushq	%r14
	pushq	%r12
	pushq	%rbx
	subq	$192, %rsp
	.cfi_offset %rbx, -48
	.cfi_offset %r12, -40
	.cfi_offset %r14, -32
	.cfi_offset %r15, -24
	movq	%rdi, %r14
	movq	(%rdi), %r12
	movq	16(%rdi), %rax
	testq	%rax, %rax
	je	LBB55_9
	imulq	$112, %rax, %r15
	xorl	%ebx, %ebx
	jmp	LBB55_2
	.p2align	4, 0x90
LBB55_7:
	addq	$112, %rbx
	cmpq	%rbx, %r15
	je	LBB55_8
LBB55_2:
	cmpq	$0, 8(%r12,%rbx)
	je	LBB55_7
	movq	24(%r12,%rbx), %rsi
	testq	%rsi, %rsi
	je	LBB55_7
	movq	16(%r12,%rbx), %rdi
	testq	%rdi, %rdi
	je	LBB55_7
	shlq	$4, %rsi
	je	LBB55_7
	movl	$8, %edx
	callq	___rust_dealloc
	jmp	LBB55_7
LBB55_8:
	movq	(%r14), %r12
LBB55_9:
	movq	8(%r14), %rax
	testq	%rax, %rax
	je	LBB55_13
	testq	%r12, %r12
	je	LBB55_13
	imulq	$112, %rax, %rsi
	testq	%rsi, %rsi
	je	LBB55_13
	movl	$8, %edx
	movq	%r12, %rdi
	callq	___rust_dealloc
LBB55_13:
	movq	24(%r14), %rcx
	testq	%rcx, %rcx
	je	LBB55_14
	movq	32(%r14), %rdi
	movq	40(%r14), %rax
	movzwl	10(%rcx), %edx
	testq	%rdi, %rdi
	je	LBB55_16
	movb	$1, %bl
	movq	%rcx, %rsi
	.p2align	4, 0x90
LBB55_19:
	testb	$1, %bl
	je	LBB55_17
	cmpq	$1, %rdi
	setne	%bl
	movq	1336(%rcx), %rcx
	movq	1336(%rsi,%rdx,8), %rsi
	movzwl	10(%rsi), %edx
	decq	%rdi
	jne	LBB55_19
	jmp	LBB55_21
LBB55_14:
	movq	$0, -96(%rbp)
	movq	$0, -64(%rbp)
	xorl	%eax, %eax
	jmp	LBB55_22
LBB55_16:
	movq	%rcx, %rsi
LBB55_21:
	movq	$0, -104(%rbp)
	movq	%rcx, -96(%rbp)
	movq	$0, -88(%rbp)
	movq	$0, -80(%rbp)
	movq	$0, -72(%rbp)
	movq	%rsi, -64(%rbp)
	movq	$0, -56(%rbp)
	movq	%rdx, -48(%rbp)
LBB55_22:
	movq	%rax, -40(%rbp)
	leaq	-224(%rbp), %rdi
	leaq	-104(%rbp), %rsi
	callq	__ZN112_$LT$alloc..collections..btree..map..IntoIter$LT$K$C$V$GT$$u20$as$u20$core..iter..traits..iterator..Iterator$GT$4next17h596f1f5f827296d1E
	movq	-208(%rbp), %rax
	cmpq	$2, %rax
	jne	LBB55_23
LBB55_30:
	movq	-96(%rbp), %rdi
	testq	%rdi, %rdi
	je	LBB55_33
	movq	-104(%rbp), %rbx
	movl	$1336, %r14d
	.p2align	4, 0x90
LBB55_32:
	movq	(%rdi), %r15
	testq	%rbx, %rbx
	leaq	1(%rbx), %rbx
	movl	$1432, %esi
	cmoveq	%r14, %rsi
	movl	$8, %edx
	callq	___rust_dealloc
	movq	%r15, %rdi
	testq	%r15, %r15
	jne	LBB55_32
LBB55_33:
	addq	$192, %rsp
	popq	%rbx
	popq	%r12
	popq	%r14
	popq	%r15
	popq	%rbp
	retq
LBB55_23:
	leaq	-224(%rbp), %r14
	leaq	-104(%rbp), %rbx
	jmp	LBB55_24
	.p2align	4, 0x90
LBB55_29:
	movq	%r14, %rdi
	movq	%rbx, %rsi
	callq	__ZN112_$LT$alloc..collections..btree..map..IntoIter$LT$K$C$V$GT$$u20$as$u20$core..iter..traits..iterator..Iterator$GT$4next17h596f1f5f827296d1E
	movq	-208(%rbp), %rax
	cmpq	$2, %rax
	je	LBB55_30
LBB55_24:
	testq	%rax, %rax
	je	LBB55_29
	movq	-192(%rbp), %rsi
	testq	%rsi, %rsi
	je	LBB55_29
	movq	-200(%rbp), %rdi
	testq	%rdi, %rdi
	je	LBB55_29
	shlq	$4, %rsi
	je	LBB55_29
	movl	$8, %edx
	callq	___rust_dealloc
	jmp	LBB55_29
LBB55_17:
	leaq	l___unnamed_9(%rip), %rax
	movq	%rax, -104(%rbp)
	leaq	__ZN44_$LT$$RF$T$u20$as$u20$core..fmt..Display$GT$3fmt17h40cabe6795daf26dE(%rip), %rax
	movq	%rax, -96(%rbp)
	leaq	l___unnamed_10(%rip), %rax
	movq	%rax, -224(%rbp)
	movq	$1, -216(%rbp)
	movq	$0, -208(%rbp)
	leaq	-104(%rbp), %rax
	movq	%rax, -192(%rbp)
	movq	$1, -184(%rbp)
	leaq	l___unnamed_11(%rip), %rsi
	leaq	-224(%rbp), %rdi
	callq	__ZN4core9panicking9panic_fmt17hfce5b7173905fc53E
	.cfi_endproc

	.p2align	4, 0x90
__ZN4core3ptr13drop_in_place17h9b7d01d5a5f40d8fE:
	.cfi_startproc
	pushq	%rbp
	.cfi_def_cfa_offset 16
	.cfi_offset %rbp, -16
	movq	%rsp, %rbp
	.cfi_def_cfa_register %rbp
	movq	(%rdi), %rax
	movq	8(%rax), %rcx
	incq	%rcx
	je	LBB56_2
	movq	%rcx, 8(%rax)
	popq	%rbp
	retq
LBB56_2:
	leaq	_str.0(%rip), %rdi
	leaq	l___unnamed_12(%rip), %rdx
	movl	$28, %esi
	callq	__ZN4core9panicking5panic17h383a6b80ea7021aaE
	.cfi_endproc

	.p2align	4, 0x90
__ZN4core3ptr13drop_in_place17h9d26fd39581bfb86E:
	.cfi_startproc
	pushq	%rbp
	.cfi_def_cfa_offset 16
	.cfi_offset %rbp, -16
	movq	%rsp, %rbp
	.cfi_def_cfa_register %rbp
	movq	8(%rdi), %rsi
	testq	%rsi, %rsi
	je	LBB57_3
	movq	(%rdi), %rdi
	testq	%rdi, %rdi
	je	LBB57_3
	shlq	$2, %rsi
	testq	%rsi, %rsi
	je	LBB57_3
	movl	$2, %edx
	popq	%rbp
	jmp	___rust_dealloc
LBB57_3:
	popq	%rbp
	retq
	.cfi_endproc

	.p2align	4, 0x90
__ZN4core3ptr13drop_in_place17h9da3147a325f53d6E:
	.cfi_startproc
	pushq	%rbp
	.cfi_def_cfa_offset 16
	.cfi_offset %rbp, -16
	movq	%rsp, %rbp
	.cfi_def_cfa_register %rbp
	pushq	%rbx
	pushq	%rax
	.cfi_offset %rbx, -24
	movq	%rdi, %rbx
	movq	(%rdi), %rdi
	testq	%rdi, %rdi
	je	LBB58_3
	movq	8(%rbx), %rsi
	testq	%rsi, %rsi
	je	LBB58_3
	movl	$1, %edx
	callq	___rust_dealloc
LBB58_3:
	movq	40(%rbx), %rdi
	testq	%rdi, %rdi
	je	LBB58_5
	movq	48(%rbx), %rsi
	testq	%rsi, %rsi
	je	LBB58_5
	movl	$1, %edx
	addq	$8, %rsp
	popq	%rbx
	popq	%rbp
	jmp	___rust_dealloc
LBB58_5:
	addq	$8, %rsp
	popq	%rbx
	popq	%rbp
	retq
	.cfi_endproc

	.p2align	4, 0x90
__ZN4core3ptr13drop_in_place17ha205c22d15dcae7aE:
Lfunc_begin5:
	.cfi_startproc
	.cfi_personality 155, _rust_eh_personality
	.cfi_lsda 16, Lexception5
	pushq	%rbp
	.cfi_def_cfa_offset 16
	.cfi_offset %rbp, -16
	movq	%rsp, %rbp
	.cfi_def_cfa_register %rbp
	pushq	%r15
	pushq	%r14
	pushq	%r12
	pushq	%rbx
	.cfi_offset %rbx, -48
	.cfi_offset %r12, -40
	.cfi_offset %r14, -32
	.cfi_offset %r15, -24
	movq	%rdi, %r15
	movq	(%rdi), %rdi
	imulq	$360, 16(%r15), %rbx
	.p2align	4, 0x90
LBB59_5:
	testq	%rbx, %rbx
	je	LBB59_6
	leaq	360(%rdi), %r12
	addq	$8, %rdi
	addq	$-360, %rbx
Ltmp21:
	callq	__ZN4core3ptr13drop_in_place17h05ba033c2b9b26dfE
Ltmp22:
	movq	%r12, %rdi
	jmp	LBB59_5
LBB59_6:
	movq	8(%r15), %rax
	testq	%rax, %rax
	je	LBB59_9
	movq	(%r15), %rdi
	testq	%rdi, %rdi
	je	LBB59_9
	imulq	$360, %rax, %rsi
	testq	%rsi, %rsi
	je	LBB59_9
	movl	$8, %edx
	popq	%rbx
	popq	%r12
	popq	%r14
	popq	%r15
	popq	%rbp
	jmp	___rust_dealloc
LBB59_9:
	popq	%rbx
	popq	%r12
	popq	%r14
	popq	%r15
	popq	%rbp
	retq
LBB59_1:
Ltmp23:
	movq	%rax, %r14
	testq	%rbx, %rbx
	je	LBB59_11
LBB59_2:
Ltmp24:
	movq	%r12, %rdi
	callq	__ZN4core3ptr13drop_in_place17h1868a6a683965eabE
Ltmp25:
	addq	$360, %r12
	addq	$-360, %rbx
	jne	LBB59_2
LBB59_11:
	movq	(%r15), %rdi
	movq	8(%r15), %rsi
	callq	__ZN4core3ptr13drop_in_place17h229d8ce8fec1ccb4E
	movq	%r14, %rdi
	callq	__Unwind_Resume
	ud2
LBB59_10:
Ltmp26:
	movq	%rax, %r14
	jmp	LBB59_11
Lfunc_end5:
	.cfi_endproc
	.section	__TEXT,__gcc_except_tab
	.p2align	2
GCC_except_table59:
Lexception5:
	.byte	255
	.byte	255
	.byte	1
	.uleb128 Lcst_end5-Lcst_begin5
Lcst_begin5:
	.uleb128 Ltmp21-Lfunc_begin5
	.uleb128 Ltmp22-Ltmp21
	.uleb128 Ltmp23-Lfunc_begin5
	.byte	0
	.uleb128 Ltmp24-Lfunc_begin5
	.uleb128 Ltmp25-Ltmp24
	.uleb128 Ltmp26-Lfunc_begin5
	.byte	0
	.uleb128 Ltmp25-Lfunc_begin5
	.uleb128 Lfunc_end5-Ltmp25
	.byte	0
	.byte	0
Lcst_end5:
	.p2align	2

	.section	__TEXT,__text,regular,pure_instructions
	.p2align	4, 0x90
__ZN4core3ptr13drop_in_place17ha2ddcc51bc02ae07E:
Lfunc_begin6:
	.cfi_startproc
	.cfi_personality 155, _rust_eh_personality
	.cfi_lsda 16, Lexception6
	pushq	%rbp
	.cfi_def_cfa_offset 16
	.cfi_offset %rbp, -16
	movq	%rsp, %rbp
	.cfi_def_cfa_register %rbp
	pushq	%r14
	pushq	%rbx
	.cfi_offset %rbx, -32
	.cfi_offset %r14, -24
	movb	8(%rdi), %cl
	cmpb	$2, %cl
	jne	LBB60_1
	popq	%rbx
	popq	%r14
	popq	%rbp
	retq
LBB60_1:
	movq	%rdi, %rbx
	movq	__ZN9backtrace4lock9LOCK_HELD7__getit5__KEY17hee2d6b9a4108d043E.0.0@TLVP(%rip), %rdi
	callq	*(%rdi)
	movb	(%rax), %al
	testb	%al, %al
	je	LBB60_4
	cmpb	$2, %al
	je	LBB60_3
	movq	__ZN9backtrace4lock9LOCK_HELD7__getit5__KEY17hee2d6b9a4108d043E.0.0@TLVP(%rip), %rdi
	callq	*(%rdi)
	movb	$0, (%rax)
	testb	%cl, %cl
	jne	LBB60_10
	movq	(%rbx), %r14
	movq	__ZN3std9panicking11panic_count18GLOBAL_PANIC_COUNT17h5754c1d48a496461E@GOTPCREL(%rip), %rax
	movq	(%rax), %rax
	testq	%rax, %rax
	jne	LBB60_8
LBB60_10:
	movq	(%rbx), %rax
	movq	(%rax), %rdi
	popq	%rbx
	popq	%r14
	popq	%rbp
	jmp	_pthread_mutex_unlock
LBB60_8:
	callq	__ZN3std9panicking11panic_count17is_zero_slow_path17ha588394117c50e3dE
	testb	%al, %al
	jne	LBB60_10
	movb	$1, 8(%r14)
	jmp	LBB60_10
LBB60_3:
	movq	__ZN9backtrace4lock9LOCK_HELD7__getit5__KEY17hee2d6b9a4108d043E.0.0@TLVP(%rip), %rdi
	callq	*(%rdi)
	movb	$0, (%rax)
LBB60_4:
Ltmp27:
	leaq	l___unnamed_13(%rip), %rdi
	leaq	l___unnamed_14(%rip), %rdx
	movl	$28, %esi
	callq	__ZN3std9panicking11begin_panic17h7b43677736edcd15E
Ltmp28:
	ud2
LBB60_12:
Ltmp29:
	movq	%rax, %r14
	movq	%rbx, %rdi
	callq	__ZN4core3ptr13drop_in_place17hf745c4f221d39facE
	movq	%r14, %rdi
	callq	__Unwind_Resume
	ud2
Lfunc_end6:
	.cfi_endproc
	.section	__TEXT,__gcc_except_tab
	.p2align	2
GCC_except_table60:
Lexception6:
	.byte	255
	.byte	255
	.byte	1
	.uleb128 Lcst_end6-Lcst_begin6
Lcst_begin6:
	.uleb128 Lfunc_begin6-Lfunc_begin6
	.uleb128 Ltmp27-Lfunc_begin6
	.byte	0
	.byte	0
	.uleb128 Ltmp27-Lfunc_begin6
	.uleb128 Ltmp28-Ltmp27
	.uleb128 Ltmp29-Lfunc_begin6
	.byte	0
	.uleb128 Ltmp28-Lfunc_begin6
	.uleb128 Lfunc_end6-Ltmp28
	.byte	0
	.byte	0
Lcst_end6:
	.p2align	2

	.section	__TEXT,__text,regular,pure_instructions
	.p2align	4, 0x90
__ZN4core3ptr13drop_in_place17ha5ceb5f44e547293E:
	.cfi_startproc
	pushq	%rbp
	.cfi_def_cfa_offset 16
	.cfi_offset %rbp, -16
	movq	%rsp, %rbp
	.cfi_def_cfa_register %rbp
	movq	(%rdi), %rax
	movq	8(%rdi), %rcx
	movq	16(%rax), %rdx
	movq	%rdx, 16(%rcx)
	movq	(%rax), %rdx
	movq	8(%rax), %rax
	movq	%rax, 8(%rcx)
	movq	%rdx, (%rcx)
	popq	%rbp
	retq
	.cfi_endproc

	.p2align	4, 0x90
__ZN4core3ptr13drop_in_place17ha9b4a8e836f0b099E:
	.cfi_startproc
	pushq	%rbp
	.cfi_def_cfa_offset 16
	.cfi_offset %rbp, -16
	movq	%rsp, %rbp
	.cfi_def_cfa_register %rbp
	pushq	%rbx
	pushq	%rax
	.cfi_offset %rbx, -24
	movq	%rdi, %rbx
	movq	48(%rdi), %rsi
	testq	%rsi, %rsi
	je	LBB62_4
	movq	40(%rbx), %rdi
	testq	%rdi, %rdi
	je	LBB62_4
	shlq	$2, %rsi
	testq	%rsi, %rsi
	je	LBB62_4
	movl	$2, %edx
	callq	___rust_dealloc
LBB62_4:
	movq	72(%rbx), %rax
	testq	%rax, %rax
	je	LBB62_8
	movq	64(%rbx), %rdi
	testq	%rdi, %rdi
	je	LBB62_8
	shlq	$3, %rax
	leaq	(%rax,%rax,2), %rsi
	testq	%rsi, %rsi
	je	LBB62_8
	movl	$8, %edx
	callq	___rust_dealloc
LBB62_8:
	movq	96(%rbx), %rsi
	testq	%rsi, %rsi
	je	LBB62_9
	movq	88(%rbx), %rdi
	testq	%rdi, %rdi
	je	LBB62_9
	shlq	$2, %rsi
	testq	%rsi, %rsi
	je	LBB62_9
	movl	$2, %edx
	callq	___rust_dealloc
LBB62_9:
	movq	120(%rbx), %rsi
	testq	%rsi, %rsi
	je	LBB62_16
	movq	112(%rbx), %rdi
	testq	%rdi, %rdi
	je	LBB62_16
	shlq	$6, %rsi
	je	LBB62_16
	movl	$8, %edx
	addq	$8, %rsp
	popq	%rbx
	popq	%rbp
	jmp	___rust_dealloc
LBB62_16:
	addq	$8, %rsp
	popq	%rbx
	popq	%rbp
	retq
	.cfi_endproc

	.p2align	4, 0x90
__ZN4core3ptr13drop_in_place17had1438bc8cd30d48E:
	.cfi_startproc
	pushq	%rbp
	.cfi_def_cfa_offset 16
	.cfi_offset %rbp, -16
	movq	%rsp, %rbp
	.cfi_def_cfa_register %rbp
	pushq	%r15
	pushq	%r14
	pushq	%rbx
	pushq	%rax
	.cfi_offset %rbx, -40
	.cfi_offset %r14, -32
	.cfi_offset %r15, -24
	movq	40(%rdi), %rbx
	testq	%rbx, %rbx
	je	LBB63_14
	movq	%rdi, %r14
	movq	56(%rdi), %rax
	testq	%rax, %rax
	je	LBB63_11
	leaq	(%rax,%rax,8), %rax
	leaq	(%rbx,%rax,8), %r15
	jmp	LBB63_3
	.p2align	4, 0x90
LBB63_9:
	addq	$72, %rbx
	cmpq	%r15, %rbx
	je	LBB63_10
LBB63_3:
	movq	(%rbx), %rdi
	testq	%rdi, %rdi
	je	LBB63_6
	movq	8(%rbx), %rsi
	testq	%rsi, %rsi
	je	LBB63_6
	movl	$1, %edx
	callq	___rust_dealloc
LBB63_6:
	movq	40(%rbx), %rdi
	testq	%rdi, %rdi
	je	LBB63_9
	movq	48(%rbx), %rsi
	testq	%rsi, %rsi
	je	LBB63_9
	movl	$1, %edx
	callq	___rust_dealloc
	jmp	LBB63_9
LBB63_10:
	movq	40(%r14), %rbx
LBB63_11:
	movq	48(%r14), %rax
	testq	%rax, %rax
	je	LBB63_14
	testq	%rbx, %rbx
	je	LBB63_14
	shlq	$3, %rax
	leaq	(%rax,%rax,8), %rsi
	testq	%rsi, %rsi
	je	LBB63_14
	movl	$8, %edx
	movq	%rbx, %rdi
	addq	$8, %rsp
	popq	%rbx
	popq	%r14
	popq	%r15
	popq	%rbp
	jmp	___rust_dealloc
LBB63_14:
	addq	$8, %rsp
	popq	%rbx
	popq	%r14
	popq	%r15
	popq	%rbp
	retq
	.cfi_endproc

	.p2align	4, 0x90
__ZN4core3ptr13drop_in_place17had729a7f492222ecE:
	.cfi_startproc
	pushq	%rbp
	.cfi_def_cfa_offset 16
	.cfi_offset %rbp, -16
	movq	%rsp, %rbp
	.cfi_def_cfa_register %rbp
	popq	%rbp
	jmp	_munmap
	.cfi_endproc

	.p2align	4, 0x90
__ZN4core3ptr13drop_in_place17haf31bcfa98e8dcdfE:
	.cfi_startproc
	pushq	%rbp
	.cfi_def_cfa_offset 16
	.cfi_offset %rbp, -16
	movq	%rsp, %rbp
	.cfi_def_cfa_register %rbp
	testq	%rsi, %rsi
	je	LBB65_3
	testq	%rdi, %rdi
	je	LBB65_3
	movq	%rsi, %rax
	shlq	$9, %rax
	leaq	(%rax,%rsi,8), %rsi
	testq	%rsi, %rsi
	je	LBB65_3
	movl	$8, %edx
	popq	%rbp
	jmp	___rust_dealloc
LBB65_3:
	popq	%rbp
	retq
	.cfi_endproc

	.p2align	4, 0x90
__ZN4core3ptr13drop_in_place17hba7831cd21470949E:
	.cfi_startproc
	pushq	%rbp
	.cfi_def_cfa_offset 16
	.cfi_offset %rbp, -16
	movq	%rsp, %rbp
	.cfi_def_cfa_register %rbp
	movq	40(%rdi), %rax
	testq	%rax, %rax
	je	LBB66_3
	movq	32(%rdi), %rdi
	testq	%rdi, %rdi
	je	LBB66_3
	shlq	$3, %rax
	leaq	(%rax,%rax,2), %rsi
	testq	%rsi, %rsi
	je	LBB66_3
	movl	$8, %edx
	popq	%rbp
	jmp	___rust_dealloc
LBB66_3:
	popq	%rbp
	retq
	.cfi_endproc

	.p2align	4, 0x90
__ZN4core3ptr13drop_in_place17hc60964110ff90ed8E:
Lfunc_begin7:
	.cfi_startproc
	.cfi_personality 155, _rust_eh_personality
	.cfi_lsda 16, Lexception7
	pushq	%rbp
	.cfi_def_cfa_offset 16
	.cfi_offset %rbp, -16
	movq	%rsp, %rbp
	.cfi_def_cfa_register %rbp
	pushq	%r14
	pushq	%rbx
	.cfi_offset %rbx, -32
	.cfi_offset %r14, -24
	movq	%rdi, %rbx
	addq	$56, %rdi
Ltmp30:
	callq	__ZN4core3ptr13drop_in_place17h99ae6c94a6a2bdb9E
Ltmp31:
	cmpl	$46, 344(%rbx)
	jne	LBB67_4
	popq	%rbx
	popq	%r14
	popq	%rbp
	retq
LBB67_4:
	addq	$176, %rbx
	movq	%rbx, %rdi
	popq	%rbx
	popq	%r14
	popq	%rbp
	jmp	__ZN4core3ptr13drop_in_place17ha9b4a8e836f0b099E
LBB67_3:
Ltmp32:
	movq	%rax, %r14
	addq	$176, %rbx
	movq	%rbx, %rdi
	callq	__ZN4core3ptr13drop_in_place17h10e17f129f079219E
	movq	%r14, %rdi
	callq	__Unwind_Resume
	ud2
Lfunc_end7:
	.cfi_endproc
	.section	__TEXT,__gcc_except_tab
	.p2align	2
GCC_except_table67:
Lexception7:
	.byte	255
	.byte	255
	.byte	1
	.uleb128 Lcst_end7-Lcst_begin7
Lcst_begin7:
	.uleb128 Ltmp30-Lfunc_begin7
	.uleb128 Ltmp31-Ltmp30
	.uleb128 Ltmp32-Lfunc_begin7
	.byte	0
	.uleb128 Ltmp31-Lfunc_begin7
	.uleb128 Lfunc_end7-Ltmp31
	.byte	0
	.byte	0
Lcst_end7:
	.p2align	2

	.section	__TEXT,__text,regular,pure_instructions
	.p2align	4, 0x90
__ZN4core3ptr13drop_in_place17hcb591ec11a21dcdbE:
	.cfi_startproc
	pushq	%rbp
	.cfi_def_cfa_offset 16
	.cfi_offset %rbp, -16
	movq	%rsp, %rbp
	.cfi_def_cfa_register %rbp
	pushq	%r15
	pushq	%r14
	pushq	%rbx
	pushq	%rax
	.cfi_offset %rbx, -40
	.cfi_offset %r14, -32
	.cfi_offset %r15, -24
	movq	%rdi, %r14
	movq	(%rdi), %rbx
	movq	16(%rdi), %rax
	testq	%rax, %rax
	je	LBB68_10
	leaq	(%rax,%rax,8), %rax
	leaq	(%rbx,%rax,8), %r15
	jmp	LBB68_2
	.p2align	4, 0x90
LBB68_8:
	addq	$72, %rbx
	cmpq	%r15, %rbx
	je	LBB68_9
LBB68_2:
	movq	(%rbx), %rdi
	testq	%rdi, %rdi
	je	LBB68_5
	movq	8(%rbx), %rsi
	testq	%rsi, %rsi
	je	LBB68_5
	movl	$1, %edx
	callq	___rust_dealloc
LBB68_5:
	movq	40(%rbx), %rdi
	testq	%rdi, %rdi
	je	LBB68_8
	movq	48(%rbx), %rsi
	testq	%rsi, %rsi
	je	LBB68_8
	movl	$1, %edx
	callq	___rust_dealloc
	jmp	LBB68_8
LBB68_9:
	movq	(%r14), %rbx
LBB68_10:
	movq	8(%r14), %rax
	testq	%rax, %rax
	je	LBB68_13
	testq	%rbx, %rbx
	je	LBB68_13
	shlq	$3, %rax
	leaq	(%rax,%rax,8), %rsi
	testq	%rsi, %rsi
	je	LBB68_13
	movl	$8, %edx
	movq	%rbx, %rdi
	addq	$8, %rsp
	popq	%rbx
	popq	%r14
	popq	%r15
	popq	%rbp
	jmp	___rust_dealloc
LBB68_13:
	addq	$8, %rsp
	popq	%rbx
	popq	%r14
	popq	%r15
	popq	%rbp
	retq
	.cfi_endproc

	.p2align	4, 0x90
__ZN4core3ptr13drop_in_place17hd2d028e5a7b73558E:
	.cfi_startproc
	pushq	%rbp
	.cfi_def_cfa_offset 16
	.cfi_offset %rbp, -16
	movq	%rsp, %rbp
	.cfi_def_cfa_register %rbp
	popq	%rbp
	jmp	__ZN4core3ptr13drop_in_place17ha9b4a8e836f0b099E
	.cfi_endproc

	.p2align	4, 0x90
__ZN4core3ptr13drop_in_place17hda4e414a3d70d7b2E:
	.cfi_startproc
	pushq	%rbp
	.cfi_def_cfa_offset 16
	.cfi_offset %rbp, -16
	movq	%rsp, %rbp
	.cfi_def_cfa_register %rbp
	pushq	%r15
	pushq	%r14
	pushq	%r12
	pushq	%rbx
	.cfi_offset %rbx, -48
	.cfi_offset %r12, -40
	.cfi_offset %r14, -32
	.cfi_offset %r15, -24
	movq	%rdi, %r14
	movq	(%rdi), %r12
	movq	16(%rdi), %r15
	testq	%r15, %r15
	je	LBB70_6
	shlq	$5, %r15
	xorl	%ebx, %ebx
	jmp	LBB70_2
	.p2align	4, 0x90
LBB70_4:
	addq	$32, %rbx
	cmpq	%rbx, %r15
	je	LBB70_5
LBB70_2:
	movq	24(%r12,%rbx), %rax
	shlq	$3, %rax
	leaq	(%rax,%rax,2), %rsi
	testq	%rsi, %rsi
	je	LBB70_4
	movq	16(%r12,%rbx), %rdi
	movl	$8, %edx
	callq	___rust_dealloc
	jmp	LBB70_4
LBB70_5:
	movq	(%r14), %r12
LBB70_6:
	movq	8(%r14), %rsi
	testq	%rsi, %rsi
	je	LBB70_9
	testq	%r12, %r12
	je	LBB70_9
	shlq	$5, %rsi
	je	LBB70_9
	movl	$8, %edx
	movq	%r12, %rdi
	popq	%rbx
	popq	%r12
	popq	%r14
	popq	%r15
	popq	%rbp
	jmp	___rust_dealloc
LBB70_9:
	popq	%rbx
	popq	%r12
	popq	%r14
	popq	%r15
	popq	%rbp
	retq
	.cfi_endproc

	.p2align	4, 0x90
__ZN4core3ptr13drop_in_place17he003754178c5e7ccE:
	.cfi_startproc
	pushq	%rbp
	.cfi_def_cfa_offset 16
	.cfi_offset %rbp, -16
	movq	%rsp, %rbp
	.cfi_def_cfa_register %rbp
	movq	8(%rdi), %rax
	shlq	$3, %rax
	leaq	(%rax,%rax,4), %rsi
	testq	%rsi, %rsi
	je	LBB71_1
	movq	(%rdi), %rdi
	movl	$8, %edx
	popq	%rbp
	jmp	___rust_dealloc
LBB71_1:
	popq	%rbp
	retq
	.cfi_endproc

	.p2align	4, 0x90
__ZN4core3ptr13drop_in_place17he3110f7711fc3911E:
Lfunc_begin8:
	.cfi_startproc
	.cfi_personality 155, _rust_eh_personality
	.cfi_lsda 16, Lexception8
	pushq	%rbp
	.cfi_def_cfa_offset 16
	.cfi_offset %rbp, -16
	movq	%rsp, %rbp
	.cfi_def_cfa_register %rbp
	pushq	%r15
	pushq	%r14
	pushq	%r13
	pushq	%r12
	pushq	%rbx
	pushq	%rax
	.cfi_offset %rbx, -56
	.cfi_offset %r12, -48
	.cfi_offset %r13, -40
	.cfi_offset %r14, -32
	.cfi_offset %r15, -24
	movq	%rdi, %r14
	movq	(%rdi), %r13
	movq	16(%rdi), %rax
	testq	%rax, %rax
	je	LBB72_11
	movq	%rax, %rcx
	shlq	$9, %rcx
	leaq	(%rcx,%rax,8), %r12
	xorl	%ebx, %ebx
	jmp	LBB72_2
	.p2align	4, 0x90
LBB72_9:
	addq	$520, %rbx
	cmpq	%rbx, %r12
	je	LBB72_10
LBB72_2:
	leaq	64(%r13,%rbx), %rdi
Ltmp33:
	callq	__ZN4core3ptr13drop_in_place17h99ae6c94a6a2bdb9E
Ltmp34:
	cmpl	$46, 352(%r13,%rbx)
	jne	LBB72_4
	cmpl	$2, 432(%r13,%rbx)
	jne	LBB72_6
LBB72_7:
	cmpl	$2, 472(%r13,%rbx)
	je	LBB72_9
	jmp	LBB72_8
	.p2align	4, 0x90
LBB72_4:
	leaq	184(%r13,%rbx), %rdi
	callq	__ZN4core3ptr13drop_in_place17ha9b4a8e836f0b099E
	cmpl	$2, 432(%r13,%rbx)
	je	LBB72_7
LBB72_6:
	leaq	432(%r13,%rbx), %rdi
	callq	__ZN4core3ptr13drop_in_place17h40725718a23aa66fE
	cmpl	$2, 472(%r13,%rbx)
	je	LBB72_9
LBB72_8:
	leaq	472(%r13,%rbx), %rdi
	callq	__ZN4core3ptr13drop_in_place17h48dcc8e9104b20bdE
	jmp	LBB72_9
LBB72_10:
	movq	(%r14), %r13
LBB72_11:
	movq	8(%r14), %rax
	testq	%rax, %rax
	je	LBB72_14
	testq	%r13, %r13
	je	LBB72_14
	movq	%rax, %rcx
	shlq	$9, %rcx
	leaq	(%rcx,%rax,8), %rsi
	testq	%rsi, %rsi
	je	LBB72_14
	movl	$8, %edx
	movq	%r13, %rdi
	addq	$8, %rsp
	popq	%rbx
	popq	%r12
	popq	%r13
	popq	%r14
	popq	%r15
	popq	%rbp
	jmp	___rust_dealloc
LBB72_14:
	addq	$8, %rsp
	popq	%rbx
	popq	%r12
	popq	%r13
	popq	%r14
	popq	%r15
	popq	%rbp
	retq
LBB72_17:
Ltmp35:
	movq	%rax, %r15
	leaq	184(%r13,%rbx), %rdi
	callq	__ZN4core3ptr13drop_in_place17h10e17f129f079219E
	leaq	432(%r13,%rbx), %rdi
	callq	__ZN4core3ptr13drop_in_place17h2a3586351bf4e206E
	leaq	472(%r13,%rbx), %rdi
	callq	__ZN4core3ptr13drop_in_place17h0cea8405bc95e93cE
	leaq	-520(%r12), %rax
	cmpq	%rbx, %rax
	je	LBB72_20
	subq	%rbx, %r12
	addq	$-520, %r12
	leaq	520(%r13,%rbx), %rbx
LBB72_15:
Ltmp36:
	movq	%rbx, %rdi
	callq	__ZN4core3ptr13drop_in_place17hebf9bc592cb95c3dE
Ltmp37:
	addq	$520, %rbx
	addq	$-520, %r12
	jne	LBB72_15
LBB72_20:
	movq	(%r14), %rdi
	movq	8(%r14), %rsi
	callq	__ZN4core3ptr13drop_in_place17haf31bcfa98e8dcdfE
	movq	%r15, %rdi
	callq	__Unwind_Resume
	ud2
LBB72_19:
Ltmp38:
	movq	%rax, %r15
	jmp	LBB72_20
Lfunc_end8:
	.cfi_endproc
	.section	__TEXT,__gcc_except_tab
	.p2align	2
GCC_except_table72:
Lexception8:
	.byte	255
	.byte	255
	.byte	1
	.uleb128 Lcst_end8-Lcst_begin8
Lcst_begin8:
	.uleb128 Ltmp33-Lfunc_begin8
	.uleb128 Ltmp34-Ltmp33
	.uleb128 Ltmp35-Lfunc_begin8
	.byte	0
	.uleb128 Ltmp36-Lfunc_begin8
	.uleb128 Ltmp37-Ltmp36
	.uleb128 Ltmp38-Lfunc_begin8
	.byte	0
	.uleb128 Ltmp37-Lfunc_begin8
	.uleb128 Lfunc_end8-Ltmp37
	.byte	0
	.byte	0
Lcst_end8:
	.p2align	2

	.section	__TEXT,__text,regular,pure_instructions
	.p2align	4, 0x90
__ZN4core3ptr13drop_in_place17hebf9bc592cb95c3dE:
Lfunc_begin9:
	.cfi_startproc
	.cfi_personality 155, _rust_eh_personality
	.cfi_lsda 16, Lexception9
	pushq	%rbp
	.cfi_def_cfa_offset 16
	.cfi_offset %rbp, -16
	movq	%rsp, %rbp
	.cfi_def_cfa_register %rbp
	pushq	%r14
	pushq	%rbx
	.cfi_offset %rbx, -32
	.cfi_offset %r14, -24
	movq	%rdi, %rbx
	addq	$64, %rdi
Ltmp39:
	callq	__ZN4core3ptr13drop_in_place17h99ae6c94a6a2bdb9E
Ltmp40:
	cmpl	$46, 352(%rbx)
	jne	LBB73_2
	cmpl	$2, 432(%rbx)
	jne	LBB73_4
LBB73_5:
	cmpl	$2, 472(%rbx)
	jne	LBB73_6
LBB73_8:
	popq	%rbx
	popq	%r14
	popq	%rbp
	retq
LBB73_2:
	leaq	184(%rbx), %rdi
	callq	__ZN4core3ptr13drop_in_place17ha9b4a8e836f0b099E
	cmpl	$2, 432(%rbx)
	je	LBB73_5
LBB73_4:
	leaq	432(%rbx), %rdi
	callq	__ZN4core3ptr13drop_in_place17h40725718a23aa66fE
	cmpl	$2, 472(%rbx)
	je	LBB73_8
LBB73_6:
	addq	$472, %rbx
	movq	%rbx, %rdi
	popq	%rbx
	popq	%r14
	popq	%rbp
	jmp	__ZN4core3ptr13drop_in_place17h48dcc8e9104b20bdE
LBB73_7:
Ltmp41:
	movq	%rax, %r14
	leaq	184(%rbx), %rdi
	callq	__ZN4core3ptr13drop_in_place17h10e17f129f079219E
	leaq	432(%rbx), %rdi
	callq	__ZN4core3ptr13drop_in_place17h2a3586351bf4e206E
	addq	$472, %rbx
	movq	%rbx, %rdi
	callq	__ZN4core3ptr13drop_in_place17h0cea8405bc95e93cE
	movq	%r14, %rdi
	callq	__Unwind_Resume
	ud2
Lfunc_end9:
	.cfi_endproc
	.section	__TEXT,__gcc_except_tab
	.p2align	2
GCC_except_table73:
Lexception9:
	.byte	255
	.byte	255
	.byte	1
	.uleb128 Lcst_end9-Lcst_begin9
Lcst_begin9:
	.uleb128 Ltmp39-Lfunc_begin9
	.uleb128 Ltmp40-Ltmp39
	.uleb128 Ltmp41-Lfunc_begin9
	.byte	0
	.uleb128 Ltmp40-Lfunc_begin9
	.uleb128 Lfunc_end9-Ltmp40
	.byte	0
	.byte	0
Lcst_end9:
	.p2align	2

	.section	__TEXT,__text,regular,pure_instructions
	.p2align	4, 0x90
__ZN4core3ptr13drop_in_place17hf0a7ede8a1fc8f9dE:
	.cfi_startproc
	pushq	%rbp
	.cfi_def_cfa_offset 16
	.cfi_offset %rbp, -16
	movq	%rsp, %rbp
	.cfi_def_cfa_register %rbp
	movq	8(%rdi), %rsi
	testq	%rsi, %rsi
	je	LBB74_3
	movq	(%rdi), %rdi
	testq	%rdi, %rdi
	je	LBB74_3
	shlq	$6, %rsi
	je	LBB74_3
	movl	$8, %edx
	popq	%rbp
	jmp	___rust_dealloc
LBB74_3:
	popq	%rbp
	retq
	.cfi_endproc

	.p2align	4, 0x90
__ZN4core3ptr13drop_in_place17hf412b0dd091a4590E:
Lfunc_begin10:
	.cfi_startproc
	.cfi_personality 155, _rust_eh_personality
	.cfi_lsda 16, Lexception10
	pushq	%rbp
	.cfi_def_cfa_offset 16
	.cfi_offset %rbp, -16
	movq	%rsp, %rbp
	.cfi_def_cfa_register %rbp
	pushq	%r15
	pushq	%r14
	pushq	%rbx
	pushq	%rax
	.cfi_offset %rbx, -40
	.cfi_offset %r14, -32
	.cfi_offset %r15, -24
	movq	%rdi, %rbx
	cmpq	$0, (%rdi)
	je	LBB75_1
	cmpb	$2, 8(%rbx)
	jb	LBB75_10
	movq	16(%rbx), %r15
	movq	(%r15), %rdi
	movq	8(%r15), %rax
Ltmp42:
	callq	*(%rax)
Ltmp43:
	movq	8(%r15), %rax
	movq	8(%rax), %rsi
	testq	%rsi, %rsi
	je	LBB75_9
	movq	(%r15), %rdi
	movq	16(%rax), %rdx
	callq	___rust_dealloc
LBB75_9:
	movq	16(%rbx), %rdi
	movl	$24, %esi
	movl	$8, %edx
	jmp	LBB75_4
LBB75_1:
	movq	8(%rbx), %rdi
	testq	%rdi, %rdi
	je	LBB75_10
	movq	16(%rbx), %rsi
	testq	%rsi, %rsi
	je	LBB75_10
	movl	$1, %edx
LBB75_4:
	addq	$8, %rsp
	popq	%rbx
	popq	%r14
	popq	%r15
	popq	%rbp
	jmp	___rust_dealloc
LBB75_10:
	addq	$8, %rsp
	popq	%rbx
	popq	%r14
	popq	%r15
	popq	%rbp
	retq
LBB75_11:
Ltmp44:
	movq	%rax, %r14
	movq	(%r15), %rdi
	movq	8(%r15), %rsi
	callq	__ZN5alloc5alloc8box_free17h3e1a46f2a137386dE
	movq	16(%rbx), %rdi
	callq	__ZN5alloc5alloc8box_free17hfa06cd1f35cd755aE
	movq	%r14, %rdi
	callq	__Unwind_Resume
	ud2
Lfunc_end10:
	.cfi_endproc
	.section	__TEXT,__gcc_except_tab
	.p2align	2
GCC_except_table75:
Lexception10:
	.byte	255
	.byte	255
	.byte	1
	.uleb128 Lcst_end10-Lcst_begin10
Lcst_begin10:
	.uleb128 Ltmp42-Lfunc_begin10
	.uleb128 Ltmp43-Ltmp42
	.uleb128 Ltmp44-Lfunc_begin10
	.byte	0
	.uleb128 Ltmp43-Lfunc_begin10
	.uleb128 Lfunc_end10-Ltmp43
	.byte	0
	.byte	0
Lcst_end10:
	.p2align	2

	.section	__TEXT,__text,regular,pure_instructions
	.p2align	4, 0x90
__ZN4core3ptr13drop_in_place17hf745c4f221d39facE:
	.cfi_startproc
	pushq	%rbp
	.cfi_def_cfa_offset 16
	.cfi_offset %rbp, -16
	movq	%rsp, %rbp
	.cfi_def_cfa_register %rbp
	pushq	%r14
	pushq	%rbx
	.cfi_offset %rbx, -32
	.cfi_offset %r14, -24
	movb	8(%rdi), %al
	cmpb	$2, %al
	jne	LBB76_1
	popq	%rbx
	popq	%r14
	popq	%rbp
	retq
LBB76_1:
	movq	%rdi, %rbx
	testb	%al, %al
	jne	LBB76_5
	movq	(%rbx), %r14
	movq	__ZN3std9panicking11panic_count18GLOBAL_PANIC_COUNT17h5754c1d48a496461E@GOTPCREL(%rip), %rax
	movq	(%rax), %rax
	testq	%rax, %rax
	jne	LBB76_3
LBB76_5:
	movq	(%rbx), %rax
	movq	(%rax), %rdi
	popq	%rbx
	popq	%r14
	popq	%rbp
	jmp	_pthread_mutex_unlock
LBB76_3:
	callq	__ZN3std9panicking11panic_count17is_zero_slow_path17ha588394117c50e3dE
	testb	%al, %al
	jne	LBB76_5
	movb	$1, 8(%r14)
	jmp	LBB76_5
	.cfi_endproc

	.p2align	4, 0x90
__ZN4core3ptr13drop_in_place17hf90e89beff4d76e8E:
	.cfi_startproc
	pushq	%rbp
	.cfi_def_cfa_offset 16
	.cfi_offset %rbp, -16
	movq	%rsp, %rbp
	.cfi_def_cfa_register %rbp
	cmpq	$0, (%rdi)
	je	LBB77_4
	movq	16(%rdi), %rsi
	testq	%rsi, %rsi
	je	LBB77_4
	movq	8(%rdi), %rdi
	testq	%rdi, %rdi
	je	LBB77_4
	shlq	$4, %rsi
	je	LBB77_4
	movl	$8, %edx
	popq	%rbp
	jmp	___rust_dealloc
LBB77_4:
	popq	%rbp
	retq
	.cfi_endproc

	.p2align	4, 0x90
__ZN4core3ptr13drop_in_place17hfb7a55e03809c65eE:
	.cfi_startproc
	pushq	%rbp
	.cfi_def_cfa_offset 16
	.cfi_offset %rbp, -16
	movq	%rsp, %rbp
	.cfi_def_cfa_register %rbp
	popq	%rbp
	jmp	__ZN4core3ptr13drop_in_place17h5a3d44666caa0789E
	.cfi_endproc

	.p2align	4, 0x90
__ZN4core5slice4sort14break_patterns17h4b919f57dc9eabf6E:
	.cfi_startproc
	pushq	%rbp
	.cfi_def_cfa_offset 16
	.cfi_offset %rbp, -16
	movq	%rsp, %rbp
	.cfi_def_cfa_register %rbp
	pushq	%rbx
	subq	$24, %rsp
	.cfi_offset %rbx, -24
	cmpq	$8, %rsi
	jb	LBB79_11
	leaq	-1(%rsi), %rax
	bsrq	%rax, %rcx
	xorl	$63, %ecx
	movq	$-1, %r8
	shrq	%cl, %r8
	incq	%r8
	je	LBB79_12
	movq	%rsi, %r10
	shrq	$2, %r10
	decq	%r8
	leaq	-1(%r10,%r10), %r9
	movl	%esi, %eax
	shll	$13, %eax
	xorl	%esi, %eax
	movl	%eax, %ecx
	shrl	$17, %ecx
	xorl	%eax, %ecx
	movl	%ecx, %eax
	shll	$5, %eax
	xorl	%ecx, %eax
	movl	%eax, %ecx
	shll	$13, %ecx
	xorl	%eax, %ecx
	movl	%ecx, %edx
	shrl	$17, %edx
	xorl	%ecx, %edx
	movl	%edx, %r11d
	shll	$5, %r11d
	xorl	%edx, %r11d
	shlq	$32, %rax
	addq	%r11, %rax
	andq	%r8, %rax
	xorl	%edx, %edx
	cmpq	%rsi, %rax
	cmovaeq	%rsi, %rdx
	cmpq	%rsi, %r9
	jae	LBB79_6
	subq	%rdx, %rax
	cmpq	%rsi, %rax
	jae	LBB79_13
	addq	%r10, %r10
	leaq	(%r9,%r9,2), %rdx
	leaq	(%rax,%rax,2), %rax
	movq	16(%rdi,%rdx,8), %rcx
	movq	%rcx, -16(%rbp)
	movq	(%rdi,%rdx,8), %r9
	movq	8(%rdi,%rdx,8), %rcx
	movq	%rcx, -24(%rbp)
	movq	%r9, -32(%rbp)
	movq	16(%rdi,%rax,8), %r9
	movq	(%rdi,%rax,8), %rcx
	movq	8(%rdi,%rax,8), %rbx
	movq	%rcx, (%rdi,%rdx,8)
	movq	%rbx, 8(%rdi,%rdx,8)
	movq	%r9, 16(%rdi,%rdx,8)
	movq	-16(%rbp), %rcx
	movq	%rcx, 16(%rdi,%rax,8)
	movq	-32(%rbp), %rcx
	movq	-24(%rbp), %rdx
	movq	%rdx, 8(%rdi,%rax,8)
	movq	%rcx, (%rdi,%rax,8)
	movl	%r11d, %eax
	shll	$13, %eax
	xorl	%r11d, %eax
	movl	%eax, %ecx
	shrl	$17, %ecx
	xorl	%eax, %ecx
	movl	%ecx, %eax
	shll	$5, %eax
	xorl	%ecx, %eax
	movl	%eax, %ecx
	shll	$13, %ecx
	xorl	%eax, %ecx
	movl	%ecx, %edx
	shrl	$17, %edx
	xorl	%ecx, %edx
	movl	%edx, %ecx
	shll	$5, %ecx
	xorl	%edx, %ecx
	shlq	$32, %rax
	addq	%rcx, %rax
	andq	%r8, %rax
	xorl	%edx, %edx
	cmpq	%rsi, %rax
	cmovaeq	%rsi, %rdx
	cmpq	%rsi, %r10
	jae	LBB79_5
	subq	%rdx, %rax
	cmpq	%rsi, %rax
	jae	LBB79_13
	leaq	(%r10,%r10,2), %rdx
	leaq	(%rax,%rax,2), %rax
	movq	16(%rdi,%rdx,8), %rbx
	movq	%rbx, -16(%rbp)
	movq	(%rdi,%rdx,8), %r9
	movq	8(%rdi,%rdx,8), %rbx
	movq	%rbx, -24(%rbp)
	movq	%r9, -32(%rbp)
	movq	16(%rdi,%rax,8), %r9
	movq	(%rdi,%rax,8), %rbx
	movq	8(%rdi,%rax,8), %r11
	movq	%rbx, (%rdi,%rdx,8)
	movq	%r11, 8(%rdi,%rdx,8)
	movq	%r9, 16(%rdi,%rdx,8)
	movq	-16(%rbp), %rdx
	movq	%rdx, 16(%rdi,%rax,8)
	movq	-32(%rbp), %rdx
	movq	-24(%rbp), %rbx
	movq	%rbx, 8(%rdi,%rax,8)
	movq	%rdx, (%rdi,%rax,8)
	movl	%ecx, %eax
	shll	$13, %eax
	xorl	%ecx, %eax
	movl	%eax, %ecx
	shrl	$17, %ecx
	xorl	%eax, %ecx
	movl	%ecx, %edx
	shll	$5, %edx
	xorl	%ecx, %edx
	movl	%edx, %eax
	shll	$13, %eax
	xorl	%edx, %eax
	movl	%eax, %ecx
	shrl	$17, %ecx
	xorl	%eax, %ecx
	movl	%ecx, %eax
	shll	$5, %eax
	xorl	%ecx, %eax
	shlq	$32, %rdx
	orq	%rdx, %rax
	andq	%r8, %rax
	xorl	%ecx, %ecx
	cmpq	%rsi, %rax
	cmovaeq	%rsi, %rcx
	orq	$1, %r10
	cmpq	%rsi, %r10
	jae	LBB79_5
	subq	%rcx, %rax
	cmpq	%rsi, %rax
	jae	LBB79_13
	leaq	(%r10,%r10,2), %rcx
	leaq	(%rax,%rax,2), %rax
	movq	16(%rdi,%rcx,8), %rdx
	movq	%rdx, -16(%rbp)
	movq	(%rdi,%rcx,8), %rdx
	movq	8(%rdi,%rcx,8), %rsi
	movq	%rsi, -24(%rbp)
	movq	%rdx, -32(%rbp)
	movq	16(%rdi,%rax,8), %rdx
	movq	(%rdi,%rax,8), %rsi
	movq	8(%rdi,%rax,8), %rbx
	movq	%rsi, (%rdi,%rcx,8)
	movq	%rbx, 8(%rdi,%rcx,8)
	movq	%rdx, 16(%rdi,%rcx,8)
	movq	-16(%rbp), %rcx
	movq	%rcx, 16(%rdi,%rax,8)
	movq	-32(%rbp), %rcx
	movq	-24(%rbp), %rdx
	movq	%rdx, 8(%rdi,%rax,8)
	movq	%rcx, (%rdi,%rax,8)
LBB79_11:
	addq	$24, %rsp
	popq	%rbx
	popq	%rbp
	retq
LBB79_13:
	leaq	l___unnamed_15(%rip), %rdx
	movq	%rax, %rdi
	callq	__ZN4core9panicking18panic_bounds_check17he87128426d100e93E
LBB79_5:
	movq	%r10, %r9
LBB79_6:
	leaq	l___unnamed_16(%rip), %rdx
	movq	%r9, %rdi
	callq	__ZN4core9panicking18panic_bounds_check17he87128426d100e93E
LBB79_12:
	leaq	_str.0(%rip), %rdi
	leaq	l___unnamed_17(%rip), %rdx
	movl	$28, %esi
	callq	__ZN4core9panicking5panic17h383a6b80ea7021aaE
	.cfi_endproc

	.p2align	4, 0x90
__ZN4core5slice4sort22partial_insertion_sort17ha2966496bd64a0b6E:
	.cfi_startproc
	pushq	%rbp
	.cfi_def_cfa_offset 16
	.cfi_offset %rbp, -16
	movq	%rsp, %rbp
	.cfi_def_cfa_register %rbp
	pushq	%r15
	pushq	%r14
	pushq	%r13
	pushq	%r12
	pushq	%rbx
	subq	$56, %rsp
	.cfi_offset %rbx, -56
	.cfi_offset %r12, -48
	.cfi_offset %r13, -40
	.cfi_offset %r14, -32
	.cfi_offset %r15, -24
	leaq	-1(%rsi), %r15
	leaq	40(%rdi), %r11
	leaq	-48(%rdi), %rax
	movq	%rax, -96(%rbp)
	leaq	48(%rdi), %rax
	movq	%rax, -88(%rbp)
	leaq	-2(%rsi), %rax
	movq	%rax, -80(%rbp)
	movl	$1, %ecx
	xorl	%r14d, %r14d
	jmp	LBB80_1
	.p2align	4, 0x90
LBB80_30:
	movq	-64(%rbp), %rax
	movq	-56(%rbp), %rbx
	movq	%rbx, 8(%rdx)
	movq	%rax, (%rdx)
	movq	%r12, 16(%rdx)
LBB80_31:
	cmpq	$5, %r14
	je	LBB80_32
LBB80_1:
	cmpq	%rsi, %rcx
	jae	LBB80_2
	leaq	(%rcx,%rcx,2), %rax
	movq	16(%rdi,%rax,8), %rbx
	movb	$1, %dl
	cmpq	-8(%rdi,%rax,8), %rbx
	jb	LBB80_8
	leaq	(%r11,%rax,8), %rax
	.p2align	4, 0x90
LBB80_5:
	cmpq	%rcx, %r15
	je	LBB80_13
	incq	%rcx
	movq	(%rax), %rdx
	cmpq	-24(%rax), %rdx
	leaq	24(%rax), %rax
	jae	LBB80_5
	cmpq	%rsi, %rcx
	setb	%dl
	jmp	LBB80_8
	.p2align	4, 0x90
LBB80_2:
	xorl	%edx, %edx
LBB80_8:
	cmpq	%rsi, %rcx
	sete	%al
	je	LBB80_14
	cmpq	$50, %rsi
	jb	LBB80_14
	leaq	-1(%rcx), %rax
	cmpq	%rsi, %rax
	jae	LBB80_15
	testb	%dl, %dl
	je	LBB80_12
	leaq	(%rax,%rax,2), %rbx
	leaq	(%rcx,%rcx,2), %r13
	movq	16(%rdi,%rbx,8), %rax
	movq	%rax, -48(%rbp)
	movq	(%rdi,%rbx,8), %rax
	movq	8(%rdi,%rbx,8), %rdx
	movq	%rdx, -56(%rbp)
	movq	%rax, -64(%rbp)
	movq	16(%rdi,%r13,8), %rax
	movq	%rax, 16(%rdi,%rbx,8)
	movq	(%rdi,%r13,8), %rax
	movq	8(%rdi,%r13,8), %rdx
	movq	%rdx, 8(%rdi,%rbx,8)
	movq	%rax, (%rdi,%rbx,8)
	movq	-48(%rbp), %rax
	movq	%rax, 16(%rdi,%r13,8)
	movq	-64(%rbp), %rax
	movq	-56(%rbp), %rdx
	movq	%rdx, 8(%rdi,%r13,8)
	movq	%rax, (%rdi,%r13,8)
	cmpq	$2, %rcx
	jb	LBB80_23
	leaq	-2(%rcx), %rdx
	movq	16(%rdi,%rbx,8), %r12
	leaq	(%rdx,%rdx,2), %r10
	cmpq	16(%rdi,%r10,8), %r12
	jae	LBB80_23
	movq	%r14, -72(%rbp)
	movq	%r11, %r14
	leaq	(%rdi,%rbx,8), %r8
	leaq	(%rdi,%r10,8), %rax
	movq	(%r8), %r11
	movq	8(%r8), %r9
	movq	%r9, -56(%rbp)
	movq	%r11, -64(%rbp)
	movq	(%rdi,%r10,8), %r9
	movq	8(%rdi,%r10,8), %r11
	movq	%r9, (%r8)
	movq	%r11, 8(%r8)
	movq	16(%rdi,%r10,8), %rbx
	movq	%rbx, 16(%r8)
	testq	%rdx, %rdx
	je	LBB80_19
	cmpq	-56(%rdi,%r13,8), %r12
	movq	%r14, %r11
	jae	LBB80_21
	movq	-96(%rbp), %rax
	leaq	(%rax,%r13,8), %rbx
	movq	-72(%rbp), %r14
	.p2align	4, 0x90
LBB80_35:
	movq	-8(%rbx), %rax
	movq	%rax, 16(%rbx)
	movq	-24(%rbx), %r8
	movq	-16(%rbx), %rax
	movq	%rax, 8(%rbx)
	movq	%r8, (%rbx)
	decq	%rdx
	je	LBB80_36
	leaq	-24(%rbx), %rax
	cmpq	-32(%rbx), %r12
	movq	%rax, %rbx
	jb	LBB80_35
	jmp	LBB80_22
LBB80_19:
	movq	%r14, %r11
LBB80_21:
	movq	-72(%rbp), %r14
LBB80_22:
	movq	-64(%rbp), %rdx
	movq	-56(%rbp), %rbx
	movq	%rbx, 8(%rax)
	movq	%rdx, (%rax)
	movq	%r12, 16(%rax)
LBB80_23:
	incq	%r14
	movq	%rsi, %rbx
	subq	%rcx, %rbx
	cmpq	$2, %rbx
	jb	LBB80_31
	leaq	(%rdi,%r13,8), %r9
	movq	16(%rdi,%r13,8), %r12
	cmpq	%r12, 40(%r9)
	jae	LBB80_31
	leaq	24(%r9), %rdx
	movq	(%r9), %r8
	movq	8(%r9), %rax
	movq	%rax, -56(%rbp)
	movq	%r8, -64(%rbp)
	movq	24(%r9), %rax
	movq	32(%r9), %r8
	movq	%rax, (%r9)
	movq	%r8, 8(%r9)
	movq	40(%r9), %rax
	movq	%rax, 16(%r9)
	cmpq	$3, %rbx
	jb	LBB80_30
	cmpq	%r12, 64(%r9)
	jae	LBB80_30
	movq	-88(%rbp), %rax
	leaq	(%rax,%r13,8), %rbx
	movq	-80(%rbp), %rax
	subq	%rcx, %rax
	.p2align	4, 0x90
LBB80_28:
	movq	%rbx, %rdx
	movq	16(%rbx), %rbx
	movq	%rbx, -8(%rdx)
	movq	(%rdx), %r8
	movq	8(%rdx), %rbx
	movq	%rbx, -16(%rdx)
	movq	%r8, -24(%rdx)
	decq	%rax
	je	LBB80_30
	leaq	24(%rdx), %rbx
	cmpq	%r12, 40(%rdx)
	jb	LBB80_28
	jmp	LBB80_30
LBB80_36:
	movq	%rdi, %rax
	jmp	LBB80_22
LBB80_13:
	movb	$1, %al
LBB80_14:
	addq	$56, %rsp
	popq	%rbx
	popq	%r12
	popq	%r13
	popq	%r14
	popq	%r15
	popq	%rbp
	retq
LBB80_32:
	xorl	%eax, %eax
	jmp	LBB80_14
LBB80_15:
	leaq	l___unnamed_16(%rip), %rdx
	movq	%rax, %rdi
	callq	__ZN4core9panicking18panic_bounds_check17he87128426d100e93E
LBB80_12:
	leaq	l___unnamed_15(%rip), %rdx
	movq	%rcx, %rdi
	callq	__ZN4core9panicking18panic_bounds_check17he87128426d100e93E
	.cfi_endproc

	.p2align	4, 0x90
__ZN4core5slice4sort7recurse17ha06bca53560e98b8E:
Lfunc_begin11:
	.cfi_startproc
	.cfi_personality 155, _rust_eh_personality
	.cfi_lsda 16, Lexception11
	pushq	%rbp
	.cfi_def_cfa_offset 16
	.cfi_offset %rbp, -16
	movq	%rsp, %rbp
	.cfi_def_cfa_register %rbp
	pushq	%r15
	pushq	%r14
	pushq	%r13
	pushq	%r12
	pushq	%rbx
	subq	$472, %rsp
	.cfi_offset %rbx, -56
	.cfi_offset %r12, -48
	.cfi_offset %r13, -40
	.cfi_offset %r14, -32
	.cfi_offset %r15, -24
	movq	%r8, -104(%rbp)
	movq	%rcx, -112(%rbp)
	movq	%rdi, %r11
	cmpq	$21, %rsi
	jae	LBB81_2
	movq	%rsi, %r13
	jmp	LBB81_10
LBB81_2:
	movq	%rdx, -120(%rbp)
	movb	$1, %r15b
	movb	$1, %r14b
	movq	%rsi, %rcx
LBB81_3:
	testb	%r15b, %r15b
	sete	%al
	testb	%r14b, %r14b
	sete	%dl
	orb	%al, %dl
	movb	%dl, -80(%rbp)
	movq	%r11, %r12
	movq	%rcx, -128(%rbp)
	movq	%rcx, %r14
	movq	%r11, -72(%rbp)
	movb	%r15b, -152(%rbp)
	.p2align	4, 0x90
LBB81_4:
	cmpq	$0, -104(%rbp)
	je	LBB81_20
	testb	%r15b, %r15b
	je	LBB81_6
LBB81_7:
	movq	%r14, %r13
	shrq	$2, %r13
	leaq	(%r13,%r13), %rsi
	leaq	(%r13,%r13,2), %r15
	cmpq	$50, %r14
	jb	LBB81_8
	leaq	-1(%rsi), %rdx
	movq	%rsi, %rax
	orq	$1, %rax
	leaq	(%rsi,%rsi,2), %rcx
	movq	-8(%r12,%rcx,8), %rbx
	movq	16(%r12,%rcx,8), %rdi
	movq	%rdi, -136(%rbp)
	movq	%rbx, %rcx
	movq	%rbx, -96(%rbp)
	cmpq	%rbx, %rdi
	movq	%rsi, %r9
	cmovbq	%rdx, %r9
	cmovbq	%rsi, %rdx
	movq	%rdi, %rbx
	cmovbq	%rcx, %rbx
	leaq	(%rax,%rax,2), %rsi
	movq	16(%r12,%rsi,8), %rcx
	movq	%rcx, -216(%rbp)
	cmpq	%rbx, %rcx
	cmovbq	%rax, %r9
	movq	%rbx, %rax
	cmovbq	%rcx, %rax
	movq	%rax, %r10
	movq	%rax, -176(%rbp)
	leaq	-1(%r15), %rax
	leaq	(%r15,%r15,2), %r8
	movq	-8(%r12,%r8,8), %rcx
	movq	%rcx, -224(%rbp)
	movq	16(%r12,%r8,8), %r11
	movq	%r11, -88(%rbp)
	cmpq	%rcx, %r11
	movq	%r15, %rsi
	cmovbq	%rax, %rsi
	cmovbq	%r15, %rax
	cmovbq	%rcx, %r11
	movq	40(%r12,%r8,8), %r8
	movq	%r8, -200(%rbp)
	cmpq	%r11, %r8
	leaq	1(%r15), %rdi
	cmovbq	%rdi, %rsi
	movq	%r11, %rcx
	cmovbq	%r8, %rcx
	movq	%rcx, -192(%rbp)
	leaq	(%rax,%rax,2), %rdi
	movq	16(%r12,%rdi,8), %rdi
	movq	%rdi, -208(%rbp)
	cmpq	%rdi, %rcx
	cmovbq	%rax, %rsi
	leaq	(%rdx,%rdx,2), %rax
	movq	16(%r12,%rax,8), %rax
	movq	%rax, -184(%rbp)
	cmpq	%rax, %r10
	cmovbq	%rdx, %r9
	movq	-8(%r12,%r15,8), %rdx
	movq	16(%r12,%r15,8), %rax
	xorl	%r10d, %r10d
	cmpq	%rdx, %rax
	cmovbq	%rdx, %rax
	leaq	-1(%r13), %rcx
	movq	%r13, %rdi
	cmovbq	%rcx, %rdi
	setb	%r10b
	cmovbq	%r13, %rcx
	movq	40(%r12,%r15,8), %r15
	cmpq	%rax, %r15
	leaq	1(%r10), %rdx
	cmovaeq	%r10, %rdx
	movq	%rax, %r10
	cmovbq	%r15, %r10
	movq	%r14, -144(%rbp)
	leaq	(%rcx,%rcx,2), %r14
	movq	16(%r12,%r14,8), %r14
	cmpq	%r14, %r10
	adcq	$0, %rdx
	movq	-96(%rbp), %r8
	cmpq	%r8, -136(%rbp)
	adcq	$0, %rdx
	cmpq	%rbx, -216(%rbp)
	adcq	$0, %rdx
	movq	-176(%rbp), %rbx
	cmpq	-184(%rbp), %rbx
	adcq	$0, %rdx
	incq	%r13
	cmpq	%rax, %r15
	cmovaeq	%rdi, %r13
	cmpq	%r14, %r10
	movq	-144(%rbp), %r14
	cmovbq	%rcx, %r13
	movq	-224(%rbp), %rax
	cmpq	%rax, -88(%rbp)
	adcq	$0, %rdx
	cmpq	%r11, -200(%rbp)
	movq	-72(%rbp), %r11
	adcq	$0, %rdx
	movq	-192(%rbp), %rax
	cmpq	-208(%rbp), %rax
	adcq	$0, %rdx
	movq	%rsi, %r15
	movq	%r9, %rsi
	jmp	LBB81_23
	.p2align	4, 0x90
LBB81_8:
	xorl	%edx, %edx
LBB81_23:
	leaq	(%rsi,%rsi,2), %rax
	movq	16(%r12,%rax,8), %rcx
	leaq	(%r13,%r13,2), %rax
	movq	16(%r12,%rax,8), %rdi
	cmpq	%rdi, %rcx
	adcq	$0, %rdx
	cmpq	%rdi, %rcx
	movq	%rsi, %rax
	cmovbq	%r13, %rax
	cmovbq	%rsi, %r13
	cmovbq	%rdi, %rcx
	leaq	(%r15,%r15,2), %rsi
	movq	16(%r12,%rsi,8), %rsi
	cmpq	%rcx, %rsi
	adcq	$0, %rdx
	cmpq	%rcx, %rsi
	cmovbq	%r15, %rax
	cmovbq	%rsi, %rcx
	leaq	(%r13,%r13,2), %rsi
	cmpq	16(%r12,%rsi,8), %rcx
	jae	LBB81_24
	cmpq	$11, %rdx
	leaq	-504(%rbp), %r15
	jae	LBB81_28
	incq	%rdx
	jmp	LBB81_27
	.p2align	4, 0x90
LBB81_24:
	movq	%rax, %r13
	leaq	-504(%rbp), %r15
LBB81_27:
	testq	%rdx, %rdx
	sete	%al
	testb	%al, %al
	sete	%al
	orb	-80(%rbp), %al
	jne	LBB81_34
	jmp	LBB81_33
	.p2align	4, 0x90
LBB81_28:
	movq	%r14, %rax
	shrq	%rax
	je	LBB81_31
	leaq	(%r14,%r14,2), %rcx
	leaq	-24(%r12,%rcx,8), %rcx
	movq	%r12, %rdx
	.p2align	4, 0x90
LBB81_30:
	movq	16(%rdx), %rsi
	movq	%rsi, -48(%rbp)
	movq	(%rdx), %rsi
	movq	8(%rdx), %rdi
	movq	%rdi, -56(%rbp)
	movq	%rsi, -64(%rbp)
	movq	16(%rcx), %rsi
	movq	(%rcx), %rdi
	movq	8(%rcx), %rbx
	movq	%rdi, (%rdx)
	movq	%rbx, 8(%rdx)
	movq	%rsi, 16(%rdx)
	movq	-48(%rbp), %rsi
	movq	%rsi, 16(%rcx)
	movq	-64(%rbp), %rsi
	movq	-56(%rbp), %rdi
	movq	%rdi, 8(%rcx)
	movq	%rsi, (%rcx)
	addq	$-24, %rcx
	addq	$24, %rdx
	decq	%rax
	jne	LBB81_30
LBB81_31:
	notq	%r13
	addq	%r14, %r13
	movb	$1, %al
	testb	%al, %al
	sete	%al
	orb	-80(%rbp), %al
	je	LBB81_33
LBB81_34:
	cmpq	$0, -112(%rbp)
	je	LBB81_50
	cmpq	%r14, %r13
	jae	LBB81_110
	movq	-112(%rbp), %rax
	movq	16(%rax), %rcx
	leaq	(%r13,%r13,2), %rax
	cmpq	16(%r12,%rax,8), %rcx
	jb	LBB81_37
	movq	16(%r12), %rcx
	movq	%rcx, -48(%rbp)
	movq	(%r12), %rcx
	movq	8(%r12), %rdx
	movq	%rdx, -56(%rbp)
	movq	%rcx, -64(%rbp)
	movq	16(%r12,%rax,8), %rcx
	movq	(%r12,%rax,8), %rdx
	movq	8(%r12,%rax,8), %rsi
	movq	%rdx, (%r12)
	movq	%rsi, 8(%r12)
	movq	%rcx, 16(%r12)
	movq	-48(%rbp), %rcx
	movq	%rcx, 16(%r12,%rax,8)
	movq	-64(%rbp), %rcx
	movq	-56(%rbp), %rdx
	movq	%rdx, 8(%r12,%rax,8)
	movq	%rcx, (%r12,%rax,8)
	leaq	24(%r12), %r9
	movq	(%r12), %rax
	movq	8(%r12), %rcx
	movq	%rcx, -368(%rbp)
	movq	%rax, -376(%rbp)
	movq	16(%r12), %rax
	leaq	40(%r12), %r8
	movq	%r14, %rsi
	xorl	%edi, %edi
	movb	-152(%rbp), %r15b
	leaq	-1(%rsi), %rdx
	cmpq	%rdx, %rdi
	jae	LBB81_42
LBB81_40:
	leaq	(%rdi,%rdi,2), %rcx
	leaq	(%r8,%rcx,8), %rcx
	.p2align	4, 0x90
LBB81_41:
	cmpq	(%rcx), %rax
	jb	LBB81_42
	incq	%rdi
	addq	$24, %rcx
	cmpq	%rdi, %rdx
	jne	LBB81_41
	movq	%rdx, %rdi
LBB81_42:
	leaq	(%rsi,%rsi,2), %rcx
	leaq	(%r12,%rcx,8), %rcx
	.p2align	4, 0x90
LBB81_43:
	decq	%rsi
	cmpq	%rsi, %rdi
	jae	LBB81_48
	leaq	-24(%rcx), %rdx
	cmpq	-8(%rcx), %rax
	movq	%rdx, %rcx
	jb	LBB81_43
	leaq	(%rdi,%rdi,2), %rcx
	movq	16(%r9,%rcx,8), %rbx
	movq	%rbx, -48(%rbp)
	movq	(%r9,%rcx,8), %r10
	movq	8(%r9,%rcx,8), %rbx
	movq	%rbx, -56(%rbp)
	movq	%r10, -64(%rbp)
	movq	16(%rdx), %r10
	movq	(%rdx), %rbx
	movq	8(%rdx), %r11
	movq	%rbx, (%r9,%rcx,8)
	movq	%r11, 8(%r9,%rcx,8)
	movq	-72(%rbp), %r11
	movq	%r10, 16(%r9,%rcx,8)
	movq	-48(%rbp), %rcx
	movq	%rcx, 16(%rdx)
	movq	-64(%rbp), %rcx
	movq	-56(%rbp), %rbx
	movq	%rbx, 8(%rdx)
	movq	%rcx, (%rdx)
	incq	%rdi
	leaq	-1(%rsi), %rdx
	cmpq	%rdx, %rdi
	jb	LBB81_40
	jmp	LBB81_42
	.p2align	4, 0x90
LBB81_48:
	incq	%rdi
	movq	-376(%rbp), %rcx
	movq	-368(%rbp), %rdx
	movq	%rdx, 8(%r12)
	movq	%rcx, (%r12)
	movq	%rax, 16(%r12)
	movq	%r14, %r13
	subq	%rdi, %r13
	jb	LBB81_111
	leaq	(%rdi,%rdi,2), %rax
	leaq	(%r12,%rax,8), %r12
	movq	%r13, %r14
	cmpq	$21, %r13
	jae	LBB81_4
	jmp	LBB81_9
LBB81_6:
	movq	%r12, %rdi
	movq	%r14, %rsi
	callq	__ZN4core5slice4sort14break_patterns17h4b919f57dc9eabf6E
	movq	-72(%rbp), %r11
	decq	-104(%rbp)
	jmp	LBB81_7
LBB81_33:
	movq	%r12, %rdi
	movq	%r14, %rsi
	callq	__ZN4core5slice4sort22partial_insertion_sort17ha2966496bd64a0b6E
	movq	-72(%rbp), %r11
	testb	%al, %al
	je	LBB81_34
	jmp	LBB81_21
LBB81_50:
	movq	-128(%rbp), %rbx
	testq	%rbx, %rbx
	jne	LBB81_51
	jmp	LBB81_112
LBB81_37:
	movq	%r12, %r11
	movq	%r14, %rbx
LBB81_51:
	cmpq	%rbx, %r13
	jae	LBB81_113
	leaq	(%r13,%r13,2), %rax
	movq	16(%r11), %rcx
	movq	%rcx, -48(%rbp)
	movq	(%r11), %rcx
	movq	8(%r11), %rdx
	movq	%rdx, -56(%rbp)
	movq	%rcx, -64(%rbp)
	movq	16(%r11,%rax,8), %rcx
	movq	(%r11,%rax,8), %rdx
	movq	8(%r11,%rax,8), %rsi
	movq	%rdx, (%r11)
	movq	%rsi, 8(%r11)
	movq	%rcx, 16(%r11)
	movq	-48(%rbp), %rcx
	movq	%rcx, 16(%r11,%rax,8)
	movq	-64(%rbp), %rcx
	movq	-56(%rbp), %rdx
	movq	%rdx, 8(%r11,%rax,8)
	movq	%rcx, (%r11,%rax,8)
	movq	%rbx, %rsi
	movq	%r11, %rdx
	movq	16(%r11), %r11
	movq	%r11, -232(%rbp)
	movq	(%rdx), %rax
	movq	8(%rdx), %rcx
	movq	%rcx, -240(%rbp)
	movq	%rax, -248(%rbp)
	leaq	-248(%rbp), %rax
	movq	%rax, -168(%rbp)
	movq	%rdx, -160(%rbp)
	decq	%rsi
	movq	%rdx, -72(%rbp)
	je	LBB81_53
	leaq	40(%rdx), %rax
	xorl	%edi, %edi
	.p2align	4, 0x90
LBB81_60:
	cmpq	%r11, (%rax)
	jae	LBB81_54
	incq	%rdi
	addq	$24, %rax
	cmpq	%rdi, %rsi
	jne	LBB81_60
	movq	%rsi, %rdi
	jmp	LBB81_54
LBB81_53:
	xorl	%edi, %edi
LBB81_54:
	movq	-72(%rbp), %rdx
	leaq	24(%rdx), %rax
	movq	%rbx, -128(%rbp)
	leaq	(%rbx,%rbx,2), %rcx
	leaq	(%rdx,%rcx,8), %rcx
	movq	%rsi, %rdx
	.p2align	4, 0x90
LBB81_55:
	movq	%rdx, %rbx
	movq	%rcx, %r13
	cmpq	%rdi, %rdx
	jbe	LBB81_56
	leaq	-1(%rbx), %rdx
	leaq	-24(%r13), %rcx
	cmpq	%r11, -8(%r13)
	jae	LBB81_55
LBB81_56:
	cmpq	%rdi, %rbx
	jb	LBB81_63
	movq	%rbx, -96(%rbp)
	cmpq	%rbx, %rsi
	jb	LBB81_58
	movq	%rdi, -136(%rbp)
	leaq	(%rdi,%rdi,2), %rcx
	leaq	(%rax,%rcx,8), %r10
	movl	$128, %r14d
	xorl	%ebx, %ebx
	xorl	%r9d, %r9d
	xorl	%ecx, %ecx
	xorl	%r8d, %r8d
	movl	$128, %esi
	movq	%r10, -88(%rbp)
	jmp	LBB81_67
	.p2align	4, 0x90
LBB81_95:
	movzbl	(%r9), %eax
	notq	%rax
	leaq	(%rax,%rax,2), %rax
	movq	-48(%rbp), %rdx
	movq	%rdx, 16(%r13,%rax,8)
	movq	-64(%rbp), %rdx
	movq	-56(%rbp), %rsi
	movq	%rsi, 8(%r13,%rax,8)
	movq	%rdx, (%r13,%rax,8)
	incq	%r8
	incq	%r9
	movq	-80(%rbp), %rsi
LBB81_96:
	cmpq	%rcx, %r8
	leaq	(%rsi,%rsi,2), %rax
	leaq	(%r10,%rax,8), %rax
	cmoveq	%rax, %r10
	movq	%r12, %r14
	movq	%r12, %rax
	negq	%rax
	cmpq	%rbx, %r9
	leaq	(%rax,%rax,2), %rax
	leaq	(%r13,%rax,8), %rax
	cmoveq	%rax, %r13
	cmpq	$6167, -152(%rbp)
	jbe	LBB81_97
LBB81_67:
	movq	%r13, %rdi
	subq	%r10, %rdi
	movq	%rdi, %rax
	movabsq	$-6148914691236517205, %rdx
	mulq	%rdx
	movq	%rdi, -152(%rbp)
	cmpq	$6167, %rdi
	ja	LBB81_70
	shrq	$4, %rdx
	cmpq	%rbx, %r9
	setb	%r15b
	leaq	-128(%rdx), %rdi
	cmpq	%rcx, %r8
	cmovbq	%rdi, %r14
	cmovaeq	%rdi, %rsi
	setb	%al
	orb	%r15b, %al
	leaq	-504(%rbp), %r15
	cmovneq	%rdi, %rdx
	jne	LBB81_70
	movq	%rdx, %rsi
	shrq	%rsi
	subq	%rsi, %rdx
	movq	%rdx, %r14
LBB81_70:
	cmpq	%rcx, %r8
	movq	%rsi, -80(%rbp)
	je	LBB81_71
LBB81_81:
	cmpq	%rbx, %r9
	je	LBB81_82
LBB81_91:
	movq	%r14, %r12
	movq	%rcx, %rdx
	subq	%r8, %rdx
	movq	%rbx, %r14
	subq	%r9, %r14
	cmpq	%r14, %rdx
	cmovbeq	%rdx, %r14
	testq	%r14, %r14
	je	LBB81_96
	movzbl	(%r8), %edx
	leaq	(%rdx,%rdx,2), %rdx
	movq	16(%r10,%rdx,8), %rsi
	movq	%rsi, -48(%rbp)
	movq	(%r10,%rdx,8), %rsi
	movq	8(%r10,%rdx,8), %rdx
	movq	%rdx, -56(%rbp)
	movq	%rsi, -64(%rbp)
	movzbl	(%r9), %edx
	notq	%rdx
	leaq	(%rdx,%rdx,2), %rdx
	movzbl	(%r8), %esi
	leaq	(%rsi,%rsi,2), %rsi
	movq	16(%r13,%rdx,8), %rdi
	movq	%rdi, 16(%r10,%rsi,8)
	movq	(%r13,%rdx,8), %rdi
	movq	8(%r13,%rdx,8), %rdx
	movq	%rdx, 8(%r10,%rsi,8)
	movq	%rdi, (%r10,%rsi,8)
	cmpq	$1, %r14
	je	LBB81_95
	movl	$1, %edx
	.p2align	4, 0x90
LBB81_94:
	incq	%rdx
	movzbl	1(%r8), %esi
	leaq	(%rsi,%rsi,2), %rsi
	movzbl	(%r9), %edi
	notq	%rdi
	leaq	(%rdi,%rdi,2), %rdi
	movq	16(%r10,%rsi,8), %rax
	movq	%rax, 16(%r13,%rdi,8)
	movq	(%r10,%rsi,8), %rax
	movq	8(%r10,%rsi,8), %rsi
	movq	%rsi, 8(%r13,%rdi,8)
	movq	%rax, (%r13,%rdi,8)
	movzbl	1(%r9), %eax
	incq	%r9
	notq	%rax
	leaq	(%rax,%rax,2), %rax
	movzbl	1(%r8), %esi
	incq	%r8
	leaq	(%rsi,%rsi,2), %rsi
	movq	16(%r13,%rax,8), %rdi
	movq	%rdi, 16(%r10,%rsi,8)
	movq	(%r13,%rax,8), %rdi
	movq	8(%r13,%rax,8), %rax
	movq	%rax, 8(%r10,%rsi,8)
	movq	%rdi, (%r10,%rsi,8)
	cmpq	%r14, %rdx
	jb	LBB81_94
	jmp	LBB81_95
	.p2align	4, 0x90
LBB81_71:
	movq	%r15, %rcx
	movq	%r15, %r8
	testq	%rsi, %rsi
	je	LBB81_81
	leaq	-1(%rsi), %rax
	movl	%esi, %r12d
	andl	$3, %r12d
	cmpq	$3, %rax
	jae	LBB81_74
	movq	%r15, %rcx
	movq	%r10, %rax
	xorl	%edx, %edx
	movq	%r15, %r8
	testq	%r12, %r12
	jne	LBB81_78
	jmp	LBB81_81
	.p2align	4, 0x90
LBB81_82:
	leaq	-376(%rbp), %r9
	movq	%r9, %rbx
	testq	%r14, %r14
	je	LBB81_91
	leaq	-1(%r14), %rax
	movl	%r14d, %r12d
	andl	$3, %r12d
	cmpq	$3, %rax
	jae	LBB81_85
	leaq	-376(%rbp), %rbx
	movq	%r13, %rax
	xorl	%edx, %edx
	jmp	LBB81_87
LBB81_74:
	movq	%r14, -144(%rbp)
	movq	%rsi, %r8
	subq	%r12, %r8
	movq	%r15, %rcx
	movq	%r10, %rax
	xorl	%edx, %edx
	.p2align	4, 0x90
LBB81_75:
	movl	%edx, %r15d
	movb	%dl, (%rcx)
	xorl	%edi, %edi
	cmpq	%r11, 16(%rax)
	setae	%dil
	leal	1(%r15), %r14d
	movb	%r14b, (%rcx,%rdi)
	xorl	%esi, %esi
	cmpq	%r11, 40(%rax)
	leaq	(%rcx,%rdi), %rcx
	setae	%sil
	leaq	(%rcx,%rsi), %r14
	leal	2(%r15), %edi
	movb	%dil, (%rsi,%rcx)
	xorl	%ecx, %ecx
	cmpq	%r11, 64(%rax)
	setae	%cl
	leaq	(%r14,%rcx), %rsi
	addq	$4, %rdx
	leal	3(%r15), %edi
	movb	%dil, (%rcx,%r14)
	xorl	%ecx, %ecx
	cmpq	%r11, 88(%rax)
	setae	%cl
	addq	%rsi, %rcx
	addq	$96, %rax
	cmpq	%rdx, %r8
	jne	LBB81_75
	leaq	-504(%rbp), %r15
	movq	-144(%rbp), %r14
	movq	-80(%rbp), %rsi
	movq	%r15, %r8
	testq	%r12, %r12
	je	LBB81_81
LBB81_78:
	shlq	$3, %r12
	leaq	(%r12,%r12,2), %r8
	xorl	%edi, %edi
	.p2align	4, 0x90
LBB81_79:
	movq	%rcx, %rsi
	movb	%dl, (%rcx)
	xorl	%ecx, %ecx
	cmpq	%r11, 16(%rax)
	setae	%cl
	addq	%rsi, %rcx
	addq	$24, %rax
	addq	$24, %rdi
	incb	%dl
	cmpq	%rdi, %r8
	jne	LBB81_79
	movq	%r15, %r8
	movq	-80(%rbp), %rsi
	jmp	LBB81_81
LBB81_85:
	movq	%r14, %r9
	subq	%r12, %r9
	leaq	-376(%rbp), %rbx
	movq	%r13, %rax
	xorl	%edi, %edi
	xorl	%edx, %edx
	.p2align	4, 0x90
LBB81_86:
	movb	%dil, (%rbx)
	cmpq	%r11, -8(%rax)
	adcq	$0, %rbx
	leal	1(%rdi), %esi
	movb	%sil, (%rbx)
	cmpq	%r11, -32(%rax)
	adcq	$0, %rbx
	leal	2(%rdi), %esi
	movb	%sil, (%rbx)
	cmpq	%r11, -56(%rax)
	adcq	$0, %rbx
	addq	$4, %rdx
	leal	3(%rdi), %esi
	movb	%sil, (%rbx)
	cmpq	%r11, -80(%rax)
	leaq	-96(%rax), %rax
	adcq	$0, %rbx
	movq	%rdx, %rdi
	cmpq	%rdx, %r9
	jne	LBB81_86
LBB81_87:
	leaq	-376(%rbp), %r9
	testq	%r12, %r12
	movq	-80(%rbp), %rsi
	je	LBB81_91
	shlq	$3, %r12
	leaq	(%r12,%r12,2), %r9
	xorl	%edi, %edi
	.p2align	4, 0x90
LBB81_89:
	movb	%dl, (%rbx)
	cmpq	%r11, -8(%rax,%rdi)
	adcq	$0, %rbx
	addq	$-24, %rdi
	incb	%dl
	movq	%r9, %rsi
	addq	%rdi, %rsi
	jne	LBB81_89
	leaq	-376(%rbp), %r9
	movq	-80(%rbp), %rsi
	jmp	LBB81_91
	.p2align	4, 0x90
LBB81_97:
	cmpq	%rcx, %r8
	jae	LBB81_100
	movq	%r13, %rax
	movq	-72(%rbp), %rdi
	movq	-88(%rbp), %r11
	.p2align	4, 0x90
LBB81_99:
	movzbl	-1(%rcx), %edx
	decq	%rcx
	leaq	(%rdx,%rdx,2), %rdx
	movq	16(%r10,%rdx,8), %rsi
	movq	%rsi, -48(%rbp)
	movq	(%r10,%rdx,8), %rsi
	movq	8(%r10,%rdx,8), %rbx
	movq	%rbx, -56(%rbp)
	movq	%rsi, -64(%rbp)
	movq	-8(%rax), %r9
	movq	-24(%rax), %rsi
	movq	-16(%rax), %rbx
	movq	%rsi, (%r10,%rdx,8)
	movq	%rbx, 8(%r10,%rdx,8)
	movq	%r9, 16(%r10,%rdx,8)
	movq	-48(%rbp), %rdx
	movq	%rdx, -8(%rax)
	movq	-64(%rbp), %rdx
	movq	-56(%rbp), %rsi
	movq	%rsi, -16(%rax)
	movq	%rdx, -24(%rax)
	addq	$-24, %rax
	cmpq	%rcx, %r8
	jb	LBB81_99
	jmp	LBB81_102
LBB81_100:
	movq	%r10, %rax
	cmpq	%rbx, %r9
	movq	-72(%rbp), %rdi
	movq	-88(%rbp), %r11
	jae	LBB81_102
	.p2align	4, 0x90
LBB81_101:
	movzbl	-1(%rbx), %ecx
	decq	%rbx
	notq	%rcx
	leaq	(%rcx,%rcx,2), %rcx
	movq	16(%rax), %rdx
	movq	%rdx, -48(%rbp)
	movq	(%rax), %rdx
	movq	8(%rax), %rsi
	movq	%rsi, -56(%rbp)
	movq	%rdx, -64(%rbp)
	movq	16(%r13,%rcx,8), %r8
	movq	(%r13,%rcx,8), %rsi
	movq	8(%r13,%rcx,8), %rdx
	movq	%rsi, (%rax)
	movq	%rdx, 8(%rax)
	movq	%r8, 16(%rax)
	movq	-48(%rbp), %rdx
	movq	%rdx, 16(%r13,%rcx,8)
	movq	-64(%rbp), %rdx
	movq	-56(%rbp), %rsi
	movq	%rsi, 8(%r13,%rcx,8)
	movq	%rdx, (%r13,%rcx,8)
	addq	$24, %rax
	cmpq	%rbx, %r9
	jb	LBB81_101
LBB81_102:
	subq	%r11, %rax
	movabsq	$-6148914691236517205, %rcx
	mulq	%rcx
	movq	%rdx, %r13
	shrq	$4, %r13
	movq	-136(%rbp), %r8
	addq	%r8, %r13
	movq	-168(%rbp), %rax
	movq	-160(%rbp), %rcx
	movq	16(%rax), %rdx
	movq	%rdx, 16(%rcx)
	movq	(%rax), %rdx
	movq	8(%rax), %rax
	movq	%rax, 8(%rcx)
	movq	%rdx, (%rcx)
	movq	-128(%rbp), %rsi
	movq	%rsi, %rbx
	subq	%r13, %rbx
	jbe	LBB81_103
	cmpq	%r8, -96(%rbp)
	setbe	%r14b
	leaq	(%r13,%r13,2), %rax
	movq	16(%rdi), %rcx
	movq	%rcx, -48(%rbp)
	movq	(%rdi), %rcx
	movq	8(%rdi), %rdx
	movq	%rdx, -56(%rbp)
	movq	%rcx, -64(%rbp)
	movq	16(%rdi,%rax,8), %r8
	movq	(%rdi,%rax,8), %rdx
	movq	8(%rdi,%rax,8), %rcx
	movq	%rdx, (%rdi)
	movq	%rcx, 8(%rdi)
	movq	%r8, 16(%rdi)
	movq	-48(%rbp), %rcx
	movq	%rcx, 16(%rdi,%rax,8)
	movq	-64(%rbp), %rcx
	movq	-56(%rbp), %rdx
	movq	%rdx, 8(%rdi,%rax,8)
	movq	%rcx, (%rdi,%rax,8)
	cmpq	%rbx, %r13
	movq	%r13, %rcx
	cmovaq	%rbx, %rcx
	shrq	$3, %rsi
	cmpq	%rsi, %rcx
	setae	%r12b
	testq	%rbx, %rbx
	je	LBB81_114
	leaq	(%rdi,%rax,8), %r15
	leaq	24(%r15), %rax
	decq	%rbx
	cmpq	%rbx, %r13
	jae	LBB81_107
	movq	%r13, %rsi
	movq	-120(%rbp), %rdx
	movq	-112(%rbp), %rcx
	movq	-104(%rbp), %r8
	movq	%rax, -80(%rbp)
	callq	__ZN4core5slice4sort7recurse17ha06bca53560e98b8E
	movq	%r15, -112(%rbp)
	movq	%rbx, %r13
	movq	-80(%rbp), %r11
	jmp	LBB81_109
LBB81_107:
	movq	%rax, %rdi
	movq	%rbx, %rsi
	movq	-120(%rbp), %rdx
	movq	%r15, %rcx
	movq	-104(%rbp), %r8
	callq	__ZN4core5slice4sort7recurse17ha06bca53560e98b8E
	movq	-72(%rbp), %r11
LBB81_109:
	movq	%r13, %rcx
	cmpq	$21, %r13
	movl	%r12d, %r15d
	jae	LBB81_3
	jmp	LBB81_10
LBB81_20:
	movq	%r12, %rdi
	movq	%r14, %rsi
	movq	-120(%rbp), %rdx
	callq	__ZN4core5slice4sort8heapsort17h0a97b81d9ef59cd5E
	jmp	LBB81_21
LBB81_9:
	movq	%r12, %r11
LBB81_10:
	cmpq	$2, %r13
	jb	LBB81_21
	movl	$1, %edi
	xorl	%r9d, %r9d
	movq	%r11, %rcx
	jmp	LBB81_12
LBB81_19:
	movq	%r11, %rdx
	.p2align	4, 0x90
LBB81_15:
	movq	-376(%rbp), %rax
	movq	-368(%rbp), %rdi
	movq	%rdi, 8(%rdx)
	movq	%rax, (%rdx)
	movq	%rsi, 16(%rdx)
LBB81_16:
	decq	%r9
	addq	$24, %rcx
	movq	%r8, %rdi
	cmpq	%r13, %r8
	je	LBB81_21
LBB81_12:
	leaq	1(%rdi), %r8
	leaq	(%rdi,%rdi,2), %rbx
	movq	16(%r11,%rbx,8), %rsi
	cmpq	-8(%r11,%rbx,8), %rsi
	jae	LBB81_16
	decq	%rdi
	leaq	(%rdi,%rdi,2), %rax
	leaq	(%r11,%rax,8), %rdx
	movq	(%r11,%rbx,8), %r10
	movq	8(%r11,%rbx,8), %rdi
	movq	%rdi, -368(%rbp)
	movq	%r10, -376(%rbp)
	movq	(%r11,%rax,8), %rdi
	movq	8(%r11,%rax,8), %r10
	movq	%rdi, (%r11,%rbx,8)
	movq	%r10, 8(%r11,%rbx,8)
	movq	16(%r11,%rax,8), %rax
	movq	%rax, 16(%r11,%rbx,8)
	je	LBB81_15
	movq	%rcx, %rdi
	movq	%r9, %rax
	cmpq	-32(%r11,%rbx,8), %rsi
	jae	LBB81_15
	.p2align	4, 0x90
LBB81_18:
	movq	-8(%rdi), %rdx
	movq	%rdx, 16(%rdi)
	movq	-24(%rdi), %rdx
	movq	-16(%rdi), %rbx
	movq	%rbx, 8(%rdi)
	movq	%rdx, (%rdi)
	incq	%rax
	je	LBB81_19
	leaq	-24(%rdi), %rdx
	cmpq	-32(%rdi), %rsi
	movq	%rdx, %rdi
	jb	LBB81_18
	jmp	LBB81_15
LBB81_21:
	addq	$472, %rsp
	popq	%rbx
	popq	%r12
	popq	%r13
	popq	%r14
	popq	%r15
	popq	%rbp
	retq
LBB81_110:
	leaq	l___unnamed_18(%rip), %rdx
	movq	%r13, %rdi
	movq	%r14, %rsi
	callq	__ZN4core9panicking18panic_bounds_check17he87128426d100e93E
LBB81_111:
	leaq	l___unnamed_19(%rip), %rdx
	movq	%r14, %rsi
	callq	__ZN4core5slice26slice_start_index_len_fail17h787e2f1bbfc1d2f3E
LBB81_112:
	leaq	l___unnamed_16(%rip), %rdx
	xorl	%edi, %edi
	xorl	%esi, %esi
	callq	__ZN4core9panicking18panic_bounds_check17he87128426d100e93E
LBB81_113:
	leaq	l___unnamed_15(%rip), %rdx
	movq	%r13, %rdi
	movq	%rbx, %rsi
	callq	__ZN4core9panicking18panic_bounds_check17he87128426d100e93E
LBB81_63:
Ltmp47:
	leaq	l___unnamed_20(%rip), %rdx
	movq	%rbx, %rsi
	callq	__ZN4core5slice22slice_index_order_fail17h65298a4d6b795c79E
Ltmp48:
	jmp	LBB81_64
LBB81_58:
Ltmp45:
	leaq	l___unnamed_20(%rip), %rdx
	movq	-96(%rbp), %rdi
	callq	__ZN4core5slice24slice_end_index_len_fail17hea9e3399ed430f80E
Ltmp46:
LBB81_64:
	ud2
LBB81_103:
	leaq	l___unnamed_15(%rip), %rdx
	movq	%r13, %rdi
	callq	__ZN4core9panicking18panic_bounds_check17he87128426d100e93E
LBB81_114:
	leaq	l___unnamed_21(%rip), %rdi
	leaq	l___unnamed_22(%rip), %rdx
	movl	$28, %esi
	callq	__ZN4core9panicking5panic17h383a6b80ea7021aaE
LBB81_104:
Ltmp49:
	movq	%rax, %rbx
	leaq	-168(%rbp), %rdi
	callq	__ZN4core3ptr13drop_in_place17ha5ceb5f44e547293E
	movq	%rbx, %rdi
	callq	__Unwind_Resume
	ud2
Lfunc_end11:
	.cfi_endproc
	.section	__TEXT,__gcc_except_tab
	.p2align	2
GCC_except_table81:
Lexception11:
	.byte	255
	.byte	255
	.byte	1
	.uleb128 Lcst_end11-Lcst_begin11
Lcst_begin11:
	.uleb128 Lfunc_begin11-Lfunc_begin11
	.uleb128 Ltmp47-Lfunc_begin11
	.byte	0
	.byte	0
	.uleb128 Ltmp47-Lfunc_begin11
	.uleb128 Ltmp46-Ltmp47
	.uleb128 Ltmp49-Lfunc_begin11
	.byte	0
	.uleb128 Ltmp46-Lfunc_begin11
	.uleb128 Lfunc_end11-Ltmp46
	.byte	0
	.byte	0
Lcst_end11:
	.p2align	2

	.section	__TEXT,__text,regular,pure_instructions
	.p2align	4, 0x90
__ZN4core5slice4sort8heapsort17h0a97b81d9ef59cd5E:
	.cfi_startproc
	pushq	%rbp
	.cfi_def_cfa_offset 16
	.cfi_offset %rbp, -16
	movq	%rsp, %rbp
	.cfi_def_cfa_register %rbp
	subq	$32, %rsp
	movq	%rsi, %r8
	shrq	%r8
	jne	LBB82_6
LBB82_1:
	cmpq	$2, %rsi
	jb	LBB82_31
	movq	%rsi, %r8
	jmp	LBB82_3
	.p2align	4, 0x90
LBB82_5:
	testq	%r8, %r8
	je	LBB82_1
LBB82_6:
	decq	%r8
	movq	%r8, %rcx
	leaq	1(%rcx,%rcx), %r9
	leaq	2(%rcx,%rcx), %rdx
	cmpq	%rsi, %rdx
	jae	LBB82_12
	.p2align	4, 0x90
LBB82_8:
	cmpq	%rsi, %r9
	jae	LBB82_16
	leaq	(%r9,%r9,2), %rax
	movq	16(%rdi,%rax,8), %r10
	leaq	(%rdx,%rdx,2), %rax
	cmpq	16(%rdi,%rax,8), %r10
	jb	LBB82_11
	movq	%r9, %rdx
LBB82_11:
	movq	%rdx, %r9
LBB82_12:
	cmpq	%rsi, %r9
	jae	LBB82_5
	cmpq	%rsi, %rcx
	jae	LBB82_17
	leaq	(%rcx,%rcx,2), %rdx
	movq	16(%rdi,%rdx,8), %rax
	leaq	(%r9,%r9,2), %rcx
	cmpq	16(%rdi,%rcx,8), %rax
	jae	LBB82_5
	movq	16(%rdi,%rdx,8), %rax
	movq	%rax, -8(%rbp)
	movq	(%rdi,%rdx,8), %r10
	movq	8(%rdi,%rdx,8), %rax
	movq	%rax, -16(%rbp)
	movq	%r10, -24(%rbp)
	movq	16(%rdi,%rcx,8), %r10
	movq	(%rdi,%rcx,8), %rax
	movq	8(%rdi,%rcx,8), %r11
	movq	%rax, (%rdi,%rdx,8)
	movq	%r11, 8(%rdi,%rdx,8)
	movq	%r10, 16(%rdi,%rdx,8)
	movq	-8(%rbp), %rax
	movq	%rax, 16(%rdi,%rcx,8)
	movq	-24(%rbp), %rax
	movq	-16(%rbp), %rdx
	movq	%rdx, 8(%rdi,%rcx,8)
	movq	%rax, (%rdi,%rcx,8)
	movq	%r9, %rcx
	leaq	1(%rcx,%rcx), %r9
	leaq	2(%rcx,%rcx), %rdx
	cmpq	%rsi, %rdx
	jb	LBB82_8
	jmp	LBB82_12
	.p2align	4, 0x90
LBB82_30:
	cmpq	$1, %r8
	jbe	LBB82_31
LBB82_3:
	decq	%r8
	cmpq	%rsi, %r8
	jae	LBB82_4
	leaq	(%r8,%r8,2), %rax
	movq	16(%rdi), %rcx
	movq	%rcx, -8(%rbp)
	movq	(%rdi), %rcx
	movq	8(%rdi), %rdx
	movq	%rdx, -16(%rbp)
	movq	%rcx, -24(%rbp)
	movq	16(%rdi,%rax,8), %r9
	movq	(%rdi,%rax,8), %rdx
	movq	8(%rdi,%rax,8), %rcx
	movq	%rdx, (%rdi)
	movq	%rcx, 8(%rdi)
	movq	%r9, 16(%rdi)
	movq	-8(%rbp), %rcx
	movq	%rcx, 16(%rdi,%rax,8)
	movq	-24(%rbp), %rcx
	movq	-16(%rbp), %rdx
	movq	%rdx, 8(%rdi,%rax,8)
	movq	%rcx, (%rdi,%rax,8)
	xorl	%ecx, %ecx
	leaq	1(%rcx,%rcx), %r9
	leaq	2(%rcx,%rcx), %rdx
	cmpq	%r8, %rdx
	jae	LBB82_24
	.p2align	4, 0x90
LBB82_20:
	cmpq	%r8, %r9
	jae	LBB82_28
	leaq	(%r9,%r9,2), %rax
	movq	16(%rdi,%rax,8), %r10
	leaq	(%rdx,%rdx,2), %rax
	cmpq	16(%rdi,%rax,8), %r10
	jb	LBB82_23
	movq	%r9, %rdx
LBB82_23:
	movq	%rdx, %r9
LBB82_24:
	cmpq	%r8, %r9
	jae	LBB82_30
	cmpq	%r8, %rcx
	jae	LBB82_29
	leaq	(%rcx,%rcx,2), %rdx
	movq	16(%rdi,%rdx,8), %rax
	leaq	(%r9,%r9,2), %rcx
	cmpq	16(%rdi,%rcx,8), %rax
	jae	LBB82_30
	movq	16(%rdi,%rdx,8), %rax
	movq	%rax, -8(%rbp)
	movq	(%rdi,%rdx,8), %r10
	movq	8(%rdi,%rdx,8), %rax
	movq	%rax, -16(%rbp)
	movq	%r10, -24(%rbp)
	movq	16(%rdi,%rcx,8), %r10
	movq	(%rdi,%rcx,8), %rax
	movq	8(%rdi,%rcx,8), %r11
	movq	%rax, (%rdi,%rdx,8)
	movq	%r11, 8(%rdi,%rdx,8)
	movq	%r10, 16(%rdi,%rdx,8)
	movq	-8(%rbp), %rax
	movq	%rax, 16(%rdi,%rcx,8)
	movq	-24(%rbp), %rax
	movq	-16(%rbp), %rdx
	movq	%rdx, 8(%rdi,%rcx,8)
	movq	%rax, (%rdi,%rcx,8)
	movq	%r9, %rcx
	leaq	1(%rcx,%rcx), %r9
	leaq	2(%rcx,%rcx), %rdx
	cmpq	%r8, %rdx
	jb	LBB82_20
	jmp	LBB82_24
LBB82_31:
	addq	$32, %rsp
	popq	%rbp
	retq
LBB82_17:
	leaq	l___unnamed_23(%rip), %rdx
	movq	%rcx, %rdi
	callq	__ZN4core9panicking18panic_bounds_check17he87128426d100e93E
LBB82_29:
	leaq	l___unnamed_23(%rip), %rdx
	movq	%rcx, %rdi
	movq	%r8, %rsi
	callq	__ZN4core9panicking18panic_bounds_check17he87128426d100e93E
LBB82_16:
	leaq	l___unnamed_24(%rip), %rdx
	movq	%r9, %rdi
	callq	__ZN4core9panicking18panic_bounds_check17he87128426d100e93E
LBB82_28:
	leaq	l___unnamed_24(%rip), %rdx
	movq	%r9, %rdi
	movq	%r8, %rsi
	callq	__ZN4core9panicking18panic_bounds_check17he87128426d100e93E
LBB82_4:
	leaq	l___unnamed_15(%rip), %rdx
	movq	%r8, %rdi
	callq	__ZN4core9panicking18panic_bounds_check17he87128426d100e93E
	.cfi_endproc

	.section	__TEXT,__literal16,16byte_literals
	.p2align	4
LCPI83_0:
	.quad	1
	.quad	18
	.section	__TEXT,__text,regular,pure_instructions
	.p2align	4, 0x90
__ZN50_$LT$$BP$mut$u20$T$u20$as$u20$core..fmt..Debug$GT$3fmt17h6825b4bff2da2569E:
	.cfi_startproc
	pushq	%rbp
	.cfi_def_cfa_offset 16
	.cfi_offset %rbp, -16
	movq	%rsp, %rbp
	.cfi_def_cfa_register %rbp
	pushq	%r15
	pushq	%r14
	pushq	%rbx
	subq	$24, %rsp
	.cfi_offset %rbx, -40
	.cfi_offset %r14, -32
	.cfi_offset %r15, -24
	movq	%rsi, %rbx
	movq	(%rdi), %r15
	movups	(%rsi), %xmm0
	movaps	%xmm0, -48(%rbp)
	movl	48(%rsi), %r14d
	movq	%rsi, %rdi
	callq	__ZN4core3fmt9Formatter9alternate17hd77eec28e879e5edE
	movl	48(%rbx), %ecx
	testb	%al, %al
	je	LBB83_3
	orl	$8, %ecx
	movl	%ecx, 48(%rbx)
	cmpq	$1, (%rbx)
	je	LBB83_3
	movaps	LCPI83_0(%rip), %xmm0
	movups	%xmm0, (%rbx)
LBB83_3:
	orl	$4, %ecx
	movl	%ecx, 48(%rbx)
	movq	%r15, -32(%rbp)
	leaq	-32(%rbp), %rdi
	movq	%rbx, %rsi
	callq	__ZN4core3fmt3num55_$LT$impl$u20$core..fmt..LowerHex$u20$for$u20$usize$GT$3fmt17hc47c170655f2f8b1E
	movaps	-48(%rbp), %xmm0
	movups	%xmm0, (%rbx)
	movl	%r14d, 48(%rbx)
	addq	$24, %rsp
	popq	%rbx
	popq	%r14
	popq	%r15
	popq	%rbp
	retq
	.cfi_endproc

	.p2align	4, 0x90
__ZN5alloc3vec12Vec$LT$T$GT$4push17h0275711cc237481aE:
	.cfi_startproc
	pushq	%rbp
	.cfi_def_cfa_offset 16
	.cfi_offset %rbp, -16
	movq	%rsp, %rbp
	.cfi_def_cfa_register %rbp
	pushq	%r15
	pushq	%r14
	pushq	%r12
	pushq	%rbx
	.cfi_offset %rbx, -48
	.cfi_offset %r12, -40
	.cfi_offset %r14, -32
	.cfi_offset %r15, -24
	movq	%rdx, %r14
	movq	%rsi, %r15
	movq	%rdi, %rbx
	movq	16(%rdi), %rcx
	cmpq	8(%rdi), %rcx
	jne	LBB84_18
	movq	%rcx, %rdx
	incq	%rdx
	je	LBB84_19
	leaq	(%rcx,%rcx), %rax
	cmpq	%rdx, %rax
	cmovaq	%rax, %rdx
	cmpq	$4, %rdx
	movl	$4, %eax
	cmovaq	%rdx, %rax
	movl	$16, %edx
	xorl	%esi, %esi
	mulq	%rdx
	movq	%rax, %r12
	seto	%dl
	setno	%dil
	movq	%rcx, %rax
	testq	%rcx, %rcx
	je	LBB84_4
	movq	(%rbx), %rax
LBB84_4:
	testb	%dl, %dl
	jne	LBB84_19
	testq	%rax, %rax
	je	LBB84_6
	movq	%rcx, %rsi
	shlq	$4, %rsi
	cmpq	%r12, %rsi
	je	LBB84_15
	testq	%rsi, %rsi
	je	LBB84_10
	movl	$8, %edx
	movq	%rax, %rdi
	movq	%r12, %rcx
	callq	___rust_realloc
	jmp	LBB84_15
LBB84_6:
	movb	%dil, %sil
	shlq	$3, %rsi
	testq	%r12, %r12
	jne	LBB84_13
	movq	%rsi, %rax
	jmp	LBB84_15
LBB84_10:
	testq	%r12, %r12
	je	LBB84_11
	movl	$8, %esi
LBB84_13:
	movq	%r12, %rdi
	callq	___rust_alloc
LBB84_15:
	testq	%rax, %rax
	je	LBB84_20
	movq	16(%rbx), %rcx
LBB84_17:
	movq	%rax, (%rbx)
	shrq	$4, %r12
	movq	%r12, 8(%rbx)
LBB84_18:
	movq	(%rbx), %rax
	shlq	$4, %rcx
	movq	%r15, (%rax,%rcx)
	movq	%r14, 8(%rax,%rcx)
	incq	16(%rbx)
	popq	%rbx
	popq	%r12
	popq	%r14
	popq	%r15
	popq	%rbp
	retq
LBB84_11:
	movl	$8, %eax
	jmp	LBB84_17
LBB84_19:
	callq	__ZN5alloc7raw_vec17capacity_overflow17h7526b10e27579d59E
LBB84_20:
	movl	$8, %esi
	movq	%r12, %rdi
	callq	__ZN5alloc5alloc18handle_alloc_error17h28974197717b8939E
	.cfi_endproc

	.p2align	4, 0x90
__ZN5alloc3vec12Vec$LT$T$GT$6insert17hdfbf190dfe4100afE:
Lfunc_begin12:
	.cfi_startproc
	.cfi_personality 155, _rust_eh_personality
	.cfi_lsda 16, Lexception12
	pushq	%rbp
	.cfi_def_cfa_offset 16
	.cfi_offset %rbp, -16
	movq	%rsp, %rbp
	.cfi_def_cfa_register %rbp
	pushq	%r15
	pushq	%r14
	pushq	%r13
	pushq	%r12
	pushq	%rbx
	pushq	%rax
	.cfi_offset %rbx, -56
	.cfi_offset %r12, -48
	.cfi_offset %r13, -40
	.cfi_offset %r14, -32
	.cfi_offset %r15, -24
	movq	%rdi, %r14
	movq	__ZN9backtrace9symbolize5gimli5Cache11with_global14MAPPINGS_CACHE17h5a732e73362948c7E+40(%rip), %rcx
	cmpq	__ZN9backtrace9symbolize5gimli5Cache11with_global14MAPPINGS_CACHE17h5a732e73362948c7E+32(%rip), %rcx
	jne	LBB85_1
	movq	%rcx, %r13
	incq	%r13
	je	LBB85_22
	leaq	(%rcx,%rcx), %rdx
	cmpq	%r13, %rdx
	cmovbeq	%r13, %rdx
	cmpq	$4, %rdx
	movl	$4, %eax
	cmovaq	%rdx, %rax
	movl	$360, %edx
	xorl	%esi, %esi
	mulq	%rdx
	movq	%rax, %r15
	seto	%dl
	setno	%al
	movq	%rcx, %rbx
	testq	%rcx, %rcx
	je	LBB85_7
	movq	__ZN9backtrace9symbolize5gimli5Cache11with_global14MAPPINGS_CACHE17h5a732e73362948c7E+24(%rip), %rbx
LBB85_7:
	testb	%dl, %dl
	jne	LBB85_22
	imulq	$360, %rcx, %r12
	testq	%rbx, %rbx
	je	LBB85_9
	cmpq	%r15, %r12
	je	LBB85_20
	testq	%r12, %r12
	je	LBB85_13
	movl	$8, %edx
	movq	%rbx, %rdi
	movq	%r12, %rsi
	movq	%r15, %rcx
	callq	___rust_realloc
	jmp	LBB85_19
LBB85_1:
	movq	__ZN9backtrace9symbolize5gimli5Cache11with_global14MAPPINGS_CACHE17h5a732e73362948c7E+24(%rip), %rbx
	imulq	$360, %rcx, %r12
	incq	%rcx
	movq	%rcx, %r13
	jmp	LBB85_2
LBB85_9:
	movb	%al, %sil
	shlq	$3, %rsi
	testq	%r15, %r15
	jne	LBB85_17
	movq	%rsi, %rbx
	jmp	LBB85_20
LBB85_13:
	testq	%r15, %r15
	je	LBB85_14
	movl	$8, %esi
LBB85_17:
	movq	%r15, %rdi
	callq	___rust_alloc
LBB85_19:
	movq	%rax, %rbx
LBB85_20:
	testq	%rbx, %rbx
	je	LBB85_21
LBB85_15:
	movq	%rbx, __ZN9backtrace9symbolize5gimli5Cache11with_global14MAPPINGS_CACHE17h5a732e73362948c7E+24(%rip)
	movabsq	$3279421168659475843, %rcx
	movq	%r15, %rax
	mulq	%rcx
	shrq	$6, %rdx
	movq	%rdx, __ZN9backtrace9symbolize5gimli5Cache11with_global14MAPPINGS_CACHE17h5a732e73362948c7E+32(%rip)
LBB85_2:
	leaq	360(%rbx), %rdi
	movq	%rbx, %rsi
	movq	%r12, %rdx
	callq	_memmove
	movl	$360, %edx
	movq	%rbx, %rdi
	movq	%r14, %rsi
	callq	_memmove
	movq	%r13, __ZN9backtrace9symbolize5gimli5Cache11with_global14MAPPINGS_CACHE17h5a732e73362948c7E+40(%rip)
	addq	$8, %rsp
	popq	%rbx
	popq	%r12
	popq	%r13
	popq	%r14
	popq	%r15
	popq	%rbp
	retq
LBB85_14:
	movl	$8, %ebx
	jmp	LBB85_15
LBB85_22:
Ltmp50:
	callq	__ZN5alloc7raw_vec17capacity_overflow17h7526b10e27579d59E
Ltmp51:
	ud2
LBB85_21:
	movl	$8, %esi
	movq	%r15, %rdi
	callq	__ZN5alloc5alloc18handle_alloc_error17h28974197717b8939E
LBB85_3:
Ltmp52:
	movq	%rax, %rbx
	movq	%r14, %rdi
	callq	__ZN4core3ptr13drop_in_place17h1868a6a683965eabE
	movq	%rbx, %rdi
	callq	__Unwind_Resume
	ud2
Lfunc_end12:
	.cfi_endproc
	.section	__TEXT,__gcc_except_tab
	.p2align	2
GCC_except_table85:
Lexception12:
	.byte	255
	.byte	255
	.byte	1
	.uleb128 Lcst_end12-Lcst_begin12
Lcst_begin12:
	.uleb128 Lfunc_begin12-Lfunc_begin12
	.uleb128 Ltmp50-Lfunc_begin12
	.byte	0
	.byte	0
	.uleb128 Ltmp50-Lfunc_begin12
	.uleb128 Ltmp51-Ltmp50
	.uleb128 Ltmp52-Lfunc_begin12
	.byte	0
	.uleb128 Ltmp51-Lfunc_begin12
	.uleb128 Lfunc_end12-Ltmp51
	.byte	0
	.byte	0
Lcst_end12:
	.p2align	2

	.section	__TEXT,__text,regular,pure_instructions
	.p2align	4, 0x90
__ZN5alloc3vec12Vec$LT$T$GT$7reserve17h1cf3decdb3234d84E:
	.cfi_startproc
	pushq	%rbp
	.cfi_def_cfa_offset 16
	.cfi_offset %rbp, -16
	movq	%rsp, %rbp
	.cfi_def_cfa_register %rbp
	pushq	%r14
	pushq	%rbx
	.cfi_offset %rbx, -32
	.cfi_offset %r14, -24
	movq	%rsi, %rax
	movq	8(%rdi), %rsi
	movq	16(%rdi), %rcx
	movq	%rsi, %rdx
	subq	%rcx, %rdx
	cmpq	%rax, %rdx
	jae	LBB86_17
	addq	%rax, %rcx
	jb	LBB86_18
	movq	%rdi, %rbx
	leaq	(%rsi,%rsi), %rax
	cmpq	%rcx, %rax
	cmovaq	%rax, %rcx
	cmpq	$4, %rcx
	movl	$4, %eax
	cmovaq	%rcx, %rax
	movl	$64, %edx
	xorl	%ecx, %ecx
	mulq	%rdx
	movq	%rax, %r14
	seto	%dl
	setno	%dil
	movq	%rsi, %rax
	testq	%rsi, %rsi
	je	LBB86_4
	movq	(%rbx), %rax
LBB86_4:
	testb	%dl, %dl
	jne	LBB86_18
	testq	%rax, %rax
	je	LBB86_6
	shlq	$6, %rsi
	cmpq	%r14, %rsi
	je	LBB86_15
	testq	%rsi, %rsi
	je	LBB86_11
	movl	$8, %edx
	movq	%rax, %rdi
	movq	%r14, %rcx
	callq	___rust_realloc
	testq	%rax, %rax
	jne	LBB86_16
	jmp	LBB86_19
LBB86_6:
	movb	%dil, %cl
	shlq	$3, %rcx
	testq	%r14, %r14
	je	LBB86_7
	movq	%r14, %rdi
	movq	%rcx, %rsi
	callq	___rust_alloc
	testq	%rax, %rax
	jne	LBB86_16
	jmp	LBB86_19
LBB86_7:
	movq	%rcx, %rax
LBB86_15:
	testq	%rax, %rax
	je	LBB86_19
LBB86_16:
	movq	%rax, (%rbx)
	shrq	$6, %r14
	movq	%r14, 8(%rbx)
LBB86_17:
	popq	%rbx
	popq	%r14
	popq	%rbp
	retq
LBB86_11:
	testq	%r14, %r14
	je	LBB86_12
	movl	$8, %esi
	movq	%r14, %rdi
	callq	___rust_alloc
	testq	%rax, %rax
	jne	LBB86_16
LBB86_19:
	movl	$8, %esi
	movq	%r14, %rdi
	callq	__ZN5alloc5alloc18handle_alloc_error17h28974197717b8939E
LBB86_12:
	movl	$8, %eax
	jmp	LBB86_16
LBB86_18:
	callq	__ZN5alloc7raw_vec17capacity_overflow17h7526b10e27579d59E
	.cfi_endproc

	.p2align	4, 0x90
__ZN5alloc3vec12Vec$LT$T$GT$7reserve17h3d1ab0d0e925a9fdE:
	.cfi_startproc
	pushq	%rbp
	.cfi_def_cfa_offset 16
	.cfi_offset %rbp, -16
	movq	%rsp, %rbp
	.cfi_def_cfa_register %rbp
	pushq	%r14
	pushq	%rbx
	.cfi_offset %rbx, -32
	.cfi_offset %r14, -24
	movq	%rsi, %rcx
	movq	8(%rdi), %rsi
	movq	16(%rdi), %rax
	movq	%rsi, %rdx
	subq	%rax, %rdx
	cmpq	%rcx, %rdx
	jae	LBB87_17
	addq	%rcx, %rax
	jb	LBB87_18
	movq	%rdi, %rbx
	leaq	(%rsi,%rsi), %rcx
	cmpq	%rax, %rcx
	cmovaq	%rcx, %rax
	cmpq	$4, %rax
	movl	$4, %edx
	cmovbeq	%rdx, %rax
	xorl	%ecx, %ecx
	mulq	%rdx
	movq	%rax, %r14
	seto	%dl
	setno	%dil
	movq	%rsi, %rax
	testq	%rsi, %rsi
	je	LBB87_4
	movq	(%rbx), %rax
LBB87_4:
	testb	%dl, %dl
	jne	LBB87_18
	testq	%rax, %rax
	je	LBB87_6
	shlq	$2, %rsi
	cmpq	%r14, %rsi
	je	LBB87_15
	testq	%rsi, %rsi
	je	LBB87_11
	movl	$2, %edx
	movq	%rax, %rdi
	movq	%r14, %rcx
	callq	___rust_realloc
	testq	%rax, %rax
	jne	LBB87_16
	jmp	LBB87_19
LBB87_6:
	movb	%dil, %cl
	addq	%rcx, %rcx
	testq	%r14, %r14
	je	LBB87_7
	movq	%r14, %rdi
	movq	%rcx, %rsi
	callq	___rust_alloc
	testq	%rax, %rax
	jne	LBB87_16
	jmp	LBB87_19
LBB87_7:
	movq	%rcx, %rax
LBB87_15:
	testq	%rax, %rax
	je	LBB87_19
LBB87_16:
	movq	%rax, (%rbx)
	shrq	$2, %r14
	movq	%r14, 8(%rbx)
LBB87_17:
	popq	%rbx
	popq	%r14
	popq	%rbp
	retq
LBB87_11:
	testq	%r14, %r14
	je	LBB87_12
	movl	$2, %esi
	movq	%r14, %rdi
	callq	___rust_alloc
	testq	%rax, %rax
	jne	LBB87_16
LBB87_19:
	movl	$2, %esi
	movq	%r14, %rdi
	callq	__ZN5alloc5alloc18handle_alloc_error17h28974197717b8939E
LBB87_12:
	movl	$2, %eax
	jmp	LBB87_16
LBB87_18:
	callq	__ZN5alloc7raw_vec17capacity_overflow17h7526b10e27579d59E
	.cfi_endproc

	.p2align	4, 0x90
__ZN5alloc3vec12Vec$LT$T$GT$7reserve17hdf8275a7585368e1E:
	.cfi_startproc
	pushq	%rbp
	.cfi_def_cfa_offset 16
	.cfi_offset %rbp, -16
	movq	%rsp, %rbp
	.cfi_def_cfa_register %rbp
	pushq	%r14
	pushq	%rbx
	.cfi_offset %rbx, -32
	.cfi_offset %r14, -24
	movq	8(%rdi), %rcx
	movq	16(%rdi), %rdx
	movq	%rcx, %rax
	subq	%rdx, %rax
	cmpq	%rsi, %rax
	jae	LBB88_17
	addq	%rsi, %rdx
	jb	LBB88_18
	movq	%rdi, %rbx
	leaq	(%rcx,%rcx), %rax
	cmpq	%rdx, %rax
	cmovaq	%rax, %rdx
	cmpq	$4, %rdx
	movl	$4, %eax
	cmovaq	%rdx, %rax
	movl	$24, %edx
	xorl	%esi, %esi
	mulq	%rdx
	movq	%rax, %r14
	seto	%dl
	setno	%dil
	movq	%rcx, %rax
	testq	%rcx, %rcx
	je	LBB88_4
	movq	(%rbx), %rax
LBB88_4:
	testb	%dl, %dl
	jne	LBB88_18
	testq	%rax, %rax
	je	LBB88_6
	shlq	$3, %rcx
	leaq	(%rcx,%rcx,2), %rsi
	cmpq	%r14, %rsi
	je	LBB88_15
	testq	%rsi, %rsi
	je	LBB88_10
	movl	$8, %edx
	movq	%rax, %rdi
	movq	%r14, %rcx
	callq	___rust_realloc
	jmp	LBB88_15
LBB88_6:
	movb	%dil, %sil
	shlq	$3, %rsi
	testq	%r14, %r14
	jne	LBB88_13
	movq	%rsi, %rax
	jmp	LBB88_15
LBB88_10:
	testq	%r14, %r14
	je	LBB88_11
	movl	$8, %esi
LBB88_13:
	movq	%r14, %rdi
	callq	___rust_alloc
LBB88_15:
	testq	%rax, %rax
	je	LBB88_19
LBB88_16:
	movq	%rax, (%rbx)
	movabsq	$-6148914691236517205, %rcx
	movq	%r14, %rax
	mulq	%rcx
	shrq	$4, %rdx
	movq	%rdx, 8(%rbx)
LBB88_17:
	popq	%rbx
	popq	%r14
	popq	%rbp
	retq
LBB88_11:
	movl	$8, %eax
	jmp	LBB88_16
LBB88_18:
	callq	__ZN5alloc7raw_vec17capacity_overflow17h7526b10e27579d59E
LBB88_19:
	movl	$8, %esi
	movq	%r14, %rdi
	callq	__ZN5alloc5alloc18handle_alloc_error17h28974197717b8939E
	.cfi_endproc

	.p2align	4, 0x90
__ZN5alloc4sync12Arc$LT$T$GT$9drop_slow17h2cd67dc6c465807cE:
Lfunc_begin13:
	.cfi_startproc
	.cfi_personality 155, _rust_eh_personality
	.cfi_lsda 16, Lexception13
	pushq	%rbp
	.cfi_def_cfa_offset 16
	.cfi_offset %rbp, -16
	movq	%rsp, %rbp
	.cfi_def_cfa_register %rbp
	pushq	%r14
	pushq	%rbx
	.cfi_offset %rbx, -32
	.cfi_offset %r14, -24
	movq	%rdi, %r14
	movq	(%rdi), %rbx
	leaq	16(%rbx), %rdi
Ltmp53:
	callq	__ZN65_$LT$std..sys..unix..fs..Dir$u20$as$u20$core..ops..drop..Drop$GT$4drop17h7faa39ffdce9e380E
Ltmp54:
	movq	24(%rbx), %rdi
	testq	%rdi, %rdi
	je	LBB89_4
	movq	32(%rbx), %rsi
	testq	%rsi, %rsi
	je	LBB89_4
	movl	$1, %edx
	callq	___rust_dealloc
LBB89_4:
	movq	(%r14), %rdi
	cmpq	$-1, %rdi
	je	LBB89_6
	lock		decq	8(%rdi)
	jne	LBB89_6
	##MEMBARRIER
	movl	$48, %esi
	movl	$8, %edx
	popq	%rbx
	popq	%r14
	popq	%rbp
	jmp	___rust_dealloc
LBB89_6:
	popq	%rbx
	popq	%r14
	popq	%rbp
	retq
LBB89_7:
Ltmp55:
	movq	%rax, %r14
	addq	$24, %rbx
	movq	%rbx, %rdi
	callq	__ZN4core3ptr13drop_in_place17h0334f139cc8c565fE
	movq	%r14, %rdi
	callq	__Unwind_Resume
	ud2
Lfunc_end13:
	.cfi_endproc
	.section	__TEXT,__gcc_except_tab
	.p2align	2
GCC_except_table89:
Lexception13:
	.byte	255
	.byte	255
	.byte	1
	.uleb128 Lcst_end13-Lcst_begin13
Lcst_begin13:
	.uleb128 Ltmp53-Lfunc_begin13
	.uleb128 Ltmp54-Ltmp53
	.uleb128 Ltmp55-Lfunc_begin13
	.byte	0
	.uleb128 Ltmp54-Lfunc_begin13
	.uleb128 Lfunc_end13-Ltmp54
	.byte	0
	.byte	0
Lcst_end13:
	.p2align	2

	.section	__TEXT,__text,regular,pure_instructions
	.p2align	4, 0x90
__ZN5alloc5alloc8box_free17h3e1a46f2a137386dE:
	.cfi_startproc
	pushq	%rbp
	.cfi_def_cfa_offset 16
	.cfi_offset %rbp, -16
	movq	%rsp, %rbp
	.cfi_def_cfa_register %rbp
	movq	%rsi, %rax
	movq	8(%rsi), %rsi
	testq	%rsi, %rsi
	je	LBB90_1
	movq	16(%rax), %rdx
	popq	%rbp
	jmp	___rust_dealloc
LBB90_1:
	popq	%rbp
	retq
	.cfi_endproc

	.p2align	4, 0x90
__ZN5alloc5alloc8box_free17hceb63f359902e0e5E:
	.cfi_startproc
	pushq	%rbp
	.cfi_def_cfa_offset 16
	.cfi_offset %rbp, -16
	movq	%rsp, %rbp
	.cfi_def_cfa_register %rbp
	movl	$64, %esi
	movl	$8, %edx
	popq	%rbp
	jmp	___rust_dealloc
	.cfi_endproc

	.p2align	4, 0x90
__ZN5alloc5alloc8box_free17hfa06cd1f35cd755aE:
	.cfi_startproc
	pushq	%rbp
	.cfi_def_cfa_offset 16
	.cfi_offset %rbp, -16
	movq	%rsp, %rbp
	.cfi_def_cfa_register %rbp
	movl	$24, %esi
	movl	$8, %edx
	popq	%rbp
	jmp	___rust_dealloc
	.cfi_endproc

	.p2align	4, 0x90
__ZN5gimli4read4line15FileEntryFormat5parse17hfa60ac1e206b387bE:
Lfunc_begin14:
	.cfi_startproc
	.cfi_personality 155, _rust_eh_personality
	.cfi_lsda 16, Lexception14
	pushq	%rbp
	.cfi_def_cfa_offset 16
	.cfi_offset %rbp, -16
	movq	%rsp, %rbp
	.cfi_def_cfa_register %rbp
	pushq	%r15
	pushq	%r14
	pushq	%r13
	pushq	%r12
	pushq	%rbx
	subq	$56, %rsp
	.cfi_offset %rbx, -56
	.cfi_offset %r12, -48
	.cfi_offset %r13, -40
	.cfi_offset %r14, -32
	.cfi_offset %r15, -24
	movq	%rsi, %r13
	movq	%rdi, %r14
	movq	8(%rsi), %rbx
	testq	%rbx, %rbx
	je	LBB93_2
	movq	(%r13), %rax
	leaq	1(%rax), %rcx
	decq	%rbx
	movq	%rcx, (%r13)
	movq	%rbx, 8(%r13)
	movzbl	(%rax), %r12d
	movl	$70, %ecx
	cmpb	$70, %cl
	jne	LBB93_9
LBB93_4:
	testq	%r12, %r12
	je	LBB93_5
	leaq	(,%r12,4), %r15
	movl	$2, %esi
	movq	%r15, %rdi
	callq	___rust_alloc
	testq	%rax, %rax
	je	LBB93_8
	movq	%rax, %r8
	movq	%rax, -80(%rbp)
	movq	%r12, -72(%rbp)
	movq	$0, -64(%rbp)
	xorl	%r9d, %r9d
	leaq	-80(%rbp), %rdi
	movl	$0, -52(%rbp)
	xorl	%r10d, %r10d
	xorl	%eax, %eax
LBB93_12:
	incq	%rax
	movq	%rax, -88(%rbp)
	addq	$-3, %rbx
	xorl	%ecx, %ecx
	xorl	%r15d, %r15d
	.p2align	4, 0x90
LBB93_13:
	cmpq	$-3, %rbx
	je	LBB93_24
	movq	(%r13), %rsi
	leaq	1(%rsi), %r11
	leaq	2(%rbx), %rax
	movq	%r11, (%r13)
	movq	%rax, 8(%r13)
	movzbl	(%rsi), %eax
	cmpq	$63, %rcx
	jne	LBB93_17
	cmpb	$2, %al
	jae	LBB93_16
LBB93_17:
	cmpq	$63, %rcx
	ja	LBB93_22
	movzbl	%al, %edx
	movl	%edx, %eax
	andl	$127, %eax
	shlq	%cl, %rax
	orq	%rax, %r15
	addq	$7, %rcx
	decq	%rbx
	testb	%dl, %dl
	js	LBB93_13
	movw	$-1, -42(%rbp)
	cmpq	$65535, %r15
	ja	LBB93_32
	cmpw	$1, %r15w
	jne	LBB93_21
	incl	-52(%rbp)
	jo	LBB93_52
	movw	$1, -42(%rbp)
	jmp	LBB93_32
LBB93_21:
	movl	%r15d, %eax
	movw	%r15w, -42(%rbp)
LBB93_32:
	cmpq	$-3, %rbx
	je	LBB93_45
	leaq	2(%rsi), %r11
	leaq	2(%rbx), %rax
	movq	%r11, (%r13)
	movq	%rax, 8(%r13)
	movzbl	1(%rsi), %eax
	movl	%eax, %ecx
	andl	$127, %ecx
	movl	%ecx, -48(%rbp)
	testb	%al, %al
	jns	LBB93_40
	cmpq	$-2, %rbx
	je	LBB93_45
	leaq	3(%rsi), %r11
	leaq	1(%rbx), %rax
	movq	%r11, (%r13)
	movq	%rax, 8(%r13)
	movzbl	2(%rsi), %eax
	movl	%eax, %ecx
	andl	$127, %ecx
	shll	$7, %ecx
	movl	-48(%rbp), %edx
	movzwl	%dx, %edx
	orl	%ecx, %edx
	movl	%edx, -48(%rbp)
	testb	%al, %al
	jns	LBB93_40
	cmpq	$-1, %rbx
	je	LBB93_45
	leaq	4(%rsi), %rax
	movq	%rax, (%r13)
	movq	%rbx, 8(%r13)
	movzbl	3(%rsi), %eax
	cmpw	$3, %ax
	ja	LBB93_38
	movzwl	%ax, %eax
	shll	$14, %eax
	movl	-48(%rbp), %ecx
	movzwl	%cx, %ecx
	orl	%eax, %ecx
	movl	%ecx, -48(%rbp)
LBB93_40:
	cmpq	-72(%rbp), %r9
	jne	LBB93_43
Ltmp58:
	movl	$1, %esi
	movq	%rdi, %rbx
	callq	__ZN5alloc3vec12Vec$LT$T$GT$7reserve17h3d1ab0d0e925a9fdE
Ltmp59:
	movq	-80(%rbp), %r8
	movq	-64(%rbp), %r9
	movq	%rbx, %rdi
LBB93_43:
	movzwl	-42(%rbp), %eax
	movw	%ax, (%r8,%r9,4)
	movl	-48(%rbp), %eax
	movw	%ax, 2(%r8,%r9,4)
	incq	%r9
	movq	%r9, -64(%rbp)
	cmpq	%r12, -88(%rbp)
	je	LBB93_47
	andq	$-256, %r15
	movq	8(%r13), %rbx
	movq	%r15, %r10
	movq	-88(%rbp), %rax
	jmp	LBB93_12
LBB93_2:
	movq	(%r13), %rax
	movl	$19, %ecx
	xorl	%ebx, %ebx
	xorl	%r12d, %r12d
	cmpb	$70, %cl
	je	LBB93_4
LBB93_9:
	movb	%cl, 8(%r14)
	movb	$0, 15(%r14)
	movw	$0, 13(%r14)
	movl	$0, 9(%r14)
	movq	%rax, 16(%r14)
	movq	$1, (%r14)
	jmp	LBB93_10
LBB93_5:
	movq	$2, -80(%rbp)
	movq	%r12, -72(%rbp)
	movq	$0, -64(%rbp)
	movl	$2, %r8d
LBB93_6:
	movb	$67, 8(%r14)
	movq	$1, (%r14)
	movq	-72(%rbp), %rsi
	testq	%rsi, %rsi
	jne	LBB93_27
	jmp	LBB93_10
LBB93_24:
	movq	(%r13), %rax
	movl	$19, %ecx
	xorl	%r10d, %r10d
	jmp	LBB93_25
LBB93_16:
	movl	$6, %ecx
LBB93_25:
	orq	%r10, %rcx
	movq	%rcx, 8(%r14)
	movq	%rax, 16(%r14)
	movq	$1, (%r14)
	movq	-72(%rbp), %rsi
	testq	%rsi, %rsi
	je	LBB93_10
LBB93_27:
	testq	%r8, %r8
	je	LBB93_10
	shlq	$2, %rsi
	testq	%rsi, %rsi
	je	LBB93_10
	movl	$2, %edx
	movq	%r8, %rdi
	callq	___rust_dealloc
LBB93_10:
	addq	$56, %rsp
	popq	%rbx
	popq	%r12
	popq	%r13
	popq	%r14
	popq	%r15
	popq	%rbp
	retq
LBB93_45:
	movb	$19, %al
LBB93_46:
	movb	%al, 8(%r14)
	movb	$0, 15(%r14)
	movw	$0, 13(%r14)
	movl	$0, 9(%r14)
	movq	%r11, 16(%r14)
	movq	$1, (%r14)
	movq	-72(%rbp), %rsi
	testq	%rsi, %rsi
	jne	LBB93_27
	jmp	LBB93_10
LBB93_47:
	cmpl	$1, -52(%rbp)
	jne	LBB93_6
	movq	-64(%rbp), %rax
	movq	%rax, 24(%r14)
	movq	-80(%rbp), %rax
	movq	-72(%rbp), %rcx
	movq	%rcx, 16(%r14)
	movq	%rax, 8(%r14)
	movq	$0, (%r14)
	jmp	LBB93_10
LBB93_38:
	movb	$6, %al
	jmp	LBB93_46
LBB93_22:
Ltmp61:
	leaq	_str.7(%rip), %rdi
	leaq	l___unnamed_25(%rip), %rdx
	movl	$35, %esi
	callq	__ZN4core9panicking5panic17h383a6b80ea7021aaE
Ltmp62:
LBB93_23:
	ud2
LBB93_52:
Ltmp56:
	leaq	_str.0(%rip), %rdi
	leaq	l___unnamed_26(%rip), %rdx
	movl	$28, %esi
	callq	__ZN4core9panicking5panic17h383a6b80ea7021aaE
Ltmp57:
	jmp	LBB93_23
LBB93_8:
	movl	$2, %esi
	movq	%r15, %rdi
	callq	__ZN5alloc5alloc18handle_alloc_error17h28974197717b8939E
LBB93_50:
Ltmp63:
	jmp	LBB93_51
LBB93_49:
Ltmp60:
LBB93_51:
	movq	%rax, %rbx
	leaq	-80(%rbp), %rdi
	callq	__ZN4core3ptr13drop_in_place17h9d26fd39581bfb86E
	movq	%rbx, %rdi
	callq	__Unwind_Resume
	ud2
Lfunc_end14:
	.cfi_endproc
	.section	__TEXT,__gcc_except_tab
	.p2align	2
GCC_except_table93:
Lexception14:
	.byte	255
	.byte	255
	.byte	1
	.uleb128 Lcst_end14-Lcst_begin14
Lcst_begin14:
	.uleb128 Ltmp58-Lfunc_begin14
	.uleb128 Ltmp59-Ltmp58
	.uleb128 Ltmp60-Lfunc_begin14
	.byte	0
	.uleb128 Ltmp61-Lfunc_begin14
	.uleb128 Ltmp57-Ltmp61
	.uleb128 Ltmp63-Lfunc_begin14
	.byte	0
	.uleb128 Ltmp57-Lfunc_begin14
	.uleb128 Lfunc_end14-Ltmp57
	.byte	0
	.byte	0
Lcst_end14:
	.p2align	2

	.section	__TEXT,__text,regular,pure_instructions
	.p2align	4, 0x90
__ZN5gimli4read4line15parse_attribute17ha668e79c76e16e9cE:
	.cfi_startproc
	pushq	%rbp
	.cfi_def_cfa_offset 16
	.cfi_offset %rbp, -16
	movq	%rsp, %rbp
	.cfi_def_cfa_register %rbp
	shrl	$8, %edx
	leal	-3(%rcx), %eax
	cmpw	$37, %ax
	ja	LBB94_4
	movzwl	%ax, %eax
	leaq	LJTI94_0(%rip), %rcx
	movslq	(%rcx,%rax,4), %rax
	addq	%rcx, %rax
	jmpq	*%rax
LBB94_2:
	movq	8(%rsi), %rax
	cmpq	$2, %rax
	jb	LBB94_93
	movq	(%rsi), %rcx
	leaq	2(%rcx), %r10
	addq	$-2, %rax
	movq	%r10, (%rsi)
	movq	%rax, 8(%rsi)
	movzwl	(%rcx), %r11d
	subq	%r11, %rax
	jae	LBB94_65
	jmp	LBB94_109
LBB94_4:
	movzwl	%cx, %eax
	cmpl	$7938, %eax
	je	LBB94_9
	cmpl	$7969, %eax
	jne	LBB94_16
LBB94_6:
	movq	8(%rsi), %rax
	cmpb	$8, %dl
	jne	LBB94_79
	cmpq	$8, %rax
	jb	LBB94_93
	movq	(%rsi), %rcx
	leaq	8(%rcx), %rdx
	addq	$-8, %rax
	movq	%rdx, (%rsi)
	movq	%rax, 8(%rsi)
	movq	(%rcx), %r10
	jmp	LBB94_81
LBB94_9:
	movq	8(%rsi), %r8
	decq	%r8
	xorl	%ecx, %ecx
	xorl	%r10d, %r10d
	.p2align	4, 0x90
LBB94_10:
	cmpq	$-1, %r8
	je	LBB94_61
	movq	(%rsi), %rdx
	leaq	1(%rdx), %rax
	movq	%rax, (%rsi)
	movq	%r8, 8(%rsi)
	movzbl	(%rdx), %edx
	cmpq	$63, %rcx
	jne	LBB94_13
	cmpb	$2, %dl
	jae	LBB94_62
LBB94_13:
	cmpq	$63, %rcx
	ja	LBB94_116
	movzbl	%dl, %eax
	movl	%eax, %edx
	andl	$127, %edx
	shlq	%cl, %rdx
	orq	%rdx, %r10
	addq	$7, %rcx
	decq	%r8
	testb	%al, %al
	js	LBB94_10
	movl	%r10d, %ecx
	andl	$65280, %ecx
	movl	%r10d, %esi
	andl	$-65536, %esi
	movabsq	$-4294967296, %r8
	andq	%r10, %r8
	movl	$29, %r9d
	jmp	LBB94_112
LBB94_16:
	movb	$12, 8(%rdi)
	movl	$1, %eax
	movq	%rax, (%rdi)
	popq	%rbp
	retq
LBB94_17:
	movq	8(%rsi), %rdx
	decq	%rdx
	xorl	%ecx, %ecx
	xorl	%r8d, %r8d
	.p2align	4, 0x90
LBB94_18:
	cmpq	$-1, %rdx
	je	LBB94_61
	movq	%rcx, %r11
	movq	(%rsi), %rcx
	leaq	1(%rcx), %rax
	movq	%rax, (%rsi)
	movq	%rdx, 8(%rsi)
	movzbl	(%rcx), %r9d
	cmpq	$63, %r11
	je	LBB94_102
	movl	%r9d, %eax
	andl	$127, %eax
	movl	%r11d, %ecx
	shlq	%cl, %rax
	orq	%rax, %r8
	leaq	7(%r11), %rcx
	decq	%rdx
	testb	%r9b, %r9b
	js	LBB94_18
	jmp	LBB94_105
LBB94_21:
	movq	8(%rsi), %rax
	cmpq	$16, %rax
	jb	LBB94_93
	movq	(%rsi), %r10
	leaq	16(%r10), %rcx
	addq	$-16, %rax
	movq	%rcx, (%rsi)
	movq	%rax, 8(%rsi)
	movl	%r10d, %ecx
	andl	$65280, %ecx
	movl	%r10d, %esi
	andl	$-65536, %esi
	movabsq	$-4294967296, %r8
	andq	%r10, %r8
	movl	$1, %r9d
	movl	$16, %r11d
	jmp	LBB94_113
LBB94_23:
	movq	8(%rsi), %rax
	cmpq	$3, %rax
	jb	LBB94_93
	movq	(%rsi), %rcx
	leaq	3(%rcx), %rdx
	addq	$-3, %rax
	movq	%rdx, (%rsi)
	movq	%rax, 8(%rsi)
	movzwl	(%rcx), %r10d
	movzbl	2(%rcx), %esi
	shll	$16, %esi
	orl	%r10d, %esi
	movl	%r10d, %ecx
	andl	$65280, %ecx
	andl	$16711680, %esi
	jmp	LBB94_27
LBB94_25:
	movq	8(%rsi), %rax
	cmpq	$4, %rax
	jb	LBB94_93
	movq	(%rsi), %rcx
	leaq	4(%rcx), %rdx
	addq	$-4, %rax
	movq	%rdx, (%rsi)
	movq	%rax, 8(%rsi)
	movl	(%rcx), %r10d
	movl	%r10d, %ecx
	andl	$65280, %ecx
	movl	%r10d, %esi
	andl	$-65536, %esi
LBB94_27:
	movl	$29, %r9d
	xorl	%r8d, %r8d
	jmp	LBB94_112
LBB94_28:
	movq	8(%rsi), %rax
	cmpq	$2, %rax
	jae	LBB94_82
	movq	(%rsi), %rax
	movl	$19, %ecx
	xorl	%r10d, %r10d
	cmpb	$70, %cl
	je	LBB94_83
	jmp	LBB94_99
LBB94_30:
	movq	(%rsi), %r10
	movq	8(%rsi), %rax
	testq	%rax, %rax
	je	LBB94_109
	xorl	%r11d, %r11d
	.p2align	4, 0x90
LBB94_32:
	cmpb	$0, (%r10,%r11)
	je	LBB94_106
	incq	%r11
	cmpq	%r11, %rax
	jne	LBB94_32
	jmp	LBB94_109
LBB94_34:
	movq	8(%rsi), %rax
	testq	%rax, %rax
	je	LBB94_94
	movq	(%rsi), %rcx
	leaq	1(%rcx), %rdx
	decq	%rax
	movq	%rdx, (%rsi)
	movq	%rax, 8(%rsi)
	movb	(%rcx), %cl
	movl	$70, %edx
	cmpb	$70, %dl
	jne	LBB94_95
LBB94_36:
	testb	%cl, %cl
	setne	%r10b
	xorl	%r8d, %r8d
	movl	$9, %r9d
	jmp	LBB94_98
LBB94_37:
	movq	8(%rsi), %rax
	cmpb	$8, %dl
	jne	LBB94_84
	cmpq	$8, %rax
	jb	LBB94_93
	movq	(%rsi), %rcx
	leaq	8(%rcx), %rdx
	addq	$-8, %rax
	movq	%rdx, (%rsi)
	movq	%rax, 8(%rsi)
	movq	(%rcx), %r10
	jmp	LBB94_86
LBB94_40:
	movq	8(%rsi), %r8
	decq	%r8
	xorl	%ecx, %ecx
	xorl	%r10d, %r10d
	.p2align	4, 0x90
LBB94_41:
	cmpq	$-1, %r8
	je	LBB94_61
	movq	(%rsi), %rdx
	leaq	1(%rdx), %rax
	movq	%rax, (%rsi)
	movq	%r8, 8(%rsi)
	movzbl	(%rdx), %edx
	cmpq	$63, %rcx
	jne	LBB94_44
	cmpb	$2, %dl
	jae	LBB94_62
LBB94_44:
	cmpq	$63, %rcx
	ja	LBB94_116
	movzbl	%dl, %eax
	movl	%eax, %edx
	andl	$127, %edx
	shlq	%cl, %rdx
	orq	%rdx, %r10
	addq	$7, %rcx
	decq	%r8
	testb	%al, %al
	js	LBB94_41
	movl	%r10d, %ecx
	andl	$65280, %ecx
	movl	%r10d, %esi
	andl	$-65536, %esi
	movabsq	$-4294967296, %r8
	andq	%r10, %r8
	movl	$7, %r9d
	jmp	LBB94_112
LBB94_47:
	movq	8(%rsi), %rax
	cmpq	$4, %rax
	jb	LBB94_93
	movq	(%rsi), %rcx
	leaq	4(%rcx), %r10
	addq	$-4, %rax
	movq	%r10, (%rsi)
	movq	%rax, 8(%rsi)
	movl	(%rcx), %r11d
	subq	%r11, %rax
	jae	LBB94_65
	jmp	LBB94_109
LBB94_49:
	movq	8(%rsi), %rax
	cmpq	$4, %rax
	jae	LBB94_87
	movq	(%rsi), %rax
	movl	$19, %ecx
	xorl	%r10d, %r10d
	cmpb	$70, %cl
	jne	LBB94_99
	jmp	LBB94_88
LBB94_51:
	movq	8(%rsi), %rax
	cmpq	$8, %rax
	jb	LBB94_93
	movq	(%rsi), %rcx
	leaq	8(%rcx), %rdx
	addq	$-8, %rax
	movq	%rdx, (%rsi)
	movq	%rax, 8(%rsi)
	movq	(%rcx), %r10
	movl	%r10d, %ecx
	andl	$65280, %ecx
	movl	%r10d, %esi
	andl	$-65536, %esi
	movabsq	$-4294967296, %r8
	andq	%r10, %r8
	movl	$5, %r9d
	jmp	LBB94_112
LBB94_53:
	movq	8(%rsi), %rdx
	movq	%rdx, %r9
	negq	%r9
	decq	%rdx
	xorl	%ecx, %ecx
	xorl	%r11d, %r11d
	.p2align	4, 0x90
LBB94_54:
	testq	%r9, %r9
	je	LBB94_61
	movq	(%rsi), %rax
	leaq	1(%rax), %r10
	movq	%r10, (%rsi)
	movq	%rdx, 8(%rsi)
	movzbl	(%rax), %r8d
	cmpq	$63, %rcx
	jne	LBB94_57
	cmpb	$2, %r8b
	jae	LBB94_62
LBB94_57:
	cmpq	$63, %rcx
	ja	LBB94_116
	movzbl	%r8b, %r8d
	movl	%r8d, %eax
	andl	$127, %eax
	shlq	%cl, %rax
	orq	%rax, %r11
	addq	$7, %rcx
	incq	%r9
	decq	%rdx
	testb	%r8b, %r8b
	js	LBB94_54
	movq	%r9, %rax
	negq	%rax
	cmpq	%r11, %rax
	jb	LBB94_109
	leaq	(%r10,%r11), %rax
	addq	%r11, %r9
	negq	%r9
	movq	%rax, (%rsi)
	movq	%r9, 8(%rsi)
	jmp	LBB94_66
LBB94_61:
	movq	(%rsi), %rax
	movl	$19, %ecx
	movq	%rcx, 8(%rdi)
	jmp	LBB94_101
LBB94_62:
	movl	$6, %ecx
	movq	%rcx, 8(%rdi)
	jmp	LBB94_101
LBB94_63:
	movq	8(%rsi), %rax
	testq	%rax, %rax
	je	LBB94_93
	movq	(%rsi), %rcx
	leaq	1(%rcx), %r10
	decq	%rax
	movq	%r10, (%rsi)
	movq	%rax, 8(%rsi)
	movzbl	(%rcx), %r11d
	subq	%r11, %rax
	jb	LBB94_109
LBB94_65:
	leaq	(%r10,%r11), %rcx
	movq	%rcx, (%rsi)
	movq	%rax, 8(%rsi)
LBB94_66:
	movl	%r10d, %ecx
	andl	$65280, %ecx
	movl	%r10d, %esi
	andl	$-65536, %esi
	movabsq	$-4294967296, %r8
	andq	%r10, %r8
	movl	$1, %r9d
	jmp	LBB94_113
LBB94_67:
	movq	8(%rsi), %rax
	testq	%rax, %rax
	je	LBB94_96
	movq	(%rsi), %rcx
	leaq	1(%rcx), %rdx
	decq	%rax
	movq	%rdx, (%rsi)
	movq	%rax, 8(%rsi)
	movb	(%rcx), %r10b
	movl	$70, %ecx
	cmpb	$70, %cl
	jne	LBB94_99
	jmp	LBB94_97
LBB94_69:
	movq	8(%rsi), %rax
	testq	%rax, %rax
	je	LBB94_93
	movq	(%rsi), %rcx
	leaq	1(%rcx), %rdx
	decq	%rax
	movq	%rdx, (%rsi)
	movq	%rax, 8(%rsi)
	movb	(%rcx), %r10b
	xorl	%r8d, %r8d
	movl	$29, %r9d
	jmp	LBB94_98
LBB94_71:
	movq	8(%rsi), %rax
	cmpq	$2, %rax
	jb	LBB94_93
	movq	(%rsi), %rcx
	leaq	2(%rcx), %rdx
	addq	$-2, %rax
	movq	%rdx, (%rsi)
	movq	%rax, 8(%rsi)
	movzwl	(%rcx), %r10d
	movl	%r10d, %ecx
	andl	$65280, %ecx
	xorl	%r8d, %r8d
	movl	$29, %r9d
	xorl	%esi, %esi
	jmp	LBB94_113
LBB94_73:
	movq	8(%rsi), %rax
	cmpb	$8, %dl
	jne	LBB94_89
	cmpq	$8, %rax
	jb	LBB94_93
	movq	(%rsi), %rcx
	leaq	8(%rcx), %rdx
	addq	$-8, %rax
	movq	%rdx, (%rsi)
	movq	%rax, 8(%rsi)
	movq	(%rcx), %r10
	jmp	LBB94_91
LBB94_76:
	movq	8(%rsi), %rax
	cmpb	$8, %dl
	jne	LBB94_92
	cmpq	$8, %rax
	jb	LBB94_93
	movq	(%rsi), %rcx
	leaq	8(%rcx), %rdx
	addq	$-8, %rax
	movq	%rdx, (%rsi)
	movq	%rax, 8(%rsi)
	movq	(%rcx), %r10
	jmp	LBB94_111
LBB94_79:
	cmpq	$4, %rax
	jb	LBB94_93
	movq	(%rsi), %rcx
	leaq	4(%rcx), %rdx
	addq	$-4, %rax
	movq	%rdx, (%rsi)
	movq	%rax, 8(%rsi)
	movl	(%rcx), %r10d
LBB94_81:
	movl	%r10d, %ecx
	andl	$65280, %ecx
	movl	%r10d, %esi
	andl	$-65536, %esi
	movabsq	$-4294967296, %r8
	andq	%r10, %r8
	movl	$27, %r9d
	jmp	LBB94_112
LBB94_82:
	movq	(%rsi), %rcx
	leaq	2(%rcx), %rdx
	addq	$-2, %rax
	movq	%rdx, (%rsi)
	movq	%rax, 8(%rsi)
	movzwl	(%rcx), %r10d
	movl	$70, %ecx
	cmpb	$70, %cl
	jne	LBB94_99
LBB94_83:
	movl	%r10d, %ecx
	andl	$65280, %ecx
	xorl	%r8d, %r8d
	movl	$3, %r9d
	xorl	%esi, %esi
	jmp	LBB94_113
LBB94_84:
	cmpq	$4, %rax
	jb	LBB94_93
	movq	(%rsi), %rcx
	leaq	4(%rcx), %rdx
	addq	$-4, %rax
	movq	%rdx, (%rsi)
	movq	%rax, 8(%rsi)
	movl	(%rcx), %r10d
LBB94_86:
	movl	%r10d, %ecx
	andl	$65280, %ecx
	movl	%r10d, %esi
	andl	$-65536, %esi
	movabsq	$-4294967296, %r8
	andq	%r10, %r8
	movl	$26, %r9d
	jmp	LBB94_112
LBB94_87:
	movq	(%rsi), %rcx
	leaq	4(%rcx), %rdx
	addq	$-4, %rax
	movq	%rdx, (%rsi)
	movq	%rax, 8(%rsi)
	movl	(%rcx), %r10d
	movl	$70, %ecx
	cmpb	$70, %cl
	jne	LBB94_99
LBB94_88:
	movl	%r10d, %ecx
	andl	$65280, %ecx
	movl	%r10d, %esi
	andl	$-65536, %esi
	movl	$4, %r9d
	xorl	%r8d, %r8d
	jmp	LBB94_112
LBB94_89:
	cmpq	$4, %rax
	jb	LBB94_93
	movq	(%rsi), %rcx
	leaq	4(%rcx), %rdx
	addq	$-4, %rax
	movq	%rdx, (%rsi)
	movq	%rax, 8(%rsi)
	movl	(%rcx), %r10d
LBB94_91:
	movl	%r10d, %ecx
	andl	$65280, %ecx
	movl	%r10d, %esi
	andl	$-65536, %esi
	movabsq	$-4294967296, %r8
	andq	%r10, %r8
	movl	$10, %r9d
	jmp	LBB94_112
LBB94_92:
	cmpq	$4, %rax
	jae	LBB94_110
LBB94_93:
	movq	(%rsi), %rax
	movq	$19, 8(%rdi)
	jmp	LBB94_101
LBB94_94:
	movq	(%rsi), %rax
	movl	$19, %edx
	xorl	%ecx, %ecx
	cmpb	$70, %dl
	je	LBB94_36
LBB94_95:
	movb	%dl, 8(%rdi)
	jmp	LBB94_100
LBB94_96:
	movq	(%rsi), %rax
	movl	$19, %ecx
	xorl	%r10d, %r10d
	cmpb	$70, %cl
	jne	LBB94_99
LBB94_97:
	xorl	%r8d, %r8d
	movl	$2, %r9d
LBB94_98:
	xorl	%esi, %esi
	xorl	%ecx, %ecx
	jmp	LBB94_113
LBB94_99:
	movb	%cl, 8(%rdi)
LBB94_100:
	movb	$0, 15(%rdi)
	movw	$0, 13(%rdi)
	movl	$0, 9(%rdi)
LBB94_101:
	movq	%rax, 16(%rdi)
	movl	$1, %eax
	movq	%rax, (%rdi)
	popq	%rbp
	retq
LBB94_102:
	testb	%r9b, %r9b
	je	LBB94_104
	cmpb	$127, %r9b
	jne	LBB94_114
LBB94_104:
	movq	%r9, %rax
	shlq	$63, %rax
	orq	%rax, %r8
	movl	$70, %ecx
LBB94_105:
	movq	$-1, %r10
	shlq	%cl, %r10
	xorl	%eax, %eax
	testb	$64, %r9b
	cmoveq	%rax, %r10
	cmpl	$57, %r11d
	cmovaeq	%rax, %r10
	orq	%r8, %r10
	movl	%r10d, %ecx
	andl	$65280, %ecx
	movl	%r10d, %esi
	andl	$-65536, %esi
	movabsq	$-4294967296, %r8
	andq	%r10, %r8
	movl	$6, %r9d
	jmp	LBB94_112
LBB94_106:
	cmpq	%r11, %rax
	jb	LBB94_109
	leaq	(%r10,%r11), %rcx
	movq	%rcx, (%rsi)
	movq	%rax, %rdx
	subq	%r11, %rdx
	movq	%rdx, 8(%rsi)
	jne	LBB94_115
	movq	%rcx, %r10
LBB94_109:
	movq	$19, 8(%rdi)
	movq	%r10, 16(%rdi)
	movl	$1, %eax
	movq	%rax, (%rdi)
	popq	%rbp
	retq
LBB94_110:
	movq	(%rsi), %rcx
	leaq	4(%rcx), %rdx
	addq	$-4, %rax
	movq	%rdx, (%rsi)
	movq	%rax, 8(%rsi)
	movl	(%rcx), %r10d
LBB94_111:
	movl	%r10d, %ecx
	andl	$65280, %ecx
	movl	%r10d, %esi
	andl	$-65536, %esi
	movabsq	$-4294967296, %r8
	andq	%r10, %r8
	movl	$30, %r9d
LBB94_112:
LBB94_113:
	movq	%r9, 8(%rdi)
	movzbl	%r10b, %eax
	orl	%eax, %ecx
	movzwl	%cx, %eax
	orl	%esi, %eax
	orq	%r8, %rax
	movq	%rax, 16(%rdi)
	movq	%r11, 24(%rdi)
	xorl	%eax, %eax
	movq	%rax, (%rdi)
	popq	%rbp
	retq
LBB94_114:
	movl	$7, %ecx
	movq	%rcx, 8(%rdi)
	jmp	LBB94_101
LBB94_115:
	leaq	1(%r10,%r11), %rcx
	movq	%r11, %rdx
	notq	%rdx
	addq	%rax, %rdx
	movq	%rcx, (%rsi)
	movq	%rdx, 8(%rsi)
	movl	%r10d, %ecx
	andl	$65280, %ecx
	movl	%r10d, %esi
	andl	$-65536, %esi
	movabsq	$-4294967296, %r8
	andq	%r10, %r8
	movl	$31, %r9d
	jmp	LBB94_113
LBB94_116:
	leaq	_str.7(%rip), %rdi
	leaq	l___unnamed_25(%rip), %rdx
	movl	$35, %esi
	callq	__ZN4core9panicking5panic17h383a6b80ea7021aaE
	.cfi_endproc
	.p2align	2, 0x90
	.data_region jt32
.set L94_0_set_2, LBB94_2-LJTI94_0
.set L94_0_set_47, LBB94_47-LJTI94_0
.set L94_0_set_28, LBB94_28-LJTI94_0
.set L94_0_set_49, LBB94_49-LJTI94_0
.set L94_0_set_51, LBB94_51-LJTI94_0
.set L94_0_set_30, LBB94_30-LJTI94_0
.set L94_0_set_53, LBB94_53-LJTI94_0
.set L94_0_set_63, LBB94_63-LJTI94_0
.set L94_0_set_67, LBB94_67-LJTI94_0
.set L94_0_set_34, LBB94_34-LJTI94_0
.set L94_0_set_17, LBB94_17-LJTI94_0
.set L94_0_set_37, LBB94_37-LJTI94_0
.set L94_0_set_40, LBB94_40-LJTI94_0
.set L94_0_set_16, LBB94_16-LJTI94_0
.set L94_0_set_73, LBB94_73-LJTI94_0
.set L94_0_set_9, LBB94_9-LJTI94_0
.set L94_0_set_6, LBB94_6-LJTI94_0
.set L94_0_set_21, LBB94_21-LJTI94_0
.set L94_0_set_76, LBB94_76-LJTI94_0
.set L94_0_set_69, LBB94_69-LJTI94_0
.set L94_0_set_71, LBB94_71-LJTI94_0
.set L94_0_set_23, LBB94_23-LJTI94_0
.set L94_0_set_25, LBB94_25-LJTI94_0
LJTI94_0:
	.long	L94_0_set_2
	.long	L94_0_set_47
	.long	L94_0_set_28
	.long	L94_0_set_49
	.long	L94_0_set_51
	.long	L94_0_set_30
	.long	L94_0_set_53
	.long	L94_0_set_63
	.long	L94_0_set_67
	.long	L94_0_set_34
	.long	L94_0_set_17
	.long	L94_0_set_37
	.long	L94_0_set_40
	.long	L94_0_set_16
	.long	L94_0_set_16
	.long	L94_0_set_16
	.long	L94_0_set_16
	.long	L94_0_set_16
	.long	L94_0_set_16
	.long	L94_0_set_16
	.long	L94_0_set_73
	.long	L94_0_set_16
	.long	L94_0_set_16
	.long	L94_0_set_9
	.long	L94_0_set_16
	.long	L94_0_set_16
	.long	L94_0_set_6
	.long	L94_0_set_21
	.long	L94_0_set_76
	.long	L94_0_set_16
	.long	L94_0_set_16
	.long	L94_0_set_16
	.long	L94_0_set_16
	.long	L94_0_set_16
	.long	L94_0_set_69
	.long	L94_0_set_71
	.long	L94_0_set_23
	.long	L94_0_set_25
	.end_data_region

	.p2align	4, 0x90
__ZN5gimli4read4line27FileEntry$LT$R$C$Offset$GT$5parse17h1808622c86842055E:
	.cfi_startproc
	pushq	%rbp
	.cfi_def_cfa_offset 16
	.cfi_offset %rbp, -16
	movq	%rsp, %rbp
	.cfi_def_cfa_register %rbp
	pushq	%r15
	pushq	%r14
	pushq	%r12
	pushq	%rbx
	.cfi_offset %rbx, -48
	.cfi_offset %r12, -40
	.cfi_offset %r14, -32
	.cfi_offset %r15, -24
	movq	%rcx, %r8
	movq	8(%rsi), %r12
	decq	%r12
	xorl	%ecx, %ecx
	xorl	%r9d, %r9d
	.p2align	4, 0x90
LBB95_1:
	cmpq	$-1, %r12
	je	LBB95_20
	movq	(%rsi), %rbx
	leaq	1(%rbx), %r14
	movq	%r14, (%rsi)
	movq	%r12, 8(%rsi)
	movzbl	(%rbx), %ebx
	cmpq	$63, %rcx
	jne	LBB95_5
	cmpb	$2, %bl
	jae	LBB95_4
LBB95_5:
	cmpq	$63, %rcx
	ja	LBB95_30
	movzbl	%bl, %eax
	movl	%eax, %ebx
	andl	$127, %ebx
	shlq	%cl, %rbx
	orq	%rbx, %r9
	addq	$7, %rcx
	decq	%r12
	testb	%al, %al
	js	LBB95_1
	xorl	%ecx, %ecx
	xorl	%r10d, %r10d
	.p2align	4, 0x90
LBB95_8:
	cmpq	$-1, %r12
	je	LBB95_9
	leaq	1(%r14), %r11
	movq	%r11, (%rsi)
	movq	%r12, 8(%rsi)
	movzbl	(%r14), %ebx
	cmpq	$63, %rcx
	jne	LBB95_14
	cmpb	$1, %bl
	ja	LBB95_13
LBB95_14:
	cmpq	$63, %rcx
	ja	LBB95_30
	movzbl	%bl, %eax
	movl	%eax, %ebx
	andl	$127, %ebx
	shlq	%cl, %rbx
	orq	%rbx, %r10
	addq	$7, %rcx
	decq	%r12
	movq	%r11, %r14
	testb	%al, %al
	js	LBB95_8
	xorl	%ecx, %ecx
	xorl	%ebx, %ebx
	.p2align	4, 0x90
LBB95_17:
	cmpq	$-1, %r12
	je	LBB95_18
	leaq	1(%r11), %r14
	movq	%r14, (%rsi)
	movq	%r12, 8(%rsi)
	movzbl	(%r11), %r15d
	cmpq	$63, %rcx
	jne	LBB95_27
	cmpb	$1, %r15b
	ja	LBB95_26
LBB95_27:
	cmpq	$63, %rcx
	ja	LBB95_30
	movzbl	%r15b, %r15d
	movl	%r15d, %eax
	andl	$127, %eax
	shlq	%cl, %rax
	orq	%rax, %rbx
	addq	$7, %rcx
	decq	%r12
	movq	%r14, %r11
	testb	%r15b, %r15b
	js	LBB95_17
	movq	$31, 8(%rdi)
	movq	%rdx, 16(%rdi)
	movq	%r8, 24(%rdi)
	movq	%r9, 32(%rdi)
	movq	%r10, 40(%rdi)
	movq	%rbx, 48(%rdi)
	movq	$0, 56(%rdi)
	movq	$0, 64(%rdi)
	xorl	%eax, %eax
	jmp	LBB95_23
LBB95_20:
	movq	(%rsi), %rcx
	movl	$19, %eax
	jmp	LBB95_21
LBB95_4:
	movl	$6, %eax
LBB95_21:
	movq	%rax, 8(%rdi)
	movq	%rcx, 16(%rdi)
	jmp	LBB95_22
LBB95_9:
	movl	$19, %eax
	jmp	LBB95_10
LBB95_13:
	movl	$6, %eax
LBB95_10:
	movq	%rax, 8(%rdi)
	movq	%r14, 16(%rdi)
	jmp	LBB95_22
LBB95_18:
	movl	$19, %eax
	jmp	LBB95_19
LBB95_26:
	movl	$6, %eax
LBB95_19:
	movq	%rax, 8(%rdi)
	movq	%r11, 16(%rdi)
LBB95_22:
	movl	$1, %eax
LBB95_23:
	movq	%rax, (%rdi)
	popq	%rbx
	popq	%r12
	popq	%r14
	popq	%r15
	popq	%rbp
	retq
LBB95_30:
	leaq	_str.7(%rip), %rdi
	leaq	l___unnamed_25(%rip), %rdx
	movl	$35, %esi
	callq	__ZN4core9panicking5panic17h383a6b80ea7021aaE
	.cfi_endproc

	.p2align	4, 0x90
__ZN5gimli4read4unit15parse_attribute17hc153e8cc915c48efE:
	.cfi_startproc
	pushq	%rbp
	.cfi_def_cfa_offset 16
	.cfi_offset %rbp, -16
	movq	%rsp, %rbp
	.cfi_def_cfa_register %rbp
	pushq	%r15
	pushq	%r14
	pushq	%r13
	pushq	%r12
	pushq	%rbx
	subq	$24, %rsp
	.cfi_offset %rbx, -56
	.cfi_offset %r12, -48
	.cfi_offset %r13, -40
	.cfi_offset %r14, -32
	.cfi_offset %r15, -24
	movl	%r8d, -52(%rbp)
	movq	%rcx, %r8
	movq	%rsi, %r12
	movq	%rdi, -48(%rbp)
	movl	%edx, %r10d
	shrl	$8, %r10d
	movl	%edx, %esi
	shrl	$16, %esi
	leaq	8(%r12), %r13
	movl	%r9d, %edi
	.p2align	4, 0x90
LBB96_1:
	cmpw	$22, %di
	jne	LBB96_9
	movq	(%r13), %rcx
	testq	%rcx, %rcx
	je	LBB96_15
	movq	(%r12), %r15
	leaq	1(%r15), %r14
	leaq	-1(%rcx), %rax
	movq	%r14, (%r12)
	movq	%rax, 8(%r12)
	movzbl	(%r15), %ebx
	movl	%ebx, %edi
	andl	$127, %edi
	testb	%bl, %bl
	jns	LBB96_1
	testq	%rax, %rax
	je	LBB96_16
	leaq	2(%r15), %r14
	leaq	-2(%rcx), %r11
	movq	%r14, (%r12)
	movq	%r11, 8(%r12)
	movzbl	1(%r15), %eax
	movl	%eax, %ebx
	andl	$127, %ebx
	shll	$7, %ebx
	movzwl	%di, %edi
	orl	%ebx, %edi
	testb	%al, %al
	jns	LBB96_1
	testq	%r11, %r11
	je	LBB96_16
	leaq	3(%r15), %rax
	addq	$-3, %rcx
	movq	%rax, (%r12)
	movq	%rcx, 8(%r12)
	movzbl	2(%r15), %eax
	cmpw	$3, %ax
	ja	LBB96_20
	movzwl	%ax, %eax
	shll	$14, %eax
	movzwl	%di, %edi
	orl	%eax, %edi
	jmp	LBB96_1
LBB96_9:
	leal	-1(%rdi), %eax
	cmpw	$43, %ax
	ja	LBB96_21
	movzwl	%ax, %eax
	leaq	LJTI96_0(%rip), %rcx
	movslq	(%rcx,%rax,4), %rax
	addq	%rcx, %rax
	jmpq	*%rax
LBB96_11:
	movl	$23, %eax
	leal	-1(%rdx), %ecx
	cmpb	$7, %cl
	ja	LBB96_250
	movzbl	%cl, %ecx
	leaq	LJTI96_3(%rip), %rsi
	movslq	(%rsi,%rcx,4), %rdi
	addq	%rsi, %rdi
	jmpq	*%rdi
LBB96_13:
	movq	(%r13), %rax
	testq	%rax, %rax
	je	LBB96_249
	movq	(%r12), %rcx
	leaq	1(%rcx), %rdx
	decq	%rax
	movq	%rdx, (%r12)
	movq	%rax, 8(%r12)
	movzbl	(%rcx), %r8d
	xorl	%ecx, %ecx
	xorl	%edx, %edx
	jmp	LBB96_247
LBB96_15:
	movq	(%r12), %r14
LBB96_16:
	movb	$19, %cl
LBB96_17:
	movq	-48(%rbp), %rsi
	movb	%cl, 8(%rsi)
	movb	$0, 15(%rsi)
	movw	$0, 13(%rsi)
	movl	$0, 9(%rsi)
	movq	%r14, 16(%rsi)
LBB96_18:
	movl	$1, %eax
LBB96_19:
	movq	%rax, (%rsi)
	addq	$24, %rsp
	popq	%rbx
	popq	%r12
	popq	%r13
	popq	%r14
	popq	%r15
	popq	%rbp
	retq
LBB96_20:
	movb	$6, %cl
	jmp	LBB96_17
LBB96_21:
	addl	$-7937, %edi
	cmpw	$32, %di
	ja	LBB96_182
	movzwl	%di, %eax
	leaq	LJTI96_1(%rip), %rcx
	movslq	(%rcx,%rax,4), %rax
	addq	%rcx, %rax
	jmpq	*%rax
LBB96_23:
	movq	(%r13), %rax
	decq	%rax
	xorl	%ecx, %ecx
	xorl	%r8d, %r8d
LBB96_24:
	cmpq	$-1, %rax
	je	LBB96_158
	movq	(%r12), %rdx
	leaq	1(%rdx), %rsi
	movq	%rsi, (%r12)
	movq	%rax, 8(%r12)
	movzbl	(%rdx), %edx
	cmpq	$63, %rcx
	jne	LBB96_27
	cmpb	$2, %dl
	jae	LBB96_159
LBB96_27:
	cmpq	$63, %rcx
	ja	LBB96_256
	movzbl	%dl, %edx
	movl	%edx, %esi
	andl	$127, %esi
	shlq	%cl, %rsi
	orq	%rsi, %r8
	addq	$7, %rcx
	decq	%rax
	testb	%dl, %dl
	js	LBB96_24
	movl	%r8d, %ecx
	andl	$65280, %ecx
	movl	%r8d, %edx
	andl	$-65536, %edx
	movabsq	$-4294967296, %rbx
	andq	%r8, %rbx
	movl	$12, %r9d
	jmp	LBB96_177
LBB96_30:
	movq	(%r13), %rax
	decq	%rax
	xorl	%ecx, %ecx
	xorl	%r8d, %r8d
LBB96_31:
	cmpq	$-1, %rax
	je	LBB96_158
	movq	(%r12), %rdx
	leaq	1(%rdx), %rsi
	movq	%rsi, (%r12)
	movq	%rax, 8(%r12)
	movzbl	(%rdx), %edx
	cmpq	$63, %rcx
	jne	LBB96_34
	cmpb	$2, %dl
	jae	LBB96_159
LBB96_34:
	cmpq	$63, %rcx
	ja	LBB96_256
	movzbl	%dl, %edx
	movl	%edx, %esi
	andl	$127, %esi
	shlq	%cl, %rsi
	orq	%rsi, %r8
	addq	$7, %rcx
	decq	%rax
	testb	%dl, %dl
	js	LBB96_31
	movl	%r8d, %ecx
	andl	$65280, %ecx
	movl	%r8d, %edx
	andl	$-65536, %edx
	movabsq	$-4294967296, %rbx
	andq	%r8, %rbx
	movl	$29, %r9d
	jmp	LBB96_177
LBB96_37:
	movq	(%r13), %rax
	cmpb	$8, %r10b
	jne	LBB96_43
	cmpq	$8, %rax
	jb	LBB96_229
	movq	(%r12), %rcx
	leaq	8(%rcx), %rdx
	addq	$-8, %rax
	movq	%rdx, (%r12)
	movq	%rax, 8(%r12)
	movq	(%rcx), %r8
	jmp	LBB96_45
LBB96_40:
	movq	(%r13), %rax
	cmpb	$8, %r10b
	je	LBB96_163
	cmpq	$4, %rax
	jb	LBB96_229
	movq	(%r12), %rcx
	leaq	4(%rcx), %rdx
	addq	$-4, %rax
	movq	%rdx, (%r12)
	movq	%rax, 8(%r12)
	movl	(%rcx), %r8d
	jmp	LBB96_165
LBB96_43:
	cmpq	$4, %rax
	jb	LBB96_229
	movq	(%r12), %rcx
	leaq	4(%rcx), %rdx
	addq	$-4, %rax
	movq	%rdx, (%r12)
	movq	%rax, 8(%r12)
	movl	(%rcx), %r8d
LBB96_45:
	movl	%r8d, %ecx
	andl	$65280, %ecx
	movl	%r8d, %edx
	andl	$-65536, %edx
	movabsq	$-4294967296, %rbx
	andq	%r8, %rbx
	movl	$27, %r9d
	jmp	LBB96_177
LBB96_46:
	movq	(%r13), %rax
	cmpq	$4, %rax
	jb	LBB96_229
	movq	(%r12), %rcx
	leaq	4(%rcx), %rdx
	addq	$-4, %rax
	movq	%rdx, (%r12)
	movq	%rax, 8(%r12)
	movl	(%rcx), %r8d
	movl	%r8d, %ecx
	andl	$65280, %ecx
	movl	%r8d, %edx
	andl	$-65536, %edx
	movl	$29, %r9d
	jmp	LBB96_176
LBB96_48:
	movq	(%r13), %rax
	cmpq	$2, %rax
	jb	LBB96_116
	movq	(%r12), %rcx
	leaq	2(%rcx), %r8
	addq	$-2, %rax
	movq	%r8, (%r12)
	movq	%rax, 8(%r12)
	movzwl	(%rcx), %edi
	jmp	LBB96_113
LBB96_50:
	movq	(%r13), %rax
	cmpq	$4, %rax
	jb	LBB96_116
	movq	(%r12), %rcx
	leaq	4(%rcx), %r8
	addq	$-4, %rax
	movq	%r8, (%r12)
	movq	%rax, 8(%r12)
	movl	(%rcx), %edi
	jmp	LBB96_113
LBB96_52:
	movq	(%r12), %r8
	movq	8(%r12), %rax
	testq	%rax, %rax
	je	LBB96_117
	xorl	%edi, %edi
LBB96_54:
	cmpb	$0, (%r8,%rdi)
	je	LBB96_225
	incq	%rdi
	cmpq	%rdi, %rax
	jne	LBB96_54
	jmp	LBB96_117
LBB96_56:
	cmpw	$2, %si
	jne	LBB96_191
	movl	$24, %eax
	leal	-1(%rdx), %ecx
	cmpb	$7, %cl
	ja	LBB96_250
	movzbl	%cl, %ecx
	leaq	LJTI96_2(%rip), %rsi
	movslq	(%rsi,%rcx,4), %rdi
	addq	%rsi, %rdi
	jmpq	*%rdi
LBB96_59:
	movq	(%r13), %rax
	testq	%rax, %rax
	je	LBB96_235
	movq	(%r12), %rcx
	leaq	1(%rcx), %rdx
	decq	%rax
	movq	%rdx, (%r12)
	movq	%rax, 8(%r12)
	movb	(%rcx), %al
	xorl	%edx, %edx
	xorl	%ecx, %ecx
	jmp	LBB96_254
LBB96_61:
	movq	(%r13), %rax
	testq	%rax, %rax
	je	LBB96_229
	movq	(%r12), %rcx
	leaq	1(%rcx), %rdx
	decq	%rax
	movq	%rdx, (%r12)
	movq	%rax, 8(%r12)
	movb	(%rcx), %r8b
	movl	$13, %r9d
	xorl	%ecx, %ecx
	jmp	LBB96_175
LBB96_63:
	movq	(%r13), %rax
	decq	%rax
	xorl	%ecx, %ecx
	xorl	%r8d, %r8d
LBB96_64:
	cmpq	$-1, %rax
	je	LBB96_158
	movq	(%r12), %rdx
	leaq	1(%rdx), %rsi
	movq	%rsi, (%r12)
	movq	%rax, 8(%r12)
	movzbl	(%rdx), %edx
	cmpq	$63, %rcx
	jne	LBB96_67
	cmpb	$2, %dl
	jae	LBB96_159
LBB96_67:
	cmpq	$63, %rcx
	ja	LBB96_256
	movzbl	%dl, %edx
	movl	%edx, %esi
	andl	$127, %esi
	shlq	%cl, %rsi
	orq	%rsi, %r8
	addq	$7, %rcx
	decq	%rax
	testb	%dl, %dl
	js	LBB96_64
	jmp	LBB96_142
LBB96_69:
	movq	(%r13), %rax
	movq	%rax, %rdx
	negq	%rdx
	decq	%rax
	xorl	%ecx, %ecx
	xorl	%edi, %edi
LBB96_70:
	testq	%rdx, %rdx
	je	LBB96_187
	movq	(%r12), %rsi
	leaq	1(%rsi), %r8
	movq	%r8, (%r12)
	movq	%rax, 8(%r12)
	movzbl	(%rsi), %ebx
	cmpq	$63, %rcx
	jne	LBB96_73
	cmpb	$2, %bl
	jae	LBB96_189
LBB96_73:
	cmpq	$63, %rcx
	ja	LBB96_256
	movzbl	%bl, %ebx
	movl	%ebx, %esi
	andl	$127, %esi
	shlq	%cl, %rsi
	orq	%rsi, %rdi
	addq	$7, %rcx
	incq	%rdx
	decq	%rax
	testb	%bl, %bl
	js	LBB96_70
	movq	%rdx, %rax
	negq	%rax
	cmpq	%rdi, %rax
	jb	LBB96_188
	leaq	(%r8,%rdi), %rax
	addq	%rdi, %rdx
	negq	%rdx
	movq	%rax, (%r12)
	movq	%rdx, 8(%r12)
	movl	%r8d, %ecx
	andl	$65280, %ecx
	movl	%r8d, %edx
	andl	$-65536, %edx
	movabsq	$-4294967296, %rbx
	andq	%r8, %rbx
	movl	$8, %r9d
	jmp	LBB96_178
LBB96_77:
	movq	(%r13), %rax
	cmpq	$4, %rax
	jb	LBB96_229
	movq	(%r12), %rcx
	leaq	4(%rcx), %rdx
	addq	$-4, %rax
	movq	%rdx, (%r12)
	movq	%rax, 8(%r12)
	movl	(%rcx), %r8d
	movl	%r8d, %ecx
	andl	$65280, %ecx
	movl	%r8d, %edx
	andl	$-65536, %edx
	movl	$15, %r9d
	jmp	LBB96_176
LBB96_79:
	movq	(%r13), %rax
	cmpq	$16, %rax
	jb	LBB96_229
	movq	(%r12), %r8
	leaq	16(%r8), %rcx
	addq	$-16, %rax
	movq	%rcx, (%r12)
	movq	%rax, 8(%r12)
	movl	%r8d, %ecx
	andl	$65280, %ecx
	movl	%r8d, %edx
	andl	$-65536, %edx
	movabsq	$-4294967296, %rbx
	andq	%r8, %rbx
	movl	$1, %r9d
	movl	$16, %edi
	jmp	LBB96_178
LBB96_81:
	movq	(%r13), %rax
	decq	%rax
	xorl	%ecx, %ecx
	xorl	%r8d, %r8d
LBB96_82:
	cmpq	$-1, %rax
	je	LBB96_158
	movq	(%r12), %rdx
	leaq	1(%rdx), %rsi
	movq	%rsi, (%r12)
	movq	%rax, 8(%r12)
	movzbl	(%rdx), %edx
	cmpq	$63, %rcx
	jne	LBB96_85
	cmpb	$2, %dl
	jae	LBB96_159
LBB96_85:
	cmpq	$63, %rcx
	ja	LBB96_256
	movzbl	%dl, %edx
	movl	%edx, %esi
	andl	$127, %esi
	shlq	%cl, %rsi
	orq	%rsi, %r8
	addq	$7, %rcx
	decq	%rax
	testb	%dl, %dl
	js	LBB96_82
	movl	%r8d, %ecx
	andl	$65280, %ecx
	movl	%r8d, %edx
	andl	$-65536, %edx
	movabsq	$-4294967296, %rbx
	andq	%r8, %rbx
	movl	$19, %r9d
	jmp	LBB96_177
LBB96_88:
	movq	(%r13), %rax
	cmpq	$2, %rax
	jb	LBB96_229
	movq	(%r12), %rcx
	leaq	2(%rcx), %rdx
	addq	$-2, %rax
	movq	%rdx, (%r12)
	movq	%rax, 8(%r12)
	movzwl	(%rcx), %r8d
	movl	%r8d, %ecx
	andl	$65280, %ecx
	movl	$29, %r9d
	jmp	LBB96_175
LBB96_90:
	movq	(%r13), %rax
	cmpq	$3, %rax
	jb	LBB96_229
	movq	(%r12), %rcx
	leaq	3(%rcx), %rdx
	addq	$-3, %rax
	movq	%rdx, (%r12)
	movq	%rax, 8(%r12)
	movzwl	(%rcx), %r8d
	movzbl	2(%rcx), %edx
	shll	$16, %edx
	orl	%r8d, %edx
	movl	%r8d, %ecx
	andl	$65280, %ecx
	andl	$16711680, %edx
	movl	$29, %r9d
	jmp	LBB96_176
LBB96_92:
	movq	(%r13), %rax
	testq	%rax, %rax
	je	LBB96_229
	movq	(%r12), %rcx
	leaq	1(%rcx), %rdx
	decq	%rax
	movq	%rdx, (%r12)
	movq	%rax, 8(%r12)
	movb	(%rcx), %r8b
	movl	$12, %r9d
	xorl	%ecx, %ecx
	jmp	LBB96_175
LBB96_94:
	movq	(%r13), %rax
	cmpq	$2, %rax
	jae	LBB96_194
	movq	(%r12), %rax
	movl	$19, %ecx
	xorl	%r8d, %r8d
	jmp	LBB96_195
LBB96_96:
	cmpb	$4, %r10b
	jne	LBB96_183
	movl	-52(%rbp), %edi
	callq	__ZN5gimli4read4unit20allow_section_offset17hafd89911d81dbd22E
	testb	%al, %al
	je	LBB96_183
	movq	(%r13), %rax
	cmpq	$4, %rax
	jb	LBB96_229
	movq	(%r12), %rcx
	leaq	4(%rcx), %rdx
	addq	$-4, %rax
	movq	%rdx, (%r12)
	movq	%rax, 8(%r12)
	movl	(%rcx), %r8d
	movl	$10, %r9d
	movq	-48(%rbp), %rsi
	jmp	LBB96_211
LBB96_100:
	cmpb	$8, %r10b
	jne	LBB96_185
	movl	-52(%rbp), %edi
	callq	__ZN5gimli4read4unit20allow_section_offset17hafd89911d81dbd22E
	testb	%al, %al
	je	LBB96_185
	movq	(%r13), %rax
	movl	$10, %r9d
	cmpq	$7, %rax
	ja	LBB96_186
	jmp	LBB96_229
LBB96_103:
	movq	(%r13), %rax
	movq	%rax, %rdx
	negq	%rdx
	decq	%rax
	xorl	%ecx, %ecx
	xorl	%edi, %edi
LBB96_104:
	testq	%rdx, %rdx
	je	LBB96_187
	movq	(%r12), %rsi
	leaq	1(%rsi), %r8
	movq	%r8, (%r12)
	movq	%rax, 8(%r12)
	movzbl	(%rsi), %ebx
	cmpq	$63, %rcx
	jne	LBB96_107
	cmpb	$2, %bl
	jae	LBB96_189
LBB96_107:
	cmpq	$63, %rcx
	ja	LBB96_256
	movzbl	%bl, %ebx
	movl	%ebx, %esi
	andl	$127, %esi
	shlq	%cl, %rsi
	orq	%rsi, %rdi
	addq	$7, %rcx
	incq	%rdx
	decq	%rax
	testb	%bl, %bl
	js	LBB96_104
	movq	%rdx, %rax
	negq	%rax
	cmpq	%rdi, %rax
	jb	LBB96_188
	leaq	(%r8,%rdi), %rax
	addq	%rdi, %rdx
	negq	%rdx
	movq	%rax, (%r12)
	movq	%rdx, 8(%r12)
	jmp	LBB96_115
LBB96_111:
	movq	(%r13), %rax
	testq	%rax, %rax
	je	LBB96_116
	movq	(%r12), %rcx
	leaq	1(%rcx), %r8
	decq	%rax
	movq	%r8, (%r12)
	movq	%rax, 8(%r12)
	movzbl	(%rcx), %edi
LBB96_113:
	subq	%rdi, %rax
	jb	LBB96_117
	leaq	(%r8,%rdi), %rcx
	movq	%rcx, (%r12)
	movq	%rax, 8(%r12)
LBB96_115:
	movl	%r8d, %ecx
	andl	$65280, %ecx
	movl	%r8d, %edx
	andl	$-65536, %edx
	movabsq	$-4294967296, %rbx
	andq	%r8, %rbx
	movl	$1, %r9d
	jmp	LBB96_178
LBB96_116:
	movq	(%r12), %r8
LBB96_117:
	movq	-48(%rbp), %rsi
	movq	$19, 8(%rsi)
	movq	%r8, 16(%rsi)
	jmp	LBB96_18
LBB96_118:
	movq	(%r13), %rax
	testq	%rax, %rax
	je	LBB96_206
	movq	(%r12), %rcx
	leaq	1(%rcx), %rdx
	decq	%rax
	movq	%rdx, (%r12)
	movq	%rax, 8(%r12)
	movb	(%rcx), %r8b
	movl	$70, %ecx
	jmp	LBB96_207
LBB96_120:
	movq	(%r13), %rax
	testq	%rax, %rax
	je	LBB96_213
	movq	(%r12), %rcx
	leaq	1(%rcx), %rdx
	decq	%rax
	movq	%rdx, (%r12)
	movq	%rax, 8(%r12)
	movb	(%rcx), %cl
	movl	$70, %edx
	jmp	LBB96_214
LBB96_122:
	movq	(%r13), %rdi
	decq	%rdi
	xorl	%ecx, %ecx
	xorl	%esi, %esi
LBB96_123:
	cmpq	$-1, %rdi
	je	LBB96_158
	movq	%rcx, %rdx
	movq	(%r12), %rax
	leaq	1(%rax), %rcx
	movq	%rcx, (%r12)
	movq	%rdi, 8(%r12)
	movzbl	(%rax), %ebx
	cmpq	$63, %rdx
	je	LBB96_220
	movl	%ebx, %eax
	andl	$127, %eax
	movl	%edx, %ecx
	shlq	%cl, %rax
	orq	%rax, %rsi
	leaq	7(%rdx), %rcx
	decq	%rdi
	testb	%bl, %bl
	js	LBB96_123
	jmp	LBB96_223
LBB96_126:
	movq	(%r13), %rax
	cmpb	$8, %r10b
	jne	LBB96_197
	cmpq	$8, %rax
	jb	LBB96_229
	movq	(%r12), %rcx
	leaq	8(%rcx), %rdx
	addq	$-8, %rax
	movq	%rdx, (%r12)
	movq	%rax, 8(%r12)
	movq	(%rcx), %r8
	jmp	LBB96_199
LBB96_129:
	movq	(%r13), %rax
	decq	%rax
	xorl	%ecx, %ecx
	xorl	%r8d, %r8d
LBB96_130:
	cmpq	$-1, %rax
	je	LBB96_158
	movq	(%r12), %rdx
	leaq	1(%rdx), %rsi
	movq	%rsi, (%r12)
	movq	%rax, 8(%r12)
	movzbl	(%rdx), %edx
	cmpq	$63, %rcx
	jne	LBB96_133
	cmpb	$2, %dl
	jae	LBB96_159
LBB96_133:
	cmpq	$63, %rcx
	ja	LBB96_256
	movzbl	%dl, %edx
	movl	%edx, %esi
	andl	$127, %esi
	shlq	%cl, %rsi
	orq	%rsi, %r8
	addq	$7, %rcx
	decq	%rax
	testb	%dl, %dl
	js	LBB96_130
	movl	%r8d, %ecx
	andl	$65280, %ecx
	movl	%r8d, %edx
	andl	$-65536, %edx
	movabsq	$-4294967296, %rbx
	andq	%r8, %rbx
	movl	$7, %r9d
	jmp	LBB96_177
LBB96_136:
	movq	(%r13), %rax
	cmpq	$2, %rax
	jb	LBB96_229
	movq	(%r12), %rcx
	leaq	2(%rcx), %rdx
	addq	$-2, %rax
	movq	%rdx, (%r12)
	movq	%rax, 8(%r12)
	movzwl	(%rcx), %r8d
	movl	%r8d, %ecx
	andl	$65280, %ecx
	movl	$13, %r9d
	jmp	LBB96_175
LBB96_138:
	movq	(%r13), %rax
	cmpq	$4, %rax
	jb	LBB96_229
	movq	(%r12), %rcx
	leaq	4(%rcx), %rdx
	addq	$-4, %rax
	movq	%rdx, (%r12)
	movq	%rax, 8(%r12)
	movl	(%rcx), %r8d
	movl	%r8d, %ecx
	andl	$65280, %ecx
	movl	%r8d, %edx
	andl	$-65536, %edx
	movl	$13, %r9d
	jmp	LBB96_176
LBB96_140:
	movq	(%r13), %rax
	cmpq	$8, %rax
	jb	LBB96_229
	movq	(%r12), %rcx
	leaq	8(%rcx), %rdx
	addq	$-8, %rax
	movq	%rdx, (%r12)
	movq	%rax, 8(%r12)
	movq	(%rcx), %r8
LBB96_142:
	movl	%r8d, %ecx
	andl	$65280, %ecx
	movl	%r8d, %edx
	andl	$-65536, %edx
	movabsq	$-4294967296, %rbx
	andq	%r8, %rbx
	movl	$13, %r9d
	jmp	LBB96_177
LBB96_143:
	movq	(%r13), %rax
	cmpb	$8, %r10b
	jne	LBB96_200
	cmpq	$8, %rax
	jb	LBB96_229
	movq	(%r12), %rcx
	leaq	8(%rcx), %rdx
	addq	$-8, %rax
	movq	%rdx, (%r12)
	movq	%rax, 8(%r12)
	movq	(%rcx), %r8
	jmp	LBB96_202
LBB96_146:
	movl	$9, %r9d
	xorl	%ecx, %ecx
	movb	$1, %r8b
	jmp	LBB96_175
LBB96_147:
	movq	(%r13), %rax
	cmpq	$8, %rax
	jb	LBB96_229
	movq	(%r12), %rcx
	leaq	8(%rcx), %rdx
	addq	$-8, %rax
	movq	%rdx, (%r12)
	movq	%rax, 8(%r12)
	movq	(%rcx), %r8
	movl	%r8d, %ecx
	andl	$65280, %ecx
	movl	%r8d, %edx
	andl	$-65536, %edx
	movabsq	$-4294967296, %rbx
	andq	%r8, %rbx
	movl	$25, %r9d
	jmp	LBB96_177
LBB96_149:
	cmpw	$33, %r9w
	je	LBB96_224
	movq	-48(%rbp), %rsi
	movq	$69, 8(%rsi)
	jmp	LBB96_18
LBB96_151:
	movq	(%r13), %rax
	decq	%rax
	xorl	%ecx, %ecx
	xorl	%r8d, %r8d
LBB96_152:
	cmpq	$-1, %rax
	je	LBB96_158
	movq	(%r12), %rdx
	leaq	1(%rdx), %rsi
	movq	%rsi, (%r12)
	movq	%rax, 8(%r12)
	movzbl	(%rdx), %edx
	cmpq	$63, %rcx
	jne	LBB96_155
	cmpb	$2, %dl
	jae	LBB96_159
LBB96_155:
	cmpq	$63, %rcx
	ja	LBB96_256
	movzbl	%dl, %edx
	movl	%edx, %esi
	andl	$127, %esi
	shlq	%cl, %rsi
	orq	%rsi, %r8
	addq	$7, %rcx
	decq	%rax
	testb	%dl, %dl
	js	LBB96_152
	movl	%r8d, %ecx
	andl	$65280, %ecx
	movl	%r8d, %edx
	andl	$-65536, %edx
	movabsq	$-4294967296, %rbx
	andq	%r8, %rbx
	movl	$24, %r9d
	jmp	LBB96_177
LBB96_158:
	movq	(%r12), %rax
	movl	$19, %ecx
	jmp	LBB96_161
LBB96_159:
	movl	$6, %ecx
LBB96_160:
LBB96_161:
	movq	-48(%rbp), %rsi
	movq	%rcx, 8(%rsi)
	movq	%rax, 16(%rsi)
	jmp	LBB96_18
LBB96_162:
	movq	(%r13), %rax
LBB96_163:
	cmpq	$8, %rax
	jb	LBB96_229
	movq	(%r12), %rcx
	leaq	8(%rcx), %rdx
	addq	$-8, %rax
	movq	%rdx, (%r12)
	movq	%rax, 8(%r12)
	movq	(%rcx), %r8
LBB96_165:
	movl	%r8d, %ecx
	andl	$65280, %ecx
	movl	%r8d, %edx
	andl	$-65536, %edx
	movabsq	$-4294967296, %rbx
	andq	%r8, %rbx
	movl	$15, %r9d
	jmp	LBB96_177
LBB96_166:
	movq	(%r13), %rax
	testq	%rax, %rax
	je	LBB96_229
	movq	(%r12), %rcx
	leaq	1(%rcx), %rdx
	decq	%rax
	movq	%rdx, (%r12)
	movq	%rax, 8(%r12)
	movb	(%rcx), %r8b
	movl	$29, %r9d
	xorl	%ecx, %ecx
	jmp	LBB96_175
LBB96_168:
	movq	(%r13), %rax
	cmpq	$3, %rax
	jb	LBB96_229
	movq	(%r12), %rcx
	leaq	3(%rcx), %rdx
	addq	$-3, %rax
	movq	%rdx, (%r12)
	movq	%rax, 8(%r12)
	movzwl	(%rcx), %r8d
	movzbl	2(%rcx), %edx
	shll	$16, %edx
	orl	%r8d, %edx
	movl	%r8d, %ecx
	andl	$65280, %ecx
	andl	$16711680, %edx
	movl	$12, %r9d
	jmp	LBB96_176
LBB96_170:
	movq	(%r13), %rax
	cmpb	$8, %r10b
	jne	LBB96_203
	cmpq	$8, %rax
	jb	LBB96_229
	movq	(%r12), %rcx
	leaq	8(%rcx), %rdx
	addq	$-8, %rax
	movq	%rdx, (%r12)
	movq	%rax, 8(%r12)
	movq	(%rcx), %r8
	jmp	LBB96_205
LBB96_173:
	movq	(%r13), %rax
	cmpq	$2, %rax
	jb	LBB96_229
	movq	(%r12), %rcx
	leaq	2(%rcx), %rdx
	addq	$-2, %rax
	movq	%rdx, (%r12)
	movq	%rax, 8(%r12)
	movzwl	(%rcx), %r8d
	movl	%r8d, %ecx
	andl	$65280, %ecx
	movl	$12, %r9d
LBB96_175:
	xorl	%edx, %edx
LBB96_176:
	xorl	%ebx, %ebx
LBB96_177:
LBB96_178:
	movq	-48(%rbp), %rsi
LBB96_179:
	movzbl	%r8b, %eax
	orl	%eax, %ecx
	movzwl	%cx, %eax
	orl	%edx, %eax
	orq	%rbx, %rax
	movq	%r9, 8(%rsi)
	movq	%rax, 16(%rsi)
	movq	%rdi, 24(%rsi)
	movl	-52(%rbp), %eax
	movw	%ax, 32(%rsi)
	xorl	%eax, %eax
	jmp	LBB96_19
LBB96_180:
	movq	(%r13), %rax
	cmpq	$4, %rax
	jb	LBB96_229
	movq	(%r12), %rcx
	leaq	4(%rcx), %rdx
	addq	$-4, %rax
	movq	%rdx, (%r12)
	movq	%rax, 8(%r12)
	movl	(%rcx), %r8d
	movl	%r8d, %ecx
	andl	$65280, %ecx
	movl	%r8d, %edx
	andl	$-65536, %edx
	movl	$12, %r9d
	jmp	LBB96_176
LBB96_182:
	movq	-48(%rbp), %rsi
	movb	$12, 8(%rsi)
	jmp	LBB96_18
LBB96_183:
	movq	(%r13), %rax
	cmpq	$4, %rax
	jae	LBB96_209
	movq	(%r12), %rax
	movl	$19, %ecx
	xorl	%r8d, %r8d
	jmp	LBB96_210
LBB96_185:
	movq	(%r13), %rax
	movl	$5, %r9d
	cmpq	$8, %rax
	jb	LBB96_229
LBB96_186:
	movq	(%r12), %rcx
	leaq	8(%rcx), %rdx
	movq	%rdx, (%r12)
	addq	$-8, %rax
	movq	%rax, 8(%r12)
	movq	(%rcx), %r8
	movabsq	$-4294967296, %rbx
	andq	%r8, %rbx
	movl	%r8d, %edx
	andl	$-65536, %edx
	movl	%r8d, %ecx
	andl	$65280, %ecx
	jmp	LBB96_177
LBB96_187:
	movq	(%r12), %r8
LBB96_188:
	movl	$19, %eax
	jmp	LBB96_190
LBB96_189:
	movl	$6, %eax
LBB96_190:
	movq	-48(%rbp), %rsi
	movq	%rax, 8(%rsi)
	movq	%r8, 16(%rsi)
	jmp	LBB96_18
LBB96_191:
	movq	(%r13), %rax
	cmpb	$8, %r10b
	jne	LBB96_228
	cmpq	$8, %rax
	jb	LBB96_229
	movq	(%r12), %rcx
	leaq	8(%rcx), %rdx
	addq	$-8, %rax
	movq	%rdx, (%r12)
	movq	%rax, 8(%r12)
	movq	(%rcx), %r8
	jmp	LBB96_255
LBB96_194:
	movq	(%r12), %rcx
	leaq	2(%rcx), %rdx
	addq	$-2, %rax
	movq	%rdx, (%r12)
	movq	%rax, 8(%r12)
	movzwl	(%rcx), %r8d
	movl	$70, %ecx
LBB96_195:
	cmpb	$70, %cl
	movq	-48(%rbp), %rsi
	jne	LBB96_212
	movl	%r8d, %ecx
	andl	$65280, %ecx
	movl	$3, %r9d
	jmp	LBB96_217
LBB96_197:
	cmpq	$4, %rax
	jb	LBB96_229
	movq	(%r12), %rcx
	leaq	4(%rcx), %rdx
	addq	$-4, %rax
	movq	%rdx, (%r12)
	movq	%rax, 8(%r12)
	movl	(%rcx), %r8d
LBB96_199:
	movl	%r8d, %ecx
	andl	$65280, %ecx
	movl	%r8d, %edx
	andl	$-65536, %edx
	movabsq	$-4294967296, %rbx
	andq	%r8, %rbx
	movl	$26, %r9d
	jmp	LBB96_177
LBB96_200:
	cmpq	$4, %rax
	jb	LBB96_229
	movq	(%r12), %rcx
	leaq	4(%rcx), %rdx
	addq	$-4, %rax
	movq	%rdx, (%r12)
	movq	%rax, 8(%r12)
	movl	(%rcx), %r8d
LBB96_202:
	movl	%r8d, %ecx
	andl	$65280, %ecx
	movl	%r8d, %edx
	andl	$-65536, %edx
	movabsq	$-4294967296, %rbx
	andq	%r8, %rbx
	movl	$10, %r9d
	jmp	LBB96_177
LBB96_203:
	cmpq	$4, %rax
	jb	LBB96_229
	movq	(%r12), %rcx
	leaq	4(%rcx), %rdx
	addq	$-4, %rax
	movq	%rdx, (%r12)
	movq	%rax, 8(%r12)
	movl	(%rcx), %r8d
LBB96_205:
	movl	%r8d, %ecx
	andl	$65280, %ecx
	movl	%r8d, %edx
	andl	$-65536, %edx
	movabsq	$-4294967296, %rbx
	andq	%r8, %rbx
	movl	$30, %r9d
	jmp	LBB96_177
LBB96_206:
	movq	(%r12), %rax
	movl	$19, %ecx
	xorl	%r8d, %r8d
LBB96_207:
	cmpb	$70, %cl
	movq	-48(%rbp), %rsi
	jne	LBB96_212
	movl	$2, %r9d
	jmp	LBB96_216
LBB96_209:
	movq	(%r12), %rcx
	leaq	4(%rcx), %rdx
	addq	$-4, %rax
	movq	%rdx, (%r12)
	movq	%rax, 8(%r12)
	movl	(%rcx), %r8d
	movl	$70, %ecx
LBB96_210:
	movl	$4, %r9d
	cmpb	$70, %cl
	movq	-48(%rbp), %rsi
	jne	LBB96_212
LBB96_211:
	movl	%r8d, %edx
	andl	$-65536, %edx
	movl	%r8d, %ecx
	andl	$65280, %ecx
	xorl	%ebx, %ebx
	jmp	LBB96_179
LBB96_212:
	movb	%cl, 8(%rsi)
	jmp	LBB96_219
LBB96_213:
	movq	(%r12), %rax
	movl	$19, %edx
	xorl	%ecx, %ecx
LBB96_214:
	cmpb	$70, %dl
	movq	-48(%rbp), %rsi
	jne	LBB96_218
	testb	%cl, %cl
	setne	%r8b
	movl	$9, %r9d
LBB96_216:
	xorl	%ecx, %ecx
LBB96_217:
	xorl	%edx, %edx
	xorl	%ebx, %ebx
	jmp	LBB96_179
LBB96_218:
	movb	%dl, 8(%rsi)
LBB96_219:
	movb	$0, 15(%rsi)
	movw	$0, 13(%rsi)
	movl	$0, 9(%rsi)
	movq	%rax, 16(%rsi)
	jmp	LBB96_18
LBB96_220:
	testb	%bl, %bl
	je	LBB96_222
	cmpb	$127, %bl
	jne	LBB96_237
LBB96_222:
	movq	%rbx, %rcx
	shlq	$63, %rcx
	orq	%rcx, %rsi
	movl	$70, %ecx
LBB96_223:
	movq	$-1, %r8
	shlq	%cl, %r8
	xorl	%eax, %eax
	testb	$64, %bl
	cmoveq	%rax, %r8
	cmpl	$57, %edx
	cmovaeq	%rax, %r8
	orq	%rsi, %r8
LBB96_224:
	movl	%r8d, %ecx
	andl	$65280, %ecx
	movl	%r8d, %edx
	andl	$-65536, %edx
	movabsq	$-4294967296, %rbx
	andq	%r8, %rbx
	movl	$6, %r9d
	jmp	LBB96_177
LBB96_225:
	cmpq	%rdi, %rax
	jb	LBB96_117
	leaq	(%r8,%rdi), %rcx
	movq	%rcx, (%r12)
	movq	%rax, %rdx
	subq	%rdi, %rdx
	movq	%rdx, 8(%r12)
	jne	LBB96_248
	movq	%rcx, %r8
	jmp	LBB96_117
LBB96_228:
	cmpq	$4, %rax
	jae	LBB96_236
LBB96_229:
	movq	(%r12), %rax
	movq	-48(%rbp), %rsi
	movq	$19, 8(%rsi)
	movq	%rax, 16(%rsi)
	jmp	LBB96_18
LBB96_230:
	movq	(%r13), %rax
	cmpq	$1, %rax
	jbe	LBB96_235
	movq	(%r12), %rcx
	leaq	2(%rcx), %rdx
	addq	$-2, %rax
	movq	%rdx, (%r12)
	movq	%rax, 8(%r12)
	movzwl	(%rcx), %r8d
	xorl	%edx, %edx
	jmp	LBB96_246
LBB96_232:
	movq	(%r13), %rax
	cmpq	$3, %rax
	jbe	LBB96_235
	movq	(%r12), %rcx
	leaq	4(%rcx), %rdx
	addq	$-4, %rax
	movq	%rdx, (%r12)
	movq	%rax, 8(%r12)
	movl	(%rcx), %r8d
	movl	%r8d, %edx
	andl	$-65536, %edx
	jmp	LBB96_246
LBB96_234:
	movq	(%r13), %rax
	cmpq	$8, %rax
	jb	LBB96_235
	movq	(%r12), %rcx
	leaq	8(%rcx), %rdx
	addq	$-8, %rax
	movq	%rdx, (%r12)
	movq	%rax, 8(%r12)
	movq	(%rcx), %r8
	movq	%r8, %rdx
	andq	$-65536, %rdx
LBB96_246:
	movl	%r8d, %ecx
	andl	$65280, %ecx
LBB96_247:
	movq	-48(%rbp), %rsi
	movabsq	$-4294967296, %rbx
	andq	%rdx, %rbx
	xorl	%r9d, %r9d
	jmp	LBB96_179
LBB96_250:
	jmp	LBB96_251
LBB96_236:
	movq	(%r12), %rcx
	leaq	4(%rcx), %rdx
	addq	$-4, %rax
	movq	%rdx, (%r12)
	movq	%rax, 8(%r12)
	movl	(%rcx), %r8d
	jmp	LBB96_255
LBB96_237:
	movl	$7, %ecx
	jmp	LBB96_160
LBB96_239:
	movq	(%r13), %rax
	cmpq	$1, %rax
	jbe	LBB96_235
	movq	(%r12), %rcx
	leaq	2(%rcx), %rdx
	addq	$-2, %rax
	movq	%rdx, (%r12)
	movq	%rax, 8(%r12)
	movzwl	(%rcx), %eax
	movl	%eax, %ecx
	andl	$65280, %ecx
	xorl	%edx, %edx
	jmp	LBB96_254
LBB96_241:
	movq	(%r13), %rax
	cmpq	$3, %rax
	jbe	LBB96_235
	movq	(%r12), %rcx
	leaq	4(%rcx), %rdx
	addq	$-4, %rax
	movq	%rdx, (%r12)
	movq	%rax, 8(%r12)
	movl	(%rcx), %eax
	movl	%eax, %ecx
	andl	$-256, %ecx
	movl	%eax, %edx
	andl	$-65536, %edx
	jmp	LBB96_254
LBB96_243:
	movq	(%r13), %rax
	cmpq	$8, %rax
	jae	LBB96_253
LBB96_235:
	movq	(%r12), %rcx
	movl	$19, %eax
	xorl	%edx, %edx
LBB96_251:
	movzbl	%dl, %edx
	shlq	$8, %rdx
LBB96_252:
	orq	%rax, %rdx
	movq	-48(%rbp), %rsi
	movq	%rdx, 8(%rsi)
	movq	%rcx, 16(%rsi)
	jmp	LBB96_18
LBB96_248:
	leaq	1(%r8,%rdi), %rcx
	movq	%rdi, %rdx
	notq	%rdx
	addq	%rax, %rdx
	movq	%rcx, (%r12)
	movq	%rdx, 8(%r12)
	movl	%r8d, %ecx
	andl	$65280, %ecx
	movl	%r8d, %edx
	andl	$-65536, %edx
	movabsq	$-4294967296, %rbx
	andq	%r8, %rbx
	movl	$31, %r9d
	jmp	LBB96_178
LBB96_249:
	movq	(%r12), %rcx
	movl	$19, %eax
	xorl	%edx, %edx
	jmp	LBB96_252
LBB96_253:
	movq	(%r12), %rcx
	leaq	8(%rcx), %rdx
	addq	$-8, %rax
	movq	%rdx, (%r12)
	movq	%rax, 8(%r12)
	movq	(%rcx), %rax
	movq	%rax, %rcx
	andq	$-256, %rcx
	movq	%rax, %rdx
	andq	$-65536, %rdx
LBB96_254:
	andl	$65280, %ecx
	movzbl	%al, %r8d
	orq	%rdx, %r8
	orq	%rcx, %r8
LBB96_255:
	movq	-48(%rbp), %rsi
	movl	%r8d, %ecx
	andl	$65280, %ecx
	movl	%r8d, %edx
	andl	$-65536, %edx
	movabsq	$-4294967296, %rbx
	andq	%r8, %rbx
	movl	$14, %r9d
	jmp	LBB96_179
LBB96_256:
	leaq	_str.7(%rip), %rdi
	leaq	l___unnamed_25(%rip), %rdx
	movl	$35, %esi
	callq	__ZN4core9panicking5panic17h383a6b80ea7021aaE
	.cfi_endproc
	.p2align	2, 0x90
	.data_region jt32
.set L96_0_set_11, LBB96_11-LJTI96_0
.set L96_0_set_182, LBB96_182-LJTI96_0
.set L96_0_set_48, LBB96_48-LJTI96_0
.set L96_0_set_50, LBB96_50-LJTI96_0
.set L96_0_set_94, LBB96_94-LJTI96_0
.set L96_0_set_96, LBB96_96-LJTI96_0
.set L96_0_set_100, LBB96_100-LJTI96_0
.set L96_0_set_52, LBB96_52-LJTI96_0
.set L96_0_set_103, LBB96_103-LJTI96_0
.set L96_0_set_111, LBB96_111-LJTI96_0
.set L96_0_set_118, LBB96_118-LJTI96_0
.set L96_0_set_120, LBB96_120-LJTI96_0
.set L96_0_set_122, LBB96_122-LJTI96_0
.set L96_0_set_126, LBB96_126-LJTI96_0
.set L96_0_set_129, LBB96_129-LJTI96_0
.set L96_0_set_56, LBB96_56-LJTI96_0
.set L96_0_set_61, LBB96_61-LJTI96_0
.set L96_0_set_136, LBB96_136-LJTI96_0
.set L96_0_set_138, LBB96_138-LJTI96_0
.set L96_0_set_140, LBB96_140-LJTI96_0
.set L96_0_set_63, LBB96_63-LJTI96_0
.set L96_0_set_143, LBB96_143-LJTI96_0
.set L96_0_set_69, LBB96_69-LJTI96_0
.set L96_0_set_146, LBB96_146-LJTI96_0
.set L96_0_set_30, LBB96_30-LJTI96_0
.set L96_0_set_23, LBB96_23-LJTI96_0
.set L96_0_set_77, LBB96_77-LJTI96_0
.set L96_0_set_37, LBB96_37-LJTI96_0
.set L96_0_set_79, LBB96_79-LJTI96_0
.set L96_0_set_170, LBB96_170-LJTI96_0
.set L96_0_set_147, LBB96_147-LJTI96_0
.set L96_0_set_149, LBB96_149-LJTI96_0
.set L96_0_set_81, LBB96_81-LJTI96_0
.set L96_0_set_151, LBB96_151-LJTI96_0
.set L96_0_set_162, LBB96_162-LJTI96_0
.set L96_0_set_166, LBB96_166-LJTI96_0
.set L96_0_set_88, LBB96_88-LJTI96_0
.set L96_0_set_90, LBB96_90-LJTI96_0
.set L96_0_set_46, LBB96_46-LJTI96_0
.set L96_0_set_92, LBB96_92-LJTI96_0
.set L96_0_set_173, LBB96_173-LJTI96_0
.set L96_0_set_168, LBB96_168-LJTI96_0
.set L96_0_set_180, LBB96_180-LJTI96_0
LJTI96_0:
	.long	L96_0_set_11
	.long	L96_0_set_182
	.long	L96_0_set_48
	.long	L96_0_set_50
	.long	L96_0_set_94
	.long	L96_0_set_96
	.long	L96_0_set_100
	.long	L96_0_set_52
	.long	L96_0_set_103
	.long	L96_0_set_111
	.long	L96_0_set_118
	.long	L96_0_set_120
	.long	L96_0_set_122
	.long	L96_0_set_126
	.long	L96_0_set_129
	.long	L96_0_set_56
	.long	L96_0_set_61
	.long	L96_0_set_136
	.long	L96_0_set_138
	.long	L96_0_set_140
	.long	L96_0_set_63
	.long	L96_0_set_182
	.long	L96_0_set_143
	.long	L96_0_set_69
	.long	L96_0_set_146
	.long	L96_0_set_30
	.long	L96_0_set_23
	.long	L96_0_set_77
	.long	L96_0_set_37
	.long	L96_0_set_79
	.long	L96_0_set_170
	.long	L96_0_set_147
	.long	L96_0_set_149
	.long	L96_0_set_81
	.long	L96_0_set_151
	.long	L96_0_set_162
	.long	L96_0_set_166
	.long	L96_0_set_88
	.long	L96_0_set_90
	.long	L96_0_set_46
	.long	L96_0_set_92
	.long	L96_0_set_173
	.long	L96_0_set_168
	.long	L96_0_set_180
.set L96_1_set_23, LBB96_23-LJTI96_1
.set L96_1_set_30, LBB96_30-LJTI96_1
.set L96_1_set_182, LBB96_182-LJTI96_1
.set L96_1_set_40, LBB96_40-LJTI96_1
.set L96_1_set_37, LBB96_37-LJTI96_1
LJTI96_1:
	.long	L96_1_set_23
	.long	L96_1_set_30
	.long	L96_1_set_182
	.long	L96_1_set_182
	.long	L96_1_set_182
	.long	L96_1_set_182
	.long	L96_1_set_182
	.long	L96_1_set_182
	.long	L96_1_set_182
	.long	L96_1_set_182
	.long	L96_1_set_182
	.long	L96_1_set_182
	.long	L96_1_set_182
	.long	L96_1_set_182
	.long	L96_1_set_182
	.long	L96_1_set_182
	.long	L96_1_set_182
	.long	L96_1_set_182
	.long	L96_1_set_182
	.long	L96_1_set_182
	.long	L96_1_set_182
	.long	L96_1_set_182
	.long	L96_1_set_182
	.long	L96_1_set_182
	.long	L96_1_set_182
	.long	L96_1_set_182
	.long	L96_1_set_182
	.long	L96_1_set_182
	.long	L96_1_set_182
	.long	L96_1_set_182
	.long	L96_1_set_182
	.long	L96_1_set_40
	.long	L96_1_set_37
.set L96_2_set_59, LBB96_59-LJTI96_2
.set L96_2_set_239, LBB96_239-LJTI96_2
.set L96_2_set_251, LBB96_251-LJTI96_2
.set L96_2_set_241, LBB96_241-LJTI96_2
.set L96_2_set_243, LBB96_243-LJTI96_2
LJTI96_2:
	.long	L96_2_set_59
	.long	L96_2_set_239
	.long	L96_2_set_251
	.long	L96_2_set_241
	.long	L96_2_set_251
	.long	L96_2_set_251
	.long	L96_2_set_251
	.long	L96_2_set_243
.set L96_3_set_13, LBB96_13-LJTI96_3
.set L96_3_set_230, LBB96_230-LJTI96_3
.set L96_3_set_251, LBB96_251-LJTI96_3
.set L96_3_set_232, LBB96_232-LJTI96_3
.set L96_3_set_234, LBB96_234-LJTI96_3
LJTI96_3:
	.long	L96_3_set_13
	.long	L96_3_set_230
	.long	L96_3_set_251
	.long	L96_3_set_232
	.long	L96_3_set_251
	.long	L96_3_set_251
	.long	L96_3_set_251
	.long	L96_3_set_234
	.end_data_region

	.p2align	4, 0x90
__ZN5gimli4read4unit18Attribute$LT$R$GT$5value17h9fc75517769e7913E:
	.cfi_startproc
	pushq	%rbp
	.cfi_def_cfa_offset 16
	.cfi_offset %rbp, -16
	movq	%rsp, %rbp
	.cfi_def_cfa_register %rbp
	movl	24(%rsi), %eax
	addl	$-2, %eax
	movzwl	%ax, %ecx
	cmpl	$138, %ecx
	ja	LBB97_191
	movzwl	%ax, %eax
	leaq	LJTI97_0(%rip), %rcx
	movslq	(%rcx,%rax,4), %rax
	addq	%rcx, %rax
	jmpq	*%rax
LBB97_2:
	movq	(%rsi), %rax
	cmpq	$8, %rax
	je	LBB97_74
	cmpl	$1, %eax
	je	LBB97_74
	jmp	LBB97_191
LBB97_4:
	movq	(%rsi), %rax
	cmpq	$1, %rax
	je	LBB97_74
	cmpl	$10, %eax
	je	LBB97_15
	cmpl	$8, %eax
	jne	LBB97_191
	jmp	LBB97_74
LBB97_7:
	movq	(%rsi), %rax
	decq	%rax
	cmpq	$7, %rax
	ja	LBB97_191
	leaq	LJTI97_22(%rip), %rcx
	movslq	(%rcx,%rax,4), %rax
	addq	%rcx, %rax
	jmpq	*%rax
LBB97_10:
	cmpq	$10, (%rsi)
	jne	LBB97_191
	movq	8(%rsi), %rax
	movq	%rax, 8(%rdi)
	movq	$22, (%rdi)
	popq	%rbp
	retq
LBB97_12:
	movq	(%rsi), %rax
	decq	%rax
	cmpq	$9, %rax
	ja	LBB97_191
	leaq	LJTI97_8(%rip), %rcx
	movslq	(%rcx,%rax,4), %rax
	addq	%rcx, %rax
	jmpq	*%rax
LBB97_15:
	movq	8(%rsi), %rax
	movq	%rax, 8(%rdi)
	movq	$17, (%rdi)
	popq	%rbp
	retq
LBB97_16:
	movq	(%rsi), %rax
	addq	$-2, %rax
	cmpq	$5, %rax
	ja	LBB97_191
	leaq	LJTI97_6(%rip), %rcx
	movslq	(%rcx,%rax,4), %rax
	addq	%rcx, %rax
	jmpq	*%rax
LBB97_19:
	movq	(%rsi), %rax
	addq	$-2, %rax
	cmpq	$5, %rax
	ja	LBB97_191
	leaq	LJTI97_5(%rip), %rcx
	movslq	(%rcx,%rax,4), %rax
	addq	%rcx, %rax
	jmpq	*%rax
LBB97_22:
	movq	(%rsi), %rax
	addq	$-2, %rax
	cmpq	$5, %rax
	ja	LBB97_191
	leaq	LJTI97_17(%rip), %rcx
	movslq	(%rcx,%rax,4), %rax
	addq	%rcx, %rax
	jmpq	*%rax
LBB97_24:
	movq	8(%rsi), %rax
	jmp	LBB97_109
LBB97_25:
	cmpq	$10, (%rsi)
	jne	LBB97_191
	movq	8(%rsi), %rax
	movq	%rax, 8(%rdi)
	movq	$28, (%rdi)
	popq	%rbp
	retq
LBB97_27:
	cmpq	$10, (%rsi)
	jne	LBB97_191
	movq	8(%rsi), %rax
	movq	%rax, 8(%rdi)
	movq	$21, (%rdi)
	popq	%rbp
	retq
LBB97_29:
	movq	(%rsi), %rax
	addq	$-2, %rax
	cmpq	$5, %rax
	ja	LBB97_191
	leaq	LJTI97_23(%rip), %rcx
	movslq	(%rcx,%rax,4), %rax
	addq	%rcx, %rax
	jmpq	*%rax
LBB97_31:
	movq	8(%rsi), %rax
	jmp	LBB97_115
LBB97_32:
	cmpq	$10, (%rsi)
	jne	LBB97_191
	movq	8(%rsi), %rax
	movq	%rax, 8(%rdi)
	movq	$16, (%rdi)
	popq	%rbp
	retq
LBB97_34:
	movq	(%rsi), %rax
	addq	$-2, %rax
	cmpq	$5, %rax
	ja	LBB97_191
	leaq	LJTI97_21(%rip), %rcx
	movslq	(%rcx,%rax,4), %rax
	addq	%rcx, %rax
	jmpq	*%rax
LBB97_37:
	movq	(%rsi), %rax
	addq	$-2, %rax
	cmpq	$5, %rax
	ja	LBB97_191
	leaq	LJTI97_20(%rip), %rcx
	movslq	(%rcx,%rax,4), %rax
	addq	%rcx, %rax
	jmpq	*%rax
LBB97_39:
	movq	8(%rsi), %rax
	jmp	LBB97_124
LBB97_40:
	movq	(%rsi), %rax
	addq	$-2, %rax
	cmpq	$5, %rax
	ja	LBB97_191
	leaq	LJTI97_19(%rip), %rcx
	movslq	(%rcx,%rax,4), %rax
	addq	%rcx, %rax
	jmpq	*%rax
LBB97_42:
	movq	8(%rsi), %rax
	jmp	LBB97_130
LBB97_43:
	movq	(%rsi), %rax
	addq	$-2, %rax
	cmpq	$5, %rax
	ja	LBB97_191
	leaq	LJTI97_18(%rip), %rcx
	movslq	(%rcx,%rax,4), %rax
	addq	%rcx, %rax
	jmpq	*%rax
LBB97_45:
	movq	8(%rsi), %rax
	jmp	LBB97_136
LBB97_46:
	movq	(%rsi), %rax
	decq	%rax
	cmpq	$7, %rax
	ja	LBB97_191
	leaq	LJTI97_15(%rip), %rcx
	movslq	(%rcx,%rax,4), %rax
	addq	%rcx, %rax
	jmpq	*%rax
LBB97_49:
	movq	(%rsi), %rax
	addq	$-2, %rax
	cmpq	$5, %rax
	ja	LBB97_191
	leaq	LJTI97_13(%rip), %rcx
	movslq	(%rcx,%rax,4), %rax
	addq	%rcx, %rax
	jmpq	*%rax
LBB97_51:
	movq	8(%rsi), %rax
	jmp	LBB97_142
LBB97_52:
	movq	(%rsi), %rax
	addq	$-2, %rax
	cmpq	$5, %rax
	ja	LBB97_191
	leaq	LJTI97_12(%rip), %rcx
	movslq	(%rcx,%rax,4), %rax
	addq	%rcx, %rax
	jmpq	*%rax
LBB97_54:
	movq	8(%rsi), %rax
	jmp	LBB97_148
LBB97_55:
	movq	(%rsi), %rax
	addq	$-2, %rax
	cmpq	$5, %rax
	ja	LBB97_191
	leaq	LJTI97_9(%rip), %rcx
	movslq	(%rcx,%rax,4), %rax
	addq	%rcx, %rax
	jmpq	*%rax
LBB97_57:
	movq	8(%rsi), %rax
	jmp	LBB97_153
LBB97_58:
	movq	(%rsi), %rax
	addq	$-2, %rax
	cmpq	$5, %rax
	ja	LBB97_191
	leaq	LJTI97_7(%rip), %rcx
	movslq	(%rcx,%rax,4), %rax
	addq	%rcx, %rax
	jmpq	*%rax
LBB97_61:
	movq	(%rsi), %rax
	addq	$-2, %rax
	cmpq	$5, %rax
	ja	LBB97_191
	leaq	LJTI97_3(%rip), %rcx
	movslq	(%rcx,%rax,4), %rax
	addq	%rcx, %rax
	jmpq	*%rax
LBB97_63:
	movq	8(%rsi), %rax
	jmp	LBB97_162
LBB97_64:
	movq	(%rsi), %rax
	addq	$-2, %rax
	cmpq	$5, %rax
	ja	LBB97_191
	leaq	LJTI97_2(%rip), %rcx
	movslq	(%rcx,%rax,4), %rax
	addq	%rcx, %rax
	jmpq	*%rax
LBB97_66:
	movq	8(%rsi), %rax
	jmp	LBB97_168
LBB97_67:
	cmpq	$10, (%rsi)
	jne	LBB97_191
	movq	8(%rsi), %rax
	movq	%rax, 8(%rdi)
	movq	$20, (%rdi)
	popq	%rbp
	retq
LBB97_69:
	movq	(%rsi), %rax
	addq	$-2, %rax
	cmpq	$5, %rax
	ja	LBB97_191
	leaq	LJTI97_1(%rip), %rcx
	movslq	(%rcx,%rax,4), %rax
	addq	%rcx, %rax
	jmpq	*%rax
LBB97_71:
	movq	8(%rsi), %rax
	jmp	LBB97_174
LBB97_72:
	movq	(%rsi), %rax
	decq	%rax
	cmpq	$7, %rax
	ja	LBB97_191
	leaq	LJTI97_4(%rip), %rcx
	movslq	(%rcx,%rax,4), %rax
	addq	%rcx, %rax
	jmpq	*%rax
LBB97_74:
	movq	8(%rsi), %rax
	movq	16(%rsi), %rcx
	movq	%rax, 8(%rdi)
	movq	%rcx, 16(%rdi)
	movq	$8, (%rdi)
	popq	%rbp
	retq
LBB97_75:
	movq	(%rsi), %rax
	addq	$-2, %rax
	cmpq	$5, %rax
	ja	LBB97_191
	leaq	LJTI97_10(%rip), %rcx
	movslq	(%rcx,%rax,4), %rax
	addq	%rcx, %rax
	jmpq	*%rax
LBB97_78:
	movq	(%rsi), %rax
	addq	$-2, %rax
	cmpq	$5, %rax
	ja	LBB97_191
	leaq	LJTI97_11(%rip), %rcx
	movslq	(%rcx,%rax,4), %rax
	addq	%rcx, %rax
	jmpq	*%rax
LBB97_18:
	movq	8(%rsi), %rax
	jmp	LBB97_182
LBB97_81:
	movq	(%rsi), %rax
	addq	$-2, %rax
	cmpq	$5, %rax
	ja	LBB97_191
	leaq	LJTI97_14(%rip), %rcx
	movslq	(%rcx,%rax,4), %rax
	addq	%rcx, %rax
	jmpq	*%rax
LBB97_9:
	movq	8(%rsi), %rax
LBB97_202:
	movq	%rax, 8(%rdi)
	movq	$7, (%rdi)
	popq	%rbp
	retq
LBB97_84:
	movq	8(%rsi), %rax
	testq	%rax, %rax
	jns	LBB97_202
	jmp	LBB97_191
LBB97_94:
	movzbl	8(%rsi), %eax
	movq	%rax, 8(%rdi)
	movq	$7, (%rdi)
	popq	%rbp
	retq
LBB97_96:
	movl	8(%rsi), %eax
	movq	%rax, 8(%rdi)
	movq	$7, (%rdi)
	popq	%rbp
	retq
LBB97_201:
	movzwl	8(%rsi), %eax
	movq	%rax, 8(%rdi)
	movq	$7, (%rdi)
	popq	%rbp
	retq
LBB97_85:
	movq	(%rsi), %rax
	addq	$-2, %rax
	cmpq	$5, %rax
	ja	LBB97_191
	leaq	LJTI97_16(%rip), %rcx
	movslq	(%rcx,%rax,4), %rax
	addq	%rcx, %rax
	jmpq	*%rax
LBB97_87:
	movq	8(%rsi), %rax
	jmp	LBB97_190
LBB97_88:
	cmpq	$10, (%rsi)
	jne	LBB97_191
	movq	8(%rsi), %rax
	movq	%rax, 8(%rdi)
	movq	$11, (%rdi)
	popq	%rbp
	retq
LBB97_90:
	cmpq	$10, (%rsi)
	jne	LBB97_191
	movq	8(%rsi), %rax
	movq	%rax, 8(%rdi)
	movq	$23, (%rdi)
	popq	%rbp
	retq
LBB97_92:
	cmpq	$10, (%rsi)
	jne	LBB97_191
	movq	8(%rsi), %rax
	movq	%rax, 8(%rdi)
	movq	$18, (%rdi)
	popq	%rbp
	retq
LBB97_99:
	movzbl	8(%rsi), %eax
	jmp	LBB97_182
LBB97_100:
	movzwl	8(%rsi), %eax
	jmp	LBB97_182
LBB97_181:
	movl	8(%rsi), %eax
	jmp	LBB97_182
LBB97_97:
	movq	8(%rsi), %rax
	testq	%rax, %rax
	js	LBB97_191
LBB97_182:
	movq	%rax, 8(%rdi)
	movq	$44, (%rdi)
	popq	%rbp
	retq
LBB97_105:
	movzbl	8(%rsi), %eax
	jmp	LBB97_110
LBB97_106:
	movzwl	8(%rsi), %eax
	jmp	LBB97_109
LBB97_107:
	movl	8(%rsi), %eax
	jmp	LBB97_109
LBB97_108:
	movq	8(%rsi), %rax
	testq	%rax, %rax
	js	LBB97_191
LBB97_109:
	cmpq	$255, %rax
	ja	LBB97_191
LBB97_110:
	movb	%al, 8(%rdi)
	movq	$34, (%rdi)
	popq	%rbp
	retq
LBB97_111:
	movzbl	8(%rsi), %eax
	jmp	LBB97_116
LBB97_112:
	movzwl	8(%rsi), %eax
	jmp	LBB97_115
LBB97_113:
	movl	8(%rsi), %eax
	jmp	LBB97_115
LBB97_114:
	movq	8(%rsi), %rax
	testq	%rax, %rax
	js	LBB97_191
LBB97_115:
	cmpq	$255, %rax
	ja	LBB97_191
LBB97_116:
	movb	%al, 8(%rdi)
	movq	$43, (%rdi)
	popq	%rbp
	retq
LBB97_120:
	movzbl	8(%rsi), %eax
	jmp	LBB97_125
LBB97_121:
	movzwl	8(%rsi), %eax
	jmp	LBB97_125
LBB97_122:
	movl	8(%rsi), %eax
	jmp	LBB97_124
LBB97_123:
	movq	8(%rsi), %rax
	testq	%rax, %rax
	js	LBB97_191
LBB97_124:
	cmpq	$65535, %rax
	ja	LBB97_191
LBB97_125:
	movw	%ax, 8(%rdi)
	movq	$38, (%rdi)
	popq	%rbp
	retq
LBB97_126:
	movzbl	8(%rsi), %eax
	jmp	LBB97_131
LBB97_127:
	movzwl	8(%rsi), %eax
	jmp	LBB97_130
LBB97_128:
	movl	8(%rsi), %eax
	jmp	LBB97_130
LBB97_129:
	movq	8(%rsi), %rax
	testq	%rax, %rax
	js	LBB97_191
LBB97_130:
	cmpq	$255, %rax
	ja	LBB97_191
LBB97_131:
	movb	%al, 8(%rdi)
	movq	$36, (%rdi)
	popq	%rbp
	retq
LBB97_132:
	movzbl	8(%rsi), %eax
	jmp	LBB97_137
LBB97_133:
	movzwl	8(%rsi), %eax
	jmp	LBB97_136
LBB97_134:
	movl	8(%rsi), %eax
	jmp	LBB97_136
LBB97_135:
	movq	8(%rsi), %rax
	testq	%rax, %rax
	js	LBB97_191
LBB97_136:
	cmpq	$255, %rax
	ja	LBB97_191
LBB97_137:
	movb	%al, 8(%rdi)
	movq	$42, (%rdi)
	popq	%rbp
	retq
LBB97_138:
	movzbl	8(%rsi), %eax
	jmp	LBB97_143
LBB97_139:
	movzwl	8(%rsi), %eax
	jmp	LBB97_142
LBB97_140:
	movl	8(%rsi), %eax
	jmp	LBB97_142
LBB97_141:
	movq	8(%rsi), %rax
	testq	%rax, %rax
	js	LBB97_191
LBB97_142:
	cmpq	$255, %rax
	ja	LBB97_191
LBB97_143:
	movb	%al, 8(%rdi)
	movq	$35, (%rdi)
	popq	%rbp
	retq
LBB97_144:
	movzbl	8(%rsi), %eax
	jmp	LBB97_148
LBB97_145:
	movzwl	8(%rsi), %eax
	jmp	LBB97_148
LBB97_146:
	movl	8(%rsi), %eax
	jmp	LBB97_148
LBB97_147:
	movq	8(%rsi), %rax
	testq	%rax, %rax
	js	LBB97_191
LBB97_148:
	movq	%rax, 8(%rdi)
	movq	$39, (%rdi)
	popq	%rbp
	retq
LBB97_149:
	movzbl	8(%rsi), %eax
	jmp	LBB97_154
LBB97_150:
	movzwl	8(%rsi), %eax
	jmp	LBB97_153
LBB97_151:
	movl	8(%rsi), %eax
	jmp	LBB97_153
LBB97_152:
	movq	8(%rsi), %rax
	testq	%rax, %rax
	js	LBB97_191
LBB97_153:
	cmpq	$255, %rax
	ja	LBB97_191
LBB97_154:
	movb	%al, 8(%rdi)
	movq	$41, (%rdi)
	popq	%rbp
	retq
LBB97_158:
	movzbl	8(%rsi), %eax
	jmp	LBB97_163
LBB97_159:
	movzwl	8(%rsi), %eax
	jmp	LBB97_162
LBB97_160:
	movl	8(%rsi), %eax
	jmp	LBB97_162
LBB97_161:
	movq	8(%rsi), %rax
	testq	%rax, %rax
	js	LBB97_191
LBB97_162:
	cmpq	$255, %rax
	ja	LBB97_191
LBB97_163:
	movb	%al, 8(%rdi)
	movq	$32, (%rdi)
	popq	%rbp
	retq
LBB97_164:
	movzbl	8(%rsi), %eax
	jmp	LBB97_169
LBB97_165:
	movzwl	8(%rsi), %eax
	jmp	LBB97_168
LBB97_166:
	movl	8(%rsi), %eax
	jmp	LBB97_168
LBB97_167:
	movq	8(%rsi), %rax
	testq	%rax, %rax
	js	LBB97_191
LBB97_168:
	cmpq	$255, %rax
	ja	LBB97_191
LBB97_169:
	movb	%al, 8(%rdi)
	movq	$40, (%rdi)
	popq	%rbp
	retq
LBB97_170:
	movzbl	8(%rsi), %eax
	jmp	LBB97_175
LBB97_171:
	movzwl	8(%rsi), %eax
	jmp	LBB97_174
LBB97_172:
	movl	8(%rsi), %eax
	jmp	LBB97_174
LBB97_173:
	movq	8(%rsi), %rax
	testq	%rax, %rax
	js	LBB97_191
LBB97_174:
	cmpq	$255, %rax
	ja	LBB97_191
LBB97_175:
	movb	%al, 8(%rdi)
	movq	$37, (%rdi)
	popq	%rbp
	retq
LBB97_186:
	movzbl	8(%rsi), %eax
	jmp	LBB97_192
LBB97_187:
	movzwl	8(%rsi), %eax
	jmp	LBB97_190
LBB97_188:
	movl	8(%rsi), %eax
	jmp	LBB97_190
LBB97_189:
	movq	8(%rsi), %rax
	testq	%rax, %rax
	js	LBB97_191
LBB97_190:
	cmpq	$255, %rax
	jbe	LBB97_192
LBB97_191:
	popq	%rbp
	jmp	__ZN90_$LT$gimli..read..unit..AttributeValue$LT$R$C$Offset$GT$$u20$as$u20$core..clone..Clone$GT$5clone17h29e5569ed42bfe13E
LBB97_192:
	movb	%al, 8(%rdi)
	movq	$33, (%rdi)
	popq	%rbp
	retq
	.cfi_endproc
	.p2align	2, 0x90
	.data_region jt32
.set L97_0_set_4, LBB97_4-LJTI97_0
.set L97_0_set_191, LBB97_191-LJTI97_0
.set L97_0_set_29, LBB97_29-LJTI97_0
.set L97_0_set_7, LBB97_7-LJTI97_0
.set L97_0_set_32, LBB97_32-LJTI97_0
.set L97_0_set_34, LBB97_34-LJTI97_0
.set L97_0_set_37, LBB97_37-LJTI97_0
.set L97_0_set_40, LBB97_40-LJTI97_0
.set L97_0_set_43, LBB97_43-LJTI97_0
.set L97_0_set_2, LBB97_2-LJTI97_0
.set L97_0_set_10, LBB97_10-LJTI97_0
.set L97_0_set_46, LBB97_46-LJTI97_0
.set L97_0_set_49, LBB97_49-LJTI97_0
.set L97_0_set_52, LBB97_52-LJTI97_0
.set L97_0_set_55, LBB97_55-LJTI97_0
.set L97_0_set_12, LBB97_12-LJTI97_0
.set L97_0_set_58, LBB97_58-LJTI97_0
.set L97_0_set_16, LBB97_16-LJTI97_0
.set L97_0_set_19, LBB97_19-LJTI97_0
.set L97_0_set_61, LBB97_61-LJTI97_0
.set L97_0_set_64, LBB97_64-LJTI97_0
.set L97_0_set_67, LBB97_67-LJTI97_0
.set L97_0_set_69, LBB97_69-LJTI97_0
.set L97_0_set_72, LBB97_72-LJTI97_0
.set L97_0_set_75, LBB97_75-LJTI97_0
.set L97_0_set_78, LBB97_78-LJTI97_0
.set L97_0_set_81, LBB97_81-LJTI97_0
.set L97_0_set_85, LBB97_85-LJTI97_0
.set L97_0_set_22, LBB97_22-LJTI97_0
.set L97_0_set_25, LBB97_25-LJTI97_0
.set L97_0_set_88, LBB97_88-LJTI97_0
.set L97_0_set_90, LBB97_90-LJTI97_0
.set L97_0_set_27, LBB97_27-LJTI97_0
.set L97_0_set_92, LBB97_92-LJTI97_0
LJTI97_0:
	.long	L97_0_set_4
	.long	L97_0_set_191
	.long	L97_0_set_191
	.long	L97_0_set_191
	.long	L97_0_set_191
	.long	L97_0_set_191
	.long	L97_0_set_191
	.long	L97_0_set_29
	.long	L97_0_set_191
	.long	L97_0_set_7
	.long	L97_0_set_7
	.long	L97_0_set_7
	.long	L97_0_set_191
	.long	L97_0_set_191
	.long	L97_0_set_32
	.long	L97_0_set_191
	.long	L97_0_set_34
	.long	L97_0_set_37
	.long	L97_0_set_191
	.long	L97_0_set_191
	.long	L97_0_set_191
	.long	L97_0_set_40
	.long	L97_0_set_191
	.long	L97_0_set_4
	.long	L97_0_set_191
	.long	L97_0_set_191
	.long	L97_0_set_191
	.long	L97_0_set_191
	.long	L97_0_set_191
	.long	L97_0_set_191
	.long	L97_0_set_43
	.long	L97_0_set_191
	.long	L97_0_set_2
	.long	L97_0_set_191
	.long	L97_0_set_191
	.long	L97_0_set_191
	.long	L97_0_set_191
	.long	L97_0_set_191
	.long	L97_0_set_191
	.long	L97_0_set_191
	.long	L97_0_set_4
	.long	L97_0_set_191
	.long	L97_0_set_10
	.long	L97_0_set_191
	.long	L97_0_set_46
	.long	L97_0_set_2
	.long	L97_0_set_191
	.long	L97_0_set_191
	.long	L97_0_set_49
	.long	L97_0_set_52
	.long	L97_0_set_191
	.long	L97_0_set_191
	.long	L97_0_set_55
	.long	L97_0_set_2
	.long	L97_0_set_12
	.long	L97_0_set_58
	.long	L97_0_set_16
	.long	L97_0_set_19
	.long	L97_0_set_191
	.long	L97_0_set_191
	.long	L97_0_set_61
	.long	L97_0_set_191
	.long	L97_0_set_4
	.long	L97_0_set_191
	.long	L97_0_set_64
	.long	L97_0_set_67
	.long	L97_0_set_191
	.long	L97_0_set_191
	.long	L97_0_set_4
	.long	L97_0_set_191
	.long	L97_0_set_4
	.long	L97_0_set_191
	.long	L97_0_set_4
	.long	L97_0_set_191
	.long	L97_0_set_69
	.long	L97_0_set_4
	.long	L97_0_set_2
	.long	L97_0_set_2
	.long	L97_0_set_2
	.long	L97_0_set_72
	.long	L97_0_set_191
	.long	L97_0_set_191
	.long	L97_0_set_191
	.long	L97_0_set_10
	.long	L97_0_set_191
	.long	L97_0_set_75
	.long	L97_0_set_78
	.long	L97_0_set_81
	.long	L97_0_set_191
	.long	L97_0_set_191
	.long	L97_0_set_191
	.long	L97_0_set_191
	.long	L97_0_set_85
	.long	L97_0_set_191
	.long	L97_0_set_191
	.long	L97_0_set_191
	.long	L97_0_set_191
	.long	L97_0_set_191
	.long	L97_0_set_191
	.long	L97_0_set_22
	.long	L97_0_set_191
	.long	L97_0_set_191
	.long	L97_0_set_191
	.long	L97_0_set_191
	.long	L97_0_set_191
	.long	L97_0_set_191
	.long	L97_0_set_191
	.long	L97_0_set_191
	.long	L97_0_set_191
	.long	L97_0_set_191
	.long	L97_0_set_191
	.long	L97_0_set_2
	.long	L97_0_set_25
	.long	L97_0_set_88
	.long	L97_0_set_90
	.long	L97_0_set_191
	.long	L97_0_set_191
	.long	L97_0_set_191
	.long	L97_0_set_191
	.long	L97_0_set_27
	.long	L97_0_set_191
	.long	L97_0_set_191
	.long	L97_0_set_191
	.long	L97_0_set_191
	.long	L97_0_set_2
	.long	L97_0_set_2
	.long	L97_0_set_191
	.long	L97_0_set_191
	.long	L97_0_set_191
	.long	L97_0_set_2
	.long	L97_0_set_2
	.long	L97_0_set_2
	.long	L97_0_set_2
	.long	L97_0_set_191
	.long	L97_0_set_191
	.long	L97_0_set_191
	.long	L97_0_set_191
	.long	L97_0_set_191
	.long	L97_0_set_92
.set L97_1_set_170, LBB97_170-LJTI97_1
.set L97_1_set_171, LBB97_171-LJTI97_1
.set L97_1_set_172, LBB97_172-LJTI97_1
.set L97_1_set_71, LBB97_71-LJTI97_1
.set L97_1_set_173, LBB97_173-LJTI97_1
LJTI97_1:
	.long	L97_1_set_170
	.long	L97_1_set_171
	.long	L97_1_set_172
	.long	L97_1_set_71
	.long	L97_1_set_173
	.long	L97_1_set_71
.set L97_2_set_164, LBB97_164-LJTI97_2
.set L97_2_set_165, LBB97_165-LJTI97_2
.set L97_2_set_166, LBB97_166-LJTI97_2
.set L97_2_set_66, LBB97_66-LJTI97_2
.set L97_2_set_167, LBB97_167-LJTI97_2
LJTI97_2:
	.long	L97_2_set_164
	.long	L97_2_set_165
	.long	L97_2_set_166
	.long	L97_2_set_66
	.long	L97_2_set_167
	.long	L97_2_set_66
.set L97_3_set_158, LBB97_158-LJTI97_3
.set L97_3_set_159, LBB97_159-LJTI97_3
.set L97_3_set_160, LBB97_160-LJTI97_3
.set L97_3_set_63, LBB97_63-LJTI97_3
.set L97_3_set_161, LBB97_161-LJTI97_3
LJTI97_3:
	.long	L97_3_set_158
	.long	L97_3_set_159
	.long	L97_3_set_160
	.long	L97_3_set_63
	.long	L97_3_set_161
	.long	L97_3_set_63
.set L97_4_set_74, LBB97_74-LJTI97_4
.set L97_4_set_94, LBB97_94-LJTI97_4
.set L97_4_set_201, LBB97_201-LJTI97_4
.set L97_4_set_96, LBB97_96-LJTI97_4
.set L97_4_set_9, LBB97_9-LJTI97_4
.set L97_4_set_84, LBB97_84-LJTI97_4
LJTI97_4:
	.long	L97_4_set_74
	.long	L97_4_set_94
	.long	L97_4_set_201
	.long	L97_4_set_96
	.long	L97_4_set_9
	.long	L97_4_set_84
	.long	L97_4_set_9
	.long	L97_4_set_74
.set L97_5_set_94, LBB97_94-LJTI97_5
.set L97_5_set_201, LBB97_201-LJTI97_5
.set L97_5_set_96, LBB97_96-LJTI97_5
.set L97_5_set_9, LBB97_9-LJTI97_5
.set L97_5_set_84, LBB97_84-LJTI97_5
LJTI97_5:
	.long	L97_5_set_94
	.long	L97_5_set_201
	.long	L97_5_set_96
	.long	L97_5_set_9
	.long	L97_5_set_84
	.long	L97_5_set_9
.set L97_6_set_99, LBB97_99-LJTI97_6
.set L97_6_set_100, LBB97_100-LJTI97_6
.set L97_6_set_181, LBB97_181-LJTI97_6
.set L97_6_set_18, LBB97_18-LJTI97_6
.set L97_6_set_97, LBB97_97-LJTI97_6
LJTI97_6:
	.long	L97_6_set_99
	.long	L97_6_set_100
	.long	L97_6_set_181
	.long	L97_6_set_18
	.long	L97_6_set_97
	.long	L97_6_set_18
.set L97_7_set_94, LBB97_94-LJTI97_7
.set L97_7_set_201, LBB97_201-LJTI97_7
.set L97_7_set_96, LBB97_96-LJTI97_7
.set L97_7_set_9, LBB97_9-LJTI97_7
.set L97_7_set_84, LBB97_84-LJTI97_7
LJTI97_7:
	.long	L97_7_set_94
	.long	L97_7_set_201
	.long	L97_7_set_96
	.long	L97_7_set_9
	.long	L97_7_set_84
	.long	L97_7_set_9
.set L97_8_set_74, LBB97_74-LJTI97_8
.set L97_8_set_94, LBB97_94-LJTI97_8
.set L97_8_set_201, LBB97_201-LJTI97_8
.set L97_8_set_96, LBB97_96-LJTI97_8
.set L97_8_set_9, LBB97_9-LJTI97_8
.set L97_8_set_84, LBB97_84-LJTI97_8
.set L97_8_set_191, LBB97_191-LJTI97_8
.set L97_8_set_15, LBB97_15-LJTI97_8
LJTI97_8:
	.long	L97_8_set_74
	.long	L97_8_set_94
	.long	L97_8_set_201
	.long	L97_8_set_96
	.long	L97_8_set_9
	.long	L97_8_set_84
	.long	L97_8_set_9
	.long	L97_8_set_74
	.long	L97_8_set_191
	.long	L97_8_set_15
.set L97_9_set_149, LBB97_149-LJTI97_9
.set L97_9_set_150, LBB97_150-LJTI97_9
.set L97_9_set_151, LBB97_151-LJTI97_9
.set L97_9_set_57, LBB97_57-LJTI97_9
.set L97_9_set_152, LBB97_152-LJTI97_9
LJTI97_9:
	.long	L97_9_set_149
	.long	L97_9_set_150
	.long	L97_9_set_151
	.long	L97_9_set_57
	.long	L97_9_set_152
	.long	L97_9_set_57
.set L97_10_set_94, LBB97_94-LJTI97_10
.set L97_10_set_201, LBB97_201-LJTI97_10
.set L97_10_set_96, LBB97_96-LJTI97_10
.set L97_10_set_9, LBB97_9-LJTI97_10
.set L97_10_set_84, LBB97_84-LJTI97_10
LJTI97_10:
	.long	L97_10_set_94
	.long	L97_10_set_201
	.long	L97_10_set_96
	.long	L97_10_set_9
	.long	L97_10_set_84
	.long	L97_10_set_9
.set L97_11_set_99, LBB97_99-LJTI97_11
.set L97_11_set_100, LBB97_100-LJTI97_11
.set L97_11_set_181, LBB97_181-LJTI97_11
.set L97_11_set_18, LBB97_18-LJTI97_11
.set L97_11_set_97, LBB97_97-LJTI97_11
LJTI97_11:
	.long	L97_11_set_99
	.long	L97_11_set_100
	.long	L97_11_set_181
	.long	L97_11_set_18
	.long	L97_11_set_97
	.long	L97_11_set_18
.set L97_12_set_144, LBB97_144-LJTI97_12
.set L97_12_set_145, LBB97_145-LJTI97_12
.set L97_12_set_146, LBB97_146-LJTI97_12
.set L97_12_set_54, LBB97_54-LJTI97_12
.set L97_12_set_147, LBB97_147-LJTI97_12
LJTI97_12:
	.long	L97_12_set_144
	.long	L97_12_set_145
	.long	L97_12_set_146
	.long	L97_12_set_54
	.long	L97_12_set_147
	.long	L97_12_set_54
.set L97_13_set_138, LBB97_138-LJTI97_13
.set L97_13_set_139, LBB97_139-LJTI97_13
.set L97_13_set_140, LBB97_140-LJTI97_13
.set L97_13_set_51, LBB97_51-LJTI97_13
.set L97_13_set_141, LBB97_141-LJTI97_13
LJTI97_13:
	.long	L97_13_set_138
	.long	L97_13_set_139
	.long	L97_13_set_140
	.long	L97_13_set_51
	.long	L97_13_set_141
	.long	L97_13_set_51
.set L97_14_set_94, LBB97_94-LJTI97_14
.set L97_14_set_201, LBB97_201-LJTI97_14
.set L97_14_set_96, LBB97_96-LJTI97_14
.set L97_14_set_9, LBB97_9-LJTI97_14
.set L97_14_set_84, LBB97_84-LJTI97_14
LJTI97_14:
	.long	L97_14_set_94
	.long	L97_14_set_201
	.long	L97_14_set_96
	.long	L97_14_set_9
	.long	L97_14_set_84
	.long	L97_14_set_9
.set L97_15_set_74, LBB97_74-LJTI97_15
.set L97_15_set_94, LBB97_94-LJTI97_15
.set L97_15_set_201, LBB97_201-LJTI97_15
.set L97_15_set_96, LBB97_96-LJTI97_15
.set L97_15_set_9, LBB97_9-LJTI97_15
.set L97_15_set_84, LBB97_84-LJTI97_15
LJTI97_15:
	.long	L97_15_set_74
	.long	L97_15_set_94
	.long	L97_15_set_201
	.long	L97_15_set_96
	.long	L97_15_set_9
	.long	L97_15_set_84
	.long	L97_15_set_9
	.long	L97_15_set_74
.set L97_16_set_186, LBB97_186-LJTI97_16
.set L97_16_set_187, LBB97_187-LJTI97_16
.set L97_16_set_188, LBB97_188-LJTI97_16
.set L97_16_set_87, LBB97_87-LJTI97_16
.set L97_16_set_189, LBB97_189-LJTI97_16
LJTI97_16:
	.long	L97_16_set_186
	.long	L97_16_set_187
	.long	L97_16_set_188
	.long	L97_16_set_87
	.long	L97_16_set_189
	.long	L97_16_set_87
.set L97_17_set_105, LBB97_105-LJTI97_17
.set L97_17_set_106, LBB97_106-LJTI97_17
.set L97_17_set_107, LBB97_107-LJTI97_17
.set L97_17_set_24, LBB97_24-LJTI97_17
.set L97_17_set_108, LBB97_108-LJTI97_17
LJTI97_17:
	.long	L97_17_set_105
	.long	L97_17_set_106
	.long	L97_17_set_107
	.long	L97_17_set_24
	.long	L97_17_set_108
	.long	L97_17_set_24
.set L97_18_set_132, LBB97_132-LJTI97_18
.set L97_18_set_133, LBB97_133-LJTI97_18
.set L97_18_set_134, LBB97_134-LJTI97_18
.set L97_18_set_45, LBB97_45-LJTI97_18
.set L97_18_set_135, LBB97_135-LJTI97_18
LJTI97_18:
	.long	L97_18_set_132
	.long	L97_18_set_133
	.long	L97_18_set_134
	.long	L97_18_set_45
	.long	L97_18_set_135
	.long	L97_18_set_45
.set L97_19_set_126, LBB97_126-LJTI97_19
.set L97_19_set_127, LBB97_127-LJTI97_19
.set L97_19_set_128, LBB97_128-LJTI97_19
.set L97_19_set_42, LBB97_42-LJTI97_19
.set L97_19_set_129, LBB97_129-LJTI97_19
LJTI97_19:
	.long	L97_19_set_126
	.long	L97_19_set_127
	.long	L97_19_set_128
	.long	L97_19_set_42
	.long	L97_19_set_129
	.long	L97_19_set_42
.set L97_20_set_120, LBB97_120-LJTI97_20
.set L97_20_set_121, LBB97_121-LJTI97_20
.set L97_20_set_122, LBB97_122-LJTI97_20
.set L97_20_set_39, LBB97_39-LJTI97_20
.set L97_20_set_123, LBB97_123-LJTI97_20
LJTI97_20:
	.long	L97_20_set_120
	.long	L97_20_set_121
	.long	L97_20_set_122
	.long	L97_20_set_39
	.long	L97_20_set_123
	.long	L97_20_set_39
.set L97_21_set_94, LBB97_94-LJTI97_21
.set L97_21_set_201, LBB97_201-LJTI97_21
.set L97_21_set_96, LBB97_96-LJTI97_21
.set L97_21_set_9, LBB97_9-LJTI97_21
.set L97_21_set_84, LBB97_84-LJTI97_21
LJTI97_21:
	.long	L97_21_set_94
	.long	L97_21_set_201
	.long	L97_21_set_96
	.long	L97_21_set_9
	.long	L97_21_set_84
	.long	L97_21_set_9
.set L97_22_set_74, LBB97_74-LJTI97_22
.set L97_22_set_94, LBB97_94-LJTI97_22
.set L97_22_set_201, LBB97_201-LJTI97_22
.set L97_22_set_96, LBB97_96-LJTI97_22
.set L97_22_set_9, LBB97_9-LJTI97_22
.set L97_22_set_84, LBB97_84-LJTI97_22
LJTI97_22:
	.long	L97_22_set_74
	.long	L97_22_set_94
	.long	L97_22_set_201
	.long	L97_22_set_96
	.long	L97_22_set_9
	.long	L97_22_set_84
	.long	L97_22_set_9
	.long	L97_22_set_74
.set L97_23_set_111, LBB97_111-LJTI97_23
.set L97_23_set_112, LBB97_112-LJTI97_23
.set L97_23_set_113, LBB97_113-LJTI97_23
.set L97_23_set_31, LBB97_31-LJTI97_23
.set L97_23_set_114, LBB97_114-LJTI97_23
LJTI97_23:
	.long	L97_23_set_111
	.long	L97_23_set_112
	.long	L97_23_set_113
	.long	L97_23_set_31
	.long	L97_23_set_114
	.long	L97_23_set_31
	.end_data_region

	.p2align	4, 0x90
__ZN5gimli4read4unit19EntriesRaw$LT$R$GT$17read_abbreviation17h951e5abb4451e217E:
	.cfi_startproc
	pushq	%rbp
	.cfi_def_cfa_offset 16
	.cfi_offset %rbp, -16
	movq	%rsp, %rbp
	.cfi_def_cfa_register %rbp
	pushq	%r15
	pushq	%r14
	pushq	%rbx
	pushq	%rax
	.cfi_offset %rbx, -40
	.cfi_offset %r14, -32
	.cfi_offset %r15, -24
	movq	8(%rsi), %rdx
	decq	%rdx
	xorl	%ecx, %ecx
	xorl	%r15d, %r15d
	.p2align	4, 0x90
LBB98_1:
	cmpq	$-1, %rdx
	je	LBB98_10
	movq	(%rsi), %rbx
	leaq	1(%rbx), %rax
	movq	%rax, (%rsi)
	movq	%rdx, 8(%rsi)
	movzbl	(%rbx), %ebx
	cmpq	$63, %rcx
	jne	LBB98_5
	cmpb	$2, %bl
	jae	LBB98_4
LBB98_5:
	cmpq	$63, %rcx
	ja	LBB98_33
	movzbl	%bl, %ebx
	movl	%ebx, %eax
	andl	$127, %eax
	shlq	%cl, %rax
	orq	%rax, %r15
	addq	$7, %rcx
	decq	%rdx
	testb	%bl, %bl
	js	LBB98_1
	testq	%r15, %r15
	je	LBB98_28
	movq	24(%rsi), %rcx
	leaq	-1(%r15), %rdx
	cmpq	16(%rcx), %rdx
	jae	LBB98_14
	imulq	$112, %rdx, %r11
	addq	(%rcx), %r11
	cmpb	$1, 106(%r11)
	je	LBB98_25
	jmp	LBB98_27
LBB98_10:
	movq	(%rsi), %rax
	movl	$19, %ecx
	jmp	LBB98_11
LBB98_4:
	movl	$6, %ecx
LBB98_11:
	movq	%rcx, 8(%rdi)
	movq	%rax, 16(%rdi)
LBB98_12:
	movq	$1, (%rdi)
LBB98_13:
	addq	$8, %rsp
	popq	%rbx
	popq	%r14
	popq	%r15
	popq	%rbp
	retq
LBB98_28:
	movq	32(%rsi), %rax
	decq	%rax
	jo	LBB98_31
	movq	%rax, 32(%rsi)
	movq	$0, 8(%rdi)
	movq	$0, (%rdi)
	jmp	LBB98_13
LBB98_14:
	movq	24(%rcx), %r11
	testq	%r11, %r11
	je	LBB98_30
	movq	32(%rcx), %r9
	movq	$-1, %r8
LBB98_16:
	movzwl	10(%r11), %r10d
	leaq	(,%r10,8), %rbx
	movl	$8, %r14d
	movq	$-1, %rdx
LBB98_17:
	testq	%rbx, %rbx
	je	LBB98_18
	xorl	%ecx, %ecx
	cmpq	%r15, 24(%r11,%rdx,8)
	setne	%cl
	cmovaq	%r8, %rcx
	incq	%rdx
	cmpq	$-1, %rcx
	je	LBB98_19
	addq	$-8, %rbx
	addq	$-112, %r14
	testq	%rcx, %rcx
	jne	LBB98_17
	jmp	LBB98_23
LBB98_18:
	movq	%r10, %rdx
LBB98_19:
	testq	%r9, %r9
	je	LBB98_30
	decq	%r9
	movq	1336(%r11,%rdx,8), %r11
	jmp	LBB98_16
LBB98_23:
	subq	%r14, %r11
	cmpb	$1, 106(%r11)
	jne	LBB98_27
LBB98_25:
	movq	32(%rsi), %rax
	incq	%rax
	jo	LBB98_32
	movq	%rax, 32(%rsi)
LBB98_27:
	movq	%r11, 8(%rdi)
	movq	$0, (%rdi)
	jmp	LBB98_13
LBB98_30:
	movq	$18, 8(%rdi)
	jmp	LBB98_12
LBB98_33:
	leaq	_str.7(%rip), %rdi
	leaq	l___unnamed_25(%rip), %rdx
	movl	$35, %esi
	callq	__ZN4core9panicking5panic17h383a6b80ea7021aaE
LBB98_31:
	leaq	_str.1(%rip), %rdi
	leaq	l___unnamed_27(%rip), %rdx
	movl	$33, %esi
	callq	__ZN4core9panicking5panic17h383a6b80ea7021aaE
LBB98_32:
	leaq	_str.0(%rip), %rdi
	leaq	l___unnamed_28(%rip), %rdx
	movl	$28, %esi
	callq	__ZN4core9panicking5panic17h383a6b80ea7021aaE
	.cfi_endproc

	.section	__TEXT,__literal16,16byte_literals
	.p2align	4
LCPI99_0:
	.quad	1
	.quad	19
	.section	__TEXT,__text,regular,pure_instructions
	.p2align	4, 0x90
__ZN5gimli4read5dwarf14Dwarf$LT$R$GT$11attr_string17h39386652623c3ecbE:
	.cfi_startproc
	pushq	%rbp
	.cfi_def_cfa_offset 16
	.cfi_offset %rbp, -16
	movq	%rsp, %rbp
	.cfi_def_cfa_register %rbp
	addq	$-26, %rcx
	cmpq	$5, %rcx
	ja	LBB99_7
	leaq	LJTI99_0(%rip), %rax
	movslq	(%rax,%rcx,4), %rcx
	addq	%rax, %rcx
	jmpq	*%rcx
LBB99_2:
	movq	80(%rsi), %rax
	movq	88(%rsi), %rdx
	cmpq	%r8, %rdx
	jb	LBB99_18
	leaq	(%rax,%r8), %rcx
	movq	%rdx, %rsi
	subq	%r8, %rsi
	je	LBB99_41
	addq	%rdx, %rax
	xorl	%edx, %edx
	.p2align	4, 0x90
LBB99_5:
	cmpb	$0, (%rcx,%rdx)
	je	LBB99_27
	incq	%rdx
	cmpq	%rdx, %rsi
	jne	LBB99_5
	jmp	LBB99_41
LBB99_7:
	movb	$68, 8(%rdi)
	movl	$1, %eax
	movq	%rax, (%rdi)
	popq	%rbp
	retq
LBB99_8:
	movq	144(%rdx), %r11
	movq	96(%rsi), %r9
	movq	104(%rsi), %rcx
	subq	%r11, %rcx
	jb	LBB99_11
	movb	49(%rdx), %r10b
	xorl	%eax, %eax
	cmpb	$8, %r10b
	sete	%al
	leaq	4(,%rax,4), %rdx
	movq	%r8, %rax
	mulq	%rdx
	jo	LBB99_44
	addq	%r11, %r9
	cmpq	%rax, %rcx
	jae	LBB99_24
LBB99_11:
	movq	%r9, 16(%rdi)
	movaps	LCPI99_0(%rip), %xmm0
	movups	%xmm0, (%rdi)
	popq	%rbp
	retq
LBB99_12:
	movq	112(%rsi), %rax
	movq	120(%rsi), %rdx
	cmpq	%r8, %rdx
	jb	LBB99_18
	leaq	(%rax,%r8), %rcx
	movq	%rdx, %rsi
	subq	%r8, %rsi
	je	LBB99_41
	addq	%rdx, %rax
	xorl	%edx, %edx
	.p2align	4, 0x90
LBB99_15:
	cmpb	$0, (%rcx,%rdx)
	je	LBB99_27
	incq	%rdx
	cmpq	%rdx, %rsi
	jne	LBB99_15
	jmp	LBB99_41
LBB99_17:
	movq	64(%rsi), %rax
	movq	72(%rsi), %rdx
	cmpq	%r8, %rdx
	jae	LBB99_20
LBB99_18:
	movb	$19, 8(%rdi)
	movq	%rax, 16(%rdi)
	movl	$1, %eax
	movq	%rax, (%rdi)
	popq	%rbp
	retq
LBB99_19:
	movq	%r8, 8(%rdi)
	movq	%r9, 16(%rdi)
	xorl	%eax, %eax
	movq	%rax, (%rdi)
	popq	%rbp
	retq
LBB99_20:
	leaq	(%rax,%r8), %rcx
	movq	%rdx, %rsi
	subq	%r8, %rsi
	je	LBB99_41
	addq	%rdx, %rax
	xorl	%edx, %edx
	.p2align	4, 0x90
LBB99_22:
	cmpb	$0, (%rcx,%rdx)
	je	LBB99_27
	incq	%rdx
	cmpq	%rdx, %rsi
	jne	LBB99_22
	jmp	LBB99_41
LBB99_27:
	cmpq	%rdx, %rsi
	jae	LBB99_28
LBB99_41:
	movq	$19, 8(%rdi)
	movq	%rcx, 16(%rdi)
	movl	$1, %eax
	movq	%rax, (%rdi)
	popq	%rbp
	retq
LBB99_24:
	addq	%rax, %r9
	subq	%rax, %rcx
	cmpb	$8, %r10b
	jne	LBB99_32
	cmpq	$8, %rcx
	jb	LBB99_11
	movq	(%r9), %rdx
	jmp	LBB99_34
LBB99_28:
	je	LBB99_18
LBB99_29:
	movq	%rcx, 8(%rdi)
	movq	%rdx, 16(%rdi)
	xorl	%eax, %eax
	movq	%rax, (%rdi)
	popq	%rbp
	retq
LBB99_32:
	cmpq	$4, %rcx
	jb	LBB99_11
	movl	(%r9), %edx
LBB99_34:
	movq	80(%rsi), %r8
	movq	88(%rsi), %rax
	cmpq	%rdx, %rax
	jae	LBB99_36
LBB99_35:
	movb	$19, 8(%rdi)
	movq	%r8, 16(%rdi)
	movl	$1, %eax
	movq	%rax, (%rdi)
	popq	%rbp
	retq
LBB99_36:
	leaq	(%r8,%rdx), %rcx
	movq	%rax, %rsi
	subq	%rdx, %rsi
	je	LBB99_41
	addq	%rax, %r8
	xorl	%edx, %edx
LBB99_38:
	cmpb	$0, (%rcx,%rdx)
	je	LBB99_40
	incq	%rdx
	cmpq	%rdx, %rsi
	jne	LBB99_38
	jmp	LBB99_41
LBB99_40:
	cmpq	%rdx, %rsi
	jb	LBB99_41
	jne	LBB99_29
	jmp	LBB99_35
LBB99_44:
	leaq	_str.5(%rip), %rdi
	leaq	l___unnamed_29(%rip), %rdx
	movl	$33, %esi
	callq	__ZN4core9panicking5panic17h383a6b80ea7021aaE
	.cfi_endproc
	.p2align	2, 0x90
	.data_region jt32
.set L99_0_set_2, LBB99_2-LJTI99_0
.set L99_0_set_12, LBB99_12-LJTI99_0
.set L99_0_set_7, LBB99_7-LJTI99_0
.set L99_0_set_8, LBB99_8-LJTI99_0
.set L99_0_set_17, LBB99_17-LJTI99_0
.set L99_0_set_19, LBB99_19-LJTI99_0
LJTI99_0:
	.long	L99_0_set_2
	.long	L99_0_set_12
	.long	L99_0_set_7
	.long	L99_0_set_8
	.long	L99_0_set_17
	.long	L99_0_set_19
	.end_data_region

	.section	__TEXT,__literal16,16byte_literals
	.p2align	4
LCPI100_0:
	.byte	0
	.byte	0
	.byte	0
	.byte	0
	.byte	0
	.byte	0
	.byte	0
	.byte	0
	.byte	1
	.byte	0
	.byte	0
	.byte	0
	.byte	0
	.byte	0
	.byte	0
	.byte	0
	.section	__TEXT,__text,regular,pure_instructions
	.p2align	4, 0x90
__ZN5gimli4read8rnglists20RngListIter$LT$R$GT$4next17hcaaab9be8372a1edE:
	.cfi_startproc
	pushq	%rbp
	.cfi_def_cfa_offset 16
	.cfi_offset %rbp, -16
	movq	%rsp, %rbp
	.cfi_def_cfa_register %rbp
	pushq	%r15
	pushq	%r14
	pushq	%r13
	pushq	%r12
	pushq	%rbx
	subq	$88, %rsp
	.cfi_offset %rbx, -56
	.cfi_offset %r12, -48
	.cfi_offset %r13, -40
	.cfi_offset %r14, -32
	.cfi_offset %r15, -24
	movq	%rdi, -48(%rbp)
	movq	8(%rsi), %r10
	testq	%r10, %r10
	je	LBB100_65
	movl	16(%rsi), %r8d
	movl	%r8d, %r11d
	shrl	$16, %r11d
	movq	48(%rsi), %rbx
	movq	32(%rsi), %rax
	movq	40(%rsi), %r9
	movzbl	%r8b, %edx
	leal	(,%rdx,8), %ecx
	negb	%cl
	movq	$-1, %rdi
	shrq	%cl, %rdi
	movq	%rdi, -128(%rbp)
	movq	%rax, -64(%rbp)
	addq	%rbx, %rax
	movq	%rax, -56(%rbp)
	movq	%r9, -104(%rbp)
	movq	%r9, %rax
	movq	%rbx, -112(%rbp)
	subq	%rbx, %rax
	movq	%rax, -72(%rbp)
	movq	%rdx, -88(%rbp)
	movl	%edx, %r12d
	decb	%r12b
	leaq	LJTI100_8(%rip), %r13
	leaq	LJTI100_0(%rip), %rbx
LBB100_2:
	cmpw	$5, %r11w
	jae	LBB100_7
	cmpb	$7, %r12b
	ja	LBB100_66
	movzbl	%r12b, %eax
	movslq	(%r13,%rax,4), %rax
	addq	%r13, %rax
	jmpq	*%rax
LBB100_5:
	movq	(%rsi), %rcx
	leaq	1(%rcx), %rax
	movq	%rax, (%rsi)
	movq	%r10, %rdx
	decq	%rdx
	movq	%rdx, 8(%rsi)
	je	LBB100_181
	movzbl	(%rcx), %r14d
	leaq	2(%rcx), %rax
	addq	$-2, %r10
	movq	%rax, (%rsi)
	movq	%r10, 8(%rsi)
	movzbl	1(%rcx), %r15d
	jmp	LBB100_30
	.p2align	4, 0x90
LBB100_7:
	movq	(%rsi), %r9
	leaq	1(%r9), %rax
	leaq	-1(%r10), %rcx
	movq	%rax, (%rsi)
	movq	%rcx, 8(%rsi)
	movzbl	(%r9), %edx
	cmpq	$7, %rdx
	ja	LBB100_91
	movslq	(%rbx,%rdx,4), %rdx
	addq	%rbx, %rdx
	jmpq	*%rdx
LBB100_9:
	testq	%rcx, %rcx
	je	LBB100_162
	movq	%r8, -96(%rbp)
	leaq	2(%r9), %rax
	leaq	-2(%r10), %r14
	movq	%rax, (%rsi)
	movq	%r14, 8(%rsi)
	movb	1(%r9), %dl
	movq	$-3, %r15
	xorl	%edi, %edi
	xorl	%ecx, %ecx
	xorl	%eax, %eax
	.p2align	4, 0x90
LBB100_11:
	cmpq	$63, %rcx
	ja	LBB100_240
	movq	%rdi, %r13
	movl	%edx, %ebx
	andb	$127, %bl
	movzbl	%bl, %edi
	shlq	%cl, %rdi
	orq	%rdi, %rax
	testb	%dl, %dl
	jns	LBB100_32
	cmpq	%r13, %r14
	je	LBB100_62
	leaq	3(%r9,%r13), %rdi
	leaq	(%r10,%r15), %rbx
	movq	%rdi, (%rsi)
	movq	%rbx, 8(%rsi)
	movzbl	2(%r9,%r13), %edx
	leaq	1(%r13), %rdi
	decq	%r15
	cmpq	$56, %rcx
	leaq	7(%rcx), %rcx
	jne	LBB100_11
	cmpb	$1, %dl
	jbe	LBB100_11
	jmp	LBB100_63
	.p2align	4, 0x90
LBB100_16:
	cmpb	$7, %r12b
	ja	LBB100_73
	movzbl	%r12b, %edx
	leaq	LJTI100_3(%rip), %rdi
	movslq	(%rdi,%rdx,4), %rdx
	addq	%rdi, %rdx
	jmpq	*%rdx
LBB100_18:
	testq	%rcx, %rcx
	je	LBB100_112
	leaq	2(%r9), %rax
	addq	$-2, %r10
	movq	%rax, (%rsi)
	movq	%r10, 8(%rsi)
	movzbl	1(%r9), %r15d
	movq	%r15, 24(%rsi)
	testq	%r10, %r10
	jne	LBB100_2
	jmp	LBB100_65
LBB100_20:
	cmpq	$3, %r10
	jbe	LBB100_68
	movq	(%rsi), %rcx
	leaq	4(%rcx), %rax
	leaq	-4(%r10), %rdx
	movq	%rax, (%rsi)
	movq	%rdx, 8(%rsi)
	cmpq	$4, %rdx
	jb	LBB100_181
	movl	(%rcx), %eax
	movl	%eax, %edx
	movzbl	%al, %r14d
	andl	$-65536, %eax
	andl	$65280, %edx
	orq	%rax, %rdx
	orq	%rdx, %r14
	leaq	8(%rcx), %rax
	addq	$-8, %r10
	movq	%rax, (%rsi)
	movq	%r10, 8(%rsi)
	movl	4(%rcx), %eax
	movl	%eax, %ecx
	andl	$-65536, %ecx
	jmp	LBB100_29
LBB100_23:
	cmpq	$1, %r10
	jbe	LBB100_68
	movq	(%rsi), %rcx
	leaq	2(%rcx), %rax
	leaq	-2(%r10), %rdx
	movq	%rax, (%rsi)
	movq	%rdx, 8(%rsi)
	cmpq	$2, %rdx
	jb	LBB100_181
	movzwl	(%rcx), %r14d
	leaq	4(%rcx), %rax
	addq	$-4, %r10
	movq	%rax, (%rsi)
	movq	%r10, 8(%rsi)
	movzwl	2(%rcx), %eax
	xorl	%ecx, %ecx
	jmp	LBB100_29
LBB100_26:
	cmpq	$7, %r10
	jbe	LBB100_68
	movq	(%rsi), %rcx
	leaq	8(%rcx), %rax
	leaq	-8(%r10), %rdx
	movq	%rax, (%rsi)
	movq	%rdx, 8(%rsi)
	cmpq	$8, %rdx
	jb	LBB100_181
	movq	(%rcx), %r14
	leaq	16(%rcx), %rax
	addq	$-16, %r10
	movq	%rax, (%rsi)
	movq	%r10, 8(%rsi)
	movq	8(%rcx), %rax
	movq	%rax, %rcx
	andq	$-65536, %rcx
LBB100_29:
	movl	%eax, %edx
	andl	$65280, %edx
	movzbl	%al, %r15d
	orq	%rcx, %r15
	orq	%rdx, %r15
LBB100_30:
	movq	%r15, %rax
	orq	%r14, %rax
	je	LBB100_64
	cmpq	%r14, -128(%rbp)
	jne	LBB100_146
	movq	%r15, 24(%rsi)
	testq	%r10, %r10
	jne	LBB100_2
	jmp	LBB100_65
LBB100_32:
	movb	$1, %r8b
	movq	-104(%rbp), %rdx
	cmpq	-112(%rbp), %rdx
	jae	LBB100_42
	xorl	%edx, %edx
	movl	$19, %r9d
	movq	-64(%rbp), %rcx
	movq	%rcx, -80(%rbp)
	jmp	LBB100_60
LBB100_34:
	cmpq	$4, %rcx
	jb	LBB100_74
	leaq	5(%r9), %rax
	addq	$-5, %r10
	movq	%rax, (%rsi)
	movq	%r10, 8(%rsi)
	movl	1(%r9), %eax
	movl	%eax, %ecx
	andl	$-65536, %ecx
	jmp	LBB100_40
LBB100_36:
	cmpq	$2, %rcx
	jb	LBB100_74
	leaq	3(%r9), %rax
	addq	$-3, %r10
	movq	%rax, (%rsi)
	movq	%r10, 8(%rsi)
	movzwl	1(%r9), %eax
	xorl	%ecx, %ecx
	jmp	LBB100_40
LBB100_38:
	cmpq	$8, %rcx
	jb	LBB100_74
	leaq	9(%r9), %rax
	addq	$-9, %r10
	movq	%rax, (%rsi)
	movq	%r10, 8(%rsi)
	movq	1(%r9), %rax
	movq	%rax, %rcx
	andq	$-65536, %rcx
LBB100_40:
	movl	%eax, %edx
	andl	$65280, %edx
	movzbl	%al, %r15d
	orq	%rcx, %r15
	orq	%rdx, %r15
	movq	%r15, 24(%rsi)
	testq	%r10, %r10
	jne	LBB100_2
	jmp	LBB100_65
LBB100_42:
	mulq	-88(%rbp)
	jo	LBB100_241
	cmpq	%rax, -72(%rbp)
	movq	-120(%rbp), %rdx
	jae	LBB100_45
	xorl	%edx, %edx
	movl	$19, %r9d
	movq	-56(%rbp), %rcx
	movq	%rcx, -80(%rbp)
	jmp	LBB100_60
LBB100_45:
	movl	$23, %r9d
	cmpb	$7, %r12b
	ja	LBB100_57
	movq	-56(%rbp), %rdi
	leaq	(%rdi,%rax), %r14
	movq	-72(%rbp), %rdi
	subq	%rax, %rdi
	movzbl	%r12b, %eax
	leaq	LJTI100_7(%rip), %rcx
	movslq	(%rcx,%rax,4), %rbx
	addq	%rcx, %rbx
	movq	-96(%rbp), %rax
	jmpq	*%rbx
LBB100_47:
	testq	%rdi, %rdi
	je	LBB100_58
	movzbl	(%r14), %r9d
	movl	$70, %eax
	jmp	LBB100_59
LBB100_49:
	cmpq	$4, %rdi
	jb	LBB100_54
	movl	(%r14), %r9d
	movl	%r9d, %eax
	shrl	$8, %eax
	movl	%r9d, %edx
	shrl	$16, %edx
	jmp	LBB100_56
LBB100_51:
	cmpq	$2, %rdi
	jb	LBB100_54
	movzwl	(%r14), %r9d
	movl	%r9d, %eax
	shrl	$8, %eax
	xorl	%edx, %edx
	jmp	LBB100_56
LBB100_53:
	cmpq	$8, %rdi
	jae	LBB100_55
LBB100_54:
	xorl	%edx, %edx
	xorl	%eax, %eax
	movl	$19, %r9d
	movq	%r14, -80(%rbp)
	jmp	LBB100_60
LBB100_55:
	movq	(%r14), %r9
	movq	%r9, %rax
	shrq	$8, %rax
	movq	%r9, %rdx
	shrq	$16, %rdx
LBB100_56:
	xorl	%r8d, %r8d
	jmp	LBB100_60
LBB100_57:
	movq	-96(%rbp), %rax
	jmp	LBB100_60
LBB100_58:
	movl	$19, %eax
	xorl	%r9d, %r9d
LBB100_59:
	movq	-80(%rbp), %rcx
	cmpq	$70, %rax
	setne	%r8b
	cmovneq	%rax, %r9
	cmovneq	%r14, %rcx
	movq	%rcx, -80(%rbp)
	xorl	%edx, %edx
	xorl	%eax, %eax
LBB100_60:
	movzbl	%al, %eax
	movq	%rdx, -120(%rbp)
	movq	%rdx, %rdi
	shlq	$16, %rdi
	shlq	$8, %rax
	orq	%rdi, %rax
	movzbl	%r9b, %r15d
	orq	%rax, %r15
	testb	%r8b, %r8b
	jne	LBB100_77
	subq	%r13, %r10
	addq	$-2, %r10
	movq	-96(%rbp), %r8
	leaq	LJTI100_8(%rip), %r13
	leaq	LJTI100_0(%rip), %rbx
	movq	%r15, 24(%rsi)
	testq	%r10, %r10
	jne	LBB100_2
	jmp	LBB100_65
LBB100_62:
	movl	$19, %ecx
	leaq	2(%r9,%r13), %rax
	xorl	%edx, %edx
	jmp	LBB100_70
LBB100_63:
	movl	$6, %ecx
	leaq	2(%r9,%r13), %rax
	xorl	%edx, %edx
	jmp	LBB100_70
LBB100_64:
	leaq	l___unnamed_30(%rip), %rax
	movq	%rax, (%rsi)
	movq	$0, 8(%rsi)
LBB100_65:
	movq	-48(%rbp), %rax
	movq	$0, 8(%rax)
	movq	$0, (%rax)
	jmp	LBB100_72
LBB100_66:
	shll	$8, %r8d
	movzwl	%r8w, %eax
	movl	$23, %ecx
	orq	%rax, %rcx
	jmp	LBB100_69
LBB100_68:
	movq	(%rsi), %rax
	movl	$19, %edx
	xorl	%ecx, %ecx
	orq	%rdx, %rcx
	jmp	LBB100_69
LBB100_73:
	shll	$8, %r8d
	movzwl	%r8w, %edx
	movl	$23, %ecx
	jmp	LBB100_75
LBB100_74:
	movl	$19, %ecx
	xorl	%edx, %edx
LBB100_75:
	orq	%rdx, %rcx
LBB100_76:
	movq	-48(%rbp), %rdi
	movl	%ecx, %edx
	andl	$65280, %edx
	jmp	LBB100_71
LBB100_77:
	movq	-48(%rbp), %rax
	movq	%r15, 8(%rax)
	movq	-80(%rbp), %rcx
	movq	%rcx, 16(%rax)
	movq	$1, (%rax)
	jmp	LBB100_72
LBB100_78:
	testq	%rcx, %rcx
	je	LBB100_162
	movq	%r8, %r11
	leaq	2(%r9), %rax
	leaq	-2(%r10), %r8
	movq	%rax, (%rsi)
	movq	%r8, 8(%rsi)
	movb	1(%r9), %bl
	addq	$-3, %r10
	xorl	%edx, %edx
	xorl	%ecx, %ecx
	xorl	%eax, %eax
LBB100_80:
	cmpq	$63, %rcx
	ja	LBB100_240
	movq	%rdx, %rdi
	movl	%ebx, %edx
	andb	$127, %dl
	movzbl	%dl, %edx
	shlq	%cl, %rdx
	orq	%rdx, %rax
	testb	%bl, %bl
	jns	LBB100_113
	cmpq	%rdi, %r8
	je	LBB100_139
	leaq	3(%r9,%rdi), %rdx
	movq	%rdx, (%rsi)
	movq	%r10, 8(%rsi)
	movzbl	2(%r9,%rdi), %ebx
	leaq	1(%rdi), %rdx
	decq	%r10
	cmpq	$56, %rcx
	leaq	7(%rcx), %rcx
	jne	LBB100_80
	cmpb	$1, %bl
	jbe	LBB100_80
	jmp	LBB100_85
LBB100_86:
	movq	%r8, %rdx
	movl	$23, %r8d
	cmpb	$7, %r12b
	ja	LBB100_169
	movzbl	%r12b, %edi
	leaq	LJTI100_2(%rip), %rbx
	movslq	(%rbx,%rdi,4), %rdi
	addq	%rbx, %rdi
	jmpq	*%rdi
LBB100_88:
	testq	%rcx, %rcx
	je	LBB100_181
	leaq	2(%r9), %rax
	movq	%rax, (%rsi)
	movq	%r10, %rcx
	addq	$-2, %rcx
	movq	%rcx, 8(%rsi)
	je	LBB100_162
	movzbl	1(%r9), %r14d
	leaq	3(%r9), %rax
	addq	$-3, %r10
	movq	%rax, (%rsi)
	movq	%r10, 8(%rsi)
	movzbl	2(%r9), %r15d
	movq	-48(%rbp), %r13
	jmp	LBB100_150
LBB100_91:
	movl	$47, %ecx
	xorl	%edx, %edx
	jmp	LBB100_70
LBB100_92:
	testq	%rcx, %rcx
	je	LBB100_162
	movq	%r8, %r11
	leaq	2(%r9), %rax
	leaq	-2(%r10), %r8
	movq	%rax, (%rsi)
	movq	%r8, 8(%rsi)
	movb	1(%r9), %bl
	addq	$-3, %r10
	xorl	%edx, %edx
	xorl	%ecx, %ecx
	xorl	%eax, %eax
LBB100_94:
	cmpq	$63, %rcx
	ja	LBB100_240
	movq	%rdx, %rdi
	movl	%ebx, %edx
	andb	$127, %dl
	movzbl	%dl, %edx
	shlq	%cl, %rdx
	orq	%rdx, %rax
	testb	%bl, %bl
	jns	LBB100_125
	cmpq	%rdi, %r8
	je	LBB100_139
	leaq	3(%r9,%rdi), %rdx
	movq	%rdx, (%rsi)
	movq	%r10, 8(%rsi)
	movzbl	2(%r9,%rdi), %ebx
	leaq	1(%rdi), %rdx
	decq	%r10
	cmpq	$56, %rcx
	leaq	7(%rcx), %rcx
	jne	LBB100_94
	cmpb	$1, %bl
	jbe	LBB100_94
LBB100_85:
	movl	$6, %ecx
	leaq	2(%r9,%rdi), %rax
	xorl	%edx, %edx
	jmp	LBB100_70
LBB100_100:
	testq	%rcx, %rcx
	je	LBB100_162
	leaq	2(%r9), %rax
	leaq	-2(%r10), %rdi
	movq	%rax, (%rsi)
	movq	%rdi, 8(%rsi)
	movb	1(%r9), %bl
	addq	$-3, %r10
	xorl	%edx, %edx
	xorl	%ecx, %ecx
	xorl	%r14d, %r14d
LBB100_102:
	cmpq	$63, %rcx
	ja	LBB100_240
	movq	%rdx, %rax
	movl	%ebx, %edx
	andb	$127, %dl
	movzbl	%dl, %edx
	shlq	%cl, %rdx
	orq	%rdx, %r14
	testb	%bl, %bl
	jns	LBB100_140
	cmpq	%rax, %rdi
	je	LBB100_153
	leaq	3(%r9,%rax), %rdx
	movq	%rdx, (%rsi)
	movq	%r10, 8(%rsi)
	movzbl	2(%r9,%rax), %ebx
	leaq	1(%rax), %rdx
	decq	%r10
	cmpq	$56, %rcx
	leaq	7(%rcx), %rcx
	jne	LBB100_102
	cmpb	$1, %bl
	jbe	LBB100_102
LBB100_107:
	movl	$6, %ecx
	leaq	2(%r9,%rax), %rax
	xorl	%edx, %edx
	jmp	LBB100_70
LBB100_108:
	movq	%r8, %rdx
	movl	$23, %r8d
	cmpb	$7, %r12b
	ja	LBB100_169
	movzbl	%r12b, %edi
	leaq	LJTI100_1(%rip), %rbx
	movslq	(%rbx,%rdi,4), %rdi
	addq	%rbx, %rdi
	jmpq	*%rdi
LBB100_110:
	testq	%rcx, %rcx
	je	LBB100_181
	leaq	2(%r9), %rax
	addq	$-2, %r10
	movq	%rax, (%rsi)
	movq	%r10, 8(%rsi)
	movzbl	1(%r9), %r14d
	jmp	LBB100_172
LBB100_181:
	movl	$19, %ecx
LBB100_69:
	movl	%ecx, %edx
	andl	$65280, %edx
LBB100_70:
	movq	-48(%rbp), %rdi
LBB100_71:
	movzbl	%cl, %ecx
	orq	%rdx, %rcx
	leaq	l___unnamed_30(%rip), %rdx
	movq	%rdx, (%rsi)
	movq	$0, 8(%rsi)
	movq	%rcx, 8(%rdi)
	movq	%rax, 16(%rdi)
	movq	$1, (%rdi)
LBB100_72:
	addq	$88, %rsp
	popq	%rbx
	popq	%r12
	popq	%r13
	popq	%r14
	popq	%r15
	popq	%rbp
	retq
LBB100_112:
	movl	$19, %ecx
	jmp	LBB100_76
LBB100_113:
	xorl	%ecx, %ecx
	xorl	%r15d, %r15d
LBB100_114:
	cmpq	%rdi, %r8
	je	LBB100_139
	leaq	3(%r9,%rdi), %rdx
	movq	%rdx, (%rsi)
	movq	%r10, 8(%rsi)
	movzbl	2(%r9,%rdi), %edx
	cmpq	$63, %rcx
	jne	LBB100_117
	cmpb	$1, %dl
	ja	LBB100_85
LBB100_117:
	cmpq	$63, %rcx
	ja	LBB100_240
	movzbl	%dl, %ebx
	movl	%ebx, %edx
	andl	$127, %edx
	shlq	%cl, %rdx
	orq	%rdx, %r15
	addq	$7, %rcx
	incq	%rdi
	decq	%r10
	testb	%bl, %bl
	js	LBB100_114
	movl	$19, %edx
	movq	-104(%rbp), %rcx
	cmpq	-112(%rbp), %rcx
	movq	-48(%rbp), %r13
	jb	LBB100_123
	mulq	-88(%rbp)
	jo	LBB100_241
	movq	-72(%rbp), %rdi
	cmpq	%rax, %rdi
	jae	LBB100_188
	movq	-56(%rbp), %rax
	movq	%rax, -64(%rbp)
	movl	$19, %edx
LBB100_123:
LBB100_124:
	movzbl	%r11b, %r14d
	shlq	$8, %r14
	orq	%rdx, %r14
	jmp	LBB100_137
LBB100_125:
	xorl	%ecx, %ecx
	xorl	%r15d, %r15d
LBB100_126:
	cmpq	%rdi, %r8
	je	LBB100_139
	leaq	3(%r9,%rdi), %rdx
	movq	%rdx, (%rsi)
	movq	%r10, 8(%rsi)
	movzbl	2(%r9,%rdi), %edx
	cmpq	$63, %rcx
	jne	LBB100_129
	cmpb	$1, %dl
	ja	LBB100_85
LBB100_129:
	cmpq	$63, %rcx
	ja	LBB100_240
	movzbl	%dl, %ebx
	movl	%ebx, %edx
	andl	$127, %edx
	shlq	%cl, %rdx
	orq	%rdx, %r15
	addq	$7, %rcx
	incq	%rdi
	decq	%r10
	testb	%bl, %bl
	js	LBB100_126
	movl	$19, %ecx
	movq	-104(%rbp), %rdx
	cmpq	-112(%rbp), %rdx
	movq	-48(%rbp), %r13
	jb	LBB100_135
	mulq	-88(%rbp)
	jo	LBB100_241
	movq	-72(%rbp), %rdi
	cmpq	%rax, %rdi
	jae	LBB100_192
	movq	-56(%rbp), %rax
	movq	%rax, -64(%rbp)
	movl	$19, %ecx
LBB100_135:
LBB100_136:
	movzbl	%r11b, %r14d
	shlq	$8, %r14
	orq	%rcx, %r14
LBB100_137:
	movq	%r14, 8(%r13)
	movq	-64(%rbp), %rax
LBB100_138:
	movq	%rax, 16(%r13)
	movq	$1, (%r13)
	jmp	LBB100_72
LBB100_139:
	movl	$19, %ecx
	leaq	2(%r9,%rdi), %rax
	xorl	%edx, %edx
	jmp	LBB100_70
LBB100_140:
	xorl	%ecx, %ecx
	xorl	%r15d, %r15d
LBB100_141:
	cmpq	%rax, %rdi
	je	LBB100_153
	leaq	3(%r9,%rax), %rdx
	movq	%rdx, (%rsi)
	movq	%r10, 8(%rsi)
	movzbl	2(%r9,%rax), %edx
	cmpq	$63, %rcx
	jne	LBB100_144
	cmpb	$1, %dl
	ja	LBB100_107
LBB100_144:
	cmpq	$63, %rcx
	ja	LBB100_240
	movzbl	%dl, %ebx
	movl	%ebx, %edx
	andl	$127, %edx
	shlq	%cl, %rdx
	orq	%rdx, %r15
	addq	$7, %rcx
	incq	%rax
	decq	%r10
	testb	%bl, %bl
	js	LBB100_141
LBB100_146:
	movb	$8, %cl
	movl	%r8d, %eax
	mulb	%cl
	jo	LBB100_242
	movb	$64, %dl
	subb	%al, %dl
	movq	-48(%rbp), %r13
	jb	LBB100_243
	movl	%edx, %ecx
	andb	$56, %cl
	movq	$-1, %rax
	shrq	%cl, %rax
	cmpb	$63, %dl
	ja	LBB100_244
	movq	24(%rsi), %rcx
	addq	%rcx, %r14
	andq	%rax, %r14
	addq	%rcx, %r15
	andq	%rax, %r15
LBB100_150:
	cmpq	%r15, %r14
	jbe	LBB100_152
	leaq	l___unnamed_30(%rip), %rax
	movq	%rax, (%rsi)
	movq	$0, 8(%rsi)
	movb	$47, 8(%r13)
	movq	$1, (%r13)
	jmp	LBB100_72
LBB100_152:
	movq	%r14, 16(%r13)
	movq	%r15, 24(%r13)
	movaps	LCPI100_0(%rip), %xmm0
	movups	%xmm0, (%r13)
	jmp	LBB100_72
LBB100_153:
	movl	$19, %ecx
	leaq	2(%r9,%rax), %rax
	xorl	%edx, %edx
	jmp	LBB100_70
LBB100_154:
	cmpq	$4, %rcx
	jb	LBB100_168
	leaq	5(%r9), %rax
	leaq	-5(%r10), %rcx
	movq	%rax, (%rsi)
	movq	%rcx, 8(%rsi)
	cmpq	$4, %rcx
	jb	LBB100_162
	movl	1(%r9), %r14d
	leaq	9(%r9), %rax
	addq	$-9, %r10
	movq	%rax, (%rsi)
	movq	%r10, 8(%rsi)
	movl	5(%r9), %eax
	movl	%eax, %ecx
	andl	$-65536, %ecx
	jmp	LBB100_187
LBB100_157:
	cmpq	$2, %rcx
	jb	LBB100_168
	leaq	3(%r9), %rax
	leaq	-3(%r10), %rcx
	movq	%rax, (%rsi)
	movq	%rcx, 8(%rsi)
	cmpq	$2, %rcx
	jb	LBB100_162
	movzwl	1(%r9), %r14d
	leaq	5(%r9), %rax
	addq	$-5, %r10
	movq	%rax, (%rsi)
	movq	%r10, 8(%rsi)
	movzwl	3(%r9), %eax
	xorl	%ecx, %ecx
	jmp	LBB100_187
LBB100_160:
	cmpq	$7, %rcx
	jbe	LBB100_168
	leaq	9(%r9), %rax
	leaq	-9(%r10), %rcx
	movq	%rax, (%rsi)
	movq	%rcx, 8(%rsi)
	cmpq	$8, %rcx
	jae	LBB100_186
LBB100_162:
	movl	$19, %ecx
	xorl	%edx, %edx
	jmp	LBB100_70
LBB100_163:
	cmpq	$4, %rcx
	jb	LBB100_168
	leaq	5(%r9), %rax
	addq	$-5, %r10
	movq	%rax, (%rsi)
	movq	%r10, 8(%rsi)
	movl	1(%r9), %ecx
	movl	%ecx, %edx
	andl	$-65536, %edx
	jmp	LBB100_171
LBB100_165:
	cmpq	$2, %rcx
	jb	LBB100_168
	leaq	3(%r9), %rax
	addq	$-3, %r10
	movq	%rax, (%rsi)
	movq	%r10, 8(%rsi)
	movzwl	1(%r9), %ecx
	xorl	%edx, %edx
	jmp	LBB100_171
LBB100_167:
	cmpq	$8, %rcx
	jae	LBB100_170
LBB100_168:
	movl	$19, %r8d
	xorl	%edx, %edx
LBB100_169:
	movzbl	%dl, %ecx
	shlq	$8, %rcx
	orq	%r8, %rcx
	jmp	LBB100_69
LBB100_170:
	leaq	9(%r9), %rax
	addq	$-9, %r10
	movq	%rax, (%rsi)
	movq	%r10, 8(%rsi)
	movq	1(%r9), %rcx
	movq	%rcx, %rdx
	andq	$-65536, %rdx
LBB100_171:
	movl	%ecx, %edi
	andl	$65280, %edi
	movzbl	%cl, %r14d
	orq	%rdx, %r14
	orq	%rdi, %r14
LBB100_172:
	decq	%r10
	xorl	%ecx, %ecx
	xorl	%r15d, %r15d
LBB100_173:
	cmpq	$-1, %r10
	je	LBB100_162
	leaq	1(%rax), %rdx
	movq	%rdx, (%rsi)
	movq	%r10, 8(%rsi)
	movzbl	(%rax), %ebx
	cmpq	$63, %rcx
	jne	LBB100_176
	cmpb	$1, %bl
	ja	LBB100_180
LBB100_176:
	cmpq	$63, %rcx
	ja	LBB100_240
	movzbl	%bl, %edi
	movl	%edi, %eax
	andl	$127, %eax
	shlq	%cl, %rax
	orq	%rax, %r15
	addq	$7, %rcx
	decq	%r10
	movq	%rdx, %rax
	testb	%dil, %dil
	js	LBB100_173
	addq	%r14, %r15
	movq	-48(%rbp), %r13
	jae	LBB100_150
	leaq	_str.0(%rip), %rdi
	leaq	l___unnamed_31(%rip), %rdx
	movl	$28, %esi
	callq	__ZN4core9panicking5panic17h383a6b80ea7021aaE
LBB100_180:
	movl	$6, %ecx
	xorl	%edx, %edx
	jmp	LBB100_70
LBB100_186:
	movq	1(%r9), %r14
	leaq	17(%r9), %rax
	addq	$-17, %r10
	movq	%rax, (%rsi)
	movq	%r10, 8(%rsi)
	movq	9(%r9), %rax
	movq	%rax, %rcx
	andq	$-65536, %rcx
LBB100_187:
	movl	%eax, %edx
	andl	$65280, %edx
	movzbl	%al, %r15d
	orq	%rcx, %r15
	orq	%rdx, %r15
	movq	-48(%rbp), %r13
	jmp	LBB100_150
LBB100_188:
	movl	$23, %edx
	cmpb	$7, %r12b
	ja	LBB100_217
	movq	-56(%rbp), %rcx
	addq	%rax, %rcx
	movq	%rcx, -64(%rbp)
	subq	%rax, %rdi
	movzbl	%r12b, %ecx
	leaq	LJTI100_5(%rip), %rax
	movslq	(%rax,%rcx,4), %rbx
	addq	%rax, %rbx
	jmpq	*%rbx
LBB100_190:
	testq	%rdi, %rdi
	je	LBB100_223
	movq	-64(%rbp), %rax
	movzbl	(%rax), %r14d
	movl	$70, %eax
	jmp	LBB100_224
LBB100_192:
	movl	$23, %ecx
	cmpb	$7, %r12b
	ja	LBB100_222
	addq	%rax, -56(%rbp)
	subq	%rax, %rdi
	movzbl	%r12b, %eax
	leaq	LJTI100_4(%rip), %rdx
	movslq	(%rdx,%rax,4), %rax
	addq	%rdx, %rax
	jmpq	*%rax
LBB100_194:
	testq	%rdi, %rdi
	je	LBB100_225
	movq	-56(%rbp), %rax
	movzbl	(%rax), %r14d
	movl	$70, %eax
	jmp	LBB100_226
LBB100_196:
	cmpq	$4, %rdi
	jb	LBB100_201
	movq	-64(%rbp), %rax
	movl	(%rax), %eax
	movl	%eax, %edx
	andl	$-65536, %edx
	jmp	LBB100_209
LBB100_198:
	cmpq	$2, %rdi
	jb	LBB100_201
	movq	-64(%rbp), %rax
	movzwl	(%rax), %eax
	xorl	%edx, %edx
	jmp	LBB100_209
LBB100_200:
	cmpq	$8, %rdi
	jae	LBB100_208
LBB100_201:
	xorl	%r11d, %r11d
	movl	$19, %edx
	jmp	LBB100_124
LBB100_202:
	cmpq	$4, %rdi
	jb	LBB100_207
	movq	-56(%rbp), %rax
	movl	(%rax), %eax
	movl	%eax, %ecx
	andl	$-65536, %ecx
	jmp	LBB100_219
LBB100_204:
	cmpq	$2, %rdi
	jb	LBB100_207
	movq	-56(%rbp), %rax
	movzwl	(%rax), %eax
	xorl	%ecx, %ecx
	jmp	LBB100_219
LBB100_206:
	cmpq	$8, %rdi
	jae	LBB100_218
LBB100_207:
	xorl	%r11d, %r11d
	movq	-56(%rbp), %rax
	movq	%rax, -64(%rbp)
	movl	$19, %ecx
	jmp	LBB100_136
LBB100_208:
	movq	-64(%rbp), %rax
	movq	(%rax), %rax
	movq	%rax, %rdx
	andq	$-65536, %rdx
LBB100_209:
	movl	%eax, %edi
	andl	$65280, %edi
	movzbl	%al, %r14d
	orq	%rdx, %r14
	orq	%rdi, %r14
LBB100_210:
	movq	%r15, %rax
	mulq	-88(%rbp)
	jo	LBB100_241
	cmpq	%rax, -72(%rbp)
	jae	LBB100_213
	movl	$19, %edx
	jmp	LBB100_236
LBB100_213:
	movl	$23, %edx
	cmpb	$7, %r12b
	ja	LBB100_235
	addq	%rax, -56(%rbp)
	subq	%rax, -72(%rbp)
	leaq	LJTI100_6(%rip), %rax
	movslq	(%rax,%rcx,4), %rcx
	addq	%rax, %rcx
	jmpq	*%rcx
LBB100_215:
	cmpq	$0, -72(%rbp)
	je	LBB100_238
	movq	-56(%rbp), %rax
	movzbl	(%rax), %r15d
	movl	$70, %eax
	jmp	LBB100_239
LBB100_217:
	jmp	LBB100_124
LBB100_218:
	movq	-56(%rbp), %rax
	movq	(%rax), %rax
	movq	%rax, %rcx
	andq	$-65536, %rcx
LBB100_219:
	movl	%eax, %edx
	andl	$65280, %edx
	movzbl	%al, %r14d
	orq	%rcx, %r14
	orq	%rdx, %r14
LBB100_220:
	addq	%r14, %r15
	jae	LBB100_150
	leaq	_str.0(%rip), %rdi
	leaq	l___unnamed_32(%rip), %rdx
	movl	$28, %esi
	callq	__ZN4core9panicking5panic17h383a6b80ea7021aaE
LBB100_222:
	jmp	LBB100_136
LBB100_223:
	movl	$19, %eax
	xorl	%r14d, %r14d
LBB100_224:
	cmpq	$70, %rax
	cmovneq	%rax, %r14
	jne	LBB100_137
	jmp	LBB100_210
LBB100_225:
	movl	$19, %eax
	xorl	%r14d, %r14d
LBB100_226:
	movq	-56(%rbp), %rcx
	movq	%rcx, -64(%rbp)
	cmpq	$70, %rax
	cmovneq	%rax, %r14
	jne	LBB100_137
	jmp	LBB100_220
LBB100_227:
	cmpq	$4, -72(%rbp)
	jb	LBB100_232
	movq	-56(%rbp), %rax
	movl	(%rax), %eax
	movl	%eax, %ecx
	andl	$-65536, %ecx
	jmp	LBB100_234
LBB100_229:
	cmpq	$2, -72(%rbp)
	jb	LBB100_232
	movq	-56(%rbp), %rax
	movzwl	(%rax), %eax
	xorl	%ecx, %ecx
	jmp	LBB100_234
LBB100_231:
	cmpq	$8, -72(%rbp)
	jae	LBB100_233
LBB100_232:
	xorl	%r11d, %r11d
	movl	$19, %edx
	jmp	LBB100_236
LBB100_233:
	movq	-56(%rbp), %rax
	movq	(%rax), %rax
	movq	%rax, %rcx
	andq	$-65536, %rcx
LBB100_234:
	movl	%eax, %edx
	andl	$65280, %edx
	movzbl	%al, %r15d
	orq	%rcx, %r15
	orq	%rdx, %r15
	jmp	LBB100_150
LBB100_235:
LBB100_236:
	movzbl	%r11b, %r15d
	shlq	$8, %r15
	orq	%rdx, %r15
LBB100_237:
	movq	%r15, 8(%r13)
	movq	-56(%rbp), %rax
	jmp	LBB100_138
LBB100_238:
	movl	$19, %eax
	xorl	%r15d, %r15d
LBB100_239:
	cmpq	$70, %rax
	cmovneq	%rax, %r15
	jne	LBB100_237
	jmp	LBB100_150
LBB100_240:
	leaq	_str.7(%rip), %rdi
	leaq	l___unnamed_25(%rip), %rdx
	movl	$35, %esi
	callq	__ZN4core9panicking5panic17h383a6b80ea7021aaE
LBB100_241:
	leaq	_str.5(%rip), %rdi
	leaq	l___unnamed_33(%rip), %rdx
	movl	$33, %esi
	callq	__ZN4core9panicking5panic17h383a6b80ea7021aaE
LBB100_242:
	leaq	_str.5(%rip), %rdi
	leaq	l___unnamed_34(%rip), %rdx
	movl	$33, %esi
	callq	__ZN4core9panicking5panic17h383a6b80ea7021aaE
LBB100_243:
	leaq	_str.1(%rip), %rdi
	leaq	l___unnamed_35(%rip), %rdx
	movl	$33, %esi
	callq	__ZN4core9panicking5panic17h383a6b80ea7021aaE
LBB100_244:
	leaq	_str.6(%rip), %rdi
	leaq	l___unnamed_36(%rip), %rdx
	movl	$36, %esi
	callq	__ZN4core9panicking5panic17h383a6b80ea7021aaE
	.cfi_endproc
	.p2align	2, 0x90
	.data_region jt32
.set L100_0_set_64, LBB100_64-LJTI100_0
.set L100_0_set_9, LBB100_9-LJTI100_0
.set L100_0_set_78, LBB100_78-LJTI100_0
.set L100_0_set_92, LBB100_92-LJTI100_0
.set L100_0_set_100, LBB100_100-LJTI100_0
.set L100_0_set_16, LBB100_16-LJTI100_0
.set L100_0_set_86, LBB100_86-LJTI100_0
.set L100_0_set_108, LBB100_108-LJTI100_0
LJTI100_0:
	.long	L100_0_set_64
	.long	L100_0_set_9
	.long	L100_0_set_78
	.long	L100_0_set_92
	.long	L100_0_set_100
	.long	L100_0_set_16
	.long	L100_0_set_86
	.long	L100_0_set_108
.set L100_1_set_110, LBB100_110-LJTI100_1
.set L100_1_set_165, LBB100_165-LJTI100_1
.set L100_1_set_169, LBB100_169-LJTI100_1
.set L100_1_set_163, LBB100_163-LJTI100_1
.set L100_1_set_167, LBB100_167-LJTI100_1
LJTI100_1:
	.long	L100_1_set_110
	.long	L100_1_set_165
	.long	L100_1_set_169
	.long	L100_1_set_163
	.long	L100_1_set_169
	.long	L100_1_set_169
	.long	L100_1_set_169
	.long	L100_1_set_167
.set L100_2_set_88, LBB100_88-LJTI100_2
.set L100_2_set_157, LBB100_157-LJTI100_2
.set L100_2_set_169, LBB100_169-LJTI100_2
.set L100_2_set_154, LBB100_154-LJTI100_2
.set L100_2_set_160, LBB100_160-LJTI100_2
LJTI100_2:
	.long	L100_2_set_88
	.long	L100_2_set_157
	.long	L100_2_set_169
	.long	L100_2_set_154
	.long	L100_2_set_169
	.long	L100_2_set_169
	.long	L100_2_set_169
	.long	L100_2_set_160
.set L100_3_set_18, LBB100_18-LJTI100_3
.set L100_3_set_36, LBB100_36-LJTI100_3
.set L100_3_set_73, LBB100_73-LJTI100_3
.set L100_3_set_34, LBB100_34-LJTI100_3
.set L100_3_set_38, LBB100_38-LJTI100_3
LJTI100_3:
	.long	L100_3_set_18
	.long	L100_3_set_36
	.long	L100_3_set_73
	.long	L100_3_set_34
	.long	L100_3_set_73
	.long	L100_3_set_73
	.long	L100_3_set_73
	.long	L100_3_set_38
.set L100_4_set_194, LBB100_194-LJTI100_4
.set L100_4_set_204, LBB100_204-LJTI100_4
.set L100_4_set_136, LBB100_136-LJTI100_4
.set L100_4_set_202, LBB100_202-LJTI100_4
.set L100_4_set_206, LBB100_206-LJTI100_4
LJTI100_4:
	.long	L100_4_set_194
	.long	L100_4_set_204
	.long	L100_4_set_136
	.long	L100_4_set_202
	.long	L100_4_set_136
	.long	L100_4_set_136
	.long	L100_4_set_136
	.long	L100_4_set_206
.set L100_5_set_190, LBB100_190-LJTI100_5
.set L100_5_set_198, LBB100_198-LJTI100_5
.set L100_5_set_124, LBB100_124-LJTI100_5
.set L100_5_set_196, LBB100_196-LJTI100_5
.set L100_5_set_200, LBB100_200-LJTI100_5
LJTI100_5:
	.long	L100_5_set_190
	.long	L100_5_set_198
	.long	L100_5_set_124
	.long	L100_5_set_196
	.long	L100_5_set_124
	.long	L100_5_set_124
	.long	L100_5_set_124
	.long	L100_5_set_200
.set L100_6_set_215, LBB100_215-LJTI100_6
.set L100_6_set_229, LBB100_229-LJTI100_6
.set L100_6_set_236, LBB100_236-LJTI100_6
.set L100_6_set_227, LBB100_227-LJTI100_6
.set L100_6_set_231, LBB100_231-LJTI100_6
LJTI100_6:
	.long	L100_6_set_215
	.long	L100_6_set_229
	.long	L100_6_set_236
	.long	L100_6_set_227
	.long	L100_6_set_236
	.long	L100_6_set_236
	.long	L100_6_set_236
	.long	L100_6_set_231
.set L100_7_set_47, LBB100_47-LJTI100_7
.set L100_7_set_51, LBB100_51-LJTI100_7
.set L100_7_set_60, LBB100_60-LJTI100_7
.set L100_7_set_49, LBB100_49-LJTI100_7
.set L100_7_set_53, LBB100_53-LJTI100_7
LJTI100_7:
	.long	L100_7_set_47
	.long	L100_7_set_51
	.long	L100_7_set_60
	.long	L100_7_set_49
	.long	L100_7_set_60
	.long	L100_7_set_60
	.long	L100_7_set_60
	.long	L100_7_set_53
.set L100_8_set_5, LBB100_5-LJTI100_8
.set L100_8_set_23, LBB100_23-LJTI100_8
.set L100_8_set_66, LBB100_66-LJTI100_8
.set L100_8_set_20, LBB100_20-LJTI100_8
.set L100_8_set_26, LBB100_26-LJTI100_8
LJTI100_8:
	.long	L100_8_set_5
	.long	L100_8_set_23
	.long	L100_8_set_66
	.long	L100_8_set_20
	.long	L100_8_set_66
	.long	L100_8_set_66
	.long	L100_8_set_66
	.long	L100_8_set_26
	.end_data_region

	.p2align	4, 0x90
__ZN66_$LT$core..option..Option$LT$T$GT$$u20$as$u20$core..fmt..Debug$GT$3fmt17h82d445df59b86cc6E:
	.cfi_startproc
	pushq	%rbp
	.cfi_def_cfa_offset 16
	.cfi_offset %rbp, -16
	movq	%rsp, %rbp
	.cfi_def_cfa_register %rbp
	pushq	%r14
	pushq	%rbx
	subq	$32, %rsp
	.cfi_offset %rbx, -32
	.cfi_offset %r14, -24
	cmpl	$1, (%rdi)
	jne	LBB101_2
	movq	%rdi, %rbx
	addq	$4, %rbx
	leaq	L___unnamed_37(%rip), %rdx
	leaq	-48(%rbp), %r14
	movl	$4, %ecx
	movq	%r14, %rdi
	callq	__ZN4core3fmt9Formatter11debug_tuple17h6c448643801d07e8E
	movq	%rbx, -24(%rbp)
	leaq	l___unnamed_38(%rip), %rdx
	leaq	-24(%rbp), %rsi
	movq	%r14, %rdi
	callq	__ZN4core3fmt8builders10DebugTuple5field17hc7b676d0e36b51d9E
	movq	%r14, %rdi
	jmp	LBB101_3
LBB101_2:
	leaq	L___unnamed_39(%rip), %rdx
	leaq	-48(%rbp), %rbx
	movl	$4, %ecx
	movq	%rbx, %rdi
	callq	__ZN4core3fmt9Formatter11debug_tuple17h6c448643801d07e8E
	movq	%rbx, %rdi
LBB101_3:
	callq	__ZN4core3fmt8builders10DebugTuple6finish17h9f206806f7096c33E
	addq	$32, %rsp
	popq	%rbx
	popq	%r14
	popq	%rbp
	retq
	.cfi_endproc

	.p2align	4, 0x90
__ZN66_$LT$core..option..Option$LT$T$GT$$u20$as$u20$core..fmt..Debug$GT$3fmt17ha4be1a3975aafc4fE:
	.cfi_startproc
	pushq	%rbp
	.cfi_def_cfa_offset 16
	.cfi_offset %rbp, -16
	movq	%rsp, %rbp
	.cfi_def_cfa_register %rbp
	pushq	%r14
	pushq	%rbx
	subq	$32, %rsp
	.cfi_offset %rbx, -32
	.cfi_offset %r14, -24
	cmpl	$1, (%rdi)
	jne	LBB102_2
	movq	%rdi, %rbx
	addq	$8, %rbx
	leaq	L___unnamed_37(%rip), %rdx
	leaq	-48(%rbp), %r14
	movl	$4, %ecx
	movq	%r14, %rdi
	callq	__ZN4core3fmt9Formatter11debug_tuple17h6c448643801d07e8E
	movq	%rbx, -24(%rbp)
	leaq	l___unnamed_40(%rip), %rdx
	leaq	-24(%rbp), %rsi
	movq	%r14, %rdi
	callq	__ZN4core3fmt8builders10DebugTuple5field17hc7b676d0e36b51d9E
	movq	%r14, %rdi
	jmp	LBB102_3
LBB102_2:
	leaq	L___unnamed_39(%rip), %rdx
	leaq	-48(%rbp), %rbx
	movl	$4, %ecx
	movq	%rbx, %rdi
	callq	__ZN4core3fmt9Formatter11debug_tuple17h6c448643801d07e8E
	movq	%rbx, %rdi
LBB102_3:
	callq	__ZN4core3fmt8builders10DebugTuple6finish17h9f206806f7096c33E
	addq	$32, %rsp
	popq	%rbx
	popq	%r14
	popq	%rbp
	retq
	.cfi_endproc

	.p2align	4, 0x90
__ZN66_$LT$core..option..Option$LT$T$GT$$u20$as$u20$core..fmt..Debug$GT$3fmt17ha508d77341e156b9E:
	.cfi_startproc
	pushq	%rbp
	.cfi_def_cfa_offset 16
	.cfi_offset %rbp, -16
	movq	%rsp, %rbp
	.cfi_def_cfa_register %rbp
	pushq	%r14
	pushq	%rbx
	subq	$32, %rsp
	.cfi_offset %rbx, -32
	.cfi_offset %r14, -24
	cmpq	$0, (%rdi)
	je	LBB103_2
	movq	%rdi, %rbx
	leaq	L___unnamed_37(%rip), %rdx
	leaq	-48(%rbp), %r14
	movl	$4, %ecx
	movq	%r14, %rdi
	callq	__ZN4core3fmt9Formatter11debug_tuple17h6c448643801d07e8E
	movq	%rbx, -24(%rbp)
	leaq	l___unnamed_41(%rip), %rdx
	leaq	-24(%rbp), %rsi
	movq	%r14, %rdi
	callq	__ZN4core3fmt8builders10DebugTuple5field17hc7b676d0e36b51d9E
	movq	%r14, %rdi
	jmp	LBB103_3
LBB103_2:
	leaq	L___unnamed_39(%rip), %rdx
	leaq	-48(%rbp), %rbx
	movl	$4, %ecx
	movq	%rbx, %rdi
	callq	__ZN4core3fmt9Formatter11debug_tuple17h6c448643801d07e8E
	movq	%rbx, %rdi
LBB103_3:
	callq	__ZN4core3fmt8builders10DebugTuple6finish17h9f206806f7096c33E
	addq	$32, %rsp
	popq	%rbx
	popq	%r14
	popq	%rbp
	retq
	.cfi_endproc

	.p2align	4, 0x90
__ZN66_$LT$core..option..Option$LT$T$GT$$u20$as$u20$core..fmt..Debug$GT$3fmt17hfd9e9c60735809a3E:
	.cfi_startproc
	pushq	%rbp
	.cfi_def_cfa_offset 16
	.cfi_offset %rbp, -16
	movq	%rsp, %rbp
	.cfi_def_cfa_register %rbp
	pushq	%r14
	pushq	%rbx
	subq	$32, %rsp
	.cfi_offset %rbx, -32
	.cfi_offset %r14, -24
	cmpl	$4, 16(%rdi)
	jne	LBB104_1
	leaq	L___unnamed_39(%rip), %rdx
	leaq	-48(%rbp), %rbx
	movl	$4, %ecx
	movq	%rbx, %rdi
	callq	__ZN4core3fmt9Formatter11debug_tuple17h6c448643801d07e8E
	movq	%rbx, %rdi
	jmp	LBB104_3
LBB104_1:
	movq	%rdi, %rbx
	leaq	L___unnamed_37(%rip), %rdx
	leaq	-48(%rbp), %r14
	movl	$4, %ecx
	movq	%r14, %rdi
	callq	__ZN4core3fmt9Formatter11debug_tuple17h6c448643801d07e8E
	movq	%rbx, -24(%rbp)
	leaq	l___unnamed_42(%rip), %rdx
	leaq	-24(%rbp), %rsi
	movq	%r14, %rdi
	callq	__ZN4core3fmt8builders10DebugTuple5field17hc7b676d0e36b51d9E
	movq	%r14, %rdi
LBB104_3:
	callq	__ZN4core3fmt8builders10DebugTuple6finish17h9f206806f7096c33E
	addq	$32, %rsp
	popq	%rbx
	popq	%r14
	popq	%rbp
	retq
	.cfi_endproc

	.p2align	4, 0x90
__ZN82_$LT$std..sys_common..poison..PoisonError$LT$T$GT$$u20$as$u20$core..fmt..Debug$GT$3fmt17h2a459a340b4efd75E:
	.cfi_startproc
	pushq	%rbp
	.cfi_def_cfa_offset 16
	.cfi_offset %rbp, -16
	movq	%rsp, %rbp
	.cfi_def_cfa_register %rbp
	movq	%rsi, %rdx
	leaq	l___unnamed_43(%rip), %rdi
	movl	$25, %esi
	popq	%rbp
	jmp	__ZN40_$LT$str$u20$as$u20$core..fmt..Debug$GT$3fmt17h5b42b6f497bd434cE
	.cfi_endproc

	.p2align	4, 0x90
__ZN90_$LT$gimli..read..unit..AttributeValue$LT$R$C$Offset$GT$$u20$as$u20$core..clone..Clone$GT$5clone17h29e5569ed42bfe13E:
	.cfi_startproc
	pushq	%rbp
	.cfi_def_cfa_offset 16
	.cfi_offset %rbp, -16
	movq	%rsp, %rbp
	.cfi_def_cfa_register %rbp
	movq	(%rsi), %rax
	leaq	LJTI106_0(%rip), %rcx
	movslq	(%rcx,%rax,4), %rax
	addq	%rcx, %rax
	jmpq	*%rax
LBB106_2:
	movq	8(%rsi), %rax
	movq	%rax, 8(%rdi)
	xorl	%eax, %eax
	movq	%rax, (%rdi)
	popq	%rbp
	retq
LBB106_3:
	movq	8(%rsi), %rax
	movq	16(%rsi), %rcx
	movq	%rax, 8(%rdi)
	movq	%rcx, 16(%rdi)
	movl	$1, %eax
	movq	%rax, (%rdi)
	popq	%rbp
	retq
LBB106_4:
	movb	8(%rsi), %al
	movb	%al, 8(%rdi)
	movl	$2, %eax
	movq	%rax, (%rdi)
	popq	%rbp
	retq
LBB106_5:
	movzwl	8(%rsi), %eax
	movw	%ax, 8(%rdi)
	movl	$3, %eax
	movq	%rax, (%rdi)
	popq	%rbp
	retq
LBB106_6:
	movl	8(%rsi), %eax
	movl	%eax, 8(%rdi)
	movl	$4, %eax
	movq	%rax, (%rdi)
	popq	%rbp
	retq
LBB106_7:
	movq	8(%rsi), %rax
	movq	%rax, 8(%rdi)
	movl	$5, %eax
	movq	%rax, (%rdi)
	popq	%rbp
	retq
LBB106_8:
	movq	8(%rsi), %rax
	movq	%rax, 8(%rdi)
	movl	$6, %eax
	movq	%rax, (%rdi)
	popq	%rbp
	retq
LBB106_9:
	movq	8(%rsi), %rax
	movq	%rax, 8(%rdi)
	movl	$7, %eax
	movq	%rax, (%rdi)
	popq	%rbp
	retq
LBB106_10:
	movq	8(%rsi), %rax
	movq	16(%rsi), %rcx
	movq	%rax, 8(%rdi)
	movq	%rcx, 16(%rdi)
	movl	$8, %eax
	movq	%rax, (%rdi)
	popq	%rbp
	retq
LBB106_11:
	cmpb	$0, 8(%rsi)
	setne	8(%rdi)
	movl	$9, %eax
	movq	%rax, (%rdi)
	popq	%rbp
	retq
LBB106_12:
	movq	8(%rsi), %rax
	movq	%rax, 8(%rdi)
	movl	$10, %eax
	movq	%rax, (%rdi)
	popq	%rbp
	retq
LBB106_13:
	movq	8(%rsi), %rax
	movq	%rax, 8(%rdi)
	movl	$11, %eax
	movq	%rax, (%rdi)
	popq	%rbp
	retq
LBB106_14:
	movq	8(%rsi), %rax
	movq	%rax, 8(%rdi)
	movl	$12, %eax
	movq	%rax, (%rdi)
	popq	%rbp
	retq
LBB106_15:
	movq	8(%rsi), %rax
	movq	%rax, 8(%rdi)
	movl	$13, %eax
	movq	%rax, (%rdi)
	popq	%rbp
	retq
LBB106_16:
	movq	8(%rsi), %rax
	movq	%rax, 8(%rdi)
	movl	$14, %eax
	movq	%rax, (%rdi)
	popq	%rbp
	retq
LBB106_17:
	movq	8(%rsi), %rax
	movq	%rax, 8(%rdi)
	movl	$15, %eax
	movq	%rax, (%rdi)
	popq	%rbp
	retq
LBB106_18:
	movq	8(%rsi), %rax
	movq	%rax, 8(%rdi)
	movl	$16, %eax
	movq	%rax, (%rdi)
	popq	%rbp
	retq
LBB106_19:
	movq	8(%rsi), %rax
	movq	%rax, 8(%rdi)
	movl	$17, %eax
	movq	%rax, (%rdi)
	popq	%rbp
	retq
LBB106_20:
	movq	8(%rsi), %rax
	movq	%rax, 8(%rdi)
	movl	$18, %eax
	movq	%rax, (%rdi)
	popq	%rbp
	retq
LBB106_21:
	movq	8(%rsi), %rax
	movq	%rax, 8(%rdi)
	movl	$19, %eax
	movq	%rax, (%rdi)
	popq	%rbp
	retq
LBB106_22:
	movq	8(%rsi), %rax
	movq	%rax, 8(%rdi)
	movl	$20, %eax
	movq	%rax, (%rdi)
	popq	%rbp
	retq
LBB106_23:
	movq	8(%rsi), %rax
	movq	%rax, 8(%rdi)
	movl	$21, %eax
	movq	%rax, (%rdi)
	popq	%rbp
	retq
LBB106_24:
	movq	8(%rsi), %rax
	movq	%rax, 8(%rdi)
	movl	$22, %eax
	movq	%rax, (%rdi)
	popq	%rbp
	retq
LBB106_25:
	movq	8(%rsi), %rax
	movq	%rax, 8(%rdi)
	movl	$23, %eax
	movq	%rax, (%rdi)
	popq	%rbp
	retq
LBB106_26:
	movq	8(%rsi), %rax
	movq	%rax, 8(%rdi)
	movl	$24, %eax
	movq	%rax, (%rdi)
	popq	%rbp
	retq
LBB106_27:
	movq	8(%rsi), %rax
	movq	%rax, 8(%rdi)
	movl	$25, %eax
	movq	%rax, (%rdi)
	popq	%rbp
	retq
LBB106_28:
	movq	8(%rsi), %rax
	movq	%rax, 8(%rdi)
	movl	$26, %eax
	movq	%rax, (%rdi)
	popq	%rbp
	retq
LBB106_29:
	movq	8(%rsi), %rax
	movq	%rax, 8(%rdi)
	movl	$27, %eax
	movq	%rax, (%rdi)
	popq	%rbp
	retq
LBB106_30:
	movq	8(%rsi), %rax
	movq	%rax, 8(%rdi)
	movl	$28, %eax
	movq	%rax, (%rdi)
	popq	%rbp
	retq
LBB106_31:
	movq	8(%rsi), %rax
	movq	%rax, 8(%rdi)
	movl	$29, %eax
	movq	%rax, (%rdi)
	popq	%rbp
	retq
LBB106_32:
	movq	8(%rsi), %rax
	movq	%rax, 8(%rdi)
	movl	$30, %eax
	movq	%rax, (%rdi)
	popq	%rbp
	retq
LBB106_33:
	movq	8(%rsi), %rax
	movq	16(%rsi), %rcx
	movq	%rax, 8(%rdi)
	movq	%rcx, 16(%rdi)
	movl	$31, %eax
	movq	%rax, (%rdi)
	popq	%rbp
	retq
LBB106_34:
	movb	8(%rsi), %al
	movb	%al, 8(%rdi)
	movl	$32, %eax
	movq	%rax, (%rdi)
	popq	%rbp
	retq
LBB106_35:
	movb	8(%rsi), %al
	movb	%al, 8(%rdi)
	movl	$33, %eax
	movq	%rax, (%rdi)
	popq	%rbp
	retq
LBB106_36:
	movb	8(%rsi), %al
	movb	%al, 8(%rdi)
	movl	$34, %eax
	movq	%rax, (%rdi)
	popq	%rbp
	retq
LBB106_37:
	movb	8(%rsi), %al
	movb	%al, 8(%rdi)
	movl	$35, %eax
	movq	%rax, (%rdi)
	popq	%rbp
	retq
LBB106_38:
	movb	8(%rsi), %al
	movb	%al, 8(%rdi)
	movl	$36, %eax
	movq	%rax, (%rdi)
	popq	%rbp
	retq
LBB106_39:
	movb	8(%rsi), %al
	movb	%al, 8(%rdi)
	movl	$37, %eax
	movq	%rax, (%rdi)
	popq	%rbp
	retq
LBB106_40:
	movzwl	8(%rsi), %eax
	movw	%ax, 8(%rdi)
	movl	$38, %eax
	movq	%rax, (%rdi)
	popq	%rbp
	retq
LBB106_41:
	movq	8(%rsi), %rax
	movq	%rax, 8(%rdi)
	movl	$39, %eax
	movq	%rax, (%rdi)
	popq	%rbp
	retq
LBB106_42:
	movb	8(%rsi), %al
	movb	%al, 8(%rdi)
	movl	$40, %eax
	movq	%rax, (%rdi)
	popq	%rbp
	retq
LBB106_43:
	movb	8(%rsi), %al
	movb	%al, 8(%rdi)
	movl	$41, %eax
	movq	%rax, (%rdi)
	popq	%rbp
	retq
LBB106_44:
	movb	8(%rsi), %al
	movb	%al, 8(%rdi)
	movl	$42, %eax
	movq	%rax, (%rdi)
	popq	%rbp
	retq
LBB106_45:
	movb	8(%rsi), %al
	movb	%al, 8(%rdi)
	movl	$43, %eax
	movq	%rax, (%rdi)
	popq	%rbp
	retq
LBB106_1:
	movq	8(%rsi), %rax
	movq	%rax, 8(%rdi)
	movl	$44, %eax
	movq	%rax, (%rdi)
	popq	%rbp
	retq
	.cfi_endproc
	.p2align	2, 0x90
	.data_region jt32
.set L106_0_set_2, LBB106_2-LJTI106_0
.set L106_0_set_3, LBB106_3-LJTI106_0
.set L106_0_set_4, LBB106_4-LJTI106_0
.set L106_0_set_5, LBB106_5-LJTI106_0
.set L106_0_set_6, LBB106_6-LJTI106_0
.set L106_0_set_7, LBB106_7-LJTI106_0
.set L106_0_set_8, LBB106_8-LJTI106_0
.set L106_0_set_9, LBB106_9-LJTI106_0
.set L106_0_set_10, LBB106_10-LJTI106_0
.set L106_0_set_11, LBB106_11-LJTI106_0
.set L106_0_set_12, LBB106_12-LJTI106_0
.set L106_0_set_13, LBB106_13-LJTI106_0
.set L106_0_set_14, LBB106_14-LJTI106_0
.set L106_0_set_15, LBB106_15-LJTI106_0
.set L106_0_set_16, LBB106_16-LJTI106_0
.set L106_0_set_17, LBB106_17-LJTI106_0
.set L106_0_set_18, LBB106_18-LJTI106_0
.set L106_0_set_19, LBB106_19-LJTI106_0
.set L106_0_set_20, LBB106_20-LJTI106_0
.set L106_0_set_21, LBB106_21-LJTI106_0
.set L106_0_set_22, LBB106_22-LJTI106_0
.set L106_0_set_23, LBB106_23-LJTI106_0
.set L106_0_set_24, LBB106_24-LJTI106_0
.set L106_0_set_25, LBB106_25-LJTI106_0
.set L106_0_set_26, LBB106_26-LJTI106_0
.set L106_0_set_27, LBB106_27-LJTI106_0
.set L106_0_set_28, LBB106_28-LJTI106_0
.set L106_0_set_29, LBB106_29-LJTI106_0
.set L106_0_set_30, LBB106_30-LJTI106_0
.set L106_0_set_31, LBB106_31-LJTI106_0
.set L106_0_set_32, LBB106_32-LJTI106_0
.set L106_0_set_33, LBB106_33-LJTI106_0
.set L106_0_set_34, LBB106_34-LJTI106_0
.set L106_0_set_35, LBB106_35-LJTI106_0
.set L106_0_set_36, LBB106_36-LJTI106_0
.set L106_0_set_37, LBB106_37-LJTI106_0
.set L106_0_set_38, LBB106_38-LJTI106_0
.set L106_0_set_39, LBB106_39-LJTI106_0
.set L106_0_set_40, LBB106_40-LJTI106_0
.set L106_0_set_41, LBB106_41-LJTI106_0
.set L106_0_set_42, LBB106_42-LJTI106_0
.set L106_0_set_43, LBB106_43-LJTI106_0
.set L106_0_set_44, LBB106_44-LJTI106_0
.set L106_0_set_45, LBB106_45-LJTI106_0
.set L106_0_set_1, LBB106_1-LJTI106_0
LJTI106_0:
	.long	L106_0_set_2
	.long	L106_0_set_3
	.long	L106_0_set_4
	.long	L106_0_set_5
	.long	L106_0_set_6
	.long	L106_0_set_7
	.long	L106_0_set_8
	.long	L106_0_set_9
	.long	L106_0_set_10
	.long	L106_0_set_11
	.long	L106_0_set_12
	.long	L106_0_set_13
	.long	L106_0_set_14
	.long	L106_0_set_15
	.long	L106_0_set_16
	.long	L106_0_set_17
	.long	L106_0_set_18
	.long	L106_0_set_19
	.long	L106_0_set_20
	.long	L106_0_set_21
	.long	L106_0_set_22
	.long	L106_0_set_23
	.long	L106_0_set_24
	.long	L106_0_set_25
	.long	L106_0_set_26
	.long	L106_0_set_27
	.long	L106_0_set_28
	.long	L106_0_set_29
	.long	L106_0_set_30
	.long	L106_0_set_31
	.long	L106_0_set_32
	.long	L106_0_set_33
	.long	L106_0_set_34
	.long	L106_0_set_35
	.long	L106_0_set_36
	.long	L106_0_set_37
	.long	L106_0_set_38
	.long	L106_0_set_39
	.long	L106_0_set_40
	.long	L106_0_set_41
	.long	L106_0_set_42
	.long	L106_0_set_43
	.long	L106_0_set_44
	.long	L106_0_set_45
	.long	L106_0_set_1
	.end_data_region

	.p2align	4, 0x90
__ZN91_$LT$std..panicking..begin_panic..PanicPayload$LT$A$GT$$u20$as$u20$core..panic..BoxMeUp$GT$3get17h18bcfd7dbede5d23E:
	.cfi_startproc
	pushq	%rbp
	.cfi_def_cfa_offset 16
	.cfi_offset %rbp, -16
	movq	%rsp, %rbp
	.cfi_def_cfa_register %rbp
	cmpq	$0, (%rdi)
	je	LBB107_2
	movq	%rdi, %rax
	leaq	l___unnamed_44(%rip), %rdx
	popq	%rbp
	retq
LBB107_2:
	callq	__ZN3std7process5abort17hff53fa3bc108bcb5E
	.cfi_endproc

	.p2align	4, 0x90
__ZN91_$LT$std..panicking..begin_panic..PanicPayload$LT$A$GT$$u20$as$u20$core..panic..BoxMeUp$GT$8take_box17h7207939996b8ac31E:
	.cfi_startproc
	pushq	%rbp
	.cfi_def_cfa_offset 16
	.cfi_offset %rbp, -16
	movq	%rsp, %rbp
	.cfi_def_cfa_register %rbp
	pushq	%r14
	pushq	%rbx
	.cfi_offset %rbx, -32
	.cfi_offset %r14, -24
	movq	(%rdi), %rbx
	movq	8(%rdi), %r14
	movq	$0, (%rdi)
	testq	%rbx, %rbx
	je	LBB108_3
	movl	$16, %edi
	movl	$8, %esi
	callq	___rust_alloc
	testq	%rax, %rax
	je	LBB108_4
	movq	%rbx, (%rax)
	movq	%r14, 8(%rax)
	leaq	l___unnamed_44(%rip), %rdx
	popq	%rbx
	popq	%r14
	popq	%rbp
	retq
LBB108_3:
	callq	__ZN3std7process5abort17hff53fa3bc108bcb5E
LBB108_4:
	movl	$16, %edi
	movl	$8, %esi
	callq	__ZN5alloc5alloc18handle_alloc_error17h28974197717b8939E
	.cfi_endproc

	.section	__TEXT,__literal16,16byte_literals
	.p2align	4
LCPI109_0:
	.quad	1
	.quad	1
	.section	__TEXT,__text,regular,pure_instructions
	.p2align	4, 0x90
__ZN9addr2line16ResUnit$LT$R$GT$11parse_lines17hc689a15f11f1f831E:
Lfunc_begin15:
	.cfi_startproc
	.cfi_personality 155, _rust_eh_personality
	.cfi_lsda 16, Lexception15
	pushq	%rbp
	.cfi_def_cfa_offset 16
	.cfi_offset %rbp, -16
	movq	%rsp, %rbp
	.cfi_def_cfa_register %rbp
	pushq	%r15
	pushq	%r14
	pushq	%r13
	pushq	%r12
	pushq	%rbx
	subq	$984, %rsp
	.cfi_offset %rbx, -56
	.cfi_offset %r12, -48
	.cfi_offset %r13, -40
	.cfi_offset %r14, -32
	.cfi_offset %r15, -24
	movq	%rsi, -912(%rbp)
	movq	%rdx, -920(%rbp)
	cmpl	$46, 352(%rsi)
	jne	LBB109_2
	movq	$0, 8(%rdi)
	movq	$0, (%rdi)
	jmp	LBB109_253
LBB109_2:
	movq	432(%rsi), %rax
	cmpq	$2, %rax
	jne	LBB109_249
	movq	$8, -384(%rbp)
	movq	$0, -376(%rbp)
	movq	$0, -368(%rbp)
	movq	$8, -408(%rbp)
	movq	$0, -400(%rbp)
	movq	$0, -392(%rbp)
	movq	240(%rsi), %r15
	movl	$4, %ecx
	xorl	%ebx, %ebx
	movq	%r15, %rax
	mulq	%rcx
	movq	%rax, %r12
	setno	%al
	jo	LBB109_514
	movq	%rdi, -808(%rbp)
	movl	416(%rsi), %ecx
	movl	%ecx, -152(%rbp)
	movdqu	184(%rsi), %xmm0
	movdqa	%xmm0, -304(%rbp)
	movq	200(%rsi), %rcx
	movq	%rcx, -256(%rbp)
	movl	420(%rsi), %ecx
	movq	%rcx, -784(%rbp)
	movl	424(%rsi), %r13d
	movb	425(%rsi), %cl
	movb	%cl, -48(%rbp)
	movq	208(%rsi), %rcx
	movq	%rcx, -416(%rbp)
	movq	216(%rsi), %rcx
	movq	%rcx, -768(%rbp)
	movq	%rsi, -264(%rbp)
	movq	224(%rsi), %r14
	movb	%al, %bl
	addq	%rbx, %rbx
	testq	%r12, %r12
	je	LBB109_6
	movq	%r12, %rdi
	movq	%rbx, %rsi
	callq	___rust_alloc
	testq	%rax, %rax
	jne	LBB109_7
	jmp	LBB109_225
LBB109_6:
	movq	%rbx, %rax
	testq	%rax, %rax
	je	LBB109_225
LBB109_7:
	shrq	$2, %r12
	movq	%rax, -288(%rbp)
	movq	%r12, -280(%rbp)
	movq	$0, -272(%rbp)
Ltmp64:
	leaq	-288(%rbp), %rdi
	movq	%r15, %rsi
	callq	__ZN5alloc3vec12Vec$LT$T$GT$7reserve17h3d1ab0d0e925a9fdE
Ltmp65:
	leaq	(,%r15,4), %rdx
	movq	-272(%rbp), %rbx
	leaq	(,%rbx,4), %rdi
	addq	-288(%rbp), %rdi
	movq	%r14, %rsi
	callq	_memcpy
	addq	%r15, %rbx
	movq	%rbx, -272(%rbp)
	movq	-264(%rbp), %rsi
	movq	264(%rsi), %r12
	movl	$24, %ecx
	xorl	%ebx, %ebx
	movq	%r12, %rax
	mulq	%rcx
	movq	%rax, %r14
	setno	%al
	jo	LBB109_515
	movq	248(%rsi), %r15
	movb	%al, %bl
	shlq	$3, %rbx
	testq	%r14, %r14
	je	LBB109_15
	movq	%r14, %rdi
	movq	%rbx, %rsi
	callq	___rust_alloc
	movq	%rax, %rcx
	testq	%rcx, %rcx
	je	LBB109_16
LBB109_11:
	movabsq	$-6148914691236517205, %rdx
	movq	%r14, %rax
	mulq	%rdx
	shrq	$4, %rdx
	movq	%rcx, -176(%rbp)
	movq	%rdx, -168(%rbp)
	movq	$0, -160(%rbp)
Ltmp67:
	leaq	-176(%rbp), %rdi
	movq	%r12, %rsi
	callq	__ZN5alloc3vec12Vec$LT$T$GT$7reserve17hdf8275a7585368e1E
Ltmp68:
	movq	-160(%rbp), %rbx
	leaq	(%rbx,%rbx,2), %rdi
	shlq	$3, %rdi
	addq	-176(%rbp), %rdi
	movq	%r15, %rsi
	movq	%r14, %rdx
	callq	_memcpy
	addq	%rbx, %r12
	movq	%r12, -160(%rbp)
	movq	-264(%rbp), %rsi
	movq	288(%rsi), %r15
	movl	$4, %ecx
	xorl	%ebx, %ebx
	movq	%r15, %rax
	mulq	%rcx
	movq	%rax, %r12
	setno	%al
	jo	LBB109_516
	movq	272(%rsi), %r14
	movb	%al, %bl
	addq	%rbx, %rbx
	testq	%r12, %r12
	je	LBB109_17
	movq	%r12, %rdi
	movq	%rbx, %rsi
	callq	___rust_alloc
	testq	%rax, %rax
	jne	LBB109_18
	jmp	LBB109_225
LBB109_15:
	movq	%rbx, %rcx
	testq	%rcx, %rcx
	jne	LBB109_11
LBB109_16:
	movq	%r14, %rdi
	movq	%rbx, %rsi
	callq	__ZN5alloc5alloc18handle_alloc_error17h28974197717b8939E
LBB109_17:
	movq	%rbx, %rax
	testq	%rax, %rax
	je	LBB109_225
LBB109_18:
	shrq	$2, %r12
	movq	%rax, -96(%rbp)
	movq	%r12, -88(%rbp)
	movq	$0, -80(%rbp)
Ltmp70:
	leaq	-96(%rbp), %rdi
	movq	%r15, %rsi
	callq	__ZN5alloc3vec12Vec$LT$T$GT$7reserve17h3d1ab0d0e925a9fdE
Ltmp71:
	leaq	(,%r15,4), %rdx
	movq	-80(%rbp), %rbx
	leaq	(,%rbx,4), %rdi
	addq	-96(%rbp), %rdi
	movq	%r14, %rsi
	callq	_memcpy
	addq	%r15, %rbx
	movq	%rbx, -80(%rbp)
	movq	-264(%rbp), %rsi
	movq	312(%rsi), %r15
	movl	$64, %ecx
	xorl	%ebx, %ebx
	movq	%r15, %rax
	mulq	%rcx
	movq	%rax, %r12
	setno	%al
	jo	LBB109_517
	movq	296(%rsi), %r14
	movb	%al, %bl
	shlq	$3, %rbx
	testq	%r12, %r12
	je	LBB109_224
	movq	%r12, %rdi
	movq	%rbx, %rsi
	callq	___rust_alloc
	testq	%rax, %rax
	je	LBB109_225
LBB109_22:
	shrq	$6, %r12
	movq	%rax, -144(%rbp)
	movq	%r12, -136(%rbp)
	movq	$0, -128(%rbp)
Ltmp73:
	leaq	-144(%rbp), %rdi
	movq	%r15, %rsi
	callq	__ZN5alloc3vec12Vec$LT$T$GT$7reserve17h1cf3decdb3234d84E
Ltmp74:
	shlq	$32, %r13
	addq	-784(%rbp), %r13
	movq	-264(%rbp), %r12
	leaq	352(%r12), %rax
	movq	%rax, -800(%rbp)
	movq	%r15, %rdx
	shlq	$6, %rdx
	movq	-128(%rbp), %rbx
	movq	%rbx, %rdi
	shlq	$6, %rdi
	addq	-144(%rbp), %rdi
	movq	%r14, %rsi
	callq	_memcpy
	addq	%r15, %rbx
	movq	%rbx, -128(%rbp)
	movq	320(%r12), %rbx
	movups	328(%r12), %xmm1
	movq	344(%r12), %r14
	movl	$45, %ecx
	cmpl	$45, 352(%r12)
	je	LBB109_25
	leaq	-248(%rbp), %rdi
	movq	-800(%rbp), %rsi
	movaps	%xmm1, -784(%rbp)
	callq	__ZN90_$LT$gimli..read..unit..AttributeValue$LT$R$C$Offset$GT$$u20$as$u20$core..clone..Clone$GT$5clone17h29e5569ed42bfe13E
	movaps	-784(%rbp), %xmm1
	movdqu	376(%r12), %xmm0
	movq	392(%r12), %rax
	movdqu	%xmm0, -224(%rbp)
	movq	%rax, -208(%rbp)
	movq	400(%r12), %rcx
	movq	408(%r12), %rdx
	movq	%rcx, -200(%rbp)
	movq	%rdx, -192(%rbp)
	movq	-248(%rbp), %rcx
	movq	-240(%rbp), %rdx
	movq	%rdx, -360(%rbp)
	movq	-232(%rbp), %rdx
	movq	%rdx, -352(%rbp)
	movq	-224(%rbp), %rdx
	movq	-216(%rbp), %rsi
	movq	%rdx, -344(%rbp)
	movq	%rsi, -336(%rbp)
	movq	%rax, -328(%rbp)
	movq	-200(%rbp), %rax
	movq	%rax, -320(%rbp)
	movq	-192(%rbp), %rax
	movq	%rax, -312(%rbp)
LBB109_25:
	leaq	432(%r12), %rax
	movq	%rax, -856(%rbp)
	movq	-272(%rbp), %rax
	movq	%rax, -1000(%rbp)
	movq	-288(%rbp), %rax
	movq	-280(%rbp), %rdx
	movq	%rdx, -1008(%rbp)
	movq	%rax, -1016(%rbp)
	movq	-176(%rbp), %rax
	movq	-168(%rbp), %rdx
	movq	%rax, -992(%rbp)
	movq	%rdx, -984(%rbp)
	movq	-160(%rbp), %rax
	movq	%rax, -976(%rbp)
	movq	-96(%rbp), %rax
	movq	-88(%rbp), %rdx
	movq	%rax, -968(%rbp)
	movq	%rdx, -960(%rbp)
	movq	-80(%rbp), %rax
	movq	%rax, -952(%rbp)
	movq	-128(%rbp), %rax
	movq	%rax, -928(%rbp)
	movq	-144(%rbp), %rax
	movq	-136(%rbp), %rdx
	movq	%rdx, -936(%rbp)
	movq	%rax, -944(%rbp)
	movq	-360(%rbp), %rax
	movq	-352(%rbp), %rdx
	movq	%rax, -248(%rbp)
	movq	%rdx, -240(%rbp)
	movq	-344(%rbp), %rax
	movq	%rax, -232(%rbp)
	movq	-336(%rbp), %rax
	movq	%rax, -224(%rbp)
	movq	-328(%rbp), %rax
	movq	%rax, -216(%rbp)
	movq	-320(%rbp), %rax
	movq	%rax, -208(%rbp)
	movq	-312(%rbp), %rax
	movq	%rax, -200(%rbp)
	movq	%r13, %rax
	shrq	$16, %rax
	movzwl	-356(%rbp), %edx
	movw	%dx, -140(%rbp)
	movl	-360(%rbp), %edx
	movl	%edx, -144(%rbp)
	movq	%r13, %rdx
	shrq	$24, %rdx
	movaps	-304(%rbp), %xmm0
	movaps	%xmm0, -752(%rbp)
	movq	-256(%rbp), %rsi
	movq	%rsi, -736(%rbp)
	movq	-416(%rbp), %rsi
	movq	%rsi, -728(%rbp)
	movq	-768(%rbp), %rsi
	movq	%rsi, -720(%rbp)
	movq	-1016(%rbp), %rsi
	movq	-1008(%rbp), %rdi
	movq	%rsi, -712(%rbp)
	movq	%rdi, -704(%rbp)
	movq	-1000(%rbp), %rsi
	movq	%rsi, -696(%rbp)
	movq	-976(%rbp), %rsi
	movq	%rsi, -672(%rbp)
	movq	-992(%rbp), %rsi
	movq	-984(%rbp), %rdi
	movq	%rdi, -680(%rbp)
	movq	%rsi, -688(%rbp)
	movq	-952(%rbp), %rsi
	movq	%rsi, -648(%rbp)
	movq	-968(%rbp), %rsi
	movq	-960(%rbp), %rdi
	movq	%rdi, -656(%rbp)
	movq	%rsi, -664(%rbp)
	leaq	-640(%rbp), %r8
	movq	-928(%rbp), %rsi
	movq	%rsi, -624(%rbp)
	movq	-944(%rbp), %rsi
	movq	-936(%rbp), %rdi
	movq	%rdi, -632(%rbp)
	movq	%rsi, -640(%rbp)
	movq	%rbx, -616(%rbp)
	movaps	%xmm1, -608(%rbp)
	movq	%r14, -592(%rbp)
	movq	%rcx, -584(%rbp)
	movq	-200(%rbp), %rcx
	movq	%rcx, -528(%rbp)
	movq	-208(%rbp), %rcx
	movq	%rcx, -536(%rbp)
	movq	-216(%rbp), %rcx
	movq	%rcx, -544(%rbp)
	movq	-224(%rbp), %rcx
	movq	%rcx, -552(%rbp)
	movq	-232(%rbp), %rcx
	movq	%rcx, -560(%rbp)
	movq	-248(%rbp), %rcx
	movq	-240(%rbp), %rsi
	movq	%rsi, -568(%rbp)
	movq	%rcx, -576(%rbp)
	movl	-152(%rbp), %ecx
	movl	%ecx, -520(%rbp)
	movw	%r13w, -516(%rbp)
	movb	%al, -514(%rbp)
	movw	%dx, -513(%rbp)
	movb	-48(%rbp), %cl
	movb	%cl, -511(%rbp)
	movzwl	-140(%rbp), %ecx
	movw	%cx, -506(%rbp)
	movl	-144(%rbp), %ecx
	movl	%ecx, -510(%rbp)
	leaq	-504(%rbp), %r12
	movq	$0, -496(%rbp)
	movq	$0, -504(%rbp)
	movdqa	LCPI109_0(%rip), %xmm0
	movdqu	%xmm0, -488(%rbp)
	movq	$0, -456(%rbp)
	movq	$0, -464(%rbp)
	movq	$0, -472(%rbp)
	movb	%al, -448(%rbp)
	movl	$0, -447(%rbp)
	movq	%rbx, -440(%rbp)
	movlps	%xmm1, -432(%rbp)
	xorl	%r13d, %r13d
	leaq	LJTI109_0(%rip), %rbx
	xorl	%eax, %eax
LBB109_26:
	testb	%al, %al
	je	LBB109_28
	movb	-514(%rbp), %al
	movq	$0, 8(%r12)
	movq	$0, (%r12)
	movdqa	LCPI109_0(%rip), %xmm0
	movdqu	%xmm0, -488(%rbp)
	movq	$0, 184(%r8)
	movq	$0, 176(%r8)
	movq	$0, 168(%r8)
	movb	%al, -448(%rbp)
	movl	$0, -447(%rbp)
	jmp	LBB109_29
LBB109_28:
	movq	$0, -456(%rbp)
	movb	$0, -447(%rbp)
	movw	$0, -445(%rbp)
	.p2align	4, 0x90
LBB109_29:
	movq	-432(%rbp), %r10
	testq	%r10, %r10
	je	LBB109_254
	movq	-440(%rbp), %r9
	leaq	1(%r9), %r12
	leaq	-1(%r10), %r11
	movq	%r12, -440(%rbp)
	movq	%r11, -432(%rbp)
	movb	(%r9), %dl
	testb	%dl, %dl
	je	LBB109_41
	movb	-511(%rbp), %cl
	cmpb	%cl, %dl
	jae	LBB109_158
	decb	%dl
	movzbl	%dl, %edx
	cmpb	$11, %dl
	ja	LBB109_91
	movslq	(%rbx,%rdx,4), %rdx
	addq	%rbx, %rdx
	jmpq	*%rdx
LBB109_34:
	testq	%r11, %r11
	je	LBB109_266
	leaq	2(%r9), %rsi
	leaq	-2(%r10), %rax
	movq	%rsi, -440(%rbp)
	movq	%rax, -432(%rbp)
	movb	1(%r9), %bl
	addq	$-3, %r10
	xorl	%ecx, %ecx
	xorl	%eax, %eax
	.p2align	4, 0x90
LBB109_36:
	cmpq	$63, %rcx
	ja	LBB109_501
	movl	%ebx, %edx
	andb	$127, %dl
	movzbl	%dl, %edx
	shlq	%cl, %rdx
	orq	%rdx, %rax
	testb	%bl, %bl
	jns	LBB109_123
	movq	%rsi, %r15
	cmpq	$-1, %r10
	je	LBB109_284
	leaq	1(%r15), %rsi
	movq	%rsi, -440(%rbp)
	movq	%r10, -432(%rbp)
	movzbl	(%r15), %ebx
	decq	%r10
	cmpq	$56, %rcx
	leaq	7(%rcx), %rcx
	jne	LBB109_36
	cmpb	$1, %bl
	jbe	LBB109_36
	jmp	LBB109_279
LBB109_41:
	testq	%r11, %r11
	je	LBB109_266
	movq	%r8, %r12
	leaq	2(%r9), %rax
	leaq	-2(%r10), %r8
	movq	%rax, -440(%rbp)
	movq	%r8, -432(%rbp)
	movb	1(%r9), %al
	movq	$-3, %rsi
	xorl	%edi, %edi
	xorl	%ecx, %ecx
	xorl	%r11d, %r11d
	.p2align	4, 0x90
LBB109_43:
	cmpq	$63, %rcx
	ja	LBB109_494
	movq	%rdi, %rbx
	movl	%eax, %edx
	andb	$127, %dl
	movzbl	%dl, %edx
	shlq	%cl, %rdx
	orq	%rdx, %r11
	testb	%al, %al
	jns	LBB109_48
	cmpq	%rbx, %r8
	je	LBB109_226
	leaq	3(%r9,%rbx), %rdx
	leaq	(%r10,%rsi), %rdi
	movq	%rdx, -440(%rbp)
	movq	%rdi, -432(%rbp)
	movzbl	2(%r9,%rbx), %eax
	leaq	1(%rbx), %rdi
	decq	%rsi
	cmpq	$56, %rcx
	leaq	7(%rcx), %rcx
	jne	LBB109_43
	cmpb	$1, %al
	jbe	LBB109_43
	jmp	LBB109_227
LBB109_48:
	movq	%r10, %rax
	subq	%rbx, %rax
	addq	$-2, %rax
	leaq	2(%r9,%rbx), %r15
	cmpq	%r11, %rax
	jb	LBB109_284
	leaq	(%rbx,%r11), %rax
	leaq	2(%r9,%rax), %r8
	subq	%r11, %r10
	subq	%rbx, %r10
	addq	$-2, %r10
	movq	%r8, -440(%rbp)
	movq	%r10, -432(%rbp)
	movq	%r15, -176(%rbp)
	movq	%r11, -168(%rbp)
	testq	%r11, %r11
	je	LBB109_284
	leaq	3(%r9,%rbx), %rdx
	leaq	-1(%r11), %rdi
	movq	%rdx, -176(%rbp)
	movq	%rdi, -168(%rbp)
	movb	2(%r9,%rbx), %cl
	decb	%cl
	cmpb	$3, %cl
	ja	LBB109_107
	movzbl	%cl, %eax
	leaq	LJTI109_1(%rip), %rcx
	movslq	(%rcx,%rax,4), %rax
	addq	%rcx, %rax
	jmpq	*%rax
LBB109_52:
	movl	$23, %ecx
	movb	-520(%rbp), %dl
	leal	-1(%rdx), %esi
	cmpb	$7, %sil
	ja	LBB109_481
	movzbl	%sil, %eax
	leaq	LJTI109_2(%rip), %rsi
	movslq	(%rsi,%rax,4), %rax
	addq	%rsi, %rax
	jmpq	*%rax
LBB109_54:
	testq	%rdi, %rdi
	je	LBB109_490
	leaq	4(%r9,%rbx), %rax
	addq	$-2, %r11
	movq	%rax, -176(%rbp)
	movq	%r11, -168(%rbp)
	movzbl	3(%r9,%rbx), %eax
	movq	%r12, %r8
	jmp	LBB109_154
LBB109_56:
	testq	%r11, %r11
	je	LBB109_266
	leaq	2(%r9), %rsi
	leaq	-2(%r10), %rax
	movq	%rsi, -440(%rbp)
	movq	%rax, -432(%rbp)
	movb	1(%r9), %bl
	addq	$-3, %r10
	xorl	%ecx, %ecx
	xorl	%eax, %eax
	.p2align	4, 0x90
LBB109_58:
	cmpq	$63, %rcx
	ja	LBB109_506
	movl	%ebx, %edx
	andb	$127, %dl
	movzbl	%dl, %edx
	shlq	%cl, %rdx
	orq	%rdx, %rax
	testb	%bl, %bl
	jns	LBB109_121
	movq	%rsi, %r15
	cmpq	$-1, %r10
	je	LBB109_284
	leaq	1(%r15), %rsi
	movq	%rsi, -440(%rbp)
	movq	%r10, -432(%rbp)
	movzbl	(%r15), %ebx
	decq	%r10
	cmpq	$56, %rcx
	leaq	7(%rcx), %rcx
	jne	LBB109_58
	cmpb	$1, %bl
	jbe	LBB109_58
	jmp	LBB109_279
LBB109_63:
	movq	-104(%rbp), %rax
	movq	%rax, -56(%rbp)
	movq	-112(%rbp), %rax
	movq	%rax, -64(%rbp)
	movq	-120(%rbp), %rax
	movq	%rax, -72(%rbp)
	movq	-128(%rbp), %rax
	movq	%rax, -80(%rbp)
	movq	-144(%rbp), %rax
	movq	-136(%rbp), %rcx
	movq	%rcx, -88(%rbp)
	movq	%rax, -96(%rbp)
	movb	$1, -445(%rbp)
	jmp	LBB109_29
LBB109_64:
	addq	$2, %r9
	addq	$-2, %r10
	xorl	%ecx, %ecx
	xorl	%ebx, %ebx
	.p2align	4, 0x90
LBB109_65:
	cmpq	$-1, %r10
	je	LBB109_268
	movq	%rcx, %rax
	movq	%r9, -440(%rbp)
	movq	%r10, -432(%rbp)
	movzbl	-1(%r9), %edi
	cmpq	$63, %rcx
	je	LBB109_117
	movq	%r9, %r12
	movl	%edi, %edx
	andl	$127, %edx
	movl	%eax, %ecx
	shlq	%cl, %rdx
	orq	%rdx, %rbx
	leaq	7(%rax), %rcx
	incq	%r9
	decq	%r10
	testb	%dil, %dil
	js	LBB109_65
	jmp	LBB109_120
LBB109_68:
	testq	%r11, %r11
	je	LBB109_266
	leaq	2(%r9), %rsi
	leaq	-2(%r10), %rax
	movq	%rsi, -440(%rbp)
	movq	%rax, -432(%rbp)
	movb	1(%r9), %bl
	addq	$-3, %r10
	xorl	%ecx, %ecx
	xorl	%eax, %eax
	.p2align	4, 0x90
LBB109_70:
	cmpq	$63, %rcx
	ja	LBB109_499
	movl	%ebx, %edx
	andb	$127, %dl
	movzbl	%dl, %edx
	shlq	%cl, %rdx
	orq	%rdx, %rax
	testb	%bl, %bl
	jns	LBB109_122
	movq	%rsi, %r15
	cmpq	$-1, %r10
	je	LBB109_284
	leaq	1(%r15), %rsi
	movq	%rsi, -440(%rbp)
	movq	%r10, -432(%rbp)
	movzbl	(%r15), %ebx
	decq	%r10
	cmpq	$56, %rcx
	leaq	7(%rcx), %rcx
	jne	LBB109_70
	cmpb	$1, %bl
	jbe	LBB109_70
	jmp	LBB109_279
LBB109_75:
	testq	%r11, %r11
	je	LBB109_266
	leaq	2(%r9), %rsi
	leaq	-2(%r10), %rax
	movq	%rsi, -440(%rbp)
	movq	%rax, -432(%rbp)
	movb	1(%r9), %bl
	addq	$-3, %r10
	xorl	%ecx, %ecx
	xorl	%eax, %eax
	.p2align	4, 0x90
LBB109_77:
	cmpq	$63, %rcx
	ja	LBB109_509
	movl	%ebx, %edx
	andb	$127, %dl
	movzbl	%dl, %edx
	shlq	%cl, %rdx
	orq	%rdx, %rax
	testb	%bl, %bl
	jns	LBB109_125
	movq	%rsi, %r15
	cmpq	$-1, %r10
	je	LBB109_284
	leaq	1(%r15), %rsi
	movq	%rsi, -440(%rbp)
	movq	%r10, -432(%rbp)
	movzbl	(%r15), %ebx
	decq	%r10
	cmpq	$56, %rcx
	leaq	7(%rcx), %rcx
	jne	LBB109_77
	cmpb	$1, %bl
	jbe	LBB109_77
	jmp	LBB109_279
LBB109_82:
	movq	-104(%rbp), %rax
	movq	%rax, -56(%rbp)
	movq	-112(%rbp), %rax
	movq	%rax, -64(%rbp)
	movq	-120(%rbp), %rax
	movq	%rax, -72(%rbp)
	movq	-128(%rbp), %rax
	movq	%rax, -80(%rbp)
	movq	-144(%rbp), %rax
	movq	-136(%rbp), %rcx
	movq	%rcx, -88(%rbp)
	movq	%rax, -96(%rbp)
	xorb	$1, -448(%rbp)
	jmp	LBB109_29
LBB109_83:
	movq	-104(%rbp), %rax
	movq	%rax, -56(%rbp)
	movq	-112(%rbp), %rax
	movq	%rax, -64(%rbp)
	movq	-120(%rbp), %rax
	movq	%rax, -72(%rbp)
	movq	-128(%rbp), %rax
	movq	%rax, -80(%rbp)
	movq	-144(%rbp), %rax
	movq	-136(%rbp), %rcx
	movq	%rcx, -88(%rbp)
	movq	%rax, -96(%rbp)
	movb	$1, -447(%rbp)
	jmp	LBB109_29
LBB109_84:
	movq	-104(%rbp), %rax
	movq	%rax, -56(%rbp)
	movq	-112(%rbp), %rax
	movq	%rax, -64(%rbp)
	movq	-120(%rbp), %rax
	movq	%rax, -72(%rbp)
	movq	-128(%rbp), %rax
	movq	%rax, -80(%rbp)
	movq	-144(%rbp), %rax
	movq	-136(%rbp), %rcx
	movq	%rcx, -88(%rbp)
	movq	%rax, -96(%rbp)
	movb	$1, -444(%rbp)
	jmp	LBB109_29
LBB109_85:
	cmpq	$2, %r11
	jb	LBB109_266
	leaq	3(%r9), %rax
	addq	$-3, %r10
	movq	%rax, -440(%rbp)
	movq	%r10, -432(%rbp)
	movzwl	1(%r9), %eax
	movq	-104(%rbp), %rcx
	movq	%rcx, -56(%rbp)
	movq	-112(%rbp), %rcx
	movq	%rcx, -64(%rbp)
	movq	-120(%rbp), %rcx
	movq	%rcx, -72(%rbp)
	movq	-128(%rbp), %rcx
	movq	%rcx, -80(%rbp)
	movq	-144(%rbp), %rcx
	movq	-136(%rbp), %rdx
	movq	%rdx, -88(%rbp)
	movq	%rcx, -96(%rbp)
LBB109_87:
	addq	%rax, -504(%rbp)
	movq	$0, -496(%rbp)
	jmp	LBB109_29
LBB109_88:
	movq	-104(%rbp), %rax
	movq	%rax, -56(%rbp)
	movq	-112(%rbp), %rax
	movq	%rax, -64(%rbp)
	movq	-120(%rbp), %rax
	movq	%rax, -72(%rbp)
	movq	-128(%rbp), %rax
	movq	%rax, -80(%rbp)
	movq	-144(%rbp), %rax
	movq	-136(%rbp), %rdx
	movq	%rdx, -88(%rbp)
	movq	%rax, -96(%rbp)
	movb	-512(%rbp), %dl
	testb	%dl, %dl
	je	LBB109_507
	notb	%cl
	movzbl	%cl, %eax
	divb	%dl
	movzbl	%al, %eax
	movzbl	-516(%rbp), %ecx
	movzbl	-515(%rbp), %esi
	cmpq	$1, %rsi
	jne	LBB109_116
	imulq	%rax, %rcx
	addq	%rcx, -504(%rbp)
	movq	$0, -496(%rbp)
	jmp	LBB109_29
LBB109_91:
	movq	-728(%rbp), %r15
	movq	-720(%rbp), %rcx
	movl	$19, %r14d
	cmpq	%rdx, %rcx
	jb	LBB109_230
	addq	%rdx, %r15
	cmpq	%rdx, %rcx
	je	LBB109_229
	movzbl	(%r15), %eax
	testq	%rax, %rax
