	.section	__TEXT,__text,regular,pure_instructions
	.macosx_version_min 10, 7
	.p2align	4, 0x90
__ZN112_$LT$alloc..collections..btree..map..IntoIter$LT$K$C$V$GT$$u20$as$u20$core..iter..traits..iterator..Iterator$GT$4next17ha372f7e75fb48fdbE:
	.cfi_startproc
	pushq	%rbp
	.cfi_def_cfa_offset 16
	.cfi_offset %rbp, -16
	movq	%rsp, %rbp
	.cfi_def_cfa_register %rbp
	pushq	%r15
	pushq	%r14
	pushq	%r13
	pushq	%r12
	pushq	%rbx
	subq	$248, %rsp
	.cfi_offset %rbx, -56
	.cfi_offset %r12, -48
	.cfi_offset %r13, -40
	.cfi_offset %r14, -32
	.cfi_offset %r15, -24
	movq	%rdi, %r8
	movq	64(%rsi), %rax
	testq	%rax, %rax
	je	LBB0_21
	movq	%rsi, %r12
	decq	%rax
	movq	%rax, 64(%rsi)
	movq	8(%rsi), %rax
	testq	%rax, %rax
	cmoveq	%rax, %r12
	je	LBB0_23
	movq	(%r12), %rax
	movq	8(%r12), %rdi
	movq	16(%r12), %r9
	movq	24(%r12), %r13
	movzwl	10(%rdi), %ecx
	cmpq	%rcx, %r13
	jae	LBB0_4
	movq	%rax, %rbx
	jmp	LBB0_10
LBB0_21:
	movq	$2, 16(%r8)
	jmp	LBB0_22
LBB0_4:
	movq	%r9, -48(%rbp)
	movq	%r8, -56(%rbp)
	movl	$1336, %r15d
	movq	(%rdi), %r14
	testq	%r14, %r14
	je	LBB0_6
	.p2align	4, 0x90
LBB0_7:
	leaq	1(%rax), %rbx
	movzwl	8(%rdi), %r13d
LBB0_8:
	testq	%rax, %rax
	movl	$1432, %esi
	cmoveq	%r15, %rsi
	movl	$8, %edx
	callq	___rust_dealloc
	movzwl	10(%r14), %ecx
	movq	%rbx, %rax
	movq	%r14, %rdi
	cmpq	%rcx, %r13
	jb	LBB0_9
	movq	(%rdi), %r14
	testq	%r14, %r14
	jne	LBB0_7
LBB0_6:
	movq	%rax, %rbx
	xorl	%r14d, %r14d
	jmp	LBB0_8
LBB0_9:
	movq	%r14, %rdi
	movq	-56(%rbp), %r8
	movq	-48(%rbp), %r9
LBB0_10:
	imulq	$112, %r13, %rcx
	movq	16(%rdi,%r13,8), %rax
	vmovups	104(%rdi,%rcx), %ymm0
	vmovups	136(%rdi,%rcx), %ymm1
	vmovups	168(%rdi,%rcx), %ymm2
	vmovups	184(%rdi,%rcx), %ymm3
	vmovups	%ymm3, -208(%rbp)
	vmovups	%ymm2, -224(%rbp)
	vmovups	%ymm1, -256(%rbp)
	vmovups	%ymm0, -288(%rbp)
	testq	%rbx, %rbx
	je	LBB0_11
	movq	%rbx, %rcx
	movq	1344(%rdi,%r13,8), %rdi
	decq	%rcx
	je	LBB0_13
	addq	$-2, %rbx
	movq	%rcx, %rdx
	andq	$7, %rdx
	je	LBB0_18
	xorl	%esi, %esi
	.p2align	4, 0x90
LBB0_16:
	movq	1336(%rdi), %rdi
	incq	%rsi
	cmpq	%rsi, %rdx
	jne	LBB0_16
	subq	%rsi, %rcx
LBB0_18:
	xorl	%r13d, %r13d
	cmpq	$7, %rbx
	jb	LBB0_20
	.p2align	4, 0x90
LBB0_19:
	movq	1336(%rdi), %rdx
	movq	1336(%rdx), %rdx
	movq	1336(%rdx), %rdx
	movq	1336(%rdx), %rdx
	movq	1336(%rdx), %rdx
	movq	1336(%rdx), %rdx
	movq	1336(%rdx), %rdx
	movq	1336(%rdx), %rdi
	addq	$-8, %rcx
	jne	LBB0_19
	jmp	LBB0_20
LBB0_11:
	incq	%r13
	jmp	LBB0_20
LBB0_13:
	xorl	%r13d, %r13d
LBB0_20:
	vmovups	-288(%rbp), %ymm0
	vmovups	-256(%rbp), %ymm1
	vmovups	-224(%rbp), %ymm2
	vmovups	-208(%rbp), %ymm3
	vmovups	%ymm3, -96(%rbp)
	vmovups	%ymm2, -112(%rbp)
	vmovups	%ymm1, -144(%rbp)
	vmovups	%ymm0, -176(%rbp)
	movq	$0, (%r12)
	movq	%rdi, 8(%r12)
	movq	%r9, 16(%r12)
	movq	%r13, 24(%r12)
	movq	%rax, (%r8)
	vmovups	-176(%rbp), %ymm0
	vmovups	-144(%rbp), %ymm1
	vmovups	-112(%rbp), %ymm2
	vmovups	-96(%rbp), %ymm3
	vmovups	%ymm0, 8(%r8)
	vmovups	%ymm1, 40(%r8)
	vmovups	%ymm2, 72(%r8)
	vmovups	%ymm3, 88(%r8)
LBB0_22:
	addq	$248, %rsp
	popq	%rbx
	popq	%r12
	popq	%r13
	popq	%r14
	popq	%r15
	popq	%rbp
	vzeroupper
	retq
LBB0_23:
	leaq	l___unnamed_1(%rip), %rdi
	leaq	l___unnamed_2(%rip), %rdx
	movl	$43, %esi
	callq	__ZN4core9panicking5panic17h736ee47a631475c0E
	.cfi_endproc

	.p2align	4, 0x90
__ZN36_$LT$T$u20$as$u20$core..any..Any$GT$7type_id17hde329c178d1b5664E:
	.cfi_startproc
	pushq	%rbp
	.cfi_def_cfa_offset 16
	.cfi_offset %rbp, -16
	movq	%rsp, %rbp
	.cfi_def_cfa_register %rbp
	movabsq	$1229646359891580772, %rax
	popq	%rbp
	retq
	.cfi_endproc

	.p2align	4, 0x90
__ZN3std4sync4once4Once9call_once28_$u7b$$u7b$closure$u7d$$u7d$17h00ebf77fb4f1c23eE:
Lfunc_begin0:
	.cfi_startproc
	.cfi_personality 155, _rust_eh_personality
	.cfi_lsda 16, Lexception0
	pushq	%rbp
	.cfi_def_cfa_offset 16
	.cfi_offset %rbp, -16
	movq	%rsp, %rbp
	.cfi_def_cfa_register %rbp
	pushq	%r15
	pushq	%r14
	pushq	%rbx
	subq	$24, %rsp
	.cfi_offset %rbx, -40
	.cfi_offset %r14, -32
	.cfi_offset %r15, -24
	movq	(%rdi), %rax
	testb	$1, (%rax)
	movb	$0, (%rax)
	je	LBB2_10
	movl	$64, %edi
	movl	$8, %esi
	callq	___rust_alloc
	testq	%rax, %rax
	je	LBB2_11
	movq	%rax, %rbx
Ltmp0:
	movq	%rax, %rdi
	callq	__ZN3std10sys_common5mutex5Mutex3new17h696650690b01d120E
Ltmp1:
	movq	%rbx, -48(%rbp)
Ltmp3:
	callq	__ZN3std10sys_common6poison4Flag3new17h17da4b4837aefea3E
Ltmp4:
	movl	%eax, %r14d
	leaq	-48(%rbp), %r15
	movq	%r15, %rdi
	callq	_pthread_mutexattr_init
	movq	%r15, %rdi
	xorl	%esi, %esi
	callq	_pthread_mutexattr_settype
	movq	%rbx, %rdi
	movq	%r15, %rsi
	callq	_pthread_mutex_init
	movq	%r15, %rdi
	callq	_pthread_mutexattr_destroy
	movl	-48(%rbp), %eax
	movl	-45(%rbp), %ecx
	movl	%eax, -32(%rbp)
	movl	%ecx, -29(%rbp)
	movl	$16, %edi
	movl	$8, %esi
	callq	___rust_alloc
	testq	%rax, %rax
	je	LBB2_5
	movq	%rbx, (%rax)
	movb	%r14b, 8(%rax)
	movl	-32(%rbp), %ecx
	movl	-29(%rbp), %edx
	movl	%edx, 12(%rax)
	movl	%ecx, 9(%rax)
	movq	%rax, __ZN9backtrace4lock4LOCK17h860997a0306b6657E(%rip)
	addq	$24, %rsp
	popq	%rbx
	popq	%r14
	popq	%r15
	popq	%rbp
	retq
LBB2_10:
	leaq	l___unnamed_1(%rip), %rdi
	leaq	l___unnamed_3(%rip), %rdx
	movl	$43, %esi
	callq	__ZN4core9panicking5panic17h736ee47a631475c0E
LBB2_11:
	movl	$64, %edi
	movl	$8, %esi
	callq	__ZN5alloc5alloc18handle_alloc_error17hbc0ab0ed90816c07E
LBB2_5:
	movl	$16, %edi
	movl	$8, %esi
	callq	__ZN5alloc5alloc18handle_alloc_error17hbc0ab0ed90816c07E
LBB2_8:
Ltmp5:
	movq	%rax, %r14
	leaq	-48(%rbp), %rdi
	callq	__ZN4core3ptr13drop_in_place17h731eee458560584aE
	movq	%r14, %rdi
	callq	__Unwind_Resume
	ud2
LBB2_6:
Ltmp2:
	movq	%rax, %r14
	movq	%rbx, %rdi
	callq	__ZN5alloc5alloc8box_free17hcd5582844215ddb7E
	movq	%r14, %rdi
	callq	__Unwind_Resume
	ud2
Lfunc_end0:
	.cfi_endproc
	.section	__TEXT,__gcc_except_tab
	.p2align	2
GCC_except_table2:
Lexception0:
	.byte	255
	.byte	255
	.byte	1
	.uleb128 Lcst_end0-Lcst_begin0
Lcst_begin0:
	.uleb128 Ltmp0-Lfunc_begin0
	.uleb128 Ltmp1-Ltmp0
	.uleb128 Ltmp2-Lfunc_begin0
	.byte	0
	.uleb128 Ltmp3-Lfunc_begin0
	.uleb128 Ltmp4-Ltmp3
	.uleb128 Ltmp5-Lfunc_begin0
	.byte	0
	.uleb128 Ltmp4-Lfunc_begin0
	.uleb128 Lfunc_end0-Ltmp4
	.byte	0
	.byte	0
Lcst_end0:
	.p2align	2

	.section	__TEXT,__text,regular,pure_instructions
	.p2align	4, 0x90
__ZN3std9panicking11begin_panic17h0efdf420d7579923E:
	.cfi_startproc
	pushq	%rbp
	.cfi_def_cfa_offset 16
	.cfi_offset %rbp, -16
	movq	%rsp, %rbp
	.cfi_def_cfa_register %rbp
	subq	$16, %rsp
	movq	%rdi, -16(%rbp)
	movq	%rsi, -8(%rbp)
	movq	%rdx, %rdi
	callq	__ZN4core5panic8Location6caller17hf55c9a52d6249cfcE
	leaq	l___unnamed_4(%rip), %rsi
	leaq	-16(%rbp), %rdi
	xorl	%edx, %edx
	movq	%rax, %rcx
	callq	__ZN3std9panicking20rust_panic_with_hook17hf8b9378dd2e7986aE
	.cfi_endproc

	.p2align	4, 0x90
__ZN42_$LT$$RF$T$u20$as$u20$core..fmt..Debug$GT$3fmt17h40fc0056633c4f47E:
	.cfi_startproc
	pushq	%rbp
	.cfi_def_cfa_offset 16
	.cfi_offset %rbp, -16
	movq	%rsp, %rbp
	.cfi_def_cfa_register %rbp
	pushq	%r14
	pushq	%rbx
	.cfi_offset %rbx, -32
	.cfi_offset %r14, -24
	movq	%rsi, %rbx
	movq	(%rdi), %r14
	movq	%rsi, %rdi
	callq	__ZN4core3fmt9Formatter15debug_lower_hex17h8530fbaeba13f4d9E
	testb	%al, %al
	je	LBB4_1
	movq	%r14, %rdi
	movq	%rbx, %rsi
	popq	%rbx
	popq	%r14
	popq	%rbp
	jmp	__ZN4core3fmt3num53_$LT$impl$u20$core..fmt..LowerHex$u20$for$u20$u16$GT$3fmt17h4a3e59891cc09bc8E
LBB4_1:
	movq	%rbx, %rdi
	callq	__ZN4core3fmt9Formatter15debug_upper_hex17hf8fda15ec43a1e68E
	movq	%r14, %rdi
	movq	%rbx, %rsi
	testb	%al, %al
	je	LBB4_4
	popq	%rbx
	popq	%r14
	popq	%rbp
	jmp	__ZN4core3fmt3num53_$LT$impl$u20$core..fmt..UpperHex$u20$for$u20$u16$GT$3fmt17h80b29e32979d60cdE
LBB4_4:
	popq	%rbx
	popq	%r14
	popq	%rbp
	jmp	__ZN4core3fmt3num3imp52_$LT$impl$u20$core..fmt..Display$u20$for$u20$u16$GT$3fmt17h7d9582ae70d300cbE
	.cfi_endproc

	.p2align	4, 0x90
__ZN42_$LT$$RF$T$u20$as$u20$core..fmt..Debug$GT$3fmt17h5129ef216b2d94daE:
	.cfi_startproc
	pushq	%rbp
	.cfi_def_cfa_offset 16
	.cfi_offset %rbp, -16
	movq	%rsp, %rbp
	.cfi_def_cfa_register %rbp
	movq	%rsi, %rdx
	movq	(%rdi), %rax
	movq	(%rax), %rdi
	movq	8(%rax), %rsi
	popq	%rbp
	jmp	__ZN52_$LT$std..path..Path$u20$as$u20$core..fmt..Debug$GT$3fmt17h5a4ef7f530b18c9dE
	.cfi_endproc

	.p2align	4, 0x90
__ZN42_$LT$$RF$T$u20$as$u20$core..fmt..Debug$GT$3fmt17h56aaba043bf4a8f9E:
	.cfi_startproc
	pushq	%rbp
	.cfi_def_cfa_offset 16
	.cfi_offset %rbp, -16
	movq	%rsp, %rbp
	.cfi_def_cfa_register %rbp
	pushq	%r14
	pushq	%rbx
	.cfi_offset %rbx, -32
	.cfi_offset %r14, -24
	movq	%rsi, %rbx
	movq	(%rdi), %r14
	movq	%rsi, %rdi
	callq	__ZN4core3fmt9Formatter15debug_lower_hex17h8530fbaeba13f4d9E
	testb	%al, %al
	je	LBB6_1
	movq	%r14, %rdi
	movq	%rbx, %rsi
	popq	%rbx
	popq	%r14
	popq	%rbp
	jmp	__ZN4core3fmt3num53_$LT$impl$u20$core..fmt..LowerHex$u20$for$u20$u32$GT$3fmt17h6f8627d2574097eeE
LBB6_1:
	movq	%rbx, %rdi
	callq	__ZN4core3fmt9Formatter15debug_upper_hex17hf8fda15ec43a1e68E
	movq	%r14, %rdi
	movq	%rbx, %rsi
	testb	%al, %al
	je	LBB6_4
	popq	%rbx
	popq	%r14
	popq	%rbp
	jmp	__ZN4core3fmt3num53_$LT$impl$u20$core..fmt..UpperHex$u20$for$u20$u32$GT$3fmt17hfea5795b8018329eE
LBB6_4:
	popq	%rbx
	popq	%r14
	popq	%rbp
	jmp	__ZN4core3fmt3num3imp52_$LT$impl$u20$core..fmt..Display$u20$for$u20$u32$GT$3fmt17h8cb3163b2d7e102aE
	.cfi_endproc

	.p2align	4, 0x90
__ZN42_$LT$$RF$T$u20$as$u20$core..fmt..Debug$GT$3fmt17h693157772eea0517E:
	.cfi_startproc
	pushq	%rbp
	.cfi_def_cfa_offset 16
	.cfi_offset %rbp, -16
	movq	%rsp, %rbp
	.cfi_def_cfa_register %rbp
	pushq	%r15
	pushq	%r14
	pushq	%r13
	pushq	%r12
	pushq	%rbx
	subq	$24, %rsp
	.cfi_offset %rbx, -56
	.cfi_offset %r12, -48
	.cfi_offset %r13, -40
	.cfi_offset %r14, -32
	.cfi_offset %r15, -24
	movq	(%rdi), %rax
	movq	(%rax), %rbx
	movq	8(%rax), %r13
	leaq	-64(%rbp), %rdi
	callq	__ZN4core3fmt9Formatter10debug_list17hd054f0986422feb9E
	testq	%r13, %r13
	je	LBB7_3
	leaq	l___unnamed_5(%rip), %r14
	leaq	-64(%rbp), %r15
	leaq	-48(%rbp), %r12
	.p2align	4, 0x90
LBB7_2:
	movq	%rbx, -48(%rbp)
	movq	%r15, %rdi
	movq	%r12, %rsi
	movq	%r14, %rdx
	callq	__ZN4core3fmt8builders9DebugList5entry17h5c0dec54538196dfE
	incq	%rbx
	decq	%r13
	jne	LBB7_2
LBB7_3:
	leaq	-64(%rbp), %rdi
	callq	__ZN4core3fmt8builders9DebugList6finish17h3635bd6af9b1c5a6E
	addq	$24, %rsp
	popq	%rbx
	popq	%r12
	popq	%r13
	popq	%r14
	popq	%r15
	popq	%rbp
	retq
	.cfi_endproc

	.p2align	4, 0x90
__ZN42_$LT$$RF$T$u20$as$u20$core..fmt..Debug$GT$3fmt17h7591937d263d17eeE:
	.cfi_startproc
	pushq	%rbp
	.cfi_def_cfa_offset 16
	.cfi_offset %rbp, -16
	movq	%rsp, %rbp
	.cfi_def_cfa_register %rbp
	movq	%rsi, %rdx
	movq	(%rdi), %rax
	movq	8(%rdi), %rsi
	movq	%rax, %rdi
	popq	%rbp
	jmp	__ZN52_$LT$std..path..Path$u20$as$u20$core..fmt..Debug$GT$3fmt17h5a4ef7f530b18c9dE
	.cfi_endproc

	.section	__TEXT,__literal16,16byte_literals
	.p2align	4
LCPI9_0:
	.quad	1
	.quad	18
	.section	__TEXT,__text,regular,pure_instructions
	.p2align	4, 0x90
__ZN42_$LT$$RF$T$u20$as$u20$core..fmt..Debug$GT$3fmt17h8a256b97fd7abe75E:
	.cfi_startproc
	pushq	%rbp
	.cfi_def_cfa_offset 16
	.cfi_offset %rbp, -16
	movq	%rsp, %rbp
	.cfi_def_cfa_register %rbp
	pushq	%r15
	pushq	%r14
	pushq	%rbx
	subq	$24, %rsp
	.cfi_offset %rbx, -40
	.cfi_offset %r14, -32
	.cfi_offset %r15, -24
	movq	%rsi, %rbx
	movq	(%rdi), %rax
	movq	(%rax), %r15
	vmovups	(%rsi), %xmm0
	vmovaps	%xmm0, -48(%rbp)
	movl	48(%rsi), %r14d
	movq	%rsi, %rdi
	callq	__ZN4core3fmt9Formatter9alternate17hd5ca56d2d01a1343E
	movl	48(%rbx), %ecx
	testb	%al, %al
	je	LBB9_3
	orl	$8, %ecx
	movl	%ecx, 48(%rbx)
	cmpq	$1, (%rbx)
	je	LBB9_3
	vmovaps	LCPI9_0(%rip), %xmm0
	vmovups	%xmm0, (%rbx)
LBB9_3:
	orl	$4, %ecx
	movl	%ecx, 48(%rbx)
	movq	%r15, -32(%rbp)
	leaq	-32(%rbp), %rdi
	movq	%rbx, %rsi
	callq	__ZN4core3fmt3num55_$LT$impl$u20$core..fmt..LowerHex$u20$for$u20$usize$GT$3fmt17hbf7dc8c1d7fa021dE
	vmovaps	-48(%rbp), %xmm0
	vmovups	%xmm0, (%rbx)
	movl	%r14d, 48(%rbx)
	addq	$24, %rsp
	popq	%rbx
	popq	%r14
	popq	%r15
	popq	%rbp
	retq
	.cfi_endproc

	.p2align	4, 0x90
__ZN42_$LT$$RF$T$u20$as$u20$core..fmt..Debug$GT$3fmt17h9a5861a3aebb66bfE:
	.cfi_startproc
	pushq	%rbp
	.cfi_def_cfa_offset 16
	.cfi_offset %rbp, -16
	movq	%rsp, %rbp
	.cfi_def_cfa_register %rbp
	pushq	%r15
	pushq	%r14
	pushq	%r13
	pushq	%r12
	pushq	%rbx
	subq	$24, %rsp
	.cfi_offset %rbx, -56
	.cfi_offset %r12, -48
	.cfi_offset %r13, -40
	.cfi_offset %r14, -32
	.cfi_offset %r15, -24
	movq	(%rdi), %rax
	movq	(%rax), %rbx
	movq	8(%rax), %r13
	leaq	-64(%rbp), %rdi
	callq	__ZN4core3fmt9Formatter10debug_list17hd054f0986422feb9E
	testq	%r13, %r13
	je	LBB10_3
	addq	%r13, %r13
	leaq	l___unnamed_6(%rip), %r14
	leaq	-64(%rbp), %r15
	leaq	-48(%rbp), %r12
	.p2align	4, 0x90
LBB10_2:
	movq	%rbx, -48(%rbp)
	movq	%r15, %rdi
	movq	%r12, %rsi
	movq	%r14, %rdx
	callq	__ZN4core3fmt8builders9DebugList5entry17h5c0dec54538196dfE
	addq	$2, %rbx
	addq	$-2, %r13
	jne	LBB10_2
LBB10_3:
	leaq	-64(%rbp), %rdi
	callq	__ZN4core3fmt8builders9DebugList6finish17h3635bd6af9b1c5a6E
	addq	$24, %rsp
	popq	%rbx
	popq	%r12
	popq	%r13
	popq	%r14
	popq	%r15
	popq	%rbp
	retq
	.cfi_endproc

	.p2align	4, 0x90
__ZN42_$LT$$RF$T$u20$as$u20$core..fmt..Debug$GT$3fmt17hb3c5707f9b4a3966E:
	.cfi_startproc
	pushq	%rbp
	.cfi_def_cfa_offset 16
	.cfi_offset %rbp, -16
	movq	%rsp, %rbp
	.cfi_def_cfa_register %rbp
	pushq	%r14
	pushq	%rbx
	.cfi_offset %rbx, -32
	.cfi_offset %r14, -24
	movq	%rsi, %rbx
	movq	(%rdi), %r14
	movq	%rsi, %rdi
	callq	__ZN4core3fmt9Formatter15debug_lower_hex17h8530fbaeba13f4d9E
	testb	%al, %al
	je	LBB11_1
	movq	%r14, %rdi
	movq	%rbx, %rsi
	popq	%rbx
	popq	%r14
	popq	%rbp
	jmp	__ZN4core3fmt3num52_$LT$impl$u20$core..fmt..LowerHex$u20$for$u20$u8$GT$3fmt17h7701faa643a10c55E
LBB11_1:
	movq	%rbx, %rdi
	callq	__ZN4core3fmt9Formatter15debug_upper_hex17hf8fda15ec43a1e68E
	movq	%r14, %rdi
	movq	%rbx, %rsi
	testb	%al, %al
	je	LBB11_4
	popq	%rbx
	popq	%r14
	popq	%rbp
	jmp	__ZN4core3fmt3num52_$LT$impl$u20$core..fmt..UpperHex$u20$for$u20$u8$GT$3fmt17ha797e73a900719d8E
LBB11_4:
	popq	%rbx
	popq	%r14
	popq	%rbp
	jmp	__ZN4core3fmt3num3imp51_$LT$impl$u20$core..fmt..Display$u20$for$u20$u8$GT$3fmt17h0e89df114e53d66dE
	.cfi_endproc

	.p2align	4, 0x90
__ZN42_$LT$$RF$T$u20$as$u20$core..fmt..Debug$GT$3fmt17hd5ddeb245f1c856eE:
	.cfi_startproc
	pushq	%rbp
	.cfi_def_cfa_offset 16
	.cfi_offset %rbp, -16
	movq	%rsp, %rbp
	.cfi_def_cfa_register %rbp
	movq	(%rdi), %rdi
	popq	%rbp
	jmp	__ZN69_$LT$backtrace..symbolize..SymbolName$u20$as$u20$core..fmt..Debug$GT$3fmt17h84f4398f7fcd35a9E
	.cfi_endproc

	.p2align	4, 0x90
__ZN44_$LT$$RF$T$u20$as$u20$core..fmt..Display$GT$3fmt17h6a3600aa621abbf2E:
	.cfi_startproc
	pushq	%rbp
	.cfi_def_cfa_offset 16
	.cfi_offset %rbp, -16
	movq	%rsp, %rbp
	.cfi_def_cfa_register %rbp
	movq	%rsi, %rdx
	movq	(%rdi), %rax
	movq	8(%rdi), %rsi
	movq	%rax, %rdi
	popq	%rbp
	jmp	__ZN42_$LT$str$u20$as$u20$core..fmt..Display$GT$3fmt17hd4dee1c1c4ccf892E
	.cfi_endproc

	.p2align	4, 0x90
__ZN4core3fmt3num50_$LT$impl$u20$core..fmt..Debug$u20$for$u20$u32$GT$3fmt17hcbab27cd39434e2dE:
	.cfi_startproc
	pushq	%rbp
	.cfi_def_cfa_offset 16
	.cfi_offset %rbp, -16
	movq	%rsp, %rbp
	.cfi_def_cfa_register %rbp
	pushq	%r14
	pushq	%rbx
	.cfi_offset %rbx, -32
	.cfi_offset %r14, -24
	movq	%rsi, %rbx
	movq	%rdi, %r14
	movq	%rsi, %rdi
	callq	__ZN4core3fmt9Formatter15debug_lower_hex17h8530fbaeba13f4d9E
	testb	%al, %al
	je	LBB14_1
	movq	%r14, %rdi
	movq	%rbx, %rsi
	popq	%rbx
	popq	%r14
	popq	%rbp
	jmp	__ZN4core3fmt3num53_$LT$impl$u20$core..fmt..LowerHex$u20$for$u20$u32$GT$3fmt17h6f8627d2574097eeE
LBB14_1:
	movq	%rbx, %rdi
	callq	__ZN4core3fmt9Formatter15debug_upper_hex17hf8fda15ec43a1e68E
	movq	%r14, %rdi
	movq	%rbx, %rsi
	testb	%al, %al
	je	LBB14_4
	popq	%rbx
	popq	%r14
	popq	%rbp
	jmp	__ZN4core3fmt3num53_$LT$impl$u20$core..fmt..UpperHex$u20$for$u20$u32$GT$3fmt17hfea5795b8018329eE
LBB14_4:
	popq	%rbx
	popq	%r14
	popq	%rbp
	jmp	__ZN4core3fmt3num3imp52_$LT$impl$u20$core..fmt..Display$u20$for$u20$u32$GT$3fmt17h8cb3163b2d7e102aE
	.cfi_endproc

	.p2align	4, 0x90
__ZN4core3ops8function6FnOnce40call_once$u7b$$u7b$vtable.shim$u7d$$u7d$17h15600df7e45e0d92E:
	.cfi_startproc
	pushq	%rbp
	.cfi_def_cfa_offset 16
	.cfi_offset %rbp, -16
	movq	%rsp, %rbp
	.cfi_def_cfa_register %rbp
	callq	__ZN9backtrace7capture9Backtrace6create28_$u7b$$u7b$closure$u7d$$u7d$17hbe9924e3e3e9b8e1E
	movb	$1, %al
	popq	%rbp
	retq
	.cfi_endproc

	.p2align	4, 0x90
__ZN4core3ops8function6FnOnce40call_once$u7b$$u7b$vtable.shim$u7d$$u7d$17h2a2ff316783a097eE:
	.cfi_startproc
	pushq	%rbp
	.cfi_def_cfa_offset 16
	.cfi_offset %rbp, -16
	movq	%rsp, %rbp
	.cfi_def_cfa_register %rbp
	subq	$16, %rsp
	movq	(%rdi), %rax
	movq	%rax, -8(%rbp)
	leaq	-8(%rbp), %rdi
	callq	__ZN3std4sync4once4Once9call_once28_$u7b$$u7b$closure$u7d$$u7d$17h00ebf77fb4f1c23eE
	addq	$16, %rsp
	popq	%rbp
	retq
	.cfi_endproc

	.p2align	4, 0x90
__ZN4core3ops8function6FnOnce40call_once$u7b$$u7b$vtable.shim$u7d$$u7d$17h3d5a8c27a1e1e7c4E:
Lfunc_begin1:
	.cfi_startproc
	.cfi_personality 155, _rust_eh_personality
	.cfi_lsda 16, Lexception1
	pushq	%rbp
	.cfi_def_cfa_offset 16
	.cfi_offset %rbp, -16
	movq	%rsp, %rbp
	.cfi_def_cfa_register %rbp
	pushq	%r14
	pushq	%rbx
	subq	$32, %rsp
	.cfi_offset %rbx, -32
	.cfi_offset %r14, -24
	movq	%rdi, %rbx
	movq	%rsi, -48(%rbp)
	leaq	-40(%rbp), %rax
	vmovups	(%rdx), %xmm0
	vmovups	%xmm0, -40(%rbp)
	movq	16(%rdx), %rcx
	movq	%rcx, -24(%rbp)
Ltmp6:
	movq	%rax, %rdx
	callq	__ZN66_$LT$backtrace..capture..Backtrace$u20$as$u20$core..fmt..Debug$GT$3fmt28_$u7b$$u7b$closure$u7d$$u7d$17h4871bfb6c74b4e49E
Ltmp7:
	movl	%eax, %r14d
	movq	%rbx, %rdi
	callq	__ZN4core3ptr13drop_in_place17h6732b94b54f34c61E
	movl	%r14d, %eax
	addq	$32, %rsp
	popq	%rbx
	popq	%r14
	popq	%rbp
	retq
LBB17_2:
Ltmp8:
	movq	%rax, %r14
	movq	%rbx, %rdi
	callq	__ZN4core3ptr13drop_in_place17h6732b94b54f34c61E
	movq	%r14, %rdi
	callq	__Unwind_Resume
	ud2
Lfunc_end1:
	.cfi_endproc
	.section	__TEXT,__gcc_except_tab
	.p2align	2
GCC_except_table17:
Lexception1:
	.byte	255
	.byte	255
	.byte	1
	.uleb128 Lcst_end1-Lcst_begin1
Lcst_begin1:
	.uleb128 Ltmp6-Lfunc_begin1
	.uleb128 Ltmp7-Ltmp6
	.uleb128 Ltmp8-Lfunc_begin1
	.byte	0
	.uleb128 Ltmp7-Lfunc_begin1
	.uleb128 Lfunc_end1-Ltmp7
	.byte	0
	.byte	0
Lcst_end1:
	.p2align	2

	.section	__TEXT,__text,regular,pure_instructions
	.p2align	4, 0x90
__ZN4core3ops8function6FnOnce40call_once$u7b$$u7b$vtable.shim$u7d$$u7d$17he8676c2577e510acE:
	.cfi_startproc
	pushq	%rbp
	.cfi_def_cfa_offset 16
	.cfi_offset %rbp, -16
	movq	%rsp, %rbp
	.cfi_def_cfa_register %rbp
	subq	$16, %rsp
	movq	(%rdi), %rax
	movq	%rax, -8(%rbp)
	leaq	-8(%rbp), %rdi
	callq	__ZN9backtrace7capture9Backtrace7resolve28_$u7b$$u7b$closure$u7d$$u7d$17he6728e66984c5263E
	addq	$16, %rsp
	popq	%rbp
	retq
	.cfi_endproc

	.p2align	4, 0x90
__ZN4core3ptr13drop_in_place17h074fa2ee831a770dE:
	.cfi_startproc
	testb	%dil, %dil
	jne	LBB19_2
	retq
LBB19_2:
	pushq	%rbp
	.cfi_def_cfa_offset 16
	.cfi_offset %rbp, -16
	movq	%rsp, %rbp
	.cfi_def_cfa_register %rbp
	leaq	l___unnamed_7(%rip), %rdi
	leaq	l___unnamed_8(%rip), %rdx
	movl	$42, %esi
	callq	__ZN3std9panicking11begin_panic17h0efdf420d7579923E
	.cfi_endproc

	.p2align	4, 0x90
__ZN4core3ptr13drop_in_place17h085869a74394be88E:
	.cfi_startproc
	pushq	%rbp
	.cfi_def_cfa_offset 16
	.cfi_offset %rbp, -16
	movq	%rsp, %rbp
	.cfi_def_cfa_register %rbp
	popq	%rbp
	retq
	.cfi_endproc

	.p2align	4, 0x90
__ZN4core3ptr13drop_in_place17h0c1b3cdf076c6764E:
Lfunc_begin2:
	.cfi_startproc
	.cfi_personality 155, _rust_eh_personality
	.cfi_lsda 16, Lexception2
	pushq	%rbp
	.cfi_def_cfa_offset 16
	.cfi_offset %rbp, -16
	movq	%rsp, %rbp
	.cfi_def_cfa_register %rbp
	pushq	%r15
	pushq	%r14
	pushq	%r12
	pushq	%rbx
	.cfi_offset %rbx, -48
	.cfi_offset %r12, -40
	.cfi_offset %r14, -32
	.cfi_offset %r15, -24
	movq	%rdi, %r15
	movq	(%rdi), %rdi
	imulq	$360, 16(%r15), %rbx
	.p2align	4, 0x90
LBB21_5:
	testq	%rbx, %rbx
	je	LBB21_6
	leaq	360(%rdi), %r12
	addq	$8, %rdi
	addq	$-360, %rbx
Ltmp9:
	callq	__ZN4core3ptr13drop_in_place17he70a5d954569ca52E
Ltmp10:
	movq	%r12, %rdi
	jmp	LBB21_5
LBB21_6:
	movq	8(%r15), %rax
	testq	%rax, %rax
	je	LBB21_9
	movq	(%r15), %rdi
	testq	%rdi, %rdi
	je	LBB21_9
	imulq	$360, %rax, %rsi
	testq	%rsi, %rsi
	je	LBB21_9
	movl	$8, %edx
	popq	%rbx
	popq	%r12
	popq	%r14
	popq	%r15
	popq	%rbp
	jmp	___rust_dealloc
LBB21_9:
	popq	%rbx
	popq	%r12
	popq	%r14
	popq	%r15
	popq	%rbp
	retq
LBB21_1:
Ltmp11:
	movq	%rax, %r14
	testq	%rbx, %rbx
	je	LBB21_11
	.p2align	4, 0x90
LBB21_2:
Ltmp12:
	movq	%r12, %rdi
	callq	__ZN4core3ptr13drop_in_place17h11b676c408901ab3E
Ltmp13:
	addq	$360, %r12
	addq	$-360, %rbx
	jne	LBB21_2
	jmp	LBB21_11
LBB21_10:
Ltmp14:
	movq	%rax, %r14
LBB21_11:
	movq	(%r15), %rdi
	movq	8(%r15), %rsi
	callq	__ZN4core3ptr13drop_in_place17h6dd2186c5bfd2e0dE
	movq	%r14, %rdi
	callq	__Unwind_Resume
	ud2
Lfunc_end2:
	.cfi_endproc
	.section	__TEXT,__gcc_except_tab
	.p2align	2
GCC_except_table21:
Lexception2:
	.byte	255
	.byte	255
	.byte	1
	.uleb128 Lcst_end2-Lcst_begin2
Lcst_begin2:
	.uleb128 Ltmp9-Lfunc_begin2
	.uleb128 Ltmp10-Ltmp9
	.uleb128 Ltmp11-Lfunc_begin2
	.byte	0
	.uleb128 Ltmp12-Lfunc_begin2
	.uleb128 Ltmp13-Ltmp12
	.uleb128 Ltmp14-Lfunc_begin2
	.byte	0
	.uleb128 Ltmp13-Lfunc_begin2
	.uleb128 Lfunc_end2-Ltmp13
	.byte	0
	.byte	0
Lcst_end2:
	.p2align	2

	.section	__TEXT,__text,regular,pure_instructions
	.p2align	4, 0x90
__ZN4core3ptr13drop_in_place17h0c3111cb9c708836E:
	.cfi_startproc
	pushq	%rbp
	.cfi_def_cfa_offset 16
	.cfi_offset %rbp, -16
	movq	%rsp, %rbp
	.cfi_def_cfa_register %rbp
	pushq	%r14
	pushq	%rbx
	.cfi_offset %rbx, -32
	.cfi_offset %r14, -24
	movq	%rdi, %rbx
	cmpb	$0, 8(%rdi)
	jne	LBB22_3
	movq	(%rbx), %r14
	callq	__ZN3std9panicking9panicking17h6f800ddc6c0d9b77E
	testb	%al, %al
	je	LBB22_3
	movb	$1, 8(%r14)
LBB22_3:
	movq	(%rbx), %rax
	movq	(%rax), %rdi
	popq	%rbx
	popq	%r14
	popq	%rbp
	jmp	_pthread_mutex_unlock
	.cfi_endproc

	.p2align	4, 0x90
__ZN4core3ptr13drop_in_place17h0e83452ac3b6379aE:
	.cfi_startproc
	pushq	%rbp
	.cfi_def_cfa_offset 16
	.cfi_offset %rbp, -16
	movq	%rsp, %rbp
	.cfi_def_cfa_register %rbp
	pushq	%r15
	pushq	%r14
	pushq	%rbx
	pushq	%rax
	.cfi_offset %rbx, -40
	.cfi_offset %r14, -32
	.cfi_offset %r15, -24
	movq	%rdi, %r14
	movq	(%rdi), %rbx
	movq	16(%rdi), %rax
	testq	%rax, %rax
	je	LBB23_7
	leaq	(%rax,%rax,2), %rax
	leaq	(%rbx,%rax,8), %r15
	movq	(%rbx), %rdi
	testq	%rdi, %rdi
	jne	LBB23_3
	.p2align	4, 0x90
LBB23_5:
	addq	$24, %rbx
	cmpq	%r15, %rbx
	je	LBB23_6
LBB23_2:
	movq	(%rbx), %rdi
	testq	%rdi, %rdi
	je	LBB23_5
LBB23_3:
	movq	8(%rbx), %rsi
	testq	%rsi, %rsi
	je	LBB23_5
	movl	$1, %edx
	callq	___rust_dealloc
	addq	$24, %rbx
	cmpq	%r15, %rbx
	jne	LBB23_2
LBB23_6:
	movq	(%r14), %rbx
LBB23_7:
	movq	8(%r14), %rax
	testq	%rax, %rax
	je	LBB23_10
	testq	%rbx, %rbx
	je	LBB23_10
	shlq	$3, %rax
	leaq	(%rax,%rax,2), %rsi
	testq	%rsi, %rsi
	je	LBB23_10
	movl	$8, %edx
	movq	%rbx, %rdi
	addq	$8, %rsp
	popq	%rbx
	popq	%r14
	popq	%r15
	popq	%rbp
	jmp	___rust_dealloc
LBB23_10:
	addq	$8, %rsp
	popq	%rbx
	popq	%r14
	popq	%r15
	popq	%rbp
	retq
	.cfi_endproc

	.p2align	4, 0x90
__ZN4core3ptr13drop_in_place17h0fa07c2fcb5955dfE:
	.cfi_startproc
	pushq	%rbp
	.cfi_def_cfa_offset 16
	.cfi_offset %rbp, -16
	movq	%rsp, %rbp
	.cfi_def_cfa_register %rbp
	pushq	%r15
	pushq	%r14
	pushq	%r12
	pushq	%rbx
	.cfi_offset %rbx, -48
	.cfi_offset %r12, -40
	.cfi_offset %r14, -32
	.cfi_offset %r15, -24
	cmpq	$0, (%rdi)
	je	LBB24_1
LBB24_12:
	popq	%rbx
	popq	%r12
	popq	%r14
	popq	%r15
	popq	%rbp
	retq
LBB24_1:
	movq	%rdi, %r14
	movq	16(%rdi), %rax
	testq	%rax, %rax
	je	LBB24_11
	movq	8(%r14), %r12
	shlq	$3, %rax
	leaq	(%rax,%rax,8), %r15
	xorl	%ebx, %ebx
	cmpq	$0, 8(%r12,%rbx)
	je	LBB24_4
	.p2align	4, 0x90
LBB24_8:
	addq	$72, %rbx
	cmpq	%rbx, %r15
	je	LBB24_9
LBB24_3:
	cmpq	$0, 8(%r12,%rbx)
	jne	LBB24_8
LBB24_4:
	movq	48(%r12,%rbx), %rax
	shlq	$3, %rax
	leaq	(%rax,%rax,4), %rsi
	testq	%rsi, %rsi
	je	LBB24_6
	movq	40(%r12,%rbx), %rdi
	movl	$8, %edx
	callq	___rust_dealloc
LBB24_6:
	movq	64(%r12,%rbx), %rsi
	shlq	$5, %rsi
	je	LBB24_8
	movq	56(%r12,%rbx), %rdi
	movl	$8, %edx
	callq	___rust_dealloc
	addq	$72, %rbx
	cmpq	%rbx, %r15
	jne	LBB24_3
LBB24_9:
	movq	16(%r14), %rax
	shlq	$3, %rax
	leaq	(%rax,%rax,8), %rsi
	testq	%rsi, %rsi
	je	LBB24_11
	movq	8(%r14), %rdi
	movl	$8, %edx
	callq	___rust_dealloc
LBB24_11:
	movq	32(%r14), %rax
	shlq	$3, %rax
	leaq	(%rax,%rax,2), %rsi
	testq	%rsi, %rsi
	je	LBB24_12
	movq	24(%r14), %rdi
	movl	$8, %edx
	popq	%rbx
	popq	%r12
	popq	%r14
	popq	%r15
	popq	%rbp
	jmp	___rust_dealloc
	.cfi_endproc

	.p2align	4, 0x90
__ZN4core3ptr13drop_in_place17h11b676c408901ab3E:
	.cfi_startproc
	pushq	%rbp
	.cfi_def_cfa_offset 16
	.cfi_offset %rbp, -16
	movq	%rsp, %rbp
	.cfi_def_cfa_register %rbp
	addq	$8, %rdi
	popq	%rbp
	jmp	__ZN4core3ptr13drop_in_place17he70a5d954569ca52E
	.cfi_endproc

	.p2align	4, 0x90
__ZN4core3ptr13drop_in_place17h184f76faa08fc22fE:
Lfunc_begin3:
	.cfi_startproc
	.cfi_personality 155, _rust_eh_personality
	.cfi_lsda 16, Lexception3
	pushq	%rbp
	.cfi_def_cfa_offset 16
	.cfi_offset %rbp, -16
	movq	%rsp, %rbp
	.cfi_def_cfa_register %rbp
	pushq	%r14
	pushq	%rbx
	.cfi_offset %rbx, -32
	.cfi_offset %r14, -24
	movb	8(%rdi), %cl
	cmpb	$2, %cl
	jne	LBB26_1
	popq	%rbx
	popq	%r14
	popq	%rbp
	retq
LBB26_1:
	movq	%rdi, %rbx
	movq	__ZN9backtrace4lock9LOCK_HELD7__getit5__KEY17hbe3ad33137d596beE.0.0@TLVP(%rip), %rdi
	callq	*(%rdi)
	movb	(%rax), %al
	testb	%al, %al
	je	LBB26_4
	cmpb	$2, %al
	je	LBB26_3
	movq	__ZN9backtrace4lock9LOCK_HELD7__getit5__KEY17hbe3ad33137d596beE.0.0@TLVP(%rip), %rdi
	callq	*(%rdi)
	movb	$0, (%rax)
	testb	%cl, %cl
	jne	LBB26_9
	movq	(%rbx), %r14
	callq	__ZN3std9panicking9panicking17h6f800ddc6c0d9b77E
	testb	%al, %al
	je	LBB26_9
	movb	$1, 8(%r14)
LBB26_9:
	movq	(%rbx), %rax
	movq	(%rax), %rdi
	popq	%rbx
	popq	%r14
	popq	%rbp
	jmp	_pthread_mutex_unlock
LBB26_3:
	movq	__ZN9backtrace4lock9LOCK_HELD7__getit5__KEY17hbe3ad33137d596beE.0.0@TLVP(%rip), %rdi
	callq	*(%rdi)
	movb	$0, (%rax)
LBB26_4:
Ltmp15:
	leaq	l___unnamed_9(%rip), %rdi
	leaq	l___unnamed_10(%rip), %rdx
	movl	$28, %esi
	callq	__ZN3std9panicking11begin_panic17h0efdf420d7579923E
Ltmp16:
	ud2
LBB26_11:
Ltmp17:
	movq	%rax, %r14
	movq	%rbx, %rdi
	callq	__ZN4core3ptr13drop_in_place17h1aacd6a3d074c82dE
	movq	%r14, %rdi
	callq	__Unwind_Resume
	ud2
Lfunc_end3:
	.cfi_endproc
	.section	__TEXT,__gcc_except_tab
	.p2align	2
GCC_except_table26:
Lexception3:
	.byte	255
	.byte	255
	.byte	1
	.uleb128 Lcst_end3-Lcst_begin3
Lcst_begin3:
	.uleb128 Lfunc_begin3-Lfunc_begin3
	.uleb128 Ltmp15-Lfunc_begin3
	.byte	0
	.byte	0
	.uleb128 Ltmp15-Lfunc_begin3
	.uleb128 Ltmp16-Ltmp15
	.uleb128 Ltmp17-Lfunc_begin3
	.byte	0
	.uleb128 Ltmp16-Lfunc_begin3
	.uleb128 Lfunc_end3-Ltmp16
	.byte	0
	.byte	0
Lcst_end3:
	.p2align	2

	.section	__TEXT,__text,regular,pure_instructions
	.p2align	4, 0x90
__ZN4core3ptr13drop_in_place17h1aacd6a3d074c82dE:
	.cfi_startproc
	pushq	%rbp
	.cfi_def_cfa_offset 16
	.cfi_offset %rbp, -16
	movq	%rsp, %rbp
	.cfi_def_cfa_register %rbp
	pushq	%r14
	pushq	%rbx
	.cfi_offset %rbx, -32
	.cfi_offset %r14, -24
	movb	8(%rdi), %al
	cmpb	$2, %al
	jne	LBB27_1
	popq	%rbx
	popq	%r14
	popq	%rbp
	retq
LBB27_1:
	movq	%rdi, %rbx
	testb	%al, %al
	jne	LBB27_4
	movq	(%rbx), %r14
	callq	__ZN3std9panicking9panicking17h6f800ddc6c0d9b77E
	testb	%al, %al
	je	LBB27_4
	movb	$1, 8(%r14)
LBB27_4:
	movq	(%rbx), %rax
	movq	(%rax), %rdi
	popq	%rbx
	popq	%r14
	popq	%rbp
	jmp	_pthread_mutex_unlock
	.cfi_endproc

	.p2align	4, 0x90
__ZN4core3ptr13drop_in_place17h1c5458058cd45dcdE:
	.cfi_startproc
	pushq	%rbp
	.cfi_def_cfa_offset 16
	.cfi_offset %rbp, -16
	movq	%rsp, %rbp
	.cfi_def_cfa_register %rbp
	pushq	%r15
	pushq	%r14
	pushq	%r12
	pushq	%rbx
	.cfi_offset %rbx, -48
	.cfi_offset %r12, -40
	.cfi_offset %r14, -32
	.cfi_offset %r15, -24
	movq	%rdi, %r14
	movq	(%rdi), %r12
	movq	16(%rdi), %rax
	testq	%rax, %rax
	je	LBB28_9
	shlq	$3, %rax
	leaq	(%rax,%rax,8), %r15
	xorl	%ebx, %ebx
	cmpq	$0, 8(%r12,%rbx)
	je	LBB28_3
	.p2align	4, 0x90
LBB28_7:
	addq	$72, %rbx
	cmpq	%rbx, %r15
	je	LBB28_8
LBB28_2:
	cmpq	$0, 8(%r12,%rbx)
	jne	LBB28_7
LBB28_3:
	movq	48(%r12,%rbx), %rax
	shlq	$3, %rax
	leaq	(%rax,%rax,4), %rsi
	testq	%rsi, %rsi
	je	LBB28_5
	movq	40(%r12,%rbx), %rdi
	movl	$8, %edx
	callq	___rust_dealloc
LBB28_5:
	movq	64(%r12,%rbx), %rsi
	shlq	$5, %rsi
	je	LBB28_7
	movq	56(%r12,%rbx), %rdi
	movl	$8, %edx
	callq	___rust_dealloc
	addq	$72, %rbx
	cmpq	%rbx, %r15
	jne	LBB28_2
LBB28_8:
	movq	(%r14), %r12
LBB28_9:
	movq	8(%r14), %rax
	testq	%rax, %rax
	je	LBB28_12
	testq	%r12, %r12
	je	LBB28_12
	shlq	$3, %rax
	leaq	(%rax,%rax,8), %rsi
	testq	%rsi, %rsi
	je	LBB28_12
	movl	$8, %edx
	movq	%r12, %rdi
	popq	%rbx
	popq	%r12
	popq	%r14
	popq	%r15
	popq	%rbp
	jmp	___rust_dealloc
LBB28_12:
	popq	%rbx
	popq	%r12
	popq	%r14
	popq	%r15
	popq	%rbp
	retq
	.cfi_endproc

	.p2align	4, 0x90
__ZN4core3ptr13drop_in_place17h23e194c91d674712E:
	.cfi_startproc
	pushq	%rbp
	.cfi_def_cfa_offset 16
	.cfi_offset %rbp, -16
	movq	%rsp, %rbp
	.cfi_def_cfa_register %rbp
	movq	%rdi, %rax
	movq	(%rdi), %rdi
	testq	%rdi, %rdi
	je	LBB29_2
	movq	8(%rax), %rsi
	testq	%rsi, %rsi
	je	LBB29_2
	movl	$1, %edx
	popq	%rbp
	jmp	___rust_dealloc
LBB29_2:
	popq	%rbp
	retq
	.cfi_endproc

	.p2align	4, 0x90
__ZN4core3ptr13drop_in_place17h26ac1d8fc1039292E:
	.cfi_startproc
	pushq	%rbp
	.cfi_def_cfa_offset 16
	.cfi_offset %rbp, -16
	movq	%rsp, %rbp
	.cfi_def_cfa_register %rbp
	movq	8(%rdi), %rax
	shlq	$3, %rax
	leaq	(%rax,%rax,4), %rsi
	testq	%rsi, %rsi
	je	LBB30_1
	movq	(%rdi), %rdi
	movl	$8, %edx
	popq	%rbp
	jmp	___rust_dealloc
LBB30_1:
	popq	%rbp
	retq
	.cfi_endproc

	.p2align	4, 0x90
__ZN4core3ptr13drop_in_place17h2e470b45d7cd5be4E:
	.cfi_startproc
	pushq	%rbp
	.cfi_def_cfa_offset 16
	.cfi_offset %rbp, -16
	movq	%rsp, %rbp
	.cfi_def_cfa_register %rbp
	cmpq	$2, (%rdi)
	jne	LBB31_2
	popq	%rbp
	retq
LBB31_2:
	popq	%rbp
	jmp	__ZN4core3ptr13drop_in_place17had6320d7919b814fE
	.cfi_endproc

	.p2align	4, 0x90
__ZN4core3ptr13drop_in_place17h39876fe4cca18d92E:
	.cfi_startproc
	pushq	%rbp
	.cfi_def_cfa_offset 16
	.cfi_offset %rbp, -16
	movq	%rsp, %rbp
	.cfi_def_cfa_register %rbp
	movq	8(%rdi), %rsi
	testq	%rsi, %rsi
	je	LBB32_3
	movq	(%rdi), %rdi
	testq	%rdi, %rdi
	je	LBB32_3
	shlq	$4, %rsi
	je	LBB32_3
	movl	$8, %edx
	popq	%rbp
	jmp	___rust_dealloc
LBB32_3:
	popq	%rbp
	retq
	.cfi_endproc

	.p2align	4, 0x90
__ZN4core3ptr13drop_in_place17h46806cc015b61d0dE:
	.cfi_startproc
	pushq	%rbp
	.cfi_def_cfa_offset 16
	.cfi_offset %rbp, -16
	movq	%rsp, %rbp
	.cfi_def_cfa_register %rbp
	pushq	%r15
	pushq	%r14
	pushq	%r13
	pushq	%r12
	pushq	%rbx
	pushq	%rax
	.cfi_offset %rbx, -56
	.cfi_offset %r12, -48
	.cfi_offset %r13, -40
	.cfi_offset %r14, -32
	.cfi_offset %r15, -24
	movq	(%rdi), %r15
	movq	16(%rdi), %r12
	testq	%r12, %r12
	je	LBB33_19
	movq	%rdi, -48(%rbp)
	shlq	$6, %r12
	addq	%r15, %r12
	jmp	LBB33_2
	.p2align	4, 0x90
LBB33_17:
	cmpq	%r12, %r15
	je	LBB33_18
LBB33_2:
	movq	%r15, %r13
	addq	$64, %r15
	movq	40(%r13), %rbx
	testq	%rbx, %rbx
	je	LBB33_17
	movq	56(%r13), %rax
	testq	%rax, %rax
	je	LBB33_13
	leaq	(%rax,%rax,8), %rax
	leaq	(%rbx,%rax,8), %r14
	movq	(%rbx), %rdi
	testq	%rdi, %rdi
	jne	LBB33_6
	jmp	LBB33_8
	.p2align	4, 0x90
LBB33_11:
	addq	$72, %rbx
	cmpq	%r14, %rbx
	je	LBB33_12
	movq	(%rbx), %rdi
	testq	%rdi, %rdi
	je	LBB33_8
LBB33_6:
	movq	8(%rbx), %rsi
	testq	%rsi, %rsi
	je	LBB33_8
	movl	$1, %edx
	callq	___rust_dealloc
LBB33_8:
	movq	40(%rbx), %rdi
	testq	%rdi, %rdi
	je	LBB33_11
	movq	48(%rbx), %rsi
	testq	%rsi, %rsi
	je	LBB33_11
	movl	$1, %edx
	callq	___rust_dealloc
	jmp	LBB33_11
	.p2align	4, 0x90
LBB33_12:
	movq	40(%r13), %rbx
LBB33_13:
	movq	48(%r13), %rax
	testq	%rax, %rax
	je	LBB33_17
	testq	%rbx, %rbx
	je	LBB33_17
	shlq	$3, %rax
	leaq	(%rax,%rax,8), %rsi
	testq	%rsi, %rsi
	je	LBB33_17
	movl	$8, %edx
	movq	%rbx, %rdi
	callq	___rust_dealloc
	jmp	LBB33_17
LBB33_18:
	movq	-48(%rbp), %rdi
	movq	(%rdi), %r15
LBB33_19:
	movq	8(%rdi), %rsi
	testq	%rsi, %rsi
	je	LBB33_22
	testq	%r15, %r15
	je	LBB33_22
	shlq	$6, %rsi
	je	LBB33_22
	movl	$8, %edx
	movq	%r15, %rdi
	addq	$8, %rsp
	popq	%rbx
	popq	%r12
	popq	%r13
	popq	%r14
	popq	%r15
	popq	%rbp
	jmp	___rust_dealloc
LBB33_22:
	addq	$8, %rsp
	popq	%rbx
	popq	%r12
	popq	%r13
	popq	%r14
	popq	%r15
	popq	%rbp
	retq
	.cfi_endproc

	.p2align	4, 0x90
__ZN4core3ptr13drop_in_place17h48c7505ddb02b7b4E:
	.cfi_startproc
	pushq	%rbp
	.cfi_def_cfa_offset 16
	.cfi_offset %rbp, -16
	movq	%rsp, %rbp
	.cfi_def_cfa_register %rbp
	testq	%rsi, %rsi
	je	LBB34_3
	testq	%rdi, %rdi
	je	LBB34_3
	movq	%rsi, %rax
	shlq	$9, %rax
	leaq	(%rax,%rsi,8), %rsi
	testq	%rsi, %rsi
	je	LBB34_3
	movl	$8, %edx
	popq	%rbp
	jmp	___rust_dealloc
LBB34_3:
	popq	%rbp
	retq
	.cfi_endproc

	.p2align	4, 0x90
__ZN4core3ptr13drop_in_place17h4af84792ed184ebbE:
Lfunc_begin4:
	.cfi_startproc
	.cfi_personality 155, _rust_eh_personality
	.cfi_lsda 16, Lexception4
	pushq	%rbp
	.cfi_def_cfa_offset 16
	.cfi_offset %rbp, -16
	movq	%rsp, %rbp
	.cfi_def_cfa_register %rbp
	pushq	%r15
	pushq	%r14
	pushq	%r13
	pushq	%r12
	pushq	%rbx
	pushq	%rax
	.cfi_offset %rbx, -56
	.cfi_offset %r12, -48
	.cfi_offset %r13, -40
	.cfi_offset %r14, -32
	.cfi_offset %r15, -24
	movq	%rdi, %r14
	movq	(%rdi), %r13
	movq	16(%rdi), %rax
	testq	%rax, %rax
	je	LBB35_11
	movq	%rax, %rcx
	shlq	$9, %rcx
	leaq	(%rcx,%rax,8), %r12
	xorl	%ebx, %ebx
	jmp	LBB35_2
	.p2align	4, 0x90
LBB35_9:
	addq	$520, %rbx
	cmpq	%rbx, %r12
	je	LBB35_10
LBB35_2:
	leaq	(%rbx,%r13), %rdi
	addq	$64, %rdi
Ltmp18:
	callq	__ZN4core3ptr13drop_in_place17hc0a31acb0ea738e4E
Ltmp19:
	cmpq	$46, 352(%r13,%rbx)
	jne	LBB35_4
	cmpq	$2, 432(%r13,%rbx)
	jne	LBB35_6
LBB35_7:
	cmpq	$2, 472(%r13,%rbx)
	je	LBB35_9
	jmp	LBB35_8
	.p2align	4, 0x90
LBB35_4:
	leaq	(%rbx,%r13), %rdi
	addq	$184, %rdi
	callq	__ZN4core3ptr13drop_in_place17hcc84b8222e65b7e0E
	cmpq	$2, 432(%r13,%rbx)
	je	LBB35_7
LBB35_6:
	leaq	(%rbx,%r13), %rdi
	addq	$432, %rdi
	callq	__ZN4core3ptr13drop_in_place17had6320d7919b814fE
	cmpq	$2, 472(%r13,%rbx)
	je	LBB35_9
LBB35_8:
	leaq	(%rbx,%r13), %rdi
	addq	$472, %rdi
	callq	__ZN4core3ptr13drop_in_place17h0fa07c2fcb5955dfE
	jmp	LBB35_9
LBB35_10:
	movq	(%r14), %r13
LBB35_11:
	movq	8(%r14), %rax
	testq	%rax, %rax
	je	LBB35_14
	testq	%r13, %r13
	je	LBB35_14
	movq	%rax, %rcx
	shlq	$9, %rcx
	leaq	(%rcx,%rax,8), %rsi
	testq	%rsi, %rsi
	je	LBB35_14
	movl	$8, %edx
	movq	%r13, %rdi
	addq	$8, %rsp
	popq	%rbx
	popq	%r12
	popq	%r13
	popq	%r14
	popq	%r15
	popq	%rbp
	jmp	___rust_dealloc
LBB35_14:
	addq	$8, %rsp
	popq	%rbx
	popq	%r12
	popq	%r13
	popq	%r14
	popq	%r15
	popq	%rbp
	retq
LBB35_17:
Ltmp20:
	movq	%rax, %r15
	leaq	(%rbx,%r13), %rdi
	addq	$184, %rdi
	callq	__ZN4core3ptr13drop_in_place17h9aa47ed20e479d95E
	leaq	(%rbx,%r13), %rdi
	addq	$432, %rdi
	callq	__ZN4core3ptr13drop_in_place17h2e470b45d7cd5be4E
	leaq	(%rbx,%r13), %rdi
	addq	$472, %rdi
	callq	__ZN4core3ptr13drop_in_place17h79efe69fb5197c0aE
	leaq	-520(%r12), %rax
	cmpq	%rbx, %rax
	je	LBB35_20
	subq	%rbx, %r12
	addq	$-520, %r12
	addq	%r13, %rbx
	addq	$520, %rbx
	.p2align	4, 0x90
LBB35_15:
Ltmp21:
	movq	%rbx, %rdi
	callq	__ZN4core3ptr13drop_in_place17h98959ee6d453aed9E
Ltmp22:
	addq	$520, %rbx
	addq	$-520, %r12
	jne	LBB35_15
	jmp	LBB35_20
LBB35_19:
Ltmp23:
	movq	%rax, %r15
LBB35_20:
	movq	(%r14), %rdi
	movq	8(%r14), %rsi
	callq	__ZN4core3ptr13drop_in_place17h48c7505ddb02b7b4E
	movq	%r15, %rdi
	callq	__Unwind_Resume
	ud2
Lfunc_end4:
	.cfi_endproc
	.section	__TEXT,__gcc_except_tab
	.p2align	2
GCC_except_table35:
Lexception4:
	.byte	255
	.byte	255
	.byte	1
	.uleb128 Lcst_end4-Lcst_begin4
Lcst_begin4:
	.uleb128 Ltmp18-Lfunc_begin4
	.uleb128 Ltmp19-Ltmp18
	.uleb128 Ltmp20-Lfunc_begin4
	.byte	0
	.uleb128 Ltmp21-Lfunc_begin4
	.uleb128 Ltmp22-Ltmp21
	.uleb128 Ltmp23-Lfunc_begin4
	.byte	0
	.uleb128 Ltmp22-Lfunc_begin4
	.uleb128 Lfunc_end4-Ltmp22
	.byte	0
	.byte	0
Lcst_end4:
	.p2align	2

	.section	__TEXT,__text,regular,pure_instructions
	.p2align	4, 0x90
__ZN4core3ptr13drop_in_place17h4fdfb3f4869ba05bE:
	.cfi_startproc
	pushq	%rbp
	.cfi_def_cfa_offset 16
	.cfi_offset %rbp, -16
	movq	%rsp, %rbp
	.cfi_def_cfa_register %rbp
	movq	8(%rdi), %rsi
	testq	%rsi, %rsi
	je	LBB36_3
	movq	(%rdi), %rdi
	testq	%rdi, %rdi
	je	LBB36_3
	shlq	$5, %rsi
	je	LBB36_3
	movl	$8, %edx
	popq	%rbp
	jmp	___rust_dealloc
LBB36_3:
	popq	%rbp
	retq
	.cfi_endproc

	.p2align	4, 0x90
__ZN4core3ptr13drop_in_place17h550c3ebbeb2b5b47E:
	.cfi_startproc
	pushq	%rbp
	.cfi_def_cfa_offset 16
	.cfi_offset %rbp, -16
	movq	%rsp, %rbp
	.cfi_def_cfa_register %rbp
	movq	(%rdi), %rax
	movq	8(%rax), %rcx
	incq	%rcx
	je	LBB37_2
	movq	%rcx, 8(%rax)
	popq	%rbp
	retq
LBB37_2:
	leaq	_str.0(%rip), %rdi
	leaq	l___unnamed_11(%rip), %rdx
	movl	$28, %esi
	callq	__ZN4core9panicking5panic17h736ee47a631475c0E
	.cfi_endproc

	.p2align	4, 0x90
__ZN4core3ptr13drop_in_place17h5a95af13d4ff97d6E:
	.cfi_startproc
	pushq	%rbp
	.cfi_def_cfa_offset 16
	.cfi_offset %rbp, -16
	movq	%rsp, %rbp
	.cfi_def_cfa_register %rbp
	movq	1048(%rdi), %rax
	lock		decq	(%rax)
	jne	LBB38_1
	addq	$1048, %rdi
	##MEMBARRIER
	popq	%rbp
	jmp	__ZN5alloc4sync12Arc$LT$T$GT$9drop_slow17h278ec8a3a9711ddbE
LBB38_1:
	popq	%rbp
	retq
	.cfi_endproc

	.p2align	4, 0x90
__ZN4core3ptr13drop_in_place17h6732b94b54f34c61E:
Lfunc_begin5:
	.cfi_startproc
	.cfi_personality 155, _rust_eh_personality
	.cfi_lsda 16, Lexception5
	pushq	%rbp
	.cfi_def_cfa_offset 16
	.cfi_offset %rbp, -16
	movq	%rsp, %rbp
	.cfi_def_cfa_register %rbp
	pushq	%r15
	pushq	%r14
	pushq	%rbx
	pushq	%rax
	.cfi_offset %rbx, -40
	.cfi_offset %r14, -32
	.cfi_offset %r15, -24
	movq	%rdi, %rbx
	cmpq	$0, (%rdi)
	je	LBB39_1
	cmpb	$2, 8(%rbx)
	jb	LBB39_10
	movq	16(%rbx), %r15
	movq	(%r15), %rdi
	movq	8(%r15), %rax
Ltmp24:
	callq	*(%rax)
Ltmp25:
	movq	8(%r15), %rax
	movq	8(%rax), %rsi
	testq	%rsi, %rsi
	je	LBB39_9
	movq	(%r15), %rdi
	movq	16(%rax), %rdx
	callq	___rust_dealloc
LBB39_9:
	movq	16(%rbx), %rdi
	movl	$24, %esi
	movl	$8, %edx
	jmp	LBB39_4
LBB39_1:
	movq	8(%rbx), %rdi
	testq	%rdi, %rdi
	je	LBB39_10
	movq	16(%rbx), %rsi
	testq	%rsi, %rsi
	je	LBB39_10
	movl	$1, %edx
LBB39_4:
	addq	$8, %rsp
	popq	%rbx
	popq	%r14
	popq	%r15
	popq	%rbp
	jmp	___rust_dealloc
LBB39_10:
	addq	$8, %rsp
	popq	%rbx
	popq	%r14
	popq	%r15
	popq	%rbp
	retq
LBB39_11:
Ltmp26:
	movq	%rax, %r14
	movq	(%r15), %rdi
	movq	8(%r15), %rsi
	callq	__ZN5alloc5alloc8box_free17hf2199ce188876ce6E
	movq	16(%rbx), %rdi
	callq	__ZN5alloc5alloc8box_free17h64311117596d43d7E
	movq	%r14, %rdi
	callq	__Unwind_Resume
	ud2
Lfunc_end5:
	.cfi_endproc
	.section	__TEXT,__gcc_except_tab
	.p2align	2
GCC_except_table39:
Lexception5:
	.byte	255
	.byte	255
	.byte	1
	.uleb128 Lcst_end5-Lcst_begin5
Lcst_begin5:
	.uleb128 Ltmp24-Lfunc_begin5
	.uleb128 Ltmp25-Ltmp24
	.uleb128 Ltmp26-Lfunc_begin5
	.byte	0
	.uleb128 Ltmp25-Lfunc_begin5
	.uleb128 Lfunc_end5-Ltmp25
	.byte	0
	.byte	0
Lcst_end5:
	.p2align	2

	.section	__TEXT,__text,regular,pure_instructions
	.p2align	4, 0x90
__ZN4core3ptr13drop_in_place17h6dd2186c5bfd2e0dE:
	.cfi_startproc
	pushq	%rbp
	.cfi_def_cfa_offset 16
	.cfi_offset %rbp, -16
	movq	%rsp, %rbp
	.cfi_def_cfa_register %rbp
	testq	%rsi, %rsi
	je	LBB40_3
	testq	%rdi, %rdi
	je	LBB40_3
	imulq	$360, %rsi, %rsi
	testq	%rsi, %rsi
	je	LBB40_3
	movl	$8, %edx
	popq	%rbp
	jmp	___rust_dealloc
LBB40_3:
	popq	%rbp
	retq
	.cfi_endproc

	.p2align	4, 0x90
__ZN4core3ptr13drop_in_place17h706fee59d2460015E:
	.cfi_startproc
	pushq	%rbp
	.cfi_def_cfa_offset 16
	.cfi_offset %rbp, -16
	movq	%rsp, %rbp
	.cfi_def_cfa_register %rbp
	movq	8(%rdi), %rax
	testq	%rax, %rax
	je	LBB41_3
	movq	(%rdi), %rdi
	testq	%rdi, %rdi
	je	LBB41_3
	shlq	$3, %rax
	leaq	(%rax,%rax,2), %rsi
	testq	%rsi, %rsi
	je	LBB41_3
	movl	$8, %edx
	popq	%rbp
	jmp	___rust_dealloc
LBB41_3:
	popq	%rbp
	retq
	.cfi_endproc

	.p2align	4, 0x90
__ZN4core3ptr13drop_in_place17h731eee458560584aE:
	.cfi_startproc
	pushq	%rbp
	.cfi_def_cfa_offset 16
	.cfi_offset %rbp, -16
	movq	%rsp, %rbp
	.cfi_def_cfa_register %rbp
	movq	(%rdi), %rdi
	movl	$64, %esi
	movl	$8, %edx
	popq	%rbp
	jmp	___rust_dealloc
	.cfi_endproc

	.p2align	4, 0x90
__ZN4core3ptr13drop_in_place17h7602d6c639aca58aE:
	.cfi_startproc
	pushq	%rbp
	.cfi_def_cfa_offset 16
	.cfi_offset %rbp, -16
	movq	%rsp, %rbp
	.cfi_def_cfa_register %rbp
	movq	%rdi, %rax
	movq	(%rdi), %rdi
	testq	%rdi, %rdi
	je	LBB43_2
	movq	8(%rax), %rsi
	testq	%rsi, %rsi
	je	LBB43_2
	movl	$1, %edx
	popq	%rbp
	jmp	___rust_dealloc
LBB43_2:
	popq	%rbp
	retq
	.cfi_endproc

	.p2align	4, 0x90
__ZN4core3ptr13drop_in_place17h76553f0bdd499426E:
Lfunc_begin6:
	.cfi_startproc
	.cfi_personality 155, _rust_eh_personality
	.cfi_lsda 16, Lexception6
	pushq	%rbp
	.cfi_def_cfa_offset 16
	.cfi_offset %rbp, -16
	movq	%rsp, %rbp
	.cfi_def_cfa_register %rbp
	pushq	%r15
	pushq	%r14
	pushq	%rbx
	pushq	%rax
	.cfi_offset %rbx, -40
	.cfi_offset %r14, -32
	.cfi_offset %r15, -24
	movq	%rdi, %rbx
	cmpq	$0, (%rdi)
	je	LBB44_1
	cmpb	$2, 8(%rbx)
	jb	LBB44_8
	movq	16(%rbx), %r15
	movq	(%r15), %rdi
	movq	8(%r15), %rax
Ltmp27:
	callq	*(%rax)
Ltmp28:
	movq	8(%r15), %rax
	movq	8(%rax), %rsi
	testq	%rsi, %rsi
	je	LBB44_7
	movq	(%r15), %rdi
	movq	16(%rax), %rdx
	callq	___rust_dealloc
LBB44_7:
	movq	16(%rbx), %rdi
	movl	$24, %esi
	movl	$8, %edx
	addq	$8, %rsp
	popq	%rbx
	popq	%r14
	popq	%r15
	popq	%rbp
	jmp	___rust_dealloc
LBB44_1:
	movq	1056(%rbx), %rax
	lock		decq	(%rax)
	jne	LBB44_8
	addq	$1056, %rbx
	##MEMBARRIER
	movq	%rbx, %rdi
	addq	$8, %rsp
	popq	%rbx
	popq	%r14
	popq	%r15
	popq	%rbp
	jmp	__ZN5alloc4sync12Arc$LT$T$GT$9drop_slow17h278ec8a3a9711ddbE
LBB44_8:
	addq	$8, %rsp
	popq	%rbx
	popq	%r14
	popq	%r15
	popq	%rbp
	retq
LBB44_9:
Ltmp29:
	movq	%rax, %r14
	movq	(%r15), %rdi
	movq	8(%r15), %rsi
	callq	__ZN5alloc5alloc8box_free17hf2199ce188876ce6E
	movq	16(%rbx), %rdi
	callq	__ZN5alloc5alloc8box_free17h64311117596d43d7E
	movq	%r14, %rdi
	callq	__Unwind_Resume
	ud2
Lfunc_end6:
	.cfi_endproc
	.section	__TEXT,__gcc_except_tab
	.p2align	2
GCC_except_table44:
Lexception6:
	.byte	255
	.byte	255
	.byte	1
	.uleb128 Lcst_end6-Lcst_begin6
Lcst_begin6:
	.uleb128 Ltmp27-Lfunc_begin6
	.uleb128 Ltmp28-Ltmp27
	.uleb128 Ltmp29-Lfunc_begin6
	.byte	0
	.uleb128 Ltmp28-Lfunc_begin6
	.uleb128 Lfunc_end6-Ltmp28
	.byte	0
	.byte	0
Lcst_end6:
	.p2align	2

	.section	__TEXT,__text,regular,pure_instructions
	.p2align	4, 0x90
__ZN4core3ptr13drop_in_place17h777684d5c0c44d01E:
	.cfi_startproc
	pushq	%rbp
	.cfi_def_cfa_offset 16
	.cfi_offset %rbp, -16
	movq	%rsp, %rbp
	.cfi_def_cfa_register %rbp
	movq	8(%rdi), %rsi
	testq	%rsi, %rsi
	je	LBB45_3
	movq	(%rdi), %rdi
	testq	%rdi, %rdi
	je	LBB45_3
	shlq	$6, %rsi
	je	LBB45_3
	movl	$8, %edx
	popq	%rbp
	jmp	___rust_dealloc
LBB45_3:
	popq	%rbp
	retq
	.cfi_endproc

	.p2align	4, 0x90
__ZN4core3ptr13drop_in_place17h79efe69fb5197c0aE:
	.cfi_startproc
	pushq	%rbp
	.cfi_def_cfa_offset 16
	.cfi_offset %rbp, -16
	movq	%rsp, %rbp
	.cfi_def_cfa_register %rbp
	cmpq	$2, (%rdi)
	jne	LBB46_2
	popq	%rbp
	retq
LBB46_2:
	popq	%rbp
	jmp	__ZN4core3ptr13drop_in_place17h0fa07c2fcb5955dfE
	.cfi_endproc

	.p2align	4, 0x90
__ZN4core3ptr13drop_in_place17h866fe0875bbd9165E:
	.cfi_startproc
	pushq	%rbp
	.cfi_def_cfa_offset 16
	.cfi_offset %rbp, -16
	movq	%rsp, %rbp
	.cfi_def_cfa_register %rbp
	popq	%rbp
	jmp	__ZN4core3ptr13drop_in_place17h46806cc015b61d0dE
	.cfi_endproc

	.p2align	4, 0x90
__ZN4core3ptr13drop_in_place17h88348a2b749bde25E:
	.cfi_startproc
	pushq	%rbp
	.cfi_def_cfa_offset 16
	.cfi_offset %rbp, -16
	movq	%rsp, %rbp
	.cfi_def_cfa_register %rbp
	pushq	%r15
	pushq	%r14
	pushq	%r12
	pushq	%rbx
	.cfi_offset %rbx, -48
	.cfi_offset %r12, -40
	.cfi_offset %r14, -32
	.cfi_offset %r15, -24
	movq	%rdi, %r14
	movq	(%rdi), %r12
	movq	16(%rdi), %r15
	testq	%r15, %r15
	je	LBB48_6
	shlq	$5, %r15
	xorl	%ebx, %ebx
	jmp	LBB48_2
	.p2align	4, 0x90
LBB48_4:
	addq	$32, %rbx
	cmpq	%rbx, %r15
	je	LBB48_5
LBB48_2:
	movq	24(%r12,%rbx), %rax
	shlq	$3, %rax
	leaq	(%rax,%rax,2), %rsi
	testq	%rsi, %rsi
	je	LBB48_4
	movq	16(%r12,%rbx), %rdi
	movl	$8, %edx
	callq	___rust_dealloc
	jmp	LBB48_4
LBB48_5:
	movq	(%r14), %r12
LBB48_6:
	movq	8(%r14), %rsi
	testq	%rsi, %rsi
	je	LBB48_9
	testq	%r12, %r12
	je	LBB48_9
	shlq	$5, %rsi
	je	LBB48_9
	movl	$8, %edx
	movq	%r12, %rdi
	popq	%rbx
	popq	%r12
	popq	%r14
	popq	%r15
	popq	%rbp
	jmp	___rust_dealloc
LBB48_9:
	popq	%rbx
	popq	%r12
	popq	%r14
	popq	%r15
	popq	%rbp
	retq
	.cfi_endproc

	.p2align	4, 0x90
__ZN4core3ptr13drop_in_place17h8de0d70767139c72E:
	.cfi_startproc
	pushq	%rbp
	.cfi_def_cfa_offset 16
	.cfi_offset %rbp, -16
	movq	%rsp, %rbp
	.cfi_def_cfa_register %rbp
	movq	24(%rdi), %rax
	shlq	$3, %rax
	leaq	(%rax,%rax,2), %rsi
	testq	%rsi, %rsi
	je	LBB49_1
	movq	16(%rdi), %rdi
	movl	$8, %edx
	popq	%rbp
	jmp	___rust_dealloc
LBB49_1:
	popq	%rbp
	retq
	.cfi_endproc

	.p2align	4, 0x90
__ZN4core3ptr13drop_in_place17h90946695b29b7d75E:
	.cfi_startproc
	pushq	%rbp
	.cfi_def_cfa_offset 16
	.cfi_offset %rbp, -16
	movq	%rsp, %rbp
	.cfi_def_cfa_register %rbp
	cmpq	$0, (%rdi)
	je	LBB50_3
	movq	%rdi, %rax
	movq	8(%rdi), %rdi
	testq	%rdi, %rdi
	je	LBB50_3
	movq	16(%rax), %rsi
	testq	%rsi, %rsi
	je	LBB50_3
	movl	$1, %edx
	popq	%rbp
	jmp	___rust_dealloc
LBB50_3:
	popq	%rbp
	retq
	.cfi_endproc

	.p2align	4, 0x90
__ZN4core3ptr13drop_in_place17h961b282e683cbe46E:
	.cfi_startproc
	pushq	%rbp
	.cfi_def_cfa_offset 16
	.cfi_offset %rbp, -16
	movq	%rsp, %rbp
	.cfi_def_cfa_register %rbp
	pushq	%rbx
	pushq	%rax
	.cfi_offset %rbx, -24
	movq	%rdi, %rbx
	movq	(%rdi), %rdi
	testq	%rdi, %rdi
	je	LBB51_6
	movq	8(%rbx), %rsi
	testq	%rsi, %rsi
	je	LBB51_3
	movl	$1, %edx
	callq	___rust_dealloc
LBB51_3:
	movq	32(%rbx), %rsi
	testq	%rsi, %rsi
	je	LBB51_6
	movq	24(%rbx), %rdi
	testq	%rdi, %rdi
	je	LBB51_6
	shlq	$4, %rsi
	je	LBB51_6
	movl	$8, %edx
	addq	$8, %rsp
	popq	%rbx
	popq	%rbp
	jmp	___rust_dealloc
LBB51_6:
	addq	$8, %rsp
	popq	%rbx
	popq	%rbp
	retq
	.cfi_endproc

	.p2align	4, 0x90
__ZN4core3ptr13drop_in_place17h97be6280e1c2c464E:
	.cfi_startproc
	pushq	%rbp
	.cfi_def_cfa_offset 16
	.cfi_offset %rbp, -16
	movq	%rsp, %rbp
	.cfi_def_cfa_register %rbp
	pushq	%r15
	pushq	%r14
	pushq	%rbx
	pushq	%rax
	.cfi_offset %rbx, -40
	.cfi_offset %r14, -32
	.cfi_offset %r15, -24
	movq	8(%rdi), %rax
	testq	%rax, %rax
	je	LBB52_7
	movq	%rdi, %r14
	movq	(%rdi), %rbx
	leaq	(%rax,%rax,2), %rax
	leaq	(%rbx,%rax,8), %r15
	movq	(%rbx), %rdi
	testq	%rdi, %rdi
	jne	LBB52_3
	.p2align	4, 0x90
LBB52_5:
	addq	$24, %rbx
	cmpq	%r15, %rbx
	je	LBB52_6
LBB52_2:
	movq	(%rbx), %rdi
	testq	%rdi, %rdi
	je	LBB52_5
LBB52_3:
	movq	8(%rbx), %rsi
	testq	%rsi, %rsi
	je	LBB52_5
	movl	$1, %edx
	callq	___rust_dealloc
	addq	$24, %rbx
	cmpq	%r15, %rbx
	jne	LBB52_2
LBB52_6:
	movq	8(%r14), %rax
	shlq	$3, %rax
	leaq	(%rax,%rax,2), %rsi
	testq	%rsi, %rsi
	je	LBB52_7
	movq	(%r14), %rdi
	movl	$8, %edx
	addq	$8, %rsp
	popq	%rbx
	popq	%r14
	popq	%r15
	popq	%rbp
	jmp	___rust_dealloc
LBB52_7:
	addq	$8, %rsp
	popq	%rbx
	popq	%r14
	popq	%r15
	popq	%rbp
	retq
	.cfi_endproc

	.p2align	4, 0x90
__ZN4core3ptr13drop_in_place17h98959ee6d453aed9E:
Lfunc_begin7:
	.cfi_startproc
	.cfi_personality 155, _rust_eh_personality
	.cfi_lsda 16, Lexception7
	pushq	%rbp
	.cfi_def_cfa_offset 16
	.cfi_offset %rbp, -16
	movq	%rsp, %rbp
	.cfi_def_cfa_register %rbp
	pushq	%r14
	pushq	%rbx
	.cfi_offset %rbx, -32
	.cfi_offset %r14, -24
	movq	%rdi, %rbx
	addq	$64, %rdi
Ltmp30:
	callq	__ZN4core3ptr13drop_in_place17hc0a31acb0ea738e4E
Ltmp31:
	cmpq	$46, 352(%rbx)
	jne	LBB53_2
	cmpq	$2, 432(%rbx)
	jne	LBB53_4
LBB53_5:
	cmpq	$2, 472(%rbx)
	jne	LBB53_6
LBB53_8:
	popq	%rbx
	popq	%r14
	popq	%rbp
	retq
LBB53_2:
	leaq	184(%rbx), %rdi
	callq	__ZN4core3ptr13drop_in_place17hcc84b8222e65b7e0E
	cmpq	$2, 432(%rbx)
	je	LBB53_5
LBB53_4:
	leaq	432(%rbx), %rdi
	callq	__ZN4core3ptr13drop_in_place17had6320d7919b814fE
	cmpq	$2, 472(%rbx)
	je	LBB53_8
LBB53_6:
	addq	$472, %rbx
	movq	%rbx, %rdi
	popq	%rbx
	popq	%r14
	popq	%rbp
	jmp	__ZN4core3ptr13drop_in_place17h0fa07c2fcb5955dfE
LBB53_7:
Ltmp32:
	movq	%rax, %r14
	leaq	184(%rbx), %rdi
	callq	__ZN4core3ptr13drop_in_place17h9aa47ed20e479d95E
	leaq	432(%rbx), %rdi
	callq	__ZN4core3ptr13drop_in_place17h2e470b45d7cd5be4E
	addq	$472, %rbx
	movq	%rbx, %rdi
	callq	__ZN4core3ptr13drop_in_place17h79efe69fb5197c0aE
	movq	%r14, %rdi
	callq	__Unwind_Resume
	ud2
Lfunc_end7:
	.cfi_endproc
	.section	__TEXT,__gcc_except_tab
	.p2align	2
GCC_except_table53:
Lexception7:
	.byte	255
	.byte	255
	.byte	1
	.uleb128 Lcst_end7-Lcst_begin7
Lcst_begin7:
	.uleb128 Ltmp30-Lfunc_begin7
	.uleb128 Ltmp31-Ltmp30
	.uleb128 Ltmp32-Lfunc_begin7
	.byte	0
	.uleb128 Ltmp31-Lfunc_begin7
	.uleb128 Lfunc_end7-Ltmp31
	.byte	0
	.byte	0
Lcst_end7:
	.p2align	2

	.section	__TEXT,__text,regular,pure_instructions
	.p2align	4, 0x90
__ZN4core3ptr13drop_in_place17h9aa47ed20e479d95E:
	.cfi_startproc
	pushq	%rbp
	.cfi_def_cfa_offset 16
	.cfi_offset %rbp, -16
	movq	%rsp, %rbp
	.cfi_def_cfa_register %rbp
	cmpq	$46, 168(%rdi)
	jne	LBB54_2
	popq	%rbp
	retq
LBB54_2:
	popq	%rbp
	jmp	__ZN4core3ptr13drop_in_place17hcc84b8222e65b7e0E
	.cfi_endproc

	.p2align	4, 0x90
__ZN4core3ptr13drop_in_place17h9afa4ea334d876f8E:
	.cfi_startproc
	pushq	%rbp
	.cfi_def_cfa_offset 16
	.cfi_offset %rbp, -16
	movq	%rsp, %rbp
	.cfi_def_cfa_register %rbp
	pushq	%r15
	pushq	%r14
	pushq	%rbx
	pushq	%rax
	.cfi_offset %rbx, -40
	.cfi_offset %r14, -32
	.cfi_offset %r15, -24
	movq	%rdi, %r14
	movq	(%rdi), %rbx
	movq	16(%rdi), %rax
	testq	%rax, %rax
	je	LBB55_7
	leaq	(%rax,%rax,2), %rax
	leaq	(%rbx,%rax,8), %r15
	movq	(%rbx), %rdi
	testq	%rdi, %rdi
	jne	LBB55_3
	.p2align	4, 0x90
LBB55_5:
	addq	$24, %rbx
	cmpq	%r15, %rbx
	je	LBB55_6
LBB55_2:
	movq	(%rbx), %rdi
	testq	%rdi, %rdi
	je	LBB55_5
LBB55_3:
	movq	8(%rbx), %rsi
	testq	%rsi, %rsi
	je	LBB55_5
	movl	$1, %edx
	callq	___rust_dealloc
	addq	$24, %rbx
	cmpq	%r15, %rbx
	jne	LBB55_2
LBB55_6:
	movq	(%r14), %rbx
LBB55_7:
	movq	8(%r14), %rax
	testq	%rax, %rax
	je	LBB55_10
	testq	%rbx, %rbx
	je	LBB55_10
	shlq	$3, %rax
	leaq	(%rax,%rax,2), %rsi
	testq	%rsi, %rsi
	je	LBB55_10
	movl	$8, %edx
	movq	%rbx, %rdi
	addq	$8, %rsp
	popq	%rbx
	popq	%r14
	popq	%r15
	popq	%rbp
	jmp	___rust_dealloc
LBB55_10:
	addq	$8, %rsp
	popq	%rbx
	popq	%r14
	popq	%r15
	popq	%rbp
	retq
	.cfi_endproc

	.p2align	4, 0x90
__ZN4core3ptr13drop_in_place17ha0734eae9d556f07E:
	.cfi_startproc
	pushq	%rbp
	.cfi_def_cfa_offset 16
	.cfi_offset %rbp, -16
	movq	%rsp, %rbp
	.cfi_def_cfa_register %rbp
	popq	%rbp
	jmp	__ZN70_$LT$std..sys..unix..fd..FileDesc$u20$as$u20$core..ops..drop..Drop$GT$4drop17hf5fce2bf4d9f8deaE
	.cfi_endproc

	.p2align	4, 0x90
__ZN4core3ptr13drop_in_place17ha2985862f83b0fa1E:
	.cfi_startproc
	pushq	%rbp
	.cfi_def_cfa_offset 16
	.cfi_offset %rbp, -16
	movq	%rsp, %rbp
	.cfi_def_cfa_register %rbp
	pushq	%rbx
	pushq	%rax
	.cfi_offset %rbx, -24
	movq	%rdi, %rbx
	movq	(%rdi), %rdi
	testq	%rdi, %rdi
	je	LBB57_3
	movq	8(%rbx), %rsi
	testq	%rsi, %rsi
	je	LBB57_3
	movl	$1, %edx
	callq	___rust_dealloc
LBB57_3:
	movq	40(%rbx), %rdi
	testq	%rdi, %rdi
	je	LBB57_5
	movq	48(%rbx), %rsi
	testq	%rsi, %rsi
	je	LBB57_5
	movl	$1, %edx
	addq	$8, %rsp
	popq	%rbx
	popq	%rbp
	jmp	___rust_dealloc
LBB57_5:
	addq	$8, %rsp
	popq	%rbx
	popq	%rbp
	retq
	.cfi_endproc

	.p2align	4, 0x90
__ZN4core3ptr13drop_in_place17had6320d7919b814fE:
	.cfi_startproc
	pushq	%rbp
	.cfi_def_cfa_offset 16
	.cfi_offset %rbp, -16
	movq	%rsp, %rbp
	.cfi_def_cfa_register %rbp
	pushq	%r15
	pushq	%r14
	pushq	%r12
	pushq	%rbx
	.cfi_offset %rbx, -48
	.cfi_offset %r12, -40
	.cfi_offset %r14, -32
	.cfi_offset %r15, -24
	cmpq	$0, (%rdi)
	je	LBB58_1
LBB58_15:
	popq	%rbx
	popq	%r12
	popq	%r14
	popq	%r15
	popq	%rbp
	retq
LBB58_1:
	movq	%rdi, %r14
	movq	16(%rdi), %rax
	testq	%rax, %rax
	je	LBB58_9
	movq	8(%r14), %rbx
	leaq	(%rax,%rax,2), %rax
	leaq	(%rbx,%rax,8), %r15
	movq	(%rbx), %rdi
	testq	%rdi, %rdi
	jne	LBB58_4
	.p2align	4, 0x90
LBB58_6:
	addq	$24, %rbx
	cmpq	%r15, %rbx
	je	LBB58_7
LBB58_3:
	movq	(%rbx), %rdi
	testq	%rdi, %rdi
	je	LBB58_6
LBB58_4:
	movq	8(%rbx), %rsi
	testq	%rsi, %rsi
	je	LBB58_6
	movl	$1, %edx
	callq	___rust_dealloc
	addq	$24, %rbx
	cmpq	%r15, %rbx
	jne	LBB58_3
LBB58_7:
	movq	16(%r14), %rax
	shlq	$3, %rax
	leaq	(%rax,%rax,2), %rsi
	testq	%rsi, %rsi
	je	LBB58_9
	movq	8(%r14), %rdi
	movl	$8, %edx
	callq	___rust_dealloc
LBB58_9:
	movq	32(%r14), %r15
	testq	%r15, %r15
	je	LBB58_15
	movq	24(%r14), %r12
	shlq	$5, %r15
	xorl	%ebx, %ebx
	jmp	LBB58_11
	.p2align	4, 0x90
LBB58_13:
	addq	$32, %rbx
	cmpq	%rbx, %r15
	je	LBB58_14
LBB58_11:
	movq	24(%r12,%rbx), %rax
	shlq	$3, %rax
	leaq	(%rax,%rax,2), %rsi
	testq	%rsi, %rsi
	je	LBB58_13
	movq	16(%r12,%rbx), %rdi
	movl	$8, %edx
	callq	___rust_dealloc
	jmp	LBB58_13
LBB58_14:
	movq	32(%r14), %rsi
	shlq	$5, %rsi
	je	LBB58_15
	movq	24(%r14), %rdi
	movl	$8, %edx
	popq	%rbx
	popq	%r12
	popq	%r14
	popq	%r15
	popq	%rbp
	jmp	___rust_dealloc
	.cfi_endproc

	.p2align	4, 0x90
__ZN4core3ptr13drop_in_place17haebc9175da50809aE:
	.cfi_startproc
	pushq	%rbp
	.cfi_def_cfa_offset 16
	.cfi_offset %rbp, -16
	movq	%rsp, %rbp
	.cfi_def_cfa_register %rbp
	pushq	%r15
	pushq	%r14
	pushq	%rbx
	pushq	%rax
	.cfi_offset %rbx, -40
	.cfi_offset %r14, -32
	.cfi_offset %r15, -24
	movq	40(%rdi), %rbx
	testq	%rbx, %rbx
	je	LBB59_14
	movq	%rdi, %r14
	movq	56(%rdi), %rax
	testq	%rax, %rax
	je	LBB59_11
	leaq	(%rax,%rax,8), %rax
	leaq	(%rbx,%rax,8), %r15
	movq	(%rbx), %rdi
	testq	%rdi, %rdi
	jne	LBB59_4
	jmp	LBB59_6
	.p2align	4, 0x90
LBB59_9:
	addq	$72, %rbx
	cmpq	%r15, %rbx
	je	LBB59_10
	movq	(%rbx), %rdi
	testq	%rdi, %rdi
	je	LBB59_6
LBB59_4:
	movq	8(%rbx), %rsi
	testq	%rsi, %rsi
	je	LBB59_6
	movl	$1, %edx
	callq	___rust_dealloc
LBB59_6:
	movq	40(%rbx), %rdi
	testq	%rdi, %rdi
	je	LBB59_9
	movq	48(%rbx), %rsi
	testq	%rsi, %rsi
	je	LBB59_9
	movl	$1, %edx
	callq	___rust_dealloc
	jmp	LBB59_9
LBB59_10:
	movq	40(%r14), %rbx
LBB59_11:
	movq	48(%r14), %rax
	testq	%rax, %rax
	je	LBB59_14
	testq	%rbx, %rbx
	je	LBB59_14
	shlq	$3, %rax
	leaq	(%rax,%rax,8), %rsi
	testq	%rsi, %rsi
	je	LBB59_14
	movl	$8, %edx
	movq	%rbx, %rdi
	addq	$8, %rsp
	popq	%rbx
	popq	%r14
	popq	%r15
	popq	%rbp
	jmp	___rust_dealloc
LBB59_14:
	addq	$8, %rsp
	popq	%rbx
	popq	%r14
	popq	%r15
	popq	%rbp
	retq
	.cfi_endproc

	.p2align	4, 0x90
__ZN4core3ptr13drop_in_place17hb30dcecf58c98f64E:
	.cfi_startproc
	pushq	%rbp
	.cfi_def_cfa_offset 16
	.cfi_offset %rbp, -16
	movq	%rsp, %rbp
	.cfi_def_cfa_register %rbp
	movq	8(%rdi), %rax
	testq	%rax, %rax
	je	LBB60_3
	movq	(%rdi), %rdi
	testq	%rdi, %rdi
	je	LBB60_3
	shlq	$3, %rax
	leaq	(%rax,%rax,4), %rsi
	testq	%rsi, %rsi
	je	LBB60_3
	movl	$8, %edx
	popq	%rbp
	jmp	___rust_dealloc
LBB60_3:
	popq	%rbp
	retq
	.cfi_endproc

	.p2align	4, 0x90
__ZN4core3ptr13drop_in_place17hb622f1cce53848f1E:
	.cfi_startproc
	pushq	%rbp
	.cfi_def_cfa_offset 16
	.cfi_offset %rbp, -16
	movq	%rsp, %rbp
	.cfi_def_cfa_register %rbp
	movq	40(%rdi), %rax
	testq	%rax, %rax
	je	LBB61_3
	movq	32(%rdi), %rdi
	testq	%rdi, %rdi
	je	LBB61_3
	shlq	$3, %rax
	leaq	(%rax,%rax,2), %rsi
	testq	%rsi, %rsi
	je	LBB61_3
	movl	$8, %edx
	popq	%rbp
	jmp	___rust_dealloc
LBB61_3:
	popq	%rbp
	retq
	.cfi_endproc

	.p2align	4, 0x90
__ZN4core3ptr13drop_in_place17hb7a425494db5e987E:
	.cfi_startproc
	pushq	%rbp
	.cfi_def_cfa_offset 16
	.cfi_offset %rbp, -16
	movq	%rsp, %rbp
	.cfi_def_cfa_register %rbp
	cmpl	$3, 72(%rdi)
	je	LBB62_3
	movq	32(%rdi), %rsi
	testq	%rsi, %rsi
	je	LBB62_3
	shlq	$3, %rsi
	testq	%rsi, %rsi
	je	LBB62_3
	movq	24(%rdi), %rdi
	movl	$8, %edx
	popq	%rbp
	jmp	___rust_dealloc
LBB62_3:
	popq	%rbp
	retq
	.cfi_endproc

	.p2align	4, 0x90
__ZN4core3ptr13drop_in_place17hb8696ee838a317e3E:
Lfunc_begin8:
	.cfi_startproc
	.cfi_personality 155, _rust_eh_personality
	.cfi_lsda 16, Lexception8
	pushq	%rbp
	.cfi_def_cfa_offset 16
	.cfi_offset %rbp, -16
	movq	%rsp, %rbp
	.cfi_def_cfa_register %rbp
	pushq	%r14
	pushq	%rbx
	.cfi_offset %rbx, -32
	.cfi_offset %r14, -24
	movq	%rdi, %rbx
	addq	$56, %rdi
Ltmp33:
	callq	__ZN4core3ptr13drop_in_place17hc0a31acb0ea738e4E
Ltmp34:
	cmpq	$46, 344(%rbx)
	jne	LBB63_4
	popq	%rbx
	popq	%r14
	popq	%rbp
	retq
LBB63_4:
	addq	$176, %rbx
	movq	%rbx, %rdi
	popq	%rbx
	popq	%r14
	popq	%rbp
	jmp	__ZN4core3ptr13drop_in_place17hcc84b8222e65b7e0E
LBB63_3:
Ltmp35:
	movq	%rax, %r14
	addq	$176, %rbx
	movq	%rbx, %rdi
	callq	__ZN4core3ptr13drop_in_place17h9aa47ed20e479d95E
	movq	%r14, %rdi
	callq	__Unwind_Resume
	ud2
Lfunc_end8:
	.cfi_endproc
	.section	__TEXT,__gcc_except_tab
	.p2align	2
GCC_except_table63:
Lexception8:
	.byte	255
	.byte	255
	.byte	1
	.uleb128 Lcst_end8-Lcst_begin8
Lcst_begin8:
	.uleb128 Ltmp33-Lfunc_begin8
	.uleb128 Ltmp34-Ltmp33
	.uleb128 Ltmp35-Lfunc_begin8
	.byte	0
	.uleb128 Ltmp34-Lfunc_begin8
	.uleb128 Lfunc_end8-Ltmp34
	.byte	0
	.byte	0
Lcst_end8:
	.p2align	2

	.section	__TEXT,__text,regular,pure_instructions
	.p2align	4, 0x90
__ZN4core3ptr13drop_in_place17hba514d88301f9898E:
	.cfi_startproc
	pushq	%rbp
	.cfi_def_cfa_offset 16
	.cfi_offset %rbp, -16
	movq	%rsp, %rbp
	.cfi_def_cfa_register %rbp
	movq	8(%rdi), %rsi
	testq	%rsi, %rsi
	je	LBB64_3
	movq	(%rdi), %rdi
	testq	%rdi, %rdi
	je	LBB64_3
	shlq	$2, %rsi
	testq	%rsi, %rsi
	je	LBB64_3
	movl	$2, %edx
	popq	%rbp
	jmp	___rust_dealloc
LBB64_3:
	popq	%rbp
	retq
	.cfi_endproc

	.p2align	4, 0x90
__ZN4core3ptr13drop_in_place17hbd61f20ce257c7c2E:
	.cfi_startproc
	pushq	%rbp
	.cfi_def_cfa_offset 16
	.cfi_offset %rbp, -16
	movq	%rsp, %rbp
	.cfi_def_cfa_register %rbp
	pushq	%r15
	pushq	%r14
	pushq	%rbx
	pushq	%rax
	.cfi_offset %rbx, -40
	.cfi_offset %r14, -32
	.cfi_offset %r15, -24
	movq	%rdi, %r14
	movq	(%rdi), %rbx
	movq	16(%rdi), %rax
	testq	%rax, %rax
	je	LBB65_11
	imulq	$56, %rax, %r15
	addq	%rbx, %r15
	movq	(%rbx), %rdi
	testq	%rdi, %rdi
	jne	LBB65_3
	jmp	LBB65_5
	.p2align	4, 0x90
LBB65_9:
	addq	$56, %rbx
	cmpq	%r15, %rbx
	je	LBB65_10
	movq	(%rbx), %rdi
	testq	%rdi, %rdi
	je	LBB65_5
LBB65_3:
	movq	8(%rbx), %rsi
	testq	%rsi, %rsi
	je	LBB65_5
	movl	$1, %edx
	callq	___rust_dealloc
LBB65_5:
	movq	32(%rbx), %rsi
	testq	%rsi, %rsi
	je	LBB65_9
	movq	24(%rbx), %rdi
	testq	%rdi, %rdi
	je	LBB65_9
	shlq	$4, %rsi
	je	LBB65_9
	movl	$8, %edx
	callq	___rust_dealloc
	jmp	LBB65_9
LBB65_10:
	movq	(%r14), %rbx
LBB65_11:
	movq	8(%r14), %rax
	testq	%rax, %rax
	je	LBB65_14
	testq	%rbx, %rbx
	je	LBB65_14
	imulq	$56, %rax, %rsi
	testq	%rsi, %rsi
	je	LBB65_14
	movl	$8, %edx
	movq	%rbx, %rdi
	addq	$8, %rsp
	popq	%rbx
	popq	%r14
	popq	%r15
	popq	%rbp
	jmp	___rust_dealloc
LBB65_14:
	addq	$8, %rsp
	popq	%rbx
	popq	%r14
	popq	%r15
	popq	%rbp
	retq
	.cfi_endproc

	.p2align	4, 0x90
__ZN4core3ptr13drop_in_place17hc0a31acb0ea738e4E:
	.cfi_startproc
	pushq	%rbp
	.cfi_def_cfa_offset 16
	.cfi_offset %rbp, -16
	movq	%rsp, %rbp
	.cfi_def_cfa_register %rbp
	pushq	%r15
	pushq	%r14
	pushq	%r12
	pushq	%rbx
	subq	$208, %rsp
	.cfi_offset %rbx, -48
	.cfi_offset %r12, -40
	.cfi_offset %r14, -32
	.cfi_offset %r15, -24
	movq	%rdi, %r14
	movq	(%rdi), %r12
	movq	16(%rdi), %rax
	testq	%rax, %rax
	je	LBB66_9
	imulq	$112, %rax, %r15
	xorl	%ebx, %ebx
	cmpq	$0, 8(%r12,%rbx)
	jne	LBB66_3
	.p2align	4, 0x90
LBB66_7:
	addq	$112, %rbx
	cmpq	%rbx, %r15
	je	LBB66_8
LBB66_2:
	cmpq	$0, 8(%r12,%rbx)
	je	LBB66_7
LBB66_3:
	movq	24(%r12,%rbx), %rsi
	testq	%rsi, %rsi
	je	LBB66_7
	movq	16(%r12,%rbx), %rdi
	testq	%rdi, %rdi
	je	LBB66_7
	shlq	$4, %rsi
	je	LBB66_7
	movl	$8, %edx
	callq	___rust_dealloc
	addq	$112, %rbx
	cmpq	%rbx, %r15
	jne	LBB66_2
LBB66_8:
	movq	(%r14), %r12
LBB66_9:
	movq	8(%r14), %rax
	testq	%rax, %rax
	je	LBB66_13
	testq	%r12, %r12
	je	LBB66_13
	imulq	$112, %rax, %rsi
	testq	%rsi, %rsi
	je	LBB66_13
	movl	$8, %edx
	movq	%r12, %rdi
	callq	___rust_dealloc
LBB66_13:
	movq	24(%r14), %rcx
	testq	%rcx, %rcx
	je	LBB66_14
	movq	32(%r14), %rdi
	movq	40(%r14), %rax
	movzwl	10(%rcx), %edx
	testq	%rdi, %rdi
	je	LBB66_16
	movb	$1, %bl
	movq	%rcx, %rsi
	.p2align	4, 0x90
LBB66_19:
	testb	$1, %bl
	je	LBB66_17
	cmpq	$1, %rdi
	setne	%bl
	movq	1336(%rcx), %rcx
	movq	1336(%rsi,%rdx,8), %rsi
	movzwl	10(%rsi), %edx
	decq	%rdi
	jne	LBB66_19
	jmp	LBB66_21
LBB66_14:
	movq	$0, -104(%rbp)
	movq	$0, -72(%rbp)
	xorl	%eax, %eax
	jmp	LBB66_22
LBB66_16:
	movq	%rcx, %rsi
LBB66_21:
	movq	$0, -112(%rbp)
	movq	%rcx, -104(%rbp)
	vxorps	%xmm0, %xmm0, %xmm0
	vmovups	%xmm0, -96(%rbp)
	movq	$0, -80(%rbp)
	movq	%rsi, -72(%rbp)
	movq	$0, -64(%rbp)
	movq	%rdx, -56(%rbp)
LBB66_22:
	movq	%rax, -48(%rbp)
	leaq	-232(%rbp), %rdi
	leaq	-112(%rbp), %rsi
	callq	__ZN112_$LT$alloc..collections..btree..map..IntoIter$LT$K$C$V$GT$$u20$as$u20$core..iter..traits..iterator..Iterator$GT$4next17ha372f7e75fb48fdbE
	movq	-216(%rbp), %rax
	cmpq	$2, %rax
	je	LBB66_30
	leaq	-232(%rbp), %r14
	leaq	-112(%rbp), %rbx
	testq	%rax, %rax
	jne	LBB66_25
	.p2align	4, 0x90
LBB66_29:
	movq	%r14, %rdi
	movq	%rbx, %rsi
	callq	__ZN112_$LT$alloc..collections..btree..map..IntoIter$LT$K$C$V$GT$$u20$as$u20$core..iter..traits..iterator..Iterator$GT$4next17ha372f7e75fb48fdbE
	movq	-216(%rbp), %rax
	cmpq	$2, %rax
	je	LBB66_30
	testq	%rax, %rax
	je	LBB66_29
LBB66_25:
	movq	-200(%rbp), %rsi
	testq	%rsi, %rsi
	je	LBB66_29
	movq	-208(%rbp), %rdi
	testq	%rdi, %rdi
	je	LBB66_29
	shlq	$4, %rsi
	je	LBB66_29
	movl	$8, %edx
	callq	___rust_dealloc
	jmp	LBB66_29
LBB66_30:
	movq	-104(%rbp), %rdi
	testq	%rdi, %rdi
	je	LBB66_33
	movq	-112(%rbp), %rax
	movl	$1336, %r14d
	.p2align	4, 0x90
LBB66_32:
	movq	(%rdi), %r15
	xorl	%ebx, %ebx
	testq	%r15, %r15
	setne	%bl
	addq	%rax, %rbx
	testq	%rax, %rax
	movl	$1432, %esi
	cmoveq	%r14, %rsi
	movl	$8, %edx
	callq	___rust_dealloc
	movq	%rbx, %rax
	movq	%r15, %rdi
	testq	%r15, %r15
	jne	LBB66_32
LBB66_33:
	addq	$208, %rsp
	popq	%rbx
	popq	%r12
	popq	%r14
	popq	%r15
	popq	%rbp
	retq
LBB66_17:
	leaq	__ZN44_$LT$$RF$T$u20$as$u20$core..fmt..Display$GT$3fmt17h6a3600aa621abbf2E(%rip), %rax
	vmovq	%rax, %xmm0
	leaq	l___unnamed_12(%rip), %rax
	vmovq	%rax, %xmm1
	vpunpcklqdq	%xmm0, %xmm1, %xmm0
	vmovdqa	%xmm0, -112(%rbp)
	leaq	l___unnamed_13(%rip), %rax
	movq	%rax, -232(%rbp)
	movq	$1, -224(%rbp)
	movq	$0, -216(%rbp)
	leaq	-112(%rbp), %rax
	movq	%rax, -200(%rbp)
	movq	$1, -192(%rbp)
	leaq	l___unnamed_14(%rip), %rsi
	leaq	-232(%rbp), %rdi
	callq	__ZN4core9panicking9panic_fmt17hab6ef1464e9720aaE
	.cfi_endproc

	.p2align	4, 0x90
__ZN4core3ptr13drop_in_place17hcb8851a4d690c1aeE:
	.cfi_startproc
	pushq	%rbp
	.cfi_def_cfa_offset 16
	.cfi_offset %rbp, -16
	movq	%rsp, %rbp
	.cfi_def_cfa_register %rbp
	pushq	%rbx
	pushq	%rax
	.cfi_offset %rbx, -24
	cmpq	$0, 8(%rdi)
	je	LBB67_1
LBB67_4:
	addq	$8, %rsp
	popq	%rbx
	popq	%rbp
	retq
LBB67_1:
	movq	%rdi, %rbx
	movq	48(%rdi), %rax
	shlq	$3, %rax
	leaq	(%rax,%rax,4), %rsi
	testq	%rsi, %rsi
	je	LBB67_3
	movq	40(%rbx), %rdi
	movl	$8, %edx
	callq	___rust_dealloc
LBB67_3:
	movq	64(%rbx), %rsi
	shlq	$5, %rsi
	je	LBB67_4
	movq	56(%rbx), %rdi
	movl	$8, %edx
	addq	$8, %rsp
	popq	%rbx
	popq	%rbp
	jmp	___rust_dealloc
	.cfi_endproc

	.p2align	4, 0x90
__ZN4core3ptr13drop_in_place17hcc84b8222e65b7e0E:
	.cfi_startproc
	pushq	%rbp
	.cfi_def_cfa_offset 16
	.cfi_offset %rbp, -16
	movq	%rsp, %rbp
	.cfi_def_cfa_register %rbp
	pushq	%rbx
	pushq	%rax
	.cfi_offset %rbx, -24
	movq	%rdi, %rbx
	movq	48(%rdi), %rsi
	testq	%rsi, %rsi
	je	LBB68_4
	movq	40(%rbx), %rdi
	testq	%rdi, %rdi
	je	LBB68_4
	shlq	$2, %rsi
	testq	%rsi, %rsi
	je	LBB68_4
	movl	$2, %edx
	callq	___rust_dealloc
LBB68_4:
	movq	72(%rbx), %rax
	testq	%rax, %rax
	je	LBB68_8
	movq	64(%rbx), %rdi
	testq	%rdi, %rdi
	je	LBB68_8
	shlq	$3, %rax
	leaq	(%rax,%rax,2), %rsi
	testq	%rsi, %rsi
	je	LBB68_8
	movl	$8, %edx
	callq	___rust_dealloc
LBB68_8:
	movq	96(%rbx), %rsi
	testq	%rsi, %rsi
	je	LBB68_9
	movq	88(%rbx), %rdi
	testq	%rdi, %rdi
	je	LBB68_9
	shlq	$2, %rsi
	testq	%rsi, %rsi
	je	LBB68_9
	movl	$2, %edx
	callq	___rust_dealloc
LBB68_9:
	movq	120(%rbx), %rsi
	testq	%rsi, %rsi
	je	LBB68_16
	movq	112(%rbx), %rdi
	testq	%rdi, %rdi
	je	LBB68_16
	shlq	$6, %rsi
	je	LBB68_16
	movl	$8, %edx
	addq	$8, %rsp
	popq	%rbx
	popq	%rbp
	jmp	___rust_dealloc
LBB68_16:
	addq	$8, %rsp
	popq	%rbx
	popq	%rbp
	retq
	.cfi_endproc

	.p2align	4, 0x90
__ZN4core3ptr13drop_in_place17hce8ebd0d356b9dd9E:
	.cfi_startproc
	pushq	%rbp
	.cfi_def_cfa_offset 16
	.cfi_offset %rbp, -16
	movq	%rsp, %rbp
	.cfi_def_cfa_register %rbp
	pushq	%r15
	pushq	%r14
	pushq	%rbx
	pushq	%rax
	.cfi_offset %rbx, -40
	.cfi_offset %r14, -32
	.cfi_offset %r15, -24
	movq	%rdi, %r14
	movq	(%rdi), %rbx
	movq	16(%rdi), %rax
	testq	%rax, %rax
	je	LBB69_10
	leaq	(%rax,%rax,8), %rax
	leaq	(%rbx,%rax,8), %r15
	movq	(%rbx), %rdi
	testq	%rdi, %rdi
	jne	LBB69_3
	jmp	LBB69_5
	.p2align	4, 0x90
LBB69_8:
	addq	$72, %rbx
	cmpq	%r15, %rbx
	je	LBB69_9
	movq	(%rbx), %rdi
	testq	%rdi, %rdi
	je	LBB69_5
LBB69_3:
	movq	8(%rbx), %rsi
	testq	%rsi, %rsi
	je	LBB69_5
	movl	$1, %edx
	callq	___rust_dealloc
LBB69_5:
	movq	40(%rbx), %rdi
	testq	%rdi, %rdi
	je	LBB69_8
	movq	48(%rbx), %rsi
	testq	%rsi, %rsi
	je	LBB69_8
	movl	$1, %edx
	callq	___rust_dealloc
	jmp	LBB69_8
LBB69_9:
	movq	(%r14), %rbx
LBB69_10:
	movq	8(%r14), %rax
	testq	%rax, %rax
	je	LBB69_13
	testq	%rbx, %rbx
	je	LBB69_13
	shlq	$3, %rax
	leaq	(%rax,%rax,8), %rsi
	testq	%rsi, %rsi
	je	LBB69_13
	movl	$8, %edx
	movq	%rbx, %rdi
	addq	$8, %rsp
	popq	%rbx
	popq	%r14
	popq	%r15
	popq	%rbp
	jmp	___rust_dealloc
LBB69_13:
	addq	$8, %rsp
	popq	%rbx
	popq	%r14
	popq	%r15
	popq	%rbp
	retq
	.cfi_endproc

	.p2align	4, 0x90
__ZN4core3ptr13drop_in_place17hd24f1791a58c0640E:
	.cfi_startproc
	pushq	%rbp
	.cfi_def_cfa_offset 16
	.cfi_offset %rbp, -16
	movq	%rsp, %rbp
	.cfi_def_cfa_register %rbp
	movq	8(%rdi), %rsi
	testq	%rsi, %rsi
	je	LBB70_3
	movq	(%rdi), %rdi
	testq	%rdi, %rdi
	je	LBB70_3
	shlq	$3, %rsi
	testq	%rsi, %rsi
	je	LBB70_3
	movl	$8, %edx
	popq	%rbp
	jmp	___rust_dealloc
LBB70_3:
	popq	%rbp
	retq
	.cfi_endproc

	.p2align	4, 0x90
__ZN4core3ptr13drop_in_place17hd5c5cc4b5fed9a01E:
	.cfi_startproc
	pushq	%rbp
	.cfi_def_cfa_offset 16
	.cfi_offset %rbp, -16
	movq	%rsp, %rbp
	.cfi_def_cfa_register %rbp
	pushq	%r15
	pushq	%r14
	pushq	%r12
	pushq	%rbx
	.cfi_offset %rbx, -48
	.cfi_offset %r12, -40
	.cfi_offset %r14, -32
	.cfi_offset %r15, -24
	movq	8(%rdi), %rax
	testq	%rax, %rax
	je	LBB71_9
	movq	%rdi, %r14
	movq	(%rdi), %r12
	shlq	$3, %rax
	leaq	(%rax,%rax,8), %r15
	xorl	%ebx, %ebx
	cmpq	$0, 8(%r12,%rbx)
	je	LBB71_3
	.p2align	4, 0x90
LBB71_7:
	addq	$72, %rbx
	cmpq	%rbx, %r15
	je	LBB71_8
LBB71_2:
	cmpq	$0, 8(%r12,%rbx)
	jne	LBB71_7
LBB71_3:
	movq	48(%r12,%rbx), %rax
	shlq	$3, %rax
	leaq	(%rax,%rax,4), %rsi
	testq	%rsi, %rsi
	je	LBB71_5
	movq	40(%r12,%rbx), %rdi
	movl	$8, %edx
	callq	___rust_dealloc
LBB71_5:
	movq	64(%r12,%rbx), %rsi
	shlq	$5, %rsi
	je	LBB71_7
	movq	56(%r12,%rbx), %rdi
	movl	$8, %edx
	callq	___rust_dealloc
	addq	$72, %rbx
	cmpq	%rbx, %r15
	jne	LBB71_2
LBB71_8:
	movq	8(%r14), %rax
	shlq	$3, %rax
	leaq	(%rax,%rax,8), %rsi
	testq	%rsi, %rsi
	je	LBB71_9
	movq	(%r14), %rdi
	movl	$8, %edx
	popq	%rbx
	popq	%r12
	popq	%r14
	popq	%r15
	popq	%rbp
	jmp	___rust_dealloc
LBB71_9:
	popq	%rbx
	popq	%r12
	popq	%r14
	popq	%r15
	popq	%rbp
	retq
	.cfi_endproc

	.p2align	4, 0x90
__ZN4core3ptr13drop_in_place17hdeecb01f821a88c0E:
Lfunc_begin9:
	.cfi_startproc
	.cfi_personality 155, _rust_eh_personality
	.cfi_lsda 16, Lexception9
	pushq	%rbp
	.cfi_def_cfa_offset 16
	.cfi_offset %rbp, -16
	movq	%rsp, %rbp
	.cfi_def_cfa_register %rbp
	pushq	%r15
	pushq	%r14
	pushq	%rbx
	pushq	%rax
	.cfi_offset %rbx, -40
	.cfi_offset %r14, -32
	.cfi_offset %r15, -24
	movq	__ZN9backtrace9symbolize5gimli5Cache11with_global14MAPPINGS_CACHE17h17189937677f65beE(%rip), %rbx
	testq	%rbx, %rbx
	je	LBB72_28
	movq	__ZN9backtrace9symbolize5gimli5Cache11with_global14MAPPINGS_CACHE17h17189937677f65beE+16(%rip), %rax
	testq	%rax, %rax
	je	LBB72_12
	imulq	$56, %rax, %r14
	addq	%rbx, %r14
	movq	(%rbx), %rdi
	testq	%rdi, %rdi
	jne	LBB72_4
	jmp	LBB72_6
	.p2align	4, 0x90
LBB72_10:
	addq	$56, %rbx
	cmpq	%r14, %rbx
	je	LBB72_11
	movq	(%rbx), %rdi
	testq	%rdi, %rdi
	je	LBB72_6
LBB72_4:
	movq	8(%rbx), %rsi
	testq	%rsi, %rsi
	je	LBB72_6
	movl	$1, %edx
	callq	___rust_dealloc
LBB72_6:
	movq	32(%rbx), %rsi
	testq	%rsi, %rsi
	je	LBB72_10
	movq	24(%rbx), %rdi
	testq	%rdi, %rdi
	je	LBB72_10
	shlq	$4, %rsi
	je	LBB72_10
	movl	$8, %edx
	callq	___rust_dealloc
	jmp	LBB72_10
LBB72_11:
	movq	__ZN9backtrace9symbolize5gimli5Cache11with_global14MAPPINGS_CACHE17h17189937677f65beE(%rip), %rbx
LBB72_12:
	movq	__ZN9backtrace9symbolize5gimli5Cache11with_global14MAPPINGS_CACHE17h17189937677f65beE+8(%rip), %rax
	testq	%rax, %rax
	je	LBB72_16
	testq	%rbx, %rbx
	je	LBB72_16
	imulq	$56, %rax, %rsi
	testq	%rsi, %rsi
	je	LBB72_16
	movl	$8, %edx
	movq	%rbx, %rdi
	callq	___rust_dealloc
LBB72_16:
	movq	__ZN9backtrace9symbolize5gimli5Cache11with_global14MAPPINGS_CACHE17h17189937677f65beE+24(%rip), %rdi
	imulq	$360, __ZN9backtrace9symbolize5gimli5Cache11with_global14MAPPINGS_CACHE17h17189937677f65beE+40(%rip), %rbx
	.p2align	4, 0x90
LBB72_21:
	testq	%rbx, %rbx
	je	LBB72_22
	leaq	360(%rdi), %r15
	addq	$8, %rdi
	addq	$-360, %rbx
Ltmp36:
	callq	__ZN4core3ptr13drop_in_place17he70a5d954569ca52E
Ltmp37:
	movq	%r15, %rdi
	jmp	LBB72_21
LBB72_22:
	movq	__ZN9backtrace9symbolize5gimli5Cache11with_global14MAPPINGS_CACHE17h17189937677f65beE+32(%rip), %rax
	testq	%rax, %rax
	je	LBB72_28
	movq	__ZN9backtrace9symbolize5gimli5Cache11with_global14MAPPINGS_CACHE17h17189937677f65beE+24(%rip), %rdi
	testq	%rdi, %rdi
	je	LBB72_28
	imulq	$360, %rax, %rsi
	testq	%rsi, %rsi
	je	LBB72_28
	movl	$8, %edx
	addq	$8, %rsp
	popq	%rbx
	popq	%r14
	popq	%r15
	popq	%rbp
	jmp	___rust_dealloc
LBB72_28:
	addq	$8, %rsp
	popq	%rbx
	popq	%r14
	popq	%r15
	popq	%rbp
	retq
LBB72_17:
Ltmp38:
	movq	%rax, %r14
	testq	%rbx, %rbx
	je	LBB72_27
	.p2align	4, 0x90
LBB72_18:
Ltmp39:
	movq	%r15, %rdi
	callq	__ZN4core3ptr13drop_in_place17h11b676c408901ab3E
Ltmp40:
	addq	$360, %r15
	addq	$-360, %rbx
	jne	LBB72_18
	jmp	LBB72_27
LBB72_26:
Ltmp41:
	movq	%rax, %r14
LBB72_27:
	movq	__ZN9backtrace9symbolize5gimli5Cache11with_global14MAPPINGS_CACHE17h17189937677f65beE+24(%rip), %rdi
	movq	__ZN9backtrace9symbolize5gimli5Cache11with_global14MAPPINGS_CACHE17h17189937677f65beE+32(%rip), %rsi
	callq	__ZN4core3ptr13drop_in_place17h6dd2186c5bfd2e0dE
	movq	%r14, %rdi
	callq	__Unwind_Resume
	ud2
Lfunc_end9:
	.cfi_endproc
	.section	__TEXT,__gcc_except_tab
	.p2align	2
GCC_except_table72:
Lexception9:
	.byte	255
	.byte	255
	.byte	1
	.uleb128 Lcst_end9-Lcst_begin9
Lcst_begin9:
	.uleb128 Ltmp36-Lfunc_begin9
	.uleb128 Ltmp37-Ltmp36
	.uleb128 Ltmp38-Lfunc_begin9
	.byte	0
	.uleb128 Ltmp39-Lfunc_begin9
	.uleb128 Ltmp40-Ltmp39
	.uleb128 Ltmp41-Lfunc_begin9
	.byte	0
	.uleb128 Ltmp40-Lfunc_begin9
	.uleb128 Lfunc_end9-Ltmp40
	.byte	0
	.byte	0
Lcst_end9:
	.p2align	2

	.section	__TEXT,__text,regular,pure_instructions
	.p2align	4, 0x90
__ZN4core3ptr13drop_in_place17he312865d187cc08fE:
	.cfi_startproc
	pushq	%rbp
	.cfi_def_cfa_offset 16
	.cfi_offset %rbp, -16
	movq	%rsp, %rbp
	.cfi_def_cfa_register %rbp
	movq	(%rdi), %rax
	lock		decq	(%rax)
	jne	LBB73_1
	##MEMBARRIER
	popq	%rbp
	jmp	__ZN5alloc4sync12Arc$LT$T$GT$9drop_slow17h278ec8a3a9711ddbE
LBB73_1:
	popq	%rbp
	retq
	.cfi_endproc

	.p2align	4, 0x90
__ZN4core3ptr13drop_in_place17he413e8c78bbeb83fE:
	.cfi_startproc
	pushq	%rbp
	.cfi_def_cfa_offset 16
	.cfi_offset %rbp, -16
	movq	%rsp, %rbp
	.cfi_def_cfa_register %rbp
	popq	%rbp
	jmp	_munmap
	.cfi_endproc

	.p2align	4, 0x90
__ZN4core3ptr13drop_in_place17he69219bc629727b4E:
Lfunc_begin10:
	.cfi_startproc
	.cfi_personality 155, _rust_eh_personality
	.cfi_lsda 16, Lexception10
	pushq	%rbp
	.cfi_def_cfa_offset 16
	.cfi_offset %rbp, -16
	movq	%rsp, %rbp
	.cfi_def_cfa_register %rbp
	pushq	%r14
	pushq	%rbx
	.cfi_offset %rbx, -32
	.cfi_offset %r14, -24
	movq	%rdi, %rbx
	movq	8(%rdi), %rsi
	testq	%rsi, %rsi
	je	LBB75_4
	movq	(%rbx), %rdi
	testq	%rdi, %rdi
	je	LBB75_4
	shlq	$5, %rsi
	je	LBB75_4
	movl	$8, %edx
	callq	___rust_dealloc
LBB75_4:
	leaq	24(%rbx), %rdi
Ltmp42:
	callq	__ZN4core3ptr13drop_in_place17h4af84792ed184ebbE
Ltmp43:
	movq	296(%rbx), %rax
	testq	%rax, %rax
	je	LBB75_8
	movq	288(%rbx), %rdi
	testq	%rdi, %rdi
	je	LBB75_8
	shlq	$3, %rax
	leaq	(%rax,%rax,2), %rsi
	testq	%rsi, %rsi
	je	LBB75_8
	movl	$8, %edx
	popq	%rbx
	popq	%r14
	popq	%rbp
	jmp	___rust_dealloc
LBB75_8:
	popq	%rbx
	popq	%r14
	popq	%rbp
	retq
LBB75_9:
Ltmp44:
	movq	%rax, %r14
	addq	$256, %rbx
	movq	%rbx, %rdi
	callq	__ZN4core3ptr13drop_in_place17hb622f1cce53848f1E
	movq	%r14, %rdi
	callq	__Unwind_Resume
	ud2
Lfunc_end10:
	.cfi_endproc
	.section	__TEXT,__gcc_except_tab
	.p2align	2
GCC_except_table75:
Lexception10:
	.byte	255
	.byte	255
	.byte	1
	.uleb128 Lcst_end10-Lcst_begin10
Lcst_begin10:
	.uleb128 Ltmp42-Lfunc_begin10
	.uleb128 Ltmp43-Ltmp42
	.uleb128 Ltmp44-Lfunc_begin10
	.byte	0
	.uleb128 Ltmp43-Lfunc_begin10
	.uleb128 Lfunc_end10-Ltmp43
	.byte	0
	.byte	0
Lcst_end10:
	.p2align	2

	.section	__TEXT,__text,regular,pure_instructions
	.p2align	4, 0x90
__ZN4core3ptr13drop_in_place17he70a5d954569ca52E:
Lfunc_begin11:
	.cfi_startproc
	.cfi_personality 155, _rust_eh_personality
	.cfi_lsda 16, Lexception11
	pushq	%rbp
	.cfi_def_cfa_offset 16
	.cfi_offset %rbp, -16
	movq	%rsp, %rbp
	.cfi_def_cfa_register %rbp
	pushq	%r15
	pushq	%r14
	pushq	%rbx
	pushq	%rax
	.cfi_offset %rbx, -40
	.cfi_offset %r14, -32
	.cfi_offset %r15, -24
	movq	%rdi, %r14
	movq	8(%rdi), %rsi
	testq	%rsi, %rsi
	je	LBB76_4
	movq	(%r14), %rdi
	testq	%rdi, %rdi
	je	LBB76_4
	shlq	$5, %rsi
	je	LBB76_4
	movl	$8, %edx
	callq	___rust_dealloc
LBB76_4:
	leaq	24(%r14), %rdi
Ltmp45:
	callq	__ZN4core3ptr13drop_in_place17h4af84792ed184ebbE
Ltmp46:
	movq	296(%r14), %rax
	testq	%rax, %rax
	je	LBB76_9
	movq	288(%r14), %rdi
	testq	%rdi, %rdi
	je	LBB76_9
	shlq	$3, %rax
	leaq	(%rax,%rax,2), %rsi
	testq	%rsi, %rsi
	je	LBB76_9
	movl	$8, %edx
	callq	___rust_dealloc
LBB76_9:
	movq	312(%r14), %rdi
	movq	320(%r14), %rsi
	callq	_munmap
	movq	328(%r14), %rbx
	movq	344(%r14), %rax
	testq	%rax, %rax
	je	LBB76_16
	leaq	(%rax,%rax,2), %rax
	leaq	(%rbx,%rax,8), %r15
	movq	(%rbx), %rdi
	testq	%rdi, %rdi
	jne	LBB76_12
	.p2align	4, 0x90
LBB76_14:
	addq	$24, %rbx
	cmpq	%r15, %rbx
	je	LBB76_15
LBB76_11:
	movq	(%rbx), %rdi
	testq	%rdi, %rdi
	je	LBB76_14
LBB76_12:
	movq	8(%rbx), %rsi
	testq	%rsi, %rsi
	je	LBB76_14
	movl	$1, %edx
	callq	___rust_dealloc
	addq	$24, %rbx
	cmpq	%r15, %rbx
	jne	LBB76_11
LBB76_15:
	movq	328(%r14), %rbx
LBB76_16:
	movq	336(%r14), %rax
	testq	%rax, %rax
	je	LBB76_19
	testq	%rbx, %rbx
	je	LBB76_19
	shlq	$3, %rax
	leaq	(%rax,%rax,2), %rsi
	testq	%rsi, %rsi
	je	LBB76_19
	movl	$8, %edx
	movq	%rbx, %rdi
	addq	$8, %rsp
	popq	%rbx
	popq	%r14
	popq	%r15
	popq	%rbp
	jmp	___rust_dealloc
LBB76_19:
	addq	$8, %rsp
	popq	%rbx
	popq	%r14
	popq	%r15
	popq	%rbp
	retq
LBB76_20:
Ltmp47:
	movq	%rax, %rbx
	leaq	256(%r14), %rdi
	callq	__ZN4core3ptr13drop_in_place17hb622f1cce53848f1E
	movq	312(%r14), %rdi
	movq	320(%r14), %rsi
	callq	__ZN4core3ptr13drop_in_place17he413e8c78bbeb83fE
	addq	$328, %r14
	movq	%r14, %rdi
	callq	__ZN4core3ptr13drop_in_place17h0e83452ac3b6379aE
	movq	%rbx, %rdi
	callq	__Unwind_Resume
	ud2
Lfunc_end11:
	.cfi_endproc
	.section	__TEXT,__gcc_except_tab
	.p2align	2
GCC_except_table76:
Lexception11:
	.byte	255
	.byte	255
	.byte	1
	.uleb128 Lcst_end11-Lcst_begin11
Lcst_begin11:
	.uleb128 Ltmp45-Lfunc_begin11
	.uleb128 Ltmp46-Ltmp45
	.uleb128 Ltmp47-Lfunc_begin11
	.byte	0
	.uleb128 Ltmp46-Lfunc_begin11
	.uleb128 Lfunc_end11-Ltmp46
	.byte	0
	.byte	0
Lcst_end11:
	.p2align	2

	.section	__TEXT,__text,regular,pure_instructions
	.p2align	4, 0x90
__ZN4core3ptr13drop_in_place17he7ef1c2af5f05484E:
	.cfi_startproc
	pushq	%rbp
	.cfi_def_cfa_offset 16
	.cfi_offset %rbp, -16
	movq	%rsp, %rbp
	.cfi_def_cfa_register %rbp
	movq	(%rdi), %rax
	movq	8(%rdi), %rcx
	movq	16(%rax), %rdx
	movq	%rdx, 16(%rcx)
	vmovups	(%rax), %xmm0
	vmovups	%xmm0, (%rcx)
	popq	%rbp
	retq
	.cfi_endproc

	.p2align	4, 0x90
__ZN4core3ptr13drop_in_place17hef0ea37f73e2780fE:
	.cfi_startproc
	pushq	%rbp
	.cfi_def_cfa_offset 16
	.cfi_offset %rbp, -16
	movq	%rsp, %rbp
	.cfi_def_cfa_register %rbp
	cmpq	$0, (%rdi)
	je	LBB78_4
	movq	16(%rdi), %rsi
	testq	%rsi, %rsi
	je	LBB78_4
	movq	8(%rdi), %rdi
	testq	%rdi, %rdi
	je	LBB78_4
	shlq	$4, %rsi
	je	LBB78_4
	movl	$8, %edx
	popq	%rbp
	jmp	___rust_dealloc
LBB78_4:
	popq	%rbp
	retq
	.cfi_endproc

	.p2align	4, 0x90
__ZN4core3ptr13drop_in_place17hfd6dd4591aa027e2E:
	.cfi_startproc
	pushq	%rbp
	.cfi_def_cfa_offset 16
	.cfi_offset %rbp, -16
	movq	%rsp, %rbp
	.cfi_def_cfa_register %rbp
	popq	%rbp
	jmp	__ZN4core3ptr13drop_in_place17hcc84b8222e65b7e0E
	.cfi_endproc

	.p2align	4, 0x90
__ZN4core5slice4sort14break_patterns17h2baaed015236a6c8E:
	.cfi_startproc
	pushq	%rbp
	.cfi_def_cfa_offset 16
	.cfi_offset %rbp, -16
	movq	%rsp, %rbp
	.cfi_def_cfa_register %rbp
	subq	$32, %rsp
	cmpq	$8, %rsi
	jb	LBB80_11
	leaq	-1(%rsi), %rax
	lzcntq	%rax, %rax
	movq	$-1, %rcx
	shrxq	%rax, %rcx, %r9
	incq	%r9
	je	LBB80_12
	movq	%rsi, %r10
	shrq	$2, %r10
	decq	%r9
	leaq	(%r10,%r10), %r8
	addq	$-1, %r8
	movl	%esi, %eax
	shll	$13, %eax
	xorl	%esi, %eax
	movl	%eax, %ecx
	shrl	$17, %ecx
	xorl	%eax, %ecx
	movl	%ecx, %eax
	shll	$5, %eax
	xorl	%ecx, %eax
	movl	%eax, %ecx
	shll	$13, %ecx
	xorl	%eax, %ecx
	movl	%ecx, %edx
	shrl	$17, %edx
	xorl	%ecx, %edx
	movl	%edx, %r11d
	shll	$5, %r11d
	xorl	%edx, %r11d
	shlq	$32, %rax
	addq	%r11, %rax
	andq	%r9, %rax
	xorl	%edx, %edx
	cmpq	%rsi, %rax
	cmovaeq	%rsi, %rdx
	cmpq	%rsi, %r8
	jae	LBB80_6
	subq	%rdx, %rax
	cmpq	%rsi, %rax
	jae	LBB80_13
	addq	%r10, %r10
	leaq	(%r8,%r8,2), %rdx
	movq	16(%rdi,%rdx,8), %rcx
	movq	%rcx, -16(%rbp)
	vmovups	(%rdi,%rdx,8), %xmm0
	vmovaps	%xmm0, -32(%rbp)
	leaq	(%rax,%rax,2), %rax
	movq	16(%rdi,%rax,8), %rcx
	vmovups	(%rdi,%rax,8), %xmm0
	vmovups	%xmm0, (%rdi,%rdx,8)
	movq	%rcx, 16(%rdi,%rdx,8)
	movq	-16(%rbp), %rcx
	movq	%rcx, 16(%rdi,%rax,8)
	vmovaps	-32(%rbp), %xmm0
	vmovups	%xmm0, (%rdi,%rax,8)
	movl	%r11d, %eax
	shll	$13, %eax
	xorl	%r11d, %eax
	movl	%eax, %ecx
	shrl	$17, %ecx
	xorl	%eax, %ecx
	movl	%ecx, %eax
	shll	$5, %eax
	xorl	%ecx, %eax
	movl	%eax, %ecx
	shll	$13, %ecx
	xorl	%eax, %ecx
	movl	%ecx, %edx
	shrl	$17, %edx
	xorl	%ecx, %edx
	movl	%edx, %r8d
	shll	$5, %r8d
	xorl	%edx, %r8d
	shlq	$32, %rax
	addq	%r8, %rax
	andq	%r9, %rax
	xorl	%edx, %edx
	cmpq	%rsi, %rax
	cmovaeq	%rsi, %rdx
	cmpq	%rsi, %r10
	jae	LBB80_5
	subq	%rdx, %rax
	cmpq	%rsi, %rax
	jae	LBB80_13
	leaq	(%r10,%r10,2), %rdx
	leaq	(%rax,%rax,2), %rax
	movq	16(%rdi,%rdx,8), %rcx
	movq	%rcx, -16(%rbp)
	vmovups	(%rdi,%rdx,8), %xmm0
	vmovaps	%xmm0, -32(%rbp)
	movq	16(%rdi,%rax,8), %rcx
	vmovups	(%rdi,%rax,8), %xmm0
	vmovups	%xmm0, (%rdi,%rdx,8)
	movq	%rcx, 16(%rdi,%rdx,8)
	movq	-16(%rbp), %rcx
	movq	%rcx, 16(%rdi,%rax,8)
	vmovaps	-32(%rbp), %xmm0
	vmovups	%xmm0, (%rdi,%rax,8)
	movl	%r8d, %eax
	shll	$13, %eax
	xorl	%r8d, %eax
	movl	%eax, %ecx
	shrl	$17, %ecx
	xorl	%eax, %ecx
	movl	%ecx, %edx
	shll	$5, %edx
	xorl	%ecx, %edx
	movl	%edx, %eax
	shll	$13, %eax
	xorl	%edx, %eax
	movl	%eax, %ecx
	shrl	$17, %ecx
	xorl	%eax, %ecx
	movl	%ecx, %eax
	shll	$5, %eax
	xorl	%ecx, %eax
	shlq	$32, %rdx
	orq	%rdx, %rax
	andq	%r9, %rax
	xorl	%ecx, %ecx
	cmpq	%rsi, %rax
	cmovaeq	%rsi, %rcx
	orq	$1, %r10
	cmpq	%rsi, %r10
	jae	LBB80_5
	subq	%rcx, %rax
	cmpq	%rsi, %rax
	jae	LBB80_13
	leaq	(%r10,%r10,2), %rcx
	leaq	(%rax,%rax,2), %rax
	movq	16(%rdi,%rcx,8), %rdx
	movq	%rdx, -16(%rbp)
	vmovups	(%rdi,%rcx,8), %xmm0
	vmovaps	%xmm0, -32(%rbp)
	movq	16(%rdi,%rax,8), %rdx
	vmovups	(%rdi,%rax,8), %xmm0
	vmovups	%xmm0, (%rdi,%rcx,8)
	movq	%rdx, 16(%rdi,%rcx,8)
	movq	-16(%rbp), %rcx
	movq	%rcx, 16(%rdi,%rax,8)
	vmovaps	-32(%rbp), %xmm0
	vmovups	%xmm0, (%rdi,%rax,8)
LBB80_11:
	addq	$32, %rsp
	popq	%rbp
	retq
LBB80_13:
	leaq	l___unnamed_15(%rip), %rdx
	movq	%rax, %rdi
	callq	__ZN4core9panicking18panic_bounds_check17habe69d236c55e3edE
LBB80_5:
	movq	%r10, %r8
LBB80_6:
	leaq	l___unnamed_16(%rip), %rdx
	movq	%r8, %rdi
	callq	__ZN4core9panicking18panic_bounds_check17habe69d236c55e3edE
LBB80_12:
	leaq	_str.0(%rip), %rdi
	leaq	l___unnamed_17(%rip), %rdx
	movl	$28, %esi
	callq	__ZN4core9panicking5panic17h736ee47a631475c0E
	.cfi_endproc

	.p2align	4, 0x90
__ZN4core5slice4sort22partial_insertion_sort17h29426a533d08ab29E:
	.cfi_startproc
	pushq	%rbp
	.cfi_def_cfa_offset 16
	.cfi_offset %rbp, -16
	movq	%rsp, %rbp
	.cfi_def_cfa_register %rbp
	pushq	%r15
	pushq	%r14
	pushq	%r13
	pushq	%r12
	pushq	%rbx
	subq	$40, %rsp
	.cfi_offset %rbx, -56
	.cfi_offset %r12, -48
	.cfi_offset %r13, -40
	.cfi_offset %r14, -32
	.cfi_offset %r15, -24
	leaq	-1(%rsi), %r15
	leaq	40(%rdi), %r8
	leaq	-80(%rdi), %r9
	leaq	48(%rdi), %rax
	movq	%rax, -80(%rbp)
	leaq	-2(%rsi), %rax
	movq	%rax, -72(%rbp)
	movl	$1, %ecx
	xorl	%r14d, %r14d
	cmpq	%rsi, %rcx
	jb	LBB81_3
	jmp	LBB81_2
	.p2align	4, 0x90
LBB81_28:
	vmovaps	-64(%rbp), %xmm0
	vmovups	%xmm0, (%rdx)
	movq	%r12, 16(%rdx)
LBB81_29:
	cmpq	$5, %r14
	je	LBB81_30
	cmpq	%rsi, %rcx
	jae	LBB81_2
LBB81_3:
	leaq	(%rcx,%rcx,2), %rax
	movq	16(%rdi,%rax,8), %rbx
	movb	$1, %dl
	cmpq	-8(%rdi,%rax,8), %rbx
	jb	LBB81_8
	leaq	(%r8,%rax,8), %rax
	.p2align	4, 0x90
LBB81_5:
	cmpq	%rcx, %r15
	je	LBB81_32
	incq	%rcx
	movq	(%rax), %rdx
	cmpq	-24(%rax), %rdx
	leaq	24(%rax), %rax
	jae	LBB81_5
	cmpq	%rsi, %rcx
	setb	%dl
	cmpq	%rsi, %rcx
	sete	%al
	jne	LBB81_9
	jmp	LBB81_31
	.p2align	4, 0x90
LBB81_2:
	xorl	%edx, %edx
LBB81_8:
	cmpq	%rsi, %rcx
	sete	%al
	je	LBB81_31
LBB81_9:
	cmpq	$50, %rsi
	jb	LBB81_31
	leaq	-1(%rcx), %rax
	cmpq	%rsi, %rax
	jae	LBB81_33
	testb	%dl, %dl
	je	LBB81_34
	leaq	(%rax,%rax,2), %rdx
	movq	16(%rdi,%rdx,8), %rax
	movq	%rax, -48(%rbp)
	vmovups	(%rdi,%rdx,8), %xmm0
	vmovaps	%xmm0, -64(%rbp)
	leaq	(%rcx,%rcx,2), %r13
	movq	16(%rdi,%r13,8), %rax
	movq	%rax, 16(%rdi,%rdx,8)
	vmovups	(%rdi,%r13,8), %xmm0
	vmovups	%xmm0, (%rdi,%rdx,8)
	movq	-48(%rbp), %rax
	movq	%rax, 16(%rdi,%r13,8)
	vmovaps	-64(%rbp), %xmm0
	vmovups	%xmm0, (%rdi,%r13,8)
	cmpq	$2, %rcx
	jb	LBB81_21
	leaq	-2(%rcx), %rbx
	movq	16(%rdi,%rdx,8), %r12
	leaq	(%rbx,%rbx,2), %rax
	cmpq	16(%rdi,%rax,8), %r12
	jae	LBB81_21
	leaq	(%rdi,%rdx,8), %r10
	leaq	(%rdi,%rax,8), %rdx
	vmovups	(%r10), %xmm0
	vmovaps	%xmm0, -64(%rbp)
	movq	16(%rdi,%rax,8), %r11
	movq	%r11, 16(%r10)
	vmovups	(%rdi,%rax,8), %xmm0
	vmovups	%xmm0, (%r10)
	testq	%rbx, %rbx
	je	LBB81_20
	cmpq	-56(%rdi,%r13,8), %r12
	jae	LBB81_20
	leaq	(%r9,%r13,8), %rax
	.p2align	4, 0x90
LBB81_18:
	movq	%rax, %rdx
	movq	24(%rax), %rax
	movq	%rax, 48(%rdx)
	vmovups	8(%rdx), %xmm0
	vmovups	%xmm0, 32(%rdx)
	decq	%rbx
	je	LBB81_19
	leaq	-24(%rdx), %rax
	cmpq	(%rdx), %r12
	jb	LBB81_18
LBB81_19:
	addq	$8, %rdx
LBB81_20:
	vmovaps	-64(%rbp), %xmm0
	vmovups	%xmm0, (%rdx)
	movq	%r12, 16(%rdx)
LBB81_21:
	incq	%r14
	movq	%rsi, %rbx
	subq	%rcx, %rbx
	cmpq	$2, %rbx
	jb	LBB81_29
	leaq	(%rdi,%r13,8), %r10
	movq	16(%rdi,%r13,8), %r12
	cmpq	%r12, 40(%r10)
	jae	LBB81_29
	leaq	24(%r10), %rdx
	vmovups	(%r10), %xmm0
	vmovaps	%xmm0, -64(%rbp)
	movq	40(%r10), %rax
	movq	%rax, 16(%r10)
	vmovups	24(%r10), %xmm0
	vmovups	%xmm0, (%r10)
	cmpq	$3, %rbx
	jb	LBB81_28
	cmpq	%r12, 64(%r10)
	jae	LBB81_28
	movq	-80(%rbp), %rax
	leaq	(%rax,%r13,8), %rbx
	movq	-72(%rbp), %rax
	subq	%rcx, %rax
	.p2align	4, 0x90
LBB81_27:
	movq	%rbx, %rdx
	movq	16(%rbx), %rbx
	movq	%rbx, -8(%rdx)
	vmovups	(%rdx), %xmm0
	vmovups	%xmm0, -24(%rdx)
	decq	%rax
	je	LBB81_28
	leaq	24(%rdx), %rbx
	cmpq	%r12, 40(%rdx)
	jb	LBB81_27
	jmp	LBB81_28
LBB81_32:
	movb	$1, %al
LBB81_31:
	addq	$40, %rsp
	popq	%rbx
	popq	%r12
	popq	%r13
	popq	%r14
	popq	%r15
	popq	%rbp
	retq
LBB81_30:
	xorl	%eax, %eax
	jmp	LBB81_31
LBB81_33:
	leaq	l___unnamed_16(%rip), %rdx
	movq	%rax, %rdi
	callq	__ZN4core9panicking18panic_bounds_check17habe69d236c55e3edE
LBB81_34:
	leaq	l___unnamed_15(%rip), %rdx
	movq	%rcx, %rdi
	callq	__ZN4core9panicking18panic_bounds_check17habe69d236c55e3edE
	.cfi_endproc

	.p2align	4, 0x90
__ZN4core5slice4sort7recurse17h6807cf4ba208df03E:
Lfunc_begin12:
	.cfi_startproc
	.cfi_personality 155, _rust_eh_personality
	.cfi_lsda 16, Lexception12
	pushq	%rbp
	.cfi_def_cfa_offset 16
	.cfi_offset %rbp, -16
	movq	%rsp, %rbp
	.cfi_def_cfa_register %rbp
	pushq	%r15
	pushq	%r14
	pushq	%r13
	pushq	%r12
	pushq	%rbx
	subq	$472, %rsp
	.cfi_offset %rbx, -56
	.cfi_offset %r12, -48
	.cfi_offset %r13, -40
	.cfi_offset %r14, -32
	.cfi_offset %r15, -24
	movq	%r8, -128(%rbp)
	movq	%rdx, -136(%rbp)
	movq	%rdi, %r11
	cmpq	$21, %rsi
	jae	LBB82_2
	movq	%rsi, %r13
	cmpq	$2, %r13
	jae	LBB82_11
	jmp	LBB82_119
LBB82_2:
	movq	%rcx, %r15
	movb	$1, %cl
	movb	$1, %r14b
LBB82_3:
	testb	%cl, %cl
	sete	%al
	testb	%r14b, %r14b
	sete	%dl
	orb	%al, %dl
	movb	%dl, -168(%rbp)
	movq	%r11, %r12
	movq	%rsi, -104(%rbp)
	movq	%rsi, -48(%rbp)
	movq	%r11, -96(%rbp)
	movq	%r15, -144(%rbp)
	movb	%cl, -88(%rbp)
	.p2align	4, 0x90
LBB82_4:
	cmpq	$0, -128(%rbp)
	je	LBB82_118
	testb	%cl, %cl
	je	LBB82_6
LBB82_7:
	movq	-48(%rbp), %rax
	movq	%rax, %r14
	shrq	$2, %r14
	leaq	(%r14,%r14), %rsi
	leaq	(%r14,%r14,2), %r10
	cmpq	$50, %rax
	jb	LBB82_8
	leaq	-1(%rsi), %r13
	movq	%rsi, %rdx
	orq	$1, %rdx
	leaq	(%rsi,%rsi,2), %rcx
	movq	-8(%r12,%rcx,8), %rax
	movq	16(%r12,%rcx,8), %rbx
	movq	%rbx, -160(%rbp)
	movq	%rax, -152(%rbp)
	cmpq	%rax, %rbx
	movq	%rsi, %r9
	cmovbq	%r13, %r9
	cmovbq	%rsi, %r13
	cmovbq	%rax, %rbx
	leaq	(%rdx,%rdx,2), %rsi
	movq	16(%r12,%rsi,8), %rax
	movq	%rax, -232(%rbp)
	cmpq	%rbx, %rax
	cmovbq	%rdx, %r9
	movq	%rbx, %rcx
	cmovbq	%rax, %rcx
	movq	%rcx, %r15
	movq	%rcx, -192(%rbp)
	leaq	-1(%r10), %rdx
	leaq	(%r10,%r10,2), %r8
	movq	-8(%r12,%r8,8), %rax
	movq	%rax, -112(%rbp)
	movq	16(%r12,%r8,8), %r11
	movq	%r11, -120(%rbp)
	cmpq	%rax, %r11
	movq	%r10, %rsi
	cmovbq	%rdx, %rsi
	cmovbq	%r10, %rdx
	cmovbq	%rax, %r11
	movq	40(%r12,%r8,8), %rax
	movq	%rax, -216(%rbp)
	cmpq	%r11, %rax
	leaq	1(%r10), %rdi
	cmovbq	%rdi, %rsi
	movq	%r11, %rcx
	cmovbq	%rax, %rcx
	movq	%rcx, -208(%rbp)
	leaq	(%rdx,%rdx,2), %rdi
	movq	16(%r12,%rdi,8), %rax
	movq	%rax, -224(%rbp)
	cmpq	%rax, %rcx
	cmovbq	%rdx, %rsi
	leaq	(,%r13,2), %rdx
	addq	%r13, %rdx
	movq	16(%r12,%rdx,8), %rax
	movq	%rax, -200(%rbp)
	cmpq	%rax, %r15
	cmovbq	%r13, %r9
	movq	-8(%r12,%r10,8), %rdx
	movq	16(%r12,%r10,8), %r13
	xorl	%r15d, %r15d
	cmpq	%rdx, %r13
	cmovbq	%rdx, %r13
	setb	%r15b
	leaq	-1(%r14), %rcx
	movq	%r14, %rdi
	cmovbq	%rcx, %rdi
	cmovbq	%r14, %rcx
	movq	40(%r12,%r10,8), %rax
	cmpq	%r13, %rax
	leaq	1(%r15), %rdx
	cmovaeq	%r15, %rdx
	movq	%r13, %r15
	cmovbq	%rax, %r15
	leaq	(%rcx,%rcx,2), %r10
	movq	16(%r12,%r10,8), %r10
	cmpq	%r10, %r15
	adcq	$0, %rdx
	movq	-152(%rbp), %r8
	cmpq	%r8, -160(%rbp)
	adcq	$0, %rdx
	cmpq	%rbx, -232(%rbp)
	adcq	$0, %rdx
	movq	-192(%rbp), %rbx
	cmpq	-200(%rbp), %rbx
	adcq	$0, %rdx
	incq	%r14
	cmpq	%r13, %rax
	cmovaeq	%rdi, %r14
	cmpq	%r10, %r15
	movq	-144(%rbp), %r15
	cmovbq	%rcx, %r14
	movq	-112(%rbp), %rax
	cmpq	%rax, -120(%rbp)
	adcq	$0, %rdx
	cmpq	%r11, -216(%rbp)
	movq	-96(%rbp), %r11
	adcq	$0, %rdx
	movq	-208(%rbp), %rax
	cmpq	-224(%rbp), %rax
	adcq	$0, %rdx
	movq	%rsi, %r10
	movq	%r9, %rsi
	jmp	LBB82_22
	.p2align	4, 0x90
LBB82_8:
	xorl	%edx, %edx
LBB82_22:
	leaq	(%rsi,%rsi,2), %rcx
	movq	16(%r12,%rcx,8), %rdi
	leaq	(%r14,%r14,2), %rcx
	movq	16(%r12,%rcx,8), %rax
	cmpq	%rax, %rdi
	adcq	$0, %rdx
	cmpq	%rax, %rdi
	movq	%rsi, %rcx
	cmovbq	%r14, %rcx
	cmovbq	%rsi, %r14
	cmovbq	%rax, %rdi
	leaq	(%r10,%r10,2), %rax
	movq	16(%r12,%rax,8), %rax
	cmpq	%rdi, %rax
	adcq	$0, %rdx
	cmpq	%rdi, %rax
	cmovbq	%r10, %rcx
	cmovbq	%rax, %rdi
	leaq	(%r14,%r14,2), %rax
	cmpq	16(%r12,%rax,8), %rdi
	jae	LBB82_23
	incq	%rdx
	cmpq	$12, %rdx
	jb	LBB82_24
	movq	-48(%rbp), %rcx
	shrq	%rcx
	je	LBB82_33
	movl	%ecx, %r8d
	andl	$1, %r8d
	cmpq	$1, %rcx
	jne	LBB82_29
	xorl	%edx, %edx
	testq	%r8, %r8
	jne	LBB82_32
	jmp	LBB82_33
	.p2align	4, 0x90
LBB82_23:
	movq	%rcx, %r14
LBB82_24:
	testq	%rdx, %rdx
	sete	%al
	testb	%al, %al
	sete	%al
	orb	-168(%rbp), %al
	jne	LBB82_36
	jmp	LBB82_35
LBB82_29:
	movq	-48(%rbp), %rax
	leaq	(%rax,%rax,2), %rdx
	leaq	(%r12,%rdx,8), %rsi
	addq	$-24, %rsi
	subq	%r8, %rcx
	movq	%r12, %rdi
	xorl	%edx, %edx
	.p2align	4, 0x90
LBB82_30:
	movq	16(%rdi), %rax
	movq	%rax, -64(%rbp)
	vmovups	(%rdi), %xmm0
	vmovaps	%xmm0, -80(%rbp)
	movq	16(%rsi), %rax
	vmovups	(%rsi), %xmm0
	vmovups	%xmm0, (%rdi)
	movq	%rax, 16(%rdi)
	movq	-64(%rbp), %rax
	movq	%rax, 16(%rsi)
	vmovaps	-80(%rbp), %xmm0
	vmovups	%xmm0, (%rsi)
	movq	40(%rdi), %rax
	movq	%rax, -64(%rbp)
	vmovups	24(%rdi), %xmm0
	vmovaps	%xmm0, -80(%rbp)
	movq	-8(%rsi), %rax
	vmovups	-24(%rsi), %xmm0
	vmovups	%xmm0, 24(%rdi)
	movq	%rax, 40(%rdi)
	movq	-64(%rbp), %rax
	movq	%rax, -8(%rsi)
	vmovaps	-80(%rbp), %xmm0
	vmovups	%xmm0, -24(%rsi)
	addq	$2, %rdx
	addq	$-48, %rsi
	addq	$48, %rdi
	cmpq	%rdx, %rcx
	jne	LBB82_30
	testq	%r8, %r8
	je	LBB82_33
LBB82_32:
	leaq	(%rdx,%rdx,2), %rax
	notq	%rdx
	addq	-48(%rbp), %rdx
	leaq	(%rdx,%rdx,2), %rcx
	movq	16(%r12,%rax,8), %rdx
	movq	%rdx, -64(%rbp)
	vmovups	(%r12,%rax,8), %xmm0
	vmovaps	%xmm0, -80(%rbp)
	movq	16(%r12,%rcx,8), %rdx
	vmovups	(%r12,%rcx,8), %xmm0
	vmovups	%xmm0, (%r12,%rax,8)
	movq	%rdx, 16(%r12,%rax,8)
	movq	-64(%rbp), %rax
	movq	%rax, 16(%r12,%rcx,8)
	vmovaps	-80(%rbp), %xmm0
	vmovups	%xmm0, (%r12,%rcx,8)
LBB82_33:
	notq	%r14
	addq	-48(%rbp), %r14
	movb	$1, %al
	testb	%al, %al
	sete	%al
	orb	-168(%rbp), %al
	je	LBB82_35
LBB82_36:
	testq	%r15, %r15
	je	LBB82_52
	cmpq	-48(%rbp), %r14
	jae	LBB82_120
	movq	16(%r15), %rcx
	leaq	(%r14,%r14,2), %rax
	cmpq	16(%r12,%rax,8), %rcx
	jb	LBB82_39
	movq	16(%r12), %rcx
	movq	%rcx, -64(%rbp)
	vmovups	(%r12), %xmm0
	vmovaps	%xmm0, -80(%rbp)
	movq	16(%r12,%rax,8), %rcx
	vmovups	(%r12,%rax,8), %xmm0
	vmovups	%xmm0, (%r12)
	movq	%rcx, 16(%r12)
	movq	-64(%rbp), %rcx
	movq	%rcx, 16(%r12,%rax,8)
	vmovaps	-80(%rbp), %xmm0
	vmovups	%xmm0, (%r12,%rax,8)
	leaq	24(%r12), %r9
	vmovups	(%r12), %xmm0
	vmovaps	%xmm0, -384(%rbp)
	movq	16(%r12), %rax
	leaq	40(%r12), %r8
	movq	-48(%rbp), %rsi
	xorl	%edi, %edi
	leaq	-1(%rsi), %rdx
	cmpq	%rdx, %rdi
	jae	LBB82_44
LBB82_42:
	leaq	(%rdi,%rdi,2), %rcx
	leaq	(%r8,%rcx,8), %rcx
	.p2align	4, 0x90
LBB82_43:
	cmpq	(%rcx), %rax
	jb	LBB82_44
	incq	%rdi
	addq	$24, %rcx
	cmpq	%rdi, %rdx
	jne	LBB82_43
	movq	%rdx, %rdi
LBB82_44:
	leaq	(%rsi,%rsi,2), %rcx
	leaq	(%r12,%rcx,8), %rcx
	.p2align	4, 0x90
LBB82_45:
	decq	%rsi
	cmpq	%rsi, %rdi
	jae	LBB82_50
	leaq	-24(%rcx), %rdx
	cmpq	-8(%rcx), %rax
	movq	%rdx, %rcx
	jb	LBB82_45
	leaq	(%rdi,%rdi,2), %rcx
	movq	16(%r9,%rcx,8), %rbx
	movq	%rbx, -64(%rbp)
	vmovups	(%r9,%rcx,8), %xmm0
	vmovaps	%xmm0, -80(%rbp)
	movq	16(%rdx), %rbx
	vmovups	(%rdx), %xmm0
	vmovups	%xmm0, (%r9,%rcx,8)
	movq	%rbx, 16(%r9,%rcx,8)
	movq	-64(%rbp), %rcx
	movq	%rcx, 16(%rdx)
	vmovaps	-80(%rbp), %xmm0
	vmovups	%xmm0, (%rdx)
	incq	%rdi
	leaq	-1(%rsi), %rdx
	cmpq	%rdx, %rdi
	jb	LBB82_42
	jmp	LBB82_44
	.p2align	4, 0x90
LBB82_50:
	incq	%rdi
	vmovaps	-384(%rbp), %xmm0
	vmovups	%xmm0, (%r12)
	movq	%rax, 16(%r12)
	movq	-48(%rbp), %r13
	subq	%rdi, %r13
	jb	LBB82_121
	leaq	(%rdi,%rdi,2), %rax
	leaq	(%r12,%rax,8), %r12
	movq	%r13, -48(%rbp)
	cmpq	$21, %r13
	movb	-88(%rbp), %cl
	jae	LBB82_4
	jmp	LBB82_9
LBB82_6:
	movq	%r12, %rdi
	movq	-48(%rbp), %rsi
	callq	__ZN4core5slice4sort14break_patterns17h2baaed015236a6c8E
	movq	-96(%rbp), %r11
	decq	-128(%rbp)
	jmp	LBB82_7
LBB82_35:
	movq	%r12, %rdi
	movq	-48(%rbp), %rsi
	callq	__ZN4core5slice4sort22partial_insertion_sort17h29426a533d08ab29E
	movq	-96(%rbp), %r11
	testb	%al, %al
	je	LBB82_36
	jmp	LBB82_119
LBB82_52:
	movq	-104(%rbp), %rsi
	testq	%rsi, %rsi
	jne	LBB82_53
	jmp	LBB82_122
LBB82_39:
	movq	%r12, %r11
	movq	-48(%rbp), %rsi
LBB82_53:
	cmpq	%rsi, %r14
	leaq	-512(%rbp), %r12
	jae	LBB82_123
	leaq	(%r14,%r14,2), %rax
	movq	16(%r11), %rcx
	movq	%rcx, -64(%rbp)
	vmovups	(%r11), %xmm0
	vmovaps	%xmm0, -80(%rbp)
	movq	16(%r11,%rax,8), %rcx
	vmovups	(%r11,%rax,8), %xmm0
	vmovups	%xmm0, (%r11)
	movq	%rcx, 16(%r11)
	movq	-64(%rbp), %rcx
	movq	%rcx, 16(%r11,%rax,8)
	vmovaps	-80(%rbp), %xmm0
	vmovups	%xmm0, (%r11,%rax,8)
	movq	%rsi, %rax
	movq	%rsi, -104(%rbp)
	movq	16(%r11), %r14
	movq	%r14, -240(%rbp)
	vmovups	(%r11), %xmm0
	vmovaps	%xmm0, -256(%rbp)
	leaq	-256(%rbp), %rax
	movq	%rax, -184(%rbp)
	movq	%r11, -176(%rbp)
	decq	%rsi
	je	LBB82_55
	leaq	40(%r11), %rax
	xorl	%edi, %edi
	.p2align	4, 0x90
LBB82_62:
	cmpq	%r14, (%rax)
	jae	LBB82_56
	incq	%rdi
	addq	$24, %rax
	cmpq	%rdi, %rsi
	jne	LBB82_62
	movq	%rsi, %rdi
	jmp	LBB82_56
LBB82_55:
	xorl	%edi, %edi
LBB82_56:
	leaq	24(%r11), %rax
	movq	-104(%rbp), %rcx
	leaq	(%rcx,%rcx,2), %rcx
	movq	%r11, -96(%rbp)
	leaq	(%r11,%rcx,8), %rcx
	movq	%rsi, %rdx
	.p2align	4, 0x90
LBB82_57:
	movq	%rdx, %rbx
	movq	%rcx, %r11
	cmpq	%rdi, %rdx
	jbe	LBB82_58
	leaq	-1(%rbx), %rdx
	leaq	-24(%r11), %rcx
	cmpq	%r14, -8(%r11)
	jae	LBB82_57
LBB82_58:
	cmpq	%rdi, %rbx
	jb	LBB82_65
	movq	%rbx, -120(%rbp)
	cmpq	%rbx, %rsi
	jb	LBB82_60
	movq	%rdi, -152(%rbp)
	leaq	(%rdi,%rdi,2), %rcx
	leaq	(%rax,%rcx,8), %r13
	movl	$128, %esi
	xorl	%ecx, %ecx
	xorl	%r9d, %r9d
	xorl	%r10d, %r10d
	xorl	%r8d, %r8d
	movl	$128, %edi
	movq	%r13, -112(%rbp)
	jmp	LBB82_69
	.p2align	4, 0x90
LBB82_94:
	leaq	-512(%rbp), %r12
	movq	-88(%rbp), %rdi
LBB82_102:
	cmpq	%r10, %r8
	leaq	(%rdi,%rdi,2), %rax
	leaq	(%r13,%rax,8), %rax
	cmoveq	%rax, %r13
	movq	%rsi, %rax
	negq	%rax
	cmpq	%rcx, %r9
	leaq	(%rax,%rax,2), %rax
	leaq	(%r11,%rax,8), %rax
	cmoveq	%rax, %r11
	cmpq	$6167, %r15
	jbe	LBB82_103
LBB82_69:
	movq	%r11, %r15
	subq	%r13, %r15
	movq	%r15, %rax
	movabsq	$-6148914691236517205, %rdx
	mulq	%rdx
	cmpq	$6167, %r15
	ja	LBB82_72
	shrq	$4, %rdx
	cmpq	%r10, %r8
	setb	%al
	cmpq	%rcx, %r9
	setb	%bl
	orb	%al, %bl
	leaq	-128(%rdx), %rax
	testb	%bl, %bl
	cmoveq	%rdx, %rax
	cmpq	%r10, %r8
	cmovbq	%rax, %rsi
	cmovaeq	%rax, %rdi
	testb	%bl, %bl
	jne	LBB82_72
	movq	%rax, %rdi
	shrq	%rdi
	subq	%rdi, %rax
	movq	%rax, %rsi
LBB82_72:
	cmpq	%r10, %r8
	movq	%rsi, -48(%rbp)
	movq	%rdi, -88(%rbp)
	je	LBB82_73
LBB82_83:
	cmpq	%rcx, %r9
	je	LBB82_84
LBB82_93:
	movq	%r10, %rax
	subq	%r8, %rax
	movq	%rcx, %rdi
	subq	%r9, %rdi
	cmpq	%rdi, %rax
	cmovbeq	%rax, %rdi
	testq	%rdi, %rdi
	je	LBB82_94
	movzbl	(%r8), %eax
	leaq	(%rax,%rax,2), %rax
	movq	16(%r13,%rax,8), %rdx
	movq	%rdx, -64(%rbp)
	vmovups	(%r13,%rax,8), %xmm0
	vmovaps	%xmm0, -80(%rbp)
	movzbl	(%r9), %eax
	notq	%rax
	leaq	(%rax,%rax,2), %rax
	movzbl	(%r8), %edx
	leaq	(%rdx,%rdx,2), %rdx
	movq	16(%r11,%rax,8), %rsi
	movq	%rsi, 16(%r13,%rdx,8)
	vmovups	(%r11,%rax,8), %xmm0
	vmovups	%xmm0, (%r13,%rdx,8)
	cmpq	$1, %rdi
	jne	LBB82_97
	leaq	-512(%rbp), %r12
	movq	-88(%rbp), %rdi
	jmp	LBB82_101
	.p2align	4, 0x90
LBB82_73:
	movq	%r12, %r10
	movq	%r12, %r8
	testq	%rdi, %rdi
	je	LBB82_83
	leaq	-1(%rdi), %rax
	movl	%edi, %ebx
	andl	$7, %ebx
	cmpq	$7, %rax
	jae	LBB82_76
	movq	%r12, %r10
	movq	%r13, %rax
	xorl	%edx, %edx
	movq	%r12, %r8
	testq	%rbx, %rbx
	jne	LBB82_80
	jmp	LBB82_83
	.p2align	4, 0x90
LBB82_97:
	leaq	-1(%rdi), %rdx
	movl	%edx, %eax
	andl	$1, %eax
	cmpq	$2, %rdi
	jne	LBB82_106
	leaq	-512(%rbp), %r12
	testq	%rax, %rax
	movq	-88(%rbp), %rdi
	jne	LBB82_100
	jmp	LBB82_101
LBB82_106:
	subq	%rax, %rdx
	leaq	-512(%rbp), %r12
	.p2align	4, 0x90
LBB82_107:
	movzbl	1(%r8), %esi
	leaq	(%rsi,%rsi,2), %rsi
	movzbl	(%r9), %edi
	notq	%rdi
	leaq	(%rdi,%rdi,2), %rdi
	movq	16(%r13,%rsi,8), %rbx
	movq	%rbx, 16(%r11,%rdi,8)
	vmovups	(%r13,%rsi,8), %xmm0
	vmovups	%xmm0, (%r11,%rdi,8)
	movzbl	1(%r9), %esi
	notq	%rsi
	leaq	(%rsi,%rsi,2), %rsi
	movzbl	1(%r8), %edi
	leaq	(%rdi,%rdi,2), %rdi
	movq	16(%r11,%rsi,8), %rbx
	movq	%rbx, 16(%r13,%rdi,8)
	vmovups	(%r11,%rsi,8), %xmm0
	vmovups	%xmm0, (%r13,%rdi,8)
	movzbl	2(%r8), %esi
	leaq	(%rsi,%rsi,2), %rsi
	movzbl	1(%r9), %edi
	notq	%rdi
	leaq	(%rdi,%rdi,2), %rdi
	movq	16(%r13,%rsi,8), %rbx
	movq	%rbx, 16(%r11,%rdi,8)
	vmovups	(%r13,%rsi,8), %xmm0
	vmovups	%xmm0, (%r11,%rdi,8)
	movzbl	2(%r9), %esi
	addq	$2, %r9
	notq	%rsi
	leaq	(%rsi,%rsi,2), %rsi
	movzbl	2(%r8), %edi
	addq	$2, %r8
	leaq	(%rdi,%rdi,2), %rdi
	movq	16(%r11,%rsi,8), %rbx
	movq	%rbx, 16(%r13,%rdi,8)
	vmovups	(%r11,%rsi,8), %xmm0
	vmovups	%xmm0, (%r13,%rdi,8)
	addq	$-2, %rdx
	jne	LBB82_107
	testq	%rax, %rax
	movq	-88(%rbp), %rdi
	je	LBB82_101
LBB82_100:
	movzbl	1(%r8), %eax
	leaq	(%rax,%rax,2), %rax
	movzbl	(%r9), %edx
	notq	%rdx
	leaq	(%rdx,%rdx,2), %rdx
	movq	16(%r13,%rax,8), %rsi
	movq	%rsi, 16(%r11,%rdx,8)
	vmovups	(%r13,%rax,8), %xmm0
	vmovups	%xmm0, (%r11,%rdx,8)
	movzbl	1(%r9), %eax
	incq	%r9
	notq	%rax
	leaq	(%rax,%rax,2), %rax
	movzbl	1(%r8), %edx
	incq	%r8
	leaq	(%rdx,%rdx,2), %rdx
	movq	16(%r11,%rax,8), %rsi
	movq	%rsi, 16(%r13,%rdx,8)
	vmovups	(%r11,%rax,8), %xmm0
	vmovups	%xmm0, (%r13,%rdx,8)
LBB82_101:
	movzbl	(%r9), %eax
	notq	%rax
	leaq	(%rax,%rax,2), %rax
	movq	-64(%rbp), %rdx
	movq	%rdx, 16(%r11,%rax,8)
	vmovaps	-80(%rbp), %xmm0
	vmovups	%xmm0, (%r11,%rax,8)
	incq	%r8
	incq	%r9
	movq	-48(%rbp), %rsi
	jmp	LBB82_102
LBB82_76:
	movq	%r15, -168(%rbp)
	movq	%rdi, %r8
	movq	%rbx, -160(%rbp)
	subq	%rbx, %r8
	movq	%r12, %r10
	movq	%r13, %rax
	xorl	%edx, %edx
	.p2align	4, 0x90
LBB82_77:
	movl	%edx, %r15d
	movb	%dl, (%r10)
	xorl	%edi, %edi
	cmpq	%r14, 16(%rax)
	setae	%dil
	leal	1(%r15), %ebx
	movb	%bl, (%r10,%rdi)
	xorl	%ebx, %ebx
	cmpq	%r14, 40(%rax)
	leaq	(%r10,%rdi), %rsi
	setae	%bl
	leaq	(%rsi,%rbx), %r10
	leal	2(%r15), %r12d
	movb	%r12b, (%rbx,%rsi)
	xorl	%esi, %esi
	cmpq	%r14, 64(%rax)
	setae	%sil
	leaq	(%r10,%rsi), %rbx
	leal	3(%r15), %edi
	movb	%dil, (%rsi,%r10)
	xorl	%esi, %esi
	cmpq	%r14, 88(%rax)
	setae	%sil
	leaq	(%rbx,%rsi), %r10
	leal	4(%r15), %edi
	movb	%dil, (%rsi,%rbx)
	xorl	%esi, %esi
	cmpq	%r14, 112(%rax)
	setae	%sil
	leaq	(%r10,%rsi), %rdi
	leal	5(%r15), %ebx
	movb	%bl, (%rsi,%r10)
	xorl	%esi, %esi
	cmpq	%r14, 136(%rax)
	setae	%sil
	leaq	(%rdi,%rsi), %r10
	leal	6(%r15), %ebx
	movb	%bl, (%rsi,%rdi)
	xorl	%esi, %esi
	cmpq	%r14, 160(%rax)
	setae	%sil
	leaq	(%r10,%rsi), %rdi
	addq	$8, %rdx
	leal	7(%r15), %ebx
	movb	%bl, (%rsi,%r10)
	xorl	%r10d, %r10d
	cmpq	%r14, 184(%rax)
	setae	%r10b
	addq	%rdi, %r10
	addq	$192, %rax
	cmpq	%rdx, %r8
	jne	LBB82_77
	leaq	-512(%rbp), %r12
	movq	-48(%rbp), %rsi
	movq	-168(%rbp), %r15
	movq	-160(%rbp), %rbx
	movq	%r12, %r8
	testq	%rbx, %rbx
	je	LBB82_83
LBB82_80:
	shlq	$3, %rbx
	leaq	(%rbx,%rbx,2), %r8
	xorl	%edi, %edi
	.p2align	4, 0x90
LBB82_81:
	movq	%r10, %rsi
	movb	%dl, (%r10)
	xorl	%r10d, %r10d
	cmpq	%r14, 16(%rax)
	setae	%r10b
	addq	%rsi, %r10
	addq	$24, %rax
	addq	$24, %rdi
	incb	%dl
	cmpq	%rdi, %r8
	jne	LBB82_81
	movq	%r12, %r8
	movq	-48(%rbp), %rsi
	cmpq	%rcx, %r9
	jne	LBB82_93
	.p2align	4, 0x90
LBB82_84:
	leaq	-384(%rbp), %r9
	movq	%r9, %rcx
	testq	%rsi, %rsi
	je	LBB82_93
	leaq	-1(%rsi), %rax
	movl	%esi, %r12d
	andl	$7, %r12d
	cmpq	$7, %rax
	jae	LBB82_87
	leaq	-384(%rbp), %rcx
	movq	%r11, %rax
	xorl	%edx, %edx
	leaq	-384(%rbp), %r9
	testq	%r12, %r12
	movq	-48(%rbp), %rsi
	jne	LBB82_90
	jmp	LBB82_93
LBB82_87:
	movq	%rsi, %r9
	subq	%r12, %r9
	leaq	-384(%rbp), %rcx
	movq	%r11, %rax
	xorl	%edi, %edi
	xorl	%edx, %edx
	.p2align	4, 0x90
LBB82_88:
	movb	%dil, (%rcx)
	cmpq	%r14, -8(%rax)
	adcq	$0, %rcx
	leal	1(%rdi), %esi
	movb	%sil, (%rcx)
	cmpq	%r14, -32(%rax)
	adcq	$0, %rcx
	leal	2(%rdi), %esi
	movb	%sil, (%rcx)
	cmpq	%r14, -56(%rax)
	adcq	$0, %rcx
	leal	3(%rdi), %esi
	movb	%sil, (%rcx)
	cmpq	%r14, -80(%rax)
	adcq	$0, %rcx
	leal	4(%rdi), %esi
	movb	%sil, (%rcx)
	cmpq	%r14, -104(%rax)
	adcq	$0, %rcx
	leal	5(%rdi), %esi
	movb	%sil, (%rcx)
	cmpq	%r14, -128(%rax)
	adcq	$0, %rcx
	leal	6(%rdi), %esi
	movb	%sil, (%rcx)
	cmpq	%r14, -152(%rax)
	adcq	$0, %rcx
	addq	$8, %rdx
	leal	7(%rdi), %esi
	movb	%sil, (%rcx)
	cmpq	%r14, -176(%rax)
	leaq	-192(%rax), %rax
	adcq	$0, %rcx
	movq	%rdx, %rdi
	cmpq	%rdx, %r9
	jne	LBB82_88
	leaq	-384(%rbp), %r9
	testq	%r12, %r12
	movq	-48(%rbp), %rsi
	je	LBB82_93
LBB82_90:
	shlq	$3, %r12
	leaq	(%r12,%r12,2), %rdi
	xorl	%ebx, %ebx
	.p2align	4, 0x90
LBB82_91:
	movb	%dl, (%rcx)
	cmpq	%r14, -8(%rax,%rbx)
	adcq	$0, %rcx
	addq	$-24, %rbx
	incb	%dl
	movq	%rdi, %rsi
	addq	%rbx, %rsi
	jne	LBB82_91
	leaq	-384(%rbp), %r9
	movq	-48(%rbp), %rsi
	jmp	LBB82_93
	.p2align	4, 0x90
LBB82_103:
	cmpq	%r10, %r8
	jae	LBB82_108
	movq	%r11, %rax
	movq	-104(%rbp), %rsi
	movq	-112(%rbp), %rbx
	.p2align	4, 0x90
LBB82_105:
	movzbl	-1(%r10), %ecx
	decq	%r10
	leaq	(%rcx,%rcx,2), %rcx
	movq	16(%r13,%rcx,8), %rdx
	movq	%rdx, -64(%rbp)
	vmovups	(%r13,%rcx,8), %xmm0
	vmovaps	%xmm0, -80(%rbp)
	movq	-8(%rax), %rdx
	vmovups	-24(%rax), %xmm0
	vmovups	%xmm0, (%r13,%rcx,8)
	movq	%rdx, 16(%r13,%rcx,8)
	movq	-64(%rbp), %rcx
	movq	%rcx, -8(%rax)
	vmovaps	-80(%rbp), %xmm0
	vmovups	%xmm0, -24(%rax)
	addq	$-24, %rax
	cmpq	%r10, %r8
	jb	LBB82_105
	jmp	LBB82_110
LBB82_108:
	movq	%r13, %rax
	cmpq	%rcx, %r9
	movq	-104(%rbp), %rsi
	movq	-112(%rbp), %rbx
	jae	LBB82_110
	.p2align	4, 0x90
LBB82_109:
	movzbl	-1(%rcx), %edx
	decq	%rcx
	notq	%rdx
	leaq	(%rdx,%rdx,2), %rdx
	movq	16(%rax), %rdi
	movq	%rdi, -64(%rbp)
	vmovups	(%rax), %xmm0
	vmovaps	%xmm0, -80(%rbp)
	movq	16(%r11,%rdx,8), %rdi
	vmovups	(%r11,%rdx,8), %xmm0
	vmovups	%xmm0, (%rax)
	movq	%rdi, 16(%rax)
	movq	-64(%rbp), %rdi
	movq	%rdi, 16(%r11,%rdx,8)
	vmovaps	-80(%rbp), %xmm0
	vmovups	%xmm0, (%r11,%rdx,8)
	addq	$24, %rax
	cmpq	%rcx, %r9
	jb	LBB82_109
LBB82_110:
	subq	%rbx, %rax
	movabsq	$-6148914691236517205, %rcx
	mulq	%rcx
	movq	%rdx, %r13
	shrq	$4, %r13
	movq	-152(%rbp), %rdi
	addq	%rdi, %r13
	movq	-184(%rbp), %rax
	movq	-176(%rbp), %rcx
	movq	16(%rax), %rdx
	movq	%rdx, 16(%rcx)
	vmovups	(%rax), %xmm0
	vmovups	%xmm0, (%rcx)
	movq	%rsi, %rbx
	subq	%r13, %rbx
	jbe	LBB82_111
	cmpq	%rdi, -120(%rbp)
	setbe	%r14b
	movq	-96(%rbp), %rdi
	movq	16(%rdi), %rax
	movq	%rax, -64(%rbp)
	vmovups	(%rdi), %xmm0
	vmovaps	%xmm0, -80(%rbp)
	leaq	(%r13,%r13,2), %rax
	movq	16(%rdi,%rax,8), %rcx
	vmovups	(%rdi,%rax,8), %xmm0
	vmovups	%xmm0, (%rdi)
	movq	%rcx, 16(%rdi)
	movq	-64(%rbp), %rcx
	movq	%rcx, 16(%rdi,%rax,8)
	vmovaps	-80(%rbp), %xmm0
	vmovups	%xmm0, (%rdi,%rax,8)
	cmpq	%rbx, %r13
	movq	%r13, %rcx
	cmovaq	%rbx, %rcx
	shrq	$3, %rsi
	cmpq	%rsi, %rcx
	setae	%cl
	testq	%rbx, %rbx
	je	LBB82_124
	movb	%cl, -88(%rbp)
	leaq	(%rdi,%rax,8), %r15
	leaq	24(%r15), %r12
	decq	%rbx
	cmpq	%rbx, %r13
	jae	LBB82_115
	movq	%r13, %rsi
	movq	-136(%rbp), %rdx
	movq	-144(%rbp), %rcx
	movq	-128(%rbp), %r8
	callq	__ZN4core5slice4sort7recurse17h6807cf4ba208df03E
	movq	%rbx, %r13
	movq	%r12, %r11
	jmp	LBB82_117
LBB82_115:
	movq	%r12, %rdi
	movq	%rbx, %rsi
	movq	-136(%rbp), %rdx
	movq	%r15, %rcx
	movq	-128(%rbp), %r8
	callq	__ZN4core5slice4sort7recurse17h6807cf4ba208df03E
	movq	-96(%rbp), %r11
	movq	-144(%rbp), %r15
LBB82_117:
	movq	%r13, %rsi
	cmpq	$21, %r13
	movb	-88(%rbp), %cl
	jae	LBB82_3
	jmp	LBB82_10
LBB82_118:
	movq	%r12, %rdi
	movq	-48(%rbp), %rsi
	movq	-136(%rbp), %rdx
	callq	__ZN4core5slice4sort8heapsort17h74cb45f50c3a752aE
	jmp	LBB82_119
LBB82_9:
	movq	%r12, %r11
LBB82_10:
	cmpq	$2, %r13
	jb	LBB82_119
LBB82_11:
	movl	$24, %r9d
	subq	%r11, %r9
	movl	$1, %esi
	xorl	%r10d, %r10d
	movq	%r11, %rdx
	jmp	LBB82_12
LBB82_18:
	subq	%r9, %rbx
LBB82_19:
	vmovaps	-384(%rbp), %xmm0
	vmovups	%xmm0, (%rbx)
	movq	%rdi, 16(%rbx)
LBB82_20:
	decq	%r10
	addq	$-24, %r9
	addq	$24, %rdx
	movq	%r8, %rsi
	cmpq	%r13, %r8
	je	LBB82_119
LBB82_12:
	leaq	1(%rsi), %r8
	leaq	(%rsi,%rsi,2), %rax
	movq	16(%r11,%rax,8), %rdi
	cmpq	-8(%r11,%rax,8), %rdi
	jae	LBB82_20
	decq	%rsi
	leaq	(%rsi,%rsi,2), %rsi
	vmovups	(%r11,%rax,8), %xmm0
	vmovaps	%xmm0, -384(%rbp)
	leaq	(%r11,%rsi,8), %rbx
	movq	16(%r11,%rsi,8), %rcx
	movq	%rcx, 16(%r11,%rax,8)
	vmovups	(%r11,%rsi,8), %xmm0
	vmovups	%xmm0, (%r11,%rax,8)
	je	LBB82_19
	cmpq	-32(%r11,%rax,8), %rdi
	jae	LBB82_19
	xorl	%eax, %eax
	movq	%r10, %rsi
	.p2align	4, 0x90
LBB82_17:
	movq	%rax, %rbx
	movq	-8(%rdx,%rax), %rax
	movq	%rax, 16(%rdx,%rbx)
	vmovups	-24(%rdx,%rbx), %xmm0
	vmovups	%xmm0, (%rdx,%rbx)
	incq	%rsi
	je	LBB82_18
	leaq	-24(%rbx), %rax
	cmpq	-32(%rdx,%rbx), %rdi
	jb	LBB82_17
	jmp	LBB82_18
LBB82_119:
	addq	$472, %rsp
	popq	%rbx
	popq	%r12
	popq	%r13
	popq	%r14
	popq	%r15
	popq	%rbp
	retq
LBB82_120:
	leaq	l___unnamed_18(%rip), %rdx
	movq	%r14, %rdi
	movq	-48(%rbp), %rsi
	callq	__ZN4core9panicking18panic_bounds_check17habe69d236c55e3edE
LBB82_121:
	leaq	l___unnamed_19(%rip), %rdx
	movq	-48(%rbp), %rsi
	callq	__ZN4core5slice22slice_index_order_fail17h85b430a3a039f0a8E
LBB82_122:
	leaq	l___unnamed_16(%rip), %rdx
	xorl	%edi, %edi
	xorl	%esi, %esi
	callq	__ZN4core9panicking18panic_bounds_check17habe69d236c55e3edE
LBB82_123:
	leaq	l___unnamed_15(%rip), %rdx
	movq	%r14, %rdi
	callq	__ZN4core9panicking18panic_bounds_check17habe69d236c55e3edE
LBB82_65:
Ltmp50:
	leaq	l___unnamed_20(%rip), %rdx
	movq	%rbx, %rsi
	callq	__ZN4core5slice22slice_index_order_fail17h85b430a3a039f0a8E
Ltmp51:
	jmp	LBB82_66
LBB82_60:
Ltmp48:
	leaq	l___unnamed_20(%rip), %rdx
	movq	-120(%rbp), %rdi
	callq	__ZN4core5slice20slice_index_len_fail17h550a313151a85135E
Ltmp49:
LBB82_66:
	ud2
LBB82_111:
	leaq	l___unnamed_15(%rip), %rdx
	movq	%r13, %rdi
	callq	__ZN4core9panicking18panic_bounds_check17habe69d236c55e3edE
LBB82_124:
	leaq	l___unnamed_21(%rip), %rdi
	leaq	l___unnamed_22(%rip), %rdx
	movl	$28, %esi
	callq	__ZN4core9panicking5panic17h736ee47a631475c0E
LBB82_112:
Ltmp52:
	movq	%rax, %rbx
	leaq	-184(%rbp), %rdi
	callq	__ZN4core3ptr13drop_in_place17he7ef1c2af5f05484E
	movq	%rbx, %rdi
	callq	__Unwind_Resume
	ud2
Lfunc_end12:
	.cfi_endproc
	.section	__TEXT,__gcc_except_tab
	.p2align	2
GCC_except_table82:
Lexception12:
	.byte	255
	.byte	255
	.byte	1
	.uleb128 Lcst_end12-Lcst_begin12
Lcst_begin12:
	.uleb128 Lfunc_begin12-Lfunc_begin12
	.uleb128 Ltmp50-Lfunc_begin12
	.byte	0
	.byte	0
	.uleb128 Ltmp50-Lfunc_begin12
	.uleb128 Ltmp49-Ltmp50
	.uleb128 Ltmp52-Lfunc_begin12
	.byte	0
	.uleb128 Ltmp49-Lfunc_begin12
	.uleb128 Lfunc_end12-Ltmp49
	.byte	0
	.byte	0
Lcst_end12:
	.p2align	2

	.section	__TEXT,__text,regular,pure_instructions
	.p2align	4, 0x90
__ZN4core5slice4sort8heapsort17h74cb45f50c3a752aE:
	.cfi_startproc
	pushq	%rbp
	.cfi_def_cfa_offset 16
	.cfi_offset %rbp, -16
	movq	%rsp, %rbp
	.cfi_def_cfa_register %rbp
	subq	$32, %rsp
	movq	%rsi, %r9
	shrq	%r9
	jne	LBB83_6
LBB83_1:
	cmpq	$2, %rsi
	jb	LBB83_31
	movq	%rsi, %r8
	decq	%r8
	cmpq	%rsi, %r8
	jb	LBB83_18
	jmp	LBB83_4
	.p2align	4, 0x90
LBB83_5:
	testq	%r9, %r9
	je	LBB83_1
LBB83_6:
	decq	%r9
	movq	%r9, %rcx
	leaq	(%rcx,%rcx), %r8
	addq	$1, %r8
	leaq	(%rcx,%rcx), %rax
	addq	$2, %rax
	cmpq	%rsi, %rax
	jae	LBB83_12
	.p2align	4, 0x90
LBB83_8:
	cmpq	%rsi, %r8
	jae	LBB83_16
	leaq	(%r8,%r8,2), %rdx
	movq	16(%rdi,%rdx,8), %r10
	leaq	(%rax,%rax,2), %rdx
	cmpq	16(%rdi,%rdx,8), %r10
	jb	LBB83_11
	movq	%r8, %rax
LBB83_11:
	movq	%rax, %r8
LBB83_12:
	cmpq	%rsi, %r8
	jae	LBB83_5
	cmpq	%rsi, %rcx
	jae	LBB83_17
	leaq	(%rcx,%rcx,2), %rcx
	movq	16(%rdi,%rcx,8), %rdx
	leaq	(%r8,%r8,2), %rax
	cmpq	16(%rdi,%rax,8), %rdx
	jae	LBB83_5
	movq	16(%rdi,%rcx,8), %rdx
	movq	%rdx, -16(%rbp)
	vmovups	(%rdi,%rcx,8), %xmm0
	vmovaps	%xmm0, -32(%rbp)
	movq	16(%rdi,%rax,8), %rdx
	vmovups	(%rdi,%rax,8), %xmm0
	vmovups	%xmm0, (%rdi,%rcx,8)
	movq	%rdx, 16(%rdi,%rcx,8)
	movq	-16(%rbp), %rcx
	movq	%rcx, 16(%rdi,%rax,8)
	vmovaps	-32(%rbp), %xmm0
	vmovups	%xmm0, (%rdi,%rax,8)
	movq	%r8, %rcx
	leaq	(%rcx,%rcx), %r8
	addq	$1, %r8
	leaq	(%rcx,%rcx), %rax
	addq	$2, %rax
	cmpq	%rsi, %rax
	jb	LBB83_8
	jmp	LBB83_12
	.p2align	4, 0x90
LBB83_30:
	cmpq	$1, %r8
	jbe	LBB83_31
	decq	%r8
	cmpq	%rsi, %r8
	jae	LBB83_4
LBB83_18:
	leaq	(%r8,%r8,2), %rax
	leaq	(%rdi,%rax,8), %r9
	movq	16(%rdi), %rcx
	movq	%rcx, -16(%rbp)
	vmovups	(%rdi), %xmm0
	vmovaps	%xmm0, -32(%rbp)
	movq	16(%rdi,%rax,8), %rcx
	vmovups	(%rdi,%rax,8), %xmm0
	vmovups	%xmm0, (%rdi)
	movq	%rcx, 16(%rdi)
	xorl	%r10d, %r10d
	.p2align	4, 0x90
LBB83_19:
	movq	-16(%rbp), %rcx
	movq	%rcx, 16(%r9)
	vmovaps	-32(%rbp), %xmm0
	vmovups	%xmm0, (%r9)
	leaq	(%r10,%r10), %r11
	addq	$1, %r11
	leaq	(%r10,%r10), %rdx
	addq	$2, %rdx
	cmpq	%r8, %rdx
	jae	LBB83_24
	cmpq	%r8, %r11
	jae	LBB83_28
	leaq	(%r11,%r11,2), %rax
	movq	16(%rdi,%rax,8), %r9
	leaq	(%rdx,%rdx,2), %rax
	cmpq	16(%rdi,%rax,8), %r9
	jb	LBB83_23
	movq	%r11, %rdx
LBB83_23:
	movq	%rdx, %r11
LBB83_24:
	cmpq	%r8, %r11
	jae	LBB83_30
	cmpq	%r8, %r10
	jae	LBB83_29
	leaq	(%r10,%r10,2), %rax
	movq	16(%rdi,%rax,8), %rcx
	leaq	(%r11,%r11,2), %rdx
	cmpq	16(%rdi,%rdx,8), %rcx
	jae	LBB83_30
	movq	16(%rdi,%rax,8), %rcx
	movq	%rcx, -16(%rbp)
	vmovups	(%rdi,%rax,8), %xmm0
	vmovaps	%xmm0, -32(%rbp)
	leaq	(%rdi,%rdx,8), %r9
	movq	16(%rdi,%rdx,8), %rcx
	vmovups	(%rdi,%rdx,8), %xmm0
	vmovups	%xmm0, (%rdi,%rax,8)
	movq	%rcx, 16(%rdi,%rax,8)
	movq	%r11, %r10
	jmp	LBB83_19
LBB83_31:
	addq	$32, %rsp
	popq	%rbp
	retq
LBB83_17:
	leaq	l___unnamed_23(%rip), %rdx
	movq	%rcx, %rdi
	callq	__ZN4core9panicking18panic_bounds_check17habe69d236c55e3edE
LBB83_29:
	leaq	l___unnamed_23(%rip), %rdx
	movq	%r10, %rdi
	movq	%r8, %rsi
	callq	__ZN4core9panicking18panic_bounds_check17habe69d236c55e3edE
LBB83_16:
	leaq	l___unnamed_24(%rip), %rdx
	movq	%r8, %rdi
	callq	__ZN4core9panicking18panic_bounds_check17habe69d236c55e3edE
LBB83_28:
	leaq	l___unnamed_24(%rip), %rdx
	movq	%r11, %rdi
	movq	%r8, %rsi
	callq	__ZN4core9panicking18panic_bounds_check17habe69d236c55e3edE
LBB83_4:
	leaq	l___unnamed_15(%rip), %rdx
	movq	%r8, %rdi
	callq	__ZN4core9panicking18panic_bounds_check17habe69d236c55e3edE
	.cfi_endproc

	.section	__TEXT,__literal16,16byte_literals
	.p2align	4
LCPI84_0:
	.quad	1
	.quad	18
	.section	__TEXT,__text,regular,pure_instructions
	.p2align	4, 0x90
__ZN50_$LT$$BP$mut$u20$T$u20$as$u20$core..fmt..Debug$GT$3fmt17hbc392ffc703e42e0E:
	.cfi_startproc
	pushq	%rbp
	.cfi_def_cfa_offset 16
	.cfi_offset %rbp, -16
	movq	%rsp, %rbp
	.cfi_def_cfa_register %rbp
	pushq	%r15
	pushq	%r14
	pushq	%rbx
	subq	$24, %rsp
	.cfi_offset %rbx, -40
	.cfi_offset %r14, -32
	.cfi_offset %r15, -24
	movq	%rsi, %rbx
	movq	(%rdi), %r15
	vmovups	(%rsi), %xmm0
	vmovaps	%xmm0, -48(%rbp)
	movl	48(%rsi), %r14d
	movq	%rsi, %rdi
	callq	__ZN4core3fmt9Formatter9alternate17hd5ca56d2d01a1343E
	movl	48(%rbx), %ecx
	testb	%al, %al
	je	LBB84_3
	orl	$8, %ecx
	movl	%ecx, 48(%rbx)
	cmpq	$1, (%rbx)
	je	LBB84_3
	vmovaps	LCPI84_0(%rip), %xmm0
	vmovups	%xmm0, (%rbx)
LBB84_3:
	orl	$4, %ecx
	movl	%ecx, 48(%rbx)
	movq	%r15, -32(%rbp)
	leaq	-32(%rbp), %rdi
	movq	%rbx, %rsi
	callq	__ZN4core3fmt3num55_$LT$impl$u20$core..fmt..LowerHex$u20$for$u20$usize$GT$3fmt17hbf7dc8c1d7fa021dE
	vmovaps	-48(%rbp), %xmm0
	vmovups	%xmm0, (%rbx)
	movl	%r14d, 48(%rbx)
	addq	$24, %rsp
	popq	%rbx
	popq	%r14
	popq	%r15
	popq	%rbp
	retq
	.cfi_endproc

	.p2align	4, 0x90
__ZN5alloc3vec12Vec$LT$T$GT$4push17h832830e178a9ccbcE:
	.cfi_startproc
	pushq	%rbp
	.cfi_def_cfa_offset 16
	.cfi_offset %rbp, -16
	movq	%rsp, %rbp
	.cfi_def_cfa_register %rbp
	pushq	%r15
	pushq	%r14
	pushq	%r12
	pushq	%rbx
	.cfi_offset %rbx, -48
	.cfi_offset %r12, -40
	.cfi_offset %r14, -32
	.cfi_offset %r15, -24
	movq	%rdx, %r14
	movq	%rsi, %r15
	movq	%rdi, %rbx
	movq	16(%rdi), %rcx
	cmpq	8(%rdi), %rcx
	jne	LBB85_18
	movq	%rcx, %rax
	incq	%rax
	je	LBB85_19
	leaq	(%rcx,%rcx), %rdx
	cmpq	%rax, %rdx
	cmovaq	%rdx, %rax
	movl	$16, %edx
	xorl	%esi, %esi
	mulq	%rdx
	movq	%rax, %r12
	seto	%dl
	setno	%dil
	movq	%rcx, %rax
	testq	%rcx, %rcx
	je	LBB85_4
	movq	(%rbx), %rax
LBB85_4:
	testb	%dl, %dl
	jne	LBB85_19
	testq	%rax, %rax
	je	LBB85_11
	movq	%rcx, %rsi
	shlq	$4, %rsi
	cmpq	%r12, %rsi
	je	LBB85_15
	testq	%rsi, %rsi
	je	LBB85_8
	movl	$8, %edx
	movq	%rax, %rdi
	movq	%r12, %rcx
	callq	___rust_realloc
	testq	%rax, %rax
	jne	LBB85_16
	jmp	LBB85_20
LBB85_11:
	movb	%dil, %sil
	shlq	$3, %rsi
	testq	%r12, %r12
	jne	LBB85_14
	movq	%rsi, %rax
	testq	%rax, %rax
	jne	LBB85_16
	jmp	LBB85_20
LBB85_8:
	testq	%r12, %r12
	je	LBB85_9
	movl	$8, %esi
LBB85_14:
	movq	%r12, %rdi
	callq	___rust_alloc
LBB85_15:
	testq	%rax, %rax
	je	LBB85_20
LBB85_16:
	movq	16(%rbx), %rcx
LBB85_17:
	movq	%rax, (%rbx)
	shrq	$4, %r12
	movq	%r12, 8(%rbx)
LBB85_18:
	movq	(%rbx), %rax
	shlq	$4, %rcx
	movq	%r15, (%rax,%rcx)
	movq	%r14, 8(%rax,%rcx)
	incq	16(%rbx)
	popq	%rbx
	popq	%r12
	popq	%r14
	popq	%r15
	popq	%rbp
	retq
LBB85_9:
	movl	$8, %eax
	jmp	LBB85_17
LBB85_19:
	callq	__ZN5alloc7raw_vec17capacity_overflow17h023f34f5bc34c61fE
LBB85_20:
	movl	$8, %esi
	movq	%r12, %rdi
	callq	__ZN5alloc5alloc18handle_alloc_error17hbc0ab0ed90816c07E
	.cfi_endproc

	.p2align	4, 0x90
__ZN5alloc3vec12Vec$LT$T$GT$6insert17h0ef33c322412fe43E:
Lfunc_begin13:
	.cfi_startproc
	.cfi_personality 155, _rust_eh_personality
	.cfi_lsda 16, Lexception13
	pushq	%rbp
	.cfi_def_cfa_offset 16
	.cfi_offset %rbp, -16
	movq	%rsp, %rbp
	.cfi_def_cfa_register %rbp
	pushq	%r15
	pushq	%r14
	pushq	%r13
	pushq	%r12
	pushq	%rbx
	pushq	%rax
	.cfi_offset %rbx, -56
	.cfi_offset %r12, -48
	.cfi_offset %r13, -40
	.cfi_offset %r14, -32
	.cfi_offset %r15, -24
	movq	%rdi, %r14
	movq	__ZN9backtrace9symbolize5gimli5Cache11with_global14MAPPINGS_CACHE17h17189937677f65beE+40(%rip), %rcx
	cmpq	__ZN9backtrace9symbolize5gimli5Cache11with_global14MAPPINGS_CACHE17h17189937677f65beE+32(%rip), %rcx
	jne	LBB86_1
	movq	%rcx, %r13
	incq	%r13
	je	LBB86_21
	leaq	(%rcx,%rcx), %rax
	cmpq	%r13, %rax
	cmovbeq	%r13, %rax
	movl	$360, %edx
	xorl	%esi, %esi
	mulq	%rdx
	movq	%rax, %r15
	seto	%dl
	setno	%al
	movq	%rcx, %rbx
	testq	%rcx, %rcx
	je	LBB86_6
	movq	__ZN9backtrace9symbolize5gimli5Cache11with_global14MAPPINGS_CACHE17h17189937677f65beE+24(%rip), %rbx
LBB86_6:
	testb	%dl, %dl
	jne	LBB86_21
	imulq	$360, %rcx, %r12
	testq	%rbx, %rbx
	je	LBB86_14
	cmpq	%r15, %r12
	je	LBB86_19
	testq	%r12, %r12
	je	LBB86_10
	movl	$8, %edx
	movq	%rbx, %rdi
	movq	%r12, %rsi
	movq	%r15, %rcx
	callq	___rust_realloc
	jmp	LBB86_18
LBB86_1:
	movq	__ZN9backtrace9symbolize5gimli5Cache11with_global14MAPPINGS_CACHE17h17189937677f65beE+24(%rip), %rbx
	imulq	$360, %rcx, %r12
	incq	%rcx
	movq	%rcx, %r13
	jmp	LBB86_2
LBB86_14:
	movb	%al, %sil
	shlq	$3, %rsi
	testq	%r15, %r15
	jne	LBB86_17
	movq	%rsi, %rbx
	testq	%rbx, %rbx
	jne	LBB86_12
	jmp	LBB86_20
LBB86_10:
	testq	%r15, %r15
	je	LBB86_11
	movl	$8, %esi
LBB86_17:
	movq	%r15, %rdi
	callq	___rust_alloc
LBB86_18:
	movq	%rax, %rbx
LBB86_19:
	testq	%rbx, %rbx
	je	LBB86_20
LBB86_12:
	movq	%rbx, __ZN9backtrace9symbolize5gimli5Cache11with_global14MAPPINGS_CACHE17h17189937677f65beE+24(%rip)
	movabsq	$3279421168659475843, %rcx
	movq	%r15, %rax
	mulq	%rcx
	shrq	$6, %rdx
	movq	%rdx, __ZN9backtrace9symbolize5gimli5Cache11with_global14MAPPINGS_CACHE17h17189937677f65beE+32(%rip)
LBB86_2:
	leaq	360(%rbx), %rdi
	movq	%rbx, %rsi
	movq	%r12, %rdx
	callq	_memmove
	movl	$360, %edx
	movq	%rbx, %rdi
	movq	%r14, %rsi
	callq	_memmove
	movq	%r13, __ZN9backtrace9symbolize5gimli5Cache11with_global14MAPPINGS_CACHE17h17189937677f65beE+40(%rip)
	addq	$8, %rsp
	popq	%rbx
	popq	%r12
	popq	%r13
	popq	%r14
	popq	%r15
	popq	%rbp
	retq
LBB86_11:
	movl	$8, %ebx
	jmp	LBB86_12
LBB86_21:
Ltmp53:
	callq	__ZN5alloc7raw_vec17capacity_overflow17h023f34f5bc34c61fE
Ltmp54:
	ud2
LBB86_20:
	movl	$8, %esi
	movq	%r15, %rdi
	callq	__ZN5alloc5alloc18handle_alloc_error17hbc0ab0ed90816c07E
LBB86_23:
Ltmp55:
	movq	%rax, %rbx
	movq	%r14, %rdi
	callq	__ZN4core3ptr13drop_in_place17h11b676c408901ab3E
	movq	%rbx, %rdi
	callq	__Unwind_Resume
	ud2
Lfunc_end13:
	.cfi_endproc
	.section	__TEXT,__gcc_except_tab
	.p2align	2
GCC_except_table86:
Lexception13:
	.byte	255
	.byte	255
	.byte	1
	.uleb128 Lcst_end13-Lcst_begin13
Lcst_begin13:
	.uleb128 Lfunc_begin13-Lfunc_begin13
	.uleb128 Ltmp53-Lfunc_begin13
	.byte	0
	.byte	0
	.uleb128 Ltmp53-Lfunc_begin13
	.uleb128 Ltmp54-Ltmp53
	.uleb128 Ltmp55-Lfunc_begin13
	.byte	0
	.uleb128 Ltmp54-Lfunc_begin13
	.uleb128 Lfunc_end13-Ltmp54
	.byte	0
	.byte	0
Lcst_end13:
	.p2align	2

	.section	__TEXT,__text,regular,pure_instructions
	.p2align	4, 0x90
__ZN5alloc3vec12Vec$LT$T$GT$7reserve17h0509b3017bafc412E:
	.cfi_startproc
	pushq	%rbp
	.cfi_def_cfa_offset 16
	.cfi_offset %rbp, -16
	movq	%rsp, %rbp
	.cfi_def_cfa_register %rbp
	pushq	%r14
	pushq	%rbx
	.cfi_offset %rbx, -32
	.cfi_offset %r14, -24
	movq	8(%rdi), %rcx
	movq	16(%rdi), %rax
	movq	%rcx, %rdx
	subq	%rax, %rdx
	cmpq	%rsi, %rdx
	jae	LBB87_17
	addq	%rsi, %rax
	jb	LBB87_18
	movq	%rdi, %rbx
	leaq	(%rcx,%rcx), %rdx
	cmpq	%rax, %rdx
	cmovaq	%rdx, %rax
	movl	$24, %edx
	xorl	%esi, %esi
	mulq	%rdx
	movq	%rax, %r14
	seto	%dl
	setno	%dil
	movq	%rcx, %rax
	testq	%rcx, %rcx
	je	LBB87_4
	movq	(%rbx), %rax
LBB87_4:
	testb	%dl, %dl
	jne	LBB87_18
	testq	%rax, %rax
	je	LBB87_11
	shlq	$3, %rcx
	leaq	(%rcx,%rcx,2), %rsi
	cmpq	%r14, %rsi
	je	LBB87_15
	testq	%rsi, %rsi
	je	LBB87_8
	movl	$8, %edx
	movq	%rax, %rdi
	movq	%r14, %rcx
	callq	___rust_realloc
	testq	%rax, %rax
	jne	LBB87_16
	jmp	LBB87_19
LBB87_11:
	movb	%dil, %sil
	shlq	$3, %rsi
	testq	%r14, %r14
	jne	LBB87_14
	movq	%rsi, %rax
	testq	%rax, %rax
	jne	LBB87_16
	jmp	LBB87_19
LBB87_8:
	testq	%r14, %r14
	je	LBB87_9
	movl	$8, %esi
LBB87_14:
	movq	%r14, %rdi
	callq	___rust_alloc
LBB87_15:
	testq	%rax, %rax
	je	LBB87_19
LBB87_16:
	movq	%rax, (%rbx)
	movabsq	$-6148914691236517205, %rcx
	movq	%r14, %rax
	mulq	%rcx
	shrq	$4, %rdx
	movq	%rdx, 8(%rbx)
LBB87_17:
	popq	%rbx
	popq	%r14
	popq	%rbp
	retq
LBB87_9:
	movl	$8, %eax
	jmp	LBB87_16
LBB87_18:
	callq	__ZN5alloc7raw_vec17capacity_overflow17h023f34f5bc34c61fE
LBB87_19:
	movl	$8, %esi
	movq	%r14, %rdi
	callq	__ZN5alloc5alloc18handle_alloc_error17hbc0ab0ed90816c07E
	.cfi_endproc

	.p2align	4, 0x90
__ZN5alloc3vec12Vec$LT$T$GT$7reserve17hc2bcb74ead5c6bf5E:
	.cfi_startproc
	pushq	%rbp
	.cfi_def_cfa_offset 16
	.cfi_offset %rbp, -16
	movq	%rsp, %rbp
	.cfi_def_cfa_register %rbp
	pushq	%r14
	pushq	%rbx
	.cfi_offset %rbx, -32
	.cfi_offset %r14, -24
	movq	%rsi, %rcx
	movq	8(%rdi), %rsi
	movq	16(%rdi), %rax
	movq	%rsi, %rdx
	subq	%rax, %rdx
	cmpq	%rcx, %rdx
	jae	LBB88_18
	addq	%rcx, %rax
	jb	LBB88_19
	movq	%rdi, %rbx
	leaq	(%rsi,%rsi), %rcx
	cmpq	%rax, %rcx
	cmovaq	%rcx, %rax
	movl	$64, %edx
	xorl	%ecx, %ecx
	mulq	%rdx
	movq	%rax, %r14
	seto	%dl
	setno	%dil
	movq	%rsi, %rax
	testq	%rsi, %rsi
	je	LBB88_4
	movq	(%rbx), %rax
LBB88_4:
	testb	%dl, %dl
	jne	LBB88_19
	testq	%rax, %rax
	je	LBB88_12
	shlq	$6, %rsi
	cmpq	%r14, %rsi
	je	LBB88_16
	testq	%rsi, %rsi
	je	LBB88_8
	movl	$8, %edx
	movq	%rax, %rdi
	movq	%r14, %rcx
	callq	___rust_realloc
	testq	%rax, %rax
	jne	LBB88_17
	jmp	LBB88_20
LBB88_12:
	movb	%dil, %cl
	shlq	$3, %rcx
	testq	%r14, %r14
	je	LBB88_13
	movq	%r14, %rdi
	movq	%rcx, %rsi
	jmp	LBB88_15
LBB88_13:
	movq	%rcx, %rax
	testq	%rax, %rax
	jne	LBB88_17
	jmp	LBB88_20
LBB88_8:
	testq	%r14, %r14
	je	LBB88_9
	movl	$8, %esi
	movq	%r14, %rdi
LBB88_15:
	callq	___rust_alloc
LBB88_16:
	testq	%rax, %rax
	je	LBB88_20
LBB88_17:
	movq	%rax, (%rbx)
	shrq	$6, %r14
	movq	%r14, 8(%rbx)
LBB88_18:
	popq	%rbx
	popq	%r14
	popq	%rbp
	retq
LBB88_9:
	movl	$8, %eax
	jmp	LBB88_17
LBB88_19:
	callq	__ZN5alloc7raw_vec17capacity_overflow17h023f34f5bc34c61fE
LBB88_20:
	movl	$8, %esi
	movq	%r14, %rdi
	callq	__ZN5alloc5alloc18handle_alloc_error17hbc0ab0ed90816c07E
	.cfi_endproc

	.p2align	4, 0x90
__ZN5alloc3vec12Vec$LT$T$GT$7reserve17hfd56bd370f03273dE:
	.cfi_startproc
	pushq	%rbp
	.cfi_def_cfa_offset 16
	.cfi_offset %rbp, -16
	movq	%rsp, %rbp
	.cfi_def_cfa_register %rbp
	pushq	%r14
	pushq	%rbx
	.cfi_offset %rbx, -32
	.cfi_offset %r14, -24
	movq	%rsi, %rcx
	movq	8(%rdi), %rsi
	movq	16(%rdi), %rax
	movq	%rsi, %rdx
	subq	%rax, %rdx
	cmpq	%rcx, %rdx
	jae	LBB89_18
	addq	%rcx, %rax
	jb	LBB89_19
	movq	%rdi, %rbx
	leaq	(%rsi,%rsi), %rcx
	cmpq	%rax, %rcx
	cmovaq	%rcx, %rax
	movl	$4, %edx
	xorl	%ecx, %ecx
	mulq	%rdx
	movq	%rax, %r14
	seto	%dl
	setno	%dil
	movq	%rsi, %rax
	testq	%rsi, %rsi
	je	LBB89_4
	movq	(%rbx), %rax
LBB89_4:
	testb	%dl, %dl
	jne	LBB89_19
	testq	%rax, %rax
	je	LBB89_12
	shlq	$2, %rsi
	cmpq	%r14, %rsi
	je	LBB89_16
	testq	%rsi, %rsi
	je	LBB89_8
	movl	$2, %edx
	movq	%rax, %rdi
	movq	%r14, %rcx
	callq	___rust_realloc
	testq	%rax, %rax
	jne	LBB89_17
	jmp	LBB89_20
LBB89_12:
	movb	%dil, %cl
	addq	%rcx, %rcx
	testq	%r14, %r14
	je	LBB89_13
	movq	%r14, %rdi
	movq	%rcx, %rsi
	jmp	LBB89_15
LBB89_13:
	movq	%rcx, %rax
	testq	%rax, %rax
	jne	LBB89_17
	jmp	LBB89_20
LBB89_8:
	testq	%r14, %r14
	je	LBB89_9
	movl	$2, %esi
	movq	%r14, %rdi
LBB89_15:
	callq	___rust_alloc
LBB89_16:
	testq	%rax, %rax
	je	LBB89_20
LBB89_17:
	movq	%rax, (%rbx)
	shrq	$2, %r14
	movq	%r14, 8(%rbx)
LBB89_18:
	popq	%rbx
	popq	%r14
	popq	%rbp
	retq
LBB89_9:
	movl	$2, %eax
	jmp	LBB89_17
LBB89_19:
	callq	__ZN5alloc7raw_vec17capacity_overflow17h023f34f5bc34c61fE
LBB89_20:
	movl	$2, %esi
	movq	%r14, %rdi
	callq	__ZN5alloc5alloc18handle_alloc_error17hbc0ab0ed90816c07E
	.cfi_endproc

	.p2align	4, 0x90
__ZN5alloc4sync12Arc$LT$T$GT$9drop_slow17h278ec8a3a9711ddbE:
Lfunc_begin14:
	.cfi_startproc
	.cfi_personality 155, _rust_eh_personality
	.cfi_lsda 16, Lexception14
	pushq	%rbp
	.cfi_def_cfa_offset 16
	.cfi_offset %rbp, -16
	movq	%rsp, %rbp
	.cfi_def_cfa_register %rbp
	pushq	%r14
	pushq	%rbx
	.cfi_offset %rbx, -32
	.cfi_offset %r14, -24
	movq	%rdi, %r14
	movq	(%rdi), %rbx
	leaq	16(%rbx), %rdi
Ltmp56:
	callq	__ZN65_$LT$std..sys..unix..fs..Dir$u20$as$u20$core..ops..drop..Drop$GT$4drop17h631b2cac7a4d3134E
Ltmp57:
	movq	24(%rbx), %rdi
	testq	%rdi, %rdi
	je	LBB90_4
	movq	32(%rbx), %rsi
	testq	%rsi, %rsi
	je	LBB90_4
	movl	$1, %edx
	callq	___rust_dealloc
LBB90_4:
	movq	(%r14), %rax
	lock		decq	8(%rax)
	jne	LBB90_5
	##MEMBARRIER
	movq	(%r14), %rdi
	movl	$48, %esi
	movl	$8, %edx
	popq	%rbx
	popq	%r14
	popq	%rbp
	jmp	___rust_dealloc
LBB90_5:
	popq	%rbx
	popq	%r14
	popq	%rbp
	retq
LBB90_6:
Ltmp58:
	movq	%rax, %r14
	addq	$24, %rbx
	movq	%rbx, %rdi
	callq	__ZN4core3ptr13drop_in_place17h7602d6c639aca58aE
	movq	%r14, %rdi
	callq	__Unwind_Resume
	ud2
Lfunc_end14:
	.cfi_endproc
	.section	__TEXT,__gcc_except_tab
	.p2align	2
GCC_except_table90:
Lexception14:
	.byte	255
	.byte	255
	.byte	1
	.uleb128 Lcst_end14-Lcst_begin14
Lcst_begin14:
	.uleb128 Ltmp56-Lfunc_begin14
	.uleb128 Ltmp57-Ltmp56
	.uleb128 Ltmp58-Lfunc_begin14
	.byte	0
	.uleb128 Ltmp57-Lfunc_begin14
	.uleb128 Lfunc_end14-Ltmp57
	.byte	0
	.byte	0
Lcst_end14:
	.p2align	2

	.section	__TEXT,__text,regular,pure_instructions
	.p2align	4, 0x90
__ZN5alloc5alloc8box_free17h64311117596d43d7E:
	.cfi_startproc
	pushq	%rbp
	.cfi_def_cfa_offset 16
	.cfi_offset %rbp, -16
	movq	%rsp, %rbp
	.cfi_def_cfa_register %rbp
	movl	$24, %esi
	movl	$8, %edx
	popq	%rbp
	jmp	___rust_dealloc
	.cfi_endproc

	.p2align	4, 0x90
__ZN5alloc5alloc8box_free17hcd5582844215ddb7E:
	.cfi_startproc
	pushq	%rbp
	.cfi_def_cfa_offset 16
	.cfi_offset %rbp, -16
	movq	%rsp, %rbp
	.cfi_def_cfa_register %rbp
	movl	$64, %esi
	movl	$8, %edx
	popq	%rbp
	jmp	___rust_dealloc
	.cfi_endproc

	.p2align	4, 0x90
__ZN5alloc5alloc8box_free17hf2199ce188876ce6E:
	.cfi_startproc
	pushq	%rbp
	.cfi_def_cfa_offset 16
	.cfi_offset %rbp, -16
	movq	%rsp, %rbp
	.cfi_def_cfa_register %rbp
	movq	%rsi, %rax
	movq	8(%rsi), %rsi
	testq	%rsi, %rsi
	je	LBB93_1
	movq	16(%rax), %rdx
	popq	%rbp
	jmp	___rust_dealloc
LBB93_1:
	popq	%rbp
	retq
	.cfi_endproc

	.p2align	4, 0x90
__ZN5alloc7raw_vec19RawVec$LT$T$C$A$GT$11allocate_in28_$u7b$$u7b$closure$u7d$$u7d$17h0362f76a9a8d04d1E:
	.cfi_startproc
	pushq	%rbp
	.cfi_def_cfa_offset 16
	.cfi_offset %rbp, -16
	movq	%rsp, %rbp
	.cfi_def_cfa_register %rbp
	callq	__ZN5alloc7raw_vec17capacity_overflow17h023f34f5bc34c61fE
	.cfi_endproc

	.p2align	4, 0x90
__ZN5alloc7raw_vec19RawVec$LT$T$C$A$GT$11allocate_in28_$u7b$$u7b$closure$u7d$$u7d$17h0650453af7cb4cb2E:
	.cfi_startproc
	pushq	%rbp
	.cfi_def_cfa_offset 16
	.cfi_offset %rbp, -16
	movq	%rsp, %rbp
	.cfi_def_cfa_register %rbp
	callq	__ZN5alloc5alloc18handle_alloc_error17hbc0ab0ed90816c07E
	.cfi_endproc

	.p2align	4, 0x90
__ZN5gimli4read4line15FileEntryFormat5parse17hfa682ad5fe947d4fE:
Lfunc_begin15:
	.cfi_startproc
	.cfi_personality 155, _rust_eh_personality
	.cfi_lsda 16, Lexception15
	pushq	%rbp
	.cfi_def_cfa_offset 16
	.cfi_offset %rbp, -16
	movq	%rsp, %rbp
	.cfi_def_cfa_register %rbp
	pushq	%r15
	pushq	%r14
	pushq	%r13
	pushq	%r12
	pushq	%rbx
	subq	$56, %rsp
	.cfi_offset %rbx, -56
	.cfi_offset %r12, -48
	.cfi_offset %r13, -40
	.cfi_offset %r14, -32
	.cfi_offset %r15, -24
	movq	%rsi, %r13
	movq	%rdi, %r14
	movq	8(%rsi), %rbx
	testq	%rbx, %rbx
	je	LBB96_2
	movq	(%r13), %rax
	leaq	1(%rax), %rcx
	decq	%rbx
	movq	%rcx, (%r13)
	movq	%rbx, 8(%r13)
	movzbl	(%rax), %r12d
	movl	$70, %ecx
	cmpb	$70, %cl
	jne	LBB96_9
LBB96_4:
	testq	%r12, %r12
	je	LBB96_5
	leaq	(,%r12,4), %r15
	movl	$2, %esi
	movq	%r15, %rdi
	callq	___rust_alloc
	testq	%rax, %rax
	je	LBB96_8
	movq	%rax, -80(%rbp)
	movq	%r12, -72(%rbp)
	movq	$0, -64(%rbp)
	xorl	%r8d, %r8d
	leaq	-80(%rbp), %rdi
	movl	$0, -52(%rbp)
	xorl	%r9d, %r9d
	xorl	%ecx, %ecx
LBB96_11:
	incq	%rcx
	movq	%rcx, -88(%rbp)
	addq	$-3, %rbx
	xorl	%ecx, %ecx
	xorl	%r15d, %r15d
	.p2align	4, 0x90
LBB96_12:
	cmpq	$-3, %rbx
	je	LBB96_23
	movq	(%r13), %r11
	leaq	1(%r11), %r10
	leaq	2(%rbx), %rdx
	movq	%r10, (%r13)
	movq	%rdx, 8(%r13)
	movzbl	(%r11), %edx
	cmpl	$63, %ecx
	jne	LBB96_16
	cmpb	$1, %dl
	ja	LBB96_15
LBB96_16:
	cmpl	$63, %ecx
	ja	LBB96_21
	movzbl	%dl, %esi
	movl	%esi, %edx
	andl	$127, %edx
	shlxq	%rcx, %rdx, %rdx
	orq	%rdx, %r15
	addl	$7, %ecx
	decq	%rbx
	testb	%sil, %sil
	js	LBB96_12
	movw	$-1, -42(%rbp)
	cmpq	$65535, %r15
	ja	LBB96_27
	cmpw	$1, %r15w
	jne	LBB96_20
	incl	-52(%rbp)
	jo	LBB96_52
	movw	$1, -42(%rbp)
	cmpq	$-3, %rbx
	jne	LBB96_28
	jmp	LBB96_40
LBB96_20:
	movl	%r15d, %ecx
	movw	%r15w, -42(%rbp)
LBB96_27:
	cmpq	$-3, %rbx
	je	LBB96_40
LBB96_28:
	leaq	2(%r11), %r10
	leaq	2(%rbx), %rcx
	movq	%r10, (%r13)
	movq	%rcx, 8(%r13)
	movzbl	1(%r11), %ecx
	movl	%ecx, %edx
	andl	$127, %edx
	movl	%edx, -48(%rbp)
	testb	%cl, %cl
	jns	LBB96_35
	cmpq	$-2, %rbx
	je	LBB96_40
	leaq	3(%r11), %r10
	leaq	1(%rbx), %rcx
	movq	%r10, (%r13)
	movq	%rcx, 8(%r13)
	movzbl	2(%r11), %ecx
	movl	%ecx, %edx
	andl	$127, %edx
	shll	$7, %edx
	movl	-48(%rbp), %esi
	movzwl	%si, %esi
	orl	%edx, %esi
	movl	%esi, -48(%rbp)
	testb	%cl, %cl
	jns	LBB96_35
	cmpq	$-1, %rbx
	je	LBB96_40
	leaq	4(%r11), %rcx
	movq	%rcx, (%r13)
	movq	%rbx, 8(%r13)
	movzbl	3(%r11), %ecx
	cmpw	$3, %cx
	ja	LBB96_33
	movzwl	%cx, %ecx
	shll	$14, %ecx
	movl	-48(%rbp), %edx
	movzwl	%dx, %edx
	orl	%ecx, %edx
	movl	%edx, -48(%rbp)
LBB96_35:
	cmpq	-72(%rbp), %r8
	jne	LBB96_38
Ltmp61:
	movl	$1, %esi
	movq	%rdi, %rbx
	callq	__ZN5alloc3vec12Vec$LT$T$GT$7reserve17hfd56bd370f03273dE
Ltmp62:
	movq	-80(%rbp), %rax
	movq	-64(%rbp), %r8
	movq	%rbx, %rdi
LBB96_38:
	movzwl	-42(%rbp), %ecx
	movw	%cx, (%rax,%r8,4)
	movl	-48(%rbp), %ecx
	movw	%cx, 2(%rax,%r8,4)
	incq	%r8
	movq	%r8, -64(%rbp)
	cmpq	%r12, -88(%rbp)
	je	LBB96_46
	andq	$-256, %r15
	movq	8(%r13), %rbx
	movq	%r15, %r9
	movq	-88(%rbp), %rcx
	jmp	LBB96_11
LBB96_2:
	movq	(%r13), %rax
	movl	$19, %ecx
	xorl	%ebx, %ebx
	xorl	%r12d, %r12d
	cmpb	$70, %cl
	je	LBB96_4
LBB96_9:
	movb	%cl, 8(%r14)
	movb	$0, 15(%r14)
	movw	$0, 13(%r14)
	movl	$0, 9(%r14)
	movq	%rax, 16(%r14)
	movq	$1, (%r14)
	jmp	LBB96_48
LBB96_5:
	movq	$2, -80(%rbp)
	movq	%r12, -72(%rbp)
	movq	$0, -64(%rbp)
	movl	$2, %eax
LBB96_6:
	movb	$67, 8(%r14)
	movq	$1, (%r14)
	movq	-72(%rbp), %rsi
	testq	%rsi, %rsi
	je	LBB96_48
LBB96_43:
	testq	%rax, %rax
	je	LBB96_48
	shlq	$2, %rsi
	testq	%rsi, %rsi
	je	LBB96_48
	movl	$2, %edx
	movq	%rax, %rdi
	callq	___rust_dealloc
	jmp	LBB96_48
LBB96_23:
	movq	(%r13), %rcx
	movl	$19, %edx
	xorl	%r9d, %r9d
	jmp	LBB96_24
LBB96_15:
	movl	$6, %edx
LBB96_24:
	orq	%r9, %rdx
	movq	%rdx, 8(%r14)
	movq	%rcx, 16(%r14)
	movq	$1, (%r14)
	movq	-72(%rbp), %rsi
	testq	%rsi, %rsi
	jne	LBB96_43
LBB96_48:
	addq	$56, %rsp
	popq	%rbx
	popq	%r12
	popq	%r13
	popq	%r14
	popq	%r15
	popq	%rbp
	retq
LBB96_40:
	movb	$19, %cl
LBB96_41:
	movb	%cl, 8(%r14)
	movb	$0, 15(%r14)
	movw	$0, 13(%r14)
	movl	$0, 9(%r14)
	movq	%r10, 16(%r14)
	movq	$1, (%r14)
	movq	-72(%rbp), %rsi
	testq	%rsi, %rsi
	jne	LBB96_43
	jmp	LBB96_48
LBB96_46:
	cmpl	$1, -52(%rbp)
	jne	LBB96_6
	movq	-64(%rbp), %rax
	movq	%rax, 24(%r14)
	vmovups	-80(%rbp), %xmm0
	vmovups	%xmm0, 8(%r14)
	movq	$0, (%r14)
	jmp	LBB96_48
LBB96_33:
	movb	$6, %cl
	jmp	LBB96_41
LBB96_21:
Ltmp64:
	leaq	_str.7(%rip), %rdi
	leaq	l___unnamed_25(%rip), %rdx
	movl	$35, %esi
	callq	__ZN4core9panicking5panic17h736ee47a631475c0E
Ltmp65:
LBB96_22:
	ud2
LBB96_8:
	movl	$2, %esi
	movq	%r15, %rdi
	callq	__ZN5alloc7raw_vec19RawVec$LT$T$C$A$GT$11allocate_in28_$u7b$$u7b$closure$u7d$$u7d$17h0650453af7cb4cb2E
LBB96_52:
Ltmp59:
	leaq	_str.0(%rip), %rdi
	leaq	l___unnamed_26(%rip), %rdx
	movl	$28, %esi
	callq	__ZN4core9panicking5panic17h736ee47a631475c0E
Ltmp60:
	jmp	LBB96_22
LBB96_50:
Ltmp66:
	jmp	LBB96_51
LBB96_49:
Ltmp63:
LBB96_51:
	movq	%rax, %rbx
	leaq	-80(%rbp), %rdi
	callq	__ZN4core3ptr13drop_in_place17hba514d88301f9898E
	movq	%rbx, %rdi
	callq	__Unwind_Resume
	ud2
Lfunc_end15:
	.cfi_endproc
	.section	__TEXT,__gcc_except_tab
	.p2align	2
GCC_except_table96:
Lexception15:
	.byte	255
	.byte	255
	.byte	1
	.uleb128 Lcst_end15-Lcst_begin15
Lcst_begin15:
	.uleb128 Ltmp61-Lfunc_begin15
	.uleb128 Ltmp62-Ltmp61
	.uleb128 Ltmp63-Lfunc_begin15
	.byte	0
	.uleb128 Ltmp64-Lfunc_begin15
	.uleb128 Ltmp60-Ltmp64
	.uleb128 Ltmp66-Lfunc_begin15
	.byte	0
	.uleb128 Ltmp60-Lfunc_begin15
	.uleb128 Lfunc_end15-Ltmp60
	.byte	0
	.byte	0
Lcst_end15:
	.p2align	2

	.section	__TEXT,__text,regular,pure_instructions
	.p2align	4, 0x90
__ZN5gimli4read4line15parse_attribute17ha0d97fb243145236E:
	.cfi_startproc
	pushq	%rbp
	.cfi_def_cfa_offset 16
	.cfi_offset %rbp, -16
	movq	%rsp, %rbp
	.cfi_def_cfa_register %rbp
	pushq	%rbx
	pushq	%rax
	.cfi_offset %rbx, -24
	shrl	$8, %edx
	leal	-3(%rcx), %eax
	cmpw	$37, %ax
	ja	LBB97_4
	movzwl	%ax, %eax
	leaq	LJTI97_0(%rip), %rcx
	movslq	(%rcx,%rax,4), %rax
	addq	%rcx, %rax
	jmpq	*%rax
LBB97_2:
	movq	8(%rsi), %rax
	cmpq	$2, %rax
	jb	LBB97_102
	movq	(%rsi), %rcx
	leaq	2(%rcx), %r11
	addq	$-2, %rax
	movq	%r11, (%rsi)
	movq	%rax, 8(%rsi)
	movzwl	(%rcx), %r10d
	subq	%r10, %rax
	jae	LBB97_89
	jmp	LBB97_71
LBB97_4:
	movzwl	%cx, %eax
	cmpl	$7938, %eax
	je	LBB97_9
	cmpl	$7969, %eax
	jne	LBB97_16
LBB97_6:
	movq	8(%rsi), %rax
	cmpb	$8, %dl
	jne	LBB97_86
	cmpq	$8, %rax
	jb	LBB97_102
	movq	(%rsi), %rcx
	leaq	8(%rcx), %rdx
	addq	$-8, %rax
	movq	%rdx, (%rsi)
	movq	%rax, 8(%rsi)
	movq	(%rcx), %r11
	jmp	LBB97_88
LBB97_9:
	movq	8(%rsi), %rax
	decq	%rax
	xorl	%ecx, %ecx
	xorl	%r11d, %r11d
	.p2align	4, 0x90
LBB97_10:
	cmpq	$-1, %rax
	je	LBB97_65
	movq	(%rsi), %rdx
	leaq	1(%rdx), %rbx
	movq	%rbx, (%rsi)
	movq	%rax, 8(%rsi)
	movzbl	(%rdx), %edx
	cmpl	$63, %ecx
	jne	LBB97_13
	cmpb	$1, %dl
	ja	LBB97_66
LBB97_13:
	cmpl	$63, %ecx
	ja	LBB97_121
	movzbl	%dl, %ebx
	movl	%ebx, %edx
	andl	$127, %edx
	shlxq	%rcx, %rdx, %rdx
	orq	%rdx, %r11
	addl	$7, %ecx
	decq	%rax
	testb	%bl, %bl
	js	LBB97_10
	movl	%r11d, %edx
	andl	$65280, %edx
	movl	%r11d, %esi
	andl	$-65536, %esi
	movabsq	$-4294967296, %r8
	andq	%r11, %r8
	movl	$29, %r9d
	jmp	LBB97_117
LBB97_16:
	movb	$12, 8(%rdi)
	movl	$1, %eax
	jmp	LBB97_119
LBB97_17:
	movq	8(%rsi), %rax
	cmpq	$3, %rax
	jb	LBB97_102
	movq	(%rsi), %rcx
	leaq	3(%rcx), %rdx
	addq	$-3, %rax
	movq	%rdx, (%rsi)
	movq	%rax, 8(%rsi)
	movzwl	(%rcx), %r11d
	movzbl	2(%rcx), %esi
	shll	$16, %esi
	orl	%r11d, %esi
	movl	%esi, %edx
	andl	$65280, %edx
	andl	$16711680, %esi
	jmp	LBB97_21
LBB97_19:
	movq	8(%rsi), %rax
	cmpq	$4, %rax
	jb	LBB97_102
	movq	(%rsi), %rcx
	leaq	4(%rcx), %rdx
	addq	$-4, %rax
	movq	%rdx, (%rsi)
	movq	%rax, 8(%rsi)
	movl	(%rcx), %r11d
	movl	%r11d, %edx
	andl	$65280, %edx
	movl	%r11d, %esi
	andl	$-65536, %esi
LBB97_21:
	movl	$29, %r9d
	xorl	%r8d, %r8d
	jmp	LBB97_117
LBB97_22:
	movq	8(%rsi), %rax
	cmpq	$16, %rax
	jb	LBB97_102
	movq	(%rsi), %r11
	leaq	16(%r11), %rcx
	addq	$-16, %rax
	movq	%rcx, (%rsi)
	movq	%rax, 8(%rsi)
	movl	%r11d, %edx
	andl	$65280, %edx
	movl	%r11d, %esi
	andl	$-65536, %esi
	movabsq	$-4294967296, %r8
	andq	%r11, %r8
	movl	$1, %r9d
	movl	$16, %r10d
	jmp	LBB97_118
LBB97_24:
	movq	8(%rsi), %rdx
	decq	%rdx
	xorl	%r8d, %r8d
	xorl	%r11d, %r11d
	cmpq	$-1, %rdx
	jne	LBB97_28
	jmp	LBB97_65
	.p2align	4, 0x90
LBB97_25:
	ja	LBB97_122
LBB97_26:
	movl	%eax, %ecx
	andl	$127, %ecx
	shlxq	%r8, %rcx, %rcx
	orq	%rcx, %r11
	addl	$7, %r8d
	decq	%rdx
	testb	%al, %al
	jns	LBB97_103
	cmpq	$-1, %rdx
	je	LBB97_65
LBB97_28:
	movq	(%rsi), %rax
	leaq	1(%rax), %rcx
	movq	%rcx, (%rsi)
	movq	%rdx, 8(%rsi)
	movzbl	(%rax), %eax
	cmpl	$63, %r8d
	jne	LBB97_25
	testb	%al, %al
	je	LBB97_26
	cmpb	$127, %al
	je	LBB97_26
	movl	$7, %ecx
	jmp	LBB97_67
LBB97_32:
	movq	8(%rsi), %rax
	testq	%rax, %rax
	je	LBB97_107
	movq	(%rsi), %rcx
	leaq	1(%rcx), %rdx
	decq	%rax
	movq	%rdx, (%rsi)
	movq	%rax, 8(%rsi)
	movb	(%rcx), %cl
	movl	$70, %edx
	cmpb	$70, %dl
	jne	LBB97_108
LBB97_34:
	testb	%cl, %cl
	setne	%r11b
	xorl	%r8d, %r8d
	movl	$9, %r9d
	jmp	LBB97_111
LBB97_35:
	movq	8(%rsi), %r8
	decq	%r8
	xorl	%ecx, %ecx
	xorl	%r11d, %r11d
	.p2align	4, 0x90
LBB97_36:
	cmpq	$-1, %r8
	je	LBB97_65
	movq	(%rsi), %rdx
	leaq	1(%rdx), %rax
	movq	%rax, (%rsi)
	movq	%r8, 8(%rsi)
	movzbl	(%rdx), %edx
	cmpl	$63, %ecx
	jne	LBB97_39
	cmpb	$1, %dl
	ja	LBB97_66
LBB97_39:
	cmpl	$63, %ecx
	ja	LBB97_121
	movzbl	%dl, %eax
	movl	%eax, %edx
	andl	$127, %edx
	shlxq	%rcx, %rdx, %rdx
	orq	%rdx, %r11
	addl	$7, %ecx
	decq	%r8
	testb	%al, %al
	js	LBB97_36
	movl	%r11d, %edx
	andl	$65280, %edx
	movl	%r11d, %esi
	andl	$-65536, %esi
	movabsq	$-4294967296, %r8
	andq	%r11, %r8
	movl	$7, %r9d
	jmp	LBB97_117
LBB97_42:
	movq	8(%rsi), %rax
	cmpb	$8, %dl
	jne	LBB97_91
	cmpq	$8, %rax
	jb	LBB97_102
	movq	(%rsi), %rcx
	leaq	8(%rcx), %rdx
	addq	$-8, %rax
	movq	%rdx, (%rsi)
	movq	%rax, 8(%rsi)
	movq	(%rcx), %r11
	jmp	LBB97_93
LBB97_45:
	movq	8(%rsi), %rax
	cmpq	$2, %rax
	jae	LBB97_94
	movq	(%rsi), %rax
	movl	$19, %ecx
	xorl	%r11d, %r11d
	cmpb	$70, %cl
	je	LBB97_95
	jmp	LBB97_112
LBB97_47:
	movq	(%rsi), %r11
	movq	8(%rsi), %r8
	xorl	%edx, %edx
	.p2align	4, 0x90
LBB97_48:
	cmpq	%rdx, %r8
	je	LBB97_71
	movzbl	(%r11,%rdx), %eax
	incq	%rdx
	testb	%al, %al
	jne	LBB97_48
	cmpb	$1, %al
	movb	$1, %r9b
	movb	$1, %cl
	adcb	$0, %cl
	movzbl	%cl, %ecx
	andl	$1, %ecx
	leaq	(%rcx,%rdx), %r10
	addq	$-1, %r10
	cmpq	%r10, %r8
	jb	LBB97_71
	cmpb	$1, %al
	adcb	$0, %r9b
	movzbl	%r9b, %ebx
	andl	$1, %ebx
	leaq	(%r11,%rbx), %rcx
	leaq	(%rdx,%rcx), %r9
	addq	$-1, %r9
	movq	%r8, %rcx
	subq	%rbx, %rcx
	movq	%rcx, %rbx
	subq	%rdx, %rbx
	incq	%rbx
	incq	%rcx
	movq	%r9, (%rsi)
	movq	%rbx, 8(%rsi)
	cmpq	%rdx, %rcx
	jne	LBB97_120
	movq	%r9, %r11
	jmp	LBB97_71
LBB97_53:
	movq	8(%rsi), %rax
	cmpq	$8, %rax
	jb	LBB97_102
	movq	(%rsi), %rcx
	leaq	8(%rcx), %rdx
	addq	$-8, %rax
	movq	%rdx, (%rsi)
	movq	%rax, 8(%rsi)
	movq	(%rcx), %r11
	movl	%r11d, %edx
	andl	$65280, %edx
	movl	%r11d, %esi
	andl	$-65536, %esi
	movabsq	$-4294967296, %r8
	andq	%r11, %r8
	movl	$5, %r9d
	jmp	LBB97_117
LBB97_55:
	movq	8(%rsi), %rax
	cmpq	$4, %rax
	jb	LBB97_102
	movq	(%rsi), %rcx
	leaq	4(%rcx), %r11
	addq	$-4, %rax
	movq	%r11, (%rsi)
	movq	%rax, 8(%rsi)
	movl	(%rcx), %r10d
	subq	%r10, %rax
	jb	LBB97_71
	jmp	LBB97_89
LBB97_57:
	movq	8(%rsi), %rdx
	movq	%rdx, %r9
	negq	%r9
	decq	%rdx
	xorl	%eax, %eax
	xorl	%r10d, %r10d
	.p2align	4, 0x90
LBB97_58:
	testq	%r9, %r9
	je	LBB97_65
	movq	(%rsi), %rcx
	leaq	1(%rcx), %r11
	movq	%r11, (%rsi)
	movq	%rdx, 8(%rsi)
	movzbl	(%rcx), %r8d
	cmpl	$63, %eax
	jne	LBB97_61
	cmpb	$1, %r8b
	ja	LBB97_66
LBB97_61:
	cmpl	$63, %eax
	ja	LBB97_121
	movzbl	%r8b, %r8d
	movl	%r8d, %ecx
	andl	$127, %ecx
	shlxq	%rax, %rcx, %rcx
	orq	%rcx, %r10
	addl	$7, %eax
	incq	%r9
	decq	%rdx
	testb	%r8b, %r8b
	js	LBB97_58
	movq	%r9, %rax
	negq	%rax
	cmpq	%r10, %rax
	jb	LBB97_71
	leaq	(%r11,%r10), %rax
	addq	%r10, %r9
	negq	%r9
	movq	%rax, (%rsi)
	movq	%r9, 8(%rsi)
	jmp	LBB97_90
LBB97_65:
	movq	(%rsi), %rax
	movl	$19, %ecx
	jmp	LBB97_68
LBB97_66:
	movl	$6, %ecx
LBB97_67:
LBB97_68:
	movq	%rcx, 8(%rdi)
	jmp	LBB97_114
LBB97_69:
	movq	8(%rsi), %rax
	testq	%rax, %rax
	je	LBB97_102
	movq	(%rsi), %rcx
	leaq	1(%rcx), %r11
	decq	%rax
	movq	%r11, (%rsi)
	movq	%rax, 8(%rsi)
	movzbl	(%rcx), %r10d
	subq	%r10, %rax
	jae	LBB97_89
LBB97_71:
	movq	$19, 8(%rdi)
	movq	%r11, 16(%rdi)
	movl	$1, %eax
	jmp	LBB97_119
LBB97_72:
	movq	8(%rsi), %rax
	testq	%rax, %rax
	je	LBB97_109
	movq	(%rsi), %rcx
	leaq	1(%rcx), %rdx
	decq	%rax
	movq	%rdx, (%rsi)
	movq	%rax, 8(%rsi)
	movb	(%rcx), %r11b
	movl	$70, %ecx
	cmpb	$70, %cl
	jne	LBB97_112
	jmp	LBB97_110
LBB97_74:
	movq	8(%rsi), %rax
	cmpq	$2, %rax
	jb	LBB97_102
	movq	(%rsi), %rcx
	leaq	2(%rcx), %rdx
	addq	$-2, %rax
	movq	%rdx, (%rsi)
	movq	%rax, 8(%rsi)
	movzwl	(%rcx), %r11d
	movl	%r11d, %edx
	andl	$65280, %edx
	xorl	%r8d, %r8d
	movl	$29, %r9d
	xorl	%esi, %esi
	jmp	LBB97_118
LBB97_76:
	movq	8(%rsi), %rax
	cmpq	$4, %rax
	jae	LBB97_96
	movq	(%rsi), %rax
	movl	$19, %ecx
	xorl	%r11d, %r11d
	cmpb	$70, %cl
	jne	LBB97_112
	jmp	LBB97_97
LBB97_78:
	movq	8(%rsi), %rax
	testq	%rax, %rax
	je	LBB97_102
	movq	(%rsi), %rcx
	leaq	1(%rcx), %rdx
	decq	%rax
	movq	%rdx, (%rsi)
	movq	%rax, 8(%rsi)
	movb	(%rcx), %r11b
	xorl	%r8d, %r8d
	movl	$29, %r9d
	jmp	LBB97_111
LBB97_80:
	movq	8(%rsi), %rax
	cmpb	$8, %dl
	jne	LBB97_98
	cmpq	$8, %rax
	jb	LBB97_102
	movq	(%rsi), %rcx
	leaq	8(%rcx), %rdx
	addq	$-8, %rax
	movq	%rdx, (%rsi)
	movq	%rax, 8(%rsi)
	movq	(%rcx), %r11
	jmp	LBB97_100
LBB97_83:
	movq	8(%rsi), %rax
	cmpb	$8, %dl
	jne	LBB97_101
	cmpq	$8, %rax
	jb	LBB97_102
	movq	(%rsi), %rcx
	leaq	8(%rcx), %rdx
	addq	$-8, %rax
	movq	%rdx, (%rsi)
	movq	%rax, 8(%rsi)
	movq	(%rcx), %r11
	jmp	LBB97_116
LBB97_86:
	cmpq	$4, %rax
	jb	LBB97_102
	movq	(%rsi), %rcx
	leaq	4(%rcx), %rdx
	addq	$-4, %rax
	movq	%rdx, (%rsi)
	movq	%rax, 8(%rsi)
	movl	(%rcx), %r11d
LBB97_88:
	movl	%r11d, %edx
	andl	$65280, %edx
	movl	%r11d, %esi
	andl	$-65536, %esi
	movabsq	$-4294967296, %r8
	andq	%r11, %r8
	movl	$27, %r9d
	jmp	LBB97_117
LBB97_89:
	leaq	(%r11,%r10), %rcx
	movq	%rcx, (%rsi)
	movq	%rax, 8(%rsi)
LBB97_90:
	movl	%r11d, %edx
	andl	$65280, %edx
	movl	%r11d, %esi
	andl	$-65536, %esi
	movabsq	$-4294967296, %r8
	andq	%r11, %r8
	movl	$1, %r9d
	jmp	LBB97_118
LBB97_91:
	cmpq	$4, %rax
	jb	LBB97_102
	movq	(%rsi), %rcx
	leaq	4(%rcx), %rdx
	addq	$-4, %rax
	movq	%rdx, (%rsi)
	movq	%rax, 8(%rsi)
	movl	(%rcx), %r11d
LBB97_93:
	movl	%r11d, %edx
	andl	$65280, %edx
	movl	%r11d, %esi
	andl	$-65536, %esi
	movabsq	$-4294967296, %r8
	andq	%r11, %r8
	movl	$26, %r9d
	jmp	LBB97_117
LBB97_94:
	movq	(%rsi), %rcx
	leaq	2(%rcx), %rdx
	addq	$-2, %rax
	movq	%rdx, (%rsi)
	movq	%rax, 8(%rsi)
	movzwl	(%rcx), %r11d
	movl	$70, %ecx
	cmpb	$70, %cl
	jne	LBB97_112
LBB97_95:
	movl	%r11d, %edx
	andl	$65280, %edx
	xorl	%r8d, %r8d
	movl	$3, %r9d
	xorl	%esi, %esi
	jmp	LBB97_118
LBB97_96:
	movq	(%rsi), %rcx
	leaq	4(%rcx), %rdx
	addq	$-4, %rax
	movq	%rdx, (%rsi)
	movq	%rax, 8(%rsi)
	movl	(%rcx), %r11d
	movl	$70, %ecx
	cmpb	$70, %cl
	jne	LBB97_112
LBB97_97:
	movl	%r11d, %edx
	andl	$65280, %edx
	movl	%r11d, %esi
	andl	$-65536, %esi
	movl	$4, %r9d
	xorl	%r8d, %r8d
	jmp	LBB97_117
LBB97_98:
	cmpq	$4, %rax
	jb	LBB97_102
	movq	(%rsi), %rcx
	leaq	4(%rcx), %rdx
	addq	$-4, %rax
	movq	%rdx, (%rsi)
	movq	%rax, 8(%rsi)
	movl	(%rcx), %r11d
LBB97_100:
	movl	%r11d, %edx
	andl	$65280, %edx
	movl	%r11d, %esi
	andl	$-65536, %esi
	movabsq	$-4294967296, %r8
	andq	%r11, %r8
	movl	$10, %r9d
	jmp	LBB97_117
LBB97_101:
	cmpq	$4, %rax
	jae	LBB97_115
LBB97_102:
	movq	(%rsi), %rax
	movq	$19, 8(%rdi)
	jmp	LBB97_114
LBB97_103:
	cmpl	$63, %r8d
	ja	LBB97_106
	andb	$64, %al
	je	LBB97_106
	movq	$-1, %rax
	shlxq	%r8, %rax, %rax
	orq	%rax, %r11
LBB97_106:
	movl	%r11d, %edx
	andl	$65280, %edx
	movl	%r11d, %esi
	andl	$-65536, %esi
	movabsq	$-4294967296, %r8
	andq	%r11, %r8
	movl	$6, %r9d
	jmp	LBB97_117
LBB97_107:
	movq	(%rsi), %rax
	movl	$19, %edx
	xorl	%ecx, %ecx
	cmpb	$70, %dl
	je	LBB97_34
LBB97_108:
	movb	%dl, 8(%rdi)
	jmp	LBB97_113
LBB97_109:
	movq	(%rsi), %rax
	movl	$19, %ecx
	xorl	%r11d, %r11d
	cmpb	$70, %cl
	jne	LBB97_112
LBB97_110:
	xorl	%r8d, %r8d
	movl	$2, %r9d
LBB97_111:
	xorl	%esi, %esi
	xorl	%edx, %edx
	jmp	LBB97_118
LBB97_112:
	movb	%cl, 8(%rdi)
LBB97_113:
	movb	$0, 15(%rdi)
	movw	$0, 13(%rdi)
	movl	$0, 9(%rdi)
LBB97_114:
	movq	%rax, 16(%rdi)
	movl	$1, %eax
	jmp	LBB97_119
LBB97_115:
	movq	(%rsi), %rcx
	leaq	4(%rcx), %rdx
	addq	$-4, %rax
	movq	%rdx, (%rsi)
	movq	%rax, 8(%rsi)
	movl	(%rcx), %r11d
LBB97_116:
	movl	%r11d, %edx
	andl	$65280, %edx
	movl	%r11d, %esi
	andl	$-65536, %esi
	movabsq	$-4294967296, %r8
	andq	%r11, %r8
	movl	$30, %r9d
LBB97_117:
LBB97_118:
	movq	%r9, 8(%rdi)
	movzbl	%r11b, %eax
	orl	%eax, %edx
	movzwl	%dx, %eax
	orl	%esi, %eax
	orq	%r8, %rax
	movq	%rax, 16(%rdi)
	movq	%r10, 24(%rdi)
	xorl	%eax, %eax
LBB97_119:
	movq	%rax, (%rdi)
	addq	$8, %rsp
	popq	%rbx
	popq	%rbp
	retq
LBB97_120:
	cmpb	$1, %al
	movb	$1, %al
	adcb	$0, %al
	movzbl	%al, %eax
	andl	$1, %eax
	leaq	(%r11,%rax), %rcx
	addq	%rdx, %rcx
	subq	%rax, %r8
	subq	%rdx, %r8
	movq	%rcx, (%rsi)
	movq	%r8, 8(%rsi)
	movl	%r11d, %edx
	andl	$65280, %edx
	movl	%r11d, %esi
	andl	$-65536, %esi
	movabsq	$-4294967296, %r8
	andq	%r11, %r8
	movl	$31, %r9d
	jmp	LBB97_118
LBB97_121:
	leaq	_str.7(%rip), %rdi
	leaq	l___unnamed_25(%rip), %rdx
	movl	$35, %esi
	callq	__ZN4core9panicking5panic17h736ee47a631475c0E
LBB97_122:
	leaq	_str.7(%rip), %rdi
	leaq	l___unnamed_27(%rip), %rdx
	movl	$35, %esi
	callq	__ZN4core9panicking5panic17h736ee47a631475c0E
	.cfi_endproc
	.p2align	2, 0x90
	.data_region jt32
.set L97_0_set_2, LBB97_2-LJTI97_0
.set L97_0_set_55, LBB97_55-LJTI97_0
.set L97_0_set_45, LBB97_45-LJTI97_0
.set L97_0_set_76, LBB97_76-LJTI97_0
.set L97_0_set_53, LBB97_53-LJTI97_0
.set L97_0_set_47, LBB97_47-LJTI97_0
.set L97_0_set_57, LBB97_57-LJTI97_0
.set L97_0_set_69, LBB97_69-LJTI97_0
.set L97_0_set_72, LBB97_72-LJTI97_0
.set L97_0_set_32, LBB97_32-LJTI97_0
.set L97_0_set_24, LBB97_24-LJTI97_0
.set L97_0_set_42, LBB97_42-LJTI97_0
.set L97_0_set_35, LBB97_35-LJTI97_0
.set L97_0_set_16, LBB97_16-LJTI97_0
.set L97_0_set_80, LBB97_80-LJTI97_0
.set L97_0_set_9, LBB97_9-LJTI97_0
.set L97_0_set_6, LBB97_6-LJTI97_0
.set L97_0_set_22, LBB97_22-LJTI97_0
.set L97_0_set_83, LBB97_83-LJTI97_0
.set L97_0_set_78, LBB97_78-LJTI97_0
.set L97_0_set_74, LBB97_74-LJTI97_0
.set L97_0_set_17, LBB97_17-LJTI97_0
.set L97_0_set_19, LBB97_19-LJTI97_0
LJTI97_0:
	.long	L97_0_set_2
	.long	L97_0_set_55
	.long	L97_0_set_45
	.long	L97_0_set_76
	.long	L97_0_set_53
	.long	L97_0_set_47
	.long	L97_0_set_57
	.long	L97_0_set_69
	.long	L97_0_set_72
	.long	L97_0_set_32
	.long	L97_0_set_24
	.long	L97_0_set_42
	.long	L97_0_set_35
	.long	L97_0_set_16
	.long	L97_0_set_16
	.long	L97_0_set_16
	.long	L97_0_set_16
	.long	L97_0_set_16
	.long	L97_0_set_16
	.long	L97_0_set_16
	.long	L97_0_set_80
	.long	L97_0_set_16
	.long	L97_0_set_16
	.long	L97_0_set_9
	.long	L97_0_set_16
	.long	L97_0_set_16
	.long	L97_0_set_6
	.long	L97_0_set_22
	.long	L97_0_set_83
	.long	L97_0_set_16
	.long	L97_0_set_16
	.long	L97_0_set_16
	.long	L97_0_set_16
	.long	L97_0_set_16
	.long	L97_0_set_78
	.long	L97_0_set_74
	.long	L97_0_set_17
	.long	L97_0_set_19
	.end_data_region

	.p2align	4, 0x90
__ZN5gimli4read4line27FileEntry$LT$R$C$Offset$GT$5parse17hc3f30c5ed1211798E:
	.cfi_startproc
	pushq	%rbp
	.cfi_def_cfa_offset 16
	.cfi_offset %rbp, -16
	movq	%rsp, %rbp
	.cfi_def_cfa_register %rbp
	pushq	%r15
	pushq	%r14
	pushq	%r12
	pushq	%rbx
	.cfi_offset %rbx, -48
	.cfi_offset %r12, -40
	.cfi_offset %r14, -32
	.cfi_offset %r15, -24
	movq	8(%rsi), %r15
	decq	%r15
	xorl	%ebx, %ebx
	xorl	%r8d, %r8d
	.p2align	4, 0x90
LBB98_1:
	cmpq	$-1, %r15
	je	LBB98_19
	movq	(%rsi), %rax
	leaq	1(%rax), %r11
	movq	%r11, (%rsi)
	movq	%r15, 8(%rsi)
	movzbl	(%rax), %eax
	cmpl	$63, %ebx
	jne	LBB98_4
	cmpb	$1, %al
	ja	LBB98_20
LBB98_4:
	cmpl	$63, %ebx
	ja	LBB98_30
	movzbl	%al, %r9d
	movl	%r9d, %eax
	andl	$127, %eax
	shlxq	%rbx, %rax, %rax
	orq	%rax, %r8
	addl	$7, %ebx
	decq	%r15
	testb	%r9b, %r9b
	js	LBB98_1
	xorl	%ebx, %ebx
	xorl	%r9d, %r9d
	.p2align	4, 0x90
LBB98_7:
	cmpq	$-1, %r15
	je	LBB98_22
	leaq	1(%r11), %r10
	movq	%r10, (%rsi)
	movq	%r15, 8(%rsi)
	movzbl	(%r11), %eax
	cmpl	$63, %ebx
	jne	LBB98_10
	cmpb	$1, %al
	ja	LBB98_23
LBB98_10:
	cmpl	$63, %ebx
	ja	LBB98_30
	movzbl	%al, %r14d
	movl	%r14d, %eax
	andl	$127, %eax
	shlxq	%rbx, %rax, %rax
	orq	%rax, %r9
	addl	$7, %ebx
	decq	%r15
	movq	%r10, %r11
	testb	%r14b, %r14b
	js	LBB98_7
	xorl	%ebx, %ebx
	xorl	%r11d, %r11d
	.p2align	4, 0x90
LBB98_13:
	cmpq	$-1, %r15
	je	LBB98_25
	leaq	1(%r10), %r14
	movq	%r14, (%rsi)
	movq	%r15, 8(%rsi)
	movzbl	(%r10), %eax
	cmpl	$63, %ebx
	jne	LBB98_16
	cmpb	$1, %al
	ja	LBB98_26
LBB98_16:
	cmpl	$63, %ebx
	ja	LBB98_30
	movzbl	%al, %r12d
	movl	%r12d, %eax
	andl	$127, %eax
	shlxq	%rbx, %rax, %rax
	orq	%rax, %r11
	addl	$7, %ebx
	decq	%r15
	movq	%r14, %r10
	testb	%r12b, %r12b
	js	LBB98_13
	movq	$31, 8(%rdi)
	movq	%rdx, 16(%rdi)
	movq	%rcx, 24(%rdi)
	movq	%r8, 32(%rdi)
	movq	%r9, 40(%rdi)
	movq	%r11, 48(%rdi)
	vxorps	%xmm0, %xmm0, %xmm0
	vmovups	%xmm0, 56(%rdi)
	xorl	%eax, %eax
	jmp	LBB98_29
LBB98_19:
	movq	(%rsi), %rcx
	movl	$19, %eax
	jmp	LBB98_21
LBB98_20:
	movl	$6, %eax
LBB98_21:
	movq	%rax, 8(%rdi)
	movq	%rcx, 16(%rdi)
	jmp	LBB98_28
LBB98_22:
	movl	$19, %eax
	jmp	LBB98_24
LBB98_23:
	movl	$6, %eax
LBB98_24:
	movq	%rax, 8(%rdi)
	movq	%r11, 16(%rdi)
	jmp	LBB98_28
LBB98_25:
	movl	$19, %eax
	jmp	LBB98_27
LBB98_26:
	movl	$6, %eax
LBB98_27:
	movq	%rax, 8(%rdi)
	movq	%r10, 16(%rdi)
LBB98_28:
	movl	$1, %eax
LBB98_29:
	movq	%rax, (%rdi)
	popq	%rbx
	popq	%r12
	popq	%r14
	popq	%r15
	popq	%rbp
	retq
LBB98_30:
	leaq	_str.7(%rip), %rdi
	leaq	l___unnamed_25(%rip), %rdx
	movl	$35, %esi
	callq	__ZN4core9panicking5panic17h736ee47a631475c0E
	.cfi_endproc

	.p2align	4, 0x90
__ZN5gimli4read4unit15parse_attribute17ha3784630ccbc2dc5E:
	.cfi_startproc
	pushq	%rbp
	.cfi_def_cfa_offset 16
	.cfi_offset %rbp, -16
	movq	%rsp, %rbp
	.cfi_def_cfa_register %rbp
	pushq	%r15
	pushq	%r14
	pushq	%r13
	pushq	%r12
	pushq	%rbx
	subq	$24, %rsp
	.cfi_offset %rbx, -56
	.cfi_offset %r12, -48
	.cfi_offset %r13, -40
	.cfi_offset %r14, -32
	.cfi_offset %r15, -24
	movl	%r8d, -52(%rbp)
	movq	%rsi, %r12
	movq	%rdi, -48(%rbp)
	movl	%edx, %r8d
	shrl	$8, %r8d
	movl	%edx, %esi
	shrl	$16, %esi
	leaq	8(%r12), %r13
	movl	%r9d, %edi
	.p2align	4, 0x90
LBB99_1:
	cmpw	$22, %di
	jne	LBB99_9
LBB99_2:
	movq	(%r13), %rbx
	testq	%rbx, %rbx
	je	LBB99_15
	movq	(%r12), %r14
	leaq	1(%r14), %r10
	leaq	-1(%rbx), %r11
	movq	%r10, (%r12)
	movq	%r11, 8(%r12)
	movzbl	(%r14), %eax
	movl	%eax, %edi
	andl	$127, %edi
	testb	%al, %al
	jns	LBB99_1
	testq	%r11, %r11
	je	LBB99_16
	leaq	2(%r14), %r10
	leaq	-2(%rbx), %r11
	movq	%r10, (%r12)
	movq	%r11, 8(%r12)
	movzbl	1(%r14), %r15d
	movl	%r15d, %eax
	andl	$127, %eax
	shll	$7, %eax
	movzwl	%di, %edi
	orl	%eax, %edi
	testb	%r15b, %r15b
	jns	LBB99_1
	testq	%r11, %r11
	je	LBB99_16
	leaq	3(%r14), %rax
	addq	$-3, %rbx
	movq	%rax, (%r12)
	movq	%rbx, 8(%r12)
	movzbl	2(%r14), %eax
	cmpw	$3, %ax
	ja	LBB99_20
	movzwl	%ax, %eax
	shll	$14, %eax
	movzwl	%di, %edi
	orl	%eax, %edi
	cmpw	$22, %di
	je	LBB99_2
LBB99_9:
	leal	-1(%rdi), %eax
	cmpw	$43, %ax
	ja	LBB99_21
	movzwl	%ax, %eax
	leaq	LJTI99_0(%rip), %rdi
	movslq	(%rdi,%rax,4), %rax
	addq	%rdi, %rax
	jmpq	*%rax
LBB99_11:
	movl	$23, %ecx
	leal	-1(%rdx), %eax
	cmpb	$7, %al
	ja	LBB99_244
	movzbl	%al, %eax
	leaq	LJTI99_3(%rip), %rsi
	movslq	(%rsi,%rax,4), %rax
	addq	%rsi, %rax
	jmpq	*%rax
LBB99_13:
	movq	(%r13), %rax
	testq	%rax, %rax
	je	LBB99_248
	movq	(%r12), %rcx
	leaq	1(%rcx), %rdx
	decq	%rax
	movq	%rdx, (%r12)
	movq	%rax, 8(%r12)
	movzbl	(%rcx), %ecx
	movl	$70, %edx
	jmp	LBB99_249
LBB99_15:
	movq	(%r12), %r10
LBB99_16:
	movb	$19, %al
LBB99_17:
	movq	-48(%rbp), %rsi
	movb	%al, 8(%rsi)
	movb	$0, 15(%rsi)
	movw	$0, 13(%rsi)
	movl	$0, 9(%rsi)
	movq	%r10, 16(%rsi)
LBB99_18:
	movl	$1, %eax
LBB99_19:
	movq	%rax, (%rsi)
	addq	$24, %rsp
	popq	%rbx
	popq	%r12
	popq	%r13
	popq	%r14
	popq	%r15
	popq	%rbp
	retq
LBB99_20:
	movb	$6, %al
	jmp	LBB99_17
LBB99_21:
	addl	$-7937, %edi
	cmpw	$32, %di
	ja	LBB99_187
	movzwl	%di, %eax
	leaq	LJTI99_1(%rip), %rcx
	movslq	(%rcx,%rax,4), %rax
	addq	%rcx, %rax
	jmpq	*%rax
LBB99_23:
	movq	(%r13), %rax
	decq	%rax
	xorl	%edx, %edx
	xorl	%ecx, %ecx
LBB99_24:
	cmpq	$-1, %rax
	je	LBB99_169
	movq	(%r12), %rsi
	leaq	1(%rsi), %rdi
	movq	%rdi, (%r12)
	movq	%rax, 8(%r12)
	movzbl	(%rsi), %ebx
	cmpl	$63, %edx
	jne	LBB99_27
	cmpb	$1, %bl
	ja	LBB99_170
LBB99_27:
	cmpl	$63, %edx
	ja	LBB99_256
	movzbl	%bl, %esi
	movl	%esi, %edi
	andl	$127, %edi
	shlxq	%rdx, %rdi, %rdi
	orq	%rdi, %rcx
	addl	$7, %edx
	decq	%rax
	testb	%sil, %sil
	js	LBB99_24
	movl	%ecx, %eax
	andl	$65280, %eax
	movl	%ecx, %edx
	andl	$-65536, %edx
	movabsq	$-4294967296, %rbx
	andq	%rcx, %rbx
	movl	$12, %edi
	jmp	LBB99_182
LBB99_30:
	movq	(%r13), %rax
	cmpb	$8, %r8b
	jne	LBB99_43
	cmpq	$8, %rax
	jb	LBB99_225
	movq	(%r12), %rcx
	leaq	8(%rcx), %rdx
	addq	$-8, %rax
	movq	%rdx, (%r12)
	movq	%rax, 8(%r12)
	movq	(%rcx), %rcx
	jmp	LBB99_45
LBB99_33:
	movq	(%r13), %rax
	decq	%rax
	xorl	%edx, %edx
	xorl	%ecx, %ecx
LBB99_34:
	cmpq	$-1, %rax
	je	LBB99_169
	movq	(%r12), %rsi
	leaq	1(%rsi), %rdi
	movq	%rdi, (%r12)
	movq	%rax, 8(%r12)
	movzbl	(%rsi), %ebx
	cmpl	$63, %edx
	jne	LBB99_37
	cmpb	$1, %bl
	ja	LBB99_170
LBB99_37:
	cmpl	$63, %edx
	ja	LBB99_256
	movzbl	%bl, %esi
	movl	%esi, %edi
	andl	$127, %edi
	shlxq	%rdx, %rdi, %rdi
	orq	%rdi, %rcx
	addl	$7, %edx
	decq	%rax
	testb	%sil, %sil
	js	LBB99_34
	movl	%ecx, %eax
	andl	$65280, %eax
	movl	%ecx, %edx
	andl	$-65536, %edx
	movabsq	$-4294967296, %rbx
	andq	%rcx, %rbx
	movl	$29, %edi
	jmp	LBB99_182
LBB99_40:
	movq	(%r13), %rax
	cmpb	$8, %r8b
	je	LBB99_146
	cmpq	$4, %rax
	jb	LBB99_225
	movq	(%r12), %rcx
	leaq	4(%rcx), %rdx
	addq	$-4, %rax
	movq	%rdx, (%r12)
	movq	%rax, 8(%r12)
	movl	(%rcx), %ecx
	jmp	LBB99_148
LBB99_43:
	cmpq	$4, %rax
	jb	LBB99_225
	movq	(%r12), %rcx
	leaq	4(%rcx), %rdx
	addq	$-4, %rax
	movq	%rdx, (%r12)
	movq	%rax, 8(%r12)
	movl	(%rcx), %ecx
LBB99_45:
	movl	%ecx, %eax
	andl	$65280, %eax
	movl	%ecx, %edx
	andl	$-65536, %edx
	movabsq	$-4294967296, %rbx
	andq	%rcx, %rbx
	movl	$27, %edi
	jmp	LBB99_182
LBB99_46:
	movq	(%r13), %rax
	cmpq	$4, %rax
	jb	LBB99_225
	movq	(%r12), %rcx
	leaq	4(%rcx), %rdx
	addq	$-4, %rax
	movq	%rdx, (%r12)
	movq	%rax, 8(%r12)
	movl	(%rcx), %ecx
	movl	%ecx, %eax
	andl	$65280, %eax
	movl	%ecx, %edx
	andl	$-65536, %edx
	movl	$29, %edi
	jmp	LBB99_181
LBB99_48:
	movq	(%r13), %rdx
	movq	%rdx, %rax
	negq	%rax
	decq	%rdx
	xorl	%edi, %edi
	xorl	%r8d, %r8d
LBB99_49:
	testq	%rax, %rax
	je	LBB99_192
	movq	(%r12), %rsi
	leaq	1(%rsi), %rcx
	movq	%rcx, (%r12)
	movq	%rdx, 8(%r12)
	movzbl	(%rsi), %ebx
	cmpl	$63, %edi
	jne	LBB99_52
	cmpb	$1, %bl
	ja	LBB99_194
LBB99_52:
	cmpl	$63, %edi
	ja	LBB99_256
	movzbl	%bl, %ebx
	movl	%ebx, %esi
	andl	$127, %esi
	shlxq	%rdi, %rsi, %rsi
	orq	%rsi, %r8
	addl	$7, %edi
	incq	%rax
	decq	%rdx
	testb	%bl, %bl
	js	LBB99_49
	movq	%rax, %rdx
	negq	%rdx
	cmpq	%r8, %rdx
	jb	LBB99_193
	leaq	(%rcx,%r8), %rdx
	addq	%r8, %rax
	negq	%rax
	movq	%rdx, (%r12)
	movq	%rax, 8(%r12)
	movl	%ecx, %eax
	andl	$65280, %eax
	movl	%ecx, %edx
	andl	$-65536, %edx
	movabsq	$-4294967296, %rbx
	andq	%rcx, %rbx
	movl	$8, %edi
	jmp	LBB99_183
LBB99_56:
	movq	(%r13), %rax
	cmpq	$3, %rax
	jb	LBB99_225
	movq	(%r12), %rdx
	leaq	3(%rdx), %rcx
	addq	$-3, %rax
	movq	%rcx, (%r12)
	movq	%rax, 8(%r12)
	movzwl	(%rdx), %ecx
	movzbl	2(%rdx), %edx
	shll	$16, %edx
	orl	%ecx, %edx
	movl	%edx, %eax
	andl	$65280, %eax
	andl	$16711680, %edx
	movl	$29, %edi
	jmp	LBB99_181
LBB99_58:
	movq	(%r13), %rax
	decq	%rax
	xorl	%edx, %edx
	xorl	%ecx, %ecx
LBB99_59:
	cmpq	$-1, %rax
	je	LBB99_169
	movq	(%r12), %rsi
	leaq	1(%rsi), %rdi
	movq	%rdi, (%r12)
	movq	%rax, 8(%r12)
	movzbl	(%rsi), %ebx
	cmpl	$63, %edx
	jne	LBB99_62
	cmpb	$1, %bl
	ja	LBB99_170
LBB99_62:
	cmpl	$63, %edx
	ja	LBB99_256
	movzbl	%bl, %esi
	movl	%esi, %edi
	andl	$127, %edi
	shlxq	%rdx, %rdi, %rdi
	orq	%rdi, %rcx
	addl	$7, %edx
	decq	%rax
	testb	%sil, %sil
	js	LBB99_59
	jmp	LBB99_127
LBB99_64:
	movq	(%r13), %rax
	cmpq	$16, %rax
	jb	LBB99_225
	movq	(%r12), %rcx
	leaq	16(%rcx), %rdx
	addq	$-16, %rax
	movq	%rdx, (%r12)
	movq	%rax, 8(%r12)
	movl	%ecx, %eax
	andl	$65280, %eax
	movl	%ecx, %edx
	andl	$-65536, %edx
	movabsq	$-4294967296, %rbx
	andq	%rcx, %rbx
	movl	$1, %edi
	movl	$16, %r8d
	jmp	LBB99_183
LBB99_66:
	movq	(%r13), %rax
	cmpq	$2, %rax
	jb	LBB99_225
	movq	(%r12), %rcx
	leaq	2(%rcx), %rdx
	addq	$-2, %rax
	movq	%rdx, (%r12)
	movq	%rax, 8(%r12)
	movzwl	(%rcx), %ecx
	movl	%ecx, %eax
	andl	$65280, %eax
	movl	$29, %edi
	jmp	LBB99_180
LBB99_68:
	cmpw	$2, %si
	jne	LBB99_197
	movl	$24, %eax
	leal	-1(%rdx), %ecx
	cmpb	$7, %cl
	ja	LBB99_254
	movzbl	%cl, %ecx
	leaq	LJTI99_2(%rip), %rsi
	movslq	(%rsi,%rcx,4), %rdi
	addq	%rsi, %rdi
	jmpq	*%rdi
LBB99_71:
	movq	(%r13), %rax
	testq	%rax, %rax
	je	LBB99_240
	movq	(%r12), %rcx
	leaq	1(%rcx), %rdx
	decq	%rax
	movq	%rdx, (%r12)
	movq	%rax, 8(%r12)
	movb	(%rcx), %al
	xorl	%esi, %esi
	xorl	%edx, %edx
	jmp	LBB99_252
LBB99_73:
	movq	(%r13), %rax
	cmpq	$4, %rax
	jb	LBB99_225
	movq	(%r12), %rcx
	leaq	4(%rcx), %rdx
	addq	$-4, %rax
	movq	%rdx, (%r12)
	movq	%rax, 8(%r12)
	movl	(%rcx), %ecx
	movl	%ecx, %eax
	andl	$65280, %eax
	movl	%ecx, %edx
	andl	$-65536, %edx
	movl	$15, %edi
	jmp	LBB99_181
LBB99_75:
	movq	(%r13), %rax
	testq	%rax, %rax
	je	LBB99_225
	movq	(%r12), %rcx
	leaq	1(%rcx), %rdx
	decq	%rax
	movq	%rdx, (%r12)
	movq	%rax, 8(%r12)
	movb	(%rcx), %cl
	movl	$12, %edi
	xorl	%eax, %eax
	jmp	LBB99_180
LBB99_77:
	movq	(%r12), %rcx
	movq	8(%r12), %rsi
	xorl	%edx, %edx
LBB99_78:
	cmpq	%rdx, %rsi
	je	LBB99_108
	movzbl	(%rcx,%rdx), %ebx
	incq	%rdx
	testb	%bl, %bl
	jne	LBB99_78
	cmpb	$1, %bl
	movb	$1, %dil
	movb	$1, %al
	adcb	$0, %al
	movzbl	%al, %eax
	andl	$1, %eax
	leaq	(%rax,%rdx), %r8
	addq	$-1, %r8
	cmpq	%r8, %rsi
	jb	LBB99_108
	cmpb	$1, %bl
	adcb	$0, %dil
	movzbl	%dil, %eax
	andl	$1, %eax
	leaq	(%rcx,%rax), %rdi
	leaq	(%rdx,%rdi), %r9
	addq	$-1, %r9
	movq	%rsi, %rdi
	subq	%rax, %rdi
	movq	%rdi, %rax
	subq	%rdx, %rax
	incq	%rax
	incq	%rdi
	movq	%r9, (%r12)
	movq	%rax, 8(%r12)
	cmpq	%rdx, %rdi
	jne	LBB99_234
	movq	%r9, %rcx
	jmp	LBB99_108
LBB99_83:
	movq	(%r13), %rax
	testq	%rax, %rax
	je	LBB99_225
	movq	(%r12), %rcx
	leaq	1(%rcx), %rdx
	decq	%rax
	movq	%rdx, (%r12)
	movq	%rax, 8(%r12)
	movb	(%rcx), %cl
	movl	$13, %edi
	xorl	%eax, %eax
	jmp	LBB99_180
LBB99_85:
	movq	(%r13), %rax
	cmpq	$2, %rax
	jb	LBB99_107
	movq	(%r12), %rdx
	leaq	2(%rdx), %rcx
	addq	$-2, %rax
	movq	%rcx, (%r12)
	movq	%rax, 8(%r12)
	movzwl	(%rdx), %r8d
	subq	%r8, %rax
	jae	LBB99_105
	jmp	LBB99_108
LBB99_87:
	movq	(%r13), %rax
	cmpq	$4, %rax
	jb	LBB99_107
	movq	(%r12), %rdx
	leaq	4(%rdx), %rcx
	addq	$-4, %rax
	movq	%rcx, (%r12)
	movq	%rax, 8(%r12)
	movl	(%rdx), %r8d
	subq	%r8, %rax
	jae	LBB99_105
	jmp	LBB99_108
LBB99_89:
	movq	(%r13), %rax
	decq	%rax
	xorl	%edx, %edx
	xorl	%ecx, %ecx
LBB99_90:
	cmpq	$-1, %rax
	je	LBB99_169
	movq	(%r12), %rsi
	leaq	1(%rsi), %rdi
	movq	%rdi, (%r12)
	movq	%rax, 8(%r12)
	movzbl	(%rsi), %ebx
	cmpl	$63, %edx
	jne	LBB99_93
	cmpb	$1, %bl
	ja	LBB99_170
LBB99_93:
	cmpl	$63, %edx
	ja	LBB99_256
	movzbl	%bl, %esi
	movl	%esi, %edi
	andl	$127, %edi
	shlxq	%rdx, %rdi, %rdi
	orq	%rdi, %rcx
	addl	$7, %edx
	decq	%rax
	testb	%sil, %sil
	js	LBB99_90
	movl	%ecx, %eax
	andl	$65280, %eax
	movl	%ecx, %edx
	andl	$-65536, %edx
	movabsq	$-4294967296, %rbx
	andq	%rcx, %rbx
	movl	$19, %edi
	jmp	LBB99_182
LBB99_96:
	movq	(%r13), %rax
	decq	%rax
	xorl	%edx, %edx
	xorl	%ecx, %ecx
LBB99_97:
	cmpq	$-1, %rax
	je	LBB99_169
	movq	(%r12), %rsi
	leaq	1(%rsi), %rdi
	movq	%rdi, (%r12)
	movq	%rax, 8(%r12)
	movzbl	(%rsi), %ebx
	cmpl	$63, %edx
	jne	LBB99_100
	cmpb	$1, %bl
	ja	LBB99_170
LBB99_100:
	cmpl	$63, %edx
	ja	LBB99_256
	movzbl	%bl, %esi
	movl	%esi, %edi
	andl	$127, %edi
	shlxq	%rdx, %rdi, %rdi
	orq	%rdi, %rcx
	addl	$7, %edx
	decq	%rax
	testb	%sil, %sil
	js	LBB99_97
	movl	%ecx, %eax
	andl	$65280, %eax
	movl	%ecx, %edx
	andl	$-65536, %edx
	movabsq	$-4294967296, %rbx
	andq	%rcx, %rbx
	movl	$24, %edi
	jmp	LBB99_182
LBB99_103:
	movq	(%r13), %rax
	testq	%rax, %rax
	je	LBB99_107
	movq	(%r12), %rdx
	leaq	1(%rdx), %rcx
	decq	%rax
	movq	%rcx, (%r12)
	movq	%rax, 8(%r12)
	movzbl	(%rdx), %r8d
	subq	%r8, %rax
	jb	LBB99_108
LBB99_105:
	leaq	(%rcx,%r8), %rdx
LBB99_106:
	movq	%rdx, (%r12)
	movq	%rax, 8(%r12)
	movl	%ecx, %eax
	andl	$65280, %eax
	movl	%ecx, %edx
	andl	$-65536, %edx
	movabsq	$-4294967296, %rbx
	andq	%rcx, %rbx
	movl	$1, %edi
	jmp	LBB99_183
LBB99_107:
	movq	(%r12), %rcx
LBB99_108:
	movq	-48(%rbp), %rsi
	movq	$19, 8(%rsi)
	jmp	LBB99_196
LBB99_109:
	movq	(%r13), %rax
	cmpq	$2, %rax
	jb	LBB99_225
	movq	(%r12), %rcx
	leaq	2(%rcx), %rdx
	addq	$-2, %rax
	movq	%rdx, (%r12)
	movq	%rax, 8(%r12)
	movzwl	(%rcx), %ecx
	movl	%ecx, %eax
	andl	$65280, %eax
	movl	$13, %edi
	jmp	LBB99_180
LBB99_111:
	movq	(%r13), %rax
	cmpb	$8, %r8b
	jne	LBB99_200
	cmpq	$8, %rax
	jb	LBB99_225
	movq	(%r12), %rcx
	leaq	8(%rcx), %rdx
	addq	$-8, %rax
	movq	%rdx, (%r12)
	movq	%rax, 8(%r12)
	movq	(%rcx), %rcx
	jmp	LBB99_202
LBB99_114:
	movq	(%r13), %rdx
	decq	%rdx
	xorl	%eax, %eax
	xorl	%ecx, %ecx
	cmpq	$-1, %rdx
	jne	LBB99_118
	jmp	LBB99_169
LBB99_115:
	ja	LBB99_257
LBB99_116:
	movl	%esi, %edi
	andl	$127, %edi
	shlxq	%rax, %rdi, %rdi
	orq	%rdi, %rcx
	addl	$7, %eax
	decq	%rdx
	testb	%sil, %sil
	jns	LBB99_212
	cmpq	$-1, %rdx
	je	LBB99_169
LBB99_118:
	movq	(%r12), %rsi
	leaq	1(%rsi), %rdi
	movq	%rdi, (%r12)
	movq	%rdx, 8(%r12)
	movzbl	(%rsi), %esi
	cmpl	$63, %eax
	jne	LBB99_115
	testb	%sil, %sil
	je	LBB99_116
	cmpb	$127, %sil
	je	LBB99_116
	movl	$7, %ecx
	jmp	LBB99_171
LBB99_122:
	movq	(%r13), %rax
	cmpb	$8, %r8b
	jne	LBB99_203
	cmpq	$8, %rax
	jb	LBB99_225
	movq	(%r12), %rcx
	leaq	8(%rcx), %rdx
	addq	$-8, %rax
	movq	%rdx, (%r12)
	movq	%rax, 8(%r12)
	movq	(%rcx), %rcx
	jmp	LBB99_205
LBB99_125:
	movq	(%r13), %rax
	cmpq	$8, %rax
	jb	LBB99_225
	movq	(%r12), %rcx
	leaq	8(%rcx), %rdx
	addq	$-8, %rax
	movq	%rdx, (%r12)
	movq	%rax, 8(%r12)
	movq	(%rcx), %rcx
LBB99_127:
	movl	%ecx, %eax
	andl	$65280, %eax
	movl	%ecx, %edx
	andl	$-65536, %edx
	movabsq	$-4294967296, %rbx
	andq	%rcx, %rbx
	movl	$13, %edi
	jmp	LBB99_182
LBB99_128:
	cmpw	$33, %r9w
	jne	LBB99_206
	movl	%ecx, %eax
	andl	$65280, %eax
	movl	%ecx, %edx
	andl	$-65536, %edx
	movabsq	$-4294967296, %rbx
	andq	%rcx, %rbx
	movl	$6, %edi
	jmp	LBB99_182
LBB99_130:
	movq	(%r13), %rax
	testq	%rax, %rax
	je	LBB99_215
	movq	(%r12), %rcx
	leaq	1(%rcx), %rdx
	decq	%rax
	movq	%rdx, (%r12)
	movq	%rax, 8(%r12)
	movb	(%rcx), %cl
	movl	$70, %edx
	cmpb	$70, %dl
	movq	-48(%rbp), %rsi
	jne	LBB99_223
	jmp	LBB99_216
LBB99_132:
	movq	(%r13), %rax
	cmpq	$2, %rax
	jae	LBB99_207
	movq	(%r12), %rax
	movl	$19, %edx
	xorl	%ecx, %ecx
	cmpb	$70, %dl
	movq	-48(%rbp), %rsi
	je	LBB99_208
	jmp	LBB99_223
LBB99_134:
	cmpb	$4, %r8b
	jne	LBB99_188
	movl	-52(%rbp), %edi
	callq	__ZN5gimli4read4unit20allow_section_offset17h288d6d4f703cea9eE
	testb	%al, %al
	je	LBB99_188
	movq	(%r13), %rax
	cmpq	$4, %rax
	jb	LBB99_225
	movq	(%r12), %rcx
	leaq	4(%rcx), %rdx
	addq	$-4, %rax
	movq	%rdx, (%r12)
	movq	%rax, 8(%r12)
	movl	(%rcx), %ecx
	movl	$10, %edi
	movq	-48(%rbp), %rsi
	jmp	LBB99_218
LBB99_138:
	cmpb	$8, %r8b
	jne	LBB99_190
	movl	-52(%rbp), %edi
	callq	__ZN5gimli4read4unit20allow_section_offset17h288d6d4f703cea9eE
	testb	%al, %al
	je	LBB99_190
	movq	(%r13), %rax
	movl	$10, %edi
	cmpq	$7, %rax
	ja	LBB99_191
	jmp	LBB99_225
LBB99_141:
	movq	(%r13), %rax
	cmpq	$4, %rax
	jb	LBB99_225
	movq	(%r12), %rcx
	leaq	4(%rcx), %rdx
	addq	$-4, %rax
	movq	%rdx, (%r12)
	movq	%rax, 8(%r12)
	movl	(%rcx), %ecx
	movl	%ecx, %eax
	andl	$65280, %eax
	movl	%ecx, %edx
	andl	$-65536, %edx
	movl	$13, %edi
	jmp	LBB99_181
LBB99_143:
	movq	(%r13), %rax
	cmpq	$8, %rax
	jb	LBB99_225
	movq	(%r12), %rcx
	leaq	8(%rcx), %rdx
	addq	$-8, %rax
	movq	%rdx, (%r12)
	movq	%rax, 8(%r12)
	movq	(%rcx), %rcx
	movl	%ecx, %eax
	andl	$65280, %eax
	movl	%ecx, %edx
	andl	$-65536, %edx
	movabsq	$-4294967296, %rbx
	andq	%rcx, %rbx
	movl	$25, %edi
	jmp	LBB99_182
LBB99_145:
	movq	(%r13), %rax
LBB99_146:
	cmpq	$8, %rax
	jb	LBB99_225
	movq	(%r12), %rcx
	leaq	8(%rcx), %rdx
	addq	$-8, %rax
	movq	%rdx, (%r12)
	movq	%rax, 8(%r12)
	movq	(%rcx), %rcx
LBB99_148:
	movl	%ecx, %eax
	andl	$65280, %eax
	movl	%ecx, %edx
	andl	$-65536, %edx
	movabsq	$-4294967296, %rbx
	andq	%rcx, %rbx
	movl	$15, %edi
	jmp	LBB99_182
LBB99_149:
	movq	(%r13), %rax
	testq	%rax, %rax
	je	LBB99_225
	movq	(%r12), %rcx
	leaq	1(%rcx), %rdx
	decq	%rax
	movq	%rdx, (%r12)
	movq	%rax, 8(%r12)
	movb	(%rcx), %cl
	movl	$29, %edi
	xorl	%eax, %eax
	jmp	LBB99_180
LBB99_151:
	movq	(%r13), %rdx
	movq	%rdx, %rax
	negq	%rax
	decq	%rdx
	xorl	%edi, %edi
	xorl	%r8d, %r8d
LBB99_152:
	testq	%rax, %rax
	je	LBB99_192
	movq	(%r12), %rbx
	leaq	1(%rbx), %rcx
	movq	%rcx, (%r12)
	movq	%rdx, 8(%r12)
	movzbl	(%rbx), %ebx
	cmpl	$63, %edi
	jne	LBB99_155
	cmpb	$1, %bl
	ja	LBB99_194
LBB99_155:
	cmpl	$63, %edi
	ja	LBB99_256
	movzbl	%bl, %esi
	movl	%esi, %ebx
	andl	$127, %ebx
	shlxq	%rdi, %rbx, %rbx
	orq	%rbx, %r8
	addl	$7, %edi
	incq	%rax
	decq	%rdx
	testb	%sil, %sil
	js	LBB99_152
	movq	%rax, %rdx
	negq	%rdx
	cmpq	%r8, %rdx
	jb	LBB99_193
	leaq	(%rcx,%r8), %rdx
	addq	%r8, %rax
	negq	%rax
	jmp	LBB99_106
LBB99_159:
	movq	(%r13), %rax
	testq	%rax, %rax
	je	LBB99_219
	movq	(%r12), %rcx
	leaq	1(%rcx), %rdx
	decq	%rax
	movq	%rdx, (%r12)
	movq	%rax, 8(%r12)
	movb	(%rcx), %cl
	movl	$70, %edx
	cmpb	$70, %dl
	movq	-48(%rbp), %rsi
	jne	LBB99_223
	jmp	LBB99_220
LBB99_161:
	movl	$9, %edi
	xorl	%eax, %eax
	movb	$1, %cl
	jmp	LBB99_180
LBB99_162:
	movq	(%r13), %rax
	decq	%rax
	xorl	%edx, %edx
	xorl	%ecx, %ecx
LBB99_163:
	cmpq	$-1, %rax
	je	LBB99_169
	movq	(%r12), %rsi
	leaq	1(%rsi), %rdi
	movq	%rdi, (%r12)
	movq	%rax, 8(%r12)
	movzbl	(%rsi), %ebx
	cmpl	$63, %edx
	jne	LBB99_166
	cmpb	$1, %bl
	ja	LBB99_170
LBB99_166:
	cmpl	$63, %edx
	ja	LBB99_256
	movzbl	%bl, %esi
	movl	%esi, %edi
	andl	$127, %edi
	shlxq	%rdx, %rdi, %rdi
	orq	%rdi, %rcx
	addl	$7, %edx
	decq	%rax
	testb	%sil, %sil
	js	LBB99_163
	movl	%ecx, %eax
	andl	$65280, %eax
	movl	%ecx, %edx
	andl	$-65536, %edx
	movabsq	$-4294967296, %rbx
	andq	%rcx, %rbx
	movl	$7, %edi
	jmp	LBB99_182
LBB99_169:
	movq	(%r12), %rax
	movl	$19, %ecx
	jmp	LBB99_172
LBB99_170:
	movl	$6, %ecx
LBB99_171:
LBB99_172:
	movq	-48(%rbp), %rsi
	movq	%rcx, 8(%rsi)
	jmp	LBB99_226
LBB99_173:
	movq	(%r13), %rax
	cmpq	$3, %rax
	jb	LBB99_225
	movq	(%r12), %rdx
	leaq	3(%rdx), %rcx
	addq	$-3, %rax
	movq	%rcx, (%r12)
	movq	%rax, 8(%r12)
	movzwl	(%rdx), %ecx
	movzbl	2(%rdx), %edx
	shll	$16, %edx
	orl	%ecx, %edx
	movl	%edx, %eax
	andl	$65280, %eax
	andl	$16711680, %edx
	movl	$12, %edi
	jmp	LBB99_181
LBB99_175:
	movq	(%r13), %rax
	cmpb	$8, %r8b
	jne	LBB99_209
	cmpq	$8, %rax
	jb	LBB99_225
	movq	(%r12), %rcx
	leaq	8(%rcx), %rdx
	addq	$-8, %rax
	movq	%rdx, (%r12)
	movq	%rax, 8(%r12)
	movq	(%rcx), %rcx
	jmp	LBB99_211
LBB99_178:
	movq	(%r13), %rax
	cmpq	$2, %rax
	jb	LBB99_225
	movq	(%r12), %rcx
	leaq	2(%rcx), %rdx
	addq	$-2, %rax
	movq	%rdx, (%r12)
	movq	%rax, 8(%r12)
	movzwl	(%rcx), %ecx
	movl	%ecx, %eax
	andl	$65280, %eax
	movl	$12, %edi
LBB99_180:
	xorl	%edx, %edx
LBB99_181:
	xorl	%ebx, %ebx
LBB99_182:
LBB99_183:
	movq	-48(%rbp), %rsi
LBB99_184:
	movzbl	%cl, %ecx
	orl	%ecx, %eax
	movzwl	%ax, %eax
	orl	%edx, %eax
	orq	%rbx, %rax
	movq	%rdi, 8(%rsi)
	movq	%rax, 16(%rsi)
	movq	%r8, 24(%rsi)
	movl	-52(%rbp), %eax
	movw	%ax, 32(%rsi)
	xorl	%eax, %eax
	jmp	LBB99_19
LBB99_185:
	movq	(%r13), %rax
	cmpq	$4, %rax
	jb	LBB99_225
	movq	(%r12), %rcx
	leaq	4(%rcx), %rdx
	addq	$-4, %rax
	movq	%rdx, (%r12)
	movq	%rax, 8(%r12)
	movl	(%rcx), %ecx
	movl	%ecx, %eax
	andl	$65280, %eax
	movl	%ecx, %edx
	andl	$-65536, %edx
	movl	$12, %edi
	jmp	LBB99_181
LBB99_187:
	movq	-48(%rbp), %rsi
	movb	$12, 8(%rsi)
	jmp	LBB99_18
LBB99_188:
	movq	(%r13), %rax
	cmpq	$4, %rax
	jae	LBB99_217
	movq	(%r12), %rax
	movl	$19, %edx
	xorl	%ecx, %ecx
	movl	$4, %edi
	cmpb	$70, %dl
	movq	-48(%rbp), %rsi
	jne	LBB99_223
	jmp	LBB99_218
LBB99_190:
	movq	(%r13), %rax
	movl	$5, %edi
	cmpq	$8, %rax
	jb	LBB99_225
LBB99_191:
	movq	(%r12), %rcx
	leaq	8(%rcx), %rdx
	movq	%rdx, (%r12)
	addq	$-8, %rax
	movq	%rax, 8(%r12)
	movq	(%rcx), %rcx
	movabsq	$-4294967296, %rbx
	andq	%rcx, %rbx
	movl	%ecx, %edx
	andl	$-65536, %edx
	movl	%ecx, %eax
	andl	$65280, %eax
	jmp	LBB99_182
LBB99_192:
	movq	(%r12), %rcx
LBB99_193:
	movl	$19, %eax
	jmp	LBB99_195
LBB99_194:
	movl	$6, %eax
LBB99_195:
	movq	-48(%rbp), %rsi
	movq	%rax, 8(%rsi)
LBB99_196:
	movq	%rcx, 16(%rsi)
	jmp	LBB99_18
LBB99_197:
	movq	(%r13), %rax
	cmpb	$8, %r8b
	jne	LBB99_224
	cmpq	$8, %rax
	jb	LBB99_225
	movq	(%r12), %rcx
	leaq	8(%rcx), %rdx
	addq	$-8, %rax
	movq	%rdx, (%r12)
	movq	%rax, 8(%r12)
	movq	(%rcx), %rcx
	jmp	LBB99_253
LBB99_200:
	cmpq	$4, %rax
	jb	LBB99_225
	movq	(%r12), %rcx
	leaq	4(%rcx), %rdx
	addq	$-4, %rax
	movq	%rdx, (%r12)
	movq	%rax, 8(%r12)
	movl	(%rcx), %ecx
LBB99_202:
	movl	%ecx, %eax
	andl	$65280, %eax
	movl	%ecx, %edx
	andl	$-65536, %edx
	movabsq	$-4294967296, %rbx
	andq	%rcx, %rbx
	movl	$10, %edi
	jmp	LBB99_182
LBB99_203:
	cmpq	$4, %rax
	jb	LBB99_225
	movq	(%r12), %rcx
	leaq	4(%rcx), %rdx
	addq	$-4, %rax
	movq	%rdx, (%r12)
	movq	%rax, 8(%r12)
	movl	(%rcx), %ecx
LBB99_205:
	movl	%ecx, %eax
	andl	$65280, %eax
	movl	%ecx, %edx
	andl	$-65536, %edx
	movabsq	$-4294967296, %rbx
	andq	%rcx, %rbx
	movl	$26, %edi
	jmp	LBB99_182
LBB99_206:
	movq	-48(%rbp), %rsi
	movq	$69, 8(%rsi)
	jmp	LBB99_18
LBB99_207:
	movq	(%r12), %rcx
	leaq	2(%rcx), %rdx
	addq	$-2, %rax
	movq	%rdx, (%r12)
	movq	%rax, 8(%r12)
	movzwl	(%rcx), %ecx
	movl	$70, %edx
	cmpb	$70, %dl
	movq	-48(%rbp), %rsi
	jne	LBB99_223
LBB99_208:
	movl	%ecx, %eax
	andl	$65280, %eax
	movl	$3, %edi
	jmp	LBB99_222
LBB99_209:
	cmpq	$4, %rax
	jb	LBB99_225
	movq	(%r12), %rcx
	leaq	4(%rcx), %rdx
	addq	$-4, %rax
	movq	%rdx, (%r12)
	movq	%rax, 8(%r12)
	movl	(%rcx), %ecx
LBB99_211:
	movl	%ecx, %eax
	andl	$65280, %eax
	movl	%ecx, %edx
	andl	$-65536, %edx
	movabsq	$-4294967296, %rbx
	andq	%rcx, %rbx
	movl	$30, %edi
	jmp	LBB99_182
LBB99_212:
	cmpl	$63, %eax
	ja	LBB99_246
	andb	$64, %sil
	movq	-48(%rbp), %rsi
	je	LBB99_247
	movq	$-1, %rdx
	shlxq	%rax, %rdx, %rax
	orq	%rax, %rcx
	jmp	LBB99_247
LBB99_215:
	movq	(%r12), %rax
	movl	$19, %edx
	xorl	%ecx, %ecx
	cmpb	$70, %dl
	movq	-48(%rbp), %rsi
	jne	LBB99_223
LBB99_216:
	movl	$2, %edi
	jmp	LBB99_221
LBB99_217:
	movq	(%r12), %rcx
	leaq	4(%rcx), %rdx
	addq	$-4, %rax
	movq	%rdx, (%r12)
	movq	%rax, 8(%r12)
	movl	(%rcx), %ecx
	movl	$70, %edx
	movl	$4, %edi
	cmpb	$70, %dl
	movq	-48(%rbp), %rsi
	jne	LBB99_223
LBB99_218:
	movl	%ecx, %edx
	andl	$-65536, %edx
	movl	%ecx, %eax
	andl	$65280, %eax
	xorl	%ebx, %ebx
	jmp	LBB99_184
LBB99_219:
	movq	(%r12), %rax
	movl	$19, %edx
	xorl	%ecx, %ecx
	cmpb	$70, %dl
	movq	-48(%rbp), %rsi
	jne	LBB99_223
LBB99_220:
	testb	%cl, %cl
	setne	%cl
	movl	$9, %edi
LBB99_221:
	xorl	%eax, %eax
LBB99_222:
	xorl	%edx, %edx
	xorl	%ebx, %ebx
	jmp	LBB99_184
LBB99_223:
	movb	%dl, 8(%rsi)
	movb	$0, 15(%rsi)
	movw	$0, 13(%rsi)
	movl	$0, 9(%rsi)
	jmp	LBB99_226
LBB99_224:
	cmpq	$4, %rax
	jae	LBB99_233
LBB99_225:
	movq	(%r12), %rax
	movq	-48(%rbp), %rsi
	movq	$19, 8(%rsi)
LBB99_226:
	movq	%rax, 16(%rsi)
	jmp	LBB99_18
LBB99_227:
	movq	(%r13), %rax
	cmpq	$1, %rax
	jbe	LBB99_232
	movq	(%r12), %rcx
	leaq	2(%rcx), %rdx
	addq	$-2, %rax
	movq	%rdx, (%r12)
	movq	%rax, 8(%r12)
	movzwl	(%rcx), %ecx
	xorl	%edx, %edx
	jmp	LBB99_242
LBB99_229:
	movq	(%r13), %rax
	cmpq	$3, %rax
	jbe	LBB99_232
	movq	(%r12), %rcx
	leaq	4(%rcx), %rdx
	addq	$-4, %rax
	movq	%rdx, (%r12)
	movq	%rax, 8(%r12)
	movl	(%rcx), %ecx
	movl	%ecx, %edx
	andl	$-65536, %edx
	jmp	LBB99_242
LBB99_231:
	movq	(%r13), %rax
	cmpq	$8, %rax
	jae	LBB99_241
LBB99_232:
	movq	(%r12), %rdi
	movl	$19, %ecx
	xorl	%edx, %edx
	jmp	LBB99_245
LBB99_233:
	movq	(%r12), %rcx
	leaq	4(%rcx), %rdx
	addq	$-4, %rax
	movq	%rdx, (%r12)
	movq	%rax, 8(%r12)
	movl	(%rcx), %ecx
	jmp	LBB99_253
LBB99_234:
	cmpb	$1, %bl
	movb	$1, %al
	adcb	$0, %al
	movzbl	%al, %eax
	andl	$1, %eax
	leaq	(%rcx,%rax), %rdi
	addq	%rdx, %rdi
	subq	%rax, %rsi
	subq	%rdx, %rsi
	movq	%rdi, (%r12)
	movq	%rsi, 8(%r12)
	movl	%ecx, %eax
	andl	$65280, %eax
	movl	%ecx, %edx
	andl	$-65536, %edx
	movabsq	$-4294967296, %rbx
	andq	%rcx, %rbx
	movl	$31, %edi
	jmp	LBB99_183
LBB99_235:
	movq	(%r13), %rax
	cmpq	$1, %rax
	jbe	LBB99_240
	movq	(%r12), %rcx
	leaq	2(%rcx), %rdx
	addq	$-2, %rax
	movq	%rdx, (%r12)
	movq	%rax, 8(%r12)
	movzwl	(%rcx), %eax
	movl	%eax, %edx
	andl	$65280, %edx
	xorl	%esi, %esi
	jmp	LBB99_252
LBB99_237:
	movq	(%r13), %rax
	cmpq	$3, %rax
	jbe	LBB99_240
	movq	(%r12), %rcx
	leaq	4(%rcx), %rdx
	addq	$-4, %rax
	movq	%rdx, (%r12)
	movq	%rax, 8(%r12)
	movl	(%rcx), %eax
	movl	%eax, %edx
	andl	$-256, %edx
	movl	%eax, %esi
	andl	$-65536, %esi
	jmp	LBB99_252
LBB99_239:
	movq	(%r13), %rax
	cmpq	$8, %rax
	jae	LBB99_251
LBB99_240:
	movq	(%r12), %rcx
	movl	$19, %eax
	xorl	%edx, %edx
	jmp	LBB99_255
LBB99_241:
	movq	(%r12), %rcx
	leaq	8(%rcx), %rdx
	addq	$-8, %rax
	movq	%rdx, (%r12)
	movq	%rax, 8(%r12)
	movq	(%rcx), %rcx
	movq	%rcx, %rdx
	andq	$-65536, %rdx
LBB99_242:
	movl	%ecx, %eax
	andl	$65280, %eax
	orq	%rdx, %rax
	movq	-48(%rbp), %rsi
LBB99_243:
	movl	%eax, %edx
	andl	$-65536, %edx
	movabsq	$-4294967296, %rbx
	andq	%rax, %rbx
	xorl	%edi, %edi
	jmp	LBB99_184
LBB99_244:
LBB99_245:
	movzbl	%dl, %eax
	shlq	$8, %rax
	movq	-48(%rbp), %rsi
	jmp	LBB99_250
LBB99_246:
	movq	-48(%rbp), %rsi
LBB99_247:
	movl	%ecx, %eax
	andl	$65280, %eax
	movl	%ecx, %edx
	andl	$-65536, %edx
	movabsq	$-4294967296, %rbx
	andq	%rcx, %rbx
	movl	$6, %edi
	jmp	LBB99_184
LBB99_248:
	movq	(%r12), %rdi
	movl	$19, %edx
	xorl	%ecx, %ecx
LBB99_249:
	xorl	%eax, %eax
	cmpq	$70, %rdx
	cmovneq	%rdx, %rcx
	movq	-48(%rbp), %rsi
	je	LBB99_243
LBB99_250:
	movzbl	%cl, %ecx
	orq	%rax, %rcx
	movq	%rcx, 8(%rsi)
	movq	%rdi, 16(%rsi)
	jmp	LBB99_18
LBB99_251:
	movq	(%r12), %rcx
	leaq	8(%rcx), %rdx
	addq	$-8, %rax
	movq	%rdx, (%r12)
	movq	%rax, 8(%r12)
	movq	(%rcx), %rax
	movq	%rax, %rdx
	andq	$-256, %rdx
	movq	%rax, %rsi
	andq	$-65536, %rsi
LBB99_252:
	andl	$65280, %edx
	movzbl	%al, %ecx
	orq	%rsi, %rcx
	orq	%rdx, %rcx
LBB99_253:
	movq	-48(%rbp), %rsi
	movl	%ecx, %eax
	andl	$65280, %eax
	movl	%ecx, %edx
	andl	$-65536, %edx
	movabsq	$-4294967296, %rbx
	andq	%rcx, %rbx
	movl	$14, %edi
	jmp	LBB99_184
LBB99_254:
LBB99_255:
	movzbl	%dl, %edx
	shlq	$8, %rdx
	orq	%rax, %rdx
	movq	-48(%rbp), %rsi
	movq	%rdx, 8(%rsi)
	jmp	LBB99_196
LBB99_256:
	leaq	_str.7(%rip), %rdi
	leaq	l___unnamed_25(%rip), %rdx
	movl	$35, %esi
	callq	__ZN4core9panicking5panic17h736ee47a631475c0E
LBB99_257:
	leaq	_str.7(%rip), %rdi
	leaq	l___unnamed_27(%rip), %rdx
	movl	$35, %esi
	callq	__ZN4core9panicking5panic17h736ee47a631475c0E
	.cfi_endproc
	.p2align	2, 0x90
	.data_region jt32
.set L99_0_set_11, LBB99_11-LJTI99_0
.set L99_0_set_187, LBB99_187-LJTI99_0
.set L99_0_set_85, LBB99_85-LJTI99_0
.set L99_0_set_87, LBB99_87-LJTI99_0
.set L99_0_set_132, LBB99_132-LJTI99_0
.set L99_0_set_134, LBB99_134-LJTI99_0
.set L99_0_set_138, LBB99_138-LJTI99_0
.set L99_0_set_77, LBB99_77-LJTI99_0
.set L99_0_set_151, LBB99_151-LJTI99_0
.set L99_0_set_103, LBB99_103-LJTI99_0
.set L99_0_set_130, LBB99_130-LJTI99_0
.set L99_0_set_159, LBB99_159-LJTI99_0
.set L99_0_set_114, LBB99_114-LJTI99_0
.set L99_0_set_122, LBB99_122-LJTI99_0
.set L99_0_set_162, LBB99_162-LJTI99_0
.set L99_0_set_68, LBB99_68-LJTI99_0
.set L99_0_set_83, LBB99_83-LJTI99_0
.set L99_0_set_109, LBB99_109-LJTI99_0
.set L99_0_set_141, LBB99_141-LJTI99_0
.set L99_0_set_125, LBB99_125-LJTI99_0
.set L99_0_set_58, LBB99_58-LJTI99_0
.set L99_0_set_111, LBB99_111-LJTI99_0
.set L99_0_set_48, LBB99_48-LJTI99_0
.set L99_0_set_161, LBB99_161-LJTI99_0
.set L99_0_set_33, LBB99_33-LJTI99_0
.set L99_0_set_23, LBB99_23-LJTI99_0
.set L99_0_set_73, LBB99_73-LJTI99_0
.set L99_0_set_30, LBB99_30-LJTI99_0
.set L99_0_set_64, LBB99_64-LJTI99_0
.set L99_0_set_175, LBB99_175-LJTI99_0
.set L99_0_set_143, LBB99_143-LJTI99_0
.set L99_0_set_128, LBB99_128-LJTI99_0
.set L99_0_set_89, LBB99_89-LJTI99_0
.set L99_0_set_96, LBB99_96-LJTI99_0
.set L99_0_set_145, LBB99_145-LJTI99_0
.set L99_0_set_149, LBB99_149-LJTI99_0
.set L99_0_set_66, LBB99_66-LJTI99_0
.set L99_0_set_56, LBB99_56-LJTI99_0
.set L99_0_set_46, LBB99_46-LJTI99_0
.set L99_0_set_75, LBB99_75-LJTI99_0
.set L99_0_set_178, LBB99_178-LJTI99_0
.set L99_0_set_173, LBB99_173-LJTI99_0
.set L99_0_set_185, LBB99_185-LJTI99_0
LJTI99_0:
	.long	L99_0_set_11
	.long	L99_0_set_187
	.long	L99_0_set_85
	.long	L99_0_set_87
	.long	L99_0_set_132
	.long	L99_0_set_134
	.long	L99_0_set_138
	.long	L99_0_set_77
	.long	L99_0_set_151
	.long	L99_0_set_103
	.long	L99_0_set_130
	.long	L99_0_set_159
	.long	L99_0_set_114
	.long	L99_0_set_122
	.long	L99_0_set_162
	.long	L99_0_set_68
	.long	L99_0_set_83
	.long	L99_0_set_109
	.long	L99_0_set_141
	.long	L99_0_set_125
	.long	L99_0_set_58
	.long	L99_0_set_187
	.long	L99_0_set_111
	.long	L99_0_set_48
	.long	L99_0_set_161
	.long	L99_0_set_33
	.long	L99_0_set_23
	.long	L99_0_set_73
	.long	L99_0_set_30
	.long	L99_0_set_64
	.long	L99_0_set_175
	.long	L99_0_set_143
	.long	L99_0_set_128
	.long	L99_0_set_89
	.long	L99_0_set_96
	.long	L99_0_set_145
	.long	L99_0_set_149
	.long	L99_0_set_66
	.long	L99_0_set_56
	.long	L99_0_set_46
	.long	L99_0_set_75
	.long	L99_0_set_178
	.long	L99_0_set_173
	.long	L99_0_set_185
.set L99_1_set_23, LBB99_23-LJTI99_1
.set L99_1_set_33, LBB99_33-LJTI99_1
.set L99_1_set_187, LBB99_187-LJTI99_1
.set L99_1_set_40, LBB99_40-LJTI99_1
.set L99_1_set_30, LBB99_30-LJTI99_1
LJTI99_1:
	.long	L99_1_set_23
	.long	L99_1_set_33
	.long	L99_1_set_187
	.long	L99_1_set_187
	.long	L99_1_set_187
	.long	L99_1_set_187
	.long	L99_1_set_187
	.long	L99_1_set_187
	.long	L99_1_set_187
	.long	L99_1_set_187
	.long	L99_1_set_187
	.long	L99_1_set_187
	.long	L99_1_set_187
	.long	L99_1_set_187
	.long	L99_1_set_187
	.long	L99_1_set_187
	.long	L99_1_set_187
	.long	L99_1_set_187
	.long	L99_1_set_187
	.long	L99_1_set_187
	.long	L99_1_set_187
	.long	L99_1_set_187
	.long	L99_1_set_187
	.long	L99_1_set_187
	.long	L99_1_set_187
	.long	L99_1_set_187
	.long	L99_1_set_187
	.long	L99_1_set_187
	.long	L99_1_set_187
	.long	L99_1_set_187
	.long	L99_1_set_187
	.long	L99_1_set_40
	.long	L99_1_set_30
.set L99_2_set_71, LBB99_71-LJTI99_2
.set L99_2_set_235, LBB99_235-LJTI99_2
.set L99_2_set_255, LBB99_255-LJTI99_2
.set L99_2_set_237, LBB99_237-LJTI99_2
.set L99_2_set_239, LBB99_239-LJTI99_2
LJTI99_2:
	.long	L99_2_set_71
	.long	L99_2_set_235
	.long	L99_2_set_255
	.long	L99_2_set_237
	.long	L99_2_set_255
	.long	L99_2_set_255
	.long	L99_2_set_255
	.long	L99_2_set_239
.set L99_3_set_13, LBB99_13-LJTI99_3
.set L99_3_set_227, LBB99_227-LJTI99_3
.set L99_3_set_245, LBB99_245-LJTI99_3
.set L99_3_set_229, LBB99_229-LJTI99_3
.set L99_3_set_231, LBB99_231-LJTI99_3
LJTI99_3:
	.long	L99_3_set_13
	.long	L99_3_set_227
	.long	L99_3_set_245
	.long	L99_3_set_229
	.long	L99_3_set_245
	.long	L99_3_set_245
	.long	L99_3_set_245
	.long	L99_3_set_231
	.end_data_region

	.p2align	4, 0x90
__ZN5gimli4read4unit18Attribute$LT$R$GT$5value17he6f4827c5ab24273E:
	.cfi_startproc
	pushq	%rbp
	.cfi_def_cfa_offset 16
	.cfi_offset %rbp, -16
	movq	%rsp, %rbp
	.cfi_def_cfa_register %rbp
	movl	24(%rsi), %eax
	addl	$-2, %eax
	movzwl	%ax, %ecx
	cmpl	$138, %ecx
	ja	LBB100_191
	movzwl	%ax, %eax
	leaq	LJTI100_0(%rip), %rcx
	movslq	(%rcx,%rax,4), %rax
	addq	%rcx, %rax
	jmpq	*%rax
LBB100_2:
	movq	(%rsi), %rax
	cmpq	$8, %rax
	je	LBB100_74
	cmpq	$1, %rax
	je	LBB100_74
	jmp	LBB100_191
LBB100_4:
	movq	(%rsi), %rax
	cmpq	$1, %rax
	je	LBB100_74
	cmpq	$10, %rax
	je	LBB100_15
	cmpq	$8, %rax
	jne	LBB100_191
	jmp	LBB100_74
LBB100_7:
	movq	(%rsi), %rax
	decq	%rax
	cmpq	$7, %rax
	ja	LBB100_191
	leaq	LJTI100_22(%rip), %rcx
	movslq	(%rcx,%rax,4), %rax
	addq	%rcx, %rax
	jmpq	*%rax
LBB100_10:
	cmpq	$10, (%rsi)
	jne	LBB100_191
	movq	8(%rsi), %rax
	movq	%rax, 8(%rdi)
	movq	$22, (%rdi)
	popq	%rbp
	retq
LBB100_12:
	movq	(%rsi), %rax
	decq	%rax
	cmpq	$9, %rax
	ja	LBB100_191
	leaq	LJTI100_8(%rip), %rcx
	movslq	(%rcx,%rax,4), %rax
	addq	%rcx, %rax
	jmpq	*%rax
LBB100_201:
	movzwl	8(%rsi), %eax
	movq	%rax, 8(%rdi)
	movq	$7, (%rdi)
	popq	%rbp
	retq
LBB100_15:
	movq	8(%rsi), %rax
	movq	%rax, 8(%rdi)
	movq	$17, (%rdi)
	popq	%rbp
	retq
LBB100_16:
	movq	(%rsi), %rax
	addq	$-2, %rax
	cmpq	$5, %rax
	ja	LBB100_191
	leaq	LJTI100_6(%rip), %rcx
	movslq	(%rcx,%rax,4), %rax
	addq	%rcx, %rax
	jmpq	*%rax
LBB100_101:
	movl	8(%rsi), %eax
	movq	%rax, 8(%rdi)
	movq	$44, (%rdi)
	popq	%rbp
	retq
LBB100_19:
	movq	(%rsi), %rax
	addq	$-2, %rax
	cmpq	$5, %rax
	ja	LBB100_191
	leaq	LJTI100_5(%rip), %rcx
	movslq	(%rcx,%rax,4), %rax
	addq	%rcx, %rax
	jmpq	*%rax
LBB100_22:
	movq	(%rsi), %rax
	addq	$-2, %rax
	cmpq	$5, %rax
	ja	LBB100_191
	leaq	LJTI100_17(%rip), %rcx
	movslq	(%rcx,%rax,4), %rax
	addq	%rcx, %rax
	jmpq	*%rax
LBB100_24:
	movq	8(%rsi), %rax
	cmpq	$255, %rax
	jbe	LBB100_110
	jmp	LBB100_191
LBB100_25:
	cmpq	$10, (%rsi)
	jne	LBB100_191
	movq	8(%rsi), %rax
	movq	%rax, 8(%rdi)
	movq	$28, (%rdi)
	popq	%rbp
	retq
LBB100_27:
	cmpq	$10, (%rsi)
	jne	LBB100_191
	movq	8(%rsi), %rax
	movq	%rax, 8(%rdi)
	movq	$21, (%rdi)
	popq	%rbp
	retq
LBB100_29:
	movq	(%rsi), %rax
	addq	$-2, %rax
	cmpq	$5, %rax
	ja	LBB100_191
	leaq	LJTI100_23(%rip), %rcx
	movslq	(%rcx,%rax,4), %rax
	addq	%rcx, %rax
	jmpq	*%rax
LBB100_31:
	movq	8(%rsi), %rax
	cmpq	$255, %rax
	jbe	LBB100_116
	jmp	LBB100_191
LBB100_32:
	cmpq	$10, (%rsi)
	jne	LBB100_191
	movq	8(%rsi), %rax
	movq	%rax, 8(%rdi)
	movq	$16, (%rdi)
	popq	%rbp
	retq
LBB100_34:
	movq	(%rsi), %rax
	addq	$-2, %rax
	cmpq	$5, %rax
	ja	LBB100_191
	leaq	LJTI100_21(%rip), %rcx
	movslq	(%rcx,%rax,4), %rax
	addq	%rcx, %rax
	jmpq	*%rax
LBB100_37:
	movq	(%rsi), %rax
	addq	$-2, %rax
	cmpq	$5, %rax
	ja	LBB100_191
	leaq	LJTI100_20(%rip), %rcx
	movslq	(%rcx,%rax,4), %rax
	addq	%rcx, %rax
	jmpq	*%rax
LBB100_39:
	movq	8(%rsi), %rax
	cmpq	$65535, %rax
	jbe	LBB100_125
	jmp	LBB100_191
LBB100_40:
	movq	(%rsi), %rax
	addq	$-2, %rax
	cmpq	$5, %rax
	ja	LBB100_191
	leaq	LJTI100_19(%rip), %rcx
	movslq	(%rcx,%rax,4), %rax
	addq	%rcx, %rax
	jmpq	*%rax
LBB100_42:
	movq	8(%rsi), %rax
	cmpq	$255, %rax
	jbe	LBB100_131
	jmp	LBB100_191
LBB100_43:
	movq	(%rsi), %rax
	addq	$-2, %rax
	cmpq	$5, %rax
	ja	LBB100_191
	leaq	LJTI100_18(%rip), %rcx
	movslq	(%rcx,%rax,4), %rax
	addq	%rcx, %rax
	jmpq	*%rax
LBB100_45:
	movq	8(%rsi), %rax
	cmpq	$255, %rax
	jbe	LBB100_137
	jmp	LBB100_191
LBB100_46:
	movq	(%rsi), %rax
	decq	%rax
	cmpq	$7, %rax
	ja	LBB100_191
	leaq	LJTI100_15(%rip), %rcx
	movslq	(%rcx,%rax,4), %rax
	addq	%rcx, %rax
	jmpq	*%rax
LBB100_49:
	movq	(%rsi), %rax
	addq	$-2, %rax
	cmpq	$5, %rax
	ja	LBB100_191
	leaq	LJTI100_13(%rip), %rcx
	movslq	(%rcx,%rax,4), %rax
	addq	%rcx, %rax
	jmpq	*%rax
LBB100_51:
	movq	8(%rsi), %rax
	cmpq	$255, %rax
	jbe	LBB100_143
	jmp	LBB100_191
LBB100_52:
	movq	(%rsi), %rax
	addq	$-2, %rax
	cmpq	$5, %rax
	ja	LBB100_191
	leaq	LJTI100_12(%rip), %rcx
	movslq	(%rcx,%rax,4), %rax
	addq	%rcx, %rax
	jmpq	*%rax
LBB100_54:
	movq	8(%rsi), %rax
	movq	%rax, 8(%rdi)
	movq	$39, (%rdi)
	popq	%rbp
	retq
LBB100_55:
	movq	(%rsi), %rax
	addq	$-2, %rax
	cmpq	$5, %rax
	ja	LBB100_191
	leaq	LJTI100_9(%rip), %rcx
	movslq	(%rcx,%rax,4), %rax
	addq	%rcx, %rax
	jmpq	*%rax
LBB100_57:
	movq	8(%rsi), %rax
	cmpq	$255, %rax
	jbe	LBB100_154
	jmp	LBB100_191
LBB100_58:
	movq	(%rsi), %rax
	addq	$-2, %rax
	cmpq	$5, %rax
	ja	LBB100_191
	leaq	LJTI100_7(%rip), %rcx
	movslq	(%rcx,%rax,4), %rax
	addq	%rcx, %rax
	jmpq	*%rax
LBB100_61:
	movq	(%rsi), %rax
	addq	$-2, %rax
	cmpq	$5, %rax
	ja	LBB100_191
	leaq	LJTI100_3(%rip), %rcx
	movslq	(%rcx,%rax,4), %rax
	addq	%rcx, %rax
	jmpq	*%rax
LBB100_63:
	movq	8(%rsi), %rax
	cmpq	$255, %rax
	jbe	LBB100_163
	jmp	LBB100_191
LBB100_64:
	movq	(%rsi), %rax
	addq	$-2, %rax
	cmpq	$5, %rax
	ja	LBB100_191
	leaq	LJTI100_2(%rip), %rcx
	movslq	(%rcx,%rax,4), %rax
	addq	%rcx, %rax
	jmpq	*%rax
LBB100_66:
	movq	8(%rsi), %rax
	cmpq	$255, %rax
	jbe	LBB100_169
	jmp	LBB100_191
LBB100_67:
	cmpq	$10, (%rsi)
	jne	LBB100_191
	movq	8(%rsi), %rax
	movq	%rax, 8(%rdi)
	movq	$20, (%rdi)
	popq	%rbp
	retq
LBB100_69:
	movq	(%rsi), %rax
	addq	$-2, %rax
	cmpq	$5, %rax
	ja	LBB100_191
	leaq	LJTI100_1(%rip), %rcx
	movslq	(%rcx,%rax,4), %rax
	addq	%rcx, %rax
	jmpq	*%rax
LBB100_71:
	movq	8(%rsi), %rax
	cmpq	$255, %rax
	jbe	LBB100_175
	jmp	LBB100_191
LBB100_72:
	movq	(%rsi), %rax
	decq	%rax
	cmpq	$7, %rax
	ja	LBB100_191
	leaq	LJTI100_4(%rip), %rcx
	movslq	(%rcx,%rax,4), %rax
	addq	%rcx, %rax
	jmpq	*%rax
LBB100_74:
	vmovups	8(%rsi), %xmm0
	vmovups	%xmm0, 8(%rdi)
	movq	$8, (%rdi)
	popq	%rbp
	retq
LBB100_75:
	movq	(%rsi), %rax
	addq	$-2, %rax
	cmpq	$5, %rax
	ja	LBB100_191
	leaq	LJTI100_10(%rip), %rcx
	movslq	(%rcx,%rax,4), %rax
	addq	%rcx, %rax
	jmpq	*%rax
LBB100_78:
	movq	(%rsi), %rax
	addq	$-2, %rax
	cmpq	$5, %rax
	ja	LBB100_191
	leaq	LJTI100_11(%rip), %rcx
	movslq	(%rcx,%rax,4), %rax
	addq	%rcx, %rax
	jmpq	*%rax
LBB100_18:
	movq	8(%rsi), %rax
	movq	%rax, 8(%rdi)
	movq	$44, (%rdi)
	popq	%rbp
	retq
LBB100_81:
	movq	(%rsi), %rax
	addq	$-2, %rax
	cmpq	$5, %rax
	ja	LBB100_191
	leaq	LJTI100_14(%rip), %rcx
	movslq	(%rcx,%rax,4), %rax
	addq	%rcx, %rax
	jmpq	*%rax
LBB100_9:
	movq	8(%rsi), %rax
	movq	%rax, 8(%rdi)
	movq	$7, (%rdi)
	popq	%rbp
	retq
LBB100_84:
	movq	8(%rsi), %rax
	testq	%rax, %rax
	js	LBB100_191
	movq	%rax, 8(%rdi)
	movq	$7, (%rdi)
	popq	%rbp
	retq
LBB100_94:
	movzbl	8(%rsi), %eax
	movq	%rax, 8(%rdi)
	movq	$7, (%rdi)
	popq	%rbp
	retq
LBB100_96:
	movl	8(%rsi), %eax
	movq	%rax, 8(%rdi)
	movq	$7, (%rdi)
	popq	%rbp
	retq
LBB100_95:
	movzwl	8(%rsi), %eax
	movq	%rax, 8(%rdi)
	movq	$7, (%rdi)
	popq	%rbp
	retq
LBB100_85:
	movq	(%rsi), %rax
	addq	$-2, %rax
	cmpq	$5, %rax
	ja	LBB100_191
	leaq	LJTI100_16(%rip), %rcx
	movslq	(%rcx,%rax,4), %rax
	addq	%rcx, %rax
	jmpq	*%rax
LBB100_87:
	movq	8(%rsi), %rax
	cmpq	$255, %rax
	ja	LBB100_191
	jmp	LBB100_192
LBB100_88:
	cmpq	$10, (%rsi)
	jne	LBB100_191
	movq	8(%rsi), %rax
	movq	%rax, 8(%rdi)
	movq	$11, (%rdi)
	popq	%rbp
	retq
LBB100_90:
	cmpq	$10, (%rsi)
	jne	LBB100_191
	movq	8(%rsi), %rax
	movq	%rax, 8(%rdi)
	movq	$23, (%rdi)
	popq	%rbp
	retq
LBB100_92:
	cmpq	$10, (%rsi)
	jne	LBB100_191
	movq	8(%rsi), %rax
	movq	%rax, 8(%rdi)
	movq	$18, (%rdi)
	popq	%rbp
	retq
LBB100_99:
	movzbl	8(%rsi), %eax
	movq	%rax, 8(%rdi)
	movq	$44, (%rdi)
	popq	%rbp
	retq
LBB100_100:
	movzwl	8(%rsi), %eax
	movq	%rax, 8(%rdi)
	movq	$44, (%rdi)
	popq	%rbp
	retq
LBB100_97:
	movq	8(%rsi), %rax
	testq	%rax, %rax
	jns	LBB100_182
	jmp	LBB100_191
LBB100_105:
	movzbl	8(%rsi), %eax
	movb	%al, 8(%rdi)
	movq	$34, (%rdi)
	popq	%rbp
	retq
LBB100_106:
	movzwl	8(%rsi), %eax
	cmpq	$255, %rax
	jbe	LBB100_110
	jmp	LBB100_191
LBB100_107:
	movl	8(%rsi), %eax
	cmpq	$255, %rax
	jbe	LBB100_110
	jmp	LBB100_191
LBB100_108:
	movq	8(%rsi), %rax
	testq	%rax, %rax
	js	LBB100_191
	cmpq	$255, %rax
	ja	LBB100_191
LBB100_110:
	movb	%al, 8(%rdi)
	movq	$34, (%rdi)
	popq	%rbp
	retq
LBB100_111:
	movzbl	8(%rsi), %eax
	movb	%al, 8(%rdi)
	movq	$43, (%rdi)
	popq	%rbp
	retq
LBB100_112:
	movzwl	8(%rsi), %eax
	cmpq	$255, %rax
	jbe	LBB100_116
	jmp	LBB100_191
LBB100_113:
	movl	8(%rsi), %eax
	cmpq	$255, %rax
	jbe	LBB100_116
	jmp	LBB100_191
LBB100_114:
	movq	8(%rsi), %rax
	testq	%rax, %rax
	js	LBB100_191
	cmpq	$255, %rax
	ja	LBB100_191
LBB100_116:
	movb	%al, 8(%rdi)
	movq	$43, (%rdi)
	popq	%rbp
	retq
LBB100_120:
	movzbl	8(%rsi), %eax
	movw	%ax, 8(%rdi)
	movq	$38, (%rdi)
	popq	%rbp
	retq
LBB100_121:
	movzwl	8(%rsi), %eax
	movw	%ax, 8(%rdi)
	movq	$38, (%rdi)
	popq	%rbp
	retq
LBB100_122:
	movl	8(%rsi), %eax
	cmpq	$65535, %rax
	jbe	LBB100_125
	jmp	LBB100_191
LBB100_123:
	movq	8(%rsi), %rax
	testq	%rax, %rax
	js	LBB100_191
	cmpq	$65535, %rax
	ja	LBB100_191
LBB100_125:
	movw	%ax, 8(%rdi)
	movq	$38, (%rdi)
	popq	%rbp
	retq
LBB100_126:
	movzbl	8(%rsi), %eax
	movb	%al, 8(%rdi)
	movq	$36, (%rdi)
	popq	%rbp
	retq
LBB100_127:
	movzwl	8(%rsi), %eax
	cmpq	$255, %rax
	jbe	LBB100_131
	jmp	LBB100_191
LBB100_128:
	movl	8(%rsi), %eax
	cmpq	$255, %rax
	jbe	LBB100_131
	jmp	LBB100_191
LBB100_129:
	movq	8(%rsi), %rax
	testq	%rax, %rax
	js	LBB100_191
	cmpq	$255, %rax
	ja	LBB100_191
LBB100_131:
	movb	%al, 8(%rdi)
	movq	$36, (%rdi)
	popq	%rbp
	retq
LBB100_132:
	movzbl	8(%rsi), %eax
	movb	%al, 8(%rdi)
	movq	$42, (%rdi)
	popq	%rbp
	retq
LBB100_133:
	movzwl	8(%rsi), %eax
	cmpq	$255, %rax
	jbe	LBB100_137
	jmp	LBB100_191
LBB100_134:
	movl	8(%rsi), %eax
	cmpq	$255, %rax
	jbe	LBB100_137
	jmp	LBB100_191
LBB100_135:
	movq	8(%rsi), %rax
	testq	%rax, %rax
	js	LBB100_191
	cmpq	$255, %rax
	ja	LBB100_191
LBB100_137:
	movb	%al, 8(%rdi)
	movq	$42, (%rdi)
	popq	%rbp
	retq
LBB100_138:
	movzbl	8(%rsi), %eax
	movb	%al, 8(%rdi)
	movq	$35, (%rdi)
	popq	%rbp
	retq
LBB100_139:
	movzwl	8(%rsi), %eax
	cmpq	$255, %rax
	jbe	LBB100_143
	jmp	LBB100_191
LBB100_140:
	movl	8(%rsi), %eax
	cmpq	$255, %rax
	jbe	LBB100_143
	jmp	LBB100_191
LBB100_141:
	movq	8(%rsi), %rax
	testq	%rax, %rax
	js	LBB100_191
	cmpq	$255, %rax
	ja	LBB100_191
LBB100_143:
	movb	%al, 8(%rdi)
	movq	$35, (%rdi)
	popq	%rbp
	retq
LBB100_144:
	movzbl	8(%rsi), %eax
	movq	%rax, 8(%rdi)
	movq	$39, (%rdi)
	popq	%rbp
	retq
LBB100_145:
	movzwl	8(%rsi), %eax
	movq	%rax, 8(%rdi)
	movq	$39, (%rdi)
	popq	%rbp
	retq
LBB100_146:
	movl	8(%rsi), %eax
	movq	%rax, 8(%rdi)
	movq	$39, (%rdi)
	popq	%rbp
	retq
LBB100_147:
	movq	8(%rsi), %rax
	testq	%rax, %rax
	js	LBB100_191
	movq	%rax, 8(%rdi)
	movq	$39, (%rdi)
	popq	%rbp
	retq
LBB100_149:
	movzbl	8(%rsi), %eax
	movb	%al, 8(%rdi)
	movq	$41, (%rdi)
	popq	%rbp
	retq
LBB100_150:
	movzwl	8(%rsi), %eax
	cmpq	$255, %rax
	jbe	LBB100_154
	jmp	LBB100_191
LBB100_151:
	movl	8(%rsi), %eax
	cmpq	$255, %rax
	jbe	LBB100_154
	jmp	LBB100_191
LBB100_152:
	movq	8(%rsi), %rax
	testq	%rax, %rax
	js	LBB100_191
	cmpq	$255, %rax
	ja	LBB100_191
LBB100_154:
	movb	%al, 8(%rdi)
	movq	$41, (%rdi)
	popq	%rbp
	retq
LBB100_158:
	movzbl	8(%rsi), %eax
	movb	%al, 8(%rdi)
	movq	$32, (%rdi)
	popq	%rbp
	retq
LBB100_159:
	movzwl	8(%rsi), %eax
	cmpq	$255, %rax
	jbe	LBB100_163
	jmp	LBB100_191
LBB100_160:
	movl	8(%rsi), %eax
	cmpq	$255, %rax
	jbe	LBB100_163
	jmp	LBB100_191
LBB100_161:
	movq	8(%rsi), %rax
	testq	%rax, %rax
	js	LBB100_191
	cmpq	$255, %rax
	ja	LBB100_191
LBB100_163:
	movb	%al, 8(%rdi)
	movq	$32, (%rdi)
	popq	%rbp
	retq
LBB100_164:
	movzbl	8(%rsi), %eax
	movb	%al, 8(%rdi)
	movq	$40, (%rdi)
	popq	%rbp
	retq
LBB100_165:
	movzwl	8(%rsi), %eax
	cmpq	$255, %rax
	jbe	LBB100_169
	jmp	LBB100_191
LBB100_166:
	movl	8(%rsi), %eax
	cmpq	$255, %rax
	jbe	LBB100_169
	jmp	LBB100_191
LBB100_167:
	movq	8(%rsi), %rax
	testq	%rax, %rax
	js	LBB100_191
	cmpq	$255, %rax
	ja	LBB100_191
LBB100_169:
	movb	%al, 8(%rdi)
	movq	$40, (%rdi)
	popq	%rbp
	retq
LBB100_170:
	movzbl	8(%rsi), %eax
	movb	%al, 8(%rdi)
	movq	$37, (%rdi)
	popq	%rbp
	retq
LBB100_171:
	movzwl	8(%rsi), %eax
	cmpq	$255, %rax
	jbe	LBB100_175
	jmp	LBB100_191
LBB100_172:
	movl	8(%rsi), %eax
	cmpq	$255, %rax
	jbe	LBB100_175
	jmp	LBB100_191
LBB100_173:
	movq	8(%rsi), %rax
	testq	%rax, %rax
	js	LBB100_191
	cmpq	$255, %rax
	ja	LBB100_191
LBB100_175:
	movb	%al, 8(%rdi)
	movq	$37, (%rdi)
	popq	%rbp
	retq
LBB100_181:
	movl	8(%rsi), %eax
LBB100_182:
	movq	%rax, 8(%rdi)
	movq	$44, (%rdi)
	popq	%rbp
	retq
LBB100_186:
	movzbl	8(%rsi), %eax
	jmp	LBB100_192
LBB100_187:
	movzwl	8(%rsi), %eax
	cmpq	$255, %rax
	ja	LBB100_191
	jmp	LBB100_192
LBB100_188:
	movl	8(%rsi), %eax
	cmpq	$255, %rax
	ja	LBB100_191
	jmp	LBB100_192
LBB100_189:
	movq	8(%rsi), %rax
	testq	%rax, %rax
	js	LBB100_191
	cmpq	$255, %rax
	jbe	LBB100_192
LBB100_191:
	popq	%rbp
	jmp	__ZN90_$LT$gimli..read..unit..AttributeValue$LT$R$C$Offset$GT$$u20$as$u20$core..clone..Clone$GT$5clone17h7e63c5898f5da647E
LBB100_192:
	movb	%al, 8(%rdi)
	movq	$33, (%rdi)
	popq	%rbp
	retq
	.cfi_endproc
	.p2align	2, 0x90
	.data_region jt32
.set L100_0_set_4, LBB100_4-LJTI100_0
.set L100_0_set_191, LBB100_191-LJTI100_0
.set L100_0_set_29, LBB100_29-LJTI100_0
.set L100_0_set_7, LBB100_7-LJTI100_0
.set L100_0_set_32, LBB100_32-LJTI100_0
.set L100_0_set_34, LBB100_34-LJTI100_0
.set L100_0_set_37, LBB100_37-LJTI100_0
.set L100_0_set_40, LBB100_40-LJTI100_0
.set L100_0_set_43, LBB100_43-LJTI100_0
.set L100_0_set_2, LBB100_2-LJTI100_0
.set L100_0_set_10, LBB100_10-LJTI100_0
.set L100_0_set_46, LBB100_46-LJTI100_0
.set L100_0_set_49, LBB100_49-LJTI100_0
.set L100_0_set_52, LBB100_52-LJTI100_0
.set L100_0_set_55, LBB100_55-LJTI100_0
.set L100_0_set_12, LBB100_12-LJTI100_0
.set L100_0_set_58, LBB100_58-LJTI100_0
.set L100_0_set_16, LBB100_16-LJTI100_0
.set L100_0_set_19, LBB100_19-LJTI100_0
.set L100_0_set_61, LBB100_61-LJTI100_0
.set L100_0_set_64, LBB100_64-LJTI100_0
.set L100_0_set_67, LBB100_67-LJTI100_0
.set L100_0_set_69, LBB100_69-LJTI100_0
.set L100_0_set_72, LBB100_72-LJTI100_0
.set L100_0_set_75, LBB100_75-LJTI100_0
.set L100_0_set_78, LBB100_78-LJTI100_0
.set L100_0_set_81, LBB100_81-LJTI100_0
.set L100_0_set_85, LBB100_85-LJTI100_0
.set L100_0_set_22, LBB100_22-LJTI100_0
.set L100_0_set_25, LBB100_25-LJTI100_0
.set L100_0_set_88, LBB100_88-LJTI100_0
.set L100_0_set_90, LBB100_90-LJTI100_0
.set L100_0_set_27, LBB100_27-LJTI100_0
.set L100_0_set_92, LBB100_92-LJTI100_0
LJTI100_0:
	.long	L100_0_set_4
	.long	L100_0_set_191
	.long	L100_0_set_191
	.long	L100_0_set_191
	.long	L100_0_set_191
	.long	L100_0_set_191
	.long	L100_0_set_191
	.long	L100_0_set_29
	.long	L100_0_set_191
	.long	L100_0_set_7
	.long	L100_0_set_7
	.long	L100_0_set_7
	.long	L100_0_set_191
	.long	L100_0_set_191
	.long	L100_0_set_32
	.long	L100_0_set_191
	.long	L100_0_set_34
	.long	L100_0_set_37
	.long	L100_0_set_191
	.long	L100_0_set_191
	.long	L100_0_set_191
	.long	L100_0_set_40
	.long	L100_0_set_191
	.long	L100_0_set_4
	.long	L100_0_set_191
	.long	L100_0_set_191
	.long	L100_0_set_191
	.long	L100_0_set_191
	.long	L100_0_set_191
	.long	L100_0_set_191
	.long	L100_0_set_43
	.long	L100_0_set_191
	.long	L100_0_set_2
	.long	L100_0_set_191
	.long	L100_0_set_191
	.long	L100_0_set_191
	.long	L100_0_set_191
	.long	L100_0_set_191
	.long	L100_0_set_191
	.long	L100_0_set_191
	.long	L100_0_set_4
	.long	L100_0_set_191
	.long	L100_0_set_10
	.long	L100_0_set_191
	.long	L100_0_set_46
	.long	L100_0_set_2
	.long	L100_0_set_191
	.long	L100_0_set_191
	.long	L100_0_set_49
	.long	L100_0_set_52
	.long	L100_0_set_191
	.long	L100_0_set_191
	.long	L100_0_set_55
	.long	L100_0_set_2
	.long	L100_0_set_12
	.long	L100_0_set_58
	.long	L100_0_set_16
	.long	L100_0_set_19
	.long	L100_0_set_191
	.long	L100_0_set_191
	.long	L100_0_set_61
	.long	L100_0_set_191
	.long	L100_0_set_4
	.long	L100_0_set_191
	.long	L100_0_set_64
	.long	L100_0_set_67
	.long	L100_0_set_191
	.long	L100_0_set_191
	.long	L100_0_set_4
	.long	L100_0_set_191
	.long	L100_0_set_4
	.long	L100_0_set_191
	.long	L100_0_set_4
	.long	L100_0_set_191
	.long	L100_0_set_69
	.long	L100_0_set_4
	.long	L100_0_set_2
	.long	L100_0_set_2
	.long	L100_0_set_2
	.long	L100_0_set_72
	.long	L100_0_set_191
	.long	L100_0_set_191
	.long	L100_0_set_191
	.long	L100_0_set_10
	.long	L100_0_set_191
	.long	L100_0_set_75
	.long	L100_0_set_78
	.long	L100_0_set_81
	.long	L100_0_set_191
	.long	L100_0_set_191
	.long	L100_0_set_191
	.long	L100_0_set_191
	.long	L100_0_set_85
	.long	L100_0_set_191
	.long	L100_0_set_191
	.long	L100_0_set_191
	.long	L100_0_set_191
	.long	L100_0_set_191
	.long	L100_0_set_191
	.long	L100_0_set_22
	.long	L100_0_set_191
	.long	L100_0_set_191
	.long	L100_0_set_191
	.long	L100_0_set_191
	.long	L100_0_set_191
	.long	L100_0_set_191
	.long	L100_0_set_191
	.long	L100_0_set_191
	.long	L100_0_set_191
	.long	L100_0_set_191
	.long	L100_0_set_191
	.long	L100_0_set_2
	.long	L100_0_set_25
	.long	L100_0_set_88
	.long	L100_0_set_90
	.long	L100_0_set_191
	.long	L100_0_set_191
	.long	L100_0_set_191
	.long	L100_0_set_191
	.long	L100_0_set_27
	.long	L100_0_set_191
	.long	L100_0_set_191
	.long	L100_0_set_191
	.long	L100_0_set_191
	.long	L100_0_set_2
	.long	L100_0_set_2
	.long	L100_0_set_191
	.long	L100_0_set_191
	.long	L100_0_set_191
	.long	L100_0_set_2
	.long	L100_0_set_2
	.long	L100_0_set_2
	.long	L100_0_set_2
	.long	L100_0_set_191
	.long	L100_0_set_191
	.long	L100_0_set_191
	.long	L100_0_set_191
	.long	L100_0_set_191
	.long	L100_0_set_92
.set L100_1_set_170, LBB100_170-LJTI100_1
.set L100_1_set_171, LBB100_171-LJTI100_1
.set L100_1_set_172, LBB100_172-LJTI100_1
.set L100_1_set_71, LBB100_71-LJTI100_1
.set L100_1_set_173, LBB100_173-LJTI100_1
LJTI100_1:
	.long	L100_1_set_170
	.long	L100_1_set_171
	.long	L100_1_set_172
	.long	L100_1_set_71
	.long	L100_1_set_173
	.long	L100_1_set_71
.set L100_2_set_164, LBB100_164-LJTI100_2
.set L100_2_set_165, LBB100_165-LJTI100_2
.set L100_2_set_166, LBB100_166-LJTI100_2
.set L100_2_set_66, LBB100_66-LJTI100_2
.set L100_2_set_167, LBB100_167-LJTI100_2
LJTI100_2:
	.long	L100_2_set_164
	.long	L100_2_set_165
	.long	L100_2_set_166
	.long	L100_2_set_66
	.long	L100_2_set_167
	.long	L100_2_set_66
.set L100_3_set_158, LBB100_158-LJTI100_3
.set L100_3_set_159, LBB100_159-LJTI100_3
.set L100_3_set_160, LBB100_160-LJTI100_3
.set L100_3_set_63, LBB100_63-LJTI100_3
.set L100_3_set_161, LBB100_161-LJTI100_3
LJTI100_3:
	.long	L100_3_set_158
	.long	L100_3_set_159
	.long	L100_3_set_160
	.long	L100_3_set_63
	.long	L100_3_set_161
	.long	L100_3_set_63
.set L100_4_set_74, LBB100_74-LJTI100_4
.set L100_4_set_94, LBB100_94-LJTI100_4
.set L100_4_set_95, LBB100_95-LJTI100_4
.set L100_4_set_96, LBB100_96-LJTI100_4
.set L100_4_set_9, LBB100_9-LJTI100_4
.set L100_4_set_84, LBB100_84-LJTI100_4
LJTI100_4:
	.long	L100_4_set_74
	.long	L100_4_set_94
	.long	L100_4_set_95
	.long	L100_4_set_96
	.long	L100_4_set_9
	.long	L100_4_set_84
	.long	L100_4_set_9
	.long	L100_4_set_74
.set L100_5_set_94, LBB100_94-LJTI100_5
.set L100_5_set_95, LBB100_95-LJTI100_5
.set L100_5_set_96, LBB100_96-LJTI100_5
.set L100_5_set_9, LBB100_9-LJTI100_5
.set L100_5_set_84, LBB100_84-LJTI100_5
LJTI100_5:
	.long	L100_5_set_94
	.long	L100_5_set_95
	.long	L100_5_set_96
	.long	L100_5_set_9
	.long	L100_5_set_84
	.long	L100_5_set_9
.set L100_6_set_99, LBB100_99-LJTI100_6
.set L100_6_set_100, LBB100_100-LJTI100_6
.set L100_6_set_101, LBB100_101-LJTI100_6
.set L100_6_set_18, LBB100_18-LJTI100_6
.set L100_6_set_97, LBB100_97-LJTI100_6
LJTI100_6:
	.long	L100_6_set_99
	.long	L100_6_set_100
	.long	L100_6_set_101
	.long	L100_6_set_18
	.long	L100_6_set_97
	.long	L100_6_set_18
.set L100_7_set_94, LBB100_94-LJTI100_7
.set L100_7_set_95, LBB100_95-LJTI100_7
.set L100_7_set_96, LBB100_96-LJTI100_7
.set L100_7_set_9, LBB100_9-LJTI100_7
.set L100_7_set_84, LBB100_84-LJTI100_7
LJTI100_7:
	.long	L100_7_set_94
	.long	L100_7_set_95
	.long	L100_7_set_96
	.long	L100_7_set_9
	.long	L100_7_set_84
	.long	L100_7_set_9
.set L100_8_set_74, LBB100_74-LJTI100_8
.set L100_8_set_94, LBB100_94-LJTI100_8
.set L100_8_set_201, LBB100_201-LJTI100_8
.set L100_8_set_96, LBB100_96-LJTI100_8
.set L100_8_set_9, LBB100_9-LJTI100_8
.set L100_8_set_84, LBB100_84-LJTI100_8
.set L100_8_set_191, LBB100_191-LJTI100_8
.set L100_8_set_15, LBB100_15-LJTI100_8
LJTI100_8:
	.long	L100_8_set_74
	.long	L100_8_set_94
	.long	L100_8_set_201
	.long	L100_8_set_96
	.long	L100_8_set_9
	.long	L100_8_set_84
	.long	L100_8_set_9
	.long	L100_8_set_74
	.long	L100_8_set_191
	.long	L100_8_set_15
.set L100_9_set_149, LBB100_149-LJTI100_9
.set L100_9_set_150, LBB100_150-LJTI100_9
.set L100_9_set_151, LBB100_151-LJTI100_9
.set L100_9_set_57, LBB100_57-LJTI100_9
.set L100_9_set_152, LBB100_152-LJTI100_9
LJTI100_9:
	.long	L100_9_set_149
	.long	L100_9_set_150
	.long	L100_9_set_151
	.long	L100_9_set_57
	.long	L100_9_set_152
	.long	L100_9_set_57
.set L100_10_set_94, LBB100_94-LJTI100_10
.set L100_10_set_95, LBB100_95-LJTI100_10
.set L100_10_set_96, LBB100_96-LJTI100_10
.set L100_10_set_9, LBB100_9-LJTI100_10
.set L100_10_set_84, LBB100_84-LJTI100_10
LJTI100_10:
	.long	L100_10_set_94
	.long	L100_10_set_95
	.long	L100_10_set_96
	.long	L100_10_set_9
	.long	L100_10_set_84
	.long	L100_10_set_9
.set L100_11_set_99, LBB100_99-LJTI100_11
.set L100_11_set_100, LBB100_100-LJTI100_11
.set L100_11_set_181, LBB100_181-LJTI100_11
.set L100_11_set_18, LBB100_18-LJTI100_11
.set L100_11_set_97, LBB100_97-LJTI100_11
LJTI100_11:
	.long	L100_11_set_99
	.long	L100_11_set_100
	.long	L100_11_set_181
	.long	L100_11_set_18
	.long	L100_11_set_97
	.long	L100_11_set_18
.set L100_12_set_144, LBB100_144-LJTI100_12
.set L100_12_set_145, LBB100_145-LJTI100_12
.set L100_12_set_146, LBB100_146-LJTI100_12
.set L100_12_set_54, LBB100_54-LJTI100_12
.set L100_12_set_147, LBB100_147-LJTI100_12
LJTI100_12:
	.long	L100_12_set_144
	.long	L100_12_set_145
	.long	L100_12_set_146
	.long	L100_12_set_54
	.long	L100_12_set_147
	.long	L100_12_set_54
.set L100_13_set_138, LBB100_138-LJTI100_13
.set L100_13_set_139, LBB100_139-LJTI100_13
.set L100_13_set_140, LBB100_140-LJTI100_13
.set L100_13_set_51, LBB100_51-LJTI100_13
.set L100_13_set_141, LBB100_141-LJTI100_13
LJTI100_13:
	.long	L100_13_set_138
	.long	L100_13_set_139
	.long	L100_13_set_140
	.long	L100_13_set_51
	.long	L100_13_set_141
	.long	L100_13_set_51
.set L100_14_set_94, LBB100_94-LJTI100_14
.set L100_14_set_95, LBB100_95-LJTI100_14
.set L100_14_set_96, LBB100_96-LJTI100_14
.set L100_14_set_9, LBB100_9-LJTI100_14
.set L100_14_set_84, LBB100_84-LJTI100_14
LJTI100_14:
	.long	L100_14_set_94
	.long	L100_14_set_95
	.long	L100_14_set_96
	.long	L100_14_set_9
	.long	L100_14_set_84
	.long	L100_14_set_9
.set L100_15_set_74, LBB100_74-LJTI100_15
.set L100_15_set_94, LBB100_94-LJTI100_15
.set L100_15_set_95, LBB100_95-LJTI100_15
.set L100_15_set_96, LBB100_96-LJTI100_15
.set L100_15_set_9, LBB100_9-LJTI100_15
.set L100_15_set_84, LBB100_84-LJTI100_15
LJTI100_15:
	.long	L100_15_set_74
	.long	L100_15_set_94
	.long	L100_15_set_95
	.long	L100_15_set_96
	.long	L100_15_set_9
	.long	L100_15_set_84
	.long	L100_15_set_9
	.long	L100_15_set_74
.set L100_16_set_186, LBB100_186-LJTI100_16
.set L100_16_set_187, LBB100_187-LJTI100_16
.set L100_16_set_188, LBB100_188-LJTI100_16
.set L100_16_set_87, LBB100_87-LJTI100_16
.set L100_16_set_189, LBB100_189-LJTI100_16
LJTI100_16:
	.long	L100_16_set_186
	.long	L100_16_set_187
	.long	L100_16_set_188
	.long	L100_16_set_87
	.long	L100_16_set_189
	.long	L100_16_set_87
.set L100_17_set_105, LBB100_105-LJTI100_17
.set L100_17_set_106, LBB100_106-LJTI100_17
.set L100_17_set_107, LBB100_107-LJTI100_17
.set L100_17_set_24, LBB100_24-LJTI100_17
.set L100_17_set_108, LBB100_108-LJTI100_17
LJTI100_17:
	.long	L100_17_set_105
	.long	L100_17_set_106
	.long	L100_17_set_107
	.long	L100_17_set_24
	.long	L100_17_set_108
	.long	L100_17_set_24
.set L100_18_set_132, LBB100_132-LJTI100_18
.set L100_18_set_133, LBB100_133-LJTI100_18
.set L100_18_set_134, LBB100_134-LJTI100_18
.set L100_18_set_45, LBB100_45-LJTI100_18
.set L100_18_set_135, LBB100_135-LJTI100_18
LJTI100_18:
	.long	L100_18_set_132
	.long	L100_18_set_133
	.long	L100_18_set_134
	.long	L100_18_set_45
	.long	L100_18_set_135
	.long	L100_18_set_45
.set L100_19_set_126, LBB100_126-LJTI100_19
.set L100_19_set_127, LBB100_127-LJTI100_19
.set L100_19_set_128, LBB100_128-LJTI100_19
.set L100_19_set_42, LBB100_42-LJTI100_19
.set L100_19_set_129, LBB100_129-LJTI100_19
LJTI100_19:
	.long	L100_19_set_126
	.long	L100_19_set_127
	.long	L100_19_set_128
	.long	L100_19_set_42
	.long	L100_19_set_129
	.long	L100_19_set_42
.set L100_20_set_120, LBB100_120-LJTI100_20
.set L100_20_set_121, LBB100_121-LJTI100_20
.set L100_20_set_122, LBB100_122-LJTI100_20
.set L100_20_set_39, LBB100_39-LJTI100_20
.set L100_20_set_123, LBB100_123-LJTI100_20
LJTI100_20:
	.long	L100_20_set_120
	.long	L100_20_set_121
	.long	L100_20_set_122
	.long	L100_20_set_39
	.long	L100_20_set_123
	.long	L100_20_set_39
.set L100_21_set_94, LBB100_94-LJTI100_21
.set L100_21_set_95, LBB100_95-LJTI100_21
.set L100_21_set_96, LBB100_96-LJTI100_21
.set L100_21_set_9, LBB100_9-LJTI100_21
.set L100_21_set_84, LBB100_84-LJTI100_21
LJTI100_21:
	.long	L100_21_set_94
	.long	L100_21_set_95
	.long	L100_21_set_96
	.long	L100_21_set_9
	.long	L100_21_set_84
	.long	L100_21_set_9
.set L100_22_set_74, LBB100_74-LJTI100_22
.set L100_22_set_94, LBB100_94-LJTI100_22
.set L100_22_set_95, LBB100_95-LJTI100_22
.set L100_22_set_96, LBB100_96-LJTI100_22
.set L100_22_set_9, LBB100_9-LJTI100_22
.set L100_22_set_84, LBB100_84-LJTI100_22
LJTI100_22:
	.long	L100_22_set_74
	.long	L100_22_set_94
	.long	L100_22_set_95
	.long	L100_22_set_96
	.long	L100_22_set_9
	.long	L100_22_set_84
	.long	L100_22_set_9
	.long	L100_22_set_74
.set L100_23_set_111, LBB100_111-LJTI100_23
.set L100_23_set_112, LBB100_112-LJTI100_23
.set L100_23_set_113, LBB100_113-LJTI100_23
.set L100_23_set_31, LBB100_31-LJTI100_23
.set L100_23_set_114, LBB100_114-LJTI100_23
LJTI100_23:
	.long	L100_23_set_111
	.long	L100_23_set_112
	.long	L100_23_set_113
	.long	L100_23_set_31
	.long	L100_23_set_114
	.long	L100_23_set_31
	.end_data_region

	.p2align	4, 0x90
__ZN5gimli4read4unit19EntriesRaw$LT$R$GT$17read_abbreviation17hb9b5561ba243518dE:
	.cfi_startproc
	pushq	%rbp
	.cfi_def_cfa_offset 16
	.cfi_offset %rbp, -16
	movq	%rsp, %rbp
	.cfi_def_cfa_register %rbp
	pushq	%r15
	pushq	%r14
	pushq	%rbx
	pushq	%rax
	.cfi_offset %rbx, -40
	.cfi_offset %r14, -32
	.cfi_offset %r15, -24
	movq	8(%rsi), %rcx
	decq	%rcx
	xorl	%edx, %edx
	xorl	%r15d, %r15d
	.p2align	4, 0x90
LBB101_1:
	cmpq	$-1, %rcx
	je	LBB101_10
	movq	(%rsi), %rbx
	leaq	1(%rbx), %rax
	movq	%rax, (%rsi)
	movq	%rcx, 8(%rsi)
	movzbl	(%rbx), %ebx
	cmpl	$63, %edx
	jne	LBB101_5
	cmpb	$1, %bl
	ja	LBB101_4
LBB101_5:
	cmpl	$63, %edx
	ja	LBB101_33
	movzbl	%bl, %ebx
	movl	%ebx, %eax
	andl	$127, %eax
	shlxq	%rdx, %rax, %rax
	orq	%rax, %r15
	addl	$7, %edx
	decq	%rcx
	testb	%bl, %bl
	js	LBB101_1
	testq	%r15, %r15
	je	LBB101_26
	movq	24(%rsi), %rcx
	leaq	-1(%r15), %rdx
	cmpq	16(%rcx), %rdx
	jae	LBB101_12
	imulq	$112, %rdx, %r11
	addq	(%rcx), %r11
	cmpb	$1, 106(%r11)
	je	LBB101_23
	jmp	LBB101_25
LBB101_10:
	movq	(%rsi), %rax
	movl	$19, %ecx
	jmp	LBB101_11
LBB101_4:
	movl	$6, %ecx
LBB101_11:
	movq	%rcx, 8(%rdi)
	movq	%rax, 16(%rdi)
LBB101_29:
	movq	$1, (%rdi)
LBB101_30:
	addq	$8, %rsp
	popq	%rbx
	popq	%r14
	popq	%r15
	popq	%rbp
	retq
LBB101_26:
	movq	32(%rsi), %rax
	decq	%rax
	jo	LBB101_31
	movq	%rax, 32(%rsi)
	vxorps	%xmm0, %xmm0, %xmm0
	vmovups	%xmm0, (%rdi)
	jmp	LBB101_30
LBB101_12:
	movq	24(%rcx), %r11
	testq	%r11, %r11
	je	LBB101_28
	movq	32(%rcx), %r9
	movq	$-1, %r8
LBB101_14:
	movzwl	10(%r11), %r10d
	leaq	(,%r10,8), %rbx
	movl	$8, %r14d
	movq	$-1, %rdx
LBB101_15:
	testq	%rbx, %rbx
	je	LBB101_16
	xorl	%ecx, %ecx
	cmpq	%r15, 24(%r11,%rdx,8)
	setne	%cl
	cmovaq	%r8, %rcx
	incq	%rdx
	cmpq	$-1, %rcx
	je	LBB101_17
	addq	$-8, %rbx
	addq	$-112, %r14
	testq	%rcx, %rcx
	jne	LBB101_15
	jmp	LBB101_21
LBB101_16:
	movq	%r10, %rdx
LBB101_17:
	testq	%r9, %r9
	je	LBB101_28
	decq	%r9
	movq	1336(%r11,%rdx,8), %r11
	jmp	LBB101_14
LBB101_21:
	subq	%r14, %r11
	cmpb	$1, 106(%r11)
	jne	LBB101_25
LBB101_23:
	movq	32(%rsi), %rax
	incq	%rax
	jo	LBB101_32
	movq	%rax, 32(%rsi)
LBB101_25:
	movq	%r11, 8(%rdi)
	movq	$0, (%rdi)
	jmp	LBB101_30
LBB101_28:
	movq	$18, 8(%rdi)
	jmp	LBB101_29
LBB101_33:
	leaq	_str.7(%rip), %rdi
	leaq	l___unnamed_25(%rip), %rdx
	movl	$35, %esi
	callq	__ZN4core9panicking5panic17h736ee47a631475c0E
LBB101_31:
	leaq	_str.1(%rip), %rdi
	leaq	l___unnamed_28(%rip), %rdx
	movl	$33, %esi
	callq	__ZN4core9panicking5panic17h736ee47a631475c0E
LBB101_32:
	leaq	_str.0(%rip), %rdi
	leaq	l___unnamed_29(%rip), %rdx
	movl	$28, %esi
	callq	__ZN4core9panicking5panic17h736ee47a631475c0E
	.cfi_endproc

	.section	__TEXT,__literal16,16byte_literals
	.p2align	4
LCPI102_0:
	.quad	1
	.quad	19
	.section	__TEXT,__text,regular,pure_instructions
	.p2align	4, 0x90
__ZN5gimli4read5dwarf14Dwarf$LT$R$GT$11attr_string17h348d77225fd80bf2E:
	.cfi_startproc
	pushq	%rbp
	.cfi_def_cfa_offset 16
	.cfi_offset %rbp, -16
	movq	%rsp, %rbp
	.cfi_def_cfa_register %rbp
	addq	$-26, %rcx
	cmpq	$5, %rcx
	ja	LBB102_39
	leaq	LJTI102_0(%rip), %rax
	movslq	(%rax,%rcx,4), %rcx
	addq	%rax, %rcx
	jmpq	*%rcx
LBB102_3:
	movq	80(%rsi), %r11
	movq	88(%rsi), %rsi
	movq	%rsi, %rdx
	subq	%r8, %rdx
	jb	LBB102_20
	leaq	(%r11,%r8), %rcx
	addq	%rsi, %r11
	subq	%rsi, %r8
	movq	$-1, %rsi
	.p2align	4, 0x90
LBB102_5:
	leaq	(%r8,%rsi), %rax
	cmpq	$-1, %rax
	je	LBB102_19
	movzbl	1(%rcx,%rsi), %eax
	incq	%rsi
	testb	%al, %al
	jne	LBB102_5
	jmp	LBB102_7
LBB102_39:
	movb	$68, 8(%rdi)
	movl	$1, %eax
	movq	%rax, (%rdi)
	popq	%rbp
	retq
LBB102_21:
	movq	144(%rdx), %r11
	movq	96(%rsi), %r9
	movq	104(%rsi), %rcx
	subq	%r11, %rcx
	jb	LBB102_38
	movb	49(%rdx), %r10b
	xorl	%eax, %eax
	cmpb	$8, %r10b
	sete	%al
	leaq	4(,%rax,4), %rdx
	movq	%r8, %rax
	mulq	%rdx
	jo	LBB102_42
	addq	%r11, %r9
	cmpq	%rax, %rcx
	jae	LBB102_24
LBB102_38:
	movq	%r9, 16(%rdi)
	vmovaps	LCPI102_0(%rip), %xmm0
	vmovups	%xmm0, (%rdi)
	popq	%rbp
	retq
LBB102_11:
	movq	112(%rsi), %r11
	movq	120(%rsi), %rsi
	movq	%rsi, %rdx
	subq	%r8, %rdx
	jb	LBB102_20
	leaq	(%r11,%r8), %rcx
	addq	%rsi, %r11
	subq	%rsi, %r8
	movq	$-1, %rsi
	.p2align	4, 0x90
LBB102_13:
	leaq	(%r8,%rsi), %rax
	cmpq	$-1, %rax
	je	LBB102_19
	movzbl	1(%rcx,%rsi), %eax
	incq	%rsi
	testb	%al, %al
	jne	LBB102_13
	jmp	LBB102_7
LBB102_15:
	movq	64(%rsi), %r11
	movq	72(%rsi), %rsi
	movq	%rsi, %rdx
	subq	%r8, %rdx
	jb	LBB102_20
	leaq	(%r11,%r8), %rcx
	addq	%rsi, %r11
	subq	%rsi, %r8
	movq	$-1, %rsi
	.p2align	4, 0x90
LBB102_17:
	leaq	(%r8,%rsi), %rax
	cmpq	$-1, %rax
	je	LBB102_19
	movzbl	1(%rcx,%rsi), %eax
	incq	%rsi
	testb	%al, %al
	jne	LBB102_17
LBB102_7:
	cmpb	$1, %al
	movb	$1, %al
	adcb	$0, %al
	movzbl	%al, %r9d
	andl	$1, %r9d
	leaq	(%r9,%rsi), %r10
	cmpq	%r10, %rdx
	jae	LBB102_8
LBB102_19:
	movq	$19, 8(%rdi)
	movq	%rcx, 16(%rdi)
	movl	$1, %eax
	movq	%rax, (%rdi)
	popq	%rbp
	retq
LBB102_2:
	movq	%r8, 8(%rdi)
	movq	%r9, 16(%rdi)
	xorl	%eax, %eax
	movq	%rax, (%rdi)
	popq	%rbp
	retq
LBB102_8:
	addq	%r8, %r9
	addq	%rsi, %r9
	je	LBB102_20
	movq	%rcx, 8(%rdi)
LBB102_10:
	movq	%r10, 16(%rdi)
	xorl	%eax, %eax
	movq	%rax, (%rdi)
	popq	%rbp
	retq
LBB102_20:
	movb	$19, 8(%rdi)
	movq	%r11, 16(%rdi)
	movl	$1, %eax
	movq	%rax, (%rdi)
	popq	%rbp
	retq
LBB102_24:
	addq	%rax, %r9
	subq	%rax, %rcx
	cmpb	$8, %r10b
	jne	LBB102_27
	cmpq	$8, %rcx
	jb	LBB102_38
	movq	(%r9), %rcx
	jmp	LBB102_29
LBB102_27:
	cmpq	$4, %rcx
	jb	LBB102_38
	movl	(%r9), %ecx
LBB102_29:
	movq	80(%rsi), %r8
	movq	88(%rsi), %rax
	movq	%rax, %r11
	subq	%rcx, %r11
	jae	LBB102_30
LBB102_37:
	movb	$19, 8(%rdi)
	movq	%r8, 16(%rdi)
	movl	$1, %eax
	movq	%rax, (%rdi)
	popq	%rbp
	retq
LBB102_30:
	leaq	(%r8,%rcx), %rsi
	addq	%rax, %r8
	subq	%rax, %rcx
	movq	$-1, %rax
LBB102_31:
	leaq	(%rcx,%rax), %rdx
	cmpq	$-1, %rdx
	je	LBB102_34
	movzbl	1(%rsi,%rax), %edx
	incq	%rax
	testb	%dl, %dl
	jne	LBB102_31
	cmpb	$1, %dl
	movb	$1, %dl
	adcb	$0, %dl
	movzbl	%dl, %r9d
	andl	$1, %r9d
	leaq	(%r9,%rax), %r10
	cmpq	%r10, %r11
	jae	LBB102_35
LBB102_34:
	movq	$19, 8(%rdi)
	movq	%rsi, 16(%rdi)
	movl	$1, %eax
	movq	%rax, (%rdi)
	popq	%rbp
	retq
LBB102_35:
	addq	%rcx, %r9
	addq	%rax, %r9
	je	LBB102_37
	movq	%rsi, 8(%rdi)
	jmp	LBB102_10
LBB102_42:
	leaq	_str.5(%rip), %rdi
	leaq	l___unnamed_30(%rip), %rdx
	movl	$33, %esi
	callq	__ZN4core9panicking5panic17h736ee47a631475c0E
	.cfi_endproc
	.p2align	2, 0x90
	.data_region jt32
.set L102_0_set_3, LBB102_3-LJTI102_0
.set L102_0_set_11, LBB102_11-LJTI102_0
.set L102_0_set_39, LBB102_39-LJTI102_0
.set L102_0_set_21, LBB102_21-LJTI102_0
.set L102_0_set_15, LBB102_15-LJTI102_0
.set L102_0_set_2, LBB102_2-LJTI102_0
LJTI102_0:
	.long	L102_0_set_3
	.long	L102_0_set_11
	.long	L102_0_set_39
	.long	L102_0_set_21
	.long	L102_0_set_15
	.long	L102_0_set_2
	.end_data_region

	.section	__TEXT,__literal16,16byte_literals
	.p2align	4
LCPI103_0:
	.byte	0
	.byte	0
	.byte	0
	.byte	0
	.byte	0
	.byte	0
	.byte	0
	.byte	0
	.byte	1
	.byte	0
	.byte	0
	.byte	0
	.byte	0
	.byte	0
	.byte	0
	.byte	0
	.section	__TEXT,__text,regular,pure_instructions
	.p2align	4, 0x90
__ZN5gimli4read8rnglists20RngListIter$LT$R$GT$4next17h31fe297e86474044E:
	.cfi_startproc
	pushq	%rbp
	.cfi_def_cfa_offset 16
	.cfi_offset %rbp, -16
	movq	%rsp, %rbp
	.cfi_def_cfa_register %rbp
	pushq	%r15
	pushq	%r14
	pushq	%r13
	pushq	%r12
	pushq	%rbx
	subq	$56, %rsp
	.cfi_offset %rbx, -56
	.cfi_offset %r12, -48
	.cfi_offset %r13, -40
	.cfi_offset %r14, -32
	.cfi_offset %r15, -24
	movq	8(%rsi), %r13
	testq	%r13, %r13
	je	LBB103_66
	movl	16(%rsi), %r12d
	movl	%r12d, %r9d
	shrl	$16, %r9d
	movzbl	%r12b, %r10d
	leal	(,%r10,8), %eax
	negb	%al
	movq	$-1, %rcx
	shrxq	%rax, %rcx, %r11
	movl	%r10d, %r14d
	decb	%r14b
	movzbl	%r14b, %eax
	movq	%rax, -64(%rbp)
LBB103_2:
	cmpw	$5, %r9w
	jae	LBB103_7
	cmpb	$7, %r14b
	ja	LBB103_68
	movq	-64(%rbp), %rax
	leaq	LJTI103_8(%rip), %rcx
	movslq	(%rcx,%rax,4), %rax
	addq	%rcx, %rax
	jmpq	*%rax
LBB103_5:
	movq	(%rsi), %rcx
	leaq	1(%rcx), %rax
	movq	%rax, (%rsi)
	movq	%r13, %rdx
	decq	%rdx
	movq	%rdx, 8(%rsi)
	je	LBB103_73
	movzbl	(%rcx), %r15d
	leaq	2(%rcx), %rax
	addq	$-2, %r13
	movq	%rax, (%rsi)
	movq	%r13, 8(%rsi)
	movzbl	1(%rcx), %ebx
	movq	%r15, %rax
	orq	%rbx, %rax
	jne	LBB103_30
	jmp	LBB103_65
	.p2align	4, 0x90
LBB103_7:
	movq	(%rsi), %r8
	leaq	1(%r8), %rax
	leaq	-1(%r13), %rbx
	movq	%rax, (%rsi)
	movq	%rbx, 8(%rsi)
	movzbl	(%r8), %ecx
	cmpq	$7, %rcx
	ja	LBB103_90
	leaq	LJTI103_0(%rip), %rdx
	movslq	(%rdx,%rcx,4), %rcx
	addq	%rdx, %rcx
	jmpq	*%rcx
LBB103_9:
	testq	%rbx, %rbx
	je	LBB103_189
	movb	%r14b, -41(%rbp)
	movq	%r11, -96(%rbp)
	movq	%r10, -88(%rbp)
	movl	%r9d, -68(%rbp)
	movq	%r12, %r9
	movq	%rdi, %r10
	leaq	2(%r8), %rax
	leaq	-2(%r13), %r15
	movq	%rax, (%rsi)
	movq	%r15, 8(%rsi)
	movb	1(%r8), %r12b
	xorl	%ebx, %ebx
	movq	$-3, %rcx
	xorl	%edi, %edi
	xorl	%eax, %eax
	.p2align	4, 0x90
LBB103_11:
	cmpl	$63, %edi
	ja	LBB103_250
	movq	%rbx, %r14
	movl	%r12d, %edx
	andb	$127, %dl
	movzbl	%dl, %edx
	shlxq	%rdi, %rdx, %rdx
	orq	%rdx, %rax
	testb	%r12b, %r12b
	jns	LBB103_32
	cmpq	%r14, %r15
	je	LBB103_62
	leal	7(%rdi), %r11d
	leaq	(%r8,%r14), %rdx
	addq	$3, %rdx
	leaq	(%r13,%rcx), %rbx
	movq	%rdx, (%rsi)
	movq	%rbx, 8(%rsi)
	movzbl	2(%r8,%r14), %r12d
	leaq	1(%r14), %rbx
	decq	%rcx
	cmpl	$56, %edi
	movl	%r11d, %edi
	jne	LBB103_11
	movl	%r11d, %edi
	cmpb	$1, %r12b
	jbe	LBB103_11
	jmp	LBB103_63
	.p2align	4, 0x90
LBB103_16:
	cmpb	$7, %r14b
	ja	LBB103_70
	movq	-64(%rbp), %rcx
	leaq	LJTI103_3(%rip), %rdx
	movslq	(%rdx,%rcx,4), %rcx
	addq	%rdx, %rcx
	jmpq	*%rcx
LBB103_18:
	testq	%rbx, %rbx
	je	LBB103_73
	leaq	2(%r8), %rax
	addq	$-2, %r13
	movq	%rax, (%rsi)
	movq	%r13, 8(%rsi)
	movzbl	1(%r8), %ebx
	movq	%rbx, 24(%rsi)
	testq	%r13, %r13
	jne	LBB103_2
	jmp	LBB103_66
LBB103_20:
	cmpq	$3, %r13
	jbe	LBB103_69
	movq	(%rsi), %rcx
	leaq	4(%rcx), %rax
	leaq	-4(%r13), %rdx
	movq	%rax, (%rsi)
	movq	%rdx, 8(%rsi)
	cmpq	$3, %rdx
	jbe	LBB103_73
	movl	(%rcx), %eax
	movzbl	%ah, %edx
	movzbl	%al, %r15d
	shrq	$8, %rax
	andl	$16776960, %eax
	orq	%rax, %rdx
	shlq	$8, %rdx
	orq	%rdx, %r15
	leaq	8(%rcx), %rax
	addq	$-8, %r13
	movq	%rax, (%rsi)
	movq	%r13, 8(%rsi)
	movl	4(%rcx), %eax
	movl	%eax, %ecx
	andl	$-256, %ecx
	movl	%eax, %edx
	andl	$-65536, %edx
	jmp	LBB103_29
LBB103_23:
	cmpq	$1, %r13
	jbe	LBB103_69
	movq	(%rsi), %rcx
	leaq	2(%rcx), %rax
	leaq	-2(%r13), %rdx
	movq	%rax, (%rsi)
	movq	%rdx, 8(%rsi)
	cmpq	$1, %rdx
	jbe	LBB103_73
	movzwl	(%rcx), %r15d
	leaq	4(%rcx), %rax
	addq	$-4, %r13
	movq	%rax, (%rsi)
	movq	%r13, 8(%rsi)
	movzwl	2(%rcx), %eax
	movl	%eax, %ecx
	andl	$65280, %ecx
	xorl	%edx, %edx
	jmp	LBB103_29
LBB103_26:
	cmpq	$7, %r13
	jbe	LBB103_69
	movq	(%rsi), %rcx
	leaq	8(%rcx), %rax
	leaq	-8(%r13), %rdx
	movq	%rax, (%rsi)
	movq	%rdx, 8(%rsi)
	cmpq	$8, %rdx
	jb	LBB103_73
	movq	(%rcx), %r15
	leaq	16(%rcx), %rax
	addq	$-16, %r13
	movq	%rax, (%rsi)
	movq	%r13, 8(%rsi)
	movq	8(%rcx), %rax
	movq	%rax, %rcx
	andq	$-256, %rcx
	movq	%rax, %rdx
	andq	$-65536, %rdx
LBB103_29:
	andl	$65280, %ecx
	movzbl	%al, %ebx
	orq	%rcx, %rbx
	orq	%rdx, %rbx
	movq	%r15, %rax
	orq	%rbx, %rax
	je	LBB103_65
LBB103_30:
	cmpq	%r15, %r11
	jne	LBB103_150
	movq	%rbx, 24(%rsi)
	testq	%r13, %r13
	jne	LBB103_2
	jmp	LBB103_66
LBB103_32:
	movq	48(%rsi), %rbx
	movq	32(%rsi), %r8
	movq	40(%rsi), %rcx
	movb	$1, %r15b
	subq	%rbx, %rcx
	movq	%r10, %rdi
	movq	%r9, %r12
	jae	LBB103_41
	xorl	%edx, %edx
	movl	$19, %r11d
	movq	%r8, -56(%rbp)
	movq	-88(%rbp), %r10
	jmp	LBB103_55
LBB103_34:
	cmpq	$4, %rbx
	jb	LBB103_71
	leaq	5(%r8), %rax
	addq	$-5, %r13
	movq	%rax, (%rsi)
	movq	%r13, 8(%rsi)
	movl	1(%r8), %eax
	movl	%eax, %ecx
	andl	$-65536, %ecx
	jmp	LBB103_40
LBB103_36:
	cmpq	$2, %rbx
	jb	LBB103_71
	leaq	3(%r8), %rax
	addq	$-3, %r13
	movq	%rax, (%rsi)
	movq	%r13, 8(%rsi)
	movzwl	1(%r8), %eax
	xorl	%ecx, %ecx
	jmp	LBB103_40
LBB103_38:
	cmpq	$8, %rbx
	jb	LBB103_71
	leaq	9(%r8), %rax
	addq	$-9, %r13
	movq	%rax, (%rsi)
	movq	%r13, 8(%rsi)
	movq	1(%r8), %rax
	movq	%rax, %rcx
	andq	$-65536, %rcx
LBB103_40:
	movl	%eax, %edx
	andl	$65280, %edx
	orq	%rcx, %rdx
	movzbl	%al, %ebx
	orq	%rdx, %rbx
	movq	%rbx, 24(%rsi)
	testq	%r13, %r13
	jne	LBB103_2
	jmp	LBB103_66
LBB103_41:
	movq	-88(%rbp), %r10
	mulq	%r10
	jo	LBB103_251
	addq	%rbx, %r8
	cmpq	%rax, %rcx
	jae	LBB103_44
	xorl	%edx, %edx
	jmp	LBB103_54
LBB103_44:
	movl	$23, %r11d
	cmpb	$7, -41(%rbp)
	ja	LBB103_59
	addq	%rax, %r8
	subq	%rax, %rcx
	movq	-64(%rbp), %rax
	leaq	LJTI103_7(%rip), %rbx
	movq	%rbx, %r9
	movslq	(%rbx,%rax,4), %rbx
	addq	%r9, %rbx
	movl	%r12d, %eax
	movq	-80(%rbp), %rdx
	jmpq	*%rbx
LBB103_46:
	testq	%rcx, %rcx
	je	LBB103_60
	movzbl	(%r8), %r11d
	movl	$70, %eax
	jmp	LBB103_61
LBB103_48:
	cmpq	$4, %rcx
	jb	LBB103_53
	movl	(%r8), %r11d
	movl	%r11d, %eax
	shrl	$8, %eax
	movl	%r11d, %edx
	shrl	$16, %edx
	jmp	LBB103_58
LBB103_50:
	cmpq	$2, %rcx
	jb	LBB103_53
	movzwl	(%r8), %r11d
	movl	%r11d, %eax
	shrl	$8, %eax
	xorl	%edx, %edx
	jmp	LBB103_58
LBB103_52:
	cmpq	$8, %rcx
	jae	LBB103_57
LBB103_53:
	xorl	%edx, %edx
	xorl	%eax, %eax
LBB103_54:
	movl	$19, %r11d
	movq	%r8, -56(%rbp)
LBB103_55:
	movq	%rdx, %rcx
	shlq	$8, %rcx
	movzbl	%al, %eax
	orq	%rcx, %rax
	shlq	$8, %rax
	movzbl	%r11b, %ebx
	orq	%rax, %rbx
	testb	%r15b, %r15b
	jne	LBB103_76
	movq	%rdx, -80(%rbp)
	subq	%r14, %r13
	addq	$-2, %r13
	movl	-68(%rbp), %r9d
	movq	-96(%rbp), %r11
	movb	-41(%rbp), %r14b
	movq	%rbx, 24(%rsi)
	testq	%r13, %r13
	jne	LBB103_2
	jmp	LBB103_66
LBB103_57:
	movq	(%r8), %r11
	movq	%r11, %rax
	shrq	$8, %rax
	movq	%r11, %rdx
	shrq	$16, %rdx
LBB103_58:
	xorl	%r15d, %r15d
	jmp	LBB103_55
LBB103_59:
	movl	%r12d, %eax
	movq	-80(%rbp), %rdx
	jmp	LBB103_55
LBB103_60:
	movl	$19, %eax
	xorl	%r11d, %r11d
LBB103_61:
	movq	-56(%rbp), %rcx
	cmpq	$70, %rax
	setne	%r15b
	cmovneq	%rax, %r11
	cmovneq	%r8, %rcx
	movq	%rcx, -56(%rbp)
	xorl	%edx, %edx
	xorl	%eax, %eax
	jmp	LBB103_55
LBB103_62:
	movl	$19, %ecx
	jmp	LBB103_64
LBB103_63:
	movl	$6, %ecx
LBB103_64:
	leaq	(%r8,%r14), %rax
	addq	$2, %rax
	xorl	%r11d, %r11d
	movq	%r10, %rdi
	jmp	LBB103_175
LBB103_65:
	leaq	l___unnamed_31(%rip), %rax
	movq	%rax, (%rsi)
	movq	$0, 8(%rsi)
LBB103_66:
	vxorps	%xmm0, %xmm0, %xmm0
LBB103_67:
	vmovups	%xmm0, (%rdi)
	jmp	LBB103_178
LBB103_68:
	shll	$8, %r12d
	movzwl	%r12w, %eax
	movl	$23, %ecx
	orq	%rax, %rcx
	jmp	LBB103_174
LBB103_69:
	movq	(%rsi), %rax
	movl	$19, %edx
	xorl	%ecx, %ecx
	orq	%rdx, %rcx
	jmp	LBB103_174
LBB103_70:
	shll	$8, %r12d
	movzwl	%r12w, %edx
	movl	$23, %ecx
	orq	%rdx, %rcx
	jmp	LBB103_174
LBB103_71:
	movl	$19, %ecx
	xorl	%edx, %edx
	orq	%rdx, %rcx
	jmp	LBB103_174
LBB103_76:
	movq	%rbx, 8(%rdi)
	movq	-56(%rbp), %rax
	jmp	LBB103_176
LBB103_77:
	xorl	%r11d, %r11d
	testq	%rbx, %rbx
	je	LBB103_112
	leaq	2(%r8), %rax
	leaq	-2(%r13), %r9
	movq	%rax, (%rsi)
	movq	%r9, 8(%rsi)
	movb	1(%r8), %cl
	addq	$-3, %r13
	xorl	%r10d, %r10d
	xorl	%eax, %eax
LBB103_79:
	cmpl	$63, %r11d
	ja	LBB103_250
	movq	%r10, %rbx
	movl	%ecx, %edx
	andb	$127, %dl
	movzbl	%dl, %edx
	shlxq	%r11, %rdx, %rdx
	orq	%rdx, %rax
	testb	%cl, %cl
	jns	LBB103_115
	cmpq	%rbx, %r9
	je	LBB103_128
	leal	7(%r11), %edx
	leaq	(%r8,%rbx), %rcx
	addq	$3, %rcx
	movq	%rcx, (%rsi)
	movq	%r13, 8(%rsi)
	movzbl	2(%r8,%rbx), %ecx
	leaq	1(%rbx), %r10
	decq	%r13
	cmpl	$56, %r11d
	movl	%edx, %r11d
	jne	LBB103_79
	movl	%edx, %r11d
	cmpb	$1, %cl
	jbe	LBB103_79
	jmp	LBB103_193
LBB103_85:
	movl	$23, %r9d
	leal	-1(%r12), %ecx
	cmpb	$7, %cl
	ja	LBB103_173
	movzbl	%cl, %ecx
	leaq	LJTI103_2(%rip), %rdx
	movslq	(%rdx,%rcx,4), %rcx
	addq	%rdx, %rcx
	jmpq	*%rcx
LBB103_87:
	testq	%rbx, %rbx
	je	LBB103_73
	leaq	2(%r8), %rax
	movq	%rax, (%rsi)
	movq	%r13, %rcx
	addq	$-2, %rcx
	movq	%rcx, 8(%rsi)
	je	LBB103_189
	movzbl	1(%r8), %r15d
	leaq	3(%r8), %rax
	addq	$-3, %r13
	movq	%rax, (%rsi)
	movq	%r13, 8(%rsi)
	movzbl	2(%r8), %ebx
	cmpq	%rbx, %r15
	ja	LBB103_155
	jmp	LBB103_201
LBB103_90:
	movl	$47, %ecx
	xorl	%r11d, %r11d
	jmp	LBB103_175
LBB103_91:
	xorl	%r11d, %r11d
	testq	%rbx, %rbx
	je	LBB103_112
	leaq	2(%r8), %rax
	leaq	-2(%r13), %r9
	movq	%rax, (%rsi)
	movq	%r9, 8(%rsi)
	movb	1(%r8), %cl
	addq	$-3, %r13
	xorl	%r10d, %r10d
	xorl	%eax, %eax
LBB103_93:
	cmpl	$63, %r11d
	ja	LBB103_250
	movq	%r10, %r14
	movl	%ecx, %edx
	andb	$127, %dl
	movzbl	%dl, %edx
	shlxq	%r11, %rdx, %rdx
	orq	%rdx, %rax
	testb	%cl, %cl
	jns	LBB103_129
	cmpq	%r14, %r9
	je	LBB103_143
	leal	7(%r11), %edx
	leaq	(%r8,%r14), %rcx
	addq	$3, %rcx
	movq	%rcx, (%rsi)
	movq	%r13, 8(%rsi)
	movzbl	2(%r8,%r14), %ecx
	leaq	1(%r14), %r10
	decq	%r13
	cmpl	$56, %r11d
	movl	%edx, %r11d
	jne	LBB103_93
	movl	%edx, %r11d
	cmpb	$1, %cl
	jbe	LBB103_93
	jmp	LBB103_195
LBB103_99:
	xorl	%r11d, %r11d
	testq	%rbx, %rbx
	je	LBB103_112
	leaq	2(%r8), %rax
	leaq	-2(%r13), %r9
	movq	%rax, (%rsi)
	movq	%r9, 8(%rsi)
	movb	1(%r8), %cl
	addq	$-3, %r13
	xorl	%edx, %edx
	xorl	%r15d, %r15d
LBB103_101:
	cmpl	$63, %r11d
	ja	LBB103_250
	movq	%rdx, %rax
	movl	%ecx, %edx
	andb	$127, %dl
	movzbl	%dl, %edx
	shlxq	%r11, %rdx, %rdx
	orq	%rdx, %r15
	testb	%cl, %cl
	jns	LBB103_144
	cmpq	%rax, %r9
	je	LBB103_156
	leal	7(%r11), %ebx
	leaq	(%r8,%rax), %rcx
	addq	$3, %rcx
	movq	%rcx, (%rsi)
	movq	%r13, 8(%rsi)
	movzbl	2(%r8,%rax), %ecx
	leaq	1(%rax), %rdx
	decq	%r13
	cmpl	$56, %r11d
	movl	%ebx, %r11d
	jne	LBB103_101
	movl	%ebx, %r11d
	cmpb	$1, %cl
	jbe	LBB103_101
	jmp	LBB103_106
LBB103_112:
	movl	$19, %ecx
	jmp	LBB103_175
LBB103_107:
	movl	$23, %r9d
	leal	-1(%r12), %ecx
	cmpb	$7, %cl
	ja	LBB103_173
	movzbl	%cl, %ecx
	leaq	LJTI103_1(%rip), %rdx
	movslq	(%rdx,%rcx,4), %rcx
	addq	%rdx, %rcx
	jmpq	*%rcx
LBB103_109:
	testq	%rbx, %rbx
	je	LBB103_73
	leaq	2(%r8), %rax
	addq	$-2, %r13
	movq	%rax, (%rsi)
	movq	%r13, 8(%rsi)
	movzbl	1(%r8), %r15d
	jmp	LBB103_181
LBB103_73:
	movl	$19, %ecx
LBB103_174:
	movl	%ecx, %r11d
	andl	$65280, %r11d
LBB103_175:
	movzbl	%cl, %ecx
	orq	%r11, %rcx
	leaq	l___unnamed_31(%rip), %rdx
	movq	%rdx, (%rsi)
	movq	$0, 8(%rsi)
	movq	%rcx, 8(%rdi)
LBB103_176:
	movq	%rax, 16(%rdi)
LBB103_177:
	movq	$1, (%rdi)
LBB103_178:
	addq	$56, %rsp
	popq	%rbx
	popq	%r12
	popq	%r13
	popq	%r14
	popq	%r15
	popq	%rbp
	retq
LBB103_115:
	xorl	%ecx, %ecx
	xorl	%r14d, %r14d
LBB103_116:
	cmpq	%rbx, %r9
	je	LBB103_128
	leaq	(%r8,%rbx), %rdx
	addq	$3, %rdx
	movq	%rdx, (%rsi)
	movq	%r13, 8(%rsi)
	movzbl	2(%r8,%rbx), %edx
	cmpl	$63, %ecx
	jne	LBB103_119
	cmpb	$1, %dl
	ja	LBB103_193
LBB103_119:
	cmpl	$63, %ecx
	ja	LBB103_250
	movzbl	%dl, %r10d
	movl	%r10d, %edx
	andl	$127, %edx
	shlxq	%rcx, %rdx, %rdx
	orq	%rdx, %r14
	addl	$7, %ecx
	incq	%rbx
	decq	%r13
	testb	%r10b, %r10b
	js	LBB103_116
	movq	48(%rsi), %rcx
	movq	32(%rsi), %r8
	movq	40(%rsi), %r11
	movl	$19, %ebx
	subq	%rcx, %r11
	jb	LBB103_125
	movzbl	%r12b, %edx
	mulq	%rdx
	jo	LBB103_251
	addq	%rcx, %r8
	cmpq	%rax, %r11
	jae	LBB103_202
	movl	$19, %ebx
LBB103_125:
LBB103_126:
	movzbl	%r12b, %r15d
	shlq	$8, %r15
	orq	%rbx, %r15
	movq	%r8, %rdx
LBB103_127:
	movq	%r15, 8(%rdi)
	movq	%rdx, 16(%rdi)
	jmp	LBB103_177
LBB103_128:
	movl	$19, %ecx
	jmp	LBB103_194
LBB103_193:
	movl	$6, %ecx
LBB103_194:
	leaq	(%r8,%rbx), %rax
	addq	$2, %rax
	xorl	%r11d, %r11d
	jmp	LBB103_175
LBB103_129:
	xorl	%ecx, %ecx
	xorl	%ebx, %ebx
LBB103_130:
	cmpq	%r14, %r9
	je	LBB103_143
	leaq	(%r8,%r14), %rdx
	addq	$3, %rdx
	movq	%rdx, (%rsi)
	movq	%r13, 8(%rsi)
	movzbl	2(%r8,%r14), %edx
	cmpl	$63, %ecx
	jne	LBB103_133
	cmpb	$1, %dl
	ja	LBB103_195
LBB103_133:
	cmpl	$63, %ecx
	ja	LBB103_250
	movzbl	%dl, %r10d
	movl	%r10d, %edx
	andl	$127, %edx
	shlxq	%rcx, %rdx, %rdx
	orq	%rdx, %rbx
	addl	$7, %ecx
	incq	%r14
	decq	%r13
	testb	%r10b, %r10b
	js	LBB103_130
	movq	48(%rsi), %rcx
	movq	32(%rsi), %r8
	movq	40(%rsi), %r9
	movl	$19, %edx
	subq	%rcx, %r9
	jb	LBB103_139
	movzbl	%r12b, %edx
	mulq	%rdx
	jo	LBB103_251
	addq	%rcx, %r8
	cmpq	%rax, %r9
	jae	LBB103_206
	movl	$19, %edx
LBB103_139:
LBB103_140:
	movzbl	%r12b, %r15d
	shlq	$8, %r15
	orq	%rdx, %r15
LBB103_141:
	movq	%r15, 8(%rdi)
LBB103_142:
	movq	%r8, 16(%rdi)
	jmp	LBB103_177
LBB103_143:
	movl	$19, %ecx
	jmp	LBB103_196
LBB103_195:
	movl	$6, %ecx
LBB103_196:
	leaq	(%r8,%r14), %rax
	addq	$2, %rax
	xorl	%r11d, %r11d
	jmp	LBB103_175
LBB103_144:
	xorl	%ecx, %ecx
	xorl	%ebx, %ebx
LBB103_145:
	cmpq	%rax, %r9
	je	LBB103_156
	leaq	(%r8,%rax), %rdx
	addq	$3, %rdx
	movq	%rdx, (%rsi)
	movq	%r13, 8(%rsi)
	movzbl	2(%r8,%rax), %edx
	cmpl	$63, %ecx
	jne	LBB103_148
	cmpb	$1, %dl
	ja	LBB103_106
LBB103_148:
	cmpl	$63, %ecx
	ja	LBB103_250
	movzbl	%dl, %r10d
	movl	%r10d, %edx
	andl	$127, %edx
	shlxq	%rcx, %rdx, %rdx
	orq	%rdx, %rbx
	addl	$7, %ecx
	incq	%rax
	decq	%r13
	testb	%r10b, %r10b
	js	LBB103_145
LBB103_150:
	movb	$8, %cl
	movl	%r12d, %eax
	mulb	%cl
	jo	LBB103_252
	movb	$64, %cl
	subb	%al, %cl
	jb	LBB103_253
	cmpb	$63, %cl
	ja	LBB103_254
	movq	24(%rsi), %rax
	andb	$56, %cl
	movq	$-1, %rdx
	shrxq	%rcx, %rdx, %rcx
	addq	%rax, %r15
	andq	%rcx, %r15
	addq	%rax, %rbx
	andq	%rcx, %rbx
LBB103_154:
	cmpq	%rbx, %r15
	jbe	LBB103_201
LBB103_155:
	leaq	l___unnamed_31(%rip), %rax
	movq	%rax, (%rsi)
	movq	$0, 8(%rsi)
	movb	$47, 8(%rdi)
	jmp	LBB103_177
LBB103_156:
	movl	$19, %ecx
	addq	%r8, %rax
	addq	$2, %rax
	xorl	%r11d, %r11d
	jmp	LBB103_175
LBB103_106:
	movl	$6, %ecx
	addq	%r8, %rax
	addq	$2, %rax
	xorl	%r11d, %r11d
	jmp	LBB103_175
LBB103_157:
	cmpq	$4, %rbx
	jb	LBB103_172
	leaq	5(%r8), %rax
	leaq	-5(%r13), %rcx
	movq	%rax, (%rsi)
	movq	%rcx, 8(%rsi)
	cmpq	$4, %rcx
	jb	LBB103_189
	movl	1(%r8), %eax
	movzbl	%ah, %ecx
	movzbl	%al, %r15d
	shrq	$8, %rax
	andl	$16776960, %eax
	orq	%rax, %rcx
	shlq	$8, %rcx
	orq	%rcx, %r15
	leaq	9(%r8), %rax
	addq	$-9, %r13
	movq	%rax, (%rsi)
	movq	%r13, 8(%rsi)
	movl	5(%r8), %eax
LBB103_160:
	movl	%eax, %ecx
	andl	$-65536, %ecx
	jmp	LBB103_200
LBB103_161:
	cmpq	$2, %rbx
	jb	LBB103_172
	leaq	3(%r8), %rax
	leaq	-3(%r13), %rcx
	movq	%rax, (%rsi)
	movq	%rcx, 8(%rsi)
	cmpq	$2, %rcx
	jb	LBB103_189
	movzwl	1(%r8), %r15d
	leaq	5(%r8), %rax
	addq	$-5, %r13
	movq	%rax, (%rsi)
	movq	%r13, 8(%rsi)
	movzwl	3(%r8), %eax
	xorl	%ecx, %ecx
	jmp	LBB103_200
LBB103_164:
	cmpq	$7, %rbx
	jbe	LBB103_172
	leaq	9(%r8), %rax
	leaq	-9(%r13), %rcx
	movq	%rax, (%rsi)
	movq	%rcx, 8(%rsi)
	cmpq	$8, %rcx
	jb	LBB103_189
	movq	1(%r8), %r15
	leaq	17(%r8), %rax
	addq	$-17, %r13
	movq	%rax, (%rsi)
	movq	%r13, 8(%rsi)
	movq	9(%r8), %rax
LBB103_199:
	movq	%rax, %rcx
	andq	$-65536, %rcx
LBB103_200:
	movl	%eax, %edx
	andl	$65280, %edx
	orq	%rcx, %rdx
	movzbl	%al, %ebx
	orq	%rdx, %rbx
	cmpq	%rbx, %r15
	ja	LBB103_155
LBB103_201:
	movq	%r15, 16(%rdi)
	movq	%rbx, 24(%rdi)
	vmovaps	LCPI103_0(%rip), %xmm0
	jmp	LBB103_67
LBB103_167:
	cmpq	$4, %rbx
	jb	LBB103_172
	leaq	5(%r8), %rax
	addq	$-5, %r13
	movq	%rax, (%rsi)
	movq	%r13, 8(%rsi)
	movl	1(%r8), %ebx
	movl	%ebx, %edx
	andl	$-65536, %edx
	jmp	LBB103_180
LBB103_169:
	cmpq	$2, %rbx
	jb	LBB103_172
	leaq	3(%r8), %rax
	addq	$-3, %r13
	movq	%rax, (%rsi)
	movq	%r13, 8(%rsi)
	movzwl	1(%r8), %ebx
	xorl	%edx, %edx
	jmp	LBB103_180
LBB103_171:
	cmpq	$8, %rbx
	jae	LBB103_179
LBB103_172:
	movl	$19, %r9d
	xorl	%r12d, %r12d
LBB103_173:
	movzbl	%r12b, %ecx
	shlq	$8, %rcx
	orq	%r9, %rcx
	jmp	LBB103_174
LBB103_179:
	leaq	9(%r8), %rax
	addq	$-9, %r13
	movq	%rax, (%rsi)
	movq	%r13, 8(%rsi)
	movq	1(%r8), %rbx
	movq	%rbx, %rdx
	andq	$-65536, %rdx
LBB103_180:
	movl	%ebx, %ecx
	andl	$65280, %ecx
	orq	%rdx, %rcx
	movzbl	%bl, %r15d
	orq	%rcx, %r15
LBB103_181:
	decq	%r13
	xorl	%ecx, %ecx
	xorl	%ebx, %ebx
LBB103_182:
	cmpq	$-1, %r13
	je	LBB103_189
	leaq	1(%rax), %r8
	movq	%r8, (%rsi)
	movq	%r13, 8(%rsi)
	movzbl	(%rax), %edx
	cmpl	$63, %ecx
	jne	LBB103_185
	cmpb	$1, %dl
	ja	LBB103_190
LBB103_185:
	cmpl	$63, %ecx
	ja	LBB103_250
	movzbl	%dl, %edx
	movl	%edx, %eax
	andl	$127, %eax
	shlxq	%rcx, %rax, %rax
	orq	%rax, %rbx
	addl	$7, %ecx
	decq	%r13
	movq	%r8, %rax
	testb	%dl, %dl
	js	LBB103_182
	addq	%r15, %rbx
	jae	LBB103_154
	leaq	_str.0(%rip), %rdi
	leaq	l___unnamed_32(%rip), %rdx
	movl	$28, %esi
	callq	__ZN4core9panicking5panic17h736ee47a631475c0E
LBB103_189:
	movl	$19, %ecx
	xorl	%r11d, %r11d
	jmp	LBB103_175
LBB103_190:
	movl	$6, %ecx
	xorl	%r11d, %r11d
	jmp	LBB103_175
LBB103_202:
	movl	$23, %ebx
	leal	-1(%r12), %r10d
	cmpb	$7, %r10b
	ja	LBB103_231
	leaq	(%r8,%rax), %rdx
	movq	%r11, %rcx
	subq	%rax, %rcx
	movzbl	%r10b, %r9d
	leaq	LJTI103_5(%rip), %r15
	movslq	(%r15,%r9,4), %rax
	addq	%r15, %rax
	jmpq	*%rax
LBB103_204:
	testq	%rcx, %rcx
	je	LBB103_237
	movzbl	(%rdx), %r15d
	movl	$70, %eax
	cmpq	$70, %rax
	cmovneq	%rax, %r15
	jne	LBB103_127
	jmp	LBB103_224
LBB103_206:
	movl	$23, %edx
	leal	-1(%r12), %ecx
	cmpb	$7, %cl
	ja	LBB103_236
	addq	%rax, %r8
	subq	%rax, %r9
	movzbl	%cl, %eax
	leaq	LJTI103_4(%rip), %rcx
	movslq	(%rcx,%rax,4), %rax
	addq	%rcx, %rax
	jmpq	*%rax
LBB103_208:
	testq	%r9, %r9
	je	LBB103_238
	movzbl	(%r8), %r15d
	movl	$70, %eax
	cmpq	$70, %rax
	cmovneq	%rax, %r15
	jne	LBB103_141
	jmp	LBB103_234
LBB103_210:
	cmpq	$4, %rcx
	jb	LBB103_215
	movl	(%rdx), %eax
	movl	%eax, %edx
	andl	$-65536, %edx
	jmp	LBB103_223
LBB103_212:
	cmpq	$2, %rcx
	jb	LBB103_215
	movzwl	(%rdx), %eax
	xorl	%edx, %edx
	jmp	LBB103_223
LBB103_214:
	cmpq	$8, %rcx
	jae	LBB103_222
LBB103_215:
	xorl	%r12d, %r12d
	movq	%rdx, %r8
	movl	$19, %ebx
	jmp	LBB103_126
LBB103_216:
	cmpq	$4, %r9
	jb	LBB103_221
	movl	(%r8), %eax
	movl	%eax, %ecx
	andl	$-65536, %ecx
	jmp	LBB103_233
LBB103_218:
	cmpq	$2, %r9
	jb	LBB103_221
	movzwl	(%r8), %eax
	xorl	%ecx, %ecx
	jmp	LBB103_233
LBB103_220:
	cmpq	$8, %r9
	jae	LBB103_232
LBB103_221:
	xorl	%r12d, %r12d
	movl	$19, %edx
	jmp	LBB103_140
LBB103_222:
	movq	(%rdx), %rax
	movq	%rax, %rdx
	andq	$-65536, %rdx
LBB103_223:
	movl	%eax, %ecx
	andl	$65280, %ecx
	orq	%rdx, %rcx
	movzbl	%al, %r15d
	orq	%rcx, %r15
LBB103_224:
	movzbl	%r12b, %ecx
	movq	%r14, %rax
	mulq	%rcx
	jo	LBB103_251
	cmpq	%rax, %r11
	jae	LBB103_227
	movl	$19, %edx
	jmp	LBB103_247
LBB103_227:
	movl	$23, %edx
	cmpb	$7, %r10b
	ja	LBB103_246
	addq	%rax, %r8
	subq	%rax, %r11
	leaq	LJTI103_6(%rip), %rax
	movslq	(%rax,%r9,4), %rcx
	addq	%rax, %rcx
	jmpq	*%rcx
LBB103_229:
	testq	%r11, %r11
	je	LBB103_249
	movzbl	(%r8), %ebx
	movl	$70, %eax
	cmpq	$70, %rax
	cmovneq	%rax, %rbx
	jne	LBB103_248
	jmp	LBB103_154
LBB103_231:
	jmp	LBB103_126
LBB103_232:
	movq	(%r8), %rax
	movq	%rax, %rcx
	andq	$-65536, %rcx
LBB103_233:
	movl	%eax, %edx
	andl	$65280, %edx
	orq	%rcx, %rdx
	movzbl	%al, %r15d
	orq	%rdx, %r15
LBB103_234:
	addq	%r15, %rbx
	jae	LBB103_154
	leaq	_str.0(%rip), %rdi
	leaq	l___unnamed_33(%rip), %rdx
	movl	$28, %esi
	callq	__ZN4core9panicking5panic17h736ee47a631475c0E
LBB103_236:
	jmp	LBB103_140
LBB103_237:
	movl	$19, %eax
	xorl	%r15d, %r15d
	cmpq	$70, %rax
	cmovneq	%rax, %r15
	jne	LBB103_127
	jmp	LBB103_224
LBB103_238:
	movl	$19, %eax
	xorl	%r15d, %r15d
	cmpq	$70, %rax
	cmovneq	%rax, %r15
	jne	LBB103_141
	jmp	LBB103_234
LBB103_239:
	cmpq	$4, %r11
	jb	LBB103_244
	movl	(%r8), %eax
	jmp	LBB103_160
LBB103_241:
	cmpq	$2, %r11
	jb	LBB103_244
	movzwl	(%r8), %eax
	xorl	%ecx, %ecx
	jmp	LBB103_200
LBB103_243:
	cmpq	$8, %r11
	jae	LBB103_245
LBB103_244:
	xorl	%r12d, %r12d
	movl	$19, %edx
	jmp	LBB103_247
LBB103_245:
	movq	(%r8), %rax
	jmp	LBB103_199
LBB103_246:
LBB103_247:
	movzbl	%r12b, %ebx
	shlq	$8, %rbx
	orq	%rdx, %rbx
LBB103_248:
	movq	%rbx, 8(%rdi)
	jmp	LBB103_142
LBB103_249:
	movl	$19, %eax
	xorl	%ebx, %ebx
	cmpq	$70, %rax
	cmovneq	%rax, %rbx
	jne	LBB103_248
	jmp	LBB103_154
LBB103_250:
	leaq	_str.7(%rip), %rdi
	leaq	l___unnamed_25(%rip), %rdx
	movl	$35, %esi
	callq	__ZN4core9panicking5panic17h736ee47a631475c0E
LBB103_251:
	leaq	_str.5(%rip), %rdi
	leaq	l___unnamed_34(%rip), %rdx
	movl	$33, %esi
	callq	__ZN4core9panicking5panic17h736ee47a631475c0E
LBB103_252:
	leaq	_str.5(%rip), %rdi
	leaq	l___unnamed_35(%rip), %rdx
	movl	$33, %esi
	callq	__ZN4core9panicking5panic17h736ee47a631475c0E
LBB103_253:
	leaq	_str.1(%rip), %rdi
	leaq	l___unnamed_36(%rip), %rdx
	movl	$33, %esi
	callq	__ZN4core9panicking5panic17h736ee47a631475c0E
LBB103_254:
	leaq	_str.6(%rip), %rdi
	leaq	l___unnamed_37(%rip), %rdx
	movl	$36, %esi
	callq	__ZN4core9panicking5panic17h736ee47a631475c0E
	.cfi_endproc
	.p2align	2, 0x90
	.data_region jt32
.set L103_0_set_65, LBB103_65-LJTI103_0
.set L103_0_set_9, LBB103_9-LJTI103_0
.set L103_0_set_77, LBB103_77-LJTI103_0
.set L103_0_set_91, LBB103_91-LJTI103_0
.set L103_0_set_99, LBB103_99-LJTI103_0
.set L103_0_set_16, LBB103_16-LJTI103_0
.set L103_0_set_85, LBB103_85-LJTI103_0
.set L103_0_set_107, LBB103_107-LJTI103_0
LJTI103_0:
	.long	L103_0_set_65
	.long	L103_0_set_9
	.long	L103_0_set_77
	.long	L103_0_set_91
	.long	L103_0_set_99
	.long	L103_0_set_16
	.long	L103_0_set_85
	.long	L103_0_set_107
.set L103_1_set_109, LBB103_109-LJTI103_1
.set L103_1_set_169, LBB103_169-LJTI103_1
.set L103_1_set_173, LBB103_173-LJTI103_1
.set L103_1_set_167, LBB103_167-LJTI103_1
.set L103_1_set_171, LBB103_171-LJTI103_1
LJTI103_1:
	.long	L103_1_set_109
	.long	L103_1_set_169
	.long	L103_1_set_173
	.long	L103_1_set_167
	.long	L103_1_set_173
	.long	L103_1_set_173
	.long	L103_1_set_173
	.long	L103_1_set_171
.set L103_2_set_87, LBB103_87-LJTI103_2
.set L103_2_set_161, LBB103_161-LJTI103_2
.set L103_2_set_173, LBB103_173-LJTI103_2
.set L103_2_set_157, LBB103_157-LJTI103_2
.set L103_2_set_164, LBB103_164-LJTI103_2
LJTI103_2:
	.long	L103_2_set_87
	.long	L103_2_set_161
	.long	L103_2_set_173
	.long	L103_2_set_157
	.long	L103_2_set_173
	.long	L103_2_set_173
	.long	L103_2_set_173
	.long	L103_2_set_164
.set L103_3_set_18, LBB103_18-LJTI103_3
.set L103_3_set_36, LBB103_36-LJTI103_3
.set L103_3_set_70, LBB103_70-LJTI103_3
.set L103_3_set_34, LBB103_34-LJTI103_3
.set L103_3_set_38, LBB103_38-LJTI103_3
LJTI103_3:
	.long	L103_3_set_18
	.long	L103_3_set_36
	.long	L103_3_set_70
	.long	L103_3_set_34
	.long	L103_3_set_70
	.long	L103_3_set_70
	.long	L103_3_set_70
	.long	L103_3_set_38
.set L103_4_set_208, LBB103_208-LJTI103_4
.set L103_4_set_218, LBB103_218-LJTI103_4
.set L103_4_set_140, LBB103_140-LJTI103_4
.set L103_4_set_216, LBB103_216-LJTI103_4
.set L103_4_set_220, LBB103_220-LJTI103_4
LJTI103_4:
	.long	L103_4_set_208
	.long	L103_4_set_218
	.long	L103_4_set_140
	.long	L103_4_set_216
	.long	L103_4_set_140
	.long	L103_4_set_140
	.long	L103_4_set_140
	.long	L103_4_set_220
.set L103_5_set_204, LBB103_204-LJTI103_5
.set L103_5_set_212, LBB103_212-LJTI103_5
.set L103_5_set_126, LBB103_126-LJTI103_5
.set L103_5_set_210, LBB103_210-LJTI103_5
.set L103_5_set_214, LBB103_214-LJTI103_5
LJTI103_5:
	.long	L103_5_set_204
	.long	L103_5_set_212
	.long	L103_5_set_126
	.long	L103_5_set_210
	.long	L103_5_set_126
	.long	L103_5_set_126
	.long	L103_5_set_126
	.long	L103_5_set_214
.set L103_6_set_229, LBB103_229-LJTI103_6
.set L103_6_set_241, LBB103_241-LJTI103_6
.set L103_6_set_247, LBB103_247-LJTI103_6
.set L103_6_set_239, LBB103_239-LJTI103_6
.set L103_6_set_243, LBB103_243-LJTI103_6
LJTI103_6:
	.long	L103_6_set_229
	.long	L103_6_set_241
	.long	L103_6_set_247
	.long	L103_6_set_239
	.long	L103_6_set_247
	.long	L103_6_set_247
	.long	L103_6_set_247
	.long	L103_6_set_243
.set L103_7_set_46, LBB103_46-LJTI103_7
.set L103_7_set_50, LBB103_50-LJTI103_7
.set L103_7_set_55, LBB103_55-LJTI103_7
.set L103_7_set_48, LBB103_48-LJTI103_7
.set L103_7_set_52, LBB103_52-LJTI103_7
LJTI103_7:
	.long	L103_7_set_46
	.long	L103_7_set_50
	.long	L103_7_set_55
	.long	L103_7_set_48
	.long	L103_7_set_55
	.long	L103_7_set_55
	.long	L103_7_set_55
	.long	L103_7_set_52
.set L103_8_set_5, LBB103_5-LJTI103_8
.set L103_8_set_23, LBB103_23-LJTI103_8
.set L103_8_set_68, LBB103_68-LJTI103_8
.set L103_8_set_20, LBB103_20-LJTI103_8
.set L103_8_set_26, LBB103_26-LJTI103_8
LJTI103_8:
	.long	L103_8_set_5
	.long	L103_8_set_23
	.long	L103_8_set_68
	.long	L103_8_set_20
	.long	L103_8_set_68
	.long	L103_8_set_68
	.long	L103_8_set_68
	.long	L103_8_set_26
	.end_data_region

	.p2align	4, 0x90
__ZN66_$LT$core..option..Option$LT$T$GT$$u20$as$u20$core..fmt..Debug$GT$3fmt17h53957cfc28737f7fE:
	.cfi_startproc
	pushq	%rbp
	.cfi_def_cfa_offset 16
	.cfi_offset %rbp, -16
	movq	%rsp, %rbp
	.cfi_def_cfa_register %rbp
	pushq	%r14
	pushq	%rbx
	subq	$32, %rsp
	.cfi_offset %rbx, -32
	.cfi_offset %r14, -24
	cmpq	$1, (%rdi)
	jne	LBB104_2
	movq	%rdi, %rbx
	addq	$8, %rbx
	leaq	-48(%rbp), %r14
	leaq	L___unnamed_38(%rip), %rdx
	movl	$4, %ecx
	movq	%r14, %rdi
	callq	__ZN4core3fmt9Formatter11debug_tuple17h15ca25ad759edd1cE
	movq	%rbx, -24(%rbp)
	leaq	l___unnamed_39(%rip), %rdx
	leaq	-24(%rbp), %rsi
	movq	%r14, %rdi
	callq	__ZN4core3fmt8builders10DebugTuple5field17hf36121153a94f236E
	jmp	LBB104_3
LBB104_2:
	leaq	-48(%rbp), %r14
	leaq	L___unnamed_40(%rip), %rdx
	movl	$4, %ecx
	movq	%r14, %rdi
	callq	__ZN4core3fmt9Formatter11debug_tuple17h15ca25ad759edd1cE
LBB104_3:
	movq	%r14, %rdi
	callq	__ZN4core3fmt8builders10DebugTuple6finish17h68acf09c6f6593f2E
	addq	$32, %rsp
	popq	%rbx
	popq	%r14
	popq	%rbp
	retq
	.cfi_endproc

	.p2align	4, 0x90
__ZN66_$LT$core..option..Option$LT$T$GT$$u20$as$u20$core..fmt..Debug$GT$3fmt17h59e6f9484dd747ebE:
	.cfi_startproc
	pushq	%rbp
	.cfi_def_cfa_offset 16
	.cfi_offset %rbp, -16
	movq	%rsp, %rbp
	.cfi_def_cfa_register %rbp
	pushq	%r14
	pushq	%rbx
	subq	$32, %rsp
	.cfi_offset %rbx, -32
	.cfi_offset %r14, -24
	cmpl	$1, (%rdi)
	jne	LBB105_2
	movq	%rdi, %rbx
	addq	$4, %rbx
	leaq	-48(%rbp), %r14
	leaq	L___unnamed_38(%rip), %rdx
	movl	$4, %ecx
	movq	%r14, %rdi
	callq	__ZN4core3fmt9Formatter11debug_tuple17h15ca25ad759edd1cE
	movq	%rbx, -24(%rbp)
	leaq	l___unnamed_41(%rip), %rdx
	leaq	-24(%rbp), %rsi
	movq	%r14, %rdi
	callq	__ZN4core3fmt8builders10DebugTuple5field17hf36121153a94f236E
	jmp	LBB105_3
LBB105_2:
	leaq	-48(%rbp), %r14
	leaq	L___unnamed_40(%rip), %rdx
	movl	$4, %ecx
	movq	%r14, %rdi
	callq	__ZN4core3fmt9Formatter11debug_tuple17h15ca25ad759edd1cE
LBB105_3:
	movq	%r14, %rdi
	callq	__ZN4core3fmt8builders10DebugTuple6finish17h68acf09c6f6593f2E
	addq	$32, %rsp
	popq	%rbx
	popq	%r14
	popq	%rbp
	retq
	.cfi_endproc

	.p2align	4, 0x90
__ZN66_$LT$core..option..Option$LT$T$GT$$u20$as$u20$core..fmt..Debug$GT$3fmt17h7b6464ab8748bef9E:
	.cfi_startproc
	pushq	%rbp
	.cfi_def_cfa_offset 16
	.cfi_offset %rbp, -16
	movq	%rsp, %rbp
	.cfi_def_cfa_register %rbp
	pushq	%r14
	pushq	%rbx
	subq	$32, %rsp
	.cfi_offset %rbx, -32
	.cfi_offset %r14, -24
	cmpq	$0, (%rdi)
	je	LBB106_2
	movq	%rdi, %rbx
	leaq	-48(%rbp), %r14
	leaq	L___unnamed_38(%rip), %rdx
	movl	$4, %ecx
	movq	%r14, %rdi
	callq	__ZN4core3fmt9Formatter11debug_tuple17h15ca25ad759edd1cE
	movq	%rbx, -24(%rbp)
	leaq	l___unnamed_42(%rip), %rdx
	leaq	-24(%rbp), %rsi
	movq	%r14, %rdi
	callq	__ZN4core3fmt8builders10DebugTuple5field17hf36121153a94f236E
	jmp	LBB106_3
LBB106_2:
	leaq	-48(%rbp), %r14
	leaq	L___unnamed_40(%rip), %rdx
	movl	$4, %ecx
	movq	%r14, %rdi
	callq	__ZN4core3fmt9Formatter11debug_tuple17h15ca25ad759edd1cE
LBB106_3:
	movq	%r14, %rdi
	callq	__ZN4core3fmt8builders10DebugTuple6finish17h68acf09c6f6593f2E
	addq	$32, %rsp
	popq	%rbx
	popq	%r14
	popq	%rbp
	retq
	.cfi_endproc

	.p2align	4, 0x90
__ZN66_$LT$core..option..Option$LT$T$GT$$u20$as$u20$core..fmt..Debug$GT$3fmt17ha016ce32a2f1fb5cE:
	.cfi_startproc
	pushq	%rbp
	.cfi_def_cfa_offset 16
	.cfi_offset %rbp, -16
	movq	%rsp, %rbp
	.cfi_def_cfa_register %rbp
	pushq	%r14
	pushq	%rbx
	subq	$32, %rsp
	.cfi_offset %rbx, -32
	.cfi_offset %r14, -24
	cmpq	$4, 16(%rdi)
	jne	LBB107_1
	leaq	-48(%rbp), %r14
	leaq	L___unnamed_40(%rip), %rdx
	movl	$4, %ecx
	movq	%r14, %rdi
	callq	__ZN4core3fmt9Formatter11debug_tuple17h15ca25ad759edd1cE
	jmp	LBB107_3
LBB107_1:
	movq	%rdi, %rbx
	leaq	-48(%rbp), %r14
	leaq	L___unnamed_38(%rip), %rdx
	movl	$4, %ecx
	movq	%r14, %rdi
	callq	__ZN4core3fmt9Formatter11debug_tuple17h15ca25ad759edd1cE
	movq	%rbx, -24(%rbp)
	leaq	l___unnamed_43(%rip), %rdx
	leaq	-24(%rbp), %rsi
	movq	%r14, %rdi
	callq	__ZN4core3fmt8builders10DebugTuple5field17hf36121153a94f236E
LBB107_3:
	movq	%r14, %rdi
	callq	__ZN4core3fmt8builders10DebugTuple6finish17h68acf09c6f6593f2E
	addq	$32, %rsp
	popq	%rbx
	popq	%r14
	popq	%rbp
	retq
	.cfi_endproc

	.p2align	4, 0x90
__ZN82_$LT$std..sys_common..poison..PoisonError$LT$T$GT$$u20$as$u20$core..fmt..Debug$GT$3fmt17ha2204d27b3cae249E:
	.cfi_startproc
	pushq	%rbp
	.cfi_def_cfa_offset 16
	.cfi_offset %rbp, -16
	movq	%rsp, %rbp
	.cfi_def_cfa_register %rbp
	movq	%rsi, %rdx
	leaq	l___unnamed_44(%rip), %rdi
	movl	$25, %esi
	popq	%rbp
	jmp	__ZN40_$LT$str$u20$as$u20$core..fmt..Debug$GT$3fmt17h2760aab2290546fcE
	.cfi_endproc

	.p2align	4, 0x90
__ZN90_$LT$gimli..read..unit..AttributeValue$LT$R$C$Offset$GT$$u20$as$u20$core..clone..Clone$GT$5clone17h7e63c5898f5da647E:
	.cfi_startproc
	pushq	%rbp
	.cfi_def_cfa_offset 16
	.cfi_offset %rbp, -16
	movq	%rsp, %rbp
	.cfi_def_cfa_register %rbp
	movq	(%rsi), %rax
	leaq	LJTI109_0(%rip), %rcx
	movslq	(%rcx,%rax,4), %rax
	addq	%rcx, %rax
	jmpq	*%rax
LBB109_2:
	movq	8(%rsi), %rax
	movq	%rax, 8(%rdi)
	xorl	%eax, %eax
	movq	%rax, (%rdi)
	popq	%rbp
	retq
LBB109_3:
	vmovups	8(%rsi), %xmm0
	vmovups	%xmm0, 8(%rdi)
	movl	$1, %eax
	movq	%rax, (%rdi)
	popq	%rbp
	retq
LBB109_4:
	movb	8(%rsi), %al
	movb	%al, 8(%rdi)
	movl	$2, %eax
	movq	%rax, (%rdi)
	popq	%rbp
	retq
LBB109_5:
	movzwl	8(%rsi), %eax
	movw	%ax, 8(%rdi)
	movl	$3, %eax
	movq	%rax, (%rdi)
	popq	%rbp
	retq
LBB109_6:
	movl	8(%rsi), %eax
	movl	%eax, 8(%rdi)
	movl	$4, %eax
	movq	%rax, (%rdi)
	popq	%rbp
	retq
LBB109_7:
	movq	8(%rsi), %rax
	movq	%rax, 8(%rdi)
	movl	$5, %eax
	movq	%rax, (%rdi)
	popq	%rbp
	retq
LBB109_8:
	movq	8(%rsi), %rax
	movq	%rax, 8(%rdi)
	movl	$6, %eax
	movq	%rax, (%rdi)
	popq	%rbp
	retq
LBB109_9:
	movq	8(%rsi), %rax
	movq	%rax, 8(%rdi)
	movl	$7, %eax
	movq	%rax, (%rdi)
	popq	%rbp
	retq
LBB109_10:
	vmovups	8(%rsi), %xmm0
	vmovups	%xmm0, 8(%rdi)
	movl	$8, %eax
	movq	%rax, (%rdi)
	popq	%rbp
	retq
LBB109_11:
	cmpb	$0, 8(%rsi)
	setne	8(%rdi)
	movl	$9, %eax
	movq	%rax, (%rdi)
	popq	%rbp
	retq
LBB109_12:
	movq	8(%rsi), %rax
	movq	%rax, 8(%rdi)
	movl	$10, %eax
	movq	%rax, (%rdi)
	popq	%rbp
	retq
LBB109_13:
	movq	8(%rsi), %rax
	movq	%rax, 8(%rdi)
	movl	$11, %eax
	movq	%rax, (%rdi)
	popq	%rbp
	retq
LBB109_14:
	movq	8(%rsi), %rax
	movq	%rax, 8(%rdi)
	movl	$12, %eax
	movq	%rax, (%rdi)
	popq	%rbp
	retq
LBB109_15:
	movq	8(%rsi), %rax
	movq	%rax, 8(%rdi)
	movl	$13, %eax
	movq	%rax, (%rdi)
	popq	%rbp
	retq
LBB109_16:
	movq	8(%rsi), %rax
	movq	%rax, 8(%rdi)
	movl	$14, %eax
	movq	%rax, (%rdi)
	popq	%rbp
	retq
LBB109_17:
	movq	8(%rsi), %rax
	movq	%rax, 8(%rdi)
	movl	$15, %eax
	movq	%rax, (%rdi)
	popq	%rbp
	retq
LBB109_18:
	movq	8(%rsi), %rax
	movq	%rax, 8(%rdi)
	movl	$16, %eax
	movq	%rax, (%rdi)
	popq	%rbp
	retq
LBB109_19:
	movq	8(%rsi), %rax
	movq	%rax, 8(%rdi)
	movl	$17, %eax
	movq	%rax, (%rdi)
	popq	%rbp
	retq
LBB109_20:
	movq	8(%rsi), %rax
	movq	%rax, 8(%rdi)
	movl	$18, %eax
	movq	%rax, (%rdi)
	popq	%rbp
	retq
LBB109_21:
	movq	8(%rsi), %rax
	movq	%rax, 8(%rdi)
	movl	$19, %eax
	movq	%rax, (%rdi)
	popq	%rbp
	retq
LBB109_22:
	movq	8(%rsi), %rax
	movq	%rax, 8(%rdi)
	movl	$20, %eax
	movq	%rax, (%rdi)
	popq	%rbp
	retq
LBB109_23:
	movq	8(%rsi), %rax
	movq	%rax, 8(%rdi)
	movl	$21, %eax
	movq	%rax, (%rdi)
	popq	%rbp
	retq
LBB109_24:
	movq	8(%rsi), %rax
	movq	%rax, 8(%rdi)
	movl	$22, %eax
	movq	%rax, (%rdi)
	popq	%rbp
	retq
LBB109_25:
	movq	8(%rsi), %rax
	movq	%rax, 8(%rdi)
	movl	$23, %eax
	movq	%rax, (%rdi)
	popq	%rbp
	retq
LBB109_26:
	movq	8(%rsi), %rax
	movq	%rax, 8(%rdi)
	movl	$24, %eax
	movq	%rax, (%rdi)
	popq	%rbp
	retq
LBB109_27:
	movq	8(%rsi), %rax
	movq	%rax, 8(%rdi)
	movl	$25, %eax
	movq	%rax, (%rdi)
	popq	%rbp
	retq
LBB109_28:
	movq	8(%rsi), %rax
	movq	%rax, 8(%rdi)
	movl	$26, %eax
	movq	%rax, (%rdi)
	popq	%rbp
	retq
LBB109_29:
	movq	8(%rsi), %rax
	movq	%rax, 8(%rdi)
	movl	$27, %eax
	movq	%rax, (%rdi)
	popq	%rbp
	retq
LBB109_30:
	movq	8(%rsi), %rax
	movq	%rax, 8(%rdi)
	movl	$28, %eax
	movq	%rax, (%rdi)
	popq	%rbp
	retq
LBB109_31:
	movq	8(%rsi), %rax
	movq	%rax, 8(%rdi)
	movl	$29, %eax
	movq	%rax, (%rdi)
	popq	%rbp
	retq
LBB109_32:
	movq	8(%rsi), %rax
	movq	%rax, 8(%rdi)
	movl	$30, %eax
	movq	%rax, (%rdi)
	popq	%rbp
	retq
LBB109_33:
	vmovups	8(%rsi), %xmm0
	vmovups	%xmm0, 8(%rdi)
	movl	$31, %eax
	movq	%rax, (%rdi)
	popq	%rbp
	retq
LBB109_34:
	movb	8(%rsi), %al
	movb	%al, 8(%rdi)
	movl	$32, %eax
	movq	%rax, (%rdi)
	popq	%rbp
	retq
LBB109_35:
	movb	8(%rsi), %al
	movb	%al, 8(%rdi)
	movl	$33, %eax
	movq	%rax, (%rdi)
	popq	%rbp
	retq
LBB109_36:
	movb	8(%rsi), %al
	movb	%al, 8(%rdi)
	movl	$34, %eax
	movq	%rax, (%rdi)
	popq	%rbp
	retq
LBB109_37:
	movb	8(%rsi), %al
	movb	%al, 8(%rdi)
	movl	$35, %eax
	movq	%rax, (%rdi)
	popq	%rbp
	retq
LBB109_38:
	movb	8(%rsi), %al
	movb	%al, 8(%rdi)
	movl	$36, %eax
	movq	%rax, (%rdi)
	popq	%rbp
	retq
LBB109_39:
	movb	8(%rsi), %al
	movb	%al, 8(%rdi)
	movl	$37, %eax
	movq	%rax, (%rdi)
	popq	%rbp
	retq
LBB109_40:
	movzwl	8(%rsi), %eax
	movw	%ax, 8(%rdi)
	movl	$38, %eax
	movq	%rax, (%rdi)
	popq	%rbp
	retq
LBB109_41:
	movq	8(%rsi), %rax
	movq	%rax, 8(%rdi)
	movl	$39, %eax
	movq	%rax, (%rdi)
	popq	%rbp
	retq
LBB109_42:
	movb	8(%rsi), %al
	movb	%al, 8(%rdi)
	movl	$40, %eax
	movq	%rax, (%rdi)
	popq	%rbp
	retq
LBB109_43:
	movb	8(%rsi), %al
	movb	%al, 8(%rdi)
	movl	$41, %eax
	movq	%rax, (%rdi)
	popq	%rbp
	retq
LBB109_44:
	movb	8(%rsi), %al
	movb	%al, 8(%rdi)
	movl	$42, %eax
	movq	%rax, (%rdi)
	popq	%rbp
	retq
LBB109_45:
	movb	8(%rsi), %al
	movb	%al, 8(%rdi)
	movl	$43, %eax
	movq	%rax, (%rdi)
	popq	%rbp
	retq
LBB109_1:
	movq	8(%rsi), %rax
	movq	%rax, 8(%rdi)
	movl	$44, %eax
	movq	%rax, (%rdi)
	popq	%rbp
	retq
	.cfi_endproc
	.p2align	2, 0x90
	.data_region jt32
.set L109_0_set_2, LBB109_2-LJTI109_0
.set L109_0_set_3, LBB109_3-LJTI109_0
.set L109_0_set_4, LBB109_4-LJTI109_0
.set L109_0_set_5, LBB109_5-LJTI109_0
.set L109_0_set_6, LBB109_6-LJTI109_0
.set L109_0_set_7, LBB109_7-LJTI109_0
.set L109_0_set_8, LBB109_8-LJTI109_0
.set L109_0_set_9, LBB109_9-LJTI109_0
.set L109_0_set_10, LBB109_10-LJTI109_0
.set L109_0_set_11, LBB109_11-LJTI109_0
.set L109_0_set_12, LBB109_12-LJTI109_0
.set L109_0_set_13, LBB109_13-LJTI109_0
.set L109_0_set_14, LBB109_14-LJTI109_0
.set L109_0_set_15, LBB109_15-LJTI109_0
.set L109_0_set_16, LBB109_16-LJTI109_0
.set L109_0_set_17, LBB109_17-LJTI109_0
.set L109_0_set_18, LBB109_18-LJTI109_0
.set L109_0_set_19, LBB109_19-LJTI109_0
.set L109_0_set_20, LBB109_20-LJTI109_0
.set L109_0_set_21, LBB109_21-LJTI109_0
.set L109_0_set_22, LBB109_22-LJTI109_0
.set L109_0_set_23, LBB109_23-LJTI109_0
.set L109_0_set_24, LBB109_24-LJTI109_0
.set L109_0_set_25, LBB109_25-LJTI109_0
.set L109_0_set_26, LBB109_26-LJTI109_0
.set L109_0_set_27, LBB109_27-LJTI109_0
.set L109_0_set_28, LBB109_28-LJTI109_0
.set L109_0_set_29, LBB109_29-LJTI109_0
.set L109_0_set_30, LBB109_30-LJTI109_0
.set L109_0_set_31, LBB109_31-LJTI109_0
.set L109_0_set_32, LBB109_32-LJTI109_0
.set L109_0_set_33, LBB109_33-LJTI109_0
.set L109_0_set_34, LBB109_34-LJTI109_0
.set L109_0_set_35, LBB109_35-LJTI109_0
.set L109_0_set_36, LBB109_36-LJTI109_0
.set L109_0_set_37, LBB109_37-LJTI109_0
.set L109_0_set_38, LBB109_38-LJTI109_0
.set L109_0_set_39, LBB109_39-LJTI109_0
.set L109_0_set_40, LBB109_40-LJTI109_0
.set L109_0_set_41, LBB109_41-LJTI109_0
.set L109_0_set_42, LBB109_42-LJTI109_0
.set L109_0_set_43, LBB109_43-LJTI109_0
.set L109_0_set_44, LBB109_44-LJTI109_0
.set L109_0_set_45, LBB109_45-LJTI109_0
.set L109_0_set_1, LBB109_1-LJTI109_0
LJTI109_0:
	.long	L109_0_set_2
	.long	L109_0_set_3
	.long	L109_0_set_4
	.long	L109_0_set_5
	.long	L109_0_set_6
	.long	L109_0_set_7
	.long	L109_0_set_8
	.long	L109_0_set_9
	.long	L109_0_set_10
	.long	L109_0_set_11
	.long	L109_0_set_12
	.long	L109_0_set_13
	.long	L109_0_set_14
	.long	L109_0_set_15
	.long	L109_0_set_16
	.long	L109_0_set_17
	.long	L109_0_set_18
	.long	L109_0_set_19
	.long	L109_0_set_20
	.long	L109_0_set_21
	.long	L109_0_set_22
	.long	L109_0_set_23
	.long	L109_0_set_24
	.long	L109_0_set_25
	.long	L109_0_set_26
	.long	L109_0_set_27
	.long	L109_0_set_28
	.long	L109_0_set_29
	.long	L109_0_set_30
	.long	L109_0_set_31
	.long	L109_0_set_32
	.long	L109_0_set_33
	.long	L109_0_set_34
	.long	L109_0_set_35
	.long	L109_0_set_36
	.long	L109_0_set_37
	.long	L109_0_set_38
	.long	L109_0_set_39
	.long	L109_0_set_40
	.long	L109_0_set_41
	.long	L109_0_set_42
	.long	L109_0_set_43
	.long	L109_0_set_44
	.long	L109_0_set_45
	.long	L109_0_set_1
	.end_data_region

	.p2align	4, 0x90
__ZN91_$LT$std..panicking..begin_panic..PanicPayload$LT$A$GT$$u20$as$u20$core..panic..BoxMeUp$GT$3get17he18f0bd8bac145adE:
	.cfi_startproc
	pushq	%rbp
	.cfi_def_cfa_offset 16
	.cfi_offset %rbp, -16
	movq	%rsp, %rbp
	.cfi_def_cfa_register %rbp
	cmpq	$0, (%rdi)
	je	LBB110_2
	movq	%rdi, %rax
	leaq	l___unnamed_45(%rip), %rdx
	popq	%rbp
	retq
LBB110_2:
	callq	__ZN3std7process5abort17h4dccaf05298ce780E
	.cfi_endproc

	.p2align	4, 0x90
__ZN91_$LT$std..panicking..begin_panic..PanicPayload$LT$A$GT$$u20$as$u20$core..panic..BoxMeUp$GT$8take_box17h27e3cbe6974d1663E:
	.cfi_startproc
	pushq	%rbp
	.cfi_def_cfa_offset 16
	.cfi_offset %rbp, -16
	movq	%rsp, %rbp
	.cfi_def_cfa_register %rbp
	pushq	%r14
	pushq	%rbx
	.cfi_offset %rbx, -32
	.cfi_offset %r14, -24
	movq	(%rdi), %rbx
	movq	8(%rdi), %r14
	movq	$0, (%rdi)
	testq	%rbx, %rbx
	je	LBB111_3
	movl	$16, %edi
	movl	$8, %esi
	callq	___rust_alloc
	testq	%rax, %rax
	je	LBB111_4
	movq	%rbx, (%rax)
	movq	%r14, 8(%rax)
	leaq	l___unnamed_45(%rip), %rdx
	popq	%rbx
	popq	%r14
	popq	%rbp
	retq
LBB111_3:
	callq	__ZN3std7process5abort17h4dccaf05298ce780E
LBB111_4:
	movl	$16, %edi
	movl	$8, %esi
	callq	__ZN5alloc5alloc18handle_alloc_error17hbc0ab0ed90816c07E
	.cfi_endproc

	.section	__TEXT,__literal16,16byte_literals
	.p2align	4
LCPI112_0:
	.quad	1
	.quad	1
LCPI112_1:
	.space	16
	.section	__TEXT,__text,regular,pure_instructions
	.p2align	4, 0x90
__ZN9addr2line16ResUnit$LT$R$GT$11parse_lines17h7a8c185768dbe842E:
Lfunc_begin16:
	.cfi_startproc
	.cfi_personality 155, _rust_eh_personality
	.cfi_lsda 16, Lexception16
	pushq	%rbp
	.cfi_def_cfa_offset 16
	.cfi_offset %rbp, -16
	movq	%rsp, %rbp
	.cfi_def_cfa_register %rbp
	pushq	%r15
	pushq	%r14
	pushq	%r13
	pushq	%r12
	pushq	%rbx
	subq	$1016, %rsp
	.cfi_offset %rbx, -56
	.cfi_offset %r12, -48
	.cfi_offset %r13, -40
	.cfi_offset %r14, -32
	.cfi_offset %r15, -24
	movq	%rsi, -920(%rbp)
	movq	%rdx, -928(%rbp)
	cmpq	$46, 352(%rsi)
	jne	LBB112_2
	vpxor	%xmm0, %xmm0, %xmm0
	vmovdqu	%xmm0, (%rdi)
	jmp	LBB112_288
LBB112_2:
	leaq	184(%rsi), %rax
	movq	%rax, -936(%rbp)
	movq	432(%rsi), %rax
	cmpq	$2, %rax
	jne	LBB112_284
	movq	$8, -384(%rbp)
	vpxor	%xmm0, %xmm0, %xmm0
	vmovdqu	%xmm0, -376(%rbp)
	movq	$8, -360(%rbp)
	vmovdqu	%xmm0, -352(%rbp)
	movq	240(%rsi), %r15
	movl	$4, %ecx
	xorl	%ebx, %ebx
	movq	%r15, %rax
	mulq	%rcx
	movq	%rax, %r12
	setno	%al
	jo	LBB112_518
	movq	%rdi, -824(%rbp)
	movl	416(%rsi), %ecx
	movl	%ecx, -56(%rbp)
	vmovdqu	184(%rsi), %xmm0
	vmovdqa	%xmm0, -192(%rbp)
	movq	200(%rsi), %rcx
	movq	%rcx, -232(%rbp)
	movl	420(%rsi), %ecx
	movq	%rcx, -816(%rbp)
	movl	424(%rsi), %r13d
	movb	425(%rsi), %cl
	movb	%cl, -48(%rbp)
	movq	208(%rsi), %rcx
	movq	%rcx, -336(%rbp)
	movq	216(%rsi), %rcx
	movq	%rcx, -328(%rbp)
	movq	%rsi, -296(%rbp)
	movq	224(%rsi), %r14
	movb	%al, %bl
	addq	%rbx, %rbx
	testq	%r12, %r12
	je	LBB112_6
	movq	%r12, %rdi
	movq	%rbx, %rsi
	callq	___rust_alloc
	testq	%rax, %rax
	jne	LBB112_7
	jmp	LBB112_230
LBB112_6:
	movq	%rbx, %rax
	testq	%rax, %rax
	je	LBB112_230
LBB112_7:
	shrq	$2, %r12
	movq	%rax, -128(%rbp)
	movq	%r12, -120(%rbp)
	movq	$0, -112(%rbp)
Ltmp67:
	leaq	-128(%rbp), %rdi
	movq	%r15, %rsi
	callq	__ZN5alloc3vec12Vec$LT$T$GT$7reserve17hfd56bd370f03273dE
Ltmp68:
	leaq	(,%r15,4), %rdx
	movq	-112(%rbp), %rbx
	leaq	(,%rbx,4), %rdi
	addq	-128(%rbp), %rdi
	movq	%r14, %rsi
	callq	_memcpy
	addq	%r15, %rbx
	movq	%rbx, -304(%rbp)
	vmovdqu	-128(%rbp), %xmm0
	vmovdqa	%xmm0, -320(%rbp)
	movq	-296(%rbp), %rsi
	movq	264(%rsi), %r12
	movl	$24, %ecx
	xorl	%ebx, %ebx
	movq	%r12, %rax
	mulq	%rcx
	movq	%rax, %r14
	setno	%al
	jo	LBB112_519
	movq	248(%rsi), %r15
	movb	%al, %bl
	shlq	$3, %rbx
	testq	%r14, %r14
	je	LBB112_15
	movq	%r14, %rdi
	movq	%rbx, %rsi
	callq	___rust_alloc
	movq	%rax, %rcx
	testq	%rcx, %rcx
	je	LBB112_16
LBB112_11:
	movabsq	$-6148914691236517205, %rdx
	movq	%r14, %rax
	mulq	%rdx
	shrq	$4, %rdx
	movq	%rcx, -128(%rbp)
	movq	%rdx, -120(%rbp)
	movq	$0, -112(%rbp)
Ltmp70:
	leaq	-128(%rbp), %rdi
	movq	%r12, %rsi
	callq	__ZN5alloc3vec12Vec$LT$T$GT$7reserve17h0509b3017bafc412E
Ltmp71:
	movq	-112(%rbp), %rbx
	leaq	(%rbx,%rbx,2), %rdi
	shlq	$3, %rdi
	addq	-128(%rbp), %rdi
	movq	%r15, %rsi
	movq	%r14, %rdx
	callq	_memcpy
	addq	%rbx, %r12
	movq	%r12, -208(%rbp)
	vmovdqu	-128(%rbp), %xmm0
	vmovdqa	%xmm0, -224(%rbp)
	movq	-296(%rbp), %rsi
	movq	288(%rsi), %r15
	movl	$4, %ecx
	xorl	%ebx, %ebx
	movq	%r15, %rax
	mulq	%rcx
	movq	%rax, %r12
	setno	%al
	jo	LBB112_520
	movq	272(%rsi), %r14
	movb	%al, %bl
	addq	%rbx, %rbx
	testq	%r12, %r12
	je	LBB112_17
	movq	%r12, %rdi
	movq	%rbx, %rsi
	callq	___rust_alloc
	testq	%rax, %rax
	jne	LBB112_18
	jmp	LBB112_230
LBB112_15:
	movq	%rbx, %rcx
	testq	%rcx, %rcx
	jne	LBB112_11
LBB112_16:
	movq	%r14, %rdi
	movq	%rbx, %rsi
	callq	__ZN5alloc7raw_vec19RawVec$LT$T$C$A$GT$11allocate_in28_$u7b$$u7b$closure$u7d$$u7d$17h0650453af7cb4cb2E
LBB112_17:
	movq	%rbx, %rax
	testq	%rax, %rax
	je	LBB112_230
LBB112_18:
	shrq	$2, %r12
	movq	%rax, -128(%rbp)
	movq	%r12, -120(%rbp)
	movq	$0, -112(%rbp)
Ltmp73:
	leaq	-128(%rbp), %rdi
	movq	%r15, %rsi
	callq	__ZN5alloc3vec12Vec$LT$T$GT$7reserve17hfd56bd370f03273dE
Ltmp74:
	leaq	(,%r15,4), %rdx
	movq	-112(%rbp), %rbx
	leaq	(,%rbx,4), %rdi
	addq	-128(%rbp), %rdi
	movq	%r14, %rsi
	callq	_memcpy
	addq	%r15, %rbx
	movq	%rbx, -272(%rbp)
	vmovdqu	-128(%rbp), %xmm0
	vmovdqa	%xmm0, -288(%rbp)
	movq	-296(%rbp), %rsi
	movq	312(%rsi), %r15
	movl	$64, %ecx
	xorl	%ebx, %ebx
	movq	%r15, %rax
	mulq	%rcx
	movq	%rax, %r12
	setno	%al
	jo	LBB112_521
	movq	296(%rsi), %r14
	movb	%al, %bl
	shlq	$3, %rbx
	testq	%r12, %r12
	je	LBB112_229
	movq	%r12, %rdi
	movq	%rbx, %rsi
	callq	___rust_alloc
	testq	%rax, %rax
	je	LBB112_230
LBB112_22:
	shrq	$6, %r12
	movq	%rax, -128(%rbp)
	movq	%r12, -120(%rbp)
	movq	$0, -112(%rbp)
Ltmp76:
	leaq	-128(%rbp), %rdi
	movq	%r15, %rsi
	callq	__ZN5alloc3vec12Vec$LT$T$GT$7reserve17hc2bcb74ead5c6bf5E
Ltmp77:
	shlq	$32, %r13
	addq	-816(%rbp), %r13
	movq	%r15, %rdx
	shlq	$6, %rdx
	movq	-112(%rbp), %rbx
	movq	%rbx, %rdi
	shlq	$6, %rdi
	addq	-128(%rbp), %rdi
	movq	%r14, %rsi
	callq	_memcpy
	addq	%r15, %rbx
	movq	%rbx, -160(%rbp)
	vmovups	-128(%rbp), %xmm0
	vmovaps	%xmm0, -176(%rbp)
	movq	-296(%rbp), %rdx
	movq	320(%rdx), %rbx
	vmovups	328(%rdx), %xmm2
	movq	344(%rdx), %r14
	movl	$45, %eax
	cmpq	$45, 352(%rdx)
	je	LBB112_25
	movq	-296(%rbp), %rax
	leaq	352(%rax), %rsi
	leaq	-128(%rbp), %rdi
	vmovaps	%xmm2, -816(%rbp)
	callq	__ZN90_$LT$gimli..read..unit..AttributeValue$LT$R$C$Offset$GT$$u20$as$u20$core..clone..Clone$GT$5clone17h7e63c5898f5da647E
	vmovaps	-816(%rbp), %xmm2
	movq	-296(%rbp), %rdx
	vmovups	376(%rdx), %xmm0
	movq	392(%rdx), %rax
	vmovups	%xmm0, -104(%rbp)
	movq	%rax, -88(%rbp)
	vmovups	400(%rdx), %xmm0
	vmovups	%xmm0, -80(%rbp)
	movq	-128(%rbp), %rax
	vmovups	-120(%rbp), %xmm0
	vmovups	%xmm0, -448(%rbp)
	vmovups	-104(%rbp), %xmm0
	vmovups	%xmm0, -432(%rbp)
	movq	-96(%rbp), %rcx
	movq	%rcx, -424(%rbp)
	movq	-88(%rbp), %rcx
	movq	%rcx, -416(%rbp)
	vmovups	-80(%rbp), %xmm0
	vmovups	%xmm0, -408(%rbp)
LBB112_25:
	leaq	432(%rdx), %rcx
	movq	%rcx, -864(%rbp)
	movq	-304(%rbp), %rcx
	movq	%rcx, -1040(%rbp)
	vmovaps	-320(%rbp), %xmm0
	vmovaps	%xmm0, -1056(%rbp)
	vmovaps	-224(%rbp), %xmm0
	vmovaps	%xmm0, -1024(%rbp)
	movq	-208(%rbp), %rcx
	movq	%rcx, -1008(%rbp)
	vmovaps	-288(%rbp), %xmm0
	vmovaps	%xmm0, -992(%rbp)
	movq	-272(%rbp), %rcx
	movq	%rcx, -976(%rbp)
	vmovaps	-176(%rbp), %xmm0
	vmovaps	%xmm0, -960(%rbp)
	movq	-160(%rbp), %rcx
	movq	%rcx, -944(%rbp)
	vmovups	-448(%rbp), %ymm0
	vmovups	-424(%rbp), %ymm1
	vmovups	%ymm1, -104(%rbp)
	vmovups	%ymm0, -128(%rbp)
	movq	%r13, %rcx
	shrq	$16, %rcx
	movl	-448(%rbp), %edx
	movl	%edx, -176(%rbp)
	movzwl	-444(%rbp), %edx
	movw	%dx, -172(%rbp)
	movq	%r13, %rdx
	shrq	$24, %rdx
	vmovaps	-192(%rbp), %xmm0
	vmovaps	%xmm0, -800(%rbp)
	movq	-232(%rbp), %rsi
	movq	%rsi, -784(%rbp)
	movq	-336(%rbp), %rsi
	movq	%rsi, -776(%rbp)
	movq	-328(%rbp), %rsi
	movq	%rsi, -768(%rbp)
	vmovaps	-1056(%rbp), %xmm0
	vmovups	%xmm0, -760(%rbp)
	movq	-1040(%rbp), %rsi
	movq	%rsi, -744(%rbp)
	movq	-1008(%rbp), %rsi
	movq	%rsi, -720(%rbp)
	vmovaps	-1024(%rbp), %xmm0
	vmovaps	%xmm0, -736(%rbp)
	movq	-976(%rbp), %rsi
	movq	%rsi, -696(%rbp)
	vmovaps	-992(%rbp), %xmm0
	vmovups	%xmm0, -712(%rbp)
	movq	-944(%rbp), %rsi
	vmovaps	-960(%rbp), %xmm0
	vmovaps	%xmm0, -688(%rbp)
	movq	%rsi, -672(%rbp)
	movq	%rbx, -664(%rbp)
	vmovaps	%xmm2, -656(%rbp)
