	.section	__TEXT,__text,regular,pure_instructions
	.macosx_version_min 10, 7
	.intel_syntax noprefix
	.p2align	4, 0x90
__ZN42_$LT$$RF$T$u20$as$u20$core..fmt..Debug$GT$3fmt17hbc62bc784cd25791E:
	.cfi_startproc
	push	rbp
	.cfi_def_cfa_offset 16
	.cfi_offset rbp, -16
	mov	rbp, rsp
	.cfi_def_cfa_register rbp
	push	r15
	push	r14
	push	r13
	push	r12
	push	rbx
	sub	rsp, 72
	.cfi_offset rbx, -56
	.cfi_offset r12, -48
	.cfi_offset r13, -40
	.cfi_offset r14, -32
	.cfi_offset r15, -24
	mov	r15, rsi
	mov	rax, qword ptr [rdi]
	mov	rbx, qword ptr [rax + 24]
	mov	r12, qword ptr [rax]
	mov	r13, qword ptr [rax + 16]
	xor	ecx, ecx
	.p2align	4, 0x90
LBB0_1:
	cmp	rbx, rcx
	je	LBB0_2
	mov	rax, rcx
	shr	rax, 5
	cmp	r13, rax
	jbe	LBB0_7
	mov	eax, dword ptr [r12 + 4*rax]
	lea	r14, [rcx + 1]
	xor	edx, edx
	bt	eax, ecx
	setb	dl
	mov	dword ptr [rbp - 44], edx
	lea	rax, [rbp - 44]
	mov	qword ptr [rbp - 64], rax
	mov	rax, qword ptr [rip + __ZN4core3fmt3num3imp52_$LT$impl$u20$core..fmt..Display$u20$for$u20$i32$GT$3fmt17he2ccc2060d52a2ceE@GOTPCREL]
	mov	qword ptr [rbp - 56], rax
	lea	rax, [rip + l___unnamed_1]
	mov	qword ptr [rbp - 112], rax
	mov	qword ptr [rbp - 104], 1
	mov	qword ptr [rbp - 96], 0
	lea	rax, [rbp - 64]
	mov	qword ptr [rbp - 80], rax
	mov	qword ptr [rbp - 72], 1
	mov	rdi, r15
	lea	rsi, [rbp - 112]
	call	__ZN4core3fmt9Formatter9write_fmt17h3dc2bf45afed3069E
	mov	rcx, r14
	test	al, al
	je	LBB0_1
	mov	al, 1
	jmp	LBB0_6
LBB0_2:
	xor	eax, eax
LBB0_6:
	add	rsp, 72
	pop	rbx
	pop	r12
	pop	r13
	pop	r14
	pop	r15
	pop	rbp
	ret
LBB0_7:
	lea	rdi, [rip + l___unnamed_2]
	lea	rdx, [rip + l___unnamed_3]
	mov	esi, 43
	call	__ZN4core9panicking5panic17h736ee47a631475c0E
	.cfi_endproc

	.p2align	4, 0x90
__ZN42_$LT$$RF$T$u20$as$u20$core..fmt..Debug$GT$3fmt17he938f0c572f63b2dE:
	.cfi_startproc
	push	rbp
	.cfi_def_cfa_offset 16
	.cfi_offset rbp, -16
	mov	rbp, rsp
	.cfi_def_cfa_register rbp
	push	r14
	push	rbx
	.cfi_offset rbx, -32
	.cfi_offset r14, -24
	mov	rbx, rsi
	mov	r14, qword ptr [rdi]
	mov	rdi, rsi
	call	__ZN4core3fmt9Formatter15debug_lower_hex17h8530fbaeba13f4d9E
	test	al, al
	je	LBB1_1
	mov	rdi, r14
	mov	rsi, rbx
	pop	rbx
	pop	r14
	pop	rbp
	jmp	__ZN4core3fmt3num55_$LT$impl$u20$core..fmt..LowerHex$u20$for$u20$usize$GT$3fmt17hbf7dc8c1d7fa021dE
LBB1_1:
	mov	rdi, rbx
	call	__ZN4core3fmt9Formatter15debug_upper_hex17hf8fda15ec43a1e68E
	mov	rdi, r14
	mov	rsi, rbx
	test	al, al
	je	LBB1_4
	pop	rbx
	pop	r14
	pop	rbp
	jmp	__ZN4core3fmt3num55_$LT$impl$u20$core..fmt..UpperHex$u20$for$u20$usize$GT$3fmt17hf20a4f369caf234bE
LBB1_4:
	pop	rbx
	pop	r14
	pop	rbp
	jmp	__ZN4core3fmt3num3imp54_$LT$impl$u20$core..fmt..Display$u20$for$u20$usize$GT$3fmt17h89ce3155a90f2edfE
	.cfi_endproc

	.p2align	4, 0x90
__ZN4core3fmt3num52_$LT$impl$u20$core..fmt..Debug$u20$for$u20$usize$GT$3fmt17hd9d2912101c14e43E:
	.cfi_startproc
	push	rbp
	.cfi_def_cfa_offset 16
	.cfi_offset rbp, -16
	mov	rbp, rsp
	.cfi_def_cfa_register rbp
	push	r14
	push	rbx
	.cfi_offset rbx, -32
	.cfi_offset r14, -24
	mov	rbx, rsi
	mov	r14, rdi
	mov	rdi, rsi
	call	__ZN4core3fmt9Formatter15debug_lower_hex17h8530fbaeba13f4d9E
	test	al, al
	je	LBB2_1
	mov	rdi, r14
	mov	rsi, rbx
	pop	rbx
	pop	r14
	pop	rbp
	jmp	__ZN4core3fmt3num55_$LT$impl$u20$core..fmt..LowerHex$u20$for$u20$usize$GT$3fmt17hbf7dc8c1d7fa021dE
LBB2_1:
	mov	rdi, rbx
	call	__ZN4core3fmt9Formatter15debug_upper_hex17hf8fda15ec43a1e68E
	mov	rdi, r14
	mov	rsi, rbx
	test	al, al
	je	LBB2_4
	pop	rbx
	pop	r14
	pop	rbp
	jmp	__ZN4core3fmt3num55_$LT$impl$u20$core..fmt..UpperHex$u20$for$u20$usize$GT$3fmt17hf20a4f369caf234bE
LBB2_4:
	pop	rbx
	pop	r14
	pop	rbp
	jmp	__ZN4core3fmt3num3imp54_$LT$impl$u20$core..fmt..Display$u20$for$u20$usize$GT$3fmt17h89ce3155a90f2edfE
	.cfi_endproc

	.p2align	4, 0x90
__ZN4core3ptr13drop_in_place17h1782f8b239e7963bE:
	.cfi_startproc
	push	rbp
	.cfi_def_cfa_offset 16
	.cfi_offset rbp, -16
	mov	rbp, rsp
	.cfi_def_cfa_register rbp
	pop	rbp
	ret
	.cfi_endproc

	.p2align	4, 0x90
__ZN5alloc7raw_vec19RawVec$LT$T$C$A$GT$11allocate_in28_$u7b$$u7b$closure$u7d$$u7d$17h2d0a0ce596247983E:
	.cfi_startproc
	push	rbp
	.cfi_def_cfa_offset 16
	.cfi_offset rbp, -16
	mov	rbp, rsp
	.cfi_def_cfa_register rbp
	call	__ZN5alloc5alloc18handle_alloc_error17hbc0ab0ed90816c07E
	.cfi_endproc

	.globl	__ZN10bit_matrix6matrix9BitMatrix3new17h28c0edd13ebd5365E
	.p2align	4, 0x90
__ZN10bit_matrix6matrix9BitMatrix3new17h28c0edd13ebd5365E:
	.cfi_startproc
	push	rbp
	.cfi_def_cfa_offset 16
	.cfi_offset rbp, -16
	mov	rbp, rsp
	.cfi_def_cfa_register rbp
	push	r15
	push	r14
	push	r12
	push	rbx
	.cfi_offset rbx, -48
	.cfi_offset r12, -40
	.cfi_offset r14, -32
	.cfi_offset r15, -24
	mov	rax, rdx
	add	rax, 32
	jb	LBB5_7
	mov	r14, rdx
	dec	rax
	and	rax, -32
	mul	rsi
	jo	LBB5_6
	mov	rbx, rdi
	mov	r15, rax
	test	rax, rax
	je	LBB5_3
	mov	r12, r15
	shr	r12, 3
	mov	esi, 4
	mov	rdi, r12
	call	___rust_alloc_zeroed
	test	rax, rax
	jne	LBB5_5
	mov	esi, 4
	mov	rdi, r12
	call	__ZN5alloc7raw_vec19RawVec$LT$T$C$A$GT$11allocate_in28_$u7b$$u7b$closure$u7d$$u7d$17h2d0a0ce596247983E
LBB5_3:
	mov	eax, 4
LBB5_5:
	mov	rcx, r15
	shr	rcx, 5
	mov	qword ptr [rbx], rax
	mov	qword ptr [rbx + 8], rcx
	mov	qword ptr [rbx + 16], rcx
	mov	qword ptr [rbx + 24], r15
	mov	qword ptr [rbx + 32], r14
	mov	rax, rbx
	pop	rbx
	pop	r12
	pop	r14
	pop	r15
	pop	rbp
	ret
LBB5_7:
	lea	rdi, [rip + _str.5]
	lea	rdx, [rip + l___unnamed_4]
	mov	esi, 28
	call	__ZN4core9panicking5panic17h736ee47a631475c0E
LBB5_6:
	lea	rdi, [rip + _str.6]
	lea	rdx, [rip + l___unnamed_5]
	mov	esi, 33
	call	__ZN4core9panicking5panic17h736ee47a631475c0E
	.cfi_endproc

	.globl	__ZN10bit_matrix6matrix9BitMatrix4size17h966f6520e069e95aE
	.p2align	4, 0x90
__ZN10bit_matrix6matrix9BitMatrix4size17h966f6520e069e95aE:
	.cfi_startproc
	push	rbp
	.cfi_def_cfa_offset 16
	.cfi_offset rbp, -16
	mov	rbp, rsp
	.cfi_def_cfa_register rbp
	mov	rcx, qword ptr [rdi + 32]
	test	rcx, rcx
	je	LBB6_1
	mov	rsi, rcx
	add	rsi, 32
	jb	LBB6_6
	dec	rsi
	shr	rsi, 5
	je	LBB6_7
	mov	rax, qword ptr [rdi + 16]
	xor	edx, edx
	div	rsi
	mov	rdx, rcx
	pop	rbp
	ret
LBB6_1:
	xor	eax, eax
	mov	rdx, rcx
	pop	rbp
	ret
LBB6_6:
	lea	rdi, [rip + _str.5]
	lea	rdx, [rip + l___unnamed_4]
	mov	esi, 28
	call	__ZN4core9panicking5panic17h736ee47a631475c0E
LBB6_7:
	lea	rdi, [rip + _str.3]
	lea	rdx, [rip + l___unnamed_6]
	mov	esi, 25
	call	__ZN4core9panicking5panic17h736ee47a631475c0E
	.cfi_endproc

	.globl	__ZN10bit_matrix6matrix9BitMatrix4grow17ha9ac1917be2ac37fE
	.p2align	4, 0x90
__ZN10bit_matrix6matrix9BitMatrix4grow17ha9ac1917be2ac37fE:
	.cfi_startproc
	push	rbp
	.cfi_def_cfa_offset 16
	.cfi_offset rbp, -16
	mov	rbp, rsp
	.cfi_def_cfa_register rbp
	push	r15
	push	r14
	push	r13
	push	r12
	push	rbx
	push	rax
	.cfi_offset rbx, -56
	.cfi_offset r12, -48
	.cfi_offset r13, -40
	.cfi_offset r14, -32
	.cfi_offset r15, -24
	mov	rax, qword ptr [rdi + 32]
	add	rax, 32
	jb	LBB7_61
	mov	r8d, edx
	dec	rax
	and	rax, -32
	mul	rsi
	jo	LBB7_60
	mov	r15, rdi
	mov	r14, rax
	mov	rcx, qword ptr [rdi + 24]
	add	r14, rcx
	jb	LBB7_62
	mov	eax, r14d
	and	eax, 31
	mov	r12, r14
	shr	r12, 5
	cmp	rax, 1
	sbb	r12, -1
	xor	edi, edi
	test	cl, 31
	setne	dil
	mov	rax, rcx
	shr	rax, 5
	add	rdi, rax
	test	cl, 31
	je	LBB7_8
	neg	cl
	mov	edx, -1
	shr	edx, cl
	test	r8b, r8b
	je	LBB7_8
	mov	rax, rdi
	sub	rax, 1
	jb	LBB7_56
	mov	rsi, qword ptr [r15 + 16]
	cmp	rsi, rax
	jbe	LBB7_63
	mov	rcx, qword ptr [r15]
	not	edx
	or	dword ptr [rcx + 4*rax], edx
LBB7_8:
	movzx	r13d, r8b
	neg	r13d
	mov	rsi, qword ptr [r15 + 16]
	cmp	rsi, r12
	mov	rax, rsi
	cmova	rax, r12
	cmp	rdi, rax
	jae	LBB7_10
	.p2align	4, 0x90
LBB7_22:
	cmp	rsi, rdi
	jbe	LBB7_64
	mov	rcx, qword ptr [r15]
	mov	dword ptr [rcx + 4*rdi], r13d
	inc	rdi
	mov	rsi, qword ptr [r15 + 16]
	cmp	rdi, rax
	jb	LBB7_22
LBB7_10:
	sub	r12, rsi
	jbe	LBB7_51
	jb	LBB7_57
	mov	rcx, qword ptr [r15 + 8]
	mov	rax, rcx
	sub	rax, rsi
	cmp	rax, r12
	jae	LBB7_34
	mov	rax, rsi
	add	rax, r12
	jb	LBB7_32
	lea	rdx, [rcx + rcx]
	cmp	rdx, rax
	cmova	rax, rdx
	mov	edx, 4
	xor	r8d, r8d
	mul	rdx
	mov	rbx, rax
	seto	dl
	setno	dil
	mov	rax, rcx
	test	rcx, rcx
	je	LBB7_16
	mov	rax, qword ptr [r15]
LBB7_16:
	test	dl, dl
	jne	LBB7_32
	test	rax, rax
	je	LBB7_26
	shl	rcx, 2
	cmp	rcx, rbx
	je	LBB7_29
	test	rcx, rcx
	je	LBB7_20
	mov	edx, 4
	mov	rdi, rax
	mov	rsi, rcx
	mov	rcx, rbx
	call	___rust_realloc
	test	rax, rax
	jne	LBB7_30
	jmp	LBB7_33
LBB7_34:
	test	r12, r12
	je	LBB7_50
	mov	rax, qword ptr [r15]
	lea	r9, [rax + 4*rsi]
	cmp	r12, 8
	jb	LBB7_37
LBB7_38:
	mov	r8, r12
	and	r8, -8
	movd	xmm0, r13d
	pshufd	xmm0, xmm0, 0
	lea	rcx, [r8 - 8]
	mov	rdi, rcx
	shr	rdi, 3
	inc	rdi
	mov	edx, edi
	and	edx, 7
	cmp	rcx, 56
	jae	LBB7_40
	xor	ecx, ecx
	test	rdx, rdx
	jne	LBB7_43
	jmp	LBB7_45
LBB7_40:
	sub	rdi, rdx
	lea	rbx, [rax + 4*rsi + 240]
	xor	ecx, ecx
	.p2align	4, 0x90
LBB7_41:
	movdqu	xmmword ptr [rbx + 4*rcx - 240], xmm0
	movdqu	xmmword ptr [rbx + 4*rcx - 224], xmm0
	movdqu	xmmword ptr [rbx + 4*rcx - 208], xmm0
	movdqu	xmmword ptr [rbx + 4*rcx - 192], xmm0
	movdqu	xmmword ptr [rbx + 4*rcx - 176], xmm0
	movdqu	xmmword ptr [rbx + 4*rcx - 160], xmm0
	movdqu	xmmword ptr [rbx + 4*rcx - 144], xmm0
	movdqu	xmmword ptr [rbx + 4*rcx - 128], xmm0
	movdqu	xmmword ptr [rbx + 4*rcx - 112], xmm0
	movdqu	xmmword ptr [rbx + 4*rcx - 96], xmm0
	movdqu	xmmword ptr [rbx + 4*rcx - 80], xmm0
	movdqu	xmmword ptr [rbx + 4*rcx - 64], xmm0
	movdqu	xmmword ptr [rbx + 4*rcx - 48], xmm0
	movdqu	xmmword ptr [rbx + 4*rcx - 32], xmm0
	movdqu	xmmword ptr [rbx + 4*rcx - 16], xmm0
	movdqu	xmmword ptr [rbx + 4*rcx], xmm0
	add	rcx, 64
	add	rdi, -8
	jne	LBB7_41
	test	rdx, rdx
	je	LBB7_45
LBB7_43:
	add	rcx, rsi
	lea	rax, [rax + 4*rcx + 16]
	neg	rdx
	.p2align	4, 0x90
LBB7_44:
	movdqu	xmmword ptr [rax - 16], xmm0
	movdqu	xmmword ptr [rax], xmm0
	add	rax, 32
	inc	rdx
	jne	LBB7_44
LBB7_45:
	cmp	r12, r8
	je	LBB7_49
	mov	rax, r12
	sub	rax, r8
	lea	r9, [r9 + 4*r8]
	jmp	LBB7_47
LBB7_26:
	mov	r8b, dil
	shl	r8, 2
	test	rbx, rbx
	je	LBB7_28
	mov	rdi, rbx
	mov	rsi, r8
	call	___rust_alloc
LBB7_29:
	test	rax, rax
	je	LBB7_33
LBB7_30:
	mov	rsi, qword ptr [r15 + 16]
LBB7_31:
	mov	qword ptr [r15], rax
	shr	rbx, 2
	mov	qword ptr [r15 + 8], rbx
	lea	r9, [rax + 4*rsi]
	cmp	r12, 8
	jae	LBB7_38
LBB7_37:
	mov	rax, r12
LBB7_47:
	xor	ecx, ecx
	.p2align	4, 0x90
LBB7_48:
	mov	dword ptr [r9 + 4*rcx], r13d
	inc	rcx
	cmp	rax, rcx
	jne	LBB7_48
LBB7_49:
	add	rsi, r12
LBB7_50:
	mov	qword ptr [r15 + 16], rsi
LBB7_51:
	mov	qword ptr [r15 + 24], r14
	test	r14b, 31
	je	LBB7_59
	mov	eax, -1
	mov	ecx, r14d
	shl	eax, cl
	mov	rdi, rsi
	sub	rdi, 1
	jb	LBB7_55
	cmp	rsi, rdi
	jbe	LBB7_54
	not	eax
	mov	rcx, qword ptr [r15]
	and	dword ptr [rcx + 4*rdi], eax
LBB7_59:
	add	rsp, 8
	pop	rbx
	pop	r12
	pop	r13
	pop	r14
	pop	r15
	pop	rbp
	ret
LBB7_28:
	mov	rax, r8
	test	rax, rax
	jne	LBB7_30
LBB7_33:
	mov	esi, 4
	mov	rdi, rbx
	call	__ZN5alloc5alloc18handle_alloc_error17hbc0ab0ed90816c07E
LBB7_20:
	test	rbx, rbx
	je	LBB7_21
	mov	esi, 4
	mov	rdi, rbx
	call	___rust_alloc
	test	rax, rax
	jne	LBB7_30
	jmp	LBB7_33
LBB7_21:
	mov	eax, 4
	jmp	LBB7_31
LBB7_64:
	lea	rdx, [rip + l___unnamed_7]
	call	__ZN4core9panicking18panic_bounds_check17habe69d236c55e3edE
LBB7_61:
	lea	rdi, [rip + _str.5]
	lea	rdx, [rip + l___unnamed_4]
	mov	esi, 28
	call	__ZN4core9panicking5panic17h736ee47a631475c0E
LBB7_60:
	lea	rdi, [rip + _str.6]
	lea	rdx, [rip + l___unnamed_8]
	mov	esi, 33
	call	__ZN4core9panicking5panic17h736ee47a631475c0E
LBB7_62:
	lea	rdi, [rip + l___unnamed_9]
	lea	rdx, [rip + l___unnamed_10]
	mov	esi, 17
	call	__ZN4core6option13expect_failed17h68bd601d867bb8d1E
LBB7_55:
	lea	rdi, [rip + _str.0]
	lea	rdx, [rip + l___unnamed_11]
	mov	esi, 33
	call	__ZN4core9panicking5panic17h736ee47a631475c0E
LBB7_54:
	lea	rdx, [rip + l___unnamed_12]
	call	__ZN4core9panicking18panic_bounds_check17habe69d236c55e3edE
LBB7_57:
	lea	rdi, [rip + _str.0]
	lea	rdx, [rip + l___unnamed_13]
	mov	esi, 33
	call	__ZN4core9panicking5panic17h736ee47a631475c0E
LBB7_32:
	call	__ZN5alloc7raw_vec17capacity_overflow17h023f34f5bc34c61fE
LBB7_56:
	lea	rdi, [rip + _str.0]
	lea	rdx, [rip + l___unnamed_14]
	mov	esi, 33
	call	__ZN4core9panicking5panic17h736ee47a631475c0E
LBB7_63:
	lea	rdx, [rip + l___unnamed_15]
	mov	rdi, rax
	call	__ZN4core9panicking18panic_bounds_check17habe69d236c55e3edE
	.cfi_endproc

	.globl	__ZN10bit_matrix6matrix9BitMatrix8truncate17h18eaaed38ab9a192E
	.p2align	4, 0x90
__ZN10bit_matrix6matrix9BitMatrix8truncate17h18eaaed38ab9a192E:
	.cfi_startproc
	push	rbp
	.cfi_def_cfa_offset 16
	.cfi_offset rbp, -16
	mov	rbp, rsp
	.cfi_def_cfa_register rbp
	mov	rax, qword ptr [rdi + 32]
	add	rax, 32
	jb	LBB8_7
	dec	rax
	and	rax, -32
	mul	rsi
	jo	LBB8_6
	cmp	qword ptr [rdi + 24], rax
	jbe	LBB8_5
	mov	qword ptr [rdi + 24], rax
	shr	rax, 5
	cmp	qword ptr [rdi + 16], rax
	jb	LBB8_5
	mov	qword ptr [rdi + 16], rax
LBB8_5:
	pop	rbp
	ret
LBB8_7:
	lea	rdi, [rip + _str.5]
	lea	rdx, [rip + l___unnamed_4]
	mov	esi, 28
	call	__ZN4core9panicking5panic17h736ee47a631475c0E
LBB8_6:
	lea	rdi, [rip + _str.6]
	lea	rdx, [rip + l___unnamed_16]
	mov	esi, 33
	call	__ZN4core9panicking5panic17h736ee47a631475c0E
	.cfi_endproc

	.globl	__ZN10bit_matrix6matrix9BitMatrix8iter_row17h556e894dd43b35afE
	.p2align	4, 0x90
__ZN10bit_matrix6matrix9BitMatrix8iter_row17h556e894dd43b35afE:
	.cfi_startproc
	push	rbp
	.cfi_def_cfa_offset 16
	.cfi_offset rbp, -16
	mov	rbp, rsp
	.cfi_def_cfa_register rbp
	mov	r10, rdi
	mov	r9, qword ptr [rsi + 32]
	mov	rdi, r9
	add	rdi, 32
	jb	LBB9_10
	mov	rcx, rdx
	dec	rdi
	shr	rdi, 5
	mov	rax, rdx
	mul	rdi
	jo	LBB9_8
	inc	rcx
	je	LBB9_7
	mov	r8, rax
	mov	rax, rcx
	mul	rdi
	jo	LBB9_8
	cmp	rax, r8
	jb	LBB9_11
	mov	rcx, qword ptr [rsi + 16]
	cmp	rcx, rax
	jb	LBB9_6
	mov	rcx, qword ptr [rsi]
	lea	rcx, [rcx + 4*r8]
	sub	rax, r8
	mov	qword ptr [r10], rcx
	mov	qword ptr [r10 + 8], rax
	mov	qword ptr [r10 + 16], 0
	mov	qword ptr [r10 + 24], r9
	mov	rax, r10
	pop	rbp
	ret
LBB9_8:
	lea	rdi, [rip + _str.6]
	lea	rdx, [rip + l___unnamed_17]
	mov	esi, 33
	call	__ZN4core9panicking5panic17h736ee47a631475c0E
LBB9_10:
	lea	rdi, [rip + _str.5]
	lea	rdx, [rip + l___unnamed_4]
	mov	esi, 28
	call	__ZN4core9panicking5panic17h736ee47a631475c0E
LBB9_7:
	lea	rdi, [rip + _str.5]
	lea	rdx, [rip + l___unnamed_17]
	mov	esi, 28
	call	__ZN4core9panicking5panic17h736ee47a631475c0E
LBB9_11:
	lea	rdx, [rip + l___unnamed_17]
	mov	rdi, r8
	mov	rsi, rax
	call	__ZN4core5slice22slice_index_order_fail17h85b430a3a039f0a8E
LBB9_6:
	lea	rdx, [rip + l___unnamed_17]
	mov	rdi, rax
	mov	rsi, rcx
	call	__ZN4core5slice20slice_index_len_fail17h550a313151a85135E
	.cfi_endproc

	.globl	__ZN10bit_matrix6matrix9BitMatrix18transitive_closure17h5b887f28322ab65bE
	.p2align	4, 0x90
__ZN10bit_matrix6matrix9BitMatrix18transitive_closure17h5b887f28322ab65bE:
	.cfi_startproc
	push	rbp
	.cfi_def_cfa_offset 16
	.cfi_offset rbp, -16
	mov	rbp, rsp
	.cfi_def_cfa_register rbp
	push	r15
	push	r14
	push	r13
	push	r12
	push	rbx
	sub	rsp, 200
	.cfi_offset rbx, -56
	.cfi_offset r12, -48
	.cfi_offset r13, -40
	.cfi_offset r14, -32
	.cfi_offset r15, -24
	mov	r13, qword ptr [rdi + 32]
	test	r13, r13
	je	LBB10_1
	mov	rcx, r13
	add	rcx, 32
	jb	LBB10_43
	dec	rcx
	shr	rcx, 5
	je	LBB10_56
	mov	rax, qword ptr [rdi + 16]
	xor	edx, edx
	div	rcx
	jmp	LBB10_5
LBB10_1:
	xor	eax, eax
LBB10_5:
	lea	rcx, [rdi + 32]
	mov	qword ptr [rbp - 56], rcx
	mov	qword ptr [rbp - 136], rax
	cmp	rax, r13
	jne	LBB10_11
	test	r13, r13
	je	LBB10_12
	lea	r14, [r13 + 32]
	mov	esi, 1
	xor	r11d, r11d
	lea	r15, [rip + __ZN10bit_matrix5FALSE17hd3f7b703ac23795dE]
	xor	ecx, ecx
	mov	r9, r13
	mov	qword ptr [rbp - 72], rdi
	mov	qword ptr [rbp - 64], r13
	.p2align	4, 0x90
LBB10_8:
	dec	r14
	shr	r14, 5
	mov	rax, rcx
	mul	r14
	jo	LBB10_26
	mov	rbx, rax
	mov	r10, qword ptr [rdi + 16]
	cmp	r10, rax
	jb	LBB10_10
	mov	rax, rsi
	mul	r14
	jo	LBB10_17
	mov	r8, rax
	cmp	rax, rbx
	jb	LBB10_55
	cmp	r10, r8
	jb	LBB10_16
	mov	r12, qword ptr [rdi]
	test	r9, r9
	je	LBB10_19
	test	r14, r14
	je	LBB10_56
	mov	rax, r10
	xor	edx, edx
	div	r14
	mul	r14
	jo	LBB10_26
LBB10_23:
	cmp	rax, r8
	jb	LBB10_57
	cmp	r10, rax
	jb	LBB10_25
	mov	qword ptr [rbp - 96], rsi
	test	r14, r14
	je	LBB10_58
	lea	rdx, [4*rcx]
	lea	rsi, [r12 + 4*rbx]
	lea	r13, [r12 + 4*r8]
	sub	rax, r8
	mov	r9, rcx
	mov	edi, 1
	mov	qword ptr [rbp - 80], rcx
	shl	edi, cl
	mov	dword ptr [rbp - 44], edi
	shr	r9, 5
	mov	rcx, r13
	mov	qword ptr [rbp - 104], rsi
	sub	rcx, rsi
	shr	rcx, 2
	imul	rdx, r14
	add	rdx, r12
	mov	qword ptr [rbp - 128], rdx
	mov	qword ptr [rbp - 88], r11
	mov	r8, r11
	imul	r8, r14
	lea	r10, [r12 + r8 + 48]
	add	r8, r12
	mov	qword ptr [rbp - 112], rcx
	.p2align	4, 0x90
LBB10_29:
	test	r12, r12
	je	LBB10_38
	test	rbx, rbx
	je	LBB10_38
	cmp	rbx, r14
	mov	rdi, rbx
	cmova	rdi, r14
	mov	r11, r12
	lea	r12, [r12 + 4*rdi]
	sub	rbx, rdi
	mov	rdx, r15
	cmp	r9, rdi
	jae	LBB10_34
LBB10_33:
	mov	edx, dword ptr [rbp - 44]
	test	dword ptr [r11 + 4*r9], edx
	lea	rdx, [rip + __ZN10bit_matrix4TRUE17hba312109be1bd94eE]
	cmove	rdx, r15
LBB10_34:
	cmp	byte ptr [rdx], 0
	je	LBB10_29
	cmp	rdi, rcx
	cmova	rdi, rcx
	test	rdi, rdi
	je	LBB10_29
	cmp	rdi, 8
	jae	LBB10_44
	xor	esi, esi
	jmp	LBB10_54
	.p2align	4, 0x90
LBB10_38:
	test	r13, r13
	je	LBB10_41
	test	rax, rax
	je	LBB10_41
	cmp	rax, r14
	mov	rdi, rax
	cmova	rdi, r14
	mov	r11, r13
	lea	r13, [r13 + 4*rdi]
	sub	rax, rdi
	xor	r12d, r12d
	mov	rdx, r15
	cmp	r9, rdi
	jb	LBB10_33
	jmp	LBB10_34
LBB10_44:
	mov	rsi, qword ptr [rbp - 128]
	lea	rdx, [rsi + 4*rdi]
	cmp	rdx, r11
	jbe	LBB10_47
	lea	rdx, [r11 + 4*rdi]
	cmp	rsi, rdx
	jae	LBB10_47
	xor	esi, esi
	jmp	LBB10_54
LBB10_47:
	mov	rsi, rdi
	movabs	rdx, 4611686018427387896
	and	rsi, rdx
	lea	rdx, [rsi - 8]
	mov	r15, rdx
	shr	r15, 3
	inc	r15
	mov	ecx, r15d
	and	ecx, 1
	test	rdx, rdx
	mov	qword ptr [rbp - 120], rcx
	je	LBB10_48
	sub	r15, rcx
	xor	edx, edx
	.p2align	4, 0x90
LBB10_50:
	movups	xmm0, xmmword ptr [r10 + 4*rdx - 48]
	movups	xmm1, xmmword ptr [r10 + 4*rdx - 32]
	movups	xmm2, xmmword ptr [r11 + 4*rdx]
	orps	xmm2, xmm0
	movups	xmm0, xmmword ptr [r11 + 4*rdx + 16]
	orps	xmm0, xmm1
	movups	xmm1, xmmword ptr [r11 + 4*rdx + 32]
	movups	xmm3, xmmword ptr [r11 + 4*rdx + 48]
	movups	xmmword ptr [r11 + 4*rdx], xmm2
	movups	xmmword ptr [r11 + 4*rdx + 16], xmm0
	movups	xmm0, xmmword ptr [r10 + 4*rdx - 16]
	orps	xmm0, xmm1
	movups	xmm1, xmmword ptr [r10 + 4*rdx]
	orps	xmm1, xmm3
	movups	xmmword ptr [r11 + 4*rdx + 32], xmm0
	movups	xmmword ptr [r11 + 4*rdx + 48], xmm1
	add	rdx, 16
	add	r15, -2
	jne	LBB10_50
	cmp	qword ptr [rbp - 120], 0
	mov	rcx, qword ptr [rbp - 112]
	je	LBB10_53
LBB10_52:
	mov	r15, qword ptr [rbp - 104]
	movups	xmm0, xmmword ptr [r15 + 4*rdx]
	movups	xmm1, xmmword ptr [r15 + 4*rdx + 16]
	movups	xmm2, xmmword ptr [r11 + 4*rdx]
	orps	xmm2, xmm0
	movups	xmm0, xmmword ptr [r11 + 4*rdx + 16]
	orps	xmm0, xmm1
	movups	xmmword ptr [r11 + 4*rdx], xmm2
	movups	xmmword ptr [r11 + 4*rdx + 16], xmm0
LBB10_53:
	cmp	rdi, rsi
	lea	r15, [rip + __ZN10bit_matrix5FALSE17hd3f7b703ac23795dE]
	je	LBB10_29
	.p2align	4, 0x90
LBB10_54:
	mov	edx, dword ptr [r8 + 4*rsi]
	or	dword ptr [r11 + 4*rsi], edx
	inc	rsi
	cmp	rsi, rdi
	jb	LBB10_54
	jmp	LBB10_29
LBB10_48:
	xor	edx, edx
	cmp	qword ptr [rbp - 120], 0
	mov	rcx, qword ptr [rbp - 112]
	jne	LBB10_52
	jmp	LBB10_53
	.p2align	4, 0x90
LBB10_41:
	mov	r13, qword ptr [rbp - 64]
	mov	rsi, qword ptr [rbp - 96]
	cmp	rsi, r13
	mov	rdi, qword ptr [rbp - 72]
	je	LBB10_12
	mov	rax, qword ptr [rbp - 56]
	mov	r9, qword ptr [rax]
	inc	rsi
	mov	rcx, qword ptr [rbp - 80]
	inc	rcx
	mov	r11, qword ptr [rbp - 88]
	add	r11, 4
	mov	r14, r9
	add	r14, 32
	jae	LBB10_8
	jmp	LBB10_43
	.p2align	4, 0x90
LBB10_19:
	xor	eax, eax
	mul	r14
	jno	LBB10_23
LBB10_26:
	lea	rdi, [rip + _str.6]
	lea	rdx, [rip + l___unnamed_18]
	mov	esi, 33
	call	__ZN4core9panicking5panic17h736ee47a631475c0E
LBB10_12:
	add	rsp, 200
	pop	rbx
	pop	r12
	pop	r13
	pop	r14
	pop	r15
	pop	rbp
	ret
LBB10_10:
	lea	rdx, [rip + l___unnamed_19]
	mov	rdi, rbx
	mov	rsi, r10
	call	__ZN4core5slice20slice_index_len_fail17h550a313151a85135E
LBB10_17:
	lea	rdi, [rip + _str.6]
	lea	rdx, [rip + l___unnamed_20]
	mov	esi, 33
	call	__ZN4core9panicking5panic17h736ee47a631475c0E
LBB10_55:
	lea	rdx, [rip + l___unnamed_20]
	mov	rdi, rbx
	mov	rsi, r8
	call	__ZN4core5slice22slice_index_order_fail17h85b430a3a039f0a8E
LBB10_16:
	lea	rdx, [rip + l___unnamed_20]
	mov	rdi, r8
	mov	rsi, r10
	call	__ZN4core5slice20slice_index_len_fail17h550a313151a85135E
LBB10_57:
	lea	rdx, [rip + l___unnamed_19]
	mov	rdi, r8
	mov	rsi, rax
	call	__ZN4core5slice22slice_index_order_fail17h85b430a3a039f0a8E
LBB10_25:
	lea	rdx, [rip + l___unnamed_19]
	mov	rdi, rax
	mov	rsi, r10
	call	__ZN4core5slice20slice_index_len_fail17h550a313151a85135E
LBB10_58:
	lea	rdi, [rip + l___unnamed_21]
	lea	rdx, [rip + l___unnamed_22]
	mov	esi, 33
	call	__ZN4core9panicking5panic17h736ee47a631475c0E
LBB10_43:
	lea	rdi, [rip + _str.5]
	lea	rdx, [rip + l___unnamed_4]
	mov	esi, 28
	call	__ZN4core9panicking5panic17h736ee47a631475c0E
LBB10_56:
	lea	rdi, [rip + _str.3]
	lea	rdx, [rip + l___unnamed_6]
	mov	esi, 25
	call	__ZN4core9panicking5panic17h736ee47a631475c0E
LBB10_11:
	lea	rax, [rbp - 136]
	mov	qword ptr [rbp - 144], rax
	mov	rax, qword ptr [rbp - 56]
	mov	qword ptr [rbp - 152], rax
	lea	rax, [rbp - 144]
	mov	qword ptr [rbp - 184], rax
	lea	rax, [rip + __ZN42_$LT$$RF$T$u20$as$u20$core..fmt..Debug$GT$3fmt17he938f0c572f63b2dE]
	mov	qword ptr [rbp - 176], rax
	lea	rcx, [rbp - 152]
	mov	qword ptr [rbp - 168], rcx
	mov	qword ptr [rbp - 160], rax
	lea	rax, [rip + l___unnamed_23]
	mov	qword ptr [rbp - 232], rax
	mov	qword ptr [rbp - 224], 3
	mov	qword ptr [rbp - 216], 0
	lea	rax, [rbp - 184]
	mov	qword ptr [rbp - 200], rax
	mov	qword ptr [rbp - 192], 2
	lea	rsi, [rip + l___unnamed_24]
	lea	rdi, [rbp - 232]
	call	__ZN4core9panicking9panic_fmt17hab6ef1464e9720aaE
	.cfi_endproc

	.globl	__ZN10bit_matrix6matrix9BitMatrix17reflexive_closure17h84c208ddec516d88E
	.p2align	4, 0x90
__ZN10bit_matrix6matrix9BitMatrix17reflexive_closure17h84c208ddec516d88E:
	.cfi_startproc
	push	rbp
	.cfi_def_cfa_offset 16
	.cfi_offset rbp, -16
	mov	rbp, rsp
	.cfi_def_cfa_register rbp
	sub	rsp, 96
	mov	rcx, qword ptr [rdi + 32]
	test	rcx, rcx
	je	LBB11_1
	mov	rsi, rcx
	add	rsi, 32
	jb	LBB11_19
	dec	rsi
	shr	rsi, 5
	je	LBB11_20
	mov	rax, qword ptr [rdi + 16]
	xor	edx, edx
	div	rsi
	mov	r8, rax
	cmp	rcx, r8
	cmovbe	r8, rcx
	test	r8, r8
	je	LBB11_13
LBB11_6:
	add	rcx, 32
	jb	LBB11_19
	lea	r11, [rdi + 24]
	xor	r9d, r9d
	.p2align	4, 0x90
LBB11_8:
	dec	rcx
	and	rcx, -32
	mov	rax, r9
	mul	rcx
	jo	LBB11_15
	add	rax, r9
	jb	LBB11_16
	mov	qword ptr [rbp - 8], rax
	cmp	qword ptr [r11], rax
	jbe	LBB11_14
	mov	r10, rax
	shr	r10, 5
	mov	rsi, qword ptr [rdi + 16]
	cmp	rsi, r10
	jbe	LBB11_12
	mov	edx, 1
	mov	ecx, eax
	shl	edx, cl
	mov	rax, qword ptr [rdi]
	or	dword ptr [rax + 4*r10], edx
	inc	r9
	cmp	r9, r8
	jae	LBB11_13
	mov	rcx, qword ptr [rdi + 32]
	add	rcx, 32
	jae	LBB11_8
LBB11_19:
	lea	rdi, [rip + _str.5]
	lea	rdx, [rip + l___unnamed_4]
	mov	esi, 28
	call	__ZN4core9panicking5panic17h736ee47a631475c0E
LBB11_1:
	xor	r8d, r8d
	cmp	rcx, r8
	cmovbe	r8, rcx
	test	r8, r8
	jne	LBB11_6
LBB11_13:
	add	rsp, 96
	pop	rbp
	ret
LBB11_15:
	lea	rdi, [rip + _str.6]
	lea	rdx, [rip + l___unnamed_25]
	mov	esi, 33
	call	__ZN4core9panicking5panic17h736ee47a631475c0E
LBB11_16:
	lea	rdi, [rip + _str.5]
	lea	rdx, [rip + l___unnamed_25]
	mov	esi, 28
	call	__ZN4core9panicking5panic17h736ee47a631475c0E
LBB11_14:
	lea	rax, [rbp - 8]
	mov	qword ptr [rbp - 40], rax
	lea	rax, [rip + __ZN4core3fmt3num52_$LT$impl$u20$core..fmt..Debug$u20$for$u20$usize$GT$3fmt17hd9d2912101c14e43E]
	mov	qword ptr [rbp - 32], rax
	mov	qword ptr [rbp - 24], r11
	mov	qword ptr [rbp - 16], rax
	lea	rax, [rip + l___unnamed_26]
	mov	qword ptr [rbp - 88], rax
	mov	qword ptr [rbp - 80], 2
	mov	qword ptr [rbp - 72], 0
	lea	rax, [rbp - 40]
	mov	qword ptr [rbp - 56], rax
	mov	qword ptr [rbp - 48], 2
	lea	rsi, [rip + l___unnamed_27]
	lea	rdi, [rbp - 88]
	call	__ZN3std9panicking15begin_panic_fmt17h2e6dba6f5c07d155E
LBB11_12:
	lea	rdx, [rip + l___unnamed_28]
	mov	rdi, r10
	call	__ZN4core9panicking18panic_bounds_check17habe69d236c55e3edE
LBB11_20:
	lea	rdi, [rip + _str.3]
	lea	rdx, [rip + l___unnamed_6]
	mov	esi, 25
	call	__ZN4core9panicking5panic17h736ee47a631475c0E
	.cfi_endproc

	.globl	__ZN80_$LT$bit_matrix..row..Iter$u20$as$u20$core..iter..traits..iterator..Iterator$GT$9size_hint17hd943644f652a31adE
	.p2align	4, 0x90
__ZN80_$LT$bit_matrix..row..Iter$u20$as$u20$core..iter..traits..iterator..Iterator$GT$9size_hint17hd943644f652a31adE:
	.cfi_startproc
	push	rbp
	.cfi_def_cfa_offset 16
	.cfi_offset rbp, -16
	mov	rbp, rsp
	.cfi_def_cfa_register rbp
	mov	rax, qword ptr [rsi + 24]
	xor	ecx, ecx
	sub	rax, qword ptr [rsi + 16]
	cmovae	rcx, rax
	mov	rax, rdi
	mov	qword ptr [rdi], rcx
	mov	qword ptr [rdi + 8], 1
	mov	qword ptr [rdi + 16], rcx
	pop	rbp
	ret
	.cfi_endproc

	.globl	__ZN10bit_matrix9submatrix12BitSubMatrix3new17h95c50ef45d5c5235E
	.p2align	4, 0x90
__ZN10bit_matrix9submatrix12BitSubMatrix3new17h95c50ef45d5c5235E:
	.cfi_startproc
	push	rbp
	.cfi_def_cfa_offset 16
	.cfi_offset rbp, -16
	mov	rbp, rsp
	.cfi_def_cfa_register rbp
	mov	rax, rdi
	mov	qword ptr [rdi], rsi
	mov	qword ptr [rdi + 8], rdx
	mov	qword ptr [rdi + 16], rcx
	pop	rbp
	ret
	.cfi_endproc

	.globl	__ZN10bit_matrix9submatrix12BitSubMatrix4iter17h9d552bdd72565518E
	.p2align	4, 0x90
__ZN10bit_matrix9submatrix12BitSubMatrix4iter17h9d552bdd72565518E:
	.cfi_startproc
	push	rbp
	.cfi_def_cfa_offset 16
	.cfi_offset rbp, -16
	mov	rbp, rsp
	.cfi_def_cfa_register rbp
	mov	rcx, qword ptr [rsi + 16]
	add	rcx, 32
	jb	LBB14_3
	dec	rcx
	shr	rcx, 5
	je	LBB14_4
	mov	rax, rdi
	movups	xmm0, xmmword ptr [rsi]
	movups	xmmword ptr [rdi], xmm0
	mov	qword ptr [rdi + 16], rcx
	lea	rcx, [rip + __ZN10bit_matrix9submatrix12BitSubMatrix4iter1f17hd1c12dbdfeba7c9dE]
	mov	qword ptr [rdi + 24], rcx
	pop	rbp
	ret
LBB14_3:
	lea	rdi, [rip + _str.5]
	lea	rdx, [rip + l___unnamed_4]
	mov	esi, 28
	call	__ZN4core9panicking5panic17h736ee47a631475c0E
LBB14_4:
	lea	rdi, [rip + l___unnamed_21]
	lea	rdx, [rip + l___unnamed_22]
	mov	esi, 33
	call	__ZN4core9panicking5panic17h736ee47a631475c0E
	.cfi_endproc

	.p2align	4, 0x90
__ZN10bit_matrix9submatrix12BitSubMatrix4iter1f17hd1c12dbdfeba7c9dE:
	.cfi_startproc
	push	rbp
	.cfi_def_cfa_offset 16
	.cfi_offset rbp, -16
	mov	rbp, rsp
	.cfi_def_cfa_register rbp
	mov	rdx, rsi
	mov	rax, rdi
	pop	rbp
	ret
	.cfi_endproc

	.globl	__ZN10bit_matrix9submatrix15BitSubMatrixMut3new17h1331ce1267a0b0ceE
	.p2align	4, 0x90
__ZN10bit_matrix9submatrix15BitSubMatrixMut3new17h1331ce1267a0b0ceE:
	.cfi_startproc
	push	rbp
	.cfi_def_cfa_offset 16
	.cfi_offset rbp, -16
	mov	rbp, rsp
	.cfi_def_cfa_register rbp
	mov	rax, rdi
	mov	qword ptr [rdi], rsi
	mov	qword ptr [rdi + 8], rdx
	mov	qword ptr [rdi + 16], rcx
	pop	rbp
	ret
	.cfi_endproc

	.globl	__ZN10bit_matrix9submatrix15BitSubMatrixMut18transitive_closure17h425e481b41589e65E
	.p2align	4, 0x90
__ZN10bit_matrix9submatrix15BitSubMatrixMut18transitive_closure17h425e481b41589e65E:
	.cfi_startproc
	push	rbp
	.cfi_def_cfa_offset 16
	.cfi_offset rbp, -16
	mov	rbp, rsp
	.cfi_def_cfa_register rbp
	push	r15
	push	r14
	push	r13
	push	r12
	push	rbx
	sub	rsp, 152
	.cfi_offset rbx, -56
	.cfi_offset r12, -48
	.cfi_offset r13, -40
	.cfi_offset r14, -32
	.cfi_offset r15, -24
	mov	rsi, qword ptr [rdi + 16]
	mov	r11, rsi
	add	r11, 32
	jb	LBB17_51
	mov	r9, qword ptr [rdi + 8]
	dec	r11
	shr	r11, 5
	je	LBB17_2
	mov	rax, r9
	xor	edx, edx
	div	r11
	jmp	LBB17_4
LBB17_2:
	xor	eax, eax
LBB17_4:
	lea	rcx, [rdi + 16]
	mov	qword ptr [rbp - 56], rcx
	mov	qword ptr [rbp - 88], rax
	cmp	rax, rsi
	jne	LBB17_9
	test	rsi, rsi
	je	LBB17_10
	mov	ebx, 1
	xor	r8d, r8d
	lea	r15, [rip + __ZN10bit_matrix5FALSE17hd3f7b703ac23795dE]
	lea	r12, [rip + __ZN10bit_matrix4TRUE17hba312109be1bd94eE]
	xor	ecx, ecx
	mov	qword ptr [rbp - 72], rdi
	mov	qword ptr [rbp - 64], rsi
	.p2align	4, 0x90
LBB17_7:
	cmp	r9, r8
	jb	LBB17_8
	mov	rax, rbx
	mul	r11
	jo	LBB17_15
	mov	r10, rax
	cmp	rax, r8
	jb	LBB17_52
	cmp	r9, r10
	jb	LBB17_14
	mov	r13, qword ptr [rdi]
	test	r11, r11
	je	LBB17_17
	mov	rax, r9
	xor	edx, edx
	div	r11
	mul	r11
	jo	LBB17_39
LBB17_20:
	cmp	rax, r10
	jb	LBB17_53
	cmp	r9, rax
	jb	LBB17_55
	mov	qword ptr [rbp - 80], rbx
	test	r11, r11
	je	LBB17_54
	lea	r9, [r13 + 4*r8]
	lea	rbx, [r13 + 4*r10]
	mov	edx, 1
	shl	edx, cl
	mov	dword ptr [rbp - 44], edx
	sub	rax, r10
	shr	rcx, 5
	mov	r10, rbx
	sub	r10, r9
	shr	r10, 2
	.p2align	4, 0x90
LBB17_24:
	test	r13, r13
	je	LBB17_33
	test	r8, r8
	je	LBB17_33
	cmp	r8, r11
	mov	rdi, r8
	cmova	rdi, r11
	mov	r14, r13
	lea	r13, [r13 + 4*rdi]
	sub	r8, rdi
	mov	rsi, r15
	cmp	rcx, rdi
	jae	LBB17_29
LBB17_28:
	mov	edx, dword ptr [rbp - 44]
	test	dword ptr [r14 + 4*rcx], edx
	mov	rsi, r12
	cmove	rsi, r15
LBB17_29:
	cmp	byte ptr [rsi], 0
	je	LBB17_24
	cmp	rdi, r10
	cmova	rdi, r10
	test	rdi, rdi
	je	LBB17_24
	cmp	rdi, 8
	jae	LBB17_40
	xor	esi, esi
	jmp	LBB17_50
	.p2align	4, 0x90
LBB17_33:
	test	rbx, rbx
	je	LBB17_36
	test	rax, rax
	je	LBB17_36
	cmp	rax, r11
	mov	rdi, rax
	cmova	rdi, r11
	mov	r14, rbx
	lea	rbx, [rbx + 4*rdi]
	sub	rax, rdi
	xor	r13d, r13d
	mov	rsi, r15
	cmp	rcx, rdi
	jb	LBB17_28
	jmp	LBB17_29
LBB17_40:
	lea	rsi, [r9 + 4*rdi]
	cmp	r14, rsi
	jae	LBB17_43
	lea	rsi, [r14 + 4*rdi]
	cmp	r9, rsi
	jae	LBB17_43
	xor	esi, esi
	jmp	LBB17_50
LBB17_43:
	mov	rsi, rdi
	movabs	rdx, 4611686018427387896
	and	rsi, rdx
	lea	r12, [rsi - 8]
	mov	r15, r12
	shr	r15, 3
	inc	r15
	mov	edx, r15d
	and	edx, 1
	test	r12, r12
	je	LBB17_44
	sub	r15, rdx
	xor	r12d, r12d
	.p2align	4, 0x90
LBB17_46:
	movups	xmm0, xmmword ptr [r9 + 4*r12]
	movups	xmm1, xmmword ptr [r9 + 4*r12 + 16]
	movups	xmm2, xmmword ptr [r14 + 4*r12]
	orps	xmm2, xmm0
	movups	xmm0, xmmword ptr [r14 + 4*r12 + 16]
	orps	xmm0, xmm1
	movups	xmm1, xmmword ptr [r14 + 4*r12 + 32]
	movups	xmm3, xmmword ptr [r14 + 4*r12 + 48]
	movups	xmmword ptr [r14 + 4*r12], xmm2
	movups	xmmword ptr [r14 + 4*r12 + 16], xmm0
	movups	xmm0, xmmword ptr [r9 + 4*r12 + 32]
	orps	xmm0, xmm1
	movups	xmm1, xmmword ptr [r9 + 4*r12 + 48]
	orps	xmm1, xmm3
	movups	xmmword ptr [r14 + 4*r12 + 32], xmm0
	movups	xmmword ptr [r14 + 4*r12 + 48], xmm1
	add	r12, 16
	add	r15, -2
	jne	LBB17_46
	test	rdx, rdx
	je	LBB17_49
LBB17_48:
	movups	xmm0, xmmword ptr [r9 + 4*r12]
	movups	xmm1, xmmword ptr [r9 + 4*r12 + 16]
	movups	xmm2, xmmword ptr [r14 + 4*r12]
	orps	xmm2, xmm0
	movups	xmm0, xmmword ptr [r14 + 4*r12 + 16]
	orps	xmm0, xmm1
	movups	xmmword ptr [r14 + 4*r12], xmm2
	movups	xmmword ptr [r14 + 4*r12 + 16], xmm0
LBB17_49:
	cmp	rdi, rsi
	lea	r15, [rip + __ZN10bit_matrix5FALSE17hd3f7b703ac23795dE]
	lea	r12, [rip + __ZN10bit_matrix4TRUE17hba312109be1bd94eE]
	je	LBB17_24
	.p2align	4, 0x90
LBB17_50:
	mov	edx, dword ptr [r9 + 4*rsi]
	or	dword ptr [r14 + 4*rsi], edx
	inc	rsi
	cmp	rsi, rdi
	jb	LBB17_50
	jmp	LBB17_24
LBB17_44:
	xor	r12d, r12d
	test	rdx, rdx
	jne	LBB17_48
	jmp	LBB17_49
	.p2align	4, 0x90
LBB17_36:
	mov	rsi, qword ptr [rbp - 64]
	mov	rbx, qword ptr [rbp - 80]
	cmp	rbx, rsi
	mov	rdi, qword ptr [rbp - 72]
	je	LBB17_10
	mov	rax, qword ptr [rbp - 56]
	mov	r11, qword ptr [rax]
	add	r11, 32
	jb	LBB17_51
	mov	r9, qword ptr [rdi + 8]
	dec	r11
	shr	r11, 5
	mov	rax, rbx
	mul	r11
	mov	r8, rax
	mov	rcx, rbx
	lea	rbx, [rbx + 1]
	jno	LBB17_7
	jmp	LBB17_39
	.p2align	4, 0x90
LBB17_17:
	xor	eax, eax
	mul	r11
	jno	LBB17_20
LBB17_39:
	lea	rdi, [rip + _str.6]
	lea	rdx, [rip + l___unnamed_29]
	mov	esi, 33
	call	__ZN4core9panicking5panic17h736ee47a631475c0E
LBB17_10:
	add	rsp, 152
	pop	rbx
	pop	r12
	pop	r13
	pop	r14
	pop	r15
	pop	rbp
	ret
LBB17_8:
	lea	rdx, [rip + l___unnamed_30]
	mov	rdi, r8
	mov	rsi, r9
	call	__ZN4core5slice20slice_index_len_fail17h550a313151a85135E
LBB17_15:
	lea	rdi, [rip + _str.6]
	lea	rdx, [rip + l___unnamed_31]
	mov	esi, 33
	call	__ZN4core9panicking5panic17h736ee47a631475c0E
LBB17_52:
	lea	rdx, [rip + l___unnamed_31]
	mov	rdi, r8
	mov	rsi, r10
	call	__ZN4core5slice22slice_index_order_fail17h85b430a3a039f0a8E
LBB17_14:
	lea	rdx, [rip + l___unnamed_31]
	mov	rdi, r10
	mov	rsi, r9
	call	__ZN4core5slice20slice_index_len_fail17h550a313151a85135E
LBB17_53:
	lea	rdx, [rip + l___unnamed_30]
	mov	rdi, r10
	mov	rsi, rax
	call	__ZN4core5slice22slice_index_order_fail17h85b430a3a039f0a8E
LBB17_55:
	lea	rdx, [rip + l___unnamed_30]
	mov	rdi, rax
	mov	rsi, r9
	call	__ZN4core5slice20slice_index_len_fail17h550a313151a85135E
LBB17_54:
	lea	rdi, [rip + l___unnamed_21]
	lea	rdx, [rip + l___unnamed_22]
	mov	esi, 33
	call	__ZN4core9panicking5panic17h736ee47a631475c0E
LBB17_51:
	lea	rdi, [rip + _str.5]
	lea	rdx, [rip + l___unnamed_4]
	mov	esi, 28
	call	__ZN4core9panicking5panic17h736ee47a631475c0E
LBB17_9:
	lea	rax, [rbp - 88]
	mov	qword ptr [rbp - 96], rax
	mov	rax, qword ptr [rbp - 56]
	mov	qword ptr [rbp - 104], rax
	lea	rax, [rbp - 96]
	mov	qword ptr [rbp - 136], rax
	lea	rax, [rip + __ZN42_$LT$$RF$T$u20$as$u20$core..fmt..Debug$GT$3fmt17he938f0c572f63b2dE]
	mov	qword ptr [rbp - 128], rax
	lea	rcx, [rbp - 104]
	mov	qword ptr [rbp - 120], rcx
	mov	qword ptr [rbp - 112], rax
	lea	rax, [rip + l___unnamed_23]
	mov	qword ptr [rbp - 184], rax
	mov	qword ptr [rbp - 176], 3
	mov	qword ptr [rbp - 168], 0
	lea	rax, [rbp - 136]
	mov	qword ptr [rbp - 152], rax
	mov	qword ptr [rbp - 144], 2
	lea	rsi, [rip + l___unnamed_32]
	lea	rdi, [rbp - 184]
	call	__ZN4core9panicking9panic_fmt17hab6ef1464e9720aaE
	.cfi_endproc

	.globl	__ZN10bit_matrix9submatrix15BitSubMatrixMut17reflexive_closure17h5b6c48305c59ce4fE
	.p2align	4, 0x90
__ZN10bit_matrix9submatrix15BitSubMatrixMut17reflexive_closure17h5b6c48305c59ce4fE:
	.cfi_startproc
	push	rbp
	.cfi_def_cfa_offset 16
	.cfi_offset rbp, -16
	mov	rbp, rsp
	.cfi_def_cfa_register rbp
	mov	r9, qword ptr [rdi + 16]
	mov	rcx, r9
	add	rcx, 32
	jb	LBB18_17
	dec	rcx
	shr	rcx, 5
	je	LBB18_2
	mov	rax, qword ptr [rdi + 8]
	xor	edx, edx
	div	rcx
	mov	r8, rax
	cmp	r9, r8
	cmovbe	r8, r9
	test	r8, r8
	je	LBB18_12
LBB18_5:
	mov	rcx, r9
	add	rcx, 32
	jb	LBB18_17
	xor	r10d, r10d
	.p2align	4, 0x90
LBB18_7:
	dec	rcx
	and	rcx, -32
	mov	rax, r10
	mul	rcx
	jo	LBB18_13
	add	rax, r10
	jb	LBB18_14
	cmp	r9, r10
	jbe	LBB18_11
	mov	rdx, rax
	shr	rdx, 5
	cmp	rdx, qword ptr [rdi + 8]
	jae	LBB18_11
	mov	esi, 1
	mov	ecx, eax
	shl	esi, cl
	mov	rax, qword ptr [rdi]
	or	dword ptr [rax + 4*rdx], esi
	inc	r10
	cmp	r10, r8
	jae	LBB18_12
	mov	r9, qword ptr [rdi + 16]
	mov	rcx, r9
	add	rcx, 32
	jae	LBB18_7
LBB18_17:
	lea	rdi, [rip + _str.5]
	lea	rdx, [rip + l___unnamed_4]
	mov	esi, 28
	call	__ZN4core9panicking5panic17h736ee47a631475c0E
LBB18_2:
	xor	r8d, r8d
	cmp	r9, r8
	cmovbe	r8, r9
	test	r8, r8
	jne	LBB18_5
LBB18_12:
	pop	rbp
	ret
LBB18_11:
	lea	rdi, [rip + l___unnamed_33]
	lea	rdx, [rip + l___unnamed_34]
	mov	esi, 65
	call	__ZN4core9panicking5panic17h736ee47a631475c0E
LBB18_13:
	lea	rdi, [rip + _str.6]
	lea	rdx, [rip + l___unnamed_35]
	mov	esi, 33
	call	__ZN4core9panicking5panic17h736ee47a631475c0E
LBB18_14:
	lea	rdi, [rip + _str.5]
	lea	rdx, [rip + l___unnamed_35]
	mov	esi, 28
	call	__ZN4core9panicking5panic17h736ee47a631475c0E
	.cfi_endproc

	.globl	__ZN10bit_matrix9submatrix15BitSubMatrixMut8iter_mut17hc5b28f8bfc1a0fb7E
	.p2align	4, 0x90
__ZN10bit_matrix9submatrix15BitSubMatrixMut8iter_mut17hc5b28f8bfc1a0fb7E:
	.cfi_startproc
	push	rbp
	.cfi_def_cfa_offset 16
	.cfi_offset rbp, -16
	mov	rbp, rsp
	.cfi_def_cfa_register rbp
	mov	rcx, qword ptr [rsi + 16]
	add	rcx, 32
	jb	LBB19_3
	dec	rcx
	shr	rcx, 5
	je	LBB19_4
	mov	rax, rdi
	movups	xmm0, xmmword ptr [rsi]
	movups	xmmword ptr [rdi], xmm0
	mov	qword ptr [rdi + 16], rcx
	lea	rcx, [rip + __ZN10bit_matrix9submatrix15BitSubMatrixMut8iter_mut1f17h53273a05100bd819E]
	mov	qword ptr [rdi + 24], rcx
	pop	rbp
	ret
LBB19_3:
	lea	rdi, [rip + _str.5]
	lea	rdx, [rip + l___unnamed_4]
	mov	esi, 28
	call	__ZN4core9panicking5panic17h736ee47a631475c0E
LBB19_4:
	lea	rdi, [rip + l___unnamed_21]
	lea	rdx, [rip + l___unnamed_22]
	mov	esi, 33
	call	__ZN4core9panicking5panic17h736ee47a631475c0E
	.cfi_endproc

	.p2align	4, 0x90
__ZN10bit_matrix9submatrix15BitSubMatrixMut8iter_mut1f17h53273a05100bd819E:
	.cfi_startproc
	push	rbp
	.cfi_def_cfa_offset 16
	.cfi_offset rbp, -16
	mov	rbp, rsp
	.cfi_def_cfa_register rbp
	mov	rdx, rsi
	mov	rax, rdi
	pop	rbp
	ret
	.cfi_endproc

	.globl	__ZN72_$LT$bit_matrix..submatrix..BitSubMatrix$u20$as$u20$core..fmt..Debug$GT$3fmt17hcb9f716e52f2970dE
	.p2align	4, 0x90
__ZN72_$LT$bit_matrix..submatrix..BitSubMatrix$u20$as$u20$core..fmt..Debug$GT$3fmt17hcb9f716e52f2970dE:
	.cfi_startproc
	push	rbp
	.cfi_def_cfa_offset 16
	.cfi_offset rbp, -16
	mov	rbp, rsp
	.cfi_def_cfa_register rbp
	push	r15
	push	r14
	push	r13
	push	r12
	push	rbx
	sub	rsp, 104
	.cfi_offset rbx, -56
	.cfi_offset r12, -48
	.cfi_offset r13, -40
	.cfi_offset r14, -32
	.cfi_offset r15, -24
	mov	rbx, qword ptr [rdi + 16]
	mov	rax, rbx
	add	rax, 32
	jb	LBB21_16
	dec	rax
	shr	rax, 5
	je	LBB21_17
	mov	r15, rsi
	mov	r13, qword ptr [rdi]
	mov	rcx, qword ptr [rdi + 8]
	mov	qword ptr [rbp - 56], rax
LBB21_3:
	test	rcx, rcx
	je	LBB21_15
	cmp	rcx, rax
	mov	r14, rcx
	cmova	r14, rax
	test	r13, r13
	je	LBB21_15
	lea	rax, [r13 + 4*r14]
	mov	qword ptr [rbp - 64], rax
	sub	rcx, r14
	mov	qword ptr [rbp - 72], rcx
	xor	r12d, r12d
	cmp	rbx, r12
	jne	LBB21_8
	jmp	LBB21_11
	.p2align	4, 0x90
LBB21_6:
	inc	r12
	movzx	eax, byte ptr [rax]
	mov	dword ptr [rbp - 44], eax
	lea	rax, [rbp - 44]
	mov	qword ptr [rbp - 136], rax
	mov	rax, qword ptr [rip + __ZN4core3fmt3num3imp52_$LT$impl$u20$core..fmt..Display$u20$for$u20$i32$GT$3fmt17he2ccc2060d52a2ceE@GOTPCREL]
	mov	qword ptr [rbp - 128], rax
	lea	rax, [rip + l___unnamed_1]
	mov	qword ptr [rbp - 120], rax
	mov	qword ptr [rbp - 112], 1
	mov	qword ptr [rbp - 104], 0
	lea	rax, [rbp - 136]
	mov	qword ptr [rbp - 88], rax
	mov	qword ptr [rbp - 80], 1
	mov	rdi, r15
	lea	rsi, [rbp - 120]
	call	__ZN4core3fmt9Formatter9write_fmt17h3dc2bf45afed3069E
	test	al, al
	jne	LBB21_12
	cmp	rbx, r12
	je	LBB21_11
LBB21_8:
	mov	rcx, r12
	shr	rcx, 5
	lea	rax, [rip + __ZN10bit_matrix5FALSE17hd3f7b703ac23795dE]
	cmp	rcx, r14
	jae	LBB21_6
	mov	eax, dword ptr [r13 + 4*rcx]
	bt	eax, r12d
	lea	rax, [rip + __ZN10bit_matrix5FALSE17hd3f7b703ac23795dE]
	jae	LBB21_6
	lea	rax, [rip + __ZN10bit_matrix4TRUE17hba312109be1bd94eE]
	jmp	LBB21_6
	.p2align	4, 0x90
LBB21_11:
	lea	rax, [rip + l___unnamed_36]
	mov	qword ptr [rbp - 120], rax
	mov	qword ptr [rbp - 112], 1
	mov	qword ptr [rbp - 104], 0
	lea	rax, [rip + l___unnamed_37]
	mov	qword ptr [rbp - 88], rax
	mov	qword ptr [rbp - 80], 0
	mov	rdi, r15
	lea	rsi, [rbp - 120]
	call	__ZN4core3fmt9Formatter9write_fmt17h3dc2bf45afed3069E
	mov	r13, qword ptr [rbp - 64]
	test	al, al
	mov	rax, qword ptr [rbp - 56]
	mov	rcx, qword ptr [rbp - 72]
	je	LBB21_3
LBB21_12:
	mov	al, 1
LBB21_13:
	add	rsp, 104
	pop	rbx
	pop	r12
	pop	r13
	pop	r14
	pop	r15
	pop	rbp
	ret
LBB21_15:
	xor	eax, eax
	jmp	LBB21_13
LBB21_16:
	lea	rdi, [rip + _str.5]
	lea	rdx, [rip + l___unnamed_4]
	mov	esi, 28
	call	__ZN4core9panicking5panic17h736ee47a631475c0E
LBB21_17:
	lea	rdi, [rip + l___unnamed_21]
	lea	rdx, [rip + l___unnamed_22]
	mov	esi, 33
	call	__ZN4core9panicking5panic17h736ee47a631475c0E
	.cfi_endproc

	.globl	__ZN66_$LT$bit_matrix..matrix..BitMatrix$u20$as$u20$core..fmt..Debug$GT$3fmt17h8852947abf683f98E
	.p2align	4, 0x90
__ZN66_$LT$bit_matrix..matrix..BitMatrix$u20$as$u20$core..fmt..Debug$GT$3fmt17h8852947abf683f98E:
	.cfi_startproc
	push	rbp
	.cfi_def_cfa_offset 16
	.cfi_offset rbp, -16
	mov	rbp, rsp
	.cfi_def_cfa_register rbp
	push	r14
	push	rbx
	sub	rsp, 32
	.cfi_offset rbx, -32
	.cfi_offset r14, -24
	mov	rbx, rdi
	lea	rdx, [rip + l___unnamed_38]
	lea	r14, [rbp - 40]
	mov	ecx, 9
	mov	rdi, r14
	call	__ZN4core3fmt9Formatter12debug_struct17h985c0158d1fc7193E
	mov	qword ptr [rbp - 24], rbx
	add	rbx, 32
	lea	rsi, [rip + l___unnamed_39]
	lea	r8, [rip + l___unnamed_40]
	lea	rcx, [rbp - 24]
	mov	edx, 7
	mov	rdi, r14
	call	__ZN4core3fmt8builders11DebugStruct5field17h9c15dc155278eed2E
	mov	qword ptr [rbp - 24], rbx
	lea	rsi, [rip + L___unnamed_41]
	lea	r8, [rip + l___unnamed_42]
	lea	rcx, [rbp - 24]
	mov	edx, 8
	mov	rdi, r14
	call	__ZN4core3fmt8builders11DebugStruct5field17h9c15dc155278eed2E
	mov	rdi, r14
	call	__ZN4core3fmt8builders11DebugStruct6finish17h26808393f3fed630E
	add	rsp, 32
	pop	rbx
	pop	r14
	pop	rbp
	ret
	.cfi_endproc

	.section	__TEXT,__const
	.p2align	3
l___unnamed_37:
	.byte	0

	.p2align	4
_str.0:
	.ascii	"attempt to subtract with overflow"

l___unnamed_21:
	.ascii	"assertion failed: chunk_size != 0"

l___unnamed_43:
	.ascii	"/rustc/a74d1862d4d87a56244958416fd05976c58ca1a8/src/libcore/macros/mod.rs"

	.section	__DATA,__const
	.p2align	3
l___unnamed_22:
	.quad	l___unnamed_43
	.asciz	"I\000\000\000\000\000\000\000\n\000\000\000\t\000\000"

	.section	__TEXT,__const
l___unnamed_2:
	.ascii	"called `Option::unwrap()` on a `None` value"

	.p2align	4
_str.3:
	.ascii	"attempt to divide by zero"

	.section	__DATA,__const
	.p2align	3
l___unnamed_1:
	.quad	l___unnamed_37
	.space	8

	.section	__TEXT,__const
l___unnamed_44:
	.ascii	"/Users/yingyuhang/.cargo/registry/src/github.com-1ecc6299db9ec823/bit-vec-0.6.2/src/lib.rs"

	.section	__DATA,__const
	.p2align	3
l___unnamed_11:
	.quad	l___unnamed_44
	.asciz	"Z\000\000\000\000\000\000\000\276\001\000\000%\000\000"

	.p2align	3
l___unnamed_12:
	.quad	l___unnamed_44
	.asciz	"Z\000\000\000\000\000\000\000\276\001\000\000\030\000\000"

	.section	__TEXT,__const
l___unnamed_45:
	.ascii	"index out of bounds: "

	.section	__TEXT,__literal4,4byte_literals
L___unnamed_46:
	.ascii	" >= "

	.section	__DATA,__const
	.p2align	3
l___unnamed_26:
	.quad	l___unnamed_45
	.asciz	"\025\000\000\000\000\000\000"
	.quad	L___unnamed_46
	.asciz	"\004\000\000\000\000\000\000"

	.section	__TEXT,__const
l___unnamed_47:
	.ascii	"/rustc/a74d1862d4d87a56244958416fd05976c58ca1a8/src/libstd/macros.rs"

	.section	__DATA,__const
	.p2align	3
l___unnamed_27:
	.quad	l___unnamed_47
	.asciz	"D\000\000\000\000\000\000\000\020\000\000\000\t\000\000"

	.p2align	3
l___unnamed_28:
	.quad	l___unnamed_44
	.asciz	"Z\000\000\000\000\000\000\000\035\002\000\000\032\000\000"

	.section	__TEXT,__const
l___unnamed_9:
	.ascii	"capacity overflow"

	.section	__DATA,__const
	.p2align	3
l___unnamed_10:
	.quad	l___unnamed_44
	.asciz	"Z\000\000\000\000\000\000\000\360\004\000\000\031\000\000"

	.p2align	3
l___unnamed_14:
	.quad	l___unnamed_44
	.asciz	"Z\000\000\000\000\000\000\000\371\004\000\000/\000\000"

	.p2align	3
l___unnamed_15:
	.quad	l___unnamed_44
	.asciz	"Z\000\000\000\000\000\000\000\371\004\000\000\"\000\000"

	.p2align	3
l___unnamed_7:
	.quad	l___unnamed_44
	.asciz	"Z\000\000\000\000\000\000\000\003\005\000\000\r\000\000"

	.p2align	3
l___unnamed_13:
	.quad	l___unnamed_44
	.asciz	"Z\000\000\000\000\000\000\000\b\005\000\000\032\000\000"

	.section	__TEXT,__const
	.p2align	4
_str.5:
	.ascii	"attempt to add with overflow"

	.section	__DATA,__const
	.p2align	3
l___unnamed_3:
	.quad	l___unnamed_44
	.asciz	"Z\000\000\000\000\000\000\000\341\005\000\000#\000\000"

	.section	__TEXT,__const
l___unnamed_48:
	.ascii	"/Users/yingyuhang/.cargo/registry/src/github.com-1ecc6299db9ec823/bit-matrix-0.6.0/src/matrix.rs"

	.section	__DATA,__const
	.p2align	3
l___unnamed_5:
	.quad	l___unnamed_48
	.asciz	"`\000\000\000\000\000\000\000 \000\000\000(\000\000"

	.section	__TEXT,__const
	.p2align	4
_str.6:
	.ascii	"attempt to multiply with overflow"

	.section	__DATA,__const
	.p2align	3
l___unnamed_6:
	.quad	l___unnamed_48
	.asciz	"`\000\000\000\000\000\000\000,\000\000\000\r\000\000"

	.p2align	3
l___unnamed_25:
	.quad	l___unnamed_48
	.asciz	"`\000\000\000\000\000\000\000=\000\000\000\032\000\000"

	.p2align	3
l___unnamed_8:
	.quad	l___unnamed_48
	.asciz	"`\000\000\000\000\000\000\000L\000\000\000\033\000\000"

	.p2align	3
l___unnamed_16:
	.quad	l___unnamed_48
	.asciz	"`\000\000\000\000\000\000\000Q\000\000\000\037\000\000"

	.p2align	3
l___unnamed_18:
	.quad	l___unnamed_48
	.asciz	"`\000\000\000\000\000\000\000Y\000\000\000?\000\000"

	.p2align	3
l___unnamed_19:
	.quad	l___unnamed_48
	.asciz	"`\000\000\000\000\000\000\000Y\000\000\000\016\000\000"

	.p2align	3
l___unnamed_20:
	.quad	l___unnamed_48
	.asciz	"`\000\000\000\000\000\000\000x\000\000\000\"\000\000"

	.p2align	3
l___unnamed_17:
	.quad	l___unnamed_48
	.asciz	"`\000\000\000\000\000\000\000\177\000\000\000\033\000\000"

	.section	__TEXT,__const
l___unnamed_49:
	.ascii	"assertion failed: `(left == right)`\n  left: `"

l___unnamed_50:
	.ascii	"`,\n right: `"

l___unnamed_51:
	.byte	96

	.section	__DATA,__const
	.p2align	3
l___unnamed_23:
	.quad	l___unnamed_49
	.asciz	"-\000\000\000\000\000\000"
	.quad	l___unnamed_50
	.asciz	"\f\000\000\000\000\000\000"
	.quad	l___unnamed_51
	.asciz	"\001\000\000\000\000\000\000"

	.p2align	3
l___unnamed_24:
	.quad	l___unnamed_48
	.asciz	"`\000\000\000\000\000\000\000\206\000\000\000\t\000\000"

	.section	__TEXT,__const
l___unnamed_52:
	.ascii	"/Users/yingyuhang/.cargo/registry/src/github.com-1ecc6299db9ec823/bit-matrix-0.6.0/src/submatrix.rs"

	.section	__DATA,__const
	.p2align	3
l___unnamed_35:
	.quad	l___unnamed_52
	.asciz	"c\000\000\000\000\000\000\000]\000\000\000\023\000\000"

	.section	__TEXT,__const
l___unnamed_33:
	.ascii	"assertion failed: block < self.slice.len() && col < self.row_bits"

	.section	__DATA,__const
	.p2align	3
l___unnamed_34:
	.quad	l___unnamed_52
	.asciz	"c\000\000\000\000\000\000\000_\000\000\000\t\000\000"

	.p2align	3
l___unnamed_29:
	.quad	l___unnamed_52
	.asciz	"c\000\000\000\000\000\000\000o\000\000\000:\000\000"

	.p2align	3
l___unnamed_30:
	.quad	l___unnamed_52
	.asciz	"c\000\000\000\000\000\000\000o\000\000\000\025\000\000"

	.p2align	3
l___unnamed_31:
	.quad	l___unnamed_52
	.asciz	"c\000\000\000\000\000\000\000\216\000\000\000\"\000\000"

	.p2align	3
l___unnamed_32:
	.quad	l___unnamed_52
	.asciz	"c\000\000\000\000\000\000\000\227\000\000\000\t\000\000"

	.section	__TEXT,__const
l___unnamed_53:
	.byte	10

	.section	__DATA,__const
	.p2align	3
l___unnamed_36:
	.quad	l___unnamed_53
	.asciz	"\001\000\000\000\000\000\000"

	.section	__TEXT,__const
l___unnamed_54:
	.ascii	"/Users/yingyuhang/.cargo/registry/src/github.com-1ecc6299db9ec823/bit-matrix-0.6.0/src/util.rs"

	.section	__DATA,__const
	.p2align	3
l___unnamed_4:
	.quad	l___unnamed_54
	.asciz	"^\000\000\000\000\000\000\000\013\000\000\000\006\000\000"

	.section	__TEXT,__const
	.globl	__ZN10bit_matrix4TRUE17hba312109be1bd94eE
__ZN10bit_matrix4TRUE17hba312109be1bd94eE:
	.byte	1

	.globl	__ZN10bit_matrix5FALSE17hd3f7b703ac23795dE
__ZN10bit_matrix5FALSE17hd3f7b703ac23795dE:
	.space	1

l___unnamed_38:
	.ascii	"BitMatrix"

l___unnamed_39:
	.ascii	"bit_vec"

	.section	__DATA,__const
	.p2align	3
l___unnamed_40:
	.quad	__ZN4core3ptr13drop_in_place17h1782f8b239e7963bE
	.quad	8
	.quad	8
	.quad	__ZN42_$LT$$RF$T$u20$as$u20$core..fmt..Debug$GT$3fmt17hbc62bc784cd25791E

	.section	__TEXT,__literal8,8byte_literals
L___unnamed_41:
	.ascii	"row_bits"

	.section	__DATA,__const
	.p2align	3
l___unnamed_42:
	.quad	__ZN4core3ptr13drop_in_place17h1782f8b239e7963bE
	.quad	8
	.quad	8
	.quad	__ZN42_$LT$$RF$T$u20$as$u20$core..fmt..Debug$GT$3fmt17he938f0c572f63b2dE


.subsections_via_symbols
