	.section	__TEXT,__text,regular,pure_instructions
	.macosx_version_min 10, 7
	.p2align	4, 0x90
__ZN42_$LT$$RF$T$u20$as$u20$core..fmt..Debug$GT$3fmt17h3ad268f5db9b601aE:
	.cfi_startproc
	pushq	%rbp
	.cfi_def_cfa_offset 16
	.cfi_offset %rbp, -16
	movq	%rsp, %rbp
	.cfi_def_cfa_register %rbp
	pushq	%r14
	pushq	%rbx
	.cfi_offset %rbx, -32
	.cfi_offset %r14, -24
	movq	%rsi, %rbx
	movq	(%rdi), %r14
	movq	%rsi, %rdi
	callq	__ZN4core3fmt9Formatter15debug_lower_hex17hd07f6fde8d0365dfE
	testb	%al, %al
	je	LBB0_1
	movq	%r14, %rdi
	movq	%rbx, %rsi
	popq	%rbx
	popq	%r14
	popq	%rbp
	jmp	__ZN4core3fmt3num55_$LT$impl$u20$core..fmt..LowerHex$u20$for$u20$usize$GT$3fmt17hc47c170655f2f8b1E
LBB0_1:
	movq	%rbx, %rdi
	callq	__ZN4core3fmt9Formatter15debug_upper_hex17hf480c256a9c81c1eE
	movq	%r14, %rdi
	movq	%rbx, %rsi
	testb	%al, %al
	je	LBB0_4
	popq	%rbx
	popq	%r14
	popq	%rbp
	jmp	__ZN4core3fmt3num55_$LT$impl$u20$core..fmt..UpperHex$u20$for$u20$usize$GT$3fmt17he5a77a1ce12f6c22E
LBB0_4:
	popq	%rbx
	popq	%r14
	popq	%rbp
	jmp	__ZN4core3fmt3num3imp54_$LT$impl$u20$core..fmt..Display$u20$for$u20$usize$GT$3fmt17h12ea2856299c9b06E
	.cfi_endproc

	.p2align	4, 0x90
__ZN42_$LT$$RF$T$u20$as$u20$core..fmt..Debug$GT$3fmt17hf7cb0753115a00afE:
	.cfi_startproc
	pushq	%rbp
	.cfi_def_cfa_offset 16
	.cfi_offset %rbp, -16
	movq	%rsp, %rbp
	.cfi_def_cfa_register %rbp
	pushq	%r15
	pushq	%r14
	pushq	%r13
	pushq	%r12
	pushq	%rbx
	subq	$72, %rsp
	.cfi_offset %rbx, -56
	.cfi_offset %r12, -48
	.cfi_offset %r13, -40
	.cfi_offset %r14, -32
	.cfi_offset %r15, -24
	movq	%rsi, %r15
	movq	(%rdi), %rax
	movq	24(%rax), %rbx
	movq	(%rax), %r12
	movq	16(%rax), %r13
	xorl	%ecx, %ecx
	.p2align	4, 0x90
LBB1_1:
	cmpq	%rcx, %rbx
	je	LBB1_2
	movq	%rcx, %rax
	shrq	$5, %rax
	cmpq	%rax, %r13
	jbe	LBB1_7
	movl	(%r12,%rax,4), %eax
	leaq	1(%rcx), %r14
	xorl	%edx, %edx
	btl	%ecx, %eax
	setb	%dl
	movl	%edx, -44(%rbp)
	leaq	-44(%rbp), %rax
	movq	%rax, -64(%rbp)
	movq	__ZN4core3fmt3num3imp52_$LT$impl$u20$core..fmt..Display$u20$for$u20$i32$GT$3fmt17h00ed7ff77f9da654E@GOTPCREL(%rip), %rax
	movq	%rax, -56(%rbp)
	leaq	l___unnamed_1(%rip), %rax
	movq	%rax, -112(%rbp)
	movq	$1, -104(%rbp)
	movq	$0, -96(%rbp)
	leaq	-64(%rbp), %rax
	movq	%rax, -80(%rbp)
	movq	$1, -72(%rbp)
	movq	%r15, %rdi
	leaq	-112(%rbp), %rsi
	callq	__ZN4core3fmt9Formatter9write_fmt17h742ca6aae87ad23cE
	movq	%r14, %rcx
	testb	%al, %al
	je	LBB1_1
	movb	$1, %al
	jmp	LBB1_6
LBB1_2:
	xorl	%eax, %eax
LBB1_6:
	addq	$72, %rsp
	popq	%rbx
	popq	%r12
	popq	%r13
	popq	%r14
	popq	%r15
	popq	%rbp
	retq
LBB1_7:
	leaq	l___unnamed_2(%rip), %rdi
	leaq	l___unnamed_3(%rip), %rdx
	movl	$43, %esi
	callq	__ZN4core9panicking5panic17h383a6b80ea7021aaE
	.cfi_endproc

	.p2align	4, 0x90
__ZN4core3fmt3num52_$LT$impl$u20$core..fmt..Debug$u20$for$u20$usize$GT$3fmt17h3ce1e8eb3a3c5c0bE:
	.cfi_startproc
	pushq	%rbp
	.cfi_def_cfa_offset 16
	.cfi_offset %rbp, -16
	movq	%rsp, %rbp
	.cfi_def_cfa_register %rbp
	pushq	%r14
	pushq	%rbx
	.cfi_offset %rbx, -32
	.cfi_offset %r14, -24
	movq	%rsi, %rbx
	movq	%rdi, %r14
	movq	%rsi, %rdi
	callq	__ZN4core3fmt9Formatter15debug_lower_hex17hd07f6fde8d0365dfE
	testb	%al, %al
	je	LBB2_1
	movq	%r14, %rdi
	movq	%rbx, %rsi
	popq	%rbx
	popq	%r14
	popq	%rbp
	jmp	__ZN4core3fmt3num55_$LT$impl$u20$core..fmt..LowerHex$u20$for$u20$usize$GT$3fmt17hc47c170655f2f8b1E
LBB2_1:
	movq	%rbx, %rdi
	callq	__ZN4core3fmt9Formatter15debug_upper_hex17hf480c256a9c81c1eE
	movq	%r14, %rdi
	movq	%rbx, %rsi
	testb	%al, %al
	je	LBB2_4
	popq	%rbx
	popq	%r14
	popq	%rbp
	jmp	__ZN4core3fmt3num55_$LT$impl$u20$core..fmt..UpperHex$u20$for$u20$usize$GT$3fmt17he5a77a1ce12f6c22E
LBB2_4:
	popq	%rbx
	popq	%r14
	popq	%rbp
	jmp	__ZN4core3fmt3num3imp54_$LT$impl$u20$core..fmt..Display$u20$for$u20$usize$GT$3fmt17h12ea2856299c9b06E
	.cfi_endproc

	.p2align	4, 0x90
__ZN4core3ptr13drop_in_place17h430b8adce32fead3E:
	.cfi_startproc
	pushq	%rbp
	.cfi_def_cfa_offset 16
	.cfi_offset %rbp, -16
	movq	%rsp, %rbp
	.cfi_def_cfa_register %rbp
	popq	%rbp
	retq
	.cfi_endproc

	.globl	__ZN10bit_matrix6matrix9BitMatrix3new17h7818991880e828b6E
	.p2align	4, 0x90
__ZN10bit_matrix6matrix9BitMatrix3new17h7818991880e828b6E:
	.cfi_startproc
	pushq	%rbp
	.cfi_def_cfa_offset 16
	.cfi_offset %rbp, -16
	movq	%rsp, %rbp
	.cfi_def_cfa_register %rbp
	pushq	%r15
	pushq	%r14
	pushq	%r12
	pushq	%rbx
	.cfi_offset %rbx, -48
	.cfi_offset %r12, -40
	.cfi_offset %r14, -32
	.cfi_offset %r15, -24
	movq	%rdx, %rax
	addq	$32, %rax
	jb	LBB4_7
	movq	%rdx, %r14
	decq	%rax
	andq	$-32, %rax
	mulq	%rsi
	jo	LBB4_6
	movq	%rdi, %rbx
	movq	%rax, %r15
	testq	%rax, %rax
	je	LBB4_3
	movq	%r15, %r12
	shrq	$3, %r12
	movl	$4, %esi
	movq	%r12, %rdi
	callq	___rust_alloc_zeroed
	testq	%rax, %rax
	jne	LBB4_5
	movl	$4, %esi
	movq	%r12, %rdi
	callq	__ZN5alloc5alloc18handle_alloc_error17h28974197717b8939E
LBB4_3:
	movl	$4, %eax
LBB4_5:
	movq	%r15, %rcx
	shrq	$5, %rcx
	movq	%rax, (%rbx)
	movq	%rcx, 8(%rbx)
	movq	%rcx, 16(%rbx)
	movq	%r15, 24(%rbx)
	movq	%r14, 32(%rbx)
	movq	%rbx, %rax
	popq	%rbx
	popq	%r12
	popq	%r14
	popq	%r15
	popq	%rbp
	retq
LBB4_7:
	leaq	_str.5(%rip), %rdi
	leaq	l___unnamed_4(%rip), %rdx
	movl	$28, %esi
	callq	__ZN4core9panicking5panic17h383a6b80ea7021aaE
LBB4_6:
	leaq	_str.6(%rip), %rdi
	leaq	l___unnamed_5(%rip), %rdx
	movl	$33, %esi
	callq	__ZN4core9panicking5panic17h383a6b80ea7021aaE
	.cfi_endproc

	.globl	__ZN10bit_matrix6matrix9BitMatrix4size17hbc63ba4e25b24751E
	.p2align	4, 0x90
__ZN10bit_matrix6matrix9BitMatrix4size17hbc63ba4e25b24751E:
	.cfi_startproc
	pushq	%rbp
	.cfi_def_cfa_offset 16
	.cfi_offset %rbp, -16
	movq	%rsp, %rbp
	.cfi_def_cfa_register %rbp
	movq	32(%rdi), %rcx
	testq	%rcx, %rcx
	je	LBB5_1
	movq	%rcx, %rsi
	addq	$32, %rsi
	jb	LBB5_6
	decq	%rsi
	shrq	$5, %rsi
	je	LBB5_7
	movq	16(%rdi), %rax
	xorl	%edx, %edx
	divq	%rsi
	movq	%rcx, %rdx
	popq	%rbp
	retq
LBB5_1:
	xorl	%eax, %eax
	movq	%rcx, %rdx
	popq	%rbp
	retq
LBB5_6:
	leaq	_str.5(%rip), %rdi
	leaq	l___unnamed_4(%rip), %rdx
	movl	$28, %esi
	callq	__ZN4core9panicking5panic17h383a6b80ea7021aaE
LBB5_7:
	leaq	_str.3(%rip), %rdi
	leaq	l___unnamed_6(%rip), %rdx
	movl	$25, %esi
	callq	__ZN4core9panicking5panic17h383a6b80ea7021aaE
	.cfi_endproc

	.globl	__ZN10bit_matrix6matrix9BitMatrix4grow17h37af17338530fdf4E
	.p2align	4, 0x90
__ZN10bit_matrix6matrix9BitMatrix4grow17h37af17338530fdf4E:
	.cfi_startproc
	pushq	%rbp
	.cfi_def_cfa_offset 16
	.cfi_offset %rbp, -16
	movq	%rsp, %rbp
	.cfi_def_cfa_register %rbp
	pushq	%r15
	pushq	%r14
	pushq	%r13
	pushq	%r12
	pushq	%rbx
	pushq	%rax
	.cfi_offset %rbx, -56
	.cfi_offset %r12, -48
	.cfi_offset %r13, -40
	.cfi_offset %r14, -32
	.cfi_offset %r15, -24
	movq	32(%rdi), %rax
	addq	$32, %rax
	jb	LBB6_62
	movl	%edx, %r8d
	decq	%rax
	andq	$-32, %rax
	mulq	%rsi
	jo	LBB6_61
	movq	%rdi, %r15
	movq	%rax, %r14
	movq	24(%rdi), %rcx
	addq	%rcx, %r14
	jb	LBB6_63
	xorl	%r13d, %r13d
	movq	%r14, %r10
	andq	$31, %r10
	setne	%dl
	xorl	%edi, %edi
	testb	$31, %cl
	setne	%dil
	movq	%rcx, %rax
	shrq	$5, %rax
	addq	%rax, %rdi
	testb	$31, %cl
	je	LBB6_8
	negb	%cl
	movl	$-1, %ebx
	shrl	%cl, %ebx
	testb	%r8b, %r8b
	je	LBB6_8
	movq	%rdi, %rax
	subq	$1, %rax
	jb	LBB6_57
	movq	16(%r15), %rsi
	cmpq	%rax, %rsi
	jbe	LBB6_64
	movq	(%r15), %rcx
	notl	%ebx
	orl	%ebx, (%rcx,%rax,4)
LBB6_8:
	movq	%r14, %rax
	shrq	$5, %rax
	movb	%dl, %r13b
	addq	%rax, %r13
	movzbl	%r8b, %r12d
	negl	%r12d
	movq	16(%r15), %rsi
	cmpq	%r13, %rsi
	movq	%rsi, %rax
	cmovaq	%r13, %rax
	cmpq	%rax, %rdi
	jae	LBB6_10
	.p2align	4, 0x90
LBB6_20:
	cmpq	%rdi, %rsi
	jbe	LBB6_65
	movq	(%r15), %rcx
	movl	%r12d, (%rcx,%rdi,4)
	incq	%rdi
	movq	16(%r15), %rsi
	cmpq	%rax, %rdi
	jb	LBB6_20
LBB6_10:
	subq	%rsi, %r13
	jbe	LBB6_52
	jb	LBB6_58
	movq	8(%r15), %rcx
	movq	%rcx, %rax
	subq	%rsi, %rax
	cmpq	%r13, %rax
	jae	LBB6_35
	movq	%rsi, %rax
	addq	%r13, %rax
	jb	LBB6_33
	leaq	(%rcx,%rcx), %rdx
	cmpq	%rax, %rdx
	cmovaq	%rdx, %rax
	cmpq	$4, %rax
	movl	$4, %edx
	cmovbeq	%rdx, %rax
	xorl	%r8d, %r8d
	mulq	%rdx
	movq	%rax, %r9
	seto	%bl
	setno	%dl
	movq	%rcx, %rax
	testq	%rcx, %rcx
	je	LBB6_16
	movq	(%r15), %rax
LBB6_16:
	testb	%bl, %bl
	jne	LBB6_33
	testq	%rax, %rax
	je	LBB6_18
	shlq	$2, %rcx
	cmpq	%r9, %rcx
	je	LBB6_30
	testq	%rcx, %rcx
	je	LBB6_25
	movl	$4, %edx
	movq	%rax, %rdi
	movq	%rcx, %rsi
	movq	%r9, %rcx
	movq	%r10, -48(%rbp)
	movq	%r9, %rbx
	callq	___rust_realloc
	jmp	LBB6_29
LBB6_35:
	testq	%r13, %r13
	je	LBB6_51
	movq	(%r15), %rax
	leaq	(%rax,%rsi,4), %r9
	cmpq	$8, %r13
	jb	LBB6_38
LBB6_39:
	movq	%r13, %r8
	andq	$-8, %r8
	movd	%r12d, %xmm0
	pshufd	$0, %xmm0, %xmm0
	leaq	-8(%r8), %rcx
	movq	%rcx, %rdi
	shrq	$3, %rdi
	incq	%rdi
	movl	%edi, %edx
	andl	$7, %edx
	cmpq	$56, %rcx
	jae	LBB6_41
	xorl	%ecx, %ecx
	jmp	LBB6_43
LBB6_41:
	subq	%rdx, %rdi
	leaq	240(%rax,%rsi,4), %rbx
	xorl	%ecx, %ecx
	.p2align	4, 0x90
LBB6_42:
	movdqu	%xmm0, -240(%rbx,%rcx,4)
	movdqu	%xmm0, -224(%rbx,%rcx,4)
	movdqu	%xmm0, -208(%rbx,%rcx,4)
	movdqu	%xmm0, -192(%rbx,%rcx,4)
	movdqu	%xmm0, -176(%rbx,%rcx,4)
	movdqu	%xmm0, -160(%rbx,%rcx,4)
	movdqu	%xmm0, -144(%rbx,%rcx,4)
	movdqu	%xmm0, -128(%rbx,%rcx,4)
	movdqu	%xmm0, -112(%rbx,%rcx,4)
	movdqu	%xmm0, -96(%rbx,%rcx,4)
	movdqu	%xmm0, -80(%rbx,%rcx,4)
	movdqu	%xmm0, -64(%rbx,%rcx,4)
	movdqu	%xmm0, -48(%rbx,%rcx,4)
	movdqu	%xmm0, -32(%rbx,%rcx,4)
	movdqu	%xmm0, -16(%rbx,%rcx,4)
	movdqu	%xmm0, (%rbx,%rcx,4)
	addq	$64, %rcx
	addq	$-8, %rdi
	jne	LBB6_42
LBB6_43:
	testq	%rdx, %rdx
	je	LBB6_46
	addq	%rsi, %rcx
	leaq	16(%rax,%rcx,4), %rax
	negq	%rdx
	.p2align	4, 0x90
LBB6_45:
	movdqu	%xmm0, -16(%rax)
	movdqu	%xmm0, (%rax)
	addq	$32, %rax
	incq	%rdx
	jne	LBB6_45
LBB6_46:
	cmpq	%r8, %r13
	je	LBB6_50
	movl	%r13d, %eax
	andl	$7, %eax
	leaq	(%r9,%r8,4), %r9
	jmp	LBB6_48
LBB6_18:
	movb	%dl, %r8b
	shlq	$2, %r8
	testq	%r9, %r9
	je	LBB6_22
	movq	%r9, %rdi
	movq	%r8, %rsi
	movq	%r10, -48(%rbp)
	movq	%r9, %rbx
	callq	___rust_alloc
LBB6_29:
	movq	%rbx, %r9
	movq	-48(%rbp), %r10
	jmp	LBB6_30
LBB6_22:
	movq	%r8, %rax
	jmp	LBB6_30
LBB6_25:
	testq	%r9, %r9
	je	LBB6_26
	movl	$4, %esi
	movq	%r9, %rdi
	movq	%r10, %rbx
	movq	%r9, -48(%rbp)
	callq	___rust_alloc
	movq	-48(%rbp), %r9
	movq	%rbx, %r10
LBB6_30:
	testq	%rax, %rax
	je	LBB6_34
	movq	16(%r15), %rsi
LBB6_32:
	movq	%rax, (%r15)
	shrq	$2, %r9
	movq	%r9, 8(%r15)
	leaq	(%rax,%rsi,4), %r9
	cmpq	$8, %r13
	jae	LBB6_39
LBB6_38:
	movq	%r13, %rax
LBB6_48:
	xorl	%ecx, %ecx
	.p2align	4, 0x90
LBB6_49:
	movl	%r12d, (%r9,%rcx,4)
	incq	%rcx
	cmpq	%rcx, %rax
	jne	LBB6_49
LBB6_50:
	addq	%r13, %rsi
LBB6_51:
	movq	%rsi, 16(%r15)
LBB6_52:
	movq	%r14, 24(%r15)
	testq	%r10, %r10
	je	LBB6_60
	movl	$-1, %eax
	movl	%r10d, %ecx
	shll	%cl, %eax
	movq	%rsi, %rdi
	subq	$1, %rdi
	jb	LBB6_56
	cmpq	%rdi, %rsi
	jbe	LBB6_55
	notl	%eax
	movq	(%r15), %rcx
	andl	%eax, (%rcx,%rdi,4)
LBB6_60:
	addq	$8, %rsp
	popq	%rbx
	popq	%r12
	popq	%r13
	popq	%r14
	popq	%r15
	popq	%rbp
	retq
LBB6_26:
	movl	$4, %eax
	jmp	LBB6_32
LBB6_65:
	leaq	l___unnamed_7(%rip), %rdx
	callq	__ZN4core9panicking18panic_bounds_check17he87128426d100e93E
LBB6_62:
	leaq	_str.5(%rip), %rdi
	leaq	l___unnamed_4(%rip), %rdx
	movl	$28, %esi
	callq	__ZN4core9panicking5panic17h383a6b80ea7021aaE
LBB6_61:
	leaq	_str.6(%rip), %rdi
	leaq	l___unnamed_8(%rip), %rdx
	movl	$33, %esi
	callq	__ZN4core9panicking5panic17h383a6b80ea7021aaE
LBB6_63:
	leaq	l___unnamed_9(%rip), %rdi
	leaq	l___unnamed_10(%rip), %rdx
	movl	$17, %esi
	callq	__ZN4core6option13expect_failed17h7591ba70e88f159aE
LBB6_56:
	leaq	_str.0(%rip), %rdi
	leaq	l___unnamed_11(%rip), %rdx
	movl	$33, %esi
	callq	__ZN4core9panicking5panic17h383a6b80ea7021aaE
LBB6_55:
	leaq	l___unnamed_12(%rip), %rdx
	callq	__ZN4core9panicking18panic_bounds_check17he87128426d100e93E
LBB6_58:
	leaq	_str.0(%rip), %rdi
	leaq	l___unnamed_13(%rip), %rdx
	movl	$33, %esi
	callq	__ZN4core9panicking5panic17h383a6b80ea7021aaE
LBB6_33:
	callq	__ZN5alloc7raw_vec17capacity_overflow17h7526b10e27579d59E
LBB6_57:
	leaq	_str.0(%rip), %rdi
	leaq	l___unnamed_14(%rip), %rdx
	movl	$33, %esi
	callq	__ZN4core9panicking5panic17h383a6b80ea7021aaE
LBB6_64:
	leaq	l___unnamed_15(%rip), %rdx
	movq	%rax, %rdi
	callq	__ZN4core9panicking18panic_bounds_check17he87128426d100e93E
LBB6_34:
	movl	$4, %esi
	movq	%r9, %rdi
	callq	__ZN5alloc5alloc18handle_alloc_error17h28974197717b8939E
	.cfi_endproc

	.globl	__ZN10bit_matrix6matrix9BitMatrix8truncate17hdc177b83335ef90dE
	.p2align	4, 0x90
__ZN10bit_matrix6matrix9BitMatrix8truncate17hdc177b83335ef90dE:
	.cfi_startproc
	pushq	%rbp
	.cfi_def_cfa_offset 16
	.cfi_offset %rbp, -16
	movq	%rsp, %rbp
	.cfi_def_cfa_register %rbp
	movq	32(%rdi), %rax
	addq	$32, %rax
	jb	LBB7_7
	decq	%rax
	andq	$-32, %rax
	mulq	%rsi
	jo	LBB7_6
	cmpq	%rax, 24(%rdi)
	jbe	LBB7_5
	movq	%rax, 24(%rdi)
	shrq	$5, %rax
	cmpq	%rax, 16(%rdi)
	jb	LBB7_5
	movq	%rax, 16(%rdi)
LBB7_5:
	popq	%rbp
	retq
LBB7_7:
	leaq	_str.5(%rip), %rdi
	leaq	l___unnamed_4(%rip), %rdx
	movl	$28, %esi
	callq	__ZN4core9panicking5panic17h383a6b80ea7021aaE
LBB7_6:
	leaq	_str.6(%rip), %rdi
	leaq	l___unnamed_16(%rip), %rdx
	movl	$33, %esi
	callq	__ZN4core9panicking5panic17h383a6b80ea7021aaE
	.cfi_endproc

	.globl	__ZN10bit_matrix6matrix9BitMatrix8iter_row17hb61e94384f651061E
	.p2align	4, 0x90
__ZN10bit_matrix6matrix9BitMatrix8iter_row17hb61e94384f651061E:
	.cfi_startproc
	pushq	%rbp
	.cfi_def_cfa_offset 16
	.cfi_offset %rbp, -16
	movq	%rsp, %rbp
	.cfi_def_cfa_register %rbp
	movq	%rdi, %r10
	movq	32(%rsi), %r9
	movq	%r9, %rdi
	addq	$32, %rdi
	jb	LBB8_10
	movq	%rdx, %rcx
	decq	%rdi
	shrq	$5, %rdi
	movq	%rdx, %rax
	mulq	%rdi
	jo	LBB8_8
	incq	%rcx
	je	LBB8_7
	movq	%rax, %r8
	movq	%rcx, %rax
	mulq	%rdi
	jo	LBB8_8
	cmpq	%r8, %rax
	jb	LBB8_11
	movq	16(%rsi), %rcx
	cmpq	%rax, %rcx
	jb	LBB8_6
	movq	(%rsi), %rcx
	leaq	(%rcx,%r8,4), %rcx
	subq	%r8, %rax
	movq	%rcx, (%r10)
	movq	%rax, 8(%r10)
	movq	$0, 16(%r10)
	movq	%r9, 24(%r10)
	movq	%r10, %rax
	popq	%rbp
	retq
LBB8_8:
	leaq	_str.6(%rip), %rdi
	leaq	l___unnamed_17(%rip), %rdx
	movl	$33, %esi
	callq	__ZN4core9panicking5panic17h383a6b80ea7021aaE
LBB8_10:
	leaq	_str.5(%rip), %rdi
	leaq	l___unnamed_4(%rip), %rdx
	movl	$28, %esi
	callq	__ZN4core9panicking5panic17h383a6b80ea7021aaE
LBB8_7:
	leaq	_str.5(%rip), %rdi
	leaq	l___unnamed_17(%rip), %rdx
	movl	$28, %esi
	callq	__ZN4core9panicking5panic17h383a6b80ea7021aaE
LBB8_11:
	leaq	l___unnamed_17(%rip), %rdx
	movq	%r8, %rdi
	movq	%rax, %rsi
	callq	__ZN4core5slice22slice_index_order_fail17h65298a4d6b795c79E
LBB8_6:
	leaq	l___unnamed_17(%rip), %rdx
	movq	%rax, %rdi
	movq	%rcx, %rsi
	callq	__ZN4core5slice24slice_end_index_len_fail17hea9e3399ed430f80E
	.cfi_endproc

	.globl	__ZN10bit_matrix6matrix9BitMatrix18transitive_closure17h2121b793353cfa34E
	.p2align	4, 0x90
__ZN10bit_matrix6matrix9BitMatrix18transitive_closure17h2121b793353cfa34E:
	.cfi_startproc
	pushq	%rbp
	.cfi_def_cfa_offset 16
	.cfi_offset %rbp, -16
	movq	%rsp, %rbp
	.cfi_def_cfa_register %rbp
	pushq	%r15
	pushq	%r14
	pushq	%r13
	pushq	%r12
	pushq	%rbx
	subq	$200, %rsp
	.cfi_offset %rbx, -56
	.cfi_offset %r12, -48
	.cfi_offset %r13, -40
	.cfi_offset %r14, -32
	.cfi_offset %r15, -24
	movq	32(%rdi), %r13
	testq	%r13, %r13
	je	LBB9_1
	movq	%r13, %rcx
	addq	$32, %rcx
	jb	LBB9_43
	decq	%rcx
	shrq	$5, %rcx
	je	LBB9_56
	movq	16(%rdi), %rax
	xorl	%edx, %edx
	divq	%rcx
	jmp	LBB9_5
LBB9_1:
	xorl	%eax, %eax
LBB9_5:
	leaq	32(%rdi), %rcx
	movq	%rcx, -56(%rbp)
	movq	%rax, -136(%rbp)
	cmpq	%r13, %rax
	jne	LBB9_11
	testq	%r13, %r13
	je	LBB9_12
	leaq	32(%r13), %r14
	movl	$1, %esi
	xorl	%r11d, %r11d
	leaq	__ZN10bit_matrix5FALSE17h17bb87967a282e60E(%rip), %r15
	xorl	%ecx, %ecx
	movl	$1, %r9d
	movq	%rdi, -72(%rbp)
	movq	%r13, -64(%rbp)
	.p2align	4, 0x90
LBB9_8:
	decq	%r14
	shrq	$5, %r14
	movq	%rcx, %rax
	mulq	%r14
	jo	LBB9_26
	movq	%rax, %rbx
	movq	16(%rdi), %r10
	cmpq	%rax, %r10
	jb	LBB9_10
	movq	%rsi, %rax
	mulq	%r14
	jo	LBB9_17
	movq	%rax, %r8
	cmpq	%rbx, %rax
	jb	LBB9_55
	cmpq	%r8, %r10
	jb	LBB9_16
	movq	(%rdi), %r12
	testq	%r9, %r9
	je	LBB9_19
	testq	%r14, %r14
	je	LBB9_56
	movq	%r10, %rax
	xorl	%edx, %edx
	divq	%r14
	mulq	%r14
	jno	LBB9_23
	jmp	LBB9_26
	.p2align	4, 0x90
LBB9_19:
	xorl	%eax, %eax
	mulq	%r14
	jo	LBB9_26
LBB9_23:
	cmpq	%r8, %rax
	jb	LBB9_57
	cmpq	%rax, %r10
	jb	LBB9_25
	movq	%rsi, -96(%rbp)
	testq	%r14, %r14
	je	LBB9_58
	leaq	(,%rcx,4), %rdx
	leaq	(%r12,%rbx,4), %rsi
	leaq	(%r12,%r8,4), %r13
	subq	%r8, %rax
	movq	%rcx, %r9
	movl	$1, %edi
	movq	%rcx, -80(%rbp)
	shll	%cl, %edi
	movl	%edi, -44(%rbp)
	shrq	$5, %r9
	movq	%r13, %rcx
	movq	%rsi, -104(%rbp)
	subq	%rsi, %rcx
	shrq	$2, %rcx
	movq	%rcx, -128(%rbp)
	imulq	%r14, %rdx
	addq	%r12, %rdx
	movq	%rdx, -120(%rbp)
	movq	%r11, -88(%rbp)
	movq	%r11, %r8
	imulq	%r14, %r8
	leaq	48(%r12,%r8), %r10
	addq	%r12, %r8
	.p2align	4, 0x90
LBB9_29:
	testq	%r12, %r12
	je	LBB9_38
	testq	%rbx, %rbx
	je	LBB9_38
	cmpq	%r14, %rbx
	movq	%rbx, %rdi
	cmovaq	%r14, %rdi
	movq	%r12, %r11
	leaq	(%r12,%rdi,4), %r12
	subq	%rdi, %rbx
	movq	%r15, %rdx
	cmpq	%rdi, %r9
	jae	LBB9_34
LBB9_33:
	movl	-44(%rbp), %ecx
	testl	%ecx, (%r11,%r9,4)
	leaq	__ZN10bit_matrix4TRUE17h94130dc4457bb568E(%rip), %rdx
	cmoveq	%r15, %rdx
LBB9_34:
	cmpb	$0, (%rdx)
	je	LBB9_29
	movq	-128(%rbp), %rcx
	cmpq	%rcx, %rdi
	cmovaq	%rcx, %rdi
	testq	%rdi, %rdi
	je	LBB9_29
	cmpq	$8, %rdi
	jae	LBB9_44
	xorl	%esi, %esi
	jmp	LBB9_54
	.p2align	4, 0x90
LBB9_38:
	testq	%r13, %r13
	je	LBB9_41
	testq	%rax, %rax
	je	LBB9_41
	cmpq	%r14, %rax
	movq	%rax, %rdi
	cmovaq	%r14, %rdi
	movq	%r13, %r11
	leaq	(%r13,%rdi,4), %r13
	subq	%rdi, %rax
	xorl	%r12d, %r12d
	movq	%r15, %rdx
	cmpq	%rdi, %r9
	jb	LBB9_33
	jmp	LBB9_34
LBB9_44:
	movq	-120(%rbp), %rcx
	leaq	(%rcx,%rdi,4), %rdx
	cmpq	%r11, %rdx
	jbe	LBB9_47
	leaq	(%r11,%rdi,4), %rdx
	cmpq	%rdx, %rcx
	jae	LBB9_47
	xorl	%esi, %esi
	jmp	LBB9_54
LBB9_47:
	movq	%rdi, %rsi
	movabsq	$4611686018427387896, %rcx
	andq	%rcx, %rsi
	leaq	-8(%rsi), %r15
	movq	%r15, %rdx
	shrq	$3, %rdx
	incq	%rdx
	movl	%edx, %ecx
	andl	$1, %ecx
	testq	%r15, %r15
	movq	%rcx, -112(%rbp)
	je	LBB9_48
	movq	%rcx, %r15
	subq	%rdx, %r15
	xorl	%edx, %edx
	.p2align	4, 0x90
LBB9_50:
	movups	-48(%r10,%rdx,4), %xmm0
	movups	-32(%r10,%rdx,4), %xmm1
	movups	(%r11,%rdx,4), %xmm2
	orps	%xmm0, %xmm2
	movups	16(%r11,%rdx,4), %xmm0
	orps	%xmm1, %xmm0
	movups	32(%r11,%rdx,4), %xmm1
	movups	48(%r11,%rdx,4), %xmm3
	movups	%xmm2, (%r11,%rdx,4)
	movups	%xmm0, 16(%r11,%rdx,4)
	movups	-16(%r10,%rdx,4), %xmm0
	orps	%xmm1, %xmm0
	movups	(%r10,%rdx,4), %xmm1
	orps	%xmm3, %xmm1
	movups	%xmm0, 32(%r11,%rdx,4)
	movups	%xmm1, 48(%r11,%rdx,4)
	addq	$16, %rdx
	addq	$2, %r15
	jne	LBB9_50
	cmpq	$0, -112(%rbp)
	je	LBB9_53
LBB9_52:
	movq	-104(%rbp), %rcx
	movups	(%rcx,%rdx,4), %xmm0
	movups	16(%rcx,%rdx,4), %xmm1
	movups	(%r11,%rdx,4), %xmm2
	orps	%xmm0, %xmm2
	movups	16(%r11,%rdx,4), %xmm0
	orps	%xmm1, %xmm0
	movups	%xmm2, (%r11,%rdx,4)
	movups	%xmm0, 16(%r11,%rdx,4)
LBB9_53:
	cmpq	%rsi, %rdi
	leaq	__ZN10bit_matrix5FALSE17h17bb87967a282e60E(%rip), %r15
	je	LBB9_29
	.p2align	4, 0x90
LBB9_54:
	movl	(%r8,%rsi,4), %ecx
	orl	%ecx, (%r11,%rsi,4)
	incq	%rsi
	cmpq	%rdi, %rsi
	jb	LBB9_54
	jmp	LBB9_29
LBB9_48:
	xorl	%edx, %edx
	cmpq	$0, -112(%rbp)
	jne	LBB9_52
	jmp	LBB9_53
	.p2align	4, 0x90
LBB9_41:
	movq	-64(%rbp), %r13
	movq	-96(%rbp), %rsi
	cmpq	%r13, %rsi
	movq	-72(%rbp), %rdi
	je	LBB9_12
	movq	-56(%rbp), %rax
	movq	(%rax), %r9
	incq	%rsi
	movq	-80(%rbp), %rcx
	incq	%rcx
	movq	-88(%rbp), %r11
	addq	$4, %r11
	movq	%r9, %r14
	addq	$32, %r14
	jae	LBB9_8
LBB9_43:
	leaq	_str.5(%rip), %rdi
	leaq	l___unnamed_4(%rip), %rdx
	movl	$28, %esi
	callq	__ZN4core9panicking5panic17h383a6b80ea7021aaE
LBB9_12:
	addq	$200, %rsp
	popq	%rbx
	popq	%r12
	popq	%r13
	popq	%r14
	popq	%r15
	popq	%rbp
	retq
LBB9_26:
	leaq	_str.6(%rip), %rdi
	leaq	l___unnamed_18(%rip), %rdx
	movl	$33, %esi
	callq	__ZN4core9panicking5panic17h383a6b80ea7021aaE
LBB9_10:
	leaq	l___unnamed_19(%rip), %rdx
	movq	%rbx, %rdi
	movq	%r10, %rsi
	callq	__ZN4core5slice24slice_end_index_len_fail17hea9e3399ed430f80E
LBB9_17:
	leaq	_str.6(%rip), %rdi
	leaq	l___unnamed_20(%rip), %rdx
	movl	$33, %esi
	callq	__ZN4core9panicking5panic17h383a6b80ea7021aaE
LBB9_55:
	leaq	l___unnamed_20(%rip), %rdx
	movq	%rbx, %rdi
	movq	%r8, %rsi
	callq	__ZN4core5slice22slice_index_order_fail17h65298a4d6b795c79E
LBB9_16:
	leaq	l___unnamed_20(%rip), %rdx
	movq	%r8, %rdi
	movq	%r10, %rsi
	callq	__ZN4core5slice24slice_end_index_len_fail17hea9e3399ed430f80E
LBB9_57:
	leaq	l___unnamed_19(%rip), %rdx
	movq	%r8, %rdi
	movq	%rax, %rsi
	callq	__ZN4core5slice22slice_index_order_fail17h65298a4d6b795c79E
LBB9_25:
	leaq	l___unnamed_19(%rip), %rdx
	movq	%rax, %rdi
	movq	%r10, %rsi
	callq	__ZN4core5slice24slice_end_index_len_fail17hea9e3399ed430f80E
LBB9_58:
	leaq	l___unnamed_21(%rip), %rdi
	leaq	l___unnamed_22(%rip), %rdx
	movl	$33, %esi
	callq	__ZN4core9panicking5panic17h383a6b80ea7021aaE
LBB9_56:
	leaq	_str.3(%rip), %rdi
	leaq	l___unnamed_6(%rip), %rdx
	movl	$25, %esi
	callq	__ZN4core9panicking5panic17h383a6b80ea7021aaE
LBB9_11:
	leaq	-136(%rbp), %rax
	movq	%rax, -144(%rbp)
	movq	-56(%rbp), %rax
	movq	%rax, -152(%rbp)
	leaq	-144(%rbp), %rax
	movq	%rax, -184(%rbp)
	leaq	__ZN42_$LT$$RF$T$u20$as$u20$core..fmt..Debug$GT$3fmt17h3ad268f5db9b601aE(%rip), %rax
	movq	%rax, -176(%rbp)
	leaq	-152(%rbp), %rcx
	movq	%rcx, -168(%rbp)
	movq	%rax, -160(%rbp)
	leaq	l___unnamed_23(%rip), %rax
	movq	%rax, -232(%rbp)
	movq	$3, -224(%rbp)
	movq	$0, -216(%rbp)
	leaq	-184(%rbp), %rax
	movq	%rax, -200(%rbp)
	movq	$2, -192(%rbp)
	leaq	l___unnamed_24(%rip), %rsi
	leaq	-232(%rbp), %rdi
	callq	__ZN4core9panicking9panic_fmt17hfce5b7173905fc53E
	.cfi_endproc

	.globl	__ZN10bit_matrix6matrix9BitMatrix17reflexive_closure17hbe3db4775126db93E
	.p2align	4, 0x90
__ZN10bit_matrix6matrix9BitMatrix17reflexive_closure17hbe3db4775126db93E:
	.cfi_startproc
	pushq	%rbp
	.cfi_def_cfa_offset 16
	.cfi_offset %rbp, -16
	movq	%rsp, %rbp
	.cfi_def_cfa_register %rbp
	subq	$96, %rsp
	movq	32(%rdi), %rcx
	testq	%rcx, %rcx
	je	LBB10_1
	movq	%rcx, %rsi
	addq	$32, %rsi
	jb	LBB10_19
	decq	%rsi
	shrq	$5, %rsi
	je	LBB10_20
	movq	16(%rdi), %rax
	xorl	%edx, %edx
	divq	%rsi
	movq	%rax, %r8
	cmpq	%r8, %rcx
	cmovbeq	%rcx, %r8
	testq	%r8, %r8
	jne	LBB10_6
	jmp	LBB10_13
LBB10_1:
	xorl	%r8d, %r8d
	cmpq	%r8, %rcx
	cmovbeq	%rcx, %r8
	testq	%r8, %r8
	je	LBB10_13
LBB10_6:
	addq	$32, %rcx
	jb	LBB10_19
	leaq	24(%rdi), %r11
	xorl	%r9d, %r9d
	.p2align	4, 0x90
LBB10_8:
	decq	%rcx
	andq	$-32, %rcx
	movq	%r9, %rax
	mulq	%rcx
	jo	LBB10_15
	addq	%r9, %rax
	jb	LBB10_16
	movq	%rax, -8(%rbp)
	cmpq	%rax, (%r11)
	jbe	LBB10_14
	movq	%rax, %r10
	shrq	$5, %r10
	movq	16(%rdi), %rsi
	cmpq	%r10, %rsi
	jbe	LBB10_12
	movl	$1, %edx
	movl	%eax, %ecx
	shll	%cl, %edx
	movq	(%rdi), %rax
	orl	%edx, (%rax,%r10,4)
	incq	%r9
	cmpq	%r8, %r9
	jae	LBB10_13
	movq	32(%rdi), %rcx
	addq	$32, %rcx
	jae	LBB10_8
LBB10_19:
	leaq	_str.5(%rip), %rdi
	leaq	l___unnamed_4(%rip), %rdx
	movl	$28, %esi
	callq	__ZN4core9panicking5panic17h383a6b80ea7021aaE
LBB10_13:
	addq	$96, %rsp
	popq	%rbp
	retq
LBB10_15:
	leaq	_str.6(%rip), %rdi
	leaq	l___unnamed_25(%rip), %rdx
	movl	$33, %esi
	callq	__ZN4core9panicking5panic17h383a6b80ea7021aaE
LBB10_16:
	leaq	_str.5(%rip), %rdi
	leaq	l___unnamed_25(%rip), %rdx
	movl	$28, %esi
	callq	__ZN4core9panicking5panic17h383a6b80ea7021aaE
LBB10_14:
	leaq	-8(%rbp), %rax
	movq	%rax, -40(%rbp)
	leaq	__ZN4core3fmt3num52_$LT$impl$u20$core..fmt..Debug$u20$for$u20$usize$GT$3fmt17h3ce1e8eb3a3c5c0bE(%rip), %rax
	movq	%rax, -32(%rbp)
	movq	%r11, -24(%rbp)
	movq	%rax, -16(%rbp)
	leaq	l___unnamed_26(%rip), %rax
	movq	%rax, -88(%rbp)
	movq	$2, -80(%rbp)
	movq	$0, -72(%rbp)
	leaq	-40(%rbp), %rax
	movq	%rax, -56(%rbp)
	movq	$2, -48(%rbp)
	leaq	l___unnamed_27(%rip), %rsi
	leaq	-88(%rbp), %rdi
	callq	__ZN3std9panicking15begin_panic_fmt17h8712912d987f10a1E
LBB10_12:
	leaq	l___unnamed_28(%rip), %rdx
	movq	%r10, %rdi
	callq	__ZN4core9panicking18panic_bounds_check17he87128426d100e93E
LBB10_20:
	leaq	_str.3(%rip), %rdi
	leaq	l___unnamed_6(%rip), %rdx
	movl	$25, %esi
	callq	__ZN4core9panicking5panic17h383a6b80ea7021aaE
	.cfi_endproc

	.globl	__ZN80_$LT$bit_matrix..row..Iter$u20$as$u20$core..iter..traits..iterator..Iterator$GT$9size_hint17hacbe43c761fb7c78E
	.p2align	4, 0x90
__ZN80_$LT$bit_matrix..row..Iter$u20$as$u20$core..iter..traits..iterator..Iterator$GT$9size_hint17hacbe43c761fb7c78E:
	.cfi_startproc
	pushq	%rbp
	.cfi_def_cfa_offset 16
	.cfi_offset %rbp, -16
	movq	%rsp, %rbp
	.cfi_def_cfa_register %rbp
	movq	24(%rsi), %rax
	xorl	%ecx, %ecx
	subq	16(%rsi), %rax
	cmovaeq	%rax, %rcx
	movq	%rdi, %rax
	movq	%rcx, (%rdi)
	movq	$1, 8(%rdi)
	movq	%rcx, 16(%rdi)
	popq	%rbp
	retq
	.cfi_endproc

	.globl	__ZN10bit_matrix9submatrix12BitSubMatrix3new17h0f9a867f8dba4017E
	.p2align	4, 0x90
__ZN10bit_matrix9submatrix12BitSubMatrix3new17h0f9a867f8dba4017E:
	.cfi_startproc
	pushq	%rbp
	.cfi_def_cfa_offset 16
	.cfi_offset %rbp, -16
	movq	%rsp, %rbp
	.cfi_def_cfa_register %rbp
	movq	%rdi, %rax
	movq	%rsi, (%rdi)
	movq	%rdx, 8(%rdi)
	movq	%rcx, 16(%rdi)
	popq	%rbp
	retq
	.cfi_endproc

	.globl	__ZN10bit_matrix9submatrix12BitSubMatrix4iter17h1bcc07fb1ce91a90E
	.p2align	4, 0x90
__ZN10bit_matrix9submatrix12BitSubMatrix4iter17h1bcc07fb1ce91a90E:
	.cfi_startproc
	pushq	%rbp
	.cfi_def_cfa_offset 16
	.cfi_offset %rbp, -16
	movq	%rsp, %rbp
	.cfi_def_cfa_register %rbp
	movq	16(%rsi), %rcx
	addq	$32, %rcx
	jb	LBB13_3
	decq	%rcx
	shrq	$5, %rcx
	je	LBB13_4
	movq	%rdi, %rax
	movups	(%rsi), %xmm0
	movups	%xmm0, (%rdi)
	movq	%rcx, 16(%rdi)
	leaq	__ZN10bit_matrix9submatrix12BitSubMatrix4iter1f17h430667fbc0e2b9efE(%rip), %rcx
	movq	%rcx, 24(%rdi)
	popq	%rbp
	retq
LBB13_3:
	leaq	_str.5(%rip), %rdi
	leaq	l___unnamed_4(%rip), %rdx
	movl	$28, %esi
	callq	__ZN4core9panicking5panic17h383a6b80ea7021aaE
LBB13_4:
	leaq	l___unnamed_21(%rip), %rdi
	leaq	l___unnamed_22(%rip), %rdx
	movl	$33, %esi
	callq	__ZN4core9panicking5panic17h383a6b80ea7021aaE
	.cfi_endproc

	.p2align	4, 0x90
__ZN10bit_matrix9submatrix12BitSubMatrix4iter1f17h430667fbc0e2b9efE:
	.cfi_startproc
	pushq	%rbp
	.cfi_def_cfa_offset 16
	.cfi_offset %rbp, -16
	movq	%rsp, %rbp
	.cfi_def_cfa_register %rbp
	movq	%rsi, %rdx
	movq	%rdi, %rax
	popq	%rbp
	retq
	.cfi_endproc

	.globl	__ZN10bit_matrix9submatrix15BitSubMatrixMut3new17h4dd0c38374c7d602E
	.p2align	4, 0x90
__ZN10bit_matrix9submatrix15BitSubMatrixMut3new17h4dd0c38374c7d602E:
	.cfi_startproc
	pushq	%rbp
	.cfi_def_cfa_offset 16
	.cfi_offset %rbp, -16
	movq	%rsp, %rbp
	.cfi_def_cfa_register %rbp
	movq	%rdi, %rax
	movq	%rsi, (%rdi)
	movq	%rdx, 8(%rdi)
	movq	%rcx, 16(%rdi)
	popq	%rbp
	retq
	.cfi_endproc

	.globl	__ZN10bit_matrix9submatrix15BitSubMatrixMut18transitive_closure17hf2c48424a3732111E
	.p2align	4, 0x90
__ZN10bit_matrix9submatrix15BitSubMatrixMut18transitive_closure17hf2c48424a3732111E:
	.cfi_startproc
	pushq	%rbp
	.cfi_def_cfa_offset 16
	.cfi_offset %rbp, -16
	movq	%rsp, %rbp
	.cfi_def_cfa_register %rbp
	pushq	%r15
	pushq	%r14
	pushq	%r13
	pushq	%r12
	pushq	%rbx
	subq	$152, %rsp
	.cfi_offset %rbx, -56
	.cfi_offset %r12, -48
	.cfi_offset %r13, -40
	.cfi_offset %r14, -32
	.cfi_offset %r15, -24
	movq	16(%rdi), %r10
	movq	%r10, %r11
	addq	$32, %r11
	jb	LBB16_51
	movq	8(%rdi), %r9
	decq	%r11
	shrq	$5, %r11
	je	LBB16_2
	movq	%r9, %rax
	xorl	%edx, %edx
	divq	%r11
	jmp	LBB16_4
LBB16_2:
	xorl	%eax, %eax
LBB16_4:
	leaq	16(%rdi), %rcx
	movq	%rcx, -56(%rbp)
	movq	%rax, -96(%rbp)
	cmpq	%r10, %rax
	jne	LBB16_9
	testq	%r10, %r10
	je	LBB16_10
	movl	$1, %ebx
	xorl	%r8d, %r8d
	leaq	__ZN10bit_matrix5FALSE17h17bb87967a282e60E(%rip), %r15
	leaq	__ZN10bit_matrix4TRUE17h94130dc4457bb568E(%rip), %r12
	xorl	%ecx, %ecx
	movq	%rdi, -72(%rbp)
	movq	%r10, -64(%rbp)
	.p2align	4, 0x90
LBB16_7:
	cmpq	%r8, %r9
	jb	LBB16_8
	movq	%rbx, %rax
	mulq	%r11
	jo	LBB16_15
	movq	%rax, %rsi
	cmpq	%r8, %rax
	jb	LBB16_52
	cmpq	%rsi, %r9
	jb	LBB16_14
	movq	(%rdi), %r13
	testq	%r11, %r11
	je	LBB16_17
	movq	%r9, %rax
	xorl	%edx, %edx
	divq	%r11
	mulq	%r11
	jno	LBB16_20
	jmp	LBB16_39
	.p2align	4, 0x90
LBB16_17:
	xorl	%eax, %eax
	mulq	%r11
	jo	LBB16_39
LBB16_20:
	cmpq	%rsi, %rax
	jb	LBB16_53
	cmpq	%rax, %r9
	jb	LBB16_55
	movq	%rbx, -80(%rbp)
	testq	%r11, %r11
	je	LBB16_54
	leaq	(%r13,%r8,4), %rdx
	leaq	(%r13,%rsi,4), %r10
	movl	$1, %edi
	shll	%cl, %edi
	movl	%edi, -44(%rbp)
	subq	%rsi, %rax
	shrq	$5, %rcx
	movq	%r10, %r9
	subq	%rdx, %r9
	shrq	$2, %r9
	.p2align	4, 0x90
LBB16_24:
	testq	%r13, %r13
	je	LBB16_33
	testq	%r8, %r8
	je	LBB16_33
	cmpq	%r11, %r8
	movq	%r8, %rdi
	cmovaq	%r11, %rdi
	movq	%r13, %r14
	leaq	(%r13,%rdi,4), %r13
	subq	%rdi, %r8
	movq	%r15, %rsi
	cmpq	%rdi, %rcx
	jae	LBB16_29
LBB16_28:
	movl	-44(%rbp), %esi
	testl	%esi, (%r14,%rcx,4)
	movq	%r12, %rsi
	cmoveq	%r15, %rsi
LBB16_29:
	cmpb	$0, (%rsi)
	je	LBB16_24
	cmpq	%r9, %rdi
	cmovaq	%r9, %rdi
	testq	%rdi, %rdi
	je	LBB16_24
	cmpq	$8, %rdi
	jae	LBB16_40
	xorl	%esi, %esi
	jmp	LBB16_50
	.p2align	4, 0x90
LBB16_33:
	testq	%r10, %r10
	je	LBB16_36
	testq	%rax, %rax
	je	LBB16_36
	cmpq	%r11, %rax
	movq	%rax, %rdi
	cmovaq	%r11, %rdi
	movq	%r10, %r14
	leaq	(%r10,%rdi,4), %r10
	subq	%rdi, %rax
	xorl	%r13d, %r13d
	movq	%r15, %rsi
	cmpq	%rdi, %rcx
	jb	LBB16_28
	jmp	LBB16_29
LBB16_40:
	leaq	(%rdx,%rdi,4), %rsi
	cmpq	%rsi, %r14
	jae	LBB16_43
	leaq	(%r14,%rdi,4), %rsi
	cmpq	%rsi, %rdx
	jae	LBB16_43
	xorl	%esi, %esi
	jmp	LBB16_50
LBB16_43:
	movq	%rdi, %rsi
	movabsq	$4611686018427387896, %rbx
	andq	%rbx, %rsi
	leaq	-8(%rsi), %r15
	movq	%r15, %rbx
	shrq	$3, %rbx
	incq	%rbx
	movl	%ebx, %r12d
	andl	$1, %r12d
	testq	%r15, %r15
	movq	%r12, -88(%rbp)
	je	LBB16_44
	movq	%r12, %r15
	subq	%rbx, %r15
	xorl	%r12d, %r12d
	.p2align	4, 0x90
LBB16_46:
	movups	(%rdx,%r12,4), %xmm0
	movups	16(%rdx,%r12,4), %xmm1
	movups	(%r14,%r12,4), %xmm2
	orps	%xmm0, %xmm2
	movups	16(%r14,%r12,4), %xmm0
	orps	%xmm1, %xmm0
	movups	32(%r14,%r12,4), %xmm1
	movups	48(%r14,%r12,4), %xmm3
	movups	%xmm2, (%r14,%r12,4)
	movups	%xmm0, 16(%r14,%r12,4)
	movups	32(%rdx,%r12,4), %xmm0
	orps	%xmm1, %xmm0
	movups	48(%rdx,%r12,4), %xmm1
	orps	%xmm3, %xmm1
	movups	%xmm0, 32(%r14,%r12,4)
	movups	%xmm1, 48(%r14,%r12,4)
	addq	$16, %r12
	addq	$2, %r15
	jne	LBB16_46
	cmpq	$0, -88(%rbp)
	je	LBB16_49
LBB16_48:
	movups	(%rdx,%r12,4), %xmm0
	movups	16(%rdx,%r12,4), %xmm1
	movups	(%r14,%r12,4), %xmm2
	orps	%xmm0, %xmm2
	movups	16(%r14,%r12,4), %xmm0
	orps	%xmm1, %xmm0
	movups	%xmm2, (%r14,%r12,4)
	movups	%xmm0, 16(%r14,%r12,4)
LBB16_49:
	cmpq	%rsi, %rdi
	leaq	__ZN10bit_matrix5FALSE17h17bb87967a282e60E(%rip), %r15
	leaq	__ZN10bit_matrix4TRUE17h94130dc4457bb568E(%rip), %r12
	je	LBB16_24
	.p2align	4, 0x90
LBB16_50:
	movl	(%rdx,%rsi,4), %ebx
	orl	%ebx, (%r14,%rsi,4)
	incq	%rsi
	cmpq	%rdi, %rsi
	jb	LBB16_50
	jmp	LBB16_24
LBB16_44:
	xorl	%r12d, %r12d
	cmpq	$0, -88(%rbp)
	jne	LBB16_48
	jmp	LBB16_49
	.p2align	4, 0x90
LBB16_36:
	movq	-64(%rbp), %r10
	movq	-80(%rbp), %rbx
	cmpq	%r10, %rbx
	movq	-72(%rbp), %rdi
	je	LBB16_10
	movq	-56(%rbp), %rax
	movq	(%rax), %r11
	addq	$32, %r11
	jb	LBB16_51
	movq	8(%rdi), %r9
	decq	%r11
	shrq	$5, %r11
	movq	%rbx, %rax
	mulq	%r11
	movq	%rax, %r8
	movq	%rbx, %rcx
	leaq	1(%rbx), %rbx
	jno	LBB16_7
LBB16_39:
	leaq	_str.6(%rip), %rdi
	leaq	l___unnamed_29(%rip), %rdx
	movl	$33, %esi
	callq	__ZN4core9panicking5panic17h383a6b80ea7021aaE
LBB16_10:
	addq	$152, %rsp
	popq	%rbx
	popq	%r12
	popq	%r13
	popq	%r14
	popq	%r15
	popq	%rbp
	retq
LBB16_8:
	leaq	l___unnamed_30(%rip), %rdx
	movq	%r8, %rdi
	movq	%r9, %rsi
	callq	__ZN4core5slice24slice_end_index_len_fail17hea9e3399ed430f80E
LBB16_15:
	leaq	_str.6(%rip), %rdi
	leaq	l___unnamed_31(%rip), %rdx
	movl	$33, %esi
	callq	__ZN4core9panicking5panic17h383a6b80ea7021aaE
LBB16_52:
	leaq	l___unnamed_31(%rip), %rdx
	movq	%r8, %rdi
	callq	__ZN4core5slice22slice_index_order_fail17h65298a4d6b795c79E
LBB16_14:
	leaq	l___unnamed_31(%rip), %rdx
	movq	%rsi, %rdi
	movq	%r9, %rsi
	callq	__ZN4core5slice24slice_end_index_len_fail17hea9e3399ed430f80E
LBB16_53:
	leaq	l___unnamed_30(%rip), %rdx
	movq	%rsi, %rdi
	movq	%rax, %rsi
	callq	__ZN4core5slice22slice_index_order_fail17h65298a4d6b795c79E
LBB16_55:
	leaq	l___unnamed_30(%rip), %rdx
	movq	%rax, %rdi
	movq	%r9, %rsi
	callq	__ZN4core5slice24slice_end_index_len_fail17hea9e3399ed430f80E
LBB16_54:
	leaq	l___unnamed_21(%rip), %rdi
	leaq	l___unnamed_22(%rip), %rdx
	movl	$33, %esi
	callq	__ZN4core9panicking5panic17h383a6b80ea7021aaE
LBB16_51:
	leaq	_str.5(%rip), %rdi
	leaq	l___unnamed_4(%rip), %rdx
	movl	$28, %esi
	callq	__ZN4core9panicking5panic17h383a6b80ea7021aaE
LBB16_9:
	leaq	-96(%rbp), %rax
	movq	%rax, -104(%rbp)
	movq	-56(%rbp), %rax
	movq	%rax, -112(%rbp)
	leaq	-104(%rbp), %rax
	movq	%rax, -144(%rbp)
	leaq	__ZN42_$LT$$RF$T$u20$as$u20$core..fmt..Debug$GT$3fmt17h3ad268f5db9b601aE(%rip), %rax
	movq	%rax, -136(%rbp)
	leaq	-112(%rbp), %rcx
	movq	%rcx, -128(%rbp)
	movq	%rax, -120(%rbp)
	leaq	l___unnamed_23(%rip), %rax
	movq	%rax, -192(%rbp)
	movq	$3, -184(%rbp)
	movq	$0, -176(%rbp)
	leaq	-144(%rbp), %rax
	movq	%rax, -160(%rbp)
	movq	$2, -152(%rbp)
	leaq	l___unnamed_32(%rip), %rsi
	leaq	-192(%rbp), %rdi
	callq	__ZN4core9panicking9panic_fmt17hfce5b7173905fc53E
	.cfi_endproc

	.globl	__ZN10bit_matrix9submatrix15BitSubMatrixMut17reflexive_closure17h04e1164b82c17232E
	.p2align	4, 0x90
__ZN10bit_matrix9submatrix15BitSubMatrixMut17reflexive_closure17h04e1164b82c17232E:
	.cfi_startproc
	pushq	%rbp
	.cfi_def_cfa_offset 16
	.cfi_offset %rbp, -16
	movq	%rsp, %rbp
	.cfi_def_cfa_register %rbp
	movq	16(%rdi), %r9
	movq	%r9, %rcx
	addq	$32, %rcx
	jb	LBB17_17
	decq	%rcx
	shrq	$5, %rcx
	je	LBB17_2
	movq	8(%rdi), %rax
	xorl	%edx, %edx
	divq	%rcx
	movq	%rax, %r8
	cmpq	%r8, %r9
	cmovbeq	%r9, %r8
	testq	%r8, %r8
	jne	LBB17_5
	jmp	LBB17_12
LBB17_2:
	xorl	%r8d, %r8d
	cmpq	%r8, %r9
	cmovbeq	%r9, %r8
	testq	%r8, %r8
	je	LBB17_12
LBB17_5:
	movq	%r9, %rcx
	addq	$32, %rcx
	jb	LBB17_17
	xorl	%r10d, %r10d
	.p2align	4, 0x90
LBB17_7:
	decq	%rcx
	andq	$-32, %rcx
	movq	%r10, %rax
	mulq	%rcx
	jo	LBB17_13
	addq	%r10, %rax
	jb	LBB17_14
	cmpq	%r10, %r9
	jbe	LBB17_11
	movq	%rax, %rdx
	shrq	$5, %rdx
	cmpq	8(%rdi), %rdx
	jae	LBB17_11
	movl	$1, %esi
	movl	%eax, %ecx
	shll	%cl, %esi
	movq	(%rdi), %rax
	orl	%esi, (%rax,%rdx,4)
	incq	%r10
	cmpq	%r8, %r10
	jae	LBB17_12
	movq	16(%rdi), %r9
	movq	%r9, %rcx
	addq	$32, %rcx
	jae	LBB17_7
LBB17_17:
	leaq	_str.5(%rip), %rdi
	leaq	l___unnamed_4(%rip), %rdx
	movl	$28, %esi
	callq	__ZN4core9panicking5panic17h383a6b80ea7021aaE
LBB17_12:
	popq	%rbp
	retq
LBB17_11:
	leaq	l___unnamed_33(%rip), %rdi
	leaq	l___unnamed_34(%rip), %rdx
	movl	$65, %esi
	callq	__ZN4core9panicking5panic17h383a6b80ea7021aaE
LBB17_13:
	leaq	_str.6(%rip), %rdi
	leaq	l___unnamed_35(%rip), %rdx
	movl	$33, %esi
	callq	__ZN4core9panicking5panic17h383a6b80ea7021aaE
LBB17_14:
	leaq	_str.5(%rip), %rdi
	leaq	l___unnamed_35(%rip), %rdx
	movl	$28, %esi
	callq	__ZN4core9panicking5panic17h383a6b80ea7021aaE
	.cfi_endproc

	.globl	__ZN10bit_matrix9submatrix15BitSubMatrixMut8iter_mut17h0f51f54d73242ef2E
	.p2align	4, 0x90
__ZN10bit_matrix9submatrix15BitSubMatrixMut8iter_mut17h0f51f54d73242ef2E:
	.cfi_startproc
	pushq	%rbp
	.cfi_def_cfa_offset 16
	.cfi_offset %rbp, -16
	movq	%rsp, %rbp
	.cfi_def_cfa_register %rbp
	movq	16(%rsi), %rcx
	addq	$32, %rcx
	jb	LBB18_3
	decq	%rcx
	shrq	$5, %rcx
	je	LBB18_4
	movq	%rdi, %rax
	movups	(%rsi), %xmm0
	movups	%xmm0, (%rdi)
	movq	%rcx, 16(%rdi)
	leaq	__ZN10bit_matrix9submatrix15BitSubMatrixMut8iter_mut1f17hf15eef4b3c80d458E(%rip), %rcx
	movq	%rcx, 24(%rdi)
	popq	%rbp
	retq
LBB18_3:
	leaq	_str.5(%rip), %rdi
	leaq	l___unnamed_4(%rip), %rdx
	movl	$28, %esi
	callq	__ZN4core9panicking5panic17h383a6b80ea7021aaE
LBB18_4:
	leaq	l___unnamed_21(%rip), %rdi
	leaq	l___unnamed_22(%rip), %rdx
	movl	$33, %esi
	callq	__ZN4core9panicking5panic17h383a6b80ea7021aaE
	.cfi_endproc

	.p2align	4, 0x90
__ZN10bit_matrix9submatrix15BitSubMatrixMut8iter_mut1f17hf15eef4b3c80d458E:
	.cfi_startproc
	pushq	%rbp
	.cfi_def_cfa_offset 16
	.cfi_offset %rbp, -16
	movq	%rsp, %rbp
	.cfi_def_cfa_register %rbp
	movq	%rsi, %rdx
	movq	%rdi, %rax
	popq	%rbp
	retq
	.cfi_endproc

	.globl	__ZN72_$LT$bit_matrix..submatrix..BitSubMatrix$u20$as$u20$core..fmt..Debug$GT$3fmt17hadbd9d7e87e713abE
	.p2align	4, 0x90
__ZN72_$LT$bit_matrix..submatrix..BitSubMatrix$u20$as$u20$core..fmt..Debug$GT$3fmt17hadbd9d7e87e713abE:
	.cfi_startproc
	pushq	%rbp
	.cfi_def_cfa_offset 16
	.cfi_offset %rbp, -16
	movq	%rsp, %rbp
	.cfi_def_cfa_register %rbp
	pushq	%r15
	pushq	%r14
	pushq	%r13
	pushq	%r12
	pushq	%rbx
	subq	$104, %rsp
	.cfi_offset %rbx, -56
	.cfi_offset %r12, -48
	.cfi_offset %r13, -40
	.cfi_offset %r14, -32
	.cfi_offset %r15, -24
	movq	16(%rdi), %rbx
	movq	%rbx, %rax
	addq	$32, %rax
	jb	LBB20_14
	decq	%rax
	shrq	$5, %rax
	je	LBB20_15
	movq	%rsi, %r15
	movq	(%rdi), %rcx
	movq	%rcx, -48(%rbp)
	movq	8(%rdi), %rcx
	leaq	__ZN10bit_matrix5FALSE17h17bb87967a282e60E(%rip), %r12
	movq	%rax, -64(%rbp)
LBB20_3:
	testq	%rcx, %rcx
	je	LBB20_4
	cmpq	%rax, %rcx
	movq	%rcx, %r14
	cmovaq	%rax, %r14
	movq	-48(%rbp), %rax
	leaq	(%rax,%r14,4), %rax
	movq	%rax, -72(%rbp)
	subq	%r14, %rcx
	movq	%rcx, -80(%rbp)
	xorl	%r13d, %r13d
	jmp	LBB20_6
	.p2align	4, 0x90
LBB20_10:
	incq	%r13
	movzbl	(%rax), %eax
	movl	%eax, -52(%rbp)
	leaq	-52(%rbp), %rax
	movq	%rax, -144(%rbp)
	movq	__ZN4core3fmt3num3imp52_$LT$impl$u20$core..fmt..Display$u20$for$u20$i32$GT$3fmt17h00ed7ff77f9da654E@GOTPCREL(%rip), %rax
	movq	%rax, -136(%rbp)
	leaq	l___unnamed_1(%rip), %rax
	movq	%rax, -128(%rbp)
	movq	$1, -120(%rbp)
	movq	$0, -112(%rbp)
	leaq	-144(%rbp), %rax
	movq	%rax, -96(%rbp)
	movq	$1, -88(%rbp)
	movq	%r15, %rdi
	leaq	-128(%rbp), %rsi
	callq	__ZN4core3fmt9Formatter9write_fmt17h742ca6aae87ad23cE
	testb	%al, %al
	jne	LBB20_12
LBB20_6:
	cmpq	%r13, %rbx
	je	LBB20_11
	movq	%r13, %rcx
	shrq	$5, %rcx
	movq	%r12, %rax
	cmpq	%r14, %rcx
	jae	LBB20_10
	movq	-48(%rbp), %rax
	movl	(%rax,%rcx,4), %eax
	btl	%r13d, %eax
	movq	%r12, %rax
	jae	LBB20_10
	leaq	__ZN10bit_matrix4TRUE17h94130dc4457bb568E(%rip), %rax
	jmp	LBB20_10
	.p2align	4, 0x90
LBB20_11:
	leaq	l___unnamed_36(%rip), %rax
	movq	%rax, -128(%rbp)
	movq	$1, -120(%rbp)
	movq	$0, -112(%rbp)
	leaq	l___unnamed_37(%rip), %rax
	movq	%rax, -96(%rbp)
	movq	$0, -88(%rbp)
	movq	%r15, %rdi
	leaq	-128(%rbp), %rsi
	callq	__ZN4core3fmt9Formatter9write_fmt17h742ca6aae87ad23cE
	movq	-72(%rbp), %rcx
	movq	%rcx, -48(%rbp)
	testb	%al, %al
	movq	-64(%rbp), %rax
	movq	-80(%rbp), %rcx
	je	LBB20_3
LBB20_12:
	movb	$1, %al
LBB20_13:
	addq	$104, %rsp
	popq	%rbx
	popq	%r12
	popq	%r13
	popq	%r14
	popq	%r15
	popq	%rbp
	retq
LBB20_4:
	xorl	%eax, %eax
	jmp	LBB20_13
LBB20_14:
	leaq	_str.5(%rip), %rdi
	leaq	l___unnamed_4(%rip), %rdx
	movl	$28, %esi
	callq	__ZN4core9panicking5panic17h383a6b80ea7021aaE
LBB20_15:
	leaq	l___unnamed_21(%rip), %rdi
	leaq	l___unnamed_22(%rip), %rdx
	movl	$33, %esi
	callq	__ZN4core9panicking5panic17h383a6b80ea7021aaE
	.cfi_endproc

	.globl	__ZN66_$LT$bit_matrix..matrix..BitMatrix$u20$as$u20$core..fmt..Debug$GT$3fmt17h0f3c5c0c49ad5864E
	.p2align	4, 0x90
__ZN66_$LT$bit_matrix..matrix..BitMatrix$u20$as$u20$core..fmt..Debug$GT$3fmt17h0f3c5c0c49ad5864E:
	.cfi_startproc
	pushq	%rbp
	.cfi_def_cfa_offset 16
	.cfi_offset %rbp, -16
	movq	%rsp, %rbp
	.cfi_def_cfa_register %rbp
	pushq	%r14
	pushq	%rbx
	subq	$32, %rsp
	.cfi_offset %rbx, -32
	.cfi_offset %r14, -24
	movq	%rdi, %rbx
	leaq	l___unnamed_38(%rip), %rdx
	leaq	-40(%rbp), %r14
	movl	$9, %ecx
	movq	%r14, %rdi
	callq	__ZN4core3fmt9Formatter12debug_struct17ha1a64e91d2a98458E
	movq	%rbx, -24(%rbp)
	addq	$32, %rbx
	leaq	l___unnamed_39(%rip), %rsi
	leaq	l___unnamed_40(%rip), %r8
	leaq	-24(%rbp), %rcx
	movl	$7, %edx
	movq	%r14, %rdi
	callq	__ZN4core3fmt8builders11DebugStruct5field17h6c54d35ac41bb1e6E
	movq	%rbx, -24(%rbp)
	leaq	L___unnamed_41(%rip), %rsi
	leaq	l___unnamed_42(%rip), %r8
	leaq	-24(%rbp), %rcx
	movl	$8, %edx
	movq	%r14, %rdi
	callq	__ZN4core3fmt8builders11DebugStruct5field17h6c54d35ac41bb1e6E
	movq	%r14, %rdi
	callq	__ZN4core3fmt8builders11DebugStruct6finish17h67ed49fd5e81bb24E
	addq	$32, %rsp
	popq	%rbx
	popq	%r14
	popq	%rbp
	retq
	.cfi_endproc

	.section	__TEXT,__const
	.p2align	3
l___unnamed_37:
	.byte	0

	.p2align	4
_str.0:
	.ascii	"attempt to subtract with overflow"

l___unnamed_21:
	.ascii	"assertion failed: chunk_size != 0"

l___unnamed_43:
	.ascii	"/rustc/6c8927b0cf80ceee19386026cf9d7fd4fd9d486f/src/libcore/macros/mod.rs"

	.section	__DATA,__const
	.p2align	3
l___unnamed_22:
	.quad	l___unnamed_43
	.asciz	"I\000\000\000\000\000\000\000\n\000\000\000\t\000\000"

	.section	__TEXT,__const
l___unnamed_2:
	.ascii	"called `Option::unwrap()` on a `None` value"

	.p2align	4
_str.3:
	.ascii	"attempt to divide by zero"

	.section	__DATA,__const
	.p2align	3
l___unnamed_1:
	.quad	l___unnamed_37
	.space	8

	.section	__TEXT,__const
l___unnamed_44:
	.ascii	"/Users/yingyuhang/.cargo/registry/src/github.com-1ecc6299db9ec823/bit-vec-0.6.2/src/lib.rs"

	.section	__DATA,__const
	.p2align	3
l___unnamed_11:
	.quad	l___unnamed_44
	.asciz	"Z\000\000\000\000\000\000\000\276\001\000\000%\000\000"

	.p2align	3
l___unnamed_12:
	.quad	l___unnamed_44
	.asciz	"Z\000\000\000\000\000\000\000\276\001\000\000\030\000\000"

	.section	__TEXT,__const
l___unnamed_45:
	.ascii	"index out of bounds: "

	.section	__TEXT,__literal4,4byte_literals
L___unnamed_46:
	.ascii	" >= "

	.section	__DATA,__const
	.p2align	3
l___unnamed_26:
	.quad	l___unnamed_45
	.asciz	"\025\000\000\000\000\000\000"
	.quad	L___unnamed_46
	.asciz	"\004\000\000\000\000\000\000"

	.section	__TEXT,__const
l___unnamed_47:
	.ascii	"/rustc/6c8927b0cf80ceee19386026cf9d7fd4fd9d486f/src/libstd/macros.rs"

	.section	__DATA,__const
	.p2align	3
l___unnamed_27:
	.quad	l___unnamed_47
	.asciz	"D\000\000\000\000\000\000\000\020\000\000\000\t\000\000"

	.p2align	3
l___unnamed_28:
	.quad	l___unnamed_44
	.asciz	"Z\000\000\000\000\000\000\000\035\002\000\000\032\000\000"

	.section	__TEXT,__const
l___unnamed_9:
	.ascii	"capacity overflow"

	.section	__DATA,__const
	.p2align	3
l___unnamed_10:
	.quad	l___unnamed_44
	.asciz	"Z\000\000\000\000\000\000\000\360\004\000\0003\000\000"

	.p2align	3
l___unnamed_14:
	.quad	l___unnamed_44
	.asciz	"Z\000\000\000\000\000\000\000\371\004\000\000/\000\000"

	.p2align	3
l___unnamed_15:
	.quad	l___unnamed_44
	.asciz	"Z\000\000\000\000\000\000\000\371\004\000\000\"\000\000"

	.p2align	3
l___unnamed_7:
	.quad	l___unnamed_44
	.asciz	"Z\000\000\000\000\000\000\000\003\005\000\000\r\000\000"

	.p2align	3
l___unnamed_13:
	.quad	l___unnamed_44
	.asciz	"Z\000\000\000\000\000\000\000\b\005\000\000\032\000\000"

	.section	__TEXT,__const
	.p2align	4
_str.5:
	.ascii	"attempt to add with overflow"

	.section	__DATA,__const
	.p2align	3
l___unnamed_3:
	.quad	l___unnamed_44
	.asciz	"Z\000\000\000\000\000\000\000\341\005\000\0007\000\000"

	.section	__TEXT,__const
l___unnamed_48:
	.ascii	"/Users/yingyuhang/.cargo/registry/src/github.com-1ecc6299db9ec823/bit-matrix-0.6.0/src/matrix.rs"

	.section	__DATA,__const
	.p2align	3
l___unnamed_5:
	.quad	l___unnamed_48
	.asciz	"`\000\000\000\000\000\000\000 \000\000\000(\000\000"

	.section	__TEXT,__const
	.p2align	4
_str.6:
	.ascii	"attempt to multiply with overflow"

	.section	__DATA,__const
	.p2align	3
l___unnamed_6:
	.quad	l___unnamed_48
	.asciz	"`\000\000\000\000\000\000\000,\000\000\000\r\000\000"

	.p2align	3
l___unnamed_25:
	.quad	l___unnamed_48
	.asciz	"`\000\000\000\000\000\000\000=\000\000\000\032\000\000"

	.p2align	3
l___unnamed_8:
	.quad	l___unnamed_48
	.asciz	"`\000\000\000\000\000\000\000L\000\000\000\033\000\000"

	.p2align	3
l___unnamed_16:
	.quad	l___unnamed_48
	.asciz	"`\000\000\000\000\000\000\000Q\000\000\000\037\000\000"

	.p2align	3
l___unnamed_18:
	.quad	l___unnamed_48
	.asciz	"`\000\000\000\000\000\000\000Y\000\000\000?\000\000"

	.p2align	3
l___unnamed_19:
	.quad	l___unnamed_48
	.asciz	"`\000\000\000\000\000\000\000Y\000\000\000\016\000\000"

	.p2align	3
l___unnamed_20:
	.quad	l___unnamed_48
	.asciz	"`\000\000\000\000\000\000\000x\000\000\000\"\000\000"

	.p2align	3
l___unnamed_17:
	.quad	l___unnamed_48
	.asciz	"`\000\000\000\000\000\000\000\177\000\000\000\033\000\000"

	.section	__TEXT,__const
l___unnamed_49:
	.ascii	"assertion failed: `(left == right)`\n  left: `"

l___unnamed_50:
	.ascii	"`,\n right: `"

l___unnamed_51:
	.byte	96

	.section	__DATA,__const
	.p2align	3
l___unnamed_23:
	.quad	l___unnamed_49
	.asciz	"-\000\000\000\000\000\000"
	.quad	l___unnamed_50
	.asciz	"\f\000\000\000\000\000\000"
	.quad	l___unnamed_51
	.asciz	"\001\000\000\000\000\000\000"

	.p2align	3
l___unnamed_24:
	.quad	l___unnamed_48
	.asciz	"`\000\000\000\000\000\000\000\206\000\000\000\t\000\000"

	.section	__TEXT,__const
l___unnamed_52:
	.ascii	"/Users/yingyuhang/.cargo/registry/src/github.com-1ecc6299db9ec823/bit-matrix-0.6.0/src/submatrix.rs"

	.section	__DATA,__const
	.p2align	3
l___unnamed_35:
	.quad	l___unnamed_52
	.asciz	"c\000\000\000\000\000\000\000]\000\000\000\023\000\000"

	.section	__TEXT,__const
l___unnamed_33:
	.ascii	"assertion failed: block < self.slice.len() && col < self.row_bits"

	.section	__DATA,__const
	.p2align	3
l___unnamed_34:
	.quad	l___unnamed_52
	.asciz	"c\000\000\000\000\000\000\000_\000\000\000\t\000\000"

	.p2align	3
l___unnamed_29:
	.quad	l___unnamed_52
	.asciz	"c\000\000\000\000\000\000\000o\000\000\000:\000\000"

	.p2align	3
l___unnamed_30:
	.quad	l___unnamed_52
	.asciz	"c\000\000\000\000\000\000\000o\000\000\000\025\000\000"

	.p2align	3
l___unnamed_31:
	.quad	l___unnamed_52
	.asciz	"c\000\000\000\000\000\000\000\216\000\000\000\"\000\000"

	.p2align	3
l___unnamed_32:
	.quad	l___unnamed_52
	.asciz	"c\000\000\000\000\000\000\000\227\000\000\000\t\000\000"

	.section	__TEXT,__const
l___unnamed_53:
	.byte	10

	.section	__DATA,__const
	.p2align	3
l___unnamed_36:
	.quad	l___unnamed_53
	.asciz	"\001\000\000\000\000\000\000"

	.section	__TEXT,__const
l___unnamed_54:
	.ascii	"/Users/yingyuhang/.cargo/registry/src/github.com-1ecc6299db9ec823/bit-matrix-0.6.0/src/util.rs"

	.section	__DATA,__const
	.p2align	3
l___unnamed_4:
	.quad	l___unnamed_54
	.asciz	"^\000\000\000\000\000\000\000\013\000\000\000\006\000\000"

	.section	__TEXT,__const
	.globl	__ZN10bit_matrix4TRUE17h94130dc4457bb568E
__ZN10bit_matrix4TRUE17h94130dc4457bb568E:
	.byte	1

	.globl	__ZN10bit_matrix5FALSE17h17bb87967a282e60E
__ZN10bit_matrix5FALSE17h17bb87967a282e60E:
	.space	1

l___unnamed_38:
	.ascii	"BitMatrix"

l___unnamed_39:
	.ascii	"bit_vec"

	.section	__DATA,__const
	.p2align	3
l___unnamed_40:
	.quad	__ZN4core3ptr13drop_in_place17h430b8adce32fead3E
	.quad	8
	.quad	8
	.quad	__ZN42_$LT$$RF$T$u20$as$u20$core..fmt..Debug$GT$3fmt17hf7cb0753115a00afE

	.section	__TEXT,__literal8,8byte_literals
L___unnamed_41:
	.ascii	"row_bits"

	.section	__DATA,__const
	.p2align	3
l___unnamed_42:
	.quad	__ZN4core3ptr13drop_in_place17h430b8adce32fead3E
	.quad	8
	.quad	8
	.quad	__ZN42_$LT$$RF$T$u20$as$u20$core..fmt..Debug$GT$3fmt17h3ad268f5db9b601aE

.subsections_via_symbols
