	.section	__TEXT,__text,regular,pure_instructions
	.macosx_version_min 10, 7
	.p2align	4, 0x90
__ZN100_$LT$alloc..string..String$u20$as$u20$core..ops..index..Index$LT$core..ops..range..RangeFull$GT$$GT$5index17h51ce575c2e8cb7e8E:
	.cfi_startproc
	pushq	%rbp
	.cfi_def_cfa_offset 16
	.cfi_offset %rbp, -16
	movq	%rsp, %rbp
	.cfi_def_cfa_register %rbp
	subq	$48, %rsp
	movq	%rsi, -8(%rbp)
	callq	__ZN68_$LT$alloc..vec..Vec$LT$T$GT$$u20$as$u20$core..ops..deref..Deref$GT$5deref17hd510c21eea10b759E
	movq	%rax, -16(%rbp)
	movq	%rdx, -24(%rbp)
	movq	-16(%rbp), %rdi
	movq	-24(%rbp), %rsi
	callq	__ZN4core3str19from_utf8_unchecked17h6553cf87b1b17d85E
	movq	%rax, -32(%rbp)
	movq	%rdx, -40(%rbp)
	movq	-32(%rbp), %rax
	movq	-40(%rbp), %rdx
	addq	$48, %rsp
	popq	%rbp
	retq
	.cfi_endproc

	.globl	__ZN100_$LT$core..iter..adapters..Filter$LT$I$C$P$GT$$u20$as$u20$core..iter..traits..iterator..Iterator$GT$4next17h001251d40f271854E
	.p2align	4, 0x90
__ZN100_$LT$core..iter..adapters..Filter$LT$I$C$P$GT$$u20$as$u20$core..iter..traits..iterator..Iterator$GT$4next17h001251d40f271854E:
	.cfi_startproc
	pushq	%rbp
	.cfi_def_cfa_offset 16
	.cfi_offset %rbp, -16
	movq	%rsp, %rbp
	.cfi_def_cfa_register %rbp
	subq	$32, %rsp
	movq	%rdi, %rax
	movq	%rdi, -8(%rbp)
	movq	%rax, %rdi
	movq	-8(%rbp), %rsi
	callq	__ZN4core4iter6traits8iterator8Iterator4find17h19af82ee59d75c0fE
	movq	%rax, -16(%rbp)
	movq	%rdx, -24(%rbp)
	movq	-16(%rbp), %rax
	movq	-24(%rbp), %rdx
	addq	$32, %rsp
	popq	%rbp
	retq
	.cfi_endproc

	.globl	__ZN100_$LT$core..iter..adapters..Filter$LT$I$C$P$GT$$u20$as$u20$core..iter..traits..iterator..Iterator$GT$4next17h4d2a3f2a61814b8dE
	.p2align	4, 0x90
__ZN100_$LT$core..iter..adapters..Filter$LT$I$C$P$GT$$u20$as$u20$core..iter..traits..iterator..Iterator$GT$4next17h4d2a3f2a61814b8dE:
	.cfi_startproc
	pushq	%rbp
	.cfi_def_cfa_offset 16
	.cfi_offset %rbp, -16
	movq	%rsp, %rbp
	.cfi_def_cfa_register %rbp
	subq	$16, %rsp
	movq	%rdi, %rax
	addq	$16, %rdi
	movq	%rdi, -8(%rbp)
	movq	%rax, %rdi
	movq	-8(%rbp), %rsi
	callq	__ZN85_$LT$core..slice..Iter$LT$T$GT$$u20$as$u20$core..iter..traits..iterator..Iterator$GT$4find17h6bb50e1f8071bbd3E
	movq	%rax, -16(%rbp)
	movq	-16(%rbp), %rax
	addq	$16, %rsp
	popq	%rbp
	retq
	.cfi_endproc

	.globl	__ZN100_$LT$core..iter..adapters..Filter$LT$I$C$P$GT$$u20$as$u20$core..iter..traits..iterator..Iterator$GT$4next17ha660c982271ba13bE
	.p2align	4, 0x90
__ZN100_$LT$core..iter..adapters..Filter$LT$I$C$P$GT$$u20$as$u20$core..iter..traits..iterator..Iterator$GT$4next17ha660c982271ba13bE:
	.cfi_startproc
	pushq	%rbp
	.cfi_def_cfa_offset 16
	.cfi_offset %rbp, -16
	movq	%rsp, %rbp
	.cfi_def_cfa_register %rbp
	subq	$32, %rsp
	movq	%rdi, %rax
	movq	%rdi, -8(%rbp)
	movq	%rax, %rdi
	movq	-8(%rbp), %rsi
	callq	__ZN4core4iter6traits8iterator8Iterator4find17h8693a1527981933aE
	movq	%rax, -16(%rbp)
	movq	%rdx, -24(%rbp)
	movq	-16(%rbp), %rax
	movq	-24(%rbp), %rdx
	addq	$32, %rsp
	popq	%rbp
	retq
	.cfi_endproc

	.globl	__ZN100_$LT$core..iter..adapters..Filter$LT$I$C$P$GT$$u20$as$u20$core..iter..traits..iterator..Iterator$GT$9size_hint17h436193a5173a194eE
	.p2align	4, 0x90
__ZN100_$LT$core..iter..adapters..Filter$LT$I$C$P$GT$$u20$as$u20$core..iter..traits..iterator..Iterator$GT$9size_hint17h436193a5173a194eE:
	.cfi_startproc
	pushq	%rbp
	.cfi_def_cfa_offset 16
	.cfi_offset %rbp, -16
	movq	%rsp, %rbp
	.cfi_def_cfa_register %rbp
	subq	$48, %rsp
	movq	%rdi, %rax
	leaq	-24(%rbp), %rcx
	movq	%rdi, -32(%rbp)
	movq	%rcx, %rdi
	movq	%rax, -40(%rbp)
	callq	__ZN4core4iter6traits8iterator8Iterator9size_hint17hc1d9d54ab8d81e04E
	movq	-16(%rbp), %rax
	movq	-8(%rbp), %rcx
	movq	-32(%rbp), %rdx
	movq	$0, (%rdx)
	movq	%rax, 8(%rdx)
	movq	%rcx, 16(%rdx)
	movq	-40(%rbp), %rax
	addq	$48, %rsp
	popq	%rbp
	retq
	.cfi_endproc

	.globl	__ZN100_$LT$core..iter..adapters..Filter$LT$I$C$P$GT$$u20$as$u20$core..iter..traits..iterator..Iterator$GT$9size_hint17h5840a6d3266385f6E
	.p2align	4, 0x90
__ZN100_$LT$core..iter..adapters..Filter$LT$I$C$P$GT$$u20$as$u20$core..iter..traits..iterator..Iterator$GT$9size_hint17h5840a6d3266385f6E:
	.cfi_startproc
	pushq	%rbp
	.cfi_def_cfa_offset 16
	.cfi_offset %rbp, -16
	movq	%rsp, %rbp
	.cfi_def_cfa_register %rbp
	subq	$48, %rsp
	movq	%rdi, %rax
	leaq	-24(%rbp), %rcx
	movq	%rdi, -32(%rbp)
	movq	%rcx, %rdi
	movq	%rax, -40(%rbp)
	callq	__ZN85_$LT$core..slice..Iter$LT$T$GT$$u20$as$u20$core..iter..traits..iterator..Iterator$GT$9size_hint17h21bc516672e11ddfE
	movq	-16(%rbp), %rax
	movq	-8(%rbp), %rcx
	movq	-32(%rbp), %rdx
	movq	$0, (%rdx)
	movq	%rax, 8(%rdx)
	movq	%rcx, 16(%rdx)
	movq	-40(%rbp), %rax
	addq	$48, %rsp
	popq	%rbp
	retq
	.cfi_endproc

	.globl	__ZN100_$LT$core..iter..adapters..Filter$LT$I$C$P$GT$$u20$as$u20$core..iter..traits..iterator..Iterator$GT$9size_hint17h671869b6d20fe8a6E
	.p2align	4, 0x90
__ZN100_$LT$core..iter..adapters..Filter$LT$I$C$P$GT$$u20$as$u20$core..iter..traits..iterator..Iterator$GT$9size_hint17h671869b6d20fe8a6E:
	.cfi_startproc
	pushq	%rbp
	.cfi_def_cfa_offset 16
	.cfi_offset %rbp, -16
	movq	%rsp, %rbp
	.cfi_def_cfa_register %rbp
	subq	$48, %rsp
	movq	%rdi, %rax
	leaq	-24(%rbp), %rcx
	movq	%rdi, -32(%rbp)
	movq	%rcx, %rdi
	movq	%rax, -40(%rbp)
	callq	__ZN4core4iter6traits8iterator8Iterator9size_hint17h27f5680d2756f50dE
	movq	-16(%rbp), %rax
	movq	-8(%rbp), %rcx
	movq	-32(%rbp), %rdx
	movq	$0, (%rdx)
	movq	%rax, 8(%rdx)
	movq	%rcx, 16(%rdx)
	movq	-40(%rbp), %rax
	addq	$48, %rsp
	popq	%rbp
	retq
	.cfi_endproc

	.globl	__ZN100_$LT$core..slice..Iter$LT$T$GT$$u20$as$u20$core..iter..traits..double_ended..DoubleEndedIterator$GT$9next_back17h4b2609b4ddfb6b4fE
	.p2align	4, 0x90
__ZN100_$LT$core..slice..Iter$LT$T$GT$$u20$as$u20$core..iter..traits..double_ended..DoubleEndedIterator$GT$9next_back17h4b2609b4ddfb6b4fE:
	.cfi_startproc
	pushq	%rbp
	.cfi_def_cfa_offset 16
	.cfi_offset %rbp, -16
	movq	%rsp, %rbp
	.cfi_def_cfa_register %rbp
	subq	$80, %rsp
	movq	(%rdi), %rax
	movq	%rdi, -40(%rbp)
	movq	%rax, %rdi
	callq	__ZN4core3ptr8non_null16NonNull$LT$T$GT$6as_ptr17h96eca9a86cd73a9aE
	movq	%rax, -48(%rbp)
	movq	-48(%rbp), %rdi
	callq	__ZN4core3ptr7mut_ptr31_$LT$impl$u20$$BP$mut$u20$T$GT$7is_null17hf73afeb48ff7dbf2E
	movq	$1, -24(%rbp)
	movq	-24(%rbp), %rax
	movq	%rax, -56(%rbp)
	movq	-56(%rbp), %rax
	cmpq	$0, %rax
	jne	LBB7_6
	jmp	LBB7_9
LBB7_6:
	movq	-40(%rbp), %rax
	movq	8(%rax), %rdi
	callq	__ZN4core3ptr9const_ptr33_$LT$impl$u20$$BP$const$u20$T$GT$7is_null17h7472a824eb1614d7E
	jmp	LBB7_9
LBB7_9:
	movq	-40(%rbp), %rax
	movq	(%rax), %rdi
	callq	__ZN4core3ptr8non_null16NonNull$LT$T$GT$6as_ptr17h96eca9a86cd73a9aE
	movq	%rax, -64(%rbp)
	movq	-64(%rbp), %rax
	movq	-40(%rbp), %rcx
	cmpq	8(%rcx), %rax
	je	LBB7_15
	movq	$1, -8(%rbp)
	cmpq	$0, -8(%rbp)
	je	LBB7_13
	movq	-40(%rbp), %rax
	movq	8(%rax), %rdi
	movq	$-1, %rsi
	callq	__ZN4core3ptr9const_ptr33_$LT$impl$u20$$BP$const$u20$T$GT$6offset17ha6de21b92465a74cE
	movq	-40(%rbp), %rcx
	movq	%rax, 8(%rcx)
	movq	8(%rcx), %rax
	movq	%rax, -16(%rbp)
	jmp	LBB7_14
LBB7_13:
	movq	-40(%rbp), %rax
	movq	8(%rax), %rdi
	movq	$-1, %rsi
	callq	__ZN4core3ptr9const_ptr33_$LT$impl$u20$$BP$const$u20$T$GT$15wrapping_offset17hf842017d8cb97a6dE
	movq	-40(%rbp), %rcx
	movq	%rax, 8(%rcx)
	movq	(%rcx), %rdi
	callq	__ZN4core3ptr8non_null16NonNull$LT$T$GT$6as_ptr17h96eca9a86cd73a9aE
	movq	%rax, -16(%rbp)
LBB7_14:
	movq	-16(%rbp), %rax
	movq	%rax, -72(%rbp)
	jmp	LBB7_16
LBB7_15:
	movq	$0, -32(%rbp)
	jmp	LBB7_17
LBB7_16:
	movq	-72(%rbp), %rax
	movq	%rax, -32(%rbp)
LBB7_17:
	movq	-32(%rbp), %rax
	addq	$80, %rsp
	popq	%rbp
	retq
	.cfi_endproc

	.globl	__ZN101_$LT$core..ops..range..RangeTo$LT$usize$GT$$u20$as$u20$core..slice..SliceIndex$LT$$u5b$T$u5d$$GT$$GT$5index17hf5c5960349ebe3c9E
	.p2align	4, 0x90
__ZN101_$LT$core..ops..range..RangeTo$LT$usize$GT$$u20$as$u20$core..slice..SliceIndex$LT$$u5b$T$u5d$$GT$$GT$5index17hf5c5960349ebe3c9E:
	.cfi_startproc
	pushq	%rbp
	.cfi_def_cfa_offset 16
	.cfi_offset %rbp, -16
	movq	%rsp, %rbp
	.cfi_def_cfa_register %rbp
	subq	$64, %rsp
	movq	$0, -16(%rbp)
	movq	%rdi, -8(%rbp)
	movq	-16(%rbp), %rdi
	movq	-8(%rbp), %rax
	movq	%rsi, -24(%rbp)
	movq	%rax, %rsi
	movq	-24(%rbp), %rax
	movq	%rdx, -32(%rbp)
	movq	%rax, %rdx
	movq	-32(%rbp), %r8
	movq	%rcx, -40(%rbp)
	movq	%r8, %rcx
	movq	-40(%rbp), %r8
	callq	__ZN99_$LT$core..ops..range..Range$LT$usize$GT$$u20$as$u20$core..slice..SliceIndex$LT$$u5b$T$u5d$$GT$$GT$5index17h0f4debf2f3066d1bE
	movq	%rax, -48(%rbp)
	movq	%rdx, -56(%rbp)
	movq	-48(%rbp), %rax
	movq	-56(%rbp), %rdx
	addq	$64, %rsp
	popq	%rbp
	retq
	.cfi_endproc

	.globl	__ZN101_$LT$core..ops..range..RangeTo$LT$usize$GT$$u20$as$u20$core..slice..SliceIndex$LT$$u5b$T$u5d$$GT$$GT$9index_mut17h796666a4f0f6443bE
	.p2align	4, 0x90
__ZN101_$LT$core..ops..range..RangeTo$LT$usize$GT$$u20$as$u20$core..slice..SliceIndex$LT$$u5b$T$u5d$$GT$$GT$9index_mut17h796666a4f0f6443bE:
	.cfi_startproc
	pushq	%rbp
	.cfi_def_cfa_offset 16
	.cfi_offset %rbp, -16
	movq	%rsp, %rbp
	.cfi_def_cfa_register %rbp
	subq	$64, %rsp
	movq	$0, -16(%rbp)
	movq	%rdi, -8(%rbp)
	movq	-16(%rbp), %rdi
	movq	-8(%rbp), %rax
	movq	%rsi, -24(%rbp)
	movq	%rax, %rsi
	movq	-24(%rbp), %rax
	movq	%rdx, -32(%rbp)
	movq	%rax, %rdx
	movq	-32(%rbp), %r8
	movq	%rcx, -40(%rbp)
	movq	%r8, %rcx
	movq	-40(%rbp), %r8
	callq	__ZN99_$LT$core..ops..range..Range$LT$usize$GT$$u20$as$u20$core..slice..SliceIndex$LT$$u5b$T$u5d$$GT$$GT$9index_mut17h116c0f9cb8997e72E
	movq	%rax, -48(%rbp)
	movq	%rdx, -56(%rbp)
	movq	-48(%rbp), %rax
	movq	-56(%rbp), %rdx
	addq	$64, %rsp
	popq	%rbp
	retq
	.cfi_endproc

	.globl	__ZN101_$LT$std..panic..AssertUnwindSafe$LT$F$GT$$u20$as$u20$core..ops..function..FnOnce$LT$$LP$$RP$$GT$$GT$9call_once17h19da7a344fa83fb3E
	.p2align	4, 0x90
__ZN101_$LT$std..panic..AssertUnwindSafe$LT$F$GT$$u20$as$u20$core..ops..function..FnOnce$LT$$LP$$RP$$GT$$GT$9call_once17h19da7a344fa83fb3E:
	.cfi_startproc
	pushq	%rbp
	.cfi_def_cfa_offset 16
	.cfi_offset %rbp, -16
	movq	%rsp, %rbp
	.cfi_def_cfa_register %rbp
	subq	$64, %rsp
	leaq	-40(%rbp), %rax
	movq	%rax, %rcx
	movq	%rdi, -56(%rbp)
	movq	%rcx, %rdi
	movq	-56(%rbp), %rsi
	movl	$40, %edx
	movq	%rax, -64(%rbp)
	callq	_memcpy
	movq	-64(%rbp), %rdi
	callq	__ZN3std6thread7Builder15spawn_unchecked28_$u7b$$u7b$closure$u7d$$u7d$28_$u7b$$u7b$closure$u7d$$u7d$17hf7eec64bb825b9acE
	addq	$64, %rsp
	popq	%rbp
	retq
	.cfi_endproc

	.globl	__ZN103_$LT$core..iter..adapters..FilterMap$LT$I$C$F$GT$$u20$as$u20$core..iter..traits..iterator..Iterator$GT$4next17he43359a6b6e51076E
	.p2align	4, 0x90
__ZN103_$LT$core..iter..adapters..FilterMap$LT$I$C$F$GT$$u20$as$u20$core..iter..traits..iterator..Iterator$GT$4next17he43359a6b6e51076E:
	.cfi_startproc
	pushq	%rbp
	.cfi_def_cfa_offset 16
	.cfi_offset %rbp, -16
	movq	%rsp, %rbp
	.cfi_def_cfa_register %rbp
	subq	$16, %rsp
	movq	%rdi, %rax
	movq	%rsi, %rcx
	movq	%rsi, -8(%rbp)
	movq	%rcx, %rsi
	movq	-8(%rbp), %rdx
	movq	%rax, -16(%rbp)
	callq	__ZN4core4iter6traits8iterator8Iterator8find_map17h9c4f75ffe5de9cbcE
	movq	-16(%rbp), %rax
	addq	$16, %rsp
	popq	%rbp
	retq
	.cfi_endproc

	.globl	__ZN103_$LT$core..ops..range..RangeFrom$LT$usize$GT$$u20$as$u20$core..slice..SliceIndex$LT$$u5b$T$u5d$$GT$$GT$13get_unchecked17h000cfc3601e22c92E
	.p2align	4, 0x90
__ZN103_$LT$core..ops..range..RangeFrom$LT$usize$GT$$u20$as$u20$core..slice..SliceIndex$LT$$u5b$T$u5d$$GT$$GT$13get_unchecked17h000cfc3601e22c92E:
	.cfi_startproc
	pushq	%rbp
	.cfi_def_cfa_offset 16
	.cfi_offset %rbp, -16
	movq	%rsp, %rbp
	.cfi_def_cfa_register %rbp
	subq	$64, %rsp
	movq	%rdi, -24(%rbp)
	movq	%rsi, %rdi
	movq	%rsi, -32(%rbp)
	movq	%rdx, %rsi
	movq	%rdx, -40(%rbp)
	callq	__ZN4core3ptr9const_ptr43_$LT$impl$u20$$BP$const$u20$$u5b$T$u5d$$GT$3len17h3c939e87f1379370E
	movq	%rax, -48(%rbp)
	movq	-24(%rbp), %rax
	movq	%rax, -16(%rbp)
	movq	-48(%rbp), %rcx
	movq	%rcx, -8(%rbp)
	movq	-16(%rbp), %rdi
	movq	-8(%rbp), %rsi
	movq	-32(%rbp), %rdx
	movq	-40(%rbp), %rcx
	callq	__ZN99_$LT$core..ops..range..Range$LT$usize$GT$$u20$as$u20$core..slice..SliceIndex$LT$$u5b$T$u5d$$GT$$GT$13get_unchecked17hdc39fc672b706a50E
	movq	%rax, -56(%rbp)
	movq	%rdx, -64(%rbp)
	movq	-56(%rbp), %rax
	movq	-64(%rbp), %rdx
	addq	$64, %rsp
	popq	%rbp
	retq
	.cfi_endproc

	.globl	__ZN103_$LT$core..ops..range..RangeFrom$LT$usize$GT$$u20$as$u20$core..slice..SliceIndex$LT$$u5b$T$u5d$$GT$$GT$17get_unchecked_mut17hb6ce2604fdad3901E
	.p2align	4, 0x90
__ZN103_$LT$core..ops..range..RangeFrom$LT$usize$GT$$u20$as$u20$core..slice..SliceIndex$LT$$u5b$T$u5d$$GT$$GT$17get_unchecked_mut17hb6ce2604fdad3901E:
	.cfi_startproc
	pushq	%rbp
	.cfi_def_cfa_offset 16
	.cfi_offset %rbp, -16
	movq	%rsp, %rbp
	.cfi_def_cfa_register %rbp
	subq	$64, %rsp
	movq	%rdi, -24(%rbp)
	movq	%rsi, %rdi
	movq	%rsi, -32(%rbp)
	movq	%rdx, %rsi
	movq	%rdx, -40(%rbp)
	callq	__ZN4core3ptr7mut_ptr41_$LT$impl$u20$$BP$mut$u20$$u5b$T$u5d$$GT$3len17h973f171afd061a61E
	movq	%rax, -48(%rbp)
	movq	-24(%rbp), %rax
	movq	%rax, -16(%rbp)
	movq	-48(%rbp), %rcx
	movq	%rcx, -8(%rbp)
	movq	-16(%rbp), %rdi
	movq	-8(%rbp), %rsi
	movq	-32(%rbp), %rdx
	movq	-40(%rbp), %rcx
	callq	__ZN99_$LT$core..ops..range..Range$LT$usize$GT$$u20$as$u20$core..slice..SliceIndex$LT$$u5b$T$u5d$$GT$$GT$17get_unchecked_mut17h9ed9b9c274006c8dE
	movq	%rax, -56(%rbp)
	movq	%rdx, -64(%rbp)
	movq	-56(%rbp), %rax
	movq	-64(%rbp), %rdx
	addq	$64, %rsp
	popq	%rbp
	retq
	.cfi_endproc

	.globl	__ZN103_$LT$core..ops..range..RangeFrom$LT$usize$GT$$u20$as$u20$core..slice..SliceIndex$LT$$u5b$T$u5d$$GT$$GT$5index17h3ad77bcb70d2632bE
	.p2align	4, 0x90
__ZN103_$LT$core..ops..range..RangeFrom$LT$usize$GT$$u20$as$u20$core..slice..SliceIndex$LT$$u5b$T$u5d$$GT$$GT$5index17h3ad77bcb70d2632bE:
	.cfi_startproc
	pushq	%rbp
	.cfi_def_cfa_offset 16
	.cfi_offset %rbp, -16
	movq	%rsp, %rbp
	.cfi_def_cfa_register %rbp
	subq	$64, %rsp
	movq	%rdi, -8(%rbp)
	movq	%rsi, %rdi
	movq	%rsi, -16(%rbp)
	movq	%rdx, %rsi
	movq	%rdx, -24(%rbp)
	movq	%rcx, -32(%rbp)
	callq	__ZN4core5slice29_$LT$impl$u20$$u5b$T$u5d$$GT$3len17hd9e2da0297fc4131E
	movq	%rax, -40(%rbp)
	movq	-8(%rbp), %rax
	movq	-40(%rbp), %rcx
	cmpq	%rcx, %rax
	ja	LBB14_3
	movq	-8(%rbp), %rdi
	movq	-16(%rbp), %rsi
	movq	-24(%rbp), %rdx
	callq	__ZN103_$LT$core..ops..range..RangeFrom$LT$usize$GT$$u20$as$u20$core..slice..SliceIndex$LT$$u5b$T$u5d$$GT$$GT$13get_unchecked17h000cfc3601e22c92E
	movq	%rax, -48(%rbp)
	movq	%rdx, -56(%rbp)
	jmp	LBB14_5
LBB14_3:
	movq	-16(%rbp), %rdi
	movq	-24(%rbp), %rsi
	callq	__ZN4core5slice29_$LT$impl$u20$$u5b$T$u5d$$GT$3len17hd9e2da0297fc4131E
	movq	%rax, -64(%rbp)
	movq	-8(%rbp), %rdi
	movq	-64(%rbp), %rsi
	movq	-32(%rbp), %rdx
	callq	__ZN4core5slice26slice_start_index_len_fail17h787e2f1bbfc1d2f3E
LBB14_5:
	movq	-48(%rbp), %rax
	movq	-56(%rbp), %rdx
	addq	$64, %rsp
	popq	%rbp
	retq
	.cfi_endproc

	.globl	__ZN103_$LT$core..ops..range..RangeFrom$LT$usize$GT$$u20$as$u20$core..slice..SliceIndex$LT$$u5b$T$u5d$$GT$$GT$9index_mut17h9146fe244b08f3dbE
	.p2align	4, 0x90
__ZN103_$LT$core..ops..range..RangeFrom$LT$usize$GT$$u20$as$u20$core..slice..SliceIndex$LT$$u5b$T$u5d$$GT$$GT$9index_mut17h9146fe244b08f3dbE:
	.cfi_startproc
	pushq	%rbp
	.cfi_def_cfa_offset 16
	.cfi_offset %rbp, -16
	movq	%rsp, %rbp
	.cfi_def_cfa_register %rbp
	subq	$64, %rsp
	movq	%rdi, -8(%rbp)
	movq	%rsi, %rdi
	movq	%rsi, -16(%rbp)
	movq	%rdx, %rsi
	movq	%rdx, -24(%rbp)
	movq	%rcx, -32(%rbp)
	callq	__ZN4core5slice29_$LT$impl$u20$$u5b$T$u5d$$GT$3len17hd9e2da0297fc4131E
	movq	%rax, -40(%rbp)
	movq	-8(%rbp), %rax
	movq	-40(%rbp), %rcx
	cmpq	%rcx, %rax
	ja	LBB15_3
	movq	-8(%rbp), %rdi
	movq	-16(%rbp), %rsi
	movq	-24(%rbp), %rdx
	callq	__ZN103_$LT$core..ops..range..RangeFrom$LT$usize$GT$$u20$as$u20$core..slice..SliceIndex$LT$$u5b$T$u5d$$GT$$GT$17get_unchecked_mut17hb6ce2604fdad3901E
	movq	%rax, -48(%rbp)
	movq	%rdx, -56(%rbp)
	jmp	LBB15_5
LBB15_3:
	movq	-16(%rbp), %rdi
	movq	-24(%rbp), %rsi
	callq	__ZN4core5slice29_$LT$impl$u20$$u5b$T$u5d$$GT$3len17hd9e2da0297fc4131E
	movq	%rax, -64(%rbp)
	movq	-8(%rbp), %rdi
	movq	-64(%rbp), %rsi
	movq	-32(%rbp), %rdx
	callq	__ZN4core5slice26slice_start_index_len_fail17h787e2f1bbfc1d2f3E
LBB15_5:
	movq	-48(%rbp), %rax
	movq	-56(%rbp), %rdx
	addq	$64, %rsp
	popq	%rbp
	retq
	.cfi_endproc

	.globl	__ZN105_$LT$std..collections..hash..map..Iter$LT$K$C$V$GT$$u20$as$u20$core..iter..traits..iterator..Iterator$GT$4next17h1b555f3b5e7fdaa5E
	.p2align	4, 0x90
__ZN105_$LT$std..collections..hash..map..Iter$LT$K$C$V$GT$$u20$as$u20$core..iter..traits..iterator..Iterator$GT$4next17h1b555f3b5e7fdaa5E:
	.cfi_startproc
	pushq	%rbp
	.cfi_def_cfa_offset 16
	.cfi_offset %rbp, -16
	movq	%rsp, %rbp
	.cfi_def_cfa_register %rbp
	subq	$16, %rsp
	callq	__ZN92_$LT$hashbrown..map..Iter$LT$K$C$V$GT$$u20$as$u20$core..iter..traits..iterator..Iterator$GT$4next17hc087bd1eb6e3344eE
	movq	%rax, -8(%rbp)
	movq	%rdx, -16(%rbp)
	movq	-8(%rbp), %rax
	movq	-16(%rbp), %rdx
	addq	$16, %rsp
	popq	%rbp
	retq
	.cfi_endproc

	.globl	__ZN105_$LT$std..collections..hash..map..Iter$LT$K$C$V$GT$$u20$as$u20$core..iter..traits..iterator..Iterator$GT$4next17h5271d8a34c925953E
	.p2align	4, 0x90
__ZN105_$LT$std..collections..hash..map..Iter$LT$K$C$V$GT$$u20$as$u20$core..iter..traits..iterator..Iterator$GT$4next17h5271d8a34c925953E:
	.cfi_startproc
	pushq	%rbp
	.cfi_def_cfa_offset 16
	.cfi_offset %rbp, -16
	movq	%rsp, %rbp
	.cfi_def_cfa_register %rbp
	subq	$16, %rsp
	callq	__ZN92_$LT$hashbrown..map..Iter$LT$K$C$V$GT$$u20$as$u20$core..iter..traits..iterator..Iterator$GT$4next17ha18313e05b480851E
	movq	%rax, -8(%rbp)
	movq	%rdx, -16(%rbp)
	movq	-8(%rbp), %rax
	movq	-16(%rbp), %rdx
	addq	$16, %rsp
	popq	%rbp
	retq
	.cfi_endproc

	.p2align	4, 0x90
__ZN105_$LT$std..ffi..os_str..OsString$u20$as$u20$core..ops..index..Index$LT$core..ops..range..RangeFull$GT$$GT$5index17h1067fdbf49b34e35E:
	.cfi_startproc
	pushq	%rbp
	.cfi_def_cfa_offset 16
	.cfi_offset %rbp, -16
	movq	%rsp, %rbp
	.cfi_def_cfa_register %rbp
	subq	$48, %rsp
	movq	%rsi, -8(%rbp)
	callq	__ZN3std10sys_common12os_str_bytes3Buf8as_slice17h28409efff5383405E
	movq	%rax, -16(%rbp)
	movq	%rdx, -24(%rbp)
	movq	-16(%rbp), %rdi
	movq	-24(%rbp), %rsi
	callq	__ZN3std3ffi6os_str5OsStr10from_inner17ha80a537b49e0a1eaE
	movq	%rax, -32(%rbp)
	movq	%rdx, -40(%rbp)
	movq	-32(%rbp), %rax
	movq	-40(%rbp), %rdx
	addq	$48, %rsp
	popq	%rbp
	retq
	.cfi_endproc

	.globl	__ZN106_$LT$core..iter..adapters..chain..Chain$LT$A$C$B$GT$$u20$as$u20$core..iter..traits..iterator..Iterator$GT$4fold17h6dbdb5b4ef81faafE
	.p2align	4, 0x90
__ZN106_$LT$core..iter..adapters..chain..Chain$LT$A$C$B$GT$$u20$as$u20$core..iter..traits..iterator..Iterator$GT$4fold17h6dbdb5b4ef81faafE:
Lfunc_begin0:
	.cfi_startproc
	.cfi_personality 155, _rust_eh_personality
	.cfi_lsda 16, Lexception0
	pushq	%rbp
	.cfi_def_cfa_offset 16
	.cfi_offset %rbp, -16
	movq	%rsp, %rbp
	.cfi_def_cfa_register %rbp
	subq	$64, %rsp
	xorl	%eax, %eax
	movl	%eax, %ecx
	movq	%rsi, -32(%rbp)
	movb	$0, -18(%rbp)
	movb	$0, -17(%rbp)
	movb	$0, -19(%rbp)
	movb	$1, -19(%rbp)
	movb	$1, -18(%rbp)
	movb	$1, -17(%rbp)
	cmpq	$0, (%rdi)
	movl	$1, %edx
	cmovbeq	%rcx, %rdx
	cmpq	$1, %rdx
	movq	%rdi, -40(%rbp)
	je	LBB19_3
	jmp	LBB19_2
LBB19_1:
	movq	-16(%rbp), %rdi
	callq	__Unwind_Resume
	ud2
LBB19_2:
	jmp	LBB19_6
LBB19_3:
	movb	$0, -18(%rbp)
	movq	-40(%rbp), %rax
	movq	(%rax), %rdi
	movq	8(%rax), %rsi
	movq	-32(%rbp), %rdx
Ltmp0:
	leaq	-24(%rbp), %rcx
	callq	__ZN4core4iter6traits8iterator8Iterator4fold17h0f5117b7f509fa49E
Ltmp1:
	movq	%rax, -48(%rbp)
	jmp	LBB19_4
LBB19_4:
	movq	-48(%rbp), %rax
	movq	%rax, -32(%rbp)
	jmp	LBB19_6
LBB19_5:
	xorl	%eax, %eax
	movl	%eax, %ecx
	movq	-40(%rbp), %rdx
	cmpq	$0, (%rdx)
	movl	$1, %esi
	cmovbeq	%rcx, %rsi
	cmpq	$1, %rsi
	je	LBB19_15
	jmp	LBB19_14
LBB19_6:
	xorl	%eax, %eax
	movl	%eax, %ecx
	movq	-40(%rbp), %rdx
	cmpq	$0, 16(%rdx)
	movl	$1, %esi
	cmovbeq	%rcx, %rsi
	cmpq	$1, %rsi
	je	LBB19_8
	jmp	LBB19_10
LBB19_8:
	movb	$0, -19(%rbp)
	movq	-40(%rbp), %rax
	movq	16(%rax), %rdi
	movq	24(%rax), %rsi
	movq	-32(%rbp), %rdx
	movb	$0, -17(%rbp)
Ltmp2:
	callq	__ZN4core4iter6traits8iterator8Iterator4fold17h936cbddadd89bb1dE
Ltmp3:
	movq	%rax, -56(%rbp)
	jmp	LBB19_9
LBB19_9:
	movq	-56(%rbp), %rax
	movq	%rax, -32(%rbp)
LBB19_10:
	movq	-32(%rbp), %rax
	testb	$1, -17(%rbp)
	movq	%rax, -64(%rbp)
	jne	LBB19_19
LBB19_11:
	xorl	%eax, %eax
	movl	%eax, %ecx
	movq	-40(%rbp), %rdx
	cmpq	$0, (%rdx)
	movl	$1, %esi
	cmovbeq	%rcx, %rsi
	cmpq	$1, %rsi
	je	LBB19_24
	jmp	LBB19_23
LBB19_12:
	testb	$1, -19(%rbp)
	je	LBB19_1
	movb	$0, -19(%rbp)
	jmp	LBB19_1
LBB19_14:
	xorl	%eax, %eax
	movl	%eax, %ecx
	movq	-40(%rbp), %rdx
	cmpq	$0, 16(%rdx)
	movl	$1, %esi
	cmovbeq	%rcx, %rsi
	cmpq	$1, %rsi
	je	LBB19_12
	jmp	LBB19_1
LBB19_15:
	testb	$1, -18(%rbp)
	je	LBB19_14
	movb	$0, -18(%rbp)
	jmp	LBB19_14
LBB19_17:
	movb	$0, -17(%rbp)
	jmp	LBB19_5
LBB19_18:
	testb	$1, -17(%rbp)
	jne	LBB19_17
	jmp	LBB19_5
LBB19_19:
	movb	$0, -17(%rbp)
	jmp	LBB19_11
LBB19_20:
	movq	-64(%rbp), %rax
	addq	$64, %rsp
	popq	%rbp
	retq
LBB19_21:
	testb	$1, -19(%rbp)
	je	LBB19_20
	movb	$0, -19(%rbp)
	jmp	LBB19_20
LBB19_23:
	xorl	%eax, %eax
	movl	%eax, %ecx
	movq	-40(%rbp), %rdx
	cmpq	$0, 16(%rdx)
	movl	$1, %esi
	cmovbeq	%rcx, %rsi
	cmpq	$1, %rsi
	je	LBB19_21
	jmp	LBB19_20
LBB19_24:
	testb	$1, -18(%rbp)
	je	LBB19_23
	movb	$0, -18(%rbp)
	jmp	LBB19_23
LBB19_26:
Ltmp4:
	movq	%rax, -16(%rbp)
	movl	%edx, -8(%rbp)
	jmp	LBB19_18
Lfunc_end0:
	.cfi_endproc
	.section	__TEXT,__gcc_except_tab
	.p2align	2
GCC_except_table19:
Lexception0:
	.byte	255
	.byte	255
	.byte	1
	.uleb128 Lcst_end0-Lcst_begin0
Lcst_begin0:
	.uleb128 Lfunc_begin0-Lfunc_begin0
	.uleb128 Ltmp0-Lfunc_begin0
	.byte	0
	.byte	0
	.uleb128 Ltmp0-Lfunc_begin0
	.uleb128 Ltmp3-Ltmp0
	.uleb128 Ltmp4-Lfunc_begin0
	.byte	0
Lcst_end0:
	.p2align	2

	.section	__TEXT,__text,regular,pure_instructions
	.globl	__ZN106_$LT$core..iter..adapters..chain..Chain$LT$A$C$B$GT$$u20$as$u20$core..iter..traits..iterator..Iterator$GT$4next17h4e8383fcf2cca84dE
	.p2align	4, 0x90
__ZN106_$LT$core..iter..adapters..chain..Chain$LT$A$C$B$GT$$u20$as$u20$core..iter..traits..iterator..Iterator$GT$4next17h4e8383fcf2cca84dE:
Lfunc_begin1:
	.cfi_startproc
	.cfi_personality 155, _rust_eh_personality
	.cfi_lsda 16, Lexception1
	pushq	%rbp
	.cfi_def_cfa_offset 16
	.cfi_offset %rbp, -16
	movq	%rsp, %rbp
	.cfi_def_cfa_register %rbp
	subq	$80, %rsp
	movb	$0, -18(%rbp)
	movb	$0, -17(%rbp)
	movq	(%rdi), %rax
	testq	%rax, %rax
	setne	%cl
	movzbl	%cl, %edx
	movl	%edx, %eax
	movq	%rdi, -72(%rbp)
	je	LBB20_2
	jmp	LBB20_24
LBB20_24:
	jmp	LBB20_4
LBB20_1:
	movq	-16(%rbp), %rdi
	callq	__Unwind_Resume
	ud2
LBB20_2:
	movb	$1, -17(%rbp)
	movq	$0, -56(%rbp)
	jmp	LBB20_10
	ud2
LBB20_4:
	movq	-72(%rbp), %rax
	movb	$1, -18(%rbp)
	movq	%rax, %rdi
	callq	__ZN85_$LT$core..slice..Iter$LT$T$GT$$u20$as$u20$core..iter..traits..iterator..Iterator$GT$4next17hacdc8c5e6fa31bb9E
	movq	%rax, -48(%rbp)
	xorl	%eax, %eax
	movl	%eax, %ecx
	cmpq	$0, -48(%rbp)
	movl	$1, %edx
	cmovbeq	%rcx, %rdx
	cmpq	$0, %rdx
	je	LBB20_7
	movb	$0, -18(%rbp)
	movq	-48(%rbp), %rax
	movb	$1, -17(%rbp)
	movq	%rax, -56(%rbp)
	jmp	LBB20_8
LBB20_7:
	movq	$0, -40(%rbp)
	jmp	LBB20_19
LBB20_8:
	testb	$1, -18(%rbp)
	jne	LBB20_20
LBB20_9:
	movb	$0, -18(%rbp)
LBB20_10:
	xorl	%eax, %eax
	movl	%eax, %ecx
	cmpq	$0, -56(%rbp)
	movl	$1, %edx
	cmovbeq	%rcx, %rdx
	cmpq	$0, %rdx
	je	LBB20_12
	movb	$0, -17(%rbp)
	movq	-56(%rbp), %rax
	movq	%rax, -64(%rbp)
	jmp	LBB20_22
LBB20_12:
	movq	-72(%rbp), %rax
	movq	16(%rax), %rcx
	testq	%rcx, %rcx
	setne	%dl
	movzbl	%dl, %esi
	movl	%esi, %ecx
	je	LBB20_13
	jmp	LBB20_25
LBB20_25:
	jmp	LBB20_15
LBB20_13:
	movq	$0, -64(%rbp)
	jmp	LBB20_22
	ud2
LBB20_15:
	movq	-72(%rbp), %rax
	addq	$16, %rax
Ltmp5:
	movq	%rax, %rdi
	callq	__ZN85_$LT$core..slice..Iter$LT$T$GT$$u20$as$u20$core..iter..traits..iterator..Iterator$GT$4next17hacdc8c5e6fa31bb9E
Ltmp6:
	movq	%rax, -80(%rbp)
	jmp	LBB20_16
LBB20_16:
	movq	-80(%rbp), %rax
	movq	%rax, -64(%rbp)
	jmp	LBB20_22
LBB20_17:
	movb	$0, -17(%rbp)
	jmp	LBB20_1
LBB20_18:
	movb	$0, -17(%rbp)
	movq	-64(%rbp), %rax
	addq	$80, %rsp
	popq	%rbp
	retq
LBB20_19:
	movq	-40(%rbp), %rax
	movq	-32(%rbp), %rcx
	movq	-72(%rbp), %rdx
	movq	%rax, (%rdx)
	movq	%rcx, 8(%rdx)
	movb	$1, -17(%rbp)
	movq	$0, -56(%rbp)
	jmp	LBB20_8
LBB20_20:
	movb	$0, -18(%rbp)
	jmp	LBB20_9
LBB20_21:
	movb	$0, -17(%rbp)
	jmp	LBB20_18
LBB20_22:
	testb	$1, -17(%rbp)
	jne	LBB20_21
	jmp	LBB20_18
LBB20_23:
Ltmp7:
	movq	%rax, -16(%rbp)
	movl	%edx, -8(%rbp)
	jmp	LBB20_17
Lfunc_end1:
	.cfi_endproc
	.section	__TEXT,__gcc_except_tab
	.p2align	2
GCC_except_table20:
Lexception1:
	.byte	255
	.byte	255
	.byte	1
	.uleb128 Lcst_end1-Lcst_begin1
Lcst_begin1:
	.uleb128 Lfunc_begin1-Lfunc_begin1
	.uleb128 Ltmp5-Lfunc_begin1
	.byte	0
	.byte	0
	.uleb128 Ltmp5-Lfunc_begin1
	.uleb128 Ltmp6-Ltmp5
	.uleb128 Ltmp7-Lfunc_begin1
	.byte	0
Lcst_end1:
	.p2align	2

	.section	__TEXT,__text,regular,pure_instructions
	.globl	__ZN108_$LT$core..ops..range..RangeInclusive$LT$usize$GT$$u20$as$u20$core..slice..SliceIndex$LT$$u5b$T$u5d$$GT$$GT$5index17h9b318b3347ce19beE
	.p2align	4, 0x90
__ZN108_$LT$core..ops..range..RangeInclusive$LT$usize$GT$$u20$as$u20$core..slice..SliceIndex$LT$$u5b$T$u5d$$GT$$GT$5index17h9b318b3347ce19beE:
	.cfi_startproc
	pushq	%rbp
	.cfi_def_cfa_offset 16
	.cfi_offset %rbp, -16
	movq	%rsp, %rbp
	.cfi_def_cfa_register %rbp
	subq	$112, %rsp
	movq	%rdi, -24(%rbp)
	movq	%rsi, -32(%rbp)
	movq	%rdx, -40(%rbp)
	movq	%rcx, -48(%rbp)
	callq	__ZN4core3ops5range25RangeInclusive$LT$Idx$GT$3end17hdf39271ec789102cE
	movq	%rax, -56(%rbp)
	movq	-56(%rbp), %rax
	cmpq	$-1, (%rax)
	je	LBB21_3
	movq	-24(%rbp), %rdi
	callq	__ZN4core3ops5range25RangeInclusive$LT$Idx$GT$5start17hc9836e8a89423afdE
	movq	%rax, -64(%rbp)
	jmp	LBB21_4
LBB21_3:
	movq	-48(%rbp), %rdi
	callq	__ZN4core5slice25slice_index_overflow_fail17h7c4b14b46862be2bE
LBB21_4:
	movq	-64(%rbp), %rax
	movq	(%rax), %rcx
	movq	-24(%rbp), %rdi
	movq	%rcx, -72(%rbp)
	callq	__ZN4core3ops5range25RangeInclusive$LT$Idx$GT$3end17hdf39271ec789102cE
	movq	%rax, -80(%rbp)
	movq	-80(%rbp), %rdi
	movl	$1, %esi
	callq	__ZN64_$LT$$RF$usize$u20$as$u20$core..ops..arith..Add$LT$usize$GT$$GT$3add17h5dfb164f4b82b8e7E
	movq	%rax, -88(%rbp)
	movq	-72(%rbp), %rax
	movq	%rax, -16(%rbp)
	movq	-88(%rbp), %rcx
	movq	%rcx, -8(%rbp)
	movq	-16(%rbp), %rdi
	movq	-8(%rbp), %rsi
	movq	-32(%rbp), %rdx
	movq	-40(%rbp), %rcx
	movq	-48(%rbp), %r8
	callq	__ZN99_$LT$core..ops..range..Range$LT$usize$GT$$u20$as$u20$core..slice..SliceIndex$LT$$u5b$T$u5d$$GT$$GT$5index17h0f4debf2f3066d1bE
	movq	%rax, -96(%rbp)
	movq	%rdx, -104(%rbp)
	movq	-96(%rbp), %rax
	movq	-104(%rbp), %rdx
	addq	$112, %rsp
	popq	%rbp
	retq
	.cfi_endproc

	.globl	__ZN109_$LT$alloc..vec..Vec$LT$T$GT$$u20$as$u20$alloc..vec..SpecExtend$LT$$RF$T$C$core..slice..Iter$LT$T$GT$$GT$$GT$11spec_extend17h7a1f35334866a683E
	.p2align	4, 0x90
__ZN109_$LT$alloc..vec..Vec$LT$T$GT$$u20$as$u20$alloc..vec..SpecExtend$LT$$RF$T$C$core..slice..Iter$LT$T$GT$$GT$$GT$11spec_extend17h7a1f35334866a683E:
	.cfi_startproc
	pushq	%rbp
	.cfi_def_cfa_offset 16
	.cfi_offset %rbp, -16
	movq	%rsp, %rbp
	.cfi_def_cfa_register %rbp
	subq	$112, %rsp
	movq	%rsi, -16(%rbp)
	movq	%rdx, -8(%rbp)
	leaq	-16(%rbp), %rax
	movq	%rdi, -24(%rbp)
	movq	%rax, %rdi
	callq	__ZN4core5slice13Iter$LT$T$GT$8as_slice17h26724ba6eaf7f959E
	movq	%rax, -32(%rbp)
	movq	%rdx, -40(%rbp)
	movq	-32(%rbp), %rdi
	movq	-40(%rbp), %rsi
	callq	__ZN4core5slice29_$LT$impl$u20$$u5b$T$u5d$$GT$3len17hd9e2da0297fc4131E
	movq	%rax, -48(%rbp)
	movq	-24(%rbp), %rdi
	movq	-48(%rbp), %rsi
	callq	__ZN5alloc3vec12Vec$LT$T$GT$7reserve17hdfed9f9290b4b212E
	movq	-24(%rbp), %rdi
	callq	__ZN5alloc3vec12Vec$LT$T$GT$3len17h6917bd9ced0df80aE
	movq	%rax, -56(%rbp)
	movq	-24(%rbp), %rdi
	callq	__ZN5alloc3vec12Vec$LT$T$GT$10as_mut_ptr17h94c20b5a6d907a8bE
	movq	%rax, -64(%rbp)
	movq	-64(%rbp), %rdi
	movq	-56(%rbp), %rsi
	callq	__ZN4core3ptr7mut_ptr31_$LT$impl$u20$$BP$mut$u20$T$GT$3add17h9cc650bd18758de0E
	movq	%rax, -72(%rbp)
	movq	-32(%rbp), %rdi
	movq	-40(%rbp), %rsi
	callq	__ZN4core5slice29_$LT$impl$u20$$u5b$T$u5d$$GT$3len17hd9e2da0297fc4131E
	movq	%rax, -80(%rbp)
	movq	-72(%rbp), %rdi
	movq	-80(%rbp), %rsi
	callq	__ZN4core5slice18from_raw_parts_mut17h36080dcbda0547f1E
	movq	%rax, -88(%rbp)
	movq	%rdx, -96(%rbp)
	movq	-88(%rbp), %rdi
	movq	-96(%rbp), %rsi
	movq	-32(%rbp), %rdx
	movq	-40(%rbp), %rcx
	callq	__ZN4core5slice29_$LT$impl$u20$$u5b$T$u5d$$GT$15copy_from_slice17hf1c6e5240533a51eE
	movq	-32(%rbp), %rdi
	movq	-40(%rbp), %rsi
	callq	__ZN4core5slice29_$LT$impl$u20$$u5b$T$u5d$$GT$3len17hd9e2da0297fc4131E
	movq	%rax, -104(%rbp)
	movq	-56(%rbp), %rax
	movq	-104(%rbp), %rcx
	addq	%rcx, %rax
	movq	-24(%rbp), %rdi
	movq	%rax, %rsi
	callq	__ZN5alloc3vec12Vec$LT$T$GT$7set_len17h8c5ddc4b256185dcE
	addq	$112, %rsp
	popq	%rbp
	retq
	.cfi_endproc

	.globl	__ZN110_$LT$core..ops..range..RangeToInclusive$LT$usize$GT$$u20$as$u20$core..slice..SliceIndex$LT$$u5b$T$u5d$$GT$$GT$5index17hb29792831ffbc371E
	.p2align	4, 0x90
__ZN110_$LT$core..ops..range..RangeToInclusive$LT$usize$GT$$u20$as$u20$core..slice..SliceIndex$LT$$u5b$T$u5d$$GT$$GT$5index17hb29792831ffbc371E:
	.cfi_startproc
	pushq	%rbp
	.cfi_def_cfa_offset 16
	.cfi_offset %rbp, -16
	movq	%rsp, %rbp
	.cfi_def_cfa_register %rbp
	subq	$80, %rsp
	xorl	%eax, %eax
	movl	%eax, %r8d
	leaq	-24(%rbp), %r9
	movq	%rdi, -32(%rbp)
	movq	%r9, %rdi
	movq	%rsi, -40(%rbp)
	movq	%r8, %rsi
	movq	-32(%rbp), %r8
	movq	%rdx, -48(%rbp)
	movq	%r8, %rdx
	movq	%rcx, -56(%rbp)
	callq	__ZN4core3ops5range25RangeInclusive$LT$Idx$GT$3new17hd91885ee9e086fe6E
	leaq	-24(%rbp), %rdi
	movq	-40(%rbp), %rsi
	movq	-48(%rbp), %rdx
	movq	-56(%rbp), %rcx
	callq	__ZN108_$LT$core..ops..range..RangeInclusive$LT$usize$GT$$u20$as$u20$core..slice..SliceIndex$LT$$u5b$T$u5d$$GT$$GT$5index17h9b318b3347ce19beE
	movq	%rax, -64(%rbp)
	movq	%rdx, -72(%rbp)
	movq	-64(%rbp), %rax
	movq	-72(%rbp), %rdx
	addq	$80, %rsp
	popq	%rbp
	retq
	.cfi_endproc

	.globl	__ZN112_$LT$alloc..collections..btree..map..IntoIter$LT$K$C$V$GT$$u20$as$u20$core..iter..traits..iterator..Iterator$GT$4next17h782de5268fbf2452E
	.p2align	4, 0x90
__ZN112_$LT$alloc..collections..btree..map..IntoIter$LT$K$C$V$GT$$u20$as$u20$core..iter..traits..iterator..Iterator$GT$4next17h782de5268fbf2452E:
	.cfi_startproc
	pushq	%rbp
	.cfi_def_cfa_offset 16
	.cfi_offset %rbp, -16
	movq	%rsp, %rbp
	.cfi_def_cfa_register %rbp
	subq	$96, %rsp
	movq	%rdi, %rax
	cmpq	$0, 64(%rsi)
	movq	%rsi, -56(%rbp)
	movq	%rdi, -64(%rbp)
	movq	%rax, -72(%rbp)
	je	LBB24_2
	movq	-56(%rbp), %rax
	movq	64(%rax), %rcx
	subq	$1, %rcx
	movq	%rcx, 64(%rax)
	movq	%rax, %rdi
	callq	__ZN4core6option15Option$LT$T$GT$6as_mut17ha40c20a9c08d1f5aE
	movq	%rax, -80(%rbp)
	jmp	LBB24_3
LBB24_2:
	movq	-64(%rbp), %rax
	movq	$0, (%rax)
	jmp	LBB24_6
LBB24_3:
	leaq	l___unnamed_1(%rip), %rax
	movq	-80(%rbp), %rdi
	movq	%rax, %rsi
	callq	__ZN4core6option15Option$LT$T$GT$6unwrap17h786414a11316a278E
	movq	%rax, -88(%rbp)
	leaq	-48(%rbp), %rdi
	movq	-88(%rbp), %rsi
	callq	__ZN5alloc11collections5btree8navigate263_$LT$impl$u20$alloc..collections..btree..node..Handle$LT$alloc..collections..btree..node..NodeRef$LT$alloc..collections..btree..node..marker..Owned$C$K$C$V$C$alloc..collections..btree..node..marker..Leaf$GT$$C$alloc..collections..btree..node..marker..Edge$GT$$GT$14next_unchecked17hc60d2b1a6bd728b3E
	movq	-64(%rbp), %rax
	leaq	-48(%rbp), %rcx
	movq	%rax, %rdi
	movq	%rcx, %rsi
	movl	$48, %edx
	callq	_memcpy
LBB24_6:
	movq	-72(%rbp), %rax
	addq	$96, %rsp
	popq	%rbp
	retq
	.cfi_endproc

	.p2align	4, 0x90
__ZN113_$LT$alloc..string..String$u20$as$u20$core..ops..index..Index$LT$core..ops..range..RangeFrom$LT$usize$GT$$GT$$GT$5index17hb696dc834a7e2364E:
	.cfi_startproc
	pushq	%rbp
	.cfi_def_cfa_offset 16
	.cfi_offset %rbp, -16
	movq	%rsp, %rbp
	.cfi_def_cfa_register %rbp
	subq	$48, %rsp
	movq	%rsi, -8(%rbp)
	movq	%rdx, %rsi
	movq	%rdx, -16(%rbp)
	callq	__ZN100_$LT$alloc..string..String$u20$as$u20$core..ops..index..Index$LT$core..ops..range..RangeFull$GT$$GT$5index17h51ce575c2e8cb7e8E
	movq	%rax, -24(%rbp)
	movq	%rdx, -32(%rbp)
	movq	-24(%rbp), %rdi
	movq	-32(%rbp), %rsi
	movq	-8(%rbp), %rdx
	movq	-16(%rbp), %rcx
	callq	__ZN4core3str6traits66_$LT$impl$u20$core..ops..index..Index$LT$I$GT$$u20$for$u20$str$GT$5index17hbdcfcc282cc603f6E
	movq	%rax, -40(%rbp)
	movq	%rdx, -48(%rbp)
	movq	-40(%rbp), %rax
	movq	-48(%rbp), %rdx
	addq	$48, %rsp
	popq	%rbp
	retq
	.cfi_endproc

	.globl	__ZN115_$LT$alloc..collections..btree..map..BTreeMap$LT$K$C$V$GT$$u20$as$u20$core..iter..traits..collect..IntoIterator$GT$9into_iter17hccbb74ec889d8369E
	.p2align	4, 0x90
__ZN115_$LT$alloc..collections..btree..map..BTreeMap$LT$K$C$V$GT$$u20$as$u20$core..iter..traits..collect..IntoIterator$GT$9into_iter17hccbb74ec889d8369E:
	.cfi_startproc
	pushq	%rbp
	.cfi_def_cfa_offset 16
	.cfi_offset %rbp, -16
	movq	%rsp, %rbp
	.cfi_def_cfa_register %rbp
	subq	$464, %rsp
	movq	%rdi, %rax
	movq	(%rsi), %rcx
	movq	%rcx, -408(%rbp)
	movq	8(%rsi), %rcx
	movq	%rcx, -400(%rbp)
	movq	16(%rsi), %rcx
	movq	%rcx, -392(%rbp)
	movq	-408(%rbp), %rcx
	movq	%rcx, -24(%rbp)
	movq	-400(%rbp), %rcx
	movq	%rcx, -16(%rbp)
	movq	-392(%rbp), %rcx
	movq	%rcx, -8(%rbp)
	movq	-24(%rbp), %rcx
	movq	%rcx, -432(%rbp)
	movq	-16(%rbp), %rcx
	movq	%rcx, -424(%rbp)
	movq	-8(%rbp), %rcx
	movq	%rcx, -416(%rbp)
	movq	%rdi, -440(%rbp)
	movq	%rax, -448(%rbp)
	leaq	-432(%rbp), %rax
	movq	%rax, -456(%rbp)
	movq	-456(%rbp), %rdi
	callq	__ZN4core6option15Option$LT$T$GT$4take17h3eff6b90a9a5b7f0E
	movq	%rdx, -376(%rbp)
	movq	%rax, -384(%rbp)
	xorl	%eax, %eax
	movl	%eax, %ecx
	cmpq	$0, -384(%rbp)
	movl	$1, %edx
	cmovbeq	%rcx, %rdx
	cmpq	$1, %rdx
	je	LBB26_5
	movq	$0, -80(%rbp)
	movq	$0, -48(%rbp)
	movq	-88(%rbp), %rax
	movq	-440(%rbp), %rcx
	movq	%rax, (%rcx)
	movq	-80(%rbp), %rax
	movq	%rax, 8(%rcx)
	movq	-72(%rbp), %rax
	movq	%rax, 16(%rcx)
	movq	-64(%rbp), %rax
	movq	%rax, 24(%rcx)
	movq	-56(%rbp), %rax
	movq	%rax, 32(%rcx)
	movq	-48(%rbp), %rax
	movq	%rax, 40(%rcx)
	movq	-40(%rbp), %rax
	movq	%rax, 48(%rcx)
	movq	-32(%rbp), %rax
	movq	%rax, 56(%rcx)
	movq	$0, 64(%rcx)
	jmp	LBB26_9
LBB26_5:
	movq	-384(%rbp), %rsi
	movq	-376(%rbp), %rdx
	leaq	-240(%rbp), %rdi
	callq	__ZN5alloc11collections5btree4node17Root$LT$K$C$V$GT$8into_ref17hd8c72bc495f24fc5E
	leaq	-304(%rbp), %rdi
	leaq	-240(%rbp), %rsi
	callq	__ZN5alloc11collections5btree3map17full_range_search17h32c309631e8f0775E
	movq	-304(%rbp), %rax
	movq	%rax, -368(%rbp)
	movq	-296(%rbp), %rax
	movq	%rax, -360(%rbp)
	movq	-288(%rbp), %rax
	movq	%rax, -352(%rbp)
	movq	-280(%rbp), %rax
	movq	%rax, -344(%rbp)
	movq	-272(%rbp), %rax
	movq	%rax, -336(%rbp)
	movq	-264(%rbp), %rax
	movq	%rax, -328(%rbp)
	movq	-256(%rbp), %rax
	movq	%rax, -320(%rbp)
	movq	-248(%rbp), %rax
	movq	%rax, -312(%rbp)
	movq	-368(%rbp), %rax
	movq	%rax, -184(%rbp)
	movq	-360(%rbp), %rax
	movq	%rax, -176(%rbp)
	movq	-352(%rbp), %rax
	movq	%rax, -168(%rbp)
	movq	-344(%rbp), %rax
	movq	%rax, -160(%rbp)
	movq	-184(%rbp), %rax
	movq	%rax, -216(%rbp)
	movq	-176(%rbp), %rax
	movq	%rax, -208(%rbp)
	movq	-168(%rbp), %rax
	movq	%rax, -200(%rbp)
	movq	-160(%rbp), %rax
	movq	%rax, -192(%rbp)
	movq	-336(%rbp), %rax
	movq	%rax, -120(%rbp)
	movq	-328(%rbp), %rax
	movq	%rax, -112(%rbp)
	movq	-320(%rbp), %rax
	movq	%rax, -104(%rbp)
	movq	-312(%rbp), %rax
	movq	%rax, -96(%rbp)
	movq	-120(%rbp), %rax
	movq	%rax, -152(%rbp)
	movq	-112(%rbp), %rax
	movq	%rax, -144(%rbp)
	movq	-104(%rbp), %rax
	movq	%rax, -136(%rbp)
	movq	-96(%rbp), %rax
	movq	%rax, -128(%rbp)
	leaq	-432(%rbp), %rax
	movq	%rax, -464(%rbp)
	movq	-464(%rbp), %rax
	movq	16(%rax), %rcx
	movq	-216(%rbp), %rdx
	movq	-440(%rbp), %rsi
	movq	%rdx, (%rsi)
	movq	-208(%rbp), %rdx
	movq	%rdx, 8(%rsi)
	movq	-200(%rbp), %rdx
	movq	%rdx, 16(%rsi)
	movq	-192(%rbp), %rdx
	movq	%rdx, 24(%rsi)
	movq	-152(%rbp), %rdx
	movq	%rdx, 32(%rsi)
	movq	-144(%rbp), %rdx
	movq	%rdx, 40(%rsi)
	movq	-136(%rbp), %rdx
	movq	%rdx, 48(%rsi)
	movq	-128(%rbp), %rdx
	movq	%rdx, 56(%rsi)
	movq	%rcx, 64(%rsi)
LBB26_9:
	movq	-448(%rbp), %rax
	addq	$464, %rsp
	popq	%rbp
	retq
	.cfi_endproc

	.globl	__ZN119_$LT$core..ptr..non_null..NonNull$LT$T$GT$$u20$as$u20$core..convert..From$LT$core..ptr..unique..Unique$LT$T$GT$$GT$$GT$4from17h181c8029a32c89b5E
	.p2align	4, 0x90
__ZN119_$LT$core..ptr..non_null..NonNull$LT$T$GT$$u20$as$u20$core..convert..From$LT$core..ptr..unique..Unique$LT$T$GT$$GT$$GT$4from17h181c8029a32c89b5E:
	.cfi_startproc
	pushq	%rbp
	.cfi_def_cfa_offset 16
	.cfi_offset %rbp, -16
	movq	%rsp, %rbp
	.cfi_def_cfa_register %rbp
	subq	$16, %rsp
	callq	__ZN4core3ptr6unique15Unique$LT$T$GT$6as_ptr17h3f84669257a4d83cE
	movq	%rax, -8(%rbp)
	movq	-8(%rbp), %rdi
	callq	__ZN4core3ptr8non_null16NonNull$LT$T$GT$13new_unchecked17h19fc41c8505c5f7aE
	movq	%rax, -16(%rbp)
	movq	-16(%rbp), %rax
	addq	$16, %rsp
	popq	%rbp
	retq
	.cfi_endproc

	.globl	__ZN119_$LT$core..ptr..non_null..NonNull$LT$T$GT$$u20$as$u20$core..convert..From$LT$core..ptr..unique..Unique$LT$T$GT$$GT$$GT$4from17h18f382d3a4be3a8dE
	.p2align	4, 0x90
__ZN119_$LT$core..ptr..non_null..NonNull$LT$T$GT$$u20$as$u20$core..convert..From$LT$core..ptr..unique..Unique$LT$T$GT$$GT$$GT$4from17h18f382d3a4be3a8dE:
	.cfi_startproc
	pushq	%rbp
	.cfi_def_cfa_offset 16
	.cfi_offset %rbp, -16
	movq	%rsp, %rbp
	.cfi_def_cfa_register %rbp
	subq	$16, %rsp
	callq	__ZN4core3ptr6unique15Unique$LT$T$GT$6as_ptr17h3d8ba83080b72b31E
	movq	%rax, -8(%rbp)
	movq	-8(%rbp), %rdi
	callq	__ZN4core3ptr8non_null16NonNull$LT$T$GT$13new_unchecked17h2d90a2c320a11f56E
	movq	%rax, -16(%rbp)
	movq	-16(%rbp), %rax
	addq	$16, %rsp
	popq	%rbp
	retq
	.cfi_endproc

	.globl	__ZN135_$LT$$LT$alloc..vec..Drain$LT$T$GT$$u20$as$u20$core..ops..drop..Drop$GT$..drop..DropGuard$LT$T$GT$$u20$as$u20$core..ops..drop..Drop$GT$4drop17ha4afddbeed7e2a3eE
	.p2align	4, 0x90
__ZN135_$LT$$LT$alloc..vec..Drain$LT$T$GT$$u20$as$u20$core..ops..drop..Drop$GT$..drop..DropGuard$LT$T$GT$$u20$as$u20$core..ops..drop..Drop$GT$4drop17ha4afddbeed7e2a3eE:
	.cfi_startproc
	pushq	%rbp
	.cfi_def_cfa_offset 16
	.cfi_offset %rbp, -16
	movq	%rsp, %rbp
	.cfi_def_cfa_register %rbp
	subq	$80, %rsp
	movq	(%rdi), %rax
	movq	%rdi, -16(%rbp)
	movq	%rax, %rdi
	callq	__ZN4core4iter6traits8iterator8Iterator8for_each17h3a101db58a07a588E
	movq	-16(%rbp), %rax
	movq	(%rax), %rcx
	cmpq	$0, 8(%rcx)
	ja	LBB29_3
	jmp	LBB29_15
LBB29_3:
	movq	-16(%rbp), %rax
	movq	(%rax), %rcx
	addq	$32, %rcx
	movq	%rcx, %rdi
	callq	__ZN4core3ptr8non_null16NonNull$LT$T$GT$6as_mut17hb7fff6e09472d4adE
	movq	%rax, -24(%rbp)
	movq	-24(%rbp), %rdi
	callq	__ZN5alloc3vec12Vec$LT$T$GT$3len17h6917bd9ced0df80aE
	movq	%rax, -32(%rbp)
	movq	-16(%rbp), %rax
	movq	(%rax), %rcx
	movq	(%rcx), %rcx
	movq	-32(%rbp), %rdx
	cmpq	%rdx, %rcx
	movq	%rcx, -40(%rbp)
	jne	LBB29_7
	jmp	LBB29_13
LBB29_7:
	movq	-24(%rbp), %rdi
	callq	__ZN5alloc3vec12Vec$LT$T$GT$6as_ptr17h6313572828025687E
	movq	%rax, -48(%rbp)
	movq	-48(%rbp), %rdi
	movq	-40(%rbp), %rsi
	callq	__ZN4core3ptr9const_ptr33_$LT$impl$u20$$BP$const$u20$T$GT$3add17h16f7957433fbcf56E
	movq	%rax, -56(%rbp)
	movq	-24(%rbp), %rdi
	callq	__ZN5alloc3vec12Vec$LT$T$GT$10as_mut_ptr17h94c20b5a6d907a8bE
	movq	%rax, -64(%rbp)
	movq	-64(%rbp), %rdi
	movq	-32(%rbp), %rsi
	callq	__ZN4core3ptr7mut_ptr31_$LT$impl$u20$$BP$mut$u20$T$GT$3add17h9cc650bd18758de0E
	movq	%rax, -72(%rbp)
	movq	-16(%rbp), %rax
	movq	(%rax), %rcx
	movq	8(%rcx), %rdx
	movq	-56(%rbp), %rdi
	movq	-72(%rbp), %rsi
	callq	__ZN4core10intrinsics4copy17h811ca4a9a277211aE
	jmp	LBB29_13
LBB29_13:
	movq	-16(%rbp), %rax
	movq	(%rax), %rcx
	movq	-32(%rbp), %rdx
	addq	8(%rcx), %rdx
	movq	-24(%rbp), %rdi
	movq	%rdx, %rsi
	callq	__ZN5alloc3vec12Vec$LT$T$GT$7set_len17h8c5ddc4b256185dcE
	jmp	LBB29_15
LBB29_15:
	addq	$80, %rsp
	popq	%rbp
	retq
	.cfi_endproc

	.globl	__ZN138_$LT$$LT$alloc..vec..IntoIter$LT$T$GT$$u20$as$u20$core..ops..drop..Drop$GT$..drop..DropGuard$LT$T$GT$$u20$as$u20$core..ops..drop..Drop$GT$4drop17ha0afe39da9ce3c6cE
	.p2align	4, 0x90
__ZN138_$LT$$LT$alloc..vec..IntoIter$LT$T$GT$$u20$as$u20$core..ops..drop..Drop$GT$..drop..DropGuard$LT$T$GT$$u20$as$u20$core..ops..drop..Drop$GT$4drop17ha0afe39da9ce3c6cE:
	.cfi_startproc
	pushq	%rbp
	.cfi_def_cfa_offset 16
	.cfi_offset %rbp, -16
	movq	%rsp, %rbp
	.cfi_def_cfa_register %rbp
	subq	$32, %rsp
	movq	(%rdi), %rax
	movq	(%rax), %rax
	movq	%rdi, -24(%rbp)
	movq	%rax, %rdi
	callq	__ZN4core3ptr8non_null16NonNull$LT$T$GT$6as_ptr17h2403289500280319E
	movq	%rax, -32(%rbp)
	movq	-24(%rbp), %rax
	movq	(%rax), %rcx
	movq	8(%rcx), %rsi
	movq	-32(%rbp), %rdi
	callq	__ZN5alloc7raw_vec15RawVec$LT$T$GT$14from_raw_parts17h21bfeb1084659dd8E
	movq	%rdx, -8(%rbp)
	movq	%rax, -16(%rbp)
	leaq	-16(%rbp), %rdi
	callq	__ZN4core3ptr13drop_in_place17h6f12732481bc344dE
	addq	$32, %rsp
	popq	%rbp
	retq
	.cfi_endproc

	.globl	__ZN139_$LT$std..sys_common..poison..TryLockError$LT$T$GT$$u20$as$u20$core..convert..From$LT$std..sys_common..poison..PoisonError$LT$T$GT$$GT$$GT$4from17h0c13816ca044ef13E
	.p2align	4, 0x90
__ZN139_$LT$std..sys_common..poison..TryLockError$LT$T$GT$$u20$as$u20$core..convert..From$LT$std..sys_common..poison..PoisonError$LT$T$GT$$GT$$GT$4from17h0c13816ca044ef13E:
	.cfi_startproc
	pushq	%rbp
	.cfi_def_cfa_offset 16
	.cfi_offset %rbp, -16
	movq	%rsp, %rbp
	.cfi_def_cfa_register %rbp
	subq	$16, %rsp
	movq	%rdi, -16(%rbp)
	andb	$1, %sil
	movb	%sil, -8(%rbp)
	movq	-16(%rbp), %rax
	movb	-8(%rbp), %dl
	addq	$16, %rsp
	popq	%rbp
	retq
	.cfi_endproc

	.globl	__ZN139_$LT$std..sys_common..poison..TryLockError$LT$T$GT$$u20$as$u20$core..convert..From$LT$std..sys_common..poison..PoisonError$LT$T$GT$$GT$$GT$4from17hfde0d3c80ebe938eE
	.p2align	4, 0x90
__ZN139_$LT$std..sys_common..poison..TryLockError$LT$T$GT$$u20$as$u20$core..convert..From$LT$std..sys_common..poison..PoisonError$LT$T$GT$$GT$$GT$4from17hfde0d3c80ebe938eE:
	.cfi_startproc
	pushq	%rbp
	.cfi_def_cfa_offset 16
	.cfi_offset %rbp, -16
	movq	%rsp, %rbp
	.cfi_def_cfa_register %rbp
	subq	$16, %rsp
	movq	%rdi, -16(%rbp)
	andb	$1, %sil
	movb	%sil, -8(%rbp)
	movq	-16(%rbp), %rax
	movb	-8(%rbp), %dl
	addq	$16, %rsp
	popq	%rbp
	retq
	.cfi_endproc

	.globl	__ZN166_$LT$$LT$alloc..collections..btree..map..IntoIter$LT$K$C$V$GT$$u20$as$u20$core..ops..drop..Drop$GT$..drop..DropGuard$LT$K$C$V$GT$$u20$as$u20$core..ops..drop..Drop$GT$4drop17h71142f31afee3886E
	.p2align	4, 0x90
__ZN166_$LT$$LT$alloc..collections..btree..map..IntoIter$LT$K$C$V$GT$$u20$as$u20$core..ops..drop..Drop$GT$..drop..DropGuard$LT$K$C$V$GT$$u20$as$u20$core..ops..drop..Drop$GT$4drop17h71142f31afee3886E:
	.cfi_startproc
	pushq	%rbp
	.cfi_def_cfa_offset 16
	.cfi_offset %rbp, -16
	movq	%rsp, %rbp
	.cfi_def_cfa_register %rbp
	subq	$368, %rsp
	movq	%rdi, -368(%rbp)
LBB33_1:
	movq	-368(%rbp), %rax
	movq	(%rax), %rsi
	leaq	-360(%rbp), %rdi
	callq	__ZN112_$LT$alloc..collections..btree..map..IntoIter$LT$K$C$V$GT$$u20$as$u20$core..iter..traits..iterator..Iterator$GT$4next17h782de5268fbf2452E
	xorl	%eax, %eax
	movl	%eax, %ecx
	cmpq	$0, -360(%rbp)
	movl	$1, %edx
	cmovbeq	%rcx, %rdx
	cmpq	$1, %rdx
	je	LBB33_4
	leaq	-360(%rbp), %rdi
	callq	__ZN4core3ptr13drop_in_place17h25fcfa2f3b54a9a4E
	jmp	LBB33_5
LBB33_4:
	leaq	-360(%rbp), %rdi
	callq	__ZN4core3ptr13drop_in_place17h25fcfa2f3b54a9a4E
	jmp	LBB33_6
LBB33_5:
	movq	-368(%rbp), %rax
	movq	(%rax), %rcx
	leaq	-232(%rbp), %rdi
	movq	%rcx, %rsi
	callq	__ZN4core3ptr4read17h8fb5f1abbbc5108dE
	jmp	LBB33_7
LBB33_6:
	jmp	LBB33_1
LBB33_7:
	movq	-232(%rbp), %rax
	movq	%rax, -32(%rbp)
	movq	-224(%rbp), %rax
	movq	%rax, -24(%rbp)
	movq	-216(%rbp), %rax
	movq	%rax, -16(%rbp)
	movq	-208(%rbp), %rax
	movq	%rax, -8(%rbp)
	leaq	-264(%rbp), %rdi
	leaq	-32(%rbp), %rsi
	callq	__ZN4core6option15Option$LT$T$GT$14unwrap_or_else17h6cebc4ea51ad240dE
	leaq	-288(%rbp), %rdi
	leaq	-264(%rbp), %rsi
	callq	__ZN5alloc11collections5btree4node25Handle$LT$Node$C$Type$GT$9into_node17h263c2779f58045a3E
	leaq	-312(%rbp), %rdi
	leaq	-288(%rbp), %rsi
	callq	__ZN5alloc11collections5btree4node40NodeRef$LT$BorrowType$C$K$C$V$C$Type$GT$11forget_type17hdb11eb2007879f1cE
	jmp	LBB33_11
LBB33_11:
	movq	-312(%rbp), %rax
	movq	%rax, -168(%rbp)
	movq	-304(%rbp), %rax
	movq	%rax, -160(%rbp)
	movq	-296(%rbp), %rax
	movq	%rax, -152(%rbp)
	leaq	-200(%rbp), %rdi
	leaq	-168(%rbp), %rsi
	callq	__ZN5alloc11collections5btree4node127NodeRef$LT$alloc..collections..btree..node..marker..Owned$C$K$C$V$C$alloc..collections..btree..node..marker..LeafOrInternal$GT$21deallocate_and_ascend17hbbb161e0645774a3E
	xorl	%eax, %eax
	movl	%eax, %ecx
	cmpq	$0, -192(%rbp)
	movl	$1, %edx
	cmovbeq	%rcx, %rdx
	cmpq	$1, %rdx
	je	LBB33_14
	addq	$368, %rsp
	popq	%rbp
	retq
LBB33_14:
	movq	-200(%rbp), %rax
	movq	%rax, -144(%rbp)
	movq	-192(%rbp), %rax
	movq	%rax, -136(%rbp)
	movq	-184(%rbp), %rax
	movq	%rax, -128(%rbp)
	movq	-176(%rbp), %rax
	movq	%rax, -120(%rbp)
	movq	-144(%rbp), %rax
	movq	%rax, -64(%rbp)
	movq	-136(%rbp), %rax
	movq	%rax, -56(%rbp)
	movq	-128(%rbp), %rax
	movq	%rax, -48(%rbp)
	movq	-120(%rbp), %rax
	movq	%rax, -40(%rbp)
	leaq	-88(%rbp), %rdi
	leaq	-64(%rbp), %rsi
	callq	__ZN5alloc11collections5btree4node25Handle$LT$Node$C$Type$GT$9into_node17h8c305f15cfa4495aE
	leaq	-112(%rbp), %rdi
	leaq	-88(%rbp), %rsi
	callq	__ZN5alloc11collections5btree4node40NodeRef$LT$BorrowType$C$K$C$V$C$Type$GT$11forget_type17h63fa2cf90c49d128E
	movq	-112(%rbp), %rax
	movq	%rax, -312(%rbp)
	movq	-104(%rbp), %rax
	movq	%rax, -304(%rbp)
	movq	-96(%rbp), %rax
	movq	%rax, -296(%rbp)
	jmp	LBB33_11
	.cfi_endproc

	.globl	__ZN36_$LT$T$u20$as$u20$core..any..Any$GT$7type_id17h5d1c317e6f1d5fc4E
	.p2align	4, 0x90
__ZN36_$LT$T$u20$as$u20$core..any..Any$GT$7type_id17h5d1c317e6f1d5fc4E:
	.cfi_startproc
	pushq	%rbp
	.cfi_def_cfa_offset 16
	.cfi_offset %rbp, -16
	movq	%rsp, %rbp
	.cfi_def_cfa_register %rbp
	subq	$16, %rsp
	movq	%rdi, -8(%rbp)
	callq	__ZN4core3any6TypeId2of17h2ba592af6a128855E
	movq	%rax, -16(%rbp)
	movq	-16(%rbp), %rax
	addq	$16, %rsp
	popq	%rbp
	retq
	.cfi_endproc

	.p2align	4, 0x90
__ZN3std10sys_common12os_str_bytes3Buf8as_slice17h28409efff5383405E:
	.cfi_startproc
	pushq	%rbp
	.cfi_def_cfa_offset 16
	.cfi_offset %rbp, -16
	movq	%rsp, %rbp
	.cfi_def_cfa_register %rbp
	subq	$48, %rsp
	callq	__ZN68_$LT$alloc..vec..Vec$LT$T$GT$$u20$as$u20$core..ops..deref..Deref$GT$5deref17hd510c21eea10b759E
	movq	%rax, -24(%rbp)
	movq	%rdx, -32(%rbp)
	movq	-24(%rbp), %rax
	movq	%rax, -16(%rbp)
	movq	-32(%rbp), %rcx
	movq	%rcx, -8(%rbp)
	movq	-16(%rbp), %rax
	movq	-8(%rbp), %rdx
	movq	%rax, -40(%rbp)
	movq	%rdx, -48(%rbp)
	movq	-40(%rbp), %rax
	movq	-48(%rbp), %rdx
	addq	$48, %rsp
	popq	%rbp
	retq
	.cfi_endproc

	.p2align	4, 0x90
__ZN3std10sys_common12os_str_bytes5Slice13from_u8_slice17h171cbecfae8d8061E:
	.cfi_startproc
	pushq	%rbp
	.cfi_def_cfa_offset 16
	.cfi_offset %rbp, -16
	movq	%rsp, %rbp
	.cfi_def_cfa_register %rbp
	subq	$32, %rsp
	movq	%rdi, -16(%rbp)
	movq	%rsi, -8(%rbp)
	movq	-16(%rbp), %rax
	movq	-8(%rbp), %rdx
	movq	%rax, -24(%rbp)
	movq	%rdx, -32(%rbp)
	movq	-24(%rbp), %rax
	movq	-32(%rbp), %rdx
	addq	$32, %rsp
	popq	%rbp
	retq
	.cfi_endproc

	.p2align	4, 0x90
__ZN3std10sys_common12os_str_bytes5Slice8from_str17h0c4251c00c6edf8eE:
	.cfi_startproc
	pushq	%rbp
	.cfi_def_cfa_offset 16
	.cfi_offset %rbp, -16
	movq	%rsp, %rbp
	.cfi_def_cfa_register %rbp
	subq	$48, %rsp
	movq	%rdi, -16(%rbp)
	movq	%rsi, -8(%rbp)
	movq	-16(%rbp), %rdi
	movq	-8(%rbp), %rsi
	movq	%rdi, -24(%rbp)
	movq	%rsi, -32(%rbp)
	movq	-24(%rbp), %rdi
	movq	-32(%rbp), %rsi
	callq	__ZN3std10sys_common12os_str_bytes5Slice13from_u8_slice17h171cbecfae8d8061E
	movq	%rax, -40(%rbp)
	movq	%rdx, -48(%rbp)
	movq	-40(%rbp), %rax
	movq	-48(%rbp), %rdx
	addq	$48, %rsp
	popq	%rbp
	retq
	.cfi_endproc

	.p2align	4, 0x90
__ZN3std10sys_common5mutex5Mutex10raw_unlock17h80d0f9ea4b7d7b86E:
	.cfi_startproc
	pushq	%rbp
	.cfi_def_cfa_offset 16
	.cfi_offset %rbp, -16
	movq	%rsp, %rbp
	.cfi_def_cfa_register %rbp
	callq	__ZN3std3sys4unix5mutex5Mutex6unlock17h5d678cb979c8bc53E
	popq	%rbp
	retq
	.cfi_endproc

	.p2align	4, 0x90
__ZN3std10sys_common5mutex5Mutex4init17h36490ff7b8c692f0E:
	.cfi_startproc
	pushq	%rbp
	.cfi_def_cfa_offset 16
	.cfi_offset %rbp, -16
	movq	%rsp, %rbp
	.cfi_def_cfa_register %rbp
	callq	__ZN3std3sys4unix5mutex5Mutex4init17h4711dfbb8b1659cdE
	popq	%rbp
	retq
	.cfi_endproc

	.p2align	4, 0x90
__ZN3std10sys_common5mutex5Mutex7destroy17haea6b42fee4cd3e1E:
	.cfi_startproc
	pushq	%rbp
	.cfi_def_cfa_offset 16
	.cfi_offset %rbp, -16
	movq	%rsp, %rbp
	.cfi_def_cfa_register %rbp
	callq	__ZN3std3sys4unix5mutex5Mutex7destroy17h70887a6ff69fefefE
	popq	%rbp
	retq
	.cfi_endproc

	.p2align	4, 0x90
__ZN3std10sys_common5mutex5Mutex8raw_lock17h48232c823797ac4aE:
	.cfi_startproc
	pushq	%rbp
	.cfi_def_cfa_offset 16
	.cfi_offset %rbp, -16
	movq	%rsp, %rbp
	.cfi_def_cfa_register %rbp
	callq	__ZN3std3sys4unix5mutex5Mutex4lock17had0425a6766d193eE
	popq	%rbp
	retq
	.cfi_endproc

	.p2align	4, 0x90
__ZN3std10sys_common5mutex5Mutex8try_lock17h7e291e6f7bac1367E:
	.cfi_startproc
	pushq	%rbp
	.cfi_def_cfa_offset 16
	.cfi_offset %rbp, -16
	movq	%rsp, %rbp
	.cfi_def_cfa_register %rbp
	subq	$16, %rsp
	callq	__ZN3std3sys4unix5mutex5Mutex8try_lock17he90d422a0445b5aeE
	movb	%al, -1(%rbp)
	movb	-1(%rbp), %al
	andb	$1, %al
	movzbl	%al, %eax
	addq	$16, %rsp
	popq	%rbp
	retq
	.cfi_endproc

	.globl	__ZN3std10sys_common6poison10map_result17h36ce01bef5479ea5E
	.p2align	4, 0x90
__ZN3std10sys_common6poison10map_result17h36ce01bef5479ea5E:
Lfunc_begin2:
	.cfi_startproc
	.cfi_personality 155, _rust_eh_personality
	.cfi_lsda 16, Lexception2
	pushq	%rbp
	.cfi_def_cfa_offset 16
	.cfi_offset %rbp, -16
	movq	%rsp, %rbp
	.cfi_def_cfa_register %rbp
	subq	$96, %rsp
	movq	%rdi, %rax
	andb	$1, %sil
	movb	%sil, -24(%rbp)
	movb	%dl, -23(%rbp)
	movzbl	-24(%rbp), %r8d
	movl	%r8d, %r9d
	testb	$1, %r9b
	movq	%rcx, -32(%rbp)
	movq	%rdi, -40(%rbp)
	movq	%rax, -48(%rbp)
	je	LBB43_3
	jmp	LBB43_12
LBB43_12:
	movb	-23(%rbp), %al
	movb	%al, -17(%rbp)
	movzbl	-17(%rbp), %esi
Ltmp8:
	movq	-32(%rbp), %rdi
	callq	__ZN3std4sync5mutex19MutexGuard$LT$T$GT$3new28_$u7b$$u7b$closure$u7d$$u7d$17h3ddfa0043885c324E
Ltmp9:
	movb	%dl, -49(%rbp)
	movq	%rax, -64(%rbp)
	jmp	LBB43_5
	ud2
LBB43_3:
	movb	-23(%rbp), %al
	movb	%al, -18(%rbp)
	movzbl	-18(%rbp), %esi
Ltmp12:
	movq	-32(%rbp), %rdi
	callq	__ZN3std4sync5mutex19MutexGuard$LT$T$GT$3new28_$u7b$$u7b$closure$u7d$$u7d$17h3ddfa0043885c324E
Ltmp13:
	movb	%dl, -65(%rbp)
	movq	%rax, -80(%rbp)
	jmp	LBB43_4
LBB43_4:
	movq	-40(%rbp), %rax
	movq	-80(%rbp), %rcx
	movq	%rcx, 8(%rax)
	movb	-65(%rbp), %dl
	andb	$1, %dl
	movb	%dl, 16(%rax)
	movq	$0, (%rax)
	jmp	LBB43_7
LBB43_5:
Ltmp10:
	movb	-49(%rbp), %al
	movzbl	%al, %ecx
	andl	$1, %ecx
	movq	-64(%rbp), %rdi
	movl	%ecx, %esi
	callq	__ZN3std10sys_common6poison20PoisonError$LT$T$GT$3new17h68e0a8a4f49da689E
Ltmp11:
	movb	%dl, -81(%rbp)
	movq	%rax, -96(%rbp)
	jmp	LBB43_6
LBB43_6:
	movq	-40(%rbp), %rax
	movq	-96(%rbp), %rcx
	movq	%rcx, 8(%rax)
	movb	-81(%rbp), %dl
	andb	$1, %dl
	movb	%dl, 16(%rax)
	movq	$1, (%rax)
LBB43_7:
	movb	-24(%rbp), %al
	andb	$1, %al
	movzbl	%al, %ecx
	movl	%ecx, %edx
	cmpq	$0, %rdx
	je	LBB43_9
	jmp	LBB43_10
LBB43_8:
	movq	-16(%rbp), %rdi
	callq	__Unwind_Resume
	ud2
LBB43_9:
	movq	-48(%rbp), %rax
	addq	$96, %rsp
	popq	%rbp
	retq
LBB43_10:
	jmp	LBB43_9
LBB43_11:
Ltmp14:
	movq	%rax, -16(%rbp)
	movl	%edx, -8(%rbp)
	jmp	LBB43_8
Lfunc_end2:
	.cfi_endproc
	.section	__TEXT,__gcc_except_tab
	.p2align	2
GCC_except_table43:
Lexception2:
	.byte	255
	.byte	255
	.byte	1
	.uleb128 Lcst_end2-Lcst_begin2
Lcst_begin2:
	.uleb128 Ltmp8-Lfunc_begin2
	.uleb128 Ltmp11-Ltmp8
	.uleb128 Ltmp14-Lfunc_begin2
	.byte	0
	.uleb128 Ltmp11-Lfunc_begin2
	.uleb128 Lfunc_end2-Ltmp11
	.byte	0
	.byte	0
Lcst_end2:
	.p2align	2

	.section	__TEXT,__text,regular,pure_instructions
	.globl	__ZN3std10sys_common6poison10map_result17h9e7c598d2e2de60eE
	.p2align	4, 0x90
__ZN3std10sys_common6poison10map_result17h9e7c598d2e2de60eE:
Lfunc_begin3:
	.cfi_startproc
	.cfi_personality 155, _rust_eh_personality
	.cfi_lsda 16, Lexception3
	pushq	%rbp
	.cfi_def_cfa_offset 16
	.cfi_offset %rbp, -16
	movq	%rsp, %rbp
	.cfi_def_cfa_register %rbp
	subq	$96, %rsp
	movq	%rdi, %rax
	andb	$1, %sil
	movb	%sil, -24(%rbp)
	movb	%dl, -23(%rbp)
	movzbl	-24(%rbp), %r8d
	movl	%r8d, %r9d
	testb	$1, %r9b
	movq	%rcx, -32(%rbp)
	movq	%rdi, -40(%rbp)
	movq	%rax, -48(%rbp)
	je	LBB44_3
	jmp	LBB44_12
LBB44_12:
	movb	-23(%rbp), %al
	movb	%al, -17(%rbp)
	movzbl	-17(%rbp), %esi
Ltmp15:
	movq	-32(%rbp), %rdi
	callq	__ZN3std4sync5mutex19MutexGuard$LT$T$GT$3new28_$u7b$$u7b$closure$u7d$$u7d$17h6e117b411a04fd7aE
Ltmp16:
	movb	%dl, -49(%rbp)
	movq	%rax, -64(%rbp)
	jmp	LBB44_5
	ud2
LBB44_3:
	movb	-23(%rbp), %al
	movb	%al, -18(%rbp)
	movzbl	-18(%rbp), %esi
Ltmp19:
	movq	-32(%rbp), %rdi
	callq	__ZN3std4sync5mutex19MutexGuard$LT$T$GT$3new28_$u7b$$u7b$closure$u7d$$u7d$17h6e117b411a04fd7aE
Ltmp20:
	movb	%dl, -65(%rbp)
	movq	%rax, -80(%rbp)
	jmp	LBB44_4
LBB44_4:
	movq	-40(%rbp), %rax
	movq	-80(%rbp), %rcx
	movq	%rcx, 8(%rax)
	movb	-65(%rbp), %dl
	andb	$1, %dl
	movb	%dl, 16(%rax)
	movq	$0, (%rax)
	jmp	LBB44_7
LBB44_5:
Ltmp17:
	movb	-49(%rbp), %al
	movzbl	%al, %ecx
	andl	$1, %ecx
	movq	-64(%rbp), %rdi
	movl	%ecx, %esi
	callq	__ZN3std10sys_common6poison20PoisonError$LT$T$GT$3new17h626a1ded1bc6c660E
Ltmp18:
	movb	%dl, -81(%rbp)
	movq	%rax, -96(%rbp)
	jmp	LBB44_6
LBB44_6:
	movq	-40(%rbp), %rax
	movq	-96(%rbp), %rcx
	movq	%rcx, 8(%rax)
	movb	-81(%rbp), %dl
	andb	$1, %dl
	movb	%dl, 16(%rax)
	movq	$1, (%rax)
LBB44_7:
	movb	-24(%rbp), %al
	andb	$1, %al
	movzbl	%al, %ecx
	movl	%ecx, %edx
	cmpq	$0, %rdx
	je	LBB44_9
	jmp	LBB44_10
LBB44_8:
	movq	-16(%rbp), %rdi
	callq	__Unwind_Resume
	ud2
LBB44_9:
	movq	-48(%rbp), %rax
	addq	$96, %rsp
	popq	%rbp
	retq
LBB44_10:
	jmp	LBB44_9
LBB44_11:
Ltmp21:
	movq	%rax, -16(%rbp)
	movl	%edx, -8(%rbp)
	jmp	LBB44_8
Lfunc_end3:
	.cfi_endproc
	.section	__TEXT,__gcc_except_tab
	.p2align	2
GCC_except_table44:
Lexception3:
	.byte	255
	.byte	255
	.byte	1
	.uleb128 Lcst_end3-Lcst_begin3
Lcst_begin3:
	.uleb128 Ltmp15-Lfunc_begin3
	.uleb128 Ltmp18-Ltmp15
	.uleb128 Ltmp21-Lfunc_begin3
	.byte	0
	.uleb128 Ltmp18-Lfunc_begin3
	.uleb128 Lfunc_end3-Ltmp18
	.byte	0
	.byte	0
Lcst_end3:
	.p2align	2

	.section	__TEXT,__text,regular,pure_instructions
	.globl	__ZN3std10sys_common6poison20PoisonError$LT$T$GT$3new17h626a1ded1bc6c660E
	.p2align	4, 0x90
__ZN3std10sys_common6poison20PoisonError$LT$T$GT$3new17h626a1ded1bc6c660E:
	.cfi_startproc
	pushq	%rbp
	.cfi_def_cfa_offset 16
	.cfi_offset %rbp, -16
	movq	%rsp, %rbp
	.cfi_def_cfa_register %rbp
	subq	$16, %rsp
	movq	%rdi, -16(%rbp)
	andb	$1, %sil
	movb	%sil, -8(%rbp)
	movq	-16(%rbp), %rax
	movb	-8(%rbp), %dl
	addq	$16, %rsp
	popq	%rbp
	retq
	.cfi_endproc

	.globl	__ZN3std10sys_common6poison20PoisonError$LT$T$GT$3new17h68e0a8a4f49da689E
	.p2align	4, 0x90
__ZN3std10sys_common6poison20PoisonError$LT$T$GT$3new17h68e0a8a4f49da689E:
	.cfi_startproc
	pushq	%rbp
	.cfi_def_cfa_offset 16
	.cfi_offset %rbp, -16
	movq	%rsp, %rbp
	.cfi_def_cfa_register %rbp
	subq	$16, %rsp
	movq	%rdi, -16(%rbp)
	andb	$1, %sil
	movb	%sil, -8(%rbp)
	movq	-16(%rbp), %rax
	movb	-8(%rbp), %dl
	addq	$16, %rsp
	popq	%rbp
	retq
	.cfi_endproc

	.globl	__ZN3std10sys_common6poison20PoisonError$LT$T$GT$3new17heac9055a2fae5aadE
	.p2align	4, 0x90
__ZN3std10sys_common6poison20PoisonError$LT$T$GT$3new17heac9055a2fae5aadE:
	.cfi_startproc
	pushq	%rbp
	.cfi_def_cfa_offset 16
	.cfi_offset %rbp, -16
	movq	%rsp, %rbp
	.cfi_def_cfa_register %rbp
	subq	$1, %rsp
	andb	$1, %dil
	movb	%dil, -1(%rbp)
	movb	-1(%rbp), %al
	andb	$1, %al
	movzbl	%al, %eax
	addq	$1, %rsp
	popq	%rbp
	retq
	.cfi_endproc

	.globl	__ZN3std10sys_common6poison20PoisonError$LT$T$GT$7get_ref17h1ae39bfa620dc75cE
	.p2align	4, 0x90
__ZN3std10sys_common6poison20PoisonError$LT$T$GT$7get_ref17h1ae39bfa620dc75cE:
	.cfi_startproc
	pushq	%rbp
	.cfi_def_cfa_offset 16
	.cfi_offset %rbp, -16
	movq	%rsp, %rbp
	.cfi_def_cfa_register %rbp
	movq	%rdi, %rax
	popq	%rbp
	retq
	.cfi_endproc

	.globl	__ZN3std10sys_common6poison20PoisonError$LT$T$GT$7get_ref17haa696afb42acefb0E
	.p2align	4, 0x90
__ZN3std10sys_common6poison20PoisonError$LT$T$GT$7get_ref17haa696afb42acefb0E:
	.cfi_startproc
	pushq	%rbp
	.cfi_def_cfa_offset 16
	.cfi_offset %rbp, -16
	movq	%rsp, %rbp
	.cfi_def_cfa_register %rbp
	movq	%rdi, %rax
	popq	%rbp
	retq
	.cfi_endproc

	.p2align	4, 0x90
__ZN3std10sys_common6poison4Flag3get17hfcf6713e1e9fdba3E:
	.cfi_startproc
	pushq	%rbp
	.cfi_def_cfa_offset 16
	.cfi_offset %rbp, -16
	movq	%rsp, %rbp
	.cfi_def_cfa_register %rbp
	subq	$16, %rsp
	xorl	%esi, %esi
	callq	__ZN4core4sync6atomic10AtomicBool4load17h273d5ed2601b94a5E
	movb	%al, -1(%rbp)
	movb	-1(%rbp), %al
	andb	$1, %al
	movzbl	%al, %eax
	addq	$16, %rsp
	popq	%rbp
	retq
	.cfi_endproc

	.p2align	4, 0x90
__ZN3std10sys_common6poison4Flag4done17h19c11c5de2855f35E:
	.cfi_startproc
	pushq	%rbp
	.cfi_def_cfa_offset 16
	.cfi_offset %rbp, -16
	movq	%rsp, %rbp
	.cfi_def_cfa_register %rbp
	subq	$32, %rsp
	movb	(%rsi), %al
	xorb	$-1, %al
	testb	$1, %al
	movq	%rdi, -16(%rbp)
	jne	LBB51_3
	jmp	LBB51_2
LBB51_1:
	movb	$1, -1(%rbp)
	jmp	LBB51_4
LBB51_2:
	movb	$0, -1(%rbp)
	jmp	LBB51_4
LBB51_3:
	callq	__ZN3std6thread9panicking17h0636a686f6eadd72E
	movb	%al, -17(%rbp)
	jmp	LBB51_5
LBB51_4:
	testb	$1, -1(%rbp)
	jne	LBB51_7
	jmp	LBB51_6
LBB51_5:
	movb	-17(%rbp), %al
	testb	$1, %al
	jne	LBB51_1
	jmp	LBB51_2
LBB51_6:
	jmp	LBB51_9
LBB51_7:
	xorl	%edx, %edx
	movq	-16(%rbp), %rax
	movq	%rax, %rdi
	movl	$1, %esi
	callq	__ZN4core4sync6atomic10AtomicBool5store17h7b710a24155cffd7E
	jmp	LBB51_9
LBB51_9:
	addq	$32, %rsp
	popq	%rbp
	retq
	.cfi_endproc

	.p2align	4, 0x90
__ZN3std10sys_common6poison4Flag6borrow17h7305e4d508d47249E:
	.cfi_startproc
	pushq	%rbp
	.cfi_def_cfa_offset 16
	.cfi_offset %rbp, -16
	movq	%rsp, %rbp
	.cfi_def_cfa_register %rbp
	subq	$32, %rsp
	movq	%rdi, -16(%rbp)
	callq	__ZN3std6thread9panicking17h0636a686f6eadd72E
	movb	%al, -17(%rbp)
	movb	-17(%rbp), %al
	andb	$1, %al
	movb	%al, -1(%rbp)
	movq	-16(%rbp), %rdi
	callq	__ZN3std10sys_common6poison4Flag3get17hfcf6713e1e9fdba3E
	movb	%al, -18(%rbp)
	movb	-18(%rbp), %al
	testb	$1, %al
	jne	LBB52_4
	jmp	LBB52_3
LBB52_3:
	movb	-1(%rbp), %al
	andb	$1, %al
	movb	%al, -7(%rbp)
	movb	$0, -8(%rbp)
	jmp	LBB52_6
LBB52_4:
	movb	-1(%rbp), %al
	andb	$1, %al
	movzbl	%al, %edi
	callq	__ZN3std10sys_common6poison20PoisonError$LT$T$GT$3new17heac9055a2fae5aadE
	movb	%al, -19(%rbp)
	movb	-19(%rbp), %al
	andb	$1, %al
	movb	%al, -7(%rbp)
	movb	$1, -8(%rbp)
LBB52_6:
	movb	-8(%rbp), %al
	movb	-7(%rbp), %dl
	addq	$32, %rsp
	popq	%rbp
	retq
	.cfi_endproc

	.globl	__ZN3std10sys_common9backtrace28__rust_begin_short_backtrace17he597a7ebeaf28c64E
	.p2align	4, 0x90
__ZN3std10sys_common9backtrace28__rust_begin_short_backtrace17he597a7ebeaf28c64E:
	.cfi_startproc
	pushq	%rbp
	.cfi_def_cfa_offset 16
	.cfi_offset %rbp, -16
	movq	%rsp, %rbp
	.cfi_def_cfa_register %rbp
	subq	$64, %rsp
	leaq	-40(%rbp), %rax
	movq	%rax, %rcx
	movq	%rdi, -48(%rbp)
	movq	%rcx, %rdi
	movq	-48(%rbp), %rsi
	movl	$40, %edx
	movq	%rax, -56(%rbp)
	callq	_memcpy
	movq	-56(%rbp), %rdi
	callq	__ZN2cc5spawn28_$u7b$$u7b$closure$u7d$$u7d$17h04bd738fec72d367E
	addq	$64, %rsp
	popq	%rbp
	retq
	.cfi_endproc

	.p2align	4, 0x90
__ZN3std11collections4hash3map11RandomState3new17h98779bc137e6ced9E:
	.cfi_startproc
	pushq	%rbp
	.cfi_def_cfa_offset 16
	.cfi_offset %rbp, -16
	movq	%rsp, %rbp
	.cfi_def_cfa_register %rbp
	subq	$16, %rsp
	movq	l___unnamed_2(%rip), %rdi
	callq	__ZN3std6thread5local17LocalKey$LT$T$GT$4with17h178ea860f9efb691E
	movq	%rax, -8(%rbp)
	movq	%rdx, -16(%rbp)
	movq	-8(%rbp), %rax
	movq	-16(%rbp), %rdx
	addq	$16, %rsp
	popq	%rbp
	retq
	.cfi_endproc

	.globl	__ZN3std11collections4hash3map11RandomState3new28_$u7b$$u7b$closure$u7d$$u7d$17h751c579e4c0c7d32E
	.p2align	4, 0x90
__ZN3std11collections4hash3map11RandomState3new28_$u7b$$u7b$closure$u7d$$u7d$17h751c579e4c0c7d32E:
	.cfi_startproc
	pushq	%rbp
	.cfi_def_cfa_offset 16
	.cfi_offset %rbp, -16
	movq	%rsp, %rbp
	.cfi_def_cfa_register %rbp
	subq	$64, %rsp
	movq	%rdi, -40(%rbp)
	callq	__ZN4core4cell13Cell$LT$T$GT$3get17hfb237e9f5a80920dE
	movq	%rax, -48(%rbp)
	movq	%rdx, -56(%rbp)
	movq	-48(%rbp), %rdi
	movl	$1, %esi
	callq	__ZN4core3num21_$LT$impl$u20$u64$GT$12wrapping_add17h5f357cc1da96debfE
	movq	%rax, -64(%rbp)
	movq	-64(%rbp), %rax
	movq	%rax, -16(%rbp)
	movq	-56(%rbp), %rcx
	movq	%rcx, -8(%rbp)
	movq	-16(%rbp), %rsi
	movq	-8(%rbp), %rdx
	movq	-40(%rbp), %rdi
	callq	__ZN4core4cell13Cell$LT$T$GT$3set17h3918f7c672fe2160E
	movq	-48(%rbp), %rax
	movq	%rax, -32(%rbp)
	movq	-56(%rbp), %rcx
	movq	%rcx, -24(%rbp)
	movq	-32(%rbp), %rax
	movq	-24(%rbp), %rdx
	addq	$64, %rsp
	popq	%rbp
	retq
	.cfi_endproc

	.globl	__ZN3std11collections4hash3map20HashMap$LT$K$C$V$GT$3new17haf6bb85261d60874E
	.p2align	4, 0x90
__ZN3std11collections4hash3map20HashMap$LT$K$C$V$GT$3new17haf6bb85261d60874E:
	.cfi_startproc
	pushq	%rbp
	.cfi_def_cfa_offset 16
	.cfi_offset %rbp, -16
	movq	%rsp, %rbp
	.cfi_def_cfa_register %rbp
	subq	$16, %rsp
	movq	%rdi, %rax
	movq	%rax, -8(%rbp)
	callq	__ZN96_$LT$std..collections..hash..map..HashMap$LT$K$C$V$C$S$GT$$u20$as$u20$core..default..Default$GT$7default17hf097da104da4525dE
	movq	-8(%rbp), %rax
	addq	$16, %rsp
	popq	%rbp
	retq
	.cfi_endproc

	.globl	__ZN3std11collections4hash3map20HashMap$LT$K$C$V$GT$3new17hb520e7ccdb768829E
	.p2align	4, 0x90
__ZN3std11collections4hash3map20HashMap$LT$K$C$V$GT$3new17hb520e7ccdb768829E:
	.cfi_startproc
	pushq	%rbp
	.cfi_def_cfa_offset 16
	.cfi_offset %rbp, -16
	movq	%rsp, %rbp
	.cfi_def_cfa_register %rbp
	subq	$16, %rsp
	movq	%rdi, %rax
	movq	%rax, -8(%rbp)
	callq	__ZN96_$LT$std..collections..hash..map..HashMap$LT$K$C$V$C$S$GT$$u20$as$u20$core..default..Default$GT$7default17h81b8c8ae0407542bE
	movq	-8(%rbp), %rax
	addq	$16, %rsp
	popq	%rbp
	retq
	.cfi_endproc

	.globl	__ZN3std11collections4hash3map24HashMap$LT$K$C$V$C$S$GT$11with_hasher17h2c7565db9cc1f31dE
	.p2align	4, 0x90
__ZN3std11collections4hash3map24HashMap$LT$K$C$V$C$S$GT$11with_hasher17h2c7565db9cc1f31dE:
	.cfi_startproc
	pushq	%rbp
	.cfi_def_cfa_offset 16
	.cfi_offset %rbp, -16
	movq	%rsp, %rbp
	.cfi_def_cfa_register %rbp
	subq	$80, %rsp
	movq	%rdi, %rax
	leaq	-56(%rbp), %rcx
	movq	%rdi, -64(%rbp)
	movq	%rcx, %rdi
	movq	%rax, -72(%rbp)
	callq	__ZN9hashbrown3map24HashMap$LT$K$C$V$C$S$GT$11with_hasher17h3b4d848864030a2cE
	movq	-64(%rbp), %rax
	leaq	-56(%rbp), %rcx
	movq	%rax, %rdi
	movq	%rcx, %rsi
	movl	$56, %edx
	callq	_memcpy
	movq	-72(%rbp), %rax
	addq	$80, %rsp
	popq	%rbp
	retq
	.cfi_endproc

	.globl	__ZN3std11collections4hash3map24HashMap$LT$K$C$V$C$S$GT$11with_hasher17h6c1cc4a29e901fa4E
	.p2align	4, 0x90
__ZN3std11collections4hash3map24HashMap$LT$K$C$V$C$S$GT$11with_hasher17h6c1cc4a29e901fa4E:
	.cfi_startproc
	pushq	%rbp
	.cfi_def_cfa_offset 16
	.cfi_offset %rbp, -16
	movq	%rsp, %rbp
	.cfi_def_cfa_register %rbp
	subq	$80, %rsp
	movq	%rdi, %rax
	leaq	-56(%rbp), %rcx
	movq	%rdi, -64(%rbp)
	movq	%rcx, %rdi
	movq	%rax, -72(%rbp)
	callq	__ZN9hashbrown3map24HashMap$LT$K$C$V$C$S$GT$11with_hasher17h6826f8aff302851fE
	movq	-64(%rbp), %rax
	leaq	-56(%rbp), %rcx
	movq	%rax, %rdi
	movq	%rcx, %rsi
	movl	$56, %edx
	callq	_memcpy
	movq	-72(%rbp), %rax
	addq	$80, %rsp
	popq	%rbp
	retq
	.cfi_endproc

	.globl	__ZN3std11collections4hash3map24HashMap$LT$K$C$V$C$S$GT$3get17h792ddb9dd7e11836E
	.p2align	4, 0x90
__ZN3std11collections4hash3map24HashMap$LT$K$C$V$C$S$GT$3get17h792ddb9dd7e11836E:
	.cfi_startproc
	pushq	%rbp
	.cfi_def_cfa_offset 16
	.cfi_offset %rbp, -16
	movq	%rsp, %rbp
	.cfi_def_cfa_register %rbp
	subq	$16, %rsp
	callq	__ZN9hashbrown3map24HashMap$LT$K$C$V$C$S$GT$3get17h5e570d9566707efcE
	movq	%rax, -8(%rbp)
	movq	-8(%rbp), %rax
	addq	$16, %rsp
	popq	%rbp
	retq
	.cfi_endproc

	.globl	__ZN3std11collections4hash3map24HashMap$LT$K$C$V$C$S$GT$3get17h8e91300b5fe8ae32E
	.p2align	4, 0x90
__ZN3std11collections4hash3map24HashMap$LT$K$C$V$C$S$GT$3get17h8e91300b5fe8ae32E:
	.cfi_startproc
	pushq	%rbp
	.cfi_def_cfa_offset 16
	.cfi_offset %rbp, -16
	movq	%rsp, %rbp
	.cfi_def_cfa_register %rbp
	subq	$16, %rsp
	callq	__ZN9hashbrown3map24HashMap$LT$K$C$V$C$S$GT$3get17h1f9ec0ca820b0f19E
	movq	%rax, -8(%rbp)
	movq	-8(%rbp), %rax
	addq	$16, %rsp
	popq	%rbp
	retq
	.cfi_endproc

	.globl	__ZN3std11collections4hash3map24HashMap$LT$K$C$V$C$S$GT$4iter17h0e8df474d6899691E
	.p2align	4, 0x90
__ZN3std11collections4hash3map24HashMap$LT$K$C$V$C$S$GT$4iter17h0e8df474d6899691E:
	.cfi_startproc
	pushq	%rbp
	.cfi_def_cfa_offset 16
	.cfi_offset %rbp, -16
	movq	%rsp, %rbp
	.cfi_def_cfa_register %rbp
	subq	$64, %rsp
	movq	%rdi, %rax
	leaq	-40(%rbp), %rcx
	movq	%rdi, -48(%rbp)
	movq	%rcx, %rdi
	movq	%rax, -56(%rbp)
	callq	__ZN9hashbrown3map24HashMap$LT$K$C$V$C$S$GT$4iter17haa5512c24cf5443aE
	movq	-48(%rbp), %rax
	leaq	-40(%rbp), %rcx
	movq	%rax, %rdi
	movq	%rcx, %rsi
	movl	$40, %edx
	callq	_memcpy
	movq	-56(%rbp), %rax
	addq	$64, %rsp
	popq	%rbp
	retq
	.cfi_endproc

	.globl	__ZN3std11collections4hash3map24HashMap$LT$K$C$V$C$S$GT$4iter17h4e70098a32cef0ceE
	.p2align	4, 0x90
__ZN3std11collections4hash3map24HashMap$LT$K$C$V$C$S$GT$4iter17h4e70098a32cef0ceE:
	.cfi_startproc
	pushq	%rbp
	.cfi_def_cfa_offset 16
	.cfi_offset %rbp, -16
	movq	%rsp, %rbp
	.cfi_def_cfa_register %rbp
	subq	$64, %rsp
	movq	%rdi, %rax
	leaq	-40(%rbp), %rcx
	movq	%rdi, -48(%rbp)
	movq	%rcx, %rdi
	movq	%rax, -56(%rbp)
	callq	__ZN9hashbrown3map24HashMap$LT$K$C$V$C$S$GT$4iter17h13712df993691d86E
	movq	-48(%rbp), %rax
	leaq	-40(%rbp), %rcx
	movq	%rax, %rdi
	movq	%rcx, %rsi
	movl	$40, %edx
	callq	_memcpy
	movq	-56(%rbp), %rax
	addq	$64, %rsp
	popq	%rbp
	retq
	.cfi_endproc

	.globl	__ZN3std11collections4hash3map24HashMap$LT$K$C$V$C$S$GT$6insert17hab8d69763c3af91eE
	.p2align	4, 0x90
__ZN3std11collections4hash3map24HashMap$LT$K$C$V$C$S$GT$6insert17hab8d69763c3af91eE:
	.cfi_startproc
	pushq	%rbp
	.cfi_def_cfa_offset 16
	.cfi_offset %rbp, -16
	movq	%rsp, %rbp
	.cfi_def_cfa_register %rbp
	subq	$32, %rsp
	movq	(%rsi), %rax
	movq	%rax, -24(%rbp)
	movq	8(%rsi), %rax
	movq	%rax, -16(%rbp)
	movq	16(%rsi), %rax
	movq	%rax, -8(%rbp)
	movzbl	%dl, %ecx
	andl	$1, %ecx
	leaq	-24(%rbp), %rsi
	movl	%ecx, %edx
	callq	__ZN9hashbrown3map24HashMap$LT$K$C$V$C$S$GT$6insert17hdb8e343291b6fb11E
	movb	%al, -25(%rbp)
	movb	-25(%rbp), %al
	addq	$32, %rsp
	popq	%rbp
	retq
	.cfi_endproc

	.globl	__ZN3std11collections4hash3map24HashMap$LT$K$C$V$C$S$GT$6insert17hac541e54d509eb82E
	.p2align	4, 0x90
__ZN3std11collections4hash3map24HashMap$LT$K$C$V$C$S$GT$6insert17hac541e54d509eb82E:
	.cfi_startproc
	pushq	%rbp
	.cfi_def_cfa_offset 16
	.cfi_offset %rbp, -16
	movq	%rsp, %rbp
	.cfi_def_cfa_register %rbp
	subq	$64, %rsp
	movq	%rdi, %rax
	movq	(%rdx), %r8
	movq	%r8, -48(%rbp)
	movq	8(%rdx), %r8
	movq	%r8, -40(%rbp)
	movq	16(%rdx), %rdx
	movq	%rdx, -32(%rbp)
	movq	(%rcx), %rdx
	movq	%rdx, -24(%rbp)
	movq	8(%rcx), %rdx
	movq	%rdx, -16(%rbp)
	movq	16(%rcx), %rcx
	movq	%rcx, -8(%rbp)
	leaq	-48(%rbp), %rdx
	leaq	-24(%rbp), %rcx
	movq	%rax, -56(%rbp)
	callq	__ZN9hashbrown3map24HashMap$LT$K$C$V$C$S$GT$6insert17h8d2cb7348dffb424E
	movq	-56(%rbp), %rax
	addq	$64, %rsp
	popq	%rbp
	retq
	.cfi_endproc

	.globl	__ZN3std2fs10DirBuilder6create17h4e54fa003787e303E
	.p2align	4, 0x90
__ZN3std2fs10DirBuilder6create17h4e54fa003787e303E:
Lfunc_begin4:
	.cfi_startproc
	.cfi_personality 155, _rust_eh_personality
	.cfi_lsda 16, Lexception4
	pushq	%rbp
	.cfi_def_cfa_offset 16
	.cfi_offset %rbp, -16
	movq	%rsp, %rbp
	.cfi_def_cfa_register %rbp
	subq	$80, %rsp
	movq	%rdi, %rax
	movq	%rdx, -32(%rbp)
	movq	%rcx, -24(%rbp)
Ltmp22:
	leaq	-32(%rbp), %rcx
	movq	%rdi, -40(%rbp)
	movq	%rcx, %rdi
	movq	%rsi, -48(%rbp)
	movq	%rax, -56(%rbp)
	callq	__ZN55_$LT$$RF$T$u20$as$u20$core..convert..AsRef$LT$U$GT$$GT$6as_ref17h77c0003224f60af6E
Ltmp23:
	movq	%rdx, -64(%rbp)
	movq	%rax, -72(%rbp)
	jmp	LBB66_2
LBB66_1:
	movq	-16(%rbp), %rdi
	callq	__Unwind_Resume
	ud2
LBB66_2:
Ltmp24:
	movq	-40(%rbp), %rdi
	movq	-48(%rbp), %rsi
	movq	-72(%rbp), %rdx
	movq	-64(%rbp), %rcx
	callq	__ZN3std2fs10DirBuilder7_create17h855da2cea6e14264E
Ltmp25:
	jmp	LBB66_4
LBB66_3:
	jmp	LBB66_1
LBB66_4:
	jmp	LBB66_5
LBB66_5:
	movq	-56(%rbp), %rax
	addq	$80, %rsp
	popq	%rbp
	retq
LBB66_6:
Ltmp26:
	movq	%rax, -16(%rbp)
	movl	%edx, -8(%rbp)
	jmp	LBB66_3
Lfunc_end4:
	.cfi_endproc
	.section	__TEXT,__gcc_except_tab
	.p2align	2
GCC_except_table66:
Lexception4:
	.byte	255
	.byte	255
	.byte	1
	.uleb128 Lcst_end4-Lcst_begin4
Lcst_begin4:
	.uleb128 Ltmp22-Lfunc_begin4
	.uleb128 Ltmp23-Ltmp22
	.uleb128 Ltmp26-Lfunc_begin4
	.byte	0
	.uleb128 Ltmp23-Lfunc_begin4
	.uleb128 Ltmp24-Ltmp23
	.byte	0
	.byte	0
	.uleb128 Ltmp24-Lfunc_begin4
	.uleb128 Ltmp25-Ltmp24
	.uleb128 Ltmp26-Lfunc_begin4
	.byte	0
Lcst_end4:
	.p2align	2

	.section	__TEXT,__text,regular,pure_instructions
	.globl	__ZN3std2fs11OpenOptions4open17h1e6589f0f862fbd0E
	.p2align	4, 0x90
__ZN3std2fs11OpenOptions4open17h1e6589f0f862fbd0E:
Lfunc_begin5:
	.cfi_startproc
	.cfi_personality 155, _rust_eh_personality
	.cfi_lsda 16, Lexception5
	pushq	%rbp
	.cfi_def_cfa_offset 16
	.cfi_offset %rbp, -16
	movq	%rsp, %rbp
	.cfi_def_cfa_register %rbp
	subq	$80, %rsp
	movq	%rdi, %rax
	movq	%rdx, -32(%rbp)
	movq	%rcx, -24(%rbp)
Ltmp27:
	leaq	-32(%rbp), %rcx
	movq	%rdi, -40(%rbp)
	movq	%rcx, %rdi
	movq	%rsi, -48(%rbp)
	movq	%rax, -56(%rbp)
	callq	__ZN55_$LT$$RF$T$u20$as$u20$core..convert..AsRef$LT$U$GT$$GT$6as_ref17h77c0003224f60af6E
Ltmp28:
	movq	%rdx, -64(%rbp)
	movq	%rax, -72(%rbp)
	jmp	LBB67_2
LBB67_1:
	movq	-16(%rbp), %rdi
	callq	__Unwind_Resume
	ud2
LBB67_2:
Ltmp29:
	movq	-40(%rbp), %rdi
	movq	-48(%rbp), %rsi
	movq	-72(%rbp), %rdx
	movq	-64(%rbp), %rcx
	callq	__ZN3std2fs11OpenOptions5_open17h312be75fd738f201E
Ltmp30:
	jmp	LBB67_4
LBB67_3:
	jmp	LBB67_1
LBB67_4:
	jmp	LBB67_5
LBB67_5:
	movq	-56(%rbp), %rax
	addq	$80, %rsp
	popq	%rbp
	retq
LBB67_6:
Ltmp31:
	movq	%rax, -16(%rbp)
	movl	%edx, -8(%rbp)
	jmp	LBB67_3
Lfunc_end5:
	.cfi_endproc
	.section	__TEXT,__gcc_except_tab
	.p2align	2
GCC_except_table67:
Lexception5:
	.byte	255
	.byte	255
	.byte	1
	.uleb128 Lcst_end5-Lcst_begin5
Lcst_begin5:
	.uleb128 Ltmp27-Lfunc_begin5
	.uleb128 Ltmp28-Ltmp27
	.uleb128 Ltmp31-Lfunc_begin5
	.byte	0
	.uleb128 Ltmp28-Lfunc_begin5
	.uleb128 Ltmp29-Ltmp28
	.byte	0
	.byte	0
	.uleb128 Ltmp29-Lfunc_begin5
	.uleb128 Ltmp30-Ltmp29
	.uleb128 Ltmp31-Lfunc_begin5
	.byte	0
Lcst_end5:
	.p2align	2

	.section	__TEXT,__text,regular,pure_instructions
	.globl	__ZN3std2fs11remove_file17h195deaa2911917ddE
	.p2align	4, 0x90
__ZN3std2fs11remove_file17h195deaa2911917ddE:
Lfunc_begin6:
	.cfi_startproc
	.cfi_personality 155, _rust_eh_personality
	.cfi_lsda 16, Lexception6
	pushq	%rbp
	.cfi_def_cfa_offset 16
	.cfi_offset %rbp, -16
	movq	%rsp, %rbp
	.cfi_def_cfa_register %rbp
	subq	$64, %rsp
	movq	%rdi, %rax
	movq	%rsi, -24(%rbp)
Ltmp32:
	leaq	-24(%rbp), %rcx
	movq	%rdi, -32(%rbp)
	movq	%rcx, %rdi
	movq	%rax, -40(%rbp)
	callq	__ZN55_$LT$$RF$T$u20$as$u20$core..convert..AsRef$LT$U$GT$$GT$6as_ref17h43469583ace97614E
Ltmp33:
	movq	%rdx, -48(%rbp)
	movq	%rax, -56(%rbp)
	jmp	LBB68_2
LBB68_1:
	movq	-16(%rbp), %rdi
	callq	__Unwind_Resume
	ud2
LBB68_2:
Ltmp34:
	movq	-32(%rbp), %rdi
	movq	-56(%rbp), %rsi
	movq	-48(%rbp), %rdx
	callq	__ZN3std3sys4unix2fs6unlink17h3d2c3477ad62eec9E
Ltmp35:
	jmp	LBB68_4
LBB68_3:
	jmp	LBB68_1
LBB68_4:
	jmp	LBB68_5
LBB68_5:
	movq	-40(%rbp), %rax
	addq	$64, %rsp
	popq	%rbp
	retq
LBB68_6:
Ltmp36:
	movq	%rax, -16(%rbp)
	movl	%edx, -8(%rbp)
	jmp	LBB68_3
Lfunc_end6:
	.cfi_endproc
	.section	__TEXT,__gcc_except_tab
	.p2align	2
GCC_except_table68:
Lexception6:
	.byte	255
	.byte	255
	.byte	1
	.uleb128 Lcst_end6-Lcst_begin6
Lcst_begin6:
	.uleb128 Ltmp32-Lfunc_begin6
	.uleb128 Ltmp33-Ltmp32
	.uleb128 Ltmp36-Lfunc_begin6
	.byte	0
	.uleb128 Ltmp33-Lfunc_begin6
	.uleb128 Ltmp34-Ltmp33
	.byte	0
	.byte	0
	.uleb128 Ltmp34-Lfunc_begin6
	.uleb128 Ltmp35-Ltmp34
	.uleb128 Ltmp36-Lfunc_begin6
	.byte	0
Lcst_end6:
	.p2align	2

	.section	__TEXT,__text,regular,pure_instructions
	.globl	__ZN3std2fs11remove_file17hcd17a6b9898e18aaE
	.p2align	4, 0x90
__ZN3std2fs11remove_file17hcd17a6b9898e18aaE:
Lfunc_begin7:
	.cfi_startproc
	.cfi_personality 155, _rust_eh_personality
	.cfi_lsda 16, Lexception7
	pushq	%rbp
	.cfi_def_cfa_offset 16
	.cfi_offset %rbp, -16
	movq	%rsp, %rbp
	.cfi_def_cfa_register %rbp
	subq	$64, %rsp
	movq	%rdi, %rax
	movq	%rsi, -24(%rbp)
Ltmp37:
	leaq	-24(%rbp), %rcx
	movq	%rdi, -32(%rbp)
	movq	%rcx, %rdi
	movq	%rax, -40(%rbp)
	callq	__ZN55_$LT$$RF$T$u20$as$u20$core..convert..AsRef$LT$U$GT$$GT$6as_ref17hc54d8751771396c3E
Ltmp38:
	movq	%rdx, -48(%rbp)
	movq	%rax, -56(%rbp)
	jmp	LBB69_2
LBB69_1:
	movq	-16(%rbp), %rdi
	callq	__Unwind_Resume
	ud2
LBB69_2:
Ltmp39:
	movq	-32(%rbp), %rdi
	movq	-56(%rbp), %rsi
	movq	-48(%rbp), %rdx
	callq	__ZN3std3sys4unix2fs6unlink17h3d2c3477ad62eec9E
Ltmp40:
	jmp	LBB69_4
LBB69_3:
	jmp	LBB69_1
LBB69_4:
	jmp	LBB69_5
LBB69_5:
	movq	-40(%rbp), %rax
	addq	$64, %rsp
	popq	%rbp
	retq
LBB69_6:
Ltmp41:
	movq	%rax, -16(%rbp)
	movl	%edx, -8(%rbp)
	jmp	LBB69_3
Lfunc_end7:
	.cfi_endproc
	.section	__TEXT,__gcc_except_tab
	.p2align	2
GCC_except_table69:
Lexception7:
	.byte	255
	.byte	255
	.byte	1
	.uleb128 Lcst_end7-Lcst_begin7
Lcst_begin7:
	.uleb128 Ltmp37-Lfunc_begin7
	.uleb128 Ltmp38-Ltmp37
	.uleb128 Ltmp41-Lfunc_begin7
	.byte	0
	.uleb128 Ltmp38-Lfunc_begin7
	.uleb128 Ltmp39-Ltmp38
	.byte	0
	.byte	0
	.uleb128 Ltmp39-Lfunc_begin7
	.uleb128 Ltmp40-Ltmp39
	.uleb128 Ltmp41-Lfunc_begin7
	.byte	0
Lcst_end7:
	.p2align	2

	.section	__TEXT,__text,regular,pure_instructions
	.globl	__ZN3std2fs14create_dir_all17h0442fe58e770e1ebE
	.p2align	4, 0x90
__ZN3std2fs14create_dir_all17h0442fe58e770e1ebE:
Lfunc_begin8:
	.cfi_startproc
	.cfi_personality 155, _rust_eh_personality
	.cfi_lsda 16, Lexception8
	pushq	%rbp
	.cfi_def_cfa_offset 16
	.cfi_offset %rbp, -16
	movq	%rsp, %rbp
	.cfi_def_cfa_register %rbp
	subq	$96, %rsp
	movq	%rdi, %rax
	movq	%rsi, -40(%rbp)
	movq	%rdx, -32(%rbp)
Ltmp42:
	movq	%rdi, -48(%rbp)
	movq	%rax, -56(%rbp)
	callq	__ZN3std2fs10DirBuilder3new17h9659c7ea41fe678bE
Ltmp43:
	movb	%dl, -57(%rbp)
	movw	%ax, -60(%rbp)
	jmp	LBB70_2
LBB70_1:
	movq	-16(%rbp), %rdi
	callq	__Unwind_Resume
	ud2
LBB70_2:
	movw	-60(%rbp), %ax
	movw	%ax, -24(%rbp)
	movb	-57(%rbp), %cl
	movb	%cl, -22(%rbp)
Ltmp44:
	leaq	-24(%rbp), %rdi
	movl	$1, %esi
	callq	__ZN3std2fs10DirBuilder9recursive17hc04c2254fbf390ffE
Ltmp45:
	movq	%rax, -72(%rbp)
	jmp	LBB70_4
LBB70_3:
	jmp	LBB70_1
LBB70_4:
Ltmp46:
	leaq	-40(%rbp), %rdi
	callq	__ZN55_$LT$$RF$T$u20$as$u20$core..convert..AsRef$LT$U$GT$$GT$6as_ref17h77c0003224f60af6E
Ltmp47:
	movq	%rdx, -80(%rbp)
	movq	%rax, -88(%rbp)
	jmp	LBB70_5
LBB70_5:
Ltmp48:
	movq	-48(%rbp), %rdi
	movq	-72(%rbp), %rsi
	movq	-88(%rbp), %rdx
	movq	-80(%rbp), %rcx
	callq	__ZN3std2fs10DirBuilder6create17h4e54fa003787e303E
Ltmp49:
	jmp	LBB70_6
LBB70_6:
	jmp	LBB70_7
LBB70_7:
	movq	-56(%rbp), %rax
	addq	$96, %rsp
	popq	%rbp
	retq
LBB70_8:
Ltmp50:
	movq	%rax, -16(%rbp)
	movl	%edx, -8(%rbp)
	jmp	LBB70_3
Lfunc_end8:
	.cfi_endproc
	.section	__TEXT,__gcc_except_tab
	.p2align	2
GCC_except_table70:
Lexception8:
	.byte	255
	.byte	255
	.byte	1
	.uleb128 Lcst_end8-Lcst_begin8
Lcst_begin8:
	.uleb128 Ltmp42-Lfunc_begin8
	.uleb128 Ltmp43-Ltmp42
	.uleb128 Ltmp50-Lfunc_begin8
	.byte	0
	.uleb128 Ltmp43-Lfunc_begin8
	.uleb128 Ltmp44-Ltmp43
	.byte	0
	.byte	0
	.uleb128 Ltmp44-Lfunc_begin8
	.uleb128 Ltmp49-Ltmp44
	.uleb128 Ltmp50-Lfunc_begin8
	.byte	0
Lcst_end8:
	.p2align	2

	.section	__TEXT,__text,regular,pure_instructions
	.globl	__ZN3std2fs4File6create17h90c74531e2fb78afE
	.p2align	4, 0x90
__ZN3std2fs4File6create17h90c74531e2fb78afE:
Lfunc_begin9:
	.cfi_startproc
	.cfi_personality 155, _rust_eh_personality
	.cfi_lsda 16, Lexception9
	pushq	%rbp
	.cfi_def_cfa_offset 16
	.cfi_offset %rbp, -16
	movq	%rsp, %rbp
	.cfi_def_cfa_register %rbp
	subq	$96, %rsp
	movq	%rdi, %rax
	movq	%rsi, -40(%rbp)
Ltmp51:
	leaq	-32(%rbp), %rcx
	movq	%rdi, -48(%rbp)
	movq	%rcx, %rdi
	movq	%rax, -56(%rbp)
	callq	__ZN3std2fs11OpenOptions3new17hca976b3ec2e3e302E
Ltmp52:
	jmp	LBB71_2
LBB71_1:
	movq	-16(%rbp), %rdi
	callq	__Unwind_Resume
	ud2
LBB71_2:
Ltmp53:
	leaq	-32(%rbp), %rdi
	movl	$1, %esi
	callq	__ZN3std2fs11OpenOptions5write17h7ff88dd11abbeebcE
Ltmp54:
	movq	%rax, -64(%rbp)
	jmp	LBB71_4
LBB71_3:
	jmp	LBB71_1
LBB71_4:
Ltmp55:
	movl	$1, %esi
	movq	-64(%rbp), %rdi
	callq	__ZN3std2fs11OpenOptions6create17h7f59c377eb009c07E
Ltmp56:
	movq	%rax, -72(%rbp)
	jmp	LBB71_5
LBB71_5:
Ltmp57:
	movl	$1, %esi
	movq	-72(%rbp), %rdi
	callq	__ZN3std2fs11OpenOptions8truncate17h299eca47ca4f0a01E
Ltmp58:
	movq	%rax, -80(%rbp)
	jmp	LBB71_6
LBB71_6:
Ltmp59:
	leaq	-40(%rbp), %rdi
	callq	__ZN55_$LT$$RF$T$u20$as$u20$core..convert..AsRef$LT$U$GT$$GT$6as_ref17hb0b031e26deb972fE
Ltmp60:
	movq	%rdx, -88(%rbp)
	movq	%rax, -96(%rbp)
	jmp	LBB71_7
LBB71_7:
Ltmp61:
	movq	-48(%rbp), %rdi
	movq	-80(%rbp), %rsi
	movq	-96(%rbp), %rdx
	movq	-88(%rbp), %rcx
	callq	__ZN3std2fs11OpenOptions4open17h1e6589f0f862fbd0E
Ltmp62:
	jmp	LBB71_8
LBB71_8:
	jmp	LBB71_9
LBB71_9:
	movq	-56(%rbp), %rax
	addq	$96, %rsp
	popq	%rbp
	retq
LBB71_10:
Ltmp63:
	movq	%rax, -16(%rbp)
	movl	%edx, -8(%rbp)
	jmp	LBB71_3
Lfunc_end9:
	.cfi_endproc
	.section	__TEXT,__gcc_except_tab
	.p2align	2
GCC_except_table71:
Lexception9:
	.byte	255
	.byte	255
	.byte	1
	.uleb128 Lcst_end9-Lcst_begin9
Lcst_begin9:
	.uleb128 Ltmp51-Lfunc_begin9
	.uleb128 Ltmp52-Ltmp51
	.uleb128 Ltmp63-Lfunc_begin9
	.byte	0
	.uleb128 Ltmp52-Lfunc_begin9
	.uleb128 Ltmp53-Ltmp52
	.byte	0
	.byte	0
	.uleb128 Ltmp53-Lfunc_begin9
	.uleb128 Ltmp62-Ltmp53
	.uleb128 Ltmp63-Lfunc_begin9
	.byte	0
Lcst_end9:
	.p2align	2

	.section	__TEXT,__text,regular,pure_instructions
	.globl	__ZN3std2fs4File6create17hc46f5aa82766a129E
	.p2align	4, 0x90
__ZN3std2fs4File6create17hc46f5aa82766a129E:
Lfunc_begin10:
	.cfi_startproc
	.cfi_personality 155, _rust_eh_personality
	.cfi_lsda 16, Lexception10
	pushq	%rbp
	.cfi_def_cfa_offset 16
	.cfi_offset %rbp, -16
	movq	%rsp, %rbp
	.cfi_def_cfa_register %rbp
	subq	$96, %rsp
	movq	%rdi, %rax
	movq	%rsi, -40(%rbp)
Ltmp64:
	leaq	-32(%rbp), %rcx
	movq	%rdi, -48(%rbp)
	movq	%rcx, %rdi
	movq	%rax, -56(%rbp)
	callq	__ZN3std2fs11OpenOptions3new17hca976b3ec2e3e302E
Ltmp65:
	jmp	LBB72_2
LBB72_1:
	movq	-16(%rbp), %rdi
	callq	__Unwind_Resume
	ud2
LBB72_2:
Ltmp66:
	leaq	-32(%rbp), %rdi
	movl	$1, %esi
	callq	__ZN3std2fs11OpenOptions5write17h7ff88dd11abbeebcE
Ltmp67:
	movq	%rax, -64(%rbp)
	jmp	LBB72_4
LBB72_3:
	jmp	LBB72_1
LBB72_4:
Ltmp68:
	movl	$1, %esi
	movq	-64(%rbp), %rdi
	callq	__ZN3std2fs11OpenOptions6create17h7f59c377eb009c07E
Ltmp69:
	movq	%rax, -72(%rbp)
	jmp	LBB72_5
LBB72_5:
Ltmp70:
	movl	$1, %esi
	movq	-72(%rbp), %rdi
	callq	__ZN3std2fs11OpenOptions8truncate17h299eca47ca4f0a01E
Ltmp71:
	movq	%rax, -80(%rbp)
	jmp	LBB72_6
LBB72_6:
Ltmp72:
	leaq	-40(%rbp), %rdi
	callq	__ZN55_$LT$$RF$T$u20$as$u20$core..convert..AsRef$LT$U$GT$$GT$6as_ref17hc54d8751771396c3E
Ltmp73:
	movq	%rdx, -88(%rbp)
	movq	%rax, -96(%rbp)
	jmp	LBB72_7
LBB72_7:
Ltmp74:
	movq	-48(%rbp), %rdi
	movq	-80(%rbp), %rsi
	movq	-96(%rbp), %rdx
	movq	-88(%rbp), %rcx
	callq	__ZN3std2fs11OpenOptions4open17h1e6589f0f862fbd0E
Ltmp75:
	jmp	LBB72_8
LBB72_8:
	jmp	LBB72_9
LBB72_9:
	movq	-56(%rbp), %rax
	addq	$96, %rsp
	popq	%rbp
	retq
LBB72_10:
Ltmp76:
	movq	%rax, -16(%rbp)
	movl	%edx, -8(%rbp)
	jmp	LBB72_3
Lfunc_end10:
	.cfi_endproc
	.section	__TEXT,__gcc_except_tab
	.p2align	2
GCC_except_table72:
Lexception10:
	.byte	255
	.byte	255
	.byte	1
	.uleb128 Lcst_end10-Lcst_begin10
Lcst_begin10:
	.uleb128 Ltmp64-Lfunc_begin10
	.uleb128 Ltmp65-Ltmp64
	.uleb128 Ltmp76-Lfunc_begin10
	.byte	0
	.uleb128 Ltmp65-Lfunc_begin10
	.uleb128 Ltmp66-Ltmp65
	.byte	0
	.byte	0
	.uleb128 Ltmp66-Lfunc_begin10
	.uleb128 Ltmp75-Ltmp66
	.uleb128 Ltmp76-Lfunc_begin10
	.byte	0
Lcst_end10:
	.p2align	2

	.section	__TEXT,__text,regular,pure_instructions
	.globl	__ZN3std2fs4copy17h5ba61fc335c90b9eE
	.p2align	4, 0x90
__ZN3std2fs4copy17h5ba61fc335c90b9eE:
Lfunc_begin11:
	.cfi_startproc
	.cfi_personality 155, _rust_eh_personality
	.cfi_lsda 16, Lexception11
	pushq	%rbp
	.cfi_def_cfa_offset 16
	.cfi_offset %rbp, -16
	movq	%rsp, %rbp
	.cfi_def_cfa_register %rbp
	subq	$96, %rsp
	movq	%rdi, %rax
	movq	%rsi, -32(%rbp)
	movq	%rdx, -24(%rbp)
Ltmp77:
	leaq	-32(%rbp), %rcx
	movq	%rdi, -40(%rbp)
	movq	%rcx, %rdi
	movq	%rax, -48(%rbp)
	callq	__ZN55_$LT$$RF$T$u20$as$u20$core..convert..AsRef$LT$U$GT$$GT$6as_ref17h43469583ace97614E
Ltmp78:
	movq	%rdx, -56(%rbp)
	movq	%rax, -64(%rbp)
	jmp	LBB73_2
LBB73_1:
	movq	-16(%rbp), %rdi
	callq	__Unwind_Resume
	ud2
LBB73_2:
	movq	-64(%rbp), %rax
	movq	-56(%rbp), %rcx
Ltmp79:
	leaq	-24(%rbp), %rdi
	movq	%rax, -72(%rbp)
	movq	%rcx, -80(%rbp)
	callq	__ZN55_$LT$$RF$T$u20$as$u20$core..convert..AsRef$LT$U$GT$$GT$6as_ref17hc54d8751771396c3E
Ltmp80:
	movq	%rdx, -88(%rbp)
	movq	%rax, -96(%rbp)
	jmp	LBB73_5
LBB73_3:
	jmp	LBB73_1
LBB73_4:
	jmp	LBB73_3
LBB73_5:
Ltmp81:
	movq	-40(%rbp), %rdi
	movq	-72(%rbp), %rsi
	movq	-80(%rbp), %rdx
	movq	-96(%rbp), %rcx
	movq	-88(%rbp), %r8
	callq	__ZN3std3sys4unix2fs4copy17h54624362258c2143E
Ltmp82:
	jmp	LBB73_6
LBB73_6:
	jmp	LBB73_7
LBB73_7:
	jmp	LBB73_8
LBB73_8:
	movq	-48(%rbp), %rax
	addq	$96, %rsp
	popq	%rbp
	retq
LBB73_9:
Ltmp83:
	movq	%rax, -16(%rbp)
	movl	%edx, -8(%rbp)
	jmp	LBB73_4
Lfunc_end11:
	.cfi_endproc
	.section	__TEXT,__gcc_except_tab
	.p2align	2
GCC_except_table73:
Lexception11:
	.byte	255
	.byte	255
	.byte	1
	.uleb128 Lcst_end11-Lcst_begin11
Lcst_begin11:
	.uleb128 Ltmp77-Lfunc_begin11
	.uleb128 Ltmp78-Ltmp77
	.uleb128 Ltmp83-Lfunc_begin11
	.byte	0
	.uleb128 Ltmp78-Lfunc_begin11
	.uleb128 Ltmp79-Ltmp78
	.byte	0
	.byte	0
	.uleb128 Ltmp79-Lfunc_begin11
	.uleb128 Ltmp82-Ltmp79
	.uleb128 Ltmp83-Lfunc_begin11
	.byte	0
Lcst_end11:
	.p2align	2

	.section	__TEXT,__text,regular,pure_instructions
	.globl	__ZN3std2fs9hard_link17h4c1ce6c070ec90c6E
	.p2align	4, 0x90
__ZN3std2fs9hard_link17h4c1ce6c070ec90c6E:
Lfunc_begin12:
	.cfi_startproc
	.cfi_personality 155, _rust_eh_personality
	.cfi_lsda 16, Lexception12
	pushq	%rbp
	.cfi_def_cfa_offset 16
	.cfi_offset %rbp, -16
	movq	%rsp, %rbp
	.cfi_def_cfa_register %rbp
	subq	$96, %rsp
	movq	%rdi, %rax
	movq	%rsi, -32(%rbp)
	movq	%rdx, -24(%rbp)
Ltmp84:
	leaq	-32(%rbp), %rcx
	movq	%rdi, -40(%rbp)
	movq	%rcx, %rdi
	movq	%rax, -48(%rbp)
	callq	__ZN55_$LT$$RF$T$u20$as$u20$core..convert..AsRef$LT$U$GT$$GT$6as_ref17h43469583ace97614E
Ltmp85:
	movq	%rdx, -56(%rbp)
	movq	%rax, -64(%rbp)
	jmp	LBB74_2
LBB74_1:
	movq	-16(%rbp), %rdi
	callq	__Unwind_Resume
	ud2
LBB74_2:
	movq	-64(%rbp), %rax
	movq	-56(%rbp), %rcx
Ltmp86:
	leaq	-24(%rbp), %rdi
	movq	%rax, -72(%rbp)
	movq	%rcx, -80(%rbp)
	callq	__ZN55_$LT$$RF$T$u20$as$u20$core..convert..AsRef$LT$U$GT$$GT$6as_ref17hc54d8751771396c3E
Ltmp87:
	movq	%rdx, -88(%rbp)
	movq	%rax, -96(%rbp)
	jmp	LBB74_5
LBB74_3:
	jmp	LBB74_1
LBB74_4:
	jmp	LBB74_3
LBB74_5:
Ltmp88:
	movq	-40(%rbp), %rdi
	movq	-72(%rbp), %rsi
	movq	-80(%rbp), %rdx
	movq	-96(%rbp), %rcx
	movq	-88(%rbp), %r8
	callq	__ZN3std3sys4unix2fs4link17h118d71dcbe0093f4E
Ltmp89:
	jmp	LBB74_6
LBB74_6:
	jmp	LBB74_7
LBB74_7:
	jmp	LBB74_8
LBB74_8:
	movq	-48(%rbp), %rax
	addq	$96, %rsp
	popq	%rbp
	retq
LBB74_9:
Ltmp90:
	movq	%rax, -16(%rbp)
	movl	%edx, -8(%rbp)
	jmp	LBB74_4
Lfunc_end12:
	.cfi_endproc
	.section	__TEXT,__gcc_except_tab
	.p2align	2
GCC_except_table74:
Lexception12:
	.byte	255
	.byte	255
	.byte	1
	.uleb128 Lcst_end12-Lcst_begin12
Lcst_begin12:
	.uleb128 Ltmp84-Lfunc_begin12
	.uleb128 Ltmp85-Ltmp84
	.uleb128 Ltmp90-Lfunc_begin12
	.byte	0
	.uleb128 Ltmp85-Lfunc_begin12
	.uleb128 Ltmp86-Ltmp85
	.byte	0
	.byte	0
	.uleb128 Ltmp86-Lfunc_begin12
	.uleb128 Ltmp89-Ltmp86
	.uleb128 Ltmp90-Lfunc_begin12
	.byte	0
Lcst_end12:
	.p2align	2

	.section	__TEXT,__text,regular,pure_instructions
	.globl	__ZN3std2io10read_until17h72de73e7be6b71bcE
	.p2align	4, 0x90
__ZN3std2io10read_until17h72de73e7be6b71bcE:
Lfunc_begin13:
	.cfi_startproc
	.cfi_personality 155, _rust_eh_personality
	.cfi_lsda 16, Lexception13
	pushq	%rbp
	.cfi_def_cfa_offset 16
	.cfi_offset %rbp, -16
	movq	%rsp, %rbp
	.cfi_def_cfa_register %rbp
	subq	$256, %rsp
	movq	%rdi, %rax
	movq	$0, -144(%rbp)
	movq	%rcx, -152(%rbp)
	movq	%rsi, -160(%rbp)
	movq	%rdi, -168(%rbp)
	movb	%dl, -169(%rbp)
	movq	%rax, -184(%rbp)
	jmp	LBB75_2
LBB75_1:
	movq	-16(%rbp), %rdi
	callq	__Unwind_Resume
	ud2
LBB75_2:
	leaq	-120(%rbp), %rdi
	movq	-160(%rbp), %rsi
	callq	__ZN74_$LT$std..io..buffered..BufReader$LT$R$GT$$u20$as$u20$std..io..BufRead$GT$8fill_buf17h8990f494e52a350fE
	movq	-120(%rbp), %rax
	testq	%rax, %rax
	je	LBB75_5
	jmp	LBB75_31
LBB75_31:
	jmp	LBB75_6
	ud2
LBB75_5:
	movq	-112(%rbp), %rax
	movq	-104(%rbp), %rcx
	movb	-169(%rbp), %dl
	movzbl	%dl, %edi
	movq	%rax, %rsi
	movq	%rcx, %rdx
	movq	%rax, -192(%rbp)
	movq	%rcx, -200(%rbp)
	callq	__ZN3std6memchr6memchr17h9cdd4bb99bdd0315E
	movq	%rdx, -40(%rbp)
	movq	%rax, -48(%rbp)
	jmp	LBB75_14
LBB75_6:
	leaq	-112(%rbp), %rax
	movq	%rax, -96(%rbp)
	movq	-96(%rbp), %rdi
Ltmp91:
	callq	__ZN3std2io5error5Error4kind17hd9a6c08a173f0df0E
Ltmp92:
	movb	%al, -201(%rbp)
	jmp	LBB75_7
LBB75_7:
	movb	-201(%rbp), %al
	movb	%al, -81(%rbp)
	movq	l___unnamed_3(%rip), %rsi
Ltmp93:
	leaq	-81(%rbp), %rdi
	callq	__ZN66_$LT$std..io..error..ErrorKind$u20$as$u20$core..cmp..PartialEq$GT$2eq17hfa7f316b6eff0b1eE
Ltmp94:
	movb	%al, -202(%rbp)
	jmp	LBB75_9
LBB75_8:
	leaq	-120(%rbp), %rdi
	callq	__ZN4core3ptr13drop_in_place17hc7f6ad6c5c4fefcdE
	jmp	LBB75_1
LBB75_9:
	movb	-202(%rbp), %al
	testb	$1, %al
	jne	LBB75_10
	jmp	LBB75_11
LBB75_10:
	leaq	-120(%rbp), %rdi
	callq	__ZN4core3ptr13drop_in_place17hc7f6ad6c5c4fefcdE
	jmp	LBB75_12
LBB75_11:
	movq	-112(%rbp), %rax
	movq	%rax, -80(%rbp)
	movq	-104(%rbp), %rax
	movq	%rax, -72(%rbp)
	movq	-80(%rbp), %rax
	movq	%rax, -64(%rbp)
	movq	-72(%rbp), %rax
	movq	%rax, -56(%rbp)
	movq	-64(%rbp), %rax
	movq	-168(%rbp), %rcx
	movq	%rax, 8(%rcx)
	movq	-56(%rbp), %rax
	movq	%rax, 16(%rcx)
	movq	$1, (%rcx)
	jmp	LBB75_13
LBB75_12:
	jmp	LBB75_2
LBB75_13:
	movq	-184(%rbp), %rax
	addq	$256, %rsp
	popq	%rbp
	retq
LBB75_14:
	movq	-48(%rbp), %rax
	testq	%rax, %rax
	je	LBB75_15
	jmp	LBB75_32
LBB75_32:
	jmp	LBB75_17
LBB75_15:
	movq	-152(%rbp), %rdi
	movq	-192(%rbp), %rsi
	movq	-200(%rbp), %rdx
	callq	__ZN5alloc3vec12Vec$LT$T$GT$17extend_from_slice17h4ba23b668129ff9bE
	jmp	LBB75_20
	ud2
LBB75_17:
	leaq	l___unnamed_4(%rip), %rax
	movq	-40(%rbp), %rcx
	movq	%rcx, -32(%rbp)
	movq	-32(%rbp), %rdx
	movq	-192(%rbp), %rdi
	movq	-200(%rbp), %rsi
	movq	%rcx, -216(%rbp)
	movq	%rax, %rcx
	callq	__ZN4core5slice74_$LT$impl$u20$core..ops..index..Index$LT$I$GT$$u20$for$u20$$u5b$T$u5d$$GT$5index17hdd0a68939e371290E
	movq	%rax, -224(%rbp)
	movq	%rdx, -232(%rbp)
	movq	-152(%rbp), %rdi
	movq	-224(%rbp), %rsi
	movq	-232(%rbp), %rdx
	callq	__ZN5alloc3vec12Vec$LT$T$GT$17extend_from_slice17h4ba23b668129ff9bE
	movq	-216(%rbp), %rax
	addq	$1, %rax
	movb	$1, -136(%rbp)
	movq	%rax, -128(%rbp)
	jmp	LBB75_22
LBB75_20:
	movq	-192(%rbp), %rdi
	movq	-200(%rbp), %rsi
	callq	__ZN4core5slice29_$LT$impl$u20$$u5b$T$u5d$$GT$3len17hd9e2da0297fc4131E
	movq	%rax, -240(%rbp)
	movb	$0, -136(%rbp)
	movq	-240(%rbp), %rax
	movq	%rax, -128(%rbp)
LBB75_22:
	movb	-136(%rbp), %al
	movq	-128(%rbp), %rcx
	movq	-160(%rbp), %rdi
	movq	%rcx, %rsi
	movb	%al, -241(%rbp)
	movq	%rcx, -256(%rbp)
	callq	__ZN74_$LT$std..io..buffered..BufReader$LT$R$GT$$u20$as$u20$std..io..BufRead$GT$7consume17h6f7d5ce9b876af6aE
	movq	-256(%rbp), %rax
	addq	-144(%rbp), %rax
	movq	%rax, -144(%rbp)
	movb	-241(%rbp), %cl
	testb	$1, %cl
	jne	LBB75_24
	jmp	LBB75_26
LBB75_24:
	movb	$1, -17(%rbp)
	jmp	LBB75_27
LBB75_25:
	movb	$0, -17(%rbp)
	jmp	LBB75_27
LBB75_26:
	movq	-256(%rbp), %rax
	cmpq	$0, %rax
	je	LBB75_24
	jmp	LBB75_25
LBB75_27:
	testb	$1, -17(%rbp)
	jne	LBB75_29
	jmp	LBB75_2
LBB75_29:
	movq	-144(%rbp), %rax
	movq	-168(%rbp), %rcx
	movq	%rax, 8(%rcx)
	movq	$0, (%rcx)
	jmp	LBB75_13
LBB75_30:
Ltmp95:
	movq	%rax, -16(%rbp)
	movl	%edx, -8(%rbp)
	jmp	LBB75_8
Lfunc_end13:
	.cfi_endproc
	.section	__TEXT,__gcc_except_tab
	.p2align	2
GCC_except_table75:
Lexception13:
	.byte	255
	.byte	255
	.byte	1
	.uleb128 Lcst_end13-Lcst_begin13
Lcst_begin13:
	.uleb128 Lfunc_begin13-Lfunc_begin13
	.uleb128 Ltmp91-Lfunc_begin13
	.byte	0
	.byte	0
	.uleb128 Ltmp91-Lfunc_begin13
	.uleb128 Ltmp94-Ltmp91
	.uleb128 Ltmp95-Lfunc_begin13
	.byte	0
	.uleb128 Ltmp94-Lfunc_begin13
	.uleb128 Lfunc_end13-Ltmp94
	.byte	0
	.byte	0
Lcst_end13:
	.p2align	2

	.section	__TEXT,__text,regular,pure_instructions
	.p2align	4, 0x90
__ZN3std2io11Initializer10initialize17hc6eedaded0361ac6E:
	.cfi_startproc
	pushq	%rbp
	.cfi_def_cfa_offset 16
	.cfi_offset %rbp, -16
	movq	%rsp, %rbp
	.cfi_def_cfa_register %rbp
	subq	$48, %rsp
	movq	%rsi, -16(%rbp)
	movq	%rdx, -24(%rbp)
	callq	__ZN3std2io11Initializer17should_initialize17h14c944985975545eE
	movb	%al, -25(%rbp)
	movb	-25(%rbp), %al
	testb	$1, %al
	jne	LBB76_3
	jmp	LBB76_2
LBB76_2:
	jmp	LBB76_7
LBB76_3:
	movq	-16(%rbp), %rdi
	movq	-24(%rbp), %rsi
	callq	__ZN4core5slice29_$LT$impl$u20$$u5b$T$u5d$$GT$10as_mut_ptr17h19a1f25ee065670bE
	movq	%rax, -40(%rbp)
	movq	-16(%rbp), %rdi
	movq	-24(%rbp), %rsi
	callq	__ZN4core5slice29_$LT$impl$u20$$u5b$T$u5d$$GT$3len17hd9e2da0297fc4131E
	movq	%rax, -48(%rbp)
	xorl	%esi, %esi
	movq	-40(%rbp), %rdi
	movq	-48(%rbp), %rdx
	callq	__ZN4core10intrinsics11write_bytes17h5b349a0668878216E
	jmp	LBB76_7
LBB76_7:
	addq	$48, %rsp
	popq	%rbp
	retq
	.cfi_endproc

	.p2align	4, 0x90
__ZN3std2io11Initializer17should_initialize17h14c944985975545eE:
	.cfi_startproc
	pushq	%rbp
	.cfi_def_cfa_offset 16
	.cfi_offset %rbp, -16
	movq	%rsp, %rbp
	.cfi_def_cfa_register %rbp
	movb	(%rdi), %al
	andb	$1, %al
	movzbl	%al, %eax
	popq	%rbp
	retq
	.cfi_endproc

	.p2align	4, 0x90
__ZN3std2io11Initializer3nop17h68ede9e73009f9e3E:
	.cfi_startproc
	pushq	%rbp
	.cfi_def_cfa_offset 16
	.cfi_offset %rbp, -16
	movq	%rsp, %rbp
	.cfi_def_cfa_register %rbp
	xorl	%eax, %eax
	andb	$1, %al
	movzbl	%al, %eax
	popq	%rbp
	retq
	.cfi_endproc

	.globl	__ZN3std2io11read_to_end17h0d7473e0b38beab9E
	.p2align	4, 0x90
__ZN3std2io11read_to_end17h0d7473e0b38beab9E:
	.cfi_startproc
	pushq	%rbp
	.cfi_def_cfa_offset 16
	.cfi_offset %rbp, -16
	movq	%rsp, %rbp
	.cfi_def_cfa_register %rbp
	subq	$16, %rsp
	movq	%rdi, %rax
	movq	%rax, -16(%rbp)
	callq	__ZN3std2io28read_to_end_with_reservation17h4743701f325c3698E
	movq	-16(%rbp), %rax
	addq	$16, %rsp
	popq	%rbp
	retq
	.cfi_endproc

	.globl	__ZN3std2io11read_to_end28_$u7b$$u7b$closure$u7d$$u7d$17h29565659959eb480E
	.p2align	4, 0x90
__ZN3std2io11read_to_end28_$u7b$$u7b$closure$u7d$$u7d$17h29565659959eb480E:
	.cfi_startproc
	pushq	%rbp
	.cfi_def_cfa_offset 16
	.cfi_offset %rbp, -16
	movq	%rsp, %rbp
	.cfi_def_cfa_register %rbp
	movl	$32, %eax
	popq	%rbp
	retq
	.cfi_endproc

	.globl	__ZN3std2io28read_to_end_with_reservation17h4743701f325c3698E
	.p2align	4, 0x90
__ZN3std2io28read_to_end_with_reservation17h4743701f325c3698E:
Lfunc_begin14:
	.cfi_startproc
	.cfi_personality 155, _rust_eh_personality
	.cfi_lsda 16, Lexception14
	pushq	%rbp
	.cfi_def_cfa_offset 16
	.cfi_offset %rbp, -16
	movq	%rsp, %rbp
	.cfi_def_cfa_register %rbp
	subq	$352, %rsp
	movq	%rdi, %rax
	movq	%rsi, -208(%rbp)
	movb	$0, -17(%rbp)
	movb	$0, -18(%rbp)
Ltmp96:
	movq	%rdi, -216(%rbp)
	movq	%rdx, %rdi
	movq	%rdx, -224(%rbp)
	movq	%rax, -232(%rbp)
	callq	__ZN5alloc3vec12Vec$LT$T$GT$3len17h6917bd9ced0df80aE
Ltmp97:
	movq	%rax, -240(%rbp)
	jmp	LBB81_2
LBB81_1:
	movq	-16(%rbp), %rdi
	callq	__Unwind_Resume
	ud2
LBB81_2:
Ltmp98:
	movq	-224(%rbp), %rdi
	callq	__ZN5alloc3vec12Vec$LT$T$GT$3len17h6917bd9ced0df80aE
Ltmp99:
	movq	%rax, -248(%rbp)
	jmp	LBB81_4
LBB81_3:
	jmp	LBB81_1
LBB81_4:
	movq	-224(%rbp), %rax
	movq	%rax, -192(%rbp)
	movq	-248(%rbp), %rcx
	movq	%rcx, -184(%rbp)
LBB81_5:
	movq	-192(%rbp), %rdi
	movq	-184(%rbp), %rax
Ltmp100:
	movq	%rax, -256(%rbp)
	callq	__ZN5alloc3vec12Vec$LT$T$GT$3len17h6917bd9ced0df80aE
Ltmp101:
	movq	%rax, -264(%rbp)
	jmp	LBB81_7
LBB81_6:
	leaq	-192(%rbp), %rdi
	callq	__ZN4core3ptr13drop_in_place17h4d74f1d40b0cbe99E
	jmp	LBB81_3
LBB81_7:
	movq	-256(%rbp), %rax
	movq	-264(%rbp), %rcx
	cmpq	%rcx, %rax
	je	LBB81_9
	jmp	LBB81_17
LBB81_9:
	movq	-192(%rbp), %rdi
	movq	-208(%rbp), %rax
	movq	%rax, -176(%rbp)
	movq	-176(%rbp), %rsi
Ltmp102:
	leaq	-200(%rbp), %rax
	movq	%rdi, -272(%rbp)
	movq	%rax, %rdi
	callq	__ZN3std2io11read_to_end28_$u7b$$u7b$closure$u7d$$u7d$17h29565659959eb480E
Ltmp103:
	movq	%rax, -280(%rbp)
	jmp	LBB81_10
LBB81_10:
Ltmp104:
	movq	-272(%rbp), %rdi
	movq	-280(%rbp), %rsi
	callq	__ZN5alloc3vec12Vec$LT$T$GT$7reserve17hdfed9f9290b4b212E
Ltmp105:
	jmp	LBB81_11
LBB81_11:
	movq	-192(%rbp), %rdi
Ltmp106:
	callq	__ZN5alloc3vec12Vec$LT$T$GT$8capacity17he65095412000ffc6E
Ltmp107:
	movq	%rax, -288(%rbp)
	jmp	LBB81_12
LBB81_12:
	movq	-192(%rbp), %rdi
Ltmp108:
	movq	-288(%rbp), %rsi
	callq	__ZN5alloc3vec12Vec$LT$T$GT$7set_len17h8c5ddc4b256185dcE
Ltmp109:
	jmp	LBB81_13
LBB81_13:
Ltmp110:
	leaq	-208(%rbp), %rdi
	callq	__ZN3std2io5impls57_$LT$impl$u20$std..io..Read$u20$for$u20$$RF$mut$u20$R$GT$11initializer17h3c8d527f1af0da04E
Ltmp111:
	movb	%al, -289(%rbp)
	jmp	LBB81_14
LBB81_14:
	movb	-289(%rbp), %al
	andb	$1, %al
	movb	%al, -161(%rbp)
	movq	-192(%rbp), %rdi
	movq	-184(%rbp), %rcx
	movq	%rcx, -160(%rbp)
	movq	-160(%rbp), %rsi
Ltmp112:
	leaq	l___unnamed_5(%rip), %rdx
	callq	__ZN80_$LT$alloc..vec..Vec$LT$T$GT$$u20$as$u20$core..ops..index..IndexMut$LT$I$GT$$GT$9index_mut17hd83cf4f6e97ef7d6E
Ltmp113:
	movq	%rdx, -304(%rbp)
	movq	%rax, -312(%rbp)
	jmp	LBB81_15
LBB81_15:
Ltmp114:
	leaq	-161(%rbp), %rdi
	movq	-312(%rbp), %rsi
	movq	-304(%rbp), %rdx
	callq	__ZN3std2io11Initializer10initialize17hc6eedaded0361ac6E
Ltmp115:
	jmp	LBB81_16
LBB81_16:
	jmp	LBB81_17
LBB81_17:
	movq	-208(%rbp), %rsi
	movq	-192(%rbp), %rdi
	movq	-184(%rbp), %rax
	movq	%rax, -128(%rbp)
	movq	-128(%rbp), %rax
Ltmp116:
	leaq	l___unnamed_6(%rip), %rdx
	movq	%rsi, -320(%rbp)
	movq	%rax, %rsi
	callq	__ZN80_$LT$alloc..vec..Vec$LT$T$GT$$u20$as$u20$core..ops..index..IndexMut$LT$I$GT$$GT$9index_mut17hd83cf4f6e97ef7d6E
Ltmp117:
	movq	%rdx, -328(%rbp)
	movq	%rax, -336(%rbp)
	jmp	LBB81_18
LBB81_18:
Ltmp118:
	leaq	-152(%rbp), %rdi
	movq	-320(%rbp), %rsi
	movq	-336(%rbp), %rdx
	movq	-328(%rbp), %rcx
	callq	__ZN59_$LT$std..process..ChildStdout$u20$as$u20$std..io..Read$GT$4read17h509ab44994a1945fE
Ltmp119:
	jmp	LBB81_19
LBB81_19:
	movb	$1, -17(%rbp)
	movq	-152(%rbp), %rax
	testq	%rax, %rax
	je	LBB81_20
	jmp	LBB81_42
LBB81_42:
	jmp	LBB81_26
LBB81_20:
	cmpq	$0, -144(%rbp)
	je	LBB81_22
	jmp	LBB81_25
	ud2
LBB81_22:
	movq	-184(%rbp), %rax
	movq	-240(%rbp), %rcx
	subq	%rcx, %rax
	movq	%rax, -112(%rbp)
	movq	$0, -120(%rbp)
	movb	$1, -18(%rbp)
	movq	-120(%rbp), %rax
	movq	-216(%rbp), %rdx
	movq	%rax, (%rdx)
	movq	-112(%rbp), %rax
	movq	%rax, 8(%rdx)
	movq	-104(%rbp), %rax
	movq	%rax, 16(%rdx)
	jmp	LBB81_24
LBB81_23:
	movb	$0, -17(%rbp)
	leaq	-152(%rbp), %rdi
	callq	__ZN4core3ptr13drop_in_place17hd06d265a88dcad9aE
	jmp	LBB81_34
LBB81_24:
	movb	$0, -17(%rbp)
	movb	$0, -18(%rbp)
Ltmp128:
	leaq	-192(%rbp), %rdi
	callq	__ZN4core3ptr13drop_in_place17h4d74f1d40b0cbe99E
Ltmp129:
	jmp	LBB81_31
LBB81_25:
	movq	-144(%rbp), %rax
	addq	-184(%rbp), %rax
	movq	%rax, -184(%rbp)
	jmp	LBB81_38
LBB81_26:
	leaq	-144(%rbp), %rax
	movq	%rax, -96(%rbp)
	movq	-96(%rbp), %rdi
Ltmp120:
	callq	__ZN3std2io5error5Error4kind17hd9a6c08a173f0df0E
Ltmp121:
	movb	%al, -337(%rbp)
	jmp	LBB81_27
LBB81_27:
	movb	-337(%rbp), %al
	movb	%al, -81(%rbp)
	movq	l___unnamed_3(%rip), %rsi
Ltmp122:
	leaq	-81(%rbp), %rdi
	callq	__ZN66_$LT$std..io..error..ErrorKind$u20$as$u20$core..cmp..PartialEq$GT$2eq17hfa7f316b6eff0b1eE
Ltmp123:
	movb	%al, -338(%rbp)
	jmp	LBB81_28
LBB81_28:
	movb	-338(%rbp), %al
	testb	$1, %al
	jne	LBB81_29
	jmp	LBB81_30
LBB81_29:
	jmp	LBB81_38
LBB81_30:
	movb	$0, -17(%rbp)
	movq	-144(%rbp), %rax
	movq	%rax, -80(%rbp)
	movq	-136(%rbp), %rax
	movq	%rax, -72(%rbp)
	movq	-80(%rbp), %rax
	movq	%rax, -40(%rbp)
	movq	-72(%rbp), %rax
	movq	%rax, -32(%rbp)
	movq	-40(%rbp), %rax
	movq	%rax, -56(%rbp)
	movq	-32(%rbp), %rax
	movq	%rax, -48(%rbp)
	movq	$1, -64(%rbp)
	movb	$1, -18(%rbp)
	movq	-64(%rbp), %rax
	movq	-216(%rbp), %rcx
	movq	%rax, (%rcx)
	movq	-56(%rbp), %rax
	movq	%rax, 8(%rcx)
	movq	-48(%rbp), %rax
	movq	%rax, 16(%rcx)
	jmp	LBB81_24
LBB81_31:
	jmp	LBB81_32
LBB81_32:
	movq	-232(%rbp), %rax
	addq	$352, %rsp
	popq	%rbp
	retq
LBB81_33:
	movb	$0, -18(%rbp)
	movq	-216(%rbp), %rdi
	callq	__ZN4core3ptr13drop_in_place17hd06d265a88dcad9aE
	jmp	LBB81_6
LBB81_34:
	testb	$1, -18(%rbp)
	jne	LBB81_33
	jmp	LBB81_6
LBB81_35:
	movb	$0, -17(%rbp)
	jmp	LBB81_5
LBB81_36:
	testb	$1, -17(%rbp)
	je	LBB81_35
	movb	$0, -17(%rbp)
	leaq	-144(%rbp), %rdi
Ltmp125:
	callq	__ZN4core3ptr13drop_in_place17hc9e12061a30847ccE
Ltmp126:
	jmp	LBB81_35
LBB81_38:
	cmpq	$1, -152(%rbp)
	je	LBB81_36
	jmp	LBB81_35
LBB81_39:
Ltmp130:
	movq	%rax, -16(%rbp)
	movl	%edx, -8(%rbp)
	jmp	LBB81_3
LBB81_40:
Ltmp127:
	movq	%rax, -16(%rbp)
	movl	%edx, -8(%rbp)
	jmp	LBB81_34
LBB81_41:
Ltmp124:
	movq	%rax, -16(%rbp)
	movl	%edx, -8(%rbp)
	jmp	LBB81_23
Lfunc_end14:
	.cfi_endproc
	.section	__TEXT,__gcc_except_tab
	.p2align	2
GCC_except_table81:
Lexception14:
	.byte	255
	.byte	255
	.byte	1
	.uleb128 Lcst_end14-Lcst_begin14
Lcst_begin14:
	.uleb128 Ltmp96-Lfunc_begin14
	.uleb128 Ltmp97-Ltmp96
	.uleb128 Ltmp130-Lfunc_begin14
	.byte	0
	.uleb128 Ltmp97-Lfunc_begin14
	.uleb128 Ltmp98-Ltmp97
	.byte	0
	.byte	0
	.uleb128 Ltmp98-Lfunc_begin14
	.uleb128 Ltmp99-Ltmp98
	.uleb128 Ltmp130-Lfunc_begin14
	.byte	0
	.uleb128 Ltmp100-Lfunc_begin14
	.uleb128 Ltmp101-Ltmp100
	.uleb128 Ltmp127-Lfunc_begin14
	.byte	0
	.uleb128 Ltmp101-Lfunc_begin14
	.uleb128 Ltmp102-Ltmp101
	.byte	0
	.byte	0
	.uleb128 Ltmp102-Lfunc_begin14
	.uleb128 Ltmp119-Ltmp102
	.uleb128 Ltmp127-Lfunc_begin14
	.byte	0
	.uleb128 Ltmp119-Lfunc_begin14
	.uleb128 Ltmp128-Ltmp119
	.byte	0
	.byte	0
	.uleb128 Ltmp128-Lfunc_begin14
	.uleb128 Ltmp129-Ltmp128
	.uleb128 Ltmp130-Lfunc_begin14
	.byte	0
	.uleb128 Ltmp120-Lfunc_begin14
	.uleb128 Ltmp123-Ltmp120
	.uleb128 Ltmp124-Lfunc_begin14
	.byte	0
	.uleb128 Ltmp123-Lfunc_begin14
	.uleb128 Ltmp125-Ltmp123
	.byte	0
	.byte	0
	.uleb128 Ltmp125-Lfunc_begin14
	.uleb128 Ltmp126-Ltmp125
	.uleb128 Ltmp127-Lfunc_begin14
	.byte	0
Lcst_end14:
	.p2align	2

	.section	__TEXT,__text,regular,pure_instructions
	.globl	__ZN3std2io4Read11read_to_end17h1c636c0a3f0b88feE
	.p2align	4, 0x90
__ZN3std2io4Read11read_to_end17h1c636c0a3f0b88feE:
	.cfi_startproc
	pushq	%rbp
	.cfi_def_cfa_offset 16
	.cfi_offset %rbp, -16
	movq	%rsp, %rbp
	.cfi_def_cfa_register %rbp
	subq	$16, %rsp
	movq	%rdi, %rax
	movq	%rax, -8(%rbp)
	callq	__ZN3std2io11read_to_end17h0d7473e0b38beab9E
	movq	-8(%rbp), %rax
	addq	$16, %rsp
	popq	%rbp
	retq
	.cfi_endproc

	.globl	__ZN3std2io5Write9write_all17hc6c4633481ac3a71E
	.p2align	4, 0x90
__ZN3std2io5Write9write_all17hc6c4633481ac3a71E:
Lfunc_begin15:
	.cfi_startproc
	.cfi_personality 155, _rust_eh_personality
	.cfi_lsda 16, Lexception15
	pushq	%rbp
	.cfi_def_cfa_offset 16
	.cfi_offset %rbp, -16
	movq	%rsp, %rbp
	.cfi_def_cfa_register %rbp
	subq	$192, %rsp
	movq	%rdi, %rax
	movq	%rdx, -136(%rbp)
	movq	%rcx, -128(%rbp)
	movb	$0, -17(%rbp)
	movq	%rsi, -144(%rbp)
	movq	%rdi, -152(%rbp)
	movq	%rax, -160(%rbp)
LBB83_1:
	movq	-136(%rbp), %rdi
	movq	-128(%rbp), %rsi
	callq	__ZN4core5slice29_$LT$impl$u20$$u5b$T$u5d$$GT$8is_empty17h81043a5a4ced8f36E
	movb	%al, -161(%rbp)
	jmp	LBB83_3
LBB83_2:
	movq	-16(%rbp), %rdi
	callq	__Unwind_Resume
	ud2
LBB83_3:
	movb	-161(%rbp), %al
	xorb	$-1, %al
	testb	$1, %al
	jne	LBB83_5
	movq	-152(%rbp), %rax
	movb	$3, (%rax)
	jmp	LBB83_10
LBB83_5:
	movq	-136(%rbp), %rdx
	movq	-128(%rbp), %rcx
	movb	$1, -17(%rbp)
	leaq	-120(%rbp), %rdi
	movq	-144(%rbp), %rsi
	callq	__ZN48_$LT$std..fs..File$u20$as$u20$std..io..Write$GT$5write17hfb525b0216a8eeccE
	movq	-120(%rbp), %rax
	testq	%rax, %rax
	je	LBB83_7
	jmp	LBB83_28
LBB83_28:
	jmp	LBB83_15
LBB83_7:
	cmpq	$0, -112(%rbp)
	je	LBB83_9
	jmp	LBB83_13
	ud2
LBB83_9:
Ltmp137:
	leaq	l___unnamed_7(%rip), %rdx
	leaq	-96(%rbp), %rdi
	movl	$14, %esi
	movl	$28, %ecx
	callq	__ZN3std2io5error5Error3new17hf3bc561e1e35a568E
Ltmp138:
	jmp	LBB83_11
LBB83_10:
	movq	-160(%rbp), %rax
	addq	$192, %rsp
	popq	%rbp
	retq
LBB83_11:
	movq	-96(%rbp), %rax
	movq	-152(%rbp), %rcx
	movq	%rax, (%rcx)
	movq	-88(%rbp), %rax
	movq	%rax, 8(%rcx)
LBB83_12:
	movb	$0, -17(%rbp)
	jmp	LBB83_10
LBB83_13:
	movq	-112(%rbp), %rax
	movq	-136(%rbp), %rdi
	movq	-128(%rbp), %rsi
	movq	%rax, -80(%rbp)
	movq	-80(%rbp), %rdx
Ltmp135:
	leaq	l___unnamed_8(%rip), %rcx
	callq	__ZN4core5slice74_$LT$impl$u20$core..ops..index..Index$LT$I$GT$$u20$for$u20$$u5b$T$u5d$$GT$5index17ha7173994040d96bcE
Ltmp136:
	movq	%rdx, -176(%rbp)
	movq	%rax, -184(%rbp)
	jmp	LBB83_14
LBB83_14:
	movq	-184(%rbp), %rax
	movq	%rax, -136(%rbp)
	movq	-176(%rbp), %rax
	movq	%rax, -128(%rbp)
	jmp	LBB83_26
LBB83_15:
	leaq	-112(%rbp), %rax
	movq	%rax, -72(%rbp)
	movq	-72(%rbp), %rdi
Ltmp131:
	callq	__ZN3std2io5error5Error4kind17hd9a6c08a173f0df0E
Ltmp132:
	movb	%al, -185(%rbp)
	jmp	LBB83_16
LBB83_16:
	movb	-185(%rbp), %al
	movb	%al, -57(%rbp)
	movq	l___unnamed_3(%rip), %rsi
Ltmp133:
	leaq	-57(%rbp), %rdi
	callq	__ZN66_$LT$std..io..error..ErrorKind$u20$as$u20$core..cmp..PartialEq$GT$2eq17hfa7f316b6eff0b1eE
Ltmp134:
	movb	%al, -186(%rbp)
	jmp	LBB83_17
LBB83_17:
	movb	-186(%rbp), %al
	testb	$1, %al
	jne	LBB83_18
	jmp	LBB83_19
LBB83_18:
	jmp	LBB83_26
LBB83_19:
	movb	$0, -17(%rbp)
	movq	-112(%rbp), %rax
	movq	%rax, -56(%rbp)
	movq	-104(%rbp), %rax
	movq	%rax, -48(%rbp)
	movq	-56(%rbp), %rax
	movq	%rax, -40(%rbp)
	movq	-48(%rbp), %rax
	movq	%rax, -32(%rbp)
	movq	-40(%rbp), %rax
	movq	-152(%rbp), %rcx
	movq	%rax, (%rcx)
	movq	-32(%rbp), %rax
	movq	%rax, 8(%rcx)
	jmp	LBB83_12
LBB83_20:
	testb	$1, -17(%rbp)
	je	LBB83_2
	movb	$0, -17(%rbp)
	leaq	-120(%rbp), %rax
	addq	$8, %rax
	movq	%rax, %rdi
	callq	__ZN4core3ptr13drop_in_place17hc9e12061a30847ccE
	jmp	LBB83_2
LBB83_22:
	cmpq	$1, -120(%rbp)
	je	LBB83_20
	jmp	LBB83_2
LBB83_23:
	movb	$0, -17(%rbp)
	jmp	LBB83_1
LBB83_24:
	testb	$1, -17(%rbp)
	je	LBB83_23
	movb	$0, -17(%rbp)
	leaq	-120(%rbp), %rax
	addq	$8, %rax
	movq	%rax, %rdi
	callq	__ZN4core3ptr13drop_in_place17hc9e12061a30847ccE
	jmp	LBB83_23
LBB83_26:
	cmpq	$1, -120(%rbp)
	je	LBB83_24
	jmp	LBB83_23
LBB83_27:
Ltmp139:
	movq	%rax, -16(%rbp)
	movl	%edx, -8(%rbp)
	jmp	LBB83_22
Lfunc_end15:
	.cfi_endproc
	.section	__TEXT,__gcc_except_tab
	.p2align	2
GCC_except_table83:
Lexception15:
	.byte	255
	.byte	255
	.byte	1
	.uleb128 Lcst_end15-Lcst_begin15
Lcst_begin15:
	.uleb128 Lfunc_begin15-Lfunc_begin15
	.uleb128 Ltmp137-Lfunc_begin15
	.byte	0
	.byte	0
	.uleb128 Ltmp137-Lfunc_begin15
	.uleb128 Ltmp134-Ltmp137
	.uleb128 Ltmp139-Lfunc_begin15
	.byte	0
	.uleb128 Ltmp134-Lfunc_begin15
	.uleb128 Lfunc_end15-Ltmp134
	.byte	0
	.byte	0
Lcst_end15:
	.p2align	2

	.section	__TEXT,__text,regular,pure_instructions
	.globl	__ZN3std2io5Write9write_fmt17hd55b7cbd32637584E
	.p2align	4, 0x90
__ZN3std2io5Write9write_fmt17hd55b7cbd32637584E:
Lfunc_begin16:
	.cfi_startproc
	.cfi_personality 155, _rust_eh_personality
	.cfi_lsda 16, Lexception16
	pushq	%rbp
	.cfi_def_cfa_offset 16
	.cfi_offset %rbp, -16
	movq	%rsp, %rbp
	.cfi_def_cfa_register %rbp
	subq	$160, %rsp
	movq	%rdi, %rax
	movb	$0, -17(%rbp)
	movb	$3, -112(%rbp)
	movb	$1, -17(%rbp)
	movq	%rsi, -136(%rbp)
	movq	-112(%rbp), %rcx
	movq	-104(%rbp), %rsi
	movq	%rsi, -120(%rbp)
	movq	%rcx, -128(%rbp)
	movq	40(%rdx), %rcx
	movq	%rcx, -48(%rbp)
	movq	32(%rdx), %rcx
	movq	%rcx, -56(%rbp)
	movq	24(%rdx), %rcx
	movq	%rcx, -64(%rbp)
	movq	16(%rdx), %rcx
	movq	%rcx, -72(%rbp)
	movq	(%rdx), %rcx
	movq	8(%rdx), %rdx
	movq	%rdx, -80(%rbp)
	movq	%rcx, -88(%rbp)
Ltmp140:
	leaq	l___unnamed_9(%rip), %rsi
	leaq	-136(%rbp), %rcx
	leaq	-88(%rbp), %rdx
	movq	%rdi, -144(%rbp)
	movq	%rcx, %rdi
	movq	%rax, -152(%rbp)
	callq	__ZN4core3fmt5write17h0f2c225c157771c1E
Ltmp141:
	movb	%al, -153(%rbp)
	jmp	LBB84_2
LBB84_1:
	movq	-16(%rbp), %rdi
	callq	__Unwind_Resume
	ud2
LBB84_2:
	movb	-153(%rbp), %al
	andb	$1, %al
	movb	%al, -89(%rbp)
	movzbl	-89(%rbp), %ecx
	movl	%ecx, %edx
	testb	$1, %dl
	je	LBB84_6
	jmp	LBB84_16
LBB84_16:
	jmp	LBB84_4
LBB84_3:
	movb	$0, -17(%rbp)
	leaq	-136(%rbp), %rdi
	callq	__ZN4core3ptr13drop_in_place17h72aaa8cf58e2f157E
	jmp	LBB84_1
LBB84_4:
	leaq	-128(%rbp), %rdi
Ltmp142:
	callq	__ZN4core6result19Result$LT$T$C$E$GT$6is_err17hfc51763207e9e95fE
Ltmp143:
	movb	%al, -154(%rbp)
	jmp	LBB84_7
	ud2
LBB84_6:
	movq	-144(%rbp), %rax
	movb	$3, (%rax)
	jmp	LBB84_14
LBB84_7:
	movb	-154(%rbp), %al
	testb	$1, %al
	jne	LBB84_9
	jmp	LBB84_8
LBB84_8:
Ltmp144:
	leaq	l___unnamed_10(%rip), %rdx
	leaq	-40(%rbp), %rdi
	movl	$16, %esi
	movl	$15, %ecx
	callq	__ZN3std2io5error5Error3new17hf3bc561e1e35a568E
Ltmp145:
	jmp	LBB84_10
LBB84_9:
	movb	$0, -17(%rbp)
	movq	-128(%rbp), %rax
	movq	-144(%rbp), %rcx
	movq	%rax, (%rcx)
	movq	-120(%rbp), %rax
	movq	%rax, 8(%rcx)
	jmp	LBB84_11
LBB84_10:
	movq	-40(%rbp), %rax
	movq	-144(%rbp), %rcx
	movq	%rax, (%rcx)
	movq	-32(%rbp), %rax
	movq	%rax, 8(%rcx)
LBB84_11:
	jmp	LBB84_14
LBB84_12:
	movb	$0, -17(%rbp)
	movq	-152(%rbp), %rax
	addq	$160, %rsp
	popq	%rbp
	retq
LBB84_13:
	movb	$0, -17(%rbp)
	leaq	-136(%rbp), %rax
	addq	$8, %rax
	movq	%rax, %rdi
	callq	__ZN4core3ptr13drop_in_place17h2e9171c5ed3109c4E
	jmp	LBB84_12
LBB84_14:
	testb	$1, -17(%rbp)
	jne	LBB84_13
	jmp	LBB84_12
LBB84_15:
Ltmp146:
	movq	%rax, -16(%rbp)
	movl	%edx, -8(%rbp)
	jmp	LBB84_3
Lfunc_end16:
	.cfi_endproc
	.section	__TEXT,__gcc_except_tab
	.p2align	2
GCC_except_table84:
Lexception16:
	.byte	255
	.byte	255
	.byte	1
	.uleb128 Lcst_end16-Lcst_begin16
Lcst_begin16:
	.uleb128 Ltmp140-Lfunc_begin16
	.uleb128 Ltmp141-Ltmp140
	.uleb128 Ltmp146-Lfunc_begin16
	.byte	0
	.uleb128 Ltmp141-Lfunc_begin16
	.uleb128 Ltmp142-Ltmp141
	.byte	0
	.byte	0
	.uleb128 Ltmp142-Lfunc_begin16
	.uleb128 Ltmp145-Ltmp142
	.uleb128 Ltmp146-Lfunc_begin16
	.byte	0
	.uleb128 Ltmp145-Lfunc_begin16
	.uleb128 Lfunc_end16-Ltmp145
	.byte	0
	.byte	0
Lcst_end16:
	.p2align	2

	.section	__TEXT,__text,regular,pure_instructions
	.globl	__ZN3std2io5error5Error3new17hf3bc561e1e35a568E
	.p2align	4, 0x90
__ZN3std2io5error5Error3new17hf3bc561e1e35a568E:
	.cfi_startproc
	pushq	%rbp
	.cfi_def_cfa_offset 16
	.cfi_offset %rbp, -16
	movq	%rsp, %rbp
	.cfi_def_cfa_register %rbp
	subq	$48, %rsp
	movq	%rdi, %rax
	movq	%rdi, -8(%rbp)
	movq	%rdx, %rdi
	movb	%sil, -9(%rbp)
	movq	%rcx, %rsi
	movq	%rax, -24(%rbp)
	callq	__ZN50_$LT$T$u20$as$u20$core..convert..Into$LT$U$GT$$GT$4into17he6e6cd8f00e4baffE
	movq	%rax, -32(%rbp)
	movq	%rdx, -40(%rbp)
	movq	-8(%rbp), %rdi
	movb	-9(%rbp), %al
	movzbl	%al, %esi
	movq	-32(%rbp), %rdx
	movq	-40(%rbp), %rcx
	callq	__ZN3std2io5error5Error4_new17hb256250a216f5df7E
	movq	-24(%rbp), %rax
	addq	$48, %rsp
	popq	%rbp
	retq
	.cfi_endproc

	.globl	__ZN3std2io5impls57_$LT$impl$u20$std..io..Read$u20$for$u20$$RF$mut$u20$R$GT$11initializer17h3c8d527f1af0da04E
	.p2align	4, 0x90
__ZN3std2io5impls57_$LT$impl$u20$std..io..Read$u20$for$u20$$RF$mut$u20$R$GT$11initializer17h3c8d527f1af0da04E:
	.cfi_startproc
	pushq	%rbp
	.cfi_def_cfa_offset 16
	.cfi_offset %rbp, -16
	movq	%rsp, %rbp
	.cfi_def_cfa_register %rbp
	subq	$16, %rsp
	movq	(%rdi), %rdi
	callq	__ZN59_$LT$std..process..ChildStdout$u20$as$u20$std..io..Read$GT$11initializer17hcf5fa0061253c15aE
	movb	%al, -1(%rbp)
	movb	-1(%rbp), %al
	andb	$1, %al
	movzbl	%al, %eax
	addq	$16, %rsp
	popq	%rbp
	retq
	.cfi_endproc

	.globl	__ZN3std2io5stdio12handle_ebadf17hb8feccf544705006E
	.p2align	4, 0x90
__ZN3std2io5stdio12handle_ebadf17hb8feccf544705006E:
Lfunc_begin17:
	.cfi_startproc
	.cfi_personality 155, _rust_eh_personality
	.cfi_lsda 16, Lexception17
	pushq	%rbp
	.cfi_def_cfa_offset 16
	.cfi_offset %rbp, -16
	movq	%rsp, %rbp
	.cfi_def_cfa_register %rbp
	subq	$96, %rsp
	movq	%rdi, %rax
	movb	$0, -18(%rbp)
	movb	$0, -17(%rbp)
	movb	$1, -18(%rbp)
	movb	$1, -17(%rbp)
	cmpq	$1, (%rsi)
	movq	%rdx, -64(%rbp)
	movq	%rsi, -72(%rbp)
	movq	%rdi, -80(%rbp)
	movq	%rax, -88(%rbp)
	je	LBB87_3
	jmp	LBB87_2
LBB87_1:
	movq	-16(%rbp), %rdi
	callq	__Unwind_Resume
	ud2
LBB87_2:
	movb	$0, -18(%rbp)
	movq	-72(%rbp), %rax
	movq	(%rax), %rcx
	movq	%rcx, -48(%rbp)
	movq	8(%rax), %rcx
	movq	%rcx, -40(%rbp)
	movq	16(%rax), %rcx
	movq	%rcx, -32(%rbp)
	movq	-48(%rbp), %rcx
	movq	-80(%rbp), %rdx
	movq	%rcx, (%rdx)
	movq	-40(%rbp), %rcx
	movq	%rcx, 8(%rdx)
	movq	-32(%rbp), %rcx
	movq	%rcx, 16(%rdx)
	jmp	LBB87_9
LBB87_3:
	movq	-72(%rbp), %rax
	addq	$8, %rax
	movq	%rax, -56(%rbp)
	movq	-56(%rbp), %rdi
Ltmp147:
	callq	__ZN3std3sys4unix5stdio8is_ebadf17hb6abd8a4a8b10ee5E
Ltmp148:
	movb	%al, -89(%rbp)
	jmp	LBB87_4
LBB87_4:
	movb	-89(%rbp), %al
	testb	$1, %al
	jne	LBB87_7
	jmp	LBB87_8
LBB87_5:
	testb	$1, -18(%rbp)
	jne	LBB87_12
	jmp	LBB87_1
LBB87_6:
	movb	$0, -17(%rbp)
	jmp	LBB87_5
LBB87_7:
	movb	$0, -17(%rbp)
	movq	-80(%rbp), %rax
	movq	-64(%rbp), %rcx
	movq	%rcx, 8(%rax)
	movq	$0, (%rax)
	jmp	LBB87_9
LBB87_8:
	jmp	LBB87_2
LBB87_9:
	testb	$1, -17(%rbp)
	jne	LBB87_13
LBB87_10:
	testb	$1, -18(%rbp)
	jne	LBB87_14
LBB87_11:
	movq	-88(%rbp), %rax
	addq	$96, %rsp
	popq	%rbp
	retq
LBB87_12:
	movb	$0, -18(%rbp)
	movq	-72(%rbp), %rdi
	callq	__ZN4core3ptr13drop_in_place17hd06d265a88dcad9aE
	jmp	LBB87_1
LBB87_13:
	movb	$0, -17(%rbp)
	jmp	LBB87_10
LBB87_14:
	movb	$0, -18(%rbp)
	movq	-72(%rbp), %rdi
	callq	__ZN4core3ptr13drop_in_place17hd06d265a88dcad9aE
	jmp	LBB87_11
LBB87_15:
Ltmp149:
	movq	%rax, -16(%rbp)
	movl	%edx, -8(%rbp)
	jmp	LBB87_6
Lfunc_end17:
	.cfi_endproc
	.section	__TEXT,__gcc_except_tab
	.p2align	2
GCC_except_table87:
Lexception17:
	.byte	255
	.byte	255
	.byte	1
	.uleb128 Lcst_end17-Lcst_begin17
Lcst_begin17:
	.uleb128 Lfunc_begin17-Lfunc_begin17
	.uleb128 Ltmp147-Lfunc_begin17
	.byte	0
	.byte	0
	.uleb128 Ltmp147-Lfunc_begin17
	.uleb128 Ltmp148-Ltmp147
	.uleb128 Ltmp149-Lfunc_begin17
	.byte	0
	.uleb128 Ltmp148-Lfunc_begin17
	.uleb128 Lfunc_end17-Ltmp148
	.byte	0
	.byte	0
Lcst_end17:
	.p2align	2

	.section	__TEXT,__text,regular,pure_instructions
	.globl	__ZN3std2io7BufRead10read_until17h565259145db6a82eE
	.p2align	4, 0x90
__ZN3std2io7BufRead10read_until17h565259145db6a82eE:
	.cfi_startproc
	pushq	%rbp
	.cfi_def_cfa_offset 16
	.cfi_offset %rbp, -16
	movq	%rsp, %rbp
	.cfi_def_cfa_register %rbp
	subq	$16, %rsp
	movq	%rdi, %rax
	movzbl	%dl, %edx
	movq	%rax, -8(%rbp)
	callq	__ZN3std2io10read_until17h72de73e7be6b71bcE
	movq	-8(%rbp), %rax
	addq	$16, %rsp
	popq	%rbp
	retq
	.cfi_endproc

	.globl	__ZN3std2io7BufRead5split17h8ee5662a6eef7c38E
	.p2align	4, 0x90
__ZN3std2io7BufRead5split17h8ee5662a6eef7c38E:
	.cfi_startproc
	pushq	%rbp
	.cfi_def_cfa_offset 16
	.cfi_offset %rbp, -16
	movq	%rsp, %rbp
	.cfi_def_cfa_register %rbp
	subq	$80, %rsp
	movq	%rdi, %rax
	leaq	-40(%rbp), %rcx
	movq	%rcx, %r8
	movq	%rdi, -48(%rbp)
	movq	%r8, %rdi
	movl	$40, %r8d
	movb	%dl, -49(%rbp)
	movq	%r8, %rdx
	movq	%rax, -64(%rbp)
	movq	%rcx, -72(%rbp)
	movq	%r8, -80(%rbp)
	callq	_memcpy
	movq	-48(%rbp), %rax
	movq	-72(%rbp), %rcx
	movq	%rax, %rdi
	movq	%rcx, %rsi
	movq	-80(%rbp), %rdx
	callq	_memcpy
	movq	-48(%rbp), %rax
	movb	-49(%rbp), %r9b
	movb	%r9b, 40(%rax)
	movq	-64(%rbp), %rax
	addq	$80, %rsp
	popq	%rbp
	retq
	.cfi_endproc

	.globl	__ZN3std2io8buffered18BufReader$LT$R$GT$13with_capacity17h2220a081e2369b58E
	.p2align	4, 0x90
__ZN3std2io8buffered18BufReader$LT$R$GT$13with_capacity17h2220a081e2369b58E:
Lfunc_begin18:
	.cfi_startproc
	.cfi_personality 155, _rust_eh_personality
	.cfi_lsda 16, Lexception18
	pushq	%rbp
	.cfi_def_cfa_offset 16
	.cfi_offset %rbp, -16
	movq	%rsp, %rbp
	.cfi_def_cfa_register %rbp
	subq	$160, %rsp
	movq	%rdi, %rax
	movl	%edx, -84(%rbp)
	movb	$0, -18(%rbp)
	movb	$0, -17(%rbp)
	movb	$1, -18(%rbp)
Ltmp150:
	leaq	-80(%rbp), %rcx
	movq	%rdi, -96(%rbp)
	movq	%rcx, %rdi
	movq	%rsi, -104(%rbp)
	movq	%rax, -112(%rbp)
	callq	__ZN5alloc3vec12Vec$LT$T$GT$13with_capacity17hc89ea74c47bf9d40E
Ltmp151:
	jmp	LBB90_2
LBB90_1:
	movq	-16(%rbp), %rdi
	callq	__Unwind_Resume
	ud2
LBB90_2:
	movb	$1, -17(%rbp)
Ltmp153:
	leaq	-80(%rbp), %rdi
	movq	-104(%rbp), %rsi
	callq	__ZN5alloc3vec12Vec$LT$T$GT$7set_len17h8c5ddc4b256185dcE
Ltmp154:
	jmp	LBB90_3
LBB90_3:
Ltmp155:
	leaq	-84(%rbp), %rdi
	callq	__ZN59_$LT$std..process..ChildStderr$u20$as$u20$std..io..Read$GT$11initializer17hc37493b761c7e1d5E
Ltmp156:
	movb	%al, -113(%rbp)
	jmp	LBB90_4
LBB90_4:
	movb	-113(%rbp), %al
	andb	$1, %al
	movb	%al, -53(%rbp)
Ltmp157:
	leaq	-80(%rbp), %rdi
	callq	__ZN71_$LT$alloc..vec..Vec$LT$T$GT$$u20$as$u20$core..ops..deref..DerefMut$GT$9deref_mut17h13da543c8cf6ee73E
Ltmp158:
	movq	%rdx, -128(%rbp)
	movq	%rax, -136(%rbp)
	jmp	LBB90_5
LBB90_5:
Ltmp159:
	leaq	-53(%rbp), %rdi
	movq	-136(%rbp), %rsi
	movq	-128(%rbp), %rdx
	callq	__ZN3std2io11Initializer10initialize17hc6eedaded0361ac6E
Ltmp160:
	jmp	LBB90_6
LBB90_6:
	movb	$0, -18(%rbp)
	movl	-84(%rbp), %eax
	movl	%eax, -52(%rbp)
	movb	$0, -17(%rbp)
	movq	-64(%rbp), %rcx
	movq	%rcx, -32(%rbp)
	movq	-80(%rbp), %rcx
	movq	-72(%rbp), %rdx
	movq	%rdx, -40(%rbp)
	movq	%rcx, -48(%rbp)
Ltmp162:
	leaq	-48(%rbp), %rdi
	callq	__ZN5alloc3vec12Vec$LT$T$GT$16into_boxed_slice17h811cb63092b52771E
Ltmp163:
	movq	%rdx, -144(%rbp)
	movq	%rax, -152(%rbp)
	jmp	LBB90_7
LBB90_7:
	movl	-52(%rbp), %eax
	movq	-96(%rbp), %rcx
	movl	%eax, 32(%rcx)
	movq	-152(%rbp), %rdx
	movq	%rdx, (%rcx)
	movq	-144(%rbp), %rdx
	movq	%rdx, 8(%rcx)
	movq	$0, 16(%rcx)
	movq	$0, 24(%rcx)
	movb	$0, -17(%rbp)
	movq	-112(%rbp), %rax
	addq	$160, %rsp
	popq	%rbp
	retq
LBB90_8:
	leaq	-52(%rbp), %rdi
	callq	__ZN4core3ptr13drop_in_place17h685f233b3f4bcff6E
	jmp	LBB90_12
LBB90_9:
	movb	$0, -18(%rbp)
	leaq	-84(%rbp), %rdi
	callq	__ZN4core3ptr13drop_in_place17h685f233b3f4bcff6E
	jmp	LBB90_1
LBB90_10:
	testb	$1, -18(%rbp)
	jne	LBB90_9
	jmp	LBB90_1
LBB90_11:
	movb	$0, -17(%rbp)
	leaq	-80(%rbp), %rdi
	callq	__ZN4core3ptr13drop_in_place17h6f8bea6146932822E
	jmp	LBB90_10
LBB90_12:
	testb	$1, -17(%rbp)
	jne	LBB90_11
	jmp	LBB90_10
LBB90_13:
Ltmp152:
	movq	%rax, -16(%rbp)
	movl	%edx, -8(%rbp)
	jmp	LBB90_10
LBB90_14:
Ltmp161:
	movq	%rax, -16(%rbp)
	movl	%edx, -8(%rbp)
	jmp	LBB90_12
LBB90_15:
Ltmp164:
	movq	%rax, -16(%rbp)
	movl	%edx, -8(%rbp)
	jmp	LBB90_8
Lfunc_end18:
	.cfi_endproc
	.section	__TEXT,__gcc_except_tab
	.p2align	2
GCC_except_table90:
Lexception18:
	.byte	255
	.byte	255
	.byte	1
	.uleb128 Lcst_end18-Lcst_begin18
Lcst_begin18:
	.uleb128 Ltmp150-Lfunc_begin18
	.uleb128 Ltmp151-Ltmp150
	.uleb128 Ltmp152-Lfunc_begin18
	.byte	0
	.uleb128 Ltmp151-Lfunc_begin18
	.uleb128 Ltmp153-Ltmp151
	.byte	0
	.byte	0
	.uleb128 Ltmp153-Lfunc_begin18
	.uleb128 Ltmp160-Ltmp153
	.uleb128 Ltmp161-Lfunc_begin18
	.byte	0
	.uleb128 Ltmp162-Lfunc_begin18
	.uleb128 Ltmp163-Ltmp162
	.uleb128 Ltmp164-Lfunc_begin18
	.byte	0
	.uleb128 Ltmp163-Lfunc_begin18
	.uleb128 Lfunc_end18-Ltmp163
	.byte	0
	.byte	0
Lcst_end18:
	.p2align	2

	.section	__TEXT,__text,regular,pure_instructions
	.globl	__ZN3std2io8buffered18BufReader$LT$R$GT$3new17haa24c181b788647bE
	.p2align	4, 0x90
__ZN3std2io8buffered18BufReader$LT$R$GT$3new17haa24c181b788647bE:
	.cfi_startproc
	pushq	%rbp
	.cfi_def_cfa_offset 16
	.cfi_offset %rbp, -16
	movq	%rsp, %rbp
	.cfi_def_cfa_register %rbp
	subq	$16, %rsp
	movq	%rdi, %rax
	movl	$8192, %ecx
	movl	%esi, -4(%rbp)
	movq	%rcx, %rsi
	movl	-4(%rbp), %edx
	movq	%rax, -16(%rbp)
	callq	__ZN3std2io8buffered18BufReader$LT$R$GT$13with_capacity17h2220a081e2369b58E
	movq	-16(%rbp), %rax
	addq	$16, %rsp
	popq	%rbp
	retq
	.cfi_endproc

	.globl	__ZN3std2io8buffered18BufWriter$LT$W$GT$9flush_buf17h30c3e22f95ccc329E
	.p2align	4, 0x90
__ZN3std2io8buffered18BufWriter$LT$W$GT$9flush_buf17h30c3e22f95ccc329E:
Lfunc_begin19:
	.cfi_startproc
	.cfi_personality 155, _rust_eh_personality
	.cfi_lsda 16, Lexception19
	pushq	%rbp
	.cfi_def_cfa_offset 16
	.cfi_offset %rbp, -16
	movq	%rsp, %rbp
	.cfi_def_cfa_register %rbp
	subq	$288, %rsp
	movq	%rdi, %rax
	movb	$0, -17(%rbp)
	movq	$0, -208(%rbp)
	movq	%rsi, %rcx
	movq	%rdi, -216(%rbp)
	movq	%rcx, %rdi
	movq	%rsi, -224(%rbp)
	movq	%rax, -232(%rbp)
	callq	__ZN5alloc3vec12Vec$LT$T$GT$3len17h6917bd9ced0df80aE
	movq	%rax, -240(%rbp)
	jmp	LBB92_2
LBB92_1:
	movq	-16(%rbp), %rdi
	callq	__Unwind_Resume
	ud2
LBB92_2:
	movq	-216(%rbp), %rax
	movb	$3, (%rax)
LBB92_3:
	movq	-240(%rbp), %rax
	cmpq	%rax, -208(%rbp)
	jb	LBB92_6
	jmp	LBB92_5
LBB92_4:
	movq	-216(%rbp), %rdi
	callq	__ZN4core3ptr13drop_in_place17h2e9171c5ed3109c4E
	jmp	LBB92_1
LBB92_5:
	jmp	LBB92_16
LBB92_6:
	movq	-224(%rbp), %rax
	movb	$1, 25(%rax)
	addq	$24, %rax
Ltmp165:
	movq	%rax, %rdi
	callq	__ZN4core6option15Option$LT$T$GT$6as_mut17hc4191303b173cc9cE
Ltmp166:
	movq	%rax, -248(%rbp)
	jmp	LBB92_7
LBB92_7:
Ltmp167:
	leaq	l___unnamed_11(%rip), %rsi
	movq	-248(%rbp), %rdi
	callq	__ZN4core6option15Option$LT$T$GT$6unwrap17h9ec4ee0f1c8aa75aE
Ltmp168:
	movq	%rax, -256(%rbp)
	jmp	LBB92_8
LBB92_8:
	movq	-208(%rbp), %rax
	movq	%rax, -176(%rbp)
	movq	-176(%rbp), %rsi
Ltmp169:
	leaq	l___unnamed_12(%rip), %rdx
	movq	-224(%rbp), %rdi
	callq	__ZN77_$LT$alloc..vec..Vec$LT$T$GT$$u20$as$u20$core..ops..index..Index$LT$I$GT$$GT$5index17h8fda5eea99c0f0cfE
Ltmp170:
	movq	%rdx, -264(%rbp)
	movq	%rax, -272(%rbp)
	jmp	LBB92_9
LBB92_9:
Ltmp171:
	leaq	-200(%rbp), %rdi
	movq	-256(%rbp), %rsi
	movq	-272(%rbp), %rdx
	movq	-264(%rbp), %rcx
	callq	__ZN65_$LT$std..io..stdio..Maybe$LT$W$GT$$u20$as$u20$std..io..Write$GT$5write17he888dbbb5919c47dE
Ltmp172:
	jmp	LBB92_10
LBB92_10:
	movb	$1, -17(%rbp)
	movq	-224(%rbp), %rax
	movb	$0, 25(%rax)
	movq	-200(%rbp), %rcx
	testq	%rcx, %rcx
	je	LBB92_11
	jmp	LBB92_43
LBB92_43:
	jmp	LBB92_18
LBB92_11:
	cmpq	$0, -192(%rbp)
	je	LBB92_13
	jmp	LBB92_17
	ud2
LBB92_13:
Ltmp182:
	leaq	l___unnamed_13(%rip), %rdx
	leaq	-152(%rbp), %rdi
	movl	$14, %esi
	movl	$33, %ecx
	callq	__ZN3std2io5error5Error3new17hf3bc561e1e35a568E
Ltmp183:
	jmp	LBB92_14
LBB92_14:
	movq	-152(%rbp), %rax
	movq	-144(%rbp), %rcx
	movq	%rcx, -160(%rbp)
	movq	%rax, -168(%rbp)
Ltmp185:
	movq	-216(%rbp), %rdi
	callq	__ZN4core3ptr13drop_in_place17h2e9171c5ed3109c4E
Ltmp186:
	jmp	LBB92_32
LBB92_15:
	movb	$0, -17(%rbp)
LBB92_16:
	cmpq	$0, -208(%rbp)
	ja	LBB92_24
	jmp	LBB92_23
LBB92_17:
	movq	-192(%rbp), %rax
	addq	-208(%rbp), %rax
	movq	%rax, -208(%rbp)
	jmp	LBB92_38
LBB92_18:
	leaq	-192(%rbp), %rax
	movq	%rax, -136(%rbp)
	movq	-136(%rbp), %rdi
Ltmp173:
	callq	__ZN3std2io5error5Error4kind17hd9a6c08a173f0df0E
Ltmp174:
	movb	%al, -273(%rbp)
	jmp	LBB92_19
LBB92_19:
	movb	-273(%rbp), %al
	movb	%al, -121(%rbp)
	movq	l___unnamed_3(%rip), %rsi
Ltmp175:
	leaq	-121(%rbp), %rdi
	callq	__ZN66_$LT$std..io..error..ErrorKind$u20$as$u20$core..cmp..PartialEq$GT$2eq17hfa7f316b6eff0b1eE
Ltmp176:
	movb	%al, -274(%rbp)
	jmp	LBB92_20
LBB92_20:
	movb	-274(%rbp), %al
	testb	$1, %al
	jne	LBB92_21
	jmp	LBB92_22
LBB92_21:
	jmp	LBB92_38
LBB92_22:
	movb	$0, -17(%rbp)
	movq	-192(%rbp), %rax
	movq	-184(%rbp), %rcx
	movq	%rcx, -112(%rbp)
	movq	%rax, -120(%rbp)
	movq	-120(%rbp), %rax
	movq	-112(%rbp), %rcx
	movq	%rcx, -80(%rbp)
	movq	%rax, -88(%rbp)
	movq	-88(%rbp), %rax
	movq	-80(%rbp), %rcx
	movq	%rcx, -96(%rbp)
	movq	%rax, -104(%rbp)
Ltmp177:
	movq	-216(%rbp), %rdi
	callq	__ZN4core3ptr13drop_in_place17h2e9171c5ed3109c4E
Ltmp178:
	jmp	LBB92_34
LBB92_23:
	jmp	LBB92_27
LBB92_24:
	movq	-208(%rbp), %rax
	movq	%rax, -32(%rbp)
	movq	-32(%rbp), %rdx
Ltmp188:
	leaq	-72(%rbp), %rdi
	movq	-224(%rbp), %rsi
	callq	__ZN5alloc3vec12Vec$LT$T$GT$5drain17h47b4939fea3d387aE
Ltmp189:
	jmp	LBB92_25
LBB92_25:
Ltmp190:
	leaq	-72(%rbp), %rdi
	callq	__ZN4core3ptr13drop_in_place17h3f9d9c57ab961134E
Ltmp191:
	jmp	LBB92_26
LBB92_26:
	jmp	LBB92_27
LBB92_27:
	movq	-232(%rbp), %rax
	addq	$288, %rsp
	popq	%rbp
	retq
LBB92_28:
	testb	$1, -17(%rbp)
	je	LBB92_4
	movb	$0, -17(%rbp)
	leaq	-200(%rbp), %rax
	addq	$8, %rax
	movq	%rax, %rdi
	callq	__ZN4core3ptr13drop_in_place17hc9e12061a30847ccE
	jmp	LBB92_4
LBB92_30:
	cmpq	$1, -200(%rbp)
	je	LBB92_28
	jmp	LBB92_4
LBB92_31:
	movq	-168(%rbp), %rax
	movq	-216(%rbp), %rcx
	movq	%rax, (%rcx)
	movq	-160(%rbp), %rax
	movq	%rax, 8(%rcx)
	jmp	LBB92_30
LBB92_32:
	movq	-168(%rbp), %rax
	movq	-216(%rbp), %rcx
	movq	%rax, (%rcx)
	movq	-160(%rbp), %rax
	movq	%rax, 8(%rcx)
	jmp	LBB92_15
LBB92_33:
	movq	-104(%rbp), %rax
	movq	-216(%rbp), %rcx
	movq	%rax, (%rcx)
	movq	-96(%rbp), %rax
	movq	%rax, 8(%rcx)
	jmp	LBB92_30
LBB92_34:
	movq	-104(%rbp), %rax
	movq	-216(%rbp), %rcx
	movq	%rax, (%rcx)
	movq	-96(%rbp), %rax
	movq	%rax, 8(%rcx)
	jmp	LBB92_15
LBB92_35:
	movb	$0, -17(%rbp)
	jmp	LBB92_3
LBB92_36:
	testb	$1, -17(%rbp)
	je	LBB92_35
	movb	$0, -17(%rbp)
	leaq	-192(%rbp), %rdi
Ltmp180:
	callq	__ZN4core3ptr13drop_in_place17hc9e12061a30847ccE
Ltmp181:
	jmp	LBB92_35
LBB92_38:
	cmpq	$1, -200(%rbp)
	je	LBB92_36
	jmp	LBB92_35
LBB92_39:
Ltmp192:
	movq	%rax, -16(%rbp)
	movl	%edx, -8(%rbp)
	jmp	LBB92_4
LBB92_40:
Ltmp184:
	movq	%rax, -16(%rbp)
	movl	%edx, -8(%rbp)
	jmp	LBB92_30
LBB92_41:
Ltmp179:
	movq	%rax, -16(%rbp)
	movl	%edx, -8(%rbp)
	jmp	LBB92_33
LBB92_42:
Ltmp187:
	movq	%rax, -16(%rbp)
	movl	%edx, -8(%rbp)
	jmp	LBB92_31
Lfunc_end19:
	.cfi_endproc
	.section	__TEXT,__gcc_except_tab
	.p2align	2
GCC_except_table92:
Lexception19:
	.byte	255
	.byte	255
	.byte	1
	.uleb128 Lcst_end19-Lcst_begin19
Lcst_begin19:
	.uleb128 Lfunc_begin19-Lfunc_begin19
	.uleb128 Ltmp165-Lfunc_begin19
	.byte	0
	.byte	0
	.uleb128 Ltmp165-Lfunc_begin19
	.uleb128 Ltmp172-Ltmp165
	.uleb128 Ltmp192-Lfunc_begin19
	.byte	0
	.uleb128 Ltmp182-Lfunc_begin19
	.uleb128 Ltmp183-Ltmp182
	.uleb128 Ltmp184-Lfunc_begin19
	.byte	0
	.uleb128 Ltmp185-Lfunc_begin19
	.uleb128 Ltmp186-Ltmp185
	.uleb128 Ltmp187-Lfunc_begin19
	.byte	0
	.uleb128 Ltmp173-Lfunc_begin19
	.uleb128 Ltmp176-Ltmp173
	.uleb128 Ltmp184-Lfunc_begin19
	.byte	0
	.uleb128 Ltmp177-Lfunc_begin19
	.uleb128 Ltmp178-Ltmp177
	.uleb128 Ltmp179-Lfunc_begin19
	.byte	0
	.uleb128 Ltmp188-Lfunc_begin19
	.uleb128 Ltmp191-Ltmp188
	.uleb128 Ltmp192-Lfunc_begin19
	.byte	0
	.uleb128 Ltmp191-Lfunc_begin19
	.uleb128 Ltmp180-Ltmp191
	.byte	0
	.byte	0
	.uleb128 Ltmp180-Lfunc_begin19
	.uleb128 Ltmp181-Ltmp180
	.uleb128 Ltmp192-Lfunc_begin19
	.byte	0
Lcst_end19:
	.p2align	2

	.section	__TEXT,__text,regular,pure_instructions
	.globl	__ZN3std3env11split_paths17hf8bfd73d3da7e7cbE
	.p2align	4, 0x90
__ZN3std3env11split_paths17hf8bfd73d3da7e7cbE:
	.cfi_startproc
	pushq	%rbp
	.cfi_def_cfa_offset 16
	.cfi_offset %rbp, -16
	movq	%rsp, %rbp
	.cfi_def_cfa_register %rbp
	subq	$80, %rsp
	movq	%rdi, %rax
	movq	%rdi, -48(%rbp)
	movq	%rsi, %rdi
	movq	%rax, -56(%rbp)
	callq	__ZN98_$LT$std..ffi..os_str..OsString$u20$as$u20$core..convert..AsRef$LT$std..ffi..os_str..OsStr$GT$$GT$6as_ref17h505200d7b5f0d498E
	movq	%rax, -64(%rbp)
	movq	%rdx, -72(%rbp)
	leaq	-40(%rbp), %rdi
	movq	-64(%rbp), %rsi
	movq	-72(%rbp), %rdx
	callq	__ZN3std3sys4unix2os11split_paths17h4e0c2d94748e818bE
	movq	-48(%rbp), %rax
	leaq	-40(%rbp), %rcx
	movq	%rax, %rdi
	movq	%rcx, %rsi
	movl	$40, %edx
	callq	_memcpy
	movq	-56(%rbp), %rax
	addq	$80, %rsp
	popq	%rbp
	retq
	.cfi_endproc

	.globl	__ZN3std3env3var17hd046ae6120d65955E
	.p2align	4, 0x90
__ZN3std3env3var17hd046ae6120d65955E:
Lfunc_begin20:
	.cfi_startproc
	.cfi_personality 155, _rust_eh_personality
	.cfi_lsda 16, Lexception20
	pushq	%rbp
	.cfi_def_cfa_offset 16
	.cfi_offset %rbp, -16
	movq	%rsp, %rbp
	.cfi_def_cfa_register %rbp
	subq	$64, %rsp
	movq	%rdi, %rax
	movq	%rsi, -32(%rbp)
	movq	%rdx, -24(%rbp)
Ltmp193:
	leaq	-32(%rbp), %rcx
	movq	%rdi, -40(%rbp)
	movq	%rcx, %rdi
	movq	%rax, -48(%rbp)
	callq	__ZN55_$LT$$RF$T$u20$as$u20$core..convert..AsRef$LT$U$GT$$GT$6as_ref17hcbcdc4af8bec2730E
Ltmp194:
	movq	%rdx, -56(%rbp)
	movq	%rax, -64(%rbp)
	jmp	LBB94_2
LBB94_1:
	movq	-16(%rbp), %rdi
	callq	__Unwind_Resume
	ud2
LBB94_2:
Ltmp195:
	movq	-40(%rbp), %rdi
	movq	-64(%rbp), %rsi
	movq	-56(%rbp), %rdx
	callq	__ZN3std3env4_var17h5f49b4c5e0582abcE
Ltmp196:
	jmp	LBB94_4
LBB94_3:
	jmp	LBB94_1
LBB94_4:
	jmp	LBB94_5
LBB94_5:
	movq	-48(%rbp), %rax
	addq	$64, %rsp
	popq	%rbp
	retq
LBB94_6:
Ltmp197:
	movq	%rax, -16(%rbp)
	movl	%edx, -8(%rbp)
	jmp	LBB94_3
Lfunc_end20:
	.cfi_endproc
	.section	__TEXT,__gcc_except_tab
	.p2align	2
GCC_except_table94:
Lexception20:
	.byte	255
	.byte	255
	.byte	1
	.uleb128 Lcst_end20-Lcst_begin20
Lcst_begin20:
	.uleb128 Ltmp193-Lfunc_begin20
	.uleb128 Ltmp194-Ltmp193
	.uleb128 Ltmp197-Lfunc_begin20
	.byte	0
	.uleb128 Ltmp194-Lfunc_begin20
	.uleb128 Ltmp195-Ltmp194
	.byte	0
	.byte	0
	.uleb128 Ltmp195-Lfunc_begin20
	.uleb128 Ltmp196-Ltmp195
	.uleb128 Ltmp197-Lfunc_begin20
	.byte	0
Lcst_end20:
	.p2align	2

	.section	__TEXT,__text,regular,pure_instructions
	.globl	__ZN3std3env6var_os17ha942e07912984355E
	.p2align	4, 0x90
__ZN3std3env6var_os17ha942e07912984355E:
Lfunc_begin21:
	.cfi_startproc
	.cfi_personality 155, _rust_eh_personality
	.cfi_lsda 16, Lexception21
	pushq	%rbp
	.cfi_def_cfa_offset 16
	.cfi_offset %rbp, -16
	movq	%rsp, %rbp
	.cfi_def_cfa_register %rbp
	subq	$64, %rsp
	movq	%rdi, %rax
	movq	%rsi, -32(%rbp)
	movq	%rdx, -24(%rbp)
Ltmp198:
	leaq	-32(%rbp), %rcx
	movq	%rdi, -40(%rbp)
	movq	%rcx, %rdi
	movq	%rax, -48(%rbp)
	callq	__ZN55_$LT$$RF$T$u20$as$u20$core..convert..AsRef$LT$U$GT$$GT$6as_ref17hcbcdc4af8bec2730E
Ltmp199:
	movq	%rdx, -56(%rbp)
	movq	%rax, -64(%rbp)
	jmp	LBB95_2
LBB95_1:
	movq	-16(%rbp), %rdi
	callq	__Unwind_Resume
	ud2
LBB95_2:
Ltmp200:
	movq	-40(%rbp), %rdi
	movq	-64(%rbp), %rsi
	movq	-56(%rbp), %rdx
	callq	__ZN3std3env7_var_os17hc628b18a701aa4a3E
Ltmp201:
	jmp	LBB95_4
LBB95_3:
	jmp	LBB95_1
LBB95_4:
	jmp	LBB95_5
LBB95_5:
	movq	-48(%rbp), %rax
	addq	$64, %rsp
	popq	%rbp
	retq
LBB95_6:
Ltmp202:
	movq	%rax, -16(%rbp)
	movl	%edx, -8(%rbp)
	jmp	LBB95_3
Lfunc_end21:
	.cfi_endproc
	.section	__TEXT,__gcc_except_tab
	.p2align	2
GCC_except_table95:
Lexception21:
	.byte	255
	.byte	255
	.byte	1
	.uleb128 Lcst_end21-Lcst_begin21
Lcst_begin21:
	.uleb128 Ltmp198-Lfunc_begin21
	.uleb128 Ltmp199-Ltmp198
	.uleb128 Ltmp202-Lfunc_begin21
	.byte	0
	.uleb128 Ltmp199-Lfunc_begin21
	.uleb128 Ltmp200-Ltmp199
	.byte	0
	.byte	0
	.uleb128 Ltmp200-Lfunc_begin21
	.uleb128 Ltmp201-Ltmp200
	.uleb128 Ltmp202-Lfunc_begin21
	.byte	0
Lcst_end21:
	.p2align	2

	.section	__TEXT,__text,regular,pure_instructions
	.p2align	4, 0x90
__ZN3std3ffi6os_str103_$LT$impl$u20$core..convert..AsRef$LT$std..ffi..os_str..OsStr$GT$$u20$for$u20$alloc..string..String$GT$6as_ref17h102b4379b57fa69aE:
	.cfi_startproc
	pushq	%rbp
	.cfi_def_cfa_offset 16
	.cfi_offset %rbp, -16
	movq	%rsp, %rbp
	.cfi_def_cfa_register %rbp
	subq	$32, %rsp
	callq	__ZN65_$LT$alloc..string..String$u20$as$u20$core..ops..deref..Deref$GT$5deref17hbd1b744bdfb2ebf6E
	movq	%rax, -8(%rbp)
	movq	%rdx, -16(%rbp)
	movq	-8(%rbp), %rdi
	movq	-16(%rbp), %rsi
	callq	__ZN3std3ffi6os_str85_$LT$impl$u20$core..convert..AsRef$LT$std..ffi..os_str..OsStr$GT$$u20$for$u20$str$GT$6as_ref17hcdeec844ab9162cbE
	movq	%rax, -24(%rbp)
	movq	%rdx, -32(%rbp)
	movq	-24(%rbp), %rax
	movq	-32(%rbp), %rdx
	addq	$32, %rsp
	popq	%rbp
	retq
	.cfi_endproc

	.p2align	4, 0x90
__ZN3std3ffi6os_str5OsStr10from_inner17ha80a537b49e0a1eaE:
	.cfi_startproc
	pushq	%rbp
	.cfi_def_cfa_offset 16
	.cfi_offset %rbp, -16
	movq	%rsp, %rbp
	.cfi_def_cfa_register %rbp
	movq	%rdi, %rax
	movq	%rsi, %rdx
	popq	%rbp
	retq
	.cfi_endproc

	.globl	__ZN3std3ffi6os_str5OsStr3new17hc8f4b3f66b707cdaE
	.p2align	4, 0x90
__ZN3std3ffi6os_str5OsStr3new17hc8f4b3f66b707cdaE:
	.cfi_startproc
	pushq	%rbp
	.cfi_def_cfa_offset 16
	.cfi_offset %rbp, -16
	movq	%rsp, %rbp
	.cfi_def_cfa_register %rbp
	subq	$16, %rsp
	callq	__ZN3std3ffi6os_str85_$LT$impl$u20$core..convert..AsRef$LT$std..ffi..os_str..OsStr$GT$$u20$for$u20$str$GT$6as_ref17hcdeec844ab9162cbE
	movq	%rax, -8(%rbp)
	movq	%rdx, -16(%rbp)
	movq	-8(%rbp), %rax
	movq	-16(%rbp), %rdx
	addq	$16, %rsp
	popq	%rbp
	retq
	.cfi_endproc

	.p2align	4, 0x90
__ZN3std3ffi6os_str5OsStr5bytes17hb6f8351c168a53dfE:
	.cfi_startproc
	pushq	%rbp
	.cfi_def_cfa_offset 16
	.cfi_offset %rbp, -16
	movq	%rsp, %rbp
	.cfi_def_cfa_register %rbp
	movq	%rdi, %rax
	movq	%rsi, %rdx
	popq	%rbp
	retq
	.cfi_endproc

	.p2align	4, 0x90
__ZN3std3ffi6os_str85_$LT$impl$u20$core..convert..AsRef$LT$std..ffi..os_str..OsStr$GT$$u20$for$u20$str$GT$6as_ref17hcdeec844ab9162cbE:
	.cfi_startproc
	pushq	%rbp
	.cfi_def_cfa_offset 16
	.cfi_offset %rbp, -16
	movq	%rsp, %rbp
	.cfi_def_cfa_register %rbp
	subq	$32, %rsp
	callq	__ZN3std10sys_common12os_str_bytes5Slice8from_str17h0c4251c00c6edf8eE
	movq	%rax, -8(%rbp)
	movq	%rdx, -16(%rbp)
	movq	-8(%rbp), %rdi
	movq	-16(%rbp), %rsi
	callq	__ZN3std3ffi6os_str5OsStr10from_inner17ha80a537b49e0a1eaE
	movq	%rax, -24(%rbp)
	movq	%rdx, -32(%rbp)
	movq	-24(%rbp), %rax
	movq	-32(%rbp), %rdx
	addq	$32, %rsp
	popq	%rbp
	retq
	.cfi_endproc

	.globl	__ZN3std3ffi6os_str8OsString4push17h10422f4bc9c98ffaE
	.p2align	4, 0x90
__ZN3std3ffi6os_str8OsString4push17h10422f4bc9c98ffaE:
Lfunc_begin22:
	.cfi_startproc
	.cfi_personality 155, _rust_eh_personality
	.cfi_lsda 16, Lexception22
	pushq	%rbp
	.cfi_def_cfa_offset 16
	.cfi_offset %rbp, -16
	movq	%rsp, %rbp
	.cfi_def_cfa_register %rbp
	subq	$64, %rsp
	movq	%rsi, -32(%rbp)
	movq	%rdx, -24(%rbp)
Ltmp203:
	leaq	-32(%rbp), %rax
	movq	%rdi, -40(%rbp)
	movq	%rax, %rdi
	callq	__ZN55_$LT$$RF$T$u20$as$u20$core..convert..AsRef$LT$U$GT$$GT$6as_ref17hcbcdc4af8bec2730E
Ltmp204:
	movq	%rdx, -48(%rbp)
	movq	%rax, -56(%rbp)
	jmp	LBB101_2
LBB101_1:
	movq	-16(%rbp), %rdi
	callq	__Unwind_Resume
	ud2
LBB101_2:
Ltmp205:
	movq	-40(%rbp), %rdi
	movq	-56(%rbp), %rsi
	movq	-48(%rbp), %rdx
	callq	__ZN3std10sys_common12os_str_bytes3Buf10push_slice17h31c87fd302fb94a8E
Ltmp206:
	jmp	LBB101_4
LBB101_3:
	jmp	LBB101_1
LBB101_4:
	jmp	LBB101_5
LBB101_5:
	addq	$64, %rsp
	popq	%rbp
	retq
LBB101_6:
Ltmp207:
	movq	%rax, -16(%rbp)
	movl	%edx, -8(%rbp)
	jmp	LBB101_3
Lfunc_end22:
	.cfi_endproc
	.section	__TEXT,__gcc_except_tab
	.p2align	2
GCC_except_table101:
Lexception22:
	.byte	255
	.byte	255
	.byte	1
	.uleb128 Lcst_end22-Lcst_begin22
Lcst_begin22:
	.uleb128 Ltmp203-Lfunc_begin22
	.uleb128 Ltmp204-Ltmp203
	.uleb128 Ltmp207-Lfunc_begin22
	.byte	0
	.uleb128 Ltmp204-Lfunc_begin22
	.uleb128 Ltmp205-Ltmp204
	.byte	0
	.byte	0
	.uleb128 Ltmp205-Lfunc_begin22
	.uleb128 Ltmp206-Ltmp205
	.uleb128 Ltmp207-Lfunc_begin22
	.byte	0
Lcst_end22:
	.p2align	2

	.section	__TEXT,__text,regular,pure_instructions
	.globl	__ZN3std3ffi6os_str8OsString4push17h46f739a1a898e014E
	.p2align	4, 0x90
__ZN3std3ffi6os_str8OsString4push17h46f739a1a898e014E:
Lfunc_begin23:
	.cfi_startproc
	.cfi_personality 155, _rust_eh_personality
	.cfi_lsda 16, Lexception23
	pushq	%rbp
	.cfi_def_cfa_offset 16
	.cfi_offset %rbp, -16
	movq	%rsp, %rbp
	.cfi_def_cfa_register %rbp
	subq	$48, %rsp
Ltmp208:
	movq	%rdi, -24(%rbp)
	movq	%rsi, %rdi
	movq	%rsi, -32(%rbp)
	callq	__ZN98_$LT$std..ffi..os_str..OsString$u20$as$u20$core..convert..AsRef$LT$std..ffi..os_str..OsStr$GT$$GT$6as_ref17h505200d7b5f0d498E
Ltmp209:
	movq	%rdx, -40(%rbp)
	movq	%rax, -48(%rbp)
	jmp	LBB102_2
LBB102_1:
	movq	-16(%rbp), %rdi
	callq	__Unwind_Resume
	ud2
LBB102_2:
Ltmp210:
	movq	-24(%rbp), %rdi
	movq	-48(%rbp), %rsi
	movq	-40(%rbp), %rdx
	callq	__ZN3std10sys_common12os_str_bytes3Buf10push_slice17h31c87fd302fb94a8E
Ltmp211:
	jmp	LBB102_4
LBB102_3:
	movq	-32(%rbp), %rdi
	callq	__ZN4core3ptr13drop_in_place17h778881173bf943c8E
	jmp	LBB102_1
LBB102_4:
	movq	-32(%rbp), %rdi
	callq	__ZN4core3ptr13drop_in_place17h778881173bf943c8E
	addq	$48, %rsp
	popq	%rbp
	retq
LBB102_6:
Ltmp212:
	movq	%rax, -16(%rbp)
	movl	%edx, -8(%rbp)
	jmp	LBB102_3
Lfunc_end23:
	.cfi_endproc
	.section	__TEXT,__gcc_except_tab
	.p2align	2
GCC_except_table102:
Lexception23:
	.byte	255
	.byte	255
	.byte	1
	.uleb128 Lcst_end23-Lcst_begin23
Lcst_begin23:
	.uleb128 Ltmp208-Lfunc_begin23
	.uleb128 Ltmp209-Ltmp208
	.uleb128 Ltmp212-Lfunc_begin23
	.byte	0
	.uleb128 Ltmp209-Lfunc_begin23
	.uleb128 Ltmp210-Ltmp209
	.byte	0
	.byte	0
	.uleb128 Ltmp210-Lfunc_begin23
	.uleb128 Ltmp211-Ltmp210
	.uleb128 Ltmp212-Lfunc_begin23
	.byte	0
	.uleb128 Ltmp211-Lfunc_begin23
	.uleb128 Lfunc_end23-Ltmp211
	.byte	0
	.byte	0
Lcst_end23:
	.p2align	2

	.section	__TEXT,__text,regular,pure_instructions
	.globl	__ZN3std3ffi6os_str8OsString4push17h593e4e29cbc67266E
	.p2align	4, 0x90
__ZN3std3ffi6os_str8OsString4push17h593e4e29cbc67266E:
Lfunc_begin24:
	.cfi_startproc
	.cfi_personality 155, _rust_eh_personality
	.cfi_lsda 16, Lexception24
	pushq	%rbp
	.cfi_def_cfa_offset 16
	.cfi_offset %rbp, -16
	movq	%rsp, %rbp
	.cfi_def_cfa_register %rbp
	subq	$48, %rsp
	movq	%rsi, -24(%rbp)
Ltmp213:
	leaq	-24(%rbp), %rax
	movq	%rdi, -32(%rbp)
	movq	%rax, %rdi
	callq	__ZN55_$LT$$RF$T$u20$as$u20$core..convert..AsRef$LT$U$GT$$GT$6as_ref17h29741452a6431a6bE
Ltmp214:
	movq	%rdx, -40(%rbp)
	movq	%rax, -48(%rbp)
	jmp	LBB103_2
LBB103_1:
	movq	-16(%rbp), %rdi
	callq	__Unwind_Resume
	ud2
LBB103_2:
Ltmp215:
	movq	-32(%rbp), %rdi
	movq	-48(%rbp), %rsi
	movq	-40(%rbp), %rdx
	callq	__ZN3std10sys_common12os_str_bytes3Buf10push_slice17h31c87fd302fb94a8E
Ltmp216:
	jmp	LBB103_4
LBB103_3:
	jmp	LBB103_1
LBB103_4:
	jmp	LBB103_5
LBB103_5:
	addq	$48, %rsp
	popq	%rbp
	retq
LBB103_6:
Ltmp217:
	movq	%rax, -16(%rbp)
	movl	%edx, -8(%rbp)
	jmp	LBB103_3
Lfunc_end24:
	.cfi_endproc
	.section	__TEXT,__gcc_except_tab
	.p2align	2
GCC_except_table103:
Lexception24:
	.byte	255
	.byte	255
	.byte	1
	.uleb128 Lcst_end24-Lcst_begin24
Lcst_begin24:
	.uleb128 Ltmp213-Lfunc_begin24
	.uleb128 Ltmp214-Ltmp213
	.uleb128 Ltmp217-Lfunc_begin24
	.byte	0
	.uleb128 Ltmp214-Lfunc_begin24
	.uleb128 Ltmp215-Ltmp214
	.byte	0
	.byte	0
	.uleb128 Ltmp215-Lfunc_begin24
	.uleb128 Ltmp216-Ltmp215
	.uleb128 Ltmp217-Lfunc_begin24
	.byte	0
Lcst_end24:
	.p2align	2

	.section	__TEXT,__text,regular,pure_instructions
	.globl	__ZN3std3ffi6os_str8OsString4push17h639fc3791187fcc2E
	.p2align	4, 0x90
__ZN3std3ffi6os_str8OsString4push17h639fc3791187fcc2E:
Lfunc_begin25:
	.cfi_startproc
	.cfi_personality 155, _rust_eh_personality
	.cfi_lsda 16, Lexception25
	pushq	%rbp
	.cfi_def_cfa_offset 16
	.cfi_offset %rbp, -16
	movq	%rsp, %rbp
	.cfi_def_cfa_register %rbp
	subq	$64, %rsp
	movq	%rsi, -32(%rbp)
	movq	%rdx, -24(%rbp)
Ltmp218:
	leaq	-32(%rbp), %rax
	movq	%rdi, -40(%rbp)
	movq	%rax, %rdi
	callq	__ZN55_$LT$$RF$T$u20$as$u20$core..convert..AsRef$LT$U$GT$$GT$6as_ref17hb65dc6a4db6f6ba9E
Ltmp219:
	movq	%rdx, -48(%rbp)
	movq	%rax, -56(%rbp)
	jmp	LBB104_2
LBB104_1:
	movq	-16(%rbp), %rdi
	callq	__Unwind_Resume
	ud2
LBB104_2:
Ltmp220:
	movq	-40(%rbp), %rdi
	movq	-56(%rbp), %rsi
	movq	-48(%rbp), %rdx
	callq	__ZN3std10sys_common12os_str_bytes3Buf10push_slice17h31c87fd302fb94a8E
Ltmp221:
	jmp	LBB104_4
LBB104_3:
	jmp	LBB104_1
LBB104_4:
	jmp	LBB104_5
LBB104_5:
	addq	$64, %rsp
	popq	%rbp
	retq
LBB104_6:
Ltmp222:
	movq	%rax, -16(%rbp)
	movl	%edx, -8(%rbp)
	jmp	LBB104_3
Lfunc_end25:
	.cfi_endproc
	.section	__TEXT,__gcc_except_tab
	.p2align	2
GCC_except_table104:
Lexception25:
	.byte	255
	.byte	255
	.byte	1
	.uleb128 Lcst_end25-Lcst_begin25
Lcst_begin25:
	.uleb128 Ltmp218-Lfunc_begin25
	.uleb128 Ltmp219-Ltmp218
	.uleb128 Ltmp222-Lfunc_begin25
	.byte	0
	.uleb128 Ltmp219-Lfunc_begin25
	.uleb128 Ltmp220-Ltmp219
	.byte	0
	.byte	0
	.uleb128 Ltmp220-Lfunc_begin25
	.uleb128 Ltmp221-Ltmp220
	.uleb128 Ltmp222-Lfunc_begin25
	.byte	0
Lcst_end25:
	.p2align	2

	.section	__TEXT,__text,regular,pure_instructions
	.globl	__ZN3std3ffi6os_str8OsString4push17hcafcbd52dfc878afE
	.p2align	4, 0x90
__ZN3std3ffi6os_str8OsString4push17hcafcbd52dfc878afE:
Lfunc_begin26:
	.cfi_startproc
	.cfi_personality 155, _rust_eh_personality
	.cfi_lsda 16, Lexception26
	pushq	%rbp
	.cfi_def_cfa_offset 16
	.cfi_offset %rbp, -16
	movq	%rsp, %rbp
	.cfi_def_cfa_register %rbp
	subq	$48, %rsp
	movq	%rsi, -24(%rbp)
Ltmp223:
	leaq	-24(%rbp), %rax
	movq	%rdi, -32(%rbp)
	movq	%rax, %rdi
	callq	__ZN55_$LT$$RF$T$u20$as$u20$core..convert..AsRef$LT$U$GT$$GT$6as_ref17h9eeef29057fc928eE
Ltmp224:
	movq	%rdx, -40(%rbp)
	movq	%rax, -48(%rbp)
	jmp	LBB105_2
LBB105_1:
	movq	-16(%rbp), %rdi
	callq	__Unwind_Resume
	ud2
LBB105_2:
Ltmp225:
	movq	-32(%rbp), %rdi
	movq	-48(%rbp), %rsi
	movq	-40(%rbp), %rdx
	callq	__ZN3std10sys_common12os_str_bytes3Buf10push_slice17h31c87fd302fb94a8E
Ltmp226:
	jmp	LBB105_4
LBB105_3:
	jmp	LBB105_1
LBB105_4:
	jmp	LBB105_5
LBB105_5:
	addq	$48, %rsp
	popq	%rbp
	retq
LBB105_6:
Ltmp227:
	movq	%rax, -16(%rbp)
	movl	%edx, -8(%rbp)
	jmp	LBB105_3
Lfunc_end26:
	.cfi_endproc
	.section	__TEXT,__gcc_except_tab
	.p2align	2
GCC_except_table105:
Lexception26:
	.byte	255
	.byte	255
	.byte	1
	.uleb128 Lcst_end26-Lcst_begin26
Lcst_begin26:
	.uleb128 Ltmp223-Lfunc_begin26
	.uleb128 Ltmp224-Ltmp223
	.uleb128 Ltmp227-Lfunc_begin26
	.byte	0
	.uleb128 Ltmp224-Lfunc_begin26
	.uleb128 Ltmp225-Ltmp224
	.byte	0
	.byte	0
	.uleb128 Ltmp225-Lfunc_begin26
	.uleb128 Ltmp226-Ltmp225
	.uleb128 Ltmp227-Lfunc_begin26
	.byte	0
Lcst_end26:
	.p2align	2

	.section	__TEXT,__text,regular,pure_instructions
	.p2align	4, 0x90
__ZN3std3sys4unix5mutex5Mutex4init17h4711dfbb8b1659cdE:
	.cfi_startproc
	pushq	%rbp
	.cfi_def_cfa_offset 16
	.cfi_offset %rbp, -16
	movq	%rsp, %rbp
	.cfi_def_cfa_register %rbp
	subq	$64, %rsp
	movq	%rdi, -24(%rbp)
	leaq	-16(%rbp), %rax
	movq	%rax, -32(%rbp)
	movq	-32(%rbp), %rdi
	callq	_pthread_mutexattr_init
	leaq	-16(%rbp), %rax
	movq	%rax, -40(%rbp)
	xorl	%esi, %esi
	movq	-40(%rbp), %rdi
	callq	_pthread_mutexattr_settype
	movq	-24(%rbp), %rax
	movq	%rax, %rdi
	callq	__ZN4core4cell19UnsafeCell$LT$T$GT$3get17h8f09682ae2ef0512E
	movq	%rax, -48(%rbp)
	leaq	-16(%rbp), %rax
	movq	%rax, -56(%rbp)
	movq	-48(%rbp), %rdi
	movq	-56(%rbp), %rsi
	callq	_pthread_mutex_init
	leaq	-16(%rbp), %rax
	movq	%rax, -64(%rbp)
	movq	-64(%rbp), %rdi
	callq	_pthread_mutexattr_destroy
	addq	$64, %rsp
	popq	%rbp
	retq
	.cfi_endproc

	.p2align	4, 0x90
__ZN3std3sys4unix5mutex5Mutex4lock17had0425a6766d193eE:
	.cfi_startproc
	pushq	%rbp
	.cfi_def_cfa_offset 16
	.cfi_offset %rbp, -16
	movq	%rsp, %rbp
	.cfi_def_cfa_register %rbp
	subq	$16, %rsp
	callq	__ZN4core4cell19UnsafeCell$LT$T$GT$3get17h8f09682ae2ef0512E
	movq	%rax, -8(%rbp)
	movq	-8(%rbp), %rdi
	callq	_pthread_mutex_lock
	addq	$16, %rsp
	popq	%rbp
	retq
	.cfi_endproc

	.p2align	4, 0x90
__ZN3std3sys4unix5mutex5Mutex6unlock17h5d678cb979c8bc53E:
	.cfi_startproc
	pushq	%rbp
	.cfi_def_cfa_offset 16
	.cfi_offset %rbp, -16
	movq	%rsp, %rbp
	.cfi_def_cfa_register %rbp
	subq	$16, %rsp
	callq	__ZN4core4cell19UnsafeCell$LT$T$GT$3get17h8f09682ae2ef0512E
	movq	%rax, -8(%rbp)
	movq	-8(%rbp), %rdi
	callq	_pthread_mutex_unlock
	addq	$16, %rsp
	popq	%rbp
	retq
	.cfi_endproc

	.p2align	4, 0x90
__ZN3std3sys4unix5mutex5Mutex7destroy17h70887a6ff69fefefE:
	.cfi_startproc
	pushq	%rbp
	.cfi_def_cfa_offset 16
	.cfi_offset %rbp, -16
	movq	%rsp, %rbp
	.cfi_def_cfa_register %rbp
	subq	$16, %rsp
	callq	__ZN4core4cell19UnsafeCell$LT$T$GT$3get17h8f09682ae2ef0512E
	movq	%rax, -8(%rbp)
	movq	-8(%rbp), %rdi
	callq	_pthread_mutex_destroy
	addq	$16, %rsp
	popq	%rbp
	retq
	.cfi_endproc

	.p2align	4, 0x90
__ZN3std3sys4unix5mutex5Mutex8try_lock17he90d422a0445b5aeE:
	.cfi_startproc
	pushq	%rbp
	.cfi_def_cfa_offset 16
	.cfi_offset %rbp, -16
	movq	%rsp, %rbp
	.cfi_def_cfa_register %rbp
	subq	$16, %rsp
	callq	__ZN4core4cell19UnsafeCell$LT$T$GT$3get17h8f09682ae2ef0512E
	movq	%rax, -8(%rbp)
	movq	-8(%rbp), %rdi
	callq	_pthread_mutex_trylock
	movl	%eax, -12(%rbp)
	movl	-12(%rbp), %eax
	cmpl	$0, %eax
	sete	%cl
	andb	$1, %cl
	movzbl	%cl, %eax
	addq	$16, %rsp
	popq	%rbp
	retq
	.cfi_endproc

	.globl	__ZN3std4path4Path11starts_with17h5e0b12e088047488E
	.p2align	4, 0x90
__ZN3std4path4Path11starts_with17h5e0b12e088047488E:
Lfunc_begin27:
	.cfi_startproc
	.cfi_personality 155, _rust_eh_personality
	.cfi_lsda 16, Lexception27
	pushq	%rbp
	.cfi_def_cfa_offset 16
	.cfi_offset %rbp, -16
	movq	%rsp, %rbp
	.cfi_def_cfa_register %rbp
	subq	$64, %rsp
	movq	%rdx, -24(%rbp)
Ltmp228:
	leaq	-24(%rbp), %rax
	movq	%rdi, -32(%rbp)
	movq	%rax, %rdi
	movq	%rsi, -40(%rbp)
	callq	__ZN55_$LT$$RF$T$u20$as$u20$core..convert..AsRef$LT$U$GT$$GT$6as_ref17hc54d8751771396c3E
Ltmp229:
	movq	%rdx, -48(%rbp)
	movq	%rax, -56(%rbp)
	jmp	LBB111_2
LBB111_1:
	movq	-16(%rbp), %rdi
	callq	__Unwind_Resume
	ud2
LBB111_2:
Ltmp230:
	movq	-32(%rbp), %rdi
	movq	-40(%rbp), %rsi
	movq	-56(%rbp), %rdx
	movq	-48(%rbp), %rcx
	callq	__ZN3std4path4Path12_starts_with17hfe86e4e979adb207E
Ltmp231:
	movb	%al, -57(%rbp)
	jmp	LBB111_4
LBB111_3:
	jmp	LBB111_1
LBB111_4:
	jmp	LBB111_5
LBB111_5:
	movb	-57(%rbp), %al
	andb	$1, %al
	movzbl	%al, %eax
	addq	$64, %rsp
	popq	%rbp
	retq
LBB111_6:
Ltmp232:
	movq	%rax, -16(%rbp)
	movl	%edx, -8(%rbp)
	jmp	LBB111_3
Lfunc_end27:
	.cfi_endproc
	.section	__TEXT,__gcc_except_tab
	.p2align	2
GCC_except_table111:
Lexception27:
	.byte	255
	.byte	255
	.byte	1
	.uleb128 Lcst_end27-Lcst_begin27
Lcst_begin27:
	.uleb128 Ltmp228-Lfunc_begin27
	.uleb128 Ltmp229-Ltmp228
	.uleb128 Ltmp232-Lfunc_begin27
	.byte	0
	.uleb128 Ltmp229-Lfunc_begin27
	.uleb128 Ltmp230-Ltmp229
	.byte	0
	.byte	0
	.uleb128 Ltmp230-Lfunc_begin27
	.uleb128 Ltmp231-Ltmp230
	.uleb128 Ltmp232-Lfunc_begin27
	.byte	0
Lcst_end27:
	.p2align	2

	.section	__TEXT,__text,regular,pure_instructions
	.globl	__ZN3std4path4Path14with_extension17ha45e6a43c8cd32b6E
	.p2align	4, 0x90
__ZN3std4path4Path14with_extension17ha45e6a43c8cd32b6E:
Lfunc_begin28:
	.cfi_startproc
	.cfi_personality 155, _rust_eh_personality
	.cfi_lsda 16, Lexception28
	pushq	%rbp
	.cfi_def_cfa_offset 16
	.cfi_offset %rbp, -16
	movq	%rsp, %rbp
	.cfi_def_cfa_register %rbp
	subq	$80, %rsp
	movq	%rdi, %rax
	movq	%rcx, -32(%rbp)
	movq	%r8, -24(%rbp)
Ltmp233:
	leaq	-32(%rbp), %rcx
	movq	%rdi, -40(%rbp)
	movq	%rcx, %rdi
	movq	%rdx, -48(%rbp)
	movq	%rsi, -56(%rbp)
	movq	%rax, -64(%rbp)
	callq	__ZN55_$LT$$RF$T$u20$as$u20$core..convert..AsRef$LT$U$GT$$GT$6as_ref17hcbcdc4af8bec2730E
Ltmp234:
	movq	%rdx, -72(%rbp)
	movq	%rax, -80(%rbp)
	jmp	LBB112_2
LBB112_1:
	movq	-16(%rbp), %rdi
	callq	__Unwind_Resume
	ud2
LBB112_2:
Ltmp235:
	movq	-40(%rbp), %rdi
	movq	-56(%rbp), %rsi
	movq	-48(%rbp), %rdx
	movq	-80(%rbp), %rcx
	movq	-72(%rbp), %r8
	callq	__ZN3std4path4Path15_with_extension17hbe07e6b368767ed2E
Ltmp236:
	jmp	LBB112_4
LBB112_3:
	jmp	LBB112_1
LBB112_4:
	jmp	LBB112_5
LBB112_5:
	movq	-64(%rbp), %rax
	addq	$80, %rsp
	popq	%rbp
	retq
LBB112_6:
Ltmp237:
	movq	%rax, -16(%rbp)
	movl	%edx, -8(%rbp)
	jmp	LBB112_3
Lfunc_end28:
	.cfi_endproc
	.section	__TEXT,__gcc_except_tab
	.p2align	2
GCC_except_table112:
Lexception28:
	.byte	255
	.byte	255
	.byte	1
	.uleb128 Lcst_end28-Lcst_begin28
Lcst_begin28:
	.uleb128 Ltmp233-Lfunc_begin28
	.uleb128 Ltmp234-Ltmp233
	.uleb128 Ltmp237-Lfunc_begin28
	.byte	0
	.uleb128 Ltmp234-Lfunc_begin28
	.uleb128 Ltmp235-Ltmp234
	.byte	0
	.byte	0
	.uleb128 Ltmp235-Lfunc_begin28
	.uleb128 Ltmp236-Ltmp235
	.uleb128 Ltmp237-Lfunc_begin28
	.byte	0
Lcst_end28:
	.p2align	2

	.section	__TEXT,__text,regular,pure_instructions
	.globl	__ZN3std4path4Path14with_file_name17h9ef010d92164a76eE
	.p2align	4, 0x90
__ZN3std4path4Path14with_file_name17h9ef010d92164a76eE:
Lfunc_begin29:
	.cfi_startproc
	.cfi_personality 155, _rust_eh_personality
	.cfi_lsda 16, Lexception29
	pushq	%rbp
	.cfi_def_cfa_offset 16
	.cfi_offset %rbp, -16
	movq	%rsp, %rbp
	.cfi_def_cfa_register %rbp
	subq	$80, %rsp
	movq	%rdi, %rax
Ltmp238:
	movq	%rdi, -24(%rbp)
	movq	%rcx, %rdi
	movq	%rcx, -32(%rbp)
	movq	%rdx, -40(%rbp)
	movq	%rsi, -48(%rbp)
	movq	%rax, -56(%rbp)
	callq	__ZN3std3ffi6os_str103_$LT$impl$u20$core..convert..AsRef$LT$std..ffi..os_str..OsStr$GT$$u20$for$u20$alloc..string..String$GT$6as_ref17h102b4379b57fa69aE
Ltmp239:
	movq	%rdx, -64(%rbp)
	movq	%rax, -72(%rbp)
	jmp	LBB113_2
LBB113_1:
	movq	-16(%rbp), %rdi
	callq	__Unwind_Resume
	ud2
LBB113_2:
Ltmp240:
	movq	-24(%rbp), %rdi
	movq	-48(%rbp), %rsi
	movq	-40(%rbp), %rdx
	movq	-72(%rbp), %rcx
	movq	-64(%rbp), %r8
	callq	__ZN3std4path4Path15_with_file_name17h6c5498442daa8128E
Ltmp241:
	jmp	LBB113_4
LBB113_3:
	movq	-32(%rbp), %rdi
	callq	__ZN4core3ptr13drop_in_place17h94b15c4f5295c60dE
	jmp	LBB113_1
LBB113_4:
	movq	-32(%rbp), %rdi
	callq	__ZN4core3ptr13drop_in_place17h94b15c4f5295c60dE
	movq	-56(%rbp), %rax
	addq	$80, %rsp
	popq	%rbp
	retq
LBB113_6:
Ltmp242:
	movq	%rax, -16(%rbp)
	movl	%edx, -8(%rbp)
	jmp	LBB113_3
Lfunc_end29:
	.cfi_endproc
	.section	__TEXT,__gcc_except_tab
	.p2align	2
GCC_except_table113:
Lexception29:
	.byte	255
	.byte	255
	.byte	1
	.uleb128 Lcst_end29-Lcst_begin29
Lcst_begin29:
	.uleb128 Ltmp238-Lfunc_begin29
	.uleb128 Ltmp239-Ltmp238
	.uleb128 Ltmp242-Lfunc_begin29
	.byte	0
	.uleb128 Ltmp239-Lfunc_begin29
	.uleb128 Ltmp240-Ltmp239
	.byte	0
	.byte	0
	.uleb128 Ltmp240-Lfunc_begin29
	.uleb128 Ltmp241-Ltmp240
	.uleb128 Ltmp242-Lfunc_begin29
	.byte	0
	.uleb128 Ltmp241-Lfunc_begin29
	.uleb128 Lfunc_end29-Ltmp241
	.byte	0
	.byte	0
Lcst_end29:
	.p2align	2

	.section	__TEXT,__text,regular,pure_instructions
	.globl	__ZN3std4path4Path3new17h1ec1e9f6e121bb18E
	.p2align	4, 0x90
__ZN3std4path4Path3new17h1ec1e9f6e121bb18E:
	.cfi_startproc
	pushq	%rbp
	.cfi_def_cfa_offset 16
	.cfi_offset %rbp, -16
	movq	%rsp, %rbp
	.cfi_def_cfa_register %rbp
	subq	$16, %rsp
	callq	__ZN3std3ffi6os_str85_$LT$impl$u20$core..convert..AsRef$LT$std..ffi..os_str..OsStr$GT$$u20$for$u20$str$GT$6as_ref17hcdeec844ab9162cbE
	movq	%rax, -8(%rbp)
	movq	%rdx, -16(%rbp)
	movq	-8(%rbp), %rax
	movq	-16(%rbp), %rdx
	addq	$16, %rsp
	popq	%rbp
	retq
	.cfi_endproc

	.globl	__ZN3std4path4Path3new17h4e64ad1960679c47E
	.p2align	4, 0x90
__ZN3std4path4Path3new17h4e64ad1960679c47E:
	.cfi_startproc
	pushq	%rbp
	.cfi_def_cfa_offset 16
	.cfi_offset %rbp, -16
	movq	%rsp, %rbp
	.cfi_def_cfa_register %rbp
	subq	$16, %rsp
	callq	__ZN3std3ffi6os_str103_$LT$impl$u20$core..convert..AsRef$LT$std..ffi..os_str..OsStr$GT$$u20$for$u20$alloc..string..String$GT$6as_ref17h102b4379b57fa69aE
	movq	%rax, -8(%rbp)
	movq	%rdx, -16(%rbp)
	movq	-8(%rbp), %rax
	movq	-16(%rbp), %rdx
	addq	$16, %rsp
	popq	%rbp
	retq
	.cfi_endproc

	.globl	__ZN3std4path4Path3new17h93f48f5630b2d148E
	.p2align	4, 0x90
__ZN3std4path4Path3new17h93f48f5630b2d148E:
	.cfi_startproc
	pushq	%rbp
	.cfi_def_cfa_offset 16
	.cfi_offset %rbp, -16
	movq	%rsp, %rbp
	.cfi_def_cfa_register %rbp
	subq	$16, %rsp
	callq	__ZN98_$LT$std..ffi..os_str..OsString$u20$as$u20$core..convert..AsRef$LT$std..ffi..os_str..OsStr$GT$$GT$6as_ref17h505200d7b5f0d498E
	movq	%rax, -8(%rbp)
	movq	%rdx, -16(%rbp)
	movq	-8(%rbp), %rax
	movq	-16(%rbp), %rdx
	addq	$16, %rsp
	popq	%rbp
	retq
	.cfi_endproc

	.globl	__ZN3std4path4Path4join17h14610148204cef59E
	.p2align	4, 0x90
__ZN3std4path4Path4join17h14610148204cef59E:
Lfunc_begin30:
	.cfi_startproc
	.cfi_personality 155, _rust_eh_personality
	.cfi_lsda 16, Lexception30
	pushq	%rbp
	.cfi_def_cfa_offset 16
	.cfi_offset %rbp, -16
	movq	%rsp, %rbp
	.cfi_def_cfa_register %rbp
	subq	$80, %rsp
	movq	%rdi, %rax
	movq	%rcx, -32(%rbp)
	movq	%r8, -24(%rbp)
Ltmp243:
	leaq	-32(%rbp), %rcx
	movq	%rdi, -40(%rbp)
	movq	%rcx, %rdi
	movq	%rdx, -48(%rbp)
	movq	%rsi, -56(%rbp)
	movq	%rax, -64(%rbp)
	callq	__ZN55_$LT$$RF$T$u20$as$u20$core..convert..AsRef$LT$U$GT$$GT$6as_ref17h124db5b4f6fc2facE
Ltmp244:
	movq	%rdx, -72(%rbp)
	movq	%rax, -80(%rbp)
	jmp	LBB117_2
LBB117_1:
	movq	-16(%rbp), %rdi
	callq	__Unwind_Resume
	ud2
LBB117_2:
Ltmp245:
	movq	-40(%rbp), %rdi
	movq	-56(%rbp), %rsi
	movq	-48(%rbp), %rdx
	movq	-80(%rbp), %rcx
	movq	-72(%rbp), %r8
	callq	__ZN3std4path4Path5_join17h880a72f8841f5382E
Ltmp246:
	jmp	LBB117_4
LBB117_3:
	jmp	LBB117_1
LBB117_4:
	jmp	LBB117_5
LBB117_5:
	movq	-64(%rbp), %rax
	addq	$80, %rsp
	popq	%rbp
	retq
LBB117_6:
Ltmp247:
	movq	%rax, -16(%rbp)
	movl	%edx, -8(%rbp)
	jmp	LBB117_3
Lfunc_end30:
	.cfi_endproc
	.section	__TEXT,__gcc_except_tab
	.p2align	2
GCC_except_table117:
Lexception30:
	.byte	255
	.byte	255
	.byte	1
	.uleb128 Lcst_end30-Lcst_begin30
Lcst_begin30:
	.uleb128 Ltmp243-Lfunc_begin30
	.uleb128 Ltmp244-Ltmp243
	.uleb128 Ltmp247-Lfunc_begin30
	.byte	0
	.uleb128 Ltmp244-Lfunc_begin30
	.uleb128 Ltmp245-Ltmp244
	.byte	0
	.byte	0
	.uleb128 Ltmp245-Lfunc_begin30
	.uleb128 Ltmp246-Ltmp245
	.uleb128 Ltmp247-Lfunc_begin30
	.byte	0
Lcst_end30:
	.p2align	2

	.section	__TEXT,__text,regular,pure_instructions
	.globl	__ZN3std4path4Path4join17h1f8cac25c2a21cc2E
	.p2align	4, 0x90
__ZN3std4path4Path4join17h1f8cac25c2a21cc2E:
Lfunc_begin31:
	.cfi_startproc
	.cfi_personality 155, _rust_eh_personality
	.cfi_lsda 16, Lexception31
	pushq	%rbp
	.cfi_def_cfa_offset 16
	.cfi_offset %rbp, -16
	movq	%rsp, %rbp
	.cfi_def_cfa_register %rbp
	subq	$80, %rsp
	movq	%rdi, %rax
	movq	%rcx, -24(%rbp)
Ltmp248:
	leaq	-24(%rbp), %rcx
	movq	%rdi, -32(%rbp)
	movq	%rcx, %rdi
	movq	%rdx, -40(%rbp)
	movq	%rsi, -48(%rbp)
	movq	%rax, -56(%rbp)
	callq	__ZN55_$LT$$RF$T$u20$as$u20$core..convert..AsRef$LT$U$GT$$GT$6as_ref17h1b9abc0b98715803E
Ltmp249:
	movq	%rdx, -64(%rbp)
	movq	%rax, -72(%rbp)
	jmp	LBB118_2
LBB118_1:
	movq	-16(%rbp), %rdi
	callq	__Unwind_Resume
	ud2
LBB118_2:
Ltmp250:
	movq	-32(%rbp), %rdi
	movq	-48(%rbp), %rsi
	movq	-40(%rbp), %rdx
	movq	-72(%rbp), %rcx
	movq	-64(%rbp), %r8
	callq	__ZN3std4path4Path5_join17h880a72f8841f5382E
Ltmp251:
	jmp	LBB118_4
LBB118_3:
	jmp	LBB118_1
LBB118_4:
	jmp	LBB118_5
LBB118_5:
	movq	-56(%rbp), %rax
	addq	$80, %rsp
	popq	%rbp
	retq
LBB118_6:
Ltmp252:
	movq	%rax, -16(%rbp)
	movl	%edx, -8(%rbp)
	jmp	LBB118_3
Lfunc_end31:
	.cfi_endproc
	.section	__TEXT,__gcc_except_tab
	.p2align	2
GCC_except_table118:
Lexception31:
	.byte	255
	.byte	255
	.byte	1
	.uleb128 Lcst_end31-Lcst_begin31
Lcst_begin31:
	.uleb128 Ltmp248-Lfunc_begin31
	.uleb128 Ltmp249-Ltmp248
	.uleb128 Ltmp252-Lfunc_begin31
	.byte	0
	.uleb128 Ltmp249-Lfunc_begin31
	.uleb128 Ltmp250-Ltmp249
	.byte	0
	.byte	0
	.uleb128 Ltmp250-Lfunc_begin31
	.uleb128 Ltmp251-Ltmp250
	.uleb128 Ltmp252-Lfunc_begin31
	.byte	0
Lcst_end31:
	.p2align	2

	.section	__TEXT,__text,regular,pure_instructions
	.globl	__ZN3std4path4Path4join17hae6b150a4939a185E
	.p2align	4, 0x90
__ZN3std4path4Path4join17hae6b150a4939a185E:
Lfunc_begin32:
	.cfi_startproc
	.cfi_personality 155, _rust_eh_personality
	.cfi_lsda 16, Lexception32
	pushq	%rbp
	.cfi_def_cfa_offset 16
	.cfi_offset %rbp, -16
	movq	%rsp, %rbp
	.cfi_def_cfa_register %rbp
	subq	$80, %rsp
	movq	%rdi, %rax
	movq	%rcx, -24(%rbp)
Ltmp253:
	leaq	-24(%rbp), %rcx
	movq	%rdi, -32(%rbp)
	movq	%rcx, %rdi
	movq	%rdx, -40(%rbp)
	movq	%rsi, -48(%rbp)
	movq	%rax, -56(%rbp)
	callq	__ZN55_$LT$$RF$T$u20$as$u20$core..convert..AsRef$LT$U$GT$$GT$6as_ref17hc54d8751771396c3E
Ltmp254:
	movq	%rdx, -64(%rbp)
	movq	%rax, -72(%rbp)
	jmp	LBB119_2
LBB119_1:
	movq	-16(%rbp), %rdi
	callq	__Unwind_Resume
	ud2
LBB119_2:
Ltmp255:
	movq	-32(%rbp), %rdi
	movq	-48(%rbp), %rsi
	movq	-40(%rbp), %rdx
	movq	-72(%rbp), %rcx
	movq	-64(%rbp), %r8
	callq	__ZN3std4path4Path5_join17h880a72f8841f5382E
Ltmp256:
	jmp	LBB119_4
LBB119_3:
	jmp	LBB119_1
LBB119_4:
	jmp	LBB119_5
LBB119_5:
	movq	-56(%rbp), %rax
	addq	$80, %rsp
	popq	%rbp
	retq
LBB119_6:
Ltmp257:
	movq	%rax, -16(%rbp)
	movl	%edx, -8(%rbp)
	jmp	LBB119_3
Lfunc_end32:
	.cfi_endproc
	.section	__TEXT,__gcc_except_tab
	.p2align	2
GCC_except_table119:
Lexception32:
	.byte	255
	.byte	255
	.byte	1
	.uleb128 Lcst_end32-Lcst_begin32
Lcst_begin32:
	.uleb128 Ltmp253-Lfunc_begin32
	.uleb128 Ltmp254-Ltmp253
	.uleb128 Ltmp257-Lfunc_begin32
	.byte	0
	.uleb128 Ltmp254-Lfunc_begin32
	.uleb128 Ltmp255-Ltmp254
	.byte	0
	.byte	0
	.uleb128 Ltmp255-Lfunc_begin32
	.uleb128 Ltmp256-Ltmp255
	.uleb128 Ltmp257-Lfunc_begin32
	.byte	0
Lcst_end32:
	.p2align	2

	.section	__TEXT,__text,regular,pure_instructions
	.globl	__ZN3std4path4Path4join17hd5cf74c629b8b163E
	.p2align	4, 0x90
__ZN3std4path4Path4join17hd5cf74c629b8b163E:
Lfunc_begin33:
	.cfi_startproc
	.cfi_personality 155, _rust_eh_personality
	.cfi_lsda 16, Lexception33
	pushq	%rbp
	.cfi_def_cfa_offset 16
	.cfi_offset %rbp, -16
	movq	%rsp, %rbp
	.cfi_def_cfa_register %rbp
	subq	$80, %rsp
	movq	%rdi, %rax
	movq	%rcx, -32(%rbp)
	movq	%r8, -24(%rbp)
Ltmp258:
	leaq	-32(%rbp), %rcx
	movq	%rdi, -40(%rbp)
	movq	%rcx, %rdi
	movq	%rdx, -48(%rbp)
	movq	%rsi, -56(%rbp)
	movq	%rax, -64(%rbp)
	callq	__ZN55_$LT$$RF$T$u20$as$u20$core..convert..AsRef$LT$U$GT$$GT$6as_ref17h1839c48c84ea867dE
Ltmp259:
	movq	%rdx, -72(%rbp)
	movq	%rax, -80(%rbp)
	jmp	LBB120_2
LBB120_1:
	movq	-16(%rbp), %rdi
	callq	__Unwind_Resume
	ud2
LBB120_2:
Ltmp260:
	movq	-40(%rbp), %rdi
	movq	-56(%rbp), %rsi
	movq	-48(%rbp), %rdx
	movq	-80(%rbp), %rcx
	movq	-72(%rbp), %r8
	callq	__ZN3std4path4Path5_join17h880a72f8841f5382E
Ltmp261:
	jmp	LBB120_4
LBB120_3:
	jmp	LBB120_1
LBB120_4:
	jmp	LBB120_5
LBB120_5:
	movq	-64(%rbp), %rax
	addq	$80, %rsp
	popq	%rbp
	retq
LBB120_6:
Ltmp262:
	movq	%rax, -16(%rbp)
	movl	%edx, -8(%rbp)
	jmp	LBB120_3
Lfunc_end33:
	.cfi_endproc
	.section	__TEXT,__gcc_except_tab
	.p2align	2
GCC_except_table120:
Lexception33:
	.byte	255
	.byte	255
	.byte	1
	.uleb128 Lcst_end33-Lcst_begin33
Lcst_begin33:
	.uleb128 Ltmp258-Lfunc_begin33
	.uleb128 Ltmp259-Ltmp258
	.uleb128 Ltmp262-Lfunc_begin33
	.byte	0
	.uleb128 Ltmp259-Lfunc_begin33
	.uleb128 Ltmp260-Ltmp259
	.byte	0
	.byte	0
	.uleb128 Ltmp260-Lfunc_begin33
	.uleb128 Ltmp261-Ltmp260
	.uleb128 Ltmp262-Lfunc_begin33
	.byte	0
Lcst_end33:
	.p2align	2

	.section	__TEXT,__text,regular,pure_instructions
	.globl	__ZN3std4path4Path4join17hf00ec2267f281c1cE
	.p2align	4, 0x90
__ZN3std4path4Path4join17hf00ec2267f281c1cE:
Lfunc_begin34:
	.cfi_startproc
	.cfi_personality 155, _rust_eh_personality
	.cfi_lsda 16, Lexception34
	pushq	%rbp
	.cfi_def_cfa_offset 16
	.cfi_offset %rbp, -16
	movq	%rsp, %rbp
	.cfi_def_cfa_register %rbp
	subq	$80, %rsp
	movq	%rdi, %rax
Ltmp263:
	movq	%rdi, -24(%rbp)
	movq	%rcx, %rdi
	movq	%rcx, -32(%rbp)
	movq	%rdx, -40(%rbp)
	movq	%rsi, -48(%rbp)
	movq	%rax, -56(%rbp)
	callq	__ZN3std4path95_$LT$impl$u20$core..convert..AsRef$LT$std..path..Path$GT$$u20$for$u20$alloc..string..String$GT$6as_ref17h2b2f8cb286afb95bE
Ltmp264:
	movq	%rdx, -64(%rbp)
	movq	%rax, -72(%rbp)
	jmp	LBB121_2
LBB121_1:
	movq	-16(%rbp), %rdi
	callq	__Unwind_Resume
	ud2
LBB121_2:
Ltmp265:
	movq	-24(%rbp), %rdi
	movq	-48(%rbp), %rsi
	movq	-40(%rbp), %rdx
	movq	-72(%rbp), %rcx
	movq	-64(%rbp), %r8
	callq	__ZN3std4path4Path5_join17h880a72f8841f5382E
Ltmp266:
	jmp	LBB121_4
LBB121_3:
	movq	-32(%rbp), %rdi
	callq	__ZN4core3ptr13drop_in_place17h94b15c4f5295c60dE
	jmp	LBB121_1
LBB121_4:
	movq	-32(%rbp), %rdi
	callq	__ZN4core3ptr13drop_in_place17h94b15c4f5295c60dE
	movq	-56(%rbp), %rax
	addq	$80, %rsp
	popq	%rbp
	retq
LBB121_6:
Ltmp267:
	movq	%rax, -16(%rbp)
	movl	%edx, -8(%rbp)
	jmp	LBB121_3
Lfunc_end34:
	.cfi_endproc
	.section	__TEXT,__gcc_except_tab
	.p2align	2
GCC_except_table121:
Lexception34:
	.byte	255
	.byte	255
	.byte	1
	.uleb128 Lcst_end34-Lcst_begin34
Lcst_begin34:
	.uleb128 Ltmp263-Lfunc_begin34
	.uleb128 Ltmp264-Ltmp263
	.uleb128 Ltmp267-Lfunc_begin34
	.byte	0
	.uleb128 Ltmp264-Lfunc_begin34
	.uleb128 Ltmp265-Ltmp264
	.byte	0
	.byte	0
	.uleb128 Ltmp265-Lfunc_begin34
	.uleb128 Ltmp266-Ltmp265
	.uleb128 Ltmp267-Lfunc_begin34
	.byte	0
	.uleb128 Ltmp266-Lfunc_begin34
	.uleb128 Lfunc_end34-Ltmp266
	.byte	0
	.byte	0
Lcst_end34:
	.p2align	2

	.section	__TEXT,__text,regular,pure_instructions
	.globl	__ZN3std4path4Path9ends_with17h1781f5ee12945106E
	.p2align	4, 0x90
__ZN3std4path4Path9ends_with17h1781f5ee12945106E:
Lfunc_begin35:
	.cfi_startproc
	.cfi_personality 155, _rust_eh_personality
	.cfi_lsda 16, Lexception35
	pushq	%rbp
	.cfi_def_cfa_offset 16
	.cfi_offset %rbp, -16
	movq	%rsp, %rbp
	.cfi_def_cfa_register %rbp
	subq	$80, %rsp
	movq	%rdx, -32(%rbp)
	movq	%rcx, -24(%rbp)
Ltmp268:
	leaq	-32(%rbp), %rax
	movq	%rdi, -40(%rbp)
	movq	%rax, %rdi
	movq	%rsi, -48(%rbp)
	callq	__ZN55_$LT$$RF$T$u20$as$u20$core..convert..AsRef$LT$U$GT$$GT$6as_ref17h77c0003224f60af6E
Ltmp269:
	movq	%rdx, -56(%rbp)
	movq	%rax, -64(%rbp)
	jmp	LBB122_2
LBB122_1:
	movq	-16(%rbp), %rdi
	callq	__Unwind_Resume
	ud2
LBB122_2:
Ltmp270:
	movq	-40(%rbp), %rdi
	movq	-48(%rbp), %rsi
	movq	-64(%rbp), %rdx
	movq	-56(%rbp), %rcx
	callq	__ZN3std4path4Path10_ends_with17h6f0316102b4d1600E
Ltmp271:
	movb	%al, -65(%rbp)
	jmp	LBB122_4
LBB122_3:
	jmp	LBB122_1
LBB122_4:
	jmp	LBB122_5
LBB122_5:
	movb	-65(%rbp), %al
	andb	$1, %al
	movzbl	%al, %eax
	addq	$80, %rsp
	popq	%rbp
	retq
LBB122_6:
Ltmp272:
	movq	%rax, -16(%rbp)
	movl	%edx, -8(%rbp)
	jmp	LBB122_3
Lfunc_end35:
	.cfi_endproc
	.section	__TEXT,__gcc_except_tab
	.p2align	2
GCC_except_table122:
Lexception35:
	.byte	255
	.byte	255
	.byte	1
	.uleb128 Lcst_end35-Lcst_begin35
Lcst_begin35:
	.uleb128 Ltmp268-Lfunc_begin35
	.uleb128 Ltmp269-Ltmp268
	.uleb128 Ltmp272-Lfunc_begin35
	.byte	0
	.uleb128 Ltmp269-Lfunc_begin35
	.uleb128 Ltmp270-Ltmp269
	.byte	0
	.byte	0
	.uleb128 Ltmp270-Lfunc_begin35
	.uleb128 Ltmp271-Ltmp270
	.uleb128 Ltmp272-Lfunc_begin35
	.byte	0
Lcst_end35:
	.p2align	2

	.section	__TEXT,__text,regular,pure_instructions
	.p2align	4, 0x90
__ZN3std4path77_$LT$impl$u20$core..convert..AsRef$LT$std..path..Path$GT$$u20$for$u20$str$GT$6as_ref17hac95b1c46422f4a7E:
	.cfi_startproc
	pushq	%rbp
	.cfi_def_cfa_offset 16
	.cfi_offset %rbp, -16
	movq	%rsp, %rbp
	.cfi_def_cfa_register %rbp
	subq	$16, %rsp
	callq	__ZN3std4path4Path3new17h1ec1e9f6e121bb18E
	movq	%rax, -8(%rbp)
	movq	%rdx, -16(%rbp)
	movq	-8(%rbp), %rax
	movq	-16(%rbp), %rdx
	addq	$16, %rsp
	popq	%rbp
	retq
	.cfi_endproc

	.globl	__ZN3std4sync5mutex14Mutex$LT$T$GT$3new17h1337addccddd971cE
	.p2align	4, 0x90
__ZN3std4sync5mutex14Mutex$LT$T$GT$3new17h1337addccddd971cE:
Lfunc_begin36:
	.cfi_startproc
	.cfi_personality 155, _rust_eh_personality
	.cfi_lsda 16, Lexception36
	pushq	%rbp
	.cfi_def_cfa_offset 16
	.cfi_offset %rbp, -16
	movq	%rsp, %rbp
	.cfi_def_cfa_register %rbp
	subq	$208, %rsp
	movq	%rdi, %rax
	movb	$0, -25(%rbp)
	movb	$1, -25(%rbp)
	movl	$64, %ecx
	movl	$8, %edx
	movq	%rdi, -176(%rbp)
	movq	%rcx, %rdi
	movq	%rsi, -184(%rbp)
	movq	%rdx, %rsi
	movq	%rax, -192(%rbp)
	callq	__ZN5alloc5alloc15exchange_malloc17hd6df31ee9f96363bE
	movq	%rax, -160(%rbp)
	movq	-160(%rbp), %rdi
Ltmp273:
	callq	__ZN3std10sys_common5mutex5Mutex3new17hfec750c2ce1161a9E
Ltmp274:
	jmp	LBB124_2
LBB124_1:
	movq	-24(%rbp), %rdi
	callq	__Unwind_Resume
	ud2
LBB124_2:
	movq	-160(%rbp), %rax
	movq	%rax, -168(%rbp)
Ltmp276:
	callq	__ZN3std10sys_common6poison4Flag3new17hd7ec4e2336668a12E
Ltmp277:
	movb	%al, -193(%rbp)
	jmp	LBB124_5
LBB124_3:
	testb	$1, -25(%rbp)
	jne	LBB124_9
	jmp	LBB124_1
LBB124_4:
	leaq	-168(%rbp), %rdi
	callq	__ZN4core3ptr13drop_in_place17h1b2808805d903eb7E
	jmp	LBB124_3
LBB124_5:
	movb	-193(%rbp), %al
	movb	%al, -1(%rbp)
	movb	-1(%rbp), %cl
	movb	%cl, -152(%rbp)
	movb	$0, -25(%rbp)
	movq	-184(%rbp), %rdx
	movq	48(%rdx), %rsi
	movq	%rsi, -40(%rbp)
	movq	40(%rdx), %rsi
	movq	%rsi, -48(%rbp)
	movq	32(%rdx), %rsi
	movq	%rsi, -56(%rbp)
	movq	24(%rdx), %rsi
	movq	%rsi, -64(%rbp)
	movq	16(%rdx), %rsi
	movq	%rsi, -72(%rbp)
	movq	(%rdx), %rsi
	movq	8(%rdx), %rdi
	movq	%rdi, -80(%rbp)
	movq	%rsi, -88(%rbp)
Ltmp278:
	leaq	-144(%rbp), %rdi
	leaq	-88(%rbp), %rsi
	callq	__ZN4core4cell19UnsafeCell$LT$T$GT$3new17h55fdb5d309802d45E
Ltmp279:
	jmp	LBB124_6
LBB124_6:
	movq	-168(%rbp), %rax
	movq	-176(%rbp), %rcx
	movq	%rax, (%rcx)
	movb	-152(%rbp), %dl
	movb	%dl, 8(%rcx)
	movq	-96(%rbp), %rax
	movq	%rax, 64(%rcx)
	movq	-104(%rbp), %rax
	movq	%rax, 56(%rcx)
	movq	-112(%rbp), %rax
	movq	%rax, 48(%rcx)
	movq	-120(%rbp), %rax
	movq	%rax, 40(%rcx)
	movq	-128(%rbp), %rax
	movq	%rax, 32(%rcx)
	movq	-144(%rbp), %rax
	movq	-136(%rbp), %rsi
	movq	%rsi, 24(%rcx)
	movq	%rax, 16(%rcx)
	movq	(%rcx), %rdi
Ltmp281:
	callq	__ZN3std10sys_common5mutex5Mutex4init17h36490ff7b8c692f0E
Ltmp282:
	jmp	LBB124_7
LBB124_7:
	movq	-192(%rbp), %rax
	addq	$208, %rsp
	popq	%rbp
	retq
LBB124_8:
	movq	-176(%rbp), %rdi
	callq	__ZN4core3ptr13drop_in_place17h527cf2dd20007a31E
	jmp	LBB124_3
LBB124_9:
	movb	$0, -25(%rbp)
	movq	-184(%rbp), %rdi
	callq	__ZN4core3ptr13drop_in_place17h2625141a45854b0aE
	jmp	LBB124_1
LBB124_10:
	movq	-160(%rbp), %rdi
	callq	__ZN5alloc5alloc8box_free17h0d8d247069881dafE
	jmp	LBB124_3
LBB124_11:
Ltmp275:
	movq	%rax, -24(%rbp)
	movl	%edx, -16(%rbp)
	jmp	LBB124_10
LBB124_12:
Ltmp280:
	movq	%rax, -24(%rbp)
	movl	%edx, -16(%rbp)
	jmp	LBB124_4
LBB124_13:
Ltmp283:
	movq	%rax, -24(%rbp)
	movl	%edx, -16(%rbp)
	jmp	LBB124_8
Lfunc_end36:
	.cfi_endproc
	.section	__TEXT,__gcc_except_tab
	.p2align	2
GCC_except_table124:
Lexception36:
	.byte	255
	.byte	255
	.byte	1
	.uleb128 Lcst_end36-Lcst_begin36
Lcst_begin36:
	.uleb128 Lfunc_begin36-Lfunc_begin36
	.uleb128 Ltmp273-Lfunc_begin36
	.byte	0
	.byte	0
	.uleb128 Ltmp273-Lfunc_begin36
	.uleb128 Ltmp274-Ltmp273
	.uleb128 Ltmp275-Lfunc_begin36
	.byte	0
	.uleb128 Ltmp274-Lfunc_begin36
	.uleb128 Ltmp276-Ltmp274
	.byte	0
	.byte	0
	.uleb128 Ltmp276-Lfunc_begin36
	.uleb128 Ltmp277-Ltmp276
	.uleb128 Ltmp280-Lfunc_begin36
	.byte	0
	.uleb128 Ltmp277-Lfunc_begin36
	.uleb128 Ltmp278-Ltmp277
	.byte	0
	.byte	0
	.uleb128 Ltmp278-Lfunc_begin36
	.uleb128 Ltmp279-Ltmp278
	.uleb128 Ltmp280-Lfunc_begin36
	.byte	0
	.uleb128 Ltmp281-Lfunc_begin36
	.uleb128 Ltmp282-Ltmp281
	.uleb128 Ltmp283-Lfunc_begin36
	.byte	0
	.uleb128 Ltmp282-Lfunc_begin36
	.uleb128 Lfunc_end36-Ltmp282
	.byte	0
	.byte	0
Lcst_end36:
	.p2align	2

	.section	__TEXT,__text,regular,pure_instructions
	.globl	__ZN3std4sync5mutex14Mutex$LT$T$GT$3new17h7453ace06c5c5692E
	.p2align	4, 0x90
__ZN3std4sync5mutex14Mutex$LT$T$GT$3new17h7453ace06c5c5692E:
Lfunc_begin37:
	.cfi_startproc
	.cfi_personality 155, _rust_eh_personality
	.cfi_lsda 16, Lexception37
	pushq	%rbp
	.cfi_def_cfa_offset 16
	.cfi_offset %rbp, -16
	movq	%rsp, %rbp
	.cfi_def_cfa_register %rbp
	subq	$208, %rsp
	movq	%rdi, %rax
	movb	$0, -25(%rbp)
	movb	$1, -25(%rbp)
	movl	$64, %ecx
	movl	$8, %edx
	movq	%rdi, -176(%rbp)
	movq	%rcx, %rdi
	movq	%rsi, -184(%rbp)
	movq	%rdx, %rsi
	movq	%rax, -192(%rbp)
	callq	__ZN5alloc5alloc15exchange_malloc17hd6df31ee9f96363bE
	movq	%rax, -160(%rbp)
	movq	-160(%rbp), %rdi
Ltmp284:
	callq	__ZN3std10sys_common5mutex5Mutex3new17hfec750c2ce1161a9E
Ltmp285:
	jmp	LBB125_2
LBB125_1:
	movq	-24(%rbp), %rdi
	callq	__Unwind_Resume
	ud2
LBB125_2:
	movq	-160(%rbp), %rax
	movq	%rax, -168(%rbp)
Ltmp287:
	callq	__ZN3std10sys_common6poison4Flag3new17hd7ec4e2336668a12E
Ltmp288:
	movb	%al, -193(%rbp)
	jmp	LBB125_5
LBB125_3:
	testb	$1, -25(%rbp)
	jne	LBB125_9
	jmp	LBB125_1
LBB125_4:
	leaq	-168(%rbp), %rdi
	callq	__ZN4core3ptr13drop_in_place17h1b2808805d903eb7E
	jmp	LBB125_3
LBB125_5:
	movb	-193(%rbp), %al
	movb	%al, -1(%rbp)
	movb	-1(%rbp), %cl
	movb	%cl, -152(%rbp)
	movb	$0, -25(%rbp)
	movq	-184(%rbp), %rdx
	movq	48(%rdx), %rsi
	movq	%rsi, -40(%rbp)
	movq	40(%rdx), %rsi
	movq	%rsi, -48(%rbp)
	movq	32(%rdx), %rsi
	movq	%rsi, -56(%rbp)
	movq	24(%rdx), %rsi
	movq	%rsi, -64(%rbp)
	movq	16(%rdx), %rsi
	movq	%rsi, -72(%rbp)
	movq	(%rdx), %rsi
	movq	8(%rdx), %rdi
	movq	%rdi, -80(%rbp)
	movq	%rsi, -88(%rbp)
Ltmp289:
	leaq	-144(%rbp), %rdi
	leaq	-88(%rbp), %rsi
	callq	__ZN4core4cell19UnsafeCell$LT$T$GT$3new17h980ad09218abf4eaE
Ltmp290:
	jmp	LBB125_6
LBB125_6:
	movq	-168(%rbp), %rax
	movq	-176(%rbp), %rcx
	movq	%rax, (%rcx)
	movb	-152(%rbp), %dl
	movb	%dl, 8(%rcx)
	movq	-96(%rbp), %rax
	movq	%rax, 64(%rcx)
	movq	-104(%rbp), %rax
	movq	%rax, 56(%rcx)
	movq	-112(%rbp), %rax
	movq	%rax, 48(%rcx)
	movq	-120(%rbp), %rax
	movq	%rax, 40(%rcx)
	movq	-128(%rbp), %rax
	movq	%rax, 32(%rcx)
	movq	-144(%rbp), %rax
	movq	-136(%rbp), %rsi
	movq	%rsi, 24(%rcx)
	movq	%rax, 16(%rcx)
	movq	(%rcx), %rdi
Ltmp292:
	callq	__ZN3std10sys_common5mutex5Mutex4init17h36490ff7b8c692f0E
Ltmp293:
	jmp	LBB125_7
LBB125_7:
	movq	-192(%rbp), %rax
	addq	$208, %rsp
	popq	%rbp
	retq
LBB125_8:
	movq	-176(%rbp), %rdi
	callq	__ZN4core3ptr13drop_in_place17h6dbf646c7fe0d45fE
	jmp	LBB125_3
LBB125_9:
	movb	$0, -25(%rbp)
	movq	-184(%rbp), %rdi
	callq	__ZN4core3ptr13drop_in_place17hdea2cd745cbc9224E
	jmp	LBB125_1
LBB125_10:
	movq	-160(%rbp), %rdi
	callq	__ZN5alloc5alloc8box_free17h0d8d247069881dafE
	jmp	LBB125_3
LBB125_11:
Ltmp286:
	movq	%rax, -24(%rbp)
	movl	%edx, -16(%rbp)
	jmp	LBB125_10
LBB125_12:
Ltmp291:
	movq	%rax, -24(%rbp)
	movl	%edx, -16(%rbp)
	jmp	LBB125_4
LBB125_13:
Ltmp294:
	movq	%rax, -24(%rbp)
	movl	%edx, -16(%rbp)
	jmp	LBB125_8
Lfunc_end37:
	.cfi_endproc
	.section	__TEXT,__gcc_except_tab
	.p2align	2
GCC_except_table125:
Lexception37:
	.byte	255
	.byte	255
	.byte	1
	.uleb128 Lcst_end37-Lcst_begin37
Lcst_begin37:
	.uleb128 Lfunc_begin37-Lfunc_begin37
	.uleb128 Ltmp284-Lfunc_begin37
	.byte	0
	.byte	0
	.uleb128 Ltmp284-Lfunc_begin37
	.uleb128 Ltmp285-Ltmp284
	.uleb128 Ltmp286-Lfunc_begin37
	.byte	0
	.uleb128 Ltmp285-Lfunc_begin37
	.uleb128 Ltmp287-Ltmp285
	.byte	0
	.byte	0
	.uleb128 Ltmp287-Lfunc_begin37
	.uleb128 Ltmp288-Ltmp287
	.uleb128 Ltmp291-Lfunc_begin37
	.byte	0
	.uleb128 Ltmp288-Lfunc_begin37
	.uleb128 Ltmp289-Ltmp288
	.byte	0
	.byte	0
	.uleb128 Ltmp289-Lfunc_begin37
	.uleb128 Ltmp290-Ltmp289
	.uleb128 Ltmp291-Lfunc_begin37
	.byte	0
	.uleb128 Ltmp292-Lfunc_begin37
	.uleb128 Ltmp293-Ltmp292
	.uleb128 Ltmp294-Lfunc_begin37
	.byte	0
	.uleb128 Ltmp293-Lfunc_begin37
	.uleb128 Lfunc_end37-Ltmp293
	.byte	0
	.byte	0
Lcst_end37:
	.p2align	2

	.section	__TEXT,__text,regular,pure_instructions
	.globl	__ZN3std4sync5mutex14Mutex$LT$T$GT$4lock17h4e38f840598dac3fE
	.p2align	4, 0x90
__ZN3std4sync5mutex14Mutex$LT$T$GT$4lock17h4e38f840598dac3fE:
	.cfi_startproc
	pushq	%rbp
	.cfi_def_cfa_offset 16
	.cfi_offset %rbp, -16
	movq	%rsp, %rbp
	.cfi_def_cfa_register %rbp
	subq	$32, %rsp
	movq	%rdi, %rax
	movq	(%rsi), %rcx
	movq	%rdi, -8(%rbp)
	movq	%rcx, %rdi
	movq	%rsi, -16(%rbp)
	movq	%rax, -24(%rbp)
	callq	__ZN3std10sys_common5mutex5Mutex8raw_lock17h48232c823797ac4aE
	movq	-8(%rbp), %rdi
	movq	-16(%rbp), %rsi
	callq	__ZN3std4sync5mutex19MutexGuard$LT$T$GT$3new17hbb3601df1959e32dE
	movq	-24(%rbp), %rax
	addq	$32, %rsp
	popq	%rbp
	retq
	.cfi_endproc

	.globl	__ZN3std4sync5mutex14Mutex$LT$T$GT$4lock17h800c0f7a8c44082cE
	.p2align	4, 0x90
__ZN3std4sync5mutex14Mutex$LT$T$GT$4lock17h800c0f7a8c44082cE:
	.cfi_startproc
	pushq	%rbp
	.cfi_def_cfa_offset 16
	.cfi_offset %rbp, -16
	movq	%rsp, %rbp
	.cfi_def_cfa_register %rbp
	subq	$32, %rsp
	movq	%rdi, %rax
	movq	(%rsi), %rcx
	movq	%rdi, -8(%rbp)
	movq	%rcx, %rdi
	movq	%rsi, -16(%rbp)
	movq	%rax, -24(%rbp)
	callq	__ZN3std10sys_common5mutex5Mutex8raw_lock17h48232c823797ac4aE
	movq	-8(%rbp), %rdi
	movq	-16(%rbp), %rsi
	callq	__ZN3std4sync5mutex19MutexGuard$LT$T$GT$3new17ha4b1c75fe3f3d82aE
	movq	-24(%rbp), %rax
	addq	$32, %rsp
	popq	%rbp
	retq
	.cfi_endproc

	.globl	__ZN3std4sync5mutex14Mutex$LT$T$GT$8try_lock17h4476b774ed127e02E
	.p2align	4, 0x90
__ZN3std4sync5mutex14Mutex$LT$T$GT$8try_lock17h4476b774ed127e02E:
Lfunc_begin38:
	.cfi_startproc
	.cfi_personality 155, _rust_eh_personality
	.cfi_lsda 16, Lexception38
	pushq	%rbp
	.cfi_def_cfa_offset 16
	.cfi_offset %rbp, -16
	movq	%rsp, %rbp
	.cfi_def_cfa_register %rbp
	subq	$128, %rsp
	movq	%rdi, %rax
	movq	(%rsi), %rcx
	movq	%rdi, -88(%rbp)
	movq	%rcx, %rdi
	movq	%rsi, -96(%rbp)
	movq	%rax, -104(%rbp)
	callq	__ZN3std10sys_common5mutex5Mutex8try_lock17h7e291e6f7bac1367E
	movb	%al, -105(%rbp)
	movb	-105(%rbp), %al
	testb	$1, %al
	jne	LBB128_3
	jmp	LBB128_2
LBB128_2:
	movb	$2, -24(%rbp)
	movq	-32(%rbp), %rax
	movb	-24(%rbp), %cl
	movq	-88(%rbp), %rdx
	movq	%rax, 8(%rdx)
	movb	%cl, 16(%rdx)
	movq	$1, (%rdx)
	jmp	LBB128_13
LBB128_3:
	leaq	-56(%rbp), %rdi
	movq	-96(%rbp), %rsi
	callq	__ZN3std4sync5mutex19MutexGuard$LT$T$GT$3new17hbb3601df1959e32dE
	leaq	-80(%rbp), %rdi
	leaq	-56(%rbp), %rsi
	callq	__ZN73_$LT$core..result..Result$LT$T$C$E$GT$$u20$as$u20$core..ops..try..Try$GT$11into_result17h7756bad7b6a2a319E
	movq	-80(%rbp), %rax
	testq	%rax, %rax
	je	LBB128_7
	jmp	LBB128_15
LBB128_15:
	jmp	LBB128_9
LBB128_6:
	movq	-16(%rbp), %rdi
	callq	__Unwind_Resume
	ud2
LBB128_7:
	movq	-72(%rbp), %rax
	movb	-64(%rbp), %cl
	movq	-88(%rbp), %rdx
	movq	%rax, 8(%rdx)
	andb	$1, %cl
	movb	%cl, 16(%rdx)
	movq	$0, (%rdx)
	jmp	LBB128_13
	ud2
LBB128_9:
	movq	-72(%rbp), %rdi
	movzbl	-64(%rbp), %esi
Ltmp295:
	callq	__ZN139_$LT$std..sys_common..poison..TryLockError$LT$T$GT$$u20$as$u20$core..convert..From$LT$std..sys_common..poison..PoisonError$LT$T$GT$$GT$$GT$4from17h0c13816ca044ef13E
Ltmp296:
	movb	%dl, -106(%rbp)
	movq	%rax, -120(%rbp)
	jmp	LBB128_11
LBB128_10:
	movq	-104(%rbp), %rax
	addq	$128, %rsp
	popq	%rbp
	retq
LBB128_11:
Ltmp297:
	movb	-106(%rbp), %al
	movzbl	%al, %edx
	movq	-88(%rbp), %rdi
	movq	-120(%rbp), %rsi
	callq	__ZN73_$LT$core..result..Result$LT$T$C$E$GT$$u20$as$u20$core..ops..try..Try$GT$10from_error17hf9161642b4c549c0E
Ltmp298:
	jmp	LBB128_12
LBB128_12:
	jmp	LBB128_10
LBB128_13:
	jmp	LBB128_10
LBB128_14:
Ltmp299:
	movq	%rax, -16(%rbp)
	movl	%edx, -8(%rbp)
	jmp	LBB128_6
Lfunc_end38:
	.cfi_endproc
	.section	__TEXT,__gcc_except_tab
	.p2align	2
GCC_except_table128:
Lexception38:
	.byte	255
	.byte	255
	.byte	1
	.uleb128 Lcst_end38-Lcst_begin38
Lcst_begin38:
	.uleb128 Lfunc_begin38-Lfunc_begin38
	.uleb128 Ltmp295-Lfunc_begin38
	.byte	0
	.byte	0
	.uleb128 Ltmp295-Lfunc_begin38
	.uleb128 Ltmp298-Ltmp295
	.uleb128 Ltmp299-Lfunc_begin38
	.byte	0
Lcst_end38:
	.p2align	2

	.section	__TEXT,__text,regular,pure_instructions
	.globl	__ZN3std4sync5mutex14Mutex$LT$T$GT$8try_lock17hf2987ec0618b2846E
	.p2align	4, 0x90
__ZN3std4sync5mutex14Mutex$LT$T$GT$8try_lock17hf2987ec0618b2846E:
Lfunc_begin39:
	.cfi_startproc
	.cfi_personality 155, _rust_eh_personality
	.cfi_lsda 16, Lexception39
	pushq	%rbp
	.cfi_def_cfa_offset 16
	.cfi_offset %rbp, -16
	movq	%rsp, %rbp
	.cfi_def_cfa_register %rbp
	subq	$128, %rsp
	movq	%rdi, %rax
	movq	(%rsi), %rcx
	movq	%rdi, -88(%rbp)
	movq	%rcx, %rdi
	movq	%rsi, -96(%rbp)
	movq	%rax, -104(%rbp)
	callq	__ZN3std10sys_common5mutex5Mutex8try_lock17h7e291e6f7bac1367E
	movb	%al, -105(%rbp)
	movb	-105(%rbp), %al
	testb	$1, %al
	jne	LBB129_3
	jmp	LBB129_2
LBB129_2:
	movb	$2, -24(%rbp)
	movq	-32(%rbp), %rax
	movb	-24(%rbp), %cl
	movq	-88(%rbp), %rdx
	movq	%rax, 8(%rdx)
	movb	%cl, 16(%rdx)
	movq	$1, (%rdx)
	jmp	LBB129_13
LBB129_3:
	leaq	-56(%rbp), %rdi
	movq	-96(%rbp), %rsi
	callq	__ZN3std4sync5mutex19MutexGuard$LT$T$GT$3new17ha4b1c75fe3f3d82aE
	leaq	-80(%rbp), %rdi
	leaq	-56(%rbp), %rsi
	callq	__ZN73_$LT$core..result..Result$LT$T$C$E$GT$$u20$as$u20$core..ops..try..Try$GT$11into_result17h98944c5b8a02d6a2E
	movq	-80(%rbp), %rax
	testq	%rax, %rax
	je	LBB129_7
	jmp	LBB129_15
LBB129_15:
	jmp	LBB129_9
LBB129_6:
	movq	-16(%rbp), %rdi
	callq	__Unwind_Resume
	ud2
LBB129_7:
	movq	-72(%rbp), %rax
	movb	-64(%rbp), %cl
	movq	-88(%rbp), %rdx
	movq	%rax, 8(%rdx)
	andb	$1, %cl
	movb	%cl, 16(%rdx)
	movq	$0, (%rdx)
	jmp	LBB129_13
	ud2
LBB129_9:
	movq	-72(%rbp), %rdi
	movzbl	-64(%rbp), %esi
Ltmp300:
	callq	__ZN139_$LT$std..sys_common..poison..TryLockError$LT$T$GT$$u20$as$u20$core..convert..From$LT$std..sys_common..poison..PoisonError$LT$T$GT$$GT$$GT$4from17hfde0d3c80ebe938eE
Ltmp301:
	movb	%dl, -106(%rbp)
	movq	%rax, -120(%rbp)
	jmp	LBB129_11
LBB129_10:
	movq	-104(%rbp), %rax
	addq	$128, %rsp
	popq	%rbp
	retq
LBB129_11:
Ltmp302:
	movb	-106(%rbp), %al
	movzbl	%al, %edx
	movq	-88(%rbp), %rdi
	movq	-120(%rbp), %rsi
	callq	__ZN73_$LT$core..result..Result$LT$T$C$E$GT$$u20$as$u20$core..ops..try..Try$GT$10from_error17ha979be658e53020cE
Ltmp303:
	jmp	LBB129_12
LBB129_12:
	jmp	LBB129_10
LBB129_13:
	jmp	LBB129_10
LBB129_14:
Ltmp304:
	movq	%rax, -16(%rbp)
	movl	%edx, -8(%rbp)
	jmp	LBB129_6
Lfunc_end39:
	.cfi_endproc
	.section	__TEXT,__gcc_except_tab
	.p2align	2
GCC_except_table129:
Lexception39:
	.byte	255
	.byte	255
	.byte	1
	.uleb128 Lcst_end39-Lcst_begin39
Lcst_begin39:
	.uleb128 Lfunc_begin39-Lfunc_begin39
	.uleb128 Ltmp300-Lfunc_begin39
	.byte	0
	.byte	0
	.uleb128 Ltmp300-Lfunc_begin39
	.uleb128 Ltmp303-Ltmp300
	.uleb128 Ltmp304-Lfunc_begin39
	.byte	0
Lcst_end39:
	.p2align	2

	.section	__TEXT,__text,regular,pure_instructions
	.globl	__ZN3std4sync5mutex19MutexGuard$LT$T$GT$3new17ha4b1c75fe3f3d82aE
	.p2align	4, 0x90
__ZN3std4sync5mutex19MutexGuard$LT$T$GT$3new17ha4b1c75fe3f3d82aE:
	.cfi_startproc
	pushq	%rbp
	.cfi_def_cfa_offset 16
	.cfi_offset %rbp, -16
	movq	%rsp, %rbp
	.cfi_def_cfa_register %rbp
	subq	$48, %rsp
	movq	%rdi, %rax
	movq	%rsi, -16(%rbp)
	movq	-16(%rbp), %rcx
	addq	$8, %rcx
	movq	%rdi, -24(%rbp)
	movq	%rcx, %rdi
	movq	%rax, -32(%rbp)
	callq	__ZN3std10sys_common6poison4Flag6borrow17h7305e4d508d47249E
	movb	%al, -33(%rbp)
	movb	%dl, -34(%rbp)
	leaq	-16(%rbp), %rax
	movq	%rax, -8(%rbp)
	movq	-8(%rbp), %rcx
	movb	-34(%rbp), %dl
	movzbl	%dl, %edx
	movb	-33(%rbp), %sil
	movzbl	%sil, %edi
	andl	$1, %edi
	movq	-24(%rbp), %rax
	movl	%edi, -40(%rbp)
	movq	%rax, %rdi
	movl	-40(%rbp), %esi
	callq	__ZN3std10sys_common6poison10map_result17h36ce01bef5479ea5E
	movq	-32(%rbp), %rax
	addq	$48, %rsp
	popq	%rbp
	retq
	.cfi_endproc

	.globl	__ZN3std4sync5mutex19MutexGuard$LT$T$GT$3new17hbb3601df1959e32dE
	.p2align	4, 0x90
__ZN3std4sync5mutex19MutexGuard$LT$T$GT$3new17hbb3601df1959e32dE:
	.cfi_startproc
	pushq	%rbp
	.cfi_def_cfa_offset 16
	.cfi_offset %rbp, -16
	movq	%rsp, %rbp
	.cfi_def_cfa_register %rbp
	subq	$48, %rsp
	movq	%rdi, %rax
	movq	%rsi, -16(%rbp)
	movq	-16(%rbp), %rcx
	addq	$8, %rcx
	movq	%rdi, -24(%rbp)
	movq	%rcx, %rdi
	movq	%rax, -32(%rbp)
	callq	__ZN3std10sys_common6poison4Flag6borrow17h7305e4d508d47249E
	movb	%al, -33(%rbp)
	movb	%dl, -34(%rbp)
	leaq	-16(%rbp), %rax
	movq	%rax, -8(%rbp)
	movq	-8(%rbp), %rcx
	movb	-34(%rbp), %dl
	movzbl	%dl, %edx
	movb	-33(%rbp), %sil
	movzbl	%sil, %edi
	andl	$1, %edi
	movq	-24(%rbp), %rax
	movl	%edi, -40(%rbp)
	movq	%rax, %rdi
	movl	-40(%rbp), %esi
	callq	__ZN3std10sys_common6poison10map_result17h9e7c598d2e2de60eE
	movq	-32(%rbp), %rax
	addq	$48, %rsp
	popq	%rbp
	retq
	.cfi_endproc

	.globl	__ZN3std4sync5mutex19MutexGuard$LT$T$GT$3new28_$u7b$$u7b$closure$u7d$$u7d$17h3ddfa0043885c324E
	.p2align	4, 0x90
__ZN3std4sync5mutex19MutexGuard$LT$T$GT$3new28_$u7b$$u7b$closure$u7d$$u7d$17h3ddfa0043885c324E:
	.cfi_startproc
	pushq	%rbp
	.cfi_def_cfa_offset 16
	.cfi_offset %rbp, -16
	movq	%rsp, %rbp
	.cfi_def_cfa_register %rbp
	subq	$16, %rsp
	movq	(%rdi), %rax
	movq	%rax, -16(%rbp)
	andb	$1, %sil
	movb	%sil, -8(%rbp)
	movq	-16(%rbp), %rax
	movb	-8(%rbp), %dl
	addq	$16, %rsp
	popq	%rbp
	retq
	.cfi_endproc

	.globl	__ZN3std4sync5mutex19MutexGuard$LT$T$GT$3new28_$u7b$$u7b$closure$u7d$$u7d$17h6e117b411a04fd7aE
	.p2align	4, 0x90
__ZN3std4sync5mutex19MutexGuard$LT$T$GT$3new28_$u7b$$u7b$closure$u7d$$u7d$17h6e117b411a04fd7aE:
	.cfi_startproc
	pushq	%rbp
	.cfi_def_cfa_offset 16
	.cfi_offset %rbp, -16
	movq	%rsp, %rbp
	.cfi_def_cfa_register %rbp
	subq	$16, %rsp
	movq	(%rdi), %rax
	movq	%rax, -16(%rbp)
	andb	$1, %sil
	movb	%sil, -8(%rbp)
	movq	-16(%rbp), %rax
	movb	-8(%rbp), %dl
	addq	$16, %rsp
	popq	%rbp
	retq
	.cfi_endproc

	.p2align	4, 0x90
__ZN3std5error161_$LT$impl$u20$core..convert..From$LT$$RF$str$GT$$u20$for$u20$alloc..boxed..Box$LT$dyn$u20$std..error..Error$u2b$core..marker..Sync$u2b$core..marker..Send$GT$$GT$4from17hfffc200df8971749E:
	.cfi_startproc
	pushq	%rbp
	.cfi_def_cfa_offset 16
	.cfi_offset %rbp, -16
	movq	%rsp, %rbp
	.cfi_def_cfa_register %rbp
	subq	$64, %rsp
	leaq	-24(%rbp), %rax
	movq	%rdi, -32(%rbp)
	movq	%rax, %rdi
	movq	-32(%rbp), %rax
	movq	%rsi, -40(%rbp)
	movq	%rax, %rsi
	movq	-40(%rbp), %rdx
	callq	__ZN76_$LT$alloc..string..String$u20$as$u20$core..convert..From$LT$$RF$str$GT$$GT$4from17ha8cdfebfb35aa10cE
	leaq	-24(%rbp), %rdi
	callq	__ZN3std5error175_$LT$impl$u20$core..convert..From$LT$alloc..string..String$GT$$u20$for$u20$alloc..boxed..Box$LT$dyn$u20$std..error..Error$u2b$core..marker..Sync$u2b$core..marker..Send$GT$$GT$4from17h12cb054ee1a46c71E
	movq	%rax, -48(%rbp)
	movq	%rdx, -56(%rbp)
	movq	-48(%rbp), %rax
	movq	-56(%rbp), %rdx
	addq	$64, %rsp
	popq	%rbp
	retq
	.cfi_endproc

	.p2align	4, 0x90
__ZN3std5error175_$LT$impl$u20$core..convert..From$LT$alloc..string..String$GT$$u20$for$u20$alloc..boxed..Box$LT$dyn$u20$std..error..Error$u2b$core..marker..Sync$u2b$core..marker..Send$GT$$GT$4from17h12cb054ee1a46c71E:
	.cfi_startproc
	pushq	%rbp
	.cfi_def_cfa_offset 16
	.cfi_offset %rbp, -16
	movq	%rsp, %rbp
	.cfi_def_cfa_register %rbp
	subq	$64, %rsp
	movq	(%rdi), %rax
	movq	%rax, -24(%rbp)
	movq	8(%rdi), %rax
	movq	%rax, -16(%rbp)
	movq	16(%rdi), %rax
	movq	%rax, -8(%rbp)
	movq	-24(%rbp), %rax
	movq	%rax, -48(%rbp)
	movq	-16(%rbp), %rax
	movq	%rax, -40(%rbp)
	movq	-8(%rbp), %rax
	movq	%rax, -32(%rbp)
	movl	$24, %edi
	movl	$8, %esi
	callq	__ZN5alloc5alloc15exchange_malloc17hd6df31ee9f96363bE
	movq	%rax, %rcx
	movq	-48(%rbp), %rdx
	movq	%rdx, (%rax)
	movq	-40(%rbp), %rdx
	movq	%rdx, 8(%rax)
	movq	-32(%rbp), %rdx
	movq	%rdx, 16(%rax)
	movq	%rcx, -56(%rbp)
	leaq	l___unnamed_14(%rip), %rdx
	movq	-56(%rbp), %rax
	addq	$64, %rsp
	popq	%rbp
	retq
	.cfi_endproc

	.globl	__ZN3std5error5Error5cause17hb7ac7f0db2ec40a3E
	.p2align	4, 0x90
__ZN3std5error5Error5cause17hb7ac7f0db2ec40a3E:
	.cfi_startproc
	pushq	%rbp
	.cfi_def_cfa_offset 16
	.cfi_offset %rbp, -16
	movq	%rsp, %rbp
	.cfi_def_cfa_register %rbp
	subq	$16, %rsp
	callq	__ZN3std5error5Error6source17h348cb2c81a0f221aE
	movq	%rax, -8(%rbp)
	movq	%rdx, -16(%rbp)
	movq	-8(%rbp), %rax
	movq	-16(%rbp), %rdx
	addq	$16, %rsp
	popq	%rbp
	retq
	.cfi_endproc

	.globl	__ZN3std5error5Error6source17h348cb2c81a0f221aE
	.p2align	4, 0x90
__ZN3std5error5Error6source17h348cb2c81a0f221aE:
	.cfi_startproc
	pushq	%rbp
	.cfi_def_cfa_offset 16
	.cfi_offset %rbp, -16
	movq	%rsp, %rbp
	.cfi_def_cfa_register %rbp
	subq	$16, %rsp
	movq	$0, -16(%rbp)
	movq	-16(%rbp), %rax
	movq	-8(%rbp), %rdx
	addq	$16, %rsp
	popq	%rbp
	retq
	.cfi_endproc

	.globl	__ZN3std5error5Error7type_id17hc33395231401f588E
	.p2align	4, 0x90
__ZN3std5error5Error7type_id17hc33395231401f588E:
	.cfi_startproc
	pushq	%rbp
	.cfi_def_cfa_offset 16
	.cfi_offset %rbp, -16
	movq	%rsp, %rbp
	.cfi_def_cfa_register %rbp
	subq	$16, %rsp
	movq	%rdi, -8(%rbp)
	callq	__ZN4core3any6TypeId2of17h70a20d655e1f3f70E
	movq	%rax, -16(%rbp)
	movq	-16(%rbp), %rax
	addq	$16, %rsp
	popq	%rbp
	retq
	.cfi_endproc

	.globl	__ZN3std5error5Error9backtrace17h8688b4b849ff6213E
	.p2align	4, 0x90
__ZN3std5error5Error9backtrace17h8688b4b849ff6213E:
	.cfi_startproc
	pushq	%rbp
	.cfi_def_cfa_offset 16
	.cfi_offset %rbp, -16
	movq	%rsp, %rbp
	.cfi_def_cfa_register %rbp
	xorl	%eax, %eax
	popq	%rbp
	retq
	.cfi_endproc

	.globl	__ZN3std5panic12catch_unwind17h164b195f81d9163eE
	.p2align	4, 0x90
__ZN3std5panic12catch_unwind17h164b195f81d9163eE:
	.cfi_startproc
	pushq	%rbp
	.cfi_def_cfa_offset 16
	.cfi_offset %rbp, -16
	movq	%rsp, %rbp
	.cfi_def_cfa_register %rbp
	subq	$80, %rsp
	leaq	-40(%rbp), %rax
	movq	%rax, %rcx
	movq	%rdi, -48(%rbp)
	movq	%rcx, %rdi
	movq	-48(%rbp), %rsi
	movl	$40, %edx
	movq	%rax, -56(%rbp)
	callq	_memcpy
	movq	-56(%rbp), %rdi
	callq	__ZN3std9panicking3try17ha6d2ba4618f6706eE
	movq	%rax, -64(%rbp)
	movq	%rdx, -72(%rbp)
	movq	-64(%rbp), %rax
	movq	-72(%rbp), %rdx
	addq	$80, %rsp
	popq	%rbp
	retq
	.cfi_endproc

	.p2align	4, 0x90
__ZN3std6memchr6memchr17h9cdd4bb99bdd0315E:
	.cfi_startproc
	pushq	%rbp
	.cfi_def_cfa_offset 16
	.cfi_offset %rbp, -16
	movq	%rsp, %rbp
	.cfi_def_cfa_register %rbp
	subq	$16, %rsp
	movzbl	%dil, %edi
	callq	__ZN3std3sys4unix6memchr6memchr17h5e289f47beba2850E
	movq	%rax, -8(%rbp)
	movq	%rdx, -16(%rbp)
	movq	-8(%rbp), %rax
	movq	-16(%rbp), %rdx
	addq	$16, %rsp
	popq	%rbp
	retq
	.cfi_endproc

	.globl	__ZN3std6thread18JoinInner$LT$T$GT$4join17h920956d7ed9b2517E
	.p2align	4, 0x90
__ZN3std6thread18JoinInner$LT$T$GT$4join17h920956d7ed9b2517E:
	.cfi_startproc
	pushq	%rbp
	.cfi_def_cfa_offset 16
	.cfi_offset %rbp, -16
	movq	%rsp, %rbp
	.cfi_def_cfa_register %rbp
	subq	$96, %rsp
	movq	%rdi, %rax
	movq	%rdi, -32(%rbp)
	movq	%rax, %rdi
	callq	__ZN4core6option15Option$LT$T$GT$4take17hd9f4d3b40d202d82E
	movq	%rax, -40(%rbp)
	movq	%rdx, -48(%rbp)
	leaq	l___unnamed_15(%rip), %rax
	movq	-40(%rbp), %rdi
	movq	-48(%rbp), %rsi
	movq	%rax, %rdx
	callq	__ZN4core6option15Option$LT$T$GT$6unwrap17hf46b2112f0dedd4bE
	movq	%rax, -56(%rbp)
	movq	-56(%rbp), %rdi
	callq	__ZN3std3sys4unix6thread6Thread4join17hbb1521d1113b6598E
	movq	-32(%rbp), %rax
	addq	$24, %rax
	movq	%rax, %rdi
	callq	__ZN69_$LT$alloc..sync..Arc$LT$T$GT$$u20$as$u20$core..ops..deref..Deref$GT$5deref17h626a7be44e3dd3f9E
	movq	%rax, -64(%rbp)
	movq	-64(%rbp), %rdi
	callq	__ZN4core4cell19UnsafeCell$LT$T$GT$3get17h6fe5af6f5f7053d6E
	movq	%rax, -72(%rbp)
	leaq	-24(%rbp), %rdi
	movq	-72(%rbp), %rsi
	callq	__ZN4core6option15Option$LT$T$GT$4take17ha1c341ce6360fa6bE
	leaq	l___unnamed_16(%rip), %rax
	leaq	-24(%rbp), %rdi
	movq	%rax, %rsi
	callq	__ZN4core6option15Option$LT$T$GT$6unwrap17ha892f4931c4b0b76E
	movq	%rax, -80(%rbp)
	movq	%rdx, -88(%rbp)
	movq	-80(%rbp), %rax
	movq	-88(%rbp), %rdx
	addq	$96, %rsp
	popq	%rbp
	retq
	.cfi_endproc

	.globl	__ZN3std6thread19JoinHandle$LT$T$GT$4join17h24a8d767bd9ade3eE
	.p2align	4, 0x90
__ZN3std6thread19JoinHandle$LT$T$GT$4join17h24a8d767bd9ade3eE:
Lfunc_begin40:
	.cfi_startproc
	.cfi_personality 155, _rust_eh_personality
	.cfi_lsda 16, Lexception40
	pushq	%rbp
	.cfi_def_cfa_offset 16
	.cfi_offset %rbp, -16
	movq	%rsp, %rbp
	.cfi_def_cfa_register %rbp
	subq	$48, %rsp
Ltmp305:
	movq	%rdi, -24(%rbp)
	callq	__ZN3std6thread18JoinInner$LT$T$GT$4join17h920956d7ed9b2517E
Ltmp306:
	movq	%rdx, -32(%rbp)
	movq	%rax, -40(%rbp)
	jmp	LBB143_2
LBB143_1:
	movq	-16(%rbp), %rdi
	callq	__Unwind_Resume
	ud2
LBB143_2:
	movq	-24(%rbp), %rdi
	callq	__ZN4core3ptr13drop_in_place17h98c6e9d3beff8f3eE
	jmp	LBB143_4
LBB143_3:
	movq	-24(%rbp), %rdi
	callq	__ZN4core3ptr13drop_in_place17h98c6e9d3beff8f3eE
	jmp	LBB143_1
LBB143_4:
	movq	-40(%rbp), %rax
	movq	-32(%rbp), %rdx
	addq	$48, %rsp
	popq	%rbp
	retq
LBB143_5:
Ltmp307:
	movq	%rax, -16(%rbp)
	movl	%edx, -8(%rbp)
	jmp	LBB143_3
Lfunc_end40:
	.cfi_endproc
	.section	__TEXT,__gcc_except_tab
	.p2align	2
GCC_except_table143:
Lexception40:
	.byte	255
	.byte	255
	.byte	1
	.uleb128 Lcst_end40-Lcst_begin40
Lcst_begin40:
	.uleb128 Ltmp305-Lfunc_begin40
	.uleb128 Ltmp306-Ltmp305
	.uleb128 Ltmp307-Lfunc_begin40
	.byte	0
	.uleb128 Ltmp306-Lfunc_begin40
	.uleb128 Lfunc_end40-Ltmp306
	.byte	0
	.byte	0
Lcst_end40:
	.p2align	2

	.section	__TEXT,__text,regular,pure_instructions
	.globl	__ZN3std6thread5local17LocalKey$LT$T$GT$4with17h178ea860f9efb691E
	.p2align	4, 0x90
__ZN3std6thread5local17LocalKey$LT$T$GT$4with17h178ea860f9efb691E:
	.cfi_startproc
	pushq	%rbp
	.cfi_def_cfa_offset 16
	.cfi_offset %rbp, -16
	movq	%rsp, %rbp
	.cfi_def_cfa_register %rbp
	subq	$48, %rsp
	leaq	-24(%rbp), %rax
	movq	%rdi, -32(%rbp)
	movq	%rax, %rdi
	movq	-32(%rbp), %rsi
	callq	__ZN3std6thread5local17LocalKey$LT$T$GT$8try_with17h6806ff24752f8bc7E
	leaq	l___unnamed_17(%rip), %rax
	leaq	l___unnamed_18(%rip), %rcx
	leaq	-24(%rbp), %rdi
	movq	%rax, %rsi
	movl	$70, %edx
	callq	__ZN4core6result19Result$LT$T$C$E$GT$6expect17h31e260916356bb34E
	movq	%rax, -40(%rbp)
	movq	%rdx, -48(%rbp)
	movq	-40(%rbp), %rax
	movq	-48(%rbp), %rdx
	addq	$48, %rsp
	popq	%rbp
	retq
	.cfi_endproc

	.globl	__ZN3std6thread5local17LocalKey$LT$T$GT$8try_with17h6806ff24752f8bc7E
	.p2align	4, 0x90
__ZN3std6thread5local17LocalKey$LT$T$GT$8try_with17h6806ff24752f8bc7E:
Lfunc_begin41:
	.cfi_startproc
	.cfi_personality 155, _rust_eh_personality
	.cfi_lsda 16, Lexception41
	pushq	%rbp
	.cfi_def_cfa_offset 16
	.cfi_offset %rbp, -16
	movq	%rsp, %rbp
	.cfi_def_cfa_register %rbp
	subq	$96, %rsp
	movq	%rdi, %rax
	movb	$0, -17(%rbp)
	movb	$1, -17(%rbp)
	movq	(%rsi), %rcx
Ltmp308:
	movq	%rdi, -48(%rbp)
	movq	%rax, -56(%rbp)
	callq	*%rcx
Ltmp309:
	movq	%rax, -64(%rbp)
	jmp	LBB145_2
LBB145_1:
	movq	-16(%rbp), %rdi
	callq	__Unwind_Resume
	ud2
LBB145_2:
Ltmp310:
	movq	-64(%rbp), %rdi
	callq	__ZN4core6option15Option$LT$T$GT$5ok_or17hbc00750eeeaf40b7E
Ltmp311:
	movq	%rax, -72(%rbp)
	jmp	LBB145_3
LBB145_3:
Ltmp312:
	movq	-72(%rbp), %rdi
	callq	__ZN73_$LT$core..result..Result$LT$T$C$E$GT$$u20$as$u20$core..ops..try..Try$GT$11into_result17h057208bd63fefb07E
Ltmp313:
	movq	%rax, -80(%rbp)
	jmp	LBB145_4
LBB145_4:
	movq	-80(%rbp), %rax
	movq	%rax, -40(%rbp)
	movq	-40(%rbp), %rcx
	testq	%rcx, %rcx
	sete	%dl
	movzbl	%dl, %esi
	movl	%esi, %ecx
	jne	LBB145_5
	jmp	LBB145_15
LBB145_15:
	jmp	LBB145_7
LBB145_5:
	movq	-40(%rbp), %rax
	movb	$0, -17(%rbp)
	movq	%rax, -32(%rbp)
	movq	-32(%rbp), %rdi
Ltmp318:
	callq	__ZN3std11collections4hash3map11RandomState3new28_$u7b$$u7b$closure$u7d$$u7d$17h751c579e4c0c7d32E
Ltmp319:
	movq	%rdx, -88(%rbp)
	movq	%rax, -96(%rbp)
	jmp	LBB145_11
	ud2
LBB145_7:
Ltmp314:
	callq	__ZN50_$LT$T$u20$as$u20$core..convert..From$LT$T$GT$$GT$4from17h5aea72bc6448b127E
Ltmp315:
	jmp	LBB145_9
LBB145_8:
	movq	-56(%rbp), %rax
	addq	$96, %rsp
	popq	%rbp
	retq
LBB145_9:
Ltmp316:
	movq	-48(%rbp), %rdi
	callq	__ZN73_$LT$core..result..Result$LT$T$C$E$GT$$u20$as$u20$core..ops..try..Try$GT$10from_error17hbc764fdfc6ee8e77E
Ltmp317:
	jmp	LBB145_10
LBB145_10:
	movb	$0, -17(%rbp)
	jmp	LBB145_8
LBB145_11:
	movq	-48(%rbp), %rax
	movq	-96(%rbp), %rcx
	movq	%rcx, 8(%rax)
	movq	-88(%rbp), %rcx
	movq	%rcx, 16(%rax)
	movq	$0, (%rax)
	jmp	LBB145_8
LBB145_12:
	movb	$0, -17(%rbp)
	jmp	LBB145_1
LBB145_13:
	testb	$1, -17(%rbp)
	jne	LBB145_12
	jmp	LBB145_1
LBB145_14:
Ltmp320:
	movq	%rax, -16(%rbp)
	movl	%edx, -8(%rbp)
	jmp	LBB145_13
Lfunc_end41:
	.cfi_endproc
	.section	__TEXT,__gcc_except_tab
	.p2align	2
GCC_except_table145:
Lexception41:
	.byte	255
	.byte	255
	.byte	1
	.uleb128 Lcst_end41-Lcst_begin41
Lcst_begin41:
	.uleb128 Ltmp308-Lfunc_begin41
	.uleb128 Ltmp309-Ltmp308
	.uleb128 Ltmp320-Lfunc_begin41
	.byte	0
	.uleb128 Ltmp309-Lfunc_begin41
	.uleb128 Ltmp310-Ltmp309
	.byte	0
	.byte	0
	.uleb128 Ltmp310-Lfunc_begin41
	.uleb128 Ltmp317-Ltmp310
	.uleb128 Ltmp320-Lfunc_begin41
	.byte	0
Lcst_end41:
	.p2align	2

	.section	__TEXT,__text,regular,pure_instructions
	.globl	__ZN3std6thread5spawn17hb822c84d2b03e90dE
	.p2align	4, 0x90
__ZN3std6thread5spawn17hb822c84d2b03e90dE:
Lfunc_begin42:
	.cfi_startproc
	.cfi_personality 155, _rust_eh_personality
	.cfi_lsda 16, Lexception42
	pushq	%rbp
	.cfi_def_cfa_offset 16
	.cfi_offset %rbp, -16
	movq	%rsp, %rbp
	.cfi_def_cfa_register %rbp
	subq	$176, %rsp
	movq	%rdi, %rax
	movb	$0, -17(%rbp)
	movb	$1, -17(%rbp)
Ltmp321:
	leaq	-104(%rbp), %rcx
	movq	%rdi, -152(%rbp)
	movq	%rcx, %rdi
	movq	%rsi, -160(%rbp)
	movq	%rax, -168(%rbp)
	callq	__ZN3std6thread7Builder3new17hdf465f36ecb1e0a5E
Ltmp322:
	jmp	LBB146_2
LBB146_1:
	movq	-16(%rbp), %rdi
	callq	__Unwind_Resume
	ud2
LBB146_2:
	movb	$0, -17(%rbp)
	movq	-160(%rbp), %rax
	movq	32(%rax), %rcx
	movq	%rcx, -32(%rbp)
	movq	24(%rax), %rcx
	movq	%rcx, -40(%rbp)
	movq	16(%rax), %rcx
	movq	%rcx, -48(%rbp)
	movq	(%rax), %rcx
	movq	8(%rax), %rdx
	movq	%rdx, -56(%rbp)
	movq	%rcx, -64(%rbp)
Ltmp323:
	leaq	-144(%rbp), %rdi
	leaq	-104(%rbp), %rsi
	leaq	-64(%rbp), %rdx
	callq	__ZN3std6thread7Builder5spawn17h193a1d6d7a27447eE
Ltmp324:
	jmp	LBB146_3
LBB146_3:
Ltmp325:
	leaq	l___unnamed_19(%rip), %rdx
	leaq	l___unnamed_20(%rip), %r8
	leaq	-144(%rbp), %rsi
	movl	$22, %ecx
	movq	-152(%rbp), %rdi
	callq	__ZN4core6result19Result$LT$T$C$E$GT$6expect17h7cfad4701fb78f0aE
Ltmp326:
	jmp	LBB146_4
LBB146_4:
	movq	-168(%rbp), %rax
	addq	$176, %rsp
	popq	%rbp
	retq
LBB146_5:
	movb	$0, -17(%rbp)
	movq	-160(%rbp), %rdi
	callq	__ZN4core3ptr13drop_in_place17hb10b1a7220535c9cE
	jmp	LBB146_1
LBB146_6:
	testb	$1, -17(%rbp)
	jne	LBB146_5
	jmp	LBB146_1
LBB146_7:
Ltmp327:
	movq	%rax, -16(%rbp)
	movl	%edx, -8(%rbp)
	jmp	LBB146_6
Lfunc_end42:
	.cfi_endproc
	.section	__TEXT,__gcc_except_tab
	.p2align	2
GCC_except_table146:
Lexception42:
	.byte	255
	.byte	255
	.byte	1
	.uleb128 Lcst_end42-Lcst_begin42
Lcst_begin42:
	.uleb128 Ltmp321-Lfunc_begin42
	.uleb128 Ltmp322-Ltmp321
	.uleb128 Ltmp327-Lfunc_begin42
	.byte	0
	.uleb128 Ltmp322-Lfunc_begin42
	.uleb128 Ltmp323-Ltmp322
	.byte	0
	.byte	0
	.uleb128 Ltmp323-Lfunc_begin42
	.uleb128 Ltmp326-Ltmp323
	.uleb128 Ltmp327-Lfunc_begin42
	.byte	0
	.uleb128 Ltmp326-Lfunc_begin42
	.uleb128 Lfunc_end42-Ltmp326
	.byte	0
	.byte	0
Lcst_end42:
	.p2align	2

	.section	__TEXT,__text,regular,pure_instructions
	.globl	__ZN3std6thread7Builder15spawn_unchecked17h8654a221bdef58e8E
	.p2align	4, 0x90
__ZN3std6thread7Builder15spawn_unchecked17h8654a221bdef58e8E:
Lfunc_begin43:
	.cfi_startproc
	.cfi_personality 155, _rust_eh_personality
	.cfi_lsda 16, Lexception43
	pushq	%rbp
	.cfi_def_cfa_offset 16
	.cfi_offset %rbp, -16
	movq	%rsp, %rbp
	.cfi_def_cfa_register %rbp
	subq	$560, %rsp
	movq	%rdi, %rax
	movb	$0, -33(%rbp)
	movb	$0, -35(%rbp)
	movb	$0, -34(%rbp)
	movb	$1, -35(%rbp)
	movb	$1, -34(%rbp)
	movq	16(%rsi), %rcx
	movq	%rcx, -440(%rbp)
	movq	(%rsi), %rcx
	movq	8(%rsi), %r8
	movq	%r8, -448(%rbp)
	movq	%rcx, -456(%rbp)
	movq	24(%rsi), %rcx
	movq	32(%rsi), %rsi
Ltmp328:
	movq	%rdi, -464(%rbp)
	movq	%rcx, %rdi
	movq	%rdx, -472(%rbp)
	movq	%rax, -480(%rbp)
	callq	__ZN4core6option15Option$LT$T$GT$14unwrap_or_else17h2bc85794dbea3015E
Ltmp329:
	movq	%rax, -488(%rbp)
	jmp	LBB147_1
LBB147_1:
	movb	$0, -34(%rbp)
	movq	-440(%rbp), %rax
	movq	%rax, -408(%rbp)
	movq	-456(%rbp), %rax
	movq	-448(%rbp), %rcx
	movq	%rcx, -416(%rbp)
	movq	%rax, -424(%rbp)
Ltmp330:
	leaq	-424(%rbp), %rdi
	callq	__ZN3std6thread6Thread3new17h16396374d8ac7f40E
Ltmp331:
	movq	%rax, -496(%rbp)
	jmp	LBB147_4
LBB147_2:
	movq	-32(%rbp), %rdi
	callq	__Unwind_Resume
	ud2
LBB147_3:
	testb	$1, -35(%rbp)
	jne	LBB147_27
	jmp	LBB147_2
LBB147_4:
	movq	-496(%rbp), %rax
	movq	%rax, -432(%rbp)
Ltmp333:
	leaq	-432(%rbp), %rdi
	callq	__ZN58_$LT$std..thread..Thread$u20$as$u20$core..clone..Clone$GT$5clone17ha308f1570a1029f8E
Ltmp334:
	movq	%rax, -504(%rbp)
	jmp	LBB147_5
LBB147_5:
	movq	-504(%rbp), %rax
	movq	%rax, -400(%rbp)
	movb	$1, -33(%rbp)
	movq	$0, -360(%rbp)
Ltmp336:
	leaq	-384(%rbp), %rdi
	leaq	-360(%rbp), %rsi
	callq	__ZN4core4cell19UnsafeCell$LT$T$GT$3new17h39aba68d67c14114E
Ltmp337:
	jmp	LBB147_7
LBB147_6:
	leaq	-432(%rbp), %rdi
	callq	__ZN4core3ptr13drop_in_place17hfdc68ca9ab4cf2d9E
	jmp	LBB147_29
LBB147_7:
Ltmp338:
	leaq	-384(%rbp), %rdi
	callq	__ZN5alloc4sync12Arc$LT$T$GT$3new17hce4a514261df8fefE
Ltmp339:
	movq	%rax, -512(%rbp)
	jmp	LBB147_8
LBB147_8:
	movq	-512(%rbp), %rax
	movq	%rax, -392(%rbp)
Ltmp341:
	leaq	-392(%rbp), %rdi
	callq	__ZN64_$LT$alloc..sync..Arc$LT$T$GT$$u20$as$u20$core..clone..Clone$GT$5clone17h57e3ab3be340db4eE
Ltmp342:
	movq	%rax, -520(%rbp)
	jmp	LBB147_9
LBB147_9:
	movb	$0, -33(%rbp)
	movb	$0, -35(%rbp)
	movq	-400(%rbp), %rax
	movq	%rax, -336(%rbp)
	movq	-472(%rbp), %rax
	movq	32(%rax), %rcx
	movq	%rcx, -296(%rbp)
	movq	24(%rax), %rcx
	movq	%rcx, -304(%rbp)
	movq	16(%rax), %rcx
	movq	%rcx, -312(%rbp)
	movq	(%rax), %rcx
	movq	8(%rax), %rdx
	movq	%rdx, -320(%rbp)
	movq	%rcx, -328(%rbp)
	movq	-520(%rbp), %rcx
	movq	%rcx, -288(%rbp)
	movq	-288(%rbp), %rdx
	movq	%rdx, -104(%rbp)
	movq	-296(%rbp), %rdx
	movq	%rdx, -112(%rbp)
	movq	-304(%rbp), %rdx
	movq	%rdx, -120(%rbp)
	movq	-312(%rbp), %rdx
	movq	%rdx, -128(%rbp)
	movq	-320(%rbp), %rdx
	movq	%rdx, -136(%rbp)
	movq	-336(%rbp), %rdx
	movq	-328(%rbp), %rsi
	movq	%rsi, -144(%rbp)
	movq	%rdx, -152(%rbp)
Ltmp343:
	movl	$56, %edi
	movl	$8, %esi
	callq	__ZN5alloc5alloc15exchange_malloc17hd6df31ee9f96363bE
Ltmp344:
	movq	%rax, -528(%rbp)
	jmp	LBB147_10
LBB147_10:
	movq	-528(%rbp), %rax
	leaq	-152(%rbp), %rcx
	movq	-528(%rbp), %rdi
	movq	%rcx, %rsi
	movl	$56, %edx
	movq	%rax, -536(%rbp)
	callq	_memcpy
	jmp	LBB147_12
LBB147_11:
	leaq	-392(%rbp), %rdi
	callq	__ZN4core3ptr13drop_in_place17hc7808b9bbd8ae519E
	jmp	LBB147_31
LBB147_12:
	leaq	l___unnamed_21(%rip), %rax
	movq	-536(%rbp), %rcx
	movq	%rcx, -16(%rbp)
	movq	%rax, -8(%rbp)
	movq	-16(%rbp), %rdx
	movq	-8(%rbp), %rcx
	movq	%rdx, -544(%rbp)
	movq	%rcx, -552(%rbp)
Ltmp345:
	leaq	-176(%rbp), %rdi
	movq	-488(%rbp), %rsi
	movq	-544(%rbp), %rdx
	movq	-552(%rbp), %rcx
	callq	__ZN3std3sys4unix6thread6Thread3new17h73b3d35d828c303bE
Ltmp346:
	jmp	LBB147_14
LBB147_14:
Ltmp347:
	leaq	-200(%rbp), %rdi
	leaq	-176(%rbp), %rsi
	callq	__ZN73_$LT$core..result..Result$LT$T$C$E$GT$$u20$as$u20$core..ops..try..Try$GT$11into_result17hdc016cfaa44fbed5E
Ltmp348:
	jmp	LBB147_15
LBB147_15:
	movq	-200(%rbp), %rax
	testq	%rax, %rax
	je	LBB147_19
	jmp	LBB147_39
LBB147_39:
	jmp	LBB147_21
LBB147_16:
	jmp	LBB147_3
LBB147_17:
	leaq	-432(%rbp), %rdi
	callq	__ZN4core3ptr13drop_in_place17hfdc68ca9ab4cf2d9E
	jmp	LBB147_16
LBB147_18:
	leaq	-392(%rbp), %rdi
	callq	__ZN4core3ptr13drop_in_place17hc7808b9bbd8ae519E
	jmp	LBB147_17
LBB147_19:
	movq	-192(%rbp), %rax
	movq	%rax, -208(%rbp)
	movq	$1, -216(%rbp)
	movq	-432(%rbp), %rax
	movq	-392(%rbp), %rcx
	movq	%rcx, -48(%rbp)
	movq	-216(%rbp), %rcx
	movq	-208(%rbp), %rdx
	movq	%rcx, -248(%rbp)
	movq	%rdx, -240(%rbp)
	movq	%rax, -232(%rbp)
	movq	-48(%rbp), %rax
	movq	%rax, -224(%rbp)
	movq	-248(%rbp), %rax
	movq	%rax, -280(%rbp)
	movq	-240(%rbp), %rax
	movq	%rax, -272(%rbp)
	movq	-232(%rbp), %rax
	movq	%rax, -264(%rbp)
	movq	-224(%rbp), %rax
	movq	%rax, -256(%rbp)
	movq	-280(%rbp), %rax
	movq	-464(%rbp), %rcx
	movq	%rax, 8(%rcx)
	movq	-272(%rbp), %rax
	movq	%rax, 16(%rcx)
	movq	-264(%rbp), %rax
	movq	%rax, 24(%rcx)
	movq	-256(%rbp), %rax
	movq	%rax, 32(%rcx)
	movq	$0, (%rcx)
	movb	$0, -33(%rbp)
	movb	$0, -34(%rbp)
	jmp	LBB147_22
	ud2
LBB147_21:
	movq	-192(%rbp), %rax
	movq	-184(%rbp), %rcx
	movq	%rcx, -88(%rbp)
	movq	%rax, -96(%rbp)
	movq	-96(%rbp), %rax
	movq	-88(%rbp), %rcx
	movq	%rcx, -56(%rbp)
	movq	%rax, -64(%rbp)
Ltmp350:
	leaq	-80(%rbp), %rdi
	leaq	-64(%rbp), %rsi
	callq	__ZN50_$LT$T$u20$as$u20$core..convert..From$LT$T$GT$$GT$4from17h39d49f2ca74f2887E
Ltmp351:
	jmp	LBB147_23
LBB147_22:
	movq	-480(%rbp), %rax
	addq	$560, %rsp
	popq	%rbp
	retq
LBB147_23:
Ltmp352:
	leaq	-80(%rbp), %rsi
	movq	-464(%rbp), %rdi
	callq	__ZN73_$LT$core..result..Result$LT$T$C$E$GT$$u20$as$u20$core..ops..try..Try$GT$10from_error17hc588f0fa2a98ed5dE
Ltmp353:
	jmp	LBB147_24
LBB147_24:
Ltmp355:
	leaq	-392(%rbp), %rdi
	callq	__ZN4core3ptr13drop_in_place17hc7808b9bbd8ae519E
Ltmp356:
	jmp	LBB147_25
LBB147_25:
	movb	$0, -33(%rbp)
Ltmp358:
	leaq	-432(%rbp), %rdi
	callq	__ZN4core3ptr13drop_in_place17hfdc68ca9ab4cf2d9E
Ltmp359:
	jmp	LBB147_26
LBB147_26:
	movb	$0, -34(%rbp)
	jmp	LBB147_22
LBB147_27:
	movb	$0, -35(%rbp)
	movq	-472(%rbp), %rdi
	callq	__ZN4core3ptr13drop_in_place17hb10b1a7220535c9cE
	jmp	LBB147_2
LBB147_28:
	movb	$0, -34(%rbp)
	leaq	-456(%rbp), %rdi
	callq	__ZN4core3ptr13drop_in_place17hceb2854f6f6fdc38E
	jmp	LBB147_3
LBB147_29:
	testb	$1, -34(%rbp)
	jne	LBB147_28
	jmp	LBB147_3
LBB147_30:
	movb	$0, -33(%rbp)
	leaq	-400(%rbp), %rdi
	callq	__ZN4core3ptr13drop_in_place17hfdc68ca9ab4cf2d9E
	jmp	LBB147_6
LBB147_31:
	testb	$1, -33(%rbp)
	jne	LBB147_30
	jmp	LBB147_6
LBB147_32:
Ltmp332:
	movq	%rax, -32(%rbp)
	movl	%edx, -24(%rbp)
	jmp	LBB147_29
LBB147_33:
Ltmp335:
	movq	%rax, -32(%rbp)
	movl	%edx, -24(%rbp)
	jmp	LBB147_6
LBB147_34:
Ltmp340:
	movq	%rax, -32(%rbp)
	movl	%edx, -24(%rbp)
	jmp	LBB147_31
LBB147_35:
Ltmp349:
	movq	%rax, -32(%rbp)
	movl	%edx, -24(%rbp)
	jmp	LBB147_11
LBB147_36:
Ltmp354:
	movq	%rax, -32(%rbp)
	movl	%edx, -24(%rbp)
	jmp	LBB147_18
LBB147_37:
Ltmp357:
	movq	%rax, -32(%rbp)
	movl	%edx, -24(%rbp)
	jmp	LBB147_17
LBB147_38:
Ltmp360:
	movq	%rax, -32(%rbp)
	movl	%edx, -24(%rbp)
	jmp	LBB147_16
Lfunc_end43:
	.cfi_endproc
	.section	__TEXT,__gcc_except_tab
	.p2align	2
GCC_except_table147:
Lexception43:
	.byte	255
	.byte	255
	.byte	1
	.uleb128 Lcst_end43-Lcst_begin43
Lcst_begin43:
	.uleb128 Ltmp328-Lfunc_begin43
	.uleb128 Ltmp331-Ltmp328
	.uleb128 Ltmp332-Lfunc_begin43
	.byte	0
	.uleb128 Ltmp331-Lfunc_begin43
	.uleb128 Ltmp333-Ltmp331
	.byte	0
	.byte	0
	.uleb128 Ltmp333-Lfunc_begin43
	.uleb128 Ltmp334-Ltmp333
	.uleb128 Ltmp335-Lfunc_begin43
	.byte	0
	.uleb128 Ltmp336-Lfunc_begin43
	.uleb128 Ltmp337-Ltmp336
	.uleb128 Ltmp340-Lfunc_begin43
	.byte	0
	.uleb128 Ltmp337-Lfunc_begin43
	.uleb128 Ltmp338-Ltmp337
	.byte	0
	.byte	0
	.uleb128 Ltmp338-Lfunc_begin43
	.uleb128 Ltmp339-Ltmp338
	.uleb128 Ltmp340-Lfunc_begin43
	.byte	0
	.uleb128 Ltmp341-Lfunc_begin43
	.uleb128 Ltmp344-Ltmp341
	.uleb128 Ltmp349-Lfunc_begin43
	.byte	0
	.uleb128 Ltmp344-Lfunc_begin43
	.uleb128 Ltmp345-Ltmp344
	.byte	0
	.byte	0
	.uleb128 Ltmp345-Lfunc_begin43
	.uleb128 Ltmp348-Ltmp345
	.uleb128 Ltmp349-Lfunc_begin43
	.byte	0
	.uleb128 Ltmp348-Lfunc_begin43
	.uleb128 Ltmp350-Ltmp348
	.byte	0
	.byte	0
	.uleb128 Ltmp350-Lfunc_begin43
	.uleb128 Ltmp353-Ltmp350
	.uleb128 Ltmp354-Lfunc_begin43
	.byte	0
	.uleb128 Ltmp355-Lfunc_begin43
	.uleb128 Ltmp356-Ltmp355
	.uleb128 Ltmp357-Lfunc_begin43
	.byte	0
	.uleb128 Ltmp358-Lfunc_begin43
	.uleb128 Ltmp359-Ltmp358
	.uleb128 Ltmp360-Lfunc_begin43
	.byte	0
	.uleb128 Ltmp359-Lfunc_begin43
	.uleb128 Lfunc_end43-Ltmp359
	.byte	0
	.byte	0
Lcst_end43:
	.p2align	2

	.section	__TEXT,__text,regular,pure_instructions
	.globl	__ZN3std6thread7Builder15spawn_unchecked28_$u7b$$u7b$closure$u7d$$u7d$17hbedd0f37e204fda7E
	.p2align	4, 0x90
__ZN3std6thread7Builder15spawn_unchecked28_$u7b$$u7b$closure$u7d$$u7d$17hbedd0f37e204fda7E:
Lfunc_begin44:
	.cfi_startproc
	.cfi_personality 155, _rust_eh_personality
	.cfi_lsda 16, Lexception44
	pushq	%rbp
	.cfi_def_cfa_offset 16
	.cfi_offset %rbp, -16
	movq	%rsp, %rbp
	.cfi_def_cfa_register %rbp
	subq	$224, %rsp
	movb	$0, -18(%rbp)
	movb	$0, -19(%rbp)
	movb	$0, -17(%rbp)
	movb	$1, -19(%rbp)
	movb	$1, -18(%rbp)
Ltmp361:
	movq	%rdi, -176(%rbp)
	callq	__ZN3std6thread6Thread5cname17h44564751028e48adE
Ltmp362:
	movq	%rdx, -184(%rbp)
	movq	%rax, -192(%rbp)
	jmp	LBB148_2
LBB148_1:
	movq	-16(%rbp), %rdi
	callq	__Unwind_Resume
	ud2
LBB148_2:
	xorl	%eax, %eax
	movl	%eax, %ecx
	movq	-192(%rbp), %rdx
	movq	%rdx, -168(%rbp)
	movq	-184(%rbp), %rsi
	movq	%rsi, -160(%rbp)
	cmpq	$0, -168(%rbp)
	movl	$1, %edi
	cmovbeq	%rcx, %rdi
	cmpq	$1, %rdi
	je	LBB148_4
	jmp	LBB148_6
LBB148_4:
	movq	-168(%rbp), %rdi
	movq	-160(%rbp), %rsi
Ltmp363:
	callq	__ZN3std3sys4unix6thread6Thread8set_name17h1a773ceeeeef1604E
Ltmp364:
	jmp	LBB148_5
LBB148_5:
	jmp	LBB148_6
LBB148_6:
Ltmp365:
	leaq	-152(%rbp), %rdi
	callq	__ZN3std3sys4unix6thread5guard7current17h6ce1355a07295181E
Ltmp366:
	jmp	LBB148_7
LBB148_7:
	movb	$0, -18(%rbp)
	movq	-176(%rbp), %rax
	movq	(%rax), %rsi
Ltmp367:
	leaq	-152(%rbp), %rdi
	callq	__ZN3std10sys_common11thread_info3set17hb6c66faaab45cab1E
Ltmp368:
	jmp	LBB148_8
LBB148_8:
	movb	$0, -19(%rbp)
	movq	-176(%rbp), %rax
	movq	40(%rax), %rcx
	movq	%rcx, -56(%rbp)
	movq	32(%rax), %rcx
	movq	%rcx, -64(%rbp)
	movq	24(%rax), %rcx
	movq	%rcx, -72(%rbp)
	movq	8(%rax), %rcx
	movq	16(%rax), %rdx
	movq	%rdx, -80(%rbp)
	movq	%rcx, -88(%rbp)
	movq	-56(%rbp), %rcx
	movq	%rcx, -96(%rbp)
	movq	-64(%rbp), %rcx
	movq	%rcx, -104(%rbp)
	movq	-72(%rbp), %rcx
	movq	%rcx, -112(%rbp)
	movq	-88(%rbp), %rcx
	movq	-80(%rbp), %rdx
	movq	%rdx, -120(%rbp)
	movq	%rcx, -128(%rbp)
Ltmp369:
	leaq	-128(%rbp), %rdi
	callq	__ZN3std5panic12catch_unwind17h164b195f81d9163eE
Ltmp370:
	movq	%rdx, -200(%rbp)
	movq	%rax, -208(%rbp)
	jmp	LBB148_9
LBB148_9:
	movb	$1, -17(%rbp)
	movq	-208(%rbp), %rax
	movq	%rax, -40(%rbp)
	movq	-200(%rbp), %rcx
	movq	%rcx, -32(%rbp)
	movq	$1, -48(%rbp)
	movq	-176(%rbp), %rdx
	addq	$48, %rdx
Ltmp372:
	movq	%rdx, %rdi
	callq	__ZN69_$LT$alloc..sync..Arc$LT$T$GT$$u20$as$u20$core..ops..deref..Deref$GT$5deref17h626a7be44e3dd3f9E
Ltmp373:
	movq	%rax, -216(%rbp)
	jmp	LBB148_11
LBB148_10:
	testb	$1, -17(%rbp)
	jne	LBB148_18
	jmp	LBB148_17
LBB148_11:
Ltmp374:
	movq	-216(%rbp), %rdi
	callq	__ZN4core4cell19UnsafeCell$LT$T$GT$3get17h6fe5af6f5f7053d6E
Ltmp375:
	movq	%rax, -224(%rbp)
	jmp	LBB148_12
LBB148_12:
	movb	$0, -17(%rbp)
Ltmp377:
	movq	-224(%rbp), %rdi
	callq	__ZN4core3ptr13drop_in_place17hb8089de7b07470b1E
Ltmp378:
	jmp	LBB148_20
LBB148_13:
	movq	-176(%rbp), %rax
	addq	$48, %rax
	movq	%rax, %rdi
	callq	__ZN4core3ptr13drop_in_place17hc7808b9bbd8ae519E
	jmp	LBB148_1
LBB148_14:
	testb	$1, -19(%rbp)
	je	LBB148_13
	movb	$0, -19(%rbp)
	movq	-176(%rbp), %rax
	addq	$8, %rax
	movq	%rax, %rdi
	callq	__ZN4core3ptr13drop_in_place17hb10b1a7220535c9cE
	jmp	LBB148_13
LBB148_16:
	movb	$0, -18(%rbp)
	movq	-176(%rbp), %rax
	movq	%rax, %rdi
	callq	__ZN4core3ptr13drop_in_place17hfdc68ca9ab4cf2d9E
	jmp	LBB148_14
LBB148_17:
	testb	$1, -18(%rbp)
	jne	LBB148_16
	jmp	LBB148_14
LBB148_18:
	movb	$0, -17(%rbp)
	leaq	-48(%rbp), %rdi
	callq	__ZN4core3ptr13drop_in_place17hb8089de7b07470b1E
	jmp	LBB148_17
LBB148_19:
	movq	-48(%rbp), %rax
	movq	-224(%rbp), %rcx
	movq	%rax, (%rcx)
	movq	-40(%rbp), %rax
	movq	%rax, 8(%rcx)
	movq	-32(%rbp), %rax
	movq	%rax, 16(%rcx)
	jmp	LBB148_10
LBB148_20:
	movq	-48(%rbp), %rax
	movq	-224(%rbp), %rcx
	movq	%rax, (%rcx)
	movq	-40(%rbp), %rax
	movq	%rax, 8(%rcx)
	movq	-32(%rbp), %rax
	movq	%rax, 16(%rcx)
	movb	$0, -17(%rbp)
	movq	-176(%rbp), %rax
	addq	$48, %rax
	movq	%rax, %rdi
	callq	__ZN4core3ptr13drop_in_place17hc7808b9bbd8ae519E
	addq	$224, %rsp
	popq	%rbp
	retq
LBB148_22:
Ltmp371:
	movq	%rax, -16(%rbp)
	movl	%edx, -8(%rbp)
	jmp	LBB148_17
LBB148_23:
Ltmp376:
	movq	%rax, -16(%rbp)
	movl	%edx, -8(%rbp)
	jmp	LBB148_10
LBB148_24:
Ltmp379:
	movq	%rax, -16(%rbp)
	movl	%edx, -8(%rbp)
	jmp	LBB148_19
Lfunc_end44:
	.cfi_endproc
	.section	__TEXT,__gcc_except_tab
	.p2align	2
GCC_except_table148:
Lexception44:
	.byte	255
	.byte	255
	.byte	1
	.uleb128 Lcst_end44-Lcst_begin44
Lcst_begin44:
	.uleb128 Ltmp361-Lfunc_begin44
	.uleb128 Ltmp362-Ltmp361
	.uleb128 Ltmp371-Lfunc_begin44
	.byte	0
	.uleb128 Ltmp362-Lfunc_begin44
	.uleb128 Ltmp363-Ltmp362
	.byte	0
	.byte	0
	.uleb128 Ltmp363-Lfunc_begin44
	.uleb128 Ltmp370-Ltmp363
	.uleb128 Ltmp371-Lfunc_begin44
	.byte	0
	.uleb128 Ltmp372-Lfunc_begin44
	.uleb128 Ltmp375-Ltmp372
	.uleb128 Ltmp376-Lfunc_begin44
	.byte	0
	.uleb128 Ltmp377-Lfunc_begin44
	.uleb128 Ltmp378-Ltmp377
	.uleb128 Ltmp379-Lfunc_begin44
	.byte	0
	.uleb128 Ltmp378-Lfunc_begin44
	.uleb128 Lfunc_end44-Ltmp378
	.byte	0
	.byte	0
Lcst_end44:
	.p2align	2

	.section	__TEXT,__text,regular,pure_instructions
	.globl	__ZN3std6thread7Builder15spawn_unchecked28_$u7b$$u7b$closure$u7d$$u7d$28_$u7b$$u7b$closure$u7d$$u7d$17hf7eec64bb825b9acE
	.p2align	4, 0x90
__ZN3std6thread7Builder15spawn_unchecked28_$u7b$$u7b$closure$u7d$$u7d$28_$u7b$$u7b$closure$u7d$$u7d$17hf7eec64bb825b9acE:
	.cfi_startproc
	pushq	%rbp
	.cfi_def_cfa_offset 16
	.cfi_offset %rbp, -16
	movq	%rsp, %rbp
	.cfi_def_cfa_register %rbp
	subq	$64, %rsp
	leaq	-40(%rbp), %rax
	movq	%rax, %rcx
	movq	%rdi, -48(%rbp)
	movq	%rcx, %rdi
	movq	-48(%rbp), %rsi
	movl	$40, %edx
	movq	%rax, -56(%rbp)
	callq	_memcpy
	movq	-56(%rbp), %rdi
	callq	__ZN3std10sys_common9backtrace28__rust_begin_short_backtrace17he597a7ebeaf28c64E
	addq	$64, %rsp
	popq	%rbp
	retq
	.cfi_endproc

	.globl	__ZN3std6thread7Builder5spawn17h193a1d6d7a27447eE
	.p2align	4, 0x90
__ZN3std6thread7Builder5spawn17h193a1d6d7a27447eE:
	.cfi_startproc
	pushq	%rbp
	.cfi_def_cfa_offset 16
	.cfi_offset %rbp, -16
	movq	%rsp, %rbp
	.cfi_def_cfa_register %rbp
	subq	$128, %rsp
	movq	%rdi, %rax
	leaq	-80(%rbp), %rcx
	movq	%rcx, %r8
	movq	%rdi, -88(%rbp)
	movq	%r8, %rdi
	movl	$40, %r8d
	movq	%rdx, -96(%rbp)
	movq	%r8, %rdx
	movq	%rax, -104(%rbp)
	movq	%rcx, -112(%rbp)
	movq	%r8, -120(%rbp)
	callq	_memcpy
	leaq	-40(%rbp), %rax
	movq	%rax, %rcx
	movq	-96(%rbp), %rdx
	movq	%rcx, %rdi
	movq	%rdx, %rsi
	movq	-120(%rbp), %rdx
	movq	%rax, -128(%rbp)
	callq	_memcpy
	movq	-88(%rbp), %rdi
	movq	-112(%rbp), %rsi
	movq	-128(%rbp), %rdx
	callq	__ZN3std6thread7Builder15spawn_unchecked17h8654a221bdef58e8E
	movq	-104(%rbp), %rax
	addq	$128, %rsp
	popq	%rbp
	retq
	.cfi_endproc

	.p2align	4, 0x90
__ZN3std6thread9panicking17h0636a686f6eadd72E:
	.cfi_startproc
	pushq	%rbp
	.cfi_def_cfa_offset 16
	.cfi_offset %rbp, -16
	movq	%rsp, %rbp
	.cfi_def_cfa_register %rbp
	subq	$16, %rsp
	callq	__ZN3std9panicking9panicking17hd011b01e37bfe08cE
	movb	%al, -1(%rbp)
	movb	-1(%rbp), %al
	andb	$1, %al
	movzbl	%al, %eax
	addq	$16, %rsp
	popq	%rbp
	retq
	.cfi_endproc

	.globl	__ZN3std7process7Command3arg17h04aabca062b47da5E
	.p2align	4, 0x90
__ZN3std7process7Command3arg17h04aabca062b47da5E:
Lfunc_begin45:
	.cfi_startproc
	.cfi_personality 155, _rust_eh_personality
	.cfi_lsda 16, Lexception45
	pushq	%rbp
	.cfi_def_cfa_offset 16
	.cfi_offset %rbp, -16
	movq	%rsp, %rbp
	.cfi_def_cfa_register %rbp
	subq	$64, %rsp
	movq	%rsi, -24(%rbp)
	movq	%rdi, %rax
Ltmp380:
	leaq	-24(%rbp), %rcx
	movq	%rdi, -32(%rbp)
	movq	%rcx, %rdi
	movq	%rax, -40(%rbp)
	callq	__ZN55_$LT$$RF$T$u20$as$u20$core..convert..AsRef$LT$U$GT$$GT$6as_ref17h4b7ea13cf5217704E
Ltmp381:
	movq	%rdx, -48(%rbp)
	movq	%rax, -56(%rbp)
	jmp	LBB152_2
LBB152_1:
	movq	-16(%rbp), %rdi
	callq	__Unwind_Resume
	ud2
LBB152_2:
Ltmp382:
	movq	-40(%rbp), %rdi
	movq	-56(%rbp), %rsi
	movq	-48(%rbp), %rdx
	callq	__ZN3std3sys4unix7process14process_common7Command3arg17he3b985033bebdb87E
Ltmp383:
	jmp	LBB152_4
LBB152_3:
	jmp	LBB152_1
LBB152_4:
	jmp	LBB152_5
LBB152_5:
	movq	-32(%rbp), %rax
	addq	$64, %rsp
	popq	%rbp
	retq
LBB152_6:
Ltmp384:
	movq	%rax, -16(%rbp)
	movl	%edx, -8(%rbp)
	jmp	LBB152_3
Lfunc_end45:
	.cfi_endproc
	.section	__TEXT,__gcc_except_tab
	.p2align	2
GCC_except_table152:
Lexception45:
	.byte	255
	.byte	255
	.byte	1
	.uleb128 Lcst_end45-Lcst_begin45
Lcst_begin45:
	.uleb128 Ltmp380-Lfunc_begin45
	.uleb128 Ltmp381-Ltmp380
	.uleb128 Ltmp384-Lfunc_begin45
	.byte	0
	.uleb128 Ltmp381-Lfunc_begin45
	.uleb128 Ltmp382-Ltmp381
	.byte	0
	.byte	0
	.uleb128 Ltmp382-Lfunc_begin45
	.uleb128 Ltmp383-Ltmp382
	.uleb128 Ltmp384-Lfunc_begin45
	.byte	0
Lcst_end45:
	.p2align	2

	.section	__TEXT,__text,regular,pure_instructions
	.globl	__ZN3std7process7Command3arg17h1dd73722ec9f789dE
	.p2align	4, 0x90
__ZN3std7process7Command3arg17h1dd73722ec9f789dE:
Lfunc_begin46:
	.cfi_startproc
	.cfi_personality 155, _rust_eh_personality
	.cfi_lsda 16, Lexception46
	pushq	%rbp
	.cfi_def_cfa_offset 16
	.cfi_offset %rbp, -16
	movq	%rsp, %rbp
	.cfi_def_cfa_register %rbp
	subq	$64, %rsp
	movq	%rdi, %rax
Ltmp385:
	movq	%rdi, -24(%rbp)
	movq	%rsi, %rdi
	movq	%rsi, -32(%rbp)
	movq	%rax, -40(%rbp)
	callq	__ZN98_$LT$std..ffi..os_str..OsString$u20$as$u20$core..convert..AsRef$LT$std..ffi..os_str..OsStr$GT$$GT$6as_ref17h505200d7b5f0d498E
Ltmp386:
	movq	%rdx, -48(%rbp)
	movq	%rax, -56(%rbp)
	jmp	LBB153_2
LBB153_1:
	movq	-16(%rbp), %rdi
	callq	__Unwind_Resume
	ud2
LBB153_2:
Ltmp387:
	movq	-40(%rbp), %rdi
	movq	-56(%rbp), %rsi
	movq	-48(%rbp), %rdx
	callq	__ZN3std3sys4unix7process14process_common7Command3arg17he3b985033bebdb87E
Ltmp388:
	jmp	LBB153_4
LBB153_3:
	movq	-32(%rbp), %rdi
	callq	__ZN4core3ptr13drop_in_place17h778881173bf943c8E
	jmp	LBB153_1
LBB153_4:
	movq	-32(%rbp), %rdi
	callq	__ZN4core3ptr13drop_in_place17h778881173bf943c8E
	movq	-24(%rbp), %rax
	addq	$64, %rsp
	popq	%rbp
	retq
LBB153_6:
Ltmp389:
	movq	%rax, -16(%rbp)
	movl	%edx, -8(%rbp)
	jmp	LBB153_3
Lfunc_end46:
	.cfi_endproc
	.section	__TEXT,__gcc_except_tab
	.p2align	2
GCC_except_table153:
Lexception46:
	.byte	255
	.byte	255
	.byte	1
	.uleb128 Lcst_end46-Lcst_begin46
Lcst_begin46:
	.uleb128 Ltmp385-Lfunc_begin46
	.uleb128 Ltmp386-Ltmp385
	.uleb128 Ltmp389-Lfunc_begin46
	.byte	0
	.uleb128 Ltmp386-Lfunc_begin46
	.uleb128 Ltmp387-Ltmp386
	.byte	0
	.byte	0
	.uleb128 Ltmp387-Lfunc_begin46
	.uleb128 Ltmp388-Ltmp387
	.uleb128 Ltmp389-Lfunc_begin46
	.byte	0
	.uleb128 Ltmp388-Lfunc_begin46
	.uleb128 Lfunc_end46-Ltmp388
	.byte	0
	.byte	0
Lcst_end46:
	.p2align	2

	.section	__TEXT,__text,regular,pure_instructions
	.globl	__ZN3std7process7Command3arg17h2c5a304279abb372E
	.p2align	4, 0x90
__ZN3std7process7Command3arg17h2c5a304279abb372E:
Lfunc_begin47:
	.cfi_startproc
	.cfi_personality 155, _rust_eh_personality
	.cfi_lsda 16, Lexception47
	pushq	%rbp
	.cfi_def_cfa_offset 16
	.cfi_offset %rbp, -16
	movq	%rsp, %rbp
	.cfi_def_cfa_register %rbp
	subq	$64, %rsp
	movq	%rsi, -32(%rbp)
	movq	%rdx, -24(%rbp)
	movq	%rdi, %rax
Ltmp390:
	leaq	-32(%rbp), %rcx
	movq	%rdi, -40(%rbp)
	movq	%rcx, %rdi
	movq	%rax, -48(%rbp)
	callq	__ZN55_$LT$$RF$T$u20$as$u20$core..convert..AsRef$LT$U$GT$$GT$6as_ref17hb65dc6a4db6f6ba9E
Ltmp391:
	movq	%rdx, -56(%rbp)
	movq	%rax, -64(%rbp)
	jmp	LBB154_2
LBB154_1:
	movq	-16(%rbp), %rdi
	callq	__Unwind_Resume
	ud2
LBB154_2:
Ltmp392:
	movq	-48(%rbp), %rdi
	movq	-64(%rbp), %rsi
	movq	-56(%rbp), %rdx
	callq	__ZN3std3sys4unix7process14process_common7Command3arg17he3b985033bebdb87E
Ltmp393:
	jmp	LBB154_4
LBB154_3:
	jmp	LBB154_1
LBB154_4:
	jmp	LBB154_5
LBB154_5:
	movq	-40(%rbp), %rax
	addq	$64, %rsp
	popq	%rbp
	retq
LBB154_6:
Ltmp394:
	movq	%rax, -16(%rbp)
	movl	%edx, -8(%rbp)
	jmp	LBB154_3
Lfunc_end47:
	.cfi_endproc
	.section	__TEXT,__gcc_except_tab
	.p2align	2
GCC_except_table154:
Lexception47:
	.byte	255
	.byte	255
	.byte	1
	.uleb128 Lcst_end47-Lcst_begin47
Lcst_begin47:
	.uleb128 Ltmp390-Lfunc_begin47
	.uleb128 Ltmp391-Ltmp390
	.uleb128 Ltmp394-Lfunc_begin47
	.byte	0
	.uleb128 Ltmp391-Lfunc_begin47
	.uleb128 Ltmp392-Ltmp391
	.byte	0
	.byte	0
	.uleb128 Ltmp392-Lfunc_begin47
	.uleb128 Ltmp393-Ltmp392
	.uleb128 Ltmp394-Lfunc_begin47
	.byte	0
Lcst_end47:
	.p2align	2

	.section	__TEXT,__text,regular,pure_instructions
	.globl	__ZN3std7process7Command3arg17h46d99a5d7f080e2aE
	.p2align	4, 0x90
__ZN3std7process7Command3arg17h46d99a5d7f080e2aE:
Lfunc_begin48:
	.cfi_startproc
	.cfi_personality 155, _rust_eh_personality
	.cfi_lsda 16, Lexception48
	pushq	%rbp
	.cfi_def_cfa_offset 16
	.cfi_offset %rbp, -16
	movq	%rsp, %rbp
	.cfi_def_cfa_register %rbp
	subq	$64, %rsp
	movq	%rsi, -32(%rbp)
	movq	%rdx, -24(%rbp)
	movq	%rdi, %rax
Ltmp395:
	leaq	-32(%rbp), %rcx
	movq	%rdi, -40(%rbp)
	movq	%rcx, %rdi
	movq	%rax, -48(%rbp)
	callq	__ZN55_$LT$$RF$T$u20$as$u20$core..convert..AsRef$LT$U$GT$$GT$6as_ref17hcbcdc4af8bec2730E
Ltmp396:
	movq	%rdx, -56(%rbp)
	movq	%rax, -64(%rbp)
	jmp	LBB155_2
LBB155_1:
	movq	-16(%rbp), %rdi
	callq	__Unwind_Resume
	ud2
LBB155_2:
Ltmp397:
	movq	-48(%rbp), %rdi
	movq	-64(%rbp), %rsi
	movq	-56(%rbp), %rdx
	callq	__ZN3std3sys4unix7process14process_common7Command3arg17he3b985033bebdb87E
Ltmp398:
	jmp	LBB155_4
LBB155_3:
	jmp	LBB155_1
LBB155_4:
	jmp	LBB155_5
LBB155_5:
	movq	-40(%rbp), %rax
	addq	$64, %rsp
	popq	%rbp
	retq
LBB155_6:
Ltmp399:
	movq	%rax, -16(%rbp)
	movl	%edx, -8(%rbp)
	jmp	LBB155_3
Lfunc_end48:
	.cfi_endproc
	.section	__TEXT,__gcc_except_tab
	.p2align	2
GCC_except_table155:
Lexception48:
	.byte	255
	.byte	255
	.byte	1
	.uleb128 Lcst_end48-Lcst_begin48
Lcst_begin48:
	.uleb128 Ltmp395-Lfunc_begin48
	.uleb128 Ltmp396-Ltmp395
	.uleb128 Ltmp399-Lfunc_begin48
	.byte	0
	.uleb128 Ltmp396-Lfunc_begin48
	.uleb128 Ltmp397-Ltmp396
	.byte	0
	.byte	0
	.uleb128 Ltmp397-Lfunc_begin48
	.uleb128 Ltmp398-Ltmp397
	.uleb128 Ltmp399-Lfunc_begin48
	.byte	0
Lcst_end48:
	.p2align	2

	.section	__TEXT,__text,regular,pure_instructions
	.globl	__ZN3std7process7Command3arg17h7376df46c2e63565E
	.p2align	4, 0x90
__ZN3std7process7Command3arg17h7376df46c2e63565E:
Lfunc_begin49:
	.cfi_startproc
	.cfi_personality 155, _rust_eh_personality
	.cfi_lsda 16, Lexception49
	pushq	%rbp
	.cfi_def_cfa_offset 16
	.cfi_offset %rbp, -16
	movq	%rsp, %rbp
	.cfi_def_cfa_register %rbp
	subq	$64, %rsp
	movq	%rsi, -32(%rbp)
	movq	%rdx, -24(%rbp)
	movq	%rdi, %rax
Ltmp400:
	leaq	-32(%rbp), %rcx
	movq	%rdi, -40(%rbp)
	movq	%rcx, %rdi
	movq	%rax, -48(%rbp)
	callq	__ZN55_$LT$$RF$T$u20$as$u20$core..convert..AsRef$LT$U$GT$$GT$6as_ref17h5f471564c7e21705E
Ltmp401:
	movq	%rdx, -56(%rbp)
	movq	%rax, -64(%rbp)
	jmp	LBB156_2
LBB156_1:
	movq	-16(%rbp), %rdi
	callq	__Unwind_Resume
	ud2
LBB156_2:
Ltmp402:
	movq	-48(%rbp), %rdi
	movq	-64(%rbp), %rsi
	movq	-56(%rbp), %rdx
	callq	__ZN3std3sys4unix7process14process_common7Command3arg17he3b985033bebdb87E
Ltmp403:
	jmp	LBB156_4
LBB156_3:
	jmp	LBB156_1
LBB156_4:
	jmp	LBB156_5
LBB156_5:
	movq	-40(%rbp), %rax
	addq	$64, %rsp
	popq	%rbp
	retq
LBB156_6:
Ltmp404:
	movq	%rax, -16(%rbp)
	movl	%edx, -8(%rbp)
	jmp	LBB156_3
Lfunc_end49:
	.cfi_endproc
	.section	__TEXT,__gcc_except_tab
	.p2align	2
GCC_except_table156:
Lexception49:
	.byte	255
	.byte	255
	.byte	1
	.uleb128 Lcst_end49-Lcst_begin49
Lcst_begin49:
	.uleb128 Ltmp400-Lfunc_begin49
	.uleb128 Ltmp401-Ltmp400
	.uleb128 Ltmp404-Lfunc_begin49
	.byte	0
	.uleb128 Ltmp401-Lfunc_begin49
	.uleb128 Ltmp402-Ltmp401
	.byte	0
	.byte	0
	.uleb128 Ltmp402-Lfunc_begin49
	.uleb128 Ltmp403-Ltmp402
	.uleb128 Ltmp404-Lfunc_begin49
	.byte	0
Lcst_end49:
	.p2align	2

	.section	__TEXT,__text,regular,pure_instructions
	.globl	__ZN3std7process7Command3arg17he637918d47dc12a9E
	.p2align	4, 0x90
__ZN3std7process7Command3arg17he637918d47dc12a9E:
Lfunc_begin50:
	.cfi_startproc
	.cfi_personality 155, _rust_eh_personality
	.cfi_lsda 16, Lexception50
	pushq	%rbp
	.cfi_def_cfa_offset 16
	.cfi_offset %rbp, -16
	movq	%rsp, %rbp
	.cfi_def_cfa_register %rbp
	subq	$64, %rsp
	movq	%rsi, -24(%rbp)
	movq	%rdi, %rax
Ltmp405:
	leaq	-24(%rbp), %rcx
	movq	%rdi, -32(%rbp)
	movq	%rcx, %rdi
	movq	%rax, -40(%rbp)
	callq	__ZN55_$LT$$RF$T$u20$as$u20$core..convert..AsRef$LT$U$GT$$GT$6as_ref17h5ceddddd9858644bE
Ltmp406:
	movq	%rdx, -48(%rbp)
	movq	%rax, -56(%rbp)
	jmp	LBB157_2
LBB157_1:
	movq	-16(%rbp), %rdi
	callq	__Unwind_Resume
	ud2
LBB157_2:
Ltmp407:
	movq	-40(%rbp), %rdi
	movq	-56(%rbp), %rsi
	movq	-48(%rbp), %rdx
	callq	__ZN3std3sys4unix7process14process_common7Command3arg17he3b985033bebdb87E
Ltmp408:
	jmp	LBB157_4
LBB157_3:
	jmp	LBB157_1
LBB157_4:
	jmp	LBB157_5
LBB157_5:
	movq	-32(%rbp), %rax
	addq	$64, %rsp
	popq	%rbp
	retq
LBB157_6:
Ltmp409:
	movq	%rax, -16(%rbp)
	movl	%edx, -8(%rbp)
	jmp	LBB157_3
Lfunc_end50:
	.cfi_endproc
	.section	__TEXT,__gcc_except_tab
	.p2align	2
GCC_except_table157:
Lexception50:
	.byte	255
	.byte	255
	.byte	1
	.uleb128 Lcst_end50-Lcst_begin50
Lcst_begin50:
	.uleb128 Ltmp405-Lfunc_begin50
	.uleb128 Ltmp406-Ltmp405
	.uleb128 Ltmp409-Lfunc_begin50
	.byte	0
	.uleb128 Ltmp406-Lfunc_begin50
	.uleb128 Ltmp407-Ltmp406
	.byte	0
	.byte	0
	.uleb128 Ltmp407-Lfunc_begin50
	.uleb128 Ltmp408-Ltmp407
	.uleb128 Ltmp409-Lfunc_begin50
	.byte	0
Lcst_end50:
	.p2align	2

	.section	__TEXT,__text,regular,pure_instructions
	.globl	__ZN3std7process7Command3arg17heeb3d79ccb270d30E
	.p2align	4, 0x90
__ZN3std7process7Command3arg17heeb3d79ccb270d30E:
Lfunc_begin51:
	.cfi_startproc
	.cfi_personality 155, _rust_eh_personality
	.cfi_lsda 16, Lexception51
	pushq	%rbp
	.cfi_def_cfa_offset 16
	.cfi_offset %rbp, -16
	movq	%rsp, %rbp
	.cfi_def_cfa_register %rbp
	subq	$64, %rsp
	movq	%rsi, -24(%rbp)
	movq	%rdi, %rax
Ltmp410:
	leaq	-24(%rbp), %rcx
	movq	%rdi, -32(%rbp)
	movq	%rcx, %rdi
	movq	%rax, -40(%rbp)
	callq	__ZN55_$LT$$RF$T$u20$as$u20$core..convert..AsRef$LT$U$GT$$GT$6as_ref17h29741452a6431a6bE
Ltmp411:
	movq	%rdx, -48(%rbp)
	movq	%rax, -56(%rbp)
	jmp	LBB158_2
LBB158_1:
	movq	-16(%rbp), %rdi
	callq	__Unwind_Resume
	ud2
LBB158_2:
Ltmp412:
	movq	-40(%rbp), %rdi
	movq	-56(%rbp), %rsi
	movq	-48(%rbp), %rdx
	callq	__ZN3std3sys4unix7process14process_common7Command3arg17he3b985033bebdb87E
Ltmp413:
	jmp	LBB158_4
LBB158_3:
	jmp	LBB158_1
LBB158_4:
	jmp	LBB158_5
LBB158_5:
	movq	-32(%rbp), %rax
	addq	$64, %rsp
	popq	%rbp
	retq
LBB158_6:
Ltmp414:
	movq	%rax, -16(%rbp)
	movl	%edx, -8(%rbp)
	jmp	LBB158_3
Lfunc_end51:
	.cfi_endproc
	.section	__TEXT,__gcc_except_tab
	.p2align	2
GCC_except_table158:
Lexception51:
	.byte	255
	.byte	255
	.byte	1
	.uleb128 Lcst_end51-Lcst_begin51
Lcst_begin51:
	.uleb128 Ltmp410-Lfunc_begin51
	.uleb128 Ltmp411-Ltmp410
	.uleb128 Ltmp414-Lfunc_begin51
	.byte	0
	.uleb128 Ltmp411-Lfunc_begin51
	.uleb128 Ltmp412-Ltmp411
	.byte	0
	.byte	0
	.uleb128 Ltmp412-Lfunc_begin51
	.uleb128 Ltmp413-Ltmp412
	.uleb128 Ltmp414-Lfunc_begin51
	.byte	0
Lcst_end51:
	.p2align	2

	.section	__TEXT,__text,regular,pure_instructions
	.globl	__ZN3std7process7Command3env17h67170868d109449cE
	.p2align	4, 0x90
__ZN3std7process7Command3env17h67170868d109449cE:
Lfunc_begin52:
	.cfi_startproc
	.cfi_personality 155, _rust_eh_personality
	.cfi_lsda 16, Lexception52
	pushq	%rbp
	.cfi_def_cfa_offset 16
	.cfi_offset %rbp, -16
	movq	%rsp, %rbp
	.cfi_def_cfa_register %rbp
	subq	$96, %rsp
	movq	%rsi, -32(%rbp)
	movq	%rdx, -24(%rbp)
Ltmp415:
	movq	%rdi, -40(%rbp)
	callq	__ZN3std3sys4unix7process14process_common7Command7env_mut17hec48482a06cd4bbcE
Ltmp416:
	movq	%rax, -48(%rbp)
	jmp	LBB159_2
LBB159_1:
	movq	-16(%rbp), %rdi
	callq	__Unwind_Resume
	ud2
LBB159_2:
Ltmp417:
	leaq	-32(%rbp), %rdi
	callq	__ZN55_$LT$$RF$T$u20$as$u20$core..convert..AsRef$LT$U$GT$$GT$6as_ref17h9eeef29057fc928eE
Ltmp418:
	movq	%rdx, -56(%rbp)
	movq	%rax, -64(%rbp)
	jmp	LBB159_5
LBB159_3:
	jmp	LBB159_1
LBB159_4:
	jmp	LBB159_3
LBB159_5:
	movq	-64(%rbp), %rax
	movq	-56(%rbp), %rcx
Ltmp419:
	leaq	-24(%rbp), %rdi
	movq	%rax, -72(%rbp)
	movq	%rcx, -80(%rbp)
	callq	__ZN55_$LT$$RF$T$u20$as$u20$core..convert..AsRef$LT$U$GT$$GT$6as_ref17h9eeef29057fc928eE
Ltmp420:
	movq	%rdx, -88(%rbp)
	movq	%rax, -96(%rbp)
	jmp	LBB159_6
LBB159_6:
Ltmp421:
	movq	-48(%rbp), %rdi
	movq	-72(%rbp), %rsi
	movq	-80(%rbp), %rdx
	movq	-96(%rbp), %rcx
	movq	-88(%rbp), %r8
	callq	__ZN3std10sys_common7process10CommandEnv3set17h87a2234b872c5742E
Ltmp422:
	jmp	LBB159_7
LBB159_7:
	jmp	LBB159_8
LBB159_8:
	jmp	LBB159_9
LBB159_9:
	movq	-40(%rbp), %rax
	addq	$96, %rsp
	popq	%rbp
	retq
LBB159_10:
Ltmp423:
	movq	%rax, -16(%rbp)
	movl	%edx, -8(%rbp)
	jmp	LBB159_4
Lfunc_end52:
	.cfi_endproc
	.section	__TEXT,__gcc_except_tab
	.p2align	2
GCC_except_table159:
Lexception52:
	.byte	255
	.byte	255
	.byte	1
	.uleb128 Lcst_end52-Lcst_begin52
Lcst_begin52:
	.uleb128 Ltmp415-Lfunc_begin52
	.uleb128 Ltmp416-Ltmp415
	.uleb128 Ltmp423-Lfunc_begin52
	.byte	0
	.uleb128 Ltmp416-Lfunc_begin52
	.uleb128 Ltmp417-Ltmp416
	.byte	0
	.byte	0
	.uleb128 Ltmp417-Lfunc_begin52
	.uleb128 Ltmp422-Ltmp417
	.uleb128 Ltmp423-Lfunc_begin52
	.byte	0
Lcst_end52:
	.p2align	2

	.section	__TEXT,__text,regular,pure_instructions
	.globl	__ZN3std7process7Command3env17h96f3c1d3b48140d6E
	.p2align	4, 0x90
__ZN3std7process7Command3env17h96f3c1d3b48140d6E:
Lfunc_begin53:
	.cfi_startproc
	.cfi_personality 155, _rust_eh_personality
	.cfi_lsda 16, Lexception53
	pushq	%rbp
	.cfi_def_cfa_offset 16
	.cfi_offset %rbp, -16
	movq	%rsp, %rbp
	.cfi_def_cfa_register %rbp
	subq	$112, %rsp
	movq	%rsi, -48(%rbp)
	movq	%rdx, -40(%rbp)
	movq	%rcx, -32(%rbp)
	movq	%r8, -24(%rbp)
Ltmp424:
	movq	%rdi, -56(%rbp)
	callq	__ZN3std3sys4unix7process14process_common7Command7env_mut17hec48482a06cd4bbcE
Ltmp425:
	movq	%rax, -64(%rbp)
	jmp	LBB160_2
LBB160_1:
	movq	-16(%rbp), %rdi
	callq	__Unwind_Resume
	ud2
LBB160_2:
Ltmp426:
	leaq	-48(%rbp), %rdi
	callq	__ZN55_$LT$$RF$T$u20$as$u20$core..convert..AsRef$LT$U$GT$$GT$6as_ref17hcbcdc4af8bec2730E
Ltmp427:
	movq	%rdx, -72(%rbp)
	movq	%rax, -80(%rbp)
	jmp	LBB160_5
LBB160_3:
	jmp	LBB160_1
LBB160_4:
	jmp	LBB160_3
LBB160_5:
	movq	-80(%rbp), %rax
	movq	-72(%rbp), %rcx
Ltmp428:
	leaq	-32(%rbp), %rdi
	movq	%rax, -88(%rbp)
	movq	%rcx, -96(%rbp)
	callq	__ZN55_$LT$$RF$T$u20$as$u20$core..convert..AsRef$LT$U$GT$$GT$6as_ref17hcbcdc4af8bec2730E
Ltmp429:
	movq	%rdx, -104(%rbp)
	movq	%rax, -112(%rbp)
	jmp	LBB160_6
LBB160_6:
Ltmp430:
	movq	-64(%rbp), %rdi
	movq	-88(%rbp), %rsi
	movq	-96(%rbp), %rdx
	movq	-112(%rbp), %rcx
	movq	-104(%rbp), %r8
	callq	__ZN3std10sys_common7process10CommandEnv3set17h87a2234b872c5742E
Ltmp431:
	jmp	LBB160_7
LBB160_7:
	jmp	LBB160_8
LBB160_8:
	jmp	LBB160_9
LBB160_9:
	movq	-56(%rbp), %rax
	addq	$112, %rsp
	popq	%rbp
	retq
LBB160_10:
Ltmp432:
	movq	%rax, -16(%rbp)
	movl	%edx, -8(%rbp)
	jmp	LBB160_4
Lfunc_end53:
	.cfi_endproc
	.section	__TEXT,__gcc_except_tab
	.p2align	2
GCC_except_table160:
Lexception53:
	.byte	255
	.byte	255
	.byte	1
	.uleb128 Lcst_end53-Lcst_begin53
Lcst_begin53:
	.uleb128 Ltmp424-Lfunc_begin53
	.uleb128 Ltmp425-Ltmp424
	.uleb128 Ltmp432-Lfunc_begin53
	.byte	0
	.uleb128 Ltmp425-Lfunc_begin53
	.uleb128 Ltmp426-Ltmp425
	.byte	0
	.byte	0
	.uleb128 Ltmp426-Lfunc_begin53
	.uleb128 Ltmp431-Ltmp426
	.uleb128 Ltmp432-Lfunc_begin53
	.byte	0
Lcst_end53:
	.p2align	2

	.section	__TEXT,__text,regular,pure_instructions
	.globl	__ZN3std7process7Command3new17h2093a9815d3c93d3E
	.p2align	4, 0x90
__ZN3std7process7Command3new17h2093a9815d3c93d3E:
Lfunc_begin54:
	.cfi_startproc
	.cfi_personality 155, _rust_eh_personality
	.cfi_lsda 16, Lexception54
	pushq	%rbp
	.cfi_def_cfa_offset 16
	.cfi_offset %rbp, -16
	movq	%rsp, %rbp
	.cfi_def_cfa_register %rbp
	subq	$240, %rsp
	movq	%rdi, %rax
	movq	%rsi, -208(%rbp)
Ltmp433:
	leaq	-208(%rbp), %rcx
	movq	%rdi, -216(%rbp)
	movq	%rcx, %rdi
	movq	%rax, -224(%rbp)
	callq	__ZN55_$LT$$RF$T$u20$as$u20$core..convert..AsRef$LT$U$GT$$GT$6as_ref17h507fb1c555657099E
Ltmp434:
	movq	%rdx, -232(%rbp)
	movq	%rax, -240(%rbp)
	jmp	LBB161_2
LBB161_1:
	movq	-16(%rbp), %rdi
	callq	__Unwind_Resume
	ud2
LBB161_2:
Ltmp435:
	leaq	-200(%rbp), %rdi
	movq	-240(%rbp), %rsi
	movq	-232(%rbp), %rdx
	callq	__ZN3std3sys4unix7process14process_common7Command3new17h6b51c4bb5fada643E
Ltmp436:
	jmp	LBB161_4
LBB161_3:
	jmp	LBB161_1
LBB161_4:
	movq	-216(%rbp), %rax
	leaq	-200(%rbp), %rcx
	movq	%rax, %rdi
	movq	%rcx, %rsi
	movl	$184, %edx
	callq	_memcpy
	movq	-224(%rbp), %rax
	addq	$240, %rsp
	popq	%rbp
	retq
LBB161_6:
Ltmp437:
	movq	%rax, -16(%rbp)
	movl	%edx, -8(%rbp)
	jmp	LBB161_3
Lfunc_end54:
	.cfi_endproc
	.section	__TEXT,__gcc_except_tab
	.p2align	2
GCC_except_table161:
Lexception54:
	.byte	255
	.byte	255
	.byte	1
	.uleb128 Lcst_end54-Lcst_begin54
Lcst_begin54:
	.uleb128 Ltmp433-Lfunc_begin54
	.uleb128 Ltmp434-Ltmp433
	.uleb128 Ltmp437-Lfunc_begin54
	.byte	0
	.uleb128 Ltmp434-Lfunc_begin54
	.uleb128 Ltmp435-Ltmp434
	.byte	0
	.byte	0
	.uleb128 Ltmp435-Lfunc_begin54
	.uleb128 Ltmp436-Ltmp435
	.uleb128 Ltmp437-Lfunc_begin54
	.byte	0
	.uleb128 Ltmp436-Lfunc_begin54
	.uleb128 Lfunc_end54-Ltmp436
	.byte	0
	.byte	0
Lcst_end54:
	.p2align	2

	.section	__TEXT,__text,regular,pure_instructions
	.globl	__ZN3std7process7Command3new17h493e1f9ed8ee71a1E
	.p2align	4, 0x90
__ZN3std7process7Command3new17h493e1f9ed8ee71a1E:
Lfunc_begin55:
	.cfi_startproc
	.cfi_personality 155, _rust_eh_personality
	.cfi_lsda 16, Lexception55
	pushq	%rbp
	.cfi_def_cfa_offset 16
	.cfi_offset %rbp, -16
	movq	%rsp, %rbp
	.cfi_def_cfa_register %rbp
	subq	$256, %rsp
	movq	%rdi, %rax
	movq	%rsi, -216(%rbp)
	movq	%rdx, -208(%rbp)
Ltmp438:
	leaq	-216(%rbp), %rcx
	movq	%rdi, -224(%rbp)
	movq	%rcx, %rdi
	movq	%rax, -232(%rbp)
	callq	__ZN55_$LT$$RF$T$u20$as$u20$core..convert..AsRef$LT$U$GT$$GT$6as_ref17hcbcdc4af8bec2730E
Ltmp439:
	movq	%rdx, -240(%rbp)
	movq	%rax, -248(%rbp)
	jmp	LBB162_2
LBB162_1:
	movq	-16(%rbp), %rdi
	callq	__Unwind_Resume
	ud2
LBB162_2:
Ltmp440:
	leaq	-200(%rbp), %rdi
	movq	-248(%rbp), %rsi
	movq	-240(%rbp), %rdx
	callq	__ZN3std3sys4unix7process14process_common7Command3new17h6b51c4bb5fada643E
Ltmp441:
	jmp	LBB162_4
LBB162_3:
	jmp	LBB162_1
LBB162_4:
	movq	-224(%rbp), %rax
	leaq	-200(%rbp), %rcx
	movq	%rax, %rdi
	movq	%rcx, %rsi
	movl	$184, %edx
	callq	_memcpy
	movq	-232(%rbp), %rax
	addq	$256, %rsp
	popq	%rbp
	retq
LBB162_6:
Ltmp442:
	movq	%rax, -16(%rbp)
	movl	%edx, -8(%rbp)
	jmp	LBB162_3
Lfunc_end55:
	.cfi_endproc
	.section	__TEXT,__gcc_except_tab
	.p2align	2
GCC_except_table162:
Lexception55:
	.byte	255
	.byte	255
	.byte	1
	.uleb128 Lcst_end55-Lcst_begin55
Lcst_begin55:
	.uleb128 Ltmp438-Lfunc_begin55
	.uleb128 Ltmp439-Ltmp438
	.uleb128 Ltmp442-Lfunc_begin55
	.byte	0
	.uleb128 Ltmp439-Lfunc_begin55
	.uleb128 Ltmp440-Ltmp439
	.byte	0
	.byte	0
	.uleb128 Ltmp440-Lfunc_begin55
	.uleb128 Ltmp441-Ltmp440
	.uleb128 Ltmp442-Lfunc_begin55
	.byte	0
	.uleb128 Ltmp441-Lfunc_begin55
	.uleb128 Lfunc_end55-Ltmp441
	.byte	0
	.byte	0
Lcst_end55:
	.p2align	2

	.section	__TEXT,__text,regular,pure_instructions
	.globl	__ZN3std7process7Command3new17h4973bb3b1d8ff36eE
	.p2align	4, 0x90
__ZN3std7process7Command3new17h4973bb3b1d8ff36eE:
Lfunc_begin56:
	.cfi_startproc
	.cfi_personality 155, _rust_eh_personality
	.cfi_lsda 16, Lexception56
	pushq	%rbp
	.cfi_def_cfa_offset 16
	.cfi_offset %rbp, -16
	movq	%rsp, %rbp
	.cfi_def_cfa_register %rbp
	subq	$240, %rsp
	movq	%rdi, %rax
	movq	%rsi, -208(%rbp)
Ltmp443:
	leaq	-208(%rbp), %rcx
	movq	%rdi, -216(%rbp)
	movq	%rcx, %rdi
	movq	%rax, -224(%rbp)
	callq	__ZN55_$LT$$RF$T$u20$as$u20$core..convert..AsRef$LT$U$GT$$GT$6as_ref17h6b5eb91317e7f7adE
Ltmp444:
	movq	%rdx, -232(%rbp)
	movq	%rax, -240(%rbp)
	jmp	LBB163_2
LBB163_1:
	movq	-16(%rbp), %rdi
	callq	__Unwind_Resume
	ud2
LBB163_2:
Ltmp445:
	leaq	-200(%rbp), %rdi
	movq	-240(%rbp), %rsi
	movq	-232(%rbp), %rdx
	callq	__ZN3std3sys4unix7process14process_common7Command3new17h6b51c4bb5fada643E
Ltmp446:
	jmp	LBB163_4
LBB163_3:
	jmp	LBB163_1
LBB163_4:
	movq	-216(%rbp), %rax
	leaq	-200(%rbp), %rcx
	movq	%rax, %rdi
	movq	%rcx, %rsi
	movl	$184, %edx
	callq	_memcpy
	movq	-224(%rbp), %rax
	addq	$240, %rsp
	popq	%rbp
	retq
LBB163_6:
Ltmp447:
	movq	%rax, -16(%rbp)
	movl	%edx, -8(%rbp)
	jmp	LBB163_3
Lfunc_end56:
	.cfi_endproc
	.section	__TEXT,__gcc_except_tab
	.p2align	2
GCC_except_table163:
Lexception56:
	.byte	255
	.byte	255
	.byte	1
	.uleb128 Lcst_end56-Lcst_begin56
Lcst_begin56:
	.uleb128 Ltmp443-Lfunc_begin56
	.uleb128 Ltmp444-Ltmp443
	.uleb128 Ltmp447-Lfunc_begin56
	.byte	0
	.uleb128 Ltmp444-Lfunc_begin56
	.uleb128 Ltmp445-Ltmp444
	.byte	0
	.byte	0
	.uleb128 Ltmp445-Lfunc_begin56
	.uleb128 Ltmp446-Ltmp445
	.uleb128 Ltmp447-Lfunc_begin56
	.byte	0
	.uleb128 Ltmp446-Lfunc_begin56
	.uleb128 Lfunc_end56-Ltmp446
	.byte	0
	.byte	0
Lcst_end56:
	.p2align	2

	.section	__TEXT,__text,regular,pure_instructions
	.globl	__ZN3std7process7Command3new17hc4e32e33511d2d79E
	.p2align	4, 0x90
__ZN3std7process7Command3new17hc4e32e33511d2d79E:
Lfunc_begin57:
	.cfi_startproc
	.cfi_personality 155, _rust_eh_personality
	.cfi_lsda 16, Lexception57
	pushq	%rbp
	.cfi_def_cfa_offset 16
	.cfi_offset %rbp, -16
	movq	%rsp, %rbp
	.cfi_def_cfa_register %rbp
	subq	$240, %rsp
	movq	%rdi, %rax
	movq	%rsi, -208(%rbp)
Ltmp448:
	leaq	-208(%rbp), %rcx
	movq	%rdi, -216(%rbp)
	movq	%rcx, %rdi
	movq	%rax, -224(%rbp)
	callq	__ZN55_$LT$$RF$T$u20$as$u20$core..convert..AsRef$LT$U$GT$$GT$6as_ref17h5ceddddd9858644bE
Ltmp449:
	movq	%rdx, -232(%rbp)
	movq	%rax, -240(%rbp)
	jmp	LBB164_2
LBB164_1:
	movq	-16(%rbp), %rdi
	callq	__Unwind_Resume
	ud2
LBB164_2:
Ltmp450:
	leaq	-200(%rbp), %rdi
	movq	-240(%rbp), %rsi
	movq	-232(%rbp), %rdx
	callq	__ZN3std3sys4unix7process14process_common7Command3new17h6b51c4bb5fada643E
Ltmp451:
	jmp	LBB164_4
LBB164_3:
	jmp	LBB164_1
LBB164_4:
	movq	-216(%rbp), %rax
	leaq	-200(%rbp), %rcx
	movq	%rax, %rdi
	movq	%rcx, %rsi
	movl	$184, %edx
	callq	_memcpy
	movq	-224(%rbp), %rax
	addq	$240, %rsp
	popq	%rbp
	retq
LBB164_6:
Ltmp452:
	movq	%rax, -16(%rbp)
	movl	%edx, -8(%rbp)
	jmp	LBB164_3
Lfunc_end57:
	.cfi_endproc
	.section	__TEXT,__gcc_except_tab
	.p2align	2
GCC_except_table164:
Lexception57:
	.byte	255
	.byte	255
	.byte	1
	.uleb128 Lcst_end57-Lcst_begin57
Lcst_begin57:
	.uleb128 Ltmp448-Lfunc_begin57
	.uleb128 Ltmp449-Ltmp448
	.uleb128 Ltmp452-Lfunc_begin57
	.byte	0
	.uleb128 Ltmp449-Lfunc_begin57
	.uleb128 Ltmp450-Ltmp449
	.byte	0
	.byte	0
	.uleb128 Ltmp450-Lfunc_begin57
	.uleb128 Ltmp451-Ltmp450
	.uleb128 Ltmp452-Lfunc_begin57
	.byte	0
	.uleb128 Ltmp451-Lfunc_begin57
	.uleb128 Lfunc_end57-Ltmp451
	.byte	0
	.byte	0
Lcst_end57:
	.p2align	2

	.section	__TEXT,__text,regular,pure_instructions
	.globl	__ZN3std7process7Command3new17hf9d9612fbf45c643E
	.p2align	4, 0x90
__ZN3std7process7Command3new17hf9d9612fbf45c643E:
Lfunc_begin58:
	.cfi_startproc
	.cfi_personality 155, _rust_eh_personality
	.cfi_lsda 16, Lexception58
	pushq	%rbp
	.cfi_def_cfa_offset 16
	.cfi_offset %rbp, -16
	movq	%rsp, %rbp
	.cfi_def_cfa_register %rbp
	subq	$240, %rsp
	movq	%rdi, %rax
	movq	%rsi, -208(%rbp)
Ltmp453:
	leaq	-208(%rbp), %rcx
	movq	%rdi, -216(%rbp)
	movq	%rcx, %rdi
	movq	%rax, -224(%rbp)
	callq	__ZN55_$LT$$RF$T$u20$as$u20$core..convert..AsRef$LT$U$GT$$GT$6as_ref17h4b7ea13cf5217704E
Ltmp454:
	movq	%rdx, -232(%rbp)
	movq	%rax, -240(%rbp)
	jmp	LBB165_2
LBB165_1:
	movq	-16(%rbp), %rdi
	callq	__Unwind_Resume
	ud2
LBB165_2:
Ltmp455:
	leaq	-200(%rbp), %rdi
	movq	-240(%rbp), %rsi
	movq	-232(%rbp), %rdx
	callq	__ZN3std3sys4unix7process14process_common7Command3new17h6b51c4bb5fada643E
Ltmp456:
	jmp	LBB165_4
LBB165_3:
	jmp	LBB165_1
LBB165_4:
	movq	-216(%rbp), %rax
	leaq	-200(%rbp), %rcx
	movq	%rax, %rdi
	movq	%rcx, %rsi
	movl	$184, %edx
	callq	_memcpy
	movq	-224(%rbp), %rax
	addq	$240, %rsp
	popq	%rbp
	retq
LBB165_6:
Ltmp457:
	movq	%rax, -16(%rbp)
	movl	%edx, -8(%rbp)
	jmp	LBB165_3
Lfunc_end58:
	.cfi_endproc
	.section	__TEXT,__gcc_except_tab
	.p2align	2
GCC_except_table165:
Lexception58:
	.byte	255
	.byte	255
	.byte	1
	.uleb128 Lcst_end58-Lcst_begin58
Lcst_begin58:
	.uleb128 Ltmp453-Lfunc_begin58
	.uleb128 Ltmp454-Ltmp453
	.uleb128 Ltmp457-Lfunc_begin58
	.byte	0
	.uleb128 Ltmp454-Lfunc_begin58
	.uleb128 Ltmp455-Ltmp454
	.byte	0
	.byte	0
	.uleb128 Ltmp455-Lfunc_begin58
	.uleb128 Ltmp456-Ltmp455
	.uleb128 Ltmp457-Lfunc_begin58
	.byte	0
	.uleb128 Ltmp456-Lfunc_begin58
	.uleb128 Lfunc_end58-Ltmp456
	.byte	0
	.byte	0
Lcst_end58:
	.p2align	2

	.section	__TEXT,__text,regular,pure_instructions
	.globl	__ZN3std7process7Command4args17h761c2e9c3d8b875fE
	.p2align	4, 0x90
__ZN3std7process7Command4args17h761c2e9c3d8b875fE:
Lfunc_begin59:
	.cfi_startproc
	.cfi_personality 155, _rust_eh_personality
	.cfi_lsda 16, Lexception59
	pushq	%rbp
	.cfi_def_cfa_offset 16
	.cfi_offset %rbp, -16
	movq	%rsp, %rbp
	.cfi_def_cfa_register %rbp
	subq	$112, %rsp
	movb	$0, -17(%rbp)
	movq	%rdi, -64(%rbp)
	movq	%rsi, %rdi
	callq	__ZN90_$LT$$RF$alloc..vec..Vec$LT$T$GT$$u20$as$u20$core..iter..traits..collect..IntoIterator$GT$9into_iter17hdc2d5d058a635203E
	movq	%rax, -72(%rbp)
	movq	%rdx, -80(%rbp)
	jmp	LBB166_2
LBB166_1:
	movq	-16(%rbp), %rdi
	callq	__Unwind_Resume
	ud2
LBB166_2:
	movq	-72(%rbp), %rax
	movq	%rax, -56(%rbp)
	movq	-80(%rbp), %rcx
	movq	%rcx, -48(%rbp)
LBB166_3:
Ltmp458:
	leaq	-56(%rbp), %rdi
	callq	__ZN85_$LT$core..slice..Iter$LT$T$GT$$u20$as$u20$core..iter..traits..iterator..Iterator$GT$4next17h90d9db64235fdd8aE
Ltmp459:
	movq	%rax, -88(%rbp)
	jmp	LBB166_5
LBB166_4:
	jmp	LBB166_1
LBB166_5:
	movq	-88(%rbp), %rax
	movq	%rax, -40(%rbp)
	movq	-40(%rbp), %rcx
	testq	%rcx, %rcx
	setne	%dl
	movzbl	%dl, %esi
	movl	%esi, %ecx
	je	LBB166_6
	jmp	LBB166_18
LBB166_18:
	jmp	LBB166_8
LBB166_6:
	movb	$0, -17(%rbp)
	jmp	LBB166_13
	ud2
LBB166_8:
	movq	-40(%rbp), %rax
	movb	$1, -17(%rbp)
	movb	$0, -17(%rbp)
	movq	%rax, -32(%rbp)
Ltmp461:
	leaq	-32(%rbp), %rdi
	callq	__ZN55_$LT$$RF$T$u20$as$u20$core..convert..AsRef$LT$U$GT$$GT$6as_ref17h9eeef29057fc928eE
Ltmp462:
	movq	%rdx, -96(%rbp)
	movq	%rax, -104(%rbp)
	jmp	LBB166_9
LBB166_9:
Ltmp463:
	movq	-64(%rbp), %rdi
	movq	-104(%rbp), %rsi
	movq	-96(%rbp), %rdx
	callq	__ZN3std7process7Command3arg17h7376df46c2e63565E
Ltmp464:
	jmp	LBB166_11
LBB166_10:
	jmp	LBB166_15
LBB166_11:
	jmp	LBB166_12
LBB166_12:
	movb	$0, -17(%rbp)
	jmp	LBB166_3
LBB166_13:
	movq	-64(%rbp), %rax
	addq	$112, %rsp
	popq	%rbp
	retq
LBB166_14:
	movb	$0, -17(%rbp)
	jmp	LBB166_4
LBB166_15:
	testb	$1, -17(%rbp)
	jne	LBB166_14
	jmp	LBB166_4
LBB166_16:
Ltmp460:
	movq	%rax, -16(%rbp)
	movl	%edx, -8(%rbp)
	jmp	LBB166_15
LBB166_17:
Ltmp465:
	movq	%rax, -16(%rbp)
	movl	%edx, -8(%rbp)
	jmp	LBB166_10
Lfunc_end59:
	.cfi_endproc
	.section	__TEXT,__gcc_except_tab
	.p2align	2
GCC_except_table166:
Lexception59:
	.byte	255
	.byte	255
	.byte	1
	.uleb128 Lcst_end59-Lcst_begin59
Lcst_begin59:
	.uleb128 Lfunc_begin59-Lfunc_begin59
	.uleb128 Ltmp458-Lfunc_begin59
	.byte	0
	.byte	0
	.uleb128 Ltmp458-Lfunc_begin59
	.uleb128 Ltmp459-Ltmp458
	.uleb128 Ltmp460-Lfunc_begin59
	.byte	0
	.uleb128 Ltmp461-Lfunc_begin59
	.uleb128 Ltmp464-Ltmp461
	.uleb128 Ltmp465-Lfunc_begin59
	.byte	0
Lcst_end59:
	.p2align	2

	.section	__TEXT,__text,regular,pure_instructions
	.globl	__ZN3std7process7Command4args17hc5bf649e9f89a7ffE
	.p2align	4, 0x90
__ZN3std7process7Command4args17hc5bf649e9f89a7ffE:
Lfunc_begin60:
	.cfi_startproc
	.cfi_personality 155, _rust_eh_personality
	.cfi_lsda 16, Lexception60
	pushq	%rbp
	.cfi_def_cfa_offset 16
	.cfi_offset %rbp, -16
	movq	%rsp, %rbp
	.cfi_def_cfa_register %rbp
	subq	$112, %rsp
	movb	$0, -17(%rbp)
	movq	%rdi, -64(%rbp)
	movq	%rsi, %rdi
	callq	__ZN90_$LT$$RF$alloc..vec..Vec$LT$T$GT$$u20$as$u20$core..iter..traits..collect..IntoIterator$GT$9into_iter17h19922377c162f84dE
	movq	%rax, -72(%rbp)
	movq	%rdx, -80(%rbp)
	jmp	LBB167_2
LBB167_1:
	movq	-16(%rbp), %rdi
	callq	__Unwind_Resume
	ud2
LBB167_2:
	movq	-72(%rbp), %rax
	movq	%rax, -56(%rbp)
	movq	-80(%rbp), %rcx
	movq	%rcx, -48(%rbp)
LBB167_3:
Ltmp466:
	leaq	-56(%rbp), %rdi
	callq	__ZN85_$LT$core..slice..Iter$LT$T$GT$$u20$as$u20$core..iter..traits..iterator..Iterator$GT$4next17h102b6b5cde5b8f06E
Ltmp467:
	movq	%rax, -88(%rbp)
	jmp	LBB167_5
LBB167_4:
	jmp	LBB167_1
LBB167_5:
	movq	-88(%rbp), %rax
	movq	%rax, -40(%rbp)
	movq	-40(%rbp), %rcx
	testq	%rcx, %rcx
	setne	%dl
	movzbl	%dl, %esi
	movl	%esi, %ecx
	je	LBB167_6
	jmp	LBB167_18
LBB167_18:
	jmp	LBB167_8
LBB167_6:
	movb	$0, -17(%rbp)
	jmp	LBB167_13
	ud2
LBB167_8:
	movq	-40(%rbp), %rax
	movb	$1, -17(%rbp)
	movb	$0, -17(%rbp)
	movq	%rax, -32(%rbp)
Ltmp469:
	leaq	-32(%rbp), %rdi
	callq	__ZN55_$LT$$RF$T$u20$as$u20$core..convert..AsRef$LT$U$GT$$GT$6as_ref17h4d0e4726fd527737E
Ltmp470:
	movq	%rdx, -96(%rbp)
	movq	%rax, -104(%rbp)
	jmp	LBB167_9
LBB167_9:
Ltmp471:
	movq	-64(%rbp), %rdi
	movq	-104(%rbp), %rsi
	movq	-96(%rbp), %rdx
	callq	__ZN3std7process7Command3arg17h7376df46c2e63565E
Ltmp472:
	jmp	LBB167_11
LBB167_10:
	jmp	LBB167_15
LBB167_11:
	jmp	LBB167_12
LBB167_12:
	movb	$0, -17(%rbp)
	jmp	LBB167_3
LBB167_13:
	movq	-64(%rbp), %rax
	addq	$112, %rsp
	popq	%rbp
	retq
LBB167_14:
	movb	$0, -17(%rbp)
	jmp	LBB167_4
LBB167_15:
	testb	$1, -17(%rbp)
	jne	LBB167_14
	jmp	LBB167_4
LBB167_16:
Ltmp468:
	movq	%rax, -16(%rbp)
	movl	%edx, -8(%rbp)
	jmp	LBB167_15
LBB167_17:
Ltmp473:
	movq	%rax, -16(%rbp)
	movl	%edx, -8(%rbp)
	jmp	LBB167_10
Lfunc_end60:
	.cfi_endproc
	.section	__TEXT,__gcc_except_tab
	.p2align	2
GCC_except_table167:
Lexception60:
	.byte	255
	.byte	255
	.byte	1
	.uleb128 Lcst_end60-Lcst_begin60
Lcst_begin60:
	.uleb128 Lfunc_begin60-Lfunc_begin60
	.uleb128 Ltmp466-Lfunc_begin60
	.byte	0
	.byte	0
	.uleb128 Ltmp466-Lfunc_begin60
	.uleb128 Ltmp467-Ltmp466
	.uleb128 Ltmp468-Lfunc_begin60
	.byte	0
	.uleb128 Ltmp469-Lfunc_begin60
	.uleb128 Ltmp472-Ltmp469
	.uleb128 Ltmp473-Lfunc_begin60
	.byte	0
Lcst_end60:
	.p2align	2

	.section	__TEXT,__text,regular,pure_instructions
	.globl	__ZN3std7process7Command4args17hea22a19123226843E
	.p2align	4, 0x90
__ZN3std7process7Command4args17hea22a19123226843E:
Lfunc_begin61:
	.cfi_startproc
	.cfi_personality 155, _rust_eh_personality
	.cfi_lsda 16, Lexception61
	pushq	%rbp
	.cfi_def_cfa_offset 16
	.cfi_offset %rbp, -16
	movq	%rsp, %rbp
	.cfi_def_cfa_register %rbp
	subq	$112, %rsp
	movb	$0, -17(%rbp)
	movq	%rdi, -64(%rbp)
	movq	%rsi, %rdi
	callq	__ZN90_$LT$$RF$alloc..vec..Vec$LT$T$GT$$u20$as$u20$core..iter..traits..collect..IntoIterator$GT$9into_iter17h56aee0790889c171E
	movq	%rax, -72(%rbp)
	movq	%rdx, -80(%rbp)
	jmp	LBB168_2
LBB168_1:
	movq	-16(%rbp), %rdi
	callq	__Unwind_Resume
	ud2
LBB168_2:
	movq	-72(%rbp), %rax
	movq	%rax, -56(%rbp)
	movq	-80(%rbp), %rcx
	movq	%rcx, -48(%rbp)
LBB168_3:
Ltmp474:
	leaq	-56(%rbp), %rdi
	callq	__ZN85_$LT$core..slice..Iter$LT$T$GT$$u20$as$u20$core..iter..traits..iterator..Iterator$GT$4next17hacdc8c5e6fa31bb9E
Ltmp475:
	movq	%rax, -88(%rbp)
	jmp	LBB168_5
LBB168_4:
	jmp	LBB168_1
LBB168_5:
	movq	-88(%rbp), %rax
	movq	%rax, -40(%rbp)
	movq	-40(%rbp), %rcx
	testq	%rcx, %rcx
	setne	%dl
	movzbl	%dl, %esi
	movl	%esi, %ecx
	je	LBB168_6
	jmp	LBB168_18
LBB168_18:
	jmp	LBB168_8
LBB168_6:
	movb	$0, -17(%rbp)
	jmp	LBB168_13
	ud2
LBB168_8:
	movq	-40(%rbp), %rax
	movb	$1, -17(%rbp)
	movb	$0, -17(%rbp)
	movq	%rax, -32(%rbp)
Ltmp477:
	leaq	-32(%rbp), %rdi
	callq	__ZN55_$LT$$RF$T$u20$as$u20$core..convert..AsRef$LT$U$GT$$GT$6as_ref17h4b7ea13cf5217704E
Ltmp478:
	movq	%rdx, -96(%rbp)
	movq	%rax, -104(%rbp)
	jmp	LBB168_9
LBB168_9:
Ltmp479:
	movq	-64(%rbp), %rdi
	movq	-104(%rbp), %rsi
	movq	-96(%rbp), %rdx
	callq	__ZN3std7process7Command3arg17h7376df46c2e63565E
Ltmp480:
	jmp	LBB168_11
LBB168_10:
	jmp	LBB168_15
LBB168_11:
	jmp	LBB168_12
LBB168_12:
	movb	$0, -17(%rbp)
	jmp	LBB168_3
LBB168_13:
	movq	-64(%rbp), %rax
	addq	$112, %rsp
	popq	%rbp
	retq
LBB168_14:
	movb	$0, -17(%rbp)
	jmp	LBB168_4
LBB168_15:
	testb	$1, -17(%rbp)
	jne	LBB168_14
	jmp	LBB168_4
LBB168_16:
Ltmp476:
	movq	%rax, -16(%rbp)
	movl	%edx, -8(%rbp)
	jmp	LBB168_15
LBB168_17:
Ltmp481:
	movq	%rax, -16(%rbp)
	movl	%edx, -8(%rbp)
	jmp	LBB168_10
Lfunc_end61:
	.cfi_endproc
	.section	__TEXT,__gcc_except_tab
	.p2align	2
GCC_except_table168:
Lexception61:
	.byte	255
	.byte	255
	.byte	1
	.uleb128 Lcst_end61-Lcst_begin61
Lcst_begin61:
	.uleb128 Lfunc_begin61-Lfunc_begin61
	.uleb128 Ltmp474-Lfunc_begin61
	.byte	0
	.byte	0
	.uleb128 Ltmp474-Lfunc_begin61
	.uleb128 Ltmp475-Ltmp474
	.uleb128 Ltmp476-Lfunc_begin61
	.byte	0
	.uleb128 Ltmp477-Lfunc_begin61
	.uleb128 Ltmp480-Ltmp477
	.uleb128 Ltmp481-Lfunc_begin61
	.byte	0
Lcst_end61:
	.p2align	2

	.section	__TEXT,__text,regular,pure_instructions
	.globl	__ZN3std7process7Command6stderr17h4a6f28eda50884afE
	.p2align	4, 0x90
__ZN3std7process7Command6stderr17h4a6f28eda50884afE:
	.cfi_startproc
	pushq	%rbp
	.cfi_def_cfa_offset 16
	.cfi_offset %rbp, -16
	movq	%rsp, %rbp
	.cfi_def_cfa_register %rbp
	subq	$32, %rsp
	movq	%rdi, %rax
	movq	%rdi, -8(%rbp)
	movl	%esi, %edi
	movl	%edx, %esi
	movq	%rax, -16(%rbp)
	callq	__ZN50_$LT$T$u20$as$u20$core..convert..Into$LT$U$GT$$GT$4into17he8f7038551a33fd8E
	movl	%eax, -20(%rbp)
	movl	%edx, -24(%rbp)
	movq	-16(%rbp), %rdi
	movl	-20(%rbp), %esi
	movl	-24(%rbp), %edx
	callq	__ZN3std3sys4unix7process14process_common7Command6stderr17h53f65a2067124ca7E
	movq	-8(%rbp), %rax
	addq	$32, %rsp
	popq	%rbp
	retq
	.cfi_endproc

	.globl	__ZN3std7process7Command6stdout17h6c712a4911d16a73E
	.p2align	4, 0x90
__ZN3std7process7Command6stdout17h6c712a4911d16a73E:
	.cfi_startproc
	pushq	%rbp
	.cfi_def_cfa_offset 16
	.cfi_offset %rbp, -16
	movq	%rsp, %rbp
	.cfi_def_cfa_register %rbp
	subq	$32, %rsp
	movq	%rdi, %rax
	movq	%rdi, -8(%rbp)
	movl	%esi, %edi
	movl	%edx, %esi
	movq	%rax, -16(%rbp)
	callq	__ZN50_$LT$T$u20$as$u20$core..convert..Into$LT$U$GT$$GT$4into17he8f7038551a33fd8E
	movl	%eax, -20(%rbp)
	movl	%edx, -24(%rbp)
	movq	-16(%rbp), %rdi
	movl	-20(%rbp), %esi
	movl	-24(%rbp), %edx
	callq	__ZN3std3sys4unix7process14process_common7Command6stdout17hc79e1c20494df919E
	movq	-8(%rbp), %rax
	addq	$32, %rsp
	popq	%rbp
	retq
	.cfi_endproc

	.globl	__ZN3std9panicking11begin_panic17hfb869269672d8408E
	.p2align	4, 0x90
__ZN3std9panicking11begin_panic17hfb869269672d8408E:
Lfunc_begin62:
	.cfi_startproc
	.cfi_personality 155, _rust_eh_personality
	.cfi_lsda 16, Lexception62
	pushq	%rbp
	.cfi_def_cfa_offset 16
	.cfi_offset %rbp, -16
	movq	%rsp, %rbp
	.cfi_def_cfa_register %rbp
	subq	$80, %rsp
	movb	$0, -17(%rbp)
	movb	$1, -17(%rbp)
	movb	$0, -17(%rbp)
Ltmp482:
	movq	%rdx, -48(%rbp)
	callq	__ZN3std9panicking11begin_panic21PanicPayload$LT$A$GT$3new17h97a17b1c3d414a79E
Ltmp483:
	movq	%rdx, -56(%rbp)
	movq	%rax, -64(%rbp)
	jmp	LBB171_2
LBB171_1:
	movq	-16(%rbp), %rdi
	callq	__Unwind_Resume
	ud2
LBB171_2:
	movq	-64(%rbp), %rax
	movq	%rax, -40(%rbp)
	movq	-56(%rbp), %rcx
	movq	%rcx, -32(%rbp)
	leaq	-40(%rbp), %rdi
Ltmp485:
	movq	-48(%rbp), %rdx
	movq	%rdi, -72(%rbp)
	movq	%rdx, %rdi
	callq	__ZN4core5panic8Location6caller17hb284bf0993c43fcaE
Ltmp486:
	movq	%rax, -80(%rbp)
	jmp	LBB171_4
LBB171_3:
	jmp	LBB171_6
LBB171_4:
Ltmp487:
	leaq	l___unnamed_22(%rip), %rsi
	xorl	%eax, %eax
	movl	%eax, %edx
	movq	-72(%rbp), %rdi
	movq	-80(%rbp), %rcx
	callq	__ZN3std9panicking20rust_panic_with_hook17h720143ee15fc80baE
Ltmp488:
	jmp	LBB171_9
LBB171_5:
	movb	$0, -17(%rbp)
	jmp	LBB171_1
LBB171_6:
	testb	$1, -17(%rbp)
	jne	LBB171_5
	jmp	LBB171_1
LBB171_7:
Ltmp484:
	movq	%rax, -16(%rbp)
	movl	%edx, -8(%rbp)
	jmp	LBB171_6
LBB171_8:
Ltmp489:
	movq	%rax, -16(%rbp)
	movl	%edx, -8(%rbp)
	jmp	LBB171_3
LBB171_9:
	ud2
Lfunc_end62:
	.cfi_endproc
	.section	__TEXT,__gcc_except_tab
	.p2align	2
GCC_except_table171:
Lexception62:
	.byte	255
	.byte	255
	.byte	1
	.uleb128 Lcst_end62-Lcst_begin62
Lcst_begin62:
	.uleb128 Ltmp482-Lfunc_begin62
	.uleb128 Ltmp483-Ltmp482
	.uleb128 Ltmp484-Lfunc_begin62
	.byte	0
	.uleb128 Ltmp483-Lfunc_begin62
	.uleb128 Ltmp485-Ltmp483
	.byte	0
	.byte	0
	.uleb128 Ltmp485-Lfunc_begin62
	.uleb128 Ltmp488-Ltmp485
	.uleb128 Ltmp489-Lfunc_begin62
	.byte	0
Lcst_end62:
	.p2align	2

	.section	__TEXT,__text,regular,pure_instructions
	.globl	__ZN3std9panicking11begin_panic21PanicPayload$LT$A$GT$3new17h97a17b1c3d414a79E
	.p2align	4, 0x90
__ZN3std9panicking11begin_panic21PanicPayload$LT$A$GT$3new17h97a17b1c3d414a79E:
	.cfi_startproc
	pushq	%rbp
	.cfi_def_cfa_offset 16
	.cfi_offset %rbp, -16
	movq	%rsp, %rbp
	.cfi_def_cfa_register %rbp
	subq	$32, %rsp
	movq	%rdi, -16(%rbp)
	movq	%rsi, -8(%rbp)
	movq	-16(%rbp), %rax
	movq	-8(%rbp), %rcx
	movq	%rax, -32(%rbp)
	movq	%rcx, -24(%rbp)
	movq	-32(%rbp), %rax
	movq	-24(%rbp), %rdx
	addq	$32, %rsp
	popq	%rbp
	retq
	.cfi_endproc

	.p2align	4, 0x90
__ZN3std9panicking11panic_count7is_zero17he4efb11ea968703aE:
	.cfi_startproc
	pushq	%rbp
	.cfi_def_cfa_offset 16
	.cfi_offset %rbp, -16
	movq	%rsp, %rbp
	.cfi_def_cfa_register %rbp
	subq	$16, %rsp
	movq	__ZN3std9panicking11panic_count18GLOBAL_PANIC_COUNT17h5754c1d48a496461E@GOTPCREL(%rip), %rdi
	xorl	%esi, %esi
	callq	__ZN4core4sync6atomic11AtomicUsize4load17h036e8092d4e596adE
	movq	%rax, -16(%rbp)
	movq	-16(%rbp), %rax
	cmpq	$0, %rax
	je	LBB173_3
	callq	__ZN3std9panicking11panic_count17is_zero_slow_path17ha588394117c50e3dE
	andb	$1, %al
	movb	%al, -1(%rbp)
	jmp	LBB173_4
LBB173_3:
	movb	$1, -1(%rbp)
LBB173_4:
	movb	-1(%rbp), %al
	andb	$1, %al
	movzbl	%al, %eax
	addq	$16, %rsp
	popq	%rbp
	retq
	.cfi_endproc

	.globl	__ZN3std9panicking3try17ha6d2ba4618f6706eE
	.p2align	4, 0x90
__ZN3std9panicking3try17ha6d2ba4618f6706eE:
	.cfi_startproc
	pushq	%rbp
	.cfi_def_cfa_offset 16
	.cfi_offset %rbp, -16
	movq	%rsp, %rbp
	.cfi_def_cfa_register %rbp
	subq	$256, %rsp
	leaq	-88(%rbp), %rax
	movq	%rax, %rcx
	movq	%rdi, -192(%rbp)
	movq	%rcx, %rdi
	movq	-192(%rbp), %rsi
	movl	$40, %ecx
	movq	%rcx, %rdx
	movq	%rax, -200(%rbp)
	movq	%rcx, -208(%rbp)
	callq	_memcpy
	leaq	-40(%rbp), %rax
	movq	%rax, %rcx
	movq	-200(%rbp), %rdx
	movq	%rcx, %rdi
	movq	%rdx, %rsi
	movq	-208(%rbp), %rdx
	movq	%rax, -216(%rbp)
	callq	_memcpy
	leaq	-128(%rbp), %rax
	movq	-216(%rbp), %rcx
	movq	%rax, %rdi
	movq	%rcx, %rsi
	movq	-208(%rbp), %rdx
	callq	_memcpy
	leaq	-168(%rbp), %rax
	movq	%rax, %rcx
	leaq	-128(%rbp), %rdx
	movq	%rcx, %rdi
	movq	%rdx, %rsi
	movl	$40, %edx
	movq	%rax, -224(%rbp)
	callq	_memcpy
	movq	-224(%rbp), %rax
	leaq	__ZN3std9panicking3try7do_call17ha7063d7cc4ab4524E(%rip), %rdi
	movq	%rax, %rsi
	leaq	__ZN3std9panicking3try8do_catch17h7e8b6112a613ebd5E(%rip), %rdx
	callq	___rust_try
	movl	%eax, -44(%rbp)
	movl	-44(%rbp), %eax
	movl	%eax, -228(%rbp)
	movl	-228(%rbp), %eax
	cmpl	$0, %eax
	je	LBB174_4
	movq	-168(%rbp), %rax
	movq	-160(%rbp), %rcx
	movq	%rax, -240(%rbp)
	movq	%rcx, -248(%rbp)
	jmp	LBB174_6
LBB174_4:
	jmp	LBB174_5
LBB174_5:
	movq	$0, -184(%rbp)
	jmp	LBB174_7
LBB174_6:
	movq	-240(%rbp), %rax
	movq	%rax, -184(%rbp)
	movq	-248(%rbp), %rcx
	movq	%rcx, -176(%rbp)
LBB174_7:
	movq	-184(%rbp), %rax
	movq	-176(%rbp), %rdx
	addq	$256, %rsp
	popq	%rbp
	retq
	.cfi_endproc

	.globl	__ZN3std9panicking3try7do_call17ha7063d7cc4ab4524E
	.p2align	4, 0x90
__ZN3std9panicking3try7do_call17ha7063d7cc4ab4524E:
	.cfi_startproc
	pushq	%rbp
	.cfi_def_cfa_offset 16
	.cfi_offset %rbp, -16
	movq	%rsp, %rbp
	.cfi_def_cfa_register %rbp
	subq	$112, %rsp
	leaq	-88(%rbp), %rax
	movq	%rdi, -96(%rbp)
	movq	%rax, %rdi
	movq	-96(%rbp), %rsi
	callq	__ZN4core3mem13manually_drop21ManuallyDrop$LT$T$GT$4take17h6d526003558177e3E
	leaq	-48(%rbp), %rax
	movq	%rax, %rcx
	leaq	-88(%rbp), %rdx
	movq	%rcx, %rdi
	movq	%rdx, %rsi
	movl	$40, %edx
	movq	%rax, -104(%rbp)
	callq	_memcpy
	movq	-104(%rbp), %rdi
	callq	__ZN101_$LT$std..panic..AssertUnwindSafe$LT$F$GT$$u20$as$u20$core..ops..function..FnOnce$LT$$LP$$RP$$GT$$GT$9call_once17h19da7a344fa83fb3E
	addq	$112, %rsp
	popq	%rbp
	retq
	.cfi_endproc

	.globl	__ZN3std9panicking3try8do_catch17h7e8b6112a613ebd5E
	.p2align	4, 0x90
__ZN3std9panicking3try8do_catch17h7e8b6112a613ebd5E:
	.cfi_startproc
	pushq	%rbp
	.cfi_def_cfa_offset 16
	.cfi_offset %rbp, -16
	movq	%rsp, %rbp
	.cfi_def_cfa_register %rbp
	subq	$64, %rsp
	movq	%rdi, -24(%rbp)
	movq	%rsi, %rdi
	callq	__ZN3std9panicking3try7cleanup17hd630ddf77975344aE
	movq	%rax, -32(%rbp)
	movq	%rdx, -40(%rbp)
	movq	-32(%rbp), %rax
	movq	%rax, -16(%rbp)
	movq	-40(%rbp), %rcx
	movq	%rcx, -8(%rbp)
	movq	-16(%rbp), %rdx
	movq	-8(%rbp), %rsi
	movq	%rdx, -48(%rbp)
	movq	%rsi, -56(%rbp)
	movq	-24(%rbp), %rax
	movq	-48(%rbp), %rcx
	movq	%rcx, (%rax)
	movq	-56(%rbp), %rdx
	movq	%rdx, 8(%rax)
	addq	$64, %rsp
	popq	%rbp
	retq
	.cfi_endproc

	.p2align	4, 0x90
__ZN3std9panicking9panicking17hd011b01e37bfe08cE:
	.cfi_startproc
	pushq	%rbp
	.cfi_def_cfa_offset 16
	.cfi_offset %rbp, -16
	movq	%rsp, %rbp
	.cfi_def_cfa_register %rbp
	subq	$16, %rsp
	callq	__ZN3std9panicking11panic_count7is_zero17he4efb11ea968703aE
	movb	%al, -1(%rbp)
	movb	-1(%rbp), %al
	xorb	$-1, %al
	andb	$1, %al
	movzbl	%al, %eax
	addq	$16, %rsp
	popq	%rbp
	retq
	.cfi_endproc

	.p2align	4, 0x90
__ZN41_$LT$bool$u20$as$u20$core..fmt..Debug$GT$3fmt17h85a5892c40bb35f4E:
	.cfi_startproc
	pushq	%rbp
	.cfi_def_cfa_offset 16
	.cfi_offset %rbp, -16
	movq	%rsp, %rbp
	.cfi_def_cfa_register %rbp
	subq	$16, %rsp
	callq	__ZN43_$LT$bool$u20$as$u20$core..fmt..Display$GT$3fmt17hd78396651a24cfbbE
	movb	%al, -1(%rbp)
	movb	-1(%rbp), %al
	andb	$1, %al
	movzbl	%al, %eax
	addq	$16, %rsp
	popq	%rbp
	retq
	.cfi_endproc

	.globl	__ZN42_$LT$$RF$T$u20$as$u20$core..fmt..Debug$GT$3fmt17h0ecbdc43d82123c7E
	.p2align	4, 0x90
__ZN42_$LT$$RF$T$u20$as$u20$core..fmt..Debug$GT$3fmt17h0ecbdc43d82123c7E:
	.cfi_startproc
	pushq	%rbp
	.cfi_def_cfa_offset 16
	.cfi_offset %rbp, -16
	movq	%rsp, %rbp
	.cfi_def_cfa_register %rbp
	subq	$16, %rsp
	movq	(%rdi), %rdi
	callq	__ZN66_$LT$core..option..Option$LT$T$GT$$u20$as$u20$core..fmt..Debug$GT$3fmt17h26750c0803faf5a0E
	movb	%al, -1(%rbp)
	movb	-1(%rbp), %al
	andb	$1, %al
	movzbl	%al, %eax
	addq	$16, %rsp
	popq	%rbp
	retq
	.cfi_endproc

	.globl	__ZN42_$LT$$RF$T$u20$as$u20$core..fmt..Debug$GT$3fmt17h244723937348c71bE
	.p2align	4, 0x90
__ZN42_$LT$$RF$T$u20$as$u20$core..fmt..Debug$GT$3fmt17h244723937348c71bE:
	.cfi_startproc
	pushq	%rbp
	.cfi_def_cfa_offset 16
	.cfi_offset %rbp, -16
	movq	%rsp, %rbp
	.cfi_def_cfa_register %rbp
	subq	$16, %rsp
	movq	(%rdi), %rdi
	callq	__ZN62_$LT$alloc..sync..Arc$LT$T$GT$$u20$as$u20$core..fmt..Debug$GT$3fmt17he06f903e19b31b7aE
	movb	%al, -1(%rbp)
	movb	-1(%rbp), %al
	andb	$1, %al
	movzbl	%al, %eax
	addq	$16, %rsp
	popq	%rbp
	retq
	.cfi_endproc

	.globl	__ZN42_$LT$$RF$T$u20$as$u20$core..fmt..Debug$GT$3fmt17h2513d6d03f210c91E
	.p2align	4, 0x90
__ZN42_$LT$$RF$T$u20$as$u20$core..fmt..Debug$GT$3fmt17h2513d6d03f210c91E:
	.cfi_startproc
	pushq	%rbp
	.cfi_def_cfa_offset 16
	.cfi_offset %rbp, -16
	movq	%rsp, %rbp
	.cfi_def_cfa_register %rbp
	subq	$16, %rsp
	movq	(%rdi), %rdi
	callq	__ZN50_$LT$cc..ErrorKind$u20$as$u20$core..fmt..Debug$GT$3fmt17h90b2a12f4179ff09E
	movb	%al, -1(%rbp)
	movb	-1(%rbp), %al
	andb	$1, %al
	movzbl	%al, %eax
	addq	$16, %rsp
	popq	%rbp
	retq
	.cfi_endproc

	.globl	__ZN42_$LT$$RF$T$u20$as$u20$core..fmt..Debug$GT$3fmt17h2bb717ac67697e28E
	.p2align	4, 0x90
__ZN42_$LT$$RF$T$u20$as$u20$core..fmt..Debug$GT$3fmt17h2bb717ac67697e28E:
	.cfi_startproc
	pushq	%rbp
	.cfi_def_cfa_offset 16
	.cfi_offset %rbp, -16
	movq	%rsp, %rbp
	.cfi_def_cfa_register %rbp
	subq	$16, %rsp
	movq	(%rdi), %rdi
	callq	__ZN41_$LT$bool$u20$as$u20$core..fmt..Debug$GT$3fmt17h85a5892c40bb35f4E
	movb	%al, -1(%rbp)
	movb	-1(%rbp), %al
	andb	$1, %al
	movzbl	%al, %eax
	addq	$16, %rsp
	popq	%rbp
	retq
	.cfi_endproc

	.globl	__ZN42_$LT$$RF$T$u20$as$u20$core..fmt..Debug$GT$3fmt17h3935658e1ccd1b57E
	.p2align	4, 0x90
__ZN42_$LT$$RF$T$u20$as$u20$core..fmt..Debug$GT$3fmt17h3935658e1ccd1b57E:
	.cfi_startproc
	pushq	%rbp
	.cfi_def_cfa_offset 16
	.cfi_offset %rbp, -16
	movq	%rsp, %rbp
	.cfi_def_cfa_register %rbp
	subq	$16, %rsp
	movq	(%rdi), %rdi
	callq	__ZN61_$LT$alloc..vec..Vec$LT$T$GT$$u20$as$u20$core..fmt..Debug$GT$3fmt17ha2e9edf75f9c6dd1E
	movb	%al, -1(%rbp)
	movb	-1(%rbp), %al
	andb	$1, %al
	movzbl	%al, %eax
	addq	$16, %rsp
	popq	%rbp
	retq
	.cfi_endproc

	.globl	__ZN42_$LT$$RF$T$u20$as$u20$core..fmt..Debug$GT$3fmt17h572d9d12a160d21cE
	.p2align	4, 0x90
__ZN42_$LT$$RF$T$u20$as$u20$core..fmt..Debug$GT$3fmt17h572d9d12a160d21cE:
	.cfi_startproc
	pushq	%rbp
	.cfi_def_cfa_offset 16
	.cfi_offset %rbp, -16
	movq	%rsp, %rbp
	.cfi_def_cfa_register %rbp
	subq	$16, %rsp
	movq	(%rdi), %rdi
	callq	__ZN66_$LT$core..option..Option$LT$T$GT$$u20$as$u20$core..fmt..Debug$GT$3fmt17h5eebcce01280aefbE
	movb	%al, -1(%rbp)
	movb	-1(%rbp), %al
	andb	$1, %al
	movzbl	%al, %eax
	addq	$16, %rsp
	popq	%rbp
	retq
	.cfi_endproc

	.globl	__ZN42_$LT$$RF$T$u20$as$u20$core..fmt..Debug$GT$3fmt17h585aa779c02072ebE
	.p2align	4, 0x90
__ZN42_$LT$$RF$T$u20$as$u20$core..fmt..Debug$GT$3fmt17h585aa779c02072ebE:
	.cfi_startproc
	pushq	%rbp
	.cfi_def_cfa_offset 16
	.cfi_offset %rbp, -16
	movq	%rsp, %rbp
	.cfi_def_cfa_register %rbp
	subq	$16, %rsp
	movq	(%rdi), %rdi
	callq	__ZN55_$LT$std..path..PathBuf$u20$as$u20$core..fmt..Debug$GT$3fmt17h45fffc43ad501558E
	movb	%al, -1(%rbp)
	movb	-1(%rbp), %al
	andb	$1, %al
	movzbl	%al, %eax
	addq	$16, %rsp
	popq	%rbp
	retq
	.cfi_endproc

	.globl	__ZN42_$LT$$RF$T$u20$as$u20$core..fmt..Debug$GT$3fmt17h5a8fdb063a6b6defE
	.p2align	4, 0x90
__ZN42_$LT$$RF$T$u20$as$u20$core..fmt..Debug$GT$3fmt17h5a8fdb063a6b6defE:
	.cfi_startproc
	pushq	%rbp
	.cfi_def_cfa_offset 16
	.cfi_offset %rbp, -16
	movq	%rsp, %rbp
	.cfi_def_cfa_register %rbp
	subq	$16, %rsp
	movq	(%rdi), %rdi
	callq	__ZN61_$LT$alloc..vec..Vec$LT$T$GT$$u20$as$u20$core..fmt..Debug$GT$3fmt17h76bc683ae144f024E
	movb	%al, -1(%rbp)
	movb	-1(%rbp), %al
	andb	$1, %al
	movzbl	%al, %eax
	addq	$16, %rsp
	popq	%rbp
	retq
	.cfi_endproc

	.globl	__ZN42_$LT$$RF$T$u20$as$u20$core..fmt..Debug$GT$3fmt17h66ece4d26b4b2a4dE
	.p2align	4, 0x90
__ZN42_$LT$$RF$T$u20$as$u20$core..fmt..Debug$GT$3fmt17h66ece4d26b4b2a4dE:
	.cfi_startproc
	pushq	%rbp
	.cfi_def_cfa_offset 16
	.cfi_offset %rbp, -16
	movq	%rsp, %rbp
	.cfi_def_cfa_register %rbp
	subq	$16, %rsp
	movq	(%rdi), %rdi
	callq	__ZN61_$LT$alloc..vec..Vec$LT$T$GT$$u20$as$u20$core..fmt..Debug$GT$3fmt17hf49876fc43207538E
	movb	%al, -1(%rbp)
	movb	-1(%rbp), %al
	andb	$1, %al
	movzbl	%al, %eax
	addq	$16, %rsp
	popq	%rbp
	retq
	.cfi_endproc

	.globl	__ZN42_$LT$$RF$T$u20$as$u20$core..fmt..Debug$GT$3fmt17h6e52e7b9ae71161bE
	.p2align	4, 0x90
__ZN42_$LT$$RF$T$u20$as$u20$core..fmt..Debug$GT$3fmt17h6e52e7b9ae71161bE:
	.cfi_startproc
	pushq	%rbp
	.cfi_def_cfa_offset 16
	.cfi_offset %rbp, -16
	movq	%rsp, %rbp
	.cfi_def_cfa_register %rbp
	subq	$16, %rsp
	movq	(%rdi), %rdi
	callq	__ZN61_$LT$alloc..vec..Vec$LT$T$GT$$u20$as$u20$core..fmt..Debug$GT$3fmt17he2af18cb5031f207E
	movb	%al, -1(%rbp)
	movb	-1(%rbp), %al
	andb	$1, %al
	movzbl	%al, %eax
	addq	$16, %rsp
	popq	%rbp
	retq
	.cfi_endproc

	.globl	__ZN42_$LT$$RF$T$u20$as$u20$core..fmt..Debug$GT$3fmt17h73f7c2e72f695568E
	.p2align	4, 0x90
__ZN42_$LT$$RF$T$u20$as$u20$core..fmt..Debug$GT$3fmt17h73f7c2e72f695568E:
	.cfi_startproc
	pushq	%rbp
	.cfi_def_cfa_offset 16
	.cfi_offset %rbp, -16
	movq	%rsp, %rbp
	.cfi_def_cfa_register %rbp
	subq	$16, %rsp
	movq	(%rdi), %rdi
	callq	__ZN90_$LT$std..collections..hash..map..HashMap$LT$K$C$V$C$S$GT$$u20$as$u20$core..fmt..Debug$GT$3fmt17h3344ce6281a459d2E
	movb	%al, -1(%rbp)
	movb	-1(%rbp), %al
	andb	$1, %al
	movzbl	%al, %eax
	addq	$16, %rsp
	popq	%rbp
	retq
	.cfi_endproc

	.globl	__ZN42_$LT$$RF$T$u20$as$u20$core..fmt..Debug$GT$3fmt17h78bfe46ea717e513E
	.p2align	4, 0x90
__ZN42_$LT$$RF$T$u20$as$u20$core..fmt..Debug$GT$3fmt17h78bfe46ea717e513E:
	.cfi_startproc
	pushq	%rbp
	.cfi_def_cfa_offset 16
	.cfi_offset %rbp, -16
	movq	%rsp, %rbp
	.cfi_def_cfa_register %rbp
	subq	$16, %rsp
	movq	(%rdi), %rdi
	callq	__ZN66_$LT$core..option..Option$LT$T$GT$$u20$as$u20$core..fmt..Debug$GT$3fmt17h016c6ebf16c2925bE
	movb	%al, -1(%rbp)
	movb	-1(%rbp), %al
	andb	$1, %al
	movzbl	%al, %eax
	addq	$16, %rsp
	popq	%rbp
	retq
	.cfi_endproc

	.globl	__ZN42_$LT$$RF$T$u20$as$u20$core..fmt..Debug$GT$3fmt17h7e081f04d401d48eE
	.p2align	4, 0x90
__ZN42_$LT$$RF$T$u20$as$u20$core..fmt..Debug$GT$3fmt17h7e081f04d401d48eE:
	.cfi_startproc
