	.section	__TEXT,__text,regular,pure_instructions
	.macosx_version_min 10, 7
	.p2align	4, 0x90
__ZN112_$LT$alloc..collections..btree..map..IntoIter$LT$K$C$V$GT$$u20$as$u20$core..iter..traits..iterator..Iterator$GT$4next17hfbfba43da8b4717fE:
	.cfi_startproc
	pushq	%rbp
	.cfi_def_cfa_offset 16
	.cfi_offset %rbp, -16
	movq	%rsp, %rbp
	.cfi_def_cfa_register %rbp
	pushq	%r15
	pushq	%r14
	pushq	%r13
	pushq	%r12
	pushq	%rbx
	subq	$136, %rsp
	.cfi_offset %rbx, -56
	.cfi_offset %r12, -48
	.cfi_offset %r13, -40
	.cfi_offset %r14, -32
	.cfi_offset %r15, -24
	movq	%rsi, %r12
	movq	%rdi, %rsi
	movq	64(%r12), %rax
	testq	%rax, %rax
	je	LBB0_21
	decq	%rax
	movq	%rax, 64(%r12)
	movq	8(%r12), %rax
	testq	%rax, %rax
	cmoveq	%rax, %r12
	je	LBB0_23
	movq	(%r12), %rax
	movq	8(%r12), %rdi
	movq	16(%r12), %r8
	movq	24(%r12), %r13
	movzwl	10(%rdi), %ecx
	cmpq	%rcx, %r13
	jae	LBB0_4
	movq	%rax, %rbx
	jmp	LBB0_10
LBB0_21:
	movq	$0, (%rsi)
	jmp	LBB0_22
LBB0_4:
	movq	%r8, -48(%rbp)
	movq	%rsi, -56(%rbp)
	movl	$544, %r15d
	movq	(%rdi), %r14
	testq	%r14, %r14
	je	LBB0_6
	.p2align	4, 0x90
LBB0_7:
	leaq	1(%rax), %rbx
	movzwl	8(%rdi), %r13d
LBB0_8:
	testq	%rax, %rax
	movl	$640, %esi
	cmoveq	%r15, %rsi
	movl	$8, %edx
	callq	___rust_dealloc
	movzwl	10(%r14), %ecx
	movq	%rbx, %rax
	movq	%r14, %rdi
	cmpq	%rcx, %r13
	jb	LBB0_9
	movq	(%rdi), %r14
	testq	%r14, %r14
	jne	LBB0_7
LBB0_6:
	movq	%rax, %rbx
	xorl	%r14d, %r14d
	jmp	LBB0_8
LBB0_9:
	movq	%r14, %rdi
	movq	-56(%rbp), %rsi
	movq	-48(%rbp), %r8
LBB0_10:
	leaq	(,%r13,2), %rax
	addq	%r13, %rax
	movq	32(%rdi,%rax,8), %rcx
	movq	%rcx, -128(%rbp)
	vmovups	16(%rdi,%rax,8), %xmm0
	vmovaps	%xmm0, -144(%rbp)
	movq	296(%rdi,%rax,8), %rcx
	movq	%rcx, -160(%rbp)
	vmovups	280(%rdi,%rax,8), %xmm0
	vmovaps	%xmm0, -176(%rbp)
	testq	%rbx, %rbx
	je	LBB0_11
	movq	%rbx, %rax
	movq	552(%rdi,%r13,8), %rdi
	decq	%rax
	je	LBB0_13
	addq	$-2, %rbx
	movq	%rax, %rcx
	andq	$7, %rcx
	je	LBB0_18
	xorl	%edx, %edx
	.p2align	4, 0x90
LBB0_16:
	movq	544(%rdi), %rdi
	incq	%rdx
	cmpq	%rdx, %rcx
	jne	LBB0_16
	subq	%rdx, %rax
LBB0_18:
	xorl	%r13d, %r13d
	cmpq	$7, %rbx
	jb	LBB0_20
	.p2align	4, 0x90
LBB0_19:
	movq	544(%rdi), %rcx
	movq	544(%rcx), %rcx
	movq	544(%rcx), %rcx
	movq	544(%rcx), %rcx
	movq	544(%rcx), %rcx
	movq	544(%rcx), %rcx
	movq	544(%rcx), %rcx
	movq	544(%rcx), %rdi
	addq	$-8, %rax
	jne	LBB0_19
	jmp	LBB0_20
LBB0_11:
	incq	%r13
	jmp	LBB0_20
LBB0_13:
	xorl	%r13d, %r13d
LBB0_20:
	movq	-128(%rbp), %rax
	vmovaps	-144(%rbp), %xmm0
	vmovaps	%xmm0, -112(%rbp)
	movq	%rax, -96(%rbp)
	vmovaps	-176(%rbp), %xmm0
	vmovups	%xmm0, -88(%rbp)
	movq	-160(%rbp), %rax
	movq	%rax, -72(%rbp)
	vmovups	-112(%rbp), %xmm0
	vmovups	%xmm0, (%rsi)
	movq	-96(%rbp), %rax
	movq	%rax, 16(%rsi)
	movq	-88(%rbp), %rax
	movq	%rax, 24(%rsi)
	movq	-96(%rbp), %rax
	movq	%rax, 16(%rsi)
	vmovups	-88(%rbp), %xmm0
	vmovups	%xmm0, 24(%rsi)
	movq	-72(%rbp), %rax
	movq	%rax, 40(%rsi)
	movq	$0, (%r12)
	movq	%rdi, 8(%r12)
	movq	%r8, 16(%r12)
	movq	%r13, 24(%r12)
LBB0_22:
	addq	$136, %rsp
	popq	%rbx
	popq	%r12
	popq	%r13
	popq	%r14
	popq	%r15
	popq	%rbp
	retq
LBB0_23:
	leaq	l___unnamed_1(%rip), %rdi
	leaq	l___unnamed_2(%rip), %rdx
	movl	$43, %esi
	callq	__ZN4core9panicking5panic17h736ee47a631475c0E
	.cfi_endproc

	.p2align	4, 0x90
__ZN36_$LT$T$u20$as$u20$core..any..Any$GT$7type_id17hf2f46fa194ffc95aE:
	.cfi_startproc
	pushq	%rbp
	.cfi_def_cfa_offset 16
	.cfi_offset %rbp, -16
	movq	%rsp, %rbp
	.cfi_def_cfa_register %rbp
	movabsq	$1229646359891580772, %rax
	popq	%rbp
	retq
	.cfi_endproc

	.section	__TEXT,__literal16,16byte_literals
	.p2align	4
LCPI2_0:
	.space	16
	.section	__TEXT,__text,regular,pure_instructions
	.p2align	4, 0x90
__ZN3std10sys_common9backtrace28__rust_begin_short_backtrace17h12dafcdc4b63b1a7E:
Lfunc_begin0:
	.cfi_startproc
	.cfi_personality 155, _rust_eh_personality
	.cfi_lsda 16, Lexception0
	pushq	%rbp
	.cfi_def_cfa_offset 16
	.cfi_offset %rbp, -16
	movq	%rsp, %rbp
	.cfi_def_cfa_register %rbp
	pushq	%r15
	pushq	%r14
	pushq	%r13
	pushq	%r12
	pushq	%rbx
	subq	$216, %rsp
	.cfi_offset %rbx, -56
	.cfi_offset %r12, -48
	.cfi_offset %r13, -40
	.cfi_offset %r14, -32
	.cfi_offset %r15, -24
	movq	32(%rdi), %rax
	vmovups	(%rdi), %ymm0
	vmovups	%ymm0, -176(%rbp)
	movq	%rax, -144(%rbp)
	leaq	-144(%rbp), %r15
	movb	$10, -136(%rbp)
LBB2_1:
	jmp	LBB2_3
	.p2align	4, 0x90
LBB2_2:
	movl	$24, %esi
	movl	$8, %edx
	movq	%rbx, %rdi
	callq	___rust_dealloc
LBB2_3:
	movb	%r12b, -41(%rbp)
	movq	%rbx, -240(%rbp)
	movq	$1, -88(%rbp)
	leaq	-80(%rbp), %rax
	vxorps	%xmm0, %xmm0, %xmm0
	vmovups	%xmm0, (%rax)
	movb	-136(%rbp), %al
	movb	%al, -42(%rbp)
	movq	-160(%rbp), %r14
	movq	-152(%rbp), %rax
	movl	$1, %ecx
	movq	%rcx, -232(%rbp)
	xorl	%esi, %esi
	xorl	%edx, %edx
	xorl	%ecx, %ecx
	.p2align	4, 0x90
LBB2_4:
	movq	%rsi, -56(%rbp)
	movq	%rdx, -64(%rbp)
	movq	%rcx, -248(%rbp)
	movq	%rax, %r12
	cmpq	%rax, %r14
	leaq	-224(%rbp), %r13
	jae	LBB2_14
LBB2_5:
	movq	-168(%rbp), %rsi
	cmpq	%r12, %rsi
	jb	LBB2_83
LBB2_6:
	subq	%r14, %r12
	addq	-176(%rbp), %r14
Ltmp14:
	movzbl	-42(%rbp), %edi
	movq	%r14, %rsi
	movq	%r12, %rdx
	vzeroupper
	callq	__ZN3std3sys4unix6memchr6memchr17h7b65119441f4f409E
Ltmp15:
	testq	%rax, %rax
	je	LBB2_23
	cmpq	$-1, %rdx
	movq	-64(%rbp), %rdi
	je	LBB2_85
	leaq	1(%rdx), %rbx
	cmpq	%r12, %rdx
	movq	-56(%rbp), %rsi
	jae	LBB2_84
	movq	%rsi, %rax
	subq	%rdi, %rax
	cmpq	%rdx, %rax
	jbe	LBB2_29
	movq	-88(%rbp), %rax
	leaq	(%rbx,%rdi), %r13
	movb	$1, %r15b
	movq	%rbx, %r12
	movq	%rsi, -56(%rbp)
	jmp	LBB2_54
	.p2align	4, 0x90
LBB2_12:
	movq	-96(%rbp), %rdi
	movl	$24, %esi
	movl	$8, %edx
	callq	___rust_dealloc
LBB2_13:
	movq	-160(%rbp), %r14
	movq	-152(%rbp), %r12
	cmpq	%r12, %r14
	jb	LBB2_5
LBB2_14:
	movq	-176(%rbp), %rdx
	movq	-168(%rbp), %rcx
Ltmp0:
	movq	%r13, %rdi
	movq	%r15, %rsi
	vzeroupper
	callq	__ZN59_$LT$std..process..ChildStderr$u20$as$u20$std..io..Read$GT$4read17hce97984818f2610dE
Ltmp1:
	movq	-224(%rbp), %rax
	movq	-216(%rbp), %r12
	movq	-208(%rbp), %rbx
	cmpq	$1, %rax
	jne	LBB2_34
	movq	%r12, -104(%rbp)
	movq	%rbx, -96(%rbp)
	movq	$1, -112(%rbp)
Ltmp6:
	leaq	-104(%rbp), %rdi
	callq	__ZN3std2io5error5Error4kind17ha6420639421e330eE
Ltmp7:
	cmpb	$15, %al
	jne	LBB2_60
	cmpq	$0, -112(%rbp)
	je	LBB2_13
	cmpb	$2, -104(%rbp)
	jb	LBB2_13
	movq	-96(%rbp), %rbx
	movq	(%rbx), %rdi
	movq	8(%rbx), %rax
Ltmp11:
	callq	*(%rax)
Ltmp12:
	movq	8(%rbx), %rax
	movq	8(%rax), %rsi
	testq	%rsi, %rsi
	je	LBB2_12
	movq	(%rbx), %rdi
	movq	16(%rax), %rdx
	callq	___rust_dealloc
	jmp	LBB2_12
	.p2align	4, 0x90
LBB2_23:
	movq	-80(%rbp), %rsi
	movq	%rsi, %rax
	movq	-64(%rbp), %rdi
	subq	%rdi, %rax
	cmpq	%r12, %rax
	jae	LBB2_45
	movq	%rdi, %r13
	addq	%r12, %r13
	jb	LBB2_89
	leaq	(%rsi,%rsi), %rbx
	cmpq	%r13, %rbx
	cmovbeq	%r13, %rbx
	testq	%rsi, %rsi
	je	LBB2_46
	movq	-88(%rbp), %rax
	testq	%rax, %rax
	je	LBB2_46
	cmpq	%rbx, %rsi
	je	LBB2_49
	movl	$1, %edx
	movq	%rax, %rdi
	movq	%rbx, %rcx
	callq	___rust_realloc
	jmp	LBB2_48
	.p2align	4, 0x90
LBB2_29:
	movq	%rdi, %r13
	addq	%rbx, %r13
	jb	LBB2_87
	leaq	(%rsi,%rsi), %r15
	cmpq	%r13, %r15
	cmovbeq	%r13, %r15
	testq	%rsi, %rsi
	movq	-232(%rbp), %rax
	je	LBB2_41
	testq	%rax, %rax
	je	LBB2_41
	cmpq	%r15, %rsi
	je	LBB2_44
	movl	$1, %edx
	movq	%rax, %rdi
	movq	%r15, %rcx
	callq	___rust_realloc
	jmp	LBB2_43
LBB2_34:
	movq	%r12, -152(%rbp)
	testq	%rax, %rax
	je	LBB2_40
	cmpb	$2, %r12b
	jb	LBB2_40
	movq	(%rbx), %rdi
	movq	8(%rbx), %rax
Ltmp3:
	callq	*(%rax)
Ltmp4:
	movq	8(%rbx), %rax
	movq	8(%rax), %rsi
	testq	%rsi, %rsi
	je	LBB2_39
	movq	(%rbx), %rdi
	movq	16(%rax), %rdx
	callq	___rust_dealloc
LBB2_39:
	movl	$24, %esi
	movl	$8, %edx
	movq	%rbx, %rdi
	callq	___rust_dealloc
	movq	-152(%rbp), %r12
LBB2_40:
	movq	$0, -160(%rbp)
	xorl	%r14d, %r14d
	movq	-168(%rbp), %rsi
	cmpq	%r12, %rsi
	jae	LBB2_6
	jmp	LBB2_83
LBB2_41:
	testq	%r15, %r15
	je	LBB2_50
	movl	$1, %esi
	movq	%r15, %rdi
	callq	___rust_alloc
LBB2_43:
	movq	-64(%rbp), %rdi
LBB2_44:
	testq	%rax, %rax
	jne	LBB2_51
	jmp	LBB2_86
LBB2_45:
	movq	-88(%rbp), %rax
	leaq	(%r12,%rdi), %r13
	xorl	%r15d, %r15d
	movq	%rsi, -56(%rbp)
	jmp	LBB2_54
LBB2_46:
	testq	%rbx, %rbx
	je	LBB2_52
	movl	$1, %esi
	movq	%rbx, %rdi
	callq	___rust_alloc
LBB2_48:
	movq	-64(%rbp), %rdi
LBB2_49:
	testq	%rax, %rax
	jne	LBB2_53
	jmp	LBB2_88
LBB2_50:
	movl	$1, %eax
LBB2_51:
	movq	%rax, -88(%rbp)
	movq	%r15, -56(%rbp)
	movq	%r15, -80(%rbp)
	movb	$1, %r15b
	movq	%rbx, %r12
	jmp	LBB2_54
LBB2_52:
	movl	$1, %eax
LBB2_53:
	movq	%rax, -88(%rbp)
	movq	%rbx, -56(%rbp)
	movq	%rbx, -80(%rbp)
	xorl	%r15d, %r15d
	.p2align	4, 0x90
LBB2_54:
	movq	%rax, -232(%rbp)
	addq	%rax, %rdi
	movq	%r14, %rsi
	movq	%r12, %rdx
	callq	_memcpy
	movq	%r13, -72(%rbp)
	movq	-160(%rbp), %r14
	addq	%r12, %r14
	movq	-152(%rbp), %rax
	cmpq	%rax, %r14
	cmovaq	%rax, %r14
	movq	%r14, -160(%rbp)
	movq	-248(%rbp), %rcx
	addq	%r12, %rcx
	testb	%r15b, %r15b
	leaq	-144(%rbp), %r15
	jne	LBB2_56
	movq	-56(%rbp), %rsi
	movq	%r13, %rdx
	testq	%r12, %r12
	jne	LBB2_4
LBB2_56:
	testq	%rcx, %rcx
	jne	LBB2_66
	movl	$2, %r14d
	movq	-240(%rbp), %rbx
	movb	-41(%rbp), %r12b
	movq	-88(%rbp), %rdi
	testq	%rdi, %rdi
	je	LBB2_61
	.p2align	4, 0x90
LBB2_58:
	movq	-80(%rbp), %rsi
	testq	%rsi, %rsi
	je	LBB2_61
	movl	$1, %edx
	callq	___rust_dealloc
	cmpq	$2, %r14
	je	LBB2_79
LBB2_62:
	cmpb	$2, %r12b
	jb	LBB2_3
	movq	(%rbx), %rdi
	movq	8(%rbx), %rax
Ltmp44:
	callq	*(%rax)
Ltmp45:
	movq	8(%rbx), %rax
	movq	8(%rax), %rsi
	testq	%rsi, %rsi
	je	LBB2_2
	movq	(%rbx), %rdi
	movq	16(%rax), %rdx
	callq	___rust_dealloc
	jmp	LBB2_2
	.p2align	4, 0x90
LBB2_60:
	movb	-104(%rbp), %r12b
	movq	-96(%rbp), %rbx
	movl	$1, %r14d
	movq	-88(%rbp), %rdi
	testq	%rdi, %rdi
	jne	LBB2_58
LBB2_61:
	cmpq	$2, %r14
	jne	LBB2_62
	jmp	LBB2_79
	.p2align	4, 0x90
LBB2_66:
	movq	%r13, %rdi
	subq	$1, %rdi
	jb	LBB2_92
	movq	-88(%rbp), %rbx
	movb	(%rbx,%rdi), %al
	cmpb	-136(%rbp), %al
	jne	LBB2_69
	movq	%rdi, -72(%rbp)
	movq	%rdi, %r13
LBB2_69:
	movq	-80(%rbp), %rax
	movq	%rbx, -112(%rbp)
	movq	%rax, -104(%rbp)
	movq	%r13, -96(%rbp)
	leaq	l___unnamed_3(%rip), %rax
	movq	%rax, -224(%rbp)
	movq	$1, -216(%rbp)
	movq	$0, -208(%rbp)
	leaq	l___unnamed_4(%rip), %rax
	movq	%rax, -192(%rbp)
	movq	$0, -184(%rbp)
Ltmp23:
	leaq	-224(%rbp), %rdi
	callq	__ZN3std2io5stdio6_print17hdea2154009b9e479E
Ltmp24:
Ltmp25:
	callq	__ZN3std2io5stdio6stdout17h2e8c687fa090ebf9E
Ltmp26:
	movq	%rax, -120(%rbp)
Ltmp27:
	leaq	-88(%rbp), %rdi
	leaq	-120(%rbp), %rsi
	movq	%rbx, %rdx
	movq	%r13, %rcx
	callq	__ZN57_$LT$std..io..stdio..Stdout$u20$as$u20$std..io..Write$GT$9write_all17h2664c8a6a5108583E
Ltmp28:
	cmpb	$3, -88(%rbp)
	jne	LBB2_91
	movq	-120(%rbp), %rax
	lock		decq	(%rax)
	jne	LBB2_75
	##MEMBARRIER
Ltmp36:
	leaq	-120(%rbp), %rdi
	callq	__ZN5alloc4sync12Arc$LT$T$GT$9drop_slow17hf4b91972a90e86c8E
Ltmp37:
LBB2_75:
	leaq	l___unnamed_5(%rip), %rax
	movq	%rax, -224(%rbp)
	movq	$1, -216(%rbp)
	movq	$0, -208(%rbp)
	leaq	l___unnamed_4(%rip), %rax
	movq	%rax, -192(%rbp)
	movq	$0, -184(%rbp)
Ltmp38:
	leaq	-224(%rbp), %rdi
	callq	__ZN3std2io5stdio6_print17hdea2154009b9e479E
Ltmp39:
	movq	-112(%rbp), %rdi
	testq	%rdi, %rdi
	je	LBB2_1
	movq	-104(%rbp), %rsi
	testq	%rsi, %rsi
	je	LBB2_1
	movl	$1, %edx
	callq	___rust_dealloc
	jmp	LBB2_1
LBB2_79:
Ltmp47:
	movq	%r15, %rdi
	callq	__ZN70_$LT$std..sys..unix..fd..FileDesc$u20$as$u20$core..ops..drop..Drop$GT$4drop17hf5fce2bf4d9f8deaE
Ltmp48:
	movq	-168(%rbp), %rsi
	testq	%rsi, %rsi
	je	LBB2_82
	movq	-176(%rbp), %rdi
	movl	$1, %edx
	callq	___rust_dealloc
LBB2_82:
	addq	$216, %rsp
	popq	%rbx
	popq	%r12
	popq	%r13
	popq	%r14
	popq	%r15
	popq	%rbp
	retq
LBB2_83:
Ltmp52:
	leaq	l___unnamed_6(%rip), %rdx
	movq	%r12, %rdi
	vzeroupper
	callq	__ZN4core5slice20slice_index_len_fail17h550a313151a85135E
Ltmp53:
	jmp	LBB2_90
LBB2_84:
Ltmp17:
	leaq	l___unnamed_7(%rip), %rdx
	movq	%rbx, %rdi
	movq	%r12, %rsi
	callq	__ZN4core5slice20slice_index_len_fail17h550a313151a85135E
Ltmp18:
	jmp	LBB2_90
LBB2_85:
Ltmp21:
	leaq	l___unnamed_7(%rip), %rdi
	callq	__ZN4core5slice25slice_index_overflow_fail17haacc9b5510032865E
Ltmp22:
	jmp	LBB2_90
LBB2_86:
	movl	$1, %esi
	movq	%r15, %rdi
	callq	__ZN5alloc5alloc18handle_alloc_error17hbc0ab0ed90816c07E
LBB2_87:
Ltmp19:
	callq	__ZN5alloc7raw_vec17capacity_overflow17h023f34f5bc34c61fE
Ltmp20:
	jmp	LBB2_90
LBB2_88:
	movl	$1, %esi
	movq	%rbx, %rdi
	callq	__ZN5alloc5alloc18handle_alloc_error17hbc0ab0ed90816c07E
LBB2_89:
Ltmp50:
	callq	__ZN5alloc7raw_vec17capacity_overflow17h023f34f5bc34c61fE
Ltmp51:
LBB2_90:
	ud2
LBB2_91:
	vmovups	-88(%rbp), %xmm0
	vmovaps	%xmm0, -224(%rbp)
Ltmp30:
	leaq	l___unnamed_8(%rip), %rdi
	leaq	l___unnamed_9(%rip), %rcx
	leaq	l___unnamed_10(%rip), %r8
	leaq	-224(%rbp), %rdx
	movl	$43, %esi
	callq	__ZN4core6result13unwrap_failed17hb5a510096a5fc85fE
Ltmp31:
	jmp	LBB2_90
LBB2_92:
Ltmp41:
	leaq	l___unnamed_11(%rip), %rdx
	xorl	%esi, %esi
	callq	__ZN4core9panicking18panic_bounds_check17habe69d236c55e3edE
Ltmp42:
	jmp	LBB2_90
LBB2_93:
Ltmp43:
	jmp	LBB2_109
LBB2_94:
Ltmp32:
	movq	%rax, %r14
Ltmp33:
	leaq	-224(%rbp), %rdi
	callq	__ZN4core3ptr13drop_in_place17h7f959772c584907bE
Ltmp34:
	jmp	LBB2_99
LBB2_95:
Ltmp35:
	jmp	LBB2_98
LBB2_96:
Ltmp49:
	movq	%rax, %r14
	leaq	-176(%rbp), %rdi
	callq	__ZN4core3ptr13drop_in_place17h4fed1e42d72638e3E
	movq	%r14, %rdi
	callq	__Unwind_Resume
	ud2
LBB2_97:
Ltmp29:
LBB2_98:
	movq	%rax, %r14
LBB2_99:
	leaq	-120(%rbp), %rdi
	callq	__ZN4core3ptr13drop_in_place17haf6df80f748d480aE
	jmp	LBB2_101
LBB2_100:
Ltmp40:
	movq	%rax, %r14
LBB2_101:
	leaq	-112(%rbp), %rdi
	jmp	LBB2_111
LBB2_102:
Ltmp46:
	movq	%rax, %r14
	movq	(%rbx), %rdi
	movq	8(%rbx), %rsi
	callq	__ZN5alloc5alloc8box_free17h49e85cf81d60bb52E
	movq	%rbx, %rdi
	callq	__ZN5alloc5alloc8box_free17h2cbd3df002e609cdE
	jmp	LBB2_112
LBB2_103:
Ltmp5:
	movq	%rax, %r14
	movq	(%rbx), %rdi
	movq	8(%rbx), %rsi
	callq	__ZN5alloc5alloc8box_free17h49e85cf81d60bb52E
	movq	%rbx, %rdi
	callq	__ZN5alloc5alloc8box_free17h2cbd3df002e609cdE
	jmp	LBB2_110
LBB2_104:
Ltmp16:
	jmp	LBB2_109
LBB2_105:
Ltmp13:
	movq	%rax, %r14
	movq	(%rbx), %rdi
	movq	8(%rbx), %rsi
	callq	__ZN5alloc5alloc8box_free17h49e85cf81d60bb52E
	movq	-96(%rbp), %rdi
	callq	__ZN5alloc5alloc8box_free17h2cbd3df002e609cdE
	jmp	LBB2_110
LBB2_106:
Ltmp8:
	movq	%rax, %r14
Ltmp9:
	leaq	-112(%rbp), %rdi
	callq	__ZN4core3ptr13drop_in_place17h7b3a061370ae9541E
Ltmp10:
	jmp	LBB2_110
LBB2_107:
Ltmp54:
	jmp	LBB2_109
LBB2_108:
Ltmp2:
LBB2_109:
	movq	%rax, %r14
LBB2_110:
	leaq	-88(%rbp), %rdi
LBB2_111:
	callq	__ZN4core3ptr13drop_in_place17h17797588d32ceb50E
LBB2_112:
	leaq	-176(%rbp), %rdi
	callq	__ZN4core3ptr13drop_in_place17h174a7e1527b36898E
	movq	%r14, %rdi
	callq	__Unwind_Resume
	ud2
Lfunc_end0:
	.cfi_endproc
	.section	__TEXT,__gcc_except_tab
	.p2align	2
GCC_except_table2:
Lexception0:
	.byte	255
	.byte	255
	.byte	1
	.uleb128 Lcst_end0-Lcst_begin0
Lcst_begin0:
	.uleb128 Ltmp14-Lfunc_begin0
	.uleb128 Ltmp15-Ltmp14
	.uleb128 Ltmp16-Lfunc_begin0
	.byte	0
	.uleb128 Ltmp0-Lfunc_begin0
	.uleb128 Ltmp1-Ltmp0
	.uleb128 Ltmp2-Lfunc_begin0
	.byte	0
	.uleb128 Ltmp6-Lfunc_begin0
	.uleb128 Ltmp7-Ltmp6
	.uleb128 Ltmp8-Lfunc_begin0
	.byte	0
	.uleb128 Ltmp11-Lfunc_begin0
	.uleb128 Ltmp12-Ltmp11
	.uleb128 Ltmp13-Lfunc_begin0
	.byte	0
	.uleb128 Ltmp3-Lfunc_begin0
	.uleb128 Ltmp4-Ltmp3
	.uleb128 Ltmp5-Lfunc_begin0
	.byte	0
	.uleb128 Ltmp4-Lfunc_begin0
	.uleb128 Ltmp44-Ltmp4
	.byte	0
	.byte	0
	.uleb128 Ltmp44-Lfunc_begin0
	.uleb128 Ltmp45-Ltmp44
	.uleb128 Ltmp46-Lfunc_begin0
	.byte	0
	.uleb128 Ltmp23-Lfunc_begin0
	.uleb128 Ltmp26-Ltmp23
	.uleb128 Ltmp40-Lfunc_begin0
	.byte	0
	.uleb128 Ltmp27-Lfunc_begin0
	.uleb128 Ltmp28-Ltmp27
	.uleb128 Ltmp29-Lfunc_begin0
	.byte	0
	.uleb128 Ltmp36-Lfunc_begin0
	.uleb128 Ltmp39-Ltmp36
	.uleb128 Ltmp40-Lfunc_begin0
	.byte	0
	.uleb128 Ltmp47-Lfunc_begin0
	.uleb128 Ltmp48-Ltmp47
	.uleb128 Ltmp49-Lfunc_begin0
	.byte	0
	.uleb128 Ltmp52-Lfunc_begin0
	.uleb128 Ltmp51-Ltmp52
	.uleb128 Ltmp54-Lfunc_begin0
	.byte	0
	.uleb128 Ltmp30-Lfunc_begin0
	.uleb128 Ltmp31-Ltmp30
	.uleb128 Ltmp32-Lfunc_begin0
	.byte	0
	.uleb128 Ltmp41-Lfunc_begin0
	.uleb128 Ltmp42-Ltmp41
	.uleb128 Ltmp43-Lfunc_begin0
	.byte	0
	.uleb128 Ltmp33-Lfunc_begin0
	.uleb128 Ltmp34-Ltmp33
	.uleb128 Ltmp35-Lfunc_begin0
	.byte	0
	.uleb128 Ltmp34-Lfunc_begin0
	.uleb128 Ltmp9-Ltmp34
	.byte	0
	.byte	0
	.uleb128 Ltmp9-Lfunc_begin0
	.uleb128 Ltmp10-Ltmp9
	.uleb128 Ltmp54-Lfunc_begin0
	.byte	0
	.uleb128 Ltmp10-Lfunc_begin0
	.uleb128 Lfunc_end0-Ltmp10
	.byte	0
	.byte	0
Lcst_end0:
	.p2align	2

	.section	__TEXT,__text,regular,pure_instructions
	.p2align	4, 0x90
__ZN3std2io5Write9write_all17h8dba33cff7519100E:
Lfunc_begin1:
	.cfi_startproc
	.cfi_personality 155, _rust_eh_personality
	.cfi_lsda 16, Lexception1
	pushq	%rbp
	.cfi_def_cfa_offset 16
	.cfi_offset %rbp, -16
	movq	%rsp, %rbp
	.cfi_def_cfa_register %rbp
	pushq	%r15
	pushq	%r14
	pushq	%r13
	pushq	%r12
	pushq	%rbx
	subq	$56, %rsp
	.cfi_offset %rbx, -56
	.cfi_offset %r12, -48
	.cfi_offset %r13, -40
	.cfi_offset %r14, -32
	.cfi_offset %r15, -24
	movq	%rdi, -48(%rbp)
	testq	%rcx, %rcx
	je	LBB3_21
	movq	%rcx, %r15
	movq	%rdx, %rbx
	movq	%rsi, %r12
	leaq	-64(%rbp), %r13
	leaq	-72(%rbp), %r14
	jmp	LBB3_2
	.p2align	4, 0x90
LBB3_19:
	movq	-56(%rbp), %rdi
	movl	$24, %esi
	movl	$8, %edx
	callq	___rust_dealloc
	movq	%r14, %r13
	movq	%r12, %r14
	movq	%rbx, %r12
	movq	-80(%rbp), %rbx
LBB3_20:
	testq	%r15, %r15
	je	LBB3_21
LBB3_2:
	movq	%r14, %rdi
	movq	%r12, %rsi
	movq	%rbx, %rdx
	movq	%r15, %rcx
	callq	__ZN48_$LT$std..fs..File$u20$as$u20$std..io..Write$GT$5write17haa9b0c01c6b57ee5E
	cmpq	$1, -72(%rbp)
	jne	LBB3_3
Ltmp60:
	movq	%r13, %rdi
	callq	__ZN3std2io5error5Error4kind17ha6420639421e330eE
Ltmp61:
	cmpb	$15, %al
	jne	LBB3_13
	cmpq	$0, -72(%rbp)
	je	LBB3_20
	cmpb	$2, -64(%rbp)
	jb	LBB3_20
	movq	%rbx, -80(%rbp)
	movq	%r12, %rbx
	movq	%r14, %r12
	movq	%r13, %r14
	movq	-56(%rbp), %r13
	movq	(%r13), %rdi
	movq	8(%r13), %rax
Ltmp63:
	callq	*(%rax)
Ltmp64:
	movq	8(%r13), %rax
	movq	8(%rax), %rsi
	testq	%rsi, %rsi
	je	LBB3_19
	movq	(%r13), %rdi
	movq	16(%rax), %rdx
	callq	___rust_dealloc
	jmp	LBB3_19
	.p2align	4, 0x90
LBB3_3:
	movq	-64(%rbp), %rdi
	testq	%rdi, %rdi
	je	LBB3_4
	movq	%r15, %rax
	subq	%rdi, %rax
	jb	LBB3_8
	addq	%rdi, %rbx
	movq	%rax, %r15
	testq	%r15, %r15
	jne	LBB3_2
LBB3_21:
	movq	-48(%rbp), %rax
	movb	$3, (%rax)
	jmp	LBB3_22
LBB3_4:
Ltmp57:
	leaq	l___unnamed_12(%rip), %rdx
	leaq	-96(%rbp), %rdi
	movl	$28, %ecx
	movl	$14, %esi
	callq	__ZN3std2io5error5Error3new17h3e0c275bc736c6acE
Ltmp58:
	vmovups	-96(%rbp), %xmm0
	jmp	LBB3_6
LBB3_13:
	vmovups	(%r13), %xmm0
LBB3_6:
	movq	-48(%rbp), %rax
	vmovups	%xmm0, (%rax)
LBB3_22:
	addq	$56, %rsp
	popq	%rbx
	popq	%r12
	popq	%r13
	popq	%r14
	popq	%r15
	popq	%rbp
	retq
LBB3_8:
Ltmp55:
	leaq	l___unnamed_13(%rip), %rdx
	movq	%r15, %rsi
	callq	__ZN4core5slice22slice_index_order_fail17h85b430a3a039f0a8E
Ltmp56:
	ud2
LBB3_24:
Ltmp59:
	jmp	LBB3_25
LBB3_27:
Ltmp65:
	movq	%rax, %rbx
	movq	(%r13), %rdi
	movq	8(%r13), %rsi
	callq	__ZN5alloc5alloc8box_free17h49e85cf81d60bb52E
	movq	-56(%rbp), %rdi
	callq	__ZN5alloc5alloc8box_free17h2cbd3df002e609cdE
	movq	%rbx, %rdi
	callq	__Unwind_Resume
	ud2
LBB3_23:
Ltmp62:
LBB3_25:
	movq	%rax, %rbx
	leaq	-72(%rbp), %rdi
	callq	__ZN4core3ptr13drop_in_place17h7b3a061370ae9541E
	movq	%rbx, %rdi
	callq	__Unwind_Resume
	ud2
Lfunc_end1:
	.cfi_endproc
	.section	__TEXT,__gcc_except_tab
	.p2align	2
GCC_except_table3:
Lexception1:
	.byte	255
	.byte	255
	.byte	1
	.uleb128 Lcst_end1-Lcst_begin1
Lcst_begin1:
	.uleb128 Lfunc_begin1-Lfunc_begin1
	.uleb128 Ltmp60-Lfunc_begin1
	.byte	0
	.byte	0
	.uleb128 Ltmp60-Lfunc_begin1
	.uleb128 Ltmp61-Ltmp60
	.uleb128 Ltmp62-Lfunc_begin1
	.byte	0
	.uleb128 Ltmp63-Lfunc_begin1
	.uleb128 Ltmp64-Ltmp63
	.uleb128 Ltmp65-Lfunc_begin1
	.byte	0
	.uleb128 Ltmp57-Lfunc_begin1
	.uleb128 Ltmp56-Ltmp57
	.uleb128 Ltmp59-Lfunc_begin1
	.byte	0
	.uleb128 Ltmp56-Lfunc_begin1
	.uleb128 Lfunc_end1-Ltmp56
	.byte	0
	.byte	0
Lcst_end1:
	.p2align	2

	.section	__TEXT,__text,regular,pure_instructions
	.p2align	4, 0x90
__ZN3std2io5error5Error3new17h3e0c275bc736c6acE:
	.cfi_startproc
	pushq	%rbp
	.cfi_def_cfa_offset 16
	.cfi_offset %rbp, -16
	movq	%rsp, %rbp
	.cfi_def_cfa_register %rbp
	pushq	%r15
	pushq	%r14
	pushq	%r13
	pushq	%r12
	pushq	%rbx
	subq	$24, %rsp
	.cfi_offset %rbx, -56
	.cfi_offset %r12, -48
	.cfi_offset %r13, -40
	.cfi_offset %r14, -32
	.cfi_offset %r15, -24
	movq	%rcx, %r14
	movq	%rdx, %r12
	movq	%rdi, %r15
	testq	%rcx, %rcx
	movl	%esi, -44(%rbp)
	je	LBB4_1
	movl	$1, %esi
	movq	%r14, %rdi
	callq	___rust_alloc
	testq	%rax, %rax
	je	LBB4_15
	movq	%rax, %r13
	movq	%r14, %rbx
	cmpq	%r14, %rbx
	jb	LBB4_5
	jmp	LBB4_13
LBB4_1:
	movl	$1, %r13d
	xorl	%ebx, %ebx
	cmpq	%r14, %rbx
	jae	LBB4_13
LBB4_5:
	movq	%r15, -56(%rbp)
	leaq	(%rbx,%rbx), %r15
	cmpq	%r14, %r15
	cmovbeq	%r14, %r15
	testq	%rbx, %rbx
	je	LBB4_9
	testq	%r13, %r13
	je	LBB4_9
	cmpq	%r15, %rbx
	je	LBB4_12
	movl	$1, %edx
	movq	%r13, %rdi
	movq	%rbx, %rsi
	movq	%r15, %rcx
	callq	___rust_realloc
	movq	%rax, %r13
	testq	%rax, %rax
	jne	LBB4_11
	jmp	LBB4_16
LBB4_9:
	movl	$1, %esi
	movq	%r15, %rdi
	callq	___rust_alloc
	movq	%rax, %r13
	testq	%rax, %rax
	je	LBB4_16
LBB4_11:
	movq	%r15, %rbx
LBB4_12:
	movq	-56(%rbp), %r15
LBB4_13:
	movq	%r13, %rdi
	movq	%r12, %rsi
	movq	%r14, %rdx
	callq	_memcpy
	movl	$24, %edi
	movl	$8, %esi
	callq	___rust_alloc
	testq	%rax, %rax
	je	LBB4_17
	movq	%r13, (%rax)
	movq	%rbx, 8(%rax)
	movq	%r14, 16(%rax)
	movzbl	-44(%rbp), %esi
	leaq	l___unnamed_14(%rip), %rcx
	movq	%r15, %rdi
	movq	%rax, %rdx
	callq	__ZN3std2io5error5Error4_new17h7c6c803135aa1561E
	addq	$24, %rsp
	popq	%rbx
	popq	%r12
	popq	%r13
	popq	%r14
	popq	%r15
	popq	%rbp
	retq
LBB4_17:
	movl	$24, %edi
	movl	$8, %esi
	callq	__ZN5alloc5alloc18handle_alloc_error17hbc0ab0ed90816c07E
LBB4_15:
	movl	$1, %esi
	movq	%r14, %rdi
	callq	__ZN5alloc7raw_vec19RawVec$LT$T$C$A$GT$11allocate_in28_$u7b$$u7b$closure$u7d$$u7d$17h8274b78e018d3dd6E
LBB4_16:
	movl	$1, %esi
	movq	%r15, %rdi
	callq	__ZN5alloc5alloc18handle_alloc_error17hbc0ab0ed90816c07E
	.cfi_endproc

	.p2align	4, 0x90
__ZN3std5error5Error5cause17h53e30e7081bb10e5E:
	.cfi_startproc
	pushq	%rbp
	.cfi_def_cfa_offset 16
	.cfi_offset %rbp, -16
	movq	%rsp, %rbp
	.cfi_def_cfa_register %rbp
	xorl	%eax, %eax
	popq	%rbp
	retq
	.cfi_endproc

	.p2align	4, 0x90
__ZN3std5error5Error7type_id17ha2211c11ce77de84E:
	.cfi_startproc
	pushq	%rbp
	.cfi_def_cfa_offset 16
	.cfi_offset %rbp, -16
	movq	%rsp, %rbp
	.cfi_def_cfa_register %rbp
	movabsq	$2636681851839236296, %rax
	popq	%rbp
	retq
	.cfi_endproc

	.p2align	4, 0x90
__ZN3std5error5Error9backtrace17hfa9dc2b3209b47d9E:
	.cfi_startproc
	pushq	%rbp
	.cfi_def_cfa_offset 16
	.cfi_offset %rbp, -16
	movq	%rsp, %rbp
	.cfi_def_cfa_register %rbp
	xorl	%eax, %eax
	popq	%rbp
	retq
	.cfi_endproc

	.p2align	4, 0x90
__ZN3std6thread19JoinHandle$LT$T$GT$4join17h42571f6a490f0842E:
Lfunc_begin2:
	.cfi_startproc
	.cfi_personality 155, _rust_eh_personality
	.cfi_lsda 16, Lexception2
	pushq	%rbp
	.cfi_def_cfa_offset 16
	.cfi_offset %rbp, -16
	movq	%rsp, %rbp
	.cfi_def_cfa_register %rbp
	pushq	%r15
	pushq	%r14
	pushq	%r12
	pushq	%rbx
	subq	$32, %rsp
	.cfi_offset %rbx, -48
	.cfi_offset %r12, -40
	.cfi_offset %r14, -32
	.cfi_offset %r15, -24
	movq	%rdi, %rbx
	movq	(%rdi), %rax
	movq	8(%rdi), %rdi
	movq	$0, (%rbx)
	movq	%rax, -56(%rbp)
	movq	%rdi, -48(%rbp)
	testq	%rax, %rax
	je	LBB8_1
Ltmp66:
	callq	__ZN3std3sys4unix6thread6Thread4join17h6a0e047a45b7d09cE
Ltmp67:
	movq	24(%rbx), %rax
	movq	16(%rax), %rcx
	movq	$0, 16(%rax)
	movq	%rcx, -56(%rbp)
	vmovups	24(%rax), %xmm0
	vmovups	%xmm0, -48(%rbp)
	cmpq	$1, %rcx
	jne	LBB8_6
	leaq	24(%rbx), %r14
	movq	-48(%rbp), %r15
	movq	-40(%rbp), %r12
	cmpq	$0, (%rbx)
	je	LBB8_10
	leaq	8(%rbx), %rdi
Ltmp73:
	callq	__ZN72_$LT$std..sys..unix..thread..Thread$u20$as$u20$core..ops..drop..Drop$GT$4drop17haa00a8633efec967E
Ltmp74:
LBB8_10:
	movq	16(%rbx), %rax
	lock		decq	(%rax)
	jne	LBB8_11
	addq	$16, %rbx
	##MEMBARRIER
Ltmp76:
	movq	%rbx, %rdi
	callq	__ZN5alloc4sync12Arc$LT$T$GT$9drop_slow17h8389483e09127b79E
Ltmp77:
LBB8_11:
	movq	(%r14), %rax
	lock		decq	(%rax)
	jne	LBB8_13
	##MEMBARRIER
	movq	%r14, %rdi
	callq	__ZN5alloc4sync12Arc$LT$T$GT$9drop_slow17hc18cceb15824c1ffE
LBB8_13:
	movq	%r15, %rax
	movq	%r12, %rdx
	addq	$32, %rsp
	popq	%rbx
	popq	%r12
	popq	%r14
	popq	%r15
	popq	%rbp
	retq
LBB8_1:
Ltmp79:
	leaq	l___unnamed_1(%rip), %rdi
	leaq	l___unnamed_15(%rip), %rdx
	movl	$43, %esi
	callq	__ZN4core9panicking5panic17h736ee47a631475c0E
Ltmp80:
	jmp	LBB8_2
LBB8_6:
Ltmp68:
	leaq	l___unnamed_1(%rip), %rdi
	leaq	l___unnamed_16(%rip), %rdx
	movl	$43, %esi
	callq	__ZN4core9panicking5panic17h736ee47a631475c0E
Ltmp69:
LBB8_2:
	ud2
LBB8_7:
Ltmp70:
	movq	%rax, %r15
Ltmp71:
	leaq	-56(%rbp), %rdi
	callq	__ZN4core3ptr13drop_in_place17h7c17b5e0d5dd66c3E
Ltmp72:
	jmp	LBB8_19
LBB8_3:
Ltmp81:
	movq	%rax, %r15
Ltmp82:
	leaq	-56(%rbp), %rdi
	callq	__ZN4core3ptr13drop_in_place17h42e3b4e0337fb704E
Ltmp83:
	jmp	LBB8_19
LBB8_17:
Ltmp78:
	movq	%rax, %r15
	jmp	LBB8_16
LBB8_15:
Ltmp75:
	movq	%rax, %r15
	addq	$16, %rbx
	movq	%rbx, %rdi
	callq	__ZN4core3ptr13drop_in_place17h6cda02102dff6505E
LBB8_16:
	movq	%r14, %rdi
	callq	__ZN4core3ptr13drop_in_place17h10cf9158194358b2E
	movq	%r15, %rdi
	callq	__Unwind_Resume
	ud2
LBB8_18:
Ltmp84:
	movq	%rax, %r15
LBB8_19:
	movq	%rbx, %rdi
	callq	__ZN4core3ptr13drop_in_place17hc18e08836af1a9f9E
	movq	%r15, %rdi
	callq	__Unwind_Resume
	ud2
Lfunc_end2:
	.cfi_endproc
	.section	__TEXT,__gcc_except_tab
	.p2align	2
GCC_except_table8:
Lexception2:
	.byte	255
	.byte	255
	.byte	1
	.uleb128 Lcst_end2-Lcst_begin2
Lcst_begin2:
	.uleb128 Ltmp66-Lfunc_begin2
	.uleb128 Ltmp67-Ltmp66
	.uleb128 Ltmp84-Lfunc_begin2
	.byte	0
	.uleb128 Ltmp73-Lfunc_begin2
	.uleb128 Ltmp74-Ltmp73
	.uleb128 Ltmp75-Lfunc_begin2
	.byte	0
	.uleb128 Ltmp76-Lfunc_begin2
	.uleb128 Ltmp77-Ltmp76
	.uleb128 Ltmp78-Lfunc_begin2
	.byte	0
	.uleb128 Ltmp77-Lfunc_begin2
	.uleb128 Ltmp79-Ltmp77
	.byte	0
	.byte	0
	.uleb128 Ltmp79-Lfunc_begin2
	.uleb128 Ltmp80-Ltmp79
	.uleb128 Ltmp81-Lfunc_begin2
	.byte	0
	.uleb128 Ltmp68-Lfunc_begin2
	.uleb128 Ltmp69-Ltmp68
	.uleb128 Ltmp70-Lfunc_begin2
	.byte	0
	.uleb128 Ltmp71-Lfunc_begin2
	.uleb128 Ltmp83-Ltmp71
	.uleb128 Ltmp84-Lfunc_begin2
	.byte	0
	.uleb128 Ltmp83-Lfunc_begin2
	.uleb128 Lfunc_end2-Ltmp83
	.byte	0
	.byte	0
Lcst_end2:
	.p2align	2

	.section	__TEXT,__text,regular,pure_instructions
	.p2align	4, 0x90
__ZN3std9panicking11begin_panic17hf08d41001c313b5aE:
	.cfi_startproc
	pushq	%rbp
	.cfi_def_cfa_offset 16
	.cfi_offset %rbp, -16
	movq	%rsp, %rbp
	.cfi_def_cfa_register %rbp
	subq	$16, %rsp
	movq	%rdi, -16(%rbp)
	movq	%rsi, -8(%rbp)
	movq	%rdx, %rdi
	callq	__ZN4core5panic8Location6caller17hf55c9a52d6249cfcE
	leaq	l___unnamed_17(%rip), %rsi
	leaq	-16(%rbp), %rdi
	xorl	%edx, %edx
	movq	%rax, %rcx
	callq	__ZN3std9panicking20rust_panic_with_hook17hf8b9378dd2e7986aE
	.cfi_endproc

	.p2align	4, 0x90
__ZN42_$LT$$RF$T$u20$as$u20$core..fmt..Debug$GT$3fmt17h08a3cdd158cdc8bfE:
	.cfi_startproc
	pushq	%rbp
	.cfi_def_cfa_offset 16
	.cfi_offset %rbp, -16
	movq	%rsp, %rbp
	.cfi_def_cfa_register %rbp
	pushq	%r14
	pushq	%rbx
	subq	$48, %rsp
	.cfi_offset %rbx, -32
	.cfi_offset %r14, -24
	movq	(%rdi), %rbx
	leaq	l___unnamed_4(%rip), %rdx
	leaq	-56(%rbp), %r14
	movq	%r14, %rdi
	xorl	%ecx, %ecx
	callq	__ZN4core3fmt9Formatter11debug_tuple17h15ca25ad759edd1cE
	movq	%rbx, -24(%rbp)
	addq	$24, %rbx
	movq	%rbx, -32(%rbp)
	leaq	l___unnamed_18(%rip), %rdx
	leaq	-24(%rbp), %rsi
	movq	%r14, %rdi
	callq	__ZN4core3fmt8builders10DebugTuple5field17hf36121153a94f236E
	leaq	l___unnamed_19(%rip), %rdx
	leaq	-32(%rbp), %rsi
	movq	%r14, %rdi
	callq	__ZN4core3fmt8builders10DebugTuple5field17hf36121153a94f236E
	movq	%r14, %rdi
	callq	__ZN4core3fmt8builders10DebugTuple6finish17h68acf09c6f6593f2E
	addq	$48, %rsp
	popq	%rbx
	popq	%r14
	popq	%rbp
	retq
	.cfi_endproc

	.p2align	4, 0x90
__ZN42_$LT$$RF$T$u20$as$u20$core..fmt..Debug$GT$3fmt17h0d134e831726e87dE:
	.cfi_startproc
	pushq	%rbp
	.cfi_def_cfa_offset 16
	.cfi_offset %rbp, -16
	movq	%rsp, %rbp
	.cfi_def_cfa_register %rbp
	pushq	%r15
	pushq	%r14
	pushq	%r13
	pushq	%r12
	pushq	%rbx
	subq	$24, %rsp
	.cfi_offset %rbx, -56
	.cfi_offset %r12, -48
	.cfi_offset %r13, -40
	.cfi_offset %r14, -32
	.cfi_offset %r15, -24
	movq	(%rdi), %rax
	movq	(%rax), %r13
	movq	16(%rax), %rbx
	leaq	-64(%rbp), %rdi
	callq	__ZN4core3fmt9Formatter10debug_list17hd054f0986422feb9E
	testq	%rbx, %rbx
	je	LBB11_3
	shlq	$3, %rbx
	leaq	(%rbx,%rbx,2), %rbx
	leaq	l___unnamed_18(%rip), %r14
	leaq	-64(%rbp), %r15
	leaq	-48(%rbp), %r12
	.p2align	4, 0x90
LBB11_2:
	movq	%r13, -48(%rbp)
	addq	$24, %r13
	movq	%r15, %rdi
	movq	%r12, %rsi
	movq	%r14, %rdx
	callq	__ZN4core3fmt8builders9DebugList5entry17h5c0dec54538196dfE
	addq	$-24, %rbx
	jne	LBB11_2
LBB11_3:
	leaq	-64(%rbp), %rdi
	callq	__ZN4core3fmt8builders9DebugList6finish17h3635bd6af9b1c5a6E
	addq	$24, %rsp
	popq	%rbx
	popq	%r12
	popq	%r13
	popq	%r14
	popq	%r15
	popq	%rbp
	retq
	.cfi_endproc

	.p2align	4, 0x90
__ZN42_$LT$$RF$T$u20$as$u20$core..fmt..Debug$GT$3fmt17h109dc126a3d929ecE:
	.cfi_startproc
	pushq	%rbp
	.cfi_def_cfa_offset 16
	.cfi_offset %rbp, -16
	movq	%rsp, %rbp
	.cfi_def_cfa_register %rbp
	movq	(%rdi), %rdi
	popq	%rbp
	jmp	__ZN63_$LT$std..ffi..os_str..OsString$u20$as$u20$core..fmt..Debug$GT$3fmt17h4501f882522330f8E
	.cfi_endproc

	.p2align	4, 0x90
__ZN42_$LT$$RF$T$u20$as$u20$core..fmt..Debug$GT$3fmt17h1f15846de71a3666E:
	.cfi_startproc
	pushq	%rbp
	.cfi_def_cfa_offset 16
	.cfi_offset %rbp, -16
	movq	%rsp, %rbp
	.cfi_def_cfa_register %rbp
	pushq	%r15
	pushq	%r14
	pushq	%r13
	pushq	%r12
	pushq	%rbx
	subq	$24, %rsp
	.cfi_offset %rbx, -56
	.cfi_offset %r12, -48
	.cfi_offset %r13, -40
	.cfi_offset %r14, -32
	.cfi_offset %r15, -24
	movq	(%rdi), %rax
	movq	(%rax), %r13
	movq	16(%rax), %rbx
	leaq	-64(%rbp), %rdi
	callq	__ZN4core3fmt9Formatter10debug_list17hd054f0986422feb9E
	testq	%rbx, %rbx
	je	LBB13_3
	shlq	$4, %rbx
	leaq	(%rbx,%rbx,2), %rbx
	leaq	l___unnamed_20(%rip), %r14
	leaq	-64(%rbp), %r15
	leaq	-48(%rbp), %r12
	.p2align	4, 0x90
LBB13_2:
	movq	%r13, -48(%rbp)
	addq	$48, %r13
	movq	%r15, %rdi
	movq	%r12, %rsi
	movq	%r14, %rdx
	callq	__ZN4core3fmt8builders9DebugList5entry17h5c0dec54538196dfE
	addq	$-48, %rbx
	jne	LBB13_2
LBB13_3:
	leaq	-64(%rbp), %rdi
	callq	__ZN4core3fmt8builders9DebugList6finish17h3635bd6af9b1c5a6E
	addq	$24, %rsp
	popq	%rbx
	popq	%r12
	popq	%r13
	popq	%r14
	popq	%r15
	popq	%rbp
	retq
	.cfi_endproc

	.p2align	4, 0x90
__ZN42_$LT$$RF$T$u20$as$u20$core..fmt..Debug$GT$3fmt17h3002620f5d96c096E:
	.cfi_startproc
	pushq	%rbp
	.cfi_def_cfa_offset 16
	.cfi_offset %rbp, -16
	movq	%rsp, %rbp
	.cfi_def_cfa_register %rbp
	movq	(%rdi), %rdi
	popq	%rbp
	jmp	__ZN55_$LT$std..path..PathBuf$u20$as$u20$core..fmt..Debug$GT$3fmt17h92c5eba17174a69fE
	.cfi_endproc

	.p2align	4, 0x90
__ZN42_$LT$$RF$T$u20$as$u20$core..fmt..Debug$GT$3fmt17h3079603523f28fc1E:
	.cfi_startproc
	pushq	%rbp
	.cfi_def_cfa_offset 16
	.cfi_offset %rbp, -16
	movq	%rsp, %rbp
	.cfi_def_cfa_register %rbp
	pushq	%r14
	pushq	%rbx
	subq	$32, %rsp
	.cfi_offset %rbx, -32
	.cfi_offset %r14, -24
	movq	(%rdi), %rbx
	cmpq	$0, (%rbx)
	je	LBB15_2
	leaq	-48(%rbp), %r14
	leaq	L___unnamed_21(%rip), %rdx
	movl	$4, %ecx
	movq	%r14, %rdi
	callq	__ZN4core3fmt9Formatter11debug_tuple17h15ca25ad759edd1cE
	movq	%rbx, -24(%rbp)
	leaq	l___unnamed_22(%rip), %rdx
	leaq	-24(%rbp), %rsi
	movq	%r14, %rdi
	callq	__ZN4core3fmt8builders10DebugTuple5field17hf36121153a94f236E
	jmp	LBB15_3
LBB15_2:
	leaq	-48(%rbp), %r14
	leaq	L___unnamed_23(%rip), %rdx
	movl	$4, %ecx
	movq	%r14, %rdi
	callq	__ZN4core3fmt9Formatter11debug_tuple17h15ca25ad759edd1cE
LBB15_3:
	movq	%r14, %rdi
	callq	__ZN4core3fmt8builders10DebugTuple6finish17h68acf09c6f6593f2E
	addq	$32, %rsp
	popq	%rbx
	popq	%r14
	popq	%rbp
	retq
	.cfi_endproc

	.p2align	4, 0x90
__ZN42_$LT$$RF$T$u20$as$u20$core..fmt..Debug$GT$3fmt17h424efd82760256ebE:
	.cfi_startproc
	pushq	%rbp
	.cfi_def_cfa_offset 16
	.cfi_offset %rbp, -16
	movq	%rsp, %rbp
	.cfi_def_cfa_register %rbp
	movq	(%rdi), %rdi
	popq	%rbp
	jmp	__ZN43_$LT$bool$u20$as$u20$core..fmt..Display$GT$3fmt17hf36463fa8b480ab4E
	.cfi_endproc

	.p2align	4, 0x90
__ZN42_$LT$$RF$T$u20$as$u20$core..fmt..Debug$GT$3fmt17h464e5e90537b5245E:
	.cfi_startproc
	pushq	%rbp
	.cfi_def_cfa_offset 16
	.cfi_offset %rbp, -16
	movq	%rsp, %rbp
	.cfi_def_cfa_register %rbp
	pushq	%r15
	pushq	%r14
	pushq	%r13
	pushq	%r12
	pushq	%rbx
	subq	$24, %rsp
	.cfi_offset %rbx, -56
	.cfi_offset %r12, -48
	.cfi_offset %r13, -40
	.cfi_offset %r14, -32
	.cfi_offset %r15, -24
	movq	(%rdi), %rax
	movq	(%rax), %r13
	movq	16(%rax), %rbx
	leaq	-64(%rbp), %rdi
	callq	__ZN4core3fmt9Formatter10debug_list17hd054f0986422feb9E
	testq	%rbx, %rbx
	je	LBB17_3
	shlq	$3, %rbx
	leaq	(%rbx,%rbx,2), %rbx
	leaq	l___unnamed_24(%rip), %r14
	leaq	-64(%rbp), %r15
	leaq	-48(%rbp), %r12
	.p2align	4, 0x90
LBB17_2:
	movq	%r13, -48(%rbp)
	addq	$24, %r13
	movq	%r15, %rdi
	movq	%r12, %rsi
	movq	%r14, %rdx
	callq	__ZN4core3fmt8builders9DebugList5entry17h5c0dec54538196dfE
	addq	$-24, %rbx
	jne	LBB17_2
LBB17_3:
	leaq	-64(%rbp), %rdi
	callq	__ZN4core3fmt8builders9DebugList6finish17h3635bd6af9b1c5a6E
	addq	$24, %rsp
	popq	%rbx
	popq	%r12
	popq	%r13
	popq	%r14
	popq	%r15
	popq	%rbp
	retq
	.cfi_endproc

	.p2align	4, 0x90
__ZN42_$LT$$RF$T$u20$as$u20$core..fmt..Debug$GT$3fmt17h503ca0115cbad1dcE:
	.cfi_startproc
	pushq	%rbp
	.cfi_def_cfa_offset 16
	.cfi_offset %rbp, -16
	movq	%rsp, %rbp
	.cfi_def_cfa_register %rbp
	pushq	%r15
	pushq	%r14
	pushq	%rbx
	subq	$40, %rsp
	.cfi_offset %rbx, -40
	.cfi_offset %r14, -32
	.cfi_offset %r15, -24
	movq	(%rdi), %rbx
	leaq	l___unnamed_4(%rip), %rdx
	leaq	-64(%rbp), %r15
	movq	%r15, %rdi
	xorl	%ecx, %ecx
	callq	__ZN4core3fmt9Formatter11debug_tuple17h15ca25ad759edd1cE
	movq	%rbx, -32(%rbp)
	addq	$24, %rbx
	movq	%rbx, -40(%rbp)
	leaq	l___unnamed_24(%rip), %r14
	leaq	-32(%rbp), %rsi
	movq	%r15, %rdi
	movq	%r14, %rdx
	callq	__ZN4core3fmt8builders10DebugTuple5field17hf36121153a94f236E
	leaq	-40(%rbp), %rsi
	movq	%r15, %rdi
	movq	%r14, %rdx
	callq	__ZN4core3fmt8builders10DebugTuple5field17hf36121153a94f236E
	movq	%r15, %rdi
	callq	__ZN4core3fmt8builders10DebugTuple6finish17h68acf09c6f6593f2E
	addq	$40, %rsp
	popq	%rbx
	popq	%r14
	popq	%r15
	popq	%rbp
	retq
	.cfi_endproc

	.p2align	4, 0x90
__ZN42_$LT$$RF$T$u20$as$u20$core..fmt..Debug$GT$3fmt17h5424dbcbed7b1d39E:
	.cfi_startproc
	pushq	%rbp
	.cfi_def_cfa_offset 16
	.cfi_offset %rbp, -16
	movq	%rsp, %rbp
	.cfi_def_cfa_register %rbp
	pushq	%r14
	pushq	%rbx
	subq	$32, %rsp
	.cfi_offset %rbx, -32
	.cfi_offset %r14, -24
	movq	(%rdi), %rbx
	cmpq	$0, (%rbx)
	je	LBB19_2
	leaq	-48(%rbp), %r14
	leaq	L___unnamed_21(%rip), %rdx
	movl	$4, %ecx
	movq	%r14, %rdi
	callq	__ZN4core3fmt9Formatter11debug_tuple17h15ca25ad759edd1cE
	movq	%rbx, -24(%rbp)
	leaq	l___unnamed_18(%rip), %rdx
	leaq	-24(%rbp), %rsi
	movq	%r14, %rdi
	callq	__ZN4core3fmt8builders10DebugTuple5field17hf36121153a94f236E
	jmp	LBB19_3
LBB19_2:
	leaq	-48(%rbp), %r14
	leaq	L___unnamed_23(%rip), %rdx
	movl	$4, %ecx
	movq	%r14, %rdi
	callq	__ZN4core3fmt9Formatter11debug_tuple17h15ca25ad759edd1cE
LBB19_3:
	movq	%r14, %rdi
	callq	__ZN4core3fmt8builders10DebugTuple6finish17h68acf09c6f6593f2E
	addq	$32, %rsp
	popq	%rbx
	popq	%r14
	popq	%rbp
	retq
	.cfi_endproc

	.p2align	4, 0x90
__ZN42_$LT$$RF$T$u20$as$u20$core..fmt..Debug$GT$3fmt17h5db63d580b459160E:
	.cfi_startproc
	pushq	%rbp
	.cfi_def_cfa_offset 16
	.cfi_offset %rbp, -16
	movq	%rsp, %rbp
	.cfi_def_cfa_register %rbp
	movq	(%rdi), %rdi
	popq	%rbp
	jmp	__ZN50_$LT$cc..ErrorKind$u20$as$u20$core..fmt..Debug$GT$3fmt17h749f4f7e5532ead8E
	.cfi_endproc

	.p2align	4, 0x90
__ZN42_$LT$$RF$T$u20$as$u20$core..fmt..Debug$GT$3fmt17h5fe6a9073bca1ca3E:
	.cfi_startproc
	pushq	%rbp
	.cfi_def_cfa_offset 16
	.cfi_offset %rbp, -16
	movq	%rsp, %rbp
	.cfi_def_cfa_register %rbp
	pushq	%r15
	pushq	%r14
	pushq	%r13
	pushq	%r12
	pushq	%rbx
	subq	$24, %rsp
	.cfi_offset %rbx, -56
	.cfi_offset %r12, -48
	.cfi_offset %r13, -40
	.cfi_offset %r14, -32
	.cfi_offset %r15, -24
	movq	(%rdi), %rax
	movq	(%rax), %r13
	movq	16(%rax), %rbx
	leaq	-64(%rbp), %rdi
	callq	__ZN4core3fmt9Formatter10debug_list17hd054f0986422feb9E
	testq	%rbx, %rbx
	je	LBB21_3
	shlq	$4, %rbx
	leaq	(%rbx,%rbx,2), %rbx
	leaq	l___unnamed_25(%rip), %r14
	leaq	-64(%rbp), %r15
	leaq	-48(%rbp), %r12
	.p2align	4, 0x90
LBB21_2:
	movq	%r13, -48(%rbp)
	addq	$48, %r13
	movq	%r15, %rdi
	movq	%r12, %rsi
	movq	%r14, %rdx
	callq	__ZN4core3fmt8builders9DebugList5entry17h5c0dec54538196dfE
	addq	$-48, %rbx
	jne	LBB21_2
LBB21_3:
	leaq	-64(%rbp), %rdi
	callq	__ZN4core3fmt8builders9DebugList6finish17h3635bd6af9b1c5a6E
	addq	$24, %rsp
	popq	%rbx
	popq	%r12
	popq	%r13
	popq	%r14
	popq	%r15
	popq	%rbp
	retq
	.cfi_endproc

	.p2align	4, 0x90
__ZN42_$LT$$RF$T$u20$as$u20$core..fmt..Debug$GT$3fmt17h62b80e3bbd1110ceE:
	.cfi_startproc
	pushq	%rbp
	.cfi_def_cfa_offset 16
	.cfi_offset %rbp, -16
	movq	%rsp, %rbp
	.cfi_def_cfa_register %rbp
	movq	%rsi, %rdx
	movq	(%rdi), %rax
	movq	8(%rdi), %rsi
	movq	%rax, %rdi
	popq	%rbp
	jmp	__ZN40_$LT$str$u20$as$u20$core..fmt..Debug$GT$3fmt17h2760aab2290546fcE
	.cfi_endproc

	.p2align	4, 0x90
__ZN42_$LT$$RF$T$u20$as$u20$core..fmt..Debug$GT$3fmt17h64712e95d0998f7aE:
	.cfi_startproc
	pushq	%rbp
	.cfi_def_cfa_offset 16
	.cfi_offset %rbp, -16
	movq	%rsp, %rbp
	.cfi_def_cfa_register %rbp
	pushq	%r15
	pushq	%r14
	pushq	%r13
	pushq	%r12
	pushq	%rbx
	subq	$40, %rsp
	.cfi_offset %rbx, -56
	.cfi_offset %r12, -48
	.cfi_offset %r13, -40
	.cfi_offset %r14, -32
	.cfi_offset %r15, -24
	movq	(%rdi), %rbx
	leaq	-72(%rbp), %r12
	movq	%r12, %rdi
	callq	__ZN4core3fmt9Formatter9debug_map17h5cea039dab7ad6bbE
	movq	32(%rbx), %r14
	movq	16(%rbx), %rax
	movq	24(%rbx), %r15
	movq	%r12, %rbx
	leaq	1(%rax,%r15), %r12
	vmovdqa	(%r15), %xmm0
	vpmovmskb	%xmm0, %r13d
	notl	%r13d
	addq	$16, %r15
	testw	%r13w, %r13w
	jne	LBB23_5
	.p2align	4, 0x90
LBB23_2:
	cmpq	%r12, %r15
	jae	LBB23_7
	vmovdqa	(%r15), %xmm0
	vpmovmskb	%xmm0, %r13d
	addq	$768, %r14
	addq	$16, %r15
	cmpw	$-1, %r13w
	je	LBB23_2
	notl	%r13d
LBB23_5:
	tzcntw	%r13w, %ax
	movzwl	%ax, %eax
	leaq	(%rax,%rax,2), %rax
	shlq	$4, %rax
	movq	%r14, %rcx
	addq	%rax, %rcx
	je	LBB23_7
	blsrl	%r13d, %r13d
	addq	%r14, %rax
	addq	$24, %rax
	movq	%rcx, -48(%rbp)
	movq	%rax, -56(%rbp)
	movq	%rbx, %rdi
	leaq	-48(%rbp), %rsi
	leaq	l___unnamed_18(%rip), %rdx
	leaq	-56(%rbp), %rcx
	leaq	l___unnamed_19(%rip), %r8
	callq	__ZN4core3fmt8builders8DebugMap5entry17h653834b3ad194ffcE
	testw	%r13w, %r13w
	jne	LBB23_5
	jmp	LBB23_2
LBB23_7:
	leaq	-72(%rbp), %rdi
	callq	__ZN4core3fmt8builders8DebugMap6finish17h655b3836bbc58824E
	addq	$40, %rsp
	popq	%rbx
	popq	%r12
	popq	%r13
	popq	%r14
	popq	%r15
	popq	%rbp
	retq
	.cfi_endproc

	.p2align	4, 0x90
__ZN42_$LT$$RF$T$u20$as$u20$core..fmt..Debug$GT$3fmt17h669d73aee9c25433E:
	.cfi_startproc
	pushq	%rbp
	.cfi_def_cfa_offset 16
	.cfi_offset %rbp, -16
	movq	%rsp, %rbp
	.cfi_def_cfa_register %rbp
	pushq	%r14
	pushq	%rbx
	subq	$32, %rsp
	.cfi_offset %rbx, -32
	.cfi_offset %r14, -24
	movq	(%rdi), %rbx
	cmpq	$1, (%rbx)
	jne	LBB24_2
	addq	$8, %rbx
	leaq	-48(%rbp), %r14
	leaq	L___unnamed_21(%rip), %rdx
	movl	$4, %ecx
	movq	%r14, %rdi
	callq	__ZN4core3fmt9Formatter11debug_tuple17h15ca25ad759edd1cE
	movq	%rbx, -24(%rbp)
	leaq	l___unnamed_19(%rip), %rdx
	leaq	-24(%rbp), %rsi
	movq	%r14, %rdi
	callq	__ZN4core3fmt8builders10DebugTuple5field17hf36121153a94f236E
	jmp	LBB24_3
LBB24_2:
	leaq	-48(%rbp), %r14
	leaq	L___unnamed_23(%rip), %rdx
	movl	$4, %ecx
	movq	%r14, %rdi
	callq	__ZN4core3fmt9Formatter11debug_tuple17h15ca25ad759edd1cE
LBB24_3:
	movq	%r14, %rdi
	callq	__ZN4core3fmt8builders10DebugTuple6finish17h68acf09c6f6593f2E
	addq	$32, %rsp
	popq	%rbx
	popq	%r14
	popq	%rbp
	retq
	.cfi_endproc

	.p2align	4, 0x90
__ZN42_$LT$$RF$T$u20$as$u20$core..fmt..Debug$GT$3fmt17h7453b83932b80b22E:
	.cfi_startproc
	pushq	%rbp
	.cfi_def_cfa_offset 16
	.cfi_offset %rbp, -16
	movq	%rsp, %rbp
	.cfi_def_cfa_register %rbp
	pushq	%r15
	pushq	%r14
	pushq	%r13
	pushq	%r12
	pushq	%rbx
	subq	$24, %rsp
	.cfi_offset %rbx, -56
	.cfi_offset %r12, -48
	.cfi_offset %r13, -40
	.cfi_offset %r14, -32
	.cfi_offset %r15, -24
	movq	(%rdi), %rax
	movq	(%rax), %r13
	movq	16(%rax), %rbx
	leaq	-64(%rbp), %rdi
	callq	__ZN4core3fmt9Formatter10debug_list17hd054f0986422feb9E
	testq	%rbx, %rbx
	je	LBB25_3
	shlq	$3, %rbx
	leaq	(%rbx,%rbx,2), %rbx
	leaq	l___unnamed_22(%rip), %r14
	leaq	-64(%rbp), %r15
	leaq	-48(%rbp), %r12
	.p2align	4, 0x90
LBB25_2:
	movq	%r13, -48(%rbp)
	addq	$24, %r13
	movq	%r15, %rdi
	movq	%r12, %rsi
	movq	%r14, %rdx
	callq	__ZN4core3fmt8builders9DebugList5entry17h5c0dec54538196dfE
	addq	$-24, %rbx
	jne	LBB25_2
LBB25_3:
	leaq	-64(%rbp), %rdi
	callq	__ZN4core3fmt8builders9DebugList6finish17h3635bd6af9b1c5a6E
	addq	$24, %rsp
	popq	%rbx
	popq	%r12
	popq	%r13
	popq	%r14
	popq	%r15
	popq	%rbp
	retq
	.cfi_endproc

	.p2align	4, 0x90
__ZN42_$LT$$RF$T$u20$as$u20$core..fmt..Debug$GT$3fmt17h85a8667067363a4bE:
	.cfi_startproc
	pushq	%rbp
	.cfi_def_cfa_offset 16
	.cfi_offset %rbp, -16
	movq	%rsp, %rbp
	.cfi_def_cfa_register %rbp
	pushq	%r15
	pushq	%r14
	pushq	%r13
	pushq	%r12
	pushq	%rbx
	subq	$40, %rsp
	.cfi_offset %rbx, -56
	.cfi_offset %r12, -48
	.cfi_offset %r13, -40
	.cfi_offset %r14, -32
	.cfi_offset %r15, -24
	movq	(%rdi), %rbx
	leaq	-72(%rbp), %r12
	movq	%r12, %rdi
	callq	__ZN4core3fmt9Formatter9debug_map17h5cea039dab7ad6bbE
	movq	32(%rbx), %r14
	movq	16(%rbx), %rax
	movq	24(%rbx), %r15
	movq	%r12, %rbx
	leaq	1(%rax,%r15), %r12
	vmovdqa	(%r15), %xmm0
	vpmovmskb	%xmm0, %r13d
	notl	%r13d
	addq	$16, %r15
	testw	%r13w, %r13w
	jne	LBB26_5
	.p2align	4, 0x90
LBB26_2:
	cmpq	%r12, %r15
	jae	LBB26_7
	vmovdqa	(%r15), %xmm0
	vpmovmskb	%xmm0, %r13d
	addq	$512, %r14
	addq	$16, %r15
	cmpw	$-1, %r13w
	je	LBB26_2
	notl	%r13d
LBB26_5:
	tzcntw	%r13w, %ax
	movzwl	%ax, %eax
	shlq	$5, %rax
	movq	%r14, %rcx
	addq	%rax, %rcx
	je	LBB26_7
	blsrl	%r13d, %r13d
	addq	%r14, %rax
	addq	$24, %rax
	movq	%rcx, -48(%rbp)
	movq	%rax, -56(%rbp)
	movq	%rbx, %rdi
	leaq	-48(%rbp), %rsi
	leaq	l___unnamed_18(%rip), %rdx
	leaq	-56(%rbp), %rcx
	leaq	l___unnamed_26(%rip), %r8
	callq	__ZN4core3fmt8builders8DebugMap5entry17h653834b3ad194ffcE
	testw	%r13w, %r13w
	jne	LBB26_5
	jmp	LBB26_2
LBB26_7:
	leaq	-72(%rbp), %rdi
	callq	__ZN4core3fmt8builders8DebugMap6finish17h655b3836bbc58824E
	addq	$40, %rsp
	popq	%rbx
	popq	%r12
	popq	%r13
	popq	%r14
	popq	%r15
	popq	%rbp
	retq
	.cfi_endproc

	.p2align	4, 0x90
__ZN42_$LT$$RF$T$u20$as$u20$core..fmt..Debug$GT$3fmt17h97a3d40d4e7ad65cE:
Lfunc_begin3:
	.cfi_startproc
	.cfi_personality 155, _rust_eh_personality
	.cfi_lsda 16, Lexception3
	pushq	%rbp
	.cfi_def_cfa_offset 16
	.cfi_offset %rbp, -16
	movq	%rsp, %rbp
	.cfi_def_cfa_register %rbp
	pushq	%r15
	pushq	%r14
	pushq	%r12
	pushq	%rbx
	subq	$48, %rsp
	.cfi_offset %rbx, -48
	.cfi_offset %r12, -40
	.cfi_offset %r14, -32
	.cfi_offset %r15, -24
	movq	%rsi, %rbx
	movq	(%rdi), %rax
	movq	(%rax), %r15
	movq	16(%r15), %rdi
	callq	_pthread_mutex_trylock
	testl	%eax, %eax
	je	LBB27_1
Ltmp85:
	leaq	l___unnamed_27(%rip), %rdx
	leaq	-72(%rbp), %rdi
	movl	$5, %ecx
	movq	%rbx, %rsi
	callq	__ZN4core3fmt9Formatter12debug_struct17h985c0158d1fc7193E
Ltmp86:
Ltmp87:
	leaq	L___unnamed_28(%rip), %rsi
	leaq	l___unnamed_4(%rip), %rcx
	leaq	l___unnamed_29(%rip), %r8
	leaq	-72(%rbp), %rdi
	movl	$4, %edx
	callq	__ZN4core3fmt8builders11DebugStruct5field17h9c15dc155278eed2E
Ltmp88:
Ltmp89:
	movq	%rax, %rdi
	callq	__ZN4core3fmt8builders11DebugStruct6finish17h26808393f3fed630E
Ltmp90:
	movl	%eax, %ebx
	jmp	LBB27_10
LBB27_1:
	leaq	16(%r15), %r12
	callq	__ZN3std9panicking9panicking17h6f800ddc6c0d9b77E
	movl	%eax, %r14d
	movb	24(%r15), %al
	testb	%al, %al
	je	LBB27_2
	movq	%r12, -56(%rbp)
	movb	%r14b, -48(%rbp)
Ltmp91:
	leaq	l___unnamed_27(%rip), %rdx
	leaq	-72(%rbp), %rdi
	movl	$5, %ecx
	movq	%rbx, %rsi
	callq	__ZN4core3fmt9Formatter12debug_struct17h985c0158d1fc7193E
Ltmp92:
	leaq	32(%r15), %rax
	movq	%rax, -40(%rbp)
Ltmp93:
	leaq	L___unnamed_28(%rip), %rsi
	leaq	l___unnamed_30(%rip), %r8
	leaq	-72(%rbp), %rdi
	leaq	-40(%rbp), %rcx
	movl	$4, %edx
	callq	__ZN4core3fmt8builders11DebugStruct5field17h9c15dc155278eed2E
Ltmp94:
Ltmp95:
	movq	%rax, %rdi
	callq	__ZN4core3fmt8builders11DebugStruct6finish17h26808393f3fed630E
Ltmp96:
	movl	%eax, %ebx
	testb	%r14b, %r14b
	jne	LBB27_9
Ltmp98:
	callq	__ZN3std9panicking9panicking17h6f800ddc6c0d9b77E
Ltmp99:
LBB27_7:
	testb	%al, %al
	je	LBB27_9
	movb	$1, 24(%r15)
	jmp	LBB27_9
LBB27_2:
	movq	%r12, -56(%rbp)
	movb	%r14b, -48(%rbp)
Ltmp100:
	leaq	l___unnamed_27(%rip), %rdx
	leaq	-72(%rbp), %rdi
	movl	$5, %ecx
	movq	%rbx, %rsi
	callq	__ZN4core3fmt9Formatter12debug_struct17h985c0158d1fc7193E
Ltmp101:
	leaq	32(%r15), %rax
	movq	%rax, -40(%rbp)
Ltmp102:
	leaq	L___unnamed_28(%rip), %rsi
	leaq	l___unnamed_30(%rip), %r8
	leaq	-72(%rbp), %rdi
	leaq	-40(%rbp), %rcx
	movl	$4, %edx
	callq	__ZN4core3fmt8builders11DebugStruct5field17h9c15dc155278eed2E
Ltmp103:
Ltmp104:
	movq	%rax, %rdi
	callq	__ZN4core3fmt8builders11DebugStruct6finish17h26808393f3fed630E
Ltmp105:
	movl	%eax, %ebx
	testb	%r14b, %r14b
	je	LBB27_6
LBB27_9:
	movq	(%r12), %rdi
	callq	_pthread_mutex_unlock
LBB27_10:
	movl	%ebx, %eax
	addq	$48, %rsp
	popq	%rbx
	popq	%r12
	popq	%r14
	popq	%r15
	popq	%rbp
	retq
LBB27_6:
Ltmp107:
	callq	__ZN3std9panicking9panicking17h6f800ddc6c0d9b77E
Ltmp108:
	jmp	LBB27_7
LBB27_23:
Ltmp106:
	movq	%rax, %rbx
	leaq	-56(%rbp), %rdi
	callq	__ZN4core3ptr13drop_in_place17h102bbd68b7a73de0E
	movq	%rbx, %rdi
	callq	__Unwind_Resume
	ud2
LBB27_21:
Ltmp97:
	movq	%rax, %rbx
	leaq	-56(%rbp), %rdi
	callq	__ZN4core3ptr13drop_in_place17h53aed27438ad4866E
	movq	%rbx, %rdi
	callq	__Unwind_Resume
	ud2
LBB27_20:
Ltmp109:
	movq	%rax, %rbx
	movq	%rbx, %rdi
	callq	__Unwind_Resume
	ud2
Lfunc_end3:
	.cfi_endproc
	.section	__TEXT,__gcc_except_tab
	.p2align	2
GCC_except_table27:
Lexception3:
	.byte	255
	.byte	255
	.byte	1
	.uleb128 Lcst_end3-Lcst_begin3
Lcst_begin3:
	.uleb128 Ltmp85-Lfunc_begin3
	.uleb128 Ltmp90-Ltmp85
	.uleb128 Ltmp109-Lfunc_begin3
	.byte	0
	.uleb128 Ltmp90-Lfunc_begin3
	.uleb128 Ltmp91-Ltmp90
	.byte	0
	.byte	0
	.uleb128 Ltmp91-Lfunc_begin3
	.uleb128 Ltmp96-Ltmp91
	.uleb128 Ltmp97-Lfunc_begin3
	.byte	0
	.uleb128 Ltmp98-Lfunc_begin3
	.uleb128 Ltmp99-Ltmp98
	.uleb128 Ltmp109-Lfunc_begin3
	.byte	0
	.uleb128 Ltmp100-Lfunc_begin3
	.uleb128 Ltmp105-Ltmp100
	.uleb128 Ltmp106-Lfunc_begin3
	.byte	0
	.uleb128 Ltmp107-Lfunc_begin3
	.uleb128 Ltmp108-Ltmp107
	.uleb128 Ltmp109-Lfunc_begin3
	.byte	0
	.uleb128 Ltmp108-Lfunc_begin3
	.uleb128 Lfunc_end3-Ltmp108
	.byte	0
	.byte	0
Lcst_end3:
	.p2align	2

	.section	__TEXT,__text,regular,pure_instructions
	.p2align	4, 0x90
__ZN42_$LT$$RF$T$u20$as$u20$core..fmt..Debug$GT$3fmt17hafcbd9fd3958162eE:
	.cfi_startproc
	pushq	%rbp
	.cfi_def_cfa_offset 16
	.cfi_offset %rbp, -16
	movq	%rsp, %rbp
	.cfi_def_cfa_register %rbp
	movq	(%rdi), %rdi
	popq	%rbp
	jmp	__ZN51_$LT$cc..ToolFamily$u20$as$u20$core..fmt..Debug$GT$3fmt17h90c58ad61ece2702E
	.cfi_endproc

	.p2align	4, 0x90
__ZN42_$LT$$RF$T$u20$as$u20$core..fmt..Debug$GT$3fmt17hb41c6a4ac704eab3E:
Lfunc_begin4:
	.cfi_startproc
	.cfi_personality 155, _rust_eh_personality
	.cfi_lsda 16, Lexception4
	pushq	%rbp
	.cfi_def_cfa_offset 16
	.cfi_offset %rbp, -16
	movq	%rsp, %rbp
	.cfi_def_cfa_register %rbp
	pushq	%r15
	pushq	%r14
	pushq	%r12
	pushq	%rbx
	subq	$48, %rsp
	.cfi_offset %rbx, -48
	.cfi_offset %r12, -40
	.cfi_offset %r14, -32
	.cfi_offset %r15, -24
	movq	%rsi, %rbx
	movq	(%rdi), %rax
	movq	(%rax), %r15
	movq	16(%r15), %rdi
	callq	_pthread_mutex_trylock
	testl	%eax, %eax
	je	LBB29_1
Ltmp110:
	leaq	l___unnamed_27(%rip), %rdx
	leaq	-72(%rbp), %rdi
	movl	$5, %ecx
	movq	%rbx, %rsi
	callq	__ZN4core3fmt9Formatter12debug_struct17h985c0158d1fc7193E
Ltmp111:
Ltmp112:
	leaq	L___unnamed_28(%rip), %rsi
	leaq	l___unnamed_4(%rip), %rcx
	leaq	l___unnamed_29(%rip), %r8
	leaq	-72(%rbp), %rdi
	movl	$4, %edx
	callq	__ZN4core3fmt8builders11DebugStruct5field17h9c15dc155278eed2E
Ltmp113:
Ltmp114:
	movq	%rax, %rdi
	callq	__ZN4core3fmt8builders11DebugStruct6finish17h26808393f3fed630E
Ltmp115:
	movl	%eax, %ebx
	jmp	LBB29_10
LBB29_1:
	leaq	16(%r15), %r12
	callq	__ZN3std9panicking9panicking17h6f800ddc6c0d9b77E
	movl	%eax, %r14d
	movb	24(%r15), %al
	testb	%al, %al
	je	LBB29_2
	movq	%r12, -56(%rbp)
	movb	%r14b, -48(%rbp)
Ltmp116:
	leaq	l___unnamed_27(%rip), %rdx
	leaq	-72(%rbp), %rdi
	movl	$5, %ecx
	movq	%rbx, %rsi
	callq	__ZN4core3fmt9Formatter12debug_struct17h985c0158d1fc7193E
Ltmp117:
	leaq	32(%r15), %rax
	movq	%rax, -40(%rbp)
Ltmp118:
	leaq	L___unnamed_28(%rip), %rsi
	leaq	l___unnamed_31(%rip), %r8
	leaq	-72(%rbp), %rdi
	leaq	-40(%rbp), %rcx
	movl	$4, %edx
	callq	__ZN4core3fmt8builders11DebugStruct5field17h9c15dc155278eed2E
Ltmp119:
Ltmp120:
	movq	%rax, %rdi
	callq	__ZN4core3fmt8builders11DebugStruct6finish17h26808393f3fed630E
Ltmp121:
	movl	%eax, %ebx
	testb	%r14b, %r14b
	jne	LBB29_9
Ltmp123:
	callq	__ZN3std9panicking9panicking17h6f800ddc6c0d9b77E
Ltmp124:
LBB29_7:
	testb	%al, %al
	je	LBB29_9
	movb	$1, 24(%r15)
	jmp	LBB29_9
LBB29_2:
	movq	%r12, -56(%rbp)
	movb	%r14b, -48(%rbp)
Ltmp125:
	leaq	l___unnamed_27(%rip), %rdx
	leaq	-72(%rbp), %rdi
	movl	$5, %ecx
	movq	%rbx, %rsi
	callq	__ZN4core3fmt9Formatter12debug_struct17h985c0158d1fc7193E
Ltmp126:
	leaq	32(%r15), %rax
	movq	%rax, -40(%rbp)
Ltmp127:
	leaq	L___unnamed_28(%rip), %rsi
	leaq	l___unnamed_31(%rip), %r8
	leaq	-72(%rbp), %rdi
	leaq	-40(%rbp), %rcx
	movl	$4, %edx
	callq	__ZN4core3fmt8builders11DebugStruct5field17h9c15dc155278eed2E
Ltmp128:
Ltmp129:
	movq	%rax, %rdi
	callq	__ZN4core3fmt8builders11DebugStruct6finish17h26808393f3fed630E
Ltmp130:
	movl	%eax, %ebx
	testb	%r14b, %r14b
	je	LBB29_6
LBB29_9:
	movq	(%r12), %rdi
	callq	_pthread_mutex_unlock
LBB29_10:
	movl	%ebx, %eax
	addq	$48, %rsp
	popq	%rbx
	popq	%r12
	popq	%r14
	popq	%r15
	popq	%rbp
	retq
LBB29_6:
Ltmp132:
	callq	__ZN3std9panicking9panicking17h6f800ddc6c0d9b77E
Ltmp133:
	jmp	LBB29_7
LBB29_23:
Ltmp131:
	movq	%rax, %rbx
	leaq	-56(%rbp), %rdi
	callq	__ZN4core3ptr13drop_in_place17h102bbd68b7a73de0E
	movq	%rbx, %rdi
	callq	__Unwind_Resume
	ud2
LBB29_21:
Ltmp122:
	movq	%rax, %rbx
	leaq	-56(%rbp), %rdi
	callq	__ZN4core3ptr13drop_in_place17h53aed27438ad4866E
	movq	%rbx, %rdi
	callq	__Unwind_Resume
	ud2
LBB29_20:
Ltmp134:
	movq	%rax, %rbx
	movq	%rbx, %rdi
	callq	__Unwind_Resume
	ud2
Lfunc_end4:
	.cfi_endproc
	.section	__TEXT,__gcc_except_tab
	.p2align	2
GCC_except_table29:
Lexception4:
	.byte	255
	.byte	255
	.byte	1
	.uleb128 Lcst_end4-Lcst_begin4
Lcst_begin4:
	.uleb128 Ltmp110-Lfunc_begin4
	.uleb128 Ltmp115-Ltmp110
	.uleb128 Ltmp134-Lfunc_begin4
	.byte	0
	.uleb128 Ltmp115-Lfunc_begin4
	.uleb128 Ltmp116-Ltmp115
	.byte	0
	.byte	0
	.uleb128 Ltmp116-Lfunc_begin4
	.uleb128 Ltmp121-Ltmp116
	.uleb128 Ltmp122-Lfunc_begin4
	.byte	0
	.uleb128 Ltmp123-Lfunc_begin4
	.uleb128 Ltmp124-Ltmp123
	.uleb128 Ltmp134-Lfunc_begin4
	.byte	0
	.uleb128 Ltmp125-Lfunc_begin4
	.uleb128 Ltmp130-Ltmp125
	.uleb128 Ltmp131-Lfunc_begin4
	.byte	0
	.uleb128 Ltmp132-Lfunc_begin4
	.uleb128 Ltmp133-Ltmp132
	.uleb128 Ltmp134-Lfunc_begin4
	.byte	0
	.uleb128 Ltmp133-Lfunc_begin4
	.uleb128 Lfunc_end4-Ltmp133
	.byte	0
	.byte	0
Lcst_end4:
	.p2align	2

	.section	__TEXT,__text,regular,pure_instructions
	.p2align	4, 0x90
__ZN42_$LT$$RF$T$u20$as$u20$core..fmt..Debug$GT$3fmt17hd121ce19d3b6fd1aE:
	.cfi_startproc
	pushq	%rbp
	.cfi_def_cfa_offset 16
	.cfi_offset %rbp, -16
	movq	%rsp, %rbp
	.cfi_def_cfa_register %rbp
	pushq	%r14
	pushq	%rbx
	subq	$32, %rsp
	.cfi_offset %rbx, -32
	.cfi_offset %r14, -24
	movq	(%rdi), %rbx
	cmpb	$2, (%rbx)
	jne	LBB30_1
	leaq	-48(%rbp), %r14
	leaq	L___unnamed_23(%rip), %rdx
	movl	$4, %ecx
	movq	%r14, %rdi
	callq	__ZN4core3fmt9Formatter11debug_tuple17h15ca25ad759edd1cE
	jmp	LBB30_3
LBB30_1:
	leaq	-48(%rbp), %r14
	leaq	L___unnamed_21(%rip), %rdx
	movl	$4, %ecx
	movq	%r14, %rdi
	callq	__ZN4core3fmt9Formatter11debug_tuple17h15ca25ad759edd1cE
	movq	%rbx, -24(%rbp)
	leaq	l___unnamed_26(%rip), %rdx
	leaq	-24(%rbp), %rsi
	movq	%r14, %rdi
	callq	__ZN4core3fmt8builders10DebugTuple5field17hf36121153a94f236E
LBB30_3:
	movq	%r14, %rdi
	callq	__ZN4core3fmt8builders10DebugTuple6finish17h68acf09c6f6593f2E
	addq	$32, %rsp
	popq	%rbx
	popq	%r14
	popq	%rbp
	retq
	.cfi_endproc

	.p2align	4, 0x90
__ZN42_$LT$$RF$T$u20$as$u20$core..fmt..Debug$GT$3fmt17he151cfa9d09bfad1E:
	.cfi_startproc
	pushq	%rbp
	.cfi_def_cfa_offset 16
	.cfi_offset %rbp, -16
	movq	%rsp, %rbp
	.cfi_def_cfa_register %rbp
	movq	%rsi, %rdx
	movq	(%rdi), %rax
	movq	(%rax), %rdi
	movq	16(%rax), %rsi
	popq	%rbp
	jmp	__ZN40_$LT$str$u20$as$u20$core..fmt..Debug$GT$3fmt17h2760aab2290546fcE
	.cfi_endproc

	.p2align	4, 0x90
__ZN44_$LT$$RF$T$u20$as$u20$core..fmt..Display$GT$3fmt17h4238b9224c639d00E:
	.cfi_startproc
	pushq	%rbp
	.cfi_def_cfa_offset 16
	.cfi_offset %rbp, -16
	movq	%rsp, %rbp
	.cfi_def_cfa_register %rbp
	movq	(%rdi), %rdi
	popq	%rbp
	jmp	__ZN4core3fmt3num3imp52_$LT$impl$u20$core..fmt..Display$u20$for$u20$u32$GT$3fmt17h8cb3163b2d7e102aE
	.cfi_endproc

	.p2align	4, 0x90
__ZN44_$LT$$RF$T$u20$as$u20$core..fmt..Display$GT$3fmt17h8def799cc0c79004E:
	.cfi_startproc
	pushq	%rbp
	.cfi_def_cfa_offset 16
	.cfi_offset %rbp, -16
	movq	%rsp, %rbp
	.cfi_def_cfa_register %rbp
	movq	%rsi, %rdx
	movq	(%rdi), %rax
	movq	8(%rdi), %rsi
	movq	%rax, %rdi
	popq	%rbp
	jmp	__ZN42_$LT$str$u20$as$u20$core..fmt..Display$GT$3fmt17hd4dee1c1c4ccf892E
	.cfi_endproc

	.p2align	4, 0x90
__ZN44_$LT$$RF$T$u20$as$u20$core..fmt..Display$GT$3fmt17had08ab481d9a84e7E:
	.cfi_startproc
	pushq	%rbp
	.cfi_def_cfa_offset 16
	.cfi_offset %rbp, -16
	movq	%rsp, %rbp
	.cfi_def_cfa_register %rbp
	movq	%rsi, %rdx
	movq	(%rdi), %rax
	movq	(%rax), %rdi
	movq	16(%rax), %rsi
	popq	%rbp
	jmp	__ZN42_$LT$str$u20$as$u20$core..fmt..Display$GT$3fmt17hd4dee1c1c4ccf892E
	.cfi_endproc

	.p2align	4, 0x90
__ZN44_$LT$$RF$T$u20$as$u20$core..fmt..Display$GT$3fmt17hd227fc06ba1bdb49E:
	.cfi_startproc
	pushq	%rbp
	.cfi_def_cfa_offset 16
	.cfi_offset %rbp, -16
	movq	%rsp, %rbp
	.cfi_def_cfa_register %rbp
	movq	%rsi, %rdx
	movq	(%rdi), %rax
	movq	(%rax), %rdi
	movq	8(%rax), %rsi
	popq	%rbp
	jmp	__ZN42_$LT$str$u20$as$u20$core..fmt..Display$GT$3fmt17hd4dee1c1c4ccf892E
	.cfi_endproc

	.p2align	4, 0x90
__ZN44_$LT$T$u20$as$u20$alloc..borrow..ToOwned$GT$8to_owned17h747b504e34ac9de2E:
	.cfi_startproc
	pushq	%rbp
	.cfi_def_cfa_offset 16
	.cfi_offset %rbp, -16
	movq	%rsp, %rbp
	.cfi_def_cfa_register %rbp
	pushq	%r15
	pushq	%r14
	pushq	%r13
	pushq	%r12
	pushq	%rbx
	pushq	%rax
	.cfi_offset %rbx, -56
	.cfi_offset %r12, -48
	.cfi_offset %r13, -40
	.cfi_offset %r14, -32
	.cfi_offset %r15, -24
	movq	%rdi, %r14
	movq	(%rsi), %r15
	movq	16(%rsi), %r13
	testq	%r13, %r13
	je	LBB36_1
	movl	$1, %esi
	movq	%r13, %rdi
	callq	___rust_alloc
	testq	%rax, %rax
	je	LBB36_14
	movq	%rax, %r12
	movq	%r13, %rbx
	cmpq	%r13, %rbx
	jb	LBB36_5
	jmp	LBB36_13
LBB36_1:
	movl	$1, %r12d
	xorl	%ebx, %ebx
	cmpq	%r13, %rbx
	jae	LBB36_13
LBB36_5:
	movq	%r15, -48(%rbp)
	leaq	(%rbx,%rbx), %r15
	cmpq	%r13, %r15
	cmovbeq	%r13, %r15
	testq	%rbx, %rbx
	je	LBB36_9
	testq	%r12, %r12
	je	LBB36_9
	cmpq	%r15, %rbx
	je	LBB36_12
	movl	$1, %edx
	movq	%r12, %rdi
	movq	%rbx, %rsi
	movq	%r15, %rcx
	callq	___rust_realloc
	movq	%rax, %r12
	testq	%rax, %rax
	jne	LBB36_11
	jmp	LBB36_15
LBB36_9:
	movl	$1, %esi
	movq	%r15, %rdi
	callq	___rust_alloc
	movq	%rax, %r12
	testq	%rax, %rax
	je	LBB36_15
LBB36_11:
	movq	%r15, %rbx
LBB36_12:
	movq	-48(%rbp), %r15
LBB36_13:
	movq	%r12, %rdi
	movq	%r15, %rsi
	movq	%r13, %rdx
	callq	_memcpy
	movq	%r12, (%r14)
	movq	%rbx, 8(%r14)
	movq	%r13, 16(%r14)
	addq	$8, %rsp
	popq	%rbx
	popq	%r12
	popq	%r13
	popq	%r14
	popq	%r15
	popq	%rbp
	retq
LBB36_14:
	movl	$1, %esi
	movq	%r13, %rdi
	callq	__ZN5alloc7raw_vec19RawVec$LT$T$C$A$GT$11allocate_in28_$u7b$$u7b$closure$u7d$$u7d$17h8274b78e018d3dd6E
LBB36_15:
	movl	$1, %esi
	movq	%r15, %rdi
	callq	__ZN5alloc5alloc18handle_alloc_error17hbc0ab0ed90816c07E
	.cfi_endproc

	.p2align	4, 0x90
__ZN4core3fmt5Write10write_char17hf1709b4bdc695c75E:
Lfunc_begin5:
	.cfi_startproc
	.cfi_personality 155, _rust_eh_personality
	.cfi_lsda 16, Lexception5
	pushq	%rbp
	.cfi_def_cfa_offset 16
	.cfi_offset %rbp, -16
	movq	%rsp, %rbp
	.cfi_def_cfa_register %rbp
	pushq	%r15
	pushq	%r14
	pushq	%r12
	pushq	%rbx
	subq	$48, %rsp
	.cfi_offset %rbx, -48
	.cfi_offset %r12, -40
	.cfi_offset %r14, -32
	.cfi_offset %r15, -24
	movq	%rdi, %rbx
	movl	$0, -36(%rbp)
	cmpl	$128, %esi
	jae	LBB37_1
	movb	%sil, -36(%rbp)
	movl	$1, %ecx
	jmp	LBB37_7
LBB37_1:
	movl	%esi, %eax
	cmpl	$2048, %esi
	jae	LBB37_2
	shrl	$6, %eax
	andb	$31, %al
	orb	$-64, %al
	movb	%al, -36(%rbp)
	andb	$63, %sil
	orb	$-128, %sil
	movb	%sil, -35(%rbp)
	movl	$2, %ecx
	jmp	LBB37_7
LBB37_2:
	cmpl	$65536, %esi
	jae	LBB37_6
	shrl	$12, %eax
	andb	$15, %al
	orb	$-32, %al
	movb	%al, -36(%rbp)
	movl	%esi, %eax
	shrl	$6, %eax
	andb	$63, %al
	orb	$-128, %al
	movb	%al, -35(%rbp)
	andb	$63, %sil
	orb	$-128, %sil
	movb	%sil, -34(%rbp)
	movl	$3, %ecx
	jmp	LBB37_7
LBB37_6:
	shrl	$18, %eax
	orb	$-16, %al
	movb	%al, -36(%rbp)
	movl	%esi, %eax
	shrl	$12, %eax
	andb	$63, %al
	orb	$-128, %al
	movb	%al, -35(%rbp)
	movl	%esi, %eax
	shrl	$6, %eax
	andb	$63, %al
	orb	$-128, %al
	movb	%al, -34(%rbp)
	andb	$63, %sil
	orb	$-128, %sil
	movb	%sil, -33(%rbp)
	movl	$4, %ecx
LBB37_7:
	movq	(%rbx), %rsi
	leaq	-80(%rbp), %rdi
	leaq	-36(%rbp), %rdx
	callq	__ZN3std2io5Write9write_all17h8dba33cff7519100E
	cmpb	$3, -80(%rbp)
	jne	LBB37_9
	xorl	%eax, %eax
	jmp	LBB37_16
LBB37_9:
	vmovups	-80(%rbp), %xmm0
	vmovaps	%xmm0, -64(%rbp)
	leaq	8(%rbx), %r15
	movb	8(%rbx), %al
	cmpb	$3, %al
	ja	LBB37_11
	cmpb	$2, %al
	jne	LBB37_15
LBB37_11:
	movq	16(%rbx), %r12
	movq	(%r12), %rdi
	movq	8(%r12), %rax
Ltmp135:
	callq	*(%rax)
Ltmp136:
	movq	8(%r12), %rax
	movq	8(%rax), %rsi
	testq	%rsi, %rsi
	je	LBB37_14
	movq	(%r12), %rdi
	movq	16(%rax), %rdx
	callq	___rust_dealloc
LBB37_14:
	movq	16(%rbx), %rdi
	movl	$24, %esi
	movl	$8, %edx
	callq	___rust_dealloc
LBB37_15:
	vmovaps	-64(%rbp), %xmm0
	vmovups	%xmm0, (%r15)
	movb	$1, %al
LBB37_16:
	addq	$48, %rsp
	popq	%rbx
	popq	%r12
	popq	%r14
	popq	%r15
	popq	%rbp
	retq
LBB37_17:
Ltmp137:
	movq	%rax, %r14
	movq	(%r12), %rdi
	movq	8(%r12), %rsi
	callq	__ZN5alloc5alloc8box_free17h49e85cf81d60bb52E
	movq	16(%rbx), %rdi
	callq	__ZN5alloc5alloc8box_free17h2cbd3df002e609cdE
	vmovaps	-64(%rbp), %xmm0
	vmovups	%xmm0, (%r15)
	movq	%r14, %rdi
	callq	__Unwind_Resume
	ud2
Lfunc_end5:
	.cfi_endproc
	.section	__TEXT,__gcc_except_tab
	.p2align	2
GCC_except_table37:
Lexception5:
	.byte	255
	.byte	255
	.byte	1
	.uleb128 Lcst_end5-Lcst_begin5
Lcst_begin5:
	.uleb128 Lfunc_begin5-Lfunc_begin5
	.uleb128 Ltmp135-Lfunc_begin5
	.byte	0
	.byte	0
	.uleb128 Ltmp135-Lfunc_begin5
	.uleb128 Ltmp136-Ltmp135
	.uleb128 Ltmp137-Lfunc_begin5
	.byte	0
	.uleb128 Ltmp136-Lfunc_begin5
	.uleb128 Lfunc_end5-Ltmp136
	.byte	0
	.byte	0
Lcst_end5:
	.p2align	2

	.section	__TEXT,__text,regular,pure_instructions
	.p2align	4, 0x90
__ZN4core3fmt5Write9write_fmt17h0cb36065a6fe51d4E:
	.cfi_startproc
	pushq	%rbp
	.cfi_def_cfa_offset 16
	.cfi_offset %rbp, -16
	movq	%rsp, %rbp
	.cfi_def_cfa_register %rbp
	subq	$64, %rsp
	movq	%rdi, -8(%rbp)
	vmovups	(%rsi), %ymm0
	vmovups	16(%rsi), %ymm1
	vmovups	%ymm1, -48(%rbp)
	vmovups	%ymm0, -64(%rbp)
	leaq	l___unnamed_32(%rip), %rsi
	leaq	-8(%rbp), %rdi
	leaq	-64(%rbp), %rdx
	vzeroupper
	callq	__ZN4core3fmt5write17h26bd57c1fd6e9c98E
	addq	$64, %rsp
	popq	%rbp
	retq
	.cfi_endproc

	.p2align	4, 0x90
__ZN4core3ops8function6FnOnce40call_once$u7b$$u7b$vtable.shim$u7d$$u7d$17hfbc112ac928b227aE:
Lfunc_begin6:
	.cfi_startproc
	.cfi_personality 155, _rust_eh_personality
	.cfi_lsda 16, Lexception6
	pushq	%rbp
	.cfi_def_cfa_offset 16
	.cfi_offset %rbp, -16
	movq	%rsp, %rbp
	.cfi_def_cfa_register %rbp
	pushq	%r15
	pushq	%r14
	pushq	%r13
	pushq	%r12
	pushq	%rbx
	subq	$40, %rsp
	.cfi_offset %rbx, -56
	.cfi_offset %r12, -48
	.cfi_offset %r13, -40
	.cfi_offset %r14, -32
	.cfi_offset %r15, -24
	movq	%rdi, %r13
Ltmp138:
	callq	__ZN3std6thread6Thread5cname17h448d25159c4aaef3E
Ltmp139:
	testq	%rax, %rax
	je	LBB39_3
Ltmp140:
	movq	%rax, %rdi
	movq	%rdx, %rsi
	callq	__ZN3std3sys4unix6thread6Thread8set_name17h8685af7d0e184fccE
Ltmp141:
LBB39_3:
Ltmp142:
	leaq	-80(%rbp), %rdi
	callq	__ZN3std3sys4unix6thread5guard7current17h44c462b783e97853E
Ltmp143:
	movq	(%r13), %rsi
Ltmp145:
	leaq	-80(%rbp), %rdi
	callq	__ZN3std10sys_common11thread_info3set17ha5fe6107079be9c0E
Ltmp146:
	vmovups	8(%r13), %xmm0
	vmovaps	%xmm0, -80(%rbp)
	vmovups	24(%r13), %xmm0
	vmovaps	%xmm0, -64(%rbp)
	movq	40(%r13), %rax
	movq	%rax, -48(%rbp)
Ltmp148:
	leaq	-80(%rbp), %rdi
	callq	__ZN3std10sys_common9backtrace28__rust_begin_short_backtrace17h12dafcdc4b63b1a7E
Ltmp149:
	xorl	%r14d, %r14d
	movq	48(%r13), %rbx
	cmpq	$0, 16(%rbx)
	je	LBB39_14
LBB39_10:
	movq	24(%rbx), %rdi
	testq	%rdi, %rdi
	je	LBB39_14
	movq	32(%rbx), %rax
Ltmp154:
	callq	*(%rax)
Ltmp155:
	movq	32(%rbx), %rax
	movq	8(%rax), %rsi
	testq	%rsi, %rsi
	je	LBB39_14
	movq	24(%rbx), %rdi
	movq	16(%rax), %rdx
	callq	___rust_dealloc
LBB39_14:
	addq	$48, %r13
	movq	$1, 16(%rbx)
	movq	%r14, 24(%rbx)
	movq	%r15, 32(%rbx)
	movq	(%r13), %rax
	lock		decq	(%rax)
	jne	LBB39_22
	##MEMBARRIER
	movq	%r13, %rdi
	addq	$40, %rsp
	popq	%rbx
	popq	%r12
	popq	%r13
	popq	%r14
	popq	%r15
	popq	%rbp
	jmp	__ZN5alloc4sync12Arc$LT$T$GT$9drop_slow17hc18cceb15824c1ffE
LBB39_22:
	addq	$40, %rsp
	popq	%rbx
	popq	%r12
	popq	%r13
	popq	%r14
	popq	%r15
	popq	%rbp
	retq
LBB39_16:
Ltmp156:
	movq	%rax, %r12
	movq	24(%rbx), %rdi
	movq	32(%rbx), %rsi
	callq	__ZN5alloc5alloc8box_free17h49e85cf81d60bb52E
	movq	$1, 16(%rbx)
	movq	%r14, 24(%rbx)
	movq	%r15, 32(%rbx)
	jmp	LBB39_17
LBB39_7:
Ltmp150:
Ltmp151:
	movq	%rax, %rdi
	callq	__ZN3std9panicking3try7cleanup17hd895f7beef0a7dadE
Ltmp152:
	movq	%rax, %r14
	movq	%rdx, %r15
	movq	48(%r13), %rbx
	cmpq	$0, 16(%rbx)
	jne	LBB39_10
	jmp	LBB39_14
LBB39_18:
Ltmp153:
	movq	%rax, %r12
	jmp	LBB39_17
LBB39_19:
Ltmp147:
	movq	%rax, %r12
	jmp	LBB39_20
LBB39_21:
Ltmp144:
	movq	%rax, %r12
	movq	%r13, %rdi
	callq	__ZN4core3ptr13drop_in_place17h6cda02102dff6505E
LBB39_20:
	leaq	8(%r13), %rdi
	callq	__ZN4core3ptr13drop_in_place17h174a7e1527b36898E
LBB39_17:
	addq	$48, %r13
	movq	%r13, %rdi
	callq	__ZN4core3ptr13drop_in_place17h10cf9158194358b2E
	movq	%r12, %rdi
	callq	__Unwind_Resume
	ud2
Lfunc_end6:
	.cfi_endproc
	.section	__TEXT,__gcc_except_tab
	.p2align	2
GCC_except_table39:
Lexception6:
	.byte	255
	.byte	155
	.uleb128 Lttbase0-Lttbaseref0
Lttbaseref0:
	.byte	1
	.uleb128 Lcst_end6-Lcst_begin6
Lcst_begin6:
	.uleb128 Ltmp138-Lfunc_begin6
	.uleb128 Ltmp143-Ltmp138
	.uleb128 Ltmp144-Lfunc_begin6
	.byte	0
	.uleb128 Ltmp145-Lfunc_begin6
	.uleb128 Ltmp146-Ltmp145
	.uleb128 Ltmp147-Lfunc_begin6
	.byte	0
	.uleb128 Ltmp148-Lfunc_begin6
	.uleb128 Ltmp149-Ltmp148
	.uleb128 Ltmp150-Lfunc_begin6
	.byte	3
	.uleb128 Ltmp154-Lfunc_begin6
	.uleb128 Ltmp155-Ltmp154
	.uleb128 Ltmp156-Lfunc_begin6
	.byte	0
	.uleb128 Ltmp155-Lfunc_begin6
	.uleb128 Ltmp151-Ltmp155
	.byte	0
	.byte	0
	.uleb128 Ltmp151-Lfunc_begin6
	.uleb128 Ltmp152-Ltmp151
	.uleb128 Ltmp153-Lfunc_begin6
	.byte	0
	.uleb128 Ltmp152-Lfunc_begin6
	.uleb128 Lfunc_end6-Ltmp152
	.byte	0
	.byte	0
Lcst_end6:
	.byte	0
	.byte	0
	.byte	1
	.byte	125
	.p2align	2
	.long	0
Lttbase0:
	.p2align	2

	.section	__TEXT,__text,regular,pure_instructions
	.p2align	4, 0x90
__ZN4core3ptr13drop_in_place17h01c6d6b6d60d4568E:
	.cfi_startproc
	pushq	%rbp
	.cfi_def_cfa_offset 16
	.cfi_offset %rbp, -16
	movq	%rsp, %rbp
	.cfi_def_cfa_register %rbp
	popq	%rbp
	retq
	.cfi_endproc

	.p2align	4, 0x90
__ZN4core3ptr13drop_in_place17h0453673e58db6c28E:
	.cfi_startproc
	pushq	%rbp
	.cfi_def_cfa_offset 16
	.cfi_offset %rbp, -16
	movq	%rsp, %rbp
	.cfi_def_cfa_register %rbp
	cmpl	$3, (%rdi)
	jne	LBB41_1
	addq	$4, %rdi
	popq	%rbp
	jmp	__ZN70_$LT$std..sys..unix..fd..FileDesc$u20$as$u20$core..ops..drop..Drop$GT$4drop17hf5fce2bf4d9f8deaE
LBB41_1:
	popq	%rbp
	retq
	.cfi_endproc

	.p2align	4, 0x90
__ZN4core3ptr13drop_in_place17h0b27ddc8a81cd46bE:
	.cfi_startproc
	pushq	%rbp
	.cfi_def_cfa_offset 16
	.cfi_offset %rbp, -16
	movq	%rsp, %rbp
	.cfi_def_cfa_register %rbp
	movq	8(%rdi), %rsi
	testq	%rsi, %rsi
	je	LBB42_3
	movq	(%rdi), %rdi
	testq	%rdi, %rdi
	je	LBB42_3
	shlq	$3, %rsi
	testq	%rsi, %rsi
	je	LBB42_3
	movl	$8, %edx
	popq	%rbp
	jmp	___rust_dealloc
LBB42_3:
	popq	%rbp
	retq
	.cfi_endproc

	.p2align	4, 0x90
__ZN4core3ptr13drop_in_place17h0eacf74f27357194E:
Lfunc_begin7:
	.cfi_startproc
	.cfi_personality 155, _rust_eh_personality
	.cfi_lsda 16, Lexception7
	pushq	%rbp
	.cfi_def_cfa_offset 16
	.cfi_offset %rbp, -16
	movq	%rsp, %rbp
	.cfi_def_cfa_register %rbp
	pushq	%r15
	pushq	%r14
	pushq	%r13
	pushq	%r12
	pushq	%rbx
	subq	$88, %rsp
	.cfi_offset %rbx, -56
	.cfi_offset %r12, -48
	.cfi_offset %r13, -40
	.cfi_offset %r14, -32
	.cfi_offset %r15, -24
	movq	%rdi, %rbx
	movb	32(%rdi), %al
	cmpb	$2, %al
	je	LBB43_42
	cmpb	$0, 33(%rbx)
	jne	LBB43_42
	movq	24(%rbx), %r12
	movb	$3, -112(%rbp)
	testq	%r12, %r12
	je	LBB43_42
	leaq	8(%rbx), %rcx
	movq	%rcx, -120(%rbp)
	leaq	32(%rbx), %r13
	movb	$1, 33(%rbx)
	incq	%r13
	xorl	%r15d, %r15d
	movq	%r12, %r14
	.p2align	4, 0x90
LBB43_4:
	subq	%r15, %r14
	cmpb	$1, %al
	jne	LBB43_6
	movq	%r14, -56(%rbp)
	movq	$0, -64(%rbp)
	movb	$0, 33(%rbx)
	testq	%r14, %r14
	jne	LBB43_27
	jmp	LBB43_32
	.p2align	4, 0x90
LBB43_6:
	movq	-120(%rbp), %rax
	movq	(%rax), %rdx
	addq	%r15, %rdx
Ltmp157:
	leaq	-88(%rbp), %rdi
	movq	%r13, %rsi
	movq	%r14, %rcx
	callq	__ZN60_$LT$std..io..stdio..StdoutRaw$u20$as$u20$std..io..Write$GT$5write17hf3bdb5dc1f0b3ddbE
Ltmp158:
	cmpq	$1, -88(%rbp)
	jne	LBB43_25
Ltmp160:
	leaq	-80(%rbp), %rdi
	callq	__ZN3std3sys4unix5stdio8is_ebadf17h360e7cfc7d1b6d2bE
Ltmp161:
	testb	%al, %al
	je	LBB43_25
	movq	%r14, -56(%rbp)
	movq	$0, -64(%rbp)
	cmpq	$0, -88(%rbp)
	je	LBB43_16
	cmpb	$2, -80(%rbp)
	jb	LBB43_16
	movq	-72(%rbp), %r14
	movq	(%r14), %rdi
	movq	8(%r14), %rax
Ltmp165:
	callq	*(%rax)
Ltmp166:
	movq	8(%r14), %rax
	movq	8(%rax), %rsi
	testq	%rsi, %rsi
	je	LBB43_15
	movq	(%r14), %rdi
	movq	16(%rax), %rdx
	callq	___rust_dealloc
LBB43_15:
	movq	-72(%rbp), %rdi
	movl	$24, %esi
	movl	$8, %edx
	callq	___rust_dealloc
	.p2align	4, 0x90
LBB43_16:
	movq	-64(%rbp), %rax
	movb	$0, 33(%rbx)
	cmpq	$1, %rax
	jne	LBB43_26
LBB43_17:
Ltmp168:
	leaq	-56(%rbp), %rdi
	callq	__ZN3std2io5error5Error4kind17ha6420639421e330eE
Ltmp169:
	cmpb	$15, %al
	jne	LBB43_34
	cmpq	$0, -64(%rbp)
	je	LBB43_28
	cmpb	$2, -56(%rbp)
	jb	LBB43_28
	movq	-48(%rbp), %r14
	movq	(%r14), %rdi
	movq	8(%r14), %rax
Ltmp171:
	callq	*(%rax)
Ltmp172:
	movq	8(%r14), %rax
	movq	8(%rax), %rsi
	testq	%rsi, %rsi
	je	LBB43_24
	movq	(%r14), %rdi
	movq	16(%rax), %rdx
	callq	___rust_dealloc
LBB43_24:
	movq	-48(%rbp), %rdi
	movl	$24, %esi
	movl	$8, %edx
	callq	___rust_dealloc
	cmpq	%r12, %r15
	jae	LBB43_36
	.p2align	4, 0x90
LBB43_29:
	movzbl	32(%rbx), %eax
	movb	$1, 33(%rbx)
	cmpb	$2, %al
	je	LBB43_50
	movq	24(%rbx), %r14
	cmpq	%r15, %r14
	jae	LBB43_4
	jmp	LBB43_31
	.p2align	4, 0x90
LBB43_25:
	movq	-72(%rbp), %rax
	movq	%rax, -48(%rbp)
	vmovups	-88(%rbp), %xmm0
	vmovaps	%xmm0, -64(%rbp)
	movq	-64(%rbp), %rax
	movb	$0, 33(%rbx)
	cmpq	$1, %rax
	je	LBB43_17
LBB43_26:
	movq	-56(%rbp), %r14
	testq	%r14, %r14
	je	LBB43_32
LBB43_27:
	addq	%r14, %r15
LBB43_28:
	cmpq	%r12, %r15
	jb	LBB43_29
LBB43_36:
	testq	%r15, %r15
	je	LBB43_40
LBB43_37:
	movq	24(%rbx), %rsi
	movq	%rsi, %r14
	subq	%r15, %r14
	jb	LBB43_52
	movq	$0, 24(%rbx)
	je	LBB43_40
	movq	8(%rbx), %rdi
	addq	%rdi, %r15
	movq	%r15, %rsi
	movq	%r14, %rdx
	callq	_memmove
	movq	%r14, 24(%rbx)
	movb	-112(%rbp), %al
	movq	-104(%rbp), %r14
	cmpb	$3, %al
	jbe	LBB43_41
	jmp	LBB43_46
LBB43_32:
Ltmp178:
	leaq	l___unnamed_33(%rip), %rdx
	leaq	-88(%rbp), %rdi
	movl	$33, %ecx
	movl	$14, %esi
	callq	__ZN3std2io5error5Error3new17h3e0c275bc736c6acE
Ltmp179:
	vmovups	-88(%rbp), %xmm0
	vmovaps	%xmm0, -112(%rbp)
	testq	%r15, %r15
	jne	LBB43_37
	jmp	LBB43_40
LBB43_34:
	leaq	-56(%rbp), %rax
	vmovups	(%rax), %xmm0
	vmovaps	%xmm0, -112(%rbp)
	testq	%r15, %r15
	jne	LBB43_37
LBB43_40:
	movb	-112(%rbp), %al
	movq	-104(%rbp), %r14
	cmpb	$3, %al
	ja	LBB43_46
LBB43_41:
	cmpb	$2, %al
	je	LBB43_46
LBB43_42:
	movq	8(%rbx), %rdi
	testq	%rdi, %rdi
	je	LBB43_45
LBB43_43:
	movq	16(%rbx), %rsi
	testq	%rsi, %rsi
	je	LBB43_45
	movl	$1, %edx
	callq	___rust_dealloc
LBB43_45:
	addq	$88, %rsp
	popq	%rbx
	popq	%r12
	popq	%r13
	popq	%r14
	popq	%r15
	popq	%rbp
	retq
LBB43_46:
	movq	(%r14), %rdi
	movq	8(%r14), %rax
Ltmp189:
	callq	*(%rax)
Ltmp190:
	movq	8(%r14), %rax
	movq	8(%rax), %rsi
	testq	%rsi, %rsi
	je	LBB43_49
	movq	(%r14), %rdi
	movq	16(%rax), %rdx
	callq	___rust_dealloc
LBB43_49:
	movl	$24, %esi
	movl	$8, %edx
	movq	%r14, %rdi
	callq	___rust_dealloc
	movq	8(%rbx), %rdi
	testq	%rdi, %rdi
	jne	LBB43_43
	jmp	LBB43_45
LBB43_50:
Ltmp176:
	leaq	l___unnamed_1(%rip), %rdi
	leaq	l___unnamed_34(%rip), %rdx
	movl	$43, %esi
	callq	__ZN4core9panicking5panic17h736ee47a631475c0E
Ltmp177:
	jmp	LBB43_51
LBB43_31:
Ltmp174:
	leaq	l___unnamed_35(%rip), %rdx
	movq	%r15, %rdi
	movq	%r14, %rsi
	callq	__ZN4core5slice22slice_index_order_fail17h85b430a3a039f0a8E
Ltmp175:
LBB43_51:
	ud2
LBB43_52:
Ltmp183:
	movq	%r15, %rdi
	callq	__ZN5alloc3vec12Vec$LT$T$GT$5drain17end_assert_failed17h141931857e3c2f53E
Ltmp184:
	jmp	LBB43_51
LBB43_53:
Ltmp191:
	movq	%rax, %rbx
	movq	(%r14), %rdi
	movq	8(%r14), %rsi
	callq	__ZN5alloc5alloc8box_free17h49e85cf81d60bb52E
	movq	%r14, %rdi
	callq	__ZN5alloc5alloc8box_free17h2cbd3df002e609cdE
	jmp	LBB43_64
LBB43_54:
Ltmp180:
	movq	%rax, %rbx
	cmpq	$1, -64(%rbp)
	je	LBB43_58
	jmp	LBB43_63
LBB43_55:
Ltmp167:
	movq	%rax, %rbx
	movq	(%r14), %rdi
	movq	8(%r14), %rsi
	callq	__ZN5alloc5alloc8box_free17h49e85cf81d60bb52E
	movq	-72(%rbp), %rdi
	callq	__ZN5alloc5alloc8box_free17h2cbd3df002e609cdE
	jmp	LBB43_63
LBB43_56:
Ltmp173:
	movq	%rax, %rbx
	movq	(%r14), %rdi
	movq	8(%r14), %rsi
	callq	__ZN5alloc5alloc8box_free17h49e85cf81d60bb52E
	movq	-48(%rbp), %rdi
	callq	__ZN5alloc5alloc8box_free17h2cbd3df002e609cdE
	jmp	LBB43_63
LBB43_57:
Ltmp170:
	movq	%rax, %rbx
	cmpq	$1, -64(%rbp)
	jne	LBB43_63
LBB43_58:
Ltmp181:
	leaq	-56(%rbp), %rdi
	callq	__ZN4core3ptr13drop_in_place17h7f959772c584907bE
Ltmp182:
	jmp	LBB43_63
LBB43_59:
Ltmp162:
	movq	%rax, %rbx
Ltmp163:
	leaq	-88(%rbp), %rdi
	callq	__ZN4core3ptr13drop_in_place17h7b3a061370ae9541E
Ltmp164:
	jmp	LBB43_63
LBB43_60:
Ltmp185:
	jmp	LBB43_62
LBB43_61:
Ltmp159:
LBB43_62:
	movq	%rax, %rbx
LBB43_63:
Ltmp186:
	leaq	-112(%rbp), %rdi
	callq	__ZN4core3ptr13drop_in_place17h0fd466df618ec20eE
Ltmp187:
LBB43_64:
	movq	-120(%rbp), %rdi
	callq	__ZN4core3ptr13drop_in_place17h17797588d32ceb50E
	movq	%rbx, %rdi
	callq	__Unwind_Resume
	ud2
LBB43_65:
Ltmp188:
	movq	%rax, %rbx
	jmp	LBB43_64
Lfunc_end7:
	.cfi_endproc
	.section	__TEXT,__gcc_except_tab
	.p2align	2
GCC_except_table43:
Lexception7:
	.byte	255
	.byte	255
	.byte	1
	.uleb128 Lcst_end7-Lcst_begin7
Lcst_begin7:
	.uleb128 Ltmp157-Lfunc_begin7
	.uleb128 Ltmp158-Ltmp157
	.uleb128 Ltmp159-Lfunc_begin7
	.byte	0
	.uleb128 Ltmp160-Lfunc_begin7
	.uleb128 Ltmp161-Ltmp160
	.uleb128 Ltmp162-Lfunc_begin7
	.byte	0
	.uleb128 Ltmp165-Lfunc_begin7
	.uleb128 Ltmp166-Ltmp165
	.uleb128 Ltmp167-Lfunc_begin7
	.byte	0
	.uleb128 Ltmp168-Lfunc_begin7
	.uleb128 Ltmp169-Ltmp168
	.uleb128 Ltmp170-Lfunc_begin7
	.byte	0
	.uleb128 Ltmp171-Lfunc_begin7
	.uleb128 Ltmp172-Ltmp171
	.uleb128 Ltmp173-Lfunc_begin7
	.byte	0
	.uleb128 Ltmp172-Lfunc_begin7
	.uleb128 Ltmp178-Ltmp172
	.byte	0
	.byte	0
	.uleb128 Ltmp178-Lfunc_begin7
	.uleb128 Ltmp179-Ltmp178
	.uleb128 Ltmp180-Lfunc_begin7
	.byte	0
	.uleb128 Ltmp189-Lfunc_begin7
	.uleb128 Ltmp190-Ltmp189
	.uleb128 Ltmp191-Lfunc_begin7
	.byte	0
	.uleb128 Ltmp176-Lfunc_begin7
	.uleb128 Ltmp184-Ltmp176
	.uleb128 Ltmp185-Lfunc_begin7
	.byte	0
	.uleb128 Ltmp181-Lfunc_begin7
	.uleb128 Ltmp182-Ltmp181
	.uleb128 Ltmp188-Lfunc_begin7
	.byte	0
	.uleb128 Ltmp163-Lfunc_begin7
	.uleb128 Ltmp164-Ltmp163
	.uleb128 Ltmp185-Lfunc_begin7
	.byte	0
	.uleb128 Ltmp186-Lfunc_begin7
	.uleb128 Ltmp187-Ltmp186
	.uleb128 Ltmp188-Lfunc_begin7
	.byte	0
	.uleb128 Ltmp187-Lfunc_begin7
	.uleb128 Lfunc_end7-Ltmp187
	.byte	0
	.byte	0
Lcst_end7:
	.p2align	2

	.section	__TEXT,__text,regular,pure_instructions
	.p2align	4, 0x90
__ZN4core3ptr13drop_in_place17h0f7171f254c7b086E:
Lfunc_begin8:
	.cfi_startproc
	.cfi_personality 155, _rust_eh_personality
	.cfi_lsda 16, Lexception8
	pushq	%rbp
	.cfi_def_cfa_offset 16
	.cfi_offset %rbp, -16
	movq	%rsp, %rbp
	.cfi_def_cfa_register %rbp
	pushq	%r15
	pushq	%r14
	pushq	%rbx
	pushq	%rax
	.cfi_offset %rbx, -40
	.cfi_offset %r14, -32
	.cfi_offset %r15, -24
	movq	%rdi, %rbx
	cmpq	$0, (%rdi)
	je	LBB44_1
	cmpb	$2, 8(%rbx)
	jb	LBB44_13
	movq	16(%rbx), %r15
	movq	(%r15), %rdi
	movq	8(%r15), %rax
Ltmp192:
	callq	*(%rax)
Ltmp193:
	movq	8(%r15), %rax
	movq	8(%rax), %rsi
	testq	%rsi, %rsi
	je	LBB44_12
	movq	(%r15), %rdi
	movq	16(%rax), %rdx
	callq	___rust_dealloc
LBB44_12:
	movq	16(%rbx), %rdi
	movl	$24, %esi
	movl	$8, %edx
	jmp	LBB44_7
LBB44_1:
	movq	8(%rbx), %rdi
	testq	%rdi, %rdi
	je	LBB44_4
	movq	16(%rbx), %rsi
	testq	%rsi, %rsi
	je	LBB44_4
	movl	$1, %edx
	callq	___rust_dealloc
LBB44_4:
	movq	32(%rbx), %rdi
	testq	%rdi, %rdi
	je	LBB44_13
	movq	40(%rbx), %rsi
	testq	%rsi, %rsi
	je	LBB44_13
	movl	$1, %edx
LBB44_7:
	addq	$8, %rsp
	popq	%rbx
	popq	%r14
	popq	%r15
	popq	%rbp
	jmp	___rust_dealloc
LBB44_13:
	addq	$8, %rsp
	popq	%rbx
	popq	%r14
	popq	%r15
	popq	%rbp
	retq
LBB44_14:
Ltmp194:
	movq	%rax, %r14
	movq	(%r15), %rdi
	movq	8(%r15), %rsi
	callq	__ZN5alloc5alloc8box_free17h49e85cf81d60bb52E
	movq	16(%rbx), %rdi
	callq	__ZN5alloc5alloc8box_free17h2cbd3df002e609cdE
	movq	%r14, %rdi
	callq	__Unwind_Resume
	ud2
Lfunc_end8:
	.cfi_endproc
	.section	__TEXT,__gcc_except_tab
	.p2align	2
GCC_except_table44:
Lexception8:
	.byte	255
	.byte	255
	.byte	1
	.uleb128 Lcst_end8-Lcst_begin8
Lcst_begin8:
	.uleb128 Ltmp192-Lfunc_begin8
	.uleb128 Ltmp193-Ltmp192
	.uleb128 Ltmp194-Lfunc_begin8
	.byte	0
	.uleb128 Ltmp193-Lfunc_begin8
	.uleb128 Lfunc_end8-Ltmp193
	.byte	0
	.byte	0
Lcst_end8:
	.p2align	2

	.section	__TEXT,__text,regular,pure_instructions
	.p2align	4, 0x90
__ZN4core3ptr13drop_in_place17h0fd466df618ec20eE:
Lfunc_begin9:
	.cfi_startproc
	.cfi_personality 155, _rust_eh_personality
	.cfi_lsda 16, Lexception9
	pushq	%rbp
	.cfi_def_cfa_offset 16
	.cfi_offset %rbp, -16
	movq	%rsp, %rbp
	.cfi_def_cfa_register %rbp
	pushq	%r15
	pushq	%r14
	pushq	%rbx
	pushq	%rax
	.cfi_offset %rbx, -40
	.cfi_offset %r14, -32
	.cfi_offset %r15, -24
	movq	%rdi, %rbx
	movb	(%rdi), %al
	cmpb	$3, %al
	ja	LBB45_2
	cmpb	$2, %al
	je	LBB45_2
	addq	$8, %rsp
	popq	%rbx
	popq	%r14
	popq	%r15
	popq	%rbp
	retq
LBB45_2:
	movq	8(%rbx), %r15
	movq	(%r15), %rdi
	movq	8(%r15), %rax
Ltmp195:
	callq	*(%rax)
Ltmp196:
	movq	8(%r15), %rax
	movq	8(%rax), %rsi
	testq	%rsi, %rsi
	je	LBB45_5
	movq	(%r15), %rdi
	movq	16(%rax), %rdx
	callq	___rust_dealloc
LBB45_5:
	movq	8(%rbx), %rdi
	movl	$24, %esi
	movl	$8, %edx
	addq	$8, %rsp
	popq	%rbx
	popq	%r14
	popq	%r15
	popq	%rbp
	jmp	___rust_dealloc
LBB45_7:
Ltmp197:
	movq	%rax, %r14
	movq	(%r15), %rdi
	movq	8(%r15), %rsi
	callq	__ZN5alloc5alloc8box_free17h49e85cf81d60bb52E
	movq	8(%rbx), %rdi
	callq	__ZN5alloc5alloc8box_free17h2cbd3df002e609cdE
	movq	%r14, %rdi
	callq	__Unwind_Resume
	ud2
Lfunc_end9:
	.cfi_endproc
	.section	__TEXT,__gcc_except_tab
	.p2align	2
GCC_except_table45:
Lexception9:
	.byte	255
	.byte	255
	.byte	1
	.uleb128 Lcst_end9-Lcst_begin9
Lcst_begin9:
	.uleb128 Ltmp195-Lfunc_begin9
	.uleb128 Ltmp196-Ltmp195
	.uleb128 Ltmp197-Lfunc_begin9
	.byte	0
	.uleb128 Ltmp196-Lfunc_begin9
	.uleb128 Lfunc_end9-Ltmp196
	.byte	0
	.byte	0
Lcst_end9:
	.p2align	2

	.section	__TEXT,__text,regular,pure_instructions
	.p2align	4, 0x90
__ZN4core3ptr13drop_in_place17h102bbd68b7a73de0E:
	.cfi_startproc
	pushq	%rbp
	.cfi_def_cfa_offset 16
	.cfi_offset %rbp, -16
	movq	%rsp, %rbp
	.cfi_def_cfa_register %rbp
	pushq	%r14
	pushq	%rbx
	.cfi_offset %rbx, -32
	.cfi_offset %r14, -24
	movq	%rdi, %rbx
	cmpb	$0, 8(%rdi)
	jne	LBB46_3
	movq	(%rbx), %r14
	callq	__ZN3std9panicking9panicking17h6f800ddc6c0d9b77E
	testb	%al, %al
	je	LBB46_3
	movb	$1, 8(%r14)
LBB46_3:
	movq	(%rbx), %rax
	movq	(%rax), %rdi
	popq	%rbx
	popq	%r14
	popq	%rbp
	jmp	_pthread_mutex_unlock
	.cfi_endproc

	.p2align	4, 0x90
__ZN4core3ptr13drop_in_place17h10cf9158194358b2E:
	.cfi_startproc
	pushq	%rbp
	.cfi_def_cfa_offset 16
	.cfi_offset %rbp, -16
	movq	%rsp, %rbp
	.cfi_def_cfa_register %rbp
	movq	(%rdi), %rax
	lock		decq	(%rax)
	jne	LBB47_1
	##MEMBARRIER
	popq	%rbp
	jmp	__ZN5alloc4sync12Arc$LT$T$GT$9drop_slow17hc18cceb15824c1ffE
LBB47_1:
	popq	%rbp
	retq
	.cfi_endproc

	.p2align	4, 0x90
__ZN4core3ptr13drop_in_place17h13a35c0612cc9efcE:
	.cfi_startproc
	pushq	%rbp
	.cfi_def_cfa_offset 16
	.cfi_offset %rbp, -16
	movq	%rsp, %rbp
	.cfi_def_cfa_register %rbp
	addq	$16, %rdi
	popq	%rbp
	jmp	__ZN4core3ptr13drop_in_place17hdfa27de00c3e95f8E
	.cfi_endproc

	.p2align	4, 0x90
__ZN4core3ptr13drop_in_place17h174a7e1527b36898E:
Lfunc_begin10:
	.cfi_startproc
	.cfi_personality 155, _rust_eh_personality
	.cfi_lsda 16, Lexception10
	pushq	%rbp
	.cfi_def_cfa_offset 16
	.cfi_offset %rbp, -16
	movq	%rsp, %rbp
	.cfi_def_cfa_register %rbp
	pushq	%r14
	pushq	%rbx
	.cfi_offset %rbx, -32
	.cfi_offset %r14, -24
	movq	%rdi, %rbx
	addq	$32, %rdi
Ltmp198:
	callq	__ZN70_$LT$std..sys..unix..fd..FileDesc$u20$as$u20$core..ops..drop..Drop$GT$4drop17hf5fce2bf4d9f8deaE
Ltmp199:
	movq	8(%rbx), %rsi
	testq	%rsi, %rsi
	je	LBB49_4
	movq	(%rbx), %rdi
	movl	$1, %edx
	popq	%rbx
	popq	%r14
	popq	%rbp
	jmp	___rust_dealloc
LBB49_4:
	popq	%rbx
	popq	%r14
	popq	%rbp
	retq
LBB49_3:
Ltmp200:
	movq	%rax, %r14
	movq	%rbx, %rdi
	callq	__ZN4core3ptr13drop_in_place17h4fed1e42d72638e3E
	movq	%r14, %rdi
	callq	__Unwind_Resume
	ud2
Lfunc_end10:
	.cfi_endproc
	.section	__TEXT,__gcc_except_tab
	.p2align	2
GCC_except_table49:
Lexception10:
	.byte	255
	.byte	255
	.byte	1
	.uleb128 Lcst_end10-Lcst_begin10
Lcst_begin10:
	.uleb128 Ltmp198-Lfunc_begin10
	.uleb128 Ltmp199-Ltmp198
	.uleb128 Ltmp200-Lfunc_begin10
	.byte	0
	.uleb128 Ltmp199-Lfunc_begin10
	.uleb128 Lfunc_end10-Ltmp199
	.byte	0
	.byte	0
Lcst_end10:
	.p2align	2

	.section	__TEXT,__text,regular,pure_instructions
	.p2align	4, 0x90
__ZN4core3ptr13drop_in_place17h17797588d32ceb50E:
	.cfi_startproc
	pushq	%rbp
	.cfi_def_cfa_offset 16
	.cfi_offset %rbp, -16
	movq	%rsp, %rbp
	.cfi_def_cfa_register %rbp
	movq	%rdi, %rax
	movq	(%rdi), %rdi
	testq	%rdi, %rdi
	je	LBB50_2
	movq	8(%rax), %rsi
	testq	%rsi, %rsi
	je	LBB50_2
	movl	$1, %edx
	popq	%rbp
	jmp	___rust_dealloc
LBB50_2:
	popq	%rbp
	retq
	.cfi_endproc

	.p2align	4, 0x90
__ZN4core3ptr13drop_in_place17h27b869de8334f9cdE:
Lfunc_begin11:
	.cfi_startproc
	.cfi_personality 155, _rust_eh_personality
	.cfi_lsda 16, Lexception11
	pushq	%rbp
	.cfi_def_cfa_offset 16
	.cfi_offset %rbp, -16
	movq	%rsp, %rbp
	.cfi_def_cfa_register %rbp
	pushq	%r14
	pushq	%rbx
	.cfi_offset %rbx, -32
	.cfi_offset %r14, -24
	movq	%rdi, %rbx
	cmpl	$0, 12(%rdi)
	je	LBB51_2
	leaq	16(%rbx), %rdi
Ltmp201:
	callq	__ZN70_$LT$std..sys..unix..fd..FileDesc$u20$as$u20$core..ops..drop..Drop$GT$4drop17hf5fce2bf4d9f8deaE
Ltmp202:
LBB51_2:
	cmpl	$0, 20(%rbx)
	je	LBB51_3
	leaq	24(%rbx), %rdi
Ltmp204:
	callq	__ZN70_$LT$std..sys..unix..fd..FileDesc$u20$as$u20$core..ops..drop..Drop$GT$4drop17hf5fce2bf4d9f8deaE
Ltmp205:
LBB51_3:
	cmpl	$0, 28(%rbx)
	je	LBB51_4
	addq	$32, %rbx
	movq	%rbx, %rdi
	popq	%rbx
	popq	%r14
	popq	%rbp
	jmp	__ZN70_$LT$std..sys..unix..fd..FileDesc$u20$as$u20$core..ops..drop..Drop$GT$4drop17hf5fce2bf4d9f8deaE
LBB51_4:
	popq	%rbx
	popq	%r14
	popq	%rbp
	retq
LBB51_8:
Ltmp206:
	movq	%rax, %r14
	jmp	LBB51_7
LBB51_6:
Ltmp203:
	movq	%rax, %r14
	leaq	20(%rbx), %rdi
	callq	__ZN4core3ptr13drop_in_place17h46e0e9aec76a0e92E
LBB51_7:
	addq	$28, %rbx
	movq	%rbx, %rdi
	callq	__ZN4core3ptr13drop_in_place17h46e0e9aec76a0e92E
	movq	%r14, %rdi
	callq	__Unwind_Resume
	ud2
Lfunc_end11:
	.cfi_endproc
	.section	__TEXT,__gcc_except_tab
	.p2align	2
GCC_except_table51:
Lexception11:
	.byte	255
	.byte	255
	.byte	1
	.uleb128 Lcst_end11-Lcst_begin11
Lcst_begin11:
	.uleb128 Ltmp201-Lfunc_begin11
	.uleb128 Ltmp202-Ltmp201
	.uleb128 Ltmp203-Lfunc_begin11
	.byte	0
	.uleb128 Ltmp204-Lfunc_begin11
	.uleb128 Ltmp205-Ltmp204
	.uleb128 Ltmp206-Lfunc_begin11
	.byte	0
	.uleb128 Ltmp205-Lfunc_begin11
	.uleb128 Lfunc_end11-Ltmp205
	.byte	0
	.byte	0
Lcst_end11:
	.p2align	2

	.section	__TEXT,__text,regular,pure_instructions
	.p2align	4, 0x90
__ZN4core3ptr13drop_in_place17h301939babae46f3cE:
	.cfi_startproc
	pushq	%rbp
	.cfi_def_cfa_offset 16
	.cfi_offset %rbp, -16
	movq	%rsp, %rbp
	.cfi_def_cfa_register %rbp
	pushq	%r15
	pushq	%r14
	pushq	%r13
	pushq	%r12
	pushq	%rbx
	pushq	%rax
	.cfi_offset %rbx, -56
	.cfi_offset %r12, -48
	.cfi_offset %r13, -40
	.cfi_offset %r14, -32
	.cfi_offset %r15, -24
	movq	%rdi, %r15
	movq	(%rdi), %rax
	movq	(%rax), %rdx
	movq	%rdx, %rcx
	movq	$-1, %rdi
	incq	%rcx
	je	LBB52_13
	negq	%rdx
	movl	$32, %r12d
	movq	$-16, %rbx
	movq	%rdx, -48(%rbp)
	leaq	(%rdx,%rbx), %r13
	movq	8(%rax), %rcx
	cmpb	$-128, 16(%rcx,%rbx)
	jne	LBB52_10
	.p2align	4, 0x90
LBB52_3:
	movq	(%rax), %rax
	andq	%rbx, %rax
	movb	$-1, 16(%rcx,%rbx)
	movb	$-1, 16(%rax,%rcx)
	movq	(%r15), %rax
	movq	16(%rax), %r14
	movq	-32(%r14,%r12), %rdi
	testq	%rdi, %rdi
	je	LBB52_6
	movq	-24(%r14,%r12), %rsi
	testq	%rsi, %rsi
	je	LBB52_6
	movl	$1, %edx
	callq	___rust_dealloc
	movq	-48(%rbp), %rdx
LBB52_6:
	movq	-8(%r14,%r12), %rdi
	testq	%rdi, %rdi
	je	LBB52_9
	movq	(%r14,%r12), %rsi
	testq	%rsi, %rsi
	je	LBB52_9
	movl	$1, %edx
	callq	___rust_dealloc
	movq	-48(%rbp), %rdx
LBB52_9:
	movq	(%r15), %rax
	decq	32(%rax)
LBB52_10:
	cmpq	$-16, %r13
	je	LBB52_12
	movq	(%r15), %rax
	addq	$48, %r12
	incq	%rbx
	leaq	(%rdx,%rbx), %r13
	movq	8(%rax), %rcx
	cmpb	$-128, 16(%rcx,%rbx)
	je	LBB52_3
	jmp	LBB52_10
LBB52_12:
	movq	(%r15), %rax
	movq	(%rax), %rdi
LBB52_13:
	callq	__ZN9hashbrown3raw23bucket_mask_to_capacity17h4bf1081b6c8626a8E
	movq	(%r15), %rcx
	subq	32(%rcx), %rax
	movq	%rax, 24(%rcx)
	addq	$8, %rsp
	popq	%rbx
	popq	%r12
	popq	%r13
	popq	%r14
	popq	%r15
	popq	%rbp
	retq
	.cfi_endproc

	.p2align	4, 0x90
__ZN4core3ptr13drop_in_place17h303c4f2e852c7f99E:
Lfunc_begin12:
	.cfi_startproc
	.cfi_personality 155, _rust_eh_personality
	.cfi_lsda 16, Lexception12
	pushq	%rbp
	.cfi_def_cfa_offset 16
	.cfi_offset %rbp, -16
	movq	%rsp, %rbp
	.cfi_def_cfa_register %rbp
	pushq	%r14
	pushq	%rbx
	.cfi_offset %rbx, -32
	.cfi_offset %r14, -24
	movq	%rdi, %rbx
	movq	(%rdi), %rdi
	movq	8(%rbx), %rax
Ltmp207:
	callq	*(%rax)
Ltmp208:
	movq	8(%rbx), %rax
	movq	8(%rax), %rsi
	testq	%rsi, %rsi
	je	LBB53_2
	movq	(%rbx), %rdi
	movq	16(%rax), %rdx
	popq	%rbx
	popq	%r14
	popq	%rbp
	jmp	___rust_dealloc
LBB53_2:
	popq	%rbx
	popq	%r14
	popq	%rbp
	retq
LBB53_3:
Ltmp209:
	movq	%rax, %r14
	movq	(%rbx), %rdi
	movq	8(%rbx), %rsi
	callq	__ZN5alloc5alloc8box_free17h49e85cf81d60bb52E
	movq	%r14, %rdi
	callq	__Unwind_Resume
	ud2
Lfunc_end12:
	.cfi_endproc
	.section	__TEXT,__gcc_except_tab
	.p2align	2
GCC_except_table53:
Lexception12:
	.byte	255
	.byte	255
	.byte	1
	.uleb128 Lcst_end12-Lcst_begin12
Lcst_begin12:
	.uleb128 Ltmp207-Lfunc_begin12
	.uleb128 Ltmp208-Ltmp207
	.uleb128 Ltmp209-Lfunc_begin12
	.byte	0
	.uleb128 Ltmp208-Lfunc_begin12
	.uleb128 Lfunc_end12-Ltmp208
	.byte	0
	.byte	0
Lcst_end12:
	.p2align	2

	.section	__TEXT,__text,regular,pure_instructions
	.p2align	4, 0x90
__ZN4core3ptr13drop_in_place17h3463adf306fe5675E:
	.cfi_startproc
	pushq	%rbp
	.cfi_def_cfa_offset 16
	.cfi_offset %rbp, -16
	movq	%rsp, %rbp
	.cfi_def_cfa_register %rbp
	pushq	%r15
	pushq	%r14
	pushq	%rbx
	pushq	%rax
	.cfi_offset %rbx, -40
	.cfi_offset %r14, -32
	.cfi_offset %r15, -24
	movq	%rdi, %r14
	movq	(%rdi), %rbx
	movq	16(%rdi), %rax
	testq	%rax, %rax
	je	LBB54_10
	leaq	(%rax,%rax,2), %r15
	shlq	$4, %r15
	addq	%rbx, %r15
	movq	(%rbx), %rdi
	testq	%rdi, %rdi
	jne	LBB54_3
	jmp	LBB54_5
	.p2align	4, 0x90
LBB54_8:
	addq	$48, %rbx
	cmpq	%r15, %rbx
	je	LBB54_9
	movq	(%rbx), %rdi
	testq	%rdi, %rdi
	je	LBB54_5
LBB54_3:
	movq	8(%rbx), %rsi
	testq	%rsi, %rsi
	je	LBB54_5
	movl	$1, %edx
	callq	___rust_dealloc
LBB54_5:
	movq	24(%rbx), %rdi
	testq	%rdi, %rdi
	je	LBB54_8
	movq	32(%rbx), %rsi
	testq	%rsi, %rsi
	je	LBB54_8
	movl	$1, %edx
	callq	___rust_dealloc
	jmp	LBB54_8
LBB54_9:
	movq	(%r14), %rbx
LBB54_10:
	movq	8(%r14), %rax
	testq	%rax, %rax
	je	LBB54_13
	testq	%rbx, %rbx
	je	LBB54_13
	shlq	$4, %rax
	leaq	(%rax,%rax,2), %rsi
	testq	%rsi, %rsi
	je	LBB54_13
	movl	$8, %edx
	movq	%rbx, %rdi
	addq	$8, %rsp
	popq	%rbx
	popq	%r14
	popq	%r15
	popq	%rbp
	jmp	___rust_dealloc
LBB54_13:
	addq	$8, %rsp
	popq	%rbx
	popq	%r14
	popq	%r15
	popq	%rbp
	retq
	.cfi_endproc

	.p2align	4, 0x90
__ZN4core3ptr13drop_in_place17h3a2c4cd6b04e39a2E:
	.cfi_startproc
	pushq	%rbp
	.cfi_def_cfa_offset 16
	.cfi_offset %rbp, -16
	movq	%rsp, %rbp
	.cfi_def_cfa_register %rbp
	pushq	%rbx
	pushq	%rax
	.cfi_offset %rbx, -24
	movq	%rdi, %rbx
	movq	(%rdi), %rdi
	testq	%rdi, %rdi
	je	LBB55_3
	movq	8(%rbx), %rsi
	testq	%rsi, %rsi
	je	LBB55_3
	movl	$1, %edx
	callq	___rust_dealloc
LBB55_3:
	movq	24(%rbx), %rdi
	testq	%rdi, %rdi
	je	LBB55_5
	movq	32(%rbx), %rsi
	testq	%rsi, %rsi
	je	LBB55_5
	movl	$1, %edx
	addq	$8, %rsp
	popq	%rbx
	popq	%rbp
	jmp	___rust_dealloc
LBB55_5:
	addq	$8, %rsp
	popq	%rbx
	popq	%rbp
	retq
	.cfi_endproc

	.p2align	4, 0x90
__ZN4core3ptr13drop_in_place17h3cf28ccd95729c6eE:
	.cfi_startproc
	pushq	%rbp
	.cfi_def_cfa_offset 16
	.cfi_offset %rbp, -16
	movq	%rsp, %rbp
	.cfi_def_cfa_register %rbp
	popq	%rbp
	jmp	__ZN70_$LT$std..sys..unix..fd..FileDesc$u20$as$u20$core..ops..drop..Drop$GT$4drop17hf5fce2bf4d9f8deaE
	.cfi_endproc

	.p2align	4, 0x90
__ZN4core3ptr13drop_in_place17h42e3b4e0337fb704E:
	.cfi_startproc
	pushq	%rbp
	.cfi_def_cfa_offset 16
	.cfi_offset %rbp, -16
	movq	%rsp, %rbp
	.cfi_def_cfa_register %rbp
	cmpq	$0, (%rdi)
	je	LBB57_1
	addq	$8, %rdi
	popq	%rbp
	jmp	__ZN72_$LT$std..sys..unix..thread..Thread$u20$as$u20$core..ops..drop..Drop$GT$4drop17haa00a8633efec967E
LBB57_1:
	popq	%rbp
	retq
	.cfi_endproc

	.p2align	4, 0x90
__ZN4core3ptr13drop_in_place17h46e0e9aec76a0e92E:
	.cfi_startproc
	pushq	%rbp
	.cfi_def_cfa_offset 16
	.cfi_offset %rbp, -16
	movq	%rsp, %rbp
	.cfi_def_cfa_register %rbp
	cmpl	$0, (%rdi)
	je	LBB58_1
	addq	$4, %rdi
	popq	%rbp
	jmp	__ZN70_$LT$std..sys..unix..fd..FileDesc$u20$as$u20$core..ops..drop..Drop$GT$4drop17hf5fce2bf4d9f8deaE
LBB58_1:
	popq	%rbp
	retq
	.cfi_endproc

	.p2align	4, 0x90
__ZN4core3ptr13drop_in_place17h48983fe2dd5ef051E:
Lfunc_begin13:
	.cfi_startproc
	.cfi_personality 155, _rust_eh_personality
	.cfi_lsda 16, Lexception13
	pushq	%rbp
	.cfi_def_cfa_offset 16
	.cfi_offset %rbp, -16
	movq	%rsp, %rbp
	.cfi_def_cfa_register %rbp
	pushq	%r15
	pushq	%r14
	pushq	%r13
	pushq	%r12
	pushq	%rbx
	pushq	%rax
	.cfi_offset %rbx, -56
	.cfi_offset %r12, -48
	.cfi_offset %r13, -40
	.cfi_offset %r14, -32
	.cfi_offset %r15, -24
	movq	%rdi, %r14
	movq	(%rdi), %rbx
	movq	16(%rdi), %r12
	testq	%r12, %r12
	je	LBB59_7
	shlq	$4, %r12
	leaq	(%rbx,%r12), %r15
	addq	$-16, %r12
	addq	$16, %rbx
	jmp	LBB59_2
	.p2align	4, 0x90
LBB59_5:
	addq	$-16, %r12
	addq	$16, %rbx
	addq	$16, %r13
	cmpq	%r15, %r13
	je	LBB59_6
LBB59_2:
	movq	-16(%rbx), %rdi
	movq	-8(%rbx), %rax
Ltmp210:
	callq	*(%rax)
Ltmp211:
	leaq	-16(%rbx), %r13
	movq	8(%r13), %rax
	movq	8(%rax), %rsi
	testq	%rsi, %rsi
	je	LBB59_5
	movq	-16(%rbx), %rdi
	movq	16(%rax), %rdx
	callq	___rust_dealloc
	jmp	LBB59_5
LBB59_6:
	movq	(%r14), %rbx
LBB59_7:
	movq	8(%r14), %rsi
	testq	%rsi, %rsi
	je	LBB59_14
	testq	%rbx, %rbx
	je	LBB59_14
	shlq	$4, %rsi
	je	LBB59_14
	movl	$8, %edx
	movq	%rbx, %rdi
	addq	$8, %rsp
	popq	%rbx
	popq	%r12
	popq	%r13
	popq	%r14
	popq	%r15
	popq	%rbp
	jmp	___rust_dealloc
LBB59_14:
	addq	$8, %rsp
	popq	%rbx
	popq	%r12
	popq	%r13
	popq	%r14
	popq	%r15
	popq	%rbp
	retq
LBB59_11:
Ltmp212:
	movq	%rax, %r15
	movq	-16(%rbx), %rdi
	movq	-8(%rbx), %rsi
	callq	__ZN5alloc5alloc8box_free17h49e85cf81d60bb52E
	testq	%r12, %r12
	je	LBB59_16
	.p2align	4, 0x90
LBB59_12:
Ltmp213:
	movq	%rbx, %rdi
	callq	__ZN4core3ptr13drop_in_place17h303c4f2e852c7f99E
Ltmp214:
	addq	$16, %rbx
	addq	$-16, %r12
	jne	LBB59_12
	jmp	LBB59_16
LBB59_15:
Ltmp215:
	movq	%rax, %r15
LBB59_16:
	movq	(%r14), %rdi
	movq	8(%r14), %rsi
	callq	__ZN4core3ptr13drop_in_place17h8459d739aeffcc29E
	movq	%r15, %rdi
	callq	__Unwind_Resume
	ud2
Lfunc_end13:
	.cfi_endproc
	.section	__TEXT,__gcc_except_tab
	.p2align	2
GCC_except_table59:
Lexception13:
	.byte	255
	.byte	255
	.byte	1
	.uleb128 Lcst_end13-Lcst_begin13
Lcst_begin13:
	.uleb128 Ltmp210-Lfunc_begin13
	.uleb128 Ltmp211-Ltmp210
	.uleb128 Ltmp212-Lfunc_begin13
	.byte	0
	.uleb128 Ltmp213-Lfunc_begin13
	.uleb128 Ltmp214-Ltmp213
	.uleb128 Ltmp215-Lfunc_begin13
	.byte	0
	.uleb128 Ltmp214-Lfunc_begin13
	.uleb128 Lfunc_end13-Ltmp214
	.byte	0
	.byte	0
Lcst_end13:
	.p2align	2

	.section	__TEXT,__text,regular,pure_instructions
	.p2align	4, 0x90
__ZN4core3ptr13drop_in_place17h4acb1488d0f180ceE:
	.cfi_startproc
	pushq	%rbp
	.cfi_def_cfa_offset 16
	.cfi_offset %rbp, -16
	movq	%rsp, %rbp
	.cfi_def_cfa_register %rbp
	pushq	%rbx
	pushq	%rax
	.cfi_offset %rbx, -24
	movq	%rdi, %rbx
	movq	(%rdi), %rdi
	testq	%rdi, %rdi
	je	LBB60_3
	movq	8(%rbx), %rsi
	testq	%rsi, %rsi
	je	LBB60_3
	movl	$1, %edx
	callq	___rust_dealloc
LBB60_3:
	movq	24(%rbx), %rdi
	testq	%rdi, %rdi
	je	LBB60_5
	movq	32(%rbx), %rsi
	testq	%rsi, %rsi
	je	LBB60_5
	movl	$1, %edx
	addq	$8, %rsp
	popq	%rbx
	popq	%rbp
	jmp	___rust_dealloc
LBB60_5:
	addq	$8, %rsp
	popq	%rbx
	popq	%rbp
	retq
	.cfi_endproc

	.p2align	4, 0x90
__ZN4core3ptr13drop_in_place17h4fed1e42d72638e3E:
	.cfi_startproc
	pushq	%rbp
	.cfi_def_cfa_offset 16
	.cfi_offset %rbp, -16
	movq	%rsp, %rbp
	.cfi_def_cfa_register %rbp
	movq	8(%rdi), %rsi
	testq	%rsi, %rsi
	je	LBB61_1
	movq	(%rdi), %rdi
	movl	$1, %edx
	popq	%rbp
	jmp	___rust_dealloc
LBB61_1:
	popq	%rbp
	retq
	.cfi_endproc

	.p2align	4, 0x90
__ZN4core3ptr13drop_in_place17h53aed27438ad4866E:
	.cfi_startproc
	pushq	%rbp
	.cfi_def_cfa_offset 16
	.cfi_offset %rbp, -16
	movq	%rsp, %rbp
	.cfi_def_cfa_register %rbp
	pushq	%r14
	pushq	%rbx
	.cfi_offset %rbx, -32
	.cfi_offset %r14, -24
	movq	%rdi, %rbx
	cmpb	$0, 8(%rdi)
	jne	LBB62_3
	movq	(%rbx), %r14
	callq	__ZN3std9panicking9panicking17h6f800ddc6c0d9b77E
	testb	%al, %al
	je	LBB62_3
	movb	$1, 8(%r14)
LBB62_3:
	movq	(%rbx), %rax
	movq	(%rax), %rdi
	popq	%rbx
	popq	%r14
	popq	%rbp
	jmp	_pthread_mutex_unlock
	.cfi_endproc

	.p2align	4, 0x90
__ZN4core3ptr13drop_in_place17h5454fdc7c29d91fbE:
	.cfi_startproc
	pushq	%rbp
	.cfi_def_cfa_offset 16
	.cfi_offset %rbp, -16
	movq	%rsp, %rbp
	.cfi_def_cfa_register %rbp
	pushq	%r15
	pushq	%r14
	pushq	%r13
	pushq	%r12
	pushq	%rbx
	pushq	%rax
	.cfi_offset %rbx, -56
	.cfi_offset %r12, -48
	.cfi_offset %r13, -40
	.cfi_offset %r14, -32
	.cfi_offset %r15, -24
	movq	(%rdi), %rax
	testq	%rax, %rax
	je	LBB63_17
	movq	8(%rdi), %rbx
	movq	%rdi, -48(%rbp)
	movq	16(%rdi), %r15
	leaq	(%rax,%rbx), %r12
	addq	$1, %r12
	vmovdqa	(%rbx), %xmm0
	vpmovmskb	%xmm0, %r13d
	notl	%r13d
	addq	$16, %rbx
	.p2align	4, 0x90
LBB63_2:
	testw	%r13w, %r13w
	jne	LBB63_6
	.p2align	4, 0x90
LBB63_3:
	cmpq	%r12, %rbx
	jae	LBB63_12
	vmovdqa	(%rbx), %xmm0
	vpmovmskb	%xmm0, %r13d
	addq	$768, %r15
	addq	$16, %rbx
	cmpw	$-1, %r13w
	je	LBB63_3
	notl	%r13d
LBB63_6:
	tzcntw	%r13w, %ax
	movzwl	%ax, %eax
	blsrl	%r13d, %r13d
	leaq	(%rax,%rax,2), %r14
	shlq	$4, %r14
	movq	(%r15,%r14), %rdi
	testq	%rdi, %rdi
	je	LBB63_9
	movq	8(%r15,%r14), %rsi
	testq	%rsi, %rsi
	je	LBB63_9
	movl	$1, %edx
	callq	___rust_dealloc
LBB63_9:
	movq	24(%r15,%r14), %rdi
	testq	%rdi, %rdi
	je	LBB63_2
	movq	32(%r15,%r14), %rsi
	testq	%rsi, %rsi
	je	LBB63_2
	movl	$1, %edx
	callq	___rust_dealloc
	testw	%r13w, %r13w
	jne	LBB63_6
	jmp	LBB63_3
LBB63_12:
	movq	-48(%rbp), %rbx
	movq	(%rbx), %rcx
	leaq	1(%rcx), %rax
	movl	$48, %edx
	xorl	%esi, %esi
	mulq	%rdx
	setno	%dl
	jo	LBB63_13
	movb	%dl, %sil
	shlq	$3, %rsi
	leaq	(%rcx,%rsi), %rdx
	addq	$16, %rdx
	addq	$17, %rcx
	negq	%rsi
	andq	%rdx, %rsi
	subq	%rcx, %rsi
	addq	%rcx, %rsi
	jae	LBB63_15
LBB63_13:
	xorl	%edx, %edx
	jmp	LBB63_16
LBB63_17:
	addq	$8, %rsp
	popq	%rbx
	popq	%r12
	popq	%r13
	popq	%r14
	popq	%r15
	popq	%rbp
	retq
LBB63_15:
	leaq	(%rsi,%rax), %rcx
	xorl	%edi, %edi
	cmpq	$-15, %rcx
	setb	%dil
	shlq	$4, %rdi
	xorl	%edx, %edx
	addq	%rax, %rsi
	cmovaeq	%rdi, %rdx
LBB63_16:
	movq	8(%rbx), %rdi
	addq	$8, %rsp
	popq	%rbx
	popq	%r12
	popq	%r13
	popq	%r14
	popq	%r15
	popq	%rbp
	jmp	___rust_dealloc
	.cfi_endproc

	.p2align	4, 0x90
__ZN4core3ptr13drop_in_place17h55f97eec8f7fc00bE:
	.cfi_startproc
	pushq	%rbp
	.cfi_def_cfa_offset 16
	.cfi_offset %rbp, -16
	movq	%rsp, %rbp
	.cfi_def_cfa_register %rbp
	pushq	%r15
	pushq	%r14
	pushq	%r13
	pushq	%r12
	pushq	%rbx
	pushq	%rax
	.cfi_offset %rbx, -56
	.cfi_offset %r12, -48
	.cfi_offset %r13, -40
	.cfi_offset %r14, -32
	.cfi_offset %r15, -24
	movq	%rdi, %r15
	movq	(%rdi), %rax
	movq	(%rax), %r14
	movq	%r14, %rcx
	movq	$-1, %rdi
	incq	%rcx
	je	LBB64_10
	negq	%r14
	movl	$8, %r12d
	movq	$-16, %rbx
	leaq	(%r14,%rbx), %r13
	movq	8(%rax), %rcx
	cmpb	$-128, 16(%rcx,%rbx)
	jne	LBB64_7
	.p2align	4, 0x90
LBB64_3:
	movq	(%rax), %rax
	andq	%rbx, %rax
	movb	$-1, 16(%rcx,%rbx)
	movb	$-1, 16(%rax,%rcx)
	movq	(%r15), %rax
	movq	16(%rax), %rcx
	movq	-8(%rcx,%r12), %rdi
	testq	%rdi, %rdi
	je	LBB64_6
	movq	(%rcx,%r12), %rsi
	testq	%rsi, %rsi
	je	LBB64_6
	movl	$1, %edx
	callq	___rust_dealloc
	movq	(%r15), %rax
LBB64_6:
	decq	32(%rax)
LBB64_7:
	cmpq	$-16, %r13
	je	LBB64_9
	movq	(%r15), %rax
	addq	$32, %r12
	incq	%rbx
	leaq	(%r14,%rbx), %r13
	movq	8(%rax), %rcx
	cmpb	$-128, 16(%rcx,%rbx)
	je	LBB64_3
	jmp	LBB64_7
LBB64_9:
	movq	(%r15), %rax
	movq	(%rax), %rdi
LBB64_10:
	callq	__ZN9hashbrown3raw23bucket_mask_to_capacity17h4bf1081b6c8626a8E
	movq	(%r15), %rcx
	subq	32(%rcx), %rax
	movq	%rax, 24(%rcx)
	addq	$8, %rsp
	popq	%rbx
	popq	%r12
	popq	%r13
	popq	%r14
	popq	%r15
	popq	%rbp
	retq
	.cfi_endproc

	.p2align	4, 0x90
__ZN4core3ptr13drop_in_place17h5896f35e73c19346E:
	.cfi_startproc
	pushq	%rbp
	.cfi_def_cfa_offset 16
	.cfi_offset %rbp, -16
	movq	%rsp, %rbp
	.cfi_def_cfa_register %rbp
	pushq	%r15
	pushq	%r14
	pushq	%rbx
	pushq	%rax
	.cfi_offset %rbx, -40
	.cfi_offset %r14, -32
	.cfi_offset %r15, -24
	movq	%rdi, %r14
	movq	(%rdi), %rbx
	movq	16(%rdi), %rax
	testq	%rax, %rax
	je	LBB65_10
	leaq	(%rax,%rax,2), %r15
	shlq	$4, %r15
	addq	%rbx, %r15
	movq	(%rbx), %rdi
	testq	%rdi, %rdi
	jne	LBB65_3
	jmp	LBB65_5
	.p2align	4, 0x90
LBB65_8:
	addq	$48, %rbx
	cmpq	%r15, %rbx
	je	LBB65_9
	movq	(%rbx), %rdi
	testq	%rdi, %rdi
	je	LBB65_5
LBB65_3:
	movq	8(%rbx), %rsi
	testq	%rsi, %rsi
	je	LBB65_5
	movl	$1, %edx
	callq	___rust_dealloc
LBB65_5:
	movq	24(%rbx), %rdi
	testq	%rdi, %rdi
	je	LBB65_8
	movq	32(%rbx), %rsi
	testq	%rsi, %rsi
	je	LBB65_8
	movl	$1, %edx
	callq	___rust_dealloc
	jmp	LBB65_8
LBB65_9:
	movq	(%r14), %rbx
LBB65_10:
	movq	8(%r14), %rax
	testq	%rax, %rax
	je	LBB65_13
	testq	%rbx, %rbx
	je	LBB65_13
	shlq	$4, %rax
	leaq	(%rax,%rax,2), %rsi
	testq	%rsi, %rsi
	je	LBB65_13
	movl	$8, %edx
	movq	%rbx, %rdi
	addq	$8, %rsp
	popq	%rbx
	popq	%r14
	popq	%r15
	popq	%rbp
	jmp	___rust_dealloc
LBB65_13:
	addq	$8, %rsp
	popq	%rbx
	popq	%r14
	popq	%r15
	popq	%rbp
	retq
	.cfi_endproc

	.p2align	4, 0x90
__ZN4core3ptr13drop_in_place17h58ad996aca9608bfE:
Lfunc_begin14:
	.cfi_startproc
	.cfi_personality 155, _rust_eh_personality
	.cfi_lsda 16, Lexception14
	pushq	%rbp
	.cfi_def_cfa_offset 16
	.cfi_offset %rbp, -16
	movq	%rsp, %rbp
	.cfi_def_cfa_register %rbp
	pushq	%r15
	pushq	%r14
	pushq	%rbx
	pushq	%rax
	.cfi_offset %rbx, -40
	.cfi_offset %r14, -32
	.cfi_offset %r15, -24
	cmpl	$0, (%rdi)
	je	LBB66_6
	movq	%rdi, %rbx
	cmpb	$2, 8(%rdi)
	jae	LBB66_2
LBB66_6:
	addq	$8, %rsp
	popq	%rbx
	popq	%r14
	popq	%r15
	popq	%rbp
	retq
LBB66_2:
	movq	16(%rbx), %r15
	movq	(%r15), %rdi
	movq	8(%r15), %rax
Ltmp216:
	callq	*(%rax)
Ltmp217:
	movq	8(%r15), %rax
	movq	8(%rax), %rsi
	testq	%rsi, %rsi
	je	LBB66_5
	movq	(%r15), %rdi
	movq	16(%rax), %rdx
	callq	___rust_dealloc
LBB66_5:
	movq	16(%rbx), %rdi
	movl	$24, %esi
	movl	$8, %edx
	addq	$8, %rsp
	popq	%rbx
	popq	%r14
	popq	%r15
	popq	%rbp
	jmp	___rust_dealloc
LBB66_7:
Ltmp218:
	movq	%rax, %r14
	movq	(%r15), %rdi
	movq	8(%r15), %rsi
	callq	__ZN5alloc5alloc8box_free17h49e85cf81d60bb52E
	movq	16(%rbx), %rdi
	callq	__ZN5alloc5alloc8box_free17h2cbd3df002e609cdE
	movq	%r14, %rdi
	callq	__Unwind_Resume
	ud2
Lfunc_end14:
	.cfi_endproc
	.section	__TEXT,__gcc_except_tab
	.p2align	2
GCC_except_table66:
Lexception14:
	.byte	255
	.byte	255
	.byte	1
	.uleb128 Lcst_end14-Lcst_begin14
Lcst_begin14:
	.uleb128 Ltmp216-Lfunc_begin14
	.uleb128 Ltmp217-Ltmp216
	.uleb128 Ltmp218-Lfunc_begin14
	.byte	0
	.uleb128 Ltmp217-Lfunc_begin14
	.uleb128 Lfunc_end14-Ltmp217
	.byte	0
	.byte	0
Lcst_end14:
	.p2align	2

	.section	__TEXT,__text,regular,pure_instructions
	.p2align	4, 0x90
__ZN4core3ptr13drop_in_place17h5f48cc72a7a4bbbaE:
	.cfi_startproc
	pushq	%rbp
	.cfi_def_cfa_offset 16
	.cfi_offset %rbp, -16
	movq	%rsp, %rbp
	.cfi_def_cfa_register %rbp
	pushq	%r15
	pushq	%r14
	pushq	%rbx
	pushq	%rax
	.cfi_offset %rbx, -40
	.cfi_offset %r14, -32
	.cfi_offset %r15, -24
	movq	%rdi, %r14
	movq	(%rdi), %rdi
	testq	%rdi, %rdi
	je	LBB67_3
	movq	8(%r14), %rsi
	testq	%rsi, %rsi
	je	LBB67_3
	movl	$1, %edx
	callq	___rust_dealloc
LBB67_3:
	movq	24(%r14), %rdi
	testq	%rdi, %rdi
	je	LBB67_6
	movq	32(%r14), %rsi
	testq	%rsi, %rsi
	je	LBB67_6
	movl	$1, %edx
	callq	___rust_dealloc
LBB67_6:
	movq	48(%r14), %rbx
	movq	64(%r14), %rax
	testq	%rax, %rax
	je	LBB67_13
	leaq	(%rax,%rax,2), %rax
	leaq	(%rbx,%rax,8), %r15
	movq	(%rbx), %rdi
	testq	%rdi, %rdi
	jne	LBB67_9
	.p2align	4, 0x90
LBB67_11:
	addq	$24, %rbx
	cmpq	%r15, %rbx
	je	LBB67_12
LBB67_8:
	movq	(%rbx), %rdi
	testq	%rdi, %rdi
	je	LBB67_11
LBB67_9:
	movq	8(%rbx), %rsi
	testq	%rsi, %rsi
	je	LBB67_11
	movl	$1, %edx
	callq	___rust_dealloc
	addq	$24, %rbx
	cmpq	%r15, %rbx
	jne	LBB67_8
LBB67_12:
	movq	48(%r14), %rbx
LBB67_13:
	movq	56(%r14), %rax
	testq	%rax, %rax
	je	LBB67_17
	testq	%rbx, %rbx
	je	LBB67_17
	shlq	$3, %rax
	leaq	(%rax,%rax,2), %rsi
	testq	%rsi, %rsi
	je	LBB67_17
	movl	$8, %edx
	movq	%rbx, %rdi
	callq	___rust_dealloc
LBB67_17:
	movq	72(%r14), %rbx
	movq	88(%r14), %rax
	testq	%rax, %rax
	je	LBB67_24
	leaq	(%rax,%rax,2), %rax
	leaq	(%rbx,%rax,8), %r15
	movq	(%rbx), %rdi
	testq	%rdi, %rdi
	jne	LBB67_20
	.p2align	4, 0x90
LBB67_22:
	addq	$24, %rbx
	cmpq	%r15, %rbx
	je	LBB67_23
LBB67_19:
	movq	(%rbx), %rdi
	testq	%rdi, %rdi
	je	LBB67_22
LBB67_20:
	movq	8(%rbx), %rsi
	testq	%rsi, %rsi
	je	LBB67_22
	movl	$1, %edx
	callq	___rust_dealloc
	addq	$24, %rbx
	cmpq	%r15, %rbx
	jne	LBB67_19
LBB67_23:
	movq	72(%r14), %rbx
LBB67_24:
	movq	80(%r14), %rax
	testq	%rax, %rax
	je	LBB67_28
	testq	%rbx, %rbx
	je	LBB67_28
	shlq	$3, %rax
	leaq	(%rax,%rax,2), %rsi
	testq	%rsi, %rsi
	je	LBB67_28
	movl	$8, %edx
	movq	%rbx, %rdi
	callq	___rust_dealloc
LBB67_28:
	movq	96(%r14), %rbx
	movq	112(%r14), %rax
	testq	%rax, %rax
	je	LBB67_38
	leaq	(%rax,%rax,2), %r15
	shlq	$4, %r15
	addq	%rbx, %r15
	movq	(%rbx), %rdi
	testq	%rdi, %rdi
	jne	LBB67_31
	jmp	LBB67_33
	.p2align	4, 0x90
LBB67_36:
	addq	$48, %rbx
	cmpq	%r15, %rbx
	je	LBB67_37
	movq	(%rbx), %rdi
	testq	%rdi, %rdi
	je	LBB67_33
LBB67_31:
	movq	8(%rbx), %rsi
	testq	%rsi, %rsi
	je	LBB67_33
	movl	$1, %edx
	callq	___rust_dealloc
LBB67_33:
	movq	24(%rbx), %rdi
	testq	%rdi, %rdi
	je	LBB67_36
	movq	32(%rbx), %rsi
	testq	%rsi, %rsi
	je	LBB67_36
	movl	$1, %edx
	callq	___rust_dealloc
	jmp	LBB67_36
LBB67_37:
	movq	96(%r14), %rbx
LBB67_38:
	movq	104(%r14), %rax
	testq	%rax, %rax
	je	LBB67_39
	testq	%rbx, %rbx
	je	LBB67_39
	shlq	$4, %rax
	leaq	(%rax,%rax,2), %rsi
	testq	%rsi, %rsi
	je	LBB67_39
	movl	$8, %edx
	movq	%rbx, %rdi
	callq	___rust_dealloc
LBB67_39:
	movq	120(%r14), %rbx
	movq	136(%r14), %rax
	testq	%rax, %rax
	je	LBB67_46
	leaq	(%rax,%rax,2), %rax
	leaq	(%rbx,%rax,8), %r15
	movq	(%rbx), %rdi
	testq	%rdi, %rdi
	jne	LBB67_42
	.p2align	4, 0x90
LBB67_44:
	addq	$24, %rbx
	cmpq	%r15, %rbx
	je	LBB67_45
LBB67_41:
	movq	(%rbx), %rdi
	testq	%rdi, %rdi
	je	LBB67_44
LBB67_42:
	movq	8(%rbx), %rsi
	testq	%rsi, %rsi
	je	LBB67_44
	movl	$1, %edx
	callq	___rust_dealloc
	addq	$24, %rbx
	cmpq	%r15, %rbx
	jne	LBB67_41
LBB67_45:
	movq	120(%r14), %rbx
LBB67_46:
	movq	128(%r14), %rax
	testq	%rax, %rax
	je	LBB67_49
	testq	%rbx, %rbx
	je	LBB67_49
	shlq	$3, %rax
	leaq	(%rax,%rax,2), %rsi
	testq	%rsi, %rsi
	je	LBB67_49
	movl	$8, %edx
	movq	%rbx, %rdi
	addq	$8, %rsp
	popq	%rbx
	popq	%r14
	popq	%r15
	popq	%rbp
	jmp	___rust_dealloc
LBB67_49:
	addq	$8, %rsp
	popq	%rbx
	popq	%r14
	popq	%r15
	popq	%rbp
	retq
	.cfi_endproc

	.p2align	4, 0x90
__ZN4core3ptr13drop_in_place17h5f940999b6fdefe4E:
	.cfi_startproc
	pushq	%rbp
	.cfi_def_cfa_offset 16
	.cfi_offset %rbp, -16
	movq	%rsp, %rbp
	.cfi_def_cfa_register %rbp
	pushq	%r15
	pushq	%r14
	pushq	%rbx
	pushq	%rax
	.cfi_offset %rbx, -40
	.cfi_offset %r14, -32
	.cfi_offset %r15, -24
	movq	%rdi, %r14
	movq	(%rdi), %rbx
	movq	16(%rdi), %rax
	testq	%rax, %rax
	je	LBB68_7
	leaq	(%rax,%rax,2), %rax
	leaq	(%rbx,%rax,8), %r15
	movq	(%rbx), %rdi
	testq	%rdi, %rdi
	jne	LBB68_3
	.p2align	4, 0x90
LBB68_5:
	addq	$24, %rbx
	cmpq	%r15, %rbx
	je	LBB68_6
LBB68_2:
	movq	(%rbx), %rdi
	testq	%rdi, %rdi
	je	LBB68_5
LBB68_3:
	movq	8(%rbx), %rsi
	testq	%rsi, %rsi
	je	LBB68_5
	movl	$1, %edx
	callq	___rust_dealloc
	addq	$24, %rbx
	cmpq	%r15, %rbx
	jne	LBB68_2
LBB68_6:
	movq	(%r14), %rbx
LBB68_7:
	movq	8(%r14), %rax
	testq	%rax, %rax
	je	LBB68_10
	testq	%rbx, %rbx
	je	LBB68_10
	shlq	$3, %rax
	leaq	(%rax,%rax,2), %rsi
	testq	%rsi, %rsi
	je	LBB68_10
	movl	$8, %edx
	movq	%rbx, %rdi
	addq	$8, %rsp
	popq	%rbx
	popq	%r14
	popq	%r15
	popq	%rbp
	jmp	___rust_dealloc
LBB68_10:
	addq	$8, %rsp
	popq	%rbx
	popq	%r14
	popq	%r15
	popq	%rbp
	retq
	.cfi_endproc

	.p2align	4, 0x90
__ZN4core3ptr13drop_in_place17h6cda02102dff6505E:
	.cfi_startproc
	pushq	%rbp
	.cfi_def_cfa_offset 16
	.cfi_offset %rbp, -16
	movq	%rsp, %rbp
	.cfi_def_cfa_register %rbp
	movq	(%rdi), %rax
	lock		decq	(%rax)
	jne	LBB69_1
	##MEMBARRIER
	popq	%rbp
	jmp	__ZN5alloc4sync12Arc$LT$T$GT$9drop_slow17h8389483e09127b79E
LBB69_1:
	popq	%rbp
	retq
	.cfi_endproc

	.p2align	4, 0x90
__ZN4core3ptr13drop_in_place17h6f49dcdf3fcac069E:
	.cfi_startproc
	pushq	%rbp
	.cfi_def_cfa_offset 16
	.cfi_offset %rbp, -16
	movq	%rsp, %rbp
	.cfi_def_cfa_register %rbp
	pushq	%r15
	pushq	%r14
	pushq	%r12
	pushq	%rbx
	.cfi_offset %rbx, -48
	.cfi_offset %r12, -40
	.cfi_offset %r14, -32
	.cfi_offset %r15, -24
	movq	%rdi, %r14
	movq	(%rdi), %rbx
	movq	16(%rdi), %rax
	testq	%rax, %rax
	je	LBB70_10
	leaq	(%rax,%rax,2), %r15
	shlq	$4, %r15
	addq	%rbx, %r15
	addq	$32, %rbx
	leaq	-32(%rbx), %r12
	movq	-32(%rbx), %rdi
	testq	%rdi, %rdi
	jne	LBB70_3
	jmp	LBB70_5
	.p2align	4, 0x90
LBB70_8:
	addq	$48, %rbx
	addq	$48, %r12
	cmpq	%r15, %r12
	je	LBB70_9
	leaq	-32(%rbx), %r12
	movq	-32(%rbx), %rdi
	testq	%rdi, %rdi
	je	LBB70_5
LBB70_3:
	movq	-24(%rbx), %rsi
	testq	%rsi, %rsi
	je	LBB70_5
	movl	$1, %edx
	callq	___rust_dealloc
LBB70_5:
	movq	24(%r12), %rdi
	testq	%rdi, %rdi
	je	LBB70_8
	movq	(%rbx), %rsi
	testq	%rsi, %rsi
	je	LBB70_8
	movl	$1, %edx
	callq	___rust_dealloc
	jmp	LBB70_8
LBB70_9:
	movq	(%r14), %rbx
LBB70_10:
	movq	8(%r14), %rax
	testq	%rax, %rax
	je	LBB70_13
	testq	%rbx, %rbx
	je	LBB70_13
	shlq	$4, %rax
	leaq	(%rax,%rax,2), %rsi
	testq	%rsi, %rsi
	je	LBB70_13
	movl	$8, %edx
	movq	%rbx, %rdi
	popq	%rbx
	popq	%r12
	popq	%r14
	popq	%r15
	popq	%rbp
	jmp	___rust_dealloc
LBB70_13:
	popq	%rbx
	popq	%r12
	popq	%r14
	popq	%r15
	popq	%rbp
	retq
	.cfi_endproc

	.p2align	4, 0x90
__ZN4core3ptr13drop_in_place17h72053f8a65b8ac84E:
	.cfi_startproc
	pushq	%rbp
	.cfi_def_cfa_offset 16
	.cfi_offset %rbp, -16
	movq	%rsp, %rbp
	.cfi_def_cfa_register %rbp
	addq	$16, %rdi
	popq	%rbp
	jmp	__ZN4core3ptr13drop_in_place17h5454fdc7c29d91fbE
	.cfi_endproc

	.p2align	4, 0x90
__ZN4core3ptr13drop_in_place17h7700bbbea002d3adE:
	.cfi_startproc
	pushq	%rbp
	.cfi_def_cfa_offset 16
	.cfi_offset %rbp, -16
	movq	%rsp, %rbp
	.cfi_def_cfa_register %rbp
	pushq	%r15
	pushq	%r14
	pushq	%rbx
	pushq	%rax
	.cfi_offset %rbx, -40
	.cfi_offset %r14, -32
	.cfi_offset %r15, -24
	movq	%rdi, %r14
	movq	(%rdi), %rbx
	movq	16(%rdi), %rax
	testq	%rax, %rax
	je	LBB72_7
	leaq	(%rax,%rax,2), %rax
	leaq	(%rbx,%rax,8), %r15
	movq	(%rbx), %rdi
	testq	%rdi, %rdi
	jne	LBB72_3
	.p2align	4, 0x90
LBB72_5:
	addq	$24, %rbx
	cmpq	%r15, %rbx
	je	LBB72_6
LBB72_2:
	movq	(%rbx), %rdi
	testq	%rdi, %rdi
	je	LBB72_5
LBB72_3:
	movq	8(%rbx), %rsi
	testq	%rsi, %rsi
	je	LBB72_5
	movl	$1, %edx
	callq	___rust_dealloc
	addq	$24, %rbx
	cmpq	%r15, %rbx
	jne	LBB72_2
LBB72_6:
	movq	(%r14), %rbx
LBB72_7:
	movq	8(%r14), %rax
	testq	%rax, %rax
	je	LBB72_10
	testq	%rbx, %rbx
	je	LBB72_10
	shlq	$3, %rax
	leaq	(%rax,%rax,2), %rsi
	testq	%rsi, %rsi
	je	LBB72_10
	movl	$8, %edx
	movq	%rbx, %rdi
	addq	$8, %rsp
	popq	%rbx
	popq	%r14
	popq	%r15
	popq	%rbp
	jmp	___rust_dealloc
LBB72_10:
	addq	$8, %rsp
	popq	%rbx
	popq	%r14
	popq	%r15
	popq	%rbp
	retq
	.cfi_endproc

	.p2align	4, 0x90
__ZN4core3ptr13drop_in_place17h7827875a666b9d04E:
	.cfi_startproc
	pushq	%rbp
	.cfi_def_cfa_offset 16
	.cfi_offset %rbp, -16
	movq	%rsp, %rbp
	.cfi_def_cfa_register %rbp
	movq	%rdi, %rax
	movq	8(%rdi), %rdi
	movq	16(%rax), %rsi
	testq	%rsi, %rsi
	sete	%dl
	testq	%rdi, %rdi
	sete	%cl
	orb	%dl, %cl
	cmpq	$0, (%rax)
	testb	%cl, %cl
	je	LBB73_2
	popq	%rbp
	retq
LBB73_2:
	movl	$1, %edx
	popq	%rbp
	jmp	___rust_dealloc
	.cfi_endproc

	.p2align	4, 0x90
__ZN4core3ptr13drop_in_place17h7b3a061370ae9541E:
Lfunc_begin15:
	.cfi_startproc
	.cfi_personality 155, _rust_eh_personality
	.cfi_lsda 16, Lexception15
	pushq	%rbp
	.cfi_def_cfa_offset 16
	.cfi_offset %rbp, -16
	movq	%rsp, %rbp
	.cfi_def_cfa_register %rbp
	pushq	%r15
	pushq	%r14
	pushq	%rbx
	pushq	%rax
	.cfi_offset %rbx, -40
	.cfi_offset %r14, -32
	.cfi_offset %r15, -24
	cmpq	$0, (%rdi)
	je	LBB74_6
	movq	%rdi, %rbx
	cmpb	$2, 8(%rdi)
	jae	LBB74_2
LBB74_6:
	addq	$8, %rsp
	popq	%rbx
	popq	%r14
	popq	%r15
	popq	%rbp
	retq
LBB74_2:
	movq	16(%rbx), %r15
	movq	(%r15), %rdi
	movq	8(%r15), %rax
Ltmp219:
	callq	*(%rax)
Ltmp220:
	movq	8(%r15), %rax
	movq	8(%rax), %rsi
	testq	%rsi, %rsi
	je	LBB74_5
	movq	(%r15), %rdi
	movq	16(%rax), %rdx
	callq	___rust_dealloc
LBB74_5:
	movq	16(%rbx), %rdi
	movl	$24, %esi
	movl	$8, %edx
	addq	$8, %rsp
	popq	%rbx
	popq	%r14
	popq	%r15
	popq	%rbp
	jmp	___rust_dealloc
LBB74_7:
Ltmp221:
	movq	%rax, %r14
	movq	(%r15), %rdi
	movq	8(%r15), %rsi
	callq	__ZN5alloc5alloc8box_free17h49e85cf81d60bb52E
	movq	16(%rbx), %rdi
	callq	__ZN5alloc5alloc8box_free17h2cbd3df002e609cdE
	movq	%r14, %rdi
	callq	__Unwind_Resume
	ud2
Lfunc_end15:
	.cfi_endproc
	.section	__TEXT,__gcc_except_tab
	.p2align	2
GCC_except_table74:
Lexception15:
	.byte	255
	.byte	255
	.byte	1
	.uleb128 Lcst_end15-Lcst_begin15
Lcst_begin15:
	.uleb128 Ltmp219-Lfunc_begin15
	.uleb128 Ltmp220-Ltmp219
	.uleb128 Ltmp221-Lfunc_begin15
	.byte	0
	.uleb128 Ltmp220-Lfunc_begin15
	.uleb128 Lfunc_end15-Ltmp220
	.byte	0
	.byte	0
Lcst_end15:
	.p2align	2

	.section	__TEXT,__text,regular,pure_instructions
	.p2align	4, 0x90
__ZN4core3ptr13drop_in_place17h7c17b5e0d5dd66c3E:
Lfunc_begin16:
	.cfi_startproc
	.cfi_personality 155, _rust_eh_personality
	.cfi_lsda 16, Lexception16
	pushq	%rbp
	.cfi_def_cfa_offset 16
	.cfi_offset %rbp, -16
	movq	%rsp, %rbp
	.cfi_def_cfa_register %rbp
	pushq	%r14
	pushq	%rbx
	.cfi_offset %rbx, -32
	.cfi_offset %r14, -24
	cmpq	$0, (%rdi)
	je	LBB75_6
	movq	%rdi, %rbx
	movq	8(%rdi), %rdi
	testq	%rdi, %rdi
	je	LBB75_6
	movq	16(%rbx), %rax
Ltmp222:
	callq	*(%rax)
Ltmp223:
	movq	16(%rbx), %rax
	movq	8(%rax), %rsi
	testq	%rsi, %rsi
	je	LBB75_6
	movq	8(%rbx), %rdi
	movq	16(%rax), %rdx
	popq	%rbx
	popq	%r14
	popq	%rbp
	jmp	___rust_dealloc
LBB75_6:
	popq	%rbx
	popq	%r14
	popq	%rbp
	retq
LBB75_5:
Ltmp224:
	movq	%rax, %r14
	movq	8(%rbx), %rdi
	movq	16(%rbx), %rsi
	callq	__ZN5alloc5alloc8box_free17h49e85cf81d60bb52E
	movq	%r14, %rdi
	callq	__Unwind_Resume
	ud2
Lfunc_end16:
	.cfi_endproc
	.section	__TEXT,__gcc_except_tab
	.p2align	2
GCC_except_table75:
Lexception16:
	.byte	255
	.byte	255
	.byte	1
	.uleb128 Lcst_end16-Lcst_begin16
Lcst_begin16:
	.uleb128 Ltmp222-Lfunc_begin16
	.uleb128 Ltmp223-Ltmp222
	.uleb128 Ltmp224-Lfunc_begin16
	.byte	0
	.uleb128 Ltmp223-Lfunc_begin16
	.uleb128 Lfunc_end16-Ltmp223
	.byte	0
	.byte	0
Lcst_end16:
	.p2align	2

	.section	__TEXT,__text,regular,pure_instructions
	.p2align	4, 0x90
__ZN4core3ptr13drop_in_place17h7ee9ca74634ab398E:
	.cfi_startproc
	pushq	%rbp
	.cfi_def_cfa_offset 16
	.cfi_offset %rbp, -16
	movq	%rsp, %rbp
	.cfi_def_cfa_register %rbp
	movq	(%rdi), %rax
	lock		decq	(%rax)
	jne	LBB76_1
	##MEMBARRIER
	popq	%rbp
	jmp	__ZN5alloc4sync12Arc$LT$T$GT$9drop_slow17h819aa27857de26c3E
LBB76_1:
	popq	%rbp
	retq
	.cfi_endproc

	.p2align	4, 0x90
__ZN4core3ptr13drop_in_place17h7f959772c584907bE:
Lfunc_begin17:
	.cfi_startproc
	.cfi_personality 155, _rust_eh_personality
	.cfi_lsda 16, Lexception17
	pushq	%rbp
	.cfi_def_cfa_offset 16
	.cfi_offset %rbp, -16
	movq	%rsp, %rbp
	.cfi_def_cfa_register %rbp
	pushq	%r15
	pushq	%r14
	pushq	%rbx
	pushq	%rax
	.cfi_offset %rbx, -40
	.cfi_offset %r14, -32
	.cfi_offset %r15, -24
	cmpb	$2, (%rdi)
	jae	LBB77_1
	addq	$8, %rsp
	popq	%rbx
	popq	%r14
	popq	%r15
	popq	%rbp
	retq
LBB77_1:
	movq	%rdi, %r15
	movq	8(%rdi), %rbx
	movq	(%rbx), %rdi
	movq	8(%rbx), %rax
Ltmp225:
	callq	*(%rax)
Ltmp226:
	movq	8(%rbx), %rax
	movq	8(%rax), %rsi
	testq	%rsi, %rsi
	je	LBB77_4
	movq	(%rbx), %rdi
	movq	16(%rax), %rdx
	callq	___rust_dealloc
LBB77_4:
	movq	8(%r15), %rdi
	movl	$24, %esi
	movl	$8, %edx
	addq	$8, %rsp
	popq	%rbx
	popq	%r14
	popq	%r15
	popq	%rbp
	jmp	___rust_dealloc
LBB77_6:
Ltmp227:
	movq	%rax, %r14
	movq	(%rbx), %rdi
	movq	8(%rbx), %rsi
	callq	__ZN5alloc5alloc8box_free17h49e85cf81d60bb52E
	movq	8(%r15), %rdi
	callq	__ZN5alloc5alloc8box_free17h2cbd3df002e609cdE
	movq	%r14, %rdi
	callq	__Unwind_Resume
	ud2
Lfunc_end17:
	.cfi_endproc
	.section	__TEXT,__gcc_except_tab
	.p2align	2
GCC_except_table77:
Lexception17:
	.byte	255
	.byte	255
	.byte	1
	.uleb128 Lcst_end17-Lcst_begin17
Lcst_begin17:
	.uleb128 Ltmp225-Lfunc_begin17
	.uleb128 Ltmp226-Ltmp225
	.uleb128 Ltmp227-Lfunc_begin17
	.byte	0
	.uleb128 Ltmp226-Lfunc_begin17
	.uleb128 Lfunc_end17-Ltmp226
	.byte	0
	.byte	0
Lcst_end17:
	.p2align	2

	.section	__TEXT,__text,regular,pure_instructions
	.p2align	4, 0x90
__ZN4core3ptr13drop_in_place17h8459d739aeffcc29E:
	.cfi_startproc
	pushq	%rbp
	.cfi_def_cfa_offset 16
	.cfi_offset %rbp, -16
	movq	%rsp, %rbp
	.cfi_def_cfa_register %rbp
	testq	%rsi, %rsi
	je	LBB78_3
	testq	%rdi, %rdi
	je	LBB78_3
	shlq	$4, %rsi
	je	LBB78_3
	movl	$8, %edx
	popq	%rbp
	jmp	___rust_dealloc
LBB78_3:
	popq	%rbp
	retq
	.cfi_endproc

	.p2align	4, 0x90
__ZN4core3ptr13drop_in_place17h980870c67f8b2b8dE:
	.cfi_startproc
	pushq	%rbp
	.cfi_def_cfa_offset 16
	.cfi_offset %rbp, -16
	movq	%rsp, %rbp
	.cfi_def_cfa_register %rbp
	cmpq	$0, (%rdi)
	je	LBB79_3
	movq	%rdi, %rax
	movq	8(%rdi), %rdi
	testq	%rdi, %rdi
	je	LBB79_3
	movq	16(%rax), %rsi
	testq	%rsi, %rsi
	je	LBB79_3
	movl	$1, %edx
	popq	%rbp
	jmp	___rust_dealloc
LBB79_3:
	popq	%rbp
	retq
	.cfi_endproc

	.p2align	4, 0x90
__ZN4core3ptr13drop_in_place17h98f23592eeb45941E:
	.cfi_startproc
	pushq	%rbp
	.cfi_def_cfa_offset 16
	.cfi_offset %rbp, -16
	movq	%rsp, %rbp
	.cfi_def_cfa_register %rbp
	movq	%rdi, %rax
	movq	(%rdi), %rdi
	testq	%rdi, %rdi
	je	LBB80_2
	movq	8(%rax), %rsi
	testq	%rsi, %rsi
	je	LBB80_2
	movl	$1, %edx
	popq	%rbp
	jmp	___rust_dealloc
LBB80_2:
	popq	%rbp
	retq
	.cfi_endproc

	.p2align	4, 0x90
__ZN4core3ptr13drop_in_place17h9a4848a857d3b4ceE:
	.cfi_startproc
	pushq	%rbp
	.cfi_def_cfa_offset 16
	.cfi_offset %rbp, -16
	movq	%rsp, %rbp
	.cfi_def_cfa_register %rbp
	cmpb	$2, 145(%rdi)
	jne	LBB81_2
	popq	%rbp
	retq
LBB81_2:
	popq	%rbp
	jmp	__ZN4core3ptr13drop_in_place17h5f48cc72a7a4bbbaE
	.cfi_endproc

	.p2align	4, 0x90
__ZN4core3ptr13drop_in_place17h9e04622fd8bc2d94E:
	.cfi_startproc
	pushq	%rbp
	.cfi_def_cfa_offset 16
	.cfi_offset %rbp, -16
	movq	%rsp, %rbp
	.cfi_def_cfa_register %rbp
	movq	(%rdi), %rdi
	movl	$64, %esi
	movl	$8, %edx
	popq	%rbp
	jmp	___rust_dealloc
	.cfi_endproc

	.p2align	4, 0x90
__ZN4core3ptr13drop_in_place17ha3aa667bb75a8a25E:
	.cfi_startproc
	pushq	%rbp
	.cfi_def_cfa_offset 16
	.cfi_offset %rbp, -16
	movq	%rsp, %rbp
	.cfi_def_cfa_register %rbp
	pushq	%r15
	pushq	%r14
	pushq	%rbx
	pushq	%rax
	.cfi_offset %rbx, -40
	.cfi_offset %r14, -32
	.cfi_offset %r15, -24
	movq	%rdi, %r14
	movq	16(%rdi), %rbx
	movq	24(%rdi), %r15
	cmpq	%rbx, %r15
	jne	LBB83_1
LBB83_5:
	movq	8(%r14), %rax
	testq	%rax, %rax
	je	LBB83_7
	shlq	$3, %rax
	leaq	(%rax,%rax,2), %rsi
	testq	%rsi, %rsi
	je	LBB83_7
	movq	(%r14), %rdi
	movl	$8, %edx
	addq	$8, %rsp
	popq	%rbx
	popq	%r14
	popq	%r15
	popq	%rbp
	jmp	___rust_dealloc
	.p2align	4, 0x90
LBB83_4:
	addq	$24, %rbx
	cmpq	%r15, %rbx
	je	LBB83_5
LBB83_1:
	movq	(%rbx), %rdi
	testq	%rdi, %rdi
	je	LBB83_4
	movq	8(%rbx), %rsi
	testq	%rsi, %rsi
	je	LBB83_4
	movl	$1, %edx
	callq	___rust_dealloc
	jmp	LBB83_4
LBB83_7:
	addq	$8, %rsp
	popq	%rbx
	popq	%r14
	popq	%r15
	popq	%rbp
	retq
	.cfi_endproc

	.p2align	4, 0x90
__ZN4core3ptr13drop_in_place17haf6df80f748d480aE:
	.cfi_startproc
	pushq	%rbp
	.cfi_def_cfa_offset 16
	.cfi_offset %rbp, -16
	movq	%rsp, %rbp
	.cfi_def_cfa_register %rbp
	movq	(%rdi), %rax
	lock		decq	(%rax)
	jne	LBB84_1
	##MEMBARRIER
	popq	%rbp
	jmp	__ZN5alloc4sync12Arc$LT$T$GT$9drop_slow17hf4b91972a90e86c8E
LBB84_1:
	popq	%rbp
	retq
	.cfi_endproc

	.p2align	4, 0x90
__ZN4core3ptr13drop_in_place17hafa991438e66beb1E:
	.cfi_startproc
	pushq	%rbp
	.cfi_def_cfa_offset 16
	.cfi_offset %rbp, -16
	movq	%rsp, %rbp
	.cfi_def_cfa_register %rbp
	movq	%rdi, %rax
	movq	(%rdi), %rdi
	testq	%rdi, %rdi
	je	LBB85_2
	movq	8(%rax), %rsi
	testq	%rsi, %rsi
	je	LBB85_2
	movl	$1, %edx
	popq	%rbp
	jmp	___rust_dealloc
LBB85_2:
	popq	%rbp
	retq
	.cfi_endproc

	.p2align	4, 0x90
__ZN4core3ptr13drop_in_place17hb09b71738d549375E:
Lfunc_begin18:
	.cfi_startproc
	.cfi_personality 155, _rust_eh_personality
	.cfi_lsda 16, Lexception18
	pushq	%rbp
	.cfi_def_cfa_offset 16
	.cfi_offset %rbp, -16
	movq	%rsp, %rbp
	.cfi_def_cfa_register %rbp
	pushq	%r15
	pushq	%r14
	pushq	%r13
	pushq	%r12
	pushq	%rbx
	subq	$120, %rsp
	.cfi_offset %rbx, -56
	.cfi_offset %r12, -48
	.cfi_offset %r13, -40
	.cfi_offset %r14, -32
	.cfi_offset %r15, -24
	movq	%rdi, %r14
	movq	(%rdi), %rax
	movb	$0, (%rax)
	movq	8(%rdi), %rsi
	testq	%rsi, %rsi
	je	LBB86_2
	movq	(%r14), %rdi
	movl	$1, %edx
	callq	___rust_dealloc
LBB86_2:
	movq	16(%r14), %rbx
	movq	32(%r14), %r15
	testq	%r15, %r15
	je	LBB86_8
	shlq	$4, %r15
	addq	%rbx, %r15
	jmp	LBB86_4
	.p2align	4, 0x90
LBB86_6:
	addq	$16, %rbx
	cmpq	%r15, %rbx
	je	LBB86_7
LBB86_4:
	movq	(%rbx), %rax
	movb	$0, (%rax)
	movq	8(%rbx), %rsi
	testq	%rsi, %rsi
	je	LBB86_6
	movq	(%rbx), %rdi
	movl	$1, %edx
	callq	___rust_dealloc
	jmp	LBB86_6
LBB86_7:
	movq	16(%r14), %rbx
LBB86_8:
	movq	24(%r14), %rsi
	testq	%rsi, %rsi
	je	LBB86_12
	testq	%rbx, %rbx
	je	LBB86_12
	shlq	$4, %rsi
	je	LBB86_12
	movl	$8, %edx
	movq	%rbx, %rdi
	callq	___rust_dealloc
LBB86_12:
	movq	48(%r14), %rsi
	testq	%rsi, %rsi
	je	LBB86_16
	movq	40(%r14), %rdi
	testq	%rdi, %rdi
	je	LBB86_16
	shlq	$3, %rsi
	testq	%rsi, %rsi
	je	LBB86_16
	movl	$8, %edx
	callq	___rust_dealloc
LBB86_16:
	movq	64(%r14), %rcx
	testq	%rcx, %rcx
	je	LBB86_17
	movq	72(%r14), %rdi
	movq	80(%r14), %rax
	movzwl	10(%rcx), %edx
	testq	%rdi, %rdi
	je	LBB86_32
	movb	$1, %bl
	movq	%rcx, %rsi
	.p2align	4, 0x90
LBB86_36:
	testb	$1, %bl
	je	LBB86_33
	cmpq	$1, %rdi
	setne	%bl
	movq	544(%rcx), %rcx
	movq	544(%rsi,%rdx,8), %rsi
	movzwl	10(%rsi), %edx
	decq	%rdi
	jne	LBB86_36
	jmp	LBB86_38
LBB86_17:
	movq	$0, -104(%rbp)
	movq	$0, -72(%rbp)
	xorl	%eax, %eax
	jmp	LBB86_39
LBB86_32:
	movq	%rcx, %rsi
LBB86_38:
	movq	$0, -112(%rbp)
	movq	%rcx, -104(%rbp)
	vxorps	%xmm0, %xmm0, %xmm0
	vmovups	%xmm0, -96(%rbp)
	movq	$0, -80(%rbp)
	movq	%rsi, -72(%rbp)
	movq	$0, -64(%rbp)
	movq	%rdx, -56(%rbp)
LBB86_39:
	movq	%rax, -48(%rbp)
Ltmp230:
	leaq	-160(%rbp), %rdi
	leaq	-112(%rbp), %rsi
	callq	__ZN112_$LT$alloc..collections..btree..map..IntoIter$LT$K$C$V$GT$$u20$as$u20$core..iter..traits..iterator..Iterator$GT$4next17hfbfba43da8b4717fE
Ltmp231:
	movq	-160(%rbp), %rdi
	testq	%rdi, %rdi
	je	LBB86_50
	leaq	-160(%rbp), %r15
	leaq	-112(%rbp), %r12
	.p2align	4, 0x90
LBB86_42:
	movq	-136(%rbp), %rbx
	movq	-128(%rbp), %r13
	testq	%rdi, %rdi
	je	LBB86_45
	movq	-152(%rbp), %rsi
	testq	%rsi, %rsi
	je	LBB86_45
	movl	$1, %edx
	callq	___rust_dealloc
LBB86_45:
	testq	%rbx, %rbx
	je	LBB86_48
	testq	%r13, %r13
	je	LBB86_48
	movl	$1, %edx
	movq	%rbx, %rdi
	movq	%r13, %rsi
	callq	___rust_dealloc
LBB86_48:
Ltmp233:
	movq	%r15, %rdi
	movq	%r12, %rsi
	callq	__ZN112_$LT$alloc..collections..btree..map..IntoIter$LT$K$C$V$GT$$u20$as$u20$core..iter..traits..iterator..Iterator$GT$4next17hfbfba43da8b4717fE
Ltmp234:
	movq	-160(%rbp), %rdi
	testq	%rdi, %rdi
	jne	LBB86_42
LBB86_50:
	movq	-104(%rbp), %rdi
	testq	%rdi, %rdi
	je	LBB86_27
	movq	-112(%rbp), %rax
	movl	$544, %r15d
	.p2align	4, 0x90
LBB86_52:
	movq	(%rdi), %r12
	xorl	%ebx, %ebx
	testq	%r12, %r12
	setne	%bl
	addq	%rax, %rbx
	testq	%rax, %rax
	movl	$640, %esi
	cmoveq	%r15, %rsi
	movl	$8, %edx
	callq	___rust_dealloc
	movq	%rbx, %rax
	movq	%r12, %rdi
	testq	%r12, %r12
	jne	LBB86_52
LBB86_27:
	movq	96(%r14), %rax
	testq	%rax, %rax
	je	LBB86_30
	movb	$0, (%rax)
	movq	104(%r14), %rsi
	testq	%rsi, %rsi
	je	LBB86_30
	movq	96(%r14), %rdi
	movl	$1, %edx
	callq	___rust_dealloc
LBB86_30:
	leaq	112(%r14), %rdi
Ltmp236:
	callq	__ZN4core3ptr13drop_in_place17h48983fe2dd5ef051E
Ltmp237:
	cmpl	$3, 152(%r14)
	jne	LBB86_23
	leaq	156(%r14), %rdi
Ltmp239:
	callq	__ZN70_$LT$std..sys..unix..fd..FileDesc$u20$as$u20$core..ops..drop..Drop$GT$4drop17hf5fce2bf4d9f8deaE
Ltmp240:
LBB86_23:
	cmpl	$3, 160(%r14)
	jne	LBB86_21
	leaq	164(%r14), %rdi
Ltmp242:
	callq	__ZN70_$LT$std..sys..unix..fd..FileDesc$u20$as$u20$core..ops..drop..Drop$GT$4drop17hf5fce2bf4d9f8deaE
Ltmp243:
LBB86_21:
	cmpl	$3, 168(%r14)
	jne	LBB86_59
	addq	$172, %r14
	movq	%r14, %rdi
	addq	$120, %rsp
	popq	%rbx
	popq	%r12
	popq	%r13
	popq	%r14
	popq	%r15
	popq	%rbp
	jmp	__ZN70_$LT$std..sys..unix..fd..FileDesc$u20$as$u20$core..ops..drop..Drop$GT$4drop17hf5fce2bf4d9f8deaE
LBB86_59:
	addq	$120, %rsp
	popq	%rbx
	popq	%r12
	popq	%r13
	popq	%r14
	popq	%r15
	popq	%rbp
	retq
LBB86_33:
	leaq	__ZN44_$LT$$RF$T$u20$as$u20$core..fmt..Display$GT$3fmt17h8def799cc0c79004E(%rip), %rax
	vmovq	%rax, %xmm0
	leaq	l___unnamed_36(%rip), %rax
	vmovq	%rax, %xmm1
	vpunpcklqdq	%xmm0, %xmm1, %xmm0
	vmovdqa	%xmm0, -160(%rbp)
	leaq	l___unnamed_37(%rip), %rax
	movq	%rax, -112(%rbp)
	movq	$1, -104(%rbp)
	movq	$0, -96(%rbp)
	leaq	-160(%rbp), %rax
	movq	%rax, -80(%rbp)
	movq	$1, -72(%rbp)
Ltmp228:
	leaq	l___unnamed_38(%rip), %rsi
	leaq	-112(%rbp), %rdi
	callq	__ZN4core9panicking9panic_fmt17hab6ef1464e9720aaE
Ltmp229:
	ud2
LBB86_58:
Ltmp244:
	movq	%rax, %rbx
	jmp	LBB86_20
LBB86_18:
Ltmp241:
	movq	%rax, %rbx
	jmp	LBB86_19
LBB86_54:
Ltmp232:
	jmp	LBB86_55
LBB86_57:
Ltmp238:
	movq	%rax, %rbx
	jmp	LBB86_56
LBB86_53:
Ltmp235:
LBB86_55:
	movq	%rax, %rbx
	leaq	96(%r14), %rdi
	callq	__ZN4core3ptr13drop_in_place17hf717d5e08d4f7140E
	leaq	112(%r14), %rdi
	callq	__ZN4core3ptr13drop_in_place17h48983fe2dd5ef051E
LBB86_56:
	leaq	152(%r14), %rdi
	callq	__ZN4core3ptr13drop_in_place17h0453673e58db6c28E
LBB86_19:
	leaq	160(%r14), %rdi
	callq	__ZN4core3ptr13drop_in_place17h0453673e58db6c28E
LBB86_20:
	addq	$168, %r14
	movq	%r14, %rdi
	callq	__ZN4core3ptr13drop_in_place17h0453673e58db6c28E
	movq	%rbx, %rdi
	callq	__Unwind_Resume
	ud2
Lfunc_end18:
	.cfi_endproc
	.section	__TEXT,__gcc_except_tab
	.p2align	2
GCC_except_table86:
Lexception18:
	.byte	255
	.byte	255
	.byte	1
	.uleb128 Lcst_end18-Lcst_begin18
Lcst_begin18:
	.uleb128 Ltmp230-Lfunc_begin18
	.uleb128 Ltmp231-Ltmp230
	.uleb128 Ltmp232-Lfunc_begin18
	.byte	0
	.uleb128 Ltmp233-Lfunc_begin18
	.uleb128 Ltmp234-Ltmp233
	.uleb128 Ltmp235-Lfunc_begin18
	.byte	0
	.uleb128 Ltmp236-Lfunc_begin18
	.uleb128 Ltmp237-Ltmp236
	.uleb128 Ltmp238-Lfunc_begin18
	.byte	0
	.uleb128 Ltmp239-Lfunc_begin18
	.uleb128 Ltmp240-Ltmp239
	.uleb128 Ltmp241-Lfunc_begin18
	.byte	0
	.uleb128 Ltmp242-Lfunc_begin18
	.uleb128 Ltmp243-Ltmp242
	.uleb128 Ltmp244-Lfunc_begin18
	.byte	0
	.uleb128 Ltmp243-Lfunc_begin18
	.uleb128 Ltmp228-Ltmp243
	.byte	0
	.byte	0
	.uleb128 Ltmp228-Lfunc_begin18
	.uleb128 Ltmp229-Ltmp228
	.uleb128 Ltmp232-Lfunc_begin18
	.byte	0
	.uleb128 Ltmp229-Lfunc_begin18
	.uleb128 Lfunc_end18-Ltmp229
	.byte	0
	.byte	0
Lcst_end18:
	.p2align	2

	.section	__TEXT,__text,regular,pure_instructions
	.p2align	4, 0x90
__ZN4core3ptr13drop_in_place17hb75259e96d6b063eE:
	.cfi_startproc
	pushq	%rbp
	.cfi_def_cfa_offset 16
	.cfi_offset %rbp, -16
	movq	%rsp, %rbp
	.cfi_def_cfa_register %rbp
	pushq	%r15
	pushq	%r14
	pushq	%r12
	pushq	%rbx
	.cfi_offset %rbx, -48
	.cfi_offset %r12, -40
	.cfi_offset %r14, -32
	.cfi_offset %r15, -24
	movq	%rdi, %r14
	movq	(%rdi), %rbx
	movq	16(%rdi), %rax
	testq	%rax, %rax
	je	LBB87_7
	leaq	(%rax,%rax,2), %rax
	leaq	(%rbx,%rax,8), %r15
	movq	(%rbx), %rdi
	testq	%rdi, %rdi
	jne	LBB87_3
	.p2align	4, 0x90
LBB87_5:
	addq	$24, %rbx
	cmpq	%r15, %rbx
	je	LBB87_6
LBB87_2:
	movq	(%rbx), %rdi
	testq	%rdi, %rdi
	je	LBB87_5
LBB87_3:
	movq	8(%rbx), %rsi
	testq	%rsi, %rsi
	je	LBB87_5
	movl	$1, %edx
	callq	___rust_dealloc
	addq	$24, %rbx
	cmpq	%r15, %rbx
	jne	LBB87_2
LBB87_6:
	movq	(%r14), %rbx
LBB87_7:
	movq	8(%r14), %rax
	testq	%rax, %rax
	je	LBB87_11
	testq	%rbx, %rbx
	je	LBB87_11
	shlq	$3, %rax
	leaq	(%rax,%rax,2), %rsi
	testq	%rsi, %rsi
	je	LBB87_11
	movl	$8, %edx
	movq	%rbx, %rdi
	callq	___rust_dealloc
LBB87_11:
	movq	24(%r14), %rbx
	movq	40(%r14), %rax
	testq	%rax, %rax
	je	LBB87_21
	leaq	(%rax,%rax,2), %r15
	shlq	$4, %r15
	addq	%rbx, %r15
	addq	$32, %rbx
	leaq	-32(%rbx), %r12
	movq	-32(%rbx), %rdi
	testq	%rdi, %rdi
	jne	LBB87_14
	jmp	LBB87_16
	.p2align	4, 0x90
LBB87_19:
	addq	$48, %rbx
	addq	$48, %r12
	cmpq	%r15, %r12
	je	LBB87_20
	leaq	-32(%rbx), %r12
	movq	-32(%rbx), %rdi
	testq	%rdi, %rdi
	je	LBB87_16
LBB87_14:
	movq	-24(%rbx), %rsi
	testq	%rsi, %rsi
	je	LBB87_16
	movl	$1, %edx
	callq	___rust_dealloc
LBB87_16:
	movq	24(%r12), %rdi
	testq	%rdi, %rdi
	je	LBB87_19
	movq	(%rbx), %rsi
	testq	%rsi, %rsi
	je	LBB87_19
	movl	$1, %edx
	callq	___rust_dealloc
	jmp	LBB87_19
LBB87_20:
	movq	24(%r14), %rbx
LBB87_21:
	movq	32(%r14), %rax
	testq	%rax, %rax
	je	LBB87_25
	testq	%rbx, %rbx
	je	LBB87_25
	shlq	$4, %rax
	leaq	(%rax,%rax,2), %rsi
	testq	%rsi, %rsi
	je	LBB87_25
	movl	$8, %edx
	movq	%rbx, %rdi
	callq	___rust_dealloc
LBB87_25:
	movq	48(%r14), %rbx
	movq	64(%r14), %rax
	testq	%rax, %rax
	je	LBB87_32
	leaq	(%rax,%rax,2), %rax
	leaq	(%rbx,%rax,8), %r15
	movq	(%rbx), %rdi
	testq	%rdi, %rdi
	jne	LBB87_28
	.p2align	4, 0x90
LBB87_30:
	addq	$24, %rbx
	cmpq	%r15, %rbx
	je	LBB87_31
LBB87_27:
	movq	(%rbx), %rdi
	testq	%rdi, %rdi
	je	LBB87_30
LBB87_28:
	movq	8(%rbx), %rsi
	testq	%rsi, %rsi
	je	LBB87_30
	movl	$1, %edx
	callq	___rust_dealloc
	addq	$24, %rbx
	cmpq	%r15, %rbx
	jne	LBB87_27
LBB87_31:
	movq	48(%r14), %rbx
LBB87_32:
	movq	56(%r14), %rax
	testq	%rax, %rax
	je	LBB87_36
	testq	%rbx, %rbx
	je	LBB87_36
	shlq	$3, %rax
	leaq	(%rax,%rax,2), %rsi
	testq	%rsi, %rsi
	je	LBB87_36
	movl	$8, %edx
	movq	%rbx, %rdi
	callq	___rust_dealloc
LBB87_36:
	movq	72(%r14), %rbx
	movq	88(%r14), %rax
	testq	%rax, %rax
	je	LBB87_43
	leaq	(%rax,%rax,2), %rax
	leaq	(%rbx,%rax,8), %r15
	movq	(%rbx), %rdi
	testq	%rdi, %rdi
	jne	LBB87_39
	.p2align	4, 0x90
LBB87_41:
	addq	$24, %rbx
	cmpq	%r15, %rbx
	je	LBB87_42
LBB87_38:
	movq	(%rbx), %rdi
	testq	%rdi, %rdi
	je	LBB87_41
LBB87_39:
	movq	8(%rbx), %rsi
	testq	%rsi, %rsi
	je	LBB87_41
	movl	$1, %edx
	callq	___rust_dealloc
	addq	$24, %rbx
	cmpq	%r15, %rbx
	jne	LBB87_38
LBB87_42:
	movq	72(%r14), %rbx
LBB87_43:
	movq	80(%r14), %rax
	testq	%rax, %rax
	je	LBB87_47
	testq	%rbx, %rbx
	je	LBB87_47
	shlq	$3, %rax
	leaq	(%rax,%rax,2), %rsi
	testq	%rsi, %rsi
	je	LBB87_47
	movl	$8, %edx
	movq	%rbx, %rdi
	callq	___rust_dealloc
LBB87_47:
	movq	96(%r14), %rbx
	movq	112(%r14), %rax
	testq	%rax, %rax
	je	LBB87_54
	leaq	(%rax,%rax,2), %rax
	leaq	(%rbx,%rax,8), %r15
	movq	(%rbx), %rdi
	testq	%rdi, %rdi
	jne	LBB87_50
	.p2align	4, 0x90
LBB87_52:
	addq	$24, %rbx
	cmpq	%r15, %rbx
	je	LBB87_53
LBB87_49:
	movq	(%rbx), %rdi
	testq	%rdi, %rdi
	je	LBB87_52
LBB87_50:
	movq	8(%rbx), %rsi
	testq	%rsi, %rsi
	je	LBB87_52
	movl	$1, %edx
	callq	___rust_dealloc
	addq	$24, %rbx
	cmpq	%r15, %rbx
	jne	LBB87_49
LBB87_53:
	movq	96(%r14), %rbx
LBB87_54:
	movq	104(%r14), %rax
	testq	%rax, %rax
	je	LBB87_58
	testq	%rbx, %rbx
	je	LBB87_58
	shlq	$3, %rax
	leaq	(%rax,%rax,2), %rsi
	testq	%rsi, %rsi
	je	LBB87_58
	movl	$8, %edx
	movq	%rbx, %rdi
	callq	___rust_dealloc
LBB87_58:
	movq	120(%r14), %rax
	lock		decq	(%rax)
	jne	LBB87_60
	leaq	120(%r14), %rdi
	##MEMBARRIER
	callq	__ZN5alloc4sync12Arc$LT$T$GT$9drop_slow17h819aa27857de26c3E
LBB87_60:
	movq	128(%r14), %rbx
	movq	144(%r14), %rax
	testq	%rax, %rax
	je	LBB87_67
	leaq	(%rax,%rax,2), %rax
	leaq	(%rbx,%rax,8), %r15
	movq	(%rbx), %rdi
	testq	%rdi, %rdi
	jne	LBB87_63
	.p2align	4, 0x90
LBB87_65:
	addq	$24, %rbx
	cmpq	%r15, %rbx
	je	LBB87_66
LBB87_62:
	movq	(%rbx), %rdi
	testq	%rdi, %rdi
	je	LBB87_65
LBB87_63:
	movq	8(%rbx), %rsi
	testq	%rsi, %rsi
	je	LBB87_65
	movl	$1, %edx
	callq	___rust_dealloc
	addq	$24, %rbx
	cmpq	%r15, %rbx
	jne	LBB87_62
LBB87_66:
	movq	128(%r14), %rbx
LBB87_67:
	movq	136(%r14), %rax
	testq	%rax, %rax
	je	LBB87_71
	testq	%rbx, %rbx
	je	LBB87_71
	shlq	$3, %rax
	leaq	(%rax,%rax,2), %rsi
	testq	%rsi, %rsi
	je	LBB87_71
	movl	$8, %edx
	movq	%rbx, %rdi
	callq	___rust_dealloc
LBB87_71:
	movq	152(%r14), %rbx
	movq	168(%r14), %rax
	testq	%rax, %rax
	je	LBB87_78
	leaq	(%rax,%rax,2), %rax
	leaq	(%rbx,%rax,8), %r15
	movq	(%rbx), %rdi
	testq	%rdi, %rdi
	jne	LBB87_74
	.p2align	4, 0x90
LBB87_76:
	addq	$24, %rbx
	cmpq	%r15, %rbx
	je	LBB87_77
LBB87_73:
	movq	(%rbx), %rdi
	testq	%rdi, %rdi
	je	LBB87_76
LBB87_74:
	movq	8(%rbx), %rsi
	testq	%rsi, %rsi
	je	LBB87_76
	movl	$1, %edx
	callq	___rust_dealloc
	addq	$24, %rbx
	cmpq	%r15, %rbx
	jne	LBB87_73
LBB87_77:
	movq	152(%r14), %rbx
LBB87_78:
	movq	160(%r14), %rax
	testq	%rax, %rax
	je	LBB87_82
	testq	%rbx, %rbx
	je	LBB87_82
	shlq	$3, %rax
	leaq	(%rax,%rax,2), %rsi
	testq	%rsi, %rsi
	je	LBB87_82
	movl	$8, %edx
	movq	%rbx, %rdi
	callq	___rust_dealloc
LBB87_82:
	cmpq	$0, 176(%r14)
	je	LBB87_86
	movq	184(%r14), %rdi
	testq	%rdi, %rdi
	je	LBB87_86
	movq	192(%r14), %rsi
	testq	%rsi, %rsi
	je	LBB87_86
	movl	$1, %edx
	callq	___rust_dealloc
LBB87_86:
	movq	208(%r14), %rdi
	testq	%rdi, %rdi
	je	LBB87_89
	movq	216(%r14), %rsi
	testq	%rsi, %rsi
	je	LBB87_89
	movl	$1, %edx
	callq	___rust_dealloc
LBB87_89:
	movq	232(%r14), %rdi
	testq	%rdi, %rdi
	je	LBB87_92
	movq	240(%r14), %rsi
	testq	%rsi, %rsi
	je	LBB87_92
	movl	$1, %edx
	callq	___rust_dealloc
LBB87_92:
	movq	256(%r14), %rdi
	testq	%rdi, %rdi
	je	LBB87_95
	movq	264(%r14), %rsi
	testq	%rsi, %rsi
	je	LBB87_95
	movl	$1, %edx
	callq	___rust_dealloc
LBB87_95:
	movq	280(%r14), %rdi
	testq	%rdi, %rdi
	je	LBB87_98
	movq	288(%r14), %rsi
	testq	%rsi, %rsi
	je	LBB87_98
	movl	$1, %edx
	callq	___rust_dealloc
LBB87_98:
	movq	304(%r14), %rdi
	testq	%rdi, %rdi
	je	LBB87_101
	movq	312(%r14), %rsi
	testq	%rsi, %rsi
	je	LBB87_101
	movl	$1, %edx
	callq	___rust_dealloc
LBB87_101:
	movq	328(%r14), %rbx
	movq	344(%r14), %rax
	testq	%rax, %rax
	je	LBB87_111
	leaq	(%rax,%rax,2), %r15
	shlq	$4, %r15
	addq	%rbx, %r15
	movq	(%rbx), %rdi
	testq	%rdi, %rdi
	jne	LBB87_104
	jmp	LBB87_106
	.p2align	4, 0x90
LBB87_109:
	addq	$48, %rbx
	cmpq	%r15, %rbx
	je	LBB87_110
	movq	(%rbx), %rdi
	testq	%rdi, %rdi
	je	LBB87_106
LBB87_104:
	movq	8(%rbx), %rsi
	testq	%rsi, %rsi
	je	LBB87_106
	movl	$1, %edx
	callq	___rust_dealloc
LBB87_106:
	movq	24(%rbx), %rdi
	testq	%rdi, %rdi
	je	LBB87_109
	movq	32(%rbx), %rsi
	testq	%rsi, %rsi
	je	LBB87_109
	movl	$1, %edx
	callq	___rust_dealloc
	jmp	LBB87_109
LBB87_110:
	movq	328(%r14), %rbx
LBB87_111:
	movq	336(%r14), %rax
	testq	%rax, %rax
	je	LBB87_115
	testq	%rbx, %rbx
	je	LBB87_115
	shlq	$4, %rax
	leaq	(%rax,%rax,2), %rsi
	testq	%rsi, %rsi
	je	LBB87_115
	movl	$8, %edx
	movq	%rbx, %rdi
	callq	___rust_dealloc
LBB87_115:
	movq	352(%r14), %rdi
	testq	%rdi, %rdi
	je	LBB87_118
	movq	360(%r14), %rsi
	testq	%rsi, %rsi
	je	LBB87_118
	movl	$1, %edx
	callq	___rust_dealloc
LBB87_118:
	movq	376(%r14), %rdi
	testq	%rdi, %rdi
	je	LBB87_119
	movq	384(%r14), %rsi
	testq	%rsi, %rsi
	je	LBB87_119
	movl	$1, %edx
	callq	___rust_dealloc
LBB87_119:
	movq	400(%r14), %rax
	lock		decq	(%rax)
	jne	LBB87_120
	addq	$400, %r14
	##MEMBARRIER
	movq	%r14, %rdi
	popq	%rbx
	popq	%r12
	popq	%r14
	popq	%r15
	popq	%rbp
	jmp	__ZN5alloc4sync12Arc$LT$T$GT$9drop_slow17h05a6fcfecf782810E
LBB87_120:
	popq	%rbx
	popq	%r12
	popq	%r14
	popq	%r15
	popq	%rbp
	retq
	.cfi_endproc

	.p2align	4, 0x90
__ZN4core3ptr13drop_in_place17hc18e08836af1a9f9E:
Lfunc_begin19:
	.cfi_startproc
	.cfi_personality 155, _rust_eh_personality
	.cfi_lsda 16, Lexception19
	pushq	%rbp
	.cfi_def_cfa_offset 16
	.cfi_offset %rbp, -16
	movq	%rsp, %rbp
	.cfi_def_cfa_register %rbp
	pushq	%r14
	pushq	%rbx
	.cfi_offset %rbx, -32
	.cfi_offset %r14, -24
	movq	%rdi, %rbx
	cmpq	$0, (%rdi)
	je	LBB88_2
	leaq	8(%rbx), %rdi
Ltmp245:
	callq	__ZN72_$LT$std..sys..unix..thread..Thread$u20$as$u20$core..ops..drop..Drop$GT$4drop17haa00a8633efec967E
Ltmp246:
LBB88_2:
	movq	16(%rbx), %rax
	lock		decq	(%rax)
	jne	LBB88_3
	leaq	16(%rbx), %rdi
	##MEMBARRIER
Ltmp248:
	callq	__ZN5alloc4sync12Arc$LT$T$GT$9drop_slow17h8389483e09127b79E
Ltmp249:
LBB88_3:
	movq	24(%rbx), %rax
	lock		decq	(%rax)
	jne	LBB88_9
	addq	$24, %rbx
	##MEMBARRIER
	movq	%rbx, %rdi
	popq	%rbx
	popq	%r14
	popq	%rbp
	jmp	__ZN5alloc4sync12Arc$LT$T$GT$9drop_slow17hc18cceb15824c1ffE
LBB88_9:
	popq	%rbx
	popq	%r14
	popq	%rbp
	retq
LBB88_8:
Ltmp250:
	movq	%rax, %r14
	jmp	LBB88_7
LBB88_6:
Ltmp247:
	movq	%rax, %r14
	leaq	16(%rbx), %rdi
	callq	__ZN4core3ptr13drop_in_place17h6cda02102dff6505E
LBB88_7:
	addq	$24, %rbx
	movq	%rbx, %rdi
	callq	__ZN4core3ptr13drop_in_place17h10cf9158194358b2E
	movq	%r14, %rdi
	callq	__Unwind_Resume
	ud2
Lfunc_end19:
	.cfi_endproc
	.section	__TEXT,__gcc_except_tab
	.p2align	2
GCC_except_table88:
Lexception19:
	.byte	255
	.byte	255
	.byte	1
	.uleb128 Lcst_end19-Lcst_begin19
Lcst_begin19:
	.uleb128 Ltmp245-Lfunc_begin19
	.uleb128 Ltmp246-Ltmp245
	.uleb128 Ltmp247-Lfunc_begin19
	.byte	0
	.uleb128 Ltmp248-Lfunc_begin19
	.uleb128 Ltmp249-Ltmp248
	.uleb128 Ltmp250-Lfunc_begin19
	.byte	0
	.uleb128 Ltmp249-Lfunc_begin19
	.uleb128 Lfunc_end19-Ltmp249
	.byte	0
	.byte	0
Lcst_end19:
	.p2align	2

	.section	__TEXT,__text,regular,pure_instructions
	.p2align	4, 0x90
__ZN4core3ptr13drop_in_place17hc4587263597ea176E:
Lfunc_begin20:
	.cfi_startproc
	.cfi_personality 155, _rust_eh_personality
	.cfi_lsda 16, Lexception20
	pushq	%rbp
	.cfi_def_cfa_offset 16
	.cfi_offset %rbp, -16
	movq	%rsp, %rbp
	.cfi_def_cfa_register %rbp
	pushq	%r15
	pushq	%r14
	pushq	%rbx
	pushq	%rax
	.cfi_offset %rbx, -40
	.cfi_offset %r14, -32
	.cfi_offset %r15, -24
	movq	%rdi, %rbx
	movq	(%rdi), %rax
	lock		decq	(%rax)
	jne	LBB89_2
	##MEMBARRIER
Ltmp251:
	movq	%rbx, %rdi
	callq	__ZN5alloc4sync12Arc$LT$T$GT$9drop_slow17h8389483e09127b79E
Ltmp252:
LBB89_2:
	leaq	8(%rbx), %r15
	leaq	40(%rbx), %rdi
Ltmp254:
	callq	__ZN70_$LT$std..sys..unix..fd..FileDesc$u20$as$u20$core..ops..drop..Drop$GT$4drop17hf5fce2bf4d9f8deaE
Ltmp255:
	movq	16(%rbx), %rsi
	testq	%rsi, %rsi
	je	LBB89_4
	movq	(%r15), %rdi
	movl	$1, %edx
	callq	___rust_dealloc
LBB89_4:
	movq	48(%rbx), %rax
	lock		decq	(%rax)
	jne	LBB89_5
	addq	$48, %rbx
	##MEMBARRIER
	movq	%rbx, %rdi
	addq	$8, %rsp
	popq	%rbx
	popq	%r14
	popq	%r15
	popq	%rbp
	jmp	__ZN5alloc4sync12Arc$LT$T$GT$9drop_slow17hc18cceb15824c1ffE
LBB89_5:
	addq	$8, %rsp
	popq	%rbx
	popq	%r14
	popq	%r15
	popq	%rbp
	retq
LBB89_8:
Ltmp253:
	movq	%rax, %r14
	leaq	8(%rbx), %rdi
	callq	__ZN4core3ptr13drop_in_place17h174a7e1527b36898E
	jmp	LBB89_9
LBB89_7:
Ltmp256:
	movq	%rax, %r14
	movq	%r15, %rdi
	callq	__ZN4core3ptr13drop_in_place17h4fed1e42d72638e3E
LBB89_9:
	addq	$48, %rbx
	movq	%rbx, %rdi
	callq	__ZN4core3ptr13drop_in_place17h10cf9158194358b2E
	movq	%r14, %rdi
	callq	__Unwind_Resume
	ud2
Lfunc_end20:
	.cfi_endproc
	.section	__TEXT,__gcc_except_tab
	.p2align	2
GCC_except_table89:
Lexception20:
	.byte	255
	.byte	255
	.byte	1
	.uleb128 Lcst_end20-Lcst_begin20
Lcst_begin20:
	.uleb128 Ltmp251-Lfunc_begin20
	.uleb128 Ltmp252-Ltmp251
	.uleb128 Ltmp253-Lfunc_begin20
	.byte	0
	.uleb128 Ltmp254-Lfunc_begin20
	.uleb128 Ltmp255-Ltmp254
	.uleb128 Ltmp256-Lfunc_begin20
	.byte	0
	.uleb128 Ltmp255-Lfunc_begin20
	.uleb128 Lfunc_end20-Ltmp255
	.byte	0
	.byte	0
Lcst_end20:
	.p2align	2

	.section	__TEXT,__text,regular,pure_instructions
	.p2align	4, 0x90
__ZN4core3ptr13drop_in_place17hcb9ed2f31dae4ee5E:
	.cfi_startproc
	pushq	%rbp
	.cfi_def_cfa_offset 16
	.cfi_offset %rbp, -16
	movq	%rsp, %rbp
	.cfi_def_cfa_register %rbp
	popq	%rbp
	jmp	__ZN56_$LT$std..io..Guard$u20$as$u20$core..ops..drop..Drop$GT$4drop17h8d76410c697e72caE
	.cfi_endproc

	.p2align	4, 0x90
__ZN4core3ptr13drop_in_place17hd664b47dd65489c8E:
	.cfi_startproc
	pushq	%rbp
	.cfi_def_cfa_offset 16
	.cfi_offset %rbp, -16
	movq	%rsp, %rbp
	.cfi_def_cfa_register %rbp
	cmpl	$0, (%rdi)
	je	LBB91_1
	addq	$8, %rdi
	popq	%rbp
	jmp	__ZN4core3ptr13drop_in_place17h7f959772c584907bE
LBB91_1:
	addq	$4, %rdi
	popq	%rbp
	jmp	__ZN4core3ptr13drop_in_place17h27b869de8334f9cdE
	.cfi_endproc

	.p2align	4, 0x90
__ZN4core3ptr13drop_in_place17hdfa27de00c3e95f8E:
	.cfi_startproc
	pushq	%rbp
	.cfi_def_cfa_offset 16
	.cfi_offset %rbp, -16
	movq	%rsp, %rbp
	.cfi_def_cfa_register %rbp
	pushq	%r15
	pushq	%r14
	pushq	%r13
	pushq	%r12
	pushq	%rbx
	pushq	%rax
	.cfi_offset %rbx, -56
	.cfi_offset %r12, -48
	.cfi_offset %r13, -40
	.cfi_offset %r14, -32
	.cfi_offset %r15, -24
	movq	(%rdi), %rax
	testq	%rax, %rax
	je	LBB92_14
	movq	%rdi, %r14
	movq	8(%rdi), %rbx
	movq	16(%rdi), %r15
	leaq	(%rax,%rbx), %r12
	addq	$1, %r12
	vmovdqa	(%rbx), %xmm0
	vpmovmskb	%xmm0, %r13d
	notl	%r13d
	addq	$16, %rbx
	.p2align	4, 0x90
LBB92_2:
	testw	%r13w, %r13w
	jne	LBB92_6
	.p2align	4, 0x90
LBB92_3:
	cmpq	%r12, %rbx
	jae	LBB92_9
	vmovdqa	(%rbx), %xmm0
	vpmovmskb	%xmm0, %r13d
	addq	$512, %r15
	addq	$16, %rbx
	cmpw	$-1, %r13w
	je	LBB92_3
	notl	%r13d
LBB92_6:
	tzcntw	%r13w, %ax
	movzwl	%ax, %eax
	blsrl	%r13d, %r13d
	shlq	$5, %rax
	movq	(%r15,%rax), %rdi
	testq	%rdi, %rdi
	je	LBB92_2
	movq	8(%r15,%rax), %rsi
	testq	%rsi, %rsi
	je	LBB92_2
	movl	$1, %edx
	callq	___rust_dealloc
	testw	%r13w, %r13w
	jne	LBB92_6
	jmp	LBB92_3
LBB92_9:
	movq	(%r14), %rcx
	leaq	1(%rcx), %rax
	movl	$32, %edx
	xorl	%esi, %esi
	mulq	%rdx
	setno	%dl
	jo	LBB92_10
	movb	%dl, %sil
	shlq	$3, %rsi
	leaq	(%rcx,%rsi), %rdx
	addq	$16, %rdx
	addq	$17, %rcx
	negq	%rsi
	andq	%rdx, %rsi
	subq	%rcx, %rsi
	addq	%rcx, %rsi
	jae	LBB92_12
LBB92_10:
	xorl	%edx, %edx
	jmp	LBB92_13
LBB92_14:
	addq	$8, %rsp
	popq	%rbx
	popq	%r12
	popq	%r13
	popq	%r14
	popq	%r15
	popq	%rbp
	retq
LBB92_12:
	leaq	(%rsi,%rax), %rcx
	xorl	%edi, %edi
	cmpq	$-15, %rcx
	setb	%dil
	shlq	$4, %rdi
	xorl	%edx, %edx
	addq	%rax, %rsi
	cmovaeq	%rdi, %rdx
LBB92_13:
	movq	8(%r14), %rdi
	addq	$8, %rsp
	popq	%rbx
	popq	%r12
	popq	%r13
	popq	%r14
	popq	%r15
	popq	%rbp
	jmp	___rust_dealloc
	.cfi_endproc

	.p2align	4, 0x90
__ZN4core3ptr13drop_in_place17hf1f716b9a92c51f9E:
Lfunc_begin21:
	.cfi_startproc
	.cfi_personality 155, _rust_eh_personality
	.cfi_lsda 16, Lexception21
	pushq	%rbp
	.cfi_def_cfa_offset 16
	.cfi_offset %rbp, -16
	movq	%rsp, %rbp
	.cfi_def_cfa_register %rbp
	pushq	%r14
	pushq	%rbx
	.cfi_offset %rbx, -32
	.cfi_offset %r14, -24
	movq	%rdi, %rbx
	movq	(%rdi), %rdi
	movq	8(%rbx), %rax
Ltmp257:
	callq	*(%rax)
Ltmp258:
	movq	8(%rbx), %rax
	movq	8(%rax), %rsi
	testq	%rsi, %rsi
	je	LBB93_2
	movq	(%rbx), %rdi
	movq	16(%rax), %rdx
	popq	%rbx
	popq	%r14
	popq	%rbp
	jmp	___rust_dealloc
LBB93_2:
	popq	%rbx
	popq	%r14
	popq	%rbp
	retq
LBB93_3:
Ltmp259:
	movq	%rax, %r14
	movq	(%rbx), %rdi
	movq	8(%rbx), %rsi
	callq	__ZN5alloc5alloc8box_free17h49e85cf81d60bb52E
	movq	%r14, %rdi
	callq	__Unwind_Resume
	ud2
Lfunc_end21:
	.cfi_endproc
	.section	__TEXT,__gcc_except_tab
	.p2align	2
GCC_except_table93:
Lexception21:
	.byte	255
	.byte	255
	.byte	1
	.uleb128 Lcst_end21-Lcst_begin21
Lcst_begin21:
	.uleb128 Ltmp257-Lfunc_begin21
	.uleb128 Ltmp258-Ltmp257
	.uleb128 Ltmp259-Lfunc_begin21
	.byte	0
	.uleb128 Ltmp258-Lfunc_begin21
	.uleb128 Lfunc_end21-Ltmp258
	.byte	0
	.byte	0
Lcst_end21:
	.p2align	2

	.section	__TEXT,__text,regular,pure_instructions
	.p2align	4, 0x90
__ZN4core3ptr13drop_in_place17hf4394fc7ca9f2e8eE:
	.cfi_startproc
	pushq	%rbp
	.cfi_def_cfa_offset 16
	.cfi_offset %rbp, -16
	movq	%rsp, %rbp
	.cfi_def_cfa_register %rbp
	movq	(%rdi), %rdi
	movl	$48, %esi
	movl	$8, %edx
	popq	%rbp
	jmp	___rust_dealloc
	.cfi_endproc

	.p2align	4, 0x90
__ZN4core3ptr13drop_in_place17hf717d5e08d4f7140E:
	.cfi_startproc
	pushq	%rbp
	.cfi_def_cfa_offset 16
	.cfi_offset %rbp, -16
	movq	%rsp, %rbp
	.cfi_def_cfa_register %rbp
	movq	(%rdi), %rax
	testq	%rax, %rax
	je	LBB95_2
	movb	$0, (%rax)
	movq	8(%rdi), %rsi
	testq	%rsi, %rsi
	je	LBB95_2
	movq	(%rdi), %rdi
	movl	$1, %edx
	popq	%rbp
	jmp	___rust_dealloc
LBB95_2:
	popq	%rbp
	retq
	.cfi_endproc

	.p2align	4, 0x90
__ZN4core3ptr13drop_in_place17hf971a83fa75bd0feE:
Lfunc_begin22:
	.cfi_startproc
	.cfi_personality 155, _rust_eh_personality
	.cfi_lsda 16, Lexception22
	pushq	%rbp
	.cfi_def_cfa_offset 16
	.cfi_offset %rbp, -16
	movq	%rsp, %rbp
	.cfi_def_cfa_register %rbp
	pushq	%r15
	pushq	%r14
	pushq	%rbx
	pushq	%rax
	.cfi_offset %rbx, -40
	.cfi_offset %r14, -32
	.cfi_offset %r15, -24
	movq	%rdi, %rbx
	movb	8(%rdi), %al
	cmpb	$3, %al
	ja	LBB96_2
	cmpb	$2, %al
	je	LBB96_2
	addq	$8, %rsp
	popq	%rbx
	popq	%r14
	popq	%r15
	popq	%rbp
	retq
LBB96_2:
	movq	16(%rbx), %r15
	movq	(%r15), %rdi
	movq	8(%r15), %rax
Ltmp260:
	callq	*(%rax)
Ltmp261:
	movq	8(%r15), %rax
	movq	8(%rax), %rsi
	testq	%rsi, %rsi
	je	LBB96_5
	movq	(%r15), %rdi
	movq	16(%rax), %rdx
	callq	___rust_dealloc
LBB96_5:
	movq	16(%rbx), %rdi
	movl	$24, %esi
	movl	$8, %edx
	addq	$8, %rsp
	popq	%rbx
	popq	%r14
	popq	%r15
	popq	%rbp
	jmp	___rust_dealloc
LBB96_7:
Ltmp262:
	movq	%rax, %r14
	movq	(%r15), %rdi
	movq	8(%r15), %rsi
	callq	__ZN5alloc5alloc8box_free17h49e85cf81d60bb52E
	movq	16(%rbx), %rdi
	callq	__ZN5alloc5alloc8box_free17h2cbd3df002e609cdE
	movq	%r14, %rdi
	callq	__Unwind_Resume
	ud2
Lfunc_end22:
	.cfi_endproc
	.section	__TEXT,__gcc_except_tab
	.p2align	2
GCC_except_table96:
Lexception22:
	.byte	255
	.byte	255
	.byte	1
	.uleb128 Lcst_end22-Lcst_begin22
Lcst_begin22:
	.uleb128 Ltmp260-Lfunc_begin22
	.uleb128 Ltmp261-Ltmp260
	.uleb128 Ltmp262-Lfunc_begin22
	.byte	0
	.uleb128 Ltmp261-Lfunc_begin22
	.uleb128 Lfunc_end22-Ltmp261
	.byte	0
	.byte	0
Lcst_end22:
	.p2align	2

	.section	__TEXT,__text,regular,pure_instructions
	.p2align	4, 0x90
__ZN4core3str6traits101_$LT$impl$u20$core..slice..SliceIndex$LT$str$GT$$u20$for$u20$core..ops..range..Range$LT$usize$GT$$GT$5index28_$u7b$$u7b$closure$u7d$$u7d$17h0b487e5cc7f82e7fE:
	.cfi_startproc
	pushq	%rbp
	.cfi_def_cfa_offset 16
	.cfi_offset %rbp, -16
	movq	%rsp, %rbp
	.cfi_def_cfa_register %rbp
	movq	(%rdi), %rcx
	movq	8(%rdi), %rdx
	movq	(%rcx), %rax
	movq	8(%rcx), %rsi
	movq	(%rdx), %rdx
	movq	16(%rdi), %rcx
	movq	(%rcx), %rcx
	leaq	l___unnamed_39(%rip), %r8
	movq	%rax, %rdi
	callq	__ZN4core3str16slice_error_fail17h6b29707aec812690E
	.cfi_endproc

	.p2align	4, 0x90
__ZN4core3str6traits105_$LT$impl$u20$core..slice..SliceIndex$LT$str$GT$$u20$for$u20$core..ops..range..RangeFrom$LT$usize$GT$$GT$5index28_$u7b$$u7b$closure$u7d$$u7d$17hcaca297d412a2959E:
	.cfi_startproc
	pushq	%rbp
	.cfi_def_cfa_offset 16
	.cfi_offset %rbp, -16
	movq	%rsp, %rbp
	.cfi_def_cfa_register %rbp
	movq	(%rdi), %rcx
	movq	8(%rdi), %rdx
	movq	(%rcx), %rax
	movq	8(%rcx), %rsi
	movq	(%rdx), %rdx
	movq	16(%rdi), %rcx
	movq	(%rcx), %rcx
	leaq	l___unnamed_40(%rip), %r8
	movq	%rax, %rdi
	callq	__ZN4core3str16slice_error_fail17h6b29707aec812690E
	.cfi_endproc

	.p2align	4, 0x90
__ZN4core3str7pattern14TwoWaySearcher4next17haabd571c10ca7a57E:
	.cfi_startproc
	pushq	%rbp
	.cfi_def_cfa_offset 16
	.cfi_offset %rbp, -16
	movq	%rsp, %rbp
	.cfi_def_cfa_register %rbp
	pushq	%r15
	pushq	%r14
	pushq	%r13
	pushq	%r12
	pushq	%rbx
	subq	$24, %rsp
	.cfi_offset %rbx, -56
	.cfi_offset %r12, -48
	.cfi_offset %r13, -40
	.cfi_offset %r14, -32
	.cfi_offset %r15, -24
	movq	32(%rsi), %r11
	leaq	(%r11,%r9), %rax
	addq	$-1, %rax
	cmpq	%rcx, %rax
	jae	LBB99_33
	movq	24(%rsi), %r15
	movq	(%rsi), %r14
	movq	16(%rsi), %rbx
	cmpb	$0, 16(%rbp)
	movq	%rbx, -56(%rbp)
	je	LBB99_17
	leaq	(%r8,%r14), %rbx
	movq	%rbx, -48(%rbp)
	leaq	(%rdx,%r14), %r13
	movzbl	(%rdx,%rax), %eax
	btq	%rax, %r15
	jb	LBB99_7
	.p2align	4, 0x90
LBB99_3:
	addq	%r9, %r11
LBB99_4:
	movq	%r11, %rbx
LBB99_5:
	movq	%rbx, 32(%rsi)
	leaq	(%rbx,%r9), %rax
	addq	$-1, %rax
	movq	%rbx, %r11
	cmpq	%rcx, %rax
	jae	LBB99_33
	movzbl	(%rdx,%rax), %eax
	btq	%rax, %r15
	jae	LBB99_3
LBB99_7:
	xorl	%r10d, %r10d
	movq	-48(%rbp), %r12
	movq	%r11, %rbx
	.p2align	4, 0x90
LBB99_8:
	leaq	(%r14,%r10), %rax
	cmpq	%r9, %rax
	jae	LBB99_11
	leaq	(%r14,%rbx), %rax
	cmpq	%rcx, %rax
	jae	LBB99_38
	movzbl	(%r12), %eax
	incq	%r12
	incq	%r10
	cmpb	(%r13,%rbx), %al
	leaq	1(%rbx), %rbx
	je	LBB99_8
	jmp	LBB99_5
	.p2align	4, 0x90
LBB99_11:
	movq	%r14, %rax
	.p2align	4, 0x90
LBB99_12:
	testq	%rax, %rax
	je	LBB99_34
	decq	%rax
	cmpq	%r9, %rax
	jae	LBB99_39
	leaq	(%rax,%r11), %r10
	cmpq	%rcx, %r10
	jae	LBB99_40
	movzbl	(%r8,%rax), %ebx
	cmpb	(%rdx,%r10), %bl
	je	LBB99_12
	addq	-56(%rbp), %r11
	jmp	LBB99_4
LBB99_17:
	movq	%r9, %r10
	subq	%rbx, %r10
	movq	%r10, -48(%rbp)
	movq	%r14, %r13
	negq	%r13
	movzbl	(%rdx,%rax), %eax
	btq	%rax, %r15
	jb	LBB99_22
	.p2align	4, 0x90
LBB99_18:
	addq	%r9, %r11
LBB99_19:
	xorl	%eax, %eax
LBB99_20:
	movq	%r11, 32(%rsi)
	movq	%rax, 48(%rsi)
	leaq	(%r11,%r9), %rax
	addq	$-1, %rax
	cmpq	%rcx, %rax
	jae	LBB99_33
	movzbl	(%rdx,%rax), %eax
	btq	%rax, %r15
	jae	LBB99_18
LBB99_22:
	movq	48(%rsi), %r12
	cmpq	%r12, %r14
	movq	%r12, %rbx
	cmovaq	%r14, %rbx
	leaq	(%rdx,%r11), %r10
	.p2align	4, 0x90
LBB99_23:
	cmpq	%r9, %rbx
	jae	LBB99_27
	leaq	(%r11,%rbx), %rax
	cmpq	%rcx, %rax
	jae	LBB99_38
	movzbl	(%r8,%rbx), %eax
	cmpb	(%r10,%rbx), %al
	leaq	1(%rbx), %rbx
	je	LBB99_23
	addq	%r13, %r11
	addq	%rbx, %r11
	jmp	LBB99_19
	.p2align	4, 0x90
LBB99_27:
	movq	%r14, %rax
	.p2align	4, 0x90
LBB99_28:
	cmpq	%rax, %r12
	jae	LBB99_34
	decq	%rax
	cmpq	%r9, %rax
	jae	LBB99_39
	leaq	(%rax,%r11), %r10
	cmpq	%rcx, %r10
	jae	LBB99_40
	movzbl	(%r8,%rax), %ebx
	cmpb	(%rdx,%r10), %bl
	je	LBB99_28
	addq	-56(%rbp), %r11
	movq	-48(%rbp), %rax
	jmp	LBB99_20
LBB99_33:
	movq	%rcx, 32(%rsi)
	xorl	%eax, %eax
	jmp	LBB99_37
LBB99_34:
	addq	%r11, %r9
	movq	%r9, 32(%rsi)
	cmpb	$0, 16(%rbp)
	jne	LBB99_36
	movq	$0, 48(%rsi)
LBB99_36:
	movq	%r11, 8(%rdi)
	movq	%r9, 16(%rdi)
	movl	$1, %eax
LBB99_37:
	movq	%rax, (%rdi)
	addq	$24, %rsp
	popq	%rbx
	popq	%r12
	popq	%r13
	popq	%r14
	popq	%r15
	popq	%rbp
	retq
LBB99_38:
	leaq	l___unnamed_41(%rip), %rdx
	movq	%rax, %rdi
	movq	%rcx, %rsi
	callq	__ZN4core9panicking18panic_bounds_check17habe69d236c55e3edE
LBB99_39:
	leaq	l___unnamed_42(%rip), %rdx
	movq	%rax, %rdi
	movq	%r9, %rsi
	callq	__ZN4core9panicking18panic_bounds_check17habe69d236c55e3edE
LBB99_40:
	leaq	l___unnamed_43(%rip), %rdx
	movq	%r10, %rdi
	movq	%rcx, %rsi
	callq	__ZN4core9panicking18panic_bounds_check17habe69d236c55e3edE
	.cfi_endproc

	.p2align	4, 0x90
__ZN50_$LT$$RF$mut$u20$T$u20$as$u20$core..fmt..Debug$GT$3fmt17h863293f3a40b1b99E:
	.cfi_startproc
	pushq	%rbp
	.cfi_def_cfa_offset 16
	.cfi_offset %rbp, -16
	movq	%rsp, %rbp
	.cfi_def_cfa_register %rbp
	movq	(%rdi), %rdi
	popq	%rbp
	jmp	__ZN58_$LT$std..process..Command$u20$as$u20$core..fmt..Debug$GT$3fmt17h3f756cc70370805aE
	.cfi_endproc

	.p2align	4, 0x90
__ZN50_$LT$$RF$mut$u20$W$u20$as$u20$core..fmt..Write$GT$10write_char17h0ad9269103f99df9E:
	.cfi_startproc
	pushq	%rbp
	.cfi_def_cfa_offset 16
	.cfi_offset %rbp, -16
	movq	%rsp, %rbp
	.cfi_def_cfa_register %rbp
	movq	(%rdi), %rdi
	callq	__ZN5alloc6string6String4push17h97254c0338c06661E
	xorl	%eax, %eax
	popq	%rbp
	retq
	.cfi_endproc

	.p2align	4, 0x90
__ZN50_$LT$$RF$mut$u20$W$u20$as$u20$core..fmt..Write$GT$10write_char17hf3e8ada20fda523eE:
	.cfi_startproc
	pushq	%rbp
	.cfi_def_cfa_offset 16
	.cfi_offset %rbp, -16
	movq	%rsp, %rbp
	.cfi_def_cfa_register %rbp
	movq	(%rdi), %rdi
	popq	%rbp
	jmp	__ZN4core3fmt5Write10write_char17hf1709b4bdc695c75E
	.cfi_endproc

	.p2align	4, 0x90
__ZN50_$LT$$RF$mut$u20$W$u20$as$u20$core..fmt..Write$GT$9write_fmt17hcf0a9c37cc54fd36E:
	.cfi_startproc
	pushq	%rbp
	.cfi_def_cfa_offset 16
	.cfi_offset %rbp, -16
	movq	%rsp, %rbp
	.cfi_def_cfa_register %rbp
	subq	$64, %rsp
	movq	(%rdi), %rax
	movq	%rax, -8(%rbp)
	vmovups	(%rsi), %ymm0
	vmovups	16(%rsi), %ymm1
	vmovups	%ymm1, -48(%rbp)
	vmovups	%ymm0, -64(%rbp)
	leaq	l___unnamed_32(%rip), %rsi
	leaq	-8(%rbp), %rdi
	leaq	-64(%rbp), %rdx
	vzeroupper
	callq	__ZN4core3fmt5write17h26bd57c1fd6e9c98E
	addq	$64, %rsp
	popq	%rbp
	retq
	.cfi_endproc

	.p2align	4, 0x90
__ZN50_$LT$$RF$mut$u20$W$u20$as$u20$core..fmt..Write$GT$9write_fmt17hf3e2adfe1cdae04fE:
	.cfi_startproc
	pushq	%rbp
	.cfi_def_cfa_offset 16
	.cfi_offset %rbp, -16
	movq	%rsp, %rbp
	.cfi_def_cfa_register %rbp
	subq	$64, %rsp
	movq	(%rdi), %rax
	movq	%rax, -8(%rbp)
	vmovups	(%rsi), %ymm0
	vmovups	16(%rsi), %ymm1
	vmovups	%ymm1, -48(%rbp)
	vmovups	%ymm0, -64(%rbp)
	leaq	l___unnamed_44(%rip), %rsi
	leaq	-8(%rbp), %rdi
	leaq	-64(%rbp), %rdx
	vzeroupper
	callq	__ZN4core3fmt5write17h26bd57c1fd6e9c98E
	addq	$64, %rsp
	popq	%rbp
	retq
	.cfi_endproc

	.p2align	4, 0x90
__ZN50_$LT$$RF$mut$u20$W$u20$as$u20$core..fmt..Write$GT$9write_str17h777390177c26cf53E:
Lfunc_begin23:
	.cfi_startproc
	.cfi_personality 155, _rust_eh_personality
	.cfi_lsda 16, Lexception23
	pushq	%rbp
	.cfi_def_cfa_offset 16
	.cfi_offset %rbp, -16
	movq	%rsp, %rbp
	.cfi_def_cfa_register %rbp
	pushq	%r15
	pushq	%r14
	pushq	%r12
	pushq	%rbx
	subq	$32, %rsp
	.cfi_offset %rbx, -48
	.cfi_offset %r12, -40
	.cfi_offset %r14, -32
	.cfi_offset %r15, -24
	movq	%rdx, %rcx
	movq	%rsi, %rdx
	movq	(%rdi), %rbx
	movq	(%rbx), %rsi
	leaq	-64(%rbp), %rdi
	callq	__ZN3std2io5Write9write_all17h8dba33cff7519100E
	cmpb	$3, -64(%rbp)
	jne	LBB105_2
	xorl	%eax, %eax
	jmp	LBB105_9
LBB105_2:
	vmovups	-64(%rbp), %xmm0
	vmovaps	%xmm0, -48(%rbp)
	leaq	8(%rbx), %r15
	movb	8(%rbx), %al
	cmpb	$3, %al
	ja	LBB105_4
	cmpb	$2, %al
	jne	LBB105_8
LBB105_4:
	movq	16(%rbx), %r12
	movq	(%r12), %rdi
	movq	8(%r12), %rax
Ltmp263:
	callq	*(%rax)
Ltmp264:
	movq	8(%r12), %rax
	movq	8(%rax), %rsi
	testq	%rsi, %rsi
	je	LBB105_7
	movq	(%r12), %rdi
	movq	16(%rax), %rdx
	callq	___rust_dealloc
LBB105_7:
	movq	16(%rbx), %rdi
	movl	$24, %esi
	movl	$8, %edx
	callq	___rust_dealloc
LBB105_8:
	vmovaps	-48(%rbp), %xmm0
	vmovups	%xmm0, (%r15)
	movb	$1, %al
LBB105_9:
	addq	$32, %rsp
	popq	%rbx
	popq	%r12
	popq	%r14
	popq	%r15
	popq	%rbp
	retq
LBB105_10:
Ltmp265:
	movq	%rax, %r14
	movq	(%r12), %rdi
	movq	8(%r12), %rsi
	callq	__ZN5alloc5alloc8box_free17h49e85cf81d60bb52E
	movq	16(%rbx), %rdi
	callq	__ZN5alloc5alloc8box_free17h2cbd3df002e609cdE
	vmovaps	-48(%rbp), %xmm0
	vmovups	%xmm0, (%r15)
	movq	%r14, %rdi
	callq	__Unwind_Resume
	ud2
Lfunc_end23:
	.cfi_endproc
	.section	__TEXT,__gcc_except_tab
	.p2align	2
GCC_except_table105:
Lexception23:
	.byte	255
	.byte	255
	.byte	1
	.uleb128 Lcst_end23-Lcst_begin23
Lcst_begin23:
	.uleb128 Lfunc_begin23-Lfunc_begin23
	.uleb128 Ltmp263-Lfunc_begin23
	.byte	0
	.byte	0
	.uleb128 Ltmp263-Lfunc_begin23
	.uleb128 Ltmp264-Ltmp263
	.uleb128 Ltmp265-Lfunc_begin23
	.byte	0
	.uleb128 Ltmp264-Lfunc_begin23
	.uleb128 Lfunc_end23-Ltmp264
	.byte	0
	.byte	0
Lcst_end23:
	.p2align	2

	.section	__TEXT,__text,regular,pure_instructions
	.p2align	4, 0x90
__ZN50_$LT$$RF$mut$u20$W$u20$as$u20$core..fmt..Write$GT$9write_str17he4400945d1361629E:
	.cfi_startproc
	pushq	%rbp
	.cfi_def_cfa_offset 16
	.cfi_offset %rbp, -16
	movq	%rsp, %rbp
	.cfi_def_cfa_register %rbp
	pushq	%r15
	pushq	%r14
	pushq	%r13
	pushq	%r12
	pushq	%rbx
	pushq	%rax
	.cfi_offset %rbx, -56
	.cfi_offset %r12, -48
	.cfi_offset %r13, -40
	.cfi_offset %r14, -32
	.cfi_offset %r15, -24
	movq	%rdx, %r15
	movq	%rsi, %r14
	movq	(%rdi), %r13
	movq	8(%r13), %rsi
	movq	16(%r13), %rbx
	movq	%rsi, %rax
	subq	%rbx, %rax
	cmpq	%rdx, %rax
	jae	LBB106_1
	movq	%rbx, %r12
	addq	%r15, %r12
	jb	LBB106_15
	leaq	(%rsi,%rsi), %rax
	cmpq	%r12, %rax
	cmovaq	%rax, %r12
	testq	%rsi, %rsi
	je	LBB106_8
	movq	(%r13), %rdi
	testq	%rdi, %rdi
	je	LBB106_8
	cmpq	%r12, %rsi
	je	LBB106_12
	movl	$1, %edx
	movq	%r12, %rcx
	callq	___rust_realloc
	jmp	LBB106_11
LBB106_1:
	movq	(%r13), %rdi
	jmp	LBB106_2
LBB106_8:
	testq	%r12, %r12
	je	LBB106_9
	movl	$1, %esi
	movq	%r12, %rdi
	callq	___rust_alloc
LBB106_11:
	movq	%rax, %rdi
LBB106_12:
	testq	%rdi, %rdi
	je	LBB106_16
	movq	16(%r13), %rbx
	jmp	LBB106_14
LBB106_9:
	movl	$1, %edi
LBB106_14:
	movq	%rdi, (%r13)
	movq	%r12, 8(%r13)
LBB106_2:
	addq	%rbx, %rdi
	movq	%r14, %rsi
	movq	%r15, %rdx
	callq	_memcpy
	addq	%r15, %rbx
	movq	%rbx, 16(%r13)
	xorl	%eax, %eax
	addq	$8, %rsp
	popq	%rbx
	popq	%r12
	popq	%r13
	popq	%r14
	popq	%r15
	popq	%rbp
	retq
LBB106_15:
	callq	__ZN5alloc7raw_vec17capacity_overflow17h023f34f5bc34c61fE
LBB106_16:
	movl	$1, %esi
	movq	%r12, %rdi
	callq	__ZN5alloc5alloc18handle_alloc_error17hbc0ab0ed90816c07E
	.cfi_endproc

	.p2align	4, 0x90
__ZN50_$LT$T$u20$as$u20$core..convert..Into$LT$U$GT$$GT$4into17hb7b229d646c16077E:
	.cfi_startproc
	pushq	%rbp
	.cfi_def_cfa_offset 16
	.cfi_offset %rbp, -16
	movq	%rsp, %rbp
	.cfi_def_cfa_register %rbp
	pushq	%r15
	pushq	%r14
	pushq	%r13
	pushq	%r12
	pushq	%rbx
	pushq	%rax
	.cfi_offset %rbx, -56
	.cfi_offset %r12, -48
	.cfi_offset %r13, -40
	.cfi_offset %r14, -32
	.cfi_offset %r15, -24
	movq	%rdx, %r13
	movq	%rsi, %r15
	movq	%rdi, %r14
	testq	%rdx, %rdx
	je	LBB107_1
	movl	$1, %esi
	movq	%r13, %rdi
	callq	___rust_alloc
	testq	%rax, %rax
	je	LBB107_14
	movq	%rax, %r12
	movq	%r13, %rbx
	cmpq	%r13, %rbx
	jb	LBB107_5
	jmp	LBB107_13
LBB107_1:
	movl	$1, %r12d
	xorl	%ebx, %ebx
	cmpq	%r13, %rbx
	jae	LBB107_13
LBB107_5:
	movq	%r15, -48(%rbp)
	leaq	(%rbx,%rbx), %r15
	cmpq	%r13, %r15
	cmovbeq	%r13, %r15
	testq	%rbx, %rbx
	je	LBB107_9
	testq	%r12, %r12
	je	LBB107_9
	cmpq	%r15, %rbx
	je	LBB107_12
	movl	$1, %edx
	movq	%r12, %rdi
	movq	%rbx, %rsi
	movq	%r15, %rcx
	callq	___rust_realloc
	movq	%rax, %r12
	testq	%rax, %rax
	jne	LBB107_11
	jmp	LBB107_15
LBB107_9:
	movl	$1, %esi
	movq	%r15, %rdi
	callq	___rust_alloc
	movq	%rax, %r12
	testq	%rax, %rax
	je	LBB107_15
LBB107_11:
	movq	%r15, %rbx
LBB107_12:
	movq	-48(%rbp), %r15
LBB107_13:
	movq	%r12, %rdi
	movq	%r15, %rsi
	movq	%r13, %rdx
	callq	_memcpy
	movq	%r12, (%r14)
	movq	%rbx, 8(%r14)
	movq	%r13, 16(%r14)
	addq	$8, %rsp
	popq	%rbx
	popq	%r12
	popq	%r13
	popq	%r14
	popq	%r15
	popq	%rbp
	retq
LBB107_14:
	movl	$1, %esi
	movq	%r13, %rdi
	callq	__ZN5alloc7raw_vec19RawVec$LT$T$C$A$GT$11allocate_in28_$u7b$$u7b$closure$u7d$$u7d$17h8274b78e018d3dd6E
LBB107_15:
	movl	$1, %esi
	movq	%r15, %rdi
	callq	__ZN5alloc5alloc18handle_alloc_error17hbc0ab0ed90816c07E
	.cfi_endproc

	.p2align	4, 0x90
__ZN5alloc3str21_$LT$impl$u20$str$GT$7replace17h64f7060f78156ce4E:
Lfunc_begin24:
	.cfi_startproc
	.cfi_personality 155, _rust_eh_personality
	.cfi_lsda 16, Lexception24
	pushq	%rbp
	.cfi_def_cfa_offset 16
	.cfi_offset %rbp, -16
	movq	%rsp, %rbp
	.cfi_def_cfa_register %rbp
	pushq	%r15
	pushq	%r14
	pushq	%r13
	pushq	%r12
	pushq	%rbx
	subq	$328, %rsp
	.cfi_offset %rbx, -56
	.cfi_offset %r12, -48
	.cfi_offset %r13, -40
	.cfi_offset %r14, -32
	.cfi_offset %r15, -24
	movq	%r9, -104(%rbp)
	movq	%rdx, %r13
	movq	%rdi, -96(%rbp)
	movq	$1, -72(%rbp)
	vxorps	%xmm0, %xmm0, %xmm0
	vmovups	%xmm0, -64(%rbp)
Ltmp266:
	leaq	-256(%rbp), %rdi
	movq	%rsi, -80(%rbp)
	callq	__ZN4core3str7pattern11StrSearcher3new17hf20175b25b057116E
Ltmp267:
	movq	-160(%rbp), %rax
	movq	%rax, -272(%rbp)
	vmovups	-256(%rbp), %ymm0
	vmovups	-192(%rbp), %ymm1
	vmovups	%ymm1, -304(%rbp)
	vmovups	-224(%rbp), %ymm2
	vmovups	%ymm2, -336(%rbp)
	vmovups	%ymm0, -368(%rbp)
	movq	%rax, -160(%rbp)
	vmovups	%ymm1, -192(%rbp)
	vmovups	%ymm2, -224(%rbp)
	vmovups	%ymm0, -256(%rbp)
	movl	$1, %eax
	movq	%rax, -48(%rbp)
	xorl	%r15d, %r15d
	xorl	%r12d, %r12d
	xorl	%ebx, %ebx
	movq	%r13, -112(%rbp)
	jmp	LBB108_2
	.p2align	4, 0x90
LBB108_7:
	movq	-72(%rbp), %rax
	leaq	(%r14,%r13), %r12
LBB108_8:
	movq	%rax, -48(%rbp)
	addq	%rax, %r13
	movq	%r13, %rdi
	movq	-104(%rbp), %rsi
	movq	%r14, %rdx
	callq	_memcpy
	movq	%r12, -56(%rbp)
	movq	-120(%rbp), %rbx
	movq	-112(%rbp), %r13
LBB108_2:
Ltmp268:
	leaq	-144(%rbp), %rdi
	leaq	-256(%rbp), %rsi
	vzeroupper
	callq	__ZN80_$LT$core..str..pattern..StrSearcher$u20$as$u20$core..str..pattern..Searcher$GT$10next_match17h56b13fd5038c1780E
Ltmp269:
	cmpq	$1, -144(%rbp)
	movq	%rbx, -88(%rbp)
	jne	LBB108_35
	movq	-136(%rbp), %r14
	movq	-128(%rbp), %rax
	movq	%rax, -120(%rbp)
	subq	%rbx, %r14
	movq	%r15, %rax
	subq	%r12, %rax
	cmpq	%r14, %rax
	jae	LBB108_5
	movq	%r12, %r13
	addq	%r14, %r13
	movq	-48(%rbp), %rdi
	jb	LBB108_20
	movq	%r15, %rsi
	addq	%r15, %r15
	cmpq	%r13, %r15
	cmovbeq	%r13, %r15
	testq	%rsi, %rsi
	je	LBB108_14
	testq	%rdi, %rdi
	je	LBB108_14
	cmpq	%r15, %rsi
	je	LBB108_18
	movl	$1, %edx
	movq	%r15, %rcx
	callq	___rust_realloc
	jmp	LBB108_17
	.p2align	4, 0x90
LBB108_5:
	leaq	(%r12,%r14), %r13
	movq	-48(%rbp), %rdi
	jmp	LBB108_6
	.p2align	4, 0x90
LBB108_14:
	testq	%r15, %r15
	je	LBB108_15
	movl	$1, %esi
	movq	%r15, %rdi
	callq	___rust_alloc
LBB108_17:
	movq	%rax, %rdi
LBB108_18:
	testq	%rdi, %rdi
	jne	LBB108_19
	jmp	LBB108_22
LBB108_15:
	movl	$1, %edi
LBB108_19:
	movq	%rdi, -72(%rbp)
	movq	%r15, -64(%rbp)
LBB108_6:
	movq	-88(%rbp), %rsi
	addq	-80(%rbp), %rsi
	addq	%r12, %rdi
	movq	%r14, %rdx
	callq	_memcpy
	movq	%r13, -56(%rbp)
	movq	-64(%rbp), %r15
	movq	%r15, %rax
	subq	%r13, %rax
	movq	16(%rbp), %r14
	cmpq	%r14, %rax
	jae	LBB108_7
	movq	%r13, %r12
	addq	%r14, %r12
	jb	LBB108_33
	leaq	(%r15,%r15), %rbx
	cmpq	%r12, %rbx
	cmovbeq	%r12, %rbx
	testq	%r15, %r15
	je	LBB108_28
	movq	-72(%rbp), %rax
	testq	%rax, %rax
	je	LBB108_28
	cmpq	%rbx, %r15
	je	LBB108_31
	movl	$1, %edx
	movq	%rax, %rdi
	movq	%r15, %rsi
	movq	%rbx, %rcx
	callq	___rust_realloc
	testq	%rax, %rax
	jne	LBB108_32
	jmp	LBB108_34
	.p2align	4, 0x90
LBB108_28:
	testq	%rbx, %rbx
	je	LBB108_29
	movl	$1, %esi
	movq	%rbx, %rdi
	callq	___rust_alloc
LBB108_31:
	testq	%rax, %rax
	jne	LBB108_32
	jmp	LBB108_34
LBB108_29:
	movl	$1, %eax
LBB108_32:
	movq	%rax, -72(%rbp)
	movq	%rbx, %r15
	movq	%rbx, -64(%rbp)
	jmp	LBB108_8
LBB108_35:
	subq	%rbx, %r13
	movq	%r15, %rax
	subq	%r12, %rax
	cmpq	%r13, %rax
	jae	LBB108_36
	movq	%r13, %rax
	movq	%r12, %r13
	addq	%rax, %r13
	jb	LBB108_49
	movq	%rax, %rbx
	movq	%r15, %rax
	leaq	(%r15,%r15), %r14
	cmpq	%r13, %r14
	cmovbeq	%r13, %r14
	testq	%r15, %r15
	movq	-48(%rbp), %rdi
	je	LBB108_43
	testq	%rdi, %rdi
	je	LBB108_43
	cmpq	%r14, %r15
	je	LBB108_47
	movl	$1, %edx
	movq	%r15, %rsi
	movq	%r14, %rcx
	callq	___rust_realloc
	jmp	LBB108_46
LBB108_36:
	movq	%r13, %rdx
	addq	%r12, %r13
	movq	-48(%rbp), %rdi
	jmp	LBB108_37
LBB108_43:
	testq	%r14, %r14
	je	LBB108_44
	movl	$1, %esi
	movq	%r14, %rdi
	callq	___rust_alloc
LBB108_46:
	movq	%rax, %rdi
LBB108_47:
	testq	%rdi, %rdi
	jne	LBB108_48
	movl	$1, %esi
	movq	%r14, %rdi
	callq	__ZN5alloc5alloc18handle_alloc_error17hbc0ab0ed90816c07E
LBB108_44:
	movl	$1, %edi
LBB108_48:
	movq	%rdi, -72(%rbp)
	movq	%r14, -64(%rbp)
	movq	%rbx, %rdx
	movq	-88(%rbp), %rbx
LBB108_37:
	movq	-80(%rbp), %rsi
	addq	%rbx, %rsi
	addq	%r12, %rdi
	callq	_memcpy
	movq	%r13, -56(%rbp)
	vmovups	-72(%rbp), %xmm0
	movq	-96(%rbp), %rax
	vmovups	%xmm0, (%rax)
	movq	%r13, 16(%rax)
	addq	$328, %rsp
	popq	%rbx
	popq	%r12
	popq	%r13
	popq	%r14
	popq	%r15
	popq	%rbp
	retq
LBB108_20:
Ltmp276:
	callq	__ZN5alloc7raw_vec17capacity_overflow17h023f34f5bc34c61fE
Ltmp277:
	jmp	LBB108_21
LBB108_33:
Ltmp274:
	callq	__ZN5alloc7raw_vec17capacity_overflow17h023f34f5bc34c61fE
Ltmp275:
LBB108_21:
	ud2
LBB108_22:
	movl	$1, %esi
	movq	%r15, %rdi
	callq	__ZN5alloc5alloc18handle_alloc_error17hbc0ab0ed90816c07E
LBB108_34:
	movl	$1, %esi
	movq	%rbx, %rdi
	callq	__ZN5alloc5alloc18handle_alloc_error17hbc0ab0ed90816c07E
LBB108_49:
Ltmp271:
	callq	__ZN5alloc7raw_vec17capacity_overflow17h023f34f5bc34c61fE
Ltmp272:
	jmp	LBB108_21
LBB108_54:
Ltmp278:
	jmp	LBB108_53
LBB108_51:
Ltmp273:
	jmp	LBB108_53
LBB108_52:
Ltmp270:
LBB108_53:
	movq	%rax, %rbx
	leaq	-72(%rbp), %rdi
	callq	__ZN4core3ptr13drop_in_place17h17797588d32ceb50E
	movq	%rbx, %rdi
	callq	__Unwind_Resume
	ud2
Lfunc_end24:
	.cfi_endproc
	.section	__TEXT,__gcc_except_tab
	.p2align	2
GCC_except_table108:
Lexception24:
	.byte	255
	.byte	255
	.byte	1
	.uleb128 Lcst_end24-Lcst_begin24
Lcst_begin24:
	.uleb128 Ltmp266-Lfunc_begin24
	.uleb128 Ltmp267-Ltmp266
	.uleb128 Ltmp273-Lfunc_begin24
	.byte	0
	.uleb128 Ltmp267-Lfunc_begin24
	.uleb128 Ltmp268-Ltmp267
	.byte	0
	.byte	0
	.uleb128 Ltmp268-Lfunc_begin24
	.uleb128 Ltmp269-Ltmp268
	.uleb128 Ltmp270-Lfunc_begin24
	.byte	0
	.uleb128 Ltmp269-Lfunc_begin24
	.uleb128 Ltmp276-Ltmp269
	.byte	0
	.byte	0
	.uleb128 Ltmp276-Lfunc_begin24
	.uleb128 Ltmp275-Ltmp276
	.uleb128 Ltmp278-Lfunc_begin24
	.byte	0
	.uleb128 Ltmp271-Lfunc_begin24
	.uleb128 Ltmp272-Ltmp271
	.uleb128 Ltmp273-Lfunc_begin24
	.byte	0
	.uleb128 Ltmp272-Lfunc_begin24
	.uleb128 Lfunc_end24-Ltmp272
	.byte	0
	.byte	0
Lcst_end24:
	.p2align	2

	.section	__TEXT,__text,regular,pure_instructions
	.p2align	4, 0x90
__ZN5alloc3vec12Vec$LT$T$GT$7reserve17h1620f7acab5ef580E:
	.cfi_startproc
	pushq	%rbp
	.cfi_def_cfa_offset 16
	.cfi_offset %rbp, -16
	movq	%rsp, %rbp
	.cfi_def_cfa_register %rbp
	pushq	%r14
	pushq	%rbx
	.cfi_offset %rbx, -32
	.cfi_offset %r14, -24
	movq	8(%rdi), %rcx
	movq	16(%rdi), %rax
	movq	%rcx, %rdx
	subq	%rax, %rdx
	cmpq	%rsi, %rdx
	jae	LBB109_17
	addq	%rsi, %rax
	jb	LBB109_18
	movq	%rdi, %rbx
	leaq	(%rcx,%rcx), %rdx
	cmpq	%rax, %rdx
	cmovaq	%rdx, %rax
	movl	$24, %edx
	xorl	%esi, %esi
	mulq	%rdx
	movq	%rax, %r14
	seto	%dl
	setno	%dil
	movq	%rcx, %rax
	testq	%rcx, %rcx
	je	LBB109_4
	movq	(%rbx), %rax
LBB109_4:
	testb	%dl, %dl
	jne	LBB109_18
	testq	%rax, %rax
	je	LBB109_11
	shlq	$3, %rcx
	leaq	(%rcx,%rcx,2), %rsi
	cmpq	%r14, %rsi
	je	LBB109_15
	testq	%rsi, %rsi
	je	LBB109_8
	movl	$8, %edx
	movq	%rax, %rdi
	movq	%r14, %rcx
	callq	___rust_realloc
	testq	%rax, %rax
	jne	LBB109_16
	jmp	LBB109_19
LBB109_11:
	movb	%dil, %sil
	shlq	$3, %rsi
	testq	%r14, %r14
	jne	LBB109_14
	movq	%rsi, %rax
	testq	%rax, %rax
	jne	LBB109_16
	jmp	LBB109_19
LBB109_8:
	testq	%r14, %r14
	je	LBB109_9
	movl	$8, %esi
LBB109_14:
	movq	%r14, %rdi
	callq	___rust_alloc
LBB109_15:
	testq	%rax, %rax
	je	LBB109_19
LBB109_16:
	movq	%rax, (%rbx)
	movabsq	$-6148914691236517205, %rcx
	movq	%r14, %rax
	mulq	%rcx
	shrq	$4, %rdx
	movq	%rdx, 8(%rbx)
LBB109_17:
	popq	%rbx
	popq	%r14
	popq	%rbp
	retq
LBB109_9:
	movl	$8, %eax
	jmp	LBB109_16
LBB109_18:
	callq	__ZN5alloc7raw_vec17capacity_overflow17h023f34f5bc34c61fE
LBB109_19:
	movl	$8, %esi
	movq	%r14, %rdi
	callq	__ZN5alloc5alloc18handle_alloc_error17hbc0ab0ed90816c07E
	.cfi_endproc

	.p2align	4, 0x90
__ZN5alloc3vec12Vec$LT$T$GT$7reserve17h63e5c9e89dc08635E:
	.cfi_startproc
	pushq	%rbp
	.cfi_def_cfa_offset 16
	.cfi_offset %rbp, -16
	movq	%rsp, %rbp
	.cfi_def_cfa_register %rbp
	pushq	%r14
	pushq	%rbx
	.cfi_offset %rbx, -32
	.cfi_offset %r14, -24
	movq	8(%rdi), %rcx
	movq	16(%rdi), %rax
	movq	%rcx, %rdx
	subq	%rax, %rdx
	cmpq	%rsi, %rdx
	jae	LBB110_17
	addq	%rsi, %rax
	jb	LBB110_18
	movq	%rdi, %rbx
	leaq	(%rcx,%rcx), %rdx
	cmpq	%rax, %rdx
	cmovaq	%rdx, %rax
	movl	$48, %edx
	xorl	%esi, %esi
	mulq	%rdx
	movq	%rax, %r14
	seto	%dl
	setno	%dil
	movq	%rcx, %rax
	testq	%rcx, %rcx
	je	LBB110_4
	movq	(%rbx), %rax
LBB110_4:
	testb	%dl, %dl
	jne	LBB110_18
	testq	%rax, %rax
	je	LBB110_11
	shlq	$4, %rcx
	leaq	(%rcx,%rcx,2), %rsi
	cmpq	%r14, %rsi
	je	LBB110_15
	testq	%rsi, %rsi
	je	LBB110_8
	movl	$8, %edx
	movq	%rax, %rdi
	movq	%r14, %rcx
	callq	___rust_realloc
	testq	%rax, %rax
	jne	LBB110_16
	jmp	LBB110_19
LBB110_11:
	movb	%dil, %sil
	shlq	$3, %rsi
	testq	%r14, %r14
	jne	LBB110_14
	movq	%rsi, %rax
	testq	%rax, %rax
	jne	LBB110_16
	jmp	LBB110_19
LBB110_8:
	testq	%r14, %r14
	je	LBB110_9
	movl	$8, %esi
LBB110_14:
	movq	%r14, %rdi
	callq	___rust_alloc
LBB110_15:
	testq	%rax, %rax
	je	LBB110_19
LBB110_16:
	movq	%rax, (%rbx)
	movabsq	$-6148914691236517205, %rcx
	movq	%r14, %rax
	mulq	%rcx
	shrq	$5, %rdx
	movq	%rdx, 8(%rbx)
LBB110_17:
	popq	%rbx
	popq	%r14
	popq	%rbp
	retq
LBB110_9:
	movl	$8, %eax
	jmp	LBB110_16
LBB110_18:
	callq	__ZN5alloc7raw_vec17capacity_overflow17h023f34f5bc34c61fE
LBB110_19:
	movl	$8, %esi
	movq	%r14, %rdi
	callq	__ZN5alloc5alloc18handle_alloc_error17hbc0ab0ed90816c07E
	.cfi_endproc

	.p2align	4, 0x90
__ZN5alloc4sync12Arc$LT$T$GT$9drop_slow17h05a6fcfecf782810E:
	.cfi_startproc
	pushq	%rbp
	.cfi_def_cfa_offset 16
	.cfi_offset %rbp, -16
	movq	%rsp, %rbp
	.cfi_def_cfa_register %rbp
	pushq	%r14
	pushq	%rbx
	.cfi_offset %rbx, -32
	.cfi_offset %r14, -24
	movq	%rdi, %r14
	movq	(%rdi), %rbx
	movq	16(%rbx), %rdi
	callq	_pthread_mutex_destroy
	movq	16(%rbx), %rdi
	movl	$64, %esi
	movl	$8, %edx
	callq	___rust_dealloc
	addq	$48, %rbx
	movq	%rbx, %rdi
	callq	__ZN4core3ptr13drop_in_place17h5454fdc7c29d91fbE
	movq	(%r14), %rax
	lock		decq	8(%rax)
	jne	LBB111_1
	##MEMBARRIER
	movq	(%r14), %rdi
	movl	$88, %esi
	movl	$8, %edx
	popq	%rbx
	popq	%r14
	popq	%rbp
	jmp	___rust_dealloc
LBB111_1:
	popq	%rbx
	popq	%r14
	popq	%rbp
	retq
	.cfi_endproc

	.p2align	4, 0x90
__ZN5alloc4sync12Arc$LT$T$GT$9drop_slow17h819aa27857de26c3E:
	.cfi_startproc
	pushq	%rbp
	.cfi_def_cfa_offset 16
	.cfi_offset %rbp, -16
	movq	%rsp, %rbp
	.cfi_def_cfa_register %rbp
	pushq	%r14
	pushq	%rbx
	.cfi_offset %rbx, -32
	.cfi_offset %r14, -24
	movq	%rdi, %r14
	movq	(%rdi), %rbx
	movq	16(%rbx), %rdi
	callq	_pthread_mutex_destroy
	movq	16(%rbx), %rdi
	movl	$64, %esi
	movl	$8, %edx
	callq	___rust_dealloc
	addq	$48, %rbx
	movq	%rbx, %rdi
	callq	__ZN4core3ptr13drop_in_place17hdfa27de00c3e95f8E
	movq	(%r14), %rax
	lock		decq	8(%rax)
	jne	LBB112_1
	##MEMBARRIER
	movq	(%r14), %rdi
	movl	$88, %esi
	movl	$8, %edx
	popq	%rbx
	popq	%r14
	popq	%rbp
	jmp	___rust_dealloc
LBB112_1:
	popq	%rbx
	popq	%r14
	popq	%rbp
	retq
	.cfi_endproc

	.p2align	4, 0x90
__ZN5alloc4sync12Arc$LT$T$GT$9drop_slow17h8389483e09127b79E:
Lfunc_begin25:
	.cfi_startproc
	.cfi_personality 155, _rust_eh_personality
	.cfi_lsda 16, Lexception25
	pushq	%rbp
	.cfi_def_cfa_offset 16
	.cfi_offset %rbp, -16
	movq	%rsp, %rbp
	.cfi_def_cfa_register %rbp
	pushq	%r14
	pushq	%rbx
	.cfi_offset %rbx, -32
	.cfi_offset %r14, -24
	movq	%rdi, %r14
	movq	(%rdi), %rbx
	movq	16(%rbx), %rax
	testq	%rax, %rax
	je	LBB113_3
	movb	$0, (%rax)
	movq	24(%rbx), %rsi
	testq	%rsi, %rsi
	je	LBB113_3
	movq	16(%rbx), %rdi
	movl	$1, %edx
	callq	___rust_dealloc
LBB113_3:
	movq	48(%rbx), %rdi
	callq	_pthread_mutex_destroy
	movq	48(%rbx), %rdi
	movl	$64, %esi
	movl	$8, %edx
	callq	___rust_dealloc
	addq	$64, %rbx
Ltmp279:
	movq	%rbx, %rdi
	callq	__ZN69_$LT$std..sync..condvar..Condvar$u20$as$u20$core..ops..drop..Drop$GT$4drop17h586207405bc4e99fE
Ltmp280:
	movq	(%rbx), %rdi
	movl	$48, %esi
	movl	$8, %edx
	callq	___rust_dealloc
	movq	(%r14), %rax
	lock		decq	8(%rax)
	jne	LBB113_5
	##MEMBARRIER
	movq	(%r14), %rdi
	movl	$80, %esi
	movl	$8, %edx
	popq	%rbx
	popq	%r14
	popq	%rbp
	jmp	___rust_dealloc
LBB113_5:
	popq	%rbx
	popq	%r14
	popq	%rbp
	retq
LBB113_6:
Ltmp281:
	movq	%rax, %r14
	movq	%rbx, %rdi
	callq	__ZN4core3ptr13drop_in_place17hf4394fc7ca9f2e8eE
	movq	%r14, %rdi
	callq	__Unwind_Resume
	ud2
Lfunc_end25:
	.cfi_endproc
	.section	__TEXT,__gcc_except_tab
	.p2align	2
GCC_except_table113:
Lexception25:
	.byte	255
	.byte	255
	.byte	1
	.uleb128 Lcst_end25-Lcst_begin25
Lcst_begin25:
	.uleb128 Ltmp279-Lfunc_begin25
	.uleb128 Ltmp280-Ltmp279
	.uleb128 Ltmp281-Lfunc_begin25
	.byte	0
	.uleb128 Ltmp280-Lfunc_begin25
	.uleb128 Lfunc_end25-Ltmp280
	.byte	0
	.byte	0
Lcst_end25:
	.p2align	2

	.section	__TEXT,__text,regular,pure_instructions
	.p2align	4, 0x90
__ZN5alloc4sync12Arc$LT$T$GT$9drop_slow17hc18cceb15824c1ffE:
Lfunc_begin26:
	.cfi_startproc
	.cfi_personality 155, _rust_eh_personality
	.cfi_lsda 16, Lexception26
	pushq	%rbp
	.cfi_def_cfa_offset 16
	.cfi_offset %rbp, -16
	movq	%rsp, %rbp
	.cfi_def_cfa_register %rbp
	pushq	%r14
	pushq	%rbx
	.cfi_offset %rbx, -32
	.cfi_offset %r14, -24
	movq	%rdi, %r14
	movq	(%rdi), %rbx
	cmpq	$0, 16(%rbx)
	je	LBB114_5
	movq	24(%rbx), %rdi
	testq	%rdi, %rdi
	je	LBB114_5
	movq	32(%rbx), %rax
Ltmp282:
	callq	*(%rax)
Ltmp283:
	movq	32(%rbx), %rax
	movq	8(%rax), %rsi
	testq	%rsi, %rsi
	je	LBB114_5
	movq	24(%rbx), %rdi
	movq	16(%rax), %rdx
	callq	___rust_dealloc
LBB114_5:
	movq	(%r14), %rax
	lock		decq	8(%rax)
	jne	LBB114_6
	##MEMBARRIER
	movq	(%r14), %rdi
	movl	$40, %esi
	movl	$8, %edx
	popq	%rbx
	popq	%r14
	popq	%rbp
	jmp	___rust_dealloc
LBB114_6:
	popq	%rbx
	popq	%r14
	popq	%rbp
	retq
LBB114_7:
Ltmp284:
	movq	%rax, %r14
	movq	24(%rbx), %rdi
	movq	32(%rbx), %rsi
	callq	__ZN5alloc5alloc8box_free17h49e85cf81d60bb52E
	movq	%r14, %rdi
	callq	__Unwind_Resume
	ud2
Lfunc_end26:
	.cfi_endproc
	.section	__TEXT,__gcc_except_tab
	.p2align	2
GCC_except_table114:
Lexception26:
	.byte	255
	.byte	255
	.byte	1
	.uleb128 Lcst_end26-Lcst_begin26
Lcst_begin26:
	.uleb128 Ltmp282-Lfunc_begin26
	.uleb128 Ltmp283-Ltmp282
	.uleb128 Ltmp284-Lfunc_begin26
	.byte	0
	.uleb128 Ltmp283-Lfunc_begin26
	.uleb128 Lfunc_end26-Ltmp283
	.byte	0
	.byte	0
Lcst_end26:
	.p2align	2

	.section	__TEXT,__text,regular,pure_instructions
	.p2align	4, 0x90
__ZN5alloc4sync12Arc$LT$T$GT$9drop_slow17hf4b91972a90e86c8E:
Lfunc_begin27:
	.cfi_startproc
	.cfi_personality 155, _rust_eh_personality
	.cfi_lsda 16, Lexception27
	pushq	%rbp
	.cfi_def_cfa_offset 16
	.cfi_offset %rbp, -16
	movq	%rsp, %rbp
	.cfi_def_cfa_register %rbp
	pushq	%r14
	pushq	%rbx
	.cfi_offset %rbx, -32
	.cfi_offset %r14, -24
	movq	%rdi, %r14
	movq	(%rdi), %rbx
	leaq	16(%rbx), %rdi
Ltmp285:
	callq	__ZN3std3sys4unix5mutex14ReentrantMutex7destroy17h54d62440a0d5fbc0E
Ltmp286:
	addq	$80, %rbx
	movq	%rbx, %rdi
	callq	__ZN4core3ptr13drop_in_place17h0eacf74f27357194E
	movq	(%r14), %rax
	lock		decq	8(%rax)
	jne	LBB115_2
	##MEMBARRIER
	movq	(%r14), %rdi
	movl	$128, %esi
	movl	$8, %edx
	popq	%rbx
	popq	%r14
	popq	%rbp
	jmp	___rust_dealloc
LBB115_2:
	popq	%rbx
	popq	%r14
	popq	%rbp
	retq
LBB115_3:
Ltmp287:
	movq	%rax, %r14
	addq	$80, %rbx
	movq	%rbx, %rdi
	callq	__ZN4core3ptr13drop_in_place17h0eacf74f27357194E
	movq	%r14, %rdi
	callq	__Unwind_Resume
	ud2
Lfunc_end27:
	.cfi_endproc
	.section	__TEXT,__gcc_except_tab
	.p2align	2
GCC_except_table115:
Lexception27:
	.byte	255
	.byte	255
	.byte	1
	.uleb128 Lcst_end27-Lcst_begin27
Lcst_begin27:
	.uleb128 Ltmp285-Lfunc_begin27
	.uleb128 Ltmp286-Ltmp285
	.uleb128 Ltmp287-Lfunc_begin27
	.byte	0
	.uleb128 Ltmp286-Lfunc_begin27
	.uleb128 Lfunc_end27-Ltmp286
	.byte	0
	.byte	0
Lcst_end27:
	.p2align	2

	.section	__TEXT,__text,regular,pure_instructions
	.p2align	4, 0x90
__ZN5alloc5alloc8box_free17h2be370c0f94677d7E:
	.cfi_startproc
	pushq	%rbp
	.cfi_def_cfa_offset 16
	.cfi_offset %rbp, -16
	movq	%rsp, %rbp
	.cfi_def_cfa_register %rbp
	movl	$64, %esi
	movl	$8, %edx
	popq	%rbp
	jmp	___rust_dealloc
	.cfi_endproc

	.p2align	4, 0x90
__ZN5alloc5alloc8box_free17h2cbd3df002e609cdE:
	.cfi_startproc
	pushq	%rbp
	.cfi_def_cfa_offset 16
	.cfi_offset %rbp, -16
	movq	%rsp, %rbp
	.cfi_def_cfa_register %rbp
	movl	$24, %esi
	movl	$8, %edx
	popq	%rbp
	jmp	___rust_dealloc
	.cfi_endproc

	.p2align	4, 0x90
__ZN5alloc5alloc8box_free17h49e85cf81d60bb52E:
	.cfi_startproc
	pushq	%rbp
	.cfi_def_cfa_offset 16
	.cfi_offset %rbp, -16
	movq	%rsp, %rbp
	.cfi_def_cfa_register %rbp
	movq	%rsi, %rax
	movq	8(%rsi), %rsi
	testq	%rsi, %rsi
	je	LBB118_1
	movq	16(%rax), %rdx
	popq	%rbp
	jmp	___rust_dealloc
LBB118_1:
	popq	%rbp
	retq
	.cfi_endproc

	.p2align	4, 0x90
__ZN5alloc6string6String4push17h97254c0338c06661E:
	.cfi_startproc
	pushq	%rbp
	.cfi_def_cfa_offset 16
	.cfi_offset %rbp, -16
	movq	%rsp, %rbp
	.cfi_def_cfa_register %rbp
	pushq	%r15
	pushq	%r14
	pushq	%r12
	pushq	%rbx
	subq	$16, %rsp
	.cfi_offset %rbx, -48
	.cfi_offset %r12, -40
	.cfi_offset %r14, -32
	.cfi_offset %r15, -24
	movl	%esi, %ebx
	movq	%rdi, %r14
	cmpl	$128, %esi
	jae	LBB119_1
	movq	16(%r14), %rsi
	cmpq	8(%r14), %rsi
	jne	LBB119_22
	movq	%rsi, %r15
	incq	%r15
	je	LBB119_35
	leaq	(%rsi,%rsi), %rax
	cmpq	%r15, %rax
	cmovaq	%rax, %r15
	testq	%rsi, %rsi
	je	LBB119_29
	movq	(%r14), %rax
	testq	%rax, %rax
	je	LBB119_29
	cmpq	%r15, %rsi
	je	LBB119_32
	movl	$1, %edx
	movq	%rax, %rdi
	movq	%r15, %rcx
	callq	___rust_realloc
	testq	%rax, %rax
	jne	LBB119_33
	jmp	LBB119_36
LBB119_1:
	movl	$0, -36(%rbp)
	movl	%ebx, %eax
	cmpl	$2048, %ebx
	jae	LBB119_2
	shrl	$6, %eax
	andb	$31, %al
	orb	$-64, %al
	movb	%al, -36(%rbp)
	andb	$63, %bl
	orb	$-128, %bl
	movb	%bl, -35(%rbp)
	movl	$2, %r15d
	jmp	LBB119_5
LBB119_22:
	movq	(%r14), %rax
	jmp	LBB119_23
LBB119_2:
	cmpl	$65536, %ebx
	jae	LBB119_4
	shrl	$12, %eax
	andb	$15, %al
	orb	$-32, %al
	movb	%al, -36(%rbp)
	movl	%ebx, %eax
	shrl	$6, %eax
	andb	$63, %al
	orb	$-128, %al
	movb	%al, -35(%rbp)
	andb	$63, %bl
	orb	$-128, %bl
	movb	%bl, -34(%rbp)
	movl	$3, %r15d
	jmp	LBB119_5
LBB119_29:
	testq	%r15, %r15
	je	LBB119_30
	movl	$1, %esi
	movq	%r15, %rdi
	callq	___rust_alloc
LBB119_32:
	testq	%rax, %rax
	je	LBB119_36
LBB119_33:
	movq	16(%r14), %rsi
	jmp	LBB119_34
LBB119_4:
	shrl	$18, %eax
	orb	$-16, %al
	movb	%al, -36(%rbp)
	movl	%ebx, %eax
	shrl	$12, %eax
	andb	$63, %al
	orb	$-128, %al
	movb	%al, -35(%rbp)
	movl	%ebx, %eax
	shrl	$6, %eax
	andb	$63, %al
	orb	$-128, %al
	movb	%al, -34(%rbp)
	andb	$63, %bl
	orb	$-128, %bl
	movb	%bl, -33(%rbp)
	movl	$4, %r15d
LBB119_5:
	movq	8(%r14), %rsi
	movq	16(%r14), %rbx
	movq	%rsi, %rax
	subq	%rbx, %rax
	cmpq	%r15, %rax
	jae	LBB119_6
	movq	%rbx, %r12
	addq	%r15, %r12
	jb	LBB119_35
	leaq	(%rsi,%rsi), %rax
	cmpq	%r12, %rax
	cmovaq	%rax, %r12
	testq	%rsi, %rsi
	je	LBB119_12
	movq	(%r14), %rdi
	testq	%rdi, %rdi
	je	LBB119_12
	cmpq	%r12, %rsi
	je	LBB119_16
	movl	$1, %edx
	movq	%r12, %rcx
	callq	___rust_realloc
	jmp	LBB119_15
LBB119_6:
	movq	(%r14), %rdi
	jmp	LBB119_19
LBB119_12:
	testq	%r12, %r12
	je	LBB119_13
	movl	$1, %esi
	movq	%r12, %rdi
	callq	___rust_alloc
LBB119_15:
	movq	%rax, %rdi
LBB119_16:
	testq	%rdi, %rdi
	je	LBB119_38
	movq	16(%r14), %rbx
	jmp	LBB119_18
LBB119_30:
	movl	$1, %eax
LBB119_34:
	movq	%rax, (%r14)
	movq	%r15, 8(%r14)
LBB119_23:
	movb	%bl, (%rax,%rsi)
	incq	16(%r14)
	jmp	LBB119_20
LBB119_13:
	movl	$1, %edi
LBB119_18:
	movq	%rdi, (%r14)
	movq	%r12, 8(%r14)
LBB119_19:
	addq	%rbx, %rdi
	leaq	-36(%rbp), %rsi
	movq	%r15, %rdx
	callq	_memcpy
	addq	%r15, %rbx
	movq	%rbx, 16(%r14)
LBB119_20:
	addq	$16, %rsp
	popq	%rbx
	popq	%r12
	popq	%r14
	popq	%r15
	popq	%rbp
	retq
LBB119_35:
	callq	__ZN5alloc7raw_vec17capacity_overflow17h023f34f5bc34c61fE
LBB119_36:
	movl	$1, %esi
	movq	%r15, %rdi
	callq	__ZN5alloc5alloc18handle_alloc_error17hbc0ab0ed90816c07E
LBB119_38:
	movl	$1, %esi
	movq	%r12, %rdi
	callq	__ZN5alloc5alloc18handle_alloc_error17hbc0ab0ed90816c07E
	.cfi_endproc

	.p2align	4, 0x90
__ZN5alloc7raw_vec19RawVec$LT$T$C$A$GT$11allocate_in28_$u7b$$u7b$closure$u7d$$u7d$17h8274b78e018d3dd6E:
	.cfi_startproc
	pushq	%rbp
	.cfi_def_cfa_offset 16
	.cfi_offset %rbp, -16
	movq	%rsp, %rbp
	.cfi_def_cfa_register %rbp
	callq	__ZN5alloc5alloc18handle_alloc_error17hbc0ab0ed90816c07E
	.cfi_endproc

	.p2align	4, 0x90
__ZN60_$LT$alloc..string..String$u20$as$u20$core..fmt..Display$GT$3fmt17h4c6fc2b9ff0414a4E:
	.cfi_startproc
	pushq	%rbp
	.cfi_def_cfa_offset 16
	.cfi_offset %rbp, -16
	movq	%rsp, %rbp
	.cfi_def_cfa_register %rbp
	movq	%rsi, %rdx
	movq	(%rdi), %rax
	movq	16(%rdi), %rsi
	movq	%rax, %rdi
	popq	%rbp
	jmp	__ZN42_$LT$str$u20$as$u20$core..fmt..Display$GT$3fmt17hd4dee1c1c4ccf892E
	.cfi_endproc

	.p2align	4, 0x90
__ZN63_$LT$alloc..boxed..Box$LT$T$GT$$u20$as$u20$core..fmt..Debug$GT$3fmt17h6eb3074d09e5e0b6E:
	.cfi_startproc
	pushq	%rbp
	.cfi_def_cfa_offset 16
	.cfi_offset %rbp, -16
	movq	%rsp, %rbp
	.cfi_def_cfa_register %rbp
	movq	%rsi, %rdx
	movq	(%rdi), %rax
	movq	8(%rdi), %rsi
	movq	%rax, %rdi
	popq	%rbp
	jmp	__ZN82_$LT$dyn$u20$core..any..Any$u2b$core..marker..Send$u20$as$u20$core..fmt..Debug$GT$3fmt17h699b7b5fc322f35eE
	.cfi_endproc

	.p2align	4, 0x90
__ZN66_$LT$core..option..Option$LT$T$GT$$u20$as$u20$core..fmt..Debug$GT$3fmt17h7bbb38ffef9e69e6E:
	.cfi_startproc
	pushq	%rbp
	.cfi_def_cfa_offset 16
	.cfi_offset %rbp, -16
	movq	%rsp, %rbp
	.cfi_def_cfa_register %rbp
	pushq	%r14
	pushq	%rbx
	subq	$32, %rsp
	.cfi_offset %rbx, -32
	.cfi_offset %r14, -24
	cmpq	$0, (%rdi)
	je	LBB123_2
	movq	%rdi, %rbx
	leaq	-48(%rbp), %r14
	leaq	L___unnamed_21(%rip), %rdx
	movl	$4, %ecx
	movq	%r14, %rdi
	callq	__ZN4core3fmt9Formatter11debug_tuple17h15ca25ad759edd1cE
	movq	%rbx, -24(%rbp)
	leaq	l___unnamed_18(%rip), %rdx
	leaq	-24(%rbp), %rsi
	movq	%r14, %rdi
	callq	__ZN4core3fmt8builders10DebugTuple5field17hf36121153a94f236E
	jmp	LBB123_3
LBB123_2:
	leaq	-48(%rbp), %r14
	leaq	L___unnamed_23(%rip), %rdx
	movl	$4, %ecx
	movq	%r14, %rdi
	callq	__ZN4core3fmt9Formatter11debug_tuple17h15ca25ad759edd1cE
LBB123_3:
	movq	%r14, %rdi
	callq	__ZN4core3fmt8builders10DebugTuple6finish17h68acf09c6f6593f2E
	addq	$32, %rsp
	popq	%rbx
	popq	%r14
	popq	%rbp
	retq
	.cfi_endproc

	.p2align	4, 0x90
__ZN80_$LT$core..str..pattern..StrSearcher$u20$as$u20$core..str..pattern..Searcher$GT$10next_match17h56b13fd5038c1780E:
	.cfi_startproc
	pushq	%rbp
	.cfi_def_cfa_offset 16
	.cfi_offset %rbp, -16
	movq	%rsp, %rbp
	.cfi_def_cfa_register %rbp
	pushq	%r15
	pushq	%r14
	pushq	%r13
	pushq	%r12
	pushq	%rbx
	subq	$72, %rsp
	.cfi_offset %rbx, -56
	.cfi_offset %r12, -48
	.cfi_offset %r13, -40
	.cfi_offset %r14, -32
	.cfi_offset %r15, -24
	cmpq	$1, 32(%rsi)
	jne	LBB124_3
	cmpq	$-1, 88(%rsi)
	movq	(%rsi), %rdx
	movq	8(%rsi), %rcx
	movq	16(%rsi), %r8
	movq	24(%rsi), %r9
	leaq	40(%rsi), %rsi
	je	LBB124_31
	movl	$0, (%rsp)
	jmp	LBB124_32
LBB124_3:
	movb	56(%rsi), %r9b
	movq	40(%rsi), %rax
	movq	(%rsi), %r10
	movq	8(%rsi), %r13
	leaq	(%r10,%r13), %r8
	jmp	LBB124_5
	.p2align	4, 0x90
LBB124_4:
	addq	%rbx, %rax
	movq	%rax, 40(%rsi)
LBB124_5:
	movl	%r9d, %r11d
	testb	%r9b, %r9b
	sete	56(%rsi)
	sete	%r9b
	movq	%r10, -72(%rbp)
	movq	%r13, -64(%rbp)
	movq	%rax, -48(%rbp)
	movq	%r13, -56(%rbp)
	testq	%rax, %rax
	je	LBB124_9
	cmpq	%rax, %r13
	je	LBB124_9
	jbe	LBB124_34
	cmpb	$-65, (%r10,%rax)
	jle	LBB124_34
LBB124_9:
	movl	$1114112, %ecx
	cmpq	%rax, %r13
	je	LBB124_24
	leaq	(%r10,%rax), %rbx
	movzbl	(%rbx), %ecx
	testb	%cl, %cl
	jns	LBB124_24
	leaq	1(%rbx), %rdx
	cmpq	%r8, %rdx
	je	LBB124_17
	movzbl	1(%rbx), %r15d
	addq	$2, %rbx
	andl	$63, %r15d
	movl	%ecx, %r14d
	andl	$31, %r14d
	cmpb	$-33, %cl
	jbe	LBB124_18
LBB124_13:
	cmpq	%r8, %rbx
	je	LBB124_19
	movzbl	(%rbx), %r12d
	incq	%rbx
	andl	$63, %r12d
	shll	$6, %r15d
	orl	%r12d, %r15d
	cmpb	$-16, %cl
	jb	LBB124_20
LBB124_15:
	cmpq	%r8, %rbx
	je	LBB124_21
	movzbl	(%rbx), %ecx
	andl	$63, %ecx
	jmp	LBB124_22
LBB124_17:
	xorl	%r15d, %r15d
	movq	%r8, %rbx
	movl	%ecx, %r14d
	andl	$31, %r14d
	cmpb	$-33, %cl
	ja	LBB124_13
LBB124_18:
	shll	$6, %r14d
	orl	%r14d, %r15d
	jmp	LBB124_23
LBB124_19:
	xorl	%r12d, %r12d
	movq	%r8, %rbx
	shll	$6, %r15d
	orl	%r12d, %r15d
	cmpb	$-16, %cl
	jae	LBB124_15
LBB124_20:
	shll	$12, %r14d
	orl	%r14d, %r15d
	jmp	LBB124_23
LBB124_21:
	xorl	%ecx, %ecx
LBB124_22:
	andl	$7, %r14d
	shll	$18, %r14d
	shll	$6, %r15d
	orl	%r14d, %r15d
	orl	%ecx, %r15d
LBB124_23:
	movl	%r15d, %ecx
	.p2align	4, 0x90
LBB124_24:
	testb	%r11b, %r11b
	jne	LBB124_29
	cmpl	$1114112, %ecx
	je	LBB124_30
	movl	$1, %ebx
	cmpl	$128, %ecx
	jb	LBB124_4
	movl	$2, %ebx
	cmpl	$2048, %ecx
	jb	LBB124_4
	cmpl	$65536, %ecx
	movl	$4, %ebx
	sbbq	$0, %rbx
	jmp	LBB124_4
LBB124_29:
	movq	%rax, 8(%rdi)
	movq	%rax, 16(%rdi)
	movq	$1, (%rdi)
	jmp	LBB124_33
LBB124_30:
	movq	$0, (%rdi)
	jmp	LBB124_33
LBB124_31:
	movl	$1, (%rsp)
LBB124_32:
	callq	__ZN4core3str7pattern14TwoWaySearcher4next17haabd571c10ca7a57E
LBB124_33:
	addq	$72, %rsp
	popq	%rbx
	popq	%r12
	popq	%r13
	popq	%r14
	popq	%r15
	popq	%rbp
	retq
LBB124_34:
	leaq	-72(%rbp), %rax
	movq	%rax, -96(%rbp)
	leaq	-48(%rbp), %rax
	movq	%rax, -88(%rbp)
	leaq	-56(%rbp), %rax
	movq	%rax, -80(%rbp)
	leaq	-96(%rbp), %rdi
	callq	__ZN4core3str6traits105_$LT$impl$u20$core..slice..SliceIndex$LT$str$GT$$u20$for$u20$core..ops..range..RangeFrom$LT$usize$GT$$GT$5index28_$u7b$$u7b$closure$u7d$$u7d$17hcaca297d412a2959E
	.cfi_endproc

	.p2align	4, 0x90
__ZN80_$LT$std..io..Write..write_fmt..Adaptor$LT$T$GT$$u20$as$u20$core..fmt..Write$GT$9write_str17h523f719892792703E:
Lfunc_begin28:
	.cfi_startproc
	.cfi_personality 155, _rust_eh_personality
	.cfi_lsda 16, Lexception28
	pushq	%rbp
	.cfi_def_cfa_offset 16
	.cfi_offset %rbp, -16
	movq	%rsp, %rbp
	.cfi_def_cfa_register %rbp
	pushq	%rbx
	subq	$40, %rsp
	.cfi_offset %rbx, -24
	movq	%rdx, %rcx
	movq	%rsi, %rdx
	movq	%rdi, %rbx
	movq	(%rdi), %rsi
	leaq	-48(%rbp), %rdi
	callq	__ZN3std2io5Write9write_all17h8dba33cff7519100E
	cmpb	$3, -48(%rbp)
	jne	LBB125_3
	xorl	%eax, %eax
	addq	$40, %rsp
	popq	%rbx
	popq	%rbp
	retq
LBB125_3:
	vmovups	-48(%rbp), %xmm0
	vmovaps	%xmm0, -32(%rbp)
	addq	$8, %rbx
Ltmp288:
	movq	%rbx, %rdi
	callq	__ZN4core3ptr13drop_in_place17h0fd466df618ec20eE
Ltmp289:
	vmovaps	-32(%rbp), %xmm0
	vmovups	%xmm0, (%rbx)
	movb	$1, %al
	addq	$40, %rsp
	popq	%rbx
	popq	%rbp
	retq
LBB125_5:
Ltmp290:
	vmovaps	-32(%rbp), %xmm0
	vmovups	%xmm0, (%rbx)
	movq	%rax, %rdi
	callq	__Unwind_Resume
	ud2
Lfunc_end28:
	.cfi_endproc
	.section	__TEXT,__gcc_except_tab
	.p2align	2
GCC_except_table125:
Lexception28:
	.byte	255
	.byte	255
	.byte	1
	.uleb128 Lcst_end28-Lcst_begin28
Lcst_begin28:
	.uleb128 Lfunc_begin28-Lfunc_begin28
	.uleb128 Ltmp288-Lfunc_begin28
	.byte	0
	.byte	0
	.uleb128 Ltmp288-Lfunc_begin28
	.uleb128 Ltmp289-Ltmp288
	.uleb128 Ltmp290-Lfunc_begin28
	.byte	0
	.uleb128 Ltmp289-Lfunc_begin28
	.uleb128 Lfunc_end28-Ltmp289
	.byte	0
	.byte	0
Lcst_end28:
	.p2align	2

	.section	__TEXT,__text,regular,pure_instructions
	.p2align	4, 0x90
__ZN81_$LT$std..collections..hash..map..DefaultHasher$u20$as$u20$core..hash..Hasher$GT$5write17h224b0f9eadf6f830E:
	.cfi_startproc
	pushq	%rbp
	.cfi_def_cfa_offset 16
	.cfi_offset %rbp, -16
	movq	%rsp, %rbp
	.cfi_def_cfa_register %rbp
	pushq	%r14
	pushq	%rbx
	.cfi_offset %rbx, -32
	.cfi_offset %r14, -24
	addq	%rdx, 16(%rdi)
	movq	64(%rdi), %r9
	testq	%r9, %r9
	je	LBB126_1
	movl	$8, %r10d
	subq	%r9, %r10
	cmpq	%rdx, %r10
	movq	%rdx, %r11
	cmovbq	%r10, %r11
	cmpq	$4, %r11
	jb	LBB126_3
	movl	(%rsi), %r8d
	movl	$4, %eax
	movq	%rax, %rcx
	orq	$1, %rcx
	cmpq	%r11, %rcx
	jb	LBB126_6
	jmp	LBB126_7
LBB126_1:
	xorl	%r10d, %r10d
	jmp	LBB126_11
LBB126_3:
	xorl	%r8d, %r8d
	xorl	%eax, %eax
	movq	%rax, %rcx
	orq	$1, %rcx
	cmpq	%r11, %rcx
	jae	LBB126_7
LBB126_6:
	movzwl	(%rsi,%rax), %ecx
	leal	(,%rax,8), %ebx
	shlxq	%rbx, %rcx, %rcx
	orq	%rcx, %r8
	orq	$2, %rax
LBB126_7:
	cmpq	%r11, %rax
	jae	LBB126_9
	movzbl	(%rsi,%rax), %ecx
	shll	$3, %eax
	shlxq	%rax, %rcx, %rax
	orq	%rax, %r8
LBB126_9:
	leal	(,%r9,8), %eax
	shlxq	%rax, %r8, %rax
	orq	56(%rdi), %rax
	movq	%rax, 56(%rdi)
	cmpq	%rdx, %r10
	jbe	LBB126_10
	addq	%rdx, %r9
	jmp	LBB126_24
LBB126_10:
	movq	48(%rdi), %rcx
	xorq	%rax, %rcx
	movq	40(%rdi), %r8
	movq	24(%rdi), %rbx
	addq	%r8, %rbx
	rorxq	$51, %r8, %r8
	xorq	%rbx, %r8
	rorxq	$32, %rbx, %r9
	rorxq	$48, %rcx, %rbx
	addq	32(%rdi), %rcx
	xorq	%rcx, %rbx
	addq	%rbx, %r9
	rorxq	$43, %rbx, %rbx
	xorq	%r9, %rbx
	movq	%rbx, 48(%rdi)
	addq	%r8, %rcx
	rorxq	$47, %r8, %rbx
	xorq	%rcx, %rbx
	movq	%rbx, 40(%rdi)
	rorxq	$32, %rcx, %rcx
	movq	%rcx, 32(%rdi)
	xorq	%rax, %r9
	movq	%r9, 24(%rdi)
	movq	$0, 64(%rdi)
LBB126_11:
	subq	%r10, %rdx
	movl	%edx, %r9d
	andl	$7, %r9d
	subq	%r9, %rdx
	cmpq	%rdx, %r10
	jae	LBB126_15
	movq	48(%rdi), %r8
	movq	24(%rdi), %rax
	movq	32(%rdi), %rcx
	movq	40(%rdi), %r11
	.p2align	4, 0x90
LBB126_13:
	movq	(%rsi,%r10), %r14
	xorq	%r14, %r8
	addq	%r11, %rax
	rorxq	$51, %r11, %r11
	xorq	%rax, %r11
	rorxq	$32, %rax, %rax
	addq	%r8, %rcx
	rorxq	$48, %r8, %rbx
	xorq	%rcx, %rbx
	addq	%rbx, %rax
	rorxq	$43, %rbx, %r8
	xorq	%rax, %r8
	addq	%r11, %rcx
	rorxq	$47, %r11, %r11
	xorq	%rcx, %r11
	rorxq	$32, %rcx, %rcx
	xorq	%r14, %rax
	addq	$8, %r10
	cmpq	%rdx, %r10
	jb	LBB126_13
	movq	%r8, 48(%rdi)
	movq	%rax, 24(%rdi)
	movq	%r11, 40(%rdi)
	movq	%rcx, 32(%rdi)
LBB126_15:
	cmpq	$4, %r9
	jb	LBB126_16
	movl	(%rsi,%r10), %edx
	movl	$4, %eax
	movq	%rax, %rcx
	orq	$1, %rcx
	cmpq	%r9, %rcx
	jb	LBB126_19
	jmp	LBB126_20
LBB126_16:
	xorl	%edx, %edx
	xorl	%eax, %eax
	movq	%rax, %rcx
	orq	$1, %rcx
	cmpq	%r9, %rcx
	jae	LBB126_20
LBB126_19:
	leaq	(%rax,%r10), %rcx
	movzwl	(%rsi,%rcx), %ecx
	leal	(,%rax,8), %ebx
	shlxq	%rbx, %rcx, %rcx
	orq	%rcx, %rdx
	orq	$2, %rax
LBB126_20:
	cmpq	%r9, %rax
	jae	LBB126_22
	addq	%rax, %r10
	movzbl	(%rsi,%r10), %ecx
	shll	$3, %eax
	shlxq	%rax, %rcx, %rax
	orq	%rax, %rdx
LBB126_22:
	movq	%rdx, 56(%rdi)
LBB126_24:
	movq	%r9, 64(%rdi)
	popq	%rbx
	popq	%r14
	popq	%rbp
	retq
	.cfi_endproc

	.p2align	4, 0x90
__ZN82_$LT$std..sys_common..poison..PoisonError$LT$T$GT$$u20$as$u20$core..fmt..Debug$GT$3fmt17h54a0e02836c874beE:
	.cfi_startproc
	pushq	%rbp
	.cfi_def_cfa_offset 16
	.cfi_offset %rbp, -16
	movq	%rsp, %rbp
	.cfi_def_cfa_register %rbp
	movq	%rsi, %rdx
	leaq	l___unnamed_45(%rip), %rdi
	movl	$25, %esi
	popq	%rbp
	jmp	__ZN40_$LT$str$u20$as$u20$core..fmt..Debug$GT$3fmt17h2760aab2290546fcE
	.cfi_endproc

	.p2align	4, 0x90
__ZN84_$LT$core..str..Split$LT$P$GT$$u20$as$u20$core..iter..traits..iterator..Iterator$GT$4next17h3d1afb3f23b2bc98E:
	.cfi_startproc
	pushq	%rbp
	.cfi_def_cfa_offset 16
	.cfi_offset %rbp, -16
	movq	%rsp, %rbp
	.cfi_def_cfa_register %rbp
	pushq	%r15
	pushq	%r14
	pushq	%r13
	pushq	%r12
	pushq	%rbx
	subq	$24, %rsp
	.cfi_offset %rbx, -56
	.cfi_offset %r12, -48
	.cfi_offset %r13, -40
	.cfi_offset %r14, -32
	.cfi_offset %r15, -24
	cmpb	$0, 65(%rdi)
	jne	LBB128_1
	movq	%rdi, %r13
	movq	32(%rdi), %rsi
	movq	40(%rdi), %rax
	movq	%rax, %rdx
	subq	%rsi, %rdx
	jb	LBB128_16
	cmpq	%rax, 24(%r13)
	jb	LBB128_16
	movq	16(%r13), %rcx
	movq	48(%r13), %rax
	movq	%rcx, -56(%rbp)
	addq	%rcx, %rsi
	movzbl	59(%rax,%r13), %edi
	callq	__ZN4core5slice6memchr6memchr17h319ffdabcbdf42caE
	cmpq	$1, %rax
	jne	LBB128_15
	leaq	60(%r13), %rax
	movq	%rax, -48(%rbp)
	.p2align	4, 0x90
LBB128_6:
	movq	32(%r13), %rax
	movq	48(%r13), %r15
	leaq	(%rdx,%rax), %rbx
	addq	$1, %rbx
	movq	%rbx, 32(%r13)
	movq	%rbx, %r12
	subq	%r15, %r12
	jae	LBB128_8
	movq	24(%r13), %r14
	movq	40(%r13), %rax
	movq	%rax, %rdx
	subq	%rbx, %rdx
	jae	LBB128_13
	jmp	LBB128_16
	.p2align	4, 0x90
LBB128_8:
	movq	24(%r13), %r14
	cmpq	%rbx, %r14
	jb	LBB128_12
	cmpq	$5, %r15
	jae	LBB128_23
	movq	16(%r13), %rdi
	addq	%r12, %rdi
	cmpq	-48(%rbp), %rdi
	je	LBB128_21
	movq	-48(%rbp), %rsi
	movq	%r15, %rdx
	callq	_bcmp
	testl	%eax, %eax
	je	LBB128_21
LBB128_12:
	movq	40(%r13), %rax
	movq	%rax, %rdx
	subq	%rbx, %rdx
	jb	LBB128_16
LBB128_13:
	cmpq	%rax, %r14
	jb	LBB128_16
	addq	16(%r13), %rbx
	movzbl	59(%r15,%r13), %edi
	movq	%rbx, %rsi
	callq	__ZN4core5slice6memchr6memchr17h319ffdabcbdf42caE
	cmpq	$1, %rax
	je	LBB128_6
LBB128_15:
	movq	40(%r13), %rax
	movq	%rax, 32(%r13)
LBB128_16:
	cmpb	$0, 65(%r13)
	je	LBB128_17
LBB128_1:
	xorl	%eax, %eax
LBB128_22:
	movq	%r12, %rdx
	addq	$24, %rsp
	popq	%rbx
	popq	%r12
	popq	%r13
	popq	%r14
	popq	%r15
	popq	%rbp
	retq
LBB128_17:
	cmpb	$0, 64(%r13)
	je	LBB128_19
	movq	(%r13), %rax
	movq	8(%r13), %r12
	jmp	LBB128_20
LBB128_19:
	movq	(%r13), %rax
	movq	8(%r13), %r12
	cmpq	%rax, %r12
	je	LBB128_1
LBB128_20:
	movb	$1, 65(%r13)
	subq	%rax, %r12
	addq	16(%r13), %rax
	jmp	LBB128_22
LBB128_21:
	movq	(%r13), %rcx
	movq	-56(%rbp), %rax
	addq	%rcx, %rax
	subq	%rcx, %r12
	movq	%rbx, (%r13)
	jmp	LBB128_22
LBB128_23:
	leaq	l___unnamed_46(%rip), %rdx
	movl	$4, %esi
	movq	%r15, %rdi
	callq	__ZN4core5slice20slice_index_len_fail17h550a313151a85135E
	.cfi_endproc

	.p2align	4, 0x90
__ZN85_$LT$core..str..SplitWhitespace$u20$as$u20$core..iter..traits..iterator..Iterator$GT$4next17h59f7423f1b308480E:
	.cfi_startproc
	pushq	%rbp
	.cfi_def_cfa_offset 16
	.cfi_offset %rbp, -16
	movq	%rsp, %rbp
	.cfi_def_cfa_register %rbp
	pushq	%r15
	pushq	%r14
	pushq	%r13
	pushq	%r12
	pushq	%rbx
	pushq	%rax
	.cfi_offset %rbx, -56
	.cfi_offset %r12, -48
	.cfi_offset %r13, -40
	.cfi_offset %r14, -32
	.cfi_offset %r15, -24
	movq	%rdi, %r15
	movabsq	$4294983168, %r12
	jmp	LBB129_1
	.p2align	4, 0x90
LBB129_33:
	movq	(%r15), %rax
	addq	%rax, %r14
	subq	%rax, %r13
	movq	%rbx, (%r15)
	testq	%r13, %r13
	jne	LBB129_35
LBB129_1:
	cmpb	$0, 57(%r15)
	jne	LBB129_2
	movq	40(%r15), %rdx
	movq	48(%r15), %r8
	cmpq	%rdx, %r8
	je	LBB129_29
	movq	16(%r15), %r14
	movq	%rdx, %rcx
	jmp	LBB129_5
	.p2align	4, 0x90
LBB129_26:
	movq	40(%r15), %rcx
	movq	48(%r15), %r8
LBB129_27:
	movq	%rcx, %rdx
	cmpq	%rcx, %r8
	je	LBB129_28
LBB129_5:
	leaq	1(%rcx), %rax
	movq	%rax, 40(%r15)
	movzbl	(%rcx), %edi
	testb	%dil, %dil
	js	LBB129_6
	movq	%rax, %rcx
	jmp	LBB129_22
	.p2align	4, 0x90
LBB129_6:
	cmpq	%r8, %rax
	je	LBB129_7
	leaq	2(%rcx), %rax
	movq	%rax, 40(%r15)
	movzbl	1(%rcx), %esi
	andl	$63, %esi
	movq	%rax, %rcx
	movl	%edi, %ebx
	andl	$31, %ebx
	cmpb	$-33, %dil
	jbe	LBB129_10
LBB129_13:
	cmpq	%r8, %rax
	je	LBB129_14
	leaq	1(%rax), %rcx
	movq	%rcx, 40(%r15)
	movzbl	(%rax), %eax
	andl	$63, %eax
	movq	%rcx, %r9
	shll	$6, %esi
	orl	%eax, %esi
	cmpb	$-16, %dil
	jb	LBB129_17
LBB129_18:
	cmpq	%r8, %r9
	je	LBB129_19
	leaq	1(%r9), %rcx
	movq	%rcx, 40(%r15)
	movzbl	(%r9), %eax
	andl	$63, %eax
	jmp	LBB129_21
LBB129_7:
	xorl	%esi, %esi
	movq	%rax, %rcx
	movq	%r8, %rax
	movl	%edi, %ebx
	andl	$31, %ebx
	cmpb	$-33, %dil
	ja	LBB129_13
LBB129_10:
	shll	$6, %ebx
	jmp	LBB129_11
LBB129_14:
	xorl	%eax, %eax
	movq	%r8, %r9
	shll	$6, %esi
	orl	%eax, %esi
	cmpb	$-16, %dil
	jae	LBB129_18
LBB129_17:
	shll	$12, %ebx
LBB129_11:
	orl	%ebx, %esi
	movl	%esi, %edi
	jmp	LBB129_22
LBB129_19:
	xorl	%eax, %eax
LBB129_21:
	andl	$7, %ebx
	shll	$18, %ebx
	shll	$6, %esi
	orl	%ebx, %esi
	orl	%eax, %esi
	movl	%esi, %edi
	cmpl	$1114112, %esi
	je	LBB129_28
	.p2align	4, 0x90
LBB129_22:
	movq	32(%r15), %r13
	movq	%rcx, %rbx
	subq	%rdx, %rbx
	addq	%r13, %rbx
	movq	%rbx, 32(%r15)
	cmpl	$32, %edi
	ja	LBB129_24
	movl	%edi, %eax
	btq	%rax, %r12
	jb	LBB129_33
LBB129_24:
	cmpl	$128, %edi
	jb	LBB129_27
	callq	__ZN4core7unicode12unicode_data11white_space6lookup17ha71f6b36a0478eccE
	testb	%al, %al
	je	LBB129_26
	jmp	LBB129_33
	.p2align	4, 0x90
LBB129_28:
	cmpb	$0, 57(%r15)
	jne	LBB129_2
LBB129_29:
	cmpb	$0, 56(%r15)
	je	LBB129_31
	movq	(%r15), %r14
	movq	8(%r15), %r13
	jmp	LBB129_32
	.p2align	4, 0x90
LBB129_31:
	movq	(%r15), %r14
	movq	8(%r15), %r13
	cmpq	%r14, %r13
	je	LBB129_2
LBB129_32:
	movb	$1, 57(%r15)
	subq	%r14, %r13
	addq	16(%r15), %r14
	testq	%r13, %r13
	je	LBB129_1
	jmp	LBB129_35
LBB129_2:
	xorl	%r14d, %r14d
LBB129_35:
	movq	%r14, %rax
	movq	%r13, %rdx
	addq	$8, %rsp
	popq	%rbx
	popq	%r12
	popq	%r13
	popq	%r14
	popq	%r15
	popq	%rbp
	retq
	.cfi_endproc

	.p2align	4, 0x90
__ZN91_$LT$std..panicking..begin_panic..PanicPayload$LT$A$GT$$u20$as$u20$core..panic..BoxMeUp$GT$3get17h1779d06e1caf16adE:
	.cfi_startproc
	pushq	%rbp
	.cfi_def_cfa_offset 16
	.cfi_offset %rbp, -16
	movq	%rsp, %rbp
	.cfi_def_cfa_register %rbp
	cmpq	$0, (%rdi)
	je	LBB130_2
	movq	%rdi, %rax
	leaq	l___unnamed_47(%rip), %rdx
	popq	%rbp
	retq
LBB130_2:
	callq	__ZN3std7process5abort17h4dccaf05298ce780E
	.cfi_endproc

	.p2align	4, 0x90
__ZN91_$LT$std..panicking..begin_panic..PanicPayload$LT$A$GT$$u20$as$u20$core..panic..BoxMeUp$GT$8take_box17h59e2ea942be98ddeE:
	.cfi_startproc
	pushq	%rbp
	.cfi_def_cfa_offset 16
	.cfi_offset %rbp, -16
	movq	%rsp, %rbp
	.cfi_def_cfa_register %rbp
	pushq	%r14
	pushq	%rbx
	.cfi_offset %rbx, -32
	.cfi_offset %r14, -24
	movq	(%rdi), %rbx
	movq	8(%rdi), %r14
	movq	$0, (%rdi)
	testq	%rbx, %rbx
	je	LBB131_3
	movl	$16, %edi
	movl	$8, %esi
	callq	___rust_alloc
	testq	%rax, %rax
	je	LBB131_4
	movq	%rbx, (%rax)
	movq	%r14, 8(%rax)
	leaq	l___unnamed_47(%rip), %rdx
	popq	%rbx
	popq	%r14
	popq	%rbp
	retq
LBB131_3:
	callq	__ZN3std7process5abort17h4dccaf05298ce780E
LBB131_4:
	movl	$16, %edi
	movl	$8, %esi
	callq	__ZN5alloc5alloc18handle_alloc_error17hbc0ab0ed90816c07E
	.cfi_endproc

	.p2align	4, 0x90
__ZN97_$LT$core..iter..adapters..Map$LT$I$C$F$GT$$u20$as$u20$core..iter..traits..iterator..Iterator$GT$4next17h7125276f028b215eE:
	.cfi_startproc
	pushq	%rbp
	.cfi_def_cfa_offset 16
	.cfi_offset %rbp, -16
	movq	%rsp, %rbp
	.cfi_def_cfa_register %rbp
	pushq	%r15
	pushq	%r14
	pushq	%r13
	pushq	%r12
	pushq	%rbx
	pushq	%rax
	.cfi_offset %rbx, -56
	.cfi_offset %r12, -48
	.cfi_offset %r13, -40
	.cfi_offset %r14, -32
	.cfi_offset %r15, -24
	movq	%rdi, %r14
	movq	%rsi, %rdi
	callq	__ZN85_$LT$core..str..SplitWhitespace$u20$as$u20$core..iter..traits..iterator..Iterator$GT$4next17h59f7423f1b308480E
	testq	%rax, %rax
	je	LBB132_1
	movq	%rax, %rbx
	movq	%rdx, %r13
	testq	%rdx, %rdx
	je	LBB132_3
	movl	$1, %esi
	movq	%r13, %rdi
	callq	___rust_alloc
	testq	%rax, %rax
	je	LBB132_17
	movq	%rax, %r12
	movq	%r13, %r15
	cmpq	%r13, %r15
	jb	LBB132_7
	jmp	LBB132_15
LBB132_1:
	movq	$0, (%r14)
	jmp	LBB132_16
LBB132_3:
	movl	$1, %r12d
	xorl	%r15d, %r15d
	cmpq	%r13, %r15
	jae	LBB132_15
LBB132_7:
	movq	%rbx, -48(%rbp)
	leaq	(%r15,%r15), %rax
	cmpq	%r13, %rax
	movq	%r13, %rbx
	cmovaq	%rax, %rbx
	testq	%r15, %r15
	je	LBB132_11
	testq	%r12, %r12
	je	LBB132_11
	cmpq	%rbx, %r15
	je	LBB132_14
	movl	$1, %edx
	movq	%r12, %rdi
	movq	%r15, %rsi
	movq	%rbx, %rcx
	callq	___rust_realloc
	movq	%rax, %r12
	testq	%rax, %rax
	jne	LBB132_13
	jmp	LBB132_18
LBB132_11:
	movl	$1, %esi
	movq	%rbx, %rdi
	callq	___rust_alloc
	movq	%rax, %r12
	testq	%rax, %rax
	je	LBB132_18
LBB132_13:
	movq	%rbx, %r15
LBB132_14:
	movq	-48(%rbp), %rbx
LBB132_15:
	movq	%r12, %rdi
	movq	%rbx, %rsi
	movq	%r13, %rdx
	callq	_memcpy
	movq	%r12, (%r14)
	movq	%r15, 8(%r14)
	movq	%r13, 16(%r14)
LBB132_16:
	addq	$8, %rsp
	popq	%rbx
	popq	%r12
	popq	%r13
	popq	%r14
	popq	%r15
	popq	%rbp
	retq
LBB132_17:
	movl	$1, %esi
	movq	%r13, %rdi
	callq	__ZN5alloc7raw_vec19RawVec$LT$T$C$A$GT$11allocate_in28_$u7b$$u7b$closure$u7d$$u7d$17h8274b78e018d3dd6E
LBB132_18:
	movl	$1, %esi
	movq	%rbx, %rdi
	callq	__ZN5alloc5alloc18handle_alloc_error17hbc0ab0ed90816c07E
	.cfi_endproc

	.p2align	4, 0x90
__ZN97_$LT$core..iter..adapters..Map$LT$I$C$F$GT$$u20$as$u20$core..iter..traits..iterator..Iterator$GT$4next17hc76a1b5c692108d2E:
	.cfi_startproc
	pushq	%rbp
	.cfi_def_cfa_offset 16
	.cfi_offset %rbp, -16
	movq	%rsp, %rbp
	.cfi_def_cfa_register %rbp
	pushq	%r15
	pushq	%r14
	pushq	%r13
	pushq	%r12
	pushq	%rbx
	pushq	%rax
	.cfi_offset %rbx, -56
	.cfi_offset %r12, -48
	.cfi_offset %r13, -40
	.cfi_offset %r14, -32
	.cfi_offset %r15, -24
	movq	%rsi, %r12
	movq	%rdi, -48(%rbp)
	movabsq	$4294983168, %r13
	jmp	LBB133_1
	.p2align	4, 0x90
LBB133_32:
	movq	(%r12), %rax
	addq	%rax, %r15
	subq	%rax, %rbx
	movq	%r14, (%r12)
	testq	%rbx, %rbx
	jne	LBB133_34
LBB133_1:
	cmpb	$0, 57(%r12)
	jne	LBB133_37
	movq	40(%r12), %rdx
	movq	48(%r12), %r8
	cmpq	%rdx, %r8
	je	LBB133_28
	movq	16(%r12), %r15
	movq	%rdx, %rcx
	jmp	LBB133_4
	.p2align	4, 0x90
LBB133_26:
	movq	%rcx, %rdx
	cmpq	%rcx, %r8
	je	LBB133_27
LBB133_4:
	leaq	1(%rcx), %rax
	movq	%rax, 40(%r12)
	movzbl	(%rcx), %edi
	testb	%dil, %dil
	js	LBB133_5
	movq	%rax, %rcx
	jmp	LBB133_21
	.p2align	4, 0x90
LBB133_5:
	cmpq	%r8, %rax
	je	LBB133_6
	leaq	2(%rcx), %rax
	movq	%rax, 40(%r12)
	movzbl	1(%rcx), %esi
	andl	$63, %esi
	movq	%rax, %rcx
	movl	%edi, %ebx
	andl	$31, %ebx
	cmpb	$-33, %dil
	jbe	LBB133_9
LBB133_12:
	cmpq	%r8, %rax
	je	LBB133_13
	leaq	1(%rax), %rcx
	movq	%rcx, 40(%r12)
	movzbl	(%rax), %eax
	andl	$63, %eax
	movq	%rcx, %r9
	shll	$6, %esi
	orl	%eax, %esi
	cmpb	$-16, %dil
	jb	LBB133_16
LBB133_17:
	cmpq	%r8, %r9
	je	LBB133_18
	leaq	1(%r9), %rcx
	movq	%rcx, 40(%r12)
	movzbl	(%r9), %eax
	andl	$63, %eax
	jmp	LBB133_20
LBB133_6:
	xorl	%esi, %esi
	movq	%rax, %rcx
	movq	%r8, %rax
	movl	%edi, %ebx
	andl	$31, %ebx
	cmpb	$-33, %dil
	ja	LBB133_12
LBB133_9:
	shll	$6, %ebx
	jmp	LBB133_10
LBB133_13:
	xorl	%eax, %eax
	movq	%r8, %r9
	shll	$6, %esi
	orl	%eax, %esi
	cmpb	$-16, %dil
	jae	LBB133_17
LBB133_16:
	shll	$12, %ebx
LBB133_10:
	orl	%ebx, %esi
	movl	%esi, %edi
	jmp	LBB133_21
LBB133_18:
	xorl	%eax, %eax
LBB133_20:
	andl	$7, %ebx
	shll	$18, %ebx
	shll	$6, %esi
	orl	%ebx, %esi
	orl	%eax, %esi
	movl	%esi, %edi
	cmpl	$1114112, %esi
	je	LBB133_27
	.p2align	4, 0x90
LBB133_21:
	movq	32(%r12), %rbx
	movq	%rcx, %r14
	subq	%rdx, %r14
	addq	%rbx, %r14
	movq	%r14, 32(%r12)
	cmpl	$32, %edi
	ja	LBB133_23
	movl	%edi, %eax
	btq	%rax, %r13
	jb	LBB133_32
LBB133_23:
	cmpl	$128, %edi
	jb	LBB133_26
	callq	__ZN4core7unicode12unicode_data11white_space6lookup17ha71f6b36a0478eccE
	testb	%al, %al
	jne	LBB133_32
	movq	40(%r12), %rcx
	movq	48(%r12), %r8
	jmp	LBB133_26
	.p2align	4, 0x90
LBB133_27:
	cmpb	$0, 57(%r12)
	jne	LBB133_37
LBB133_28:
	cmpb	$0, 56(%r12)
	je	LBB133_30
	movq	(%r12), %r15
	movq	8(%r12), %rbx
	jmp	LBB133_31
	.p2align	4, 0x90
LBB133_30:
	movq	(%r12), %r15
	movq	8(%r12), %rbx
	cmpq	%r15, %rbx
	je	LBB133_37
LBB133_31:
	movb	$1, 57(%r12)
	subq	%r15, %rbx
	addq	16(%r12), %r15
	testq	%rbx, %rbx
	je	LBB133_1
LBB133_34:
	movl	$1, %esi
	movq	%rbx, %rdi
	callq	___rust_alloc
	testq	%rax, %rax
	je	LBB133_38
	movq	%rax, %r12
	movq	%rax, %rdi
	movq	%r15, %rsi
	movq	%rbx, %rdx
	callq	_memcpy
	movq	-48(%rbp), %rax
	movq	%r12, (%rax)
	movq	%rbx, 8(%rax)
	movq	%rbx, 16(%rax)
	jmp	LBB133_36
LBB133_37:
	movq	-48(%rbp), %rax
	movq	$0, (%rax)
LBB133_36:
	addq	$8, %rsp
	popq	%rbx
	popq	%r12
	popq	%r13
	popq	%r14
	popq	%r15
	popq	%rbp
	retq
LBB133_38:
	movl	$1, %esi
	movq	%rbx, %rdi
	callq	__ZN5alloc7raw_vec19RawVec$LT$T$C$A$GT$11allocate_in28_$u7b$$u7b$closure$u7d$$u7d$17h8274b78e018d3dd6E
	.cfi_endproc

	.section	__TEXT,__const
	.p2align	5
LCPI134_0:
	.quad	8317987319222330741
	.quad	7816392313619706465
	.quad	7237128888997146477
	.quad	8387220255154660723
	.section	__TEXT,__text,regular,pure_instructions
	.p2align	4, 0x90
__ZN9hashbrown3map9make_hash17h8b5005058d8ea193E:
	.cfi_startproc
	pushq	%rbp
	.cfi_def_cfa_offset 16
	.cfi_offset %rbp, -16
	movq	%rsp, %rbp
	.cfi_def_cfa_register %rbp
	pushq	%rbx
	subq	$88, %rsp
	.cfi_offset %rbx, -24
	vmovq	%rsi, %xmm0
	vmovq	%rdi, %xmm1
	vpunpcklqdq	%xmm0, %xmm1, %xmm0
	vpermq	$80, %ymm0, %ymm0
	vpxor	LCPI134_0(%rip), %ymm0, %ymm0
	movq	%rdi, -88(%rbp)
	movq	%rsi, -80(%rbp)
	movq	$0, -72(%rbp)
	vmovdqu	%ymm0, -64(%rbp)
	vpxor	%xmm0, %xmm0, %xmm0
	vmovdqu	%xmm0, -32(%rbp)
	movq	(%rdx), %rsi
	movq	16(%rdx), %rdx
	leaq	-88(%rbp), %rbx
	movq	%rbx, %rdi
	vzeroupper
	callq	__ZN81_$LT$std..collections..hash..map..DefaultHasher$u20$as$u20$core..hash..Hasher$GT$5write17h224b0f9eadf6f830E
	movb	$-1, -9(%rbp)
	leaq	-9(%rbp), %rsi
	movl	$1, %edx
	movq	%rbx, %rdi
	callq	__ZN81_$LT$std..collections..hash..map..DefaultHasher$u20$as$u20$core..hash..Hasher$GT$5write17h224b0f9eadf6f830E
	movq	-72(%rbp), %rax
	movq	-48(%rbp), %rcx
	shlq	$56, %rax
	orq	-32(%rbp), %rax
	movq	-40(%rbp), %rdx
	xorq	%rax, %rdx
	rorxq	$51, %rcx, %rsi
	addq	-64(%rbp), %rcx
	xorq	%rcx, %rsi
	rorxq	$32, %rcx, %rcx
	rorxq	$48, %rdx, %rdi
	addq	-56(%rbp), %rdx
	xorq	%rdx, %rdi
	addq	%rdi, %rcx
	rorxq	$43, %rdi, %rdi
	xorq	%rcx, %rdi
	addq	%rsi, %rdx
	rorxq	$47, %rsi, %rsi
	xorq	%rdx, %rsi
	rorxq	$32, %rdx, %rdx
	xorq	%rax, %rcx
	xorq	$255, %rdx
	addq	%rsi, %rcx
	rorxq	$51, %rsi, %rax
	xorq	%rcx, %rax
	rorxq	$32, %rcx, %rcx
	addq	%rdi, %rdx
	rorxq	$48, %rdi, %rsi
	xorq	%rdx, %rsi
	addq	%rsi, %rcx
	rorxq	$43, %rsi, %rsi
	xorq	%rcx, %rsi
	addq	%rax, %rdx
	rorxq	$47, %rax, %rax
	xorq	%rdx, %rax
	rorxq	$32, %rdx, %rdx
	addq	%rax, %rcx
	rorxq	$51, %rax, %rax
	xorq	%rcx, %rax
	rorxq	$32, %rcx, %rcx
	addq	%rsi, %rdx
	rorxq	$48, %rsi, %rsi
	xorq	%rdx, %rsi
	addq	%rsi, %rcx
	rorxq	$43, %rsi, %rsi
	xorq	%rcx, %rsi
	addq	%rax, %rdx
	rorxq	$47, %rax, %rdi
	xorq	%rdx, %rdi
	rorxq	$32, %rdx, %rax
	addq	%rdi, %rcx
	rorxq	$51, %rdi, %rdx
	xorq	%rcx, %rdx
	addq	%rsi, %rax
	rorxq	$48, %rsi, %rcx
	xorq	%rax, %rcx
	rorxq	$43, %rcx, %rcx
	addq	%rdx, %rax
	rorxq	$47, %rdx, %rdx
	rorxq	$32, %rax, %rsi
	xorq	%rcx, %rax
	xorq	%rdx, %rax
	xorq	%rsi, %rax
	addq	$88, %rsp
	popq	%rbx
	popq	%rbp
	retq
	.cfi_endproc

	.section	__TEXT,__literal16,16byte_literals
	.p2align	4
LCPI135_0:
	.space	16,128
	.section	__TEXT,__text,regular,pure_instructions
	.p2align	4, 0x90
__ZN9hashbrown3raw17RawTable$LT$T$GT$14reserve_rehash17hb75c291d78f89e04E:
Lfunc_begin29:
	.cfi_startproc
	.cfi_personality 155, _rust_eh_personality
	.cfi_lsda 16, Lexception29
	pushq	%rbp
	.cfi_def_cfa_offset 16
	.cfi_offset %rbp, -16
	movq	%rsp, %rbp
	.cfi_def_cfa_register %rbp
	pushq	%r15
	pushq	%r14
	pushq	%r13
	pushq	%r12
	pushq	%rbx
	andq	$-32, %rsp
	subq	$160, %rsp
	.cfi_offset %rbx, -56
	.cfi_offset %r12, -48
	.cfi_offset %r13, -40
	.cfi_offset %r14, -32
	.cfi_offset %r15, -24
	movq	%rdi, %r15
	movq	32(%rsi), %rbx
	incq	%rbx
	jne	LBB135_1
LBB135_11:
	movl	$1, %edi
	callq	__ZN9hashbrown3raw11Fallibility17capacity_overflow17h8f3aa951a6447f31E
LBB135_12:
	movq	%rax, 8(%r15)
	movq	%rdx, 16(%r15)
	movq	$1, (%r15)
	jmp	LBB135_55
LBB135_1:
	movq	%rdx, %r12
	movq	%rsi, %r14
	movq	(%rsi), %rdi
	callq	__ZN9hashbrown3raw23bucket_mask_to_capacity17h4bf1081b6c8626a8E
	movq	%rax, %rcx
	shrq	%rcx
	cmpq	%rcx, %rbx
	movq	%r14, 32(%rsp)
	jbe	LBB135_30
	incq	%rax
	cmpq	%rax, %rbx
	cmovaq	%rbx, %rax
	testq	%rax, %rax
	je	LBB135_13
	movq	%rax, %rdi
	callq	__ZN9hashbrown3raw19capacity_to_buckets17h7a609a552b1b4f5fE
	testq	%rax, %rax
	je	LBB135_11
	movq	%rdx, %r13
	movl	$32, %ecx
	xorl	%esi, %esi
	movq	%rdx, %rax
	mulq	%rcx
	setno	%cl
	jo	LBB135_11
	movb	%cl, %sil
	shlq	$3, %rsi
	leaq	16(%r13), %rdx
	leaq	(%rsi,%r13), %rcx
	addq	$15, %rcx
	negq	%rsi
	andq	%rcx, %rsi
	subq	%rdx, %rsi
	addq	%rdx, %rsi
	jb	LBB135_11
	addq	%rsi, %rax
	jb	LBB135_11
	cmpq	$-16, %rax
	ja	LBB135_11
	movq	%rdx, 48(%rsp)
	movq	%rsi, 56(%rsp)
	movl	$16, %esi
	movq	%rax, %r14
	movq	%rax, %rdi
	callq	___rust_alloc
	testq	%rax, %rax
	je	LBB135_9
	movq	%rax, %rbx
	movq	%r12, 24(%rsp)
	movq	%r15, 40(%rsp)
	decq	%r13
	movq	%r13, %rdi
	callq	__ZN9hashbrown3raw23bucket_mask_to_capacity17h4bf1081b6c8626a8E
	movq	%rax, 64(%rsp)
	movq	56(%rsp), %r14
	addq	%rbx, %r14
	movq	%rbx, %rdi
	movl	$255, %esi
	movq	48(%rsp), %rdx
	callq	_memset
	movq	%r14, %rdx
	jmp	LBB135_14
LBB135_30:
	movq	(%r14), %rax
	incq	%rax
	xorl	%ecx, %ecx
	vpxor	%xmm0, %xmm0, %xmm0
	vmovdqa	LCPI135_0(%rip), %xmm1
	xorl	%esi, %esi
	movq	%r14, %rbx
	testb	$1, %sil
	jne	LBB135_34
	jmp	LBB135_32
	.p2align	4, 0x90
LBB135_36:
	movq	8(%rbx), %rsi
	vpcmpgtb	(%rsi,%rcx), %xmm0, %xmm2
	vpor	%xmm1, %xmm2, %xmm2
	vmovdqa	%xmm2, (%rsi,%rcx)
	movb	$1, %sil
	movq	%rdx, %rcx
	testb	$1, %sil
	je	LBB135_32
LBB135_34:
	leaq	15(%rcx), %rdx
	incq	%rdx
	movq	%rcx, %rsi
	addq	$15, %rsi
	cmovbq	%rax, %rdx
	cmpq	%rax, %rsi
	cmovaeq	%rax, %rdx
	addq	$15, %rcx
	jb	LBB135_37
	cmpq	%rax, %rcx
	jb	LBB135_36
	jmp	LBB135_37
	.p2align	4, 0x90
LBB135_32:
	cmpq	%rax, %rcx
	jae	LBB135_37
	leaq	1(%rcx), %rdx
	jmp	LBB135_36
LBB135_37:
	movq	(%rbx), %rdx
	movq	8(%rbx), %rsi
	incq	%rdx
	cmpq	$15, %rdx
	ja	LBB135_39
	leaq	16(%rsi), %rdi
	callq	_memmove
	jmp	LBB135_40
LBB135_39:
	vmovdqu	(%rsi), %xmm0
	vmovdqu	%xmm0, (%rsi,%rdx)
LBB135_40:
	movq	%rbx, 88(%rsp)
	movq	(%rbx), %r14
	movq	$-1, %rdi
	incq	%r14
	je	LBB135_53
	movq	%r15, 40(%rsp)
	movq	(%r12), %rax
	movq	%rax, 24(%rsp)
	xorl	%r15d, %r15d
	jmp	LBB135_42
	.p2align	4, 0x90
LBB135_43:
	movq	%r13, %r12
	shlq	$5, %r12
	addq	16(%rbx), %r12
	movq	24(%rsp), %rax
	movq	(%rax), %rdi
	movq	8(%rax), %rsi
	movq	%r12, %rdx
	vzeroupper
	callq	__ZN9hashbrown3map9make_hash17h8b5005058d8ea193E
	movq	(%rbx), %rsi
	movq	8(%rbx), %r8
	movq	%rax, %rcx
	xorl	%edi, %edi
	.p2align	4, 0x90
LBB135_44:
	movq	%rcx, %rbx
	andq	%rsi, %rbx
	leaq	(%rdi,%rbx), %rcx
	addq	$16, %rcx
	addq	$16, %rdi
	vmovdqu	(%r8,%rbx), %xmm0
	vpmovmskb	%xmm0, %edx
	testw	%dx, %dx
	je	LBB135_44
	tzcntw	%dx, %dx
	movzwl	%dx, %edx
	addq	%rdx, %rbx
	andq	%rsi, %rbx
	cmpb	$0, (%r8,%rbx)
	jns	LBB135_46
LBB135_47:
	movq	%rsi, %rdx
	andq	%rax, %rdx
	movq	%r13, %rdi
	subq	%rdx, %rdi
	movq	%rbx, %rcx
	subq	%rdx, %rcx
	xorq	%rdi, %rcx
	andq	%rsi, %rcx
	cmpq	$15, %rcx
	jbe	LBB135_48
	movb	(%r8,%rbx), %cl
	shrq	$57, %rax
	leaq	-16(%rbx), %rdx
	andq	%rsi, %rdx
	movb	%al, (%r8,%rbx)
	movb	%al, 16(%rdx,%r8)
	cmpb	$-1, %cl
	je	LBB135_50
	movq	32(%rsp), %rcx
	movq	16(%rcx), %rax
	shlq	$5, %rbx
	vmovdqu	(%rax,%rbx), %ymm0
	vmovdqu	(%r12), %ymm1
	vmovdqu	%ymm1, (%rax,%rbx)
	movq	%rcx, %rbx
	vmovdqu	%ymm0, (%r12)
	jmp	LBB135_43
LBB135_46:
	vmovdqa	(%r8), %xmm0
	vpmovmskb	%xmm0, %ecx
	tzcntw	%cx, %cx
	movzwl	%cx, %ebx
	jmp	LBB135_47
	.p2align	4, 0x90
LBB135_48:
	shrq	$57, %rax
	leaq	-16(%r13), %rcx
	andq	%rcx, %rsi
	movb	%al, (%r8,%r13)
	movb	%al, 16(%rsi,%r8)
	movq	32(%rsp), %rbx
LBB135_51:
	cmpq	%r14, %r15
	je	LBB135_52
LBB135_42:
	movq	%r15, %r13
	incq	%r15
	movq	8(%rbx), %rax
	cmpb	$-128, (%rax,%r13)
	je	LBB135_43
	jmp	LBB135_51
LBB135_50:
	leaq	-16(%r13), %rax
	movq	32(%rsp), %rdx
	andq	(%rdx), %rax
	movq	8(%rdx), %rcx
	movb	$-1, (%rcx,%r13)
	movb	$-1, 16(%rax,%rcx)
	movq	16(%rdx), %rax
	shlq	$5, %rbx
	vmovdqu	(%r12), %ymm0
	vmovdqu	%ymm0, (%rax,%rbx)
	movq	%rdx, %rbx
	cmpq	%r14, %r15
	jne	LBB135_42
LBB135_52:
	movq	(%rbx), %rdi
	movq	40(%rsp), %r15
LBB135_53:
Ltmp291:
	vzeroupper
	callq	__ZN9hashbrown3raw23bucket_mask_to_capacity17h4bf1081b6c8626a8E
Ltmp292:
	subq	32(%rbx), %rax
	movq	%rax, 24(%rbx)
	movq	$0, (%r15)
LBB135_55:
	leaq	-40(%rbp), %rsp
	popq	%rbx
	popq	%r12
	popq	%r13
	popq	%r14
	popq	%r15
	popq	%rbp
	vzeroupper
	retq
LBB135_13:
	movq	%r12, 24(%rsp)
	movq	%r15, 40(%rsp)
	callq	__ZN9hashbrown3raw4sse25Group12static_empty17hda1daec376d651fbE
	movq	%rax, %rbx
	movl	$8, %edx
	xorl	%eax, %eax
	movq	%rax, 64(%rsp)
	xorl	%r13d, %r13d
LBB135_14:
	movq	32(%rsp), %rcx
	movq	32(%rcx), %rax
	movq	%rax, 72(%rsp)
	vmovq	%rbx, %xmm0
	vmovq	%r13, %xmm1
	vpunpcklqdq	%xmm0, %xmm1, %xmm0
	vmovdqa	%ymm0, 96(%rsp)
	movq	16(%rcx), %r14
	movq	(%rcx), %rax
	movq	8(%rcx), %r15
	leaq	1(%rax,%r15), %rcx
	vmovdqa	(%r15), %xmm0
	vpmovmskb	%xmm0, %r12d
	notl	%r12d
	addq	$16, %r15
	movq	24(%rsp), %rax
	movq	(%rax), %rax
	movq	%rax, 80(%rsp)
	movq	%rdx, 56(%rsp)
	movq	%rcx, 48(%rsp)
	testw	%r12w, %r12w
	jne	LBB135_19
	.p2align	4, 0x90
LBB135_16:
	cmpq	%rcx, %r15
	jae	LBB135_24
	vmovdqa	(%r15), %xmm0
	vpmovmskb	%xmm0, %r12d
	addq	$512, %r14
	addq	$16, %r15
	cmpw	$-1, %r12w
	je	LBB135_16
	notl	%r12d
LBB135_19:
	tzcntw	%r12w, %ax
	movzwl	%ax, %edx
	shlq	$5, %rdx
	addq	%r14, %rdx
	movq	80(%rsp), %rax
	movq	(%rax), %rdi
	movq	8(%rax), %rsi
	movq	%rdx, 24(%rsp)
	vzeroupper
	callq	__ZN9hashbrown3map9make_hash17h8b5005058d8ea193E
	movq	%rax, %rsi
	xorl	%edx, %edx
	.p2align	4, 0x90
LBB135_20:
	movq	%rsi, %rcx
	andq	%r13, %rcx
	leaq	(%rdx,%rcx), %rsi
	addq	$16, %rsi
	addq	$16, %rdx
	vmovdqu	(%rbx,%rcx), %xmm0
	vpmovmskb	%xmm0, %edi
	testw	%di, %di
	je	LBB135_20
	blsrl	%r12d, %r12d
	tzcntw	%di, %dx
	movzwl	%dx, %edx
	addq	%rdx, %rcx
	andq	%r13, %rcx
	cmpb	$0, (%rbx,%rcx)
	jns	LBB135_22
LBB135_23:
	shrq	$57, %rax
	leaq	-16(%rcx), %rdx
	andq	%r13, %rdx
	movb	%al, (%rbx,%rcx)
	movb	%al, 16(%rdx,%rbx)
	shlq	$5, %rcx
	movq	24(%rsp), %rax
	vmovdqu	(%rax), %ymm0
	movq	56(%rsp), %rdx
	vmovdqu	%ymm0, (%rdx,%rcx)
	movq	48(%rsp), %rcx
	testw	%r12w, %r12w
	jne	LBB135_19
	jmp	LBB135_16
LBB135_22:
	vmovdqa	(%rbx), %xmm0
	vpmovmskb	%xmm0, %ecx
	tzcntw	%cx, %cx
	movzwl	%cx, %ecx
	jmp	LBB135_23
LBB135_24:
	vpinsrq	$0, %rdx, %xmm0, %xmm0
	movq	64(%rsp), %rax
	movq	72(%rsp), %rdx
	subq	%rdx, %rax
	vpinsrq	$1, %rax, %xmm0, %xmm0
	vmovdqa	96(%rsp), %ymm1
	vinserti128	$1, %xmm0, %ymm1, %ymm1
	movq	32(%rsp), %rax
	vmovdqu	(%rax), %ymm0
	movq	(%rax), %rcx
	vmovdqu	%ymm1, (%rax)
	movq	%rdx, 32(%rax)
	movq	40(%rsp), %rax
	movq	$0, (%rax)
	testq	%rcx, %rcx
	je	LBB135_55
	leaq	1(%rcx), %rax
	movl	$32, %edx
	xorl	%esi, %esi
	mulq	%rdx
	setno	%dl
	jo	LBB135_26
	movb	%dl, %sil
	shlq	$3, %rsi
	leaq	(%rcx,%rsi), %rdx
	addq	$16, %rdx
	addq	$17, %rcx
	negq	%rsi
	andq	%rdx, %rsi
	subq	%rcx, %rsi
	addq	%rcx, %rsi
	jae	LBB135_28
LBB135_26:
	xorl	%edx, %edx
	jmp	LBB135_29
LBB135_28:
	leaq	(%rsi,%rax), %rcx
	xorl	%edi, %edi
	cmpq	$-15, %rcx
	setb	%dil
	shlq	$4, %rdi
	xorl	%edx, %edx
	addq	%rax, %rsi
	cmovaeq	%rdi, %rdx
LBB135_29:
	vpextrq	$1, %xmm0, %rdi
	leaq	-40(%rbp), %rsp
	popq	%rbx
	popq	%r12
	popq	%r13
	popq	%r14
	popq	%r15
	popq	%rbp
	vzeroupper
	jmp	___rust_dealloc
LBB135_9:
	movl	$16, %edx
	movl	$1, %edi
	movq	%r14, %rsi
	callq	__ZN9hashbrown3raw11Fallibility9alloc_err17hb2e24aa790922b9fE
	jmp	LBB135_12
LBB135_57:
Ltmp293:
	movq	%rax, %rbx
	leaq	88(%rsp), %rdi
	callq	__ZN4core3ptr13drop_in_place17h55f97eec8f7fc00bE
	movq	%rbx, %rdi
	callq	__Unwind_Resume
	ud2
Lfunc_end29:
	.cfi_endproc
	.section	__TEXT,__gcc_except_tab
	.p2align	2
GCC_except_table135:
Lexception29:
	.byte	255
	.byte	255
	.byte	1
	.uleb128 Lcst_end29-Lcst_begin29
Lcst_begin29:
	.uleb128 Lfunc_begin29-Lfunc_begin29
	.uleb128 Ltmp291-Lfunc_begin29
	.byte	0
	.byte	0
	.uleb128 Ltmp291-Lfunc_begin29
	.uleb128 Ltmp292-Ltmp291
	.uleb128 Ltmp293-Lfunc_begin29
	.byte	0
	.uleb128 Ltmp292-Lfunc_begin29
	.uleb128 Lfunc_end29-Ltmp292
	.byte	0
	.byte	0
Lcst_end29:
	.p2align	2

	.section	__TEXT,__literal16,16byte_literals
	.p2align	4
LCPI136_0:
	.space	16,128
	.section	__TEXT,__text,regular,pure_instructions
	.p2align	4, 0x90
__ZN9hashbrown3raw17RawTable$LT$T$GT$14reserve_rehash17hece6d998e1d6b001E:
Lfunc_begin30:
	.cfi_startproc
	.cfi_personality 155, _rust_eh_personality
	.cfi_lsda 16, Lexception30
	pushq	%rbp
	.cfi_def_cfa_offset 16
	.cfi_offset %rbp, -16
	movq	%rsp, %rbp
	.cfi_def_cfa_register %rbp
	pushq	%r15
	pushq	%r14
	pushq	%r13
	pushq	%r12
	pushq	%rbx
	andq	$-32, %rsp
	subq	$192, %rsp
	.cfi_offset %rbx, -56
	.cfi_offset %r12, -48
	.cfi_offset %r13, -40
	.cfi_offset %r14, -32
	.cfi_offset %r15, -24
	movq	%rdi, %r14
	movq	32(%rsi), %rbx
	incq	%rbx
	jne	LBB136_1
LBB136_11:
	movl	$1, %edi
	callq	__ZN9hashbrown3raw11Fallibility17capacity_overflow17h8f3aa951a6447f31E
LBB136_12:
	movq	%rax, 8(%r14)
	movq	%rdx, 16(%r14)
	movq	$1, (%r14)
	jmp	LBB136_56
LBB136_1:
	movq	%rdx, %r12
	movq	%rsi, %r15
	movq	(%rsi), %rdi
	callq	__ZN9hashbrown3raw23bucket_mask_to_capacity17h4bf1081b6c8626a8E
	movq	%rax, %rcx
	shrq	%rcx
	cmpq	%rcx, %rbx
	movq	%r15, 56(%rsp)
	jbe	LBB136_30
	incq	%rax
	cmpq	%rax, %rbx
	cmovaq	%rbx, %rax
	testq	%rax, %rax
	je	LBB136_13
	movq	%rax, %rdi
	callq	__ZN9hashbrown3raw19capacity_to_buckets17h7a609a552b1b4f5fE
	testq	%rax, %rax
	je	LBB136_11
	movq	%rdx, %r13
	movl	$48, %ecx
	xorl	%esi, %esi
	movq	%rdx, %rax
	mulq	%rcx
	setno	%cl
	jo	LBB136_11
	movb	%cl, %sil
	shlq	$3, %rsi
	leaq	16(%r13), %rdx
	leaq	(%rsi,%r13), %rcx
	addq	$15, %rcx
	negq	%rsi
	andq	%rcx, %rsi
	subq	%rdx, %rsi
	addq	%rdx, %rsi
	jb	LBB136_11
	addq	%rsi, %rax
	jb	LBB136_11
	cmpq	$-16, %rax
	ja	LBB136_11
	movq	%rdx, 32(%rsp)
	movq	%rsi, 40(%rsp)
	movl	$16, %esi
	movq	%rax, %rdi
	movq	%rax, 24(%rsp)
	callq	___rust_alloc
	testq	%rax, %rax
	je	LBB136_9
	movq	%rax, %rbx
	movq	%r12, 24(%rsp)
	movq	%r14, 48(%rsp)
	decq	%r13
	movq	%r13, %rdi
	callq	__ZN9hashbrown3raw23bucket_mask_to_capacity17h4bf1081b6c8626a8E
	movq	%rax, 64(%rsp)
	movq	40(%rsp), %r14
	addq	%rbx, %r14
	movq	%rbx, %rdi
	movl	$255, %esi
	movq	32(%rsp), %rdx
	callq	_memset
	movq	%r14, %rcx
	jmp	LBB136_14
LBB136_30:
	movq	(%r15), %rax
	incq	%rax
	xorl	%ecx, %ecx
	vpxor	%xmm0, %xmm0, %xmm0
	vmovdqa	LCPI136_0(%rip), %xmm1
	xorl	%esi, %esi
	testb	$1, %sil
	jne	LBB136_34
	jmp	LBB136_32
	.p2align	4, 0x90
LBB136_36:
	movq	8(%r15), %rsi
	vpcmpgtb	(%rsi,%rcx), %xmm0, %xmm2
	vpor	%xmm1, %xmm2, %xmm2
	vmovdqa	%xmm2, (%rsi,%rcx)
	movb	$1, %sil
	movq	%rdx, %rcx
	testb	$1, %sil
	je	LBB136_32
LBB136_34:
	leaq	15(%rcx), %rdx
	incq	%rdx
	movq	%rcx, %rsi
	addq	$15, %rsi
	cmovbq	%rax, %rdx
	cmpq	%rax, %rsi
	cmovaeq	%rax, %rdx
	addq	$15, %rcx
	jb	LBB136_37
	cmpq	%rax, %rcx
	jb	LBB136_36
	jmp	LBB136_37
	.p2align	4, 0x90
LBB136_32:
	cmpq	%rax, %rcx
	jae	LBB136_37
	leaq	1(%rcx), %rdx
	jmp	LBB136_36
LBB136_37:
	movq	(%r15), %rdx
	movq	8(%r15), %rsi
	incq	%rdx
	cmpq	$15, %rdx
	ja	LBB136_39
	leaq	16(%rsi), %rdi
	callq	_memmove
	jmp	LBB136_40
LBB136_39:
	vmovdqu	(%rsi), %xmm0
	vmovdqu	%xmm0, (%rsi,%rdx)
LBB136_40:
	movq	%r15, 88(%rsp)
	movq	(%r15), %rcx
	movq	$-1, %rdi
	incq	%rcx
	je	LBB136_54
	movq	%r14, 48(%rsp)
	movq	(%r12), %rax
	movq	%rax, 24(%rsp)
	xorl	%r13d, %r13d
	movq	%rcx, 40(%rsp)
	jmp	LBB136_42
	.p2align	4, 0x90
LBB136_43:
	movq	%r15, %rbx
	movq	16(%r15), %r15
	leaq	(%r12,%r12,2), %r14
	shlq	$4, %r14
	leaq	(%r15,%r14), %rdx
	movq	24(%rsp), %rax
	movq	(%rax), %rdi
	movq	8(%rax), %rsi
	movq	%rdx, 32(%rsp)
	vzeroupper
	callq	__ZN9hashbrown3map9make_hash17h8b5005058d8ea193E
	movq	(%rbx), %rdx
	movq	8(%rbx), %r8
	movq	%rax, %rsi
	xorl	%edi, %edi
	.p2align	4, 0x90
LBB136_44:
	movq	%rsi, %rbx
	andq	%rdx, %rbx
	leaq	(%rdi,%rbx), %rsi
	addq	$16, %rsi
	addq	$16, %rdi
	vmovdqu	(%r8,%rbx), %xmm0
	vpmovmskb	%xmm0, %ecx
	testw	%cx, %cx
	je	LBB136_44
	tzcntw	%cx, %cx
	movzwl	%cx, %ecx
	addq	%rcx, %rbx
	andq	%rdx, %rbx
	cmpb	$0, (%r8,%rbx)
	jns	LBB136_46
LBB136_47:
	movq	%rdx, %rcx
	andq	%rax, %rcx
	movq	%r12, %rdi
	subq	%rcx, %rdi
	movq	%rbx, %rsi
	subq	%rcx, %rsi
	xorq	%rdi, %rsi
	andq	%rdx, %rsi
	cmpq	$15, %rsi
	jbe	LBB136_48
	movb	(%r8,%rbx), %cl
	shrq	$57, %rax
	leaq	-16(%rbx), %rsi
	andq	%rdx, %rsi
	movb	%al, (%r8,%rbx)
	movb	%al, 16(%rsi,%r8)
	cmpb	$-1, %cl
	je	LBB136_50
	movq	56(%rsp), %rdx
	movq	16(%rdx), %rax
	leaq	(%rbx,%rbx,2), %rcx
	shlq	$4, %rcx
	vmovups	(%rax,%rcx), %ymm0
	movq	32(%rsp), %rsi
	vmovdqu	(%rsi), %ymm1
	vmovdqu	%ymm1, (%rax,%rcx)
	vmovups	%ymm0, (%rsi)
	vmovups	32(%rax,%rcx), %xmm0
	vmovaps	%xmm0, 128(%rsp)
	vmovups	32(%r15,%r14), %xmm0
	vmovups	%xmm0, 32(%rax,%rcx)
	vmovdqa	128(%rsp), %xmm0
	vmovdqu	%xmm0, 32(%r15,%r14)
	movq	%rdx, %r15
	jmp	LBB136_43
LBB136_46:
	vmovdqa	(%r8), %xmm0
	vpmovmskb	%xmm0, %ecx
	tzcntw	%cx, %cx
	movzwl	%cx, %ebx
	jmp	LBB136_47
	.p2align	4, 0x90
LBB136_48:
	shrq	$57, %rax
	leaq	-16(%r12), %rcx
	andq	%rcx, %rdx
	movb	%al, (%r8,%r12)
	movb	%al, 16(%rdx,%r8)
	movq	56(%rsp), %r15
LBB136_51:
	movq	40(%rsp), %rcx
LBB136_52:
	cmpq	%rcx, %r13
	je	LBB136_53
LBB136_42:
	movq	%r13, %r12
	incq	%r13
	movq	8(%r15), %rax
	cmpb	$-128, (%rax,%r12)
	je	LBB136_43
	jmp	LBB136_52
LBB136_50:
	leaq	-16(%r12), %rax
	movq	56(%rsp), %r15
	andq	(%r15), %rax
	movq	8(%r15), %rcx
	movb	$-1, (%rcx,%r12)
	movb	$-1, 16(%rax,%rcx)
	movq	16(%r15), %rax
	leaq	(%rbx,%rbx,2), %rcx
	shlq	$4, %rcx
	movq	32(%rsp), %rdx
	vmovdqu	(%rdx), %ymm0
	vmovdqu	16(%rdx), %ymm1
	vmovdqu	%ymm1, 16(%rax,%rcx)
	vmovdqu	%ymm0, (%rax,%rcx)
	jmp	LBB136_51
LBB136_53:
	movq	(%r15), %rdi
	movq	48(%rsp), %r14
LBB136_54:
Ltmp294:
	vzeroupper
	callq	__ZN9hashbrown3raw23bucket_mask_to_capacity17h4bf1081b6c8626a8E
Ltmp295:
	subq	32(%r15), %rax
	movq	%rax, 24(%r15)
	movq	$0, (%r14)
LBB136_56:
	leaq	-40(%rbp), %rsp
	popq	%rbx
	popq	%r12
	popq	%r13
	popq	%r14
	popq	%r15
	popq	%rbp
	vzeroupper
	retq
LBB136_13:
	movq	%r12, 24(%rsp)
	movq	%r14, 48(%rsp)
	callq	__ZN9hashbrown3raw4sse25Group12static_empty17hda1daec376d651fbE
	movq	%rax, %rbx
	movl	$8, %ecx
	xorl	%eax, %eax
	movq	%rax, 64(%rsp)
	xorl	%r13d, %r13d
LBB136_14:
	movq	32(%r15), %rax
	movq	%rax, 72(%rsp)
	vmovq	%rbx, %xmm0
	vmovq	%r13, %xmm1
	vpunpcklqdq	%xmm0, %xmm1, %xmm0
	vmovdqa	%ymm0, 96(%rsp)
	movq	16(%r15), %r14
	movq	(%r15), %rax
	movq	8(%r15), %r15
	leaq	1(%rax,%r15), %rdx
	vmovdqa	(%r15), %xmm0
	vpmovmskb	%xmm0, %r12d
	notl	%r12d
	addq	$16, %r15
	movq	24(%rsp), %rax
	movq	(%rax), %rax
	movq	%rax, 80(%rsp)
	movq	%rcx, 40(%rsp)
	movq	%rdx, 32(%rsp)
	testw	%r12w, %r12w
	jne	LBB136_19
	.p2align	4, 0x90
LBB136_16:
	cmpq	%rdx, %r15
	jae	LBB136_24
	vmovdqa	(%r15), %xmm0
	vpmovmskb	%xmm0, %r12d
	addq	$768, %r14
	addq	$16, %r15
	cmpw	$-1, %r12w
	je	LBB136_16
	notl	%r12d
LBB136_19:
	tzcntw	%r12w, %ax
	movzwl	%ax, %eax
	leaq	(%rax,%rax,2), %rdx
	shlq	$4, %rdx
	addq	%r14, %rdx
	movq	80(%rsp), %rax
	movq	(%rax), %rdi
	movq	8(%rax), %rsi
	movq	%rdx, 24(%rsp)
	vzeroupper
	callq	__ZN9hashbrown3map9make_hash17h8b5005058d8ea193E
	movq	%rax, %rsi
	xorl	%edx, %edx
	.p2align	4, 0x90
LBB136_20:
	movq	%rsi, %rcx
	andq	%r13, %rcx
	leaq	(%rdx,%rcx), %rsi
	addq	$16, %rsi
	addq	$16, %rdx
	vmovdqu	(%rbx,%rcx), %xmm0
	vpmovmskb	%xmm0, %edi
	testw	%di, %di
	je	LBB136_20
	blsrl	%r12d, %r12d
	tzcntw	%di, %dx
	movzwl	%dx, %edx
	addq	%rdx, %rcx
	andq	%r13, %rcx
	cmpb	$0, (%rbx,%rcx)
	jns	LBB136_22
LBB136_23:
	shrq	$57, %rax
	leaq	-16(%rcx), %rdx
	andq	%r13, %rdx
	movb	%al, (%rbx,%rcx)
	movb	%al, 16(%rdx,%rbx)
	leaq	(%rcx,%rcx,2), %rax
	shlq	$4, %rax
	movq	24(%rsp), %rcx
	vmovdqu	(%rcx), %ymm0
	vmovdqu	16(%rcx), %ymm1
	movq	40(%rsp), %rcx
	vmovdqu	%ymm1, 16(%rcx,%rax)
	vmovdqu	%ymm0, (%rcx,%rax)
	movq	32(%rsp), %rdx
	testw	%r12w, %r12w
	jne	LBB136_19
	jmp	LBB136_16
LBB136_22:
	vmovdqa	(%rbx), %xmm0
	vpmovmskb	%xmm0, %ecx
	tzcntw	%cx, %cx
	movzwl	%cx, %ecx
	jmp	LBB136_23
LBB136_24:
	vpinsrq	$0, %rcx, %xmm0, %xmm0
	movq	64(%rsp), %rax
	movq	72(%rsp), %rdx
	subq	%rdx, %rax
	vpinsrq	$1, %rax, %xmm0, %xmm0
	vmovdqa	96(%rsp), %ymm1
	vinserti128	$1, %xmm0, %ymm1, %ymm1
	movq	56(%rsp), %rax
	vmovdqu	(%rax), %ymm0
	movq	(%rax), %rcx
	vmovdqu	%ymm1, (%rax)
	movq	%rdx, 32(%rax)
	movq	48(%rsp), %rax
	movq	$0, (%rax)
	testq	%rcx, %rcx
	je	LBB136_56
	leaq	1(%rcx), %rax
	movl	$48, %edx
	xorl	%esi, %esi
	mulq	%rdx
	setno	%dl
	jo	LBB136_26
	movb	%dl, %sil
	shlq	$3, %rsi
	leaq	(%rcx,%rsi), %rdx
	addq	$16, %rdx
	addq	$17, %rcx
	negq	%rsi
	andq	%rdx, %rsi
	subq	%rcx, %rsi
	addq	%rcx, %rsi
	jae	LBB136_28
LBB136_26:
	xorl	%edx, %edx
	jmp	LBB136_29
LBB136_28:
	leaq	(%rsi,%rax), %rcx
	xorl	%edi, %edi
	cmpq	$-15, %rcx
	setb	%dil
	shlq	$4, %rdi
	xorl	%edx, %edx
	addq	%rax, %rsi
	cmovaeq	%rdi, %rdx
LBB136_29:
	vpextrq	$1, %xmm0, %rdi
	leaq	-40(%rbp), %rsp
	popq	%rbx
	popq	%r12
	popq	%r13
	popq	%r14
	popq	%r15
	popq	%rbp
	vzeroupper
	jmp	___rust_dealloc
LBB136_9:
	movl	$16, %edx
	movl	$1, %edi
	movq	24(%rsp), %rsi
	callq	__ZN9hashbrown3raw11Fallibility9alloc_err17hb2e24aa790922b9fE
	jmp	LBB136_12
LBB136_58:
Ltmp296:
	movq	%rax, %rbx
	leaq	88(%rsp), %rdi
	callq	__ZN4core3ptr13drop_in_place17h301939babae46f3cE
	movq	%rbx, %rdi
	callq	__Unwind_Resume
	ud2
Lfunc_end30:
	.cfi_endproc
	.section	__TEXT,__gcc_except_tab
	.p2align	2
GCC_except_table136:
Lexception30:
	.byte	255
	.byte	255
	.byte	1
	.uleb128 Lcst_end30-Lcst_begin30
Lcst_begin30:
	.uleb128 Lfunc_begin30-Lfunc_begin30
	.uleb128 Ltmp294-Lfunc_begin30
	.byte	0
	.byte	0
	.uleb128 Ltmp294-Lfunc_begin30
	.uleb128 Ltmp295-Ltmp294
	.uleb128 Ltmp296-Lfunc_begin30
	.byte	0
	.uleb128 Ltmp295-Lfunc_begin30
	.uleb128 Lfunc_end30-Ltmp295
	.byte	0
	.byte	0
Lcst_end30:
	.p2align	2

	.section	__TEXT,__text,regular,pure_instructions
	.globl	__ZN2cc16windows_registry4find17h61aab8cd4152ddb3E
	.p2align	4, 0x90
__ZN2cc16windows_registry4find17h61aab8cd4152ddb3E:
	.cfi_startproc
	pushq	%rbp
	.cfi_def_cfa_offset 16
	.cfi_offset %rbp, -16
	movq	%rsp, %rbp
	.cfi_def_cfa_register %rbp
	movq	%rdi, %rax
	movl	$2, 136(%rdi)
	popq	%rbp
	retq
	.cfi_endproc

	.globl	__ZN2cc16windows_registry9find_tool17h086a81fef55a9477E
	.p2align	4, 0x90
__ZN2cc16windows_registry9find_tool17h086a81fef55a9477E:
	.cfi_startproc
	pushq	%rbp
	.cfi_def_cfa_offset 16
	.cfi_offset %rbp, -16
	movq	%rsp, %rbp
	.cfi_def_cfa_register %rbp
	movq	%rdi, %rax
	movb	$2, 145(%rdi)
	popq	%rbp
	retq
	.cfi_endproc

	.globl	__ZN2cc16windows_registry15find_vs_version17h8b1011c036bad298E
	.p2align	4, 0x90
__ZN2cc16windows_registry15find_vs_version17h8b1011c036bad298E:
	.cfi_startproc
	pushq	%rbp
	.cfi_def_cfa_offset 16
	.cfi_offset %rbp, -16
	movq	%rsp, %rbp
	.cfi_def_cfa_register %rbp
	pushq	%rbx
	subq	$72, %rsp
	.cfi_offset %rbx, -24
	movq	%rdi, %rbx
	leaq	l___unnamed_48(%rip), %rax
	movq	%rax, -80(%rbp)
	movq	$1, -72(%rbp)
	movq	$0, -64(%rbp)
	leaq	l___unnamed_4(%rip), %rax
	movq	%rax, -48(%rbp)
	movq	$0, -40(%rbp)
	leaq	-32(%rbp), %rdi
	leaq	-80(%rbp), %rsi
	callq	__ZN5alloc3fmt6format17hef4b691705b449e4E
	movq	-16(%rbp), %rax
	movq	%rax, 24(%rbx)
	vmovups	-32(%rbp), %xmm0
	vmovups	%xmm0, 8(%rbx)
	movb	$1, (%rbx)
	movq	%rbx, %rax
	addq	$72, %rsp
	popq	%rbx
	popq	%rbp
	retq
	.cfi_endproc

	.p2align	4, 0x90
__ZN2cc5Error3new17h450fa1f44522cb8bE:
	.cfi_startproc
	pushq	%rbp
	.cfi_def_cfa_offset 16
	.cfi_offset %rbp, -16
	movq	%rsp, %rbp
	.cfi_def_cfa_register %rbp
	pushq	%r15
	pushq	%r14
	pushq	%r13
	pushq	%r12
	pushq	%rbx
	subq	$24, %rsp
	.cfi_offset %rbx, -56
	.cfi_offset %r12, -48
	.cfi_offset %r13, -40
	.cfi_offset %r14, -32
	.cfi_offset %r15, -24
	movq	%rcx, %r15
	movl	%esi, %r12d
	movq	%rdi, %r14
	testq	%rcx, %rcx
	movq	%rdx, -56(%rbp)
	je	LBB140_1
	movl	$1, %esi
	movq	%r15, %rdi
	callq	___rust_alloc
	testq	%rax, %rax
	je	LBB140_14
	movq	%rax, %r13
	movq	%r15, %rbx
	movq	-56(%rbp), %rdx
	cmpq	%r15, %rbx
	jb	LBB140_5
	jmp	LBB140_13
LBB140_1:
	movl	$1, %r13d
	xorl	%ebx, %ebx
	cmpq	%r15, %rbx
	jae	LBB140_13
LBB140_5:
	movl	%r12d, -44(%rbp)
	leaq	(%rbx,%rbx), %r12
	cmpq	%r15, %r12
	cmovbeq	%r15, %r12
	testq	%rbx, %rbx
	je	LBB140_9
	testq	%r13, %r13
	je	LBB140_9
	cmpq	%r12, %rbx
	je	LBB140_12
	movl	$1, %edx
	movq	%r13, %rdi
	movq	%rbx, %rsi
	movq	%r12, %rcx
	callq	___rust_realloc
	movq	%rax, %r13
	testq	%rax, %rax
	movq	-56(%rbp), %rdx
	jne	LBB140_11
	jmp	LBB140_15
LBB140_9:
	movl	$1, %esi
	movq	%r12, %rdi
	callq	___rust_alloc
	movq	%rax, %r13
	testq	%rax, %rax
	movq	-56(%rbp), %rdx
	je	LBB140_15
LBB140_11:
	movq	%r12, %rbx
LBB140_12:
	movl	-44(%rbp), %r12d
LBB140_13:
	movq	%r13, %rdi
	movq	%rdx, %rsi
	movq	%r15, %rdx
	callq	_memcpy
	movb	%r12b, 24(%r14)
	movq	%r13, (%r14)
	movq	%rbx, 8(%r14)
	movq	%r15, 16(%r14)
	addq	$24, %rsp
	popq	%rbx
	popq	%r12
	popq	%r13
	popq	%r14
	popq	%r15
	popq	%rbp
	retq
LBB140_14:
	movl	$1, %esi
	movq	%r15, %rdi
	callq	__ZN5alloc7raw_vec19RawVec$LT$T$C$A$GT$11allocate_in28_$u7b$$u7b$closure$u7d$$u7d$17h8274b78e018d3dd6E
LBB140_15:
	movl	$1, %esi
	movq	%r12, %rdi
	callq	__ZN5alloc5alloc18handle_alloc_error17hbc0ab0ed90816c07E
	.cfi_endproc

	.globl	__ZN78_$LT$cc..Error$u20$as$u20$core..convert..From$LT$std..io..error..Error$GT$$GT$4from17hf9ad443b0429cbfbE
	.p2align	4, 0x90
__ZN78_$LT$cc..Error$u20$as$u20$core..convert..From$LT$std..io..error..Error$GT$$GT$4from17hf9ad443b0429cbfbE:
Lfunc_begin31:
	.cfi_startproc
	.cfi_personality 155, _rust_eh_personality
	.cfi_lsda 16, Lexception31
	pushq	%rbp
	.cfi_def_cfa_offset 16
	.cfi_offset %rbp, -16
	movq	%rsp, %rbp
	.cfi_def_cfa_register %rbp
	pushq	%r15
	pushq	%r14
	pushq	%r12
	pushq	%rbx
	subq	$96, %rsp
	.cfi_offset %rbx, -48
	.cfi_offset %r12, -40
	.cfi_offset %r14, -32
	.cfi_offset %r15, -24
	movq	%rsi, %r15
	movq	%rdi, %r14
	movq	%rsi, -48(%rbp)
	movq	__ZN60_$LT$std..io..error..Error$u20$as$u20$core..fmt..Display$GT$3fmt17hd5a23906ccc4fffdE@GOTPCREL(%rip), %rax
	movq	%rax, -40(%rbp)
	leaq	l___unnamed_49(%rip), %rax
	movq	%rax, -120(%rbp)
	movq	$1, -112(%rbp)
	movq	$0, -104(%rbp)
	leaq	-48(%rbp), %rax
	movq	%rax, -88(%rbp)
	movq	$1, -80(%rbp)
Ltmp297:
	leaq	-72(%rbp), %rdi
	leaq	-120(%rbp), %rsi
	callq	__ZN5alloc3fmt6format17hef4b691705b449e4E
Ltmp298:
	movq	-72(%rbp), %r12
	movq	-64(%rbp), %rbx
	movq	-56(%rbp), %rcx
	movq	%r14, %rdi
	xorl	%esi, %esi
	movq	%r12, %rdx
	callq	__ZN2cc5Error3new17h450fa1f44522cb8bE
	testq	%rbx, %rbx
	je	LBB141_3
	movl	$1, %edx
	movq	%r12, %rdi
	movq	%rbx, %rsi
	callq	___rust_dealloc
LBB141_3:
	cmpb	$2, (%r15)
	jb	LBB141_8
	movq	8(%r15), %rbx
	movq	(%rbx), %rdi
	movq	8(%rbx), %rax
Ltmp300:
	callq	*(%rax)
Ltmp301:
	movq	8(%rbx), %rax
	movq	8(%rax), %rsi
	testq	%rsi, %rsi
	je	LBB141_7
	movq	(%rbx), %rdi
	movq	16(%rax), %rdx
	callq	___rust_dealloc
LBB141_7:
	movq	8(%r15), %rdi
	movl	$24, %esi
	movl	$8, %edx
	callq	___rust_dealloc
LBB141_8:
	movq	%r14, %rax
	addq	$96, %rsp
	popq	%rbx
	popq	%r12
	popq	%r14
	popq	%r15
	popq	%rbp
	retq
LBB141_11:
Ltmp302:
	movq	%rax, %r14
	movq	(%rbx), %rdi
	movq	8(%rbx), %rsi
	callq	__ZN5alloc5alloc8box_free17h49e85cf81d60bb52E
	movq	8(%r15), %rdi
	callq	__ZN5alloc5alloc8box_free17h2cbd3df002e609cdE
	movq	%r14, %rdi
	callq	__Unwind_Resume
	ud2
LBB141_9:
Ltmp299:
	movq	%rax, %r14
	movq	%r15, %rdi
	callq	__ZN4core3ptr13drop_in_place17h7f959772c584907bE
	movq	%r14, %rdi
	callq	__Unwind_Resume
	ud2
Lfunc_end31:
	.cfi_endproc
	.section	__TEXT,__gcc_except_tab
	.p2align	2
GCC_except_table141:
Lexception31:
	.byte	255
	.byte	255
	.byte	1
	.uleb128 Lcst_end31-Lcst_begin31
Lcst_begin31:
	.uleb128 Ltmp297-Lfunc_begin31
	.uleb128 Ltmp298-Ltmp297
	.uleb128 Ltmp299-Lfunc_begin31
	.byte	0
	.uleb128 Ltmp300-Lfunc_begin31
	.uleb128 Ltmp301-Ltmp300
	.uleb128 Ltmp302-Lfunc_begin31
	.byte	0
	.uleb128 Ltmp301-Lfunc_begin31
	.uleb128 Lfunc_end31-Ltmp301
	.byte	0
	.byte	0
Lcst_end31:
	.p2align	2

	.section	__TEXT,__text,regular,pure_instructions
	.globl	__ZN48_$LT$cc..Error$u20$as$u20$core..fmt..Display$GT$3fmt17h6677e9ef1091a6ccE
	.p2align	4, 0x90
__ZN48_$LT$cc..Error$u20$as$u20$core..fmt..Display$GT$3fmt17h6677e9ef1091a6ccE:
	.cfi_startproc
	pushq	%rbp
	.cfi_def_cfa_offset 16
	.cfi_offset %rbp, -16
	movq	%rsp, %rbp
	.cfi_def_cfa_register %rbp
	subq	$80, %rsp
	movq	%rsi, %rax
	leaq	24(%rdi), %rcx
	movq	%rcx, -32(%rbp)
	leaq	__ZN50_$LT$cc..ErrorKind$u20$as$u20$core..fmt..Debug$GT$3fmt17h749f4f7e5532ead8E(%rip), %rcx
	movq	%rcx, -24(%rbp)
	movq	%rdi, -16(%rbp)
	leaq	__ZN60_$LT$alloc..string..String$u20$as$u20$core..fmt..Display$GT$3fmt17h4c6fc2b9ff0414a4E(%rip), %rcx
	movq	%rcx, -8(%rbp)
	leaq	l___unnamed_50(%rip), %rcx
	movq	%rcx, -80(%rbp)
	movq	$2, -72(%rbp)
	movq	$0, -64(%rbp)
	leaq	-32(%rbp), %rcx
	movq	%rcx, -48(%rbp)
	movq	$2, -40(%rbp)
	leaq	-80(%rbp), %rsi
	movq	%rax, %rdi
	callq	__ZN4core3fmt9Formatter9write_fmt17h3dc2bf45afed3069E
	addq	$80, %rsp
	popq	%rbp
	retq
	.cfi_endproc

	.section	__TEXT,__literal16,16byte_literals
	.p2align	4
LCPI143_0:
	.quad	1
	.quad	1
	.section	__TEXT,__text,regular,pure_instructions
	.globl	__ZN2cc5Build3new17hd4672cfc8fa2a1c5E
	.p2align	4, 0x90
__ZN2cc5Build3new17hd4672cfc8fa2a1c5E:
Lfunc_begin32:
	.cfi_startproc
	.cfi_personality 155, _rust_eh_personality
	.cfi_lsda 16, Lexception32
	pushq	%rbp
	.cfi_def_cfa_offset 16
	.cfi_offset %rbp, -16
	movq	%rsp, %rbp
	.cfi_def_cfa_register %rbp
	pushq	%r15
	pushq	%r14
	pushq	%r13
	pushq	%r12
	pushq	%rbx
	subq	$616, %rsp
	.cfi_offset %rbx, -56
	.cfi_offset %r12, -48
	.cfi_offset %r13, -40
	.cfi_offset %r14, -32
	.cfi_offset %r15, -24
	movq	%rdi, %rbx
	movq	$8, -216(%rbp)
	vpxor	%xmm0, %xmm0, %xmm0
	vmovdqu	%xmm0, -208(%rbp)
	movq	$8, -240(%rbp)
	vmovdqu	%xmm0, -232(%rbp)
	movq	$8, -264(%rbp)
	vmovdqu	%xmm0, -256(%rbp)
	movq	$8, -288(%rbp)
	vmovdqu	%xmm0, -280(%rbp)
	movq	$8, -312(%rbp)
	vmovdqu	%xmm0, -304(%rbp)
Ltmp303:
	callq	__ZN3std11collections4hash3map11RandomState3new4KEYS7__getit17hf7003a3e24c88b62E
Ltmp304:
	testq	%rax, %rax
	je	LBB143_2
	vmovdqu	(%rax), %xmm0
	vmovdqa	%xmm0, -112(%rbp)
	vmovq	%xmm0, %rcx
	incq	%rcx
	movq	%rcx, (%rax)
Ltmp305:
	callq	__ZN9hashbrown3raw4sse25Group12static_empty17hda1daec376d651fbE
Ltmp306:
	vmovdqa	-112(%rbp), %xmm0
	vmovdqa	%xmm0, -96(%rbp)
	movq	$0, -80(%rbp)
	movq	%rax, -72(%rbp)
	movq	$8, -64(%rbp)
	vpxor	%xmm0, %xmm0, %xmm0
	vmovdqu	%xmm0, -56(%rbp)
	movl	$64, %edi
	movl	$8, %esi
	callq	___rust_alloc
	testq	%rax, %rax
	je	LBB143_29
	movq	%rax, %r15
Ltmp307:
	movq	%rax, %rdi
	callq	__ZN3std10sys_common5mutex5Mutex3new17h696650690b01d120E
Ltmp308:
	movq	%r15, -192(%rbp)
Ltmp310:
	callq	__ZN3std10sys_common6poison4Flag3new17h17da4b4837aefea3E
Ltmp311:
	movl	%eax, %r12d
	vmovups	-96(%rbp), %ymm0
	vmovups	-72(%rbp), %ymm1
	vmovups	%ymm1, -585(%rbp)
	vmovups	%ymm0, -609(%rbp)
	leaq	-192(%rbp), %r14
	movq	%r14, %rdi
	vzeroupper
	callq	_pthread_mutexattr_init
	movq	%r14, %rdi
	xorl	%esi, %esi
	callq	_pthread_mutexattr_settype
	movq	%r15, %rdi
	movq	%r14, %rsi
	callq	_pthread_mutex_init
	movq	%r14, %rdi
	callq	_pthread_mutexattr_destroy
	vmovups	-616(%rbp), %ymm0
	vmovups	-585(%rbp), %ymm1
	vmovups	%ymm0, -192(%rbp)
	vmovups	%ymm1, -161(%rbp)
	movl	$88, %edi
	movl	$8, %esi
	vzeroupper
	callq	___rust_alloc
	testq	%rax, %rax
	je	LBB143_9
	movq	%rax, %r14
	vmovaps	LCPI143_0(%rip), %xmm0
	vmovups	%xmm0, (%rax)
	movq	%r15, 16(%rax)
	movb	%r12b, 24(%rax)
	vmovdqu	-192(%rbp), %ymm0
	vmovups	-161(%rbp), %ymm1
	vmovdqu	%ymm0, 25(%rax)
	vmovups	%ymm1, 56(%rax)
	movq	$8, -336(%rbp)
	vpxor	%xmm0, %xmm0, %xmm0
	vmovdqu	%xmm0, -328(%rbp)
	movq	$8, -360(%rbp)
	vmovdqu	%xmm0, -352(%rbp)
	movq	%rax, -120(%rbp)
	movq	$0, -648(%rbp)
	movq	$0, -408(%rbp)
	movq	$0, -432(%rbp)
	movq	$0, -456(%rbp)
	movq	$0, -480(%rbp)
	movq	$0, -504(%rbp)
	movq	$8, -384(%rbp)
	vmovdqu	%xmm0, -376(%rbp)
	movq	$0, -528(%rbp)
	movq	$0, -552(%rbp)
Ltmp313:
	vzeroupper
	callq	__ZN3std11collections4hash3map11RandomState3new4KEYS7__getit17hf7003a3e24c88b62E
Ltmp314:
	testq	%rax, %rax
	je	LBB143_15
	vmovdqu	(%rax), %xmm0
	vmovdqa	%xmm0, -112(%rbp)
	vmovq	%xmm0, %rcx
	incq	%rcx
	movq	%rcx, (%rax)
Ltmp315:
	callq	__ZN9hashbrown3raw4sse25Group12static_empty17hda1daec376d651fbE
Ltmp316:
	vmovdqa	-112(%rbp), %xmm0
	vmovdqa	%xmm0, -96(%rbp)
	movq	$0, -80(%rbp)
	movq	%rax, -72(%rbp)
	movq	$8, -64(%rbp)
	vpxor	%xmm0, %xmm0, %xmm0
	vmovdqu	%xmm0, -56(%rbp)
	movl	$64, %edi
	movl	$8, %esi
	callq	___rust_alloc
	testq	%rax, %rax
	je	LBB143_29
	movq	%rax, %r15
Ltmp317:
	movq	%rax, %rdi
	callq	__ZN3std10sys_common5mutex5Mutex3new17h696650690b01d120E
Ltmp318:
	movq	%r15, -192(%rbp)
Ltmp320:
	callq	__ZN3std10sys_common6poison4Flag3new17h17da4b4837aefea3E
Ltmp321:
	movl	%eax, %r12d
	leaq	-609(%rbp), %rax
	vmovups	-96(%rbp), %ymm0
	vmovups	-72(%rbp), %ymm1
	vmovups	%ymm1, 24(%rax)
	vmovups	%ymm0, (%rax)
	leaq	-192(%rbp), %r13
	movq	%r13, %rdi
	vzeroupper
	callq	_pthread_mutexattr_init
	movq	%r13, %rdi
	xorl	%esi, %esi
	callq	_pthread_mutexattr_settype
	movq	%r15, %rdi
	movq	%r13, %rsi
	callq	_pthread_mutex_init
	movq	%r13, %rdi
	callq	_pthread_mutexattr_destroy
	vmovups	-616(%rbp), %ymm0
	vmovups	-585(%rbp), %ymm1
	vmovups	%ymm0, -192(%rbp)
	vmovups	%ymm1, -161(%rbp)
	movl	$88, %edi
	movl	$8, %esi
	vzeroupper
	callq	___rust_alloc
	testq	%rax, %rax
	je	LBB143_9
	vmovaps	LCPI143_0(%rip), %xmm0
	vmovups	%xmm0, (%rax)
	movq	%r15, 16(%rax)
	movb	%r12b, 24(%rax)
	vmovups	-192(%rbp), %ymm0
	vmovups	-161(%rbp), %ymm1
	vmovups	%ymm1, 56(%rax)
	vmovups	%ymm0, 25(%rax)
	movq	-200(%rbp), %rcx
	movq	%rcx, 16(%rbx)
	vmovups	-216(%rbp), %xmm0
	vmovups	%xmm0, (%rbx)
	movq	-224(%rbp), %rcx
	movq	%rcx, 40(%rbx)
	vmovups	-240(%rbp), %xmm0
	vmovups	%xmm0, 24(%rbx)
	movq	-248(%rbp), %rcx
	movq	%rcx, 64(%rbx)
	vmovups	-264(%rbp), %xmm0
	vmovups	%xmm0, 48(%rbx)
	vmovups	-288(%rbp), %xmm0
	vmovups	%xmm0, 72(%rbx)
	movq	-272(%rbp), %rcx
	movq	%rcx, 88(%rbx)
	vmovups	-312(%rbp), %xmm0
	vmovups	%xmm0, 96(%rbx)
	movq	-296(%rbp), %rcx
	movq	%rcx, 112(%rbx)
	movq	%r14, 120(%rbx)
	vmovups	-336(%rbp), %xmm0
	vmovups	%xmm0, 128(%rbx)
	movq	-320(%rbp), %rcx
	movq	%rcx, 144(%rbx)
	movb	$0, 408(%rbx)
	movq	-344(%rbp), %rcx
	movq	%rcx, 168(%rbx)
	vmovups	-360(%rbp), %xmm0
	vmovups	%xmm0, 152(%rbx)
	movb	$0, 409(%rbx)
	vmovups	-648(%rbp), %ymm0
	vmovups	%ymm0, 176(%rbx)
	movq	-392(%rbp), %rcx
	movq	%rcx, 224(%rbx)
	vmovups	-408(%rbp), %xmm0
	vmovups	%xmm0, 208(%rbx)
	movb	$0, 410(%rbx)
	movq	-416(%rbp), %rcx
	movq	%rcx, 248(%rbx)
	vmovups	-432(%rbp), %xmm0
	vmovups	%xmm0, 232(%rbx)
	movq	-440(%rbp), %rcx
	movq	%rcx, 272(%rbx)
	vmovups	-456(%rbp), %xmm0
	vmovups	%xmm0, 256(%rbx)
	movq	-464(%rbp), %rcx
	movq	%rcx, 296(%rbx)
	vmovups	-480(%rbp), %xmm0
	vmovups	%xmm0, 280(%rbx)
	movq	-488(%rbp), %rcx
	movq	%rcx, 320(%rbx)
	vmovups	-504(%rbp), %xmm0
	vmovups	%xmm0, 304(%rbx)
	movw	$514, 411(%rbx)
	movq	-368(%rbp), %rcx
	movq	%rcx, 344(%rbx)
	vmovups	-384(%rbp), %xmm0
	vmovups	%xmm0, 328(%rbx)
	movq	-512(%rbp), %rcx
	vmovups	-528(%rbp), %xmm0
	vmovups	%xmm0, 352(%rbx)
	movq	%rcx, 368(%rbx)
	movq	-536(%rbp), %rcx
	movq	%rcx, 392(%rbx)
	vmovups	-552(%rbp), %xmm0
	vmovups	%xmm0, 376(%rbx)
	movb	$1, 413(%rbx)
	movb	$2, 418(%rbx)
	movl	$33686018, 414(%rbx)
	movw	$512, 419(%rbx)
	movb	$2, 421(%rbx)
	movq	%rax, 400(%rbx)
	movq	%rbx, %rax
	addq	$616, %rsp
	popq	%rbx
	popq	%r12
	popq	%r13
	popq	%r14
	popq	%r15
	popq	%rbp
	vzeroupper
	retq
LBB143_29:
	movl	$64, %edi
	movl	$8, %esi
	callq	__ZN5alloc5alloc18handle_alloc_error17hbc0ab0ed90816c07E
LBB143_9:
	movl	$88, %edi
	movl	$8, %esi
	callq	__ZN5alloc5alloc18handle_alloc_error17hbc0ab0ed90816c07E
LBB143_2:
Ltmp326:
	leaq	l___unnamed_51(%rip), %rdi
	leaq	l___unnamed_52(%rip), %rcx
	leaq	l___unnamed_53(%rip), %r8
	leaq	-616(%rbp), %rdx
	movl	$70, %esi
	callq	__ZN4core6result13unwrap_failed17hb5a510096a5fc85fE
Ltmp327:
	jmp	LBB143_3
LBB143_15:
Ltmp323:
	leaq	l___unnamed_51(%rip), %rdi
	leaq	l___unnamed_52(%rip), %rcx
	leaq	l___unnamed_53(%rip), %r8
	leaq	-616(%rbp), %rdx
	movl	$70, %esi
	callq	__ZN4core6result13unwrap_failed17hb5a510096a5fc85fE
Ltmp324:
LBB143_3:
	ud2
LBB143_26:
Ltmp322:
	movq	%rax, %rbx
	leaq	-192(%rbp), %rdi
	callq	__ZN4core3ptr13drop_in_place17h9e04622fd8bc2d94E
	jmp	LBB143_23
LBB143_22:
Ltmp319:
	movq	%rax, %rbx
	movq	%r15, %rdi
	callq	__ZN5alloc5alloc8box_free17h2be370c0f94677d7E
LBB143_23:
	leaq	-96(%rbp), %rdi
	callq	__ZN4core3ptr13drop_in_place17h72053f8a65b8ac84E
	jmp	LBB143_24
LBB143_12:
Ltmp312:
	movq	%rax, %rbx
	leaq	-192(%rbp), %rdi
	callq	__ZN4core3ptr13drop_in_place17h9e04622fd8bc2d94E
	jmp	LBB143_11
LBB143_10:
Ltmp309:
	movq	%rax, %rbx
	movq	%r15, %rdi
	callq	__ZN5alloc5alloc8box_free17h2be370c0f94677d7E
LBB143_11:
	leaq	-96(%rbp), %rdi
	callq	__ZN4core3ptr13drop_in_place17h13a35c0612cc9efcE
	jmp	LBB143_25
LBB143_28:
Ltmp325:
	movq	%rax, %rbx
LBB143_24:
	leaq	-552(%rbp), %rdi
	callq	__ZN4core3ptr13drop_in_place17h98f23592eeb45941E
	leaq	-528(%rbp), %rdi
	callq	__ZN4core3ptr13drop_in_place17h98f23592eeb45941E
	leaq	-384(%rbp), %rdi
	callq	__ZN4core3ptr13drop_in_place17h3463adf306fe5675E
	leaq	-504(%rbp), %rdi
	callq	__ZN4core3ptr13drop_in_place17h98f23592eeb45941E
	leaq	-480(%rbp), %rdi
	callq	__ZN4core3ptr13drop_in_place17h98f23592eeb45941E
	leaq	-456(%rbp), %rdi
	callq	__ZN4core3ptr13drop_in_place17h98f23592eeb45941E
	leaq	-432(%rbp), %rdi
	callq	__ZN4core3ptr13drop_in_place17h98f23592eeb45941E
	leaq	-408(%rbp), %rdi
	callq	__ZN4core3ptr13drop_in_place17h98f23592eeb45941E
	leaq	-648(%rbp), %rdi
	callq	__ZN4core3ptr13drop_in_place17h980870c67f8b2b8dE
	leaq	-360(%rbp), %rdi
	callq	__ZN4core3ptr13drop_in_place17h5f940999b6fdefe4E
	leaq	-336(%rbp), %rdi
	callq	__ZN4core3ptr13drop_in_place17h7700bbbea002d3adE
	leaq	-120(%rbp), %rdi
	callq	__ZN4core3ptr13drop_in_place17h7ee9ca74634ab398E
	jmp	LBB143_25
LBB143_27:
Ltmp328:
	movq	%rax, %rbx
LBB143_25:
	leaq	-312(%rbp), %rdi
	callq	__ZN4core3ptr13drop_in_place17h7700bbbea002d3adE
	leaq	-288(%rbp), %rdi
	callq	__ZN4core3ptr13drop_in_place17h7700bbbea002d3adE
	leaq	-264(%rbp), %rdi
	callq	__ZN4core3ptr13drop_in_place17h5f940999b6fdefe4E
	leaq	-240(%rbp), %rdi
	callq	__ZN4core3ptr13drop_in_place17h6f49dcdf3fcac069E
	leaq	-216(%rbp), %rdi
	callq	__ZN4core3ptr13drop_in_place17h5f940999b6fdefe4E
	movq	%rbx, %rdi
	callq	__Unwind_Resume
	ud2
Lfunc_end32:
	.cfi_endproc
	.section	__TEXT,__gcc_except_tab
	.p2align	2
GCC_except_table143:
Lexception32:
	.byte	255
	.byte	255
	.byte	1
	.uleb128 Lcst_end32-Lcst_begin32
Lcst_begin32:
	.uleb128 Ltmp303-Lfunc_begin32
	.uleb128 Ltmp306-Ltmp303
	.uleb128 Ltmp328-Lfunc_begin32
	.byte	0
	.uleb128 Ltmp307-Lfunc_begin32
	.uleb128 Ltmp308-Ltmp307
	.uleb128 Ltmp309-Lfunc_begin32
	.byte	0
	.uleb128 Ltmp310-Lfunc_begin32
	.uleb128 Ltmp311-Ltmp310
	.uleb128 Ltmp312-Lfunc_begin32
	.byte	0
	.uleb128 Ltmp313-Lfunc_begin32
	.uleb128 Ltmp316-Ltmp313
	.uleb128 Ltmp325-Lfunc_begin32
	.byte	0
	.uleb128 Ltmp317-Lfunc_begin32
	.uleb128 Ltmp318-Ltmp317
	.uleb128 Ltmp319-Lfunc_begin32
	.byte	0
	.uleb128 Ltmp320-Lfunc_begin32
	.uleb128 Ltmp321-Ltmp320
	.uleb128 Ltmp322-Lfunc_begin32
	.byte	0
	.uleb128 Ltmp326-Lfunc_begin32
	.uleb128 Ltmp327-Ltmp326
	.uleb128 Ltmp328-Lfunc_begin32
	.byte	0
	.uleb128 Ltmp323-Lfunc_begin32
	.uleb128 Ltmp324-Ltmp323
	.uleb128 Ltmp325-Lfunc_begin32
	.byte	0
	.uleb128 Ltmp324-Lfunc_begin32
	.uleb128 Lfunc_end32-Ltmp324
	.byte	0
	.byte	0
Lcst_end32:
	.p2align	2

	.section	__TEXT,__text,regular,pure_instructions
	.globl	__ZN2cc5Build4flag17hb5a3940e9efb243aE
	.p2align	4, 0x90
__ZN2cc5Build4flag17hb5a3940e9efb243aE:
Lfunc_begin33:
	.cfi_startproc
	.cfi_personality 155, _rust_eh_personality
	.cfi_lsda 16, Lexception33
	pushq	%rbp
	.cfi_def_cfa_offset 16
	.cfi_offset %rbp, -16
	movq	%rsp, %rbp
	.cfi_def_cfa_register %rbp
	pushq	%r15
	pushq	%r14
	pushq	%r13
	pushq	%r12
	pushq	%rbx
	subq	$40, %rsp
	.cfi_offset %rbx, -56
	.cfi_offset %r12, -48
	.cfi_offset %r13, -40
	.cfi_offset %r14, -32
	.cfi_offset %r15, -24
	movq	%rdx, %r13
	movq	%rsi, %r15
	movq	%rdi, %r14
	testq	%rdx, %rdx
	je	LBB144_1
	movl	$1, %esi
	movq	%r13, %rdi
	callq	___rust_alloc
	testq	%rax, %rax
	je	LBB144_17
	movq	%rax, %r12
	movq	%r13, %rbx
	cmpq	%r13, %rbx
	jb	LBB144_5
	jmp	LBB144_13
LBB144_1:
	movl	$1, %r12d
	xorl	%ebx, %ebx
	cmpq	%r13, %rbx
	jae	LBB144_13
LBB144_5:
	movq	%r15, -48(%rbp)
	leaq	(%rbx,%rbx), %r15
	cmpq	%r13, %r15
	cmovbeq	%r13, %r15
	testq	%rbx, %rbx
	je	LBB144_9
	testq	%r12, %r12
	je	LBB144_9
	cmpq	%r15, %rbx
	je	LBB144_12
	movl	$1, %edx
	movq	%r12, %rdi
	movq	%rbx, %rsi
	movq	%r15, %rcx
	callq	___rust_realloc
	movq	%rax, %r12
	testq	%rax, %rax
	jne	LBB144_11
	jmp	LBB144_18
LBB144_9:
	movl	$1, %esi
	movq	%r15, %rdi
	callq	___rust_alloc
	movq	%rax, %r12
	testq	%rax, %rax
	je	LBB144_18
LBB144_11:
	movq	%r15, %rbx
LBB144_12:
	movq	-48(%rbp), %r15
LBB144_13:
	movq	%r12, %rdi
	movq	%r15, %rsi
	movq	%r13, %rdx
	callq	_memcpy
	movq	%r12, -72(%rbp)
	movq	%rbx, -64(%rbp)
	movq	%r13, -56(%rbp)
	movq	88(%r14), %rcx
	cmpq	80(%r14), %rcx
	jne	LBB144_16
	leaq	72(%r14), %rdi
Ltmp329:
	movl	$1, %esi
	callq	__ZN5alloc3vec12Vec$LT$T$GT$7reserve17h1620f7acab5ef580E
Ltmp330:
	movq	88(%r14), %rcx
LBB144_16:
	movq	72(%r14), %rax
	leaq	(%rcx,%rcx,2), %rcx
	movq	-56(%rbp), %rdx
	movq	%rdx, 16(%rax,%rcx,8)
	vmovups	-72(%rbp), %xmm0
	vmovups	%xmm0, (%rax,%rcx,8)
	incq	88(%r14)
	movq	%r14, %rax
	addq	$40, %rsp
	popq	%rbx
	popq	%r12
	popq	%r13
	popq	%r14
	popq	%r15
	popq	%rbp
	retq
LBB144_17:
	movl	$1, %esi
	movq	%r13, %rdi
	callq	__ZN5alloc7raw_vec19RawVec$LT$T$C$A$GT$11allocate_in28_$u7b$$u7b$closure$u7d$$u7d$17h8274b78e018d3dd6E
LBB144_18:
	movl	$1, %esi
	movq	%r15, %rdi
	callq	__ZN5alloc5alloc18handle_alloc_error17hbc0ab0ed90816c07E
LBB144_19:
Ltmp331:
	movq	%rax, %rbx
	leaq	-72(%rbp), %rdi
	callq	__ZN4core3ptr13drop_in_place17h17797588d32ceb50E
	movq	%rbx, %rdi
	callq	__Unwind_Resume
	ud2
Lfunc_end33:
	.cfi_endproc
	.section	__TEXT,__gcc_except_tab
	.p2align	2
GCC_except_table144:
Lexception33:
	.byte	255
	.byte	255
	.byte	1
	.uleb128 Lcst_end33-Lcst_begin33
Lcst_begin33:
	.uleb128 Lfunc_begin33-Lfunc_begin33
	.uleb128 Ltmp329-Lfunc_begin33
	.byte	0
	.byte	0
	.uleb128 Ltmp329-Lfunc_begin33
	.uleb128 Ltmp330-Ltmp329
	.uleb128 Ltmp331-Lfunc_begin33
	.byte	0
	.uleb128 Ltmp330-Lfunc_begin33
	.uleb128 Lfunc_end33-Ltmp330
	.byte	0
	.byte	0
Lcst_end33:
	.p2align	2

	.section	__TEXT,__text,regular,pure_instructions
	.globl	__ZN2cc5Build7ar_flag17hd3811bfc7f24368bE
	.p2align	4, 0x90
__ZN2cc5Build7ar_flag17hd3811bfc7f24368bE:
Lfunc_begin34:
	.cfi_startproc
	.cfi_personality 155, _rust_eh_personality
	.cfi_lsda 16, Lexception34
	pushq	%rbp
	.cfi_def_cfa_offset 16
	.cfi_offset %rbp, -16
	movq	%rsp, %rbp
	.cfi_def_cfa_register %rbp
	pushq	%r15
	pushq	%r14
	pushq	%r13
	pushq	%r12
	pushq	%rbx
	subq	$40, %rsp
	.cfi_offset %rbx, -56
	.cfi_offset %r12, -48
	.cfi_offset %r13, -40
	.cfi_offset %r14, -32
	.cfi_offset %r15, -24
	movq	%rdx, %r13
	movq	%rsi, %r15
	movq	%rdi, %r14
	testq	%rdx, %rdx
	je	LBB145_1
	movl	$1, %esi
	movq	%r13, %rdi
	callq	___rust_alloc
	testq	%rax, %rax
	je	LBB145_17
	movq	%rax, %r12
	movq	%r13, %rbx
	cmpq	%r13, %rbx
	jb	LBB145_5
	jmp	LBB145_13
LBB145_1:
	movl	$1, %r12d
	xorl	%ebx, %ebx
	cmpq	%r13, %rbx
	jae	LBB145_13
LBB145_5:
	movq	%r15, -48(%rbp)
	leaq	(%rbx,%rbx), %r15
	cmpq	%r13, %r15
	cmovbeq	%r13, %r15
	testq	%rbx, %rbx
	je	LBB145_9
	testq	%r12, %r12
	je	LBB145_9
	cmpq	%r15, %rbx
	je	LBB145_12
	movl	$1, %edx
	movq	%r12, %rdi
	movq	%rbx, %rsi
	movq	%r15, %rcx
	callq	___rust_realloc
	movq	%rax, %r12
	testq	%rax, %rax
	jne	LBB145_11
	jmp	LBB145_18
LBB145_9:
	movl	$1, %esi
	movq	%r15, %rdi
	callq	___rust_alloc
	movq	%rax, %r12
	testq	%rax, %rax
	je	LBB145_18
LBB145_11:
	movq	%r15, %rbx
LBB145_12:
	movq	-48(%rbp), %r15
LBB145_13:
	movq	%r12, %rdi
	movq	%r15, %rsi
	movq	%r13, %rdx
	callq	_memcpy
	movq	%r12, -72(%rbp)
	movq	%rbx, -64(%rbp)
	movq	%r13, -56(%rbp)
	movq	144(%r14), %rcx
	cmpq	136(%r14), %rcx
	jne	LBB145_16
	leaq	128(%r14), %rdi
Ltmp332:
	movl	$1, %esi
	callq	__ZN5alloc3vec12Vec$LT$T$GT$7reserve17h1620f7acab5ef580E
Ltmp333:
	movq	144(%r14), %rcx
LBB145_16:
	movq	128(%r14), %rax
	leaq	(%rcx,%rcx,2), %rcx
	movq	-56(%rbp), %rdx
	movq	%rdx, 16(%rax,%rcx,8)
	vmovups	-72(%rbp), %xmm0
	vmovups	%xmm0, (%rax,%rcx,8)
	incq	144(%r14)
	movq	%r14, %rax
	addq	$40, %rsp
	popq	%rbx
	popq	%r12
	popq	%r13
	popq	%r14
	popq	%r15
	popq	%rbp
	retq
LBB145_17:
	movl	$1, %esi
	movq	%r13, %rdi
	callq	__ZN5alloc7raw_vec19RawVec$LT$T$C$A$GT$11allocate_in28_$u7b$$u7b$closure$u7d$$u7d$17h8274b78e018d3dd6E
LBB145_18:
	movl	$1, %esi
	movq	%r15, %rdi
	callq	__ZN5alloc5alloc18handle_alloc_error17hbc0ab0ed90816c07E
LBB145_19:
Ltmp334:
	movq	%rax, %rbx
	leaq	-72(%rbp), %rdi
	callq	__ZN4core3ptr13drop_in_place17h17797588d32ceb50E
	movq	%rbx, %rdi
	callq	__Unwind_Resume
	ud2
Lfunc_end34:
	.cfi_endproc
	.section	__TEXT,__gcc_except_tab
	.p2align	2
GCC_except_table145:
Lexception34:
	.byte	255
	.byte	255
	.byte	1
	.uleb128 Lcst_end34-Lcst_begin34
Lcst_begin34:
	.uleb128 Lfunc_begin34-Lfunc_begin34
	.uleb128 Ltmp332-Lfunc_begin34
	.byte	0
	.byte	0
	.uleb128 Ltmp332-Lfunc_begin34
	.uleb128 Ltmp333-Ltmp332
	.uleb128 Ltmp334-Lfunc_begin34
	.byte	0
	.uleb128 Ltmp333-Lfunc_begin34
	.uleb128 Lfunc_end34-Ltmp333
	.byte	0
	.byte	0
Lcst_end34:
	.p2align	2

	.section	__TEXT,__const
	.p2align	5
LCPI146_0:
	.quad	8317987319222330741
	.quad	7816392313619706465
	.quad	7237128888997146477
	.quad	8387220255154660723
	.section	__TEXT,__text,regular,pure_instructions
	.globl	__ZN2cc5Build17is_flag_supported17h3275de1cc34eefccE
	.p2align	4, 0x90
__ZN2cc5Build17is_flag_supported17h3275de1cc34eefccE:
Lfunc_begin35:
	.cfi_startproc
	.cfi_personality 155, _rust_eh_personality
	.cfi_lsda 16, Lexception35
	pushq	%rbp
	.cfi_def_cfa_offset 16
	.cfi_offset %rbp, -16
	movq	%rsp, %rbp
	.cfi_def_cfa_register %rbp
	pushq	%r15
	pushq	%r14
	pushq	%r13
	pushq	%r12
	pushq	%rbx
	subq	$1416, %rsp
	.cfi_offset %rbx, -56
	.cfi_offset %r12, -48
	.cfi_offset %r13, -40
	.cfi_offset %r14, -32
	.cfi_offset %r15, -24
	movq	%rcx, %r15
	movq	%rdx, %rbx
	movq	%rdi, -88(%rbp)
	movq	%rsi, -80(%rbp)
	movq	120(%rsi), %r13
	leaq	16(%r13), %r14
	movq	16(%r13), %rdi
	callq	_pthread_mutex_lock
	callq	__ZN3std9panicking9panicking17h6f800ddc6c0d9b77E
	movb	24(%r13), %cl
	testb	%cl, %cl
	jne	LBB146_188
	movq	%r14, -264(%rbp)
	movb	%al, -256(%rbp)
	vmovups	32(%r13), %xmm0
	vpermpd	$80, %ymm0, %ymm1
	vxorps	LCPI146_0(%rip), %ymm1, %ymm1
	vmovups	%xmm0, -1432(%rbp)
	movq	$0, -1416(%rbp)
	vmovups	%ymm1, -1408(%rbp)
	vxorps	%xmm0, %xmm0, %xmm0
	vmovups	%xmm0, -1376(%rbp)
	leaq	-1432(%rbp), %r14
	movq	%r14, %rdi
	movq	%rbx, -64(%rbp)
	movq	%rbx, %rsi
	movq	%r15, -72(%rbp)
	movq	%r15, %rdx
	vzeroupper
	callq	__ZN81_$LT$std..collections..hash..map..DefaultHasher$u20$as$u20$core..hash..Hasher$GT$5write17h224b0f9eadf6f830E
	movb	$-1, -800(%rbp)
	leaq	-800(%rbp), %rsi
	movl	$1, %edx
	movq	%r14, %rdi
	callq	__ZN81_$LT$std..collections..hash..map..DefaultHasher$u20$as$u20$core..hash..Hasher$GT$5write17h224b0f9eadf6f830E
	movq	-1416(%rbp), %rax
	movq	-1392(%rbp), %rcx
	shlq	$56, %rax
	orq	-1376(%rbp), %rax
	movq	-1384(%rbp), %rdx
	xorq	%rax, %rdx
	rorxq	$51, %rcx, %rsi
	addq	-1408(%rbp), %rcx
	xorq	%rcx, %rsi
	rorxq	$32, %rcx, %rcx
	rorxq	$48, %rdx, %rdi
	addq	-1400(%rbp), %rdx
	xorq	%rdx, %rdi
	addq	%rdi, %rcx
	rorxq	$43, %rdi, %rdi
	xorq	%rcx, %rdi
	addq	%rsi, %rdx
	rorxq	$47, %rsi, %rsi
	xorq	%rdx, %rsi
	rorxq	$32, %rdx, %rdx
	xorq	%rax, %rcx
	xorq	$255, %rdx
	addq	%rsi, %rcx
	rorxq	$51, %rsi, %rax
	xorq	%rcx, %rax
	rorxq	$32, %rcx, %rcx
	addq	%rdi, %rdx
	rorxq	$48, %rdi, %rsi
	xorq	%rdx, %rsi
	addq	%rsi, %rcx
	rorxq	$43, %rsi, %rsi
	xorq	%rcx, %rsi
	addq	%rax, %rdx
	rorxq	$47, %rax, %rax
	xorq	%rdx, %rax
	rorxq	$32, %rdx, %rdx
	addq	%rax, %rcx
	rorxq	$51, %rax, %rax
	xorq	%rcx, %rax
	rorxq	$32, %rcx, %rcx
	addq	%rsi, %rdx
	rorxq	$48, %rsi, %rsi
	xorq	%rdx, %rsi
	addq	%rsi, %rcx
	rorxq	$43, %rsi, %rsi
	xorq	%rcx, %rsi
	addq	%rax, %rdx
	rorxq	$47, %rax, %rax
	xorq	%rdx, %rax
	rorxq	$32, %rdx, %rbx
	addq	%rax, %rcx
	rorxq	$51, %rax, %rax
	xorq	%rcx, %rax
	addq	%rsi, %rbx
	rorxq	$48, %rsi, %rcx
	xorq	%rbx, %rcx
	rorxq	$43, %rcx, %rcx
	addq	%rax, %rbx
	rorxq	$47, %rax, %rax
	rorxq	$32, %rbx, %rdx
	xorq	%rcx, %rbx
	xorq	%rax, %rbx
	xorq	%rdx, %rbx
	movq	48(%r13), %rcx
	movq	56(%r13), %rdx
	movq	%rbx, %rax
	shrq	$57, %rax
	vmovd	%eax, %xmm0
	vpbroadcastb	%xmm0, %xmm1
	movq	64(%r13), %r13
	xorl	%r15d, %r15d
	vpcmpeqd	%xmm2, %xmm2, %xmm2
LBB146_2:
	andq	%rcx, %rbx
	vmovdqu	(%rdx,%rbx), %xmm3
	vpcmpeqb	%xmm3, %xmm1, %xmm0
	vpmovmskb	%xmm0, %r12d
	testw	%r12w, %r12w
	je	LBB146_7
LBB146_3:
	vmovdqa	%xmm3, -288(%rbp)
	vmovdqa	%xmm1, -304(%rbp)
	movq	%rdx, -56(%rbp)
	tzcntw	%r12w, %ax
	movzwl	%ax, %r14d
	addq	%rbx, %r14
	movq	%rcx, -48(%rbp)
	andq	%rcx, %r14
	shlq	$5, %r14
	movq	-72(%rbp), %rax
	cmpq	%rax, 16(%r13,%r14)
	jne	LBB146_6
	movq	(%r13,%r14), %rsi
	cmpq	-64(%rbp), %rsi
	je	LBB146_8
	movq	-64(%rbp), %rdi
	movq	-72(%rbp), %rdx
	callq	_bcmp
	testl	%eax, %eax
	je	LBB146_8
LBB146_6:
	blsrl	%r12d, %r12d
	testw	%r12w, %r12w
	movq	-48(%rbp), %rcx
	movq	-56(%rbp), %rdx
	vmovdqa	-304(%rbp), %xmm1
	vpcmpeqd	%xmm2, %xmm2, %xmm2
	vmovdqa	-288(%rbp), %xmm3
	jne	LBB146_3
	.p2align	4, 0x90
LBB146_7:
	addq	%r15, %rbx
	addq	$16, %rbx
	addq	$16, %r15
	vpcmpeqb	%xmm2, %xmm3, %xmm0
	vpmovmskb	%xmm0, %eax
	testw	%ax, %ax
	jne	LBB146_10
	jmp	LBB146_2
LBB146_8:
	movq	%r13, %rax
	addq	%r14, %rax
	je	LBB146_10
	cmpb	$0, 24(%r13,%r14)
	movq	-88(%rbp), %r12
	setne	1(%r12)
	movb	$0, (%r12)
	movq	-264(%rbp), %rbx
	cmpb	$0, -256(%rbp)
	jne	LBB146_24
LBB146_22:
	vzeroupper
	callq	__ZN3std9panicking9panicking17h6f800ddc6c0d9b77E
	testb	%al, %al
	je	LBB146_24
	movb	$1, 8(%rbx)
	jmp	LBB146_24
LBB146_10:
Ltmp338:
	leaq	-1432(%rbp), %rdi
	movq	-80(%rbp), %rbx
	movq	%rbx, %rsi
	callq	__ZN2cc5Build11get_out_dir17h80506ef8fc0da092E
Ltmp339:
	movq	-1432(%rbp), %rax
	vmovups	-1424(%rbp), %ymm0
	vmovups	%ymm0, -800(%rbp)
	cmpq	$1, %rax
	movq	-88(%rbp), %r12
	jne	LBB146_13
	vmovdqu	-800(%rbp), %ymm0
	vmovdqu	%ymm0, 8(%r12)
	movb	$1, (%r12)
	movq	-264(%rbp), %rbx
	cmpb	$0, -256(%rbp)
	jne	LBB146_24
	jmp	LBB146_22
LBB146_13:
	movq	-784(%rbp), %rax
	movq	%rax, -320(%rbp)
	vmovdqa	-800(%rbp), %xmm0
	vmovdqa	%xmm0, -336(%rbp)
Ltmp341:
	leaq	-1432(%rbp), %rdi
	movq	%rbx, %rsi
	vzeroupper
	callq	__ZN2cc5Build11get_out_dir17h80506ef8fc0da092E
Ltmp342:
	movq	-1432(%rbp), %rax
	vmovups	-1424(%rbp), %ymm0
	vmovups	%ymm0, -800(%rbp)
	cmpq	$1, %rax
	jne	LBB146_25
	vmovdqu	-800(%rbp), %ymm0
	vmovdqu	%ymm0, -496(%rbp)
LBB146_16:
	vmovdqu	-496(%rbp), %ymm0
	vmovdqu	%ymm0, -976(%rbp)
	vmovdqu	%ymm0, 8(%r12)
	movb	$1, (%r12)
	movq	-336(%rbp), %r13
LBB146_17:
	testq	%r13, %r13
	je	LBB146_21
LBB146_18:
	movq	-328(%rbp), %rsi
	testq	%rsi, %rsi
	je	LBB146_21
	movl	$1, %edx
	movq	%r13, %rdi
LBB146_20:
	vzeroupper
	callq	___rust_dealloc
LBB146_21:
	movq	-264(%rbp), %rbx
	cmpb	$0, -256(%rbp)
	je	LBB146_22
LBB146_24:
	movq	(%rbx), %rdi
	vzeroupper
	callq	_pthread_mutex_unlock
	movq	%r12, %rax
	addq	$1416, %rsp
	popq	%rbx
	popq	%r12
	popq	%r13
	popq	%r14
	popq	%r15
	popq	%rbp
	retq
LBB146_25:
	movq	-784(%rbp), %rax
	movq	%rax, -592(%rbp)
	vmovdqa	-800(%rbp), %xmm0
	vmovdqa	%xmm0, -608(%rbp)
	cmpb	$0, 410(%rbx)
	movb	409(%rbx), %al
	je	LBB146_28
	testb	%al, %al
	je	LBB146_190
	movq	-608(%rbp), %r15
	movq	-592(%rbp), %rdx
Ltmp345:
	leaq	l___unnamed_54(%rip), %rcx
	leaq	-176(%rbp), %rdi
	movl	$13, %r8d
	movq	%r15, %rsi
	vzeroupper
	callq	__ZN3std4path4Path5_join17he9091250c635be77E
Ltmp346:
	jmp	LBB146_31
LBB146_28:
	movq	-608(%rbp), %r15
	movq	-592(%rbp), %rdx
	testb	%al, %al
	je	LBB146_30
Ltmp349:
	leaq	l___unnamed_55(%rip), %rcx
	leaq	-176(%rbp), %rdi
	movl	$14, %r8d
	movq	%r15, %rsi
	vzeroupper
	callq	__ZN3std4path4Path5_join17he9091250c635be77E
Ltmp350:
	jmp	LBB146_31
LBB146_30:
Ltmp347:
	leaq	l___unnamed_56(%rip), %rcx
	leaq	-176(%rbp), %rdi
	movl	$12, %r8d
	movq	%r15, %rsi
	vzeroupper
	callq	__ZN3std4path4Path5_join17he9091250c635be77E
Ltmp348:
LBB146_31:
	movq	-176(%rbp), %rdi
	movq	-160(%rbp), %r13
Ltmp352:
	movq	%rdi, -48(%rbp)
	movq	%r13, %rsi
	callq	__ZN3std4path4Path6exists17h62a434dcfcc9846aE
Ltmp353:
	testb	%al, %al
	je	LBB146_40
LBB146_33:
	movq	-160(%rbp), %rax
	movq	%rax, -480(%rbp)
	vmovups	-176(%rbp), %xmm0
	vmovaps	%xmm0, -496(%rbp)
	movq	-600(%rbp), %rsi
	testq	%rsi, %rsi
	je	LBB146_35
	movl	$1, %edx
	movq	%r15, %rdi
	callq	___rust_dealloc
LBB146_35:
	vmovups	-496(%rbp), %xmm0
	vmovups	%xmm0, -976(%rbp)
	movq	-480(%rbp), %rax
	movq	%rax, -960(%rbp)
	movq	-472(%rbp), %rax
	movq	%rax, -952(%rbp)
	vmovdqa	-976(%rbp), %xmm0
	vmovdqa	%xmm0, -528(%rbp)
	movq	-960(%rbp), %rax
	movq	%rax, -512(%rbp)
	movq	-336(%rbp), %r13
	movq	-320(%rbp), %rdx
Ltmp391:
	leaq	l___unnamed_57(%rip), %rcx
	leaq	-552(%rbp), %rdi
	movl	$10, %r8d
	movq	%r13, %rsi
	callq	__ZN3std4path4Path5_join17he9091250c635be77E
Ltmp392:
	cmpq	$0, 232(%rbx)
	je	LBB146_54
	leaq	232(%rbx), %rsi
Ltmp394:
	leaq	-176(%rbp), %rdi
	callq	__ZN60_$LT$alloc..string..String$u20$as$u20$core..clone..Clone$GT$5clone17h58f2d97d6470fc46E
Ltmp395:
	cmpq	$0, -176(%rbp)
	je	LBB146_55
	movq	-160(%rbp), %rax
	movq	%rax, -480(%rbp)
	vmovups	-176(%rbp), %xmm0
	vmovaps	%xmm0, -496(%rbp)
	jmp	LBB146_58
LBB146_40:
Ltmp354:
	leaq	-800(%rbp), %rdi
	callq	__ZN3std2fs11OpenOptions3new17hf0940b7caeb96880E
Ltmp355:
Ltmp356:
	leaq	-800(%rbp), %rdi
	movl	$1, %esi
	callq	__ZN3std2fs11OpenOptions5write17h22a8fc5479824a01E
Ltmp357:
Ltmp358:
	movq	%rax, %rdi
	movl	$1, %esi
	callq	__ZN3std2fs11OpenOptions6create17haad6c52da74666f6E
Ltmp359:
Ltmp360:
	movq	%rax, %rdi
	movl	$1, %esi
	callq	__ZN3std2fs11OpenOptions8truncate17he14445b7a850fa82E
Ltmp361:
	movq	%rax, %r14
Ltmp362:
	movq	-48(%rbp), %rdi
	movq	%r13, %rsi
	callq	__ZN79_$LT$std..path..Path$u20$as$u20$core..convert..AsRef$LT$std..path..Path$GT$$GT$6as_ref17hac3cfd740319a069E
Ltmp363:
	movq	%rdx, %rcx
Ltmp364:
	leaq	-1432(%rbp), %rdi
	movq	%r14, %rsi
	movq	%rax, %rdx
	callq	__ZN3std2fs11OpenOptions5_open17h7ec5bd91c21db415E
Ltmp365:
	movl	-1432(%rbp), %ecx
	movl	-1428(%rbp), %eax
	vmovdqu	-1424(%rbp), %xmm0
	vmovdqa	%xmm0, -112(%rbp)
	cmpl	$1, %ecx
	jne	LBB146_49
	vmovdqa	-112(%rbp), %xmm0
	vmovdqa	%xmm0, -800(%rbp)
Ltmp388:
	leaq	-1432(%rbp), %rdi
	leaq	-800(%rbp), %rsi
	callq	__ZN78_$LT$cc..Error$u20$as$u20$core..convert..From$LT$std..io..error..Error$GT$$GT$4from17hf9ad443b0429cbfbE
Ltmp389:
	vmovdqu	-1432(%rbp), %ymm0
	vmovdqu	%ymm0, -496(%rbp)
	movq	-168(%rbp), %rsi
	testq	%rsi, %rsi
	jne	LBB146_129
	jmp	LBB146_130
LBB146_49:
	movl	%eax, -208(%rbp)
	leaq	-208(%rbp), %rax
	movq	%rax, -800(%rbp)
	movb	$3, -792(%rbp)
	leaq	l___unnamed_58(%rip), %rax
	movq	%rax, -1432(%rbp)
	movq	$1, -1424(%rbp)
	movq	$0, -1416(%rbp)
	leaq	l___unnamed_4(%rip), %rax
	movq	%rax, -1400(%rbp)
	movq	$0, -1392(%rbp)
Ltmp366:
	leaq	l___unnamed_59(%rip), %rsi
	leaq	-800(%rbp), %rdi
	leaq	-1432(%rbp), %rdx
	callq	__ZN4core3fmt5write17h26bd57c1fd6e9c98E
Ltmp367:
	testb	%al, %al
	je	LBB146_114
	movb	-792(%rbp), %r13b
	cmpb	$3, %r13b
	jne	LBB146_123
Ltmp368:
	leaq	l___unnamed_60(%rip), %rdx
	leaq	-1432(%rbp), %rdi
	movl	$15, %ecx
	movl	$16, %esi
	callq	__ZN3std2io5error5Error3new17h3e0c275bc736c6acE
Ltmp369:
	movb	-1432(%rbp), %r13b
	movl	-1431(%rbp), %eax
	movl	%eax, -112(%rbp)
	movl	-1428(%rbp), %eax
	movl	%eax, -109(%rbp)
	movq	-1424(%rbp), %r14
	movb	-792(%rbp), %al
	cmpb	$3, %al
	jbe	LBB146_115
	jmp	LBB146_116
LBB146_54:
	movq	$0, -176(%rbp)
LBB146_55:
Ltmp397:
	leaq	l___unnamed_61(%rip), %rdx
	leaq	-1432(%rbp), %rdi
	movl	$6, %ecx
	movq	%rbx, %rsi
	callq	__ZN2cc5Build13getenv_unwrap17h9f3bca2592569e9fE
Ltmp398:
	vmovups	-1424(%rbp), %ymm0
	cmpq	$1, -1432(%rbp)
	vmovups	%ymm0, -496(%rbp)
	jne	LBB146_58
	vmovdqu	-496(%rbp), %ymm0
	vmovdqu	%ymm0, -976(%rbp)
	vmovdqu	%ymm0, 8(%r12)
	movb	$1, (%r12)
	movq	-552(%rbp), %rdi
	testq	%rdi, %rdi
	je	LBB146_111
LBB146_109:
	movq	-544(%rbp), %rsi
	testq	%rsi, %rsi
	je	LBB146_111
	movl	$1, %edx
	vzeroupper
	callq	___rust_dealloc
	movq	-528(%rbp), %rdi
	testq	%rdi, %rdi
	jne	LBB146_112
	jmp	LBB146_17
LBB146_58:
	vmovups	-496(%rbp), %xmm0
	vmovups	%xmm0, -976(%rbp)
	movq	-480(%rbp), %rax
	movq	%rax, -960(%rbp)
	movq	-472(%rbp), %rax
	movq	%rax, -952(%rbp)
	vmovdqa	-976(%rbp), %xmm0
	vmovdqa	%xmm0, -208(%rbp)
	movq	-960(%rbp), %rax
	movq	%rax, -192(%rbp)
	cmpq	$0, 256(%rbx)
	je	LBB146_62
	leaq	256(%rbx), %rsi
Ltmp400:
	leaq	-176(%rbp), %rdi
	vzeroupper
	callq	__ZN60_$LT$alloc..string..String$u20$as$u20$core..clone..Clone$GT$5clone17h58f2d97d6470fc46E
Ltmp401:
	cmpq	$0, -176(%rbp)
	je	LBB146_63
	movq	-160(%rbp), %rax
	movq	%rax, -480(%rbp)
	vmovups	-176(%rbp), %xmm0
	vmovaps	%xmm0, -496(%rbp)
	jmp	LBB146_66
LBB146_62:
	movq	$0, -176(%rbp)
LBB146_63:
Ltmp403:
	leaq	L___unnamed_62(%rip), %rdx
	leaq	-1432(%rbp), %rdi
	movl	$4, %ecx
	movq	%rbx, %rsi
	vzeroupper
	callq	__ZN2cc5Build13getenv_unwrap17h9f3bca2592569e9fE
Ltmp404:
	vmovups	-1424(%rbp), %ymm0
	cmpq	$1, -1432(%rbp)
	vmovups	%ymm0, -496(%rbp)
	jne	LBB146_66
	vmovdqu	-496(%rbp), %ymm0
	vmovdqu	%ymm0, -976(%rbp)
	vmovdqu	%ymm0, 8(%r12)
	movb	$1, (%r12)
	movq	-208(%rbp), %r14
	testq	%r14, %r14
	jne	LBB146_106
	jmp	LBB146_108
LBB146_66:
	vmovups	-496(%rbp), %xmm0
	vmovups	%xmm0, -976(%rbp)
	movq	-480(%rbp), %rax
	movq	%rax, -960(%rbp)
	movq	-472(%rbp), %rax
	movq	%rax, -952(%rbp)
	vmovdqa	-976(%rbp), %xmm0
	vmovdqa	%xmm0, -240(%rbp)
	movq	-960(%rbp), %rax
	movq	%rax, -224(%rbp)
Ltmp406:
	leaq	-1432(%rbp), %rdi
	vzeroupper
	callq	__ZN2cc5Build3new17hd4672cfc8fa2a1c5E
Ltmp407:
Ltmp408:
	leaq	-1432(%rbp), %rdi
	movq	-64(%rbp), %rsi
	movq	-72(%rbp), %rdx
	callq	__ZN2cc5Build4flag17hb5a3940e9efb243aE
Ltmp409:
	movq	-208(%rbp), %r14
	movq	-192(%rbp), %r15
	movq	%rax, %rdi
	movq	%r14, %rsi
	movq	%r15, %rdx
	callq	__ZN2cc5Build6target17h416bc896d9b6cfd9E
Ltmp410:
	movq	%rax, %rdi
	xorl	%esi, %esi
	callq	__ZN2cc5Build9opt_level17h8333fcf4d46a2a84E
Ltmp411:
	movq	-240(%rbp), %rsi
	movq	-224(%rbp), %rdx
	movq	%rax, %rdi
	movq	%rsi, -304(%rbp)
	callq	__ZN2cc5Build4host17h24c31cbd1df94df7E
	movb	$0, 411(%rax)
	movb	409(%rbx), %cl
	movb	%cl, 409(%rax)
	movb	410(%rbx), %cl
	movb	%cl, 410(%rax)
	testb	%cl, %cl
	je	LBB146_71
	movb	$1, 409(%rax)
LBB146_71:
Ltmp412:
	leaq	-800(%rbp), %rdi
	leaq	-1432(%rbp), %rsi
	callq	__ZN2cc5Build16try_get_compiler17h90c580e644442e33E
Ltmp413:
	movq	-800(%rbp), %rax
	vmovups	-792(%rbp), %ymm0
	vmovups	%ymm0, -496(%rbp)
	vmovups	-760(%rbp), %ymm0
	vmovups	%ymm0, -464(%rbp)
	vmovups	-728(%rbp), %ymm0
	vmovups	%ymm0, -432(%rbp)
	vmovups	-696(%rbp), %ymm0
	vmovups	%ymm0, -400(%rbp)
	vmovups	-672(%rbp), %ymm0
	vmovups	%ymm0, -376(%rbp)
	cmpq	$1, %rax
	jne	LBB146_74
	vmovdqu	-496(%rbp), %ymm0
	vmovdqu	%ymm0, 8(%r12)
	movb	$1, (%r12)
	jmp	LBB146_102
LBB146_74:
	vmovups	-376(%rbp), %ymm0
	vmovups	%ymm0, -856(%rbp)
	vmovdqu	-496(%rbp), %ymm0
	vmovdqu	-464(%rbp), %ymm1
