	.section	__TEXT,__text,regular,pure_instructions
	.macosx_version_min 10, 7
	.p2align	4, 0x90
__ZN36_$LT$T$u20$as$u20$core..any..Any$GT$7type_id17hd1a2bfe042218805E:
	.cfi_startproc
	pushq	%rbp
	.cfi_def_cfa_offset 16
	.cfi_offset %rbp, -16
	movq	%rsp, %rbp
	.cfi_def_cfa_register %rbp
	movabsq	$9147559743429524724, %rax
	popq	%rbp
	retq
	.cfi_endproc

	.p2align	4, 0x90
__ZN3std9panicking11begin_panic17h86a5bbcde3a0535bE:
	.cfi_startproc
	pushq	%rbp
	.cfi_def_cfa_offset 16
	.cfi_offset %rbp, -16
	movq	%rsp, %rbp
	.cfi_def_cfa_register %rbp
	subq	$16, %rsp
	movq	%rdi, -16(%rbp)
	movq	%rsi, -8(%rbp)
	movq	%rdx, %rdi
	callq	__ZN4core5panic8Location6caller17hb284bf0993c43fcaE
	leaq	l___unnamed_1(%rip), %rsi
	leaq	-16(%rbp), %rdi
	xorl	%edx, %edx
	movq	%rax, %rcx
	callq	__ZN3std9panicking20rust_panic_with_hook17h720143ee15fc80baE
	.cfi_endproc

	.p2align	4, 0x90
__ZN42_$LT$$RF$T$u20$as$u20$core..fmt..Debug$GT$3fmt17h0c1ff019f0892dbcE:
	.cfi_startproc
	pushq	%rbp
	.cfi_def_cfa_offset 16
	.cfi_offset %rbp, -16
	movq	%rsp, %rbp
	.cfi_def_cfa_register %rbp
	pushq	%r14
	pushq	%rbx
	subq	$32, %rsp
	.cfi_offset %rbx, -32
	.cfi_offset %r14, -24
	movq	(%rdi), %rbx
	leaq	l___unnamed_2(%rip), %rdx
	leaq	-40(%rbp), %r14
	movl	$7, %ecx
	movq	%r14, %rdi
	callq	__ZN4core3fmt9Formatter12debug_struct17ha1a64e91d2a98458E
	movq	%rbx, -24(%rbp)
	addq	$16, %rbx
	leaq	l___unnamed_3(%rip), %rsi
	leaq	l___unnamed_4(%rip), %r8
	leaq	-24(%rbp), %rcx
	movl	$5, %edx
	movq	%r14, %rdi
	callq	__ZN4core3fmt8builders11DebugStruct5field17h6c54d35ac41bb1e6E
	movq	%rbx, -24(%rbp)
	leaq	L___unnamed_5(%rip), %rsi
	leaq	l___unnamed_6(%rip), %r8
	leaq	-24(%rbp), %rcx
	movl	$8, %edx
	movq	%r14, %rdi
	callq	__ZN4core3fmt8builders11DebugStruct5field17h6c54d35ac41bb1e6E
	movq	%r14, %rdi
	callq	__ZN4core3fmt8builders11DebugStruct6finish17h67ed49fd5e81bb24E
	addq	$32, %rsp
	popq	%rbx
	popq	%r14
	popq	%rbp
	retq
	.cfi_endproc

	.p2align	4, 0x90
__ZN42_$LT$$RF$T$u20$as$u20$core..fmt..Debug$GT$3fmt17h1bf33c22a77d7a3aE:
	.cfi_startproc
	pushq	%rbp
	.cfi_def_cfa_offset 16
	.cfi_offset %rbp, -16
	movq	%rsp, %rbp
	.cfi_def_cfa_register %rbp
	pushq	%r15
	pushq	%r14
	pushq	%r13
	pushq	%r12
	pushq	%rbx
	subq	$24, %rsp
	.cfi_offset %rbx, -56
	.cfi_offset %r12, -48
	.cfi_offset %r13, -40
	.cfi_offset %r14, -32
	.cfi_offset %r15, -24
	movq	(%rdi), %rax
	movq	(%rax), %rbx
	movq	16(%rax), %r13
	leaq	-64(%rbp), %rdi
	callq	__ZN4core3fmt9Formatter10debug_list17h113a4e31f24f00d7E
	testq	%r13, %r13
	je	LBB3_3
	shlq	$2, %r13
	leaq	l___unnamed_7(%rip), %r14
	leaq	-64(%rbp), %r15
	leaq	-48(%rbp), %r12
	.p2align	4, 0x90
LBB3_2:
	movq	%rbx, -48(%rbp)
	addq	$4, %rbx
	movq	%r15, %rdi
	movq	%r12, %rsi
	movq	%r14, %rdx
	callq	__ZN4core3fmt8builders9DebugList5entry17h2dea26f6c644471aE
	addq	$-4, %r13
	jne	LBB3_2
LBB3_3:
	leaq	-64(%rbp), %rdi
	callq	__ZN4core3fmt8builders9DebugList6finish17h1537bc92ee1acb1cE
	addq	$24, %rsp
	popq	%rbx
	popq	%r12
	popq	%r13
	popq	%r14
	popq	%r15
	popq	%rbp
	retq
	.cfi_endproc

	.p2align	4, 0x90
__ZN42_$LT$$RF$T$u20$as$u20$core..fmt..Debug$GT$3fmt17h1f82c4903db7e9b6E:
	.cfi_startproc
	pushq	%rbp
	.cfi_def_cfa_offset 16
	.cfi_offset %rbp, -16
	movq	%rsp, %rbp
	.cfi_def_cfa_register %rbp
	pushq	%r14
	pushq	%rbx
	subq	$32, %rsp
	.cfi_offset %rbx, -32
	.cfi_offset %r14, -24
	movq	(%rdi), %rbx
	cmpl	$1, (%rbx)
	jne	LBB4_2
	addq	$4, %rbx
	leaq	L___unnamed_8(%rip), %rdx
	leaq	-48(%rbp), %r14
	movl	$4, %ecx
	movq	%r14, %rdi
	callq	__ZN4core3fmt9Formatter11debug_tuple17h6c448643801d07e8E
	movq	%rbx, -24(%rbp)
	leaq	l___unnamed_7(%rip), %rdx
	leaq	-24(%rbp), %rsi
	movq	%r14, %rdi
	callq	__ZN4core3fmt8builders10DebugTuple5field17hc7b676d0e36b51d9E
	movq	%r14, %rdi
	jmp	LBB4_3
LBB4_2:
	leaq	L___unnamed_9(%rip), %rdx
	leaq	-48(%rbp), %rbx
	movl	$4, %ecx
	movq	%rbx, %rdi
	callq	__ZN4core3fmt9Formatter11debug_tuple17h6c448643801d07e8E
	movq	%rbx, %rdi
LBB4_3:
	callq	__ZN4core3fmt8builders10DebugTuple6finish17h9f206806f7096c33E
	addq	$32, %rsp
	popq	%rbx
	popq	%r14
	popq	%rbp
	retq
	.cfi_endproc

	.p2align	4, 0x90
__ZN42_$LT$$RF$T$u20$as$u20$core..fmt..Debug$GT$3fmt17h2007d3de93afc450E:
	.cfi_startproc
	pushq	%rbp
	.cfi_def_cfa_offset 16
	.cfi_offset %rbp, -16
	movq	%rsp, %rbp
	.cfi_def_cfa_register %rbp
	pushq	%r15
	pushq	%r14
	pushq	%r13
	pushq	%r12
	pushq	%rbx
	subq	$24, %rsp
	.cfi_offset %rbx, -56
	.cfi_offset %r12, -48
	.cfi_offset %r13, -40
	.cfi_offset %r14, -32
	.cfi_offset %r15, -24
	movq	(%rdi), %rax
	movq	(%rax), %rbx
	movq	16(%rax), %r13
	leaq	-64(%rbp), %rdi
	callq	__ZN4core3fmt9Formatter10debug_list17h113a4e31f24f00d7E
	testq	%r13, %r13
	je	LBB5_3
	shlq	$3, %r13
	leaq	l___unnamed_10(%rip), %r14
	leaq	-64(%rbp), %r15
	leaq	-48(%rbp), %r12
	.p2align	4, 0x90
LBB5_2:
	movq	%rbx, -48(%rbp)
	addq	$8, %rbx
	movq	%r15, %rdi
	movq	%r12, %rsi
	movq	%r14, %rdx
	callq	__ZN4core3fmt8builders9DebugList5entry17h2dea26f6c644471aE
	addq	$-8, %r13
	jne	LBB5_2
LBB5_3:
	leaq	-64(%rbp), %rdi
	callq	__ZN4core3fmt8builders9DebugList6finish17h1537bc92ee1acb1cE
	addq	$24, %rsp
	popq	%rbx
	popq	%r12
	popq	%r13
	popq	%r14
	popq	%r15
	popq	%rbp
	retq
	.cfi_endproc

	.p2align	4, 0x90
__ZN42_$LT$$RF$T$u20$as$u20$core..fmt..Debug$GT$3fmt17h3ce969053a97b4ccE:
	.cfi_startproc
	pushq	%rbp
	.cfi_def_cfa_offset 16
	.cfi_offset %rbp, -16
	movq	%rsp, %rbp
	.cfi_def_cfa_register %rbp
	pushq	%r15
	pushq	%r14
	pushq	%rbx
	subq	$40, %rsp
	.cfi_offset %rbx, -40
	.cfi_offset %r14, -32
	.cfi_offset %r15, -24
	movq	(%rdi), %rbx
	leaq	l___unnamed_11(%rip), %rdx
	leaq	-64(%rbp), %r15
	movq	%r15, %rdi
	xorl	%ecx, %ecx
	callq	__ZN4core3fmt9Formatter11debug_tuple17h6c448643801d07e8E
	movq	%rbx, -32(%rbp)
	addq	$4, %rbx
	movq	%rbx, -40(%rbp)
	leaq	l___unnamed_12(%rip), %r14
	leaq	-32(%rbp), %rsi
	movq	%r15, %rdi
	movq	%r14, %rdx
	callq	__ZN4core3fmt8builders10DebugTuple5field17hc7b676d0e36b51d9E
	leaq	-40(%rbp), %rsi
	movq	%r15, %rdi
	movq	%r14, %rdx
	callq	__ZN4core3fmt8builders10DebugTuple5field17hc7b676d0e36b51d9E
	movq	%r15, %rdi
	callq	__ZN4core3fmt8builders10DebugTuple6finish17h9f206806f7096c33E
	addq	$40, %rsp
	popq	%rbx
	popq	%r14
	popq	%r15
	popq	%rbp
	retq
	.cfi_endproc

	.p2align	4, 0x90
__ZN42_$LT$$RF$T$u20$as$u20$core..fmt..Debug$GT$3fmt17h41f3e12c8ce93114E:
	.cfi_startproc
	pushq	%rbp
	.cfi_def_cfa_offset 16
	.cfi_offset %rbp, -16
	movq	%rsp, %rbp
	.cfi_def_cfa_register %rbp
	pushq	%r14
	pushq	%rbx
	subq	$32, %rsp
	.cfi_offset %rbx, -32
	.cfi_offset %r14, -24
	movq	(%rdi), %rbx
	cmpl	$1, (%rbx)
	jne	LBB7_2
	addq	$4, %rbx
	leaq	L___unnamed_8(%rip), %rdx
	leaq	-48(%rbp), %r14
	movl	$4, %ecx
	movq	%r14, %rdi
	callq	__ZN4core3fmt9Formatter11debug_tuple17h6c448643801d07e8E
	movq	%rbx, -24(%rbp)
	leaq	l___unnamed_12(%rip), %rdx
	leaq	-24(%rbp), %rsi
	movq	%r14, %rdi
	callq	__ZN4core3fmt8builders10DebugTuple5field17hc7b676d0e36b51d9E
	movq	%r14, %rdi
	jmp	LBB7_3
LBB7_2:
	leaq	L___unnamed_9(%rip), %rdx
	leaq	-48(%rbp), %rbx
	movl	$4, %ecx
	movq	%rbx, %rdi
	callq	__ZN4core3fmt9Formatter11debug_tuple17h6c448643801d07e8E
	movq	%rbx, %rdi
LBB7_3:
	callq	__ZN4core3fmt8builders10DebugTuple6finish17h9f206806f7096c33E
	addq	$32, %rsp
	popq	%rbx
	popq	%r14
	popq	%rbp
	retq
	.cfi_endproc

	.p2align	4, 0x90
__ZN42_$LT$$RF$T$u20$as$u20$core..fmt..Debug$GT$3fmt17h5723a15332c90575E:
	.cfi_startproc
	pushq	%rbp
	.cfi_def_cfa_offset 16
	.cfi_offset %rbp, -16
	movq	%rsp, %rbp
	.cfi_def_cfa_register %rbp
	pushq	%r15
	pushq	%r14
	pushq	%r13
	pushq	%r12
	pushq	%rbx
	subq	$24, %rsp
	.cfi_offset %rbx, -56
	.cfi_offset %r12, -48
	.cfi_offset %r13, -40
	.cfi_offset %r14, -32
	.cfi_offset %r15, -24
	movq	(%rdi), %rax
	movq	(%rax), %r13
	movq	16(%rax), %rbx
	leaq	-64(%rbp), %rdi
	callq	__ZN4core3fmt9Formatter10debug_list17h113a4e31f24f00d7E
	testq	%rbx, %rbx
	je	LBB8_3
	shlq	$2, %rbx
	leaq	(%rbx,%rbx,4), %rbx
	leaq	l___unnamed_13(%rip), %r14
	leaq	-64(%rbp), %r15
	leaq	-48(%rbp), %r12
	.p2align	4, 0x90
LBB8_2:
	movq	%r13, -48(%rbp)
	addq	$20, %r13
	movq	%r15, %rdi
	movq	%r12, %rsi
	movq	%r14, %rdx
	callq	__ZN4core3fmt8builders9DebugList5entry17h2dea26f6c644471aE
	addq	$-20, %rbx
	jne	LBB8_2
LBB8_3:
	leaq	-64(%rbp), %rdi
	callq	__ZN4core3fmt8builders9DebugList6finish17h1537bc92ee1acb1cE
	addq	$24, %rsp
	popq	%rbx
	popq	%r12
	popq	%r13
	popq	%r14
	popq	%r15
	popq	%rbp
	retq
	.cfi_endproc

	.p2align	4, 0x90
__ZN42_$LT$$RF$T$u20$as$u20$core..fmt..Debug$GT$3fmt17h5e7a3155b52fd580E:
	.cfi_startproc
	pushq	%rbp
	.cfi_def_cfa_offset 16
	.cfi_offset %rbp, -16
	movq	%rsp, %rbp
	.cfi_def_cfa_register %rbp
	pushq	%r14
	pushq	%rbx
	subq	$32, %rsp
	.cfi_offset %rbx, -32
	.cfi_offset %r14, -24
	movq	(%rdi), %rbx
	leaq	l___unnamed_14(%rip), %rdx
	leaq	-40(%rbp), %r14
	movl	$7, %ecx
	movq	%r14, %rdi
	callq	__ZN4core3fmt9Formatter12debug_struct17ha1a64e91d2a98458E
	movq	%rbx, -24(%rbp)
	addq	$24, %rbx
	leaq	l___unnamed_15(%rip), %rsi
	leaq	l___unnamed_16(%rip), %r8
	leaq	-24(%rbp), %rcx
	movl	$3, %edx
	movq	%r14, %rdi
	callq	__ZN4core3fmt8builders11DebugStruct5field17h6c54d35ac41bb1e6E
	movq	%rbx, -24(%rbp)
	leaq	l___unnamed_17(%rip), %rsi
	leaq	l___unnamed_12(%rip), %r8
	leaq	-24(%rbp), %rcx
	movl	$3, %edx
	movq	%r14, %rdi
	callq	__ZN4core3fmt8builders11DebugStruct5field17h6c54d35ac41bb1e6E
	movq	%r14, %rdi
	callq	__ZN4core3fmt8builders11DebugStruct6finish17h67ed49fd5e81bb24E
	addq	$32, %rsp
	popq	%rbx
	popq	%r14
	popq	%rbp
	retq
	.cfi_endproc

	.p2align	4, 0x90
__ZN42_$LT$$RF$T$u20$as$u20$core..fmt..Debug$GT$3fmt17h633954fe46217f19E:
	.cfi_startproc
	pushq	%rbp
	.cfi_def_cfa_offset 16
	.cfi_offset %rbp, -16
	movq	%rsp, %rbp
	.cfi_def_cfa_register %rbp
	movq	(%rdi), %rdi
	popq	%rbp
	jmp	__ZN43_$LT$bool$u20$as$u20$core..fmt..Display$GT$3fmt17hd78396651a24cfbbE
	.cfi_endproc

	.p2align	4, 0x90
__ZN42_$LT$$RF$T$u20$as$u20$core..fmt..Debug$GT$3fmt17h68021183f45b1d58E:
	.cfi_startproc
	pushq	%rbp
	.cfi_def_cfa_offset 16
	.cfi_offset %rbp, -16
	movq	%rsp, %rbp
	.cfi_def_cfa_register %rbp
	pushq	%rbx
	subq	$24, %rsp
	.cfi_offset %rbx, -24
	movq	(%rdi), %rax
	cmpb	$1, (%rax)
	jne	LBB11_2
	leaq	l___unnamed_18(%rip), %rdx
	leaq	-32(%rbp), %rbx
	movl	$11, %ecx
	jmp	LBB11_3
LBB11_2:
	leaq	l___unnamed_19(%rip), %rdx
	leaq	-32(%rbp), %rbx
	movl	$3, %ecx
LBB11_3:
	movq	%rbx, %rdi
	callq	__ZN4core3fmt9Formatter11debug_tuple17h6c448643801d07e8E
	movq	%rbx, %rdi
	callq	__ZN4core3fmt8builders10DebugTuple6finish17h9f206806f7096c33E
	addq	$24, %rsp
	popq	%rbx
	popq	%rbp
	retq
	.cfi_endproc

	.p2align	4, 0x90
__ZN42_$LT$$RF$T$u20$as$u20$core..fmt..Debug$GT$3fmt17h6f54a28d8b0852ffE:
	.cfi_startproc
	pushq	%rbp
	.cfi_def_cfa_offset 16
	.cfi_offset %rbp, -16
	movq	%rsp, %rbp
	.cfi_def_cfa_register %rbp
	pushq	%r14
	pushq	%rbx
	.cfi_offset %rbx, -32
	.cfi_offset %r14, -24
	movq	%rsi, %rbx
	movq	(%rdi), %r14
	movq	%rsi, %rdi
	callq	__ZN4core3fmt9Formatter15debug_lower_hex17hd07f6fde8d0365dfE
	testb	%al, %al
	je	LBB12_1
	movq	%r14, %rdi
	movq	%rbx, %rsi
	popq	%rbx
	popq	%r14
	popq	%rbp
	jmp	__ZN4core3fmt3num53_$LT$impl$u20$core..fmt..LowerHex$u20$for$u20$u32$GT$3fmt17h019ba2b9dd60d385E
LBB12_1:
	movq	%rbx, %rdi
	callq	__ZN4core3fmt9Formatter15debug_upper_hex17hf480c256a9c81c1eE
	movq	%r14, %rdi
	movq	%rbx, %rsi
	testb	%al, %al
	je	LBB12_4
	popq	%rbx
	popq	%r14
	popq	%rbp
	jmp	__ZN4core3fmt3num53_$LT$impl$u20$core..fmt..UpperHex$u20$for$u20$u32$GT$3fmt17h7bd10b5f3c9584f1E
LBB12_4:
	popq	%rbx
	popq	%r14
	popq	%rbp
	jmp	__ZN4core3fmt3num3imp52_$LT$impl$u20$core..fmt..Display$u20$for$u20$u32$GT$3fmt17hb70882cf65fd1a66E
	.cfi_endproc

	.p2align	4, 0x90
__ZN42_$LT$$RF$T$u20$as$u20$core..fmt..Debug$GT$3fmt17h703853eaddd16aa1E:
	.cfi_startproc
	pushq	%rbp
	.cfi_def_cfa_offset 16
	.cfi_offset %rbp, -16
	movq	%rsp, %rbp
	.cfi_def_cfa_register %rbp
	pushq	%r14
	pushq	%rbx
	subq	$32, %rsp
	.cfi_offset %rbx, -32
	.cfi_offset %r14, -24
	movq	(%rdi), %rbx
	leaq	l___unnamed_20(%rip), %rdx
	leaq	-48(%rbp), %r14
	movl	$6, %ecx
	movq	%r14, %rdi
	callq	__ZN4core3fmt9Formatter11debug_tuple17h6c448643801d07e8E
	movq	%rbx, -24(%rbp)
	leaq	l___unnamed_12(%rip), %rdx
	leaq	-24(%rbp), %rsi
	movq	%r14, %rdi
	callq	__ZN4core3fmt8builders10DebugTuple5field17hc7b676d0e36b51d9E
	movq	%r14, %rdi
	callq	__ZN4core3fmt8builders10DebugTuple6finish17h9f206806f7096c33E
	addq	$32, %rsp
	popq	%rbx
	popq	%r14
	popq	%rbp
	retq
	.cfi_endproc

	.p2align	4, 0x90
__ZN42_$LT$$RF$T$u20$as$u20$core..fmt..Debug$GT$3fmt17h738b91e8a541e69aE:
	.cfi_startproc
	pushq	%rbp
	.cfi_def_cfa_offset 16
	.cfi_offset %rbp, -16
	movq	%rsp, %rbp
	.cfi_def_cfa_register %rbp
	pushq	%r14
	pushq	%rbx
	subq	$48, %rsp
	.cfi_offset %rbx, -32
	.cfi_offset %r14, -24
	movq	(%rdi), %rbx
	leaq	l___unnamed_11(%rip), %rdx
	leaq	-56(%rbp), %r14
	movq	%r14, %rdi
	xorl	%ecx, %ecx
	callq	__ZN4core3fmt9Formatter11debug_tuple17h6c448643801d07e8E
	movq	%rbx, -24(%rbp)
	addq	$4, %rbx
	movq	%rbx, -32(%rbp)
	leaq	l___unnamed_6(%rip), %rdx
	leaq	-24(%rbp), %rsi
	movq	%r14, %rdi
	callq	__ZN4core3fmt8builders10DebugTuple5field17hc7b676d0e36b51d9E
	leaq	l___unnamed_21(%rip), %rdx
	leaq	-32(%rbp), %rsi
	movq	%r14, %rdi
	callq	__ZN4core3fmt8builders10DebugTuple5field17hc7b676d0e36b51d9E
	movq	%r14, %rdi
	callq	__ZN4core3fmt8builders10DebugTuple6finish17h9f206806f7096c33E
	addq	$48, %rsp
	popq	%rbx
	popq	%r14
	popq	%rbp
	retq
	.cfi_endproc

	.p2align	4, 0x90
__ZN42_$LT$$RF$T$u20$as$u20$core..fmt..Debug$GT$3fmt17h8d8243aaa5efb9dfE:
	.cfi_startproc
	pushq	%rbp
	.cfi_def_cfa_offset 16
	.cfi_offset %rbp, -16
	movq	%rsp, %rbp
	.cfi_def_cfa_register %rbp
	subq	$80, %rsp
	movq	%rsi, %rax
	movq	(%rdi), %rcx
	cmpl	$-1, (%rcx)
	je	LBB15_2
	movq	%rcx, -56(%rbp)
	leaq	-56(%rbp), %rcx
	movq	%rcx, -72(%rbp)
	leaq	__ZN42_$LT$$RF$T$u20$as$u20$core..fmt..Debug$GT$3fmt17h6f54a28d8b0852ffE(%rip), %rcx
	movq	%rcx, -64(%rbp)
	leaq	l___unnamed_22(%rip), %rcx
	movq	%rcx, -48(%rbp)
	movq	$2, -40(%rbp)
	movq	$0, -32(%rbp)
	leaq	-72(%rbp), %rcx
	movq	%rcx, -16(%rbp)
	movq	$1, -8(%rbp)
	jmp	LBB15_3
LBB15_2:
	leaq	l___unnamed_23(%rip), %rcx
	movq	%rcx, -48(%rbp)
	movq	$1, -40(%rbp)
	movq	$0, -32(%rbp)
	leaq	l___unnamed_11(%rip), %rcx
	movq	%rcx, -16(%rbp)
	movq	$0, -8(%rbp)
LBB15_3:
	leaq	-48(%rbp), %rsi
	movq	%rax, %rdi
	callq	__ZN4core3fmt9Formatter9write_fmt17h742ca6aae87ad23cE
	addq	$80, %rsp
	popq	%rbp
	retq
	.cfi_endproc

	.p2align	4, 0x90
__ZN42_$LT$$RF$T$u20$as$u20$core..fmt..Debug$GT$3fmt17h96bec4abff623306E:
	.cfi_startproc
	pushq	%rbp
	.cfi_def_cfa_offset 16
	.cfi_offset %rbp, -16
	movq	%rsp, %rbp
	.cfi_def_cfa_register %rbp
	pushq	%r15
	pushq	%r14
	pushq	%r13
	pushq	%r12
	pushq	%rbx
	subq	$136, %rsp
	.cfi_offset %rbx, -56
	.cfi_offset %r12, -48
	.cfi_offset %r13, -40
	.cfi_offset %r14, -32
	.cfi_offset %r15, -24
	movq	(%rdi), %r14
	leaq	-168(%rbp), %rdi
	callq	__ZN4core3fmt9Formatter9debug_map17h61faa4280f099e87E
	movq	(%r14), %rcx
	testq	%rcx, %rcx
	je	LBB16_1
	movq	8(%r14), %rsi
	movzwl	10(%rcx), %edx
	testq	%rsi, %rsi
	je	LBB16_3
	movb	$1, %bl
	movq	%rcx, %r8
	.p2align	4, 0x90
LBB16_6:
	testb	$1, %bl
	je	LBB16_4
	cmpq	$1, %rsi
	setne	%bl
	movq	408(%r8), %r8
	movq	408(%rcx,%rdx,8), %rcx
	movzwl	10(%rcx), %edx
	decq	%rsi
	jne	LBB16_6
	jmp	LBB16_8
LBB16_1:
	xorl	%ecx, %ecx
	xorl	%r8d, %r8d
	xorl	%esi, %esi
	jmp	LBB16_9
LBB16_3:
	movq	%rcx, %r8
LBB16_8:
	movq	16(%r14), %rsi
	xorps	%xmm0, %xmm0
	movaps	%xmm0, -64(%rbp)
	movq	$0, -48(%rbp)
LBB16_9:
	movq	$0, -136(%rbp)
	movq	%r8, -128(%rbp)
	movq	-64(%rbp), %rax
	movq	-56(%rbp), %rdi
	movq	%rax, -120(%rbp)
	movq	%rdi, -112(%rbp)
	movq	-48(%rbp), %rax
	movq	%rax, -104(%rbp)
	movq	%rcx, -96(%rbp)
	movq	$0, -88(%rbp)
	movq	%rdx, -80(%rbp)
	movq	%rsi, -72(%rbp)
	testq	%rsi, %rsi
	je	LBB16_28
	leaq	l___unnamed_24(%rip), %r15
	leaq	-168(%rbp), %r12
	leaq	-144(%rbp), %r13
	leaq	-152(%rbp), %r14
	.p2align	4, 0x90
LBB16_11:
	decq	%rsi
	movq	%rsi, -72(%rbp)
	testq	%r8, %r8
	leaq	-136(%rbp), %rax
	cmovneq	%rax, %r8
	movq	(%r8), %rbx
	movq	8(%r8), %rcx
	movq	24(%r8), %rdx
	movzwl	10(%rcx), %eax
	cmpq	%rax, %rdx
	jb	LBB16_16
	.p2align	4, 0x90
LBB16_12:
	movq	(%rcx), %rsi
	testq	%rsi, %rsi
	je	LBB16_13
	incq	%rbx
	movzwl	8(%rcx), %edx
	movq	%rsi, %rcx
	cmpw	10(%rsi), %dx
	jae	LBB16_12
	movq	%rsi, %rcx
LBB16_16:
	testq	%rbx, %rbx
	je	LBB16_17
LBB16_18:
	movq	%rbx, %rsi
	movq	416(%rcx,%rdx,8), %rdi
	decq	%rsi
	je	LBB16_25
	addq	$-2, %rbx
	movq	%rsi, %r9
	andq	$7, %r9
	je	LBB16_23
	xorl	%eax, %eax
	.p2align	4, 0x90
LBB16_21:
	movq	408(%rdi), %rdi
	incq	%rax
	cmpq	%rax, %r9
	jne	LBB16_21
	subq	%rax, %rsi
LBB16_23:
	cmpq	$7, %rbx
	jb	LBB16_25
	.p2align	4, 0x90
LBB16_24:
	movq	408(%rdi), %rax
	movq	408(%rax), %rax
	movq	408(%rax), %rax
	movq	408(%rax), %rax
	movq	408(%rax), %rax
	movq	408(%rax), %rax
	movq	408(%rax), %rax
	movq	408(%rax), %rdi
	addq	$-8, %rsi
	jne	LBB16_24
LBB16_25:
	xorl	%eax, %eax
	jmp	LBB16_26
	.p2align	4, 0x90
LBB16_13:
	xorl	%ecx, %ecx
	testq	%rbx, %rbx
	jne	LBB16_18
LBB16_17:
	leaq	1(%rdx), %rax
	movq	%rcx, %rdi
LBB16_26:
	leaq	12(%rcx,%rdx,4), %rsi
	shlq	$5, %rdx
	leaq	56(%rcx,%rdx), %rcx
	movq	$0, (%r8)
	movq	%rdi, 8(%r8)
	movq	%rax, 24(%r8)
	movq	%rsi, -144(%rbp)
	movq	%rcx, -152(%rbp)
	movq	%r12, %rdi
	movq	%r13, %rsi
	leaq	l___unnamed_12(%rip), %rdx
	movq	%r14, %rcx
	movq	%r15, %r8
	callq	__ZN4core3fmt8builders8DebugMap5entry17h178ce595077c16c4E
	movq	-72(%rbp), %rsi
	testq	%rsi, %rsi
	je	LBB16_28
	movq	-128(%rbp), %r8
	jmp	LBB16_11
LBB16_28:
	leaq	-168(%rbp), %rdi
	callq	__ZN4core3fmt8builders8DebugMap6finish17h0bc0c46ca49f31deE
	addq	$136, %rsp
	popq	%rbx
	popq	%r12
	popq	%r13
	popq	%r14
	popq	%r15
	popq	%rbp
	retq
LBB16_4:
	leaq	l___unnamed_25(%rip), %rax
	movq	%rax, -64(%rbp)
	leaq	__ZN44_$LT$$RF$T$u20$as$u20$core..fmt..Display$GT$3fmt17hfb95635850f82291E(%rip), %rax
	movq	%rax, -56(%rbp)
	leaq	l___unnamed_26(%rip), %rax
	movq	%rax, -136(%rbp)
	movq	$1, -128(%rbp)
	movq	$0, -120(%rbp)
	leaq	-64(%rbp), %rax
	movq	%rax, -104(%rbp)
	movq	$1, -96(%rbp)
	leaq	l___unnamed_27(%rip), %rsi
	leaq	-136(%rbp), %rdi
	callq	__ZN4core9panicking9panic_fmt17hfce5b7173905fc53E
	.cfi_endproc

	.p2align	4, 0x90
__ZN42_$LT$$RF$T$u20$as$u20$core..fmt..Debug$GT$3fmt17ha8592c739cbc6f7fE:
	.cfi_startproc
	pushq	%rbp
	.cfi_def_cfa_offset 16
	.cfi_offset %rbp, -16
	movq	%rsp, %rbp
	.cfi_def_cfa_register %rbp
	pushq	%r14
	pushq	%rbx
	subq	$32, %rsp
	.cfi_offset %rbx, -32
	.cfi_offset %r14, -24
	movq	(%rdi), %rbx
	cmpl	$1, (%rbx)
	jne	LBB17_2
	addq	$4, %rbx
	leaq	L___unnamed_8(%rip), %rdx
	leaq	-48(%rbp), %r14
	movl	$4, %ecx
	movq	%r14, %rdi
	callq	__ZN4core3fmt9Formatter11debug_tuple17h6c448643801d07e8E
	movq	%rbx, -24(%rbp)
	leaq	l___unnamed_28(%rip), %rdx
	leaq	-24(%rbp), %rsi
	movq	%r14, %rdi
	callq	__ZN4core3fmt8builders10DebugTuple5field17hc7b676d0e36b51d9E
	movq	%r14, %rdi
	jmp	LBB17_3
LBB17_2:
	leaq	L___unnamed_9(%rip), %rdx
	leaq	-48(%rbp), %rbx
	movl	$4, %ecx
	movq	%rbx, %rdi
	callq	__ZN4core3fmt9Formatter11debug_tuple17h6c448643801d07e8E
	movq	%rbx, %rdi
LBB17_3:
	callq	__ZN4core3fmt8builders10DebugTuple6finish17h9f206806f7096c33E
	addq	$32, %rsp
	popq	%rbx
	popq	%r14
	popq	%rbp
	retq
	.cfi_endproc

	.p2align	4, 0x90
__ZN42_$LT$$RF$T$u20$as$u20$core..fmt..Debug$GT$3fmt17hb484e606d40d5d1aE:
	.cfi_startproc
	pushq	%rbp
	.cfi_def_cfa_offset 16
	.cfi_offset %rbp, -16
	movq	%rsp, %rbp
	.cfi_def_cfa_register %rbp
	pushq	%r15
	pushq	%r14
	pushq	%r13
	pushq	%r12
	pushq	%rbx
	subq	$136, %rsp
	.cfi_offset %rbx, -56
	.cfi_offset %r12, -48
	.cfi_offset %r13, -40
	.cfi_offset %r14, -32
	.cfi_offset %r15, -24
	movq	(%rdi), %r14
	leaq	-168(%rbp), %rdi
	callq	__ZN4core3fmt9Formatter9debug_map17h61faa4280f099e87E
	movq	(%r14), %rcx
	testq	%rcx, %rcx
	je	LBB18_1
	movq	8(%r14), %rsi
	movzwl	10(%rcx), %edx
	testq	%rsi, %rsi
	je	LBB18_3
	movb	$1, %bl
	movq	%rcx, %r8
	.p2align	4, 0x90
LBB18_6:
	testb	$1, %bl
	je	LBB18_4
	cmpq	$1, %rsi
	setne	%bl
	movq	104(%r8), %r8
	movq	104(%rcx,%rdx,8), %rcx
	movzwl	10(%rcx), %edx
	decq	%rsi
	jne	LBB18_6
	jmp	LBB18_8
LBB18_1:
	xorl	%ecx, %ecx
	xorl	%r8d, %r8d
	xorl	%esi, %esi
	jmp	LBB18_9
LBB18_3:
	movq	%rcx, %r8
LBB18_8:
	movq	16(%r14), %rsi
	xorps	%xmm0, %xmm0
	movaps	%xmm0, -64(%rbp)
	movq	$0, -48(%rbp)
LBB18_9:
	movq	$0, -136(%rbp)
	movq	%r8, -128(%rbp)
	movq	-64(%rbp), %rax
	movq	-56(%rbp), %rdi
	movq	%rax, -120(%rbp)
	movq	%rdi, -112(%rbp)
	movq	-48(%rbp), %rax
	movq	%rax, -104(%rbp)
	movq	%rcx, -96(%rbp)
	movq	$0, -88(%rbp)
	movq	%rdx, -80(%rbp)
	movq	%rsi, -72(%rbp)
	testq	%rsi, %rsi
	je	LBB18_28
	leaq	l___unnamed_12(%rip), %r15
	leaq	-168(%rbp), %r12
	leaq	-144(%rbp), %r13
	leaq	-152(%rbp), %r14
	.p2align	4, 0x90
LBB18_11:
	decq	%rsi
	movq	%rsi, -72(%rbp)
	testq	%r8, %r8
	leaq	-136(%rbp), %rax
	cmovneq	%rax, %r8
	movq	(%r8), %rbx
	movq	8(%r8), %rcx
	movq	24(%r8), %rdx
	movzwl	10(%rcx), %eax
	cmpq	%rax, %rdx
	jb	LBB18_16
	.p2align	4, 0x90
LBB18_12:
	movq	(%rcx), %rsi
	testq	%rsi, %rsi
	je	LBB18_13
	incq	%rbx
	movzwl	8(%rcx), %edx
	movq	%rsi, %rcx
	cmpw	10(%rsi), %dx
	jae	LBB18_12
	movq	%rsi, %rcx
LBB18_16:
	testq	%rbx, %rbx
	je	LBB18_17
LBB18_18:
	movq	%rbx, %rsi
	movq	112(%rcx,%rdx,8), %rdi
	decq	%rsi
	je	LBB18_25
	addq	$-2, %rbx
	movq	%rsi, %r9
	andq	$7, %r9
	je	LBB18_23
	xorl	%eax, %eax
	.p2align	4, 0x90
LBB18_21:
	movq	104(%rdi), %rdi
	incq	%rax
	cmpq	%rax, %r9
	jne	LBB18_21
	subq	%rax, %rsi
LBB18_23:
	cmpq	$7, %rbx
	jb	LBB18_25
	.p2align	4, 0x90
LBB18_24:
	movq	104(%rdi), %rax
	movq	104(%rax), %rax
	movq	104(%rax), %rax
	movq	104(%rax), %rax
	movq	104(%rax), %rax
	movq	104(%rax), %rax
	movq	104(%rax), %rax
	movq	104(%rax), %rdi
	addq	$-8, %rsi
	jne	LBB18_24
LBB18_25:
	xorl	%eax, %eax
	jmp	LBB18_26
	.p2align	4, 0x90
LBB18_13:
	xorl	%ecx, %ecx
	testq	%rbx, %rbx
	jne	LBB18_18
LBB18_17:
	leaq	1(%rdx), %rax
	movq	%rcx, %rdi
LBB18_26:
	leaq	12(%rcx,%rdx,4), %rsi
	leaq	56(%rcx,%rdx,4), %rcx
	movq	$0, (%r8)
	movq	%rdi, 8(%r8)
	movq	%rax, 24(%r8)
	movq	%rsi, -144(%rbp)
	movq	%rcx, -152(%rbp)
	movq	%r12, %rdi
	movq	%r13, %rsi
	leaq	l___unnamed_7(%rip), %rdx
	movq	%r14, %rcx
	movq	%r15, %r8
	callq	__ZN4core3fmt8builders8DebugMap5entry17h178ce595077c16c4E
	movq	-72(%rbp), %rsi
	testq	%rsi, %rsi
	je	LBB18_28
	movq	-128(%rbp), %r8
	jmp	LBB18_11
LBB18_28:
	leaq	-168(%rbp), %rdi
	callq	__ZN4core3fmt8builders8DebugMap6finish17h0bc0c46ca49f31deE
	addq	$136, %rsp
	popq	%rbx
	popq	%r12
	popq	%r13
	popq	%r14
	popq	%r15
	popq	%rbp
	retq
LBB18_4:
	leaq	l___unnamed_25(%rip), %rax
	movq	%rax, -64(%rbp)
	leaq	__ZN44_$LT$$RF$T$u20$as$u20$core..fmt..Display$GT$3fmt17hfb95635850f82291E(%rip), %rax
	movq	%rax, -56(%rbp)
	leaq	l___unnamed_26(%rip), %rax
	movq	%rax, -136(%rbp)
	movq	$1, -128(%rbp)
	movq	$0, -120(%rbp)
	leaq	-64(%rbp), %rax
	movq	%rax, -104(%rbp)
	movq	$1, -96(%rbp)
	leaq	l___unnamed_27(%rip), %rsi
	leaq	-136(%rbp), %rdi
	callq	__ZN4core9panicking9panic_fmt17hfce5b7173905fc53E
	.cfi_endproc

	.p2align	4, 0x90
__ZN42_$LT$$RF$T$u20$as$u20$core..fmt..Debug$GT$3fmt17hc686a8a0bcb2f455E:
	.cfi_startproc
	pushq	%rbp
	.cfi_def_cfa_offset 16
	.cfi_offset %rbp, -16
	movq	%rsp, %rbp
	.cfi_def_cfa_register %rbp
	pushq	%r14
	pushq	%rbx
	subq	$48, %rsp
	.cfi_offset %rbx, -32
	.cfi_offset %r14, -24
	movq	(%rdi), %rbx
	leaq	l___unnamed_11(%rip), %rdx
	leaq	-56(%rbp), %r14
	movq	%r14, %rdi
	xorl	%ecx, %ecx
	callq	__ZN4core3fmt9Formatter11debug_tuple17h6c448643801d07e8E
	movq	%rbx, -24(%rbp)
	addq	$4, %rbx
	movq	%rbx, -32(%rbp)
	leaq	l___unnamed_7(%rip), %rdx
	leaq	-24(%rbp), %rsi
	movq	%r14, %rdi
	callq	__ZN4core3fmt8builders10DebugTuple5field17hc7b676d0e36b51d9E
	leaq	l___unnamed_29(%rip), %rdx
	leaq	-32(%rbp), %rsi
	movq	%r14, %rdi
	callq	__ZN4core3fmt8builders10DebugTuple5field17hc7b676d0e36b51d9E
	movq	%r14, %rdi
	callq	__ZN4core3fmt8builders10DebugTuple6finish17h9f206806f7096c33E
	addq	$48, %rsp
	popq	%rbx
	popq	%r14
	popq	%rbp
	retq
	.cfi_endproc

	.p2align	4, 0x90
__ZN42_$LT$$RF$T$u20$as$u20$core..fmt..Debug$GT$3fmt17hc7ba7ed1c0b2adeaE:
	.cfi_startproc
	pushq	%rbp
	.cfi_def_cfa_offset 16
	.cfi_offset %rbp, -16
	movq	%rsp, %rbp
	.cfi_def_cfa_register %rbp
	movq	(%rdi), %rdi
	popq	%rbp
	jmp	__ZN61_$LT$cfg..sequence..Separator$u20$as$u20$core..fmt..Debug$GT$3fmt17h8e7c1c2e82890f30E
	.cfi_endproc

	.p2align	4, 0x90
__ZN42_$LT$$RF$T$u20$as$u20$core..fmt..Debug$GT$3fmt17hf378b2323db5d45dE:
	.cfi_startproc
	pushq	%rbp
	.cfi_def_cfa_offset 16
	.cfi_offset %rbp, -16
	movq	%rsp, %rbp
	.cfi_def_cfa_register %rbp
	pushq	%r14
	pushq	%rbx
	.cfi_offset %rbx, -32
	.cfi_offset %r14, -24
	movq	%rsi, %rbx
	movq	(%rdi), %r14
	movq	%rsi, %rdi
	callq	__ZN4core3fmt9Formatter15debug_lower_hex17hd07f6fde8d0365dfE
	testb	%al, %al
	je	LBB21_1
	movq	%r14, %rdi
	movq	%rbx, %rsi
	popq	%rbx
	popq	%r14
	popq	%rbp
	jmp	__ZN4core3fmt3num55_$LT$impl$u20$core..fmt..LowerHex$u20$for$u20$usize$GT$3fmt17hc47c170655f2f8b1E
LBB21_1:
	movq	%rbx, %rdi
	callq	__ZN4core3fmt9Formatter15debug_upper_hex17hf480c256a9c81c1eE
	movq	%r14, %rdi
	movq	%rbx, %rsi
	testb	%al, %al
	je	LBB21_4
	popq	%rbx
	popq	%r14
	popq	%rbp
	jmp	__ZN4core3fmt3num55_$LT$impl$u20$core..fmt..UpperHex$u20$for$u20$usize$GT$3fmt17he5a77a1ce12f6c22E
LBB21_4:
	popq	%rbx
	popq	%r14
	popq	%rbp
	jmp	__ZN4core3fmt3num3imp54_$LT$impl$u20$core..fmt..Display$u20$for$u20$usize$GT$3fmt17h12ea2856299c9b06E
	.cfi_endproc

	.p2align	4, 0x90
__ZN42_$LT$$RF$T$u20$as$u20$core..fmt..Debug$GT$3fmt17hf3ae97692eecb7daE:
	.cfi_startproc
	pushq	%rbp
	.cfi_def_cfa_offset 16
	.cfi_offset %rbp, -16
	movq	%rsp, %rbp
	.cfi_def_cfa_register %rbp
	pushq	%r15
	pushq	%r14
	pushq	%r13
	pushq	%r12
	pushq	%rbx
	subq	$136, %rsp
	.cfi_offset %rbx, -56
	.cfi_offset %r12, -48
	.cfi_offset %r13, -40
	.cfi_offset %r14, -32
	.cfi_offset %r15, -24
	movq	(%rdi), %r14
	leaq	-168(%rbp), %rdi
	callq	__ZN4core3fmt9Formatter9debug_map17h61faa4280f099e87E
	movq	(%r14), %rcx
	testq	%rcx, %rcx
	je	LBB22_1
	movq	8(%r14), %rsi
	movzwl	10(%rcx), %edx
	testq	%rsi, %rsi
	je	LBB22_3
	movb	$1, %bl
	movq	%rcx, %r8
	.p2align	4, 0x90
LBB22_6:
	testb	$1, %bl
	je	LBB22_4
	cmpq	$1, %rsi
	setne	%bl
	movq	72(%r8), %r8
	movq	72(%rcx,%rdx,8), %rcx
	movzwl	10(%rcx), %edx
	decq	%rsi
	jne	LBB22_6
	jmp	LBB22_8
LBB22_1:
	xorl	%ecx, %ecx
	xorl	%r8d, %r8d
	xorl	%esi, %esi
	jmp	LBB22_9
LBB22_3:
	movq	%rcx, %r8
LBB22_8:
	movq	16(%r14), %rsi
	xorps	%xmm0, %xmm0
	movaps	%xmm0, -64(%rbp)
	movq	$0, -48(%rbp)
LBB22_9:
	movq	$0, -136(%rbp)
	movq	%r8, -128(%rbp)
	movq	-64(%rbp), %rax
	movq	-56(%rbp), %rdi
	movq	%rax, -120(%rbp)
	movq	%rdi, -112(%rbp)
	movq	-48(%rbp), %rax
	movq	%rax, -104(%rbp)
	movq	%rcx, -96(%rbp)
	movq	$0, -88(%rbp)
	movq	%rdx, -80(%rbp)
	movq	%rsi, -72(%rbp)
	testq	%rsi, %rsi
	je	LBB22_28
	leaq	l___unnamed_30(%rip), %r15
	leaq	-168(%rbp), %r12
	leaq	-144(%rbp), %r13
	leaq	-152(%rbp), %r14
	.p2align	4, 0x90
LBB22_11:
	decq	%rsi
	movq	%rsi, -72(%rbp)
	testq	%r8, %r8
	leaq	-136(%rbp), %rax
	cmovneq	%rax, %r8
	movq	(%r8), %rbx
	movq	8(%r8), %rcx
	movq	24(%r8), %rdx
	movzwl	10(%rcx), %eax
	cmpq	%rax, %rdx
	jb	LBB22_16
	.p2align	4, 0x90
LBB22_12:
	movq	(%rcx), %rsi
	testq	%rsi, %rsi
	je	LBB22_13
	incq	%rbx
	movzwl	8(%rcx), %edx
	movq	%rsi, %rcx
	cmpw	10(%rsi), %dx
	jae	LBB22_12
	movq	%rsi, %rcx
LBB22_16:
	testq	%rbx, %rbx
	je	LBB22_17
LBB22_18:
	movq	%rbx, %rsi
	movq	80(%rcx,%rdx,8), %rdi
	decq	%rsi
	je	LBB22_25
	addq	$-2, %rbx
	movq	%rsi, %r9
	andq	$7, %r9
	je	LBB22_23
	xorl	%eax, %eax
	.p2align	4, 0x90
LBB22_21:
	movq	72(%rdi), %rdi
	incq	%rax
	cmpq	%rax, %r9
	jne	LBB22_21
	subq	%rax, %rsi
LBB22_23:
	cmpq	$7, %rbx
	jb	LBB22_25
	.p2align	4, 0x90
LBB22_24:
	movq	72(%rdi), %rax
	movq	72(%rax), %rax
	movq	72(%rax), %rax
	movq	72(%rax), %rax
	movq	72(%rax), %rax
	movq	72(%rax), %rax
	movq	72(%rax), %rax
	movq	72(%rax), %rdi
	addq	$-8, %rsi
	jne	LBB22_24
LBB22_25:
	xorl	%eax, %eax
	jmp	LBB22_26
	.p2align	4, 0x90
LBB22_13:
	xorl	%ecx, %ecx
	testq	%rbx, %rbx
	jne	LBB22_18
LBB22_17:
	leaq	1(%rdx), %rax
	movq	%rcx, %rdi
LBB22_26:
	leaq	12(%rcx,%rdx,4), %rsi
	leaq	56(%rcx,%rdx), %rcx
	movq	$0, (%r8)
	movq	%rdi, 8(%r8)
	movq	%rax, 24(%r8)
	movq	%rsi, -144(%rbp)
	movq	%rcx, -152(%rbp)
	movq	%r12, %rdi
	movq	%r13, %rsi
	leaq	l___unnamed_7(%rip), %rdx
	movq	%r14, %rcx
	movq	%r15, %r8
	callq	__ZN4core3fmt8builders8DebugMap5entry17h178ce595077c16c4E
	movq	-72(%rbp), %rsi
	testq	%rsi, %rsi
	je	LBB22_28
	movq	-128(%rbp), %r8
	jmp	LBB22_11
LBB22_28:
	leaq	-168(%rbp), %rdi
	callq	__ZN4core3fmt8builders8DebugMap6finish17h0bc0c46ca49f31deE
	addq	$136, %rsp
	popq	%rbx
	popq	%r12
	popq	%r13
	popq	%r14
	popq	%r15
	popq	%rbp
	retq
LBB22_4:
	leaq	l___unnamed_25(%rip), %rax
	movq	%rax, -64(%rbp)
	leaq	__ZN44_$LT$$RF$T$u20$as$u20$core..fmt..Display$GT$3fmt17hfb95635850f82291E(%rip), %rax
	movq	%rax, -56(%rbp)
	leaq	l___unnamed_26(%rip), %rax
	movq	%rax, -136(%rbp)
	movq	$1, -128(%rbp)
	movq	$0, -120(%rbp)
	leaq	-64(%rbp), %rax
	movq	%rax, -104(%rbp)
	movq	$1, -96(%rbp)
	leaq	l___unnamed_27(%rip), %rsi
	leaq	-136(%rbp), %rdi
	callq	__ZN4core9panicking9panic_fmt17hfce5b7173905fc53E
	.cfi_endproc

	.p2align	4, 0x90
__ZN42_$LT$$RF$T$u20$as$u20$core..fmt..Debug$GT$3fmt17hf66350d77e95e13dE:
	.cfi_startproc
	pushq	%rbp
	.cfi_def_cfa_offset 16
	.cfi_offset %rbp, -16
	movq	%rsp, %rbp
	.cfi_def_cfa_register %rbp
	pushq	%r14
	pushq	%rbx
	subq	$32, %rsp
	.cfi_offset %rbx, -32
	.cfi_offset %r14, -24
	movq	(%rdi), %rax
	movq	(%rax), %rbx
	addq	$16, %rbx
	leaq	L___unnamed_31(%rip), %rdx
	leaq	-40(%rbp), %r14
	movl	$8, %ecx
	movq	%r14, %rdi
	callq	__ZN4core3fmt9Formatter12debug_struct17ha1a64e91d2a98458E
	movq	%rbx, -24(%rbp)
	leaq	l___unnamed_32(%rip), %rsi
	leaq	l___unnamed_33(%rip), %r8
	leaq	-24(%rbp), %rcx
	movl	$3, %edx
	movq	%r14, %rdi
	callq	__ZN4core3fmt8builders11DebugStruct5field17h6c54d35ac41bb1e6E
	movq	%r14, %rdi
	callq	__ZN4core3fmt8builders11DebugStruct6finish17h67ed49fd5e81bb24E
	addq	$32, %rsp
	popq	%rbx
	popq	%r14
	popq	%rbp
	retq
	.cfi_endproc

	.p2align	4, 0x90
__ZN42_$LT$$RF$T$u20$as$u20$core..fmt..Debug$GT$3fmt17hfb468c07e54857dcE:
	.cfi_startproc
	pushq	%rbp
	.cfi_def_cfa_offset 16
	.cfi_offset %rbp, -16
	movq	%rsp, %rbp
	.cfi_def_cfa_register %rbp
	pushq	%r14
	pushq	%rbx
	subq	$32, %rsp
	.cfi_offset %rbx, -32
	.cfi_offset %r14, -24
	movq	(%rdi), %rbx
	cmpb	$2, 4(%rbx)
	jne	LBB24_1
	leaq	L___unnamed_9(%rip), %rdx
	leaq	-48(%rbp), %rbx
	movl	$4, %ecx
	movq	%rbx, %rdi
	callq	__ZN4core3fmt9Formatter11debug_tuple17h6c448643801d07e8E
	movq	%rbx, %rdi
	jmp	LBB24_3
LBB24_1:
	leaq	L___unnamed_8(%rip), %rdx
	leaq	-48(%rbp), %r14
	movl	$4, %ecx
	movq	%r14, %rdi
	callq	__ZN4core3fmt9Formatter11debug_tuple17h6c448643801d07e8E
	movq	%rbx, -24(%rbp)
	leaq	l___unnamed_34(%rip), %rdx
	leaq	-24(%rbp), %rsi
	movq	%r14, %rdi
	callq	__ZN4core3fmt8builders10DebugTuple5field17hc7b676d0e36b51d9E
	movq	%r14, %rdi
LBB24_3:
	callq	__ZN4core3fmt8builders10DebugTuple6finish17h9f206806f7096c33E
	addq	$32, %rsp
	popq	%rbx
	popq	%r14
	popq	%rbp
	retq
	.cfi_endproc

	.p2align	4, 0x90
__ZN44_$LT$$RF$T$u20$as$u20$core..fmt..Display$GT$3fmt17hfb95635850f82291E:
	.cfi_startproc
	pushq	%rbp
	.cfi_def_cfa_offset 16
	.cfi_offset %rbp, -16
	movq	%rsp, %rbp
	.cfi_def_cfa_register %rbp
	movq	%rsi, %rdx
	movq	(%rdi), %rax
	movq	8(%rdi), %rsi
	movq	%rax, %rdi
	popq	%rbp
	jmp	__ZN42_$LT$str$u20$as$u20$core..fmt..Display$GT$3fmt17h6768afae62e94f93E
	.cfi_endproc

	.p2align	4, 0x90
__ZN4core3fmt3num52_$LT$impl$u20$core..fmt..Debug$u20$for$u20$usize$GT$3fmt17h3ce1e8eb3a3c5c0bE:
	.cfi_startproc
	pushq	%rbp
	.cfi_def_cfa_offset 16
	.cfi_offset %rbp, -16
	movq	%rsp, %rbp
	.cfi_def_cfa_register %rbp
	pushq	%r14
	pushq	%rbx
	.cfi_offset %rbx, -32
	.cfi_offset %r14, -24
	movq	%rsi, %rbx
	movq	%rdi, %r14
	movq	%rsi, %rdi
	callq	__ZN4core3fmt9Formatter15debug_lower_hex17hd07f6fde8d0365dfE
	testb	%al, %al
	je	LBB26_1
	movq	%r14, %rdi
	movq	%rbx, %rsi
	popq	%rbx
	popq	%r14
	popq	%rbp
	jmp	__ZN4core3fmt3num55_$LT$impl$u20$core..fmt..LowerHex$u20$for$u20$usize$GT$3fmt17hc47c170655f2f8b1E
LBB26_1:
	movq	%rbx, %rdi
	callq	__ZN4core3fmt9Formatter15debug_upper_hex17hf480c256a9c81c1eE
	movq	%r14, %rdi
	movq	%rbx, %rsi
	testb	%al, %al
	je	LBB26_4
	popq	%rbx
	popq	%r14
	popq	%rbp
	jmp	__ZN4core3fmt3num55_$LT$impl$u20$core..fmt..UpperHex$u20$for$u20$usize$GT$3fmt17he5a77a1ce12f6c22E
LBB26_4:
	popq	%rbx
	popq	%r14
	popq	%rbp
	jmp	__ZN4core3fmt3num3imp54_$LT$impl$u20$core..fmt..Display$u20$for$u20$usize$GT$3fmt17h12ea2856299c9b06E
	.cfi_endproc

	.p2align	4, 0x90
__ZN4core3ptr13drop_in_place17h04e4229a8b40c6caE:
	.cfi_startproc
	pushq	%rbp
	.cfi_def_cfa_offset 16
	.cfi_offset %rbp, -16
	movq	%rsp, %rbp
	.cfi_def_cfa_register %rbp
	pushq	%rbx
	pushq	%rax
	.cfi_offset %rbx, -24
	movq	%rdi, %rbx
	movq	(%rdi), %rax
	movq	(%rax), %rdi
	callq	__ZN9hashbrown3raw23bucket_mask_to_capacity17h0acd005f12c39704E
	movq	(%rbx), %rcx
	subq	32(%rcx), %rax
	movq	%rax, 24(%rcx)
	addq	$8, %rsp
	popq	%rbx
	popq	%rbp
	retq
	.cfi_endproc

	.p2align	4, 0x90
__ZN4core3ptr13drop_in_place17h0d200b4042b557fdE:
	.cfi_startproc
	pushq	%rbp
	.cfi_def_cfa_offset 16
	.cfi_offset %rbp, -16
	movq	%rsp, %rbp
	.cfi_def_cfa_register %rbp
	popq	%rbp
	retq
	.cfi_endproc

	.p2align	4, 0x90
__ZN4core3ptr13drop_in_place17h1000560f57a6c276E:
	.cfi_startproc
	pushq	%rbp
	.cfi_def_cfa_offset 16
	.cfi_offset %rbp, -16
	movq	%rsp, %rbp
	.cfi_def_cfa_register %rbp
	pushq	%rbx
	pushq	%rax
	.cfi_offset %rbx, -24
	movq	%rdi, %rbx
	movq	24(%rdi), %rax
	testq	%rax, %rax
	je	LBB29_4
	movq	16(%rbx), %rdi
	testq	%rdi, %rdi
	je	LBB29_4
	leaq	(%rax,%rax,8), %rcx
	leaq	(%rcx,%rcx,2), %rsi
	addq	%rax, %rsi
	je	LBB29_4
	movl	$4, %edx
	callq	___rust_dealloc
LBB29_4:
	movq	56(%rbx), %rcx
	testq	%rcx, %rcx
	je	LBB29_10
	leaq	1(%rcx), %rax
	movl	$28, %edx
	xorl	%esi, %esi
	mulq	%rdx
	setno	%dl
	jo	LBB29_6
	movb	%dl, %sil
	shlq	$2, %rsi
	leaq	16(%rcx,%rsi), %rdx
	addq	$17, %rcx
	negq	%rsi
	andq	%rdx, %rsi
	subq	%rcx, %rsi
	addq	%rcx, %rsi
	jae	LBB29_8
LBB29_6:
	xorl	%edx, %edx
	jmp	LBB29_9
LBB29_10:
	addq	$8, %rsp
	popq	%rbx
	popq	%rbp
	retq
LBB29_8:
	leaq	(%rsi,%rax), %rcx
	xorl	%edi, %edi
	cmpq	$-15, %rcx
	setb	%dil
	shlq	$4, %rdi
	xorl	%edx, %edx
	addq	%rax, %rsi
	cmovaeq	%rdi, %rdx
LBB29_9:
	movq	64(%rbx), %rdi
	addq	$8, %rsp
	popq	%rbx
	popq	%rbp
	jmp	___rust_dealloc
	.cfi_endproc

	.p2align	4, 0x90
__ZN4core3ptr13drop_in_place17h148fc1b0e0e00dcbE:
	.cfi_startproc
	pushq	%rbp
	.cfi_def_cfa_offset 16
	.cfi_offset %rbp, -16
	movq	%rsp, %rbp
	.cfi_def_cfa_register %rbp
	pushq	%r15
	pushq	%r14
	pushq	%r12
	pushq	%rbx
	.cfi_offset %rbx, -48
	.cfi_offset %r12, -40
	.cfi_offset %r14, -32
	.cfi_offset %r15, -24
	movq	%rdi, %r14
	movq	(%rdi), %rbx
	movq	16(%rdi), %rax
	testq	%rax, %rax
	je	LBB30_8
	imulq	$56, %rax, %r15
	addq	%rbx, %r15
	jmp	LBB30_2
	.p2align	4, 0x90
LBB30_6:
	addq	$56, %rbx
	cmpq	%r15, %rbx
	je	LBB30_7
LBB30_2:
	movq	8(%rbx), %rax
	testq	%rax, %rax
	je	LBB30_6
	movq	(%rbx), %rdi
	testq	%rdi, %rdi
	je	LBB30_6
	shlq	$2, %rax
	leaq	(%rax,%rax,4), %rsi
	testq	%rsi, %rsi
	je	LBB30_6
	movl	$4, %edx
	callq	___rust_dealloc
	jmp	LBB30_6
LBB30_7:
	movq	(%r14), %rbx
LBB30_8:
	movq	8(%r14), %rax
	testq	%rax, %rax
	je	LBB30_12
	testq	%rbx, %rbx
	je	LBB30_12
	imulq	$56, %rax, %rsi
	testq	%rsi, %rsi
	je	LBB30_12
	movl	$8, %edx
	movq	%rbx, %rdi
	callq	___rust_dealloc
LBB30_12:
	movq	24(%r14), %r12
	movq	40(%r14), %rax
	testq	%rax, %rax
	je	LBB30_21
	shlq	$3, %rax
	leaq	(%rax,%rax,4), %r15
	xorl	%ebx, %ebx
	jmp	LBB30_14
	.p2align	4, 0x90
LBB30_19:
	addq	$40, %rbx
	cmpq	%rbx, %r15
	je	LBB30_20
LBB30_14:
	cmpl	$2, 24(%r12,%rbx)
	je	LBB30_19
	movq	8(%r12,%rbx), %rax
	testq	%rax, %rax
	je	LBB30_19
	movq	(%r12,%rbx), %rdi
	testq	%rdi, %rdi
	je	LBB30_19
	shlq	$2, %rax
	leaq	(%rax,%rax,4), %rsi
	testq	%rsi, %rsi
	je	LBB30_19
	movl	$4, %edx
	callq	___rust_dealloc
	jmp	LBB30_19
LBB30_20:
	movq	24(%r14), %r12
LBB30_21:
	movq	32(%r14), %rax
	testq	%rax, %rax
	je	LBB30_24
	testq	%r12, %r12
	je	LBB30_24
	shlq	$3, %rax
	leaq	(%rax,%rax,4), %rsi
	testq	%rsi, %rsi
	je	LBB30_24
	movl	$8, %edx
	movq	%r12, %rdi
	popq	%rbx
	popq	%r12
	popq	%r14
	popq	%r15
	popq	%rbp
	jmp	___rust_dealloc
LBB30_24:
	popq	%rbx
	popq	%r12
	popq	%r14
	popq	%r15
	popq	%rbp
	retq
	.cfi_endproc

	.p2align	4, 0x90
__ZN4core3ptr13drop_in_place17h1652717714353e42E:
	.cfi_startproc
	pushq	%rbp
	.cfi_def_cfa_offset 16
	.cfi_offset %rbp, -16
	movq	%rsp, %rbp
	.cfi_def_cfa_register %rbp
	cmpl	$2, 24(%rdi)
	je	LBB31_4
	movq	8(%rdi), %rax
	testq	%rax, %rax
	je	LBB31_4
	movq	(%rdi), %rdi
	testq	%rdi, %rdi
	je	LBB31_4
	shlq	$2, %rax
	leaq	(%rax,%rax,4), %rsi
	testq	%rsi, %rsi
	je	LBB31_4
	movl	$4, %edx
	popq	%rbp
	jmp	___rust_dealloc
LBB31_4:
	popq	%rbp
	retq
	.cfi_endproc

	.p2align	4, 0x90
__ZN4core3ptr13drop_in_place17h272fc69b4a73c685E:
	.cfi_startproc
	pushq	%rbp
	.cfi_def_cfa_offset 16
	.cfi_offset %rbp, -16
	movq	%rsp, %rbp
	.cfi_def_cfa_register %rbp
	pushq	%r15
	pushq	%r14
	pushq	%rbx
	pushq	%rax
	.cfi_offset %rbx, -40
	.cfi_offset %r14, -32
	.cfi_offset %r15, -24
	movq	%rdi, %r14
	movq	16(%rdi), %rbx
	movq	24(%rdi), %r15
	cmpq	%rbx, %r15
	jne	LBB32_1
LBB32_6:
	movq	8(%r14), %rax
	testq	%rax, %rax
	je	LBB32_8
	imulq	$56, %rax, %rsi
	testq	%rsi, %rsi
	je	LBB32_8
	movq	(%r14), %rdi
	movl	$8, %edx
	addq	$8, %rsp
	popq	%rbx
	popq	%r14
	popq	%r15
	popq	%rbp
	jmp	___rust_dealloc
	.p2align	4, 0x90
LBB32_5:
	addq	$56, %rbx
	cmpq	%r15, %rbx
	je	LBB32_6
LBB32_1:
	movq	8(%rbx), %rax
	testq	%rax, %rax
	je	LBB32_5
	movq	(%rbx), %rdi
	testq	%rdi, %rdi
	je	LBB32_5
	shlq	$2, %rax
	leaq	(%rax,%rax,4), %rsi
	testq	%rsi, %rsi
	je	LBB32_5
	movl	$4, %edx
	callq	___rust_dealloc
	jmp	LBB32_5
LBB32_8:
	addq	$8, %rsp
	popq	%rbx
	popq	%r14
	popq	%r15
	popq	%rbp
	retq
	.cfi_endproc

	.p2align	4, 0x90
__ZN4core3ptr13drop_in_place17h3938456cc78f2ad3E:
	.cfi_startproc
	pushq	%rbp
	.cfi_def_cfa_offset 16
	.cfi_offset %rbp, -16
	movq	%rsp, %rbp
	.cfi_def_cfa_register %rbp
	movq	8(%rdi), %rsi
	testq	%rsi, %rsi
	je	LBB33_3
	movq	(%rdi), %rdi
	testq	%rdi, %rdi
	je	LBB33_3
	shlq	$2, %rsi
	testq	%rsi, %rsi
	je	LBB33_3
	movl	$4, %edx
	popq	%rbp
	jmp	___rust_dealloc
LBB33_3:
	popq	%rbp
	retq
	.cfi_endproc

	.p2align	4, 0x90
__ZN4core3ptr13drop_in_place17h3b1c29f7a5d83682E:
	.cfi_startproc
	pushq	%rbp
	.cfi_def_cfa_offset 16
	.cfi_offset %rbp, -16
	movq	%rsp, %rbp
	.cfi_def_cfa_register %rbp
	movq	8(%rdi), %rsi
	testq	%rsi, %rsi
	je	LBB34_3
	movq	(%rdi), %rdi
	testq	%rdi, %rdi
	je	LBB34_3
	shlq	$4, %rsi
	je	LBB34_3
	movl	$8, %edx
	popq	%rbp
	jmp	___rust_dealloc
LBB34_3:
	popq	%rbp
	retq
	.cfi_endproc

	.p2align	4, 0x90
__ZN4core3ptr13drop_in_place17h3cbbbfaeeca2c8baE:
	.cfi_startproc
	pushq	%rbp
	.cfi_def_cfa_offset 16
	.cfi_offset %rbp, -16
	movq	%rsp, %rbp
	.cfi_def_cfa_register %rbp
	popq	%rbp
	jmp	__ZN4core3ptr13drop_in_place17h148fc1b0e0e00dcbE
	.cfi_endproc

	.p2align	4, 0x90
__ZN4core3ptr13drop_in_place17h4335dbfb8f379d7fE:
	.cfi_startproc
	pushq	%rbp
	.cfi_def_cfa_offset 16
	.cfi_offset %rbp, -16
	movq	%rsp, %rbp
	.cfi_def_cfa_register %rbp
	movq	8(%rdi), %rax
	movq	16(%rdi), %rcx
	movq	%rcx, (%rax)
	popq	%rbp
	retq
	.cfi_endproc

	.p2align	4, 0x90
__ZN4core3ptr13drop_in_place17h56480beb30a4d4e5E:
	.cfi_startproc
	pushq	%rbp
	.cfi_def_cfa_offset 16
	.cfi_offset %rbp, -16
	movq	%rsp, %rbp
	.cfi_def_cfa_register %rbp
	movq	8(%rdi), %rax
	testq	%rax, %rax
	je	LBB37_3
	movq	(%rdi), %rdi
	testq	%rdi, %rdi
	je	LBB37_3
	shlq	$3, %rax
	leaq	(%rax,%rax,4), %rsi
	testq	%rsi, %rsi
	je	LBB37_3
	movl	$8, %edx
	popq	%rbp
	jmp	___rust_dealloc
LBB37_3:
	popq	%rbp
	retq
	.cfi_endproc

	.p2align	4, 0x90
__ZN4core3ptr13drop_in_place17h591842237918670eE:
	.cfi_startproc
	pushq	%rbp
	.cfi_def_cfa_offset 16
	.cfi_offset %rbp, -16
	movq	%rsp, %rbp
	.cfi_def_cfa_register %rbp
	pushq	%r15
	pushq	%r14
	pushq	%r12
	pushq	%rbx
	.cfi_offset %rbx, -48
	.cfi_offset %r12, -40
	.cfi_offset %r14, -32
	.cfi_offset %r15, -24
	movq	%rdi, %r14
	movq	(%rdi), %r12
	movq	16(%rdi), %rax
	testq	%rax, %rax
	je	LBB38_9
	shlq	$3, %rax
	leaq	(%rax,%rax,4), %r15
	xorl	%ebx, %ebx
	jmp	LBB38_2
	.p2align	4, 0x90
LBB38_7:
	addq	$40, %rbx
	cmpq	%rbx, %r15
	je	LBB38_8
LBB38_2:
	cmpl	$2, 24(%r12,%rbx)
	je	LBB38_7
	movq	8(%r12,%rbx), %rax
	testq	%rax, %rax
	je	LBB38_7
	movq	(%r12,%rbx), %rdi
	testq	%rdi, %rdi
	je	LBB38_7
	shlq	$2, %rax
	leaq	(%rax,%rax,4), %rsi
	testq	%rsi, %rsi
	je	LBB38_7
	movl	$4, %edx
	callq	___rust_dealloc
	jmp	LBB38_7
LBB38_8:
	movq	(%r14), %r12
LBB38_9:
	movq	8(%r14), %rax
	testq	%rax, %rax
	je	LBB38_12
	testq	%r12, %r12
	je	LBB38_12
	shlq	$3, %rax
	leaq	(%rax,%rax,4), %rsi
	testq	%rsi, %rsi
	je	LBB38_12
	movl	$8, %edx
	movq	%r12, %rdi
	popq	%rbx
	popq	%r12
	popq	%r14
	popq	%r15
	popq	%rbp
	jmp	___rust_dealloc
LBB38_12:
	popq	%rbx
	popq	%r12
	popq	%r14
	popq	%r15
	popq	%rbp
	retq
	.cfi_endproc

	.p2align	4, 0x90
__ZN4core3ptr13drop_in_place17h68c933fb7552fd9cE:
	.cfi_startproc
	pushq	%rbp
	.cfi_def_cfa_offset 16
	.cfi_offset %rbp, -16
	movq	%rsp, %rbp
	.cfi_def_cfa_register %rbp
	pushq	%r15
	pushq	%r14
	pushq	%rbx
	pushq	%rax
	.cfi_offset %rbx, -40
	.cfi_offset %r14, -32
	.cfi_offset %r15, -24
	movq	%rdi, %r14
	movq	(%rdi), %rbx
	movq	16(%rdi), %rax
	testq	%rax, %rax
	je	LBB39_8
	imulq	$56, %rax, %r15
	addq	%rbx, %r15
	jmp	LBB39_2
	.p2align	4, 0x90
LBB39_6:
	addq	$56, %rbx
	cmpq	%r15, %rbx
	je	LBB39_7
LBB39_2:
	movq	8(%rbx), %rax
	testq	%rax, %rax
	je	LBB39_6
	movq	(%rbx), %rdi
	testq	%rdi, %rdi
	je	LBB39_6
	shlq	$2, %rax
	leaq	(%rax,%rax,4), %rsi
	testq	%rsi, %rsi
	je	LBB39_6
	movl	$4, %edx
	callq	___rust_dealloc
	jmp	LBB39_6
LBB39_7:
	movq	(%r14), %rbx
LBB39_8:
	movq	8(%r14), %rax
	testq	%rax, %rax
	je	LBB39_11
	testq	%rbx, %rbx
	je	LBB39_11
	imulq	$56, %rax, %rsi
	testq	%rsi, %rsi
	je	LBB39_11
	movl	$8, %edx
	movq	%rbx, %rdi
	addq	$8, %rsp
	popq	%rbx
	popq	%r14
	popq	%r15
	popq	%rbp
	jmp	___rust_dealloc
LBB39_11:
	addq	$8, %rsp
	popq	%rbx
	popq	%r14
	popq	%r15
	popq	%rbp
	retq
	.cfi_endproc

	.p2align	4, 0x90
__ZN4core3ptr13drop_in_place17h6a6be700cfa60dbbE:
	.cfi_startproc
	pushq	%rbp
	.cfi_def_cfa_offset 16
	.cfi_offset %rbp, -16
	movq	%rsp, %rbp
	.cfi_def_cfa_register %rbp
	pushq	%r15
	pushq	%r14
	pushq	%rbx
	pushq	%rax
	.cfi_offset %rbx, -40
	.cfi_offset %r14, -32
	.cfi_offset %r15, -24
	movq	%rdi, %r14
	movq	16(%rdi), %rbx
	movq	24(%rdi), %r15
	cmpq	%rbx, %r15
	jne	LBB40_1
LBB40_10:
	movq	8(%r14), %rax
	testq	%rax, %rax
	je	LBB40_12
	shlq	$3, %rax
	leaq	(%rax,%rax,8), %rsi
	testq	%rsi, %rsi
	je	LBB40_12
	movq	(%r14), %rdi
	movl	$8, %edx
	addq	$8, %rsp
	popq	%rbx
	popq	%r14
	popq	%r15
	popq	%rbp
	jmp	___rust_dealloc
	.p2align	4, 0x90
LBB40_9:
	addq	$72, %rbx
	cmpq	%r15, %rbx
	je	LBB40_10
LBB40_1:
	movq	8(%rbx), %rsi
	testq	%rsi, %rsi
	je	LBB40_5
	movq	(%rbx), %rdi
	testq	%rdi, %rdi
	je	LBB40_5
	shlq	$2, %rsi
	testq	%rsi, %rsi
	je	LBB40_5
	movl	$4, %edx
	callq	___rust_dealloc
LBB40_5:
	movq	32(%rbx), %rax
	testq	%rax, %rax
	je	LBB40_9
	movq	24(%rbx), %rdi
	testq	%rdi, %rdi
	je	LBB40_9
	shlq	$2, %rax
	leaq	(%rax,%rax,4), %rsi
	testq	%rsi, %rsi
	je	LBB40_9
	movl	$4, %edx
	callq	___rust_dealloc
	jmp	LBB40_9
LBB40_12:
	addq	$8, %rsp
	popq	%rbx
	popq	%r14
	popq	%r15
	popq	%rbp
	retq
	.cfi_endproc

	.p2align	4, 0x90
__ZN4core3ptr13drop_in_place17h6e2238330f2a3893E:
	.cfi_startproc
	pushq	%rbp
	.cfi_def_cfa_offset 16
	.cfi_offset %rbp, -16
	movq	%rsp, %rbp
	.cfi_def_cfa_register %rbp
	pushq	%rbx
	pushq	%rax
	.cfi_offset %rbx, -24
	movq	%rdi, %rbx
	movq	16(%rdi), %rsi
	testq	%rsi, %rsi
	je	LBB41_4
	movq	8(%rbx), %rdi
	testq	%rdi, %rdi
	je	LBB41_4
	shlq	$2, %rsi
	testq	%rsi, %rsi
	je	LBB41_4
	movl	$4, %edx
	callq	___rust_dealloc
LBB41_4:
	movq	56(%rbx), %rsi
	testq	%rsi, %rsi
	je	LBB41_5
	movq	48(%rbx), %rdi
	testq	%rdi, %rdi
	je	LBB41_5
	shlq	$2, %rsi
	testq	%rsi, %rsi
	je	LBB41_5
	movl	$4, %edx
	callq	___rust_dealloc
LBB41_5:
	movq	88(%rbx), %rsi
	testq	%rsi, %rsi
	je	LBB41_8
	movq	80(%rbx), %rdi
	testq	%rdi, %rdi
	je	LBB41_8
	shlq	$2, %rsi
	testq	%rsi, %rsi
	je	LBB41_8
	movl	$4, %edx
	addq	$8, %rsp
	popq	%rbx
	popq	%rbp
	jmp	___rust_dealloc
LBB41_8:
	addq	$8, %rsp
	popq	%rbx
	popq	%rbp
	retq
	.cfi_endproc

	.p2align	4, 0x90
__ZN4core3ptr13drop_in_place17h770a4f2166769d72E:
	.cfi_startproc
	pushq	%rbp
	.cfi_def_cfa_offset 16
	.cfi_offset %rbp, -16
	movq	%rsp, %rbp
	.cfi_def_cfa_register %rbp
	pushq	%rbx
	pushq	%rax
	.cfi_offset %rbx, -24
	movq	%rdi, %rbx
	movq	8(%rdi), %rsi
	testq	%rsi, %rsi
	je	LBB42_4
	movq	(%rbx), %rdi
	testq	%rdi, %rdi
	je	LBB42_4
	shlq	$2, %rsi
	testq	%rsi, %rsi
	je	LBB42_4
	movl	$4, %edx
	callq	___rust_dealloc
LBB42_4:
	movq	32(%rbx), %rax
	testq	%rax, %rax
	je	LBB42_7
	movq	24(%rbx), %rdi
	testq	%rdi, %rdi
	je	LBB42_7
	shlq	$2, %rax
	leaq	(%rax,%rax,4), %rsi
	testq	%rsi, %rsi
	je	LBB42_7
	movl	$4, %edx
	addq	$8, %rsp
	popq	%rbx
	popq	%rbp
	jmp	___rust_dealloc
LBB42_7:
	addq	$8, %rsp
	popq	%rbx
	popq	%rbp
	retq
	.cfi_endproc

	.p2align	4, 0x90
__ZN4core3ptr13drop_in_place17h805d37f3ad8388a2E:
	.cfi_startproc
	pushq	%rbp
	.cfi_def_cfa_offset 16
	.cfi_offset %rbp, -16
	movq	%rsp, %rbp
	.cfi_def_cfa_register %rbp
	movq	16(%rdi), %rax
	movq	24(%rdi), %rcx
	movq	%rcx, (%rax)
	popq	%rbp
	retq
	.cfi_endproc

	.p2align	4, 0x90
__ZN4core3ptr13drop_in_place17h9f9204d80a7cb130E:
	.cfi_startproc
	pushq	%rbp
	.cfi_def_cfa_offset 16
	.cfi_offset %rbp, -16
	movq	%rsp, %rbp
	.cfi_def_cfa_register %rbp
	pushq	%r15
	pushq	%r14
	pushq	%rbx
	pushq	%rax
	.cfi_offset %rbx, -40
	.cfi_offset %r14, -32
	.cfi_offset %r15, -24
	movq	%rdi, %r14
	movq	(%rdi), %rbx
	movq	16(%rdi), %rax
	testq	%rax, %rax
	je	LBB44_12
	leaq	(%rax,%rax,8), %rax
	leaq	(%rbx,%rax,8), %r15
	jmp	LBB44_2
	.p2align	4, 0x90
LBB44_10:
	addq	$72, %rbx
	cmpq	%r15, %rbx
	je	LBB44_11
LBB44_2:
	movq	8(%rbx), %rsi
	testq	%rsi, %rsi
	je	LBB44_6
	movq	(%rbx), %rdi
	testq	%rdi, %rdi
	je	LBB44_6
	shlq	$2, %rsi
	testq	%rsi, %rsi
	je	LBB44_6
	movl	$4, %edx
	callq	___rust_dealloc
LBB44_6:
	movq	32(%rbx), %rax
	testq	%rax, %rax
	je	LBB44_10
	movq	24(%rbx), %rdi
	testq	%rdi, %rdi
	je	LBB44_10
	shlq	$2, %rax
	leaq	(%rax,%rax,4), %rsi
	testq	%rsi, %rsi
	je	LBB44_10
	movl	$4, %edx
	callq	___rust_dealloc
	jmp	LBB44_10
LBB44_11:
	movq	(%r14), %rbx
LBB44_12:
	movq	8(%r14), %rax
	testq	%rax, %rax
	je	LBB44_15
	testq	%rbx, %rbx
	je	LBB44_15
	shlq	$3, %rax
	leaq	(%rax,%rax,8), %rsi
	testq	%rsi, %rsi
	je	LBB44_15
	movl	$8, %edx
	movq	%rbx, %rdi
	addq	$8, %rsp
	popq	%rbx
	popq	%r14
	popq	%r15
	popq	%rbp
	jmp	___rust_dealloc
LBB44_15:
	addq	$8, %rsp
	popq	%rbx
	popq	%r14
	popq	%r15
	popq	%rbp
	retq
	.cfi_endproc

	.p2align	4, 0x90
__ZN4core3ptr13drop_in_place17ha6ee0b4a6e7aad44E:
	.cfi_startproc
	pushq	%rbp
	.cfi_def_cfa_offset 16
	.cfi_offset %rbp, -16
	movq	%rsp, %rbp
	.cfi_def_cfa_register %rbp
	movq	(%rdi), %rsi
	movq	8(%rdi), %rdx
	subq	%rsi, %rdx
	andq	$-4, %rdx
	movq	16(%rdi), %rdi
	popq	%rbp
	jmp	_memcpy
	.cfi_endproc

	.p2align	4, 0x90
__ZN4core3ptr13drop_in_place17hb3d54def76ed5525E:
	.cfi_startproc
	pushq	%rbp
	.cfi_def_cfa_offset 16
	.cfi_offset %rbp, -16
	movq	%rsp, %rbp
	.cfi_def_cfa_register %rbp
	movq	8(%rdi), %rsi
	testq	%rsi, %rsi
	je	LBB46_3
	movq	(%rdi), %rdi
	testq	%rdi, %rdi
	je	LBB46_3
	shlq	$3, %rsi
	testq	%rsi, %rsi
	je	LBB46_3
	movl	$4, %edx
	popq	%rbp
	jmp	___rust_dealloc
LBB46_3:
	popq	%rbp
	retq
	.cfi_endproc

	.p2align	4, 0x90
__ZN4core3ptr13drop_in_place17hb84600b53542144dE:
	.cfi_startproc
	pushq	%rbp
	.cfi_def_cfa_offset 16
	.cfi_offset %rbp, -16
	movq	%rsp, %rbp
	.cfi_def_cfa_register %rbp
	pushq	%rbx
	pushq	%rax
	.cfi_offset %rbx, -24
	movq	%rdi, %rbx
	movq	16(%rdi), %rsi
	testq	%rsi, %rsi
	je	LBB47_4
	movq	8(%rbx), %rdi
	testq	%rdi, %rdi
	je	LBB47_4
	shlq	$3, %rsi
	testq	%rsi, %rsi
	je	LBB47_4
	movl	$4, %edx
	callq	___rust_dealloc
LBB47_4:
	movq	40(%rbx), %rsi
	testq	%rsi, %rsi
	je	LBB47_7
	movq	32(%rbx), %rdi
	testq	%rdi, %rdi
	je	LBB47_7
	shlq	$2, %rsi
	testq	%rsi, %rsi
	je	LBB47_7
	movl	$4, %edx
	addq	$8, %rsp
	popq	%rbx
	popq	%rbp
	jmp	___rust_dealloc
LBB47_7:
	addq	$8, %rsp
	popq	%rbx
	popq	%rbp
	retq
	.cfi_endproc

	.p2align	4, 0x90
__ZN4core3ptr13drop_in_place17hbe515da7fd331121E:
	.cfi_startproc
	pushq	%rbp
	.cfi_def_cfa_offset 16
	.cfi_offset %rbp, -16
	movq	%rsp, %rbp
	.cfi_def_cfa_register %rbp
	movq	8(%rdi), %rax
	testq	%rax, %rax
	je	LBB48_3
	movq	(%rdi), %rdi
	testq	%rdi, %rdi
	je	LBB48_3
	shlq	$2, %rax
	leaq	(%rax,%rax,4), %rsi
	testq	%rsi, %rsi
	je	LBB48_3
	movl	$4, %edx
	popq	%rbp
	jmp	___rust_dealloc
LBB48_3:
	popq	%rbp
	retq
	.cfi_endproc

	.p2align	4, 0x90
__ZN4core3ptr13drop_in_place17hbf5dec43261dbbc4E:
	.cfi_startproc
	pushq	%rbp
	.cfi_def_cfa_offset 16
	.cfi_offset %rbp, -16
	movq	%rsp, %rbp
	.cfi_def_cfa_register %rbp
	pushq	%rbx
	pushq	%rax
	.cfi_offset %rbx, -24
	movq	%rdi, %rbx
	movq	8(%rdi), %rax
	testq	%rax, %rax
	je	LBB49_4
	movq	(%rbx), %rdi
	testq	%rdi, %rdi
	je	LBB49_4
	shlq	$3, %rax
	leaq	(%rax,%rax,4), %rsi
	testq	%rsi, %rsi
	je	LBB49_4
	movl	$8, %edx
	callq	___rust_dealloc
LBB49_4:
	movq	32(%rbx), %rsi
	testq	%rsi, %rsi
	je	LBB49_7
	movq	24(%rbx), %rdi
	testq	%rdi, %rdi
	je	LBB49_7
	shlq	$2, %rsi
	testq	%rsi, %rsi
	je	LBB49_7
	movl	$4, %edx
	addq	$8, %rsp
	popq	%rbx
	popq	%rbp
	jmp	___rust_dealloc
LBB49_7:
	addq	$8, %rsp
	popq	%rbx
	popq	%rbp
	retq
	.cfi_endproc

	.p2align	4, 0x90
__ZN4core3ptr13drop_in_place17hc05f9b2cd511e91fE:
	.cfi_startproc
	pushq	%rbp
	.cfi_def_cfa_offset 16
	.cfi_offset %rbp, -16
	movq	%rsp, %rbp
	.cfi_def_cfa_register %rbp
	pushq	%rbx
	pushq	%rax
	.cfi_offset %rbx, -24
	movq	%rdi, %rbx
	movq	8(%rdi), %rsi
	testq	%rsi, %rsi
	je	LBB50_4
	movq	(%rbx), %rdi
	testq	%rdi, %rdi
	je	LBB50_4
	shlq	$3, %rsi
	testq	%rsi, %rsi
	je	LBB50_4
	movl	$4, %edx
	callq	___rust_dealloc
LBB50_4:
	movq	32(%rbx), %rsi
	testq	%rsi, %rsi
	je	LBB50_7
	movq	24(%rbx), %rdi
	testq	%rdi, %rdi
	je	LBB50_7
	shlq	$2, %rsi
	testq	%rsi, %rsi
	je	LBB50_7
	movl	$4, %edx
	addq	$8, %rsp
	popq	%rbx
	popq	%rbp
	jmp	___rust_dealloc
LBB50_7:
	addq	$8, %rsp
	popq	%rbx
	popq	%rbp
	retq
	.cfi_endproc

	.p2align	4, 0x90
__ZN4core3ptr13drop_in_place17hd6f78bf1d0de691cE:
	.cfi_startproc
	pushq	%rbp
	.cfi_def_cfa_offset 16
	.cfi_offset %rbp, -16
	movq	%rsp, %rbp
	.cfi_def_cfa_register %rbp
	movl	%edi, (%rsi)
	popq	%rbp
	retq
	.cfi_endproc

	.p2align	4, 0x90
__ZN4core3ptr13drop_in_place17hea49bce68f040814E:
	.cfi_startproc
	pushq	%rbp
	.cfi_def_cfa_offset 16
	.cfi_offset %rbp, -16
	movq	%rsp, %rbp
	.cfi_def_cfa_register %rbp
	movq	8(%rdi), %rax
	testq	%rax, %rax
	je	LBB52_3
	movq	(%rdi), %rdi
	testq	%rdi, %rdi
	je	LBB52_3
	leaq	(%rax,%rax,8), %rcx
	leaq	(%rcx,%rcx,2), %rsi
	addq	%rax, %rsi
	je	LBB52_3
	movl	$4, %edx
	popq	%rbp
	jmp	___rust_dealloc
LBB52_3:
	popq	%rbp
	retq
	.cfi_endproc

	.p2align	4, 0x90
__ZN4core4iter8adapters8map_fold28_$u7b$$u7b$closure$u7d$$u7d$17hadbf7da999b4ca63E:
	.cfi_startproc
	pushq	%rbp
	.cfi_def_cfa_offset 16
	.cfi_offset %rbp, -16
	movq	%rsp, %rbp
	.cfi_def_cfa_register %rbp
	subq	$16, %rsp
	cmpb	$1, %sil
	jne	LBB53_1
	movq	32(%rdi), %rax
	movq	(%rax), %rcx
	movq	16(%rcx), %rax
	cmpq	$1, %rax
	jbe	LBB53_6
	movq	(%rcx), %rcx
	movl	20(%rcx), %eax
	movl	32(%rcx), %edx
	movl	%edx, -8(%rbp)
	movq	24(%rcx), %rdx
	movq	%rdx, -16(%rbp)
	movl	36(%rcx), %edx
	movq	24(%rdi), %r8
	jmp	LBB53_16
LBB53_1:
	movq	24(%rdi), %r8
	movzbl	(%r8), %eax
	testq	%rax, %rax
	je	LBB53_11
	cmpl	$1, %eax
	jne	LBB53_3
	movq	32(%rdi), %rax
	movq	(%rax), %rdx
	movq	16(%rdx), %rax
	cmpq	$2, %rax
	jbe	LBB53_17
	movq	(%rdx), %rdx
	movl	40(%rdx), %eax
	movl	52(%rdx), %ecx
	movl	%ecx, -8(%rbp)
	movq	44(%rdx), %rcx
	movq	%rcx, -16(%rbp)
	movl	56(%rdx), %edx
	jmp	LBB53_16
LBB53_11:
	movq	32(%rdi), %rax
	movq	(%rax), %rdx
	movq	16(%rdx), %rax
	cmpq	$1, %rax
	jbe	LBB53_12
	movq	(%rdx), %rcx
	movl	20(%rcx), %eax
	movl	32(%rcx), %edx
	movl	%edx, -8(%rbp)
	movq	24(%rcx), %rdx
	movq	%rdx, -16(%rbp)
	movl	36(%rcx), %edx
	jmp	LBB53_16
LBB53_3:
	testb	%sil, %sil
	je	LBB53_14
	xorl	%eax, %eax
	movl	$-1, %edx
	jmp	LBB53_16
LBB53_14:
	movq	32(%rdi), %rax
	movq	(%rax), %rax
	cmpq	$0, 16(%rax)
	je	LBB53_18
	movq	(%rax), %rcx
	movl	(%rcx), %eax
	movl	12(%rcx), %edx
	movl	%edx, -8(%rbp)
	movq	4(%rcx), %rdx
	movq	%rdx, -16(%rbp)
	movl	16(%rcx), %edx
LBB53_16:
	movb	%sil, (%r8)
	movq	(%rdi), %rcx
	movl	%eax, (%rcx)
	movq	-16(%rbp), %rax
	movq	%rax, 4(%rcx)
	movl	-8(%rbp), %eax
	movl	%eax, 12(%rcx)
	movl	%edx, 16(%rcx)
	addq	$20, (%rdi)
	incq	16(%rdi)
	addq	$16, %rsp
	popq	%rbp
	retq
LBB53_6:
	leaq	l___unnamed_35(%rip), %rdx
	jmp	LBB53_7
LBB53_17:
	leaq	l___unnamed_36(%rip), %rdx
	movl	$2, %edi
	movq	%rax, %rsi
	callq	__ZN4core9panicking18panic_bounds_check17he87128426d100e93E
LBB53_12:
	leaq	l___unnamed_37(%rip), %rdx
LBB53_7:
	movl	$1, %edi
	movq	%rax, %rsi
	callq	__ZN4core9panicking18panic_bounds_check17he87128426d100e93E
LBB53_18:
	leaq	l___unnamed_38(%rip), %rdx
	xorl	%edi, %edi
	xorl	%esi, %esi
	callq	__ZN4core9panicking18panic_bounds_check17he87128426d100e93E
	.cfi_endproc

	.p2align	4, 0x90
__ZN5alloc3vec12Vec$LT$T$GT$4push17h6814b4af9a302c07E:
	.cfi_startproc
	pushq	%rbp
	.cfi_def_cfa_offset 16
	.cfi_offset %rbp, -16
	movq	%rsp, %rbp
	.cfi_def_cfa_register %rbp
	pushq	%r15
	pushq	%r14
	pushq	%r12
	pushq	%rbx
	.cfi_offset %rbx, -48
	.cfi_offset %r12, -40
	.cfi_offset %r14, -32
	.cfi_offset %r15, -24
	movq	%rdx, %r14
	movq	%rsi, %r15
	movq	%rdi, %rbx
	movq	16(%rdi), %rcx
	cmpq	8(%rdi), %rcx
	jne	LBB54_18
	movq	%rcx, %rdx
	incq	%rdx
	je	LBB54_19
	leaq	(%rcx,%rcx), %rax
	cmpq	%rdx, %rax
	cmovaq	%rax, %rdx
	cmpq	$4, %rdx
	movl	$4, %eax
	cmovaq	%rdx, %rax
	movl	$16, %edx
	xorl	%esi, %esi
	mulq	%rdx
	movq	%rax, %r12
	seto	%dl
	setno	%dil
	movq	%rcx, %rax
	testq	%rcx, %rcx
	je	LBB54_4
	movq	(%rbx), %rax
LBB54_4:
	testb	%dl, %dl
	jne	LBB54_19
	testq	%rax, %rax
	je	LBB54_6
	movq	%rcx, %rsi
	shlq	$4, %rsi
	cmpq	%r12, %rsi
	je	LBB54_15
	testq	%rsi, %rsi
	je	LBB54_11
	movl	$8, %edx
	movq	%rax, %rdi
	movq	%r12, %rcx
	callq	___rust_realloc
	jmp	LBB54_15
LBB54_6:
	movb	%dil, %sil
	shlq	$3, %rsi
	testq	%r12, %r12
	jne	LBB54_7
	movq	%rsi, %rax
	jmp	LBB54_15
LBB54_11:
	testq	%r12, %r12
	je	LBB54_12
	movl	$8, %esi
LBB54_7:
	movq	%r12, %rdi
	callq	___rust_alloc
LBB54_15:
	testq	%rax, %rax
	je	LBB54_20
	movq	16(%rbx), %rcx
LBB54_17:
	movq	%rax, (%rbx)
	shrq	$4, %r12
	movq	%r12, 8(%rbx)
LBB54_18:
	movq	(%rbx), %rax
	shlq	$4, %rcx
	movq	%r15, (%rax,%rcx)
	movq	%r14, 8(%rax,%rcx)
	incq	16(%rbx)
	popq	%rbx
	popq	%r12
	popq	%r14
	popq	%r15
	popq	%rbp
	retq
LBB54_12:
	movl	$8, %eax
	jmp	LBB54_17
LBB54_19:
	callq	__ZN5alloc7raw_vec17capacity_overflow17h7526b10e27579d59E
LBB54_20:
	movl	$8, %esi
	movq	%r12, %rdi
	callq	__ZN5alloc5alloc18handle_alloc_error17h28974197717b8939E
	.cfi_endproc

	.p2align	4, 0x90
__ZN5alloc3vec12Vec$LT$T$GT$4push17hba02a6fe042bb4f0E:
Lfunc_begin0:
	.cfi_startproc
	.cfi_personality 155, _rust_eh_personality
	.cfi_lsda 16, Lexception0
	pushq	%rbp
	.cfi_def_cfa_offset 16
	.cfi_offset %rbp, -16
	movq	%rsp, %rbp
	.cfi_def_cfa_register %rbp
	pushq	%r15
	pushq	%r14
	pushq	%rbx
	pushq	%rax
	.cfi_offset %rbx, -40
	.cfi_offset %r14, -32
	.cfi_offset %r15, -24
	movq	%rsi, %r14
	movq	%rdi, %rbx
	movq	16(%rdi), %rcx
	cmpq	8(%rdi), %rcx
	jne	LBB55_18
	movq	%rcx, %rdx
	incq	%rdx
	je	LBB55_19
	leaq	(%rcx,%rcx), %rax
	cmpq	%rdx, %rax
	cmovaq	%rax, %rdx
	cmpq	$4, %rdx
	movl	$4, %eax
	cmovaq	%rdx, %rax
	movl	$72, %edx
	xorl	%esi, %esi
	mulq	%rdx
	movq	%rax, %r15
	seto	%dl
	setno	%dil
	movq	%rcx, %rax
	testq	%rcx, %rcx
	je	LBB55_4
	movq	(%rbx), %rax
LBB55_4:
	testb	%dl, %dl
	jne	LBB55_19
	testq	%rax, %rax
	je	LBB55_6
	leaq	(,%rcx,8), %rdx
	leaq	(%rdx,%rdx,8), %rsi
	cmpq	%r15, %rsi
	je	LBB55_15
	testq	%rsi, %rsi
	je	LBB55_11
	movl	$8, %edx
	movq	%rax, %rdi
	movq	%r15, %rcx
	callq	___rust_realloc
	jmp	LBB55_15
LBB55_6:
	movb	%dil, %sil
	shlq	$3, %rsi
	testq	%r15, %r15
	jne	LBB55_7
	movq	%rsi, %rax
	jmp	LBB55_15
LBB55_11:
	testq	%r15, %r15
	je	LBB55_12
	movl	$8, %esi
LBB55_7:
	movq	%r15, %rdi
	callq	___rust_alloc
LBB55_15:
	testq	%rax, %rax
	je	LBB55_21
	movq	16(%rbx), %rcx
LBB55_17:
	movq	%rax, (%rbx)
	movabsq	$-2049638230412172401, %rdx
	movq	%r15, %rax
	mulq	%rdx
	shrq	$6, %rdx
	movq	%rdx, 8(%rbx)
LBB55_18:
	leaq	(%rcx,%rcx,8), %rdi
	shlq	$3, %rdi
	addq	(%rbx), %rdi
	movl	$9, %ecx
	movq	%r14, %rsi
	rep;movsq (%rsi), %es:(%rdi)
	incq	16(%rbx)
	addq	$8, %rsp
	popq	%rbx
	popq	%r14
	popq	%r15
	popq	%rbp
	retq
LBB55_12:
	movl	$8, %eax
	jmp	LBB55_17
LBB55_19:
Ltmp0:
	callq	__ZN5alloc7raw_vec17capacity_overflow17h7526b10e27579d59E
Ltmp1:
	ud2
LBB55_21:
	movl	$8, %esi
	movq	%r15, %rdi
	callq	__ZN5alloc5alloc18handle_alloc_error17h28974197717b8939E
LBB55_22:
Ltmp2:
	movq	%rax, %rbx
	movq	%r14, %rdi
	callq	__ZN4core3ptr13drop_in_place17h770a4f2166769d72E
	movq	%rbx, %rdi
	callq	__Unwind_Resume
	ud2
Lfunc_end0:
	.cfi_endproc
	.section	__TEXT,__gcc_except_tab
	.p2align	2
GCC_except_table55:
Lexception0:
	.byte	255
	.byte	255
	.byte	1
	.uleb128 Lcst_end0-Lcst_begin0
Lcst_begin0:
	.uleb128 Ltmp0-Lfunc_begin0
	.uleb128 Ltmp1-Ltmp0
	.uleb128 Ltmp2-Lfunc_begin0
	.byte	0
	.uleb128 Ltmp1-Lfunc_begin0
	.uleb128 Lfunc_end0-Ltmp1
	.byte	0
	.byte	0
Lcst_end0:
	.p2align	2

	.section	__TEXT,__text,regular,pure_instructions
	.p2align	4, 0x90
__ZN5alloc3vec12Vec$LT$T$GT$7reserve17h26830c7a45b0054aE:
	.cfi_startproc
	pushq	%rbp
	.cfi_def_cfa_offset 16
	.cfi_offset %rbp, -16
	movq	%rsp, %rbp
	.cfi_def_cfa_register %rbp
	pushq	%r14
	pushq	%rbx
	.cfi_offset %rbx, -32
	.cfi_offset %r14, -24
	movq	%rsi, %rax
	movq	8(%rdi), %rsi
	movq	16(%rdi), %rcx
	movq	%rsi, %rdx
	subq	%rcx, %rdx
	cmpq	%rax, %rdx
	jae	LBB56_17
	addq	%rax, %rcx
	jb	LBB56_18
	movq	%rdi, %rbx
	leaq	(%rsi,%rsi), %rax
	cmpq	%rcx, %rax
	cmovaq	%rax, %rcx
	cmpq	$4, %rcx
	movl	$4, %eax
	cmovaq	%rcx, %rax
	movl	$8, %edx
	xorl	%ecx, %ecx
	mulq	%rdx
	movq	%rax, %r14
	seto	%dl
	setno	%dil
	movq	%rsi, %rax
	testq	%rsi, %rsi
	je	LBB56_4
	movq	(%rbx), %rax
LBB56_4:
	testb	%dl, %dl
	jne	LBB56_18
	testq	%rax, %rax
	je	LBB56_6
	shlq	$3, %rsi
	cmpq	%r14, %rsi
	je	LBB56_15
	testq	%rsi, %rsi
	je	LBB56_11
	movl	$4, %edx
	movq	%rax, %rdi
	movq	%r14, %rcx
	callq	___rust_realloc
	testq	%rax, %rax
	jne	LBB56_16
	jmp	LBB56_19
LBB56_6:
	movb	%dil, %cl
	shlq	$2, %rcx
	testq	%r14, %r14
	je	LBB56_8
	movq	%r14, %rdi
	movq	%rcx, %rsi
	callq	___rust_alloc
	testq	%rax, %rax
	jne	LBB56_16
	jmp	LBB56_19
LBB56_8:
	movq	%rcx, %rax
LBB56_15:
	testq	%rax, %rax
	je	LBB56_19
LBB56_16:
	movq	%rax, (%rbx)
	shrq	$3, %r14
	movq	%r14, 8(%rbx)
LBB56_17:
	popq	%rbx
	popq	%r14
	popq	%rbp
	retq
LBB56_11:
	testq	%r14, %r14
	je	LBB56_12
	movl	$4, %esi
	movq	%r14, %rdi
	callq	___rust_alloc
	testq	%rax, %rax
	jne	LBB56_16
LBB56_19:
	movl	$4, %esi
	movq	%r14, %rdi
	callq	__ZN5alloc5alloc18handle_alloc_error17h28974197717b8939E
LBB56_12:
	movl	$4, %eax
	jmp	LBB56_16
LBB56_18:
	callq	__ZN5alloc7raw_vec17capacity_overflow17h7526b10e27579d59E
	.cfi_endproc

	.p2align	4, 0x90
__ZN5alloc3vec12Vec$LT$T$GT$7reserve17h646b1e4bc926caa2E:
	.cfi_startproc
	pushq	%rbp
	.cfi_def_cfa_offset 16
	.cfi_offset %rbp, -16
	movq	%rsp, %rbp
	.cfi_def_cfa_register %rbp
	pushq	%r14
	pushq	%rbx
	.cfi_offset %rbx, -32
	.cfi_offset %r14, -24
	movq	%rsi, %rcx
	movq	8(%rdi), %rsi
	movq	16(%rdi), %rax
	movq	%rsi, %rdx
	subq	%rax, %rdx
	cmpq	%rcx, %rdx
	jae	LBB57_17
	addq	%rcx, %rax
	jb	LBB57_18
	movq	%rdi, %rbx
	leaq	(%rsi,%rsi), %rcx
	cmpq	%rax, %rcx
	cmovaq	%rcx, %rax
	cmpq	$4, %rax
	movl	$4, %edx
	cmovbeq	%rdx, %rax
	xorl	%ecx, %ecx
	mulq	%rdx
	movq	%rax, %r14
	seto	%dl
	setno	%dil
	movq	%rsi, %rax
	testq	%rsi, %rsi
	je	LBB57_4
	movq	(%rbx), %rax
LBB57_4:
	testb	%dl, %dl
	jne	LBB57_18
	testq	%rax, %rax
	je	LBB57_6
	shlq	$2, %rsi
	cmpq	%r14, %rsi
	je	LBB57_15
	testq	%rsi, %rsi
	je	LBB57_11
	movl	$4, %edx
	movq	%rax, %rdi
	movq	%r14, %rcx
	callq	___rust_realloc
	testq	%rax, %rax
	jne	LBB57_16
	jmp	LBB57_19
LBB57_6:
	movb	%dil, %cl
	shlq	$2, %rcx
	testq	%r14, %r14
	je	LBB57_8
	movq	%r14, %rdi
	movq	%rcx, %rsi
	callq	___rust_alloc
	testq	%rax, %rax
	jne	LBB57_16
	jmp	LBB57_19
LBB57_8:
	movq	%rcx, %rax
LBB57_15:
	testq	%rax, %rax
	je	LBB57_19
LBB57_16:
	movq	%rax, (%rbx)
	shrq	$2, %r14
	movq	%r14, 8(%rbx)
LBB57_17:
	popq	%rbx
	popq	%r14
	popq	%rbp
	retq
LBB57_11:
	testq	%r14, %r14
	je	LBB57_12
	movl	$4, %esi
	movq	%r14, %rdi
	callq	___rust_alloc
	testq	%rax, %rax
	jne	LBB57_16
LBB57_19:
	movl	$4, %esi
	movq	%r14, %rdi
	callq	__ZN5alloc5alloc18handle_alloc_error17h28974197717b8939E
LBB57_12:
	movl	$4, %eax
	jmp	LBB57_16
LBB57_18:
	callq	__ZN5alloc7raw_vec17capacity_overflow17h7526b10e27579d59E
	.cfi_endproc

	.p2align	4, 0x90
__ZN5alloc3vec12Vec$LT$T$GT$7reserve17h9b1a907604aeec6cE:
	.cfi_startproc
	pushq	%rbp
	.cfi_def_cfa_offset 16
	.cfi_offset %rbp, -16
	movq	%rsp, %rbp
	.cfi_def_cfa_register %rbp
	pushq	%r14
	pushq	%rbx
	.cfi_offset %rbx, -32
	.cfi_offset %r14, -24
	movq	8(%rdi), %rcx
	movq	16(%rdi), %rdx
	movq	%rcx, %rax
	subq	%rdx, %rax
	cmpq	%rsi, %rax
	jae	LBB58_17
	addq	%rsi, %rdx
	jb	LBB58_18
	movq	%rdi, %rbx
	leaq	(%rcx,%rcx), %rax
	cmpq	%rdx, %rax
	cmovaq	%rax, %rdx
	cmpq	$4, %rdx
	movl	$4, %eax
	cmovaq	%rdx, %rax
	movl	$56, %edx
	xorl	%esi, %esi
	mulq	%rdx
	movq	%rax, %r14
	seto	%dl
	setno	%dil
	movq	%rcx, %rax
	testq	%rcx, %rcx
	je	LBB58_4
	movq	(%rbx), %rax
LBB58_4:
	testb	%dl, %dl
	jne	LBB58_18
	testq	%rax, %rax
	je	LBB58_6
	imulq	$56, %rcx, %rsi
	cmpq	%r14, %rsi
	je	LBB58_15
	testq	%rsi, %rsi
	je	LBB58_11
	movl	$8, %edx
	movq	%rax, %rdi
	movq	%r14, %rcx
	callq	___rust_realloc
	jmp	LBB58_15
LBB58_6:
	movb	%dil, %sil
	shlq	$3, %rsi
	testq	%r14, %r14
	jne	LBB58_7
	movq	%rsi, %rax
	jmp	LBB58_15
LBB58_11:
	testq	%r14, %r14
	je	LBB58_12
	movl	$8, %esi
LBB58_7:
	movq	%r14, %rdi
	callq	___rust_alloc
LBB58_15:
	testq	%rax, %rax
	je	LBB58_19
LBB58_16:
	movq	%rax, (%rbx)
	shrq	$3, %r14
	movabsq	$2635249153387078803, %rcx
	movq	%r14, %rax
	mulq	%rcx
	movq	%rdx, 8(%rbx)
LBB58_17:
	popq	%rbx
	popq	%r14
	popq	%rbp
	retq
LBB58_12:
	movl	$8, %eax
	jmp	LBB58_16
LBB58_18:
	callq	__ZN5alloc7raw_vec17capacity_overflow17h7526b10e27579d59E
LBB58_19:
	movl	$8, %esi
	movq	%r14, %rdi
	callq	__ZN5alloc5alloc18handle_alloc_error17h28974197717b8939E
	.cfi_endproc

	.p2align	4, 0x90
__ZN5alloc3vec12Vec$LT$T$GT$7reserve17hb5173f75abee6a72E:
	.cfi_startproc
	pushq	%rbp
	.cfi_def_cfa_offset 16
	.cfi_offset %rbp, -16
	movq	%rsp, %rbp
	.cfi_def_cfa_register %rbp
	pushq	%r14
	pushq	%rbx
	.cfi_offset %rbx, -32
	.cfi_offset %r14, -24
	movq	8(%rdi), %rcx
	movq	16(%rdi), %rdx
	movq	%rcx, %rax
	subq	%rdx, %rax
	cmpq	%rsi, %rax
	jae	LBB59_17
	addq	%rsi, %rdx
	jb	LBB59_18
	movq	%rdi, %rbx
	leaq	(%rcx,%rcx), %rax
	cmpq	%rdx, %rax
	cmovaq	%rax, %rdx
	cmpq	$4, %rdx
	movl	$4, %eax
	cmovaq	%rdx, %rax
	movl	$40, %edx
	xorl	%esi, %esi
	mulq	%rdx
	movq	%rax, %r14
	seto	%dl
	setno	%dil
	movq	%rcx, %rax
	testq	%rcx, %rcx
	je	LBB59_4
	movq	(%rbx), %rax
LBB59_4:
	testb	%dl, %dl
	jne	LBB59_18
	testq	%rax, %rax
	je	LBB59_6
	shlq	$3, %rcx
	leaq	(%rcx,%rcx,4), %rsi
	cmpq	%r14, %rsi
	je	LBB59_15
	testq	%rsi, %rsi
	je	LBB59_11
	movl	$8, %edx
	movq	%rax, %rdi
	movq	%r14, %rcx
	callq	___rust_realloc
	jmp	LBB59_15
LBB59_6:
	movb	%dil, %sil
	shlq	$3, %rsi
	testq	%r14, %r14
	jne	LBB59_7
	movq	%rsi, %rax
	jmp	LBB59_15
LBB59_11:
	testq	%r14, %r14
	je	LBB59_12
	movl	$8, %esi
LBB59_7:
	movq	%r14, %rdi
	callq	___rust_alloc
LBB59_15:
	testq	%rax, %rax
	je	LBB59_19
LBB59_16:
	movq	%rax, (%rbx)
	movabsq	$-3689348814741910323, %rcx
	movq	%r14, %rax
	mulq	%rcx
	shrq	$5, %rdx
	movq	%rdx, 8(%rbx)
LBB59_17:
	popq	%rbx
	popq	%r14
	popq	%rbp
	retq
LBB59_12:
	movl	$8, %eax
	jmp	LBB59_16
LBB59_18:
	callq	__ZN5alloc7raw_vec17capacity_overflow17h7526b10e27579d59E
LBB59_19:
	movl	$8, %esi
	movq	%r14, %rdi
	callq	__ZN5alloc5alloc18handle_alloc_error17h28974197717b8939E
	.cfi_endproc

	.p2align	4, 0x90
__ZN5alloc3vec12Vec$LT$T$GT$7reserve17hb597647698dfad3aE:
	.cfi_startproc
	pushq	%rbp
	.cfi_def_cfa_offset 16
	.cfi_offset %rbp, -16
	movq	%rsp, %rbp
	.cfi_def_cfa_register %rbp
	pushq	%r14
	pushq	%rbx
	.cfi_offset %rbx, -32
	.cfi_offset %r14, -24
	movq	8(%rdi), %rcx
	movq	16(%rdi), %rdx
	movq	%rcx, %rax
	subq	%rdx, %rax
	cmpq	%rsi, %rax
	jae	LBB60_17
	addq	%rsi, %rdx
	jb	LBB60_18
	movq	%rdi, %rbx
	leaq	(%rcx,%rcx), %rax
	cmpq	%rdx, %rax
	cmovaq	%rax, %rdx
	cmpq	$4, %rdx
	movl	$4, %eax
	cmovaq	%rdx, %rax
	movl	$20, %edx
	xorl	%esi, %esi
	mulq	%rdx
	movq	%rax, %r14
	seto	%dl
	setno	%dil
	movq	%rcx, %rax
	testq	%rcx, %rcx
	je	LBB60_4
	movq	(%rbx), %rax
LBB60_4:
	testb	%dl, %dl
	jne	LBB60_18
	testq	%rax, %rax
	je	LBB60_6
	shlq	$2, %rcx
	leaq	(%rcx,%rcx,4), %rsi
	cmpq	%r14, %rsi
	je	LBB60_15
	testq	%rsi, %rsi
	je	LBB60_11
	movl	$4, %edx
	movq	%rax, %rdi
	movq	%r14, %rcx
	callq	___rust_realloc
	jmp	LBB60_15
LBB60_6:
	movb	%dil, %sil
	shlq	$2, %rsi
	testq	%r14, %r14
	jne	LBB60_7
	movq	%rsi, %rax
	jmp	LBB60_15
LBB60_11:
	testq	%r14, %r14
	je	LBB60_12
	movl	$4, %esi
LBB60_7:
	movq	%r14, %rdi
	callq	___rust_alloc
LBB60_15:
	testq	%rax, %rax
	je	LBB60_19
LBB60_16:
	movq	%rax, (%rbx)
	movabsq	$-3689348814741910323, %rcx
	movq	%r14, %rax
	mulq	%rcx
	shrq	$4, %rdx
	movq	%rdx, 8(%rbx)
LBB60_17:
	popq	%rbx
	popq	%r14
	popq	%rbp
	retq
LBB60_12:
	movl	$4, %eax
	jmp	LBB60_16
LBB60_18:
	callq	__ZN5alloc7raw_vec17capacity_overflow17h7526b10e27579d59E
LBB60_19:
	movl	$4, %esi
	movq	%r14, %rdi
	callq	__ZN5alloc5alloc18handle_alloc_error17h28974197717b8939E
	.cfi_endproc

	.p2align	4, 0x90
__ZN5alloc5slice29_$LT$impl$u20$$u5b$T$u5d$$GT$7sort_by28_$u7b$$u7b$closure$u7d$$u7d$17h7fa3b754c52e750bE:
	.cfi_startproc
	pushq	%rbp
	.cfi_def_cfa_offset 16
	.cfi_offset %rbp, -16
	movq	%rsp, %rbp
	.cfi_def_cfa_register %rbp
	movq	(%rdi), %rax
	movq	(%rax), %rax
	movq	(%rax), %rcx
	movq	32(%rcx), %rdi
	addq	$32, %rdi
	jb	LBB61_21
	movl	%edx, %r9d
	movl	%esi, %r8d
	decq	%rdi
	andq	$-32, %rdi
	movq	%r8, %rax
	mulq	%rdi
	jo	LBB61_6
	movq	%rax, %rsi
	movl	%r9d, %eax
	addq	%rax, %rsi
	jb	LBB61_7
	movq	24(%rcx), %r9
	cmpq	%rsi, %r9
	jbe	LBB61_5
	movq	%rsi, %rdx
	shrq	$5, %rdx
	movq	16(%rcx), %r10
	cmpq	%rdx, %r10
	jbe	LBB61_5
	movq	(%rcx), %rcx
	movl	(%rcx,%rdx,4), %ecx
	btl	%esi, %ecx
	jb	LBB61_9
	movq	__ZN10bit_matrix5FALSE17h17bb87967a282e60E@GOTPCREL(%rip), %rdx
	movb	$1, %cl
	cmpb	$0, (%rdx)
	je	LBB61_12
LBB61_17:
	movl	%ecx, %eax
	popq	%rbp
	retq
LBB61_9:
	movq	__ZN10bit_matrix4TRUE17h94130dc4457bb568E@GOTPCREL(%rip), %rdx
	movb	$1, %cl
	cmpb	$0, (%rdx)
	jne	LBB61_17
LBB61_12:
	mulq	%rdi
	jo	LBB61_19
	addq	%r8, %rax
	jb	LBB61_20
	cmpq	%rax, %r9
	jbe	LBB61_18
	shrq	$5, %rax
	cmpq	%rax, %r10
	jbe	LBB61_18
	xorl	%ecx, %ecx
	movl	%ecx, %eax
	popq	%rbp
	retq
LBB61_5:
	leaq	l___unnamed_39(%rip), %rdi
	leaq	l___unnamed_40(%rip), %rdx
	movl	$43, %esi
	callq	__ZN4core9panicking5panic17h383a6b80ea7021aaE
LBB61_21:
	leaq	_str.1(%rip), %rdi
	leaq	l___unnamed_41(%rip), %rdx
	movl	$28, %esi
	callq	__ZN4core9panicking5panic17h383a6b80ea7021aaE
LBB61_6:
	leaq	_str.0(%rip), %rdi
	leaq	l___unnamed_40(%rip), %rdx
	movl	$33, %esi
	callq	__ZN4core9panicking5panic17h383a6b80ea7021aaE
LBB61_7:
	leaq	_str.1(%rip), %rdi
	leaq	l___unnamed_40(%rip), %rdx
	movl	$28, %esi
	callq	__ZN4core9panicking5panic17h383a6b80ea7021aaE
LBB61_18:
	leaq	l___unnamed_39(%rip), %rdi
	leaq	l___unnamed_42(%rip), %rdx
	movl	$43, %esi
	callq	__ZN4core9panicking5panic17h383a6b80ea7021aaE
LBB61_19:
	leaq	_str.0(%rip), %rdi
	leaq	l___unnamed_42(%rip), %rdx
	movl	$33, %esi
	callq	__ZN4core9panicking5panic17h383a6b80ea7021aaE
LBB61_20:
	leaq	_str.1(%rip), %rdi
	leaq	l___unnamed_42(%rip), %rdx
	movl	$28, %esi
	callq	__ZN4core9panicking5panic17h383a6b80ea7021aaE
	.cfi_endproc

	.p2align	4, 0x90
__ZN7bit_vec6BitVec9from_elem17h28aa3bc903b1759eE:
Lfunc_begin1:
	.cfi_startproc
	.cfi_personality 155, _rust_eh_personality
	.cfi_lsda 16, Lexception1
	pushq	%rbp
	.cfi_def_cfa_offset 16
	.cfi_offset %rbp, -16
	movq	%rsp, %rbp
	.cfi_def_cfa_register %rbp
	pushq	%r15
	pushq	%r14
	pushq	%r13
	pushq	%r12
	pushq	%rbx
	subq	$56, %rsp
	.cfi_offset %rbx, -56
	.cfi_offset %r12, -48
	.cfi_offset %r13, -40
	.cfi_offset %r14, -32
	.cfi_offset %r15, -24
	movl	%edx, %r12d
	movq	%rsi, %rbx
	movq	%rdi, -64(%rbp)
	xorl	%r14d, %r14d
	movq	%rsi, %rcx
	andq	$31, %rcx
	setne	%r14b
	movq	%rsi, %r15
	shrq	$5, %r15
	leaq	(%r15,%r14), %r13
	testb	%r12b, %r12b
	je	LBB62_8
	movq	%rcx, -56(%rbp)
	movq	%rbx, -48(%rbp)
	testq	%r13, %r13
	je	LBB62_2
	leaq	(,%r13,4), %rdi
	movl	$4, %esi
	movq	%rdi, %rbx
	callq	___rust_alloc
	testq	%rax, %rax
	jne	LBB62_3
	movl	$4, %esi
	movq	%rbx, %rdi
	callq	__ZN5alloc5alloc18handle_alloc_error17h28974197717b8939E
LBB62_8:
	testq	%r13, %r13
	je	LBB62_9
	leaq	(,%r13,4), %r14
	movl	$4, %esi
	movq	%r14, %rdi
	movq	%rcx, %r15
	callq	___rust_alloc_zeroed
	movq	%r15, %rcx
	movq	%rax, %rsi
	movq	%r13, %rdi
	testq	%rax, %rax
	jne	LBB62_28
	movl	$4, %esi
	movq	%r14, %rdi
	callq	__ZN5alloc5alloc18handle_alloc_error17h28974197717b8939E
LBB62_2:
	movl	$4, %eax
LBB62_3:
	movq	%rax, -88(%rbp)
	movq	%r13, -80(%rbp)
	movq	$0, -72(%rbp)
Ltmp3:
	leaq	-88(%rbp), %rdi
	movq	%r13, %rsi
	callq	__ZN5alloc3vec12Vec$LT$T$GT$7reserve17h646b1e4bc926caa2E
Ltmp4:
	negl	%r12d
	movq	-88(%rbp), %r10
	movq	-72(%rbp), %r11
	leaq	(%r10,%r11,4), %r8
	cmpq	$2, %r13
	jb	LBB62_5
	leaq	-1(%r15,%r14), %rcx
	movl	$1, %r9d
	cmpq	$7, %rcx
	jbe	LBB62_13
	movq	%rcx, %r9
	andq	$-8, %r9
	movd	%r12d, %xmm0
	pshufd	$0, %xmm0, %xmm0
	leaq	-8(%r9), %rsi
	movq	%rsi, %rdx
	shrq	$3, %rdx
	incq	%rdx
	movl	%edx, %eax
	andl	$7, %eax
	cmpq	$56, %rsi
	jae	LBB62_17
	xorl	%edx, %edx
	jmp	LBB62_19
LBB62_5:
	movq	-48(%rbp), %rbx
	movq	-56(%rbp), %rcx
	testq	%r13, %r13
	jne	LBB62_26
	jmp	LBB62_27
LBB62_9:
	movl	$4, %esi
	xorl	%r13d, %r13d
	xorl	%edi, %edi
	jmp	LBB62_28
LBB62_17:
	leaq	240(%r10,%r11,4), %rdi
	movq	%rax, %rsi
	subq	%rdx, %rsi
	xorl	%edx, %edx
	.p2align	4, 0x90
LBB62_18:
	movdqu	%xmm0, -240(%rdi,%rdx,4)
	movdqu	%xmm0, -224(%rdi,%rdx,4)
	movdqu	%xmm0, -208(%rdi,%rdx,4)
	movdqu	%xmm0, -192(%rdi,%rdx,4)
	movdqu	%xmm0, -176(%rdi,%rdx,4)
	movdqu	%xmm0, -160(%rdi,%rdx,4)
	movdqu	%xmm0, -144(%rdi,%rdx,4)
	movdqu	%xmm0, -128(%rdi,%rdx,4)
	movdqu	%xmm0, -112(%rdi,%rdx,4)
	movdqu	%xmm0, -96(%rdi,%rdx,4)
	movdqu	%xmm0, -80(%rdi,%rdx,4)
	movdqu	%xmm0, -64(%rdi,%rdx,4)
	movdqu	%xmm0, -48(%rdi,%rdx,4)
	movdqu	%xmm0, -32(%rdi,%rdx,4)
	movdqu	%xmm0, -16(%rdi,%rdx,4)
	movdqu	%xmm0, (%rdi,%rdx,4)
	addq	$64, %rdx
	addq	$8, %rsi
	jne	LBB62_18
LBB62_19:
	testq	%rax, %rax
	je	LBB62_22
	addq	%r11, %rdx
	leaq	16(%r10,%rdx,4), %rdx
	negq	%rax
	.p2align	4, 0x90
LBB62_21:
	movdqu	%xmm0, -16(%rdx)
	movdqu	%xmm0, (%rdx)
	addq	$32, %rdx
	incq	%rax
	jne	LBB62_21
LBB62_22:
	leaq	(%r8,%r9,4), %r8
	cmpq	%r9, %rcx
	jne	LBB62_38
	movq	-48(%rbp), %rbx
	movq	-56(%rbp), %rcx
	jmp	LBB62_24
LBB62_38:
	orq	$1, %r9
LBB62_13:
	movq	-48(%rbp), %rbx
	movq	-56(%rbp), %rcx
	addq	%r14, %r15
	subq	%r9, %r15
	.p2align	4, 0x90
LBB62_14:
	movl	%r12d, (%r8)
	addq	$4, %r8
	decq	%r15
	jne	LBB62_14
LBB62_24:
	leaq	-1(%r13,%r11), %r11
	testq	%r13, %r13
	je	LBB62_27
LBB62_26:
	movl	%r12d, (%r8)
	incq	%r11
LBB62_27:
	movq	-88(%rbp), %rsi
	movq	-80(%rbp), %rdi
	movq	%r11, %r13
LBB62_28:
	movq	-64(%rbp), %rax
	movq	%rsi, (%rax)
	movq	%rdi, 8(%rax)
	movq	%r13, 16(%rax)
	movq	%rbx, 24(%rax)
	testq	%rcx, %rcx
	je	LBB62_35
	movl	$-1, %eax
	shll	%cl, %eax
	movq	%r13, %rdi
	subq	$1, %rdi
	jb	LBB62_33
	cmpq	%rdi, %r13
	jbe	LBB62_31
	notl	%eax
	andl	%eax, (%rsi,%rdi,4)
LBB62_35:
	addq	$56, %rsp
	popq	%rbx
	popq	%r12
	popq	%r13
	popq	%r14
	popq	%r15
	popq	%rbp
	retq
LBB62_33:
Ltmp8:
	leaq	_str.2(%rip), %rdi
	leaq	l___unnamed_43(%rip), %rdx
	movl	$33, %esi
	callq	__ZN4core9panicking5panic17h383a6b80ea7021aaE
Ltmp9:
	jmp	LBB62_32
LBB62_31:
Ltmp6:
	leaq	l___unnamed_44(%rip), %rdx
	movq	%r13, %rsi
	callq	__ZN4core9panicking18panic_bounds_check17he87128426d100e93E
Ltmp7:
LBB62_32:
	ud2
LBB62_36:
Ltmp10:
	movq	%rax, %rbx
	movq	-64(%rbp), %rdi
	jmp	LBB62_37
LBB62_39:
Ltmp5:
	movq	%rax, %rbx
	leaq	-88(%rbp), %rdi
LBB62_37:
	callq	__ZN4core3ptr13drop_in_place17h3938456cc78f2ad3E
	movq	%rbx, %rdi
	callq	__Unwind_Resume
	ud2
Lfunc_end1:
	.cfi_endproc
	.section	__TEXT,__gcc_except_tab
	.p2align	2
GCC_except_table62:
Lexception1:
	.byte	255
	.byte	255
	.byte	1
	.uleb128 Lcst_end1-Lcst_begin1
Lcst_begin1:
	.uleb128 Ltmp3-Lfunc_begin1
	.uleb128 Ltmp4-Ltmp3
	.uleb128 Ltmp5-Lfunc_begin1
	.byte	0
	.uleb128 Ltmp8-Lfunc_begin1
	.uleb128 Ltmp7-Ltmp8
	.uleb128 Ltmp10-Lfunc_begin1
	.byte	0
	.uleb128 Ltmp7-Lfunc_begin1
	.uleb128 Lfunc_end1-Ltmp7
	.byte	0
	.byte	0
Lcst_end1:
	.p2align	2

	.section	__TEXT,__text,regular,pure_instructions
	.p2align	4, 0x90
__ZN81_$LT$std..collections..hash..map..DefaultHasher$u20$as$u20$core..hash..Hasher$GT$5write17h2d2023515d03097bE:
	.cfi_startproc
	pushq	%rbp
	.cfi_def_cfa_offset 16
	.cfi_offset %rbp, -16
	movq	%rsp, %rbp
	.cfi_def_cfa_register %rbp
	pushq	%rbx
	.cfi_offset %rbx, -24
	addq	%rdx, 16(%rdi)
	movq	64(%rdi), %r9
	testq	%r9, %r9
	je	LBB63_1
	movl	$8, %r11d
	subq	%r9, %r11
	cmpq	%rdx, %r11
	movq	%rdx, %rax
	cmovbq	%r11, %rax
	cmpq	$4, %rax
	jb	LBB63_3
	movl	(%rsi), %r10d
	movl	$4, %r8d
	movq	%r8, %rcx
	orq	$1, %rcx
	cmpq	%rax, %rcx
	jb	LBB63_6
	jmp	LBB63_7
LBB63_1:
	xorl	%r11d, %r11d
	jmp	LBB63_11
LBB63_3:
	xorl	%r8d, %r8d
	xorl	%r10d, %r10d
	movq	%r8, %rcx
	orq	$1, %rcx
	cmpq	%rax, %rcx
	jae	LBB63_7
LBB63_6:
	movzwl	(%rsi,%r8), %ebx
	leal	(,%r8,8), %ecx
	shlq	%cl, %rbx
	orq	%rbx, %r10
	orq	$2, %r8
LBB63_7:
	cmpq	%rax, %r8
	jae	LBB63_9
	movzbl	(%rsi,%r8), %eax
	shll	$3, %r8d
	movl	%r8d, %ecx
	shlq	%cl, %rax
	orq	%rax, %r10
LBB63_9:
	leal	(,%r9,8), %ecx
	shlq	%cl, %r10
	orq	56(%rdi), %r10
	movq	%r10, 56(%rdi)
	cmpq	%rdx, %r11
	jbe	LBB63_10
	addq	%rdx, %r9
	movq	%r9, 64(%rdi)
	popq	%rbx
	popq	%rbp
	retq
LBB63_10:
	movq	48(%rdi), %rcx
	xorq	%r10, %rcx
	movq	40(%rdi), %rbx
	movq	24(%rdi), %r8
	addq	%rbx, %r8
	rolq	$13, %rbx
	xorq	%r8, %rbx
	rolq	$32, %r8
	movq	32(%rdi), %rax
	addq	%rcx, %rax
	rolq	$16, %rcx
	xorq	%rax, %rcx
	addq	%rcx, %r8
	rolq	$21, %rcx
	xorq	%r8, %rcx
	movq	%rcx, 48(%rdi)
	addq	%rbx, %rax
	rolq	$17, %rbx
	xorq	%rax, %rbx
	movq	%rbx, 40(%rdi)
	rolq	$32, %rax
	movq	%rax, 32(%rdi)
	xorq	%r10, %r8
	movq	%r8, 24(%rdi)
	movq	$0, 64(%rdi)
LBB63_11:
	subq	%r11, %rdx
	movl	%edx, %r9d
	andl	$7, %r9d
	andq	$-8, %rdx
	cmpq	%rdx, %r11
	jae	LBB63_15
	movq	48(%rdi), %rcx
	movq	24(%rdi), %r10
	movq	32(%rdi), %r8
	movq	40(%rdi), %rax
	.p2align	4, 0x90
LBB63_13:
	addq	%rax, %r10
	rolq	$13, %rax
	movq	(%rsi,%r11), %rbx
	xorq	%r10, %rax
	rolq	$32, %r10
	xorq	%rbx, %rcx
	addq	%rcx, %r8
	rolq	$16, %rcx
	xorq	%r8, %rcx
	addq	%rcx, %r10
	rolq	$21, %rcx
	addq	%rax, %r8
	rolq	$17, %rax
	xorq	%r8, %rax
	rolq	$32, %r8
	xorq	%r10, %rcx
	xorq	%rbx, %r10
	addq	$8, %r11
	cmpq	%rdx, %r11
	jb	LBB63_13
	movq	%rcx, 48(%rdi)
	movq	%r10, 24(%rdi)
	movq	%rax, 40(%rdi)
	movq	%r8, 32(%rdi)
LBB63_15:
	cmpl	$4, %r9d
	jb	LBB63_16
	movl	(%rsi,%r11), %eax
	movl	$4, %edx
	movq	%rdx, %rcx
	orq	$1, %rcx
	cmpq	%r9, %rcx
	jb	LBB63_19
	jmp	LBB63_20
LBB63_16:
	xorl	%edx, %edx
	xorl	%eax, %eax
	movq	%rdx, %rcx
	orq	$1, %rcx
	cmpq	%r9, %rcx
	jae	LBB63_20
LBB63_19:
	leaq	(%rdx,%r11), %rcx
	movzwl	(%rsi,%rcx), %ebx
	leal	(,%rdx,8), %ecx
	shlq	%cl, %rbx
	orq	%rbx, %rax
	orq	$2, %rdx
LBB63_20:
	cmpq	%r9, %rdx
	jae	LBB63_22
	addq	%rdx, %r11
	movzbl	(%rsi,%r11), %esi
	shll	$3, %edx
	movl	%edx, %ecx
	shlq	%cl, %rsi
	orq	%rsi, %rax
LBB63_22:
	movq	%rax, 56(%rdi)
	movq	%r9, 64(%rdi)
	popq	%rbx
	popq	%rbp
	retq
	.cfi_endproc

	.p2align	4, 0x90
__ZN91_$LT$std..panicking..begin_panic..PanicPayload$LT$A$GT$$u20$as$u20$core..panic..BoxMeUp$GT$3get17h315abab7ca3dfa3dE:
	.cfi_startproc
	pushq	%rbp
	.cfi_def_cfa_offset 16
	.cfi_offset %rbp, -16
	movq	%rsp, %rbp
	.cfi_def_cfa_register %rbp
	cmpq	$0, (%rdi)
	je	LBB64_2
	movq	%rdi, %rax
	leaq	l___unnamed_45(%rip), %rdx
	popq	%rbp
	retq
LBB64_2:
	callq	__ZN3std7process5abort17hff53fa3bc108bcb5E
	.cfi_endproc

	.p2align	4, 0x90
__ZN91_$LT$std..panicking..begin_panic..PanicPayload$LT$A$GT$$u20$as$u20$core..panic..BoxMeUp$GT$8take_box17h49ac42b21b708ebdE:
	.cfi_startproc
	pushq	%rbp
	.cfi_def_cfa_offset 16
	.cfi_offset %rbp, -16
	movq	%rsp, %rbp
	.cfi_def_cfa_register %rbp
	pushq	%r14
	pushq	%rbx
	.cfi_offset %rbx, -32
	.cfi_offset %r14, -24
	movq	(%rdi), %rbx
	movq	8(%rdi), %r14
	movq	$0, (%rdi)
	testq	%rbx, %rbx
	je	LBB65_3
	movl	$16, %edi
	movl	$8, %esi
	callq	___rust_alloc
	testq	%rax, %rax
	je	LBB65_4
	movq	%rbx, (%rax)
	movq	%r14, 8(%rax)
	leaq	l___unnamed_45(%rip), %rdx
	popq	%rbx
	popq	%r14
	popq	%rbp
	retq
LBB65_3:
	callq	__ZN3std7process5abort17hff53fa3bc108bcb5E
LBB65_4:
	movl	$16, %edi
	movl	$8, %esi
	callq	__ZN5alloc5alloc18handle_alloc_error17h28974197717b8939E
	.cfi_endproc

	.section	__TEXT,__literal16,16byte_literals
	.p2align	4
LCPI66_0:
	.quad	8317987319222330741
	.quad	7816392313619706465
LCPI66_1:
	.quad	7237128888997146477
	.quad	8387220255154660723
	.section	__TEXT,__text,regular,pure_instructions
	.p2align	4, 0x90
__ZN9hashbrown3map9make_hash17h0011222f1899d33fE:
	.cfi_startproc
	pushq	%rbp
	.cfi_def_cfa_offset 16
	.cfi_offset %rbp, -16
	movq	%rsp, %rbp
	.cfi_def_cfa_register %rbp
	pushq	%r15
	pushq	%r14
	pushq	%rbx
	subq	$88, %rsp
	.cfi_offset %rbx, -40
	.cfi_offset %r14, -32
	.cfi_offset %r15, -24
	movq	%rdx, %rbx
	movq	%rdi, %xmm0
	pshufd	$68, %xmm0, %xmm0
	pxor	LCPI66_0(%rip), %xmm0
	movq	%rsi, %xmm1
	pshufd	$68, %xmm1, %xmm1
	pxor	LCPI66_1(%rip), %xmm1
	movq	%rdi, -104(%rbp)
	movq	%rsi, -96(%rbp)
	movq	$0, -88(%rbp)
	movdqu	%xmm0, -80(%rbp)
	movdqu	%xmm1, -64(%rbp)
	movq	$0, -48(%rbp)
	movq	$0, -40(%rbp)
	movl	(%rdx), %eax
	movl	%eax, -32(%rbp)
	leaq	-104(%rbp), %r14
	leaq	-32(%rbp), %rsi
	movl	$4, %edx
	movq	%r14, %rdi
	callq	__ZN81_$LT$std..collections..hash..map..DefaultHasher$u20$as$u20$core..hash..Hasher$GT$5write17h2d2023515d03097bE
	movl	4(%rbx), %eax
	movl	%eax, -32(%rbp)
	leaq	-32(%rbp), %rsi
	movl	$4, %edx
	movq	%r14, %rdi
	callq	__ZN81_$LT$std..collections..hash..map..DefaultHasher$u20$as$u20$core..hash..Hasher$GT$5write17h2d2023515d03097bE
	movl	8(%rbx), %eax
	cmpq	$1, %rax
	jne	LBB66_1
	movl	12(%rbx), %r15d
	movq	%rax, -32(%rbp)
	leaq	-104(%rbp), %r14
	leaq	-32(%rbp), %rsi
	movl	$8, %edx
	movq	%r14, %rdi
	callq	__ZN81_$LT$std..collections..hash..map..DefaultHasher$u20$as$u20$core..hash..Hasher$GT$5write17h2d2023515d03097bE
	movl	%r15d, -32(%rbp)
	leaq	-32(%rbp), %rsi
	movl	$4, %edx
	movq	%r14, %rdi
	jmp	LBB66_3
LBB66_1:
	movq	%rax, -32(%rbp)
	leaq	-104(%rbp), %rdi
	leaq	-32(%rbp), %rsi
	movl	$8, %edx
LBB66_3:
	callq	__ZN81_$LT$std..collections..hash..map..DefaultHasher$u20$as$u20$core..hash..Hasher$GT$5write17h2d2023515d03097bE
	movl	16(%rbx), %eax
	movl	20(%rbx), %ebx
	testq	%rax, %rax
	je	LBB66_7
	cmpl	$1, %eax
	je	LBB66_7
	cmpl	$2, %eax
	jne	LBB66_6
LBB66_7:
	movq	%rax, -32(%rbp)
	leaq	-104(%rbp), %r14
	leaq	-32(%rbp), %rsi
	movl	$8, %edx
	movq	%r14, %rdi
	callq	__ZN81_$LT$std..collections..hash..map..DefaultHasher$u20$as$u20$core..hash..Hasher$GT$5write17h2d2023515d03097bE
	movl	%ebx, -32(%rbp)
	leaq	-32(%rbp), %rsi
	movl	$4, %edx
	movq	%r14, %rdi
	jmp	LBB66_8
LBB66_6:
	movq	%rax, -32(%rbp)
	leaq	-104(%rbp), %rdi
	leaq	-32(%rbp), %rsi
	movl	$8, %edx
LBB66_8:
	callq	__ZN81_$LT$std..collections..hash..map..DefaultHasher$u20$as$u20$core..hash..Hasher$GT$5write17h2d2023515d03097bE
	movq	-88(%rbp), %rdi
	movq	-64(%rbp), %rax
	shlq	$56, %rdi
	orq	-48(%rbp), %rdi
	movq	-56(%rbp), %rcx
	movq	-80(%rbp), %rsi
	addq	%rax, %rsi
	rolq	$13, %rax
	xorq	%rdi, %rcx
	xorq	%rsi, %rax
	rolq	$32, %rsi
	movq	-72(%rbp), %rdx
	addq	%rcx, %rdx
	rolq	$16, %rcx
	xorq	%rdx, %rcx
	addq	%rcx, %rsi
	rolq	$21, %rcx
	addq	%rax, %rdx
	rolq	$17, %rax
	xorq	%rsi, %rcx
	xorq	%rdx, %rax
	rolq	$32, %rdx
	xorq	%rdi, %rsi
	addq	%rax, %rsi
	rolq	$13, %rax
	xorq	%rsi, %rax
	rolq	$32, %rsi
	xorq	$255, %rdx
	addq	%rcx, %rdx
	rolq	$16, %rcx
	xorq	%rdx, %rcx
	addq	%rcx, %rsi
	rolq	$21, %rcx
	addq	%rax, %rdx
	rolq	$17, %rax
	xorq	%rdx, %rax
	rolq	$32, %rdx
	xorq	%rsi, %rcx
	addq	%rax, %rsi
	rolq	$13, %rax
	xorq	%rsi, %rax
	rolq	$32, %rsi
	addq	%rcx, %rdx
	rolq	$16, %rcx
	xorq	%rdx, %rcx
	addq	%rcx, %rsi
	rolq	$21, %rcx
	addq	%rax, %rdx
	rolq	$17, %rax
	xorq	%rdx, %rax
	rolq	$32, %rdx
	xorq	%rsi, %rcx
	addq	%rax, %rsi
	rolq	$13, %rax
	addq	%rcx, %rdx
	rolq	$16, %rcx
	xorq	%rsi, %rax
	xorq	%rdx, %rcx
	rolq	$21, %rcx
	addq	%rax, %rdx
	rolq	$17, %rax
	xorq	%rdx, %rax
	rolq	$32, %rdx
	xorq	%rdx, %rax
	xorq	%rcx, %rax
	addq	$88, %rsp
	popq	%rbx
	popq	%r14
	popq	%r15
	popq	%rbp
	retq
	.cfi_endproc

	.section	__TEXT,__literal16,16byte_literals
	.p2align	4
LCPI67_0:
	.space	16,128
	.section	__TEXT,__text,regular,pure_instructions
	.p2align	4, 0x90
__ZN9hashbrown3raw17RawTable$LT$T$GT$14reserve_rehash17hab3764faad86067bE:
Lfunc_begin2:
	.cfi_startproc
	.cfi_personality 155, _rust_eh_personality
	.cfi_lsda 16, Lexception2
	pushq	%rbp
	.cfi_def_cfa_offset 16
	.cfi_offset %rbp, -16
	movq	%rsp, %rbp
	.cfi_def_cfa_register %rbp
	pushq	%r15
	pushq	%r14
	pushq	%r13
	pushq	%r12
	pushq	%rbx
	subq	$120, %rsp
	.cfi_offset %rbx, -56
	.cfi_offset %r12, -48
	.cfi_offset %r13, -40
	.cfi_offset %r14, -32
	.cfi_offset %r15, -24
	movq	%rdi, %r15
	movq	32(%rsi), %rbx
	incq	%rbx
	jne	LBB67_1
LBB67_10:
	movl	$1, %edi
	callq	__ZN9hashbrown3raw11Fallibility17capacity_overflow17hfb2bba84b554a21fE
LBB67_11:
	movq	%rax, 8(%r15)
	movq	%rdx, 16(%r15)
	movq	$1, (%r15)
	jmp	LBB67_12
LBB67_1:
	movq	%rdx, %r12
	movq	%rsi, %r14
	movq	(%rsi), %rdi
	callq	__ZN9hashbrown3raw23bucket_mask_to_capacity17h0acd005f12c39704E
	movq	%rax, %rcx
	shrq	%rcx
	cmpq	%rcx, %rbx
	movq	%r14, -48(%rbp)
	jbe	LBB67_32
	incq	%rax
	cmpq	%rax, %rbx
	cmovaq	%rbx, %rax
	testq	%rax, %rax
	je	LBB67_14
	movq	%rax, %rdi
	callq	__ZN9hashbrown3raw19capacity_to_buckets17hfc8cca99afa52604E
	testq	%rax, %rax
	je	LBB67_10
	movq	%rdx, %r13
	movl	$28, %ecx
	xorl	%esi, %esi
	movq	%rdx, %rax
	mulq	%rcx
	setno	%cl
	jo	LBB67_10
	movb	%cl, %sil
	shlq	$2, %rsi
	leaq	16(%r13), %rdx
	leaq	15(%r13,%rsi), %rcx
	negq	%rsi
	andq	%rcx, %rsi
	subq	%rdx, %rsi
	addq	%rdx, %rsi
	jb	LBB67_10
	addq	%rsi, %rax
	jb	LBB67_10
	cmpq	$-16, %rax
	ja	LBB67_10
	movq	%rdx, -72(%rbp)
	movq	%rsi, -80(%rbp)
	movl	$16, %esi
	movq	%rax, %r14
	movq	%rax, %rdi
	callq	___rust_alloc
	testq	%rax, %rax
	je	LBB67_9
	movq	%rax, %rbx
	movq	%r12, -64(%rbp)
	movq	%r15, -56(%rbp)
	decq	%r13
	movq	%r13, %rdi
	callq	__ZN9hashbrown3raw23bucket_mask_to_capacity17h0acd005f12c39704E
	movq	%rax, -88(%rbp)
	movq	-80(%rbp), %r14
	addq	%rbx, %r14
	movq	%rbx, %rdi
	movl	$255, %esi
	movq	-72(%rbp), %rdx
	callq	_memset
	movq	%r14, %rdi
	jmp	LBB67_15
LBB67_32:
	movq	(%r14), %rcx
	incq	%rcx
	xorl	%eax, %eax
	movdqa	LCPI67_0(%rip), %xmm0
	xorl	%esi, %esi
	movq	%r14, %rbx
	jmp	LBB67_33
	.p2align	4, 0x90
LBB67_38:
	movq	8(%rbx), %rsi
	pxor	%xmm1, %xmm1
	pcmpgtb	(%rsi,%rax), %xmm1
	por	%xmm0, %xmm1
	movdqa	%xmm1, (%rsi,%rax)
	movb	$1, %sil
	movq	%rdx, %rax
LBB67_33:
	testb	$1, %sil
	je	LBB67_34
	leaq	15(%rax), %rdx
	incq	%rdx
	movq	%rax, %rsi
	addq	$15, %rsi
	cmovbq	%rcx, %rdx
	cmpq	%rcx, %rsi
	cmovaeq	%rcx, %rdx
	addq	$15, %rax
	jb	LBB67_39
	cmpq	%rcx, %rax
	jb	LBB67_38
	jmp	LBB67_39
	.p2align	4, 0x90
LBB67_34:
	cmpq	%rcx, %rax
	jae	LBB67_39
	leaq	1(%rax), %rdx
	jmp	LBB67_38
LBB67_39:
	movq	(%rbx), %rdx
	movq	8(%rbx), %rsi
	incq	%rdx
	cmpq	$15, %rdx
	ja	LBB67_41
	leaq	16(%rsi), %rdi
	callq	_memmove
	movq	%rbx, -144(%rbp)
	movq	(%rbx), %r14
	cmpq	$-1, %r14
	je	LBB67_43
LBB67_44:
	movq	%r15, -56(%rbp)
	movq	(%r12), %r12
	xorl	%r15d, %r15d
	jmp	LBB67_45
	.p2align	4, 0x90
LBB67_51:
	leaq	(%r15,%r15,8), %rax
	leaq	(%rax,%rax,2), %r13
	addq	%r15, %r13
	addq	16(%rbx), %r13
	movq	(%r12), %rdi
	movq	8(%r12), %rsi
	movq	%r13, %rdx
	callq	__ZN9hashbrown3map9make_hash17h0011222f1899d33fE
	movq	(%rbx), %rsi
	movq	8(%rbx), %r8
	movq	%rax, %rdx
	xorl	%edi, %edi
	.p2align	4, 0x90
LBB67_52:
	movq	%rdx, %rbx
	andq	%rsi, %rbx
	movdqu	(%r8,%rbx), %xmm0
	pmovmskb	%xmm0, %ecx
	leaq	16(%rdi,%rbx), %rdx
	addq	$16, %rdi
	testw	%cx, %cx
	je	LBB67_52
	bsfw	%cx, %cx
	movzwl	%cx, %ecx
	addq	%rcx, %rbx
	andq	%rsi, %rbx
	cmpb	$0, (%r8,%rbx)
	jns	LBB67_54
LBB67_55:
	movq	%rsi, %rcx
	andq	%rax, %rcx
	movq	%r15, %rdi
	subq	%rcx, %rdi
	movq	%rbx, %rdx
	subq	%rcx, %rdx
	xorq	%rdi, %rdx
	andq	%rsi, %rdx
	cmpq	$15, %rdx
	jbe	LBB67_56
	movb	(%r8,%rbx), %cl
	shrq	$57, %rax
	leaq	-16(%rbx), %rdx
	andq	%rsi, %rdx
	movb	%al, (%r8,%rbx)
	movb	%al, 16(%rdx,%r8)
	cmpb	$-1, %cl
	je	LBB67_58
	movq	-48(%rbp), %rdx
	movq	16(%rdx), %rax
	leaq	(%rbx,%rbx,8), %rcx
	leaq	(%rcx,%rcx,2), %rcx
	addq	%rbx, %rcx
	movq	%rdx, %rbx
	movl	24(%rax,%rcx), %edx
	movl	%edx, -96(%rbp)
	movq	16(%rax,%rcx), %rdx
	movq	%rdx, -104(%rbp)
	movq	(%rax,%rcx), %rdx
	movq	8(%rax,%rcx), %rsi
	movq	%rsi, -112(%rbp)
	movq	%rdx, -120(%rbp)
	movl	24(%r13), %edx
	movl	%edx, 24(%rax,%rcx)
	movq	16(%r13), %rdx
	movq	%rdx, 16(%rax,%rcx)
	movq	(%r13), %rdx
	movq	8(%r13), %rsi
	movq	%rsi, 8(%rax,%rcx)
	movq	%rdx, (%rax,%rcx)
	movl	-96(%rbp), %eax
	movl	%eax, 24(%r13)
	movq	-104(%rbp), %rax
	movq	%rax, 16(%r13)
	movq	-120(%rbp), %rax
	movq	-112(%rbp), %rcx
	movq	%rcx, 8(%r13)
	movq	%rax, (%r13)
	jmp	LBB67_51
LBB67_54:
	movdqa	(%r8), %xmm0
	pmovmskb	%xmm0, %ecx
	bsfw	%cx, %cx
	movzwl	%cx, %ebx
	jmp	LBB67_55
	.p2align	4, 0x90
LBB67_56:
	shrq	$57, %rax
	leaq	-16(%r15), %rcx
	andq	%rcx, %rsi
	movb	%al, (%r8,%r15)
	movb	%al, 16(%rsi,%r8)
	movq	-48(%rbp), %rbx
LBB67_46:
	cmpq	%r14, %r15
	leaq	1(%r15), %r15
	je	LBB67_47
LBB67_45:
	movq	8(%rbx), %rax
	cmpb	$-128, (%rax,%r15)
	je	LBB67_51
	jmp	LBB67_46
LBB67_58:
	leaq	-16(%r15), %rax
	movq	-48(%rbp), %rdx
	andq	(%rdx), %rax
	movq	8(%rdx), %rcx
	movb	$-1, (%rcx,%r15)
	movb	$-1, 16(%rax,%rcx)
	movq	16(%rdx), %rax
	leaq	(%rbx,%rbx,8), %rcx
	leaq	(%rcx,%rcx,2), %rcx
	addq	%rbx, %rcx
	movq	%rdx, %rbx
	movl	24(%r13), %edx
	movl	%edx, 24(%rax,%rcx)
	movq	16(%r13), %rdx
	movq	%rdx, 16(%rax,%rcx)
	movq	(%r13), %rdx
	movq	8(%r13), %rsi
	movq	%rsi, 8(%rax,%rcx)
	movq	%rdx, (%rax,%rcx)
	jmp	LBB67_46
LBB67_47:
	movq	(%rbx), %rdi
	movq	-56(%rbp), %r15
	jmp	LBB67_48
LBB67_41:
	movq	(%rsi), %rax
	movq	8(%rsi), %rcx
	movq	%rcx, 8(%rsi,%rdx)
	movq	%rax, (%rsi,%rdx)
	movq	%rbx, -144(%rbp)
	movq	(%rbx), %r14
	cmpq	$-1, %r14
	jne	LBB67_44
LBB67_43:
	movq	$-1, %rdi
LBB67_48:
Ltmp11:
	callq	__ZN9hashbrown3raw23bucket_mask_to_capacity17h0acd005f12c39704E
Ltmp12:
	subq	32(%rbx), %rax
	movq	%rax, 24(%rbx)
	movq	$0, (%r15)
LBB67_12:
	addq	$120, %rsp
	popq	%rbx
	popq	%r12
	popq	%r13
	popq	%r14
	popq	%r15
	popq	%rbp
	retq
LBB67_14:
	movq	%r12, -64(%rbp)
	movq	%r15, -56(%rbp)
	callq	__ZN9hashbrown3raw4sse25Group12static_empty17h2e96e5fa45e5688dE
	movq	%rax, %rbx
	movl	$4, %edi
	xorl	%eax, %eax
	movq	%rax, -88(%rbp)
	xorl	%r13d, %r13d
LBB67_15:
	movq	-48(%rbp), %rcx
	movq	32(%rcx), %rax
	movq	%rax, -128(%rbp)
	movq	%rbx, %xmm0
	movq	%r13, %xmm1
	punpcklqdq	%xmm0, %xmm1
	movdqa	%xmm1, -160(%rbp)
	movq	16(%rcx), %r14
	movq	(%rcx), %rax
	movq	8(%rcx), %r12
	leaq	1(%rax,%r12), %rcx
	movdqa	(%r12), %xmm0
	pmovmskb	%xmm0, %r15d
	notl	%r15d
	addq	$16, %r12
	movq	-64(%rbp), %rax
	movq	(%rax), %rax
	movq	%rax, -136(%rbp)
	movq	%rdi, -80(%rbp)
	movq	%rcx, -72(%rbp)
	testw	%r15w, %r15w
	jne	LBB67_20
	.p2align	4, 0x90
LBB67_17:
	cmpq	%rcx, %r12
	jae	LBB67_25
	movdqa	(%r12), %xmm0
	pmovmskb	%xmm0, %r15d
	addq	$448, %r14
	addq	$16, %r12
	cmpw	$-1, %r15w
	je	LBB67_17
	notl	%r15d
LBB67_20:
	bsfw	%r15w, %ax
	movzwl	%ax, %eax
	leaq	(%rax,%rax,8), %rcx
	leaq	(%rcx,%rcx,2), %rdx
	addq	%rax, %rdx
	addq	%r14, %rdx
	movq	-136(%rbp), %rax
	movq	(%rax), %rdi
	movq	8(%rax), %rsi
	movq	%rdx, -64(%rbp)
	callq	__ZN9hashbrown3map9make_hash17h0011222f1899d33fE
	movq	%rax, %rdi
	xorl	%ecx, %ecx
	.p2align	4, 0x90
LBB67_21:
	movq	%rdi, %rdx
	andq	%r13, %rdx
	movdqu	(%rbx,%rdx), %xmm0
	pmovmskb	%xmm0, %esi
	leaq	16(%rcx,%rdx), %rdi
	addq	$16, %rcx
	testw	%si, %si
	je	LBB67_21
	leal	-1(%r15), %ecx
	andl	%r15d, %ecx
	bsfw	%si, %si
	movzwl	%si, %esi
	addq	%rsi, %rdx
	andq	%r13, %rdx
	cmpb	$0, (%rbx,%rdx)
	jns	LBB67_23
LBB67_24:
	shrq	$57, %rax
	leaq	-16(%rdx), %rsi
	andq	%r13, %rsi
	movb	%al, (%rbx,%rdx)
	movb	%al, 16(%rsi,%rbx)
	leaq	(%rdx,%rdx,8), %rax
	leaq	(%rax,%rax,2), %rax
	addq	%rdx, %rax
	movq	-64(%rbp), %rsi
	movl	24(%rsi), %edx
	movq	-80(%rbp), %rdi
	movl	%edx, 24(%rdi,%rax)
	movq	16(%rsi), %rdx
	movq	%rdx, 16(%rdi,%rax)
	movq	(%rsi), %rdx
	movq	8(%rsi), %rsi
	movq	%rsi, 8(%rdi,%rax)
	movq	%rdx, (%rdi,%rax)
	movl	%ecx, %r15d
	movq	-72(%rbp), %rcx
	testw	%r15w, %r15w
	jne	LBB67_20
	jmp	LBB67_17
LBB67_23:
	movdqa	(%rbx), %xmm0
	pmovmskb	%xmm0, %edx
	bsfw	%dx, %dx
	movzwl	%dx, %edx
	jmp	LBB67_24
LBB67_25:
	movq	%rdi, %xmm1
	movq	-88(%rbp), %rax
	movq	-128(%rbp), %rcx
	subq	%rcx, %rax
	movq	%rax, %xmm0
	punpcklqdq	%xmm0, %xmm1
	movq	-48(%rbp), %rax
	movdqu	(%rax), %xmm0
	movaps	-160(%rbp), %xmm2
	movups	%xmm2, (%rax)
	movdqu	%xmm1, 16(%rax)
	movq	%rcx, 32(%rax)
	movq	-56(%rbp), %rax
	movq	$0, (%rax)
	movq	%xmm0, %rcx
	testq	%rcx, %rcx
	je	LBB67_12
	leaq	1(%rcx), %rax
	movl	$28, %edx
	xorl	%esi, %esi
	mulq	%rdx
	setno	%dl
	jo	LBB67_27
	movb	%dl, %sil
	shlq	$2, %rsi
	leaq	16(%rcx,%rsi), %rdx
	addq	$17, %rcx
	negq	%rsi
	andq	%rdx, %rsi
	subq	%rcx, %rsi
	addq	%rcx, %rsi
	jae	LBB67_29
LBB67_27:
	xorl	%edx, %edx
	jmp	LBB67_30
LBB67_29:
	leaq	(%rsi,%rax), %rcx
	xorl	%edi, %edi
	cmpq	$-15, %rcx
	setb	%dil
	shlq	$4, %rdi
	xorl	%edx, %edx
	addq	%rax, %rsi
	cmovaeq	%rdi, %rdx
LBB67_30:
	pshufd	$78, %xmm0, %xmm0
	movq	%xmm0, %rdi
	addq	$120, %rsp
	popq	%rbx
	popq	%r12
	popq	%r13
	popq	%r14
	popq	%r15
	popq	%rbp
	jmp	___rust_dealloc
LBB67_9:
	movl	$16, %edx
	movl	$1, %edi
	movq	%r14, %rsi
	callq	__ZN9hashbrown3raw11Fallibility9alloc_err17h640c17cab3a4c34eE
	jmp	LBB67_11
LBB67_31:
Ltmp13:
	movq	%rax, %rbx
	leaq	-144(%rbp), %rdi
	callq	__ZN4core3ptr13drop_in_place17h04e4229a8b40c6caE
	movq	%rbx, %rdi
	callq	__Unwind_Resume
	ud2
Lfunc_end2:
	.cfi_endproc
	.section	__TEXT,__gcc_except_tab
	.p2align	2
GCC_except_table67:
Lexception2:
	.byte	255
	.byte	255
	.byte	1
	.uleb128 Lcst_end2-Lcst_begin2
Lcst_begin2:
	.uleb128 Lfunc_begin2-Lfunc_begin2
	.uleb128 Ltmp11-Lfunc_begin2
	.byte	0
	.byte	0
	.uleb128 Ltmp11-Lfunc_begin2
	.uleb128 Ltmp12-Ltmp11
	.uleb128 Ltmp13-Lfunc_begin2
	.byte	0
	.uleb128 Ltmp12-Lfunc_begin2
	.uleb128 Lfunc_end2-Ltmp12
	.byte	0
	.byte	0
Lcst_end2:
	.p2align	2

	.section	__TEXT,__text,regular,pure_instructions
	.p2align	4, 0x90
__ZN3cfg8analysis11rhs_closure19RhsClosure$LT$R$GT$3new17h5422b493f52ad015E:
Lfunc_begin3:
	.cfi_startproc
	.cfi_personality 155, _rust_eh_personality
	.cfi_lsda 16, Lexception3
	pushq	%rbp
	.cfi_def_cfa_offset 16
	.cfi_offset %rbp, -16
	movq	%rsp, %rbp
	.cfi_def_cfa_register %rbp
	pushq	%r15
	pushq	%r14
	pushq	%r13
	pushq	%r12
	pushq	%rbx
	subq	$296, %rsp
	.cfi_offset %rbx, -56
	.cfi_offset %r12, -48
	.cfi_offset %r13, -40
	.cfi_offset %r14, -32
	.cfi_offset %r15, -24
	movq	40(%rsi), %r11
	movq	16(%rsi), %rcx
	leaq	(%rcx,%r11), %rax
	addq	%rax, %rax
	movl	$40, %edx
	xorl	%ebx, %ebx
	mulq	%rdx
	movq	%rax, %r14
	setno	%al
	jo	LBB68_150
	movq	%rdi, -232(%rbp)
	movq	(%rsi), %r10
	movb	%al, %bl
	shlq	$3, %rbx
	movq	24(%rsi), %r12
	testq	%r14, %r14
	je	LBB68_133
	movq	%r14, %rdi
	movq	%rbx, %rsi
	movq	%r10, %r15
	movq	%r11, %r13
	movq	%rcx, -56(%rbp)
	callq	___rust_alloc
	movq	-56(%rbp), %rcx
	movq	%r13, %r11
	movq	%r15, %r10
	movq	%rax, %r9
	testq	%r9, %r9
	je	LBB68_134
LBB68_3:
	imulq	$56, %rcx, %rax
	addq	%r10, %rax
	movq	%rax, -48(%rbp)
	movabsq	$-3689348814741910323, %rcx
	movq	%r14, %rax
	mulq	%rcx
	movq	%rdx, %r8
	shrq	$5, %r8
	movq	%r9, -200(%rbp)
	movq	%r8, -192(%rbp)
	movq	$0, -184(%rbp)
	leaq	-92(%rbp), %r13
	leaq	(%r11,%r11,4), %rax
	leaq	(%r12,%rax,8), %r11
	xorl	%ebx, %ebx
	xorl	%r15d, %r15d
	movq	%r11, -120(%rbp)
	jmp	LBB68_6
	.p2align	4, 0x90
LBB68_4:
	subq	-56(%rbp), %rsi
	addq	$-4, %rsi
	shrq	$2, %rsi
	movq	-104(%rbp), %rbx
	leaq	1(%rbx,%rsi), %rbx
LBB68_5:
	movq	%rbx, -184(%rbp)
LBB68_6:
	testq	%r12, %r12
	movq	%rbx, -104(%rbp)
	je	LBB68_11
	.p2align	4, 0x90
LBB68_7:
	cmpq	%r12, %r11
	je	LBB68_11
	incq	%r15
	je	LBB68_137
	cmpl	$2, 24(%r12)
	leaq	40(%r12), %r12
	je	LBB68_7
	movl	%r15d, %eax
	decl	%eax
	movq	%r12, %rcx
	addq	$-40, %rcx
	leaq	l___unnamed_11(%rip), %rdi
	xorl	%r14d, %r14d
	jmp	LBB68_14
	.p2align	4, 0x90
LBB68_11:
	testq	%r10, %r10
	je	LBB68_35
	cmpq	%r10, -48(%rbp)
	je	LBB68_35
	movl	40(%r10), %eax
	xorl	%r14d, %r14d
	cmpl	$1, 44(%r10)
	sete	%r14b
	incq	%r14
	leaq	48(%r10), %rdi
	movq	%r10, %rcx
	addq	$56, %r10
	movl	$0, %r12d
LBB68_14:
	movq	%rdi, -152(%rbp)
	movq	%r14, -144(%rbp)
	movq	%rcx, -136(%rbp)
	movl	%eax, -128(%rbp)
	movq	%r8, %rax
	subq	%rbx, %rax
	cmpq	%r14, %rax
	movq	%rdi, -56(%rbp)
	jae	LBB68_21
	movq	%rbx, %rax
	addq	%r14, %rax
	jb	LBB68_143
	leaq	(%r8,%r8), %rcx
	cmpq	%rax, %rcx
	cmovaq	%rcx, %rax
	cmpq	$4, %rax
	movl	$4, %ecx
	cmovbeq	%rcx, %rax
	xorl	%esi, %esi
	movl	$40, %ecx
	mulq	%rcx
	movq	%rax, %rbx
	seto	%cl
	setno	%al
	testq	%r8, %r8
	cmoveq	%r8, %r9
	testb	%cl, %cl
	jne	LBB68_143
	testq	%r9, %r9
	je	LBB68_22
	shlq	$3, %r8
	leaq	(%r8,%r8,4), %rsi
	cmpq	%rbx, %rsi
	je	LBB68_28
	testq	%rsi, %rsi
	je	LBB68_24
	movl	$8, %edx
	movq	%r9, %rdi
	movq	%rbx, %rcx
	movq	%rbx, -112(%rbp)
	movq	%r10, %rbx
	callq	___rust_realloc
	jmp	LBB68_27
	.p2align	4, 0x90
LBB68_21:
	testq	%r14, %r14
	jne	LBB68_30
	jmp	LBB68_5
LBB68_22:
	movb	%al, %sil
	shlq	$3, %rsi
	testq	%rbx, %rbx
	jne	LBB68_26
	movq	%rsi, %r9
	jmp	LBB68_28
LBB68_24:
	testq	%rbx, %rbx
	je	LBB68_34
	movl	$8, %esi
LBB68_26:
	movq	%rbx, %rdi
	movq	%rbx, -112(%rbp)
	movq	%r10, %rbx
	callq	___rust_alloc
LBB68_27:
	movq	-56(%rbp), %rdi
	movq	-120(%rbp), %r11
	movq	%rbx, %r10
	movq	-112(%rbp), %rbx
	movq	%rax, %r9
LBB68_28:
	testq	%r9, %r9
	je	LBB68_144
LBB68_29:
	movq	%r9, -200(%rbp)
	movq	%rbx, %rax
	movabsq	$-3689348814741910323, %rcx
	mulq	%rcx
	movq	%rdx, %r8
	shrq	$5, %r8
	movq	%r8, -192(%rbp)
	movq	-104(%rbp), %rbx
LBB68_30:
	leaq	(%rbx,%rbx,4), %rsi
	leaq	(%r9,%rsi,8), %rax
	leaq	-4(,%r14,4), %rcx
	testb	$4, %cl
	jne	LBB68_32
	leaq	4(%rdi), %rdx
	movq	%r10, %rbx
	movl	(%rdi), %r10d
	movq	-128(%rbp), %rdi
	movq	%rdi, 24(%r13)
	movq	-136(%rbp), %rdi
	movq	%rdi, 16(%r13)
	movq	-152(%rbp), %r11
	movq	-144(%rbp), %rdi
	movq	%rdi, 8(%r13)
	movq	%r11, (%r13)
	movq	-120(%rbp), %r11
	movl	%r10d, (%rax)
	movl	-64(%rbp), %edi
	movl	%edi, 36(%r9,%rsi,8)
	movq	-72(%rbp), %rdi
	movq	%rdi, 28(%r9,%rsi,8)
	movq	-80(%rbp), %rdi
	movq	%rdi, 20(%r9,%rsi,8)
	movq	-96(%rbp), %r10
	movq	-88(%rbp), %rdi
	movq	%rdi, 12(%r9,%rsi,8)
	movq	-56(%rbp), %rdi
	movq	%r10, 4(%r9,%rsi,8)
	movq	%rbx, %r10
	addq	$40, %rax
	leaq	(%rdi,%r14,4), %rsi
	testq	%rcx, %rcx
	jne	LBB68_33
	jmp	LBB68_4
	.p2align	4, 0x90
LBB68_32:
	movq	%rdi, %rdx
	leaq	(%rdi,%r14,4), %rsi
	testq	%rcx, %rcx
	je	LBB68_4
	.p2align	4, 0x90
LBB68_33:
	movl	(%rdx), %ecx
	movq	-128(%rbp), %rdi
	movq	%rdi, 24(%r13)
	movq	-136(%rbp), %rdi
	movq	%rdi, 16(%r13)
	movq	-152(%rbp), %rdi
	movq	-144(%rbp), %rbx
	movq	%rbx, 8(%r13)
	movq	%rdi, (%r13)
	movl	%ecx, (%rax)
	movl	-64(%rbp), %ecx
	movl	%ecx, 36(%rax)
	movq	-72(%rbp), %rcx
	movq	%rcx, 28(%rax)
	movq	-80(%rbp), %rcx
	movq	%rcx, 20(%rax)
	movq	-96(%rbp), %rcx
	movq	-88(%rbp), %rdi
	movq	%rdi, 12(%rax)
	movq	%rcx, 4(%rax)
	movl	4(%rdx), %ecx
	movq	-128(%rbp), %rdi
	movq	%rdi, 24(%r13)
	movq	-136(%rbp), %rdi
	movq	%rdi, 16(%r13)
	movq	-152(%rbp), %rdi
	movq	-144(%rbp), %rbx
	movq	%rbx, 8(%r13)
	movq	%rdi, (%r13)
	movl	%ecx, 40(%rax)
	movq	-96(%rbp), %rcx
	movq	-88(%rbp), %rdi
	movq	%rcx, 44(%rax)
	movq	%rdi, 52(%rax)
	movq	-80(%rbp), %rcx
	movq	%rcx, 60(%rax)
	movq	-72(%rbp), %rcx
	movq	%rcx, 68(%rax)
	movl	-64(%rbp), %ecx
	movl	%ecx, 76(%rax)
	addq	$8, %rdx
	addq	$80, %rax
	cmpq	%rsi, %rdx
	jne	LBB68_33
	jmp	LBB68_4
LBB68_34:
	movl	$8, %r9d
	jmp	LBB68_29
LBB68_35:
	movq	-200(%rbp), %rax
	movq	%rax, -48(%rbp)
	cmpq	$21, %rbx
	jae	LBB68_47
	cmpq	$2, %rbx
	jb	LBB68_132
	movq	%rbx, %rsi
	movq	%rbx, %rax
	leaq	-1(%rsi), %rdi
	leaq	(%rsi,%rsi,4), %rax
	movq	-48(%rbp), %rcx
	leaq	(%rcx,%rax,8), %r10
	xorl	%r11d, %r11d
	movq	-48(%rbp), %r14
	jmp	LBB68_40
	.p2align	4, 0x90
LBB68_38:
	movl	%r8d, (%rdx)
	movq	-96(%rbp), %rax
	movq	-88(%rbp), %rcx
	movq	%rax, 4(%rdx)
	movq	%rcx, 12(%rdx)
	movq	-80(%rbp), %rax
	movq	%rax, 20(%rdx)
	movq	-72(%rbp), %rax
	movq	%rax, 28(%rdx)
	movl	-64(%rbp), %eax
	movl	%eax, 36(%rdx)
LBB68_39:
	addq	$-40, %r10
	incq	%r11
	testq	%rdi, %rdi
	je	LBB68_132
LBB68_40:
	movq	%rdi, %rdx
	decq	%rdi
	movq	%rsi, %rbx
	subq	%rdi, %rbx
	jb	LBB68_145
	cmpq	$2, %rbx
	jb	LBB68_39
	leaq	(%rdi,%rdi,4), %rcx
	movq	-48(%rbp), %rax
	leaq	(%rax,%rcx,8), %r9
	leaq	(%rdx,%rdx,4), %rdx
	movl	(%r9), %r8d
	cmpl	%r8d, (%rax,%rdx,8)
	jae	LBB68_39
	leaq	(%r14,%rdx,8), %rdx
	movl	36(%r14,%rcx,8), %eax
	movl	%eax, -64(%rbp)
	movq	28(%r14,%rcx,8), %rax
	movq	%rax, -72(%rbp)
	movq	20(%r14,%rcx,8), %rax
	movq	%rax, -80(%rbp)
	movq	4(%r14,%rcx,8), %rax
	movq	12(%r14,%rcx,8), %rcx
	movq	%rcx, -88(%rbp)
	movq	%rax, -96(%rbp)
	movq	32(%rdx), %rax
	movq	%rax, 32(%r9)
	movq	24(%rdx), %rax
	movq	%rax, 24(%r9)
	movq	16(%rdx), %rax
	movq	%rax, 16(%r9)
	movq	(%rdx), %rax
	movq	8(%rdx), %rcx
	movq	%rcx, 8(%r9)
	movq	%rax, (%r9)
	cmpq	$3, %rbx
	jb	LBB68_38
	movq	%r11, %rcx
	movq	%r10, %rax
	cmpl	%r8d, 80(%r9)
	jae	LBB68_38
	.p2align	4, 0x90
LBB68_45:
	movq	%rax, %rdx
	movq	32(%rax), %rax
	movq	%rax, -8(%rdx)
	movq	24(%rdx), %rax
	movq	%rax, -16(%rdx)
	movq	16(%rdx), %rax
	movq	%rax, -24(%rdx)
	movq	(%rdx), %rax
	movq	8(%rdx), %rbx
	movq	%rbx, -32(%rdx)
	movq	%rax, -40(%rdx)
	decq	%rcx
	je	LBB68_38
	leaq	40(%rdx), %rax
	cmpl	%r8d, 40(%rdx)
	jb	LBB68_45
	jmp	LBB68_38
LBB68_47:
	movq	%rbx, %rax
	shrq	%rax
	movl	$40, %ecx
	xorl	%r14d, %r14d
	mulq	%rcx
	movq	%rax, %rdi
	setno	%al
	jo	LBB68_152
	movb	%al, %r14b
	shlq	$3, %r14
	testq	%rdi, %rdi
	movq	%rdi, -176(%rbp)
	je	LBB68_135
	movq	%r14, %rsi
	callq	___rust_alloc
	movq	%rax, %r13
	testq	%r13, %r13
	je	LBB68_136
LBB68_50:
	movq	-176(%rbp), %rax
	movabsq	$-3689348814741910323, %rcx
	mulq	%rcx
	shrq	$5, %rdx
	movq	%r13, -336(%rbp)
	movq	%rdx, -224(%rbp)
	movq	%rdx, -328(%rbp)
	movq	$0, -320(%rbp)
	movq	$8, -152(%rbp)
	movq	$0, -144(%rbp)
	movq	$0, -136(%rbp)
	movq	-48(%rbp), %rax
	leaq	-120(%rax), %rcx
	movq	%rcx, -256(%rbp)
	leaq	-40(%rax), %rcx
	movq	%rcx, -208(%rbp)
	leaq	-80(%rax), %rcx
	movq	%rcx, -248(%rbp)
	leaq	40(%rax), %rax
	movq	%rax, -240(%rbp)
	movq	%rbx, %rsi
	movq	%r13, -168(%rbp)
	jmp	LBB68_52
	.p2align	4, 0x90
LBB68_51:
	movq	-264(%rbp), %rsi
	testq	%rsi, %rsi
	je	LBB68_125
LBB68_52:
	movq	%rsi, %r8
	decq	%r8
	je	LBB68_76
	leaq	-2(%rsi), %r14
	leaq	(%r8,%r8,4), %rcx
	leaq	(%r14,%r14,4), %rax
	movq	-48(%rbp), %rdx
	movl	(%rdx,%rax,8), %eax
	cmpl	%eax, (%rdx,%rcx,8)
	jae	LBB68_77
	leaq	(%rsi,%rsi,4), %r9
	movq	-248(%rbp), %rcx
	leaq	(%rcx,%r9,8), %r10
	movl	$2, %r11d
	.p2align	4, 0x90
LBB68_55:
	movq	%r14, %rdi
	movq	%r11, %r15
	movq	%r10, %rbx
	testq	%r14, %r14
	je	LBB68_57
	leaq	-1(%rdi), %r14
	leaq	(%r14,%r14,4), %rdx
	movq	-48(%rbp), %rcx
	movl	(%rcx,%rdx,8), %edx
	leaq	1(%r15), %r11
	leaq	-40(%rbx), %r10
	cmpl	%edx, %eax
	movl	%edx, %eax
	jb	LBB68_55
LBB68_57:
	movq	%rsi, %rdx
	subq	%rdi, %rdx
	jb	LBB68_146
	cmpq	-104(%rbp), %rsi
	ja	LBB68_147
	testq	$-2, %rdx
	je	LBB68_62
	shrq	%r15
	movq	-208(%rbp), %rax
	leaq	(%rax,%r9,8), %rax
	.p2align	4, 0x90
LBB68_61:
	movq	32(%rbx), %rcx
	movq	%rcx, -64(%rbp)
	movq	24(%rbx), %rcx
	movq	%rcx, -72(%rbp)
	movq	16(%rbx), %rcx
	movq	%rcx, -80(%rbp)
	movq	(%rbx), %r9
	movq	8(%rbx), %rcx
	movq	%rcx, -88(%rbp)
	movq	%r9, -96(%rbp)
	movq	32(%rax), %r9
	movq	24(%rax), %r10
	movq	16(%rax), %r11
	movq	(%rax), %rcx
	movq	8(%rax), %r14
	movq	%rcx, (%rbx)
	movq	%r14, 8(%rbx)
	movq	%r11, 16(%rbx)
	movq	%r10, 24(%rbx)
	movq	%r9, 32(%rbx)
	movq	-64(%rbp), %rcx
	movq	%rcx, 32(%rax)
	movq	-72(%rbp), %rcx
	movq	%rcx, 24(%rax)
	movq	-80(%rbp), %rcx
	movq	%rcx, 16(%rax)
	movq	-96(%rbp), %r9
	movq	-88(%rbp), %rcx
	movq	%rcx, 8(%rax)
	movq	%r9, (%rax)
	addq	$-40, %rax
	addq	$40, %rbx
	decq	%r15
	jne	LBB68_61
LBB68_62:
	cmpq	$9, %rdx
	jbe	LBB68_63
	jmp	LBB68_83
	.p2align	4, 0x90
LBB68_76:
	movl	$1, %edx
	xorl	%ebx, %ebx
	jmp	LBB68_84
	.p2align	4, 0x90
LBB68_77:
	leaq	(%rsi,%rsi,4), %rcx
	movq	-256(%rbp), %rdx
	leaq	(%rdx,%rcx,8), %rcx
	leaq	-2(%rsi), %rdi
	xorl	%edx, %edx
	.p2align	4, 0x90
LBB68_78:
	cmpq	%rdx, %rdi
	je	LBB68_82
	movl	(%rcx), %ebx
	incq	%rdx
	addq	$-40, %rcx
	cmpl	%ebx, %eax
	movl	%ebx, %eax
	jae	LBB68_78
	movq	%r8, %rdi
	subq	%rdx, %rdi
	incq	%rdx
	cmpq	$9, %rdx
	ja	LBB68_83
LBB68_63:
	testq	%rdi, %rdi
	je	LBB68_83
	cmpq	-104(%rbp), %rsi
	ja	LBB68_148
	leaq	(%rdi,%rdi,4), %rax
	movq	-240(%rbp), %rcx
	leaq	(%rcx,%rax,8), %r11
	.p2align	4, 0x90
LBB68_66:
	leaq	-1(%rdi), %rbx
	movq	%rsi, %rdx
	subq	%rbx, %rdx
	jb	LBB68_149
	cmpq	$2, %rdx
	jb	LBB68_74
	leaq	(%rbx,%rbx,4), %rax
	movq	%rbx, %r15
	movq	-48(%rbp), %rbx
	leaq	(%rbx,%rax,8), %r10
	leaq	(%rdi,%rdi,4), %rcx
	movl	(%r10), %r9d
	cmpl	%r9d, (%rbx,%rcx,8)
	movq	%r15, %rbx
	jae	LBB68_74
	movq	-48(%rbp), %r14
	leaq	(%r14,%rcx,8), %rbx
	movl	36(%r14,%rax,8), %ecx
	movl	%ecx, -64(%rbp)
	movq	28(%r14,%rax,8), %rcx
	movq	%rcx, -72(%rbp)
	movq	20(%r14,%rax,8), %rcx
	movq	%rcx, -80(%rbp)
	movq	4(%r14,%rax,8), %rcx
	movq	12(%r14,%rax,8), %rax
	movq	%rax, -88(%rbp)
	movq	%rcx, -96(%rbp)
	movq	32(%rbx), %rax
	movq	%rax, 32(%r10)
	movq	24(%rbx), %rax
	movq	%rax, 24(%r10)
	movq	16(%rbx), %rax
	movq	%rax, 16(%r10)
	movq	(%rbx), %rax
	movq	8(%rbx), %rcx
	movq	%rcx, 8(%r10)
	movq	%rax, (%r10)
	cmpq	$3, %rdx
	jb	LBB68_73
	movq	%r8, %rax
	movq	%r11, %rcx
	cmpl	%r9d, 80(%r10)
	jae	LBB68_73
	.p2align	4, 0x90
LBB68_71:
	movq	%rcx, %rbx
	movq	32(%rcx), %rcx
	movq	%rcx, -8(%rbx)
	movq	24(%rbx), %rcx
	movq	%rcx, -16(%rbx)
	movq	16(%rbx), %rcx
	movq	%rcx, -24(%rbx)
	movq	(%rbx), %r10
	movq	8(%rbx), %rcx
	movq	%rcx, -32(%rbx)
	movq	%r10, -40(%rbx)
	decq	%rax
	cmpq	%rax, %rdi
	je	LBB68_73
	leaq	40(%rbx), %rcx
	cmpl	%r9d, 40(%rbx)
	jb	LBB68_71
	.p2align	4, 0x90
LBB68_73:
	movl	%r9d, (%rbx)
	movq	-96(%rbp), %rax
	movq	-88(%rbp), %rcx
	movq	%rax, 4(%rbx)
	movq	%rcx, 12(%rbx)
	movq	-80(%rbp), %rax
	movq	%rax, 20(%rbx)
	movq	-72(%rbp), %rax
	movq	%rax, 28(%rbx)
	movl	-64(%rbp), %eax
	movl	%eax, 36(%rbx)
	movq	%r15, %rbx
LBB68_74:
	testq	%rbx, %rbx
	je	LBB68_84
	addq	$-40, %r11
	movq	%rbx, %rdi
	cmpq	$10, %rdx
	jb	LBB68_66
	jmp	LBB68_84
	.p2align	4, 0x90
LBB68_83:
	movq	%rdi, %rbx
	jmp	LBB68_84
LBB68_82:
	xorl	%ebx, %ebx
	movq	%rsi, %rdx
	.p2align	4, 0x90
LBB68_84:
Ltmp27:
	leaq	-152(%rbp), %rdi
	movq	%rbx, -264(%rbp)
	movq	%rbx, %rsi
	callq	__ZN5alloc3vec12Vec$LT$T$GT$4push17h6814b4af9a302c07E
Ltmp28:
	movq	-136(%rbp), %rax
	cmpq	$2, %rax
	jb	LBB68_51
	movq	-152(%rbp), %r15
	movq	%r15, -160(%rbp)
	jmp	LBB68_90
LBB68_87:
	movq	-168(%rbp), %r13
LBB68_88:
	movq	%r13, %rsi
LBB68_89:
	subq	%rsi, %rbx
	movq	%rbx, %rax
	movabsq	$-3689348814741910323, %rcx
	mulq	%rcx
	shrq	$2, %rdx
	andq	$-8, %rdx
	leaq	(%rdx,%rdx,4), %rdx
	movq	%r14, %rdi
	callq	_memcpy
	movq	-288(%rbp), %rcx
	addq	-56(%rbp), %rcx
	movq	-296(%rbp), %rax
	movq	-280(%rbp), %rdx
	movq	%rax, (%rdx)
	movq	-272(%rbp), %rax
	movq	%rcx, (%rax)
	movq	-304(%rbp), %rax
	leaq	(%r15,%rax), %rdi
	leaq	16(%r15,%rax), %rsi
	movq	-312(%rbp), %rdx
	notq	%rdx
	addq	-112(%rbp), %rdx
	shlq	$4, %rdx
	callq	_memmove
	movq	-120(%rbp), %rax
	movq	%rax, -136(%rbp)
	cmpq	$1, %rax
	jbe	LBB68_51
LBB68_90:
	movq	%rax, %rsi
	leaq	-1(%rax), %r8
	movq	%r8, %rbx
	shlq	$4, %rbx
	cmpq	$0, (%r15,%rbx)
	je	LBB68_96
	movq	%rsi, %rdx
	shlq	$4, %rdx
	movq	-24(%rdx,%r15), %rax
	movq	8(%r15,%rbx), %r9
	cmpq	%r9, %rax
	jbe	LBB68_96
	cmpq	$2, %rsi
	jbe	LBB68_51
	leaq	-3(%rsi), %rdi
	movq	%rdi, %rcx
	shlq	$4, %rcx
	movq	8(%r15,%rcx), %rcx
	leaq	(%r9,%rax), %rbx
	cmpq	%rbx, %rcx
	jbe	LBB68_98
	cmpq	$3, %rsi
	jbe	LBB68_51
	addq	%rcx, %rax
	cmpq	%rax, -56(%rdx,%r15)
	jbe	LBB68_98
	jmp	LBB68_51
	.p2align	4, 0x90
LBB68_96:
	cmpq	$3, %rsi
	jb	LBB68_99
	leaq	-3(%rsi), %rdi
	movq	%rdi, %rax
	shlq	$4, %rax
	movq	8(%r15,%rax), %rcx
	movq	8(%r15,%rbx), %r9
LBB68_98:
	cmpq	%r9, %rcx
	jb	LBB68_100
LBB68_99:
	leaq	-2(%rsi), %rdi
LBB68_100:
	leaq	1(%rdi), %r9
	cmpq	%r9, %rsi
	jbe	LBB68_139
	cmpq	%rdi, %rsi
	jbe	LBB68_140
	movq	%r9, %rcx
	shlq	$4, %rcx
	movq	(%r15,%rcx), %rax
	shlq	$4, %rdi
	movq	8(%r15,%rdi), %rdx
	movq	(%r15,%rdi), %rbx
	addq	%rdx, %rbx
	movq	%rbx, %r13
	subq	%rax, %r13
	jb	LBB68_141
	cmpq	-104(%rbp), %rbx
	ja	LBB68_142
	movq	%rdx, -288(%rbp)
	movq	%r9, -312(%rbp)
	movq	%rsi, -112(%rbp)
	movq	%r8, -120(%rbp)
	movq	%rcx, -304(%rbp)
	movq	8(%r15,%rcx), %rdx
	leaq	(%r15,%rdi), %rcx
	movq	%rcx, -280(%rbp)
	leaq	8(%r15,%rdi), %rcx
	movq	%rcx, -272(%rbp)
	movq	%rax, -296(%rbp)
	leaq	(%rax,%rax,4), %rax
	movq	-48(%rbp), %rcx
	leaq	(%rcx,%rax,8), %r14
	leaq	(%rdx,%rdx,4), %rax
	leaq	(%r14,%rax,8), %r12
	leaq	(%rbx,%rbx,4), %rax
	movq	%rax, -216(%rbp)
	movq	%r13, %r15
	subq	%rdx, %r15
	cmpq	%rdx, %r15
	movq	%rdx, -56(%rbp)
	jae	LBB68_114
	leaq	(,%r15,8), %rax
	leaq	(%rax,%rax,4), %rbx
	movq	-168(%rbp), %r13
	movq	%r13, %rdi
	movq	%r12, %rsi
	movq	%rbx, %rdx
	callq	_memcpy
	addq	%r13, %rbx
	cmpq	$0, -56(%rbp)
	jle	LBB68_122
	testq	%r15, %r15
	jle	LBB68_122
	movq	-208(%rbp), %rax
	movq	-216(%rbp), %rcx
	leaq	(%rax,%rcx,8), %rax
	movq	-160(%rbp), %r15
	.p2align	4, 0x90
LBB68_108:
	movl	-40(%rbx), %ecx
	cmpl	-40(%r12), %ecx
	jb	LBB68_110
	addq	$-40, %rbx
	movq	%rbx, %rcx
	jmp	LBB68_111
	.p2align	4, 0x90
LBB68_110:
	addq	$-40, %r12
	movq	%r12, %rcx
LBB68_111:
	movq	32(%rcx), %rdx
	movq	%rdx, 32(%rax)
	movq	24(%rcx), %rdx
	movq	%rdx, 24(%rax)
	movq	16(%rcx), %rdx
	movq	%rdx, 16(%rax)
	movq	(%rcx), %rdx
	movq	8(%rcx), %rcx
	movq	%rcx, 8(%rax)
	movq	%rdx, (%rax)
	cmpq	%r12, %r14
	jae	LBB68_113
	addq	$-40, %rax
	cmpq	%r13, %rbx
	ja	LBB68_108
LBB68_113:
	movq	%r12, %r14
	jmp	LBB68_88
	.p2align	4, 0x90
LBB68_114:
	leaq	(,%rdx,8), %rax
	leaq	(%rax,%rax,4), %rbx
	movq	-168(%rbp), %r15
	movq	%r15, %rdi
	movq	%r14, %rsi
	movq	%rbx, %rdx
	callq	_memcpy
	movq	-56(%rbp), %rax
	addq	%r15, %rbx
	testq	%rax, %rax
	jle	LBB68_123
	cmpq	%rax, %r13
	movq	-160(%rbp), %r15
	jle	LBB68_87
	movq	-48(%rbp), %rax
	movq	-216(%rbp), %rcx
	leaq	(%rax,%rcx,8), %r8
	movq	-168(%rbp), %r13
	movq	%r13, %rsi
	movq	%r13, %rcx
	.p2align	4, 0x90
LBB68_117:
	movl	(%r12), %edx
	cmpl	(%rcx), %edx
	jae	LBB68_119
	leaq	40(%r12), %rdx
	movq	%rcx, %rdi
	movq	%r12, %rcx
	jmp	LBB68_120
	.p2align	4, 0x90
LBB68_119:
	leaq	40(%rcx), %rsi
	movq	%rsi, %rdi
	movq	%r12, %rdx
LBB68_120:
	movq	32(%rcx), %rax
	movq	%rax, 32(%r14)
	movq	24(%rcx), %rax
	movq	%rax, 24(%r14)
	movq	16(%rcx), %rax
	movq	%rax, 16(%r14)
	movq	(%rcx), %rax
	movq	8(%rcx), %rcx
	movq	%rcx, 8(%r14)
	movq	%rax, (%r14)
	addq	$40, %r14
	cmpq	%rbx, %rdi
	jae	LBB68_89
	movq	%rdi, %rcx
	movq	%rdx, %r12
	cmpq	%r8, %rdx
	jb	LBB68_117
	jmp	LBB68_89
	.p2align	4, 0x90
LBB68_122:
	movq	%r12, %r14
	jmp	LBB68_124
LBB68_123:
	movq	-168(%rbp), %r13
LBB68_124:
	movq	%r13, %rsi
	movq	-160(%rbp), %r15
	jmp	LBB68_89
LBB68_125:
	movq	-144(%rbp), %rsi
	testq	%rsi, %rsi
	je	LBB68_129
	movq	-152(%rbp), %rdi
	testq	%rdi, %rdi
	je	LBB68_129
	shlq	$4, %rsi
	je	LBB68_129
	movl	$8, %edx
	callq	___rust_dealloc
LBB68_129:
	cmpq	$40, -176(%rbp)
	jb	LBB68_132
	movq	-224(%rbp), %rax
	shlq	$3, %rax
	leaq	(%rax,%rax,4), %rsi
	testq	%rsi, %rsi
	je	LBB68_132
	movl	$8, %edx
	movq	%r13, %rdi
	callq	___rust_dealloc
LBB68_132:
	movq	-184(%rbp), %rax
	movq	-232(%rbp), %rdx
	movq	%rax, 16(%rdx)
	movq	-200(%rbp), %rax
	movq	-192(%rbp), %rcx
	movq	%rcx, 8(%rdx)
	movq	%rax, (%rdx)
	movq	$4, 24(%rdx)
	movq	$0, 32(%rdx)
	movq	$0, 40(%rdx)
	addq	$296, %rsp
	popq	%rbx
	popq	%r12
	popq	%r13
	popq	%r14
	popq	%r15
	popq	%rbp
	retq
LBB68_133:
	movq	%rbx, %r9
	testq	%r9, %r9
	jne	LBB68_3
LBB68_134:
	movq	%r14, %rdi
	movq	%rbx, %rsi
	callq	__ZN5alloc5alloc18handle_alloc_error17h28974197717b8939E
LBB68_135:
	movq	%r14, %r13
	testq	%r13, %r13
	jne	LBB68_50
LBB68_136:
	movq	-176(%rbp), %rdi
	movq	%r14, %rsi
	callq	__ZN5alloc5alloc18handle_alloc_error17h28974197717b8939E
LBB68_137:
Ltmp14:
	leaq	_str.1(%rip), %rdi
	leaq	l___unnamed_46(%rip), %rdx
	movl	$28, %esi
	callq	__ZN4core9panicking5panic17h383a6b80ea7021aaE
Ltmp15:
LBB68_138:
	ud2
LBB68_139:
Ltmp30:
	leaq	l___unnamed_47(%rip), %rdx
	movq	%r9, %rdi
	callq	__ZN4core9panicking18panic_bounds_check17he87128426d100e93E
Ltmp31:
	jmp	LBB68_138
LBB68_140:
Ltmp32:
	leaq	l___unnamed_48(%rip), %rdx
	callq	__ZN4core9panicking18panic_bounds_check17he87128426d100e93E
Ltmp33:
	jmp	LBB68_138
LBB68_141:
Ltmp36:
	leaq	l___unnamed_49(%rip), %rdx
	movq	%rax, %rdi
	movq	%rbx, %rsi
	callq	__ZN4core5slice22slice_index_order_fail17h65298a4d6b795c79E
Ltmp37:
	jmp	LBB68_138
LBB68_142:
Ltmp34:
	leaq	l___unnamed_49(%rip), %rdx
	movq	%rbx, %rdi
	movq	-104(%rbp), %rsi
	callq	__ZN4core5slice24slice_end_index_len_fail17hea9e3399ed430f80E
Ltmp35:
	jmp	LBB68_138
LBB68_143:
Ltmp16:
	callq	__ZN5alloc7raw_vec17capacity_overflow17h7526b10e27579d59E
Ltmp17:
	jmp	LBB68_138
LBB68_144:
	movl	$8, %esi
	movq	%rbx, %rdi
	callq	__ZN5alloc5alloc18handle_alloc_error17h28974197717b8939E
LBB68_145:
Ltmp41:
	leaq	l___unnamed_50(%rip), %rdx
	callq	__ZN4core5slice26slice_start_index_len_fail17h787e2f1bbfc1d2f3E
Ltmp42:
	jmp	LBB68_138
LBB68_146:
Ltmp25:
	leaq	l___unnamed_51(%rip), %rdx
	callq	__ZN4core5slice22slice_index_order_fail17h65298a4d6b795c79E
Ltmp26:
	jmp	LBB68_138
LBB68_147:
Ltmp23:
	leaq	l___unnamed_51(%rip), %rdx
	movq	%rsi, %rdi
	movq	-104(%rbp), %rsi
	callq	__ZN4core5slice24slice_end_index_len_fail17hea9e3399ed430f80E
Ltmp24:
	jmp	LBB68_138
LBB68_148:
	decq	%rdi
	movq	%rdi, %rbx
	cmpq	%rdi, %rsi
	jae	LBB68_151
LBB68_149:
Ltmp21:
	leaq	l___unnamed_52(%rip), %rdx
	movq	%rbx, %rdi
	callq	__ZN4core5slice22slice_index_order_fail17h65298a4d6b795c79E
Ltmp22:
	jmp	LBB68_138
LBB68_150:
Ltmp44:
	callq	__ZN5alloc7raw_vec17capacity_overflow17h7526b10e27579d59E
Ltmp45:
	jmp	LBB68_138
LBB68_151:
Ltmp19:
	leaq	l___unnamed_52(%rip), %rdx
	movq	%rsi, %rdi
	movq	-104(%rbp), %rsi
	callq	__ZN4core5slice24slice_end_index_len_fail17hea9e3399ed430f80E
Ltmp20:
	jmp	LBB68_138
LBB68_152:
Ltmp39:
	callq	__ZN5alloc7raw_vec17capacity_overflow17h7526b10e27579d59E
Ltmp40:
	jmp	LBB68_138
LBB68_153:
Ltmp46:
	movq	%rax, %rbx
	jmp	LBB68_161
LBB68_154:
Ltmp43:
	jmp	LBB68_157
LBB68_155:
Ltmp38:
	jmp	LBB68_159
LBB68_156:
Ltmp18:
LBB68_157:
	movq	%rax, %rbx
	jmp	LBB68_160
LBB68_158:
Ltmp29:
LBB68_159:
	movq	%rax, %rbx
	leaq	-152(%rbp), %rdi
	callq	__ZN4core3ptr13drop_in_place17h3b1c29f7a5d83682E
	leaq	-336(%rbp), %rdi
	callq	__ZN4core3ptr13drop_in_place17h56480beb30a4d4e5E
LBB68_160:
	leaq	-200(%rbp), %rdi
	callq	__ZN4core3ptr13drop_in_place17h56480beb30a4d4e5E
LBB68_161:
	movq	%rbx, %rdi
	callq	__Unwind_Resume
	ud2
Lfunc_end3:
	.cfi_endproc
	.section	__TEXT,__gcc_except_tab
	.p2align	2
GCC_except_table68:
Lexception3:
	.byte	255
	.byte	255
	.byte	1
	.uleb128 Lcst_end3-Lcst_begin3
Lcst_begin3:
	.uleb128 Ltmp27-Lfunc_begin3
	.uleb128 Ltmp28-Ltmp27
	.uleb128 Ltmp29-Lfunc_begin3
	.byte	0
	.uleb128 Ltmp28-Lfunc_begin3
	.uleb128 Ltmp14-Ltmp28
	.byte	0
	.byte	0
	.uleb128 Ltmp14-Lfunc_begin3
	.uleb128 Ltmp15-Ltmp14
	.uleb128 Ltmp18-Lfunc_begin3
	.byte	0
	.uleb128 Ltmp30-Lfunc_begin3
	.uleb128 Ltmp35-Ltmp30
	.uleb128 Ltmp38-Lfunc_begin3
	.byte	0
	.uleb128 Ltmp16-Lfunc_begin3
	.uleb128 Ltmp17-Ltmp16
	.uleb128 Ltmp18-Lfunc_begin3
	.byte	0
	.uleb128 Ltmp41-Lfunc_begin3
	.uleb128 Ltmp42-Ltmp41
	.uleb128 Ltmp43-Lfunc_begin3
	.byte	0
	.uleb128 Ltmp25-Lfunc_begin3
	.uleb128 Ltmp22-Ltmp25
	.uleb128 Ltmp38-Lfunc_begin3
	.byte	0
	.uleb128 Ltmp44-Lfunc_begin3
	.uleb128 Ltmp45-Ltmp44
	.uleb128 Ltmp46-Lfunc_begin3
	.byte	0
	.uleb128 Ltmp19-Lfunc_begin3
	.uleb128 Ltmp20-Ltmp19
	.uleb128 Ltmp38-Lfunc_begin3
	.byte	0
	.uleb128 Ltmp39-Lfunc_begin3
	.uleb128 Ltmp40-Ltmp39
	.uleb128 Ltmp43-Lfunc_begin3
	.byte	0
	.uleb128 Ltmp40-Lfunc_begin3
	.uleb128 Lfunc_end3-Ltmp40
	.byte	0
	.byte	0
Lcst_end3:
	.p2align	2

	.section	__TEXT,__text,regular,pure_instructions
	.p2align	4, 0x90
__ZN3cfg8analysis11rhs_closure19RhsClosure$LT$R$GT$11rhs_closure17hd5356be2c90bb785E:
	.cfi_startproc
	pushq	%rbp
	.cfi_def_cfa_offset 16
	.cfi_offset %rbp, -16
	movq	%rsp, %rbp
	.cfi_def_cfa_register %rbp
	pushq	%r15
	pushq	%r14
	pushq	%r13
	pushq	%r12
	pushq	%rbx
	subq	$88, %rsp
	.cfi_offset %rbx, -56
	.cfi_offset %r12, -48
	.cfi_offset %r13, -40
	.cfi_offset %r14, -32
	.cfi_offset %r15, -24
	movq	%rdi, -48(%rbp)
	movq	24(%rsi), %r15
	testq	%r15, %r15
	movq	%rsi, -64(%rbp)
	je	LBB69_8
	movq	-48(%rbp), %rax
	leaq	24(%rax), %r14
	decq	%r15
	xorl	%ebx, %ebx
	movq	-48(%rbp), %r12
	.p2align	4, 0x90
LBB69_2:
	movq	%rbx, %rax
	shrq	$5, %rax
	cmpq	%rax, 16(%rsi)
	jbe	LBB69_49
	movq	(%rsi), %rcx
	movl	(%rcx,%rax,4), %eax
	btl	%ebx, %eax
	jae	LBB69_7
	movq	40(%r12), %rax
	cmpq	32(%r12), %rax
	jne	LBB69_6
	movl	$1, %esi
	movq	%r14, %rdi
	callq	__ZN5alloc3vec12Vec$LT$T$GT$7reserve17h646b1e4bc926caa2E
	movq	-64(%rbp), %rsi
	movq	40(%r12), %rax
LBB69_6:
	movq	24(%r12), %rcx
	movl	%ebx, (%rcx,%rax,4)
	incq	40(%r12)
LBB69_7:
	cmpq	%rbx, %r15
	je	LBB69_8
	incq	%rbx
	cmpq	%rbx, 24(%rsi)
	ja	LBB69_2
LBB69_49:
	leaq	l___unnamed_39(%rip), %rdi
	leaq	l___unnamed_53(%rip), %rdx
	movl	$43, %esi
	callq	__ZN4core9panicking5panic17h383a6b80ea7021aaE
LBB69_8:
	movq	-48(%rbp), %r14
	movq	40(%r14), %rcx
	testq	%rcx, %rcx
	je	LBB69_50
	movq	(%r14), %r10
	movq	16(%r14), %r9
	leaq	24(%r14), %rax
	movq	%rax, -112(%rbp)
	leaq	(,%r9,8), %rax
	leaq	(%rax,%rax,4), %r11
	leaq	-40(%rax,%rax,4), %rax
	movq	%rax, -80(%rbp)
	movq	%r10, -96(%rbp)
	movq	%r9, -104(%rbp)
	movq	%r11, -88(%rbp)
	jmp	LBB69_11
	.p2align	4, 0x90
LBB69_10:
	movq	-72(%rbp), %rcx
	testq	%rcx, %rcx
	movq	-104(%rbp), %r9
	movq	-96(%rbp), %r10
	movq	-88(%rbp), %r11
	je	LBB69_50
LBB69_11:
	movq	%rcx, %rax
	decq	%rcx
	movq	%rcx, -72(%rbp)
	movq	%rcx, 40(%r14)
	movq	24(%r14), %rcx
	movl	-4(%rcx,%rax,4), %r8d
	movq	%r9, %rdi
	testq	%r9, %r9
	je	LBB69_19
	cmpq	$1, %r9
	jne	LBB69_14
	xorl	%edi, %edi
LBB69_18:
	leaq	(%rdi,%rdi,4), %rax
	cmpl	%r8d, (%r10,%rax,8)
	adcq	$0, %rdi
	cmpq	%r9, %rdi
	ja	LBB69_51
LBB69_19:
	cmpq	%r9, %rdi
	jne	LBB69_21
	xorl	%eax, %eax
	jmp	LBB69_25
	.p2align	4, 0x90
LBB69_21:
	leaq	(,%rdi,8), %rax
	leaq	(%rax,%rax,4), %rcx
	movq	-80(%rbp), %rdx
	subq	%rcx, %rdx
	movabsq	$922337203685477581, %rax
	imulq	%rax, %rdx
	shrq	$3, %rdx
	incq	%rdx
	xorl	%eax, %eax
	.p2align	4, 0x90
LBB69_22:
	cmpl	%r8d, (%r10,%rcx)
	jne	LBB69_25
	incq	%rax
	addq	$40, %rcx
	cmpq	%rcx, %r11
	jne	LBB69_22
	movq	%rdx, %rax
LBB69_25:
	addq	%rdi, %rax
	movq	__ZN7bit_vec5FALSE17h18985e08484fd77bE@GOTPCREL(%rip), %rbx
	movq	__ZN7bit_vec4TRUE17hf399d28fd341ff7dE@GOTPCREL(%rip), %r8
	jb	LBB69_28
	cmpq	%r9, %rax
	ja	LBB69_27
	cmpq	%rax, %rdi
	je	LBB69_10
	leaq	(%rdi,%rdi,4), %rcx
	leaq	(%r10,%rcx,8), %rcx
	leaq	(%rax,%rax,4), %rax
	leaq	(%r10,%rax,8), %rax
	movq	%rax, -120(%rbp)
	jmp	LBB69_31
LBB69_45:
	movq	24(%r14), %rcx
	movl	%r15d, (%rcx,%rax,4)
	movq	40(%r14), %rax
	incq	%rax
	movq	%rax, -72(%rbp)
	movq	%rax, 40(%r14)
	movq	-64(%rbp), %rsi
LBB69_46:
	movq	__ZN7bit_vec5FALSE17h18985e08484fd77bE@GOTPCREL(%rip), %rbx
	movq	__ZN7bit_vec4TRUE17hf399d28fd341ff7dE@GOTPCREL(%rip), %r8
LBB69_47:
	movq	-56(%rbp), %rcx
	addq	$40, %rcx
	cmpq	-120(%rbp), %rcx
	je	LBB69_10
LBB69_31:
	movq	%rcx, -56(%rbp)
	movl	32(%rcx), %r15d
	movq	24(%rsi), %rax
	cmpq	%r15, %rax
	jbe	LBB69_52
	movq	%r15, %r12
	shrq	$5, %r12
	movq	16(%rsi), %rdi
	cmpq	%r12, %rdi
	jbe	LBB69_52
	movl	$1, %r10d
	movl	%r15d, %ecx
	shll	%cl, %r10d
	movq	(%rsi), %rcx
	movl	(%rcx,%r12,4), %r13d
	btl	%r15d, %r13d
	movzbl	(%rbx), %r11d
	movzbl	(%r8), %r9d
	movl	%r9d, %edx
	cmovael	%r11d, %edx
	testb	%dl, %dl
	jne	LBB69_47
	movq	-56(%rbp), %rsi
	movq	8(%rsi), %rdx
	movq	16(%rsi), %r8
	shlq	$2, %r8
	xorl	%r14d, %r14d
	movl	%r13d, %esi
	jmp	LBB69_35
	.p2align	4, 0x90
LBB69_40:
	movzbl	%r9b, %ebx
	addq	$4, %r14
	testb	%bl, %bl
	je	LBB69_42
LBB69_35:
	cmpq	%r14, %r8
	je	LBB69_43
	movl	(%rdx,%r14), %r13d
	cmpq	%r13, %rax
	jbe	LBB69_53
	movq	%r13, %rbx
	shrq	$5, %rbx
	cmpq	%rbx, %rdi
	jbe	LBB69_53
	movl	(%rcx,%rbx,4), %ebx
	btl	%r13d, %ebx
	jb	LBB69_40
	movzbl	%r11b, %ebx
	addq	$4, %r14
	testb	%bl, %bl
	jne	LBB69_35
LBB69_42:
	movq	-64(%rbp), %rsi
	movq	-48(%rbp), %r14
	jmp	LBB69_46
LBB69_43:
	orl	%r10d, %esi
	movl	%esi, (%rcx,%r12,4)
	movq	-48(%rbp), %r14
	movq	40(%r14), %rax
	cmpq	32(%r14), %rax
	jne	LBB69_45
	movl	$1, %esi
	movq	-112(%rbp), %rdi
	callq	__ZN5alloc3vec12Vec$LT$T$GT$7reserve17h646b1e4bc926caa2E
	movq	40(%r14), %rax
	jmp	LBB69_45
	.p2align	4, 0x90
LBB69_14:
	movq	%r9, %rax
	xorl	%edx, %edx
	jmp	LBB69_15
	.p2align	4, 0x90
LBB69_17:
	subq	%rcx, %rax
	movq	%rdi, %rdx
	cmpq	$1, %rax
	jbe	LBB69_18
LBB69_15:
	movq	%rax, %rcx
	shrq	%rcx
	leaq	(%rcx,%rdx), %rdi
	leaq	(%rdi,%rdi,4), %rbx
	cmpl	%r8d, (%r10,%rbx,8)
	jb	LBB69_17
	movq	%rdx, %rdi
	jmp	LBB69_17
LBB69_50:
	addq	$88, %rsp
	popq	%rbx
	popq	%r12
	popq	%r13
	popq	%r14
	popq	%r15
	popq	%rbp
	retq
LBB69_53:
	leaq	l___unnamed_54(%rip), %rdi
	leaq	l___unnamed_55(%rip), %rdx
	movl	$19, %esi
	callq	__ZN4core6option13expect_failed17h7591ba70e88f159aE
LBB69_52:
	leaq	l___unnamed_54(%rip), %rdi
	leaq	l___unnamed_56(%rip), %rdx
	movl	$19, %esi
	callq	__ZN4core6option13expect_failed17h7591ba70e88f159aE
LBB69_28:
	leaq	_str.1(%rip), %rdi
	leaq	l___unnamed_57(%rip), %rdx
	movl	$28, %esi
	callq	__ZN4core9panicking5panic17h383a6b80ea7021aaE
LBB69_27:
	leaq	l___unnamed_58(%rip), %rdx
	movq	%rax, %rdi
	movq	%r9, %rsi
	callq	__ZN4core5slice24slice_end_index_len_fail17hea9e3399ed430f80E
LBB69_51:
	leaq	l___unnamed_59(%rip), %rdx
	movq	%r9, %rsi
	callq	__ZN4core5slice26slice_start_index_len_fail17h787e2f1bbfc1d2f3E
	.cfi_endproc

	.p2align	4, 0x90
__ZN93_$LT$cfg..binarized..BinarizedCfg$LT$H$GT$$u20$as$u20$cfg..rule..container..RuleContainer$GT$8add_rule17h18696b3a58a2cad9E:
Lfunc_begin4:
	.cfi_startproc
	.cfi_personality 155, _rust_eh_personality
	.cfi_lsda 16, Lexception4
	pushq	%rbp
	.cfi_def_cfa_offset 16
	.cfi_offset %rbp, -16
	movq	%rsp, %rbp
	.cfi_def_cfa_register %rbp
	pushq	%r15
	pushq	%r14
	pushq	%r13
	pushq	%r12
	pushq	%rbx
	subq	$168, %rsp
	.cfi_offset %rbx, -56
	.cfi_offset %r12, -48
	.cfi_offset %r13, -40
	.cfi_offset %r14, -32
	.cfi_offset %r15, -24
	movq	%r8, %r14
	movq	%rdi, %rbx
	testq	%rcx, %rcx
	movq	%r8, -64(%rbp)
	je	LBB70_1
	movq	%rdx, %r8
	cmpq	$2, %rcx
	movl	$2, %edi
	cmovaq	%rcx, %rdi
	leaq	(%rdx,%rcx,4), %rax
	movq	%rax, -72(%rbp)
	addq	$-2, %rdi
	movq	%rbx, -152(%rbp)
	leaq	48(%rbx), %rax
	movq	%rax, -144(%rbp)
	movl	(%rdx), %r13d
	addq	$4, %r8
	movl	$1, %eax
	movq	%rax, -136(%rbp)
	xorl	%edx, %edx
	movl	$0, %r9d
	jmp	LBB70_23
	.p2align	4, 0x90
LBB70_43:
	cmpq	%rsi, %rax
	cmovbq	%rax, %rsi
	incq	%rsi
Ltmp50:
	movq	-152(%rbp), %rbx
	movq	%rbx, %rdi
	callq	__ZN5alloc3vec12Vec$LT$T$GT$7reserve17h9b1a907604aeec6cE
Ltmp51:
	movq	%r13, %r8
	movl	-52(%rbp), %edi
LBB70_44:
	movq	(%rbx), %rax
	imulq	$56, %r12, %rcx
	movq	-80(%rbp), %rdx
	movq	%rdx, 48(%rax,%rcx)
	movq	-88(%rbp), %rdx
	movq	%rdx, 40(%rax,%rcx)
	movq	-96(%rbp), %rdx
	movq	%rdx, 32(%rax,%rcx)
	movq	-104(%rbp), %rdx
	movq	%rdx, 24(%rax,%rcx)
	movq	-112(%rbp), %rdx
	movq	%rdx, 16(%rax,%rcx)
	movq	-128(%rbp), %rdx
	movq	-120(%rbp), %rsi
	movq	%rsi, 8(%rax,%rcx)
	movq	%rdx, (%rax,%rcx)
	incq	%r12
	movq	%r12, 16(%rbx)
	movq	%r15, %rdx
	movl	%edi, %esi
	movl	-44(%rbp), %r9d
	movl	-48(%rbp), %r13d
	movq	-160(%rbp), %rdi
LBB70_23:
	testq	%rdi, %rdi
	je	LBB70_26
	cmpq	$0, -144(%rbp)
	je	LBB70_26
	decq	%rdi
	movq	%rdi, -160(%rbp)
	movq	-144(%rbp), %rdi
	movl	(%rdi), %eax
	movl	%r13d, -48(%rbp)
	movl	%eax, %r13d
	incl	%eax
	movl	$-1, %ecx
	cmovel	%ecx, %eax
	movl	%eax, (%rdi)
	testq	%r8, %r8
	jne	LBB70_29
	jmp	LBB70_31
	.p2align	4, 0x90
LBB70_26:
	movq	%rdi, -160(%rbp)
	movq	-136(%rbp), %rax
	orl	$2, %eax
	cmpl	$2, %eax
	je	LBB70_18
	xorl	%eax, %eax
	movq	%rax, -136(%rbp)
	movl	$0, -48(%rbp)
	xorl	%eax, %eax
	movq	%rax, -144(%rbp)
	testq	%r8, %r8
	je	LBB70_31
LBB70_29:
	cmpq	-72(%rbp), %r8
	je	LBB70_31
	movq	-72(%rbp), %rax
	movl	-4(%rax), %ebx
	addq	$-4, %rax
	movq	%rax, -72(%rbp)
	movl	%r9d, -44(%rbp)
	movl	$1, %r9d
	jmp	LBB70_33
	.p2align	4, 0x90
LBB70_31:
	movl	%r9d, %eax
	andl	$-2, %eax
	cmpl	$2, %eax
	je	LBB70_18
	xorl	%r8d, %r8d
	movl	$2, -44(%rbp)
	xorl	%ebx, %ebx
LBB70_33:
	movl	%r13d, -52(%rbp)
	movq	%rdx, %r15
	incq	%r15
	je	LBB70_34
	movl	%esi, %r12d
	movq	%r8, %r13
	shlq	$32, %rbx
	movl	%r9d, %r14d
	cmpl	$1, %r9d
	movl	$0, %eax
	cmovneq	%rax, %rbx
Ltmp47:
	leaq	-128(%rbp), %rdi
	movq	-64(%rbp), %rsi
	callq	__ZN72_$LT$cfg..earley..history..History$u20$as$u20$cfg..history..Binarize$GT$8binarize17h72274711175f25ccE
Ltmp48:
	movaps	-128(%rbp), %xmm0
	movq	-112(%rbp), %rax
	movl	-104(%rbp), %ecx
	leaq	-100(%rbp), %rsi
	movq	(%rsi), %rdx
	movq	%rdx, -200(%rbp)
	movl	8(%rsi), %edx
	movl	%edx, -192(%rbp)
	cmpl	$2, %ecx
	movl	-52(%rbp), %edi
	je	LBB70_18
	movq	%r13, %r8
	movl	%edi, %edx
	orq	%rdx, %rbx
	movaps	%xmm0, -128(%rbp)
	movq	%rax, -112(%rbp)
	movl	%ecx, -104(%rbp)
	movl	-192(%rbp), %eax
	leaq	-100(%rbp), %rcx
	movl	%eax, 8(%rcx)
	movq	-200(%rbp), %rax
	movq	%rax, (%rcx)
	movl	%r12d, -88(%rbp)
	movl	%r14d, -84(%rbp)
	movq	%rbx, -80(%rbp)
	movq	-152(%rbp), %rbx
	movq	16(%rbx), %r12
	cmpq	8(%rbx), %r12
	jne	LBB70_44
	xorl	%esi, %esi
	cmpl	$1, -136(%rbp)
	sete	%sil
	testq	%r8, %r8
	je	LBB70_39
	movq	-72(%rbp), %rax
	subq	%r8, %rax
	shrq	$2, %rax
	movl	-44(%rbp), %edx
	cmpl	$3, %edx
	je	LBB70_43
	xorl	%ecx, %ecx
	cmpl	$2, %edx
	setne	%cl
	addq	%rcx, %rax
	jmp	LBB70_43
LBB70_39:
	movl	-44(%rbp), %ecx
	xorl	%eax, %eax
	cmpl	$3, %ecx
	je	LBB70_43
	cmpl	$2, %ecx
	setne	%al
	jmp	LBB70_43
LBB70_1:
	leaq	24(%rbx), %r12
	movq	40(%rbx), %rax
	movl	%esi, %r15d
	jmp	LBB70_2
	.p2align	4, 0x90
LBB70_6:
	movq	24(%rbx), %rcx
	leaq	(%rax,%rax,4), %rax
	movq	-96(%rbp), %rdx
	movq	%rdx, 32(%rcx,%rax,8)
	movq	-104(%rbp), %rdx
	movq	%rdx, 24(%rcx,%rax,8)
	movq	-112(%rbp), %rdx
	movq	%rdx, 16(%rcx,%rax,8)
	movq	-128(%rbp), %rdx
	movq	-120(%rbp), %rsi
	movq	%rsi, 8(%rcx,%rax,8)
	movq	%rdx, (%rcx,%rax,8)
	movq	40(%rbx), %rax
	incq	%rax
	movq	%rax, 40(%rbx)
LBB70_2:
	cmpq	%r15, %rax
	ja	LBB70_7
	movl	$2, -104(%rbp)
	cmpq	32(%rbx), %rax
	jne	LBB70_6
Ltmp56:
	movl	$1, %esi
	movq	%r12, %rdi
	callq	__ZN5alloc3vec12Vec$LT$T$GT$7reserve17hb5173f75abee6a72E
Ltmp57:
	movq	40(%rbx), %rax
	jmp	LBB70_6
LBB70_7:
	movq	(%r12), %rax
	leaq	(%r15,%r15,4), %r14
	cmpl	$2, 24(%rax,%r14,8)
	jne	LBB70_52
Ltmp61:
	leaq	-128(%rbp), %rdi
	movq	-64(%rbp), %rsi
	xorl	%edx, %edx
	callq	__ZN72_$LT$cfg..earley..history..History$u20$as$u20$cfg..history..Binarize$GT$8binarize17h72274711175f25ccE
Ltmp62:
	movq	-96(%rbp), %rax
	movq	%rax, -168(%rbp)
	movq	-104(%rbp), %rax
	movq	%rax, -176(%rbp)
	movq	-112(%rbp), %rax
	movq	%rax, -184(%rbp)
	movq	-128(%rbp), %rax
	movq	-120(%rbp), %rcx
	movq	%rcx, -192(%rbp)
	movq	%rax, -200(%rbp)
	movq	40(%rbx), %rsi
	cmpq	%r15, %rsi
	jbe	LBB70_10
	movq	(%r12), %rax
	leaq	(%rax,%r14,8), %rbx
	cmpl	$2, 24(%rax,%r14,8)
	je	LBB70_17
	movq	8(%rax,%r14,8), %rax
	testq	%rax, %rax
	je	LBB70_17
	movq	(%rbx), %rdi
	testq	%rdi, %rdi
	je	LBB70_17
	shlq	$2, %rax
	leaq	(%rax,%rax,4), %rsi
	testq	%rsi, %rsi
	je	LBB70_17
	movl	$4, %edx
	callq	___rust_dealloc
LBB70_17:
	movq	-168(%rbp), %rax
	movq	%rax, 32(%rbx)
	movq	-176(%rbp), %rax
	movq	%rax, 24(%rbx)
	movq	-184(%rbp), %rax
	movq	%rax, 16(%rbx)
	movq	-200(%rbp), %rax
	movq	-192(%rbp), %rcx
	movq	%rcx, 8(%rbx)
	movq	%rax, (%rbx)
LBB70_18:
	movq	-64(%rbp), %rcx
	movq	8(%rcx), %rax
	testq	%rax, %rax
	je	LBB70_21
	movq	(%rcx), %rdi
	testq	%rdi, %rdi
	je	LBB70_21
	shlq	$2, %rax
	leaq	(%rax,%rax,4), %rsi
	testq	%rsi, %rsi
	je	LBB70_21
	movl	$4, %edx
	addq	$168, %rsp
	popq	%rbx
	popq	%r12
	popq	%r13
	popq	%r14
	popq	%r15
	popq	%rbp
	jmp	___rust_dealloc
LBB70_21:
	addq	$168, %rsp
	popq	%rbx
	popq	%r12
	popq	%r13
	popq	%r14
	popq	%r15
	popq	%rbp
	retq
LBB70_34:
Ltmp53:
	leaq	_str.1(%rip), %rdi
	leaq	l___unnamed_46(%rip), %rdx
	movl	$28, %esi
	callq	__ZN4core9panicking5panic17h383a6b80ea7021aaE
Ltmp54:
LBB70_11:
	ud2
LBB70_52:
Ltmp59:
	leaq	l___unnamed_60(%rip), %rdi
	leaq	l___unnamed_61(%rip), %rdx
	movl	$22, %esi
	callq	__ZN3std9panicking11begin_panic17h86a5bbcde3a0535bE
Ltmp60:
	jmp	LBB70_11
LBB70_10:
Ltmp64:
	leaq	l___unnamed_62(%rip), %rdx
	movq	%r15, %rdi
	callq	__ZN4core9panicking18panic_bounds_check17he87128426d100e93E
Ltmp65:
	jmp	LBB70_11
LBB70_48:
Ltmp66:
	movq	%rax, %rbx
	leaq	-200(%rbp), %rdi
	callq	__ZN4core3ptr13drop_in_place17h1652717714353e42E
	jmp	LBB70_51
LBB70_47:
Ltmp55:
	jmp	LBB70_50
LBB70_49:
Ltmp63:
	jmp	LBB70_50
LBB70_53:
Ltmp58:
	movq	%rax, %rbx
	leaq	-128(%rbp), %rdi
	callq	__ZN4core3ptr13drop_in_place17h1652717714353e42E
	jmp	LBB70_51
LBB70_45:
Ltmp52:
	movq	%rax, %rbx
	leaq	-128(%rbp), %rdi
	callq	__ZN4core3ptr13drop_in_place17hbe515da7fd331121E
	jmp	LBB70_51
LBB70_46:
Ltmp49:
LBB70_50:
	movq	%rax, %rbx
LBB70_51:
	movq	-64(%rbp), %rdi
	callq	__ZN4core3ptr13drop_in_place17hbe515da7fd331121E
	movq	%rbx, %rdi
	callq	__Unwind_Resume
	ud2
Lfunc_end4:
	.cfi_endproc
	.section	__TEXT,__gcc_except_tab
	.p2align	2
GCC_except_table70:
Lexception4:
	.byte	255
	.byte	255
	.byte	1
	.uleb128 Lcst_end4-Lcst_begin4
Lcst_begin4:
	.uleb128 Ltmp50-Lfunc_begin4
	.uleb128 Ltmp51-Ltmp50
	.uleb128 Ltmp52-Lfunc_begin4
	.byte	0
	.uleb128 Ltmp47-Lfunc_begin4
	.uleb128 Ltmp48-Ltmp47
	.uleb128 Ltmp49-Lfunc_begin4
	.byte	0
	.uleb128 Ltmp56-Lfunc_begin4
	.uleb128 Ltmp57-Ltmp56
	.uleb128 Ltmp58-Lfunc_begin4
	.byte	0
	.uleb128 Ltmp61-Lfunc_begin4
	.uleb128 Ltmp62-Ltmp61
	.uleb128 Ltmp63-Lfunc_begin4
	.byte	0
	.uleb128 Ltmp53-Lfunc_begin4
	.uleb128 Ltmp54-Ltmp53
	.uleb128 Ltmp55-Lfunc_begin4
	.byte	0
	.uleb128 Ltmp59-Lfunc_begin4
	.uleb128 Ltmp60-Ltmp59
	.uleb128 Ltmp63-Lfunc_begin4
	.byte	0
	.uleb128 Ltmp64-Lfunc_begin4
	.uleb128 Ltmp65-Ltmp64
	.uleb128 Ltmp66-Lfunc_begin4
	.byte	0
	.uleb128 Ltmp65-Lfunc_begin4
	.uleb128 Lfunc_end4-Ltmp65
	.byte	0
	.byte	0
Lcst_end4:
	.p2align	2

	.section	__TEXT,__text,regular,pure_instructions
	.globl	__ZN3cfg14classification2lr8Lr0Items3new17h364a1e85e111908fE
	.p2align	4, 0x90
__ZN3cfg14classification2lr8Lr0Items3new17h364a1e85e111908fE:
	.cfi_startproc
	pushq	%rbp
	.cfi_def_cfa_offset 16
	.cfi_offset %rbp, -16
	movq	%rsp, %rbp
	.cfi_def_cfa_register %rbp
	movq	%rdi, %rax
	movq	$0, (%rdi)
	movq	$0, 16(%rdi)
	popq	%rbp
	retq
	.cfi_endproc

	.globl	__ZN3cfg6earley17binarized_grammar16BinarizedGrammar3new17h0e04dfbe82068112E
	.p2align	4, 0x90
__ZN3cfg6earley17binarized_grammar16BinarizedGrammar3new17h0e04dfbe82068112E:
	.cfi_startproc
	pushq	%rbp
	.cfi_def_cfa_offset 16
	.cfi_offset %rbp, -16
	movq	%rsp, %rbp
	.cfi_def_cfa_register %rbp
	movq	%rdi, %rax
	movq	$8, (%rdi)
	movq	$0, 8(%rdi)
	movq	$0, 16(%rdi)
	movq	$8, 24(%rdi)
	movl	$0, 56(%rdi)
	movb	$0, 64(%rdi)
	movq	$0, 32(%rdi)
	movq	$0, 40(%rdi)
	movl	$0, 48(%rdi)
	popq	%rbp
	retq
	.cfi_endproc

	.globl	__ZN3cfg6earley17binarized_grammar16BinarizedGrammar9set_start17hb0e56487a2ead84dE
	.p2align	4, 0x90
__ZN3cfg6earley17binarized_grammar16BinarizedGrammar9set_start17hb0e56487a2ead84dE:
	.cfi_startproc
	pushq	%rbp
	.cfi_def_cfa_offset 16
	.cfi_offset %rbp, -16
	movq	%rsp, %rbp
	.cfi_def_cfa_register %rbp
	movl	$1, 56(%rdi)
	movl	%esi, 60(%rdi)
	popq	%rbp
	retq
	.cfi_endproc

	.globl	__ZN3cfg6earley17binarized_grammar16BinarizedGrammar5start17h45fd5bea325155cfE
	.p2align	4, 0x90
__ZN3cfg6earley17binarized_grammar16BinarizedGrammar5start17h45fd5bea325155cfE:
	.cfi_startproc
	pushq	%rbp
	.cfi_def_cfa_offset 16
	.cfi_offset %rbp, -16
	movq	%rsp, %rbp
	.cfi_def_cfa_register %rbp
	cmpl	$0, 56(%rdi)
	je	LBB74_2
	movl	60(%rdi), %eax
	popq	%rbp
	retq
LBB74_2:
	leaq	l___unnamed_39(%rip), %rdi
	leaq	l___unnamed_63(%rip), %rdx
	movl	$43, %esi
	callq	__ZN4core9panicking5panic17h383a6b80ea7021aaE
	.cfi_endproc

	.globl	__ZN101_$LT$$RF$cfg..earley..binarized_grammar..BinarizedGrammar$u20$as$u20$cfg..grammar..ContextFreeRef$GT$5rules17hbdcca46ed51e5170E
	.p2align	4, 0x90
__ZN101_$LT$$RF$cfg..earley..binarized_grammar..BinarizedGrammar$u20$as$u20$cfg..grammar..ContextFreeRef$GT$5rules17hbdcca46ed51e5170E:
	.cfi_startproc
	pushq	%rbp
	.cfi_def_cfa_offset 16
	.cfi_offset %rbp, -16
	movq	%rsp, %rbp
	.cfi_def_cfa_register %rbp
	movq	%rdi, %rax
	movq	(%rsi), %rcx
	movq	24(%rsi), %rdx
	movq	40(%rsi), %rdi
	leaq	(%rdi,%rdi,4), %rdi
	leaq	(%rdx,%rdi,8), %rdi
	imulq	$56, 16(%rsi), %rsi
	addq	%rcx, %rsi
	movq	%rdx, (%rax)
	movq	%rdi, 8(%rax)
	movq	$0, 16(%rax)
	movq	%rcx, 24(%rax)
	movq	%rsi, 32(%rax)
	popq	%rbp
	retq
	.cfi_endproc

	.globl	__ZN104_$LT$cfg..earley..binarized_grammar..BinarizedGrammar$u20$as$u20$cfg..rule..container..RuleContainer$GT$10sym_source17ha4e203ee72b3c4f0E
	.p2align	4, 0x90
__ZN104_$LT$cfg..earley..binarized_grammar..BinarizedGrammar$u20$as$u20$cfg..rule..container..RuleContainer$GT$10sym_source17ha4e203ee72b3c4f0E:
	.cfi_startproc
	pushq	%rbp
	.cfi_def_cfa_offset 16
	.cfi_offset %rbp, -16
	movq	%rsp, %rbp
	.cfi_def_cfa_register %rbp
	leaq	48(%rdi), %rax
	popq	%rbp
	retq
	.cfi_endproc

	.globl	__ZN104_$LT$cfg..earley..binarized_grammar..BinarizedGrammar$u20$as$u20$cfg..rule..container..RuleContainer$GT$14sym_source_mut17h66117b08ec174f06E
	.p2align	4, 0x90
__ZN104_$LT$cfg..earley..binarized_grammar..BinarizedGrammar$u20$as$u20$cfg..rule..container..RuleContainer$GT$14sym_source_mut17h66117b08ec174f06E:
	.cfi_startproc
	pushq	%rbp
	.cfi_def_cfa_offset 16
	.cfi_offset %rbp, -16
	movq	%rsp, %rbp
	.cfi_def_cfa_register %rbp
	leaq	48(%rdi), %rax
	popq	%rbp
	retq
	.cfi_endproc

	.globl	__ZN104_$LT$cfg..earley..binarized_grammar..BinarizedGrammar$u20$as$u20$cfg..rule..container..RuleContainer$GT$8add_rule17hdcf407f089333978E
	.p2align	4, 0x90
__ZN104_$LT$cfg..earley..binarized_grammar..BinarizedGrammar$u20$as$u20$cfg..rule..container..RuleContainer$GT$8add_rule17hdcf407f089333978E:
	.cfi_startproc
	pushq	%rbp
	.cfi_def_cfa_offset 16
	.cfi_offset %rbp, -16
	movq	%rsp, %rbp
	.cfi_def_cfa_register %rbp
	subq	$48, %rsp
	movq	32(%r8), %rax
	movq	%rax, -8(%rbp)
	movq	24(%r8), %rax
	movq	%rax, -16(%rbp)
	movq	16(%r8), %rax
	movq	%rax, -24(%rbp)
	movq	(%r8), %r9
	movq	8(%r8), %rax
	movq	%rax, -32(%rbp)
	movq	%r9, -40(%rbp)
	leaq	-40(%rbp), %r8
	callq	__ZN93_$LT$cfg..binarized..BinarizedCfg$LT$H$GT$$u20$as$u20$cfg..rule..container..RuleContainer$GT$8add_rule17h18696b3a58a2cad9E
	addq	$48, %rsp
	popq	%rbp
	retq
	.cfi_endproc

	.globl	__ZN92_$LT$cfg..earley..binarized_grammar..BinarizedGrammar$u20$as$u20$core..ops..deref..Deref$GT$5deref17he1e350793acb7b7fE
	.p2align	4, 0x90
__ZN92_$LT$cfg..earley..binarized_grammar..BinarizedGrammar$u20$as$u20$core..ops..deref..Deref$GT$5deref17he1e350793acb7b7fE:
	.cfi_startproc
	pushq	%rbp
	.cfi_def_cfa_offset 16
	.cfi_offset %rbp, -16
	movq	%rsp, %rbp
	.cfi_def_cfa_register %rbp
	movq	%rdi, %rax
	popq	%rbp
	retq
	.cfi_endproc

	.globl	__ZN95_$LT$cfg..earley..binarized_grammar..BinarizedGrammar$u20$as$u20$core..ops..deref..DerefMut$GT$9deref_mut17hb9dcdd967127ca9eE
	.p2align	4, 0x90
__ZN95_$LT$cfg..earley..binarized_grammar..BinarizedGrammar$u20$as$u20$core..ops..deref..DerefMut$GT$9deref_mut17hb9dcdd967127ca9eE:
	.cfi_startproc
	pushq	%rbp
	.cfi_def_cfa_offset 16
	.cfi_offset %rbp, -16
	movq	%rsp, %rbp
	.cfi_def_cfa_register %rbp
	movq	%rdi, %rax
	popq	%rbp
	retq
	.cfi_endproc

	.globl	__ZN3cfg6earley17binarized_grammar16BinarizedGrammar10wrap_start17hd573b4aa3ba3722aE
	.p2align	4, 0x90
__ZN3cfg6earley17binarized_grammar16BinarizedGrammar10wrap_start17hd573b4aa3ba3722aE:
	.cfi_startproc
	pushq	%rbp
	.cfi_def_cfa_offset 16
	.cfi_offset %rbp, -16
	movq	%rsp, %rbp
	.cfi_def_cfa_register %rbp
	pushq	%r14
	pushq	%rbx
	subq	$48, %rsp
	.cfi_offset %rbx, -32
	.cfi_offset %r14, -24
	cmpl	$0, 56(%rdi)
	je	LBB81_2
	movq	%rdi, %rbx
	movl	48(%rdi), %r14d
	movl	%r14d, %eax
	incl	%eax
	movl	$-1, %ecx
	cmovel	%ecx, %eax
	movl	60(%rdi), %edx
	movl	%r14d, %esi
	addl	$2, %esi
	cmovbl	%ecx, %esi
	movl	%esi, 48(%rdi)
	movl	%edx, -24(%rbp)
	movl	%eax, -20(%rbp)
	movq	$4, -64(%rbp)
	movq	$0, -56(%rbp)
	movq	$0, -48(%rbp)
	movl	$0, -40(%rbp)
	movb	$2, -28(%rbp)
	leaq	-24(%rbp), %rdx
	leaq	-64(%rbp), %r8
	movl	$2, %ecx
	movl	%r14d, %esi
	callq	__ZN93_$LT$cfg..binarized..BinarizedCfg$LT$H$GT$$u20$as$u20$cfg..rule..container..RuleContainer$GT$8add_rule17h18696b3a58a2cad9E
	movl	$1, 56(%rbx)
	movl	%r14d, 60(%rbx)
	movb	$1, 64(%rbx)
	addq	$48, %rsp
	popq	%rbx
	popq	%r14
	popq	%rbp
	retq
LBB81_2:
	leaq	l___unnamed_39(%rip), %rdi
	leaq	l___unnamed_63(%rip), %rdx
	movl	$43, %esi
	callq	__ZN4core9panicking5panic17h383a6b80ea7021aaE
	.cfi_endproc

	.globl	__ZN3cfg6earley17binarized_grammar16BinarizedGrammar14original_start17hcfb58eb7e6cec604E
	.p2align	4, 0x90
__ZN3cfg6earley17binarized_grammar16BinarizedGrammar14original_start17hcfb58eb7e6cec604E:
	.cfi_startproc
	pushq	%rbp
	.cfi_def_cfa_offset 16
	.cfi_offset %rbp, -16
	movq	%rsp, %rbp
	.cfi_def_cfa_register %rbp
	xorl	%eax, %eax
	cmpb	$0, 64(%rdi)
	je	LBB82_9
	movq	24(%rdi), %rcx
	movq	40(%rdi), %rdx
	movq	(%rdi), %r8
	movq	16(%rdi), %r9
	movl	56(%rdi), %r10d
	movl	60(%rdi), %r11d
	shlq	$3, %rdx
	testl	%r10d, %r10d
	je	LBB82_10
	leaq	(%rdx,%rdx,4), %rdi
	xorl	%edx, %edx
	jmp	LBB82_4
	.p2align	4, 0x90
LBB82_3:
	addq	$40, %rcx
	addq	$-40, %rdi
	movq	%rsi, %rdx
LBB82_4:
	testq	%rdi, %rdi
	je	LBB82_14
	movq	%rdx, %rsi
	incq	%rsi
	je	LBB82_22
	cmpl	$2, 24(%rcx)
	je	LBB82_3
	cmpl	%edx, %r11d
	jne	LBB82_3
	xorl	%eax, %eax
LBB82_9:
	popq	%rbp
	retq
LBB82_10:
	leaq	(%rdx,%rdx,4), %rdx
	.p2align	4, 0x90
LBB82_11:
	testq	%rdx, %rdx
	je	LBB82_14
	addq	$-40, %rdx
	cmpl	$2, 24(%rcx)
	leaq	40(%rcx), %rcx
	je	LBB82_11
LBB82_13:
	leaq	l___unnamed_39(%rip), %rdi
	leaq	l___unnamed_63(%rip), %rdx
	movl	$43, %esi
	callq	__ZN4core9panicking5panic17h383a6b80ea7021aaE
LBB82_14:
	testl	%r10d, %r10d
	je	LBB82_19
	imulq	$56, %r9, %rcx
	xorl	%eax, %eax
	xorl	%edx, %edx
	movq	%r8, %rsi
	.p2align	4, 0x90
LBB82_16:
	cmpq	%rdx, %rcx
	je	LBB82_9
	addq	$56, %rdx
	cmpl	40(%rsi), %r11d
	leaq	56(%rsi), %rsi
	jne	LBB82_16
	movl	-8(%r8,%rdx), %edx
	movl	$1, %eax
	jmp	LBB82_20
LBB82_19:
	testq	%r9, %r9
	jne	LBB82_13
LBB82_20:
	popq	%rbp
	retq
LBB82_22:
	leaq	_str.1(%rip), %rdi
	leaq	l___unnamed_46(%rip), %rdx
	movl	$28, %esi
	callq	__ZN4core9panicking5panic17h383a6b80ea7021aaE
	.cfi_endproc

	.globl	__ZN3cfg6earley17binarized_grammar16BinarizedGrammar3eof17h125be962f6b2eacdE
	.p2align	4, 0x90
__ZN3cfg6earley17binarized_grammar16BinarizedGrammar3eof17h125be962f6b2eacdE:
	.cfi_startproc
	pushq	%rbp
	.cfi_def_cfa_offset 16
	.cfi_offset %rbp, -16
	movq	%rsp, %rbp
	.cfi_def_cfa_register %rbp
	xorl	%eax, %eax
	cmpb	$0, 64(%rdi)
	je	LBB83_9
	movq	24(%rdi), %rcx
	movq	40(%rdi), %rdx
	movq	(%rdi), %r8
	movq	16(%rdi), %r9
	movl	56(%rdi), %r10d
	movl	60(%rdi), %r11d
	shlq	$3, %rdx
	testl	%r10d, %r10d
	je	LBB83_10
	leaq	(%rdx,%rdx,4), %rdi
	xorl	%edx, %edx
	jmp	LBB83_4
	.p2align	4, 0x90
LBB83_3:
	addq	$40, %rcx
	addq	$-40, %rdi
	movq	%rsi, %rdx
LBB83_4:
	testq	%rdi, %rdi
	je	LBB83_14
	movq	%rdx, %rsi
	incq	%rsi
	je	LBB83_23
	cmpl	$2, 24(%rcx)
	je	LBB83_3
	cmpl	%edx, %r11d
	jne	LBB83_3
	xorl	%eax, %eax
LBB83_9:
	popq	%rbp
	retq
LBB83_10:
	leaq	(%rdx,%rdx,4), %rdx
	.p2align	4, 0x90
LBB83_11:
	testq	%rdx, %rdx
	je	LBB83_14
	addq	$-40, %rdx
	cmpl	$2, 24(%rcx)
	leaq	40(%rcx), %rcx
	je	LBB83_11
LBB83_13:
	leaq	l___unnamed_39(%rip), %rdi
	leaq	l___unnamed_63(%rip), %rdx
	movl	$43, %esi
	callq	__ZN4core9panicking5panic17h383a6b80ea7021aaE
LBB83_14:
	testl	%r10d, %r10d
	je	LBB83_20
	imulq	$56, %r9, %rsi
	xorl	%eax, %eax
	xorl	%ecx, %ecx
	movq	%r8, %rdx
	.p2align	4, 0x90
LBB83_16:
	cmpq	%rcx, %rsi
	je	LBB83_9
	addq	$56, %rcx
	cmpl	40(%rdx), %r11d
	leaq	56(%rdx), %rdx
	jne	LBB83_16
	cmpl	$1, -12(%r8,%rcx)
	jne	LBB83_21
	movl	-4(%r8,%rcx), %edx
	movl	$1, %eax
	jmp	LBB83_21
LBB83_20:
	testq	%r9, %r9
	jne	LBB83_13
LBB83_21:
	popq	%rbp
	retq
LBB83_23:
	leaq	_str.1(%rip), %rdi
	leaq	l___unnamed_46(%rip), %rdx
	movl	$28, %esi
	callq	__ZN4core9panicking5panic17h383a6b80ea7021aaE
	.cfi_endproc

	.globl	__ZN3cfg6earley17binarized_grammar16BinarizedGrammar14dot_before_eof17hcdbcd89f4dc6cb29E
	.p2align	4, 0x90
__ZN3cfg6earley17binarized_grammar16BinarizedGrammar14dot_before_eof17hcdbcd89f4dc6cb29E:
	.cfi_startproc
	pushq	%rbp
	.cfi_def_cfa_offset 16
	.cfi_offset %rbp, -16
	movq	%rsp, %rbp
	.cfi_def_cfa_register %rbp
	pushq	%rbx
	pushq	%rax
	.cfi_offset %rbx, -24
	cmpb	$0, 64(%rdi)
	je	LBB84_9
	movq	24(%rdi), %rsi
	movq	40(%rdi), %rax
	movq	(%rdi), %r11
	movq	16(%rdi), %r8
	movl	56(%rdi), %r9d
	movl	60(%rdi), %ecx
	testl	%r9d, %r9d
	je	LBB84_10
	leal	1(%rcx), %r10d
	leaq	(%rax,%rax,4), %rax
	leaq	(%rsi,%rax,8), %rdi
	xorl	%eax, %eax
	xorl	%edx, %edx
	.p2align	4, 0x90
LBB84_3:
	cmpq	%rsi, %rdi
	je	LBB84_14
	incq	%rax
	je	LBB84_24
	movq	%rsi, %rbx
	addq	$40, %rsi
	cmpl	$2, 24(%rbx)
	je	LBB84_3
	cmpl	%eax, %r10d
	je	LBB84_22
	incq	%rdx
	je	LBB84_25
	addq	$40, %rbx
	movq	%rbx, %rsi
	jmp	LBB84_3
LBB84_9:
	xorl	%eax, %eax
	addq	$8, %rsp
	popq	%rbx
	popq	%rbp
	retq
LBB84_10:
	shlq	$3, %rax
	leaq	(%rax,%rax,4), %rax
	xorl	%edx, %edx
	.p2align	4, 0x90
LBB84_11:
	testq	%rax, %rax
	je	LBB84_14
	addq	$-40, %rax
	cmpl	$2, 24(%rsi)
	leaq	40(%rsi), %rsi
	je	LBB84_11
LBB84_13:
	leaq	l___unnamed_39(%rip), %rdi
	leaq	l___unnamed_63(%rip), %rdx
	movl	$43, %esi
	callq	__ZN4core9panicking5panic17h383a6b80ea7021aaE
LBB84_14:
	testq	%r8, %r8
	je	LBB84_20
	testl	%r9d, %r9d
	je	LBB84_13
	imulq	$56, %r8, %rax
	xorl	%esi, %esi
	.p2align	4, 0x90
LBB84_17:
	cmpl	40(%r11,%rsi), %ecx
	je	LBB84_22
	incq	%rdx
	je	LBB84_25
	addq	$56, %rsi
	cmpq	%rsi, %rax
	jne	LBB84_17
LBB84_20:
	xorl	%eax, %eax
	addq	$8, %rsp
	popq	%rbx
	popq	%rbp
	retq
LBB84_22:
	movl	$1, %eax
	addq	$8, %rsp
	popq	%rbx
	popq	%rbp
	retq
LBB84_24:
	leaq	_str.1(%rip), %rdi
	leaq	l___unnamed_46(%rip), %rdx
	movl	$28, %esi
	callq	__ZN4core9panicking5panic17h383a6b80ea7021aaE
LBB84_25:
	leaq	_str.1(%rip), %rdi
	leaq	l___unnamed_64(%rip), %rdx
	movl	$28, %esi
	callq	__ZN4core9panicking5panic17h383a6b80ea7021aaE
	.cfi_endproc

	.globl	__ZN3cfg6earley17binarized_grammar16BinarizedGrammar11make_proper17h70b962661112e1b3E
	.p2align	4, 0x90
__ZN3cfg6earley17binarized_grammar16BinarizedGrammar11make_proper17h70b962661112e1b3E:
Lfunc_begin5:
	.cfi_startproc
	.cfi_personality 155, _rust_eh_personality
	.cfi_lsda 16, Lexception5
	pushq	%rbp
	.cfi_def_cfa_offset 16
	.cfi_offset %rbp, -16
	movq	%rsp, %rbp
	.cfi_def_cfa_register %rbp
	pushq	%r15
	pushq	%r14
	pushq	%r13
	pushq	%r12
	pushq	%rbx
	subq	$408, %rsp
	.cfi_offset %rbx, -56
	.cfi_offset %r12, -48
	.cfi_offset %r13, -40
	.cfi_offset %r14, -32
	.cfi_offset %r15, -24
	cmpl	$0, 56(%rsi)
	movq	%rsi, -48(%rbp)
	je	LBB85_209
	movq	%rsi, %r14
	movq	%rdi, -416(%rbp)
	movl	60(%rsi), %eax
	movq	%rax, -120(%rbp)
	movl	48(%rsi), %esi
Ltmp67:
	leaq	-400(%rbp), %rdi
	movl	$1, %edx
	callq	__ZN7bit_vec6BitVec9from_elem17h28aa3bc903b1759eE
Ltmp68:
	movq	(%r14), %r9
	movq	24(%r14), %rbx
	movq	40(%r14), %rax
	imulq	$56, 16(%r14), %r8
	addq	%r9, %r8
	leaq	-376(%rbp), %r15
	leaq	(%rax,%rax,4), %rax
	leaq	(%rbx,%rax,8), %r11
	xorl	%eax, %eax
	movq	%r9, %r10
	movq	%rbx, %rdx
	testq	%rdx, %rdx
	je	LBB85_7
	.p2align	4, 0x90
LBB85_3:
	cmpq	%rdx, %r11
	je	LBB85_7
	incq	%rax
	je	LBB85_191
	cmpl	$2, 24(%rdx)
	leaq	40(%rdx), %rdx
	je	LBB85_3
	movl	%eax, %ecx
	decl	%ecx
	jmp	LBB85_10
LBB85_7:
	testq	%r10, %r10
	je	LBB85_13
	cmpq	%r10, %r8
	je	LBB85_13
	movl	40(%r10), %ecx
	addq	$56, %r10
	xorl	%edx, %edx
LBB85_10:
	movl	%ecx, %ecx
	movq	%rcx, -112(%rbp)
	cmpq	%rcx, -376(%rbp)
	jbe	LBB85_195
	movq	%rcx, %rdi
	shrq	$5, %rdi
	movq	-384(%rbp), %rsi
	cmpq	%rdi, %rsi
	jbe	LBB85_196
	movl	$-2, %esi
	roll	%cl, %esi
	movq	-400(%rbp), %rcx
	andl	%esi, (%rcx,%rdi,4)
	testq	%rdx, %rdx
	jne	LBB85_3
	jmp	LBB85_7
LBB85_13:
	xorl	%eax, %eax
	.p2align	4, 0x90
LBB85_14:
	testq	%rbx, %rbx
	je	LBB85_21
	.p2align	4, 0x90
LBB85_15:
	cmpq	%rbx, %r11
	je	LBB85_21
	incq	%rax
	je	LBB85_183
	cmpl	$2, 24(%rbx)
	leaq	40(%rbx), %rbx
	je	LBB85_15
	leaq	-1(%rax), %rcx
	movl	%ecx, %edi
	movq	%rdi, -112(%rbp)
	cmpq	%rdi, -376(%rbp)
	jbe	LBB85_204
	shrq	$5, %rdi
	movq	-384(%rbp), %rsi
	cmpq	%rdi, %rsi
	jbe	LBB85_205
	movl	$1, %edx
	shll	%cl, %edx
	movq	-400(%rbp), %rcx
	orl	%edx, (%rcx,%rdi,4)
	jmp	LBB85_14
	.p2align	4, 0x90
LBB85_21:
	cmpq	%r9, %r8
	je	LBB85_23
	addq	$56, %r9
	xorl	%ebx, %ebx
	jmp	LBB85_14
LBB85_23:
	movq	-376(%rbp), %rax
	movq	%rax, -256(%rbp)
	movq	-384(%rbp), %rax
	movq	%rax, -264(%rbp)
	movq	-400(%rbp), %rax
	movq	-392(%rbp), %rcx
	movq	%rcx, -272(%rbp)
	movq	%rax, -280(%rbp)
Ltmp83:
	leaq	-240(%rbp), %rdi
	movq	%r14, %rsi
	callq	__ZN3cfg8analysis11rhs_closure19RhsClosure$LT$R$GT$3new17h5422b493f52ad015E
Ltmp84:
Ltmp86:
	leaq	-240(%rbp), %rdi
	leaq	-280(%rbp), %rsi
	callq	__ZN3cfg8analysis11rhs_closure19RhsClosure$LT$R$GT$11rhs_closure17hd5356be2c90bb785E
Ltmp87:
	movq	-232(%rbp), %rax
	testq	%rax, %rax
	je	LBB85_29
	movq	-240(%rbp), %rdi
	testq	%rdi, %rdi
	je	LBB85_29
	shlq	$3, %rax
	leaq	(%rax,%rax,4), %rsi
	testq	%rsi, %rsi
	je	LBB85_29
	movl	$8, %edx
	callq	___rust_dealloc
LBB85_29:
	movq	-208(%rbp), %rsi
	testq	%rsi, %rsi
	je	LBB85_33
	movq	-216(%rbp), %rdi
	testq	%rdi, %rdi
	je	LBB85_33
	shlq	$2, %rsi
	testq	%rsi, %rsi
	je	LBB85_33
	movl	$4, %edx
	callq	___rust_dealloc
LBB85_33:
	movl	48(%r14), %edx
Ltmp89:
	leaq	-400(%rbp), %rdi
	movq	%rdx, %rsi
	callq	__ZN10bit_matrix6matrix9BitMatrix3new17h7818991880e828b6E
Ltmp90:
	movq	(%r14), %r12
	movq	%r14, %rcx
	movq	24(%r14), %r14
	movq	40(%rcx), %rax
	imulq	$56, 16(%rcx), %r8
	addq	%r12, %r8
	leaq	(%rax,%rax,4), %rax
	leaq	(%r14,%rax,8), %r10
	xorl	%ebx, %ebx
	.p2align	4, 0x90
LBB85_35:
	testq	%r14, %r14
	je	LBB85_40
	.p2align	4, 0x90
LBB85_36:
	cmpq	%r14, %r10
	je	LBB85_40
	incq	%rbx
	je	LBB85_192
	cmpl	$2, 24(%r14)
	leaq	40(%r14), %r14
	je	LBB85_36
	movl	%ebx, %eax
	decl	%eax
	leaq	l___unnamed_11(%rip), %r9
	xorl	%r15d, %r15d
	jmp	LBB85_43
	.p2align	4, 0x90
LBB85_40:
	testq	%r12, %r12
	je	LBB85_56
	cmpq	%r12, %r8
	je	LBB85_56
	movl	40(%r12), %eax
	xorl	%r15d, %r15d
	cmpl	$1, 44(%r12)
	sete	%r15b
	incq	%r15
	movq	%r12, %r9
	addq	$56, %r12
	addq	$48, %r9
	xorl	%r14d, %r14d
LBB85_43:
	movq	-368(%rbp), %rcx
	addq	$32, %rcx
	jb	LBB85_201
	movl	%eax, %r11d
	decq	%rcx
	andq	$-32, %rcx
	movq	%r11, %rax
	mulq	%rcx
	jo	LBB85_200
	addq	%r11, %rax
	jb	LBB85_199
	movq	%rax, -112(%rbp)
	cmpq	%rax, -376(%rbp)
	jbe	LBB85_197
	movq	%rax, %rdi
	shrq	$5, %rdi
	movq	-384(%rbp), %rsi
	cmpq	%rdi, %rsi
	jbe	LBB85_198
	movl	$1, %edx
	movl	%eax, %ecx
	shll	%cl, %edx
	movq	-400(%rbp), %rax
	orl	%edx, (%rax,%rdi,4)
	shlq	$2, %r15
	testq	%r15, %r15
	je	LBB85_35
	xorl	%r13d, %r13d
	.p2align	4, 0x90
LBB85_50:
	movq	-368(%rbp), %rcx
	addq	$32, %rcx
	jb	LBB85_188
	decq	%rcx
	andq	$-32, %rcx
	movq	%r11, %rax
	mulq	%rcx
	jo	LBB85_187
	movl	(%r9,%r13), %ecx
	addq	%rcx, %rax
	jb	LBB85_186
	movq	%rax, -112(%rbp)
	cmpq	%rax, -376(%rbp)
	jbe	LBB85_184
	movq	%rax, %rdi
	shrq	$5, %rdi
	movq	-384(%rbp), %rsi
	cmpq	%rdi, %rsi
	jbe	LBB85_185
	movl	$1, %edx
	movl	%eax, %ecx
	shll	%cl, %edx
	movq	-400(%rbp), %rax
	orl	%edx, (%rax,%rdi,4)
	addq	$4, %r13
	cmpq	%r13, %r15
	jne	LBB85_50
	jmp	LBB85_35
LBB85_56:
Ltmp115:
	leaq	-400(%rbp), %rdi
	callq	__ZN10bit_matrix6matrix9BitMatrix18transitive_closure17h2121b793353cfa34E
Ltmp116:
Ltmp117:
	leaq	-400(%rbp), %rdi
	callq	__ZN10bit_matrix6matrix9BitMatrix17reflexive_closure17hbe3db4775126db93E
Ltmp118:
	movq	-48(%rbp), %rax
	movl	48(%rax), %r15d
	xorl	%ebx, %ebx
	movq	%r15, %r14
	andq	$31, %r14
	setne	%bl
	movq	%r15, %rax
	shrq	$5, %rax
	addq	%rax, %rbx
	je	LBB85_60
	leaq	(,%rbx,4), %r13
	movl	$4, %esi
	movq	%r13, %rdi
	callq	___rust_alloc_zeroed
	testq	%rax, %rax
	jne	LBB85_61
	jmp	LBB85_83
LBB85_60:
	movl	$4, %eax
LBB85_61:
	movq	%rax, -112(%rbp)
	movq	%rbx, -104(%rbp)
	movq	%rbx, -96(%rbp)
	movq	%r15, -88(%rbp)
	testq	%r14, %r14
	je	LBB85_65
	movl	$-1, %edx
	movl	%r14d, %ecx
	shll	%cl, %edx
	movq	%rbx, %rdi
	subq	$1, %rdi
	jb	LBB85_215
	cmpq	%rdi, %rbx
	jbe	LBB85_216
	notl	%edx
	andl	%edx, (%rax,%rdi,4)
LBB85_65:
	leaq	-88(%rbp), %r8
	movq	-48(%rbp), %rcx
	movq	(%rcx), %r11
	movq	24(%rcx), %rbx
	movq	40(%rcx), %rax
	imulq	$56, 16(%rcx), %r9
	addq	%r11, %r9
	leaq	(%rax,%rax,4), %rax
	leaq	(%rbx,%rax,8), %r14
	xorl	%edx, %edx
	leaq	l___unnamed_11(%rip), %r10
	.p2align	4, 0x90
LBB85_66:
	testq	%rbx, %rbx
	je	LBB85_71
	.p2align	4, 0x90
LBB85_67:
	cmpq	%rbx, %r14
	je	LBB85_71
	incq	%rdx
	je	LBB85_193
	cmpl	$2, 24(%rbx)
	leaq	40(%rbx), %rbx
	je	LBB85_67
	movl	%edx, %ecx
	decl	%ecx
	movq	%r10, %r15
	xorl	%r12d, %r12d
	jmp	LBB85_74
	.p2align	4, 0x90
LBB85_71:
	testq	%r11, %r11
	je	LBB85_81
	cmpq	%r11, %r9
	je	LBB85_81
	movl	40(%r11), %ecx
	xorl	%r12d, %r12d
	cmpl	$1, 44(%r11)
	sete	%r12b
	incq	%r12
	movq	%r11, %r15
	addq	$56, %r11
	addq	$48, %r15
	xorl	%ebx, %ebx
LBB85_74:
	movl	%ecx, %ecx
	movq	%rcx, -248(%rbp)
	cmpq	%rcx, -88(%rbp)
	jbe	LBB85_202
	movq	%rcx, %rdi
	shrq	$5, %rdi
	movq	-96(%rbp), %rsi
	cmpq	%rdi, %rsi
	jbe	LBB85_203
	movl	$1, %eax
	shll	%cl, %eax
	movq	-112(%rbp), %rcx
	orl	%eax, (%rcx,%rdi,4)
	shlq	$2, %r12
	testq	%r12, %r12
	je	LBB85_66
	xorl	%eax, %eax
	.p2align	4, 0x90
LBB85_78:
	movl	(%r15,%rax), %ecx
	movq	%rcx, -248(%rbp)
	cmpq	%rcx, -88(%rbp)
	jbe	LBB85_189
	movq	%rcx, %rdi
	shrq	$5, %rdi
	movq	-96(%rbp), %rsi
	cmpq	%rdi, %rsi
	jbe	LBB85_190
	movl	$1, %esi
	shll	%cl, %esi
	movq	-112(%rbp), %rcx
	orl	%esi, (%rcx,%rdi,4)
	addq	$4, %rax
	cmpq	%rax, %r12
	jne	LBB85_78
	jmp	LBB85_66
LBB85_81:
	movq	-48(%rbp), %rax
	movl	48(%rax), %r15d
	xorl	%ebx, %ebx
	movq	%r15, %r14
	andq	$31, %r14
	setne	%bl
	movq	%r15, %rax
	shrq	$5, %rax
	addq	%rax, %rbx
	je	LBB85_84
	leaq	(,%rbx,4), %r13
	movl	$4, %esi
	movq	%r13, %rdi
	callq	___rust_alloc_zeroed
	movq	%rax, %rdx
	testq	%rax, %rax
	jne	LBB85_85
LBB85_83:
	movl	$4, %esi
	movq	%r13, %rdi
	callq	__ZN5alloc5alloc18handle_alloc_error17h28974197717b8939E
LBB85_84:
	movl	$4, %edx
LBB85_85:
	movq	%rdx, -80(%rbp)
	movq	%rbx, -72(%rbp)
	movq	%rbx, -64(%rbp)
	movq	%r15, -56(%rbp)
	testq	%r14, %r14
	je	LBB85_89
	movl	$-1, %eax
	movl	%r14d, %ecx
	shll	%cl, %eax
	movq	%rbx, %rdi
	subq	$1, %rdi
	jb	LBB85_217
	cmpq	%rdi, %rbx
	jbe	LBB85_218
	notl	%eax
	andl	%eax, (%rdx,%rdi,4)
LBB85_89:
	movq	-264(%rbp), %rcx
	cmpq	%rbx, %rcx
	cmovbeq	%rcx, %rbx
	movq	-280(%rbp), %rax
	movq	-96(%rbp), %rsi
	cmpq	%rsi, %rbx
	cmovaq	%rsi, %rbx
	testq	%rbx, %rbx
	je	LBB85_94
	movq	-112(%rbp), %rcx
	cmpq	$8, %rbx
	jae	LBB85_112
	xorl	%esi, %esi
	movq	-48(%rbp), %r9
	.p2align	4, 0x90
LBB85_92:
	movl	(%rcx,%rsi,4), %edi
	notl	%edi
	orl	%edi, (%rax,%rsi,4)
	orl	%edi, (%rdx,%rsi,4)
	incq	%rsi
	cmpq	%rbx, %rsi
	jb	LBB85_92
LBB85_93:
	movq	-280(%rbp), %rax
	movq	-264(%rbp), %rcx
	jmp	LBB85_95
LBB85_94:
	movq	-48(%rbp), %r9
LBB85_95:
	shlq	$2, %rcx
	xorl	%edx, %edx
	.p2align	4, 0x90
LBB85_96:
	cmpq	%rdx, %rcx
	je	LBB85_99
	cmpl	$-1, (%rax,%rdx)
	leaq	4(%rdx), %rdx
	je	LBB85_96
	xorl	%r13d, %r13d
	jmp	LBB85_100
LBB85_99:
	movb	$1, %r13b
LBB85_100:
	movq	%r9, -240(%rbp)
	movq	-400(%rbp), %rax
	movq	-392(%rbp), %rcx
	movq	%rax, -232(%rbp)
	movq	%rcx, -224(%rbp)
	movq	-384(%rbp), %rax
	movq	%rax, -216(%rbp)
	movq	-376(%rbp), %rax
	movq	%rax, -208(%rbp)
	movq	-368(%rbp), %rax
	movq	%rax, -200(%rbp)
	movq	-80(%rbp), %rax
	movq	-72(%rbp), %rcx
	movq	%rax, -192(%rbp)
	movq	%rcx, -184(%rbp)
	movq	-64(%rbp), %rax
	movq	%rax, -176(%rbp)
	movq	-56(%rbp), %rax
	movq	%rax, -168(%rbp)
	movq	-256(%rbp), %rax
	movq	%rax, -136(%rbp)
	movq	-264(%rbp), %rax
	movq	%rax, -144(%rbp)
	movq	-280(%rbp), %rax
	movq	-272(%rbp), %rcx
	movq	%rcx, -152(%rbp)
	movq	%rax, -160(%rbp)
	movb	$0, -128(%rbp)
	movb	%r13b, -127(%rbp)
	movq	-104(%rbp), %rsi
	testq	%rsi, %rsi
	je	LBB85_104
	movq	-112(%rbp), %rdi
	testq	%rdi, %rdi
	je	LBB85_104
	shlq	$2, %rsi
	testq	%rsi, %rsi
	je	LBB85_104
	movl	$4, %edx
	callq	___rust_dealloc
LBB85_104:
	leaq	-232(%rbp), %r14
	leaq	-192(%rbp), %rbx
	leaq	-160(%rbp), %r12
	movq	-200(%rbp), %rax
	leaq	32(%rax), %rcx
	addq	$32, %rax
	jb	LBB85_210
	decq	%rcx
	shrq	$5, %rcx
	movq	-120(%rbp), %rsi
	movq	%rsi, %rax
	mulq	%rcx
	jo	LBB85_211
	movq	%rax, %r9
	incq	%rsi
	movq	%rsi, %rax
	mulq	%rcx
	jo	LBB85_212
	cmpq	%r9, %rax
	jb	LBB85_213
	movq	-216(%rbp), %rsi
	cmpq	%rax, %rsi
	jb	LBB85_214
	movq	-232(%rbp), %rdi
	movq	-192(%rbp), %rcx
	movq	-176(%rbp), %r10
	leaq	(%rdi,%r9,4), %r11
	leaq	(%rdi,%rax,4), %rax
	subq	%r11, %rax
	shrq	$2, %rax
	cmpq	%rax, %r10
	cmovbeq	%r10, %rax
	testq	%rax, %rax
	je	LBB85_128
	cmpq	$8, %rax
	jae	LBB85_118
	xorl	%ebx, %ebx
	jmp	LBB85_127
LBB85_112:
	leaq	(%rax,%rbx,4), %rsi
	leaq	(%rdx,%rbx,4), %r10
	leaq	(%rcx,%rbx,4), %rdi
	cmpq	%rax, %r10
	seta	%r14b
	cmpq	%rsi, %rdx
	setb	%r15b
	cmpq	%rdi, %rax
	setb	%r11b
	cmpq	%rsi, %rcx
	setb	%r9b
	cmpq	%rdi, %rdx
	setb	%r8b
	cmpq	%rcx, %r10
	seta	%r10b
	xorl	%esi, %esi
	testb	%r15b, %r14b
	jne	LBB85_182
	andb	%r9b, %r11b
	movq	-48(%rbp), %r9
	jne	LBB85_92
	andb	%r10b, %r8b
	jne	LBB85_92
	movl	%ebx, %esi
	andl	$268435448, %esi
	xorl	%edi, %edi
	pcmpeqd	%xmm0, %xmm0
	.p2align	4, 0x90
LBB85_116:
	movdqu	(%rcx,%rdi,4), %xmm1
	movdqu	16(%rcx,%rdi,4), %xmm2
	pxor	%xmm0, %xmm1
	pxor	%xmm0, %xmm2
	movdqu	(%rax,%rdi,4), %xmm3
	movdqu	16(%rax,%rdi,4), %xmm4
	por	%xmm1, %xmm3
	por	%xmm2, %xmm4
	movdqu	%xmm3, (%rax,%rdi,4)
	movdqu	%xmm4, 16(%rax,%rdi,4)
	movdqu	(%rdx,%rdi,4), %xmm3
	movdqu	16(%rdx,%rdi,4), %xmm4
	por	%xmm1, %xmm3
	por	%xmm2, %xmm4
	movdqu	%xmm3, (%rdx,%rdi,4)
	movdqu	%xmm4, 16(%rdx,%rdi,4)
	addq	$8, %rdi
	cmpq	%rdi, %rsi
	jne	LBB85_116
	cmpq	%rsi, %rbx
	jne	LBB85_92
	jmp	LBB85_93
LBB85_118:
	leaq	(%rax,%r9), %rdx
	leaq	(%rdi,%rdx,4), %rdx
	cmpq	%rdx, %rcx
	jae	LBB85_121
	leaq	(%rcx,%rax,4), %rdx
	cmpq	%rdx, %r11
	jae	LBB85_121
	xorl	%ebx, %ebx
	jmp	LBB85_127
LBB85_121:
	movabsq	$4611686018427387896, %rbx
	andq	%rax, %rbx
	leaq	-8(%rbx), %rdx
	movq	%rdx, %r14
	shrq	$3, %r14
	incq	%r14
	movl	%r14d, %r8d
	andl	$1, %r8d
	testq	%rdx, %rdx
	je	LBB85_181
	leaq	48(%rdi,%r9,4), %rdx
	movq	%r8, %rsi
	subq	%r14, %rsi
	xorl	%edi, %edi
	.p2align	4, 0x90
LBB85_123:
	movdqu	-48(%rdx,%rdi,4), %xmm0
	movups	-32(%rdx,%rdi,4), %xmm1
	movdqu	(%rcx,%rdi,4), %xmm2
	por	%xmm0, %xmm2
	movups	16(%rcx,%rdi,4), %xmm0
	orps	%xmm1, %xmm0
	movdqu	32(%rcx,%rdi,4), %xmm1
	movdqu	48(%rcx,%rdi,4), %xmm3
	movdqu	%xmm2, (%rcx,%rdi,4)
	movups	%xmm0, 16(%rcx,%rdi,4)
	movdqu	-16(%rdx,%rdi,4), %xmm0
	por	%xmm1, %xmm0
	movdqu	(%rdx,%rdi,4), %xmm1
	por	%xmm3, %xmm1
	movdqu	%xmm0, 32(%rcx,%rdi,4)
	movdqu	%xmm1, 48(%rcx,%rdi,4)
	addq	$16, %rdi
	addq	$2, %rsi
	jne	LBB85_123
	testq	%r8, %r8
	je	LBB85_126
LBB85_125:
	movdqu	(%r11,%rdi,4), %xmm0
	movdqu	16(%r11,%rdi,4), %xmm1
	movdqu	(%rcx,%rdi,4), %xmm2
	por	%xmm0, %xmm2
	movdqu	16(%rcx,%rdi,4), %xmm0
	por	%xmm1, %xmm0
	movdqu	%xmm2, (%rcx,%rdi,4)
	movdqu	%xmm0, 16(%rcx,%rdi,4)
LBB85_126:
	cmpq	%rbx, %rax
	je	LBB85_128
	.p2align	4, 0x90
LBB85_127:
	movl	(%r11,%rbx,4), %edx
	orl	%edx, (%rcx,%rbx,4)
	incq	%rbx
	cmpq	%rax, %rbx
	jb	LBB85_127
LBB85_128:
	shlq	$2, %r10
	xorl	%eax, %eax
	.p2align	4, 0x90
LBB85_129:
	cmpq	%rax, %r10
	je	LBB85_132
	cmpl	$-1, (%rcx,%rax)
	leaq	4(%rax), %rax
	je	LBB85_129
	xorl	%ecx, %ecx
	jmp	LBB85_133
LBB85_132:
	movb	$1, %cl
LBB85_133:
	testb	%r13b, %r13b
	setne	%al
	andb	%cl, %al
	movb	%al, -128(%rbp)
	leaq	-400(%rbp), %rdi
	leaq	-240(%rbp), %rsi
	movl	$15, %ecx
	rep;movsq (%rsi), %es:(%rdi)
	cmpb	$0, -288(%rbp)
	je	LBB85_147
LBB85_134:
	movq	-384(%rbp), %rsi
	testq	%rsi, %rsi
	je	LBB85_138
	movq	-392(%rbp), %rdi
	testq	%rdi, %rdi
	je	LBB85_138
	shlq	$2, %rsi
	testq	%rsi, %rsi
	je	LBB85_138
	movl	$4, %edx
	callq	___rust_dealloc
LBB85_138:
	movq	-344(%rbp), %rsi
	testq	%rsi, %rsi
	movq	-48(%rbp), %rbx
	je	LBB85_142
	movq	-352(%rbp), %rdi
	testq	%rdi, %rdi
	je	LBB85_142
	shlq	$2, %rsi
	testq	%rsi, %rsi
	je	LBB85_142
	movl	$4, %edx
	callq	___rust_dealloc
LBB85_142:
	movq	-312(%rbp), %rsi
	testq	%rsi, %rsi
	je	LBB85_146
	movq	-320(%rbp), %rdi
	testq	%rdi, %rdi
	je	LBB85_146
	shlq	$2, %rsi
	testq	%rsi, %rsi
	je	LBB85_146
	movl	$4, %edx
	callq	___rust_dealloc
LBB85_146:
	movl	$9, %ecx
	movq	-416(%rbp), %rax
	movq	%rax, %rdi
	movq	%rbx, %rsi
	rep;movsq (%rsi), %es:(%rdi)
	addq	$408, %rsp
	popq	%rbx
	popq	%r12
	popq	%r13
	popq	%r14
	popq	%r15
	popq	%rbp
	retq
LBB85_147:
	leaq	l___unnamed_65(%rip), %rax
	movq	%rax, -240(%rbp)
	movq	$1, -232(%rbp)
	movq	$0, -224(%rbp)
	leaq	l___unnamed_11(%rip), %rax
	movq	%rax, -208(%rbp)
	movq	$0, -200(%rbp)
Ltmp141:
	leaq	-240(%rbp), %rdi
	callq	__ZN3std2io5stdio6_print17h84d1497a7551d848E
Ltmp142:
	movq	-400(%rbp), %rax
	movq	16(%rax), %r12
	testq	%r12, %r12
	je	LBB85_134
	movq	%rax, -408(%rbp)
	movq	(%rax), %rcx
	movq	-296(%rbp), %rsi
	movq	-304(%rbp), %r11
	movq	-320(%rbp), %rax
	movq	%rax, -120(%rbp)
	movq	-328(%rbp), %rax
	movq	%rax, -440(%rbp)
	movq	-352(%rbp), %rax
	movq	%rax, -432(%rbp)
	movq	-336(%rbp), %rax
	movq	%rax, -424(%rbp)
	xorl	%r9d, %r9d
	xorl	%r8d, %r8d
	jmp	LBB85_152
	.p2align	4, 0x90
LBB85_150:
	incq	%r9
LBB85_151:
	incq	%r8
	addq	$56, %rcx
	cmpq	%r8, %r12
	je	LBB85_172
LBB85_152:
	movl	48(%rcx), %ebx
	cmpq	%rbx, %rsi
	jbe	LBB85_206
	movq	%rbx, %rdx
	shrq	$5, %rdx
	cmpq	%rdx, %r11
	jbe	LBB85_206
	movl	40(%rcx), %r14d
	movq	-120(%rbp), %rax
	movl	(%rax,%rdx,4), %edx
	btl	%ebx, %edx
	movq	__ZN7bit_vec5FALSE17h18985e08484fd77bE@GOTPCREL(%rip), %rax
	movzbl	(%rax), %r15d
	movq	__ZN7bit_vec4TRUE17hf399d28fd341ff7dE@GOTPCREL(%rip), %rax
	movzbl	(%rax), %edx
	movl	%edx, %edi
	cmovael	%r15d, %edi
	testb	%dil, %dil
	sete	%r13b
	negb	%r13b
	testb	%dil, %dil
	je	LBB85_165
	movl	44(%rcx), %r10d
	testl	%r10d, %r10d
	je	LBB85_165
	movl	52(%rcx), %ebx
	cmpq	%rbx, %rsi
	jbe	LBB85_206
	movq	%rbx, %rdi
	shrq	$5, %rdi
	cmpq	%rdi, %r11
	jbe	LBB85_206
	movq	-120(%rbp), %rax
	movl	(%rax,%rdi,4), %eax
	btl	%ebx, %eax
	movl	%edx, %eax
	cmovael	%r15d, %eax
	testb	%al, %al
	sete	%r13b
	negb	%r13b
	testb	%al, %al
	je	LBB85_165
	testl	%r10d, %r10d
	jne	LBB85_165
	movl	56(%rcx), %ebx
	cmpq	%rbx, %rsi
	jbe	LBB85_206
	movq	%rbx, %rdi
	shrq	$5, %rdi
	cmpq	%rdi, %r11
	jbe	LBB85_206
	movq	-120(%rbp), %rax
	movl	(%rax,%rdi,4), %eax
	btl	%ebx, %eax
	movl	%edx, %eax
	cmovael	%r15d, %eax
	movb	$1, %r13b
	testb	%al, %al
	je	LBB85_165
	movl	60(%rcx), %ebx
	cmpq	%rbx, %rsi
	jbe	LBB85_206
	shrq	$5, %rbx
	cmpq	%rbx, %r11
	jbe	LBB85_206
	.p2align	4, 0x90
LBB85_165:
	cmpq	%r14, -440(%rbp)
	jbe	LBB85_207
	movq	%r14, %rdi
	shrq	$5, %rdi
	cmpq	%rdi, -424(%rbp)
	jbe	LBB85_207
	movq	-432(%rbp), %rax
	movl	(%rax,%rdi,4), %edi
	btl	%r14d, %edi
	cmovael	%r15d, %edx
	testb	%dl, %dl
	sete	%dl
	orb	%dl, %r13b
	testb	$1, %r13b
	jne	LBB85_150
	testq	%r9, %r9
	je	LBB85_171
	movq	%rsi, %r13
	movq	%r8, %rdi
	subq	%r9, %rdi
	movq	%r12, %rsi
	cmpq	%r12, %rdi
	jae	LBB85_208
	imulq	$-56, %r9, %rdx
	movq	48(%rcx,%rdx), %rdi
	movq	%rdi, -192(%rbp)
	movq	40(%rcx,%rdx), %rdi
	movq	%rdi, -200(%rbp)
	movq	32(%rcx,%rdx), %rdi
	movq	%rdi, -208(%rbp)
	movq	24(%rcx,%rdx), %rdi
	movq	%rdi, -216(%rbp)
	movq	16(%rcx,%rdx), %rdi
	movq	%rdi, -224(%rbp)
	movq	(%rcx,%rdx), %rdi
	movq	8(%rcx,%rdx), %rbx
	movq	%rbx, -232(%rbp)
	movq	%rdi, -240(%rbp)
	movq	48(%rcx), %r10
	movq	40(%rcx), %r14
	movq	32(%rcx), %r15
	movq	24(%rcx), %r12
	movq	16(%rcx), %rdi
	movq	(%rcx), %rbx
	movq	8(%rcx), %rax
	movq	%rbx, (%rcx,%rdx)
	movq	%rax, 8(%rcx,%rdx)
	movq	%rdi, 16(%rcx,%rdx)
	movq	%r12, 24(%rcx,%rdx)
	movq	%r15, 32(%rcx,%rdx)
	movq	%r14, 40(%rcx,%rdx)
	movq	%r10, 48(%rcx,%rdx)
	movq	-192(%rbp), %rax
	movq	%rax, 48(%rcx)
	movq	-200(%rbp), %rax
	movq	%rax, 40(%rcx)
	movq	-208(%rbp), %rax
	movq	%rax, 32(%rcx)
	movq	-216(%rbp), %rax
	movq	%rax, 24(%rcx)
	movq	-224(%rbp), %rax
	movq	%rax, 16(%rcx)
	movq	-240(%rbp), %rax
	movq	-232(%rbp), %rdx
	movq	%rdx, 8(%rcx)
	movq	%rax, (%rcx)
	movq	%rsi, %r12
	movq	%r13, %rsi
	jmp	LBB85_151
LBB85_171:
	xorl	%r9d, %r9d
	jmp	LBB85_151
LBB85_172:
	testq	%r9, %r9
	movq	-408(%rbp), %rdx
	je	LBB85_134
	subq	%r9, %r12
	movq	16(%rdx), %rax
	cmpq	%r12, %rax
	jb	LBB85_134
	movq	(%rdx), %rcx
	movq	%r12, 16(%rdx)
	cmpq	%r12, %rax
	je	LBB85_134
	imulq	$56, %rax, %r14
	addq	%rcx, %r14
	imulq	$56, %r12, %rbx
	addq	%rcx, %rbx
	jmp	LBB85_177
	.p2align	4, 0x90
LBB85_176:
	addq	$56, %rbx
	cmpq	%r14, %rbx
	je	LBB85_134
LBB85_177:
	movq	8(%rbx), %rax
	testq	%rax, %rax
	je	LBB85_176
	movq	(%rbx), %rdi
	testq	%rdi, %rdi
	je	LBB85_176
	shlq	$2, %rax
	leaq	(%rax,%rax,4), %rsi
	testq	%rsi, %rsi
	je	LBB85_176
	movl	$4, %edx
	callq	___rust_dealloc
	jmp	LBB85_176
LBB85_181:
	xorl	%edi, %edi
	testq	%r8, %r8
	jne	LBB85_125
	jmp	LBB85_126
LBB85_182:
	movq	-48(%rbp), %r9
	jmp	LBB85_92
LBB85_183:
Ltmp80:
	leaq	_str.1(%rip), %rdi
	leaq	l___unnamed_46(%rip), %rdx
	movl	$28, %esi
	callq	__ZN4core9panicking5panic17h383a6b80ea7021aaE
Ltmp81:
	jmp	LBB85_194
LBB85_184:
	leaq	-112(%rbp), %rax
	movq	%rax, -80(%rbp)
	leaq	__ZN4core3fmt3num52_$LT$impl$u20$core..fmt..Debug$u20$for$u20$usize$GT$3fmt17h3ce1e8eb3a3c5c0bE(%rip), %rax
	movq	%rax, -72(%rbp)
	leaq	-376(%rbp), %rcx
	movq	%rcx, -64(%rbp)
	movq	%rax, -56(%rbp)
	leaq	l___unnamed_66(%rip), %rax
	movq	%rax, -240(%rbp)
	movq	$2, -232(%rbp)
	movq	$0, -224(%rbp)
	leaq	-80(%rbp), %rax
	movq	%rax, -208(%rbp)
	movq	$2, -200(%rbp)
Ltmp98:
	leaq	l___unnamed_67(%rip), %rsi
	leaq	-240(%rbp), %rdi
	callq	__ZN3std9panicking15begin_panic_fmt17h8712912d987f10a1E
Ltmp99:
	jmp	LBB85_194
LBB85_185:
Ltmp100:
	leaq	l___unnamed_68(%rip), %rdx
	callq	__ZN4core9panicking18panic_bounds_check17he87128426d100e93E
Ltmp101:
	jmp	LBB85_194
LBB85_186:
Ltmp102:
	leaq	_str.1(%rip), %rdi
	leaq	l___unnamed_69(%rip), %rdx
	movl	$28, %esi
	callq	__ZN4core9panicking5panic17h383a6b80ea7021aaE
Ltmp103:
	jmp	LBB85_194
LBB85_187:
Ltmp104:
	leaq	_str.0(%rip), %rdi
	leaq	l___unnamed_69(%rip), %rdx
	movl	$33, %esi
	callq	__ZN4core9panicking5panic17h383a6b80ea7021aaE
Ltmp105:
	jmp	LBB85_194
LBB85_188:
Ltmp106:
	leaq	_str.1(%rip), %rdi
	leaq	l___unnamed_41(%rip), %rdx
	movl	$28, %esi
	callq	__ZN4core9panicking5panic17h383a6b80ea7021aaE
Ltmp107:
	jmp	LBB85_194
LBB85_189:
	leaq	-248(%rbp), %rax
	movq	%rax, -80(%rbp)
	leaq	__ZN4core3fmt3num52_$LT$impl$u20$core..fmt..Debug$u20$for$u20$usize$GT$3fmt17h3ce1e8eb3a3c5c0bE(%rip), %rax
	movq	%rax, -72(%rbp)
	movq	%r8, -64(%rbp)
	movq	%rax, -56(%rbp)
	leaq	l___unnamed_66(%rip), %rax
	movq	%rax, -240(%rbp)
	movq	$2, -232(%rbp)
	movq	$0, -224(%rbp)
	leaq	-80(%rbp), %rax
	movq	%rax, -208(%rbp)
	movq	$2, -200(%rbp)
Ltmp131:
	leaq	l___unnamed_67(%rip), %rsi
	leaq	-240(%rbp), %rdi
	callq	__ZN3std9panicking15begin_panic_fmt17h8712912d987f10a1E
Ltmp132:
	jmp	LBB85_194
LBB85_190:
Ltmp133:
	leaq	l___unnamed_68(%rip), %rdx
	callq	__ZN4core9panicking18panic_bounds_check17he87128426d100e93E
Ltmp134:
	jmp	LBB85_194
LBB85_191:
Ltmp69:
	leaq	_str.1(%rip), %rdi
	leaq	l___unnamed_46(%rip), %rdx
	movl	$28, %esi
	callq	__ZN4core9panicking5panic17h383a6b80ea7021aaE
Ltmp70:
	jmp	LBB85_194
LBB85_192:
Ltmp92:
	leaq	_str.1(%rip), %rdi
	leaq	l___unnamed_46(%rip), %rdx
	movl	$28, %esi
	callq	__ZN4core9panicking5panic17h383a6b80ea7021aaE
Ltmp93:
	jmp	LBB85_194
LBB85_193:
Ltmp125:
	leaq	_str.1(%rip), %rdi
	leaq	l___unnamed_46(%rip), %rdx
	movl	$28, %esi
	callq	__ZN4core9panicking5panic17h383a6b80ea7021aaE
Ltmp126:
LBB85_194:
	ud2
LBB85_195:
	leaq	-112(%rbp), %rax
	movq	%rax, -80(%rbp)
	leaq	__ZN4core3fmt3num52_$LT$impl$u20$core..fmt..Debug$u20$for$u20$usize$GT$3fmt17h3ce1e8eb3a3c5c0bE(%rip), %rax
	movq	%rax, -72(%rbp)
	movq	%r15, -64(%rbp)
	movq	%rax, -56(%rbp)
	leaq	l___unnamed_66(%rip), %rax
	movq	%rax, -240(%rbp)
	movq	$2, -232(%rbp)
	movq	$0, -224(%rbp)
	leaq	-80(%rbp), %rax
	movq	%rax, -208(%rbp)
	movq	$2, -200(%rbp)
Ltmp71:
	leaq	l___unnamed_67(%rip), %rsi
	leaq	-240(%rbp), %rdi
	callq	__ZN3std9panicking15begin_panic_fmt17h8712912d987f10a1E
Ltmp72:
	jmp	LBB85_194
LBB85_196:
Ltmp73:
	leaq	l___unnamed_70(%rip), %rdx
	callq	__ZN4core9panicking18panic_bounds_check17he87128426d100e93E
Ltmp74:
	jmp	LBB85_194
LBB85_197:
	leaq	-112(%rbp), %rax
	movq	%rax, -80(%rbp)
	leaq	__ZN4core3fmt3num52_$LT$impl$u20$core..fmt..Debug$u20$for$u20$usize$GT$3fmt17h3ce1e8eb3a3c5c0bE(%rip), %rax
	movq	%rax, -72(%rbp)
	leaq	-376(%rbp), %rcx
	movq	%rcx, -64(%rbp)
	movq	%rax, -56(%rbp)
	leaq	l___unnamed_66(%rip), %rax
	movq	%rax, -240(%rbp)
	movq	$2, -232(%rbp)
	movq	$0, -224(%rbp)
	leaq	-80(%rbp), %rax
	movq	%rax, -208(%rbp)
	movq	$2, -200(%rbp)
Ltmp94:
	leaq	l___unnamed_67(%rip), %rsi
	leaq	-240(%rbp), %rdi
	callq	__ZN3std9panicking15begin_panic_fmt17h8712912d987f10a1E
Ltmp95:
	jmp	LBB85_194
LBB85_198:
Ltmp96:
	leaq	l___unnamed_68(%rip), %rdx
	callq	__ZN4core9panicking18panic_bounds_check17he87128426d100e93E
Ltmp97:
	jmp	LBB85_194
LBB85_199:
Ltmp108:
	leaq	_str.1(%rip), %rdi
	leaq	l___unnamed_69(%rip), %rdx
	movl	$28, %esi
	callq	__ZN4core9panicking5panic17h383a6b80ea7021aaE
Ltmp109:
	jmp	LBB85_194
LBB85_200:
Ltmp110:
	leaq	_str.0(%rip), %rdi
	leaq	l___unnamed_69(%rip), %rdx
	movl	$33, %esi
	callq	__ZN4core9panicking5panic17h383a6b80ea7021aaE
Ltmp111:
	jmp	LBB85_194
LBB85_201:
Ltmp112:
	leaq	_str.1(%rip), %rdi
	leaq	l___unnamed_41(%rip), %rdx
	movl	$28, %esi
	callq	__ZN4core9panicking5panic17h383a6b80ea7021aaE
Ltmp113:
	jmp	LBB85_194
LBB85_202:
	leaq	-248(%rbp), %rax
	movq	%rax, -80(%rbp)
	leaq	__ZN4core3fmt3num52_$LT$impl$u20$core..fmt..Debug$u20$for$u20$usize$GT$3fmt17h3ce1e8eb3a3c5c0bE(%rip), %rax
	movq	%rax, -72(%rbp)
	movq	%r8, -64(%rbp)
	movq	%rax, -56(%rbp)
	leaq	l___unnamed_66(%rip), %rax
	movq	%rax, -240(%rbp)
	movq	$2, -232(%rbp)
	movq	$0, -224(%rbp)
	leaq	-80(%rbp), %rax
	movq	%rax, -208(%rbp)
	movq	$2, -200(%rbp)
Ltmp127:
	leaq	l___unnamed_67(%rip), %rsi
	leaq	-240(%rbp), %rdi
	callq	__ZN3std9panicking15begin_panic_fmt17h8712912d987f10a1E
Ltmp128:
	jmp	LBB85_194
LBB85_203:
Ltmp129:
	leaq	l___unnamed_68(%rip), %rdx
	callq	__ZN4core9panicking18panic_bounds_check17he87128426d100e93E
Ltmp130:
	jmp	LBB85_194
LBB85_204:
	leaq	-112(%rbp), %rax
	movq	%rax, -80(%rbp)
	leaq	__ZN4core3fmt3num52_$LT$impl$u20$core..fmt..Debug$u20$for$u20$usize$GT$3fmt17h3ce1e8eb3a3c5c0bE(%rip), %rax
	movq	%rax, -72(%rbp)
	movq	%r15, -64(%rbp)
	movq	%rax, -56(%rbp)
	leaq	l___unnamed_66(%rip), %rax
	movq	%rax, -240(%rbp)
	movq	$2, -232(%rbp)
	movq	$0, -224(%rbp)
	leaq	-80(%rbp), %rax
	movq	%rax, -208(%rbp)
	movq	$2, -200(%rbp)
Ltmp76:
	leaq	l___unnamed_67(%rip), %rsi
	leaq	-240(%rbp), %rdi
	callq	__ZN3std9panicking15begin_panic_fmt17h8712912d987f10a1E
Ltmp77:
	jmp	LBB85_194
LBB85_205:
Ltmp78:
	leaq	l___unnamed_68(%rip), %rdx
	callq	__ZN4core9panicking18panic_bounds_check17he87128426d100e93E
Ltmp79:
	jmp	LBB85_194
LBB85_206:
Ltmp143:
	leaq	l___unnamed_54(%rip), %rdi
	leaq	l___unnamed_71(%rip), %rdx
	movl	$19, %esi
	callq	__ZN4core6option13expect_failed17h7591ba70e88f159aE
Ltmp144:
	jmp	LBB85_194
LBB85_207:
Ltmp145:
	leaq	l___unnamed_54(%rip), %rdi
	leaq	l___unnamed_72(%rip), %rdx
	movl	$19, %esi
	callq	__ZN4core6option13expect_failed17h7591ba70e88f159aE
Ltmp146:
	jmp	LBB85_194
LBB85_208:
Ltmp147:
	leaq	l___unnamed_73(%rip), %rdx
	callq	__ZN4core9panicking18panic_bounds_check17he87128426d100e93E
Ltmp148:
	jmp	LBB85_194
LBB85_209:
Ltmp161:
	leaq	l___unnamed_39(%rip), %rdi
	leaq	l___unnamed_63(%rip), %rdx
	movl	$43, %esi
	callq	__ZN4core9panicking5panic17h383a6b80ea7021aaE
Ltmp162:
	jmp	LBB85_194
LBB85_210:
Ltmp158:
	leaq	_str.1(%rip), %rdi
	leaq	l___unnamed_41(%rip), %rdx
	movl	$28, %esi
	callq	__ZN4core9panicking5panic17h383a6b80ea7021aaE
Ltmp159:
	jmp	LBB85_194
LBB85_211:
Ltmp156:
	leaq	_str.0(%rip), %rdi
	leaq	l___unnamed_74(%rip), %rdx
	movl	$33, %esi
	callq	__ZN4core9panicking5panic17h383a6b80ea7021aaE
Ltmp157:
	jmp	LBB85_194
LBB85_212:
Ltmp154:
	leaq	_str.0(%rip), %rdi
	leaq	l___unnamed_74(%rip), %rdx
	movl	$33, %esi
	callq	__ZN4core9panicking5panic17h383a6b80ea7021aaE
Ltmp155:
	jmp	LBB85_194
LBB85_213:
Ltmp152:
	leaq	l___unnamed_74(%rip), %rdx
	movq	%r9, %rdi
	movq	%rax, %rsi
	callq	__ZN4core5slice22slice_index_order_fail17h65298a4d6b795c79E
Ltmp153:
	jmp	LBB85_194
LBB85_214:
Ltmp150:
	leaq	l___unnamed_74(%rip), %rdx
	movq	%rax, %rdi
	callq	__ZN4core5slice24slice_end_index_len_fail17hea9e3399ed430f80E
Ltmp151:
	jmp	LBB85_194
LBB85_215:
Ltmp122:
	leaq	_str.2(%rip), %rdi
	leaq	l___unnamed_43(%rip), %rdx
	movl	$33, %esi
	callq	__ZN4core9panicking5panic17h383a6b80ea7021aaE
Ltmp123:
	jmp	LBB85_194
LBB85_216:
Ltmp120:
	leaq	l___unnamed_44(%rip), %rdx
	movq	%rbx, %rsi
	callq	__ZN4core9panicking18panic_bounds_check17he87128426d100e93E
Ltmp121:
	jmp	LBB85_194
LBB85_217:
Ltmp138:
	leaq	_str.2(%rip), %rdi
	leaq	l___unnamed_43(%rip), %rdx
	movl	$33, %esi
	callq	__ZN4core9panicking5panic17h383a6b80ea7021aaE
Ltmp139:
	jmp	LBB85_194
LBB85_218:
Ltmp136:
	leaq	l___unnamed_44(%rip), %rdx
	movq	%rbx, %rsi
	callq	__ZN4core9panicking18panic_bounds_check17he87128426d100e93E
Ltmp137:
	jmp	LBB85_194
LBB85_219:
Ltmp140:
	movq	%rax, %r15
	leaq	-80(%rbp), %rdi
	callq	__ZN4core3ptr13drop_in_place17h3938456cc78f2ad3E
	jmp	LBB85_227
LBB85_220:
Ltmp124:
	jmp	LBB85_226
LBB85_221:
Ltmp160:
	movq	%rax, %r15
	movq	%r14, %rdi
	callq	__ZN4core3ptr13drop_in_place17h3938456cc78f2ad3E
	movq	%rbx, %rdi
	callq	__ZN4core3ptr13drop_in_place17h3938456cc78f2ad3E
	movq	%r12, %rdi
	jmp	LBB85_239
LBB85_222:
Ltmp75:
	jmp	LBB85_224
LBB85_223:
Ltmp82:
LBB85_224:
	movq	%rax, %r15
	leaq	-400(%rbp), %rdi
	jmp	LBB85_239
LBB85_225:
Ltmp135:
LBB85_226:
	movq	%rax, %r15
LBB85_227:
	leaq	-112(%rbp), %rdi
	callq	__ZN4core3ptr13drop_in_place17h3938456cc78f2ad3E
	jmp	LBB85_237
LBB85_228:
Ltmp114:
	jmp	LBB85_236
LBB85_229:
Ltmp149:
	movq	%rax, %r15
	leaq	-400(%rbp), %rdi
	callq	__ZN4core3ptr13drop_in_place17h6e2238330f2a3893E
	jmp	LBB85_240
LBB85_230:
Ltmp91:
	jmp	LBB85_233
LBB85_231:
Ltmp88:
	movq	%rax, %r15
	leaq	-240(%rbp), %rdi
	callq	__ZN4core3ptr13drop_in_place17hbf5dec43261dbbc4E
	jmp	LBB85_238
LBB85_232:
Ltmp85:
LBB85_233:
	movq	%rax, %r15
	jmp	LBB85_238
LBB85_234:
Ltmp163:
	movq	%rax, %r15
	jmp	LBB85_240
LBB85_235:
Ltmp119:
LBB85_236:
	movq	%rax, %r15
LBB85_237:
	leaq	-400(%rbp), %rdi
	callq	__ZN4core3ptr13drop_in_place17h3938456cc78f2ad3E
LBB85_238:
	leaq	-280(%rbp), %rdi
LBB85_239:
	callq	__ZN4core3ptr13drop_in_place17h3938456cc78f2ad3E
LBB85_240:
	movq	-48(%rbp), %rdi
	callq	__ZN4core3ptr13drop_in_place17h3cbbbfaeeca2c8baE
	movq	%r15, %rdi
	callq	__Unwind_Resume
	ud2
Lfunc_end5:
	.cfi_endproc
	.section	__TEXT,__gcc_except_tab
	.p2align	2
GCC_except_table85:
Lexception5:
	.byte	255
	.byte	255
	.byte	1
	.uleb128 Lcst_end5-Lcst_begin5
Lcst_begin5:
	.uleb128 Ltmp67-Lfunc_begin5
	.uleb128 Ltmp68-Ltmp67
	.uleb128 Ltmp163-Lfunc_begin5
	.byte	0
	.uleb128 Ltmp83-Lfunc_begin5
	.uleb128 Ltmp84-Ltmp83
	.uleb128 Ltmp85-Lfunc_begin5
	.byte	0
	.uleb128 Ltmp86-Lfunc_begin5
	.uleb128 Ltmp87-Ltmp86
	.uleb128 Ltmp88-Lfunc_begin5
	.byte	0
	.uleb128 Ltmp89-Lfunc_begin5
	.uleb128 Ltmp90-Ltmp89
	.uleb128 Ltmp91-Lfunc_begin5
	.byte	0
	.uleb128 Ltmp115-Lfunc_begin5
	.uleb128 Ltmp118-Ltmp115
	.uleb128 Ltmp119-Lfunc_begin5
	.byte	0
	.uleb128 Ltmp141-Lfunc_begin5
	.uleb128 Ltmp142-Ltmp141
	.uleb128 Ltmp149-Lfunc_begin5
	.byte	0
	.uleb128 Ltmp80-Lfunc_begin5
	.uleb128 Ltmp81-Ltmp80
	.uleb128 Ltmp82-Lfunc_begin5
	.byte	0
	.uleb128 Ltmp98-Lfunc_begin5
	.uleb128 Ltmp107-Ltmp98
	.uleb128 Ltmp114-Lfunc_begin5
	.byte	0
	.uleb128 Ltmp131-Lfunc_begin5
	.uleb128 Ltmp134-Ltmp131
	.uleb128 Ltmp135-Lfunc_begin5
	.byte	0
	.uleb128 Ltmp69-Lfunc_begin5
	.uleb128 Ltmp70-Ltmp69
	.uleb128 Ltmp75-Lfunc_begin5
	.byte	0
	.uleb128 Ltmp92-Lfunc_begin5
	.uleb128 Ltmp93-Ltmp92
	.uleb128 Ltmp114-Lfunc_begin5
	.byte	0
	.uleb128 Ltmp125-Lfunc_begin5
	.uleb128 Ltmp126-Ltmp125
	.uleb128 Ltmp135-Lfunc_begin5
	.byte	0
	.uleb128 Ltmp71-Lfunc_begin5
	.uleb128 Ltmp74-Ltmp71
	.uleb128 Ltmp75-Lfunc_begin5
	.byte	0
	.uleb128 Ltmp94-Lfunc_begin5
	.uleb128 Ltmp113-Ltmp94
	.uleb128 Ltmp114-Lfunc_begin5
	.byte	0
	.uleb128 Ltmp127-Lfunc_begin5
	.uleb128 Ltmp130-Ltmp127
	.uleb128 Ltmp135-Lfunc_begin5
	.byte	0
	.uleb128 Ltmp76-Lfunc_begin5
	.uleb128 Ltmp79-Ltmp76
	.uleb128 Ltmp82-Lfunc_begin5
	.byte	0
	.uleb128 Ltmp143-Lfunc_begin5
	.uleb128 Ltmp148-Ltmp143
	.uleb128 Ltmp149-Lfunc_begin5
	.byte	0
	.uleb128 Ltmp161-Lfunc_begin5
	.uleb128 Ltmp162-Ltmp161
	.uleb128 Ltmp163-Lfunc_begin5
	.byte	0
	.uleb128 Ltmp158-Lfunc_begin5
	.uleb128 Ltmp151-Ltmp158
	.uleb128 Ltmp160-Lfunc_begin5
	.byte	0
	.uleb128 Ltmp122-Lfunc_begin5
	.uleb128 Ltmp121-Ltmp122
	.uleb128 Ltmp124-Lfunc_begin5
	.byte	0
	.uleb128 Ltmp138-Lfunc_begin5
	.uleb128 Ltmp137-Ltmp138
	.uleb128 Ltmp140-Lfunc_begin5
	.byte	0
	.uleb128 Ltmp137-Lfunc_begin5
	.uleb128 Lfunc_end5-Ltmp137
	.byte	0
	.byte	0
Lcst_end5:
	.p2align	2

	.section	__TEXT,__text,regular,pure_instructions
	.globl	__ZN3cfg6earley17binarized_grammar16BinarizedGrammar17eliminate_nulling17h9db005f2b5e15856E
	.p2align	4, 0x90
__ZN3cfg6earley17binarized_grammar16BinarizedGrammar17eliminate_nulling17h9db005f2b5e15856E:
Lfunc_begin6:
	.cfi_startproc
	.cfi_personality 155, _rust_eh_personality
	.cfi_lsda 16, Lexception6
	pushq	%rbp
	.cfi_def_cfa_offset 16
	.cfi_offset %rbp, -16
	movq	%rsp, %rbp
	.cfi_def_cfa_register %rbp
	pushq	%r15
	pushq	%r14
	pushq	%r13
	pushq	%r12
	pushq	%rbx
	subq	$392, %rsp
	.cfi_offset %rbx, -56
	.cfi_offset %r12, -48
	.cfi_offset %r13, -40
	.cfi_offset %r14, -32
	.cfi_offset %r15, -24
	movq	%rsi, %rbx
	movq	%rdi, %r14
	movl	48(%rsi), %esi
	movl	%esi, -352(%rbp)
	movq	$8, -400(%rbp)
	movq	$0, -392(%rbp)
	movq	$0, -384(%rbp)
	movq	$8, -376(%rbp)
	movq	$0, -368(%rbp)
	movq	$0, -360(%rbp)
	movq	24(%rbx), %rax
	movq	40(%rbx), %rcx
	shlq	$3, %rcx
	leaq	(%rcx,%rcx,4), %rcx
	movq	%rax, %rdx
	movq	%rbx, -232(%rbp)
	.p2align	4, 0x90
LBB86_1:
	testq	%rcx, %rcx
	je	LBB86_161
	addq	$-40, %rcx
	cmpl	$2, 24(%rdx)
	leaq	40(%rdx), %rdx
	je	LBB86_1
	movq	32(%rbx), %rcx
	movq	40(%rbx), %rdx
	movq	%rdx, -88(%rbp)
	movq	%rcx, -96(%rbp)
	movq	$8, 24(%rbx)
	movq	$0, 32(%rbx)
	movq	$0, 40(%rbx)
	movq	%rax, -272(%rbp)
	movq	-96(%rbp), %rax
	movq	-88(%rbp), %rcx
	movq	%rax, -264(%rbp)
	movq	%rcx, -256(%rbp)
	movl	$2, -72(%rbp)
	subq	%rcx, %rsi
	jb	LBB86_192
	movq	%r14, -408(%rbp)
	movq	-64(%rbp), %rax
	movq	%rax, -304(%rbp)
	movq	-72(%rbp), %rcx
	movq	%rcx, -312(%rbp)
	movq	-80(%rbp), %rdx
	movq	%rdx, -320(%rbp)
	movq	-96(%rbp), %rdi
	movq	-88(%rbp), %rbx
	movq	%rbx, -328(%rbp)
	movq	%rdi, -336(%rbp)
	movq	%rax, -192(%rbp)
	movq	%rcx, -200(%rbp)
	movq	%rdx, -208(%rbp)
	movq	%rbx, -216(%rbp)
	movq	%rdi, -224(%rbp)
	movq	%rsi, -184(%rbp)
Ltmp164:
	leaq	-272(%rbp), %rdi
	callq	__ZN5alloc3vec12Vec$LT$T$GT$7reserve17hb5173f75abee6a72E
Ltmp165:
	movq	-256(%rbp), %r15
	leaq	(%r15,%r15,4), %r12
	shlq	$3, %r12
	addq	-272(%rbp), %r12
	movq	-184(%rbp), %rax
	movq	%rax, -56(%rbp)
	movq	-192(%rbp), %rcx
	movq	%rcx, -64(%rbp)
	movq	-200(%rbp), %rcx
	movq	%rcx, -72(%rbp)
	movq	-208(%rbp), %rcx
	movq	%rcx, -80(%rbp)
	movq	-224(%rbp), %rcx
	movq	-216(%rbp), %rdx
	movq	%rdx, -88(%rbp)
	movq	%rcx, -96(%rbp)
	testq	%rax, %rax
	je	LBB86_16
	leaq	-256(%rbp), %rcx
	leaq	-56(%rbp), %rdx
	movq	%rdx, -176(%rbp)
	movq	%r12, -168(%rbp)
	movq	%rcx, -160(%rbp)
	movq	%r15, -152(%rbp)
	jmp	LBB86_9
LBB86_13:
	movq	%rbx, %rcx
	testq	%rcx, %rcx
	je	LBB86_184
LBB86_14:
	movq	%r13, %rax
	movabsq	$-3689348814741910323, %rdx
	mulq	%rdx
	shrq	$4, %rdx
	movq	%rcx, -136(%rbp)
	movq	%rdx, -128(%rbp)
	movq	$0, -120(%rbp)
Ltmp167:
	leaq	-136(%rbp), %rdi
	movq	%r15, %rsi
	callq	__ZN5alloc3vec12Vec$LT$T$GT$7reserve17hb597647698dfad3aE
Ltmp168:
	movq	-120(%rbp), %rbx
	leaq	(%rbx,%rbx,4), %rdi
	shlq	$2, %rdi
	addq	-136(%rbp), %rdi
	movq	-144(%rbp), %rsi
	movq	%r13, %rdx
	callq	_memcpy
	addq	%rbx, %r15
	movl	-68(%rbp), %r9d
	movl	-64(%rbp), %r8d
	xorl	%r11d, %r11d
	cmpl	$1, %r14d
	sete	%r11b
	movzbl	-60(%rbp), %ebx
	movl	%ebx, %eax
	andb	$1, %al
	cmpb	$2, %bl
	movzbl	%al, %r10d
	movl	$2, %eax
	cmovel	%eax, %r10d
	movq	%r15, -280(%rbp)
	movq	-136(%rbp), %rax
	movq	-128(%rbp), %rbx
	movq	%rax, -296(%rbp)
	movq	%rbx, -288(%rbp)
	movzwl	-136(%rbp), %eax
	movw	%ax, -104(%rbp)
	movzbl	-134(%rbp), %eax
	movb	%al, -102(%rbp)
	movq	-56(%rbp), %rax
	movq	-112(%rbp), %r15
LBB86_8:
	movq	-280(%rbp), %rbx
	movq	%rbx, -120(%rbp)
	movq	-296(%rbp), %rsi
	movq	-288(%rbp), %rdx
	movq	%rdx, -128(%rbp)
	movq	%rsi, -136(%rbp)
	movzwl	-104(%rbp), %edi
	movw	%di, -100(%rbp)
	movzbl	-102(%rbp), %ecx
	movb	%cl, -98(%rbp)
	decq	%rax
	movq	%rax, -56(%rbp)
	movq	%rbx, 16(%r12)
	movq	%rdx, 8(%r12)
	movq	%rsi, (%r12)
	movl	%r11d, 24(%r12)
	movl	%r9d, 28(%r12)
	movl	%r8d, 32(%r12)
	movb	%r10b, 36(%r12)
	movzwl	-100(%rbp), %eax
	movw	%ax, 37(%r12)
	movzbl	-98(%rbp), %eax
	movb	%al, 39(%r12)
	addq	$40, %r12
	incq	%r15
	movq	-56(%rbp), %rax
	testq	%rax, %rax
	je	LBB86_15
LBB86_9:
	movl	-72(%rbp), %r14d
	movl	$2, %r11d
	cmpl	$2, %r14d
	je	LBB86_8
	movq	%r15, -112(%rbp)
	movq	-80(%rbp), %r15
	xorl	%ebx, %ebx
	movq	%r15, %rax
	movl	$20, %ecx
	mulq	%rcx
	movq	%rax, %r13
	setno	%al
	jo	LBB86_183
	movq	-96(%rbp), %rcx
	movq	%rcx, -144(%rbp)
	movb	%al, %bl
	shlq	$2, %rbx
	testq	%r13, %r13
	je	LBB86_13
	movq	%r13, %rdi
	movq	%rbx, %rsi
	callq	___rust_alloc
	movq	%rax, %rcx
	testq	%rcx, %rcx
	jne	LBB86_14
LBB86_184:
	movq	%r13, %rdi
	movq	%rbx, %rsi
	callq	__ZN5alloc5alloc18handle_alloc_error17h28974197717b8939E
LBB86_15:
	movq	%r15, -256(%rbp)
LBB86_16:
	cmpl	$2, -72(%rbp)
	je	LBB86_21
	movq	-88(%rbp), %rax
	testq	%rax, %rax
	je	LBB86_21
	movq	-96(%rbp), %rdi
	testq	%rdi, %rdi
	je	LBB86_21
	shlq	$2, %rax
	leaq	(%rax,%rax,4), %rsi
	testq	%rsi, %rsi
	je	LBB86_21
	movl	$4, %edx
	callq	___rust_dealloc
	movq	-256(%rbp), %r15
LBB86_21:
	movq	-272(%rbp), %r12
	movq	$4, -176(%rbp)
	movq	$0, -168(%rbp)
	movq	$0, -160(%rbp)
	movq	$0, -152(%rbp)
	testq	%r15, %r15
	je	LBB86_23
	movq	%r15, %rsi
	shrq	$5, %rsi
	movl	%r15d, %eax
	andl	$31, %eax
	cmpq	$1, %rax
	sbbq	$-1, %rsi
Ltmp173:
	leaq	-176(%rbp), %rdi
	callq	__ZN5alloc3vec12Vec$LT$T$GT$7reserve17h646b1e4bc926caa2E
Ltmp174:
LBB86_23:
	leaq	(%r15,%r15,4), %rax
	leaq	(%r12,%rax,8), %rax
	cmpq	%rax, %r12
	je	LBB86_37
	shlq	$3, %r15
	leaq	(%r15,%r15,4), %r13
	xorl	%ebx, %ebx
	leaq	-176(%rbp), %r14
	.p2align	4, 0x90
LBB86_27:
	movl	24(%r12,%rbx), %r15d
	movq	-152(%rbp), %rcx
	testb	$31, %cl
	jne	LBB86_32
	movq	-160(%rbp), %rax
	cmpq	-168(%rbp), %rax
	jne	LBB86_31
Ltmp176:
	movl	$1, %esi
	movq	%r14, %rdi
	callq	__ZN5alloc3vec12Vec$LT$T$GT$7reserve17h646b1e4bc926caa2E
Ltmp177:
	movq	-160(%rbp), %rax
LBB86_31:
	movq	-176(%rbp), %rcx
	movl	$0, (%rcx,%rax,4)
	incq	-160(%rbp)
	movq	-152(%rbp), %rcx
LBB86_32:
	movq	%rcx, %rax
	incq	%rax
	je	LBB86_179
	movq	%rax, -152(%rbp)
	movq	%rcx, -336(%rbp)
	cmpq	%rcx, %rax
	jbe	LBB86_178
	movl	$1, %eax
	shll	%cl, %eax
	movq	%rcx, %rdi
	shrq	$5, %rdi
	movq	-160(%rbp), %rsi
	cmpl	$2, %r15d
	jne	LBB86_25
	cmpq	%rdi, %rsi
	jbe	LBB86_186
	movq	-176(%rbp), %rcx
	notl	%eax
	andl	(%rcx,%rdi,4), %eax
	movl	%eax, (%rcx,%rdi,4)
	addq	$40, %rbx
	cmpq	%rbx, %r13
	jne	LBB86_27
	jmp	LBB86_37
	.p2align	4, 0x90
LBB86_25:
	cmpq	%rdi, %rsi
	jbe	LBB86_185
	movq	-176(%rbp), %rcx
	orl	(%rcx,%rdi,4), %eax
	movl	%eax, (%rcx,%rdi,4)
	addq	$40, %rbx
	cmpq	%rbx, %r13
	jne	LBB86_27
LBB86_37:
	movq	-232(%rbp), %r12
	movl	48(%r12), %esi
Ltmp188:
	leaq	-336(%rbp), %rdi
	movl	$1, %edx
	callq	__ZN7bit_vec6BitVec9from_elem17h28aa3bc903b1759eE
Ltmp189:
	movq	-256(%rbp), %rax
	movq	%rax, -80(%rbp)
	movq	-272(%rbp), %rax
	movq	-264(%rbp), %rcx
	movq	%rcx, -88(%rbp)
	movq	%rax, -96(%rbp)
	movq	-376(%rbp), %r15
	movq	-360(%rbp), %rax
	testq	%rax, %rax
	je	LBB86_47
	shlq	$3, %rax
	leaq	(%rax,%rax,4), %r14
	xorl	%ebx, %ebx
	jmp	LBB86_41
	.p2align	4, 0x90
LBB86_40:
	addq	$40, %rbx
	cmpq	%rbx, %r14
	je	LBB86_46
LBB86_41:
	cmpl	$2, 24(%r15,%rbx)
	je	LBB86_40
	movq	8(%r15,%rbx), %rax
	testq	%rax, %rax
	je	LBB86_40
	movq	(%r15,%rbx), %rdi
	testq	%rdi, %rdi
	je	LBB86_40
	shlq	$2, %rax
	leaq	(%rax,%rax,4), %rsi
	testq	%rsi, %rsi
	je	LBB86_40
	movl	$4, %edx
	callq	___rust_dealloc
	jmp	LBB86_40
LBB86_46:
	movq	-376(%rbp), %r15
LBB86_47:
	leaq	-376(%rbp), %rbx
	movq	-368(%rbp), %rax
	testq	%rax, %rax
	je	LBB86_51
	testq	%r15, %r15
	je	LBB86_51
	shlq	$3, %rax
	leaq	(%rax,%rax,4), %rsi
	testq	%rsi, %rsi
	je	LBB86_51
	movl	$8, %edx
	movq	%r15, %rdi
	callq	___rust_dealloc
LBB86_51:
	movq	-80(%rbp), %rax
	movq	%rax, 16(%rbx)
	movq	-96(%rbp), %rax
	movq	-88(%rbp), %rcx
	movq	%rcx, 8(%rbx)
	movq	%rax, (%rbx)
Ltmp191:
	leaq	-96(%rbp), %rdi
	movq	%r12, %rsi
	callq	__ZN3cfg8analysis11rhs_closure19RhsClosure$LT$R$GT$3new17h5422b493f52ad015E
Ltmp192:
Ltmp194:
	leaq	-96(%rbp), %rdi
	leaq	-176(%rbp), %rsi
	callq	__ZN3cfg8analysis11rhs_closure19RhsClosure$LT$R$GT$11rhs_closure17hd5356be2c90bb785E
Ltmp195:
	movq	-88(%rbp), %rax
	testq	%rax, %rax
	je	LBB86_57
	movq	-96(%rbp), %rdi
	testq	%rdi, %rdi
	je	LBB86_57
	shlq	$3, %rax
	leaq	(%rax,%rax,4), %rsi
	testq	%rsi, %rsi
	je	LBB86_57
	movl	$8, %edx
	callq	___rust_dealloc
LBB86_57:
	movq	-64(%rbp), %rsi
	testq	%rsi, %rsi
	je	LBB86_61
	movq	-72(%rbp), %rdi
	testq	%rdi, %rdi
	je	LBB86_61
	shlq	$2, %rsi
	testq	%rsi, %rsi
	je	LBB86_61
	movl	$4, %edx
	callq	___rust_dealloc
LBB86_61:
	movq	$8, -136(%rbp)
	movq	$0, -128(%rbp)
	movq	$0, -120(%rbp)
	movq	16(%r12), %rax
	testq	%rax, %rax
	je	LBB86_97
	movq	(%r12), %r13
	movq	%r13, -112(%rbp)
	addq	$48, %r13
	imulq	$56, %rax, %rax
	movq	%rax, -424(%rbp)
	movl	$8, %r12d
	xorl	%r15d, %r15d
	jmp	LBB86_66
LBB86_63:
	movq	-136(%rbp), %r12
	movq	-120(%rbp), %r15
LBB86_64:
	imulq	$56, %r15, %rax
	movq	-48(%rbp), %rcx
	movq	%rcx, 48(%r12,%rax)
	movq	-56(%rbp), %rcx
	movq	%rcx, 40(%r12,%rax)
	movq	-64(%rbp), %rcx
	movq	%rcx, 32(%r12,%rax)
	movq	-72(%rbp), %rcx
	movq	%rcx, 24(%r12,%rax)
	movq	-80(%rbp), %rcx
	movq	%rcx, 16(%r12,%rax)
	movq	-96(%rbp), %rcx
	movq	-88(%rbp), %rdx
	movq	%rdx, 8(%r12,%rax)
	movq	%rcx, (%r12,%rax)
	incq	%r15
	movq	%r15, -120(%rbp)
LBB86_65:
	addq	$56, -112(%rbp)
	addq	$56, %r13
	addq	$-56, -424(%rbp)
	je	LBB86_96
LBB86_66:
	movl	(%r13), %eax
	movq	-152(%rbp), %rcx
	cmpq	%rax, %rcx
	jbe	LBB86_176
	movq	%rax, %rdi
	shrq	$5, %rdi
	movq	-160(%rbp), %rsi
	cmpq	%rdi, %rsi
	jbe	LBB86_176
	movq	-176(%rbp), %rdx
	movl	(%rdx,%rdi,4), %edi
	btl	%eax, %edi
	movq	__ZN7bit_vec5FALSE17h18985e08484fd77bE@GOTPCREL(%rip), %rax
	movzbl	(%rax), %edi
	movq	__ZN7bit_vec4TRUE17hf399d28fd341ff7dE@GOTPCREL(%rip), %rax
	movzbl	(%rax), %ebx
	movl	%ebx, %r14d
	cmovael	%edi, %r14d
	movl	-4(%r13), %r8d
	movb	$1, %al
	cmpl	$1, %r8d
	jne	LBB86_72
	movl	4(%r13), %eax
	cmpq	%rax, %rcx
	jbe	LBB86_180
	movq	%rax, %rcx
	shrq	$5, %rcx
	cmpq	%rcx, %rsi
	jbe	LBB86_180
	movl	(%rdx,%rcx,4), %ecx
	btl	%eax, %ecx
	movzbl	%dil, %eax
	movzbl	%bl, %ecx
	cmovael	%eax, %ecx
	testb	%cl, %cl
	setne	%al
LBB86_72:
	testb	%r14b, %r14b
	movb	%al, -144(%rbp)
	je	LBB86_76
	testb	%al, %al
	je	LBB86_76
	movq	-24(%r13), %rax
	movl	-8(%r13), %esi
	movl	$2, -72(%rbp)
	leaq	-400(%rbp), %rdi
	movq	%rdi, -56(%rbp)
	movl	$1, -48(%rbp)
	movl	%esi, -44(%rbp)
	xorl	%ecx, %ecx
	cmpl	$1, -4(%r13)
	sete	%cl
	incq	%rcx
	movq	$4, -224(%rbp)
	leaq	-216(%rbp), %rdx
	movq	$0, 8(%rdx)
	movq	$0, (%rdx)
	movq	%rax, -200(%rbp)
	movb	$2, -188(%rbp)
Ltmp201:
	movq	%r13, %rdx
	leaq	-224(%rbp), %r8
	callq	__ZN93_$LT$cfg..binarized..BinarizedCfg$LT$H$GT$$u20$as$u20$cfg..rule..container..RuleContainer$GT$8add_rule17h18696b3a58a2cad9E
Ltmp202:
	movl	-4(%r13), %r8d
	movq	%r13, %rcx
	cmpl	$1, %r8d
	jne	LBB86_65
	jmp	LBB86_77
	.p2align	4, 0x90
LBB86_76:
	movq	-112(%rbp), %rax
	leaq	48(%rax), %rcx
	cmpl	$1, %r8d
	jne	LBB86_65
LBB86_77:
	testb	%r14b, %r14b
	je	LBB86_87
	movq	%r12, -248(%rbp)
	movq	%r15, -240(%rbp)
	movq	-32(%r13), %r15
	xorl	%r12d, %r12d
	movq	%r15, %rax
	movl	$20, %edx
	mulq	%rdx
	movq	%rax, %r14
	setno	%al
	jo	LBB86_188
	movl	4(%rcx), %ebx
	movl	(%r13), %ecx
	movl	%ecx, -344(%rbp)
	movq	-48(%r13), %rcx
	movq	%rcx, -416(%rbp)
	movb	%al, %r12b
	shlq	$2, %r12
	testq	%r14, %r14
	je	LBB86_81
	movq	%r14, %rdi
	movq	%r12, %rsi
	callq	___rust_alloc
	movq	%rax, %rcx
	testq	%rcx, %rcx
	jne	LBB86_82
	jmp	LBB86_182
LBB86_81:
	movq	%r12, %rcx
	testq	%rcx, %rcx
	je	LBB86_182
LBB86_82:
	movq	%rbx, %r12
	movq	%r14, %rax
	movabsq	$-3689348814741910323, %rdx
	mulq	%rdx
	shrq	$4, %rdx
	movq	%rcx, -96(%rbp)
	movq	%rdx, -88(%rbp)
	movq	$0, -80(%rbp)
Ltmp204:
	leaq	-96(%rbp), %rdi
	movq	%r15, %rsi
	callq	__ZN5alloc3vec12Vec$LT$T$GT$7reserve17hb597647698dfad3aE
Ltmp205:
	movq	-80(%rbp), %rbx
	leaq	(%rbx,%rbx,4), %rdi
	shlq	$2, %rdi
	addq	-96(%rbp), %rdi
	movq	-416(%rbp), %rsi
	movq	%r14, %rdx
	callq	_memcpy
	addq	%rbx, %r15
	movq	%r15, -80(%rbp)
	movl	-20(%r13), %eax
	xorl	%ecx, %ecx
	cmpl	$1, -24(%r13)
	sete	%cl
	movq	%r15, -208(%rbp)
	movq	-96(%rbp), %rdx
	movq	-88(%rbp), %rsi
	movq	%rsi, -216(%rbp)
	movq	%rdx, -224(%rbp)
	movl	-8(%r13), %edx
	movq	-208(%rbp), %rsi
	movq	%rsi, -80(%rbp)
	movq	-216(%rbp), %rsi
	movq	%rsi, -88(%rbp)
	movq	-224(%rbp), %rsi
	movq	%rsi, -96(%rbp)
	movl	%ecx, -72(%rbp)
	movl	%eax, -68(%rbp)
	movl	-344(%rbp), %eax
	movl	%eax, -64(%rbp)
	movb	$0, -60(%rbp)
	movzbl	-294(%rbp), %eax
	leaq	-59(%rbp), %rcx
	movb	%al, 2(%rcx)
	movzwl	-296(%rbp), %eax
	movw	%ax, (%rcx)
	movl	%edx, -56(%rbp)
	movl	$0, -52(%rbp)
	movq	%r12, -48(%rbp)
	movq	-240(%rbp), %r15
	cmpq	-128(%rbp), %r15
	movq	-248(%rbp), %r12
	jne	LBB86_86
Ltmp207:
	movl	$1, %esi
	leaq	-136(%rbp), %rdi
	callq	__ZN5alloc3vec12Vec$LT$T$GT$7reserve17h9b1a907604aeec6cE
Ltmp208:
	movq	-136(%rbp), %r12
	movq	-120(%rbp), %r15
LBB86_86:
	imulq	$56, %r15, %rax
	movq	-48(%rbp), %rcx
	movq	%rcx, 48(%r12,%rax)
	movq	-56(%rbp), %rcx
	movq	%rcx, 40(%r12,%rax)
	movq	-64(%rbp), %rcx
	movq	%rcx, 32(%r12,%rax)
	movq	-72(%rbp), %rcx
	movq	%rcx, 24(%r12,%rax)
	movq	-80(%rbp), %rcx
	movq	%rcx, 16(%r12,%rax)
	movq	-96(%rbp), %rcx
	movq	-88(%rbp), %rdx
	movq	%rdx, 8(%r12,%rax)
	movq	%rcx, (%r12,%rax)
	incq	%r15
	movq	%r15, -120(%rbp)
LBB86_87:
	cmpb	$0, -144(%rbp)
	je	LBB86_65
	movq	%r12, -248(%rbp)
	movq	%r15, -240(%rbp)
	cmpl	$1, -4(%r13)
	jne	LBB86_189
	movq	-32(%r13), %r15
	xorl	%r12d, %r12d
	movq	%r15, %rax
	movl	$20, %ecx
	mulq	%rcx
	movq	%rax, %r14
	setno	%al
	jo	LBB86_190
	movl	(%r13), %ebx
	movl	4(%r13), %ecx
	movl	%ecx, -144(%rbp)
	movq	-48(%r13), %rcx
	movq	%rcx, -344(%rbp)
	movb	%al, %r12b
	shlq	$2, %r12
	testq	%r14, %r14
	je	LBB86_92
	movq	%r14, %rdi
	movq	%r12, %rsi
	callq	___rust_alloc
	movq	%rax, %rcx
	testq	%rcx, %rcx
	jne	LBB86_93
	jmp	LBB86_182
LBB86_92:
	movq	%r12, %rcx
	testq	%rcx, %rcx
	je	LBB86_182
LBB86_93:
	movq	%rbx, %r12
	movq	%r14, %rax
	movabsq	$-3689348814741910323, %rdx
	mulq	%rdx
	shrq	$4, %rdx
	movq	%rcx, -96(%rbp)
	movq	%rdx, -88(%rbp)
	movq	$0, -80(%rbp)
Ltmp212:
	leaq	-96(%rbp), %rdi
	movq	%r15, %rsi
	callq	__ZN5alloc3vec12Vec$LT$T$GT$7reserve17hb597647698dfad3aE
Ltmp213:
	movq	-80(%rbp), %rbx
	leaq	(%rbx,%rbx,4), %rdi
	shlq	$2, %rdi
	addq	-96(%rbp), %rdi
	movq	-344(%rbp), %rsi
	movq	%r14, %rdx
	callq	_memcpy
	addq	%rbx, %r15
	movq	%r15, -80(%rbp)
	movl	-20(%r13), %eax
	xorl	%ecx, %ecx
	cmpl	$1, -24(%r13)
	sete	%cl
	movq	%r15, -208(%rbp)
	movq	-96(%rbp), %rdx
	movq	-88(%rbp), %rsi
	movq	%rsi, -216(%rbp)
	movq	%rdx, -224(%rbp)
	movl	-8(%r13), %edx
	movq	-208(%rbp), %rsi
	movq	%rsi, -80(%rbp)
	movq	-216(%rbp), %rsi
	movq	%rsi, -88(%rbp)
	movq	-224(%rbp), %rsi
	movq	%rsi, -96(%rbp)
	movl	%ecx, -72(%rbp)
	movl	%eax, -68(%rbp)
	movl	-144(%rbp), %eax
	movl	%eax, -64(%rbp)
	movb	$1, -60(%rbp)
	movzbl	-294(%rbp), %eax
	leaq	-59(%rbp), %rcx
	movb	%al, 2(%rcx)
	movzwl	-296(%rbp), %eax
	movw	%ax, (%rcx)
	movl	%edx, -56(%rbp)
	movl	$0, -52(%rbp)
	movq	%r12, -48(%rbp)
	movq	-240(%rbp), %r15
	cmpq	-128(%rbp), %r15
	movq	-248(%rbp), %r12
	jne	LBB86_64
Ltmp215:
	movl	$1, %esi
	leaq	-136(%rbp), %rdi
	callq	__ZN5alloc3vec12Vec$LT$T$GT$7reserve17h9b1a907604aeec6cE
Ltmp216:
	jmp	LBB86_63
LBB86_96:
	movq	-128(%rbp), %rax
	jmp	LBB86_98
LBB86_97:
	movl	$8, %r12d
	xorl	%r15d, %r15d
	xorl	%eax, %eax
LBB86_98:
	imulq	$56, %r15, %r14
	leaq	(%r12,%r14), %r13
	movq	%r12, -96(%rbp)
	movq	%rax, -112(%rbp)
	movq	%rax, -88(%rbp)
	movq	%r12, -80(%rbp)
	movq	%r13, -72(%rbp)
Ltmp223:
	movq	-232(%rbp), %rbx
	movq	%rbx, %rdi
	movq	%r15, %rsi
	callq	__ZN5alloc3vec12Vec$LT$T$GT$7reserve17h9b1a907604aeec6cE
Ltmp224:
	movq	%r12, %rsi
	movq	(%rbx), %rax
	movq	16(%rbx), %r12
	imulq	$56, %r12, %rdi
	movq	%rax, -144(%rbp)
	addq	%rax, %rdi
	movq	%rsi, -248(%rbp)
	movq	%r14, %rdx
	callq	_memcpy
	addq	%r12, %r15
	movq	%r15, 16(%rbx)
	movq	%r13, -80(%rbp)
	movq	-112(%rbp), %rax
	testq	%rax, %rax
	je	LBB86_102
	imulq	$56, %rax, %rsi
	testq	%rsi, %rsi
	je	LBB86_102
	movl	$8, %edx
	movq	-248(%rbp), %rdi
	callq	___rust_dealloc
LBB86_102:
	movq	-232(%rbp), %r11
	movq	24(%r11), %rbx
	movq	40(%r11), %rax
	imulq	$56, %r15, %r13
	movq	-144(%rbp), %r12
	addq	%r12, %r13
	leaq	-312(%rbp), %r8
	leaq	(%rax,%rax,4), %rax
	leaq	(%rbx,%rax,8), %rax
	xorl	%edx, %edx
	movq	%r12, %r9
	movq	-408(%rbp), %r14
	testq	%rbx, %rbx
	je	LBB86_107
	.p2align	4, 0x90
LBB86_103:
	cmpq	%rbx, %rax
	je	LBB86_107
	incq	%rdx
	je	LBB86_169
	cmpl	$2, 24(%rbx)
	leaq	40(%rbx), %rbx
	je	LBB86_103
	movl	%edx, %ecx
	decl	%ecx
	jmp	LBB86_110
LBB86_107:
	testq	%r9, %r9
	je	LBB86_113
	cmpq	%r9, %r13
	je	LBB86_113
	movl	40(%r9), %ecx
	addq	$56, %r9
	xorl	%ebx, %ebx
LBB86_110:
	movl	%ecx, %ecx
	movq	%rcx, -296(%rbp)
	cmpq	%rcx, -312(%rbp)
	jbe	LBB86_172
	movq	%rcx, %rdi
	shrq	$5, %rdi
	movq	-320(%rbp), %rsi
	cmpq	%rdi, %rsi
	jbe	LBB86_173
	movl	$1, %esi
	shll	%cl, %esi
	movq	-336(%rbp), %rcx
	orl	%esi, (%rcx,%rdi,4)
	testq	%rbx, %rbx
	jne	LBB86_103
	jmp	LBB86_107
LBB86_113:
	movq	-400(%rbp), %r10
	movq	-376(%rbp), %rdx
	movq	-360(%rbp), %rax
	imulq	$56, -384(%rbp), %r9
	addq	%r10, %r9
	leaq	(%rax,%rax,4), %rax
	leaq	(%rdx,%rax,8), %rax
	xorl	%ebx, %ebx
	testq	%rdx, %rdx
	je	LBB86_118
	.p2align	4, 0x90
LBB86_114:
	cmpq	%rdx, %rax
	je	LBB86_118
	incq	%rbx
	je	LBB86_170
	cmpl	$2, 24(%rdx)
	leaq	40(%rdx), %rdx
	je	LBB86_114
	movl	%ebx, %ecx
	decl	%ecx
	jmp	LBB86_121
LBB86_118:
	testq	%r10, %r10
	je	LBB86_124
	cmpq	%r10, %r9
	je	LBB86_124
	movl	40(%r10), %ecx
	addq	$56, %r10
	xorl	%edx, %edx
LBB86_121:
	movl	%ecx, %ecx
	movq	%rcx, -296(%rbp)
	cmpq	%rcx, -312(%rbp)
	jbe	LBB86_174
	movq	%rcx, %rdi
	shrq	$5, %rdi
	movq	-320(%rbp), %rsi
	cmpq	%rdi, %rsi
	jbe	LBB86_175
	movl	$-2, %esi
	roll	%cl, %esi
	movq	-336(%rbp), %rcx
	andl	%esi, (%rcx,%rdi,4)
	testq	%rdx, %rdx
	jne	LBB86_114
	jmp	LBB86_118
LBB86_124:
Ltmp238:
	leaq	-96(%rbp), %rdi
	movq	%r11, %rsi
	callq	__ZN3cfg8analysis11rhs_closure19RhsClosure$LT$R$GT$3new17h5422b493f52ad015E
Ltmp239:
Ltmp240:
	leaq	-96(%rbp), %rdi
	leaq	-336(%rbp), %rsi
	callq	__ZN3cfg8analysis11rhs_closure19RhsClosure$LT$R$GT$11rhs_closure17hd5356be2c90bb785E
Ltmp241:
	movq	%r13, -112(%rbp)
	movq	-88(%rbp), %rax
	testq	%rax, %rax
	je	LBB86_130
	movq	-96(%rbp), %rdi
	testq	%rdi, %rdi
	je	LBB86_130
	shlq	$3, %rax
	leaq	(%rax,%rax,4), %rsi
	testq	%rsi, %rsi
	je	LBB86_130
	movl	$8, %edx
	callq	___rust_dealloc
LBB86_130:
	movq	-64(%rbp), %rsi
	testq	%rsi, %rsi
	je	LBB86_134
	movq	-72(%rbp), %rdi
	testq	%rdi, %rdi
	je	LBB86_134
	shlq	$2, %rsi
	testq	%rsi, %rsi
	je	LBB86_134
	movl	$4, %edx
	callq	___rust_dealloc
LBB86_134:
	testq	%r15, %r15
	je	LBB86_152
	movq	-312(%rbp), %r9
	movq	-336(%rbp), %r10
	movq	%r12, %rbx
	movq	-320(%rbp), %r11
	xorl	%r12d, %r12d
	movq	__ZN7bit_vec5FALSE17h18985e08484fd77bE@GOTPCREL(%rip), %r14
	movq	__ZN7bit_vec4TRUE17hf399d28fd341ff7dE@GOTPCREL(%rip), %r13
	xorl	%ecx, %ecx
	movq	%r15, -240(%rbp)
	jmp	LBB86_138
	.p2align	4, 0x90
LBB86_136:
	incq	%r12
LBB86_137:
	incq	%rcx
	addq	$56, %rbx
	cmpq	%rcx, %r15
	je	LBB86_150
LBB86_138:
	movl	48(%rbx), %eax
	cmpq	%rax, %r9
	jbe	LBB86_177
	movq	%rax, %rdx
	shrq	$5, %rdx
	cmpq	%rdx, %r11
	jbe	LBB86_177
	movl	(%r10,%rdx,4), %edx
	btl	%eax, %edx
	movzbl	(%r14), %edx
	movzbl	(%r13), %esi
	movl	%esi, %edi
	cmovael	%edx, %edi
	cmpl	$1, 44(%rbx)
	jne	LBB86_144
	movl	52(%rbx), %r8d
	cmpq	%r8, %r9
	jbe	LBB86_181
	movq	%r8, %rax
	shrq	$5, %rax
	cmpq	%rax, %r11
	jbe	LBB86_181
	movl	(%r10,%rax,4), %eax
	btl	%r8d, %eax
	movzbl	%dl, %eax
	movzbl	%sil, %edx
	cmovael	%eax, %edx
	testb	%dl, %dl
	sete	%al
	testb	%dil, %dil
	jne	LBB86_145
	jmp	LBB86_136
	.p2align	4, 0x90
LBB86_144:
	xorl	%eax, %eax
	testb	%dil, %dil
	je	LBB86_136
LBB86_145:
	testb	%al, %al
	jne	LBB86_136
	testq	%r12, %r12
	je	LBB86_149
	movq	%rcx, %rdi
	subq	%r12, %rdi
	cmpq	%r15, %rdi
	jae	LBB86_187
	movq	%r11, %r13
	movq	%r9, %r11
	imulq	$-56, %r12, %rax
	movq	48(%rbx,%rax), %rdx
	movq	%rdx, -48(%rbp)
	movq	40(%rbx,%rax), %rdx
	movq	%rdx, -56(%rbp)
	movq	32(%rbx,%rax), %rdx
	movq	%rdx, -64(%rbp)
	movq	24(%rbx,%rax), %rdx
	movq	%rdx, -72(%rbp)
	movq	16(%rbx,%rax), %rdx
	movq	%rdx, -80(%rbp)
	movq	(%rbx,%rax), %rdx
	movq	8(%rbx,%rax), %rsi
	movq	%rsi, -88(%rbp)
	movq	%rdx, -96(%rbp)
	movq	48(%rbx), %r8
	movq	40(%rbx), %rsi
	movq	32(%rbx), %rdi
	movq	24(%rbx), %rdx
	movq	16(%rbx), %r9
	movq	(%rbx), %r14
	movq	8(%rbx), %r15
	movq	%r14, (%rbx,%rax)
	movq	%r15, 8(%rbx,%rax)
	movq	%r9, 16(%rbx,%rax)
	movq	%rdx, 24(%rbx,%rax)
	movq	%rdi, 32(%rbx,%rax)
	movq	%rsi, 40(%rbx,%rax)
	movq	%r8, 48(%rbx,%rax)
	movq	-48(%rbp), %rax
	movq	%rax, 48(%rbx)
	movq	-56(%rbp), %rax
	movq	%rax, 40(%rbx)
	movq	-64(%rbp), %rax
	movq	%rax, 32(%rbx)
	movq	-72(%rbp), %rax
	movq	%rax, 24(%rbx)
	movq	-80(%rbp), %rax
	movq	%rax, 16(%rbx)
	movq	-96(%rbp), %rax
	movq	-88(%rbp), %rdx
	movq	%rdx, 8(%rbx)
	movq	%rax, (%rbx)
	movq	-240(%rbp), %r15
	movq	%r11, %r9
	movq	%r13, %r11
	movq	__ZN7bit_vec5FALSE17h18985e08484fd77bE@GOTPCREL(%rip), %r14
	movq	__ZN7bit_vec4TRUE17hf399d28fd341ff7dE@GOTPCREL(%rip), %r13
	jmp	LBB86_137
LBB86_149:
	xorl	%r12d, %r12d
	jmp	LBB86_137
LBB86_150:
	testq	%r12, %r12
	movq	-408(%rbp), %r14
	movq	-144(%rbp), %rbx
	je	LBB86_152
	subq	%r12, %r15
	jae	LBB86_163
LBB86_152:
	movq	-328(%rbp), %rsi
	testq	%rsi, %rsi
	je	LBB86_156
	movq	-336(%rbp), %rdi
	testq	%rdi, %rdi
	je	LBB86_156
	shlq	$2, %rsi
	testq	%rsi, %rsi
	je	LBB86_156
	movl	$4, %edx
	callq	___rust_dealloc
LBB86_156:
	movq	-168(%rbp), %rsi
	testq	%rsi, %rsi
	je	LBB86_160
	movq	-176(%rbp), %rdi
	testq	%rdi, %rdi
	je	LBB86_160
	shlq	$2, %rsi
	testq	%rsi, %rsi
	je	LBB86_160
	movl	$4, %edx
	callq	___rust_dealloc
LBB86_160:
	movq	-232(%rbp), %rbx
LBB86_161:
	cmpl	$0, 56(%rbx)
	je	LBB86_191
	movl	60(%rbx), %eax
	movb	64(%rbx), %dl
	movq	-352(%rbp), %rcx
	movq	%rcx, -48(%rbp)
	movq	-360(%rbp), %rcx
	movq	%rcx, -56(%rbp)
	movq	-368(%rbp), %rcx
	movq	%rcx, -64(%rbp)
	movq	-376(%rbp), %rcx
	movq	%rcx, -72(%rbp)
	movq	-384(%rbp), %rcx
	movq	%rcx, -80(%rbp)
	movq	-400(%rbp), %rcx
	movq	-392(%rbp), %rsi
	movq	%rsi, -88(%rbp)
	movq	%rcx, -96(%rbp)
	movl	$9, %ecx
	movq	%r14, %rdi
	movq	%rbx, %rsi
	rep;movsq (%rsi), %es:(%rdi)
	movq	-48(%rbp), %rcx
	movq	%rcx, 120(%r14)
	movq	-56(%rbp), %rcx
	movq	%rcx, 112(%r14)
	movq	-64(%rbp), %rcx
	movq	%rcx, 104(%r14)
	movq	-72(%rbp), %rcx
	movq	%rcx, 96(%r14)
	movq	-80(%rbp), %rcx
	movq	%rcx, 88(%r14)
	movq	-96(%rbp), %rcx
	movq	-88(%rbp), %rsi
	movq	%rsi, 80(%r14)
	movq	%rcx, 72(%r14)
	movl	$1, 128(%r14)
	movl	%eax, 132(%r14)
	movb	%dl, 136(%r14)
	movl	-400(%rbp), %eax
	movl	-397(%rbp), %ecx
	movl	%eax, 137(%r14)
	movl	%ecx, 140(%r14)
	movq	%r14, %rax
	addq	$392, %rsp
	popq	%rbx
	popq	%r12
	popq	%r13
	popq	%r14
	popq	%r15
	popq	%rbp
	retq
LBB86_163:
	movq	-232(%rbp), %rax
	movq	%r15, 16(%rax)
	imulq	$56, %r15, %rax
	addq	%rax, %rbx
	jmp	LBB86_165
	.p2align	4, 0x90
LBB86_164:
	addq	$56, %rbx
	cmpq	-112(%rbp), %rbx
	je	LBB86_152
LBB86_165:
	movq	8(%rbx), %rax
	testq	%rax, %rax
	je	LBB86_164
	movq	(%rbx), %rdi
	testq	%rdi, %rdi
	je	LBB86_164
	shlq	$2, %rax
	leaq	(%rax,%rax,4), %rsi
	testq	%rsi, %rsi
	je	LBB86_164
	movl	$4, %edx
	callq	___rust_dealloc
	jmp	LBB86_164
LBB86_169:
Ltmp226:
	leaq	_str.1(%rip), %rdi
	leaq	l___unnamed_46(%rip), %rdx
	movl	$28, %esi
	callq	__ZN4core9panicking5panic17h383a6b80ea7021aaE
Ltmp227:
	jmp	LBB86_171
LBB86_170:
Ltmp232:
	leaq	_str.1(%rip), %rdi
	leaq	l___unnamed_46(%rip), %rdx
	movl	$28, %esi
	callq	__ZN4core9panicking5panic17h383a6b80ea7021aaE
Ltmp233:
LBB86_171:
	ud2
LBB86_172:
	leaq	-296(%rbp), %rax
	movq	%rax, -224(%rbp)
	leaq	__ZN4core3fmt3num52_$LT$impl$u20$core..fmt..Debug$u20$for$u20$usize$GT$3fmt17h3ce1e8eb3a3c5c0bE(%rip), %rax
	movq	%rax, -216(%rbp)
	movq	%r8, -208(%rbp)
	movq	%rax, -200(%rbp)
	leaq	l___unnamed_66(%rip), %rax
	movq	%rax, -96(%rbp)
	movq	$2, -88(%rbp)
	movq	$0, -80(%rbp)
	leaq	-224(%rbp), %rax
	movq	%rax, -64(%rbp)
	movq	$2, -56(%rbp)
Ltmp228:
	leaq	l___unnamed_67(%rip), %rsi
	leaq	-96(%rbp), %rdi
	callq	__ZN3std9panicking15begin_panic_fmt17h8712912d987f10a1E
Ltmp229:
	jmp	LBB86_171
LBB86_173:
Ltmp230:
	leaq	l___unnamed_68(%rip), %rdx
	callq	__ZN4core9panicking18panic_bounds_check17he87128426d100e93E
Ltmp231:
	jmp	LBB86_171
LBB86_174:
	leaq	-296(%rbp), %rax
	movq	%rax, -224(%rbp)
	leaq	__ZN4core3fmt3num52_$LT$impl$u20$core..fmt..Debug$u20$for$u20$usize$GT$3fmt17h3ce1e8eb3a3c5c0bE(%rip), %rax
	movq	%rax, -216(%rbp)
	movq	%r8, -208(%rbp)
	movq	%rax, -200(%rbp)
	leaq	l___unnamed_66(%rip), %rax
	movq	%rax, -96(%rbp)
	movq	$2, -88(%rbp)
	movq	$0, -80(%rbp)
	leaq	-224(%rbp), %rax
	movq	%rax, -64(%rbp)
	movq	$2, -56(%rbp)
Ltmp234:
	leaq	l___unnamed_67(%rip), %rsi
	leaq	-96(%rbp), %rdi
	callq	__ZN3std9panicking15begin_panic_fmt17h8712912d987f10a1E
Ltmp235:
	jmp	LBB86_171
LBB86_175:
Ltmp236:
	leaq	l___unnamed_70(%rip), %rdx
	callq	__ZN4core9panicking18panic_bounds_check17he87128426d100e93E
Ltmp237:
	jmp	LBB86_171
LBB86_176:
Ltmp197:
	leaq	l___unnamed_54(%rip), %rdi
	leaq	l___unnamed_75(%rip), %rdx
	movl	$19, %esi
	callq	__ZN4core6option13expect_failed17h7591ba70e88f159aE
Ltmp198:
	jmp	LBB86_171
LBB86_177:
Ltmp243:
	leaq	l___unnamed_54(%rip), %rdi
	leaq	l___unnamed_76(%rip), %rdx
	movl	$19, %esi
	callq	__ZN4core6option13expect_failed17h7591ba70e88f159aE
Ltmp244:
	jmp	LBB86_171
LBB86_178:
	leaq	-336(%rbp), %rax
	movq	%rax, -224(%rbp)
	leaq	__ZN4core3fmt3num52_$LT$impl$u20$core..fmt..Debug$u20$for$u20$usize$GT$3fmt17h3ce1e8eb3a3c5c0bE(%rip), %rax
	movq	%rax, -216(%rbp)
	leaq	-152(%rbp), %rcx
	movq	%rcx, -208(%rbp)
	movq	%rax, -200(%rbp)
	leaq	l___unnamed_66(%rip), %rax
	movq	%rax, -96(%rbp)
	movq	$2, -88(%rbp)
	movq	$0, -80(%rbp)
	leaq	-224(%rbp), %rax
	movq	%rax, -64(%rbp)
	movq	$2, -56(%rbp)
Ltmp179:
	leaq	l___unnamed_67(%rip), %rsi
	leaq	-96(%rbp), %rdi
	callq	__ZN3std9panicking15begin_panic_fmt17h8712912d987f10a1E
Ltmp180:
	jmp	LBB86_171
LBB86_179:
Ltmp185:
	leaq	l___unnamed_77(%rip), %rdi
	leaq	l___unnamed_78(%rip), %rdx
	movl	$17, %esi
	callq	__ZN4core6option13expect_failed17h7591ba70e88f159aE
Ltmp186:
	jmp	LBB86_171
LBB86_180:
Ltmp199:
	leaq	l___unnamed_54(%rip), %rdi
	leaq	l___unnamed_79(%rip), %rdx
	movl	$19, %esi
	callq	__ZN4core6option13expect_failed17h7591ba70e88f159aE
Ltmp200:
	jmp	LBB86_171
LBB86_181:
Ltmp245:
	leaq	l___unnamed_54(%rip), %rdi
	leaq	l___unnamed_80(%rip), %rdx
	movl	$19, %esi
	callq	__ZN4core6option13expect_failed17h7591ba70e88f159aE
Ltmp246:
	jmp	LBB86_171
LBB86_182:
	movq	%r14, %rdi
	movq	%r12, %rsi
	callq	__ZN5alloc5alloc18handle_alloc_error17h28974197717b8939E
LBB86_183:
Ltmp170:
	callq	__ZN5alloc7raw_vec17capacity_overflow17h7526b10e27579d59E
Ltmp171:
	jmp	LBB86_171
LBB86_185:
Ltmp181:
	leaq	l___unnamed_68(%rip), %rdx
	callq	__ZN4core9panicking18panic_bounds_check17he87128426d100e93E
Ltmp182:
	jmp	LBB86_171
LBB86_186:
Ltmp183:
	leaq	l___unnamed_70(%rip), %rdx
	callq	__ZN4core9panicking18panic_bounds_check17he87128426d100e93E
Ltmp184:
	jmp	LBB86_171
LBB86_187:
Ltmp247:
	leaq	l___unnamed_73(%rip), %rdx
	movq	-240(%rbp), %rsi
	callq	__ZN4core9panicking18panic_bounds_check17he87128426d100e93E
Ltmp248:
	jmp	LBB86_171
LBB86_188:
Ltmp220:
	callq	__ZN5alloc7raw_vec17capacity_overflow17h7526b10e27579d59E
Ltmp221:
	jmp	LBB86_171
LBB86_189:
Ltmp210:
	leaq	l___unnamed_81(%rip), %rdx
	movl	$1, %edi
	movl	$1, %esi
	callq	__ZN4core9panicking18panic_bounds_check17he87128426d100e93E
Ltmp211:
	jmp	LBB86_171
LBB86_190:
Ltmp218:
	callq	__ZN5alloc7raw_vec17capacity_overflow17h7526b10e27579d59E
Ltmp219:
	jmp	LBB86_171
LBB86_191:
Ltmp253:
	leaq	l___unnamed_39(%rip), %rdi
	leaq	l___unnamed_63(%rip), %rdx
	movl	$43, %esi
	callq	__ZN4core9panicking5panic17h383a6b80ea7021aaE
Ltmp254:
	jmp	LBB86_171
LBB86_192:
Ltmp250:
	leaq	_str.2(%rip), %rdi
	leaq	l___unnamed_82(%rip), %rdx
	movl	$33, %esi
	callq	__ZN4core9panicking5panic17h383a6b80ea7021aaE
Ltmp251:
	jmp	LBB86_171
LBB86_193:
Ltmp252:
	movq	%rax, %rbx
	jmp	LBB86_219
LBB86_194:
Ltmp255:
	movq	%rax, %rbx
	jmp	LBB86_222
LBB86_195:
Ltmp172:
	movq	%rax, %rbx
	jmp	LBB86_218
LBB86_196:
Ltmp187:
	jmp	LBB86_210
LBB86_197:
Ltmp222:
	movq	%rax, %rbx
	jmp	LBB86_215
LBB86_198:
Ltmp175:
	jmp	LBB86_210
LBB86_199:
Ltmp242:
	jmp	LBB86_203
LBB86_200:
Ltmp249:
	movq	%rax, %rbx
	jmp	LBB86_216
LBB86_201:
Ltmp225:
	movq	%rax, %rbx
	leaq	-96(%rbp), %rdi
	callq	__ZN4core3ptr13drop_in_place17h272fc69b4a73c685E
	jmp	LBB86_216
LBB86_202:
Ltmp196:
LBB86_203:
	movq	%rax, %rbx
	leaq	-96(%rbp), %rdi
	callq	__ZN4core3ptr13drop_in_place17hbf5dec43261dbbc4E
	jmp	LBB86_216
LBB86_204:
Ltmp193:
	movq	%rax, %rbx
	jmp	LBB86_216
LBB86_205:
Ltmp190:
	jmp	LBB86_210
LBB86_206:
Ltmp166:
	movq	%rax, %rbx
	leaq	-224(%rbp), %rdi
	jmp	LBB86_220
LBB86_207:
Ltmp217:
	jmp	LBB86_213
LBB86_208:
Ltmp209:
	jmp	LBB86_213
LBB86_209:
Ltmp178:
LBB86_210:
	movq	%rax, %rbx
	leaq	-176(%rbp), %rdi
	callq	__ZN4core3ptr13drop_in_place17h3938456cc78f2ad3E
	jmp	LBB86_221
LBB86_211:
Ltmp214:
	jmp	LBB86_213
LBB86_212:
Ltmp206:
LBB86_213:
	movq	%rax, %rbx
	leaq	-96(%rbp), %rdi
	callq	__ZN4core3ptr13drop_in_place17hbe515da7fd331121E
	jmp	LBB86_215
LBB86_214:
Ltmp203:
	movq	%rax, %rbx
	leaq	-96(%rbp), %rdi
	callq	__ZN4core3ptr13drop_in_place17h1652717714353e42E
LBB86_215:
	leaq	-136(%rbp), %rdi
	callq	__ZN4core3ptr13drop_in_place17h68c933fb7552fd9cE
LBB86_216:
	leaq	-336(%rbp), %rdi
	callq	__ZN4core3ptr13drop_in_place17h3938456cc78f2ad3E
	leaq	-176(%rbp), %rdi
	callq	__ZN4core3ptr13drop_in_place17h3938456cc78f2ad3E
	jmp	LBB86_222
LBB86_217:
Ltmp169:
	movq	%rax, %rbx
	leaq	-136(%rbp), %rdi
	callq	__ZN4core3ptr13drop_in_place17hbe515da7fd331121E
LBB86_218:
	movq	%r12, -168(%rbp)
	movq	-112(%rbp), %rax
	movq	%rax, -152(%rbp)
	leaq	-176(%rbp), %rdi
	callq	__ZN4core3ptr13drop_in_place17h805d37f3ad8388a2E
LBB86_219:
	leaq	-96(%rbp), %rdi
LBB86_220:
	callq	__ZN4core3ptr13drop_in_place17h1652717714353e42E
LBB86_221:
	leaq	-272(%rbp), %rdi
	callq	__ZN4core3ptr13drop_in_place17h591842237918670eE
LBB86_222:
	leaq	-400(%rbp), %rdi
	callq	__ZN4core3ptr13drop_in_place17h148fc1b0e0e00dcbE
	movq	-232(%rbp), %rdi
	callq	__ZN4core3ptr13drop_in_place17h3cbbbfaeeca2c8baE
	movq	%rbx, %rdi
	callq	__Unwind_Resume
	ud2
Lfunc_end6:
	.cfi_endproc
	.section	__TEXT,__gcc_except_tab
	.p2align	2
GCC_except_table86:
Lexception6:
	.byte	255
	.byte	255
	.byte	1
	.uleb128 Lcst_end6-Lcst_begin6
Lcst_begin6:
	.uleb128 Ltmp164-Lfunc_begin6
	.uleb128 Ltmp165-Ltmp164
	.uleb128 Ltmp166-Lfunc_begin6
	.byte	0
	.uleb128 Ltmp167-Lfunc_begin6
	.uleb128 Ltmp168-Ltmp167
	.uleb128 Ltmp169-Lfunc_begin6
	.byte	0
	.uleb128 Ltmp168-Lfunc_begin6
	.uleb128 Ltmp173-Ltmp168
	.byte	0
	.byte	0
	.uleb128 Ltmp173-Lfunc_begin6
	.uleb128 Ltmp174-Ltmp173
	.uleb128 Ltmp175-Lfunc_begin6
	.byte	0
	.uleb128 Ltmp176-Lfunc_begin6
	.uleb128 Ltmp177-Ltmp176
	.uleb128 Ltmp178-Lfunc_begin6
	.byte	0
	.uleb128 Ltmp188-Lfunc_begin6
	.uleb128 Ltmp189-Ltmp188
	.uleb128 Ltmp190-Lfunc_begin6
	.byte	0
	.uleb128 Ltmp191-Lfunc_begin6
	.uleb128 Ltmp192-Ltmp191
	.uleb128 Ltmp193-Lfunc_begin6
	.byte	0
	.uleb128 Ltmp194-Lfunc_begin6
	.uleb128 Ltmp195-Ltmp194
	.uleb128 Ltmp196-Lfunc_begin6
	.byte	0
	.uleb128 Ltmp201-Lfunc_begin6
	.uleb128 Ltmp202-Ltmp201
	.uleb128 Ltmp203-Lfunc_begin6
	.byte	0
	.uleb128 Ltmp204-Lfunc_begin6
	.uleb128 Ltmp205-Ltmp204
	.uleb128 Ltmp206-Lfunc_begin6
	.byte	0
	.uleb128 Ltmp205-Lfunc_begin6
	.uleb128 Ltmp207-Ltmp205
	.byte	0
	.byte	0
	.uleb128 Ltmp207-Lfunc_begin6
	.uleb128 Ltmp208-Ltmp207
	.uleb128 Ltmp209-Lfunc_begin6
	.byte	0
	.uleb128 Ltmp212-Lfunc_begin6
	.uleb128 Ltmp213-Ltmp212
	.uleb128 Ltmp214-Lfunc_begin6
	.byte	0
	.uleb128 Ltmp213-Lfunc_begin6
	.uleb128 Ltmp215-Ltmp213
	.byte	0
	.byte	0
	.uleb128 Ltmp215-Lfunc_begin6
	.uleb128 Ltmp216-Ltmp215
	.uleb128 Ltmp217-Lfunc_begin6
	.byte	0
	.uleb128 Ltmp223-Lfunc_begin6
	.uleb128 Ltmp224-Ltmp223
	.uleb128 Ltmp225-Lfunc_begin6
	.byte	0
	.uleb128 Ltmp224-Lfunc_begin6
	.uleb128 Ltmp238-Ltmp224
	.byte	0
	.byte	0
	.uleb128 Ltmp238-Lfunc_begin6
	.uleb128 Ltmp239-Ltmp238
	.uleb128 Ltmp249-Lfunc_begin6
	.byte	0
	.uleb128 Ltmp240-Lfunc_begin6
	.uleb128 Ltmp241-Ltmp240
	.uleb128 Ltmp242-Lfunc_begin6
	.byte	0
	.uleb128 Ltmp226-Lfunc_begin6
	.uleb128 Ltmp237-Ltmp226
	.uleb128 Ltmp249-Lfunc_begin6
	.byte	0
	.uleb128 Ltmp197-Lfunc_begin6
	.uleb128 Ltmp198-Ltmp197
	.uleb128 Ltmp222-Lfunc_begin6
	.byte	0
	.uleb128 Ltmp243-Lfunc_begin6
	.uleb128 Ltmp244-Ltmp243
	.uleb128 Ltmp249-Lfunc_begin6
	.byte	0
	.uleb128 Ltmp179-Lfunc_begin6
	.uleb128 Ltmp186-Ltmp179
	.uleb128 Ltmp187-Lfunc_begin6
	.byte	0
	.uleb128 Ltmp199-Lfunc_begin6
	.uleb128 Ltmp200-Ltmp199
	.uleb128 Ltmp222-Lfunc_begin6
	.byte	0
	.uleb128 Ltmp245-Lfunc_begin6
	.uleb128 Ltmp246-Ltmp245
	.uleb128 Ltmp249-Lfunc_begin6
	.byte	0
	.uleb128 Ltmp170-Lfunc_begin6
	.uleb128 Ltmp171-Ltmp170
	.uleb128 Ltmp172-Lfunc_begin6
	.byte	0
	.uleb128 Ltmp181-Lfunc_begin6
	.uleb128 Ltmp184-Ltmp181
	.uleb128 Ltmp187-Lfunc_begin6
	.byte	0
	.uleb128 Ltmp247-Lfunc_begin6
	.uleb128 Ltmp248-Ltmp247
	.uleb128 Ltmp249-Lfunc_begin6
	.byte	0
	.uleb128 Ltmp220-Lfunc_begin6
	.uleb128 Ltmp219-Ltmp220
	.uleb128 Ltmp222-Lfunc_begin6
	.byte	0
	.uleb128 Ltmp253-Lfunc_begin6
	.uleb128 Ltmp254-Ltmp253
	.uleb128 Ltmp255-Lfunc_begin6
	.byte	0
	.uleb128 Ltmp250-Lfunc_begin6
	.uleb128 Ltmp251-Ltmp250
	.uleb128 Ltmp252-Lfunc_begin6
	.byte	0
	.uleb128 Ltmp251-Lfunc_begin6
	.uleb128 Lfunc_end6-Ltmp251
	.byte	0
	.byte	0
Lcst_end6:
	.p2align	2

	.section	__TEXT,__literal16,16byte_literals
	.p2align	4
LCPI87_0:
	.long	0
	.long	1
	.long	2
	.long	3
LCPI87_1:
	.long	4
	.long	4
	.long	4
	.long	4
LCPI87_2:
	.long	8
	.long	8
	.long	8
	.long	8
LCPI87_3:
	.long	12
	.long	12
	.long	12
	.long	12
LCPI87_4:
	.long	16
	.long	16
	.long	16
	.long	16
LCPI87_5:
	.long	20
	.long	20
	.long	20
	.long	20
LCPI87_6:
	.long	24
	.long	24
	.long	24
	.long	24
LCPI87_7:
	.long	28
	.long	28
	.long	28
	.long	28
LCPI87_8:
	.long	32
	.long	32
	.long	32
	.long	32
	.section	__TEXT,__text,regular,pure_instructions
	.globl	__ZN3cfg6earley17binarized_grammar16BinarizedGrammar13remap_symbols17ha5f354ffa5fde8c3E
	.p2align	4, 0x90
__ZN3cfg6earley17binarized_grammar16BinarizedGrammar13remap_symbols17ha5f354ffa5fde8c3E:
Lfunc_begin7:
	.cfi_startproc
	.cfi_personality 155, _rust_eh_personality
	.cfi_lsda 16, Lexception7
	pushq	%rbp
	.cfi_def_cfa_offset 16
	.cfi_offset %rbp, -16
	movq	%rsp, %rbp
	.cfi_def_cfa_register %rbp
	pushq	%r15
	pushq	%r14
	pushq	%r13
	pushq	%r12
	pushq	%rbx
	subq	$584, %rsp
	.cfi_offset %rbx, -56
	.cfi_offset %r12, -48
	.cfi_offset %r13, -40
	.cfi_offset %r14, -32
	.cfi_offset %r15, -24
	movq	%rsi, %rbx
	movq	%rdi, %r15
	movl	48(%rsi), %edx
Ltmp256:
	leaq	-544(%rbp), %rdi
	movq	%rdx, %rsi
	movq	%rbx, -392(%rbp)
	callq	__ZN10bit_matrix6matrix9BitMatrix3new17h7818991880e828b6E
Ltmp257:
	movq	(%rbx), %r14
	movq	24(%rbx), %rax
	movq	40(%rbx), %rcx
	imulq	$56, 16(%rbx), %r9
	addq	%r14, %r9
	leaq	-520(%rbp), %r8
	leaq	(%rcx,%rcx,4), %rcx
	leaq	(%rax,%rcx,8), %r10
	xorl	%ebx, %ebx
	movq	$-1, %r11
	jmp	LBB87_3
	.p2align	4, 0x90
LBB87_2:
	movl	$1, %edx
	movl	%eax, %ecx
	shll	%cl, %edx
	movq	-544(%rbp), %rax
	orl	%edx, (%rax,%rdi,4)
	xorl	%eax, %eax
LBB87_3:
	movq	%r14, %rdx
LBB87_4:
	testq	%rax, %rax
	je	LBB87_8
	.p2align	4, 0x90
LBB87_5:
	cmpq	%rax, %r10
	je	LBB87_8
	incq	%rbx
	je	LBB87_347
	cmpl	$2, 24(%rax)
	leaq	40(%rax), %rax
	je	LBB87_5
	jmp	LBB87_4
	.p2align	4, 0x90
LBB87_8:
	cmpq	%rdx, %r9
	je	LBB87_23
	leaq	56(%rdx), %r14
	cmpl	$1, 44(%rdx)
	movl	$0, %eax
	je	LBB87_3
	movl	40(%rdx), %ecx
	movl	48(%rdx), %esi
	xorl	%edx, %edx
	cmpl	%esi, %ecx
	setne	%dl
	cmovbq	%r11, %rdx
	cmpq	$-1, %rdx
	je	LBB87_17
	movl	$0, %eax
	testq	%rdx, %rdx
	je	LBB87_3
	movq	-512(%rbp), %rdi
	addq	$32, %rdi
	jb	LBB87_369
	decq	%rdi
	andq	$-32, %rdi
	movq	%rsi, %rax
	mulq	%rdi
	jo	LBB87_370
	addq	%rcx, %rax
	jb	LBB87_371
	movq	%rax, -480(%rbp)
	cmpq	%rax, -520(%rbp)
	jbe	LBB87_372
	movq	%rax, %rdi
	shrq	$5, %rdi
	movq	-528(%rbp), %rsi
	cmpq	%rdi, %rsi
	ja	LBB87_2
	jmp	LBB87_373
LBB87_17:
	movq	-512(%rbp), %rdi
	addq	$32, %rdi
	jb	LBB87_375
	decq	%rdi
	andq	$-32, %rdi
	movq	%rcx, %rax
	mulq	%rdi
	jo	LBB87_376
	addq	%rsi, %rax
	jb	LBB87_377
	movq	%rax, -480(%rbp)
	cmpq	%rax, -520(%rbp)
	jbe	LBB87_374
	movq	%rax, %rdi
	shrq	$5, %rdi
	movq	-528(%rbp), %rsi
	cmpq	%rdi, %rsi
	ja	LBB87_2
Ltmp273:
	leaq	l___unnamed_68(%rip), %rdx
	callq	__ZN4core9panicking18panic_bounds_check17he87128426d100e93E
Ltmp274:
	jmp	LBB87_350
LBB87_23:
Ltmp281:
	leaq	-544(%rbp), %rdi
	callq	__ZN10bit_matrix6matrix9BitMatrix18transitive_closure17h2121b793353cfa34E
Ltmp282:
	movq	-392(%rbp), %rax
	movl	48(%rax), %r14d
	movq	$4, -480(%rbp)
	movq	$0, -472(%rbp)
	movq	$0, -464(%rbp)
Ltmp284:
	leaq	-480(%rbp), %rdi
	movq	%r14, %rsi
	callq	__ZN5alloc3vec12Vec$LT$T$GT$7reserve17h26830c7a45b0054aE
Ltmp285:
	movq	-464(%rbp), %rax
	testl	%r14d, %r14d
	je	LBB87_34
	leaq	(,%rax,8), %rcx
	addq	-480(%rbp), %rcx
	leaq	-1(%r14), %rdx
	movl	%r14d, %r8d
	andl	$7, %r8d
	cmpq	$7, %rdx
	jae	LBB87_28
	xorl	%edi, %edi
	testq	%r8, %r8
	jne	LBB87_31
	jmp	LBB87_33
LBB87_28:
	movq	%r14, %rsi
	subq	%r8, %rsi
	xorl	%ebx, %ebx
	xorl	%edi, %edi
	.p2align	4, 0x90
LBB87_29:
	movl	$1, (%rcx,%rdi,8)
	movl	%edi, 4(%rcx,%rdi,8)
	leal	1(%rdi), %edx
	movl	$1, 8(%rcx,%rdi,8)
	movl	%edx, 12(%rcx,%rdi,8)
	leal	2(%rdi), %edx
	movl	$1, 16(%rcx,%rdi,8)
	movl	%edx, 20(%rcx,%rdi,8)
	leal	3(%rdi), %edx
	movl	$1, 24(%rcx,%rdi,8)
	movl	%edx, 28(%rcx,%rdi,8)
	leal	4(%rdi), %edx
	movl	$1, 32(%rcx,%rdi,8)
	movl	%edx, 36(%rcx,%rdi,8)
	leal	5(%rdi), %edx
	movl	$1, 40(%rcx,%rdi,8)
	movl	%edx, 44(%rcx,%rdi,8)
	leal	6(%rdi), %edx
	movl	$1, 48(%rcx,%rdi,8)
	movl	%edx, 52(%rcx,%rdi,8)
	leal	7(%rdi), %edx
	movl	$1, 56(%rcx,%rdi,8)
	movl	%edx, 60(%rcx,%rdi,8)
	addq	$8, %rdi
	addq	$-64, %rbx
	cmpq	%rdi, %rsi
	jne	LBB87_29
	subq	%rbx, %rcx
	testq	%r8, %r8
	je	LBB87_33
LBB87_31:
	xorl	%edx, %edx
	.p2align	4, 0x90
LBB87_32:
	leal	(%rdi,%rdx), %esi
	movl	$1, (%rcx,%rdx,8)
	movl	%esi, 4(%rcx,%rdx,8)
	incq	%rdx
	cmpq	%rdx, %r8
	jne	LBB87_32
LBB87_33:
	addq	%r14, %rax
LBB87_34:
	movq	%rax, -464(%rbp)
	movq	$4, -360(%rbp)
	movq	$0, -352(%rbp)
	movq	$0, -344(%rbp)
Ltmp287:
	leaq	-360(%rbp), %rdi
	movq	%r14, %rsi
	callq	__ZN5alloc3vec12Vec$LT$T$GT$7reserve17h646b1e4bc926caa2E
Ltmp288:
	movq	-344(%rbp), %r9
	testl	%r14d, %r14d
	movq	%r15, -552(%rbp)
	je	LBB87_49
	movq	-360(%rbp), %r8
	leaq	(%r8,%r9,4), %rcx
	cmpl	$8, %r14d
	jae	LBB87_38
	xorl	%esi, %esi
	jmp	LBB87_47
LBB87_38:
	movl	%r14d, %esi
	andl	$-8, %esi
	leaq	-8(%rsi), %rax
	movq	%rax, %rdi
	shrq	$3, %rdi
	incq	%rdi
	movl	%edi, %ebx
	andl	$3, %ebx
	cmpq	$24, %rax
	jae	LBB87_40
	movdqa	LCPI87_0(%rip), %xmm0
	xorl	%edi, %edi
	jmp	LBB87_42
LBB87_40:
	leaq	112(%r8,%r9,4), %rax
	movq	%rbx, %rdx
	subq	%rdi, %rdx
	movdqa	LCPI87_0(%rip), %xmm0
	xorl	%edi, %edi
	movdqa	LCPI87_1(%rip), %xmm8
	movdqa	LCPI87_2(%rip), %xmm9
	movdqa	LCPI87_3(%rip), %xmm10
	movdqa	LCPI87_4(%rip), %xmm4
	movdqa	LCPI87_5(%rip), %xmm5
	movdqa	LCPI87_6(%rip), %xmm6
	movdqa	LCPI87_7(%rip), %xmm7
	movdqa	LCPI87_8(%rip), %xmm1
	.p2align	4, 0x90
LBB87_41:
	movdqa	%xmm0, %xmm2
	paddd	%xmm8, %xmm2
	movdqu	%xmm0, -112(%rax,%rdi,4)
	movdqu	%xmm2, -96(%rax,%rdi,4)
	movdqa	%xmm0, %xmm2
	paddd	%xmm9, %xmm2
	movdqa	%xmm0, %xmm3
	paddd	%xmm10, %xmm3
	movdqu	%xmm2, -80(%rax,%rdi,4)
	movdqu	%xmm3, -64(%rax,%rdi,4)
	movdqa	%xmm0, %xmm2
	paddd	%xmm4, %xmm2
	movdqa	%xmm0, %xmm3
	paddd	%xmm5, %xmm3
	movdqu	%xmm2, -48(%rax,%rdi,4)
	movdqu	%xmm3, -32(%rax,%rdi,4)
	movdqa	%xmm0, %xmm2
	paddd	%xmm6, %xmm2
	movdqa	%xmm0, %xmm3
	paddd	%xmm7, %xmm3
	movdqu	%xmm2, -16(%rax,%rdi,4)
	movdqu	%xmm3, (%rax,%rdi,4)
	addq	$32, %rdi
	paddd	%xmm1, %xmm0
	addq	$4, %rdx
	jne	LBB87_41
LBB87_42:
	testq	%rbx, %rbx
	je	LBB87_45
	addq	%r9, %rdi
	leaq	16(%r8,%rdi,4), %rax
	negq	%rbx
	movdqa	LCPI87_1(%rip), %xmm1
	movdqa	LCPI87_2(%rip), %xmm2
	.p2align	4, 0x90
LBB87_44:
	movdqa	%xmm0, %xmm3
	paddd	%xmm1, %xmm3
	movdqu	%xmm0, -16(%rax)
	movdqu	%xmm3, (%rax)
	paddd	%xmm2, %xmm0
	addq	$32, %rax
	incq	%rbx
	jne	LBB87_44
LBB87_45:
	cmpq	%r14, %rsi
	je	LBB87_48
	leaq	(%rcx,%rsi,4), %rcx
	.p2align	4, 0x90
LBB87_47:
	movl	%esi, (%rcx)
	leaq	1(%rsi), %rax
	addq	$4, %rcx
	movq	%rax, %rsi
	cmpq	%rax, %r14
	jne	LBB87_47
LBB87_48:
	addq	%r14, %r9
LBB87_49:
	movq	-480(%rbp), %rax
	movq	-472(%rbp), %rcx
	movq	%rax, -136(%rbp)
	movq	%rcx, -128(%rbp)
	movq	-464(%rbp), %rdx
	movq	%rdx, -120(%rbp)
	movq	-360(%rbp), %rsi
	movq	-352(%rbp), %rdi
	movq	%rdi, -104(%rbp)
	movq	-392(%rbp), %rbx
	movq	%rbx, -480(%rbp)
	movq	%rax, -472(%rbp)
	movq	%rcx, -464(%rbp)
	movq	%rdx, -456(%rbp)
	movq	%rsi, -448(%rbp)
	movq	%rdi, -440(%rbp)
	movq	%r9, -432(%rbp)
	movl	48(%rbx), %esi
Ltmp290:
	leaq	-360(%rbp), %r12
	movq	%r12, %rdi
	callq	__ZN3cfg5remap7Mapping3new17h3ca8efa5e0bf86eeE
Ltmp291:
	movl	$0, -312(%rbp)
	movq	%r12, -240(%rbp)
	movq	$8, -424(%rbp)
	movq	$0, -416(%rbp)
	movq	$0, -408(%rbp)
	movq	-480(%rbp), %rcx
	movq	16(%rcx), %rax
	movq	%rax, -296(%rbp)
	testq	%rax, %rax
	je	LBB87_80
	movq	%rcx, -488(%rbp)
	movq	(%rcx), %rax
	movq	%rax, -48(%rbp)
	leaq	48(%rax), %r14
	xorl	%eax, %eax
	movq	%rax, -64(%rbp)
	xorl	%ebx, %ebx
	.p2align	4, 0x90
LBB87_52:
	movq	%rbx, -144(%rbp)
	imulq	$56, %rbx, %rcx
	movq	-48(%rbp), %rax
	movl	40(%rax,%rcx), %ebx
	xorl	%r15d, %r15d
	movq	%rcx, -56(%rbp)
	cmpl	$1, 44(%rax,%rcx)
	sete	%r13b
Ltmp293:
	movq	%r12, %rdi
	movl	%ebx, %esi
	callq	__ZN3cfg5remap6Intern6intern17h353cff248e6d4721E
Ltmp294:
	movq	-48(%rbp), %rcx
	movq	-56(%rbp), %rdx
	addq	%rdx, %rcx
	movq	%rcx, -304(%rbp)
	movb	%r13b, %r15b
	incq	%r15
	movl	%ebx, -232(%rbp)
	cmpl	%ebx, %eax
	jne	LBB87_58
	leaq	(,%r15,4), %r13
	xorl	%r12d, %r12d
	.p2align	4, 0x90
LBB87_55:
	cmpq	%r12, %r13
	je	LBB87_73
	movl	(%r14,%r12), %ebx
	movq	-240(%rbp), %rdi
Ltmp295:
	movl	%ebx, %esi
	callq	__ZN3cfg5remap6Intern6intern17h353cff248e6d4721E
Ltmp296:
	addq	$4, %r12
	cmpl	%ebx, %eax
	je	LBB87_55
LBB87_58:
	movq	-240(%rbp), %rdi
Ltmp298:
	movl	-232(%rbp), %esi
	callq	__ZN3cfg5remap6Intern6intern17h353cff248e6d4721E
Ltmp299:
	movl	%eax, -232(%rbp)
	movq	$4, -224(%rbp)
	leaq	-216(%rbp), %rax
	movq	$0, 8(%rax)
	movq	$0, (%rax)
Ltmp300:
	leaq	-224(%rbp), %rdi
	movq	%r15, %rsi
	callq	__ZN5alloc3vec12Vec$LT$T$GT$7reserve17h646b1e4bc926caa2E
Ltmp301:
	movq	-224(%rbp), %rax
	movq	-208(%rbp), %rbx
	leaq	(%rax,%rbx,4), %r13
	movq	%r13, -192(%rbp)
	leaq	-208(%rbp), %rax
	movq	%rax, -184(%rbp)
	movq	%rbx, -176(%rbp)
	leaq	-240(%rbp), %rax
	movq	%rax, -168(%rbp)
	leaq	-4(,%r15,4), %rax
	shlq	$2, %r15
	shrq	$2, %rax
	leaq	1(%rax,%rbx), %rax
	movq	%rax, -400(%rbp)
	negq	%rbx
	xorl	%r12d, %r12d
	.p2align	4, 0x90
LBB87_61:
	movl	(%r14,%r12), %esi
	movq	-240(%rbp), %rdi
Ltmp303:
	callq	__ZN3cfg5remap6Intern6intern17h353cff248e6d4721E
Ltmp304:
	movl	%eax, (%r13,%r12)
	decq	%rbx
	addq	$4, %r12
	cmpq	%r12, %r15
	jne	LBB87_61
	movq	-400(%rbp), %rax
	movq	%rax, -208(%rbp)
	movq	-48(%rbp), %rax
	movq	-56(%rbp), %rcx
	movq	16(%rax,%rcx), %rbx
	xorl	%r13d, %r13d
	movq	%rbx, %rax
	movl	$20, %ecx
	mulq	%rcx
	movq	%rax, %r15
	setno	%al
	jo	LBB87_363
	movb	%al, %r13b
	shlq	$2, %r13
	movq	-304(%rbp), %rax
	movq	(%rax), %r12
	testq	%r15, %r15
	je	LBB87_66
	movq	%r15, %rdi
	movq	%r13, %rsi
	callq	___rust_alloc
	movq	%rax, %rcx
	testq	%rcx, %rcx
	jne	LBB87_67
	jmp	LBB87_364
	.p2align	4, 0x90
LBB87_66:
	movq	%r13, %rcx
	testq	%rcx, %rcx
	je	LBB87_364
LBB87_67:
	movq	%r15, %rax
	movabsq	$-3689348814741910323, %rdx
	mulq	%rdx
	shrq	$4, %rdx
	movq	%rcx, -192(%rbp)
	movq	%rdx, -184(%rbp)
	movq	$0, -176(%rbp)
Ltmp306:
	leaq	-192(%rbp), %rdi
	movq	%rbx, %rsi
	callq	__ZN5alloc3vec12Vec$LT$T$GT$7reserve17hb597647698dfad3aE
Ltmp307:
	movq	-176(%rbp), %r13
	leaq	(%r13,%r13,4), %rdi
	shlq	$2, %rdi
	addq	-192(%rbp), %rdi
	movq	%r12, %rsi
	movq	%r15, %rdx
	callq	_memcpy
	addq	%r13, %rbx
	movq	%rbx, -176(%rbp)
	movq	-48(%rbp), %rax
	movq	-56(%rbp), %rdx
	movq	28(%rax,%rdx), %rsi
	xorl	%ecx, %ecx
	cmpl	$1, 24(%rax,%rdx)
	sete	%cl
	movb	36(%rax,%rdx), %al
	movl	%eax, %edx
	andb	$1, %dl
	cmpb	$2, %al
	movzbl	%dl, %eax
	movl	$2, %edx
	cmovel	%edx, %eax
	movq	%rbx, -272(%rbp)
	movq	-192(%rbp), %rdx
	movq	-184(%rbp), %rdi
	movq	%rdi, -280(%rbp)
	movq	%rdx, -288(%rbp)
	movq	-208(%rbp), %rdx
	movq	%rdx, -120(%rbp)
	movq	-224(%rbp), %rdx
	movq	-216(%rbp), %rdi
	movq	%rdi, -128(%rbp)
	movq	%rdx, -136(%rbp)
	movl	-232(%rbp), %edx
	movl	%edx, -72(%rbp)
	movq	-272(%rbp), %rdx
	leaq	-112(%rbp), %rbx
	movq	%rdx, 16(%rbx)
	movq	-288(%rbp), %rdx
	movq	-280(%rbp), %rdi
	movq	%rdi, 8(%rbx)
	movq	%rdx, (%rbx)
	movl	%ecx, -88(%rbp)
	movq	%rsi, -84(%rbp)
	movb	%al, -76(%rbp)
	movb	-382(%rbp), %al
	movb	%al, 39(%rbx)
	movzwl	-384(%rbp), %eax
	movw	%ax, 37(%rbx)
Ltmp309:
	leaq	-424(%rbp), %rdi
	leaq	-136(%rbp), %rsi
	callq	__ZN5alloc3vec12Vec$LT$T$GT$4push17hba02a6fe042bb4f0E
Ltmp310:
	movq	-64(%rbp), %r15
	incq	%r15
	movq	-144(%rbp), %rbx
	incq	%rbx
	cmpq	-296(%rbp), %rbx
	je	LBB87_77
LBB87_72:
	movq	%r15, -64(%rbp)
	movq	-240(%rbp), %r12
	addq	$56, %r14
	jmp	LBB87_52
	.p2align	4, 0x90
LBB87_73:
	movq	-64(%rbp), %r15
	testq	%r15, %r15
	je	LBB87_76
	movq	-144(%rbp), %rbx
	movq	%rbx, %rdi
	subq	%r15, %rdi
	cmpq	-296(%rbp), %rdi
	jae	LBB87_378
	imulq	$56, %rdi, %rax
	movq	-48(%rbp), %rsi
	movq	48(%rsi,%rax), %rcx
	movq	%rcx, -88(%rbp)
	movq	40(%rsi,%rax), %rcx
	movq	%rcx, -96(%rbp)
	movq	32(%rsi,%rax), %rcx
	movq	%rcx, -104(%rbp)
	movq	24(%rsi,%rax), %rcx
	movq	%rcx, -112(%rbp)
	movq	16(%rsi,%rax), %rcx
	movq	%rcx, -120(%rbp)
	movq	(%rsi,%rax), %rcx
	movq	8(%rsi,%rax), %rdx
	movq	%rdx, -128(%rbp)
	movq	%rcx, -136(%rbp)
	movq	-304(%rbp), %rdi
	movq	48(%rdi), %r8
	movq	40(%rdi), %r9
	movq	32(%rdi), %r10
	movq	24(%rdi), %r11
	movq	16(%rdi), %r12
	movq	(%rdi), %rcx
	movq	8(%rdi), %rdx
	movq	%rcx, (%rsi,%rax)
	movq	%rdx, 8(%rsi,%rax)
	movq	%r12, 16(%rsi,%rax)
	movq	%r11, 24(%rsi,%rax)
	movq	%r10, 32(%rsi,%rax)
	movq	%r9, 40(%rsi,%rax)
	movq	%r8, 48(%rsi,%rax)
	movq	-88(%rbp), %rax
	movq	%rax, 48(%rdi)
	movq	-96(%rbp), %rax
	movq	%rax, 40(%rdi)
	movq	-104(%rbp), %rax
	movq	%rax, 32(%rdi)
	movq	-112(%rbp), %rax
	movq	%rax, 24(%rdi)
	movq	-120(%rbp), %rax
	movq	%rax, 16(%rdi)
	movq	-136(%rbp), %rax
	movq	-128(%rbp), %rcx
	movq	%rcx, 8(%rdi)
	movq	%rax, (%rdi)
	incq	%rbx
	cmpq	-296(%rbp), %rbx
	jne	LBB87_72
	jmp	LBB87_77
LBB87_76:
	xorl	%r15d, %r15d
	movq	-144(%rbp), %rbx
	incq	%rbx
	cmpq	-296(%rbp), %rbx
	jne	LBB87_72
LBB87_77:
	testq	%r15, %r15
	movq	-488(%rbp), %rdi
	je	LBB87_80
	movq	-296(%rbp), %rcx
	subq	%r15, %rcx
	movq	16(%rdi), %rax
	cmpq	%rcx, %rax
	jb	LBB87_80
	movq	%rcx, %rdx
	movq	(%rdi), %rcx
	movq	%rdx, %rsi
	movq	%rdx, 16(%rdi)
	cmpq	%rdx, %rax
	jne	LBB87_335
LBB87_80:
	movq	-424(%rbp), %r14
	movq	-416(%rbp), %r15
	movq	-408(%rbp), %rax
	leaq	(%rax,%rax,8), %rcx
	leaq	(%r14,%rcx,8), %r13
	movq	%r14, -224(%rbp)
	movq	%r15, -216(%rbp)
	movq	%r14, -208(%rbp)
	movq	%r13, -200(%rbp)
	movq	%r14, -48(%rbp)
	testq	%rax, %rax
	je	LBB87_90
	movq	%r15, -56(%rbp)
	leaq	-84(%rbp), %r12
	movq	-48(%rbp), %rax
	leaq	72(%rax), %r14
	jmp	LBB87_83
	.p2align	4, 0x90
LBB87_82:
	addq	$72, %r14
	addq	$72, %r15
	cmpq	%r13, %r15
	je	LBB87_88
LBB87_83:
	movq	-32(%r14), %rax
	movq	%rax, -96(%rbp)
	movq	-40(%r14), %rax
	movq	%rax, -104(%rbp)
	movq	-48(%r14), %rax
	movq	%rax, -112(%rbp)
	movq	-56(%r14), %rax
	movq	%rax, -120(%rbp)
	movq	-72(%r14), %rax
	movq	-64(%r14), %rcx
	movq	%rcx, -128(%rbp)
	movq	%rax, -136(%rbp)
	movl	-24(%r14), %eax
	movq	-12(%r14), %rcx
	movq	%rcx, -280(%rbp)
	movl	-4(%r14), %ecx
	movl	%ecx, -272(%rbp)
	movq	-20(%r14), %rcx
	movq	%rcx, -288(%rbp)
	cmpl	$2, %eax
	je	LBB87_89
	movq	-96(%rbp), %rcx
	movq	%rcx, -152(%rbp)
	movq	-104(%rbp), %rcx
	movq	%rcx, -160(%rbp)
	movq	-112(%rbp), %rcx
	movq	%rcx, -168(%rbp)
	movq	-120(%rbp), %rcx
	movq	%rcx, -176(%rbp)
	movq	-136(%rbp), %rcx
	movq	-128(%rbp), %rdx
	movq	%rdx, -184(%rbp)
	movq	%rcx, -192(%rbp)
	movq	-288(%rbp), %rcx
	movq	-280(%rbp), %rdx
	movq	%rcx, -384(%rbp)
	movq	%rdx, -376(%rbp)
	movl	-272(%rbp), %ecx
	movl	%ecx, -368(%rbp)
	movq	-152(%rbp), %rcx
	movq	%rcx, -96(%rbp)
	movq	-160(%rbp), %rcx
	movq	%rcx, -104(%rbp)
	movq	-168(%rbp), %rcx
	movq	%rcx, -112(%rbp)
	movq	-176(%rbp), %rcx
	movq	%rcx, -120(%rbp)
	movq	-192(%rbp), %rcx
	movq	-184(%rbp), %rdx
	movq	%rdx, -128(%rbp)
	movq	%rcx, -136(%rbp)
	movl	%eax, -88(%rbp)
	movl	-368(%rbp), %eax
	movl	%eax, 16(%r12)
	movq	-384(%rbp), %rax
	movq	-376(%rbp), %rcx
	movq	%rcx, 8(%r12)
	movq	%rax, (%r12)
	movl	-72(%rbp), %esi
	movq	-480(%rbp), %rdi
	movq	-136(%rbp), %rbx
	movq	-120(%rbp), %rcx
	movq	4(%r12), %rax
	movq	%rax, -256(%rbp)
	movq	-4(%r12), %rax
	movq	%rax, -264(%rbp)
	movq	-12(%r12), %rax
	movq	%rax, -272(%rbp)
	movq	-28(%r12), %rax
	movq	-20(%r12), %rdx
	movq	%rdx, -280(%rbp)
	movq	%rax, -288(%rbp)
Ltmp318:
	movq	%rbx, %rdx
	leaq	-288(%rbp), %r8
	callq	__ZN93_$LT$cfg..binarized..BinarizedCfg$LT$H$GT$$u20$as$u20$cfg..rule..container..RuleContainer$GT$8add_rule17h18696b3a58a2cad9E
Ltmp319:
	leaq	-72(%r14), %r15
	movq	-128(%rbp), %rsi
	testq	%rsi, %rsi
	je	LBB87_82
	shlq	$2, %rsi
	testq	%rsi, %rsi
	je	LBB87_82
	movl	$4, %edx
	movq	%rbx, %rdi
	callq	___rust_dealloc
	jmp	LBB87_82
LBB87_88:
	movq	%r13, %r14
LBB87_89:
	movq	-56(%rbp), %r15
	movq	%r14, -208(%rbp)
LBB87_90:
	cmpq	%r14, %r13
	leaq	-544(%rbp), %rbx
	jne	LBB87_109
LBB87_91:
	leaq	-472(%rbp), %r14
	testq	%r15, %r15
	je	LBB87_94
	shlq	$3, %r15
	leaq	(%r15,%r15,8), %rsi
	testq	%rsi, %rsi
	je	LBB87_94
	movl	$8, %edx
	movq	-48(%rbp), %rdi
	callq	___rust_dealloc
LBB87_94:
	movq	-480(%rbp), %rax
	movl	-312(%rbp), %ecx
	movl	%ecx, 48(%rax)
Ltmp321:
	leaq	-360(%rbp), %rsi
	movq	%r14, %rdi
	callq	__ZN3cfg5remap7Mapping9translate17hd9f1ee39b4b00ddcE
Ltmp322:
	movq	-352(%rbp), %rsi
	testq	%rsi, %rsi
	je	LBB87_99
	movq	-360(%rbp), %rdi
	testq	%rdi, %rdi
	je	LBB87_99
	shlq	$3, %rsi
	testq	%rsi, %rsi
	je	LBB87_99
	movl	$4, %edx
	callq	___rust_dealloc
LBB87_99:
	movq	-328(%rbp), %rsi
	testq	%rsi, %rsi
	je	LBB87_103
	movq	-336(%rbp), %rdi
	testq	%rdi, %rdi
	je	LBB87_103
	shlq	$2, %rsi
	testq	%rsi, %rsi
	je	LBB87_103
	movl	$4, %edx
	callq	___rust_dealloc
LBB87_103:
	movq	%rbx, -568(%rbp)
	movq	-480(%rbp), %rax
	movl	48(%rax), %esi
Ltmp324:
	leaq	-360(%rbp), %rdi
	callq	__ZN3cfg5remap7Mapping3new17h3ca8efa5e0bf86eeE
Ltmp325:
	movq	-480(%rbp), %rax
	movl	48(%rax), %r14d
	movq	$4, -136(%rbp)
	movq	$0, -128(%rbp)
	movq	$0, -120(%rbp)
Ltmp327:
	leaq	-136(%rbp), %rdi
	movq	%r14, %rsi
	callq	__ZN5alloc3vec12Vec$LT$T$GT$7reserve17h646b1e4bc926caa2E
Ltmp328:
	movq	-120(%rbp), %r9
	testl	%r14d, %r14d
	je	LBB87_128
	movq	-136(%rbp), %r8
	leaq	(%r8,%r9,4), %rcx
	cmpl	$8, %r14d
	jae	LBB87_117
	xorl	%esi, %esi
	jmp	LBB87_126
	.p2align	4, 0x90
LBB87_108:
	addq	$72, %r14
	cmpq	%r13, %r14
	je	LBB87_91
LBB87_109:
	movq	8(%r14), %rsi
	testq	%rsi, %rsi
	je	LBB87_113
	movq	(%r14), %rdi
	testq	%rdi, %rdi
	je	LBB87_113
	shlq	$2, %rsi
	testq	%rsi, %rsi
	je	LBB87_113
	movl	$4, %edx
	callq	___rust_dealloc
LBB87_113:
	movq	32(%r14), %rax
	testq	%rax, %rax
	je	LBB87_108
	movq	24(%r14), %rdi
	testq	%rdi, %rdi
	je	LBB87_108
	shlq	$2, %rax
	leaq	(%rax,%rax,4), %rsi
	testq	%rsi, %rsi
	je	LBB87_108
	movl	$4, %edx
	callq	___rust_dealloc
	jmp	LBB87_108
LBB87_117:
	movl	%r14d, %esi
	andl	$-8, %esi
	leaq	-8(%rsi), %rax
	movq	%rax, %rdi
	shrq	$3, %rdi
	incq	%rdi
	movl	%edi, %ebx
	andl	$3, %ebx
	cmpq	$24, %rax
	jae	LBB87_119
	movdqa	LCPI87_0(%rip), %xmm0
	xorl	%edi, %edi
	jmp	LBB87_121
LBB87_119:
	leaq	112(%r8,%r9,4), %rax
	movq	%rbx, %rdx
	subq	%rdi, %rdx
	movdqa	LCPI87_0(%rip), %xmm0
	xorl	%edi, %edi
	movdqa	LCPI87_1(%rip), %xmm8
	movdqa	LCPI87_2(%rip), %xmm9
	movdqa	LCPI87_3(%rip), %xmm10
	movdqa	LCPI87_4(%rip), %xmm4
	movdqa	LCPI87_5(%rip), %xmm5
	movdqa	LCPI87_6(%rip), %xmm6
	movdqa	LCPI87_7(%rip), %xmm7
	movdqa	LCPI87_8(%rip), %xmm1
	.p2align	4, 0x90
LBB87_120:
	movdqa	%xmm0, %xmm2
	paddd	%xmm8, %xmm2
	movdqu	%xmm0, -112(%rax,%rdi,4)
	movdqu	%xmm2, -96(%rax,%rdi,4)
	movdqa	%xmm0, %xmm2
	paddd	%xmm9, %xmm2
	movdqa	%xmm0, %xmm3
	paddd	%xmm10, %xmm3
	movdqu	%xmm2, -80(%rax,%rdi,4)
	movdqu	%xmm3, -64(%rax,%rdi,4)
	movdqa	%xmm0, %xmm2
	paddd	%xmm4, %xmm2
	movdqa	%xmm0, %xmm3
	paddd	%xmm5, %xmm3
	movdqu	%xmm2, -48(%rax,%rdi,4)
	movdqu	%xmm3, -32(%rax,%rdi,4)
	movdqa	%xmm0, %xmm2
	paddd	%xmm6, %xmm2
	movdqa	%xmm0, %xmm3
	paddd	%xmm7, %xmm3
	movdqu	%xmm2, -16(%rax,%rdi,4)
	movdqu	%xmm3, (%rax,%rdi,4)
	addq	$32, %rdi
	paddd	%xmm1, %xmm0
	addq	$4, %rdx
	jne	LBB87_120
LBB87_121:
	testq	%rbx, %rbx
	je	LBB87_124
	addq	%r9, %rdi
	leaq	16(%r8,%rdi,4), %rax
	negq	%rbx
	movdqa	LCPI87_1(%rip), %xmm1
	movdqa	LCPI87_2(%rip), %xmm2
	.p2align	4, 0x90
LBB87_123:
	movdqa	%xmm0, %xmm3
	paddd	%xmm1, %xmm3
	movdqu	%xmm0, -16(%rax)
	movdqu	%xmm3, (%rax)
	paddd	%xmm2, %xmm0
	addq	$32, %rax
	incq	%rbx
	jne	LBB87_123
LBB87_124:
	cmpq	%r14, %rsi
	je	LBB87_127
	leaq	(%rcx,%rsi,4), %rcx
	.p2align	4, 0x90
LBB87_126:
	movl	%esi, (%rcx)
	leaq	1(%rsi), %rax
	addq	$4, %rcx
	movq	%rax, %rsi
	cmpq	%rax, %r14
	jne	LBB87_126
LBB87_127:
	addq	%r14, %r9
LBB87_128:
	movq	%r9, -120(%rbp)
	leaq	-336(%rbp), %rbx
	movq	-328(%rbp), %rsi
	testq	%rsi, %rsi
	je	LBB87_132
	movq	-336(%rbp), %rdi
	testq	%rdi, %rdi
	je	LBB87_132
	shlq	$2, %rsi
	testq	%rsi, %rsi
	je	LBB87_132
	movl	$4, %edx
	callq	___rust_dealloc
LBB87_132:
	movq	-120(%rbp), %rax
	movq	%rax, 16(%rbx)
	movq	-136(%rbp), %rax
	movq	-128(%rbp), %rcx
	movq	%rcx, 8(%rbx)
	movq	%rax, (%rbx)
	movq	-336(%rbp), %rax
	movq	%rax, -56(%rbp)
	movq	-320(%rbp), %r15
	leaq	-568(%rbp), %rax
	movq	%rax, -424(%rbp)
	leaq	-424(%rbp), %rax
	movq	%rax, -224(%rbp)
	cmpq	$21, %r15
	movq	%r15, -248(%rbp)
	jae	LBB87_147
	cmpq	$2, %r15
	jb	LBB87_245
	leaq	-1(%r15), %rbx
	movq	-56(%rbp), %rax
	leaq	-4(%rax,%r15,4), %r14
	xorl	%r13d, %r13d
	jmp	LBB87_138
LBB87_135:
	movq	-56(%rbp), %rax
	leaq	(%rax,%r12,4), %rbx
LBB87_136:
	movl	-48(%rbp), %eax
	movl	%eax, (%rbx)
	movq	-64(%rbp), %rbx
	movq	-144(%rbp), %r14
LBB87_137:
	addq	$-4, %r14
	incq	%r13
	testq	%rbx, %rbx
	movq	-248(%rbp), %r15
	je	LBB87_245
LBB87_138:
	movq	%rbx, %r12
	decq	%rbx
	subq	%rbx, %r15
	jb	LBB87_368
	cmpq	$2, %r15
	jb	LBB87_137
	movq	-56(%rbp), %rax
	movl	-4(%rax,%r12,4), %edx
	movl	(%rax,%r12,4), %esi
Ltmp376:
	leaq	-224(%rbp), %rdi
	callq	__ZN5alloc5slice29_$LT$impl$u20$$u5b$T$u5d$$GT$7sort_by28_$u7b$$u7b$closure$u7d$$u7d$17h7fa3b754c52e750bE
Ltmp377:
	testb	%al, %al
	je	LBB87_137
	movq	%rbx, -64(%rbp)
	movq	-56(%rbp), %rcx
	movl	-4(%rcx,%r12,4), %eax
	movl	%eax, -48(%rbp)
	movl	(%rcx,%r12,4), %eax
	movl	%eax, -4(%rcx,%r12,4)
	movq	%r14, %rbx
	movq	%r13, %r14
	movq	%rbx, -144(%rbp)
	cmpq	$3, %r15
	leaq	-224(%rbp), %r15
	jb	LBB87_135
	.p2align	4, 0x90
LBB87_143:
	movl	4(%rbx), %esi
Ltmp379:
	movq	%r15, %rdi
	movl	-48(%rbp), %edx
	callq	__ZN5alloc5slice29_$LT$impl$u20$$u5b$T$u5d$$GT$7sort_by28_$u7b$$u7b$closure$u7d$$u7d$17h7fa3b754c52e750bE
Ltmp380:
	testb	%al, %al
	je	LBB87_136
	leaq	4(%rbx), %rax
	movl	4(%rbx), %ecx
	movl	%ecx, (%rbx)
	movq	%rax, %rbx
	decq	%r14
	jne	LBB87_143
	movq	%rax, %rbx
	jmp	LBB87_136
LBB87_147:
	movq	%r15, %rax
	shrq	%rax
	movl	$4, %ecx
	xorl	%ebx, %ebx
	mulq	%rcx
	movq	%rax, %r14
	setno	%al
	jo	LBB87_386
	movb	%al, %bl
	shlq	$2, %rbx
	testq	%r14, %r14
	je	LBB87_150
	movq	%r14, %rdi
	movq	%rbx, %rsi
	callq	___rust_alloc
	testq	%rax, %rax
	jne	LBB87_151
	jmp	LBB87_362
LBB87_150:
	movq	%rbx, %rax
	testq	%rax, %rax
	je	LBB87_362
LBB87_151:
	shrq	$2, %r14
	movq	%rax, -288(%rbp)
	movq	%r14, -280(%rbp)
	movq	$0, -272(%rbp)
	movq	$8, -192(%rbp)
	movq	$0, -184(%rbp)
	movq	$0, -176(%rbp)
	movq	-56(%rbp), %rax
	leaq	-4(%rax), %rcx
	movq	%rcx, -504(%rbp)
	addq	$4, %rax
	movq	%rax, -560(%rbp)
	jmp	LBB87_153
	.p2align	4, 0x90
LBB87_152:
	movq	-496(%rbp), %r15
	testq	%r15, %r15
	je	LBB87_237
LBB87_153:
	movq	%r15, %rax
	decq	%rax
	movq	%rax, -144(%rbp)
	je	LBB87_165
	movq	-56(%rbp), %rax
	movl	-8(%rax,%r15,4), %edx
	movl	-4(%rax,%r15,4), %esi
Ltmp330:
	leaq	-224(%rbp), %rdi
	callq	__ZN5alloc5slice29_$LT$impl$u20$$u5b$T$u5d$$GT$7sort_by28_$u7b$$u7b$closure$u7d$$u7d$17h7fa3b754c52e750bE
Ltmp331:
	leaq	-2(%r15), %r14
	testb	%al, %al
	movq	%r15, -64(%rbp)
	je	LBB87_166
	movq	-504(%rbp), %rax
	leaq	(%rax,%r15,4), %rdx
	movl	$2, %ecx
	movq	%rdx, -48(%rbp)
	xorl	%esi, %esi
	.p2align	4, 0x90
LBB87_157:
	movq	%rsi, %rbx
	movq	%rdx, %r13
	movq	%rcx, %r12
	movq	%r14, %r15
	subq	%rsi, %r15
	je	LBB87_160
	movl	-8(%r13), %edx
	movl	-4(%r13), %esi
Ltmp335:
	leaq	-224(%rbp), %rdi
	callq	__ZN5alloc5slice29_$LT$impl$u20$$u5b$T$u5d$$GT$7sort_by28_$u7b$$u7b$closure$u7d$$u7d$17h7fa3b754c52e750bE
Ltmp336:
	leaq	1(%rbx), %rsi
	leaq	-4(%r13), %rdx
	leaq	1(%r12), %rcx
	testb	%al, %al
	jne	LBB87_157
LBB87_160:
	movq	-64(%rbp), %r14
	cmpq	%r15, %r14
	jb	LBB87_380
	cmpq	-248(%rbp), %r14
	ja	LBB87_381
	movq	%r12, %rdi
	leaq	2(%rbx), %r12
	movq	%r12, %rax
	shrq	%rax
	je	LBB87_176
	movq	%rbx, %r8
	cmpq	$1, %rax
	jne	LBB87_172
	xorl	%ecx, %ecx
	jmp	LBB87_174
	.p2align	4, 0x90
LBB87_165:
	movl	$1, %r12d
	xorl	%ebx, %ebx
	jmp	LBB87_195
	.p2align	4, 0x90
LBB87_166:
	movl	$1, %r12d
	.p2align	4, 0x90
LBB87_167:
	testq	%r14, %r14
	je	LBB87_171
	movq	-56(%rbp), %rax
	movl	-4(%rax,%r14,4), %edx
	movl	(%rax,%r14,4), %esi
Ltmp332:
	leaq	-224(%rbp), %rdi
	callq	__ZN5alloc5slice29_$LT$impl$u20$$u5b$T$u5d$$GT$7sort_by28_$u7b$$u7b$closure$u7d$$u7d$17h7fa3b754c52e750bE
Ltmp333:
	decq	%r14
	incq	%r12
	testb	%al, %al
	je	LBB87_167
	movq	-64(%rbp), %r14
	movq	%r14, %r15
	subq	%r12, %r15
	jmp	LBB87_176
LBB87_171:
	xorl	%ebx, %ebx
	movq	-64(%rbp), %r12
	jmp	LBB87_195
LBB87_172:
	shrq	%rdi
	andq	$-2, %rdi
	xorl	%ecx, %ecx
	movq	-48(%rbp), %rbx
	.p2align	4, 0x90
LBB87_173:
	movl	-4(%r13,%rcx,4), %edx
	movl	(%rbx), %esi
	movl	%esi, -4(%r13,%rcx,4)
	movl	%edx, (%rbx)
	movl	(%r13,%rcx,4), %edx
	movl	-4(%rbx), %esi
	movl	%esi, (%r13,%rcx,4)
	movl	%edx, -4(%rbx)
	addq	$2, %rcx
	addq	$-8, %rbx
	cmpq	%rcx, %rdi
	jne	LBB87_173
LBB87_174:
	testb	$1, %al
	je	LBB87_176
	movq	%rcx, %rax
	notq	%rax
	addq	%r8, %rax
	movl	-4(%r13,%rcx,4), %edx
	movl	4(%r13,%rax,4), %esi
	movl	%esi, -4(%r13,%rcx,4)
	movl	%edx, 4(%r13,%rax,4)
LBB87_176:
	cmpq	$9, %r12
	ja	LBB87_194
	testq	%r15, %r15
	je	LBB87_194
	cmpq	-248(%rbp), %r14
	ja	LBB87_382
	movq	-56(%rbp), %rax
	leaq	(%rax,%r15,4), %r13
	.p2align	4, 0x90
LBB87_180:
	leaq	-1(%r15), %rbx
	movq	%r14, %r12
	subq	%rbx, %r12
	jb	LBB87_357
	cmpq	$2, %r12
	jb	LBB87_191
	movq	-56(%rbp), %rax
	movl	-4(%rax,%r15,4), %edx
	movl	(%rax,%r15,4), %esi
Ltmp338:
	leaq	-224(%rbp), %rdi
	callq	__ZN5alloc5slice29_$LT$impl$u20$$u5b$T$u5d$$GT$7sort_by28_$u7b$$u7b$closure$u7d$$u7d$17h7fa3b754c52e750bE
Ltmp339:
	testb	%al, %al
	je	LBB87_191
	movq	%rbx, -496(%rbp)
	movq	-56(%rbp), %rcx
	movl	-4(%rcx,%r15,4), %eax
	movl	%eax, -48(%rbp)
	movl	(%rcx,%r15,4), %eax
	movl	%eax, -4(%rcx,%r15,4)
	movq	-144(%rbp), %r14
	movq	%r13, %rbx
	cmpq	$3, %r12
	jb	LBB87_189
	.p2align	4, 0x90
LBB87_185:
	movl	4(%rbx), %esi
Ltmp341:
	leaq	-224(%rbp), %rdi
	movl	-48(%rbp), %edx
	callq	__ZN5alloc5slice29_$LT$impl$u20$$u5b$T$u5d$$GT$7sort_by28_$u7b$$u7b$closure$u7d$$u7d$17h7fa3b754c52e750bE
Ltmp342:
	testb	%al, %al
	je	LBB87_190
	leaq	4(%rbx), %rax
	movl	4(%rbx), %ecx
	movl	%ecx, (%rbx)
	decq	%r14
	movq	%rax, %rbx
	cmpq	%r14, %r15
	jne	LBB87_185
	movq	%rax, %rbx
	jmp	LBB87_190
LBB87_189:
	movq	-56(%rbp), %rax
	leaq	(%rax,%r15,4), %rbx
LBB87_190:
	movl	-48(%rbp), %eax
	movl	%eax, (%rbx)
	movq	-496(%rbp), %rbx
	movq	-64(%rbp), %r14
LBB87_191:
	testq	%rbx, %rbx
	je	LBB87_195
	addq	$-4, %r13
	movq	%rbx, %r15
	cmpq	$10, %r12
	jb	LBB87_180
	jmp	LBB87_195
	.p2align	4, 0x90
LBB87_194:
	movq	%r15, %rbx
LBB87_195:
Ltmp352:
	leaq	-192(%rbp), %rdi
	movq	%rbx, -496(%rbp)
	movq	%rbx, %rsi
	movq	%r12, %rdx
	callq	__ZN5alloc3vec12Vec$LT$T$GT$4push17h6814b4af9a302c07E
Ltmp353:
	movq	-248(%rbp), %r15
	movq	-176(%rbp), %rbx
	cmpq	$2, %rbx
	jb	LBB87_152
	movq	-192(%rbp), %r14
	.p2align	4, 0x90
LBB87_198:
	leaq	-1(%rbx), %rcx
	shlq	$4, %rcx
	cmpq	$0, (%r14,%rcx)
	je	LBB87_204
	movq	%rbx, %rdx
	shlq	$4, %rdx
	movq	-24(%rdx,%r14), %rsi
	movq	8(%r14,%rcx), %rax
	cmpq	%rax, %rsi
	jbe	LBB87_204
	cmpq	$2, %rbx
	jbe	LBB87_152
	leaq	-3(%rbx), %rdi
	movq	%rdi, %rcx
	shlq	$4, %rcx
	movq	8(%r14,%rcx), %r8
	leaq	(%rax,%rsi), %rcx
	cmpq	%rcx, %r8
	jbe	LBB87_206
	cmpq	$3, %rbx
	jbe	LBB87_152
	addq	%r8, %rsi
	cmpq	%rsi, -56(%rdx,%r14)
	jbe	LBB87_206
	jmp	LBB87_152
	.p2align	4, 0x90
LBB87_204:
	cmpq	$3, %rbx
	jb	LBB87_207
	leaq	-3(%rbx), %rdi
	movq	%rdi, %rax
	shlq	$4, %rax
	movq	8(%r14,%rax), %r8
	movq	8(%r14,%rcx), %rax
LBB87_206:
	cmpq	%rax, %r8
	jb	LBB87_208
LBB87_207:
	leaq	-2(%rbx), %rdi
LBB87_208:
	leaq	1(%rdi), %r8
	cmpq	%r8, %rbx
	jbe	LBB87_351
	cmpq	%rdi, %rbx
	jbe	LBB87_352
	movq	%r8, %rcx
	shlq	$4, %rcx
	movq	(%r14,%rcx), %rsi
	movq	%rdi, %rdx
	shlq	$4, %rdx
	movq	8(%r14,%rdx), %rax
	movq	(%r14,%rdx), %r12
	addq	%rax, %r12
	movq	%r12, %rbx
	subq	%rsi, %rbx
	jb	LBB87_355
	cmpq	%r15, %r12
	ja	LBB87_356
	movq	%rax, -296(%rbp)
	movq	%rdx, -400(%rbp)
	movq	%r8, -304(%rbp)
	movq	%rdi, -144(%rbp)
	movq	%rcx, -232(%rbp)
	movq	8(%r14,%rcx), %rcx
	movq	-56(%rbp), %rax
	movq	%rsi, -64(%rbp)
	leaq	(%rax,%rsi,4), %rax
	movq	-288(%rbp), %r14
	leaq	(%rax,%rcx,4), %r13
	movq	%rbx, %r15
	subq	%rcx, %r15
	cmpq	%rcx, %r15
	movq	%rcx, -48(%rbp)
	movq	%rax, -488(%rbp)
	jae	LBB87_224
	leaq	(,%r15,4), %rdx
	movq	%r14, %rdi
	movq	%r13, %rsi
	callq	_memcpy
	movq	%r15, %rax
	leaq	(%r14,%r15,4), %r15
	movq	%r14, -136(%rbp)
	movq	%r15, -128(%rbp)
	movq	%r13, -120(%rbp)
	cmpq	$0, -48(%rbp)
	jle	LBB87_223
	testq	%rax, %rax
	jle	LBB87_223
	movq	-504(%rbp), %rax
	leaq	(%rax,%r12,4), %rbx
	movq	-488(%rbp), %r12
	.p2align	4, 0x90
LBB87_216:
	movl	-4(%r15), %esi
	movl	-4(%r13), %edx
Ltmp362:
	leaq	-224(%rbp), %rdi
	callq	__ZN5alloc5slice29_$LT$impl$u20$$u5b$T$u5d$$GT$7sort_by28_$u7b$$u7b$closure$u7d$$u7d$17h7fa3b754c52e750bE
Ltmp363:
	testb	%al, %al
	je	LBB87_219
	addq	$-4, %r13
	movq	%r13, -120(%rbp)
	movq	%r13, %r15
	jmp	LBB87_220
	.p2align	4, 0x90
LBB87_219:
	addq	$-4, %r15
	movq	%r15, -128(%rbp)
LBB87_220:
	movl	(%r15), %eax
	movl	%eax, (%rbx)
	movq	-128(%rbp), %r15
	movq	-120(%rbp), %r13
	cmpq	%r13, %r12
	jae	LBB87_222
	addq	$-4, %rbx
	cmpq	%r14, %r15
	ja	LBB87_216
LBB87_222:
	movq	-136(%rbp), %r14
LBB87_223:
	movq	%r13, %rdi
	jmp	LBB87_234
	.p2align	4, 0x90
LBB87_224:
	leaq	(,%rcx,4), %rdx
	movq	%r14, %rdi
	movq	%rax, %rsi
	callq	_memcpy
	movq	-48(%rbp), %rax
	leaq	(%r14,%rax,4), %r15
	movq	%r14, -136(%rbp)
	movq	%r15, -128(%rbp)
	movq	-488(%rbp), %rcx
	movq	%rcx, %rdi
	movq	%rcx, -120(%rbp)
	testq	%rax, %rax
	jle	LBB87_234
	cmpq	%rax, %rbx
	jle	LBB87_234
	movq	-56(%rbp), %rax
	leaq	(%rax,%r12,4), %r12
	movq	-560(%rbp), %rax
	movq	-64(%rbp), %rcx
	leaq	(%rax,%rcx,4), %rbx
	.p2align	4, 0x90
LBB87_227:
	movl	(%r13), %esi
	movl	(%r14), %edx
Ltmp359:
	leaq	-224(%rbp), %rdi
	callq	__ZN5alloc5slice29_$LT$impl$u20$$u5b$T$u5d$$GT$7sort_by28_$u7b$$u7b$closure$u7d$$u7d$17h7fa3b754c52e750bE
Ltmp360:
	testb	%al, %al
	je	LBB87_230
	leaq	4(%r13), %rax
	movq	%r13, %r14
	jmp	LBB87_231
	.p2align	4, 0x90
LBB87_230:
	leaq	4(%r14), %rax
	movq	%rax, -136(%rbp)
	movq	%r13, %rax
LBB87_231:
	movq	%rbx, -120(%rbp)
	movl	(%r14), %ecx
	movl	%ecx, -4(%rbx)
	movq	-136(%rbp), %r14
	cmpq	%r12, %rax
	jae	LBB87_233
	addq	$4, %rbx
	movq	%rax, %r13
	cmpq	%r15, %r14
	jb	LBB87_227
LBB87_233:
	movq	-128(%rbp), %r15
	movq	-120(%rbp), %rdi
LBB87_234:
	subq	%r14, %r15
	andq	$-4, %r15
	movq	%r14, %rsi
	movq	%r15, %rdx
	callq	_memcpy
	movq	-176(%rbp), %rbx
	movq	-144(%rbp), %rdi
	cmpq	%rdi, %rbx
	jbe	LBB87_353
	movq	-192(%rbp), %r14
	movq	-296(%rbp), %rdx
	addq	-48(%rbp), %rdx
	movq	-64(%rbp), %rax
	movq	-400(%rbp), %rcx
	movq	%rax, (%r14,%rcx)
	movq	%rdx, 8(%r14,%rcx)
	movq	-304(%rbp), %rdx
	cmpq	%rdx, %rbx
	movq	-248(%rbp), %r15
	jbe	LBB87_354
	movq	-232(%rbp), %rax
	leaq	(%r14,%rax), %rdi
	leaq	16(%r14,%rax), %rsi
	notq	%rdx
	addq	%rbx, %rdx
	shlq	$4, %rdx
	callq	_memmove
	decq	%rbx
	movq	%rbx, -176(%rbp)
	cmpq	$1, %rbx
	ja	LBB87_198
	jmp	LBB87_152
LBB87_237:
	movq	-184(%rbp), %rsi
	testq	%rsi, %rsi
	je	LBB87_241
	movq	-192(%rbp), %rdi
	testq	%rdi, %rdi
	je	LBB87_241
	shlq	$4, %rsi
	je	LBB87_241
	movl	$8, %edx
	callq	___rust_dealloc
LBB87_241:
	movq	-280(%rbp), %rsi
	testq	%rsi, %rsi
	je	LBB87_245
	movq	-288(%rbp), %rdi
	testq	%rdi, %rdi
	je	LBB87_245
	shlq	$2, %rsi
	testq	%rsi, %rsi
	je	LBB87_245
	movl	$4, %edx
	callq	___rust_dealloc
LBB87_245:
	movq	-320(%rbp), %rax
	testq	%rax, %rax
	leaq	-472(%rbp), %rbx
	je	LBB87_249
	movq	-336(%rbp), %rcx
	shlq	$2, %rax
	xorl	%edx, %edx
	.p2align	4, 0x90
LBB87_247:
	movl	(%rcx,%rdx,4), %edi
	movq	-344(%rbp), %rsi
	cmpq	%rdi, %rsi
	jbe	LBB87_359
	movq	-360(%rbp), %rsi
	movl	$1, (%rsi,%rdi,8)
	movl	%edx, 4(%rsi,%rdi,8)
	incq	%rdx
	addq	$-4, %rax
	jne	LBB87_247
LBB87_249:
Ltmp384:
	leaq	-360(%rbp), %r12
	movq	%rbx, %rdi
	movq	%r12, %rsi
	callq	__ZN3cfg5remap7Mapping9translate17hd9f1ee39b4b00ddcE
Ltmp385:
	movq	%r12, -240(%rbp)
	movq	$8, -424(%rbp)
	movq	$0, -416(%rbp)
	movq	$0, -408(%rbp)
	movq	-480(%rbp), %rcx
	movq	16(%rcx), %rax
	movq	%rax, -232(%rbp)
	testq	%rax, %rax
	je	LBB87_291
	movq	%rcx, -400(%rbp)
	movq	(%rcx), %r8
	movl	40(%r8), %edi
	movq	-344(%rbp), %rsi
	cmpq	%rdi, %rsi
	jbe	LBB87_361
	xorl	%r14d, %r14d
	cmpl	$1, 44(%r8)
	sete	%r14b
	incq	%r14
	leaq	48(%r8), %r13
	movl	$1, %edx
	xorl	%r15d, %r15d
	movq	%r8, %r9
	xorl	%r11d, %r11d
	movq	%r8, -48(%rbp)
	.p2align	4, 0x90
LBB87_253:
	movq	(%r12), %rbx
	cmpl	$0, (%rbx,%rdi,8)
	je	LBB87_360
	movq	%rdx, %rax
	movl	4(%rbx,%rdi,8), %r12d
	cmpl	%edi, %r12d
	jne	LBB87_270
	imulq	$56, %r15, %rcx
	addq	%r8, %rcx
	leaq	48(%rcx,%r14,4), %rcx
	cmpq	%rcx, %r13
	je	LBB87_284
	movl	(%r13), %edx
	cmpq	%rdx, %rsi
	jbe	LBB87_366
	cmpl	$0, (%rbx,%rdx,8)
	je	LBB87_367
	cmpl	%edx, 4(%rbx,%rdx,8)
	jne	LBB87_270
	leaq	4(%r13), %rdx
	cmpq	%rcx, %rdx
	je	LBB87_284
	movl	4(%r13), %edx
	cmpq	%rdx, %rsi
	jbe	LBB87_366
	cmpl	$0, (%rbx,%rdx,8)
	je	LBB87_367
	cmpl	%edx, 4(%rbx,%rdx,8)
	jne	LBB87_270
	leaq	8(%r13), %rdx
	cmpq	%rcx, %rdx
	je	LBB87_284
	movl	8(%r13), %edx
	cmpq	%rdx, %rsi
	jbe	LBB87_366
	cmpl	$0, (%rbx,%rdx,8)
	je	LBB87_367
	cmpl	%edx, 4(%rbx,%rdx,8)
	jne	LBB87_270
	leaq	12(%r13), %rdx
	cmpq	%rcx, %rdx
	je	LBB87_284
	movl	(%rdx), %edx
	cmpq	%rdx, %rsi
	jbe	LBB87_366
	cmpl	$0, (%rbx,%rdx,8)
	je	LBB87_367
	.p2align	4, 0x90
LBB87_270:
	movq	%r9, -56(%rbp)
	movq	%rax, -144(%rbp)
	movq	%r11, -64(%rbp)
	movq	$4, -224(%rbp)
	leaq	-216(%rbp), %rax
	movq	$0, 8(%rax)
	movq	$0, (%rax)
Ltmp389:
	leaq	-224(%rbp), %rdi
	movq	%r14, %rsi
	callq	__ZN5alloc3vec12Vec$LT$T$GT$7reserve17h646b1e4bc926caa2E
Ltmp390:
	movq	-224(%rbp), %rax
	movq	-208(%rbp), %rcx
	leaq	(%rax,%rcx,4), %rdx
	movq	%rdx, -192(%rbp)
	leaq	-208(%rbp), %rax
	movq	%rax, -184(%rbp)
	movq	%rcx, -176(%rbp)
	leaq	-240(%rbp), %rax
	movq	%rax, -168(%rbp)
	leaq	-4(,%r14,4), %rax
	shlq	$2, %r14
	shrq	$2, %rax
	leaq	1(%rax,%rcx), %r8
	negq	%rcx
	xorl	%ebx, %ebx
	movq	-48(%rbp), %r9
	.p2align	4, 0x90
LBB87_272:
	movl	(%r13,%rbx), %edi
	movq	-240(%rbp), %rax
	movq	16(%rax), %rsi
	cmpq	%rdi, %rsi
	jbe	LBB87_348
	movq	(%rax), %rax
	cmpl	$0, (%rax,%rdi,8)
	je	LBB87_349
	movl	4(%rax,%rdi,8), %eax
	movl	%eax, (%rdx,%rbx)
	decq	%rcx
	addq	$4, %rbx
	cmpq	%rbx, %r14
	jne	LBB87_272
	movl	%r12d, -304(%rbp)
	movq	%r8, -208(%rbp)
	imulq	$56, %r15, %r15
	movq	16(%r9,%r15), %r12
	xorl	%ebx, %ebx
	movq	%r12, %rax
	movl	$20, %ecx
	mulq	%rcx
	movq	%rax, %r14
	setno	%al
	jo	LBB87_365
	movb	%al, %bl
	shlq	$2, %rbx
	movq	-56(%rbp), %rax
	movq	(%rax), %rax
	movq	%rax, -56(%rbp)
	testq	%r14, %r14
	je	LBB87_278
	movq	%r14, %rdi
	movq	%rbx, %rsi
	callq	___rust_alloc
	movq	%rax, %rcx
	testq	%rcx, %rcx
	jne	LBB87_279
	jmp	LBB87_362
	.p2align	4, 0x90
LBB87_278:
	movq	%rbx, %rcx
	testq	%rcx, %rcx
	je	LBB87_362
LBB87_279:
	movq	%r14, %rax
	movabsq	$-3689348814741910323, %rdx
	mulq	%rdx
	shrq	$4, %rdx
	movq	%rcx, -192(%rbp)
	movq	%rdx, -184(%rbp)
	movq	$0, -176(%rbp)
Ltmp394:
	leaq	-192(%rbp), %rdi
	movq	%r12, %rsi
	callq	__ZN5alloc3vec12Vec$LT$T$GT$7reserve17hb597647698dfad3aE
Ltmp395:
	movq	-176(%rbp), %rbx
	leaq	(%rbx,%rbx,4), %rdi
	shlq	$2, %rdi
	addq	-192(%rbp), %rdi
	movq	-56(%rbp), %rsi
	movq	%r14, %rdx
	callq	_memcpy
	addq	%rbx, %r12
	movq	%r12, -176(%rbp)
	movq	-48(%rbp), %rdx
	movq	28(%rdx,%r15), %rax
	xorl	%ecx, %ecx
	cmpl	$1, 24(%rdx,%r15)
	sete	%cl
	movb	36(%rdx,%r15), %bl
	movl	%ebx, %edx
	andb	$1, %dl
	cmpb	$2, %bl
	movzbl	%dl, %edx
	movl	$2, %esi
	cmovel	%esi, %edx
	movq	%r12, -272(%rbp)
	movq	-192(%rbp), %rsi
	movq	-184(%rbp), %rdi
	movq	%rdi, -280(%rbp)
	movq	%rsi, -288(%rbp)
	movq	-208(%rbp), %rsi
	movq	%rsi, -120(%rbp)
	movq	-224(%rbp), %rsi
	movq	-216(%rbp), %rdi
	movq	%rdi, -128(%rbp)
	movq	%rsi, -136(%rbp)
	movl	-304(%rbp), %esi
	movl	%esi, -72(%rbp)
	movq	-272(%rbp), %rsi
	leaq	-112(%rbp), %rbx
	movq	%rsi, 16(%rbx)
	movq	-288(%rbp), %rsi
	movq	-280(%rbp), %rdi
	movq	%rdi, 8(%rbx)
	movq	%rsi, (%rbx)
	movl	%ecx, -88(%rbp)
	movq	%rax, -84(%rbp)
	movb	%dl, -76(%rbp)
	movb	-382(%rbp), %al
	movb	%al, 39(%rbx)
	movzwl	-384(%rbp), %eax
	movw	%ax, 37(%rbx)
Ltmp397:
	leaq	-424(%rbp), %rdi
	leaq	-136(%rbp), %rsi
	callq	__ZN5alloc3vec12Vec$LT$T$GT$4push17hba02a6fe042bb4f0E
Ltmp398:
	movq	-64(%rbp), %r11
	incq	%r11
	movq	-48(%rbp), %r8
	movq	-144(%rbp), %rax
LBB87_282:
	cmpq	-232(%rbp), %rax
	je	LBB87_288
	movq	-240(%rbp), %r12
	leaq	1(%rax), %rdx
	imulq	$56, %rax, %rcx
	leaq	(%r8,%rcx), %r9
	movl	40(%r8,%rcx), %edi
	xorl	%r14d, %r14d
	cmpl	$1, 44(%r8,%rcx)
	sete	%r14b
	incq	%r14
	addq	$56, %r13
	movq	16(%r12), %rsi
	movq	%rax, %r15
	cmpq	%rdi, %rsi
	ja	LBB87_253
	jmp	LBB87_361
	.p2align	4, 0x90
LBB87_284:
	testq	%r11, %r11
	je	LBB87_287
	subq	%r11, %r15
	cmpq	-232(%rbp), %r15
	jae	LBB87_379
	movq	%rax, %r12
	imulq	$56, %r15, %rax
	movq	48(%r8,%rax), %rcx
	movq	%rcx, -88(%rbp)
	movq	40(%r8,%rax), %rcx
	movq	%rcx, -96(%rbp)
	movq	32(%r8,%rax), %rcx
	movq	%rcx, -104(%rbp)
	movq	24(%r8,%rax), %rcx
	movq	%rcx, -112(%rbp)
	movq	16(%r8,%rax), %rcx
	movq	%rcx, -120(%rbp)
	movq	(%r8,%rax), %rcx
	movq	8(%r8,%rax), %rdx
	movq	%rdx, -128(%rbp)
	movq	%rcx, -136(%rbp)
	movq	48(%r9), %r14
	movq	%r9, %rbx
	movq	40(%r9), %r9
	movq	32(%rbx), %r10
	movq	24(%rbx), %rdi
	movq	16(%rbx), %rsi
	movq	(%rbx), %rcx
	movq	8(%rbx), %rdx
	movq	%rcx, (%r8,%rax)
	movq	%rdx, 8(%r8,%rax)
	movq	%rsi, 16(%r8,%rax)
	movq	%rdi, 24(%r8,%rax)
	movq	%r10, 32(%r8,%rax)
	movq	%r9, 40(%r8,%rax)
	movq	%r14, 48(%r8,%rax)
	movq	-88(%rbp), %rax
	movq	%rax, 48(%rbx)
	movq	-96(%rbp), %rax
	movq	%rax, 40(%rbx)
	movq	-104(%rbp), %rax
	movq	%rax, 32(%rbx)
	movq	-112(%rbp), %rax
	movq	%rax, 24(%rbx)
	movq	-120(%rbp), %rax
	movq	%rax, 16(%rbx)
	movq	-136(%rbp), %rax
	movq	-128(%rbp), %rcx
	movq	%rcx, 8(%rbx)
	movq	%rax, (%rbx)
	movq	%r12, %rax
	jmp	LBB87_282
LBB87_287:
	xorl	%r11d, %r11d
	jmp	LBB87_282
LBB87_288:
	testq	%r11, %r11
	movq	-400(%rbp), %rdi
	je	LBB87_291
	movq	-232(%rbp), %rcx
	subq	%r11, %rcx
	movq	16(%rdi), %rax
	cmpq	%rcx, %rax
	jb	LBB87_291
	movq	%rcx, %rdx
	movq	(%rdi), %rcx
	movq	%rdx, %rsi
	movq	%rdx, 16(%rdi)
	cmpq	%rdx, %rax
	jne	LBB87_341
LBB87_291:
	movq	-424(%rbp), %r14
	movq	-416(%rbp), %rbx
	movq	-408(%rbp), %rax
	leaq	(%rax,%rax,8), %rcx
	leaq	(%r14,%rcx,8), %r13
	movq	%r14, -224(%rbp)
	movq	%rbx, -216(%rbp)
	movq	%r14, -208(%rbp)
	movq	%r13, -200(%rbp)
	movq	%r14, -48(%rbp)
	testq	%rax, %rax
	je	LBB87_301
	movq	%rbx, -56(%rbp)
	leaq	-84(%rbp), %r12
	movq	-48(%rbp), %rax
	leaq	72(%rax), %r14
	jmp	LBB87_294
	.p2align	4, 0x90
LBB87_293:
	addq	$72, %r14
	addq	$72, %r15
	cmpq	%r13, %r15
	je	LBB87_299
LBB87_294:
	movq	-32(%r14), %rax
	movq	%rax, -96(%rbp)
	movq	-40(%r14), %rax
	movq	%rax, -104(%rbp)
	movq	-48(%r14), %rax
	movq	%rax, -112(%rbp)
	movq	-56(%r14), %rax
	movq	%rax, -120(%rbp)
	movq	-72(%r14), %rax
	movq	-64(%r14), %rcx
	movq	%rcx, -128(%rbp)
	movq	%rax, -136(%rbp)
	movl	-24(%r14), %eax
	movq	-12(%r14), %rcx
	movq	%rcx, -280(%rbp)
	movl	-4(%r14), %ecx
	movl	%ecx, -272(%rbp)
	movq	-20(%r14), %rcx
	movq	%rcx, -288(%rbp)
	cmpl	$2, %eax
	je	LBB87_300
	movq	-96(%rbp), %rcx
	movq	%rcx, -152(%rbp)
	movq	-104(%rbp), %rcx
	movq	%rcx, -160(%rbp)
	movq	-112(%rbp), %rcx
	movq	%rcx, -168(%rbp)
	movq	-120(%rbp), %rcx
	movq	%rcx, -176(%rbp)
	movq	-136(%rbp), %rcx
	movq	-128(%rbp), %rdx
	movq	%rdx, -184(%rbp)
	movq	%rcx, -192(%rbp)
	movq	-288(%rbp), %rcx
	movq	-280(%rbp), %rdx
	movq	%rcx, -384(%rbp)
	movq	%rdx, -376(%rbp)
	movl	-272(%rbp), %ecx
	movl	%ecx, -368(%rbp)
	movq	-152(%rbp), %rcx
	movq	%rcx, -96(%rbp)
	movq	-160(%rbp), %rcx
	movq	%rcx, -104(%rbp)
	movq	-168(%rbp), %rcx
	movq	%rcx, -112(%rbp)
	movq	-176(%rbp), %rcx
	movq	%rcx, -120(%rbp)
	movq	-192(%rbp), %rcx
	movq	-184(%rbp), %rdx
	movq	%rdx, -128(%rbp)
	movq	%rcx, -136(%rbp)
	movl	%eax, -88(%rbp)
	movl	-368(%rbp), %eax
	movl	%eax, 16(%r12)
	movq	-384(%rbp), %rax
	movq	-376(%rbp), %rcx
	movq	%rcx, 8(%r12)
	movq	%rax, (%r12)
	movl	-72(%rbp), %esi
	movq	-480(%rbp), %rdi
	movq	-136(%rbp), %rbx
	movq	-120(%rbp), %rcx
	movq	4(%r12), %rax
	movq	%rax, -256(%rbp)
	movq	-4(%r12), %rax
	movq	%rax, -264(%rbp)
	movq	-12(%r12), %rax
	movq	%rax, -272(%rbp)
	movq	-28(%r12), %rax
	movq	-20(%r12), %rdx
	movq	%rdx, -280(%rbp)
	movq	%rax, -288(%rbp)
Ltmp415:
	movq	%rbx, %rdx
	leaq	-288(%rbp), %r8
	callq	__ZN93_$LT$cfg..binarized..BinarizedCfg$LT$H$GT$$u20$as$u20$cfg..rule..container..RuleContainer$GT$8add_rule17h18696b3a58a2cad9E
Ltmp416:
	leaq	-72(%r14), %r15
	movq	-128(%rbp), %rsi
	testq	%rsi, %rsi
	je	LBB87_293
	shlq	$2, %rsi
	testq	%rsi, %rsi
	je	LBB87_293
	movl	$4, %edx
	movq	%rbx, %rdi
	callq	___rust_dealloc
	jmp	LBB87_293
LBB87_299:
	movq	%r13, %r14
LBB87_300:
	movq	%r14, -208(%rbp)
	movq	-56(%rbp), %rbx
LBB87_301:
	cmpq	%r14, %r13
	movq	-552(%rbp), %r15
	jne	LBB87_318
LBB87_302:
	testq	%rbx, %rbx
	je	LBB87_305
	shlq	$3, %rbx
	leaq	(%rbx,%rbx,8), %rsi
	testq	%rsi, %rsi
	je	LBB87_305
	movl	$8, %edx
	movq	-48(%rbp), %rdi
	callq	___rust_dealloc
LBB87_305:
	movq	-352(%rbp), %rsi
	testq	%rsi, %rsi
	je	LBB87_309
	movq	-360(%rbp), %rdi
	testq	%rdi, %rdi
	je	LBB87_309
	shlq	$3, %rsi
	testq	%rsi, %rsi
	je	LBB87_309
	movl	$4, %edx
	callq	___rust_dealloc
LBB87_309:
	movq	-328(%rbp), %rsi
	testq	%rsi, %rsi
	je	LBB87_313
	movq	-336(%rbp), %rdi
	testq	%rdi, %rdi
	je	LBB87_313
	shlq	$2, %rsi
	testq	%rsi, %rsi
	je	LBB87_313
	movl	$4, %edx
	callq	___rust_dealloc
LBB87_313:
	movq	-432(%rbp), %rax
	movq	-440(%rbp), %rcx
	movq	-448(%rbp), %rdx
	movq	-456(%rbp), %rsi
	movq	-472(%rbp), %rdi
	movq	-464(%rbp), %rbx
	movq	%rdi, -136(%rbp)
	movq	%rbx, -128(%rbp)
	movq	%rsi, -120(%rbp)
	movq	%rdx, -112(%rbp)
	movq	%rcx, -104(%rbp)
	movq	%rax, -96(%rbp)
	movq	-392(%rbp), %rax
	cmpl	$0, 56(%rax)
	je	LBB87_384
	movl	60(%rax), %ebx
	movq	-120(%rbp), %rsi
	cmpq	%rbx, %rsi
	jbe	LBB87_385
	movq	-136(%rbp), %rax
	cmpl	$1, (%rax,%rbx,8)
	jne	LBB87_326
	movl	4(%rax,%rbx,8), %r14d
	jmp	LBB87_330
	.p2align	4, 0x90
LBB87_317:
	addq	$72, %r14
	cmpq	%r13, %r14
	je	LBB87_302
LBB87_318:
	movq	8(%r14), %rsi
	testq	%rsi, %rsi
	je	LBB87_322
	movq	(%r14), %rdi
	testq	%rdi, %rdi
	je	LBB87_322
	shlq	$2, %rsi
	testq	%rsi, %rsi
	je	LBB87_322
	movl	$4, %edx
	callq	___rust_dealloc
LBB87_322:
	movq	32(%r14), %rax
	testq	%rax, %rax
	je	LBB87_317
	movq	24(%r14), %rdi
	testq	%rdi, %rdi
	je	LBB87_317
	shlq	$2, %rax
	leaq	(%rax,%rax,4), %rsi
	testq	%rsi, %rsi
	je	LBB87_317
	movl	$4, %edx
	callq	___rust_dealloc
	jmp	LBB87_317
LBB87_326:
	movq	-96(%rbp), %r14
	movl	$1, (%rax,%rbx,8)
	movl	%r14d, 4(%rax,%rbx,8)
	movq	%r14, %rax
	cmpq	-104(%rbp), %r14
	jne	LBB87_329
	leaq	-112(%rbp), %rdi
Ltmp420:
	movl	$1, %esi
	callq	__ZN5alloc3vec12Vec$LT$T$GT$7reserve17h646b1e4bc926caa2E
Ltmp421:
	movq	-96(%rbp), %rax
LBB87_329:
	movq	-112(%rbp), %rcx
	movl	%ebx, (%rcx,%rax,4)
	incq	%rax
	movq	%rax, -96(%rbp)
LBB87_330:
	movq	-392(%rbp), %rsi
	movl	$1, 56(%rsi)
	movl	%r14d, 60(%rsi)
	movl	$9, %ecx
	movq	%r15, %rdi
	rep;movsq (%rsi), %es:(%rdi)
	movq	-96(%rbp), %rax
	movq	%rax, 112(%r15)
	movq	-104(%rbp), %rax
	movq	%rax, 104(%r15)
	movq	-112(%rbp), %rax
	movq	%rax, 96(%r15)
	movq	-120(%rbp), %rax
	movq	%rax, 88(%r15)
	movq	-136(%rbp), %rax
	movq	-128(%rbp), %rcx
	movq	%rcx, 80(%r15)
	movq	%rax, 72(%r15)
	movq	-536(%rbp), %rsi
	testq	%rsi, %rsi
	je	LBB87_334
	movq	-544(%rbp), %rdi
	testq	%rdi, %rdi
	je	LBB87_334
	shlq	$2, %rsi
	testq	%rsi, %rsi
	je	LBB87_334
	movl	$4, %edx
	callq	___rust_dealloc
LBB87_334:
	movq	%r15, %rax
	addq	$584, %rsp
	popq	%rbx
	popq	%r12
	popq	%r13
	popq	%r14
	popq	%r15
	popq	%rbp
	retq
LBB87_335:
	imulq	$56, %rax, %r14
	addq	%rcx, %r14
	imulq	$56, %rdx, %rbx
	addq	%rcx, %rbx
	jmp	LBB87_337
	.p2align	4, 0x90
LBB87_336:
	addq	$56, %rbx
	cmpq	%r14, %rbx
	je	LBB87_80
LBB87_337:
	movq	8(%rbx), %rax
	testq	%rax, %rax
	je	LBB87_336
	movq	(%rbx), %rdi
	testq	%rdi, %rdi
	je	LBB87_336
	shlq	$2, %rax
	leaq	(%rax,%rax,4), %rsi
	testq	%rsi, %rsi
	je	LBB87_336
	movl	$4, %edx
	callq	___rust_dealloc
	jmp	LBB87_336
LBB87_341:
	imulq	$56, %rax, %r14
	addq	%rcx, %r14
	imulq	$56, %rdx, %rbx
	addq	%rcx, %rbx
	jmp	LBB87_343
	.p2align	4, 0x90
LBB87_342:
	addq	$56, %rbx
	cmpq	%r14, %rbx
	je	LBB87_291
LBB87_343:
	movq	8(%rbx), %rax
	testq	%rax, %rax
	je	LBB87_342
	movq	(%rbx), %rdi
	testq	%rdi, %rdi
	je	LBB87_342
	shlq	$2, %rax
	leaq	(%rax,%rax,4), %rsi
	testq	%rsi, %rsi
	je	LBB87_342
	movl	$4, %edx
	callq	___rust_dealloc
	jmp	LBB87_342
LBB87_347:
Ltmp259:
	leaq	_str.1(%rip), %rdi
	leaq	l___unnamed_46(%rip), %rdx
	movl	$28, %esi
	callq	__ZN4core9panicking5panic17h383a6b80ea7021aaE
Ltmp260:
	jmp	LBB87_350
LBB87_348:
	addq	%rbx, %rdx
	movq	%rdx, -192(%rbp)
	negq	%rcx
	movq	%rcx, -176(%rbp)
Ltmp392:
	leaq	l___unnamed_83(%rip), %rdx
	callq	__ZN4core9panicking18panic_bounds_check17he87128426d100e93E
Ltmp393:
	jmp	LBB87_350
LBB87_349:
	addq	%rbx, %rdx
	movq	%rdx, -192(%rbp)
	negq	%rcx
	movq	%rcx, -176(%rbp)
Ltmp403:
	leaq	l___unnamed_39(%rip), %rdi
	leaq	l___unnamed_84(%rip), %rdx
	movl	$43, %esi
	callq	__ZN4core9panicking5panic17h383a6b80ea7021aaE
Ltmp404:
LBB87_350:
	ud2
LBB87_351:
Ltmp355:
	leaq	l___unnamed_47(%rip), %rdx
	movq	%r8, %rdi
	movq	%rbx, %rsi
	callq	__ZN4core9panicking18panic_bounds_check17he87128426d100e93E
Ltmp356:
	jmp	LBB87_350
LBB87_352:
Ltmp357:
	leaq	l___unnamed_48(%rip), %rdx
	movq	%rbx, %rsi
	callq	__ZN4core9panicking18panic_bounds_check17he87128426d100e93E
Ltmp358:
	jmp	LBB87_350
LBB87_353:
Ltmp365:
	leaq	l___unnamed_85(%rip), %rdx
	movq	%rbx, %rsi
	callq	__ZN4core9panicking18panic_bounds_check17he87128426d100e93E
Ltmp366:
	jmp	LBB87_350
LBB87_354:
Ltmp367:
	movq	%rdx, %rdi
	movq	%rbx, %rsi
	callq	__ZN5alloc3vec12Vec$LT$T$GT$6remove13assert_failed17h3df7ab6555579b82E
Ltmp368:
	jmp	LBB87_350
LBB87_355:
Ltmp371:
	leaq	l___unnamed_49(%rip), %rdx
	movq	%rsi, %rdi
	movq	%r12, %rsi
	callq	__ZN4core5slice22slice_index_order_fail17h65298a4d6b795c79E
Ltmp372:
	jmp	LBB87_350
LBB87_356:
Ltmp369:
	leaq	l___unnamed_49(%rip), %rdx
	movq	%r12, %rdi
	movq	%r15, %rsi
	callq	__ZN4core5slice24slice_end_index_len_fail17hea9e3399ed430f80E
Ltmp370:
	jmp	LBB87_350
LBB87_357:
	movq	%rbx, %rdi
LBB87_358:
Ltmp346:
	leaq	l___unnamed_52(%rip), %rdx
	movq	-64(%rbp), %rsi
	callq	__ZN4core5slice22slice_index_order_fail17h65298a4d6b795c79E
Ltmp347:
	jmp	LBB87_350
LBB87_359:
Ltmp382:
	leaq	l___unnamed_86(%rip), %rdx
	callq	__ZN4core9panicking18panic_bounds_check17he87128426d100e93E
Ltmp383:
	jmp	LBB87_350
LBB87_360:
Ltmp412:
	leaq	l___unnamed_39(%rip), %rdi
	leaq	l___unnamed_84(%rip), %rdx
	movl	$43, %esi
	callq	__ZN4core9panicking5panic17h383a6b80ea7021aaE
Ltmp413:
	jmp	LBB87_350
LBB87_361:
Ltmp410:
	leaq	l___unnamed_83(%rip), %rdx
	callq	__ZN4core9panicking18panic_bounds_check17he87128426d100e93E
Ltmp411:
	jmp	LBB87_350
LBB87_362:
	movq	%r14, %rdi
	movq	%rbx, %rsi
	callq	__ZN5alloc5alloc18handle_alloc_error17h28974197717b8939E
LBB87_363:
Ltmp312:
	callq	__ZN5alloc7raw_vec17capacity_overflow17h7526b10e27579d59E
Ltmp313:
	jmp	LBB87_350
LBB87_364:
	movq	%r15, %rdi
	movq	%r13, %rsi
	callq	__ZN5alloc5alloc18handle_alloc_error17h28974197717b8939E
LBB87_365:
Ltmp400:
	callq	__ZN5alloc7raw_vec17capacity_overflow17h7526b10e27579d59E
Ltmp401:
	jmp	LBB87_350
LBB87_366:
	movl	%edx, %edi
Ltmp387:
	leaq	l___unnamed_83(%rip), %rdx
	callq	__ZN4core9panicking18panic_bounds_check17he87128426d100e93E
Ltmp388:
	jmp	LBB87_350
LBB87_367:
Ltmp406:
	leaq	l___unnamed_39(%rip), %rdi
	leaq	l___unnamed_84(%rip), %rdx
	movl	$43, %esi
	callq	__ZN4core9panicking5panic17h383a6b80ea7021aaE
Ltmp407:
	jmp	LBB87_350
LBB87_368:
Ltmp425:
	leaq	l___unnamed_50(%rip), %rdx
	movq	%rbx, %rdi
	movq	-248(%rbp), %rsi
	callq	__ZN4core5slice26slice_start_index_len_fail17h787e2f1bbfc1d2f3E
Ltmp426:
	jmp	LBB87_350
LBB87_369:
Ltmp269:
	leaq	_str.1(%rip), %rdi
	leaq	l___unnamed_41(%rip), %rdx
	movl	$28, %esi
	callq	__ZN4core9panicking5panic17h383a6b80ea7021aaE
Ltmp270:
	jmp	LBB87_350
LBB87_370:
Ltmp267:
	leaq	_str.0(%rip), %rdi
	leaq	l___unnamed_69(%rip), %rdx
	movl	$33, %esi
	callq	__ZN4core9panicking5panic17h383a6b80ea7021aaE
Ltmp268:
	jmp	LBB87_350
LBB87_371:
Ltmp265:
	leaq	_str.1(%rip), %rdi
	leaq	l___unnamed_69(%rip), %rdx
	movl	$28, %esi
	callq	__ZN4core9panicking5panic17h383a6b80ea7021aaE
Ltmp266:
	jmp	LBB87_350
LBB87_372:
	leaq	-480(%rbp), %rax
	movq	%rax, -360(%rbp)
	leaq	__ZN4core3fmt3num52_$LT$impl$u20$core..fmt..Debug$u20$for$u20$usize$GT$3fmt17h3ce1e8eb3a3c5c0bE(%rip), %rax
	movq	%rax, -352(%rbp)
	movq	%r8, -344(%rbp)
	movq	%rax, -336(%rbp)
	leaq	l___unnamed_66(%rip), %rax
	movq	%rax, -136(%rbp)
	movq	$2, -128(%rbp)
	movq	$0, -120(%rbp)
	leaq	-360(%rbp), %rax
	movq	%rax, -104(%rbp)
	movq	$2, -96(%rbp)
Ltmp261:
	leaq	l___unnamed_67(%rip), %rsi
	leaq	-136(%rbp), %rdi
	callq	__ZN3std9panicking15begin_panic_fmt17h8712912d987f10a1E
Ltmp262:
	jmp	LBB87_350
LBB87_373:
Ltmp263:
	leaq	l___unnamed_68(%rip), %rdx
	callq	__ZN4core9panicking18panic_bounds_check17he87128426d100e93E
Ltmp264:
	jmp	LBB87_350
LBB87_374:
	leaq	-480(%rbp), %rax
	movq	%rax, -360(%rbp)
	leaq	__ZN4core3fmt3num52_$LT$impl$u20$core..fmt..Debug$u20$for$u20$usize$GT$3fmt17h3ce1e8eb3a3c5c0bE(%rip), %rax
	movq	%rax, -352(%rbp)
	movq	%r8, -344(%rbp)
	movq	%rax, -336(%rbp)
	leaq	l___unnamed_66(%rip), %rax
	movq	%rax, -136(%rbp)
	movq	$2, -128(%rbp)
	movq	$0, -120(%rbp)
	leaq	-360(%rbp), %rax
	movq	%rax, -104(%rbp)
	movq	$2, -96(%rbp)
Ltmp271:
	leaq	l___unnamed_67(%rip), %rsi
	leaq	-136(%rbp), %rdi
	callq	__ZN3std9panicking15begin_panic_fmt17h8712912d987f10a1E
Ltmp272:
	jmp	LBB87_350
LBB87_375:
Ltmp279:
	leaq	_str.1(%rip), %rdi
	leaq	l___unnamed_41(%rip), %rdx
	movl	$28, %esi
	callq	__ZN4core9panicking5panic17h383a6b80ea7021aaE
Ltmp280:
	jmp	LBB87_350
LBB87_376:
Ltmp277:
	leaq	_str.0(%rip), %rdi
	leaq	l___unnamed_69(%rip), %rdx
	movl	$33, %esi
	callq	__ZN4core9panicking5panic17h383a6b80ea7021aaE
Ltmp278:
	jmp	LBB87_350
LBB87_377:
Ltmp275:
	leaq	_str.1(%rip), %rdi
	leaq	l___unnamed_69(%rip), %rdx
	movl	$28, %esi
	callq	__ZN4core9panicking5panic17h383a6b80ea7021aaE
Ltmp276:
	jmp	LBB87_350
LBB87_378:
Ltmp315:
	leaq	l___unnamed_73(%rip), %rdx
	movq	-296(%rbp), %rsi
	callq	__ZN4core9panicking18panic_bounds_check17he87128426d100e93E
Ltmp316:
	jmp	LBB87_350
LBB87_379:
Ltmp408:
	leaq	l___unnamed_73(%rip), %rdx
	movq	%r15, %rdi
	movq	-232(%rbp), %rsi
	callq	__ZN4core9panicking18panic_bounds_check17he87128426d100e93E
Ltmp409:
	jmp	LBB87_350
LBB87_380:
	movq	%r14, %rdi
	subq	%rbx, %rdi
	addq	$-2, %rdi
Ltmp350:
	leaq	l___unnamed_51(%rip), %rdx
	movq	%r14, %rsi
	callq	__ZN4core5slice22slice_index_order_fail17h65298a4d6b795c79E
Ltmp351:
	jmp	LBB87_350
LBB87_381:
Ltmp348:
	leaq	l___unnamed_51(%rip), %rdx
	movq	%r14, %rdi
	movq	-248(%rbp), %rsi
	callq	__ZN4core5slice24slice_end_index_len_fail17hea9e3399ed430f80E
Ltmp349:
	jmp	LBB87_350
LBB87_382:
	decq	%r15
	movq	%r15, %rdi
	cmpq	%r15, %r14
	jb	LBB87_358
Ltmp344:
	leaq	l___unnamed_52(%rip), %rdx
	movq	-64(%rbp), %rdi
	movq	-248(%rbp), %rsi
	callq	__ZN4core5slice24slice_end_index_len_fail17hea9e3399ed430f80E
Ltmp345:
	jmp	LBB87_350
LBB87_384:
Ltmp422:
	leaq	l___unnamed_39(%rip), %rdi
	leaq	l___unnamed_63(%rip), %rdx
	movl	$43, %esi
	callq	__ZN4core9panicking5panic17h383a6b80ea7021aaE
Ltmp423:
	jmp	LBB87_350
LBB87_385:
Ltmp418:
	leaq	l___unnamed_87(%rip), %rdx
	movq	%rbx, %rdi
	callq	__ZN4core9panicking18panic_bounds_check17he87128426d100e93E
Ltmp419:
	jmp	LBB87_350
LBB87_386:
Ltmp374:
	callq	__ZN5alloc7raw_vec17capacity_overflow17h7526b10e27579d59E
Ltmp375:
	jmp	LBB87_350
LBB87_387:
Ltmp317:
	movq	%rax, %r15
	jmp	LBB87_428
LBB87_388:
Ltmp427:
	movq	%rax, %r15
	jmp	LBB87_434
LBB87_389:
Ltmp402:
	jmp	LBB87_417
LBB87_390:
Ltmp314:
	jmp	LBB87_417
LBB87_391:
Ltmp414:
	movq	%rax, %r15
	jmp	LBB87_428
LBB87_392:
Ltmp373:
	movq	%rax, %r15
	jmp	LBB87_432
LBB87_393:
Ltmp405:
	movq	%rax, %r15
