	.section	__TEXT,__text,regular,pure_instructions
	.macosx_version_min 10, 7
	.p2align	4, 0x90
__ZN36_$LT$T$u20$as$u20$core..any..Any$GT$7type_id17hdc31ce82b44dd79bE:
	.cfi_startproc
	pushq	%rbp
	.cfi_def_cfa_offset 16
	.cfi_offset %rbp, -16
	movq	%rsp, %rbp
	.cfi_def_cfa_register %rbp
	movabsq	$1229646359891580772, %rax
	popq	%rbp
	retq
	.cfi_endproc

	.p2align	4, 0x90
__ZN3std9panicking11begin_panic17h2ddb6a6df57cd01aE:
	.cfi_startproc
	pushq	%rbp
	.cfi_def_cfa_offset 16
	.cfi_offset %rbp, -16
	movq	%rsp, %rbp
	.cfi_def_cfa_register %rbp
	subq	$16, %rsp
	movq	%rdi, -16(%rbp)
	movq	%rsi, -8(%rbp)
	movq	%rdx, %rdi
	callq	__ZN4core5panic8Location6caller17hf55c9a52d6249cfcE
	leaq	l___unnamed_1(%rip), %rsi
	leaq	-16(%rbp), %rdi
	xorl	%edx, %edx
	movq	%rax, %rcx
	callq	__ZN3std9panicking20rust_panic_with_hook17hf8b9378dd2e7986aE
	.cfi_endproc

	.p2align	4, 0x90
__ZN42_$LT$$RF$T$u20$as$u20$core..fmt..Debug$GT$3fmt17h0f8fdbdf4bdb9ea5E:
	.cfi_startproc
	pushq	%rbp
	.cfi_def_cfa_offset 16
	.cfi_offset %rbp, -16
	movq	%rsp, %rbp
	.cfi_def_cfa_register %rbp
	pushq	%r14
	pushq	%rbx
	subq	$32, %rsp
	.cfi_offset %rbx, -32
	.cfi_offset %r14, -24
	movq	(%rdi), %rbx
	leaq	l___unnamed_2(%rip), %rdx
	leaq	-40(%rbp), %r14
	movl	$7, %ecx
	movq	%r14, %rdi
	callq	__ZN4core3fmt9Formatter12debug_struct17h985c0158d1fc7193E
	movq	%rbx, -24(%rbp)
	addq	$16, %rbx
	leaq	l___unnamed_3(%rip), %rsi
	leaq	l___unnamed_4(%rip), %r8
	leaq	-24(%rbp), %rcx
	movl	$5, %edx
	movq	%r14, %rdi
	callq	__ZN4core3fmt8builders11DebugStruct5field17h9c15dc155278eed2E
	movq	%rbx, -24(%rbp)
	leaq	L___unnamed_5(%rip), %rsi
	leaq	l___unnamed_6(%rip), %r8
	leaq	-24(%rbp), %rcx
	movl	$8, %edx
	movq	%r14, %rdi
	callq	__ZN4core3fmt8builders11DebugStruct5field17h9c15dc155278eed2E
	movq	%r14, %rdi
	callq	__ZN4core3fmt8builders11DebugStruct6finish17h26808393f3fed630E
	addq	$32, %rsp
	popq	%rbx
	popq	%r14
	popq	%rbp
	retq
	.cfi_endproc

	.p2align	4, 0x90
__ZN42_$LT$$RF$T$u20$as$u20$core..fmt..Debug$GT$3fmt17h1e6c6688596647ffE:
	.cfi_startproc
	pushq	%rbp
	.cfi_def_cfa_offset 16
	.cfi_offset %rbp, -16
	movq	%rsp, %rbp
	.cfi_def_cfa_register %rbp
	pushq	%r15
	pushq	%r14
	pushq	%r13
	pushq	%r12
	pushq	%rbx
	subq	$24, %rsp
	.cfi_offset %rbx, -56
	.cfi_offset %r12, -48
	.cfi_offset %r13, -40
	.cfi_offset %r14, -32
	.cfi_offset %r15, -24
	movq	(%rdi), %rax
	movq	(%rax), %rbx
	movq	16(%rax), %r13
	leaq	-64(%rbp), %rdi
	callq	__ZN4core3fmt9Formatter10debug_list17hd054f0986422feb9E
	testq	%r13, %r13
	je	LBB3_3
	shlq	$2, %r13
	leaq	l___unnamed_7(%rip), %r14
	leaq	-64(%rbp), %r15
	leaq	-48(%rbp), %r12
	.p2align	4, 0x90
LBB3_2:
	movq	%rbx, -48(%rbp)
	movq	%r15, %rdi
	movq	%r12, %rsi
	movq	%r14, %rdx
	callq	__ZN4core3fmt8builders9DebugList5entry17h5c0dec54538196dfE
	addq	$4, %rbx
	addq	$-4, %r13
	jne	LBB3_2
LBB3_3:
	leaq	-64(%rbp), %rdi
	callq	__ZN4core3fmt8builders9DebugList6finish17h3635bd6af9b1c5a6E
	addq	$24, %rsp
	popq	%rbx
	popq	%r12
	popq	%r13
	popq	%r14
	popq	%r15
	popq	%rbp
	retq
	.cfi_endproc

	.p2align	4, 0x90
__ZN42_$LT$$RF$T$u20$as$u20$core..fmt..Debug$GT$3fmt17h41b2b8bde477f24aE:
	.cfi_startproc
	pushq	%rbp
	.cfi_def_cfa_offset 16
	.cfi_offset %rbp, -16
	movq	%rsp, %rbp
	.cfi_def_cfa_register %rbp
	subq	$80, %rsp
	movq	%rsi, %rax
	movq	(%rdi), %rcx
	cmpl	$-1, (%rcx)
	je	LBB4_2
	movq	%rcx, -56(%rbp)
	leaq	-56(%rbp), %rcx
	movq	%rcx, -72(%rbp)
	leaq	__ZN42_$LT$$RF$T$u20$as$u20$core..fmt..Debug$GT$3fmt17hf482ec6d57420213E(%rip), %rcx
	movq	%rcx, -64(%rbp)
	leaq	l___unnamed_8(%rip), %rcx
	movq	%rcx, -48(%rbp)
	movq	$2, -40(%rbp)
	movq	$0, -32(%rbp)
	leaq	-72(%rbp), %rcx
	movq	%rcx, -16(%rbp)
	movq	$1, -8(%rbp)
	jmp	LBB4_3
LBB4_2:
	leaq	l___unnamed_9(%rip), %rcx
	movq	%rcx, -48(%rbp)
	movq	$1, -40(%rbp)
	movq	$0, -32(%rbp)
	leaq	l___unnamed_10(%rip), %rcx
	movq	%rcx, -16(%rbp)
	movq	$0, -8(%rbp)
LBB4_3:
	leaq	-48(%rbp), %rsi
	movq	%rax, %rdi
	callq	__ZN4core3fmt9Formatter9write_fmt17h3dc2bf45afed3069E
	addq	$80, %rsp
	popq	%rbp
	retq
	.cfi_endproc

	.p2align	4, 0x90
__ZN42_$LT$$RF$T$u20$as$u20$core..fmt..Debug$GT$3fmt17h4283806c535e7d9eE:
	.cfi_startproc
	pushq	%rbp
	.cfi_def_cfa_offset 16
	.cfi_offset %rbp, -16
	movq	%rsp, %rbp
	.cfi_def_cfa_register %rbp
	pushq	%r14
	pushq	%rbx
	subq	$32, %rsp
	.cfi_offset %rbx, -32
	.cfi_offset %r14, -24
	movq	(%rdi), %rbx
	cmpl	$1, (%rbx)
	jne	LBB5_2
	addq	$4, %rbx
	leaq	-48(%rbp), %r14
	leaq	L___unnamed_11(%rip), %rdx
	movl	$4, %ecx
	movq	%r14, %rdi
	callq	__ZN4core3fmt9Formatter11debug_tuple17h15ca25ad759edd1cE
	movq	%rbx, -24(%rbp)
	leaq	l___unnamed_12(%rip), %rdx
	leaq	-24(%rbp), %rsi
	movq	%r14, %rdi
	callq	__ZN4core3fmt8builders10DebugTuple5field17hf36121153a94f236E
	jmp	LBB5_3
LBB5_2:
	leaq	-48(%rbp), %r14
	leaq	L___unnamed_13(%rip), %rdx
	movl	$4, %ecx
	movq	%r14, %rdi
	callq	__ZN4core3fmt9Formatter11debug_tuple17h15ca25ad759edd1cE
LBB5_3:
	movq	%r14, %rdi
	callq	__ZN4core3fmt8builders10DebugTuple6finish17h68acf09c6f6593f2E
	addq	$32, %rsp
	popq	%rbx
	popq	%r14
	popq	%rbp
	retq
	.cfi_endproc

	.p2align	4, 0x90
__ZN42_$LT$$RF$T$u20$as$u20$core..fmt..Debug$GT$3fmt17h53d89b583adffa12E:
	.cfi_startproc
	pushq	%rbp
	.cfi_def_cfa_offset 16
	.cfi_offset %rbp, -16
	movq	%rsp, %rbp
	.cfi_def_cfa_register %rbp
	pushq	%rbx
	subq	$24, %rsp
	.cfi_offset %rbx, -24
	movq	(%rdi), %rax
	cmpb	$1, (%rax)
	jne	LBB6_2
	leaq	-32(%rbp), %rbx
	leaq	l___unnamed_14(%rip), %rdx
	movl	$11, %ecx
	jmp	LBB6_3
LBB6_2:
	leaq	-32(%rbp), %rbx
	leaq	l___unnamed_15(%rip), %rdx
	movl	$3, %ecx
LBB6_3:
	movq	%rbx, %rdi
	callq	__ZN4core3fmt9Formatter11debug_tuple17h15ca25ad759edd1cE
	movq	%rbx, %rdi
	callq	__ZN4core3fmt8builders10DebugTuple6finish17h68acf09c6f6593f2E
	addq	$24, %rsp
	popq	%rbx
	popq	%rbp
	retq
	.cfi_endproc

	.p2align	4, 0x90
__ZN42_$LT$$RF$T$u20$as$u20$core..fmt..Debug$GT$3fmt17h58959aeafe8b1518E:
	.cfi_startproc
	pushq	%rbp
	.cfi_def_cfa_offset 16
	.cfi_offset %rbp, -16
	movq	%rsp, %rbp
	.cfi_def_cfa_register %rbp
	pushq	%r14
	pushq	%rbx
	subq	$32, %rsp
	.cfi_offset %rbx, -32
	.cfi_offset %r14, -24
	movq	(%rdi), %rbx
	cmpl	$1, (%rbx)
	jne	LBB7_2
	addq	$4, %rbx
	leaq	-48(%rbp), %r14
	leaq	L___unnamed_11(%rip), %rdx
	movl	$4, %ecx
	movq	%r14, %rdi
	callq	__ZN4core3fmt9Formatter11debug_tuple17h15ca25ad759edd1cE
	movq	%rbx, -24(%rbp)
	leaq	l___unnamed_7(%rip), %rdx
	leaq	-24(%rbp), %rsi
	movq	%r14, %rdi
	callq	__ZN4core3fmt8builders10DebugTuple5field17hf36121153a94f236E
	jmp	LBB7_3
LBB7_2:
	leaq	-48(%rbp), %r14
	leaq	L___unnamed_13(%rip), %rdx
	movl	$4, %ecx
	movq	%r14, %rdi
	callq	__ZN4core3fmt9Formatter11debug_tuple17h15ca25ad759edd1cE
LBB7_3:
	movq	%r14, %rdi
	callq	__ZN4core3fmt8builders10DebugTuple6finish17h68acf09c6f6593f2E
	addq	$32, %rsp
	popq	%rbx
	popq	%r14
	popq	%rbp
	retq
	.cfi_endproc

	.p2align	4, 0x90
__ZN42_$LT$$RF$T$u20$as$u20$core..fmt..Debug$GT$3fmt17h5ac0b4d3a18c7b7bE:
	.cfi_startproc
	pushq	%rbp
	.cfi_def_cfa_offset 16
	.cfi_offset %rbp, -16
	movq	%rsp, %rbp
	.cfi_def_cfa_register %rbp
	pushq	%r15
	pushq	%r14
	pushq	%r13
	pushq	%r12
	pushq	%rbx
	subq	$24, %rsp
	.cfi_offset %rbx, -56
	.cfi_offset %r12, -48
	.cfi_offset %r13, -40
	.cfi_offset %r14, -32
	.cfi_offset %r15, -24
	movq	(%rdi), %rax
	movq	(%rax), %rbx
	movq	16(%rax), %r13
	leaq	-64(%rbp), %rdi
	callq	__ZN4core3fmt9Formatter10debug_list17hd054f0986422feb9E
	testq	%r13, %r13
	je	LBB8_3
	shlq	$3, %r13
	leaq	l___unnamed_16(%rip), %r14
	leaq	-64(%rbp), %r15
	leaq	-48(%rbp), %r12
	.p2align	4, 0x90
LBB8_2:
	movq	%rbx, -48(%rbp)
	addq	$8, %rbx
	movq	%r15, %rdi
	movq	%r12, %rsi
	movq	%r14, %rdx
	callq	__ZN4core3fmt8builders9DebugList5entry17h5c0dec54538196dfE
	addq	$-8, %r13
	jne	LBB8_2
LBB8_3:
	leaq	-64(%rbp), %rdi
	callq	__ZN4core3fmt8builders9DebugList6finish17h3635bd6af9b1c5a6E
	addq	$24, %rsp
	popq	%rbx
	popq	%r12
	popq	%r13
	popq	%r14
	popq	%r15
	popq	%rbp
	retq
	.cfi_endproc

	.p2align	4, 0x90
__ZN42_$LT$$RF$T$u20$as$u20$core..fmt..Debug$GT$3fmt17h6f45e7bc77260f5eE:
	.cfi_startproc
	pushq	%rbp
	.cfi_def_cfa_offset 16
	.cfi_offset %rbp, -16
	movq	%rsp, %rbp
	.cfi_def_cfa_register %rbp
	movq	(%rdi), %rdi
	popq	%rbp
	jmp	__ZN43_$LT$bool$u20$as$u20$core..fmt..Display$GT$3fmt17hf36463fa8b480ab4E
	.cfi_endproc

	.p2align	4, 0x90
__ZN42_$LT$$RF$T$u20$as$u20$core..fmt..Debug$GT$3fmt17h985d345779c1aa9bE:
	.cfi_startproc
	pushq	%rbp
	.cfi_def_cfa_offset 16
	.cfi_offset %rbp, -16
	movq	%rsp, %rbp
	.cfi_def_cfa_register %rbp
	pushq	%r14
	pushq	%rbx
	subq	$32, %rsp
	.cfi_offset %rbx, -32
	.cfi_offset %r14, -24
	movq	(%rdi), %rax
	movq	(%rax), %rbx
	addq	$16, %rbx
	leaq	L___unnamed_17(%rip), %rdx
	leaq	-40(%rbp), %r14
	movl	$8, %ecx
	movq	%r14, %rdi
	callq	__ZN4core3fmt9Formatter12debug_struct17h985c0158d1fc7193E
	movq	%rbx, -24(%rbp)
	leaq	l___unnamed_18(%rip), %rsi
	leaq	l___unnamed_19(%rip), %r8
	leaq	-24(%rbp), %rcx
	movl	$3, %edx
	movq	%r14, %rdi
	callq	__ZN4core3fmt8builders11DebugStruct5field17h9c15dc155278eed2E
	movq	%r14, %rdi
	callq	__ZN4core3fmt8builders11DebugStruct6finish17h26808393f3fed630E
	addq	$32, %rsp
	popq	%rbx
	popq	%r14
	popq	%rbp
	retq
	.cfi_endproc

	.p2align	4, 0x90
__ZN42_$LT$$RF$T$u20$as$u20$core..fmt..Debug$GT$3fmt17h9e0664cfe21bb474E:
	.cfi_startproc
	pushq	%rbp
	.cfi_def_cfa_offset 16
	.cfi_offset %rbp, -16
	movq	%rsp, %rbp
	.cfi_def_cfa_register %rbp
	pushq	%r14
	pushq	%rbx
	subq	$32, %rsp
	.cfi_offset %rbx, -32
	.cfi_offset %r14, -24
	movq	(%rdi), %rbx
	cmpl	$1, (%rbx)
	jne	LBB11_2
	addq	$4, %rbx
	leaq	-48(%rbp), %r14
	leaq	L___unnamed_11(%rip), %rdx
	movl	$4, %ecx
	movq	%r14, %rdi
	callq	__ZN4core3fmt9Formatter11debug_tuple17h15ca25ad759edd1cE
	movq	%rbx, -24(%rbp)
	leaq	l___unnamed_20(%rip), %rdx
	leaq	-24(%rbp), %rsi
	movq	%r14, %rdi
	callq	__ZN4core3fmt8builders10DebugTuple5field17hf36121153a94f236E
	jmp	LBB11_3
LBB11_2:
	leaq	-48(%rbp), %r14
	leaq	L___unnamed_13(%rip), %rdx
	movl	$4, %ecx
	movq	%r14, %rdi
	callq	__ZN4core3fmt9Formatter11debug_tuple17h15ca25ad759edd1cE
LBB11_3:
	movq	%r14, %rdi
	callq	__ZN4core3fmt8builders10DebugTuple6finish17h68acf09c6f6593f2E
	addq	$32, %rsp
	popq	%rbx
	popq	%r14
	popq	%rbp
	retq
	.cfi_endproc

	.p2align	4, 0x90
__ZN42_$LT$$RF$T$u20$as$u20$core..fmt..Debug$GT$3fmt17h9f5b288b7520c49cE:
	.cfi_startproc
	pushq	%rbp
	.cfi_def_cfa_offset 16
	.cfi_offset %rbp, -16
	movq	%rsp, %rbp
	.cfi_def_cfa_register %rbp
	pushq	%r15
	pushq	%r14
	pushq	%r13
	pushq	%r12
	pushq	%rbx
	subq	$136, %rsp
	.cfi_offset %rbx, -56
	.cfi_offset %r12, -48
	.cfi_offset %r13, -40
	.cfi_offset %r14, -32
	.cfi_offset %r15, -24
	movq	(%rdi), %r14
	leaq	-168(%rbp), %rdi
	callq	__ZN4core3fmt9Formatter9debug_map17h5cea039dab7ad6bbE
	movq	(%r14), %rcx
	testq	%rcx, %rcx
	je	LBB12_1
	movq	8(%r14), %rsi
	movzwl	10(%rcx), %edx
	testq	%rsi, %rsi
	je	LBB12_3
	movb	$1, %bl
	movq	%rcx, %r8
	.p2align	4, 0x90
LBB12_6:
	testb	$1, %bl
	je	LBB12_4
	cmpq	$1, %rsi
	setne	%bl
	movq	72(%r8), %r8
	movq	72(%rcx,%rdx,8), %rcx
	movzwl	10(%rcx), %edx
	decq	%rsi
	jne	LBB12_6
	jmp	LBB12_8
LBB12_1:
	xorl	%ecx, %ecx
	xorl	%r8d, %r8d
	xorl	%esi, %esi
	jmp	LBB12_9
LBB12_3:
	movq	%rcx, %r8
LBB12_8:
	movq	16(%r14), %rsi
	vxorps	%xmm0, %xmm0, %xmm0
	vmovaps	%xmm0, -64(%rbp)
	movq	$0, -48(%rbp)
LBB12_9:
	movq	$0, -136(%rbp)
	movq	%r8, -128(%rbp)
	vmovaps	-64(%rbp), %xmm0
	vmovups	%xmm0, -120(%rbp)
	movq	-48(%rbp), %rax
	movq	%rax, -104(%rbp)
	movq	%rcx, -96(%rbp)
	movq	$0, -88(%rbp)
	movq	%rdx, -80(%rbp)
	movq	%rsi, -72(%rbp)
	testq	%rsi, %rsi
	je	LBB12_28
	leaq	l___unnamed_21(%rip), %r15
	leaq	-168(%rbp), %r12
	leaq	-144(%rbp), %r13
	leaq	-152(%rbp), %r14
	.p2align	4, 0x90
LBB12_11:
	decq	%rsi
	movq	%rsi, -72(%rbp)
	testq	%r8, %r8
	leaq	-136(%rbp), %rax
	cmovneq	%rax, %r8
	movq	(%r8), %rbx
	movq	8(%r8), %rcx
	movq	24(%r8), %rdx
	movzwl	10(%rcx), %eax
	cmpq	%rax, %rdx
	jb	LBB12_16
	.p2align	4, 0x90
LBB12_12:
	movq	(%rcx), %rsi
	testq	%rsi, %rsi
	je	LBB12_13
	incq	%rbx
	movzwl	8(%rcx), %edx
	movq	%rsi, %rcx
	cmpw	10(%rsi), %dx
	jae	LBB12_12
	movq	%rsi, %rcx
LBB12_16:
	testq	%rbx, %rbx
	je	LBB12_17
LBB12_18:
	movq	%rbx, %rsi
	movq	80(%rcx,%rdx,8), %rdi
	decq	%rsi
	je	LBB12_25
	addq	$-2, %rbx
	movq	%rsi, %r9
	andq	$7, %r9
	je	LBB12_23
	xorl	%eax, %eax
	.p2align	4, 0x90
LBB12_21:
	movq	72(%rdi), %rdi
	incq	%rax
	cmpq	%rax, %r9
	jne	LBB12_21
	subq	%rax, %rsi
LBB12_23:
	cmpq	$7, %rbx
	jb	LBB12_25
	.p2align	4, 0x90
LBB12_24:
	movq	72(%rdi), %rax
	movq	72(%rax), %rax
	movq	72(%rax), %rax
	movq	72(%rax), %rax
	movq	72(%rax), %rax
	movq	72(%rax), %rax
	movq	72(%rax), %rax
	movq	72(%rax), %rdi
	addq	$-8, %rsi
	jne	LBB12_24
LBB12_25:
	xorl	%eax, %eax
	jmp	LBB12_26
	.p2align	4, 0x90
LBB12_13:
	xorl	%ecx, %ecx
	testq	%rbx, %rbx
	jne	LBB12_18
LBB12_17:
	leaq	1(%rdx), %rax
	movq	%rcx, %rdi
LBB12_26:
	leaq	(%rcx,%rdx,4), %rsi
	addq	$12, %rsi
	leaq	56(%rcx,%rdx), %rcx
	movq	$0, (%r8)
	movq	%rdi, 8(%r8)
	movq	%rax, 24(%r8)
	movq	%rsi, -144(%rbp)
	movq	%rcx, -152(%rbp)
	movq	%r12, %rdi
	movq	%r13, %rsi
	leaq	l___unnamed_7(%rip), %rdx
	movq	%r14, %rcx
	movq	%r15, %r8
	callq	__ZN4core3fmt8builders8DebugMap5entry17h653834b3ad194ffcE
	movq	-72(%rbp), %rsi
	testq	%rsi, %rsi
	je	LBB12_28
	movq	-128(%rbp), %r8
	jmp	LBB12_11
LBB12_28:
	leaq	-168(%rbp), %rdi
	callq	__ZN4core3fmt8builders8DebugMap6finish17h655b3836bbc58824E
	addq	$136, %rsp
	popq	%rbx
	popq	%r12
	popq	%r13
	popq	%r14
	popq	%r15
	popq	%rbp
	retq
LBB12_4:
	leaq	__ZN44_$LT$$RF$T$u20$as$u20$core..fmt..Display$GT$3fmt17h3abf2c68d2acb762E(%rip), %rax
	vmovq	%rax, %xmm0
	leaq	l___unnamed_22(%rip), %rax
	vmovq	%rax, %xmm1
	vpunpcklqdq	%xmm0, %xmm1, %xmm0
	vmovdqa	%xmm0, -64(%rbp)
	leaq	l___unnamed_23(%rip), %rax
	movq	%rax, -136(%rbp)
	movq	$1, -128(%rbp)
	movq	$0, -120(%rbp)
	leaq	-64(%rbp), %rax
	movq	%rax, -104(%rbp)
	movq	$1, -96(%rbp)
	leaq	l___unnamed_24(%rip), %rsi
	leaq	-136(%rbp), %rdi
	callq	__ZN4core9panicking9panic_fmt17hab6ef1464e9720aaE
	.cfi_endproc

	.p2align	4, 0x90
__ZN42_$LT$$RF$T$u20$as$u20$core..fmt..Debug$GT$3fmt17hb10aaaadb42ac7beE:
	.cfi_startproc
	pushq	%rbp
	.cfi_def_cfa_offset 16
	.cfi_offset %rbp, -16
	movq	%rsp, %rbp
	.cfi_def_cfa_register %rbp
	pushq	%r15
	pushq	%r14
	pushq	%r13
	pushq	%r12
	pushq	%rbx
	subq	$136, %rsp
	.cfi_offset %rbx, -56
	.cfi_offset %r12, -48
	.cfi_offset %r13, -40
	.cfi_offset %r14, -32
	.cfi_offset %r15, -24
	movq	(%rdi), %r14
	leaq	-168(%rbp), %rdi
	callq	__ZN4core3fmt9Formatter9debug_map17h5cea039dab7ad6bbE
	movq	(%r14), %rcx
	testq	%rcx, %rcx
	je	LBB13_1
	movq	8(%r14), %rsi
	movzwl	10(%rcx), %edx
	testq	%rsi, %rsi
	je	LBB13_3
	movb	$1, %bl
	movq	%rcx, %r8
	.p2align	4, 0x90
LBB13_6:
	testb	$1, %bl
	je	LBB13_4
	cmpq	$1, %rsi
	setne	%bl
	movq	104(%r8), %r8
	movq	104(%rcx,%rdx,8), %rcx
	movzwl	10(%rcx), %edx
	decq	%rsi
	jne	LBB13_6
	jmp	LBB13_8
LBB13_1:
	xorl	%ecx, %ecx
	xorl	%r8d, %r8d
	xorl	%esi, %esi
	jmp	LBB13_9
LBB13_3:
	movq	%rcx, %r8
LBB13_8:
	movq	16(%r14), %rsi
	vxorps	%xmm0, %xmm0, %xmm0
	vmovaps	%xmm0, -64(%rbp)
	movq	$0, -48(%rbp)
LBB13_9:
	movq	$0, -136(%rbp)
	movq	%r8, -128(%rbp)
	vmovaps	-64(%rbp), %xmm0
	vmovups	%xmm0, -120(%rbp)
	movq	-48(%rbp), %rax
	movq	%rax, -104(%rbp)
	movq	%rcx, -96(%rbp)
	movq	$0, -88(%rbp)
	movq	%rdx, -80(%rbp)
	movq	%rsi, -72(%rbp)
	testq	%rsi, %rsi
	je	LBB13_28
	leaq	l___unnamed_12(%rip), %r15
	leaq	-168(%rbp), %r12
	leaq	-144(%rbp), %r13
	leaq	-152(%rbp), %r14
	.p2align	4, 0x90
LBB13_11:
	decq	%rsi
	movq	%rsi, -72(%rbp)
	testq	%r8, %r8
	leaq	-136(%rbp), %rax
	cmovneq	%rax, %r8
	movq	(%r8), %rbx
	movq	8(%r8), %rcx
	movq	24(%r8), %rdx
	movzwl	10(%rcx), %eax
	cmpq	%rax, %rdx
	jb	LBB13_16
	.p2align	4, 0x90
LBB13_12:
	movq	(%rcx), %rsi
	testq	%rsi, %rsi
	je	LBB13_13
	incq	%rbx
	movzwl	8(%rcx), %edx
	movq	%rsi, %rcx
	cmpw	10(%rsi), %dx
	jae	LBB13_12
	movq	%rsi, %rcx
LBB13_16:
	testq	%rbx, %rbx
	je	LBB13_17
LBB13_18:
	movq	%rbx, %rsi
	movq	112(%rcx,%rdx,8), %rdi
	decq	%rsi
	je	LBB13_25
	addq	$-2, %rbx
	movq	%rsi, %r9
	andq	$7, %r9
	je	LBB13_23
	xorl	%eax, %eax
	.p2align	4, 0x90
LBB13_21:
	movq	104(%rdi), %rdi
	incq	%rax
	cmpq	%rax, %r9
	jne	LBB13_21
	subq	%rax, %rsi
LBB13_23:
	cmpq	$7, %rbx
	jb	LBB13_25
	.p2align	4, 0x90
LBB13_24:
	movq	104(%rdi), %rax
	movq	104(%rax), %rax
	movq	104(%rax), %rax
	movq	104(%rax), %rax
	movq	104(%rax), %rax
	movq	104(%rax), %rax
	movq	104(%rax), %rax
	movq	104(%rax), %rdi
	addq	$-8, %rsi
	jne	LBB13_24
LBB13_25:
	xorl	%eax, %eax
	jmp	LBB13_26
	.p2align	4, 0x90
LBB13_13:
	xorl	%ecx, %ecx
	testq	%rbx, %rbx
	jne	LBB13_18
LBB13_17:
	leaq	1(%rdx), %rax
	movq	%rcx, %rdi
LBB13_26:
	leaq	(%rcx,%rdx,4), %rsi
	addq	$12, %rsi
	leaq	56(%rcx,%rdx,4), %rcx
	movq	$0, (%r8)
	movq	%rdi, 8(%r8)
	movq	%rax, 24(%r8)
	movq	%rsi, -144(%rbp)
	movq	%rcx, -152(%rbp)
	movq	%r12, %rdi
	movq	%r13, %rsi
	leaq	l___unnamed_7(%rip), %rdx
	movq	%r14, %rcx
	movq	%r15, %r8
	callq	__ZN4core3fmt8builders8DebugMap5entry17h653834b3ad194ffcE
	movq	-72(%rbp), %rsi
	testq	%rsi, %rsi
	je	LBB13_28
	movq	-128(%rbp), %r8
	jmp	LBB13_11
LBB13_28:
	leaq	-168(%rbp), %rdi
	callq	__ZN4core3fmt8builders8DebugMap6finish17h655b3836bbc58824E
	addq	$136, %rsp
	popq	%rbx
	popq	%r12
	popq	%r13
	popq	%r14
	popq	%r15
	popq	%rbp
	retq
LBB13_4:
	leaq	__ZN44_$LT$$RF$T$u20$as$u20$core..fmt..Display$GT$3fmt17h3abf2c68d2acb762E(%rip), %rax
	vmovq	%rax, %xmm0
	leaq	l___unnamed_22(%rip), %rax
	vmovq	%rax, %xmm1
	vpunpcklqdq	%xmm0, %xmm1, %xmm0
	vmovdqa	%xmm0, -64(%rbp)
	leaq	l___unnamed_23(%rip), %rax
	movq	%rax, -136(%rbp)
	movq	$1, -128(%rbp)
	movq	$0, -120(%rbp)
	leaq	-64(%rbp), %rax
	movq	%rax, -104(%rbp)
	movq	$1, -96(%rbp)
	leaq	l___unnamed_24(%rip), %rsi
	leaq	-136(%rbp), %rdi
	callq	__ZN4core9panicking9panic_fmt17hab6ef1464e9720aaE
	.cfi_endproc

	.p2align	4, 0x90
__ZN42_$LT$$RF$T$u20$as$u20$core..fmt..Debug$GT$3fmt17hb6f256cdbf630b38E:
	.cfi_startproc
	pushq	%rbp
	.cfi_def_cfa_offset 16
	.cfi_offset %rbp, -16
	movq	%rsp, %rbp
	.cfi_def_cfa_register %rbp
	pushq	%r15
	pushq	%r14
	pushq	%r13
	pushq	%r12
	pushq	%rbx
	subq	$24, %rsp
	.cfi_offset %rbx, -56
	.cfi_offset %r12, -48
	.cfi_offset %r13, -40
	.cfi_offset %r14, -32
	.cfi_offset %r15, -24
	movq	(%rdi), %rax
	movq	(%rax), %r13
	movq	16(%rax), %rbx
	leaq	-64(%rbp), %rdi
	callq	__ZN4core3fmt9Formatter10debug_list17hd054f0986422feb9E
	testq	%rbx, %rbx
	je	LBB14_3
	shlq	$2, %rbx
	leaq	(%rbx,%rbx,4), %rbx
	leaq	l___unnamed_25(%rip), %r14
	leaq	-64(%rbp), %r15
	leaq	-48(%rbp), %r12
	.p2align	4, 0x90
LBB14_2:
	movq	%r13, -48(%rbp)
	addq	$20, %r13
	movq	%r15, %rdi
	movq	%r12, %rsi
	movq	%r14, %rdx
	callq	__ZN4core3fmt8builders9DebugList5entry17h5c0dec54538196dfE
	addq	$-20, %rbx
	jne	LBB14_2
LBB14_3:
	leaq	-64(%rbp), %rdi
	callq	__ZN4core3fmt8builders9DebugList6finish17h3635bd6af9b1c5a6E
	addq	$24, %rsp
	popq	%rbx
	popq	%r12
	popq	%r13
	popq	%r14
	popq	%r15
	popq	%rbp
	retq
	.cfi_endproc

	.p2align	4, 0x90
__ZN42_$LT$$RF$T$u20$as$u20$core..fmt..Debug$GT$3fmt17hc2fcb1c2c88dc071E:
	.cfi_startproc
	pushq	%rbp
	.cfi_def_cfa_offset 16
	.cfi_offset %rbp, -16
	movq	%rsp, %rbp
	.cfi_def_cfa_register %rbp
	pushq	%r14
	pushq	%rbx
	subq	$32, %rsp
	.cfi_offset %rbx, -32
	.cfi_offset %r14, -24
	movq	(%rdi), %rbx
	leaq	l___unnamed_26(%rip), %rdx
	leaq	-48(%rbp), %r14
	movl	$6, %ecx
	movq	%r14, %rdi
	callq	__ZN4core3fmt9Formatter11debug_tuple17h15ca25ad759edd1cE
	movq	%rbx, -24(%rbp)
	leaq	l___unnamed_12(%rip), %rdx
	leaq	-24(%rbp), %rsi
	movq	%r14, %rdi
	callq	__ZN4core3fmt8builders10DebugTuple5field17hf36121153a94f236E
	movq	%r14, %rdi
	callq	__ZN4core3fmt8builders10DebugTuple6finish17h68acf09c6f6593f2E
	addq	$32, %rsp
	popq	%rbx
	popq	%r14
	popq	%rbp
	retq
	.cfi_endproc

	.p2align	4, 0x90
__ZN42_$LT$$RF$T$u20$as$u20$core..fmt..Debug$GT$3fmt17hcbecb170a3c25321E:
	.cfi_startproc
	pushq	%rbp
	.cfi_def_cfa_offset 16
	.cfi_offset %rbp, -16
	movq	%rsp, %rbp
	.cfi_def_cfa_register %rbp
	pushq	%r14
	pushq	%rbx
	.cfi_offset %rbx, -32
	.cfi_offset %r14, -24
	movq	%rsi, %rbx
	movq	(%rdi), %r14
	movq	%rsi, %rdi
	callq	__ZN4core3fmt9Formatter15debug_lower_hex17h8530fbaeba13f4d9E
	testb	%al, %al
	je	LBB16_1
	movq	%r14, %rdi
	movq	%rbx, %rsi
	popq	%rbx
	popq	%r14
	popq	%rbp
	jmp	__ZN4core3fmt3num55_$LT$impl$u20$core..fmt..LowerHex$u20$for$u20$usize$GT$3fmt17hbf7dc8c1d7fa021dE
LBB16_1:
	movq	%rbx, %rdi
	callq	__ZN4core3fmt9Formatter15debug_upper_hex17hf8fda15ec43a1e68E
	movq	%r14, %rdi
	movq	%rbx, %rsi
	testb	%al, %al
	je	LBB16_4
	popq	%rbx
	popq	%r14
	popq	%rbp
	jmp	__ZN4core3fmt3num55_$LT$impl$u20$core..fmt..UpperHex$u20$for$u20$usize$GT$3fmt17hf20a4f369caf234bE
LBB16_4:
	popq	%rbx
	popq	%r14
	popq	%rbp
	jmp	__ZN4core3fmt3num3imp54_$LT$impl$u20$core..fmt..Display$u20$for$u20$usize$GT$3fmt17h89ce3155a90f2edfE
	.cfi_endproc

	.p2align	4, 0x90
__ZN42_$LT$$RF$T$u20$as$u20$core..fmt..Debug$GT$3fmt17hded3e5eec1288e1cE:
	.cfi_startproc
	pushq	%rbp
	.cfi_def_cfa_offset 16
	.cfi_offset %rbp, -16
	movq	%rsp, %rbp
	.cfi_def_cfa_register %rbp
	pushq	%r14
	pushq	%rbx
	subq	$48, %rsp
	.cfi_offset %rbx, -32
	.cfi_offset %r14, -24
	movq	(%rdi), %rbx
	leaq	l___unnamed_10(%rip), %rdx
	leaq	-56(%rbp), %r14
	movq	%r14, %rdi
	xorl	%ecx, %ecx
	callq	__ZN4core3fmt9Formatter11debug_tuple17h15ca25ad759edd1cE
	movq	%rbx, -24(%rbp)
	addq	$4, %rbx
	movq	%rbx, -32(%rbp)
	leaq	l___unnamed_6(%rip), %rdx
	leaq	-24(%rbp), %rsi
	movq	%r14, %rdi
	callq	__ZN4core3fmt8builders10DebugTuple5field17hf36121153a94f236E
	leaq	l___unnamed_27(%rip), %rdx
	leaq	-32(%rbp), %rsi
	movq	%r14, %rdi
	callq	__ZN4core3fmt8builders10DebugTuple5field17hf36121153a94f236E
	movq	%r14, %rdi
	callq	__ZN4core3fmt8builders10DebugTuple6finish17h68acf09c6f6593f2E
	addq	$48, %rsp
	popq	%rbx
	popq	%r14
	popq	%rbp
	retq
	.cfi_endproc

	.p2align	4, 0x90
__ZN42_$LT$$RF$T$u20$as$u20$core..fmt..Debug$GT$3fmt17hdfaf1d9621b1dabaE:
	.cfi_startproc
	pushq	%rbp
	.cfi_def_cfa_offset 16
	.cfi_offset %rbp, -16
	movq	%rsp, %rbp
	.cfi_def_cfa_register %rbp
	pushq	%r14
	pushq	%rbx
	subq	$32, %rsp
	.cfi_offset %rbx, -32
	.cfi_offset %r14, -24
	movq	(%rdi), %rbx
	leaq	l___unnamed_28(%rip), %rdx
	leaq	-40(%rbp), %r14
	movl	$7, %ecx
	movq	%r14, %rdi
	callq	__ZN4core3fmt9Formatter12debug_struct17h985c0158d1fc7193E
	movq	%rbx, -24(%rbp)
	addq	$24, %rbx
	leaq	l___unnamed_29(%rip), %rsi
	leaq	l___unnamed_30(%rip), %r8
	leaq	-24(%rbp), %rcx
	movl	$3, %edx
	movq	%r14, %rdi
	callq	__ZN4core3fmt8builders11DebugStruct5field17h9c15dc155278eed2E
	movq	%rbx, -24(%rbp)
	leaq	l___unnamed_31(%rip), %rsi
	leaq	l___unnamed_12(%rip), %r8
	leaq	-24(%rbp), %rcx
	movl	$3, %edx
	movq	%r14, %rdi
	callq	__ZN4core3fmt8builders11DebugStruct5field17h9c15dc155278eed2E
	movq	%r14, %rdi
	callq	__ZN4core3fmt8builders11DebugStruct6finish17h26808393f3fed630E
	addq	$32, %rsp
	popq	%rbx
	popq	%r14
	popq	%rbp
	retq
	.cfi_endproc

	.p2align	4, 0x90
__ZN42_$LT$$RF$T$u20$as$u20$core..fmt..Debug$GT$3fmt17he5c08916d73a66c1E:
	.cfi_startproc
	pushq	%rbp
	.cfi_def_cfa_offset 16
	.cfi_offset %rbp, -16
	movq	%rsp, %rbp
	.cfi_def_cfa_register %rbp
	pushq	%r15
	pushq	%r14
	pushq	%r13
	pushq	%r12
	pushq	%rbx
	subq	$136, %rsp
	.cfi_offset %rbx, -56
	.cfi_offset %r12, -48
	.cfi_offset %r13, -40
	.cfi_offset %r14, -32
	.cfi_offset %r15, -24
	movq	(%rdi), %r14
	leaq	-168(%rbp), %rdi
	callq	__ZN4core3fmt9Formatter9debug_map17h5cea039dab7ad6bbE
	movq	(%r14), %rcx
	testq	%rcx, %rcx
	je	LBB19_1
	movq	8(%r14), %rsi
	movzwl	10(%rcx), %edx
	testq	%rsi, %rsi
	je	LBB19_3
	movb	$1, %bl
	movq	%rcx, %r8
	.p2align	4, 0x90
LBB19_6:
	testb	$1, %bl
	je	LBB19_4
	cmpq	$1, %rsi
	setne	%bl
	movq	408(%r8), %r8
	movq	408(%rcx,%rdx,8), %rcx
	movzwl	10(%rcx), %edx
	decq	%rsi
	jne	LBB19_6
	jmp	LBB19_8
LBB19_1:
	xorl	%ecx, %ecx
	xorl	%r8d, %r8d
	xorl	%esi, %esi
	jmp	LBB19_9
LBB19_3:
	movq	%rcx, %r8
LBB19_8:
	movq	16(%r14), %rsi
	vxorps	%xmm0, %xmm0, %xmm0
	vmovaps	%xmm0, -64(%rbp)
	movq	$0, -48(%rbp)
LBB19_9:
	movq	$0, -136(%rbp)
	movq	%r8, -128(%rbp)
	vmovaps	-64(%rbp), %xmm0
	vmovups	%xmm0, -120(%rbp)
	movq	-48(%rbp), %rax
	movq	%rax, -104(%rbp)
	movq	%rcx, -96(%rbp)
	movq	$0, -88(%rbp)
	movq	%rdx, -80(%rbp)
	movq	%rsi, -72(%rbp)
	testq	%rsi, %rsi
	je	LBB19_28
	leaq	l___unnamed_32(%rip), %r15
	leaq	-168(%rbp), %r12
	leaq	-144(%rbp), %r13
	leaq	-152(%rbp), %r14
	.p2align	4, 0x90
LBB19_11:
	decq	%rsi
	movq	%rsi, -72(%rbp)
	testq	%r8, %r8
	leaq	-136(%rbp), %rax
	cmovneq	%rax, %r8
	movq	(%r8), %rbx
	movq	8(%r8), %rcx
	movq	24(%r8), %rdx
	movzwl	10(%rcx), %eax
	cmpq	%rax, %rdx
	jb	LBB19_16
	.p2align	4, 0x90
LBB19_12:
	movq	(%rcx), %rsi
	testq	%rsi, %rsi
	je	LBB19_13
	incq	%rbx
	movzwl	8(%rcx), %edx
	movq	%rsi, %rcx
	cmpw	10(%rsi), %dx
	jae	LBB19_12
	movq	%rsi, %rcx
LBB19_16:
	testq	%rbx, %rbx
	je	LBB19_17
LBB19_18:
	movq	%rbx, %rsi
	movq	416(%rcx,%rdx,8), %rdi
	decq	%rsi
	je	LBB19_25
	addq	$-2, %rbx
	movq	%rsi, %r9
	andq	$7, %r9
	je	LBB19_23
	xorl	%eax, %eax
	.p2align	4, 0x90
LBB19_21:
	movq	408(%rdi), %rdi
	incq	%rax
	cmpq	%rax, %r9
	jne	LBB19_21
	subq	%rax, %rsi
LBB19_23:
	cmpq	$7, %rbx
	jb	LBB19_25
	.p2align	4, 0x90
LBB19_24:
	movq	408(%rdi), %rax
	movq	408(%rax), %rax
	movq	408(%rax), %rax
	movq	408(%rax), %rax
	movq	408(%rax), %rax
	movq	408(%rax), %rax
	movq	408(%rax), %rax
	movq	408(%rax), %rdi
	addq	$-8, %rsi
	jne	LBB19_24
LBB19_25:
	xorl	%eax, %eax
	jmp	LBB19_26
	.p2align	4, 0x90
LBB19_13:
	xorl	%ecx, %ecx
	testq	%rbx, %rbx
	jne	LBB19_18
LBB19_17:
	leaq	1(%rdx), %rax
	movq	%rcx, %rdi
LBB19_26:
	leaq	(%rcx,%rdx,4), %rsi
	addq	$12, %rsi
	shlq	$5, %rdx
	addq	%rdx, %rcx
	addq	$56, %rcx
	movq	$0, (%r8)
	movq	%rdi, 8(%r8)
	movq	%rax, 24(%r8)
	movq	%rsi, -144(%rbp)
	movq	%rcx, -152(%rbp)
	movq	%r12, %rdi
	movq	%r13, %rsi
	leaq	l___unnamed_12(%rip), %rdx
	movq	%r14, %rcx
	movq	%r15, %r8
	callq	__ZN4core3fmt8builders8DebugMap5entry17h653834b3ad194ffcE
	movq	-72(%rbp), %rsi
	testq	%rsi, %rsi
	je	LBB19_28
	movq	-128(%rbp), %r8
	jmp	LBB19_11
LBB19_28:
	leaq	-168(%rbp), %rdi
	callq	__ZN4core3fmt8builders8DebugMap6finish17h655b3836bbc58824E
	addq	$136, %rsp
	popq	%rbx
	popq	%r12
	popq	%r13
	popq	%r14
	popq	%r15
	popq	%rbp
	retq
LBB19_4:
	leaq	__ZN44_$LT$$RF$T$u20$as$u20$core..fmt..Display$GT$3fmt17h3abf2c68d2acb762E(%rip), %rax
	vmovq	%rax, %xmm0
	leaq	l___unnamed_22(%rip), %rax
	vmovq	%rax, %xmm1
	vpunpcklqdq	%xmm0, %xmm1, %xmm0
	vmovdqa	%xmm0, -64(%rbp)
	leaq	l___unnamed_23(%rip), %rax
	movq	%rax, -136(%rbp)
	movq	$1, -128(%rbp)
	movq	$0, -120(%rbp)
	leaq	-64(%rbp), %rax
	movq	%rax, -104(%rbp)
	movq	$1, -96(%rbp)
	leaq	l___unnamed_24(%rip), %rsi
	leaq	-136(%rbp), %rdi
	callq	__ZN4core9panicking9panic_fmt17hab6ef1464e9720aaE
	.cfi_endproc

	.p2align	4, 0x90
__ZN42_$LT$$RF$T$u20$as$u20$core..fmt..Debug$GT$3fmt17hee676c211bfb4943E:
	.cfi_startproc
	pushq	%rbp
	.cfi_def_cfa_offset 16
	.cfi_offset %rbp, -16
	movq	%rsp, %rbp
	.cfi_def_cfa_register %rbp
	pushq	%r14
	pushq	%rbx
	subq	$32, %rsp
	.cfi_offset %rbx, -32
	.cfi_offset %r14, -24
	movq	(%rdi), %rbx
	cmpb	$2, 4(%rbx)
	jne	LBB20_1
	leaq	-48(%rbp), %r14
	leaq	L___unnamed_13(%rip), %rdx
	movl	$4, %ecx
	movq	%r14, %rdi
	callq	__ZN4core3fmt9Formatter11debug_tuple17h15ca25ad759edd1cE
	jmp	LBB20_3
LBB20_1:
	leaq	-48(%rbp), %r14
	leaq	L___unnamed_11(%rip), %rdx
	movl	$4, %ecx
	movq	%r14, %rdi
	callq	__ZN4core3fmt9Formatter11debug_tuple17h15ca25ad759edd1cE
	movq	%rbx, -24(%rbp)
	leaq	l___unnamed_33(%rip), %rdx
	leaq	-24(%rbp), %rsi
	movq	%r14, %rdi
	callq	__ZN4core3fmt8builders10DebugTuple5field17hf36121153a94f236E
LBB20_3:
	movq	%r14, %rdi
	callq	__ZN4core3fmt8builders10DebugTuple6finish17h68acf09c6f6593f2E
	addq	$32, %rsp
	popq	%rbx
	popq	%r14
	popq	%rbp
	retq
	.cfi_endproc

	.p2align	4, 0x90
__ZN42_$LT$$RF$T$u20$as$u20$core..fmt..Debug$GT$3fmt17hf482ec6d57420213E:
	.cfi_startproc
	pushq	%rbp
	.cfi_def_cfa_offset 16
	.cfi_offset %rbp, -16
	movq	%rsp, %rbp
	.cfi_def_cfa_register %rbp
	pushq	%r14
	pushq	%rbx
	.cfi_offset %rbx, -32
	.cfi_offset %r14, -24
	movq	%rsi, %rbx
	movq	(%rdi), %r14
	movq	%rsi, %rdi
	callq	__ZN4core3fmt9Formatter15debug_lower_hex17h8530fbaeba13f4d9E
	testb	%al, %al
	je	LBB21_1
	movq	%r14, %rdi
	movq	%rbx, %rsi
	popq	%rbx
	popq	%r14
	popq	%rbp
	jmp	__ZN4core3fmt3num53_$LT$impl$u20$core..fmt..LowerHex$u20$for$u20$u32$GT$3fmt17h6f8627d2574097eeE
LBB21_1:
	movq	%rbx, %rdi
	callq	__ZN4core3fmt9Formatter15debug_upper_hex17hf8fda15ec43a1e68E
	movq	%r14, %rdi
	movq	%rbx, %rsi
	testb	%al, %al
	je	LBB21_4
	popq	%rbx
	popq	%r14
	popq	%rbp
	jmp	__ZN4core3fmt3num53_$LT$impl$u20$core..fmt..UpperHex$u20$for$u20$u32$GT$3fmt17hfea5795b8018329eE
LBB21_4:
	popq	%rbx
	popq	%r14
	popq	%rbp
	jmp	__ZN4core3fmt3num3imp52_$LT$impl$u20$core..fmt..Display$u20$for$u20$u32$GT$3fmt17h8cb3163b2d7e102aE
	.cfi_endproc

	.p2align	4, 0x90
__ZN42_$LT$$RF$T$u20$as$u20$core..fmt..Debug$GT$3fmt17hf7e278aacb0a4533E:
	.cfi_startproc
	pushq	%rbp
	.cfi_def_cfa_offset 16
	.cfi_offset %rbp, -16
	movq	%rsp, %rbp
	.cfi_def_cfa_register %rbp
	movq	(%rdi), %rdi
	popq	%rbp
	jmp	__ZN61_$LT$cfg..sequence..Separator$u20$as$u20$core..fmt..Debug$GT$3fmt17h80d123f6cb8d6679E
	.cfi_endproc

	.p2align	4, 0x90
__ZN42_$LT$$RF$T$u20$as$u20$core..fmt..Debug$GT$3fmt17hfc9dbeae1cfcb457E:
	.cfi_startproc
	pushq	%rbp
	.cfi_def_cfa_offset 16
	.cfi_offset %rbp, -16
	movq	%rsp, %rbp
	.cfi_def_cfa_register %rbp
	pushq	%r14
	pushq	%rbx
	subq	$48, %rsp
	.cfi_offset %rbx, -32
	.cfi_offset %r14, -24
	movq	(%rdi), %rbx
	leaq	l___unnamed_10(%rip), %rdx
	leaq	-56(%rbp), %r14
	movq	%r14, %rdi
	xorl	%ecx, %ecx
	callq	__ZN4core3fmt9Formatter11debug_tuple17h15ca25ad759edd1cE
	movq	%rbx, -24(%rbp)
	addq	$4, %rbx
	movq	%rbx, -32(%rbp)
	leaq	l___unnamed_7(%rip), %rdx
	leaq	-24(%rbp), %rsi
	movq	%r14, %rdi
	callq	__ZN4core3fmt8builders10DebugTuple5field17hf36121153a94f236E
	leaq	l___unnamed_34(%rip), %rdx
	leaq	-32(%rbp), %rsi
	movq	%r14, %rdi
	callq	__ZN4core3fmt8builders10DebugTuple5field17hf36121153a94f236E
	movq	%r14, %rdi
	callq	__ZN4core3fmt8builders10DebugTuple6finish17h68acf09c6f6593f2E
	addq	$48, %rsp
	popq	%rbx
	popq	%r14
	popq	%rbp
	retq
	.cfi_endproc

	.p2align	4, 0x90
__ZN42_$LT$$RF$T$u20$as$u20$core..fmt..Debug$GT$3fmt17hfcc5dff85f3b0cafE:
	.cfi_startproc
	pushq	%rbp
	.cfi_def_cfa_offset 16
	.cfi_offset %rbp, -16
	movq	%rsp, %rbp
	.cfi_def_cfa_register %rbp
	pushq	%r15
	pushq	%r14
	pushq	%rbx
	subq	$40, %rsp
	.cfi_offset %rbx, -40
	.cfi_offset %r14, -32
	.cfi_offset %r15, -24
	movq	(%rdi), %rbx
	leaq	l___unnamed_10(%rip), %rdx
	leaq	-64(%rbp), %r15
	movq	%r15, %rdi
	xorl	%ecx, %ecx
	callq	__ZN4core3fmt9Formatter11debug_tuple17h15ca25ad759edd1cE
	movq	%rbx, -32(%rbp)
	addq	$4, %rbx
	movq	%rbx, -40(%rbp)
	leaq	l___unnamed_12(%rip), %r14
	leaq	-32(%rbp), %rsi
	movq	%r15, %rdi
	movq	%r14, %rdx
	callq	__ZN4core3fmt8builders10DebugTuple5field17hf36121153a94f236E
	leaq	-40(%rbp), %rsi
	movq	%r15, %rdi
	movq	%r14, %rdx
	callq	__ZN4core3fmt8builders10DebugTuple5field17hf36121153a94f236E
	movq	%r15, %rdi
	callq	__ZN4core3fmt8builders10DebugTuple6finish17h68acf09c6f6593f2E
	addq	$40, %rsp
	popq	%rbx
	popq	%r14
	popq	%r15
	popq	%rbp
	retq
	.cfi_endproc

	.p2align	4, 0x90
__ZN44_$LT$$RF$T$u20$as$u20$core..fmt..Display$GT$3fmt17h3abf2c68d2acb762E:
	.cfi_startproc
	pushq	%rbp
	.cfi_def_cfa_offset 16
	.cfi_offset %rbp, -16
	movq	%rsp, %rbp
	.cfi_def_cfa_register %rbp
	movq	%rsi, %rdx
	movq	(%rdi), %rax
	movq	8(%rdi), %rsi
	movq	%rax, %rdi
	popq	%rbp
	jmp	__ZN42_$LT$str$u20$as$u20$core..fmt..Display$GT$3fmt17hd4dee1c1c4ccf892E
	.cfi_endproc

	.p2align	4, 0x90
__ZN4core3fmt3num52_$LT$impl$u20$core..fmt..Debug$u20$for$u20$usize$GT$3fmt17hd9d2912101c14e43E:
	.cfi_startproc
	pushq	%rbp
	.cfi_def_cfa_offset 16
	.cfi_offset %rbp, -16
	movq	%rsp, %rbp
	.cfi_def_cfa_register %rbp
	pushq	%r14
	pushq	%rbx
	.cfi_offset %rbx, -32
	.cfi_offset %r14, -24
	movq	%rsi, %rbx
	movq	%rdi, %r14
	movq	%rsi, %rdi
	callq	__ZN4core3fmt9Formatter15debug_lower_hex17h8530fbaeba13f4d9E
	testb	%al, %al
	je	LBB26_1
	movq	%r14, %rdi
	movq	%rbx, %rsi
	popq	%rbx
	popq	%r14
	popq	%rbp
	jmp	__ZN4core3fmt3num55_$LT$impl$u20$core..fmt..LowerHex$u20$for$u20$usize$GT$3fmt17hbf7dc8c1d7fa021dE
LBB26_1:
	movq	%rbx, %rdi
	callq	__ZN4core3fmt9Formatter15debug_upper_hex17hf8fda15ec43a1e68E
	movq	%r14, %rdi
	movq	%rbx, %rsi
	testb	%al, %al
	je	LBB26_4
	popq	%rbx
	popq	%r14
	popq	%rbp
	jmp	__ZN4core3fmt3num55_$LT$impl$u20$core..fmt..UpperHex$u20$for$u20$usize$GT$3fmt17hf20a4f369caf234bE
LBB26_4:
	popq	%rbx
	popq	%r14
	popq	%rbp
	jmp	__ZN4core3fmt3num3imp54_$LT$impl$u20$core..fmt..Display$u20$for$u20$usize$GT$3fmt17h89ce3155a90f2edfE
	.cfi_endproc

	.p2align	4, 0x90
__ZN4core3ptr13drop_in_place17h025bc969569972bbE:
	.cfi_startproc
	pushq	%rbp
	.cfi_def_cfa_offset 16
	.cfi_offset %rbp, -16
	movq	%rsp, %rbp
	.cfi_def_cfa_register %rbp
	popq	%rbp
	retq
	.cfi_endproc

	.p2align	4, 0x90
__ZN4core3ptr13drop_in_place17h0d0ae34aa1cc06fbE:
	.cfi_startproc
	pushq	%rbp
	.cfi_def_cfa_offset 16
	.cfi_offset %rbp, -16
	movq	%rsp, %rbp
	.cfi_def_cfa_register %rbp
	cmpl	$2, 24(%rdi)
	je	LBB28_4
	movq	8(%rdi), %rax
	testq	%rax, %rax
	je	LBB28_4
	movq	(%rdi), %rdi
	testq	%rdi, %rdi
	je	LBB28_4
	shlq	$2, %rax
	leaq	(%rax,%rax,4), %rsi
	testq	%rsi, %rsi
	je	LBB28_4
	movl	$4, %edx
	popq	%rbp
	jmp	___rust_dealloc
LBB28_4:
	popq	%rbp
	retq
	.cfi_endproc

	.p2align	4, 0x90
__ZN4core3ptr13drop_in_place17h2048d30618aec616E:
	.cfi_startproc
	pushq	%rbp
	.cfi_def_cfa_offset 16
	.cfi_offset %rbp, -16
	movq	%rsp, %rbp
	.cfi_def_cfa_register %rbp
	movq	8(%rdi), %rsi
	testq	%rsi, %rsi
	je	LBB29_3
	movq	(%rdi), %rdi
	testq	%rdi, %rdi
	je	LBB29_3
	shlq	$4, %rsi
	je	LBB29_3
	movl	$8, %edx
	popq	%rbp
	jmp	___rust_dealloc
LBB29_3:
	popq	%rbp
	retq
	.cfi_endproc

	.p2align	4, 0x90
__ZN4core3ptr13drop_in_place17h24c8a744f4ee1897E:
	.cfi_startproc
	pushq	%rbp
	.cfi_def_cfa_offset 16
	.cfi_offset %rbp, -16
	movq	%rsp, %rbp
	.cfi_def_cfa_register %rbp
	movq	8(%rdi), %rax
	movq	16(%rdi), %rcx
	movq	%rcx, (%rax)
	popq	%rbp
	retq
	.cfi_endproc

	.p2align	4, 0x90
__ZN4core3ptr13drop_in_place17h262c134e871c4318E:
	.cfi_startproc
	pushq	%rbp
	.cfi_def_cfa_offset 16
	.cfi_offset %rbp, -16
	movq	%rsp, %rbp
	.cfi_def_cfa_register %rbp
	pushq	%r15
	pushq	%r14
	pushq	%rbx
	pushq	%rax
	.cfi_offset %rbx, -40
	.cfi_offset %r14, -32
	.cfi_offset %r15, -24
	movq	%rdi, %r14
	movq	16(%rdi), %rbx
	movq	24(%rdi), %r15
	cmpq	%rbx, %r15
	jne	LBB31_1
LBB31_6:
	movq	8(%r14), %rax
	testq	%rax, %rax
	je	LBB31_8
	imulq	$56, %rax, %rsi
	testq	%rsi, %rsi
	je	LBB31_8
	movq	(%r14), %rdi
	movl	$8, %edx
	addq	$8, %rsp
	popq	%rbx
	popq	%r14
	popq	%r15
	popq	%rbp
	jmp	___rust_dealloc
	.p2align	4, 0x90
LBB31_5:
	addq	$56, %rbx
	cmpq	%r15, %rbx
	je	LBB31_6
LBB31_1:
	movq	8(%rbx), %rax
	testq	%rax, %rax
	je	LBB31_5
	movq	(%rbx), %rdi
	testq	%rdi, %rdi
	je	LBB31_5
	shlq	$2, %rax
	leaq	(%rax,%rax,4), %rsi
	testq	%rsi, %rsi
	je	LBB31_5
	movl	$4, %edx
	callq	___rust_dealloc
	jmp	LBB31_5
LBB31_8:
	addq	$8, %rsp
	popq	%rbx
	popq	%r14
	popq	%r15
	popq	%rbp
	retq
	.cfi_endproc

	.p2align	4, 0x90
__ZN4core3ptr13drop_in_place17h297c433da1ad191eE:
	.cfi_startproc
	pushq	%rbp
	.cfi_def_cfa_offset 16
	.cfi_offset %rbp, -16
	movq	%rsp, %rbp
	.cfi_def_cfa_register %rbp
	pushq	%r15
	pushq	%r14
	pushq	%rbx
	pushq	%rax
	.cfi_offset %rbx, -40
	.cfi_offset %r14, -32
	.cfi_offset %r15, -24
	movq	%rdi, %r14
	movq	(%rdi), %rbx
	movq	16(%rdi), %rax
	testq	%rax, %rax
	je	LBB32_12
	leaq	(%rax,%rax,8), %rax
	leaq	(%rbx,%rax,8), %r15
	movq	8(%rbx), %rsi
	testq	%rsi, %rsi
	jne	LBB32_3
	jmp	LBB32_6
	.p2align	4, 0x90
LBB32_10:
	addq	$72, %rbx
	cmpq	%r15, %rbx
	je	LBB32_11
	movq	8(%rbx), %rsi
	testq	%rsi, %rsi
	je	LBB32_6
LBB32_3:
	movq	(%rbx), %rdi
	testq	%rdi, %rdi
	je	LBB32_6
	shlq	$2, %rsi
	testq	%rsi, %rsi
	je	LBB32_6
	movl	$4, %edx
	callq	___rust_dealloc
LBB32_6:
	movq	32(%rbx), %rax
	testq	%rax, %rax
	je	LBB32_10
	movq	24(%rbx), %rdi
	testq	%rdi, %rdi
	je	LBB32_10
	shlq	$2, %rax
	leaq	(%rax,%rax,4), %rsi
	testq	%rsi, %rsi
	je	LBB32_10
	movl	$4, %edx
	callq	___rust_dealloc
	jmp	LBB32_10
LBB32_11:
	movq	(%r14), %rbx
LBB32_12:
	movq	8(%r14), %rax
	testq	%rax, %rax
	je	LBB32_15
	testq	%rbx, %rbx
	je	LBB32_15
	shlq	$3, %rax
	leaq	(%rax,%rax,8), %rsi
	testq	%rsi, %rsi
	je	LBB32_15
	movl	$8, %edx
	movq	%rbx, %rdi
	addq	$8, %rsp
	popq	%rbx
	popq	%r14
	popq	%r15
	popq	%rbp
	jmp	___rust_dealloc
LBB32_15:
	addq	$8, %rsp
	popq	%rbx
	popq	%r14
	popq	%r15
	popq	%rbp
	retq
	.cfi_endproc

	.p2align	4, 0x90
__ZN4core3ptr13drop_in_place17h2a9af822d3a87480E:
	.cfi_startproc
	pushq	%rbp
	.cfi_def_cfa_offset 16
	.cfi_offset %rbp, -16
	movq	%rsp, %rbp
	.cfi_def_cfa_register %rbp
	movq	8(%rdi), %rsi
	testq	%rsi, %rsi
	je	LBB33_3
	movq	(%rdi), %rdi
	testq	%rdi, %rdi
	je	LBB33_3
	shlq	$2, %rsi
	testq	%rsi, %rsi
	je	LBB33_3
	movl	$4, %edx
	popq	%rbp
	jmp	___rust_dealloc
LBB33_3:
	popq	%rbp
	retq
	.cfi_endproc

	.p2align	4, 0x90
__ZN4core3ptr13drop_in_place17h34054cc1d52473a2E:
	.cfi_startproc
	pushq	%rbp
	.cfi_def_cfa_offset 16
	.cfi_offset %rbp, -16
	movq	%rsp, %rbp
	.cfi_def_cfa_register %rbp
	popq	%rbp
	jmp	__ZN4core3ptr13drop_in_place17heae94b89f5b0f4bcE
	.cfi_endproc

	.p2align	4, 0x90
__ZN4core3ptr13drop_in_place17h5fd782b023e173acE:
	.cfi_startproc
	pushq	%rbp
	.cfi_def_cfa_offset 16
	.cfi_offset %rbp, -16
	movq	%rsp, %rbp
	.cfi_def_cfa_register %rbp
	pushq	%rbx
	pushq	%rax
	.cfi_offset %rbx, -24
	movq	%rdi, %rbx
	movq	16(%rdi), %rsi
	testq	%rsi, %rsi
	je	LBB35_4
	movq	8(%rbx), %rdi
	testq	%rdi, %rdi
	je	LBB35_4
	shlq	$3, %rsi
	testq	%rsi, %rsi
	je	LBB35_4
	movl	$4, %edx
	callq	___rust_dealloc
LBB35_4:
	movq	40(%rbx), %rsi
	testq	%rsi, %rsi
	je	LBB35_7
	movq	32(%rbx), %rdi
	testq	%rdi, %rdi
	je	LBB35_7
	shlq	$2, %rsi
	testq	%rsi, %rsi
	je	LBB35_7
	movl	$4, %edx
	addq	$8, %rsp
	popq	%rbx
	popq	%rbp
	jmp	___rust_dealloc
LBB35_7:
	addq	$8, %rsp
	popq	%rbx
	popq	%rbp
	retq
	.cfi_endproc

	.p2align	4, 0x90
__ZN4core3ptr13drop_in_place17h6227f5b841739d12E:
	.cfi_startproc
	pushq	%rbp
	.cfi_def_cfa_offset 16
	.cfi_offset %rbp, -16
	movq	%rsp, %rbp
	.cfi_def_cfa_register %rbp
	pushq	%r15
	pushq	%r14
	pushq	%rbx
	pushq	%rax
	.cfi_offset %rbx, -40
	.cfi_offset %r14, -32
	.cfi_offset %r15, -24
	movq	%rdi, %r14
	movq	16(%rdi), %rbx
	movq	24(%rdi), %r15
	cmpq	%rbx, %r15
	jne	LBB36_1
LBB36_10:
	movq	8(%r14), %rax
	testq	%rax, %rax
	je	LBB36_12
	shlq	$3, %rax
	leaq	(%rax,%rax,8), %rsi
	testq	%rsi, %rsi
	je	LBB36_12
	movq	(%r14), %rdi
	movl	$8, %edx
	addq	$8, %rsp
	popq	%rbx
	popq	%r14
	popq	%r15
	popq	%rbp
	jmp	___rust_dealloc
	.p2align	4, 0x90
LBB36_9:
	addq	$72, %rbx
	cmpq	%r15, %rbx
	je	LBB36_10
LBB36_1:
	movq	8(%rbx), %rsi
	testq	%rsi, %rsi
	je	LBB36_5
	movq	(%rbx), %rdi
	testq	%rdi, %rdi
	je	LBB36_5
	shlq	$2, %rsi
	testq	%rsi, %rsi
	je	LBB36_5
	movl	$4, %edx
	callq	___rust_dealloc
LBB36_5:
	movq	32(%rbx), %rax
	testq	%rax, %rax
	je	LBB36_9
	movq	24(%rbx), %rdi
	testq	%rdi, %rdi
	je	LBB36_9
	shlq	$2, %rax
	leaq	(%rax,%rax,4), %rsi
	testq	%rsi, %rsi
	je	LBB36_9
	movl	$4, %edx
	callq	___rust_dealloc
	jmp	LBB36_9
LBB36_12:
	addq	$8, %rsp
	popq	%rbx
	popq	%r14
	popq	%r15
	popq	%rbp
	retq
	.cfi_endproc

	.p2align	4, 0x90
__ZN4core3ptr13drop_in_place17h64962261dec54737E:
	.cfi_startproc
	pushq	%rbp
	.cfi_def_cfa_offset 16
	.cfi_offset %rbp, -16
	movq	%rsp, %rbp
	.cfi_def_cfa_register %rbp
	movq	(%rdi), %rsi
	movq	8(%rdi), %rdx
	subq	%rsi, %rdx
	andq	$-4, %rdx
	movq	16(%rdi), %rdi
	popq	%rbp
	jmp	_memcpy
	.cfi_endproc

	.p2align	4, 0x90
__ZN4core3ptr13drop_in_place17h683437b431c1db66E:
	.cfi_startproc
	pushq	%rbp
	.cfi_def_cfa_offset 16
	.cfi_offset %rbp, -16
	movq	%rsp, %rbp
	.cfi_def_cfa_register %rbp
	pushq	%rbx
	pushq	%rax
	.cfi_offset %rbx, -24
	movq	%rdi, %rbx
	movq	8(%rdi), %rsi
	testq	%rsi, %rsi
	je	LBB38_4
	movq	(%rbx), %rdi
	testq	%rdi, %rdi
	je	LBB38_4
	shlq	$2, %rsi
	testq	%rsi, %rsi
	je	LBB38_4
	movl	$4, %edx
	callq	___rust_dealloc
LBB38_4:
	movq	32(%rbx), %rax
	testq	%rax, %rax
	je	LBB38_7
	movq	24(%rbx), %rdi
	testq	%rdi, %rdi
	je	LBB38_7
	shlq	$2, %rax
	leaq	(%rax,%rax,4), %rsi
	testq	%rsi, %rsi
	je	LBB38_7
	movl	$4, %edx
	addq	$8, %rsp
	popq	%rbx
	popq	%rbp
	jmp	___rust_dealloc
LBB38_7:
	addq	$8, %rsp
	popq	%rbx
	popq	%rbp
	retq
	.cfi_endproc

	.p2align	4, 0x90
__ZN4core3ptr13drop_in_place17h8284e9872d034c0fE:
	.cfi_startproc
	pushq	%rbp
	.cfi_def_cfa_offset 16
	.cfi_offset %rbp, -16
	movq	%rsp, %rbp
	.cfi_def_cfa_register %rbp
	movq	8(%rdi), %rax
	testq	%rax, %rax
	je	LBB39_3
	movq	(%rdi), %rdi
	testq	%rdi, %rdi
	je	LBB39_3
	shlq	$3, %rax
	leaq	(%rax,%rax,4), %rsi
	testq	%rsi, %rsi
	je	LBB39_3
	movl	$8, %edx
	popq	%rbp
	jmp	___rust_dealloc
LBB39_3:
	popq	%rbp
	retq
	.cfi_endproc

	.p2align	4, 0x90
__ZN4core3ptr13drop_in_place17h85e5e3dc919bfc35E:
	.cfi_startproc
	pushq	%rbp
	.cfi_def_cfa_offset 16
	.cfi_offset %rbp, -16
	movq	%rsp, %rbp
	.cfi_def_cfa_register %rbp
	movq	8(%rdi), %rax
	testq	%rax, %rax
	je	LBB40_3
	movq	(%rdi), %rdi
	testq	%rdi, %rdi
	je	LBB40_3
	leaq	(%rax,%rax,8), %rcx
	leaq	(%rcx,%rcx,2), %rsi
	addq	%rax, %rsi
	je	LBB40_3
	movl	$4, %edx
	popq	%rbp
	jmp	___rust_dealloc
LBB40_3:
	popq	%rbp
	retq
	.cfi_endproc

	.p2align	4, 0x90
__ZN4core3ptr13drop_in_place17ha09e62f5c563f5f6E:
	.cfi_startproc
	pushq	%rbp
	.cfi_def_cfa_offset 16
	.cfi_offset %rbp, -16
	movq	%rsp, %rbp
	.cfi_def_cfa_register %rbp
	pushq	%rbx
	pushq	%rax
	.cfi_offset %rbx, -24
	movq	%rdi, %rbx
	movq	24(%rdi), %rax
	testq	%rax, %rax
	je	LBB41_4
	movq	16(%rbx), %rdi
	testq	%rdi, %rdi
	je	LBB41_4
	leaq	(%rax,%rax,8), %rcx
	leaq	(%rcx,%rcx,2), %rsi
	addq	%rax, %rsi
	je	LBB41_4
	movl	$4, %edx
	callq	___rust_dealloc
LBB41_4:
	movq	56(%rbx), %rcx
	testq	%rcx, %rcx
	je	LBB41_10
	leaq	1(%rcx), %rax
	movl	$28, %edx
	xorl	%esi, %esi
	mulq	%rdx
	setno	%dl
	jo	LBB41_6
	movb	%dl, %sil
	shlq	$2, %rsi
	leaq	(%rcx,%rsi), %rdx
	addq	$16, %rdx
	addq	$17, %rcx
	negq	%rsi
	andq	%rdx, %rsi
	subq	%rcx, %rsi
	addq	%rcx, %rsi
	jae	LBB41_8
LBB41_6:
	xorl	%edx, %edx
	jmp	LBB41_9
LBB41_10:
	addq	$8, %rsp
	popq	%rbx
	popq	%rbp
	retq
LBB41_8:
	leaq	(%rsi,%rax), %rcx
	xorl	%edi, %edi
	cmpq	$-15, %rcx
	setb	%dil
	shlq	$4, %rdi
	xorl	%edx, %edx
	addq	%rax, %rsi
	cmovaeq	%rdi, %rdx
LBB41_9:
	movq	64(%rbx), %rdi
	addq	$8, %rsp
	popq	%rbx
	popq	%rbp
	jmp	___rust_dealloc
	.cfi_endproc

	.p2align	4, 0x90
__ZN4core3ptr13drop_in_place17haaa0995d8a55ccb2E:
	.cfi_startproc
	pushq	%rbp
	.cfi_def_cfa_offset 16
	.cfi_offset %rbp, -16
	movq	%rsp, %rbp
	.cfi_def_cfa_register %rbp
	pushq	%rbx
	pushq	%rax
	.cfi_offset %rbx, -24
	movq	%rdi, %rbx
	movq	16(%rdi), %rsi
	testq	%rsi, %rsi
	je	LBB42_4
	movq	8(%rbx), %rdi
	testq	%rdi, %rdi
	je	LBB42_4
	shlq	$2, %rsi
	testq	%rsi, %rsi
	je	LBB42_4
	movl	$4, %edx
	callq	___rust_dealloc
LBB42_4:
	movq	56(%rbx), %rsi
	testq	%rsi, %rsi
	je	LBB42_5
	movq	48(%rbx), %rdi
	testq	%rdi, %rdi
	je	LBB42_5
	shlq	$2, %rsi
	testq	%rsi, %rsi
	je	LBB42_5
	movl	$4, %edx
	callq	___rust_dealloc
LBB42_5:
	movq	88(%rbx), %rsi
	testq	%rsi, %rsi
	je	LBB42_8
	movq	80(%rbx), %rdi
	testq	%rdi, %rdi
	je	LBB42_8
	shlq	$2, %rsi
	testq	%rsi, %rsi
	je	LBB42_8
	movl	$4, %edx
	addq	$8, %rsp
	popq	%rbx
	popq	%rbp
	jmp	___rust_dealloc
LBB42_8:
	addq	$8, %rsp
	popq	%rbx
	popq	%rbp
	retq
	.cfi_endproc

	.p2align	4, 0x90
__ZN4core3ptr13drop_in_place17had9a9386344515e5E:
	.cfi_startproc
	pushq	%rbp
	.cfi_def_cfa_offset 16
	.cfi_offset %rbp, -16
	movq	%rsp, %rbp
	.cfi_def_cfa_register %rbp
	movq	16(%rdi), %rax
	movq	24(%rdi), %rcx
	movq	%rcx, (%rax)
	popq	%rbp
	retq
	.cfi_endproc

	.p2align	4, 0x90
__ZN4core3ptr13drop_in_place17hbd93c3b652fff263E:
	.cfi_startproc
	pushq	%rbp
	.cfi_def_cfa_offset 16
	.cfi_offset %rbp, -16
	movq	%rsp, %rbp
	.cfi_def_cfa_register %rbp
	pushq	%r15
	pushq	%r14
	pushq	%r12
	pushq	%rbx
	.cfi_offset %rbx, -48
	.cfi_offset %r12, -40
	.cfi_offset %r14, -32
	.cfi_offset %r15, -24
	movq	%rdi, %r14
	movq	(%rdi), %r12
	movq	16(%rdi), %rax
	testq	%rax, %rax
	je	LBB44_9
	shlq	$3, %rax
	leaq	(%rax,%rax,4), %r15
	xorl	%ebx, %ebx
	cmpl	$2, 24(%r12,%rbx)
	jne	LBB44_3
	.p2align	4, 0x90
LBB44_7:
	addq	$40, %rbx
	cmpq	%rbx, %r15
	je	LBB44_8
LBB44_2:
	cmpl	$2, 24(%r12,%rbx)
	je	LBB44_7
LBB44_3:
	movq	8(%r12,%rbx), %rax
	testq	%rax, %rax
	je	LBB44_7
	movq	(%r12,%rbx), %rdi
	testq	%rdi, %rdi
	je	LBB44_7
	shlq	$2, %rax
	leaq	(%rax,%rax,4), %rsi
	testq	%rsi, %rsi
	je	LBB44_7
	movl	$4, %edx
	callq	___rust_dealloc
	addq	$40, %rbx
	cmpq	%rbx, %r15
	jne	LBB44_2
LBB44_8:
	movq	(%r14), %r12
LBB44_9:
	movq	8(%r14), %rax
	testq	%rax, %rax
	je	LBB44_12
	testq	%r12, %r12
	je	LBB44_12
	shlq	$3, %rax
	leaq	(%rax,%rax,4), %rsi
	testq	%rsi, %rsi
	je	LBB44_12
	movl	$8, %edx
	movq	%r12, %rdi
	popq	%rbx
	popq	%r12
	popq	%r14
	popq	%r15
	popq	%rbp
	jmp	___rust_dealloc
LBB44_12:
	popq	%rbx
	popq	%r12
	popq	%r14
	popq	%r15
	popq	%rbp
	retq
	.cfi_endproc

	.p2align	4, 0x90
__ZN4core3ptr13drop_in_place17hbe333acc1d2d4fe2E:
	.cfi_startproc
	pushq	%rbp
	.cfi_def_cfa_offset 16
	.cfi_offset %rbp, -16
	movq	%rsp, %rbp
	.cfi_def_cfa_register %rbp
	pushq	%r15
	pushq	%r14
	pushq	%rbx
	pushq	%rax
	.cfi_offset %rbx, -40
	.cfi_offset %r14, -32
	.cfi_offset %r15, -24
	movq	%rdi, %r14
	movq	(%rdi), %rbx
	movq	16(%rdi), %rax
	testq	%rax, %rax
	je	LBB45_8
	imulq	$56, %rax, %r15
	addq	%rbx, %r15
	movq	8(%rbx), %rax
	testq	%rax, %rax
	jne	LBB45_3
	.p2align	4, 0x90
LBB45_6:
	addq	$56, %rbx
	cmpq	%r15, %rbx
	je	LBB45_7
LBB45_2:
	movq	8(%rbx), %rax
	testq	%rax, %rax
	je	LBB45_6
LBB45_3:
	movq	(%rbx), %rdi
	testq	%rdi, %rdi
	je	LBB45_6
	shlq	$2, %rax
	leaq	(%rax,%rax,4), %rsi
	testq	%rsi, %rsi
	je	LBB45_6
	movl	$4, %edx
	callq	___rust_dealloc
	addq	$56, %rbx
	cmpq	%r15, %rbx
	jne	LBB45_2
LBB45_7:
	movq	(%r14), %rbx
LBB45_8:
	movq	8(%r14), %rax
	testq	%rax, %rax
	je	LBB45_11
	testq	%rbx, %rbx
	je	LBB45_11
	imulq	$56, %rax, %rsi
	testq	%rsi, %rsi
	je	LBB45_11
	movl	$8, %edx
	movq	%rbx, %rdi
	addq	$8, %rsp
	popq	%rbx
	popq	%r14
	popq	%r15
	popq	%rbp
	jmp	___rust_dealloc
LBB45_11:
	addq	$8, %rsp
	popq	%rbx
	popq	%r14
	popq	%r15
	popq	%rbp
	retq
	.cfi_endproc

	.p2align	4, 0x90
__ZN4core3ptr13drop_in_place17hbffddf6b74f67adaE:
	.cfi_startproc
	pushq	%rbp
	.cfi_def_cfa_offset 16
	.cfi_offset %rbp, -16
	movq	%rsp, %rbp
	.cfi_def_cfa_register %rbp
	pushq	%rbx
	pushq	%rax
	.cfi_offset %rbx, -24
	movq	%rdi, %rbx
	movq	8(%rdi), %rsi
	testq	%rsi, %rsi
	je	LBB46_4
	movq	(%rbx), %rdi
	testq	%rdi, %rdi
	je	LBB46_4
	shlq	$3, %rsi
	testq	%rsi, %rsi
	je	LBB46_4
	movl	$4, %edx
	callq	___rust_dealloc
LBB46_4:
	movq	32(%rbx), %rsi
	testq	%rsi, %rsi
	je	LBB46_7
	movq	24(%rbx), %rdi
	testq	%rdi, %rdi
	je	LBB46_7
	shlq	$2, %rsi
	testq	%rsi, %rsi
	je	LBB46_7
	movl	$4, %edx
	addq	$8, %rsp
	popq	%rbx
	popq	%rbp
	jmp	___rust_dealloc
LBB46_7:
	addq	$8, %rsp
	popq	%rbx
	popq	%rbp
	retq
	.cfi_endproc

	.p2align	4, 0x90
__ZN4core3ptr13drop_in_place17hd5b3fea693442e9eE:
	.cfi_startproc
	pushq	%rbp
	.cfi_def_cfa_offset 16
	.cfi_offset %rbp, -16
	movq	%rsp, %rbp
	.cfi_def_cfa_register %rbp
	movq	8(%rdi), %rax
	testq	%rax, %rax
	je	LBB47_3
	movq	(%rdi), %rdi
	testq	%rdi, %rdi
	je	LBB47_3
	shlq	$2, %rax
	leaq	(%rax,%rax,4), %rsi
	testq	%rsi, %rsi
	je	LBB47_3
	movl	$4, %edx
	popq	%rbp
	jmp	___rust_dealloc
LBB47_3:
	popq	%rbp
	retq
	.cfi_endproc

	.p2align	4, 0x90
__ZN4core3ptr13drop_in_place17he9cf327bc2a3f203E:
	.cfi_startproc
	pushq	%rbp
	.cfi_def_cfa_offset 16
	.cfi_offset %rbp, -16
	movq	%rsp, %rbp
	.cfi_def_cfa_register %rbp
	pushq	%rbx
	pushq	%rax
	.cfi_offset %rbx, -24
	movq	%rdi, %rbx
	movq	8(%rdi), %rax
	testq	%rax, %rax
	je	LBB48_4
	movq	(%rbx), %rdi
	testq	%rdi, %rdi
	je	LBB48_4
	shlq	$3, %rax
	leaq	(%rax,%rax,4), %rsi
	testq	%rsi, %rsi
	je	LBB48_4
	movl	$8, %edx
	callq	___rust_dealloc
LBB48_4:
	movq	32(%rbx), %rsi
	testq	%rsi, %rsi
	je	LBB48_7
	movq	24(%rbx), %rdi
	testq	%rdi, %rdi
	je	LBB48_7
	shlq	$2, %rsi
	testq	%rsi, %rsi
	je	LBB48_7
	movl	$4, %edx
	addq	$8, %rsp
	popq	%rbx
	popq	%rbp
	jmp	___rust_dealloc
LBB48_7:
	addq	$8, %rsp
	popq	%rbx
	popq	%rbp
	retq
	.cfi_endproc

	.p2align	4, 0x90
__ZN4core3ptr13drop_in_place17heae94b89f5b0f4bcE:
	.cfi_startproc
	pushq	%rbp
	.cfi_def_cfa_offset 16
	.cfi_offset %rbp, -16
	movq	%rsp, %rbp
	.cfi_def_cfa_register %rbp
	pushq	%r15
	pushq	%r14
	pushq	%r12
	pushq	%rbx
	.cfi_offset %rbx, -48
	.cfi_offset %r12, -40
	.cfi_offset %r14, -32
	.cfi_offset %r15, -24
	movq	%rdi, %r14
	movq	(%rdi), %rbx
	movq	16(%rdi), %rax
	testq	%rax, %rax
	je	LBB49_8
	imulq	$56, %rax, %r15
	addq	%rbx, %r15
	movq	8(%rbx), %rax
	testq	%rax, %rax
	jne	LBB49_3
	.p2align	4, 0x90
LBB49_6:
	addq	$56, %rbx
	cmpq	%r15, %rbx
	je	LBB49_7
LBB49_2:
	movq	8(%rbx), %rax
	testq	%rax, %rax
	je	LBB49_6
LBB49_3:
	movq	(%rbx), %rdi
	testq	%rdi, %rdi
	je	LBB49_6
	shlq	$2, %rax
	leaq	(%rax,%rax,4), %rsi
	testq	%rsi, %rsi
	je	LBB49_6
	movl	$4, %edx
	callq	___rust_dealloc
	addq	$56, %rbx
	cmpq	%r15, %rbx
	jne	LBB49_2
LBB49_7:
	movq	(%r14), %rbx
LBB49_8:
	movq	8(%r14), %rax
	testq	%rax, %rax
	je	LBB49_12
	testq	%rbx, %rbx
	je	LBB49_12
	imulq	$56, %rax, %rsi
	testq	%rsi, %rsi
	je	LBB49_12
	movl	$8, %edx
	movq	%rbx, %rdi
	callq	___rust_dealloc
LBB49_12:
	movq	24(%r14), %r12
	movq	40(%r14), %rax
	testq	%rax, %rax
	je	LBB49_21
	shlq	$3, %rax
	leaq	(%rax,%rax,4), %r15
	xorl	%ebx, %ebx
	cmpl	$2, 24(%r12,%rbx)
	jne	LBB49_15
	.p2align	4, 0x90
LBB49_19:
	addq	$40, %rbx
	cmpq	%rbx, %r15
	je	LBB49_20
LBB49_14:
	cmpl	$2, 24(%r12,%rbx)
	je	LBB49_19
LBB49_15:
	movq	8(%r12,%rbx), %rax
	testq	%rax, %rax
	je	LBB49_19
	movq	(%r12,%rbx), %rdi
	testq	%rdi, %rdi
	je	LBB49_19
	shlq	$2, %rax
	leaq	(%rax,%rax,4), %rsi
	testq	%rsi, %rsi
	je	LBB49_19
	movl	$4, %edx
	callq	___rust_dealloc
	addq	$40, %rbx
	cmpq	%rbx, %r15
	jne	LBB49_14
LBB49_20:
	movq	24(%r14), %r12
LBB49_21:
	movq	32(%r14), %rax
	testq	%rax, %rax
	je	LBB49_24
	testq	%r12, %r12
	je	LBB49_24
	shlq	$3, %rax
	leaq	(%rax,%rax,4), %rsi
	testq	%rsi, %rsi
	je	LBB49_24
	movl	$8, %edx
	movq	%r12, %rdi
	popq	%rbx
	popq	%r12
	popq	%r14
	popq	%r15
	popq	%rbp
	jmp	___rust_dealloc
LBB49_24:
	popq	%rbx
	popq	%r12
	popq	%r14
	popq	%r15
	popq	%rbp
	retq
	.cfi_endproc

	.p2align	4, 0x90
__ZN4core3ptr13drop_in_place17hec6c86c968e2fa8fE:
	.cfi_startproc
	pushq	%rbp
	.cfi_def_cfa_offset 16
	.cfi_offset %rbp, -16
	movq	%rsp, %rbp
	.cfi_def_cfa_register %rbp
	pushq	%rbx
	pushq	%rax
	.cfi_offset %rbx, -24
	movq	%rdi, %rbx
	movq	(%rdi), %rax
	movq	(%rax), %rdi
	callq	__ZN9hashbrown3raw23bucket_mask_to_capacity17h4bf1081b6c8626a8E
	movq	(%rbx), %rcx
	subq	32(%rcx), %rax
	movq	%rax, 24(%rcx)
	addq	$8, %rsp
	popq	%rbx
	popq	%rbp
	retq
	.cfi_endproc

	.p2align	4, 0x90
__ZN4core3ptr13drop_in_place17hfa663cebf280ca91E:
	.cfi_startproc
	pushq	%rbp
	.cfi_def_cfa_offset 16
	.cfi_offset %rbp, -16
	movq	%rsp, %rbp
	.cfi_def_cfa_register %rbp
	movl	%edi, (%rsi)
	popq	%rbp
	retq
	.cfi_endproc

	.p2align	4, 0x90
__ZN4core3ptr13drop_in_place17hfdcd5cf10643ddf5E:
	.cfi_startproc
	pushq	%rbp
	.cfi_def_cfa_offset 16
	.cfi_offset %rbp, -16
	movq	%rsp, %rbp
	.cfi_def_cfa_register %rbp
	movq	8(%rdi), %rsi
	testq	%rsi, %rsi
	je	LBB52_3
	movq	(%rdi), %rdi
	testq	%rdi, %rdi
	je	LBB52_3
	shlq	$3, %rsi
	testq	%rsi, %rsi
	je	LBB52_3
	movl	$4, %edx
	popq	%rbp
	jmp	___rust_dealloc
LBB52_3:
	popq	%rbp
	retq
	.cfi_endproc

	.p2align	4, 0x90
__ZN5alloc3vec12Vec$LT$T$GT$4push17h4ccca563008a4afcE:
	.cfi_startproc
	pushq	%rbp
	.cfi_def_cfa_offset 16
	.cfi_offset %rbp, -16
	movq	%rsp, %rbp
	.cfi_def_cfa_register %rbp
	pushq	%r15
	pushq	%r14
	pushq	%r12
	pushq	%rbx
	.cfi_offset %rbx, -48
	.cfi_offset %r12, -40
	.cfi_offset %r14, -32
	.cfi_offset %r15, -24
	movq	%rdx, %r14
	movq	%rsi, %r15
	movq	%rdi, %rbx
	movq	16(%rdi), %rcx
	cmpq	8(%rdi), %rcx
	jne	LBB53_18
	movq	%rcx, %rax
	incq	%rax
	je	LBB53_19
	leaq	(%rcx,%rcx), %rdx
	cmpq	%rax, %rdx
	cmovaq	%rdx, %rax
	movl	$16, %edx
	xorl	%esi, %esi
	mulq	%rdx
	movq	%rax, %r12
	seto	%dl
	setno	%dil
	movq	%rcx, %rax
	testq	%rcx, %rcx
	je	LBB53_4
	movq	(%rbx), %rax
LBB53_4:
	testb	%dl, %dl
	jne	LBB53_19
	testq	%rax, %rax
	je	LBB53_12
	movq	%rcx, %rsi
	shlq	$4, %rsi
	cmpq	%r12, %rsi
	je	LBB53_15
	testq	%rsi, %rsi
	je	LBB53_8
	movl	$8, %edx
	movq	%rax, %rdi
	movq	%r12, %rcx
	callq	___rust_realloc
	testq	%rax, %rax
	jne	LBB53_16
	jmp	LBB53_20
LBB53_12:
	movb	%dil, %sil
	shlq	$3, %rsi
	testq	%r12, %r12
	jne	LBB53_13
	movq	%rsi, %rax
	testq	%rax, %rax
	jne	LBB53_16
	jmp	LBB53_20
LBB53_8:
	testq	%r12, %r12
	je	LBB53_9
	movl	$8, %esi
LBB53_13:
	movq	%r12, %rdi
	callq	___rust_alloc
LBB53_15:
	testq	%rax, %rax
	je	LBB53_20
LBB53_16:
	movq	16(%rbx), %rcx
LBB53_17:
	movq	%rax, (%rbx)
	shrq	$4, %r12
	movq	%r12, 8(%rbx)
LBB53_18:
	movq	(%rbx), %rax
	shlq	$4, %rcx
	movq	%r15, (%rax,%rcx)
	movq	%r14, 8(%rax,%rcx)
	incq	16(%rbx)
	popq	%rbx
	popq	%r12
	popq	%r14
	popq	%r15
	popq	%rbp
	retq
LBB53_9:
	movl	$8, %eax
	jmp	LBB53_17
LBB53_19:
	callq	__ZN5alloc7raw_vec17capacity_overflow17h023f34f5bc34c61fE
LBB53_20:
	movl	$8, %esi
	movq	%r12, %rdi
	callq	__ZN5alloc5alloc18handle_alloc_error17hbc0ab0ed90816c07E
	.cfi_endproc

	.p2align	4, 0x90
__ZN5alloc3vec12Vec$LT$T$GT$4push17hd5f69ba2ef4fee5cE:
Lfunc_begin0:
	.cfi_startproc
	.cfi_personality 155, _rust_eh_personality
	.cfi_lsda 16, Lexception0
	pushq	%rbp
	.cfi_def_cfa_offset 16
	.cfi_offset %rbp, -16
	movq	%rsp, %rbp
	.cfi_def_cfa_register %rbp
	pushq	%r15
	pushq	%r14
	pushq	%rbx
	pushq	%rax
	.cfi_offset %rbx, -40
	.cfi_offset %r14, -32
	.cfi_offset %r15, -24
	movq	%rsi, %r14
	movq	%rdi, %rbx
	movq	16(%rdi), %rcx
	cmpq	8(%rdi), %rcx
	jne	LBB54_18
	movq	%rcx, %rax
	incq	%rax
	je	LBB54_19
	leaq	(%rcx,%rcx), %rdx
	cmpq	%rax, %rdx
	cmovaq	%rdx, %rax
	movl	$72, %edx
	xorl	%esi, %esi
	mulq	%rdx
	movq	%rax, %r15
	seto	%dl
	setno	%dil
	movq	%rcx, %rax
	testq	%rcx, %rcx
	je	LBB54_4
	movq	(%rbx), %rax
LBB54_4:
	testb	%dl, %dl
	jne	LBB54_19
	testq	%rax, %rax
	je	LBB54_12
	leaq	(,%rcx,8), %rdx
	leaq	(%rdx,%rdx,8), %rsi
	cmpq	%r15, %rsi
	je	LBB54_15
	testq	%rsi, %rsi
	je	LBB54_8
	movl	$8, %edx
	movq	%rax, %rdi
	movq	%r15, %rcx
	callq	___rust_realloc
	testq	%rax, %rax
	jne	LBB54_16
	jmp	LBB54_21
LBB54_12:
	movb	%dil, %sil
	shlq	$3, %rsi
	testq	%r15, %r15
	jne	LBB54_13
	movq	%rsi, %rax
	testq	%rax, %rax
	jne	LBB54_16
	jmp	LBB54_21
LBB54_8:
	testq	%r15, %r15
	je	LBB54_9
	movl	$8, %esi
LBB54_13:
	movq	%r15, %rdi
	callq	___rust_alloc
LBB54_15:
	testq	%rax, %rax
	je	LBB54_21
LBB54_16:
	movq	16(%rbx), %rcx
LBB54_17:
	movq	%rax, (%rbx)
	movabsq	$-2049638230412172401, %rdx
	movq	%r15, %rax
	mulq	%rdx
	shrq	$6, %rdx
	movq	%rdx, 8(%rbx)
LBB54_18:
	movq	(%rbx), %rax
	leaq	(%rcx,%rcx,8), %rcx
	movq	64(%r14), %rdx
	movq	%rdx, 64(%rax,%rcx,8)
	vmovups	(%r14), %ymm0
	vmovups	32(%r14), %ymm1
	vmovups	%ymm1, 32(%rax,%rcx,8)
	vmovups	%ymm0, (%rax,%rcx,8)
	incq	16(%rbx)
	addq	$8, %rsp
	popq	%rbx
	popq	%r14
	popq	%r15
	popq	%rbp
	vzeroupper
	retq
LBB54_9:
	movl	$8, %eax
	jmp	LBB54_17
LBB54_19:
Ltmp0:
	callq	__ZN5alloc7raw_vec17capacity_overflow17h023f34f5bc34c61fE
Ltmp1:
	ud2
LBB54_21:
	movl	$8, %esi
	movq	%r15, %rdi
	callq	__ZN5alloc5alloc18handle_alloc_error17hbc0ab0ed90816c07E
LBB54_22:
Ltmp2:
	movq	%rax, %rbx
	movq	%r14, %rdi
	callq	__ZN4core3ptr13drop_in_place17h683437b431c1db66E
	movq	%rbx, %rdi
	callq	__Unwind_Resume
	ud2
Lfunc_end0:
	.cfi_endproc
	.section	__TEXT,__gcc_except_tab
	.p2align	2
GCC_except_table54:
Lexception0:
	.byte	255
	.byte	255
	.byte	1
	.uleb128 Lcst_end0-Lcst_begin0
Lcst_begin0:
	.uleb128 Ltmp0-Lfunc_begin0
	.uleb128 Ltmp1-Ltmp0
	.uleb128 Ltmp2-Lfunc_begin0
	.byte	0
	.uleb128 Ltmp1-Lfunc_begin0
	.uleb128 Lfunc_end0-Ltmp1
	.byte	0
	.byte	0
Lcst_end0:
	.p2align	2

	.section	__TEXT,__text,regular,pure_instructions
	.p2align	4, 0x90
__ZN5alloc3vec12Vec$LT$T$GT$7reserve17h3143453b9f86f87eE:
	.cfi_startproc
	pushq	%rbp
	.cfi_def_cfa_offset 16
	.cfi_offset %rbp, -16
	movq	%rsp, %rbp
	.cfi_def_cfa_register %rbp
	pushq	%r14
	pushq	%rbx
	.cfi_offset %rbx, -32
	.cfi_offset %r14, -24
	movq	8(%rdi), %rcx
	movq	16(%rdi), %rax
	movq	%rcx, %rdx
	subq	%rax, %rdx
	cmpq	%rsi, %rdx
	jae	LBB55_17
	addq	%rsi, %rax
	jb	LBB55_18
	movq	%rdi, %rbx
	leaq	(%rcx,%rcx), %rdx
	cmpq	%rax, %rdx
	cmovaq	%rdx, %rax
	movl	$40, %edx
	xorl	%esi, %esi
	mulq	%rdx
	movq	%rax, %r14
	seto	%dl
	setno	%dil
	movq	%rcx, %rax
	testq	%rcx, %rcx
	je	LBB55_4
	movq	(%rbx), %rax
LBB55_4:
	testb	%dl, %dl
	jne	LBB55_18
	testq	%rax, %rax
	je	LBB55_12
	shlq	$3, %rcx
	leaq	(%rcx,%rcx,4), %rsi
	cmpq	%r14, %rsi
	je	LBB55_15
	testq	%rsi, %rsi
	je	LBB55_8
	movl	$8, %edx
	movq	%rax, %rdi
	movq	%r14, %rcx
	callq	___rust_realloc
	testq	%rax, %rax
	jne	LBB55_16
	jmp	LBB55_19
LBB55_12:
	movb	%dil, %sil
	shlq	$3, %rsi
	testq	%r14, %r14
	jne	LBB55_13
	movq	%rsi, %rax
	testq	%rax, %rax
	jne	LBB55_16
	jmp	LBB55_19
LBB55_8:
	testq	%r14, %r14
	je	LBB55_9
	movl	$8, %esi
LBB55_13:
	movq	%r14, %rdi
	callq	___rust_alloc
LBB55_15:
	testq	%rax, %rax
	je	LBB55_19
LBB55_16:
	movq	%rax, (%rbx)
	movabsq	$-3689348814741910323, %rcx
	movq	%r14, %rax
	mulq	%rcx
	shrq	$5, %rdx
	movq	%rdx, 8(%rbx)
LBB55_17:
	popq	%rbx
	popq	%r14
	popq	%rbp
	retq
LBB55_9:
	movl	$8, %eax
	jmp	LBB55_16
LBB55_18:
	callq	__ZN5alloc7raw_vec17capacity_overflow17h023f34f5bc34c61fE
LBB55_19:
	movl	$8, %esi
	movq	%r14, %rdi
	callq	__ZN5alloc5alloc18handle_alloc_error17hbc0ab0ed90816c07E
	.cfi_endproc

	.p2align	4, 0x90
__ZN5alloc3vec12Vec$LT$T$GT$7reserve17h35d1e0dc15cd4847E:
	.cfi_startproc
	pushq	%rbp
	.cfi_def_cfa_offset 16
	.cfi_offset %rbp, -16
	movq	%rsp, %rbp
	.cfi_def_cfa_register %rbp
	pushq	%r14
	pushq	%rbx
	.cfi_offset %rbx, -32
	.cfi_offset %r14, -24
	movq	%rsi, %rcx
	movq	8(%rdi), %rsi
	movq	16(%rdi), %rax
	movq	%rsi, %rdx
	subq	%rax, %rdx
	cmpq	%rcx, %rdx
	jae	LBB56_17
	addq	%rcx, %rax
	jb	LBB56_18
	movq	%rdi, %rbx
	leaq	(%rsi,%rsi), %rcx
	cmpq	%rax, %rcx
	cmovaq	%rcx, %rax
	movl	$4, %edx
	xorl	%ecx, %ecx
	mulq	%rdx
	movq	%rax, %r14
	seto	%dl
	setno	%dil
	movq	%rsi, %rax
	testq	%rsi, %rsi
	je	LBB56_4
	movq	(%rbx), %rax
LBB56_4:
	testb	%dl, %dl
	jne	LBB56_18
	testq	%rax, %rax
	je	LBB56_12
	shlq	$2, %rsi
	cmpq	%r14, %rsi
	je	LBB56_15
	testq	%rsi, %rsi
	je	LBB56_8
	movl	$4, %edx
	movq	%rax, %rdi
	movq	%r14, %rcx
	callq	___rust_realloc
	testq	%rax, %rax
	jne	LBB56_16
	jmp	LBB56_19
LBB56_12:
	movb	%dil, %cl
	shlq	$2, %rcx
	testq	%r14, %r14
	je	LBB56_14
	movq	%r14, %rdi
	movq	%rcx, %rsi
	callq	___rust_alloc
LBB56_15:
	testq	%rax, %rax
	je	LBB56_19
LBB56_16:
	movq	%rax, (%rbx)
	shrq	$2, %r14
	movq	%r14, 8(%rbx)
LBB56_17:
	popq	%rbx
	popq	%r14
	popq	%rbp
	retq
LBB56_14:
	movq	%rcx, %rax
	testq	%rax, %rax
	jne	LBB56_16
	jmp	LBB56_19
LBB56_8:
	testq	%r14, %r14
	je	LBB56_9
	movl	$4, %esi
	movq	%r14, %rdi
	callq	___rust_alloc
	testq	%rax, %rax
	jne	LBB56_16
LBB56_19:
	movl	$4, %esi
	movq	%r14, %rdi
	callq	__ZN5alloc5alloc18handle_alloc_error17hbc0ab0ed90816c07E
LBB56_9:
	movl	$4, %eax
	jmp	LBB56_16
LBB56_18:
	callq	__ZN5alloc7raw_vec17capacity_overflow17h023f34f5bc34c61fE
	.cfi_endproc

	.p2align	4, 0x90
__ZN5alloc3vec12Vec$LT$T$GT$7reserve17h423314fa13e9dfa1E:
	.cfi_startproc
	pushq	%rbp
	.cfi_def_cfa_offset 16
	.cfi_offset %rbp, -16
	movq	%rsp, %rbp
	.cfi_def_cfa_register %rbp
	pushq	%r14
	pushq	%rbx
	.cfi_offset %rbx, -32
	.cfi_offset %r14, -24
	movq	8(%rdi), %rcx
	movq	16(%rdi), %rax
	movq	%rcx, %rdx
	subq	%rax, %rdx
	cmpq	%rsi, %rdx
	jae	LBB57_17
	addq	%rsi, %rax
	jb	LBB57_18
	movq	%rdi, %rbx
	leaq	(%rcx,%rcx), %rdx
	cmpq	%rax, %rdx
	cmovaq	%rdx, %rax
	movl	$56, %edx
	xorl	%esi, %esi
	mulq	%rdx
	movq	%rax, %r14
	seto	%dl
	setno	%dil
	movq	%rcx, %rax
	testq	%rcx, %rcx
	je	LBB57_4
	movq	(%rbx), %rax
LBB57_4:
	testb	%dl, %dl
	jne	LBB57_18
	testq	%rax, %rax
	je	LBB57_12
	imulq	$56, %rcx, %rsi
	cmpq	%r14, %rsi
	je	LBB57_15
	testq	%rsi, %rsi
	je	LBB57_8
	movl	$8, %edx
	movq	%rax, %rdi
	movq	%r14, %rcx
	callq	___rust_realloc
	testq	%rax, %rax
	jne	LBB57_16
	jmp	LBB57_19
LBB57_12:
	movb	%dil, %sil
	shlq	$3, %rsi
	testq	%r14, %r14
	jne	LBB57_13
	movq	%rsi, %rax
	testq	%rax, %rax
	jne	LBB57_16
	jmp	LBB57_19
LBB57_8:
	testq	%r14, %r14
	je	LBB57_9
	movl	$8, %esi
LBB57_13:
	movq	%r14, %rdi
	callq	___rust_alloc
LBB57_15:
	testq	%rax, %rax
	je	LBB57_19
LBB57_16:
	movq	%rax, (%rbx)
	shrq	$3, %r14
	movabsq	$2635249153387078803, %rcx
	movq	%r14, %rax
	mulq	%rcx
	movq	%rdx, 8(%rbx)
LBB57_17:
	popq	%rbx
	popq	%r14
	popq	%rbp
	retq
LBB57_9:
	movl	$8, %eax
	jmp	LBB57_16
LBB57_18:
	callq	__ZN5alloc7raw_vec17capacity_overflow17h023f34f5bc34c61fE
LBB57_19:
	movl	$8, %esi
	movq	%r14, %rdi
	callq	__ZN5alloc5alloc18handle_alloc_error17hbc0ab0ed90816c07E
	.cfi_endproc

	.p2align	4, 0x90
__ZN5alloc3vec12Vec$LT$T$GT$7reserve17ha59824b56f135026E:
	.cfi_startproc
	pushq	%rbp
	.cfi_def_cfa_offset 16
	.cfi_offset %rbp, -16
	movq	%rsp, %rbp
	.cfi_def_cfa_register %rbp
	pushq	%r14
	pushq	%rbx
	.cfi_offset %rbx, -32
	.cfi_offset %r14, -24
	movq	%rsi, %rcx
	movq	8(%rdi), %rsi
	movq	16(%rdi), %rax
	movq	%rsi, %rdx
	subq	%rax, %rdx
	cmpq	%rcx, %rdx
	jae	LBB58_17
	addq	%rcx, %rax
	jb	LBB58_18
	movq	%rdi, %rbx
	leaq	(%rsi,%rsi), %rcx
	cmpq	%rax, %rcx
	cmovaq	%rcx, %rax
	movl	$8, %edx
	xorl	%ecx, %ecx
	mulq	%rdx
	movq	%rax, %r14
	seto	%dl
	setno	%dil
	movq	%rsi, %rax
	testq	%rsi, %rsi
	je	LBB58_4
	movq	(%rbx), %rax
LBB58_4:
	testb	%dl, %dl
	jne	LBB58_18
	testq	%rax, %rax
	je	LBB58_12
	shlq	$3, %rsi
	cmpq	%r14, %rsi
	je	LBB58_15
	testq	%rsi, %rsi
	je	LBB58_8
	movl	$4, %edx
	movq	%rax, %rdi
	movq	%r14, %rcx
	callq	___rust_realloc
	testq	%rax, %rax
	jne	LBB58_16
	jmp	LBB58_19
LBB58_12:
	movb	%dil, %cl
	shlq	$2, %rcx
	testq	%r14, %r14
	je	LBB58_14
	movq	%r14, %rdi
	movq	%rcx, %rsi
	callq	___rust_alloc
LBB58_15:
	testq	%rax, %rax
	je	LBB58_19
LBB58_16:
	movq	%rax, (%rbx)
	shrq	$3, %r14
	movq	%r14, 8(%rbx)
LBB58_17:
	popq	%rbx
	popq	%r14
	popq	%rbp
	retq
LBB58_14:
	movq	%rcx, %rax
	testq	%rax, %rax
	jne	LBB58_16
	jmp	LBB58_19
LBB58_8:
	testq	%r14, %r14
	je	LBB58_9
	movl	$4, %esi
	movq	%r14, %rdi
	callq	___rust_alloc
	testq	%rax, %rax
	jne	LBB58_16
LBB58_19:
	movl	$4, %esi
	movq	%r14, %rdi
	callq	__ZN5alloc5alloc18handle_alloc_error17hbc0ab0ed90816c07E
LBB58_9:
	movl	$4, %eax
	jmp	LBB58_16
LBB58_18:
	callq	__ZN5alloc7raw_vec17capacity_overflow17h023f34f5bc34c61fE
	.cfi_endproc

	.p2align	4, 0x90
__ZN5alloc3vec12Vec$LT$T$GT$7reserve17hd253ad3989e49a56E:
	.cfi_startproc
	pushq	%rbp
	.cfi_def_cfa_offset 16
	.cfi_offset %rbp, -16
	movq	%rsp, %rbp
	.cfi_def_cfa_register %rbp
	pushq	%r14
	pushq	%rbx
	.cfi_offset %rbx, -32
	.cfi_offset %r14, -24
	movq	8(%rdi), %rcx
	movq	16(%rdi), %rax
	movq	%rcx, %rdx
	subq	%rax, %rdx
	cmpq	%rsi, %rdx
	jae	LBB59_17
	addq	%rsi, %rax
	jb	LBB59_18
	movq	%rdi, %rbx
	leaq	(%rcx,%rcx), %rdx
	cmpq	%rax, %rdx
	cmovaq	%rdx, %rax
	movl	$20, %edx
	xorl	%esi, %esi
	mulq	%rdx
	movq	%rax, %r14
	seto	%dl
	setno	%dil
	movq	%rcx, %rax
	testq	%rcx, %rcx
	je	LBB59_4
	movq	(%rbx), %rax
LBB59_4:
	testb	%dl, %dl
	jne	LBB59_18
	testq	%rax, %rax
	je	LBB59_12
	shlq	$2, %rcx
	leaq	(%rcx,%rcx,4), %rsi
	cmpq	%r14, %rsi
	je	LBB59_15
	testq	%rsi, %rsi
	je	LBB59_8
	movl	$4, %edx
	movq	%rax, %rdi
	movq	%r14, %rcx
	callq	___rust_realloc
	testq	%rax, %rax
	jne	LBB59_16
	jmp	LBB59_19
LBB59_12:
	movb	%dil, %sil
	shlq	$2, %rsi
	testq	%r14, %r14
	jne	LBB59_13
	movq	%rsi, %rax
	testq	%rax, %rax
	jne	LBB59_16
	jmp	LBB59_19
LBB59_8:
	testq	%r14, %r14
	je	LBB59_9
	movl	$4, %esi
LBB59_13:
	movq	%r14, %rdi
	callq	___rust_alloc
LBB59_15:
	testq	%rax, %rax
	je	LBB59_19
LBB59_16:
	movq	%rax, (%rbx)
	movabsq	$-3689348814741910323, %rcx
	movq	%r14, %rax
	mulq	%rcx
	shrq	$4, %rdx
	movq	%rdx, 8(%rbx)
LBB59_17:
	popq	%rbx
	popq	%r14
	popq	%rbp
	retq
LBB59_9:
	movl	$4, %eax
	jmp	LBB59_16
LBB59_18:
	callq	__ZN5alloc7raw_vec17capacity_overflow17h023f34f5bc34c61fE
LBB59_19:
	movl	$4, %esi
	movq	%r14, %rdi
	callq	__ZN5alloc5alloc18handle_alloc_error17hbc0ab0ed90816c07E
	.cfi_endproc

	.p2align	4, 0x90
__ZN5alloc5slice29_$LT$impl$u20$$u5b$T$u5d$$GT$7sort_by28_$u7b$$u7b$closure$u7d$$u7d$17hbba0e17172afa105E:
	.cfi_startproc
	pushq	%rbp
	.cfi_def_cfa_offset 16
	.cfi_offset %rbp, -16
	movq	%rsp, %rbp
	.cfi_def_cfa_register %rbp
	movq	(%rdi), %rax
	movq	(%rax), %rax
	movq	(%rax), %rcx
	movq	32(%rcx), %rdi
	addq	$32, %rdi
	jb	LBB60_21
	movl	%edx, %r9d
	movl	%esi, %r8d
	decq	%rdi
	andq	$-32, %rdi
	movq	%r8, %rax
	mulq	%rdi
	jo	LBB60_6
	movq	%rax, %rsi
	movl	%r9d, %eax
	addq	%rax, %rsi
	jb	LBB60_7
	movq	24(%rcx), %r9
	cmpq	%rsi, %r9
	jbe	LBB60_5
	movq	%rsi, %rdx
	shrq	$5, %rdx
	movq	16(%rcx), %r10
	cmpq	%rdx, %r10
	jbe	LBB60_5
	movq	(%rcx), %rcx
	movl	(%rcx,%rdx,4), %ecx
	btl	%esi, %ecx
	jb	LBB60_9
	movq	__ZN10bit_matrix5FALSE17hd3f7b703ac23795dE@GOTPCREL(%rip), %rdx
	movb	$1, %cl
	cmpb	$0, (%rdx)
	je	LBB60_12
LBB60_17:
	movl	%ecx, %eax
	popq	%rbp
	retq
LBB60_9:
	movq	__ZN10bit_matrix4TRUE17hba312109be1bd94eE@GOTPCREL(%rip), %rdx
	movb	$1, %cl
	cmpb	$0, (%rdx)
	jne	LBB60_17
LBB60_12:
	mulq	%rdi
	jo	LBB60_19
	addq	%r8, %rax
	jb	LBB60_20
	cmpq	%rax, %r9
	jbe	LBB60_18
	shrq	$5, %rax
	cmpq	%rax, %r10
	jbe	LBB60_18
	xorl	%ecx, %ecx
	movl	%ecx, %eax
	popq	%rbp
	retq
LBB60_5:
	leaq	l___unnamed_35(%rip), %rdi
	leaq	l___unnamed_36(%rip), %rdx
	movl	$43, %esi
	callq	__ZN4core9panicking5panic17h736ee47a631475c0E
LBB60_21:
	leaq	_str.1(%rip), %rdi
	leaq	l___unnamed_37(%rip), %rdx
	movl	$28, %esi
	callq	__ZN4core9panicking5panic17h736ee47a631475c0E
LBB60_6:
	leaq	_str.0(%rip), %rdi
	leaq	l___unnamed_36(%rip), %rdx
	movl	$33, %esi
	callq	__ZN4core9panicking5panic17h736ee47a631475c0E
LBB60_7:
	leaq	_str.1(%rip), %rdi
	leaq	l___unnamed_36(%rip), %rdx
	movl	$28, %esi
	callq	__ZN4core9panicking5panic17h736ee47a631475c0E
LBB60_18:
	leaq	l___unnamed_35(%rip), %rdi
	leaq	l___unnamed_38(%rip), %rdx
	movl	$43, %esi
	callq	__ZN4core9panicking5panic17h736ee47a631475c0E
LBB60_19:
	leaq	_str.0(%rip), %rdi
	leaq	l___unnamed_38(%rip), %rdx
	movl	$33, %esi
	callq	__ZN4core9panicking5panic17h736ee47a631475c0E
LBB60_20:
	leaq	_str.1(%rip), %rdi
	leaq	l___unnamed_38(%rip), %rdx
	movl	$28, %esi
	callq	__ZN4core9panicking5panic17h736ee47a631475c0E
	.cfi_endproc

	.p2align	4, 0x90
__ZN5alloc7raw_vec19RawVec$LT$T$C$A$GT$11allocate_in28_$u7b$$u7b$closure$u7d$$u7d$17h04816d799b381db8E:
	.cfi_startproc
	pushq	%rbp
	.cfi_def_cfa_offset 16
	.cfi_offset %rbp, -16
	movq	%rsp, %rbp
	.cfi_def_cfa_register %rbp
	callq	__ZN5alloc5alloc18handle_alloc_error17hbc0ab0ed90816c07E
	.cfi_endproc

	.p2align	4, 0x90
__ZN5alloc7raw_vec19RawVec$LT$T$C$A$GT$11allocate_in28_$u7b$$u7b$closure$u7d$$u7d$17h1663d982e1f6196bE:
	.cfi_startproc
	pushq	%rbp
	.cfi_def_cfa_offset 16
	.cfi_offset %rbp, -16
	movq	%rsp, %rbp
	.cfi_def_cfa_register %rbp
	callq	__ZN5alloc7raw_vec17capacity_overflow17h023f34f5bc34c61fE
	.cfi_endproc

	.p2align	4, 0x90
__ZN7bit_vec6BitVec9from_elem17hd3ec0eb92116818aE:
Lfunc_begin1:
	.cfi_startproc
	.cfi_personality 155, _rust_eh_personality
	.cfi_lsda 16, Lexception1
	pushq	%rbp
	.cfi_def_cfa_offset 16
	.cfi_offset %rbp, -16
	movq	%rsp, %rbp
	.cfi_def_cfa_register %rbp
	pushq	%r15
	pushq	%r14
	pushq	%r13
	pushq	%r12
	pushq	%rbx
	subq	$56, %rsp
	.cfi_offset %rbx, -56
	.cfi_offset %r12, -48
	.cfi_offset %r13, -40
	.cfi_offset %r14, -32
	.cfi_offset %r15, -24
	movl	%edx, %r13d
	movq	%rsi, %r8
	movq	%rdi, %rbx
	xorl	%r14d, %r14d
	testb	$31, %r8b
	setne	%r14b
	movq	%rsi, %r15
	shrq	$5, %r15
	leaq	(%r15,%r14), %r12
	testb	%r13b, %r13b
	je	LBB63_8
	movq	%r8, -56(%rbp)
	movq	%rbx, -48(%rbp)
	testq	%r12, %r12
	je	LBB63_2
	leaq	(,%r12,4), %rdi
	movl	$4, %esi
	movq	%rdi, %rbx
	callq	___rust_alloc
	testq	%rax, %rax
	jne	LBB63_3
	movl	$4, %esi
	movq	%rbx, %rdi
	callq	__ZN5alloc7raw_vec19RawVec$LT$T$C$A$GT$11allocate_in28_$u7b$$u7b$closure$u7d$$u7d$17h04816d799b381db8E
LBB63_8:
	testq	%r12, %r12
	je	LBB63_9
	leaq	(,%r12,4), %r14
	movl	$4, %esi
	movq	%r14, %rdi
	movq	%r8, %r15
	callq	___rust_alloc_zeroed
	movq	%r15, %r8
	movq	%rax, %rcx
	movq	%r12, %rsi
	testq	%rax, %rax
	jne	LBB63_28
	movl	$4, %esi
	movq	%r14, %rdi
	callq	__ZN5alloc7raw_vec19RawVec$LT$T$C$A$GT$11allocate_in28_$u7b$$u7b$closure$u7d$$u7d$17h04816d799b381db8E
LBB63_2:
	movl	$4, %eax
LBB63_3:
	movq	%rax, -88(%rbp)
	movq	%r12, -80(%rbp)
	movq	$0, -72(%rbp)
Ltmp3:
	leaq	-88(%rbp), %rdi
	movq	%r12, %rsi
	callq	__ZN5alloc3vec12Vec$LT$T$GT$7reserve17h35d1e0dc15cd4847E
Ltmp4:
	negl	%r13d
	movq	-88(%rbp), %r10
	movq	-72(%rbp), %r11
	leaq	(%r10,%r11,4), %rcx
	cmpq	$2, %r12
	jb	LBB63_5
	leaq	(%r15,%r14), %r8
	addq	$-1, %r8
	movl	$1, %r9d
	cmpq	$31, %r8
	jbe	LBB63_13
	movq	%r8, %r9
	andq	$-32, %r9
	vmovd	%r13d, %xmm0
	vpbroadcastd	%xmm0, %ymm0
	leaq	-32(%r9), %rsi
	movq	%rsi, %rdx
	shrq	$5, %rdx
	incq	%rdx
	movl	%edx, %eax
	andl	$7, %eax
	cmpq	$224, %rsi
	jae	LBB63_17
	xorl	%edx, %edx
	testq	%rax, %rax
	jne	LBB63_20
	jmp	LBB63_22
LBB63_5:
	movq	-48(%rbp), %rbx
	movq	-56(%rbp), %r8
	testq	%r12, %r12
	jne	LBB63_26
	jmp	LBB63_27
LBB63_9:
	movl	$4, %ecx
	xorl	%r12d, %r12d
	xorl	%esi, %esi
	jmp	LBB63_28
LBB63_17:
	leaq	(%r10,%r11,4), %rdi
	addq	$992, %rdi
	movq	%rax, %rsi
	subq	%rdx, %rsi
	xorl	%edx, %edx
	.p2align	4, 0x90
LBB63_18:
	vmovdqu	%ymm0, -992(%rdi,%rdx,4)
	vmovdqu	%ymm0, -960(%rdi,%rdx,4)
	vmovdqu	%ymm0, -928(%rdi,%rdx,4)
	vmovdqu	%ymm0, -896(%rdi,%rdx,4)
	vmovdqu	%ymm0, -864(%rdi,%rdx,4)
	vmovdqu	%ymm0, -832(%rdi,%rdx,4)
	vmovdqu	%ymm0, -800(%rdi,%rdx,4)
	vmovdqu	%ymm0, -768(%rdi,%rdx,4)
	vmovdqu	%ymm0, -736(%rdi,%rdx,4)
	vmovdqu	%ymm0, -704(%rdi,%rdx,4)
	vmovdqu	%ymm0, -672(%rdi,%rdx,4)
	vmovdqu	%ymm0, -640(%rdi,%rdx,4)
	vmovdqu	%ymm0, -608(%rdi,%rdx,4)
	vmovdqu	%ymm0, -576(%rdi,%rdx,4)
	vmovdqu	%ymm0, -544(%rdi,%rdx,4)
	vmovdqu	%ymm0, -512(%rdi,%rdx,4)
	vmovdqu	%ymm0, -480(%rdi,%rdx,4)
	vmovdqu	%ymm0, -448(%rdi,%rdx,4)
	vmovdqu	%ymm0, -416(%rdi,%rdx,4)
	vmovdqu	%ymm0, -384(%rdi,%rdx,4)
	vmovdqu	%ymm0, -352(%rdi,%rdx,4)
	vmovdqu	%ymm0, -320(%rdi,%rdx,4)
	vmovdqu	%ymm0, -288(%rdi,%rdx,4)
	vmovdqu	%ymm0, -256(%rdi,%rdx,4)
	vmovdqu	%ymm0, -224(%rdi,%rdx,4)
	vmovdqu	%ymm0, -192(%rdi,%rdx,4)
	vmovdqu	%ymm0, -160(%rdi,%rdx,4)
	vmovdqu	%ymm0, -128(%rdi,%rdx,4)
	vmovdqu	%ymm0, -96(%rdi,%rdx,4)
	vmovdqu	%ymm0, -64(%rdi,%rdx,4)
	vmovdqu	%ymm0, -32(%rdi,%rdx,4)
	vmovdqu	%ymm0, (%rdi,%rdx,4)
	addq	$256, %rdx
	addq	$8, %rsi
	jne	LBB63_18
	testq	%rax, %rax
	je	LBB63_22
LBB63_20:
	addq	%r11, %rdx
	leaq	(%r10,%rdx,4), %rdx
	addq	$96, %rdx
	negq	%rax
	.p2align	4, 0x90
LBB63_21:
	vmovdqu	%ymm0, -96(%rdx)
	vmovdqu	%ymm0, -64(%rdx)
	vmovdqu	%ymm0, -32(%rdx)
	vmovdqu	%ymm0, (%rdx)
	subq	$-128, %rdx
	incq	%rax
	jne	LBB63_21
LBB63_22:
	leaq	(%rcx,%r9,4), %rcx
	cmpq	%r9, %r8
	jne	LBB63_38
	movq	-48(%rbp), %rbx
	movq	-56(%rbp), %r8
	addq	%r12, %r11
	addq	$-1, %r11
	testq	%r12, %r12
	jne	LBB63_26
	jmp	LBB63_27
LBB63_38:
	orq	$1, %r9
LBB63_13:
	movq	-48(%rbp), %rbx
	movq	-56(%rbp), %r8
	addq	%r14, %r15
	subq	%r9, %r15
	.p2align	4, 0x90
LBB63_14:
	movl	%r13d, (%rcx)
	addq	$4, %rcx
	decq	%r15
	jne	LBB63_14
	addq	%r12, %r11
	addq	$-1, %r11
	testq	%r12, %r12
	je	LBB63_27
LBB63_26:
	movl	%r13d, (%rcx)
	incq	%r11
LBB63_27:
	movq	-88(%rbp), %rcx
	movq	-80(%rbp), %rsi
	movq	%r11, %r12
LBB63_28:
	movq	%rcx, -88(%rbp)
	movq	%rsi, -80(%rbp)
	movq	%r12, -72(%rbp)
	movq	%r8, -64(%rbp)
	testb	$31, %r8b
	je	LBB63_35
	movq	%r12, %rdi
	subq	$1, %rdi
	jb	LBB63_33
	cmpq	%rdi, %r12
	jbe	LBB63_31
	movl	$-1, %eax
	shlxl	%r8d, %eax, %eax
	notl	%eax
	andl	%eax, (%rcx,%rdi,4)
LBB63_35:
	movq	-88(%rbp), %rax
	movq	%rax, (%rbx)
	movq	-80(%rbp), %rax
	movq	%rax, 8(%rbx)
	movq	-72(%rbp), %rax
	movq	%rax, 16(%rbx)
	movq	-64(%rbp), %rax
	movq	%rax, 24(%rbx)
	addq	$56, %rsp
	popq	%rbx
	popq	%r12
	popq	%r13
	popq	%r14
	popq	%r15
	popq	%rbp
	vzeroupper
	retq
LBB63_33:
Ltmp8:
	leaq	_str.2(%rip), %rdi
	leaq	l___unnamed_39(%rip), %rdx
	movl	$33, %esi
	vzeroupper
	callq	__ZN4core9panicking5panic17h736ee47a631475c0E
Ltmp9:
	jmp	LBB63_32
LBB63_31:
Ltmp6:
	leaq	l___unnamed_40(%rip), %rdx
	movq	%r12, %rsi
	vzeroupper
	callq	__ZN4core9panicking18panic_bounds_check17habe69d236c55e3edE
Ltmp7:
LBB63_32:
	ud2
LBB63_36:
Ltmp10:
	jmp	LBB63_37
LBB63_39:
Ltmp5:
LBB63_37:
	movq	%rax, %rbx
	leaq	-88(%rbp), %rdi
	callq	__ZN4core3ptr13drop_in_place17h2a9af822d3a87480E
	movq	%rbx, %rdi
	callq	__Unwind_Resume
	ud2
Lfunc_end1:
	.cfi_endproc
	.section	__TEXT,__gcc_except_tab
	.p2align	2
GCC_except_table63:
Lexception1:
	.byte	255
	.byte	255
	.byte	1
	.uleb128 Lcst_end1-Lcst_begin1
Lcst_begin1:
	.uleb128 Ltmp3-Lfunc_begin1
	.uleb128 Ltmp4-Ltmp3
	.uleb128 Ltmp5-Lfunc_begin1
	.byte	0
	.uleb128 Ltmp8-Lfunc_begin1
	.uleb128 Ltmp7-Ltmp8
	.uleb128 Ltmp10-Lfunc_begin1
	.byte	0
	.uleb128 Ltmp7-Lfunc_begin1
	.uleb128 Lfunc_end1-Ltmp7
	.byte	0
	.byte	0
Lcst_end1:
	.p2align	2

	.section	__TEXT,__text,regular,pure_instructions
	.p2align	4, 0x90
__ZN81_$LT$std..collections..hash..map..DefaultHasher$u20$as$u20$core..hash..Hasher$GT$5write17h224b0f9eadf6f830E:
	.cfi_startproc
	pushq	%rbp
	.cfi_def_cfa_offset 16
	.cfi_offset %rbp, -16
	movq	%rsp, %rbp
	.cfi_def_cfa_register %rbp
	pushq	%r14
	pushq	%rbx
	.cfi_offset %rbx, -32
	.cfi_offset %r14, -24
	addq	%rdx, 16(%rdi)
	movq	64(%rdi), %r9
	testq	%r9, %r9
	je	LBB64_1
	movl	$8, %r10d
	subq	%r9, %r10
	cmpq	%rdx, %r10
	movq	%rdx, %r11
	cmovbq	%r10, %r11
	cmpq	$4, %r11
	jb	LBB64_3
	movl	(%rsi), %r8d
	movl	$4, %eax
	movq	%rax, %rcx
	orq	$1, %rcx
	cmpq	%r11, %rcx
	jb	LBB64_6
	jmp	LBB64_7
LBB64_1:
	xorl	%r10d, %r10d
	jmp	LBB64_11
LBB64_3:
	xorl	%r8d, %r8d
	xorl	%eax, %eax
	movq	%rax, %rcx
	orq	$1, %rcx
	cmpq	%r11, %rcx
	jae	LBB64_7
LBB64_6:
	movzwl	(%rsi,%rax), %ecx
	leal	(,%rax,8), %ebx
	shlxq	%rbx, %rcx, %rcx
	orq	%rcx, %r8
	orq	$2, %rax
LBB64_7:
	cmpq	%r11, %rax
	jae	LBB64_9
	movzbl	(%rsi,%rax), %ecx
	shll	$3, %eax
	shlxq	%rax, %rcx, %rax
	orq	%rax, %r8
LBB64_9:
	leal	(,%r9,8), %eax
	shlxq	%rax, %r8, %rax
	orq	56(%rdi), %rax
	movq	%rax, 56(%rdi)
	cmpq	%rdx, %r10
	jbe	LBB64_10
	addq	%rdx, %r9
	jmp	LBB64_24
LBB64_10:
	movq	48(%rdi), %rcx
	xorq	%rax, %rcx
	movq	40(%rdi), %r8
	movq	24(%rdi), %rbx
	addq	%r8, %rbx
	rorxq	$51, %r8, %r8
	xorq	%rbx, %r8
	rorxq	$32, %rbx, %r9
	rorxq	$48, %rcx, %rbx
	addq	32(%rdi), %rcx
	xorq	%rcx, %rbx
	addq	%rbx, %r9
	rorxq	$43, %rbx, %rbx
	xorq	%r9, %rbx
	movq	%rbx, 48(%rdi)
	addq	%r8, %rcx
	rorxq	$47, %r8, %rbx
	xorq	%rcx, %rbx
	movq	%rbx, 40(%rdi)
	rorxq	$32, %rcx, %rcx
	movq	%rcx, 32(%rdi)
	xorq	%rax, %r9
	movq	%r9, 24(%rdi)
	movq	$0, 64(%rdi)
LBB64_11:
	subq	%r10, %rdx
	movl	%edx, %r9d
	andl	$7, %r9d
	subq	%r9, %rdx
	cmpq	%rdx, %r10
	jae	LBB64_15
	movq	48(%rdi), %r8
	movq	24(%rdi), %rax
	movq	32(%rdi), %rcx
	movq	40(%rdi), %r11
	.p2align	4, 0x90
LBB64_13:
	movq	(%rsi,%r10), %r14
	xorq	%r14, %r8
	addq	%r11, %rax
	rorxq	$51, %r11, %r11
	xorq	%rax, %r11
	rorxq	$32, %rax, %rax
	addq	%r8, %rcx
	rorxq	$48, %r8, %rbx
	xorq	%rcx, %rbx
	addq	%rbx, %rax
	rorxq	$43, %rbx, %r8
	xorq	%rax, %r8
	addq	%r11, %rcx
	rorxq	$47, %r11, %r11
	xorq	%rcx, %r11
	rorxq	$32, %rcx, %rcx
	xorq	%r14, %rax
	addq	$8, %r10
	cmpq	%rdx, %r10
	jb	LBB64_13
	movq	%r8, 48(%rdi)
	movq	%rax, 24(%rdi)
	movq	%r11, 40(%rdi)
	movq	%rcx, 32(%rdi)
LBB64_15:
	cmpq	$4, %r9
	jb	LBB64_16
	movl	(%rsi,%r10), %edx
	movl	$4, %eax
	movq	%rax, %rcx
	orq	$1, %rcx
	cmpq	%r9, %rcx
	jb	LBB64_19
	jmp	LBB64_20
LBB64_16:
	xorl	%edx, %edx
	xorl	%eax, %eax
	movq	%rax, %rcx
	orq	$1, %rcx
	cmpq	%r9, %rcx
	jae	LBB64_20
LBB64_19:
	leaq	(%rax,%r10), %rcx
	movzwl	(%rsi,%rcx), %ecx
	leal	(,%rax,8), %ebx
	shlxq	%rbx, %rcx, %rcx
	orq	%rcx, %rdx
	orq	$2, %rax
LBB64_20:
	cmpq	%r9, %rax
	jae	LBB64_22
	addq	%rax, %r10
	movzbl	(%rsi,%r10), %ecx
	shll	$3, %eax
	shlxq	%rax, %rcx, %rax
	orq	%rax, %rdx
LBB64_22:
	movq	%rdx, 56(%rdi)
LBB64_24:
	movq	%r9, 64(%rdi)
	popq	%rbx
	popq	%r14
	popq	%rbp
	retq
	.cfi_endproc

	.p2align	4, 0x90
__ZN91_$LT$std..panicking..begin_panic..PanicPayload$LT$A$GT$$u20$as$u20$core..panic..BoxMeUp$GT$3get17hacba94417ce562deE:
	.cfi_startproc
	pushq	%rbp
	.cfi_def_cfa_offset 16
	.cfi_offset %rbp, -16
	movq	%rsp, %rbp
	.cfi_def_cfa_register %rbp
	cmpq	$0, (%rdi)
	je	LBB65_2
	movq	%rdi, %rax
	leaq	l___unnamed_41(%rip), %rdx
	popq	%rbp
	retq
LBB65_2:
	callq	__ZN3std7process5abort17h4dccaf05298ce780E
	.cfi_endproc

	.p2align	4, 0x90
__ZN91_$LT$std..panicking..begin_panic..PanicPayload$LT$A$GT$$u20$as$u20$core..panic..BoxMeUp$GT$8take_box17h95426acce073102eE:
	.cfi_startproc
	pushq	%rbp
	.cfi_def_cfa_offset 16
	.cfi_offset %rbp, -16
	movq	%rsp, %rbp
	.cfi_def_cfa_register %rbp
	pushq	%r14
	pushq	%rbx
	.cfi_offset %rbx, -32
	.cfi_offset %r14, -24
	movq	(%rdi), %rbx
	movq	8(%rdi), %r14
	movq	$0, (%rdi)
	testq	%rbx, %rbx
	je	LBB66_3
	movl	$16, %edi
	movl	$8, %esi
	callq	___rust_alloc
	testq	%rax, %rax
	je	LBB66_4
	movq	%rbx, (%rax)
	movq	%r14, 8(%rax)
	leaq	l___unnamed_41(%rip), %rdx
	popq	%rbx
	popq	%r14
	popq	%rbp
	retq
LBB66_3:
	callq	__ZN3std7process5abort17h4dccaf05298ce780E
LBB66_4:
	movl	$16, %edi
	movl	$8, %esi
	callq	__ZN5alloc5alloc18handle_alloc_error17hbc0ab0ed90816c07E
	.cfi_endproc

	.section	__TEXT,__const
	.p2align	5
LCPI67_0:
	.quad	8317987319222330741
	.quad	7816392313619706465
	.quad	7237128888997146477
	.quad	8387220255154660723
	.section	__TEXT,__text,regular,pure_instructions
	.p2align	4, 0x90
__ZN9hashbrown3map9make_hash17h2a319b3469fb36fbE:
	.cfi_startproc
	pushq	%rbp
	.cfi_def_cfa_offset 16
	.cfi_offset %rbp, -16
	movq	%rsp, %rbp
	.cfi_def_cfa_register %rbp
	pushq	%r15
	pushq	%r14
	pushq	%rbx
	subq	$88, %rsp
	.cfi_offset %rbx, -40
	.cfi_offset %r14, -32
	.cfi_offset %r15, -24
	vmovq	%rsi, %xmm0
	vmovq	%rdi, %xmm1
	vpunpcklqdq	%xmm0, %xmm1, %xmm0
	vpermq	$80, %ymm0, %ymm0
	vpxor	LCPI67_0(%rip), %ymm0, %ymm0
	movq	%rdi, -104(%rbp)
	movq	%rsi, -96(%rbp)
	movq	$0, -88(%rbp)
	vmovdqu	%ymm0, -80(%rbp)
	movq	%rdx, %rbx
	vpxor	%xmm0, %xmm0, %xmm0
	vmovdqu	%xmm0, -48(%rbp)
	movl	(%rdx), %eax
	movl	%eax, -32(%rbp)
	leaq	-104(%rbp), %r14
	leaq	-32(%rbp), %rsi
	movl	$4, %edx
	movq	%r14, %rdi
	vzeroupper
	callq	__ZN81_$LT$std..collections..hash..map..DefaultHasher$u20$as$u20$core..hash..Hasher$GT$5write17h224b0f9eadf6f830E
	movl	4(%rbx), %eax
	movl	%eax, -32(%rbp)
	leaq	-32(%rbp), %rsi
	movl	$4, %edx
	movq	%r14, %rdi
	callq	__ZN81_$LT$std..collections..hash..map..DefaultHasher$u20$as$u20$core..hash..Hasher$GT$5write17h224b0f9eadf6f830E
	movl	8(%rbx), %eax
	cmpq	$1, %rax
	jne	LBB67_1
	movl	12(%rbx), %r15d
	movq	%rax, -32(%rbp)
	leaq	-104(%rbp), %r14
	leaq	-32(%rbp), %rsi
	movl	$8, %edx
	movq	%r14, %rdi
	callq	__ZN81_$LT$std..collections..hash..map..DefaultHasher$u20$as$u20$core..hash..Hasher$GT$5write17h224b0f9eadf6f830E
	movl	%r15d, -32(%rbp)
	leaq	-32(%rbp), %rsi
	movl	$4, %edx
	movq	%r14, %rdi
	jmp	LBB67_3
LBB67_1:
	movq	%rax, -32(%rbp)
	leaq	-104(%rbp), %rdi
	leaq	-32(%rbp), %rsi
	movl	$8, %edx
LBB67_3:
	callq	__ZN81_$LT$std..collections..hash..map..DefaultHasher$u20$as$u20$core..hash..Hasher$GT$5write17h224b0f9eadf6f830E
	movl	16(%rbx), %eax
	movl	20(%rbx), %ebx
	testq	%rax, %rax
	je	LBB67_7
	cmpl	$1, %eax
	je	LBB67_7
	cmpl	$2, %eax
	jne	LBB67_6
LBB67_7:
	movq	%rax, -32(%rbp)
	leaq	-104(%rbp), %r14
	leaq	-32(%rbp), %rsi
	movl	$8, %edx
	movq	%r14, %rdi
	callq	__ZN81_$LT$std..collections..hash..map..DefaultHasher$u20$as$u20$core..hash..Hasher$GT$5write17h224b0f9eadf6f830E
	movl	%ebx, -32(%rbp)
	leaq	-32(%rbp), %rsi
	movl	$4, %edx
	movq	%r14, %rdi
	jmp	LBB67_8
LBB67_6:
	movq	%rax, -32(%rbp)
	leaq	-104(%rbp), %rdi
	leaq	-32(%rbp), %rsi
	movl	$8, %edx
LBB67_8:
	callq	__ZN81_$LT$std..collections..hash..map..DefaultHasher$u20$as$u20$core..hash..Hasher$GT$5write17h224b0f9eadf6f830E
	movq	-88(%rbp), %rax
	movq	-64(%rbp), %rcx
	shlq	$56, %rax
	orq	-48(%rbp), %rax
	movq	-56(%rbp), %rdx
	xorq	%rax, %rdx
	rorxq	$51, %rcx, %rsi
	addq	-80(%rbp), %rcx
	xorq	%rcx, %rsi
	rorxq	$32, %rcx, %rcx
	rorxq	$48, %rdx, %rdi
	addq	-72(%rbp), %rdx
	xorq	%rdx, %rdi
	addq	%rdi, %rcx
	rorxq	$43, %rdi, %rdi
	xorq	%rcx, %rdi
	addq	%rsi, %rdx
	rorxq	$47, %rsi, %rsi
	xorq	%rdx, %rsi
	rorxq	$32, %rdx, %rdx
	xorq	%rax, %rcx
	xorq	$255, %rdx
	addq	%rsi, %rcx
	rorxq	$51, %rsi, %rax
	xorq	%rcx, %rax
	rorxq	$32, %rcx, %rcx
	addq	%rdi, %rdx
	rorxq	$48, %rdi, %rsi
	xorq	%rdx, %rsi
	addq	%rsi, %rcx
	rorxq	$43, %rsi, %rsi
	xorq	%rcx, %rsi
	addq	%rax, %rdx
	rorxq	$47, %rax, %rax
	xorq	%rdx, %rax
	rorxq	$32, %rdx, %rdx
	addq	%rax, %rcx
	rorxq	$51, %rax, %rax
	xorq	%rcx, %rax
	rorxq	$32, %rcx, %rcx
	addq	%rsi, %rdx
	rorxq	$48, %rsi, %rsi
	xorq	%rdx, %rsi
	addq	%rsi, %rcx
	rorxq	$43, %rsi, %rsi
	xorq	%rcx, %rsi
	addq	%rax, %rdx
	rorxq	$47, %rax, %rdi
	xorq	%rdx, %rdi
	rorxq	$32, %rdx, %rax
	addq	%rdi, %rcx
	rorxq	$51, %rdi, %rdx
	xorq	%rcx, %rdx
	addq	%rsi, %rax
	rorxq	$48, %rsi, %rcx
	xorq	%rax, %rcx
	rorxq	$43, %rcx, %rcx
	addq	%rdx, %rax
	rorxq	$47, %rdx, %rdx
	rorxq	$32, %rax, %rsi
	xorq	%rcx, %rax
	xorq	%rdx, %rax
	xorq	%rsi, %rax
	addq	$88, %rsp
	popq	%rbx
	popq	%r14
	popq	%r15
	popq	%rbp
	retq
	.cfi_endproc

	.section	__TEXT,__literal16,16byte_literals
	.p2align	4
LCPI68_0:
	.space	16,128
	.section	__TEXT,__text,regular,pure_instructions
	.p2align	4, 0x90
__ZN9hashbrown3raw17RawTable$LT$T$GT$14reserve_rehash17he4590218edd059f1E:
Lfunc_begin2:
	.cfi_startproc
	.cfi_personality 155, _rust_eh_personality
	.cfi_lsda 16, Lexception2
	pushq	%rbp
	.cfi_def_cfa_offset 16
	.cfi_offset %rbp, -16
	movq	%rsp, %rbp
	.cfi_def_cfa_register %rbp
	pushq	%r15
	pushq	%r14
	pushq	%r13
	pushq	%r12
	pushq	%rbx
	andq	$-32, %rsp
	subq	$192, %rsp
	.cfi_offset %rbx, -56
	.cfi_offset %r12, -48
	.cfi_offset %r13, -40
	.cfi_offset %r14, -32
	.cfi_offset %r15, -24
	movq	%rdi, %r15
	movq	32(%rsi), %rbx
	incq	%rbx
	jne	LBB68_1
LBB68_11:
	movl	$1, %edi
	callq	__ZN9hashbrown3raw11Fallibility17capacity_overflow17h8f3aa951a6447f31E
LBB68_12:
	movq	%rax, 8(%r15)
	movq	%rdx, 16(%r15)
	movq	$1, (%r15)
	jmp	LBB68_55
LBB68_1:
	movq	%rdx, %r12
	movq	%rsi, %r14
	movq	(%rsi), %rdi
	callq	__ZN9hashbrown3raw23bucket_mask_to_capacity17h4bf1081b6c8626a8E
	movq	%rax, %rcx
	shrq	%rcx
	cmpq	%rcx, %rbx
	movq	%r14, 32(%rsp)
	jbe	LBB68_30
	incq	%rax
	cmpq	%rax, %rbx
	cmovaq	%rbx, %rax
	testq	%rax, %rax
	je	LBB68_13
	movq	%rax, %rdi
	callq	__ZN9hashbrown3raw19capacity_to_buckets17h7a609a552b1b4f5fE
	testq	%rax, %rax
	je	LBB68_11
	movq	%rdx, %r13
	movl	$28, %ecx
	xorl	%esi, %esi
	movq	%rdx, %rax
	mulq	%rcx
	setno	%cl
	jo	LBB68_11
	movb	%cl, %sil
	shlq	$2, %rsi
	leaq	16(%r13), %rdx
	leaq	(%rsi,%r13), %rcx
	addq	$15, %rcx
	negq	%rsi
	andq	%rcx, %rsi
	subq	%rdx, %rsi
	addq	%rdx, %rsi
	jb	LBB68_11
	addq	%rsi, %rax
	jb	LBB68_11
	cmpq	$-16, %rax
	ja	LBB68_11
	movq	%rdx, 48(%rsp)
	movq	%rsi, 56(%rsp)
	movl	$16, %esi
	movq	%rax, %r14
	movq	%rax, %rdi
	callq	___rust_alloc
	testq	%rax, %rax
	je	LBB68_9
	movq	%rax, %rbx
	movq	%r12, 24(%rsp)
	movq	%r15, 40(%rsp)
	decq	%r13
	movq	%r13, %rdi
	callq	__ZN9hashbrown3raw23bucket_mask_to_capacity17h4bf1081b6c8626a8E
	movq	%rax, 64(%rsp)
	movq	56(%rsp), %r14
	addq	%rbx, %r14
	movq	%rbx, %rdi
	movl	$255, %esi
	movq	48(%rsp), %rdx
	callq	_memset
	movq	%r14, %rdx
	jmp	LBB68_14
LBB68_30:
	movq	(%r14), %rax
	incq	%rax
	xorl	%ecx, %ecx
	vpxor	%xmm0, %xmm0, %xmm0
	vmovdqa	LCPI68_0(%rip), %xmm1
	xorl	%esi, %esi
	movq	%r14, %rbx
	testb	$1, %sil
	jne	LBB68_34
	jmp	LBB68_32
	.p2align	4, 0x90
LBB68_36:
	movq	8(%rbx), %rsi
	vpcmpgtb	(%rsi,%rcx), %xmm0, %xmm2
	vpor	%xmm1, %xmm2, %xmm2
	vmovdqa	%xmm2, (%rsi,%rcx)
	movb	$1, %sil
	movq	%rdx, %rcx
	testb	$1, %sil
	je	LBB68_32
LBB68_34:
	leaq	15(%rcx), %rdx
	incq	%rdx
	movq	%rcx, %rsi
	addq	$15, %rsi
	cmovbq	%rax, %rdx
	cmpq	%rax, %rsi
	cmovaeq	%rax, %rdx
	addq	$15, %rcx
	jb	LBB68_37
	cmpq	%rax, %rcx
	jb	LBB68_36
	jmp	LBB68_37
	.p2align	4, 0x90
LBB68_32:
	cmpq	%rax, %rcx
	jae	LBB68_37
	leaq	1(%rcx), %rdx
	jmp	LBB68_36
LBB68_37:
	movq	(%rbx), %rdx
	movq	8(%rbx), %rsi
	incq	%rdx
	cmpq	$15, %rdx
	ja	LBB68_39
	leaq	16(%rsi), %rdi
	callq	_memmove
	jmp	LBB68_40
LBB68_39:
	vmovdqu	(%rsi), %xmm0
	vmovdqu	%xmm0, (%rsi,%rdx)
LBB68_40:
	movq	%rbx, 88(%rsp)
	movq	(%rbx), %r14
	movq	$-1, %rdi
	incq	%r14
	je	LBB68_53
	movq	%r15, 40(%rsp)
	movq	(%r12), %rax
	movq	%rax, 24(%rsp)
	xorl	%r15d, %r15d
	jmp	LBB68_42
	.p2align	4, 0x90
LBB68_43:
	leaq	(,%r13,8), %rax
	addq	%r13, %rax
	leaq	(%rax,%rax,2), %r12
	addq	%r13, %r12
	addq	16(%rbx), %r12
	movq	24(%rsp), %rax
	movq	(%rax), %rdi
	movq	8(%rax), %rsi
	movq	%r12, %rdx
	callq	__ZN9hashbrown3map9make_hash17h2a319b3469fb36fbE
	movq	(%rbx), %rsi
	movq	8(%rbx), %r8
	movq	%rax, %rdx
	xorl	%edi, %edi
	.p2align	4, 0x90
LBB68_44:
	movq	%rdx, %rbx
	andq	%rsi, %rbx
	leaq	(%rdi,%rbx), %rdx
	addq	$16, %rdx
	addq	$16, %rdi
	vmovdqu	(%r8,%rbx), %xmm0
	vpmovmskb	%xmm0, %ecx
	testw	%cx, %cx
	je	LBB68_44
	tzcntw	%cx, %cx
	movzwl	%cx, %ecx
	addq	%rcx, %rbx
	andq	%rsi, %rbx
	cmpb	$0, (%r8,%rbx)
	jns	LBB68_46
LBB68_47:
	movq	%rsi, %rcx
	andq	%rax, %rcx
	movq	%r13, %rdi
	subq	%rcx, %rdi
	movq	%rbx, %rdx
	subq	%rcx, %rdx
	xorq	%rdi, %rdx
	andq	%rsi, %rdx
	cmpq	$15, %rdx
	jbe	LBB68_48
	movb	(%r8,%rbx), %cl
	shrq	$57, %rax
	leaq	-16(%rbx), %rdx
	andq	%rsi, %rdx
	movb	%al, (%r8,%rbx)
	movb	%al, 16(%rdx,%r8)
	cmpb	$-1, %cl
	je	LBB68_50
	movq	32(%rsp), %rdx
	movq	16(%rdx), %rax
	leaq	(%rbx,%rbx,8), %rcx
	leaq	(%rcx,%rcx,2), %rcx
	addq	%rbx, %rcx
	movq	%rdx, %rbx
	vmovups	(%rax,%rcx), %xmm0
	vmovups	12(%rax,%rcx), %xmm1
	vmovups	%xmm1, 108(%rsp)
	vmovaps	%xmm0, 96(%rsp)
	vmovups	(%r12), %xmm0
	vmovdqu	12(%r12), %xmm1
	vmovdqu	%xmm1, 12(%rax,%rcx)
	vmovups	%xmm0, (%rax,%rcx)
	vmovups	108(%rsp), %xmm0
	vmovups	%xmm0, 12(%r12)
	vmovdqa	96(%rsp), %xmm0
	vmovdqu	%xmm0, (%r12)
	jmp	LBB68_43
LBB68_46:
	vmovdqa	(%r8), %xmm0
	vpmovmskb	%xmm0, %ecx
	tzcntw	%cx, %cx
	movzwl	%cx, %ebx
	jmp	LBB68_47
	.p2align	4, 0x90
LBB68_48:
	shrq	$57, %rax
	leaq	-16(%r13), %rcx
	andq	%rcx, %rsi
	movb	%al, (%r8,%r13)
	movb	%al, 16(%rsi,%r8)
	movq	32(%rsp), %rbx
LBB68_51:
	cmpq	%r14, %r15
	je	LBB68_52
LBB68_42:
	movq	%r15, %r13
	incq	%r15
	movq	8(%rbx), %rax
	cmpb	$-128, (%rax,%r13)
	je	LBB68_43
	jmp	LBB68_51
LBB68_50:
	leaq	-16(%r13), %rax
	movq	32(%rsp), %rdx
	andq	(%rdx), %rax
	movq	8(%rdx), %rcx
	movb	$-1, (%rcx,%r13)
	movb	$-1, 16(%rax,%rcx)
	movq	16(%rdx), %rax
	leaq	(%rbx,%rbx,8), %rcx
	leaq	(%rcx,%rcx,2), %rcx
	addq	%rbx, %rcx
	movq	%rdx, %rbx
	vmovdqu	(%r12), %xmm0
	vmovdqu	12(%r12), %xmm1
	vmovdqu	%xmm1, 12(%rax,%rcx)
	vmovdqu	%xmm0, (%rax,%rcx)
	cmpq	%r14, %r15
	jne	LBB68_42
LBB68_52:
	movq	(%rbx), %rdi
	movq	40(%rsp), %r15
LBB68_53:
Ltmp11:
	callq	__ZN9hashbrown3raw23bucket_mask_to_capacity17h4bf1081b6c8626a8E
Ltmp12:
	subq	32(%rbx), %rax
	movq	%rax, 24(%rbx)
	movq	$0, (%r15)
LBB68_55:
	leaq	-40(%rbp), %rsp
	popq	%rbx
	popq	%r12
	popq	%r13
	popq	%r14
	popq	%r15
	popq	%rbp
	vzeroupper
	retq
LBB68_13:
	movq	%r12, 24(%rsp)
	movq	%r15, 40(%rsp)
	callq	__ZN9hashbrown3raw4sse25Group12static_empty17hda1daec376d651fbE
	movq	%rax, %rbx
	movl	$4, %edx
	xorl	%eax, %eax
	movq	%rax, 64(%rsp)
	xorl	%r13d, %r13d
LBB68_14:
	movq	32(%rsp), %rcx
	movq	32(%rcx), %rax
	movq	%rax, 72(%rsp)
	vmovq	%rbx, %xmm0
	vmovq	%r13, %xmm1
	vpunpcklqdq	%xmm0, %xmm1, %xmm0
	vmovdqa	%ymm0, 128(%rsp)
	movq	16(%rcx), %r14
	movq	(%rcx), %rax
	movq	8(%rcx), %r15
	leaq	1(%rax,%r15), %rcx
	vmovdqa	(%r15), %xmm0
	vpmovmskb	%xmm0, %r12d
	notl	%r12d
	addq	$16, %r15
	movq	24(%rsp), %rax
	movq	(%rax), %rax
	movq	%rax, 80(%rsp)
	movq	%rdx, 56(%rsp)
	movq	%rcx, 48(%rsp)
	testw	%r12w, %r12w
	jne	LBB68_19
	.p2align	4, 0x90
LBB68_16:
	cmpq	%rcx, %r15
	jae	LBB68_24
	vmovdqa	(%r15), %xmm0
	vpmovmskb	%xmm0, %r12d
	addq	$448, %r14
	addq	$16, %r15
	cmpw	$-1, %r12w
	je	LBB68_16
	notl	%r12d
LBB68_19:
	tzcntw	%r12w, %ax
	movzwl	%ax, %eax
	leaq	(%rax,%rax,8), %rcx
	leaq	(%rcx,%rcx,2), %rdx
	addq	%rax, %rdx
	addq	%r14, %rdx
	movq	80(%rsp), %rax
	movq	(%rax), %rdi
	movq	8(%rax), %rsi
	movq	%rdx, 24(%rsp)
	vzeroupper
	callq	__ZN9hashbrown3map9make_hash17h2a319b3469fb36fbE
	movq	%rax, %rsi
	xorl	%edx, %edx
	.p2align	4, 0x90
LBB68_20:
	movq	%rsi, %rcx
	andq	%r13, %rcx
	leaq	(%rdx,%rcx), %rsi
	addq	$16, %rsi
	addq	$16, %rdx
	vmovdqu	(%rbx,%rcx), %xmm0
	vpmovmskb	%xmm0, %edi
	testw	%di, %di
	je	LBB68_20
	blsrl	%r12d, %r12d
	tzcntw	%di, %dx
	movzwl	%dx, %edx
	addq	%rdx, %rcx
	andq	%r13, %rcx
	cmpb	$0, (%rbx,%rcx)
	jns	LBB68_22
LBB68_23:
	shrq	$57, %rax
	leaq	-16(%rcx), %rdx
	andq	%r13, %rdx
	movb	%al, (%rbx,%rcx)
	movb	%al, 16(%rdx,%rbx)
	leaq	(%rcx,%rcx,8), %rax
	leaq	(%rax,%rax,2), %rax
	addq	%rcx, %rax
	movq	24(%rsp), %rcx
	vmovdqu	(%rcx), %xmm0
	vmovdqu	12(%rcx), %xmm1
	movq	56(%rsp), %rdx
	vmovdqu	%xmm1, 12(%rdx,%rax)
	vmovdqu	%xmm0, (%rdx,%rax)
	movq	48(%rsp), %rcx
	testw	%r12w, %r12w
	jne	LBB68_19
	jmp	LBB68_16
LBB68_22:
	vmovdqa	(%rbx), %xmm0
	vpmovmskb	%xmm0, %ecx
	tzcntw	%cx, %cx
	movzwl	%cx, %ecx
	jmp	LBB68_23
LBB68_24:
	vpinsrq	$0, %rdx, %xmm0, %xmm0
	movq	64(%rsp), %rax
	movq	72(%rsp), %rdx
	subq	%rdx, %rax
	vpinsrq	$1, %rax, %xmm0, %xmm0
	vmovdqa	128(%rsp), %ymm1
	vinserti128	$1, %xmm0, %ymm1, %ymm1
	movq	32(%rsp), %rax
	vmovdqu	(%rax), %ymm0
	movq	(%rax), %rcx
	vmovdqu	%ymm1, (%rax)
	movq	%rdx, 32(%rax)
	movq	40(%rsp), %rax
	movq	$0, (%rax)
	testq	%rcx, %rcx
	je	LBB68_55
	leaq	1(%rcx), %rax
	movl	$28, %edx
	xorl	%esi, %esi
	mulq	%rdx
	setno	%dl
	jo	LBB68_26
	movb	%dl, %sil
	shlq	$2, %rsi
	leaq	(%rcx,%rsi), %rdx
	addq	$16, %rdx
	addq	$17, %rcx
	negq	%rsi
	andq	%rdx, %rsi
	subq	%rcx, %rsi
	addq	%rcx, %rsi
	jae	LBB68_28
LBB68_26:
	xorl	%edx, %edx
	jmp	LBB68_29
LBB68_28:
	leaq	(%rsi,%rax), %rcx
	xorl	%edi, %edi
	cmpq	$-15, %rcx
	setb	%dil
	shlq	$4, %rdi
	xorl	%edx, %edx
	addq	%rax, %rsi
	cmovaeq	%rdi, %rdx
LBB68_29:
	vpextrq	$1, %xmm0, %rdi
	leaq	-40(%rbp), %rsp
	popq	%rbx
	popq	%r12
	popq	%r13
	popq	%r14
	popq	%r15
	popq	%rbp
	vzeroupper
	jmp	___rust_dealloc
LBB68_9:
	movl	$16, %edx
	movl	$1, %edi
	movq	%r14, %rsi
	callq	__ZN9hashbrown3raw11Fallibility9alloc_err17hb2e24aa790922b9fE
	jmp	LBB68_12
LBB68_57:
Ltmp13:
	movq	%rax, %rbx
	leaq	88(%rsp), %rdi
	callq	__ZN4core3ptr13drop_in_place17hec6c86c968e2fa8fE
	movq	%rbx, %rdi
	callq	__Unwind_Resume
	ud2
Lfunc_end2:
	.cfi_endproc
	.section	__TEXT,__gcc_except_tab
	.p2align	2
GCC_except_table68:
Lexception2:
	.byte	255
	.byte	255
	.byte	1
	.uleb128 Lcst_end2-Lcst_begin2
Lcst_begin2:
	.uleb128 Lfunc_begin2-Lfunc_begin2
	.uleb128 Ltmp11-Lfunc_begin2
	.byte	0
	.byte	0
	.uleb128 Ltmp11-Lfunc_begin2
	.uleb128 Ltmp12-Ltmp11
	.uleb128 Ltmp13-Lfunc_begin2
	.byte	0
	.uleb128 Ltmp12-Lfunc_begin2
	.uleb128 Lfunc_end2-Ltmp12
	.byte	0
	.byte	0
Lcst_end2:
	.p2align	2

	.section	__TEXT,__text,regular,pure_instructions
	.p2align	4, 0x90
__ZN3cfg8analysis11rhs_closure19RhsClosure$LT$R$GT$3new17h50b82fef7391451dE:
Lfunc_begin3:
	.cfi_startproc
	.cfi_personality 155, _rust_eh_personality
	.cfi_lsda 16, Lexception3
	pushq	%rbp
	.cfi_def_cfa_offset 16
	.cfi_offset %rbp, -16
	movq	%rsp, %rbp
	.cfi_def_cfa_register %rbp
	pushq	%r15
	pushq	%r14
	pushq	%r13
	pushq	%r12
	pushq	%rbx
	subq	$296, %rsp
	.cfi_offset %rbx, -56
	.cfi_offset %r12, -48
	.cfi_offset %r13, -40
	.cfi_offset %r14, -32
	.cfi_offset %r15, -24
	movq	40(%rsi), %rbx
	movq	16(%rsi), %r13
	leaq	(%rbx,%r13), %rax
	addq	%rax, %rax
	movl	$40, %ecx
	xorl	%r12d, %r12d
	mulq	%rcx
	movq	%rax, %r14
	setno	%al
	jo	LBB69_155
	movq	%rbx, -48(%rbp)
	movq	%rdi, -232(%rbp)
	movq	(%rsi), %r10
	movb	%al, %r12b
	shlq	$3, %r12
	movq	24(%rsi), %rbx
	testq	%r14, %r14
	je	LBB69_138
	movq	%r14, %rdi
	movq	%r12, %rsi
	movq	%r10, %r15
	callq	___rust_alloc
	movq	%r15, %r10
	movq	%rax, %r8
	testq	%r8, %r8
	je	LBB69_139
LBB69_3:
	imulq	$56, %r13, %r11
	movabsq	$-3689348814741910323, %rcx
	movq	%r14, %rax
	mulq	%rcx
	movq	%rdx, %r9
	addq	%r10, %r11
	shrq	$5, %r9
	movq	%r8, -200(%rbp)
	movq	%r9, -192(%rbp)
	movq	$0, -184(%rbp)
	leaq	-108(%rbp), %r13
	movq	-48(%rbp), %rax
	leaq	(%rax,%rax,4), %rax
	leaq	(%rbx,%rax,8), %r12
	xorl	%r14d, %r14d
	xorl	%r15d, %r15d
	movq	%r11, -136(%rbp)
	testq	%rbx, %rbx
	movq	%r14, -48(%rbp)
	je	LBB69_9
	.p2align	4, 0x90
LBB69_5:
	cmpq	%rbx, %r12
	je	LBB69_9
	incq	%r15
	je	LBB69_142
	cmpl	$2, 24(%rbx)
	leaq	40(%rbx), %rbx
	je	LBB69_5
	movl	%r15d, %eax
	decl	%eax
	movq	%rbx, %rdx
	addq	$-40, %rdx
	leaq	l___unnamed_10(%rip), %rcx
	xorl	%r14d, %r14d
	jmp	LBB69_12
LBB69_9:
	testq	%r10, %r10
	je	LBB69_36
	cmpq	%r10, %r11
	je	LBB69_36
	xorl	%r14d, %r14d
	cmpl	$1, 44(%r10)
	movl	40(%r10), %eax
	sete	%r14b
	incq	%r14
	leaq	48(%r10), %rcx
	movq	%r10, %rdx
	addq	$56, %r10
	movl	$0, %ebx
LBB69_12:
	movq	%rcx, -64(%rbp)
	movq	%rcx, -168(%rbp)
	movq	%r14, -160(%rbp)
	movq	%rdx, -152(%rbp)
	movl	%eax, -144(%rbp)
	movq	%r9, %rax
	movq	-48(%rbp), %rcx
	subq	%rcx, %rax
	cmpq	%r14, %rax
	jae	LBB69_19
	movq	%rcx, %rax
	addq	%r14, %rax
	jb	LBB69_148
	leaq	(%r9,%r9), %rdx
	cmpq	%rax, %rdx
	cmovaq	%rdx, %rax
	xorl	%esi, %esi
	movl	$40, %ecx
	mulq	%rcx
	movq	%rax, %rcx
	seto	%dl
	setno	%al
	testq	%r9, %r9
	cmoveq	%r9, %r8
	testb	%dl, %dl
	jne	LBB69_148
	testq	%r8, %r8
	je	LBB69_21
	shlq	$3, %r9
	leaq	(%r9,%r9,4), %rsi
	cmpq	%rcx, %rsi
	je	LBB69_27
	testq	%rsi, %rsi
	je	LBB69_23
	movl	$8, %edx
	movq	%r8, %rdi
	movq	%rcx, -56(%rbp)
	movq	-56(%rbp), %rcx
	movq	%r10, -72(%rbp)
	vzeroupper
	callq	___rust_realloc
	jmp	LBB69_26
LBB69_19:
	testq	%r14, %r14
	jne	LBB69_29
	movq	-48(%rbp), %r14
	movq	%r14, -184(%rbp)
	testq	%rbx, %rbx
	movq	%r14, -48(%rbp)
	jne	LBB69_5
	jmp	LBB69_9
LBB69_21:
	movb	%al, %sil
	shlq	$3, %rsi
	testq	%rcx, %rcx
	jne	LBB69_25
	movq	%rsi, %r8
	testq	%r8, %r8
	jne	LBB69_28
	jmp	LBB69_149
LBB69_23:
	testq	%rcx, %rcx
	je	LBB69_35
	movl	$8, %esi
LBB69_25:
	movq	%rcx, %rdi
	movq	%r10, -72(%rbp)
	movq	%rcx, -56(%rbp)
	vzeroupper
	callq	___rust_alloc
LBB69_26:
	movq	-56(%rbp), %rcx
	movq	-136(%rbp), %r11
	movq	-72(%rbp), %r10
	movq	%rax, %r8
LBB69_27:
	testq	%r8, %r8
	je	LBB69_149
LBB69_28:
	movq	%r8, -200(%rbp)
	movq	%rcx, %rax
	movabsq	$-3689348814741910323, %rcx
	mulq	%rcx
	movq	%rdx, %r9
	shrq	$5, %r9
	movq	%r9, -192(%rbp)
LBB69_29:
	movq	-48(%rbp), %rax
	leaq	(%rax,%rax,4), %rax
	leaq	(%r8,%rax,8), %rax
	leaq	-4(,%r14,4), %rdi
	movl	%edi, %esi
	shrl	$2, %esi
	incl	%esi
	andq	$3, %rsi
	je	LBB69_33
	negq	%rsi
	movq	-64(%rbp), %rdx
	.p2align	4, 0x90
LBB69_31:
	movl	(%rdx), %ecx
	addq	$4, %rdx
	vmovups	-168(%rbp), %ymm0
	vmovups	%ymm0, (%r13)
	movl	%ecx, (%rax)
	vmovups	-112(%rbp), %ymm0
	vmovups	%ymm0, 4(%rax)
	movl	-80(%rbp), %ecx
	movl	%ecx, 36(%rax)
	addq	$40, %rax
	incq	%rsi
	jne	LBB69_31
	movq	-64(%rbp), %rcx
	leaq	(%rcx,%r14,4), %rsi
	cmpq	$12, %rdi
	jb	LBB69_4
	.p2align	4, 0x90
LBB69_34:
	movl	(%rdx), %ecx
	vmovups	-168(%rbp), %ymm0
	vmovups	%ymm0, (%r13)
	movl	%ecx, (%rax)
	movl	-80(%rbp), %ecx
	movl	%ecx, 36(%rax)
	vmovups	-112(%rbp), %ymm0
	vmovups	%ymm0, 4(%rax)
	movl	4(%rdx), %ecx
	vmovups	-168(%rbp), %ymm0
	vmovups	%ymm0, (%r13)
	movl	%ecx, 40(%rax)
	movl	-80(%rbp), %ecx
	movl	%ecx, 76(%rax)
	vmovups	-112(%rbp), %ymm0
	vmovups	%ymm0, 44(%rax)
	movl	8(%rdx), %ecx
	vmovups	-168(%rbp), %ymm0
	vmovups	%ymm0, (%r13)
	movl	%ecx, 80(%rax)
	movl	-80(%rbp), %ecx
	movl	%ecx, 116(%rax)
	vmovups	-112(%rbp), %ymm0
	vmovups	%ymm0, 84(%rax)
	movl	12(%rdx), %ecx
	vmovups	-168(%rbp), %ymm0
	vmovups	%ymm0, (%r13)
	movl	%ecx, 120(%rax)
	vmovups	-112(%rbp), %ymm0
	vmovups	%ymm0, 124(%rax)
	movl	-80(%rbp), %ecx
	movl	%ecx, 156(%rax)
	addq	$16, %rdx
	addq	$160, %rax
	cmpq	%rsi, %rdx
	jne	LBB69_34
LBB69_4:
	subq	-64(%rbp), %rsi
	addq	$-4, %rsi
	shrq	$2, %rsi
	movq	-48(%rbp), %r14
	addq	%rsi, %r14
	addq	$1, %r14
	movq	%r14, -184(%rbp)
	testq	%rbx, %rbx
	movq	%r14, -48(%rbp)
	jne	LBB69_5
	jmp	LBB69_9
LBB69_33:
	movq	-64(%rbp), %rcx
	movq	%rcx, %rdx
	leaq	(%rcx,%r14,4), %rsi
	cmpq	$12, %rdi
	jb	LBB69_4
	jmp	LBB69_34
LBB69_35:
	movl	$8, %r8d
	jmp	LBB69_28
LBB69_36:
	movq	-200(%rbp), %r15
	cmpq	$21, %r14
	jae	LBB69_48
	cmpq	$2, %r14
	jb	LBB69_137
	leaq	-1(%r14), %rdi
	leaq	(%r14,%r14,4), %rax
	leaq	(%r15,%rax,8), %r11
	xorl	%edx, %edx
	jmp	LBB69_41
	.p2align	4, 0x90
LBB69_39:
	movl	%r8d, (%rsi)
	vmovups	-112(%rbp), %ymm0
	vmovups	%ymm0, 4(%rsi)
	movl	-80(%rbp), %eax
	movl	%eax, 36(%rsi)
LBB69_40:
	addq	$-40, %r11
	incq	%rdx
	testq	%rdi, %rdi
	je	LBB69_137
LBB69_41:
	movq	%rdi, %rcx
	decq	%rdi
	movq	%r14, %rbx
	subq	%rdi, %rbx
	jb	LBB69_150
	cmpq	$2, %rbx
	jb	LBB69_40
	leaq	(%rdi,%rdi,4), %r10
	leaq	(%r15,%r10,8), %r9
	leaq	(%rcx,%rcx,4), %rax
	movl	(%r9), %r8d
	cmpl	%r8d, (%r15,%rax,8)
	jae	LBB69_40
	leaq	(%r15,%rax,8), %rsi
	movl	36(%r15,%r10,8), %eax
	movl	%eax, -80(%rbp)
	vmovups	4(%r15,%r10,8), %ymm0
	vmovups	%ymm0, -112(%rbp)
	movq	32(%rsi), %rax
	movq	%rax, 32(%r9)
	vmovups	(%rsi), %ymm0
	vmovups	%ymm0, (%r9)
	cmpq	$3, %rbx
	jb	LBB69_39
	movq	%rdx, %rcx
	movq	%r11, %rax
	cmpl	%r8d, 80(%r9)
	jae	LBB69_39
	.p2align	4, 0x90
LBB69_46:
	movq	%rax, %rsi
	movq	32(%rax), %rax
	movq	%rax, -8(%rsi)
	vmovups	(%rsi), %ymm0
	vmovups	%ymm0, -40(%rsi)
	decq	%rcx
	je	LBB69_39
	leaq	40(%rsi), %rax
	cmpl	%r8d, 40(%rsi)
	jb	LBB69_46
	jmp	LBB69_39
LBB69_48:
	movq	%r14, %rax
	shrq	%rax
	movl	$40, %ecx
	xorl	%ebx, %ebx
	mulq	%rcx
	movq	%rax, %rdi
	setno	%al
	jo	LBB69_157
	movb	%al, %bl
	shlq	$3, %rbx
	testq	%rdi, %rdi
	movq	%rdi, -176(%rbp)
	je	LBB69_140
	movq	%rbx, %rsi
	vzeroupper
	callq	___rust_alloc
	movq	%rax, %r13
	testq	%r13, %r13
	je	LBB69_141
LBB69_51:
	movq	-176(%rbp), %rax
	movabsq	$-3689348814741910323, %rcx
	mulq	%rcx
	shrq	$5, %rdx
	movq	%r13, -336(%rbp)
	movq	%rdx, -224(%rbp)
	movq	%rdx, -328(%rbp)
	movq	$8, -168(%rbp)
	vxorps	%xmm0, %xmm0, %xmm0
	vmovups	%xmm0, -160(%rbp)
	movq	$0, -320(%rbp)
	leaq	-120(%r15), %rax
	movq	%rax, -248(%rbp)
	leaq	-80(%r15), %rax
	movq	%rax, -208(%rbp)
	leaq	40(%r15), %rax
	movq	%rax, -240(%rbp)
	leaq	-40(%r15), %rax
	movq	%rax, -264(%rbp)
	movq	%r14, %rsi
	movq	%r15, -120(%rbp)
	movq	%r13, -128(%rbp)
	movq	%rsi, %r9
	decq	%r9
	jne	LBB69_54
	jmp	LBB69_63
	.p2align	4, 0x90
LBB69_52:
	movq	-256(%rbp), %rsi
	testq	%rsi, %rsi
	je	LBB69_130
	movq	%rsi, %r9
	decq	%r9
	je	LBB69_63
LBB69_54:
	leaq	-2(%rsi), %rdx
	leaq	(%r9,%r9,4), %rcx
	leaq	(%rdx,%rdx,4), %rax
	movl	(%r15,%rax,8), %eax
	cmpl	%eax, (%r15,%rcx,8)
	jae	LBB69_64
	leaq	(%rsi,%rsi,4), %r11
	movq	-208(%rbp), %rcx
	leaq	(%rcx,%r11,8), %r8
	movl	$2, %ebx
	.p2align	4, 0x90
LBB69_56:
	movq	%rdx, %rdi
	movq	%r8, %rcx
	movq	%rbx, %r10
	testq	%rdx, %rdx
	je	LBB69_58
	leaq	-1(%rdi), %rdx
	leaq	(%rdx,%rdx,4), %rbx
	movl	(%r15,%rbx,8), %r14d
	leaq	-40(%rcx), %r8
	leaq	1(%r10), %rbx
	cmpl	%r14d, %eax
	movl	%r14d, %eax
	jb	LBB69_56
LBB69_58:
	movq	%rsi, %rdx
	subq	%rdi, %rdx
	jb	LBB69_151
	movq	-48(%rbp), %r14
	cmpq	%r14, %rsi
	ja	LBB69_152
	movq	%rdx, %r8
	shrq	%r8
	je	LBB69_73
	cmpq	$1, %r8
	jne	LBB69_69
	xorl	%r11d, %r11d
	testb	$1, %r8b
	jne	LBB69_72
	jmp	LBB69_73
	.p2align	4, 0x90
LBB69_63:
	movl	$1, %edx
	xorl	%ebx, %ebx
	jmp	LBB69_89
	.p2align	4, 0x90
LBB69_64:
	leaq	(%rsi,%rsi,4), %rcx
	movq	-248(%rbp), %rdx
	leaq	(%rdx,%rcx,8), %rcx
	leaq	-2(%rsi), %rdi
	xorl	%edx, %edx
	.p2align	4, 0x90
LBB69_65:
	cmpq	%rdx, %rdi
	je	LBB69_68
	movl	(%rcx), %ebx
	incq	%rdx
	addq	$-40, %rcx
	cmpl	%ebx, %eax
	movl	%ebx, %eax
	jae	LBB69_65
	movq	%r9, %rdi
	subq	%rdx, %rdi
	incq	%rdx
	cmpq	$9, %rdx
	ja	LBB69_88
LBB69_74:
	testq	%rdi, %rdi
	je	LBB69_88
	cmpq	%r14, %rsi
	ja	LBB69_153
	leaq	(%rdi,%rdi,4), %rax
	movq	-240(%rbp), %rcx
	leaq	(%rcx,%rax,8), %r11
	.p2align	4, 0x90
LBB69_77:
	leaq	-1(%rdi), %rbx
	movq	%rsi, %rdx
	subq	%rbx, %rdx
	jb	LBB69_154
	cmpq	$2, %rdx
	jb	LBB69_85
	leaq	(%rbx,%rbx,4), %rax
	leaq	(%r15,%rax,8), %r10
	leaq	(%rdi,%rdi,4), %rcx
	movl	(%r10), %r8d
	cmpl	%r8d, (%r15,%rcx,8)
	jae	LBB69_85
	movq	%rbx, %r12
	leaq	(%r15,%rcx,8), %rbx
	movl	36(%r15,%rax,8), %ecx
	movl	%ecx, -80(%rbp)
	vmovups	4(%r15,%rax,8), %ymm0
	vmovups	%ymm0, -112(%rbp)
	movq	32(%rbx), %rax
	movq	%rax, 32(%r10)
	vmovups	(%rbx), %ymm0
	vmovups	%ymm0, (%r10)
	cmpq	$3, %rdx
	jb	LBB69_84
	movq	%r9, %rax
	movq	%r11, %rcx
	cmpl	%r8d, 80(%r10)
	jae	LBB69_84
	.p2align	4, 0x90
LBB69_82:
	movq	%rcx, %rbx
	movq	32(%rcx), %rcx
	movq	%rcx, -8(%rbx)
	vmovups	(%rbx), %ymm0
	vmovups	%ymm0, -40(%rbx)
	decq	%rax
	cmpq	%rax, %rdi
	je	LBB69_84
	leaq	40(%rbx), %rcx
	cmpl	%r8d, 40(%rbx)
	jb	LBB69_82
	.p2align	4, 0x90
LBB69_84:
	movl	%r8d, (%rbx)
	vmovups	-112(%rbp), %ymm0
	vmovups	%ymm0, 4(%rbx)
	movl	-80(%rbp), %eax
	movl	%eax, 36(%rbx)
	movq	%r12, %rbx
LBB69_85:
	testq	%rbx, %rbx
	je	LBB69_89
	addq	$-40, %r11
	movq	%rbx, %rdi
	cmpq	$10, %rdx
	jb	LBB69_77
	jmp	LBB69_89
LBB69_68:
	xorl	%ebx, %ebx
	movq	%rsi, %rdx
	jmp	LBB69_89
LBB69_69:
	movq	-208(%rbp), %rax
	leaq	(%rax,%r11,8), %rbx
	shrq	%r10
	movl	%r10d, %eax
	andl	$1, %eax
	subq	%rax, %r10
	xorl	%r11d, %r11d
	.p2align	4, 0x90
LBB69_70:
	movq	32(%rcx), %rax
	movq	%rax, -80(%rbp)
	vmovups	(%rcx), %ymm0
	vmovups	%ymm0, -112(%rbp)
	movq	72(%rbx), %rax
	vmovups	40(%rbx), %ymm0
	vmovups	%ymm0, (%rcx)
	movq	%rax, 32(%rcx)
	movq	-80(%rbp), %rax
	movq	%rax, 72(%rbx)
	vmovups	-112(%rbp), %ymm0
	vmovups	%ymm0, 40(%rbx)
	movq	72(%rcx), %rax
	movq	%rax, -80(%rbp)
	vmovups	40(%rcx), %ymm0
	vmovups	%ymm0, -112(%rbp)
	movq	32(%rbx), %rax
	vmovups	(%rbx), %ymm0
	vmovups	%ymm0, 40(%rcx)
	movq	%rax, 72(%rcx)
	movq	-80(%rbp), %rax
	movq	%rax, 32(%rbx)
	vmovups	-112(%rbp), %ymm0
	vmovups	%ymm0, (%rbx)
	addq	$2, %r11
	addq	$-80, %rbx
	addq	$80, %rcx
	cmpq	%r11, %r10
	jne	LBB69_70
	testb	$1, %r8b
	je	LBB69_73
LBB69_72:
	leaq	(%rdi,%rdi,4), %rax
	leaq	(%r15,%rax,8), %rax
	leaq	(%r11,%r11,4), %r8
	notq	%r11
	addq	%rdx, %r11
	leaq	(%r11,%r11,4), %rbx
	movq	32(%rax,%r8,8), %rcx
	movq	%rcx, -80(%rbp)
	vmovups	(%rax,%r8,8), %ymm0
	vmovups	%ymm0, -112(%rbp)
	movq	32(%rax,%rbx,8), %rcx
	vmovups	(%rax,%rbx,8), %ymm0
	vmovups	%ymm0, (%rax,%r8,8)
	movq	%rcx, 32(%rax,%r8,8)
	movq	-80(%rbp), %rcx
	movq	%rcx, 32(%rax,%rbx,8)
	vmovups	-112(%rbp), %ymm0
	vmovups	%ymm0, (%rax,%rbx,8)
LBB69_73:
	cmpq	$9, %rdx
	jbe	LBB69_74
LBB69_88:
	movq	%rdi, %rbx
LBB69_89:
Ltmp27:
	leaq	-168(%rbp), %rdi
	movq	%rbx, -256(%rbp)
	movq	%rbx, %rsi
	vzeroupper
	callq	__ZN5alloc3vec12Vec$LT$T$GT$4push17h4ccca563008a4afcE
Ltmp28:
	movq	-152(%rbp), %rax
	cmpq	$2, %rax
	jb	LBB69_52
	movq	-168(%rbp), %r12
	movq	%r12, -272(%rbp)
	jmp	LBB69_95
LBB69_92:
	movq	-128(%rbp), %r13
LBB69_93:
	movq	%r13, %rsi
LBB69_94:
	subq	%rsi, %rbx
	movq	%rbx, %rax
	movabsq	$-3689348814741910323, %rcx
	mulq	%rcx
	shrq	$2, %rdx
	andq	$-8, %rdx
	leaq	(%rdx,%rdx,4), %rdx
	movq	%r14, %rdi
	vzeroupper
	callq	_memcpy
	movq	-296(%rbp), %rcx
	addq	-64(%rbp), %rcx
	movq	-304(%rbp), %rax
	movq	-288(%rbp), %rdx
	movq	%rax, (%rdx)
	movq	-280(%rbp), %rax
	movq	%rcx, (%rax)
	movq	-272(%rbp), %r12
	movq	-312(%rbp), %rax
	leaq	(%r12,%rax), %rdi
	leaq	(%r12,%rax), %rsi
	addq	$16, %rsi
	movq	-136(%rbp), %rdx
	notq	%rdx
	addq	-72(%rbp), %rdx
	shlq	$4, %rdx
	callq	_memmove
	movq	-56(%rbp), %rax
	movq	%rax, -152(%rbp)
	cmpq	$1, %rax
	movq	-48(%rbp), %r14
	jbe	LBB69_52
LBB69_95:
	movq	%rax, %rsi
	leaq	-1(%rax), %r8
	movq	%r8, %rbx
	shlq	$4, %rbx
	cmpq	$0, (%r12,%rbx)
	je	LBB69_101
	movq	%rsi, %rdx
	shlq	$4, %rdx
	movq	-24(%rdx,%r12), %rax
	movq	8(%r12,%rbx), %r9
	cmpq	%r9, %rax
	jbe	LBB69_101
	cmpq	$2, %rsi
	jbe	LBB69_52
	leaq	-3(%rsi), %rdi
	movq	%rdi, %rcx
	shlq	$4, %rcx
	movq	8(%r12,%rcx), %rcx
	leaq	(%r9,%rax), %rbx
	cmpq	%rbx, %rcx
	jbe	LBB69_103
	cmpq	$3, %rsi
	jbe	LBB69_52
	addq	%rcx, %rax
	cmpq	%rax, -56(%rdx,%r12)
	jbe	LBB69_103
	jmp	LBB69_52
	.p2align	4, 0x90
LBB69_101:
	cmpq	$3, %rsi
	jb	LBB69_104
	leaq	-3(%rsi), %rdi
	movq	%rdi, %rax
	shlq	$4, %rax
	movq	8(%r12,%rax), %rcx
	movq	8(%r12,%rbx), %r9
LBB69_103:
	cmpq	%r9, %rcx
	jb	LBB69_105
LBB69_104:
	leaq	-2(%rsi), %rdi
LBB69_105:
	leaq	1(%rdi), %r9
	cmpq	%r9, %rsi
	jbe	LBB69_144
	cmpq	%rdi, %rsi
	jbe	LBB69_145
	movq	%r9, %rdx
	shlq	$4, %rdx
	movq	(%r12,%rdx), %rbx
	shlq	$4, %rdi
	movq	8(%r12,%rdi), %rax
	movq	(%r12,%rdi), %rcx
	addq	%rax, %rcx
	movq	%rcx, %r13
	subq	%rbx, %r13
	jb	LBB69_146
	cmpq	%r14, %rcx
	ja	LBB69_147
	movq	%rax, -296(%rbp)
	movq	%r9, -136(%rbp)
	movq	%rsi, -72(%rbp)
	movq	%r8, -56(%rbp)
	movq	%rdx, -312(%rbp)
	movq	8(%r12,%rdx), %rdx
	leaq	(%r12,%rdi), %rax
	movq	%rax, -288(%rbp)
	leaq	8(%r12,%rdi), %rax
	movq	%rax, -280(%rbp)
	movq	%rbx, -304(%rbp)
	leaq	(%rbx,%rbx,4), %rax
	leaq	(%r15,%rax,8), %r14
	leaq	(%rdx,%rdx,4), %rax
	leaq	(%r14,%rax,8), %r12
	leaq	(%rcx,%rcx,4), %rax
	movq	%rax, -216(%rbp)
	movq	%r13, %r15
	subq	%rdx, %r15
	cmpq	%rdx, %r15
	movq	%rdx, -64(%rbp)
	jae	LBB69_119
	leaq	(,%r15,8), %rax
	leaq	(%rax,%rax,4), %rbx
	movq	-128(%rbp), %r13
	movq	%r13, %rdi
	movq	%r12, %rsi
	movq	%rbx, %rdx
	callq	_memcpy
	addq	%r13, %rbx
	cmpq	$0, -64(%rbp)
	jle	LBB69_127
	testq	%r15, %r15
	jle	LBB69_127
	movq	-264(%rbp), %rax
	movq	-216(%rbp), %rcx
	leaq	(%rax,%rcx,8), %rax
	movq	-120(%rbp), %r15
	.p2align	4, 0x90
LBB69_113:
	movl	-40(%rbx), %ecx
	cmpl	-40(%r12), %ecx
	jb	LBB69_115
	addq	$-40, %rbx
	movq	%rbx, %rcx
	jmp	LBB69_116
	.p2align	4, 0x90
LBB69_115:
	addq	$-40, %r12
	movq	%r12, %rcx
LBB69_116:
	movq	32(%rcx), %rdx
	movq	%rdx, 32(%rax)
	vmovups	(%rcx), %ymm0
	vmovups	%ymm0, (%rax)
	cmpq	%r12, %r14
	jae	LBB69_118
	addq	$-40, %rax
	cmpq	%r13, %rbx
	ja	LBB69_113
LBB69_118:
	movq	%r12, %r14
	jmp	LBB69_93
	.p2align	4, 0x90
LBB69_119:
	leaq	(,%rdx,8), %rax
	leaq	(%rax,%rax,4), %rbx
	movq	-128(%rbp), %r15
	movq	%r15, %rdi
	movq	%r14, %rsi
	movq	%rbx, %rdx
	callq	_memcpy
	movq	-64(%rbp), %rax
	addq	%r15, %rbx
	testq	%rax, %rax
	jle	LBB69_128
	cmpq	%rax, %r13
	movq	-120(%rbp), %r15
	jle	LBB69_92
	movq	-216(%rbp), %rax
	leaq	(%r15,%rax,8), %r8
	movq	-128(%rbp), %r13
	movq	%r13, %rsi
	movq	%r13, %rcx
	.p2align	4, 0x90
LBB69_122:
	movl	(%r12), %edx
	cmpl	(%rcx), %edx
	jae	LBB69_124
	leaq	40(%r12), %rdx
	movq	%rcx, %rdi
	movq	%r12, %rcx
	jmp	LBB69_125
	.p2align	4, 0x90
LBB69_124:
	leaq	40(%rcx), %rsi
	movq	%rsi, %rdi
	movq	%r12, %rdx
LBB69_125:
	movq	32(%rcx), %rax
	movq	%rax, 32(%r14)
	vmovups	(%rcx), %ymm0
	vmovups	%ymm0, (%r14)
	addq	$40, %r14
	cmpq	%rbx, %rdi
	jae	LBB69_94
	movq	%rdi, %rcx
	movq	%rdx, %r12
	cmpq	%r8, %rdx
	jb	LBB69_122
	jmp	LBB69_94
	.p2align	4, 0x90
LBB69_127:
	movq	%r12, %r14
	jmp	LBB69_129
LBB69_128:
	movq	-128(%rbp), %r13
LBB69_129:
	movq	%r13, %rsi
	movq	-120(%rbp), %r15
	jmp	LBB69_94
LBB69_130:
	movq	-160(%rbp), %rsi
	testq	%rsi, %rsi
	je	LBB69_134
	movq	-168(%rbp), %rdi
	testq	%rdi, %rdi
	je	LBB69_134
	shlq	$4, %rsi
	je	LBB69_134
	movl	$8, %edx
	callq	___rust_dealloc
LBB69_134:
	cmpq	$40, -176(%rbp)
	jb	LBB69_137
	movq	-224(%rbp), %rax
	shlq	$3, %rax
	leaq	(%rax,%rax,4), %rsi
	testq	%rsi, %rsi
	je	LBB69_137
	movl	$8, %edx
	movq	%r13, %rdi
	callq	___rust_dealloc
LBB69_137:
	movq	-184(%rbp), %rax
	movq	-232(%rbp), %rcx
	movq	%rax, 16(%rcx)
	vmovups	-200(%rbp), %xmm0
	vmovups	%xmm0, (%rcx)
	movq	$4, 24(%rcx)
	vxorps	%xmm0, %xmm0, %xmm0
	vmovups	%xmm0, 32(%rcx)
	addq	$296, %rsp
	popq	%rbx
	popq	%r12
	popq	%r13
	popq	%r14
	popq	%r15
	popq	%rbp
	vzeroupper
	retq
LBB69_138:
	movq	%r12, %r8
	testq	%r8, %r8
	jne	LBB69_3
LBB69_139:
	movq	%r14, %rdi
	movq	%r12, %rsi
	callq	__ZN5alloc7raw_vec19RawVec$LT$T$C$A$GT$11allocate_in28_$u7b$$u7b$closure$u7d$$u7d$17h04816d799b381db8E
LBB69_140:
	movq	%rbx, %r13
	testq	%r13, %r13
	jne	LBB69_51
LBB69_141:
	movq	-176(%rbp), %rdi
	movq	%rbx, %rsi
	vzeroupper
	callq	__ZN5alloc7raw_vec19RawVec$LT$T$C$A$GT$11allocate_in28_$u7b$$u7b$closure$u7d$$u7d$17h04816d799b381db8E
LBB69_142:
Ltmp14:
	leaq	_str.1(%rip), %rdi
	leaq	l___unnamed_42(%rip), %rdx
	movl	$28, %esi
	vzeroupper
	callq	__ZN4core9panicking5panic17h736ee47a631475c0E
Ltmp15:
LBB69_143:
	ud2
LBB69_144:
Ltmp30:
	leaq	l___unnamed_43(%rip), %rdx
	movq	%r9, %rdi
	callq	__ZN4core9panicking18panic_bounds_check17habe69d236c55e3edE
Ltmp31:
	jmp	LBB69_143
LBB69_145:
Ltmp32:
	leaq	l___unnamed_44(%rip), %rdx
	callq	__ZN4core9panicking18panic_bounds_check17habe69d236c55e3edE
Ltmp33:
	jmp	LBB69_143
LBB69_146:
Ltmp36:
	leaq	l___unnamed_45(%rip), %rdx
	movq	%rbx, %rdi
	movq	%rcx, %rsi
	callq	__ZN4core5slice22slice_index_order_fail17h85b430a3a039f0a8E
Ltmp37:
	jmp	LBB69_143
LBB69_147:
Ltmp34:
	leaq	l___unnamed_45(%rip), %rdx
	movq	%rcx, %rdi
	movq	-48(%rbp), %rsi
	callq	__ZN4core5slice20slice_index_len_fail17h550a313151a85135E
Ltmp35:
	jmp	LBB69_143
LBB69_148:
Ltmp16:
	vzeroupper
	callq	__ZN5alloc7raw_vec17capacity_overflow17h023f34f5bc34c61fE
Ltmp17:
	jmp	LBB69_143
LBB69_149:
	movl	$8, %esi
	movq	%rcx, %rdi
	vzeroupper
	callq	__ZN5alloc5alloc18handle_alloc_error17hbc0ab0ed90816c07E
LBB69_150:
Ltmp41:
	leaq	l___unnamed_46(%rip), %rdx
	movq	%r14, %rsi
	vzeroupper
	callq	__ZN4core5slice22slice_index_order_fail17h85b430a3a039f0a8E
Ltmp42:
	jmp	LBB69_143
LBB69_151:
Ltmp25:
	leaq	l___unnamed_47(%rip), %rdx
	vzeroupper
	callq	__ZN4core5slice22slice_index_order_fail17h85b430a3a039f0a8E
Ltmp26:
	jmp	LBB69_143
LBB69_152:
Ltmp23:
	leaq	l___unnamed_47(%rip), %rdx
	movq	%rsi, %rdi
	movq	%r14, %rsi
	vzeroupper
	callq	__ZN4core5slice20slice_index_len_fail17h550a313151a85135E
Ltmp24:
	jmp	LBB69_143
LBB69_153:
	decq	%rdi
	movq	%rdi, %rbx
	cmpq	%rdi, %rsi
	jae	LBB69_156
LBB69_154:
Ltmp21:
	leaq	l___unnamed_48(%rip), %rdx
	movq	%rbx, %rdi
	vzeroupper
	callq	__ZN4core5slice22slice_index_order_fail17h85b430a3a039f0a8E
Ltmp22:
	jmp	LBB69_143
LBB69_155:
Ltmp44:
	callq	__ZN5alloc7raw_vec19RawVec$LT$T$C$A$GT$11allocate_in28_$u7b$$u7b$closure$u7d$$u7d$17h1663d982e1f6196bE
Ltmp45:
	jmp	LBB69_143
LBB69_156:
Ltmp19:
	leaq	l___unnamed_48(%rip), %rdx
	movq	%rsi, %rdi
	movq	-48(%rbp), %rsi
	vzeroupper
	callq	__ZN4core5slice20slice_index_len_fail17h550a313151a85135E
Ltmp20:
	jmp	LBB69_143
LBB69_157:
Ltmp39:
	vzeroupper
	callq	__ZN5alloc7raw_vec19RawVec$LT$T$C$A$GT$11allocate_in28_$u7b$$u7b$closure$u7d$$u7d$17h1663d982e1f6196bE
Ltmp40:
	jmp	LBB69_143
LBB69_158:
Ltmp46:
	movq	%rax, %rbx
	movq	%rbx, %rdi
	callq	__Unwind_Resume
	ud2
LBB69_159:
Ltmp43:
	jmp	LBB69_162
LBB69_160:
Ltmp38:
	jmp	LBB69_164
LBB69_161:
Ltmp18:
LBB69_162:
	movq	%rax, %rbx
	jmp	LBB69_165
LBB69_163:
Ltmp29:
LBB69_164:
	movq	%rax, %rbx
	leaq	-168(%rbp), %rdi
	callq	__ZN4core3ptr13drop_in_place17h2048d30618aec616E
	leaq	-336(%rbp), %rdi
	callq	__ZN4core3ptr13drop_in_place17h8284e9872d034c0fE
LBB69_165:
	leaq	-200(%rbp), %rdi
	callq	__ZN4core3ptr13drop_in_place17h8284e9872d034c0fE
	movq	%rbx, %rdi
	callq	__Unwind_Resume
	ud2
Lfunc_end3:
	.cfi_endproc
	.section	__TEXT,__gcc_except_tab
	.p2align	2
GCC_except_table69:
Lexception3:
	.byte	255
	.byte	255
	.byte	1
	.uleb128 Lcst_end3-Lcst_begin3
Lcst_begin3:
	.uleb128 Ltmp27-Lfunc_begin3
	.uleb128 Ltmp28-Ltmp27
	.uleb128 Ltmp29-Lfunc_begin3
	.byte	0
	.uleb128 Ltmp28-Lfunc_begin3
	.uleb128 Ltmp14-Ltmp28
	.byte	0
	.byte	0
	.uleb128 Ltmp14-Lfunc_begin3
	.uleb128 Ltmp15-Ltmp14
	.uleb128 Ltmp18-Lfunc_begin3
	.byte	0
	.uleb128 Ltmp30-Lfunc_begin3
	.uleb128 Ltmp35-Ltmp30
	.uleb128 Ltmp38-Lfunc_begin3
	.byte	0
	.uleb128 Ltmp16-Lfunc_begin3
	.uleb128 Ltmp17-Ltmp16
	.uleb128 Ltmp18-Lfunc_begin3
	.byte	0
	.uleb128 Ltmp41-Lfunc_begin3
	.uleb128 Ltmp42-Ltmp41
	.uleb128 Ltmp43-Lfunc_begin3
	.byte	0
	.uleb128 Ltmp25-Lfunc_begin3
	.uleb128 Ltmp22-Ltmp25
	.uleb128 Ltmp38-Lfunc_begin3
	.byte	0
	.uleb128 Ltmp44-Lfunc_begin3
	.uleb128 Ltmp45-Ltmp44
	.uleb128 Ltmp46-Lfunc_begin3
	.byte	0
	.uleb128 Ltmp19-Lfunc_begin3
	.uleb128 Ltmp20-Ltmp19
	.uleb128 Ltmp38-Lfunc_begin3
	.byte	0
	.uleb128 Ltmp39-Lfunc_begin3
	.uleb128 Ltmp40-Ltmp39
	.uleb128 Ltmp43-Lfunc_begin3
	.byte	0
	.uleb128 Ltmp40-Lfunc_begin3
	.uleb128 Lfunc_end3-Ltmp40
	.byte	0
	.byte	0
Lcst_end3:
	.p2align	2

	.section	__TEXT,__text,regular,pure_instructions
	.p2align	4, 0x90
__ZN3cfg8analysis11rhs_closure19RhsClosure$LT$R$GT$11rhs_closure17hb4b6caf81e0be29eE:
	.cfi_startproc
	pushq	%rbp
	.cfi_def_cfa_offset 16
	.cfi_offset %rbp, -16
	movq	%rsp, %rbp
	.cfi_def_cfa_register %rbp
	pushq	%r15
	pushq	%r14
	pushq	%r13
	pushq	%r12
	pushq	%rbx
	subq	$88, %rsp
	.cfi_offset %rbx, -56
	.cfi_offset %r12, -48
	.cfi_offset %r13, -40
	.cfi_offset %r14, -32
	.cfi_offset %r15, -24
	movq	%rsi, %r12
	movq	%rdi, -48(%rbp)
	movq	24(%rsi), %r14
	testq	%r14, %r14
	je	LBB70_8
	movq	-48(%rbp), %rax
	leaq	24(%rax), %r15
	decq	%r14
	xorl	%ebx, %ebx
	movq	-48(%rbp), %r13
	.p2align	4, 0x90
LBB70_2:
	movq	%rbx, %rax
	shrq	$5, %rax
	cmpq	%rax, 16(%r12)
	jbe	LBB70_45
	movq	(%r12), %rcx
	movl	(%rcx,%rax,4), %eax
	btl	%ebx, %eax
	jae	LBB70_7
	movq	40(%r13), %rax
	cmpq	32(%r13), %rax
	jne	LBB70_6
	movl	$1, %esi
	movq	%r15, %rdi
	callq	__ZN5alloc3vec12Vec$LT$T$GT$7reserve17h35d1e0dc15cd4847E
	movq	40(%r13), %rax
LBB70_6:
	movq	24(%r13), %rcx
	movl	%ebx, (%rcx,%rax,4)
	incq	40(%r13)
LBB70_7:
	cmpq	%rbx, %r14
	je	LBB70_8
	incq	%rbx
	cmpq	%rbx, 24(%r12)
	ja	LBB70_2
LBB70_45:
	leaq	l___unnamed_35(%rip), %rdi
	leaq	l___unnamed_49(%rip), %rdx
	movl	$43, %esi
	callq	__ZN4core9panicking5panic17h736ee47a631475c0E
LBB70_8:
	movq	-48(%rbp), %rax
	movq	40(%rax), %rcx
	testq	%rcx, %rcx
	je	LBB70_46
	movq	-48(%rbp), %rax
	movq	(%rax), %r9
	movq	16(%rax), %rsi
	addq	$24, %rax
	movq	%rax, -120(%rbp)
	leaq	(,%rsi,8), %rax
	leaq	(%rax,%rax,4), %r10
	movq	%r9, -104(%rbp)
	movq	%r12, -80(%rbp)
	movq	%rsi, -112(%rbp)
	movq	%r10, -96(%rbp)
	jmp	LBB70_11
	.p2align	4, 0x90
LBB70_10:
	movq	-72(%rbp), %rcx
	testq	%rcx, %rcx
	movq	-112(%rbp), %rsi
	movq	-104(%rbp), %r9
	movq	-96(%rbp), %r10
	je	LBB70_46
LBB70_11:
	movq	%rcx, %rax
	leaq	-1(%rcx), %r11
	movq	-48(%rbp), %rcx
	movq	%r11, 40(%rcx)
	movq	24(%rcx), %rcx
	movl	-4(%rcx,%rax,4), %r8d
	movq	%rsi, %rdi
	testq	%rsi, %rsi
	je	LBB70_19
	cmpq	$1, %rsi
	jne	LBB70_14
	xorl	%edi, %edi
	jmp	LBB70_18
	.p2align	4, 0x90
LBB70_14:
	movq	%rsi, %rax
	xorl	%edx, %edx
	jmp	LBB70_15
	.p2align	4, 0x90
LBB70_17:
	subq	%rcx, %rax
	movq	%rdi, %rdx
	cmpq	$1, %rax
	jbe	LBB70_18
LBB70_15:
	movq	%rax, %rcx
	shrq	%rcx
	leaq	(%rcx,%rdx), %rdi
	leaq	(%rdi,%rdi,4), %rbx
	cmpl	%r8d, (%r9,%rbx,8)
	jb	LBB70_17
	movq	%rdx, %rdi
	jmp	LBB70_17
	.p2align	4, 0x90
LBB70_18:
	leaq	(%rdi,%rdi,4), %rax
	cmpl	%r8d, (%r9,%rax,8)
	adcq	$0, %rdi
	cmpq	%rsi, %rdi
	ja	LBB70_47
LBB70_19:
	cmpq	%rsi, %rdi
	jne	LBB70_21
	xorl	%ebx, %ebx
	addq	%rdi, %rbx
	jae	LBB70_25
	jmp	LBB70_28
	.p2align	4, 0x90
LBB70_21:
	leaq	(,%rdi,8), %rax
	leaq	(%rax,%rax,4), %rax
	xorl	%ebx, %ebx
	.p2align	4, 0x90
LBB70_22:
	cmpl	%r8d, (%r9,%rax)
	jne	LBB70_24
	incq	%rbx
	addq	$40, %rax
	cmpq	%rax, %r10
	jne	LBB70_22
LBB70_24:
	addq	%rdi, %rbx
	jb	LBB70_28
LBB70_25:
	cmpq	%rdi, %rbx
	jb	LBB70_48
	cmpq	%rsi, %rbx
	ja	LBB70_27
	movq	%r11, -72(%rbp)
	cmpq	%rbx, %rdi
	je	LBB70_10
	leaq	(%rdi,%rdi,4), %rax
	leaq	(%r9,%rax,8), %rcx
	leaq	(%rbx,%rbx,4), %rax
	leaq	(%r9,%rax,8), %r8
	movq	__ZN7bit_vec5FALSE17h81f8c71b91ea5861E@GOTPCREL(%rip), %rax
	movq	__ZN7bit_vec4TRUE17h9e81f12c3ac5e60bE@GOTPCREL(%rip), %rbx
	movq	%rbx, %r10
	movq	%r8, -88(%rbp)
	jmp	LBB70_31
LBB70_41:
	movq	24(%rbx), %rcx
	movq	-128(%rbp), %rdx
	movl	%edx, (%rcx,%rax,4)
	movq	40(%rbx), %rax
	incq	%rax
	movq	%rax, -72(%rbp)
	movq	%rax, 40(%rbx)
LBB70_42:
	movq	-80(%rbp), %r12
	movq	__ZN7bit_vec5FALSE17h81f8c71b91ea5861E@GOTPCREL(%rip), %rax
	movq	__ZN7bit_vec4TRUE17h9e81f12c3ac5e60bE@GOTPCREL(%rip), %rbx
	movq	%rbx, %r10
	movq	-88(%rbp), %r8
LBB70_43:
	movq	-56(%rbp), %rcx
	addq	$40, %rcx
	cmpq	%r8, %rcx
	je	LBB70_10
LBB70_31:
	movq	%rcx, -56(%rbp)
	movl	32(%rcx), %ebx
	movq	24(%r12), %r15
	cmpq	%rbx, %r15
	jbe	LBB70_49
	movq	%rbx, %rdx
	shrq	$5, %rdx
	movq	16(%r12), %rsi
	cmpq	%rdx, %rsi
	jbe	LBB70_49
	movq	(%r12), %r11
	movl	(%r11,%rdx,4), %ecx
	btl	%ebx, %ecx
	movzbl	(%rax), %r9d
	movzbl	(%r10), %r14d
	movl	%r14d, %edi
	cmovael	%r9d, %edi
	testb	%dil, %dil
	jne	LBB70_43
	movq	-56(%rbp), %rax
	movq	8(%rax), %r10
	movq	16(%rax), %rdi
	movl	$1, %eax
	movq	%rbx, -128(%rbp)
	shlxl	%ebx, %eax, %eax
	movl	%eax, -60(%rbp)
	shlq	$2, %rdi
	xorl	%r12d, %r12d
	.p2align	4, 0x90
LBB70_35:
	cmpq	%r12, %rdi
	je	LBB70_39
	movl	(%r10,%r12), %r13d
	cmpq	%r13, %r15
	jbe	LBB70_50
	movq	%r13, %r8
	shrq	$5, %r8
	cmpq	%r8, %rsi
	jbe	LBB70_50
	movl	(%r11,%r8,4), %ebx
	btl	%r13d, %ebx
	movzbl	%r9b, %ebx
	movzbl	%r14b, %eax
	cmovael	%ebx, %eax
	addq	$4, %r12
	testb	%al, %al
	jne	LBB70_35
	jmp	LBB70_42
LBB70_39:
	orl	-60(%rbp), %ecx
	movl	%ecx, (%r11,%rdx,4)
	movq	-48(%rbp), %rbx
	movq	40(%rbx), %rax
	cmpq	32(%rbx), %rax
	jne	LBB70_41
	movl	$1, %esi
	movq	-120(%rbp), %rdi
	callq	__ZN5alloc3vec12Vec$LT$T$GT$7reserve17h35d1e0dc15cd4847E
	movq	40(%rbx), %rax
	jmp	LBB70_41
LBB70_46:
	addq	$88, %rsp
	popq	%rbx
	popq	%r12
	popq	%r13
	popq	%r14
	popq	%r15
	popq	%rbp
	retq
LBB70_50:
	leaq	l___unnamed_50(%rip), %rdi
	leaq	l___unnamed_51(%rip), %rdx
	movl	$19, %esi
	callq	__ZN4core6option13expect_failed17h68bd601d867bb8d1E
LBB70_49:
	leaq	l___unnamed_50(%rip), %rdi
	leaq	l___unnamed_52(%rip), %rdx
	movl	$19, %esi
	callq	__ZN4core6option13expect_failed17h68bd601d867bb8d1E
LBB70_28:
	leaq	_str.1(%rip), %rdi
	leaq	l___unnamed_53(%rip), %rdx
	movl	$28, %esi
	callq	__ZN4core9panicking5panic17h736ee47a631475c0E
LBB70_48:
	leaq	l___unnamed_54(%rip), %rdx
	movq	%rbx, %rsi
	callq	__ZN4core5slice22slice_index_order_fail17h85b430a3a039f0a8E
LBB70_27:
	leaq	l___unnamed_54(%rip), %rdx
	movq	%rbx, %rdi
	callq	__ZN4core5slice20slice_index_len_fail17h550a313151a85135E
LBB70_47:
	leaq	l___unnamed_55(%rip), %rdx
	callq	__ZN4core5slice22slice_index_order_fail17h85b430a3a039f0a8E
	.cfi_endproc

	.p2align	4, 0x90
__ZN93_$LT$cfg..binarized..BinarizedCfg$LT$H$GT$$u20$as$u20$cfg..rule..container..RuleContainer$GT$8add_rule17hffb82523c0be067cE:
Lfunc_begin4:
	.cfi_startproc
	.cfi_personality 155, _rust_eh_personality
	.cfi_lsda 16, Lexception4
	pushq	%rbp
	.cfi_def_cfa_offset 16
	.cfi_offset %rbp, -16
	movq	%rsp, %rbp
	.cfi_def_cfa_register %rbp
	pushq	%r15
	pushq	%r14
	pushq	%r13
	pushq	%r12
	pushq	%rbx
	subq	$168, %rsp
	.cfi_offset %rbx, -56
	.cfi_offset %r12, -48
	.cfi_offset %r13, -40
	.cfi_offset %r14, -32
	.cfi_offset %r15, -24
	movq	%r8, %r14
	movq	%rdi, %rbx
	testq	%rcx, %rcx
	movq	%r8, -64(%rbp)
	je	LBB71_1
	movq	%rdx, %r8
	cmpq	$2, %rcx
	movl	$2, %eax
	cmovaq	%rcx, %rax
	leaq	(%rdx,%rcx,4), %rcx
	movq	%rcx, -56(%rbp)
	addq	$-2, %rax
	movq	%rbx, -152(%rbp)
	leaq	48(%rbx), %rcx
	movq	%rcx, -80(%rbp)
	movl	(%rdx), %r10d
	addq	$4, %r8
	movl	$1, %ecx
	movq	%rcx, -72(%rbp)
	xorl	%edx, %edx
	movl	$0, %r9d
	testq	%rax, %rax
	jne	LBB71_24
	jmp	LBB71_26
	.p2align	4, 0x90
LBB71_43:
	cmpq	%rsi, %rax
	cmovbq	%rax, %rsi
	incq	%rsi
Ltmp50:
	movq	-152(%rbp), %rbx
	movq	%rbx, %rdi
	callq	__ZN5alloc3vec12Vec$LT$T$GT$7reserve17h423314fa13e9dfa1E
Ltmp51:
	movq	-168(%rbp), %r8
	movl	-48(%rbp), %esi
LBB71_44:
	movq	(%rbx), %rax
	imulq	$56, %r12, %rcx
	vmovups	-144(%rbp), %ymm0
	vmovups	-120(%rbp), %ymm1
	vmovups	%ymm1, 24(%rax,%rcx)
	vmovups	%ymm0, (%rax,%rcx)
	incq	%r12
	movq	%r12, 16(%rbx)
	movq	%r15, %rdx
	movl	%r13d, %r9d
	movl	-44(%rbp), %r10d
	movq	-160(%rbp), %rax
	testq	%rax, %rax
	je	LBB71_26
LBB71_24:
	cmpq	$0, -80(%rbp)
	je	LBB71_26
	decq	%rax
	movq	%rax, -160(%rbp)
	movq	-80(%rbp), %rax
	movq	%rax, %rdi
	movl	(%rax), %eax
	movl	%r10d, -44(%rbp)
	movl	%eax, %r10d
	incl	%eax
	movl	$-1, %ecx
	cmovel	%ecx, %eax
	movl	%eax, (%rdi)
	testq	%r8, %r8
	je	LBB71_31
LBB71_29:
	cmpq	-56(%rbp), %r8
	je	LBB71_31
	movq	-56(%rbp), %rax
	movl	-4(%rax), %ebx
	addq	$-4, %rax
	movq	%rax, -56(%rbp)
	movl	%r9d, %r13d
	movl	$1, %r9d
	jmp	LBB71_33
	.p2align	4, 0x90
LBB71_26:
	movq	%rax, -160(%rbp)
	movq	-72(%rbp), %rax
	orl	$2, %eax
	cmpl	$2, %eax
	je	LBB71_18
	xorl	%eax, %eax
	movq	%rax, -72(%rbp)
	movl	$0, -44(%rbp)
	xorl	%eax, %eax
	movq	%rax, -80(%rbp)
	testq	%r8, %r8
	jne	LBB71_29
LBB71_31:
	movl	%r9d, %eax
	andl	$-2, %eax
	cmpl	$2, %eax
	je	LBB71_18
	xorl	%r8d, %r8d
	movl	$2, %r13d
	xorl	%ebx, %ebx
LBB71_33:
	movq	%r8, -168(%rbp)
	movl	%r10d, -48(%rbp)
	movq	%rdx, %r15
	incq	%r15
	je	LBB71_34
	movl	%esi, %r12d
	shlq	$32, %rbx
	movl	%r9d, %r14d
	cmpl	$1, %r9d
	movl	$0, %eax
	cmovneq	%rax, %rbx
Ltmp47:
	leaq	-144(%rbp), %rdi
	movq	-64(%rbp), %rsi
	vzeroupper
	callq	__ZN72_$LT$cfg..earley..history..History$u20$as$u20$cfg..history..Binarize$GT$8binarize17h1a563203c80cc8c3E
Ltmp48:
	vmovaps	-144(%rbp), %xmm0
	movq	-128(%rbp), %rax
	movl	-120(%rbp), %ecx
	leaq	-116(%rbp), %rdx
	movq	%rdx, %rsi
	movq	(%rdx), %rdx
	movq	%rdx, -208(%rbp)
	movl	8(%rsi), %edx
	movl	%edx, -200(%rbp)
	cmpl	$2, %ecx
	movq	-168(%rbp), %r8
	movl	-48(%rbp), %esi
	je	LBB71_18
	movl	%esi, %edx
	orq	%rdx, %rbx
	vmovaps	%xmm0, -144(%rbp)
	movq	%rax, -128(%rbp)
	movl	%ecx, -120(%rbp)
	movl	-200(%rbp), %eax
	leaq	-116(%rbp), %rcx
	movl	%eax, 8(%rcx)
	movq	-208(%rbp), %rax
	movq	%rax, (%rcx)
	movl	%r12d, -104(%rbp)
	movl	%r14d, -100(%rbp)
	movq	%rbx, -96(%rbp)
	movq	-152(%rbp), %rbx
	movq	16(%rbx), %r12
	cmpq	8(%rbx), %r12
	jne	LBB71_44
	xorl	%esi, %esi
	cmpl	$1, -72(%rbp)
	sete	%sil
	testq	%r8, %r8
	je	LBB71_39
	movq	-56(%rbp), %rax
	subq	%r8, %rax
	shrq	$2, %rax
	cmpl	$3, %r13d
	je	LBB71_43
	xorl	%ecx, %ecx
	cmpl	$2, %r13d
	setne	%cl
	addq	%rcx, %rax
	jmp	LBB71_43
	.p2align	4, 0x90
LBB71_39:
	xorl	%eax, %eax
	cmpl	$3, %r13d
	je	LBB71_43
	cmpl	$2, %r13d
	setne	%al
	jmp	LBB71_43
LBB71_1:
	leaq	24(%rbx), %r12
	movq	40(%rbx), %rax
	movl	%esi, %r15d
	cmpq	%r15, %rax
	jbe	LBB71_3
	jmp	LBB71_7
	.p2align	4, 0x90
LBB71_6:
	movq	24(%rbx), %rcx
	leaq	(%rax,%rax,4), %rax
	movq	-112(%rbp), %rdx
	movq	%rdx, 32(%rcx,%rax,8)
	vmovups	-144(%rbp), %ymm0
	vmovups	%ymm0, (%rcx,%rax,8)
	movq	40(%rbx), %rax
	incq	%rax
	movq	%rax, 40(%rbx)
	cmpq	%r15, %rax
	ja	LBB71_7
LBB71_3:
	movl	$2, -120(%rbp)
	cmpq	32(%rbx), %rax
	jne	LBB71_6
Ltmp56:
	movl	$1, %esi
	movq	%r12, %rdi
	vzeroupper
	callq	__ZN5alloc3vec12Vec$LT$T$GT$7reserve17h3143453b9f86f87eE
Ltmp57:
	movq	40(%rbx), %rax
	jmp	LBB71_6
LBB71_7:
	movq	(%r12), %rax
	leaq	(%r15,%r15,4), %r13
	cmpl	$2, 24(%rax,%r13,8)
	jne	LBB71_52
Ltmp61:
	leaq	-144(%rbp), %rdi
	movq	%r14, %rsi
	xorl	%edx, %edx
	vzeroupper
	callq	__ZN72_$LT$cfg..earley..history..History$u20$as$u20$cfg..history..Binarize$GT$8binarize17h1a563203c80cc8c3E
Ltmp62:
	movq	-112(%rbp), %rax
	movq	%rax, -176(%rbp)
	vmovups	-144(%rbp), %ymm0
	vmovups	%ymm0, -208(%rbp)
	movq	40(%rbx), %rsi
	cmpq	%r15, %rsi
	jbe	LBB71_10
	movq	(%r12), %rax
	leaq	(%rax,%r13,8), %r14
	cmpl	$2, 24(%rax,%r13,8)
	je	LBB71_17
	movq	8(%rax,%r13,8), %rax
	testq	%rax, %rax
	je	LBB71_17
	movq	(%r14), %rdi
	testq	%rdi, %rdi
	je	LBB71_17
	shlq	$2, %rax
	leaq	(%rax,%rax,4), %rsi
	testq	%rsi, %rsi
	je	LBB71_17
	movl	$4, %edx
	vzeroupper
	callq	___rust_dealloc
LBB71_17:
	movq	-176(%rbp), %rax
	movq	%rax, 32(%r14)
	vmovups	-208(%rbp), %ymm0
	vmovups	%ymm0, (%r14)
LBB71_18:
	movq	-64(%rbp), %rcx
	movq	8(%rcx), %rax
	testq	%rax, %rax
	je	LBB71_21
	movq	(%rcx), %rdi
	testq	%rdi, %rdi
	je	LBB71_21
	shlq	$2, %rax
	leaq	(%rax,%rax,4), %rsi
	testq	%rsi, %rsi
	je	LBB71_21
	movl	$4, %edx
	addq	$168, %rsp
	popq	%rbx
	popq	%r12
	popq	%r13
	popq	%r14
	popq	%r15
	popq	%rbp
	vzeroupper
	jmp	___rust_dealloc
LBB71_21:
	addq	$168, %rsp
	popq	%rbx
	popq	%r12
	popq	%r13
	popq	%r14
	popq	%r15
	popq	%rbp
	vzeroupper
	retq
LBB71_34:
Ltmp53:
	leaq	_str.1(%rip), %rdi
	leaq	l___unnamed_42(%rip), %rdx
	movl	$28, %esi
	vzeroupper
	callq	__ZN4core9panicking5panic17h736ee47a631475c0E
Ltmp54:
LBB71_11:
	ud2
LBB71_52:
Ltmp59:
	leaq	l___unnamed_56(%rip), %rdi
	leaq	l___unnamed_57(%rip), %rdx
	movl	$22, %esi
	vzeroupper
	callq	__ZN3std9panicking11begin_panic17h2ddb6a6df57cd01aE
Ltmp60:
	jmp	LBB71_11
LBB71_10:
Ltmp64:
	leaq	l___unnamed_58(%rip), %rdx
	movq	%r15, %rdi
	vzeroupper
	callq	__ZN4core9panicking18panic_bounds_check17habe69d236c55e3edE
Ltmp65:
	jmp	LBB71_11
LBB71_48:
Ltmp66:
	movq	%rax, %rbx
	leaq	-208(%rbp), %rdi
	callq	__ZN4core3ptr13drop_in_place17h0d0ae34aa1cc06fbE
	jmp	LBB71_51
LBB71_47:
Ltmp55:
	jmp	LBB71_50
LBB71_49:
Ltmp63:
	jmp	LBB71_50
LBB71_53:
Ltmp58:
	movq	%rax, %rbx
	leaq	-144(%rbp), %rdi
	callq	__ZN4core3ptr13drop_in_place17h0d0ae34aa1cc06fbE
	jmp	LBB71_51
LBB71_45:
Ltmp52:
	movq	%rax, %rbx
	leaq	-144(%rbp), %rdi
	callq	__ZN4core3ptr13drop_in_place17hd5b3fea693442e9eE
	jmp	LBB71_51
LBB71_46:
Ltmp49:
LBB71_50:
	movq	%rax, %rbx
LBB71_51:
	movq	-64(%rbp), %rdi
	callq	__ZN4core3ptr13drop_in_place17hd5b3fea693442e9eE
	movq	%rbx, %rdi
	callq	__Unwind_Resume
	ud2
Lfunc_end4:
	.cfi_endproc
	.section	__TEXT,__gcc_except_tab
	.p2align	2
GCC_except_table71:
Lexception4:
	.byte	255
	.byte	255
	.byte	1
	.uleb128 Lcst_end4-Lcst_begin4
Lcst_begin4:
	.uleb128 Ltmp50-Lfunc_begin4
	.uleb128 Ltmp51-Ltmp50
	.uleb128 Ltmp52-Lfunc_begin4
	.byte	0
	.uleb128 Ltmp47-Lfunc_begin4
	.uleb128 Ltmp48-Ltmp47
	.uleb128 Ltmp49-Lfunc_begin4
	.byte	0
	.uleb128 Ltmp56-Lfunc_begin4
	.uleb128 Ltmp57-Ltmp56
	.uleb128 Ltmp58-Lfunc_begin4
	.byte	0
	.uleb128 Ltmp61-Lfunc_begin4
	.uleb128 Ltmp62-Ltmp61
	.uleb128 Ltmp63-Lfunc_begin4
	.byte	0
	.uleb128 Ltmp53-Lfunc_begin4
	.uleb128 Ltmp54-Ltmp53
	.uleb128 Ltmp55-Lfunc_begin4
	.byte	0
	.uleb128 Ltmp59-Lfunc_begin4
	.uleb128 Ltmp60-Ltmp59
	.uleb128 Ltmp63-Lfunc_begin4
	.byte	0
	.uleb128 Ltmp64-Lfunc_begin4
	.uleb128 Ltmp65-Ltmp64
	.uleb128 Ltmp66-Lfunc_begin4
	.byte	0
	.uleb128 Ltmp65-Lfunc_begin4
	.uleb128 Lfunc_end4-Ltmp65
	.byte	0
	.byte	0
Lcst_end4:
	.p2align	2

	.section	__TEXT,__text,regular,pure_instructions
	.globl	__ZN3cfg14classification2lr8Lr0Items3new17h99ea3a76e966ee5eE
	.p2align	4, 0x90
__ZN3cfg14classification2lr8Lr0Items3new17h99ea3a76e966ee5eE:
	.cfi_startproc
	pushq	%rbp
	.cfi_def_cfa_offset 16
	.cfi_offset %rbp, -16
	movq	%rsp, %rbp
	.cfi_def_cfa_register %rbp
	movq	%rdi, %rax
	movq	$0, (%rdi)
	movq	$0, 16(%rdi)
	popq	%rbp
	retq
	.cfi_endproc

	.globl	__ZN3cfg6earley17binarized_grammar16BinarizedGrammar3new17h13201bd958ec89daE
	.p2align	4, 0x90
__ZN3cfg6earley17binarized_grammar16BinarizedGrammar3new17h13201bd958ec89daE:
	.cfi_startproc
	pushq	%rbp
	.cfi_def_cfa_offset 16
	.cfi_offset %rbp, -16
	movq	%rsp, %rbp
	.cfi_def_cfa_register %rbp
	movq	%rdi, %rax
	movq	$8, (%rdi)
	vxorps	%xmm0, %xmm0, %xmm0
	vmovups	%xmm0, 8(%rdi)
	movq	$8, 24(%rdi)
	movl	$0, 56(%rdi)
	movb	$0, 64(%rdi)
	vmovups	%xmm0, 32(%rdi)
	movl	$0, 48(%rdi)
	popq	%rbp
	retq
	.cfi_endproc

	.globl	__ZN3cfg6earley17binarized_grammar16BinarizedGrammar9set_start17h5bcdc2241d92a34eE
	.p2align	4, 0x90
__ZN3cfg6earley17binarized_grammar16BinarizedGrammar9set_start17h5bcdc2241d92a34eE:
	.cfi_startproc
	pushq	%rbp
	.cfi_def_cfa_offset 16
	.cfi_offset %rbp, -16
	movq	%rsp, %rbp
	.cfi_def_cfa_register %rbp
	movl	$1, 56(%rdi)
	movl	%esi, 60(%rdi)
	popq	%rbp
	retq
	.cfi_endproc

	.globl	__ZN3cfg6earley17binarized_grammar16BinarizedGrammar5start17h1ed84e04994c4569E
	.p2align	4, 0x90
__ZN3cfg6earley17binarized_grammar16BinarizedGrammar5start17h1ed84e04994c4569E:
	.cfi_startproc
	pushq	%rbp
	.cfi_def_cfa_offset 16
	.cfi_offset %rbp, -16
	movq	%rsp, %rbp
	.cfi_def_cfa_register %rbp
	cmpl	$0, 56(%rdi)
	je	LBB75_2
	movl	60(%rdi), %eax
	popq	%rbp
	retq
LBB75_2:
	leaq	l___unnamed_35(%rip), %rdi
	leaq	l___unnamed_59(%rip), %rdx
	movl	$43, %esi
	callq	__ZN4core9panicking5panic17h736ee47a631475c0E
	.cfi_endproc

	.globl	__ZN101_$LT$$RF$cfg..earley..binarized_grammar..BinarizedGrammar$u20$as$u20$cfg..grammar..ContextFreeRef$GT$5rules17h396612f95f063502E
	.p2align	4, 0x90
__ZN101_$LT$$RF$cfg..earley..binarized_grammar..BinarizedGrammar$u20$as$u20$cfg..grammar..ContextFreeRef$GT$5rules17h396612f95f063502E:
	.cfi_startproc
	pushq	%rbp
	.cfi_def_cfa_offset 16
	.cfi_offset %rbp, -16
	movq	%rsp, %rbp
	.cfi_def_cfa_register %rbp
	movq	%rdi, %rax
	movq	(%rsi), %rcx
	movq	24(%rsi), %rdx
	movq	40(%rsi), %rdi
	leaq	(%rdi,%rdi,4), %rdi
	leaq	(%rdx,%rdi,8), %rdi
	imulq	$56, 16(%rsi), %rsi
	addq	%rcx, %rsi
	movq	%rdx, (%rax)
	movq	%rdi, 8(%rax)
	movq	$0, 16(%rax)
	movq	%rcx, 24(%rax)
	movq	%rsi, 32(%rax)
	popq	%rbp
	retq
	.cfi_endproc

	.globl	__ZN104_$LT$cfg..earley..binarized_grammar..BinarizedGrammar$u20$as$u20$cfg..rule..container..RuleContainer$GT$10sym_source17h5b0511f4a1f4f24aE
	.p2align	4, 0x90
__ZN104_$LT$cfg..earley..binarized_grammar..BinarizedGrammar$u20$as$u20$cfg..rule..container..RuleContainer$GT$10sym_source17h5b0511f4a1f4f24aE:
	.cfi_startproc
	pushq	%rbp
	.cfi_def_cfa_offset 16
	.cfi_offset %rbp, -16
	movq	%rsp, %rbp
	.cfi_def_cfa_register %rbp
	leaq	48(%rdi), %rax
	popq	%rbp
	retq
	.cfi_endproc

	.globl	__ZN104_$LT$cfg..earley..binarized_grammar..BinarizedGrammar$u20$as$u20$cfg..rule..container..RuleContainer$GT$14sym_source_mut17hbc56552b91e8b4ffE
	.p2align	4, 0x90
__ZN104_$LT$cfg..earley..binarized_grammar..BinarizedGrammar$u20$as$u20$cfg..rule..container..RuleContainer$GT$14sym_source_mut17hbc56552b91e8b4ffE:
	.cfi_startproc
	pushq	%rbp
	.cfi_def_cfa_offset 16
	.cfi_offset %rbp, -16
	movq	%rsp, %rbp
	.cfi_def_cfa_register %rbp
	leaq	48(%rdi), %rax
	popq	%rbp
	retq
	.cfi_endproc

	.globl	__ZN104_$LT$cfg..earley..binarized_grammar..BinarizedGrammar$u20$as$u20$cfg..rule..container..RuleContainer$GT$8add_rule17h2c692f72241ef159E
	.p2align	4, 0x90
__ZN104_$LT$cfg..earley..binarized_grammar..BinarizedGrammar$u20$as$u20$cfg..rule..container..RuleContainer$GT$8add_rule17h2c692f72241ef159E:
	.cfi_startproc
	pushq	%rbp
	.cfi_def_cfa_offset 16
	.cfi_offset %rbp, -16
	movq	%rsp, %rbp
	.cfi_def_cfa_register %rbp
	subq	$48, %rsp
	movq	32(%r8), %rax
	movq	%rax, -16(%rbp)
	vmovups	(%r8), %ymm0
	vmovups	%ymm0, -48(%rbp)
	leaq	-48(%rbp), %r8
	vzeroupper
	callq	__ZN93_$LT$cfg..binarized..BinarizedCfg$LT$H$GT$$u20$as$u20$cfg..rule..container..RuleContainer$GT$8add_rule17hffb82523c0be067cE
	addq	$48, %rsp
	popq	%rbp
	retq
	.cfi_endproc

	.globl	__ZN92_$LT$cfg..earley..binarized_grammar..BinarizedGrammar$u20$as$u20$core..ops..deref..Deref$GT$5deref17h49da6c057ec219e2E
	.p2align	4, 0x90
__ZN92_$LT$cfg..earley..binarized_grammar..BinarizedGrammar$u20$as$u20$core..ops..deref..Deref$GT$5deref17h49da6c057ec219e2E:
	.cfi_startproc
	pushq	%rbp
	.cfi_def_cfa_offset 16
	.cfi_offset %rbp, -16
	movq	%rsp, %rbp
	.cfi_def_cfa_register %rbp
	movq	%rdi, %rax
	popq	%rbp
	retq
	.cfi_endproc

	.globl	__ZN95_$LT$cfg..earley..binarized_grammar..BinarizedGrammar$u20$as$u20$core..ops..deref..DerefMut$GT$9deref_mut17h9bce4d5606a94c63E
	.p2align	4, 0x90
__ZN95_$LT$cfg..earley..binarized_grammar..BinarizedGrammar$u20$as$u20$core..ops..deref..DerefMut$GT$9deref_mut17h9bce4d5606a94c63E:
	.cfi_startproc
	pushq	%rbp
	.cfi_def_cfa_offset 16
	.cfi_offset %rbp, -16
	movq	%rsp, %rbp
	.cfi_def_cfa_register %rbp
	movq	%rdi, %rax
	popq	%rbp
	retq
	.cfi_endproc

	.globl	__ZN3cfg6earley17binarized_grammar16BinarizedGrammar10wrap_start17h24b4de4d8691734aE
	.p2align	4, 0x90
__ZN3cfg6earley17binarized_grammar16BinarizedGrammar10wrap_start17h24b4de4d8691734aE:
	.cfi_startproc
	pushq	%rbp
	.cfi_def_cfa_offset 16
	.cfi_offset %rbp, -16
	movq	%rsp, %rbp
	.cfi_def_cfa_register %rbp
	pushq	%r14
	pushq	%rbx
	subq	$48, %rsp
	.cfi_offset %rbx, -32
	.cfi_offset %r14, -24
	cmpl	$0, 56(%rdi)
	je	LBB82_2
	movq	%rdi, %rbx
	movl	48(%rdi), %r14d
	movl	60(%rdi), %eax
	movl	%r14d, %ecx
	incl	%ecx
	movl	$-1, %edx
	cmovel	%edx, %ecx
	movl	%r14d, %esi
	addl	$2, %esi
	cmovbl	%edx, %esi
	movl	%esi, 48(%rdi)
	movl	%eax, -24(%rbp)
	movl	%ecx, -20(%rbp)
	movq	$4, -64(%rbp)
	vxorps	%xmm0, %xmm0, %xmm0
	vmovups	%xmm0, -56(%rbp)
	movl	$0, -40(%rbp)
	movb	$2, -28(%rbp)
	leaq	-24(%rbp), %rdx
	leaq	-64(%rbp), %r8
	movl	$2, %ecx
	movl	%r14d, %esi
	callq	__ZN93_$LT$cfg..binarized..BinarizedCfg$LT$H$GT$$u20$as$u20$cfg..rule..container..RuleContainer$GT$8add_rule17hffb82523c0be067cE
	movl	$1, 56(%rbx)
	movl	%r14d, 60(%rbx)
	movb	$1, 64(%rbx)
	addq	$48, %rsp
	popq	%rbx
	popq	%r14
	popq	%rbp
	retq
LBB82_2:
	leaq	l___unnamed_35(%rip), %rdi
	leaq	l___unnamed_59(%rip), %rdx
	movl	$43, %esi
	callq	__ZN4core9panicking5panic17h736ee47a631475c0E
	.cfi_endproc

	.globl	__ZN3cfg6earley17binarized_grammar16BinarizedGrammar14original_start17hddc6929a07726857E
	.p2align	4, 0x90
__ZN3cfg6earley17binarized_grammar16BinarizedGrammar14original_start17hddc6929a07726857E:
	.cfi_startproc
	pushq	%rbp
	.cfi_def_cfa_offset 16
	.cfi_offset %rbp, -16
	movq	%rsp, %rbp
	.cfi_def_cfa_register %rbp
	xorl	%eax, %eax
	cmpb	$0, 64(%rdi)
	je	LBB83_8
	movq	24(%rdi), %rcx
	movq	40(%rdi), %rdx
	movq	(%rdi), %r8
	movq	16(%rdi), %r9
	movl	56(%rdi), %r10d
	movl	60(%rdi), %r11d
	shlq	$3, %rdx
	testl	%r10d, %r10d
	je	LBB83_9
	leaq	(%rdx,%rdx,4), %rdi
	xorl	%esi, %esi
	.p2align	4, 0x90
LBB83_3:
	testq	%rdi, %rdi
	je	LBB83_13
	movq	%rsi, %rdx
	incq	%rsi
	je	LBB83_21
	addq	$-40, %rdi
	cmpl	$2, 24(%rcx)
	leaq	40(%rcx), %rcx
	je	LBB83_3
	cmpl	%edx, %r11d
	jne	LBB83_3
	xorl	%eax, %eax
	jmp	LBB83_8
LBB83_9:
	leaq	(%rdx,%rdx,4), %rdx
	.p2align	4, 0x90
LBB83_10:
	testq	%rdx, %rdx
	je	LBB83_13
	addq	$-40, %rdx
	cmpl	$2, 24(%rcx)
	leaq	40(%rcx), %rcx
	je	LBB83_10
LBB83_12:
	leaq	l___unnamed_35(%rip), %rdi
	leaq	l___unnamed_59(%rip), %rdx
	movl	$43, %esi
	callq	__ZN4core9panicking5panic17h736ee47a631475c0E
LBB83_13:
	testl	%r10d, %r10d
	je	LBB83_18
	imulq	$56, %r9, %rcx
	xorl	%eax, %eax
	xorl	%edx, %edx
	movq	%r8, %rsi
	.p2align	4, 0x90
LBB83_15:
	cmpq	%rdx, %rcx
	je	LBB83_8
	addq	$56, %rdx
	cmpl	40(%rsi), %r11d
	leaq	56(%rsi), %rsi
	jne	LBB83_15
	movl	-8(%r8,%rdx), %edx
	movl	$1, %eax
	popq	%rbp
	retq
LBB83_8:
	popq	%rbp
	retq
LBB83_18:
	testq	%r9, %r9
	jne	LBB83_12
	popq	%rbp
	retq
LBB83_21:
	leaq	_str.1(%rip), %rdi
	leaq	l___unnamed_42(%rip), %rdx
	movl	$28, %esi
	callq	__ZN4core9panicking5panic17h736ee47a631475c0E
	.cfi_endproc

	.globl	__ZN3cfg6earley17binarized_grammar16BinarizedGrammar3eof17h5e9d3d03c814d15aE
	.p2align	4, 0x90
__ZN3cfg6earley17binarized_grammar16BinarizedGrammar3eof17h5e9d3d03c814d15aE:
	.cfi_startproc
	pushq	%rbp
	.cfi_def_cfa_offset 16
	.cfi_offset %rbp, -16
	movq	%rsp, %rbp
	.cfi_def_cfa_register %rbp
	xorl	%eax, %eax
	cmpb	$0, 64(%rdi)
	je	LBB84_8
	movq	24(%rdi), %rcx
	movq	40(%rdi), %rdx
	movq	(%rdi), %r8
	movq	16(%rdi), %r9
	movl	56(%rdi), %r10d
	movl	60(%rdi), %r11d
	shlq	$3, %rdx
	testl	%r10d, %r10d
	je	LBB84_9
	leaq	(%rdx,%rdx,4), %rdi
	xorl	%esi, %esi
	.p2align	4, 0x90
LBB84_3:
	testq	%rdi, %rdi
	je	LBB84_13
	movq	%rsi, %rdx
	incq	%rsi
	je	LBB84_22
	addq	$-40, %rdi
	cmpl	$2, 24(%rcx)
	leaq	40(%rcx), %rcx
	je	LBB84_3
	cmpl	%edx, %r11d
	jne	LBB84_3
	xorl	%eax, %eax
	jmp	LBB84_8
LBB84_9:
	leaq	(%rdx,%rdx,4), %rdx
	.p2align	4, 0x90
LBB84_10:
	testq	%rdx, %rdx
	je	LBB84_13
	addq	$-40, %rdx
	cmpl	$2, 24(%rcx)
	leaq	40(%rcx), %rcx
	je	LBB84_10
LBB84_12:
	leaq	l___unnamed_35(%rip), %rdi
	leaq	l___unnamed_59(%rip), %rdx
	movl	$43, %esi
	callq	__ZN4core9panicking5panic17h736ee47a631475c0E
LBB84_13:
	testl	%r10d, %r10d
	je	LBB84_19
	imulq	$56, %r9, %rdx
	xorl	%eax, %eax
	xorl	%ecx, %ecx
	movq	%r8, %rsi
	.p2align	4, 0x90
LBB84_15:
	cmpq	%rcx, %rdx
	je	LBB84_8
	addq	$56, %rcx
	cmpl	40(%rsi), %r11d
	leaq	56(%rsi), %rsi
	jne	LBB84_15
	cmpl	$1, -12(%r8,%rcx)
	jne	LBB84_20
	movl	-4(%r8,%rcx), %edx
	movl	$1, %eax
	popq	%rbp
	retq
LBB84_8:
	popq	%rbp
	retq
LBB84_19:
	testq	%r9, %r9
	jne	LBB84_12
LBB84_20:
	popq	%rbp
	retq
LBB84_22:
	leaq	_str.1(%rip), %rdi
	leaq	l___unnamed_42(%rip), %rdx
	movl	$28, %esi
	callq	__ZN4core9panicking5panic17h736ee47a631475c0E
	.cfi_endproc

	.globl	__ZN3cfg6earley17binarized_grammar16BinarizedGrammar14dot_before_eof17h60fb5a7c2175cfb5E
	.p2align	4, 0x90
__ZN3cfg6earley17binarized_grammar16BinarizedGrammar14dot_before_eof17h60fb5a7c2175cfb5E:
	.cfi_startproc
	pushq	%rbp
	.cfi_def_cfa_offset 16
	.cfi_offset %rbp, -16
	movq	%rsp, %rbp
	.cfi_def_cfa_register %rbp
	pushq	%rbx
	pushq	%rax
	.cfi_offset %rbx, -24
	cmpb	$0, 64(%rdi)
	je	LBB85_9
	movq	24(%rdi), %rsi
	movq	40(%rdi), %rax
	movq	(%rdi), %r11
	movq	16(%rdi), %r8
	movl	56(%rdi), %r9d
	movl	60(%rdi), %ecx
	testl	%r9d, %r9d
	je	LBB85_10
	leal	1(%rcx), %r10d
	leaq	(%rax,%rax,4), %rax
	leaq	(%rsi,%rax,8), %rdi
	xorl	%eax, %eax
	xorl	%edx, %edx
	.p2align	4, 0x90
LBB85_3:
	cmpq	%rsi, %rdi
	je	LBB85_14
LBB85_4:
	incq	%rax
	je	LBB85_24
	movq	%rsi, %rbx
	addq	$40, %rsi
	cmpl	$2, 24(%rbx)
	je	LBB85_3
	cmpl	%eax, %r10d
	je	LBB85_22
	incq	%rdx
	je	LBB85_25
	addq	$40, %rbx
	movq	%rbx, %rsi
	cmpq	%rsi, %rdi
	jne	LBB85_4
	jmp	LBB85_14
LBB85_9:
	xorl	%eax, %eax
	addq	$8, %rsp
	popq	%rbx
	popq	%rbp
	retq
LBB85_10:
	shlq	$3, %rax
	leaq	(%rax,%rax,4), %rax
	xorl	%edx, %edx
	.p2align	4, 0x90
LBB85_11:
	testq	%rax, %rax
	je	LBB85_14
	addq	$-40, %rax
	cmpl	$2, 24(%rsi)
	leaq	40(%rsi), %rsi
	je	LBB85_11
LBB85_13:
	leaq	l___unnamed_35(%rip), %rdi
	leaq	l___unnamed_59(%rip), %rdx
	movl	$43, %esi
	callq	__ZN4core9panicking5panic17h736ee47a631475c0E
LBB85_14:
	testq	%r8, %r8
	je	LBB85_20
	testl	%r9d, %r9d
	je	LBB85_13
	imulq	$56, %r8, %rax
	xorl	%esi, %esi
	.p2align	4, 0x90
LBB85_17:
	cmpl	40(%r11,%rsi), %ecx
	je	LBB85_22
	incq	%rdx
	je	LBB85_25
	addq	$56, %rsi
	cmpq	%rsi, %rax
	jne	LBB85_17
LBB85_20:
	xorl	%eax, %eax
	addq	$8, %rsp
	popq	%rbx
	popq	%rbp
	retq
LBB85_22:
	movl	$1, %eax
	addq	$8, %rsp
	popq	%rbx
	popq	%rbp
	retq
LBB85_24:
	leaq	_str.1(%rip), %rdi
	leaq	l___unnamed_42(%rip), %rdx
	movl	$28, %esi
	callq	__ZN4core9panicking5panic17h736ee47a631475c0E
LBB85_25:
	leaq	_str.1(%rip), %rdi
	leaq	l___unnamed_60(%rip), %rdx
	movl	$28, %esi
	callq	__ZN4core9panicking5panic17h736ee47a631475c0E
	.cfi_endproc

	.globl	__ZN3cfg6earley17binarized_grammar16BinarizedGrammar11make_proper17hbac56e004a1f2b90E
	.p2align	4, 0x90
__ZN3cfg6earley17binarized_grammar16BinarizedGrammar11make_proper17hbac56e004a1f2b90E:
Lfunc_begin5:
	.cfi_startproc
	.cfi_personality 155, _rust_eh_personality
	.cfi_lsda 16, Lexception5
	pushq	%rbp
	.cfi_def_cfa_offset 16
	.cfi_offset %rbp, -16
	movq	%rsp, %rbp
	.cfi_def_cfa_register %rbp
	pushq	%r15
	pushq	%r14
	pushq	%r13
	pushq	%r12
	pushq	%rbx
	subq	$408, %rsp
	.cfi_offset %rbx, -56
	.cfi_offset %r12, -48
	.cfi_offset %r13, -40
	.cfi_offset %r14, -32
	.cfi_offset %r15, -24
	movq	%rdi, -400(%rbp)
	cmpl	$0, 56(%rsi)
	movq	%rsi, -48(%rbp)
	je	LBB86_192
	movq	%rsi, %rbx
	movl	60(%rsi), %eax
	movq	%rax, -248(%rbp)
	movl	48(%rsi), %esi
Ltmp67:
	leaq	-384(%rbp), %rdi
	movl	$1, %edx
	callq	__ZN7bit_vec6BitVec9from_elem17hd3ec0eb92116818aE
Ltmp68:
	movq	(%rbx), %r9
	movq	%rbx, %rax
	movq	24(%rbx), %rbx
	imulq	$56, 16(%rax), %r8
	movq	40(%rax), %rax
	addq	%r9, %r8
	leaq	-360(%rbp), %r15
	leaq	(%rax,%rax,4), %rax
	leaq	(%rbx,%rax,8), %r11
	xorl	%eax, %eax
	movq	%r9, %r10
	movq	%rbx, %rdx
	testq	%rdx, %rdx
	je	LBB86_7
	.p2align	4, 0x90
LBB86_3:
	cmpq	%rdx, %r11
	je	LBB86_7
	incq	%rax
	je	LBB86_174
	cmpl	$2, 24(%rdx)
	leaq	40(%rdx), %rdx
	je	LBB86_3
	movl	%eax, %ecx
	decl	%ecx
	movl	%ecx, %ecx
	movq	%rcx, -112(%rbp)
	cmpq	%rcx, -360(%rbp)
	ja	LBB86_10
	jmp	LBB86_178
LBB86_7:
	testq	%r10, %r10
	je	LBB86_12
	cmpq	%r10, %r8
	je	LBB86_12
	movl	40(%r10), %ecx
	addq	$56, %r10
	xorl	%edx, %edx
	movl	%ecx, %ecx
	movq	%rcx, -112(%rbp)
	cmpq	%rcx, -360(%rbp)
	jbe	LBB86_178
LBB86_10:
	movq	%rcx, %rdi
	shrq	$5, %rdi
	movq	-368(%rbp), %rsi
	cmpq	%rdi, %rsi
	jbe	LBB86_179
	movq	-384(%rbp), %r14
	movl	$-2, %esi
	roll	%cl, %esi
	andl	%esi, (%r14,%rdi,4)
	testq	%rdx, %rdx
	jne	LBB86_3
	jmp	LBB86_7
LBB86_12:
	xorl	%eax, %eax
	movl	$1, %ecx
	testq	%rbx, %rbx
	je	LBB86_19
	.p2align	4, 0x90
LBB86_13:
	cmpq	%rbx, %r11
	je	LBB86_19
	incq	%rax
	je	LBB86_166
	cmpl	$2, 24(%rbx)
	leaq	40(%rbx), %rbx
	je	LBB86_13
	leaq	-1(%rax), %rdx
	movl	%edx, %edi
	movq	%rdi, -112(%rbp)
	cmpq	%rdi, -360(%rbp)
	jbe	LBB86_187
	shrq	$5, %rdi
	movq	-368(%rbp), %rsi
	cmpq	%rdi, %rsi
	jbe	LBB86_188
	shlxl	%edx, %ecx, %edx
	movq	-384(%rbp), %rsi
	orl	%edx, (%rsi,%rdi,4)
	testq	%rbx, %rbx
	jne	LBB86_13
LBB86_19:
	cmpq	%r9, %r8
	je	LBB86_21
	addq	$56, %r9
	xorl	%ebx, %ebx
	testq	%rbx, %rbx
	jne	LBB86_13
	jmp	LBB86_19
LBB86_21:
	vmovdqu	-384(%rbp), %ymm0
	vmovdqu	%ymm0, -112(%rbp)
Ltmp83:
	leaq	-240(%rbp), %rdi
	movq	-48(%rbp), %rbx
	movq	%rbx, %rsi
	vzeroupper
	callq	__ZN3cfg8analysis11rhs_closure19RhsClosure$LT$R$GT$3new17h50b82fef7391451dE
Ltmp84:
Ltmp86:
	leaq	-240(%rbp), %rdi
	leaq	-112(%rbp), %rsi
	callq	__ZN3cfg8analysis11rhs_closure19RhsClosure$LT$R$GT$11rhs_closure17hb4b6caf81e0be29eE
Ltmp87:
	movq	-232(%rbp), %rax
	testq	%rax, %rax
	je	LBB86_27
	movq	-240(%rbp), %rdi
	testq	%rdi, %rdi
	je	LBB86_27
	shlq	$3, %rax
	leaq	(%rax,%rax,4), %rsi
	testq	%rsi, %rsi
	je	LBB86_27
	movl	$8, %edx
	callq	___rust_dealloc
LBB86_27:
	movq	-208(%rbp), %rsi
	testq	%rsi, %rsi
	je	LBB86_31
	movq	-216(%rbp), %rdi
	testq	%rdi, %rdi
	je	LBB86_31
	shlq	$2, %rsi
	testq	%rsi, %rsi
	je	LBB86_31
	movl	$4, %edx
	callq	___rust_dealloc
LBB86_31:
	vmovdqu	-112(%rbp), %ymm0
	vmovdqu	%ymm0, -448(%rbp)
	movl	48(%rbx), %edx
Ltmp89:
	leaq	-384(%rbp), %rdi
	movq	%rdx, %rsi
	vzeroupper
	callq	__ZN10bit_matrix6matrix9BitMatrix3new17h28c0edd13ebd5365E
Ltmp90:
	movq	(%rbx), %r13
	movq	24(%rbx), %r12
	movq	40(%rbx), %rax
	imulq	$56, 16(%rbx), %r8
	addq	%r13, %r8
	leaq	(%rax,%rax,4), %rax
	leaq	(%r12,%rax,8), %r10
	xorl	%ebx, %ebx
	movl	$1, %r11d
	.p2align	4, 0x90
LBB86_33:
	testq	%r12, %r12
	je	LBB86_38
	.p2align	4, 0x90
LBB86_34:
	cmpq	%r12, %r10
	je	LBB86_38
	incq	%rbx
	je	LBB86_175
	cmpl	$2, 24(%r12)
	leaq	40(%r12), %r12
	je	LBB86_34
	movl	%ebx, %eax
	decl	%eax
	leaq	l___unnamed_10(%rip), %r9
	xorl	%r15d, %r15d
	movq	-352(%rbp), %rsi
	addq	$32, %rsi
	jae	LBB86_41
	jmp	LBB86_184
	.p2align	4, 0x90
LBB86_38:
	testq	%r13, %r13
	je	LBB86_53
	cmpq	%r13, %r8
	je	LBB86_53
	xorl	%r15d, %r15d
	cmpl	$1, 44(%r13)
	movl	40(%r13), %eax
	sete	%r15b
	incq	%r15
	movq	%r13, %r9
	addq	$56, %r13
	addq	$48, %r9
	xorl	%r12d, %r12d
	movq	-352(%rbp), %rsi
	addq	$32, %rsi
	jb	LBB86_184
LBB86_41:
	movl	%eax, %ecx
	decq	%rsi
	andq	$-32, %rsi
	movq	%rcx, %rax
	mulq	%rsi
	jo	LBB86_183
	addq	%rcx, %rax
	jb	LBB86_182
	movq	%rax, -112(%rbp)
	cmpq	%rax, -360(%rbp)
	jbe	LBB86_180
	movq	%rax, %rdi
	shrq	$5, %rdi
	movq	-368(%rbp), %rsi
	cmpq	%rdi, %rsi
	jbe	LBB86_181
	shlxl	%eax, %r11d, %eax
	movq	-384(%rbp), %rdx
	orl	%eax, (%rdx,%rdi,4)
	shlq	$2, %r15
	testq	%r15, %r15
	je	LBB86_33
	xorl	%r14d, %r14d
	.p2align	4, 0x90
LBB86_47:
	movq	-352(%rbp), %rsi
	addq	$32, %rsi
	jb	LBB86_171
	decq	%rsi
	andq	$-32, %rsi
	movq	%rcx, %rax
	mulq	%rsi
	jo	LBB86_170
	movl	(%r9,%r14), %edx
	addq	%rdx, %rax
	jb	LBB86_169
	movq	%rax, -80(%rbp)
	cmpq	%rax, -360(%rbp)
	jbe	LBB86_167
	movq	%rax, %rdi
	shrq	$5, %rdi
	movq	-368(%rbp), %rsi
	cmpq	%rdi, %rsi
	jbe	LBB86_168
	shlxl	%eax, %r11d, %eax
	movq	-384(%rbp), %rdx
	orl	%eax, (%rdx,%rdi,4)
	addq	$4, %r14
	cmpq	%r14, %r15
	jne	LBB86_47
	jmp	LBB86_33
LBB86_53:
	movq	-352(%rbp), %rax
	movq	%rax, -208(%rbp)
	vmovdqu	-384(%rbp), %ymm0
	vmovdqu	%ymm0, -240(%rbp)
Ltmp115:
	leaq	-240(%rbp), %rdi
	vzeroupper
	callq	__ZN10bit_matrix6matrix9BitMatrix18transitive_closure17h5b887f28322ab65bE
Ltmp116:
Ltmp117:
	leaq	-240(%rbp), %rdi
	callq	__ZN10bit_matrix6matrix9BitMatrix17reflexive_closure17h84c208ddec516d88E
Ltmp118:
	movq	-208(%rbp), %rax
	movq	%rax, -352(%rbp)
	vmovdqu	-240(%rbp), %ymm0
	vmovdqu	%ymm0, -384(%rbp)
	movq	-48(%rbp), %rbx
	movl	48(%rbx), %esi
Ltmp120:
	leaq	-112(%rbp), %rdi
	xorl	%edx, %edx
	vzeroupper
	callq	__ZN7bit_vec6BitVec9from_elem17hd3ec0eb92116818aE
Ltmp121:
	movq	(%rbx), %r10
	movq	%rbx, %rcx
	movq	24(%rbx), %rbx
	movq	40(%rcx), %rax
	imulq	$56, 16(%rcx), %r9
	addq	%r10, %r9
	leaq	-88(%rbp), %r8
	leaq	(%rax,%rax,4), %rax
	leaq	(%rbx,%rax,8), %r15
	xorl	%edx, %edx
	movl	$1, %r14d
	leaq	l___unnamed_10(%rip), %r11
	.p2align	4, 0x90
LBB86_57:
	testq	%rbx, %rbx
	je	LBB86_62
	.p2align	4, 0x90
LBB86_58:
	cmpq	%rbx, %r15
	je	LBB86_62
	incq	%rdx
	je	LBB86_176
	cmpl	$2, 24(%rbx)
	leaq	40(%rbx), %rbx
	je	LBB86_58
	movl	%edx, %esi
	decl	%esi
	movq	%r11, %r12
	xorl	%r13d, %r13d
	movl	%esi, %ecx
	movq	%rcx, -256(%rbp)
	cmpq	%rcx, -88(%rbp)
	ja	LBB86_65
	jmp	LBB86_185
	.p2align	4, 0x90
LBB86_62:
	testq	%r10, %r10
	je	LBB86_71
	cmpq	%r10, %r9
	je	LBB86_71
	xorl	%r13d, %r13d
	cmpl	$1, 44(%r10)
	movl	40(%r10), %esi
	sete	%r13b
	incq	%r13
	movq	%r10, %r12
	addq	$56, %r10
	addq	$48, %r12
	xorl	%ebx, %ebx
	movl	%esi, %ecx
	movq	%rcx, -256(%rbp)
	cmpq	%rcx, -88(%rbp)
	jbe	LBB86_185
LBB86_65:
	movq	%rcx, %rdi
	shrq	$5, %rdi
	movq	-96(%rbp), %rsi
	cmpq	%rdi, %rsi
	jbe	LBB86_186
	shlxl	%ecx, %r14d, %eax
	movq	-112(%rbp), %rcx
	orl	%eax, (%rcx,%rdi,4)
	shlq	$2, %r13
	testq	%r13, %r13
	je	LBB86_57
	xorl	%ecx, %ecx
	.p2align	4, 0x90
LBB86_68:
	movl	(%r12,%rcx), %eax
	movq	%rax, -256(%rbp)
	cmpq	%rax, -88(%rbp)
	jbe	LBB86_172
	movq	%rax, %rdi
	shrq	$5, %rdi
	movq	-96(%rbp), %rsi
	cmpq	%rdi, %rsi
	jbe	LBB86_173
	shlxl	%eax, %r14d, %eax
	movq	-112(%rbp), %rsi
	orl	%eax, (%rsi,%rdi,4)
	addq	$4, %rcx
	cmpq	%rcx, %r13
	jne	LBB86_68
	jmp	LBB86_57
LBB86_71:
	vmovdqu	-112(%rbp), %ymm0
	vmovdqu	%ymm0, -80(%rbp)
	movq	-48(%rbp), %rbx
	movl	48(%rbx), %esi
Ltmp134:
	leaq	-112(%rbp), %rdi
	xorl	%edx, %edx
	vzeroupper
	callq	__ZN7bit_vec6BitVec9from_elem17hd3ec0eb92116818aE
Ltmp135:
	movq	-448(%rbp), %rax
	movq	-432(%rbp), %r8
	movq	-96(%rbp), %r10
	cmpq	%r10, %r8
	cmovbeq	%r8, %r10
	movq	-80(%rbp), %rdi
	movq	-64(%rbp), %rcx
	cmpq	%rcx, %r10
	cmovaq	%rcx, %r10
	testq	%r10, %r10
	je	LBB86_76
	movq	-112(%rbp), %rsi
	cmpq	$16, %r10
	jae	LBB86_92
	xorl	%edx, %edx
	.p2align	4, 0x90
LBB86_75:
	movl	(%rdi,%rdx,4), %ecx
	notl	%ecx
	orl	%ecx, (%rax,%rdx,4)
	orl	%ecx, (%rsi,%rdx,4)
	incq	%rdx
	cmpq	%r10, %rdx
	jb	LBB86_75
LBB86_76:
	shlq	$2, %r8
	xorl	%ecx, %ecx
	.p2align	4, 0x90
LBB86_77:
	cmpq	%rcx, %r8
	je	LBB86_80
	cmpl	$-1, (%rax,%rcx)
	leaq	4(%rcx), %rcx
	je	LBB86_77
	xorl	%r12d, %r12d
	jmp	LBB86_81
LBB86_80:
	movb	$1, %r12b
LBB86_81:
	movq	%rbx, -240(%rbp)
	vmovups	-384(%rbp), %ymm0
	vmovups	%ymm0, -232(%rbp)
	movq	-352(%rbp), %rax
	movq	%rax, -200(%rbp)
	vmovups	-112(%rbp), %ymm0
	vmovups	%ymm0, -192(%rbp)
	vmovdqu	-448(%rbp), %ymm0
	vmovdqu	%ymm0, -160(%rbp)
	movb	$0, -128(%rbp)
	movb	%r12b, -127(%rbp)
	movq	-72(%rbp), %rsi
	testq	%rsi, %rsi
	je	LBB86_84
	shlq	$2, %rsi
	testq	%rsi, %rsi
	je	LBB86_84
	movl	$4, %edx
	vzeroupper
	callq	___rust_dealloc
LBB86_84:
	leaq	-232(%rbp), %r14
	leaq	-192(%rbp), %rbx
	leaq	-160(%rbp), %r13
	movq	-200(%rbp), %rcx
	addq	$32, %rcx
	jb	LBB86_193
	decq	%rcx
	shrq	$5, %rcx
	movq	-248(%rbp), %rsi
	movq	%rsi, %rax
	mulq	%rcx
	jo	LBB86_194
	movq	%rax, %r10
	incq	%rsi
	movq	%rsi, %rax
	mulq	%rcx
	jo	LBB86_195
	cmpq	%r10, %rax
	jb	LBB86_196
	movq	-216(%rbp), %rsi
	cmpq	%rax, %rsi
	jb	LBB86_197
	movq	-232(%rbp), %rdi
	leaq	(%rdi,%r10,4), %r11
	leaq	(%rdi,%rax,4), %rsi
	movq	-192(%rbp), %rax
	movq	-176(%rbp), %r9
	subq	%r11, %rsi
	shrq	$2, %rsi
	cmpq	%rsi, %r9
	cmovbeq	%r9, %rsi
	testq	%rsi, %rsi
	je	LBB86_111
	cmpq	$32, %rsi
	jae	LBB86_101
	xorl	%ebx, %ebx
	jmp	LBB86_110
LBB86_92:
	leaq	(%rax,%r10,4), %rdx
	leaq	(%rsi,%r10,4), %rbx
	leaq	(%rdi,%r10,4), %rcx
	cmpq	%rbx, %rax
	setb	%r12b
	cmpq	%rdx, %rsi
	setb	%r13b
	cmpq	%rcx, %rax
	setb	%r15b
	cmpq	%rdx, %rdi
	setb	%r9b
	cmpq	%rcx, %rsi
	setb	%r14b
	cmpq	%rbx, %rdi
	setb	%r11b
	xorl	%edx, %edx
	testb	%r13b, %r12b
	jne	LBB86_165
	andb	%r9b, %r15b
	movq	-48(%rbp), %rbx
	jne	LBB86_75
	andb	%r11b, %r14b
	jne	LBB86_75
	movq	%r10, %rdx
	andq	$-16, %rdx
	leaq	-16(%rdx), %rbx
	movq	%rbx, %rcx
	shrq	$4, %rcx
	incq	%rcx
	movl	%ecx, %r9d
	andl	$1, %r9d
	testq	%rbx, %rbx
	je	LBB86_163
	movq	%r9, %rbx
	subq	%rcx, %rbx
	xorl	%ecx, %ecx
	vpcmpeqd	%ymm0, %ymm0, %ymm0
	.p2align	4, 0x90
LBB86_97:
	vpxor	(%rdi,%rcx,4), %ymm0, %ymm1
	vpxor	32(%rdi,%rcx,4), %ymm0, %ymm2
	vpor	(%rax,%rcx,4), %ymm1, %ymm3
	vpor	32(%rax,%rcx,4), %ymm2, %ymm4
	vmovdqu	%ymm3, (%rax,%rcx,4)
	vmovdqu	%ymm4, 32(%rax,%rcx,4)
	vpor	(%rsi,%rcx,4), %ymm1, %ymm1
	vpor	32(%rsi,%rcx,4), %ymm2, %ymm2
	vmovdqu	%ymm1, (%rsi,%rcx,4)
	vmovdqu	%ymm2, 32(%rsi,%rcx,4)
	vpxor	64(%rdi,%rcx,4), %ymm0, %ymm1
	vpxor	96(%rdi,%rcx,4), %ymm0, %ymm2
	vpor	64(%rax,%rcx,4), %ymm1, %ymm3
	vpor	96(%rax,%rcx,4), %ymm2, %ymm4
	vmovdqu	%ymm3, 64(%rax,%rcx,4)
	vmovdqu	%ymm4, 96(%rax,%rcx,4)
	vpor	64(%rsi,%rcx,4), %ymm1, %ymm1
	vpor	96(%rsi,%rcx,4), %ymm2, %ymm2
	vmovdqu	%ymm1, 64(%rsi,%rcx,4)
	vmovdqu	%ymm2, 96(%rsi,%rcx,4)
	addq	$32, %rcx
	addq	$2, %rbx
	jne	LBB86_97
	testq	%r9, %r9
	je	LBB86_100
LBB86_99:
	vpcmpeqd	%ymm0, %ymm0, %ymm0
	vpxor	(%rdi,%rcx,4), %ymm0, %ymm1
	vpxor	32(%rdi,%rcx,4), %ymm0, %ymm0
	vpor	(%rax,%rcx,4), %ymm1, %ymm2
	vpor	32(%rax,%rcx,4), %ymm0, %ymm3
	vmovdqu	%ymm2, (%rax,%rcx,4)
	vmovdqu	%ymm3, 32(%rax,%rcx,4)
	vpor	(%rsi,%rcx,4), %ymm1, %ymm1
	vpor	32(%rsi,%rcx,4), %ymm0, %ymm0
	vmovdqu	%ymm1, (%rsi,%rcx,4)
	vmovdqu	%ymm0, 32(%rsi,%rcx,4)
LBB86_100:
	cmpq	%rdx, %r10
	movq	-48(%rbp), %rbx
	jne	LBB86_75
	jmp	LBB86_76
LBB86_101:
	leaq	(%rsi,%r10), %rcx
	leaq	(%rdi,%rcx,4), %rcx
	cmpq	%rcx, %rax
	jae	LBB86_104
	leaq	(%rax,%rsi,4), %rcx
	cmpq	%rcx, %r11
	jae	LBB86_104
	xorl	%ebx, %ebx
	jmp	LBB86_110
LBB86_104:
	movabsq	$4611686018427387872, %rbx
	andq	%rsi, %rbx
	leaq	-32(%rbx), %rdx
	movq	%rdx, %rcx
	shrq	$5, %rcx
	incq	%rcx
	movl	%ecx, %r8d
	andl	$1, %r8d
	testq	%rdx, %rdx
	je	LBB86_164
	subq	%r8, %rcx
	leaq	(%rdi,%r10,4), %rdx
	addq	$224, %rdx
	xorl	%edi, %edi
	.p2align	4, 0x90
LBB86_106:
	vmovups	(%rax,%rdi,4), %ymm0
	vmovups	32(%rax,%rdi,4), %ymm1
	vmovups	64(%rax,%rdi,4), %ymm2
	vmovups	96(%rax,%rdi,4), %ymm3
	vorps	-224(%rdx,%rdi,4), %ymm0, %ymm0
	vorps	-192(%rdx,%rdi,4), %ymm1, %ymm1
	vorps	-160(%rdx,%rdi,4), %ymm2, %ymm2
	vorps	-128(%rdx,%rdi,4), %ymm3, %ymm3
	vmovups	%ymm0, (%rax,%rdi,4)
	vmovups	%ymm1, 32(%rax,%rdi,4)
	vmovups	%ymm2, 64(%rax,%rdi,4)
	vmovups	%ymm3, 96(%rax,%rdi,4)
	vmovdqu	128(%rax,%rdi,4), %ymm0
	vmovdqu	160(%rax,%rdi,4), %ymm1
	vmovdqu	192(%rax,%rdi,4), %ymm2
	vmovdqu	224(%rax,%rdi,4), %ymm3
	vpor	-96(%rdx,%rdi,4), %ymm0, %ymm0
	vpor	-64(%rdx,%rdi,4), %ymm1, %ymm1
	vpor	-32(%rdx,%rdi,4), %ymm2, %ymm2
	vpor	(%rdx,%rdi,4), %ymm3, %ymm3
	vmovdqu	%ymm0, 128(%rax,%rdi,4)
	vmovdqu	%ymm1, 160(%rax,%rdi,4)
	vmovdqu	%ymm2, 192(%rax,%rdi,4)
	vmovdqu	%ymm3, 224(%rax,%rdi,4)
	addq	$64, %rdi
	addq	$-2, %rcx
	jne	LBB86_106
	testq	%r8, %r8
	je	LBB86_109
LBB86_108:
	vmovdqu	(%rax,%rdi,4), %ymm0
	vmovdqu	32(%rax,%rdi,4), %ymm1
	vmovdqu	64(%rax,%rdi,4), %ymm2
	vmovdqu	96(%rax,%rdi,4), %ymm3
	vpor	(%r11,%rdi,4), %ymm0, %ymm0
	vpor	32(%r11,%rdi,4), %ymm1, %ymm1
	vpor	64(%r11,%rdi,4), %ymm2, %ymm2
	vpor	96(%r11,%rdi,4), %ymm3, %ymm3
	vmovdqu	%ymm0, (%rax,%rdi,4)
	vmovdqu	%ymm1, 32(%rax,%rdi,4)
	vmovdqu	%ymm2, 64(%rax,%rdi,4)
	vmovdqu	%ymm3, 96(%rax,%rdi,4)
LBB86_109:
	cmpq	%rbx, %rsi
	je	LBB86_111
	.p2align	4, 0x90
LBB86_110:
	movl	(%r11,%rbx,4), %ecx
	orl	%ecx, (%rax,%rbx,4)
	incq	%rbx
	cmpq	%rsi, %rbx
	jb	LBB86_110
LBB86_111:
	shlq	$2, %r9
	xorl	%ecx, %ecx
	.p2align	4, 0x90
LBB86_112:
	cmpq	%rcx, %r9
	je	LBB86_115
	cmpl	$-1, (%rax,%rcx)
	leaq	4(%rcx), %rcx
	je	LBB86_112
	xorl	%ecx, %ecx
	jmp	LBB86_116
LBB86_115:
	movb	$1, %cl
LBB86_116:
	testb	%r12b, %r12b
	setne	%al
	andb	%cl, %al
	movb	%al, -128(%rbp)
	vmovups	-240(%rbp), %ymm0
	vmovdqu	-208(%rbp), %ymm1
	vmovups	%ymm0, -384(%rbp)
	vmovdqu	%ymm1, -352(%rbp)
	vmovups	-176(%rbp), %ymm0
	vmovups	%ymm0, -320(%rbp)
	vmovdqu	-152(%rbp), %xmm0
	vmovdqu	%xmm0, -296(%rbp)
	movq	-136(%rbp), %rax
	movq	%rax, -280(%rbp)
	movb	-128(%rbp), %al
	movb	%al, -272(%rbp)
	movl	-127(%rbp), %eax
	movl	%eax, -271(%rbp)
	movzwl	-123(%rbp), %eax
	movw	%ax, -267(%rbp)
	movb	-121(%rbp), %al
	movb	%al, -265(%rbp)
	cmpb	$0, -272(%rbp)
	je	LBB86_130
LBB86_117:
	movq	-368(%rbp), %rsi
	testq	%rsi, %rsi
	je	LBB86_121
	movq	-376(%rbp), %rdi
	testq	%rdi, %rdi
	je	LBB86_121
	shlq	$2, %rsi
	testq	%rsi, %rsi
	je	LBB86_121
	movl	$4, %edx
	vzeroupper
	callq	___rust_dealloc
LBB86_121:
	movq	-328(%rbp), %rsi
	testq	%rsi, %rsi
	movq	-48(%rbp), %rbx
	je	LBB86_125
	movq	-336(%rbp), %rdi
	testq	%rdi, %rdi
	je	LBB86_125
	shlq	$2, %rsi
	testq	%rsi, %rsi
	je	LBB86_125
	movl	$4, %edx
	vzeroupper
	callq	___rust_dealloc
LBB86_125:
	movq	-296(%rbp), %rsi
	testq	%rsi, %rsi
	je	LBB86_129
	movq	-304(%rbp), %rdi
	testq	%rdi, %rdi
	je	LBB86_129
	shlq	$2, %rsi
	testq	%rsi, %rsi
	je	LBB86_129
	movl	$4, %edx
	vzeroupper
	callq	___rust_dealloc
LBB86_129:
	movq	64(%rbx), %rcx
	movq	-400(%rbp), %rax
	movq	%rcx, 64(%rax)
	vmovups	(%rbx), %ymm0
	vmovups	32(%rbx), %ymm1
	vmovups	%ymm1, 32(%rax)
	vmovups	%ymm0, (%rax)
	addq	$408, %rsp
	popq	%rbx
	popq	%r12
	popq	%r13
	popq	%r14
	popq	%r15
	popq	%rbp
	vzeroupper
	retq
LBB86_130:
	leaq	l___unnamed_61(%rip), %rax
	movq	%rax, -240(%rbp)
	movq	$1, -232(%rbp)
	movq	$0, -224(%rbp)
	leaq	l___unnamed_10(%rip), %rax
	movq	%rax, -208(%rbp)
	movq	$0, -200(%rbp)
Ltmp137:
	leaq	-240(%rbp), %rdi
	vzeroupper
	callq	__ZN3std2io5stdio6_print17hdea2154009b9e479E
Ltmp138:
	movq	-384(%rbp), %rax
	movq	16(%rax), %rsi
	testq	%rsi, %rsi
	je	LBB86_117
	movq	%rax, -392(%rbp)
	movq	(%rax), %rcx
	movq	-280(%rbp), %r13
	movq	-288(%rbp), %r11
	movq	-304(%rbp), %r9
	movq	-312(%rbp), %rax
	movq	%rax, -248(%rbp)
	movq	-336(%rbp), %rax
	movq	%rax, -416(%rbp)
	movq	-320(%rbp), %rax
	movq	%rax, -408(%rbp)
	xorl	%eax, %eax
	xorl	%r8d, %r8d
	movl	48(%rcx), %ebx
	cmpq	%rbx, %r13
	ja	LBB86_135
	jmp	LBB86_189
	.p2align	4, 0x90
LBB86_133:
	incq	%rax
	incq	%r8
	addq	$56, %rcx
	cmpq	%r8, %rsi
	je	LBB86_154
LBB86_134:
	movl	48(%rcx), %ebx
	cmpq	%rbx, %r13
	jbe	LBB86_189
LBB86_135:
	movq	%rbx, %rdx
	shrq	$5, %rdx
	cmpq	%rdx, %r11
	jbe	LBB86_189
	movl	40(%rcx), %r14d
	movl	(%r9,%rdx,4), %edx
	btl	%ebx, %edx
	movq	__ZN7bit_vec5FALSE17h81f8c71b91ea5861E@GOTPCREL(%rip), %rdx
	movzbl	(%rdx), %r15d
	movq	__ZN7bit_vec4TRUE17h9e81f12c3ac5e60bE@GOTPCREL(%rip), %rdx
	movzbl	(%rdx), %edx
	movl	%edx, %edi
	cmovael	%r15d, %edi
	testb	%dil, %dil
	sete	%r12b
	negb	%r12b
	testb	%dil, %dil
	je	LBB86_147
	movl	44(%rcx), %r10d
	testl	%r10d, %r10d
	je	LBB86_147
	movl	52(%rcx), %ebx
	cmpq	%rbx, %r13
	jbe	LBB86_189
	movq	%rbx, %rdi
	shrq	$5, %rdi
	cmpq	%rdi, %r11
	jbe	LBB86_189
	movl	(%r9,%rdi,4), %edi
	btl	%ebx, %edi
	movl	%edx, %edi
	cmovael	%r15d, %edi
	testb	%dil, %dil
	sete	%r12b
	negb	%r12b
	testb	%dil, %dil
	je	LBB86_147
	testl	%r10d, %r10d
	jne	LBB86_147
	movl	56(%rcx), %ebx
	cmpq	%rbx, %r13
	jbe	LBB86_189
	movq	%rbx, %rdi
	shrq	$5, %rdi
	cmpq	%rdi, %r11
	jbe	LBB86_189
	movl	(%r9,%rdi,4), %edi
	btl	%ebx, %edi
	movl	%edx, %edi
	cmovael	%r15d, %edi
	movb	$1, %r12b
	testb	%dil, %dil
	je	LBB86_147
	movl	60(%rcx), %ebx
	cmpq	%rbx, %r13
	jbe	LBB86_189
	shrq	$5, %rbx
	cmpq	%rbx, %r11
	jbe	LBB86_189
	.p2align	4, 0x90
LBB86_147:
	cmpq	%r14, -248(%rbp)
	jbe	LBB86_190
	movq	%r14, %rdi
	shrq	$5, %rdi
	cmpq	%rdi, -408(%rbp)
	jbe	LBB86_190
	movq	-416(%rbp), %rbx
	movl	(%rbx,%rdi,4), %edi
	btl	%r14d, %edi
	cmovael	%r15d, %edx
	testb	%dl, %dl
	sete	%dl
	orb	%dl, %r12b
	testb	$1, %r12b
	jne	LBB86_133
	testq	%rax, %rax
	je	LBB86_153
	movq	%r8, %rdi
	subq	%rax, %rdi
	cmpq	%rsi, %rdi
	jae	LBB86_191
	imulq	$-56, %rax, %rdx
	vmovups	(%rcx,%rdx), %ymm0
	vmovups	24(%rcx,%rdx), %ymm1
	vmovups	%ymm1, -216(%rbp)
	vmovups	%ymm0, -240(%rbp)
	vmovups	(%rcx), %ymm0
	movq	48(%rcx), %rdi
	vmovups	32(%rcx), %xmm1
	vmovups	%xmm1, 32(%rcx,%rdx)
	movq	%rdi, 48(%rcx,%rdx)
	vmovups	%ymm0, (%rcx,%rdx)
	vmovdqu	-240(%rbp), %ymm0
	vmovdqu	-216(%rbp), %ymm1
	vmovdqu	%ymm0, (%rcx)
	vmovdqu	%ymm1, 24(%rcx)
	incq	%r8
	addq	$56, %rcx
	cmpq	%r8, %rsi
	jne	LBB86_134
	jmp	LBB86_154
LBB86_153:
	xorl	%eax, %eax
	incq	%r8
	addq	$56, %rcx
	cmpq	%r8, %rsi
	jne	LBB86_134
LBB86_154:
	testq	%rax, %rax
	movq	-392(%rbp), %rdx
	je	LBB86_117
	subq	%rax, %rsi
	movq	16(%rdx), %rax
	cmpq	%rsi, %rax
	jb	LBB86_117
	movq	(%rdx), %rcx
	movq	%rsi, 16(%rdx)
	cmpq	%rsi, %rax
	je	LBB86_117
	imulq	$56, %rax, %r14
	addq	%rcx, %r14
	imulq	$56, %rsi, %rbx
	addq	%rcx, %rbx
	movq	8(%rbx), %rax
	testq	%rax, %rax
	jne	LBB86_160
	.p2align	4, 0x90
LBB86_158:
	addq	$56, %rbx
	cmpq	%r14, %rbx
	je	LBB86_117
LBB86_159:
	movq	8(%rbx), %rax
	testq	%rax, %rax
	je	LBB86_158
LBB86_160:
	movq	(%rbx), %rdi
	testq	%rdi, %rdi
	je	LBB86_158
	shlq	$2, %rax
	leaq	(%rax,%rax,4), %rsi
	testq	%rsi, %rsi
	je	LBB86_158
	movl	$4, %edx
	vzeroupper
	callq	___rust_dealloc
	addq	$56, %rbx
	cmpq	%r14, %rbx
	jne	LBB86_159
	jmp	LBB86_117
LBB86_163:
	xorl	%ecx, %ecx
	testq	%r9, %r9
	jne	LBB86_99
	jmp	LBB86_100
LBB86_164:
	xorl	%edi, %edi
	testq	%r8, %r8
	jne	LBB86_108
	jmp	LBB86_109
LBB86_165:
	movq	-48(%rbp), %rbx
	jmp	LBB86_75
LBB86_166:
Ltmp80:
	leaq	_str.1(%rip), %rdi
	leaq	l___unnamed_42(%rip), %rdx
	movl	$28, %esi
	callq	__ZN4core9panicking5panic17h736ee47a631475c0E
Ltmp81:
	jmp	LBB86_177
LBB86_167:
	leaq	-80(%rbp), %rax
	movq	%rax, -112(%rbp)
	leaq	__ZN4core3fmt3num52_$LT$impl$u20$core..fmt..Debug$u20$for$u20$usize$GT$3fmt17hd9d2912101c14e43E(%rip), %rax
	movq	%rax, -104(%rbp)
	leaq	-360(%rbp), %rcx
	movq	%rcx, -96(%rbp)
	movq	%rax, -88(%rbp)
	leaq	l___unnamed_62(%rip), %rax
	movq	%rax, -240(%rbp)
	movq	$2, -232(%rbp)
	movq	$0, -224(%rbp)
	leaq	-112(%rbp), %rax
	movq	%rax, -208(%rbp)
	movq	$2, -200(%rbp)
Ltmp98:
	leaq	l___unnamed_63(%rip), %rsi
	leaq	-240(%rbp), %rdi
	callq	__ZN3std9panicking15begin_panic_fmt17h2e6dba6f5c07d155E
Ltmp99:
	jmp	LBB86_177
LBB86_168:
Ltmp100:
	leaq	l___unnamed_64(%rip), %rdx
	callq	__ZN4core9panicking18panic_bounds_check17habe69d236c55e3edE
Ltmp101:
	jmp	LBB86_177
LBB86_169:
Ltmp102:
	leaq	_str.1(%rip), %rdi
	leaq	l___unnamed_65(%rip), %rdx
	movl	$28, %esi
	callq	__ZN4core9panicking5panic17h736ee47a631475c0E
Ltmp103:
	jmp	LBB86_177
LBB86_170:
Ltmp104:
	leaq	_str.0(%rip), %rdi
	leaq	l___unnamed_65(%rip), %rdx
	movl	$33, %esi
	callq	__ZN4core9panicking5panic17h736ee47a631475c0E
Ltmp105:
	jmp	LBB86_177
LBB86_171:
Ltmp106:
	leaq	_str.1(%rip), %rdi
	leaq	l___unnamed_37(%rip), %rdx
	movl	$28, %esi
	callq	__ZN4core9panicking5panic17h736ee47a631475c0E
Ltmp107:
	jmp	LBB86_177
LBB86_172:
	leaq	-256(%rbp), %rax
	movq	%rax, -80(%rbp)
	leaq	__ZN4core3fmt3num52_$LT$impl$u20$core..fmt..Debug$u20$for$u20$usize$GT$3fmt17hd9d2912101c14e43E(%rip), %rax
	movq	%rax, -72(%rbp)
	movq	%r8, -64(%rbp)
	movq	%rax, -56(%rbp)
	leaq	l___unnamed_62(%rip), %rax
	movq	%rax, -240(%rbp)
	movq	$2, -232(%rbp)
	movq	$0, -224(%rbp)
	leaq	-80(%rbp), %rax
	movq	%rax, -208(%rbp)
	movq	$2, -200(%rbp)
Ltmp129:
	leaq	l___unnamed_63(%rip), %rsi
	leaq	-240(%rbp), %rdi
	callq	__ZN3std9panicking15begin_panic_fmt17h2e6dba6f5c07d155E
Ltmp130:
	jmp	LBB86_177
LBB86_173:
Ltmp131:
	leaq	l___unnamed_64(%rip), %rdx
	callq	__ZN4core9panicking18panic_bounds_check17habe69d236c55e3edE
Ltmp132:
	jmp	LBB86_177
LBB86_174:
Ltmp69:
	leaq	_str.1(%rip), %rdi
	leaq	l___unnamed_42(%rip), %rdx
	movl	$28, %esi
	callq	__ZN4core9panicking5panic17h736ee47a631475c0E
Ltmp70:
	jmp	LBB86_177
LBB86_175:
Ltmp92:
	leaq	_str.1(%rip), %rdi
	leaq	l___unnamed_42(%rip), %rdx
	movl	$28, %esi
	callq	__ZN4core9panicking5panic17h736ee47a631475c0E
Ltmp93:
	jmp	LBB86_177
LBB86_176:
Ltmp123:
	leaq	_str.1(%rip), %rdi
	leaq	l___unnamed_42(%rip), %rdx
	movl	$28, %esi
	callq	__ZN4core9panicking5panic17h736ee47a631475c0E
Ltmp124:
LBB86_177:
	ud2
LBB86_178:
	leaq	-112(%rbp), %rax
	movq	%rax, -80(%rbp)
	leaq	__ZN4core3fmt3num52_$LT$impl$u20$core..fmt..Debug$u20$for$u20$usize$GT$3fmt17hd9d2912101c14e43E(%rip), %rax
	movq	%rax, -72(%rbp)
	movq	%r15, -64(%rbp)
	movq	%rax, -56(%rbp)
	leaq	l___unnamed_62(%rip), %rax
	movq	%rax, -240(%rbp)
	movq	$2, -232(%rbp)
	movq	$0, -224(%rbp)
	leaq	-80(%rbp), %rax
	movq	%rax, -208(%rbp)
	movq	$2, -200(%rbp)
Ltmp71:
	leaq	l___unnamed_63(%rip), %rsi
	leaq	-240(%rbp), %rdi
	callq	__ZN3std9panicking15begin_panic_fmt17h2e6dba6f5c07d155E
Ltmp72:
	jmp	LBB86_177
LBB86_179:
Ltmp73:
	leaq	l___unnamed_66(%rip), %rdx
	callq	__ZN4core9panicking18panic_bounds_check17habe69d236c55e3edE
Ltmp74:
	jmp	LBB86_177
LBB86_180:
	leaq	-112(%rbp), %rax
	movq	%rax, -80(%rbp)
	leaq	__ZN4core3fmt3num52_$LT$impl$u20$core..fmt..Debug$u20$for$u20$usize$GT$3fmt17hd9d2912101c14e43E(%rip), %rax
	movq	%rax, -72(%rbp)
	leaq	-360(%rbp), %rcx
	movq	%rcx, -64(%rbp)
	movq	%rax, -56(%rbp)
	leaq	l___unnamed_62(%rip), %rax
	movq	%rax, -240(%rbp)
	movq	$2, -232(%rbp)
	movq	$0, -224(%rbp)
	leaq	-80(%rbp), %rax
	movq	%rax, -208(%rbp)
	movq	$2, -200(%rbp)
Ltmp94:
	leaq	l___unnamed_63(%rip), %rsi
	leaq	-240(%rbp), %rdi
	callq	__ZN3std9panicking15begin_panic_fmt17h2e6dba6f5c07d155E
Ltmp95:
	jmp	LBB86_177
LBB86_181:
Ltmp96:
	leaq	l___unnamed_64(%rip), %rdx
	callq	__ZN4core9panicking18panic_bounds_check17habe69d236c55e3edE
Ltmp97:
	jmp	LBB86_177
LBB86_182:
Ltmp108:
	leaq	_str.1(%rip), %rdi
	leaq	l___unnamed_65(%rip), %rdx
	movl	$28, %esi
	callq	__ZN4core9panicking5panic17h736ee47a631475c0E
Ltmp109:
	jmp	LBB86_177
LBB86_183:
Ltmp110:
	leaq	_str.0(%rip), %rdi
	leaq	l___unnamed_65(%rip), %rdx
	movl	$33, %esi
	callq	__ZN4core9panicking5panic17h736ee47a631475c0E
Ltmp111:
	jmp	LBB86_177
LBB86_184:
Ltmp112:
	leaq	_str.1(%rip), %rdi
	leaq	l___unnamed_37(%rip), %rdx
	movl	$28, %esi
	callq	__ZN4core9panicking5panic17h736ee47a631475c0E
Ltmp113:
	jmp	LBB86_177
LBB86_185:
	leaq	-256(%rbp), %rax
	movq	%rax, -80(%rbp)
	leaq	__ZN4core3fmt3num52_$LT$impl$u20$core..fmt..Debug$u20$for$u20$usize$GT$3fmt17hd9d2912101c14e43E(%rip), %rax
	movq	%rax, -72(%rbp)
	movq	%r8, -64(%rbp)
	movq	%rax, -56(%rbp)
	leaq	l___unnamed_62(%rip), %rax
	movq	%rax, -240(%rbp)
	movq	$2, -232(%rbp)
	movq	$0, -224(%rbp)
	leaq	-80(%rbp), %rax
	movq	%rax, -208(%rbp)
	movq	$2, -200(%rbp)
Ltmp125:
	leaq	l___unnamed_63(%rip), %rsi
	leaq	-240(%rbp), %rdi
	callq	__ZN3std9panicking15begin_panic_fmt17h2e6dba6f5c07d155E
Ltmp126:
	jmp	LBB86_177
LBB86_186:
Ltmp127:
	leaq	l___unnamed_64(%rip), %rdx
	callq	__ZN4core9panicking18panic_bounds_check17habe69d236c55e3edE
Ltmp128:
	jmp	LBB86_177
LBB86_187:
	leaq	-112(%rbp), %rax
	movq	%rax, -80(%rbp)
	leaq	__ZN4core3fmt3num52_$LT$impl$u20$core..fmt..Debug$u20$for$u20$usize$GT$3fmt17hd9d2912101c14e43E(%rip), %rax
	movq	%rax, -72(%rbp)
	movq	%r15, -64(%rbp)
	movq	%rax, -56(%rbp)
	leaq	l___unnamed_62(%rip), %rax
	movq	%rax, -240(%rbp)
	movq	$2, -232(%rbp)
	movq	$0, -224(%rbp)
	leaq	-80(%rbp), %rax
	movq	%rax, -208(%rbp)
	movq	$2, -200(%rbp)
Ltmp76:
	leaq	l___unnamed_63(%rip), %rsi
	leaq	-240(%rbp), %rdi
	callq	__ZN3std9panicking15begin_panic_fmt17h2e6dba6f5c07d155E
Ltmp77:
	jmp	LBB86_177
LBB86_188:
Ltmp78:
	leaq	l___unnamed_64(%rip), %rdx
	callq	__ZN4core9panicking18panic_bounds_check17habe69d236c55e3edE
Ltmp79:
	jmp	LBB86_177
LBB86_189:
Ltmp139:
	leaq	l___unnamed_50(%rip), %rdi
	leaq	l___unnamed_67(%rip), %rdx
	movl	$19, %esi
	vzeroupper
	callq	__ZN4core6option13expect_failed17h68bd601d867bb8d1E
Ltmp140:
	jmp	LBB86_177
LBB86_190:
Ltmp141:
	leaq	l___unnamed_50(%rip), %rdi
	leaq	l___unnamed_68(%rip), %rdx
	movl	$19, %esi
	vzeroupper
	callq	__ZN4core6option13expect_failed17h68bd601d867bb8d1E
Ltmp142:
	jmp	LBB86_177
LBB86_191:
Ltmp143:
	leaq	l___unnamed_69(%rip), %rdx
	vzeroupper
	callq	__ZN4core9panicking18panic_bounds_check17habe69d236c55e3edE
Ltmp144:
	jmp	LBB86_177
LBB86_192:
Ltmp157:
	leaq	l___unnamed_35(%rip), %rdi
	leaq	l___unnamed_59(%rip), %rdx
	movl	$43, %esi
	callq	__ZN4core9panicking5panic17h736ee47a631475c0E
Ltmp158:
	jmp	LBB86_177
LBB86_193:
Ltmp154:
	leaq	_str.1(%rip), %rdi
	leaq	l___unnamed_37(%rip), %rdx
	movl	$28, %esi
	vzeroupper
	callq	__ZN4core9panicking5panic17h736ee47a631475c0E
Ltmp155:
	jmp	LBB86_177
LBB86_194:
Ltmp152:
	leaq	_str.0(%rip), %rdi
	leaq	l___unnamed_70(%rip), %rdx
	movl	$33, %esi
	vzeroupper
	callq	__ZN4core9panicking5panic17h736ee47a631475c0E
Ltmp153:
	jmp	LBB86_177
LBB86_195:
Ltmp150:
	leaq	_str.0(%rip), %rdi
	leaq	l___unnamed_70(%rip), %rdx
	movl	$33, %esi
	vzeroupper
	callq	__ZN4core9panicking5panic17h736ee47a631475c0E
Ltmp151:
	jmp	LBB86_177
LBB86_196:
Ltmp148:
	leaq	l___unnamed_70(%rip), %rdx
	movq	%r10, %rdi
	movq	%rax, %rsi
	vzeroupper
	callq	__ZN4core5slice22slice_index_order_fail17h85b430a3a039f0a8E
Ltmp149:
	jmp	LBB86_177
LBB86_197:
Ltmp146:
	leaq	l___unnamed_70(%rip), %rdx
	movq	%rax, %rdi
	vzeroupper
	callq	__ZN4core5slice20slice_index_len_fail17h550a313151a85135E
Ltmp147:
	jmp	LBB86_177
LBB86_198:
Ltmp156:
	movq	%rax, %r15
	movq	%r14, %rdi
	callq	__ZN4core3ptr13drop_in_place17h2a9af822d3a87480E
	movq	%rbx, %rdi
	callq	__ZN4core3ptr13drop_in_place17h2a9af822d3a87480E
	movq	%r13, %rdi
	jmp	LBB86_217
LBB86_199:
Ltmp75:
	jmp	LBB86_201
LBB86_200:
Ltmp82:
LBB86_201:
	movq	%rax, %r15
	leaq	-384(%rbp), %rdi
	jmp	LBB86_217
LBB86_202:
Ltmp133:
	movq	%rax, %r15
	leaq	-112(%rbp), %rdi
	jmp	LBB86_206
LBB86_203:
Ltmp114:
	movq	%rax, %r15
	jmp	LBB86_208
LBB86_204:
Ltmp145:
	movq	%rax, %r15
	leaq	-384(%rbp), %rdi
	callq	__ZN4core3ptr13drop_in_place17haaa0995d8a55ccb2E
	jmp	LBB86_218
LBB86_205:
Ltmp136:
	movq	%rax, %r15
	leaq	-80(%rbp), %rdi
LBB86_206:
	callq	__ZN4core3ptr13drop_in_place17h2a9af822d3a87480E
	jmp	LBB86_208
LBB86_207:
Ltmp122:
	movq	%rax, %r15
LBB86_208:
	leaq	-384(%rbp), %rdi
	jmp	LBB86_215
LBB86_209:
Ltmp91:
	movq	%rax, %r15
	jmp	LBB86_216
LBB86_210:
Ltmp88:
	movq	%rax, %r15
	leaq	-240(%rbp), %rdi
	callq	__ZN4core3ptr13drop_in_place17he9cf327bc2a3f203E
	jmp	LBB86_212
LBB86_211:
Ltmp85:
	movq	%rax, %r15
LBB86_212:
	leaq	-112(%rbp), %rdi
	jmp	LBB86_217
LBB86_213:
Ltmp159:
	movq	%rax, %r15
	jmp	LBB86_218
LBB86_214:
Ltmp119:
	movq	%rax, %r15
	leaq	-240(%rbp), %rdi
LBB86_215:
	callq	__ZN4core3ptr13drop_in_place17h2a9af822d3a87480E
LBB86_216:
	leaq	-448(%rbp), %rdi
LBB86_217:
	callq	__ZN4core3ptr13drop_in_place17h2a9af822d3a87480E
LBB86_218:
	movq	-48(%rbp), %rdi
	callq	__ZN4core3ptr13drop_in_place17h34054cc1d52473a2E
	movq	%r15, %rdi
	callq	__Unwind_Resume
	ud2
Lfunc_end5:
	.cfi_endproc
	.section	__TEXT,__gcc_except_tab
	.p2align	2
GCC_except_table86:
Lexception5:
	.byte	255
	.byte	255
	.byte	1
	.uleb128 Lcst_end5-Lcst_begin5
Lcst_begin5:
	.uleb128 Ltmp67-Lfunc_begin5
	.uleb128 Ltmp68-Ltmp67
	.uleb128 Ltmp159-Lfunc_begin5
	.byte	0
	.uleb128 Ltmp83-Lfunc_begin5
	.uleb128 Ltmp84-Ltmp83
	.uleb128 Ltmp85-Lfunc_begin5
	.byte	0
	.uleb128 Ltmp86-Lfunc_begin5
	.uleb128 Ltmp87-Ltmp86
	.uleb128 Ltmp88-Lfunc_begin5
	.byte	0
	.uleb128 Ltmp89-Lfunc_begin5
	.uleb128 Ltmp90-Ltmp89
	.uleb128 Ltmp91-Lfunc_begin5
	.byte	0
	.uleb128 Ltmp115-Lfunc_begin5
	.uleb128 Ltmp118-Ltmp115
	.uleb128 Ltmp119-Lfunc_begin5
	.byte	0
	.uleb128 Ltmp120-Lfunc_begin5
	.uleb128 Ltmp121-Ltmp120
	.uleb128 Ltmp122-Lfunc_begin5
	.byte	0
	.uleb128 Ltmp134-Lfunc_begin5
	.uleb128 Ltmp135-Ltmp134
	.uleb128 Ltmp136-Lfunc_begin5
	.byte	0
	.uleb128 Ltmp137-Lfunc_begin5
	.uleb128 Ltmp138-Ltmp137
	.uleb128 Ltmp145-Lfunc_begin5
	.byte	0
	.uleb128 Ltmp80-Lfunc_begin5
	.uleb128 Ltmp81-Ltmp80
	.uleb128 Ltmp82-Lfunc_begin5
	.byte	0
	.uleb128 Ltmp98-Lfunc_begin5
	.uleb128 Ltmp107-Ltmp98
	.uleb128 Ltmp114-Lfunc_begin5
	.byte	0
	.uleb128 Ltmp129-Lfunc_begin5
	.uleb128 Ltmp132-Ltmp129
	.uleb128 Ltmp133-Lfunc_begin5
	.byte	0
	.uleb128 Ltmp69-Lfunc_begin5
	.uleb128 Ltmp70-Ltmp69
	.uleb128 Ltmp75-Lfunc_begin5
	.byte	0
	.uleb128 Ltmp92-Lfunc_begin5
	.uleb128 Ltmp93-Ltmp92
	.uleb128 Ltmp114-Lfunc_begin5
	.byte	0
	.uleb128 Ltmp123-Lfunc_begin5
	.uleb128 Ltmp124-Ltmp123
	.uleb128 Ltmp133-Lfunc_begin5
	.byte	0
	.uleb128 Ltmp71-Lfunc_begin5
	.uleb128 Ltmp74-Ltmp71
	.uleb128 Ltmp75-Lfunc_begin5
	.byte	0
	.uleb128 Ltmp94-Lfunc_begin5
	.uleb128 Ltmp113-Ltmp94
	.uleb128 Ltmp114-Lfunc_begin5
	.byte	0
	.uleb128 Ltmp125-Lfunc_begin5
	.uleb128 Ltmp128-Ltmp125
	.uleb128 Ltmp133-Lfunc_begin5
	.byte	0
	.uleb128 Ltmp76-Lfunc_begin5
	.uleb128 Ltmp79-Ltmp76
	.uleb128 Ltmp82-Lfunc_begin5
	.byte	0
	.uleb128 Ltmp139-Lfunc_begin5
	.uleb128 Ltmp144-Ltmp139
	.uleb128 Ltmp145-Lfunc_begin5
	.byte	0
	.uleb128 Ltmp157-Lfunc_begin5
	.uleb128 Ltmp158-Ltmp157
	.uleb128 Ltmp159-Lfunc_begin5
	.byte	0
	.uleb128 Ltmp154-Lfunc_begin5
	.uleb128 Ltmp147-Ltmp154
	.uleb128 Ltmp156-Lfunc_begin5
	.byte	0
	.uleb128 Ltmp147-Lfunc_begin5
	.uleb128 Lfunc_end5-Ltmp147
	.byte	0
	.byte	0
Lcst_end5:
	.p2align	2

	.section	__TEXT,__literal16,16byte_literals
	.p2align	4
LCPI87_0:
	.space	16
	.section	__TEXT,__text,regular,pure_instructions
	.globl	__ZN3cfg6earley17binarized_grammar16BinarizedGrammar17eliminate_nulling17h5b10e1d13434613bE
	.p2align	4, 0x90
__ZN3cfg6earley17binarized_grammar16BinarizedGrammar17eliminate_nulling17h5b10e1d13434613bE:
Lfunc_begin6:
	.cfi_startproc
	.cfi_personality 155, _rust_eh_personality
	.cfi_lsda 16, Lexception6
	pushq	%rbp
	.cfi_def_cfa_offset 16
	.cfi_offset %rbp, -16
	movq	%rsp, %rbp
	.cfi_def_cfa_register %rbp
	pushq	%r15
	pushq	%r14
	pushq	%r13
	pushq	%r12
	pushq	%rbx
	subq	$424, %rsp
	.cfi_offset %rbx, -56
	.cfi_offset %r12, -48
	.cfi_offset %r13, -40
	.cfi_offset %r14, -32
	.cfi_offset %r15, -24
	movq	%rsi, %r13
	movq	%rdi, %rbx
	movl	48(%rsi), %esi
	movl	%esi, -400(%rbp)
	movq	$8, -448(%rbp)
	vxorps	%xmm0, %xmm0, %xmm0
	vmovups	%xmm0, -440(%rbp)
	movq	$8, -424(%rbp)
	vmovups	%xmm0, -416(%rbp)
	movq	24(%r13), %rax
	movq	40(%r13), %rcx
	shlq	$3, %rcx
	leaq	(%rcx,%rcx,4), %rcx
	movq	%rax, %rdx
	movq	%r13, -232(%rbp)
	.p2align	4, 0x90
LBB87_1:
	testq	%rcx, %rcx
	je	LBB87_206
	addq	$-40, %rcx
	cmpl	$2, 24(%rdx)
	leaq	40(%rdx), %rdx
	je	LBB87_1
	vmovups	32(%r13), %xmm0
	vmovaps	%xmm0, -96(%rbp)
	movq	$8, 24(%r13)
	vxorps	%xmm0, %xmm0, %xmm0
	vmovups	%xmm0, 32(%r13)
	movq	%rax, -376(%rbp)
	vmovaps	-96(%rbp), %xmm0
	vmovups	%xmm0, -368(%rbp)
	movl	$2, -72(%rbp)
	subq	-360(%rbp), %rsi
	jb	LBB87_221
	movq	%rbx, -456(%rbp)
	movq	-64(%rbp), %rax
	movq	%rax, -192(%rbp)
	vmovups	-96(%rbp), %ymm0
	vmovups	%ymm0, -224(%rbp)
	movq	%rax, -288(%rbp)
	vmovups	%ymm0, -320(%rbp)
	movq	%rsi, -280(%rbp)
Ltmp160:
	leaq	-376(%rbp), %rdi
	vzeroupper
	callq	__ZN5alloc3vec12Vec$LT$T$GT$7reserve17h3143453b9f86f87eE
Ltmp161:
	movq	-360(%rbp), %r9
	leaq	(%r9,%r9,4), %r12
	shlq	$3, %r12
	addq	-376(%rbp), %r12
	vmovups	-304(%rbp), %ymm0
	vmovups	%ymm0, -80(%rbp)
	vmovups	-320(%rbp), %ymm0
	vmovups	%ymm0, -96(%rbp)
	movq	-56(%rbp), %rcx
	testq	%rcx, %rcx
	je	LBB87_19
	leaq	-360(%rbp), %rax
	leaq	-56(%rbp), %rdx
	movq	%rdx, -352(%rbp)
	movq	%r12, -344(%rbp)
	movq	%rax, -336(%rbp)
	movq	%r9, -328(%rbp)
	movl	-72(%rbp), %r14d
	movl	$2, %esi
	cmpl	$2, %r14d
	je	LBB87_17
	jmp	LBB87_8
	.p2align	4, 0x90
LBB87_16:
	movq	-144(%rbp), %rbx
	leaq	(%rbx,%rbx,4), %rdi
	shlq	$2, %rdi
	addq	-160(%rbp), %rdi
	movq	-128(%rbp), %rsi
	movq	%r15, %rdx
	callq	_memcpy
	addq	%rbx, %r13
	movq	%r13, -240(%rbp)
	vmovups	-160(%rbp), %xmm0
	vmovaps	%xmm0, -256(%rbp)
	movl	-68(%rbp), %edx
	movl	-64(%rbp), %r8d
	xorl	%esi, %esi
	cmpl	$1, %r14d
	sete	%sil
	movb	-60(%rbp), %bl
	movl	%ebx, %ecx
	andb	$1, %cl
	cmpb	$2, %bl
	movzbl	%cl, %edi
	movl	$2, %eax
	cmovel	%eax, %edi
	movzwl	-160(%rbp), %ecx
	movw	%cx, -120(%rbp)
	movb	-158(%rbp), %cl
	movb	%cl, -118(%rbp)
	movq	-56(%rbp), %rcx
	movq	-112(%rbp), %r9
LBB87_17:
	movq	-240(%rbp), %rbx
	movq	%rbx, -144(%rbp)
	vmovaps	-256(%rbp), %xmm0
	vmovaps	%xmm0, -160(%rbp)
	movzwl	-120(%rbp), %eax
	movw	%ax, -116(%rbp)
	movzbl	-118(%rbp), %eax
	movb	%al, -114(%rbp)
	decq	%rcx
	movq	%rcx, -56(%rbp)
	movq	%rbx, 16(%r12)
	vmovups	%xmm0, (%r12)
	movl	%esi, 24(%r12)
	movl	%edx, 28(%r12)
	movl	%r8d, 32(%r12)
	movb	%dil, 36(%r12)
	movzwl	-116(%rbp), %eax
	movw	%ax, 37(%r12)
	movzbl	-114(%rbp), %eax
	movb	%al, 39(%r12)
	addq	$40, %r12
	incq	%r9
	movq	-56(%rbp), %rcx
	testq	%rcx, %rcx
	je	LBB87_18
	movl	-72(%rbp), %r14d
	movl	$2, %esi
	cmpl	$2, %r14d
	je	LBB87_17
LBB87_8:
	movq	%r9, -112(%rbp)
	movq	-80(%rbp), %r13
	xorl	%ebx, %ebx
	movq	%r13, %rax
	movl	$20, %ecx
	mulq	%rcx
	movq	%rax, %r15
	setno	%al
	jo	LBB87_9
	movq	-96(%rbp), %rcx
	movq	%rcx, -128(%rbp)
	movb	%al, %bl
	shlq	$2, %rbx
	testq	%r15, %r15
	je	LBB87_13
	movq	%r15, %rdi
	movq	%rbx, %rsi
	vzeroupper
	callq	___rust_alloc
	movq	%rax, %rcx
	testq	%rcx, %rcx
	jne	LBB87_15
	jmp	LBB87_229
LBB87_13:
	movq	%rbx, %rcx
	testq	%rcx, %rcx
	je	LBB87_229
LBB87_15:
	movq	%r15, %rax
	movabsq	$-3689348814741910323, %rdx
	mulq	%rdx
	shrq	$4, %rdx
	movq	%rcx, -160(%rbp)
	movq	%rdx, -152(%rbp)
	movq	$0, -144(%rbp)
Ltmp163:
	leaq	-160(%rbp), %rdi
	movq	%r13, %rsi
	vzeroupper
	callq	__ZN5alloc3vec12Vec$LT$T$GT$7reserve17hd253ad3989e49a56E
Ltmp164:
	jmp	LBB87_16
LBB87_18:
	movq	%r9, -360(%rbp)
LBB87_19:
	cmpl	$2, -72(%rbp)
	je	LBB87_24
	movq	-88(%rbp), %rax
	testq	%rax, %rax
	je	LBB87_24
	movq	-96(%rbp), %rdi
	testq	%rdi, %rdi
	je	LBB87_24
	shlq	$2, %rax
	leaq	(%rax,%rax,4), %rsi
	testq	%rsi, %rsi
	je	LBB87_24
	movl	$4, %edx
	vzeroupper
	callq	___rust_dealloc
	movq	-360(%rbp), %r9
LBB87_24:
	movq	-376(%rbp), %r15
	leaq	(,%r9,8), %rax
	leaq	(%rax,%rax,4), %r12
	movq	$4, -224(%rbp)
	vxorps	%xmm0, %xmm0, %xmm0
	vmovups	%xmm0, -216(%rbp)
	movq	$0, -200(%rbp)
	testq	%r12, %r12
	je	LBB87_26
	movq	%r9, %rsi
	shrq	$5, %rsi
	andl	$31, %r9d
	cmpq	$1, %r9
	sbbq	$-1, %rsi
Ltmp169:
	leaq	-224(%rbp), %rdi
	vzeroupper
	callq	__ZN5alloc3vec12Vec$LT$T$GT$7reserve17h35d1e0dc15cd4847E
Ltmp170:
LBB87_26:
	leaq	(%r15,%r12), %rax
	cmpq	%rax, %r15
	je	LBB87_47
	xorl	%ebx, %ebx
	movl	$1, %r13d
	movl	24(%r15,%rbx), %r14d
	movq	-200(%rbp), %rax
	testb	$31, %al
	jne	LBB87_33
	jmp	LBB87_29
	.p2align	4, 0x90
LBB87_43:
	cmpq	%rdi, %rsi
	jbe	LBB87_44
	movq	-224(%rbp), %rcx
	orl	(%rcx,%rdi,4), %eax
	movl	%eax, (%rcx,%rdi,4)
	addq	$40, %rbx
	cmpq	%rbx, %r12
	je	LBB87_47
LBB87_28:
	movl	24(%r15,%rbx), %r14d
	movq	-200(%rbp), %rax
	testb	$31, %al
	jne	LBB87_33
LBB87_29:
	movq	-208(%rbp), %rax
	cmpq	-216(%rbp), %rax
	jne	LBB87_32
Ltmp172:
	movl	$1, %esi
	leaq	-224(%rbp), %rdi
	vzeroupper
	callq	__ZN5alloc3vec12Vec$LT$T$GT$7reserve17h35d1e0dc15cd4847E
Ltmp173:
	movq	-208(%rbp), %rax
LBB87_32:
	movq	-224(%rbp), %rcx
	movl	$0, (%rcx,%rax,4)
	incq	-208(%rbp)
	movq	-200(%rbp), %rax
LBB87_33:
	movq	%rax, %rcx
	incq	%rcx
	je	LBB87_34
	movq	%rcx, -200(%rbp)
	movq	%rax, -352(%rbp)
	cmpq	%rax, %rcx
	jbe	LBB87_41
	movq	%rax, %rdi
	shrq	$5, %rdi
	shlxl	%eax, %r13d, %eax
	movq	-208(%rbp), %rsi
	cmpl	$2, %r14d
	jne	LBB87_43
	cmpq	%rdi, %rsi
	jbe	LBB87_40
	movq	-224(%rbp), %rcx
	andnl	(%rcx,%rdi,4), %eax, %eax
	movl	%eax, (%rcx,%rdi,4)
	addq	$40, %rbx
	cmpq	%rbx, %r12
	jne	LBB87_28
LBB87_47:
	vmovups	-224(%rbp), %ymm0
	vmovups	%ymm0, -352(%rbp)
	movq	-232(%rbp), %r13
	movl	48(%r13), %esi
Ltmp184:
	leaq	-224(%rbp), %rdi
	movl	$1, %edx
	vzeroupper
	callq	__ZN7bit_vec6BitVec9from_elem17hd3ec0eb92116818aE
Ltmp185:
	movq	-360(%rbp), %rax
	movq	%rax, -80(%rbp)
	vmovups	-376(%rbp), %xmm0
	vmovaps	%xmm0, -96(%rbp)
	movq	-424(%rbp), %r15
	movq	-408(%rbp), %rax
	testq	%rax, %rax
	je	LBB87_57
	shlq	$3, %rax
	leaq	(%rax,%rax,4), %r14
	xorl	%ebx, %ebx
	cmpl	$2, 24(%r15,%rbx)
	jne	LBB87_51
	.p2align	4, 0x90
LBB87_55:
	addq	$40, %rbx
	cmpq	%rbx, %r14
	je	LBB87_56
LBB87_50:
	cmpl	$2, 24(%r15,%rbx)
	je	LBB87_55
LBB87_51:
	movq	8(%r15,%rbx), %rax
	testq	%rax, %rax
	je	LBB87_55
	movq	(%r15,%rbx), %rdi
	testq	%rdi, %rdi
	je	LBB87_55
	shlq	$2, %rax
	leaq	(%rax,%rax,4), %rsi
	testq	%rsi, %rsi
	je	LBB87_55
	movl	$4, %edx
	callq	___rust_dealloc
	addq	$40, %rbx
	cmpq	%rbx, %r14
	jne	LBB87_50
LBB87_56:
	movq	-424(%rbp), %r15
LBB87_57:
	leaq	-424(%rbp), %rbx
	movq	-416(%rbp), %rax
	testq	%rax, %rax
	je	LBB87_61
	testq	%r15, %r15
	je	LBB87_61
	shlq	$3, %rax
	leaq	(%rax,%rax,4), %rsi
	testq	%rsi, %rsi
	je	LBB87_61
	movl	$8, %edx
	movq	%r15, %rdi
	callq	___rust_dealloc
LBB87_61:
	movq	-80(%rbp), %rax
	movq	%rax, 16(%rbx)
	vmovaps	-96(%rbp), %xmm0
	vmovups	%xmm0, (%rbx)
Ltmp187:
	leaq	-96(%rbp), %rdi
	movq	%r13, %rsi
	callq	__ZN3cfg8analysis11rhs_closure19RhsClosure$LT$R$GT$3new17h50b82fef7391451dE
Ltmp188:
Ltmp190:
	leaq	-96(%rbp), %rdi
	leaq	-352(%rbp), %rsi
	callq	__ZN3cfg8analysis11rhs_closure19RhsClosure$LT$R$GT$11rhs_closure17hb4b6caf81e0be29eE
Ltmp191:
	movq	-88(%rbp), %rax
	testq	%rax, %rax
	je	LBB87_67
	movq	-96(%rbp), %rdi
	testq	%rdi, %rdi
	je	LBB87_67
	shlq	$3, %rax
	leaq	(%rax,%rax,4), %rsi
	testq	%rsi, %rsi
	je	LBB87_67
	movl	$8, %edx
	callq	___rust_dealloc
LBB87_67:
	movq	-64(%rbp), %rsi
	testq	%rsi, %rsi
	je	LBB87_71
	movq	-72(%rbp), %rdi
	testq	%rdi, %rdi
	je	LBB87_71
	shlq	$2, %rsi
	testq	%rsi, %rsi
	je	LBB87_71
	movl	$4, %edx
	callq	___rust_dealloc
LBB87_71:
	movq	$8, -256(%rbp)
	vxorps	%xmm0, %xmm0, %xmm0
	vmovups	%xmm0, -248(%rbp)
	movq	16(%r13), %rax
	testq	%rax, %rax
	je	LBB87_72
	movq	(%r13), %r15
	movq	%r15, %r13
	addq	$48, %r13
	imulq	$56, %rax, %rax
	movq	%rax, -464(%rbp)
	movl	$8, %r12d
	xorl	%r9d, %r9d
	movl	(%r13), %eax
	movq	-328(%rbp), %rcx
	cmpq	%rax, %rcx
	ja	LBB87_79
	jmp	LBB87_80
	.p2align	4, 0x90
LBB87_102:
	movq	-112(%rbp), %r13
LBB87_131:
	addq	$56, %r15
	addq	$56, %r13
	addq	$-56, -464(%rbp)
	je	LBB87_81
	movl	(%r13), %eax
	movq	-328(%rbp), %rcx
	cmpq	%rax, %rcx
	jbe	LBB87_80
LBB87_79:
	movq	%rax, %rdi
	shrq	$5, %rdi
	movq	-336(%rbp), %rsi
	cmpq	%rdi, %rsi
	jbe	LBB87_80
	movq	-352(%rbp), %rdx
	movl	(%rdx,%rdi,4), %edi
	btl	%eax, %edi
	movq	__ZN7bit_vec5FALSE17h81f8c71b91ea5861E@GOTPCREL(%rip), %rax
	movzbl	(%rax), %edi
	movq	__ZN7bit_vec4TRUE17h9e81f12c3ac5e60bE@GOTPCREL(%rip), %rax
	movzbl	(%rax), %ebx
	movl	%ebx, %r14d
	cmovael	%edi, %r14d
	movl	-4(%r13), %r8d
	movb	$1, %al
	cmpl	$1, %r8d
	jne	LBB87_96
	movl	4(%r13), %eax
	cmpq	%rax, %rcx
	jbe	LBB87_94
	movq	%rax, %rcx
	shrq	$5, %rcx
	cmpq	%rcx, %rsi
	jbe	LBB87_94
	movl	(%rdx,%rcx,4), %ecx
	btl	%eax, %ecx
	movzbl	%dil, %eax
	movzbl	%bl, %ecx
	cmovael	%eax, %ecx
	testb	%cl, %cl
	setne	%al
LBB87_96:
	movq	%r13, -112(%rbp)
	testb	%r14b, %r14b
	movq	%r15, -128(%rbp)
	je	LBB87_98
	testb	%al, %al
	je	LBB87_98
	movl	%eax, %r15d
	movq	%r9, %rbx
	movq	-112(%rbp), %r13
	movq	-24(%r13), %rax
	movl	-8(%r13), %esi
	movl	$2, -72(%rbp)
	leaq	-448(%rbp), %rdi
	movq	%rdi, -56(%rbp)
	movl	$1, -48(%rbp)
	movl	%esi, -44(%rbp)
	xorl	%ecx, %ecx
	cmpl	$1, -4(%r13)
	sete	%cl
	incq	%rcx
	movq	$4, -320(%rbp)
	vxorps	%xmm0, %xmm0, %xmm0
	leaq	-312(%rbp), %rdx
	vmovups	%xmm0, (%rdx)
	movq	%rax, -296(%rbp)
	movb	$2, -284(%rbp)
Ltmp197:
	movq	%r13, %rdx
	leaq	-320(%rbp), %r8
	vzeroupper
	callq	__ZN93_$LT$cfg..binarized..BinarizedCfg$LT$H$GT$$u20$as$u20$cfg..rule..container..RuleContainer$GT$8add_rule17hffb82523c0be067cE
Ltmp198:
	movl	-4(%r13), %r8d
	movq	%r13, %rcx
	movq	%rbx, %r9
	movl	%r15d, %eax
	movq	-128(%rbp), %r15
	cmpl	$1, %r8d
	jne	LBB87_102
LBB87_103:
	testb	%r14b, %r14b
	movq	-112(%rbp), %r13
	je	LBB87_115
	movb	%al, -97(%rbp)
	movq	%r12, -264(%rbp)
	movq	-32(%r13), %r14
	xorl	%r12d, %r12d
	movq	%r14, %rax
	movl	$20, %edx
	mulq	%rdx
	movq	%rax, %r15
	setno	%al
	jo	LBB87_105
	movq	%r9, -168(%rbp)
	movl	4(%rcx), %ebx
	movl	(%r13), %ecx
	movl	%ecx, -172(%rbp)
	movq	-48(%r13), %rcx
	movq	%rcx, -384(%rbp)
	movb	%al, %r12b
	shlq	$2, %r12
	testq	%r15, %r15
	je	LBB87_108
	movq	%r15, %rdi
	movq	%r12, %rsi
	vzeroupper
	callq	___rust_alloc
	movq	%rax, %rcx
	testq	%rcx, %rcx
	jne	LBB87_110
	jmp	LBB87_231
	.p2align	4, 0x90
LBB87_98:
	leaq	48(%r15), %rcx
	cmpl	$1, %r8d
	jne	LBB87_102
	jmp	LBB87_103
LBB87_108:
	movq	%r12, %rcx
	testq	%rcx, %rcx
	je	LBB87_231
LBB87_110:
	movq	%rbx, %r12
	movq	%r15, %rax
	movabsq	$-3689348814741910323, %rdx
	mulq	%rdx
	shrq	$4, %rdx
	movq	%rcx, -96(%rbp)
	movq	%rdx, -88(%rbp)
	movq	$0, -80(%rbp)
Ltmp200:
	leaq	-96(%rbp), %rdi
	movq	%r14, %rsi
	vzeroupper
	callq	__ZN5alloc3vec12Vec$LT$T$GT$7reserve17hd253ad3989e49a56E
Ltmp201:
	movq	-80(%rbp), %rbx
	leaq	(%rbx,%rbx,4), %rdi
	shlq	$2, %rdi
	addq	-96(%rbp), %rdi
	movq	-384(%rbp), %rsi
	movq	%r15, %rdx
	callq	_memcpy
	addq	%rbx, %r14
	movq	%r14, -80(%rbp)
	movq	%r14, -304(%rbp)
	vmovups	-96(%rbp), %xmm0
	vmovaps	%xmm0, -320(%rbp)
	xorl	%eax, %eax
	cmpl	$1, -24(%r13)
	movl	-20(%r13), %ecx
	sete	%al
	movq	%r14, -144(%rbp)
	vmovaps	%xmm0, -160(%rbp)
	movl	-8(%r13), %edx
	movq	-144(%rbp), %rsi
	movq	%rsi, -80(%rbp)
	vmovaps	-160(%rbp), %xmm0
	vmovaps	%xmm0, -96(%rbp)
	movl	%eax, -72(%rbp)
	movl	%ecx, -68(%rbp)
	movl	-172(%rbp), %eax
	movl	%eax, -64(%rbp)
	movb	$0, -60(%rbp)
	movzbl	-318(%rbp), %eax
	leaq	-59(%rbp), %rcx
	movb	%al, 2(%rcx)
	movzwl	-320(%rbp), %eax
	movw	%ax, (%rcx)
	movl	%edx, -56(%rbp)
	movl	$0, -52(%rbp)
	movq	%r12, -48(%rbp)
	movq	-168(%rbp), %r9
	cmpq	-248(%rbp), %r9
	movq	-264(%rbp), %r12
	movq	-128(%rbp), %r15
	jne	LBB87_114
Ltmp203:
	movl	$1, %esi
	leaq	-256(%rbp), %rdi
	callq	__ZN5alloc3vec12Vec$LT$T$GT$7reserve17h423314fa13e9dfa1E
Ltmp204:
	movq	-256(%rbp), %r12
	movq	-240(%rbp), %r9
LBB87_114:
	imulq	$56, %r9, %rax
	vmovups	-96(%rbp), %ymm0
	vmovups	-72(%rbp), %ymm1
	vmovups	%ymm1, 24(%r12,%rax)
	vmovups	%ymm0, (%r12,%rax)
	incq	%r9
	movq	%r9, -240(%rbp)
	movzbl	-97(%rbp), %eax
LBB87_115:
	testb	%al, %al
	je	LBB87_131
	movq	%r12, -264(%rbp)
	cmpl	$1, -4(%r13)
	jne	LBB87_133
	movq	-32(%r13), %r14
	xorl	%r12d, %r12d
	movq	%r14, %rax
	movl	$20, %ecx
	mulq	%rcx
	movq	%rax, %r15
	setno	%al
	jo	LBB87_118
	movq	%r9, -168(%rbp)
	movl	(%r13), %ebx
	movl	4(%r13), %ecx
	movl	%ecx, -172(%rbp)
	movq	-48(%r13), %rcx
	movq	%rcx, -384(%rbp)
	movb	%al, %r12b
	shlq	$2, %r12
	testq	%r15, %r15
	je	LBB87_124
	movq	%r15, %rdi
	movq	%r12, %rsi
	vzeroupper
	callq	___rust_alloc
	movq	%rax, %rcx
	testq	%rcx, %rcx
	jne	LBB87_126
	jmp	LBB87_231
LBB87_124:
	movq	%r12, %rcx
	testq	%rcx, %rcx
	je	LBB87_231
LBB87_126:
	movq	%rbx, %r12
	movq	%r15, %rax
	movabsq	$-3689348814741910323, %rdx
	mulq	%rdx
	shrq	$4, %rdx
	movq	%rcx, -96(%rbp)
	movq	%rdx, -88(%rbp)
	movq	$0, -80(%rbp)
Ltmp208:
	leaq	-96(%rbp), %rdi
	movq	%r14, %rsi
	vzeroupper
	callq	__ZN5alloc3vec12Vec$LT$T$GT$7reserve17hd253ad3989e49a56E
Ltmp209:
	movq	-80(%rbp), %rbx
	leaq	(%rbx,%rbx,4), %rdi
	shlq	$2, %rdi
	addq	-96(%rbp), %rdi
	movq	-384(%rbp), %rsi
	movq	%r15, %rdx
	callq	_memcpy
	addq	%rbx, %r14
	movq	%r14, -80(%rbp)
	movq	%r14, -304(%rbp)
	vmovups	-96(%rbp), %xmm0
	vmovaps	%xmm0, -320(%rbp)
	xorl	%eax, %eax
	cmpl	$1, -24(%r13)
	movl	-20(%r13), %ecx
	sete	%al
	movq	%r14, -144(%rbp)
	vmovaps	%xmm0, -160(%rbp)
	movl	-8(%r13), %edx
	movq	-144(%rbp), %rsi
	movq	%rsi, -80(%rbp)
	vmovaps	-160(%rbp), %xmm0
	vmovaps	%xmm0, -96(%rbp)
	movl	%eax, -72(%rbp)
	movl	%ecx, -68(%rbp)
	movl	-172(%rbp), %eax
	movl	%eax, -64(%rbp)
	movb	$1, -60(%rbp)
	movzbl	-318(%rbp), %eax
	leaq	-59(%rbp), %rcx
	movb	%al, 2(%rcx)
	movzwl	-320(%rbp), %eax
	movw	%ax, (%rcx)
	movl	%edx, -56(%rbp)
	movl	$0, -52(%rbp)
	movq	%r12, -48(%rbp)
	movq	-168(%rbp), %r9
	cmpq	-248(%rbp), %r9
	movq	-264(%rbp), %r12
	movq	-128(%rbp), %r15
	jne	LBB87_130
Ltmp211:
	movl	$1, %esi
	leaq	-256(%rbp), %rdi
	callq	__ZN5alloc3vec12Vec$LT$T$GT$7reserve17h423314fa13e9dfa1E
Ltmp212:
	movq	-256(%rbp), %r12
	movq	-240(%rbp), %r9
LBB87_130:
	imulq	$56, %r9, %rax
	vmovups	-96(%rbp), %ymm0
	vmovups	-72(%rbp), %ymm1
	vmovups	%ymm1, 24(%r12,%rax)
	vmovups	%ymm0, (%r12,%rax)
	incq	%r9
	movq	%r9, -240(%rbp)
	jmp	LBB87_131
LBB87_81:
	movq	-248(%rbp), %rax
	movq	-232(%rbp), %r13
	movq	%r12, %rbx
	jmp	LBB87_82
LBB87_72:
	movl	$8, %ebx
	xorl	%r9d, %r9d
	xorl	%eax, %eax
LBB87_82:
	imulq	$56, %r9, %r15
	leaq	(%rbx,%r15), %rcx
	movq	%rbx, -96(%rbp)
	movq	%rax, -128(%rbp)
	movq	%rax, -88(%rbp)
	movq	%rbx, -80(%rbp)
	movq	%rcx, %r12
	movq	%rcx, -72(%rbp)
	movq	%r15, %rax
	sarq	$3, %rax
	movabsq	$7905747460161236407, %r14
	imulq	%rax, %r14
Ltmp219:
	movq	%r13, %rdi
	movq	%r14, %rsi
	vzeroupper
	callq	__ZN5alloc3vec12Vec$LT$T$GT$7reserve17h423314fa13e9dfa1E
Ltmp220:
	movq	(%r13), %rcx
	movq	-232(%rbp), %rax
	movq	16(%rax), %r13
	imulq	$56, %r13, %rdi
	movq	%rcx, -168(%rbp)
	addq	%rcx, %rdi
	movq	%rbx, -264(%rbp)
	movq	%rbx, %rsi
	movq	%r15, %rdx
	callq	_memcpy
	addq	%r13, %r14
	movq	-232(%rbp), %r13
	movq	%r14, -112(%rbp)
	movq	%r14, 16(%r13)
	movq	%r12, -80(%rbp)
	movq	-128(%rbp), %r12
	testq	%r12, %r12
	je	LBB87_86
	imulq	$56, %r12, %rsi
	testq	%rsi, %rsi
	je	LBB87_86
	movl	$8, %edx
	movq	-264(%rbp), %rdi
	callq	___rust_dealloc
LBB87_86:
	movq	24(%r13), %rdx
	movq	40(%r13), %rax
	imulq	$56, -112(%rbp), %r14
	movq	-168(%rbp), %r9
	addq	%r9, %r14
	leaq	(%rax,%rax,4), %rax
	leaq	(%rdx,%rax,8), %rax
	xorl	%ecx, %ecx
	movl	$1, %r8d
	testq	%rdx, %rdx
	je	LBB87_137
	.p2align	4, 0x90
LBB87_88:
	cmpq	%rdx, %rax
	je	LBB87_137
	incq	%rcx
	je	LBB87_90
	cmpl	$2, 24(%rdx)
	leaq	40(%rdx), %rdx
	je	LBB87_88
	movl	%ecx, %esi
	decl	%esi
	movl	%esi, %ebx
	movq	%rbx, -160(%rbp)
	cmpq	%rbx, -200(%rbp)
	ja	LBB87_141
	jmp	LBB87_143
LBB87_137:
	testq	%r9, %r9
	je	LBB87_145
	cmpq	%r9, %r14
	je	LBB87_145
	movl	40(%r9), %esi
	addq	$56, %r9
	xorl	%edx, %edx
	movl	%esi, %ebx
	movq	%rbx, -160(%rbp)
	cmpq	%rbx, -200(%rbp)
	jbe	LBB87_143
LBB87_141:
	movq	%rbx, %rdi
	shrq	$5, %rdi
	movq	-208(%rbp), %rsi
	cmpq	%rdi, %rsi
	jbe	LBB87_142
	shlxl	%ebx, %r8d, %esi
	movq	-224(%rbp), %rbx
	orl	%esi, (%rbx,%rdi,4)
	testq	%rdx, %rdx
	jne	LBB87_88
	jmp	LBB87_137
LBB87_145:
	movq	-448(%rbp), %r9
	movq	-424(%rbp), %rax
	movq	-408(%rbp), %rcx
	imulq	$56, -432(%rbp), %r8
	addq	%r9, %r8
	leaq	(%rcx,%rcx,4), %rcx
	leaq	(%rax,%rcx,8), %rbx
	xorl	%edx, %edx
	testq	%rax, %rax
	je	LBB87_152
	.p2align	4, 0x90
LBB87_147:
	cmpq	%rax, %rbx
	je	LBB87_152
	incq	%rdx
	je	LBB87_149
	cmpl	$2, 24(%rax)
	leaq	40(%rax), %rax
	je	LBB87_147
	movl	%edx, %ecx
	decl	%ecx
	movl	%ecx, %ecx
	movq	%rcx, -160(%rbp)
	cmpq	%rcx, -200(%rbp)
	ja	LBB87_156
	jmp	LBB87_158
LBB87_152:
	testq	%r9, %r9
	je	LBB87_160
	cmpq	%r9, %r8
	je	LBB87_160
	movl	40(%r9), %ecx
	addq	$56, %r9
	xorl	%eax, %eax
	movl	%ecx, %ecx
	movq	%rcx, -160(%rbp)
	cmpq	%rcx, -200(%rbp)
	jbe	LBB87_158
LBB87_156:
	movq	%rcx, %rdi
	shrq	$5, %rdi
	movq	-208(%rbp), %rsi
	cmpq	%rdi, %rsi
	jbe	LBB87_157
	movq	-224(%rbp), %r10
	movl	$-2, %esi
	roll	%cl, %esi
	andl	%esi, (%r10,%rdi,4)
	testq	%rax, %rax
	jne	LBB87_147
	jmp	LBB87_152
LBB87_160:
Ltmp234:
	leaq	-96(%rbp), %rdi
	movq	%r13, %rsi
	callq	__ZN3cfg8analysis11rhs_closure19RhsClosure$LT$R$GT$3new17h50b82fef7391451dE
Ltmp235:
Ltmp236:
	leaq	-96(%rbp), %rdi
	leaq	-224(%rbp), %rsi
	callq	__ZN3cfg8analysis11rhs_closure19RhsClosure$LT$R$GT$11rhs_closure17hb4b6caf81e0be29eE
Ltmp237:
	movq	%r14, -128(%rbp)
	movq	-88(%rbp), %rax
	testq	%rax, %rax
	je	LBB87_166
	movq	-96(%rbp), %rdi
	testq	%rdi, %rdi
	je	LBB87_166
	shlq	$3, %rax
	leaq	(%rax,%rax,4), %rsi
	testq	%rsi, %rsi
	je	LBB87_166
	movl	$8, %edx
	callq	___rust_dealloc
LBB87_166:
	movq	-64(%rbp), %rsi
	testq	%rsi, %rsi
	je	LBB87_170
	movq	-72(%rbp), %rdi
	testq	%rdi, %rdi
	je	LBB87_170
	shlq	$2, %rsi
	testq	%rsi, %rsi
	je	LBB87_170
	movl	$4, %edx
	callq	___rust_dealloc
LBB87_170:
	movq	-112(%rbp), %rax
	testq	%rax, %rax
	movq	-168(%rbp), %rbx
	je	LBB87_198
	movq	-200(%rbp), %r10
	movq	-224(%rbp), %r11
	movq	-208(%rbp), %r13
	xorl	%r14d, %r14d
	movq	__ZN7bit_vec5FALSE17h81f8c71b91ea5861E@GOTPCREL(%rip), %r15
	movq	__ZN7bit_vec4TRUE17h9e81f12c3ac5e60bE@GOTPCREL(%rip), %r12
	xorl	%ecx, %ecx
	movl	48(%rbx), %edx
	cmpq	%rdx, %r10
	ja	LBB87_173
	jmp	LBB87_174
	.p2align	4, 0x90
LBB87_185:
	incq	%r14
	incq	%rcx
	addq	$56, %rbx
	cmpq	%rcx, %rax
	je	LBB87_190
LBB87_172:
	movl	48(%rbx), %edx
	cmpq	%rdx, %r10
	jbe	LBB87_174
LBB87_173:
	movq	%rdx, %rsi
	shrq	$5, %rsi
	cmpq	%rsi, %r13
	jbe	LBB87_174
	movl	(%r11,%rsi,4), %esi
	btl	%edx, %esi
	movzbl	(%r15), %edx
	movzbl	(%r12), %esi
	movl	%esi, %edi
	cmovael	%edx, %edi
	cmpl	$1, 44(%rbx)
	jne	LBB87_176
	movl	52(%rbx), %r9d
	cmpq	%r9, %r10
	jbe	LBB87_179
	movq	%r9, %r8
	shrq	$5, %r8
	cmpq	%r8, %r13
	jbe	LBB87_179
	movl	(%r11,%r8,4), %eax
	btl	%r9d, %eax
	movzbl	%dl, %eax
	movzbl	%sil, %edx
	cmovael	%eax, %edx
	testb	%dl, %dl
	sete	%dl
	movq	-112(%rbp), %rax
	testb	%dil, %dil
	je	LBB87_185
LBB87_182:
	testb	%dl, %dl
	jne	LBB87_185
	testq	%r14, %r14
	je	LBB87_184
	movq	%rcx, %rdi
	subq	%r14, %rdi
	cmpq	%rax, %rdi
	jae	LBB87_187
	imulq	$-56, %r14, %rax
	vmovups	(%rbx,%rax), %ymm0
	vmovups	24(%rbx,%rax), %ymm1
	vmovups	%ymm1, -72(%rbp)
	vmovups	%ymm0, -96(%rbp)
	vmovups	(%rbx), %ymm0
	movq	48(%rbx), %rdx
	vmovups	32(%rbx), %xmm1
	vmovups	%xmm1, 32(%rbx,%rax)
	movq	%rdx, 48(%rbx,%rax)
	vmovups	%ymm0, (%rbx,%rax)
	vmovups	-96(%rbp), %ymm0
	vmovups	-72(%rbp), %ymm1
	vmovups	%ymm0, (%rbx)
	vmovups	%ymm1, 24(%rbx)
	movq	-112(%rbp), %rax
	incq	%rcx
	addq	$56, %rbx
	cmpq	%rcx, %rax
	jne	LBB87_172
	jmp	LBB87_190
	.p2align	4, 0x90
LBB87_176:
	xorl	%edx, %edx
	testb	%dil, %dil
	jne	LBB87_182
	jmp	LBB87_185
LBB87_184:
	xorl	%r14d, %r14d
	incq	%rcx
	addq	$56, %rbx
	cmpq	%rcx, %rax
	jne	LBB87_172
LBB87_190:
	testq	%r14, %r14
	movq	-232(%rbp), %r13
	movq	-168(%rbp), %rbx
	je	LBB87_198
	subq	%r14, %rax
	jb	LBB87_198
	movq	%rax, 16(%r13)
	imulq	$56, %rax, %rax
	addq	%rax, %rbx
	movq	8(%rbx), %rax
	testq	%rax, %rax
	jne	LBB87_194
	.p2align	4, 0x90
LBB87_197:
	addq	$56, %rbx
	cmpq	-128(%rbp), %rbx
	je	LBB87_198
LBB87_193:
	movq	8(%rbx), %rax
	testq	%rax, %rax
	je	LBB87_197
LBB87_194:
	movq	(%rbx), %rdi
	testq	%rdi, %rdi
	je	LBB87_197
	shlq	$2, %rax
	leaq	(%rax,%rax,4), %rsi
	testq	%rsi, %rsi
	je	LBB87_197
	movl	$4, %edx
	vzeroupper
	callq	___rust_dealloc
	addq	$56, %rbx
	cmpq	-128(%rbp), %rbx
	jne	LBB87_193
LBB87_198:
	movq	-216(%rbp), %rsi
	testq	%rsi, %rsi
	je	LBB87_202
	movq	-224(%rbp), %rdi
	testq	%rdi, %rdi
	je	LBB87_202
	shlq	$2, %rsi
	testq	%rsi, %rsi
	je	LBB87_202
	movl	$4, %edx
	vzeroupper
	callq	___rust_dealloc
LBB87_202:
	movq	-344(%rbp), %rsi
	testq	%rsi, %rsi
	movq	-456(%rbp), %rbx
	je	LBB87_206
	movq	-352(%rbp), %rdi
	testq	%rdi, %rdi
	je	LBB87_206
	shlq	$2, %rsi
	testq	%rsi, %rsi
	je	LBB87_206
	movl	$4, %edx
	vzeroupper
	callq	___rust_dealloc
LBB87_206:
	vmovups	-448(%rbp), %ymm0
	vmovups	-424(%rbp), %ymm1
	vmovups	%ymm1, -72(%rbp)
	vmovups	%ymm0, -96(%rbp)
	cmpl	$0, 56(%r13)
	je	LBB87_207
	movl	60(%r13), %eax
	movb	64(%r13), %cl
	vmovups	-72(%rbp), %ymm0
	vmovups	%ymm0, -424(%rbp)
	vmovups	-96(%rbp), %ymm0
	vmovups	%ymm0, -448(%rbp)
	movq	64(%r13), %rdx
	movq	%rdx, 64(%rbx)
	vmovups	(%r13), %ymm0
	vmovups	32(%r13), %ymm1
	vmovups	%ymm1, 32(%rbx)
	vmovups	%ymm0, (%rbx)
	vmovups	-448(%rbp), %ymm0
	vmovups	-424(%rbp), %ymm1
	vmovups	%ymm0, 72(%rbx)
	vmovups	%ymm1, 96(%rbx)
	movl	$1, 128(%rbx)
	movl	%eax, 132(%rbx)
	movb	%cl, 136(%rbx)
	movl	-96(%rbp), %eax
	movl	-93(%rbp), %ecx
	movl	%eax, 137(%rbx)
	movl	%ecx, 140(%rbx)
	movq	%rbx, %rax
	addq	$424, %rsp
	popq	%rbx
	popq	%r12
	popq	%r13
	popq	%r14
	popq	%r15
	popq	%rbp
	vzeroupper
	retq
LBB87_90:
Ltmp222:
	leaq	_str.1(%rip), %rdi
	leaq	l___unnamed_42(%rip), %rdx
	movl	$28, %esi
	callq	__ZN4core9panicking5panic17h736ee47a631475c0E
Ltmp223:
	jmp	LBB87_10
LBB87_149:
Ltmp228:
	leaq	_str.1(%rip), %rdi
	leaq	l___unnamed_42(%rip), %rdx
	movl	$28, %esi
	callq	__ZN4core9panicking5panic17h736ee47a631475c0E
Ltmp229:
LBB87_10:
	ud2
LBB87_143:
	leaq	-160(%rbp), %rax
	movq	%rax, -320(%rbp)
	leaq	__ZN4core3fmt3num52_$LT$impl$u20$core..fmt..Debug$u20$for$u20$usize$GT$3fmt17hd9d2912101c14e43E(%rip), %rax
	movq	%rax, -312(%rbp)
	leaq	-200(%rbp), %rcx
	movq	%rcx, -304(%rbp)
	movq	%rax, -296(%rbp)
	leaq	l___unnamed_62(%rip), %rax
	movq	%rax, -96(%rbp)
	movq	$2, -88(%rbp)
	movq	$0, -80(%rbp)
	leaq	-320(%rbp), %rax
	movq	%rax, -64(%rbp)
	movq	$2, -56(%rbp)
Ltmp224:
	leaq	l___unnamed_63(%rip), %rsi
	leaq	-96(%rbp), %rdi
	callq	__ZN3std9panicking15begin_panic_fmt17h2e6dba6f5c07d155E
Ltmp225:
	jmp	LBB87_10
LBB87_142:
Ltmp226:
	leaq	l___unnamed_64(%rip), %rdx
	callq	__ZN4core9panicking18panic_bounds_check17habe69d236c55e3edE
Ltmp227:
	jmp	LBB87_10
LBB87_158:
	leaq	-160(%rbp), %rax
	movq	%rax, -320(%rbp)
	leaq	__ZN4core3fmt3num52_$LT$impl$u20$core..fmt..Debug$u20$for$u20$usize$GT$3fmt17hd9d2912101c14e43E(%rip), %rax
	movq	%rax, -312(%rbp)
	leaq	-200(%rbp), %rcx
	movq	%rcx, -304(%rbp)
	movq	%rax, -296(%rbp)
	leaq	l___unnamed_62(%rip), %rax
	movq	%rax, -96(%rbp)
	movq	$2, -88(%rbp)
	movq	$0, -80(%rbp)
	leaq	-320(%rbp), %rax
	movq	%rax, -64(%rbp)
	movq	$2, -56(%rbp)
Ltmp230:
	leaq	l___unnamed_63(%rip), %rsi
	leaq	-96(%rbp), %rdi
	callq	__ZN3std9panicking15begin_panic_fmt17h2e6dba6f5c07d155E
Ltmp231:
	jmp	LBB87_10
LBB87_157:
Ltmp232:
	leaq	l___unnamed_66(%rip), %rdx
	callq	__ZN4core9panicking18panic_bounds_check17habe69d236c55e3edE
Ltmp233:
	jmp	LBB87_10
LBB87_80:
Ltmp193:
	leaq	l___unnamed_50(%rip), %rdi
	leaq	l___unnamed_71(%rip), %rdx
	movl	$19, %esi
	vzeroupper
	callq	__ZN4core6option13expect_failed17h68bd601d867bb8d1E
Ltmp194:
	jmp	LBB87_10
LBB87_174:
Ltmp239:
	leaq	l___unnamed_50(%rip), %rdi
	leaq	l___unnamed_72(%rip), %rdx
	movl	$19, %esi
	vzeroupper
	callq	__ZN4core6option13expect_failed17h68bd601d867bb8d1E
Ltmp240:
	jmp	LBB87_10
LBB87_41:
	leaq	-352(%rbp), %rax
	movq	%rax, -320(%rbp)
	leaq	__ZN4core3fmt3num52_$LT$impl$u20$core..fmt..Debug$u20$for$u20$usize$GT$3fmt17hd9d2912101c14e43E(%rip), %rax
	movq	%rax, -312(%rbp)
	leaq	-200(%rbp), %rcx
	movq	%rcx, -304(%rbp)
	movq	%rax, -296(%rbp)
	leaq	l___unnamed_62(%rip), %rax
	movq	%rax, -96(%rbp)
	movq	$2, -88(%rbp)
	movq	$0, -80(%rbp)
	leaq	-320(%rbp), %rax
	movq	%rax, -64(%rbp)
	movq	$2, -56(%rbp)
Ltmp175:
	leaq	l___unnamed_63(%rip), %rsi
	leaq	-96(%rbp), %rdi
	vzeroupper
	callq	__ZN3std9panicking15begin_panic_fmt17h2e6dba6f5c07d155E
Ltmp176:
	jmp	LBB87_10
LBB87_34:
Ltmp181:
	leaq	l___unnamed_73(%rip), %rdi
	leaq	l___unnamed_74(%rip), %rdx
	movl	$17, %esi
	vzeroupper
	callq	__ZN4core6option13expect_failed17h68bd601d867bb8d1E
Ltmp182:
	jmp	LBB87_10
LBB87_94:
Ltmp195:
	leaq	l___unnamed_50(%rip), %rdi
	leaq	l___unnamed_75(%rip), %rdx
	movl	$19, %esi
	vzeroupper
	callq	__ZN4core6option13expect_failed17h68bd601d867bb8d1E
Ltmp196:
	jmp	LBB87_10
LBB87_179:
Ltmp241:
	leaq	l___unnamed_50(%rip), %rdi
	leaq	l___unnamed_76(%rip), %rdx
	movl	$19, %esi
	vzeroupper
	callq	__ZN4core6option13expect_failed17h68bd601d867bb8d1E
Ltmp242:
	jmp	LBB87_10
LBB87_231:
	movq	%r15, %rdi
	movq	%r12, %rsi
	vzeroupper
	callq	__ZN5alloc7raw_vec19RawVec$LT$T$C$A$GT$11allocate_in28_$u7b$$u7b$closure$u7d$$u7d$17h04816d799b381db8E
LBB87_9:
Ltmp166:
	vzeroupper
	callq	__ZN5alloc7raw_vec19RawVec$LT$T$C$A$GT$11allocate_in28_$u7b$$u7b$closure$u7d$$u7d$17h1663d982e1f6196bE
Ltmp167:
	jmp	LBB87_10
LBB87_229:
	movq	%r15, %rdi
	movq	%rbx, %rsi
	vzeroupper
	callq	__ZN5alloc7raw_vec19RawVec$LT$T$C$A$GT$11allocate_in28_$u7b$$u7b$closure$u7d$$u7d$17h04816d799b381db8E
LBB87_44:
Ltmp177:
	leaq	l___unnamed_64(%rip), %rdx
	vzeroupper
	callq	__ZN4core9panicking18panic_bounds_check17habe69d236c55e3edE
Ltmp178:
	jmp	LBB87_10
LBB87_40:
Ltmp179:
	leaq	l___unnamed_66(%rip), %rdx
	vzeroupper
	callq	__ZN4core9panicking18panic_bounds_check17habe69d236c55e3edE
Ltmp180:
	jmp	LBB87_10
LBB87_187:
Ltmp243:
	leaq	l___unnamed_69(%rip), %rdx
	movq	-112(%rbp), %rsi
	vzeroupper
	callq	__ZN4core9panicking18panic_bounds_check17habe69d236c55e3edE
Ltmp244:
	jmp	LBB87_10
LBB87_105:
Ltmp216:
	vzeroupper
	callq	__ZN5alloc7raw_vec19RawVec$LT$T$C$A$GT$11allocate_in28_$u7b$$u7b$closure$u7d$$u7d$17h1663d982e1f6196bE
Ltmp217:
	jmp	LBB87_10
LBB87_133:
Ltmp206:
	leaq	l___unnamed_77(%rip), %rdx
	movl	$1, %edi
	movl	$1, %esi
	vzeroupper
	callq	__ZN4core9panicking18panic_bounds_check17habe69d236c55e3edE
Ltmp207:
	jmp	LBB87_10
LBB87_118:
Ltmp214:
	vzeroupper
	callq	__ZN5alloc7raw_vec19RawVec$LT$T$C$A$GT$11allocate_in28_$u7b$$u7b$closure$u7d$$u7d$17h1663d982e1f6196bE
Ltmp215:
	jmp	LBB87_10
LBB87_207:
Ltmp249:
	leaq	l___unnamed_35(%rip), %rdi
	leaq	l___unnamed_59(%rip), %rdx
	movl	$43, %esi
	vzeroupper
	callq	__ZN4core9panicking5panic17h736ee47a631475c0E
Ltmp250:
	jmp	LBB87_10
LBB87_221:
Ltmp246:
	leaq	_str.2(%rip), %rdi
	leaq	l___unnamed_78(%rip), %rdx
	movl	$33, %esi
	callq	__ZN4core9panicking5panic17h736ee47a631475c0E
Ltmp247:
	jmp	LBB87_10
LBB87_212:
Ltmp248:
	movq	%rax, %rbx
	jmp	LBB87_213
LBB87_228:
Ltmp251:
	movq	%rax, %rbx
	leaq	-96(%rbp), %rdi
	jmp	LBB87_219
LBB87_35:
Ltmp168:
	movq	%rax, %rbx
	jmp	LBB87_36
LBB87_76:
Ltmp183:
	jmp	LBB87_74
LBB87_211:
Ltmp218:
	movq	%rax, %rbx
	jmp	LBB87_209
LBB87_73:
Ltmp171:
	jmp	LBB87_74
LBB87_226:
Ltmp238:
	jmp	LBB87_225
LBB87_210:
Ltmp245:
	movq	%rax, %rbx
	jmp	LBB87_217
LBB87_216:
Ltmp221:
	movq	%rax, %rbx
	leaq	-96(%rbp), %rdi
	callq	__ZN4core3ptr13drop_in_place17h262c134e871c4318E
	jmp	LBB87_217
LBB87_224:
Ltmp192:
LBB87_225:
	movq	%rax, %rbx
	leaq	-96(%rbp), %rdi
	callq	__ZN4core3ptr13drop_in_place17he9cf327bc2a3f203E
	jmp	LBB87_217
LBB87_223:
Ltmp189:
	movq	%rax, %rbx
	jmp	LBB87_217
LBB87_222:
Ltmp186:
	movq	%rax, %rbx
	leaq	-352(%rbp), %rdi
	callq	__ZN4core3ptr13drop_in_place17h2a9af822d3a87480E
	jmp	LBB87_215
LBB87_220:
Ltmp162:
	movq	%rax, %rbx
	leaq	-320(%rbp), %rdi
	jmp	LBB87_214
LBB87_134:
Ltmp213:
	jmp	LBB87_120
LBB87_121:
Ltmp205:
	jmp	LBB87_120
LBB87_75:
Ltmp174:
LBB87_74:
	movq	%rax, %rbx
	leaq	-224(%rbp), %rdi
	callq	__ZN4core3ptr13drop_in_place17h2a9af822d3a87480E
	jmp	LBB87_215
LBB87_132:
Ltmp210:
	jmp	LBB87_120
LBB87_119:
Ltmp202:
LBB87_120:
	movq	%rax, %rbx
	leaq	-96(%rbp), %rdi
	callq	__ZN4core3ptr13drop_in_place17hd5b3fea693442e9eE
	jmp	LBB87_209
LBB87_208:
Ltmp199:
	movq	%rax, %rbx
	leaq	-96(%rbp), %rdi
	callq	__ZN4core3ptr13drop_in_place17h0d0ae34aa1cc06fbE
LBB87_209:
	leaq	-256(%rbp), %rdi
	callq	__ZN4core3ptr13drop_in_place17hbe333acc1d2d4fe2E
LBB87_217:
	leaq	-224(%rbp), %rdi
	callq	__ZN4core3ptr13drop_in_place17h2a9af822d3a87480E
	leaq	-352(%rbp), %rdi
	callq	__ZN4core3ptr13drop_in_place17h2a9af822d3a87480E
	jmp	LBB87_218
LBB87_230:
Ltmp165:
	movq	%rax, %rbx
	leaq	-160(%rbp), %rdi
	callq	__ZN4core3ptr13drop_in_place17hd5b3fea693442e9eE
LBB87_36:
	movq	%r12, -344(%rbp)
	movq	-112(%rbp), %rax
	movq	%rax, -328(%rbp)
	leaq	-352(%rbp), %rdi
	callq	__ZN4core3ptr13drop_in_place17had9a9386344515e5E
LBB87_213:
	leaq	-96(%rbp), %rdi
LBB87_214:
	callq	__ZN4core3ptr13drop_in_place17h0d0ae34aa1cc06fbE
LBB87_215:
	leaq	-376(%rbp), %rdi
	callq	__ZN4core3ptr13drop_in_place17hbd93c3b652fff263E
LBB87_218:
	leaq	-448(%rbp), %rdi
LBB87_219:
	callq	__ZN4core3ptr13drop_in_place17heae94b89f5b0f4bcE
	movq	-232(%rbp), %rdi
	callq	__ZN4core3ptr13drop_in_place17h34054cc1d52473a2E
	movq	%rbx, %rdi
	callq	__Unwind_Resume
	ud2
Lfunc_end6:
	.cfi_endproc
	.section	__TEXT,__gcc_except_tab
	.p2align	2
GCC_except_table87:
Lexception6:
	.byte	255
	.byte	255
	.byte	1
	.uleb128 Lcst_end6-Lcst_begin6
Lcst_begin6:
	.uleb128 Ltmp160-Lfunc_begin6
	.uleb128 Ltmp161-Ltmp160
	.uleb128 Ltmp162-Lfunc_begin6
	.byte	0
	.uleb128 Ltmp161-Lfunc_begin6
	.uleb128 Ltmp163-Ltmp161
	.byte	0
	.byte	0
	.uleb128 Ltmp163-Lfunc_begin6
	.uleb128 Ltmp164-Ltmp163
	.uleb128 Ltmp165-Lfunc_begin6
	.byte	0
	.uleb128 Ltmp169-Lfunc_begin6
	.uleb128 Ltmp170-Ltmp169
	.uleb128 Ltmp171-Lfunc_begin6
	.byte	0
	.uleb128 Ltmp172-Lfunc_begin6
	.uleb128 Ltmp173-Ltmp172
	.uleb128 Ltmp174-Lfunc_begin6
	.byte	0
	.uleb128 Ltmp184-Lfunc_begin6
	.uleb128 Ltmp185-Ltmp184
	.uleb128 Ltmp186-Lfunc_begin6
	.byte	0
	.uleb128 Ltmp187-Lfunc_begin6
	.uleb128 Ltmp188-Ltmp187
	.uleb128 Ltmp189-Lfunc_begin6
	.byte	0
	.uleb128 Ltmp190-Lfunc_begin6
	.uleb128 Ltmp191-Ltmp190
	.uleb128 Ltmp192-Lfunc_begin6
	.byte	0
	.uleb128 Ltmp197-Lfunc_begin6
	.uleb128 Ltmp198-Ltmp197
	.uleb128 Ltmp199-Lfunc_begin6
	.byte	0
	.uleb128 Ltmp200-Lfunc_begin6
	.uleb128 Ltmp201-Ltmp200
	.uleb128 Ltmp202-Lfunc_begin6
	.byte	0
	.uleb128 Ltmp201-Lfunc_begin6
	.uleb128 Ltmp203-Ltmp201
	.byte	0
	.byte	0
	.uleb128 Ltmp203-Lfunc_begin6
	.uleb128 Ltmp204-Ltmp203
	.uleb128 Ltmp205-Lfunc_begin6
	.byte	0
	.uleb128 Ltmp208-Lfunc_begin6
	.uleb128 Ltmp209-Ltmp208
	.uleb128 Ltmp210-Lfunc_begin6
	.byte	0
	.uleb128 Ltmp209-Lfunc_begin6
	.uleb128 Ltmp211-Ltmp209
	.byte	0
	.byte	0
	.uleb128 Ltmp211-Lfunc_begin6
	.uleb128 Ltmp212-Ltmp211
	.uleb128 Ltmp213-Lfunc_begin6
	.byte	0
	.uleb128 Ltmp219-Lfunc_begin6
	.uleb128 Ltmp220-Ltmp219
	.uleb128 Ltmp221-Lfunc_begin6
	.byte	0
	.uleb128 Ltmp220-Lfunc_begin6
	.uleb128 Ltmp234-Ltmp220
	.byte	0
	.byte	0
	.uleb128 Ltmp234-Lfunc_begin6
	.uleb128 Ltmp235-Ltmp234
	.uleb128 Ltmp245-Lfunc_begin6
	.byte	0
	.uleb128 Ltmp236-Lfunc_begin6
	.uleb128 Ltmp237-Ltmp236
	.uleb128 Ltmp238-Lfunc_begin6
	.byte	0
	.uleb128 Ltmp222-Lfunc_begin6
	.uleb128 Ltmp233-Ltmp222
	.uleb128 Ltmp245-Lfunc_begin6
	.byte	0
	.uleb128 Ltmp193-Lfunc_begin6
	.uleb128 Ltmp194-Ltmp193
	.uleb128 Ltmp218-Lfunc_begin6
	.byte	0
	.uleb128 Ltmp239-Lfunc_begin6
	.uleb128 Ltmp240-Ltmp239
	.uleb128 Ltmp245-Lfunc_begin6
	.byte	0
	.uleb128 Ltmp175-Lfunc_begin6
	.uleb128 Ltmp182-Ltmp175
	.uleb128 Ltmp183-Lfunc_begin6
	.byte	0
	.uleb128 Ltmp195-Lfunc_begin6
	.uleb128 Ltmp196-Ltmp195
	.uleb128 Ltmp218-Lfunc_begin6
	.byte	0
	.uleb128 Ltmp241-Lfunc_begin6
	.uleb128 Ltmp242-Ltmp241
	.uleb128 Ltmp245-Lfunc_begin6
	.byte	0
	.uleb128 Ltmp166-Lfunc_begin6
	.uleb128 Ltmp167-Ltmp166
	.uleb128 Ltmp168-Lfunc_begin6
	.byte	0
	.uleb128 Ltmp177-Lfunc_begin6
	.uleb128 Ltmp180-Ltmp177
	.uleb128 Ltmp183-Lfunc_begin6
	.byte	0
	.uleb128 Ltmp243-Lfunc_begin6
	.uleb128 Ltmp244-Ltmp243
	.uleb128 Ltmp245-Lfunc_begin6
	.byte	0
	.uleb128 Ltmp216-Lfunc_begin6
	.uleb128 Ltmp215-Ltmp216
	.uleb128 Ltmp218-Lfunc_begin6
	.byte	0
	.uleb128 Ltmp249-Lfunc_begin6
	.uleb128 Ltmp250-Ltmp249
	.uleb128 Ltmp251-Lfunc_begin6
	.byte	0
	.uleb128 Ltmp246-Lfunc_begin6
	.uleb128 Ltmp247-Ltmp246
	.uleb128 Ltmp248-Lfunc_begin6
	.byte	0
	.uleb128 Ltmp247-Lfunc_begin6
	.uleb128 Lfunc_end6-Ltmp247
	.byte	0
	.byte	0
Lcst_end6:
	.p2align	2

	.section	__TEXT,__const
	.p2align	5
LCPI88_0:
	.long	0
	.long	1
	.long	2
	.long	3
	.long	4
	.long	5
	.long	6
	.long	7
	.section	__TEXT,__literal4,4byte_literals
	.p2align	2
LCPI88_1:
	.long	8
LCPI88_2:
	.long	16
LCPI88_3:
	.long	24
LCPI88_4:
	.long	32
LCPI88_5:
	.long	40
LCPI88_6:
	.long	48
LCPI88_7:
	.long	56
LCPI88_8:
	.long	64
LCPI88_9:
	.long	72
LCPI88_10:
	.long	80
LCPI88_11:
	.long	88
LCPI88_12:
	.long	96
LCPI88_13:
	.long	104
LCPI88_14:
	.long	112
LCPI88_15:
	.long	120
LCPI88_16:
	.long	128
	.section	__TEXT,__literal16,16byte_literals
	.p2align	4
LCPI88_17:
	.space	16
	.section	__TEXT,__text,regular,pure_instructions
	.globl	__ZN3cfg6earley17binarized_grammar16BinarizedGrammar13remap_symbols17hf0e7408321732c1aE
	.p2align	4, 0x90
__ZN3cfg6earley17binarized_grammar16BinarizedGrammar13remap_symbols17hf0e7408321732c1aE:
Lfunc_begin7:
	.cfi_startproc
	.cfi_personality 155, _rust_eh_personality
	.cfi_lsda 16, Lexception7
	pushq	%rbp
	.cfi_def_cfa_offset 16
	.cfi_offset %rbp, -16
	movq	%rsp, %rbp
	.cfi_def_cfa_register %rbp
	pushq	%r15
	pushq	%r14
	pushq	%r13
	pushq	%r12
	pushq	%rbx
	andq	$-32, %rsp
	subq	$608, %rsp
	.cfi_offset %rbx, -56
	.cfi_offset %r12, -48
	.cfi_offset %r13, -40
	.cfi_offset %r14, -32
	.cfi_offset %r15, -24
	movq	%rsi, %r15
	movq	%rdi, %r12
	movl	48(%rsi), %edx
Ltmp252:
	leaq	520(%rsp), %rdi
	movq	%rdx, %rsi
	callq	__ZN10bit_matrix6matrix9BitMatrix3new17h28c0edd13ebd5365E
Ltmp253:
	movq	(%r15), %r14
	movq	24(%r15), %rax
	movq	40(%r15), %rcx
	movq	%r15, (%rsp)
	imulq	$56, 16(%r15), %r9
	addq	%r14, %r9
	leaq	544(%rsp), %r8
	leaq	(%rcx,%rcx,4), %rcx
	leaq	(%rax,%rcx,8), %rbx
	xorl	%ecx, %ecx
	movq	$-1, %r10
	movl	$1, %r11d
	jmp	LBB88_3
	.p2align	4, 0x90
LBB88_2:
	shlxl	%eax, %r11d, %eax
	movq	520(%rsp), %rdx
	orl	%eax, (%rdx,%rdi,4)
	xorl	%eax, %eax
LBB88_3:
	movq	%r14, %rdx
LBB88_4:
	testq	%rax, %rax
	je	LBB88_8
	.p2align	4, 0x90
LBB88_5:
	cmpq	%rax, %rbx
	je	LBB88_8
	incq	%rcx
	je	LBB88_352
	cmpl	$2, 24(%rax)
	leaq	40(%rax), %rax
	je	LBB88_5
	jmp	LBB88_4
	.p2align	4, 0x90
LBB88_8:
	cmpq	%rdx, %r9
	je	LBB88_23
	leaq	56(%rdx), %r14
	cmpl	$1, 44(%rdx)
	movl	$0, %eax
	je	LBB88_3
	movl	40(%rdx), %r15d
	movl	48(%rdx), %esi
	xorl	%edx, %edx
	cmpl	%esi, %r15d
	setne	%dl
	cmovbq	%r10, %rdx
	cmpq	$-1, %rdx
	je	LBB88_17
	movl	$0, %eax
	testq	%rdx, %rdx
	je	LBB88_3
	movq	552(%rsp), %rdi
	addq	$32, %rdi
	jb	LBB88_374
	decq	%rdi
	andq	$-32, %rdi
	movq	%rsi, %rax
	mulq	%rdi
	jo	LBB88_375
	addq	%r15, %rax
	jb	LBB88_376
	movq	%rax, 416(%rsp)
	cmpq	%rax, 544(%rsp)
	jbe	LBB88_377
	movq	%rax, %rdi
	shrq	$5, %rdi
	movq	536(%rsp), %rsi
	cmpq	%rdi, %rsi
	ja	LBB88_2
	jmp	LBB88_378
LBB88_17:
	movq	552(%rsp), %rdi
	addq	$32, %rdi
	jb	LBB88_380
	decq	%rdi
	andq	$-32, %rdi
	movq	%r15, %rax
	mulq	%rdi
	jo	LBB88_381
	addq	%rsi, %rax
	jb	LBB88_382
	movq	%rax, 416(%rsp)
	cmpq	%rax, 544(%rsp)
	jbe	LBB88_379
	movq	%rax, %rdi
	shrq	$5, %rdi
	movq	536(%rsp), %rsi
	cmpq	%rdi, %rsi
	ja	LBB88_2
Ltmp269:
	leaq	l___unnamed_64(%rip), %rdx
	callq	__ZN4core9panicking18panic_bounds_check17habe69d236c55e3edE
Ltmp270:
	jmp	LBB88_355
LBB88_23:
Ltmp277:
	leaq	520(%rsp), %rdi
	callq	__ZN10bit_matrix6matrix9BitMatrix18transitive_closure17h5b887f28322ab65bE
Ltmp278:
	movq	(%rsp), %r15
	movl	48(%r15), %r14d
	movq	$4, 16(%rsp)
	vpxor	%xmm0, %xmm0, %xmm0
	vmovdqu	%xmm0, 24(%rsp)
Ltmp280:
	leaq	16(%rsp), %rdi
	movq	%r14, %rsi
	callq	__ZN5alloc3vec12Vec$LT$T$GT$7reserve17ha59824b56f135026E
Ltmp281:
	movq	32(%rsp), %rax
	testl	%r14d, %r14d
	je	LBB88_34
	leaq	(,%rax,8), %rcx
	addq	16(%rsp), %rcx
	leaq	-1(%r14), %rdx
	movl	%r14d, %r8d
	andl	$7, %r8d
	cmpq	$7, %rdx
	jae	LBB88_28
	xorl	%edi, %edi
	testq	%r8, %r8
	jne	LBB88_31
	jmp	LBB88_33
LBB88_28:
	movq	%r14, %rsi
	subq	%r8, %rsi
	xorl	%ebx, %ebx
	xorl	%edi, %edi
	.p2align	4, 0x90
LBB88_29:
	movl	$1, (%rcx,%rdi,8)
	movl	%edi, 4(%rcx,%rdi,8)
	leal	1(%rdi), %edx
	movl	$1, 8(%rcx,%rdi,8)
	movl	%edx, 12(%rcx,%rdi,8)
	leal	2(%rdi), %edx
	movl	$1, 16(%rcx,%rdi,8)
	movl	%edx, 20(%rcx,%rdi,8)
	leal	3(%rdi), %edx
	movl	$1, 24(%rcx,%rdi,8)
	movl	%edx, 28(%rcx,%rdi,8)
	leal	4(%rdi), %edx
	movl	$1, 32(%rcx,%rdi,8)
	movl	%edx, 36(%rcx,%rdi,8)
	leal	5(%rdi), %edx
	movl	$1, 40(%rcx,%rdi,8)
	movl	%edx, 44(%rcx,%rdi,8)
	leal	6(%rdi), %edx
	movl	$1, 48(%rcx,%rdi,8)
	movl	%edx, 52(%rcx,%rdi,8)
	leal	7(%rdi), %edx
	movl	$1, 56(%rcx,%rdi,8)
	movl	%edx, 60(%rcx,%rdi,8)
	addq	$8, %rdi
	addq	$-64, %rbx
	cmpq	%rdi, %rsi
	jne	LBB88_29
	subq	%rbx, %rcx
	testq	%r8, %r8
	je	LBB88_33
LBB88_31:
	xorl	%edx, %edx
	.p2align	4, 0x90
LBB88_32:
	leal	(%rdi,%rdx), %esi
	movl	$1, (%rcx,%rdx,8)
	movl	%esi, 4(%rcx,%rdx,8)
	incq	%rdx
	cmpq	%rdx, %r8
	jne	LBB88_32
LBB88_33:
	addq	%r14, %rax
LBB88_34:
	vmovdqu	16(%rsp), %xmm0
	vmovdqa	%xmm0, 416(%rsp)
	movq	%rax, 432(%rsp)
	movq	$4, 16(%rsp)
	vpxor	%xmm0, %xmm0, %xmm0
	vmovdqu	%xmm0, 24(%rsp)
Ltmp283:
	leaq	16(%rsp), %rdi
	movq	%r14, %rsi
	callq	__ZN5alloc3vec12Vec$LT$T$GT$7reserve17h35d1e0dc15cd4847E
Ltmp284:
	movq	32(%rsp), %r9
	testl	%r14d, %r14d
	movq	%r12, 504(%rsp)
	je	LBB88_49
	movq	16(%rsp), %r8
	leaq	(%r8,%r9,4), %rcx
	cmpl	$16, %r14d
	jae	LBB88_38
	xorl	%esi, %esi
	jmp	LBB88_47
LBB88_38:
	movl	%r14d, %esi
	andl	$-16, %esi
	leaq	-16(%rsi), %rax
	movq	%rax, %rdi
	shrq	$4, %rdi
	incq	%rdi
	movl	%edi, %ebx
	andl	$7, %ebx
	cmpq	$112, %rax
	jae	LBB88_40
	vmovdqa	LCPI88_0(%rip), %ymm0
	xorl	%edi, %edi
	testq	%rbx, %rbx
	jne	LBB88_43
	jmp	LBB88_45
LBB88_40:
	leaq	(%r8,%r9,4), %rax
	addq	$480, %rax
	movq	%rbx, %rdx
	subq	%rdi, %rdx
	vmovdqa	LCPI88_0(%rip), %ymm0
	xorl	%edi, %edi
	vbroadcastss	LCPI88_1(%rip), %ymm1
	vmovaps	%ymm1, 288(%rsp)
	vbroadcastss	LCPI88_2(%rip), %ymm1
	vmovaps	%ymm1, 224(%rsp)
	vpbroadcastd	LCPI88_3(%rip), %ymm3
	vpbroadcastd	LCPI88_4(%rip), %ymm4
	vpbroadcastd	LCPI88_5(%rip), %ymm5
	vpbroadcastd	LCPI88_6(%rip), %ymm6
	vpbroadcastd	LCPI88_7(%rip), %ymm7
	vpbroadcastd	LCPI88_8(%rip), %ymm8
	vpbroadcastd	LCPI88_9(%rip), %ymm9
	vpbroadcastd	LCPI88_10(%rip), %ymm10
	vpbroadcastd	LCPI88_11(%rip), %ymm11
	vpbroadcastd	LCPI88_12(%rip), %ymm12
	vpbroadcastd	LCPI88_13(%rip), %ymm13
	vpbroadcastd	LCPI88_14(%rip), %ymm14
	vpbroadcastd	LCPI88_15(%rip), %ymm15
	vpbroadcastd	LCPI88_16(%rip), %ymm1
	.p2align	4, 0x90
LBB88_41:
	vmovdqu	%ymm0, -480(%rax,%rdi,4)
	vpaddd	288(%rsp), %ymm0, %ymm2
	vmovdqu	%ymm2, -448(%rax,%rdi,4)
	vpaddd	224(%rsp), %ymm0, %ymm2
	vmovdqu	%ymm2, -416(%rax,%rdi,4)
	vpaddd	%ymm3, %ymm0, %ymm2
	vmovdqu	%ymm2, -384(%rax,%rdi,4)
	vpaddd	%ymm4, %ymm0, %ymm2
	vmovdqu	%ymm2, -352(%rax,%rdi,4)
	vpaddd	%ymm5, %ymm0, %ymm2
	vmovdqu	%ymm2, -320(%rax,%rdi,4)
	vpaddd	%ymm6, %ymm0, %ymm2
	vmovdqu	%ymm2, -288(%rax,%rdi,4)
	vpaddd	%ymm7, %ymm0, %ymm2
	vmovdqu	%ymm2, -256(%rax,%rdi,4)
	vpaddd	%ymm8, %ymm0, %ymm2
	vmovdqu	%ymm2, -224(%rax,%rdi,4)
	vpaddd	%ymm9, %ymm0, %ymm2
	vmovdqu	%ymm2, -192(%rax,%rdi,4)
	vpaddd	%ymm10, %ymm0, %ymm2
	vmovdqu	%ymm2, -160(%rax,%rdi,4)
	vpaddd	%ymm11, %ymm0, %ymm2
	vmovdqu	%ymm2, -128(%rax,%rdi,4)
	vpaddd	%ymm12, %ymm0, %ymm2
	vmovdqu	%ymm2, -96(%rax,%rdi,4)
	vpaddd	%ymm13, %ymm0, %ymm2
	vmovdqu	%ymm2, -64(%rax,%rdi,4)
	vpaddd	%ymm14, %ymm0, %ymm2
	vmovdqu	%ymm2, -32(%rax,%rdi,4)
	vpaddd	%ymm15, %ymm0, %ymm2
	vmovdqu	%ymm2, (%rax,%rdi,4)
	subq	$-128, %rdi
	vpaddd	%ymm1, %ymm0, %ymm0
	addq	$8, %rdx
	jne	LBB88_41
	testq	%rbx, %rbx
	je	LBB88_45
LBB88_43:
	addq	%r9, %rdi
	leaq	(%r8,%rdi,4), %rax
	addq	$32, %rax
	negq	%rbx
	vpbroadcastd	LCPI88_1(%rip), %ymm1
	vpbroadcastd	LCPI88_2(%rip), %ymm2
	.p2align	4, 0x90
LBB88_44:
	vmovdqu	%ymm0, -32(%rax)
	vpaddd	%ymm1, %ymm0, %ymm3
	vmovdqu	%ymm3, (%rax)
	vpaddd	%ymm2, %ymm0, %ymm0
	addq	$64, %rax
	incq	%rbx
	jne	LBB88_44
LBB88_45:
	cmpq	%r14, %rsi
	je	LBB88_48
	leaq	(%rcx,%rsi,4), %rcx
	.p2align	4, 0x90
LBB88_47:
	movl	%esi, (%rcx)
	leaq	1(%rsi), %rax
	addq	$4, %rcx
	movq	%rax, %rsi
	cmpq	%rax, %r14
	jne	LBB88_47
LBB88_48:
	addq	%r14, %r9
LBB88_49:
	vmovups	16(%rsp), %xmm0
	vmovdqa	416(%rsp), %xmm1
	vmovdqa	%xmm1, 16(%rsp)
	movq	432(%rsp), %rax
	movq	%rax, 32(%rsp)
	vmovups	%xmm0, 40(%rsp)
	movq	%r9, 336(%rsp)
	movq	%r9, 56(%rsp)
	movq	%r15, 416(%rsp)
	movq	32(%rsp), %rax
	movq	%rax, 440(%rsp)
	vmovups	40(%rsp), %xmm0
	vmovups	%xmm0, 448(%rsp)
	movq	56(%rsp), %rax
	vmovdqu	16(%rsp), %xmm0
	vmovdqu	%xmm0, 424(%rsp)
	movq	%rax, 464(%rsp)
	movq	32(%rsp), %rax
	movq	%rax, 440(%rsp)
	movq	40(%rsp), %rax
	movq	%rax, 448(%rsp)
	movl	48(%r15), %esi
Ltmp286:
	leaq	320(%rsp), %r12
	movq	%r12, %rdi
	vzeroupper
	callq	__ZN3cfg5remap7Mapping3new17ha02029fa5249f18dE
Ltmp287:
	movl	$0, 368(%rsp)
	movq	%r12, 208(%rsp)
	movq	$8, 392(%rsp)
	vpxor	%xmm0, %xmm0, %xmm0
	vmovdqu	%xmm0, 400(%rsp)
	movq	416(%rsp), %rcx
	movq	16(%rcx), %rax
	movq	%rax, 216(%rsp)
	testq	%rax, %rax
	je	LBB88_85
	movq	%rcx, 496(%rsp)
	movq	(%rcx), %rax
	movq	%rax, 288(%rsp)
	leaq	48(%rax), %r14
	xorl	%eax, %eax
	movq	%rax, 8(%rsp)
	xorl	%ebx, %ebx
	jmp	LBB88_52
LBB88_75:
	xorl	%esi, %esi
	.p2align	4, 0x90
LBB88_70:
	movq	(%rsp), %r15
	movq	200(%rsp), %rbx
	incq	%rbx
	cmpq	216(%rsp), %rbx
	je	LBB88_76
LBB88_71:
	movq	%rsi, 8(%rsp)
	movq	208(%rsp), %r12
	addq	$56, %r14
LBB88_52:
	movq	%rbx, 200(%rsp)
	imulq	$56, %rbx, %rcx
	movq	288(%rsp), %rax
	movl	40(%rax,%rcx), %ebx
	xorl	%r15d, %r15d
	movq	%rcx, 224(%rsp)
	cmpl	$1, 44(%rax,%rcx)
	sete	%r13b
Ltmp289:
	movq	%r12, %rdi
	movl	%ebx, %esi
	vzeroupper
	callq	__ZN3cfg5remap6Intern6intern17h30aa0191a041809fE
Ltmp290:
	movq	288(%rsp), %rcx
	movq	224(%rsp), %rdx
	addq	%rdx, %rcx
	movq	%rcx, 384(%rsp)
	movb	%r13b, %r15b
	incq	%r15
	movl	%ebx, 152(%rsp)
	cmpl	%ebx, %eax
	jne	LBB88_58
	leaq	(,%r15,4), %r13
	xorl	%r12d, %r12d
	.p2align	4, 0x90
LBB88_55:
	cmpq	%r12, %r13
	je	LBB88_72
	movl	(%r14,%r12), %ebx
	movq	208(%rsp), %rdi
Ltmp291:
	movl	%ebx, %esi
	callq	__ZN3cfg5remap6Intern6intern17h30aa0191a041809fE
Ltmp292:
	addq	$4, %r12
	cmpl	%ebx, %eax
	je	LBB88_55
LBB88_58:
	movq	208(%rsp), %rdi
Ltmp294:
	movl	152(%rsp), %esi
	callq	__ZN3cfg5remap6Intern6intern17h30aa0191a041809fE
Ltmp295:
	movl	%eax, 152(%rsp)
	movq	$4, 160(%rsp)
	vpxor	%xmm0, %xmm0, %xmm0
	leaq	168(%rsp), %rax
	vmovdqu	%xmm0, (%rax)
Ltmp296:
	leaq	160(%rsp), %rdi
	movq	%r15, %rsi
	callq	__ZN5alloc3vec12Vec$LT$T$GT$7reserve17h35d1e0dc15cd4847E
Ltmp297:
	movq	160(%rsp), %rax
	movq	176(%rsp), %rbx
	leaq	(%rax,%rbx,4), %r13
	movq	%r13, 96(%rsp)
	leaq	176(%rsp), %rax
	movq	%rax, 104(%rsp)
	movq	%rbx, 112(%rsp)
	leaq	208(%rsp), %rax
	movq	%rax, 120(%rsp)
	shlq	$2, %r15
	xorl	%r12d, %r12d
	.p2align	4, 0x90
LBB88_61:
	movl	(%r14,%r12), %esi
	movq	208(%rsp), %rdi
Ltmp299:
	callq	__ZN3cfg5remap6Intern6intern17h30aa0191a041809fE
Ltmp300:
	movl	%eax, (%r13,%r12)
	incq	%rbx
	addq	$4, %r12
	cmpq	%r12, %r15
	jne	LBB88_61
	vmovdqu	160(%rsp), %xmm0
	vmovdqa	%xmm0, 256(%rsp)
	movq	%rbx, 272(%rsp)
	movq	288(%rsp), %rax
	movq	224(%rsp), %rcx
	movq	16(%rax,%rcx), %rbx
	xorl	%r13d, %r13d
	movq	%rbx, %rax
	movl	$20, %ecx
	mulq	%rcx
	movq	%rax, %r15
	setno	%al
	jo	LBB88_368
	movb	%al, %r13b
	shlq	$2, %r13
	movq	384(%rsp), %rax
	movq	(%rax), %r12
	testq	%r15, %r15
	je	LBB88_66
	movq	%r15, %rdi
	movq	%r13, %rsi
	callq	___rust_alloc
	movq	%rax, %rcx
	testq	%rcx, %rcx
	jne	LBB88_67
	jmp	LBB88_369
	.p2align	4, 0x90
LBB88_66:
	movq	%r13, %rcx
	testq	%rcx, %rcx
	je	LBB88_369
LBB88_67:
	movq	%r15, %rax
	movabsq	$-3689348814741910323, %rdx
	mulq	%rdx
	shrq	$4, %rdx
	movq	%rcx, 96(%rsp)
	movq	%rdx, 104(%rsp)
	movq	$0, 112(%rsp)
Ltmp302:
	leaq	96(%rsp), %rdi
	movq	%rbx, %rsi
	callq	__ZN5alloc3vec12Vec$LT$T$GT$7reserve17hd253ad3989e49a56E
Ltmp303:
	movq	112(%rsp), %r13
	leaq	(,%r13,4), %rdi
	addq	%r13, %rdi
	shlq	$2, %rdi
	addq	96(%rsp), %rdi
	movq	%r12, %rsi
	movq	%r15, %rdx
	callq	_memcpy
	addq	%r13, %rbx
	movq	%rbx, 112(%rsp)
	movq	%rbx, 176(%rsp)
	vmovdqu	96(%rsp), %xmm0
	vmovdqa	%xmm0, 160(%rsp)
	movq	288(%rsp), %rax
	movq	224(%rsp), %rdx
	movq	28(%rax,%rdx), %rsi
	xorl	%ecx, %ecx
	cmpl	$1, 24(%rax,%rdx)
	sete	%cl
	movb	36(%rax,%rdx), %al
	movl	%eax, %edx
	andb	$1, %dl
	cmpb	$2, %al
	movzbl	%dl, %eax
	movl	$2, %edx
	cmovel	%edx, %eax
	vmovdqa	256(%rsp), %xmm1
	vmovdqa	%xmm1, 16(%rsp)
	movq	272(%rsp), %rdx
	movq	%rdx, 32(%rsp)
	movl	152(%rsp), %edx
	movl	%edx, 80(%rsp)
	leaq	40(%rsp), %rdx
	movq	%rbx, 16(%rdx)
	vmovdqu	%xmm0, (%rdx)
	movl	%ecx, 64(%rsp)
	movq	%rsi, 68(%rsp)
	movb	%al, 76(%rsp)
	movb	199(%rsp), %al
	movb	%al, 39(%rdx)
	movzwl	197(%rsp), %eax
	movw	%ax, 37(%rdx)
Ltmp305:
	leaq	392(%rsp), %rdi
	leaq	16(%rsp), %rsi
	callq	__ZN5alloc3vec12Vec$LT$T$GT$4push17hd5f69ba2ef4fee5cE
Ltmp306:
	movq	8(%rsp), %rsi
	incq	%rsi
	jmp	LBB88_70
	.p2align	4, 0x90
LBB88_72:
	movq	8(%rsp), %rsi
	testq	%rsi, %rsi
	je	LBB88_75
	movq	200(%rsp), %rbx
	movq	%rbx, %rdi
	subq	%rsi, %rdi
	cmpq	216(%rsp), %rdi
	movq	(%rsp), %r15
	jae	LBB88_383
	imulq	$56, %rdi, %rax
	movq	288(%rsp), %rdx
	vmovups	(%rdx,%rax), %ymm0
	vmovups	24(%rdx,%rax), %ymm1
	vmovups	%ymm1, 40(%rsp)
	vmovups	%ymm0, 16(%rsp)
	movq	384(%rsp), %rdi
	vmovups	(%rdi), %ymm0
	movq	48(%rdi), %rcx
	vmovups	32(%rdi), %xmm1
	vmovups	%xmm1, 32(%rdx,%rax)
	movq	%rcx, 48(%rdx,%rax)
	vmovups	%ymm0, (%rdx,%rax)
	vmovdqu	16(%rsp), %ymm0
	vmovdqu	40(%rsp), %ymm1
	vmovdqu	%ymm0, (%rdi)
	vmovdqu	%ymm1, 24(%rdi)
	incq	%rbx
	cmpq	216(%rsp), %rbx
	jne	LBB88_71
LBB88_76:
	testq	%rsi, %rsi
	movq	496(%rsp), %rdi
	je	LBB88_85
	movq	216(%rsp), %rcx
	subq	%rsi, %rcx
	movq	16(%rdi), %rax
	cmpq	%rcx, %rax
	jb	LBB88_85
	movq	%rcx, %rdx
	movq	(%rdi), %rcx
	movq	%rdx, %rsi
	movq	%rdx, 16(%rdi)
	cmpq	%rdx, %rax
	je	LBB88_85
	imulq	$56, %rax, %r14
	addq	%rcx, %r14
	imulq	$56, %rdx, %rbx
	addq	%rcx, %rbx
	movq	8(%rbx), %rax
	testq	%rax, %rax
	jne	LBB88_82
	.p2align	4, 0x90
LBB88_80:
	addq	$56, %rbx
	cmpq	%r14, %rbx
	je	LBB88_85
LBB88_81:
	movq	8(%rbx), %rax
	testq	%rax, %rax
	je	LBB88_80
LBB88_82:
	movq	(%rbx), %rdi
	testq	%rdi, %rdi
	je	LBB88_80
	shlq	$2, %rax
	leaq	(%rax,%rax,4), %rsi
	testq	%rsi, %rsi
	je	LBB88_80
	movl	$4, %edx
	vzeroupper
	callq	___rust_dealloc
	addq	$56, %rbx
	cmpq	%r14, %rbx
	jne	LBB88_81
LBB88_85:
	movq	392(%rsp), %r14
	movq	400(%rsp), %rbx
	movq	408(%rsp), %rax
	leaq	(%rax,%rax,8), %rcx
	leaq	(%r14,%rcx,8), %r13
	movq	%r14, 160(%rsp)
	movq	%rbx, 168(%rsp)
	movq	%r14, 176(%rsp)
	movq	%r13, 184(%rsp)
	movq	%r14, 224(%rsp)
	testq	%rax, %rax
	je	LBB88_95
	movq	%rbx, 8(%rsp)
	leaq	40(%rsp), %r12
	movq	224(%rsp), %rax
	leaq	72(%rax), %r14
	jmp	LBB88_88
	.p2align	4, 0x90
LBB88_87:
	addq	$72, %r14
	addq	$72, %r15
	cmpq	%r13, %r15
	movq	(%rsp), %r15
	je	LBB88_105
LBB88_88:
	vmovdqu	-72(%r14), %ymm1
	movq	-40(%r14), %rax
	movq	-32(%r14), %rcx
	movl	-24(%r14), %edx
	movl	-4(%r14), %esi
	movl	%esi, 32(%rsp)
	vmovups	-20(%r14), %xmm0
	vmovaps	%xmm0, 16(%rsp)
	cmpl	$2, %edx
	je	LBB88_94
	movl	32(%rsp), %esi
	movl	%esi, 272(%rsp)
	vmovaps	16(%rsp), %xmm0
	vmovaps	%xmm0, 256(%rsp)
	vmovdqu	%ymm1, 16(%rsp)
	movq	%rax, 48(%rsp)
	movq	%rcx, 56(%rsp)
	movl	%edx, 64(%rsp)
	movl	%esi, 44(%r12)
	vmovups	%xmm0, 28(%r12)
	movl	80(%rsp), %esi
	movq	416(%rsp), %rdi
	vmovq	%xmm1, %rbx
	movq	32(%r12), %rax
	movq	%rax, 128(%rsp)
	vmovups	(%r12), %ymm0
	vmovups	%ymm0, 96(%rsp)
	vmovdqa	%ymm1, 288(%rsp)
	vextracti128	$1, %ymm1, %xmm0
	vmovq	%xmm0, %rcx
Ltmp314:
	movq	%rbx, %rdx
	leaq	96(%rsp), %r8
	vzeroupper
	callq	__ZN93_$LT$cfg..binarized..BinarizedCfg$LT$H$GT$$u20$as$u20$cfg..rule..container..RuleContainer$GT$8add_rule17hffb82523c0be067cE
Ltmp315:
	leaq	-72(%r14), %r15
	vmovdqa	288(%rsp), %ymm0
	vpextrq	$1, %xmm0, %rsi
	testq	%rsi, %rsi
	je	LBB88_87
	testq	%rbx, %rbx
	je	LBB88_87
	shlq	$2, %rsi
	testq	%rsi, %rsi
	je	LBB88_87
	movl	$4, %edx
	movq	%rbx, %rdi
	vzeroupper
	callq	___rust_dealloc
	jmp	LBB88_87
LBB88_94:
	movq	%r14, 176(%rsp)
	movq	8(%rsp), %rbx
LBB88_95:
	cmpq	%r14, %r13
	jne	LBB88_97
	jmp	LBB88_106
	.p2align	4, 0x90
LBB88_96:
	addq	$72, %r14
	cmpq	%r13, %r14
	je	LBB88_106
LBB88_97:
	movq	8(%r14), %rsi
	testq	%rsi, %rsi
	je	LBB88_101
	movq	(%r14), %rdi
	testq	%rdi, %rdi
	je	LBB88_101
	shlq	$2, %rsi
	testq	%rsi, %rsi
	je	LBB88_101
	movl	$4, %edx
	vzeroupper
	callq	___rust_dealloc
LBB88_101:
	movq	32(%r14), %rax
	testq	%rax, %rax
	je	LBB88_96
	movq	24(%r14), %rdi
	testq	%rdi, %rdi
	je	LBB88_96
	shlq	$2, %rax
	leaq	(%rax,%rax,4), %rsi
	testq	%rsi, %rsi
	je	LBB88_96
	movl	$4, %edx
	vzeroupper
	callq	___rust_dealloc
	jmp	LBB88_96
LBB88_105:
	movq	%r13, 176(%rsp)
	movq	8(%rsp), %rbx
LBB88_106:
	leaq	424(%rsp), %r14
	testq	%rbx, %rbx
	je	LBB88_109
	shlq	$3, %rbx
	leaq	(%rbx,%rbx,8), %rsi
	testq	%rsi, %rsi
	je	LBB88_109
	movl	$8, %edx
	movq	224(%rsp), %rdi
	vzeroupper
	callq	___rust_dealloc
LBB88_109:
	movq	416(%rsp), %rax
	movl	368(%rsp), %ecx
	movl	%ecx, 48(%rax)
Ltmp317:
	leaq	320(%rsp), %rsi
	movq	%r14, %rdi
	vzeroupper
	callq	__ZN3cfg5remap7Mapping9translate17h459f96ff8836abdfE
Ltmp318:
	movq	328(%rsp), %rsi
	testq	%rsi, %rsi
	je	LBB88_114
	movq	320(%rsp), %rdi
	testq	%rdi, %rdi
	je	LBB88_114
	shlq	$3, %rsi
	testq	%rsi, %rsi
	je	LBB88_114
	movl	$4, %edx
	callq	___rust_dealloc
LBB88_114:
	movq	352(%rsp), %rsi
	testq	%rsi, %rsi
	je	LBB88_118
	movq	344(%rsp), %rdi
	testq	%rdi, %rdi
	je	LBB88_118
	shlq	$2, %rsi
	testq	%rsi, %rsi
	je	LBB88_118
	movl	$4, %edx
	callq	___rust_dealloc
LBB88_118:
	leaq	520(%rsp), %rax
	movq	%rax, 576(%rsp)
	movq	416(%rsp), %rax
	movl	48(%rax), %esi
Ltmp320:
	leaq	320(%rsp), %rdi
	callq	__ZN3cfg5remap7Mapping3new17ha02029fa5249f18dE
Ltmp321:
	movq	416(%rsp), %rax
	movl	48(%rax), %r14d
	movq	$4, 16(%rsp)
	vpxor	%xmm0, %xmm0, %xmm0
	vmovdqu	%xmm0, 24(%rsp)
Ltmp323:
	leaq	16(%rsp), %rdi
	movq	%r14, %rsi
	callq	__ZN5alloc3vec12Vec$LT$T$GT$7reserve17h35d1e0dc15cd4847E
Ltmp324:
	movq	32(%rsp), %r9
	testl	%r14d, %r14d
	je	LBB88_134
	movq	16(%rsp), %r8
	leaq	(%r8,%r9,4), %rcx
	cmpl	$16, %r14d
	jae	LBB88_123
	xorl	%esi, %esi
	jmp	LBB88_132
LBB88_123:
	movl	%r14d, %esi
	andl	$-16, %esi
	leaq	-16(%rsi), %rax
	movq	%rax, %rdi
	shrq	$4, %rdi
	incq	%rdi
	movl	%edi, %ebx
	andl	$7, %ebx
	cmpq	$112, %rax
	jae	LBB88_125
	vmovdqa	LCPI88_0(%rip), %ymm0
	xorl	%edi, %edi
	testq	%rbx, %rbx
	jne	LBB88_128
	jmp	LBB88_130
LBB88_125:
	leaq	(%r8,%r9,4), %rax
	addq	$480, %rax
	movq	%rbx, %rdx
	subq	%rdi, %rdx
	vmovdqa	LCPI88_0(%rip), %ymm0
	xorl	%edi, %edi
	vbroadcastss	LCPI88_1(%rip), %ymm1
	vmovaps	%ymm1, 288(%rsp)
	vbroadcastss	LCPI88_2(%rip), %ymm1
	vmovaps	%ymm1, 224(%rsp)
	vpbroadcastd	LCPI88_3(%rip), %ymm3
	vpbroadcastd	LCPI88_4(%rip), %ymm4
	vpbroadcastd	LCPI88_5(%rip), %ymm5
	vpbroadcastd	LCPI88_6(%rip), %ymm6
	vpbroadcastd	LCPI88_7(%rip), %ymm7
	vpbroadcastd	LCPI88_8(%rip), %ymm8
	vpbroadcastd	LCPI88_9(%rip), %ymm9
	vpbroadcastd	LCPI88_10(%rip), %ymm10
	vpbroadcastd	LCPI88_11(%rip), %ymm11
	vpbroadcastd	LCPI88_12(%rip), %ymm12
	vpbroadcastd	LCPI88_13(%rip), %ymm13
	vpbroadcastd	LCPI88_14(%rip), %ymm14
	vpbroadcastd	LCPI88_15(%rip), %ymm15
	vpbroadcastd	LCPI88_16(%rip), %ymm1
	.p2align	4, 0x90
LBB88_126:
	vmovdqu	%ymm0, -480(%rax,%rdi,4)
	vpaddd	288(%rsp), %ymm0, %ymm2
	vmovdqu	%ymm2, -448(%rax,%rdi,4)
	vpaddd	224(%rsp), %ymm0, %ymm2
	vmovdqu	%ymm2, -416(%rax,%rdi,4)
	vpaddd	%ymm3, %ymm0, %ymm2
	vmovdqu	%ymm2, -384(%rax,%rdi,4)
	vpaddd	%ymm4, %ymm0, %ymm2
	vmovdqu	%ymm2, -352(%rax,%rdi,4)
	vpaddd	%ymm5, %ymm0, %ymm2
	vmovdqu	%ymm2, -320(%rax,%rdi,4)
	vpaddd	%ymm6, %ymm0, %ymm2
	vmovdqu	%ymm2, -288(%rax,%rdi,4)
	vpaddd	%ymm7, %ymm0, %ymm2
	vmovdqu	%ymm2, -256(%rax,%rdi,4)
	vpaddd	%ymm8, %ymm0, %ymm2
	vmovdqu	%ymm2, -224(%rax,%rdi,4)
	vpaddd	%ymm9, %ymm0, %ymm2
	vmovdqu	%ymm2, -192(%rax,%rdi,4)
	vpaddd	%ymm10, %ymm0, %ymm2
	vmovdqu	%ymm2, -160(%rax,%rdi,4)
	vpaddd	%ymm11, %ymm0, %ymm2
	vmovdqu	%ymm2, -128(%rax,%rdi,4)
	vpaddd	%ymm12, %ymm0, %ymm2
	vmovdqu	%ymm2, -96(%rax,%rdi,4)
	vpaddd	%ymm13, %ymm0, %ymm2
	vmovdqu	%ymm2, -64(%rax,%rdi,4)
	vpaddd	%ymm14, %ymm0, %ymm2
	vmovdqu	%ymm2, -32(%rax,%rdi,4)
	vpaddd	%ymm15, %ymm0, %ymm2
	vmovdqu	%ymm2, (%rax,%rdi,4)
	subq	$-128, %rdi
	vpaddd	%ymm1, %ymm0, %ymm0
	addq	$8, %rdx
	jne	LBB88_126
	testq	%rbx, %rbx
	je	LBB88_130
LBB88_128:
	addq	%r9, %rdi
	leaq	(%r8,%rdi,4), %rax
	addq	$32, %rax
	negq	%rbx
	vpbroadcastd	LCPI88_1(%rip), %ymm1
	vpbroadcastd	LCPI88_2(%rip), %ymm2
	.p2align	4, 0x90
LBB88_129:
	vmovdqu	%ymm0, -32(%rax)
	vpaddd	%ymm1, %ymm0, %ymm3
	vmovdqu	%ymm3, (%rax)
	vpaddd	%ymm2, %ymm0, %ymm0
	addq	$64, %rax
	incq	%rbx
	jne	LBB88_129
LBB88_130:
	cmpq	%r14, %rsi
	je	LBB88_133
	leaq	(%rcx,%rsi,4), %rcx
	.p2align	4, 0x90
LBB88_132:
	movl	%esi, (%rcx)
	leaq	1(%rsi), %rax
	addq	$4, %rcx
	movq	%rax, %rsi
	cmpq	%rax, %r14
	jne	LBB88_132
LBB88_133:
	addq	%r14, %r9
LBB88_134:
	vmovups	16(%rsp), %xmm0
	vmovaps	%xmm0, 96(%rsp)
	movq	%r9, 112(%rsp)
	leaq	344(%rsp), %rbx
	movq	352(%rsp), %rsi
	testq	%rsi, %rsi
	je	LBB88_138
	movq	344(%rsp), %rdi
	testq	%rdi, %rdi
	je	LBB88_138
	shlq	$2, %rsi
	testq	%rsi, %rsi
	je	LBB88_138
	movl	$4, %edx
	vzeroupper
	callq	___rust_dealloc
LBB88_138:
	movq	112(%rsp), %rax
	movq	%rax, 16(%rbx)
	vmovdqa	96(%rsp), %xmm0
	vmovdqu	%xmm0, (%rbx)
	movq	344(%rsp), %r12
	movq	360(%rsp), %rcx
	leaq	576(%rsp), %rax
	movq	%rax, 392(%rsp)
	leaq	392(%rsp), %rax
	movq	%rax, 256(%rsp)
	cmpq	$21, %rcx
	movq	%r12, 8(%rsp)
	movq	%rcx, 144(%rsp)
	jae	LBB88_154
	cmpq	$2, %rcx
	jb	LBB88_256
	movq	144(%rsp), %rax
	leaq	-1(%rax), %r12
	movq	8(%rsp), %rcx
	leaq	(%rcx,%rax,4), %r13
	addq	$-4, %r13
	xorl	%r14d, %r14d
	jmp	LBB88_144
LBB88_141:
	leaq	(%rcx,%rbx,4), %r15
LBB88_142:
	movl	288(%rsp), %eax
	movl	%eax, (%r15)
LBB88_143:
	addq	$-4, %r13
	incq	%r14
	testq	%r12, %r12
	je	LBB88_256
LBB88_144:
	movq	%r12, %rbx
	decq	%r12
	movq	144(%rsp), %r15
	subq	%r12, %r15
	jb	LBB88_373
	cmpq	$2, %r15
	jb	LBB88_143
	movq	8(%rsp), %rax
	movl	-4(%rax,%rbx,4), %edx
	movl	(%rax,%rbx,4), %esi
Ltmp372:
	leaq	256(%rsp), %rdi
	vzeroupper
	callq	__ZN5alloc5slice29_$LT$impl$u20$$u5b$T$u5d$$GT$7sort_by28_$u7b$$u7b$closure$u7d$$u7d$17hbba0e17172afa105E
Ltmp373:
	testb	%al, %al
	je	LBB88_143
	movq	8(%rsp), %rcx
	movl	-4(%rcx,%rbx,4), %eax
	movl	%eax, 288(%rsp)
	movl	(%rcx,%rbx,4), %eax
	movl	%eax, -4(%rcx,%rbx,4)
	cmpq	$3, %r15
	jb	LBB88_141
	movq	%r14, %rbx
	movq	%r13, %r15
	.p2align	4, 0x90
LBB88_150:
	movl	4(%r15), %esi
Ltmp375:
	leaq	256(%rsp), %rdi
	movl	288(%rsp), %edx
	callq	__ZN5alloc5slice29_$LT$impl$u20$$u5b$T$u5d$$GT$7sort_by28_$u7b$$u7b$closure$u7d$$u7d$17hbba0e17172afa105E
Ltmp376:
	testb	%al, %al
	je	LBB88_142
	leaq	4(%r15), %rax
	movl	4(%r15), %ecx
	movl	%ecx, (%r15)
	movq	%rax, %r15
	decq	%rbx
	jne	LBB88_150
	movq	%rax, %r15
	jmp	LBB88_142
LBB88_154:
	movq	%rcx, %rax
	shrq	%rax
	movl	$4, %ecx
	xorl	%ebx, %ebx
	mulq	%rcx
	movq	%rax, %r14
	setno	%al
	jo	LBB88_391
	movb	%al, %bl
	shlq	$2, %rbx
	testq	%r14, %r14
	je	LBB88_157
	movq	%r14, %rdi
	movq	%rbx, %rsi
	vzeroupper
	callq	___rust_alloc
	testq	%rax, %rax
	jne	LBB88_158
	jmp	LBB88_367
LBB88_157:
	movq	%rbx, %rax
	testq	%rax, %rax
	je	LBB88_367
LBB88_158:
	shrq	$2, %r14
	movq	%rax, 160(%rsp)
	movq	%r14, 168(%rsp)
	movq	$8, 96(%rsp)
	vpxor	%xmm0, %xmm0, %xmm0
	vmovdqu	%xmm0, 104(%rsp)
	movq	$0, 176(%rsp)
	leaq	-8(%r12), %rax
	movq	%rax, 560(%rsp)
	leaq	-4(%r12), %rax
	movq	%rax, 480(%rsp)
	leaq	4(%r12), %rax
	movq	%rax, 568(%rsp)
	movq	144(%rsp), %r14
	movq	%r14, %rax
	decq	%rax
	movq	%rax, 200(%rsp)
	jne	LBB88_161
	jmp	LBB88_172
	.p2align	4, 0x90
LBB88_159:
	movq	488(%rsp), %r14
	testq	%r14, %r14
	je	LBB88_248
	movq	%r14, %rax
	decq	%rax
	movq	%rax, 200(%rsp)
	je	LBB88_172
LBB88_161:
	movl	-8(%r12,%r14,4), %edx
	movl	-4(%r12,%r14,4), %esi
Ltmp326:
	leaq	256(%rsp), %rdi
	vzeroupper
	callq	__ZN5alloc5slice29_$LT$impl$u20$$u5b$T$u5d$$GT$7sort_by28_$u7b$$u7b$closure$u7d$$u7d$17hbba0e17172afa105E
Ltmp327:
	testb	%al, %al
	je	LBB88_173
	movq	560(%rsp), %rax
	movq	%r14, 224(%rsp)
	leaq	(%rax,%r14,4), %rcx
	movl	$2, %edx
	.p2align	4, 0x90
LBB88_164:
	movq	%rdx, %r13
	movq	%rcx, %rbx
	movq	224(%rsp), %r14
	subq	%rdx, %r14
	je	LBB88_167
	movl	-4(%rbx), %edx
	movl	(%rbx), %esi
Ltmp331:
	leaq	256(%rsp), %rdi
	callq	__ZN5alloc5slice29_$LT$impl$u20$$u5b$T$u5d$$GT$7sort_by28_$u7b$$u7b$closure$u7d$$u7d$17hbba0e17172afa105E
Ltmp332:
	leaq	1(%r13), %rdx
	leaq	-4(%rbx), %rcx
	testb	%al, %al
	jne	LBB88_164
LBB88_167:
	movq	224(%rsp), %rsi
	cmpq	%r14, %rsi
	jb	LBB88_385
	cmpq	144(%rsp), %rsi
	ja	LBB88_386
	movq	%r13, %r8
	shrq	%r8
	je	LBB88_184
	leaq	-1(%r8), %rcx
	cmpq	$3, %rcx
	jae	LBB88_179
	xorl	%ecx, %ecx
	testb	$3, %r8b
	jne	LBB88_182
	jmp	LBB88_184
	.p2align	4, 0x90
LBB88_172:
	movl	$1, %r13d
	xorl	%ebx, %ebx
	jmp	LBB88_205
	.p2align	4, 0x90
LBB88_173:
	leaq	-2(%r14), %rbx
	movl	$1, %r13d
	.p2align	4, 0x90
LBB88_174:
	testq	%rbx, %rbx
	je	LBB88_178
	movl	-4(%r12,%rbx,4), %edx
	movl	(%r12,%rbx,4), %esi
Ltmp328:
	leaq	256(%rsp), %rdi
	callq	__ZN5alloc5slice29_$LT$impl$u20$$u5b$T$u5d$$GT$7sort_by28_$u7b$$u7b$closure$u7d$$u7d$17hbba0e17172afa105E
Ltmp329:
	decq	%rbx
	incq	%r13
	testb	%al, %al
	je	LBB88_174
	movq	%r14, 224(%rsp)
	subq	%r13, %r14
	cmpq	$9, %r13
	ja	LBB88_204
LBB88_185:
	testq	%r14, %r14
	je	LBB88_204
	movq	224(%rsp), %rax
	cmpq	144(%rsp), %rax
	ja	LBB88_387
	leaq	(%r12,%r14,4), %r12
	.p2align	4, 0x90
LBB88_188:
	leaq	-1(%r14), %rbx
	movq	224(%rsp), %r13
	subq	%rbx, %r13
	jb	LBB88_362
	cmpq	$2, %r13
	jb	LBB88_201
	movq	8(%rsp), %rax
	movl	-4(%rax,%r14,4), %edx
	movl	(%rax,%r14,4), %esi
Ltmp334:
	leaq	256(%rsp), %rdi
	callq	__ZN5alloc5slice29_$LT$impl$u20$$u5b$T$u5d$$GT$7sort_by28_$u7b$$u7b$closure$u7d$$u7d$17hbba0e17172afa105E
Ltmp335:
	testb	%al, %al
	je	LBB88_201
	movq	%rbx, 488(%rsp)
	movq	8(%rsp), %rcx
	movl	-4(%rcx,%r14,4), %eax
	movl	%eax, 288(%rsp)
	movl	(%rcx,%r14,4), %eax
	movl	%eax, -4(%rcx,%r14,4)
	cmpq	$3, %r13
	jb	LBB88_199
	movq	200(%rsp), %r15
	movq	%r12, %rbx
	.p2align	4, 0x90
LBB88_194:
	movl	4(%rbx), %esi
Ltmp337:
	leaq	256(%rsp), %rdi
	movl	288(%rsp), %edx
	callq	__ZN5alloc5slice29_$LT$impl$u20$$u5b$T$u5d$$GT$7sort_by28_$u7b$$u7b$closure$u7d$$u7d$17hbba0e17172afa105E
Ltmp338:
	testb	%al, %al
	je	LBB88_198
	leaq	4(%rbx), %rax
	movl	4(%rbx), %ecx
	movl	%ecx, (%rbx)
	decq	%r15
	movq	%rax, %rbx
	cmpq	%r15, %r14
	jne	LBB88_194
	movq	%rax, %rbx
LBB88_198:
	movq	(%rsp), %r15
	jmp	LBB88_200
LBB88_199:
	leaq	(%rcx,%r14,4), %rbx
LBB88_200:
	movl	288(%rsp), %eax
	movl	%eax, (%rbx)
	movq	488(%rsp), %rbx
LBB88_201:
	testq	%rbx, %rbx
	je	LBB88_205
	addq	$-4, %r12
	movq	%rbx, %r14
	cmpq	$10, %r13
	jb	LBB88_188
	jmp	LBB88_205
LBB88_178:
	xorl	%ebx, %ebx
	movq	%r14, %r13
	jmp	LBB88_205
LBB88_179:
	movq	480(%rsp), %rax
	movq	224(%rsp), %rcx
	leaq	(%rax,%rcx,4), %rdx
	movl	%r8d, %ecx
	andl	$3, %ecx
	movq	%r8, %rsi
	subq	%rcx, %rsi
	xorl	%ecx, %ecx
	.p2align	4, 0x90
LBB88_180:
	movl	(%rbx,%rcx,4), %edi
	movl	(%rdx), %eax
	movl	%eax, (%rbx,%rcx,4)
	movl	%edi, (%rdx)
	movl	4(%rbx,%rcx,4), %eax
	movl	-4(%rdx), %edi
	movl	%edi, 4(%rbx,%rcx,4)
	movl	%eax, -4(%rdx)
	movl	8(%rbx,%rcx,4), %eax
	movl	-8(%rdx), %edi
	movl	%edi, 8(%rbx,%rcx,4)
	movl	%eax, -8(%rdx)
	movl	12(%rbx,%rcx,4), %eax
	movl	-12(%rdx), %edi
	movl	%edi, 12(%rbx,%rcx,4)
	movl	%eax, -12(%rdx)
	addq	$4, %rcx
	addq	$-16, %rdx
	cmpq	%rcx, %rsi
	jne	LBB88_180
	testb	$3, %r8b
	je	LBB88_184
LBB88_182:
	leaq	(%rbx,%rcx,4), %rax
	movq	224(%rsp), %rdx
	subq	%rcx, %rdx
	movq	480(%rsp), %rcx
	leaq	(%rcx,%rdx,4), %rcx
	movl	%r13d, %edx
	shrl	%edx
	andl	$3, %edx
	xorl	%esi, %esi
	.p2align	4, 0x90
LBB88_183:
	movl	(%rax,%rsi,4), %edi
	movl	(%rcx), %ebx
	movl	%ebx, (%rax,%rsi,4)
	movl	%edi, (%rcx)
	incq	%rsi
	addq	$-4, %rcx
	cmpq	%rsi, %rdx
	jne	LBB88_183
LBB88_184:
	cmpq	$9, %r13
	jbe	LBB88_185
LBB88_204:
	movq	%r14, %rbx
LBB88_205:
Ltmp348:
	leaq	96(%rsp), %rdi
	movq	%rbx, 488(%rsp)
	movq	%rbx, %rsi
	movq	%r13, %rdx
	vzeroupper
	callq	__ZN5alloc3vec12Vec$LT$T$GT$4push17h4ccca563008a4afcE
Ltmp349:
	movq	8(%rsp), %r12
	movq	112(%rsp), %rbx
	cmpq	$2, %rbx
	jb	LBB88_159
	movq	96(%rsp), %r14
	.p2align	4, 0x90
LBB88_208:
	leaq	-1(%rbx), %rcx
	shlq	$4, %rcx
	cmpq	$0, (%r14,%rcx)
	je	LBB88_214
	movq	%rbx, %rdx
	shlq	$4, %rdx
	movq	-24(%rdx,%r14), %rsi
	movq	8(%r14,%rcx), %rax
	cmpq	%rax, %rsi
	jbe	LBB88_214
	cmpq	$2, %rbx
	jbe	LBB88_159
	leaq	-3(%rbx), %rdi
	movq	%rdi, %rcx
	shlq	$4, %rcx
	movq	8(%r14,%rcx), %r8
	leaq	(%rax,%rsi), %rcx
	cmpq	%rcx, %r8
	jbe	LBB88_216
	cmpq	$3, %rbx
	jbe	LBB88_159
	addq	%r8, %rsi
	cmpq	%rsi, -56(%rdx,%r14)
	jbe	LBB88_216
	jmp	LBB88_159
	.p2align	4, 0x90
LBB88_214:
	cmpq	$3, %rbx
	jb	LBB88_217
	leaq	-3(%rbx), %rdi
	movq	%rdi, %rax
	shlq	$4, %rax
	movq	8(%r14,%rax), %r8
	movq	8(%r14,%rcx), %rax
LBB88_216:
	cmpq	%rax, %r8
	jb	LBB88_218
LBB88_217:
	leaq	-2(%rbx), %rdi
LBB88_218:
	leaq	1(%rdi), %r8
	cmpq	%r8, %rbx
	jbe	LBB88_356
	cmpq	%rdi, %rbx
	jbe	LBB88_357
	movq	%r8, %rcx
	shlq	$4, %rcx
	movq	(%r14,%rcx), %rsi
	movq	%rdi, %rdx
	shlq	$4, %rdx
	movq	8(%r14,%rdx), %rax
	movq	(%r14,%rdx), %r13
	addq	%rax, %r13
	movq	%r13, %rbx
	subq	%rsi, %rbx
	jb	LBB88_360
	cmpq	144(%rsp), %r13
	ja	LBB88_361
	movq	%rax, 496(%rsp)
	movq	%rdx, 216(%rsp)
	movq	%r8, 384(%rsp)
	movq	%rdi, 200(%rsp)
	movq	%rcx, 152(%rsp)
	movq	8(%r14,%rcx), %rax
	movq	%rsi, 224(%rsp)
	leaq	(%r12,%rsi,4), %rcx
	movq	160(%rsp), %r14
	leaq	(%rcx,%rax,4), %r12
	movq	%rbx, %r15
	subq	%rax, %r15
	cmpq	%rax, %r15
	movq	%rax, 288(%rsp)
	movq	%rcx, 512(%rsp)
	jae	LBB88_233
	leaq	(,%r15,4), %rdx
	movq	%r14, %rdi
	movq	%r12, %rsi
	callq	_memcpy
	movq	%r15, %rax
	leaq	(%r14,%r15,4), %r15
	movq	%r14, 16(%rsp)
	movq	%r15, 24(%rsp)
	movq	%r12, 32(%rsp)
	cmpq	$0, 288(%rsp)
	jle	LBB88_244
	testq	%rax, %rax
	jle	LBB88_244
	movq	480(%rsp), %rax
	leaq	(%rax,%r13,4), %rbx
	movq	512(%rsp), %r13
	.p2align	4, 0x90
LBB88_226:
	movl	-4(%r15), %esi
	movl	-4(%r12), %edx
Ltmp358:
	leaq	256(%rsp), %rdi
	callq	__ZN5alloc5slice29_$LT$impl$u20$$u5b$T$u5d$$GT$7sort_by28_$u7b$$u7b$closure$u7d$$u7d$17hbba0e17172afa105E
Ltmp359:
	testb	%al, %al
	je	LBB88_229
	addq	$-4, %r12
	movq	%r12, 32(%rsp)
	movq	%r12, %r15
	jmp	LBB88_230
	.p2align	4, 0x90
LBB88_229:
	addq	$-4, %r15
	movq	%r15, 24(%rsp)
LBB88_230:
	movl	(%r15), %eax
	movl	%eax, (%rbx)
	movq	24(%rsp), %r15
	movq	32(%rsp), %r12
	cmpq	%r12, %r13
	jae	LBB88_232
	addq	$-4, %rbx
	cmpq	%r14, %r15
	ja	LBB88_226
LBB88_232:
	movq	16(%rsp), %r14
LBB88_244:
	movq	%r12, %rdi
	jmp	LBB88_245
	.p2align	4, 0x90
LBB88_233:
	leaq	(,%rax,4), %rdx
	movq	%r14, %rdi
	movq	%rcx, %rsi
	callq	_memcpy
	movq	288(%rsp), %rax
	leaq	(%r14,%rax,4), %r15
	movq	%r14, 16(%rsp)
	movq	%r15, 24(%rsp)
	movq	512(%rsp), %rcx
	movq	%rcx, %rdi
	movq	%rcx, 32(%rsp)
	testq	%rax, %rax
	jle	LBB88_245
	cmpq	%rax, %rbx
	jle	LBB88_245
	movq	8(%rsp), %rax
	leaq	(%rax,%r13,4), %r13
	movq	568(%rsp), %rax
	movq	224(%rsp), %rcx
	leaq	(%rax,%rcx,4), %rbx
	.p2align	4, 0x90
LBB88_236:
	movl	(%r12), %esi
	movl	(%r14), %edx
Ltmp355:
	leaq	256(%rsp), %rdi
	callq	__ZN5alloc5slice29_$LT$impl$u20$$u5b$T$u5d$$GT$7sort_by28_$u7b$$u7b$closure$u7d$$u7d$17hbba0e17172afa105E
Ltmp356:
	testb	%al, %al
	je	LBB88_239
	leaq	4(%r12), %rax
	movq	%r12, %r14
	jmp	LBB88_240
	.p2align	4, 0x90
LBB88_239:
	leaq	4(%r14), %rax
	movq	%rax, 16(%rsp)
	movq	%r12, %rax
LBB88_240:
	movq	%rbx, 32(%rsp)
	movl	(%r14), %ecx
	movl	%ecx, -4(%rbx)
	movq	16(%rsp), %r14
	cmpq	%r13, %rax
	jae	LBB88_242
	addq	$4, %rbx
	movq	%rax, %r12
	cmpq	%r15, %r14
	jb	LBB88_236
LBB88_242:
	movq	24(%rsp), %r15
	movq	32(%rsp), %rdi
LBB88_245:
	subq	%r14, %r15
	andq	$-4, %r15
	movq	%r14, %rsi
	movq	%r15, %rdx
	callq	_memcpy
	movq	112(%rsp), %rbx
	movq	200(%rsp), %rdi
	cmpq	%rdi, %rbx
	movq	8(%rsp), %r12
	jbe	LBB88_358
	movq	96(%rsp), %r14
	movq	496(%rsp), %rdx
	addq	288(%rsp), %rdx
	movq	224(%rsp), %rax
	movq	216(%rsp), %rcx
	movq	%rax, (%r14,%rcx)
	movq	%rdx, 8(%r14,%rcx)
	movq	384(%rsp), %rdx
	cmpq	%rdx, %rbx
	movq	(%rsp), %r15
	jbe	LBB88_359
	movq	152(%rsp), %rax
	leaq	(%r14,%rax), %rdi
	leaq	(%r14,%rax), %rsi
	addq	$16, %rsi
	notq	%rdx
	addq	%rbx, %rdx
	shlq	$4, %rdx
	callq	_memmove
	decq	%rbx
	movq	%rbx, 112(%rsp)
	cmpq	$1, %rbx
	ja	LBB88_208
	jmp	LBB88_159
LBB88_248:
	movq	104(%rsp), %rsi
	testq	%rsi, %rsi
	je	LBB88_252
	movq	96(%rsp), %rdi
	testq	%rdi, %rdi
	je	LBB88_252
	shlq	$4, %rsi
	je	LBB88_252
	movl	$8, %edx
	callq	___rust_dealloc
LBB88_252:
	movq	168(%rsp), %rsi
	testq	%rsi, %rsi
	je	LBB88_256
	movq	160(%rsp), %rdi
	testq	%rdi, %rdi
	je	LBB88_256
	shlq	$2, %rsi
	testq	%rsi, %rsi
	je	LBB88_256
	movl	$4, %edx
	callq	___rust_dealloc
LBB88_256:
	movq	360(%rsp), %rax
	testq	%rax, %rax
	movq	(%rsp), %r15
	leaq	424(%rsp), %rbx
	je	LBB88_260
	movq	344(%rsp), %rcx
	shlq	$2, %rax
	xorl	%edx, %edx
	.p2align	4, 0x90
LBB88_258:
	movl	(%rcx,%rdx,4), %edi
	movq	336(%rsp), %rsi
	cmpq	%rdi, %rsi
	jbe	LBB88_364
	movq	320(%rsp), %rsi
	movl	$1, (%rsi,%rdi,8)
	movl	%edx, 4(%rsi,%rdi,8)
	incq	%rdx
	addq	$-4, %rax
	jne	LBB88_258
LBB88_260:
Ltmp380:
	leaq	320(%rsp), %r12
	movq	%rbx, %rdi
	movq	%r12, %rsi
	vzeroupper
	callq	__ZN3cfg5remap7Mapping9translate17h459f96ff8836abdfE
Ltmp381:
	movq	%r12, 208(%rsp)
	movq	$8, 392(%rsp)
	vpxor	%xmm0, %xmm0, %xmm0
	vmovdqu	%xmm0, 400(%rsp)
	movq	416(%rsp), %rcx
	movq	16(%rcx), %rax
	movq	%rax, 152(%rsp)
	testq	%rax, %rax
	je	LBB88_307
	movq	%rcx, 216(%rsp)
	movq	(%rcx), %r9
	movl	40(%r9), %edi
	movq	336(%rsp), %rsi
	cmpq	%rdi, %rsi
	jbe	LBB88_366
	xorl	%r14d, %r14d
	cmpl	$1, 44(%r9)
	sete	%r14b
	incq	%r14
	leaq	48(%r9), %r13
	movl	$1, %eax
	xorl	%r15d, %r15d
	movq	%r9, %r10
	xorl	%r8d, %r8d
	movq	%r9, 288(%rsp)
	movq	%rax, %rbx
	movq	(%r12), %rax
	cmpl	$0, (%rax,%rdi,8)
	jne	LBB88_265
	jmp	LBB88_365
LBB88_297:
	xorl	%r8d, %r8d
	cmpq	152(%rsp), %rbx
	je	LBB88_298
	.p2align	4, 0x90
LBB88_293:
	movq	208(%rsp), %r12
	leaq	1(%rbx), %rax
	imulq	$56, %rbx, %rcx
	leaq	(%r9,%rcx), %r10
	xorl	%r14d, %r14d
	cmpl	$1, 44(%r9,%rcx)
	movl	40(%r9,%rcx), %edi
	sete	%r14b
	incq	%r14
	addq	$56, %r13
	movq	16(%r12), %rsi
	movq	%rbx, %r15
	cmpq	%rdi, %rsi
	jbe	LBB88_366
	movq	%rax, %rbx
	movq	(%r12), %rax
	cmpl	$0, (%rax,%rdi,8)
	je	LBB88_365
LBB88_265:
	movl	4(%rax,%rdi,8), %r11d
	cmpl	%edi, %r11d
	jne	LBB88_281
	imulq	$56, %r15, %rcx
	addq	%r9, %rcx
	leaq	(%rcx,%r14,4), %rcx
	addq	$48, %rcx
	cmpq	%rcx, %r13
	je	LBB88_294
	movl	(%r13), %edx
	cmpq	%rdx, %rsi
	jbe	LBB88_371
	cmpl	$0, (%rax,%rdx,8)
	je	LBB88_372
	cmpl	%edx, 4(%rax,%rdx,8)
	jne	LBB88_281
	leaq	4(%r13), %rdx
	cmpq	%rcx, %rdx
	je	LBB88_294
	movl	4(%r13), %edx
	cmpq	%rdx, %rsi
	jbe	LBB88_371
	cmpl	$0, (%rax,%rdx,8)
	je	LBB88_372
	cmpl	%edx, 4(%rax,%rdx,8)
	jne	LBB88_281
	leaq	8(%r13), %rdx
	cmpq	%rcx, %rdx
	je	LBB88_294
	movl	8(%r13), %edx
	cmpq	%rdx, %rsi
	jbe	LBB88_371
	cmpl	$0, (%rax,%rdx,8)
	je	LBB88_372
	cmpl	%edx, 4(%rax,%rdx,8)
	jne	LBB88_281
	leaq	12(%r13), %rdx
	cmpq	%rcx, %rdx
	je	LBB88_294
	movl	(%rdx), %edx
	cmpq	%rdx, %rsi
	jbe	LBB88_371
	cmpl	$0, (%rax,%rdx,8)
	je	LBB88_372
	.p2align	4, 0x90
LBB88_281:
	movq	%r15, 224(%rsp)
	movl	%r11d, %r15d
	movq	%r10, %r12
	movq	%rbx, 200(%rsp)
	movq	%r8, 8(%rsp)
	movq	$4, 160(%rsp)
	leaq	168(%rsp), %rax
	vpxor	%xmm0, %xmm0, %xmm0
	vmovdqu	%xmm0, (%rax)
Ltmp385:
	leaq	160(%rsp), %rdi
	movq	%r14, %rsi
	vzeroupper
	callq	__ZN5alloc3vec12Vec$LT$T$GT$7reserve17h35d1e0dc15cd4847E
Ltmp386:
	movq	160(%rsp), %rax
	movq	176(%rsp), %rcx
	leaq	(%rax,%rcx,4), %rdx
	movq	%rdx, 96(%rsp)
	leaq	176(%rsp), %rax
	movq	%rax, 104(%rsp)
	movq	%rcx, 112(%rsp)
	leaq	208(%rsp), %rax
	movq	%rax, 120(%rsp)
	negq	%rcx
	shlq	$2, %r14
	xorl	%ebx, %ebx
	movq	%r12, %r8
	movq	224(%rsp), %r10
	.p2align	4, 0x90
LBB88_283:
	movl	(%r13,%rbx), %edi
	movq	208(%rsp), %rax
	movq	16(%rax), %rsi
	cmpq	%rdi, %rsi
	jbe	LBB88_353
	movq	(%rax), %rax
	cmpl	$0, (%rax,%rdi,8)
	je	LBB88_354
	movl	4(%rax,%rdi,8), %eax
	movl	%eax, (%rdx,%rbx)
	decq	%rcx
	addq	$4, %rbx
	cmpq	%rbx, %r14
	jne	LBB88_283
	movl	%r15d, 384(%rsp)
	negq	%rcx
	vmovdqu	160(%rsp), %xmm0
	vmovdqa	%xmm0, 256(%rsp)
	movq	%rcx, 272(%rsp)
	imulq	$56, %r10, %r15
	movq	288(%rsp), %rax
	movq	16(%rax,%r15), %r12
	xorl	%ebx, %ebx
	movq	%r12, %rax
	movl	$20, %ecx
	mulq	%rcx
	movq	%rax, %r14
	setno	%al
	jo	LBB88_370
	movb	%al, %bl
	shlq	$2, %rbx
	movq	(%r8), %rax
	movq	%rax, 224(%rsp)
	testq	%r14, %r14
	je	LBB88_289
	movq	%r14, %rdi
	movq	%rbx, %rsi
	callq	___rust_alloc
	movq	%rax, %rcx
	testq	%rcx, %rcx
	jne	LBB88_290
	jmp	LBB88_367
	.p2align	4, 0x90
LBB88_289:
	movq	%rbx, %rcx
	testq	%rcx, %rcx
	je	LBB88_367
LBB88_290:
	movq	%r14, %rax
	movabsq	$-3689348814741910323, %rdx
	mulq	%rdx
	shrq	$4, %rdx
	movq	%rcx, 96(%rsp)
	movq	%rdx, 104(%rsp)
	movq	$0, 112(%rsp)
Ltmp390:
	leaq	96(%rsp), %rdi
	movq	%r12, %rsi
	callq	__ZN5alloc3vec12Vec$LT$T$GT$7reserve17hd253ad3989e49a56E
Ltmp391:
	movq	112(%rsp), %rbx
	leaq	(%rbx,%rbx,4), %rdi
	shlq	$2, %rdi
	addq	96(%rsp), %rdi
	movq	224(%rsp), %rsi
	movq	%r14, %rdx
	callq	_memcpy
	addq	%rbx, %r12
	movq	%r12, 112(%rsp)
	movq	%r12, 176(%rsp)
	vmovdqu	96(%rsp), %xmm0
	vmovdqa	%xmm0, 160(%rsp)
	movq	288(%rsp), %rdx
	movq	28(%rdx,%r15), %rax
	xorl	%ecx, %ecx
	cmpl	$1, 24(%rdx,%r15)
	sete	%cl
	movb	36(%rdx,%r15), %bl
	movl	%ebx, %edx
	andb	$1, %dl
	cmpb	$2, %bl
	movzbl	%dl, %edx
	movl	$2, %esi
	cmovel	%esi, %edx
	vmovdqa	256(%rsp), %xmm1
	vmovdqa	%xmm1, 16(%rsp)
	movq	272(%rsp), %rsi
	movq	%rsi, 32(%rsp)
	movl	384(%rsp), %esi
	movl	%esi, 80(%rsp)
	leaq	40(%rsp), %rsi
	movq	%r12, 16(%rsi)
	vmovdqu	%xmm0, (%rsi)
	movl	%ecx, 64(%rsp)
	movq	%rax, 68(%rsp)
	movb	%dl, 76(%rsp)
	movb	199(%rsp), %al
	movb	%al, 39(%rsi)
	movzwl	197(%rsp), %eax
	movw	%ax, 37(%rsi)
Ltmp393:
	leaq	392(%rsp), %rdi
	leaq	16(%rsp), %rsi
	callq	__ZN5alloc3vec12Vec$LT$T$GT$4push17hd5f69ba2ef4fee5cE
Ltmp394:
	movq	8(%rsp), %r8
	incq	%r8
	movq	288(%rsp), %r9
	movq	200(%rsp), %rbx
	cmpq	152(%rsp), %rbx
	jne	LBB88_293
	jmp	LBB88_298
	.p2align	4, 0x90
LBB88_294:
	testq	%r8, %r8
	je	LBB88_297
	subq	%r8, %r15
	cmpq	152(%rsp), %r15
	jae	LBB88_384
	imulq	$56, %r15, %rax
	vmovups	(%r9,%rax), %ymm0
	vmovups	24(%r9,%rax), %ymm1
	vmovups	%ymm1, 40(%rsp)
	vmovups	%ymm0, 16(%rsp)
	vmovups	(%r10), %ymm0
	movq	48(%r10), %rcx
	vmovups	32(%r10), %xmm1
	vmovups	%xmm1, 32(%r9,%rax)
	movq	%rcx, 48(%r9,%rax)
	vmovups	%ymm0, (%r9,%rax)
	vmovdqu	16(%rsp), %ymm0
	vmovdqu	40(%rsp), %ymm1
	vmovdqu	%ymm0, (%r10)
	vmovdqu	%ymm1, 24(%r10)
	cmpq	152(%rsp), %rbx
	jne	LBB88_293
LBB88_298:
	testq	%r8, %r8
	movq	(%rsp), %r15
	movq	216(%rsp), %rdi
	je	LBB88_307
	movq	152(%rsp), %rcx
	subq	%r8, %rcx
	movq	16(%rdi), %rax
	cmpq	%rcx, %rax
	jb	LBB88_307
	movq	%rcx, %rdx
	movq	(%rdi), %rcx
	movq	%rdx, %rsi
	movq	%rdx, 16(%rdi)
	cmpq	%rdx, %rax
	je	LBB88_307
	imulq	$56, %rax, %r14
	addq	%rcx, %r14
	imulq	$56, %rdx, %rbx
	addq	%rcx, %rbx
	movq	8(%rbx), %rax
	testq	%rax, %rax
	jne	LBB88_304
	.p2align	4, 0x90
LBB88_302:
	addq	$56, %rbx
	cmpq	%r14, %rbx
	je	LBB88_307
LBB88_303:
	movq	8(%rbx), %rax
	testq	%rax, %rax
	je	LBB88_302
LBB88_304:
	movq	(%rbx), %rdi
	testq	%rdi, %rdi
	je	LBB88_302
	shlq	$2, %rax
	leaq	(%rax,%rax,4), %rsi
	testq	%rsi, %rsi
	je	LBB88_302
	movl	$4, %edx
	vzeroupper
	callq	___rust_dealloc
	addq	$56, %rbx
	cmpq	%r14, %rbx
	jne	LBB88_303
LBB88_307:
	movq	392(%rsp), %r14
	movq	400(%rsp), %rdx
	movq	408(%rsp), %rax
	leaq	(%rax,%rax,8), %rcx
	leaq	(%r14,%rcx,8), %r13
	movq	%r14, 160(%rsp)
	movq	%rdx, 8(%rsp)
	movq	%rdx, 168(%rsp)
	movq	%r14, 176(%rsp)
	movq	%r13, 184(%rsp)
	movq	%r14, 224(%rsp)
	testq	%rax, %rax
	je	LBB88_317
	leaq	40(%rsp), %r12
	movq	224(%rsp), %rax
	leaq	72(%rax), %r14
	jmp	LBB88_310
	.p2align	4, 0x90
LBB88_309:
	addq	$72, %r14
	addq	$72, %r15
	cmpq	%r13, %r15
	movq	(%rsp), %r15
	je	LBB88_327
LBB88_310:
	vmovdqu	-72(%r14), %ymm1
	movq	-40(%r14), %rax
	movq	-32(%r14), %rcx
	movl	-24(%r14), %edx
	movl	-4(%r14), %esi
	movl	%esi, 32(%rsp)
	vmovups	-20(%r14), %xmm0
	vmovaps	%xmm0, 16(%rsp)
	cmpl	$2, %edx
	je	LBB88_316
	movl	32(%rsp), %esi
	movl	%esi, 272(%rsp)
	vmovaps	16(%rsp), %xmm0
	vmovaps	%xmm0, 256(%rsp)
	vmovdqu	%ymm1, 16(%rsp)
	movq	%rax, 48(%rsp)
	movq	%rcx, 56(%rsp)
	movl	%edx, 64(%rsp)
	movl	%esi, 44(%r12)
	vmovups	%xmm0, 28(%r12)
	movl	80(%rsp), %esi
	movq	416(%rsp), %rdi
	vmovq	%xmm1, %rbx
	movq	32(%r12), %rax
	movq	%rax, 128(%rsp)
	vmovups	(%r12), %ymm0
	vmovups	%ymm0, 96(%rsp)
	vmovdqa	%ymm1, 288(%rsp)
	vextracti128	$1, %ymm1, %xmm0
	vmovq	%xmm0, %rcx
Ltmp411:
	movq	%rbx, %rdx
	leaq	96(%rsp), %r8
	vzeroupper
	callq	__ZN93_$LT$cfg..binarized..BinarizedCfg$LT$H$GT$$u20$as$u20$cfg..rule..container..RuleContainer$GT$8add_rule17hffb82523c0be067cE
Ltmp412:
	leaq	-72(%r14), %r15
	vmovdqa	288(%rsp), %ymm0
	vpextrq	$1, %xmm0, %rsi
	testq	%rsi, %rsi
	je	LBB88_309
	testq	%rbx, %rbx
	je	LBB88_309
	shlq	$2, %rsi
	testq	%rsi, %rsi
	je	LBB88_309
	movl	$4, %edx
	movq	%rbx, %rdi
	vzeroupper
	callq	___rust_dealloc
	jmp	LBB88_309
LBB88_316:
	movq	%r14, 176(%rsp)
LBB88_317:
	cmpq	%r14, %r13
	movq	504(%rsp), %r12
	jne	LBB88_319
	jmp	LBB88_328
	.p2align	4, 0x90
LBB88_318:
	addq	$72, %r14
	cmpq	%r13, %r14
	je	LBB88_328
LBB88_319:
	movq	8(%r14), %rsi
	testq	%rsi, %rsi
	je	LBB88_323
	movq	(%r14), %rdi
	testq	%rdi, %rdi
	je	LBB88_323
	shlq	$2, %rsi
	testq	%rsi, %rsi
	je	LBB88_323
	movl	$4, %edx
	vzeroupper
	callq	___rust_dealloc
LBB88_323:
	movq	32(%r14), %rax
	testq	%rax, %rax
	je	LBB88_318
	movq	24(%r14), %rdi
	testq	%rdi, %rdi
	je	LBB88_318
	shlq	$2, %rax
	leaq	(%rax,%rax,4), %rsi
	testq	%rsi, %rsi
	je	LBB88_318
	movl	$4, %edx
	vzeroupper
	callq	___rust_dealloc
	jmp	LBB88_318
LBB88_327:
	movq	%r13, 176(%rsp)
	movq	504(%rsp), %r12
LBB88_328:
	movq	8(%rsp), %rax
	testq	%rax, %rax
	je	LBB88_331
	shlq	$3, %rax
	leaq	(%rax,%rax,8), %rsi
	testq	%rsi, %rsi
	je	LBB88_331
	movl	$8, %edx
	movq	224(%rsp), %rdi
	vzeroupper
	callq	___rust_dealloc
LBB88_331:
	movq	328(%rsp), %rsi
	testq	%rsi, %rsi
	je	LBB88_335
	movq	320(%rsp), %rdi
	testq	%rdi, %rdi
	je	LBB88_335
	shlq	$3, %rsi
	testq	%rsi, %rsi
	je	LBB88_335
	movl	$4, %edx
	vzeroupper
	callq	___rust_dealloc
LBB88_335:
	movq	352(%rsp), %rsi
	testq	%rsi, %rsi
	je	LBB88_339
	movq	344(%rsp), %rdi
	testq	%rdi, %rdi
	je	LBB88_339
	shlq	$2, %rsi
	testq	%rsi, %rsi
	je	LBB88_339
	movl	$4, %edx
	vzeroupper
	callq	___rust_dealloc
LBB88_339:
	vmovups	416(%rsp), %ymm0
	vmovups	440(%rsp), %ymm1
	vmovups	%ymm1, 40(%rsp)
	vmovups	%ymm0, 16(%rsp)
	vmovdqu	24(%rsp), %ymm0
	vmovdqu	40(%rsp), %ymm1
	vmovdqu	%ymm0, 320(%rsp)
	vmovdqu	%ymm1, 336(%rsp)
	cmpl	$0, 56(%r15)
	je	LBB88_389
	movl	60(%r15), %ebx
	movq	336(%rsp), %rsi
	cmpq	%rbx, %rsi
	jbe	LBB88_390
	movq	320(%rsp), %rax
	cmpl	$1, (%rax,%rbx,8)
	jne	LBB88_343
	movl	4(%rax,%rbx,8), %r14d
	jmp	LBB88_347
LBB88_343:
	movq	360(%rsp), %r14
	movl	$1, (%rax,%rbx,8)
	movl	%r14d, 4(%rax,%rbx,8)
	movq	%r14, %rax
	cmpq	352(%rsp), %r14
	jne	LBB88_346
	leaq	344(%rsp), %rdi
Ltmp416:
	movl	$1, %esi
	vzeroupper
	callq	__ZN5alloc3vec12Vec$LT$T$GT$7reserve17h35d1e0dc15cd4847E
Ltmp417:
	movq	360(%rsp), %rax
LBB88_346:
	movq	344(%rsp), %rcx
	movl	%ebx, (%rcx,%rax,4)
	incq	%rax
	movq	%rax, 360(%rsp)
LBB88_347:
	movl	$1, 56(%r15)
	movl	%r14d, 60(%r15)
	movq	64(%r15), %rax
	movq	%rax, 64(%r12)
	vmovups	(%r15), %ymm0
	vmovups	%ymm0, (%r12)
	vmovups	32(%r15), %xmm0
	vmovups	%xmm0, 32(%r12)
	movq	48(%r15), %rax
	movq	%rax, 48(%r12)
	movl	56(%r15), %eax
	movl	%eax, 56(%r12)
	movl	60(%r15), %eax
	movl	%eax, 60(%r12)
	vmovups	320(%rsp), %ymm0
	vmovups	336(%rsp), %xmm1
	vmovups	%xmm1, 88(%r12)
	movq	352(%rsp), %rax
	movq	%rax, 104(%r12)
	movq	360(%rsp), %rax
	movq	%rax, 112(%r12)
	vmovups	%ymm0, 72(%r12)
	movq	528(%rsp), %rsi
	testq	%rsi, %rsi
	je	LBB88_351
	movq	520(%rsp), %rdi
	testq	%rdi, %rdi
	je	LBB88_351
	shlq	$2, %rsi
	testq	%rsi, %rsi
	je	LBB88_351
	movl	$4, %edx
	vzeroupper
	callq	___rust_dealloc
LBB88_351:
	movq	%r12, %rax
	leaq	-40(%rbp), %rsp
	popq	%rbx
	popq	%r12
	popq	%r13
	popq	%r14
	popq	%r15
	popq	%rbp
	vzeroupper
	retq
LBB88_352:
Ltmp255:
	leaq	_str.1(%rip), %rdi
	leaq	l___unnamed_42(%rip), %rdx
	movl	$28, %esi
	callq	__ZN4core9panicking5panic17h736ee47a631475c0E
Ltmp256:
	jmp	LBB88_355
LBB88_353:
	addq	%rbx, %rdx
	movq	%rdx, 96(%rsp)
	negq	%rcx
	movq	%rcx, 112(%rsp)
Ltmp388:
	leaq	l___unnamed_79(%rip), %rdx
	callq	__ZN4core9panicking18panic_bounds_check17habe69d236c55e3edE
Ltmp389:
	jmp	LBB88_355
LBB88_354:
	addq	%rbx, %rdx
	movq	%rdx, 96(%rsp)
	negq	%rcx
	movq	%rcx, 112(%rsp)
Ltmp399:
	leaq	l___unnamed_35(%rip), %rdi
	leaq	l___unnamed_79(%rip), %rdx
	movl	$43, %esi
	callq	__ZN4core9panicking5panic17h736ee47a631475c0E
Ltmp400:
LBB88_355:
	ud2
LBB88_356:
Ltmp351:
	leaq	l___unnamed_43(%rip), %rdx
	movq	%r8, %rdi
	movq	%rbx, %rsi
	callq	__ZN4core9panicking18panic_bounds_check17habe69d236c55e3edE
Ltmp352:
	jmp	LBB88_355
LBB88_357:
Ltmp353:
	leaq	l___unnamed_44(%rip), %rdx
	movq	%rbx, %rsi
	callq	__ZN4core9panicking18panic_bounds_check17habe69d236c55e3edE
Ltmp354:
	jmp	LBB88_355
LBB88_358:
Ltmp361:
	leaq	l___unnamed_80(%rip), %rdx
	movq	%rbx, %rsi
	callq	__ZN4core9panicking18panic_bounds_check17habe69d236c55e3edE
Ltmp362:
	jmp	LBB88_355
LBB88_359:
Ltmp363:
	movq	%rdx, %rdi
	movq	%rbx, %rsi
	callq	__ZN5alloc3vec12Vec$LT$T$GT$6remove13assert_failed17h4949c1f60d468587E
Ltmp364:
	jmp	LBB88_355
LBB88_360:
Ltmp367:
	leaq	l___unnamed_45(%rip), %rdx
	movq	%rsi, %rdi
	movq	%r13, %rsi
	callq	__ZN4core5slice22slice_index_order_fail17h85b430a3a039f0a8E
Ltmp368:
	jmp	LBB88_355
LBB88_361:
Ltmp365:
	leaq	l___unnamed_45(%rip), %rdx
	movq	%r13, %rdi
	movq	144(%rsp), %rsi
	callq	__ZN4core5slice20slice_index_len_fail17h550a313151a85135E
Ltmp366:
	jmp	LBB88_355
LBB88_362:
	movq	%rbx, %rdi
LBB88_363:
Ltmp342:
	leaq	l___unnamed_48(%rip), %rdx
	movq	224(%rsp), %rsi
	callq	__ZN4core5slice22slice_index_order_fail17h85b430a3a039f0a8E
Ltmp343:
	jmp	LBB88_355
LBB88_364:
Ltmp378:
	leaq	l___unnamed_81(%rip), %rdx
	vzeroupper
	callq	__ZN4core9panicking18panic_bounds_check17habe69d236c55e3edE
Ltmp379:
	jmp	LBB88_355
LBB88_365:
Ltmp408:
	leaq	l___unnamed_35(%rip), %rdi
	leaq	l___unnamed_79(%rip), %rdx
	movl	$43, %esi
	vzeroupper
	callq	__ZN4core9panicking5panic17h736ee47a631475c0E
Ltmp409:
	jmp	LBB88_355
LBB88_366:
Ltmp406:
	leaq	l___unnamed_79(%rip), %rdx
	vzeroupper
	callq	__ZN4core9panicking18panic_bounds_check17habe69d236c55e3edE
Ltmp407:
	jmp	LBB88_355
LBB88_367:
	movq	%r14, %rdi
	movq	%rbx, %rsi
	vzeroupper
	callq	__ZN5alloc7raw_vec19RawVec$LT$T$C$A$GT$11allocate_in28_$u7b$$u7b$closure$u7d$$u7d$17h04816d799b381db8E
LBB88_368:
Ltmp308:
	callq	__ZN5alloc7raw_vec19RawVec$LT$T$C$A$GT$11allocate_in28_$u7b$$u7b$closure$u7d$$u7d$17h1663d982e1f6196bE
Ltmp309:
	jmp	LBB88_355
LBB88_369:
	movq	%r15, %rdi
	movq	%r13, %rsi
	callq	__ZN5alloc7raw_vec19RawVec$LT$T$C$A$GT$11allocate_in28_$u7b$$u7b$closure$u7d$$u7d$17h04816d799b381db8E
LBB88_370:
Ltmp396:
	callq	__ZN5alloc7raw_vec19RawVec$LT$T$C$A$GT$11allocate_in28_$u7b$$u7b$closure$u7d$$u7d$17h1663d982e1f6196bE
Ltmp397:
	jmp	LBB88_355
LBB88_371:
	movl	%edx, %edi
Ltmp383:
	leaq	l___unnamed_79(%rip), %rdx
	vzeroupper
	callq	__ZN4core9panicking18panic_bounds_check17habe69d236c55e3edE
Ltmp384:
	jmp	LBB88_355
LBB88_372:
Ltmp402:
	leaq	l___unnamed_35(%rip), %rdi
	leaq	l___unnamed_79(%rip), %rdx
	movl	$43, %esi
	vzeroupper
	callq	__ZN4core9panicking5panic17h736ee47a631475c0E
Ltmp403:
	jmp	LBB88_355
LBB88_373:
Ltmp421:
	leaq	l___unnamed_46(%rip), %rdx
	movq	%r12, %rdi
	movq	144(%rsp), %rsi
	vzeroupper
	callq	__ZN4core5slice22slice_index_order_fail17h85b430a3a039f0a8E
Ltmp422:
	jmp	LBB88_355
LBB88_374:
Ltmp265:
	leaq	_str.1(%rip), %rdi
	leaq	l___unnamed_37(%rip), %rdx
	movl	$28, %esi
	callq	__ZN4core9panicking5panic17h736ee47a631475c0E
Ltmp266:
	jmp	LBB88_355
LBB88_375:
Ltmp263:
	leaq	_str.0(%rip), %rdi
	leaq	l___unnamed_65(%rip), %rdx
	movl	$33, %esi
	callq	__ZN4core9panicking5panic17h736ee47a631475c0E
Ltmp264:
	jmp	LBB88_355
LBB88_376:
Ltmp261:
	leaq	_str.1(%rip), %rdi
	leaq	l___unnamed_65(%rip), %rdx
	movl	$28, %esi
	callq	__ZN4core9panicking5panic17h736ee47a631475c0E
Ltmp262:
	jmp	LBB88_355
LBB88_377:
	leaq	416(%rsp), %rax
	movq	%rax, 320(%rsp)
	leaq	__ZN4core3fmt3num52_$LT$impl$u20$core..fmt..Debug$u20$for$u20$usize$GT$3fmt17hd9d2912101c14e43E(%rip), %rax
	movq	%rax, 328(%rsp)
	movq	%r8, 336(%rsp)
	movq	%rax, 344(%rsp)
	leaq	l___unnamed_62(%rip), %rax
	movq	%rax, 16(%rsp)
	movq	$2, 24(%rsp)
	movq	$0, 32(%rsp)
	leaq	320(%rsp), %rax
	movq	%rax, 48(%rsp)
	movq	$2, 56(%rsp)
Ltmp257:
	leaq	l___unnamed_63(%rip), %rsi
	leaq	16(%rsp), %rdi
	callq	__ZN3std9panicking15begin_panic_fmt17h2e6dba6f5c07d155E
Ltmp258:
	jmp	LBB88_355
LBB88_378:
Ltmp259:
	leaq	l___unnamed_64(%rip), %rdx
	callq	__ZN4core9panicking18panic_bounds_check17habe69d236c55e3edE
Ltmp260:
	jmp	LBB88_355
LBB88_379:
	leaq	416(%rsp), %rax
	movq	%rax, 320(%rsp)
	leaq	__ZN4core3fmt3num52_$LT$impl$u20$core..fmt..Debug$u20$for$u20$usize$GT$3fmt17hd9d2912101c14e43E(%rip), %rax
	movq	%rax, 328(%rsp)
	movq	%r8, 336(%rsp)
	movq	%rax, 344(%rsp)
	leaq	l___unnamed_62(%rip), %rax
	movq	%rax, 16(%rsp)
	movq	$2, 24(%rsp)
	movq	$0, 32(%rsp)
	leaq	320(%rsp), %rax
	movq	%rax, 48(%rsp)
	movq	$2, 56(%rsp)
Ltmp267:
	leaq	l___unnamed_63(%rip), %rsi
	leaq	16(%rsp), %rdi
	callq	__ZN3std9panicking15begin_panic_fmt17h2e6dba6f5c07d155E
Ltmp268:
	jmp	LBB88_355
LBB88_380:
Ltmp275:
	leaq	_str.1(%rip), %rdi
	leaq	l___unnamed_37(%rip), %rdx
	movl	$28, %esi
	callq	__ZN4core9panicking5panic17h736ee47a631475c0E
Ltmp276:
	jmp	LBB88_355
LBB88_381:
Ltmp273:
	leaq	_str.0(%rip), %rdi
	leaq	l___unnamed_65(%rip), %rdx
	movl	$33, %esi
	callq	__ZN4core9panicking5panic17h736ee47a631475c0E
Ltmp274:
	jmp	LBB88_355
LBB88_382:
Ltmp271:
	leaq	_str.1(%rip), %rdi
	leaq	l___unnamed_65(%rip), %rdx
	movl	$28, %esi
	callq	__ZN4core9panicking5panic17h736ee47a631475c0E
Ltmp272:
	jmp	LBB88_355
LBB88_383:
Ltmp311:
	leaq	l___unnamed_69(%rip), %rdx
	movq	216(%rsp), %rsi
	callq	__ZN4core9panicking18panic_bounds_check17habe69d236c55e3edE
Ltmp312:
	jmp	LBB88_355
LBB88_384:
Ltmp404:
	leaq	l___unnamed_69(%rip), %rdx
	movq	%r15, %rdi
	movq	152(%rsp), %rsi
	vzeroupper
	callq	__ZN4core9panicking18panic_bounds_check17habe69d236c55e3edE
Ltmp405:
	jmp	LBB88_355
LBB88_385:
	movq	%rsi, %rdi
	subq	%r13, %rdi
Ltmp346:
	leaq	l___unnamed_47(%rip), %rdx
	callq	__ZN4core5slice22slice_index_order_fail17h85b430a3a039f0a8E
Ltmp347:
	jmp	LBB88_355
LBB88_386:
Ltmp344:
	leaq	l___unnamed_47(%rip), %rdx
	movq	224(%rsp), %rdi
	movq	144(%rsp), %rsi
	callq	__ZN4core5slice20slice_index_len_fail17h550a313151a85135E
Ltmp345:
	jmp	LBB88_355
LBB88_387:
	decq	%r14
	movq	%r14, %rdi
	cmpq	%r14, 224(%rsp)
	jb	LBB88_363
Ltmp340:
	leaq	l___unnamed_48(%rip), %rdx
	movq	224(%rsp), %rdi
	movq	144(%rsp), %rsi
	callq	__ZN4core5slice20slice_index_len_fail17h550a313151a85135E
Ltmp341:
	jmp	LBB88_355
LBB88_389:
Ltmp418:
	leaq	l___unnamed_35(%rip), %rdi
	leaq	l___unnamed_59(%rip), %rdx
	movl	$43, %esi
	vzeroupper
	callq	__ZN4core9panicking5panic17h736ee47a631475c0E
Ltmp419:
	jmp	LBB88_355
LBB88_390:
Ltmp414:
	leaq	l___unnamed_82(%rip), %rdx
	movq	%rbx, %rdi
	vzeroupper
	callq	__ZN4core9panicking18panic_bounds_check17habe69d236c55e3edE
Ltmp415:
	jmp	LBB88_355
LBB88_391:
Ltmp370:
	vzeroupper
	callq	__ZN5alloc7raw_vec19RawVec$LT$T$C$A$GT$11allocate_in28_$u7b$$u7b$closure$u7d$$u7d$17h1663d982e1f6196bE
Ltmp371:
	jmp	LBB88_355
LBB88_392:
Ltmp313:
	jmp	LBB88_434
LBB88_393:
Ltmp423:
	jmp	LBB88_412
LBB88_394:
Ltmp398:
	movq	%rax, %rbx
	jmp	LBB88_418
LBB88_395:
Ltmp310:
	movq	%rax, %r14
	jmp	LBB88_425
LBB88_396:
Ltmp410:
	movq	%rax, %rbx
	jmp	LBB88_422
LBB88_397:
Ltmp369:
	movq	%rax, %r14
	jmp	LBB88_442
LBB88_398:
Ltmp401:
	movq	%rax, %rbx
	leaq	96(%rsp), %rdi
	callq	__ZN4core3ptr13drop_in_place17h24c8a744f4ee1897E
	jmp	LBB88_420
LBB88_399:
Ltmp420:
	movq	%rax, %r14
	leaq	320(%rsp), %rdi
	callq	__ZN4core3ptr13drop_in_place17hbffddf6b74f67adaE
	jmp	LBB88_447
LBB88_400:
Ltmp382:
	jmp	LBB88_404
LBB88_401:
Ltmp325:
	movq	%rax, %r14
	leaq	16(%rsp), %rdi
	jmp	LBB88_444
LBB88_402:
Ltmp322:
	jmp	LBB88_406
LBB88_403:
Ltmp319:
LBB88_404:
	movq	%rax, %r14
	jmp	LBB88_445
LBB88_405:
Ltmp288:
LBB88_406:
	movq	%rax, %r14
	jmp	LBB88_446
LBB88_407:
Ltmp285:
	movq	%rax, %r14
	leaq	16(%rsp), %rdi
	callq	__ZN4core3ptr13drop_in_place17h2a9af822d3a87480E
	leaq	416(%rsp), %rdi
	callq	__ZN4core3ptr13drop_in_place17hfdcd5cf10643ddf5E
	movq	(%rsp), %r15
	jmp	LBB88_447
LBB88_408:
Ltmp282:
	movq	%rax, %r14
	leaq	16(%rsp), %rdi
	callq	__ZN4core3ptr13drop_in_place17hfdcd5cf10643ddf5E
	movq	(%rsp), %r15
	jmp	LBB88_447
LBB88_409:
Ltmp279:
	movq	%rax, %r14
	movq	(%rsp), %r15
	jmp	LBB88_447
LBB88_410:
Ltmp254:
	movq	%rax, %r14
	jmp	LBB88_448
LBB88_411:
Ltmp374:
LBB88_412:
	movq	%rax, %r14
	movq	(%rsp), %r15
	jmp	LBB88_445
LBB88_413:
Ltmp413:
	movq	%rax, %rbx
	movq	%r14, 176(%rsp)
	leaq	16(%rsp), %rdi
	callq	__ZN4core3ptr13drop_in_place17h2a9af822d3a87480E
	leaq	160(%rsp), %rdi
	callq	__ZN4core3ptr13drop_in_place17h6227f5b841739d12E
	jmp	LBB88_423
LBB88_414:
Ltmp316:
	movq	%r14, 176(%rsp)
	movq	%rax, %r14
	leaq	16(%rsp), %rdi
	callq	__ZN4core3ptr13drop_in_place17h2a9af822d3a87480E
	leaq	160(%rsp), %rdi
	callq	__ZN4core3ptr13drop_in_place17h6227f5b841739d12E
	movq	(%rsp), %r15
	jmp	LBB88_445
LBB88_415:
Ltmp350:
	movq	%rax, %r14
	jmp	LBB88_443
LBB88_416:
Ltmp395:
	movq	%rax, %rbx
	jmp	LBB88_422
LBB88_417:
Ltmp392:
	movq	%rax, %rbx
	leaq	96(%rsp), %rdi
	callq	__ZN4core3ptr13drop_in_place17hd5b3fea693442e9eE
LBB88_418:
	leaq	256(%rsp), %rdi
	jmp	LBB88_421
LBB88_419:
Ltmp387:
	movq	%rax, %rbx
LBB88_420:
	leaq	160(%rsp), %rdi
LBB88_421:
