	.section	__TEXT,__text,regular,pure_instructions
	.macosx_version_min 10, 7
	.p2align	4, 0x90
__ZN36_$LT$T$u20$as$u20$core..any..Any$GT$7type_id17hbfce1be93710c094E:
	.cfi_startproc
	pushq	%rbp
	.cfi_def_cfa_offset 16
	.cfi_offset %rbp, -16
	movq	%rsp, %rbp
	.cfi_def_cfa_register %rbp
	movabsq	$9147559743429524724, %rax
	popq	%rbp
	retq
	.cfi_endproc

	.p2align	4, 0x90
__ZN3std4sync4once4Once9call_once28_$u7b$$u7b$closure$u7d$$u7d$17h39f4bb1d23853ae8E:
Lfunc_begin0:
	.cfi_startproc
	.cfi_personality 155, _rust_eh_personality
	.cfi_lsda 16, Lexception0
	pushq	%rbp
	.cfi_def_cfa_offset 16
	.cfi_offset %rbp, -16
	movq	%rsp, %rbp
	.cfi_def_cfa_register %rbp
	pushq	%r15
	pushq	%r14
	pushq	%rbx
	andq	$-32, %rsp
	subq	$224, %rsp
	.cfi_offset %rbx, -40
	.cfi_offset %r14, -32
	.cfi_offset %r15, -24
	movq	(%rdi), %rcx
	movq	(%rcx), %rax
	movq	$0, (%rcx)
	testq	%rax, %rax
	je	LBB1_20
	movq	(%rax), %rbx
	callq	__ZN3std11collections4hash3map11RandomState3new4KEYS7__getit17hce5f8c94222d2e27E
	testq	%rax, %rax
	je	LBB1_21
	movdqu	(%rax), %xmm0
	movdqa	%xmm0, (%rsp)
	movq	%xmm0, %rcx
	incq	%rcx
	movq	%rcx, (%rax)
	callq	__ZN9hashbrown3raw4sse25Group12static_empty17h2e96e5fa45e5688dE
	movaps	(%rsp), %xmm0
	movaps	%xmm0, 64(%rsp)
	movq	$0, 80(%rsp)
	movq	%rax, 88(%rsp)
	movq	$8, 96(%rsp)
	movq	$0, 104(%rsp)
	movq	$0, 112(%rsp)
	movq	$8, 120(%rsp)
	xorps	%xmm0, %xmm0
	movaps	%xmm0, 128(%rsp)
	movq	$0, 144(%rsp)
	movl	$64, %edi
	movl	$8, %esi
	callq	___rust_alloc
	testq	%rax, %rax
	je	LBB1_22
	movq	%rax, %r15
Ltmp0:
	movq	%rax, %rdi
	callq	__ZN3std10sys_common5mutex5Mutex3new17hfec750c2ce1161a9E
Ltmp1:
	movq	%r15, 48(%rsp)
Ltmp3:
	callq	__ZN3std10sys_common6poison4Flag3new17hd7ec4e2336668a12E
Ltmp4:
	movq	%r15, 160(%rsp)
	movb	%al, 168(%rsp)
	movaps	64(%rsp), %xmm0
	movaps	80(%rsp), %xmm1
	movaps	%xmm1, 16(%rsp)
	movaps	96(%rsp), %xmm1
	movaps	%xmm1, 192(%rsp)
	movaps	112(%rsp), %xmm1
	movaps	%xmm1, (%rsp)
	movaps	%xmm0, 176(%rsp)
	movaps	128(%rsp), %xmm0
	movaps	%xmm0, 32(%rsp)
	leaq	48(%rsp), %r14
	movq	%r14, %rdi
	callq	_pthread_mutexattr_init
	movq	%r14, %rdi
	xorl	%esi, %esi
	callq	_pthread_mutexattr_settype
	movq	%r15, %rdi
	movq	%r14, %rsi
	callq	_pthread_mutex_init
	movq	%r14, %rdi
	callq	_pthread_mutexattr_destroy
	movaps	160(%rsp), %xmm0
	movaps	176(%rsp), %xmm1
	movups	%xmm1, 16(%rbx)
	movq	(%rbx), %r14
	movups	%xmm0, (%rbx)
	movups	32(%rbx), %xmm2
	movaps	16(%rsp), %xmm0
	movups	%xmm0, 32(%rbx)
	movaps	192(%rsp), %xmm0
	movups	%xmm0, 48(%rbx)
	movups	80(%rbx), %xmm1
	movdqu	64(%rbx), %xmm0
	movaps	(%rsp), %xmm3
	movups	%xmm3, 64(%rbx)
	movaps	32(%rsp), %xmm3
	movups	%xmm3, 80(%rbx)
	movq	$0, 96(%rbx)
	testq	%r14, %r14
	je	LBB1_19
	movaps	%xmm1, 32(%rsp)
	movdqa	%xmm0, (%rsp)
	movq	%r14, %rdi
	movaps	%xmm2, 16(%rsp)
	callq	_pthread_mutex_destroy
	movl	$64, %esi
	movl	$8, %edx
	movq	%r14, %rdi
	callq	___rust_dealloc
	movdqa	16(%rsp), %xmm0
	movq	%xmm0, %rcx
	testq	%rcx, %rcx
	je	LBB1_15
	leaq	1(%rcx), %rax
	movl	$16, %edx
	xorl	%esi, %esi
	mulq	%rdx
	setno	%dl
	jo	LBB1_8
	movb	%dl, %sil
	shlq	$3, %rsi
	leaq	16(%rcx,%rsi), %rdx
	addq	$17, %rcx
	negq	%rsi
	andq	%rdx, %rsi
	subq	%rcx, %rsi
	addq	%rcx, %rsi
	jae	LBB1_13
LBB1_8:
	xorl	%edx, %edx
	jmp	LBB1_14
LBB1_13:
	leaq	(%rsi,%rax), %rcx
	xorl	%edi, %edi
	cmpq	$-15, %rcx
	setb	%dil
	shlq	$4, %rdi
	xorl	%edx, %edx
	addq	%rax, %rsi
	cmovaeq	%rdi, %rdx
LBB1_14:
	pshufd	$78, %xmm0, %xmm0
	movq	%xmm0, %rdi
	callq	___rust_dealloc
LBB1_15:
	movdqa	32(%rsp), %xmm0
	movq	%xmm0, %rsi
	testq	%rsi, %rsi
	movdqa	(%rsp), %xmm0
	je	LBB1_19
	pshufd	$78, %xmm0, %xmm0
	movq	%xmm0, %rdi
	testq	%rdi, %rdi
	je	LBB1_19
	shlq	$3, %rsi
	testq	%rsi, %rsi
	je	LBB1_19
	movl	$8, %edx
	callq	___rust_dealloc
LBB1_19:
	leaq	-24(%rbp), %rsp
	popq	%rbx
	popq	%r14
	popq	%r15
	popq	%rbp
	retq
LBB1_20:
	leaq	l___unnamed_1(%rip), %rdi
	leaq	l___unnamed_2(%rip), %rdx
	movl	$43, %esi
	callq	__ZN4core9panicking5panic17h383a6b80ea7021aaE
LBB1_21:
	leaq	l___unnamed_3(%rip), %rdi
	leaq	l___unnamed_4(%rip), %rcx
	leaq	l___unnamed_5(%rip), %r8
	leaq	64(%rsp), %rdx
	movl	$70, %esi
	callq	__ZN4core6result13unwrap_failed17hc193898ef513e81fE
LBB1_22:
	movl	$64, %edi
	movl	$8, %esi
	callq	__ZN5alloc5alloc18handle_alloc_error17h28974197717b8939E
LBB1_11:
Ltmp5:
	movq	%rax, %r14
	leaq	48(%rsp), %rdi
	callq	__ZN4core3ptr13drop_in_place17h3c814f0160b92ba9E
	jmp	LBB1_10
LBB1_9:
Ltmp2:
	movq	%rax, %r14
	movq	%r15, %rdi
	callq	__ZN5alloc5alloc8box_free17h0f024b19a314ca84E
LBB1_10:
	leaq	64(%rsp), %rdi
	callq	__ZN4core3ptr13drop_in_place17h9c1cb8d6ed1aca93E
	movq	%r14, %rdi
	callq	__Unwind_Resume
	ud2
Lfunc_end0:
	.cfi_endproc
	.section	__TEXT,__gcc_except_tab
	.p2align	2
GCC_except_table1:
Lexception0:
	.byte	255
	.byte	255
	.byte	1
	.uleb128 Lcst_end0-Lcst_begin0
Lcst_begin0:
	.uleb128 Lfunc_begin0-Lfunc_begin0
	.uleb128 Ltmp0-Lfunc_begin0
	.byte	0
	.byte	0
	.uleb128 Ltmp0-Lfunc_begin0
	.uleb128 Ltmp1-Ltmp0
	.uleb128 Ltmp2-Lfunc_begin0
	.byte	0
	.uleb128 Ltmp3-Lfunc_begin0
	.uleb128 Ltmp4-Ltmp3
	.uleb128 Ltmp5-Lfunc_begin0
	.byte	0
	.uleb128 Ltmp4-Lfunc_begin0
	.uleb128 Lfunc_end0-Ltmp4
	.byte	0
	.byte	0
Lcst_end0:
	.p2align	2

	.section	__TEXT,__literal16,16byte_literals
	.p2align	4
LCPI2_0:
	.quad	8317987319222330741
	.quad	7816392313619706465
LCPI2_1:
	.quad	7237128888997146477
	.quad	8387220255154660723
	.section	__TEXT,__text,regular,pure_instructions
	.p2align	4, 0x90
__ZN3std6thread5local4fast12Key$LT$T$GT$14try_initialize17h1faae0f705c3c925E:
Lfunc_begin1:
	.cfi_startproc
	.cfi_personality 155, _rust_eh_personality
	.cfi_lsda 16, Lexception1
	pushq	%rbp
	.cfi_def_cfa_offset 16
	.cfi_offset %rbp, -16
	movq	%rsp, %rbp
	.cfi_def_cfa_register %rbp
	pushq	%r15
	pushq	%r14
	pushq	%r13
	pushq	%r12
	pushq	%rbx
	subq	$136, %rsp
	.cfi_offset %rbx, -56
	.cfi_offset %r12, -48
	.cfi_offset %r13, -40
	.cfi_offset %r14, -32
	.cfi_offset %r15, -24
	movq	__ZN15crossbeam_utils4sync12sharded_lock12REGISTRATION7__getit5__KEY17h9e6652583615d7e6E@TLVP(%rip), %rdi
	callq	*(%rdi)
	movb	16(%rax), %al
	testb	%al, %al
	je	LBB2_3
	cmpb	$1, %al
	je	LBB2_4
	xorl	%eax, %eax
	jmp	LBB2_44
LBB2_3:
	movq	__ZN15crossbeam_utils4sync12sharded_lock12REGISTRATION7__getit5__KEY17h9e6652583615d7e6E@TLVP(%rip), %rdi
	callq	*(%rdi)
	movq	%rax, %rbx
	leaq	__ZN3std6thread5local4fast13destroy_value17h544062d707af4272E(%rip), %rsi
	movq	%rax, %rdi
	callq	__ZN3std3sys4unix17thread_local_dtor13register_dtor17hfef630bd7160c727E
	movb	$1, 16(%rbx)
LBB2_4:
	callq	__ZN3std6thread7current17hf8ac76cb82c0f030E
	movq	%rax, -144(%rbp)
Ltmp6:
	leaq	-144(%rbp), %rdi
	callq	__ZN3std6thread6Thread2id17ha2e7bcf8baab4e8aE
Ltmp7:
	movq	%rax, %rbx
	movq	-144(%rbp), %rax
	lock		decq	(%rax)
	jne	LBB2_7
	##MEMBARRIER
	leaq	-144(%rbp), %rdi
	callq	__ZN5alloc4sync12Arc$LT$T$GT$9drop_slow17h1553e370a8129d08E
LBB2_7:
	leaq	__ZN95_$LT$crossbeam_utils..sync..sharded_lock..THREAD_INDICES$u20$as$u20$core..ops..deref..Deref$GT$5deref11__stability4LAZY17h015e97a6fb05ea77E(%rip), %rax
	movq	%rax, -48(%rbp)
	movq	__ZN95_$LT$crossbeam_utils..sync..sharded_lock..THREAD_INDICES$u20$as$u20$core..ops..deref..Deref$GT$5deref11__stability4LAZY17h015e97a6fb05ea77E+104(%rip), %rax
	cmpq	$3, %rax
	jne	LBB2_8
LBB2_9:
	movq	-48(%rbp), %r15
	movq	(%r15), %rdi
	callq	_pthread_mutex_lock
	movq	__ZN3std9panicking11panic_count18GLOBAL_PANIC_COUNT17h5754c1d48a496461E@GOTPCREL(%rip), %rax
	movq	(%rax), %rax
	testq	%rax, %rax
	jne	LBB2_11
	xorl	%eax, %eax
	movb	8(%r15), %cl
	testb	%cl, %cl
	jne	LBB2_13
LBB2_15:
	movq	%r15, -160(%rbp)
	movb	%al, -152(%rbp)
	movq	88(%r15), %rdx
	testq	%rdx, %rdx
	movl	%eax, -60(%rbp)
	je	LBB2_17
	leaq	-1(%rdx), %rcx
	movq	%rcx, 88(%r15)
	movq	72(%r15), %rcx
	movq	-8(%rcx,%rdx,8), %rax
	movq	%rax, -56(%rbp)
	jmp	LBB2_19
LBB2_17:
	movq	96(%r15), %rcx
	movq	%rcx, %rdx
	incq	%rdx
	je	LBB2_47
	movq	%rcx, -56(%rbp)
	movq	%rdx, 96(%r15)
LBB2_19:
	movq	16(%r15), %rax
	movq	24(%r15), %rcx
	movq	%rax, %xmm0
	pshufd	$68, %xmm0, %xmm0
	pxor	LCPI2_0(%rip), %xmm0
	movq	%rcx, %xmm1
	pshufd	$68, %xmm1, %xmm1
	pxor	LCPI2_1(%rip), %xmm1
	leaq	16(%r15), %rdx
	movq	%rdx, -168(%rbp)
	movq	%rax, -144(%rbp)
	movq	%rcx, -136(%rbp)
	movq	$0, -128(%rbp)
	movdqu	%xmm0, -120(%rbp)
	movdqu	%xmm1, -104(%rbp)
	movq	$0, -88(%rbp)
	movq	$0, -80(%rbp)
	leaq	-144(%rbp), %rsi
	movq	%rbx, %r13
	movq	%rbx, %rdi
	callq	__ZN58_$LT$std..thread..ThreadId$u20$as$u20$core..hash..Hash$GT$4hash17h442e5f26360bcaeaE
	movq	-128(%rbp), %rsi
	movq	-104(%rbp), %r12
	shlq	$56, %rsi
	orq	-88(%rbp), %rsi
	movq	-96(%rbp), %rax
	movq	-120(%rbp), %rcx
	addq	%r12, %rcx
	rolq	$13, %r12
	xorq	%rsi, %rax
	xorq	%rcx, %r12
	rolq	$32, %rcx
	movq	-112(%rbp), %rdx
	addq	%rax, %rdx
	rolq	$16, %rax
	xorq	%rdx, %rax
	addq	%rax, %rcx
	rolq	$21, %rax
	addq	%r12, %rdx
	rolq	$17, %r12
	xorq	%rcx, %rax
	xorq	%rdx, %r12
	rolq	$32, %rdx
	xorq	%rsi, %rcx
	addq	%r12, %rcx
	rolq	$13, %r12
	xorq	%rcx, %r12
	rolq	$32, %rcx
	xorq	$255, %rdx
	addq	%rax, %rdx
	rolq	$16, %rax
	xorq	%rdx, %rax
	addq	%rax, %rcx
	rolq	$21, %rax
	addq	%r12, %rdx
	rolq	$17, %r12
	xorq	%rdx, %r12
	rolq	$32, %rdx
	xorq	%rcx, %rax
	addq	%r12, %rcx
	rolq	$13, %r12
	xorq	%rcx, %r12
	rolq	$32, %rcx
	addq	%rax, %rdx
	rolq	$16, %rax
	xorq	%rdx, %rax
	addq	%rax, %rcx
	rolq	$21, %rax
	addq	%r12, %rdx
	rolq	$17, %r12
	xorq	%rdx, %r12
	rolq	$32, %rdx
	xorq	%rcx, %rax
	addq	%r12, %rcx
	rolq	$13, %r12
	addq	%rax, %rdx
	rolq	$16, %rax
	xorq	%rdx, %rax
	rolq	$21, %rax
	xorq	%rcx, %r12
	addq	%r12, %rdx
	rolq	$17, %r12
	xorq	%rdx, %r12
	rolq	$32, %rdx
	xorq	%rdx, %r12
	xorq	%rax, %r12
	leaq	32(%r15), %rsi
	movq	32(%r15), %r9
	movq	40(%r15), %r8
	movq	%r12, %r14
	shrq	$57, %r14
	movd	%r14d, %xmm0
	pxor	%xmm1, %xmm1
	pshufb	%xmm1, %xmm0
	movq	48(%r15), %rdx
	xorl	%r11d, %r11d
	pcmpeqd	%xmm1, %xmm1
	movq	%r12, %r10
LBB2_20:
	movq	%r10, %rax
	andq	%r9, %rax
	leaq	16(%r11,%rax), %r10
	addq	$16, %r11
	movdqu	(%r8,%rax), %xmm2
	movdqa	%xmm0, %xmm3
	pcmpeqb	%xmm2, %xmm3
	pmovmskb	%xmm3, %ecx
LBB2_21:
	testw	%cx, %cx
	je	LBB2_22
	bsfw	%cx, %bx
	movzwl	%bx, %ebx
	leal	-1(%rcx), %edi
	andl	%ecx, %edi
	addq	%rax, %rbx
	andq	%r9, %rbx
	shlq	$4, %rbx
	movl	%edi, %ecx
	cmpq	%r13, (%rdx,%rbx)
	je	LBB2_36
	jmp	LBB2_21
LBB2_22:
	pcmpeqb	%xmm1, %xmm2
	pmovmskb	%xmm2, %eax
	testw	%ax, %ax
	je	LBB2_20
	movq	-168(%rbp), %rax
	movq	%rax, -48(%rbp)
	xorl	%eax, %eax
	movq	%r12, %rcx
	.p2align	4, 0x90
LBB2_24:
	movq	%rcx, %rdx
	andq	%r9, %rdx
	movdqu	(%r8,%rdx), %xmm0
	pmovmskb	%xmm0, %edi
	leaq	16(%rax,%rdx), %rcx
	addq	$16, %rax
	testw	%di, %di
	je	LBB2_24
	bsfw	%di, %ax
	movzwl	%ax, %eax
	addq	%rax, %rdx
	andq	%r9, %rdx
	movb	(%r8,%rdx), %bl
	testb	%bl, %bl
	jns	LBB2_26
	testb	$1, %bl
	je	LBB2_34
LBB2_28:
	cmpq	$0, 56(%r15)
	jne	LBB2_34
Ltmp12:
	leaq	-144(%rbp), %rdi
	leaq	-48(%rbp), %rdx
	callq	__ZN9hashbrown3raw17RawTable$LT$T$GT$14reserve_rehash17h4f2f3f3d4734fff8E
Ltmp13:
	movq	32(%r15), %r9
	movq	40(%r15), %r8
	xorl	%eax, %eax
	.p2align	4, 0x90
LBB2_31:
	movq	%r12, %rdx
	andq	%r9, %rdx
	movdqu	(%r8,%rdx), %xmm0
	pmovmskb	%xmm0, %ecx
	leaq	16(%rax,%rdx), %r12
	addq	$16, %rax
	testw	%cx, %cx
	je	LBB2_31
	bsfw	%cx, %ax
	movzwl	%ax, %eax
	addq	%rax, %rdx
	andq	%r9, %rdx
	cmpb	$0, (%r8,%rdx)
	jns	LBB2_33
LBB2_34:
	movq	48(%r15), %rax
	movq	%rdx, %rcx
	shlq	$4, %rcx
	andb	$1, %bl
	negb	%bl
	movsbq	%bl, %rsi
	addq	%rsi, 56(%r15)
	leaq	-16(%rdx), %rsi
	andq	%r9, %rsi
	movb	%r14b, (%r8,%rdx)
	movb	%r14b, 16(%rsi,%r8)
	movq	%r13, (%rax,%rcx)
	movq	-56(%rbp), %rbx
	movq	%rbx, 8(%rax,%rcx)
	incq	64(%r15)
	jmp	LBB2_37
LBB2_36:
	addq	%rbx, %rdx
	movq	-56(%rbp), %rbx
	movq	%rbx, 8(%rdx)
LBB2_37:
	cmpb	$0, -60(%rbp)
	jne	LBB2_41
	movq	__ZN3std9panicking11panic_count18GLOBAL_PANIC_COUNT17h5754c1d48a496461E@GOTPCREL(%rip), %rax
	movq	(%rax), %rax
	testq	%rax, %rax
	jne	LBB2_39
LBB2_41:
	movq	-160(%rbp), %rax
	movq	(%rax), %rdi
	callq	_pthread_mutex_unlock
	movq	__ZN15crossbeam_utils4sync12sharded_lock12REGISTRATION7__getit5__KEY17h9e6652583615d7e6E@TLVP(%rip), %rdi
	callq	*(%rdi)
	movdqu	(%rax), %xmm0
	movq	%rbx, (%rax)
	movq	%r13, 8(%rax)
	movdqa	%xmm0, -144(%rbp)
	pshufd	$78, %xmm0, %xmm0
	movq	%xmm0, %rax
	testq	%rax, %rax
	je	LBB2_43
	leaq	-144(%rbp), %rdi
	callq	__ZN91_$LT$crossbeam_utils..sync..sharded_lock..Registration$u20$as$u20$core..ops..drop..Drop$GT$4drop17h423c16fdbf19a42aE
	movq	__ZN15crossbeam_utils4sync12sharded_lock12REGISTRATION7__getit5__KEY17h9e6652583615d7e6E@TLVP(%rip), %rdi
	callq	*(%rdi)
LBB2_43:
	movq	__ZN15crossbeam_utils4sync12sharded_lock12REGISTRATION7__getit5__KEY17h9e6652583615d7e6E@TLVP(%rip), %rdi
	callq	*(%rdi)
LBB2_44:
	addq	$136, %rsp
	popq	%rbx
	popq	%r12
	popq	%r13
	popq	%r14
	popq	%r15
	popq	%rbp
	retq
LBB2_8:
	leaq	-48(%rbp), %rax
	movq	%rax, -160(%rbp)
	leaq	-160(%rbp), %rax
	movq	%rax, -144(%rbp)
	leaq	__ZN95_$LT$crossbeam_utils..sync..sharded_lock..THREAD_INDICES$u20$as$u20$core..ops..deref..Deref$GT$5deref11__stability4LAZY17h015e97a6fb05ea77E+104(%rip), %rdi
	leaq	l___unnamed_6(%rip), %rcx
	leaq	-144(%rbp), %rdx
	xorl	%esi, %esi
	callq	__ZN3std4sync4once4Once10call_inner17hfcd38045e50af9d3E
	jmp	LBB2_9
LBB2_11:
	callq	__ZN3std9panicking11panic_count17is_zero_slow_path17ha588394117c50e3dE
	xorb	$1, %al
	movb	8(%r15), %cl
	testb	%cl, %cl
	je	LBB2_15
LBB2_13:
	movq	%r15, -144(%rbp)
	movb	%al, -136(%rbp)
Ltmp9:
	leaq	l___unnamed_7(%rip), %rdi
	leaq	l___unnamed_8(%rip), %rcx
	leaq	l___unnamed_9(%rip), %r8
	leaq	-144(%rbp), %rdx
	movl	$43, %esi
	callq	__ZN4core6result13unwrap_failed17hc193898ef513e81fE
Ltmp10:
	jmp	LBB2_14
LBB2_39:
	callq	__ZN3std9panicking11panic_count17is_zero_slow_path17ha588394117c50e3dE
	testb	%al, %al
	jne	LBB2_41
	movb	$1, 8(%r15)
	jmp	LBB2_41
LBB2_26:
	movdqa	(%r8), %xmm0
	pmovmskb	%xmm0, %eax
	bsfw	%ax, %ax
	movzwl	%ax, %edx
	movb	(%r8,%rdx), %bl
	testb	$1, %bl
	jne	LBB2_28
	jmp	LBB2_34
LBB2_33:
	movdqa	(%r8), %xmm0
	pmovmskb	%xmm0, %eax
	bsfw	%ax, %ax
	movzwl	%ax, %edx
	jmp	LBB2_34
LBB2_47:
Ltmp14:
	leaq	_str.2(%rip), %rdi
	leaq	l___unnamed_10(%rip), %rdx
	movl	$28, %esi
	callq	__ZN4core9panicking5panic17h383a6b80ea7021aaE
Ltmp15:
LBB2_14:
	ud2
LBB2_48:
Ltmp11:
	movq	%rax, %rbx
	leaq	-144(%rbp), %rdi
	callq	__ZN4core3ptr13drop_in_place17h3b24802de2318f9fE
	jmp	LBB2_49
LBB2_46:
Ltmp16:
	movq	%rax, %rbx
	leaq	-160(%rbp), %rdi
	callq	__ZN4core3ptr13drop_in_place17h71188d518bbee787E
	jmp	LBB2_49
LBB2_45:
Ltmp8:
	movq	%rax, %rbx
	leaq	-144(%rbp), %rdi
	callq	__ZN4core3ptr13drop_in_place17h3987c4e1613461f0E
LBB2_49:
	movq	%rbx, %rdi
	callq	__Unwind_Resume
	ud2
Lfunc_end1:
	.cfi_endproc
	.section	__TEXT,__gcc_except_tab
	.p2align	2
GCC_except_table2:
Lexception1:
	.byte	255
	.byte	255
	.byte	1
	.uleb128 Lcst_end1-Lcst_begin1
Lcst_begin1:
	.uleb128 Lfunc_begin1-Lfunc_begin1
	.uleb128 Ltmp6-Lfunc_begin1
	.byte	0
	.byte	0
	.uleb128 Ltmp6-Lfunc_begin1
	.uleb128 Ltmp7-Ltmp6
	.uleb128 Ltmp8-Lfunc_begin1
	.byte	0
	.uleb128 Ltmp7-Lfunc_begin1
	.uleb128 Ltmp12-Ltmp7
	.byte	0
	.byte	0
	.uleb128 Ltmp12-Lfunc_begin1
	.uleb128 Ltmp13-Ltmp12
	.uleb128 Ltmp16-Lfunc_begin1
	.byte	0
	.uleb128 Ltmp13-Lfunc_begin1
	.uleb128 Ltmp9-Ltmp13
	.byte	0
	.byte	0
	.uleb128 Ltmp9-Lfunc_begin1
	.uleb128 Ltmp10-Ltmp9
	.uleb128 Ltmp11-Lfunc_begin1
	.byte	0
	.uleb128 Ltmp10-Lfunc_begin1
	.uleb128 Ltmp14-Ltmp10
	.byte	0
	.byte	0
	.uleb128 Ltmp14-Lfunc_begin1
	.uleb128 Ltmp15-Ltmp14
	.uleb128 Ltmp16-Lfunc_begin1
	.byte	0
	.uleb128 Ltmp15-Lfunc_begin1
	.uleb128 Lfunc_end1-Ltmp15
	.byte	0
	.byte	0
Lcst_end1:
	.p2align	2

	.section	__TEXT,__text,regular,pure_instructions
	.p2align	4, 0x90
__ZN3std6thread5local4fast13destroy_value17h544062d707af4272E:
	.cfi_startproc
	pushq	%rbp
	.cfi_def_cfa_offset 16
	.cfi_offset %rbp, -16
	movq	%rsp, %rbp
	.cfi_def_cfa_register %rbp
	subq	$16, %rsp
	movdqu	(%rdi), %xmm0
	movq	$0, 8(%rdi)
	movb	$2, 16(%rdi)
	movdqa	%xmm0, -16(%rbp)
	pshufd	$78, %xmm0, %xmm0
	movq	%xmm0, %rax
	testq	%rax, %rax
	je	LBB3_2
	leaq	-16(%rbp), %rdi
	callq	__ZN91_$LT$crossbeam_utils..sync..sharded_lock..Registration$u20$as$u20$core..ops..drop..Drop$GT$4drop17h423c16fdbf19a42aE
LBB3_2:
	addq	$16, %rsp
	popq	%rbp
	retq
	.cfi_endproc

	.p2align	4, 0x90
__ZN3std9panicking11begin_panic17h82e81df4feaf301dE:
	.cfi_startproc
	pushq	%rbp
	.cfi_def_cfa_offset 16
	.cfi_offset %rbp, -16
	movq	%rsp, %rbp
	.cfi_def_cfa_register %rbp
	subq	$16, %rsp
	leaq	l___unnamed_11(%rip), %rax
	movq	%rax, -16(%rbp)
	movq	$28, -8(%rbp)
	leaq	l___unnamed_12(%rip), %rdi
	callq	__ZN4core5panic8Location6caller17hb284bf0993c43fcaE
	leaq	l___unnamed_13(%rip), %rsi
	leaq	-16(%rbp), %rdi
	xorl	%edx, %edx
	movq	%rax, %rcx
	callq	__ZN3std9panicking20rust_panic_with_hook17h720143ee15fc80baE
	.cfi_endproc

	.p2align	4, 0x90
__ZN41_$LT$bool$u20$as$u20$core..fmt..Debug$GT$3fmt17hdefd5ae208442b96E:
	.cfi_startproc
	pushq	%rbp
	.cfi_def_cfa_offset 16
	.cfi_offset %rbp, -16
	movq	%rsp, %rbp
	.cfi_def_cfa_register %rbp
	popq	%rbp
	jmp	__ZN43_$LT$bool$u20$as$u20$core..fmt..Display$GT$3fmt17hd78396651a24cfbbE
	.cfi_endproc

	.p2align	4, 0x90
__ZN42_$LT$$RF$T$u20$as$u20$core..fmt..Debug$GT$3fmt17h058a2d164693e299E:
	.cfi_startproc
	pushq	%rbp
	.cfi_def_cfa_offset 16
	.cfi_offset %rbp, -16
	movq	%rsp, %rbp
	.cfi_def_cfa_register %rbp
	movq	(%rdi), %rdi
	popq	%rbp
	jmp	__ZN57_$LT$std..thread..Builder$u20$as$u20$core..fmt..Debug$GT$3fmt17h8872bdf6ff95f2d8E
	.cfi_endproc

	.p2align	4, 0x90
__ZN42_$LT$$RF$T$u20$as$u20$core..fmt..Debug$GT$3fmt17h94bc54c484365190E:
	.cfi_startproc
	pushq	%rbp
	.cfi_def_cfa_offset 16
	.cfi_offset %rbp, -16
	movq	%rsp, %rbp
	.cfi_def_cfa_register %rbp
	movq	%rsi, %rdi
	leaq	l___unnamed_14(%rip), %rsi
	movl	$12, %edx
	popq	%rbp
	jmp	__ZN4core3fmt9Formatter3pad17h426409b23b74b394E
	.cfi_endproc

	.p2align	4, 0x90
__ZN42_$LT$$RF$T$u20$as$u20$core..fmt..Debug$GT$3fmt17hb4bf1cdc47421707E:
	.cfi_startproc
	pushq	%rbp
	.cfi_def_cfa_offset 16
	.cfi_offset %rbp, -16
	movq	%rsp, %rbp
	.cfi_def_cfa_register %rbp
	pushq	%r14
	pushq	%rbx
	.cfi_offset %rbx, -32
	.cfi_offset %r14, -24
	movq	%rsi, %rbx
	movq	(%rdi), %r14
	movq	%rsi, %rdi
	callq	__ZN4core3fmt9Formatter15debug_lower_hex17hd07f6fde8d0365dfE
	testb	%al, %al
	je	LBB8_1
	movq	%r14, %rdi
	movq	%rbx, %rsi
	popq	%rbx
	popq	%r14
	popq	%rbp
	jmp	__ZN4core3fmt3num55_$LT$impl$u20$core..fmt..LowerHex$u20$for$u20$usize$GT$3fmt17hc47c170655f2f8b1E
LBB8_1:
	movq	%rbx, %rdi
	callq	__ZN4core3fmt9Formatter15debug_upper_hex17hf480c256a9c81c1eE
	movq	%r14, %rdi
	movq	%rbx, %rsi
	testb	%al, %al
	je	LBB8_4
	popq	%rbx
	popq	%r14
	popq	%rbp
	jmp	__ZN4core3fmt3num55_$LT$impl$u20$core..fmt..UpperHex$u20$for$u20$usize$GT$3fmt17he5a77a1ce12f6c22E
LBB8_4:
	popq	%rbx
	popq	%r14
	popq	%rbp
	jmp	__ZN4core3fmt3num3imp54_$LT$impl$u20$core..fmt..Display$u20$for$u20$usize$GT$3fmt17h12ea2856299c9b06E
	.cfi_endproc

	.p2align	4, 0x90
__ZN4core3fmt3num50_$LT$impl$u20$core..fmt..Debug$u20$for$u20$u32$GT$3fmt17h1ea6d626882ea7ffE:
	.cfi_startproc
	pushq	%rbp
	.cfi_def_cfa_offset 16
	.cfi_offset %rbp, -16
	movq	%rsp, %rbp
	.cfi_def_cfa_register %rbp
	pushq	%r14
	pushq	%rbx
	.cfi_offset %rbx, -32
	.cfi_offset %r14, -24
	movq	%rsi, %rbx
	movq	%rdi, %r14
	movq	%rsi, %rdi
	callq	__ZN4core3fmt9Formatter15debug_lower_hex17hd07f6fde8d0365dfE
	testb	%al, %al
	je	LBB9_1
	movq	%r14, %rdi
	movq	%rbx, %rsi
	popq	%rbx
	popq	%r14
	popq	%rbp
	jmp	__ZN4core3fmt3num53_$LT$impl$u20$core..fmt..LowerHex$u20$for$u20$u32$GT$3fmt17h019ba2b9dd60d385E
LBB9_1:
	movq	%rbx, %rdi
	callq	__ZN4core3fmt9Formatter15debug_upper_hex17hf480c256a9c81c1eE
	movq	%r14, %rdi
	movq	%rbx, %rsi
	testb	%al, %al
	je	LBB9_4
	popq	%rbx
	popq	%r14
	popq	%rbp
	jmp	__ZN4core3fmt3num53_$LT$impl$u20$core..fmt..UpperHex$u20$for$u20$u32$GT$3fmt17h7bd10b5f3c9584f1E
LBB9_4:
	popq	%rbx
	popq	%r14
	popq	%rbp
	jmp	__ZN4core3fmt3num3imp52_$LT$impl$u20$core..fmt..Display$u20$for$u20$u32$GT$3fmt17hb70882cf65fd1a66E
	.cfi_endproc

	.p2align	4, 0x90
__ZN4core3fmt3num52_$LT$impl$u20$core..fmt..Debug$u20$for$u20$usize$GT$3fmt17h3ce1e8eb3a3c5c0bE:
	.cfi_startproc
	pushq	%rbp
	.cfi_def_cfa_offset 16
	.cfi_offset %rbp, -16
	movq	%rsp, %rbp
	.cfi_def_cfa_register %rbp
	pushq	%r14
	pushq	%rbx
	.cfi_offset %rbx, -32
	.cfi_offset %r14, -24
	movq	%rsi, %rbx
	movq	%rdi, %r14
	movq	%rsi, %rdi
	callq	__ZN4core3fmt9Formatter15debug_lower_hex17hd07f6fde8d0365dfE
	testb	%al, %al
	je	LBB10_1
	movq	%r14, %rdi
	movq	%rbx, %rsi
	popq	%rbx
	popq	%r14
	popq	%rbp
	jmp	__ZN4core3fmt3num55_$LT$impl$u20$core..fmt..LowerHex$u20$for$u20$usize$GT$3fmt17hc47c170655f2f8b1E
LBB10_1:
	movq	%rbx, %rdi
	callq	__ZN4core3fmt9Formatter15debug_upper_hex17hf480c256a9c81c1eE
	movq	%r14, %rdi
	movq	%rbx, %rsi
	testb	%al, %al
	je	LBB10_4
	popq	%rbx
	popq	%r14
	popq	%rbp
	jmp	__ZN4core3fmt3num55_$LT$impl$u20$core..fmt..UpperHex$u20$for$u20$usize$GT$3fmt17he5a77a1ce12f6c22E
LBB10_4:
	popq	%rbx
	popq	%r14
	popq	%rbp
	jmp	__ZN4core3fmt3num3imp54_$LT$impl$u20$core..fmt..Display$u20$for$u20$usize$GT$3fmt17h12ea2856299c9b06E
	.cfi_endproc

	.p2align	4, 0x90
__ZN4core3ops8function6FnOnce40call_once$u7b$$u7b$vtable.shim$u7d$$u7d$17h897184b14bf23b27E:
	.cfi_startproc
	pushq	%rbp
	.cfi_def_cfa_offset 16
	.cfi_offset %rbp, -16
	movq	%rsp, %rbp
	.cfi_def_cfa_register %rbp
	subq	$16, %rsp
	movq	(%rdi), %rax
	movq	%rax, -8(%rbp)
	leaq	-8(%rbp), %rdi
	callq	__ZN3std4sync4once4Once9call_once28_$u7b$$u7b$closure$u7d$$u7d$17h39f4bb1d23853ae8E
	addq	$16, %rsp
	popq	%rbp
	retq
	.cfi_endproc

	.p2align	4, 0x90
__ZN4core3ptr13drop_in_place17h06deb09d2b18ba92E:
	.cfi_startproc
	pushq	%rbp
	.cfi_def_cfa_offset 16
	.cfi_offset %rbp, -16
	movq	%rsp, %rbp
	.cfi_def_cfa_register %rbp
	pushq	%rbx
	pushq	%rax
	.cfi_offset %rbx, -24
	movq	%rdi, %rbx
	movq	(%rdi), %rax
	movq	(%rax), %rdi
	callq	__ZN9hashbrown3raw23bucket_mask_to_capacity17h0acd005f12c39704E
	movq	(%rbx), %rcx
	subq	32(%rcx), %rax
	movq	%rax, 24(%rcx)
	addq	$8, %rsp
	popq	%rbx
	popq	%rbp
	retq
	.cfi_endproc

	.p2align	4, 0x90
__ZN4core3ptr13drop_in_place17h11761a665dca6456E:
	.cfi_startproc
	pushq	%rbp
	.cfi_def_cfa_offset 16
	.cfi_offset %rbp, -16
	movq	%rsp, %rbp
	.cfi_def_cfa_register %rbp
	popq	%rbp
	retq
	.cfi_endproc

	.p2align	4, 0x90
__ZN4core3ptr13drop_in_place17h3987c4e1613461f0E:
	.cfi_startproc
	pushq	%rbp
	.cfi_def_cfa_offset 16
	.cfi_offset %rbp, -16
	movq	%rsp, %rbp
	.cfi_def_cfa_register %rbp
	movq	(%rdi), %rax
	lock		decq	(%rax)
	jne	LBB14_1
	##MEMBARRIER
	popq	%rbp
	jmp	__ZN5alloc4sync12Arc$LT$T$GT$9drop_slow17h1553e370a8129d08E
LBB14_1:
	popq	%rbp
	retq
	.cfi_endproc

	.p2align	4, 0x90
__ZN4core3ptr13drop_in_place17h3b24802de2318f9fE:
	.cfi_startproc
	pushq	%rbp
	.cfi_def_cfa_offset 16
	.cfi_offset %rbp, -16
	movq	%rsp, %rbp
	.cfi_def_cfa_register %rbp
	pushq	%r14
	pushq	%rbx
	.cfi_offset %rbx, -32
	.cfi_offset %r14, -24
	movq	%rdi, %rbx
	cmpb	$0, 8(%rdi)
	jne	LBB15_4
	movq	(%rbx), %r14
	movq	__ZN3std9panicking11panic_count18GLOBAL_PANIC_COUNT17h5754c1d48a496461E@GOTPCREL(%rip), %rax
	movq	(%rax), %rax
	testq	%rax, %rax
	jne	LBB15_2
LBB15_4:
	movq	(%rbx), %rax
	movq	(%rax), %rdi
	popq	%rbx
	popq	%r14
	popq	%rbp
	jmp	_pthread_mutex_unlock
LBB15_2:
	callq	__ZN3std9panicking11panic_count17is_zero_slow_path17ha588394117c50e3dE
	testb	%al, %al
	jne	LBB15_4
	movb	$1, 8(%r14)
	jmp	LBB15_4
	.cfi_endproc

	.p2align	4, 0x90
__ZN4core3ptr13drop_in_place17h3c814f0160b92ba9E:
	.cfi_startproc
	pushq	%rbp
	.cfi_def_cfa_offset 16
	.cfi_offset %rbp, -16
	movq	%rsp, %rbp
	.cfi_def_cfa_register %rbp
	movq	(%rdi), %rdi
	movl	$64, %esi
	movl	$8, %edx
	popq	%rbp
	jmp	___rust_dealloc
	.cfi_endproc

	.p2align	4, 0x90
__ZN4core3ptr13drop_in_place17h62bcd001e70c7bbcE:
	.cfi_startproc
	pushq	%rbp
	.cfi_def_cfa_offset 16
	.cfi_offset %rbp, -16
	movq	%rsp, %rbp
	.cfi_def_cfa_register %rbp
	movq	(%rdi), %rax
	lock		decq	(%rax)
	jne	LBB17_1
	##MEMBARRIER
	popq	%rbp
	jmp	__ZN5alloc4sync12Arc$LT$T$GT$9drop_slow17hdb705a4ad4846e6fE
LBB17_1:
	popq	%rbp
	retq
	.cfi_endproc

	.p2align	4, 0x90
__ZN4core3ptr13drop_in_place17h71188d518bbee787E:
	.cfi_startproc
	pushq	%rbp
	.cfi_def_cfa_offset 16
	.cfi_offset %rbp, -16
	movq	%rsp, %rbp
	.cfi_def_cfa_register %rbp
	pushq	%r14
	pushq	%rbx
	.cfi_offset %rbx, -32
	.cfi_offset %r14, -24
	movq	%rdi, %rbx
	cmpb	$0, 8(%rdi)
	jne	LBB18_4
	movq	(%rbx), %r14
	movq	__ZN3std9panicking11panic_count18GLOBAL_PANIC_COUNT17h5754c1d48a496461E@GOTPCREL(%rip), %rax
	movq	(%rax), %rax
	testq	%rax, %rax
	jne	LBB18_2
LBB18_4:
	movq	(%rbx), %rax
	movq	(%rax), %rdi
	popq	%rbx
	popq	%r14
	popq	%rbp
	jmp	_pthread_mutex_unlock
LBB18_2:
	callq	__ZN3std9panicking11panic_count17is_zero_slow_path17ha588394117c50e3dE
	testb	%al, %al
	jne	LBB18_4
	movb	$1, 8(%r14)
	jmp	LBB18_4
	.cfi_endproc

	.p2align	4, 0x90
__ZN4core3ptr13drop_in_place17h79b203249e66da2eE:
	.cfi_startproc
	pushq	%rbp
	.cfi_def_cfa_offset 16
	.cfi_offset %rbp, -16
	movq	%rsp, %rbp
	.cfi_def_cfa_register %rbp
	pushq	%rbx
	pushq	%rax
	.cfi_offset %rbx, -24
	movq	%rdi, %rbx
	movq	(%rdi), %rdi
	callq	_pthread_mutex_destroy
	movq	(%rbx), %rdi
	movl	$64, %esi
	movl	$8, %edx
	addq	$8, %rsp
	popq	%rbx
	popq	%rbp
	jmp	___rust_dealloc
	.cfi_endproc

	.p2align	4, 0x90
__ZN4core3ptr13drop_in_place17h9410c0e69c85989bE:
	.cfi_startproc
	pushq	%rbp
	.cfi_def_cfa_offset 16
	.cfi_offset %rbp, -16
	movq	%rsp, %rbp
	.cfi_def_cfa_register %rbp
	movq	(%rdi), %rdi
	movl	$48, %esi
	movl	$8, %edx
	popq	%rbp
	jmp	___rust_dealloc
	.cfi_endproc

	.p2align	4, 0x90
__ZN4core3ptr13drop_in_place17h9c1cb8d6ed1aca93E:
	.cfi_startproc
	pushq	%rbp
	.cfi_def_cfa_offset 16
	.cfi_offset %rbp, -16
	movq	%rsp, %rbp
	.cfi_def_cfa_register %rbp
	pushq	%rbx
	pushq	%rax
	.cfi_offset %rbx, -24
	movq	%rdi, %rbx
	movq	16(%rdi), %rcx
	testq	%rcx, %rcx
	je	LBB21_6
	leaq	1(%rcx), %rax
	movl	$16, %edx
	xorl	%esi, %esi
	mulq	%rdx
	setno	%dl
	jo	LBB21_2
	movb	%dl, %sil
	shlq	$3, %rsi
	leaq	16(%rcx,%rsi), %rdx
	addq	$17, %rcx
	negq	%rsi
	andq	%rdx, %rsi
	subq	%rcx, %rsi
	addq	%rcx, %rsi
	jae	LBB21_4
LBB21_2:
	xorl	%edx, %edx
	jmp	LBB21_5
LBB21_4:
	leaq	(%rsi,%rax), %rcx
	xorl	%edi, %edi
	cmpq	$-15, %rcx
	setb	%dil
	shlq	$4, %rdi
	xorl	%edx, %edx
	addq	%rax, %rsi
	cmovaeq	%rdi, %rdx
LBB21_5:
	movq	24(%rbx), %rdi
	callq	___rust_dealloc
LBB21_6:
	movq	64(%rbx), %rsi
	testq	%rsi, %rsi
	je	LBB21_9
	movq	56(%rbx), %rdi
	testq	%rdi, %rdi
	je	LBB21_9
	shlq	$3, %rsi
	testq	%rsi, %rsi
	je	LBB21_9
	movl	$8, %edx
	addq	$8, %rsp
	popq	%rbx
	popq	%rbp
	jmp	___rust_dealloc
LBB21_9:
	addq	$8, %rsp
	popq	%rbx
	popq	%rbp
	retq
	.cfi_endproc

	.p2align	4, 0x90
__ZN4core3ptr13drop_in_place17hec1c80503e313116E:
Lfunc_begin2:
	.cfi_startproc
	.cfi_personality 155, _rust_eh_personality
	.cfi_lsda 16, Lexception2
	pushq	%rbp
	.cfi_def_cfa_offset 16
	.cfi_offset %rbp, -16
	movq	%rsp, %rbp
	.cfi_def_cfa_register %rbp
	pushq	%r14
	pushq	%rbx
	.cfi_offset %rbx, -32
	.cfi_offset %r14, -24
	movq	%rdi, %rbx
Ltmp17:
	callq	__ZN69_$LT$std..sync..condvar..Condvar$u20$as$u20$core..ops..drop..Drop$GT$4drop17h997a5cc5da4d80f8E
Ltmp18:
	movq	(%rbx), %rdi
	movl	$48, %esi
	movl	$8, %edx
	popq	%rbx
	popq	%r14
	popq	%rbp
	jmp	___rust_dealloc
LBB22_2:
Ltmp19:
	movq	%rax, %r14
	movq	%rbx, %rdi
	callq	__ZN4core3ptr13drop_in_place17h9410c0e69c85989bE
	movq	%r14, %rdi
	callq	__Unwind_Resume
	ud2
Lfunc_end2:
	.cfi_endproc
	.section	__TEXT,__gcc_except_tab
	.p2align	2
GCC_except_table22:
Lexception2:
	.byte	255
	.byte	255
	.byte	1
	.uleb128 Lcst_end2-Lcst_begin2
Lcst_begin2:
	.uleb128 Ltmp17-Lfunc_begin2
	.uleb128 Ltmp18-Ltmp17
	.uleb128 Ltmp19-Lfunc_begin2
	.byte	0
	.uleb128 Ltmp18-Lfunc_begin2
	.uleb128 Lfunc_end2-Ltmp18
	.byte	0
	.byte	0
Lcst_end2:
	.p2align	2

	.section	__TEXT,__text,regular,pure_instructions
	.p2align	4, 0x90
__ZN4core3ptr13drop_in_place17hfb14cd9e1c5dfd0cE:
Lfunc_begin3:
	.cfi_startproc
	.cfi_personality 155, _rust_eh_personality
	.cfi_lsda 16, Lexception3
	pushq	%rbp
	.cfi_def_cfa_offset 16
	.cfi_offset %rbp, -16
	movq	%rsp, %rbp
	.cfi_def_cfa_register %rbp
	pushq	%r14
	pushq	%rbx
	.cfi_offset %rbx, -32
	.cfi_offset %r14, -24
	movq	%rdi, %rbx
Ltmp20:
	callq	__ZN86_$LT$crossbeam_utils..sync..wait_group..WaitGroup$u20$as$u20$core..ops..drop..Drop$GT$4drop17h29afbd86effea95cE
Ltmp21:
	movq	(%rbx), %rax
	lock		decq	(%rax)
	jne	LBB23_2
	##MEMBARRIER
	movq	%rbx, %rdi
	popq	%rbx
	popq	%r14
	popq	%rbp
	jmp	__ZN5alloc4sync12Arc$LT$T$GT$9drop_slow17hdb705a4ad4846e6fE
LBB23_2:
	popq	%rbx
	popq	%r14
	popq	%rbp
	retq
LBB23_3:
Ltmp22:
	movq	%rax, %r14
	movq	%rbx, %rdi
	callq	__ZN4core3ptr13drop_in_place17h62bcd001e70c7bbcE
	movq	%r14, %rdi
	callq	__Unwind_Resume
	ud2
Lfunc_end3:
	.cfi_endproc
	.section	__TEXT,__gcc_except_tab
	.p2align	2
GCC_except_table23:
Lexception3:
	.byte	255
	.byte	255
	.byte	1
	.uleb128 Lcst_end3-Lcst_begin3
Lcst_begin3:
	.uleb128 Ltmp20-Lfunc_begin3
	.uleb128 Ltmp21-Ltmp20
	.uleb128 Ltmp22-Lfunc_begin3
	.byte	0
	.uleb128 Ltmp21-Lfunc_begin3
	.uleb128 Lfunc_end3-Ltmp21
	.byte	0
	.byte	0
Lcst_end3:
	.p2align	2

	.section	__TEXT,__text,regular,pure_instructions
	.p2align	4, 0x90
__ZN58_$LT$std..thread..ThreadId$u20$as$u20$core..hash..Hash$GT$4hash17h442e5f26360bcaeaE:
	.cfi_startproc
	pushq	%rbp
	.cfi_def_cfa_offset 16
	.cfi_offset %rbp, -16
	movq	%rsp, %rbp
	.cfi_def_cfa_register %rbp
	pushq	%rax
	movq	%rdi, -8(%rbp)
	addq	$8, 16(%rsi)
	movq	64(%rsi), %r8
	testq	%r8, %r8
	je	LBB24_1
	movl	$8, %edx
	movl	$8, %r10d
	subq	%r8, %r10
	cmovaeq	%r10, %rdx
	xorl	%r9d, %r9d
	xorl	%eax, %eax
	cmpq	$3, %rdx
	seta	%al
	movl	%edi, %ecx
	cmovaq	%rcx, %r9
	leaq	1(,%rax,4), %rcx
	shlq	$2, %rax
	cmpq	%rdx, %rcx
	jae	LBB24_4
	movzwl	-8(%rbp,%rax), %edi
	leal	(,%rax,8), %ecx
	shlq	%cl, %rdi
	orq	%rdi, %r9
	orq	$2, %rax
LBB24_4:
	cmpq	%rdx, %rax
	jae	LBB24_6
	movzbl	-8(%rbp,%rax), %edx
	shll	$3, %eax
	movl	%eax, %ecx
	shlq	%cl, %rdx
	orq	%rdx, %r9
LBB24_6:
	leal	(,%r8,8), %ecx
	shlq	%cl, %r9
	orq	56(%rsi), %r9
	movq	%r9, 56(%rsi)
	cmpq	$8, %r8
	jbe	LBB24_7
	addq	$8, %r8
	movq	%r8, 64(%rsi)
	addq	$8, %rsp
	popq	%rbp
	retq
LBB24_1:
	xorl	%r10d, %r10d
	jmp	LBB24_8
LBB24_7:
	movq	48(%rsi), %rcx
	xorq	%r9, %rcx
	movq	40(%rsi), %rdx
	movq	24(%rsi), %rax
	addq	%rdx, %rax
	rolq	$13, %rdx
	xorq	%rax, %rdx
	rolq	$32, %rax
	movq	32(%rsi), %rdi
	addq	%rcx, %rdi
	rolq	$16, %rcx
	xorq	%rdi, %rcx
	addq	%rcx, %rax
	rolq	$21, %rcx
	xorq	%rax, %rcx
	movq	%rcx, 48(%rsi)
	addq	%rdx, %rdi
	rolq	$17, %rdx
	xorq	%rdi, %rdx
	movq	%rdx, 40(%rsi)
	rolq	$32, %rdi
	movq	%rdi, 32(%rsi)
	xorq	%r9, %rax
	movq	%rax, 24(%rsi)
	movq	$0, 64(%rsi)
LBB24_8:
	movl	$8, %r9d
	subq	%r10, %r9
	movl	%r9d, %r8d
	andl	$7, %r8d
	andq	$-8, %r9
	cmpq	%r9, %r10
	jae	LBB24_12
	movq	48(%rsi), %rax
	movq	24(%rsi), %rdi
	movq	32(%rsi), %rcx
	movq	40(%rsi), %rdx
	.p2align	4, 0x90
LBB24_10:
	addq	%rdx, %rdi
	rolq	$13, %rdx
	movq	-8(%rbp,%r10), %r11
	xorq	%rdi, %rdx
	rolq	$32, %rdi
	xorq	%r11, %rax
	addq	%rax, %rcx
	rolq	$16, %rax
	xorq	%rcx, %rax
	addq	%rax, %rdi
	rolq	$21, %rax
	addq	%rdx, %rcx
	rolq	$17, %rdx
	xorq	%rcx, %rdx
	rolq	$32, %rcx
	xorq	%rdi, %rax
	xorq	%r11, %rdi
	addq	$8, %r10
	cmpq	%r9, %r10
	jb	LBB24_10
	movq	%rax, 48(%rsi)
	movq	%rdi, 24(%rsi)
	movq	%rdx, 40(%rsi)
	movq	%rcx, 32(%rsi)
LBB24_12:
	cmpl	$4, %r8d
	jb	LBB24_13
	movl	-8(%rbp,%r10), %edi
	movl	$4, %eax
	movq	%rax, %rcx
	orq	$1, %rcx
	cmpq	%r8, %rcx
	jb	LBB24_16
	jmp	LBB24_17
LBB24_13:
	xorl	%eax, %eax
	xorl	%edi, %edi
	movq	%rax, %rcx
	orq	$1, %rcx
	cmpq	%r8, %rcx
	jae	LBB24_17
LBB24_16:
	leaq	(%rax,%r10), %rcx
	movzwl	-8(%rbp,%rcx), %edx
	leal	(,%rax,8), %ecx
	shlq	%cl, %rdx
	orq	%rdx, %rdi
	orq	$2, %rax
LBB24_17:
	cmpq	%r8, %rax
	jae	LBB24_19
	addq	%rax, %r10
	movzbl	-8(%rbp,%r10), %edx
	shll	$3, %eax
	movl	%eax, %ecx
	shlq	%cl, %rdx
	orq	%rdx, %rdi
LBB24_19:
	movq	%rdi, 56(%rsi)
	movq	%r8, 64(%rsi)
	addq	$8, %rsp
	popq	%rbp
	retq
	.cfi_endproc

	.p2align	4, 0x90
__ZN5alloc4sync12Arc$LT$T$GT$9drop_slow17h1553e370a8129d08E:
Lfunc_begin4:
	.cfi_startproc
	.cfi_personality 155, _rust_eh_personality
	.cfi_lsda 16, Lexception4
	pushq	%rbp
	.cfi_def_cfa_offset 16
	.cfi_offset %rbp, -16
	movq	%rsp, %rbp
	.cfi_def_cfa_register %rbp
	pushq	%r14
	pushq	%rbx
	.cfi_offset %rbx, -32
	.cfi_offset %r14, -24
	movq	%rdi, %r14
	movq	(%rdi), %rbx
	movq	16(%rbx), %rax
	testq	%rax, %rax
	je	LBB25_3
	movb	$0, (%rax)
	movq	24(%rbx), %rsi
	testq	%rsi, %rsi
	je	LBB25_3
	movq	16(%rbx), %rdi
	movl	$1, %edx
	callq	___rust_dealloc
LBB25_3:
	movq	48(%rbx), %rdi
	callq	_pthread_mutex_destroy
	movq	48(%rbx), %rdi
	movl	$64, %esi
	movl	$8, %edx
	callq	___rust_dealloc
	addq	$64, %rbx
Ltmp23:
	movq	%rbx, %rdi
	callq	__ZN69_$LT$std..sync..condvar..Condvar$u20$as$u20$core..ops..drop..Drop$GT$4drop17h997a5cc5da4d80f8E
Ltmp24:
	movq	(%rbx), %rdi
	movl	$48, %esi
	movl	$8, %edx
	callq	___rust_dealloc
	movq	(%r14), %rdi
	cmpq	$-1, %rdi
	je	LBB25_6
	lock		decq	8(%rdi)
	jne	LBB25_6
	##MEMBARRIER
	movl	$80, %esi
	movl	$8, %edx
	popq	%rbx
	popq	%r14
	popq	%rbp
	jmp	___rust_dealloc
LBB25_6:
	popq	%rbx
	popq	%r14
	popq	%rbp
	retq
LBB25_7:
Ltmp25:
	movq	%rax, %r14
	movq	%rbx, %rdi
	callq	__ZN4core3ptr13drop_in_place17h9410c0e69c85989bE
	movq	%r14, %rdi
	callq	__Unwind_Resume
	ud2
Lfunc_end4:
	.cfi_endproc
	.section	__TEXT,__gcc_except_tab
	.p2align	2
GCC_except_table25:
Lexception4:
	.byte	255
	.byte	255
	.byte	1
	.uleb128 Lcst_end4-Lcst_begin4
Lcst_begin4:
	.uleb128 Ltmp23-Lfunc_begin4
	.uleb128 Ltmp24-Ltmp23
	.uleb128 Ltmp25-Lfunc_begin4
	.byte	0
	.uleb128 Ltmp24-Lfunc_begin4
	.uleb128 Lfunc_end4-Ltmp24
	.byte	0
	.byte	0
Lcst_end4:
	.p2align	2

	.section	__TEXT,__text,regular,pure_instructions
	.p2align	4, 0x90
__ZN5alloc4sync12Arc$LT$T$GT$9drop_slow17hdb705a4ad4846e6fE:
Lfunc_begin5:
	.cfi_startproc
	.cfi_personality 155, _rust_eh_personality
	.cfi_lsda 16, Lexception5
	pushq	%rbp
	.cfi_def_cfa_offset 16
	.cfi_offset %rbp, -16
	movq	%rsp, %rbp
	.cfi_def_cfa_register %rbp
	pushq	%r15
	pushq	%r14
	pushq	%rbx
	pushq	%rax
	.cfi_offset %rbx, -40
	.cfi_offset %r14, -32
	.cfi_offset %r15, -24
	movq	%rdi, %r14
	movq	(%rdi), %rbx
	leaq	16(%rbx), %r15
Ltmp26:
	movq	%r15, %rdi
	callq	__ZN69_$LT$std..sync..condvar..Condvar$u20$as$u20$core..ops..drop..Drop$GT$4drop17h997a5cc5da4d80f8E
Ltmp27:
	movq	16(%rbx), %rdi
	movl	$48, %esi
	movl	$8, %edx
	callq	___rust_dealloc
	movq	32(%rbx), %rdi
	callq	_pthread_mutex_destroy
	movq	32(%rbx), %rdi
	movl	$64, %esi
	movl	$8, %edx
	callq	___rust_dealloc
	movq	(%r14), %rdi
	cmpq	$-1, %rdi
	je	LBB26_3
	lock		decq	8(%rdi)
	jne	LBB26_3
	##MEMBARRIER
	movl	$56, %esi
	movl	$8, %edx
	addq	$8, %rsp
	popq	%rbx
	popq	%r14
	popq	%r15
	popq	%rbp
	jmp	___rust_dealloc
LBB26_3:
	addq	$8, %rsp
	popq	%rbx
	popq	%r14
	popq	%r15
	popq	%rbp
	retq
LBB26_4:
Ltmp28:
	movq	%rax, %r14
	movq	%r15, %rdi
	callq	__ZN4core3ptr13drop_in_place17h9410c0e69c85989bE
	addq	$32, %rbx
	movq	%rbx, %rdi
	callq	__ZN4core3ptr13drop_in_place17h79b203249e66da2eE
	movq	%r14, %rdi
	callq	__Unwind_Resume
	ud2
Lfunc_end5:
	.cfi_endproc
	.section	__TEXT,__gcc_except_tab
	.p2align	2
GCC_except_table26:
Lexception5:
	.byte	255
	.byte	255
	.byte	1
	.uleb128 Lcst_end5-Lcst_begin5
Lcst_begin5:
	.uleb128 Ltmp26-Lfunc_begin5
	.uleb128 Ltmp27-Ltmp26
	.uleb128 Ltmp28-Lfunc_begin5
	.byte	0
	.uleb128 Ltmp27-Lfunc_begin5
	.uleb128 Lfunc_end5-Ltmp27
	.byte	0
	.byte	0
Lcst_end5:
	.p2align	2

	.section	__TEXT,__text,regular,pure_instructions
	.p2align	4, 0x90
__ZN5alloc5alloc8box_free17h0f024b19a314ca84E:
	.cfi_startproc
	pushq	%rbp
	.cfi_def_cfa_offset 16
	.cfi_offset %rbp, -16
	movq	%rsp, %rbp
	.cfi_def_cfa_register %rbp
	movl	$64, %esi
	movl	$8, %edx
	popq	%rbp
	jmp	___rust_dealloc
	.cfi_endproc

	.p2align	4, 0x90
__ZN62_$LT$core..cell..Cell$LT$T$GT$$u20$as$u20$core..fmt..Debug$GT$3fmt17h8c0e58160ade50e1E:
	.cfi_startproc
	pushq	%rbp
	.cfi_def_cfa_offset 16
	.cfi_offset %rbp, -16
	movq	%rsp, %rbp
	.cfi_def_cfa_register %rbp
	pushq	%r14
	pushq	%rbx
	subq	$32, %rsp
	.cfi_offset %rbx, -32
	.cfi_offset %r14, -24
	movq	%rdi, %rbx
	leaq	L___unnamed_15(%rip), %rdx
	leaq	-40(%rbp), %r14
	movl	$4, %ecx
	movq	%r14, %rdi
	callq	__ZN4core3fmt9Formatter12debug_struct17ha1a64e91d2a98458E
	movl	(%rbx), %eax
	movl	%eax, -20(%rbp)
	leaq	l___unnamed_16(%rip), %rsi
	leaq	l___unnamed_17(%rip), %r8
	leaq	-20(%rbp), %rcx
	movl	$5, %edx
	movq	%r14, %rdi
	callq	__ZN4core3fmt8builders11DebugStruct5field17h6c54d35ac41bb1e6E
	movq	%rax, %rdi
	callq	__ZN4core3fmt8builders11DebugStruct6finish17h67ed49fd5e81bb24E
	addq	$32, %rsp
	popq	%rbx
	popq	%r14
	popq	%rbp
	retq
	.cfi_endproc

	.p2align	4, 0x90
__ZN82_$LT$std..sys_common..poison..PoisonError$LT$T$GT$$u20$as$u20$core..fmt..Debug$GT$3fmt17h16104f9e9ba7212dE:
	.cfi_startproc
	pushq	%rbp
	.cfi_def_cfa_offset 16
	.cfi_offset %rbp, -16
	movq	%rsp, %rbp
	.cfi_def_cfa_register %rbp
	movq	%rsi, %rdx
	leaq	l___unnamed_18(%rip), %rdi
	movl	$25, %esi
	popq	%rbp
	jmp	__ZN40_$LT$str$u20$as$u20$core..fmt..Debug$GT$3fmt17h5b42b6f497bd434cE
	.cfi_endproc

	.p2align	4, 0x90
__ZN82_$LT$std..sys_common..poison..PoisonError$LT$T$GT$$u20$as$u20$core..fmt..Debug$GT$3fmt17h774e0ccbd4f1050cE:
	.cfi_startproc
	pushq	%rbp
	.cfi_def_cfa_offset 16
	.cfi_offset %rbp, -16
	movq	%rsp, %rbp
	.cfi_def_cfa_register %rbp
	movq	%rsi, %rdx
	leaq	l___unnamed_18(%rip), %rdi
	movl	$25, %esi
	popq	%rbp
	jmp	__ZN40_$LT$str$u20$as$u20$core..fmt..Debug$GT$3fmt17h5b42b6f497bd434cE
	.cfi_endproc

	.p2align	4, 0x90
__ZN91_$LT$std..panicking..begin_panic..PanicPayload$LT$A$GT$$u20$as$u20$core..panic..BoxMeUp$GT$3get17h6643b7f38f11a83cE:
	.cfi_startproc
	pushq	%rbp
	.cfi_def_cfa_offset 16
	.cfi_offset %rbp, -16
	movq	%rsp, %rbp
	.cfi_def_cfa_register %rbp
	cmpq	$0, (%rdi)
	je	LBB31_2
	movq	%rdi, %rax
	leaq	l___unnamed_19(%rip), %rdx
	popq	%rbp
	retq
LBB31_2:
	callq	__ZN3std7process5abort17hff53fa3bc108bcb5E
	.cfi_endproc

	.p2align	4, 0x90
__ZN91_$LT$std..panicking..begin_panic..PanicPayload$LT$A$GT$$u20$as$u20$core..panic..BoxMeUp$GT$8take_box17h26ab211bb0fbabefE:
	.cfi_startproc
	pushq	%rbp
	.cfi_def_cfa_offset 16
	.cfi_offset %rbp, -16
	movq	%rsp, %rbp
	.cfi_def_cfa_register %rbp
	pushq	%r14
	pushq	%rbx
	.cfi_offset %rbx, -32
	.cfi_offset %r14, -24
	movq	(%rdi), %rbx
	movq	8(%rdi), %r14
	movq	$0, (%rdi)
	testq	%rbx, %rbx
	je	LBB32_3
	movl	$16, %edi
	movl	$8, %esi
	callq	___rust_alloc
	testq	%rax, %rax
	je	LBB32_4
	movq	%rbx, (%rax)
	movq	%r14, 8(%rax)
	leaq	l___unnamed_19(%rip), %rdx
	popq	%rbx
	popq	%r14
	popq	%rbp
	retq
LBB32_3:
	callq	__ZN3std7process5abort17hff53fa3bc108bcb5E
LBB32_4:
	movl	$16, %edi
	movl	$8, %esi
	callq	__ZN5alloc5alloc18handle_alloc_error17h28974197717b8939E
	.cfi_endproc

	.section	__TEXT,__literal16,16byte_literals
	.p2align	4
LCPI33_0:
	.space	16,128
LCPI33_1:
	.quad	8317987319222330741
	.quad	7816392313619706465
LCPI33_2:
	.quad	7237128888997146477
	.quad	8387220255154660723
	.section	__TEXT,__text,regular,pure_instructions
	.p2align	4, 0x90
__ZN9hashbrown3raw17RawTable$LT$T$GT$14reserve_rehash17h4f2f3f3d4734fff8E:
Lfunc_begin6:
	.cfi_startproc
	.cfi_personality 155, _rust_eh_personality
	.cfi_lsda 16, Lexception6
	pushq	%rbp
	.cfi_def_cfa_offset 16
	.cfi_offset %rbp, -16
	movq	%rsp, %rbp
	.cfi_def_cfa_register %rbp
	pushq	%r15
	pushq	%r14
	pushq	%r13
	pushq	%r12
	pushq	%rbx
	subq	$168, %rsp
	.cfi_offset %rbx, -56
	.cfi_offset %r12, -48
	.cfi_offset %r13, -40
	.cfi_offset %r14, -32
	.cfi_offset %r15, -24
	movq	%rdi, %r14
	movq	32(%rsi), %rbx
	incq	%rbx
	jne	LBB33_1
LBB33_10:
	movl	$1, %edi
	callq	__ZN9hashbrown3raw11Fallibility17capacity_overflow17hfb2bba84b554a21fE
LBB33_11:
	movq	%rax, 8(%r14)
	movq	%rdx, 16(%r14)
	movq	$1, (%r14)
	jmp	LBB33_12
LBB33_1:
	movq	%rdx, %r13
	movq	%rsi, %r15
	movq	(%rsi), %rdi
	callq	__ZN9hashbrown3raw23bucket_mask_to_capacity17h0acd005f12c39704E
	movq	%rax, %rcx
	shrq	%rcx
	cmpq	%rcx, %rbx
	movq	%r15, -48(%rbp)
	jbe	LBB33_32
	incq	%rax
	cmpq	%rax, %rbx
	cmovaq	%rbx, %rax
	testq	%rax, %rax
	je	LBB33_14
	movq	%rax, %rdi
	callq	__ZN9hashbrown3raw19capacity_to_buckets17hfc8cca99afa52604E
	testq	%rax, %rax
	je	LBB33_10
	movq	%rdx, %r12
	movl	$16, %ecx
	xorl	%esi, %esi
	movq	%rdx, %rax
	mulq	%rcx
	setno	%cl
	jo	LBB33_10
	movb	%cl, %sil
	shlq	$3, %rsi
	leaq	16(%r12), %rdx
	leaq	15(%r12,%rsi), %rcx
	negq	%rsi
	andq	%rcx, %rsi
	subq	%rdx, %rsi
	addq	%rdx, %rsi
	jb	LBB33_10
	addq	%rsi, %rax
	jb	LBB33_10
	cmpq	$-16, %rax
	ja	LBB33_10
	movq	%rdx, -72(%rbp)
	movq	%rsi, -80(%rbp)
	movl	$16, %esi
	movq	%rax, %r15
	movq	%rax, %rdi
	callq	___rust_alloc
	testq	%rax, %rax
	je	LBB33_9
	movq	%rax, %rbx
	movq	%r13, -64(%rbp)
	movq	%r14, -56(%rbp)
	decq	%r12
	movq	%r12, %rdi
	callq	__ZN9hashbrown3raw23bucket_mask_to_capacity17h0acd005f12c39704E
	movq	%rax, -88(%rbp)
	movq	-80(%rbp), %r15
	addq	%rbx, %r15
	movq	%rbx, %rdi
	movl	$255, %esi
	movq	-72(%rbp), %rdx
	callq	_memset
	movq	%r15, %rsi
	jmp	LBB33_15
LBB33_32:
	movq	(%r15), %rcx
	incq	%rcx
	xorl	%eax, %eax
	movdqa	LCPI33_0(%rip), %xmm0
	xorl	%esi, %esi
	movq	%r15, %rbx
	jmp	LBB33_33
	.p2align	4, 0x90
LBB33_38:
	movq	8(%rbx), %rsi
	pxor	%xmm1, %xmm1
	pcmpgtb	(%rsi,%rax), %xmm1
	por	%xmm0, %xmm1
	movdqa	%xmm1, (%rsi,%rax)
	movb	$1, %sil
	movq	%rdx, %rax
LBB33_33:
	testb	$1, %sil
	je	LBB33_34
	leaq	15(%rax), %rdx
	incq	%rdx
	movq	%rax, %rsi
	addq	$15, %rsi
	cmovbq	%rcx, %rdx
	cmpq	%rcx, %rsi
	cmovaeq	%rcx, %rdx
	addq	$15, %rax
	jb	LBB33_39
	cmpq	%rcx, %rax
	jb	LBB33_38
	jmp	LBB33_39
	.p2align	4, 0x90
LBB33_34:
	cmpq	%rcx, %rax
	jae	LBB33_39
	leaq	1(%rax), %rdx
	jmp	LBB33_38
LBB33_39:
	movq	(%rbx), %rdx
	movq	8(%rbx), %rsi
	incq	%rdx
	cmpq	$15, %rdx
	ja	LBB33_41
	leaq	16(%rsi), %rdi
	callq	_memmove
	movq	%rbx, -184(%rbp)
	movq	(%rbx), %r15
	cmpq	$-1, %r15
	je	LBB33_43
LBB33_44:
	movq	%r14, -56(%rbp)
	movq	(%r13), %r12
	xorl	%r14d, %r14d
	jmp	LBB33_45
	.p2align	4, 0x90
LBB33_51:
	movq	16(%rbx), %rax
	movq	%r14, %rcx
	shlq	$4, %rcx
	leaq	(%rax,%rcx), %r13
	movq	(%rax,%rcx), %rdi
	movq	(%r12), %rax
	movq	8(%r12), %rcx
	movq	%rax, %xmm0
	pshufd	$68, %xmm0, %xmm0
	pxor	LCPI33_1(%rip), %xmm0
	movq	%rcx, %xmm1
	pshufd	$68, %xmm1, %xmm1
	pxor	LCPI33_2(%rip), %xmm1
	movq	%rax, -160(%rbp)
	movq	%rcx, -152(%rbp)
	movq	$0, -144(%rbp)
	movdqu	%xmm0, -136(%rbp)
	movdqu	%xmm1, -120(%rbp)
	leaq	-104(%rbp), %rax
	movq	$0, 8(%rax)
	movq	$0, (%rax)
	leaq	-160(%rbp), %rsi
	callq	__ZN58_$LT$std..thread..ThreadId$u20$as$u20$core..hash..Hash$GT$4hash17h442e5f26360bcaeaE
	movq	-144(%rbp), %rdi
	movq	-120(%rbp), %r8
	shlq	$56, %rdi
	orq	-104(%rbp), %rdi
	movq	-112(%rbp), %rcx
	movq	-136(%rbp), %rdx
	addq	%r8, %rdx
	rolq	$13, %r8
	xorq	%rdi, %rcx
	xorq	%rdx, %r8
	rolq	$32, %rdx
	movq	-128(%rbp), %rsi
	addq	%rcx, %rsi
	rolq	$16, %rcx
	xorq	%rsi, %rcx
	addq	%rcx, %rdx
	rolq	$21, %rcx
	addq	%r8, %rsi
	rolq	$17, %r8
	xorq	%rdx, %rcx
	xorq	%rsi, %r8
	rolq	$32, %rsi
	xorq	%rdi, %rdx
	addq	%r8, %rdx
	rolq	$13, %r8
	xorq	%rdx, %r8
	rolq	$32, %rdx
	xorq	$255, %rsi
	addq	%rcx, %rsi
	rolq	$16, %rcx
	xorq	%rsi, %rcx
	addq	%rcx, %rdx
	rolq	$21, %rcx
	addq	%r8, %rsi
	rolq	$17, %r8
	xorq	%rsi, %r8
	rolq	$32, %rsi
	xorq	%rdx, %rcx
	addq	%r8, %rdx
	rolq	$13, %r8
	xorq	%rdx, %r8
	rolq	$32, %rdx
	addq	%rcx, %rsi
	rolq	$16, %rcx
	xorq	%rsi, %rcx
	addq	%rcx, %rdx
	rolq	$21, %rcx
	addq	%r8, %rsi
	rolq	$17, %r8
	xorq	%rsi, %r8
	rolq	$32, %rsi
	xorq	%rdx, %rcx
	addq	%r8, %rdx
	rolq	$13, %r8
	addq	%rcx, %rsi
	rolq	$16, %rcx
	xorq	%rsi, %rcx
	rolq	$21, %rcx
	xorq	%rdx, %r8
	addq	%r8, %rsi
	rolq	$17, %r8
	xorq	%rsi, %r8
	rolq	$32, %rsi
	xorq	%rsi, %r8
	xorq	%rcx, %r8
	movq	(%rbx), %rsi
	movq	8(%rbx), %rdx
	movq	%r8, %rcx
	xorl	%edi, %edi
	.p2align	4, 0x90
LBB33_52:
	movq	%rcx, %rbx
	andq	%rsi, %rbx
	movdqu	(%rdx,%rbx), %xmm0
	pmovmskb	%xmm0, %eax
	leaq	16(%rdi,%rbx), %rcx
	addq	$16, %rdi
	testw	%ax, %ax
	je	LBB33_52
	bsfw	%ax, %ax
	movzwl	%ax, %eax
	addq	%rax, %rbx
	andq	%rsi, %rbx
	cmpb	$0, (%rdx,%rbx)
	jns	LBB33_54
LBB33_55:
	movq	%r8, %rax
	andq	%rsi, %rax
	movq	%r14, %rcx
	subq	%rax, %rcx
	movq	%rbx, %rdi
	subq	%rax, %rdi
	xorq	%rcx, %rdi
	andq	%rsi, %rdi
	cmpq	$15, %rdi
	jbe	LBB33_56
	movb	(%rdx,%rbx), %al
	shrq	$57, %r8
	leaq	-16(%rbx), %rcx
	andq	%rsi, %rcx
	movb	%r8b, (%rdx,%rbx)
	movb	%r8b, 16(%rcx,%rdx)
	cmpb	$-1, %al
	je	LBB33_58
	movq	-48(%rbp), %rsi
	movq	16(%rsi), %rax
	shlq	$4, %rbx
	movdqu	(%rax,%rbx), %xmm0
	movq	(%r13), %rcx
	movq	8(%r13), %rdx
	movq	%rdx, 8(%rax,%rbx)
	movq	%rcx, (%rax,%rbx)
	movq	%rsi, %rbx
	movdqu	%xmm0, (%r13)
	jmp	LBB33_51
LBB33_54:
	movdqa	(%rdx), %xmm0
	pmovmskb	%xmm0, %eax
	bsfw	%ax, %ax
	movzwl	%ax, %ebx
	jmp	LBB33_55
	.p2align	4, 0x90
LBB33_56:
	shrq	$57, %r8
	leaq	-16(%r14), %rax
	andq	%rax, %rsi
	movb	%r8b, (%rdx,%r14)
	movb	%r8b, 16(%rsi,%rdx)
	movq	-48(%rbp), %rbx
LBB33_46:
	cmpq	%r15, %r14
	leaq	1(%r14), %r14
	je	LBB33_47
LBB33_45:
	movq	8(%rbx), %rax
	cmpb	$-128, (%rax,%r14)
	je	LBB33_51
	jmp	LBB33_46
LBB33_58:
	leaq	-16(%r14), %rax
	movq	-48(%rbp), %rsi
	andq	(%rsi), %rax
	movq	8(%rsi), %rcx
	movb	$-1, (%rcx,%r14)
	movb	$-1, 16(%rax,%rcx)
	movq	16(%rsi), %rax
	shlq	$4, %rbx
	movq	(%r13), %rcx
	movq	8(%r13), %rdx
	movq	%rdx, 8(%rax,%rbx)
	movq	%rcx, (%rax,%rbx)
	movq	%rsi, %rbx
	jmp	LBB33_46
LBB33_47:
	movq	(%rbx), %rdi
	movq	-56(%rbp), %r14
	jmp	LBB33_48
LBB33_41:
	movq	(%rsi), %rax
	movq	8(%rsi), %rcx
	movq	%rcx, 8(%rsi,%rdx)
	movq	%rax, (%rsi,%rdx)
	movq	%rbx, -184(%rbp)
	movq	(%rbx), %r15
	cmpq	$-1, %r15
	jne	LBB33_44
LBB33_43:
	movq	$-1, %rdi
LBB33_48:
Ltmp29:
	callq	__ZN9hashbrown3raw23bucket_mask_to_capacity17h0acd005f12c39704E
Ltmp30:
	subq	32(%rbx), %rax
	movq	%rax, 24(%rbx)
	movq	$0, (%r14)
LBB33_12:
	addq	$168, %rsp
	popq	%rbx
	popq	%r12
	popq	%r13
	popq	%r14
	popq	%r15
	popq	%rbp
	retq
LBB33_14:
	movq	%r13, -64(%rbp)
	movq	%r14, -56(%rbp)
	callq	__ZN9hashbrown3raw4sse25Group12static_empty17h2e96e5fa45e5688dE
	movq	%rax, %rbx
	movl	$8, %esi
	xorl	%eax, %eax
	movq	%rax, -88(%rbp)
	xorl	%r12d, %r12d
LBB33_15:
	movq	-48(%rbp), %rcx
	movq	32(%rcx), %rax
	movq	%rax, -168(%rbp)
	movq	%rbx, %xmm0
	movq	%r12, %xmm1
	punpcklqdq	%xmm0, %xmm1
	movdqa	%xmm1, -208(%rbp)
	movq	16(%rcx), %r14
	movq	(%rcx), %rax
	movq	8(%rcx), %r13
	leaq	1(%rax,%r13), %rax
	movdqa	(%r13), %xmm0
	pmovmskb	%xmm0, %r15d
	notl	%r15d
	addq	$16, %r13
	movq	-64(%rbp), %rcx
	movq	(%rcx), %rcx
	movq	%rcx, -176(%rbp)
	movq	%rsi, -80(%rbp)
	movq	%rax, -72(%rbp)
	testw	%r15w, %r15w
	jne	LBB33_20
	.p2align	4, 0x90
LBB33_17:
	cmpq	%rax, %r13
	jae	LBB33_25
	movdqa	(%r13), %xmm0
	pmovmskb	%xmm0, %r15d
	addq	$256, %r14
	addq	$16, %r13
	cmpw	$-1, %r15w
	je	LBB33_17
	notl	%r15d
LBB33_20:
	bsfw	%r15w, %ax
	movzwl	%ax, %eax
	shlq	$4, %rax
	leaq	(%r14,%rax), %rcx
	movq	%rcx, -64(%rbp)
	movq	(%r14,%rax), %rdi
	movq	-176(%rbp), %rcx
	movq	(%rcx), %rax
	movq	8(%rcx), %rcx
	movq	%rax, %xmm0
	pshufd	$68, %xmm0, %xmm0
	pxor	LCPI33_1(%rip), %xmm0
	movq	%rcx, %xmm1
	pshufd	$68, %xmm1, %xmm1
	pxor	LCPI33_2(%rip), %xmm1
	movq	%rax, -160(%rbp)
	movq	%rcx, -152(%rbp)
	movq	$0, -144(%rbp)
	movdqu	%xmm0, -136(%rbp)
	movdqu	%xmm1, -120(%rbp)
	leaq	-104(%rbp), %rax
	movq	$0, 8(%rax)
	movq	$0, (%rax)
	leaq	-160(%rbp), %rsi
	callq	__ZN58_$LT$std..thread..ThreadId$u20$as$u20$core..hash..Hash$GT$4hash17h442e5f26360bcaeaE
	movq	-144(%rbp), %rdi
	movq	-120(%rbp), %rax
	shlq	$56, %rdi
	orq	-104(%rbp), %rdi
	movq	-112(%rbp), %rcx
	movq	-136(%rbp), %rsi
	addq	%rax, %rsi
	rolq	$13, %rax
	xorq	%rdi, %rcx
	xorq	%rsi, %rax
	rolq	$32, %rsi
	movq	-128(%rbp), %rdx
	addq	%rcx, %rdx
	rolq	$16, %rcx
	xorq	%rdx, %rcx
	addq	%rcx, %rsi
	rolq	$21, %rcx
	addq	%rax, %rdx
	rolq	$17, %rax
	xorq	%rsi, %rcx
	xorq	%rdx, %rax
	rolq	$32, %rdx
	xorq	%rdi, %rsi
	addq	%rax, %rsi
	rolq	$13, %rax
	xorq	%rsi, %rax
	rolq	$32, %rsi
	xorq	$255, %rdx
	addq	%rcx, %rdx
	rolq	$16, %rcx
	xorq	%rdx, %rcx
	addq	%rcx, %rsi
	rolq	$21, %rcx
	addq	%rax, %rdx
	rolq	$17, %rax
	xorq	%rdx, %rax
	rolq	$32, %rdx
	xorq	%rsi, %rcx
	addq	%rax, %rsi
	rolq	$13, %rax
	xorq	%rsi, %rax
	rolq	$32, %rsi
	addq	%rcx, %rdx
	rolq	$16, %rcx
	xorq	%rdx, %rcx
	addq	%rcx, %rsi
	rolq	$21, %rcx
	addq	%rax, %rdx
	rolq	$17, %rax
	xorq	%rdx, %rax
	rolq	$32, %rdx
	xorq	%rsi, %rcx
	addq	%rax, %rsi
	rolq	$13, %rax
	xorq	%rsi, %rax
	addq	%rcx, %rdx
	rolq	$16, %rcx
	xorq	%rdx, %rcx
	rolq	$21, %rcx
	addq	%rax, %rdx
	rolq	$17, %rax
	movq	%rdx, %rsi
	rolq	$32, %rsi
	xorq	%rdx, %rax
	xorq	%rsi, %rax
	xorq	%rcx, %rax
	movq	%rax, %rdi
	xorl	%edx, %edx
	.p2align	4, 0x90
LBB33_21:
	movq	%rdi, %rcx
	andq	%r12, %rcx
	movdqu	(%rbx,%rcx), %xmm0
	pmovmskb	%xmm0, %esi
	leaq	16(%rdx,%rcx), %rdi
	addq	$16, %rdx
	testw	%si, %si
	je	LBB33_21
	leal	-1(%r15), %edx
	andl	%r15d, %edx
	bsfw	%si, %si
	movzwl	%si, %esi
	addq	%rsi, %rcx
	andq	%r12, %rcx
	cmpb	$0, (%rbx,%rcx)
	jns	LBB33_23
LBB33_24:
	shrq	$57, %rax
	leaq	-16(%rcx), %rsi
	andq	%r12, %rsi
	movb	%al, (%rbx,%rcx)
	movb	%al, 16(%rsi,%rbx)
	shlq	$4, %rcx
	movq	-64(%rbp), %rsi
	movq	(%rsi), %rax
	movq	8(%rsi), %rsi
	movq	-80(%rbp), %rdi
	movq	%rsi, 8(%rdi,%rcx)
	movq	%rdi, %rsi
	movq	%rax, (%rdi,%rcx)
	movl	%edx, %r15d
	movq	-72(%rbp), %rax
	testw	%r15w, %r15w
	jne	LBB33_20
	jmp	LBB33_17
LBB33_23:
	movdqa	(%rbx), %xmm0
	pmovmskb	%xmm0, %ecx
	bsfw	%cx, %cx
	movzwl	%cx, %ecx
	jmp	LBB33_24
LBB33_25:
	movq	%rsi, %xmm1
	movq	-88(%rbp), %rax
	movq	-168(%rbp), %rcx
	subq	%rcx, %rax
	movq	%rax, %xmm0
	punpcklqdq	%xmm0, %xmm1
	movq	-48(%rbp), %rax
	movdqu	(%rax), %xmm0
	movaps	-208(%rbp), %xmm2
	movups	%xmm2, (%rax)
	movdqu	%xmm1, 16(%rax)
	movq	%rcx, 32(%rax)
	movq	-56(%rbp), %rax
	movq	$0, (%rax)
	movq	%xmm0, %rcx
	testq	%rcx, %rcx
	je	LBB33_12
	leaq	1(%rcx), %rax
	movl	$16, %edx
	xorl	%esi, %esi
	mulq	%rdx
	setno	%dl
	jo	LBB33_27
	movb	%dl, %sil
	shlq	$3, %rsi
	leaq	16(%rcx,%rsi), %rdx
	addq	$17, %rcx
	negq	%rsi
	andq	%rdx, %rsi
	subq	%rcx, %rsi
	addq	%rcx, %rsi
	jae	LBB33_29
LBB33_27:
	xorl	%edx, %edx
	jmp	LBB33_30
LBB33_29:
	leaq	(%rsi,%rax), %rcx
	xorl	%edi, %edi
	cmpq	$-15, %rcx
	setb	%dil
	shlq	$4, %rdi
	xorl	%edx, %edx
	addq	%rax, %rsi
	cmovaeq	%rdi, %rdx
LBB33_30:
	pshufd	$78, %xmm0, %xmm0
	movq	%xmm0, %rdi
	addq	$168, %rsp
	popq	%rbx
	popq	%r12
	popq	%r13
	popq	%r14
	popq	%r15
	popq	%rbp
	jmp	___rust_dealloc
LBB33_9:
	movl	$16, %edx
	movl	$1, %edi
	movq	%r15, %rsi
	callq	__ZN9hashbrown3raw11Fallibility9alloc_err17h640c17cab3a4c34eE
	jmp	LBB33_11
LBB33_31:
Ltmp31:
	movq	%rax, %rbx
	leaq	-184(%rbp), %rdi
	callq	__ZN4core3ptr13drop_in_place17h06deb09d2b18ba92E
	movq	%rbx, %rdi
	callq	__Unwind_Resume
	ud2
Lfunc_end6:
	.cfi_endproc
	.section	__TEXT,__gcc_except_tab
	.p2align	2
GCC_except_table33:
Lexception6:
	.byte	255
	.byte	255
	.byte	1
	.uleb128 Lcst_end6-Lcst_begin6
Lcst_begin6:
	.uleb128 Lfunc_begin6-Lfunc_begin6
	.uleb128 Ltmp29-Lfunc_begin6
	.byte	0
	.byte	0
	.uleb128 Ltmp29-Lfunc_begin6
	.uleb128 Ltmp30-Ltmp29
	.uleb128 Ltmp31-Lfunc_begin6
	.byte	0
	.uleb128 Ltmp30-Lfunc_begin6
	.uleb128 Lfunc_end6-Ltmp30
	.byte	0
	.byte	0
Lcst_end6:
	.p2align	2

	.section	__TEXT,__text,regular,pure_instructions
	.globl	__ZN70_$LT$crossbeam_utils..backoff..Backoff$u20$as$u20$core..fmt..Debug$GT$3fmt17hc02d11cb64f3dc9dE
	.p2align	4, 0x90
__ZN70_$LT$crossbeam_utils..backoff..Backoff$u20$as$u20$core..fmt..Debug$GT$3fmt17hc02d11cb64f3dc9dE:
	.cfi_startproc
	pushq	%rbp
	.cfi_def_cfa_offset 16
	.cfi_offset %rbp, -16
	movq	%rsp, %rbp
	.cfi_def_cfa_register %rbp
	pushq	%r14
	pushq	%rbx
	subq	$32, %rsp
	.cfi_offset %rbx, -32
	.cfi_offset %r14, -24
	movq	%rdi, %rbx
	leaq	l___unnamed_20(%rip), %rdx
	leaq	-40(%rbp), %r14
	movl	$7, %ecx
	movq	%r14, %rdi
	callq	__ZN4core3fmt9Formatter12debug_struct17ha1a64e91d2a98458E
	leaq	L___unnamed_21(%rip), %rsi
	leaq	l___unnamed_22(%rip), %r8
	movl	$4, %edx
	movq	%r14, %rdi
	movq	%rbx, %rcx
	callq	__ZN4core3fmt8builders11DebugStruct5field17h6c54d35ac41bb1e6E
	cmpl	$10, (%rbx)
	seta	-17(%rbp)
	leaq	l___unnamed_23(%rip), %rsi
	leaq	l___unnamed_24(%rip), %r8
	leaq	-17(%rbp), %rcx
	movl	$12, %edx
	movq	%rax, %rdi
	callq	__ZN4core3fmt8builders11DebugStruct5field17h6c54d35ac41bb1e6E
	movq	%rax, %rdi
	callq	__ZN4core3fmt8builders11DebugStruct6finish17h67ed49fd5e81bb24E
	addq	$32, %rsp
	popq	%rbx
	popq	%r14
	popq	%rbp
	retq
	.cfi_endproc

	.globl	__ZN76_$LT$crossbeam_utils..backoff..Backoff$u20$as$u20$core..default..Default$GT$7default17h45c21f0637b72f3eE
	.p2align	4, 0x90
__ZN76_$LT$crossbeam_utils..backoff..Backoff$u20$as$u20$core..default..Default$GT$7default17h45c21f0637b72f3eE:
	.cfi_startproc
	pushq	%rbp
	.cfi_def_cfa_offset 16
	.cfi_offset %rbp, -16
	movq	%rsp, %rbp
	.cfi_def_cfa_register %rbp
	xorl	%eax, %eax
	popq	%rbp
	retq
	.cfi_endproc

	.section	__TEXT,__literal16,16byte_literals
	.p2align	4
LCPI36_0:
	.quad	1
	.quad	1
	.section	__TEXT,__text,regular,pure_instructions
	.globl	__ZN15crossbeam_utils4sync6parker6Parker3new17h7072a55357e8eaedE
	.p2align	4, 0x90
__ZN15crossbeam_utils4sync6parker6Parker3new17h7072a55357e8eaedE:
Lfunc_begin7:
	.cfi_startproc
	.cfi_personality 155, _rust_eh_personality
	.cfi_lsda 16, Lexception7
	pushq	%rbp
	.cfi_def_cfa_offset 16
	.cfi_offset %rbp, -16
	movq	%rsp, %rbp
	.cfi_def_cfa_register %rbp
	pushq	%r14
	pushq	%rbx
	subq	$64, %rsp
	.cfi_offset %rbx, -32
	.cfi_offset %r14, -24
	movl	$64, %edi
	movl	$8, %esi
	callq	___rust_alloc
	testq	%rax, %rax
	je	LBB36_11
	movq	%rax, %rbx
Ltmp32:
	movq	%rax, %rdi
	callq	__ZN3std10sys_common5mutex5Mutex3new17hfec750c2ce1161a9E
Ltmp33:
	movq	%rbx, -32(%rbp)
Ltmp35:
	callq	__ZN3std10sys_common6poison4Flag3new17hd7ec4e2336668a12E
Ltmp36:
	movq	%rbx, -48(%rbp)
	movb	%al, -40(%rbp)
	leaq	-32(%rbp), %r14
	movq	%r14, %rdi
	callq	_pthread_mutexattr_init
	movq	%r14, %rdi
	xorl	%esi, %esi
	callq	_pthread_mutexattr_settype
	movq	%rbx, %rdi
	movq	%r14, %rsi
	callq	_pthread_mutex_init
	movq	%r14, %rdi
	callq	_pthread_mutexattr_destroy
Ltmp38:
	leaq	-32(%rbp), %rdi
	callq	__ZN3std4sync7condvar7Condvar3new17h64fee8df7a382290E
Ltmp39:
	movq	-48(%rbp), %rax
	movq	-40(%rbp), %rcx
	movq	%rcx, -72(%rbp)
	movq	%rax, -80(%rbp)
	movq	-32(%rbp), %rax
	movq	-24(%rbp), %rcx
	movq	%rax, -64(%rbp)
	movq	%rcx, -56(%rbp)
	movl	$56, %edi
	movl	$8, %esi
	callq	___rust_alloc
	testq	%rax, %rax
	je	LBB36_5
	movaps	LCPI36_0(%rip), %xmm0
	movups	%xmm0, (%rax)
	movq	$0, 16(%rax)
	movq	-80(%rbp), %rcx
	movq	-72(%rbp), %rdx
	movq	%rcx, 24(%rax)
	movq	%rdx, 32(%rax)
	movq	-64(%rbp), %rcx
	movq	-56(%rbp), %rdx
	movq	%rcx, 40(%rax)
	movq	%rdx, 48(%rax)
	addq	$64, %rsp
	popq	%rbx
	popq	%r14
	popq	%rbp
	retq
LBB36_11:
	movl	$64, %edi
	movl	$8, %esi
	callq	__ZN5alloc5alloc18handle_alloc_error17h28974197717b8939E
LBB36_5:
	movl	$56, %edi
	movl	$8, %esi
	callq	__ZN5alloc5alloc18handle_alloc_error17h28974197717b8939E
LBB36_9:
Ltmp40:
	movq	%rax, %r14
	leaq	-48(%rbp), %rdi
	callq	__ZN4core3ptr13drop_in_place17h79b203249e66da2eE
	jmp	LBB36_10
LBB36_7:
Ltmp37:
	movq	%rax, %r14
	leaq	-32(%rbp), %rdi
	callq	__ZN4core3ptr13drop_in_place17h3c814f0160b92ba9E
	jmp	LBB36_10
LBB36_6:
Ltmp34:
	movq	%rax, %r14
	movq	%rbx, %rdi
	callq	__ZN5alloc5alloc8box_free17h0f024b19a314ca84E
LBB36_10:
	movq	%r14, %rdi
	callq	__Unwind_Resume
	ud2
Lfunc_end7:
	.cfi_endproc
	.section	__TEXT,__gcc_except_tab
	.p2align	2
GCC_except_table36:
Lexception7:
	.byte	255
	.byte	255
	.byte	1
	.uleb128 Lcst_end7-Lcst_begin7
Lcst_begin7:
	.uleb128 Ltmp32-Lfunc_begin7
	.uleb128 Ltmp33-Ltmp32
	.uleb128 Ltmp34-Lfunc_begin7
	.byte	0
	.uleb128 Ltmp35-Lfunc_begin7
	.uleb128 Ltmp36-Ltmp35
	.uleb128 Ltmp37-Lfunc_begin7
	.byte	0
	.uleb128 Ltmp38-Lfunc_begin7
	.uleb128 Ltmp39-Ltmp38
	.uleb128 Ltmp40-Lfunc_begin7
	.byte	0
	.uleb128 Ltmp39-Lfunc_begin7
	.uleb128 Lfunc_end7-Ltmp39
	.byte	0
	.byte	0
Lcst_end7:
	.p2align	2

	.section	__TEXT,__text,regular,pure_instructions
	.globl	__ZN15crossbeam_utils4sync6parker6Parker4park17heaa3b22363e112fbE
	.p2align	4, 0x90
__ZN15crossbeam_utils4sync6parker6Parker4park17heaa3b22363e112fbE:
	.cfi_startproc
	pushq	%rbp
	.cfi_def_cfa_offset 16
	.cfi_offset %rbp, -16
	movq	%rsp, %rbp
	.cfi_def_cfa_register %rbp
	subq	$32, %rsp
	movq	(%rdi), %rdi
	addq	$16, %rdi
	movq	$0, -24(%rbp)
	leaq	-24(%rbp), %rsi
	callq	__ZN15crossbeam_utils4sync6parker5Inner4park17h83781fdf44a41964E
	addq	$32, %rsp
	popq	%rbp
	retq
	.cfi_endproc

	.globl	__ZN15crossbeam_utils4sync6parker6Parker12park_timeout17h4c2682b9c0bff886E
	.p2align	4, 0x90
__ZN15crossbeam_utils4sync6parker6Parker12park_timeout17h4c2682b9c0bff886E:
	.cfi_startproc
	pushq	%rbp
	.cfi_def_cfa_offset 16
	.cfi_offset %rbp, -16
	movq	%rsp, %rbp
	.cfi_def_cfa_register %rbp
	subq	$32, %rsp
	movq	(%rdi), %rdi
	addq	$16, %rdi
	movq	%rsi, -16(%rbp)
	movl	%edx, -8(%rbp)
	movq	$1, -24(%rbp)
	leaq	-24(%rbp), %rsi
	callq	__ZN15crossbeam_utils4sync6parker5Inner4park17h83781fdf44a41964E
	addq	$32, %rsp
	popq	%rbp
	retq
	.cfi_endproc

	.globl	__ZN15crossbeam_utils4sync6parker6Parker8unparker17h76995d43ac803c56E
	.p2align	4, 0x90
__ZN15crossbeam_utils4sync6parker6Parker8unparker17h76995d43ac803c56E:
	.cfi_startproc
	pushq	%rbp
	.cfi_def_cfa_offset 16
	.cfi_offset %rbp, -16
	movq	%rsp, %rbp
	.cfi_def_cfa_register %rbp
	movq	%rdi, %rax
	popq	%rbp
	retq
	.cfi_endproc

	.globl	__ZN74_$LT$crossbeam_utils..sync..parker..Parker$u20$as$u20$core..fmt..Debug$GT$3fmt17h2bfce034eaf2526aE
	.p2align	4, 0x90
__ZN74_$LT$crossbeam_utils..sync..parker..Parker$u20$as$u20$core..fmt..Debug$GT$3fmt17h2bfce034eaf2526aE:
	.cfi_startproc
	pushq	%rbp
	.cfi_def_cfa_offset 16
	.cfi_offset %rbp, -16
	movq	%rsp, %rbp
	.cfi_def_cfa_register %rbp
	movq	%rsi, %rdi
	leaq	l___unnamed_25(%rip), %rsi
	movl	$13, %edx
	popq	%rbp
	jmp	__ZN4core3fmt9Formatter3pad17h426409b23b74b394E
	.cfi_endproc

	.globl	__ZN15crossbeam_utils4sync6parker8Unparker6unpark17hbdd67189c04bcd63E
	.p2align	4, 0x90
__ZN15crossbeam_utils4sync6parker8Unparker6unpark17hbdd67189c04bcd63E:
Lfunc_begin8:
	.cfi_startproc
	.cfi_personality 155, _rust_eh_personality
	.cfi_lsda 16, Lexception8
	pushq	%rbp
	.cfi_def_cfa_offset 16
	.cfi_offset %rbp, -16
	movq	%rsp, %rbp
	.cfi_def_cfa_register %rbp
	pushq	%r14
	pushq	%rbx
	subq	$16, %rsp
	.cfi_offset %rbx, -32
	.cfi_offset %r14, -24
	movq	(%rdi), %rbx
	movl	$2, %eax
	xchgq	%rax, 16(%rbx)
	testq	%rax, %rax
	je	LBB41_16
	cmpq	$1, %rax
	je	LBB41_4
	cmpq	$2, %rax
	jne	LBB41_3
LBB41_16:
	addq	$16, %rsp
	popq	%rbx
	popq	%r14
	popq	%rbp
	retq
LBB41_4:
	movq	24(%rbx), %rdi
	callq	_pthread_mutex_lock
	movq	__ZN3std9panicking11panic_count18GLOBAL_PANIC_COUNT17h5754c1d48a496461E@GOTPCREL(%rip), %r14
	movq	(%r14), %rax
	testq	%rax, %rax
	jne	LBB41_6
	xorl	%eax, %eax
	movb	32(%rbx), %cl
	testb	%cl, %cl
	jne	LBB41_8
LBB41_11:
	testb	%al, %al
	jne	LBB41_15
	movq	(%r14), %rax
	testq	%rax, %rax
	jne	LBB41_13
LBB41_15:
	movq	24(%rbx), %rdi
	callq	_pthread_mutex_unlock
	addq	$40, %rbx
	movq	%rbx, %rdi
	addq	$16, %rsp
	popq	%rbx
	popq	%r14
	popq	%rbp
	jmp	__ZN3std4sync7condvar7Condvar10notify_one17h34ab6c85c81fba1aE
LBB41_6:
	callq	__ZN3std9panicking11panic_count17is_zero_slow_path17ha588394117c50e3dE
	xorb	$1, %al
	movb	32(%rbx), %cl
	testb	%cl, %cl
	je	LBB41_11
LBB41_8:
	addq	$24, %rbx
	movq	%rbx, -32(%rbp)
	movb	%al, -24(%rbp)
Ltmp41:
	leaq	l___unnamed_7(%rip), %rdi
	leaq	l___unnamed_26(%rip), %rcx
	leaq	l___unnamed_27(%rip), %r8
	leaq	-32(%rbp), %rdx
	movl	$43, %esi
	callq	__ZN4core6result13unwrap_failed17hc193898ef513e81fE
Ltmp42:
	ud2
LBB41_13:
	callq	__ZN3std9panicking11panic_count17is_zero_slow_path17ha588394117c50e3dE
	testb	%al, %al
	jne	LBB41_15
	movb	$1, 32(%rbx)
	jmp	LBB41_15
LBB41_3:
	callq	__ZN3std9panicking11begin_panic17h82e81df4feaf301dE
LBB41_10:
Ltmp43:
	movq	%rax, %rbx
	leaq	-32(%rbp), %rdi
	callq	__ZN4core3ptr13drop_in_place17h3b24802de2318f9fE
	movq	%rbx, %rdi
	callq	__Unwind_Resume
	ud2
Lfunc_end8:
	.cfi_endproc
	.section	__TEXT,__gcc_except_tab
	.p2align	2
GCC_except_table41:
Lexception8:
	.byte	255
	.byte	255
	.byte	1
	.uleb128 Lcst_end8-Lcst_begin8
Lcst_begin8:
	.uleb128 Lfunc_begin8-Lfunc_begin8
	.uleb128 Ltmp41-Lfunc_begin8
	.byte	0
	.byte	0
	.uleb128 Ltmp41-Lfunc_begin8
	.uleb128 Ltmp42-Ltmp41
	.uleb128 Ltmp43-Lfunc_begin8
	.byte	0
	.uleb128 Ltmp42-Lfunc_begin8
	.uleb128 Lfunc_end8-Ltmp42
	.byte	0
	.byte	0
Lcst_end8:
	.p2align	2

	.section	__TEXT,__text,regular,pure_instructions
	.globl	__ZN76_$LT$crossbeam_utils..sync..parker..Unparker$u20$as$u20$core..fmt..Debug$GT$3fmt17h961bb375778fd2efE
	.p2align	4, 0x90
__ZN76_$LT$crossbeam_utils..sync..parker..Unparker$u20$as$u20$core..fmt..Debug$GT$3fmt17h961bb375778fd2efE:
	.cfi_startproc
	pushq	%rbp
	.cfi_def_cfa_offset 16
	.cfi_offset %rbp, -16
	movq	%rsp, %rbp
	.cfi_def_cfa_register %rbp
	movq	%rsi, %rdi
	leaq	l___unnamed_28(%rip), %rsi
	movl	$15, %edx
	popq	%rbp
	jmp	__ZN4core3fmt9Formatter3pad17h426409b23b74b394E
	.cfi_endproc

	.globl	__ZN78_$LT$crossbeam_utils..sync..parker..Unparker$u20$as$u20$core..clone..Clone$GT$5clone17h134d8db1abede684E
	.p2align	4, 0x90
__ZN78_$LT$crossbeam_utils..sync..parker..Unparker$u20$as$u20$core..clone..Clone$GT$5clone17h134d8db1abede684E:
	.cfi_startproc
	pushq	%rbp
	.cfi_def_cfa_offset 16
	.cfi_offset %rbp, -16
	movq	%rsp, %rbp
	.cfi_def_cfa_register %rbp
	movq	(%rdi), %rax
	lock		incq	(%rax)
	jle	LBB43_1
	popq	%rbp
	retq
LBB43_1:
	ud2
	.cfi_endproc

	.p2align	4, 0x90
__ZN15crossbeam_utils4sync6parker5Inner4park17h83781fdf44a41964E:
Lfunc_begin9:
	.cfi_startproc
	.cfi_personality 155, _rust_eh_personality
	.cfi_lsda 16, Lexception9
	pushq	%rbp
	.cfi_def_cfa_offset 16
	.cfi_offset %rbp, -16
	movq	%rsp, %rbp
	.cfi_def_cfa_register %rbp
	pushq	%r15
	pushq	%r14
	pushq	%r13
	pushq	%r12
	pushq	%rbx
	subq	$216, %rsp
	.cfi_offset %rbx, -56
	.cfi_offset %r12, -48
	.cfi_offset %r13, -40
	.cfi_offset %r14, -32
	.cfi_offset %r15, -24
	xorl	%ecx, %ecx
	movl	$2, %eax
	lock		cmpxchgq	%rcx, (%rdi)
	je	LBB44_28
	movq	%rsi, %r14
	movq	%rdi, %rbx
	cmpl	$1, (%rsi)
	jne	LBB44_4
	cmpq	$0, 8(%r14)
	jne	LBB44_4
	cmpl	$0, 16(%r14)
	je	LBB44_28
LBB44_4:
	movq	8(%rbx), %rdi
	callq	_pthread_mutex_lock
	movq	__ZN3std9panicking11panic_count18GLOBAL_PANIC_COUNT17h5754c1d48a496461E@GOTPCREL(%rip), %rax
	movq	(%rax), %rax
	testq	%rax, %rax
	jne	LBB44_6
	xorl	%eax, %eax
	leaq	8(%rbx), %rcx
	movb	16(%rbx), %dl
	testb	%dl, %dl
	jne	LBB44_8
LBB44_11:
	movq	%rcx, -104(%rbp)
	movb	%al, -96(%rbp)
	movl	$1, %ecx
	xorl	%eax, %eax
	lock		cmpxchgq	%rcx, (%rbx)
	jne	LBB44_12
	cmpl	$1, (%r14)
	jne	LBB44_16
	movq	8(%r14), %rax
	movq	%rax, -224(%rbp)
	movl	16(%r14), %eax
	movl	%eax, -116(%rbp)
	leaq	24(%rbx), %r13
	movq	-104(%rbp), %r12
	movb	-96(%rbp), %r14b
	movq	%r12, -88(%rbp)
	movb	%r14b, -80(%rbp)
	movq	(%r12), %r15
Ltmp64:
	movq	%r13, %rdi
	movq	%r15, %rsi
	callq	__ZN3std4sync7condvar7Condvar6verify17h11b2eb6bc24cc9feE
Ltmp65:
	movq	(%r13), %r13
Ltmp66:
	movq	%r15, %rdi
	callq	__ZN3std10sys_common5mutex3raw17hd9071ed6f4cf0cb0E
Ltmp67:
Ltmp68:
	movq	%r13, %rdi
	movq	%rax, %rsi
	movq	-224(%rbp), %rdx
	movl	-116(%rbp), %ecx
	callq	__ZN3std3sys4unix7condvar7Condvar12wait_timeout17h27c8f823bd4be76eE
Ltmp69:
	movb	8(%r12), %cl
	testb	%cl, %cl
	jne	LBB44_34
	movq	%r12, -168(%rbp)
	movb	%r14b, -160(%rbp)
	xorl	%eax, %eax
	xchgq	%rax, (%rbx)
	leaq	-1(%rax), %rcx
	cmpq	$2, %rcx
	jae	LBB44_39
	movq	-168(%rbp), %rbx
	cmpb	$0, -160(%rbp)
	jne	LBB44_27
	movq	__ZN3std9panicking11panic_count18GLOBAL_PANIC_COUNT17h5754c1d48a496461E@GOTPCREL(%rip), %rax
	movq	(%rax), %rax
	testq	%rax, %rax
	je	LBB44_27
Ltmp81:
	callq	__ZN3std9panicking11panic_count17is_zero_slow_path17ha588394117c50e3dE
Ltmp82:
	jmp	LBB44_25
LBB44_12:
	cmpq	$2, %rax
	jne	LBB44_45
	xorl	%eax, %eax
	xchgq	%rax, (%rbx)
	movq	%rax, -240(%rbp)
	cmpq	$2, %rax
	je	LBB44_22
	leaq	-240(%rbp), %rax
	movq	%rax, -248(%rbp)
	leaq	L___unnamed_29(%rip), %rax
	movq	%rax, -112(%rbp)
	leaq	l___unnamed_30(%rip), %rax
	movq	%rax, -88(%rbp)
	movq	$1, -80(%rbp)
	movq	$0, -72(%rbp)
	leaq	l___unnamed_31(%rip), %rax
	movq	%rax, -56(%rbp)
	movq	$0, -48(%rbp)
	leaq	-248(%rbp), %rax
	movq	%rax, -216(%rbp)
	leaq	__ZN42_$LT$$RF$T$u20$as$u20$core..fmt..Debug$GT$3fmt17hb4bf1cdc47421707E(%rip), %rax
	movq	%rax, -208(%rbp)
	leaq	-112(%rbp), %rcx
	movq	%rcx, -200(%rbp)
	movq	%rax, -192(%rbp)
	leaq	-88(%rbp), %rax
	movq	%rax, -184(%rbp)
	movq	__ZN59_$LT$core..fmt..Arguments$u20$as$u20$core..fmt..Display$GT$3fmt17hca54f9d63261f398E@GOTPCREL(%rip), %rax
	movq	%rax, -176(%rbp)
	leaq	l___unnamed_32(%rip), %rax
	movq	%rax, -168(%rbp)
	movq	$3, -160(%rbp)
	movq	$0, -152(%rbp)
	leaq	-216(%rbp), %rax
	movq	%rax, -136(%rbp)
	movq	$3, -128(%rbp)
Ltmp49:
	leaq	l___unnamed_33(%rip), %rsi
	leaq	-168(%rbp), %rdi
	callq	__ZN3std9panicking15begin_panic_fmt17h8712912d987f10a1E
Ltmp50:
	jmp	LBB44_9
LBB44_16:
	leaq	24(%rbx), %r14
	movq	%rbx, -232(%rbp)
	.p2align	4, 0x90
LBB44_17:
	movq	-104(%rbp), %r15
	movzbl	-96(%rbp), %r13d
	movq	%r15, -88(%rbp)
	movb	%r13b, -80(%rbp)
	movq	(%r15), %rbx
Ltmp52:
	movq	%r14, %rdi
	movq	%rbx, %rsi
	callq	__ZN3std4sync7condvar7Condvar6verify17h11b2eb6bc24cc9feE
Ltmp53:
	movq	(%r14), %r12
Ltmp54:
	movq	%rbx, %rdi
	callq	__ZN3std10sys_common5mutex3raw17hd9071ed6f4cf0cb0E
Ltmp55:
	movq	%r12, %rdi
	movq	%rax, %rsi
	callq	_pthread_cond_wait
	movzbl	8(%r15), %eax
	testb	%al, %al
	jne	LBB44_20
	movq	%r15, -104(%rbp)
	movb	%r13b, -96(%rbp)
	movl	$2, %eax
	movq	-232(%rbp), %rbx
	xorl	%ecx, %ecx
	lock		cmpxchgq	%rcx, (%rbx)
	jne	LBB44_17
LBB44_22:
	movq	-104(%rbp), %rbx
	cmpb	$0, -96(%rbp)
	jne	LBB44_27
	movq	__ZN3std9panicking11panic_count18GLOBAL_PANIC_COUNT17h5754c1d48a496461E@GOTPCREL(%rip), %rax
	movq	(%rax), %rax
	testq	%rax, %rax
	jne	LBB44_24
LBB44_27:
	movq	(%rbx), %rdi
	callq	_pthread_mutex_unlock
LBB44_28:
	addq	$216, %rsp
	popq	%rbx
	popq	%r12
	popq	%r13
	popq	%r14
	popq	%r15
	popq	%rbp
	retq
LBB44_6:
	callq	__ZN3std9panicking11panic_count17is_zero_slow_path17ha588394117c50e3dE
	xorb	$1, %al
	leaq	8(%rbx), %rcx
	movb	16(%rbx), %dl
	testb	%dl, %dl
	je	LBB44_11
LBB44_8:
	movq	%rcx, -88(%rbp)
	movb	%al, -80(%rbp)
Ltmp44:
	leaq	l___unnamed_7(%rip), %rdi
	leaq	l___unnamed_26(%rip), %rcx
	leaq	l___unnamed_34(%rip), %r8
	leaq	-88(%rbp), %rdx
	movl	$43, %esi
	callq	__ZN4core6result13unwrap_failed17hc193898ef513e81fE
Ltmp45:
	jmp	LBB44_9
LBB44_24:
	callq	__ZN3std9panicking11panic_count17is_zero_slow_path17ha588394117c50e3dE
LBB44_25:
	testb	%al, %al
	jne	LBB44_27
	movb	$1, 8(%rbx)
	jmp	LBB44_27
LBB44_20:
	movq	%r15, -88(%rbp)
	movb	%r13b, -80(%rbp)
Ltmp59:
	leaq	l___unnamed_7(%rip), %rdi
	leaq	l___unnamed_26(%rip), %rcx
	leaq	l___unnamed_35(%rip), %r8
	leaq	-88(%rbp), %rdx
	movl	$43, %esi
	callq	__ZN4core6result13unwrap_failed17hc193898ef513e81fE
Ltmp60:
LBB44_9:
	ud2
LBB44_45:
	movq	%rax, -168(%rbp)
	leaq	-168(%rbp), %rax
	movq	%rax, -216(%rbp)
	movq	__ZN4core3fmt3num3imp54_$LT$impl$u20$core..fmt..Display$u20$for$u20$usize$GT$3fmt17h12ea2856299c9b06E@GOTPCREL(%rip), %rax
	movq	%rax, -208(%rbp)
	leaq	l___unnamed_36(%rip), %rax
	movq	%rax, -88(%rbp)
	movq	$1, -80(%rbp)
	movq	$0, -72(%rbp)
	leaq	-216(%rbp), %rax
	movq	%rax, -56(%rbp)
	movq	$1, -48(%rbp)
Ltmp47:
	leaq	l___unnamed_37(%rip), %rsi
	leaq	-88(%rbp), %rdi
	callq	__ZN3std9panicking15begin_panic_fmt17h8712912d987f10a1E
Ltmp48:
	jmp	LBB44_9
LBB44_34:
	xorb	$1, %al
	movq	%r12, -88(%rbp)
	movb	%r14b, -80(%rbp)
	movl	-216(%rbp), %ecx
	movl	-213(%rbp), %edx
	movl	%ecx, -79(%rbp)
	movl	%edx, -76(%rbp)
	movb	%al, -72(%rbp)
	movl	-168(%rbp), %eax
	movl	-165(%rbp), %ecx
	movl	%eax, -71(%rbp)
	movl	%ecx, -68(%rbp)
Ltmp73:
	leaq	l___unnamed_7(%rip), %rdi
	leaq	l___unnamed_38(%rip), %rcx
	leaq	l___unnamed_39(%rip), %r8
	leaq	-88(%rbp), %rdx
	movl	$43, %esi
	callq	__ZN4core6result13unwrap_failed17hc193898ef513e81fE
Ltmp74:
	jmp	LBB44_9
LBB44_39:
	movq	%rax, -112(%rbp)
	leaq	-112(%rbp), %rax
	movq	%rax, -216(%rbp)
	movq	__ZN4core3fmt3num3imp54_$LT$impl$u20$core..fmt..Display$u20$for$u20$usize$GT$3fmt17h12ea2856299c9b06E@GOTPCREL(%rip), %rax
	movq	%rax, -208(%rbp)
	leaq	l___unnamed_36(%rip), %rax
	movq	%rax, -88(%rbp)
	movq	$1, -80(%rbp)
	movq	$0, -72(%rbp)
	leaq	-216(%rbp), %rax
	movq	%rax, -56(%rbp)
	movq	$1, -48(%rbp)
Ltmp78:
	leaq	l___unnamed_40(%rip), %rsi
	leaq	-88(%rbp), %rdi
	callq	__ZN3std9panicking15begin_panic_fmt17h8712912d987f10a1E
Ltmp79:
	jmp	LBB44_9
LBB44_46:
Ltmp80:
	movq	%rax, %rbx
	leaq	-168(%rbp), %rdi
	jmp	LBB44_47
LBB44_37:
Ltmp75:
	movq	%rax, %rbx
Ltmp76:
	leaq	-88(%rbp), %rdi
	callq	__ZN4core3ptr13drop_in_place17h3b24802de2318f9fE
Ltmp77:
	jmp	LBB44_48
LBB44_43:
Ltmp51:
	movq	%rax, %rbx
	leaq	-104(%rbp), %rdi
LBB44_47:
	callq	__ZN4core3ptr13drop_in_place17h71188d518bbee787E
	movq	%rbx, %rdi
	callq	__Unwind_Resume
	ud2
LBB44_10:
Ltmp46:
	movq	%rax, %rbx
	leaq	-88(%rbp), %rdi
	callq	__ZN4core3ptr13drop_in_place17h3b24802de2318f9fE
	movq	%rbx, %rdi
	callq	__Unwind_Resume
	ud2
LBB44_36:
Ltmp61:
	movq	%rax, %rbx
Ltmp62:
	leaq	-88(%rbp), %rdi
	callq	__ZN4core3ptr13drop_in_place17h3b24802de2318f9fE
Ltmp63:
	jmp	LBB44_48
LBB44_29:
Ltmp70:
	movq	%rax, %rbx
Ltmp71:
	leaq	-88(%rbp), %rdi
	callq	__ZN4core3ptr13drop_in_place17h71188d518bbee787E
Ltmp72:
	jmp	LBB44_48
LBB44_35:
Ltmp56:
	movq	%rax, %rbx
Ltmp57:
	leaq	-88(%rbp), %rdi
	callq	__ZN4core3ptr13drop_in_place17h71188d518bbee787E
Ltmp58:
LBB44_48:
	movq	%rbx, %rdi
	callq	__Unwind_Resume
	ud2
LBB44_44:
Ltmp83:
	movq	%rax, %rbx
	movq	%rbx, %rdi
	callq	__Unwind_Resume
	ud2
Lfunc_end9:
	.cfi_endproc
	.section	__TEXT,__gcc_except_tab
	.p2align	2
GCC_except_table44:
Lexception9:
	.byte	255
	.byte	255
	.byte	1
	.uleb128 Lcst_end9-Lcst_begin9
Lcst_begin9:
	.uleb128 Ltmp64-Lfunc_begin9
	.uleb128 Ltmp69-Ltmp64
	.uleb128 Ltmp70-Lfunc_begin9
	.byte	0
	.uleb128 Ltmp81-Lfunc_begin9
	.uleb128 Ltmp82-Ltmp81
	.uleb128 Ltmp83-Lfunc_begin9
	.byte	0
	.uleb128 Ltmp49-Lfunc_begin9
	.uleb128 Ltmp50-Ltmp49
	.uleb128 Ltmp51-Lfunc_begin9
	.byte	0
	.uleb128 Ltmp52-Lfunc_begin9
	.uleb128 Ltmp55-Ltmp52
	.uleb128 Ltmp56-Lfunc_begin9
	.byte	0
	.uleb128 Ltmp55-Lfunc_begin9
	.uleb128 Ltmp44-Ltmp55
	.byte	0
	.byte	0
	.uleb128 Ltmp44-Lfunc_begin9
	.uleb128 Ltmp45-Ltmp44
	.uleb128 Ltmp46-Lfunc_begin9
	.byte	0
	.uleb128 Ltmp45-Lfunc_begin9
	.uleb128 Ltmp59-Ltmp45
	.byte	0
	.byte	0
	.uleb128 Ltmp59-Lfunc_begin9
	.uleb128 Ltmp60-Ltmp59
	.uleb128 Ltmp61-Lfunc_begin9
	.byte	0
	.uleb128 Ltmp47-Lfunc_begin9
	.uleb128 Ltmp48-Ltmp47
	.uleb128 Ltmp51-Lfunc_begin9
	.byte	0
	.uleb128 Ltmp73-Lfunc_begin9
	.uleb128 Ltmp74-Ltmp73
	.uleb128 Ltmp75-Lfunc_begin9
	.byte	0
	.uleb128 Ltmp78-Lfunc_begin9
	.uleb128 Ltmp79-Ltmp78
	.uleb128 Ltmp80-Lfunc_begin9
	.byte	0
	.uleb128 Ltmp76-Lfunc_begin9
	.uleb128 Ltmp77-Ltmp76
	.uleb128 Ltmp83-Lfunc_begin9
	.byte	0
	.uleb128 Ltmp77-Lfunc_begin9
	.uleb128 Ltmp62-Ltmp77
	.byte	0
	.byte	0
	.uleb128 Ltmp62-Lfunc_begin9
	.uleb128 Ltmp58-Ltmp62
	.uleb128 Ltmp83-Lfunc_begin9
	.byte	0
	.uleb128 Ltmp58-Lfunc_begin9
	.uleb128 Lfunc_end9-Ltmp58
	.byte	0
	.byte	0
Lcst_end9:
	.p2align	2

	.section	__TEXT,__text,regular,pure_instructions
	.globl	__ZN154_$LT$$LT$crossbeam_utils..sync..sharded_lock..ShardedLock$LT$T$GT$$u20$as$u20$core..fmt..Debug$GT$..fmt..LockedPlaceholder$u20$as$u20$core..fmt..Debug$GT$3fmt17h9dd11231dfa18098E
	.p2align	4, 0x90
__ZN154_$LT$$LT$crossbeam_utils..sync..sharded_lock..ShardedLock$LT$T$GT$$u20$as$u20$core..fmt..Debug$GT$..fmt..LockedPlaceholder$u20$as$u20$core..fmt..Debug$GT$3fmt17h9dd11231dfa18098E:
	.cfi_startproc
	pushq	%rbp
	.cfi_def_cfa_offset 16
	.cfi_offset %rbp, -16
	movq	%rsp, %rbp
	.cfi_def_cfa_register %rbp
	movq	%rsi, %rdi
	leaq	L___unnamed_41(%rip), %rsi
	movl	$8, %edx
	popq	%rbp
	jmp	__ZN4core3fmt9Formatter9write_str17h98e119ad25a8903eE
	.cfi_endproc

	.section	__TEXT,__literal16,16byte_literals
	.p2align	4
LCPI46_0:
	.quad	8317987319222330741
	.quad	7816392313619706465
LCPI46_1:
	.quad	7237128888997146477
	.quad	8387220255154660723
	.section	__TEXT,__text,regular,pure_instructions
	.globl	__ZN91_$LT$crossbeam_utils..sync..sharded_lock..Registration$u20$as$u20$core..ops..drop..Drop$GT$4drop17h423c16fdbf19a42aE
	.p2align	4, 0x90
__ZN91_$LT$crossbeam_utils..sync..sharded_lock..Registration$u20$as$u20$core..ops..drop..Drop$GT$4drop17h423c16fdbf19a42aE:
Lfunc_begin10:
	.cfi_startproc
	.cfi_personality 155, _rust_eh_personality
	.cfi_lsda 16, Lexception10
	pushq	%rbp
	.cfi_def_cfa_offset 16
	.cfi_offset %rbp, -16
	movq	%rsp, %rbp
	.cfi_def_cfa_register %rbp
	pushq	%r15
	pushq	%r14
	pushq	%r13
	pushq	%r12
	pushq	%rbx
	subq	$104, %rsp
	.cfi_offset %rbx, -56
	.cfi_offset %r12, -48
	.cfi_offset %r13, -40
	.cfi_offset %r14, -32
	.cfi_offset %r15, -24
	movq	%rdi, %r15
	leaq	__ZN95_$LT$crossbeam_utils..sync..sharded_lock..THREAD_INDICES$u20$as$u20$core..ops..deref..Deref$GT$5deref11__stability4LAZY17h015e97a6fb05ea77E(%rip), %rax
	movq	%rax, -64(%rbp)
	movq	__ZN95_$LT$crossbeam_utils..sync..sharded_lock..THREAD_INDICES$u20$as$u20$core..ops..deref..Deref$GT$5deref11__stability4LAZY17h015e97a6fb05ea77E+104(%rip), %rax
	cmpq	$3, %rax
	jne	LBB46_1
LBB46_2:
	movq	-64(%rbp), %r13
	movq	(%r13), %rdi
	callq	_pthread_mutex_lock
	movq	__ZN3std9panicking11panic_count18GLOBAL_PANIC_COUNT17h5754c1d48a496461E@GOTPCREL(%rip), %rax
	movq	(%rax), %rax
	testq	%rax, %rax
	jne	LBB46_4
	xorl	%r14d, %r14d
	movb	8(%r13), %al
	testb	%al, %al
	jne	LBB46_6
LBB46_9:
	movq	%r13, -56(%rbp)
	movb	%r14b, -48(%rbp)
	movq	16(%r13), %rax
	movq	24(%r13), %rcx
	movq	%rax, %xmm0
	pshufd	$68, %xmm0, %xmm0
	pxor	LCPI46_0(%rip), %xmm0
	movq	%rcx, %xmm1
	pshufd	$68, %xmm1, %xmm1
	pxor	LCPI46_1(%rip), %xmm1
	movq	8(%r15), %r12
	movq	%rax, -136(%rbp)
	movq	%rcx, -128(%rbp)
	movq	$0, -120(%rbp)
	movdqu	%xmm0, -112(%rbp)
	movdqu	%xmm1, -96(%rbp)
	movq	$0, -80(%rbp)
	movq	$0, -72(%rbp)
	leaq	-136(%rbp), %rsi
	movq	%r12, %rdi
	callq	__ZN58_$LT$std..thread..ThreadId$u20$as$u20$core..hash..Hash$GT$4hash17h442e5f26360bcaeaE
	movq	-120(%rbp), %rdi
	movq	-96(%rbp), %rax
	shlq	$56, %rdi
	orq	-80(%rbp), %rdi
	movq	-88(%rbp), %rcx
	movq	-112(%rbp), %rsi
	addq	%rax, %rsi
	rolq	$13, %rax
	xorq	%rdi, %rcx
	xorq	%rsi, %rax
	rolq	$32, %rsi
	movq	-104(%rbp), %rdx
	addq	%rcx, %rdx
	rolq	$16, %rcx
	xorq	%rdx, %rcx
	addq	%rcx, %rsi
	rolq	$21, %rcx
	addq	%rax, %rdx
	rolq	$17, %rax
	xorq	%rsi, %rcx
	xorq	%rdx, %rax
	rolq	$32, %rdx
	xorq	%rdi, %rsi
	addq	%rax, %rsi
	rolq	$13, %rax
	xorq	%rsi, %rax
	rolq	$32, %rsi
	xorq	$255, %rdx
	addq	%rcx, %rdx
	rolq	$16, %rcx
	xorq	%rdx, %rcx
	addq	%rcx, %rsi
	rolq	$21, %rcx
	addq	%rax, %rdx
	rolq	$17, %rax
	xorq	%rdx, %rax
	rolq	$32, %rdx
	xorq	%rsi, %rcx
	addq	%rax, %rsi
	rolq	$13, %rax
	xorq	%rsi, %rax
	rolq	$32, %rsi
	addq	%rcx, %rdx
	rolq	$16, %rcx
	xorq	%rdx, %rcx
	addq	%rcx, %rsi
	rolq	$21, %rcx
	addq	%rax, %rdx
	rolq	$17, %rax
	xorq	%rdx, %rax
	rolq	$32, %rdx
	xorq	%rsi, %rcx
	addq	%rax, %rsi
	rolq	$13, %rax
	xorq	%rsi, %rax
	addq	%rcx, %rdx
	rolq	$16, %rcx
	xorq	%rdx, %rcx
	rolq	$21, %rcx
	addq	%rax, %rdx
	rolq	$17, %rax
	movq	%rdx, %rsi
	rolq	$32, %rsi
	xorq	%rdx, %rax
	xorq	%rsi, %rax
	xorq	%rcx, %rax
	movq	32(%r13), %r10
	movq	40(%r13), %r9
	movq	%rax, %rcx
	shrq	$57, %rcx
	movd	%ecx, %xmm0
	pxor	%xmm1, %xmm1
	pshufb	%xmm1, %xmm0
	movq	48(%r13), %r8
	xorl	%r11d, %r11d
	pcmpeqd	%xmm1, %xmm1
LBB46_10:
	movq	%rax, %rbx
	andq	%r10, %rbx
	leaq	16(%r11,%rbx), %rax
	addq	$16, %r11
	movdqu	(%r9,%rbx), %xmm2
	movdqa	%xmm0, %xmm3
	pcmpeqb	%xmm2, %xmm3
	pmovmskb	%xmm3, %ecx
LBB46_11:
	testw	%cx, %cx
	je	LBB46_12
	bsfw	%cx, %dx
	movzwl	%dx, %edx
	leal	-1(%rcx), %esi
	andl	%ecx, %esi
	addq	%rbx, %rdx
	andq	%r10, %rdx
	movq	%rdx, %rdi
	shlq	$4, %rdi
	movl	%esi, %ecx
	cmpq	%r12, (%r8,%rdi)
	je	LBB46_14
	jmp	LBB46_11
LBB46_12:
	pcmpeqb	%xmm1, %xmm2
	pmovmskb	%xmm2, %ecx
	testw	%cx, %cx
	je	LBB46_10
	movq	(%r15), %r12
	movq	88(%r13), %rcx
	cmpq	80(%r13), %rcx
	jne	LBB46_22
LBB46_28:
	movq	%rcx, %rdx
	incq	%rdx
	je	LBB46_45
	leaq	(%rcx,%rcx), %rax
	cmpq	%rdx, %rax
	cmovaq	%rax, %rdx
	cmpq	$4, %rdx
	movl	$4, %eax
	cmovaq	%rdx, %rax
	movl	$8, %edx
	xorl	%esi, %esi
	mulq	%rdx
	movq	%rax, %r15
	seto	%bl
	setno	%dl
	movq	%rcx, %rax
	testq	%rcx, %rcx
	je	LBB46_31
	movq	72(%r13), %rax
LBB46_31:
	testb	%bl, %bl
	jne	LBB46_45
	testq	%rax, %rax
	je	LBB46_33
	leaq	(,%rcx,8), %rsi
	cmpq	%r15, %rsi
	je	LBB46_42
	testq	%rsi, %rsi
	je	LBB46_37
	movl	$8, %edx
	movq	%rax, %rdi
	movq	%r15, %rcx
	callq	___rust_realloc
	jmp	LBB46_42
LBB46_14:
	leaq	-16(%rdx), %rax
	andq	%r10, %rax
	movdqu	(%r9,%rax), %xmm0
	pcmpeqd	%xmm1, %xmm1
	pcmpeqb	%xmm1, %xmm0
	pmovmskb	%xmm0, %ecx
	movdqu	(%r9,%rdx), %xmm0
	pcmpeqb	%xmm1, %xmm0
	pmovmskb	%xmm0, %ebx
	movw	$16, %di
	movw	$16, %si
	testw	%cx, %cx
	je	LBB46_16
	bsrw	%cx, %si
	xorl	$15, %esi
LBB46_16:
	testw	%bx, %bx
	je	LBB46_18
	bsfw	%bx, %di
LBB46_18:
	movzwl	%di, %edi
	addl	%esi, %edi
	movb	$-128, %cl
	cmpw	$15, %di
	ja	LBB46_20
	incq	56(%r13)
	movb	$-1, %cl
LBB46_20:
	movb	%cl, (%r9,%rdx)
	movb	%cl, 16(%rax,%r9)
	decq	64(%r13)
	movq	(%r15), %r12
	movq	88(%r13), %rcx
	cmpq	80(%r13), %rcx
	je	LBB46_28
LBB46_22:
	movq	72(%r13), %rax
	movq	%r12, (%rax,%rcx,8)
	incq	88(%r13)
	testb	%r14b, %r14b
	jne	LBB46_27
	jmp	LBB46_24
LBB46_33:
	movb	%dl, %sil
	shlq	$3, %rsi
	testq	%r15, %r15
	jne	LBB46_40
	movq	%rsi, %rax
	jmp	LBB46_42
LBB46_1:
	leaq	-64(%rbp), %rax
	movq	%rax, -56(%rbp)
	leaq	-56(%rbp), %rax
	movq	%rax, -136(%rbp)
	leaq	__ZN95_$LT$crossbeam_utils..sync..sharded_lock..THREAD_INDICES$u20$as$u20$core..ops..deref..Deref$GT$5deref11__stability4LAZY17h015e97a6fb05ea77E+104(%rip), %rdi
	leaq	l___unnamed_6(%rip), %rcx
	leaq	-136(%rbp), %rdx
	xorl	%esi, %esi
	callq	__ZN3std4sync4once4Once10call_inner17hfcd38045e50af9d3E
	jmp	LBB46_2
LBB46_4:
	callq	__ZN3std9panicking11panic_count17is_zero_slow_path17ha588394117c50e3dE
	movl	%eax, %r14d
	xorb	$1, %r14b
	movb	8(%r13), %al
	testb	%al, %al
	je	LBB46_9
LBB46_6:
	movq	%r13, -136(%rbp)
	movb	%r14b, -128(%rbp)
Ltmp84:
	leaq	l___unnamed_7(%rip), %rdi
	leaq	l___unnamed_8(%rip), %rcx
	leaq	l___unnamed_42(%rip), %r8
	leaq	-136(%rbp), %rdx
	movl	$43, %esi
	callq	__ZN4core6result13unwrap_failed17hc193898ef513e81fE
Ltmp85:
	jmp	LBB46_7
LBB46_37:
	testq	%r15, %r15
	je	LBB46_38
	movl	$8, %esi
LBB46_40:
	movq	%r15, %rdi
	callq	___rust_alloc
LBB46_42:
	testq	%rax, %rax
	je	LBB46_46
	movq	88(%r13), %rcx
LBB46_44:
	movq	%rax, 72(%r13)
	shrq	$3, %r15
	movq	%r15, 80(%r13)
	movq	%r12, (%rax,%rcx,8)
	incq	88(%r13)
	testb	%r14b, %r14b
	jne	LBB46_27
LBB46_24:
	movq	__ZN3std9panicking11panic_count18GLOBAL_PANIC_COUNT17h5754c1d48a496461E@GOTPCREL(%rip), %rax
	movq	(%rax), %rax
	testq	%rax, %rax
	jne	LBB46_25
LBB46_27:
	movq	-56(%rbp), %rax
	movq	(%rax), %rdi
	callq	_pthread_mutex_unlock
	addq	$104, %rsp
	popq	%rbx
	popq	%r12
	popq	%r13
	popq	%r14
	popq	%r15
	popq	%rbp
	retq
LBB46_25:
	callq	__ZN3std9panicking11panic_count17is_zero_slow_path17ha588394117c50e3dE
	testb	%al, %al
	jne	LBB46_27
	movb	$1, 8(%r13)
	jmp	LBB46_27
LBB46_38:
	movl	$8, %eax
	jmp	LBB46_44
LBB46_45:
Ltmp87:
	callq	__ZN5alloc7raw_vec17capacity_overflow17h7526b10e27579d59E
Ltmp88:
LBB46_7:
	ud2
LBB46_46:
	movl	$8, %esi
	movq	%r15, %rdi
	callq	__ZN5alloc5alloc18handle_alloc_error17h28974197717b8939E
LBB46_47:
Ltmp89:
	movq	%rax, %rbx
	leaq	-56(%rbp), %rdi
	callq	__ZN4core3ptr13drop_in_place17h71188d518bbee787E
	jmp	LBB46_48
LBB46_8:
Ltmp86:
	movq	%rax, %rbx
	leaq	-136(%rbp), %rdi
	callq	__ZN4core3ptr13drop_in_place17h3b24802de2318f9fE
LBB46_48:
	movq	%rbx, %rdi
	callq	__Unwind_Resume
	ud2
Lfunc_end10:
	.cfi_endproc
	.section	__TEXT,__gcc_except_tab
	.p2align	2
GCC_except_table46:
Lexception10:
	.byte	255
	.byte	255
	.byte	1
	.uleb128 Lcst_end10-Lcst_begin10
Lcst_begin10:
	.uleb128 Lfunc_begin10-Lfunc_begin10
	.uleb128 Ltmp84-Lfunc_begin10
	.byte	0
	.byte	0
	.uleb128 Ltmp84-Lfunc_begin10
	.uleb128 Ltmp85-Ltmp84
	.uleb128 Ltmp86-Lfunc_begin10
	.byte	0
	.uleb128 Ltmp85-Lfunc_begin10
	.uleb128 Ltmp87-Ltmp85
	.byte	0
	.byte	0
	.uleb128 Ltmp87-Lfunc_begin10
	.uleb128 Ltmp88-Ltmp87
	.uleb128 Ltmp89-Lfunc_begin10
	.byte	0
	.uleb128 Ltmp88-Lfunc_begin10
	.uleb128 Lfunc_end10-Ltmp88
	.byte	0
	.byte	0
Lcst_end10:
	.p2align	2

	.section	__TEXT,__literal16,16byte_literals
	.p2align	4
LCPI47_0:
	.quad	1
	.quad	1
	.section	__TEXT,__text,regular,pure_instructions
	.globl	__ZN15crossbeam_utils4sync10wait_group9WaitGroup3new17h6be191b5a482b3c1E
	.p2align	4, 0x90
__ZN15crossbeam_utils4sync10wait_group9WaitGroup3new17h6be191b5a482b3c1E:
Lfunc_begin11:
	.cfi_startproc
	.cfi_personality 155, _rust_eh_personality
	.cfi_lsda 16, Lexception11
	pushq	%rbp
	.cfi_def_cfa_offset 16
	.cfi_offset %rbp, -16
	movq	%rsp, %rbp
	.cfi_def_cfa_register %rbp
	pushq	%r15
	pushq	%r14
	pushq	%rbx
	subq	$56, %rsp
	.cfi_offset %rbx, -40
	.cfi_offset %r14, -32
	.cfi_offset %r15, -24
	leaq	-72(%rbp), %rdi
	callq	__ZN3std4sync7condvar7Condvar3new17h64fee8df7a382290E
	movl	$64, %edi
	movl	$8, %esi
	callq	___rust_alloc
	testq	%rax, %rax
	je	LBB47_9
	movq	%rax, %r15
Ltmp90:
	movq	%rax, %rdi
	callq	__ZN3std10sys_common5mutex5Mutex3new17hfec750c2ce1161a9E
Ltmp91:
	movq	%r15, -48(%rbp)
Ltmp93:
	callq	__ZN3std10sys_common6poison4Flag3new17hd7ec4e2336668a12E
Ltmp94:
	movl	%eax, %r14d
	leaq	-48(%rbp), %rbx
	movq	%rbx, %rdi
	callq	_pthread_mutexattr_init
	movq	%rbx, %rdi
	xorl	%esi, %esi
	callq	_pthread_mutexattr_settype
	movq	%r15, %rdi
	movq	%rbx, %rsi
	callq	_pthread_mutex_init
	movq	%rbx, %rdi
	callq	_pthread_mutexattr_destroy
	movq	-72(%rbp), %rax
	movq	-64(%rbp), %rcx
	movq	%rax, -48(%rbp)
	movq	%rcx, -40(%rbp)
	movl	-55(%rbp), %eax
	movl	-52(%rbp), %ecx
	movl	%eax, -32(%rbp)
	movl	%ecx, -29(%rbp)
	movl	$56, %edi
	movl	$8, %esi
	callq	___rust_alloc
	testq	%rax, %rax
	je	LBB47_4
	movaps	LCPI47_0(%rip), %xmm0
	movups	%xmm0, (%rax)
	movq	-48(%rbp), %rcx
	movq	-40(%rbp), %rdx
	movq	%rcx, 16(%rax)
	movq	%rdx, 24(%rax)
	movq	%r15, 32(%rax)
	movb	%r14b, 40(%rax)
	movl	-32(%rbp), %ecx
	movl	-29(%rbp), %edx
	movl	%ecx, 41(%rax)
	movl	%edx, 44(%rax)
	movq	$1, 48(%rax)
	addq	$56, %rsp
	popq	%rbx
	popq	%r14
	popq	%r15
	popq	%rbp
	retq
LBB47_9:
	movl	$64, %edi
	movl	$8, %esi
	callq	__ZN5alloc5alloc18handle_alloc_error17h28974197717b8939E
LBB47_4:
	movl	$56, %edi
	movl	$8, %esi
	callq	__ZN5alloc5alloc18handle_alloc_error17h28974197717b8939E
LBB47_7:
Ltmp95:
	movq	%rax, %r14
	leaq	-48(%rbp), %rdi
	callq	__ZN4core3ptr13drop_in_place17h3c814f0160b92ba9E
	jmp	LBB47_6
LBB47_5:
Ltmp92:
	movq	%rax, %r14
	movq	%r15, %rdi
	callq	__ZN5alloc5alloc8box_free17h0f024b19a314ca84E
LBB47_6:
	leaq	-72(%rbp), %rdi
	callq	__ZN4core3ptr13drop_in_place17hec1c80503e313116E
	movq	%r14, %rdi
	callq	__Unwind_Resume
	ud2
Lfunc_end11:
	.cfi_endproc
	.section	__TEXT,__gcc_except_tab
	.p2align	2
GCC_except_table47:
Lexception11:
	.byte	255
	.byte	255
	.byte	1
	.uleb128 Lcst_end11-Lcst_begin11
Lcst_begin11:
	.uleb128 Lfunc_begin11-Lfunc_begin11
	.uleb128 Ltmp90-Lfunc_begin11
	.byte	0
	.byte	0
	.uleb128 Ltmp90-Lfunc_begin11
	.uleb128 Ltmp91-Ltmp90
	.uleb128 Ltmp92-Lfunc_begin11
	.byte	0
	.uleb128 Ltmp93-Lfunc_begin11
	.uleb128 Ltmp94-Ltmp93
	.uleb128 Ltmp95-Lfunc_begin11
	.byte	0
	.uleb128 Ltmp94-Lfunc_begin11
	.uleb128 Lfunc_end11-Ltmp94
	.byte	0
	.byte	0
Lcst_end11:
	.p2align	2

	.section	__TEXT,__text,regular,pure_instructions
	.globl	__ZN15crossbeam_utils4sync10wait_group9WaitGroup4wait17h07210898e6396460E
	.p2align	4, 0x90
__ZN15crossbeam_utils4sync10wait_group9WaitGroup4wait17h07210898e6396460E:
Lfunc_begin12:
	.cfi_startproc
	.cfi_personality 155, _rust_eh_personality
	.cfi_lsda 16, Lexception12
	pushq	%rbp
	.cfi_def_cfa_offset 16
	.cfi_offset %rbp, -16
	movq	%rsp, %rbp
	.cfi_def_cfa_register %rbp
	pushq	%r15
	pushq	%r14
	pushq	%r13
	pushq	%r12
	pushq	%rbx
	subq	$40, %rsp
	.cfi_offset %rbx, -56
	.cfi_offset %r12, -48
	.cfi_offset %r13, -40
	.cfi_offset %r14, -32
	.cfi_offset %r15, -24
	movq	%rdi, %rbx
	movq	%rdi, -64(%rbp)
	movq	32(%rdi), %rdi
	callq	_pthread_mutex_lock
	movq	__ZN3std9panicking11panic_count18GLOBAL_PANIC_COUNT17h5754c1d48a496461E@GOTPCREL(%rip), %r12
	movq	(%r12), %rax
	testq	%rax, %rax
	je	LBB48_15
Ltmp96:
	callq	__ZN3std9panicking11panic_count17is_zero_slow_path17ha588394117c50e3dE
Ltmp97:
	xorb	$1, %al
	leaq	32(%rbx), %r14
	movb	40(%rbx), %cl
	testb	%cl, %cl
	jne	LBB48_16
LBB48_3:
	movq	48(%rbx), %r15
	testb	%al, %al
	je	LBB48_17
LBB48_4:
	movq	(%r14), %rdi
	callq	_pthread_mutex_unlock
	cmpq	$1, %r15
	jne	LBB48_8
Ltmp139:
	leaq	-64(%rbp), %rdi
	callq	__ZN86_$LT$crossbeam_utils..sync..wait_group..WaitGroup$u20$as$u20$core..ops..drop..Drop$GT$4drop17h29afbd86effea95cE
Ltmp140:
	lock		decq	(%rbx)
	jne	LBB48_32
	##MEMBARRIER
	leaq	-64(%rbp), %rdi
	callq	__ZN5alloc4sync12Arc$LT$T$GT$9drop_slow17hdb705a4ad4846e6fE
	jmp	LBB48_32
LBB48_8:
	lock		incq	(%rbx)
	jle	LBB48_38
	movq	%rbx, -80(%rbp)
	movq	%rbx, -56(%rbp)
Ltmp106:
	leaq	-56(%rbp), %rdi
	callq	__ZN86_$LT$crossbeam_utils..sync..wait_group..WaitGroup$u20$as$u20$core..ops..drop..Drop$GT$4drop17h29afbd86effea95cE
Ltmp107:
	lock		decq	(%rbx)
	jne	LBB48_12
	##MEMBARRIER
Ltmp111:
	leaq	-56(%rbp), %rdi
	callq	__ZN5alloc4sync12Arc$LT$T$GT$9drop_slow17hdb705a4ad4846e6fE
Ltmp112:
LBB48_12:
	movq	-80(%rbp), %r14
	movq	32(%r14), %rdi
	callq	_pthread_mutex_lock
	movq	(%r12), %rax
	testq	%rax, %rax
	je	LBB48_21
Ltmp113:
	callq	__ZN3std9panicking11panic_count17is_zero_slow_path17ha588394117c50e3dE
Ltmp114:
	xorb	$1, %al
	jmp	LBB48_22
LBB48_15:
	xorl	%eax, %eax
	leaq	32(%rbx), %r14
	movb	40(%rbx), %cl
	testb	%cl, %cl
	je	LBB48_3
LBB48_16:
	movq	%r14, -56(%rbp)
	movb	%al, -48(%rbp)
Ltmp98:
	leaq	l___unnamed_7(%rip), %rdi
	leaq	l___unnamed_43(%rip), %rcx
	leaq	l___unnamed_44(%rip), %r8
	leaq	-56(%rbp), %rdx
	movl	$43, %esi
	callq	__ZN4core6result13unwrap_failed17hc193898ef513e81fE
Ltmp99:
	jmp	LBB48_38
LBB48_17:
	movq	(%r12), %rax
	testq	%rax, %rax
	je	LBB48_4
Ltmp103:
	callq	__ZN3std9panicking11panic_count17is_zero_slow_path17ha588394117c50e3dE
Ltmp104:
	testb	%al, %al
	jne	LBB48_4
	movb	$1, 40(%rbx)
	jmp	LBB48_4
LBB48_21:
	xorl	%eax, %eax
LBB48_22:
	leaq	32(%r14), %rcx
	movq	%rcx, -72(%rbp)
	movb	40(%r14), %cl
	testb	%cl, %cl
	jne	LBB48_39
	cmpq	$0, 48(%r14)
	je	LBB48_29
	leaq	16(%r14), %r15
	.p2align	4, 0x90
LBB48_25:
	movq	-72(%rbp), %rcx
	movq	%rcx, -56(%rbp)
	movl	%eax, %r13d
	movb	%al, -48(%rbp)
	movq	(%rcx), %rbx
Ltmp120:
	movq	%r15, %rdi
	movq	%rbx, %rsi
	callq	__ZN3std4sync7condvar7Condvar6verify17h11b2eb6bc24cc9feE
Ltmp121:
	movq	(%r15), %r12
Ltmp122:
	movq	%rbx, %rdi
	callq	__ZN3std10sys_common5mutex3raw17hd9071ed6f4cf0cb0E
Ltmp123:
	movq	%r12, %rdi
	movq	%rax, %rsi
	callq	_pthread_cond_wait
	movzbl	40(%r14), %eax
	testb	%al, %al
	jne	LBB48_37
	cmpq	$0, 48(%r14)
	movl	%r13d, %eax
	jne	LBB48_25
LBB48_29:
	testb	%al, %al
	je	LBB48_33
LBB48_30:
	movq	32(%r14), %rdi
	callq	_pthread_mutex_unlock
	lock		decq	(%r14)
	jne	LBB48_32
	##MEMBARRIER
Ltmp136:
	leaq	-80(%rbp), %rdi
	callq	__ZN5alloc4sync12Arc$LT$T$GT$9drop_slow17hdb705a4ad4846e6fE
Ltmp137:
LBB48_32:
	addq	$40, %rsp
	popq	%rbx
	popq	%r12
	popq	%r13
	popq	%r14
	popq	%r15
	popq	%rbp
	retq
LBB48_33:
	movq	__ZN3std9panicking11panic_count18GLOBAL_PANIC_COUNT17h5754c1d48a496461E@GOTPCREL(%rip), %rax
	movq	(%rax), %rax
	testq	%rax, %rax
	je	LBB48_30
Ltmp133:
	callq	__ZN3std9panicking11panic_count17is_zero_slow_path17ha588394117c50e3dE
Ltmp134:
	testb	%al, %al
	jne	LBB48_30
	movb	$1, 40(%r14)
	jmp	LBB48_30
LBB48_37:
	movq	-72(%rbp), %rax
	movq	%rax, -56(%rbp)
	movb	%r13b, -48(%rbp)
Ltmp127:
	leaq	l___unnamed_7(%rip), %rdi
	leaq	l___unnamed_43(%rip), %rcx
	leaq	l___unnamed_45(%rip), %r8
	leaq	-56(%rbp), %rdx
	movl	$43, %esi
	callq	__ZN4core6result13unwrap_failed17hc193898ef513e81fE
Ltmp128:
LBB48_38:
	ud2
LBB48_39:
	movq	-72(%rbp), %rcx
	movq	%rcx, -56(%rbp)
	movb	%al, -48(%rbp)
Ltmp115:
	leaq	l___unnamed_7(%rip), %rdi
	leaq	l___unnamed_43(%rip), %rcx
	leaq	l___unnamed_46(%rip), %r8
	leaq	-56(%rbp), %rdx
	movl	$43, %esi
	callq	__ZN4core6result13unwrap_failed17hc193898ef513e81fE
Ltmp116:
	jmp	LBB48_38
LBB48_40:
Ltmp117:
	movq	%rax, %rbx
Ltmp118:
	leaq	-56(%rbp), %rdi
	callq	__ZN4core3ptr13drop_in_place17h3b24802de2318f9fE
Ltmp119:
	jmp	LBB48_50
LBB48_41:
Ltmp100:
	movq	%rax, %rbx
Ltmp101:
	leaq	-56(%rbp), %rdi
	callq	__ZN4core3ptr13drop_in_place17h3b24802de2318f9fE
Ltmp102:
	jmp	LBB48_48
LBB48_42:
Ltmp129:
	movq	%rax, %rbx
Ltmp130:
	leaq	-56(%rbp), %rdi
	callq	__ZN4core3ptr13drop_in_place17h3b24802de2318f9fE
Ltmp131:
	jmp	LBB48_50
LBB48_43:
Ltmp138:
	movq	%rax, %rbx
	jmp	LBB48_52
LBB48_44:
Ltmp108:
	movq	%rax, %rbx
Ltmp109:
	leaq	-56(%rbp), %rdi
	callq	__ZN4core3ptr13drop_in_place17h62bcd001e70c7bbcE
Ltmp110:
	jmp	LBB48_50
LBB48_45:
Ltmp141:
	movq	%rax, %rbx
	leaq	-64(%rbp), %rdi
	jmp	LBB48_51
LBB48_46:
Ltmp135:
	movq	%rax, %rbx
	jmp	LBB48_50
LBB48_47:
Ltmp105:
	movq	%rax, %rbx
LBB48_48:
	leaq	-64(%rbp), %rdi
	callq	__ZN4core3ptr13drop_in_place17hfb14cd9e1c5dfd0cE
	jmp	LBB48_52
LBB48_49:
Ltmp124:
	movq	%rax, %rbx
Ltmp125:
	leaq	-56(%rbp), %rdi
	callq	__ZN4core3ptr13drop_in_place17h71188d518bbee787E
Ltmp126:
LBB48_50:
	leaq	-80(%rbp), %rdi
LBB48_51:
	callq	__ZN4core3ptr13drop_in_place17h62bcd001e70c7bbcE
LBB48_52:
	movq	%rbx, %rdi
	callq	__Unwind_Resume
	ud2
LBB48_53:
Ltmp132:
	movq	%rax, %rbx
	jmp	LBB48_50
Lfunc_end12:
	.cfi_endproc
	.section	__TEXT,__gcc_except_tab
	.p2align	2
GCC_except_table48:
Lexception12:
	.byte	255
	.byte	255
	.byte	1
	.uleb128 Lcst_end12-Lcst_begin12
Lcst_begin12:
	.uleb128 Ltmp96-Lfunc_begin12
	.uleb128 Ltmp97-Ltmp96
	.uleb128 Ltmp105-Lfunc_begin12
	.byte	0
	.uleb128 Ltmp139-Lfunc_begin12
	.uleb128 Ltmp140-Ltmp139
	.uleb128 Ltmp141-Lfunc_begin12
	.byte	0
	.uleb128 Ltmp140-Lfunc_begin12
	.uleb128 Ltmp106-Ltmp140
	.byte	0
	.byte	0
	.uleb128 Ltmp106-Lfunc_begin12
	.uleb128 Ltmp107-Ltmp106
	.uleb128 Ltmp108-Lfunc_begin12
	.byte	0
	.uleb128 Ltmp111-Lfunc_begin12
	.uleb128 Ltmp114-Ltmp111
	.uleb128 Ltmp135-Lfunc_begin12
	.byte	0
	.uleb128 Ltmp98-Lfunc_begin12
	.uleb128 Ltmp99-Ltmp98
	.uleb128 Ltmp100-Lfunc_begin12
	.byte	0
	.uleb128 Ltmp103-Lfunc_begin12
	.uleb128 Ltmp104-Ltmp103
	.uleb128 Ltmp105-Lfunc_begin12
	.byte	0
	.uleb128 Ltmp120-Lfunc_begin12
	.uleb128 Ltmp123-Ltmp120
	.uleb128 Ltmp124-Lfunc_begin12
	.byte	0
	.uleb128 Ltmp136-Lfunc_begin12
	.uleb128 Ltmp137-Ltmp136
	.uleb128 Ltmp138-Lfunc_begin12
	.byte	0
	.uleb128 Ltmp133-Lfunc_begin12
	.uleb128 Ltmp134-Ltmp133
	.uleb128 Ltmp135-Lfunc_begin12
	.byte	0
	.uleb128 Ltmp127-Lfunc_begin12
	.uleb128 Ltmp128-Ltmp127
	.uleb128 Ltmp129-Lfunc_begin12
	.byte	0
	.uleb128 Ltmp115-Lfunc_begin12
	.uleb128 Ltmp116-Ltmp115
	.uleb128 Ltmp117-Lfunc_begin12
	.byte	0
	.uleb128 Ltmp118-Lfunc_begin12
	.uleb128 Ltmp119-Ltmp118
	.uleb128 Ltmp135-Lfunc_begin12
	.byte	0
	.uleb128 Ltmp101-Lfunc_begin12
	.uleb128 Ltmp102-Ltmp101
	.uleb128 Ltmp105-Lfunc_begin12
	.byte	0
	.uleb128 Ltmp130-Lfunc_begin12
	.uleb128 Ltmp131-Ltmp130
	.uleb128 Ltmp132-Lfunc_begin12
	.byte	0
	.uleb128 Ltmp109-Lfunc_begin12
	.uleb128 Ltmp110-Ltmp109
	.uleb128 Ltmp135-Lfunc_begin12
	.byte	0
	.uleb128 Ltmp110-Lfunc_begin12
	.uleb128 Ltmp125-Ltmp110
	.byte	0
	.byte	0
	.uleb128 Ltmp125-Lfunc_begin12
	.uleb128 Ltmp126-Ltmp125
	.uleb128 Ltmp132-Lfunc_begin12
	.byte	0
	.uleb128 Ltmp126-Lfunc_begin12
	.uleb128 Lfunc_end12-Ltmp126
	.byte	0
	.byte	0
Lcst_end12:
	.p2align	2

	.section	__TEXT,__text,regular,pure_instructions
	.globl	__ZN86_$LT$crossbeam_utils..sync..wait_group..WaitGroup$u20$as$u20$core..ops..drop..Drop$GT$4drop17h29afbd86effea95cE
	.p2align	4, 0x90
__ZN86_$LT$crossbeam_utils..sync..wait_group..WaitGroup$u20$as$u20$core..ops..drop..Drop$GT$4drop17h29afbd86effea95cE:
Lfunc_begin13:
	.cfi_startproc
	.cfi_personality 155, _rust_eh_personality
	.cfi_lsda 16, Lexception13
	pushq	%rbp
	.cfi_def_cfa_offset 16
	.cfi_offset %rbp, -16
	movq	%rsp, %rbp
	.cfi_def_cfa_register %rbp
	pushq	%r15
	pushq	%r14
	pushq	%r13
	pushq	%r12
	pushq	%rbx
	subq	$24, %rsp
	.cfi_offset %rbx, -56
	.cfi_offset %r12, -48
	.cfi_offset %r13, -40
	.cfi_offset %r14, -32
	.cfi_offset %r15, -24
	movq	%rdi, %r14
	movq	(%rdi), %rbx
	movq	32(%rbx), %rdi
	callq	_pthread_mutex_lock
	movq	__ZN3std9panicking11panic_count18GLOBAL_PANIC_COUNT17h5754c1d48a496461E@GOTPCREL(%rip), %r12
	movq	(%r12), %rax
	testq	%rax, %rax
	jne	LBB49_2
	xorl	%r15d, %r15d
	leaq	32(%rbx), %r13
	movb	40(%rbx), %al
	testb	%al, %al
	jne	LBB49_4
LBB49_6:
	movq	%r13, -56(%rbp)
	movb	%r15b, -48(%rbp)
	movq	48(%rbx), %rax
	subq	$1, %rax
	jb	LBB49_15
	movq	%rax, 48(%rbx)
	testq	%rax, %rax
	jne	LBB49_9
	movq	(%r14), %rdi
	addq	$16, %rdi
Ltmp145:
	callq	__ZN3std4sync7condvar7Condvar10notify_all17h4109712bde5923a6E
Ltmp146:
LBB49_9:
	testb	%r15b, %r15b
	jne	LBB49_13
	movq	(%r12), %rax
	testq	%rax, %rax
	jne	LBB49_11
LBB49_13:
	movq	(%r13), %rdi
	addq	$24, %rsp
	popq	%rbx
	popq	%r12
	popq	%r13
	popq	%r14
	popq	%r15
	popq	%rbp
	jmp	_pthread_mutex_unlock
LBB49_2:
	callq	__ZN3std9panicking11panic_count17is_zero_slow_path17ha588394117c50e3dE
	movl	%eax, %r15d
	xorb	$1, %r15b
	leaq	32(%rbx), %r13
	movb	40(%rbx), %al
	testb	%al, %al
	je	LBB49_6
LBB49_4:
	movq	%r13, -56(%rbp)
	movb	%r15b, -48(%rbp)
Ltmp142:
	leaq	l___unnamed_7(%rip), %rdi
	leaq	l___unnamed_43(%rip), %rcx
	leaq	l___unnamed_47(%rip), %r8
	leaq	-56(%rbp), %rdx
	movl	$43, %esi
	callq	__ZN4core6result13unwrap_failed17hc193898ef513e81fE
Ltmp143:
	jmp	LBB49_5
LBB49_11:
	callq	__ZN3std9panicking11panic_count17is_zero_slow_path17ha588394117c50e3dE
	testb	%al, %al
	jne	LBB49_13
	movb	$1, 40(%rbx)
	jmp	LBB49_13
LBB49_15:
Ltmp147:
	leaq	_str.1(%rip), %rdi
	leaq	l___unnamed_48(%rip), %rdx
	movl	$33, %esi
	callq	__ZN4core9panicking5panic17h383a6b80ea7021aaE
Ltmp148:
LBB49_5:
	ud2
LBB49_16:
Ltmp144:
	movq	%rax, %rbx
	leaq	-56(%rbp), %rdi
	callq	__ZN4core3ptr13drop_in_place17h3b24802de2318f9fE
	jmp	LBB49_17
LBB49_14:
Ltmp149:
	movq	%rax, %rbx
	leaq	-56(%rbp), %rdi
	callq	__ZN4core3ptr13drop_in_place17h71188d518bbee787E
LBB49_17:
	movq	%rbx, %rdi
	callq	__Unwind_Resume
	ud2
Lfunc_end13:
	.cfi_endproc
	.section	__TEXT,__gcc_except_tab
	.p2align	2
GCC_except_table49:
Lexception13:
	.byte	255
	.byte	255
	.byte	1
	.uleb128 Lcst_end13-Lcst_begin13
Lcst_begin13:
	.uleb128 Ltmp145-Lfunc_begin13
	.uleb128 Ltmp146-Ltmp145
	.uleb128 Ltmp149-Lfunc_begin13
	.byte	0
	.uleb128 Ltmp146-Lfunc_begin13
	.uleb128 Ltmp142-Ltmp146
	.byte	0
	.byte	0
	.uleb128 Ltmp142-Lfunc_begin13
	.uleb128 Ltmp143-Ltmp142
	.uleb128 Ltmp144-Lfunc_begin13
	.byte	0
	.uleb128 Ltmp143-Lfunc_begin13
	.uleb128 Ltmp147-Ltmp143
	.byte	0
	.byte	0
	.uleb128 Ltmp147-Lfunc_begin13
	.uleb128 Ltmp148-Ltmp147
	.uleb128 Ltmp149-Lfunc_begin13
	.byte	0
	.uleb128 Ltmp148-Lfunc_begin13
	.uleb128 Lfunc_end13-Ltmp148
	.byte	0
	.byte	0
Lcst_end13:
	.p2align	2

	.section	__TEXT,__text,regular,pure_instructions
	.globl	__ZN83_$LT$crossbeam_utils..sync..wait_group..WaitGroup$u20$as$u20$core..clone..Clone$GT$5clone17h652c82394d4743c7E
	.p2align	4, 0x90
__ZN83_$LT$crossbeam_utils..sync..wait_group..WaitGroup$u20$as$u20$core..clone..Clone$GT$5clone17h652c82394d4743c7E:
Lfunc_begin14:
	.cfi_startproc
	.cfi_personality 155, _rust_eh_personality
	.cfi_lsda 16, Lexception14
	pushq	%rbp
	.cfi_def_cfa_offset 16
	.cfi_offset %rbp, -16
	movq	%rsp, %rbp
	.cfi_def_cfa_register %rbp
	pushq	%r14
	pushq	%rbx
	subq	$16, %rsp
	.cfi_offset %rbx, -32
	.cfi_offset %r14, -24
	movq	(%rdi), %rbx
	movq	32(%rbx), %rdi
	callq	_pthread_mutex_lock
	movq	__ZN3std9panicking11panic_count18GLOBAL_PANIC_COUNT17h5754c1d48a496461E@GOTPCREL(%rip), %r14
	movq	(%r14), %rax
	testq	%rax, %rax
	jne	LBB50_2
	xorl	%eax, %eax
	leaq	32(%rbx), %rcx
	movb	40(%rbx), %dl
	testb	%dl, %dl
	jne	LBB50_4
LBB50_6:
	movq	%rcx, -32(%rbp)
	movb	%al, -24(%rbp)
	movq	48(%rbx), %rcx
	incq	%rcx
	je	LBB50_14
	movq	%rcx, 48(%rbx)
	lock		incq	(%rbx)
	jle	LBB50_5
	testb	%al, %al
	jne	LBB50_12
	movq	(%r14), %rax
	testq	%rax, %rax
	jne	LBB50_10
LBB50_12:
	movq	32(%rbx), %rdi
	callq	_pthread_mutex_unlock
	movq	%rbx, %rax
	addq	$16, %rsp
	popq	%rbx
	popq	%r14
	popq	%rbp
	retq
LBB50_2:
	callq	__ZN3std9panicking11panic_count17is_zero_slow_path17ha588394117c50e3dE
	xorb	$1, %al
	leaq	32(%rbx), %rcx
	movb	40(%rbx), %dl
	testb	%dl, %dl
	je	LBB50_6
LBB50_4:
	movq	%rcx, -32(%rbp)
	movb	%al, -24(%rbp)
Ltmp150:
	leaq	l___unnamed_7(%rip), %rdi
	leaq	l___unnamed_43(%rip), %rcx
	leaq	l___unnamed_49(%rip), %r8
	leaq	-32(%rbp), %rdx
	movl	$43, %esi
	callq	__ZN4core6result13unwrap_failed17hc193898ef513e81fE
Ltmp151:
	jmp	LBB50_5
LBB50_10:
	callq	__ZN3std9panicking11panic_count17is_zero_slow_path17ha588394117c50e3dE
	testb	%al, %al
	jne	LBB50_12
	movb	$1, 40(%rbx)
	jmp	LBB50_12
LBB50_14:
Ltmp153:
	leaq	_str.2(%rip), %rdi
	leaq	l___unnamed_50(%rip), %rdx
	movl	$28, %esi
	callq	__ZN4core9panicking5panic17h383a6b80ea7021aaE
Ltmp154:
LBB50_5:
	ud2
LBB50_13:
Ltmp155:
	movq	%rax, %rbx
	leaq	-32(%rbp), %rdi
	callq	__ZN4core3ptr13drop_in_place17h71188d518bbee787E
	jmp	LBB50_16
LBB50_15:
Ltmp152:
	movq	%rax, %rbx
	leaq	-32(%rbp), %rdi
	callq	__ZN4core3ptr13drop_in_place17h3b24802de2318f9fE
LBB50_16:
	movq	%rbx, %rdi
	callq	__Unwind_Resume
	ud2
Lfunc_end14:
	.cfi_endproc
	.section	__TEXT,__gcc_except_tab
	.p2align	2
GCC_except_table50:
Lexception14:
	.byte	255
	.byte	255
	.byte	1
	.uleb128 Lcst_end14-Lcst_begin14
Lcst_begin14:
	.uleb128 Lfunc_begin14-Lfunc_begin14
	.uleb128 Ltmp150-Lfunc_begin14
	.byte	0
	.byte	0
	.uleb128 Ltmp150-Lfunc_begin14
	.uleb128 Ltmp151-Ltmp150
	.uleb128 Ltmp152-Lfunc_begin14
	.byte	0
	.uleb128 Ltmp151-Lfunc_begin14
	.uleb128 Ltmp153-Ltmp151
	.byte	0
	.byte	0
	.uleb128 Ltmp153-Lfunc_begin14
	.uleb128 Ltmp154-Ltmp153
	.uleb128 Ltmp155-Lfunc_begin14
	.byte	0
	.uleb128 Ltmp154-Lfunc_begin14
	.uleb128 Lfunc_end14-Ltmp154
	.byte	0
	.byte	0
Lcst_end14:
	.p2align	2

	.section	__TEXT,__text,regular,pure_instructions
	.globl	__ZN81_$LT$crossbeam_utils..sync..wait_group..WaitGroup$u20$as$u20$core..fmt..Debug$GT$3fmt17hc756628e481f7bf7E
	.p2align	4, 0x90
__ZN81_$LT$crossbeam_utils..sync..wait_group..WaitGroup$u20$as$u20$core..fmt..Debug$GT$3fmt17hc756628e481f7bf7E:
Lfunc_begin15:
	.cfi_startproc
	.cfi_personality 155, _rust_eh_personality
	.cfi_lsda 16, Lexception15
	pushq	%rbp
	.cfi_def_cfa_offset 16
	.cfi_offset %rbp, -16
	movq	%rsp, %rbp
	.cfi_def_cfa_register %rbp
	pushq	%r15
	pushq	%r14
	pushq	%r13
	pushq	%r12
	pushq	%rbx
	subq	$40, %rsp
	.cfi_offset %rbx, -56
	.cfi_offset %r12, -48
	.cfi_offset %r13, -40
	.cfi_offset %r14, -32
	.cfi_offset %r15, -24
	movq	%rsi, %r14
	movq	(%rdi), %rbx
	movq	32(%rbx), %rdi
	callq	_pthread_mutex_lock
	movq	__ZN3std9panicking11panic_count18GLOBAL_PANIC_COUNT17h5754c1d48a496461E@GOTPCREL(%rip), %r12
	movq	(%r12), %rax
	testq	%rax, %rax
	jne	LBB51_2
	xorl	%r15d, %r15d
	leaq	32(%rbx), %r13
	movb	40(%rbx), %al
	testb	%al, %al
	jne	LBB51_4
LBB51_7:
	movq	%r13, -72(%rbp)
	movb	%r15b, -64(%rbp)
Ltmp159:
	leaq	l___unnamed_51(%rip), %rdx
	leaq	-56(%rbp), %rdi
	movl	$9, %ecx
	movq	%r14, %rsi
	callq	__ZN4core3fmt9Formatter12debug_struct17ha1a64e91d2a98458E
Ltmp160:
	leaq	48(%rbx), %rcx
Ltmp161:
	leaq	l___unnamed_52(%rip), %rsi
	leaq	l___unnamed_53(%rip), %r8
	leaq	-56(%rbp), %rdi
	movl	$5, %edx
	callq	__ZN4core3fmt8builders11DebugStruct5field17h6c54d35ac41bb1e6E
Ltmp162:
Ltmp163:
	movq	%rax, %rdi
	callq	__ZN4core3fmt8builders11DebugStruct6finish17h67ed49fd5e81bb24E
Ltmp164:
	movl	%eax, %r14d
	testb	%r15b, %r15b
	jne	LBB51_14
	movq	(%r12), %rax
	testq	%rax, %rax
	jne	LBB51_12
LBB51_14:
	movq	(%r13), %rdi
	callq	_pthread_mutex_unlock
	movl	%r14d, %eax
	addq	$40, %rsp
	popq	%rbx
	popq	%r12
	popq	%r13
	popq	%r14
	popq	%r15
	popq	%rbp
	retq
LBB51_2:
	callq	__ZN3std9panicking11panic_count17is_zero_slow_path17ha588394117c50e3dE
	movl	%eax, %r15d
	xorb	$1, %r15b
	leaq	32(%rbx), %r13
	movb	40(%rbx), %al
	testb	%al, %al
	je	LBB51_7
LBB51_4:
	movq	%r13, -56(%rbp)
	movb	%r15b, -48(%rbp)
Ltmp156:
	leaq	l___unnamed_7(%rip), %rdi
	leaq	l___unnamed_43(%rip), %rcx
	leaq	l___unnamed_54(%rip), %r8
	leaq	-56(%rbp), %rdx
	movl	$43, %esi
	callq	__ZN4core6result13unwrap_failed17hc193898ef513e81fE
Ltmp157:
	ud2
LBB51_12:
	callq	__ZN3std9panicking11panic_count17is_zero_slow_path17ha588394117c50e3dE
	testb	%al, %al
	jne	LBB51_14
	movb	$1, 40(%rbx)
	jmp	LBB51_14
LBB51_6:
Ltmp158:
	movq	%rax, %rbx
	leaq	-56(%rbp), %rdi
	callq	__ZN4core3ptr13drop_in_place17h3b24802de2318f9fE
	jmp	LBB51_16
LBB51_15:
Ltmp165:
	movq	%rax, %rbx
	leaq	-72(%rbp), %rdi
	callq	__ZN4core3ptr13drop_in_place17h71188d518bbee787E
LBB51_16:
	movq	%rbx, %rdi
	callq	__Unwind_Resume
	ud2
Lfunc_end15:
	.cfi_endproc
	.section	__TEXT,__gcc_except_tab
	.p2align	2
GCC_except_table51:
Lexception15:
	.byte	255
	.byte	255
	.byte	1
	.uleb128 Lcst_end15-Lcst_begin15
Lcst_begin15:
	.uleb128 Ltmp159-Lfunc_begin15
	.uleb128 Ltmp164-Ltmp159
	.uleb128 Ltmp165-Lfunc_begin15
	.byte	0
	.uleb128 Ltmp164-Lfunc_begin15
	.uleb128 Ltmp156-Ltmp164
	.byte	0
	.byte	0
	.uleb128 Ltmp156-Lfunc_begin15
	.uleb128 Ltmp157-Ltmp156
	.uleb128 Ltmp158-Lfunc_begin15
	.byte	0
	.uleb128 Ltmp157-Lfunc_begin15
	.uleb128 Lfunc_end15-Ltmp157
	.byte	0
	.byte	0
Lcst_end15:
	.p2align	2

	.section	__TEXT,__text,regular,pure_instructions
	.globl	__ZN15crossbeam_utils6thread5Scope7builder17hdfc047cde7b56e09E
	.p2align	4, 0x90
__ZN15crossbeam_utils6thread5Scope7builder17hdfc047cde7b56e09E:
	.cfi_startproc
	pushq	%rbp
	.cfi_def_cfa_offset 16
	.cfi_offset %rbp, -16
	movq	%rsp, %rbp
	.cfi_def_cfa_register %rbp
	pushq	%r14
	pushq	%rbx
	subq	$48, %rsp
	.cfi_offset %rbx, -32
	.cfi_offset %r14, -24
	movq	%rsi, %r14
	movq	%rdi, %rbx
	leaq	-56(%rbp), %rdi
	callq	__ZN3std6thread7Builder3new17hdf465f36ecb1e0a5E
	movq	%r14, (%rbx)
	movq	-56(%rbp), %rax
	movq	-48(%rbp), %rcx
	movq	%rax, 8(%rbx)
	movq	%rcx, 16(%rbx)
	movq	-40(%rbp), %rax
	movq	%rax, 24(%rbx)
	movq	-32(%rbp), %rax
	movq	%rax, 32(%rbx)
	movq	-24(%rbp), %rax
	movq	%rax, 40(%rbx)
	movq	%rbx, %rax
	addq	$48, %rsp
	popq	%rbx
	popq	%r14
	popq	%rbp
	retq
	.cfi_endproc

	.globl	__ZN67_$LT$crossbeam_utils..thread..Scope$u20$as$u20$core..fmt..Debug$GT$3fmt17h86ec1c5346fa8404E
	.p2align	4, 0x90
__ZN67_$LT$crossbeam_utils..thread..Scope$u20$as$u20$core..fmt..Debug$GT$3fmt17h86ec1c5346fa8404E:
	.cfi_startproc
	pushq	%rbp
	.cfi_def_cfa_offset 16
	.cfi_offset %rbp, -16
	movq	%rsp, %rbp
	.cfi_def_cfa_register %rbp
	movq	%rsi, %rdi
	leaq	l___unnamed_14(%rip), %rsi
	movl	$12, %edx
	popq	%rbp
	jmp	__ZN4core3fmt9Formatter3pad17h426409b23b74b394E
	.cfi_endproc

	.globl	__ZN15crossbeam_utils6thread19ScopedThreadBuilder4name17h8dd6a5a4a581bc3fE
	.p2align	4, 0x90
__ZN15crossbeam_utils6thread19ScopedThreadBuilder4name17h8dd6a5a4a581bc3fE:
	.cfi_startproc
	pushq	%rbp
	.cfi_def_cfa_offset 16
	.cfi_offset %rbp, -16
	movq	%rsp, %rbp
	.cfi_def_cfa_register %rbp
	pushq	%r14
	pushq	%rbx
	subq	$112, %rsp
	.cfi_offset %rbx, -32
	.cfi_offset %r14, -24
	movq	%rsi, %rbx
	movq	%rdi, %r14
	movq	40(%rsi), %rax
	movq	%rax, -88(%rbp)
	movq	32(%rsi), %rax
	movq	%rax, -96(%rbp)
	movq	24(%rsi), %rax
	movq	%rax, -104(%rbp)
	movq	8(%rsi), %rax
	movq	16(%rsi), %rcx
	movq	%rcx, -112(%rbp)
	movq	%rax, -120(%rbp)
	movq	16(%rdx), %rax
	movq	%rax, -24(%rbp)
	movq	(%rdx), %rax
	movq	8(%rdx), %rcx
	movq	%rcx, -32(%rbp)
	movq	%rax, -40(%rbp)
	leaq	-80(%rbp), %rdi
	leaq	-120(%rbp), %rsi
	leaq	-40(%rbp), %rdx
	callq	__ZN3std6thread7Builder4name17h683df385e8340477E
	movq	-48(%rbp), %rax
	movq	%rax, 40(%rbx)
	movq	-56(%rbp), %rax
	movq	%rax, 32(%rbx)
	movq	-64(%rbp), %rax
	movq	%rax, 24(%rbx)
	movq	-80(%rbp), %rax
	movq	-72(%rbp), %rcx
	movq	%rcx, 16(%rbx)
	movq	%rax, 8(%rbx)
	movq	40(%rbx), %rax
	movq	%rax, 40(%r14)
	movq	32(%rbx), %rax
	movq	%rax, 32(%r14)
	movq	24(%rbx), %rax
	movq	%rax, 24(%r14)
	movq	16(%rbx), %rax
	movq	%rax, 16(%r14)
	movq	(%rbx), %rax
	movq	8(%rbx), %rcx
	movq	%rcx, 8(%r14)
	movq	%rax, (%r14)
	movq	%r14, %rax
	addq	$112, %rsp
	popq	%rbx
	popq	%r14
	popq	%rbp
	retq
	.cfi_endproc

	.globl	__ZN15crossbeam_utils6thread19ScopedThreadBuilder10stack_size17h46682f784290420dE
	.p2align	4, 0x90
__ZN15crossbeam_utils6thread19ScopedThreadBuilder10stack_size17h46682f784290420dE:
	.cfi_startproc
	pushq	%rbp
	.cfi_def_cfa_offset 16
	.cfi_offset %rbp, -16
	movq	%rsp, %rbp
	.cfi_def_cfa_register %rbp
	pushq	%r14
	pushq	%rbx
	subq	$80, %rsp
	.cfi_offset %rbx, -32
	.cfi_offset %r14, -24
	movq	%rsi, %rbx
	movq	%rdi, %r14
	movq	40(%rsi), %rax
	movq	%rax, -64(%rbp)
	movq	32(%rsi), %rax
	movq	%rax, -72(%rbp)
	movq	24(%rsi), %rax
	movq	%rax, -80(%rbp)
	movq	8(%rsi), %rax
	movq	16(%rsi), %rcx
	movq	%rcx, -88(%rbp)
	movq	%rax, -96(%rbp)
	leaq	-56(%rbp), %rdi
	leaq	-96(%rbp), %rsi
	callq	__ZN3std6thread7Builder10stack_size17ha7991e8fe8c53c7fE
	movq	-24(%rbp), %rax
	movq	%rax, 40(%rbx)
	movq	-32(%rbp), %rax
	movq	%rax, 32(%rbx)
	movq	-40(%rbp), %rax
	movq	%rax, 24(%rbx)
	movq	-56(%rbp), %rax
	movq	-48(%rbp), %rcx
	movq	%rcx, 16(%rbx)
	movq	%rax, 8(%rbx)
	movq	40(%rbx), %rax
	movq	%rax, 40(%r14)
	movq	32(%rbx), %rax
	movq	%rax, 32(%r14)
	movq	24(%rbx), %rax
	movq	%rax, 24(%r14)
	movq	16(%rbx), %rax
	movq	%rax, 16(%r14)
	movq	(%rbx), %rax
	movq	8(%rbx), %rcx
	movq	%rcx, 8(%r14)
	movq	%rax, (%r14)
	movq	%r14, %rax
	addq	$80, %rsp
	popq	%rbx
	popq	%r14
	popq	%rbp
	retq
	.cfi_endproc

	.globl	__ZN95_$LT$crossbeam_utils..sync..sharded_lock..THREAD_INDICES$u20$as$u20$core..ops..deref..Deref$GT$5deref17hd2c9e58678d45110E
	.p2align	4, 0x90
__ZN95_$LT$crossbeam_utils..sync..sharded_lock..THREAD_INDICES$u20$as$u20$core..ops..deref..Deref$GT$5deref17hd2c9e58678d45110E:
	.cfi_startproc
	pushq	%rbp
	.cfi_def_cfa_offset 16
	.cfi_offset %rbp, -16
	movq	%rsp, %rbp
	.cfi_def_cfa_register %rbp
	subq	$32, %rsp
	leaq	__ZN95_$LT$crossbeam_utils..sync..sharded_lock..THREAD_INDICES$u20$as$u20$core..ops..deref..Deref$GT$5deref11__stability4LAZY17h015e97a6fb05ea77E(%rip), %rax
	movq	%rax, -8(%rbp)
	movq	__ZN95_$LT$crossbeam_utils..sync..sharded_lock..THREAD_INDICES$u20$as$u20$core..ops..deref..Deref$GT$5deref11__stability4LAZY17h015e97a6fb05ea77E+104(%rip), %rax
	cmpq	$3, %rax
	jne	LBB56_1
	movq	-8(%rbp), %rax
	addq	$32, %rsp
	popq	%rbp
	retq
LBB56_1:
	leaq	-8(%rbp), %rax
	movq	%rax, -16(%rbp)
	leaq	-16(%rbp), %rax
	movq	%rax, -24(%rbp)
	leaq	__ZN95_$LT$crossbeam_utils..sync..sharded_lock..THREAD_INDICES$u20$as$u20$core..ops..deref..Deref$GT$5deref11__stability4LAZY17h015e97a6fb05ea77E+104(%rip), %rdi
	leaq	l___unnamed_6(%rip), %rcx
	leaq	-24(%rbp), %rdx
	xorl	%esi, %esi
	callq	__ZN3std4sync4once4Once10call_inner17hfcd38045e50af9d3E
	movq	-8(%rbp), %rax
	addq	$32, %rsp
	popq	%rbp
	retq
	.cfi_endproc

	.globl	__ZN95_$LT$crossbeam_utils..sync..sharded_lock..THREAD_INDICES$u20$as$u20$lazy_static..LazyStatic$GT$10initialize17he5439ca88c3296ddE
	.p2align	4, 0x90
__ZN95_$LT$crossbeam_utils..sync..sharded_lock..THREAD_INDICES$u20$as$u20$lazy_static..LazyStatic$GT$10initialize17he5439ca88c3296ddE:
	.cfi_startproc
	pushq	%rbp
	.cfi_def_cfa_offset 16
	.cfi_offset %rbp, -16
	movq	%rsp, %rbp
	.cfi_def_cfa_register %rbp
	subq	$32, %rsp
	leaq	__ZN95_$LT$crossbeam_utils..sync..sharded_lock..THREAD_INDICES$u20$as$u20$core..ops..deref..Deref$GT$5deref11__stability4LAZY17h015e97a6fb05ea77E(%rip), %rax
	movq	%rax, -8(%rbp)
	movq	__ZN95_$LT$crossbeam_utils..sync..sharded_lock..THREAD_INDICES$u20$as$u20$core..ops..deref..Deref$GT$5deref11__stability4LAZY17h015e97a6fb05ea77E+104(%rip), %rax
	cmpq	$3, %rax
	jne	LBB57_1
	addq	$32, %rsp
	popq	%rbp
	retq
LBB57_1:
	leaq	-8(%rbp), %rax
	movq	%rax, -16(%rbp)
	leaq	-16(%rbp), %rax
	movq	%rax, -24(%rbp)
	leaq	__ZN95_$LT$crossbeam_utils..sync..sharded_lock..THREAD_INDICES$u20$as$u20$core..ops..deref..Deref$GT$5deref11__stability4LAZY17h015e97a6fb05ea77E+104(%rip), %rdi
	leaq	l___unnamed_6(%rip), %rcx
	leaq	-24(%rbp), %rdx
	xorl	%esi, %esi
	callq	__ZN3std4sync4once4Once10call_inner17hfcd38045e50af9d3E
	addq	$32, %rsp
	popq	%rbp
	retq
	.cfi_endproc

	.globl	__ZN15crossbeam_utils4sync12sharded_lock12REGISTRATION7__getit17heff7e668ee86bd0cE
	.p2align	4, 0x90
__ZN15crossbeam_utils4sync12sharded_lock12REGISTRATION7__getit17heff7e668ee86bd0cE:
	.cfi_startproc
	pushq	%rbp
	.cfi_def_cfa_offset 16
	.cfi_offset %rbp, -16
	movq	%rsp, %rbp
	.cfi_def_cfa_register %rbp
	movq	__ZN15crossbeam_utils4sync12sharded_lock12REGISTRATION7__getit5__KEY17h9e6652583615d7e6E@TLVP(%rip), %rdi
	callq	*(%rdi)
	cmpq	$0, 8(%rax)
	je	LBB58_2
	movq	__ZN15crossbeam_utils4sync12sharded_lock12REGISTRATION7__getit5__KEY17h9e6652583615d7e6E@TLVP(%rip), %rdi
	callq	*(%rdi)
	popq	%rbp
	retq
LBB58_2:
	popq	%rbp
	jmp	__ZN3std6thread5local4fast12Key$LT$T$GT$14try_initialize17h1faae0f705c3c925E
	.cfi_endproc

	.globl	__ZN81_$LT$crossbeam_utils..thread..ScopedThreadBuilder$u20$as$u20$core..fmt..Debug$GT$3fmt17h18a62c5f0c7bee56E
	.p2align	4, 0x90
__ZN81_$LT$crossbeam_utils..thread..ScopedThreadBuilder$u20$as$u20$core..fmt..Debug$GT$3fmt17h18a62c5f0c7bee56E:
	.cfi_startproc
	pushq	%rbp
	.cfi_def_cfa_offset 16
	.cfi_offset %rbp, -16
	movq	%rsp, %rbp
	.cfi_def_cfa_register %rbp
	pushq	%r14
	pushq	%rbx
	subq	$32, %rsp
	.cfi_offset %rbx, -32
	.cfi_offset %r14, -24
	movq	%rdi, %rbx
	leaq	l___unnamed_55(%rip), %rdx
	leaq	-40(%rbp), %r14
	movl	$19, %ecx
	movq	%r14, %rdi
	callq	__ZN4core3fmt9Formatter12debug_struct17ha1a64e91d2a98458E
	movq	%rbx, -24(%rbp)
	addq	$8, %rbx
	leaq	l___unnamed_56(%rip), %rsi
	leaq	l___unnamed_57(%rip), %r8
	leaq	-24(%rbp), %rcx
	movl	$5, %edx
	movq	%r14, %rdi
	callq	__ZN4core3fmt8builders11DebugStruct5field17h6c54d35ac41bb1e6E
	movq	%rbx, -24(%rbp)
	leaq	l___unnamed_58(%rip), %rsi
	leaq	l___unnamed_59(%rip), %r8
	leaq	-24(%rbp), %rcx
	movl	$7, %edx
	movq	%r14, %rdi
	callq	__ZN4core3fmt8builders11DebugStruct5field17h6c54d35ac41bb1e6E
	movq	%r14, %rdi
	callq	__ZN4core3fmt8builders11DebugStruct6finish17h67ed49fd5e81bb24E
	addq	$32, %rsp
	popq	%rbx
	popq	%r14
	popq	%rbp
	retq
	.cfi_endproc

	.section	__DATA,__const
	.p2align	3
l___unnamed_6:
	.quad	__ZN4core3ptr13drop_in_place17h11761a665dca6456E
	.quad	8
	.quad	8
	.quad	__ZN3std4sync4once4Once9call_once28_$u7b$$u7b$closure$u7d$$u7d$17h39f4bb1d23853ae8E
	.quad	__ZN4core3ops8function6FnOnce40call_once$u7b$$u7b$vtable.shim$u7d$$u7d$17h897184b14bf23b27E

	.section	__TEXT,__const
l___unnamed_60:
	.ascii	"/rustc/6c8927b0cf80ceee19386026cf9d7fd4fd9d486f/src/libstd/sync/once.rs"

	.section	__DATA,__const
	.p2align	3
l___unnamed_2:
	.quad	l___unnamed_60
	.asciz	"G\000\000\000\000\000\000\000\t\001\000\0002\000\000"

	.section	__TEXT,__const
l___unnamed_3:
	.ascii	"cannot access a Thread Local Storage value during or after destruction"

l___unnamed_61:
	.ascii	"/rustc/6c8927b0cf80ceee19386026cf9d7fd4fd9d486f/src/libstd/thread/local.rs"

	.section	__DATA,__const
	.p2align	3
l___unnamed_5:
	.quad	l___unnamed_61
	.asciz	"J\000\000\000\000\000\000\000\357\000\000\000\032\000\000"

	.p2align	3
l___unnamed_13:
	.quad	__ZN4core3ptr13drop_in_place17h11761a665dca6456E
	.quad	16
	.quad	8
	.quad	__ZN91_$LT$std..panicking..begin_panic..PanicPayload$LT$A$GT$$u20$as$u20$core..panic..BoxMeUp$GT$8take_box17h26ab211bb0fbabefE
	.quad	__ZN91_$LT$std..panicking..begin_panic..PanicPayload$LT$A$GT$$u20$as$u20$core..panic..BoxMeUp$GT$3get17h6643b7f38f11a83cE

	.section	__TEXT,__const
l___unnamed_1:
	.ascii	"called `Option::unwrap()` on a `None` value"

	.section	__DATA,__const
	.p2align	3
l___unnamed_4:
	.quad	__ZN4core3ptr13drop_in_place17h11761a665dca6456E
	.quad	0
	.quad	1
	.quad	__ZN68_$LT$std..thread..local..AccessError$u20$as$u20$core..fmt..Debug$GT$3fmt17h8c4e39f2d8a29d30E

	.section	__TEXT,__const
l___unnamed_7:
	.ascii	"called `Result::unwrap()` on an `Err` value"

	.section	__DATA,__const
	.p2align	3
l___unnamed_8:
	.quad	__ZN4core3ptr13drop_in_place17h3b24802de2318f9fE
	.quad	16
	.quad	8
	.quad	__ZN82_$LT$std..sys_common..poison..PoisonError$LT$T$GT$$u20$as$u20$core..fmt..Debug$GT$3fmt17h16104f9e9ba7212dE

	.p2align	3
l___unnamed_38:
	.quad	__ZN4core3ptr13drop_in_place17h3b24802de2318f9fE
	.quad	24
	.quad	8
	.quad	__ZN82_$LT$std..sys_common..poison..PoisonError$LT$T$GT$$u20$as$u20$core..fmt..Debug$GT$3fmt17h774e0ccbd4f1050cE

	.p2align	3
l___unnamed_26:
	.quad	__ZN4core3ptr13drop_in_place17h3b24802de2318f9fE
	.quad	16
	.quad	8
	.quad	__ZN82_$LT$std..sys_common..poison..PoisonError$LT$T$GT$$u20$as$u20$core..fmt..Debug$GT$3fmt17h16104f9e9ba7212dE

	.p2align	3
l___unnamed_43:
	.quad	__ZN4core3ptr13drop_in_place17h3b24802de2318f9fE
	.quad	16
	.quad	8
	.quad	__ZN82_$LT$std..sys_common..poison..PoisonError$LT$T$GT$$u20$as$u20$core..fmt..Debug$GT$3fmt17h16104f9e9ba7212dE

	.section	__TEXT,__literal4,4byte_literals
L___unnamed_15:
	.ascii	"Cell"

	.section	__TEXT,__const
l___unnamed_16:
	.ascii	"value"

	.section	__DATA,__const
	.p2align	3
l___unnamed_17:
	.quad	__ZN4core3ptr13drop_in_place17h11761a665dca6456E
	.quad	4
	.quad	4
	.quad	__ZN4core3fmt3num50_$LT$impl$u20$core..fmt..Debug$u20$for$u20$u32$GT$3fmt17h1ea6d626882ea7ffE

	.section	__TEXT,__const
l___unnamed_18:
	.ascii	"PoisonError { inner: .. }"

	.section	__DATA,__const
	.p2align	3
l___unnamed_19:
	.quad	__ZN4core3ptr13drop_in_place17h11761a665dca6456E
	.quad	16
	.quad	8
	.quad	__ZN36_$LT$T$u20$as$u20$core..any..Any$GT$7type_id17hbfce1be93710c094E

	.globl	__ZN15crossbeam_utils6atomic11atomic_cell4lock5LOCKS17h8bdd99f26b094015E
.zerofill __DATA,__common,__ZN15crossbeam_utils6atomic11atomic_cell4lock5LOCKS17h8bdd99f26b094015E,776,3
	.section	__TEXT,__const
l___unnamed_20:
	.ascii	"Backoff"

	.section	__TEXT,__literal4,4byte_literals
L___unnamed_21:
	.ascii	"step"

	.section	__DATA,__const
	.p2align	3
l___unnamed_22:
	.quad	__ZN4core3ptr13drop_in_place17h11761a665dca6456E
	.quad	4
	.quad	4
	.quad	__ZN62_$LT$core..cell..Cell$LT$T$GT$$u20$as$u20$core..fmt..Debug$GT$3fmt17h8c0e58160ade50e1E

	.section	__TEXT,__const
l___unnamed_23:
	.ascii	"is_completed"

	.section	__DATA,__const
	.p2align	3
l___unnamed_24:
	.quad	__ZN4core3ptr13drop_in_place17h11761a665dca6456E
	.quad	1
	.quad	1
	.quad	__ZN41_$LT$bool$u20$as$u20$core..fmt..Debug$GT$3fmt17hdefd5ae208442b96E

	.section	__TEXT,__const
l___unnamed_25:
	.ascii	"Parker { .. }"

l___unnamed_28:
	.ascii	"Unparker { .. }"

l___unnamed_62:
	.ascii	"/Users/yingyuhang/.cargo/registry/src/github.com-1ecc6299db9ec823/crossbeam-utils-0.7.2/src/sync/parker.rs"

	.section	__DATA,__const
	.p2align	3
l___unnamed_34:
	.quad	l___unnamed_62
	.asciz	"j\000\000\000\000\000\000\000\367\000\000\000&\000\000"

	.section	__TEXT,__const
l___unnamed_63:
	.ascii	"inconsistent park_timeout state: "

	.section	__DATA,__const
	.p2align	3
l___unnamed_36:
	.quad	l___unnamed_63
	.asciz	"!\000\000\000\000\000\000"

	.p2align	3
l___unnamed_37:
	.quad	l___unnamed_62
	.asciz	"j\000\000\000\000\000\000\000\006\001\000\000\027\000\000"

	.section	__TEXT,__literal8,8byte_literals
	.p2align	3
L___unnamed_29:
	.asciz	"\002\000\000\000\000\000\000"

	.section	__TEXT,__const
l___unnamed_64:
	.ascii	"assertion failed: `(left == right)`\n  left: `"

l___unnamed_65:
	.ascii	"`,\n right: `"

l___unnamed_66:
	.ascii	"`: "

	.section	__DATA,__const
	.p2align	3
l___unnamed_32:
	.quad	l___unnamed_64
	.asciz	"-\000\000\000\000\000\000"
	.quad	l___unnamed_65
	.asciz	"\f\000\000\000\000\000\000"
	.quad	l___unnamed_66
	.asciz	"\003\000\000\000\000\000\000"

	.section	__TEXT,__const
l___unnamed_67:
	.ascii	"park state changed unexpectedly"

	.section	__DATA,__const
	.p2align	3
l___unnamed_30:
	.quad	l___unnamed_67
	.asciz	"\037\000\000\000\000\000\000"

	.section	__TEXT,__const
	.p2align	3
l___unnamed_31:
	.byte	0

	.section	__DATA,__const
	.p2align	3
l___unnamed_33:
	.quad	l___unnamed_62
	.asciz	"j\000\000\000\000\000\000\000\003\001\000\000\021\000\000"

	.p2align	3
l___unnamed_39:
	.quad	l___unnamed_62
	.asciz	"j\000\000\000\000\000\000\000\031\001\000\000H\000\000"

	.p2align	3
l___unnamed_40:
	.quad	l___unnamed_62
	.asciz	"j\000\000\000\000\000\000\000\036\001\000\000\032\000\000"

	.p2align	3
l___unnamed_35:
	.quad	l___unnamed_62
	.asciz	"j\000\000\000\000\000\000\000\r\001\000\000+\000\000"

	.section	__TEXT,__const
l___unnamed_11:
	.ascii	"inconsistent state in unpark"

	.section	__DATA,__const
	.p2align	3
l___unnamed_12:
	.quad	l___unnamed_62
	.asciz	"j\000\000\000\000\000\000\000-\001\000\000\022\000\000"

	.p2align	3
l___unnamed_27:
	.quad	l___unnamed_62
	.asciz	"j\000\000\000\000\000\000\0008\001\000\000\037\000\000"

	.section	__TEXT,__literal8,8byte_literals
L___unnamed_41:
	.ascii	"<locked>"

	.section	__TEXT,__const
l___unnamed_68:
	.ascii	"/Users/yingyuhang/.cargo/registry/src/github.com-1ecc6299db9ec823/crossbeam-utils-0.7.2/src/sync/sharded_lock.rs"

	.section	__DATA,__const
	.p2align	3
l___unnamed_42:
	.quad	l___unnamed_68
	.asciz	"p\000\000\000\000\000\000\000F\002\000\0001\000\000"

	.section	__TEXT,__const
l___unnamed_69:
	.ascii	"/Users/yingyuhang/.cargo/registry/src/github.com-1ecc6299db9ec823/crossbeam-utils-0.7.2/src/sync/wait_group.rs"

	.section	__DATA,__const
	.p2align	3
l___unnamed_44:
	.quad	l___unnamed_69
	.asciz	"n\000\000\000\000\000\000\000`\000\000\000%\000\000"

	.p2align	3
l___unnamed_46:
	.quad	l___unnamed_69
	.asciz	"n\000\000\000\000\000\000\000g\000\000\000,\000\000"

	.p2align	3
l___unnamed_45:
	.quad	l___unnamed_69
	.asciz	"n\000\000\000\000\000\000\000i\000\000\000,\000\000"

	.p2align	3
l___unnamed_47:
	.quad	l___unnamed_69
	.asciz	"n\000\000\000\000\000\000\000p\000\000\0001\000\000"

	.p2align	3
l___unnamed_48:
	.quad	l___unnamed_69
	.asciz	"n\000\000\000\000\000\000\000q\000\000\000\t\000\000"

	.section	__TEXT,__const
	.p2align	4
_str.1:
	.ascii	"attempt to subtract with overflow"

	.section	__DATA,__const
	.p2align	3
l___unnamed_49:
	.quad	l___unnamed_69
	.asciz	"n\000\000\000\000\000\000\000{\000\000\0001\000\000"

	.p2align	3
l___unnamed_50:
	.quad	l___unnamed_69
	.asciz	"n\000\000\000\000\000\000\000|\000\000\000\t\000\000"

	.section	__TEXT,__const
	.p2align	4
_str.2:
	.ascii	"attempt to add with overflow"

	.section	__DATA,__const
	.p2align	3
l___unnamed_54:
	.quad	l___unnamed_69
	.asciz	"n\000\000\000\000\000\000\000\206\000\000\0007\000\000"

	.section	__TEXT,__const
l___unnamed_51:
	.ascii	"WaitGroup"

l___unnamed_52:
	.ascii	"count"

	.section	__DATA,__const
	.p2align	3
l___unnamed_53:
	.quad	__ZN4core3ptr13drop_in_place17h11761a665dca6456E
	.quad	8
	.quad	8
	.quad	__ZN4core3fmt3num52_$LT$impl$u20$core..fmt..Debug$u20$for$u20$usize$GT$3fmt17h3ce1e8eb3a3c5c0bE

	.section	__TEXT,__const
l___unnamed_14:
	.ascii	"Scope { .. }"

.zerofill __DATA,__bss,__ZN95_$LT$crossbeam_utils..sync..sharded_lock..THREAD_INDICES$u20$as$u20$core..ops..deref..Deref$GT$5deref11__stability4LAZY17h015e97a6fb05ea77E,112,3
	.section	__DATA,__const
	.p2align	3
l___unnamed_9:
	.quad	l___unnamed_68
	.asciz	"p\000\000\000\000\000\000\000O\002\000\0001\000\000"

	.p2align	3
l___unnamed_10:
	.quad	l___unnamed_68
	.asciz	"p\000\000\000\000\000\000\000U\002\000\000\021\000\000"

	.section	__DATA,__thread_bss,thread_local_zerofill
	.p2align	3
__ZN15crossbeam_utils4sync12sharded_lock12REGISTRATION7__getit5__KEY17h9e6652583615d7e6E$tlv$init:
	.space	24

	.section	__DATA,__thread_vars,thread_local_variables
__ZN15crossbeam_utils4sync12sharded_lock12REGISTRATION7__getit5__KEY17h9e6652583615d7e6E:
	.quad	__tlv_bootstrap
	.quad	0
	.quad	__ZN15crossbeam_utils4sync12sharded_lock12REGISTRATION7__getit5__KEY17h9e6652583615d7e6E$tlv$init

	.section	__TEXT,__const
l___unnamed_55:
	.ascii	"ScopedThreadBuilder"

l___unnamed_56:
	.ascii	"scope"

	.section	__DATA,__const
	.p2align	3
l___unnamed_57:
	.quad	__ZN4core3ptr13drop_in_place17h11761a665dca6456E
	.quad	8
	.quad	8
	.quad	__ZN42_$LT$$RF$T$u20$as$u20$core..fmt..Debug$GT$3fmt17h94bc54c484365190E

	.section	__TEXT,__const
l___unnamed_58:
	.ascii	"builder"

	.section	__DATA,__const
	.p2align	3
l___unnamed_59:
	.quad	__ZN4core3ptr13drop_in_place17h11761a665dca6456E
	.quad	8
	.quad	8
	.quad	__ZN42_$LT$$RF$T$u20$as$u20$core..fmt..Debug$GT$3fmt17h058a2d164693e299E

.subsections_via_symbols
