	.section	__TEXT,__text,regular,pure_instructions
	.macosx_version_min 10, 7
	.p2align	4, 0x90
__ZN3std5error5Error5cause17h8f8104de4953dc93E:
	.cfi_startproc
	pushq	%rbp
	.cfi_def_cfa_offset 16
	.cfi_offset %rbp, -16
	movq	%rsp, %rbp
	.cfi_def_cfa_register %rbp
	xorl	%eax, %eax
	popq	%rbp
	retq
	.cfi_endproc

	.p2align	4, 0x90
__ZN3std5error5Error7type_id17he4606f872c8dce0aE:
	.cfi_startproc
	pushq	%rbp
	.cfi_def_cfa_offset 16
	.cfi_offset %rbp, -16
	movq	%rsp, %rbp
	.cfi_def_cfa_register %rbp
	movabsq	$-8191801158988309355, %rax
	popq	%rbp
	retq
	.cfi_endproc

	.p2align	4, 0x90
__ZN3std5error5Error9backtrace17h02722ae20c05486aE:
	.cfi_startproc
	pushq	%rbp
	.cfi_def_cfa_offset 16
	.cfi_offset %rbp, -16
	movq	%rsp, %rbp
	.cfi_def_cfa_register %rbp
	xorl	%eax, %eax
	popq	%rbp
	retq
	.cfi_endproc

	.p2align	4, 0x90
__ZN42_$LT$$RF$T$u20$as$u20$core..fmt..Debug$GT$3fmt17h4fe67738b1a8816aE:
	.cfi_startproc
	pushq	%rbp
	.cfi_def_cfa_offset 16
	.cfi_offset %rbp, -16
	movq	%rsp, %rbp
	.cfi_def_cfa_register %rbp
	movq	(%rdi), %rax
	movq	(%rax), %rdi
	popq	%rbp
	jmp	__ZN66_$LT$backtrace..capture..Backtrace$u20$as$u20$core..fmt..Debug$GT$3fmt17h24a1bc670fc40c6dE
	.cfi_endproc

	.p2align	4, 0x90
__ZN42_$LT$$RF$T$u20$as$u20$core..fmt..Debug$GT$3fmt17h5a6027cc1bbfa41dE:
	.cfi_startproc
	pushq	%rbp
	.cfi_def_cfa_offset 16
	.cfi_offset %rbp, -16
	movq	%rsp, %rbp
	.cfi_def_cfa_register %rbp
	movq	(%rdi), %rax
	movq	(%rax), %rdi
	movq	8(%rax), %rax
	movq	96(%rax), %rax
	popq	%rbp
	jmpq	*%rax
	.cfi_endproc

	.p2align	4, 0x90
__ZN42_$LT$$RF$T$u20$as$u20$core..fmt..Debug$GT$3fmt17hec7e9ab016908e45E:
	.cfi_startproc
	pushq	%rbp
	.cfi_def_cfa_offset 16
	.cfi_offset %rbp, -16
	movq	%rsp, %rbp
	.cfi_def_cfa_register %rbp
	pushq	%rbx
	pushq	%rax
	.cfi_offset %rbx, -24
	movq	%rsi, %rbx
	movq	(%rdi), %rdi
	callq	__ZN7failure9backtrace8internal17InternalBacktrace12as_backtrace17h8861d5305588f46cE
	testq	%rax, %rax
	je	LBB5_1
	movq	%rax, %rdi
	movq	%rbx, %rsi
	addq	$8, %rsp
	popq	%rbx
	popq	%rbp
	jmp	__ZN66_$LT$backtrace..capture..Backtrace$u20$as$u20$core..fmt..Debug$GT$3fmt17h24a1bc670fc40c6dE
LBB5_1:
	xorl	%eax, %eax
	addq	$8, %rsp
	popq	%rbx
	popq	%rbp
	retq
	.cfi_endproc

	.p2align	4, 0x90
__ZN42_$LT$$RF$T$u20$as$u20$core..fmt..Debug$GT$3fmt17hfe25da8ad2fbd625E:
	.cfi_startproc
	pushq	%rbp
	.cfi_def_cfa_offset 16
	.cfi_offset %rbp, -16
	movq	%rsp, %rbp
	.cfi_def_cfa_register %rbp
	subq	$112, %rsp
	movq	(%rdi), %rax
	movq	(%rax), %rdi
	movq	%rdi, -8(%rbp)
	cmpq	$0, (%rdi)
	je	LBB6_2
	movq	8(%rax), %rax
	movq	16(%rax), %rcx
	leaq	47(%rcx), %rdx
	negq	%rcx
	andq	%rcx, %rdx
	addq	%rdx, %rdi
	movq	%rdi, -32(%rbp)
	movq	%rax, -24(%rbp)
	leaq	-32(%rbp), %rax
	movq	%rax, -16(%rbp)
	leaq	-16(%rbp), %rax
	movq	%rax, -64(%rbp)
	leaq	__ZN42_$LT$$RF$T$u20$as$u20$core..fmt..Debug$GT$3fmt17h5a6027cc1bbfa41dE(%rip), %rax
	movq	%rax, -56(%rbp)
	leaq	-8(%rbp), %rax
	movq	%rax, -48(%rbp)
	leaq	__ZN42_$LT$$RF$T$u20$as$u20$core..fmt..Debug$GT$3fmt17hec7e9ab016908e45E(%rip), %rax
	movq	%rax, -40(%rbp)
	leaq	l___unnamed_1(%rip), %rax
	movq	%rax, -112(%rbp)
	movq	$2, -104(%rbp)
	movq	$0, -96(%rbp)
	leaq	-64(%rbp), %rax
	movq	%rax, -80(%rbp)
	movq	$2, -72(%rbp)
	leaq	-112(%rbp), %rax
	movq	%rsi, %rdi
	movq	%rax, %rsi
	callq	__ZN4core3fmt9Formatter9write_fmt17h3dc2bf45afed3069E
	addq	$112, %rsp
	popq	%rbp
	retq
LBB6_2:
	movq	8(%rax), %rax
	movq	16(%rax), %rcx
	leaq	47(%rcx), %rdx
	negq	%rcx
	andq	%rcx, %rdx
	addq	%rdx, %rdi
	callq	*96(%rax)
	addq	$112, %rsp
	popq	%rbp
	retq
	.cfi_endproc

	.p2align	4, 0x90
__ZN4core3ptr13drop_in_place17h2e39a301a50e5dedE:
	.cfi_startproc
	pushq	%rbp
	.cfi_def_cfa_offset 16
	.cfi_offset %rbp, -16
	movq	%rsp, %rbp
	.cfi_def_cfa_register %rbp
	pushq	%r14
	pushq	%rbx
	.cfi_offset %rbx, -32
	.cfi_offset %r14, -24
	movq	%rdi, %rbx
	cmpb	$0, 8(%rdi)
	jne	LBB7_3
	movq	(%rbx), %r14
	callq	__ZN3std9panicking9panicking17h6f800ddc6c0d9b77E
	testb	%al, %al
	je	LBB7_3
	movb	$1, 8(%r14)
LBB7_3:
	movq	(%rbx), %rax
	movq	(%rax), %rdi
	popq	%rbx
	popq	%r14
	popq	%rbp
	jmp	_pthread_mutex_unlock
	.cfi_endproc

	.p2align	4, 0x90
__ZN4core3ptr13drop_in_place17h2ec5236c83ce3225E:
	.cfi_startproc
	pushq	%rbp
	.cfi_def_cfa_offset 16
	.cfi_offset %rbp, -16
	movq	%rsp, %rbp
	.cfi_def_cfa_register %rbp
	popq	%rbp
	retq
	.cfi_endproc

	.p2align	4, 0x90
__ZN4core3ptr13drop_in_place17h3edbff2bcc77f930E:
	.cfi_startproc
	pushq	%rbp
	.cfi_def_cfa_offset 16
	.cfi_offset %rbp, -16
	movq	%rsp, %rbp
	.cfi_def_cfa_register %rbp
	pushq	%r14
	pushq	%rbx
	.cfi_offset %rbx, -32
	.cfi_offset %r14, -24
	movq	%rdi, %rbx
	cmpb	$0, 8(%rdi)
	jne	LBB9_3
	movq	(%rbx), %r14
	callq	__ZN3std9panicking9panicking17h6f800ddc6c0d9b77E
	testb	%al, %al
	je	LBB9_3
	movb	$1, 8(%r14)
LBB9_3:
	movq	(%rbx), %rax
	movq	(%rax), %rdi
	popq	%rbx
	popq	%r14
	popq	%rbp
	jmp	_pthread_mutex_unlock
	.cfi_endproc

	.p2align	4, 0x90
__ZN4core3ptr13drop_in_place17h498f1dfed4104b69E:
	.cfi_startproc
	pushq	%rbp
	.cfi_def_cfa_offset 16
	.cfi_offset %rbp, -16
	movq	%rsp, %rbp
	.cfi_def_cfa_register %rbp
	pushq	%rbx
	pushq	%rax
	.cfi_offset %rbx, -24
	movq	%rdi, %rbx
	movq	(%rdi), %rdi
	callq	_pthread_mutex_destroy
	movq	(%rbx), %rdi
	movl	$64, %esi
	movl	$8, %edx
	addq	$8, %rsp
	popq	%rbx
	popq	%rbp
	jmp	___rust_dealloc
	.cfi_endproc

	.p2align	4, 0x90
__ZN4core3ptr13drop_in_place17h5b09593098444049E:
Lfunc_begin0:
	.cfi_startproc
	.cfi_personality 155, _rust_eh_personality
	.cfi_lsda 16, Lexception0
	pushq	%rbp
	.cfi_def_cfa_offset 16
	.cfi_offset %rbp, -16
	movq	%rsp, %rbp
	.cfi_def_cfa_register %rbp
	pushq	%r15
	pushq	%r14
	pushq	%r13
	pushq	%r12
	pushq	%rbx
	subq	$24, %rsp
	.cfi_offset %rbx, -56
	.cfi_offset %r12, -48
	.cfi_offset %r13, -40
	.cfi_offset %r14, -32
	.cfi_offset %r15, -24
	movq	%rdi, %r12
	movq	(%rdi), %rbx
	movq	8(%rdi), %r15
	movq	(%rbx), %rdi
	testq	%rdi, %rdi
	je	LBB11_24
	callq	_pthread_mutex_destroy
	movq	(%rbx), %rdi
	movl	$64, %esi
	movl	$8, %edx
	callq	___rust_dealloc
	movq	16(%rbx), %r14
	movq	32(%rbx), %r13
	testq	%r13, %r13
	je	LBB11_20
	movq	%rbx, -48(%rbp)
	movq	%r15, -56(%rbp)
	movq	%r12, -64(%rbp)
	shlq	$6, %r13
	addq	%r14, %r13
	jmp	LBB11_3
	.p2align	4, 0x90
LBB11_18:
	cmpq	%r13, %r14
	je	LBB11_19
LBB11_3:
	movq	%r14, %r12
	addq	$64, %r14
	movq	40(%r12), %rbx
	testq	%rbx, %rbx
	je	LBB11_18
	movq	56(%r12), %rax
	testq	%rax, %rax
	je	LBB11_14
	leaq	(%rax,%rax,8), %rax
	leaq	(%rbx,%rax,8), %r15
	movq	(%rbx), %rdi
	testq	%rdi, %rdi
	jne	LBB11_7
	jmp	LBB11_9
	.p2align	4, 0x90
LBB11_12:
	addq	$72, %rbx
	cmpq	%r15, %rbx
	je	LBB11_13
	movq	(%rbx), %rdi
	testq	%rdi, %rdi
	je	LBB11_9
LBB11_7:
	movq	8(%rbx), %rsi
	testq	%rsi, %rsi
	je	LBB11_9
	movl	$1, %edx
	callq	___rust_dealloc
LBB11_9:
	movq	40(%rbx), %rdi
	testq	%rdi, %rdi
	je	LBB11_12
	movq	48(%rbx), %rsi
	testq	%rsi, %rsi
	je	LBB11_12
	movl	$1, %edx
	callq	___rust_dealloc
	jmp	LBB11_12
	.p2align	4, 0x90
LBB11_13:
	movq	40(%r12), %rbx
LBB11_14:
	movq	48(%r12), %rax
	testq	%rax, %rax
	je	LBB11_18
	testq	%rbx, %rbx
	je	LBB11_18
	shlq	$3, %rax
	leaq	(%rax,%rax,8), %rsi
	testq	%rsi, %rsi
	je	LBB11_18
	movl	$8, %edx
	movq	%rbx, %rdi
	callq	___rust_dealloc
	jmp	LBB11_18
LBB11_19:
	movq	-48(%rbp), %rbx
	movq	16(%rbx), %r14
	movq	-64(%rbp), %r12
	movq	-56(%rbp), %r15
LBB11_20:
	movq	24(%rbx), %rsi
	testq	%rsi, %rsi
	je	LBB11_24
	testq	%r14, %r14
	je	LBB11_24
	shlq	$6, %rsi
	je	LBB11_24
	movl	$8, %edx
	movq	%r14, %rdi
	callq	___rust_dealloc
LBB11_24:
	movq	16(%r15), %rax
	leaq	47(%rax), %rcx
	negq	%rax
	andq	%rax, %rcx
	addq	%rcx, %rbx
Ltmp0:
	movq	%rbx, %rdi
	callq	*(%r15)
Ltmp1:
	movq	8(%r12), %rax
	movq	8(%rax), %rcx
	movq	16(%rax), %rax
	cmpq	$8, %rax
	movl	$8, %edx
	cmovaq	%rax, %rdx
	leaq	(%rcx,%rdx), %rax
	addq	$47, %rax
	movq	%rdx, %rsi
	negq	%rsi
	andq	%rax, %rsi
	je	LBB11_28
	movq	(%r12), %rdi
	addq	$24, %rsp
	popq	%rbx
	popq	%r12
	popq	%r13
	popq	%r14
	popq	%r15
	popq	%rbp
	jmp	___rust_dealloc
LBB11_28:
	addq	$24, %rsp
	popq	%rbx
	popq	%r12
	popq	%r13
	popq	%r14
	popq	%r15
	popq	%rbp
	retq
LBB11_27:
Ltmp2:
	movq	%rax, %r14
	movq	(%r12), %rdi
	movq	8(%r12), %rsi
	callq	__ZN5alloc5alloc8box_free17hf584cc72aa986435E
	movq	%r14, %rdi
	callq	__Unwind_Resume
	ud2
Lfunc_end0:
	.cfi_endproc
	.section	__TEXT,__gcc_except_tab
	.p2align	2
GCC_except_table11:
Lexception0:
	.byte	255
	.byte	255
	.byte	1
	.uleb128 Lcst_end0-Lcst_begin0
Lcst_begin0:
	.uleb128 Ltmp0-Lfunc_begin0
	.uleb128 Ltmp1-Ltmp0
	.uleb128 Ltmp2-Lfunc_begin0
	.byte	0
	.uleb128 Ltmp1-Lfunc_begin0
	.uleb128 Lfunc_end0-Ltmp1
	.byte	0
	.byte	0
Lcst_end0:
	.p2align	2

	.section	__TEXT,__text,regular,pure_instructions
	.p2align	4, 0x90
__ZN4core3ptr13drop_in_place17ha0157744c0fea389E:
	.cfi_startproc
	pushq	%rbp
	.cfi_def_cfa_offset 16
	.cfi_offset %rbp, -16
	movq	%rsp, %rbp
	.cfi_def_cfa_register %rbp
	movq	%rdi, %rax
	movq	(%rdi), %rdi
	testq	%rdi, %rdi
	je	LBB12_2
	movq	8(%rax), %rsi
	testq	%rsi, %rsi
	je	LBB12_2
	movl	$1, %edx
	popq	%rbp
	jmp	___rust_dealloc
LBB12_2:
	popq	%rbp
	retq
	.cfi_endproc

	.p2align	4, 0x90
__ZN4core3ptr13drop_in_place17hca1de0166a808472E:
Lfunc_begin1:
	.cfi_startproc
	.cfi_personality 155, _rust_eh_personality
	.cfi_lsda 16, Lexception1
	pushq	%rbp
	.cfi_def_cfa_offset 16
	.cfi_offset %rbp, -16
	movq	%rsp, %rbp
	.cfi_def_cfa_register %rbp
	pushq	%r14
	pushq	%rbx
	.cfi_offset %rbx, -32
	.cfi_offset %r14, -24
	movq	%rdi, %rbx
	movq	(%rdi), %rdi
	movq	8(%rbx), %rax
Ltmp3:
	callq	*(%rax)
Ltmp4:
	movq	8(%rbx), %rax
	movq	8(%rax), %rsi
	testq	%rsi, %rsi
	je	LBB13_4
	movq	(%rbx), %rdi
	movq	16(%rax), %rdx
	popq	%rbx
	popq	%r14
	popq	%rbp
	jmp	___rust_dealloc
LBB13_4:
	popq	%rbx
	popq	%r14
	popq	%rbp
	retq
LBB13_3:
Ltmp5:
	movq	%rax, %r14
	movq	(%rbx), %rdi
	movq	8(%rbx), %rsi
	callq	__ZN5alloc5alloc8box_free17h0a4c1733b7ebf13fE
	movq	%r14, %rdi
	callq	__Unwind_Resume
	ud2
Lfunc_end1:
	.cfi_endproc
	.section	__TEXT,__gcc_except_tab
	.p2align	2
GCC_except_table13:
Lexception1:
	.byte	255
	.byte	255
	.byte	1
	.uleb128 Lcst_end1-Lcst_begin1
Lcst_begin1:
	.uleb128 Ltmp3-Lfunc_begin1
	.uleb128 Ltmp4-Ltmp3
	.uleb128 Ltmp5-Lfunc_begin1
	.byte	0
	.uleb128 Ltmp4-Lfunc_begin1
	.uleb128 Lfunc_end1-Ltmp4
	.byte	0
	.byte	0
Lcst_end1:
	.p2align	2

	.section	__TEXT,__text,regular,pure_instructions
	.p2align	4, 0x90
__ZN4core3ptr13drop_in_place17hfea4b93e7017a123E:
	.cfi_startproc
	pushq	%rbp
	.cfi_def_cfa_offset 16
	.cfi_offset %rbp, -16
	movq	%rsp, %rbp
	.cfi_def_cfa_register %rbp
	movq	(%rdi), %rdi
	movl	$64, %esi
	movl	$8, %edx
	popq	%rbp
	jmp	___rust_dealloc
	.cfi_endproc

	.p2align	4, 0x90
__ZN5alloc5alloc8box_free17h01d46486be990624E:
	.cfi_startproc
	pushq	%rbp
	.cfi_def_cfa_offset 16
	.cfi_offset %rbp, -16
	movq	%rsp, %rbp
	.cfi_def_cfa_register %rbp
	movl	$64, %esi
	movl	$8, %edx
	popq	%rbp
	jmp	___rust_dealloc
	.cfi_endproc

	.p2align	4, 0x90
__ZN5alloc5alloc8box_free17h0a4c1733b7ebf13fE:
	.cfi_startproc
	pushq	%rbp
	.cfi_def_cfa_offset 16
	.cfi_offset %rbp, -16
	movq	%rsp, %rbp
	.cfi_def_cfa_register %rbp
	movq	%rsi, %rax
	movq	8(%rsi), %rsi
	testq	%rsi, %rsi
	je	LBB16_1
	movq	16(%rax), %rdx
	popq	%rbp
	jmp	___rust_dealloc
LBB16_1:
	popq	%rbp
	retq
	.cfi_endproc

	.p2align	4, 0x90
__ZN5alloc5alloc8box_free17hf584cc72aa986435E:
	.cfi_startproc
	pushq	%rbp
	.cfi_def_cfa_offset 16
	.cfi_offset %rbp, -16
	movq	%rsp, %rbp
	.cfi_def_cfa_register %rbp
	movq	8(%rsi), %rax
	movq	16(%rsi), %rcx
	cmpq	$8, %rcx
	movl	$8, %edx
	cmovaq	%rcx, %rdx
	addq	%rdx, %rax
	addq	$47, %rax
	movq	%rdx, %rsi
	negq	%rsi
	andq	%rax, %rsi
	je	LBB17_1
	popq	%rbp
	jmp	___rust_dealloc
LBB17_1:
	popq	%rbp
	retq
	.cfi_endproc

	.p2align	4, 0x90
__ZN66_$LT$core..option..Option$LT$T$GT$$u20$as$u20$core..fmt..Debug$GT$3fmt17ha1f4ad8dcdfc7cd6E:
	.cfi_startproc
	pushq	%rbp
	.cfi_def_cfa_offset 16
	.cfi_offset %rbp, -16
	movq	%rsp, %rbp
	.cfi_def_cfa_register %rbp
	pushq	%r14
	pushq	%rbx
	subq	$32, %rsp
	.cfi_offset %rbx, -32
	.cfi_offset %r14, -24
	cmpq	$0, (%rdi)
	je	LBB18_2
	movq	%rdi, %rbx
	leaq	-48(%rbp), %r14
	leaq	L___unnamed_2(%rip), %rdx
	movl	$4, %ecx
	movq	%r14, %rdi
	callq	__ZN4core3fmt9Formatter11debug_tuple17h15ca25ad759edd1cE
	movq	%rbx, -24(%rbp)
	leaq	l___unnamed_3(%rip), %rdx
	leaq	-24(%rbp), %rsi
	movq	%r14, %rdi
	callq	__ZN4core3fmt8builders10DebugTuple5field17hf36121153a94f236E
	jmp	LBB18_3
LBB18_2:
	leaq	-48(%rbp), %r14
	leaq	L___unnamed_4(%rip), %rdx
	movl	$4, %ecx
	movq	%r14, %rdi
	callq	__ZN4core3fmt9Formatter11debug_tuple17h15ca25ad759edd1cE
LBB18_3:
	movq	%r14, %rdi
	callq	__ZN4core3fmt8builders10DebugTuple6finish17h68acf09c6f6593f2E
	addq	$32, %rsp
	popq	%rbx
	popq	%r14
	popq	%rbp
	retq
	.cfi_endproc

	.p2align	4, 0x90
__ZN82_$LT$std..sys_common..poison..PoisonError$LT$T$GT$$u20$as$u20$core..fmt..Debug$GT$3fmt17h47b8ad716ec9cb3eE:
	.cfi_startproc
	pushq	%rbp
	.cfi_def_cfa_offset 16
	.cfi_offset %rbp, -16
	movq	%rsp, %rbp
	.cfi_def_cfa_register %rbp
	movq	%rsi, %rdx
	leaq	l___unnamed_5(%rip), %rdi
	movl	$25, %esi
	popq	%rbp
	jmp	__ZN40_$LT$str$u20$as$u20$core..fmt..Debug$GT$3fmt17h2760aab2290546fcE
	.cfi_endproc

	.globl	__ZN66_$LT$dyn$u20$failure..Fail$u20$as$u20$failure..as_fail..AsFail$GT$7as_fail17h50b3111406f79d3cE
	.p2align	4, 0x90
__ZN66_$LT$dyn$u20$failure..Fail$u20$as$u20$failure..as_fail..AsFail$GT$7as_fail17h50b3111406f79d3cE:
	.cfi_startproc
	pushq	%rbp
	.cfi_def_cfa_offset 16
	.cfi_offset %rbp, -16
	movq	%rsp, %rbp
	.cfi_def_cfa_register %rbp
	movq	%rsi, %rdx
	movq	%rdi, %rax
	popq	%rbp
	retq
	.cfi_endproc

	.globl	__ZN63_$LT$failure..box_std..BoxStd$u20$as$u20$core..fmt..Display$GT$3fmt17h3c22ccfaf799be68E
	.p2align	4, 0x90
__ZN63_$LT$failure..box_std..BoxStd$u20$as$u20$core..fmt..Display$GT$3fmt17h3c22ccfaf799be68E:
	.cfi_startproc
	pushq	%rbp
	.cfi_def_cfa_offset 16
	.cfi_offset %rbp, -16
	movq	%rsp, %rbp
	.cfi_def_cfa_register %rbp
	movq	(%rdi), %rax
	movq	8(%rdi), %rcx
	movq	64(%rcx), %rcx
	movq	%rax, %rdi
	popq	%rbp
	jmpq	*%rcx
	.cfi_endproc

	.globl	__ZN61_$LT$failure..box_std..BoxStd$u20$as$u20$core..fmt..Debug$GT$3fmt17h6c30587d419af8b3E
	.p2align	4, 0x90
__ZN61_$LT$failure..box_std..BoxStd$u20$as$u20$core..fmt..Debug$GT$3fmt17h6c30587d419af8b3E:
	.cfi_startproc
	pushq	%rbp
	.cfi_def_cfa_offset 16
	.cfi_offset %rbp, -16
	movq	%rsp, %rbp
	.cfi_def_cfa_register %rbp
	movq	(%rdi), %rax
	movq	8(%rdi), %rcx
	movq	72(%rcx), %rcx
	movq	%rax, %rdi
	popq	%rbp
	jmpq	*%rcx
	.cfi_endproc

	.p2align	4, 0x90
__ZN7failure4Fail9backtrace17h73af860f9f873ee3E:
	.cfi_startproc
	pushq	%rbp
	.cfi_def_cfa_offset 16
	.cfi_offset %rbp, -16
	movq	%rsp, %rbp
	.cfi_def_cfa_register %rbp
	xorl	%eax, %eax
	popq	%rbp
	retq
	.cfi_endproc

	.p2align	4, 0x90
__ZN7failure4Fail23__private_get_type_id__17h40b621f37bb7b761E:
	.cfi_startproc
	pushq	%rbp
	.cfi_def_cfa_offset 16
	.cfi_offset %rbp, -16
	movq	%rsp, %rbp
	.cfi_def_cfa_register %rbp
	movabsq	$7966504675408160786, %rax
	popq	%rbp
	retq
	.cfi_endproc

	.globl	__ZN30_$LT$dyn$u20$failure..Fail$GT$11iter_causes17h44ab069ed6d7c1b2E
	.p2align	4, 0x90
__ZN30_$LT$dyn$u20$failure..Fail$GT$11iter_causes17h44ab069ed6d7c1b2E:
	.cfi_startproc
	pushq	%rbp
	.cfi_def_cfa_offset 16
	.cfi_offset %rbp, -16
	movq	%rsp, %rbp
	.cfi_def_cfa_register %rbp
	popq	%rbp
	jmpq	*32(%rsi)
	.cfi_endproc

	.globl	__ZN30_$LT$dyn$u20$failure..Fail$GT$10iter_chain17hf2975232fdb1feeeE
	.p2align	4, 0x90
__ZN30_$LT$dyn$u20$failure..Fail$GT$10iter_chain17hf2975232fdb1feeeE:
	.cfi_startproc
	pushq	%rbp
	.cfi_def_cfa_offset 16
	.cfi_offset %rbp, -16
	movq	%rsp, %rbp
	.cfi_def_cfa_register %rbp
	movq	%rsi, %rdx
	movq	%rdi, %rax
	popq	%rbp
	retq
	.cfi_endproc

	.globl	__ZN30_$LT$dyn$u20$failure..Fail$GT$10root_cause17h29e70e422940046bE
	.p2align	4, 0x90
__ZN30_$LT$dyn$u20$failure..Fail$GT$10root_cause17h29e70e422940046bE:
	.cfi_startproc
	pushq	%rbp
	.cfi_def_cfa_offset 16
	.cfi_offset %rbp, -16
	movq	%rsp, %rbp
	.cfi_def_cfa_register %rbp
	pushq	%r14
	pushq	%rbx
	.cfi_offset %rbx, -32
	.cfi_offset %r14, -24
	movq	%rsi, %r14
	movq	%rdi, %rbx
	callq	*32(%rsi)
	testq	%rax, %rax
	je	LBB27_3
	.p2align	4, 0x90
LBB27_1:
	movq	%rax, %rbx
	movq	%rdx, %r14
	movq	%rax, %rdi
	callq	*32(%rdx)
	testq	%rax, %rax
	jne	LBB27_1
LBB27_3:
	movq	%rbx, %rax
	movq	%r14, %rdx
	popq	%rbx
	popq	%r14
	popq	%rbp
	retq
	.cfi_endproc

	.globl	__ZN80_$LT$alloc..boxed..Box$LT$dyn$u20$failure..Fail$GT$$u20$as$u20$failure..Fail$GT$5cause17h0dba8fc8e4df2384E
	.p2align	4, 0x90
__ZN80_$LT$alloc..boxed..Box$LT$dyn$u20$failure..Fail$GT$$u20$as$u20$failure..Fail$GT$5cause17h0dba8fc8e4df2384E:
	.cfi_startproc
	pushq	%rbp
	.cfi_def_cfa_offset 16
	.cfi_offset %rbp, -16
	movq	%rsp, %rbp
	.cfi_def_cfa_register %rbp
	movq	(%rdi), %rax
	movq	8(%rdi), %rcx
	movq	%rax, %rdi
	popq	%rbp
	jmpq	*32(%rcx)
	.cfi_endproc

	.globl	__ZN80_$LT$alloc..boxed..Box$LT$dyn$u20$failure..Fail$GT$$u20$as$u20$failure..Fail$GT$9backtrace17hedecee4df9bd03dcE
	.p2align	4, 0x90
__ZN80_$LT$alloc..boxed..Box$LT$dyn$u20$failure..Fail$GT$$u20$as$u20$failure..Fail$GT$9backtrace17hedecee4df9bd03dcE:
	.cfi_startproc
	pushq	%rbp
	.cfi_def_cfa_offset 16
	.cfi_offset %rbp, -16
	movq	%rsp, %rbp
	.cfi_def_cfa_register %rbp
	movq	(%rdi), %rax
	movq	8(%rdi), %rcx
	movq	%rax, %rdi
	popq	%rbp
	jmpq	*40(%rcx)
	.cfi_endproc

	.globl	__ZN74_$LT$failure..Causes$u20$as$u20$core..iter..traits..iterator..Iterator$GT$4next17hde87a4f4b941892aE
	.p2align	4, 0x90
__ZN74_$LT$failure..Causes$u20$as$u20$core..iter..traits..iterator..Iterator$GT$4next17hde87a4f4b941892aE:
	.cfi_startproc
	pushq	%rbp
	.cfi_def_cfa_offset 16
	.cfi_offset %rbp, -16
	movq	%rsp, %rbp
	.cfi_def_cfa_register %rbp
	pushq	%r15
	pushq	%r14
	pushq	%rbx
	pushq	%rax
	.cfi_offset %rbx, -40
	.cfi_offset %r14, -32
	.cfi_offset %r15, -24
	movq	(%rdi), %r15
	movq	8(%rdi), %r14
	testq	%r15, %r15
	je	LBB30_2
	movq	%rdi, %rbx
	movq	%r15, %rdi
	callq	*32(%r14)
	movq	%rax, (%rbx)
	movq	%rdx, 8(%rbx)
LBB30_2:
	movq	%r15, %rax
	movq	%r14, %rdx
	addq	$8, %rsp
	popq	%rbx
	popq	%r14
	popq	%r15
	popq	%rbp
	retq
	.cfi_endproc

	.globl	__ZN66_$LT$failure..error..Error$u20$as$u20$failure..as_fail..AsFail$GT$7as_fail17h57eb2cf101f80c0eE
	.p2align	4, 0x90
__ZN66_$LT$failure..error..Error$u20$as$u20$failure..as_fail..AsFail$GT$7as_fail17h57eb2cf101f80c0eE:
	.cfi_startproc
	pushq	%rbp
	.cfi_def_cfa_offset 16
	.cfi_offset %rbp, -16
	movq	%rsp, %rbp
	.cfi_def_cfa_register %rbp
	movq	8(%rdi), %rdx
	movq	16(%rdx), %rcx
	leaq	47(%rcx), %rax
	negq	%rcx
	andq	%rcx, %rax
	addq	(%rdi), %rax
	popq	%rbp
	retq
	.cfi_endproc

	.p2align	4, 0x90
__ZN7failure9backtrace8internal17InternalBacktrace12as_backtrace17h8861d5305588f46cE:
Lfunc_begin2:
	.cfi_startproc
	.cfi_personality 155, _rust_eh_personality
	.cfi_lsda 16, Lexception2
	pushq	%rbp
	.cfi_def_cfa_offset 16
	.cfi_offset %rbp, -16
	movq	%rsp, %rbp
	.cfi_def_cfa_register %rbp
	pushq	%r14
	pushq	%rbx
	subq	$16, %rsp
	.cfi_offset %rbx, -32
	.cfi_offset %r14, -24
	movq	%rdi, %rbx
	movq	(%rdi), %rdi
	testq	%rdi, %rdi
	je	LBB32_1
	callq	_pthread_mutex_lock
	callq	__ZN3std9panicking9panicking17h6f800ddc6c0d9b77E
	movl	%eax, %r14d
	movb	8(%rbx), %al
	testb	%al, %al
	jne	LBB32_3
	movq	%rbx, -32(%rbp)
	movb	%r14b, -24(%rbp)
	cmpb	$0, 9(%rbx)
	je	LBB32_7
	testb	%r14b, %r14b
	jne	LBB32_12
LBB32_10:
	callq	__ZN3std9panicking9panicking17h6f800ddc6c0d9b77E
	testb	%al, %al
	je	LBB32_12
	movb	$1, 8(%rbx)
	jmp	LBB32_12
LBB32_1:
	xorl	%ebx, %ebx
	jmp	LBB32_13
LBB32_7:
	leaq	16(%rbx), %rdi
Ltmp9:
	callq	__ZN9backtrace7capture9Backtrace7resolve17h8df4a910b6fecab6E
Ltmp10:
	movb	$1, 9(%rbx)
	testb	%r14b, %r14b
	je	LBB32_10
LBB32_12:
	movq	(%rbx), %rdi
	addq	$16, %rbx
	callq	_pthread_mutex_unlock
LBB32_13:
	movq	%rbx, %rax
	addq	$16, %rsp
	popq	%rbx
	popq	%r14
	popq	%rbp
	retq
LBB32_3:
	movq	%rbx, -32(%rbp)
	movb	%r14b, -24(%rbp)
Ltmp6:
	leaq	l___unnamed_6(%rip), %rdi
	leaq	l___unnamed_7(%rip), %rcx
	leaq	l___unnamed_8(%rip), %r8
	leaq	-32(%rbp), %rdx
	movl	$43, %esi
	callq	__ZN4core6result13unwrap_failed17hb5a510096a5fc85fE
Ltmp7:
	ud2
LBB32_5:
Ltmp8:
	movq	%rax, %rbx
	leaq	-32(%rbp), %rdi
	callq	__ZN4core3ptr13drop_in_place17h3edbff2bcc77f930E
	movq	%rbx, %rdi
	callq	__Unwind_Resume
	ud2
LBB32_14:
Ltmp11:
	movq	%rax, %rbx
	leaq	-32(%rbp), %rdi
	callq	__ZN4core3ptr13drop_in_place17h2e39a301a50e5dedE
	movq	%rbx, %rdi
	callq	__Unwind_Resume
	ud2
Lfunc_end2:
	.cfi_endproc
	.section	__TEXT,__gcc_except_tab
	.p2align	2
GCC_except_table32:
Lexception2:
	.byte	255
	.byte	255
	.byte	1
	.uleb128 Lcst_end2-Lcst_begin2
Lcst_begin2:
	.uleb128 Lfunc_begin2-Lfunc_begin2
	.uleb128 Ltmp9-Lfunc_begin2
	.byte	0
	.byte	0
	.uleb128 Ltmp9-Lfunc_begin2
	.uleb128 Ltmp10-Ltmp9
	.uleb128 Ltmp11-Lfunc_begin2
	.byte	0
	.uleb128 Ltmp6-Lfunc_begin2
	.uleb128 Ltmp7-Ltmp6
	.uleb128 Ltmp8-Lfunc_begin2
	.byte	0
	.uleb128 Ltmp7-Lfunc_begin2
	.uleb128 Lfunc_end2-Ltmp7
	.byte	0
	.byte	0
Lcst_end2:
	.p2align	2

	.section	__TEXT,__text,regular,pure_instructions
	.globl	__ZN84_$LT$failure..backtrace..internal..InternalBacktrace$u20$as$u20$core..fmt..Debug$GT$3fmt17h983fdd6e7a42e509E
	.p2align	4, 0x90
__ZN84_$LT$failure..backtrace..internal..InternalBacktrace$u20$as$u20$core..fmt..Debug$GT$3fmt17h983fdd6e7a42e509E:
	.cfi_startproc
	pushq	%rbp
	.cfi_def_cfa_offset 16
	.cfi_offset %rbp, -16
	movq	%rsp, %rbp
	.cfi_def_cfa_register %rbp
	pushq	%r14
	pushq	%rbx
	subq	$32, %rsp
	.cfi_offset %rbx, -32
	.cfi_offset %r14, -24
	movq	%rdi, %rbx
	leaq	l___unnamed_9(%rip), %rdx
	leaq	-40(%rbp), %r14
	movl	$17, %ecx
	movq	%r14, %rdi
	callq	__ZN4core3fmt9Formatter12debug_struct17h985c0158d1fc7193E
	movq	%rbx, %rdi
	callq	__ZN7failure9backtrace8internal17InternalBacktrace12as_backtrace17h8861d5305588f46cE
	movq	%rax, -24(%rbp)
	leaq	l___unnamed_10(%rip), %rsi
	leaq	l___unnamed_11(%rip), %r8
	leaq	-24(%rbp), %rcx
	movl	$9, %edx
	movq	%r14, %rdi
	callq	__ZN4core3fmt8builders11DebugStruct5field17h9c15dc155278eed2E
	movq	%rax, %rdi
	callq	__ZN4core3fmt8builders11DebugStruct6finish17h26808393f3fed630E
	addq	$32, %rsp
	popq	%rbx
	popq	%r14
	popq	%rbp
	retq
	.cfi_endproc

	.globl	__ZN7failure9backtrace9Backtrace3new17h672bc240a4ff8c29E
	.p2align	4, 0x90
__ZN7failure9backtrace9Backtrace3new17h672bc240a4ff8c29E:
Lfunc_begin3:
	.cfi_startproc
	.cfi_personality 155, _rust_eh_personality
	.cfi_lsda 16, Lexception3
	pushq	%rbp
	.cfi_def_cfa_offset 16
	.cfi_offset %rbp, -16
	movq	%rsp, %rbp
	.cfi_def_cfa_register %rbp
	pushq	%r15
	pushq	%r14
	pushq	%r12
	pushq	%rbx
	subq	$128, %rsp
	.cfi_offset %rbx, -48
	.cfi_offset %r12, -40
	.cfi_offset %r14, -32
	.cfi_offset %r15, -24
	movq	%rdi, %r14
	movq	__ZN7failure9backtrace8internal17InternalBacktrace3new7ENABLED17he3a3b017472597e4E(%rip), %rax
	cmpq	$1, %rax
	je	LBB34_26
	testq	%rax, %rax
	jne	LBB34_21
Ltmp12:
	leaq	l___unnamed_12(%rip), %rsi
	leaq	-80(%rbp), %rdi
	movl	$22, %edx
	callq	__ZN3std3env7_var_os17hc8b7303001145450E
Ltmp13:
	cmpq	$0, -80(%rbp)
	je	LBB34_10
Ltmp15:
	leaq	l___unnamed_13(%rip), %rsi
	leaq	-80(%rbp), %rdi
	movl	$1, %edx
	callq	__ZN78_$LT$std..ffi..os_str..OsString$u20$as$u20$core..cmp..PartialEq$LT$str$GT$$GT$2eq17hcbf583f29a130742E
Ltmp16:
	movb	$1, %bl
	testb	%al, %al
	je	LBB34_17
Ltmp17:
	leaq	l___unnamed_13(%rip), %rsi
	leaq	-80(%rbp), %rdi
	movl	$1, %edx
	callq	__ZN78_$LT$std..ffi..os_str..OsString$u20$as$u20$core..cmp..PartialEq$LT$str$GT$$GT$2eq17hcbf583f29a130742E
Ltmp18:
	testb	%al, %al
	je	LBB34_10
	xorl	%ebx, %ebx
	movq	-80(%rbp), %rdi
	testq	%rdi, %rdi
	je	LBB34_20
LBB34_18:
	movq	-72(%rbp), %rsi
	testq	%rsi, %rsi
	je	LBB34_20
	movl	$1, %edx
	callq	___rust_dealloc
	jmp	LBB34_20
LBB34_10:
Ltmp19:
	leaq	l___unnamed_14(%rip), %rsi
	leaq	-120(%rbp), %rdi
	movl	$14, %edx
	callq	__ZN3std3env7_var_os17hc8b7303001145450E
Ltmp20:
	cmpq	$0, -120(%rbp)
	je	LBB34_16
Ltmp22:
	leaq	l___unnamed_13(%rip), %rsi
	leaq	-120(%rbp), %rdi
	movl	$1, %edx
	callq	__ZN78_$LT$std..ffi..os_str..OsString$u20$as$u20$core..cmp..PartialEq$LT$str$GT$$GT$2eq17hcbf583f29a130742E
Ltmp23:
	movl	%eax, %ebx
	xorb	$1, %bl
	movq	-120(%rbp), %rdi
	testq	%rdi, %rdi
	je	LBB34_17
	movq	-112(%rbp), %rsi
	testq	%rsi, %rsi
	je	LBB34_17
	movl	$1, %edx
	callq	___rust_dealloc
	movq	-80(%rbp), %rdi
	testq	%rdi, %rdi
	jne	LBB34_18
	jmp	LBB34_20
LBB34_16:
	xorl	%ebx, %ebx
LBB34_17:
	movq	-80(%rbp), %rdi
	testq	%rdi, %rdi
	jne	LBB34_18
LBB34_20:
	movzbl	%bl, %eax
	leaq	1(%rax), %rcx
	xchgq	%rcx, __ZN7failure9backtrace8internal17InternalBacktrace3new7ENABLED17he3a3b017472597e4E(%rip)
	testb	%al, %al
	je	LBB34_26
LBB34_21:
	movl	$64, %edi
	movl	$8, %esi
	callq	___rust_alloc
	testq	%rax, %rax
	je	LBB34_28
	movq	%rax, %rbx
Ltmp25:
	movq	%rax, %rdi
	callq	__ZN3std10sys_common5mutex5Mutex3new17h696650690b01d120E
Ltmp26:
	movq	%rbx, -120(%rbp)
Ltmp28:
	callq	__ZN3std10sys_common6poison4Flag3new17h17da4b4837aefea3E
Ltmp29:
	movl	%eax, %r15d
	leaq	-120(%rbp), %r12
	movq	%r12, %rdi
	callq	_pthread_mutexattr_init
	movq	%r12, %rdi
	xorl	%esi, %esi
	callq	_pthread_mutexattr_settype
	movq	%rbx, %rdi
	movq	%r12, %rsi
	callq	_pthread_mutex_init
	movq	%r12, %rdi
	callq	_pthread_mutexattr_destroy
	movq	%rbx, -80(%rbp)
	movb	%r15b, -72(%rbp)
	movb	$0, -71(%rbp)
	movl	-120(%rbp), %eax
	movl	%eax, -70(%rbp)
	movzwl	-116(%rbp), %eax
	movw	%ax, -66(%rbp)
Ltmp31:
	leaq	-120(%rbp), %rdi
	callq	__ZN9backtrace7capture9Backtrace14new_unresolved17h7d8bd237445403e3E
Ltmp32:
	vmovups	-120(%rbp), %ymm0
	movq	-72(%rbp), %rax
	movq	%rax, -120(%rbp)
	vmovups	%ymm0, -112(%rbp)
	movq	-120(%rbp), %rax
	movq	%rax, -80(%rbp)
	vmovups	-112(%rbp), %xmm0
	vmovups	%xmm0, -72(%rbp)
	movq	-96(%rbp), %rax
	movq	%rax, -56(%rbp)
	movq	-88(%rbp), %rax
	movq	%rax, -48(%rbp)
	jmp	LBB34_27
LBB34_26:
	xorl	%ebx, %ebx
LBB34_27:
	movq	%rbx, (%r14)
	movq	-80(%rbp), %rax
	movq	%rax, 8(%r14)
	vmovups	-72(%rbp), %xmm0
	vmovups	%xmm0, 16(%r14)
	movq	-56(%rbp), %rax
	movq	%rax, 32(%r14)
	movq	-48(%rbp), %rax
	movq	%rax, 40(%r14)
	movq	%r14, %rax
	addq	$128, %rsp
	popq	%rbx
	popq	%r12
	popq	%r14
	popq	%r15
	popq	%rbp
	vzeroupper
	retq
LBB34_28:
	movl	$64, %edi
	movl	$8, %esi
	callq	__ZN5alloc5alloc18handle_alloc_error17hbc0ab0ed90816c07E
LBB34_29:
Ltmp24:
	movq	%rax, %r14
	leaq	-120(%rbp), %rdi
	callq	__ZN4core3ptr13drop_in_place17ha0157744c0fea389E
	jmp	LBB34_32
LBB34_30:
Ltmp14:
	movq	%rax, %r14
	movq	%r14, %rdi
	callq	__Unwind_Resume
	ud2
LBB34_31:
Ltmp21:
	movq	%rax, %r14
LBB34_32:
	leaq	-80(%rbp), %rdi
	callq	__ZN4core3ptr13drop_in_place17ha0157744c0fea389E
	movq	%r14, %rdi
	callq	__Unwind_Resume
	ud2
LBB34_33:
Ltmp33:
	movq	%rax, %r14
	leaq	-80(%rbp), %rdi
	callq	__ZN4core3ptr13drop_in_place17h498f1dfed4104b69E
	movq	%r14, %rdi
	callq	__Unwind_Resume
	ud2
LBB34_34:
Ltmp30:
	movq	%rax, %r14
	leaq	-120(%rbp), %rdi
	callq	__ZN4core3ptr13drop_in_place17hfea4b93e7017a123E
	movq	%r14, %rdi
	callq	__Unwind_Resume
	ud2
LBB34_35:
Ltmp27:
	movq	%rax, %r14
	movq	%rbx, %rdi
	callq	__ZN5alloc5alloc8box_free17h01d46486be990624E
	movq	%r14, %rdi
	callq	__Unwind_Resume
	ud2
Lfunc_end3:
	.cfi_endproc
	.section	__TEXT,__gcc_except_tab
	.p2align	2
GCC_except_table34:
Lexception3:
	.byte	255
	.byte	255
	.byte	1
	.uleb128 Lcst_end3-Lcst_begin3
Lcst_begin3:
	.uleb128 Ltmp12-Lfunc_begin3
	.uleb128 Ltmp13-Ltmp12
	.uleb128 Ltmp14-Lfunc_begin3
	.byte	0
	.uleb128 Ltmp15-Lfunc_begin3
	.uleb128 Ltmp20-Ltmp15
	.uleb128 Ltmp21-Lfunc_begin3
	.byte	0
	.uleb128 Ltmp22-Lfunc_begin3
	.uleb128 Ltmp23-Ltmp22
	.uleb128 Ltmp24-Lfunc_begin3
	.byte	0
	.uleb128 Ltmp25-Lfunc_begin3
	.uleb128 Ltmp26-Ltmp25
	.uleb128 Ltmp27-Lfunc_begin3
	.byte	0
	.uleb128 Ltmp28-Lfunc_begin3
	.uleb128 Ltmp29-Ltmp28
	.uleb128 Ltmp30-Lfunc_begin3
	.byte	0
	.uleb128 Ltmp31-Lfunc_begin3
	.uleb128 Ltmp32-Ltmp31
	.uleb128 Ltmp33-Lfunc_begin3
	.byte	0
	.uleb128 Ltmp32-Lfunc_begin3
	.uleb128 Lfunc_end3-Ltmp32
	.byte	0
	.byte	0
Lcst_end3:
	.p2align	2

	.section	__TEXT,__text,regular,pure_instructions
	.globl	__ZN7failure9backtrace9Backtrace4none17h84fe74bb4cbedd7fE
	.p2align	4, 0x90
__ZN7failure9backtrace9Backtrace4none17h84fe74bb4cbedd7fE:
	.cfi_startproc
	pushq	%rbp
	.cfi_def_cfa_offset 16
	.cfi_offset %rbp, -16
	movq	%rsp, %rbp
	.cfi_def_cfa_register %rbp
	movq	%rdi, %rax
	movq	$0, (%rdi)
	popq	%rbp
	retq
	.cfi_endproc

	.globl	__ZN7failure9backtrace9Backtrace8is_empty17h4e07c3acc0286884E
	.p2align	4, 0x90
__ZN7failure9backtrace9Backtrace8is_empty17h4e07c3acc0286884E:
	.cfi_startproc
	pushq	%rbp
	.cfi_def_cfa_offset 16
	.cfi_offset %rbp, -16
	movq	%rsp, %rbp
	.cfi_def_cfa_register %rbp
	cmpq	$0, (%rdi)
	sete	%al
	popq	%rbp
	retq
	.cfi_endproc

	.globl	__ZN72_$LT$failure..backtrace..Backtrace$u20$as$u20$core..default..Default$GT$7default17hc24eb5a7cb7bc5c6E
	.p2align	4, 0x90
__ZN72_$LT$failure..backtrace..Backtrace$u20$as$u20$core..default..Default$GT$7default17hc24eb5a7cb7bc5c6E:
	.cfi_startproc
	pushq	%rbp
	.cfi_def_cfa_offset 16
	.cfi_offset %rbp, -16
	movq	%rsp, %rbp
	.cfi_def_cfa_register %rbp
	pushq	%rbx
	pushq	%rax
	.cfi_offset %rbx, -24
	movq	%rdi, %rbx
	callq	__ZN7failure9backtrace9Backtrace3new17h672bc240a4ff8c29E
	movq	%rbx, %rax
	addq	$8, %rsp
	popq	%rbx
	popq	%rbp
	retq
	.cfi_endproc

	.globl	__ZN66_$LT$failure..backtrace..Backtrace$u20$as$u20$core..fmt..Debug$GT$3fmt17haf2a7664c4fa27c3E
	.p2align	4, 0x90
__ZN66_$LT$failure..backtrace..Backtrace$u20$as$u20$core..fmt..Debug$GT$3fmt17haf2a7664c4fa27c3E:
	.cfi_startproc
	pushq	%rbp
	.cfi_def_cfa_offset 16
	.cfi_offset %rbp, -16
	movq	%rsp, %rbp
	.cfi_def_cfa_register %rbp
	pushq	%rbx
	pushq	%rax
	.cfi_offset %rbx, -24
	movq	%rsi, %rbx
	callq	__ZN7failure9backtrace8internal17InternalBacktrace12as_backtrace17h8861d5305588f46cE
	testq	%rax, %rax
	je	LBB38_1
	movq	%rax, %rdi
	movq	%rbx, %rsi
	addq	$8, %rsp
	popq	%rbx
	popq	%rbp
	jmp	__ZN66_$LT$backtrace..capture..Backtrace$u20$as$u20$core..fmt..Debug$GT$3fmt17h24a1bc670fc40c6dE
LBB38_1:
	xorl	%eax, %eax
	addq	$8, %rsp
	popq	%rbx
	popq	%rbp
	retq
	.cfi_endproc

	.p2align	4, 0x90
__ZN69_$LT$failure..compat..Compat$LT$E$GT$$u20$as$u20$core..fmt..Debug$GT$3fmt17hea381639b825ff86E:
	.cfi_startproc
	pushq	%rbp
	.cfi_def_cfa_offset 16
	.cfi_offset %rbp, -16
	movq	%rsp, %rbp
	.cfi_def_cfa_register %rbp
	pushq	%r14
	pushq	%rbx
	subq	$32, %rsp
	.cfi_offset %rbx, -32
	.cfi_offset %r14, -24
	movq	%rdi, %rbx
	leaq	l___unnamed_15(%rip), %rdx
	leaq	-40(%rbp), %r14
	movl	$6, %ecx
	movq	%r14, %rdi
	callq	__ZN4core3fmt9Formatter12debug_struct17h985c0158d1fc7193E
	movq	%rbx, -24(%rbp)
	leaq	l___unnamed_16(%rip), %rsi
	leaq	l___unnamed_17(%rip), %r8
	leaq	-24(%rbp), %rcx
	movl	$5, %edx
	movq	%r14, %rdi
	callq	__ZN4core3fmt8builders11DebugStruct5field17h9c15dc155278eed2E
	movq	%r14, %rdi
	callq	__ZN4core3fmt8builders11DebugStruct6finish17h26808393f3fed630E
	addq	$32, %rsp
	popq	%rbx
	popq	%r14
	popq	%rbp
	retq
	.cfi_endproc

	.p2align	4, 0x90
__ZN70_$LT$failure..compat..Compat$LT$E$GT$$u20$as$u20$std..error..Error$GT$11description17hd0596cc568e7e5f4E:
	.cfi_startproc
	pushq	%rbp
	.cfi_def_cfa_offset 16
	.cfi_offset %rbp, -16
	movq	%rsp, %rbp
	.cfi_def_cfa_register %rbp
	leaq	l___unnamed_18(%rip), %rax
	movl	$22, %edx
	popq	%rbp
	retq
	.cfi_endproc

	.globl	__ZN7failure6compat129_$LT$impl$u20$core..convert..From$LT$failure..error..Error$GT$$u20$for$u20$alloc..boxed..Box$LT$dyn$u20$std..error..Error$GT$$GT$4from17hf5e1a81094f1b022E
	.p2align	4, 0x90
__ZN7failure6compat129_$LT$impl$u20$core..convert..From$LT$failure..error..Error$GT$$u20$for$u20$alloc..boxed..Box$LT$dyn$u20$std..error..Error$GT$$GT$4from17hf5e1a81094f1b022E:
	.cfi_startproc
	pushq	%rbp
	.cfi_def_cfa_offset 16
	.cfi_offset %rbp, -16
	movq	%rsp, %rbp
	.cfi_def_cfa_register %rbp
	pushq	%r14
	pushq	%rbx
	.cfi_offset %rbx, -32
	.cfi_offset %r14, -24
	movq	%rsi, %r14
	movq	%rdi, %rbx
	movl	$16, %edi
	movl	$8, %esi
	callq	___rust_alloc
	testq	%rax, %rax
	je	LBB41_2
	movq	%rbx, (%rax)
	movq	%r14, 8(%rax)
	leaq	l___unnamed_19(%rip), %rdx
	popq	%rbx
	popq	%r14
	popq	%rbp
	retq
LBB41_2:
	movl	$16, %edi
	movl	$8, %esi
	callq	__ZN5alloc5alloc18handle_alloc_error17hbc0ab0ed90816c07E
	.cfi_endproc

	.globl	__ZN7failure7context67Either$LT$failure..backtrace..Backtrace$C$failure..error..Error$GT$9backtrace17hc5b9469e110a1e22E
	.p2align	4, 0x90
__ZN7failure7context67Either$LT$failure..backtrace..Backtrace$C$failure..error..Error$GT$9backtrace17hc5b9469e110a1e22E:
	.cfi_startproc
	pushq	%rbp
	.cfi_def_cfa_offset 16
	.cfi_offset %rbp, -16
	movq	%rsp, %rbp
	.cfi_def_cfa_register %rbp
	pushq	%rbx
	pushq	%rax
	.cfi_offset %rbx, -24
	movq	%rdi, %rax
	cmpq	$1, (%rdi)
	jne	LBB42_2
	movq	8(%rax), %rbx
	movq	16(%rax), %rax
	movq	16(%rax), %rcx
	leaq	47(%rcx), %rdi
	negq	%rcx
	andq	%rcx, %rdi
	addq	%rbx, %rdi
	callq	*40(%rax)
	testq	%rax, %rax
	cmoveq	%rbx, %rax
	addq	$8, %rsp
	popq	%rbx
	popq	%rbp
	retq
LBB42_2:
	addq	$8, %rax
	addq	$8, %rsp
	popq	%rbx
	popq	%rbp
	retq
	.cfi_endproc

	.globl	__ZN7failure7context67Either$LT$failure..backtrace..Backtrace$C$failure..error..Error$GT$8as_cause17h210d12350b389d85E
	.p2align	4, 0x90
__ZN7failure7context67Either$LT$failure..backtrace..Backtrace$C$failure..error..Error$GT$8as_cause17h210d12350b389d85E:
	.cfi_startproc
	pushq	%rbp
	.cfi_def_cfa_offset 16
	.cfi_offset %rbp, -16
	movq	%rsp, %rbp
	.cfi_def_cfa_register %rbp
	cmpq	$1, (%rdi)
	jne	LBB43_1
	movq	16(%rdi), %rdx
	movq	16(%rdx), %rcx
	leaq	47(%rcx), %rax
	negq	%rcx
	andq	%rcx, %rax
	addq	8(%rdi), %rax
	popq	%rbp
	retq
LBB43_1:
	xorl	%eax, %eax
	popq	%rbp
	retq
	.cfi_endproc

	.globl	__ZN122_$LT$failure..context..Either$LT$failure..backtrace..Backtrace$C$failure..error..Error$GT$$u20$as$u20$core..fmt..Debug$GT$3fmt17h2dfc5ce911063a8bE
	.p2align	4, 0x90
__ZN122_$LT$failure..context..Either$LT$failure..backtrace..Backtrace$C$failure..error..Error$GT$$u20$as$u20$core..fmt..Debug$GT$3fmt17h2dfc5ce911063a8bE:
	.cfi_startproc
	pushq	%rbp
	.cfi_def_cfa_offset 16
	.cfi_offset %rbp, -16
	movq	%rsp, %rbp
	.cfi_def_cfa_register %rbp
	subq	$80, %rsp
	movq	%rsi, %rax
	cmpq	$1, (%rdi)
	jne	LBB44_2
	leaq	-8(%rbp), %rdx
	addq	$8, %rdi
	movq	%rdi, -8(%rbp)
	leaq	-72(%rbp), %rsi
	leaq	-24(%rbp), %rcx
	movq	%rdx, -24(%rbp)
	leaq	__ZN42_$LT$$RF$T$u20$as$u20$core..fmt..Debug$GT$3fmt17hfe25da8ad2fbd625E(%rip), %rdx
	jmp	LBB44_3
LBB44_2:
	leaq	-8(%rbp), %rdx
	addq	$8, %rdi
	movq	%rdi, -8(%rbp)
	leaq	-72(%rbp), %rsi
	leaq	-24(%rbp), %rcx
	movq	%rdx, -24(%rbp)
	leaq	__ZN42_$LT$$RF$T$u20$as$u20$core..fmt..Debug$GT$3fmt17hec7e9ab016908e45E(%rip), %rdx
LBB44_3:
	movq	%rdx, 8(%rcx)
	leaq	l___unnamed_20(%rip), %rdx
	movq	%rdx, (%rsi)
	movq	$1, 8(%rsi)
	movq	$0, 16(%rsi)
	movq	%rcx, 32(%rsi)
	movq	$1, 40(%rsi)
	movq	%rax, %rdi
	callq	__ZN4core3fmt9Formatter9write_fmt17h3dc2bf45afed3069E
	addq	$80, %rsp
	popq	%rbp
	retq
	.cfi_endproc

	.globl	__ZN7failure5error10error_impl9ErrorImpl11failure_mut17h765c10e66c7b5933E
	.p2align	4, 0x90
__ZN7failure5error10error_impl9ErrorImpl11failure_mut17h765c10e66c7b5933E:
	.cfi_startproc
	pushq	%rbp
	.cfi_def_cfa_offset 16
	.cfi_offset %rbp, -16
	movq	%rsp, %rbp
	.cfi_def_cfa_register %rbp
	movq	8(%rdi), %rdx
	movq	16(%rdx), %rcx
	leaq	47(%rcx), %rax
	negq	%rcx
	andq	%rcx, %rax
	addq	(%rdi), %rax
	popq	%rbp
	retq
	.cfi_endproc

	.globl	__ZN7failure5error5Error17from_boxed_compat17h9eb3cf05e8ea683dE
	.p2align	4, 0x90
__ZN7failure5error5Error17from_boxed_compat17h9eb3cf05e8ea683dE:
Lfunc_begin4:
	.cfi_startproc
	.cfi_personality 155, _rust_eh_personality
	.cfi_lsda 16, Lexception4
	pushq	%rbp
	.cfi_def_cfa_offset 16
	.cfi_offset %rbp, -16
	movq	%rsp, %rbp
	.cfi_def_cfa_register %rbp
	pushq	%r14
	pushq	%rbx
	subq	$112, %rsp
	.cfi_offset %rbx, -32
	.cfi_offset %r14, -24
	movq	%rsi, %r14
	movq	%rdi, %rbx
	movq	%rdi, -32(%rbp)
	movq	%rsi, -24(%rbp)
Ltmp34:
	leaq	-80(%rbp), %rdi
	callq	__ZN7failure9backtrace9Backtrace3new17h672bc240a4ff8c29E
Ltmp35:
	vmovups	-80(%rbp), %ymm0
	vmovups	-64(%rbp), %ymm1
	vmovups	%ymm1, -112(%rbp)
	vmovups	%ymm0, -128(%rbp)
	vmovups	-128(%rbp), %ymm0
	vmovups	-112(%rbp), %ymm1
	vmovups	%ymm1, -64(%rbp)
	vmovups	%ymm0, -80(%rbp)
	movl	$64, %edi
	movl	$8, %esi
	vzeroupper
	callq	___rust_alloc
	testq	%rax, %rax
	je	LBB46_2
	vmovups	-64(%rbp), %ymm0
	vmovups	%ymm0, 16(%rax)
	vmovups	-80(%rbp), %ymm0
	vmovups	%ymm0, (%rax)
	movq	%rbx, 48(%rax)
	movq	%r14, 56(%rax)
	leaq	l___unnamed_21(%rip), %rdx
	addq	$112, %rsp
	popq	%rbx
	popq	%r14
	popq	%rbp
	vzeroupper
	retq
LBB46_2:
	movl	$64, %edi
	movl	$8, %esi
	callq	__ZN5alloc5alloc18handle_alloc_error17hbc0ab0ed90816c07E
LBB46_3:
Ltmp36:
	movq	%rax, %rbx
	leaq	-32(%rbp), %rdi
	callq	__ZN4core3ptr13drop_in_place17hca1de0166a808472E
	movq	%rbx, %rdi
	callq	__Unwind_Resume
	ud2
Lfunc_end4:
	.cfi_endproc
	.section	__TEXT,__gcc_except_tab
	.p2align	2
GCC_except_table46:
Lexception4:
	.byte	255
	.byte	255
	.byte	1
	.uleb128 Lcst_end4-Lcst_begin4
Lcst_begin4:
	.uleb128 Ltmp34-Lfunc_begin4
	.uleb128 Ltmp35-Ltmp34
	.uleb128 Ltmp36-Lfunc_begin4
	.byte	0
	.uleb128 Ltmp35-Lfunc_begin4
	.uleb128 Lfunc_end4-Ltmp35
	.byte	0
	.byte	0
Lcst_end4:
	.p2align	2

	.section	__TEXT,__text,regular,pure_instructions
	.globl	__ZN7failure5error5Error4name17h95d86f67aeee7e26E
	.p2align	4, 0x90
__ZN7failure5error5Error4name17h95d86f67aeee7e26E:
	.cfi_startproc
	pushq	%rbp
	.cfi_def_cfa_offset 16
	.cfi_offset %rbp, -16
	movq	%rsp, %rbp
	.cfi_def_cfa_register %rbp
	movq	8(%rdi), %rcx
	movq	16(%rcx), %rdx
	leaq	47(%rdx), %rax
	negq	%rdx
	andq	%rdx, %rax
	addq	(%rdi), %rax
	movq	%rax, %rdi
	popq	%rbp
	jmpq	*24(%rcx)
	.cfi_endproc

	.globl	__ZN7failure5error5Error9backtrace17h11839eccaee8ae6bE
	.p2align	4, 0x90
__ZN7failure5error5Error9backtrace17h11839eccaee8ae6bE:
	.cfi_startproc
	pushq	%rbp
	.cfi_def_cfa_offset 16
	.cfi_offset %rbp, -16
	movq	%rsp, %rbp
	.cfi_def_cfa_register %rbp
	pushq	%rbx
	pushq	%rax
	.cfi_offset %rbx, -24
	movq	(%rdi), %rbx
	movq	8(%rdi), %rax
	movq	16(%rax), %rcx
	leaq	47(%rcx), %rdi
	negq	%rcx
	andq	%rcx, %rdi
	addq	%rbx, %rdi
	callq	*40(%rax)
	testq	%rax, %rax
	cmoveq	%rbx, %rax
	addq	$8, %rsp
	popq	%rbx
	popq	%rbp
	retq
	.cfi_endproc

	.globl	__ZN7failure5error5Error6compat17h32e917bf18365b47E
	.p2align	4, 0x90
__ZN7failure5error5Error6compat17h32e917bf18365b47E:
	.cfi_startproc
	pushq	%rbp
	.cfi_def_cfa_offset 16
	.cfi_offset %rbp, -16
	movq	%rsp, %rbp
	.cfi_def_cfa_register %rbp
	movq	%rsi, %rdx
	movq	%rdi, %rax
	popq	%rbp
	retq
	.cfi_endproc

	.globl	__ZN7failure5error5Error11iter_causes17h75c104ebf88ac670E
	.p2align	4, 0x90
__ZN7failure5error5Error11iter_causes17h75c104ebf88ac670E:
	.cfi_startproc
	pushq	%rbp
	.cfi_def_cfa_offset 16
	.cfi_offset %rbp, -16
	movq	%rsp, %rbp
	.cfi_def_cfa_register %rbp
	movq	8(%rdi), %rcx
	movq	16(%rcx), %rdx
	leaq	47(%rdx), %rax
	negq	%rdx
	andq	%rdx, %rax
	addq	(%rdi), %rax
	movq	%rax, %rdi
	popq	%rbp
	jmpq	*32(%rcx)
	.cfi_endproc

	.globl	__ZN7failure5error5Error10iter_chain17h59a5cc46e65272efE
	.p2align	4, 0x90
__ZN7failure5error5Error10iter_chain17h59a5cc46e65272efE:
	.cfi_startproc
	pushq	%rbp
	.cfi_def_cfa_offset 16
	.cfi_offset %rbp, -16
	movq	%rsp, %rbp
	.cfi_def_cfa_register %rbp
	movq	8(%rdi), %rdx
	movq	16(%rdx), %rcx
	leaq	47(%rcx), %rax
	negq	%rcx
	andq	%rcx, %rax
	addq	(%rdi), %rax
	popq	%rbp
	retq
	.cfi_endproc

	.globl	__ZN7failure5error5Error10root_cause17h76d3cb1f2220675dE
	.p2align	4, 0x90
__ZN7failure5error5Error10root_cause17h76d3cb1f2220675dE:
	.cfi_startproc
	pushq	%rbp
	.cfi_def_cfa_offset 16
	.cfi_offset %rbp, -16
	movq	%rsp, %rbp
	.cfi_def_cfa_register %rbp
	pushq	%r14
	pushq	%rbx
	.cfi_offset %rbx, -32
	.cfi_offset %r14, -24
	movq	8(%rdi), %r14
	movq	16(%r14), %rax
	leaq	47(%rax), %rbx
	negq	%rax
	andq	%rax, %rbx
	addq	(%rdi), %rbx
	movq	%rbx, %rdi
	callq	*32(%r14)
	testq	%rax, %rax
	je	LBB52_3
	.p2align	4, 0x90
LBB52_1:
	movq	%rax, %rbx
	movq	%rdx, %r14
	movq	%rax, %rdi
	callq	*32(%rdx)
	testq	%rax, %rax
	jne	LBB52_1
LBB52_3:
	movq	%rbx, %rax
	movq	%r14, %rdx
	popq	%rbx
	popq	%r14
	popq	%rbp
	retq
	.cfi_endproc

	.globl	__ZN60_$LT$failure..error..Error$u20$as$u20$core..fmt..Display$GT$3fmt17h2fdd6dfb99aa990bE
	.p2align	4, 0x90
__ZN60_$LT$failure..error..Error$u20$as$u20$core..fmt..Display$GT$3fmt17h2fdd6dfb99aa990bE:
	.cfi_startproc
	pushq	%rbp
	.cfi_def_cfa_offset 16
	.cfi_offset %rbp, -16
	movq	%rsp, %rbp
	.cfi_def_cfa_register %rbp
	movq	8(%rdi), %rax
	movq	16(%rax), %rcx
	movq	88(%rax), %rdx
	leaq	47(%rcx), %rax
	negq	%rcx
	andq	%rcx, %rax
	addq	(%rdi), %rax
	movq	%rax, %rdi
	popq	%rbp
	jmpq	*%rdx
	.cfi_endproc

	.globl	__ZN58_$LT$failure..error..Error$u20$as$u20$core..fmt..Debug$GT$3fmt17h7d8387a4613c6483E
	.p2align	4, 0x90
__ZN58_$LT$failure..error..Error$u20$as$u20$core..fmt..Debug$GT$3fmt17h7d8387a4613c6483E:
	.cfi_startproc
	pushq	%rbp
	.cfi_def_cfa_offset 16
	.cfi_offset %rbp, -16
	movq	%rsp, %rbp
	.cfi_def_cfa_register %rbp
	subq	$112, %rsp
	movq	%rdi, %rax
	movq	(%rdi), %rdi
	movq	%rdi, -8(%rbp)
	cmpq	$0, (%rdi)
	je	LBB54_2
	movq	8(%rax), %rax
	movq	16(%rax), %rcx
	leaq	47(%rcx), %rdx
	negq	%rcx
	andq	%rcx, %rdx
	addq	%rdx, %rdi
	movq	%rdi, -32(%rbp)
	movq	%rax, -24(%rbp)
	leaq	-32(%rbp), %rax
	movq	%rax, -16(%rbp)
	leaq	-16(%rbp), %rax
	movq	%rax, -64(%rbp)
	leaq	__ZN42_$LT$$RF$T$u20$as$u20$core..fmt..Debug$GT$3fmt17h5a6027cc1bbfa41dE(%rip), %rax
	movq	%rax, -56(%rbp)
	leaq	-8(%rbp), %rax
	movq	%rax, -48(%rbp)
	leaq	__ZN42_$LT$$RF$T$u20$as$u20$core..fmt..Debug$GT$3fmt17hec7e9ab016908e45E(%rip), %rax
	movq	%rax, -40(%rbp)
	leaq	l___unnamed_1(%rip), %rax
	movq	%rax, -112(%rbp)
	movq	$2, -104(%rbp)
	movq	$0, -96(%rbp)
	leaq	-64(%rbp), %rax
	movq	%rax, -80(%rbp)
	movq	$2, -72(%rbp)
	leaq	-112(%rbp), %rax
	movq	%rsi, %rdi
	movq	%rax, %rsi
	callq	__ZN4core3fmt9Formatter9write_fmt17h3dc2bf45afed3069E
	addq	$112, %rsp
	popq	%rbp
	retq
LBB54_2:
	movq	8(%rax), %rax
	movq	16(%rax), %rcx
	leaq	47(%rcx), %rdx
	negq	%rcx
	andq	%rcx, %rdx
	addq	%rdx, %rdi
	callq	*96(%rax)
	addq	$112, %rsp
	popq	%rbp
	retq
	.cfi_endproc

	.section	__TEXT,__const
l___unnamed_6:
	.ascii	"called `Result::unwrap()` on an `Err` value"

	.section	__DATA,__const
	.p2align	3
l___unnamed_7:
	.quad	__ZN4core3ptr13drop_in_place17h3edbff2bcc77f930E
	.quad	16
	.quad	8
	.quad	__ZN82_$LT$std..sys_common..poison..PoisonError$LT$T$GT$$u20$as$u20$core..fmt..Debug$GT$3fmt17h47b8ad716ec9cb3eE

	.section	__TEXT,__literal4,4byte_literals
L___unnamed_2:
	.ascii	"Some"

	.section	__DATA,__const
	.p2align	3
l___unnamed_3:
	.quad	__ZN4core3ptr13drop_in_place17h2ec5236c83ce3225E
	.quad	8
	.quad	8
	.quad	__ZN42_$LT$$RF$T$u20$as$u20$core..fmt..Debug$GT$3fmt17h4fe67738b1a8816aE

	.section	__TEXT,__literal4,4byte_literals
L___unnamed_4:
	.ascii	"None"

	.section	__TEXT,__const
l___unnamed_5:
	.ascii	"PoisonError { inner: .. }"

l___unnamed_22:
	.ascii	"/Users/yingyuhang/.cargo/registry/src/github.com-1ecc6299db9ec823/failure-0.1.8/src/backtrace/internal.rs"

.zerofill __DATA,__bss,__ZN7failure9backtrace8internal17InternalBacktrace3new7ENABLED17he3a3b017472597e4E,8,3
	.section	__DATA,__const
	.p2align	3
l___unnamed_8:
	.quad	l___unnamed_22
	.asciz	"i\000\000\000\000\000\000\000<\000\000\000\034\000\000"

	.section	__TEXT,__const
l___unnamed_9:
	.ascii	"InternalBacktrace"

l___unnamed_10:
	.ascii	"backtrace"

	.section	__DATA,__const
	.p2align	3
l___unnamed_11:
	.quad	__ZN4core3ptr13drop_in_place17h2ec5236c83ce3225E
	.quad	8
	.quad	8
	.quad	__ZN66_$LT$core..option..Option$LT$T$GT$$u20$as$u20$core..fmt..Debug$GT$3fmt17ha1f4ad8dcdfc7cd6E

	.section	__TEXT,__const
l___unnamed_12:
	.ascii	"RUST_FAILURE_BACKTRACE"

l___unnamed_13:
	.byte	48

l___unnamed_14:
	.ascii	"RUST_BACKTRACE"

l___unnamed_15:
	.ascii	"Compat"

l___unnamed_16:
	.ascii	"error"

	.section	__DATA,__const
	.p2align	3
l___unnamed_17:
	.quad	__ZN4core3ptr13drop_in_place17h2ec5236c83ce3225E
	.quad	8
	.quad	8
	.quad	__ZN42_$LT$$RF$T$u20$as$u20$core..fmt..Debug$GT$3fmt17hfe25da8ad2fbd625E

	.section	__TEXT,__const
l___unnamed_18:
	.ascii	"An error has occurred."

	.section	__DATA,__const
	.p2align	3
l___unnamed_19:
	.quad	__ZN4core3ptr13drop_in_place17h5b09593098444049E
	.quad	16
	.quad	8
	.quad	__ZN3std5error5Error5cause17h8f8104de4953dc93E
	.quad	__ZN3std5error5Error7type_id17he4606f872c8dce0aE
	.quad	__ZN3std5error5Error9backtrace17h02722ae20c05486aE
	.quad	__ZN70_$LT$failure..compat..Compat$LT$E$GT$$u20$as$u20$std..error..Error$GT$11description17hd0596cc568e7e5f4E
	.quad	__ZN3std5error5Error5cause17h8f8104de4953dc93E
	.quad	__ZN60_$LT$failure..error..Error$u20$as$u20$core..fmt..Display$GT$3fmt17h2fdd6dfb99aa990bE
	.quad	__ZN69_$LT$failure..compat..Compat$LT$E$GT$$u20$as$u20$core..fmt..Debug$GT$3fmt17hea381639b825ff86E

	.section	__TEXT,__const
l___unnamed_23:
	.byte	0

	.section	__DATA,__const
	.p2align	3
l___unnamed_20:
	.quad	l___unnamed_23
	.space	8

	.p2align	3
l___unnamed_21:
	.quad	__ZN4core3ptr13drop_in_place17hca1de0166a808472E
	.quad	16
	.quad	8
	.quad	__ZN3std5error5Error5cause17h8f8104de4953dc93E
	.quad	__ZN3std5error5Error5cause17h8f8104de4953dc93E
	.quad	__ZN7failure4Fail9backtrace17h73af860f9f873ee3E
	.quad	0
	.quad	0
	.quad	0
	.quad	0
	.quad	__ZN7failure4Fail23__private_get_type_id__17h40b621f37bb7b761E
	.quad	__ZN63_$LT$failure..box_std..BoxStd$u20$as$u20$core..fmt..Display$GT$3fmt17h3c22ccfaf799be68E
	.quad	__ZN61_$LT$failure..box_std..BoxStd$u20$as$u20$core..fmt..Debug$GT$3fmt17h6c30587d419af8b3E

	.section	__TEXT,__const
l___unnamed_24:
	.space	2,10

	.section	__DATA,__const
	.p2align	3
l___unnamed_1:
	.quad	l___unnamed_23
	.space	8
	.quad	l___unnamed_24
	.asciz	"\002\000\000\000\000\000\000"


	.globl	__ZN7failure5error5Error15find_root_cause17hc21858d8f38bdd89E
.set __ZN7failure5error5Error15find_root_cause17hc21858d8f38bdd89E, __ZN7failure5error5Error10root_cause17h76d3cb1f2220675dE
	.globl	__ZN7failure5error10error_impl9ErrorImpl7failure17h5971a68a890b44d0E
.set __ZN7failure5error10error_impl9ErrorImpl7failure17h5971a68a890b44d0E, __ZN66_$LT$failure..error..Error$u20$as$u20$failure..as_fail..AsFail$GT$7as_fail17h57eb2cf101f80c0eE
	.globl	__ZN7failure5error5Error7as_fail17h2db6a43dafe5bba8E
.set __ZN7failure5error5Error7as_fail17h2db6a43dafe5bba8E, __ZN66_$LT$failure..error..Error$u20$as$u20$failure..as_fail..AsFail$GT$7as_fail17h57eb2cf101f80c0eE
	.globl	__ZN7failure5error5Error5cause17h22a97bf5968bad01E
.set __ZN7failure5error5Error5cause17h22a97bf5968bad01E, __ZN66_$LT$failure..error..Error$u20$as$u20$failure..as_fail..AsFail$GT$7as_fail17h57eb2cf101f80c0eE
	.globl	__ZN7failure5error5Error6causes17h332dcbc82223629eE
.set __ZN7failure5error5Error6causes17h332dcbc82223629eE, __ZN7failure5error5Error10iter_chain17h59a5cc46e65272efE
	.globl	__ZN91_$LT$failure..error..Error$u20$as$u20$core..convert..AsRef$LT$dyn$u20$failure..Fail$GT$$GT$6as_ref17h5b57883a343eb972E
.set __ZN91_$LT$failure..error..Error$u20$as$u20$core..convert..AsRef$LT$dyn$u20$failure..Fail$GT$$GT$6as_ref17h5b57883a343eb972E, __ZN66_$LT$failure..error..Error$u20$as$u20$failure..as_fail..AsFail$GT$7as_fail17h57eb2cf101f80c0eE
	.globl	__ZN30_$LT$dyn$u20$failure..Fail$GT$6causes17hde52810589a449d6E
.set __ZN30_$LT$dyn$u20$failure..Fail$GT$6causes17hde52810589a449d6E, __ZN30_$LT$dyn$u20$failure..Fail$GT$10iter_chain17hf2975232fdb1feeeE
	.globl	__ZN30_$LT$dyn$u20$failure..Fail$GT$15find_root_cause17h189d2a8f134f9a96E
.set __ZN30_$LT$dyn$u20$failure..Fail$GT$15find_root_cause17h189d2a8f134f9a96E, __ZN30_$LT$dyn$u20$failure..Fail$GT$10root_cause17h29e70e422940046bE
	.globl	__ZN7failure15find_root_cause17hffba76d9ba43895fE
.set __ZN7failure15find_root_cause17hffba76d9ba43895fE, __ZN30_$LT$dyn$u20$failure..Fail$GT$10root_cause17h29e70e422940046bE
	.globl	__ZN7failure6compat175_$LT$impl$u20$core..convert..From$LT$failure..error..Error$GT$$u20$for$u20$alloc..boxed..Box$LT$dyn$u20$std..error..Error$u2b$core..marker..Sync$u2b$core..marker..Send$GT$$GT$4from17hff2163c3ce082abcE
.set __ZN7failure6compat175_$LT$impl$u20$core..convert..From$LT$failure..error..Error$GT$$u20$for$u20$alloc..boxed..Box$LT$dyn$u20$std..error..Error$u2b$core..marker..Sync$u2b$core..marker..Send$GT$$GT$4from17hff2163c3ce082abcE, __ZN7failure6compat129_$LT$impl$u20$core..convert..From$LT$failure..error..Error$GT$$u20$for$u20$alloc..boxed..Box$LT$dyn$u20$std..error..Error$GT$$GT$4from17hf5e1a81094f1b022E
	.globl	__ZN68_$LT$failure..backtrace..Backtrace$u20$as$u20$core..fmt..Display$GT$3fmt17he2034caab434ca09E
.set __ZN68_$LT$failure..backtrace..Backtrace$u20$as$u20$core..fmt..Display$GT$3fmt17he2034caab434ca09E, __ZN66_$LT$failure..backtrace..Backtrace$u20$as$u20$core..fmt..Debug$GT$3fmt17haf2a7664c4fa27c3E
.subsections_via_symbols
