	.section	__TEXT,__text,regular,pure_instructions
	.macosx_version_min 10, 7
	.p2align	4, 0x90
__ZN3std5error5Error5cause17hfaa4ab59b0eecac1E:
	.cfi_startproc
	pushq	%rbp
	.cfi_def_cfa_offset 16
	.cfi_offset %rbp, -16
	movq	%rsp, %rbp
	.cfi_def_cfa_register %rbp
	xorl	%eax, %eax
	popq	%rbp
	retq
	.cfi_endproc

	.p2align	4, 0x90
__ZN3std5error5Error7type_id17haa3ba274f38bf66eE:
	.cfi_startproc
	pushq	%rbp
	.cfi_def_cfa_offset 16
	.cfi_offset %rbp, -16
	movq	%rsp, %rbp
	.cfi_def_cfa_register %rbp
	movabsq	$1177679797039590469, %rax
	popq	%rbp
	retq
	.cfi_endproc

	.p2align	4, 0x90
__ZN3std5error5Error9backtrace17hede62b5227ac9dbcE:
	.cfi_startproc
	pushq	%rbp
	.cfi_def_cfa_offset 16
	.cfi_offset %rbp, -16
	movq	%rsp, %rbp
	.cfi_def_cfa_register %rbp
	xorl	%eax, %eax
	popq	%rbp
	retq
	.cfi_endproc

	.p2align	4, 0x90
__ZN42_$LT$$RF$T$u20$as$u20$core..fmt..Debug$GT$3fmt17h3674c6237e059b7bE:
	.cfi_startproc
	pushq	%rbp
	.cfi_def_cfa_offset 16
	.cfi_offset %rbp, -16
	movq	%rsp, %rbp
	.cfi_def_cfa_register %rbp
	subq	$112, %rsp
	movq	(%rdi), %rax
	movq	(%rax), %rdi
	movq	%rdi, -8(%rbp)
	cmpq	$0, (%rdi)
	je	LBB3_2
	movq	8(%rax), %rax
	movq	16(%rax), %rcx
	leaq	47(%rcx), %rdx
	negq	%rcx
	andq	%rcx, %rdx
	addq	%rdx, %rdi
	movq	%rdi, -32(%rbp)
	movq	%rax, -24(%rbp)
	leaq	-32(%rbp), %rax
	movq	%rax, -16(%rbp)
	leaq	-16(%rbp), %rax
	movq	%rax, -64(%rbp)
	leaq	__ZN42_$LT$$RF$T$u20$as$u20$core..fmt..Debug$GT$3fmt17haa7ef83c5194355aE(%rip), %rax
	movq	%rax, -56(%rbp)
	leaq	-8(%rbp), %rax
	movq	%rax, -48(%rbp)
	leaq	__ZN42_$LT$$RF$T$u20$as$u20$core..fmt..Debug$GT$3fmt17h38ba37ea1c5c2d47E(%rip), %rax
	movq	%rax, -40(%rbp)
	leaq	l___unnamed_1(%rip), %rax
	movq	%rax, -112(%rbp)
	movq	$2, -104(%rbp)
	movq	$0, -96(%rbp)
	leaq	-64(%rbp), %rax
	movq	%rax, -80(%rbp)
	movq	$2, -72(%rbp)
	leaq	-112(%rbp), %rax
	movq	%rsi, %rdi
	movq	%rax, %rsi
	callq	__ZN4core3fmt9Formatter9write_fmt17h742ca6aae87ad23cE
	addq	$112, %rsp
	popq	%rbp
	retq
LBB3_2:
	movq	8(%rax), %rax
	movq	16(%rax), %rcx
	leaq	47(%rcx), %rdx
	negq	%rcx
	andq	%rcx, %rdx
	addq	%rdx, %rdi
	callq	*96(%rax)
	addq	$112, %rsp
	popq	%rbp
	retq
	.cfi_endproc

	.p2align	4, 0x90
__ZN42_$LT$$RF$T$u20$as$u20$core..fmt..Debug$GT$3fmt17h38ba37ea1c5c2d47E:
	.cfi_startproc
	pushq	%rbp
	.cfi_def_cfa_offset 16
	.cfi_offset %rbp, -16
	movq	%rsp, %rbp
	.cfi_def_cfa_register %rbp
	pushq	%rbx
	pushq	%rax
	.cfi_offset %rbx, -24
	movq	%rsi, %rbx
	movq	(%rdi), %rdi
	callq	__ZN7failure9backtrace8internal17InternalBacktrace12as_backtrace17h070c1c5130d526a1E
	testq	%rax, %rax
	je	LBB4_1
	movq	%rax, %rdi
	movq	%rbx, %rsi
	addq	$8, %rsp
	popq	%rbx
	popq	%rbp
	jmp	__ZN66_$LT$backtrace..capture..Backtrace$u20$as$u20$core..fmt..Debug$GT$3fmt17h70e6919796d2f3b7E
LBB4_1:
	xorl	%eax, %eax
	addq	$8, %rsp
	popq	%rbx
	popq	%rbp
	retq
	.cfi_endproc

	.p2align	4, 0x90
__ZN42_$LT$$RF$T$u20$as$u20$core..fmt..Debug$GT$3fmt17haa7ef83c5194355aE:
	.cfi_startproc
	pushq	%rbp
	.cfi_def_cfa_offset 16
	.cfi_offset %rbp, -16
	movq	%rsp, %rbp
	.cfi_def_cfa_register %rbp
	movq	(%rdi), %rax
	movq	(%rax), %rdi
	movq	8(%rax), %rax
	movq	96(%rax), %rax
	popq	%rbp
	jmpq	*%rax
	.cfi_endproc

	.p2align	4, 0x90
__ZN42_$LT$$RF$T$u20$as$u20$core..fmt..Debug$GT$3fmt17hb15c79a9b7cc8400E:
	.cfi_startproc
	pushq	%rbp
	.cfi_def_cfa_offset 16
	.cfi_offset %rbp, -16
	movq	%rsp, %rbp
	.cfi_def_cfa_register %rbp
	movq	(%rdi), %rax
	movq	(%rax), %rdi
	popq	%rbp
	jmp	__ZN66_$LT$backtrace..capture..Backtrace$u20$as$u20$core..fmt..Debug$GT$3fmt17h70e6919796d2f3b7E
	.cfi_endproc

	.p2align	4, 0x90
__ZN4core3ptr13drop_in_place17h0364d982480f01e9E:
	.cfi_startproc
	pushq	%rbp
	.cfi_def_cfa_offset 16
	.cfi_offset %rbp, -16
	movq	%rsp, %rbp
	.cfi_def_cfa_register %rbp
	popq	%rbp
	retq
	.cfi_endproc

	.p2align	4, 0x90
__ZN4core3ptr13drop_in_place17h31eea91f7197f110E:
	.cfi_startproc
	pushq	%rbp
	.cfi_def_cfa_offset 16
	.cfi_offset %rbp, -16
	movq	%rsp, %rbp
	.cfi_def_cfa_register %rbp
	movq	(%rdi), %rdi
	movl	$64, %esi
	movl	$8, %edx
	popq	%rbp
	jmp	___rust_dealloc
	.cfi_endproc

	.p2align	4, 0x90
__ZN4core3ptr13drop_in_place17h449e9a324a835014E:
Lfunc_begin0:
	.cfi_startproc
	.cfi_personality 155, _rust_eh_personality
	.cfi_lsda 16, Lexception0
	pushq	%rbp
	.cfi_def_cfa_offset 16
	.cfi_offset %rbp, -16
	movq	%rsp, %rbp
	.cfi_def_cfa_register %rbp
	pushq	%r14
	pushq	%rbx
	.cfi_offset %rbx, -32
	.cfi_offset %r14, -24
	movq	%rdi, %rbx
	movq	(%rdi), %rdi
	movq	8(%rbx), %rax
Ltmp0:
	callq	*(%rax)
Ltmp1:
	movq	8(%rbx), %rax
	movq	8(%rax), %rsi
	testq	%rsi, %rsi
	je	LBB9_4
	movq	(%rbx), %rdi
	movq	16(%rax), %rdx
	popq	%rbx
	popq	%r14
	popq	%rbp
	jmp	___rust_dealloc
LBB9_4:
	popq	%rbx
	popq	%r14
	popq	%rbp
	retq
LBB9_3:
Ltmp2:
	movq	%rax, %r14
	movq	(%rbx), %rdi
	movq	8(%rbx), %rsi
	callq	__ZN5alloc5alloc8box_free17h6d044abe8c987edaE
	movq	%r14, %rdi
	callq	__Unwind_Resume
	ud2
Lfunc_end0:
	.cfi_endproc
	.section	__TEXT,__gcc_except_tab
	.p2align	2
GCC_except_table9:
Lexception0:
	.byte	255
	.byte	255
	.byte	1
	.uleb128 Lcst_end0-Lcst_begin0
Lcst_begin0:
	.uleb128 Ltmp0-Lfunc_begin0
	.uleb128 Ltmp1-Ltmp0
	.uleb128 Ltmp2-Lfunc_begin0
	.byte	0
	.uleb128 Ltmp1-Lfunc_begin0
	.uleb128 Lfunc_end0-Ltmp1
	.byte	0
	.byte	0
Lcst_end0:
	.p2align	2

	.section	__TEXT,__text,regular,pure_instructions
	.p2align	4, 0x90
__ZN4core3ptr13drop_in_place17h99a1f1ad32cb4820E:
	.cfi_startproc
	pushq	%rbp
	.cfi_def_cfa_offset 16
	.cfi_offset %rbp, -16
	movq	%rsp, %rbp
	.cfi_def_cfa_register %rbp
	pushq	%rbx
	pushq	%rax
	.cfi_offset %rbx, -24
	movq	%rdi, %rbx
	movq	(%rdi), %rdi
	callq	_pthread_mutex_destroy
	movq	(%rbx), %rdi
	movl	$64, %esi
	movl	$8, %edx
	addq	$8, %rsp
	popq	%rbx
	popq	%rbp
	jmp	___rust_dealloc
	.cfi_endproc

	.p2align	4, 0x90
__ZN4core3ptr13drop_in_place17haa23cc8bfd9e5a88E:
	.cfi_startproc
	pushq	%rbp
	.cfi_def_cfa_offset 16
	.cfi_offset %rbp, -16
	movq	%rsp, %rbp
	.cfi_def_cfa_register %rbp
	pushq	%r14
	pushq	%rbx
	.cfi_offset %rbx, -32
	.cfi_offset %r14, -24
	movq	%rdi, %rbx
	cmpb	$0, 8(%rdi)
	jne	LBB11_4
	movq	(%rbx), %r14
	movq	__ZN3std9panicking11panic_count18GLOBAL_PANIC_COUNT17h5754c1d48a496461E@GOTPCREL(%rip), %rax
	movq	(%rax), %rax
	testq	%rax, %rax
	jne	LBB11_2
LBB11_4:
	movq	(%rbx), %rax
	movq	(%rax), %rdi
	popq	%rbx
	popq	%r14
	popq	%rbp
	jmp	_pthread_mutex_unlock
LBB11_2:
	callq	__ZN3std9panicking11panic_count17is_zero_slow_path17ha588394117c50e3dE
	testb	%al, %al
	jne	LBB11_4
	movb	$1, 8(%r14)
	jmp	LBB11_4
	.cfi_endproc

	.p2align	4, 0x90
__ZN4core3ptr13drop_in_place17hb3b53ce8ff706c5dE:
	.cfi_startproc
	pushq	%rbp
	.cfi_def_cfa_offset 16
	.cfi_offset %rbp, -16
	movq	%rsp, %rbp
	.cfi_def_cfa_register %rbp
	pushq	%r14
	pushq	%rbx
	.cfi_offset %rbx, -32
	.cfi_offset %r14, -24
	movq	%rdi, %rbx
	cmpb	$0, 8(%rdi)
	jne	LBB12_4
	movq	(%rbx), %r14
	movq	__ZN3std9panicking11panic_count18GLOBAL_PANIC_COUNT17h5754c1d48a496461E@GOTPCREL(%rip), %rax
	movq	(%rax), %rax
	testq	%rax, %rax
	jne	LBB12_2
LBB12_4:
	movq	(%rbx), %rax
	movq	(%rax), %rdi
	popq	%rbx
	popq	%r14
	popq	%rbp
	jmp	_pthread_mutex_unlock
LBB12_2:
	callq	__ZN3std9panicking11panic_count17is_zero_slow_path17ha588394117c50e3dE
	testb	%al, %al
	jne	LBB12_4
	movb	$1, 8(%r14)
	jmp	LBB12_4
	.cfi_endproc

	.p2align	4, 0x90
__ZN4core3ptr13drop_in_place17hb72701bfe1c66858E:
	.cfi_startproc
	pushq	%rbp
	.cfi_def_cfa_offset 16
	.cfi_offset %rbp, -16
	movq	%rsp, %rbp
	.cfi_def_cfa_register %rbp
	movq	%rdi, %rax
	movq	(%rdi), %rdi
	testq	%rdi, %rdi
	je	LBB13_2
	movq	8(%rax), %rsi
	testq	%rsi, %rsi
	je	LBB13_2
	movl	$1, %edx
	popq	%rbp
	jmp	___rust_dealloc
LBB13_2:
	popq	%rbp
	retq
	.cfi_endproc

	.p2align	4, 0x90
__ZN4core3ptr13drop_in_place17he8796f8b74a87af9E:
Lfunc_begin1:
	.cfi_startproc
	.cfi_personality 155, _rust_eh_personality
	.cfi_lsda 16, Lexception1
	pushq	%rbp
	.cfi_def_cfa_offset 16
	.cfi_offset %rbp, -16
	movq	%rsp, %rbp
	.cfi_def_cfa_register %rbp
	pushq	%r15
	pushq	%r14
	pushq	%r13
	pushq	%r12
	pushq	%rbx
	subq	$24, %rsp
	.cfi_offset %rbx, -56
	.cfi_offset %r12, -48
	.cfi_offset %r13, -40
	.cfi_offset %r14, -32
	.cfi_offset %r15, -24
	movq	%rdi, %r12
	movq	(%rdi), %rbx
	movq	8(%rdi), %r15
	movq	(%rbx), %rdi
	testq	%rdi, %rdi
	je	LBB14_24
	callq	_pthread_mutex_destroy
	movq	(%rbx), %rdi
	movl	$64, %esi
	movl	$8, %edx
	callq	___rust_dealloc
	movq	16(%rbx), %r14
	movq	32(%rbx), %r13
	testq	%r13, %r13
	je	LBB14_20
	movq	%rbx, -48(%rbp)
	movq	%r15, -56(%rbp)
	movq	%r12, -64(%rbp)
	shlq	$6, %r13
	addq	%r14, %r13
	jmp	LBB14_3
	.p2align	4, 0x90
LBB14_18:
	cmpq	%r13, %r14
	je	LBB14_19
LBB14_3:
	movq	%r14, %r12
	addq	$64, %r14
	movq	40(%r12), %rbx
	testq	%rbx, %rbx
	je	LBB14_18
	movq	56(%r12), %rax
	testq	%rax, %rax
	je	LBB14_14
	leaq	(%rax,%rax,8), %rax
	leaq	(%rbx,%rax,8), %r15
	jmp	LBB14_6
	.p2align	4, 0x90
LBB14_12:
	addq	$72, %rbx
	cmpq	%r15, %rbx
	je	LBB14_13
LBB14_6:
	movq	(%rbx), %rdi
	testq	%rdi, %rdi
	je	LBB14_9
	movq	8(%rbx), %rsi
	testq	%rsi, %rsi
	je	LBB14_9
	movl	$1, %edx
	callq	___rust_dealloc
LBB14_9:
	movq	40(%rbx), %rdi
	testq	%rdi, %rdi
	je	LBB14_12
	movq	48(%rbx), %rsi
	testq	%rsi, %rsi
	je	LBB14_12
	movl	$1, %edx
	callq	___rust_dealloc
	jmp	LBB14_12
	.p2align	4, 0x90
LBB14_13:
	movq	40(%r12), %rbx
LBB14_14:
	movq	48(%r12), %rax
	testq	%rax, %rax
	je	LBB14_18
	testq	%rbx, %rbx
	je	LBB14_18
	shlq	$3, %rax
	leaq	(%rax,%rax,8), %rsi
	testq	%rsi, %rsi
	je	LBB14_18
	movl	$8, %edx
	movq	%rbx, %rdi
	callq	___rust_dealloc
	jmp	LBB14_18
LBB14_19:
	movq	-48(%rbp), %rbx
	movq	16(%rbx), %r14
	movq	-64(%rbp), %r12
	movq	-56(%rbp), %r15
LBB14_20:
	movq	24(%rbx), %rsi
	testq	%rsi, %rsi
	je	LBB14_24
	testq	%r14, %r14
	je	LBB14_24
	shlq	$6, %rsi
	je	LBB14_24
	movl	$8, %edx
	movq	%r14, %rdi
	callq	___rust_dealloc
LBB14_24:
	movq	16(%r15), %rax
	leaq	47(%rax), %rcx
	negq	%rax
	andq	%rax, %rcx
	addq	%rcx, %rbx
Ltmp3:
	movq	%rbx, %rdi
	callq	*(%r15)
Ltmp4:
	movq	8(%r12), %rax
	movq	16(%rax), %rcx
	cmpq	$8, %rcx
	movl	$8, %edx
	cmovaq	%rcx, %rdx
	movq	8(%rax), %rax
	leaq	47(%rax,%rdx), %rax
	movq	%rdx, %rsi
	negq	%rsi
	andq	%rax, %rsi
	je	LBB14_28
	movq	(%r12), %rdi
	addq	$24, %rsp
	popq	%rbx
	popq	%r12
	popq	%r13
	popq	%r14
	popq	%r15
	popq	%rbp
	jmp	___rust_dealloc
LBB14_28:
	addq	$24, %rsp
	popq	%rbx
	popq	%r12
	popq	%r13
	popq	%r14
	popq	%r15
	popq	%rbp
	retq
LBB14_27:
Ltmp5:
	movq	%rax, %r14
	movq	(%r12), %rdi
	movq	8(%r12), %rsi
	callq	__ZN5alloc5alloc8box_free17h6240b6d2c859ef09E
	movq	%r14, %rdi
	callq	__Unwind_Resume
	ud2
Lfunc_end1:
	.cfi_endproc
	.section	__TEXT,__gcc_except_tab
	.p2align	2
GCC_except_table14:
Lexception1:
	.byte	255
	.byte	255
	.byte	1
	.uleb128 Lcst_end1-Lcst_begin1
Lcst_begin1:
	.uleb128 Ltmp3-Lfunc_begin1
	.uleb128 Ltmp4-Ltmp3
	.uleb128 Ltmp5-Lfunc_begin1
	.byte	0
	.uleb128 Ltmp4-Lfunc_begin1
	.uleb128 Lfunc_end1-Ltmp4
	.byte	0
	.byte	0
Lcst_end1:
	.p2align	2

	.section	__TEXT,__text,regular,pure_instructions
	.p2align	4, 0x90
__ZN5alloc5alloc8box_free17h1cd85146725b125fE:
	.cfi_startproc
	pushq	%rbp
	.cfi_def_cfa_offset 16
	.cfi_offset %rbp, -16
	movq	%rsp, %rbp
	.cfi_def_cfa_register %rbp
	movl	$64, %esi
	movl	$8, %edx
	popq	%rbp
	jmp	___rust_dealloc
	.cfi_endproc

	.p2align	4, 0x90
__ZN5alloc5alloc8box_free17h6240b6d2c859ef09E:
	.cfi_startproc
	pushq	%rbp
	.cfi_def_cfa_offset 16
	.cfi_offset %rbp, -16
	movq	%rsp, %rbp
	.cfi_def_cfa_register %rbp
	movq	16(%rsi), %rax
	cmpq	$8, %rax
	movl	$8, %edx
	cmovaq	%rax, %rdx
	movq	8(%rsi), %rax
	leaq	47(%rax,%rdx), %rax
	movq	%rdx, %rsi
	negq	%rsi
	andq	%rax, %rsi
	je	LBB16_1
	popq	%rbp
	jmp	___rust_dealloc
LBB16_1:
	popq	%rbp
	retq
	.cfi_endproc

	.p2align	4, 0x90
__ZN5alloc5alloc8box_free17h6d044abe8c987edaE:
	.cfi_startproc
	pushq	%rbp
	.cfi_def_cfa_offset 16
	.cfi_offset %rbp, -16
	movq	%rsp, %rbp
	.cfi_def_cfa_register %rbp
	movq	%rsi, %rax
	movq	8(%rsi), %rsi
	testq	%rsi, %rsi
	je	LBB17_1
	movq	16(%rax), %rdx
	popq	%rbp
	jmp	___rust_dealloc
LBB17_1:
	popq	%rbp
	retq
	.cfi_endproc

	.p2align	4, 0x90
__ZN66_$LT$core..option..Option$LT$T$GT$$u20$as$u20$core..fmt..Debug$GT$3fmt17ha0cd523705a6a522E:
	.cfi_startproc
	pushq	%rbp
	.cfi_def_cfa_offset 16
	.cfi_offset %rbp, -16
	movq	%rsp, %rbp
	.cfi_def_cfa_register %rbp
	pushq	%r14
	pushq	%rbx
	subq	$32, %rsp
	.cfi_offset %rbx, -32
	.cfi_offset %r14, -24
	cmpq	$0, (%rdi)
	je	LBB18_2
	movq	%rdi, %rbx
	leaq	L___unnamed_2(%rip), %rdx
	leaq	-48(%rbp), %r14
	movl	$4, %ecx
	movq	%r14, %rdi
	callq	__ZN4core3fmt9Formatter11debug_tuple17h6c448643801d07e8E
	movq	%rbx, -24(%rbp)
	leaq	l___unnamed_3(%rip), %rdx
	leaq	-24(%rbp), %rsi
	movq	%r14, %rdi
	callq	__ZN4core3fmt8builders10DebugTuple5field17hc7b676d0e36b51d9E
	movq	%r14, %rdi
	jmp	LBB18_3
LBB18_2:
	leaq	L___unnamed_4(%rip), %rdx
	leaq	-48(%rbp), %rbx
	movl	$4, %ecx
	movq	%rbx, %rdi
	callq	__ZN4core3fmt9Formatter11debug_tuple17h6c448643801d07e8E
	movq	%rbx, %rdi
LBB18_3:
	callq	__ZN4core3fmt8builders10DebugTuple6finish17h9f206806f7096c33E
	addq	$32, %rsp
	popq	%rbx
	popq	%r14
	popq	%rbp
	retq
	.cfi_endproc

	.p2align	4, 0x90
__ZN82_$LT$std..sys_common..poison..PoisonError$LT$T$GT$$u20$as$u20$core..fmt..Debug$GT$3fmt17hae30cfd933f446daE:
	.cfi_startproc
	pushq	%rbp
	.cfi_def_cfa_offset 16
	.cfi_offset %rbp, -16
	movq	%rsp, %rbp
	.cfi_def_cfa_register %rbp
	movq	%rsi, %rdx
	leaq	l___unnamed_5(%rip), %rdi
	movl	$25, %esi
	popq	%rbp
	jmp	__ZN40_$LT$str$u20$as$u20$core..fmt..Debug$GT$3fmt17h5b42b6f497bd434cE
	.cfi_endproc

	.globl	__ZN66_$LT$dyn$u20$failure..Fail$u20$as$u20$failure..as_fail..AsFail$GT$7as_fail17hb76a0d5f3f90ec20E
	.p2align	4, 0x90
__ZN66_$LT$dyn$u20$failure..Fail$u20$as$u20$failure..as_fail..AsFail$GT$7as_fail17hb76a0d5f3f90ec20E:
	.cfi_startproc
	pushq	%rbp
	.cfi_def_cfa_offset 16
	.cfi_offset %rbp, -16
	movq	%rsp, %rbp
	.cfi_def_cfa_register %rbp
	movq	%rsi, %rdx
	movq	%rdi, %rax
	popq	%rbp
	retq
	.cfi_endproc

	.globl	__ZN63_$LT$failure..box_std..BoxStd$u20$as$u20$core..fmt..Display$GT$3fmt17h4e7b8969216718b7E
	.p2align	4, 0x90
__ZN63_$LT$failure..box_std..BoxStd$u20$as$u20$core..fmt..Display$GT$3fmt17h4e7b8969216718b7E:
	.cfi_startproc
	pushq	%rbp
	.cfi_def_cfa_offset 16
	.cfi_offset %rbp, -16
	movq	%rsp, %rbp
	.cfi_def_cfa_register %rbp
	movq	(%rdi), %rax
	movq	8(%rdi), %rcx
	movq	64(%rcx), %rcx
	movq	%rax, %rdi
	popq	%rbp
	jmpq	*%rcx
	.cfi_endproc

	.globl	__ZN61_$LT$failure..box_std..BoxStd$u20$as$u20$core..fmt..Debug$GT$3fmt17h1e1d7619aada8f2aE
	.p2align	4, 0x90
__ZN61_$LT$failure..box_std..BoxStd$u20$as$u20$core..fmt..Debug$GT$3fmt17h1e1d7619aada8f2aE:
	.cfi_startproc
	pushq	%rbp
	.cfi_def_cfa_offset 16
	.cfi_offset %rbp, -16
	movq	%rsp, %rbp
	.cfi_def_cfa_register %rbp
	movq	(%rdi), %rax
	movq	8(%rdi), %rcx
	movq	72(%rcx), %rcx
	movq	%rax, %rdi
	popq	%rbp
	jmpq	*%rcx
	.cfi_endproc

	.p2align	4, 0x90
__ZN7failure4Fail9backtrace17h31b51934a03e92c5E:
	.cfi_startproc
	pushq	%rbp
	.cfi_def_cfa_offset 16
	.cfi_offset %rbp, -16
	movq	%rsp, %rbp
	.cfi_def_cfa_register %rbp
	xorl	%eax, %eax
	popq	%rbp
	retq
	.cfi_endproc

	.p2align	4, 0x90
__ZN7failure4Fail23__private_get_type_id__17h7e9412b67a464a72E:
	.cfi_startproc
	pushq	%rbp
	.cfi_def_cfa_offset 16
	.cfi_offset %rbp, -16
	movq	%rsp, %rbp
	.cfi_def_cfa_register %rbp
	movabsq	$2398406874462643836, %rax
	popq	%rbp
	retq
	.cfi_endproc

	.globl	__ZN30_$LT$dyn$u20$failure..Fail$GT$11iter_causes17h5ec5a77e6159fc53E
	.p2align	4, 0x90
__ZN30_$LT$dyn$u20$failure..Fail$GT$11iter_causes17h5ec5a77e6159fc53E:
	.cfi_startproc
	pushq	%rbp
	.cfi_def_cfa_offset 16
	.cfi_offset %rbp, -16
	movq	%rsp, %rbp
	.cfi_def_cfa_register %rbp
	popq	%rbp
	jmpq	*32(%rsi)
	.cfi_endproc

	.globl	__ZN30_$LT$dyn$u20$failure..Fail$GT$10iter_chain17h18d8095132ca951dE
	.p2align	4, 0x90
__ZN30_$LT$dyn$u20$failure..Fail$GT$10iter_chain17h18d8095132ca951dE:
	.cfi_startproc
	pushq	%rbp
	.cfi_def_cfa_offset 16
	.cfi_offset %rbp, -16
	movq	%rsp, %rbp
	.cfi_def_cfa_register %rbp
	movq	%rsi, %rdx
	movq	%rdi, %rax
	popq	%rbp
	retq
	.cfi_endproc

	.globl	__ZN30_$LT$dyn$u20$failure..Fail$GT$10root_cause17h07b2ce3828e89b5cE
	.p2align	4, 0x90
__ZN30_$LT$dyn$u20$failure..Fail$GT$10root_cause17h07b2ce3828e89b5cE:
	.cfi_startproc
	pushq	%rbp
	.cfi_def_cfa_offset 16
	.cfi_offset %rbp, -16
	movq	%rsp, %rbp
	.cfi_def_cfa_register %rbp
	pushq	%r14
	pushq	%rbx
	.cfi_offset %rbx, -32
	.cfi_offset %r14, -24
	movq	%rsi, %r14
	movq	%rdi, %rbx
	callq	*32(%rsi)
	testq	%rax, %rax
	je	LBB27_3
	.p2align	4, 0x90
LBB27_1:
	movq	%rax, %rbx
	movq	%rdx, %r14
	movq	%rax, %rdi
	callq	*32(%rdx)
	testq	%rax, %rax
	jne	LBB27_1
LBB27_3:
	movq	%rbx, %rax
	movq	%r14, %rdx
	popq	%rbx
	popq	%r14
	popq	%rbp
	retq
	.cfi_endproc

	.globl	__ZN80_$LT$alloc..boxed..Box$LT$dyn$u20$failure..Fail$GT$$u20$as$u20$failure..Fail$GT$5cause17hd674d346b6b1396bE
	.p2align	4, 0x90
__ZN80_$LT$alloc..boxed..Box$LT$dyn$u20$failure..Fail$GT$$u20$as$u20$failure..Fail$GT$5cause17hd674d346b6b1396bE:
	.cfi_startproc
	pushq	%rbp
	.cfi_def_cfa_offset 16
	.cfi_offset %rbp, -16
	movq	%rsp, %rbp
	.cfi_def_cfa_register %rbp
	movq	(%rdi), %rax
	movq	8(%rdi), %rcx
	movq	%rax, %rdi
	popq	%rbp
	jmpq	*32(%rcx)
	.cfi_endproc

	.globl	__ZN80_$LT$alloc..boxed..Box$LT$dyn$u20$failure..Fail$GT$$u20$as$u20$failure..Fail$GT$9backtrace17he13c3ad1a22d90b3E
	.p2align	4, 0x90
__ZN80_$LT$alloc..boxed..Box$LT$dyn$u20$failure..Fail$GT$$u20$as$u20$failure..Fail$GT$9backtrace17he13c3ad1a22d90b3E:
	.cfi_startproc
	pushq	%rbp
	.cfi_def_cfa_offset 16
	.cfi_offset %rbp, -16
	movq	%rsp, %rbp
	.cfi_def_cfa_register %rbp
	movq	(%rdi), %rax
	movq	8(%rdi), %rcx
	movq	%rax, %rdi
	popq	%rbp
	jmpq	*40(%rcx)
	.cfi_endproc

	.globl	__ZN74_$LT$failure..Causes$u20$as$u20$core..iter..traits..iterator..Iterator$GT$4next17hb79e6561cefa0fffE
	.p2align	4, 0x90
__ZN74_$LT$failure..Causes$u20$as$u20$core..iter..traits..iterator..Iterator$GT$4next17hb79e6561cefa0fffE:
	.cfi_startproc
	pushq	%rbp
	.cfi_def_cfa_offset 16
	.cfi_offset %rbp, -16
	movq	%rsp, %rbp
	.cfi_def_cfa_register %rbp
	pushq	%r15
	pushq	%r14
	pushq	%rbx
	pushq	%rax
	.cfi_offset %rbx, -40
	.cfi_offset %r14, -32
	.cfi_offset %r15, -24
	movq	(%rdi), %r15
	movq	8(%rdi), %r14
	testq	%r15, %r15
	je	LBB30_2
	movq	%rdi, %rbx
	movq	%r15, %rdi
	callq	*32(%r14)
	movq	%rax, (%rbx)
	movq	%rdx, 8(%rbx)
LBB30_2:
	movq	%r15, %rax
	movq	%r14, %rdx
	addq	$8, %rsp
	popq	%rbx
	popq	%r14
	popq	%r15
	popq	%rbp
	retq
	.cfi_endproc

	.globl	__ZN66_$LT$failure..error..Error$u20$as$u20$failure..as_fail..AsFail$GT$7as_fail17h233cab16bc38c5e0E
	.p2align	4, 0x90
__ZN66_$LT$failure..error..Error$u20$as$u20$failure..as_fail..AsFail$GT$7as_fail17h233cab16bc38c5e0E:
	.cfi_startproc
	pushq	%rbp
	.cfi_def_cfa_offset 16
	.cfi_offset %rbp, -16
	movq	%rsp, %rbp
	.cfi_def_cfa_register %rbp
	movq	8(%rdi), %rdx
	movq	16(%rdx), %rcx
	leaq	47(%rcx), %rax
	negq	%rcx
	andq	%rcx, %rax
	addq	(%rdi), %rax
	popq	%rbp
	retq
	.cfi_endproc

	.p2align	4, 0x90
__ZN7failure9backtrace8internal17InternalBacktrace12as_backtrace17h070c1c5130d526a1E:
Lfunc_begin2:
	.cfi_startproc
	.cfi_personality 155, _rust_eh_personality
	.cfi_lsda 16, Lexception2
	pushq	%rbp
	.cfi_def_cfa_offset 16
	.cfi_offset %rbp, -16
	movq	%rsp, %rbp
	.cfi_def_cfa_register %rbp
	pushq	%r15
	pushq	%r14
	pushq	%rbx
	subq	$24, %rsp
	.cfi_offset %rbx, -40
	.cfi_offset %r14, -32
	.cfi_offset %r15, -24
	movq	%rdi, %rbx
	movq	(%rdi), %rdi
	testq	%rdi, %rdi
	je	LBB32_1
	callq	_pthread_mutex_lock
	movq	__ZN3std9panicking11panic_count18GLOBAL_PANIC_COUNT17h5754c1d48a496461E@GOTPCREL(%rip), %r15
	movq	(%r15), %rax
	testq	%rax, %rax
	jne	LBB32_4
	xorl	%r14d, %r14d
	movb	8(%rbx), %al
	testb	%al, %al
	jne	LBB32_6
LBB32_9:
	movq	%rbx, -40(%rbp)
	movb	%r14b, -32(%rbp)
	cmpb	$0, 9(%rbx)
	je	LBB32_10
	testb	%r14b, %r14b
	jne	LBB32_16
	jmp	LBB32_13
LBB32_1:
	xorl	%ebx, %ebx
	jmp	LBB32_17
LBB32_10:
	leaq	16(%rbx), %rdi
Ltmp9:
	callq	__ZN9backtrace7capture9Backtrace7resolve17h6165d5175d98ece8E
Ltmp10:
	movb	$1, 9(%rbx)
	testb	%r14b, %r14b
	jne	LBB32_16
LBB32_13:
	movq	(%r15), %rax
	testq	%rax, %rax
	jne	LBB32_14
LBB32_16:
	movq	(%rbx), %rdi
	addq	$16, %rbx
	callq	_pthread_mutex_unlock
LBB32_17:
	movq	%rbx, %rax
	addq	$24, %rsp
	popq	%rbx
	popq	%r14
	popq	%r15
	popq	%rbp
	retq
LBB32_4:
	callq	__ZN3std9panicking11panic_count17is_zero_slow_path17ha588394117c50e3dE
	movl	%eax, %r14d
	xorb	$1, %r14b
	movb	8(%rbx), %al
	testb	%al, %al
	je	LBB32_9
LBB32_6:
	movq	%rbx, -40(%rbp)
	movb	%r14b, -32(%rbp)
Ltmp6:
	leaq	l___unnamed_6(%rip), %rdi
	leaq	l___unnamed_7(%rip), %rcx
	leaq	l___unnamed_8(%rip), %r8
	leaq	-40(%rbp), %rdx
	movl	$43, %esi
	callq	__ZN4core6result13unwrap_failed17hc193898ef513e81fE
Ltmp7:
	ud2
LBB32_14:
	callq	__ZN3std9panicking11panic_count17is_zero_slow_path17ha588394117c50e3dE
	testb	%al, %al
	jne	LBB32_16
	movb	$1, 8(%rbx)
	jmp	LBB32_16
LBB32_8:
Ltmp8:
	movq	%rax, %rbx
	leaq	-40(%rbp), %rdi
	callq	__ZN4core3ptr13drop_in_place17hb3b53ce8ff706c5dE
	jmp	LBB32_19
LBB32_18:
Ltmp11:
	movq	%rax, %rbx
	leaq	-40(%rbp), %rdi
	callq	__ZN4core3ptr13drop_in_place17haa23cc8bfd9e5a88E
LBB32_19:
	movq	%rbx, %rdi
	callq	__Unwind_Resume
	ud2
Lfunc_end2:
	.cfi_endproc
	.section	__TEXT,__gcc_except_tab
	.p2align	2
GCC_except_table32:
Lexception2:
	.byte	255
	.byte	255
	.byte	1
	.uleb128 Lcst_end2-Lcst_begin2
Lcst_begin2:
	.uleb128 Ltmp9-Lfunc_begin2
	.uleb128 Ltmp10-Ltmp9
	.uleb128 Ltmp11-Lfunc_begin2
	.byte	0
	.uleb128 Ltmp10-Lfunc_begin2
	.uleb128 Ltmp6-Ltmp10
	.byte	0
	.byte	0
	.uleb128 Ltmp6-Lfunc_begin2
	.uleb128 Ltmp7-Ltmp6
	.uleb128 Ltmp8-Lfunc_begin2
	.byte	0
	.uleb128 Ltmp7-Lfunc_begin2
	.uleb128 Lfunc_end2-Ltmp7
	.byte	0
	.byte	0
Lcst_end2:
	.p2align	2

	.section	__TEXT,__text,regular,pure_instructions
	.globl	__ZN84_$LT$failure..backtrace..internal..InternalBacktrace$u20$as$u20$core..fmt..Debug$GT$3fmt17h19b3117e6b741eaeE
	.p2align	4, 0x90
__ZN84_$LT$failure..backtrace..internal..InternalBacktrace$u20$as$u20$core..fmt..Debug$GT$3fmt17h19b3117e6b741eaeE:
	.cfi_startproc
	pushq	%rbp
	.cfi_def_cfa_offset 16
	.cfi_offset %rbp, -16
	movq	%rsp, %rbp
	.cfi_def_cfa_register %rbp
	pushq	%r14
	pushq	%rbx
	subq	$32, %rsp
	.cfi_offset %rbx, -32
	.cfi_offset %r14, -24
	movq	%rdi, %rbx
	leaq	l___unnamed_9(%rip), %rdx
	leaq	-40(%rbp), %r14
	movl	$17, %ecx
	movq	%r14, %rdi
	callq	__ZN4core3fmt9Formatter12debug_struct17ha1a64e91d2a98458E
	movq	%rbx, %rdi
	callq	__ZN7failure9backtrace8internal17InternalBacktrace12as_backtrace17h070c1c5130d526a1E
	movq	%rax, -24(%rbp)
	leaq	l___unnamed_10(%rip), %rsi
	leaq	l___unnamed_11(%rip), %r8
	leaq	-24(%rbp), %rcx
	movl	$9, %edx
	movq	%r14, %rdi
	callq	__ZN4core3fmt8builders11DebugStruct5field17h6c54d35ac41bb1e6E
	movq	%rax, %rdi
	callq	__ZN4core3fmt8builders11DebugStruct6finish17h67ed49fd5e81bb24E
	addq	$32, %rsp
	popq	%rbx
	popq	%r14
	popq	%rbp
	retq
	.cfi_endproc

	.globl	__ZN7failure9backtrace9Backtrace3new17h645c6458eb304b48E
	.p2align	4, 0x90
__ZN7failure9backtrace9Backtrace3new17h645c6458eb304b48E:
Lfunc_begin3:
	.cfi_startproc
	.cfi_personality 155, _rust_eh_personality
	.cfi_lsda 16, Lexception3
	pushq	%rbp
	.cfi_def_cfa_offset 16
	.cfi_offset %rbp, -16
	movq	%rsp, %rbp
	.cfi_def_cfa_register %rbp
	pushq	%r15
	pushq	%r14
	pushq	%rbx
	subq	$120, %rsp
	.cfi_offset %rbx, -40
	.cfi_offset %r14, -32
	.cfi_offset %r15, -24
	movq	%rdi, %r14
	movq	__ZN7failure9backtrace8internal17InternalBacktrace3new7ENABLED17hf29037524ba356a0E(%rip), %rax
	cmpq	$1, %rax
	je	LBB34_26
	testq	%rax, %rax
	jne	LBB34_21
Ltmp12:
	leaq	l___unnamed_12(%rip), %rsi
	leaq	-64(%rbp), %rdi
	movl	$22, %edx
	callq	__ZN3std3env7_var_os17hc628b18a701aa4a3E
Ltmp13:
	cmpq	$0, -64(%rbp)
	je	LBB34_10
Ltmp15:
	leaq	l___unnamed_13(%rip), %rsi
	leaq	-64(%rbp), %rdi
	movl	$1, %edx
	callq	__ZN78_$LT$std..ffi..os_str..OsString$u20$as$u20$core..cmp..PartialEq$LT$str$GT$$GT$2eq17h3c7d124d61620464E
Ltmp16:
	movb	$1, %bl
	testb	%al, %al
	je	LBB34_17
Ltmp17:
	leaq	l___unnamed_13(%rip), %rsi
	leaq	-64(%rbp), %rdi
	movl	$1, %edx
	callq	__ZN78_$LT$std..ffi..os_str..OsString$u20$as$u20$core..cmp..PartialEq$LT$str$GT$$GT$2eq17h3c7d124d61620464E
Ltmp18:
	testb	%al, %al
	jne	LBB34_16
LBB34_10:
Ltmp19:
	leaq	l___unnamed_14(%rip), %rsi
	leaq	-104(%rbp), %rdi
	movl	$14, %edx
	callq	__ZN3std3env7_var_os17hc628b18a701aa4a3E
Ltmp20:
	cmpq	$0, -104(%rbp)
	je	LBB34_16
Ltmp22:
	leaq	l___unnamed_13(%rip), %rsi
	leaq	-104(%rbp), %rdi
	movl	$1, %edx
	callq	__ZN78_$LT$std..ffi..os_str..OsString$u20$as$u20$core..cmp..PartialEq$LT$str$GT$$GT$2eq17h3c7d124d61620464E
Ltmp23:
	movl	%eax, %ebx
	xorb	$1, %bl
	movq	-104(%rbp), %rdi
	testq	%rdi, %rdi
	je	LBB34_17
	movq	-96(%rbp), %rsi
	testq	%rsi, %rsi
	je	LBB34_17
	movl	$1, %edx
	callq	___rust_dealloc
	jmp	LBB34_17
LBB34_16:
	xorl	%ebx, %ebx
LBB34_17:
	movq	-64(%rbp), %rdi
	testq	%rdi, %rdi
	je	LBB34_20
	movq	-56(%rbp), %rsi
	testq	%rsi, %rsi
	je	LBB34_20
	movl	$1, %edx
	callq	___rust_dealloc
LBB34_20:
	movzbl	%bl, %eax
	leaq	1(%rax), %rcx
	xchgq	%rcx, __ZN7failure9backtrace8internal17InternalBacktrace3new7ENABLED17hf29037524ba356a0E(%rip)
	testb	%al, %al
	je	LBB34_26
LBB34_21:
	movl	$64, %edi
	movl	$8, %esi
	callq	___rust_alloc
	testq	%rax, %rax
	je	LBB34_28
	movq	%rax, %rbx
Ltmp25:
	movq	%rax, %rdi
	callq	__ZN3std10sys_common5mutex5Mutex3new17hfec750c2ce1161a9E
Ltmp26:
	movq	%rbx, -104(%rbp)
Ltmp28:
	callq	__ZN3std10sys_common6poison4Flag3new17hd7ec4e2336668a12E
Ltmp29:
	movq	%rbx, -64(%rbp)
	movb	%al, -56(%rbp)
	movb	$0, -55(%rbp)
	leaq	-104(%rbp), %r15
	movq	%r15, %rdi
	callq	_pthread_mutexattr_init
	movq	%r15, %rdi
	xorl	%esi, %esi
	callq	_pthread_mutexattr_settype
	movq	%rbx, %rdi
	movq	%r15, %rsi
	callq	_pthread_mutex_init
	movq	%r15, %rdi
	callq	_pthread_mutexattr_destroy
Ltmp31:
	leaq	-104(%rbp), %rdi
	callq	__ZN9backtrace7capture9Backtrace14new_unresolved17h72417d7e0503cb14E
Ltmp32:
	movq	-88(%rbp), %rax
	movq	-80(%rbp), %rcx
	movq	-104(%rbp), %rdx
	movq	-96(%rbp), %rsi
	movq	-56(%rbp), %rdi
	movq	%rdi, -104(%rbp)
	movq	%rdx, -96(%rbp)
	movq	%rsi, -88(%rbp)
	movq	%rcx, -32(%rbp)
	movq	%rax, -40(%rbp)
	movq	%rsi, -48(%rbp)
	movq	%rdx, -56(%rbp)
	movq	%rdi, -64(%rbp)
	jmp	LBB34_27
LBB34_26:
	xorl	%ebx, %ebx
LBB34_27:
	movq	%rbx, (%r14)
	movq	-64(%rbp), %rax
	movq	-56(%rbp), %rcx
	movq	%rax, 8(%r14)
	movq	%rcx, 16(%r14)
	movq	-48(%rbp), %rax
	movq	%rax, 24(%r14)
	movq	-40(%rbp), %rax
	movq	%rax, 32(%r14)
	movq	-32(%rbp), %rax
	movq	%rax, 40(%r14)
	movq	%r14, %rax
	addq	$120, %rsp
	popq	%rbx
	popq	%r14
	popq	%r15
	popq	%rbp
	retq
LBB34_28:
	movl	$64, %edi
	movl	$8, %esi
	callq	__ZN5alloc5alloc18handle_alloc_error17h28974197717b8939E
LBB34_29:
Ltmp24:
	movq	%rax, %r14
	leaq	-104(%rbp), %rdi
	callq	__ZN4core3ptr13drop_in_place17hb72701bfe1c66858E
	jmp	LBB34_32
LBB34_30:
Ltmp14:
	movq	%rax, %r14
	jmp	LBB34_36
LBB34_31:
Ltmp21:
	movq	%rax, %r14
LBB34_32:
	leaq	-64(%rbp), %rdi
	callq	__ZN4core3ptr13drop_in_place17hb72701bfe1c66858E
	jmp	LBB34_36
LBB34_33:
Ltmp33:
	movq	%rax, %r14
	leaq	-64(%rbp), %rdi
	callq	__ZN4core3ptr13drop_in_place17h99a1f1ad32cb4820E
	jmp	LBB34_36
LBB34_34:
Ltmp30:
	movq	%rax, %r14
	leaq	-104(%rbp), %rdi
	callq	__ZN4core3ptr13drop_in_place17h31eea91f7197f110E
	jmp	LBB34_36
LBB34_35:
Ltmp27:
	movq	%rax, %r14
	movq	%rbx, %rdi
	callq	__ZN5alloc5alloc8box_free17h1cd85146725b125fE
LBB34_36:
	movq	%r14, %rdi
	callq	__Unwind_Resume
	ud2
Lfunc_end3:
	.cfi_endproc
	.section	__TEXT,__gcc_except_tab
	.p2align	2
GCC_except_table34:
Lexception3:
	.byte	255
	.byte	255
	.byte	1
	.uleb128 Lcst_end3-Lcst_begin3
Lcst_begin3:
	.uleb128 Ltmp12-Lfunc_begin3
	.uleb128 Ltmp13-Ltmp12
	.uleb128 Ltmp14-Lfunc_begin3
	.byte	0
	.uleb128 Ltmp15-Lfunc_begin3
	.uleb128 Ltmp20-Ltmp15
	.uleb128 Ltmp21-Lfunc_begin3
	.byte	0
	.uleb128 Ltmp22-Lfunc_begin3
	.uleb128 Ltmp23-Ltmp22
	.uleb128 Ltmp24-Lfunc_begin3
	.byte	0
	.uleb128 Ltmp25-Lfunc_begin3
	.uleb128 Ltmp26-Ltmp25
	.uleb128 Ltmp27-Lfunc_begin3
	.byte	0
	.uleb128 Ltmp28-Lfunc_begin3
	.uleb128 Ltmp29-Ltmp28
	.uleb128 Ltmp30-Lfunc_begin3
	.byte	0
	.uleb128 Ltmp31-Lfunc_begin3
	.uleb128 Ltmp32-Ltmp31
	.uleb128 Ltmp33-Lfunc_begin3
	.byte	0
	.uleb128 Ltmp32-Lfunc_begin3
	.uleb128 Lfunc_end3-Ltmp32
	.byte	0
	.byte	0
Lcst_end3:
	.p2align	2

	.section	__TEXT,__text,regular,pure_instructions
	.globl	__ZN7failure9backtrace9Backtrace4none17h0c290b503bf97ef5E
	.p2align	4, 0x90
__ZN7failure9backtrace9Backtrace4none17h0c290b503bf97ef5E:
	.cfi_startproc
	pushq	%rbp
	.cfi_def_cfa_offset 16
	.cfi_offset %rbp, -16
	movq	%rsp, %rbp
	.cfi_def_cfa_register %rbp
	movq	%rdi, %rax
	movq	$0, (%rdi)
	popq	%rbp
	retq
	.cfi_endproc

	.globl	__ZN7failure9backtrace9Backtrace8is_empty17h4d2db7d32d85e880E
	.p2align	4, 0x90
__ZN7failure9backtrace9Backtrace8is_empty17h4d2db7d32d85e880E:
	.cfi_startproc
	pushq	%rbp
	.cfi_def_cfa_offset 16
	.cfi_offset %rbp, -16
	movq	%rsp, %rbp
	.cfi_def_cfa_register %rbp
	cmpq	$0, (%rdi)
	sete	%al
	popq	%rbp
	retq
	.cfi_endproc

	.globl	__ZN72_$LT$failure..backtrace..Backtrace$u20$as$u20$core..default..Default$GT$7default17h7c58dd4109bb6290E
	.p2align	4, 0x90
__ZN72_$LT$failure..backtrace..Backtrace$u20$as$u20$core..default..Default$GT$7default17h7c58dd4109bb6290E:
	.cfi_startproc
	pushq	%rbp
	.cfi_def_cfa_offset 16
	.cfi_offset %rbp, -16
	movq	%rsp, %rbp
	.cfi_def_cfa_register %rbp
	pushq	%rbx
	pushq	%rax
	.cfi_offset %rbx, -24
	movq	%rdi, %rbx
	callq	__ZN7failure9backtrace9Backtrace3new17h645c6458eb304b48E
	movq	%rbx, %rax
	addq	$8, %rsp
	popq	%rbx
	popq	%rbp
	retq
	.cfi_endproc

	.globl	__ZN66_$LT$failure..backtrace..Backtrace$u20$as$u20$core..fmt..Debug$GT$3fmt17hd0a687e3209b84ceE
	.p2align	4, 0x90
__ZN66_$LT$failure..backtrace..Backtrace$u20$as$u20$core..fmt..Debug$GT$3fmt17hd0a687e3209b84ceE:
	.cfi_startproc
	pushq	%rbp
	.cfi_def_cfa_offset 16
	.cfi_offset %rbp, -16
	movq	%rsp, %rbp
	.cfi_def_cfa_register %rbp
	pushq	%rbx
	pushq	%rax
	.cfi_offset %rbx, -24
	movq	%rsi, %rbx
	callq	__ZN7failure9backtrace8internal17InternalBacktrace12as_backtrace17h070c1c5130d526a1E
	testq	%rax, %rax
	je	LBB38_1
	movq	%rax, %rdi
	movq	%rbx, %rsi
	addq	$8, %rsp
	popq	%rbx
	popq	%rbp
	jmp	__ZN66_$LT$backtrace..capture..Backtrace$u20$as$u20$core..fmt..Debug$GT$3fmt17h70e6919796d2f3b7E
LBB38_1:
	xorl	%eax, %eax
	addq	$8, %rsp
	popq	%rbx
	popq	%rbp
	retq
	.cfi_endproc

	.p2align	4, 0x90
__ZN69_$LT$failure..compat..Compat$LT$E$GT$$u20$as$u20$core..fmt..Debug$GT$3fmt17h8dc9562d588f9fb2E:
	.cfi_startproc
	pushq	%rbp
	.cfi_def_cfa_offset 16
	.cfi_offset %rbp, -16
	movq	%rsp, %rbp
	.cfi_def_cfa_register %rbp
	pushq	%r14
	pushq	%rbx
	subq	$32, %rsp
	.cfi_offset %rbx, -32
	.cfi_offset %r14, -24
	movq	%rdi, %rbx
	leaq	l___unnamed_15(%rip), %rdx
	leaq	-40(%rbp), %r14
	movl	$6, %ecx
	movq	%r14, %rdi
	callq	__ZN4core3fmt9Formatter12debug_struct17ha1a64e91d2a98458E
	movq	%rbx, -24(%rbp)
	leaq	l___unnamed_16(%rip), %rsi
	leaq	l___unnamed_17(%rip), %r8
	leaq	-24(%rbp), %rcx
	movl	$5, %edx
	movq	%r14, %rdi
	callq	__ZN4core3fmt8builders11DebugStruct5field17h6c54d35ac41bb1e6E
	movq	%r14, %rdi
	callq	__ZN4core3fmt8builders11DebugStruct6finish17h67ed49fd5e81bb24E
	addq	$32, %rsp
	popq	%rbx
	popq	%r14
	popq	%rbp
	retq
	.cfi_endproc

	.p2align	4, 0x90
__ZN70_$LT$failure..compat..Compat$LT$E$GT$$u20$as$u20$std..error..Error$GT$11description17h91c0c9fbbd7b3d5bE:
	.cfi_startproc
	pushq	%rbp
	.cfi_def_cfa_offset 16
	.cfi_offset %rbp, -16
	movq	%rsp, %rbp
	.cfi_def_cfa_register %rbp
	leaq	l___unnamed_18(%rip), %rax
	movl	$22, %edx
	popq	%rbp
	retq
	.cfi_endproc

	.globl	__ZN7failure6compat129_$LT$impl$u20$core..convert..From$LT$failure..error..Error$GT$$u20$for$u20$alloc..boxed..Box$LT$dyn$u20$std..error..Error$GT$$GT$4from17h6c0152f0bfe024d1E
	.p2align	4, 0x90
__ZN7failure6compat129_$LT$impl$u20$core..convert..From$LT$failure..error..Error$GT$$u20$for$u20$alloc..boxed..Box$LT$dyn$u20$std..error..Error$GT$$GT$4from17h6c0152f0bfe024d1E:
	.cfi_startproc
	pushq	%rbp
	.cfi_def_cfa_offset 16
	.cfi_offset %rbp, -16
	movq	%rsp, %rbp
	.cfi_def_cfa_register %rbp
	pushq	%r14
	pushq	%rbx
	.cfi_offset %rbx, -32
	.cfi_offset %r14, -24
	movq	%rsi, %r14
	movq	%rdi, %rbx
	movl	$16, %edi
	movl	$8, %esi
	callq	___rust_alloc
	testq	%rax, %rax
	je	LBB41_2
	movq	%rbx, (%rax)
	movq	%r14, 8(%rax)
	leaq	l___unnamed_19(%rip), %rdx
	popq	%rbx
	popq	%r14
	popq	%rbp
	retq
LBB41_2:
	movl	$16, %edi
	movl	$8, %esi
	callq	__ZN5alloc5alloc18handle_alloc_error17h28974197717b8939E
	.cfi_endproc

	.globl	__ZN7failure7context67Either$LT$failure..backtrace..Backtrace$C$failure..error..Error$GT$9backtrace17h765e7c6080fd0c7eE
	.p2align	4, 0x90
__ZN7failure7context67Either$LT$failure..backtrace..Backtrace$C$failure..error..Error$GT$9backtrace17h765e7c6080fd0c7eE:
	.cfi_startproc
	pushq	%rbp
	.cfi_def_cfa_offset 16
	.cfi_offset %rbp, -16
	movq	%rsp, %rbp
	.cfi_def_cfa_register %rbp
	pushq	%rbx
	pushq	%rax
	.cfi_offset %rbx, -24
	movq	%rdi, %rax
	cmpl	$1, (%rdi)
	jne	LBB42_2
	movq	8(%rax), %rbx
	movq	16(%rax), %rax
	movq	16(%rax), %rcx
	leaq	47(%rcx), %rdi
	negq	%rcx
	andq	%rcx, %rdi
	addq	%rbx, %rdi
	callq	*40(%rax)
	testq	%rax, %rax
	cmoveq	%rbx, %rax
	addq	$8, %rsp
	popq	%rbx
	popq	%rbp
	retq
LBB42_2:
	addq	$8, %rax
	addq	$8, %rsp
	popq	%rbx
	popq	%rbp
	retq
	.cfi_endproc

	.globl	__ZN7failure7context67Either$LT$failure..backtrace..Backtrace$C$failure..error..Error$GT$8as_cause17h644dd1312dc71ed7E
	.p2align	4, 0x90
__ZN7failure7context67Either$LT$failure..backtrace..Backtrace$C$failure..error..Error$GT$8as_cause17h644dd1312dc71ed7E:
	.cfi_startproc
	pushq	%rbp
	.cfi_def_cfa_offset 16
	.cfi_offset %rbp, -16
	movq	%rsp, %rbp
	.cfi_def_cfa_register %rbp
	cmpl	$1, (%rdi)
	jne	LBB43_1
	movq	16(%rdi), %rdx
	movq	16(%rdx), %rcx
	leaq	47(%rcx), %rax
	negq	%rcx
	andq	%rcx, %rax
	addq	8(%rdi), %rax
	popq	%rbp
	retq
LBB43_1:
	xorl	%eax, %eax
	popq	%rbp
	retq
	.cfi_endproc

	.globl	__ZN122_$LT$failure..context..Either$LT$failure..backtrace..Backtrace$C$failure..error..Error$GT$$u20$as$u20$core..fmt..Debug$GT$3fmt17h01ebbab055869c3fE
	.p2align	4, 0x90
__ZN122_$LT$failure..context..Either$LT$failure..backtrace..Backtrace$C$failure..error..Error$GT$$u20$as$u20$core..fmt..Debug$GT$3fmt17h01ebbab055869c3fE:
	.cfi_startproc
	pushq	%rbp
	.cfi_def_cfa_offset 16
	.cfi_offset %rbp, -16
	movq	%rsp, %rbp
	.cfi_def_cfa_register %rbp
	subq	$80, %rsp
	movq	%rsi, %rax
	cmpl	$1, (%rdi)
	jne	LBB44_2
	addq	$8, %rdi
	movq	%rdi, -8(%rbp)
	leaq	-8(%rbp), %rcx
	movq	%rcx, -24(%rbp)
	leaq	__ZN42_$LT$$RF$T$u20$as$u20$core..fmt..Debug$GT$3fmt17h3674c6237e059b7bE(%rip), %rcx
	jmp	LBB44_3
LBB44_2:
	addq	$8, %rdi
	movq	%rdi, -8(%rbp)
	leaq	-8(%rbp), %rcx
	movq	%rcx, -24(%rbp)
	leaq	__ZN42_$LT$$RF$T$u20$as$u20$core..fmt..Debug$GT$3fmt17h38ba37ea1c5c2d47E(%rip), %rcx
LBB44_3:
	movq	%rcx, -16(%rbp)
	leaq	l___unnamed_20(%rip), %rcx
	movq	%rcx, -72(%rbp)
	movq	$1, -64(%rbp)
	movq	$0, -56(%rbp)
	leaq	-24(%rbp), %rcx
	movq	%rcx, -40(%rbp)
	movq	$1, -32(%rbp)
	leaq	-72(%rbp), %rsi
	movq	%rax, %rdi
	callq	__ZN4core3fmt9Formatter9write_fmt17h742ca6aae87ad23cE
	addq	$80, %rsp
	popq	%rbp
	retq
	.cfi_endproc

	.globl	__ZN7failure5error10error_impl9ErrorImpl11failure_mut17h1f2e8504a611f6c0E
	.p2align	4, 0x90
__ZN7failure5error10error_impl9ErrorImpl11failure_mut17h1f2e8504a611f6c0E:
	.cfi_startproc
	pushq	%rbp
	.cfi_def_cfa_offset 16
	.cfi_offset %rbp, -16
	movq	%rsp, %rbp
	.cfi_def_cfa_register %rbp
	movq	8(%rdi), %rdx
	movq	16(%rdx), %rcx
	leaq	47(%rcx), %rax
	negq	%rcx
	andq	%rcx, %rax
	addq	(%rdi), %rax
	popq	%rbp
	retq
	.cfi_endproc

	.globl	__ZN7failure5error5Error17from_boxed_compat17h90963fea0ec12bd3E
	.p2align	4, 0x90
__ZN7failure5error5Error17from_boxed_compat17h90963fea0ec12bd3E:
Lfunc_begin4:
	.cfi_startproc
	.cfi_personality 155, _rust_eh_personality
	.cfi_lsda 16, Lexception4
	pushq	%rbp
	.cfi_def_cfa_offset 16
	.cfi_offset %rbp, -16
	movq	%rsp, %rbp
	.cfi_def_cfa_register %rbp
	pushq	%r15
	pushq	%r14
	pushq	%rbx
	subq	$120, %rsp
	.cfi_offset %rbx, -40
	.cfi_offset %r14, -32
	.cfi_offset %r15, -24
	movq	%rsi, %r14
	movq	%rdi, %r15
	movq	%rdi, -88(%rbp)
	movq	%rsi, -80(%rbp)
Ltmp34:
	leaq	-72(%rbp), %rdi
	callq	__ZN7failure9backtrace9Backtrace3new17h645c6458eb304b48E
Ltmp35:
	movq	-32(%rbp), %rax
	movq	%rax, -96(%rbp)
	movq	-40(%rbp), %rcx
	movq	%rcx, -104(%rbp)
	movq	-48(%rbp), %rdx
	movq	%rdx, -112(%rbp)
	movq	-56(%rbp), %rsi
	movq	%rsi, -120(%rbp)
	movq	-72(%rbp), %rdi
	movq	-64(%rbp), %rbx
	movq	%rbx, -128(%rbp)
	movq	%rdi, -136(%rbp)
	movq	%rax, -32(%rbp)
	movq	%rcx, -40(%rbp)
	movq	%rdx, -48(%rbp)
	movq	%rsi, -56(%rbp)
	movq	%rbx, -64(%rbp)
	movq	%rdi, -72(%rbp)
	movl	$64, %edi
	movl	$8, %esi
	callq	___rust_alloc
	testq	%rax, %rax
	je	LBB46_4
	movq	-32(%rbp), %rcx
	movq	%rcx, 40(%rax)
	movq	-40(%rbp), %rcx
	movq	%rcx, 32(%rax)
	movq	-48(%rbp), %rcx
	movq	%rcx, 24(%rax)
	movq	-56(%rbp), %rcx
	movq	%rcx, 16(%rax)
	movq	-72(%rbp), %rcx
	movq	-64(%rbp), %rdx
	movq	%rdx, 8(%rax)
	movq	%rcx, (%rax)
	movq	%r15, 48(%rax)
	movq	%r14, 56(%rax)
	leaq	l___unnamed_21(%rip), %rdx
	addq	$120, %rsp
	popq	%rbx
	popq	%r14
	popq	%r15
	popq	%rbp
	retq
LBB46_4:
	movl	$64, %edi
	movl	$8, %esi
	callq	__ZN5alloc5alloc18handle_alloc_error17h28974197717b8939E
LBB46_3:
Ltmp36:
	movq	%rax, %rbx
	leaq	-88(%rbp), %rdi
	callq	__ZN4core3ptr13drop_in_place17h449e9a324a835014E
	movq	%rbx, %rdi
	callq	__Unwind_Resume
	ud2
Lfunc_end4:
	.cfi_endproc
	.section	__TEXT,__gcc_except_tab
	.p2align	2
GCC_except_table46:
Lexception4:
	.byte	255
	.byte	255
	.byte	1
	.uleb128 Lcst_end4-Lcst_begin4
Lcst_begin4:
	.uleb128 Ltmp34-Lfunc_begin4
	.uleb128 Ltmp35-Ltmp34
	.uleb128 Ltmp36-Lfunc_begin4
	.byte	0
	.uleb128 Ltmp35-Lfunc_begin4
	.uleb128 Lfunc_end4-Ltmp35
	.byte	0
	.byte	0
Lcst_end4:
	.p2align	2

	.section	__TEXT,__text,regular,pure_instructions
	.globl	__ZN7failure5error5Error4name17h28f49871eb90ae72E
	.p2align	4, 0x90
__ZN7failure5error5Error4name17h28f49871eb90ae72E:
	.cfi_startproc
	pushq	%rbp
	.cfi_def_cfa_offset 16
	.cfi_offset %rbp, -16
	movq	%rsp, %rbp
	.cfi_def_cfa_register %rbp
	movq	8(%rdi), %rcx
	movq	16(%rcx), %rdx
	leaq	47(%rdx), %rax
	negq	%rdx
	andq	%rdx, %rax
	addq	(%rdi), %rax
	movq	%rax, %rdi
	popq	%rbp
	jmpq	*24(%rcx)
	.cfi_endproc

	.globl	__ZN7failure5error5Error9backtrace17hcfde11ade6407fc5E
	.p2align	4, 0x90
__ZN7failure5error5Error9backtrace17hcfde11ade6407fc5E:
	.cfi_startproc
	pushq	%rbp
	.cfi_def_cfa_offset 16
	.cfi_offset %rbp, -16
	movq	%rsp, %rbp
	.cfi_def_cfa_register %rbp
	pushq	%rbx
	pushq	%rax
	.cfi_offset %rbx, -24
	movq	(%rdi), %rbx
	movq	8(%rdi), %rax
	movq	16(%rax), %rcx
	leaq	47(%rcx), %rdi
	negq	%rcx
	andq	%rcx, %rdi
	addq	%rbx, %rdi
	callq	*40(%rax)
	testq	%rax, %rax
	cmoveq	%rbx, %rax
	addq	$8, %rsp
	popq	%rbx
	popq	%rbp
	retq
	.cfi_endproc

	.globl	__ZN7failure5error5Error6compat17hab17662bbf92f626E
	.p2align	4, 0x90
__ZN7failure5error5Error6compat17hab17662bbf92f626E:
	.cfi_startproc
	pushq	%rbp
	.cfi_def_cfa_offset 16
	.cfi_offset %rbp, -16
	movq	%rsp, %rbp
	.cfi_def_cfa_register %rbp
	movq	%rsi, %rdx
	movq	%rdi, %rax
	popq	%rbp
	retq
	.cfi_endproc

	.globl	__ZN7failure5error5Error11iter_causes17hfcf1555d5859f109E
	.p2align	4, 0x90
__ZN7failure5error5Error11iter_causes17hfcf1555d5859f109E:
	.cfi_startproc
	pushq	%rbp
	.cfi_def_cfa_offset 16
	.cfi_offset %rbp, -16
	movq	%rsp, %rbp
	.cfi_def_cfa_register %rbp
	movq	8(%rdi), %rcx
	movq	16(%rcx), %rdx
	leaq	47(%rdx), %rax
	negq	%rdx
	andq	%rdx, %rax
	addq	(%rdi), %rax
	movq	%rax, %rdi
	popq	%rbp
	jmpq	*32(%rcx)
	.cfi_endproc

	.globl	__ZN7failure5error5Error10iter_chain17hf278662645000fdaE
	.p2align	4, 0x90
__ZN7failure5error5Error10iter_chain17hf278662645000fdaE:
	.cfi_startproc
	pushq	%rbp
	.cfi_def_cfa_offset 16
	.cfi_offset %rbp, -16
	movq	%rsp, %rbp
	.cfi_def_cfa_register %rbp
	movq	8(%rdi), %rdx
	movq	16(%rdx), %rcx
	leaq	47(%rcx), %rax
	negq	%rcx
	andq	%rcx, %rax
	addq	(%rdi), %rax
	popq	%rbp
	retq
	.cfi_endproc

	.globl	__ZN7failure5error5Error10root_cause17h33ef290f2c4e6bc7E
	.p2align	4, 0x90
__ZN7failure5error5Error10root_cause17h33ef290f2c4e6bc7E:
	.cfi_startproc
	pushq	%rbp
	.cfi_def_cfa_offset 16
	.cfi_offset %rbp, -16
	movq	%rsp, %rbp
	.cfi_def_cfa_register %rbp
	pushq	%r14
	pushq	%rbx
	.cfi_offset %rbx, -32
	.cfi_offset %r14, -24
	movq	8(%rdi), %r14
	movq	16(%r14), %rax
	leaq	47(%rax), %rbx
	negq	%rax
	andq	%rax, %rbx
	addq	(%rdi), %rbx
	movq	%rbx, %rdi
	callq	*32(%r14)
	testq	%rax, %rax
	je	LBB52_3
	.p2align	4, 0x90
LBB52_1:
	movq	%rax, %rbx
	movq	%rdx, %r14
	movq	%rax, %rdi
	callq	*32(%rdx)
	testq	%rax, %rax
	jne	LBB52_1
LBB52_3:
	movq	%rbx, %rax
	movq	%r14, %rdx
	popq	%rbx
	popq	%r14
	popq	%rbp
	retq
	.cfi_endproc

	.globl	__ZN60_$LT$failure..error..Error$u20$as$u20$core..fmt..Display$GT$3fmt17h38eba464e713eda0E
	.p2align	4, 0x90
__ZN60_$LT$failure..error..Error$u20$as$u20$core..fmt..Display$GT$3fmt17h38eba464e713eda0E:
	.cfi_startproc
	pushq	%rbp
	.cfi_def_cfa_offset 16
	.cfi_offset %rbp, -16
	movq	%rsp, %rbp
	.cfi_def_cfa_register %rbp
	movq	8(%rdi), %rax
	movq	16(%rax), %rcx
	movq	88(%rax), %rdx
	leaq	47(%rcx), %rax
	negq	%rcx
	andq	%rcx, %rax
	addq	(%rdi), %rax
	movq	%rax, %rdi
	popq	%rbp
	jmpq	*%rdx
	.cfi_endproc

	.globl	__ZN58_$LT$failure..error..Error$u20$as$u20$core..fmt..Debug$GT$3fmt17h0d70c698f1b3235eE
	.p2align	4, 0x90
__ZN58_$LT$failure..error..Error$u20$as$u20$core..fmt..Debug$GT$3fmt17h0d70c698f1b3235eE:
	.cfi_startproc
	pushq	%rbp
	.cfi_def_cfa_offset 16
	.cfi_offset %rbp, -16
	movq	%rsp, %rbp
	.cfi_def_cfa_register %rbp
	subq	$112, %rsp
	movq	%rdi, %rax
	movq	(%rdi), %rdi
	movq	%rdi, -8(%rbp)
	cmpq	$0, (%rdi)
	je	LBB54_2
	movq	8(%rax), %rax
	movq	16(%rax), %rcx
	leaq	47(%rcx), %rdx
	negq	%rcx
	andq	%rcx, %rdx
	addq	%rdx, %rdi
	movq	%rdi, -32(%rbp)
	movq	%rax, -24(%rbp)
	leaq	-32(%rbp), %rax
	movq	%rax, -16(%rbp)
	leaq	-16(%rbp), %rax
	movq	%rax, -64(%rbp)
	leaq	__ZN42_$LT$$RF$T$u20$as$u20$core..fmt..Debug$GT$3fmt17haa7ef83c5194355aE(%rip), %rax
	movq	%rax, -56(%rbp)
	leaq	-8(%rbp), %rax
	movq	%rax, -48(%rbp)
	leaq	__ZN42_$LT$$RF$T$u20$as$u20$core..fmt..Debug$GT$3fmt17h38ba37ea1c5c2d47E(%rip), %rax
	movq	%rax, -40(%rbp)
	leaq	l___unnamed_1(%rip), %rax
	movq	%rax, -112(%rbp)
	movq	$2, -104(%rbp)
	movq	$0, -96(%rbp)
	leaq	-64(%rbp), %rax
	movq	%rax, -80(%rbp)
	movq	$2, -72(%rbp)
	leaq	-112(%rbp), %rax
	movq	%rsi, %rdi
	movq	%rax, %rsi
	callq	__ZN4core3fmt9Formatter9write_fmt17h742ca6aae87ad23cE
	addq	$112, %rsp
	popq	%rbp
	retq
LBB54_2:
	movq	8(%rax), %rax
	movq	16(%rax), %rcx
	leaq	47(%rcx), %rdx
	negq	%rcx
	andq	%rcx, %rdx
	addq	%rdx, %rdi
	callq	*96(%rax)
	addq	$112, %rsp
	popq	%rbp
	retq
	.cfi_endproc

	.section	__TEXT,__const
l___unnamed_6:
	.ascii	"called `Result::unwrap()` on an `Err` value"

	.section	__DATA,__const
	.p2align	3
l___unnamed_7:
	.quad	__ZN4core3ptr13drop_in_place17hb3b53ce8ff706c5dE
	.quad	16
	.quad	8
	.quad	__ZN82_$LT$std..sys_common..poison..PoisonError$LT$T$GT$$u20$as$u20$core..fmt..Debug$GT$3fmt17hae30cfd933f446daE

	.section	__TEXT,__literal4,4byte_literals
L___unnamed_2:
	.ascii	"Some"

	.section	__DATA,__const
	.p2align	3
l___unnamed_3:
	.quad	__ZN4core3ptr13drop_in_place17h0364d982480f01e9E
	.quad	8
	.quad	8
	.quad	__ZN42_$LT$$RF$T$u20$as$u20$core..fmt..Debug$GT$3fmt17hb15c79a9b7cc8400E

	.section	__TEXT,__literal4,4byte_literals
L___unnamed_4:
	.ascii	"None"

	.section	__TEXT,__const
l___unnamed_5:
	.ascii	"PoisonError { inner: .. }"

l___unnamed_22:
	.ascii	"/Users/yingyuhang/.cargo/registry/src/github.com-1ecc6299db9ec823/failure-0.1.8/src/backtrace/internal.rs"

.zerofill __DATA,__bss,__ZN7failure9backtrace8internal17InternalBacktrace3new7ENABLED17hf29037524ba356a0E,8,3
	.section	__DATA,__const
	.p2align	3
l___unnamed_8:
	.quad	l___unnamed_22
	.asciz	"i\000\000\000\000\000\000\000<\000\000\000/\000\000"

	.section	__TEXT,__const
l___unnamed_9:
	.ascii	"InternalBacktrace"

l___unnamed_10:
	.ascii	"backtrace"

	.section	__DATA,__const
	.p2align	3
l___unnamed_11:
	.quad	__ZN4core3ptr13drop_in_place17h0364d982480f01e9E
	.quad	8
	.quad	8
	.quad	__ZN66_$LT$core..option..Option$LT$T$GT$$u20$as$u20$core..fmt..Debug$GT$3fmt17ha0cd523705a6a522E

	.section	__TEXT,__const
l___unnamed_12:
	.ascii	"RUST_FAILURE_BACKTRACE"

l___unnamed_13:
	.byte	48

l___unnamed_14:
	.ascii	"RUST_BACKTRACE"

l___unnamed_15:
	.ascii	"Compat"

l___unnamed_16:
	.ascii	"error"

	.section	__DATA,__const
	.p2align	3
l___unnamed_17:
	.quad	__ZN4core3ptr13drop_in_place17h0364d982480f01e9E
	.quad	8
	.quad	8
	.quad	__ZN42_$LT$$RF$T$u20$as$u20$core..fmt..Debug$GT$3fmt17h3674c6237e059b7bE

	.section	__TEXT,__const
l___unnamed_18:
	.ascii	"An error has occurred."

	.section	__DATA,__const
	.p2align	3
l___unnamed_19:
	.quad	__ZN4core3ptr13drop_in_place17he8796f8b74a87af9E
	.quad	16
	.quad	8
	.quad	__ZN3std5error5Error5cause17hfaa4ab59b0eecac1E
	.quad	__ZN3std5error5Error7type_id17haa3ba274f38bf66eE
	.quad	__ZN3std5error5Error9backtrace17hede62b5227ac9dbcE
	.quad	__ZN70_$LT$failure..compat..Compat$LT$E$GT$$u20$as$u20$std..error..Error$GT$11description17h91c0c9fbbd7b3d5bE
	.quad	__ZN3std5error5Error5cause17hfaa4ab59b0eecac1E
	.quad	__ZN60_$LT$failure..error..Error$u20$as$u20$core..fmt..Display$GT$3fmt17h38eba464e713eda0E
	.quad	__ZN69_$LT$failure..compat..Compat$LT$E$GT$$u20$as$u20$core..fmt..Debug$GT$3fmt17h8dc9562d588f9fb2E

	.section	__TEXT,__const
l___unnamed_23:
	.byte	0

	.section	__DATA,__const
	.p2align	3
l___unnamed_20:
	.quad	l___unnamed_23
	.space	8

	.p2align	3
l___unnamed_21:
	.quad	__ZN4core3ptr13drop_in_place17h449e9a324a835014E
	.quad	16
	.quad	8
	.quad	__ZN3std5error5Error5cause17hfaa4ab59b0eecac1E
	.quad	__ZN3std5error5Error5cause17hfaa4ab59b0eecac1E
	.quad	__ZN7failure4Fail9backtrace17h31b51934a03e92c5E
	.quad	0
	.quad	0
	.quad	0
	.quad	0
	.quad	__ZN7failure4Fail23__private_get_type_id__17h7e9412b67a464a72E
	.quad	__ZN63_$LT$failure..box_std..BoxStd$u20$as$u20$core..fmt..Display$GT$3fmt17h4e7b8969216718b7E
	.quad	__ZN61_$LT$failure..box_std..BoxStd$u20$as$u20$core..fmt..Debug$GT$3fmt17h1e1d7619aada8f2aE

	.section	__TEXT,__const
l___unnamed_24:
	.space	2,10

	.section	__DATA,__const
	.p2align	3
l___unnamed_1:
	.quad	l___unnamed_23
	.space	8
	.quad	l___unnamed_24
	.asciz	"\002\000\000\000\000\000\000"

	.globl	__ZN7failure5error5Error15find_root_cause17h51efbedaef344f20E
.set __ZN7failure5error5Error15find_root_cause17h51efbedaef344f20E, __ZN7failure5error5Error10root_cause17h33ef290f2c4e6bc7E
	.globl	__ZN7failure5error10error_impl9ErrorImpl7failure17hb42395e665702944E
.set __ZN7failure5error10error_impl9ErrorImpl7failure17hb42395e665702944E, __ZN66_$LT$failure..error..Error$u20$as$u20$failure..as_fail..AsFail$GT$7as_fail17h233cab16bc38c5e0E
	.globl	__ZN7failure5error5Error7as_fail17h9d89e907ee238056E
.set __ZN7failure5error5Error7as_fail17h9d89e907ee238056E, __ZN66_$LT$failure..error..Error$u20$as$u20$failure..as_fail..AsFail$GT$7as_fail17h233cab16bc38c5e0E
	.globl	__ZN7failure5error5Error5cause17h09d4917752d38e90E
.set __ZN7failure5error5Error5cause17h09d4917752d38e90E, __ZN66_$LT$failure..error..Error$u20$as$u20$failure..as_fail..AsFail$GT$7as_fail17h233cab16bc38c5e0E
	.globl	__ZN7failure5error5Error6causes17h37577e2ab0b6d378E
.set __ZN7failure5error5Error6causes17h37577e2ab0b6d378E, __ZN7failure5error5Error10iter_chain17hf278662645000fdaE
	.globl	__ZN91_$LT$failure..error..Error$u20$as$u20$core..convert..AsRef$LT$dyn$u20$failure..Fail$GT$$GT$6as_ref17h46e0ece425a5259eE
.set __ZN91_$LT$failure..error..Error$u20$as$u20$core..convert..AsRef$LT$dyn$u20$failure..Fail$GT$$GT$6as_ref17h46e0ece425a5259eE, __ZN66_$LT$failure..error..Error$u20$as$u20$failure..as_fail..AsFail$GT$7as_fail17h233cab16bc38c5e0E
	.globl	__ZN30_$LT$dyn$u20$failure..Fail$GT$6causes17h4b2ce9df2b295a52E
.set __ZN30_$LT$dyn$u20$failure..Fail$GT$6causes17h4b2ce9df2b295a52E, __ZN30_$LT$dyn$u20$failure..Fail$GT$10iter_chain17h18d8095132ca951dE
	.globl	__ZN30_$LT$dyn$u20$failure..Fail$GT$15find_root_cause17h748db3abe619ded2E
.set __ZN30_$LT$dyn$u20$failure..Fail$GT$15find_root_cause17h748db3abe619ded2E, __ZN30_$LT$dyn$u20$failure..Fail$GT$10root_cause17h07b2ce3828e89b5cE
	.globl	__ZN7failure15find_root_cause17h6516fed873c7c61cE
.set __ZN7failure15find_root_cause17h6516fed873c7c61cE, __ZN30_$LT$dyn$u20$failure..Fail$GT$10root_cause17h07b2ce3828e89b5cE
	.globl	__ZN7failure6compat175_$LT$impl$u20$core..convert..From$LT$failure..error..Error$GT$$u20$for$u20$alloc..boxed..Box$LT$dyn$u20$std..error..Error$u2b$core..marker..Sync$u2b$core..marker..Send$GT$$GT$4from17h7c4c5eaabb258277E
.set __ZN7failure6compat175_$LT$impl$u20$core..convert..From$LT$failure..error..Error$GT$$u20$for$u20$alloc..boxed..Box$LT$dyn$u20$std..error..Error$u2b$core..marker..Sync$u2b$core..marker..Send$GT$$GT$4from17h7c4c5eaabb258277E, __ZN7failure6compat129_$LT$impl$u20$core..convert..From$LT$failure..error..Error$GT$$u20$for$u20$alloc..boxed..Box$LT$dyn$u20$std..error..Error$GT$$GT$4from17h6c0152f0bfe024d1E
	.globl	__ZN68_$LT$failure..backtrace..Backtrace$u20$as$u20$core..fmt..Display$GT$3fmt17h515588c792e23399E
.set __ZN68_$LT$failure..backtrace..Backtrace$u20$as$u20$core..fmt..Display$GT$3fmt17h515588c792e23399E, __ZN66_$LT$failure..backtrace..Backtrace$u20$as$u20$core..fmt..Debug$GT$3fmt17hd0a687e3209b84ceE
.subsections_via_symbols
